###############################################################################
#                                                                             #
# IAR ANSI C/C++ Compiler V6.10.2.52244/W32 for ARM     14/Jul/2015  18:59:45 #
# Copyright 1999-2010 IAR Systems AB.                                         #
#                                                                             #
#    Cpu mode     =  arm                                                      #
#    Endian       =  little                                                   #
#    Source file  =  C:\DUII\TargetHW\GUI\DROPDOWN_SkinFlex.c                 #
#    Command line =  C:\DUII\TargetHW\GUI\DROPDOWN_SkinFlex.c -D DEBUG=1 -D   #
#                    SDRAM_TARGET=1 -D USB_IS_HIGH_SPEED -D                   #
#                    XIGNORE_TEMPERATURE -D BUILD_DEBUG_PORT -D PROFILER      #
#                    -lCN C:\DUII\TargetHW\Output\AT91SAM9RL64\Debug_SDRAM\Li #
#                    st\ -o C:\DUII\TargetHW\Output\AT91SAM9RL64\Debug_SDRAM\ #
#                    Obj\ --debug --endian=little --cpu=ARM926EJ-S -e         #
#                    --fpu=None --dlib_config "C:\Program Files (x86)\IAR     #
#                    Systems\Embedded Workbench 6.0\arm\INC\c\DLib_Config_Ful #
#                    l.h" -I C:\DUII\TargetHW\Application\SEGGERDEMO\ -I      #
#                    C:\DUII\TargetHW\Application\SEGGERDEMO\Src\ -I          #
#                    C:\DUII\TargetHW\Config\ -I C:\DUII\TargetHW\FS\ -I      #
#                    C:\DUII\TargetHW\GUI\ -I C:\DUII\TargetHW\Inc\ -I        #
#                    C:\DUII\TargetHW\OS\ -I C:\DUII\TargetHW\Setup\ -I       #
#                    \DUII\DUII\ -I \DUII\DUII\Graphics\ -I PROFILER\         #
#                    --cpu_mode arm -Ohs --use_c++_inline                     #
#                    --require_prototypes                                     #
#    List file    =  C:\DUII\TargetHW\Output\AT91SAM9RL64\Debug_SDRAM\List\DR #
#                    OPDOWN_SkinFlex.lst                                      #
#    Object file  =  C:\DUII\TargetHW\Output\AT91SAM9RL64\Debug_SDRAM\Obj\DRO #
#                    PDOWN_SkinFlex.o                                         #
#                                                                             #
#                                                                             #
###############################################################################

C:\DUII\TargetHW\GUI\DROPDOWN_SkinFlex.c
      1          /*********************************************************************
      2          *                SEGGER Microcontroller GmbH & Co. KG                *
      3          *        Solutions for real time microcontroller applications        *
      4          **********************************************************************
      5          *                                                                    *
      6          *        (c) 1996 - 2010  SEGGER Microcontroller GmbH & Co. KG       *
      7          *                                                                    *
      8          *        Internet: www.segger.com    Support:  support@segger.com    *
      9          *                                                                    *
     10          **********************************************************************
     11          
     12          ** emWin V5.06 - Graphical user interface for embedded applications **
     13          emWin is protected by international copyright laws.   Knowledge of the
     14          source code may not be used to write a similar product.  This file may
     15          only be used in accordance with a license and should not be re-
     16          distributed in any way. We appreciate your understanding and fairness.
     17          ----------------------------------------------------------------------
     18          File        : DROPDOWN_SkinFlex.c
     19          Purpose     : Implementation of framewindow skin
     20          ---------------------------END-OF-HEADER------------------------------
     21          */
     22          
     23          #include "DROPDOWN_Private.h"
     24          #include "GUI_Private.h"
     25          #include "WM_Intern.h"
     26          
     27          #if GUI_WINSUPPORT
     28          
     29          /*********************************************************************
     30          *
     31          *       Defines (configuration defaults)
     32          *
     33          **********************************************************************
     34          */
     35          #ifndef   DROPDOWN_SKINFLEX_RADIUS
     36            #define DROPDOWN_SKINFLEX_RADIUS    2
     37          #endif
     38          
     39          #ifndef   DROPDOWN_SKINPROPS_OPEN

   \                                 In section .data, align 4
     40            static DROPDOWN_SKINFLEX_PROPS _PropsOpen = {
   \                     _PropsOpen:
   \   00000000   2C628B009EB0       DC32 9134636, 12234910, 15716760, 16577765, 16180676, 15716760
   \              BA0098D1EF00
   \              E5F4FC00C4E5
   \              F60098D1EF00
   \   00000018   68B3DB004040       DC32 14398312, 4210752, 0, 9134636, 2
   \              400000000000
   \              2C628B000200
   \              0000        
     41              { 0x008B622C, 0x00BAB09E, 0x00EFD198 },
     42              { 0x00FCF4E5, 0x00F6E5C4 },
     43              { 0x00EFD198, 0x00DBB368 },
     44              0x00404040,
     45              0x00000000,
     46              0x008B622C,
     47              DROPDOWN_SKINFLEX_RADIUS
     48            };
     49            #define DROPDOWN_SKINPROPS_OPEN     &_PropsOpen
     50          #endif
     51          
     52          #ifndef   DROPDOWN_SKINPROPS_FOCUSSED

   \                                 In section .data, align 4
     53            static DROPDOWN_SKINFLEX_PROPS _PropsFocussed = {
   \                     _PropsFocussed:
   \   00000000   3C7FB10046D8       DC32 11632444, 16504902, 14671839, 15987699, 15527148, 14671839
   \              FB00DFDFDF00
   \              F3F3F300ECEC
   \              EC00DFDFDF00
   \   00000018   D0D0D0004040       DC32 13684944, 4210752, 0, 11632444, 2
   \              400000000000
   \              3C7FB1000200
   \              0000        
     54              { 0x00B17F3C, 0x00FBD846, 0x00DFDFDF },
     55              { 0x00F3F3F3, 0x00ECECEC },
     56              { 0x00DFDFDF, 0x00D0D0D0 },
     57              0x00404040,
     58              0x00000000,
     59              0x00B17F3C,
     60              DROPDOWN_SKINFLEX_RADIUS
     61            };
     62            #define DROPDOWN_SKINPROPS_FOCUSSED &_PropsFocussed
     63          #endif
     64          
     65          #ifndef   DROPDOWN_SKINPROPS_ENABLED

   \                                 In section .data, align 4
     66            static DROPDOWN_SKINFLEX_PROPS _PropsEnabled = {
   \                     _PropsEnabled:
   \   00000000   70707000FCFC       DC32 7368816, 16579836, 14671839, 15987699, 15527148, 14671839
   \              FC00DFDFDF00
   \              F3F3F300ECEC
   \              EC00DFDFDF00
   \   00000018   D0D0D0004040       DC32 13684944, 4210752, 0, 7368816, 2
   \              400000000000
   \              707070000200
   \              0000        
     67              { 0x00707070, 0x00FCFCFC, 0x00DFDFDF },
     68              { 0x00F3F3F3, 0x00ECECEC },
     69              { 0x00DFDFDF, 0x00D0D0D0 },
     70              0x00404040,
     71              0x00000000,
     72              0x00707070,
     73              DROPDOWN_SKINFLEX_RADIUS
     74            };
     75            #define DROPDOWN_SKINPROPS_ENABLED  &_PropsEnabled
     76          #endif
     77          
     78          #ifndef   DROPDOWN_SKINPROPS_DISABLED

   \                                 In section .data, align 4
     79            static DROPDOWN_SKINFLEX_PROPS _PropsDisabled = {
   \                     _PropsDisabled:
   \   00000000   ADB2B500FCFC       DC32 11907757, 16579836, 16053492, 16053492, 16053492, 16053492
   \              FC00F4F4F400
   \              F4F4F400F4F4
   \              F400F4F4F400
   \   00000018   F4F4F4004040       DC32 16053492, 4210752, 0, 11907757, 2
   \              400000000000
   \              ADB2B5000200
   \              0000        
     80              { 0x00B5B2AD, 0x00FCFCFC, 0x00F4F4F4 },
     81              { 0x00F4F4F4, 0x00F4F4F4 },
     82              { 0x00F4F4F4, 0x00F4F4F4 },
     83              0x00404040,
     84              0x00000000,
     85              0x00B5B2AD,
     86              DROPDOWN_SKINFLEX_RADIUS
     87            };
     88            #define DROPDOWN_SKINPROPS_DISABLED &_PropsDisabled
     89          #endif
     90          
     91          /*********************************************************************
     92          *
     93          *       Static data
     94          *
     95          **********************************************************************
     96          */

   \                                 In section .text, align 4, keep-with-next
     97          static DROPDOWN_SKINFLEX_PROPS * const _apProps[] = {
   \                     _apProps:
   \   00000000                      ; Initializer data, 16 bytes
   \   00000000   ............       DC32 _PropsOpen, _PropsFocussed, _PropsEnabled, _PropsDisabled
   \              ............
   \              ........    
     98            DROPDOWN_SKINPROPS_OPEN,
     99            DROPDOWN_SKINPROPS_FOCUSSED,
    100            DROPDOWN_SKINPROPS_ENABLED,
    101            DROPDOWN_SKINPROPS_DISABLED
    102          };
    103          
    104          /*********************************************************************
    105          *
    106          *       Static code
    107          *
    108          **********************************************************************
    109          */
    110          /*********************************************************************
    111          *
    112          *       _DrawTriangleDown
    113          */
    114          static void _DrawTriangleDown(int x, int y, int Size) {
    115            for (; Size >= 0; Size--, y++ ) {
    116              GUI_DrawHLine(y, x - Size, x + Size);
    117            }
    118          }
    119          
    120          /*********************************************************************
    121          *
    122          *       _DrawBackground
    123          */

   \                                 In section .text, align 4, keep-with-next
    124          static void _DrawBackground(const WIDGET_ITEM_DRAW_INFO * pDrawItemInfo, const DROPDOWN_SKINFLEX_PROPS * pProps) {
   \                     _DrawBackground:
   \   00000000   30402DE9           PUSH     {R4,R5,LR}
   \   00000004   0040A0E1           MOV      R4,R0
   \   00000008   0150A0E1           MOV      R5,R1
    125            int y;
    126            GUI_COLOR Color;
    127            
    128            //
    129            // Edges
    130            //
    131            GUI__DrawTwinArc4(pDrawItemInfo->x0, pDrawItemInfo->y0, pDrawItemInfo->x1, pDrawItemInfo->y1, pProps->Radius, pProps->aColorFrame[0], pProps->aColorFrame[1], pProps->aColorFrame[2]);
   \   0000000C   080095E5           LDR      R0,[R5, #+8]
   \   00000010   14D04DE2           SUB      SP,SP,#+20
   \   00000014   0C008DE5           STR      R0,[SP, #+12]
   \   00000018   040095E5           LDR      R0,[R5, #+4]
   \   0000001C   08008DE5           STR      R0,[SP, #+8]
   \   00000020   000095E5           LDR      R0,[R5, #+0]
   \   00000024   04008DE5           STR      R0,[SP, #+4]
   \   00000028   280095E5           LDR      R0,[R5, #+40]
   \   0000002C   00008DE5           STR      R0,[SP, #+0]
   \   00000030   183094E5           LDR      R3,[R4, #+24]
   \   00000034   142094E5           LDR      R2,[R4, #+20]
   \   00000038   101094E5           LDR      R1,[R4, #+16]
   \   0000003C   0C0094E5           LDR      R0,[R4, #+12]
   \   00000040   ........           BL       GUI__DrawTwinArc4
    132            //
    133            // Frame
    134            //
    135            for (y = 0; y < 2; y++) {
    136              Color = *(pProps->aColorFrame + y);
    137              GUI_SetColor(Color);
   \   00000044   000095E5           LDR      R0,[R5, #+0]
   \   00000048   ........           BL       GUI_SetColor
    138              GUI_DrawHLine(pDrawItemInfo->y0 + y, pDrawItemInfo->x0 + pProps->Radius, pDrawItemInfo->x1 - pProps->Radius);
   \   0000004C   280095E5           LDR      R0,[R5, #+40]
   \   00000050   141094E5           LDR      R1,[R4, #+20]
   \   00000054   002041E0           SUB      R2,R1,R0
   \   00000058   0C1094E5           LDR      R1,[R4, #+12]
   \   0000005C   011080E0           ADD      R1,R0,R1
   \   00000060   100094E5           LDR      R0,[R4, #+16]
   \   00000064   ........           BL       GUI_DrawHLine
    139              GUI_DrawHLine(pDrawItemInfo->y1 - y, pDrawItemInfo->x0 + pProps->Radius, pDrawItemInfo->x1 - pProps->Radius);
   \   00000068   280095E5           LDR      R0,[R5, #+40]
   \   0000006C   141094E5           LDR      R1,[R4, #+20]
   \   00000070   002041E0           SUB      R2,R1,R0
   \   00000074   0C1094E5           LDR      R1,[R4, #+12]
   \   00000078   011080E0           ADD      R1,R0,R1
   \   0000007C   180094E5           LDR      R0,[R4, #+24]
   \   00000080   ........           BL       GUI_DrawHLine
    140              GUI_DrawVLine(pDrawItemInfo->x0 + y, pDrawItemInfo->y0 + pProps->Radius, pDrawItemInfo->y1 - pProps->Radius);
   \   00000084   280095E5           LDR      R0,[R5, #+40]
   \   00000088   181094E5           LDR      R1,[R4, #+24]
   \   0000008C   002041E0           SUB      R2,R1,R0
   \   00000090   101094E5           LDR      R1,[R4, #+16]
   \   00000094   011080E0           ADD      R1,R0,R1
   \   00000098   0C0094E5           LDR      R0,[R4, #+12]
   \   0000009C   ........           BL       GUI_DrawVLine
    141              GUI_DrawVLine(pDrawItemInfo->x1 - y, pDrawItemInfo->y0 + pProps->Radius, pDrawItemInfo->y1 - pProps->Radius);
   \   000000A0   280095E5           LDR      R0,[R5, #+40]
   \   000000A4   181094E5           LDR      R1,[R4, #+24]
   \   000000A8   002041E0           SUB      R2,R1,R0
   \   000000AC   101094E5           LDR      R1,[R4, #+16]
   \   000000B0   011080E0           ADD      R1,R0,R1
   \   000000B4   140094E5           LDR      R0,[R4, #+20]
   \   000000B8   ........           BL       GUI_DrawVLine
   \   000000BC   040095E5           LDR      R0,[R5, #+4]
   \   000000C0   ........           BL       GUI_SetColor
   \   000000C4   280095E5           LDR      R0,[R5, #+40]
   \   000000C8   141094E5           LDR      R1,[R4, #+20]
   \   000000CC   002041E0           SUB      R2,R1,R0
   \   000000D0   0C1094E5           LDR      R1,[R4, #+12]
   \   000000D4   011080E0           ADD      R1,R0,R1
   \   000000D8   100094E5           LDR      R0,[R4, #+16]
   \   000000DC   010080E2           ADD      R0,R0,#+1
   \   000000E0   ........           BL       GUI_DrawHLine
   \   000000E4   280095E5           LDR      R0,[R5, #+40]
   \   000000E8   141094E5           LDR      R1,[R4, #+20]
   \   000000EC   002041E0           SUB      R2,R1,R0
   \   000000F0   0C1094E5           LDR      R1,[R4, #+12]
   \   000000F4   011080E0           ADD      R1,R0,R1
   \   000000F8   180094E5           LDR      R0,[R4, #+24]
   \   000000FC   010040E2           SUB      R0,R0,#+1
   \   00000100   ........           BL       GUI_DrawHLine
   \   00000104   280095E5           LDR      R0,[R5, #+40]
   \   00000108   181094E5           LDR      R1,[R4, #+24]
   \   0000010C   002041E0           SUB      R2,R1,R0
   \   00000110   101094E5           LDR      R1,[R4, #+16]
   \   00000114   011080E0           ADD      R1,R0,R1
   \   00000118   0C0094E5           LDR      R0,[R4, #+12]
   \   0000011C   010080E2           ADD      R0,R0,#+1
   \   00000120   ........           BL       GUI_DrawVLine
   \   00000124   280095E5           LDR      R0,[R5, #+40]
   \   00000128   181094E5           LDR      R1,[R4, #+24]
   \   0000012C   002041E0           SUB      R2,R1,R0
   \   00000130   101094E5           LDR      R1,[R4, #+16]
   \   00000134   011080E0           ADD      R1,R0,R1
   \   00000138   140094E5           LDR      R0,[R4, #+20]
   \   0000013C   010040E2           SUB      R0,R0,#+1
   \   00000140   ........           BL       GUI_DrawVLine
    142            }
    143            if (pProps->Radius > 2) {
   \   00000144   280095E5           LDR      R0,[R5, #+40]
   \   00000148   030050E3           CMP      R0,#+3
   \   0000014C   150000BA           BLT      ??_DrawBackground_0
    144              GUI_SetColor(pProps->aColorFrame[2]);
   \   00000150   080095E5           LDR      R0,[R5, #+8]
   \   00000154   ........           BL       GUI_SetColor
    145              GUI_FillRect(pDrawItemInfo->x0 + 2, pDrawItemInfo->y0 + pProps->Radius, pDrawItemInfo->x0 + pProps->Radius - 1, pDrawItemInfo->y1 - pProps->Radius);
   \   00000158   281095E5           LDR      R1,[R5, #+40]
   \   0000015C   182094E5           LDR      R2,[R4, #+24]
   \   00000160   0C0094E5           LDR      R0,[R4, #+12]
   \   00000164   013042E0           SUB      R3,R2,R1
   \   00000168   10C094E5           LDR      R12,[R4, #+16]
   \   0000016C   002081E0           ADD      R2,R1,R0
   \   00000170   012042E2           SUB      R2,R2,#+1
   \   00000174   0C1081E0           ADD      R1,R1,R12
   \   00000178   020080E2           ADD      R0,R0,#+2
   \   0000017C   ........           BL       GUI_FillRect
    146              GUI_FillRect(pDrawItemInfo->x1 - pProps->Radius + 1, pDrawItemInfo->y0 + pProps->Radius, pDrawItemInfo->x1 - 2, pDrawItemInfo->y1 - pProps->Radius);
   \   00000180   28C095E5           LDR      R12,[R5, #+40]
   \   00000184   181094E5           LDR      R1,[R4, #+24]
   \   00000188   140094E5           LDR      R0,[R4, #+20]
   \   0000018C   0C3041E0           SUB      R3,R1,R12
   \   00000190   022040E2           SUB      R2,R0,#+2
   \   00000194   101094E5           LDR      R1,[R4, #+16]
   \   00000198   0C0040E0           SUB      R0,R0,R12
   \   0000019C   01108CE0           ADD      R1,R12,R1
   \   000001A0   010080E2           ADD      R0,R0,#+1
   \   000001A4   ........           BL       GUI_FillRect
    147            }
    148            //
    149            // Background
    150            //
    151            GUI_DrawGradientV(pDrawItemInfo->x0 + pProps->Radius,
    152                              pDrawItemInfo->y0 + 2,
    153                              pDrawItemInfo->x1 - pProps->Radius,
    154                              ((pDrawItemInfo->y0 + pDrawItemInfo->y1) >> 1),
    155                              pProps->aColorUpper[0], pProps->aColorUpper[1]);
   \                     ??_DrawBackground_0:
   \   000001A8   102095E5           LDR      R2,[R5, #+16]
   \   000001AC   280095E5           LDR      R0,[R5, #+40]
   \   000001B0   101094E5           LDR      R1,[R4, #+16]
   \   000001B4   04208DE5           STR      R2,[SP, #+4]
   \   000001B8   0C2095E5           LDR      R2,[R5, #+12]
   \   000001BC   00208DE5           STR      R2,[SP, #+0]
   \   000001C0   182094E5           LDR      R2,[R4, #+24]
   \   000001C4   0CC094E5           LDR      R12,[R4, #+12]
   \   000001C8   012082E0           ADD      R2,R2,R1
   \   000001CC   C230A0E1           ASR      R3,R2,#+1
   \   000001D0   142094E5           LDR      R2,[R4, #+20]
   \   000001D4   021081E2           ADD      R1,R1,#+2
   \   000001D8   002042E0           SUB      R2,R2,R0
   \   000001DC   0C0080E0           ADD      R0,R0,R12
   \   000001E0   ........           BL       GUI_DrawGradientV
    156            GUI_DrawGradientV(pDrawItemInfo->x0 + pProps->Radius,
    157                              ((pDrawItemInfo->y0 + pDrawItemInfo->y1) >> 1) + 1,
    158                              pDrawItemInfo->x1 - pProps->Radius,
    159                              pDrawItemInfo->y1 - 2,
    160                              pProps->aColorLower[0], pProps->aColorLower[1]);
   \   000001E4   182095E5           LDR      R2,[R5, #+24]
   \   000001E8   280095E5           LDR      R0,[R5, #+40]
   \   000001EC   181094E5           LDR      R1,[R4, #+24]
   \   000001F0   04208DE5           STR      R2,[SP, #+4]
   \   000001F4   142095E5           LDR      R2,[R5, #+20]
   \   000001F8   023041E2           SUB      R3,R1,#+2
   \   000001FC   00208DE5           STR      R2,[SP, #+0]
   \   00000200   10C094E5           LDR      R12,[R4, #+16]
   \   00000204   142094E5           LDR      R2,[R4, #+20]
   \   00000208   0C1081E0           ADD      R1,R1,R12
   \   0000020C   01C0A0E3           MOV      R12,#+1
   \   00000210   C1108CE0           ADD      R1,R12,R1, ASR #+1
   \   00000214   0CC094E5           LDR      R12,[R4, #+12]
   \   00000218   002042E0           SUB      R2,R2,R0
   \   0000021C   0C0080E0           ADD      R0,R0,R12
   \   00000220   ........           BL       GUI_DrawGradientV
    161            //
    162            // Separator
    163            //
    164            GUI_SetColor(pProps->ColorSep);
   \   00000224   240095E5           LDR      R0,[R5, #+36]
   \   00000228   ........           BL       GUI_SetColor
    165            GUI_DrawVLine(pDrawItemInfo->x1 - (pDrawItemInfo->y1 - pDrawItemInfo->y0) + 1, pDrawItemInfo->y0 + 4, pDrawItemInfo->y1 - 4);
   \   0000022C   183094E5           LDR      R3,[R4, #+24]
   \   00000230   100094E5           LDR      R0,[R4, #+16]
   \   00000234   14C094E5           LDR      R12,[R4, #+20]
   \   00000238   14D08DE2           ADD      SP,SP,#+20
   \   0000023C   042043E2           SUB      R2,R3,#+4
   \   00000240   3040BDE8           POP      {R4,R5,LR}
   \   00000244   041080E2           ADD      R1,R0,#+4
   \   00000248   03304CE0           SUB      R3,R12,R3
   \   0000024C   030080E0           ADD      R0,R0,R3
   \   00000250   010080E2           ADD      R0,R0,#+1
   \   00000254   ........           B        GUI_DrawVLine    ;; tailcall
    166          }
    167          
    168          /*********************************************************************
    169          *
    170          *       _DrawText
    171          */
    172          static void _DrawText(const WIDGET_ITEM_DRAW_INFO * pDrawItemInfo, const DROPDOWN_SKINFLEX_PROPS * pProps) {
    173            const char * s;
    174            DROPDOWN_Obj * pObj;
    175            const GUI_FONT GUI_UNI_PTR * pFont;
    176            int Align, TextBorderSize;
    177            GUI_RECT Rect;
    178          
    179            //
    180            // Get object properties
    181            //
    182            pObj = DROPDOWN_LOCK_H(pDrawItemInfo->hWin);
    183            TextBorderSize = pObj->Props.TextBorderSize;
    184            pFont = pObj->Props.pFont;
    185            Align = pObj->Props.Align;
    186            GUI_UNLOCK_H(pObj);
    187            //
    188            // Draw
    189            //
    190            Rect.x0 = pDrawItemInfo->x0 + 2 + TextBorderSize;
    191            Rect.y0 = pDrawItemInfo->y0 + 2;
    192            Rect.x1 = pDrawItemInfo->x1 - 2 - TextBorderSize - (pDrawItemInfo->y1 - pDrawItemInfo->y0 + 1);
    193            Rect.y1 = pDrawItemInfo->y1 - 2;
    194            GUI_SetTextMode(GUI_TM_TRANS);
    195            GUI_SetFont(pFont);
    196            GUI_SetColor(pProps->ColorText);
    197            s = (const char *)pDrawItemInfo->p;
    198            GUI_DispStringInRect(s, &Rect, Align);
    199          }
    200          
    201          /*********************************************************************
    202          *
    203          *       _DrawArrow
    204          */
    205          static void _DrawArrow(const WIDGET_ITEM_DRAW_INFO * pDrawItemInfo, const DROPDOWN_SKINFLEX_PROPS * pProps) {
    206            int xPos, yPos, ySize;
    207          
    208            ySize = ((pDrawItemInfo->y1 - pDrawItemInfo->y0 - 8) >> 1) - 1;
    209            xPos  = pDrawItemInfo->x1 - ((pDrawItemInfo->y1 - pDrawItemInfo->y0 + 1) >> 1);
    210            yPos  = ((pDrawItemInfo->y1 - pDrawItemInfo->y0 - ySize) >> 1);
    211            GUI_SetColor(pProps->ColorArrow);
    212            _DrawTriangleDown(xPos, yPos, ySize);
    213          }
    214          
    215          /*********************************************************************
    216          *
    217          *       Public code
    218          *
    219          **********************************************************************
    220          */
    221          /*********************************************************************
    222          *
    223          *       DROPDOWN_DrawSkinFlex
    224          */

   \                                 In section .text, align 4, keep-with-next
    225          int DROPDOWN_DrawSkinFlex(const WIDGET_ITEM_DRAW_INFO * pDrawItemInfo) {
   \                     DROPDOWN_DrawSkinFlex:
   \   00000000   F0412DE9           PUSH     {R4-R8,LR}
   \   00000004   0040A0E1           MOV      R4,R0
   \   00000008   08D04DE2           SUB      SP,SP,#+8
    226            DROPDOWN_Obj * pObj;
    227            const DROPDOWN_SKINFLEX_PROPS * pProps;
    228            WM_HWIN hListWin;
    229            int State, IsOpen, IsFocussed, IsEnabled, Index;
    230          
    231            //
    232            // Get object properties
    233            //
    234            pObj = DROPDOWN_LOCK_H(pDrawItemInfo->hWin);
   \   0000000C   000094E5           LDR      R0,[R4, #+0]
   \   00000010   ........           BL       GUI_ALLOC_LockH
    235            State = pObj->Widget.State;
   \   00000014   B253D0E1           LDRH     R5,[R0, #+50]
    236            hListWin = pObj->hListWin;
   \   00000018   886090E5           LDR      R6,[R0, #+136]
    237            GUI_UNLOCK_H(pObj);
   \   0000001C   ........           BL       GUI_ALLOC_UnlockH
    238            //
    239            // Get state
    240            //
    241            IsOpen     = hListWin ? 1 : 0;
   \   00000020   000056E3           CMP      R6,#+0
   \   00000024   0160A013           MOVNE    R6,#+1
    242            IsFocussed = (State & WIDGET_STATE_FOCUS) ? 1 : 0;
    243            IsEnabled  = WM__IsEnabled(pDrawItemInfo->hWin);
   \   00000028   000094E5           LDR      R0,[R4, #+0]
   \   0000002C   ........           BL       WM__IsEnabled
    244            //
    245            // Get property pointer
    246            //
    247            if (IsOpen) {
   \   00000030   000056E3           CMP      R6,#+0
    248              Index = DROPDOWN_SKINFLEX_PI_EXPANDED;
   \   00000034   0000A013           MOVNE    R0,#+0
   \   00000038   0500001A           BNE      ??DROPDOWN_DrawSkinFlex_1
    249            } else if (IsFocussed) {
   \   0000003C   010015E3           TST      R5,#0x1
    250              Index = DROPDOWN_SKINFLEX_PI_FOCUSSED;
   \   00000040   0100A013           MOVNE    R0,#+1
   \   00000044   0200001A           BNE      ??DROPDOWN_DrawSkinFlex_1
    251            } else if (IsEnabled) {
   \   00000048   000050E3           CMP      R0,#+0
    252              Index = DROPDOWN_SKINFLEX_PI_ENABLED;
   \   0000004C   0200A013           MOVNE    R0,#+2
    253            } else {
    254              Index = DROPDOWN_SKINFLEX_PI_DISABLED;
   \   00000050   0300A003           MOVEQ    R0,#+3
    255            }
    256            pProps = _apProps[Index];
   \                     ??DROPDOWN_DrawSkinFlex_1:
   \   00000054   ........           ADR      R1,_apProps
   \   00000058   005191E7           LDR      R5,[R1, +R0, LSL #+2]
    257            //
    258            // Draw
    259            //
    260            switch (pDrawItemInfo->Cmd) {
   \   0000005C   040094E5           LDR      R0,[R4, #+4]
   \   00000060   100050E3           CMP      R0,#+16
   \   00000064   00F18F90           ADDLS    PC,PC,R0, LSL #+2
   \                     ??DROPDOWN_DrawSkinFlex_0:
   \   00000068   5200008A           BHI      ??DROPDOWN_DrawSkinFlex_2
   \   0000006C   4F0000EA           B        ??DROPDOWN_DrawSkinFlex_3
   \   00000070   500000EA           B        ??DROPDOWN_DrawSkinFlex_2
   \   00000074   330000EA           B        ??DROPDOWN_DrawSkinFlex_4
   \   00000078   0C0000EA           B        ??DROPDOWN_DrawSkinFlex_5
   \   0000007C   4D0000EA           B        ??DROPDOWN_DrawSkinFlex_2
   \   00000080   4C0000EA           B        ??DROPDOWN_DrawSkinFlex_2
   \   00000084   4B0000EA           B        ??DROPDOWN_DrawSkinFlex_2
   \   00000088   4A0000EA           B        ??DROPDOWN_DrawSkinFlex_2
   \   0000008C   490000EA           B        ??DROPDOWN_DrawSkinFlex_2
   \   00000090   480000EA           B        ??DROPDOWN_DrawSkinFlex_2
   \   00000094   470000EA           B        ??DROPDOWN_DrawSkinFlex_2
   \   00000098   460000EA           B        ??DROPDOWN_DrawSkinFlex_2
   \   0000009C   450000EA           B        ??DROPDOWN_DrawSkinFlex_2
   \   000000A0   440000EA           B        ??DROPDOWN_DrawSkinFlex_2
   \   000000A4   430000EA           B        ??DROPDOWN_DrawSkinFlex_2
   \   000000A8   420000EA           B        ??DROPDOWN_DrawSkinFlex_2
   \   000000AC   030000EA           B        ??DROPDOWN_DrawSkinFlex_6
    261            case WIDGET_ITEM_DRAW_BACKGROUND:
    262              _DrawBackground(pDrawItemInfo, pProps);
   \                     ??DROPDOWN_DrawSkinFlex_5:
   \   000000B0   0510A0E1           MOV      R1,R5
   \   000000B4   0400A0E1           MOV      R0,R4
   \   000000B8   ........           BL       _DrawBackground
    263              break;
   \   000000BC   3D0000EA           B        ??DROPDOWN_DrawSkinFlex_2
    264            case WIDGET_ITEM_DRAW_TEXT:
    265              _DrawText(pDrawItemInfo, pProps);
   \                     ??DROPDOWN_DrawSkinFlex_6:
   \   000000C0   000094E5           LDR      R0,[R4, #+0]
   \   000000C4   ........           BL       GUI_ALLOC_LockH
   \   000000C8   F068D0E1           LDRSH    R6,[R0, #+128]
   \   000000CC   4C7090E5           LDR      R7,[R0, #+76]
   \   000000D0   F288D0E1           LDRSH    R8,[R0, #+130]
   \   000000D4   ........           BL       GUI_ALLOC_UnlockH
   \   000000D8   0C0094E5           LDR      R0,[R4, #+12]
   \   000000DC   000086E0           ADD      R0,R6,R0
   \   000000E0   020080E2           ADD      R0,R0,#+2
   \   000000E4   B000CDE1           STRH     R0,[SP, #+0]
   \   000000E8   100094E5           LDR      R0,[R4, #+16]
   \   000000EC   021080E2           ADD      R1,R0,#+2
   \   000000F0   B210CDE1           STRH     R1,[SP, #+2]
   \   000000F4   142094E5           LDR      R2,[R4, #+20]
   \   000000F8   181094E5           LDR      R1,[R4, #+24]
   \   000000FC   022042E2           SUB      R2,R2,#+2
   \   00000100   062042E0           SUB      R2,R2,R6
   \   00000104   012042E0           SUB      R2,R2,R1
   \   00000108   020080E0           ADD      R0,R0,R2
   \   0000010C   010040E2           SUB      R0,R0,#+1
   \   00000110   B400CDE1           STRH     R0,[SP, #+4]
   \   00000114   020041E2           SUB      R0,R1,#+2
   \   00000118   B600CDE1           STRH     R0,[SP, #+6]
   \   0000011C   0200A0E3           MOV      R0,#+2
   \   00000120   ........           BL       GUI_SetTextMode
   \   00000124   0700A0E1           MOV      R0,R7
   \   00000128   ........           BL       GUI_SetFont
   \   0000012C   200095E5           LDR      R0,[R5, #+32]
   \   00000130   ........           BL       GUI_SetColor
   \   00000134   0820A0E1           MOV      R2,R8
   \   00000138   0D10A0E1           MOV      R1,SP
   \   0000013C   1C0094E5           LDR      R0,[R4, #+28]
   \   00000140   ........           BL       GUI_DispStringInRect
    266              break;
   \   00000144   1B0000EA           B        ??DROPDOWN_DrawSkinFlex_2
    267            case WIDGET_ITEM_DRAW_ARROW:
    268              _DrawArrow(pDrawItemInfo, pProps);
   \                     ??DROPDOWN_DrawSkinFlex_4:
   \   00000148   180094E5           LDR      R0,[R4, #+24]
   \   0000014C   101094E5           LDR      R1,[R4, #+16]
   \   00000150   0020E0E3           MVN      R2,#+0
   \   00000154   010040E0           SUB      R0,R0,R1
   \   00000158   081040E2           SUB      R1,R0,#+8
   \   0000015C   C16082E0           ADD      R6,R2,R1, ASR #+1
   \   00000160   012080E2           ADD      R2,R0,#+1
   \   00000164   141094E5           LDR      R1,[R4, #+20]
   \   00000168   060040E0           SUB      R0,R0,R6
   \   0000016C   C070A0E1           ASR      R7,R0,#+1
   \   00000170   C24041E0           SUB      R4,R1,R2, ASR #+1
   \   00000174   1C0095E5           LDR      R0,[R5, #+28]
   \   00000178   ........           BL       GUI_SetColor
   \   0000017C   000056E3           CMP      R6,#+0
   \   00000180   0C00004A           BMI      ??DROPDOWN_DrawSkinFlex_2
   \   00000184   045086E0           ADD      R5,R6,R4
   \                     ??DROPDOWN_DrawSkinFlex_7:
   \   00000188   0520A0E1           MOV      R2,R5
   \   0000018C   061044E0           SUB      R1,R4,R6
   \   00000190   0700A0E1           MOV      R0,R7
   \   00000194   ........           BL       GUI_DrawHLine
   \   00000198   016046E2           SUB      R6,R6,#+1
   \   0000019C   017087E2           ADD      R7,R7,#+1
   \   000001A0   015045E2           SUB      R5,R5,#+1
   \   000001A4   000056E3           CMP      R6,#+0
   \   000001A8   F6FFFF5A           BPL      ??DROPDOWN_DrawSkinFlex_7
   \   000001AC   010000EA           B        ??DROPDOWN_DrawSkinFlex_2
    269              break;
    270            case WIDGET_ITEM_CREATE:
    271              WM_SetHasTrans(pDrawItemInfo->hWin);
   \                     ??DROPDOWN_DrawSkinFlex_3:
   \   000001B0   000094E5           LDR      R0,[R4, #+0]
   \   000001B4   ........           BL       WM_SetHasTrans
    272              break;
    273            }
    274            return 0;
   \                     ??DROPDOWN_DrawSkinFlex_2:
   \   000001B8   0000A0E3           MOV      R0,#+0
   \   000001BC   08D08DE2           ADD      SP,SP,#+8
   \   000001C0   F081BDE8           POP      {R4-R8,PC}       ;; return
    275          }
    276          
    277          /*********************************************************************
    278          *
    279          *       DROPDOWN_SetSkinFlexProps
    280          */

   \                                 In section .text, align 4, keep-with-next
    281          void DROPDOWN_SetSkinFlexProps(const DROPDOWN_SKINFLEX_PROPS * pProps, int Index) {
    282            if (Index < GUI_COUNTOF(_apProps)) {
   \                     DROPDOWN_SetSkinFlexProps:
   \   00000000   040051E3           CMP      R1,#+4
   \   00000004   0000003A           BCC      ??DROPDOWN_SetSkinFlexProps_0
    283              *_apProps[Index] = *pProps;
   \   00000008   1EFF2FE1           BX       LR
    284            }
   \                     ??DROPDOWN_SetSkinFlexProps_0:
   \   0000000C   30402DE9           PUSH     {R4,R5,LR}
   \   00000010   ........           ADR      R2,_apProps
   \   00000014   011192E7           LDR      R1,[R2, +R1, LSL #+2]
   \   00000018   3C50B0E8           LDM      R0!,{R2-R5,R12,LR}
   \   0000001C   3C50A1E8           STM      R1!,{R2-R5,R12,LR}
   \   00000020   1C50B0E8           LDM      R0!,{R2-R4,R12,LR}
   \   00000024   1C50A1E8           STM      R1!,{R2-R4,R12,LR}
    285          }
   \   00000028   3080BDE8           POP      {R4,R5,PC}       ;; return
    286          
    287          /*********************************************************************
    288          *
    289          *       DROPDOWN_GetSkinFlexProps
    290          */

   \                                 In section .text, align 4, keep-with-next
    291          void DROPDOWN_GetSkinFlexProps(DROPDOWN_SKINFLEX_PROPS * pProps, int Index) {
    292            if (Index < GUI_COUNTOF(_apProps)) {
   \                     DROPDOWN_GetSkinFlexProps:
   \   00000000   040051E3           CMP      R1,#+4
   \   00000004   0000003A           BCC      ??DROPDOWN_GetSkinFlexProps_0
    293              *pProps = *_apProps[Index];
   \   00000008   1EFF2FE1           BX       LR
    294            }
   \                     ??DROPDOWN_GetSkinFlexProps_0:
   \   0000000C   30402DE9           PUSH     {R4,R5,LR}
   \   00000010   ........           ADR      R2,_apProps
   \   00000014   011192E7           LDR      R1,[R2, +R1, LSL #+2]
   \   00000018   3C50B1E8           LDM      R1!,{R2-R5,R12,LR}
   \   0000001C   3C50A0E8           STM      R0!,{R2-R5,R12,LR}
   \   00000020   1C50B1E8           LDM      R1!,{R2-R4,R12,LR}
   \   00000024   1C50A0E8           STM      R0!,{R2-R4,R12,LR}
    295          }
   \   00000028   3080BDE8           POP      {R4,R5,PC}       ;; return
    296          
    297          #else
    298            void DROPDOWN_SkinFlex_C(void);
    299            void DROPDOWN_SkinFlex_C(void) {} /* avoid empty object files */
    300          #endif /* GUI_WINSUPPORT */
    301          
    302          /*************************** End of file ****************************/

   Maximum stack usage in bytes:

     Function                  .cstack
     --------                  -------
     DROPDOWN_DrawSkinFlex         32
     DROPDOWN_GetSkinFlexProps     12
     DROPDOWN_SetSkinFlexProps     12
     _DrawBackground               32


   Section sizes:

     Function/Label            Bytes
     --------------            -----
     _PropsOpen                  44
     _PropsFocussed              44
     _PropsEnabled               44
     _PropsDisabled              44
     _apProps                    16
     _DrawBackground            600
     DROPDOWN_DrawSkinFlex      452
     DROPDOWN_SetSkinFlexProps   44
     DROPDOWN_GetSkinFlexProps   44

 
   176 bytes in section .data
 1 156 bytes in section .text
 
 1 156 bytes of CODE memory
   176 bytes of DATA memory

Errors: none
Warnings: none
