###############################################################################
#                                                                             #
# IAR ANSI C/C++ Compiler V6.10.2.52244/W32 for ARM     14/Jul/2015  18:59:17 #
# Copyright 1999-2010 IAR Systems AB.                                         #
#                                                                             #
#    Cpu mode     =  arm                                                      #
#    Endian       =  little                                                   #
#    Source file  =  C:\DUII\TargetHW\GUI\FRAMEWIN_AddMenu.c                  #
#    Command line =  C:\DUII\TargetHW\GUI\FRAMEWIN_AddMenu.c -D DEBUG=1 -D    #
#                    SDRAM_TARGET=1 -D USB_IS_HIGH_SPEED -D                   #
#                    XIGNORE_TEMPERATURE -D BUILD_DEBUG_PORT -D PROFILER      #
#                    -lCN C:\DUII\TargetHW\Output\AT91SAM9RL64\Debug_SDRAM\Li #
#                    st\ -o C:\DUII\TargetHW\Output\AT91SAM9RL64\Debug_SDRAM\ #
#                    Obj\ --debug --endian=little --cpu=ARM926EJ-S -e         #
#                    --fpu=None --dlib_config "C:\Program Files (x86)\IAR     #
#                    Systems\Embedded Workbench 6.0\arm\INC\c\DLib_Config_Ful #
#                    l.h" -I C:\DUII\TargetHW\Application\SEGGERDEMO\ -I      #
#                    C:\DUII\TargetHW\Application\SEGGERDEMO\Src\ -I          #
#                    C:\DUII\TargetHW\Config\ -I C:\DUII\TargetHW\FS\ -I      #
#                    C:\DUII\TargetHW\GUI\ -I C:\DUII\TargetHW\Inc\ -I        #
#                    C:\DUII\TargetHW\OS\ -I C:\DUII\TargetHW\Setup\ -I       #
#                    \DUII\DUII\ -I \DUII\DUII\Graphics\ -I PROFILER\         #
#                    --cpu_mode arm -Ohs --use_c++_inline                     #
#                    --require_prototypes                                     #
#    List file    =  C:\DUII\TargetHW\Output\AT91SAM9RL64\Debug_SDRAM\List\FR #
#                    AMEWIN_AddMenu.lst                                       #
#    Object file  =  C:\DUII\TargetHW\Output\AT91SAM9RL64\Debug_SDRAM\Obj\FRA #
#                    MEWIN_AddMenu.o                                          #
#                                                                             #
#                                                                             #
###############################################################################

C:\DUII\TargetHW\GUI\FRAMEWIN_AddMenu.c
      1          /*********************************************************************
      2          *                SEGGER Microcontroller GmbH & Co. KG                *
      3          *        Solutions for real time microcontroller applications        *
      4          **********************************************************************
      5          *                                                                    *
      6          *        (c) 1996 - 2010  SEGGER Microcontroller GmbH & Co. KG       *
      7          *                                                                    *
      8          *        Internet: www.segger.com    Support:  support@segger.com    *
      9          *                                                                    *
     10          **********************************************************************
     11          
     12          ** emWin V5.06 - Graphical user interface for embedded applications **
     13          emWin is protected by international copyright laws.   Knowledge of the
     14          source code may not be used to write a similar product.  This file may
     15          only be used in accordance with a license and should not be re-
     16          distributed in any way. We appreciate your understanding and fairness.
     17          ----------------------------------------------------------------------
     18          File        : FRAMEWIN_AddMenu.c
     19          Purpose     : 
     20          ---------------------------END-OF-HEADER------------------------------
     21          */
     22          
     23          #include <stdlib.h>
     24          #include <string.h>
     25          #include "FRAMEWIN_Private.h"
     26          #include "MENU.h"
     27          
     28          #if GUI_WINSUPPORT
     29          
     30          /*********************************************************************
     31          *
     32          *        Exported routines
     33          *
     34          **********************************************************************
     35          */
     36          /*********************************************************************
     37          *
     38          *       FRAMEWIN_AddMenu
     39          */

   \                                 In section .text, align 4, keep-with-next
     40          void FRAMEWIN_AddMenu(FRAMEWIN_Handle hObj, WM_HWIN hMenu) {
   \                     FRAMEWIN_AddMenu:
   \   00000000   F0432DE9           PUSH     {R4-R9,LR}
   \   00000004   0040A0E1           MOV      R4,R0
   \   00000008   0CD04DE2           SUB      SP,SP,#+12
   \   0000000C   0150A0E1           MOV      R5,R1
     41            if (hObj) {
   \   00000010   000054E3           CMP      R4,#+0
   \   00000014   2B00000A           BEQ      ??FRAMEWIN_AddMenu_0
     42              int TitleHeight, BorderSize, IBorderSize = 0;
   \   00000018   0080A0E3           MOV      R8,#+0
     43              int x0, y0, xSize;
     44              FRAMEWIN_Obj * pObj;
     45          
     46              WM_LOCK();
   \   0000001C   ........           BL       GUI_Lock
     47              pObj = FRAMEWIN_LOCK_H(hObj);
   \   00000020   0400A0E1           MOV      R0,R4
   \   00000024   ........           BL       GUI_ALLOC_LockH
   \   00000028   0060A0E1           MOV      R6,R0
     48              TitleHeight = FRAMEWIN__CalcTitleHeight(pObj);
   \   0000002C   ........           BL       FRAMEWIN__CalcTitleHeight
     49              BorderSize = pObj->Props.BorderSize;
     50              if (pObj->Widget.State & FRAMEWIN_SF_TITLEVIS) {
   \   00000030   3210D6E5           LDRB     R1,[R6, #+50]
   \   00000034   F675D6E1           LDRSH    R7,[R6, #+86]
   \   00000038   200011E3           TST      R1,#0x20
     51                IBorderSize = pObj->Props.IBorderSize;
   \   0000003C   F885D611           LDRSHNE  R8,[R6, #+88]
     52              }
     53              x0     = BorderSize;
     54              y0     = BorderSize + TitleHeight + IBorderSize;
   \   00000040   070080E0           ADD      R0,R0,R7
   \   00000044   008088E0           ADD      R8,R8,R0
     55              xSize  = WM__GetWindowSizeX(&pObj->Widget.Win);
   \   00000048   0600A0E1           MOV      R0,R6
   \   0000004C   ........           BL       WM__GetWindowSizeX
     56              xSize -= BorderSize * 2;
   \   00000050   879040E0           SUB      R9,R0,R7, LSL #+1
     57              pObj->hMenu = hMenu;
   \   00000054   6C5086E5           STR      R5,[R6, #+108]
     58              if (pObj->cb) {
   \   00000058   640096E5           LDR      R0,[R6, #+100]
   \   0000005C   000050E3           CMP      R0,#+0
   \   00000060   0300000A           BEQ      ??FRAMEWIN_AddMenu_1
     59                MENU_SetOwner(hMenu, pObj->hClient);
   \   00000064   681096E5           LDR      R1,[R6, #+104]
   \   00000068   0500A0E1           MOV      R0,R5
   \   0000006C   ........           BL       MENU_SetOwner
     60              }
     61              MENU_Attach(hMenu, hObj, x0, y0, xSize, 0, 0);
   \   00000070   0000A0E3           MOV      R0,#+0
   \                     ??FRAMEWIN_AddMenu_1:
   \   00000074   08008DE5           STR      R0,[SP, #+8]
   \   00000078   0000A0E3           MOV      R0,#+0
   \   0000007C   04008DE5           STR      R0,[SP, #+4]
   \   00000080   00908DE5           STR      R9,[SP, #+0]
   \   00000084   0830A0E1           MOV      R3,R8
   \   00000088   0720A0E1           MOV      R2,R7
   \   0000008C   0410A0E1           MOV      R1,R4
   \   00000090   0500A0E1           MOV      R0,R5
   \   00000094   ........           BL       MENU_Attach
     62              WM_SetStayOnTop(hMenu, 0);
   \   00000098   0010A0E3           MOV      R1,#+0
   \   0000009C   0500A0E1           MOV      R0,R5
   \   000000A0   ........           BL       WM_SetStayOnTop
     63              WM_SetAnchor(hMenu, WM_CF_ANCHOR_LEFT | WM_CF_ANCHOR_RIGHT);
   \   000000A4   A01FA0E3           MOV      R1,#+640
   \   000000A8   0500A0E1           MOV      R0,R5
   \   000000AC   ........           BL       WM_SetAnchor
     64              FRAMEWIN__UpdatePositions(hObj);
   \   000000B0   0400A0E1           MOV      R0,R4
   \   000000B4   ........           BL       FRAMEWIN__UpdatePositions
     65              FRAMEWIN_Invalidate(hObj);
   \   000000B8   0400A0E1           MOV      R0,R4
   \   000000BC   ........           BL       WM_InvalidateWindow
     66              GUI_UNLOCK_H(pObj);
   \   000000C0   ........           BL       GUI_ALLOC_UnlockH
     67              WM_UNLOCK();
   \   000000C4   ........           BL       GUI_Unlock
     68            }
     69          }
   \                     ??FRAMEWIN_AddMenu_0:
   \   000000C8   0CD08DE2           ADD      SP,SP,#+12       ;; stack cleaning
   \   000000CC   F083BDE8           POP      {R4-R9,PC}       ;; return
     70          
     71          #else
     72            void FRAMEWIN_AddMenu_c(void) {} /* avoid empty object files */
     73          #endif /* GUI_WINSUPPORT */
     74          
     75          /*************************** End of file ****************************/

   Maximum stack usage in bytes:

     Function         .cstack
     --------         -------
     FRAMEWIN_AddMenu     40


   Section sizes:

     Function/Label   Bytes
     --------------   -----
     FRAMEWIN_AddMenu  208

 
 208 bytes in section .text
 
 208 bytes of CODE memory

Errors: none
Warnings: none
