###############################################################################
#                                                                             #
# IAR ANSI C/C++ Compiler V6.10.2.52244/W32 for ARM     14/Jul/2015  19:00:59 #
# Copyright 1999-2010 IAR Systems AB.                                         #
#                                                                             #
#    Cpu mode     =  arm                                                      #
#    Endian       =  little                                                   #
#    Source file  =  C:\DUII\TargetHW\GUI\GUI_Pen.c                           #
#    Command line =  C:\DUII\TargetHW\GUI\GUI_Pen.c -D DEBUG=1 -D             #
#                    SDRAM_TARGET=1 -D USB_IS_HIGH_SPEED -D                   #
#                    XIGNORE_TEMPERATURE -D BUILD_DEBUG_PORT -D PROFILER      #
#                    -lCN C:\DUII\TargetHW\Output\AT91SAM9RL64\Debug_SDRAM\Li #
#                    st\ -o C:\DUII\TargetHW\Output\AT91SAM9RL64\Debug_SDRAM\ #
#                    Obj\ --debug --endian=little --cpu=ARM926EJ-S -e         #
#                    --fpu=None --dlib_config "C:\Program Files (x86)\IAR     #
#                    Systems\Embedded Workbench 6.0\arm\INC\c\DLib_Config_Ful #
#                    l.h" -I C:\DUII\TargetHW\Application\SEGGERDEMO\ -I      #
#                    C:\DUII\TargetHW\Application\SEGGERDEMO\Src\ -I          #
#                    C:\DUII\TargetHW\Config\ -I C:\DUII\TargetHW\FS\ -I      #
#                    C:\DUII\TargetHW\GUI\ -I C:\DUII\TargetHW\Inc\ -I        #
#                    C:\DUII\TargetHW\OS\ -I C:\DUII\TargetHW\Setup\ -I       #
#                    \DUII\DUII\ -I \DUII\DUII\Graphics\ -I PROFILER\         #
#                    --cpu_mode arm -Ohs --use_c++_inline                     #
#                    --require_prototypes                                     #
#    List file    =  C:\DUII\TargetHW\Output\AT91SAM9RL64\Debug_SDRAM\List\GU #
#                    I_Pen.lst                                                #
#    Object file  =  C:\DUII\TargetHW\Output\AT91SAM9RL64\Debug_SDRAM\Obj\GUI #
#                    _Pen.o                                                   #
#                                                                             #
#                                                                             #
###############################################################################

C:\DUII\TargetHW\GUI\GUI_Pen.c
      1          /*********************************************************************
      2          *                SEGGER Microcontroller GmbH & Co. KG                *
      3          *        Solutions for real time microcontroller applications        *
      4          **********************************************************************
      5          *                                                                    *
      6          *        (c) 1996 - 2010  SEGGER Microcontroller GmbH & Co. KG       *
      7          *                                                                    *
      8          *        Internet: www.segger.com    Support:  support@segger.com    *
      9          *                                                                    *
     10          **********************************************************************
     11          
     12          ** emWin V5.06 - Graphical user interface for embedded applications **
     13          emWin is protected by international copyright laws.   Knowledge of the
     14          source code may not be used to write a similar product.  This file may
     15          only be used in accordance with a license and should not be re-
     16          distributed in any way. We appreciate your understanding and fairness.
     17          ----------------------------------------------------------------------
     18          File        : GUI_Pen.C
     19          Purpose     : Getting / Setting pen attributes
     20          ---------------------------END-OF-HEADER------------------------------
     21          */
     22          
     23          #include "GUI_Private.h"
     24          
     25          /*********************************************************************
     26          *
     27          *       Public code
     28          *
     29          **********************************************************************
     30          */
     31          /*********************************************************************
     32          *
     33          *       GUI_GetPenSize
     34          */

   \                                 In section .text, align 4, keep-with-next
     35          U8 GUI_GetPenSize(void) {
   \                     GUI_GetPenSize:
   \   00000000   10402DE9           PUSH     {R4,LR}
     36            U8 r;
     37            GUI_LOCK();
   \   00000004   ........           BL       GUI_Lock
     38            r = GUI_Context.PenSize;
   \   00000008   ........           LDR      R0,??DataTable3
   \   0000000C   1840D0E5           LDRB     R4,[R0, #+24]
     39            GUI_UNLOCK();
   \   00000010   ........           BL       GUI_Unlock
     40            return r;
   \   00000014   0400A0E1           MOV      R0,R4
   \   00000018   1080BDE8           POP      {R4,PC}          ;; return
     41          }
     42          
     43          /*********************************************************************
     44          *
     45          *       GUI_GetPenShape
     46          */

   \                                 In section .text, align 4, keep-with-next
     47          U8 GUI_GetPenShape(void) {
   \                     GUI_GetPenShape:
   \   00000000   10402DE9           PUSH     {R4,LR}
     48            U8 r;
     49            GUI_LOCK();
   \   00000004   ........           BL       GUI_Lock
     50            r = GUI_Context.PenShape;
   \   00000008   ........           LDR      R0,??DataTable3
   \   0000000C   1940D0E5           LDRB     R4,[R0, #+25]
     51            GUI_UNLOCK();
   \   00000010   ........           BL       GUI_Unlock
     52            return r;
   \   00000014   0400A0E1           MOV      R0,R4
   \   00000018   1080BDE8           POP      {R4,PC}          ;; return
     53          }
     54          
     55          /*********************************************************************
     56          *
     57          *       GUI_SetPenSize
     58          */

   \                                 In section .text, align 4, keep-with-next
     59          U8 GUI_SetPenSize(U8 PenSize) {
   \                     GUI_SetPenSize:
   \   00000000   30402DE9           PUSH     {R4,R5,LR}
   \   00000004   04D04DE2           SUB      SP,SP,#+4
   \   00000008   0040A0E1           MOV      R4,R0
     60            U8 r;
     61            GUI_LOCK();
   \   0000000C   ........           BL       GUI_Lock
     62              r = GUI_Context.PenSize;
   \   00000010   ........           LDR      R0,??DataTable3
   \   00000014   1850D0E5           LDRB     R5,[R0, #+24]
     63              GUI_Context.PenSize = PenSize;
   \   00000018   1840C0E5           STRB     R4,[R0, #+24]
     64            GUI_UNLOCK();
   \   0000001C   ........           BL       GUI_Unlock
     65            return r;
   \   00000020   0500A0E1           MOV      R0,R5
   \   00000024   04D08DE2           ADD      SP,SP,#+4
   \   00000028   3080BDE8           POP      {R4,R5,PC}       ;; return
     66          }
     67          
     68          /*********************************************************************
     69          *
     70          *       GUI_SetPenShape
     71          */

   \                                 In section .text, align 4, keep-with-next
     72          U8 GUI_SetPenShape(U8 PenShape) {
   \                     GUI_SetPenShape:
   \   00000000   30402DE9           PUSH     {R4,R5,LR}
   \   00000004   04D04DE2           SUB      SP,SP,#+4
   \   00000008   0040A0E1           MOV      R4,R0
     73            U8 r;
     74            GUI_LOCK();
   \   0000000C   ........           BL       GUI_Lock
     75              r = GUI_Context.PenShape;
   \   00000010   ........           LDR      R0,??DataTable3
   \   00000014   1950D0E5           LDRB     R5,[R0, #+25]
     76              GUI_Context.PenShape = PenShape;
   \   00000018   1940C0E5           STRB     R4,[R0, #+25]
     77            GUI_UNLOCK();
   \   0000001C   ........           BL       GUI_Unlock
     78            return r;
   \   00000020   0500A0E1           MOV      R0,R5
   \   00000024   04D08DE2           ADD      SP,SP,#+4
   \   00000028   3080BDE8           POP      {R4,R5,PC}       ;; return
     79          }

   \                                 In section .text, align 4, keep-with-next
   \                     ??DataTable3:
   \   00000000   ........           DC32     GUI_Context
     80          
     81          /*************************** End of file ****************************/

   Maximum stack usage in bytes:

     Function        .cstack
     --------        -------
     GUI_GetPenShape      8
     GUI_GetPenSize       8
     GUI_SetPenShape     16
     GUI_SetPenSize      16


   Section sizes:

     Function/Label  Bytes
     --------------  -----
     GUI_GetPenSize    28
     GUI_GetPenShape   28
     GUI_SetPenSize    44
     GUI_SetPenShape   44
     ??DataTable3       4

 
 148 bytes in section .text
 
 148 bytes of CODE memory

Errors: none
Warnings: none
