###############################################################################
#                                                                             #
# IAR ANSI C/C++ Compiler V6.10.2.52244/W32 for ARM     14/Jul/2015  19:01:26 #
# Copyright 1999-2010 IAR Systems AB.                                         #
#                                                                             #
#    Cpu mode     =  arm                                                      #
#    Endian       =  little                                                   #
#    Source file  =  C:\DUII\TargetHW\GUI\LISTVIEW_Default.c                  #
#    Command line =  C:\DUII\TargetHW\GUI\LISTVIEW_Default.c -D DEBUG=1 -D    #
#                    SDRAM_TARGET=1 -D USB_IS_HIGH_SPEED -D                   #
#                    XIGNORE_TEMPERATURE -D BUILD_DEBUG_PORT -D PROFILER      #
#                    -lCN C:\DUII\TargetHW\Output\AT91SAM9RL64\Debug_SDRAM\Li #
#                    st\ -o C:\DUII\TargetHW\Output\AT91SAM9RL64\Debug_SDRAM\ #
#                    Obj\ --debug --endian=little --cpu=ARM926EJ-S -e         #
#                    --fpu=None --dlib_config "C:\Program Files (x86)\IAR     #
#                    Systems\Embedded Workbench 6.0\arm\INC\c\DLib_Config_Ful #
#                    l.h" -I C:\DUII\TargetHW\Application\SEGGERDEMO\ -I      #
#                    C:\DUII\TargetHW\Application\SEGGERDEMO\Src\ -I          #
#                    C:\DUII\TargetHW\Config\ -I C:\DUII\TargetHW\FS\ -I      #
#                    C:\DUII\TargetHW\GUI\ -I C:\DUII\TargetHW\Inc\ -I        #
#                    C:\DUII\TargetHW\OS\ -I C:\DUII\TargetHW\Setup\ -I       #
#                    \DUII\DUII\ -I \DUII\DUII\Graphics\ -I PROFILER\         #
#                    --cpu_mode arm -Ohs --use_c++_inline                     #
#                    --require_prototypes                                     #
#    List file    =  C:\DUII\TargetHW\Output\AT91SAM9RL64\Debug_SDRAM\List\LI #
#                    STVIEW_Default.lst                                       #
#    Object file  =  C:\DUII\TargetHW\Output\AT91SAM9RL64\Debug_SDRAM\Obj\LIS #
#                    TVIEW_Default.o                                          #
#                                                                             #
#                                                                             #
###############################################################################

C:\DUII\TargetHW\GUI\LISTVIEW_Default.c
      1          /*********************************************************************
      2          *                SEGGER Microcontroller GmbH & Co. KG                *
      3          *        Solutions for real time microcontroller applications        *
      4          **********************************************************************
      5          *                                                                    *
      6          *        (c) 1996 - 2010  SEGGER Microcontroller GmbH & Co. KG       *
      7          *                                                                    *
      8          *        Internet: www.segger.com    Support:  support@segger.com    *
      9          *                                                                    *
     10          **********************************************************************
     11          
     12          ** emWin V5.06 - Graphical user interface for embedded applications **
     13          emWin is protected by international copyright laws.   Knowledge of the
     14          source code may not be used to write a similar product.  This file may
     15          only be used in accordance with a license and should not be re-
     16          distributed in any way. We appreciate your understanding and fairness.
     17          ----------------------------------------------------------------------
     18          File        : LISTVIEW_Default.c
     19          Purpose     : Implementation of listview widget
     20          ---------------------------END-OF-HEADER------------------------------
     21          */
     22          
     23          #include "LISTVIEW_Private.h"
     24          
     25          #if GUI_WINSUPPORT
     26          
     27          /*********************************************************************
     28          *
     29          *       Exported routines:  Various methods
     30          *
     31          **********************************************************************
     32          */
     33          /*********************************************************************
     34          *
     35          *       LISTVIEW_SetDefaultFont
     36          */

   \                                 In section .text, align 4, keep-with-next
     37          const GUI_FONT GUI_UNI_PTR * LISTVIEW_SetDefaultFont(const GUI_FONT GUI_UNI_PTR * pFont) {
     38            const GUI_FONT GUI_UNI_PTR * pOldFont = LISTVIEW_DefaultProps.pFont;
   \                     LISTVIEW_SetDefaultFont:
   \   00000000   ........           LDR      R2,??DataTable3
   \   00000004   241092E5           LDR      R1,[R2, #+36]
     39            LISTVIEW_DefaultProps.pFont = pFont;
   \   00000008   240082E5           STR      R0,[R2, #+36]
     40            return pOldFont;
   \   0000000C   0100A0E1           MOV      R0,R1
   \   00000010   1EFF2FE1           BX       LR               ;; return
     41          }
     42          
     43          /*********************************************************************
     44          *
     45          *       LISTVIEW_SetDefaultTextColor
     46          */

   \                                 In section .text, align 4, keep-with-next
     47          GUI_COLOR LISTVIEW_SetDefaultTextColor(unsigned Index, GUI_COLOR Color) {
     48            GUI_COLOR OldColor = 0;
   \                     LISTVIEW_SetDefaultTextColor:
   \   00000000   0020A0E3           MOV      R2,#+0
     49            if (Index < GUI_COUNTOF(LISTVIEW_DefaultProps.aTextColor)) {
   \   00000004   040050E3           CMP      R0,#+4
   \   00000008   0300002A           BCS      ??LISTVIEW_SetDefaultTextColor_0
     50              OldColor = LISTVIEW_DefaultProps.aTextColor[Index];
   \   0000000C   ........           LDR      R2,??DataTable3
   \   00000010   000182E0           ADD      R0,R2,R0, LSL #+2
   \   00000014   102090E5           LDR      R2,[R0, #+16]
     51              LISTVIEW_DefaultProps.aTextColor[Index] = Color;
   \   00000018   101080E5           STR      R1,[R0, #+16]
     52            }
     53            return OldColor;
   \                     ??LISTVIEW_SetDefaultTextColor_0:
   \   0000001C   0200A0E1           MOV      R0,R2
   \   00000020   1EFF2FE1           BX       LR               ;; return
     54          }
     55          
     56          /*********************************************************************
     57          *
     58          *       LISTVIEW_SetDefaultBkColor
     59          */

   \                                 In section .text, align 4, keep-with-next
     60          GUI_COLOR LISTVIEW_SetDefaultBkColor(unsigned Index, GUI_COLOR Color) {
     61            GUI_COLOR OldColor = 0;
     62            if (Index < GUI_COUNTOF(LISTVIEW_DefaultProps.aBkColor)) {
   \                     LISTVIEW_SetDefaultBkColor:
   \   00000000   040050E3           CMP      R0,#+4
     63              OldColor = LISTVIEW_DefaultProps.aBkColor[Index];
   \   00000004   ........           LDRCC    R3,??DataTable3
   \   00000008   0020A0E3           MOV      R2,#+0
   \   0000000C   00219337           LDRCC    R2,[R3, +R0, LSL #+2]
     64              LISTVIEW_DefaultProps.aBkColor[Index] = Color;
   \   00000010   00118337           STRCC    R1,[R3, +R0, LSL #+2]
     65            }
     66            return OldColor;
   \   00000014   0200A0E1           MOV      R0,R2
   \   00000018   1EFF2FE1           BX       LR               ;; return
     67          }
     68          
     69          /*********************************************************************
     70          *
     71          *       LISTVIEW_SetDefaultGridColor
     72          */

   \                                 In section .text, align 4, keep-with-next
     73          GUI_COLOR LISTVIEW_SetDefaultGridColor(GUI_COLOR Color) {
     74            GUI_COLOR OldColor = LISTVIEW_DefaultProps.GridColor;
   \                     LISTVIEW_SetDefaultGridColor:
   \   00000000   ........           LDR      R2,??DataTable3
   \   00000004   201092E5           LDR      R1,[R2, #+32]
     75            LISTVIEW_DefaultProps.GridColor = Color;
   \   00000008   200082E5           STR      R0,[R2, #+32]
     76            return OldColor;
   \   0000000C   0100A0E1           MOV      R0,R1
   \   00000010   1EFF2FE1           BX       LR               ;; return
     77          }

   \                                 In section .text, align 4, keep-with-next
   \                     ??DataTable3:
   \   00000000   ........           DC32     LISTVIEW_DefaultProps
     78          
     79          #else                            /* Avoid problems with empty object modules */
     80            void LISTVIEW_Default_C(void) {}
     81          #endif
     82          
     83          /*************************** End of file ****************************/

   Maximum stack usage in bytes:

     Function                     .cstack
     --------                     -------
     LISTVIEW_SetDefaultBkColor        0
     LISTVIEW_SetDefaultFont           0
     LISTVIEW_SetDefaultGridColor      0
     LISTVIEW_SetDefaultTextColor      0


   Section sizes:

     Function/Label               Bytes
     --------------               -----
     LISTVIEW_SetDefaultFont        20
     LISTVIEW_SetDefaultTextColor   36
     LISTVIEW_SetDefaultBkColor     28
     LISTVIEW_SetDefaultGridColor   20
     ??DataTable3                    4

 
 108 bytes in section .text
 
 108 bytes of CODE memory

Errors: none
Warnings: none
