###############################################################################
#                                                                             #
# IAR ANSI C/C++ Compiler V6.10.2.52244/W32 for ARM     14/Jul/2015  19:01:28 #
# Copyright 1999-2010 IAR Systems AB.                                         #
#                                                                             #
#    Cpu mode     =  arm                                                      #
#    Endian       =  little                                                   #
#    Source file  =  C:\DUII\TargetHW\GUI\LISTVIEW_SetLBorder.c               #
#    Command line =  C:\DUII\TargetHW\GUI\LISTVIEW_SetLBorder.c -D DEBUG=1    #
#                    -D SDRAM_TARGET=1 -D USB_IS_HIGH_SPEED -D                #
#                    XIGNORE_TEMPERATURE -D BUILD_DEBUG_PORT -D PROFILER      #
#                    -lCN C:\DUII\TargetHW\Output\AT91SAM9RL64\Debug_SDRAM\Li #
#                    st\ -o C:\DUII\TargetHW\Output\AT91SAM9RL64\Debug_SDRAM\ #
#                    Obj\ --debug --endian=little --cpu=ARM926EJ-S -e         #
#                    --fpu=None --dlib_config "C:\Program Files (x86)\IAR     #
#                    Systems\Embedded Workbench 6.0\arm\INC\c\DLib_Config_Ful #
#                    l.h" -I C:\DUII\TargetHW\Application\SEGGERDEMO\ -I      #
#                    C:\DUII\TargetHW\Application\SEGGERDEMO\Src\ -I          #
#                    C:\DUII\TargetHW\Config\ -I C:\DUII\TargetHW\FS\ -I      #
#                    C:\DUII\TargetHW\GUI\ -I C:\DUII\TargetHW\Inc\ -I        #
#                    C:\DUII\TargetHW\OS\ -I C:\DUII\TargetHW\Setup\ -I       #
#                    \DUII\DUII\ -I \DUII\DUII\Graphics\ -I PROFILER\         #
#                    --cpu_mode arm -Ohs --use_c++_inline                     #
#                    --require_prototypes                                     #
#    List file    =  C:\DUII\TargetHW\Output\AT91SAM9RL64\Debug_SDRAM\List\LI #
#                    STVIEW_SetLBorder.lst                                    #
#    Object file  =  C:\DUII\TargetHW\Output\AT91SAM9RL64\Debug_SDRAM\Obj\LIS #
#                    TVIEW_SetLBorder.o                                       #
#                                                                             #
#                                                                             #
###############################################################################

C:\DUII\TargetHW\GUI\LISTVIEW_SetLBorder.c
      1          /*********************************************************************
      2          *                SEGGER Microcontroller GmbH & Co. KG                *
      3          *        Solutions for real time microcontroller applications        *
      4          **********************************************************************
      5          *                                                                    *
      6          *        (c) 1996 - 2010  SEGGER Microcontroller GmbH & Co. KG       *
      7          *                                                                    *
      8          *        Internet: www.segger.com    Support:  support@segger.com    *
      9          *                                                                    *
     10          **********************************************************************
     11          
     12          ** emWin V5.06 - Graphical user interface for embedded applications **
     13          emWin is protected by international copyright laws.   Knowledge of the
     14          source code may not be used to write a similar product.  This file may
     15          only be used in accordance with a license and should not be re-
     16          distributed in any way. We appreciate your understanding and fairness.
     17          ----------------------------------------------------------------------
     18          File        : LISTVIEW_SetLBorder.c
     19          Purpose     : Implementation of LISTVIEW_SetLBorder
     20          ---------------------------END-OF-HEADER------------------------------
     21          */
     22          
     23          #include "LISTVIEW_Private.h"
     24          
     25          #if GUI_WINSUPPORT
     26          
     27          /*********************************************************************
     28          *
     29          *       Public routines
     30          *
     31          **********************************************************************
     32          */
     33          /*********************************************************************
     34          *
     35          *       LISTVIEW_SetLBorder
     36          */

   \                                 In section .text, align 4, keep-with-next
     37          void LISTVIEW_SetLBorder(LISTVIEW_Handle hObj, unsigned BorderSize) {
   \                     LISTVIEW_SetLBorder:
   \   00000000   30402DE9           PUSH     {R4,R5,LR}
   \   00000004   0040A0E1           MOV      R4,R0
   \   00000008   04D04DE2           SUB      SP,SP,#+4
   \   0000000C   0150A0E1           MOV      R5,R1
     38            if (hObj) {
   \   00000010   000054E3           CMP      R4,#+0
   \   00000014   0A00000A           BEQ      ??LISTVIEW_SetLBorder_0
     39              LISTVIEW_Obj* pObj;
     40              WM_LOCK();
   \   00000018   ........           BL       GUI_Lock
     41              pObj = LISTVIEW_LOCK_H(hObj);
   \   0000001C   0400A0E1           MOV      R0,R4
   \   00000020   ........           BL       GUI_ALLOC_LockH
     42              if (pObj->LBorder != BorderSize) {
   \   00000024   7C1090E5           LDR      R1,[R0, #+124]
   \   00000028   050051E1           CMP      R1,R5
   \   0000002C   0200000A           BEQ      ??LISTVIEW_SetLBorder_1
     43                pObj->LBorder = BorderSize;
   \   00000030   7C5080E5           STR      R5,[R0, #+124]
     44                LISTVIEW__InvalidateInsideArea(hObj);
   \   00000034   0400A0E1           MOV      R0,R4
   \   00000038   ........           BL       LISTVIEW__InvalidateInsideArea
     45              }
     46              GUI_UNLOCK_H(pObj);
   \                     ??LISTVIEW_SetLBorder_1:
   \   0000003C   ........           BL       GUI_ALLOC_UnlockH
     47              WM_UNLOCK();
   \   00000040   ........           BL       GUI_Unlock
     48            }
     49          }
   \                     ??LISTVIEW_SetLBorder_0:
   \   00000044   04D08DE2           ADD      SP,SP,#+4        ;; stack cleaning
   \   00000048   3080BDE8           POP      {R4,R5,PC}       ;; return
     50          
     51          /*********************************************************************
     52          *
     53          *       LISTVIEW_SetLFreeBorder - KMC
     54          */

   \                                 In section .text, align 4, keep-with-next
     55          void LISTVIEW_SetLFreeBorder(LISTVIEW_Handle hObj, int BorderSize) {
   \                     LISTVIEW_SetLFreeBorder:
   \   00000000   30402DE9           PUSH     {R4,R5,LR}
   \   00000004   0040A0E1           MOV      R4,R0
   \   00000008   04D04DE2           SUB      SP,SP,#+4
   \   0000000C   0150A0E1           MOV      R5,R1
     56            if (hObj) {
   \   00000010   000054E3           CMP      R4,#+0
   \   00000014   0A00000A           BEQ      ??LISTVIEW_SetLFreeBorder_0
     57              LISTVIEW_Obj* pObj;
     58              WM_LOCK();
   \   00000018   ........           BL       GUI_Lock
     59              pObj = LISTVIEW_LOCK_H(hObj);
   \   0000001C   0400A0E1           MOV      R0,R4
   \   00000020   ........           BL       GUI_ALLOC_LockH
     60              if (pObj->LFreeBorder != BorderSize) {
   \   00000024   841090E5           LDR      R1,[R0, #+132]
   \   00000028   050051E1           CMP      R1,R5
   \   0000002C   0200000A           BEQ      ??LISTVIEW_SetLFreeBorder_1
     61                pObj->LFreeBorder = BorderSize;
   \   00000030   845080E5           STR      R5,[R0, #+132]
     62                LISTVIEW__InvalidateInsideArea(hObj);
   \   00000034   0400A0E1           MOV      R0,R4
   \   00000038   ........           BL       LISTVIEW__InvalidateInsideArea
     63              }
     64              GUI_UNLOCK_H(pObj);
   \                     ??LISTVIEW_SetLFreeBorder_1:
   \   0000003C   ........           BL       GUI_ALLOC_UnlockH
     65              WM_UNLOCK();
   \   00000040   ........           BL       GUI_Unlock
     66            }
     67          }
   \                     ??LISTVIEW_SetLFreeBorder_0:
   \   00000044   04D08DE2           ADD      SP,SP,#+4        ;; stack cleaning
   \   00000048   3080BDE8           POP      {R4,R5,PC}       ;; return
     68          
     69          #else                            /* Avoid problems with empty object modules */
     70            void LISTVIEW_SetLBorder_C(void);
     71            void LISTVIEW_SetLBorder_C(void) {}
     72            void LISTVIEW_SetLFreeBorder_C(void);
     73            void LISTVIEW_SetLFreeBorder_C(void) {}
     74          #endif
     75          
     76          /*************************** End of file ****************************/

   Maximum stack usage in bytes:

     Function                .cstack
     --------                -------
     LISTVIEW_SetLBorder         16
     LISTVIEW_SetLFreeBorder     16


   Section sizes:

     Function/Label          Bytes
     --------------          -----
     LISTVIEW_SetLBorder       76
     LISTVIEW_SetLFreeBorder   76

 
 152 bytes in section .text
 
 152 bytes of CODE memory

Errors: none
Warnings: none
