###############################################################################
#                                                                             #
# IAR ANSI C/C++ Compiler V6.10.2.52244/W32 for ARM     02/Feb/2016  18:32:05 #
# Copyright 1999-2010 IAR Systems AB.                                         #
#                                                                             #
#    Cpu mode     =  arm                                                      #
#    Endian       =  little                                                   #
#    Source file  =  C:\DUII\DUII\ReviewSessionsScreens.c                     #
#    Command line =  C:\DUII\DUII\ReviewSessionsScreens.c -D DEBUG=1 -D       #
#                    SDRAM_TARGET=1 -D USB_IS_HIGH_SPEED -D                   #
#                    XIGNORE_TEMPERATURE -D BUILD_DEBUG_PORT -D PROFILER      #
#                    -lCN C:\DUII\TargetHW\Output\AT91SAM9RL64\Debug_SDRAM\Li #
#                    st\ -o C:\DUII\TargetHW\Output\AT91SAM9RL64\Debug_SDRAM\ #
#                    Obj\ --debug --endian=little --cpu=ARM926EJ-S -e         #
#                    --fpu=None --dlib_config "C:\Program Files (x86)\IAR     #
#                    Systems\Embedded Workbench 6.0\arm\INC\c\DLib_Config_Ful #
#                    l.h" -I C:\DUII\TargetHW\Application\SEGGERDEMO\ -I      #
#                    C:\DUII\TargetHW\Application\SEGGERDEMO\Src\ -I          #
#                    C:\DUII\TargetHW\Config\ -I C:\DUII\TargetHW\FS\ -I      #
#                    C:\DUII\TargetHW\GUI\ -I C:\DUII\TargetHW\Inc\ -I        #
#                    C:\DUII\TargetHW\OS\ -I C:\DUII\TargetHW\Setup\ -I       #
#                    \DUII\DUII\ -I \DUII\DUII\Graphics\ -I PROFILER\         #
#                    --cpu_mode arm -Ohs --use_c++_inline                     #
#                    --require_prototypes                                     #
#    List file    =  C:\DUII\TargetHW\Output\AT91SAM9RL64\Debug_SDRAM\List\Re #
#                    viewSessionsScreens.lst                                  #
#    Object file  =  C:\DUII\TargetHW\Output\AT91SAM9RL64\Debug_SDRAM\Obj\Rev #
#                    iewSessionsScreens.o                                     #
#                                                                             #
#                                                                             #
###############################################################################

C:\DUII\DUII\ReviewSessionsScreens.c
      1          /*********************************************************************
      2          *                SEGGER Microcontroller GmbH & Co. KG                *
      3          *        Solutions for real time microcontroller applications        *
      4          **********************************************************************
      5          *                                                                    *
      6          *        (c) 1996 - 2009  SEGGER Microcontroller GmbH & Co. KG       *
      7          *                                                                    *
      8          *        Internet: www.segger.com    Support:  support@segger.com    *
      9          *                                                                    *
     10          **********************************************************************
     11          
     12          ** emWin V5.00 - Graphical user interface for embedded applications **
     13          emWin is protected by international copyright laws.   Knowledge of the
     14          source code may not be used to write a similar product.  This file may
     15          only be used in accordance with a license and should not be re-
     16          distributed in any way. We appreciate your understanding and fairness.
     17          ----------------------------------------------------------------------
     18          File        : MainTask.C
     19          Purpose     : Main program, called from after main after initialisation
     20          ---------------------------END-OF-HEADER------------------------------
     21          */
     22          #include <stdio.h>
     23          #include <stdlib.h>
     24          #include <string.h>
     25          #include "DUII.h"
     26          #include "GUI.h"
     27          #include "commondefs.h"
     28          #include "DIALOG.h"
     29          #include "ConfigScreens.h"
     30          #include "GeneralConfig.h"
     31          #include "FlashReadWrite.h"
     32          #include "DataHandler.h"
     33          #include "ReviewSessionsScreens.h"
     34          #include "StandardList.h"
     35          #include "RaceSetupScreens.h"
     36          #include "SystemSettingsScreens.h"
     37          
     38          
     39          /*********************************************************************
     40          *
     41          *       Public Variables
     42          *
     43          **********************************************************************
     44          */
     45          
     46          /*********************************************************************
     47          *
     48          *       Local enumerations
     49          *
     50          **********************************************************************
     51          */
     52          enum DISPLAY_TYPES {
     53          	DT_TIMING,
     54          	DT_GENERAL,
     55          	DT_PERFORMANCE,
     56          	DT_INPUTS,
     57          	DT_CONFIG
     58          };
     59          
     60          
     61          /*********************************************************************
     62          *
     63          *       Local Prototypes
     64          *
     65          **********************************************************************
     66          */
     67          void SessionDetailsPaint(WM_HWIN);
     68          void SetReviewTypeButtonText(void);
     69          void DisplayDataPanel(WM_HWIN hParent);
     70          MULTIEDIT_HANDLE CreateTextBox(WM_HWIN hParent, char *pText);
     71          
     72          
     73          /*********************************************************************
     74          *
     75          *       Tables and Constants
     76          *
     77          **********************************************************************
     78          */
     79          const char *pDisplayText[] = {
     80          	"TIMING",
     81          	"GENERAL",
     82          	"PERFORMANCE",
     83          	"INPUTS",
     84          	"CONFIG"
     85          };
     86          
     87          #define	LAP_BUTTON			GUI_ID_USER + 1
     88          #define	YES_BUTTON			GUI_ID_USER + 2
     89          #define	NO_BUTTON			GUI_ID_USER + 3
     90          #define	REVIEW_TYPE_BUTTON	GUI_ID_USER + 4
     91          #define	LAP_TIME_LIST		GUI_ID_LISTVIEW0
     92          #define	TEXT_BOX			GUI_ID_TEXT0
     93          #define LEFT_CENTER			140
     94          
     95          /*********************************************************************
     96          *
     97          *       External data and code
     98          *
     99          **********************************************************************
    100          */
    101          extern GUI_CONST_STORAGE GUI_BITMAP bmthreewayarrow;
    102          extern GUI_CONST_STORAGE GUI_BITMAP bmleftarrow;
    103          extern GUI_CONST_STORAGE GUI_BITMAP bmBackground;
    104          extern GUI_CONST_STORAGE GUI_BITMAP bmSingleSpinner;
    105          extern GUI_CONST_STORAGE GUI_BITMAP bmBackgroundWithPanel;
    106          extern GUI_CONST_STORAGE GUI_BITMAP bmBanner;
    107          extern GUI_CONST_STORAGE GUI_BITMAP bmSessionDetails;
    108          extern GUI_CONST_STORAGE GUI_BITMAP bmyes;
    109          extern GUI_CONST_STORAGE GUI_BITMAP bmno;
    110          extern GUI_CONST_STORAGE GUI_BITMAP bmBlueButton;
    111          extern GUI_CONST_STORAGE GUI_BITMAP bmTimeSlip;
    112          
    113          /*********************************************************************
    114          *
    115          *       Local Variables
    116          *
    117          **********************************************************************
    118          */
    119          static WM_HWIN hReviewSessionsScreens;

   \                                 In section .bss, align 4
    120          LISTWHEEL_Handle hLapsListWheel;
   \                     hLapsListWheel:
   \   00000000                      DS8 4

   \                                 In section .bss, align 4
    121          BUTTON_Handle hYes, hNo, hReviewTypeBtn;
   \                     hYes:
   \   00000000                      DS8 4

   \                                 In section .bss, align 4
   \                     hNo:
   \   00000000                      DS8 4

   \                                 In section .data, align 4
   \                     pDisplayText:
   \   00000000   ............       DC32 `?<Constant "TIMING">`, `?<Constant "GENERAL">`
   \              ....        
   \   00000008   ............       DC32 `?<Constant "PERFORMANCE">`, `?<Constant "INPUTS">`
   \              ....        
   \   00000010   ........           DC32 `?<Constant "CONFIG">`
   \   00000014   00000000           DC8 0, 0, 0, 0
   \                     hReviewTypeBtn:
   \   00000018   00000000           DC8 0, 0, 0, 0
    122          char BestLapText[20];
    123          enum DISPLAY_TYPES displayType;
    124          LISTVIEW_Handle hLapTimes;
   \                     hLapTimes:
   \   0000001C   00000000           DC8 0, 0, 0, 0
    125          MULTIEDIT_HANDLE hTextBox;
   \                     hTextBox:
   \   00000020   00000000           DC8 0, 0, 0, 0
    126          char **pLapList;
   \                     pLapList:
   \   00000024   00000000           DC8 0, 0, 0, 0
   \                     displayType:
   \   00000028   00                 DC8 0
   \   00000029   000000             DC8 0, 0, 0
   \                     BestLapText:
   \   0000002C   000000000000       DC8 0, 0, 0, 0, 0, 0, 0, 0, 0, 0, 0, 0, 0, 0, 0, 0, 0, 0, 0, 0
   \              000000000000
   \              000000000000
   \              0000        
    127          
    128          /*********************************************************************
    129          *
    130          *       Public code
    131          *
    132          **********************************************************************
    133          */

   \                                 In section .text, align 4, keep-with-next
    134          WM_HWIN GetReviewSessionsWindowHandle(void)
    135          {
    136          	return hReviewSessionsScreens;
   \                     GetReviewSessionsWindowHandle:
   \   00000000   ........           LDR      R0,??DataTable19
   \   00000004   140090E5           LDR      R0,[R0, #+20]
   \   00000008   1EFF2FE1           BX       LR               ;; return
    137          }
    138          

   \                                 In section .text, align 4, keep-with-next
    139          void SetReviewSessionsWindowHandle(WM_HWIN hWin)
    140          {
    141          	hReviewSessionsScreens = hWin;
   \                     SetReviewSessionsWindowHandle:
   \   00000000   ........           LDR      R1,??DataTable19
   \   00000004   140081E5           STR      R0,[R1, #+20]
    142          }
   \   00000008   1EFF2FE1           BX       LR               ;; return
    143          

   \                                 In section .text, align 4, keep-with-next
    144          void ReviewSessionsScreensCallback(WM_MESSAGE * pMsg)
    145          {
   \                     ReviewSessionsScreensCallback:
   \   00000000   10402DE9           PUSH     {R4,LR}
   \   00000004   0040A0E1           MOV      R4,R0
    146          	int NCode, Id;
    147          
    148          	switch(pMsg->MsgId)
   \   00000008   000094E5           LDR      R0,[R4, #+0]
   \   0000000C   0F0050E2           SUBS     R0,R0,#+15
   \   00000010   0E00000A           BEQ      ??ReviewSessionsScreensCallback_0
   \   00000014   170050E2           SUBS     R0,R0,#+23
   \   00000018   1100000A           BEQ      ??ReviewSessionsScreensCallback_1
   \   0000001C   ED0050E2           SUBS     R0,R0,#+237
   \   00000020   3300001A           BNE      ??ReviewSessionsScreensCallback_2
    149          	{
    150          		case WM_TIMER:
    151          			if (pMsg->Data.v == hScreenTimer)
   \   00000024   ........           LDR      R0,??DataTable19_1
   \   00000028   0C1094E5           LDR      R1,[R4, #+12]
   \   0000002C   000090E5           LDR      R0,[R0, #+0]
   \   00000030   000051E1           CMP      R1,R0
   \   00000034   3000001A           BNE      ??ReviewSessionsScreensCallback_3
    152          			{
    153          				WM_RestartTimer(hScreenTimer, SETUP_SCREEN_REFRESH_TIME);
   \   00000038   7D10A0E3           MOV      R1,#+125
   \   0000003C   ........           BL       WM_RestartTimer
    154          				WM_InvalidateRect(pMsg->hWin, &BannerRect);
   \   00000040   040094E5           LDR      R0,[R4, #+4]
   \   00000044   1040BDE8           POP      {R4,LR}
   \   00000048   ........           LDR      R1,??DataTable19_2
   \   0000004C   ........           B        WM_InvalidateRect  ;; tailcall
    155          			}
    156          			break;
    157          
    158          		case WM_PAINT:
    159          			SessionDetailsPaint(hReviewSessionsScreens);
   \                     ??ReviewSessionsScreensCallback_0:
   \   00000050   ........           LDR      R0,??DataTable19
   \   00000054   140090E5           LDR      R0,[R0, #+20]
   \   00000058   ........           BL       SessionDetailsPaint
    160          			DrawSignalStrength();
   \   0000005C   1040BDE8           POP      {R4,LR}
   \   00000060   ........           B        DrawSignalStrength  ;; tailcall
    161          			break;
    162          
    163          		case WM_NOTIFY_PARENT:
    164          			Id = WM_GetId(pMsg->hWinSrc);		// Id of widget
   \                     ??ReviewSessionsScreensCallback_1:
   \   00000064   080094E5           LDR      R0,[R4, #+8]
   \   00000068   ........           BL       WM_GetId
    165          			NCode = pMsg->Data.v;				// Notification code
    166          			switch (NCode)
   \   0000006C   0C1094E5           LDR      R1,[R4, #+12]
   \   00000070   020051E3           CMP      R1,#+2
   \   00000074   2000001A           BNE      ??ReviewSessionsScreensCallback_3
    167          			{
    168          				//case WM_NOTIFICATION_SEL_CHANGED:
    169          			case WM_NOTIFICATION_RELEASED:
    170          				switch (Id)
   \   00000078   0410A0E3           MOV      R1,#+4
   \   0000007C   801E81E3           ORR      R1,R1,#0x800
   \   00000080   010050E1           CMP      R0,R1
   \   00000084   1C00001A           BNE      ??ReviewSessionsScreensCallback_3
    171          				{
    172          				case REVIEW_TYPE_BUTTON:
    173          					if (++displayType > DT_CONFIG)
   \   00000088   ........           LDR      R4,??DataTable19
   \   0000008C   ........           LDR      R1,??DataTable19_3
   \   00000090   2800D4E5           LDRB     R0,[R4, #+40]
   \   00000094   D010D1E5           LDRB     R1,[R1, #+208]
   \   00000098   010080E2           ADD      R0,R0,#+1
   \   0000009C   2800C4E5           STRB     R0,[R4, #+40]
   \   000000A0   FF0000E2           AND      R0,R0,#0xFF
   \   000000A4   050050E3           CMP      R0,#+5
   \   000000A8   0500003A           BCC      ??ReviewSessionsScreensCallback_4
    174          					{
    175          						if ((sysData.selectedSessionType == ROADRACE_TYPE) || (sysData.selectedSessionType == QUARTERMILE_TYPE)
    176          								|| (sysData.selectedSessionType == AUTOCROSS_TYPE))
   \   000000AC   520051E3           CMP      R1,#+82
   \   000000B0   51005113           CMPNE    R1,#+81
   \   000000B4   41005113           CMPNE    R1,#+65
    177          							displayType = DT_TIMING;
   \   000000B8   0000A003           MOVEQ    R0,#+0
   \   000000BC   0100A013           MOVNE    R0,#+1
   \   000000C0   030000EA           B        ??ReviewSessionsScreensCallback_5
    178          						else displayType = DT_GENERAL;
    179          					}
    180          					else if ((sysData.selectedSessionType == QUARTERMILE_TYPE) && (displayType == DT_PERFORMANCE))
   \                     ??ReviewSessionsScreensCallback_4:
   \   000000C4   510051E3           CMP      R1,#+81
   \   000000C8   02005003           CMPEQ    R0,#+2
   \   000000CC   0100001A           BNE      ??ReviewSessionsScreensCallback_6
    181          						displayType = DT_INPUTS;
   \   000000D0   0300A0E3           MOV      R0,#+3
   \                     ??ReviewSessionsScreensCallback_5:
   \   000000D4   2800C4E5           STRB     R0,[R4, #+40]
    182          
    183          					SetReviewTypeButtonText();
   \                     ??ReviewSessionsScreensCallback_6:
   \   000000D8   2800D4E5           LDRB     R0,[R4, #+40]
   \   000000DC   001194E7           LDR      R1,[R4, +R0, LSL #+2]
   \   000000E0   180094E5           LDR      R0,[R4, #+24]
   \   000000E4   ........           BL       BUTTON_SetText
    184          					DisplayDataPanel(hReviewSessionsScreens);
   \   000000E8   140094E5           LDR      R0,[R4, #+20]
   \   000000EC   1040BDE8           POP      {R4,LR}
   \   000000F0   ........           B        DisplayDataPanel  ;; tailcall
    185          					break;
    186          				}
    187          				break;
    188          			}
    189          			break;
    190          
    191          		default:
    192          			WM_DefaultProc(pMsg);
   \                     ??ReviewSessionsScreensCallback_2:
   \   000000F4   0400A0E1           MOV      R0,R4
   \   000000F8   ........           BL       WM_DefaultProc
    193          	}
    194          }
   \                     ??ReviewSessionsScreensCallback_3:
   \   000000FC   1080BDE8           POP      {R4,PC}          ;; return
    195          

   \                                 In section .text, align 4, keep-with-next
    196          void DisplaySessionDetailsScreen(void)
    197          {
   \                     DisplaySessionDetailsScreen:
   \   00000000   30402DE9           PUSH     {R4,R5,LR}
   \   00000004   14D04DE2           SUB      SP,SP,#+20
    198          	SetLastScreen(REVIEW_SESSIONS_SCREENS_TYPE, CHECK_TIMES_SCREEN);
   \   00000008   0010A0E3           MOV      R1,#+0
   \   0000000C   0B00A0E3           MOV      R0,#+11
   \   00000010   ........           BL       SetLastScreen
    199          	SetScreenScrollingHOnly();		// Still needed for navigation purposes - but no scrolling as actually going on
   \   00000014   ........           LDR      R0,??DataTable19_4
   \   00000018   0210A0E3           MOV      R1,#+2
   \   0000001C   001080E5           STR      R1,[R0, #+0]
    200          
    201          	hReviewSessionsScreens = WM_CreateWindow(0, 0, XSIZE_PHYS, YSIZE_PHYS, WM_CF_SHOW | WM_CF_MEMDEV_ON_REDRAW, ReviewSessionsScreensCallback, 0);
   \   00000020   0000A0E3           MOV      R0,#+0
   \   00000024   08008DE5           STR      R0,[SP, #+8]
   \   00000028   ........           LDR      R0,??DataTable19_5
   \   0000002C   ........           LDR      R4,??DataTable19
   \   00000030   04008DE5           STR      R0,[SP, #+4]
   \   00000034   800D81E3           ORR      R0,R1,#0x2000
   \   00000038   00008DE5           STR      R0,[SP, #+0]
   \   0000003C   443FA0E3           MOV      R3,#+272
   \   00000040   782FA0E3           MOV      R2,#+480
   \   00000044   0010A0E3           MOV      R1,#+0
   \   00000048   0000A0E3           MOV      R0,#+0
   \   0000004C   ........           BL       WM_CreateWindow
   \   00000050   140084E5           STR      R0,[R4, #+20]
    202          
    203          	hLapTimes = hTextBox = 0;
   \   00000054   0000A0E3           MOV      R0,#+0
   \   00000058   200084E5           STR      R0,[R4, #+32]
   \   0000005C   1C0084E5           STR      R0,[R4, #+28]
    204          	displayType = DT_TIMING;			// Always start with timing screens
   \   00000060   2800C4E5           STRB     R0,[R4, #+40]
    205          	pLapList = CreateLapsList();
   \   00000064   ........           BL       CreateLapsList
   \   00000068   240084E5           STR      R0,[R4, #+36]
    206          	DisplayDataPanel(hReviewSessionsScreens);
   \   0000006C   140094E5           LDR      R0,[R4, #+20]
   \   00000070   ........           BL       DisplayDataPanel
    207          
    208          	hReviewTypeBtn = BUTTON_CreateEx(BUTTON_LEFT, 218, BUTTON_WIDTH, BUTTON_HEIGHT, hReviewSessionsScreens, WM_CF_SHOW, 0, REVIEW_TYPE_BUTTON);
   \   00000074   0400A0E3           MOV      R0,#+4
   \   00000078   800E80E3           ORR      R0,R0,#0x800
   \   0000007C   0C008DE5           STR      R0,[SP, #+12]
   \   00000080   0000A0E3           MOV      R0,#+0
   \   00000084   08008DE5           STR      R0,[SP, #+8]
   \   00000088   0200A0E3           MOV      R0,#+2
   \   0000008C   04008DE5           STR      R0,[SP, #+4]
   \   00000090   140094E5           LDR      R0,[R4, #+20]
   \   00000094   DA10A0E3           MOV      R1,#+218
   \   00000098   00008DE5           STR      R0,[SP, #+0]
   \   0000009C   2730A0E3           MOV      R3,#+39
   \   000000A0   CA20A0E3           MOV      R2,#+202
   \   000000A4   280081E2           ADD      R0,R1,#+40
   \   000000A8   ........           BL       BUTTON_CreateEx
   \   000000AC   180084E5           STR      R0,[R4, #+24]
    209          	BUTTON_SetFont(hReviewTypeBtn, &GUI_Font24_ASCII);
   \   000000B0   ........           LDR      R1,??DataTable19_6
   \   000000B4   ........           BL       BUTTON_SetFont
    210          	BUTTON_SetBitmap(hReviewTypeBtn, BUTTON_BI_UNPRESSED, &bmBlueButton);
   \   000000B8   ........           LDR      R2,??DataTable19_7
   \   000000BC   0010A0E3           MOV      R1,#+0
   \   000000C0   180094E5           LDR      R0,[R4, #+24]
   \   000000C4   ........           BL       BUTTON_SetBitmap
    211          	BUTTON_SetTextColor(hReviewTypeBtn, BUTTON_BI_UNPRESSED, GUI_WHITE);
   \   000000C8   FF54E0E3           MVN      R5,#-16777216
   \   000000CC   0520A0E1           MOV      R2,R5
   \   000000D0   0010A0E3           MOV      R1,#+0
   \   000000D4   180094E5           LDR      R0,[R4, #+24]
   \   000000D8   ........           BL       BUTTON_SetTextColor
    212          	BUTTON_SetTextColor(hReviewTypeBtn, BUTTON_BI_DISABLED, GUI_WHITE);
   \   000000DC   0520A0E1           MOV      R2,R5
   \   000000E0   0210A0E3           MOV      R1,#+2
   \   000000E4   180094E5           LDR      R0,[R4, #+24]
   \   000000E8   ........           BL       BUTTON_SetTextColor
    213          	SetReviewTypeButtonText();
   \   000000EC   2800D4E5           LDRB     R0,[R4, #+40]
   \   000000F0   001194E7           LDR      R1,[R4, +R0, LSL #+2]
   \   000000F4   180094E5           LDR      R0,[R4, #+24]
   \   000000F8   ........           BL       BUTTON_SetText
    214          
    215          	hScreenTimer = WM_CreateTimer(hReviewSessionsScreens, 0, SETUP_SCREEN_REFRESH_TIME, 0);
   \   000000FC   0030A0E3           MOV      R3,#+0
   \   00000100   7D20A0E3           MOV      R2,#+125
   \   00000104   0010A0E3           MOV      R1,#+0
   \   00000108   140094E5           LDR      R0,[R4, #+20]
   \   0000010C   ........           BL       WM_CreateTimer
   \   00000110   ........           LDR      R1,??DataTable19_1
    216          	ResetNewScreen();				// Inform title bar that this is a new screen
   \   00000114   14D08DE2           ADD      SP,SP,#+20
   \   00000118   000081E5           STR      R0,[R1, #+0]
   \   0000011C   3040BDE8           POP      {R4,R5,LR}
   \   00000120   ........           B        ResetNewScreen   ;; tailcall
    217          }
    218          

   \                                 In section .text, align 4, keep-with-next
    219          void ReturnFromReviewSessionsScreen(void)
    220          {
   \                     ReturnFromReviewSessionsScreen:
   \   00000000   10402DE9           PUSH     {R4,LR}
    221          	sysData.navigatedToReviewAfterRace = false;			// Leaving review sessions - clear entry flag
   \   00000004   ........           LDR      R0,??DataTable19_3
   \   00000008   0010A0E3           MOV      R1,#+0
   \   0000000C   E410C0E5           STRB     R1,[R0, #+228]
    222          	// "Returning" to the REVIEW_SESSIONS screen by hitting the BACK button
    223          	if (!GetConfigWindowHandle())
   \   00000010   ........           LDR      R4,??DataTable19
   \   00000014   ........           BL       GetConfigWindowHandle
   \   00000018   000050E3           CMP      R0,#+0
   \   0000001C   0400001A           BNE      ??ReturnFromReviewSessionsScreen_0
    224          	{
    225          		// First time after powering directly up to the CHECK_TIMES_SCREEN screen - create REVIEW_SESSIONS screen from scratch
    226          		DisplayNewScreenList(CONFIG_SCREEN_TYPE, REVIEW_SESSIONS, hReviewSessionsScreens);
   \   00000020   142094E5           LDR      R2,[R4, #+20]
   \   00000024   1040BDE8           POP      {R4,LR}
   \   00000028   0210A0E3           MOV      R1,#+2
   \   0000002C   0100A0E3           MOV      R0,#+1
   \   00000030   ........           B        DisplayNewScreenList  ;; tailcall
    227          	}
    228          	else
    229          	{
    230          		// Hitting BACK to return to the REVIEW_SESSIONS screen in normal circumstances - the screen already exists underneath
    231          		// the CHECK_TIMES_SCREEN screen - reset screen origination and navigation variables
    232          		SetLastScreen(CONFIG_SCREEN_TYPE, REVIEW_SESSIONS);
   \                     ??ReturnFromReviewSessionsScreen_0:
   \   00000034   0210A0E3           MOV      R1,#+2
   \   00000038   0100A0E3           MOV      R0,#+1
   \   0000003C   ........           BL       SetLastScreen
    233          		WM_Invalidate(GetConfigWindowHandle());
   \   00000040   ........           BL       GetConfigWindowHandle
   \   00000044   ........           BL       WM_InvalidateWindow
    234          		WM_DeleteWindow(hReviewSessionsScreens);
   \   00000048   140094E5           LDR      R0,[R4, #+20]
   \   0000004C   ........           BL       WM_DeleteWindow
    235          		hScreenTimer = WM_CreateTimer(GetConfigWindowHandle(), 0, SETUP_SCREEN_REFRESH_TIME, 0);
   \   00000050   ........           BL       GetConfigWindowHandle
   \   00000054   0030A0E3           MOV      R3,#+0
   \   00000058   7D20A0E3           MOV      R2,#+125
   \   0000005C   0010A0E3           MOV      R1,#+0
   \   00000060   ........           BL       WM_CreateTimer
   \   00000064   ........           LDR      R1,??DataTable19_1
   \   00000068   000081E5           STR      R0,[R1, #+0]
    236          		ResetNewScreen();				// Inform title bar that this is a new screen
   \   0000006C   1040BDE8           POP      {R4,LR}
   \   00000070   ........           B        ResetNewScreen   ;; tailcall
    237          	}
    238          }
    239          
    240          

   \                                 In section .text, align 4, keep-with-next
    241          void DisplayDataPanel(WM_HWIN hParent)
    242          {
   \                     DisplayDataPanel:
   \   00000000   F0422DE9           PUSH     {R4-R7,R9,LR}
    243          	HEADER_Handle hHeader;
    244          	char **pLaps;
    245          	int i;
    246          
    247          	if (hLapTimes)
   \   00000004   ........           LDR      R4,??DataTable19
   \   00000008   0050A0E1           MOV      R5,R0
   \   0000000C   1C0094E5           LDR      R0,[R4, #+28]
   \   00000010   18D04DE2           SUB      SP,SP,#+24
   \   00000014   000050E3           CMP      R0,#+0
   \   00000018   0200000A           BEQ      ??DisplayDataPanel_1
    248          	{
    249          		WM_DeleteWindow(hLapTimes);
   \   0000001C   ........           BL       WM_DeleteWindow
    250          		hLapTimes = 0;
   \   00000020   0000A0E3           MOV      R0,#+0
   \   00000024   1C0084E5           STR      R0,[R4, #+28]
    251          	}
    252          
    253          	if ((sysData.selectedSessionType != ROADRACE_TYPE) && (sysData.selectedSessionType != QUARTERMILE_TYPE) && (sysData.selectedSessionType != AUTOCROSS_TYPE)
    254          			&& (displayType == DT_TIMING))
   \                     ??DisplayDataPanel_1:
   \   00000028   ........           LDR      R6,??DataTable19_3
   \   0000002C   D000D6E5           LDRB     R0,[R6, #+208]
   \   00000030   520050E3           CMP      R0,#+82
   \   00000034   51005013           CMPNE    R0,#+81
   \   00000038   41005013           CMPNE    R0,#+65
   \   0000003C   3000000A           BEQ      ??DisplayDataPanel_2
   \   00000040   2800D4E5           LDRB     R0,[R4, #+40]
   \   00000044   000050E3           CMP      R0,#+0
   \   00000048   2D00001A           BNE      ??DisplayDataPanel_2
    255          		displayType = DT_GENERAL;
   \   0000004C   0100A0E3           MOV      R0,#+1
   \   00000050   2800C4E5           STRB     R0,[R4, #+40]
    256          	
    257          	switch (displayType)
    258          	{
    259          	case DT_TIMING:
    260          		if (hTextBox)
    261          		{
    262          			WM_DeleteWindow(hTextBox);
    263          			hTextBox = 0;
    264          		}
    265          
    266          		if (sysData.selectedSessionType == ROADRACE_TYPE)
    267          		{
    268          			// Display road race timing data
    269          			hLapTimes = LISTVIEW_CreateEx(32, 50, 215, 205, hParent, WM_CF_SHOW, 0, LAP_TIME_LIST);
    270          			WM_SetFocus(hLapTimes);
    271          			LISTVIEW_AddColumn(hLapTimes, 60, "Lap", GUI_TA_HCENTER | GUI_TA_VCENTER);
    272          			LISTVIEW_AddColumn(hLapTimes, 155, "Time", GUI_TA_HCENTER | GUI_TA_VCENTER);
    273          			LISTVIEW_SetAutoScrollV(hLapTimes, 1);
    274          			LISTVIEW_SetFont(hLapTimes, &GUI_Font24B_ASCII);
    275          			HEADER_SetFont(hHeader = LISTVIEW_GetHeader(hLapTimes), &GUI_Font24B_ASCII);
    276          			LISTVIEW_SetRowHeight(hLapTimes, FINGER_WIDTH);
    277          
    278          			i = 1;
    279          			pLaps = pLapList;
    280          			while (*pLaps)
    281          			{
    282          				char *pDest[2];
    283          				char lapNumber[5];
    284          
    285          				sprintf(lapNumber, "%d", i++);
    286          				pDest[0] = lapNumber;
    287          				pDest[1] = *pLaps++;
    288          				LISTVIEW_AddRow(hLapTimes, pDest);
    289          			}
    290          			// If more than 5 items displayed then we will display a scroll bar, reset the column width to account for
    291          			// scroll bar width so that column heading and highlight look correct
    292          			if (i > 6)
    293          			{
    294          				LISTVIEW_SetColumnWidth(hLapTimes, 1, 155 - FINGER_WIDTH);
    295          				SCROLLBAR_SetWidth(WM_GetScrollbarV(hLapTimes), FINGER_WIDTH);
    296          			}
    297          
    298          			i = GetBestLapNumber(selectedSessionUnsorted) - 1;
    299          			LISTVIEW_SetItemBkColor(hLapTimes, 0, i, LISTVIEW_CI_UNSEL, GUI_MEDGREEN);
    300          			LISTVIEW_SetItemBkColor(hLapTimes, 1, i, LISTVIEW_CI_UNSEL, GUI_MEDGREEN);
    301          
    302          			HEADER_SetHeight(hHeader, FINGER_WIDTH);
    303          			LISTVIEW_SetCompareFunc(hLapTimes, 0, &LISTVIEW_CompareDec);
    304          			LISTVIEW_SetCompareFunc(hLapTimes, 1, &LISTVIEW_CompareText);
    305          			LISTVIEW_EnableSort(hLapTimes);
    306          		}
    307          		else
    308          		{
    309          			// Display drag race time slip
    310          		}
    311          		break;
    312          
    313          	case DT_GENERAL:
    314          		if (!hTextBox)
   \                     ??DisplayDataPanel_3:
   \   00000054   200094E5           LDR      R0,[R4, #+32]
   \   00000058   000050E3           CMP      R0,#+0
   \   0000005C   0000A0E3           MOV      R0,#+0
   \   00000060   AB00001A           BNE      ??DisplayDataPanel_4
    315          			hTextBox = CreateTextBox(hParent, GetSessionText(ST_GENERAL));
   \                     ??DisplayDataPanel_5:
   \   00000064   ........           BL       GetSessionText
   \   00000068   14008DE5           STR      R0,[SP, #+20]
   \   0000006C   C800A0E3           MOV      R0,#+200
   \   00000070   10008DE5           STR      R0,[SP, #+16]
   \   00000074   580FA0E3           MOV      R0,#+352
   \   00000078   0C008DE5           STR      R0,[SP, #+12]
   \   0000007C   0000A0E3           MOV      R0,#+0
   \   00000080   08008DE5           STR      R0,[SP, #+8]
   \   00000084   0200A0E3           MOV      R0,#+2
   \   00000088   04008DE5           STR      R0,[SP, #+4]
   \   0000008C   00508DE5           STR      R5,[SP, #+0]
   \   00000090   CD30A0E3           MOV      R3,#+205
   \   00000094   D720A0E3           MOV      R2,#+215
   \   00000098   3210A0E3           MOV      R1,#+50
   \   0000009C   2000A0E3           MOV      R0,#+32
   \   000000A0   ........           BL       MULTIEDIT_CreateEx
   \   000000A4   0050A0E1           MOV      R5,R0
   \   000000A8   ........           LDR      R1,??DataTable19_8
   \   000000AC   ........           BL       MULTIEDIT_SetFont
   \   000000B0   0110A0E3           MOV      R1,#+1
   \   000000B4   0500A0E1           MOV      R0,R5
   \   000000B8   ........           BL       MULTIEDIT_SetAutoScrollV
   \   000000BC   0110A0E3           MOV      R1,#+1
   \   000000C0   0500A0E1           MOV      R0,R5
   \   000000C4   ........           BL       MULTIEDIT_SetAutoScrollH
   \   000000C8   0110A0E3           MOV      R1,#+1
   \   000000CC   0500A0E1           MOV      R0,R5
   \   000000D0   ........           BL       MULTIEDIT_SetReadOnly
   \   000000D4   FF24E0E3           MVN      R2,#-16777216
   \   000000D8   0110A0E3           MOV      R1,#+1
   \   000000DC   0500A0E1           MOV      R0,R5
   \   000000E0   ........           BL       MULTIEDIT_SetBkColor
   \   000000E4   0500A0E1           MOV      R0,R5
   \   000000E8   ........           BL       WM_GetScrollbarV
   \   000000EC   2310A0E3           MOV      R1,#+35
   \   000000F0   ........           BL       SCROLLBAR_SetWidth
   \   000000F4   0500A0E1           MOV      R0,R5
   \   000000F8   ........           BL       MULTIEDIT_SetWrapWord
   \   000000FC   205084E5           STR      R5,[R4, #+32]
   \   00000100   8B0000EA           B        ??DisplayDataPanel_6
   \                     ??DisplayDataPanel_2:
   \   00000104   2800D4E5           LDRB     R0,[R4, #+40]
   \   00000108   040050E3           CMP      R0,#+4
   \   0000010C   00F18F90           ADDLS    PC,PC,R0, LSL #+2
   \                     ??DisplayDataPanel_0:
   \   00000110   8700008A           BHI      ??DisplayDataPanel_6
   \   00000114   030000EA           B        ??DisplayDataPanel_7
   \   00000118   CDFFFFEA           B        ??DisplayDataPanel_3
   \   0000011C   6F0000EA           B        ??DisplayDataPanel_8
   \   00000120   730000EA           B        ??DisplayDataPanel_9
   \   00000124   760000EA           B        ??DisplayDataPanel_10
   \                     ??DisplayDataPanel_7:
   \   00000128   200094E5           LDR      R0,[R4, #+32]
   \   0000012C   000050E3           CMP      R0,#+0
   \   00000130   0200000A           BEQ      ??DisplayDataPanel_11
   \   00000134   ........           BL       WM_DeleteWindow
   \   00000138   0000A0E3           MOV      R0,#+0
   \   0000013C   200084E5           STR      R0,[R4, #+32]
   \                     ??DisplayDataPanel_11:
   \   00000140   D000D6E5           LDRB     R0,[R6, #+208]
   \   00000144   520050E3           CMP      R0,#+82
   \   00000148   7900001A           BNE      ??DisplayDataPanel_6
   \   0000014C   800FA0E3           MOV      R0,#+512
   \   00000150   0C008DE5           STR      R0,[SP, #+12]
   \   00000154   0000A0E3           MOV      R0,#+0
   \   00000158   08008DE5           STR      R0,[SP, #+8]
   \   0000015C   0200A0E3           MOV      R0,#+2
   \   00000160   04008DE5           STR      R0,[SP, #+4]
   \   00000164   00508DE5           STR      R5,[SP, #+0]
   \   00000168   CD30A0E3           MOV      R3,#+205
   \   0000016C   D720A0E3           MOV      R2,#+215
   \   00000170   3210A0E3           MOV      R1,#+50
   \   00000174   2000A0E3           MOV      R0,#+32
   \   00000178   ........           BL       LISTVIEW_CreateEx
   \   0000017C   1C0084E5           STR      R0,[R4, #+28]
   \   00000180   ........           BL       WM_SetFocus
   \   00000184   0E30A0E3           MOV      R3,#+14
   \   00000188   ........           ADR      R2,??DataTable18  ;; "Lap"
   \   0000018C   3C10A0E3           MOV      R1,#+60
   \   00000190   1C0094E5           LDR      R0,[R4, #+28]
   \   00000194   ........           BL       LISTVIEW_AddColumn
   \   00000198   0E30A0E3           MOV      R3,#+14
   \   0000019C   ............       ADRL     R2,`?<Constant "Time">`
   \              ....        
   \   000001A4   9B10A0E3           MOV      R1,#+155
   \   000001A8   1C0094E5           LDR      R0,[R4, #+28]
   \   000001AC   ........           BL       LISTVIEW_AddColumn
   \   000001B0   0110A0E3           MOV      R1,#+1
   \   000001B4   1C0094E5           LDR      R0,[R4, #+28]
   \   000001B8   ........           BL       LISTVIEW_SetAutoScrollV
   \   000001BC   ........           LDR      R6,??DataTable19_9
   \   000001C0   1C0094E5           LDR      R0,[R4, #+28]
   \   000001C4   0610A0E1           MOV      R1,R6
   \   000001C8   ........           BL       LISTVIEW_SetFont
   \   000001CC   1C0094E5           LDR      R0,[R4, #+28]
   \   000001D0   ........           BL       LISTVIEW_GetHeader
   \   000001D4   0050A0E1           MOV      R5,R0
   \   000001D8   0610A0E1           MOV      R1,R6
   \   000001DC   ........           BL       HEADER_SetFont
   \   000001E0   2310A0E3           MOV      R1,#+35
   \   000001E4   1C0094E5           LDR      R0,[R4, #+28]
   \   000001E8   ........           BL       LISTVIEW_SetRowHeight
   \   000001EC   0190A0E3           MOV      R9,#+1
   \   000001F0   246094E5           LDR      R6,[R4, #+36]
   \   000001F4   ........           ADR      R7,??DataTable18_1  ;; 0x25, 0x64, 0x00, 0x00
   \   000001F8   0B0000EA           B        ??DisplayDataPanel_12
   \                     ??DisplayDataPanel_13:
   \   000001FC   0920A0E1           MOV      R2,R9
   \   00000200   0710A0E1           MOV      R1,R7
   \   00000204   08008DE2           ADD      R0,SP,#+8
   \   00000208   ........           BL       sprintf
   \   0000020C   08108DE2           ADD      R1,SP,#+8
   \   00000210   00108DE5           STR      R1,[SP, #+0]
   \   00000214   040096E4           LDR      R0,[R6], #+4
   \   00000218   019089E2           ADD      R9,R9,#+1
   \   0000021C   04008DE5           STR      R0,[SP, #+4]
   \   00000220   0D10A0E1           MOV      R1,SP
   \   00000224   1C0094E5           LDR      R0,[R4, #+28]
   \   00000228   ........           BL       LISTVIEW_AddRow
   \                     ??DisplayDataPanel_12:
   \   0000022C   000096E5           LDR      R0,[R6, #+0]
   \   00000230   000050E3           CMP      R0,#+0
   \   00000234   F0FFFF1A           BNE      ??DisplayDataPanel_13
   \   00000238   070059E3           CMP      R9,#+7
   \   0000023C   070000BA           BLT      ??DisplayDataPanel_14
   \   00000240   7820A0E3           MOV      R2,#+120
   \   00000244   0110A0E3           MOV      R1,#+1
   \   00000248   1C0094E5           LDR      R0,[R4, #+28]
   \   0000024C   ........           BL       LISTVIEW_SetColumnWidth
   \   00000250   1C0094E5           LDR      R0,[R4, #+28]
   \   00000254   ........           BL       WM_GetScrollbarV
   \   00000258   2310A0E3           MOV      R1,#+35
   \   0000025C   ........           BL       SCROLLBAR_SetWidth
   \                     ??DisplayDataPanel_14:
   \   00000260   ........           LDR      R0,??DataTable19_10
   \   00000264   000090E5           LDR      R0,[R0, #+0]
   \   00000268   ........           BL       GetBestLapNumber
   \   0000026C   016040E2           SUB      R6,R0,#+1
   \   00000270   B80CA0E3           MOV      R0,#+47104
   \   00000274   00008DE5           STR      R0,[SP, #+0]
   \   00000278   0030A0E3           MOV      R3,#+0
   \   0000027C   0620A0E1           MOV      R2,R6
   \   00000280   0010A0E3           MOV      R1,#+0
   \   00000284   1C0094E5           LDR      R0,[R4, #+28]
   \   00000288   ........           BL       LISTVIEW_SetItemBkColor
   \   0000028C   B80CA0E3           MOV      R0,#+47104
   \   00000290   00008DE5           STR      R0,[SP, #+0]
   \   00000294   0030A0E3           MOV      R3,#+0
   \   00000298   0620A0E1           MOV      R2,R6
   \   0000029C   0110A0E3           MOV      R1,#+1
   \   000002A0   1C0094E5           LDR      R0,[R4, #+28]
   \   000002A4   ........           BL       LISTVIEW_SetItemBkColor
   \   000002A8   2310A0E3           MOV      R1,#+35
   \   000002AC   0500A0E1           MOV      R0,R5
   \   000002B0   ........           BL       HEADER_SetHeight
   \   000002B4   ........           LDR      R2,??DataTable19_11
   \   000002B8   0010A0E3           MOV      R1,#+0
   \   000002BC   1C0094E5           LDR      R0,[R4, #+28]
   \   000002C0   ........           BL       LISTVIEW_SetCompareFunc
   \   000002C4   ........           LDR      R2,??DataTable19_12
   \   000002C8   0110A0E3           MOV      R1,#+1
   \   000002CC   1C0094E5           LDR      R0,[R4, #+28]
   \   000002D0   ........           BL       LISTVIEW_SetCompareFunc
   \   000002D4   1C0094E5           LDR      R0,[R4, #+28]
   \   000002D8   ........           BL       LISTVIEW_EnableSort
   \   000002DC   140000EA           B        ??DisplayDataPanel_6
    316          		else
    317          		{
    318          			MULTIEDIT_SetText(hTextBox, GetSessionText(ST_GENERAL));
    319          			SCROLLBAR_SetWidth(WM_GetScrollbarV(hTextBox), FINGER_WIDTH);
    320          		}
    321          		break;
    322          
    323          	case DT_PERFORMANCE:
    324          		if (!hTextBox)
   \                     ??DisplayDataPanel_8:
   \   000002E0   200094E5           LDR      R0,[R4, #+32]
   \   000002E4   000050E3           CMP      R0,#+0
   \   000002E8   0100A0E3           MOV      R0,#+1
   \                     ??DisplayDataPanel_15:
   \   000002EC   0800001A           BNE      ??DisplayDataPanel_4
    325          			hTextBox = CreateTextBox(hParent, GetSessionText(ST_PERFORMANCE));
   \   000002F0   5BFFFFEA           B        ??DisplayDataPanel_5
    326          		else
    327          		{
    328          			MULTIEDIT_SetText(hTextBox, GetSessionText(ST_PERFORMANCE));
    329          			SCROLLBAR_SetWidth(WM_GetScrollbarV(hTextBox), FINGER_WIDTH);
    330          		}
    331          		break;
    332          
    333          	case DT_INPUTS:
    334          		if (!hTextBox)
   \                     ??DisplayDataPanel_9:
   \   000002F4   200094E5           LDR      R0,[R4, #+32]
   \   000002F8   000050E3           CMP      R0,#+0
   \   000002FC   0200A0E3           MOV      R0,#+2
   \   00000300   F9FFFFEA           B        ??DisplayDataPanel_15
    335          			hTextBox = CreateTextBox(hParent, GetSessionText(ST_INPUTS));
    336          		else
    337          		{
    338          			MULTIEDIT_SetText(hTextBox, GetSessionText(ST_INPUTS));
    339          			SCROLLBAR_SetWidth(WM_GetScrollbarV(hTextBox), FINGER_WIDTH);
    340          		}
    341          		break;
    342          
    343          	case DT_CONFIG:
    344          		if (!hTextBox)
   \                     ??DisplayDataPanel_10:
   \   00000304   200094E5           LDR      R0,[R4, #+32]
   \   00000308   000050E3           CMP      R0,#+0
   \   0000030C   0300A0E3           MOV      R0,#+3
   \   00000310   53FFFF0A           BEQ      ??DisplayDataPanel_5
    345          			hTextBox = CreateTextBox(hParent, GetSessionText(ST_CONFIG));
    346          		else
    347          		{
    348          			MULTIEDIT_SetText(hTextBox, GetSessionText(ST_CONFIG));
   \                     ??DisplayDataPanel_4:
   \   00000314   ........           BL       GetSessionText
   \   00000318   0010A0E1           MOV      R1,R0
   \   0000031C   200094E5           LDR      R0,[R4, #+32]
   \   00000320   ........           BL       MULTIEDIT_SetText
    349          			SCROLLBAR_SetWidth(WM_GetScrollbarV(hTextBox), FINGER_WIDTH);
   \   00000324   200094E5           LDR      R0,[R4, #+32]
   \   00000328   ........           BL       WM_GetScrollbarV
   \   0000032C   2310A0E3           MOV      R1,#+35
   \   00000330   ........           BL       SCROLLBAR_SetWidth
    350          		}
    351          		break;
    352          	}
    353          }
   \                     ??DisplayDataPanel_6:
   \   00000334   18D08DE2           ADD      SP,SP,#+24       ;; stack cleaning
   \   00000338   F082BDE8           POP      {R4-R7,R9,PC}    ;; return
    354          

   \                                 In section .text, align 4, keep-with-next
    355          MULTIEDIT_HANDLE CreateTextBox(WM_HWIN hParent, char *pText)
    356          {
   \                     CreateTextBox:
   \   00000000   10402DE9           PUSH     {R4,LR}
   \   00000004   18D04DE2           SUB      SP,SP,#+24
    357          	MULTIEDIT_HANDLE hTextBox;
    358          
    359          	hTextBox = MULTIEDIT_CreateEx(32, 50, 215, 205, hParent, WM_CF_SHOW, 0, TEXT_BOX, 200, pText);
   \   00000008   14108DE5           STR      R1,[SP, #+20]
   \   0000000C   C810A0E3           MOV      R1,#+200
   \   00000010   10108DE5           STR      R1,[SP, #+16]
   \   00000014   581FA0E3           MOV      R1,#+352
   \   00000018   0C108DE5           STR      R1,[SP, #+12]
   \   0000001C   0010A0E3           MOV      R1,#+0
   \   00000020   08108DE5           STR      R1,[SP, #+8]
   \   00000024   0210A0E3           MOV      R1,#+2
   \   00000028   04108DE5           STR      R1,[SP, #+4]
   \   0000002C   00008DE5           STR      R0,[SP, #+0]
   \   00000030   CD30A0E3           MOV      R3,#+205
   \   00000034   D720A0E3           MOV      R2,#+215
   \   00000038   3210A0E3           MOV      R1,#+50
   \   0000003C   2000A0E3           MOV      R0,#+32
   \   00000040   ........           BL       MULTIEDIT_CreateEx
   \   00000044   0040A0E1           MOV      R4,R0
    360          	MULTIEDIT_SetFont(hTextBox,&GUI_Font20_ASCII);
   \   00000048   ........           LDR      R1,??DataTable19_8
   \   0000004C   ........           BL       MULTIEDIT_SetFont
    361          	MULTIEDIT_SetAutoScrollV(hTextBox, 1);
   \   00000050   0110A0E3           MOV      R1,#+1
   \   00000054   0400A0E1           MOV      R0,R4
   \   00000058   ........           BL       MULTIEDIT_SetAutoScrollV
    362          	MULTIEDIT_SetAutoScrollH(hTextBox, 1);
   \   0000005C   0110A0E3           MOV      R1,#+1
   \   00000060   0400A0E1           MOV      R0,R4
   \   00000064   ........           BL       MULTIEDIT_SetAutoScrollH
    363          	MULTIEDIT_SetReadOnly(hTextBox, 1);
   \   00000068   0110A0E3           MOV      R1,#+1
   \   0000006C   0400A0E1           MOV      R0,R4
   \   00000070   ........           BL       MULTIEDIT_SetReadOnly
    364          	MULTIEDIT_SetBkColor(hTextBox, MULTIEDIT_CI_READONLY, GUI_WHITE);
   \   00000074   FF24E0E3           MVN      R2,#-16777216
   \   00000078   0110A0E3           MOV      R1,#+1
   \   0000007C   0400A0E1           MOV      R0,R4
   \   00000080   ........           BL       MULTIEDIT_SetBkColor
    365          	SCROLLBAR_SetWidth(WM_GetScrollbarV(hTextBox), FINGER_WIDTH);
   \   00000084   0400A0E1           MOV      R0,R4
   \   00000088   ........           BL       WM_GetScrollbarV
   \   0000008C   2310A0E3           MOV      R1,#+35
   \   00000090   ........           BL       SCROLLBAR_SetWidth
    366          	MULTIEDIT_SetWrapWord(hTextBox);
   \   00000094   0400A0E1           MOV      R0,R4
   \   00000098   ........           BL       MULTIEDIT_SetWrapWord
    367          	return hTextBox;
   \   0000009C   0400A0E1           MOV      R0,R4
   \   000000A0   18D08DE2           ADD      SP,SP,#+24
   \   000000A4   1080BDE8           POP      {R4,PC}          ;; return
    368          }
    369          
    370          

   \                                 In section .text, align 4, keep-with-next
    371          void SetReviewTypeButtonText(void)
    372          {
    373          	BUTTON_SetText(hReviewTypeBtn, pDisplayText[displayType]);
   \                     SetReviewTypeButtonText:
   \   00000000   ........           LDR      R0,??DataTable19
   \   00000004   2810D0E5           LDRB     R1,[R0, #+40]
   \   00000008   011190E7           LDR      R1,[R0, +R1, LSL #+2]
   \   0000000C   180090E5           LDR      R0,[R0, #+24]
   \   00000010   ........           B        BUTTON_SetText   ;; tailcall
    374          }
    375          
    376          

   \                                 In section .text, align 4, keep-with-next
    377          void SessionDetailsPaint(WM_HWIN hParent)
    378          {
   \                     SessionDetailsPaint:
   \   00000000   F0412DE9           PUSH     {R4-R8,LR}
   \   00000004   38D04DE2           SUB      SP,SP,#+56
    379          	GUI_SetFont(&GUI_Font24_ASCII);
   \   00000008   ........           LDR      R0,??DataTable19_6
   \   0000000C   ........           BL       GUI_SetFont
    380          	GUI_SetColor(GUI_WHITE);
   \   00000010   FF04E0E3           MVN      R0,#-16777216
   \   00000014   ........           BL       GUI_SetColor
    381          	GUI_SetTextMode(GUI_TEXTMODE_TRANS);
   \   00000018   0200A0E3           MOV      R0,#+2
   \   0000001C   ........           BL       GUI_SetTextMode
    382          
    383          	// draw remaining session notes
    384          	GUI_DrawBitmap(&bmBackgroundWithPanel, 0, 0);
   \   00000020   0020A0E3           MOV      R2,#+0
   \   00000024   0010A0E3           MOV      R1,#+0
   \   00000028   ........           LDR      R0,??DataTable19_13
   \   0000002C   ........           BL       GUI_DrawBitmap
    385          	if (sysData.selectedSessionType == ROADRACE_TYPE) {
   \   00000030   ........           LDR      R6,??DataTable19_3
   \   00000034   ........           LDR      R5,??DataTable19_14
   \   00000038   D000D6E5           LDRB     R0,[R6, #+208]
   \   0000003C   6740A0E3           MOV      R4,#+103
   \   00000040   404F84E3           ORR      R4,R4,#0x100
   \   00000044   520050E3           CMP      R0,#+82
   \   00000048   3420A0E3           MOV      R2,#+52
   \   0000004C   0410A0E1           MOV      R1,R4
   \   00000050   150085E2           ADD      R0,R5,#+21
   \   00000054   0600001A           BNE      ??SessionDetailsPaint_0
    386          		GUI_DispStringHCenterAt(NameStruct.track, BUTTON_LEFT + (BUTTON_WIDTH / 2), 52);
   \   00000058   ........           BL       GUI_DispStringHCenterAt
    387          		GUI_DispStringHCenterAt(NameStruct.date, BUTTON_LEFT + (BUTTON_WIDTH / 2), 85);
   \   0000005C   5520A0E3           MOV      R2,#+85
   \   00000060   0410A0E1           MOV      R1,R4
   \   00000064   0A0085E2           ADD      R0,R5,#+10
   \   00000068   ........           BL       GUI_DispStringHCenterAt
    388          		GUI_DispStringHCenterAt(NameStruct.time, BUTTON_LEFT + (BUTTON_WIDTH / 2), 118);
   \   0000006C   7620A0E3           MOV      R2,#+118
   \   00000070   0D0000EA           B        ??SessionDetailsPaint_1
    389          	}
    390          	else {
    391          		GUI_DispStringHCenterAt(NameStruct.track, BUTTON_LEFT + (BUTTON_WIDTH / 2), 52);
   \                     ??SessionDetailsPaint_0:
   \   00000074   ........           BL       GUI_DispStringHCenterAt
    392          		GUI_DispStringHCenterAt(NameStruct.driver, BUTTON_LEFT + (BUTTON_WIDTH / 2), 85);
   \   00000078   5520A0E3           MOV      R2,#+85
   \   0000007C   0410A0E1           MOV      R1,R4
   \   00000080   370085E2           ADD      R0,R5,#+55
   \   00000084   ........           BL       GUI_DispStringHCenterAt
    393          		GUI_DispStringHCenterAt(NameStruct.vehicle, BUTTON_LEFT + (BUTTON_WIDTH / 2), 118);
   \   00000088   7620A0E3           MOV      R2,#+118
   \   0000008C   0410A0E1           MOV      R1,R4
   \   00000090   260085E2           ADD      R0,R5,#+38
   \   00000094   ........           BL       GUI_DispStringHCenterAt
    394          		GUI_DispStringHCenterAt(NameStruct.date, BUTTON_LEFT + (BUTTON_WIDTH / 2), 151);
   \   00000098   9720A0E3           MOV      R2,#+151
   \   0000009C   0410A0E1           MOV      R1,R4
   \   000000A0   0A0085E2           ADD      R0,R5,#+10
   \   000000A4   ........           BL       GUI_DispStringHCenterAt
    395          		GUI_DispStringHCenterAt(NameStruct.time, BUTTON_LEFT + (BUTTON_WIDTH / 2), 184);
   \   000000A8   B820A0E3           MOV      R2,#+184
   \                     ??SessionDetailsPaint_1:
   \   000000AC   0410A0E1           MOV      R1,R4
   \   000000B0   0500A0E1           MOV      R0,R5
   \   000000B4   ........           BL       GUI_DispStringHCenterAt
    396          	}
    397          
    398          	if (displayType == DT_TIMING)
   \   000000B8   ........           LDR      R5,??DataTable19
   \   000000BC   2800D5E5           LDRB     R0,[R5, #+40]
   \   000000C0   000050E3           CMP      R0,#+0
   \   000000C4   9900001A           BNE      ??SessionDetailsPaint_2
    399          	{
    400          		if (sysData.selectedSessionType == ROADRACE_TYPE)
   \   000000C8   D000D6E5           LDRB     R0,[R6, #+208]
   \   000000CC   520050E3           CMP      R0,#+82
   \   000000D0   4E00001A           BNE      ??SessionDetailsPaint_3
    401          		{
    402          			int itmp = LISTVIEW_GetNumRows(hLapTimes);
   \   000000D4   1C0095E5           LDR      R0,[R5, #+28]
   \   000000D8   ........           BL       LISTVIEW_GetNumRows
   \   000000DC   0060A0E1           MOV      R6,R0
    403          			if (itmp <= 5) {		// search for last non-blank list element
   \   000000E0   060056E3           CMP      R6,#+6
   \   000000E4   2F0000AA           BGE      ??SessionDetailsPaint_4
   \   000000E8   010056E3           CMP      R6,#+1
   \   000000EC   2D0000BA           BLT      ??SessionDetailsPaint_4
   \   000000F0   0670A0E1           MOV      R7,R6
   \   000000F4   010017E3           TST      R7,#0x1
   \   000000F8   0C00000A           BEQ      ??SessionDetailsPaint_5
    404          				char timebuf[16];
    405          
    406          				for (; itmp > 0; itmp--) {					
    407          					LISTVIEW_GetItemText(hLapTimes, 1, itmp-1, timebuf, sizeof(timebuf));
   \   000000FC   1000A0E3           MOV      R0,#+16
   \   00000100   018046E2           SUB      R8,R6,#+1
   \   00000104   00008DE5           STR      R0,[SP, #+0]
   \   00000108   04308DE2           ADD      R3,SP,#+4
   \   0000010C   0820A0E1           MOV      R2,R8
   \   00000110   0110A0E3           MOV      R1,#+1
   \   00000114   1C0095E5           LDR      R0,[R5, #+28]
   \   00000118   ........           BL       LISTVIEW_GetItemText
    408          					if (0 != strlen(timebuf)) break;
   \   0000011C   04008DE2           ADD      R0,SP,#+4
   \   00000120   ........           BL       strlen
   \   00000124   000050E3           CMP      R0,#+0
   \   00000128   1E00001A           BNE      ??SessionDetailsPaint_4
   \   0000012C   0860A0E1           MOV      R6,R8
   \                     ??SessionDetailsPaint_5:
   \   00000130   A770B0E1           LSRS     R7,R7,#+1
   \   00000134   1B00000A           BEQ      ??SessionDetailsPaint_4
   \                     ??SessionDetailsPaint_6:
   \   00000138   1000A0E3           MOV      R0,#+16
   \   0000013C   018046E2           SUB      R8,R6,#+1
   \   00000140   00008DE5           STR      R0,[SP, #+0]
   \   00000144   04308DE2           ADD      R3,SP,#+4
   \   00000148   0820A0E1           MOV      R2,R8
   \   0000014C   0110A0E3           MOV      R1,#+1
   \   00000150   1C0095E5           LDR      R0,[R5, #+28]
   \   00000154   ........           BL       LISTVIEW_GetItemText
   \   00000158   04008DE2           ADD      R0,SP,#+4
   \   0000015C   ........           BL       strlen
   \   00000160   000050E3           CMP      R0,#+0
   \   00000164   0F00001A           BNE      ??SessionDetailsPaint_4
   \   00000168   0860A0E1           MOV      R6,R8
   \   0000016C   1000A0E3           MOV      R0,#+16
   \   00000170   018046E2           SUB      R8,R6,#+1
   \   00000174   00008DE5           STR      R0,[SP, #+0]
   \   00000178   04308DE2           ADD      R3,SP,#+4
   \   0000017C   0820A0E1           MOV      R2,R8
   \   00000180   0110A0E3           MOV      R1,#+1
   \   00000184   1C0095E5           LDR      R0,[R5, #+28]
   \   00000188   ........           BL       LISTVIEW_GetItemText
   \   0000018C   04008DE2           ADD      R0,SP,#+4
   \   00000190   ........           BL       strlen
   \   00000194   000050E3           CMP      R0,#+0
   \   00000198   0200001A           BNE      ??SessionDetailsPaint_4
    409          				} // for
   \   0000019C   0860A0E1           MOV      R6,R8
   \   000001A0   017057E2           SUBS     R7,R7,#+1
   \   000001A4   E3FFFF1A           BNE      ??SessionDetailsPaint_6
    410          			} // if
    411          				
    412          			GUI_SetColor(GUI_GREEN);
   \                     ??SessionDetailsPaint_4:
   \   000001A8   FF0CA0E3           MOV      R0,#+65280
   \   000001AC   ........           BL       GUI_SetColor
    413          			GetBestLap(2, selectedSessionUnsorted, BestLapText);
   \   000001B0   ........           LDR      R7,??DataTable19_10
   \   000001B4   2C2085E2           ADD      R2,R5,#+44
   \   000001B8   001097E5           LDR      R1,[R7, #+0]
   \   000001BC   0200A0E3           MOV      R0,#+2
   \   000001C0   ........           BL       GetBestLap
    414          			
    415          			sprintf(BestLapText + strlen(BestLapText), " of %d", itmp);
   \   000001C4   2C0085E2           ADD      R0,R5,#+44
   \   000001C8   ........           BL       strlen
   \   000001CC   050080E0           ADD      R0,R0,R5
   \   000001D0   0620A0E1           MOV      R2,R6
   \   000001D4   ........           ADR      R1,`?<Constant " of %d">`
   \   000001D8   2C0080E2           ADD      R0,R0,#+44
   \   000001DC   ........           BL       sprintf
    416          			GUI_DispStringHCenterAt(BestLapText, BUTTON_LEFT + (BUTTON_WIDTH / 2), 151);
   \   000001E0   9720A0E3           MOV      R2,#+151
   \   000001E4   0410A0E1           MOV      R1,R4
   \   000001E8   2C0085E2           ADD      R0,R5,#+44
   \   000001EC   ........           BL       GUI_DispStringHCenterAt
    417          			GetBestLap(1, selectedSessionUnsorted, BestLapText);		
   \   000001F0   2C2085E2           ADD      R2,R5,#+44
   \   000001F4   001097E5           LDR      R1,[R7, #+0]
   \   000001F8   0100A0E3           MOV      R0,#+1
   \   000001FC   ........           BL       GetBestLap
    418          			GUI_DispStringHCenterAt(BestLapText, BUTTON_LEFT + (BUTTON_WIDTH / 2), 184);
   \   00000200   B820A0E3           MOV      R2,#+184
   \   00000204   0410A0E1           MOV      R1,R4
   \   00000208   2C0085E2           ADD      R0,R5,#+44
   \   0000020C   460000EA           B        ??SessionDetailsPaint_7
    419          		}
    420          		else
    421          		{
    422          			char scratch[50];
    423          
    424          			// Display drag race time slip
    425          			GUI_DrawBitmap(&bmTimeSlip, 29, 49);
   \                     ??SessionDetailsPaint_3:
   \   00000210   3120A0E3           MOV      R2,#+49
   \   00000214   1D10A0E3           MOV      R1,#+29
   \   00000218   ........           LDR      R0,??DataTable19_15
   \   0000021C   ........           BL       GUI_DrawBitmap
    426          			GUI_SetFont(&GUI_Font20B_ASCII);
   \   00000220   ........           LDR      R0,??DataTable19_16
   \   00000224   ........           BL       GUI_SetFont
    427          			GUI_SetColor(GUI_BLACK);
   \   00000228   0000A0E3           MOV      R0,#+0
   \   0000022C   ........           BL       GUI_SetColor
    428          
    429          #define SESS_DETAIL_START		67
    430          #define SESS_DETAIL_SPACING		25
    431          
    432          			if (sysData.selectedSessionType == AUTOCROSS_TYPE)
   \   00000230   D000D6E5           LDRB     R0,[R6, #+208]
   \   00000234   410050E3           CMP      R0,#+65
   \   00000238   0B00001A           BNE      ??SessionDetailsPaint_8
    433          			{
    434          				GUI_DispStringHCenterAt("Autocross / Rally",  LEFT_CENTER, SESS_DETAIL_START + (2*SESS_DETAIL_SPACING));
   \   0000023C   7520A0E3           MOV      R2,#+117
   \   00000240   8C10A0E3           MOV      R1,#+140
   \   00000244   ........           ADR      R0,`?<Constant "Autocross / Rally">`
   \   00000248   ........           BL       GUI_DispStringHCenterAt
    435          				GUI_DispStringHCenterAt("Run Time",  LEFT_CENTER, SESS_DETAIL_START + (3*SESS_DETAIL_SPACING));
   \   0000024C   8E20A0E3           MOV      R2,#+142
   \   00000250   8C10A0E3           MOV      R1,#+140
   \   00000254   ........           ADR      R0,`?<Constant "Run Time">`
   \   00000258   ........           BL       GUI_DispStringHCenterAt
    436          				GUI_DispStringHCenterAt(GetBestLapAutocross(scratch),  LEFT_CENTER, SESS_DETAIL_START + (4*SESS_DETAIL_SPACING));	// Run time
   \   0000025C   0D00A0E1           MOV      R0,SP
   \   00000260   ........           BL       GetBestLapAutocross
   \   00000264   A720A0E3           MOV      R2,#+167
   \   00000268   2E0000EA           B        ??SessionDetailsPaint_9
    437          			}
    438          			else
    439          			{
    440          				GUI_DispStringHCenterAt(GetSessionDataString(1, ST_PERFORMANCE, scratch),  LEFT_CENTER, SESS_DETAIL_START + (0*SESS_DETAIL_SPACING));	// Max Accel
   \                     ??SessionDetailsPaint_8:
   \   0000026C   0D20A0E1           MOV      R2,SP
   \   00000270   0110A0E3           MOV      R1,#+1
   \   00000274   0100A0E3           MOV      R0,#+1
   \   00000278   ........           BL       GetSessionDataString
   \   0000027C   4320A0E3           MOV      R2,#+67
   \   00000280   8C10A0E3           MOV      R1,#+140
   \   00000284   ........           BL       GUI_DispStringHCenterAt
    441          				GUI_DispStringHCenterAt(GetSessionDataString(2, ST_PERFORMANCE, scratch),  LEFT_CENTER, SESS_DETAIL_START + (1*SESS_DETAIL_SPACING));	// 0-60, 100
   \   00000288   0D20A0E1           MOV      R2,SP
   \   0000028C   0110A0E3           MOV      R1,#+1
   \   00000290   0200A0E3           MOV      R0,#+2
   \   00000294   ........           BL       GetSessionDataString
   \   00000298   5C20A0E3           MOV      R2,#+92
   \   0000029C   8C10A0E3           MOV      R1,#+140
   \   000002A0   ........           BL       GUI_DispStringHCenterAt
    442          				GUI_DispStringHCenterAt(GetSessionDataString(3, ST_PERFORMANCE, scratch),  LEFT_CENTER, SESS_DETAIL_START + (2*SESS_DETAIL_SPACING));	// 60'
   \   000002A4   0D20A0E1           MOV      R2,SP
   \   000002A8   0110A0E3           MOV      R1,#+1
   \   000002AC   0300A0E3           MOV      R0,#+3
   \   000002B0   ........           BL       GetSessionDataString
   \   000002B4   7520A0E3           MOV      R2,#+117
   \   000002B8   8C10A0E3           MOV      R1,#+140
   \   000002BC   ........           BL       GUI_DispStringHCenterAt
    443          				GUI_DispStringHCenterAt(GetSessionDataString(4, ST_PERFORMANCE, scratch),  LEFT_CENTER, SESS_DETAIL_START + (3*SESS_DETAIL_SPACING));	// 330'
   \   000002C0   0D20A0E1           MOV      R2,SP
   \   000002C4   0110A0E3           MOV      R1,#+1
   \   000002C8   0400A0E3           MOV      R0,#+4
   \   000002CC   ........           BL       GetSessionDataString
   \   000002D0   8E20A0E3           MOV      R2,#+142
   \   000002D4   8C10A0E3           MOV      R1,#+140
   \   000002D8   ........           BL       GUI_DispStringHCenterAt
    444          				GUI_DispStringHCenterAt(GetSessionDataString(5, ST_PERFORMANCE, scratch),  LEFT_CENTER, SESS_DETAIL_START + (4*SESS_DETAIL_SPACING));	// 1/8mi
   \   000002DC   0D20A0E1           MOV      R2,SP
   \   000002E0   0110A0E3           MOV      R1,#+1
   \   000002E4   0500A0E3           MOV      R0,#+5
   \   000002E8   ........           BL       GetSessionDataString
   \   000002EC   A720A0E3           MOV      R2,#+167
   \   000002F0   8C10A0E3           MOV      R1,#+140
   \   000002F4   ........           BL       GUI_DispStringHCenterAt
    445          				GUI_DispStringHCenterAt(GetSessionDataString(6, ST_PERFORMANCE, scratch), LEFT_CENTER, SESS_DETAIL_START + (5*SESS_DETAIL_SPACING));	// 1000'
   \   000002F8   0D20A0E1           MOV      R2,SP
   \   000002FC   0110A0E3           MOV      R1,#+1
   \   00000300   0600A0E3           MOV      R0,#+6
   \   00000304   ........           BL       GetSessionDataString
   \   00000308   C020A0E3           MOV      R2,#+192
   \   0000030C   8C10A0E3           MOV      R1,#+140
   \   00000310   ........           BL       GUI_DispStringHCenterAt
    446          				GUI_DispStringHCenterAt(GetSessionDataString(7, ST_PERFORMANCE, scratch), LEFT_CENTER, SESS_DETAIL_START + (6*SESS_DETAIL_SPACING));	// 1/4mi
   \   00000314   0D20A0E1           MOV      R2,SP
   \   00000318   0110A0E3           MOV      R1,#+1
   \   0000031C   0700A0E3           MOV      R0,#+7
   \   00000320   ........           BL       GetSessionDataString
   \   00000324   D920A0E3           MOV      R2,#+217
   \                     ??SessionDetailsPaint_9:
   \   00000328   8C10A0E3           MOV      R1,#+140
   \                     ??SessionDetailsPaint_7:
   \   0000032C   ........           BL       GUI_DispStringHCenterAt
    447          			}
    448          #undef SESS_DETAIL_START
    449          #undef SESS_DETAIL_SPACING
    450          		}
    451          	}
    452          
    453          	GUI_DrawBitmap(&bmSessionDetails, 70, 0);
   \                     ??SessionDetailsPaint_2:
   \   00000330   0020A0E3           MOV      R2,#+0
   \   00000334   4610A0E3           MOV      R1,#+70
   \   00000338   ........           LDR      R0,??DataTable19_17
   \   0000033C   ........           BL       GUI_DrawBitmap
    454          	GUI_DrawBitmap(&bmleftarrow, 0, 229);
   \   00000340   E520A0E3           MOV      R2,#+229
   \   00000344   0010A0E3           MOV      R1,#+0
   \   00000348   ........           LDR      R0,??DataTable19_18
   \   0000034C   ........           BL       GUI_DrawBitmap
    455          }
   \   00000350   38D08DE2           ADD      SP,SP,#+56       ;; stack cleaning
   \   00000354   F081BDE8           POP      {R4-R8,PC}       ;; return
    456          
    457          

   \                                 In section .text, align 4, keep-with-next
    458          void ReviewSessionsIgnoreNextKeyRelease(void)
    459          {
    460          //	clickedOnThisScreen = false;
    461          }
   \                     ReviewSessionsIgnoreNextKeyRelease:
   \   00000000   1EFF2FE1           BX       LR               ;; return

   \                                 In section .text, align 4, keep-with-next
   \                     ??DataTable18:
   \   00000000   4C617000           DC8      "Lap"

   \                                 In section .text, align 4, keep-with-next
   \                     ??DataTable18_1:
   \   00000000   25640000           DC8      0x25, 0x64, 0x00, 0x00

   \                                 In section .text, align 4, keep-with-next
   \                     ??DataTable19:
   \   00000000   ........           DC32     pDisplayText

   \                                 In section .text, align 4, keep-with-next
   \                     ??DataTable19_1:
   \   00000000   ........           DC32     hScreenTimer

   \                                 In section .text, align 4, keep-with-next
   \                     ??DataTable19_2:
   \   00000000   ........           DC32     BannerRect

   \                                 In section .text, align 4, keep-with-next
   \                     ??DataTable19_3:
   \   00000000   ........           DC32     sysData

   \                                 In section .text, align 4, keep-with-next
   \                     ??DataTable19_4:
   \   00000000   ........           DC32     screen_scrolling

   \                                 In section .text, align 4, keep-with-next
   \                     ??DataTable19_5:
   \   00000000   ........           DC32     ReviewSessionsScreensCallback

   \                                 In section .text, align 4, keep-with-next
   \                     ??DataTable19_6:
   \   00000000   ........           DC32     GUI_Font24_ASCII

   \                                 In section .text, align 4, keep-with-next
   \                     ??DataTable19_7:
   \   00000000   ........           DC32     bmBlueButton

   \                                 In section .text, align 4, keep-with-next
   \                     ??DataTable19_8:
   \   00000000   ........           DC32     GUI_Font20_ASCII

   \                                 In section .text, align 4, keep-with-next
   \                     ??DataTable19_9:
   \   00000000   ........           DC32     GUI_Font24B_ASCII

   \                                 In section .text, align 4, keep-with-next
   \                     ??DataTable19_10:
   \   00000000   ........           DC32     selectedSessionUnsorted

   \                                 In section .text, align 4, keep-with-next
   \                     ??DataTable19_11:
   \   00000000   ........           DC32     LISTVIEW_CompareDec

   \                                 In section .text, align 4, keep-with-next
   \                     ??DataTable19_12:
   \   00000000   ........           DC32     LISTVIEW_CompareText

   \                                 In section .text, align 4, keep-with-next
   \                     ??DataTable19_13:
   \   00000000   ........           DC32     bmBackgroundWithPanel

   \                                 In section .text, align 4, keep-with-next
   \                     ??DataTable19_14:
   \   00000000   ........           DC32     NameStruct

   \                                 In section .text, align 4, keep-with-next
   \                     ??DataTable19_15:
   \   00000000   ........           DC32     bmTimeSlip

   \                                 In section .text, align 4, keep-with-next
   \                     ??DataTable19_16:
   \   00000000   ........           DC32     GUI_Font20B_ASCII

   \                                 In section .text, align 4, keep-with-next
   \                     ??DataTable19_17:
   \   00000000   ........           DC32     bmSessionDetails

   \                                 In section .text, align 4, keep-with-next
   \                     ??DataTable19_18:
   \   00000000   ........           DC32     bmleftarrow

   \                                 In section .rodata, align 4, keep-with-next
   \                     `?<Constant "TIMING">`:
   \   00000000                      ; Initializer data, 8 bytes
   \   00000000   54494D494E47       DC8 84, 73, 77, 73, 78, 71, 0, 0
   \              0000        

   \                                 In section .rodata, align 4, keep-with-next
   \                     `?<Constant "GENERAL">`:
   \   00000000                      ; Initializer data, 8 bytes
   \   00000000   47454E455241       DC8 71, 69, 78, 69, 82, 65, 76, 0
   \              4C00        

   \                                 In section .rodata, align 4, keep-with-next
   \                     `?<Constant "PERFORMANCE">`:
   \   00000000                      ; Initializer data, 12 bytes
   \   00000000   504552464F52       DC8 80, 69, 82, 70, 79, 82, 77, 65, 78, 67
   \              4D414E43    
   \   0000000A   4500               DC8 69, 0

   \                                 In section .rodata, align 4, keep-with-next
   \                     `?<Constant "INPUTS">`:
   \   00000000                      ; Initializer data, 8 bytes
   \   00000000   494E50555453       DC8 73, 78, 80, 85, 84, 83, 0, 0
   \              0000        

   \                                 In section .rodata, align 4, keep-with-next
   \                     `?<Constant "CONFIG">`:
   \   00000000                      ; Initializer data, 8 bytes
   \   00000000   434F4E464947       DC8 67, 79, 78, 70, 73, 71, 0, 0
   \              0000        

   \                                 In section .rodata, align 4, keep-with-next
   \                     `?<Constant "Lap">`:
   \   00000000                      ; Initializer data, 4 bytes
   \   00000000   4C617000           DC8 76, 97, 112, 0

   \                                 In section .rodata, align 4, keep-with-next
   \                     `?<Constant "%d">`:
   \   00000000                      ; Initializer data, 4 bytes
   \   00000000   25640000           DC8 37, 100, 0, 0

   \                                 In section .text, align 4, keep-with-next
   \                     `?<Constant "Time">`:
   \   00000000                      ; Initializer data, 8 bytes
   \   00000000   54696D650000       DC8 84, 105, 109, 101, 0, 0, 0, 0
   \              0000        

   \                                 In section .text, align 4, keep-with-next
   \                     `?<Constant " of %d">`:
   \   00000000                      ; Initializer data, 8 bytes
   \   00000000   206F66202564       DC8 32, 111, 102, 32, 37, 100, 0, 0
   \              0000        

   \                                 In section .text, align 4, keep-with-next
   \                     `?<Constant "Autocross / Rally">`:
   \   00000000                      ; Initializer data, 20 bytes
   \   00000000   4175746F6372       DC8 65, 117, 116, 111, 99, 114, 111, 115, 115, 32
   \              6F737320    
   \   0000000A   2F2052616C6C       DC8 47, 32, 82, 97, 108, 108, 121, 0, 0, 0
   \              79000000    

   \                                 In section .text, align 4, keep-with-next
   \                     `?<Constant "Run Time">`:
   \   00000000                      ; Initializer data, 12 bytes
   \   00000000   52756E205469       DC8 82, 117, 110, 32, 84, 105, 109, 101, 0, 0
   \              6D650000    
   \   0000000A   0000               DC8 0, 0
    462          
    463          
    464          
    465          /*************************** End of file ****************************/
    466          

   Maximum stack usage in bytes:

     Function                       .cstack
     --------                       -------
     CreateTextBox                      32
     DisplayDataPanel                   56
     DisplaySessionDetailsScreen        32
     GetReviewSessionsWindowHandle       0
     ReturnFromReviewSessionsScreen      8
     ReviewSessionsIgnoreNextKeyRelease
                                         0
     ReviewSessionsScreensCallback       8
     SessionDetailsPaint                80
     SetReviewSessionsWindowHandle       0
     SetReviewTypeButtonText             8


   Section sizes:

     Function/Label                  Bytes
     --------------                  -----
     hLapsListWheel                     4
     hYes                               4
     hNo                                4
     pDisplayText                      64
     hReviewSessionsScreens
     hReviewTypeBtn
     hLapTimes
     hTextBox
     pLapList
     displayType
     BestLapText
     GetReviewSessionsWindowHandle     12
     SetReviewSessionsWindowHandle     12
     ReviewSessionsScreensCallback    256
     DisplaySessionDetailsScreen      292
     ReturnFromReviewSessionsScreen   116
     DisplayDataPanel                 828
     CreateTextBox                    168
     SetReviewTypeButtonText           20
     SessionDetailsPaint              856
     ReviewSessionsIgnoreNextKeyRelease
                                        4
     ??DataTable18                      4
     ??DataTable18_1                    4
     ??DataTable19                      4
     ??DataTable19_1                    4
     ??DataTable19_2                    4
     ??DataTable19_3                    4
     ??DataTable19_4                    4
     ??DataTable19_5                    4
     ??DataTable19_6                    4
     ??DataTable19_7                    4
     ??DataTable19_8                    4
     ??DataTable19_9                    4
     ??DataTable19_10                   4
     ??DataTable19_11                   4
     ??DataTable19_12                   4
     ??DataTable19_13                   4
     ??DataTable19_14                   4
     ??DataTable19_15                   4
     ??DataTable19_16                   4
     ??DataTable19_17                   4
     ??DataTable19_18                   4
     ?<Constant "TIMING">               8
     ?<Constant "GENERAL">              8
     ?<Constant "PERFORMANCE">         12
     ?<Constant "INPUTS">               8
     ?<Constant "CONFIG">               8
     ?<Constant "Lap">                  4
     ?<Constant "%d">                   4
     ?<Constant "Time">                 8
     ?<Constant " of %d">               8
     ?<Constant "Autocross / Rally">   20
     ?<Constant "Run Time">            12

 
    12 bytes in section .bss
    64 bytes in section .data
    52 bytes in section .rodata
 2 696 bytes in section .text
 
 2 696 bytes of CODE  memory
    52 bytes of CONST memory
    76 bytes of DATA  memory

Errors: none
Warnings: none
