###############################################################################
#                                                                             #
# IAR ANSI C/C++ Compiler V6.10.2.52244/W32 for ARM     14/Jul/2015  19:02:20 #
# Copyright 1999-2010 IAR Systems AB.                                         #
#                                                                             #
#    Cpu mode     =  arm                                                      #
#    Endian       =  little                                                   #
#    Source file  =  C:\DUII\TargetHW\GUI\WM_SetDesktopColor.c                #
#    Command line =  C:\DUII\TargetHW\GUI\WM_SetDesktopColor.c -D DEBUG=1 -D  #
#                    SDRAM_TARGET=1 -D USB_IS_HIGH_SPEED -D                   #
#                    XIGNORE_TEMPERATURE -D BUILD_DEBUG_PORT -D PROFILER      #
#                    -lCN C:\DUII\TargetHW\Output\AT91SAM9RL64\Debug_SDRAM\Li #
#                    st\ -o C:\DUII\TargetHW\Output\AT91SAM9RL64\Debug_SDRAM\ #
#                    Obj\ --debug --endian=little --cpu=ARM926EJ-S -e         #
#                    --fpu=None --dlib_config "C:\Program Files (x86)\IAR     #
#                    Systems\Embedded Workbench 6.0\arm\INC\c\DLib_Config_Ful #
#                    l.h" -I C:\DUII\TargetHW\Application\SEGGERDEMO\ -I      #
#                    C:\DUII\TargetHW\Application\SEGGERDEMO\Src\ -I          #
#                    C:\DUII\TargetHW\Config\ -I C:\DUII\TargetHW\FS\ -I      #
#                    C:\DUII\TargetHW\GUI\ -I C:\DUII\TargetHW\Inc\ -I        #
#                    C:\DUII\TargetHW\OS\ -I C:\DUII\TargetHW\Setup\ -I       #
#                    \DUII\DUII\ -I \DUII\DUII\Graphics\ -I PROFILER\         #
#                    --cpu_mode arm -Ohs --use_c++_inline                     #
#                    --require_prototypes                                     #
#    List file    =  C:\DUII\TargetHW\Output\AT91SAM9RL64\Debug_SDRAM\List\WM #
#                    _SetDesktopColor.lst                                     #
#    Object file  =  C:\DUII\TargetHW\Output\AT91SAM9RL64\Debug_SDRAM\Obj\WM_ #
#                    SetDesktopColor.o                                        #
#                                                                             #
#                                                                             #
###############################################################################

C:\DUII\TargetHW\GUI\WM_SetDesktopColor.c
      1          /*********************************************************************
      2          *                SEGGER Microcontroller GmbH & Co. KG                *
      3          *        Solutions for real time microcontroller applications        *
      4          **********************************************************************
      5          *                                                                    *
      6          *        (c) 1996 - 2010  SEGGER Microcontroller GmbH & Co. KG       *
      7          *                                                                    *
      8          *        Internet: www.segger.com    Support:  support@segger.com    *
      9          *                                                                    *
     10          **********************************************************************
     11          
     12          ** emWin V5.06 - Graphical user interface for embedded applications **
     13          emWin is protected by international copyright laws.   Knowledge of the
     14          source code may not be used to write a similar product.  This file may
     15          only be used in accordance with a license and should not be re-
     16          distributed in any way. We appreciate your understanding and fairness.
     17          ----------------------------------------------------------------------
     18          File        : WM_SetDesktopColor.c
     19          Purpose     : Windows manager, add. module
     20          ----------------------------------------------------------------------
     21          */
     22          
     23          #include "WM_Intern_ConfDep.h"
     24          
     25          #if GUI_WINSUPPORT    /* If 0, WM will not generate any code */
     26          
     27          /*********************************************************************
     28          *
     29          *       Public code
     30          *
     31          **********************************************************************
     32          */
     33          /*********************************************************************
     34          *
     35          *       WM_SetDesktopColorEx
     36          */

   \                                 In section .text, align 4, keep-with-next
     37          GUI_COLOR WM_SetDesktopColorEx(GUI_COLOR Color, unsigned int LayerIndex) {
   \                     WM_SetDesktopColorEx:
   \   00000000   10402DE9           PUSH     {R4,LR}
     38            GUI_COLOR r = GUI_INVALID_COLOR;
   \   00000004   F044E0E3           MVN      R4,#-268435456
     39            if (LayerIndex <  GUI_NUM_LAYERS) {
   \   00000008   100051E3           CMP      R1,#+16
   \   0000000C   0500002A           BCS      ??WM_SetDesktopColorEx_0
     40              r = WM__aBkColor[LayerIndex];
   \   00000010   ........           LDR      R2,??DataTable2
   \   00000014   014192E7           LDR      R4,[R2, +R1, LSL #+2]
     41              WM__aBkColor[LayerIndex] = Color;
   \   00000018   010182E7           STR      R0,[R2, +R1, LSL #+2]
     42              WM_InvalidateWindow(WM__ahDesktopWin[LayerIndex]);
   \   0000001C   ........           LDR      R0,??DataTable2_1
   \   00000020   010190E7           LDR      R0,[R0, +R1, LSL #+2]
   \   00000024   ........           BL       WM_InvalidateWindow
     43            }
     44            return r;
   \                     ??WM_SetDesktopColorEx_0:
   \   00000028   0400A0E1           MOV      R0,R4
   \   0000002C   1080BDE8           POP      {R4,PC}          ;; return
     45          }
     46          
     47          /*********************************************************************
     48          *
     49          *       WM_SetDesktopColor
     50          */

   \                                 In section .text, align 4, keep-with-next
     51          GUI_COLOR WM_SetDesktopColor(GUI_COLOR Color) {
   \                     WM_SetDesktopColor:
   \   00000000   10402DE9           PUSH     {R4,LR}
     52            return WM_SetDesktopColorEx(Color, GUI_Context.SelLayer);
   \   00000004   ........           LDR      R1,??DataTable2_2
   \   00000008   F044E0E3           MVN      R4,#-268435456
   \   0000000C   1110D1E5           LDRB     R1,[R1, #+17]
   \   00000010   100051E3           CMP      R1,#+16
   \   00000014   0500002A           BCS      ??WM_SetDesktopColor_0
   \   00000018   ........           LDR      R2,??DataTable2
   \   0000001C   014192E7           LDR      R4,[R2, +R1, LSL #+2]
   \   00000020   010182E7           STR      R0,[R2, +R1, LSL #+2]
   \   00000024   ........           LDR      R0,??DataTable2_1
   \   00000028   010190E7           LDR      R0,[R0, +R1, LSL #+2]
   \   0000002C   ........           BL       WM_InvalidateWindow
   \                     ??WM_SetDesktopColor_0:
   \   00000030   0400A0E1           MOV      R0,R4
   \   00000034   1080BDE8           POP      {R4,PC}          ;; return
     53          }
     54          
     55          /*********************************************************************
     56          *
     57          *       WM_SetDesktopColors
     58          */

   \                                 In section .text, align 4, keep-with-next
     59          void WM_SetDesktopColors(GUI_COLOR Color) {
   \                     WM_SetDesktopColors:
   \   00000000   F0402DE9           PUSH     {R4-R7,LR}
   \   00000004   04D04DE2           SUB      SP,SP,#+4
   \   00000008   0040A0E1           MOV      R4,R0
     60            int i;
     61            for (i = 0; i < GUI_NUM_LAYERS; i++) {
   \   0000000C   0050A0E3           MOV      R5,#+0
   \   00000010   ........           LDR      R6,??DataTable2
   \   00000014   ........           LDR      R7,??DataTable2_1
     62              WM_SetDesktopColorEx(Color, i);
   \                     ??WM_SetDesktopColors_0:
   \   00000018   044086E4           STR      R4,[R6], #+4
   \   0000001C   040097E4           LDR      R0,[R7], #+4
   \   00000020   ........           BL       WM_InvalidateWindow
     63            }
   \   00000024   015085E2           ADD      R5,R5,#+1
   \   00000028   100055E3           CMP      R5,#+16
   \   0000002C   F9FFFFBA           BLT      ??WM_SetDesktopColors_0
     64          }
   \   00000030   04D08DE2           ADD      SP,SP,#+4        ;; stack cleaning
   \   00000034   F080BDE8           POP      {R4-R7,PC}       ;; return

   \                                 In section .text, align 4, keep-with-next
   \                     ??DataTable2:
   \   00000000   ........           DC32     WM__aBkColor

   \                                 In section .text, align 4, keep-with-next
   \                     ??DataTable2_1:
   \   00000000   ........           DC32     WM__ahDesktopWin

   \                                 In section .text, align 4, keep-with-next
   \                     ??DataTable2_2:
   \   00000000   ........           DC32     GUI_Context
     65          
     66          #else
     67            void WM_SetDesktopColor_c(void) {} /* avoid empty object files */
     68          #endif   /* GUI_WINSUPPORT */
     69          
     70          /*************************** End of file ****************************/

   Maximum stack usage in bytes:

     Function             .cstack
     --------             -------
     WM_SetDesktopColor        8
     WM_SetDesktopColorEx      8
     WM_SetDesktopColors      24


   Section sizes:

     Function/Label       Bytes
     --------------       -----
     WM_SetDesktopColorEx   48
     WM_SetDesktopColor     56
     WM_SetDesktopColors    56
     ??DataTable2            4
     ??DataTable2_1          4
     ??DataTable2_2          4

 
 172 bytes in section .text
 
 172 bytes of CODE memory

Errors: none
Warnings: none
