###############################################################################
#                                                                             #
# IAR ANSI C/C++ Compiler V6.10.2.52244/W32 for ARM     19/Nov/2015  13:12:45 #
# Copyright 1999-2010 IAR Systems AB.                                         #
#                                                                             #
#    Cpu mode     =  arm                                                      #
#    Endian       =  little                                                   #
#    Source file  =  C:\DUII\TargetHW\GUI\DROPDOWN_SetFont.c                  #
#    Command line =  C:\DUII\TargetHW\GUI\DROPDOWN_SetFont.c -D DEBUG=1 -D    #
#                    SDRAM_TARGET=1 -D USB_IS_HIGH_SPEED -D NOPROFILER -D     #
#                    OS_TRACE=0 -D OS_VIEW_ENABLE=0 -lCN                      #
#                    C:\DUII\TargetHW\Release\List\ -o                        #
#                    C:\DUII\TargetHW\Release\Obj\ --endian=little            #
#                    --cpu=ARM926EJ-S -e --fpu=None --dlib_config             #
#                    "C:\Program Files (x86)\IAR Systems\Embedded Workbench   #
#                    6.0\arm\INC\c\DLib_Config_Normal.h" -I                   #
#                    C:\DUII\TargetHW\Application\SEGGERDEMO\ -I              #
#                    C:\DUII\TargetHW\Application\SEGGERDEMO\Src\ -I          #
#                    C:\DUII\TargetHW\Config\ -I C:\DUII\TargetHW\FS\ -I      #
#                    C:\DUII\TargetHW\GUI\ -I C:\DUII\TargetHW\Inc\ -I        #
#                    C:\DUII\TargetHW\OS\ -I C:\DUII\TargetHW\Setup\ -I       #
#                    \DUII\DUII\ -I \DUII\DUII\Graphics\ --cpu_mode arm -Ohs  #
#                    --use_c++_inline --require_prototypes                    #
#    List file    =  C:\DUII\TargetHW\Release\List\DROPDOWN_SetFont.lst       #
#    Object file  =  C:\DUII\TargetHW\Release\Obj\DROPDOWN_SetFont.o          #
#                                                                             #
#                                                                             #
###############################################################################

C:\DUII\TargetHW\GUI\DROPDOWN_SetFont.c
      1          /*********************************************************************
      2          *                SEGGER Microcontroller GmbH & Co. KG                *
      3          *        Solutions for real time microcontroller applications        *
      4          **********************************************************************
      5          *                                                                    *
      6          *        (c) 1996 - 2010  SEGGER Microcontroller GmbH & Co. KG       *
      7          *                                                                    *
      8          *        Internet: www.segger.com    Support:  support@segger.com    *
      9          *                                                                    *
     10          **********************************************************************
     11          
     12          ** emWin V5.06 - Graphical user interface for embedded applications **
     13          emWin is protected by international copyright laws.   Knowledge of the
     14          source code may not be used to write a similar product.  This file may
     15          only be used in accordance with a license and should not be re-
     16          distributed in any way. We appreciate your understanding and fairness.
     17          ----------------------------------------------------------------------
     18          File        : DROPDOWN_SetFont.c
     19          Purpose     : Implementation of dropdown widget
     20          ---------------------------END-OF-HEADER------------------------------
     21          */
     22          
     23          #include "LISTBOX.h"
     24          #include "DROPDOWN_Private.h"
     25          
     26          #if GUI_WINSUPPORT
     27          
     28          /*********************************************************************
     29          *
     30          *       Public routines
     31          *
     32          **********************************************************************
     33          */
     34          /*********************************************************************
     35          *
     36          *       DROPDOWN_SetFont
     37          */

   \                                 In section .text, align 4, keep-with-next
     38          void DROPDOWN_SetFont(DROPDOWN_Handle hObj, const GUI_FONT GUI_UNI_PTR * pFont) {
   \                     DROPDOWN_SetFont:
   \   00000000   F0412DE9           PUSH     {R4-R8,LR}
   \   00000004   0040A0E1           MOV      R4,R0
   \   00000008   0150A0E1           MOV      R5,R1
     39            int OldHeight;
     40            DROPDOWN_Obj * pObj;
     41            WM_HWIN hListWin;
     42            if (hObj) {
   \   0000000C   000054E3           CMP      R4,#+0
   \   00000010   1B00000A           BEQ      ??DROPDOWN_SetFont_0
     43              WM_LOCK();
   \   00000014   ........           BL       GUI_Lock
     44              pObj = DROPDOWN_LOCK_H(hObj);
   \   00000018   0400A0E1           MOV      R0,R4
   \   0000001C   ........           BL       GUI_ALLOC_LockH
   \   00000020   0060A0E1           MOV      R6,R0
     45              hListWin = pObj->hListWin;
   \   00000024   887096E5           LDR      R7,[R6, #+136]
     46              OldHeight = GUI_GetYDistOfFont(pObj->Props.pFont);
   \   00000028   4C0096E5           LDR      R0,[R6, #+76]
   \   0000002C   ........           BL       GUI_GetYDistOfFont
   \   00000030   0080A0E1           MOV      R8,R0
     47              pObj->Props.pFont = pFont;
   \   00000034   4C5086E5           STR      R5,[R6, #+76]
     48              GUI_UNLOCK_H(pObj);
   \   00000038   ........           BL       GUI_ALLOC_UnlockH
     49              DROPDOWN__AdjustHeight(hObj);
   \   0000003C   0400A0E1           MOV      R0,R4
   \   00000040   ........           BL       DROPDOWN__AdjustHeight
     50              DROPDOWN_Invalidate(hObj);
   \   00000044   0400A0E1           MOV      R0,R4
   \   00000048   ........           BL       WM_InvalidateWindow
     51              if (hListWin) {
   \   0000004C   000057E3           CMP      R7,#+0
   \   00000050   0A00000A           BEQ      ??DROPDOWN_SetFont_1
     52                if (OldHeight != GUI_GetYDistOfFont(pFont)) {
   \   00000054   0500A0E1           MOV      R0,R5
   \   00000058   ........           BL       GUI_GetYDistOfFont
   \   0000005C   000058E1           CMP      R8,R0
   \   00000060   0300000A           BEQ      ??DROPDOWN_SetFont_2
     53                  DROPDOWN_Collapse(hObj);
   \   00000064   0400A0E1           MOV      R0,R4
   \   00000068   ........           BL       DROPDOWN_Collapse
     54                  DROPDOWN_Expand(hObj);
   \   0000006C   0400A0E1           MOV      R0,R4
   \   00000070   ........           BL       DROPDOWN_Expand
     55                }
     56                LISTBOX_SetFont(hListWin, pFont);
   \                     ??DROPDOWN_SetFont_2:
   \   00000074   0510A0E1           MOV      R1,R5
   \   00000078   0700A0E1           MOV      R0,R7
   \   0000007C   ........           BL       LISTBOX_SetFont
     57              }
     58              WM_UNLOCK();
   \                     ??DROPDOWN_SetFont_1:
   \   00000080   ........           BL       GUI_Unlock
     59            }
     60          }
   \                     ??DROPDOWN_SetFont_0:
   \   00000084   F081BDE8           POP      {R4-R8,PC}       ;; return
     61          
     62          #else                            /* Avoid problems with empty object modules */
     63            void DROPDOWN_SetFont_C(void);
     64            void DROPDOWN_SetFont_C(void) {}
     65          #endif

   Maximum stack usage in bytes:

     Function         .cstack
     --------         -------
     DROPDOWN_SetFont     24


   Section sizes:

     Function/Label   Bytes
     --------------   -----
     DROPDOWN_SetFont  136

 
 136 bytes in section .text
 
 136 bytes of CODE memory

Errors: none
Warnings: none
