###############################################################################
#                                                                             #
# IAR ANSI C/C++ Compiler V6.10.2.52244/W32 for ARM     19/Nov/2015  13:13:13 #
# Copyright 1999-2010 IAR Systems AB.                                         #
#                                                                             #
#    Cpu mode     =  arm                                                      #
#    Endian       =  little                                                   #
#    Source file  =  C:\DUII\TargetHW\GUI\FRAMEWIN_SetBorderSize.c            #
#    Command line =  C:\DUII\TargetHW\GUI\FRAMEWIN_SetBorderSize.c -D         #
#                    DEBUG=1 -D SDRAM_TARGET=1 -D USB_IS_HIGH_SPEED -D        #
#                    NOPROFILER -D OS_TRACE=0 -D OS_VIEW_ENABLE=0 -lCN        #
#                    C:\DUII\TargetHW\Release\List\ -o                        #
#                    C:\DUII\TargetHW\Release\Obj\ --endian=little            #
#                    --cpu=ARM926EJ-S -e --fpu=None --dlib_config             #
#                    "C:\Program Files (x86)\IAR Systems\Embedded Workbench   #
#                    6.0\arm\INC\c\DLib_Config_Normal.h" -I                   #
#                    C:\DUII\TargetHW\Application\SEGGERDEMO\ -I              #
#                    C:\DUII\TargetHW\Application\SEGGERDEMO\Src\ -I          #
#                    C:\DUII\TargetHW\Config\ -I C:\DUII\TargetHW\FS\ -I      #
#                    C:\DUII\TargetHW\GUI\ -I C:\DUII\TargetHW\Inc\ -I        #
#                    C:\DUII\TargetHW\OS\ -I C:\DUII\TargetHW\Setup\ -I       #
#                    \DUII\DUII\ -I \DUII\DUII\Graphics\ --cpu_mode arm -Ohs  #
#                    --use_c++_inline --require_prototypes                    #
#    List file    =  C:\DUII\TargetHW\Release\List\FRAMEWIN_SetBorderSize.lst #
#    Object file  =  C:\DUII\TargetHW\Release\Obj\FRAMEWIN_SetBorderSize.o    #
#                                                                             #
#                                                                             #
###############################################################################

C:\DUII\TargetHW\GUI\FRAMEWIN_SetBorderSize.c
      1          /*********************************************************************
      2          *                SEGGER Microcontroller GmbH & Co. KG                *
      3          *        Solutions for real time microcontroller applications        *
      4          **********************************************************************
      5          *                                                                    *
      6          *        (c) 1996 - 2010  SEGGER Microcontroller GmbH & Co. KG       *
      7          *                                                                    *
      8          *        Internet: www.segger.com    Support:  support@segger.com    *
      9          *                                                                    *
     10          **********************************************************************
     11          
     12          ** emWin V5.06 - Graphical user interface for embedded applications **
     13          emWin is protected by international copyright laws.   Knowledge of the
     14          source code may not be used to write a similar product.  This file may
     15          only be used in accordance with a license and should not be re-
     16          distributed in any way. We appreciate your understanding and fairness.
     17          ----------------------------------------------------------------------
     18          File        : FRAMEWIN.c
     19          Purpose     : FRAMEWIN_SetBorderSize
     20          ---------------------------END-OF-HEADER------------------------------
     21          */
     22          
     23          #include "FRAMEWIN_Private.h"
     24          #include "WIDGET.h"
     25          
     26          #if GUI_WINSUPPORT
     27          
     28          /*********************************************************************
     29          *
     30          *       Exported code
     31          *
     32          **********************************************************************
     33          */
     34          
     35          /*********************************************************************
     36          *
     37          *       FRAMEWIN_SetBorderSize
     38          */

   \                                 In section .text, align 4, keep-with-next
     39          void FRAMEWIN_SetBorderSize(FRAMEWIN_Handle hObj, unsigned Size) {
   \                     FRAMEWIN_SetBorderSize:
   \   00000000   F04F2DE9           PUSH     {R4-R11,LR}
   \   00000004   0CD04DE2           SUB      SP,SP,#+12
   \   00000008   0040A0E1           MOV      R4,R0
   \   0000000C   0150A0E1           MOV      R5,R1
     40            GUI_LOCK();
   \   00000010   ........           BL       GUI_Lock
     41            if (hObj) {
   \   00000014   000054E3           CMP      R4,#+0
   \   00000018   3100000A           BEQ      ??FRAMEWIN_SetBorderSize_0
     42              GUI_RECT r;
     43              WM_Obj * pChild;
     44              int Diff, OldSize, OldHeight;
     45              WM_HWIN hChild;
     46              WM_HWIN hNext;
     47              FRAMEWIN_Obj * pObj;
     48              pObj      = FRAMEWIN_LOCK_H(hObj);
   \   0000001C   0400A0E1           MOV      R0,R4
   \   00000020   ........           BL       GUI_ALLOC_LockH
   \   00000024   0060A0E1           MOV      R6,R0
     49              OldHeight = FRAMEWIN__CalcTitleHeight(pObj);
   \   00000028   ........           BL       FRAMEWIN__CalcTitleHeight
   \   0000002C   0070A0E1           MOV      R7,R0
     50              OldSize   = pObj->Props.BorderSize;
     51              Diff      = Size - OldSize;
   \   00000030   F605D6E1           LDRSH    R0,[R6, #+86]
     52              for (hChild = pObj->Widget.Win.hFirstChild; hChild; hChild = hNext) {
   \   00000034   1C9096E5           LDR      R9,[R6, #+28]
   \   00000038   008045E0           SUB      R8,R5,R0
   \   0000003C   00A068E2           RSB      R10,R8,#+0
   \   00000040   000059E3           CMP      R9,#+0
   \   00000044   2000000A           BEQ      ??FRAMEWIN_SetBorderSize_1
     53                pChild = (WM_Obj *)GUI_LOCK_H(hChild);
   \                     ??FRAMEWIN_SetBorderSize_2:
   \   00000048   0900A0E1           MOV      R0,R9
   \   0000004C   ........           BL       GUI_ALLOC_LockH
   \   00000050   00B0A0E1           MOV      R11,R0
     54                r = pChild->Rect;
   \   00000054   0D00A0E1           MOV      R0,SP
   \   00000058   0B10A0E1           MOV      R1,R11
   \   0000005C   0820A0E3           MOV      R2,#+8
   \   00000060   ........           BL       __aeabi_memcpy
     55                GUI_MoveRect(&r, -pObj->Widget.Win.Rect.x0, -pObj->Widget.Win.Rect.y0);
   \   00000064   F200D6E1           LDRSH    R0,[R6, #+2]
   \   00000068   002060E2           RSB      R2,R0,#+0
   \   0000006C   F000D6E1           LDRSH    R0,[R6, #+0]
   \   00000070   001060E2           RSB      R1,R0,#+0
   \   00000074   0D00A0E1           MOV      R0,SP
   \   00000078   ........           BL       GUI_MoveRect
     56                if ((r.y0 == pObj->Props.BorderSize) && ((r.y1 - r.y0 + 1) == OldHeight)) {
   \   0000007C   F200DDE1           LDRSH    R0,[SP, #+2]
   \   00000080   F615D6E1           LDRSH    R1,[R6, #+86]
   \   00000084   010050E1           CMP      R0,R1
   \   00000088   0B00001A           BNE      ??FRAMEWIN_SetBorderSize_3
   \   0000008C   F610DDE1           LDRSH    R1,[SP, #+6]
   \   00000090   000041E0           SUB      R0,R1,R0
   \   00000094   010080E2           ADD      R0,R0,#+1
   \   00000098   070050E1           CMP      R0,R7
   \   0000009C   0600001A           BNE      ??FRAMEWIN_SetBorderSize_3
     57                  if (pChild->Status & WM_SF_ANCHOR_RIGHT) {
   \   000000A0   2800DBE5           LDRB     R0,[R11, #+40]
   \   000000A4   0820A0E1           MOV      R2,R8
   \   000000A8   800010E3           TST      R0,#0x80
     58                    WM_MoveWindow(hChild, -Diff, Diff);
   \   000000AC   0A10A011           MOVNE    R1,R10
     59                  } else {
     60                    WM_MoveWindow(hChild, Diff, Diff);
   \   000000B0   0810A001           MOVEQ    R1,R8
   \   000000B4   0900A0E1           MOV      R0,R9
   \   000000B8   ........           BL       WM_MoveWindow
     61                  }
     62                }
     63                hNext = pChild->hNext;
   \                     ??FRAMEWIN_SetBorderSize_3:
   \   000000BC   20909BE5           LDR      R9,[R11, #+32]
     64                GUI_UNLOCK_H(pChild);
   \   000000C0   ........           BL       GUI_ALLOC_UnlockH
     65              }
   \   000000C4   000059E3           CMP      R9,#+0
   \   000000C8   DEFFFF1A           BNE      ??FRAMEWIN_SetBorderSize_2
     66              pObj->Props.BorderSize   = Size;
   \                     ??FRAMEWIN_SetBorderSize_1:
   \   000000CC   B655C6E1           STRH     R5,[R6, #+86]
     67              GUI_UNLOCK_H(pObj);
   \   000000D0   ........           BL       GUI_ALLOC_UnlockH
     68              FRAMEWIN__UpdatePositions(hObj);
   \   000000D4   0400A0E1           MOV      R0,R4
   \   000000D8   ........           BL       FRAMEWIN__UpdatePositions
     69              FRAMEWIN_Invalidate(hObj);
   \   000000DC   0400A0E1           MOV      R0,R4
   \   000000E0   ........           BL       WM_InvalidateWindow
     70            }
     71            GUI_UNLOCK();
   \                     ??FRAMEWIN_SetBorderSize_0:
   \   000000E4   ........           BL       GUI_Unlock
     72          }
   \   000000E8   0CD08DE2           ADD      SP,SP,#+12       ;; stack cleaning
   \   000000EC   F08FBDE8           POP      {R4-R11,PC}      ;; return
     73          
     74          #else
     75            void FRAMEWIN_SetBorderSize_C(void) {} /* avoid empty object files */
     76          #endif /* GUI_WINSUPPORT */

   Maximum stack usage in bytes:

     Function               .cstack
     --------               -------
     FRAMEWIN_SetBorderSize     48


   Section sizes:

     Function/Label         Bytes
     --------------         -----
     FRAMEWIN_SetBorderSize  240

 
 240 bytes in section .text
 
 240 bytes of CODE memory

Errors: none
Warnings: none
