###############################################################################
#                                                                             #
# IAR ANSI C/C++ Compiler V6.10.2.52244/W32 for ARM     19/Nov/2015  13:14:55 #
# Copyright 1999-2010 IAR Systems AB.                                         #
#                                                                             #
#    Cpu mode     =  arm                                                      #
#    Endian       =  little                                                   #
#    Source file  =  C:\DUII\TargetHW\GUI\FRAMEWIN_Button.c                   #
#    Command line =  C:\DUII\TargetHW\GUI\FRAMEWIN_Button.c -D DEBUG=1 -D     #
#                    SDRAM_TARGET=1 -D USB_IS_HIGH_SPEED -D NOPROFILER -D     #
#                    OS_TRACE=0 -D OS_VIEW_ENABLE=0 -lCN                      #
#                    C:\DUII\TargetHW\Release\List\ -o                        #
#                    C:\DUII\TargetHW\Release\Obj\ --endian=little            #
#                    --cpu=ARM926EJ-S -e --fpu=None --dlib_config             #
#                    "C:\Program Files (x86)\IAR Systems\Embedded Workbench   #
#                    6.0\arm\INC\c\DLib_Config_Normal.h" -I                   #
#                    C:\DUII\TargetHW\Application\SEGGERDEMO\ -I              #
#                    C:\DUII\TargetHW\Application\SEGGERDEMO\Src\ -I          #
#                    C:\DUII\TargetHW\Config\ -I C:\DUII\TargetHW\FS\ -I      #
#                    C:\DUII\TargetHW\GUI\ -I C:\DUII\TargetHW\Inc\ -I        #
#                    C:\DUII\TargetHW\OS\ -I C:\DUII\TargetHW\Setup\ -I       #
#                    \DUII\DUII\ -I \DUII\DUII\Graphics\ --cpu_mode arm -Ohs  #
#                    --use_c++_inline --require_prototypes                    #
#    List file    =  C:\DUII\TargetHW\Release\List\FRAMEWIN_Button.lst        #
#    Object file  =  C:\DUII\TargetHW\Release\Obj\FRAMEWIN_Button.o           #
#                                                                             #
#                                                                             #
###############################################################################

C:\DUII\TargetHW\GUI\FRAMEWIN_Button.c
      1          /*********************************************************************
      2          *                SEGGER Microcontroller GmbH & Co. KG                *
      3          *        Solutions for real time microcontroller applications        *
      4          **********************************************************************
      5          *                                                                    *
      6          *        (c) 1996 - 2010  SEGGER Microcontroller GmbH & Co. KG       *
      7          *                                                                    *
      8          *        Internet: www.segger.com    Support:  support@segger.com    *
      9          *                                                                    *
     10          **********************************************************************
     11          
     12          ** emWin V5.06 - Graphical user interface for embedded applications **
     13          emWin is protected by international copyright laws.   Knowledge of the
     14          source code may not be used to write a similar product.  This file may
     15          only be used in accordance with a license and should not be re-
     16          distributed in any way. We appreciate your understanding and fairness.
     17          ----------------------------------------------------------------------
     18          File        : FRAMEWIN_Button.c
     19          Purpose     : 
     20          ---------------------------END-OF-HEADER------------------------------
     21          */
     22          
     23          #include <stdlib.h>
     24          #include <string.h>
     25          #include "FRAMEWIN_Private.h"
     26          #include "BUTTON.h"
     27          
     28          #if GUI_WINSUPPORT
     29          
     30          /*********************************************************************
     31          *
     32          *        Exported routines
     33          *
     34          **********************************************************************
     35          */
     36          /*********************************************************************
     37          *
     38          *       FRAMEWIN_AddButton
     39          */

   \                                 In section .text, align 4, keep-with-next
     40          WM_HWIN FRAMEWIN_AddButton(FRAMEWIN_Handle hObj, int Flags, int Off, int Id) {
   \                     FRAMEWIN_AddButton:
   \   00000000   F0432DE9           PUSH     {R4-R9,LR}
   \   00000004   0040A0E1           MOV      R4,R0
   \   00000008   24D04DE2           SUB      SP,SP,#+36
   \   0000000C   0190A0E1           MOV      R9,R1
   \   00000010   0260A0E1           MOV      R6,R2
   \   00000014   0350A0E1           MOV      R5,R3
     41            WM_HWIN r = 0;
   \   00000018   0070A0E3           MOV      R7,#+0
     42            if (hObj) {
   \   0000001C   000054E3           CMP      R4,#+0
   \   00000020   2000000A           BEQ      ??FRAMEWIN_AddButton_0
     43              FRAMEWIN_POSITIONS Pos;
     44              int Size       = FRAMEWIN_GetTitleHeight(hObj);
   \   00000024   ........           BL       FRAMEWIN_GetTitleHeight
   \   00000028   0070A0E1           MOV      R7,R0
     45              int BorderSize = FRAMEWIN_GetBorderSize(hObj);
   \   0000002C   0400A0E1           MOV      R0,R4
   \   00000030   ........           BL       FRAMEWIN_GetBorderSize
   \   00000034   0080A0E1           MOV      R8,R0
     46              int WinFlags, x;
     47              WM_LOCK();
   \   00000038   ........           BL       GUI_Lock
     48              FRAMEWIN__CalcPositions(hObj, &Pos);
   \   0000003C   0C108DE2           ADD      R1,SP,#+12
   \   00000040   0400A0E1           MOV      R0,R4
   \   00000044   ........           BL       FRAMEWIN__CalcPositions
     49              if (Flags & FRAMEWIN_BUTTON_RIGHT) {
   \   00000048   010019E3           TST      R9,#0x1
   \   0000004C   0500000A           BEQ      ??FRAMEWIN_AddButton_1
     50                x = Pos.rTitleText.x1 - (Size - 1) - Off;
   \   00000050   FC01DDE1           LDRSH    R0,[SP, #+28]
     51                WinFlags = WM_CF_SHOW | WM_CF_ANCHOR_RIGHT;
   \   00000054   8210A0E3           MOV      R1,#+130
   \   00000058   070040E0           SUB      R0,R0,R7
   \   0000005C   010080E2           ADD      R0,R0,#+1
   \   00000060   060040E0           SUB      R0,R0,R6
   \   00000064   040000EA           B        ??FRAMEWIN_AddButton_2
     52              } else if (Flags & FRAMEWIN_BUTTON_LEFT) {
   \                     ??FRAMEWIN_AddButton_1:
   \   00000068   F801DDE1           LDRSH    R0,[SP, #+24]
   \   0000006C   020019E3           TST      R9,#0x2
   \   00000070   0210A0E3           MOV      R1,#+2
   \   00000074   000086E0           ADD      R0,R6,R0
     53                x = Pos.rTitleText.x0 + Off;
     54                WinFlags = WM_CF_SHOW | WM_CF_ANCHOR_LEFT;
   \   00000078   801F8113           ORRNE    R1,R1,#0x200
     55              } else {
     56                x = Pos.rTitleText.x0 + Off;
     57                WinFlags = WM_CF_SHOW;
     58              }
     59              r = BUTTON_CreateAsChild(x, BorderSize, Size, Size, hObj, Id, WinFlags);
   \                     ??FRAMEWIN_AddButton_2:
   \   0000007C   08108DE5           STR      R1,[SP, #+8]
   \   00000080   04508DE5           STR      R5,[SP, #+4]
   \   00000084   00408DE5           STR      R4,[SP, #+0]
   \   00000088   0730A0E1           MOV      R3,R7
   \   0000008C   0720A0E1           MOV      R2,R7
   \   00000090   0810A0E1           MOV      R1,R8
   \   00000094   ........           BL       BUTTON_CreateAsChild
   \   00000098   0070A0E1           MOV      R7,R0
     60              BUTTON_SetFocussable(r, 0);
   \   0000009C   0010A0E3           MOV      R1,#+0
   \   000000A0   ........           BL       BUTTON_SetFocussable
     61              WM_UNLOCK();
   \   000000A4   ........           BL       GUI_Unlock
     62            }
     63            return r;
   \                     ??FRAMEWIN_AddButton_0:
   \   000000A8   0700A0E1           MOV      R0,R7
   \   000000AC   24D08DE2           ADD      SP,SP,#+36
   \   000000B0   F083BDE8           POP      {R4-R9,PC}       ;; return
     64          }
     65          
     66          #else
     67            void FRAMEWIN_Button_c(void) {} /* avoid empty object files */
     68          #endif /* GUI_WINSUPPORT */

   Maximum stack usage in bytes:

     Function           .cstack
     --------           -------
     FRAMEWIN_AddButton     64


   Section sizes:

     Function/Label     Bytes
     --------------     -----
     FRAMEWIN_AddButton  180

 
 180 bytes in section .text
 
 180 bytes of CODE memory

Errors: none
Warnings: none
