###############################################################################
#                                                                             #
# IAR ANSI C/C++ Compiler V6.10.2.52244/W32 for ARM     19/Nov/2015  13:14:55 #
# Copyright 1999-2010 IAR Systems AB.                                         #
#                                                                             #
#    Cpu mode     =  arm                                                      #
#    Endian       =  little                                                   #
#    Source file  =  C:\DUII\TargetHW\GUI\FRAMEWIN_SetFont.c                  #
#    Command line =  C:\DUII\TargetHW\GUI\FRAMEWIN_SetFont.c -D DEBUG=1 -D    #
#                    SDRAM_TARGET=1 -D USB_IS_HIGH_SPEED -D NOPROFILER -D     #
#                    OS_TRACE=0 -D OS_VIEW_ENABLE=0 -lCN                      #
#                    C:\DUII\TargetHW\Release\List\ -o                        #
#                    C:\DUII\TargetHW\Release\Obj\ --endian=little            #
#                    --cpu=ARM926EJ-S -e --fpu=None --dlib_config             #
#                    "C:\Program Files (x86)\IAR Systems\Embedded Workbench   #
#                    6.0\arm\INC\c\DLib_Config_Normal.h" -I                   #
#                    C:\DUII\TargetHW\Application\SEGGERDEMO\ -I              #
#                    C:\DUII\TargetHW\Application\SEGGERDEMO\Src\ -I          #
#                    C:\DUII\TargetHW\Config\ -I C:\DUII\TargetHW\FS\ -I      #
#                    C:\DUII\TargetHW\GUI\ -I C:\DUII\TargetHW\Inc\ -I        #
#                    C:\DUII\TargetHW\OS\ -I C:\DUII\TargetHW\Setup\ -I       #
#                    \DUII\DUII\ -I \DUII\DUII\Graphics\ --cpu_mode arm -Ohs  #
#                    --use_c++_inline --require_prototypes                    #
#    List file    =  C:\DUII\TargetHW\Release\List\FRAMEWIN_SetFont.lst       #
#    Object file  =  C:\DUII\TargetHW\Release\Obj\FRAMEWIN_SetFont.o          #
#                                                                             #
#                                                                             #
###############################################################################

C:\DUII\TargetHW\GUI\FRAMEWIN_SetFont.c
      1          /*********************************************************************
      2          *                SEGGER Microcontroller GmbH & Co. KG                *
      3          *        Solutions for real time microcontroller applications        *
      4          **********************************************************************
      5          *                                                                    *
      6          *        (c) 1996 - 2010  SEGGER Microcontroller GmbH & Co. KG       *
      7          *                                                                    *
      8          *        Internet: www.segger.com    Support:  support@segger.com    *
      9          *                                                                    *
     10          **********************************************************************
     11          
     12          ** emWin V5.06 - Graphical user interface for embedded applications **
     13          emWin is protected by international copyright laws.   Knowledge of the
     14          source code may not be used to write a similar product.  This file may
     15          only be used in accordance with a license and should not be re-
     16          distributed in any way. We appreciate your understanding and fairness.
     17          ----------------------------------------------------------------------
     18          File        : FRAMEWIN_SetFont.c
     19          Purpose     : 
     20          ---------------------------END-OF-HEADER------------------------------
     21          */
     22          
     23          #include <stdlib.h>
     24          #include <string.h>
     25          #include "FRAMEWIN_Private.h"
     26          
     27          #if GUI_WINSUPPORT
     28          
     29          
     30          /*********************************************************************
     31          *
     32          *        Exported routines
     33          *
     34          **********************************************************************
     35          */
     36          /*********************************************************************
     37          *
     38          *       FRAMEWIN_SetFont
     39          */

   \                                 In section .text, align 4, keep-with-next
     40          void FRAMEWIN_SetFont(FRAMEWIN_Handle hObj, const GUI_FONT GUI_UNI_PTR * pFont) {
   \                     FRAMEWIN_SetFont:
   \   00000000   F0412DE9           PUSH     {R4-R8,LR}
   \   00000004   08D04DE2           SUB      SP,SP,#+8
   \   00000008   0040A0E1           MOV      R4,R0
   \   0000000C   0170A0E1           MOV      R7,R1
     41            FRAMEWIN_Obj * pObj;
     42            FRAMEWIN_SKIN_PRIVATE * pSkinPrivate;
     43            int OldHeight, OldBorderSizeL, OldBorderSizeR, OldBorderSizeT;
     44          
     45            GUI_LOCK();
   \   00000010   ........           BL       GUI_Lock
     46            if (hObj) {
   \   00000014   000054E3           CMP      R4,#+0
   \   00000018   2200000A           BEQ      ??FRAMEWIN_SetFont_0
     47              //
     48              // Get properties
     49              //
     50              pObj = FRAMEWIN_LOCK_H(hObj);
   \   0000001C   0400A0E1           MOV      R0,R4
   \   00000020   ........           BL       GUI_ALLOC_LockH
   \   00000024   0080A0E1           MOV      R8,R0
     51              pSkinPrivate = (FRAMEWIN_SKIN_PRIVATE *)pObj->pWidgetSkin->pSkinPrivate;
   \   00000028   5C0098E5           LDR      R0,[R8, #+92]
   \   0000002C   086090E5           LDR      R6,[R0, #+8]
     52              OldHeight = FRAMEWIN__CalcTitleHeight(pObj);
   \   00000030   0800A0E1           MOV      R0,R8
   \   00000034   ........           BL       FRAMEWIN__CalcTitleHeight
   \   00000038   0050A0E1           MOV      R5,R0
     53              pObj->Props.pFont = pFont;
   \   0000003C   347088E5           STR      R7,[R8, #+52]
     54              GUI_UNLOCK_H(pObj);
   \   00000040   ........           BL       GUI_ALLOC_UnlockH
     55              //
     56              // Get old border size
     57              //
     58              OldBorderSizeL = pSkinPrivate->pfGetBordersize(hObj, FRAMEWIN_GET_BORDERSIZE_L);
   \   00000044   0110A0E3           MOV      R1,#+1
   \   00000048   0400A0E1           MOV      R0,R4
   \   0000004C   002096E5           LDR      R2,[R6, #+0]
   \   00000050   32FF2FE1           BLX      R2
   \   00000054   0070A0E1           MOV      R7,R0
     59              OldBorderSizeR = pSkinPrivate->pfGetBordersize(hObj, FRAMEWIN_GET_BORDERSIZE_R);
   \   00000058   0310A0E3           MOV      R1,#+3
   \   0000005C   0400A0E1           MOV      R0,R4
   \   00000060   002096E5           LDR      R2,[R6, #+0]
   \   00000064   32FF2FE1           BLX      R2
   \   00000068   0080A0E1           MOV      R8,R0
     60              OldBorderSizeT = pSkinPrivate->pfGetBordersize(hObj, FRAMEWIN_GET_BORDERSIZE_T);
   \   0000006C   0010A0E3           MOV      R1,#+0
   \   00000070   0400A0E1           MOV      R0,R4
   \   00000074   002096E5           LDR      R2,[R6, #+0]
   \   00000078   32FF2FE1           BLX      R2
   \   0000007C   0060A0E1           MOV      R6,R0
     61              //
     62              // Update positions
     63              //
     64              FRAMEWIN__UpdatePositions(hObj);
   \   00000080   0400A0E1           MOV      R0,R4
   \   00000084   ........           BL       FRAMEWIN__UpdatePositions
     65              FRAMEWIN__UpdateButtons(hObj, OldHeight, OldBorderSizeL, OldBorderSizeR, OldBorderSizeT);
   \   00000088   00608DE5           STR      R6,[SP, #+0]
   \   0000008C   0830A0E1           MOV      R3,R8
   \   00000090   0720A0E1           MOV      R2,R7
   \   00000094   0510A0E1           MOV      R1,R5
   \   00000098   0400A0E1           MOV      R0,R4
   \   0000009C   ........           BL       FRAMEWIN__UpdateButtons
     66              FRAMEWIN_Invalidate(hObj);
   \   000000A0   0400A0E1           MOV      R0,R4
   \   000000A4   ........           BL       WM_InvalidateWindow
     67            }
     68            GUI_UNLOCK();
   \                     ??FRAMEWIN_SetFont_0:
   \   000000A8   08D08DE2           ADD      SP,SP,#+8
   \   000000AC   F041BDE8           POP      {R4-R8,LR}
   \   000000B0   ........           B        GUI_Unlock       ;; tailcall
     69          }
     70          
     71          #else
     72            void FRAMEWIN_SetFont_c(void) {} /* avoid empty object files */
     73          #endif /* GUI_WINSUPPORT */

   Maximum stack usage in bytes:

     Function         .cstack
     --------         -------
     FRAMEWIN_SetFont     32


   Section sizes:

     Function/Label   Bytes
     --------------   -----
     FRAMEWIN_SetFont  180

 
 180 bytes in section .text
 
 180 bytes of CODE memory

Errors: none
Warnings: none
