###############################################################################
#                                                                             #
# IAR ANSI C/C++ Compiler V6.10.2.52244/W32 for ARM     19/Nov/2015  13:09:26 #
# Copyright 1999-2010 IAR Systems AB.                                         #
#                                                                             #
#    Cpu mode     =  arm                                                      #
#    Endian       =  little                                                   #
#    Source file  =  C:\DUII\TargetHW\GUI\FRAMEWIN_Skin.c                     #
#    Command line =  C:\DUII\TargetHW\GUI\FRAMEWIN_Skin.c -D DEBUG=1 -D       #
#                    SDRAM_TARGET=1 -D USB_IS_HIGH_SPEED -D NOPROFILER -D     #
#                    OS_TRACE=0 -D OS_VIEW_ENABLE=0 -lCN                      #
#                    C:\DUII\TargetHW\Release\List\ -o                        #
#                    C:\DUII\TargetHW\Release\Obj\ --endian=little            #
#                    --cpu=ARM926EJ-S -e --fpu=None --dlib_config             #
#                    "C:\Program Files (x86)\IAR Systems\Embedded Workbench   #
#                    6.0\arm\INC\c\DLib_Config_Normal.h" -I                   #
#                    C:\DUII\TargetHW\Application\SEGGERDEMO\ -I              #
#                    C:\DUII\TargetHW\Application\SEGGERDEMO\Src\ -I          #
#                    C:\DUII\TargetHW\Config\ -I C:\DUII\TargetHW\FS\ -I      #
#                    C:\DUII\TargetHW\GUI\ -I C:\DUII\TargetHW\Inc\ -I        #
#                    C:\DUII\TargetHW\OS\ -I C:\DUII\TargetHW\Setup\ -I       #
#                    \DUII\DUII\ -I \DUII\DUII\Graphics\ --cpu_mode arm -Ohs  #
#                    --use_c++_inline --require_prototypes                    #
#    List file    =  C:\DUII\TargetHW\Release\List\FRAMEWIN_Skin.lst          #
#    Object file  =  C:\DUII\TargetHW\Release\Obj\FRAMEWIN_Skin.o             #
#                                                                             #
#                                                                             #
###############################################################################

C:\DUII\TargetHW\GUI\FRAMEWIN_Skin.c
      1          /*********************************************************************
      2          *                SEGGER Microcontroller GmbH & Co. KG                *
      3          *        Solutions for real time microcontroller applications        *
      4          **********************************************************************
      5          *                                                                    *
      6          *        (c) 1996 - 2010  SEGGER Microcontroller GmbH & Co. KG       *
      7          *                                                                    *
      8          *        Internet: www.segger.com    Support:  support@segger.com    *
      9          *                                                                    *
     10          **********************************************************************
     11          
     12          ** emWin V5.06 - Graphical user interface for embedded applications **
     13          emWin is protected by international copyright laws.   Knowledge of the
     14          source code may not be used to write a similar product.  This file may
     15          only be used in accordance with a license and should not be re-
     16          distributed in any way. We appreciate your understanding and fairness.
     17          ----------------------------------------------------------------------
     18          File        : FRAMEWIN_Skin.c
     19          Purpose     : Implementation of framewindow widget
     20          ---------------------------END-OF-HEADER------------------------------
     21          */
     22          
     23          #include "FRAMEWIN_Private.h"
     24          #include "GUI_Private.h"
     25          #include "WM_Intern.h"
     26          
     27          #if GUI_WINSUPPORT
     28          
     29          /*********************************************************************
     30          *
     31          *       Configuration defaults
     32          *
     33          **********************************************************************
     34          */
     35          
     36          /*********************************************************************
     37          *
     38          *       Static code
     39          *
     40          **********************************************************************
     41          */
     42          /*********************************************************************
     43          *
     44          *       _Paint
     45          */

   \                                 In section .text, align 4, keep-with-next
     46          static void _Paint(FRAMEWIN_Handle hObj) {
   \                     _Paint:
   \   00000000   F04F2DE9           PUSH     {R4-R11,LR}
   \   00000004   34D04DE2           SUB      SP,SP,#+52
   \   00000008   0040A0E1           MOV      R4,R0
     47            FRAMEWIN_Obj * pObj;
     48            WIDGET_DRAW_ITEM_FUNC * pfDrawSkin;
     49            FRAMEWIN_SKIN_PRIVATE * pSkinPrivate;
     50            const GUI_FONT GUI_UNI_PTR * pFont;
     51            WIDGET_ITEM_DRAW_INFO ItemInfo;
     52            int BorderSizeL;
     53            int BorderSizeR;
     54            int BorderSizeT;
     55            int xSize, ySize;
     56            int TitleHeight;
     57            int SepHeight;
     58            
     59            //
     60            // Get properties
     61            //
     62            pObj = FRAMEWIN_LOCK_H(hObj);
   \   0000000C   ........           BL       GUI_ALLOC_LockH
   \   00000010   0070A0E1           MOV      R7,R0
     63            pFont = pObj->Props.pFont;
     64            pfDrawSkin = pObj->Props.SkinPrivate.pfDrawSkin;
     65            pSkinPrivate = (FRAMEWIN_SKIN_PRIVATE *)pObj->pWidgetSkin->pSkinPrivate;
   \   00000014   5C0097E5           LDR      R0,[R7, #+92]
   \   00000018   345097E5           LDR      R5,[R7, #+52]
   \   0000001C   089090E5           LDR      R9,[R0, #+8]
   \   00000020   506097E5           LDR      R6,[R7, #+80]
     66            TitleHeight = FRAMEWIN__CalcTitleHeight(pObj);
   \   00000024   0700A0E1           MOV      R0,R7
   \   00000028   ........           BL       FRAMEWIN__CalcTitleHeight
   \   0000002C   2C008DE5           STR      R0,[SP, #+44]
     67            SepHeight = pObj->Props.IBorderSize;
   \   00000030   F815D7E1           LDRSH    R1,[R7, #+88]
   \   00000034   28108DE5           STR      R1,[SP, #+40]
     68            GUI_UNLOCK_H(pObj);
   \   00000038   ........           BL       GUI_ALLOC_UnlockH
     69            //
     70            // Get size
     71            //
     72            xSize = WM_GetWindowSizeX(hObj);
   \   0000003C   0400A0E1           MOV      R0,R4
   \   00000040   ........           BL       WM_GetWindowSizeX
   \   00000044   0070A0E1           MOV      R7,R0
     73            ySize = WM_GetWindowSizeY(hObj);
   \   00000048   0400A0E1           MOV      R0,R4
   \   0000004C   ........           BL       WM_GetWindowSizeY
   \   00000050   24008DE5           STR      R0,[SP, #+36]
     74            BorderSizeL = pSkinPrivate->pfGetBordersize(hObj, FRAMEWIN_GET_BORDERSIZE_L);
   \   00000054   0110A0E3           MOV      R1,#+1
   \   00000058   0400A0E1           MOV      R0,R4
   \   0000005C   002099E5           LDR      R2,[R9, #+0]
   \   00000060   32FF2FE1           BLX      R2
   \   00000064   0080A0E1           MOV      R8,R0
     75            BorderSizeR = pSkinPrivate->pfGetBordersize(hObj, FRAMEWIN_GET_BORDERSIZE_R);
   \   00000068   0310A0E3           MOV      R1,#+3
   \   0000006C   0400A0E1           MOV      R0,R4
   \   00000070   002099E5           LDR      R2,[R9, #+0]
   \   00000074   32FF2FE1           BLX      R2
   \   00000078   20008DE5           STR      R0,[SP, #+32]
     76            BorderSizeT = pSkinPrivate->pfGetBordersize(hObj, FRAMEWIN_GET_BORDERSIZE_T);
   \   0000007C   0010A0E3           MOV      R1,#+0
   \   00000080   0400A0E1           MOV      R0,R4
   \   00000084   002099E5           LDR      R2,[R9, #+0]
   \   00000088   32FF2FE1           BLX      R2
   \   0000008C   0090A0E1           MOV      R9,R0
     77            //
     78            // Fill item info structure
     79            //
     80            ItemInfo.hWin = hObj;
   \   00000090   00408DE5           STR      R4,[SP, #+0]
     81            //
     82            // Drawing
     83            //
     84            WM_ITERATE_START(NULL) {
   \   00000094   0000A0E3           MOV      R0,#+0
   \   00000098   ........           BL       WM__InitIVRSearch
   \   0000009C   000050E3           CMP      R0,#+0
   \   000000A0   3300000A           BEQ      ??_Paint_0
     85              ItemInfo.x0 = ItemInfo.y0 = 0;
     86              ItemInfo.x1 = xSize - 1;
   \                     ??_Paint_1:
   \   000000A4   011047E2           SUB      R1,R7,#+1
   \   000000A8   14108DE5           STR      R1,[SP, #+20]
     87              ItemInfo.y1 = ySize - 1;
   \   000000AC   24109DE5           LDR      R1,[SP, #+36]
   \   000000B0   0000A0E3           MOV      R0,#+0
   \   000000B4   011041E2           SUB      R1,R1,#+1
   \   000000B8   18108DE5           STR      R1,[SP, #+24]
   \   000000BC   10008DE5           STR      R0,[SP, #+16]
   \   000000C0   0C008DE5           STR      R0,[SP, #+12]
     88              //
     89              // Draw frame
     90              //
     91              ItemInfo.Cmd = WIDGET_ITEM_DRAW_FRAME;
   \   000000C4   0910A0E3           MOV      R1,#+9
   \   000000C8   04108DE5           STR      R1,[SP, #+4]
     92              pfDrawSkin(&ItemInfo);
   \   000000CC   0D00A0E1           MOV      R0,SP
   \   000000D0   36FF2FE1           BLX      R6
     93              //
     94              // Draw separator
     95              //
     96              ItemInfo.x0 = BorderSizeL;
     97              ItemInfo.y0 = BorderSizeT + TitleHeight;
   \   000000D4   2C009DE5           LDR      R0,[SP, #+44]
     98              ItemInfo.x1 = xSize - BorderSizeR - 1;
     99              ItemInfo.y1 = BorderSizeT + TitleHeight + SepHeight - 1;
    100              ItemInfo.Cmd = WIDGET_ITEM_DRAW_SEP;
   \   000000D8   0C10A0E3           MOV      R1,#+12
   \   000000DC   09A080E0           ADD      R10,R0,R9
   \   000000E0   20009DE5           LDR      R0,[SP, #+32]
   \   000000E4   0C808DE5           STR      R8,[SP, #+12]
   \   000000E8   000047E0           SUB      R0,R7,R0
   \   000000EC   01B040E2           SUB      R11,R0,#+1
   \   000000F0   28009DE5           LDR      R0,[SP, #+40]
   \   000000F4   10A08DE5           STR      R10,[SP, #+16]
   \   000000F8   0A0080E0           ADD      R0,R0,R10
   \   000000FC   010040E2           SUB      R0,R0,#+1
   \   00000100   18008DE5           STR      R0,[SP, #+24]
   \   00000104   14B08DE5           STR      R11,[SP, #+20]
   \   00000108   04108DE5           STR      R1,[SP, #+4]
    101              pfDrawSkin(&ItemInfo);
   \   0000010C   0D00A0E1           MOV      R0,SP
   \   00000110   36FF2FE1           BLX      R6
    102              //
    103              // Draw title bar
    104              //
    105              ItemInfo.x0 = BorderSizeL;
    106              ItemInfo.y0 = BorderSizeT;
    107              ItemInfo.x1 = xSize - BorderSizeR - 1;
    108              ItemInfo.y1 = BorderSizeT + TitleHeight - 1;
   \   00000114   01104AE2           SUB      R1,R10,#+1
   \   00000118   18108DE5           STR      R1,[SP, #+24]
    109              ItemInfo.Cmd = WIDGET_ITEM_DRAW_BACKGROUND;
   \   0000011C   0310A0E3           MOV      R1,#+3
   \   00000120   0C808DE5           STR      R8,[SP, #+12]
   \   00000124   10908DE5           STR      R9,[SP, #+16]
   \   00000128   14B08DE5           STR      R11,[SP, #+20]
   \   0000012C   04108DE5           STR      R1,[SP, #+4]
    110              pfDrawSkin(&ItemInfo);
   \   00000130   0D00A0E1           MOV      R0,SP
   \   00000134   36FF2FE1           BLX      R6
    111              //
    112              // Draw title text
    113              //
    114              FRAMEWIN__GetTitleLimits(hObj, &ItemInfo.x0, &ItemInfo.x1);
   \   00000138   14208DE2           ADD      R2,SP,#+20
   \   0000013C   0C108DE2           ADD      R1,SP,#+12
   \   00000140   0400A0E1           MOV      R0,R4
   \   00000144   ........           BL       FRAMEWIN__GetTitleLimits
    115              GUI_SetTextMode(GUI_TM_TRANS);
   \   00000148   0200A0E3           MOV      R0,#+2
   \   0000014C   ........           BL       GUI_SetTextMode
    116              GUI_SetFont(pFont);
   \   00000150   0500A0E1           MOV      R0,R5
   \   00000154   ........           BL       GUI_SetFont
    117              ItemInfo.Cmd = WIDGET_ITEM_DRAW_TEXT;
   \   00000158   1010A0E3           MOV      R1,#+16
   \   0000015C   04108DE5           STR      R1,[SP, #+4]
    118              pfDrawSkin(&ItemInfo);
   \   00000160   0D00A0E1           MOV      R0,SP
   \   00000164   36FF2FE1           BLX      R6
    119            } WM_ITERATE_END();
   \   00000168   ........           BL       WM__GetNextIVR
   \   0000016C   000050E3           CMP      R0,#+0
   \   00000170   CBFFFF1A           BNE      ??_Paint_1
    120          }
   \                     ??_Paint_0:
   \   00000174   34D08DE2           ADD      SP,SP,#+52       ;; stack cleaning
   \   00000178   F08FBDE8           POP      {R4-R11,PC}      ;; return
    121          
    122          /*********************************************************************
    123          *
    124          *       _Create
    125          */

   \                                 In section .text, align 4, keep-with-next
    126          static void _Create(FRAMEWIN_Handle hObj) {
   \                     _Create:
   \   00000000   30402DE9           PUSH     {R4,R5,LR}
   \   00000004   24D04DE2           SUB      SP,SP,#+36
   \   00000008   0040A0E1           MOV      R4,R0
    127            FRAMEWIN_Obj * pObj;
    128            FRAMEWIN_SKIN_PRIVATE * pSkinPrivate;
    129            WIDGET_ITEM_DRAW_INFO ItemInfo;
    130          
    131            //
    132            // Get properties
    133            //
    134            pObj = FRAMEWIN_LOCK_H(hObj);
    135            pSkinPrivate = (FRAMEWIN_SKIN_PRIVATE *)pObj->pWidgetSkin->pSkinPrivate;
   \   0000000C   ........           BL       GUI_ALLOC_LockH
   \   00000010   5C0090E5           LDR      R0,[R0, #+92]
   \   00000014   085090E5           LDR      R5,[R0, #+8]
    136            GUI_UNLOCK_H(pObj);
   \   00000018   ........           BL       GUI_ALLOC_UnlockH
    137            //
    138            // Create
    139            //
    140            ItemInfo.Cmd = WIDGET_ITEM_CREATE;
   \   0000001C   0010A0E3           MOV      R1,#+0
   \   00000020   04108DE5           STR      R1,[SP, #+4]
    141            ItemInfo.hWin = hObj;
   \   00000024   00408DE5           STR      R4,[SP, #+0]
    142            pSkinPrivate->pfDrawSkin(&ItemInfo);
   \   00000028   0D00A0E1           MOV      R0,SP
   \   0000002C   041095E5           LDR      R1,[R5, #+4]
   \   00000030   31FF2FE1           BLX      R1
    143          }
   \   00000034   24D08DE2           ADD      SP,SP,#+36       ;; stack cleaning
   \   00000038   3080BDE8           POP      {R4,R5,PC}       ;; return
    144          
    145          /*********************************************************************
    146          *
    147          *       Private data
    148          *
    149          **********************************************************************
    150          */
    151          /*********************************************************************
    152          *
    153          *       _Skin
    154          */

   \                                 In section .data, align 4
    155          WIDGET_SKIN _Skin = {
   \                     _Skin:
   \   00000000   ............       DC32 _Paint, _Create, FRAMEWIN__DefaultProps + 18H
   \              ............
    156            _Paint,
    157            _Create,
    158            &FRAMEWIN__DefaultProps.SkinPrivate
    159          };
    160          
    161          /*********************************************************************
    162          *
    163          *       Public code
    164          *
    165          **********************************************************************
    166          */
    167          /*********************************************************************
    168          *
    169          *       FRAMEWIN_SetSkin
    170          */

   \                                 In section .text, align 4, keep-with-next
    171          void FRAMEWIN_SetSkin(FRAMEWIN_Handle hObj, WIDGET_DRAW_ITEM_FUNC * pfDrawSkin) {
   \                     FRAMEWIN_SetSkin:
   \   00000000   F0432DE9           PUSH     {R4-R9,LR}
   \   00000004   04D04DE2           SUB      SP,SP,#+4
   \   00000008   0040A0E1           MOV      R4,R0
   \   0000000C   0150A0E1           MOV      R5,R1
    172            FRAMEWIN_Obj * pObj;
    173            FRAMEWIN_SKIN_PRIVATE * pSkinPrivate;
    174            int OldHeight, OldBorderSizeL, OldBorderSizeR, OldBorderSizeT;
    175          
    176            GUI_LOCK();
   \   00000010   ........           BL       GUI_Lock
    177            pObj = FRAMEWIN_LOCK_H(hObj);
   \   00000014   0400A0E1           MOV      R0,R4
   \   00000018   ........           BL       GUI_ALLOC_LockH
    178            pSkinPrivate = (FRAMEWIN_SKIN_PRIVATE *)pObj->pWidgetSkin->pSkinPrivate;
   \   0000001C   5C1090E5           LDR      R1,[R0, #+92]
   \   00000020   089091E5           LDR      R9,[R1, #+8]
    179            OldHeight = FRAMEWIN__CalcTitleHeight(pObj);
   \   00000024   ........           BL       FRAMEWIN__CalcTitleHeight
   \   00000028   0060A0E1           MOV      R6,R0
    180            GUI_UNLOCK_H(pObj);
   \   0000002C   ........           BL       GUI_ALLOC_UnlockH
    181            //
    182            // Get old border size
    183            //
    184            OldBorderSizeL = pSkinPrivate->pfGetBordersize(hObj, FRAMEWIN_GET_BORDERSIZE_L);
   \   00000030   0110A0E3           MOV      R1,#+1
   \   00000034   0400A0E1           MOV      R0,R4
   \   00000038   002099E5           LDR      R2,[R9, #+0]
   \   0000003C   32FF2FE1           BLX      R2
   \   00000040   0070A0E1           MOV      R7,R0
    185            OldBorderSizeR = pSkinPrivate->pfGetBordersize(hObj, FRAMEWIN_GET_BORDERSIZE_R);
   \   00000044   0310A0E3           MOV      R1,#+3
   \   00000048   0400A0E1           MOV      R0,R4
   \   0000004C   002099E5           LDR      R2,[R9, #+0]
   \   00000050   32FF2FE1           BLX      R2
   \   00000054   0080A0E1           MOV      R8,R0
    186            OldBorderSizeT = pSkinPrivate->pfGetBordersize(hObj, FRAMEWIN_GET_BORDERSIZE_T);
   \   00000058   0010A0E3           MOV      R1,#+0
   \   0000005C   0400A0E1           MOV      R0,R4
   \   00000060   002099E5           LDR      R2,[R9, #+0]
   \   00000064   32FF2FE1           BLX      R2
   \   00000068   0090A0E1           MOV      R9,R0
    187            //
    188            // Enable skinning
    189            //
    190            pObj = FRAMEWIN_LOCK_H(hObj);
   \   0000006C   0400A0E1           MOV      R0,R4
   \   00000070   ........           BL       GUI_ALLOC_LockH
    191            pObj->pWidgetSkin = &_Skin;
   \   00000074   ........           LDR      R1,??DataTable1
   \   00000078   5C1080E5           STR      R1,[R0, #+92]
    192            //
    193            // Set private callback function
    194            //
    195            pObj->Props.SkinPrivate.pfDrawSkin = pfDrawSkin;
   \   0000007C   505080E5           STR      R5,[R0, #+80]
    196            GUI_UNLOCK_H(pObj);
   \   00000080   ........           BL       GUI_ALLOC_UnlockH
    197            //
    198            // Recalc positions and invalidate
    199            //
    200            FRAMEWIN__UpdatePositions(hObj);
   \   00000084   0400A0E1           MOV      R0,R4
   \   00000088   ........           BL       FRAMEWIN__UpdatePositions
    201            FRAMEWIN__UpdateButtons(hObj, OldHeight, OldBorderSizeL, OldBorderSizeR, OldBorderSizeT);
   \   0000008C   00908DE5           STR      R9,[SP, #+0]
   \   00000090   0830A0E1           MOV      R3,R8
   \   00000094   0720A0E1           MOV      R2,R7
   \   00000098   0610A0E1           MOV      R1,R6
   \   0000009C   0400A0E1           MOV      R0,R4
   \   000000A0   ........           BL       FRAMEWIN__UpdateButtons
    202            WM_SetHasTrans(hObj);
   \   000000A4   0400A0E1           MOV      R0,R4
   \   000000A8   ........           BL       WM_SetHasTrans
    203            WM_InvalidateWindow(hObj);
   \   000000AC   0400A0E1           MOV      R0,R4
   \   000000B0   ........           BL       WM_InvalidateWindow
    204            GUI_UNLOCK();
   \   000000B4   04D08DE2           ADD      SP,SP,#+4
   \   000000B8   F043BDE8           POP      {R4-R9,LR}
   \   000000BC   ........           B        GUI_Unlock       ;; tailcall
    205          }
    206          
    207          /*********************************************************************
    208          *
    209          *       FRAMEWIN_SetDefaultSkin
    210          */

   \                                 In section .text, align 4, keep-with-next
    211          void FRAMEWIN_SetDefaultSkin(WIDGET_DRAW_ITEM_FUNC * pfDrawSkin) {
    212            FRAMEWIN__pSkinDefault = &_Skin;
   \                     FRAMEWIN_SetDefaultSkin:
   \   00000000   ........           LDR      R1,??DataTable1_1
   \   00000004   ........           LDR      R2,??DataTable1
   \   00000008   002081E5           STR      R2,[R1, #+0]
    213            FRAMEWIN__DefaultProps.SkinPrivate.pfDrawSkin = pfDrawSkin;
   \   0000000C   ........           LDR      R1,??DataTable1_2
   \   00000010   1C0081E5           STR      R0,[R1, #+28]
    214          }
   \   00000014   1EFF2FE1           BX       LR               ;; return

   \                                 In section .text, align 4, keep-with-next
   \                     ??DataTable1:
   \   00000000   ........           DC32     _Skin

   \                                 In section .text, align 4, keep-with-next
   \                     ??DataTable1_1:
   \   00000000   ........           DC32     FRAMEWIN__pSkinDefault

   \                                 In section .text, align 4, keep-with-next
   \                     ??DataTable1_2:
   \   00000000   ........           DC32     FRAMEWIN__DefaultProps
    215          
    216          #else
    217            void FRAMEWIN_Skin_C(void);
    218            void FRAMEWIN_Skin_C(void) {} /* avoid empty object files */
    219          #endif /* GUI_WINSUPPORT */
    220          
    221          /*************************** End of file ****************************/

   Maximum stack usage in bytes:

     Function                .cstack
     --------                -------
     FRAMEWIN_SetDefaultSkin      0
     FRAMEWIN_SetSkin            32
     _Create                     48
     _Paint                      88


   Section sizes:

     Function/Label          Bytes
     --------------          -----
     _Paint                   380
     _Create                   60
     _Skin                     12
     FRAMEWIN_SetSkin         192
     FRAMEWIN_SetDefaultSkin   24
     ??DataTable1               4
     ??DataTable1_1             4
     ??DataTable1_2             4

 
  12 bytes in section .data
 668 bytes in section .text
 
 668 bytes of CODE memory
  12 bytes of DATA memory

Errors: none
Warnings: none
