###############################################################################
#                                                                             #
# IAR ANSI C/C++ Compiler V6.10.2.52244/W32 for ARM     19/Nov/2015  13:14:55 #
# Copyright 1999-2010 IAR Systems AB.                                         #
#                                                                             #
#    Cpu mode     =  arm                                                      #
#    Endian       =  little                                                   #
#    Source file  =  C:\DUII\TargetHW\GUI\FRAMEWIN_SetTitleHeight.c           #
#    Command line =  C:\DUII\TargetHW\GUI\FRAMEWIN_SetTitleHeight.c -D        #
#                    DEBUG=1 -D SDRAM_TARGET=1 -D USB_IS_HIGH_SPEED -D        #
#                    NOPROFILER -D OS_TRACE=0 -D OS_VIEW_ENABLE=0 -lCN        #
#                    C:\DUII\TargetHW\Release\List\ -o                        #
#                    C:\DUII\TargetHW\Release\Obj\ --endian=little            #
#                    --cpu=ARM926EJ-S -e --fpu=None --dlib_config             #
#                    "C:\Program Files (x86)\IAR Systems\Embedded Workbench   #
#                    6.0\arm\INC\c\DLib_Config_Normal.h" -I                   #
#                    C:\DUII\TargetHW\Application\SEGGERDEMO\ -I              #
#                    C:\DUII\TargetHW\Application\SEGGERDEMO\Src\ -I          #
#                    C:\DUII\TargetHW\Config\ -I C:\DUII\TargetHW\FS\ -I      #
#                    C:\DUII\TargetHW\GUI\ -I C:\DUII\TargetHW\Inc\ -I        #
#                    C:\DUII\TargetHW\OS\ -I C:\DUII\TargetHW\Setup\ -I       #
#                    \DUII\DUII\ -I \DUII\DUII\Graphics\ --cpu_mode arm -Ohs  #
#                    --use_c++_inline --require_prototypes                    #
#    List file    =  C:\DUII\TargetHW\Release\List\FRAMEWIN_SetTitleHeight.ls #
#                    t                                                        #
#    Object file  =  C:\DUII\TargetHW\Release\Obj\FRAMEWIN_SetTitleHeight.o   #
#                                                                             #
#                                                                             #
###############################################################################

C:\DUII\TargetHW\GUI\FRAMEWIN_SetTitleHeight.c
      1          /*********************************************************************
      2          *                SEGGER Microcontroller GmbH & Co. KG                *
      3          *        Solutions for real time microcontroller applications        *
      4          **********************************************************************
      5          *                                                                    *
      6          *        (c) 1996 - 2010  SEGGER Microcontroller GmbH & Co. KG       *
      7          *                                                                    *
      8          *        Internet: www.segger.com    Support:  support@segger.com    *
      9          *                                                                    *
     10          **********************************************************************
     11          
     12          ** emWin V5.06 - Graphical user interface for embedded applications **
     13          emWin is protected by international copyright laws.   Knowledge of the
     14          source code may not be used to write a similar product.  This file may
     15          only be used in accordance with a license and should not be re-
     16          distributed in any way. We appreciate your understanding and fairness.
     17          ----------------------------------------------------------------------
     18          File        : FRAMEWIN_SetTitleHeight.c
     19          Purpose     : 
     20          ---------------------------END-OF-HEADER------------------------------
     21          */
     22          
     23          #include <stdlib.h>
     24          #include <string.h>
     25          #include "FRAMEWIN_Private.h"
     26          
     27          #if GUI_WINSUPPORT
     28          
     29          
     30          /*********************************************************************
     31          *
     32          *        Exported routines
     33          *
     34          **********************************************************************
     35          */
     36          /*********************************************************************
     37          *
     38          *       FRAMEWIN_SetTitleHeight
     39          */

   \                                 In section .text, align 4, keep-with-next
     40          int FRAMEWIN_SetTitleHeight(FRAMEWIN_Handle hObj, int Height) {
   \                     FRAMEWIN_SetTitleHeight:
   \   00000000   F0432DE9           PUSH     {R4-R9,LR}
   \   00000004   0040A0E1           MOV      R4,R0
   \   00000008   04D04DE2           SUB      SP,SP,#+4
   \   0000000C   0170A0E1           MOV      R7,R1
     41            FRAMEWIN_Obj * pObj;
     42            FRAMEWIN_SKIN_PRIVATE * pSkinPrivate;
     43            int OldHeight, OldBorderSizeL, OldBorderSizeR, OldBorderSizeT;
     44            int r = 0;
   \   00000010   0050A0E3           MOV      R5,#+0
     45          
     46            if (hObj) {
   \   00000014   000054E3           CMP      R4,#+0
   \   00000018   2600000A           BEQ      ??FRAMEWIN_SetTitleHeight_0
     47              WM_LOCK();
   \   0000001C   ........           BL       GUI_Lock
     48              pObj = FRAMEWIN_LOCK_H(hObj);
   \   00000020   0400A0E1           MOV      R0,R4
   \   00000024   ........           BL       GUI_ALLOC_LockH
   \   00000028   0080A0E1           MOV      R8,R0
     49              r = pObj->Props.TitleHeight;
   \   0000002C   F455D8E1           LDRSH    R5,[R8, #+84]
     50              if (Height != r) {
   \   00000030   050057E1           CMP      R7,R5
   \   00000034   1D00000A           BEQ      ??FRAMEWIN_SetTitleHeight_1
     51                OldHeight = FRAMEWIN__CalcTitleHeight(pObj);
   \   00000038   ........           BL       FRAMEWIN__CalcTitleHeight
   \   0000003C   0060A0E1           MOV      R6,R0
     52                pObj->Props.TitleHeight = Height;
   \   00000040   B475C8E1           STRH     R7,[R8, #+84]
     53                pSkinPrivate = (FRAMEWIN_SKIN_PRIVATE *)pObj->pWidgetSkin->pSkinPrivate;
   \   00000044   5C0098E5           LDR      R0,[R8, #+92]
     54                //
     55                // Get old border size
     56                //
     57                OldBorderSizeL = pSkinPrivate->pfGetBordersize(hObj, FRAMEWIN_GET_BORDERSIZE_L);
   \   00000048   0110A0E3           MOV      R1,#+1
   \   0000004C   088090E5           LDR      R8,[R0, #+8]
   \   00000050   0400A0E1           MOV      R0,R4
   \   00000054   002098E5           LDR      R2,[R8, #+0]
   \   00000058   32FF2FE1           BLX      R2
   \   0000005C   0070A0E1           MOV      R7,R0
     58                OldBorderSizeR = pSkinPrivate->pfGetBordersize(hObj, FRAMEWIN_GET_BORDERSIZE_R);
   \   00000060   0310A0E3           MOV      R1,#+3
   \   00000064   0400A0E1           MOV      R0,R4
   \   00000068   002098E5           LDR      R2,[R8, #+0]
   \   0000006C   32FF2FE1           BLX      R2
   \   00000070   0090A0E1           MOV      R9,R0
     59                OldBorderSizeT = pSkinPrivate->pfGetBordersize(hObj, FRAMEWIN_GET_BORDERSIZE_T);
   \   00000074   0010A0E3           MOV      R1,#+0
   \   00000078   0400A0E1           MOV      R0,R4
   \   0000007C   002098E5           LDR      R2,[R8, #+0]
   \   00000080   32FF2FE1           BLX      R2
   \   00000084   0080A0E1           MOV      R8,R0
     60                //
     61                // Update positions
     62                //
     63                FRAMEWIN__UpdatePositions(hObj);
   \   00000088   0400A0E1           MOV      R0,R4
   \   0000008C   ........           BL       FRAMEWIN__UpdatePositions
     64                FRAMEWIN__UpdateButtons(hObj, OldHeight, OldBorderSizeL, OldBorderSizeR, OldBorderSizeT);
   \   00000090   00808DE5           STR      R8,[SP, #+0]
   \   00000094   0930A0E1           MOV      R3,R9
   \   00000098   0720A0E1           MOV      R2,R7
   \   0000009C   0610A0E1           MOV      R1,R6
   \   000000A0   0400A0E1           MOV      R0,R4
   \   000000A4   ........           BL       FRAMEWIN__UpdateButtons
     65                FRAMEWIN_Invalidate(hObj);
   \   000000A8   0400A0E1           MOV      R0,R4
   \   000000AC   ........           BL       WM_InvalidateWindow
     66              }
     67              GUI_UNLOCK_H(pObj);
   \                     ??FRAMEWIN_SetTitleHeight_1:
   \   000000B0   ........           BL       GUI_ALLOC_UnlockH
     68              WM_UNLOCK();
   \   000000B4   ........           BL       GUI_Unlock
     69            }
     70            return r;
   \                     ??FRAMEWIN_SetTitleHeight_0:
   \   000000B8   0500A0E1           MOV      R0,R5
   \   000000BC   04D08DE2           ADD      SP,SP,#+4
   \   000000C0   F083BDE8           POP      {R4-R9,PC}       ;; return
     71          }
     72          
     73          
     74          #else
     75            void FRAMEWIN_SetTitleHeight_c(void) {} /* avoid empty object files */
     76          #endif /* GUI_WINSUPPORT */

   Maximum stack usage in bytes:

     Function                .cstack
     --------                -------
     FRAMEWIN_SetTitleHeight     32


   Section sizes:

     Function/Label          Bytes
     --------------          -----
     FRAMEWIN_SetTitleHeight  196

 
 196 bytes in section .text
 
 196 bytes of CODE memory

Errors: none
Warnings: none
