###############################################################################
#                                                                             #
# IAR ANSI C/C++ Compiler V6.10.2.52244/W32 for ARM     19/Nov/2015  13:14:59 #
# Copyright 1999-2010 IAR Systems AB.                                         #
#                                                                             #
#    Cpu mode     =  arm                                                      #
#    Endian       =  little                                                   #
#    Source file  =  C:\DUII\TargetHW\FS\FS_memcpy.c                          #
#    Command line =  C:\DUII\TargetHW\FS\FS_memcpy.c -D DEBUG=1 -D            #
#                    SDRAM_TARGET=1 -D USB_IS_HIGH_SPEED -D NOPROFILER -D     #
#                    OS_TRACE=0 -D OS_VIEW_ENABLE=0 -lCN                      #
#                    C:\DUII\TargetHW\Release\List\ -o                        #
#                    C:\DUII\TargetHW\Release\Obj\ --endian=little            #
#                    --cpu=ARM926EJ-S -e --fpu=None --dlib_config             #
#                    "C:\Program Files (x86)\IAR Systems\Embedded Workbench   #
#                    6.0\arm\INC\c\DLib_Config_Normal.h" -I                   #
#                    C:\DUII\TargetHW\Application\SEGGERDEMO\ -I              #
#                    C:\DUII\TargetHW\Application\SEGGERDEMO\Src\ -I          #
#                    C:\DUII\TargetHW\Config\ -I C:\DUII\TargetHW\FS\ -I      #
#                    C:\DUII\TargetHW\GUI\ -I C:\DUII\TargetHW\Inc\ -I        #
#                    C:\DUII\TargetHW\OS\ -I C:\DUII\TargetHW\Setup\ -I       #
#                    \DUII\DUII\ -I \DUII\DUII\Graphics\ --cpu_mode arm -Ohs  #
#                    --use_c++_inline --require_prototypes                    #
#    List file    =  C:\DUII\TargetHW\Release\List\FS_memcpy.lst              #
#    Object file  =  C:\DUII\TargetHW\Release\Obj\FS_memcpy.o                 #
#                                                                             #
#                                                                             #
###############################################################################

C:\DUII\TargetHW\FS\FS_memcpy.c
      1          /*********************************************************************
      2          *                SEGGER MICROCONTROLLER GmbH & Co. KG                *
      3          *        Solutions for real time microcontroller applications        *
      4          **********************************************************************
      5          *                                                                    *
      6          *        (c) 2003-2010     SEGGER Microcontroller GmbH & Co KG       *
      7          *                                                                    *
      8          *        Internet: www.segger.com    Support:  support@segger.com    *
      9          *                                                                    *
     10          **********************************************************************
     11          
     12          **** emFile file system for embedded applications ****
     13          emFile is protected by international copyright laws. Knowledge of the
     14          source code may not be used to write a similar product. This file may
     15          only be used in accordance with a license and should not be re-
     16          distributed in any way. We appreciate your understanding and fairness.
     17          ----------------------------------------------------------------------
     18          File        : FS_memcpy.c
     19          Purpose     : Implementation of said function
     20          ---------------------------END-OF-HEADER------------------------------
     21          */
     22          
     23          #include <string.h>
     24          #include "FS_Int.h"
     25          
     26          /*********************************************************************
     27          *
     28          *       public code
     29          *
     30          **********************************************************************
     31          */
     32          /*********************************************************************
     33          *
     34          *       FS_memcpy
     35          *
     36          * Purpose:
     37          *  Replacement for the memset function. The advantage is high speed
     38          *  on all systems (sometime up to 10 times as fast as the one
     39          *  in the library)
     40          *  Main idea is to write int-wise.
     41          */

   \                                 In section .text, align 4, keep-with-next
     42          void FS_memcpy(void * pDest, const void * pSrc, int NumBytes) {
     43            char * pd;
     44            const char * ps;
     45            pd = (char*)pDest;
     46            ps = (const char*)pSrc;
     47            //
     48            // Check if size of integer is 4 bytes
     49            // so that we can copy 32 bitwise.
     50            //
     51            if (sizeof(int) == 4) {
     52              //
     53              // Copy words if possible
     54              //
     55              if ((((U32)ps & 3) == 0) && (((U32)pd & 3) == 0)) {
   \                     FS_memcpy:
   \   00000000   030011E3           TST      R1,#0x3
   \   00000004   03001003           TSTEQ    R0,#0x3
   \   00000008   1400001A           BNE      ??FS_memcpy_0
   \   0000000C   4231A0E1           ASR      R3,R2,#+2
   \   00000010   040053E3           CMP      R3,#+4
   \   00000014   0A00003A           BCC      ??FS_memcpy_1
     56                unsigned NumWords = NumBytes >> 2;
     57                while (NumWords >= 4) {
     58                  *(U32 *)pd = *(const U32 *)ps;
   \                     ??FS_memcpy_2:
   \   00000018   04C091E4           LDR      R12,[R1], #+4
     59                  pd += 4;
     60                  ps += 4;
     61                  *(U32 *)pd = *(const U32*)ps;
     62                  pd += 4;
     63                  ps += 4;
     64                  *(U32 *)pd = *(const U32 *)ps;
     65                  pd += 4;
     66                  ps += 4;
     67                  *(U32 *)pd = *(const U32 *)ps;
     68                  pd += 4;
     69                  ps += 4;
     70                  NumWords -= 4;
   \   0000001C   043043E2           SUB      R3,R3,#+4
   \   00000020   04C080E4           STR      R12,[R0], #+4
   \   00000024   04C091E4           LDR      R12,[R1], #+4
     71                }
   \   00000028   040053E3           CMP      R3,#+4
   \   0000002C   04C080E4           STR      R12,[R0], #+4
   \   00000030   04C091E4           LDR      R12,[R1], #+4
   \   00000034   04C080E4           STR      R12,[R0], #+4
   \   00000038   04C091E4           LDR      R12,[R1], #+4
   \   0000003C   04C080E4           STR      R12,[R0], #+4
   \   00000040   F4FFFF2A           BCS      ??FS_memcpy_2
     72                if (NumWords) {
   \                     ??FS_memcpy_1:
   \   00000044   000053E3           CMP      R3,#+0
   \   00000048   0300000A           BEQ      ??FS_memcpy_3
     73                  do {
     74                    *(U32 *)pd = *(const U32 *)ps;
   \                     ??FS_memcpy_4:
   \   0000004C   04C091E4           LDR      R12,[R1], #+4
     75                    pd += 4;
     76                    ps += 4;
     77                  } while (--NumWords);
   \   00000050   013053E2           SUBS     R3,R3,#+1
   \   00000054   04C080E4           STR      R12,[R0], #+4
   \   00000058   FBFFFF1A           BNE      ??FS_memcpy_4
     78                }
     79                NumBytes &= 3;
   \                     ??FS_memcpy_3:
   \   0000005C   032002E2           AND      R2,R2,#0x3
     80              }
     81            }
     82            //
     83            // Copy halfwords if possible
     84            //
     85            if ((((U32)ps & 1) == 0) && (((U32)pd & 1) == 0)) {
   \                     ??FS_memcpy_0:
   \   00000060   013001E2           AND      R3,R1,#0x1
   \   00000064   01C000E2           AND      R12,R0,#0x1
   \   00000068   03309CE1           ORRS     R3,R12,R3
   \   0000006C   1400001A           BNE      ??FS_memcpy_5
   \   00000070   C230A0E1           ASR      R3,R2,#+1
   \   00000074   040053E3           CMP      R3,#+4
   \   00000078   0A00003A           BCC      ??FS_memcpy_6
     86              unsigned NumHWords = NumBytes >> 1;
     87              while (NumHWords >= 4) {
     88                *(short *)pd = *(const short *)ps;
   \                     ??FS_memcpy_7:
   \   0000007C   F2C0D1E0           LDRSH    R12,[R1], #+2
     89                pd += 2;
     90                ps += 2;
     91                *(short *)pd = *(const short *)ps;
     92                pd += 2;
     93                ps += 2;
     94                *(short *)pd = *(const short *)ps;
     95                pd += 2;
     96                ps += 2;
     97                *(short *)pd = *(const short *)ps;
     98                pd += 2;
     99                ps += 2;
    100                NumHWords -= 4;
   \   00000080   043043E2           SUB      R3,R3,#+4
    101              }
   \   00000084   040053E3           CMP      R3,#+4
   \   00000088   B2C0C0E0           STRH     R12,[R0], #+2
   \   0000008C   F2C0D1E0           LDRSH    R12,[R1], #+2
   \   00000090   B2C0C0E0           STRH     R12,[R0], #+2
   \   00000094   F2C0D1E0           LDRSH    R12,[R1], #+2
   \   00000098   B2C0C0E0           STRH     R12,[R0], #+2
   \   0000009C   F2C0D1E0           LDRSH    R12,[R1], #+2
   \   000000A0   B2C0C0E0           STRH     R12,[R0], #+2
   \   000000A4   F4FFFF2A           BCS      ??FS_memcpy_7
    102              if (NumHWords) {
   \                     ??FS_memcpy_6:
   \   000000A8   000053E3           CMP      R3,#+0
   \   000000AC   0300000A           BEQ      ??FS_memcpy_8
    103                do {
    104                  *(short *)pd = *(const short *)ps;
   \                     ??FS_memcpy_9:
   \   000000B0   F2C0D1E0           LDRSH    R12,[R1], #+2
    105                  pd += 2;
    106                  ps += 2;
    107                } while (--NumHWords);
   \   000000B4   013053E2           SUBS     R3,R3,#+1
   \   000000B8   B2C0C0E0           STRH     R12,[R0], #+2
   \   000000BC   FBFFFF1A           BNE      ??FS_memcpy_9
    108              }
    109              NumBytes &= 1;
   \                     ??FS_memcpy_8:
   \   000000C0   012002E2           AND      R2,R2,#0x1
    110            }
    111            //
    112            // Copy bytes, bulk
    113            //
    114            while (NumBytes >= 4) {
   \                     ??FS_memcpy_5:
   \   000000C4   040052E3           CMP      R2,#+4
   \   000000C8   0A0000BA           BLT      ??FS_memcpy_10
    115              *(char *)pd++ = *(const char *)ps++;
   \                     ??FS_memcpy_11:
   \   000000CC   0130D1E4           LDRB     R3,[R1], #+1
    116              *(char *)pd++ = *(const char *)ps++;
    117              *(char *)pd++ = *(const char *)ps++;
    118              *(char *)pd++ = *(const char *)ps++;
    119              NumBytes -= 4;
   \   000000D0   042042E2           SUB      R2,R2,#+4
   \   000000D4   040052E3           CMP      R2,#+4
   \   000000D8   0130C0E4           STRB     R3,[R0], #+1
   \   000000DC   0130D1E4           LDRB     R3,[R1], #+1
   \   000000E0   0130C0E4           STRB     R3,[R0], #+1
   \   000000E4   0130D1E4           LDRB     R3,[R1], #+1
   \   000000E8   0130C0E4           STRB     R3,[R0], #+1
   \   000000EC   0130D1E4           LDRB     R3,[R1], #+1
   \   000000F0   0130C0E4           STRB     R3,[R0], #+1
   \   000000F4   F4FFFFAA           BGE      ??FS_memcpy_11
    120            };
    121            //
    122            // Copy bytes, one at a time
    123            //
    124            if (NumBytes) {
   \                     ??FS_memcpy_10:
   \   000000F8   000052E3           CMP      R2,#+0
   \   000000FC   0300000A           BEQ      ??FS_memcpy_12
    125              do {
    126                *(char*)pd++ = *(const char*)ps++;
   \                     ??FS_memcpy_13:
   \   00000100   0130D1E4           LDRB     R3,[R1], #+1
    127              } while (--NumBytes);
   \   00000104   012052E2           SUBS     R2,R2,#+1
   \   00000108   0130C0E4           STRB     R3,[R0], #+1
   \   0000010C   FBFFFF1A           BNE      ??FS_memcpy_13
    128            };
    129          }
   \                     ??FS_memcpy_12:
   \   00000110   1EFF2FE1           BX       LR               ;; return
    130          
    131          /*************************** End of file ****************************/

   Maximum stack usage in bytes:

     Function  .cstack
     --------  -------
     FS_memcpy      0


   Section sizes:

     Function/Label Bytes
     -------------- -----
     FS_memcpy       276

 
 276 bytes in section .text
 
 276 bytes of CODE memory

Errors: none
Warnings: none
