###############################################################################
#                                                                             #
# IAR ANSI C/C++ Compiler V6.10.2.52244/W32 for ARM     19/Nov/2015  13:11:58 #
# Copyright 1999-2010 IAR Systems AB.                                         #
#                                                                             #
#    Cpu mode     =  arm                                                      #
#    Endian       =  little                                                   #
#    Source file  =  C:\DUII\TargetHW\GUI\GUI_SIF_PropExt.c                   #
#    Command line =  C:\DUII\TargetHW\GUI\GUI_SIF_PropExt.c -D DEBUG=1 -D     #
#                    SDRAM_TARGET=1 -D USB_IS_HIGH_SPEED -D NOPROFILER -D     #
#                    OS_TRACE=0 -D OS_VIEW_ENABLE=0 -lCN                      #
#                    C:\DUII\TargetHW\Release\List\ -o                        #
#                    C:\DUII\TargetHW\Release\Obj\ --endian=little            #
#                    --cpu=ARM926EJ-S -e --fpu=None --dlib_config             #
#                    "C:\Program Files (x86)\IAR Systems\Embedded Workbench   #
#                    6.0\arm\INC\c\DLib_Config_Normal.h" -I                   #
#                    C:\DUII\TargetHW\Application\SEGGERDEMO\ -I              #
#                    C:\DUII\TargetHW\Application\SEGGERDEMO\Src\ -I          #
#                    C:\DUII\TargetHW\Config\ -I C:\DUII\TargetHW\FS\ -I      #
#                    C:\DUII\TargetHW\GUI\ -I C:\DUII\TargetHW\Inc\ -I        #
#                    C:\DUII\TargetHW\OS\ -I C:\DUII\TargetHW\Setup\ -I       #
#                    \DUII\DUII\ -I \DUII\DUII\Graphics\ --cpu_mode arm -Ohs  #
#                    --use_c++_inline --require_prototypes                    #
#    List file    =  C:\DUII\TargetHW\Release\List\GUI_SIF_PropExt.lst        #
#    Object file  =  C:\DUII\TargetHW\Release\Obj\GUI_SIF_PropExt.o           #
#                                                                             #
#                                                                             #
###############################################################################

C:\DUII\TargetHW\GUI\GUI_SIF_PropExt.c
      1          /*********************************************************************
      2          *                SEGGER Microcontroller GmbH & Co. KG                *
      3          *        Solutions for real time microcontroller applications        *
      4          **********************************************************************
      5          *                                                                    *
      6          *        (c) 1996 - 2010  SEGGER Microcontroller GmbH & Co. KG       *
      7          *                                                                    *
      8          *        Internet: www.segger.com    Support:  support@segger.com    *
      9          *                                                                    *
     10          **********************************************************************
     11          
     12          ** emWin V5.06 - Graphical user interface for embedded applications **
     13          emWin is protected by international copyright laws.   Knowledge of the
     14          source code may not be used to write a similar product.  This file may
     15          only be used in accordance with a license and should not be re-
     16          distributed in any way. We appreciate your understanding and fairness.
     17          ----------------------------------------------------------------------
     18          File        : GUI_SIF_PropExt.c
     19          Purpose     : Implementation of system independend fonts
     20          ---------------------------END-OF-HEADER------------------------------
     21          */
     22          
     23          #include <stddef.h>
     24          
     25          #include "GUI_Private.h"
     26          
     27          /*********************************************************************
     28          *
     29          *       Static code
     30          *
     31          **********************************************************************
     32          */
     33          /*********************************************************************
     34          *
     35          *       _DispChar
     36          */

   \                                 In section .text, align 4, keep-with-next
     37          static void _DispChar(U16P c) {
   \                     _DispChar:
   \   00000000   F04F2DE9           PUSH     {R4-R11,LR}
     38            U8 BytesPerLine;
     39            const U8 * pCharInfo, * pData;
     40            pCharInfo = GUI_SIF__GetpCharInfo(GUI_Context.pAFont, c, sizeof(GUI_SIF_CHARINFO_EXT));
   \   00000004   ........           LDR      R4,??DataTable3
   \   00000008   0010A0E1           MOV      R1,R0
   \   0000000C   24D04DE2           SUB      SP,SP,#+36
   \   00000010   1020A0E3           MOV      R2,#+16
   \   00000014   1C0094E5           LDR      R0,[R4, #+28]
   \   00000018   ........           BL       GUI_SIF__GetpCharInfo
   \   0000001C   18008DE5           STR      R0,[SP, #+24]
     41            if (pCharInfo) {
   \   00000020   000050E3           CMP      R0,#+0
   \   00000024   3B00000A           BEQ      ??_DispChar_0
     42              GUI_DRAWMODE DrawMode, OldDrawMode;
     43              GUI_SIF_CHARINFO_EXT CharInfo;
     44              CharInfo.XSize        = GUI__Read16(&pCharInfo);
   \   00000028   18008DE2           ADD      R0,SP,#+24
   \   0000002C   ........           BL       GUI__Read16
   \   00000030   0050A0E1           MOV      R5,R0
     45              CharInfo.YSize        = GUI__Read16(&pCharInfo);
   \   00000034   18008DE2           ADD      R0,SP,#+24
   \   00000038   ........           BL       GUI__Read16
   \   0000003C   0060A0E1           MOV      R6,R0
     46              CharInfo.XOff         = GUI__Read16(&pCharInfo);
   \   00000040   18008DE2           ADD      R0,SP,#+24
   \   00000044   ........           BL       GUI__Read16
   \   00000048   0070A0E1           MOV      R7,R0
     47              CharInfo.YOff         = GUI__Read16(&pCharInfo);
   \   0000004C   18008DE2           ADD      R0,SP,#+24
   \   00000050   ........           BL       GUI__Read16
   \   00000054   0080A0E1           MOV      R8,R0
     48              CharInfo.XDist        = GUI__Read16(&pCharInfo);
   \   00000058   18008DE2           ADD      R0,SP,#+24
   \   0000005C   ........           BL       GUI__Read16
   \   00000060   0090A0E1           MOV      R9,R0
     49              BytesPerLine          = (CharInfo.XSize + 7) >> 3;
   \   00000064   070085E2           ADD      R0,R5,#+7
   \   00000068   C0A1A0E1           ASR      R10,R0,#+3
     50                                      GUI__Read16(&pCharInfo);
   \   0000006C   18008DE2           ADD      R0,SP,#+24
   \   00000070   ........           BL       GUI__Read16
     51              CharInfo.OffData      = GUI__Read32(&pCharInfo);
   \   00000074   18008DE2           ADD      R0,SP,#+24
   \   00000078   ........           BL       GUI__Read32
     52              pData = (const U8 *)GUI_Context.pAFont->p.pFontData + CharInfo.OffData;
   \   0000007C   1C2094E5           LDR      R2,[R4, #+28]
     53              DrawMode = GUI_Context.TextMode;
     54              if (GUI__CharHasTrans) {
   \   00000080   ........           LDR      R1,??DataTable3_1
   \   00000084   1C2092E5           LDR      R2,[R2, #+28]
   \   00000088   0010D1E5           LDRB     R1,[R1, #+0]
   \   0000008C   020080E0           ADD      R0,R0,R2
   \   00000090   1C008DE5           STR      R0,[SP, #+28]
   \   00000094   FA02D4E1           LDRSH    R0,[R4, #+42]
   \   00000098   000051E3           CMP      R1,#+0
     55                DrawMode |= GUI_DM_TRANS;
   \   0000009C   02008013           ORRNE    R0,R0,#0x2
     56              }
     57              OldDrawMode  = LCD_SetDrawMode(DrawMode);
   \   000000A0   ........           BL       LCD_SetDrawMode
     58              LCD_DrawBitmap(GUI_Context.DispPosX + CharInfo.XOff, GUI_Context.DispPosY + CharInfo.YOff,
     59                             CharInfo.XSize,
     60          									 CharInfo.YSize,
     61                             GUI_Context.pAFont->XMag,
     62          									 GUI_Context.pAFont->YMag,
     63                             1,
     64                             BytesPerLine,
     65                             pData,
     66                             LCD_pBkColorIndex);
   \   000000A4   ........           LDR      R1,??DataTable3_2
   \   000000A8   00B0A0E1           MOV      R11,R0
   \   000000AC   001091E5           LDR      R1,[R1, #+0]
   \   000000B0   1C0094E5           LDR      R0,[R4, #+28]
   \   000000B4   14108DE5           STR      R1,[SP, #+20]
   \   000000B8   1C109DE5           LDR      R1,[SP, #+28]
   \   000000BC   FFA00AE2           AND      R10,R10,#0xFF
   \   000000C0   10108DE5           STR      R1,[SP, #+16]
   \   000000C4   0110A0E3           MOV      R1,#+1
   \   000000C8   0CA08DE5           STR      R10,[SP, #+12]
   \   000000CC   08108DE5           STR      R1,[SP, #+8]
   \   000000D0   1B10D0E5           LDRB     R1,[R0, #+27]
   \   000000D4   0888A0E1           LSL      R8,R8,#+16
   \   000000D8   0778A0E1           LSL      R7,R7,#+16
   \   000000DC   04108DE5           STR      R1,[SP, #+4]
   \   000000E0   1A00D0E5           LDRB     R0,[R0, #+26]
   \   000000E4   0630A0E1           MOV      R3,R6
   \   000000E8   0520A0E1           MOV      R2,R5
   \   000000EC   00008DE5           STR      R0,[SP, #+0]
   \   000000F0   F402D4E1           LDRSH    R0,[R4, #+36]
   \   000000F4   481880E0           ADD      R1,R0,R8, ASR #+16
   \   000000F8   F202D4E1           LDRSH    R0,[R4, #+34]
   \   000000FC   470880E0           ADD      R0,R0,R7, ASR #+16
   \   00000100   ........           BL       LCD_DrawBitmap
     67              LCD_SetDrawMode(OldDrawMode);                         /* Restore draw mode */
   \   00000104   0B00A0E1           MOV      R0,R11
   \   00000108   ........           BL       LCD_SetDrawMode
     68              GUI_Context.DispPosX += CharInfo.XDist;
   \   0000010C   F202D4E1           LDRSH    R0,[R4, #+34]
   \   00000110   000089E0           ADD      R0,R9,R0
   \   00000114   B202C4E1           STRH     R0,[R4, #+34]
     69            }
     70          }
   \                     ??_DispChar_0:
   \   00000118   24D08DE2           ADD      SP,SP,#+36       ;; stack cleaning
   \   0000011C   F08FBDE8           POP      {R4-R11,PC}      ;; return
     71          
     72          /*********************************************************************
     73          *
     74          *       _DispLine
     75          */

   \                                 In section .text, align 4, keep-with-next
     76          static void _DispLine(const char GUI_UNI_PTR * s, int Len) {
   \                     _DispLine:
   \   00000000   30402DE9           PUSH     {R4,R5,LR}
   \   00000004   0040A0E1           MOV      R4,R0
   \   00000008   04D04DE2           SUB      SP,SP,#+4
   \   0000000C   0150A0E1           MOV      R5,R1
     77            GUIPROP_EXT__SetfpClearLine(GUI_SIF__ClearLine_ExtFrm);
   \   00000010   ........           LDR      R0,??DataTable3_3
   \   00000014   ........           BL       GUIPROP_EXT__SetfpClearLine
     78            GUI_ENC_APIList_EXT.pfDispLine(s, Len);
   \   00000018   ........           LDR      R2,??DataTable3_4
   \   0000001C   0510A0E1           MOV      R1,R5
   \   00000020   0400A0E1           MOV      R0,R4
   \   00000024   082092E5           LDR      R2,[R2, #+8]
   \   00000028   32FF2FE1           BLX      R2
     79            GUIPROP_EXT__SetfpClearLine(GUIPROP_EXT__ClearLine);
   \   0000002C   04D08DE2           ADD      SP,SP,#+4
   \   00000030   3040BDE8           POP      {R4,R5,LR}
   \   00000034   ........           LDR      R0,??DataTable3_5
   \   00000038   ........           B        GUIPROP_EXT__SetfpClearLine  ;; tailcall
     80          }
     81          
     82          /*********************************************************************
     83          *
     84          *       _APIList
     85          */

   \                                 In section .rodata, align 4, keep-with-next
     86          static const tGUI_ENC_APIList _APIList = {
   \                     _APIList:
   \   00000000                      ; Initializer data, 12 bytes
   \   00000000   000000000000       DC32 0, 0, _DispLine
   \              0000........
     87            NULL,
     88            NULL,
     89            _DispLine
     90          };
     91          
     92          /*********************************************************************
     93          *
     94          *       Exported data
     95          *
     96          **********************************************************************
     97          */
     98          /*********************************************************************
     99          *
    100          *       GUI_SIF_TYPE_PROP_EXT
    101          */

   \                                 In section .rodata, align 4, keep-with-next
    102          const tGUI_SIF_APIList GUI_SIF_APIList_Prop_Ext = {
   \                     GUI_SIF_APIList_Prop_Ext:
   \   00000000                      ; Initializer data, 24 bytes
   \   00000000   ............       DC32 _DispChar, GUI_SIF__GetCharDistX_ExtFrm, GUI_SIF__GetFontInfo_ExtFrm, GUI_SIF__IsInFont_ExtFrm, GUI_SIF__GetCharInfo_ExtFrm, _APIList
   \              ............
   \              ............
   \              ............

   \                                 In section .text, align 4, keep-with-next
   \                     ??DataTable3:
   \   00000000   ........           DC32     GUI_Context

   \                                 In section .text, align 4, keep-with-next
   \                     ??DataTable3_1:
   \   00000000   ........           DC32     GUI__CharHasTrans

   \                                 In section .text, align 4, keep-with-next
   \                     ??DataTable3_2:
   \   00000000   ........           DC32     LCD_pBkColorIndex

   \                                 In section .text, align 4, keep-with-next
   \                     ??DataTable3_3:
   \   00000000   ........           DC32     GUI_SIF__ClearLine_ExtFrm

   \                                 In section .text, align 4, keep-with-next
   \                     ??DataTable3_4:
   \   00000000   ........           DC32     GUI_ENC_APIList_EXT

   \                                 In section .text, align 4, keep-with-next
   \                     ??DataTable3_5:
   \   00000000   ........           DC32     GUIPROP_EXT__ClearLine
    103            _DispChar,
    104            GUI_SIF__GetCharDistX_ExtFrm,
    105            GUI_SIF__GetFontInfo_ExtFrm,
    106            GUI_SIF__IsInFont_ExtFrm,
    107            GUI_SIF__GetCharInfo_ExtFrm,
    108            &_APIList
    109          };
    110          
    111          /*************************** End of file ****************************/

   Maximum stack usage in bytes:

     Function  .cstack
     --------  -------
     _DispChar     72
     _DispLine     16


   Section sizes:

     Function/Label           Bytes
     --------------           -----
     _DispChar                 288
     _DispLine                  60
     _APIList                   12
     GUI_SIF_APIList_Prop_Ext   24
     ??DataTable3                4
     ??DataTable3_1              4
     ??DataTable3_2              4
     ??DataTable3_3              4
     ??DataTable3_4              4
     ??DataTable3_5              4

 
  36 bytes in section .rodata
 372 bytes in section .text
 
 372 bytes of CODE  memory
  36 bytes of CONST memory

Errors: none
Warnings: none
