###############################################################################
#                                                                             #
# IAR ANSI C/C++ Compiler V6.10.2.52244/W32 for ARM     19/Nov/2015  13:15:46 #
# Copyright 1999-2010 IAR Systems AB.                                         #
#                                                                             #
#    Cpu mode     =  arm                                                      #
#    Endian       =  little                                                   #
#    Source file  =  C:\DUII\TargetHW\GUI\GUI_SetDefault.c                    #
#    Command line =  C:\DUII\TargetHW\GUI\GUI_SetDefault.c -D DEBUG=1 -D      #
#                    SDRAM_TARGET=1 -D USB_IS_HIGH_SPEED -D NOPROFILER -D     #
#                    OS_TRACE=0 -D OS_VIEW_ENABLE=0 -lCN                      #
#                    C:\DUII\TargetHW\Release\List\ -o                        #
#                    C:\DUII\TargetHW\Release\Obj\ --endian=little            #
#                    --cpu=ARM926EJ-S -e --fpu=None --dlib_config             #
#                    "C:\Program Files (x86)\IAR Systems\Embedded Workbench   #
#                    6.0\arm\INC\c\DLib_Config_Normal.h" -I                   #
#                    C:\DUII\TargetHW\Application\SEGGERDEMO\ -I              #
#                    C:\DUII\TargetHW\Application\SEGGERDEMO\Src\ -I          #
#                    C:\DUII\TargetHW\Config\ -I C:\DUII\TargetHW\FS\ -I      #
#                    C:\DUII\TargetHW\GUI\ -I C:\DUII\TargetHW\Inc\ -I        #
#                    C:\DUII\TargetHW\OS\ -I C:\DUII\TargetHW\Setup\ -I       #
#                    \DUII\DUII\ -I \DUII\DUII\Graphics\ --cpu_mode arm -Ohs  #
#                    --use_c++_inline --require_prototypes                    #
#    List file    =  C:\DUII\TargetHW\Release\List\GUI_SetDefault.lst         #
#    Object file  =  C:\DUII\TargetHW\Release\Obj\GUI_SetDefault.o            #
#                                                                             #
#                                                                             #
###############################################################################

C:\DUII\TargetHW\GUI\GUI_SetDefault.c
      1          /*********************************************************************
      2          *                SEGGER Microcontroller GmbH & Co. KG                *
      3          *        Solutions for real time microcontroller applications        *
      4          **********************************************************************
      5          *                                                                    *
      6          *        (c) 1996 - 2010  SEGGER Microcontroller GmbH & Co. KG       *
      7          *                                                                    *
      8          *        Internet: www.segger.com    Support:  support@segger.com    *
      9          *                                                                    *
     10          **********************************************************************
     11          
     12          ** emWin V5.06 - Graphical user interface for embedded applications **
     13          emWin is protected by international copyright laws.   Knowledge of the
     14          source code may not be used to write a similar product.  This file may
     15          only be used in accordance with a license and should not be re-
     16          distributed in any way. We appreciate your understanding and fairness.
     17          ----------------------------------------------------------------------
     18          File        : GUI_SetDefault.c
     19          Purpose     : Implementation of GUI_SetDefault
     20          ---------------------------END-OF-HEADER------------------------------
     21          */
     22          
     23          #include "GUI_Private.h"
     24          
     25          /*********************************************************************
     26          *
     27          *       Public code
     28          *
     29          **********************************************************************
     30          */
     31          /*********************************************************************
     32          *
     33          *       GL_SetDefault
     34          */

   \                                 In section .text, align 4, keep-with-next
     35          void GL_SetDefault(void) {
   \                     GL_SetDefault:
   \   00000000   00402DE9           PUSH     {LR}
   \   00000004   04D04DE2           SUB      SP,SP,#+4
     36            GUI_SetBkColor(GUI_DEFAULT_BKCOLOR);
   \   00000008   0000A0E3           MOV      R0,#+0
   \   0000000C   ........           BL       GUI_SetBkColor
     37            GUI_SetColor  (GUI_DEFAULT_COLOR);
   \   00000010   FF04E0E3           MVN      R0,#-16777216
   \   00000014   ........           BL       GUI_SetColor
     38            GUI_SetPenSize(1);
   \   00000018   0100A0E3           MOV      R0,#+1
   \   0000001C   ........           BL       GUI_SetPenSize
     39            GUI_SetTextAlign(0);
   \   00000020   0000A0E3           MOV      R0,#+0
   \   00000024   ........           BL       GUI_SetTextAlign
     40            GUI_SetTextMode(0);
   \   00000028   0000A0E3           MOV      R0,#+0
   \   0000002C   ........           BL       GUI_SetTextMode
     41            GUI_SetDrawMode(0);
   \   00000030   0000A0E3           MOV      R0,#+0
   \   00000034   ........           BL       GUI_SetDrawMode
     42            GUI_SetFont(GUI__pFontDefault);
   \   00000038   ........           LDR      R0,??DataTable1
   \   0000003C   000090E5           LDR      R0,[R0, #+0]
   \   00000040   ........           BL       GUI_SetFont
     43            GUI_SetLineStyle(GUI_LS_SOLID);
   \   00000044   04D08DE2           ADD      SP,SP,#+4
   \   00000048   0040BDE8           POP      {LR}
   \   0000004C   0000A0E3           MOV      R0,#+0
   \   00000050   ........           B        GUI_SetLineStyle  ;; tailcall
     44          }
     45          
     46          /*********************************************************************
     47          *
     48          *       GUI_SetDefault
     49          */

   \                                 In section .text, align 4, keep-with-next
     50          void GUI_SetDefault(void) {
   \                     GUI_SetDefault:
   \   00000000   00402DE9           PUSH     {LR}
   \   00000004   04D04DE2           SUB      SP,SP,#+4
     51            GUI_LOCK();
   \   00000008   ........           BL       GUI_Lock
     52            GL_SetDefault();
   \   0000000C   0000A0E3           MOV      R0,#+0
   \   00000010   ........           BL       GUI_SetBkColor
   \   00000014   FF04E0E3           MVN      R0,#-16777216
   \   00000018   ........           BL       GUI_SetColor
   \   0000001C   0100A0E3           MOV      R0,#+1
   \   00000020   ........           BL       GUI_SetPenSize
   \   00000024   0000A0E3           MOV      R0,#+0
   \   00000028   ........           BL       GUI_SetTextAlign
   \   0000002C   0000A0E3           MOV      R0,#+0
   \   00000030   ........           BL       GUI_SetTextMode
   \   00000034   0000A0E3           MOV      R0,#+0
   \   00000038   ........           BL       GUI_SetDrawMode
   \   0000003C   ........           LDR      R0,??DataTable1
   \   00000040   000090E5           LDR      R0,[R0, #+0]
   \   00000044   ........           BL       GUI_SetFont
   \   00000048   0000A0E3           MOV      R0,#+0
   \   0000004C   ........           BL       GUI_SetLineStyle
     53            GUI_UNLOCK();
   \   00000050   04D08DE2           ADD      SP,SP,#+4
   \   00000054   0040BDE8           POP      {LR}
   \   00000058   ........           B        GUI_Unlock       ;; tailcall
     54          }

   \                                 In section .text, align 4, keep-with-next
   \                     ??DataTable1:
   \   00000000   ........           DC32     GUI__pFontDefault
     55          
     56          /*************************** End of file ****************************/

   Maximum stack usage in bytes:

     Function       .cstack
     --------       -------
     GL_SetDefault       8
     GUI_SetDefault      8


   Section sizes:

     Function/Label Bytes
     -------------- -----
     GL_SetDefault    84
     GUI_SetDefault   92
     ??DataTable1      4

 
 180 bytes in section .text
 
 180 bytes of CODE memory

Errors: none
Warnings: none
