###############################################################################
#                                                                             #
# IAR ANSI C/C++ Compiler V6.10.2.52244/W32 for ARM     19/Nov/2015  13:11:06 #
# Copyright 1999-2010 IAR Systems AB.                                         #
#                                                                             #
#    Cpu mode     =  arm                                                      #
#    Endian       =  little                                                   #
#    Source file  =  C:\DUII\TargetHW\GUI\GUIAA_SIF2Ext.c                     #
#    Command line =  C:\DUII\TargetHW\GUI\GUIAA_SIF2Ext.c -D DEBUG=1 -D       #
#                    SDRAM_TARGET=1 -D USB_IS_HIGH_SPEED -D NOPROFILER -D     #
#                    OS_TRACE=0 -D OS_VIEW_ENABLE=0 -lCN                      #
#                    C:\DUII\TargetHW\Release\List\ -o                        #
#                    C:\DUII\TargetHW\Release\Obj\ --endian=little            #
#                    --cpu=ARM926EJ-S -e --fpu=None --dlib_config             #
#                    "C:\Program Files (x86)\IAR Systems\Embedded Workbench   #
#                    6.0\arm\INC\c\DLib_Config_Normal.h" -I                   #
#                    C:\DUII\TargetHW\Application\SEGGERDEMO\ -I              #
#                    C:\DUII\TargetHW\Application\SEGGERDEMO\Src\ -I          #
#                    C:\DUII\TargetHW\Config\ -I C:\DUII\TargetHW\FS\ -I      #
#                    C:\DUII\TargetHW\GUI\ -I C:\DUII\TargetHW\Inc\ -I        #
#                    C:\DUII\TargetHW\OS\ -I C:\DUII\TargetHW\Setup\ -I       #
#                    \DUII\DUII\ -I \DUII\DUII\Graphics\ --cpu_mode arm -Ohs  #
#                    --use_c++_inline --require_prototypes                    #
#    List file    =  C:\DUII\TargetHW\Release\List\GUIAA_SIF2Ext.lst          #
#    Object file  =  C:\DUII\TargetHW\Release\Obj\GUIAA_SIF2Ext.o             #
#                                                                             #
#                                                                             #
###############################################################################

C:\DUII\TargetHW\GUI\GUIAA_SIF2Ext.c
      1          /*********************************************************************
      2          *                SEGGER Microcontroller GmbH & Co. KG                *
      3          *        Solutions for real time microcontroller applications        *
      4          **********************************************************************
      5          *                                                                    *
      6          *        (c) 1996 - 2010  SEGGER Microcontroller GmbH & Co. KG       *
      7          *                                                                    *
      8          *        Internet: www.segger.com    Support:  support@segger.com    *
      9          *                                                                    *
     10          **********************************************************************
     11          
     12          ** emWin V5.06 - Graphical user interface for embedded applications **
     13          emWin is protected by international copyright laws.   Knowledge of the
     14          source code may not be used to write a similar product.  This file may
     15          only be used in accordance with a license and should not be re-
     16          distributed in any way. We appreciate your understanding and fairness.
     17          ----------------------------------------------------------------------
     18          File        : GUIAA_SIF2Ext.c
     19          Purpose     : Implementation of system independent fonts
     20          ---------------------------END-OF-HEADER------------------------------
     21          */
     22          
     23          #include "GUI_Private.h"
     24          
     25          /*********************************************************************
     26          *
     27          *       Static code
     28          *
     29          **********************************************************************
     30          */
     31          /*********************************************************************
     32          *
     33          *       _DispChar
     34          */

   \                                 In section .text, align 4, keep-with-next
     35          static void _DispChar(U16P c) {
   \                     _DispChar:
   \   00000000   F04F2DE9           PUSH     {R4-R11,LR}
     36            U8 BytesPerLine;
     37            const U8 * pCharInfo, * pData;
     38            GUI_DRAWMODE DrawMode, OldDrawMode;
     39            GUI_SIF_CHARINFO_EXT CharInfo;
     40          
     41            pCharInfo = GUI_SIF__GetpCharInfo(GUI_Context.pAFont, c, sizeof(GUI_SIF_CHARINFO_EXT));
   \   00000004   ........           LDR      R4,??DataTable3
   \   00000008   0010A0E1           MOV      R1,R0
   \   0000000C   24D04DE2           SUB      SP,SP,#+36
   \   00000010   1020A0E3           MOV      R2,#+16
   \   00000014   1C0094E5           LDR      R0,[R4, #+28]
   \   00000018   ........           BL       GUI_SIF__GetpCharInfo
   \   0000001C   18008DE5           STR      R0,[SP, #+24]
     42            if (pCharInfo) {
   \   00000020   000050E3           CMP      R0,#+0
   \   00000024   3E00000A           BEQ      ??_DispChar_0
     43              CharInfo.XSize        = GUI__Read16(&pCharInfo);
   \   00000028   18008DE2           ADD      R0,SP,#+24
   \   0000002C   ........           BL       GUI__Read16
   \   00000030   0050A0E1           MOV      R5,R0
     44              CharInfo.YSize        = GUI__Read16(&pCharInfo);
   \   00000034   18008DE2           ADD      R0,SP,#+24
   \   00000038   ........           BL       GUI__Read16
   \   0000003C   0060A0E1           MOV      R6,R0
     45              CharInfo.XOff         = GUI__Read16(&pCharInfo);
   \   00000040   18008DE2           ADD      R0,SP,#+24
   \   00000044   ........           BL       GUI__Read16
   \   00000048   00B8A0E1           LSL      R11,R0,#+16
     46              CharInfo.YOff         = GUI__Read16(&pCharInfo);
   \   0000004C   18008DE2           ADD      R0,SP,#+24
   \   00000050   ........           BL       GUI__Read16
   \   00000054   0078A0E1           LSL      R7,R0,#+16
     47              CharInfo.XDist        = GUI__Read16(&pCharInfo);
   \   00000058   18008DE2           ADD      R0,SP,#+24
   \   0000005C   ........           BL       GUI__Read16
     48              BytesPerLine          = (CharInfo.XSize + 3) >> 2;
   \   00000060   031085E2           ADD      R1,R5,#+3
   \   00000064   011BA0E1           LSL      R1,R1,#+22
   \   00000068   0080A0E1           MOV      R8,R0
   \   0000006C   211CA0E1           LSR      R1,R1,#+24
   \   00000070   1C108DE5           STR      R1,[SP, #+28]
     49                                      GUI__Read16(&pCharInfo);
   \   00000074   18008DE2           ADD      R0,SP,#+24
   \   00000078   ........           BL       GUI__Read16
     50              CharInfo.OffData      = GUI__Read32(&pCharInfo);
   \   0000007C   18008DE2           ADD      R0,SP,#+24
   \   00000080   ........           BL       GUI__Read32
     51              pData = (const U8 *)GUI_Context.pAFont->p.pFontData + CharInfo.OffData;
   \   00000084   1C1094E5           LDR      R1,[R4, #+28]
   \   00000088   1C1091E5           LDR      R1,[R1, #+28]
   \   0000008C   019080E0           ADD      R9,R0,R1
     52              DrawMode = GUI_Context.TextMode;
     53              OldDrawMode  = LCD_SetDrawMode(DrawMode);
   \   00000090   FA02D4E1           LDRSH    R0,[R4, #+42]
   \   00000094   ........           BL       LCD_SetDrawMode
   \   00000098   00A0A0E1           MOV      R10,R0
     54              #if GUI_SUPPORT_ROTATION
     55              if (GUI_pLCD_APIList) {
   \   0000009C   ........           LDR      R2,??DataTable3_1
   \   000000A0   F202D4E1           LDRSH    R0,[R4, #+34]
   \   000000A4   F412D4E1           LDRSH    R1,[R4, #+36]
   \   000000A8   00C092E5           LDR      R12,[R2, #+0]
   \   000000AC   4B0880E0           ADD      R0,R0,R11, ASR #+16
   \   000000B0   471881E0           ADD      R1,R1,R7, ASR #+16
   \   000000B4   00005CE3           CMP      R12,#+0
   \   000000B8   0E00000A           BEQ      ??_DispChar_1
     56                GUI_pLCD_APIList->pfDrawBitmap(GUI_Context.DispPosX + CharInfo.XOff, // XPos
     57                                               GUI_Context.DispPosY + CharInfo.YOff, // YPos
     58                                               CharInfo.XSize,                       // XSize
     59                                               CharInfo.YSize,                       // YSize
     60                                               1,                                    // XMag
     61                                               1,                                    // YMag
     62                                               2,                                    // BitsPerPixel
     63                                               BytesPerLine,                         // BytesPerLine
     64                                               pData,                                // Pointer to pixel data
     65                                               NULL);                                // Translation table
   \   000000BC   0020A0E3           MOV      R2,#+0
   \   000000C0   14208DE5           STR      R2,[SP, #+20]
   \   000000C4   1C209DE5           LDR      R2,[SP, #+28]
   \   000000C8   10908DE5           STR      R9,[SP, #+16]
   \   000000CC   0C208DE5           STR      R2,[SP, #+12]
   \   000000D0   0220A0E3           MOV      R2,#+2
   \   000000D4   08208DE5           STR      R2,[SP, #+8]
   \   000000D8   0120A0E3           MOV      R2,#+1
   \   000000DC   04208DE5           STR      R2,[SP, #+4]
   \   000000E0   00208DE5           STR      R2,[SP, #+0]
   \   000000E4   0630A0E1           MOV      R3,R6
   \   000000E8   0520A0E1           MOV      R2,R5
   \   000000EC   00C09CE5           LDR      R12,[R12, #+0]
   \   000000F0   3CFF2FE1           BLX      R12
   \   000000F4   050000EA           B        ??_DispChar_2
     66              } else {
     67              #else
     68              {
     69              #endif
     70                GUI_AA__DrawCharAA2(GUI_Context.DispPosX + CharInfo.XOff, // XPos                 
     71                                    GUI_Context.DispPosY + CharInfo.YOff, // YPos                 
     72                                    CharInfo.XSize,                       // XSize                
     73                                    CharInfo.YSize,                       // YSize                
     74                                    BytesPerLine,                         // BytesPerLine         
     75                                    (U8 const *)pData);                   // Pointer to pixel data
   \                     ??_DispChar_1:
   \   000000F8   1C209DE5           LDR      R2,[SP, #+28]
   \   000000FC   04908DE5           STR      R9,[SP, #+4]
   \   00000100   00208DE5           STR      R2,[SP, #+0]
   \   00000104   0630A0E1           MOV      R3,R6
   \   00000108   0520A0E1           MOV      R2,R5
   \   0000010C   ........           BL       GUI_AA__DrawCharAA2
     76              }
     77              LCD_SetDrawMode(OldDrawMode);                      // Restore draw mode
   \                     ??_DispChar_2:
   \   00000110   0A00A0E1           MOV      R0,R10
   \   00000114   ........           BL       LCD_SetDrawMode
     78              GUI_Context.DispPosX += CharInfo.XDist;
   \   00000118   F202D4E1           LDRSH    R0,[R4, #+34]
   \   0000011C   000088E0           ADD      R0,R8,R0
   \   00000120   B202C4E1           STRH     R0,[R4, #+34]
     79            }
     80          }
   \                     ??_DispChar_0:
   \   00000124   24D08DE2           ADD      SP,SP,#+36       ;; stack cleaning
   \   00000128   F08FBDE8           POP      {R4-R11,PC}      ;; return
     81          
     82          /*********************************************************************
     83          *
     84          *       _DispLine
     85          */

   \                                 In section .text, align 4, keep-with-next
     86          static void _DispLine(const char GUI_UNI_PTR * s, int Len) {
   \                     _DispLine:
   \   00000000   30402DE9           PUSH     {R4,R5,LR}
   \   00000004   0040A0E1           MOV      R4,R0
   \   00000008   04D04DE2           SUB      SP,SP,#+4
   \   0000000C   0150A0E1           MOV      R5,R1
     87            GUIPROP_EXT__SetfpClearLine(GUI_SIF__ClearLine_ExtFrm);
   \   00000010   ........           LDR      R0,??DataTable3_2
   \   00000014   ........           BL       GUIPROP_EXT__SetfpClearLine
     88            GUI_ENC_APIList_EXT.pfDispLine(s, Len);
   \   00000018   ........           LDR      R2,??DataTable3_3
   \   0000001C   0510A0E1           MOV      R1,R5
   \   00000020   0400A0E1           MOV      R0,R4
   \   00000024   082092E5           LDR      R2,[R2, #+8]
   \   00000028   32FF2FE1           BLX      R2
     89            GUIPROP_EXT__SetfpClearLine(GUIPROP_EXT__ClearLine);
   \   0000002C   04D08DE2           ADD      SP,SP,#+4
   \   00000030   3040BDE8           POP      {R4,R5,LR}
   \   00000034   ........           LDR      R0,??DataTable3_4
   \   00000038   ........           B        GUIPROP_EXT__SetfpClearLine  ;; tailcall
     90          }
     91          
     92          /*********************************************************************
     93          *
     94          *       _APIList
     95          */

   \                                 In section .rodata, align 4, keep-with-next
     96          static const tGUI_ENC_APIList _APIList = {
   \                     _APIList:
   \   00000000                      ; Initializer data, 12 bytes
   \   00000000   000000000000       DC32 0, 0, _DispLine
   \              0000........
     97            NULL,
     98            NULL,
     99            _DispLine
    100          };
    101          
    102          /*********************************************************************
    103          *
    104          *       Public API table
    105          *
    106          **********************************************************************
    107          */
    108          /*********************************************************************
    109          *
    110          *       GUI_SIF_APIList_Prop_AA2_EXT
    111          */

   \                                 In section .rodata, align 4, keep-with-next
    112          const tGUI_SIF_APIList GUI_SIF_APIList_Prop_AA2_EXT = {
   \                     GUI_SIF_APIList_Prop_AA2_EXT:
   \   00000000                      ; Initializer data, 24 bytes
   \   00000000   ............       DC32 _DispChar, GUI_SIF__GetCharDistX_ExtFrm, GUI_SIF__GetFontInfo_ExtFrm, GUI_SIF__IsInFont_ExtFrm, GUI_SIF__GetCharInfo_ExtFrm, _APIList
   \              ............
   \              ............
   \              ............

   \                                 In section .text, align 4, keep-with-next
   \                     ??DataTable3:
   \   00000000   ........           DC32     GUI_Context

   \                                 In section .text, align 4, keep-with-next
   \                     ??DataTable3_1:
   \   00000000   ........           DC32     GUI_pLCD_APIList

   \                                 In section .text, align 4, keep-with-next
   \                     ??DataTable3_2:
   \   00000000   ........           DC32     GUI_SIF__ClearLine_ExtFrm

   \                                 In section .text, align 4, keep-with-next
   \                     ??DataTable3_3:
   \   00000000   ........           DC32     GUI_ENC_APIList_EXT

   \                                 In section .text, align 4, keep-with-next
   \                     ??DataTable3_4:
   \   00000000   ........           DC32     GUIPROP_EXT__ClearLine
    113            _DispChar,
    114            GUI_SIF__GetCharDistX_ExtFrm,
    115            GUI_SIF__GetFontInfo_ExtFrm,
    116            GUI_SIF__IsInFont_ExtFrm,
    117            GUI_SIF__GetCharInfo_ExtFrm,
    118            &_APIList
    119          };
    120          
    121          /*************************** End of file ****************************/

   Maximum stack usage in bytes:

     Function  .cstack
     --------  -------
     _DispChar     72
     _DispLine     16


   Section sizes:

     Function/Label               Bytes
     --------------               -----
     _DispChar                     300
     _DispLine                      60
     _APIList                       12
     GUI_SIF_APIList_Prop_AA2_EXT   24
     ??DataTable3                    4
     ??DataTable3_1                  4
     ??DataTable3_2                  4
     ??DataTable3_3                  4
     ??DataTable3_4                  4

 
  36 bytes in section .rodata
 380 bytes in section .text
 
 380 bytes of CODE  memory
  36 bytes of CONST memory

Errors: none
Warnings: none
