###############################################################################
#                                                                             #
# IAR ANSI C/C++ Compiler V6.10.2.52244/W32 for ARM     19/Nov/2015  13:12:48 #
# Copyright 1999-2010 IAR Systems AB.                                         #
#                                                                             #
#    Cpu mode     =  arm                                                      #
#    Endian       =  little                                                   #
#    Source file  =  C:\DUII\TargetHW\GUI\GUIAA_SIF4.c                        #
#    Command line =  C:\DUII\TargetHW\GUI\GUIAA_SIF4.c -D DEBUG=1 -D          #
#                    SDRAM_TARGET=1 -D USB_IS_HIGH_SPEED -D NOPROFILER -D     #
#                    OS_TRACE=0 -D OS_VIEW_ENABLE=0 -lCN                      #
#                    C:\DUII\TargetHW\Release\List\ -o                        #
#                    C:\DUII\TargetHW\Release\Obj\ --endian=little            #
#                    --cpu=ARM926EJ-S -e --fpu=None --dlib_config             #
#                    "C:\Program Files (x86)\IAR Systems\Embedded Workbench   #
#                    6.0\arm\INC\c\DLib_Config_Normal.h" -I                   #
#                    C:\DUII\TargetHW\Application\SEGGERDEMO\ -I              #
#                    C:\DUII\TargetHW\Application\SEGGERDEMO\Src\ -I          #
#                    C:\DUII\TargetHW\Config\ -I C:\DUII\TargetHW\FS\ -I      #
#                    C:\DUII\TargetHW\GUI\ -I C:\DUII\TargetHW\Inc\ -I        #
#                    C:\DUII\TargetHW\OS\ -I C:\DUII\TargetHW\Setup\ -I       #
#                    \DUII\DUII\ -I \DUII\DUII\Graphics\ --cpu_mode arm -Ohs  #
#                    --use_c++_inline --require_prototypes                    #
#    List file    =  C:\DUII\TargetHW\Release\List\GUIAA_SIF4.lst             #
#    Object file  =  C:\DUII\TargetHW\Release\Obj\GUIAA_SIF4.o                #
#                                                                             #
#                                                                             #
###############################################################################

C:\DUII\TargetHW\GUI\GUIAA_SIF4.c
      1          /*********************************************************************
      2          *                SEGGER Microcontroller GmbH & Co. KG                *
      3          *        Solutions for real time microcontroller applications        *
      4          **********************************************************************
      5          *                                                                    *
      6          *        (c) 1996 - 2010  SEGGER Microcontroller GmbH & Co. KG       *
      7          *                                                                    *
      8          *        Internet: www.segger.com    Support:  support@segger.com    *
      9          *                                                                    *
     10          **********************************************************************
     11          
     12          ** emWin V5.06 - Graphical user interface for embedded applications **
     13          emWin is protected by international copyright laws.   Knowledge of the
     14          source code may not be used to write a similar product.  This file may
     15          only be used in accordance with a license and should not be re-
     16          distributed in any way. We appreciate your understanding and fairness.
     17          ----------------------------------------------------------------------
     18          File        : GUIAA_SIF4.c
     19          Purpose     : Implementation of system independent fonts
     20          ---------------------------END-OF-HEADER------------------------------
     21          */
     22          
     23          #include "GUI_Private.h"
     24          
     25          /*********************************************************************
     26          *
     27          *       Static code
     28          *
     29          **********************************************************************
     30          */
     31          /*********************************************************************
     32          *
     33          *       _GUI_SIF_DispChar
     34          */

   \                                 In section .text, align 4, keep-with-next
     35          static void _GUI_SIF_DispChar(U16P c) {
   \                     _GUI_SIF_DispChar:
   \   00000000   F0432DE9           PUSH     {R4-R9,LR}
     36            const U8 * pCharInfo, * pData;
     37            pCharInfo = GUI_SIF__GetpCharInfo(GUI_Context.pAFont, c, sizeof(GUI_SIF_CHARINFO));
   \   00000004   ........           LDR      R4,??DataTable1
   \   00000008   0010A0E1           MOV      R1,R0
   \   0000000C   0CD04DE2           SUB      SP,SP,#+12
   \   00000010   0C20A0E3           MOV      R2,#+12
   \   00000014   1C0094E5           LDR      R0,[R4, #+28]
   \   00000018   ........           BL       GUI_SIF__GetpCharInfo
   \   0000001C   08008DE5           STR      R0,[SP, #+8]
     38            if (pCharInfo) {
   \   00000020   000050E3           CMP      R0,#+0
   \   00000024   1F00000A           BEQ      ??_GUI_SIF_DispChar_0
     39              GUI_DRAWMODE DrawMode, OldDrawMode;
     40              GUI_SIF_CHARINFO CharInfo;
     41              CharInfo.XSize        = GUI__Read16(&pCharInfo);
   \   00000028   08008DE2           ADD      R0,SP,#+8
   \   0000002C   ........           BL       GUI__Read16
   \   00000030   0050A0E1           MOV      R5,R0
     42              CharInfo.XDist        = GUI__Read16(&pCharInfo);
   \   00000034   08008DE2           ADD      R0,SP,#+8
   \   00000038   ........           BL       GUI__Read16
   \   0000003C   0060A0E1           MOV      R6,R0
     43              CharInfo.BytesPerLine = GUI__Read16(&pCharInfo);
   \   00000040   08008DE2           ADD      R0,SP,#+8
   \   00000044   ........           BL       GUI__Read16
   \   00000048   0070A0E1           MOV      R7,R0
     44                                      GUI__Read16(&pCharInfo); /* Dummy */
   \   0000004C   08008DE2           ADD      R0,SP,#+8
   \   00000050   ........           BL       GUI__Read16
     45              CharInfo.OffData      = GUI__Read32(&pCharInfo);
   \   00000054   08008DE2           ADD      R0,SP,#+8
   \   00000058   ........           BL       GUI__Read32
     46              pData = (const U8 *)GUI_Context.pAFont->p.pFontData + CharInfo.OffData;
   \   0000005C   1C1094E5           LDR      R1,[R4, #+28]
   \   00000060   1C1091E5           LDR      R1,[R1, #+28]
   \   00000064   019080E0           ADD      R9,R0,R1
     47              DrawMode = GUI_Context.TextMode;
     48              OldDrawMode  = LCD_SetDrawMode(DrawMode);
   \   00000068   FA02D4E1           LDRSH    R0,[R4, #+42]
   \   0000006C   ........           BL       LCD_SetDrawMode
   \   00000070   0080A0E1           MOV      R8,R0
     49              GUI_AA__DrawCharAA4(GUI_Context.DispPosX,
     50                                  GUI_Context.DispPosY,
     51                                  CharInfo.XSize,
     52                                  GUI_Context.pAFont->YSize,
     53                                  CharInfo.BytesPerLine,
     54                                  pData);
   \   00000074   1C0094E5           LDR      R0,[R4, #+28]
   \   00000078   04908DE5           STR      R9,[SP, #+4]
   \   0000007C   00708DE5           STR      R7,[SP, #+0]
   \   00000080   1830D0E5           LDRB     R3,[R0, #+24]
   \   00000084   0520A0E1           MOV      R2,R5
   \   00000088   F412D4E1           LDRSH    R1,[R4, #+36]
   \   0000008C   F202D4E1           LDRSH    R0,[R4, #+34]
   \   00000090   ........           BL       GUI_AA__DrawCharAA4
     55              GUI_Context.DispPosX += CharInfo.XDist;
   \   00000094   F202D4E1           LDRSH    R0,[R4, #+34]
   \   00000098   000086E0           ADD      R0,R6,R0
   \   0000009C   B202C4E1           STRH     R0,[R4, #+34]
     56              LCD_SetDrawMode(OldDrawMode);
   \   000000A0   0800A0E1           MOV      R0,R8
   \   000000A4   ........           BL       LCD_SetDrawMode
     57            }
     58          }
   \                     ??_GUI_SIF_DispChar_0:
   \   000000A8   0CD08DE2           ADD      SP,SP,#+12       ;; stack cleaning
   \   000000AC   F083BDE8           POP      {R4-R9,PC}       ;; return
     59          
     60          /*********************************************************************
     61          *
     62          *       Public API table
     63          *
     64          **********************************************************************
     65          */
     66          /*********************************************************************
     67          *
     68          *       GUI_SIF_TYPE_PROP_AA4
     69          */

   \                                 In section .rodata, align 4, keep-with-next
     70          const tGUI_SIF_APIList GUI_SIF_APIList_Prop_AA4 = {
   \                     GUI_SIF_APIList_Prop_AA4:
   \   00000000                      ; Initializer data, 24 bytes
   \   00000000   ............       DC32 _GUI_SIF_DispChar, GUI_SIF__GetCharDistX, GUI_SIF__GetFontInfo, GUI_SIF__IsInFont
   \              ............
   \              ........    
   \   00000010   000000000000       DC8 0, 0, 0, 0, 0, 0, 0, 0
   \              0000        

   \                                 In section .text, align 4, keep-with-next
   \                     ??DataTable1:
   \   00000000   ........           DC32     GUI_Context
     71            _GUI_SIF_DispChar,
     72            GUI_SIF__GetCharDistX,
     73            GUI_SIF__GetFontInfo,
     74            GUI_SIF__IsInFont
     75          };
     76          
     77          /*************************** End of file ****************************/

   Maximum stack usage in bytes:

     Function          .cstack
     --------          -------
     _GUI_SIF_DispChar     40


   Section sizes:

     Function/Label           Bytes
     --------------           -----
     _GUI_SIF_DispChar         176
     GUI_SIF_APIList_Prop_AA4   24
     ??DataTable1                4

 
  24 bytes in section .rodata
 180 bytes in section .text
 
 180 bytes of CODE  memory
  24 bytes of CONST memory

Errors: none
Warnings: none
