###############################################################################
#                                                                             #
# IAR ANSI C/C++ Compiler V6.10.2.52244/W32 for ARM     19/Nov/2015  13:15:22 #
# Copyright 1999-2010 IAR Systems AB.                                         #
#                                                                             #
#    Cpu mode     =  arm                                                      #
#    Endian       =  little                                                   #
#    Source file  =  C:\DUII\TargetHW\GUI\GUICC_8666_1.c                      #
#    Command line =  C:\DUII\TargetHW\GUI\GUICC_8666_1.c -D DEBUG=1 -D        #
#                    SDRAM_TARGET=1 -D USB_IS_HIGH_SPEED -D NOPROFILER -D     #
#                    OS_TRACE=0 -D OS_VIEW_ENABLE=0 -lCN                      #
#                    C:\DUII\TargetHW\Release\List\ -o                        #
#                    C:\DUII\TargetHW\Release\Obj\ --endian=little            #
#                    --cpu=ARM926EJ-S -e --fpu=None --dlib_config             #
#                    "C:\Program Files (x86)\IAR Systems\Embedded Workbench   #
#                    6.0\arm\INC\c\DLib_Config_Normal.h" -I                   #
#                    C:\DUII\TargetHW\Application\SEGGERDEMO\ -I              #
#                    C:\DUII\TargetHW\Application\SEGGERDEMO\Src\ -I          #
#                    C:\DUII\TargetHW\Config\ -I C:\DUII\TargetHW\FS\ -I      #
#                    C:\DUII\TargetHW\GUI\ -I C:\DUII\TargetHW\Inc\ -I        #
#                    C:\DUII\TargetHW\OS\ -I C:\DUII\TargetHW\Setup\ -I       #
#                    \DUII\DUII\ -I \DUII\DUII\Graphics\ --cpu_mode arm -Ohs  #
#                    --use_c++_inline --require_prototypes                    #
#    List file    =  C:\DUII\TargetHW\Release\List\GUICC_8666_1.lst           #
#    Object file  =  C:\DUII\TargetHW\Release\Obj\GUICC_8666_1.o              #
#                                                                             #
#                                                                             #
###############################################################################

C:\DUII\TargetHW\GUI\GUICC_8666_1.c
      1          /*********************************************************************
      2          *                SEGGER Microcontroller GmbH & Co. KG                *
      3          *        Solutions for real time microcontroller applications        *
      4          **********************************************************************
      5          *                                                                    *
      6          *        (c) 1996 - 2010  SEGGER Microcontroller GmbH & Co. KG       *
      7          *                                                                    *
      8          *        Internet: www.segger.com    Support:  support@segger.com    *
      9          *                                                                    *
     10          **********************************************************************
     11          
     12          ** emWin V5.06 - Graphical user interface for embedded applications **
     13          emWin is protected by international copyright laws.   Knowledge of the
     14          source code may not be used to write a similar product.  This file may
     15          only be used in accordance with a license and should not be re-
     16          distributed in any way. We appreciate your understanding and fairness.
     17          ----------------------------------------------------------------------
     18          File        : GUICC_8666_1.C
     19          Purpose     : Color conversion routines
     20          ---------------------------END-OF-HEADER------------------------------
     21          */
     22          
     23          #include "GUI.h" // Include GUI.h instead of LCD_Protected.h because of GUI_TRANSPARENT
     24          
     25          /*********************************************************************
     26          *
     27          *       Static code,
     28          *
     29          **********************************************************************
     30          */
     31          /*********************************************************************
     32          *
     33          *       _Color2Index_8666_1
     34          */

   \                                 In section .text, align 4, keep-with-next
     35          static unsigned _Color2Index_8666_1(LCD_COLOR Color) {
     36            int r, g, b, Index;
     37            if (Color == GUI_TRANSPARENT) {
   \                     _Color2Index_8666_1:
   \   00000000   FF0450E3           CMP      R0,#-16777216
   \   00000004   0100001A           BNE      ??_Color2Index_8666_1_0
     38              return 0;
   \   00000008   0000A0E3           MOV      R0,#+0
   \   0000000C   1EFF2FE1           BX       LR
     39            }
     40            r = Color & 255;
     41            g = (Color >>  8) & 255;
   \                     ??_Color2Index_8666_1_0:
   \   00000010   FF20A0E3           MOV      R2,#+255
   \   00000014   FF1000E2           AND      R1,R0,#0xFF
   \   00000018   202402E0           AND      R2,R2,R0, LSR #+8
     42            b = (Color >> 16) & 255;
   \   0000001C   FF30A0E3           MOV      R3,#+255
   \   00000020   200803E0           AND      R0,R3,R0, LSR #+16
     43          /* Check if image is a gray scale ... */
     44          	if ((r == g) && (g == b)) {
   \   00000024   020051E1           CMP      R1,R2
   \   00000028   00005201           CMPEQ    R2,R0
   \   0000002C   0600001A           BNE      ??_Color2Index_8666_1_1
     45              return 120 + (r + 8) / 17;  /* Convert into colors from 120 - 135 */
   \   00000030   080081E2           ADD      R0,R1,#+8
   \   00000034   ........           LDR      R1,??DataTable2  ;; 0x78787879
   \   00000038   9021C1E0           SMULL    R2,R1,R0,R1
   \   0000003C   C101B0E1           ASRS     R0,R1,#+3
   \   00000040   01008042           ADDMI    R0,R0,#+1
   \   00000044   780080E2           ADD      R0,R0,#+120
   \   00000048   1EFF2FE1           BX       LR
     46          	}
     47          /* Convert into the 6*6*6 colors ... */
     48            r = (r * 5 + 127) / 255;
     49            g = (g * 5 + 127) / 255;
     50            b = (b * 5 + 127) / 255;
     51            Index = r + 6 * g + 36 * b;
   \                     ??_Color2Index_8666_1_1:
   \   0000004C   011181E0           ADD      R1,R1,R1, LSL #+2
   \   00000050   ........           LDR      R3,??DataTable2_1  ;; 0x80808081
   \   00000054   7F1081E2           ADD      R1,R1,#+127
   \   00000058   91C3C3E0           SMULL    R12,R3,R1,R3
   \   0000005C   022182E0           ADD      R2,R2,R2, LSL #+2
   \   00000060   013083E0           ADD      R3,R3,R1
   \   00000064   C313B0E1           ASRS     R1,R3,#+7
   \   00000068   ........           LDR      R3,??DataTable2_1  ;; 0x80808081
   \   0000006C   7F2082E2           ADD      R2,R2,#+127
   \   00000070   92C3C3E0           SMULL    R12,R3,R2,R3
   \   00000074   01108142           ADDMI    R1,R1,#+1
   \   00000078   023083E0           ADD      R3,R3,R2
   \   0000007C   C323B0E1           ASRS     R2,R3,#+7
   \   00000080   01208242           ADDMI    R2,R2,#+1
   \   00000084   0630A0E3           MOV      R3,#+6
   \   00000088   931221E0           MLA      R1,R3,R2,R1
   \   0000008C   000180E0           ADD      R0,R0,R0, LSL #+2
   \   00000090   ........           LDR      R2,??DataTable2_1  ;; 0x80808081
   \   00000094   7F0080E2           ADD      R0,R0,#+127
   \   00000098   9032C2E0           SMULL    R3,R2,R0,R2
   \   0000009C   002082E0           ADD      R2,R2,R0
   \   000000A0   C203B0E1           ASRS     R0,R2,#+7
   \   000000A4   01008042           ADDMI    R0,R0,#+1
   \   000000A8   2420A0E3           MOV      R2,#+36
   \   000000AC   921020E0           MLA      R0,R2,R0,R1
     52            return (Index < 108) ? Index + 12 : Index + 28;
   \   000000B0   6C0050E3           CMP      R0,#+108
   \   000000B4   010000AA           BGE      ??_Color2Index_8666_1_2
   \   000000B8   0C0080E2           ADD      R0,R0,#+12
   \   000000BC   1EFF2FE1           BX       LR
   \                     ??_Color2Index_8666_1_2:
   \   000000C0   1C0080E2           ADD      R0,R0,#+28
   \   000000C4   1EFF2FE1           BX       LR               ;; return
     53          }
     54          
     55          /*********************************************************************
     56          *
     57          *       _Index2Color_8666_1
     58          */

   \                                 In section .text, align 4, keep-with-next
     59          static LCD_COLOR _Index2Color_8666_1(unsigned Index) {
   \                     _Index2Color_8666_1:
   \   00000000   10402DE9           PUSH     {R4,LR}
     60            unsigned int r, g;
     61            U32 b;
     62            /* 16 Gray scale range ? */
     63            if ((Index >= 120) && (Index < 136)) {
   \   00000004   781040E2           SUB      R1,R0,#+120
   \   00000008   100051E3           CMP      R1,#+16
   \   0000000C   0200002A           BCS      ??_Index2Color_8666_1_0
     64              return (U32)0x111111 * (U32)(Index - 120);
   \   00000010   ........           LDR      R2,??DataTable2_2  ;; 0x111111
   \   00000014   920100E0           MUL      R0,R2,R1
   \   00000018   1080BDE8           POP      {R4,PC}
     65          	}
     66            if ((Index < 12) || (Index > 243)) {
   \                     ??_Index2Color_8666_1_0:
   \   0000001C   0C1040E2           SUB      R1,R0,#+12
   \   00000020   E80051E3           CMP      R1,#+232
   \   00000024   0100003A           BCC      ??_Index2Color_8666_1_1
     67              return 0;  /* Black for illegal indices */
   \   00000028   0000A0E3           MOV      R0,#+0
   \   0000002C   1080BDE8           POP      {R4,PC}
     68            }
     69            if (Index >= 120) {
   \                     ??_Index2Color_8666_1_1:
   \   00000030   780050E3           CMP      R0,#+120
     70              Index -= 28;
     71            } else {
     72              Index -= 12;
     73            }
     74            r = (Index % 6) * (255 / 5);
     75            g = ((Index / 6) % 6) * (255 / 5);
   \   00000034   ........           LDR      R2,??DataTable2_3  ;; 0xaaaaaaab
   \   00000038   1C004022           SUBCS    R0,R0,#+28
   \   0000003C   0100A031           MOVCC    R0,R1
   \   00000040   902281E0           UMULL    R2,R1,R0,R2
     76            b = (Index / 36) * (255 / 5);
     77            return r + (g << 8) + ((U32)b << 16);
   \   00000044   ........           LDR      R4,??DataTable2_3  ;; 0xaaaaaaab
   \   00000048   2121A0E1           LSR      R2,R1,#+2
   \   0000004C   92448EE0           UMULL    R4,LR,R2,R4
   \   00000050   0630A0E3           MOV      R3,#+6
   \   00000054   2EE1A0E1           LSR      LR,LR,#+2
   \   00000058   93020CE0           MUL      R12,R3,R2
   \   0000005C   930E0EE0           MUL      LR,R3,LR
   \   00000060   3310A0E3           MOV      R1,#+51
   \   00000064   0CC040E0           SUB      R12,R0,R12
   \   00000068   0E2042E0           SUB      R2,R2,LR
   \   0000006C   910C0CE0           MUL      R12,R1,R12
   \   00000070   910202E0           MUL      R2,R1,R2
   \   00000074   02248CE0           ADD      R2,R12,R2, LSL #+8
   \   00000078   ........           LDR      R12,??DataTable2_4  ;; 0xe38e38e4
   \   0000007C   90CC83E0           UMULL    R12,R3,R0,R12
   \   00000080   A302A0E1           LSR      R0,R3,#+5
   \   00000084   910000E0           MUL      R0,R1,R0
   \   00000088   000882E0           ADD      R0,R2,R0, LSL #+16
   \   0000008C   1080BDE8           POP      {R4,PC}          ;; return
     78          }
     79          
     80          /*********************************************************************
     81          *
     82          *       _GetIndexMask_8666_1
     83          */

   \                                 In section .text, align 4, keep-with-next
     84          static unsigned _GetIndexMask_8666_1(void) {
     85            return 0xff;
   \                     _GetIndexMask_8666_1:
   \   00000000   FF00A0E3           MOV      R0,#+255
   \   00000004   1EFF2FE1           BX       LR               ;; return
     86          }
     87          
     88          /*********************************************************************
     89          *
     90          *       Public data
     91          *
     92          **********************************************************************
     93          */
     94          /*********************************************************************
     95          *
     96          *       LCD_API_ColorConv_8666_1
     97          *
     98          * Purpose
     99          *   API table for this color conversion mode. Only used by memory
    100          *   devices in this mode.
    101          */

   \                                 In section .rodata, align 4, keep-with-next
    102          const LCD_API_COLOR_CONV LCD_API_ColorConv_8666_1 = {
   \                     LCD_API_ColorConv_8666_1:
   \   00000000                      ; Initializer data, 12 bytes
   \   00000000   ............       DC32 _Color2Index_8666_1, _Index2Color_8666_1, _GetIndexMask_8666_1
   \              ............

   \                                 In section .text, align 4, keep-with-next
   \                     ??DataTable2:
   \   00000000   79787878           DC32     0x78787879

   \                                 In section .text, align 4, keep-with-next
   \                     ??DataTable2_1:
   \   00000000   81808080           DC32     0x80808081

   \                                 In section .text, align 4, keep-with-next
   \                     ??DataTable2_2:
   \   00000000   11111100           DC32     0x111111

   \                                 In section .text, align 4, keep-with-next
   \                     ??DataTable2_3:
   \   00000000   ABAAAAAA           DC32     0xaaaaaaab

   \                                 In section .text, align 4, keep-with-next
   \                     ??DataTable2_4:
   \   00000000   E4388EE3           DC32     0xe38e38e4
    103            _Color2Index_8666_1,
    104            _Index2Color_8666_1,
    105            _GetIndexMask_8666_1
    106          };
    107          
    108          /*************************** End of file ****************************/

   Maximum stack usage in bytes:

     Function             .cstack
     --------             -------
     _Color2Index_8666_1       0
     _GetIndexMask_8666_1      0
     _Index2Color_8666_1       8


   Section sizes:

     Function/Label           Bytes
     --------------           -----
     _Color2Index_8666_1       200
     _Index2Color_8666_1       144
     _GetIndexMask_8666_1        8
     LCD_API_ColorConv_8666_1   12
     ??DataTable2                4
     ??DataTable2_1              4
     ??DataTable2_2              4
     ??DataTable2_3              4
     ??DataTable2_4              4

 
  12 bytes in section .rodata
 372 bytes in section .text
 
 372 bytes of CODE  memory
  12 bytes of CONST memory

Errors: none
Warnings: none
