###############################################################################
#                                                                             #
# IAR ANSI C/C++ Compiler V6.10.2.52244/W32 for ARM     19/Nov/2015  13:12:43 #
# Copyright 1999-2010 IAR Systems AB.                                         #
#                                                                             #
#    Cpu mode     =  arm                                                      #
#    Endian       =  little                                                   #
#    Source file  =  C:\DUII\TargetHW\GUI\GUIDEV_Auto.c                       #
#    Command line =  C:\DUII\TargetHW\GUI\GUIDEV_Auto.c -D DEBUG=1 -D         #
#                    SDRAM_TARGET=1 -D USB_IS_HIGH_SPEED -D NOPROFILER -D     #
#                    OS_TRACE=0 -D OS_VIEW_ENABLE=0 -lCN                      #
#                    C:\DUII\TargetHW\Release\List\ -o                        #
#                    C:\DUII\TargetHW\Release\Obj\ --endian=little            #
#                    --cpu=ARM926EJ-S -e --fpu=None --dlib_config             #
#                    "C:\Program Files (x86)\IAR Systems\Embedded Workbench   #
#                    6.0\arm\INC\c\DLib_Config_Normal.h" -I                   #
#                    C:\DUII\TargetHW\Application\SEGGERDEMO\ -I              #
#                    C:\DUII\TargetHW\Application\SEGGERDEMO\Src\ -I          #
#                    C:\DUII\TargetHW\Config\ -I C:\DUII\TargetHW\FS\ -I      #
#                    C:\DUII\TargetHW\GUI\ -I C:\DUII\TargetHW\Inc\ -I        #
#                    C:\DUII\TargetHW\OS\ -I C:\DUII\TargetHW\Setup\ -I       #
#                    \DUII\DUII\ -I \DUII\DUII\Graphics\ --cpu_mode arm -Ohs  #
#                    --use_c++_inline --require_prototypes                    #
#    List file    =  C:\DUII\TargetHW\Release\List\GUIDEV_Auto.lst            #
#    Object file  =  C:\DUII\TargetHW\Release\Obj\GUIDEV_Auto.o               #
#                                                                             #
#                                                                             #
###############################################################################

C:\DUII\TargetHW\GUI\GUIDEV_Auto.c
      1          /*********************************************************************
      2          *                SEGGER Microcontroller GmbH & Co. KG                *
      3          *        Solutions for real time microcontroller applications        *
      4          **********************************************************************
      5          *                                                                    *
      6          *        (c) 1996 - 2010  SEGGER Microcontroller GmbH & Co. KG       *
      7          *                                                                    *
      8          *        Internet: www.segger.com    Support:  support@segger.com    *
      9          *                                                                    *
     10          **********************************************************************
     11          
     12          ** emWin V5.06 - Graphical user interface for embedded applications **
     13          emWin is protected by international copyright laws.   Knowledge of the
     14          source code may not be used to write a similar product.  This file may
     15          only be used in accordance with a license and should not be re-
     16          distributed in any way. We appreciate your understanding and fairness.
     17          ----------------------------------------------------------------------
     18          File        : GUIDEV_Auto.c
     19          Purpose     : Implementation of automatic banding memory devices
     20          ---------------------------END-OF-HEADER------------------------------
     21          */
     22          
     23          #include "GUI_Private.h"
     24          #include "GUI_Debug.h"
     25          
     26          /* Memory device capabilities are compiled only if support for them is enabled. */ 
     27          
     28          #if GUI_SUPPORT_MEMDEV
     29          
     30          /*********************************************************************
     31          *
     32          *       public code
     33          *
     34          **********************************************************************
     35          */
     36          /*********************************************************************
     37          *
     38          *       GUI_MEMDEV_CreateAuto
     39          */

   \                                 In section .text, align 4, keep-with-next
     40          int GUI_MEMDEV_CreateAuto(GUI_AUTODEV* pAutoDev) {
     41            pAutoDev->FirstCall = 1;
   \                     GUI_MEMDEV_CreateAuto:
   \   00000000   0110A0E3           MOV      R1,#+1
   \   00000004   1010C0E5           STRB     R1,[R0, #+16]
     42            return 0;
   \   00000008   0000A0E3           MOV      R0,#+0
   \   0000000C   1EFF2FE1           BX       LR               ;; return
     43          }
     44          
     45          /*********************************************************************
     46          *
     47          *       GUI_MEMDEV_DeleteAuto
     48          */

   \                                 In section .text, align 4, keep-with-next
     49          void GUI_MEMDEV_DeleteAuto(GUI_AUTODEV* pAutoDev) {
     50            GUI_USE_PARA(pAutoDev);
     51          }
   \                     GUI_MEMDEV_DeleteAuto:
   \   00000000   1EFF2FE1           BX       LR               ;; return
     52          
     53          /*********************************************************************
     54          *
     55          *       GUI_MEMDEV_DrawAuto
     56          */

   \                                 In section .text, align 4, keep-with-next
     57          int GUI_MEMDEV_DrawAuto(GUI_AUTODEV* pAutoDev, GUI_AUTODEV_INFO* pAutoDevInfo, GUI_CALLBACK_VOID_P* pfDraw, void* pData) {
   \                     GUI_MEMDEV_DrawAuto:
   \   00000000   F0472DE9           PUSH     {R4-R10,LR}
   \   00000004   08D04DE2           SUB      SP,SP,#+8
   \   00000008   0040A0E1           MOV      R4,R0
   \   0000000C   0150A0E1           MOV      R5,R1
   \   00000010   0260A0E1           MOV      R6,R2
   \   00000014   0370A0E1           MOV      R7,R3
     58            GUI_RECT rTemp;
     59            GUI_HMEM hMem = GUI_MEASDEV_Create();
   \   00000018   ........           BL       GUI_MEASDEV_Create
   \   0000001C   0090B0E1           MOVS     R9,R0
     60            if (!hMem) {
     61              return 1;
   \   00000020   0100A003           MOVEQ    R0,#+1
   \   00000024   3400000A           BEQ      ??GUI_MEMDEV_DrawAuto_0
     62            }
     63            GUI_MEASDEV_Select(hMem);
   \   00000028   ........           BL       GUI_MEASDEV_Select
     64            pAutoDevInfo->IsMeasurement = 1;
   \   0000002C   01A0A0E3           MOV      R10,#+1
   \   00000030   01A0C5E5           STRB     R10,[R5, #+1]
     65            /* Measure area to draw */
     66            if (pAutoDev->FirstCall) {
   \   00000034   1000D4E5           LDRB     R0,[R4, #+16]
   \   00000038   0080A0E3           MOV      R8,#+0
   \   0000003C   000050E3           CMP      R0,#+0
   \   00000040   0E00000A           BEQ      ??GUI_MEMDEV_DrawAuto_1
     67              /* Measure complete area */
     68              pAutoDevInfo->DrawFixed = 1;
   \   00000044   00A0C5E5           STRB     R10,[R5, #+0]
     69              pfDraw(pData);
   \   00000048   0700A0E1           MOV      R0,R7
   \   0000004C   36FF2FE1           BLX      R6
     70              GUI_MEASDEV_GetRect(hMem, &pAutoDev->rView);
   \   00000050   0410A0E1           MOV      R1,R4
   \   00000054   0900A0E1           MOV      R0,R9
   \   00000058   ........           BL       GUI_MEASDEV_GetRect
     71              /* Measure variable area only */
     72              GUI_MEASDEV_ClearRect(hMem);
   \   0000005C   0900A0E1           MOV      R0,R9
   \   00000060   ........           BL       GUI_MEASDEV_ClearRect
     73              pAutoDevInfo->DrawFixed = 0;
   \   00000064   0080C5E5           STRB     R8,[R5, #+0]
     74              pfDraw(pData);
   \   00000068   0700A0E1           MOV      R0,R7
   \   0000006C   36FF2FE1           BLX      R6
     75              GUI_MEASDEV_GetRect(hMem, &pAutoDev->rPrev);
   \   00000070   081084E2           ADD      R1,R4,#+8
   \   00000074   0900A0E1           MOV      R0,R9
   \   00000078   ........           BL       GUI_MEASDEV_GetRect
   \   0000007C   100000EA           B        ??GUI_MEMDEV_DrawAuto_2
     76            } else {
     77              /* Measure variable area only */
     78              pfDraw(pData);
   \                     ??GUI_MEMDEV_DrawAuto_1:
   \   00000080   0700A0E1           MOV      R0,R7
   \   00000084   36FF2FE1           BLX      R6
     79              GUI_MEASDEV_GetRect(hMem, &pAutoDev->rView);
   \   00000088   0410A0E1           MOV      R1,R4
   \   0000008C   0900A0E1           MOV      R0,R9
   \   00000090   ........           BL       GUI_MEASDEV_GetRect
     80              rTemp = pAutoDev->rView;
   \   00000094   0D00A0E1           MOV      R0,SP
   \   00000098   0410A0E1           MOV      R1,R4
   \   0000009C   0820A0E3           MOV      R2,#+8
   \   000000A0   ........           BL       __aeabi_memcpy
     81              GUI_MergeRect(&pAutoDev->rView, &pAutoDev->rView, &pAutoDev->rPrev);
   \   000000A4   082084E2           ADD      R2,R4,#+8
   \   000000A8   0410A0E1           MOV      R1,R4
   \   000000AC   0400A0E1           MOV      R0,R4
   \   000000B0   ........           BL       GUI_MergeRect
     82              pAutoDev->rPrev = rTemp;
   \   000000B4   080084E2           ADD      R0,R4,#+8
   \   000000B8   0D10A0E1           MOV      R1,SP
   \   000000BC   0820A0E3           MOV      R2,#+8
   \   000000C0   ........           BL       __aeabi_memcpy
     83            }
     84            GUI_MEASDEV_Delete(hMem);
   \                     ??GUI_MEMDEV_DrawAuto_2:
   \   000000C4   0900A0E1           MOV      R0,R9
   \   000000C8   ........           BL       GUI_MEASDEV_Delete
     85            pAutoDevInfo->IsMeasurement = 0;
   \   000000CC   0180C5E5           STRB     R8,[R5, #+1]
     86            /* Do the actual drawing */
     87            pAutoDevInfo->DrawFixed = 1;
   \   000000D0   00A0C5E5           STRB     R10,[R5, #+0]
     88            if (GUI_MEMDEV_Draw(&pAutoDev->rView, pfDraw, pData, 0, GUI_MEMDEV_NOTRANS)) {
   \   000000D4   00A08DE5           STR      R10,[SP, #+0]
   \   000000D8   0030A0E3           MOV      R3,#+0
   \   000000DC   0720A0E1           MOV      R2,R7
   \   000000E0   0610A0E1           MOV      R1,R6
   \   000000E4   0400A0E1           MOV      R0,R4
   \   000000E8   ........           BL       GUI_MEMDEV_Draw
   \   000000EC   000050E3           CMP      R0,#+0
     89              return 1;
     90            }
     91            pAutoDevInfo->DrawFixed = 0;
   \   000000F0   0080C505           STRBEQ   R8,[R5, #+0]
   \   000000F4   0100A013           MOVNE    R0,#+1
     92            pAutoDev->FirstCall = 0;
   \   000000F8   1080C405           STRBEQ   R8,[R4, #+16]
     93            return 0;
   \                     ??GUI_MEMDEV_DrawAuto_0:
   \   000000FC   08D08DE2           ADD      SP,SP,#+8        ;; stack cleaning
   \   00000100   F087BDE8           POP      {R4-R10,PC}      ;; return
     94          }
     95          
     96          #else
     97          
     98          void GUIDEV_Auto(void);
     99          void GUIDEV_Auto(void) {} /* avoid empty object files */
    100          
    101          #endif /* GUI_SUPPORT_MEMDEV */
    102          
    103          /*************************** end of file ****************************/

   Maximum stack usage in bytes:

     Function              .cstack
     --------              -------
     GUI_MEMDEV_CreateAuto      0
     GUI_MEMDEV_DeleteAuto      0
     GUI_MEMDEV_DrawAuto       40


   Section sizes:

     Function/Label        Bytes
     --------------        -----
     GUI_MEMDEV_CreateAuto   16
     GUI_MEMDEV_DeleteAuto    4
     GUI_MEMDEV_DrawAuto    260

 
 280 bytes in section .text
 
 280 bytes of CODE memory

Errors: none
Warnings: none
