###############################################################################
#                                                                             #
# IAR ANSI C/C++ Compiler V6.10.2.52244/W32 for ARM     19/Nov/2015  13:11:41 #
# Copyright 1999-2010 IAR Systems AB.                                         #
#                                                                             #
#    Cpu mode     =  arm                                                      #
#    Endian       =  little                                                   #
#    Source file  =  C:\DUII\TargetHW\GUI\HEADER_Default.c                    #
#    Command line =  C:\DUII\TargetHW\GUI\HEADER_Default.c -D DEBUG=1 -D      #
#                    SDRAM_TARGET=1 -D USB_IS_HIGH_SPEED -D NOPROFILER -D     #
#                    OS_TRACE=0 -D OS_VIEW_ENABLE=0 -lCN                      #
#                    C:\DUII\TargetHW\Release\List\ -o                        #
#                    C:\DUII\TargetHW\Release\Obj\ --endian=little            #
#                    --cpu=ARM926EJ-S -e --fpu=None --dlib_config             #
#                    "C:\Program Files (x86)\IAR Systems\Embedded Workbench   #
#                    6.0\arm\INC\c\DLib_Config_Normal.h" -I                   #
#                    C:\DUII\TargetHW\Application\SEGGERDEMO\ -I              #
#                    C:\DUII\TargetHW\Application\SEGGERDEMO\Src\ -I          #
#                    C:\DUII\TargetHW\Config\ -I C:\DUII\TargetHW\FS\ -I      #
#                    C:\DUII\TargetHW\GUI\ -I C:\DUII\TargetHW\Inc\ -I        #
#                    C:\DUII\TargetHW\OS\ -I C:\DUII\TargetHW\Setup\ -I       #
#                    \DUII\DUII\ -I \DUII\DUII\Graphics\ --cpu_mode arm -Ohs  #
#                    --use_c++_inline --require_prototypes                    #
#    List file    =  C:\DUII\TargetHW\Release\List\HEADER_Default.lst         #
#    Object file  =  C:\DUII\TargetHW\Release\Obj\HEADER_Default.o            #
#                                                                             #
#                                                                             #
###############################################################################

C:\DUII\TargetHW\GUI\HEADER_Default.c
      1          /*********************************************************************
      2          *                SEGGER Microcontroller GmbH & Co. KG                *
      3          *        Solutions for real time microcontroller applications        *
      4          **********************************************************************
      5          *                                                                    *
      6          *        (c) 1996 - 2010  SEGGER Microcontroller GmbH & Co. KG       *
      7          *                                                                    *
      8          *        Internet: www.segger.com    Support:  support@segger.com    *
      9          *                                                                    *
     10          **********************************************************************
     11          
     12          ** emWin V5.06 - Graphical user interface for embedded applications **
     13          emWin is protected by international copyright laws.   Knowledge of the
     14          source code may not be used to write a similar product.  This file may
     15          only be used in accordance with a license and should not be re-
     16          distributed in any way. We appreciate your understanding and fairness.
     17          ----------------------------------------------------------------------
     18          File        : HEADER_Default.c
     19          Purpose     : Implementation of header widget
     20          ---------------------------END-OF-HEADER------------------------------
     21          */
     22          
     23          #include "HEADER_Private.h"
     24          
     25          #if GUI_WINSUPPORT
     26          
     27          /*********************************************************************
     28          *
     29          *       Public code
     30          *
     31          **********************************************************************
     32          */
     33          /*********************************************************************
     34          *
     35          *       HEADER_SetDefautCursor
     36          */

   \                                 In section .text, align 4, keep-with-next
     37          const GUI_CURSOR GUI_UNI_PTR * HEADER_SetDefaultCursor(const GUI_CURSOR * pCursor) {
     38            const GUI_CURSOR GUI_UNI_PTR * pOldCursor = HEADER__pDefaultCursor;
   \                     HEADER_SetDefaultCursor:
   \   00000000   ........           LDR      R2,??DataTable13
   \   00000004   001092E5           LDR      R1,[R2, #+0]
     39            HEADER__pDefaultCursor = pCursor;
   \   00000008   000082E5           STR      R0,[R2, #+0]
     40            return pOldCursor;
   \   0000000C   0100A0E1           MOV      R0,R1
   \   00000010   1EFF2FE1           BX       LR               ;; return
     41          }
     42          
     43          /*********************************************************************
     44          *
     45          *       HEADER_SetDefaultBkColor
     46          */

   \                                 In section .text, align 4, keep-with-next
     47          GUI_COLOR HEADER_SetDefaultBkColor(GUI_COLOR Color) {
     48            GUI_COLOR OldColor = HEADER__DefaultProps.BkColor;
   \                     HEADER_SetDefaultBkColor:
   \   00000000   ........           LDR      R2,??DataTable13_1
   \   00000004   041092E5           LDR      R1,[R2, #+4]
     49            HEADER__DefaultProps.BkColor = Color;
   \   00000008   040082E5           STR      R0,[R2, #+4]
     50            return OldColor;
   \   0000000C   0100A0E1           MOV      R0,R1
   \   00000010   1EFF2FE1           BX       LR               ;; return
     51          }
     52          
     53          /*********************************************************************
     54          *
     55          *       HEADER_SetDefaultTextColor
     56          */

   \                                 In section .text, align 4, keep-with-next
     57          GUI_COLOR HEADER_SetDefaultTextColor(GUI_COLOR Color) {
     58            GUI_COLOR OldColor = HEADER__DefaultProps.TextColor;
   \                     HEADER_SetDefaultTextColor:
   \   00000000   ........           LDR      R2,??DataTable13_1
   \   00000004   081092E5           LDR      R1,[R2, #+8]
     59            HEADER__DefaultProps.TextColor = Color;
   \   00000008   080082E5           STR      R0,[R2, #+8]
     60            return OldColor;
   \   0000000C   0100A0E1           MOV      R0,R1
   \   00000010   1EFF2FE1           BX       LR               ;; return
     61          }
     62          
     63          /*********************************************************************
     64          *
     65          *       HEADER_SetDefaultArrowColor
     66          */

   \                                 In section .text, align 4, keep-with-next
     67          GUI_COLOR HEADER_SetDefaultArrowColor(GUI_COLOR Color) {
     68            GUI_COLOR OldColor = HEADER__DefaultProps.ArrowColor;
   \                     HEADER_SetDefaultArrowColor:
   \   00000000   ........           LDR      R2,??DataTable13_1
   \   00000004   0C1092E5           LDR      R1,[R2, #+12]
     69            HEADER__DefaultProps.ArrowColor = Color;
   \   00000008   0C0082E5           STR      R0,[R2, #+12]
     70            return OldColor;
   \   0000000C   0100A0E1           MOV      R0,R1
   \   00000010   1EFF2FE1           BX       LR               ;; return
     71          }
     72          
     73          /*********************************************************************
     74          *
     75          *       HEADER_SetDefaultBorderH
     76          */

   \                                 In section .text, align 4, keep-with-next
     77          int HEADER_SetDefaultBorderH(int Spacing) {
     78            int OldSpacing = HEADER__DefaultBorderH;
   \                     HEADER_SetDefaultBorderH:
   \   00000000   ........           LDR      R2,??DataTable13_2
   \   00000004   001092E5           LDR      R1,[R2, #+0]
     79            HEADER__DefaultBorderH = Spacing;
   \   00000008   000082E5           STR      R0,[R2, #+0]
     80            return OldSpacing;
   \   0000000C   0100A0E1           MOV      R0,R1
   \   00000010   1EFF2FE1           BX       LR               ;; return
     81          }
     82          
     83          /*********************************************************************
     84          *
     85          *       HEADER_SetDefaultBorderV
     86          */

   \                                 In section .text, align 4, keep-with-next
     87          int HEADER_SetDefaultBorderV(int Spacing) {
     88            int OldSpacing = HEADER__DefaultBorderV;
   \                     HEADER_SetDefaultBorderV:
   \   00000000   ........           LDR      R2,??DataTable13_3
   \   00000004   001092E5           LDR      R1,[R2, #+0]
     89            HEADER__DefaultBorderV = Spacing;
   \   00000008   000082E5           STR      R0,[R2, #+0]
     90            return OldSpacing;
   \   0000000C   0100A0E1           MOV      R0,R1
   \   00000010   1EFF2FE1           BX       LR               ;; return
     91          }
     92          
     93          /*********************************************************************
     94          *
     95          *       HEADER_SetDefaultFont
     96          */

   \                                 In section .text, align 4, keep-with-next
     97          const GUI_FONT GUI_UNI_PTR * HEADER_SetDefaultFont(const GUI_FONT GUI_UNI_PTR * pFont) {
     98            const GUI_FONT GUI_UNI_PTR * pOldFont = HEADER__DefaultProps.pFont;
   \                     HEADER_SetDefaultFont:
   \   00000000   ........           LDR      R2,??DataTable13_1
   \   00000004   001092E5           LDR      R1,[R2, #+0]
     99            HEADER__DefaultProps.pFont = pFont;
   \   00000008   000082E5           STR      R0,[R2, #+0]
    100            return pOldFont;
   \   0000000C   0100A0E1           MOV      R0,R1
   \   00000010   1EFF2FE1           BX       LR               ;; return
    101          }
    102          
    103          /*********************************************************************
    104          *
    105          *       HEADER_GetDefaultCursor
    106          */

   \                                 In section .text, align 4, keep-with-next
    107          const GUI_CURSOR GUI_UNI_PTR *  HEADER_GetDefaultCursor(void) { 
    108            return HEADER__pDefaultCursor;
   \                     HEADER_GetDefaultCursor:
   \   00000000   ........           LDR      R0,??DataTable13
   \   00000004   000090E5           LDR      R0,[R0, #+0]
   \   00000008   1EFF2FE1           BX       LR               ;; return
    109          }
    110          
    111          /*********************************************************************
    112          *
    113          *       HEADER_GetDefaultBkColor
    114          */

   \                                 In section .text, align 4, keep-with-next
    115          GUI_COLOR HEADER_GetDefaultBkColor(void) {
    116            return HEADER__DefaultProps.BkColor;
   \                     HEADER_GetDefaultBkColor:
   \   00000000   ........           LDR      R0,??DataTable13_1
   \   00000004   040090E5           LDR      R0,[R0, #+4]
   \   00000008   1EFF2FE1           BX       LR               ;; return
    117          }
    118          
    119          /*********************************************************************
    120          *
    121          *       HEADER_GetDefaultArrowColor
    122          */

   \                                 In section .text, align 4, keep-with-next
    123          GUI_COLOR HEADER_GetDefaultArrowColor(void) {
    124            return HEADER__DefaultProps.ArrowColor;
   \                     HEADER_GetDefaultArrowColor:
   \   00000000   ........           LDR      R0,??DataTable13_1
   \   00000004   0C0090E5           LDR      R0,[R0, #+12]
   \   00000008   1EFF2FE1           BX       LR               ;; return
    125          }
    126          
    127          /*********************************************************************
    128          *
    129          *       HEADER_GetDefaultTextColor
    130          */

   \                                 In section .text, align 4, keep-with-next
    131          GUI_COLOR HEADER_GetDefaultTextColor(void) {
    132            return HEADER__DefaultProps.TextColor;
   \                     HEADER_GetDefaultTextColor:
   \   00000000   ........           LDR      R0,??DataTable13_1
   \   00000004   080090E5           LDR      R0,[R0, #+8]
   \   00000008   1EFF2FE1           BX       LR               ;; return
    133          }
    134          
    135          /*********************************************************************
    136          *
    137          *       HEADER_GetDefaultBorderH
    138          */

   \                                 In section .text, align 4, keep-with-next
    139          int HEADER_GetDefaultBorderH(void) {
    140            return HEADER__DefaultBorderH;
   \                     HEADER_GetDefaultBorderH:
   \   00000000   ........           LDR      R0,??DataTable13_2
   \   00000004   000090E5           LDR      R0,[R0, #+0]
   \   00000008   1EFF2FE1           BX       LR               ;; return
    141          }
    142          
    143          /*********************************************************************
    144          *
    145          *       HEADER_GetDefaultBorderV
    146          */

   \                                 In section .text, align 4, keep-with-next
    147          int HEADER_GetDefaultBorderV(void) {
    148            return HEADER__DefaultBorderV;
   \                     HEADER_GetDefaultBorderV:
   \   00000000   ........           LDR      R0,??DataTable13_3
   \   00000004   000090E5           LDR      R0,[R0, #+0]
   \   00000008   1EFF2FE1           BX       LR               ;; return
    149          }
    150          
    151          /*********************************************************************
    152          *
    153          *       HEADER_GetDefaultFont
    154          */

   \                                 In section .text, align 4, keep-with-next
    155          const GUI_FONT GUI_UNI_PTR * HEADER_GetDefaultFont(void) {
    156            return HEADER__DefaultProps.pFont;
   \                     HEADER_GetDefaultFont:
   \   00000000   ........           LDR      R0,??DataTable13_1
   \   00000004   000090E5           LDR      R0,[R0, #+0]
   \   00000008   1EFF2FE1           BX       LR               ;; return
    157          }

   \                                 In section .text, align 4, keep-with-next
   \                     ??DataTable13:
   \   00000000   ........           DC32     HEADER__pDefaultCursor

   \                                 In section .text, align 4, keep-with-next
   \                     ??DataTable13_1:
   \   00000000   ........           DC32     HEADER__DefaultProps

   \                                 In section .text, align 4, keep-with-next
   \                     ??DataTable13_2:
   \   00000000   ........           DC32     HEADER__DefaultBorderH

   \                                 In section .text, align 4, keep-with-next
   \                     ??DataTable13_3:
   \   00000000   ........           DC32     HEADER__DefaultBorderV
    158          
    159          #else /* avoid empty object files */
    160          
    161          void HEADER_Default_C(void);
    162          void HEADER_Default_C(void){}
    163          
    164          #endif  /* #if GUI_WINSUPPORT */

   Maximum stack usage in bytes:

     Function                    .cstack
     --------                    -------
     HEADER_GetDefaultArrowColor      0
     HEADER_GetDefaultBkColor         0
     HEADER_GetDefaultBorderH         0
     HEADER_GetDefaultBorderV         0
     HEADER_GetDefaultCursor          0
     HEADER_GetDefaultFont            0
     HEADER_GetDefaultTextColor       0
     HEADER_SetDefaultArrowColor      0
     HEADER_SetDefaultBkColor         0
     HEADER_SetDefaultBorderH         0
     HEADER_SetDefaultBorderV         0
     HEADER_SetDefaultCursor          0
     HEADER_SetDefaultFont            0
     HEADER_SetDefaultTextColor       0


   Section sizes:

     Function/Label              Bytes
     --------------              -----
     HEADER_SetDefaultCursor       20
     HEADER_SetDefaultBkColor      20
     HEADER_SetDefaultTextColor    20
     HEADER_SetDefaultArrowColor   20
     HEADER_SetDefaultBorderH      20
     HEADER_SetDefaultBorderV      20
     HEADER_SetDefaultFont         20
     HEADER_GetDefaultCursor       12
     HEADER_GetDefaultBkColor      12
     HEADER_GetDefaultArrowColor   12
     HEADER_GetDefaultTextColor    12
     HEADER_GetDefaultBorderH      12
     HEADER_GetDefaultBorderV      12
     HEADER_GetDefaultFont         12
     ??DataTable13                  4
     ??DataTable13_1                4
     ??DataTable13_2                4
     ??DataTable13_3                4

 
 240 bytes in section .text
 
 240 bytes of CODE memory

Errors: none
Warnings: none
