###############################################################################
#                                                                             #
# IAR ANSI C/C++ Compiler V6.10.2.52244/W32 for ARM     02/Feb/2016  18:29:24 #
# Copyright 1999-2010 IAR Systems AB.                                         #
#                                                                             #
#    Cpu mode     =  arm                                                      #
#    Endian       =  little                                                   #
#    Source file  =  C:\DUII\DUII\PersonalizeScreens.c                        #
#    Command line =  C:\DUII\DUII\PersonalizeScreens.c -D DEBUG=1 -D          #
#                    SDRAM_TARGET=1 -D USB_IS_HIGH_SPEED -D NOPROFILER -D     #
#                    OS_TRACE=0 -D OS_VIEW_ENABLE=0 -lCN                      #
#                    C:\DUII\TargetHW\Release\List\ -o                        #
#                    C:\DUII\TargetHW\Release\Obj\ --endian=little            #
#                    --cpu=ARM926EJ-S -e --fpu=None --dlib_config             #
#                    "C:\Program Files (x86)\IAR Systems\Embedded Workbench   #
#                    6.0\arm\INC\c\DLib_Config_Normal.h" -I                   #
#                    C:\DUII\TargetHW\Application\SEGGERDEMO\ -I              #
#                    C:\DUII\TargetHW\Application\SEGGERDEMO\Src\ -I          #
#                    C:\DUII\TargetHW\Config\ -I C:\DUII\TargetHW\FS\ -I      #
#                    C:\DUII\TargetHW\GUI\ -I C:\DUII\TargetHW\Inc\ -I        #
#                    C:\DUII\TargetHW\OS\ -I C:\DUII\TargetHW\Setup\ -I       #
#                    \DUII\DUII\ -I \DUII\DUII\Graphics\ --cpu_mode arm -Ohs  #
#                    --use_c++_inline --require_prototypes                    #
#    List file    =  C:\DUII\TargetHW\Release\List\PersonalizeScreens.lst     #
#    Object file  =  C:\DUII\TargetHW\Release\Obj\PersonalizeScreens.o        #
#                                                                             #
#                                                                             #
###############################################################################

C:\DUII\DUII\PersonalizeScreens.c
      1          //
      2          //	AnalogInputScale.c
      3          //
      4          //	Gathers user input for analog input scale settings
      5          //
      6          #include <stdio.h>
      7          #include <stdlib.h>
      8          #include <string.h>
      9          #include <ctype.h>
     10          #include "DUII.h"
     11          #include "GUI.h"
     12          #include "commondefs.h"
     13          #include "ConfigScreens.h"
     14          #include "DataHandler.h"
     15          #include "InputScreens.h"
     16          #include "KeyboardAccess.h"
     17          #include "PersonalizeScreens.h"
     18          #include "Utilities.h"
     19          #include "GeneralConfig.h"
     20          #include "SystemSettingsScreens.h"
     21          #include "FlashReadWrite.h"
     22          #ifndef _WINDOWS
     23          #include "dataflash.h"
     24          #include "FS.h"
     25          #include "WiFiFunctions.h"
     26          #endif
     27          
     28          /*********************************************************************
     29          *
     30          *       Public Variables
     31          *
     32          **********************************************************************
     33          */
     34          
     35          /*********************************************************************
     36          *
     37          *       External data and code
     38          *
     39          **********************************************************************
     40          */
     41          extern GUI_CONST_STORAGE GUI_BITMAP bmthreewayarrow;
     42          
     43          /*********************************************************************
     44          *
     45          *       Local Prototypes
     46          *
     47          **********************************************************************
     48          */
     49          #ifdef _WINDOWS
     50          void trimCR(char *pStr);
     51          #endif
     52          
     53          void PersonalizeSaveData(const void *type);
     54          int PasswordTooSmallPopUp(void);
     55          
     56          
     57          /*********************************************************************
     58          *
     59          *       Tables and Constants
     60          *
     61          **********************************************************************
     62          */
     63          #define	DEFAULT_WIFI_PASSWORD	"traqmate"
     64          
     65          
     66          /*********************************************************************
     67          *
     68          *       Local Variables
     69          *
     70          **********************************************************************
     71          */

   \                                 In section .bss, align 4
     72          static WM_HWIN hPersonalizeEntryScreen;
   \                     hPersonalizeEntryScreen:
   \   00000000                      DS8 4
   \   00000004                      DS8 4
   \   00000008                      DS8 4
   \   0000000C                      DS8 1
   \   0000000D                      DS8 3
     73          static void *pDataEntryKeyboard = 0;
     74          static char *pDest;
     75          char workString[51];
   \                     workString:
   \   00000010                      DS8 52
     76          static enum PERSONALIZE_SCREEN_ID screenID;
     77          
     78          /*********************************************************************
     79          *
     80          *       Public code
     81          *
     82          **********************************************************************
     83          */

   \                                 In section .text, align 4, keep-with-next
     84          WM_HWIN GetPersonalizeEntryWindowHandle(void)
     85          {
     86          	return hPersonalizeEntryScreen;
   \                     GetPersonalizeEntryWindowHandle:
   \   00000000   ........           LDR      R0,??DataTable25_2
   \   00000004   000090E5           LDR      R0,[R0, #+0]
   \   00000008   1EFF2FE1           BX       LR               ;; return
     87          }
     88          

   \                                 In section .text, align 4, keep-with-next
     89          void SetPersonalizeEntryWindowHandle(WM_HWIN hWin)
     90          {
     91          	hPersonalizeEntryScreen = hWin;
   \                     SetPersonalizeEntryWindowHandle:
   \   00000000   ........           LDR      R1,??DataTable25_2
   \   00000004   000081E5           STR      R0,[R1, #+0]
     92          }
   \   00000008   1EFF2FE1           BX       LR               ;; return
     93          
     94          

   \                                 In section .text, align 4, keep-with-next
     95          void PersonalizeSaveData(const void *pData)
     96          {
   \                     PersonalizeSaveData:
   \   00000000   30402DE9           PUSH     {R4,R5,LR}
     97          	switch (screenID)
   \   00000004   ........           LDR      R4,??DataTable25_2
   \   00000008   04D04DE2           SUB      SP,SP,#+4
   \   0000000C   0C00D4E5           LDRB     R0,[R4, #+12]
   \   00000010   020040E2           SUB      R0,R0,#+2
   \   00000014   040050E3           CMP      R0,#+4
   \   00000018   00F18F90           ADDLS    PC,PC,R0, LSL #+2
   \                     ??PersonalizeSaveData_0:
   \   0000001C   4800008A           BHI      ??PersonalizeSaveData_1
   \   00000020   030000EA           B        ??PersonalizeSaveData_2
   \   00000024   020000EA           B        ??PersonalizeSaveData_2
   \   00000028   040000EA           B        ??PersonalizeSaveData_3
   \   0000002C   1A0000EA           B        ??PersonalizeSaveData_4
   \   00000030   300000EA           B        ??PersonalizeSaveData_5
     98          	{
     99          	case OWNER_SCREEN:
    100          	case CONTACTINFO_SCREEN:
    101          		break;
    102          
    103          	case WIFI_NAME_SCREEN:
    104          #ifndef _WINDOWS
    105          		WiFiSetup(true);
   \                     ??PersonalizeSaveData_2:
   \   00000034   0100A0E3           MOV      R0,#+1
   \   00000038   ........           BL       WiFiSetup
    106          #endif
    107          		break;
   \   0000003C   400000EA           B        ??PersonalizeSaveData_1
    108          
    109          	case WIFI_PASSWORD_SCREEN:
    110          #ifndef _WINDOWS
    111          		WiFiSetup(true);
    112          #endif
    113          		break;
    114          
    115          	case SERIALNUMBER_SCREEN:
    116          		{
    117          			unsigned int tempi;
    118          
    119          			if ((tempi = atoi(workString)) == 0x7FFFFFFF)	// atoi and atol will only handle up to 0x7FFFFFFF!
   \                     ??PersonalizeSaveData_3:
   \   00000040   0A20A0E3           MOV      R2,#+10
   \   00000044   0010A0E3           MOV      R1,#+0
   \   00000048   100084E2           ADD      R0,R4,#+16
   \   0000004C   ........           BL       __iar_Stoul
   \   00000050   8014E0E3           MVN      R1,#-2147483648
   \   00000054   010050E1           CMP      R0,R1
   \   00000058   0C00001A           BNE      ??PersonalizeSaveData_6
    120          			{
    121          				char ch, size;
    122          
    123          				size = strlen(workString);
   \   0000005C   100084E2           ADD      R0,R4,#+16
   \   00000060   ........           BL       strlen
   \   00000064   FF0000E2           AND      R0,R0,#0xFF
    124          				ch = workString[size-1];
   \   00000068   040080E0           ADD      R0,R0,R4
   \   0000006C   0F50D0E5           LDRB     R5,[R0, #+15]
    125          				workString[size-1] = 0;
   \   00000070   0010A0E3           MOV      R1,#+0
   \   00000074   0F10C0E5           STRB     R1,[R0, #+15]
    126          				tempi = atoi(workString);
    127          				tempi = (tempi * 10) + (ch - '0');
   \   00000078   0A20A0E3           MOV      R2,#+10
   \   0000007C   100084E2           ADD      R0,R4,#+16
   \   00000080   ........           BL       __iar_Stoul
   \   00000084   0A10A0E3           MOV      R1,#+10
   \   00000088   302045E2           SUB      R2,R5,#+48
   \   0000008C   912020E0           MLA      R0,R1,R0,R2
    128          			}
    129          			unsavedSysData.unitInfo.serno = tempi;
   \                     ??PersonalizeSaveData_6:
   \   00000090   ........           LDR      R1,??DataTable25_3
   \   00000094   600081E5           STR      R0,[R1, #+96]
    130          		}
    131          		break;
   \   00000098   290000EA           B        ??PersonalizeSaveData_1
    132          	case BUILDDATE_SCREEN:
    133          		unsavedSysData.unitInfo.week = atoi(workString) / 100;
   \                     ??PersonalizeSaveData_4:
   \   0000009C   ........           LDR      R5,??DataTable25_3
   \   000000A0   0A20A0E3           MOV      R2,#+10
   \   000000A4   0010A0E3           MOV      R1,#+0
   \   000000A8   100084E2           ADD      R0,R4,#+16
   \   000000AC   ........           BL       __iar_Stoul
   \   000000B0   ........           LDR      R1,??DataTable25_4  ;; 0x51eb851f
   \   000000B4   9021C1E0           SMULL    R2,R1,R0,R1
    134          		unsavedSysData.unitInfo.year = atoi(workString) % 100;
   \   000000B8   0A20A0E3           MOV      R2,#+10
   \   000000BC   C102B0E1           ASRS     R0,R1,#+5
   \   000000C0   01008042           ADDMI    R0,R0,#+1
   \   000000C4   640085E5           STR      R0,[R5, #+100]
   \   000000C8   0010A0E3           MOV      R1,#+0
   \   000000CC   100084E2           ADD      R0,R4,#+16
   \   000000D0   ........           BL       __iar_Stoul
   \   000000D4   ........           LDR      R1,??DataTable25_4  ;; 0x51eb851f
   \   000000D8   9021C1E0           SMULL    R2,R1,R0,R1
   \   000000DC   6420A0E3           MOV      R2,#+100
   \   000000E0   C112B0E1           ASRS     R1,R1,#+5
   \   000000E4   01108142           ADDMI    R1,R1,#+1
   \   000000E8   920101E0           MUL      R1,R2,R1
   \   000000EC   010040E0           SUB      R0,R0,R1
   \   000000F0   680085E5           STR      R0,[R5, #+104]
    135          		break;
   \   000000F4   120000EA           B        ??PersonalizeSaveData_1
    136          	case TEMP_SCREEN:
    137          		{
    138          			int temp;
    139          
    140          			temp = atoi(workString);
   \                     ??PersonalizeSaveData_5:
   \   000000F8   0A20A0E3           MOV      R2,#+10
   \   000000FC   0010A0E3           MOV      R1,#+0
   \   00000100   100084E2           ADD      R0,R4,#+16
   \   00000104   ........           BL       __iar_Stoul
    141          			if (sysData.units == STD)
   \   00000108   ........           LDR      R5,??DataTable25_5
   \   0000010C   641095E5           LDR      R1,[R5, #+100]
   \   00000110   000051E3           CMP      R1,#+0
   \   00000114   0900001A           BNE      ??PersonalizeSaveData_7
    142          			{
    143          				float tempF = f_to_c((float)temp);
   \   00000118   ........           BL       __aeabi_i2f
   \   0000011C   ........           BL       f_to_c
    144          				if (tempF > 0.0)
   \   00000120   0010A0E3           MOV      R1,#+0
   \   00000124   ........           BL       __aeabi_cfrcmple
   \   00000128   0040A0E1           MOV      R4,R0
    145          					tempF += 0.5;
   \   0000012C   FC05A033           MOVCC    R0,#+1056964608
    146          				else tempF -= 0.5;
   \   00000130   BF04A023           MOVCS    R0,#-1090519040
   \   00000134   0410A0E1           MOV      R1,R4
   \   00000138   ........           BL       __aeabi_fadd
    147          				temp = (int)tempF;
   \   0000013C   ........           BL       __aeabi_f2iz
    148          			}
    149          			sysData.calibrationTemperature = temp;
   \                     ??PersonalizeSaveData_7:
   \   00000140   D80085E5           STR      R0,[R5, #+216]
    150          		}
    151          		break;
    152          	}
    153          
    154          #ifdef _WINDOWS
    155          	// For PC simulation save the owner name and phone number in a file to be displayed
    156          	// at power up.  This data was not previously being saved in the PC simulation.
    157          {
    158          	FILE *pFile;
    159          
    160          	if ((pFile = fopen(PERSONALIZE_FILE_NAME, "w")) != NULL)
    161          	{
    162          		fputs(unsavedSysData.unitInfo.owner, pFile);
    163          		fputc('\n', pFile);
    164          		fputs(unsavedSysData.unitInfo.phone, pFile);
    165          		fputc('\n', pFile);
    166          		fputs(unsavedSysData.unitInfo.wifiName, pFile);
    167          		fputc('\n', pFile);
    168          		fputs(unsavedSysData.unitInfo.wifiPass, pFile);
    169          		fputc('\n', pFile);
    170          		fclose(pFile);
    171          	}
    172          }
    173          #else
    174          	WriteUserData();			// Save the data to on-board flash
   \                     ??PersonalizeSaveData_1:
   \   00000144   04D08DE2           ADD      SP,SP,#+4
   \   00000148   3040BDE8           POP      {R4,R5,LR}
   \   0000014C   ........           B        WriteUserData    ;; tailcall
    175          #endif
    176          }
    177          
    178          #ifdef _WINDOWS
    179          
    180          void LoadPersonalizationData(void)
    181          {
    182          	FILE *pTestFile;
    183          
    184          	// Load up porsonalization data
    185          	if ((pTestFile = fopen(PERSONALIZE_FILE_NAME, "r")) != NULL)
    186          	{
    187          		if (fgets(unsavedSysData.unitInfo.owner, OWNER_LEN, pTestFile) != NULL)
    188          			trimCR(unsavedSysData.unitInfo.owner);
    189          		if (fgets(unsavedSysData.unitInfo.phone, PHONE_LEN, pTestFile) != NULL)
    190          			trimCR(unsavedSysData.unitInfo.phone);
    191          		if (fgets(unsavedSysData.unitInfo.wifiName, WIFI_LEN, pTestFile) != NULL)
    192          			trimCR(unsavedSysData.unitInfo.wifiName);
    193          		if (fgets(unsavedSysData.unitInfo.wifiPass, WIFI_LEN, pTestFile) != NULL)
    194          			trimCR(unsavedSysData.unitInfo.wifiPass);
    195          		fclose(pTestFile);
    196          
    197          		// Validate data - particularly wifiPass as that may have been uninitialized data  
    198          		// since it may have been past the end of the old "name" field string.
    199          		if (!(isalnum(unsavedSysData.unitInfo.wifiName[0])))
    200          			unsavedSysData.unitInfo.wifiName[0] = '\0';
    201          		if (!(isalnum(unsavedSysData.unitInfo.wifiPass[0])))
    202          			unsavedSysData.unitInfo.wifiPass[0] = '\0';
    203          	}
    204          }
    205          
    206          void trimCR(char *pStr)
    207          {
    208          	int len;
    209          
    210          	len = strlen(pStr);
    211          	if (len != 0)
    212          	{
    213          		pStr += len - 1;
    214          		if (*pStr == '\n')
    215          			*pStr = 0;
    216          	}
    217          }
    218          
    219          #endif
    220          
    221          

   \                                 In section .text, align 4, keep-with-next
    222          void PersonalizeEntryCB(WM_MESSAGE * pMsg)
    223          {
   \                     PersonalizeEntryCB:
   \   00000000   F0402DE9           PUSH     {R4-R7,LR}
   \   00000004   0040A0E1           MOV      R4,R0
    224          	switch(pMsg->MsgId)
   \   00000008   000094E5           LDR      R0,[R4, #+0]
   \   0000000C   0CD04DE2           SUB      SP,SP,#+12
   \   00000010   010050E2           SUBS     R0,R0,#+1
   \   00000014   4300000A           BEQ      ??PersonalizeEntryCB_0
   \   00000018   0E0050E2           SUBS     R0,R0,#+14
   \   0000001C   3A00000A           BEQ      ??PersonalizeEntryCB_1
   \   00000020   0B0050E2           SUBS     R0,R0,#+11
   \   00000024   0A00000A           BEQ      ??PersonalizeEntryCB_2
   \   00000028   010050E2           SUBS     R0,R0,#+1
   \   0000002C   0400000A           BEQ      ??PersonalizeEntryCB_3
   \   00000030   010050E2           SUBS     R0,R0,#+1
   \   00000034   0600000A           BEQ      ??PersonalizeEntryCB_2
   \   00000038   F70050E2           SUBS     R0,R0,#+247
   \   0000003C   2700000A           BEQ      ??PersonalizeEntryCB_4
   \   00000040   360000EA           B        ??PersonalizeEntryCB_5
    225          	{
    226          		case KB_CANCEL_MSG:
    227          			ReturnToPersonalizationScreen(hPersonalizeEntryScreen);
   \                     ??PersonalizeEntryCB_3:
   \   00000044   ........           LDR      R0,??DataTable25_2
   \   00000048   000090E5           LDR      R0,[R0, #+0]
   \                     ??PersonalizeEntryCB_6:
   \   0000004C   ........           BL       ReturnToPersonalizationScreen
    228          			break;
   \   00000050   340000EA           B        ??PersonalizeEntryCB_0
    229          
    230          		case KB_SAVE_MSG:
    231          		case KB_SAVE_AND_EXIT_MSG:
    232          			if (screenID == WIFI_PASSWORD_SCREEN)
   \                     ??PersonalizeEntryCB_2:
   \   00000054   ........           LDR      R5,??DataTable25_2
   \   00000058   0C00D5E5           LDRB     R0,[R5, #+12]
   \   0000005C   030050E3           CMP      R0,#+3
   \   00000060   1A00001A           BNE      ??PersonalizeEntryCB_7
    233          			{
    234          				if (strlen(unsavedSysData.unitInfo.wifiPass) < 8)
   \   00000064   ........           LDR      R6,??DataTable25_3
   \   00000068   440086E2           ADD      R0,R6,#+68
   \   0000006C   ........           BL       strlen
   \   00000070   080050E3           CMP      R0,#+8
   \   00000074   1500002A           BCS      ??PersonalizeEntryCB_7
    235          				{
    236          					// display popup
    237          					if (PasswordTooSmallPopUp() == GUI_ID_OK)
   \   00000078   0200A0E3           MOV      R0,#+2
   \   0000007C   ........           BL       SetPopupDefaults
   \   00000080   ........           LDR      R7,??DataTable25_6
   \   00000084   0A00A0E3           MOV      R0,#+10
   \   00000088   04008DE5           STR      R0,[SP, #+4]
   \   0000008C   00008DE5           STR      R0,[SP, #+0]
   \   00000090   003097E5           LDR      R3,[R7, #+0]
   \   00000094   ........           LDR      R2,??DataTable25_7
   \   00000098   0610A0E3           MOV      R1,#+6
   \   0000009C   ............       ADRL     R0,PasswordTooSmall
   \              ....        
   \   000000A4   ........           BL       GUI_ExecDialogBox
   \   000000A8   010050E3           CMP      R0,#+1
   \   000000AC   0300001A           BNE      ??PersonalizeEntryCB_8
    238          					{
    239          						// Must redisplay the keyboard
    240          						DisplayNewKeyboardScreen(WIFI_PASSWORD_SCREEN, hPersonalizationScreen);
   \   000000B0   001097E5           LDR      R1,[R7, #+0]
   \   000000B4   0300A0E3           MOV      R0,#+3
   \   000000B8   ........           BL       DisplayNewKeyboardScreen
    241          						break;
   \   000000BC   190000EA           B        ??PersonalizeEntryCB_0
    242          					}
    243          					else strcpy(unsavedSysData.unitInfo.wifiPass, DEFAULT_WIFI_PASSWORD);
   \                     ??PersonalizeEntryCB_8:
   \   000000C0   0920A0E3           MOV      R2,#+9
   \   000000C4   ........           ADR      R1,`?<Constant "traqmate">`
   \   000000C8   440086E2           ADD      R0,R6,#+68
   \   000000CC   ........           BL       __aeabi_memcpy4
    244          				}
    245          			}
    246          			PersonalizeSaveData(pMsg->Data.p);
   \                     ??PersonalizeEntryCB_7:
   \   000000D0   0C0094E5           LDR      R0,[R4, #+12]
   \   000000D4   ........           BL       PersonalizeSaveData
    247          			ReturnToPersonalizationScreen(hPersonalizeEntryScreen);
   \   000000D8   000095E5           LDR      R0,[R5, #+0]
   \   000000DC   DAFFFFEA           B        ??PersonalizeEntryCB_6
    248          			break;
    249          
    250          		case WM_TIMER:
    251          			if (pMsg->Data.v == hScreenTimer)
   \                     ??PersonalizeEntryCB_4:
   \   000000E0   ........           LDR      R0,??DataTable25_8
   \   000000E4   0C1094E5           LDR      R1,[R4, #+12]
   \   000000E8   000090E5           LDR      R0,[R0, #+0]
   \   000000EC   000051E1           CMP      R1,R0
   \   000000F0   0C00001A           BNE      ??PersonalizeEntryCB_0
    252          			{
    253          				WM_RestartTimer(hScreenTimer, SETUP_SCREEN_REFRESH_TIME);
   \   000000F4   7D10A0E3           MOV      R1,#+125
   \   000000F8   ........           BL       WM_RestartTimer
    254          				WM_InvalidateRect(pMsg->hWin, &BannerRect);
   \   000000FC   ........           LDR      R1,??DataTable25_9
   \   00000100   040094E5           LDR      R0,[R4, #+4]
   \   00000104   ........           BL       WM_InvalidateRect
   \   00000108   060000EA           B        ??PersonalizeEntryCB_0
    255          			}
    256          			break;
    257          
    258          		case WM_CREATE:
    259          			PersonalizeIgnoreNextKeyRelease();
    260          			break;
    261          
    262          		case WM_PAINT:
    263          			if (GetScreenType() == GEAR_RATIOS)
   \                     ??PersonalizeEntryCB_1:
   \   0000010C   ........           BL       GetScreenType
   \   00000110   130050E3           CMP      R0,#+19
   \   00000114   0300001A           BNE      ??PersonalizeEntryCB_0
    264          			{
    265          				DrawSignalStrength();
   \   00000118   ........           BL       DrawSignalStrength
   \   0000011C   010000EA           B        ??PersonalizeEntryCB_0
    266          			}
    267          			break;
    268          
    269          		default:
    270          			WM_DefaultProc(pMsg);
   \                     ??PersonalizeEntryCB_5:
   \   00000120   0400A0E1           MOV      R0,R4
   \   00000124   ........           BL       WM_DefaultProc
    271          	}
    272          }
   \                     ??PersonalizeEntryCB_0:
   \   00000128   0CD08DE2           ADD      SP,SP,#+12       ;; stack cleaning
   \   0000012C   F080BDE8           POP      {R4-R7,PC}       ;; return
    273          
    274          

   \                                 In section .text, align 4, keep-with-next
    275          static const GUI_WIDGET_CREATE_INFO PasswordTooSmall[] = {
   \                     PasswordTooSmall:
   \   00000000                      ; Initializer data, 144 bytes
   \   00000000   ............       DC32 FRAMEWIN_CreateIndirect, `?<Constant "Settings Error">`
   \              ....        
   \   00000008   000032001400       DC16 0, 50, 20, 360, 220, 0
   \              6801DC000000
   \   00000014   00000000....       DC32 0, TEXT_CreateIndirect, `?<Constant "The WiFi Password mus...">`
   \              ............
   \   00000020   000000000A00       DC16 0, 0, 10, 350, 30, 2
   \              5E011E000200
   \   0000002C   00000000           DC8 0, 0, 0, 0
   \   00000030   ............       DC32 TEXT_CreateIndirect, `?<Constant "8 characters long. Pl...">`
   \              ....        
   \   00000038   000000002800       DC16 0, 0, 40, 350, 30, 2
   \              5E011E000200
   \   00000044   00000000           DC8 0, 0, 0, 0
   \   00000048   ............       DC32 TEXT_CreateIndirect, `?<Constant "longer password or se...">`
   \              ....        
   \   00000050   000000004600       DC16 0, 0, 70, 350, 30, 2
   \              5E011E000200
   \   0000005C   00000000           DC8 0, 0, 0, 0
   \   00000060   ............       DC32 BUTTON_CreateIndirect, `?<Constant "EDIT">`
   \              ....        
   \   00000068   01001E007300       DC16 1, 30, 115, 100, 60
   \              64003C00    
   \   00000072   000000000000       DC8 0, 0, 0, 0, 0, 0
   \   00000078   ............       DC32 BUTTON_CreateIndirect, `?<Constant "USE DEFAULT">`
   \              ....        
   \   00000080   0200AA007300       DC16 2, 170, 115, 150, 60
   \              96003C00    
   \   0000008A   000000000000       DC8 0, 0, 0, 0, 0, 0
    276          	{ FRAMEWIN_CreateIndirect, "Settings Error", 0, 50, 20, 360, 220, 0, 0 },
    277          	{ TEXT_CreateIndirect, "The WiFi Password must be at least", 0, 0, 10, 350, 30, TEXT_CF_HCENTER },
    278          	{ TEXT_CreateIndirect, "8 characters long. Please enter a", 0, 0, 40, 350, 30, TEXT_CF_HCENTER },
    279          	{ TEXT_CreateIndirect, "longer password or select default.",      0, 0, 70, 350, 30, TEXT_CF_HCENTER },
    280          	{ BUTTON_CreateIndirect, "EDIT", GUI_ID_OK, 30, 115, 100, 60 },
    281          	{ BUTTON_CreateIndirect, "USE DEFAULT", GUI_ID_CANCEL,   170, 115, 150, 60 },
    282          };
    283          
    284          
    285          //
    286          // Returns	GUI_ID_OK to go back and edit password again or
    287          //			GUI_ID_CANCEL - to accept the default password
    288          //

   \                                 In section .text, align 4, keep-with-next
    289          int PasswordTooSmallPopUp(void)
    290          {
   \                     PasswordTooSmallPopUp:
   \   00000000   00402DE9           PUSH     {LR}
   \   00000004   0CD04DE2           SUB      SP,SP,#+12
    291          	SetPopupDefaults(ERROR_POPUP);
   \   00000008   0200A0E3           MOV      R0,#+2
   \   0000000C   ........           BL       SetPopupDefaults
    292          	return GUI_ExecDialogBox(PasswordTooSmall, GUI_COUNTOF(PasswordTooSmall), &popupCallback, hPersonalizationScreen, 10, 10);
   \   00000010   0A00A0E3           MOV      R0,#+10
   \   00000014   04008DE5           STR      R0,[SP, #+4]
   \   00000018   00008DE5           STR      R0,[SP, #+0]
   \   0000001C   ........           LDR      R0,??DataTable25_6
   \   00000020   ........           LDR      R2,??DataTable25_7
   \   00000024   003090E5           LDR      R3,[R0, #+0]
   \   00000028   0610A0E3           MOV      R1,#+6
   \   0000002C   ............       ADRL     R0,PasswordTooSmall
   \              ....        
   \   00000034   ........           BL       GUI_ExecDialogBox
   \   00000038   0CD08DE2           ADD      SP,SP,#+12       ;; stack cleaning
   \   0000003C   0080BDE8           POP      {PC}             ;; return
    293          }
    294          
    295          

   \                                 In section .text, align 4, keep-with-next
    296          void DisplayNewKeyboardScreen(enum PERSONALIZE_SCREEN_ID id, GUI_HWIN hPrev)
    297          {
   \                     DisplayNewKeyboardScreen:
   \   00000000   70402DE9           PUSH     {R4-R6,LR}
   \   00000004   0040A0E1           MOV      R4,R0
   \   00000008   10D04DE2           SUB      SP,SP,#+16
   \   0000000C   0100B0E1           MOVS     R0,R1
    298          	char *pTitle;
    299          	int size, lock;
    300          	Keyboard_Type type;
    301          
    302          	if (hPrev)
   \   00000010   0000000A           BEQ      ??DisplayNewKeyboardScreen_1
    303          		WM_DeleteWindow(hPrev);
   \   00000014   ........           BL       WM_DeleteWindow
    304          
    305          	SetScreenType(PERSONALIZE_ENTRY_SCREEN_TYPE);
   \                     ??DisplayNewKeyboardScreen_1:
   \   00000018   1C00A0E3           MOV      R0,#+28
   \   0000001C   ........           BL       SetScreenType
    306          
    307          	hPersonalizeEntryScreen = WM_CreateWindow(0, 0, XSIZE_PHYS, YSIZE_PHYS, WM_CF_SHOW, PersonalizeEntryCB, 0);
   \   00000020   0000A0E3           MOV      R0,#+0
   \   00000024   08008DE5           STR      R0,[SP, #+8]
   \   00000028   ........           LDR      R0,??DataTable25_10
   \   0000002C   ........           LDR      R5,??DataTable25_2
   \   00000030   04008DE5           STR      R0,[SP, #+4]
   \   00000034   0200A0E3           MOV      R0,#+2
   \   00000038   00008DE5           STR      R0,[SP, #+0]
   \   0000003C   443FA0E3           MOV      R3,#+272
   \   00000040   782FA0E3           MOV      R2,#+480
   \   00000044   0010A0E3           MOV      R1,#+0
   \   00000048   0000A0E3           MOV      R0,#+0
   \   0000004C   ........           BL       WM_CreateWindow
   \   00000050   000085E5           STR      R0,[R5, #+0]
    308          		
    309          	if (pDataEntryKeyboard)
   \   00000054   040095E5           LDR      R0,[R5, #+4]
   \   00000058   000050E3           CMP      R0,#+0
   \   0000005C   0000000A           BEQ      ??DisplayNewKeyboardScreen_2
    310          		DestroyKeyboard(pDataEntryKeyboard);
   \   00000060   ........           BL       DestroyKeyboard
    311          
    312          	switch (screenID = id)
   \                     ??DisplayNewKeyboardScreen_2:
   \   00000064   010044E2           SUB      R0,R4,#+1
   \   00000068   0C40C5E5           STRB     R4,[R5, #+12]
   \   0000006C   050050E3           CMP      R0,#+5
   \   00000070   00F18F90           ADDLS    PC,PC,R0, LSL #+2
   \                     ??DisplayNewKeyboardScreen_0:
   \   00000074   0500008A           BHI      ??DisplayNewKeyboardScreen_3
   \   00000078   0B0000EA           B        ??DisplayNewKeyboardScreen_4
   \   0000007C   100000EA           B        ??DisplayNewKeyboardScreen_5
   \   00000080   150000EA           B        ??DisplayNewKeyboardScreen_6
   \   00000084   170000EA           B        ??DisplayNewKeyboardScreen_7
   \   00000088   200000EA           B        ??DisplayNewKeyboardScreen_8
   \   0000008C   2C0000EA           B        ??DisplayNewKeyboardScreen_9
    313          	{
    314          	default:
    315          	case OWNER_SCREEN:
    316          		pTitle = "Enter Owner Name";
    317          		pDest = unsavedSysData.unitInfo.owner;
   \                     ??DisplayNewKeyboardScreen_3:
   \   00000090   ........           LDR      R0,??DataTable25_11
   \   00000094   ........           ADR      R6,`?<Constant "Enter Owner Name">`
   \                     ??DisplayNewKeyboardScreen_10:
   \   00000098   080085E5           STR      R0,[R5, #+8]
    318          		size = OWNER_LEN-1;
   \   0000009C   1300A0E3           MOV      R0,#+19
    319          		type = ALPHA;
   \   000000A0   0120A0E3           MOV      R2,#+1
    320          		lock = false;
   \                     ??DisplayNewKeyboardScreen_11:
   \   000000A4   0030A0E3           MOV      R3,#+0
    321          		break;
   \   000000A8   390000EA           B        ??DisplayNewKeyboardScreen_12
    322          	case CONTACTINFO_SCREEN:
    323          		pTitle = "Enter Contact Info";
    324          		pDest = unsavedSysData.unitInfo.phone;
   \                     ??DisplayNewKeyboardScreen_4:
   \   000000AC   ........           LDR      R0,??DataTable25_12
   \   000000B0   ........           ADR      R6,`?<Constant "Enter Contact Info">`
   \   000000B4   080085E5           STR      R0,[R5, #+8]
    325          		size = PHONE_LEN-1;
   \   000000B8   1300A0E3           MOV      R0,#+19
    326          		type = NUMERIC;
   \   000000BC   0220A0E3           MOV      R2,#+2
    327          		lock = false;
   \   000000C0   F7FFFFEA           B        ??DisplayNewKeyboardScreen_11
    328          		break;
    329          	case WIFI_NAME_SCREEN:
    330          		pTitle = "Enter Wifi Name";
    331          		pDest = unsavedSysData.unitInfo.wifiName;
   \                     ??DisplayNewKeyboardScreen_5:
   \   000000C4   ........           LDR      R0,??DataTable25_13
   \   000000C8   ........           ADR      R6,`?<Constant "Enter Wifi Name">`
   \   000000CC   080085E5           STR      R0,[R5, #+8]
    332          		size = WIFI_LEN-1;
   \   000000D0   1300A0E3           MOV      R0,#+19
    333          		type = ALPHA;
   \   000000D4   0120A0E3           MOV      R2,#+1
    334          		lock = false;
   \   000000D8   F1FFFFEA           B        ??DisplayNewKeyboardScreen_11
    335          		break;
    336          	case WIFI_PASSWORD_SCREEN:
    337          		pTitle = "Enter Wifi Password";
    338          		pDest = unsavedSysData.unitInfo.wifiPass;
   \                     ??DisplayNewKeyboardScreen_6:
   \   000000DC   ........           LDR      R0,??DataTable25_14
   \   000000E0   ........           ADR      R6,`?<Constant "Enter Wifi Password">`
   \   000000E4   EBFFFFEA           B        ??DisplayNewKeyboardScreen_10
    339          		size = WIFI_LEN-1;
    340          		type = ALPHA;
    341          		lock = false;
    342          		break;
    343          	case SERIALNUMBER_SCREEN:
    344          		pTitle = "Enter Serial Number";
    345          		pDest = workString;
   \                     ??DisplayNewKeyboardScreen_7:
   \   000000E8   100085E2           ADD      R0,R5,#+16
   \   000000EC   080085E5           STR      R0,[R5, #+8]
    346          		sprintf(workString, "%u", unsavedSysData.unitInfo.serno);
   \   000000F0   ........           LDR      R0,??DataTable25_3
   \   000000F4   ........           ADR      R6,`?<Constant "Enter Serial Number">`
   \   000000F8   602090E5           LDR      R2,[R0, #+96]
   \   000000FC   ........           ADR      R1,??DataTable25  ;; 0x25, 0x75, 0x00, 0x00
   \   00000100   100085E2           ADD      R0,R5,#+16
   \   00000104   ........           BL       sprintf
    347          		size = 10;
   \   00000108   0A00A0E3           MOV      R0,#+10
    348          		type = NUMERIC;
   \   0000010C   1E0000EA           B        ??DisplayNewKeyboardScreen_13
    349          		lock = true;
    350          		break;
    351          	case BUILDDATE_SCREEN:
    352          		pTitle = "Enter Build Date wwyy";
    353          		pDest = workString;
   \                     ??DisplayNewKeyboardScreen_8:
   \   00000110   100085E2           ADD      R0,R5,#+16
   \   00000114   080085E5           STR      R0,[R5, #+8]
    354          		sprintf(workString, "%02d%02d", unsavedSysData.unitInfo.week, unsavedSysData.unitInfo.year);
   \   00000118   ........           LDR      R0,??DataTable25_3
   \   0000011C   683090E5           LDR      R3,[R0, #+104]
   \   00000120   642090E5           LDR      R2,[R0, #+100]
   \   00000124   ........           ADR      R6,`?<Constant "Enter Build Date wwyy">`
   \   00000128   ........           ADR      R1,`?<Constant "%02d%02d">`
   \   0000012C   100085E2           ADD      R0,R5,#+16
   \   00000130   ........           BL       sprintf
    355          		trim(workString);
   \   00000134   100085E2           ADD      R0,R5,#+16
   \   00000138   ........           BL       trim
    356          		size = 4;
   \   0000013C   0400A0E3           MOV      R0,#+4
    357          		type = NUMERIC;
   \   00000140   110000EA           B        ??DisplayNewKeyboardScreen_13
    358          		lock = true;
    359          		break;
    360          	case TEMP_SCREEN:
    361          		{
    362          			int temp;
    363          
    364          			temp = sysData.calibrationTemperature;
   \                     ??DisplayNewKeyboardScreen_9:
   \   00000144   ........           LDR      R0,??DataTable25_5
   \   00000148   D82090E5           LDR      R2,[R0, #+216]
    365          			if (sysData.units == METRIC)
   \   0000014C   640090E5           LDR      R0,[R0, #+100]
   \   00000150   010050E3           CMP      R0,#+1
    366          			{
    367          				pTitle = "Enter current temp in C (integer only)";
   \   00000154   ........           ADREQ    R6,`?<Constant "Enter current temp in...">`
   \   00000158   0500000A           BEQ      ??DisplayNewKeyboardScreen_14
    368          			}
    369          			else
    370          			{
    371          				pTitle = "Enter current temp in F (integer only)";
   \   0000015C   ........           ADR      R6,`?<Constant "Enter current temp in...">_1`
    372          				temp = (int)c_to_f((float)temp);	// Temp stored in C
   \   00000160   0200A0E1           MOV      R0,R2
   \   00000164   ........           BL       __aeabi_i2f
   \   00000168   ........           BL       c_to_f
   \   0000016C   ........           BL       __aeabi_f2iz
   \   00000170   0020A0E1           MOV      R2,R0
    373          			}
    374          			sprintf(workString, "%d", temp);
   \                     ??DisplayNewKeyboardScreen_14:
   \   00000174   ........           ADR      R1,??DataTable25_1  ;; 0x25, 0x64, 0x00, 0x00
   \   00000178   100085E2           ADD      R0,R5,#+16
   \   0000017C   ........           BL       sprintf
    375          			pDest = workString;
   \   00000180   100085E2           ADD      R0,R5,#+16
   \   00000184   080085E5           STR      R0,[R5, #+8]
    376          
    377          		//	trim(workString);		// DO NOT trim - truncates 100 to 1!!!
    378          			size = 3;
   \   00000188   0300A0E3           MOV      R0,#+3
    379          			type = NUMERIC;
   \                     ??DisplayNewKeyboardScreen_13:
   \   0000018C   0220A0E3           MOV      R2,#+2
    380          			lock = true;
   \   00000190   0130A0E3           MOV      R3,#+1
    381          		}
    382          		break;
    383          	}
    384          
    385          	pDataEntryKeyboard = CreateKeyboard(pTitle, pDest, type, lock, size, id, hPersonalizeEntryScreen, true);
   \                     ??DisplayNewKeyboardScreen_12:
   \   00000194   0110A0E3           MOV      R1,#+1
   \   00000198   0C108DE5           STR      R1,[SP, #+12]
   \   0000019C   001095E5           LDR      R1,[R5, #+0]
   \   000001A0   00008DE5           STR      R0,[SP, #+0]
   \   000001A4   08108DE5           STR      R1,[SP, #+8]
   \   000001A8   04408DE5           STR      R4,[SP, #+4]
   \   000001AC   081095E5           LDR      R1,[R5, #+8]
   \   000001B0   0600A0E1           MOV      R0,R6
   \   000001B4   ........           BL       CreateKeyboard
   \   000001B8   040085E5           STR      R0,[R5, #+4]
    386          
    387          }
   \   000001BC   10D08DE2           ADD      SP,SP,#+16
   \   000001C0   7080BDE8           POP      {R4-R6,PC}       ;; return
    388          
    389          
    390          

   \                                 In section .text, align 4, keep-with-next
    391          void PersonalizeIgnoreNextKeyRelease(void)
    392          {
    393          }
   \                     PersonalizeIgnoreNextKeyRelease:
   \   00000000   1EFF2FE1           BX       LR               ;; return
    394          

   \                                 In section .text, align 4, keep-with-next
    395          void DeletePersonalizeKeyboards(void)
    396          {
   \                     DeletePersonalizeKeyboards:
   \   00000000   10402DE9           PUSH     {R4,LR}
    397          	if (pDataEntryKeyboard)
   \   00000004   ........           LDR      R4,??DataTable25_2
   \   00000008   040094E5           LDR      R0,[R4, #+4]
   \   0000000C   000050E3           CMP      R0,#+0
   \   00000010   0200000A           BEQ      ??DeletePersonalizeKeyboards_0
    398          	{
    399          		DestroyKeyboard(pDataEntryKeyboard);
   \   00000014   ........           BL       DestroyKeyboard
    400          		pDataEntryKeyboard = 0;
   \   00000018   0000A0E3           MOV      R0,#+0
   \   0000001C   040084E5           STR      R0,[R4, #+4]
    401          	}
    402          }
   \                     ??DeletePersonalizeKeyboards_0:
   \   00000020   1080BDE8           POP      {R4,PC}          ;; return

   \                                 In section .text, align 4, keep-with-next
   \                     ??DataTable25:
   \   00000000   25750000           DC8      0x25, 0x75, 0x00, 0x00

   \                                 In section .text, align 4, keep-with-next
   \                     ??DataTable25_1:
   \   00000000   25640000           DC8      0x25, 0x64, 0x00, 0x00

   \                                 In section .text, align 4, keep-with-next
   \                     ??DataTable25_2:
   \   00000000   ........           DC32     hPersonalizeEntryScreen

   \                                 In section .text, align 4, keep-with-next
   \                     ??DataTable25_3:
   \   00000000   ........           DC32     unsavedSysData

   \                                 In section .text, align 4, keep-with-next
   \                     ??DataTable25_4:
   \   00000000   1F85EB51           DC32     0x51eb851f

   \                                 In section .text, align 4, keep-with-next
   \                     ??DataTable25_5:
   \   00000000   ........           DC32     sysData

   \                                 In section .text, align 4, keep-with-next
   \                     ??DataTable25_6:
   \   00000000   ........           DC32     hPersonalizationScreen

   \                                 In section .text, align 4, keep-with-next
   \                     ??DataTable25_7:
   \   00000000   ........           DC32     popupCallback

   \                                 In section .text, align 4, keep-with-next
   \                     ??DataTable25_8:
   \   00000000   ........           DC32     hScreenTimer

   \                                 In section .text, align 4, keep-with-next
   \                     ??DataTable25_9:
   \   00000000   ........           DC32     BannerRect

   \                                 In section .text, align 4, keep-with-next
   \                     ??DataTable25_10:
   \   00000000   ........           DC32     PersonalizeEntryCB

   \                                 In section .text, align 4, keep-with-next
   \                     ??DataTable25_11:
   \   00000000   ........           DC32     unsavedSysData+0x8

   \                                 In section .text, align 4, keep-with-next
   \                     ??DataTable25_12:
   \   00000000   ........           DC32     unsavedSysData+0x1C

   \                                 In section .text, align 4, keep-with-next
   \                     ??DataTable25_13:
   \   00000000   ........           DC32     unsavedSysData+0x30

   \                                 In section .text, align 4, keep-with-next
   \                     ??DataTable25_14:
   \   00000000   ........           DC32     unsavedSysData+0x44

   \                                 In section .rodata, align 4, keep-with-next
   \                     `?<Constant "Settings Error">`:
   \   00000000                      ; Initializer data, 16 bytes
   \   00000000   53657474696E       DC8 83, 101, 116, 116, 105, 110, 103, 115, 32, 69
   \              67732045    
   \   0000000A   72726F720000       DC8 114, 114, 111, 114, 0, 0

   \                                 In section .rodata, align 4, keep-with-next
   \                     `?<Constant "The WiFi Password mus...">`:
   \   00000000                      ; Initializer data, 36 bytes
   \   00000000   546865205769       DC8 84, 104, 101, 32, 87, 105, 70, 105, 32, 80
   \              46692050    
   \   0000000A   617373776F72       DC8 97, 115, 115, 119, 111, 114, 100, 32, 109, 117
   \              64206D75    
   \   00000014   737420626520       DC8 115, 116, 32, 98, 101, 32, 97, 116, 32, 108
   \              6174206C    
   \   0000001E   656173740000       DC8 101, 97, 115, 116, 0, 0

   \                                 In section .rodata, align 4, keep-with-next
   \                     `?<Constant "8 characters long. Pl...">`:
   \   00000000                      ; Initializer data, 36 bytes
   \   00000000   382063686172       DC8 56, 32, 99, 104, 97, 114, 97, 99, 116, 101
   \              61637465    
   \   0000000A   7273206C6F6E       DC8 114, 115, 32, 108, 111, 110, 103, 46, 32, 80
   \              672E2050    
   \   00000014   6C6561736520       DC8 108, 101, 97, 115, 101, 32, 101, 110, 116, 101
   \              656E7465    
   \   0000001E   722061000000       DC8 114, 32, 97, 0, 0, 0

   \                                 In section .rodata, align 4, keep-with-next
   \                     `?<Constant "longer password or se...">`:
   \   00000000                      ; Initializer data, 36 bytes
   \   00000000   6C6F6E676572       DC8 108, 111, 110, 103, 101, 114, 32, 112, 97, 115
   \              20706173    
   \   0000000A   73776F726420       DC8 115, 119, 111, 114, 100, 32, 111, 114, 32, 115
   \              6F722073    
   \   00000014   656C65637420       DC8 101, 108, 101, 99, 116, 32, 100, 101, 102, 97
   \              64656661    
   \   0000001E   756C742E0000       DC8 117, 108, 116, 46, 0, 0

   \                                 In section .rodata, align 4, keep-with-next
   \                     `?<Constant "EDIT">`:
   \   00000000                      ; Initializer data, 8 bytes
   \   00000000   454449540000       DC8 69, 68, 73, 84, 0, 0, 0, 0
   \              0000        

   \                                 In section .rodata, align 4, keep-with-next
   \                     `?<Constant "USE DEFAULT">`:
   \   00000000                      ; Initializer data, 12 bytes
   \   00000000   555345204445       DC8 85, 83, 69, 32, 68, 69, 70, 65, 85, 76
   \              4641554C    
   \   0000000A   5400               DC8 84, 0

   \                                 In section .rodata, align 4, keep-with-next
   \                     `?<Constant "%u">`:
   \   00000000                      ; Initializer data, 4 bytes
   \   00000000   25750000           DC8 37, 117, 0, 0

   \                                 In section .rodata, align 4, keep-with-next
   \                     `?<Constant "%d">`:
   \   00000000                      ; Initializer data, 4 bytes
   \   00000000   25640000           DC8 37, 100, 0, 0

   \                                 In section .text, align 4, keep-with-next
   \                     `?<Constant "traqmate">`:
   \   00000000                      ; Initializer data, 12 bytes
   \   00000000   747261716D61       DC8 116, 114, 97, 113, 109, 97, 116, 101, 0, 0
   \              74650000    
   \   0000000A   0000               DC8 0, 0

   \                                 In section .text, align 4, keep-with-next
   \                     `?<Constant "Enter Owner Name">`:
   \   00000000                      ; Initializer data, 20 bytes
   \   00000000   456E74657220       DC8 69, 110, 116, 101, 114, 32, 79, 119, 110, 101
   \              4F776E65    
   \   0000000A   72204E616D65       DC8 114, 32, 78, 97, 109, 101, 0, 0, 0, 0
   \              00000000    

   \                                 In section .text, align 4, keep-with-next
   \                     `?<Constant "Enter Contact Info">`:
   \   00000000                      ; Initializer data, 20 bytes
   \   00000000   456E74657220       DC8 69, 110, 116, 101, 114, 32, 67, 111, 110, 116
   \              436F6E74    
   \   0000000A   61637420496E       DC8 97, 99, 116, 32, 73, 110, 102, 111, 0, 0
   \              666F0000    

   \                                 In section .text, align 4, keep-with-next
   \                     `?<Constant "Enter Wifi Name">`:
   \   00000000                      ; Initializer data, 16 bytes
   \   00000000   456E74657220       DC8 69, 110, 116, 101, 114, 32, 87, 105, 102, 105
   \              57696669    
   \   0000000A   204E616D6500       DC8 32, 78, 97, 109, 101, 0

   \                                 In section .text, align 4, keep-with-next
   \                     `?<Constant "Enter Wifi Password">`:
   \   00000000                      ; Initializer data, 20 bytes
   \   00000000   456E74657220       DC8 69, 110, 116, 101, 114, 32, 87, 105, 102, 105
   \              57696669    
   \   0000000A   205061737377       DC8 32, 80, 97, 115, 115, 119, 111, 114, 100, 0
   \              6F726400    

   \                                 In section .text, align 4, keep-with-next
   \                     `?<Constant "Enter Serial Number">`:
   \   00000000                      ; Initializer data, 20 bytes
   \   00000000   456E74657220       DC8 69, 110, 116, 101, 114, 32, 83, 101, 114, 105
   \              53657269    
   \   0000000A   616C204E756D       DC8 97, 108, 32, 78, 117, 109, 98, 101, 114, 0
   \              62657200    

   \                                 In section .text, align 4, keep-with-next
   \                     `?<Constant "Enter Build Date wwyy">`:
   \   00000000                      ; Initializer data, 24 bytes
   \   00000000   456E74657220       DC8 69, 110, 116, 101, 114, 32, 66, 117, 105, 108
   \              4275696C    
   \   0000000A   642044617465       DC8 100, 32, 68, 97, 116, 101, 32, 119, 119, 121
   \              20777779    
   \   00000014   79000000           DC8 121, 0, 0, 0

   \                                 In section .text, align 4, keep-with-next
   \                     `?<Constant "%02d%02d">`:
   \   00000000                      ; Initializer data, 12 bytes
   \   00000000   253032642530       DC8 37, 48, 50, 100, 37, 48, 50, 100, 0, 0
   \              32640000    
   \   0000000A   0000               DC8 0, 0

   \                                 In section .text, align 4, keep-with-next
   \                     `?<Constant "Enter current temp in...">`:
   \   00000000                      ; Initializer data, 40 bytes
   \   00000000   456E74657220       DC8 69, 110, 116, 101, 114, 32, 99, 117, 114, 114
   \              63757272    
   \   0000000A   656E74207465       DC8 101, 110, 116, 32, 116, 101, 109, 112, 32, 105
   \              6D702069    
   \   00000014   6E2043202869       DC8 110, 32, 67, 32, 40, 105, 110, 116, 101, 103
   \              6E746567    
   \   0000001E   6572206F6E6C       DC8 101, 114, 32, 111, 110, 108, 121, 41, 0, 0
   \              79290000    

   \                                 In section .text, align 4, keep-with-next
   \                     `?<Constant "Enter current temp in...">_1`:
   \   00000000                      ; Initializer data, 40 bytes
   \   00000000   456E74657220       DC8 69, 110, 116, 101, 114, 32, 99, 117, 114, 114
   \              63757272    
   \   0000000A   656E74207465       DC8 101, 110, 116, 32, 116, 101, 109, 112, 32, 105
   \              6D702069    
   \   00000014   6E2046202869       DC8 110, 32, 70, 32, 40, 105, 110, 116, 101, 103
   \              6E746567    
   \   0000001E   6572206F6E6C       DC8 101, 114, 32, 111, 110, 108, 121, 41, 0, 0
   \              79290000    
    403          
    404          /*************************** End of file ****************************/
    405          

   Maximum stack usage in bytes:

     Function                       .cstack
     --------                       -------
     DeletePersonalizeKeyboards          8
     DisplayNewKeyboardScreen           32
     GetPersonalizeEntryWindowHandle
                                         0
     PasswordTooSmallPopUp              16
     PersonalizeEntryCB                 32
     PersonalizeIgnoreNextKeyRelease
                                         0
     PersonalizeSaveData                16
     SetPersonalizeEntryWindowHandle
                                         0


   Section sizes:

     Function/Label                           Bytes
     --------------                           -----
     hPersonalizeEntryScreen                    68
     pDataEntryKeyboard
     pDest
     screenID
     workString
     GetPersonalizeEntryWindowHandle
                                                12
     SetPersonalizeEntryWindowHandle
                                                12
     PersonalizeSaveData                       336
     PersonalizeEntryCB                        304
     PasswordTooSmall                          144
     PasswordTooSmallPopUp                      64
     DisplayNewKeyboardScreen                  452
     PersonalizeIgnoreNextKeyRelease
                                                 4
     DeletePersonalizeKeyboards                 36
     ??DataTable25                               4
     ??DataTable25_1                             4
     ??DataTable25_2                             4
     ??DataTable25_3                             4
     ??DataTable25_4                             4
     ??DataTable25_5                             4
     ??DataTable25_6                             4
     ??DataTable25_7                             4
     ??DataTable25_8                             4
     ??DataTable25_9                             4
     ??DataTable25_10                            4
     ??DataTable25_11                            4
     ??DataTable25_12                            4
     ??DataTable25_13                            4
     ??DataTable25_14                            4
     ?<Constant "Settings Error">               16
     ?<Constant "The WiFi Password mus...">     36
     ?<Constant "8 characters long. Pl...">     36
     ?<Constant "longer password or se...">     36
     ?<Constant "EDIT">                          8
     ?<Constant "USE DEFAULT">                  12
     ?<Constant "%u">                            4
     ?<Constant "%d">                            4
     ?<Constant "traqmate">                     12
     ?<Constant "Enter Owner Name">             20
     ?<Constant "Enter Contact Info">           20
     ?<Constant "Enter Wifi Name">              16
     ?<Constant "Enter Wifi Password">          20
     ?<Constant "Enter Serial Number">          20
     ?<Constant "Enter Build Date wwyy">        24
     ?<Constant "%02d%02d">                     12
     ?<Constant "Enter current temp in...">     40
     ?<Constant "Enter current temp in...">_1   40

 
    68 bytes in section .bss
   152 bytes in section .rodata
 1 648 bytes in section .text
 
 1 648 bytes of CODE  memory
   152 bytes of CONST memory
    68 bytes of DATA  memory

Errors: none
Warnings: none
