###############################################################################
#                                                                             #
# IAR ANSI C/C++ Compiler V6.10.2.52244/W32 for ARM     19/Nov/2015  13:16:40 #
# Copyright 1999-2010 IAR Systems AB.                                         #
#                                                                             #
#    Cpu mode     =  arm                                                      #
#    Endian       =  little                                                   #
#    Source file  =  C:\DUII\TargetHW\GUI\WM_GetDialogItem.c                  #
#    Command line =  C:\DUII\TargetHW\GUI\WM_GetDialogItem.c -D DEBUG=1 -D    #
#                    SDRAM_TARGET=1 -D USB_IS_HIGH_SPEED -D NOPROFILER -D     #
#                    OS_TRACE=0 -D OS_VIEW_ENABLE=0 -lCN                      #
#                    C:\DUII\TargetHW\Release\List\ -o                        #
#                    C:\DUII\TargetHW\Release\Obj\ --endian=little            #
#                    --cpu=ARM926EJ-S -e --fpu=None --dlib_config             #
#                    "C:\Program Files (x86)\IAR Systems\Embedded Workbench   #
#                    6.0\arm\INC\c\DLib_Config_Normal.h" -I                   #
#                    C:\DUII\TargetHW\Application\SEGGERDEMO\ -I              #
#                    C:\DUII\TargetHW\Application\SEGGERDEMO\Src\ -I          #
#                    C:\DUII\TargetHW\Config\ -I C:\DUII\TargetHW\FS\ -I      #
#                    C:\DUII\TargetHW\GUI\ -I C:\DUII\TargetHW\Inc\ -I        #
#                    C:\DUII\TargetHW\OS\ -I C:\DUII\TargetHW\Setup\ -I       #
#                    \DUII\DUII\ -I \DUII\DUII\Graphics\ --cpu_mode arm -Ohs  #
#                    --use_c++_inline --require_prototypes                    #
#    List file    =  C:\DUII\TargetHW\Release\List\WM_GetDialogItem.lst       #
#    Object file  =  C:\DUII\TargetHW\Release\Obj\WM_GetDialogItem.o          #
#                                                                             #
#                                                                             #
###############################################################################

C:\DUII\TargetHW\GUI\WM_GetDialogItem.c
      1          /*********************************************************************
      2          *                SEGGER Microcontroller GmbH & Co. KG                *
      3          *        Solutions for real time microcontroller applications        *
      4          **********************************************************************
      5          *                                                                    *
      6          *        (c) 1996 - 2010  SEGGER Microcontroller GmbH & Co. KG       *
      7          *                                                                    *
      8          *        Internet: www.segger.com    Support:  support@segger.com    *
      9          *                                                                    *
     10          **********************************************************************
     11          
     12          ** emWin V5.06 - Graphical user interface for embedded applications **
     13          emWin is protected by international copyright laws.   Knowledge of the
     14          source code may not be used to write a similar product.  This file may
     15          only be used in accordance with a license and should not be re-
     16          distributed in any way. We appreciate your understanding and fairness.
     17          ----------------------------------------------------------------------
     18          File        : WM_GetParent.c
     19          Purpose     : Windows manager, add. module
     20          ----------------------------------------------------------------------
     21          */
     22          
     23          #include "WM_Intern.h"
     24          
     25          #if GUI_WINSUPPORT    /* If 0, WM will not generate any code */
     26          
     27          /*******************************************************************
     28          *
     29          *       Public code
     30          *
     31          ********************************************************************
     32          */
     33          /*******************************************************************
     34          *
     35          *       WM__GetDialogItem
     36          
     37            Recursively scan window and its child windows until dialog item is
     38            found or all children have been scanned.
     39          */

   \                                 In section .text, align 4, keep-with-next
     40          static WM_HWIN _GetDialogItem(WM_HWIN hWin, int Id) {
   \                     _GetDialogItem:
   \   00000000   70402DE9           PUSH     {R4-R6,LR}
   \   00000004   0140A0E1           MOV      R4,R1
     41            WM_HWIN hi;
     42            WM_HWIN r =0;
   \   00000008   0050A0E3           MOV      R5,#+0
     43            WM_Obj* pWin = WM_H2P(hWin);
     44            hi = pWin->hFirstChild;
   \   0000000C   ........           BL       GUI_ALLOC_h2p
   \   00000010   1C6090E5           LDR      R6,[R0, #+28]
   \   00000014   020000EA           B        ??_GetDialogItem_0
     45            while (hi) {
     46              /* This windows Id matching ? */
     47              if (WM_GetId(hi) == Id) {
     48                return hi;
     49              }
     50              /* Any child windows Id matching ? */
     51              if ((r = _GetDialogItem(hi, Id)) != 0) {
     52                break;
     53              }
     54              hi = WM_HANDLE2PTR(hi)->hNext;
   \                     ??_GetDialogItem_1:
   \   00000018   0600A0E1           MOV      R0,R6
   \   0000001C   ........           BL       GUI_ALLOC_h2p
   \   00000020   206090E5           LDR      R6,[R0, #+32]
   \                     ??_GetDialogItem_0:
   \   00000024   000056E3           CMP      R6,#+0
   \   00000028   0A00000A           BEQ      ??_GetDialogItem_2
   \   0000002C   0600A0E1           MOV      R0,R6
   \   00000030   ........           BL       WM_GetId
   \   00000034   040050E1           CMP      R0,R4
   \   00000038   0100001A           BNE      ??_GetDialogItem_3
   \   0000003C   0600A0E1           MOV      R0,R6
   \   00000040   7080BDE8           POP      {R4-R6,PC}
   \                     ??_GetDialogItem_3:
   \   00000044   0410A0E1           MOV      R1,R4
   \   00000048   0600A0E1           MOV      R0,R6
   \   0000004C   ........           BL       _GetDialogItem
   \   00000050   0050B0E1           MOVS     R5,R0
   \   00000054   EFFFFF0A           BEQ      ??_GetDialogItem_1
     55            }
     56            return r;
   \                     ??_GetDialogItem_2:
   \   00000058   0500A0E1           MOV      R0,R5
   \   0000005C   7080BDE8           POP      {R4-R6,PC}       ;; return
     57          }
     58          
     59          /*********************************************************************
     60          *
     61          *       WM_GetDialogItem
     62          */

   \                                 In section .text, align 4, keep-with-next
     63          WM_HWIN WM_GetDialogItem(WM_HWIN hWin, int Id) {
   \                     WM_GetDialogItem:
   \   00000000   70402DE9           PUSH     {R4-R6,LR}
   \   00000004   0040A0E1           MOV      R4,R0
   \   00000008   0150A0E1           MOV      R5,R1
     64            WM_HWIN r = 0;
   \   0000000C   0060A0E3           MOV      R6,#+0
     65            if (hWin) {
   \   00000010   000054E3           CMP      R4,#+0
   \   00000014   1400000A           BEQ      ??WM_GetDialogItem_0
     66              WM_LOCK();
   \   00000018   ........           BL       GUI_Lock
     67              r = _GetDialogItem(hWin, Id);
   \   0000001C   0400A0E1           MOV      R0,R4
   \   00000020   ........           BL       GUI_ALLOC_h2p
   \   00000024   1C4090E5           LDR      R4,[R0, #+28]
   \   00000028   070000EA           B        ??WM_GetDialogItem_1
   \                     ??WM_GetDialogItem_2:
   \   0000002C   0510A0E1           MOV      R1,R5
   \   00000030   0400A0E1           MOV      R0,R4
   \   00000034   ........           BL       _GetDialogItem
   \   00000038   0060B0E1           MOVS     R6,R0
   \   0000003C   0900001A           BNE      ??WM_GetDialogItem_3
   \   00000040   0400A0E1           MOV      R0,R4
   \   00000044   ........           BL       GUI_ALLOC_h2p
   \   00000048   204090E5           LDR      R4,[R0, #+32]
   \                     ??WM_GetDialogItem_1:
   \   0000004C   000054E3           CMP      R4,#+0
   \   00000050   0400000A           BEQ      ??WM_GetDialogItem_3
   \   00000054   0400A0E1           MOV      R0,R4
   \   00000058   ........           BL       WM_GetId
   \   0000005C   050050E1           CMP      R0,R5
   \   00000060   F1FFFF1A           BNE      ??WM_GetDialogItem_2
   \   00000064   0460A0E1           MOV      R6,R4
     68              WM_UNLOCK();
   \                     ??WM_GetDialogItem_3:
   \   00000068   ........           BL       GUI_Unlock
     69            }
     70            return r;
   \                     ??WM_GetDialogItem_0:
   \   0000006C   0600A0E1           MOV      R0,R6
   \   00000070   7080BDE8           POP      {R4-R6,PC}       ;; return
     71          }
     72          
     73          #else                                       /* Avoid empty object files */
     74            void WM_DialogItem_C(void) {}
     75          #endif   /* GUI_WINSUPPORT */
     76          
     77          /*************************** End of file ****************************/

   Maximum stack usage in bytes:

     Function         .cstack
     --------         -------
     WM_GetDialogItem     16
     _GetDialogItem       16


   Section sizes:

     Function/Label   Bytes
     --------------   -----
     _GetDialogItem     96
     WM_GetDialogItem  116

 
 212 bytes in section .text
 
 212 bytes of CODE memory

Errors: none
Warnings: none
