; Listing generated by Microsoft (R) Optimizing Compiler Version 16.00.40219.01 

	TITLE	C:\DUII\DUII\Graphics\5.c
	.686P
	.XMM
	include listing.inc
	.model	flat

INCLUDELIB LIBCMT
INCLUDELIB OLDNAMES

PUBLIC	_bm5
CONST	SEGMENT
_Colors5 DD	00H
	DD	0232323H
	DD	0393939H
	DD	0414141H
	DD	02c2c2cH
	DD	0222222H
	DD	0424242H
	DD	020202H
	DD	0272727H
	DD	0b0b0bH
	DD	0131313H
	DD	0171717H
	DD	050505H
	DD	080808H
	DD	01b1b1bH
	DD	01f1f1fH
	DD	0353535H
	DD	03b3b3bH
	DD	0f0f0fH
	DD	02b2b2bH
	DD	02e2e2eH
	DD	03e3e3eH
	DD	03f3f3fH
	DD	0323232H
	DD	0fff003H
	DD	0fff603H
	DD	03a3b42H
	DD	0fffa03H
	DD	03f3d19H
	DD	0e8da00H
	DD	0fff303H
	DD	0fff103H
	DD	0fff703H
	DD	0fff903H
	DD	0a79d02H
	DD	0c8bc02H
	DD	0fbec03H
	DD	0bH
	DD	0bfb402H
	DD	04a4604H
	DD	0feef02H
	DD	0e0e0aH
	DD	0e0e18H
	DD	0444008H
	DD	010101H
	DD	0c0c06H
	DD	0d0c06H
	DD	0d0d0aH
	DD	0fff203H
	DD	0fffc03H
	DD	0ffff03H
	DD	040404H
	DD	0404040H
	DD	0fff803H
	DD	01H
	DD	070707H
	DD	090909H
	DD	090a14H
	DD	0b0c16H
	DD	0161616H
	DD	0161618H
	DD	0212121H
	DD	02d2d2dH
	DD	0303030H
	DD	0bfb302H
	DD	0feef03H
	DD	0fff403H
	DD	0fff503H
	DD	0fff902H
	DD	0fffe03H
	DD	02H
	DD	0102H
	DD	03H
	DD	030303H
	DD	04H
	DD	05H
	DD	030305H
	DD	06H
	DD	040306H
	DD	050504H
	DD	040407H
	DD	0c0b00H
	DD	090906H
	DD	0d0c07H
	DD	08H
	DD	03040aH
	DD	05050bH
	DD	0cH
	DD	0eH
	DD	01010eH
	DD	0d0c09H
	DD	0f0f09H
	DD	0d0d0cH
	DD	0d0d0dH
	DD	0c0c0fH
	DD	0e0e0eH
	DD	0151405H
	DD	0171604H
	DD	01f1d05H
	DD	015140bH
	DD	012120cH
	DD	010100fH
	DD	015140eH
	DD	01b1b0dH
	DD	030411H
	DD	0c0d11H
	DD	0e0e10H
	DD	0f0f14H
	DD	0d0d18H
	DD	0d0e18H
	DD	0100f19H
	DD	0121212H
	DD	0131212H
	DD	0181810H
	DD	01c1b11H
	DD	0181814H
	DD	011121aH
	DD	0161719H
	DD	014141aH
	DD	012131eH
	DD	014151eH
	DD	0181818H
	DD	019191aH
	DD	019191bH
	DD	01a1a1aH
	DD	01d1d1dH
	DD	01e1e1eH
	DD	0201f12H
	DD	0232107H
	DD	0333107H
	DD	0373405H
	DD	03e3b02H
	DD	03a3708H
	DD	03f3b0bH
	DD	03b390fH
	DD	0212014H
	DD	02b2a13H
	DD	02a291eH
	DD	02d2c1fH
	DD	03f3d17H
	DD	03c3a1bH
	DD	03f3d18H
	DD	0191a23H
	DD	01d1d22H
	DD	0181927H
	DD	01e1f25H
	DD	0202021H
	DD	0222221H
	DD	0212126H
	DD	0232326H
	DD	0252525H
	DD	0262626H
	DD	0242428H
	DD	024252dH
	DD	0282828H
	DD	0292929H
	DD	02a2a2aH
	DD	02b2b2fH
	DD	02c2d2dH
	DD	03c3a27H
	DD	0272831H
	DD	0282938H
	DD	02f3039H
	DD	0313131H
	DD	0333333H
	DD	0343433H
	DD	0343434H
	DD	0373737H
	DD	0313138H
	DD	0323239H
	DD	035353eH
	DD	0383838H
	DD	039393aH
	DD	03a3a3aH
	DD	038383cH
	DD	03c3c3dH
	DD	03d3d3dH
	DD	0423e04H
	DD	0423e06H
	DD	0474202H
	DD	0434007H
	DD	0484401H
	DD	0494504H
	DD	04b4604H
	DD	04b4704H
	DD	04e4a05H
	DD	0464208H
	DD	0504b01H
	DD	0504d0aH
	DD	05f5a0aH
	DD	04d4911H
	DD	0625c02H
	DD	0676001H
	DD	0666002H
	DD	0696302H
	DD	06d6b01H
	DD	0706905H
	DD	03b3c42H
	DD	03f4043H
	DD	0404042H
	DD	0434343H
	DD	0414144H
	DD	0807802H
	DD	0807803H
	DD	0827b02H
	DD	0857d01H
	DD	0857d04H
	DD	0888002H
	DD	0989201H
	DD	09f9502H
	DD	0a79c02H
	DD	0a69d02H
	DD	0a89e02H
	DD	0ada601H
	DD	0aea402H
	DD	0b0a500H
	DD	0b3ab02H
	DD	0b6ab00H
	DD	0baae00H
	DD	0b8ad02H
	DD	0bcb102H
	DD	0c1b602H
	DD	0c7bc02H
	DD	0c9bd01H
	DD	0cbbf01H
	DD	0c8bd02H
	DD	0cec200H
	DD	0cfc303H
	DD	0d1c600H
	DD	0d5c802H
	DD	0dbcf02H
	DD	0dccf01H
	DD	0ddd001H
	DD	0dfd402H
	DD	0e3d501H
	DD	0e1d602H
	DD	0e7da02H
	DD	0e9db00H
	DD	0ebdd00H
	DD	0eddf00H
	DD	0f0e200H
	DD	0f1e303H
	DD	0f4eb00H
	DD	0fcee03H
	DD	0faf200H
	DD	0f9f002H
	DD	0fff102H
	DD	0fef303H
	DD	0fff401H
	DD	0fff802H
	DD	0fffd03H
	DD	0ffff02H
_Pal5	DD	0fcH
	DB	00H
	ORG $+3
	DD	FLAT:_Colors5
_bm5	DW	079H
	DW	023H
	DW	079H
	DW	08H
	DD	FLAT:_ac5
	DD	FLAT:_Pal5
	ORG $+4
_ac5	DB	05H
	DB	05H
	DB	05H
	DB	05H
	DB	05H
	DB	05H
	DB	05H
	DB	05H
	DB	05H
	DB	05H
	DB	05H
	DB	05H
	DB	05H
	DB	05H
	DB	05H
	DB	05H
	DB	05H
	DB	05H
	DB	05H
	DB	05H
	DB	05H
	DB	05H
	DB	05H
	DB	05H
	DB	05H
	DB	05H
	DB	05H
	DB	05H
	DB	05H
	DB	05H
	DB	05H
	DB	05H
	DB	05H
	DB	05H
	DB	05H
	DB	05H
	DB	05H
	DB	05H
	DB	05H
	DB	05H
	DB	05H
	DB	05H
	DB	05H
	DB	05H
	DB	05H
	DB	05H
	DB	05H
	DB	05H
	DB	05H
	DB	05H
	DB	05H
	DB	05H
	DB	05H
	DB	05H
	DB	05H
	DB	05H
	DB	05H
	DB	05H
	DB	05H
	DB	05H
	DB	05H
	DB	05H
	DB	05H
	DB	05H
	DB	05H
	DB	05H
	DB	05H
	DB	05H
	DB	05H
	DB	05H
	DB	05H
	DB	05H
	DB	05H
	DB	05H
	DB	05H
	DB	05H
	DB	05H
	DB	05H
	DB	05H
	DB	05H
	DB	05H
	DB	05H
	DB	05H
	DB	05H
	DB	05H
	DB	05H
	DB	05H
	DB	05H
	DB	05H
	DB	05H
	DB	05H
	DB	05H
	DB	05H
	DB	05H
	DB	05H
	DB	05H
	DB	05H
	DB	05H
	DB	05H
	DB	05H
	DB	05H
	DB	05H
	DB	05H
	DB	05H
	DB	05H
	DB	05H
	DB	05H
	DB	05H
	DB	05H
	DB	05H
	DB	05H
	DB	05H
	DB	05H
	DB	05H
	DB	05H
	DB	05H
	DB	05H
	DB	05H
	DB	05H
	DB	05H
	DB	05H
	DB	01H
	DB	01H
	DB	01H
	DB	01H
	DB	01H
	DB	01H
	DB	01H
	DB	01H
	DB	01H
	DB	01H
	DB	01H
	DB	01H
	DB	01H
	DB	01H
	DB	01H
	DB	01H
	DB	01H
	DB	01H
	DB	01H
	DB	01H
	DB	01H
	DB	01H
	DB	01H
	DB	01H
	DB	01H
	DB	01H
	DB	01H
	DB	01H
	DB	01H
	DB	01H
	DB	01H
	DB	01H
	DB	01H
	DB	01H
	DB	01H
	DB	01H
	DB	01H
	DB	01H
	DB	01H
	DB	01H
	DB	01H
	DB	01H
	DB	01H
	DB	01H
	DB	01H
	DB	01H
	DB	01H
	DB	01H
	DB	01H
	DB	01H
	DB	01H
	DB	01H
	DB	01H
	DB	01H
	DB	01H
	DB	01H
	DB	01H
	DB	01H
	DB	01H
	DB	01H
	DB	01H
	DB	01H
	DB	01H
	DB	01H
	DB	01H
	DB	01H
	DB	01H
	DB	01H
	DB	01H
	DB	01H
	DB	01H
	DB	01H
	DB	01H
	DB	01H
	DB	01H
	DB	01H
	DB	01H
	DB	01H
	DB	01H
	DB	01H
	DB	01H
	DB	01H
	DB	01H
	DB	01H
	DB	01H
	DB	01H
	DB	01H
	DB	01H
	DB	01H
	DB	01H
	DB	01H
	DB	01H
	DB	01H
	DB	01H
	DB	01H
	DB	01H
	DB	01H
	DB	01H
	DB	01H
	DB	01H
	DB	01H
	DB	01H
	DB	01H
	DB	01H
	DB	01H
	DB	01H
	DB	01H
	DB	01H
	DB	01H
	DB	01H
	DB	01H
	DB	01H
	DB	01H
	DB	01H
	DB	01H
	DB	01H
	DB	01H
	DB	01H
	DB	01H
	DB	01H
	DB	01H
	DB	04H
	DB	04H
	DB	04H
	DB	04H
	DB	04H
	DB	04H
	DB	04H
	DB	04H
	DB	04H
	DB	04H
	DB	04H
	DB	04H
	DB	04H
	DB	04H
	DB	04H
	DB	04H
	DB	04H
	DB	04H
	DB	04H
	DB	04H
	DB	04H
	DB	04H
	DB	04H
	DB	04H
	DB	04H
	DB	04H
	DB	04H
	DB	04H
	DB	04H
	DB	04H
	DB	04H
	DB	04H
	DB	04H
	DB	04H
	DB	04H
	DB	04H
	DB	04H
	DB	04H
	DB	04H
	DB	04H
	DB	04H
	DB	04H
	DB	04H
	DB	04H
	DB	04H
	DB	04H
	DB	04H
	DB	04H
	DB	04H
	DB	04H
	DB	04H
	DB	04H
	DB	04H
	DB	04H
	DB	04H
	DB	04H
	DB	04H
	DB	04H
	DB	04H
	DB	04H
	DB	04H
	DB	04H
	DB	04H
	DB	04H
	DB	04H
	DB	04H
	DB	04H
	DB	04H
	DB	04H
	DB	04H
	DB	04H
	DB	04H
	DB	04H
	DB	04H
	DB	04H
	DB	04H
	DB	04H
	DB	04H
	DB	04H
	DB	04H
	DB	04H
	DB	04H
	DB	04H
	DB	04H
	DB	04H
	DB	04H
	DB	04H
	DB	04H
	DB	04H
	DB	04H
	DB	04H
	DB	04H
	DB	04H
	DB	04H
	DB	04H
	DB	04H
	DB	04H
	DB	04H
	DB	04H
	DB	04H
	DB	04H
	DB	04H
	DB	04H
	DB	04H
	DB	04H
	DB	04H
	DB	04H
	DB	04H
	DB	04H
	DB	04H
	DB	04H
	DB	04H
	DB	04H
	DB	04H
	DB	04H
	DB	04H
	DB	04H
	DB	04H
	DB	04H
	DB	04H
	DB	04H
	DB	02H
	DB	02H
	DB	02H
	DB	02H
	DB	02H
	DB	02H
	DB	02H
	DB	02H
	DB	02H
	DB	02H
	DB	02H
	DB	02H
	DB	02H
	DB	02H
	DB	02H
	DB	02H
	DB	02H
	DB	02H
	DB	02H
	DB	02H
	DB	02H
	DB	02H
	DB	02H
	DB	02H
	DB	02H
	DB	02H
	DB	02H
	DB	02H
	DB	02H
	DB	02H
	DB	02H
	DB	02H
	DB	02H
	DB	02H
	DB	02H
	DB	02H
	DB	02H
	DB	02H
	DB	02H
	DB	02H
	DB	02H
	DB	02H
	DB	02H
	DB	02H
	DB	02H
	DB	02H
	DB	02H
	DB	02H
	DB	02H
	DB	02H
	DB	02H
	DB	02H
	DB	02H
	DB	02H
	DB	02H
	DB	02H
	DB	02H
	DB	02H
	DB	02H
	DB	02H
	DB	02H
	DB	02H
	DB	02H
	DB	02H
	DB	02H
	DB	02H
	DB	02H
	DB	02H
	DB	02H
	DB	02H
	DB	02H
	DB	02H
	DB	02H
	DB	02H
	DB	02H
	DB	02H
	DB	02H
	DB	02H
	DB	02H
	DB	02H
	DB	02H
	DB	02H
	DB	02H
	DB	02H
	DB	02H
	DB	02H
	DB	02H
	DB	02H
	DB	02H
	DB	02H
	DB	02H
	DB	02H
	DB	02H
	DB	02H
	DB	02H
	DB	02H
	DB	02H
	DB	02H
	DB	02H
	DB	02H
	DB	02H
	DB	02H
	DB	02H
	DB	02H
	DB	02H
	DB	02H
	DB	02H
	DB	02H
	DB	02H
	DB	02H
	DB	02H
	DB	02H
	DB	02H
	DB	02H
	DB	02H
	DB	02H
	DB	02H
	DB	02H
	DB	02H
	DB	02H
	DB	02H
	DB	03H
	DB	03H
	DB	03H
	DB	03H
	DB	06H
	DB	0c5H
	DB	01aH
	DB	01aH
	DB	01aH
	DB	01aH
	DB	01aH
	DB	01aH
	DB	01aH
	DB	01aH
	DB	01aH
	DB	01aH
	DB	01aH
	DB	01aH
	DB	01aH
	DB	01aH
	DB	01aH
	DB	01aH
	DB	01aH
	DB	01aH
	DB	01aH
	DB	01aH
	DB	0c6H
	DB	06H
	DB	03H
	DB	03H
	DB	03H
	DB	03H
	DB	03H
	DB	03H
	DB	03H
	DB	03H
	DB	03H
	DB	03H
	DB	03H
	DB	03H
	DB	03H
	DB	03H
	DB	03H
	DB	03H
	DB	03H
	DB	03H
	DB	03H
	DB	03H
	DB	03H
	DB	03H
	DB	03H
	DB	03H
	DB	03H
	DB	03H
	DB	03H
	DB	03H
	DB	03H
	DB	03H
	DB	03H
	DB	03H
	DB	03H
	DB	03H
	DB	03H
	DB	03H
	DB	03H
	DB	03H
	DB	03H
	DB	03H
	DB	03H
	DB	03H
	DB	03H
	DB	03H
	DB	03H
	DB	03H
	DB	03H
	DB	03H
	DB	03H
	DB	03H
	DB	03H
	DB	03H
	DB	03H
	DB	03H
	DB	03H
	DB	03H
	DB	03H
	DB	03H
	DB	03H
	DB	03H
	DB	03H
	DB	03H
	DB	03H
	DB	03H
	DB	03H
	DB	03H
	DB	03H
	DB	03H
	DB	03H
	DB	03H
	DB	03H
	DB	03H
	DB	03H
	DB	03H
	DB	03H
	DB	03H
	DB	03H
	DB	03H
	DB	03H
	DB	03H
	DB	03H
	DB	03H
	DB	03H
	DB	03H
	DB	03H
	DB	03H
	DB	03H
	DB	03H
	DB	03H
	DB	03H
	DB	03H
	DB	03H
	DB	03H
	DB	06H
	DB	06H
	DB	06H
	DB	0c8H
	DB	0acH
	DB	08cH
	DB	08dH
	DB	01cH
	DB	01cH
	DB	01cH
	DB	01cH
	DB	01cH
	DB	01cH
	DB	01cH
	DB	01cH
	DB	01cH
	DB	01cH
	DB	01cH
	DB	01cH
	DB	01cH
	DB	01cH
	DB	01cH
	DB	01cH
	DB	01cH
	DB	01cH
	DB	08bH
	DB	09fH
	DB	0c7H
	DB	06H
	DB	06H
	DB	06H
	DB	06H
	DB	06H
	DB	06H
	DB	06H
	DB	06H
	DB	06H
	DB	06H
	DB	06H
	DB	06H
	DB	06H
	DB	06H
	DB	06H
	DB	06H
	DB	06H
	DB	06H
	DB	06H
	DB	06H
	DB	06H
	DB	06H
	DB	06H
	DB	06H
	DB	06H
	DB	06H
	DB	06H
	DB	06H
	DB	06H
	DB	06H
	DB	06H
	DB	06H
	DB	06H
	DB	06H
	DB	06H
	DB	06H
	DB	06H
	DB	06H
	DB	06H
	DB	06H
	DB	06H
	DB	06H
	DB	06H
	DB	06H
	DB	06H
	DB	06H
	DB	06H
	DB	06H
	DB	06H
	DB	06H
	DB	06H
	DB	06H
	DB	06H
	DB	06H
	DB	06H
	DB	06H
	DB	06H
	DB	06H
	DB	06H
	DB	06H
	DB	06H
	DB	06H
	DB	06H
	DB	06H
	DB	06H
	DB	06H
	DB	06H
	DB	06H
	DB	06H
	DB	06H
	DB	06H
	DB	06H
	DB	06H
	DB	06H
	DB	06H
	DB	06H
	DB	06H
	DB	06H
	DB	06H
	DB	06H
	DB	06H
	DB	06H
	DB	06H
	DB	06H
	DB	06H
	DB	06H
	DB	06H
	DB	06H
	DB	06H
	DB	06H
	DB	06H
	DB	06H
	DB	06H
	DB	03H
	DB	03H
	DB	03H
	DB	0c9H
	DB	08aH
	DB	0e2H
	DB	0efH
	DB	01dH
	DB	01dH
	DB	01dH
	DB	01dH
	DB	01dH
	DB	01dH
	DB	01dH
	DB	01dH
	DB	01dH
	DB	01dH
	DB	01dH
	DB	01dH
	DB	01dH
	DB	01dH
	DB	01dH
	DB	01dH
	DB	01dH
	DB	0edH
	DB	0eeH
	DB	0bdH
	DB	0a2H
	DB	03H
	DB	034H
	DB	03H
	DB	03H
	DB	03H
	DB	03H
	DB	03H
	DB	03H
	DB	03H
	DB	03H
	DB	03H
	DB	03H
	DB	03H
	DB	03H
	DB	03H
	DB	03H
	DB	03H
	DB	03H
	DB	03H
	DB	03H
	DB	03H
	DB	03H
	DB	03H
	DB	03H
	DB	03H
	DB	03H
	DB	03H
	DB	03H
	DB	03H
	DB	03H
	DB	03H
	DB	03H
	DB	03H
	DB	03H
	DB	03H
	DB	03H
	DB	03H
	DB	03H
	DB	03H
	DB	03H
	DB	03H
	DB	03H
	DB	03H
	DB	03H
	DB	03H
	DB	03H
	DB	03H
	DB	03H
	DB	03H
	DB	03H
	DB	03H
	DB	03H
	DB	03H
	DB	03H
	DB	03H
	DB	03H
	DB	03H
	DB	03H
	DB	03H
	DB	03H
	DB	03H
	DB	03H
	DB	03H
	DB	03H
	DB	03H
	DB	03H
	DB	03H
	DB	03H
	DB	03H
	DB	03H
	DB	03H
	DB	03H
	DB	03H
	DB	03H
	DB	03H
	DB	03H
	DB	03H
	DB	03H
	DB	03H
	DB	03H
	DB	03H
	DB	03H
	DB	03H
	DB	03H
	DB	03H
	DB	03H
	DB	03H
	DB	03H
	DB	03H
	DB	03H
	DB	03H
	DB	03H
	DB	03H
	DB	016H
	DB	016H
	DB	034H
	DB	0aaH
	DB	0beH
	DB	0f2H
	DB	01bH
	DB	019H
	DB	019H
	DB	019H
	DB	019H
	DB	019H
	DB	019H
	DB	019H
	DB	019H
	DB	019H
	DB	019H
	DB	019H
	DB	019H
	DB	019H
	DB	019H
	DB	019H
	DB	019H
	DB	019H
	DB	035H
	DB	0f4H
	DB	086H
	DB	0a8H
	DB	011H
	DB	015H
	DB	016H
	DB	016H
	DB	016H
	DB	016H
	DB	016H
	DB	016H
	DB	016H
	DB	016H
	DB	016H
	DB	016H
	DB	016H
	DB	016H
	DB	016H
	DB	016H
	DB	016H
	DB	016H
	DB	016H
	DB	016H
	DB	016H
	DB	016H
	DB	016H
	DB	016H
	DB	016H
	DB	016H
	DB	016H
	DB	016H
	DB	016H
	DB	016H
	DB	016H
	DB	016H
	DB	016H
	DB	016H
	DB	016H
	DB	016H
	DB	016H
	DB	016H
	DB	016H
	DB	016H
	DB	016H
	DB	016H
	DB	016H
	DB	016H
	DB	016H
	DB	016H
	DB	016H
	DB	016H
	DB	016H
	DB	016H
	DB	016H
	DB	016H
	DB	016H
	DB	016H
	DB	016H
	DB	016H
	DB	016H
	DB	016H
	DB	016H
	DB	016H
	DB	016H
	DB	016H
	DB	016H
	DB	016H
	DB	016H
	DB	016H
	DB	016H
	DB	016H
	DB	016H
	DB	016H
	DB	016H
	DB	016H
	DB	016H
	DB	016H
	DB	016H
	DB	016H
	DB	016H
	DB	016H
	DB	016H
	DB	016H
	DB	016H
	DB	016H
	DB	016H
	DB	016H
	DB	016H
	DB	016H
	DB	016H
	DB	016H
	DB	016H
	DB	016H
	DB	016H
	DB	016H
	DB	016H
	DB	015H
	DB	015H
	DB	034H
	DB	0a1H
	DB	0c4H
	DB	044H
	DB	01fH
	DB	018H
	DB	018H
	DB	018H
	DB	018H
	DB	018H
	DB	018H
	DB	018H
	DB	018H
	DB	018H
	DB	018H
	DB	018H
	DB	018H
	DB	018H
	DB	018H
	DB	018H
	DB	018H
	DB	018H
	DB	043H
	DB	0e8H
	DB	07fH
	DB	09dH
	DB	0a6H
	DB	0adH
	DB	0b0H
	DB	015H
	DB	015H
	DB	015H
	DB	015H
	DB	015H
	DB	015H
	DB	015H
	DB	015H
	DB	015H
	DB	015H
	DB	015H
	DB	015H
	DB	015H
	DB	015H
	DB	015H
	DB	015H
	DB	015H
	DB	015H
	DB	015H
	DB	015H
	DB	015H
	DB	015H
	DB	015H
	DB	015H
	DB	015H
	DB	015H
	DB	015H
	DB	015H
	DB	015H
	DB	015H
	DB	015H
	DB	015H
	DB	015H
	DB	015H
	DB	015H
	DB	015H
	DB	015H
	DB	015H
	DB	015H
	DB	015H
	DB	015H
	DB	015H
	DB	015H
	DB	015H
	DB	015H
	DB	015H
	DB	015H
	DB	015H
	DB	015H
	DB	015H
	DB	015H
	DB	015H
	DB	015H
	DB	015H
	DB	015H
	DB	015H
	DB	015H
	DB	015H
	DB	015H
	DB	015H
	DB	015H
	DB	015H
	DB	015H
	DB	015H
	DB	015H
	DB	015H
	DB	015H
	DB	015H
	DB	015H
	DB	015H
	DB	015H
	DB	015H
	DB	015H
	DB	015H
	DB	015H
	DB	015H
	DB	015H
	DB	015H
	DB	015H
	DB	015H
	DB	015H
	DB	015H
	DB	015H
	DB	015H
	DB	015H
	DB	015H
	DB	015H
	DB	015H
	DB	015H
	DB	015H
	DB	011H
	DB	011H
	DB	0afH
	DB	099H
	DB	0d0H
	DB	032H
	DB	018H
	DB	018H
	DB	018H
	DB	030H
	DB	020H
	DB	020H
	DB	020H
	DB	020H
	DB	020H
	DB	020H
	DB	020H
	DB	020H
	DB	020H
	DB	020H
	DB	020H
	DB	020H
	DB	020H
	DB	020H
	DB	032H
	DB	0d5H
	DB	070H
	DB	095H
	DB	03fH
	DB	0a7H
	DB	011H
	DB	011H
	DB	011H
	DB	011H
	DB	011H
	DB	011H
	DB	011H
	DB	011H
	DB	011H
	DB	011H
	DB	011H
	DB	011H
	DB	011H
	DB	011H
	DB	011H
	DB	011H
	DB	011H
	DB	011H
	DB	011H
	DB	011H
	DB	011H
	DB	011H
	DB	011H
	DB	011H
	DB	011H
	DB	011H
	DB	011H
	DB	011H
	DB	011H
	DB	011H
	DB	011H
	DB	011H
	DB	011H
	DB	011H
	DB	011H
	DB	011H
	DB	011H
	DB	011H
	DB	011H
	DB	011H
	DB	011H
	DB	011H
	DB	011H
	DB	011H
	DB	011H
	DB	011H
	DB	011H
	DB	011H
	DB	011H
	DB	011H
	DB	011H
	DB	011H
	DB	011H
	DB	011H
	DB	011H
	DB	011H
	DB	011H
	DB	011H
	DB	011H
	DB	011H
	DB	011H
	DB	011H
	DB	011H
	DB	011H
	DB	011H
	DB	011H
	DB	011H
	DB	011H
	DB	011H
	DB	011H
	DB	011H
	DB	011H
	DB	011H
	DB	011H
	DB	011H
	DB	011H
	DB	011H
	DB	011H
	DB	011H
	DB	011H
	DB	011H
	DB	011H
	DB	011H
	DB	011H
	DB	011H
	DB	011H
	DB	011H
	DB	011H
	DB	011H
	DB	011H
	DB	011H
	DB	02H
	DB	02H
	DB	0aeH
	DB	089H
	DB	0dfH
	DB	035H
	DB	018H
	DB	018H
	DB	030H
	DB	0f1H
	DB	0deH
	DB	0e1H
	DB	023H
	DB	023H
	DB	023H
	DB	023H
	DB	023H
	DB	023H
	DB	023H
	DB	023H
	DB	023H
	DB	023H
	DB	023H
	DB	023H
	DB	0e5H
	DB	0c1H
	DB	039H
	DB	092H
	DB	03eH
	DB	010H
	DB	0abH
	DB	02H
	DB	02H
	DB	02H
	DB	02H
	DB	02H
	DB	02H
	DB	02H
	DB	02H
	DB	02H
	DB	02H
	DB	02H
	DB	02H
	DB	02H
	DB	02H
	DB	02H
	DB	02H
	DB	02H
	DB	02H
	DB	02H
	DB	02H
	DB	02H
	DB	02H
	DB	02H
	DB	02H
	DB	02H
	DB	02H
	DB	02H
	DB	02H
	DB	02H
	DB	02H
	DB	02H
	DB	02H
	DB	02H
	DB	02H
	DB	02H
	DB	02H
	DB	02H
	DB	02H
	DB	02H
	DB	02H
	DB	02H
	DB	02H
	DB	02H
	DB	02H
	DB	02H
	DB	02H
	DB	02H
	DB	02H
	DB	02H
	DB	02H
	DB	02H
	DB	02H
	DB	02H
	DB	02H
	DB	02H
	DB	02H
	DB	02H
	DB	02H
	DB	02H
	DB	02H
	DB	02H
	DB	02H
	DB	02H
	DB	02H
	DB	02H
	DB	02H
	DB	02H
	DB	02H
	DB	02H
	DB	02H
	DB	02H
	DB	02H
	DB	02H
	DB	02H
	DB	02H
	DB	02H
	DB	02H
	DB	02H
	DB	02H
	DB	02H
	DB	02H
	DB	02H
	DB	02H
	DB	02H
	DB	02H
	DB	02H
	DB	02H
	DB	02H
	DB	02H
	DB	02H
	DB	010H
	DB	010H
	DB	0a9H
	DB	088H
	DB	0f0H
	DB	01eH
	DB	018H
	DB	018H
	DB	01bH
	DB	0d2H
	DB	050H
	DB	05aH
	DB	02fH
	DB	029H
	DB	029H
	DB	029H
	DB	029H
	DB	029H
	DB	029H
	DB	029H
	DB	029H
	DB	02fH
	DB	02fH
	DB	02fH
	DB	02fH
	DB	05dH
	DB	0bH
	DB	03dH
	DB	04H
	DB	0a5H
	DB	010H
	DB	010H
	DB	010H
	DB	010H
	DB	010H
	DB	010H
	DB	010H
	DB	010H
	DB	010H
	DB	010H
	DB	010H
	DB	010H
	DB	010H
	DB	010H
	DB	010H
	DB	010H
	DB	010H
	DB	010H
	DB	010H
	DB	010H
	DB	010H
	DB	010H
	DB	010H
	DB	010H
	DB	010H
	DB	010H
	DB	010H
	DB	010H
	DB	010H
	DB	010H
	DB	010H
	DB	010H
	DB	010H
	DB	010H
	DB	010H
	DB	010H
	DB	010H
	DB	010H
	DB	010H
	DB	010H
	DB	010H
	DB	010H
	DB	010H
	DB	010H
	DB	010H
	DB	010H
	DB	010H
	DB	010H
	DB	010H
	DB	010H
	DB	010H
	DB	010H
	DB	010H
	DB	010H
	DB	010H
	DB	010H
	DB	010H
	DB	010H
	DB	010H
	DB	010H
	DB	010H
	DB	010H
	DB	010H
	DB	010H
	DB	010H
	DB	010H
	DB	010H
	DB	010H
	DB	010H
	DB	010H
	DB	010H
	DB	010H
	DB	010H
	DB	010H
	DB	010H
	DB	010H
	DB	010H
	DB	010H
	DB	010H
	DB	010H
	DB	010H
	DB	010H
	DB	010H
	DB	010H
	DB	010H
	DB	010H
	DB	010H
	DB	010H
	DB	010H
	DB	010H
	DB	010H
	DB	017H
	DB	0a4H
	DB	0a0H
	DB	0bcH
	DB	0f8H
	DB	018H
	DB	018H
	DB	018H
	DB	045H
	DB	0bfH
	DB	058H
	DB	039H
	DB	03aH
	DB	06dH
	DB	02aH
	DB	02aH
	DB	02aH
	DB	02aH
	DB	02aH
	DB	02aH
	DB	06eH
	DB	076H
	DB	075H
	DB	03cH
	DB	03cH
	DB	07aH
	DB	07dH
	DB	096H
	DB	03eH
	DB	0a3H
	DB	017H
	DB	017H
	DB	017H
	DB	017H
	DB	017H
	DB	017H
	DB	017H
	DB	017H
	DB	017H
	DB	017H
	DB	017H
	DB	017H
	DB	017H
	DB	017H
	DB	017H
	DB	017H
	DB	017H
	DB	017H
	DB	017H
	DB	017H
	DB	017H
	DB	017H
	DB	017H
	DB	017H
	DB	017H
	DB	017H
	DB	017H
	DB	017H
	DB	017H
	DB	017H
	DB	017H
	DB	017H
	DB	017H
	DB	017H
	DB	017H
	DB	017H
	DB	017H
	DB	017H
	DB	017H
	DB	017H
	DB	017H
	DB	017H
	DB	017H
	DB	017H
	DB	017H
	DB	017H
	DB	017H
	DB	017H
	DB	017H
	DB	017H
	DB	017H
	DB	017H
	DB	017H
	DB	017H
	DB	017H
	DB	017H
	DB	017H
	DB	017H
	DB	017H
	DB	017H
	DB	017H
	DB	017H
	DB	017H
	DB	017H
	DB	017H
	DB	017H
	DB	017H
	DB	017H
	DB	017H
	DB	017H
	DB	017H
	DB	017H
	DB	017H
	DB	017H
	DB	017H
	DB	017H
	DB	017H
	DB	017H
	DB	017H
	DB	017H
	DB	017H
	DB	017H
	DB	017H
	DB	017H
	DB	017H
	DB	017H
	DB	017H
	DB	017H
	DB	017H
	DB	017H
	DB	017H
	DB	014H
	DB	03fH
	DB	090H
	DB	0ceH
	DB	044H
	DB	018H
	DB	018H
	DB	01fH
	DB	043H
	DB	0c2H
	DB	082H
	DB	0b2H
	DB	0b4H
	DB	02bH
	DB	02bH
	DB	02bH
	DB	02bH
	DB	02bH
	DB	02bH
	DB	0baH
	DB	084H
	DB	067H
	DB	074H
	DB	08fH
	DB	093H
	DB	03dH
	DB	01H
	DB	09aH
	DB	04H
	DB	014H
	DB	014H
	DB	014H
	DB	014H
	DB	014H
	DB	014H
	DB	014H
	DB	014H
	DB	014H
	DB	014H
	DB	014H
	DB	014H
	DB	014H
	DB	014H
	DB	014H
	DB	014H
	DB	014H
	DB	014H
	DB	014H
	DB	014H
	DB	014H
	DB	014H
	DB	014H
	DB	014H
	DB	014H
	DB	014H
	DB	014H
	DB	014H
	DB	014H
	DB	014H
	DB	014H
	DB	014H
	DB	014H
	DB	014H
	DB	014H
	DB	014H
	DB	014H
	DB	014H
	DB	014H
	DB	014H
	DB	014H
	DB	014H
	DB	014H
	DB	014H
	DB	014H
	DB	014H
	DB	014H
	DB	014H
	DB	014H
	DB	014H
	DB	014H
	DB	014H
	DB	014H
	DB	014H
	DB	014H
	DB	014H
	DB	014H
	DB	014H
	DB	014H
	DB	014H
	DB	014H
	DB	014H
	DB	014H
	DB	014H
	DB	014H
	DB	014H
	DB	014H
	DB	014H
	DB	014H
	DB	014H
	DB	014H
	DB	014H
	DB	014H
	DB	014H
	DB	014H
	DB	014H
	DB	014H
	DB	014H
	DB	014H
	DB	014H
	DB	014H
	DB	014H
	DB	014H
	DB	014H
	DB	014H
	DB	014H
	DB	014H
	DB	014H
	DB	014H
	DB	014H
	DB	014H
	DB	014H
	DB	013H
	DB	09eH
	DB	077H
	DB	0d7H
	DB	031H
	DB	018H
	DB	018H
	DB	018H
	DB	041H
	DB	041H
	DB	028H
	DB	028H
	DB	028H
	DB	028H
	DB	028H
	DB	028H
	DB	028H
	DB	028H
	DB	028H
	DB	028H
	DB	0f6H
	DB	0eaH
	DB	0cbH
	DB	072H
	DB	091H
	DB	08H
	DB	08H
	DB	09bH
	DB	09cH
	DB	013H
	DB	013H
	DB	013H
	DB	013H
	DB	013H
	DB	013H
	DB	013H
	DB	013H
	DB	013H
	DB	013H
	DB	013H
	DB	013H
	DB	013H
	DB	013H
	DB	013H
	DB	013H
	DB	013H
	DB	013H
	DB	013H
	DB	013H
	DB	013H
	DB	013H
	DB	013H
	DB	013H
	DB	013H
	DB	013H
	DB	013H
	DB	013H
	DB	013H
	DB	013H
	DB	013H
	DB	013H
	DB	013H
	DB	013H
	DB	013H
	DB	013H
	DB	013H
	DB	013H
	DB	013H
	DB	013H
	DB	013H
	DB	013H
	DB	013H
	DB	013H
	DB	013H
	DB	013H
	DB	013H
	DB	013H
	DB	013H
	DB	013H
	DB	013H
	DB	013H
	DB	013H
	DB	013H
	DB	013H
	DB	013H
	DB	013H
	DB	013H
	DB	013H
	DB	013H
	DB	013H
	DB	013H
	DB	013H
	DB	013H
	DB	013H
	DB	013H
	DB	013H
	DB	013H
	DB	013H
	DB	013H
	DB	013H
	DB	013H
	DB	013H
	DB	013H
	DB	013H
	DB	013H
	DB	013H
	DB	013H
	DB	013H
	DB	013H
	DB	013H
	DB	013H
	DB	013H
	DB	013H
	DB	013H
	DB	013H
	DB	013H
	DB	013H
	DB	013H
	DB	013H
	DB	013H
	DB	013H
	DB	08H
	DB	098H
	DB	087H
	DB	0e4H
	DB	021H
	DB	018H
	DB	018H
	DB	018H
	DB	018H
	DB	01fH
	DB	01fH
	DB	01fH
	DB	01fH
	DB	01fH
	DB	01fH
	DB	01fH
	DB	01fH
	DB	01fH
	DB	01fH
	DB	01fH
	DB	01fH
	DB	019H
	DB	0fbH
	DB	0d9H
	DB	071H
	DB	094H
	DB	097H
	DB	08H
	DB	08H
	DB	08H
	DB	08H
	DB	08H
	DB	08H
	DB	08H
	DB	08H
	DB	08H
	DB	08H
	DB	08H
	DB	08H
	DB	08H
	DB	08H
	DB	08H
	DB	08H
	DB	08H
	DB	08H
	DB	08H
	DB	08H
	DB	08H
	DB	08H
	DB	08H
	DB	08H
	DB	08H
	DB	08H
	DB	08H
	DB	08H
	DB	08H
	DB	08H
	DB	08H
	DB	08H
	DB	08H
	DB	08H
	DB	08H
	DB	08H
	DB	08H
	DB	08H
	DB	08H
	DB	08H
	DB	08H
	DB	08H
	DB	08H
	DB	08H
	DB	08H
	DB	08H
	DB	08H
	DB	08H
	DB	08H
	DB	08H
	DB	08H
	DB	08H
	DB	08H
	DB	08H
	DB	08H
	DB	08H
	DB	08H
	DB	08H
	DB	08H
	DB	08H
	DB	08H
	DB	08H
	DB	08H
	DB	08H
	DB	08H
	DB	08H
	DB	08H
	DB	08H
	DB	08H
	DB	08H
	DB	08H
	DB	08H
	DB	08H
	DB	08H
	DB	08H
	DB	08H
	DB	08H
	DB	08H
	DB	08H
	DB	08H
	DB	08H
	DB	08H
	DB	08H
	DB	08H
	DB	08H
	DB	08H
	DB	08H
	DB	08H
	DB	08H
	DB	08H
	DB	08H
	DB	08H
	DB	08H
	DB	08H
	DB	01H
	DB	08eH
	DB	085H
	DB	0f5H
	DB	0faH
	DB	021H
	DB	021H
	DB	021H
	DB	021H
	DB	021H
	DB	021H
	DB	021H
	DB	021H
	DB	021H
	DB	021H
	DB	021H
	DB	021H
	DB	021H
	DB	019H
	DB	018H
	DB	018H
	DB	018H
	DB	030H
	DB	032H
	DB	0caH
	DB	06cH
	DB	05H
	DB	01H
	DB	01H
	DB	01H
	DB	01H
	DB	01H
	DB	01H
	DB	01H
	DB	01H
	DB	01H
	DB	01H
	DB	01H
	DB	01H
	DB	01H
	DB	01H
	DB	01H
	DB	01H
	DB	01H
	DB	01H
	DB	01H
	DB	01H
	DB	01H
	DB	01H
	DB	01H
	DB	01H
	DB	01H
	DB	01H
	DB	01H
	DB	01H
	DB	01H
	DB	01H
	DB	01H
	DB	01H
	DB	01H
	DB	01H
	DB	01H
	DB	01H
	DB	01H
	DB	01H
	DB	01H
	DB	01H
	DB	01H
	DB	01H
	DB	01H
	DB	01H
	DB	01H
	DB	01H
	DB	01H
	DB	01H
	DB	01H
	DB	01H
	DB	01H
	DB	01H
	DB	01H
	DB	01H
	DB	01H
	DB	01H
	DB	01H
	DB	01H
	DB	01H
	DB	01H
	DB	01H
	DB	01H
	DB	01H
	DB	01H
	DB	01H
	DB	01H
	DB	01H
	DB	01H
	DB	01H
	DB	01H
	DB	01H
	DB	01H
	DB	01H
	DB	01H
	DB	01H
	DB	01H
	DB	01H
	DB	01H
	DB	01H
	DB	01H
	DB	01H
	DB	01H
	DB	01H
	DB	01H
	DB	01H
	DB	01H
	DB	01H
	DB	01H
	DB	01H
	DB	01H
	DB	01H
	DB	01H
	DB	01H
	DB	01H
	DB	0fH
	DB	078H
	DB	0b1H
	DB	0e0H
	DB	040H
	DB	040H
	DB	026H
	DB	026H
	DB	026H
	DB	026H
	DB	026H
	DB	026H
	DB	026H
	DB	026H
	DB	026H
	DB	026H
	DB	026H
	DB	0dcH
	DB	0e6H
	DB	042H
	DB	018H
	DB	018H
	DB	018H
	DB	035H
	DB	0e7H
	DB	063H
	DB	07bH
	DB	07eH
	DB	0fH
	DB	0fH
	DB	0fH
	DB	0fH
	DB	0fH
	DB	0fH
	DB	0fH
	DB	0fH
	DB	0fH
	DB	0fH
	DB	0fH
	DB	0fH
	DB	0fH
	DB	0fH
	DB	0fH
	DB	0fH
	DB	0fH
	DB	0fH
	DB	0fH
	DB	0fH
	DB	0fH
	DB	0fH
	DB	0fH
	DB	0fH
	DB	0fH
	DB	0fH
	DB	0fH
	DB	0fH
	DB	0fH
	DB	0fH
	DB	0fH
	DB	0fH
	DB	0fH
	DB	0fH
	DB	0fH
	DB	0fH
	DB	0fH
	DB	0fH
	DB	0fH
	DB	0fH
	DB	0fH
	DB	0fH
	DB	0fH
	DB	0fH
	DB	0fH
	DB	0fH
	DB	0fH
	DB	0fH
	DB	0fH
	DB	0fH
	DB	0fH
	DB	0fH
	DB	0fH
	DB	0fH
	DB	0fH
	DB	0fH
	DB	0fH
	DB	0fH
	DB	0fH
	DB	0fH
	DB	0fH
	DB	0fH
	DB	0fH
	DB	0fH
	DB	0fH
	DB	0fH
	DB	0fH
	DB	0fH
	DB	0fH
	DB	0fH
	DB	0fH
	DB	0fH
	DB	0fH
	DB	0fH
	DB	0fH
	DB	0fH
	DB	0fH
	DB	0fH
	DB	0fH
	DB	0fH
	DB	0fH
	DB	0fH
	DB	0fH
	DB	0fH
	DB	0fH
	DB	0fH
	DB	0fH
	DB	0fH
	DB	0fH
	DB	0fH
	DB	0fH
	DB	0fH
	DB	0fH
	DB	0eH
	DB	0eH
	DB	073H
	DB	066H
	DB	064H
	DB	05bH
	DB	053H
	DB	02dH
	DB	02dH
	DB	02dH
	DB	02dH
	DB	02dH
	DB	02eH
	DB	02eH
	DB	02eH
	DB	02eH
	DB	02eH
	DB	052H
	DB	061H
	DB	0ddH
	DB	021H
	DB	018H
	DB	018H
	DB	019H
	DB	0ecH
	DB	080H
	DB	06bH
	DB	079H
	DB	07cH
	DB	0eH
	DB	0eH
	DB	0eH
	DB	0eH
	DB	0eH
	DB	0eH
	DB	0eH
	DB	0eH
	DB	0eH
	DB	0eH
	DB	0eH
	DB	0eH
	DB	0eH
	DB	0eH
	DB	0eH
	DB	0eH
	DB	0eH
	DB	0eH
	DB	0eH
	DB	0eH
	DB	0eH
	DB	0eH
	DB	0eH
	DB	0eH
	DB	0eH
	DB	0eH
	DB	0eH
	DB	0eH
	DB	0eH
	DB	0eH
	DB	0eH
	DB	0eH
	DB	0eH
	DB	0eH
	DB	0eH
	DB	0eH
	DB	0eH
	DB	0eH
	DB	0eH
	DB	0eH
	DB	0eH
	DB	0eH
	DB	0eH
	DB	0eH
	DB	0eH
	DB	0eH
	DB	0eH
	DB	0eH
	DB	0eH
	DB	0eH
	DB	0eH
	DB	0eH
	DB	0eH
	DB	0eH
	DB	0eH
	DB	0eH
	DB	0eH
	DB	0eH
	DB	0eH
	DB	0eH
	DB	0eH
	DB	0eH
	DB	0eH
	DB	0eH
	DB	0eH
	DB	0eH
	DB	0eH
	DB	0eH
	DB	0eH
	DB	0eH
	DB	0eH
	DB	0eH
	DB	0eH
	DB	0eH
	DB	0eH
	DB	0eH
	DB	0eH
	DB	0eH
	DB	0eH
	DB	0eH
	DB	0eH
	DB	0eH
	DB	0eH
	DB	0eH
	DB	0eH
	DB	0eH
	DB	0eH
	DB	0eH
	DB	0eH
	DB	0eH
	DB	0eH
	DB	0eH
	DB	0bH
	DB	0bH
	DB	0bH
	DB	03aH
	DB	068H
	DB	059H
	DB	057H
	DB	025H
	DB	025H
	DB	025H
	DB	025H
	DB	025H
	DB	025H
	DB	025H
	DB	025H
	DB	025H
	DB	025H
	DB	025H
	DB	04eH
	DB	0dbH
	DB	01bH
	DB	018H
	DB	018H
	DB	020H
	DB	0ebH
	DB	060H
	DB	05eH
	DB	0aH
	DB	03bH
	DB	03bH
	DB	0bH
	DB	0bH
	DB	0bH
	DB	0bH
	DB	0bH
	DB	0bH
	DB	0bH
	DB	0bH
	DB	0bH
	DB	0bH
	DB	0bH
	DB	0bH
	DB	0bH
	DB	0bH
	DB	0bH
	DB	0bH
	DB	0bH
	DB	0bH
	DB	0bH
	DB	0bH
	DB	0bH
	DB	0bH
	DB	0bH
	DB	0bH
	DB	0bH
	DB	0bH
	DB	0bH
	DB	0bH
	DB	0bH
	DB	0bH
	DB	0bH
	DB	0bH
	DB	0bH
	DB	0bH
	DB	0bH
	DB	0bH
	DB	0bH
	DB	0bH
	DB	0bH
	DB	0bH
	DB	0bH
	DB	0bH
	DB	0bH
	DB	0bH
	DB	0bH
	DB	0bH
	DB	0bH
	DB	0bH
	DB	0bH
	DB	0bH
	DB	0bH
	DB	0bH
	DB	0bH
	DB	0bH
	DB	0bH
	DB	0bH
	DB	0bH
	DB	0bH
	DB	0bH
	DB	0bH
	DB	0bH
	DB	0bH
	DB	0bH
	DB	0bH
	DB	0bH
	DB	0bH
	DB	0bH
	DB	0bH
	DB	0bH
	DB	0bH
	DB	0bH
	DB	0bH
	DB	0bH
	DB	0bH
	DB	0bH
	DB	0bH
	DB	0bH
	DB	0bH
	DB	0bH
	DB	0bH
	DB	0bH
	DB	0bH
	DB	0bH
	DB	0bH
	DB	0bH
	DB	0bH
	DB	0bH
	DB	0bH
	DB	0bH
	DB	0bH
	DB	0bH
	DB	0aH
	DB	0aH
	DB	069H
	DB	081H
	DB	0b9H
	DB	0b7H
	DB	027H
	DB	027H
	DB	027H
	DB	027H
	DB	027H
	DB	027H
	DB	027H
	DB	027H
	DB	027H
	DB	027H
	DB	0b6H
	DB	0b8H
	DB	0d1H
	DB	01eH
	DB	018H
	DB	018H
	DB	018H
	DB	031H
	DB	0d8H
	DB	04bH
	DB	09H
	DB	065H
	DB	06fH
	DB	0aH
	DB	0aH
	DB	0aH
	DB	0aH
	DB	0aH
	DB	0aH
	DB	0aH
	DB	0aH
	DB	0aH
	DB	0aH
	DB	0aH
	DB	0aH
	DB	0aH
	DB	0aH
	DB	0aH
	DB	0aH
	DB	0aH
	DB	0aH
	DB	0aH
	DB	0aH
	DB	0aH
	DB	0aH
	DB	0aH
	DB	0aH
	DB	0aH
	DB	0aH
	DB	0aH
	DB	0aH
	DB	0aH
	DB	0aH
	DB	0aH
	DB	0aH
	DB	0aH
	DB	0aH
	DB	0aH
	DB	0aH
	DB	0aH
	DB	0aH
	DB	0aH
	DB	0aH
	DB	0aH
	DB	0aH
	DB	0aH
	DB	0aH
	DB	0aH
	DB	0aH
	DB	0aH
	DB	0aH
	DB	0aH
	DB	0aH
	DB	0aH
	DB	0aH
	DB	0aH
	DB	0aH
	DB	0aH
	DB	0aH
	DB	0aH
	DB	0aH
	DB	0aH
	DB	0aH
	DB	0aH
	DB	0aH
	DB	0aH
	DB	0aH
	DB	0aH
	DB	0aH
	DB	0aH
	DB	0aH
	DB	0aH
	DB	0aH
	DB	0aH
	DB	0aH
	DB	0aH
	DB	0aH
	DB	0aH
	DB	0aH
	DB	0aH
	DB	0aH
	DB	0aH
	DB	0aH
	DB	0aH
	DB	0aH
	DB	0aH
	DB	0aH
	DB	0aH
	DB	0aH
	DB	0aH
	DB	0aH
	DB	0aH
	DB	0aH
	DB	0aH
	DB	0aH
	DB	012H
	DB	06aH
	DB	055H
	DB	0daH
	DB	0f9H
	DB	024H
	DB	024H
	DB	024H
	DB	024H
	DB	024H
	DB	024H
	DB	024H
	DB	024H
	DB	024H
	DB	024H
	DB	024H
	DB	024H
	DB	0f3H
	DB	01bH
	DB	01fH
	DB	018H
	DB	018H
	DB	042H
	DB	019H
	DB	0b3H
	DB	04dH
	DB	038H
	DB	05cH
	DB	05fH
	DB	012H
	DB	012H
	DB	012H
	DB	012H
	DB	012H
	DB	012H
	DB	012H
	DB	012H
	DB	012H
	DB	012H
	DB	012H
	DB	012H
	DB	012H
	DB	012H
	DB	012H
	DB	012H
	DB	012H
	DB	012H
	DB	012H
	DB	012H
	DB	012H
	DB	012H
	DB	012H
	DB	012H
	DB	012H
	DB	012H
	DB	012H
	DB	012H
	DB	012H
	DB	012H
	DB	012H
	DB	012H
	DB	012H
	DB	012H
	DB	012H
	DB	012H
	DB	012H
	DB	012H
	DB	012H
	DB	012H
	DB	012H
	DB	012H
	DB	012H
	DB	012H
	DB	012H
	DB	012H
	DB	012H
	DB	012H
	DB	012H
	DB	012H
	DB	012H
	DB	012H
	DB	012H
	DB	012H
	DB	012H
	DB	012H
	DB	012H
	DB	012H
	DB	012H
	DB	012H
	DB	012H
	DB	012H
	DB	012H
	DB	012H
	DB	012H
	DB	012H
	DB	012H
	DB	012H
	DB	012H
	DB	012H
	DB	012H
	DB	012H
	DB	012H
	DB	012H
	DB	012H
	DB	012H
	DB	012H
	DB	012H
	DB	012H
	DB	012H
	DB	012H
	DB	012H
	DB	012H
	DB	012H
	DB	012H
	DB	012H
	DB	012H
	DB	012H
	DB	012H
	DB	012H
	DB	012H
	DB	012H
	DB	09H
	DB	056H
	DB	062H
	DB	0e9H
	DB	01bH
	DB	01eH
	DB	01eH
	DB	01eH
	DB	01eH
	DB	01eH
	DB	01eH
	DB	01eH
	DB	01eH
	DB	01eH
	DB	01eH
	DB	01eH
	DB	01eH
	DB	01eH
	DB	01fH
	DB	018H
	DB	018H
	DB	01eH
	DB	045H
	DB	0ccH
	DB	046H
	DB	04cH
	DB	037H
	DB	038H
	DB	09H
	DB	09H
	DB	09H
	DB	09H
	DB	09H
	DB	09H
	DB	09H
	DB	09H
	DB	09H
	DB	09H
	DB	09H
	DB	09H
	DB	09H
	DB	09H
	DB	09H
	DB	09H
	DB	09H
	DB	09H
	DB	09H
	DB	09H
	DB	09H
	DB	09H
	DB	09H
	DB	09H
	DB	09H
	DB	09H
	DB	09H
	DB	09H
	DB	09H
	DB	09H
	DB	09H
	DB	09H
	DB	09H
	DB	09H
	DB	09H
	DB	09H
	DB	09H
	DB	09H
	DB	09H
	DB	09H
	DB	09H
	DB	09H
	DB	09H
	DB	09H
	DB	09H
	DB	09H
	DB	09H
	DB	09H
	DB	09H
	DB	09H
	DB	09H
	DB	09H
	DB	09H
	DB	09H
	DB	09H
	DB	09H
	DB	09H
	DB	09H
	DB	09H
	DB	09H
	DB	09H
	DB	09H
	DB	09H
	DB	09H
	DB	09H
	DB	09H
	DB	09H
	DB	09H
	DB	09H
	DB	09H
	DB	09H
	DB	09H
	DB	09H
	DB	09H
	DB	09H
	DB	09H
	DB	09H
	DB	09H
	DB	09H
	DB	09H
	DB	09H
	DB	09H
	DB	09H
	DB	09H
	DB	09H
	DB	09H
	DB	09H
	DB	09H
	DB	09H
	DB	09H
	DB	09H
	DB	09H
	DB	09H
	DB	0dH
	DB	054H
	DB	083H
	DB	01eH
	DB	030H
	DB	018H
	DB	018H
	DB	018H
	DB	018H
	DB	018H
	DB	018H
	DB	018H
	DB	018H
	DB	018H
	DB	018H
	DB	018H
	DB	018H
	DB	018H
	DB	018H
	DB	018H
	DB	031H
	DB	0f7H
	DB	0cdH
	DB	02cH
	DB	048H
	DB	033H
	DB	0cH
	DB	037H
	DB	0dH
	DB	0dH
	DB	0dH
	DB	0dH
	DB	0dH
	DB	0dH
	DB	0dH
	DB	0dH
	DB	0dH
	DB	0dH
	DB	0dH
	DB	0dH
	DB	0dH
	DB	0dH
	DB	0dH
	DB	0dH
	DB	0dH
	DB	0dH
	DB	0dH
	DB	0dH
	DB	0dH
	DB	0dH
	DB	0dH
	DB	0dH
	DB	0dH
	DB	0dH
	DB	0dH
	DB	0dH
	DB	0dH
	DB	0dH
	DB	0dH
	DB	0dH
	DB	0dH
	DB	0dH
	DB	0dH
	DB	0dH
	DB	0dH
	DB	0dH
	DB	0dH
	DB	0dH
	DB	0dH
	DB	0dH
	DB	0dH
	DB	0dH
	DB	0dH
	DB	0dH
	DB	0dH
	DB	0dH
	DB	0dH
	DB	0dH
	DB	0dH
	DB	0dH
	DB	0dH
	DB	0dH
	DB	0dH
	DB	0dH
	DB	0dH
	DB	0dH
	DB	0dH
	DB	0dH
	DB	0dH
	DB	0dH
	DB	0dH
	DB	0dH
	DB	0dH
	DB	0dH
	DB	0dH
	DB	0dH
	DB	0dH
	DB	0dH
	DB	0dH
	DB	0dH
	DB	0dH
	DB	0dH
	DB	0dH
	DB	0dH
	DB	0dH
	DB	0dH
	DB	0dH
	DB	0dH
	DB	0dH
	DB	0dH
	DB	0dH
	DB	0dH
	DB	0dH
	DB	0dH
	DB	0dH
	DB	0dH
	DB	0dH
	DB	0dH
	DB	0dH
	DB	0dH
	DB	0dH
	DB	0cH
	DB	04aH
	DB	0c3H
	DB	032H
	DB	01bH
	DB	01bH
	DB	01bH
	DB	01bH
	DB	01bH
	DB	01bH
	DB	01bH
	DB	01bH
	DB	01bH
	DB	01bH
	DB	01bH
	DB	01bH
	DB	01bH
	DB	01bH
	DB	031H
	DB	01bH
	DB	0e3H
	DB	0bbH
	DB	036H
	DB	047H
	DB	07H
	DB	049H
	DB	033H
	DB	033H
	DB	04fH
	DB	0cH
	DB	0cH
	DB	0cH
	DB	0cH
	DB	0cH
	DB	0cH
	DB	0cH
	DB	0cH
	DB	0cH
	DB	0cH
	DB	0cH
	DB	0cH
	DB	0cH
	DB	0cH
	DB	0cH
	DB	0cH
	DB	0cH
	DB	0cH
	DB	0cH
	DB	0cH
	DB	0cH
	DB	0cH
	DB	0cH
	DB	0cH
	DB	0cH
	DB	0cH
	DB	0cH
	DB	0cH
	DB	0cH
	DB	0cH
	DB	0cH
	DB	0cH
	DB	0cH
	DB	0cH
	DB	0cH
	DB	0cH
	DB	0cH
	DB	0cH
	DB	0cH
	DB	0cH
	DB	0cH
	DB	0cH
	DB	0cH
	DB	0cH
	DB	0cH
	DB	0cH
	DB	0cH
	DB	0cH
	DB	0cH
	DB	0cH
	DB	0cH
	DB	0cH
	DB	0cH
	DB	0cH
	DB	0cH
	DB	0cH
	DB	0cH
	DB	0cH
	DB	0cH
	DB	0cH
	DB	0cH
	DB	0cH
	DB	0cH
	DB	0cH
	DB	0cH
	DB	0cH
	DB	0cH
	DB	0cH
	DB	0cH
	DB	0cH
	DB	0cH
	DB	0cH
	DB	0cH
	DB	0cH
	DB	0cH
	DB	0cH
	DB	0cH
	DB	0cH
	DB	0cH
	DB	0cH
	DB	0cH
	DB	0cH
	DB	0cH
	DB	0cH
	DB	0cH
	DB	0cH
	DB	0cH
	DB	0cH
	DB	0cH
	DB	0cH
	DB	0cH
	DB	0cH
	DB	07H
	DB	036H
	DB	0c0H
	DB	0d6H
	DB	022H
	DB	022H
	DB	022H
	DB	022H
	DB	022H
	DB	022H
	DB	022H
	DB	022H
	DB	022H
	DB	022H
	DB	022H
	DB	022H
	DB	0d4H
	DB	0d3H
	DB	0cfH
	DB	0b5H
	DB	051H
	DB	00H
	DB	02cH
	DB	02cH
	DB	02cH
	DB	02cH
	DB	07H
	DB	07H
	DB	07H
	DB	07H
	DB	07H
	DB	07H
	DB	07H
	DB	07H
	DB	07H
	DB	07H
	DB	07H
	DB	07H
	DB	07H
	DB	07H
	DB	07H
	DB	07H
	DB	07H
	DB	07H
	DB	07H
	DB	07H
	DB	07H
	DB	07H
	DB	07H
	DB	07H
	DB	07H
	DB	07H
	DB	07H
	DB	07H
	DB	07H
	DB	07H
	DB	07H
	DB	07H
	DB	07H
	DB	07H
	DB	07H
	DB	07H
	DB	07H
	DB	07H
	DB	07H
	DB	07H
	DB	07H
	DB	07H
	DB	07H
	DB	07H
	DB	07H
	DB	07H
	DB	07H
	DB	07H
	DB	07H
	DB	07H
	DB	07H
	DB	07H
	DB	07H
	DB	07H
	DB	07H
	DB	07H
	DB	07H
	DB	07H
	DB	07H
	DB	07H
	DB	07H
	DB	07H
	DB	07H
	DB	07H
	DB	07H
	DB	07H
	DB	07H
	DB	07H
	DB	07H
	DB	07H
	DB	07H
	DB	07H
	DB	07H
	DB	07H
	DB	07H
	DB	07H
	DB	07H
	DB	07H
	DB	07H
	DB	07H
	DB	07H
	DB	07H
	DB	07H
	DB	07H
	DB	07H
	DB	07H
	DB	07H
	DB	07H
	DB	07H
	DB	07H
	DB	07H
	DB	07H
	DB	07H
	DB	07H
	DB	07H
	DB	00H
	DB	00H
	DB	00H
	DB	00H
	DB	00H
	DB	00H
	DB	00H
	DB	00H
	DB	00H
	DB	00H
	DB	00H
	DB	00H
	DB	00H
	DB	00H
	DB	00H
	DB	00H
	DB	00H
	DB	00H
	DB	00H
	DB	00H
	DB	00H
	DB	00H
	DB	00H
	DB	00H
	DB	00H
	DB	00H
	DB	00H
	DB	00H
	DB	00H
	DB	00H
	DB	00H
	DB	00H
	DB	00H
	DB	00H
	DB	00H
	DB	00H
	DB	00H
	DB	00H
	DB	00H
	DB	00H
	DB	00H
	DB	00H
	DB	00H
	DB	00H
	DB	00H
	DB	00H
	DB	00H
	DB	00H
	DB	00H
	DB	00H
	DB	00H
	DB	00H
	DB	00H
	DB	00H
	DB	00H
	DB	00H
	DB	00H
	DB	00H
	DB	00H
	DB	00H
	DB	00H
	DB	00H
	DB	00H
	DB	00H
	DB	00H
	DB	00H
	DB	00H
	DB	00H
	DB	00H
	DB	00H
	DB	00H
	DB	00H
	DB	00H
	DB	00H
	DB	00H
	DB	00H
	DB	00H
	DB	00H
	DB	00H
	DB	00H
	DB	00H
	DB	00H
	DB	00H
	DB	00H
	DB	00H
	DB	00H
	DB	00H
	DB	00H
	DB	00H
	DB	00H
	DB	00H
	DB	00H
	DB	00H
	DB	00H
	DB	00H
	DB	00H
	DB	00H
	DB	00H
	DB	00H
	DB	00H
	DB	00H
	DB	00H
	DB	00H
	DB	00H
	DB	00H
	DB	00H
	DB	00H
	DB	00H
	DB	00H
	DB	00H
	DB	00H
	DB	00H
	DB	00H
	DB	00H
	DB	00H
	DB	00H
	DB	00H
	DB	00H
	DB	00H
	DB	00H
	DB	00H
	DB	00H
	DB	00H
	DB	00H
	DB	00H
	DB	00H
	DB	00H
	DB	00H
	DB	00H
	DB	00H
	DB	00H
	DB	00H
	DB	00H
	DB	00H
	DB	00H
	DB	00H
	DB	00H
	DB	00H
	DB	00H
	DB	00H
	DB	00H
	DB	00H
	DB	00H
	DB	00H
	DB	00H
	DB	00H
	DB	00H
	DB	00H
	DB	00H
	DB	00H
	DB	00H
	DB	00H
	DB	00H
	DB	00H
	DB	00H
	DB	00H
	DB	00H
	DB	00H
	DB	00H
	DB	00H
	DB	00H
	DB	00H
	DB	00H
	DB	00H
	DB	00H
	DB	00H
	DB	00H
	DB	00H
	DB	00H
	DB	00H
	DB	00H
	DB	00H
	DB	00H
	DB	00H
	DB	00H
	DB	00H
	DB	00H
	DB	00H
	DB	00H
	DB	00H
	DB	00H
	DB	00H
	DB	00H
	DB	00H
	DB	00H
	DB	00H
	DB	00H
	DB	00H
	DB	00H
	DB	00H
	DB	00H
	DB	00H
	DB	00H
	DB	00H
	DB	00H
	DB	00H
	DB	00H
	DB	00H
	DB	00H
	DB	00H
	DB	00H
	DB	00H
	DB	00H
	DB	00H
	DB	00H
	DB	00H
	DB	00H
	DB	00H
	DB	00H
	DB	00H
	DB	00H
	DB	00H
	DB	00H
	DB	00H
	DB	00H
	DB	00H
	DB	00H
	DB	00H
	DB	00H
	DB	00H
	DB	00H
	DB	00H
	DB	00H
	DB	00H
	DB	00H
	DB	00H
	DB	00H
	DB	00H
	DB	00H
	DB	00H
	DB	00H
	DB	00H
	DB	00H
	DB	00H
	DB	00H
	DB	00H
	DB	00H
	DB	00H
	DB	00H
	DB	00H
	DB	00H
	DB	00H
	DB	00H
	DB	00H
	DB	00H
	DB	00H
	DB	00H
	DB	00H
	DB	00H
	DB	00H
	DB	00H
	DB	00H
	DB	00H
	DB	00H
	DB	00H
	DB	00H
	DB	00H
	DB	00H
	DB	00H
	DB	00H
	DB	00H
	DB	00H
	DB	00H
	DB	00H
	DB	00H
	DB	00H
	DB	00H
	DB	00H
	DB	00H
	DB	00H
	DB	00H
	DB	00H
	DB	00H
	DB	00H
	DB	00H
	DB	00H
	DB	00H
	DB	00H
	DB	00H
	DB	00H
	DB	00H
	DB	00H
	DB	00H
	DB	00H
	DB	00H
	DB	00H
	DB	00H
	DB	00H
	DB	00H
	DB	00H
	DB	00H
	DB	00H
	DB	00H
	DB	00H
	DB	00H
	DB	00H
	DB	00H
	DB	00H
	DB	00H
	DB	00H
	DB	00H
	DB	00H
	DB	00H
	DB	00H
	DB	00H
	DB	00H
	DB	00H
	DB	00H
	DB	00H
	DB	00H
	DB	00H
	DB	00H
	DB	00H
	DB	00H
	DB	00H
	DB	00H
	DB	00H
	DB	00H
	DB	00H
	DB	00H
	DB	00H
	DB	00H
	DB	00H
	DB	00H
	DB	00H
	DB	00H
	DB	00H
	DB	00H
	DB	00H
	DB	00H
	DB	00H
	DB	00H
	DB	00H
	DB	00H
	DB	00H
	DB	00H
	DB	00H
	DB	00H
	DB	00H
	DB	00H
	DB	00H
	DB	00H
	DB	00H
	DB	00H
	DB	00H
	DB	00H
	DB	00H
	DB	00H
	DB	00H
	DB	00H
	DB	00H
	DB	00H
	DB	00H
	DB	00H
	DB	00H
	DB	00H
	DB	00H
	DB	00H
	DB	00H
	DB	00H
	DB	00H
	DB	00H
	DB	00H
	DB	00H
	DB	00H
	DB	00H
	DB	00H
	DB	00H
	DB	00H
	DB	00H
	DB	00H
	DB	00H
	DB	00H
	DB	00H
	DB	00H
	DB	00H
	DB	00H
	DB	00H
	DB	00H
	DB	00H
	DB	00H
	DB	00H
	DB	00H
	DB	00H
	DB	00H
	DB	00H
	DB	00H
	DB	00H
	DB	00H
	DB	00H
	DB	00H
	DB	00H
	DB	00H
	DB	00H
	DB	00H
	DB	00H
	DB	00H
	DB	00H
	DB	00H
	DB	00H
	DB	00H
	DB	00H
	DB	00H
	DB	00H
	DB	00H
	DB	00H
	DB	00H
	DB	00H
	DB	00H
	DB	00H
	DB	00H
	DB	00H
	DB	00H
	DB	00H
	DB	00H
	DB	00H
	DB	00H
	DB	00H
	DB	00H
	DB	00H
	DB	00H
	DB	00H
	DB	00H
	DB	00H
	DB	00H
	DB	00H
	DB	00H
	DB	00H
	DB	00H
	DB	00H
	DB	00H
	DB	00H
	DB	00H
	DB	00H
	DB	00H
	DB	00H
	DB	00H
	DB	00H
	DB	00H
	DB	00H
	DB	00H
	DB	00H
	DB	00H
	DB	00H
	DB	00H
	DB	00H
	DB	00H
	DB	00H
	DB	00H
	DB	00H
	DB	00H
	DB	00H
	DB	00H
	DB	00H
	DB	00H
	DB	00H
	DB	00H
	DB	00H
	DB	00H
	DB	00H
	DB	00H
	DB	00H
	DB	00H
	DB	00H
	DB	00H
	DB	00H
	DB	00H
	DB	00H
	DB	00H
	DB	00H
	DB	00H
	DB	00H
	DB	00H
	DB	00H
	DB	00H
	DB	00H
	DB	00H
	DB	00H
	DB	00H
	DB	00H
	DB	00H
	DB	00H
	DB	00H
	DB	00H
	DB	00H
	DB	00H
	DB	00H
	DB	00H
	DB	00H
	DB	00H
	DB	00H
	DB	00H
	DB	00H
	DB	00H
	DB	00H
	DB	00H
	DB	00H
	DB	00H
	DB	00H
	DB	00H
	DB	00H
	DB	00H
	DB	00H
	DB	00H
	DB	00H
	DB	00H
	DB	00H
	DB	00H
	DB	00H
	DB	00H
	DB	00H
	DB	00H
	DB	00H
	DB	00H
	DB	00H
	DB	00H
	DB	00H
	DB	00H
	DB	00H
	DB	00H
	DB	00H
	DB	00H
	DB	00H
	DB	00H
	DB	00H
	DB	00H
	DB	00H
	DB	00H
	DB	00H
	DB	00H
	DB	00H
	DB	00H
	DB	00H
	DB	00H
	DB	00H
	DB	00H
	DB	00H
	DB	00H
	DB	00H
	DB	00H
	DB	00H
	DB	00H
	DB	00H
	DB	00H
	DB	00H
	DB	00H
	DB	00H
	DB	00H
	DB	00H
	DB	00H
	DB	00H
	DB	00H
	DB	00H
	DB	00H
	DB	00H
	DB	00H
	DB	00H
	DB	00H
	DB	00H
	DB	00H
	DB	00H
	DB	00H
	DB	00H
	DB	00H
	DB	00H
	DB	00H
	DB	00H
	DB	00H
	DB	00H
	DB	00H
	DB	00H
	DB	00H
	DB	00H
	DB	00H
	DB	00H
	DB	00H
	DB	00H
	DB	00H
	DB	00H
	DB	00H
	DB	00H
	DB	00H
	DB	00H
	DB	00H
	DB	00H
	DB	00H
	DB	00H
	DB	00H
	DB	00H
	DB	00H
	DB	00H
	DB	00H
	DB	00H
	DB	00H
	DB	00H
	DB	00H
	DB	00H
	DB	00H
	DB	00H
	DB	00H
	DB	00H
	DB	00H
	DB	00H
	DB	00H
	DB	00H
	DB	00H
	DB	00H
	DB	00H
	DB	00H
	DB	00H
	DB	00H
	DB	00H
	DB	00H
	DB	00H
	DB	00H
	DB	00H
	DB	00H
	DB	00H
	DB	00H
	DB	00H
	DB	00H
	DB	00H
	DB	00H
	DB	00H
	DB	00H
	DB	00H
	DB	00H
	DB	00H
	DB	00H
	DB	00H
	DB	00H
	DB	00H
	DB	00H
	DB	00H
	DB	00H
	DB	00H
	DB	00H
	DB	00H
	DB	00H
	DB	00H
	DB	00H
	DB	00H
	DB	00H
	DB	00H
	DB	00H
	DB	00H
	DB	00H
	DB	00H
	DB	00H
	DB	00H
	DB	00H
	DB	00H
	DB	00H
	DB	00H
	DB	00H
	DB	00H
	DB	00H
	DB	00H
	DB	00H
	DB	00H
	DB	00H
	DB	00H
	DB	00H
	DB	00H
	DB	00H
	DB	00H
	DB	00H
	DB	00H
	DB	00H
	DB	00H
	DB	00H
	DB	00H
	DB	00H
	DB	00H
	DB	00H
	DB	00H
	DB	00H
	DB	00H
	DB	00H
	DB	00H
	DB	00H
	DB	00H
	DB	00H
	DB	00H
	DB	00H
	DB	00H
	DB	00H
	DB	00H
	DB	00H
	DB	00H
	DB	00H
	DB	00H
	DB	00H
	DB	00H
	DB	00H
	DB	00H
	DB	00H
	DB	00H
	DB	00H
	DB	00H
	DB	00H
	DB	00H
	DB	00H
	DB	00H
	DB	00H
	DB	00H
	DB	00H
	DB	00H
	DB	00H
	DB	00H
	DB	00H
	DB	00H
	DB	00H
	DB	00H
	DB	00H
	DB	00H
	DB	00H
	DB	00H
	DB	00H
	DB	00H
	DB	00H
	DB	00H
	DB	00H
	DB	00H
	DB	00H
	DB	00H
	DB	00H
	DB	00H
	DB	00H
	DB	00H
	DB	00H
	DB	00H
	DB	00H
	DB	00H
	DB	00H
	DB	00H
	DB	00H
	DB	00H
	DB	00H
	DB	00H
	DB	00H
	DB	00H
	DB	00H
	DB	00H
	DB	00H
	DB	00H
	DB	00H
	DB	00H
	DB	00H
	DB	00H
	DB	00H
	DB	00H
	DB	00H
	DB	00H
	DB	00H
	DB	00H
	DB	00H
	DB	00H
	DB	00H
	DB	00H
	DB	00H
	DB	00H
	DB	00H
	DB	00H
	DB	00H
	DB	00H
	DB	00H
	DB	00H
	DB	00H
	DB	00H
	DB	00H
	DB	00H
	DB	00H
	DB	00H
	DB	00H
	DB	00H
	DB	00H
	DB	00H
	DB	00H
	DB	00H
	DB	00H
	DB	00H
	DB	00H
	DB	00H
	DB	00H
	DB	00H
	DB	00H
	DB	00H
	DB	00H
	DB	00H
	DB	00H
	DB	00H
	DB	00H
	DB	00H
	DB	00H
	DB	00H
	DB	00H
	DB	00H
	DB	00H
	DB	00H
	DB	00H
	DB	00H
	DB	00H
	DB	00H
	DB	00H
	DB	00H
	DB	00H
	DB	00H
	DB	00H
	DB	00H
	DB	00H
	DB	00H
	DB	00H
	DB	00H
	DB	00H
	DB	00H
	DB	00H
	DB	00H
	DB	00H
	DB	00H
	DB	00H
	DB	00H
	DB	00H
	DB	00H
	DB	00H
	DB	00H
	DB	00H
	DB	00H
	DB	00H
	DB	00H
	DB	00H
	DB	00H
	DB	00H
	DB	00H
	DB	00H
	DB	00H
	DB	00H
	DB	00H
	DB	00H
	DB	00H
	DB	00H
	DB	00H
	DB	00H
	DB	00H
	DB	00H
	DB	00H
	DB	00H
	DB	00H
	DB	00H
	DB	00H
	DB	00H
	DB	00H
	DB	00H
	DB	00H
	DB	00H
	DB	00H
	DB	00H
	DB	00H
	DB	00H
	DB	00H
	DB	00H
	DB	00H
	DB	00H
	DB	00H
	DB	00H
	DB	00H
	DB	00H
	DB	00H
	DB	00H
	DB	00H
	DB	00H
	DB	00H
	DB	00H
	DB	00H
	DB	00H
	DB	00H
	DB	00H
	DB	00H
	DB	00H
	DB	00H
	DB	00H
	DB	00H
	DB	00H
	DB	00H
	DB	00H
	DB	00H
	DB	00H
	DB	00H
	DB	00H
	DB	00H
	DB	00H
	DB	00H
	DB	00H
	DB	00H
	DB	00H
	DB	00H
	DB	00H
	DB	00H
	DB	00H
	DB	00H
	DB	00H
	DB	00H
	DB	00H
	DB	00H
	DB	00H
	DB	00H
	DB	00H
	DB	00H
	DB	00H
	DB	00H
	DB	00H
	DB	00H
	DB	00H
	DB	00H
	DB	00H
	DB	00H
	DB	00H
	DB	00H
	DB	00H
	DB	00H
	DB	00H
	DB	00H
	DB	00H
	DB	00H
	DB	00H
	DB	00H
	DB	00H
	DB	00H
	DB	00H
	DB	00H
	DB	00H
	DB	00H
	DB	00H
	DB	00H
	DB	00H
	DB	00H
	DB	00H
	DB	00H
	DB	00H
	DB	00H
	DB	00H
	DB	00H
	DB	00H
	DB	00H
	DB	00H
	DB	00H
	DB	00H
	DB	00H
	DB	00H
	DB	00H
	DB	00H
	DB	00H
	DB	00H
	DB	00H
	DB	00H
	DB	00H
	DB	00H
	DB	00H
	DB	00H
	DB	00H
	DB	00H
	DB	00H
	DB	00H
	DB	00H
	DB	00H
	DB	00H
	DB	00H
	DB	00H
	DB	00H
	DB	00H
	DB	00H
	DB	00H
	DB	00H
	DB	00H
	DB	00H
	DB	00H
	DB	00H
	DB	00H
	DB	00H
	DB	00H
	DB	00H
	DB	00H
	DB	00H
	DB	00H
	DB	00H
	DB	00H
	DB	00H
	DB	00H
	DB	00H
	DB	00H
	DB	00H
	DB	00H
	DB	00H
	DB	00H
	DB	00H
	DB	00H
	DB	00H
	DB	00H
	DB	00H
	DB	00H
	DB	00H
	DB	00H
	DB	00H
	DB	00H
	DB	00H
	DB	00H
	DB	00H
	DB	00H
	DB	00H
	DB	00H
	DB	00H
	DB	00H
	DB	00H
	DB	00H
	DB	00H
	DB	00H
	DB	00H
	DB	00H
	DB	00H
	DB	00H
	DB	00H
	DB	00H
	DB	00H
	DB	00H
	DB	00H
	DB	00H
	DB	00H
	DB	00H
	DB	00H
	DB	00H
	DB	00H
	DB	00H
	DB	00H
	DB	00H
	DB	00H
	DB	00H
	DB	00H
	DB	00H
	DB	00H
	DB	00H
	DB	00H
	DB	00H
	DB	00H
	DB	00H
	DB	00H
	DB	00H
	DB	00H
	DB	00H
	DB	00H
	DB	00H
	DB	00H
	DB	00H
	DB	00H
	DB	00H
	DB	00H
	DB	00H
	DB	00H
	DB	00H
	DB	00H
	DB	00H
	DB	00H
	DB	00H
	DB	00H
	DB	00H
	DB	00H
	DB	00H
	DB	00H
	DB	00H
	DB	00H
	DB	00H
	DB	00H
	DB	00H
	DB	00H
	DB	00H
	DB	00H
	DB	00H
	DB	00H
	DB	00H
	DB	00H
	DB	00H
	DB	00H
	DB	00H
	DB	00H
	DB	00H
	DB	00H
	DB	00H
	DB	00H
	DB	00H
	DB	00H
CONST	ENDS
END
