; Listing generated by Microsoft (R) Optimizing Compiler Version 16.00.40219.01 

	TITLE	C:\DUII\DUII\Graphics\Alarm2Active.c
	.686P
	.XMM
	include listing.inc
	.model	flat

INCLUDELIB LIBCMT
INCLUDELIB OLDNAMES

PUBLIC	_bmAlarm2Active
CONST	SEGMENT
_ColorsAlarm2Active DD 0ff00H
	DD	0ffH
	DD	00H
_PalAlarm2Active DD 03H
	DB	01H
	ORG $+3
	DD	FLAT:_ColorsAlarm2Active
_acAlarm2Active DB 00H
	DB	00H
	DB	00H
	DB	00H
	DB	00H
	DB	00H
	DB	00H
	DB	00H
	DB	00H
	DB	00H
	DB	00H
	DB	00H
	DB	00H
	DB	00H
	DB	00H
	DB	00H
	DB	00H
	DB	00H
	DB	00H
	DB	00H
	DB	00H
	DB	00H
	DB	00H
	DB	00H
	DB	00H
	DB	00H
	DB	00H
	DB	00H
	DB	00H
	DB	00H
	DB	00H
	DB	00H
	DB	00H
	DB	00H
	DB	00H
	DB	00H
	DB	00H
	DB	00H
	DB	00H
	DB	00H
	DB	00H
	DB	00H
	DB	00H
	DB	00H
	DB	00H
	DB	00H
	DB	00H
	DB	00H
	DB	00H
	DB	00H
	DB	015H
	DB	055H
	DB	055H
	DB	055H
	DB	055H
	DB	055H
	DB	055H
	DB	055H
	DB	055H
	DB	055H
	DB	055H
	DB	055H
	DB	055H
	DB	055H
	DB	055H
	DB	055H
	DB	055H
	DB	055H
	DB	055H
	DB	055H
	DB	055H
	DB	055H
	DB	055H
	DB	055H
	DB	055H
	DB	055H
	DB	055H
	DB	055H
	DB	055H
	DB	055H
	DB	055H
	DB	055H
	DB	055H
	DB	055H
	DB	055H
	DB	055H
	DB	055H
	DB	055H
	DB	055H
	DB	055H
	DB	055H
	DB	055H
	DB	055H
	DB	055H
	DB	055H
	DB	055H
	DB	055H
	DB	055H
	DB	055H
	DB	054H
	DB	015H
	DB	055H
	DB	055H
	DB	055H
	DB	055H
	DB	055H
	DB	055H
	DB	055H
	DB	055H
	DB	055H
	DB	055H
	DB	055H
	DB	055H
	DB	055H
	DB	055H
	DB	055H
	DB	055H
	DB	055H
	DB	055H
	DB	055H
	DB	055H
	DB	055H
	DB	055H
	DB	055H
	DB	055H
	DB	055H
	DB	055H
	DB	055H
	DB	055H
	DB	055H
	DB	055H
	DB	055H
	DB	055H
	DB	055H
	DB	055H
	DB	055H
	DB	055H
	DB	055H
	DB	055H
	DB	055H
	DB	055H
	DB	055H
	DB	055H
	DB	055H
	DB	055H
	DB	055H
	DB	055H
	DB	055H
	DB	055H
	DB	054H
	DB	015H
	DB	055H
	DB	055H
	DB	055H
	DB	055H
	DB	055H
	DB	055H
	DB	055H
	DB	055H
	DB	055H
	DB	055H
	DB	055H
	DB	055H
	DB	055H
	DB	055H
	DB	055H
	DB	055H
	DB	055H
	DB	055H
	DB	055H
	DB	055H
	DB	055H
	DB	055H
	DB	055H
	DB	055H
	DB	055H
	DB	055H
	DB	055H
	DB	055H
	DB	055H
	DB	055H
	DB	055H
	DB	055H
	DB	055H
	DB	055H
	DB	055H
	DB	055H
	DB	055H
	DB	055H
	DB	055H
	DB	055H
	DB	055H
	DB	055H
	DB	055H
	DB	055H
	DB	055H
	DB	055H
	DB	055H
	DB	055H
	DB	054H
	DB	015H
	DB	055H
	DB	055H
	DB	055H
	DB	055H
	DB	055H
	DB	055H
	DB	055H
	DB	055H
	DB	055H
	DB	055H
	DB	055H
	DB	055H
	DB	055H
	DB	055H
	DB	055H
	DB	055H
	DB	055H
	DB	055H
	DB	055H
	DB	055H
	DB	055H
	DB	055H
	DB	055H
	DB	055H
	DB	055H
	DB	055H
	DB	055H
	DB	055H
	DB	055H
	DB	055H
	DB	055H
	DB	055H
	DB	055H
	DB	055H
	DB	055H
	DB	055H
	DB	055H
	DB	055H
	DB	055H
	DB	055H
	DB	055H
	DB	055H
	DB	055H
	DB	055H
	DB	055H
	DB	055H
	DB	055H
	DB	055H
	DB	054H
	DB	015H
	DB	06aH
	DB	0aaH
	DB	0aaH
	DB	0aaH
	DB	0aaH
	DB	0aaH
	DB	0aaH
	DB	0aaH
	DB	0aaH
	DB	0aaH
	DB	0aaH
	DB	0aaH
	DB	0aaH
	DB	0aaH
	DB	0aaH
	DB	0aaH
	DB	0aaH
	DB	0aaH
	DB	0aaH
	DB	0aaH
	DB	0aaH
	DB	0aaH
	DB	0aaH
	DB	0aaH
	DB	0aaH
	DB	0aaH
	DB	0aaH
	DB	0aaH
	DB	0aaH
	DB	0aaH
	DB	0aaH
	DB	0aaH
	DB	0aaH
	DB	0aaH
	DB	0aaH
	DB	0aaH
	DB	0aaH
	DB	0aaH
	DB	0aaH
	DB	0aaH
	DB	0aaH
	DB	0aaH
	DB	0aaH
	DB	0aaH
	DB	0aaH
	DB	0aaH
	DB	0aaH
	DB	095H
	DB	054H
	DB	015H
	DB	06aH
	DB	0aaH
	DB	0aaH
	DB	0aaH
	DB	0aaH
	DB	0aaH
	DB	0aaH
	DB	0aaH
	DB	0aaH
	DB	0aaH
	DB	0aaH
	DB	0aaH
	DB	0aaH
	DB	0aaH
	DB	0aaH
	DB	0aaH
	DB	0aaH
	DB	0aaH
	DB	0aaH
	DB	0aaH
	DB	0aaH
	DB	0aaH
	DB	0aaH
	DB	0aaH
	DB	0aaH
	DB	0aaH
	DB	0aaH
	DB	0aaH
	DB	0aaH
	DB	0aaH
	DB	0aaH
	DB	0aaH
	DB	0aaH
	DB	0aaH
	DB	0aaH
	DB	0aaH
	DB	0aaH
	DB	0aaH
	DB	0aaH
	DB	0aaH
	DB	0aaH
	DB	0aaH
	DB	0aaH
	DB	0aaH
	DB	0aaH
	DB	0aaH
	DB	0aaH
	DB	095H
	DB	054H
	DB	015H
	DB	06aH
	DB	0aaH
	DB	0aaH
	DB	0aaH
	DB	0aaH
	DB	0aaH
	DB	0aaH
	DB	0aaH
	DB	0aaH
	DB	0aaH
	DB	0aaH
	DB	0aaH
	DB	0aaH
	DB	0aaH
	DB	0aaH
	DB	0aaH
	DB	0aaH
	DB	0aaH
	DB	0aaH
	DB	0aaH
	DB	0aaH
	DB	0aaH
	DB	0aaH
	DB	0aaH
	DB	0aaH
	DB	0aaH
	DB	0aaH
	DB	0aaH
	DB	0aaH
	DB	0aaH
	DB	0aaH
	DB	0aaH
	DB	0aaH
	DB	0aaH
	DB	0aaH
	DB	0aaH
	DB	0aaH
	DB	0aaH
	DB	0aaH
	DB	0aaH
	DB	0aaH
	DB	0aaH
	DB	0aaH
	DB	0aaH
	DB	0aaH
	DB	0aaH
	DB	0aaH
	DB	095H
	DB	054H
	DB	015H
	DB	06aH
	DB	0aaH
	DB	0aaH
	DB	0aaH
	DB	0aaH
	DB	0aaH
	DB	0aaH
	DB	0aaH
	DB	0aaH
	DB	0aaH
	DB	0aaH
	DB	0aaH
	DB	0aaH
	DB	0aaH
	DB	0aaH
	DB	0aaH
	DB	0aaH
	DB	0aaH
	DB	0aaH
	DB	0aaH
	DB	0aaH
	DB	0aaH
	DB	0aaH
	DB	0aaH
	DB	0aaH
	DB	0aaH
	DB	0aaH
	DB	0aaH
	DB	0aaH
	DB	0aaH
	DB	0aaH
	DB	0aaH
	DB	0aaH
	DB	0aaH
	DB	0aaH
	DB	0aaH
	DB	0aaH
	DB	0aaH
	DB	0aaH
	DB	0aaH
	DB	0aaH
	DB	0aaH
	DB	0aaH
	DB	0aaH
	DB	0aaH
	DB	0aaH
	DB	0aaH
	DB	095H
	DB	054H
	DB	015H
	DB	06aH
	DB	0aaH
	DB	0aaH
	DB	0aaH
	DB	0aaH
	DB	0aaH
	DB	0aaH
	DB	0aaH
	DB	0aaH
	DB	0aaH
	DB	0aaH
	DB	0aaH
	DB	0aaH
	DB	0aaH
	DB	0aaH
	DB	0aaH
	DB	0aaH
	DB	0aaH
	DB	0aaH
	DB	0aaH
	DB	0aaH
	DB	0aaH
	DB	0aaH
	DB	0aaH
	DB	0aaH
	DB	0aaH
	DB	0aaH
	DB	0aaH
	DB	0aaH
	DB	0aaH
	DB	0aaH
	DB	0aaH
	DB	0aaH
	DB	0aaH
	DB	0aaH
	DB	0aaH
	DB	0aaH
	DB	0aaH
	DB	0aaH
	DB	0aaH
	DB	0aaH
	DB	0aaH
	DB	0aaH
	DB	0aaH
	DB	0aaH
	DB	0aaH
	DB	0aaH
	DB	095H
	DB	054H
	DB	015H
	DB	06aH
	DB	0aaH
	DB	0aaH
	DB	0aaH
	DB	0aaH
	DB	0aaH
	DB	0aaH
	DB	0aaH
	DB	0aaH
	DB	0aaH
	DB	0aaH
	DB	0aaH
	DB	0aaH
	DB	0aaH
	DB	0aaH
	DB	0aaH
	DB	0aaH
	DB	0aaH
	DB	0aaH
	DB	0aaH
	DB	0aaH
	DB	0aaH
	DB	0aaH
	DB	0aaH
	DB	0aaH
	DB	0aaH
	DB	0aaH
	DB	0aaH
	DB	0aaH
	DB	0aaH
	DB	0aaH
	DB	0aaH
	DB	0aaH
	DB	0aaH
	DB	0aaH
	DB	0aaH
	DB	0aaH
	DB	0aaH
	DB	0aaH
	DB	0aaH
	DB	0aaH
	DB	0aaH
	DB	0aaH
	DB	0aaH
	DB	0aaH
	DB	0aaH
	DB	0aaH
	DB	095H
	DB	054H
	DB	015H
	DB	06aH
	DB	0aaH
	DB	0aaH
	DB	0aaH
	DB	0aaH
	DB	0aaH
	DB	0aaH
	DB	0aaH
	DB	0aaH
	DB	0aaH
	DB	0aaH
	DB	0aaH
	DB	0aaH
	DB	0aaH
	DB	0aaH
	DB	0aaH
	DB	0aaH
	DB	0aaH
	DB	0aaH
	DB	0aaH
	DB	0aaH
	DB	0aaH
	DB	0aaH
	DB	0aaH
	DB	0aaH
	DB	0aaH
	DB	0aaH
	DB	0aaH
	DB	0aaH
	DB	0aaH
	DB	0aaH
	DB	0aaH
	DB	0aaH
	DB	0aaH
	DB	0aaH
	DB	0aaH
	DB	0aaH
	DB	0aaH
	DB	0aaH
	DB	0aaH
	DB	0aaH
	DB	0aaH
	DB	0aaH
	DB	0aaH
	DB	0aaH
	DB	0aaH
	DB	0aaH
	DB	095H
	DB	054H
	DB	015H
	DB	06aH
	DB	0aaH
	DB	0aaH
	DB	0aaH
	DB	0aaH
	DB	0aaH
	DB	0aaH
	DB	0aaH
	DB	0aaH
	DB	0aaH
	DB	0aaH
	DB	0aaH
	DB	0aaH
	DB	0aaH
	DB	0aaH
	DB	0aaH
	DB	0aaH
	DB	0aaH
	DB	0aaH
	DB	0aaH
	DB	0aaH
	DB	0aaH
	DB	0aaH
	DB	0aaH
	DB	0aaH
	DB	0aaH
	DB	0aaH
	DB	0aaH
	DB	0aaH
	DB	0aaH
	DB	0aaH
	DB	0aaH
	DB	0aaH
	DB	0aaH
	DB	0aaH
	DB	0aaH
	DB	0aaH
	DB	0aaH
	DB	0aaH
	DB	0aaH
	DB	0aaH
	DB	0aaH
	DB	0aaH
	DB	0aaH
	DB	0aaH
	DB	0aaH
	DB	0aaH
	DB	095H
	DB	054H
	DB	015H
	DB	06aH
	DB	0aaH
	DB	0aaH
	DB	0aaH
	DB	0aaH
	DB	0aaH
	DB	0aaH
	DB	0aaH
	DB	0aaH
	DB	0aaH
	DB	0aaH
	DB	0aaH
	DB	06aH
	DB	0aaH
	DB	0aaH
	DB	0aaH
	DB	0aaH
	DB	0aaH
	DB	0aaH
	DB	0aaH
	DB	0aaH
	DB	0aaH
	DB	0aaH
	DB	0aaH
	DB	0aaH
	DB	0aaH
	DB	0aaH
	DB	0aaH
	DB	0aaH
	DB	0aaH
	DB	0aaH
	DB	0aaH
	DB	0aaH
	DB	0aaH
	DB	0aaH
	DB	0aaH
	DB	0aaH
	DB	0aaH
	DB	0aaH
	DB	0aaH
	DB	0aaH
	DB	0aaH
	DB	0aaH
	DB	0aaH
	DB	0aaH
	DB	0aaH
	DB	0aaH
	DB	095H
	DB	054H
	DB	015H
	DB	06aH
	DB	0aaH
	DB	0aaH
	DB	0aaH
	DB	0aaH
	DB	0aaH
	DB	0aaH
	DB	0aaH
	DB	0aaH
	DB	0a6H
	DB	0aaH
	DB	0a5H
	DB	06aH
	DB	0aaH
	DB	0aaH
	DB	0aaH
	DB	0aaH
	DB	0aaH
	DB	0aaH
	DB	0aaH
	DB	0a9H
	DB	055H
	DB	0aaH
	DB	0aaH
	DB	0a9H
	DB	0aaH
	DB	0aaH
	DB	0aaH
	DB	0aaH
	DB	0aaH
	DB	0aaH
	DB	0aaH
	DB	0aaH
	DB	0aaH
	DB	0aaH
	DB	096H
	DB	0aaH
	DB	0aaH
	DB	0aaH
	DB	0aaH
	DB	0aaH
	DB	0aaH
	DB	0aaH
	DB	0aaH
	DB	0aaH
	DB	0aaH
	DB	0aaH
	DB	095H
	DB	054H
	DB	015H
	DB	06aH
	DB	0aaH
	DB	0aaH
	DB	0aaH
	DB	0aaH
	DB	0aaH
	DB	0aaH
	DB	0aaH
	DB	0aaH
	DB	095H
	DB	0aaH
	DB	0a9H
	DB	06aH
	DB	0aaH
	DB	0aaH
	DB	0aaH
	DB	0aaH
	DB	0aaH
	DB	0aaH
	DB	0aaH
	DB	0a5H
	DB	0a5H
	DB	06aH
	DB	0aaH
	DB	0a5H
	DB	06aH
	DB	0aaH
	DB	0aaH
	DB	0a9H
	DB	0aaH
	DB	05aH
	DB	0aaH
	DB	0aaH
	DB	0aaH
	DB	0aaH
	DB	096H
	DB	0aaH
	DB	0aaH
	DB	0aaH
	DB	0aaH
	DB	0aaH
	DB	0aaH
	DB	0aaH
	DB	0aaH
	DB	0aaH
	DB	0aaH
	DB	0aaH
	DB	095H
	DB	054H
	DB	015H
	DB	06aH
	DB	0aaH
	DB	0aaH
	DB	0aaH
	DB	0aaH
	DB	0aaH
	DB	0aaH
	DB	0aaH
	DB	0aaH
	DB	095H
	DB	0aaH
	DB	0a9H
	DB	06aH
	DB	0aaH
	DB	0aaH
	DB	0aaH
	DB	0aaH
	DB	0aaH
	DB	0aaH
	DB	0aaH
	DB	0a6H
	DB	0a9H
	DB	06aH
	DB	0aaH
	DB	0a5H
	DB	06aH
	DB	0aaH
	DB	0aaH
	DB	0a5H
	DB	0aaH
	DB	05aH
	DB	0aaH
	DB	0aaH
	DB	0aaH
	DB	0aaH
	DB	096H
	DB	0aaH
	DB	0aaH
	DB	0aaH
	DB	0aaH
	DB	0aaH
	DB	0aaH
	DB	0aaH
	DB	0aaH
	DB	0aaH
	DB	0aaH
	DB	0aaH
	DB	095H
	DB	054H
	DB	015H
	DB	06aH
	DB	0aaH
	DB	0aaH
	DB	0aaH
	DB	0aaH
	DB	0aaH
	DB	0aaH
	DB	0aaH
	DB	0aaH
	DB	099H
	DB	06aH
	DB	0a9H
	DB	06aH
	DB	0aaH
	DB	0aaH
	DB	0aaH
	DB	0aaH
	DB	0aaH
	DB	0aaH
	DB	0aaH
	DB	0a6H
	DB	0a9H
	DB	06aH
	DB	0aaH
	DB	0a6H
	DB	05aH
	DB	0aaH
	DB	0aaH
	DB	0a5H
	DB	0aaH
	DB	0aaH
	DB	0aaH
	DB	0aaH
	DB	0aaH
	DB	0aaH
	DB	096H
	DB	0aaH
	DB	0aaH
	DB	0aaH
	DB	0aaH
	DB	0aaH
	DB	0aaH
	DB	0aaH
	DB	0aaH
	DB	0aaH
	DB	0aaH
	DB	0aaH
	DB	095H
	DB	054H
	DB	015H
	DB	06aH
	DB	0aaH
	DB	0aaH
	DB	0aaH
	DB	0aaH
	DB	0aaH
	DB	0aaH
	DB	0aaH
	DB	0aaH
	DB	069H
	DB	06aH
	DB	0a9H
	DB	06aH
	DB	095H
	DB	0aaH
	DB	099H
	DB	0a9H
	DB	095H
	DB	065H
	DB	06aH
	DB	0aaH
	DB	0a9H
	DB	06aH
	DB	0aaH
	DB	09aH
	DB	05aH
	DB	0aaH
	DB	055H
	DB	095H
	DB	05aH
	DB	09aH
	DB	055H
	DB	095H
	DB	0a9H
	DB	05aH
	DB	096H
	DB	0aaH
	DB	0aaH
	DB	0aaH
	DB	0aaH
	DB	0aaH
	DB	0aaH
	DB	0aaH
	DB	0aaH
	DB	0aaH
	DB	0aaH
	DB	0aaH
	DB	095H
	DB	054H
	DB	015H
	DB	06aH
	DB	0aaH
	DB	0aaH
	DB	0aaH
	DB	0aaH
	DB	0aaH
	DB	0aaH
	DB	0aaH
	DB	0aaH
	DB	06aH
	DB	05aH
	DB	0a9H
	DB	06aH
	DB	069H
	DB	069H
	DB	055H
	DB	095H
	DB	069H
	DB	05aH
	DB	05aH
	DB	0aaH
	DB	0a5H
	DB	0aaH
	DB	0aaH
	DB	09aH
	DB	096H
	DB	0a9H
	DB	0a9H
	DB	0a5H
	DB	0a9H
	DB	05aH
	DB	096H
	DB	0a6H
	DB	096H
	DB	096H
	DB	09aH
	DB	0aaH
	DB	0aaH
	DB	0aaH
	DB	0aaH
	DB	0aaH
	DB	0aaH
	DB	0aaH
	DB	0aaH
	DB	0aaH
	DB	0aaH
	DB	0aaH
	DB	095H
	DB	054H
	DB	015H
	DB	06aH
	DB	0aaH
	DB	0aaH
	DB	0aaH
	DB	0aaH
	DB	0aaH
	DB	0aaH
	DB	0aaH
	DB	0a9H
	DB	0aaH
	DB	05aH
	DB	0a9H
	DB	06aH
	DB	0a9H
	DB	06aH
	DB	05aH
	DB	0a5H
	DB	0a9H
	DB	06aH
	DB	05aH
	DB	0aaH
	DB	0a6H
	DB	0aaH
	DB	0aaH
	DB	06aH
	DB	096H
	DB	0a5H
	DB	0a9H
	DB	0a5H
	DB	0aaH
	DB	05aH
	DB	096H
	DB	0a6H
	DB	096H
	DB	096H
	DB	09aH
	DB	0aaH
	DB	0aaH
	DB	0aaH
	DB	0aaH
	DB	0aaH
	DB	0aaH
	DB	0aaH
	DB	0aaH
	DB	0aaH
	DB	0aaH
	DB	0aaH
	DB	095H
	DB	054H
	DB	015H
	DB	06aH
	DB	0aaH
	DB	0aaH
	DB	0aaH
	DB	0aaH
	DB	0aaH
	DB	0aaH
	DB	0aaH
	DB	0a9H
	DB	055H
	DB	056H
	DB	0a9H
	DB	06aH
	DB	095H
	DB	06aH
	DB	05aH
	DB	0a5H
	DB	0a9H
	DB	06aH
	DB	05aH
	DB	0aaH
	DB	09aH
	DB	0aaH
	DB	0aaH
	DB	055H
	DB	055H
	DB	0a5H
	DB	0aaH
	DB	0a5H
	DB	0aaH
	DB	05aH
	DB	0a5H
	DB	09aH
	DB	095H
	DB	056H
	DB	0aaH
	DB	0aaH
	DB	0aaH
	DB	0aaH
	DB	0aaH
	DB	0aaH
	DB	0aaH
	DB	0aaH
	DB	0aaH
	DB	0aaH
	DB	0aaH
	DB	0aaH
	DB	095H
	DB	054H
	DB	015H
	DB	06aH
	DB	0aaH
	DB	0aaH
	DB	0aaH
	DB	0aaH
	DB	0aaH
	DB	0aaH
	DB	0aaH
	DB	0a9H
	DB	0aaH
	DB	096H
	DB	0a9H
	DB	069H
	DB	069H
	DB	06aH
	DB	05aH
	DB	0a5H
	DB	0a9H
	DB	06aH
	DB	05aH
	DB	0aaH
	DB	06aH
	DB	0aaH
	DB	0aaH
	DB	06aH
	DB	0a5H
	DB	0a5H
	DB	0aaH
	DB	0a5H
	DB	0aaH
	DB	05aH
	DB	0a5H
	DB	09aH
	DB	096H
	DB	0aaH
	DB	0aaH
	DB	0aaH
	DB	0aaH
	DB	0aaH
	DB	0aaH
	DB	0aaH
	DB	0aaH
	DB	0aaH
	DB	0aaH
	DB	0aaH
	DB	0aaH
	DB	0aaH
	DB	095H
	DB	054H
	DB	015H
	DB	06aH
	DB	0aaH
	DB	0aaH
	DB	0aaH
	DB	0aaH
	DB	0aaH
	DB	0aaH
	DB	0aaH
	DB	0a6H
	DB	0aaH
	DB	095H
	DB	0a9H
	DB	069H
	DB	069H
	DB	06aH
	DB	05aH
	DB	0a5H
	DB	0a9H
	DB	06aH
	DB	05aH
	DB	0a9H
	DB	055H
	DB	06aH
	DB	0a9H
	DB	0aaH
	DB	0a5H
	DB	065H
	DB	06aH
	DB	0a5H
	DB	0aaH
	DB	05aH
	DB	0a5H
	DB	05aH
	DB	095H
	DB	0aaH
	DB	096H
	DB	0aaH
	DB	0aaH
	DB	0aaH
	DB	0aaH
	DB	0aaH
	DB	0aaH
	DB	0aaH
	DB	0aaH
	DB	0aaH
	DB	0aaH
	DB	0aaH
	DB	095H
	DB	054H
	DB	015H
	DB	06aH
	DB	0aaH
	DB	0aaH
	DB	0aaH
	DB	0aaH
	DB	0aaH
	DB	0aaH
	DB	0aaH
	DB	095H
	DB	0aaH
	DB	055H
	DB	065H
	DB	059H
	DB	055H
	DB	059H
	DB	056H
	DB	095H
	DB	065H
	DB	05aH
	DB	056H
	DB	0a5H
	DB	055H
	DB	06aH
	DB	0a5H
	DB	06aH
	DB	095H
	DB	059H
	DB	055H
	DB	0a5H
	DB	059H
	DB	056H
	DB	0a9H
	DB	06aH
	DB	0a5H
	DB	05aH
	DB	096H
	DB	0aaH
	DB	0aaH
	DB	0aaH
	DB	0aaH
	DB	0aaH
	DB	0aaH
	DB	0aaH
	DB	0aaH
	DB	0aaH
	DB	0aaH
	DB	0aaH
	DB	095H
	DB	054H
	DB	015H
	DB	06aH
	DB	0aaH
	DB	0aaH
	DB	0aaH
	DB	0aaH
	DB	0aaH
	DB	0aaH
	DB	0aaH
	DB	0aaH
	DB	0aaH
	DB	0aaH
	DB	0aaH
	DB	0aaH
	DB	0aaH
	DB	0aaH
	DB	0aaH
	DB	0aaH
	DB	0aaH
	DB	0aaH
	DB	0aaH
	DB	0aaH
	DB	0aaH
	DB	0aaH
	DB	0aaH
	DB	0aaH
	DB	0aaH
	DB	0aaH
	DB	0aaH
	DB	0aaH
	DB	0aaH
	DB	0aaH
	DB	0aaH
	DB	0aaH
	DB	0aaH
	DB	0aaH
	DB	0aaH
	DB	0aaH
	DB	0aaH
	DB	0aaH
	DB	0aaH
	DB	0aaH
	DB	0aaH
	DB	0aaH
	DB	0aaH
	DB	0aaH
	DB	0aaH
	DB	0aaH
	DB	095H
	DB	054H
	DB	015H
	DB	06aH
	DB	0aaH
	DB	0aaH
	DB	0aaH
	DB	0aaH
	DB	0aaH
	DB	0aaH
	DB	0aaH
	DB	0aaH
	DB	0aaH
	DB	0aaH
	DB	0aaH
	DB	0aaH
	DB	0aaH
	DB	0aaH
	DB	0aaH
	DB	0aaH
	DB	0aaH
	DB	0aaH
	DB	0aaH
	DB	0aaH
	DB	0aaH
	DB	0aaH
	DB	0aaH
	DB	0aaH
	DB	0aaH
	DB	0aaH
	DB	0aaH
	DB	0aaH
	DB	0aaH
	DB	0aaH
	DB	0aaH
	DB	0aaH
	DB	0aaH
	DB	0aaH
	DB	0aaH
	DB	0aaH
	DB	0aaH
	DB	0aaH
	DB	0aaH
	DB	0aaH
	DB	0aaH
	DB	0aaH
	DB	0aaH
	DB	0aaH
	DB	0aaH
	DB	0aaH
	DB	095H
	DB	054H
	DB	015H
	DB	06aH
	DB	0aaH
	DB	0aaH
	DB	0aaH
	DB	0aaH
	DB	0aaH
	DB	0aaH
	DB	0aaH
	DB	0aaH
	DB	0aaH
	DB	0aaH
	DB	0aaH
	DB	0aaH
	DB	0aaH
	DB	0aaH
	DB	0aaH
	DB	0aaH
	DB	0aaH
	DB	0aaH
	DB	0aaH
	DB	0aaH
	DB	0aaH
	DB	0aaH
	DB	0aaH
	DB	0aaH
	DB	0aaH
	DB	0aaH
	DB	0aaH
	DB	0aaH
	DB	0aaH
	DB	0aaH
	DB	0aaH
	DB	0aaH
	DB	0aaH
	DB	0aaH
	DB	0aaH
	DB	0aaH
	DB	0aaH
	DB	0aaH
	DB	0aaH
	DB	0aaH
	DB	0aaH
	DB	0aaH
	DB	0aaH
	DB	0aaH
	DB	0aaH
	DB	0aaH
	DB	095H
	DB	054H
	DB	015H
	DB	06aH
	DB	0aaH
	DB	0aaH
	DB	0aaH
	DB	0aaH
	DB	0aaH
	DB	0aaH
	DB	0aaH
	DB	0aaH
	DB	0aaH
	DB	0aaH
	DB	0aaH
	DB	0aaH
	DB	0aaH
	DB	0aaH
	DB	0aaH
	DB	0aaH
	DB	0aaH
	DB	0aaH
	DB	0aaH
	DB	0aaH
	DB	0aaH
	DB	0aaH
	DB	0aaH
	DB	0aaH
	DB	0aaH
	DB	0aaH
	DB	0aaH
	DB	0aaH
	DB	0aaH
	DB	0aaH
	DB	0aaH
	DB	0aaH
	DB	0aaH
	DB	0aaH
	DB	0aaH
	DB	0aaH
	DB	0aaH
	DB	0aaH
	DB	0aaH
	DB	0aaH
	DB	0aaH
	DB	0aaH
	DB	0aaH
	DB	0aaH
	DB	0aaH
	DB	0aaH
	DB	095H
	DB	054H
	DB	015H
	DB	06aH
	DB	0aaH
	DB	0aaH
	DB	0aaH
	DB	0aaH
	DB	0aaH
	DB	0aaH
	DB	0aaH
	DB	0aaH
	DB	0aaH
	DB	0aaH
	DB	0aaH
	DB	0aaH
	DB	0aaH
	DB	0aaH
	DB	0aaH
	DB	0aaH
	DB	0aaH
	DB	0aaH
	DB	0aaH
	DB	0aaH
	DB	0aaH
	DB	0aaH
	DB	0aaH
	DB	0aaH
	DB	0aaH
	DB	0aaH
	DB	0aaH
	DB	0aaH
	DB	0aaH
	DB	0aaH
	DB	0aaH
	DB	0aaH
	DB	0aaH
	DB	0aaH
	DB	0aaH
	DB	0aaH
	DB	0aaH
	DB	0aaH
	DB	0aaH
	DB	0aaH
	DB	0aaH
	DB	0aaH
	DB	0aaH
	DB	0aaH
	DB	0aaH
	DB	0aaH
	DB	095H
	DB	054H
	DB	015H
	DB	06aH
	DB	0aaH
	DB	0aaH
	DB	0aaH
	DB	0aaH
	DB	0aaH
	DB	0aaH
	DB	0aaH
	DB	0aaH
	DB	0aaH
	DB	0aaH
	DB	0aaH
	DB	0aaH
	DB	0aaH
	DB	0aaH
	DB	0aaH
	DB	0aaH
	DB	0aaH
	DB	0aaH
	DB	0aaH
	DB	0aaH
	DB	0aaH
	DB	0aaH
	DB	0aaH
	DB	0aaH
	DB	0aaH
	DB	0aaH
	DB	0aaH
	DB	0aaH
	DB	0aaH
	DB	0aaH
	DB	0aaH
	DB	0aaH
	DB	0aaH
	DB	0aaH
	DB	0aaH
	DB	0aaH
	DB	0aaH
	DB	0aaH
	DB	0aaH
	DB	0aaH
	DB	0aaH
	DB	0aaH
	DB	0aaH
	DB	0aaH
	DB	0aaH
	DB	0aaH
	DB	095H
	DB	054H
	DB	015H
	DB	06aH
	DB	0aaH
	DB	0aaH
	DB	0aaH
	DB	0aaH
	DB	0aaH
	DB	0aaH
	DB	0aaH
	DB	0aaH
	DB	0aaH
	DB	0aaH
	DB	0aaH
	DB	0aaH
	DB	0aaH
	DB	0aaH
	DB	0aaH
	DB	0aaH
	DB	0aaH
	DB	0aaH
	DB	0aaH
	DB	0aaH
	DB	0aaH
	DB	0aaH
	DB	0aaH
	DB	0aaH
	DB	0aaH
	DB	0aaH
	DB	0aaH
	DB	0aaH
	DB	0aaH
	DB	0aaH
	DB	0aaH
	DB	0aaH
	DB	0aaH
	DB	0aaH
	DB	0aaH
	DB	0aaH
	DB	0aaH
	DB	0aaH
	DB	0aaH
	DB	0aaH
	DB	0aaH
	DB	0aaH
	DB	0aaH
	DB	0aaH
	DB	0aaH
	DB	0aaH
	DB	095H
	DB	054H
	DB	015H
	DB	06aH
	DB	0aaH
	DB	0aaH
	DB	0aaH
	DB	0aaH
	DB	0aaH
	DB	0aaH
	DB	0aaH
	DB	0aaH
	DB	0aaH
	DB	0aaH
	DB	0aaH
	DB	0aaH
	DB	0aaH
	DB	0aaH
	DB	0aaH
	DB	0aaH
	DB	0aaH
	DB	0aaH
	DB	0aaH
	DB	0aaH
	DB	0aaH
	DB	0aaH
	DB	0aaH
	DB	0aaH
	DB	0aaH
	DB	0aaH
	DB	0aaH
	DB	0aaH
	DB	0aaH
	DB	0aaH
	DB	0aaH
	DB	0aaH
	DB	0aaH
	DB	0aaH
	DB	0aaH
	DB	0aaH
	DB	0aaH
	DB	0aaH
	DB	0aaH
	DB	0aaH
	DB	0aaH
	DB	0aaH
	DB	0aaH
	DB	0aaH
	DB	0aaH
	DB	0aaH
	DB	095H
	DB	054H
	DB	015H
	DB	06aH
	DB	0aaH
	DB	0aaH
	DB	0aaH
	DB	0aaH
	DB	0aaH
	DB	0aaH
	DB	0aaH
	DB	0aaH
	DB	0aaH
	DB	0aaH
	DB	0aaH
	DB	0aaH
	DB	0aaH
	DB	0aaH
	DB	0aaH
	DB	0aaH
	DB	0aaH
	DB	0aaH
	DB	0aaH
	DB	0aaH
	DB	0aaH
	DB	0aaH
	DB	0aaH
	DB	0aaH
	DB	0aaH
	DB	0aaH
	DB	0aaH
	DB	0aaH
	DB	0aaH
	DB	0aaH
	DB	0aaH
	DB	0aaH
	DB	0aaH
	DB	0aaH
	DB	0aaH
	DB	0aaH
	DB	0aaH
	DB	0aaH
	DB	0aaH
	DB	0aaH
	DB	0aaH
	DB	0aaH
	DB	0aaH
	DB	0aaH
	DB	0aaH
	DB	0aaH
	DB	095H
	DB	054H
	DB	015H
	DB	055H
	DB	055H
	DB	055H
	DB	055H
	DB	055H
	DB	055H
	DB	055H
	DB	055H
	DB	055H
	DB	055H
	DB	055H
	DB	055H
	DB	055H
	DB	055H
	DB	055H
	DB	055H
	DB	055H
	DB	055H
	DB	055H
	DB	055H
	DB	055H
	DB	055H
	DB	055H
	DB	055H
	DB	055H
	DB	055H
	DB	055H
	DB	055H
	DB	055H
	DB	055H
	DB	055H
	DB	055H
	DB	055H
	DB	055H
	DB	055H
	DB	055H
	DB	055H
	DB	055H
	DB	055H
	DB	055H
	DB	055H
	DB	055H
	DB	055H
	DB	055H
	DB	055H
	DB	055H
	DB	055H
	DB	055H
	DB	054H
	DB	015H
	DB	055H
	DB	055H
	DB	055H
	DB	055H
	DB	055H
	DB	055H
	DB	055H
	DB	055H
	DB	055H
	DB	055H
	DB	055H
	DB	055H
	DB	055H
	DB	055H
	DB	055H
	DB	055H
	DB	055H
	DB	055H
	DB	055H
	DB	055H
	DB	055H
	DB	055H
	DB	055H
	DB	055H
	DB	055H
	DB	055H
	DB	055H
	DB	055H
	DB	055H
	DB	055H
	DB	055H
	DB	055H
	DB	055H
	DB	055H
	DB	055H
	DB	055H
	DB	055H
	DB	055H
	DB	055H
	DB	055H
	DB	055H
	DB	055H
	DB	055H
	DB	055H
	DB	055H
	DB	055H
	DB	055H
	DB	055H
	DB	054H
	DB	015H
	DB	055H
	DB	055H
	DB	055H
	DB	055H
	DB	055H
	DB	055H
	DB	055H
	DB	055H
	DB	055H
	DB	055H
	DB	055H
	DB	055H
	DB	055H
	DB	055H
	DB	055H
	DB	055H
	DB	055H
	DB	055H
	DB	055H
	DB	055H
	DB	055H
	DB	055H
	DB	055H
	DB	055H
	DB	055H
	DB	055H
	DB	055H
	DB	055H
	DB	055H
	DB	055H
	DB	055H
	DB	055H
	DB	055H
	DB	055H
	DB	055H
	DB	055H
	DB	055H
	DB	055H
	DB	055H
	DB	055H
	DB	055H
	DB	055H
	DB	055H
	DB	055H
	DB	055H
	DB	055H
	DB	055H
	DB	055H
	DB	054H
	DB	015H
	DB	055H
	DB	055H
	DB	055H
	DB	055H
	DB	055H
	DB	055H
	DB	055H
	DB	055H
	DB	055H
	DB	055H
	DB	055H
	DB	055H
	DB	055H
	DB	055H
	DB	055H
	DB	055H
	DB	055H
	DB	055H
	DB	055H
	DB	055H
	DB	055H
	DB	055H
	DB	055H
	DB	055H
	DB	055H
	DB	055H
	DB	055H
	DB	055H
	DB	055H
	DB	055H
	DB	055H
	DB	055H
	DB	055H
	DB	055H
	DB	055H
	DB	055H
	DB	055H
	DB	055H
	DB	055H
	DB	055H
	DB	055H
	DB	055H
	DB	055H
	DB	055H
	DB	055H
	DB	055H
	DB	055H
	DB	055H
	DB	054H
	DB	015H
	DB	055H
	DB	055H
	DB	055H
	DB	055H
	DB	055H
	DB	055H
	DB	055H
	DB	055H
	DB	055H
	DB	055H
	DB	055H
	DB	055H
	DB	055H
	DB	055H
	DB	055H
	DB	055H
	DB	055H
	DB	055H
	DB	055H
	DB	055H
	DB	055H
	DB	055H
	DB	055H
	DB	055H
	DB	055H
	DB	055H
	DB	055H
	DB	055H
	DB	055H
	DB	055H
	DB	055H
	DB	055H
	DB	055H
	DB	055H
	DB	055H
	DB	055H
	DB	055H
	DB	055H
	DB	055H
	DB	055H
	DB	055H
	DB	055H
	DB	055H
	DB	055H
	DB	055H
	DB	055H
	DB	055H
	DB	055H
	DB	054H
	DB	00H
	DB	00H
	DB	00H
	DB	00H
	DB	00H
	DB	00H
	DB	00H
	DB	00H
	DB	00H
	DB	00H
	DB	00H
	DB	00H
	DB	00H
	DB	00H
	DB	00H
	DB	00H
	DB	00H
	DB	00H
	DB	00H
	DB	00H
	DB	00H
	DB	00H
	DB	00H
	DB	00H
	DB	00H
	DB	00H
	DB	00H
	DB	00H
	DB	00H
	DB	00H
	DB	00H
	DB	00H
	DB	00H
	DB	00H
	DB	00H
	DB	00H
	DB	00H
	DB	00H
	DB	00H
	DB	00H
	DB	00H
	DB	00H
	DB	00H
	DB	00H
	DB	00H
	DB	00H
	DB	00H
	DB	00H
	DB	00H
	DB	00H
_bmAlarm2Active DW 0c8H
	DW	028H
	DW	032H
	DW	02H
	DD	FLAT:_acAlarm2Active
	DD	FLAT:_PalAlarm2Active
	ORG $+4
CONST	ENDS
END
