; Listing generated by Microsoft (R) Optimizing Compiler Version 16.00.40219.01 

	TITLE	C:\DUII\DUII\Graphics\AnalogGaugeButtonOff.c
	.686P
	.XMM
	include listing.inc
	.model	flat

INCLUDELIB LIBCMT
INCLUDELIB OLDNAMES

PUBLIC	_bmAnalogGaugeButtonOff
CONST	SEGMENT
_ColorsAnalogGaugeButtonOff DD 0f0efe2H
	DD	00H
	DD	02b2b2cH
	DD	0ebeaecH
	DD	0dcdbddH
	DD	0fdfdfdH
	DD	0a0a0aH
	DD	0414141H
	DD	0131313H
	DD	04d4d4aH
	DD	0fdH
	DD	03c3c3aH
	DD	01b1b1bH
	DD	054534eH
	DD	061605bH
	DD	05b5a55H
	DD	0f3f2f3H
	DD	0232323H
	DD	06b6a64H
	DD	04a4944H
	DD	0878686H
	DD	0959495H
	DD	0e3e2e4H
	DD	0c0d1c0H
	DD	0535353H
	DD	0787778H
	DD	05b5b5bH
	DD	0333433H
	DD	014140bH
	DD	0636363H
	DD	092918aH
	DD	025251aH
	DD	0fefdH
	DD	0d3H
	DD	01b1b9bH
	DD	06a6a6aH
	DD	0b6b6b7H
	DD	05a5a4eH
	DD	02c2c23H
	DD	055545eH
	DD	0c3c3c4H
	DD	0343429H
	DD	0393935H
	DD	0171778H
	DD	0a3a3a3H
	DD	0dedde0H
	DD	0cacacbH
	DD	0151487H
	DD	0abababH
	DD	01a1a14H
	DD	0e8e7e9H
	DD	06090aH
	DD	0252548H
	DD	090885H
	DD	0807baH
	DD	0e0dee1H
	DD	0252528H
	DD	042413cH
	DD	0201c4H
	DD	0f7f6f8H
	DD	0b0b04H
	DD	0373758H
	DD	0101e8H
	DD	016191bH
	DD	070778H
	DD	0f0eff0H
	DD	040508H
	DD	0151618H
	DD	01b1e21H
	DD	0181868H
	DD	0e6e5e8H
	DD	090404H
	DD	0b0c12H
	DD	0292728H
	DD	050499H
	DD	05d6d6H
	DD	0eeedf0H
	DD	0f8f7f8H
	DD	02026bH
	DD	0242368H
	DD	0484857H
	DD	078786aH
	DD	0868678H
	DD	02e2e31H
	DD	0191954H
	DD	03c3c42H
	DD	022225cH
	DD	0807aaH
	DD	0edece2H
	DD	024243bH
	DD	02a2a3cH
	DD	0443d44H
	DD	05b5a68H
	DD	08989a4H
	DD	0e1011H
	DD	02b3133H
	DD	0363639H
	DD	04c4becH
	DD	0a5a59aH
	DD	0a093aH
	DD	026292bH
	DD	02014aH
	DD	0372c5cH
	DD	086963H
	DD	0656568H
	DD	029279aH
	DD	0323292H
	DD	01818a3H
	DD	03836a4H
	DD	05858b3H
	DD	06664ffH
	DD	0c5fdH
	DD	0f1f0e3H
	DD	080708H
	DD	0100f10H
	DD	0151b16H
	DD	0181718H
	DD	0201e1dH
	DD	01e1d3cH
	DD	0211e21H
	DD	0232334H
	DD	0302f30H
	DD	0424231H
	DD	04c493cH
	DD	01a1a4aH
	DD	0202078H
	DD	0b5753H
	DD	07463H
	DD	07770H
	DD	0616153H
	DD	06a685bH
	DD	01e2281H
	DD	0313187H
	DD	0696888H
	DD	0686799H
	DD	078e6H
	DD	05b5ac5H
	DD	06766c6H
	DD	06665d0H
	DD	03968cH
	DD	020b6b6H
	DD	093faH
	DD	0d8fbH
	DD	07e2e7H
	DD	08f8f90H
	DD	0b3b3acH
	DD	0acabc7H
	DD	070807H
	DD	0100f0eH
	DD	0e151aH
	DD	032321fH
	DD	010122H
	DD	0a1a29H
	DD	01f2121H
	DD	0302a2bH
	DD	0383739H
	DD	0373a3bH
	DD	0403f3cH
	DD	0201f54H
	DD	0201f78H
	DD	0323263H
	DD	0323273H
	DD	0423151H
	DD	02b5753H
	DD	0187569H
	DD	0484743H
	DD	0474748H
	DD	054474eH
	DD	0504f4aH
	DD	05a5649H
	DD	0504f50H
	DD	05f525cH
	DD	0635559H
	DD	041625fH
	DD	069615aH
	DD	0494960H
	DD	04c4c7bH
	DD	0807f7fH
	DD	0877eH
	DD	03b89H
	DD	0c33a3H
	DD	0839b3H
	DD	02e2ca3H
	DD	03634b8H
	DD	0403f82H
	DD	0452baH
	DD	07f7f80H
	DD	04745aeH
	DD	05c5ca4H
	DD	04a47bbH
	DD	0504fb6H
	DD	0605fbbH
	DD	07d7ca2H
	DD	06666bcH
	DD	07b7abaH
	DD	013ffH
	DD	01c1bffH
	DD	023ffH
	DD	034ffH
	DD	03d3cffH
	DD	044ec7H
	DD	0353c0H
	DD	025cd4H
	DD	061daH
	DD	04befH
	DD	04746c6H
	DD	04948ddH
	DD	05652dcH
	DD	07574daH
	DD	05e5eecH
	DD	04948ffH
	DD	05250ffH
	DD	07d7dffH
	DD	0807effH
	DD	098181H
	DD	09c9eH
	DD	0139c96H
	DD	0a297H
	DD	0aba5H
	DD	0b5afH
	DD	0bbb3H
	DD	030bcbbH
	DD	058a19eH
	DD	047c0bfH
	DD	0a7ffH
	DD	0bfffH
	DD	0cdceH
	DD	01d0ceH
	DD	0c8d6H
	DD	02ad0cfH
	DD	035d1d0H
	DD	0c8e7H
	DD	0f4eaH
	DD	0e9ffH
	DD	043c7c6H
	DD	0908f82H
	DD	0908f90H
	DD	0b69898H
	DD	08ea09fH
	DD	09f9eaeH
	DD	09c9bbcH
	DD	0a09fa0H
	DD	094a2a2H
	DD	0a8a8a7H
	DD	0a0a0acH
	DD	0bca6a5H
	DD	0afaeb0H
	DD	0ceb9baH
	DD	09796d0H
	DD	0b5b3ffH
	DD	0c7c6c8H
	DD	0c8c7c9H
	DD	0cfced0H
	DD	0d0cfd0H
	DD	0e8e7e4H
	DD	0d4cecfH
_PalAnalogGaugeButtonOff DD 0100H
	DB	00H
	ORG $+3
	DD	FLAT:_ColorsAnalogGaugeButtonOff
_bmAnalogGaugeButtonOff DW 067H
	DW	042H
	DW	067H
	DW	08H
	DD	FLAT:_acAnalogGaugeButtonOff
	DD	FLAT:_PalAnalogGaugeButtonOff
	ORG $+4
_acAnalogGaugeButtonOff DB 01H
	DB	01H
	DB	01H
	DB	01H
	DB	01H
	DB	01H
	DB	01H
	DB	01H
	DB	01H
	DB	01H
	DB	01H
	DB	01H
	DB	01H
	DB	01H
	DB	01H
	DB	01H
	DB	01H
	DB	01H
	DB	01H
	DB	01H
	DB	01H
	DB	01H
	DB	01H
	DB	01H
	DB	01H
	DB	01H
	DB	01H
	DB	01H
	DB	01H
	DB	01H
	DB	01H
	DB	01H
	DB	01H
	DB	01H
	DB	01H
	DB	01H
	DB	01H
	DB	01H
	DB	01H
	DB	01H
	DB	01H
	DB	01H
	DB	01H
	DB	01H
	DB	01H
	DB	01H
	DB	01H
	DB	01H
	DB	01H
	DB	01H
	DB	01H
	DB	01H
	DB	01H
	DB	01H
	DB	01H
	DB	01H
	DB	01H
	DB	01H
	DB	01H
	DB	01H
	DB	01H
	DB	01H
	DB	01H
	DB	01H
	DB	042H
	DB	042H
	DB	01H
	DB	042H
	DB	093H
	DB	01H
	DB	01H
	DB	01H
	DB	01H
	DB	01H
	DB	01H
	DB	01H
	DB	01H
	DB	071H
	DB	093H
	DB	01H
	DB	093H
	DB	094H
	DB	08H
	DB	072H
	DB	074H
	DB	044H
	DB	0cH
	DB	0cH
	DB	073H
	DB	094H
	DB	072H
	DB	08H
	DB	06H
	DB	042H
	DB	093H
	DB	042H
	DB	071H
	DB	06H
	DB	08H
	DB	01bH
	DB	01bH
	DB	01bH
	DB	073H
	DB	01H
	DB	01H
	DB	01H
	DB	01H
	DB	01H
	DB	01H
	DB	01H
	DB	01H
	DB	01H
	DB	01H
	DB	01H
	DB	01H
	DB	01H
	DB	01H
	DB	01H
	DB	01H
	DB	01H
	DB	01H
	DB	01H
	DB	01H
	DB	01H
	DB	01H
	DB	01H
	DB	01H
	DB	01H
	DB	01H
	DB	01H
	DB	01H
	DB	01H
	DB	01H
	DB	01H
	DB	01H
	DB	01H
	DB	01H
	DB	01H
	DB	01H
	DB	01H
	DB	01H
	DB	01H
	DB	01H
	DB	01H
	DB	01H
	DB	01H
	DB	01H
	DB	01H
	DB	01H
	DB	01H
	DB	01H
	DB	01H
	DB	01H
	DB	01H
	DB	01H
	DB	01H
	DB	01H
	DB	01H
	DB	01H
	DB	01H
	DB	01H
	DB	01H
	DB	01H
	DB	01H
	DB	042H
	DB	042H
	DB	01H
	DB	042H
	DB	042H
	DB	042H
	DB	071H
	DB	06H
	DB	071H
	DB	071H
	DB	071H
	DB	042H
	DB	01H
	DB	042H
	DB	06H
	DB	06H
	DB	093H
	DB	072H
	DB	094H
	DB	08H
	DB	08H
	DB	08H
	DB	08H
	DB	03fH
	DB	044H
	DB	044H
	DB	044H
	DB	043H
	DB	047H
	DB	042H
	DB	06H
	DB	071H
	DB	071H
	DB	071H
	DB	093H
	DB	06H
	DB	06H
	DB	094H
	DB	031H
	DB	031H
	DB	08H
	DB	06H
	DB	01H
	DB	01H
	DB	01H
	DB	01H
	DB	01H
	DB	01H
	DB	01H
	DB	01H
	DB	01H
	DB	01H
	DB	01H
	DB	01H
	DB	01H
	DB	01H
	DB	01H
	DB	01H
	DB	01H
	DB	01H
	DB	01H
	DB	01H
	DB	01H
	DB	01H
	DB	01H
	DB	01H
	DB	01H
	DB	01H
	DB	01H
	DB	01H
	DB	01H
	DB	01H
	DB	01H
	DB	01H
	DB	01H
	DB	01H
	DB	01H
	DB	01H
	DB	01H
	DB	01H
	DB	01H
	DB	01H
	DB	01H
	DB	01H
	DB	01H
	DB	01H
	DB	01H
	DB	01H
	DB	01H
	DB	01H
	DB	01H
	DB	01H
	DB	01H
	DB	01H
	DB	01H
	DB	01H
	DB	01H
	DB	01H
	DB	01H
	DB	01H
	DB	01H
	DB	01H
	DB	01H
	DB	01H
	DB	01H
	DB	01H
	DB	01H
	DB	01H
	DB	01H
	DB	01H
	DB	01H
	DB	01H
	DB	01H
	DB	01H
	DB	01H
	DB	01H
	DB	01H
	DB	042H
	DB	042H
	DB	01H
	DB	042H
	DB	042H
	DB	01H
	DB	01H
	DB	01H
	DB	033H
	DB	033H
	DB	033H
	DB	033H
	DB	05eH
	DB	094H
	DB	01H
	DB	01H
	DB	01H
	DB	01H
	DB	01H
	DB	01H
	DB	042H
	DB	01H
	DB	042H
	DB	042H
	DB	06H
	DB	03fH
	DB	044H
	DB	044H
	DB	01H
	DB	01H
	DB	01H
	DB	01H
	DB	01H
	DB	093H
	DB	01bH
	DB	09H
	DB	013H
	DB	013H
	DB	013H
	DB	013H
	DB	013H
	DB	013H
	DB	013H
	DB	013H
	DB	013H
	DB	013H
	DB	013H
	DB	013H
	DB	013H
	DB	013H
	DB	013H
	DB	013H
	DB	013H
	DB	013H
	DB	013H
	DB	013H
	DB	013H
	DB	013H
	DB	013H
	DB	013H
	DB	013H
	DB	013H
	DB	013H
	DB	013H
	DB	013H
	DB	013H
	DB	013H
	DB	013H
	DB	013H
	DB	013H
	DB	013H
	DB	013H
	DB	013H
	DB	013H
	DB	013H
	DB	013H
	DB	013H
	DB	013H
	DB	013H
	DB	013H
	DB	013H
	DB	013H
	DB	013H
	DB	013H
	DB	013H
	DB	013H
	DB	013H
	DB	013H
	DB	013H
	DB	013H
	DB	013H
	DB	013H
	DB	013H
	DB	013H
	DB	013H
	DB	013H
	DB	013H
	DB	013H
	DB	013H
	DB	013H
	DB	013H
	DB	013H
	DB	013H
	DB	013H
	DB	013H
	DB	013H
	DB	013H
	DB	013H
	DB	013H
	DB	013H
	DB	013H
	DB	013H
	DB	013H
	DB	013H
	DB	013H
	DB	0a5H
	DB	013H
	DB	013H
	DB	013H
	DB	013H
	DB	013H
	DB	013H
	DB	013H
	DB	09H
	DB	09H
	DB	049H
	DB	071H
	DB	047H
	DB	095H
	DB	05fH
	DB	038H
	DB	01H
	DB	01H
	DB	01H
	DB	01H
	DB	074H
	DB	0fH
	DB	012H
	DB	012H
	DB	012H
	DB	012H
	DB	012H
	DB	012H
	DB	012H
	DB	012H
	DB	012H
	DB	012H
	DB	012H
	DB	012H
	DB	012H
	DB	012H
	DB	012H
	DB	012H
	DB	012H
	DB	012H
	DB	012H
	DB	012H
	DB	012H
	DB	012H
	DB	012H
	DB	012H
	DB	012H
	DB	012H
	DB	012H
	DB	012H
	DB	012H
	DB	012H
	DB	012H
	DB	012H
	DB	012H
	DB	012H
	DB	012H
	DB	012H
	DB	012H
	DB	012H
	DB	012H
	DB	012H
	DB	012H
	DB	012H
	DB	012H
	DB	012H
	DB	012H
	DB	012H
	DB	012H
	DB	012H
	DB	012H
	DB	012H
	DB	012H
	DB	012H
	DB	012H
	DB	012H
	DB	012H
	DB	012H
	DB	012H
	DB	012H
	DB	012H
	DB	012H
	DB	012H
	DB	012H
	DB	012H
	DB	012H
	DB	012H
	DB	012H
	DB	012H
	DB	012H
	DB	012H
	DB	012H
	DB	012H
	DB	012H
	DB	012H
	DB	012H
	DB	012H
	DB	012H
	DB	012H
	DB	012H
	DB	012H
	DB	012H
	DB	012H
	DB	012H
	DB	012H
	DB	012H
	DB	012H
	DB	012H
	DB	012H
	DB	012H
	DB	012H
	DB	012H
	DB	012H
	DB	012H
	DB	0dH
	DB	074H
	DB	043H
	DB	08H
	DB	073H
	DB	01H
	DB	01H
	DB	01H
	DB	0cH
	DB	0eH
	DB	01dH
	DB	0eH
	DB	0eH
	DB	0eH
	DB	0eH
	DB	0eH
	DB	0eH
	DB	0eH
	DB	0eH
	DB	0eH
	DB	0eH
	DB	0eH
	DB	0eH
	DB	0eH
	DB	0eH
	DB	0eH
	DB	0eH
	DB	0eH
	DB	0eH
	DB	0eH
	DB	0eH
	DB	0eH
	DB	0eH
	DB	0eH
	DB	0eH
	DB	0eH
	DB	0eH
	DB	0eH
	DB	0eH
	DB	0eH
	DB	0eH
	DB	0eH
	DB	0eH
	DB	0eH
	DB	0eH
	DB	0eH
	DB	0eH
	DB	0eH
	DB	0eH
	DB	0eH
	DB	0eH
	DB	0eH
	DB	0eH
	DB	0eH
	DB	0eH
	DB	0eH
	DB	0eH
	DB	0eH
	DB	0eH
	DB	0eH
	DB	0eH
	DB	0eH
	DB	0eH
	DB	0eH
	DB	0eH
	DB	0eH
	DB	0eH
	DB	0eH
	DB	0eH
	DB	0eH
	DB	0eH
	DB	0eH
	DB	0eH
	DB	0eH
	DB	0eH
	DB	0eH
	DB	0eH
	DB	0eH
	DB	0eH
	DB	0eH
	DB	0eH
	DB	0eH
	DB	0eH
	DB	0eH
	DB	0eH
	DB	0eH
	DB	0eH
	DB	0eH
	DB	0eH
	DB	0eH
	DB	0eH
	DB	0eH
	DB	0eH
	DB	0eH
	DB	0eH
	DB	0eH
	DB	0eH
	DB	0eH
	DB	0eH
	DB	0eH
	DB	0eH
	DB	0eH
	DB	0eH
	DB	01dH
	DB	0a8H
	DB	08H
	DB	043H
	DB	05eH
	DB	01H
	DB	01H
	DB	01H
	DB	013H
	DB	0eH
	DB	0fH
	DB	0fH
	DB	0fH
	DB	0fH
	DB	0fH
	DB	0fH
	DB	0fH
	DB	0fH
	DB	0fH
	DB	0fH
	DB	0fH
	DB	0fH
	DB	0fH
	DB	0fH
	DB	0fH
	DB	0fH
	DB	0fH
	DB	0fH
	DB	0fH
	DB	0fH
	DB	0fH
	DB	0fH
	DB	0fH
	DB	0fH
	DB	0fH
	DB	0fH
	DB	0fH
	DB	0fH
	DB	0fH
	DB	0fH
	DB	0fH
	DB	0fH
	DB	0fH
	DB	0fH
	DB	0fH
	DB	0fH
	DB	0fH
	DB	0fH
	DB	0fH
	DB	0fH
	DB	0fH
	DB	0fH
	DB	0fH
	DB	0fH
	DB	0fH
	DB	0fH
	DB	0fH
	DB	0fH
	DB	0fH
	DB	0fH
	DB	0fH
	DB	0fH
	DB	0fH
	DB	0fH
	DB	0fH
	DB	0fH
	DB	0fH
	DB	0fH
	DB	0fH
	DB	0fH
	DB	0fH
	DB	0fH
	DB	0fH
	DB	0fH
	DB	0fH
	DB	0fH
	DB	0fH
	DB	0fH
	DB	0fH
	DB	0fH
	DB	0fH
	DB	0fH
	DB	0fH
	DB	0fH
	DB	0fH
	DB	0fH
	DB	0fH
	DB	0fH
	DB	0fH
	DB	0fH
	DB	0fH
	DB	0fH
	DB	0fH
	DB	0fH
	DB	0fH
	DB	0fH
	DB	0fH
	DB	0fH
	DB	0fH
	DB	0fH
	DB	0fH
	DB	0fH
	DB	0fH
	DB	0fH
	DB	0eH
	DB	02H
	DB	08H
	DB	093H
	DB	01H
	DB	01H
	DB	074H
	DB	0fH
	DB	0dH
	DB	0dH
	DB	0dH
	DB	0dH
	DB	0dH
	DB	0dH
	DB	0dH
	DB	0dH
	DB	0dH
	DB	0dH
	DB	0dH
	DB	0dH
	DB	0dH
	DB	0dH
	DB	0dH
	DB	0dH
	DB	0dH
	DB	0dH
	DB	0dH
	DB	0dH
	DB	0dH
	DB	0dH
	DB	0dH
	DB	0dH
	DB	0dH
	DB	0dH
	DB	0dH
	DB	0dH
	DB	0dH
	DB	0dH
	DB	0dH
	DB	0dH
	DB	0dH
	DB	0dH
	DB	0dH
	DB	0dH
	DB	0dH
	DB	0dH
	DB	0dH
	DB	0dH
	DB	0dH
	DB	0dH
	DB	0dH
	DB	0dH
	DB	0dH
	DB	0dH
	DB	0dH
	DB	0dH
	DB	0dH
	DB	0dH
	DB	0dH
	DB	0dH
	DB	0dH
	DB	0dH
	DB	0dH
	DB	0dH
	DB	0dH
	DB	0dH
	DB	0dH
	DB	0dH
	DB	0dH
	DB	0dH
	DB	0dH
	DB	0dH
	DB	0dH
	DB	0dH
	DB	0dH
	DB	0dH
	DB	0dH
	DB	0dH
	DB	0dH
	DB	0dH
	DB	0dH
	DB	0dH
	DB	0dH
	DB	0dH
	DB	0dH
	DB	0dH
	DB	0dH
	DB	0dH
	DB	0dH
	DB	0dH
	DB	0dH
	DB	0dH
	DB	0dH
	DB	0dH
	DB	0dH
	DB	0dH
	DB	0dH
	DB	0dH
	DB	0dH
	DB	0dH
	DB	0dH
	DB	0dH
	DB	0dH
	DB	0dH
	DB	013H
	DB	072H
	DB	043H
	DB	01H
	DB	01H
	DB	043H
	DB	0dH
	DB	09H
	DB	09H
	DB	09H
	DB	09H
	DB	09H
	DB	0a8H
	DB	0a8H
	DB	0a8H
	DB	0a8H
	DB	0a8H
	DB	0a8H
	DB	0a8H
	DB	0a8H
	DB	0a8H
	DB	0a8H
	DB	0a8H
	DB	0a8H
	DB	0a8H
	DB	0a8H
	DB	0a8H
	DB	0a8H
	DB	0a8H
	DB	0a8H
	DB	0a8H
	DB	0a8H
	DB	0a8H
	DB	0a8H
	DB	0a8H
	DB	0a8H
	DB	0a8H
	DB	0a8H
	DB	0a8H
	DB	0a8H
	DB	0a8H
	DB	0a8H
	DB	0a8H
	DB	0a8H
	DB	0a8H
	DB	0a8H
	DB	0a8H
	DB	0a8H
	DB	0a8H
	DB	0a8H
	DB	0a8H
	DB	0a8H
	DB	0a8H
	DB	0a8H
	DB	0a8H
	DB	0a8H
	DB	0a8H
	DB	0a8H
	DB	0a8H
	DB	0a8H
	DB	0a8H
	DB	0a8H
	DB	0a8H
	DB	0a8H
	DB	0a8H
	DB	0a8H
	DB	0a8H
	DB	0a8H
	DB	0a8H
	DB	0a8H
	DB	0a8H
	DB	0a8H
	DB	0a8H
	DB	0a8H
	DB	09H
	DB	09H
	DB	09H
	DB	09H
	DB	09H
	DB	09H
	DB	0a8H
	DB	0a8H
	DB	0a8H
	DB	0a8H
	DB	0a8H
	DB	0a8H
	DB	0a8H
	DB	0a8H
	DB	0a8H
	DB	0a8H
	DB	0a8H
	DB	0a8H
	DB	0a8H
	DB	0a8H
	DB	0a8H
	DB	0a8H
	DB	0a8H
	DB	0a8H
	DB	09H
	DB	09H
	DB	09H
	DB	09H
	DB	0a8H
	DB	039H
	DB	08H
	DB	044H
	DB	01H
	DB	01H
	DB	08H
	DB	013H
	DB	0a5H
	DB	0a5H
	DB	0a5H
	DB	0a5H
	DB	0a5H
	DB	09dH
	DB	0bH
	DB	02aH
	DB	02aH
	DB	02aH
	DB	02aH
	DB	02aH
	DB	0bH
	DB	0bH
	DB	02aH
	DB	01bH
	DB	01bH
	DB	0bH
	DB	0bH
	DB	0bH
	DB	0bH
	DB	0bH
	DB	0bH
	DB	0bH
	DB	0bH
	DB	0bH
	DB	0bH
	DB	0bH
	DB	0bH
	DB	0bH
	DB	0bH
	DB	0bH
	DB	0bH
	DB	0bH
	DB	0bH
	DB	0bH
	DB	0bH
	DB	0bH
	DB	0bH
	DB	0bH
	DB	0bH
	DB	0bH
	DB	0bH
	DB	0bH
	DB	0bH
	DB	0bH
	DB	0bH
	DB	0bH
	DB	0bH
	DB	0bH
	DB	0bH
	DB	0bH
	DB	0bH
	DB	0bH
	DB	0bH
	DB	0bH
	DB	0bH
	DB	0bH
	DB	0bH
	DB	0bH
	DB	0bH
	DB	0bH
	DB	0bH
	DB	0bH
	DB	0bH
	DB	02aH
	DB	02aH
	DB	02aH
	DB	0bH
	DB	09dH
	DB	09dH
	DB	09dH
	DB	09dH
	DB	0bH
	DB	0bH
	DB	02aH
	DB	0bH
	DB	0bH
	DB	0bH
	DB	0bH
	DB	0bH
	DB	0bH
	DB	0bH
	DB	0bH
	DB	0bH
	DB	0bH
	DB	0bH
	DB	0bH
	DB	0bH
	DB	0bH
	DB	0bH
	DB	039H
	DB	0a5H
	DB	0a5H
	DB	0a5H
	DB	0a5H
	DB	0bH
	DB	093H
	DB	093H
	DB	01H
	DB	01H
	DB	072H
	DB	039H
	DB	09dH
	DB	09dH
	DB	09dH
	DB	09dH
	DB	039H
	DB	08H
	DB	042H
	DB	0cH
	DB	074H
	DB	074H
	DB	0cH
	DB	0cH
	DB	093H
	DB	01H
	DB	094H
	DB	01bH
	DB	079H
	DB	06H
	DB	01H
	DB	01H
	DB	01H
	DB	01H
	DB	01H
	DB	01H
	DB	01H
	DB	01H
	DB	01H
	DB	01H
	DB	01H
	DB	01H
	DB	01H
	DB	01H
	DB	01H
	DB	01H
	DB	01H
	DB	01H
	DB	01H
	DB	01H
	DB	01H
	DB	01H
	DB	01H
	DB	01H
	DB	01H
	DB	01H
	DB	01H
	DB	01H
	DB	01H
	DB	01H
	DB	01H
	DB	01H
	DB	01H
	DB	01H
	DB	01H
	DB	01H
	DB	01H
	DB	01H
	DB	01H
	DB	01H
	DB	01H
	DB	01H
	DB	01H
	DB	01H
	DB	01H
	DB	01H
	DB	06H
	DB	011H
	DB	09dH
	DB	018H
	DB	0eH
	DB	01dH
	DB	01aH
	DB	018H
	DB	0a6H
	DB	0bH
	DB	02H
	DB	0cH
	DB	06H
	DB	01H
	DB	01H
	DB	01H
	DB	01H
	DB	01H
	DB	01H
	DB	01H
	DB	01H
	DB	01H
	DB	01H
	DB	01H
	DB	01H
	DB	01H
	DB	01H
	DB	011H
	DB	039H
	DB	09dH
	DB	09dH
	DB	039H
	DB	01bH
	DB	06H
	DB	08H
	DB	01H
	DB	01H
	DB	094H
	DB	02aH
	DB	01bH
	DB	01bH
	DB	01bH
	DB	01bH
	DB	02aH
	DB	093H
	DB	01aH
	DB	010H
	DB	04cH
	DB	03H
	DB	016H
	DB	016H
	DB	01bH
	DB	043H
	DB	028H
	DB	010H
	DB	010H
	DB	0f6H
	DB	08H
	DB	01H
	DB	01H
	DB	01H
	DB	01H
	DB	01H
	DB	01H
	DB	01H
	DB	01H
	DB	01H
	DB	01H
	DB	01H
	DB	01H
	DB	01H
	DB	01H
	DB	01H
	DB	01H
	DB	01H
	DB	01H
	DB	01H
	DB	01H
	DB	01H
	DB	01H
	DB	01H
	DB	01H
	DB	01H
	DB	01H
	DB	01H
	DB	01H
	DB	01H
	DB	01H
	DB	01H
	DB	01H
	DB	01H
	DB	01H
	DB	01H
	DB	01H
	DB	01H
	DB	01H
	DB	01H
	DB	01H
	DB	01H
	DB	01H
	DB	01H
	DB	011H
	DB	01aH
	DB	014H
	DB	0f1H
	DB	0f3H
	DB	02cH
	DB	0f1H
	DB	015H
	DB	01eH
	DB	014H
	DB	019H
	DB	023H
	DB	01aH
	DB	0a6H
	DB	09bH
	DB	049H
	DB	08H
	DB	093H
	DB	01H
	DB	01H
	DB	01H
	DB	01H
	DB	01H
	DB	01H
	DB	01H
	DB	01H
	DB	01H
	DB	01H
	DB	01H
	DB	075H
	DB	02aH
	DB	01bH
	DB	01bH
	DB	02aH
	DB	02H
	DB	042H
	DB	044H
	DB	01H
	DB	01H
	DB	094H
	DB	079H
	DB	02H
	DB	02H
	DB	02H
	DB	02H
	DB	079H
	DB	071H
	DB	060H
	DB	0ecH
	DB	014H
	DB	014H
	DB	010H
	DB	0fdH
	DB	072H
	DB	014H
	DB	05H
	DB	01aH
	DB	068H
	DB	05H
	DB	019H
	DB	01H
	DB	01H
	DB	01H
	DB	01H
	DB	01H
	DB	01H
	DB	01H
	DB	01H
	DB	01H
	DB	01H
	DB	01H
	DB	01H
	DB	01H
	DB	01H
	DB	01H
	DB	01H
	DB	01H
	DB	01H
	DB	01H
	DB	01H
	DB	01H
	DB	01H
	DB	01H
	DB	01H
	DB	01H
	DB	01H
	DB	01H
	DB	01H
	DB	01H
	DB	01H
	DB	01H
	DB	01H
	DB	01H
	DB	01H
	DB	01H
	DB	01H
	DB	01H
	DB	01H
	DB	01H
	DB	01H
	DB	01H
	DB	038H
	DB	019H
	DB	0f3H
	DB	024H
	DB	024H
	DB	062H
	DB	0ebH
	DB	019H
	DB	023H
	DB	05cH
	DB	05cH
	DB	0abH
	DB	0acH
	DB	0aeH
	DB	082H
	DB	081H
	DB	09H
	DB	01bH
	DB	038H
	DB	099H
	DB	08H
	DB	042H
	DB	01H
	DB	01H
	DB	01H
	DB	01H
	DB	01H
	DB	01H
	DB	01H
	DB	01H
	DB	01H
	DB	0cH
	DB	079H
	DB	02H
	DB	02H
	DB	079H
	DB	011H
	DB	048H
	DB	038H
	DB	01H
	DB	01H
	DB	06H
	DB	049H
	DB	011H
	DB	011H
	DB	011H
	DB	011H
	DB	049H
	DB	06H
	DB	01H
	DB	01H
	DB	01H
	DB	018H
	DB	010H
	DB	0a5H
	DB	01H
	DB	090H
	DB	03bH
	DB	074H
	DB	02H
	DB	010H
	DB	019H
	DB	01H
	DB	01H
	DB	01H
	DB	01H
	DB	01H
	DB	01H
	DB	01H
	DB	01H
	DB	01H
	DB	01H
	DB	01H
	DB	01H
	DB	01H
	DB	01H
	DB	01H
	DB	01H
	DB	01H
	DB	01H
	DB	01H
	DB	01H
	DB	01H
	DB	01H
	DB	01H
	DB	01H
	DB	01H
	DB	01H
	DB	01H
	DB	01H
	DB	01H
	DB	01H
	DB	01H
	DB	01H
	DB	01H
	DB	01H
	DB	01H
	DB	01H
	DB	01H
	DB	01H
	DB	01H
	DB	094H
	DB	01aH
	DB	0f3H
	DB	024H
	DB	091H
	DB	01eH
	DB	05cH
	DB	0a0H
	DB	02bH
	DB	040H
	DB	040H
	DB	040H
	DB	02bH
	DB	0b9H
	DB	0c9H
	DB	0b4H
	DB	083H
	DB	066H
	DB	0a7H
	DB	0a9H
	DB	02aH
	DB	074H
	DB	072H
	DB	043H
	DB	094H
	DB	01H
	DB	01H
	DB	01H
	DB	01H
	DB	01H
	DB	01H
	DB	01H
	DB	01H
	DB	043H
	DB	049H
	DB	011H
	DB	011H
	DB	049H
	DB	075H
	DB	05eH
	DB	099H
	DB	01H
	DB	01H
	DB	071H
	DB	075H
	DB	075H
	DB	075H
	DB	075H
	DB	075H
	DB	075H
	DB	06H
	DB	01H
	DB	01H
	DB	08H
	DB	037H
	DB	02cH
	DB	01H
	DB	01H
	DB	043H
	DB	0fdH
	DB	04cH
	DB	041H
	DB	028H
	DB	072H
	DB	01H
	DB	01H
	DB	01H
	DB	01H
	DB	01H
	DB	01H
	DB	01H
	DB	01H
	DB	01H
	DB	01H
	DB	01H
	DB	01H
	DB	01H
	DB	01H
	DB	01H
	DB	01H
	DB	01H
	DB	01H
	DB	01H
	DB	01H
	DB	01H
	DB	01H
	DB	01H
	DB	01H
	DB	01H
	DB	01H
	DB	01H
	DB	01H
	DB	01H
	DB	01H
	DB	01H
	DB	01H
	DB	01H
	DB	01H
	DB	01H
	DB	01H
	DB	01H
	DB	01H
	DB	099H
	DB	014H
	DB	024H
	DB	024H
	DB	0ebH
	DB	0afH
	DB	045H
	DB	040H
	DB	045H
	DB	09eH
	DB	059H
	DB	038H
	DB	077H
	DB	03fH
	DB	0d7H
	DB	0e4H
	DB	0e7H
	DB	06fH
	DB	08dH
	DB	0c8H
	DB	083H
	DB	0a2H
	DB	07bH
	DB	0cH
	DB	01H
	DB	06H
	DB	08H
	DB	01H
	DB	01H
	DB	01H
	DB	01H
	DB	01H
	DB	01H
	DB	01H
	DB	072H
	DB	075H
	DB	075H
	DB	075H
	DB	075H
	DB	074H
	DB	06H
	DB	043H
	DB	01H
	DB	01H
	DB	093H
	DB	074H
	DB	074H
	DB	074H
	DB	074H
	DB	074H
	DB	074H
	DB	093H
	DB	01H
	DB	01H
	DB	023H
	DB	05H
	DB	09bH
	DB	01H
	DB	01H
	DB	018H
	DB	04cH
	DB	02cH
	DB	030H
	DB	032H
	DB	0aaH
	DB	01H
	DB	01H
	DB	01H
	DB	01H
	DB	01H
	DB	01H
	DB	01H
	DB	01H
	DB	01H
	DB	01aH
	DB	011H
	DB	01H
	DB	01H
	DB	01H
	DB	01H
	DB	01H
	DB	01H
	DB	01H
	DB	01H
	DB	01H
	DB	01H
	DB	01H
	DB	01H
	DB	01H
	DB	01H
	DB	01H
	DB	01H
	DB	01H
	DB	01H
	DB	01H
	DB	01H
	DB	01H
	DB	01H
	DB	01H
	DB	01H
	DB	01H
	DB	01H
	DB	053H
	DB	015H
	DB	024H
	DB	062H
	DB	01aH
	DB	045H
	DB	035H
	DB	056H
	DB	038H
	DB	01cH
	DB	03cH
	DB	094H
	DB	08H
	DB	08H
	DB	0bH
	DB	0adH
	DB	067H
	DB	07fH
	DB	080H
	DB	0d9H
	DB	04bH
	DB	06fH
	DB	0cbH
	DB	07dH
	DB	05bH
	DB	026H
	DB	01H
	DB	06H
	DB	08H
	DB	01H
	DB	01H
	DB	01H
	DB	01H
	DB	01H
	DB	01H
	DB	094H
	DB	074H
	DB	074H
	DB	074H
	DB	074H
	DB	08H
	DB	072H
	DB	011H
	DB	01H
	DB	01H
	DB	042H
	DB	072H
	DB	072H
	DB	072H
	DB	072H
	DB	072H
	DB	072H
	DB	042H
	DB	01H
	DB	01H
	DB	028H
	DB	0fdH
	DB	06H
	DB	01H
	DB	01H
	DB	0faH
	DB	0fdH
	DB	01H
	DB	06H
	DB	04H
	DB	024H
	DB	049H
	DB	068H
	DB	068H
	DB	01dH
	DB	0fH
	DB	099H
	DB	01dH
	DB	023H
	DB	038H
	DB	019H
	DB	0b1H
	DB	01aH
	DB	093H
	DB	01H
	DB	01H
	DB	01H
	DB	01H
	DB	01H
	DB	01H
	DB	01H
	DB	01H
	DB	01H
	DB	01H
	DB	01H
	DB	01H
	DB	01H
	DB	01H
	DB	01H
	DB	01H
	DB	01H
	DB	01H
	DB	01H
	DB	01H
	DB	01H
	DB	01H
	DB	01H
	DB	02H
	DB	015H
	DB	0f6H
	DB	01eH
	DB	03dH
	DB	035H
	DB	04fH
	DB	026H
	DB	01cH
	DB	06H
	DB	01aH
	DB	015H
	DB	0aaH
	DB	043H
	DB	049H
	DB	0f3H
	DB	0f7H
	DB	0deH
	DB	0daH
	DB	08bH
	DB	067H
	DB	0a3H
	DB	0a4H
	DB	0e2H
	DB	0e1H
	DB	0b5H
	DB	0a2H
	DB	029H
	DB	01H
	DB	071H
	DB	08H
	DB	01H
	DB	01H
	DB	01H
	DB	01H
	DB	01H
	DB	06H
	DB	072H
	DB	072H
	DB	072H
	DB	072H
	DB	06H
	DB	06H
	DB	044H
	DB	01H
	DB	01H
	DB	01H
	DB	06H
	DB	06H
	DB	06H
	DB	06H
	DB	06H
	DB	06H
	DB	01H
	DB	01H
	DB	075H
	DB	041H
	DB	015H
	DB	01H
	DB	01H
	DB	01H
	DB	028H
	DB	032H
	DB	0cH
	DB	011H
	DB	03H
	DB	030H
	DB	0aaH
	DB	01dH
	DB	019H
	DB	01aH
	DB	019H
	DB	018H
	DB	019H
	DB	0bH
	DB	019H
	DB	023H
	DB	0a6H
	DB	014H
	DB	099H
	DB	01H
	DB	01H
	DB	01H
	DB	01H
	DB	01H
	DB	01H
	DB	01H
	DB	01H
	DB	01H
	DB	01H
	DB	01H
	DB	01H
	DB	01H
	DB	01H
	DB	01H
	DB	01H
	DB	01H
	DB	01H
	DB	01H
	DB	01H
	DB	01H
	DB	01H
	DB	075H
	DB	090H
	DB	030H
	DB	052H
	DB	056H
	DB	035H
	DB	05aH
	DB	01cH
	DB	042H
	DB	043H
	DB	074H
	DB	0f1H
	DB	0fdH
	DB	014H
	DB	0cH
	DB	049H
	DB	019H
	DB	0f5H
	DB	0dfH
	DB	0e8H
	DB	0ddH
	DB	015H
	DB	0eeH
	DB	014H
	DB	07eH
	DB	08bH
	DB	08eH
	DB	0caH
	DB	066H
	DB	07aH
	DB	01H
	DB	071H
	DB	08H
	DB	01H
	DB	01H
	DB	01H
	DB	01H
	DB	093H
	DB	06H
	DB	06H
	DB	06H
	DB	06H
	DB	071H
	DB	093H
	DB	08H
	DB	01H
	DB	01H
	DB	01H
	DB	01H
	DB	01H
	DB	01H
	DB	01H
	DB	01H
	DB	01H
	DB	01H
	DB	01H
	DB	09bH
	DB	05H
	DB	019H
	DB	01H
	DB	01H
	DB	01H
	DB	0aaH
	DB	03bH
	DB	046H
	DB	046H
	DB	010H
	DB	07H
	DB	0aaH
	DB	09H
	DB	0eH
	DB	0bH
	DB	019H
	DB	0aaH
	DB	0b1H
	DB	01aH
	DB	01dH
	DB	023H
	DB	01bH
	DB	019H
	DB	011H
	DB	01H
	DB	01H
	DB	01H
	DB	01H
	DB	01H
	DB	01H
	DB	01H
	DB	01H
	DB	01H
	DB	01H
	DB	01H
	DB	01H
	DB	01H
	DB	01H
	DB	01H
	DB	01H
	DB	01H
	DB	01H
	DB	01H
	DB	01H
	DB	01H
	DB	06H
	DB	019H
	DB	0f1H
	DB	0ebH
	DB	056H
	DB	035H
	DB	02H
	DB	01cH
	DB	01bH
	DB	01aH
	DB	01bH
	DB	099H
	DB	01aH
	DB	014H
	DB	0aaH
	DB	038H
	DB	09aH
	DB	09cH
	DB	08cH
	DB	020H
	DB	020H
	DB	0e6H
	DB	0edH
	DB	015H
	DB	0f2H
	DB	0d8H
	DB	080H
	DB	07fH
	DB	08fH
	DB	087H
	DB	066H
	DB	029H
	DB	01H
	DB	094H
	DB	094H
	DB	01H
	DB	01H
	DB	01H
	DB	01H
	DB	01H
	DB	01H
	DB	01H
	DB	01H
	DB	01H
	DB	093H
	DB	06H
	DB	01H
	DB	01H
	DB	011H
	DB	014H
	DB	0b1H
	DB	0b1H
	DB	0b1H
	DB	0b1H
	DB	014H
	DB	049H
	DB	01H
	DB	0cH
	DB	023H
	DB	049H
	DB	01H
	DB	01H
	DB	01H
	DB	01H
	DB	01bH
	DB	014H
	DB	014H
	DB	01bH
	DB	01H
	DB	099H
	DB	075H
	DB	038H
	DB	074H
	DB	011H
	DB	07H
	DB	014H
	DB	0a6H
	DB	072H
	DB	049H
	DB	08H
	DB	02H
	DB	06H
	DB	01H
	DB	01H
	DB	01H
	DB	01H
	DB	01H
	DB	01H
	DB	01H
	DB	01H
	DB	01H
	DB	01H
	DB	01H
	DB	01H
	DB	01H
	DB	01H
	DB	01H
	DB	01H
	DB	01H
	DB	01H
	DB	01H
	DB	01H
	DB	01H
	DB	0aaH
	DB	015H
	DB	0ebH
	DB	066H
	DB	035H
	DB	02H
	DB	01cH
	DB	072H
	DB	0a6H
	DB	028H
	DB	0a6H
	DB	038H
	DB	038H
	DB	099H
	DB	038H
	DB	053H
	DB	049H
	DB	064H
	DB	04bH
	DB	020H
	DB	020H
	DB	08fH
	DB	08cH
	DB	0eaH
	DB	0e5H
	DB	04bH
	DB	0dbH
	DB	0b2H
	DB	07fH
	DB	087H
	DB	03eH
	DB	03dH
	DB	01fH
	DB	01H
	DB	072H
	DB	093H
	DB	01H
	DB	01H
	DB	0a6H
	DB	014H
	DB	0b1H
	DB	0b1H
	DB	014H
	DB	023H
	DB	06H
	DB	08H
	DB	01H
	DB	01H
	DB	0a6H
	DB	05H
	DB	05H
	DB	05H
	DB	05H
	DB	05H
	DB	05H
	DB	018H
	DB	01H
	DB	01H
	DB	01H
	DB	01H
	DB	01H
	DB	01H
	DB	01H
	DB	01H
	DB	01H
	DB	01H
	DB	01H
	DB	01H
	DB	01H
	DB	01H
	DB	01H
	DB	01H
	DB	01H
	DB	01H
	DB	075H
	DB	09bH
	DB	01H
	DB	01H
	DB	01H
	DB	01H
	DB	01H
	DB	01H
	DB	01H
	DB	01H
	DB	01H
	DB	01H
	DB	01H
	DB	01H
	DB	01H
	DB	01H
	DB	01H
	DB	01H
	DB	01H
	DB	01H
	DB	01H
	DB	01H
	DB	01H
	DB	01H
	DB	01H
	DB	01H
	DB	01H
	DB	01H
	DB	011H
	DB	019H
	DB	01eH
	DB	050H
	DB	035H
	DB	05aH
	DB	03cH
	DB	08H
	DB	074H
	DB	01aH
	DB	068H
	DB	011H
	DB	02H
	DB	02H
	DB	02H
	DB	02H
	DB	02H
	DB	049H
	DB	05fH
	DB	04bH
	DB	020H
	DB	020H
	DB	020H
	DB	020H
	DB	020H
	DB	020H
	DB	020H
	DB	0e8H
	DB	0dcH
	DB	0b3H
	DB	04eH
	DB	0aH
	DB	036H
	DB	09dH
	DB	094H
	DB	042H
	DB	072H
	DB	01H
	DB	01H
	DB	015H
	DB	05H
	DB	05H
	DB	05H
	DB	05H
	DB	04H
	DB	01H
	DB	094H
	DB	01H
	DB	01H
	DB	0a6H
	DB	05H
	DB	05H
	DB	05H
	DB	05H
	DB	05H
	DB	05H
	DB	018H
	DB	01H
	DB	01H
	DB	01H
	DB	01H
	DB	01H
	DB	01H
	DB	01H
	DB	01H
	DB	01H
	DB	01H
	DB	01H
	DB	01H
	DB	01H
	DB	01H
	DB	01H
	DB	01H
	DB	01H
	DB	01H
	DB	01H
	DB	01H
	DB	01H
	DB	01H
	DB	01H
	DB	01H
	DB	01H
	DB	01H
	DB	01H
	DB	01H
	DB	01H
	DB	01H
	DB	01H
	DB	01H
	DB	01H
	DB	01H
	DB	01H
	DB	01H
	DB	01H
	DB	01H
	DB	01H
	DB	01H
	DB	01H
	DB	01H
	DB	01H
	DB	01H
	DB	01H
	DB	01H
	DB	018H
	DB	0b1H
	DB	012H
	DB	040H
	DB	056H
	DB	01cH
	DB	060H
	DB	07H
	DB	049H
	DB	01bH
	DB	049H
	DB	02H
	DB	02H
	DB	02H
	DB	02H
	DB	02H
	DB	02H
	DB	049H
	DB	05fH
	DB	04bH
	DB	020H
	DB	020H
	DB	020H
	DB	020H
	DB	020H
	DB	020H
	DB	020H
	DB	0e9H
	DB	0ccH
	DB	03aH
	DB	040H
	DB	035H
	DB	0aH
	DB	083H
	DB	029H
	DB	01H
	DB	072H
	DB	071H
	DB	01H
	DB	0ecH
	DB	05H
	DB	05H
	DB	05H
	DB	05H
	DB	04H
	DB	01H
	DB	093H
	DB	01H
	DB	01H
	DB	0a6H
	DB	05H
	DB	05H
	DB	05H
	DB	05H
	DB	05H
	DB	05H
	DB	018H
	DB	01H
	DB	01H
	DB	01H
	DB	01H
	DB	01H
	DB	01H
	DB	01H
	DB	01H
	DB	01H
	DB	01H
	DB	01H
	DB	01H
	DB	01H
	DB	01H
	DB	01H
	DB	01H
	DB	01H
	DB	01H
	DB	01H
	DB	01H
	DB	01H
	DB	01H
	DB	01H
	DB	01H
	DB	01H
	DB	01H
	DB	01H
	DB	01H
	DB	01H
	DB	01H
	DB	01H
	DB	01H
	DB	01H
	DB	01H
	DB	01H
	DB	01H
	DB	01H
	DB	01H
	DB	01H
	DB	01H
	DB	01H
	DB	01H
	DB	01H
	DB	01H
	DB	01H
	DB	075H
	DB	023H
	DB	051H
	DB	03dH
	DB	02bH
	DB	031H
	DB	060H
	DB	028H
	DB	090H
	DB	02H
	DB	049H
	DB	02H
	DB	02H
	DB	02H
	DB	02H
	DB	02H
	DB	02H
	DB	02H
	DB	049H
	DB	05fH
	DB	04bH
	DB	020H
	DB	020H
	DB	020H
	DB	020H
	DB	020H
	DB	020H
	DB	08eH
	DB	0c6H
	DB	0aH
	DB	03eH
	DB	036H
	DB	04eH
	DB	03aH
	DB	03eH
	DB	055H
	DB	01cH
	DB	042H
	DB	072H
	DB	01H
	DB	0ecH
	DB	05H
	DB	05H
	DB	05H
	DB	05H
	DB	04H
	DB	01H
	DB	042H
	DB	01H
	DB	01H
	DB	0a6H
	DB	05H
	DB	05H
	DB	05H
	DB	05H
	DB	05H
	DB	05H
	DB	018H
	DB	01H
	DB	01H
	DB	01H
	DB	01H
	DB	01H
	DB	01H
	DB	01H
	DB	01H
	DB	01H
	DB	01H
	DB	01H
	DB	01H
	DB	01H
	DB	01H
	DB	01H
	DB	01H
	DB	01H
	DB	01H
	DB	01H
	DB	01H
	DB	01H
	DB	01H
	DB	01H
	DB	01H
	DB	01H
	DB	01H
	DB	01H
	DB	01H
	DB	01H
	DB	01H
	DB	01H
	DB	01H
	DB	01H
	DB	01H
	DB	01H
	DB	01H
	DB	01H
	DB	01H
	DB	01H
	DB	01H
	DB	01H
	DB	01H
	DB	01H
	DB	01H
	DB	01H
	DB	0bH
	DB	023H
	DB	082H
	DB	035H
	DB	056H
	DB	03cH
	DB	02aH
	DB	024H
	DB	030H
	DB	09bH
	DB	049H
	DB	02H
	DB	02H
	DB	02H
	DB	02H
	DB	02H
	DB	02H
	DB	053H
	DB	09aH
	DB	05fH
	DB	04bH
	DB	020H
	DB	020H
	DB	020H
	DB	020H
	DB	020H
	DB	06fH
	DB	0c5H
	DB	0aH
	DB	0aH
	DB	0aH
	DB	021H
	DB	04aH
	DB	04eH
	DB	0aH
	DB	022H
	DB	096H
	DB	01H
	DB	072H
	DB	01H
	DB	090H
	DB	05H
	DB	05H
	DB	05H
	DB	05H
	DB	04H
	DB	01H
	DB	093H
	DB	01H
	DB	01H
	DB	0a6H
	DB	05H
	DB	04dH
	DB	04dH
	DB	04dH
	DB	04dH
	DB	05H
	DB	0aaH
	DB	01H
	DB	01H
	DB	01H
	DB	01H
	DB	01H
	DB	01H
	DB	01H
	DB	01H
	DB	01H
	DB	01H
	DB	01H
	DB	01H
	DB	01H
	DB	01H
	DB	01H
	DB	01H
	DB	01H
	DB	01H
	DB	01H
	DB	01H
	DB	01H
	DB	01H
	DB	01H
	DB	01H
	DB	01H
	DB	01H
	DB	01H
	DB	01H
	DB	01H
	DB	01H
	DB	01H
	DB	01H
	DB	01H
	DB	01H
	DB	01H
	DB	01H
	DB	01H
	DB	01H
	DB	01H
	DB	01H
	DB	01H
	DB	01H
	DB	01H
	DB	01H
	DB	06H
	DB	09H
	DB	012H
	DB	050H
	DB	04aH
	DB	02fH
	DB	040H
	DB	07cH
	DB	0bH
	DB	07aH
	DB	026H
	DB	02H
	DB	02H
	DB	02H
	DB	02H
	DB	02H
	DB	053H
	DB	053H
	DB	038H
	DB	075H
	DB	099H
	DB	0d6H
	DB	0e3H
	DB	020H
	DB	020H
	DB	020H
	DB	0e0H
	DB	0c3H
	DB	0aH
	DB	0aH
	DB	0aH
	DB	0aH
	DB	0aH
	DB	03aH
	DB	04eH
	DB	03aH
	DB	03eH
	DB	060H
	DB	03cH
	DB	06H
	DB	01H
	DB	090H
	DB	05H
	DB	04dH
	DB	04dH
	DB	05H
	DB	04H
	DB	01H
	DB	042H
	DB	01H
	DB	01H
	DB	0a6H
	DB	05H
	DB	04dH
	DB	04dH
	DB	04dH
	DB	04dH
	DB	05H
	DB	0aaH
	DB	01H
	DB	01H
	DB	01H
	DB	01H
	DB	01H
	DB	01H
	DB	01H
	DB	01H
	DB	01H
	DB	01H
	DB	01H
	DB	01H
	DB	01H
	DB	01H
	DB	01H
	DB	01H
	DB	01H
	DB	01H
	DB	01H
	DB	01H
	DB	01H
	DB	01H
	DB	01H
	DB	01H
	DB	01H
	DB	01H
	DB	01H
	DB	01H
	DB	01H
	DB	01H
	DB	01H
	DB	01H
	DB	01H
	DB	01H
	DB	01H
	DB	01H
	DB	01H
	DB	01H
	DB	01H
	DB	01H
	DB	01H
	DB	01H
	DB	01H
	DB	01H
	DB	0cH
	DB	09H
	DB	0eH
	DB	04fH
	DB	056H
	DB	01cH
	DB	063H
	DB	02fH
	DB	04aH
	DB	02fH
	DB	034H
	DB	026H
	DB	096H
	DB	026H
	DB	02H
	DB	053H
	DB	02H
	DB	074H
	DB	06H
	DB	071H
	DB	071H
	DB	047H
	DB	071H
	DB	07eH
	DB	04bH
	DB	08dH
	DB	0aH
	DB	0aH
	DB	0aH
	DB	0aH
	DB	0aH
	DB	0aH
	DB	0aH
	DB	021H
	DB	04aH
	DB	035H
	DB	0aH
	DB	04fH
	DB	031H
	DB	01H
	DB	01H
	DB	090H
	DB	05H
	DB	04dH
	DB	04dH
	DB	05H
	DB	04H
	DB	01H
	DB	042H
	DB	01H
	DB	01H
	DB	0a6H
	DB	05H
	DB	04dH
	DB	04dH
	DB	04dH
	DB	04dH
	DB	05H
	DB	0aaH
	DB	01H
	DB	01H
	DB	01H
	DB	01H
	DB	01H
	DB	01H
	DB	01H
	DB	01H
	DB	01H
	DB	01H
	DB	01H
	DB	01H
	DB	01H
	DB	01H
	DB	01H
	DB	01H
	DB	01H
	DB	01H
	DB	01H
	DB	01H
	DB	01H
	DB	01H
	DB	01H
	DB	01H
	DB	01H
	DB	01H
	DB	01H
	DB	01H
	DB	01H
	DB	01H
	DB	01H
	DB	01H
	DB	01H
	DB	01H
	DB	01H
	DB	01H
	DB	01H
	DB	01H
	DB	01H
	DB	01H
	DB	01H
	DB	01H
	DB	01H
	DB	01H
	DB	011H
	DB	0a6H
	DB	025H
	DB	02bH
	DB	076H
	DB	01bH
	DB	062H
	DB	051H
	DB	078H
	DB	045H
	DB	057H
	DB	057H
	DB	09fH
	DB	05aH
	DB	096H
	DB	01fH
	DB	094H
	DB	071H
	DB	072H
	DB	074H
	DB	099H
	DB	075H
	DB	08H
	DB	047H
	DB	098H
	DB	021H
	DB	0aH
	DB	0aH
	DB	0aH
	DB	0aH
	DB	0aH
	DB	0aH
	DB	0aH
	DB	03eH
	DB	057H
	DB	04eH
	DB	0aH
	DB	022H
	DB	01fH
	DB	01H
	DB	042H
	DB	0ecH
	DB	05H
	DB	04dH
	DB	04dH
	DB	05H
	DB	04H
	DB	01H
	DB	06H
	DB	01H
	DB	01H
	DB	0a6H
	DB	05H
	DB	04dH
	DB	04dH
	DB	04dH
	DB	04dH
	DB	05H
	DB	0aaH
	DB	01H
	DB	01H
	DB	01H
	DB	01H
	DB	01H
	DB	01H
	DB	01H
	DB	01H
	DB	01H
	DB	01H
	DB	01H
	DB	01H
	DB	01H
	DB	01H
	DB	01H
	DB	01H
	DB	01H
	DB	01H
	DB	01H
	DB	01H
	DB	01H
	DB	01H
	DB	01H
	DB	01H
	DB	01H
	DB	01H
	DB	01H
	DB	01H
	DB	01H
	DB	01H
	DB	01H
	DB	01H
	DB	01H
	DB	01H
	DB	01H
	DB	01H
	DB	01H
	DB	01H
	DB	01H
	DB	01H
	DB	01H
	DB	01H
	DB	01H
	DB	01H
	DB	049H
	DB	07H
	DB	050H
	DB	02fH
	DB	0cH
	DB	079H
	DB	0f6H
	DB	030H
	DB	02aH
	DB	026H
	DB	026H
	DB	09eH
	DB	04aH
	DB	036H
	DB	06bH
	DB	054H
	DB	06H
	DB	01cH
	DB	052H
	DB	030H
	DB	0f1H
	DB	0f1H
	DB	014H
	DB	038H
	DB	047H
	DB	065H
	DB	0aH
	DB	0aH
	DB	0aH
	DB	0aH
	DB	0aH
	DB	0aH
	DB	0aH
	DB	0aH
	DB	03aH
	DB	04eH
	DB	021H
	DB	036H
	DB	029H
	DB	01H
	DB	042H
	DB	015H
	DB	05H
	DB	04dH
	DB	04dH
	DB	05H
	DB	04H
	DB	01H
	DB	06H
	DB	01H
	DB	01H
	DB	0a6H
	DB	05H
	DB	03bH
	DB	03bH
	DB	03bH
	DB	03bH
	DB	05H
	DB	0aaH
	DB	01H
	DB	01H
	DB	01H
	DB	01H
	DB	01H
	DB	01H
	DB	01H
	DB	01H
	DB	01H
	DB	01H
	DB	01H
	DB	01H
	DB	01H
	DB	01H
	DB	01H
	DB	01H
	DB	01H
	DB	01H
	DB	01H
	DB	01H
	DB	01H
	DB	01H
	DB	01H
	DB	01H
	DB	01H
	DB	01H
	DB	01H
	DB	01H
	DB	01H
	DB	01H
	DB	01H
	DB	01H
	DB	01H
	DB	01H
	DB	01H
	DB	01H
	DB	01H
	DB	01H
	DB	01H
	DB	01H
	DB	01H
	DB	01H
	DB	01H
	DB	042H
	DB	049H
	DB	09dH
	DB	03dH
	DB	02fH
	DB	075H
	DB	043H
	DB	068H
	DB	019H
	DB	079H
	DB	02H
	DB	02H
	DB	026H
	DB	096H
	DB	059H
	DB	02bH
	DB	036H
	DB	03aH
	DB	02fH
	DB	085H
	DB	0b1H
	DB	068H
	DB	01dH
	DB	0eH
	DB	09bH
	DB	0cH
	DB	094H
	DB	036H
	DB	0aH
	DB	0aH
	DB	0aH
	DB	0aH
	DB	0aH
	DB	0aH
	DB	0aH
	DB	021H
	DB	040H
	DB	057H
	DB	021H
	DB	053H
	DB	047H
	DB	01H
	DB	015H
	DB	05H
	DB	03bH
	DB	03bH
	DB	05H
	DB	04H
	DB	01H
	DB	043H
	DB	01H
	DB	01H
	DB	0a5H
	DB	05H
	DB	03bH
	DB	03bH
	DB	03bH
	DB	03bH
	DB	05H
	DB	0aaH
	DB	01H
	DB	01H
	DB	01H
	DB	01H
	DB	01H
	DB	01H
	DB	01H
	DB	01H
	DB	01H
	DB	01H
	DB	01H
	DB	01H
	DB	01H
	DB	01H
	DB	01H
	DB	01H
	DB	01H
	DB	01H
	DB	01H
	DB	01H
	DB	01H
	DB	01H
	DB	01H
	DB	01H
	DB	01H
	DB	01H
	DB	01H
	DB	01H
	DB	01H
	DB	01H
	DB	01H
	DB	01H
	DB	01H
	DB	01H
	DB	01H
	DB	01H
	DB	01H
	DB	01H
	DB	01H
	DB	01H
	DB	01H
	DB	01H
	DB	01H
	DB	093H
	DB	011H
	DB	0bH
	DB	03dH
	DB	02bH
	DB	075H
	DB	043H
	DB	0cH
	DB	099H
	DB	02H
	DB	02H
	DB	02H
	DB	02H
	DB	02H
	DB	029H
	DB	031H
	DB	03cH
	DB	054H
	DB	057H
	DB	021H
	DB	045H
	DB	01cH
	DB	043H
	DB	038H
	DB	02H
	DB	02H
	DB	031H
	DB	035H
	DB	0aH
	DB	0aH
	DB	0aH
	DB	0aH
	DB	0aH
	DB	0aH
	DB	0aH
	DB	021H
	DB	04aH
	DB	04aH
	DB	03eH
	DB	05aH
	DB	03cH
	DB	01H
	DB	015H
	DB	05H
	DB	03bH
	DB	03bH
	DB	05H
	DB	0fdH
	DB	042H
	DB	08H
	DB	01H
	DB	01H
	DB	0a5H
	DB	05H
	DB	03bH
	DB	03bH
	DB	03bH
	DB	03bH
	DB	05H
	DB	0aaH
	DB	01H
	DB	01H
	DB	01H
	DB	01H
	DB	01H
	DB	01H
	DB	01H
	DB	01H
	DB	01H
	DB	01H
	DB	01H
	DB	01H
	DB	01H
	DB	01H
	DB	01H
	DB	01H
	DB	01H
	DB	01H
	DB	01H
	DB	01H
	DB	01H
	DB	01H
	DB	01H
	DB	01H
	DB	01H
	DB	01H
	DB	01H
	DB	01H
	DB	01H
	DB	01H
	DB	01H
	DB	01H
	DB	01H
	DB	01H
	DB	01H
	DB	01H
	DB	01H
	DB	01H
	DB	01H
	DB	01H
	DB	01H
	DB	01H
	DB	01H
	DB	071H
	DB	075H
	DB	01bH
	DB	03dH
	DB	02bH
	DB	01fH
	DB	043H
	DB	011H
	DB	02H
	DB	02H
	DB	02H
	DB	02H
	DB	02H
	DB	02H
	DB	053H
	DB	0cH
	DB	06H
	DB	026H
	DB	096H
	DB	059H
	DB	095H
	DB	01H
	DB	042H
	DB	049H
	DB	079H
	DB	079H
	DB	026H
	DB	054H
	DB	036H
	DB	036H
	DB	036H
	DB	036H
	DB	036H
	DB	036H
	DB	036H
	DB	04aH
	DB	04eH
	DB	04eH
	DB	021H
	DB	034H
	DB	03cH
	DB	01H
	DB	015H
	DB	05H
	DB	03bH
	DB	03bH
	DB	05H
	DB	0fdH
	DB	093H
	DB	08H
	DB	01H
	DB	01H
	DB	0a5H
	DB	05H
	DB	010H
	DB	010H
	DB	010H
	DB	010H
	DB	05H
	DB	0aaH
	DB	01H
	DB	01H
	DB	01H
	DB	01H
	DB	01H
	DB	01H
	DB	01H
	DB	01H
	DB	01H
	DB	01H
	DB	01H
	DB	01H
	DB	01H
	DB	01H
	DB	01H
	DB	01H
	DB	01H
	DB	01H
	DB	01H
	DB	01H
	DB	01H
	DB	01H
	DB	01H
	DB	01H
	DB	01H
	DB	01H
	DB	01H
	DB	01H
	DB	01H
	DB	01H
	DB	01H
	DB	01H
	DB	01H
	DB	01H
	DB	01H
	DB	01H
	DB	01H
	DB	01H
	DB	01H
	DB	01H
	DB	01H
	DB	01H
	DB	01H
	DB	071H
	DB	074H
	DB	026H
	DB	03dH
	DB	02bH
	DB	031H
	DB	0bH
	DB	014H
	DB	019H
	DB	049H
	DB	02H
	DB	02H
	DB	02H
	DB	02H
	DB	053H
	DB	0cH
	DB	06H
	DB	02H
	DB	079H
	DB	029H
	DB	094H
	DB	01H
	DB	072H
	DB	053H
	DB	02H
	DB	09dH
	DB	07H
	DB	02H
	DB	026H
	DB	026H
	DB	026H
	DB	026H
	DB	026H
	DB	026H
	DB	026H
	DB	01fH
	DB	031H
	DB	01fH
	DB	02bH
	DB	034H
	DB	03cH
	DB	01H
	DB	015H
	DB	05H
	DB	010H
	DB	010H
	DB	05H
	DB	0fdH
	DB	06H
	DB	094H
	DB	01H
	DB	01H
	DB	0a5H
	DB	05H
	DB	010H
	DB	010H
	DB	010H
	DB	010H
	DB	05H
	DB	0aaH
	DB	01H
	DB	01H
	DB	01H
	DB	01H
	DB	01H
	DB	01H
	DB	01H
	DB	01H
	DB	01H
	DB	01H
	DB	01H
	DB	01H
	DB	01H
	DB	01H
	DB	01H
	DB	01H
	DB	01H
	DB	01H
	DB	01H
	DB	01H
	DB	01H
	DB	01H
	DB	01H
	DB	01H
	DB	01H
	DB	01H
	DB	01H
	DB	01H
	DB	01H
	DB	01H
	DB	01H
	DB	01H
	DB	01H
	DB	01H
	DB	01H
	DB	01H
	DB	01H
	DB	01H
	DB	01H
	DB	01H
	DB	01H
	DB	01H
	DB	01H
	DB	093H
	DB	043H
	DB	099H
	DB	03dH
	DB	02fH
	DB	01cH
	DB	0a6H
	DB	030H
	DB	0f3H
	DB	038H
	DB	02H
	DB	02H
	DB	02H
	DB	02H
	DB	053H
	DB	099H
	DB	094H
	DB	049H
	DB	053H
	DB	053H
	DB	02H
	DB	038H
	DB	053H
	DB	02H
	DB	049H
	DB	068H
	DB	01dH
	DB	01bH
	DB	02H
	DB	02H
	DB	02H
	DB	02H
	DB	02H
	DB	02H
	DB	02H
	DB	011H
	DB	043H
	DB	02H
	DB	02fH
	DB	05aH
	DB	03cH
	DB	042H
	DB	015H
	DB	05H
	DB	010H
	DB	010H
	DB	05H
	DB	0fdH
	DB	01H
	DB	071H
	DB	01H
	DB	01H
	DB	0a5H
	DB	05H
	DB	010H
	DB	010H
	DB	010H
	DB	010H
	DB	05H
	DB	0aaH
	DB	01H
	DB	01H
	DB	01H
	DB	01H
	DB	01H
	DB	01H
	DB	01H
	DB	01H
	DB	01H
	DB	01H
	DB	01H
	DB	01H
	DB	01H
	DB	01H
	DB	01H
	DB	01H
	DB	01H
	DB	01H
	DB	01H
	DB	01H
	DB	01H
	DB	01H
	DB	01H
	DB	01H
	DB	01H
	DB	01H
	DB	01H
	DB	01H
	DB	01H
	DB	01H
	DB	01H
	DB	01H
	DB	01H
	DB	01H
	DB	01H
	DB	01H
	DB	01H
	DB	01H
	DB	01H
	DB	01H
	DB	01H
	DB	01H
	DB	01H
	DB	01H
	DB	074H
	DB	0cH
	DB	055H
	DB	02fH
	DB	011H
	DB	094H
	DB	099H
	DB	07H
	DB	02H
	DB	02H
	DB	02H
	DB	02H
	DB	02H
	DB	02H
	DB	02H
	DB	074H
	DB	011H
	DB	0bH
	DB	02H
	DB	049H
	DB	02H
	DB	038H
	DB	011H
	DB	01dH
	DB	015H
	DB	068H
	DB	02H
	DB	02H
	DB	02H
	DB	02H
	DB	02H
	DB	02H
	DB	02H
	DB	02H
	DB	099H
	DB	043H
	DB	060H
	DB	02fH
	DB	064H
	DB	093H
	DB	093H
	DB	090H
	DB	05H
	DB	010H
	DB	010H
	DB	04dH
	DB	0fdH
	DB	01H
	DB	099H
	DB	01H
	DB	01H
	DB	0a5H
	DB	05H
	DB	010H
	DB	010H
	DB	010H
	DB	010H
	DB	05H
	DB	0aaH
	DB	01H
	DB	01H
	DB	01H
	DB	01H
	DB	01H
	DB	01H
	DB	01H
	DB	01H
	DB	01H
	DB	01H
	DB	01H
	DB	01H
	DB	01H
	DB	01H
	DB	01H
	DB	01H
	DB	01H
	DB	01H
	DB	01H
	DB	01H
	DB	01H
	DB	01H
	DB	01H
	DB	01H
	DB	01H
	DB	01H
	DB	01H
	DB	01H
	DB	01H
	DB	01H
	DB	01H
	DB	01H
	DB	01H
	DB	01H
	DB	01H
	DB	01H
	DB	01H
	DB	01H
	DB	01H
	DB	01H
	DB	01H
	DB	01H
	DB	01H
	DB	01H
	DB	043H
	DB	074H
	DB	0bH
	DB	02fH
	DB	059H
	DB	01cH
	DB	0cH
	DB	0cH
	DB	011H
	DB	02H
	DB	053H
	DB	02H
	DB	02H
	DB	02H
	DB	053H
	DB	049H
	DB	099H
	DB	07H
	DB	018H
	DB	07H
	DB	01bH
	DB	0a6H
	DB	0baH
	DB	024H
	DB	015H
	DB	07H
	DB	049H
	DB	02H
	DB	02H
	DB	02H
	DB	02H
	DB	02H
	DB	053H
	DB	02H
	DB	075H
	DB	031H
	DB	050H
	DB	02fH
	DB	01fH
	DB	042H
	DB	093H
	DB	090H
	DB	05H
	DB	010H
	DB	010H
	DB	04dH
	DB	0fdH
	DB	071H
	DB	064H
	DB	01H
	DB	01H
	DB	0a5H
	DB	05H
	DB	010H
	DB	010H
	DB	010H
	DB	010H
	DB	05H
	DB	0aaH
	DB	01H
	DB	01H
	DB	01H
	DB	01H
	DB	01H
	DB	01H
	DB	01H
	DB	01H
	DB	01H
	DB	01H
	DB	01H
	DB	01H
	DB	01H
	DB	01H
	DB	01H
	DB	01H
	DB	01H
	DB	01H
	DB	01H
	DB	01H
	DB	01H
	DB	01H
	DB	01H
	DB	01H
	DB	01H
	DB	01H
	DB	01H
	DB	01H
	DB	01H
	DB	01H
	DB	01H
	DB	01H
	DB	01H
	DB	01H
	DB	01H
	DB	01H
	DB	01H
	DB	01H
	DB	01H
	DB	01H
	DB	01H
	DB	01H
	DB	01H
	DB	01H
	DB	08H
	DB	043H
	DB	029H
	DB	07dH
	DB	056H
	DB	01cH
	DB	043H
	DB	0a6H
	DB	068H
	DB	01bH
	DB	02H
	DB	02H
	DB	02H
	DB	02H
	DB	02H
	DB	02H
	DB	049H
	DB	09bH
	DB	023H
	DB	014H
	DB	0f1H
	DB	024H
	DB	028H
	DB	015H
	DB	0a6H
	DB	038H
	DB	02H
	DB	02H
	DB	02H
	DB	02H
	DB	02H
	DB	02H
	DB	053H
	DB	038H
	DB	074H
	DB	026H
	DB	0b8H
	DB	045H
	DB	031H
	DB	06H
	DB	042H
	DB	014H
	DB	05H
	DB	010H
	DB	010H
	DB	04dH
	DB	0fdH
	DB	042H
	DB	03fH
	DB	01H
	DB	01H
	DB	07H
	DB	05H
	DB	041H
	DB	041H
	DB	041H
	DB	041H
	DB	05H
	DB	0aaH
	DB	01H
	DB	01H
	DB	01H
	DB	01H
	DB	01H
	DB	01H
	DB	01H
	DB	01H
	DB	01H
	DB	01H
	DB	01H
	DB	01H
	DB	01H
	DB	01H
	DB	01H
	DB	01H
	DB	01H
	DB	01H
	DB	01H
	DB	01H
	DB	01H
	DB	01H
	DB	01H
	DB	01H
	DB	01H
	DB	01H
	DB	01H
	DB	01H
	DB	01H
	DB	01H
	DB	01H
	DB	01H
	DB	01H
	DB	01H
	DB	01H
	DB	01H
	DB	01H
	DB	01H
	DB	01H
	DB	01H
	DB	01H
	DB	01H
	DB	01H
	DB	01H
	DB	06H
	DB	074H
	DB	01fH
	DB	03dH
	DB	02bH
	DB	01fH
	DB	06H
	DB	01aH
	DB	028H
	DB	01dH
	DB	099H
	DB	053H
	DB	02H
	DB	02H
	DB	02H
	DB	02H
	DB	02H
	DB	053H
	DB	09dH
	DB	0eH
	DB	019H
	DB	019H
	DB	01aH
	DB	079H
	DB	038H
	DB	02H
	DB	02H
	DB	02H
	DB	02H
	DB	02H
	DB	02H
	DB	02H
	DB	02H
	DB	099H
	DB	08H
	DB	0a8H
	DB	0b6H
	DB	034H
	DB	03cH
	DB	072H
	DB	01H
	DB	014H
	DB	05H
	DB	041H
	DB	041H
	DB	03bH
	DB	0fdH
	DB	01H
	DB	05eH
	DB	01H
	DB	01H
	DB	07H
	DB	05H
	DB	041H
	DB	041H
	DB	041H
	DB	041H
	DB	05H
	DB	0aaH
	DB	01H
	DB	01H
	DB	053H
	DB	068H
	DB	09H
	DB	06H
	DB	01H
	DB	01H
	DB	01H
	DB	01H
	DB	01H
	DB	01H
	DB	06H
	DB	09bH
	DB	0bH
	DB	0bH
	DB	0bH
	DB	02H
	DB	01H
	DB	01H
	DB	08H
	DB	018H
	DB	068H
	DB	02H
	DB	01H
	DB	01H
	DB	01H
	DB	01H
	DB	01H
	DB	01H
	DB	01H
	DB	01H
	DB	01H
	DB	0bH
	DB	01dH
	DB	06H
	DB	01H
	DB	01H
	DB	01H
	DB	079H
	DB	068H
	DB	01aH
	DB	075H
	DB	01H
	DB	01H
	DB	0cH
	DB	074H
	DB	0bH
	DB	02fH
	DB	05aH
	DB	03cH
	DB	023H
	DB	030H
	DB	0aaH
	DB	099H
	DB	049H
	DB	02H
	DB	02H
	DB	02H
	DB	02H
	DB	02H
	DB	02H
	DB	049H
	DB	049H
	DB	049H
	DB	038H
	DB	011H
	DB	049H
	DB	02H
	DB	02H
	DB	02H
	DB	02H
	DB	02H
	DB	02H
	DB	02H
	DB	053H
	DB	038H
	DB	074H
	DB	01fH
	DB	085H
	DB	022H
	DB	01fH
	DB	093H
	DB	08H
	DB	01H
	DB	014H
	DB	05H
	DB	041H
	DB	041H
	DB	03bH
	DB	0fdH
	DB	01H
	DB	0cH
	DB	01H
	DB	01H
	DB	07H
	DB	05H
	DB	041H
	DB	041H
	DB	041H
	DB	041H
	DB	05H
	DB	0aaH
	DB	01H
	DB	01aH
	DB	010H
	DB	05H
	DB	05H
	DB	030H
	DB	06H
	DB	01H
	DB	01H
	DB	01H
	DB	01H
	DB	01H
	DB	07H
	DB	03bH
	DB	05H
	DB	05H
	DB	05H
	DB	024H
	DB	01H
	DB	099H
	DB	0fdH
	DB	05H
	DB	05H
	DB	010H
	DB	0eH
	DB	01H
	DB	01H
	DB	01H
	DB	01H
	DB	01H
	DB	01H
	DB	01H
	DB	049H
	DB	037H
	DB	041H
	DB	075H
	DB	01H
	DB	01H
	DB	019H
	DB	04dH
	DB	05H
	DB	05H
	DB	016H
	DB	07H
	DB	01H
	DB	08H
	DB	043H
	DB	026H
	DB	04fH
	DB	02bH
	DB	01fH
	DB	0cH
	DB	011H
	DB	038H
	DB	079H
	DB	02H
	DB	049H
	DB	02H
	DB	02H
	DB	02H
	DB	02H
	DB	02H
	DB	02H
	DB	02H
	DB	02H
	DB	02H
	DB	02H
	DB	02H
	DB	02H
	DB	02H
	DB	02H
	DB	02H
	DB	02H
	DB	02H
	DB	053H
	DB	02H
	DB	077H
	DB	06H
	DB	081H
	DB	0bbH
	DB	09eH
	DB	01cH
	DB	094H
	DB	072H
	DB	01H
	DB	014H
	DB	05H
	DB	041H
	DB	041H
	DB	03bH
	DB	0fcH
	DB	042H
	DB	0cH
	DB	01H
	DB	01H
	DB	07H
	DB	05H
	DB	04cH
	DB	04cH
	DB	04cH
	DB	04cH
	DB	05H
	DB	0a6H
	DB	06H
	DB	02dH
	DB	04cH
	DB	0a6H
	DB	02cH
	DB	05H
	DB	01dH
	DB	01H
	DB	01H
	DB	01H
	DB	01H
	DB	01H
	DB	023H
	DB	05H
	DB	030H
	DB	0b1H
	DB	0ecH
	DB	068H
	DB	01H
	DB	0ecH
	DB	05H
	DB	019H
	DB	09H
	DB	041H
	DB	037H
	DB	074H
	DB	01H
	DB	01H
	DB	01H
	DB	01H
	DB	01H
	DB	018H
	DB	02dH
	DB	05H
	DB	032H
	DB	0cH
	DB	01H
	DB	0bH
	DB	05H
	DB	037H
	DB	07H
	DB	023H
	DB	05H
	DB	028H
	DB	042H
	DB	042H
	DB	0cH
	DB	043H
	DB	0bH
	DB	02fH
	DB	034H
	DB	01cH
	DB	074H
	DB	0cH
	DB	023H
	DB	030H
	DB	0aaH
	DB	038H
	DB	02H
	DB	02H
	DB	02H
	DB	02H
	DB	02H
	DB	02H
	DB	02H
	DB	02H
	DB	02H
	DB	02H
	DB	02H
	DB	02H
	DB	02H
	DB	02H
	DB	02H
	DB	053H
	DB	02H
	DB	011H
	DB	05eH
	DB	02aH
	DB	0c0H
	DB	022H
	DB	01fH
	DB	093H
	DB	043H
	DB	093H
	DB	01H
	DB	014H
	DB	05H
	DB	04cH
	DB	04cH
	DB	010H
	DB	0fcH
	DB	06H
	DB	072H
	DB	01H
	DB	01H
	DB	07H
	DB	05H
	DB	04cH
	DB	04cH
	DB	04cH
	DB	04cH
	DB	05H
	DB	07H
	DB	0bH
	DB	05H
	DB	02cH
	DB	01H
	DB	07H
	DB	05H
	DB	030H
	DB	01H
	DB	01H
	DB	01H
	DB	01H
	DB	01H
	DB	015H
	DB	04dH
	DB	0a6H
	DB	011H
	DB	093H
	DB	01H
	DB	01H
	DB	01bH
	DB	018H
	DB	01H
	DB	094H
	DB	04H
	DB	03H
	DB	075H
	DB	01H
	DB	01H
	DB	01H
	DB	01H
	DB	09dH
	DB	05H
	DB	0fdH
	DB	037H
	DB	03H
	DB	0cH
	DB	01H
	DB	02H
	DB	0f1H
	DB	018H
	DB	01H
	DB	093H
	DB	016H
	DB	04H
	DB	043H
	DB	01H
	DB	08H
	DB	08H
	DB	01fH
	DB	03dH
	DB	02fH
	DB	026H
	DB	094H
	DB	099H
	DB	02cH
	DB	0f6H
	DB	0a6H
	DB	038H
	DB	02H
	DB	02H
	DB	02H
	DB	02H
	DB	02H
	DB	02H
	DB	02H
	DB	02H
	DB	02H
	DB	02H
	DB	02H
	DB	02H
	DB	02H
	DB	02H
	DB	053H
	DB	02H
	DB	011H
	DB	08H
	DB	075H
	DB	01eH
	DB	0b7H
	DB	059H
	DB	01cH
	DB	072H
	DB	08H
	DB	01H
	DB	01H
	DB	014H
	DB	05H
	DB	04cH
	DB	04cH
	DB	010H
	DB	0fcH
	DB	01H
	DB	01H
	DB	01H
	DB	01H
	DB	07H
	DB	05H
	DB	03H
	DB	03H
	DB	03H
	DB	03H
	DB	05H
	DB	07H
	DB	0aaH
	DB	05H
	DB	090H
	DB	01H
	DB	01bH
	DB	04dH
	DB	028H
	DB	093H
	DB	01H
	DB	01H
	DB	01H
	DB	093H
	DB	028H
	DB	05H
	DB	010H
	DB	05H
	DB	0fbH
	DB	079H
	DB	01H
	DB	01H
	DB	01H
	DB	0bH
	DB	0fbH
	DB	05H
	DB	023H
	DB	01H
	DB	01H
	DB	01H
	DB	01H
	DB	01H
	DB	01bH
	DB	019H
	DB	074H
	DB	028H
	DB	041H
	DB	0cH
	DB	01H
	DB	01H
	DB	01H
	DB	01H
	DB	01H
	DB	0fH
	DB	05H
	DB	030H
	DB	01H
	DB	01H
	DB	042H
	DB	074H
	DB	094H
	DB	029H
	DB	04fH
	DB	02bH
	DB	01fH
	DB	08H
	DB	01dH
	DB	01dH
	DB	079H
	DB	02H
	DB	02H
	DB	02H
	DB	02H
	DB	02H
	DB	02H
	DB	049H
	DB	02H
	DB	02H
	DB	02H
	DB	02H
	DB	02H
	DB	02H
	DB	02H
	DB	053H
	DB	02H
	DB	011H
	DB	08H
	DB	0cH
	DB	0ebH
	DB	088H
	DB	056H
	DB	031H
	DB	06H
	DB	043H
	DB	042H
	DB	01H
	DB	01H
	DB	014H
	DB	05H
	DB	03H
	DB	03H
	DB	010H
	DB	0fcH
	DB	01H
	DB	01H
	DB	01H
	DB	01H
	DB	07H
	DB	04dH
	DB	03H
	DB	03H
	DB	03H
	DB	03H
	DB	04dH
	DB	07H
	DB	01aH
	DB	05H
	DB	014H
	DB	01H
	DB	079H
	DB	03bH
	DB	02eH
	DB	06H
	DB	01H
	DB	01H
	DB	01H
	DB	072H
	DB	028H
	DB	0fdH
	DB	023H
	DB	014H
	DB	05H
	DB	0fbH
	DB	072H
	DB	01H
	DB	01H
	DB	01dH
	DB	037H
	DB	04dH
	DB	0b1H
	DB	042H
	DB	01H
	DB	01H
	DB	01H
	DB	01H
	DB	01H
	DB	01H
	DB	071H
	DB	0faH
	DB	041H
	DB	0cH
	DB	01H
	DB	01H
	DB	01H
	DB	01H
	DB	09H
	DB	010H
	DB	010H
	DB	01bH
	DB	01H
	DB	01H
	DB	01H
	DB	06H
	DB	043H
	DB	06H
	DB	029H
	DB	09fH
	DB	02bH
	DB	026H
	DB	06H
	DB	048H
	DB	075H
	DB	099H
	DB	023H
	DB	09dH
	DB	049H
	DB	053H
	DB	049H
	DB	0bH
	DB	079H
	DB	02H
	DB	02H
	DB	02H
	DB	053H
	DB	053H
	DB	02H
	DB	049H
	DB	099H
	DB	072H
	DB	011H
	DB	01eH
	DB	089H
	DB	02bH
	DB	01fH
	DB	071H
	DB	043H
	DB	06H
	DB	01H
	DB	01H
	DB	01H
	DB	014H
	DB	04dH
	DB	03H
	DB	03H
	DB	010H
	DB	02eH
	DB	01H
	DB	05eH
	DB	01H
	DB	01H
	DB	07H
	DB	04dH
	DB	03H
	DB	03H
	DB	03H
	DB	03H
	DB	05H
	DB	07H
	DB	018H
	DB	05H
	DB	014H
	DB	01H
	DB	01bH
	DB	04dH
	DB	028H
	DB	093H
	DB	01H
	DB	01H
	DB	01H
	DB	01H
	DB	093H
	DB	071H
	DB	01H
	DB	01H
	DB	024H
	DB	05H
	DB	09bH
	DB	01H
	DB	01H
	DB	01H
	DB	01H
	DB	02cH
	DB	05H
	DB	018H
	DB	01H
	DB	01H
	DB	01H
	DB	01H
	DB	01H
	DB	01H
	DB	06H
	DB	0faH
	DB	041H
	DB	0cH
	DB	01H
	DB	01H
	DB	01H
	DB	0aaH
	DB	03bH
	DB	03bH
	DB	018H
	DB	01H
	DB	01H
	DB	01H
	DB	01H
	DB	01H
	DB	072H
	DB	08H
	DB	094H
	DB	02aH
	DB	09fH
	DB	02bH
	DB	02aH
	DB	01fH
	DB	08H
	DB	08H
	DB	014H
	DB	07H
	DB	038H
	DB	011H
	DB	01aH
	DB	0f1H
	DB	090H
	DB	02H
	DB	02H
	DB	02H
	DB	02H
	DB	049H
	DB	099H
	DB	08H
	DB	06H
	DB	039H
	DB	0f3H
	DB	08aH
	DB	02bH
	DB	01fH
	DB	06H
	DB	08H
	DB	072H
	DB	01H
	DB	01H
	DB	01H
	DB	01H
	DB	014H
	DB	04dH
	DB	03H
	DB	03H
	DB	010H
	DB	02eH
	DB	033H
	DB	03fH
	DB	01H
	DB	01H
	DB	07H
	DB	04dH
	DB	032H
	DB	032H
	DB	032H
	DB	032H
	DB	04dH
	DB	07H
	DB	09dH
	DB	05H
	DB	0f1H
	DB	01H
	DB	07H
	DB	05H
	DB	0f6H
	DB	01H
	DB	01H
	DB	01H
	DB	01H
	DB	08H
	DB	09H
	DB	0bH
	DB	01H
	DB	01H
	DB	0f3H
	DB	05H
	DB	09bH
	DB	0a6H
	DB	01dH
	DB	042H
	DB	01H
	DB	019H
	DB	05H
	DB	0b1H
	DB	01H
	DB	01H
	DB	01H
	DB	01H
	DB	01H
	DB	01H
	DB	06H
	DB	0faH
	DB	041H
	DB	0cH
	DB	01H
	DB	01H
	DB	07H
	DB	010H
	DB	016H
	DB	0bH
	DB	01H
	DB	01H
	DB	01H
	DB	01H
	DB	01H
	DB	01H
	DB	01H
	DB	08H
	DB	08H
	DB	094H
	DB	029H
	DB	04fH
	DB	02fH
	DB	0afH
	DB	07aH
	DB	031H
	DB	053H
	DB	0cH
	DB	0cH
	DB	08H
	DB	0baH
	DB	019H
	DB	0f1H
	DB	01bH
	DB	099H
	DB	011H
	DB	0cH
	DB	072H
	DB	06H
	DB	026H
	DB	052H
	DB	092H
	DB	0cdH
	DB	056H
	DB	01fH
	DB	06H
	DB	08H
	DB	08H
	DB	01H
	DB	01H
	DB	01H
	DB	01H
	DB	01H
	DB	014H
	DB	04dH
	DB	032H
	DB	032H
	DB	041H
	DB	02eH
	DB	06H
	DB	08H
	DB	01H
	DB	01H
	DB	07H
	DB	03bH
	DB	032H
	DB	032H
	DB	032H
	DB	032H
	DB	04dH
	DB	0a6H
	DB	08H
	DB	032H
	DB	032H
	DB	09bH
	DB	015H
	DB	05H
	DB	023H
	DB	01H
	DB	01aH
	DB	0f1H
	DB	02H
	DB	011H
	DB	041H
	DB	032H
	DB	01bH
	DB	0a6H
	DB	010H
	DB	0fdH
	DB	06H
	DB	0f6H
	DB	05H
	DB	019H
	DB	079H
	DB	02eH
	DB	05H
	DB	0a5H
	DB	06H
	DB	0ecH
	DB	019H
	DB	042H
	DB	01H
	DB	01H
	DB	06H
	DB	0faH
	DB	041H
	DB	0cH
	DB	01H
	DB	0cH
	DB	0fdH
	DB	05H
	DB	024H
	DB	023H
	DB	0b1H
	DB	023H
	DB	06H
	DB	01H
	DB	01H
	DB	01H
	DB	01H
	DB	01H
	DB	08H
	DB	08H
	DB	06H
	DB	026H
	DB	034H
	DB	02fH
	DB	06aH
	DB	05cH
	DB	07bH
	DB	029H
	DB	0cH
	DB	06H
	DB	049H
	DB	0b1H
	DB	01aH
	DB	06H
	DB	094H
	DB	072H
	DB	075H
	DB	07bH
	DB	052H
	DB	092H
	DB	0d0H
	DB	069H
	DB	076H
	DB	031H
	DB	071H
	DB	08H
	DB	08H
	DB	01H
	DB	01H
	DB	01H
	DB	01H
	DB	01H
	DB	01H
	DB	014H
	DB	03bH
	DB	032H
	DB	032H
	DB	041H
	DB	0fbH
	DB	01H
	DB	01H
	DB	01H
	DB	01H
	DB	07H
	DB	03bH
	DB	032H
	DB	032H
	DB	032H
	DB	032H
	DB	04dH
	DB	09H
	DB	01H
	DB	023H
	DB	05H
	DB	05H
	DB	05H
	DB	024H
	DB	072H
	DB	01H
	DB	0f1H
	DB	05H
	DB	01aH
	DB	01H
	DB	019H
	DB	05H
	DB	04dH
	DB	05H
	DB	03H
	DB	0a6H
	DB	01H
	DB	079H
	DB	02dH
	DB	05H
	DB	04dH
	DB	05H
	DB	090H
	DB	01H
	DB	049H
	DB	05H
	DB	0fdH
	DB	06H
	DB	01H
	DB	01H
	DB	06H
	DB	02eH
	DB	041H
	DB	0cH
	DB	01H
	DB	01dH
	DB	05H
	DB	05H
	DB	05H
	DB	05H
	DB	05H
	DB	04H
	DB	074H
	DB	01H
	DB	01H
	DB	01H
	DB	01H
	DB	01H
	DB	01H
	DB	072H
	DB	043H
	DB	06H
	DB	031H
	DB	079H
	DB	056H
	DB	022H
	DB	06cH
	DB	086H
	DB	019H
	DB	023H
	DB	0eH
	DB	025H
	DB	025H
	DB	082H
	DB	051H
	DB	014H
	DB	0efH
	DB	0f8H
	DB	08aH
	DB	0b6H
	DB	054H
	DB	01fH
	DB	01cH
	DB	06H
	DB	074H
	DB	072H
	DB	01H
	DB	01H
	DB	01H
	DB	01H
	DB	01H
	DB	01H
	DB	01H
	DB	014H
	DB	03bH
	DB	032H
	DB	032H
	DB	041H
	DB	02eH
	DB	01H
	DB	071H
	DB	01H
	DB	01H
	DB	07H
	DB	03bH
	DB	046H
	DB	046H
	DB	046H
	DB	046H
	DB	03bH
	DB	09H
	DB	01H
	DB	01H
	DB	0bH
	DB	019H
	DB	01aH
	DB	072H
	DB	01H
	DB	01H
	DB	049H
	DB	09H
	DB	043H
	DB	01H
	DB	01H
	DB	09bH
	DB	019H
	DB	023H
	DB	049H
	DB	01H
	DB	01H
	DB	01H
	DB	074H
	DB	01dH
	DB	019H
	DB	09dH
	DB	01H
	DB	01H
	DB	06H
	DB	07H
	DB	09bH
	DB	01H
	DB	01H
	DB	01H
	DB	01H
	DB	09bH
	DB	07H
	DB	093H
	DB	01H
	DB	038H
	DB	09H
	DB	0a6H
	DB	0a6H
	DB	0a6H
	DB	0a6H
	DB	0bH
	DB	093H
	DB	01H
	DB	01H
	DB	01H
	DB	01H
	DB	01H
	DB	01H
	DB	01H
	DB	06H
	DB	074H
	DB	072H
	DB	06H
	DB	031H
	DB	02H
	DB	034H
	DB	09fH
	DB	069H
	DB	06cH
	DB	0beH
	DB	0bfH
	DB	0c1H
	DB	089H
	DB	088H
	DB	0bdH
	DB	0b6H
	DB	09fH
	DB	07cH
	DB	011H
	DB	031H
	DB	06H
	DB	08H
	DB	074H
	DB	06H
	DB	01H
	DB	01H
	DB	01H
	DB	01H
	DB	01H
	DB	01H
	DB	01H
	DB	01H
	DB	014H
	DB	03bH
	DB	046H
	DB	046H
	DB	04cH
	DB	0fbH
	DB	01H
	DB	047H
	DB	01H
	DB	01H
	DB	07H
	DB	010H
	DB	046H
	DB	046H
	DB	046H
	DB	046H
	DB	03bH
	DB	09H
	DB	01H
	DB	01H
	DB	01H
	DB	01H
	DB	01H
	DB	01H
	DB	01H
	DB	01H
	DB	01H
	DB	01H
	DB	01H
	DB	01H
	DB	01H
	DB	01H
	DB	01H
	DB	01H
	DB	01H
	DB	01H
	DB	01H
	DB	01H
	DB	01H
	DB	01H
	DB	01H
	DB	01H
	DB	01H
	DB	01H
	DB	01H
	DB	01H
	DB	01H
	DB	01H
	DB	01H
	DB	01H
	DB	01H
	DB	01H
	DB	01H
	DB	01H
	DB	01H
	DB	01H
	DB	01H
	DB	01H
	DB	01H
	DB	01H
	DB	01H
	DB	01H
	DB	01H
	DB	01H
	DB	01H
	DB	01H
	DB	01H
	DB	01H
	DB	01H
	DB	01H
	DB	01H
	DB	01H
	DB	072H
	DB	043H
	DB	072H
	DB	06H
	DB	01cH
	DB	01fH
	DB	011H
	DB	078H
	DB	034H
	DB	034H
	DB	034H
	DB	034H
	DB	076H
	DB	078H
	DB	075H
	DB	031H
	DB	01cH
	DB	06H
	DB	08H
	DB	043H
	DB	072H
	DB	01H
	DB	01H
	DB	01H
	DB	01H
	DB	01H
	DB	01H
	DB	01H
	DB	01H
	DB	01H
	DB	01H
	DB	014H
	DB	010H
	DB	046H
	DB	046H
	DB	04cH
	DB	0fbH
	DB	01H
	DB	093H
	DB	01H
	DB	01H
	DB	07H
	DB	010H
	DB	046H
	DB	046H
	DB	046H
	DB	046H
	DB	03bH
	DB	09H
	DB	01H
	DB	01H
	DB	01H
	DB	01H
	DB	01H
	DB	01H
	DB	01H
	DB	01H
	DB	01H
	DB	01H
	DB	01H
	DB	01H
	DB	01H
	DB	01H
	DB	01H
	DB	01H
	DB	01H
	DB	01H
	DB	01H
	DB	01H
	DB	01H
	DB	01H
	DB	01H
	DB	01H
	DB	01H
	DB	01H
	DB	01H
	DB	01H
	DB	01H
	DB	01H
	DB	01H
	DB	01H
	DB	01H
	DB	01H
	DB	01H
	DB	01H
	DB	01H
	DB	01H
	DB	01H
	DB	01H
	DB	01H
	DB	01H
	DB	01H
	DB	01H
	DB	01H
	DB	01H
	DB	01H
	DB	01H
	DB	01H
	DB	01H
	DB	01H
	DB	01H
	DB	01H
	DB	01H
	DB	01H
	DB	042H
	DB	072H
	DB	043H
	DB	08H
	DB	072H
	DB	094H
	DB	094H
	DB	01cH
	DB	01cH
	DB	01cH
	DB	01cH
	DB	01cH
	DB	094H
	DB	094H
	DB	072H
	DB	08H
	DB	043H
	DB	072H
	DB	042H
	DB	01H
	DB	01H
	DB	01H
	DB	01H
	DB	01H
	DB	01H
	DB	01H
	DB	01H
	DB	01H
	DB	01H
	DB	01H
	DB	014H
	DB	010H
	DB	046H
	DB	046H
	DB	03H
	DB	0faH
	DB	01H
	DB	042H
	DB	01H
	DB	01H
	DB	07H
	DB	010H
	DB	016H
	DB	016H
	DB	016H
	DB	016H
	DB	010H
	DB	05cH
	DB	063H
	DB	063H
	DB	042H
	DB	01H
	DB	01H
	DB	01H
	DB	01H
	DB	01H
	DB	01H
	DB	01H
	DB	01H
	DB	01H
	DB	01H
	DB	01H
	DB	01H
	DB	01H
	DB	01H
	DB	01H
	DB	01H
	DB	01H
	DB	01H
	DB	01H
	DB	01H
	DB	01H
	DB	01H
	DB	01H
	DB	01H
	DB	01H
	DB	01H
	DB	01H
	DB	01H
	DB	01H
	DB	01H
	DB	01H
	DB	01H
	DB	01H
	DB	01H
	DB	01H
	DB	01H
	DB	01H
	DB	01H
	DB	01H
	DB	01H
	DB	01H
	DB	01H
	DB	01H
	DB	01H
	DB	01H
	DB	01H
	DB	01H
	DB	01H
	DB	01H
	DB	01H
	DB	01H
	DB	01H
	DB	01H
	DB	01H
	DB	01H
	DB	01H
	DB	093H
	DB	06H
	DB	06H
	DB	06H
	DB	06H
	DB	06H
	DB	06H
	DB	06H
	DB	06H
	DB	042H
	DB	042H
	DB	01H
	DB	01H
	DB	01H
	DB	01H
	DB	01H
	DB	01H
	DB	01H
	DB	01H
	DB	01H
	DB	01H
	DB	01H
	DB	01H
	DB	01H
	DB	01H
	DB	01H
	DB	014H
	DB	010H
	DB	016H
	DB	016H
	DB	03H
	DB	0faH
	DB	01H
	DB	071H
	DB	01H
	DB	01H
	DB	07H
	DB	041H
	DB	016H
	DB	016H
	DB	016H
	DB	016H
	DB	070H
	DB	0cfH
	DB	03eH
	DB	03eH
	DB	057H
	DB	097H
	DB	01H
	DB	01H
	DB	01H
	DB	01H
	DB	01H
	DB	01H
	DB	01H
	DB	01H
	DB	01H
	DB	01H
	DB	01H
	DB	01H
	DB	01H
	DB	01H
	DB	01H
	DB	01H
	DB	01H
	DB	01H
	DB	018H
	DB	0eH
	DB	025H
	DB	025H
	DB	025H
	DB	025H
	DB	025H
	DB	025H
	DB	025H
	DB	025H
	DB	025H
	DB	025H
	DB	025H
	DB	025H
	DB	025H
	DB	023H
	DB	012H
	DB	025H
	DB	025H
	DB	025H
	DB	025H
	DB	025H
	DB	025H
	DB	025H
	DB	025H
	DB	025H
	DB	025H
	DB	025H
	DB	025H
	DB	025H
	DB	0eH
	DB	019H
	DB	01aH
	DB	01aH
	DB	01aH
	DB	01aH
	DB	01aH
	DB	01aH
	DB	01aH
	DB	018H
	DB	01aH
	DB	0eH
	DB	0fH
	DB	0fH
	DB	01aH
	DB	01aH
	DB	019H
	DB	01dH
	DB	01aH
	DB	01aH
	DB	01aH
	DB	01aH
	DB	01aH
	DB	01aH
	DB	01aH
	DB	01aH
	DB	01aH
	DB	01aH
	DB	01aH
	DB	01aH
	DB	01aH
	DB	023H
	DB	075H
	DB	0b1H
	DB	041H
	DB	016H
	DB	016H
	DB	03H
	DB	028H
	DB	01H
	DB	071H
	DB	01H
	DB	01H
	DB	07H
	DB	041H
	DB	016H
	DB	016H
	DB	016H
	DB	016H
	DB	070H
	DB	061H
	DB	0aH
	DB	0aH
	DB	0aH
	DB	03aH
	DB	042H
	DB	01H
	DB	01H
	DB	01H
	DB	01H
	DB	01H
	DB	01H
	DB	01H
	DB	01H
	DB	01H
	DB	01H
	DB	01H
	DB	01H
	DB	01H
	DB	01H
	DB	01H
	DB	01H
	DB	072H
	DB	0ebH
	DB	0a1H
	DB	06bH
	DB	022H
	DB	022H
	DB	022H
	DB	022H
	DB	022H
	DB	022H
	DB	022H
	DB	022H
	DB	022H
	DB	022H
	DB	022H
	DB	022H
	DB	0f4H
	DB	086H
	DB	06bH
	DB	022H
	DB	022H
	DB	022H
	DB	022H
	DB	022H
	DB	022H
	DB	022H
	DB	022H
	DB	022H
	DB	022H
	DB	022H
	DB	06bH
	DB	0b0H
	DB	091H
	DB	075H
	DB	0cH
	DB	074H
	DB	074H
	DB	0cH
	DB	0cH
	DB	0cH
	DB	0aaH
	DB	01bH
	DB	0cH
	DB	0aaH
	DB	0aaH
	DB	075H
	DB	0cH
	DB	024H
	DB	0aaH
	DB	08H
	DB	075H
	DB	075H
	DB	075H
	DB	075H
	DB	075H
	DB	075H
	DB	075H
	DB	075H
	DB	075H
	DB	075H
	DB	075H
	DB	08H
	DB	0eH
	DB	018H
	DB	019H
	DB	041H
	DB	016H
	DB	016H
	DB	032H
	DB	028H
	DB	01H
	DB	042H
	DB	01H
	DB	01H
	DB	07H
	DB	041H
	DB	016H
	DB	016H
	DB	016H
	DB	016H
	DB	070H
	DB	061H
	DB	0c3H
	DB	0d3H
	DB	06eH
	DB	0c7H
	DB	065H
	DB	01H
	DB	01H
	DB	01H
	DB	01H
	DB	01H
	DB	01H
	DB	01H
	DB	01H
	DB	01H
	DB	01H
	DB	01H
	DB	01H
	DB	01H
	DB	01H
	DB	01H
	DB	01H
	DB	072H
	DB	051H
	DB	022H
	DB	0aH
	DB	0aH
	DB	0aH
	DB	0aH
	DB	0aH
	DB	0aH
	DB	0aH
	DB	0aH
	DB	0aH
	DB	0aH
	DB	0aH
	DB	0aH
	DB	03eH
	DB	05dH
	DB	06dH
	DB	0aH
	DB	0aH
	DB	0aH
	DB	0aH
	DB	0aH
	DB	0aH
	DB	0aH
	DB	0aH
	DB	0aH
	DB	0aH
	DB	0aH
	DB	0aH
	DB	0aH
	DB	06aH
	DB	015H
	DB	01H
	DB	01H
	DB	02H
	DB	0a5H
	DB	01H
	DB	01H
	DB	0aaH
	DB	0f6H
	DB	090H
	DB	07H
	DB	0fbH
	DB	023H
	DB	042H
	DB	01H
	DB	0f1H
	DB	01bH
	DB	01H
	DB	01H
	DB	01H
	DB	01H
	DB	01H
	DB	01H
	DB	01H
	DB	01H
	DB	01H
	DB	01H
	DB	01H
	DB	01H
	DB	01H
	DB	07H
	DB	09H
	DB	019H
	DB	041H
	DB	016H
	DB	016H
	DB	032H
	DB	028H
	DB	01H
	DB	01H
	DB	01H
	DB	01H
	DB	09dH
	DB	041H
	DB	037H
	DB	037H
	DB	037H
	DB	037H
	DB	058H
	DB	0d1H
	DB	0d5H
	DB	0f9H
	DB	05H
	DB	06eH
	DB	04eH
	DB	01H
	DB	01H
	DB	01H
	DB	01H
	DB	01H
	DB	01H
	DB	01H
	DB	01H
	DB	01H
	DB	01H
	DB	01H
	DB	01H
	DB	01H
	DB	01H
	DB	01H
	DB	01H
	DB	072H
	DB	051H
	DB	022H
	DB	0aH
	DB	0aH
	DB	0aH
	DB	0aH
	DB	0aH
	DB	0aH
	DB	0aH
	DB	0aH
	DB	0aH
	DB	0aH
	DB	0aH
	DB	0aH
	DB	03eH
	DB	05dH
	DB	06dH
	DB	0aH
	DB	0aH
	DB	0aH
	DB	0aH
	DB	0aH
	DB	0aH
	DB	0aH
	DB	0aH
	DB	0aH
	DB	0aH
	DB	0aH
	DB	0aH
	DB	0aH
	DB	06aH
	DB	062H
	DB	01H
	DB	074H
	DB	0f6H
	DB	04H
	DB	07H
	DB	01H
	DB	090H
	DB	01aH
	DB	0ecH
	DB	023H
	DB	02cH
	DB	0b1H
	DB	094H
	DB	01H
	DB	0f1H
	DB	09bH
	DB	01H
	DB	01H
	DB	01H
	DB	01H
	DB	01H
	DB	01H
	DB	01H
	DB	01H
	DB	01H
	DB	01H
	DB	01H
	DB	01H
	DB	01H
	DB	0a6H
	DB	09H
	DB	019H
	DB	041H
	DB	037H
	DB	037H
	DB	032H
	DB	028H
	DB	01H
	DB	071H
	DB	01H
	DB	01H
	DB	09dH
	DB	04cH
	DB	037H
	DB	037H
	DB	037H
	DB	037H
	DB	058H
	DB	061H
	DB	0c4H
	DB	06eH
	DB	0d4H
	DB	0d2H
	DB	065H
	DB	01H
	DB	01H
	DB	01H
	DB	01H
	DB	01H
	DB	01H
	DB	01H
	DB	01H
	DB	01H
	DB	01H
	DB	01H
	DB	01H
	DB	01H
	DB	01H
	DB	01H
	DB	01H
	DB	072H
	DB	051H
	DB	022H
	DB	0aH
	DB	0aH
	DB	0aH
	DB	0aH
	DB	0aH
	DB	0aH
	DB	0aH
	DB	0aH
	DB	0aH
	DB	0aH
	DB	0aH
	DB	0aH
	DB	03eH
	DB	05dH
	DB	06dH
	DB	0aH
	DB	0aH
	DB	0aH
	DB	0aH
	DB	0aH
	DB	0aH
	DB	0aH
	DB	0aH
	DB	0aH
	DB	0aH
	DB	0aH
	DB	0aH
	DB	0aH
	DB	06aH
	DB	015H
	DB	01H
	DB	042H
	DB	019H
	DB	015H
	DB	075H
	DB	099H
	DB	0b1H
	DB	090H
	DB	02cH
	DB	018H
	DB	0aaH
	DB	028H
	DB	079H
	DB	01H
	DB	0f1H
	DB	09bH
	DB	01H
	DB	01H
	DB	01H
	DB	01H
	DB	01H
	DB	01H
	DB	01H
	DB	01H
	DB	01H
	DB	01H
	DB	01H
	DB	01H
	DB	01H
	DB	0a5H
	DB	09H
	DB	019H
	DB	04cH
	DB	037H
	DB	037H
	DB	032H
	DB	028H
	DB	01H
	DB	071H
	DB	01H
	DB	01H
	DB	07H
	DB	04cH
	DB	037H
	DB	037H
	DB	037H
	DB	037H
	DB	00H
	DB	061H
	DB	0aH
	DB	0aH
	DB	0aH
	DB	036H
	DB	042H
	DB	01H
	DB	01H
	DB	01H
	DB	01H
	DB	01H
	DB	01H
	DB	01H
	DB	01H
	DB	01H
	DB	01H
	DB	01H
	DB	01H
	DB	01H
	DB	01H
	DB	01H
	DB	01H
	DB	08H
	DB	052H
	DB	02bH
	DB	021H
	DB	021H
	DB	021H
	DB	021H
	DB	021H
	DB	021H
	DB	021H
	DB	021H
	DB	021H
	DB	021H
	DB	021H
	DB	021H
	DB	03aH
	DB	05dH
	DB	0bcH
	DB	03aH
	DB	021H
	DB	021H
	DB	021H
	DB	021H
	DB	021H
	DB	021H
	DB	021H
	DB	021H
	DB	021H
	DB	021H
	DB	021H
	DB	021H
	DB	084H
	DB	062H
	DB	01H
	DB	01H
	DB	071H
	DB	06H
	DB	071H
	DB	01aH
	DB	038H
	DB	090H
	DB	018H
	DB	099H
	DB	015H
	DB	0eH
	DB	01H
	DB	01H
	DB	0f3H
	DB	09bH
	DB	01H
	DB	01H
	DB	01H
	DB	01H
	DB	01H
	DB	01H
	DB	01H
	DB	01H
	DB	01H
	DB	01H
	DB	01H
	DB	01H
	DB	01H
	DB	0a5H
	DB	0aaH
	DB	019H
	DB	04cH
	DB	037H
	DB	037H
	DB	046H
	DB	028H
	DB	042H
	DB	08H
	DB	01H
	DB	01H
	DB	0bH
	DB	03H
	DB	037H
	DB	037H
	DB	037H
	DB	037H
	DB	058H
	DB	0ceH
	DB	03eH
	DB	03eH
	DB	04aH
	DB	097H
	DB	01H
	DB	01H
	DB	01H
	DB	01H
	DB	01H
	DB	01H
	DB	01H
	DB	01H
	DB	01H
	DB	01H
	DB	01H
	DB	01H
	DB	01H
	DB	01H
	DB	01H
	DB	01H
	DB	01H
	DB	042H
	DB	023H
	DB	068H
	DB	027H
	DB	027H
	DB	027H
	DB	027H
	DB	027H
	DB	027H
	DB	027H
	DB	027H
	DB	027H
	DB	027H
	DB	027H
	DB	027H
	DB	027H
	DB	0ecH
	DB	019H
	DB	027H
	DB	027H
	DB	027H
	DB	027H
	DB	027H
	DB	027H
	DB	027H
	DB	027H
	DB	027H
	DB	027H
	DB	027H
	DB	027H
	DB	027H
	DB	023H
	DB	015H
	DB	018H
	DB	018H
	DB	018H
	DB	0aaH
	DB	018H
	DB	0aaH
	DB	0aaH
	DB	09H
	DB	09H
	DB	0aaH
	DB	09H
	DB	09H
	DB	018H
	DB	018H
	DB	015H
	DB	023H
	DB	018H
	DB	018H
	DB	018H
	DB	018H
	DB	018H
	DB	018H
	DB	018H
	DB	018H
	DB	018H
	DB	018H
	DB	018H
	DB	018H
	DB	0aaH
	DB	019H
	DB	079H
	DB	019H
	DB	04cH
	DB	037H
	DB	037H
	DB	046H
	DB	028H
	DB	033H
	DB	03fH
	DB	01H
	DB	01H
	DB	02H
	DB	04H
	DB	016H
	DB	02dH
	DB	02dH
	DB	02dH
	DB	0feH
	DB	0f0H
	DB	0c2H
	DB	0c0H
	DB	0b1H
	DB	0b1H
	DB	0baH
	DB	0baH
	DB	0baH
	DB	0baH
	DB	0baH
	DB	0baH
	DB	0baH
	DB	0baH
	DB	0baH
	DB	0baH
	DB	0baH
	DB	0baH
	DB	0baH
	DB	0baH
	DB	0baH
	DB	0baH
	DB	0baH
	DB	0baH
	DB	014H
	DB	0ecH
	DB	01eH
	DB	01eH
	DB	01eH
	DB	01eH
	DB	01eH
	DB	01eH
	DB	01eH
	DB	01eH
	DB	01eH
	DB	01eH
	DB	01eH
	DB	01eH
	DB	01eH
	DB	014H
	DB	090H
	DB	01eH
	DB	01eH
	DB	01eH
	DB	01eH
	DB	01eH
	DB	01eH
	DB	01eH
	DB	01eH
	DB	01eH
	DB	01eH
	DB	01eH
	DB	01eH
	DB	01eH
	DB	090H
	DB	014H
	DB	0ecH
	DB	0ecH
	DB	0ecH
	DB	0ecH
	DB	0ecH
	DB	0ecH
	DB	0ecH
	DB	090H
	DB	0ecH
	DB	0ecH
	DB	090H
	DB	0ecH
	DB	0ecH
	DB	0ecH
	DB	014H
	DB	090H
	DB	0ecH
	DB	0ecH
	DB	0ecH
	DB	0ecH
	DB	0ecH
	DB	0ecH
	DB	0ecH
	DB	0ecH
	DB	0ecH
	DB	0ecH
	DB	0ecH
	DB	0ecH
	DB	0ecH
	DB	090H
	DB	019H
	DB	024H
	DB	046H
	DB	02dH
	DB	02dH
	DB	032H
	DB	02cH
	DB	042H
	DB	095H
	DB	01H
	DB	01H
	DB	093H
	DB	024H
	DB	032H
	DB	02dH
	DB	02dH
	DB	02dH
	DB	02dH
	DB	0feH
	DB	058H
	DB	032H
	DB	03H
	DB	03H
	DB	03H
	DB	03H
	DB	03H
	DB	03H
	DB	03H
	DB	03H
	DB	03H
	DB	03H
	DB	03H
	DB	03H
	DB	03H
	DB	03H
	DB	03H
	DB	03H
	DB	03H
	DB	03H
	DB	03H
	DB	03H
	DB	03H
	DB	03H
	DB	03H
	DB	03H
	DB	03H
	DB	03H
	DB	03H
	DB	03H
	DB	03H
	DB	03H
	DB	03H
	DB	03H
	DB	03H
	DB	03H
	DB	03H
	DB	03H
	DB	03H
	DB	03H
	DB	03H
	DB	03H
	DB	03H
	DB	03H
	DB	03H
	DB	03H
	DB	03H
	DB	03H
	DB	03H
	DB	03H
	DB	03H
	DB	03H
	DB	03H
	DB	03H
	DB	03H
	DB	03H
	DB	03H
	DB	03H
	DB	03H
	DB	03H
	DB	03H
	DB	03H
	DB	03H
	DB	03H
	DB	03H
	DB	03H
	DB	03H
	DB	03H
	DB	03H
	DB	03H
	DB	03H
	DB	03H
	DB	03H
	DB	03H
	DB	03H
	DB	03H
	DB	03H
	DB	03H
	DB	03H
	DB	03H
	DB	03H
	DB	03H
	DB	03H
	DB	03H
	DB	03H
	DB	016H
	DB	02dH
	DB	02dH
	DB	02dH
	DB	03H
	DB	01dH
	DB	042H
	DB	095H
	DB	01H
	DB	01H
	DB	01H
	DB	0aaH
	DB	046H
	DB	037H
	DB	02dH
	DB	02dH
	DB	02dH
	DB	02dH
	DB	02dH
	DB	02dH
	DB	02dH
	DB	02dH
	DB	02dH
	DB	02dH
	DB	02dH
	DB	02dH
	DB	02dH
	DB	02dH
	DB	02dH
	DB	02dH
	DB	02dH
	DB	02dH
	DB	02dH
	DB	02dH
	DB	02dH
	DB	02dH
	DB	02dH
	DB	02dH
	DB	02dH
	DB	02dH
	DB	02dH
	DB	02dH
	DB	02dH
	DB	02dH
	DB	02dH
	DB	02dH
	DB	02dH
	DB	02dH
	DB	02dH
	DB	02dH
	DB	02dH
	DB	02dH
	DB	02dH
	DB	02dH
	DB	02dH
	DB	02dH
	DB	02dH
	DB	02dH
	DB	02dH
	DB	02dH
	DB	02dH
	DB	02dH
	DB	02dH
	DB	02dH
	DB	02dH
	DB	02dH
	DB	02dH
	DB	02dH
	DB	02dH
	DB	02dH
	DB	02dH
	DB	02dH
	DB	02dH
	DB	02dH
	DB	02dH
	DB	02dH
	DB	02dH
	DB	02dH
	DB	02dH
	DB	02dH
	DB	02dH
	DB	02dH
	DB	02dH
	DB	02dH
	DB	02dH
	DB	02dH
	DB	02dH
	DB	02dH
	DB	02dH
	DB	02dH
	DB	02dH
	DB	02dH
	DB	02dH
	DB	02dH
	DB	02dH
	DB	02dH
	DB	02dH
	DB	02dH
	DB	02dH
	DB	02dH
	DB	02dH
	DB	02dH
	DB	02dH
	DB	02dH
	DB	02dH
	DB	02dH
	DB	03H
	DB	028H
	DB	074H
	DB	08H
	DB	038H
	DB	01H
	DB	01H
	DB	01H
	DB	01H
	DB	023H
	DB	037H
	DB	032H
	DB	016H
	DB	02dH
	DB	02dH
	DB	02dH
	DB	02dH
	DB	02dH
	DB	02dH
	DB	02dH
	DB	02dH
	DB	02dH
	DB	02dH
	DB	02dH
	DB	02dH
	DB	02dH
	DB	02dH
	DB	02dH
	DB	02dH
	DB	02dH
	DB	02dH
	DB	02dH
	DB	02dH
	DB	02dH
	DB	02dH
	DB	02dH
	DB	02dH
	DB	02dH
	DB	02dH
	DB	02dH
	DB	02dH
	DB	02dH
	DB	02dH
	DB	02dH
	DB	02dH
	DB	02dH
	DB	02dH
	DB	02dH
	DB	02dH
	DB	02dH
	DB	02dH
	DB	02dH
	DB	02dH
	DB	02dH
	DB	02dH
	DB	02dH
	DB	02dH
	DB	02dH
	DB	02dH
	DB	02dH
	DB	02dH
	DB	02dH
	DB	02dH
	DB	02dH
	DB	02dH
	DB	02dH
	DB	02dH
	DB	02dH
	DB	02dH
	DB	02dH
	DB	02dH
	DB	02dH
	DB	02dH
	DB	02dH
	DB	02dH
	DB	02dH
	DB	02dH
	DB	02dH
	DB	02dH
	DB	02dH
	DB	02dH
	DB	02dH
	DB	02dH
	DB	02dH
	DB	02dH
	DB	02dH
	DB	02dH
	DB	02dH
	DB	02dH
	DB	02dH
	DB	02dH
	DB	02dH
	DB	02dH
	DB	02dH
	DB	02dH
	DB	02dH
	DB	02dH
	DB	02dH
	DB	02dH
	DB	02dH
	DB	02dH
	DB	016H
	DB	03H
	DB	028H
	DB	01bH
	DB	01H
	DB	03fH
	DB	044H
	DB	01H
	DB	01H
	DB	01H
	DB	01H
	DB	01H
	DB	0bH
	DB	0f6H
	DB	04H
	DB	03H
	DB	03H
	DB	03H
	DB	03H
	DB	03H
	DB	03H
	DB	03H
	DB	03H
	DB	03H
	DB	03H
	DB	03H
	DB	03H
	DB	03H
	DB	03H
	DB	03H
	DB	03H
	DB	03H
	DB	03H
	DB	03H
	DB	03H
	DB	03H
	DB	03H
	DB	03H
	DB	03H
	DB	03H
	DB	03H
	DB	03H
	DB	03H
	DB	03H
	DB	03H
	DB	03H
	DB	03H
	DB	03H
	DB	03H
	DB	03H
	DB	03H
	DB	03H
	DB	03H
	DB	03H
	DB	03H
	DB	03H
	DB	03H
	DB	03H
	DB	03H
	DB	03H
	DB	03H
	DB	03H
	DB	03H
	DB	03H
	DB	03H
	DB	03H
	DB	03H
	DB	03H
	DB	03H
	DB	03H
	DB	03H
	DB	03H
	DB	03H
	DB	03H
	DB	03H
	DB	03H
	DB	03H
	DB	03H
	DB	03H
	DB	03H
	DB	03H
	DB	03H
	DB	03H
	DB	03H
	DB	03H
	DB	03H
	DB	03H
	DB	03H
	DB	03H
	DB	03H
	DB	03H
	DB	03H
	DB	03H
	DB	03H
	DB	03H
	DB	03H
	DB	03H
	DB	03H
	DB	03H
	DB	03H
	DB	03H
	DB	03H
	DB	016H
	DB	0fcH
	DB	014H
	DB	074H
	DB	01H
	DB	06H
	DB	08H
	DB	05eH
	DB	01H
	DB	01H
	DB	01H
	DB	01H
	DB	01H
	DB	01H
	DB	06H
	DB	02H
	DB	09dH
	DB	07H
	DB	07H
	DB	07H
	DB	07H
	DB	07H
	DB	07H
	DB	07H
	DB	07H
	DB	07H
	DB	07H
	DB	07H
	DB	07H
	DB	07H
	DB	07H
	DB	07H
	DB	07H
	DB	07H
	DB	07H
	DB	07H
	DB	07H
	DB	07H
	DB	07H
	DB	07H
	DB	07H
	DB	07H
	DB	07H
	DB	07H
	DB	07H
	DB	07H
	DB	07H
	DB	07H
	DB	07H
	DB	07H
	DB	07H
	DB	07H
	DB	07H
	DB	07H
	DB	07H
	DB	07H
	DB	07H
	DB	07H
	DB	07H
	DB	07H
	DB	07H
	DB	07H
	DB	07H
	DB	07H
	DB	07H
	DB	07H
	DB	07H
	DB	07H
	DB	07H
	DB	07H
	DB	07H
	DB	07H
	DB	07H
	DB	07H
	DB	07H
	DB	07H
	DB	07H
	DB	07H
	DB	07H
	DB	07H
	DB	07H
	DB	07H
	DB	07H
	DB	07H
	DB	07H
	DB	07H
	DB	07H
	DB	07H
	DB	07H
	DB	07H
	DB	07H
	DB	07H
	DB	07H
	DB	07H
	DB	07H
	DB	07H
	DB	07H
	DB	07H
	DB	07H
	DB	07H
	DB	07H
	DB	07H
	DB	07H
	DB	09bH
	DB	075H
	DB	01H
	DB	047H
	DB	08H
	DB	043H
	DB	099H
	DB	011H
	DB	01H
	DB	01H
	DB	01H
	DB	01H
	DB	01H
	DB	01H
	DB	01H
	DB	01H
	DB	01H
	DB	01H
	DB	01H
	DB	01H
	DB	01H
	DB	01H
	DB	01H
	DB	01H
	DB	01H
	DB	01H
	DB	01H
	DB	01H
	DB	01H
	DB	01H
	DB	01H
	DB	01H
	DB	01H
	DB	01H
	DB	01H
	DB	01H
	DB	01H
	DB	01H
	DB	01H
	DB	01H
	DB	01H
	DB	01H
	DB	01H
	DB	01H
	DB	01H
	DB	01H
	DB	01H
	DB	01H
	DB	01H
	DB	01H
	DB	01H
	DB	01H
	DB	01H
	DB	01H
	DB	01H
	DB	01H
	DB	01H
	DB	01H
	DB	01H
	DB	01H
	DB	01H
	DB	01H
	DB	01H
	DB	01H
	DB	01H
	DB	01H
	DB	01H
	DB	01H
	DB	01H
	DB	01H
	DB	01H
	DB	01H
	DB	01H
	DB	01H
	DB	01H
	DB	01H
	DB	01H
	DB	01H
	DB	01H
	DB	01H
	DB	01H
	DB	01H
	DB	01H
	DB	01H
	DB	01H
	DB	01H
	DB	01H
	DB	01H
	DB	01H
	DB	01H
	DB	01H
	DB	01H
	DB	01H
	DB	01H
	DB	01H
	DB	01H
	DB	01H
	DB	01H
	DB	01H
	DB	01H
	DB	01H
	DB	01H
	DB	01H
	DB	01H
	DB	01H
	DB	01H
	DB	042H
	DB	033H
	DB	042H
	DB	042H
	DB	047H
	DB	01H
	DB	01H
	DB	01H
	DB	01H
	DB	01H
	DB	01H
	DB	01H
	DB	01H
	DB	01H
	DB	01H
	DB	01H
	DB	01H
	DB	01H
	DB	01H
	DB	01H
	DB	01H
	DB	01H
	DB	01H
	DB	01H
	DB	01H
	DB	01H
	DB	01H
	DB	01H
	DB	01H
	DB	01H
	DB	01H
	DB	01H
	DB	01H
	DB	01H
	DB	01H
	DB	01H
	DB	01H
	DB	01H
	DB	01H
	DB	01H
	DB	01H
	DB	01H
	DB	01H
	DB	01H
	DB	01H
	DB	01H
	DB	01H
	DB	01H
	DB	01H
	DB	01H
	DB	01H
	DB	01H
	DB	01H
	DB	01H
	DB	01H
	DB	01H
	DB	01H
	DB	01H
	DB	01H
	DB	01H
	DB	01H
	DB	01H
	DB	01H
	DB	01H
	DB	01H
	DB	01H
	DB	01H
	DB	01H
	DB	01H
	DB	01H
	DB	01H
	DB	01H
	DB	01H
	DB	01H
	DB	01H
	DB	01H
	DB	01H
	DB	01H
	DB	01H
	DB	042H
	DB	01H
	DB	01H
	DB	042H
	DB	093H
	DB	033H
	DB	093H
	DB	06H
	DB	042H
	DB	033H
	DB	033H
	DB	033H
	DB	048H
	DB	042H
	DB	01H
	DB	093H
	DB	042H
	DB	071H
	DB	08H
	DB	06H
	DB	01H
	DB	042H
	DB	01H
	DB	06H
	DB	033H
	DB	042H
	DB	01H
	DB	01H
	DB	01H
CONST	ENDS
END
