; Listing generated by Microsoft (R) Optimizing Compiler Version 16.00.40219.01 

	TITLE	C:\DUII\DUII\Graphics\AutoStartButton.c
	.686P
	.XMM
	include listing.inc
	.model	flat

INCLUDELIB LIBCMT
INCLUDELIB OLDNAMES

PUBLIC	_bmAutoStartButton
CONST	SEGMENT
_ColorsAutoStartButton DD 00H
	DD	010101H
	DD	0feH
	DD	0181818H
	DD	0272727H
	DD	0fafaf9H
	DD	0363636H
	DD	0474647H
	DD	0585858H
	DD	06a6969H
	DD	0989898H
	DD	0b6b6b7H
	DD	0d7d7d7H
	DD	02d2dcbH
	DD	0c8c8c7H
	DD	0393945H
	DD	0404e8H
	DD	0292835H
	DD	06866c6H
	DD	0ededd9H
	DD	0787776H
	DD	01616feH
	DD	05956b8H
	DD	04846b5H
	DD	01818d6H
	DD	0605d8H
	DD	0a8a7a8H
	DD	04747c7H
	DD	0888786H
	DD	01b1a25H
	DD	06566b9H
	DD	0afb4cdH
	DD	080717H
	DD	0191347H
	DD	0464757H
	DD	0585867H
	DD	0504afH
	DD	07a75c7H
	DD	060426H
	DD	05856c5H
	DD	04a4bffH
	DD	0221c26H
	DD	02828ffH
	DD	03636ffH
	DD	095b1c9H
	DD	0d4eaefH
	DD	0373554H
	DD	0cfd9e4H
	DD	0322b36H
	DD	09797c8H
	DD	0241970H
	DD	0393596H
	DD	0302c7H
	DD	03836adH
	DD	08ea4b5H
	DD	0c7cad4H
	DD	04545a9H
	DD	08888c5H
	DD	04a5465H
	DD	050436H
	DD	0161439H
	DD	060556H
	DD	0231a58H
	DD	050569H
	DD	02a2496H
	DD	01c222bH
	DD	0150d49H
	DD	030294H
	DD	0332c86H
	DD	07576b9H
	DD	06d6dffH
	DD	01a1555H
	DD	0272466H
	DD	078746bH
	DD	0868479H
	DD	0534cb6H
	DD	0736cc6H
	DD	0576776H
	DD	0423ca7H
	DD	05655a9H
	DD	0878794H
	DD	0afc5d4H
	DD	0656773H
	DD	030286H
	DD	04a449bH
	DD	0524ca9H
	DD	0635bc5H
	DD	0778698H
	DD	07788a4H
	DD	040375H
	DD	02c2876H
	DD	03d4049H
	DD	03b4456H
	DD	0756c65H
	DD	0746c77H
	DD	0281b86H
	DD	07687b5H
	DD	0a29c97H
	DD	08789b9H
	DD	040346H
	DD	0150c55H
	DD	0221a49H
	DD	0363376H
	DD	0534d56H
	DD	04b545aH
	DD	0645b53H
	DD	0625d66H
	DD	0393489H
	DD	0332a93H
	DD	041399bH
	DD	03d41a9H
	DD	0635cbbH
	DD	0889db4H
	DD	013110eH
	DD	0120b2aH
	DD	029264aH
	DD	0544c47H
	DD	04a4a64H
	DD	06a6589H
	DD	0787988H
	DD	06977b8H
	DD	01717ccH
	DD	01312e1H
	DD	07774d8H
	DD	06caccdH
	DD	09798a5H
	DD	0b4b4a9H
	DD	0110c16H
	DD	0453c39H
	DD	0332c54H
	DD	01c1466H
	DD	0969488H
	DD	0a5a79aH
	DD	0a8a9b5H
	DD	0d8d8c7H
	DD	0251c1bH
	DD	0130b3aH
	DD	02d3237H
	DD	02c3545H
	DD	0292457H
	DD	0130d66H
	DD	0312968H
	DD	0322975H
	DD	06d665bH
	DD	068798dH
	DD	0687996H
	DD	0746dd4H
	DD	08694a8H
	DD	0c2bcbbH
	DD	0c9c8beH
	DD	0b6d3e5H
	DD	0100d0dH
	DD	01f201fH
	DD	0332828H
	DD	0312c47H
	DD	0453d44H
	DD	0535a77H
	DD	04c6879H
	DD	02c2789H
	DD	0645a8dH
	DD	0576587H
	DD	06769a7H
	DD	06b79a2H
	DD	05958d0H
	DD	0857cd2H
	DD	05490b1H
	DD	07c94abH
	DD	0abb1b9H
	DD	084c7e9H
	DD	0c9d5dcH
	DD	022211bH
	DD	0251b37H
	DD	030302fH
	DD	0433d54H
	DD	056524dH
	DD	0564a71H
	DD	04d5b76H
	DD	0837d76H
	DD	03d4497H
	DD	0444489H
	DD	05d5788H
	DD	0525397H
	DD	0557482H
	DD	0557b97H
	DD	05c62a7H
	DD	06865d3H
	DD	0867d89H
	DD	07a99b4H
	DD	072a5baH
	DD	08d9299H
	DD	08488a4H
	DD	0b2acaaH
	DD	08882d3H
	DD	08888ffH
	DD	0c4bec6H
	DD	0f1111H
	DD	03e3265H
	DD	03a5158H
	DD	0394a66H
	DD	0444575H
	DD	0625b7bH
	DD	06a7279H
	DD	093907eH
	DD	0443b83H
	DD	0534988H
	DD	0524995H
	DD	0746c97H
	DD	05e65b8H
	DD	0717ca7H
	DD	0524ec6H
	DD	08279c9H
	DD	07d8189H
	DD	06b8894H
	DD	06d85a5H
	DD	06e85b1H
	DD	06597b4H
	DD	06bb6e3H
	DD	09da198H
	DD	0918daaH
	DD	09596bbH
	DD	0b2adb3H
	DD	0b3eff5H
	DD	0321f17H
	DD	02f302fH
	DD	043403fH
	DD	018204fH
	DD	02e3f51H
	DD	010097bH
	DD	01e1f70H
	DD	043336bH
	DD	041387fH
	DD	02e4855H
	DD	0345d72H
	DD	06f706fH
	DD	07f8075H
	DD	0908e7eH
	DD	04439b4H
	DD	04a5482H
	DD	0416682H
	DD	07f789fH
	DD	04d5ba0H
	DD	0615bafH
	DD	05e70b1H
	DD	02f30ffH
	DD	0645ed2H
	DD	06d72d3H
	DD	0558093H
	DD	0908989H
	DD	0908c90H
	DD	0a09fbcH
	DD	08e9ec0H
	DD	09b9bd1H
	DD	081bee1H
	DD	096e9feH
	DD	0d0cfceH
	DD	0e4dee0H
_PalAutoStartButton DD 0100H
	DB	00H
	ORG $+3
	DD	FLAT:_ColorsAutoStartButton
_bmAutoStartButton DW 07fH
	DW	073H
	DW	07fH
	DW	08H
	DD	FLAT:_acAutoStartButton
	DD	FLAT:_PalAutoStartButton
	ORG $+4
_acAutoStartButton DB 00H
	DB	00H
	DB	00H
	DB	00H
	DB	00H
	DB	00H
	DB	00H
	DB	00H
	DB	00H
	DB	00H
	DB	00H
	DB	00H
	DB	00H
	DB	00H
	DB	00H
	DB	00H
	DB	00H
	DB	00H
	DB	00H
	DB	00H
	DB	00H
	DB	00H
	DB	00H
	DB	00H
	DB	00H
	DB	00H
	DB	00H
	DB	00H
	DB	00H
	DB	00H
	DB	00H
	DB	00H
	DB	00H
	DB	00H
	DB	00H
	DB	00H
	DB	00H
	DB	00H
	DB	00H
	DB	00H
	DB	00H
	DB	00H
	DB	00H
	DB	00H
	DB	00H
	DB	00H
	DB	00H
	DB	00H
	DB	00H
	DB	00H
	DB	00H
	DB	00H
	DB	00H
	DB	00H
	DB	00H
	DB	00H
	DB	00H
	DB	00H
	DB	00H
	DB	00H
	DB	00H
	DB	00H
	DB	00H
	DB	00H
	DB	00H
	DB	00H
	DB	00H
	DB	00H
	DB	00H
	DB	00H
	DB	00H
	DB	00H
	DB	00H
	DB	00H
	DB	00H
	DB	00H
	DB	00H
	DB	00H
	DB	00H
	DB	00H
	DB	00H
	DB	00H
	DB	00H
	DB	00H
	DB	00H
	DB	00H
	DB	00H
	DB	00H
	DB	00H
	DB	00H
	DB	00H
	DB	00H
	DB	00H
	DB	00H
	DB	00H
	DB	00H
	DB	00H
	DB	00H
	DB	00H
	DB	00H
	DB	00H
	DB	00H
	DB	00H
	DB	00H
	DB	00H
	DB	00H
	DB	00H
	DB	00H
	DB	00H
	DB	00H
	DB	00H
	DB	00H
	DB	00H
	DB	00H
	DB	00H
	DB	00H
	DB	00H
	DB	00H
	DB	00H
	DB	00H
	DB	00H
	DB	00H
	DB	00H
	DB	00H
	DB	00H
	DB	00H
	DB	00H
	DB	00H
	DB	00H
	DB	00H
	DB	00H
	DB	00H
	DB	00H
	DB	00H
	DB	00H
	DB	00H
	DB	00H
	DB	00H
	DB	00H
	DB	00H
	DB	00H
	DB	00H
	DB	00H
	DB	00H
	DB	00H
	DB	00H
	DB	00H
	DB	00H
	DB	00H
	DB	00H
	DB	00H
	DB	00H
	DB	00H
	DB	00H
	DB	00H
	DB	00H
	DB	00H
	DB	00H
	DB	00H
	DB	00H
	DB	00H
	DB	00H
	DB	00H
	DB	00H
	DB	00H
	DB	00H
	DB	00H
	DB	00H
	DB	00H
	DB	00H
	DB	00H
	DB	00H
	DB	00H
	DB	00H
	DB	00H
	DB	00H
	DB	00H
	DB	00H
	DB	00H
	DB	00H
	DB	00H
	DB	00H
	DB	00H
	DB	00H
	DB	00H
	DB	00H
	DB	00H
	DB	00H
	DB	00H
	DB	00H
	DB	00H
	DB	00H
	DB	00H
	DB	00H
	DB	00H
	DB	00H
	DB	00H
	DB	00H
	DB	00H
	DB	00H
	DB	00H
	DB	00H
	DB	00H
	DB	00H
	DB	00H
	DB	00H
	DB	00H
	DB	00H
	DB	00H
	DB	00H
	DB	00H
	DB	00H
	DB	00H
	DB	00H
	DB	00H
	DB	00H
	DB	00H
	DB	00H
	DB	00H
	DB	00H
	DB	00H
	DB	00H
	DB	00H
	DB	00H
	DB	00H
	DB	00H
	DB	00H
	DB	00H
	DB	00H
	DB	00H
	DB	00H
	DB	00H
	DB	00H
	DB	00H
	DB	00H
	DB	00H
	DB	00H
	DB	00H
	DB	00H
	DB	00H
	DB	00H
	DB	00H
	DB	00H
	DB	00H
	DB	00H
	DB	00H
	DB	00H
	DB	00H
	DB	00H
	DB	00H
	DB	00H
	DB	00H
	DB	00H
	DB	00H
	DB	00H
	DB	00H
	DB	00H
	DB	00H
	DB	00H
	DB	00H
	DB	00H
	DB	00H
	DB	00H
	DB	00H
	DB	00H
	DB	00H
	DB	00H
	DB	00H
	DB	00H
	DB	00H
	DB	00H
	DB	00H
	DB	00H
	DB	00H
	DB	00H
	DB	00H
	DB	00H
	DB	00H
	DB	00H
	DB	00H
	DB	00H
	DB	00H
	DB	00H
	DB	00H
	DB	00H
	DB	00H
	DB	00H
	DB	00H
	DB	00H
	DB	00H
	DB	00H
	DB	00H
	DB	00H
	DB	00H
	DB	00H
	DB	00H
	DB	00H
	DB	00H
	DB	00H
	DB	00H
	DB	00H
	DB	00H
	DB	00H
	DB	00H
	DB	00H
	DB	00H
	DB	00H
	DB	00H
	DB	00H
	DB	00H
	DB	00H
	DB	00H
	DB	00H
	DB	00H
	DB	00H
	DB	00H
	DB	00H
	DB	00H
	DB	00H
	DB	00H
	DB	00H
	DB	00H
	DB	00H
	DB	00H
	DB	00H
	DB	00H
	DB	00H
	DB	00H
	DB	00H
	DB	00H
	DB	00H
	DB	00H
	DB	00H
	DB	00H
	DB	00H
	DB	00H
	DB	00H
	DB	00H
	DB	00H
	DB	00H
	DB	00H
	DB	00H
	DB	00H
	DB	00H
	DB	00H
	DB	00H
	DB	00H
	DB	00H
	DB	00H
	DB	00H
	DB	00H
	DB	00H
	DB	00H
	DB	00H
	DB	00H
	DB	00H
	DB	00H
	DB	00H
	DB	00H
	DB	00H
	DB	00H
	DB	00H
	DB	00H
	DB	00H
	DB	00H
	DB	00H
	DB	00H
	DB	00H
	DB	00H
	DB	00H
	DB	00H
	DB	00H
	DB	00H
	DB	00H
	DB	00H
	DB	00H
	DB	00H
	DB	00H
	DB	00H
	DB	00H
	DB	00H
	DB	00H
	DB	00H
	DB	00H
	DB	00H
	DB	00H
	DB	00H
	DB	00H
	DB	00H
	DB	00H
	DB	00H
	DB	00H
	DB	00H
	DB	00H
	DB	00H
	DB	00H
	DB	00H
	DB	00H
	DB	00H
	DB	00H
	DB	00H
	DB	00H
	DB	00H
	DB	00H
	DB	00H
	DB	00H
	DB	00H
	DB	00H
	DB	00H
	DB	00H
	DB	00H
	DB	00H
	DB	00H
	DB	00H
	DB	00H
	DB	00H
	DB	00H
	DB	00H
	DB	00H
	DB	00H
	DB	00H
	DB	00H
	DB	00H
	DB	00H
	DB	00H
	DB	00H
	DB	00H
	DB	00H
	DB	00H
	DB	00H
	DB	00H
	DB	00H
	DB	00H
	DB	00H
	DB	00H
	DB	00H
	DB	00H
	DB	00H
	DB	01H
	DB	097H
	DB	01H
	DB	01H
	DB	03H
	DB	04H
	DB	04H
	DB	04H
	DB	029H
	DB	01dH
	DB	01dH
	DB	0c3H
	DB	01H
	DB	01H
	DB	01H
	DB	00H
	DB	00H
	DB	00H
	DB	00H
	DB	00H
	DB	00H
	DB	00H
	DB	00H
	DB	00H
	DB	00H
	DB	00H
	DB	00H
	DB	00H
	DB	00H
	DB	00H
	DB	00H
	DB	00H
	DB	00H
	DB	00H
	DB	00H
	DB	00H
	DB	00H
	DB	00H
	DB	00H
	DB	00H
	DB	00H
	DB	00H
	DB	00H
	DB	00H
	DB	00H
	DB	00H
	DB	00H
	DB	00H
	DB	00H
	DB	00H
	DB	00H
	DB	00H
	DB	00H
	DB	00H
	DB	00H
	DB	00H
	DB	00H
	DB	00H
	DB	00H
	DB	00H
	DB	00H
	DB	00H
	DB	00H
	DB	00H
	DB	00H
	DB	00H
	DB	00H
	DB	00H
	DB	00H
	DB	00H
	DB	00H
	DB	00H
	DB	00H
	DB	00H
	DB	00H
	DB	00H
	DB	00H
	DB	00H
	DB	00H
	DB	00H
	DB	00H
	DB	00H
	DB	00H
	DB	00H
	DB	00H
	DB	00H
	DB	00H
	DB	00H
	DB	00H
	DB	00H
	DB	00H
	DB	00H
	DB	00H
	DB	00H
	DB	00H
	DB	00H
	DB	00H
	DB	00H
	DB	00H
	DB	00H
	DB	00H
	DB	00H
	DB	00H
	DB	00H
	DB	00H
	DB	00H
	DB	00H
	DB	00H
	DB	00H
	DB	00H
	DB	00H
	DB	00H
	DB	00H
	DB	00H
	DB	00H
	DB	00H
	DB	00H
	DB	00H
	DB	00H
	DB	00H
	DB	01H
	DB	01H
	DB	00H
	DB	00H
	DB	01H
	DB	098H
	DB	098H
	DB	0dfH
	DB	030H
	DB	011H
	DB	011H
	DB	030H
	DB	0fH
	DB	011H
	DB	030H
	DB	011H
	DB	030H
	DB	030H
	DB	030H
	DB	029H
	DB	029H
	DB	03H
	DB	097H
	DB	01H
	DB	01H
	DB	01H
	DB	00H
	DB	01H
	DB	01H
	DB	01H
	DB	00H
	DB	00H
	DB	00H
	DB	00H
	DB	00H
	DB	00H
	DB	00H
	DB	00H
	DB	00H
	DB	00H
	DB	00H
	DB	00H
	DB	00H
	DB	00H
	DB	00H
	DB	00H
	DB	00H
	DB	00H
	DB	00H
	DB	00H
	DB	00H
	DB	00H
	DB	00H
	DB	00H
	DB	00H
	DB	00H
	DB	00H
	DB	00H
	DB	00H
	DB	00H
	DB	00H
	DB	00H
	DB	00H
	DB	00H
	DB	00H
	DB	00H
	DB	00H
	DB	00H
	DB	00H
	DB	00H
	DB	00H
	DB	00H
	DB	00H
	DB	00H
	DB	00H
	DB	00H
	DB	00H
	DB	00H
	DB	00H
	DB	00H
	DB	00H
	DB	00H
	DB	098H
	DB	0d3H
	DB	0d9H
	DB	0aH
	DB	0aH
	DB	0aH
	DB	0aH
	DB	0aH
	DB	0aH
	DB	0aH
	DB	0aH
	DB	0aH
	DB	0aH
	DB	0aH
	DB	0aH
	DB	0aH
	DB	0aH
	DB	0aH
	DB	0aH
	DB	0aH
	DB	0aH
	DB	0aH
	DB	0aH
	DB	0aH
	DB	0aH
	DB	0aH
	DB	0aH
	DB	0aH
	DB	0aH
	DB	0aH
	DB	0aH
	DB	0aH
	DB	0aH
	DB	0aH
	DB	0aH
	DB	0aH
	DB	0aH
	DB	0aH
	DB	0aH
	DB	0aH
	DB	0aH
	DB	0aH
	DB	0aH
	DB	0d9H
	DB	0aH
	DB	09H
	DB	07H
	DB	04H
	DB	06H
	DB	0fH
	DB	0fH
	DB	011H
	DB	030H
	DB	0fH
	DB	068H
	DB	05eH
	DB	050H
	DB	07dH
	DB	01aH
	DB	0dcH
	DB	0dcH
	DB	0a7H
	DB	085H
	DB	01aH
	DB	0aH
	DB	050H
	DB	052H
	DB	067H
	DB	0fH
	DB	029H
	DB	097H
	DB	01H
	DB	0c3H
	DB	06H
	DB	0e9H
	DB	0bdH
	DB	0aH
	DB	0aH
	DB	0aH
	DB	0aH
	DB	0aH
	DB	0aH
	DB	0aH
	DB	0aH
	DB	0aH
	DB	0aH
	DB	0aH
	DB	0aH
	DB	0aH
	DB	0aH
	DB	0aH
	DB	0aH
	DB	0aH
	DB	0aH
	DB	0aH
	DB	0aH
	DB	0aH
	DB	0aH
	DB	0aH
	DB	0aH
	DB	0aH
	DB	0aH
	DB	0aH
	DB	0aH
	DB	0aH
	DB	0aH
	DB	0aH
	DB	0aH
	DB	0aH
	DB	0aH
	DB	0aH
	DB	0aH
	DB	0aH
	DB	0aH
	DB	0aH
	DB	0aH
	DB	0aH
	DB	01cH
	DB	0e0H
	DB	00H
	DB	00H
	DB	00H
	DB	00H
	DB	00H
	DB	00H
	DB	00H
	DB	0c3H
	DB	01aH
	DB	0feH
	DB	0bH
	DB	0bH
	DB	0bH
	DB	0bH
	DB	0bH
	DB	0bH
	DB	0bH
	DB	0bH
	DB	0bH
	DB	0bH
	DB	0bH
	DB	0bH
	DB	0bH
	DB	0bH
	DB	0bH
	DB	0bH
	DB	0bH
	DB	0bH
	DB	0bH
	DB	0bH
	DB	0bH
	DB	0bH
	DB	0bH
	DB	0bH
	DB	0bH
	DB	0bH
	DB	0bH
	DB	0bH
	DB	0bH
	DB	0bH
	DB	0bH
	DB	0bH
	DB	0bH
	DB	0bH
	DB	0bH
	DB	0bH
	DB	0bH
	DB	0bH
	DB	0bH
	DB	0bH
	DB	0dcH
	DB	01cH
	DB	08H
	DB	067H
	DB	0e0H
	DB	06H
	DB	029H
	DB	011H
	DB	067H
	DB	0baH
	DB	0bfH
	DB	0bH
	DB	01aH
	DB	0f8H
	DB	014H
	DB	09H
	DB	08H
	DB	07H
	DB	07H
	DB	07H
	DB	067H
	DB	06aH
	DB	05eH
	DB	014H
	DB	052H
	DB	06aH
	DB	05eH
	DB	05eH
	DB	09H
	DB	067H
	DB	04H
	DB	097H
	DB	098H
	DB	0aeH
	DB	0f7H
	DB	0bfH
	DB	0bH
	DB	0bH
	DB	0bH
	DB	0bH
	DB	0bH
	DB	0bH
	DB	0bH
	DB	0bH
	DB	0bH
	DB	0bH
	DB	0bH
	DB	0bH
	DB	0bH
	DB	0bH
	DB	0bH
	DB	0bH
	DB	0bH
	DB	0bH
	DB	0bH
	DB	0bH
	DB	0bH
	DB	0bH
	DB	0bH
	DB	0bH
	DB	0bH
	DB	0bH
	DB	0bH
	DB	0bH
	DB	0bH
	DB	0bH
	DB	0bH
	DB	0bH
	DB	0bH
	DB	0bH
	DB	0bH
	DB	0bH
	DB	0bH
	DB	0bH
	DB	0bH
	DB	094H
	DB	0bH
	DB	06H
	DB	00H
	DB	00H
	DB	00H
	DB	00H
	DB	00H
	DB	00H
	DB	07H
	DB	0d9H
	DB	014H
	DB	0e9H
	DB	0e9H
	DB	0e9H
	DB	0e9H
	DB	0e9H
	DB	0e9H
	DB	0e9H
	DB	0e9H
	DB	0e9H
	DB	0e9H
	DB	0e9H
	DB	0e9H
	DB	0e9H
	DB	0e9H
	DB	0e9H
	DB	0e9H
	DB	0e9H
	DB	0e9H
	DB	0e9H
	DB	0e9H
	DB	0e9H
	DB	0e9H
	DB	0e9H
	DB	0e9H
	DB	0e9H
	DB	0e9H
	DB	0e9H
	DB	0e9H
	DB	0e9H
	DB	0e9H
	DB	0e9H
	DB	0e9H
	DB	0e9H
	DB	0e9H
	DB	0e9H
	DB	0e9H
	DB	0e9H
	DB	0e9H
	DB	09H
	DB	074H
	DB	06H
	DB	06H
	DB	07H
	DB	030H
	DB	0fH
	DB	07H
	DB	0f7H
	DB	01aH
	DB	01aH
	DB	050H
	DB	052H
	DB	03aH
	DB	022H
	DB	05cH
	DB	02eH
	DB	011H
	DB	04H
	DB	04H
	DB	029H
	DB	087H
	DB	03H
	DB	03H
	DB	0acH
	DB	030H
	DB	0dfH
	DB	0fH
	DB	011H
	DB	011H
	DB	0fH
	DB	06aH
	DB	014H
	DB	05eH
	DB	07H
	DB	07fH
	DB	097H
	DB	04H
	DB	0aeH
	DB	09H
	DB	0e9H
	DB	0e9H
	DB	0e9H
	DB	0e9H
	DB	0e9H
	DB	0e9H
	DB	0e9H
	DB	0e9H
	DB	0e9H
	DB	0e9H
	DB	0e9H
	DB	0e9H
	DB	0e9H
	DB	0e9H
	DB	0e9H
	DB	0e9H
	DB	0e9H
	DB	0e9H
	DB	0e9H
	DB	0e9H
	DB	0e9H
	DB	0e9H
	DB	0e9H
	DB	0e9H
	DB	0e9H
	DB	0e9H
	DB	0e9H
	DB	0e9H
	DB	0e9H
	DB	0e9H
	DB	0e9H
	DB	0e9H
	DB	0e9H
	DB	0e9H
	DB	0e9H
	DB	0e9H
	DB	0e9H
	DB	0e9H
	DB	014H
	DB	07H
	DB	00H
	DB	00H
	DB	00H
	DB	00H
	DB	00H
	DB	00H
	DB	07H
	DB	04aH
	DB	09H
	DB	09H
	DB	09H
	DB	09H
	DB	09H
	DB	09H
	DB	09H
	DB	09H
	DB	09H
	DB	09H
	DB	09H
	DB	09H
	DB	09H
	DB	09H
	DB	09H
	DB	09H
	DB	09H
	DB	09H
	DB	09H
	DB	09H
	DB	09H
	DB	09H
	DB	09H
	DB	09H
	DB	09H
	DB	09H
	DB	09H
	DB	09H
	DB	09H
	DB	09H
	DB	09H
	DB	09H
	DB	09H
	DB	09H
	DB	09H
	DB	09H
	DB	09H
	DB	09H
	DB	08H
	DB	0e0H
	DB	0e0H
	DB	07H
	DB	080H
	DB	04H
	DB	08H
	DB	0aH
	DB	07dH
	DB	0d3H
	DB	04dH
	DB	09cH
	DB	0a0H
	DB	0a2H
	DB	060H
	DB	0d6H
	DB	0a2H
	DB	0edH
	DB	02eH
	DB	02eH
	DB	0fH
	DB	09aH
	DB	0abH
	DB	029H
	DB	029H
	DB	0fH
	DB	099H
	DB	07fH
	DB	021H
	DB	03eH
	DB	048H
	DB	048H
	DB	03eH
	DB	0abH
	DB	09bH
	DB	05eH
	DB	05eH
	DB	07H
	DB	07fH
	DB	07fH
	DB	0acH
	DB	08H
	DB	09H
	DB	09H
	DB	09H
	DB	09H
	DB	09H
	DB	09H
	DB	09H
	DB	09H
	DB	09H
	DB	09H
	DB	09H
	DB	09H
	DB	09H
	DB	09H
	DB	09H
	DB	09H
	DB	09H
	DB	09H
	DB	09H
	DB	09H
	DB	09H
	DB	09H
	DB	09H
	DB	09H
	DB	09H
	DB	09H
	DB	09H
	DB	09H
	DB	09H
	DB	09H
	DB	09H
	DB	09H
	DB	09H
	DB	09H
	DB	09H
	DB	09H
	DB	09H
	DB	09H
	DB	0e0H
	DB	00H
	DB	00H
	DB	00H
	DB	00H
	DB	00H
	DB	00H
	DB	0e0H
	DB	0e9H
	DB	08H
	DB	06aH
	DB	06aH
	DB	06aH
	DB	06aH
	DB	06aH
	DB	06aH
	DB	06aH
	DB	06aH
	DB	06aH
	DB	06aH
	DB	06aH
	DB	06aH
	DB	06aH
	DB	06aH
	DB	06aH
	DB	06aH
	DB	06aH
	DB	06aH
	DB	06aH
	DB	06aH
	DB	06aH
	DB	06aH
	DB	06aH
	DB	06aH
	DB	06aH
	DB	06aH
	DB	06aH
	DB	06aH
	DB	06aH
	DB	06aH
	DB	06aH
	DB	06aH
	DB	06aH
	DB	08H
	DB	06aH
	DB	08H
	DB	0e0H
	DB	06H
	DB	067H
	DB	0acH
	DB	029H
	DB	067H
	DB	050H
	DB	0d3H
	DB	04dH
	DB	09cH
	DB	091H
	DB	060H
	DB	060H
	DB	078H
	DB	078H
	DB	078H
	DB	078H
	DB	01eH
	DB	06fH
	DB	012H
	DB	012H
	DB	012H
	DB	012H
	DB	06fH
	DB	0f1H
	DB	04fH
	DB	0ccH
	DB	0c4H
	DB	0adH
	DB	065H
	DB	064H
	DB	06bH
	DB	0b3H
	DB	08dH
	DB	0abH
	DB	030H
	DB	030H
	DB	0adH
	DB	077H
	DB	05eH
	DB	0fH
	DB	01dH
	DB	098H
	DB	0e0H
	DB	08H
	DB	08H
	DB	08H
	DB	08H
	DB	06aH
	DB	06aH
	DB	06aH
	DB	06aH
	DB	06aH
	DB	06aH
	DB	06aH
	DB	06aH
	DB	06aH
	DB	06aH
	DB	06aH
	DB	06aH
	DB	06aH
	DB	06aH
	DB	06aH
	DB	06aH
	DB	06aH
	DB	06aH
	DB	06aH
	DB	06aH
	DB	06aH
	DB	06aH
	DB	06aH
	DB	06aH
	DB	06aH
	DB	06aH
	DB	06aH
	DB	06aH
	DB	06aH
	DB	06aH
	DB	06aH
	DB	06aH
	DB	08H
	DB	06H
	DB	00H
	DB	00H
	DB	00H
	DB	00H
	DB	00H
	DB	00H
	DB	06H
	DB	09H
	DB	0aeH
	DB	08H
	DB	08H
	DB	08H
	DB	08H
	DB	08H
	DB	08H
	DB	08H
	DB	08H
	DB	08H
	DB	08H
	DB	08H
	DB	08H
	DB	08H
	DB	08H
	DB	08H
	DB	08H
	DB	08H
	DB	08H
	DB	08H
	DB	08H
	DB	08H
	DB	08H
	DB	08H
	DB	08H
	DB	08H
	DB	08H
	DB	08H
	DB	08H
	DB	08H
	DB	08H
	DB	08H
	DB	08H
	DB	08H
	DB	08H
	DB	07H
	DB	0dfH
	DB	074H
	DB	07H
	DB	04H
	DB	08aH
	DB	077H
	DB	0d3H
	DB	023H
	DB	0a0H
	DB	0d5H
	DB	060H
	DB	078H
	DB	01eH
	DB	012H
	DB	012H
	DB	012H
	DB	012H
	DB	056H
	DB	056H
	DB	027H
	DB	04bH
	DB	04bH
	DB	04bH
	DB	04bH
	DB	04bH
	DB	016H
	DB	06fH
	DB	056H
	DB	0b9H
	DB	012H
	DB	055H
	DB	06cH
	DB	044H
	DB	08eH
	DB	0abH
	DB	0deH
	DB	0deH
	DB	029H
	DB	03cH
	DB	0e1H
	DB	075H
	DB	077H
	DB	06aH
	DB	011H
	DB	029H
	DB	04H
	DB	07H
	DB	067H
	DB	067H
	DB	08H
	DB	08H
	DB	08H
	DB	08H
	DB	08H
	DB	08H
	DB	08H
	DB	08H
	DB	08H
	DB	08H
	DB	08H
	DB	08H
	DB	08H
	DB	08H
	DB	08H
	DB	08H
	DB	08H
	DB	08H
	DB	08H
	DB	08H
	DB	08H
	DB	08H
	DB	08H
	DB	08H
	DB	08H
	DB	08H
	DB	08H
	DB	08H
	DB	08H
	DB	08H
	DB	08H
	DB	08H
	DB	08H
	DB	0dfH
	DB	00H
	DB	00H
	DB	00H
	DB	00H
	DB	00H
	DB	00H
	DB	06H
	DB	06aH
	DB	07H
	DB	07H
	DB	07H
	DB	07H
	DB	07H
	DB	07H
	DB	07H
	DB	07H
	DB	07H
	DB	07H
	DB	07H
	DB	07H
	DB	07H
	DB	07H
	DB	07H
	DB	07H
	DB	07H
	DB	07H
	DB	07H
	DB	07H
	DB	07H
	DB	07H
	DB	07H
	DB	07H
	DB	07H
	DB	07H
	DB	07H
	DB	07H
	DB	07H
	DB	07H
	DB	07H
	DB	07H
	DB	07H
	DB	07H
	DB	06H
	DB	07H
	DB	0aeH
	DB	0dfH
	DB	029H
	DB	03aH
	DB	090H
	DB	09cH
	DB	0b0H
	DB	0d5H
	DB	060H
	DB	0f2H
	DB	01eH
	DB	0b9H
	DB	092H
	DB	04cH
	DB	012H
	DB	06fH
	DB	016H
	DB	016H
	DB	04bH
	DB	04bH
	DB	04bH
	DB	04bH
	DB	04bH
	DB	04bH
	DB	055H
	DB	04bH
	DB	04bH
	DB	055H
	DB	016H
	DB	06fH
	DB	06fH
	DB	012H
	DB	027H
	DB	055H
	DB	0e5H
	DB	030H
	DB	087H
	DB	072H
	DB	064H
	DB	044H
	DB	066H
	DB	0c7H
	DB	090H
	DB	05eH
	DB	0adH
	DB	01dH
	DB	098H
	DB	0e0H
	DB	07H
	DB	07H
	DB	07H
	DB	07H
	DB	07H
	DB	07H
	DB	07H
	DB	07H
	DB	07H
	DB	07H
	DB	07H
	DB	07H
	DB	07H
	DB	07H
	DB	07H
	DB	07H
	DB	07H
	DB	07H
	DB	07H
	DB	07H
	DB	07H
	DB	07H
	DB	07H
	DB	07H
	DB	07H
	DB	07H
	DB	07H
	DB	07H
	DB	07H
	DB	07H
	DB	07H
	DB	07H
	DB	074H
	DB	07H
	DB	04H
	DB	00H
	DB	00H
	DB	00H
	DB	00H
	DB	00H
	DB	00H
	DB	0acH
	DB	08H
	DB	0e0H
	DB	0e0H
	DB	0e0H
	DB	0e0H
	DB	0e0H
	DB	0e0H
	DB	0e0H
	DB	0e0H
	DB	0e0H
	DB	0e0H
	DB	0e0H
	DB	0e0H
	DB	0e0H
	DB	0e0H
	DB	0e0H
	DB	0e0H
	DB	0e0H
	DB	0e0H
	DB	0e0H
	DB	0e0H
	DB	0e0H
	DB	0e0H
	DB	0e0H
	DB	0e0H
	DB	0e0H
	DB	0e0H
	DB	0e0H
	DB	0e0H
	DB	0e0H
	DB	0e0H
	DB	0e0H
	DB	0e0H
	DB	0e0H
	DB	0dfH
	DB	07H
	DB	08H
	DB	029H
	DB	011H
	DB	0b6H
	DB	09cH
	DB	0c6H
	DB	091H
	DB	060H
	DB	01eH
	DB	056H
	DB	092H
	DB	07bH
	DB	025H
	DB	04cH
	DB	04cH
	DB	01eH
	DB	06fH
	DB	06fH
	DB	06fH
	DB	06fH
	DB	06fH
	DB	016H
	DB	04fH
	DB	055H
	DB	055H
	DB	055H
	DB	04fH
	DB	016H
	DB	016H
	DB	016H
	DB	0cfH
	DB	01eH
	DB	01eH
	DB	01eH
	DB	012H
	DB	056H
	DB	055H
	DB	08dH
	DB	088H
	DB	048H
	DB	04fH
	DB	0f1H
	DB	04fH
	DB	0b8H
	DB	091H
	DB	057H
	DB	023H
	DB	011H
	DB	03H
	DB	0acH
	DB	0e0H
	DB	0e0H
	DB	0e0H
	DB	0e0H
	DB	0e0H
	DB	0e0H
	DB	0e0H
	DB	0e0H
	DB	0e0H
	DB	0e0H
	DB	0e0H
	DB	0e0H
	DB	0e0H
	DB	0e0H
	DB	0e0H
	DB	0e0H
	DB	0e0H
	DB	0e0H
	DB	0e0H
	DB	0e0H
	DB	0e0H
	DB	0e0H
	DB	0e0H
	DB	0e0H
	DB	0e0H
	DB	0e0H
	DB	0e0H
	DB	0e0H
	DB	0e0H
	DB	0e0H
	DB	0e0H
	DB	07H
	DB	0e0H
	DB	04H
	DB	00H
	DB	00H
	DB	00H
	DB	00H
	DB	00H
	DB	00H
	DB	0dfH
	DB	0aeH
	DB	06H
	DB	06H
	DB	06H
	DB	06H
	DB	06H
	DB	06H
	DB	06H
	DB	06H
	DB	06H
	DB	06H
	DB	06H
	DB	06H
	DB	06H
	DB	06H
	DB	06H
	DB	06H
	DB	06H
	DB	06H
	DB	06H
	DB	06H
	DB	06H
	DB	06H
	DB	06H
	DB	06H
	DB	06H
	DB	06H
	DB	06H
	DB	06H
	DB	06H
	DB	06H
	DB	06H
	DB	06H
	DB	098H
	DB	0e0H
	DB	067H
	DB	029H
	DB	08aH
	DB	04dH
	DB	05cH
	DB	03aH
	DB	0d6H
	DB	0cfH
	DB	027H
	DB	092H
	DB	0a4H
	DB	0d2H
	DB	025H
	DB	04cH
	DB	04cH
	DB	04cH
	DB	012H
	DB	06fH
	DB	0cdH
	DB	066H
	DB	08bH
	DB	03cH
	DB	072H
	DB	07fH
	DB	07fH
	DB	020H
	DB	07fH
	DB	07fH
	DB	01dH
	DB	065H
	DB	08dH
	DB	0e6H
	DB	055H
	DB	0f1H
	DB	01eH
	DB	01eH
	DB	01eH
	DB	06fH
	DB	016H
	DB	044H
	DB	0e4H
	DB	04fH
	DB	0b8H
	DB	0cfH
	DB	0cfH
	DB	01eH
	DB	060H
	DB	050H
	DB	052H
	DB	030H
	DB	03H
	DB	04H
	DB	06H
	DB	06H
	DB	06H
	DB	06H
	DB	06H
	DB	06H
	DB	06H
	DB	06H
	DB	06H
	DB	06H
	DB	06H
	DB	06H
	DB	06H
	DB	06H
	DB	06H
	DB	06H
	DB	06H
	DB	06H
	DB	06H
	DB	06H
	DB	06H
	DB	06H
	DB	06H
	DB	06H
	DB	06H
	DB	06H
	DB	06H
	DB	06H
	DB	06H
	DB	06H
	DB	06H
	DB	06H
	DB	098H
	DB	00H
	DB	00H
	DB	00H
	DB	00H
	DB	00H
	DB	00H
	DB	04H
	DB	07H
	DB	0acH
	DB	0acH
	DB	0acH
	DB	0acH
	DB	0acH
	DB	0acH
	DB	0acH
	DB	0acH
	DB	0acH
	DB	0acH
	DB	0acH
	DB	0acH
	DB	0acH
	DB	0acH
	DB	0acH
	DB	0acH
	DB	0acH
	DB	0acH
	DB	0acH
	DB	0acH
	DB	0acH
	DB	0acH
	DB	0acH
	DB	0acH
	DB	0acH
	DB	0acH
	DB	0acH
	DB	0acH
	DB	0acH
	DB	0acH
	DB	0acH
	DB	098H
	DB	0e0H
	DB	07H
	DB	029H
	DB	05cH
	DB	04dH
	DB	011H
	DB	0b0H
	DB	078H
	DB	016H
	DB	0f4H
	DB	0a4H
	DB	0c0H
	DB	025H
	DB	025H
	DB	025H
	DB	04cH
	DB	01eH
	DB	054H
	DB	08bH
	DB	072H
	DB	026H
	DB	03bH
	DB	063H
	DB	059H
	DB	053H
	DB	043H
	DB	043H
	DB	043H
	DB	043H
	DB	053H
	DB	03fH
	DB	03bH
	DB	026H
	DB	020H
	DB	020H
	DB	021H
	DB	08eH
	DB	054H
	DB	0f1H
	DB	0f1H
	DB	0b8H
	DB	027H
	DB	0ecH
	DB	038H
	DB	0a1H
	DB	01eH
	DB	01eH
	DB	078H
	DB	045H
	DB	062H
	DB	0daH
	DB	023H
	DB	011H
	DB	03H
	DB	098H
	DB	0acH
	DB	0acH
	DB	0acH
	DB	0acH
	DB	0acH
	DB	0acH
	DB	0acH
	DB	0acH
	DB	0acH
	DB	0acH
	DB	0acH
	DB	0acH
	DB	0acH
	DB	0acH
	DB	0acH
	DB	0acH
	DB	0acH
	DB	0acH
	DB	0acH
	DB	0acH
	DB	0acH
	DB	0acH
	DB	0acH
	DB	0acH
	DB	0acH
	DB	0acH
	DB	0acH
	DB	0acH
	DB	0acH
	DB	0acH
	DB	0acH
	DB	098H
	DB	00H
	DB	00H
	DB	00H
	DB	00H
	DB	00H
	DB	00H
	DB	04H
	DB	0e0H
	DB	04H
	DB	04H
	DB	04H
	DB	04H
	DB	04H
	DB	04H
	DB	04H
	DB	04H
	DB	04H
	DB	04H
	DB	04H
	DB	04H
	DB	04H
	DB	04H
	DB	04H
	DB	04H
	DB	04H
	DB	04H
	DB	04H
	DB	04H
	DB	04H
	DB	04H
	DB	04H
	DB	04H
	DB	04H
	DB	04H
	DB	04H
	DB	04H
	DB	04H
	DB	04H
	DB	03H
	DB	0e0H
	DB	07H
	DB	029H
	DB	05cH
	DB	023H
	DB	0abH
	DB	09dH
	DB	0f2H
	DB	0d1H
	DB	092H
	DB	0c0H
	DB	0a4H
	DB	025H
	DB	025H
	DB	025H
	DB	056H
	DB	0e6H
	DB	03cH
	DB	026H
	DB	03dH
	DB	043H
	DB	034H
	DB	010H
	DB	02H
	DB	02H
	DB	02H
	DB	02H
	DB	015H
	DB	02aH
	DB	02bH
	DB	02bH
	DB	02bH
	DB	015H
	DB	010H
	DB	024H
	DB	059H
	DB	026H
	DB	01H
	DB	020H
	DB	03eH
	DB	06dH
	DB	04bH
	DB	04fH
	DB	04fH
	DB	017H
	DB	04bH
	DB	078H
	DB	045H
	DB	045H
	DB	045H
	DB	045H
	DB	0f9H
	DB	085H
	DB	075H
	DB	089H
	DB	0c3H
	DB	098H
	DB	04H
	DB	04H
	DB	04H
	DB	04H
	DB	04H
	DB	04H
	DB	04H
	DB	04H
	DB	04H
	DB	04H
	DB	04H
	DB	04H
	DB	04H
	DB	04H
	DB	04H
	DB	04H
	DB	04H
	DB	04H
	DB	04H
	DB	04H
	DB	04H
	DB	04H
	DB	04H
	DB	04H
	DB	04H
	DB	04H
	DB	04H
	DB	04H
	DB	04H
	DB	04H
	DB	03H
	DB	00H
	DB	00H
	DB	00H
	DB	00H
	DB	00H
	DB	00H
	DB	04H
	DB	06H
	DB	098H
	DB	04H
	DB	04H
	DB	04H
	DB	04H
	DB	04H
	DB	04H
	DB	04H
	DB	04H
	DB	04H
	DB	04H
	DB	04H
	DB	04H
	DB	04H
	DB	04H
	DB	04H
	DB	04H
	DB	04H
	DB	04H
	DB	04H
	DB	04H
	DB	04H
	DB	04H
	DB	04H
	DB	04H
	DB	04H
	DB	04H
	DB	04H
	DB	04H
	DB	03H
	DB	0e0H
	DB	067H
	DB	029H
	DB	05bH
	DB	068H
	DB	01dH
	DB	0b0H
	DB	0b8H
	DB	027H
	DB	07bH
	DB	0c0H
	DB	0d2H
	DB	025H
	DB	025H
	DB	012H
	DB	0e6H
	DB	072H
	DB	026H
	DB	059H
	DB	019H
	DB	015H
	DB	02aH
	DB	015H
	DB	02H
	DB	02H
	DB	02H
	DB	02H
	DB	02H
	DB	015H
	DB	015H
	DB	02aH
	DB	02aH
	DB	0f3H
	DB	0f3H
	DB	02aH
	DB	015H
	DB	015H
	DB	010H
	DB	024H
	DB	03dH
	DB	01H
	DB	020H
	DB	048H
	DB	06dH
	DB	038H
	DB	055H
	DB	038H
	DB	016H
	DB	025H
	DB	060H
	DB	045H
	DB	01fH
	DB	0ffH
	DB	0cH
	DB	0a7H
	DB	0adH
	DB	011H
	DB	0c3H
	DB	098H
	DB	098H
	DB	04H
	DB	04H
	DB	04H
	DB	04H
	DB	04H
	DB	04H
	DB	04H
	DB	04H
	DB	04H
	DB	04H
	DB	04H
	DB	04H
	DB	04H
	DB	04H
	DB	04H
	DB	04H
	DB	04H
	DB	04H
	DB	04H
	DB	04H
	DB	04H
	DB	04H
	DB	04H
	DB	04H
	DB	04H
	DB	04H
	DB	04H
	DB	04H
	DB	0c3H
	DB	00H
	DB	00H
	DB	00H
	DB	00H
	DB	00H
	DB	00H
	DB	098H
	DB	06H
	DB	098H
	DB	098H
	DB	098H
	DB	098H
	DB	098H
	DB	098H
	DB	098H
	DB	098H
	DB	098H
	DB	098H
	DB	098H
	DB	098H
	DB	098H
	DB	098H
	DB	098H
	DB	098H
	DB	098H
	DB	098H
	DB	098H
	DB	098H
	DB	098H
	DB	098H
	DB	098H
	DB	098H
	DB	098H
	DB	098H
	DB	098H
	DB	098H
	DB	071H
	DB	04H
	DB	06aH
	DB	04H
	DB	030H
	DB	03aH
	DB	03H
	DB	08aH
	DB	0f0H
	DB	0a3H
	DB	07bH
	DB	0d2H
	DB	025H
	DB	025H
	DB	025H
	DB	055H
	DB	021H
	DB	026H
	DB	053H
	DB	07aH
	DB	0f3H
	DB	028H
	DB	028H
	DB	02aH
	DB	015H
	DB	02H
	DB	02H
	DB	02H
	DB	02H
	DB	02H
	DB	02H
	DB	02H
	DB	02H
	DB	02H
	DB	02H
	DB	02H
	DB	02H
	DB	015H
	DB	015H
	DB	015H
	DB	02H
	DB	02H
	DB	034H
	DB	03dH
	DB	01H
	DB	088H
	DB	044H
	DB	054H
	DB	06eH
	DB	0ecH
	DB	0cfH
	DB	045H
	DB	062H
	DB	05H
	DB	05H
	DB	05H
	DB	05H
	DB	01aH
	DB	0fH
	DB	041H
	DB	097H
	DB	03H
	DB	098H
	DB	098H
	DB	098H
	DB	098H
	DB	098H
	DB	098H
	DB	098H
	DB	098H
	DB	098H
	DB	098H
	DB	098H
	DB	098H
	DB	098H
	DB	098H
	DB	098H
	DB	098H
	DB	098H
	DB	098H
	DB	098H
	DB	098H
	DB	098H
	DB	098H
	DB	098H
	DB	098H
	DB	098H
	DB	098H
	DB	098H
	DB	098H
	DB	0c3H
	DB	00H
	DB	00H
	DB	00H
	DB	00H
	DB	00H
	DB	00H
	DB	098H
	DB	0acH
	DB	03H
	DB	03H
	DB	03H
	DB	03H
	DB	03H
	DB	03H
	DB	03H
	DB	03H
	DB	03H
	DB	03H
	DB	03H
	DB	03H
	DB	03H
	DB	03H
	DB	03H
	DB	03H
	DB	03H
	DB	03H
	DB	03H
	DB	03H
	DB	03H
	DB	03H
	DB	03H
	DB	03H
	DB	03H
	DB	03H
	DB	03H
	DB	03H
	DB	03H
	DB	06aH
	DB	0fH
	DB	030H
	DB	068H
	DB	041H
	DB	020H
	DB	066H
	DB	0a3H
	DB	07bH
	DB	025H
	DB	025H
	DB	04cH
	DB	0b9H
	DB	0e6H
	DB	026H
	DB	03dH
	DB	019H
	DB	02aH
	DB	028H
	DB	046H
	DB	028H
	DB	02aH
	DB	02H
	DB	02H
	DB	02H
	DB	02H
	DB	02H
	DB	02H
	DB	02H
	DB	02H
	DB	02H
	DB	02H
	DB	02H
	DB	02H
	DB	02H
	DB	02H
	DB	02H
	DB	02H
	DB	02H
	DB	015H
	DB	02aH
	DB	015H
	DB	02H
	DB	024H
	DB	026H
	DB	020H
	DB	032H
	DB	035H
	DB	06dH
	DB	06dH
	DB	04bH
	DB	037H
	DB	05H
	DB	05H
	DB	0cH
	DB	02dH
	DB	05H
	DB	0bdH
	DB	09aH
	DB	03H
	DB	097H
	DB	03H
	DB	03H
	DB	03H
	DB	03H
	DB	03H
	DB	03H
	DB	03H
	DB	03H
	DB	03H
	DB	03H
	DB	03H
	DB	03H
	DB	03H
	DB	03H
	DB	03H
	DB	03H
	DB	03H
	DB	03H
	DB	03H
	DB	03H
	DB	03H
	DB	03H
	DB	03H
	DB	03H
	DB	03H
	DB	03H
	DB	03H
	DB	03H
	DB	097H
	DB	00H
	DB	00H
	DB	00H
	DB	00H
	DB	00H
	DB	00H
	DB	098H
	DB	04H
	DB	071H
	DB	03H
	DB	03H
	DB	03H
	DB	03H
	DB	03H
	DB	03H
	DB	03H
	DB	03H
	DB	03H
	DB	03H
	DB	03H
	DB	03H
	DB	03H
	DB	03H
	DB	03H
	DB	03H
	DB	03H
	DB	03H
	DB	03H
	DB	03H
	DB	03H
	DB	03H
	DB	03H
	DB	03H
	DB	03H
	DB	0c3H
	DB	097H
	DB	06aH
	DB	07H
	DB	011H
	DB	03aH
	DB	06H
	DB	097H
	DB	047H
	DB	0a3H
	DB	07bH
	DB	025H
	DB	025H
	DB	04cH
	DB	012H
	DB	08dH
	DB	026H
	DB	043H
	DB	015H
	DB	028H
	DB	046H
	DB	046H
	DB	02bH
	DB	02H
	DB	02H
	DB	02H
	DB	02H
	DB	02H
	DB	02H
	DB	02H
	DB	02H
	DB	02H
	DB	02H
	DB	02H
	DB	02H
	DB	02H
	DB	02H
	DB	02H
	DB	02H
	DB	02H
	DB	02H
	DB	02H
	DB	02H
	DB	015H
	DB	02aH
	DB	0f3H
	DB	015H
	DB	010H
	DB	03dH
	DB	020H
	DB	047H
	DB	040H
	DB	033H
	DB	035H
	DB	062H
	DB	05H
	DB	02dH
	DB	0a9H
	DB	02fH
	DB	02dH
	DB	02dH
	DB	052H
	DB	011H
	DB	097H
	DB	097H
	DB	071H
	DB	071H
	DB	03H
	DB	03H
	DB	03H
	DB	03H
	DB	03H
	DB	03H
	DB	03H
	DB	03H
	DB	03H
	DB	03H
	DB	03H
	DB	03H
	DB	03H
	DB	03H
	DB	03H
	DB	03H
	DB	03H
	DB	03H
	DB	03H
	DB	03H
	DB	03H
	DB	03H
	DB	03H
	DB	03H
	DB	03H
	DB	097H
	DB	00H
	DB	00H
	DB	00H
	DB	00H
	DB	00H
	DB	00H
	DB	03H
	DB	04H
	DB	097H
	DB	097H
	DB	097H
	DB	097H
	DB	097H
	DB	097H
	DB	097H
	DB	097H
	DB	097H
	DB	097H
	DB	097H
	DB	097H
	DB	097H
	DB	097H
	DB	097H
	DB	097H
	DB	097H
	DB	097H
	DB	097H
	DB	097H
	DB	097H
	DB	097H
	DB	097H
	DB	097H
	DB	097H
	DB	097H
	DB	01H
	DB	06H
	DB	06aH
	DB	089H
	DB	05bH
	DB	07H
	DB	097H
	DB	03bH
	DB	04bH
	DB	07bH
	DB	04cH
	DB	04cH
	DB	04cH
	DB	06fH
	DB	03eH
	DB	026H
	DB	034H
	DB	0f3H
	DB	046H
	DB	0c1H
	DB	028H
	DB	015H
	DB	02H
	DB	02H
	DB	02H
	DB	02H
	DB	02H
	DB	02H
	DB	02H
	DB	02H
	DB	02H
	DB	02H
	DB	02H
	DB	02H
	DB	02H
	DB	02H
	DB	02H
	DB	02H
	DB	02H
	DB	02H
	DB	02H
	DB	02H
	DB	02H
	DB	02H
	DB	02H
	DB	02aH
	DB	028H
	DB	015H
	DB	02H
	DB	053H
	DB	01H
	DB	042H
	DB	040H
	DB	035H
	DB	06cH
	DB	01fH
	DB	05H
	DB	02dH
	DB	02dH
	DB	02fH
	DB	02dH
	DB	037H
	DB	022H
	DB	041H
	DB	01H
	DB	097H
	DB	097H
	DB	097H
	DB	097H
	DB	097H
	DB	097H
	DB	097H
	DB	097H
	DB	097H
	DB	097H
	DB	097H
	DB	097H
	DB	097H
	DB	097H
	DB	097H
	DB	097H
	DB	097H
	DB	097H
	DB	097H
	DB	097H
	DB	097H
	DB	097H
	DB	097H
	DB	097H
	DB	097H
	DB	097H
	DB	097H
	DB	097H
	DB	00H
	DB	00H
	DB	00H
	DB	00H
	DB	00H
	DB	00H
	DB	03H
	DB	098H
	DB	01H
	DB	097H
	DB	097H
	DB	097H
	DB	097H
	DB	097H
	DB	097H
	DB	097H
	DB	097H
	DB	097H
	DB	097H
	DB	097H
	DB	097H
	DB	097H
	DB	097H
	DB	097H
	DB	097H
	DB	097H
	DB	097H
	DB	097H
	DB	097H
	DB	097H
	DB	097H
	DB	097H
	DB	097H
	DB	01H
	DB	01H
	DB	06aH
	DB	05bH
	DB	0fH
	DB	05bH
	DB	071H
	DB	020H
	DB	044H
	DB	07bH
	DB	04cH
	DB	01eH
	DB	012H
	DB	056H
	DB	065H
	DB	03bH
	DB	019H
	DB	028H
	DB	0c1H
	DB	046H
	DB	02bH
	DB	02H
	DB	02H
	DB	02H
	DB	02H
	DB	02H
	DB	02H
	DB	02H
	DB	02H
	DB	02H
	DB	02H
	DB	02H
	DB	02H
	DB	02H
	DB	02H
	DB	02H
	DB	02H
	DB	02H
	DB	02H
	DB	02H
	DB	02H
	DB	02H
	DB	02H
	DB	02H
	DB	02H
	DB	02H
	DB	02H
	DB	015H
	DB	028H
	DB	0f3H
	DB	02H
	DB	043H
	DB	020H
	DB	042H
	DB	040H
	DB	040H
	DB	06dH
	DB	0a9H
	DB	05H
	DB	02dH
	DB	02dH
	DB	02dH
	DB	05H
	DB	07dH
	DB	089H
	DB	03H
	DB	01H
	DB	097H
	DB	097H
	DB	097H
	DB	097H
	DB	097H
	DB	097H
	DB	097H
	DB	097H
	DB	097H
	DB	097H
	DB	097H
	DB	097H
	DB	097H
	DB	097H
	DB	097H
	DB	097H
	DB	097H
	DB	097H
	DB	097H
	DB	097H
	DB	097H
	DB	097H
	DB	097H
	DB	097H
	DB	097H
	DB	097H
	DB	01H
	DB	00H
	DB	00H
	DB	00H
	DB	00H
	DB	00H
	DB	00H
	DB	03H
	DB	03H
	DB	01H
	DB	01H
	DB	01H
	DB	01H
	DB	01H
	DB	01H
	DB	01H
	DB	01H
	DB	01H
	DB	01H
	DB	01H
	DB	01H
	DB	01H
	DB	01H
	DB	01H
	DB	01H
	DB	01H
	DB	01H
	DB	01H
	DB	01H
	DB	01H
	DB	01H
	DB	01H
	DB	01H
	DB	01H
	DB	00H
	DB	074H
	DB	08H
	DB	0fH
	DB	05bH
	DB	04H
	DB	01H
	DB	047H
	DB	0f4H
	DB	0f5H
	DB	04cH
	DB	01eH
	DB	012H
	DB	08bH
	DB	03bH
	DB	019H
	DB	028H
	DB	0c1H
	DB	046H
	DB	02aH
	DB	02H
	DB	02H
	DB	02H
	DB	02H
	DB	02H
	DB	02H
	DB	02H
	DB	02H
	DB	02H
	DB	02H
	DB	02H
	DB	02H
	DB	02H
	DB	02H
	DB	02H
	DB	02H
	DB	02H
	DB	02H
	DB	02H
	DB	02H
	DB	02H
	DB	02H
	DB	02H
	DB	02H
	DB	02H
	DB	02H
	DB	02H
	DB	02H
	DB	02H
	DB	028H
	DB	02bH
	DB	02H
	DB	043H
	DB	020H
	DB	047H
	DB	040H
	DB	040H
	DB	0a1H
	DB	05H
	DB	02dH
	DB	02dH
	DB	05H
	DB	05H
	DB	05H
	DB	052H
	DB	011H
	DB	097H
	DB	01H
	DB	01H
	DB	01H
	DB	01H
	DB	01H
	DB	01H
	DB	01H
	DB	01H
	DB	01H
	DB	01H
	DB	01H
	DB	01H
	DB	01H
	DB	01H
	DB	01H
	DB	01H
	DB	01H
	DB	01H
	DB	01H
	DB	01H
	DB	01H
	DB	01H
	DB	01H
	DB	01H
	DB	01H
	DB	01H
	DB	01H
	DB	00H
	DB	00H
	DB	00H
	DB	00H
	DB	00H
	DB	00H
	DB	03H
	DB	03H
	DB	01H
	DB	01H
	DB	01H
	DB	01H
	DB	01H
	DB	01H
	DB	01H
	DB	01H
	DB	01H
	DB	01H
	DB	01H
	DB	01H
	DB	01H
	DB	01H
	DB	01H
	DB	01H
	DB	01H
	DB	01H
	DB	01H
	DB	01H
	DB	01H
	DB	01H
	DB	01H
	DB	01H
	DB	00H
	DB	03H
	DB	09H
	DB	05bH
	DB	06H
	DB	0fH
	DB	07fH
	DB	021H
	DB	017H
	DB	092H
	DB	012H
	DB	012H
	DB	012H
	DB	066H
	DB	026H
	DB	034H
	DB	028H
	DB	0c1H
	DB	028H
	DB	015H
	DB	02H
	DB	02H
	DB	02H
	DB	02H
	DB	02H
	DB	02H
	DB	02H
	DB	02H
	DB	02H
	DB	02H
	DB	02H
	DB	02H
	DB	02H
	DB	02H
	DB	02H
	DB	02H
	DB	02H
	DB	02H
	DB	02H
	DB	02H
	DB	02H
	DB	02H
	DB	02H
	DB	02H
	DB	02H
	DB	02H
	DB	02H
	DB	02H
	DB	02H
	DB	02H
	DB	02H
	DB	028H
	DB	02bH
	DB	02H
	DB	043H
	DB	020H
	DB	032H
	DB	040H
	DB	040H
	DB	01fH
	DB	05H
	DB	05H
	DB	05H
	DB	05H
	DB	05H
	DB	0bH
	DB	0fH
	DB	01dH
	DB	00H
	DB	01H
	DB	01H
	DB	01H
	DB	01H
	DB	01H
	DB	01H
	DB	01H
	DB	01H
	DB	01H
	DB	01H
	DB	01H
	DB	01H
	DB	01H
	DB	01H
	DB	01H
	DB	01H
	DB	01H
	DB	01H
	DB	01H
	DB	01H
	DB	01H
	DB	01H
	DB	01H
	DB	01H
	DB	01H
	DB	01H
	DB	00H
	DB	00H
	DB	00H
	DB	00H
	DB	00H
	DB	00H
	DB	03H
	DB	03H
	DB	00H
	DB	01H
	DB	01H
	DB	01H
	DB	01H
	DB	01H
	DB	01H
	DB	01H
	DB	01H
	DB	01H
	DB	01H
	DB	01H
	DB	01H
	DB	01H
	DB	01H
	DB	01H
	DB	01H
	DB	01H
	DB	01H
	DB	01H
	DB	01H
	DB	01H
	DB	01H
	DB	01H
	DB	00H
	DB	074H
	DB	067H
	DB	0fH
	DB	0fH
	DB	011H
	DB	03cH
	DB	033H
	DB	0b9H
	DB	012H
	DB	01eH
	DB	012H
	DB	054H
	DB	026H
	DB	024H
	DB	0f3H
	DB	0c1H
	DB	046H
	DB	015H
	DB	02H
	DB	02H
	DB	02H
	DB	02H
	DB	02H
	DB	02H
	DB	02H
	DB	02H
	DB	02H
	DB	02H
	DB	02H
	DB	02H
	DB	02H
	DB	02H
	DB	02H
	DB	02H
	DB	02H
	DB	02H
	DB	02H
	DB	02H
	DB	02H
	DB	02H
	DB	02H
	DB	02H
	DB	02H
	DB	02H
	DB	02H
	DB	02H
	DB	02H
	DB	02H
	DB	02H
	DB	02H
	DB	02H
	DB	028H
	DB	02bH
	DB	015H
	DB	03fH
	DB	072H
	DB	05fH
	DB	040H
	DB	054H
	DB	0ffH
	DB	05H
	DB	05H
	DB	05H
	DB	05H
	DB	05H
	DB	06aH
	DB	011H
	DB	097H
	DB	00H
	DB	01H
	DB	01H
	DB	01H
	DB	01H
	DB	01H
	DB	01H
	DB	01H
	DB	01H
	DB	01H
	DB	01H
	DB	01H
	DB	01H
	DB	01H
	DB	01H
	DB	01H
	DB	01H
	DB	01H
	DB	01H
	DB	01H
	DB	01H
	DB	01H
	DB	01H
	DB	01H
	DB	01H
	DB	00H
	DB	00H
	DB	00H
	DB	00H
	DB	00H
	DB	00H
	DB	00H
	DB	03H
	DB	03H
	DB	00H
	DB	01H
	DB	01H
	DB	01H
	DB	01H
	DB	01H
	DB	01H
	DB	01H
	DB	01H
	DB	01H
	DB	01H
	DB	01H
	DB	01H
	DB	01H
	DB	01H
	DB	01H
	DB	01H
	DB	01H
	DB	01H
	DB	01H
	DB	01H
	DB	01H
	DB	01H
	DB	00H
	DB	03H
	DB	06aH
	DB	0fH
	DB	089H
	DB	09aH
	DB	041H
	DB	048H
	DB	027H
	DB	04cH
	DB	06fH
	DB	01eH
	DB	016H
	DB	088H
	DB	059H
	DB	015H
	DB	046H
	DB	046H
	DB	015H
	DB	02H
	DB	02H
	DB	02H
	DB	02H
	DB	02H
	DB	02H
	DB	02H
	DB	02H
	DB	02H
	DB	02H
	DB	02H
	DB	02H
	DB	02H
	DB	02H
	DB	02H
	DB	02H
	DB	02H
	DB	02H
	DB	02H
	DB	02H
	DB	02H
	DB	02H
	DB	02H
	DB	02H
	DB	02H
	DB	02H
	DB	02H
	DB	02H
	DB	02H
	DB	02H
	DB	02H
	DB	02H
	DB	02H
	DB	02H
	DB	015H
	DB	02bH
	DB	015H
	DB	010H
	DB	03bH
	DB	042H
	DB	040H
	DB	040H
	DB	0dbH
	DB	05H
	DB	05H
	DB	05H
	DB	05H
	DB	05H
	DB	01aH
	DB	08aH
	DB	01dH
	DB	00H
	DB	00H
	DB	01H
	DB	01H
	DB	01H
	DB	01H
	DB	01H
	DB	01H
	DB	01H
	DB	01H
	DB	01H
	DB	01H
	DB	01H
	DB	01H
	DB	01H
	DB	01H
	DB	01H
	DB	01H
	DB	01H
	DB	01H
	DB	01H
	DB	01H
	DB	01H
	DB	01H
	DB	01H
	DB	00H
	DB	00H
	DB	00H
	DB	00H
	DB	00H
	DB	00H
	DB	00H
	DB	03H
	DB	03H
	DB	00H
	DB	01H
	DB	01H
	DB	01H
	DB	01H
	DB	01H
	DB	01H
	DB	01H
	DB	01H
	DB	01H
	DB	01H
	DB	01H
	DB	01H
	DB	01H
	DB	01H
	DB	01H
	DB	01H
	DB	01H
	DB	01H
	DB	01H
	DB	01H
	DB	01H
	DB	01H
	DB	00H
	DB	0dfH
	DB	08H
	DB	0fH
	DB	09aH
	DB	0abH
	DB	0abH
	DB	06dH
	DB	0b9H
	DB	06fH
	DB	0cfH
	DB	0f4H
	DB	08dH
	DB	03bH
	DB	010H
	DB	028H
	DB	046H
	DB	02aH
	DB	02H
	DB	02H
	DB	02H
	DB	02H
	DB	02H
	DB	02H
	DB	02H
	DB	02H
	DB	02H
	DB	02H
	DB	02H
	DB	02H
	DB	02H
	DB	02H
	DB	02H
	DB	02H
	DB	02H
	DB	02H
	DB	02H
	DB	02H
	DB	02H
	DB	02H
	DB	02H
	DB	02H
	DB	02H
	DB	02H
	DB	02H
	DB	02H
	DB	02H
	DB	02H
	DB	02H
	DB	02H
	DB	02H
	DB	02H
	DB	02H
	DB	02H
	DB	015H
	DB	02aH
	DB	02H
	DB	034H
	DB	026H
	DB	032H
	DB	040H
	DB	054H
	DB	0ffH
	DB	05H
	DB	05H
	DB	05H
	DB	05H
	DB	0ffH
	DB	067H
	DB	011H
	DB	01H
	DB	00H
	DB	01H
	DB	01H
	DB	01H
	DB	01H
	DB	01H
	DB	01H
	DB	01H
	DB	01H
	DB	01H
	DB	01H
	DB	01H
	DB	01H
	DB	01H
	DB	01H
	DB	01H
	DB	01H
	DB	01H
	DB	01H
	DB	01H
	DB	01H
	DB	01H
	DB	01H
	DB	01H
	DB	00H
	DB	00H
	DB	00H
	DB	00H
	DB	00H
	DB	00H
	DB	00H
	DB	03H
	DB	03H
	DB	00H
	DB	01H
	DB	01H
	DB	01H
	DB	01H
	DB	01H
	DB	01H
	DB	01H
	DB	01H
	DB	01H
	DB	01H
	DB	01H
	DB	01H
	DB	01H
	DB	01H
	DB	01H
	DB	01H
	DB	01H
	DB	01H
	DB	01H
	DB	01H
	DB	01H
	DB	00H
	DB	00H
	DB	06aH
	DB	067H
	DB	0fH
	DB	09aH
	DB	03cH
	DB	048H
	DB	027H
	DB	012H
	DB	06fH
	DB	01eH
	DB	055H
	DB	03bH
	DB	024H
	DB	0f3H
	DB	046H
	DB	0f3H
	DB	02H
	DB	02H
	DB	02H
	DB	02H
	DB	02H
	DB	02H
	DB	02H
	DB	02H
	DB	02H
	DB	02H
	DB	02H
	DB	02H
	DB	02H
	DB	02H
	DB	02H
	DB	02H
	DB	02H
	DB	02H
	DB	02H
	DB	02H
	DB	02H
	DB	02H
	DB	02H
	DB	02H
	DB	02H
	DB	02H
	DB	02H
	DB	02H
	DB	02H
	DB	02H
	DB	02H
	DB	02H
	DB	02H
	DB	02H
	DB	02H
	DB	02H
	DB	02H
	DB	02H
	DB	015H
	DB	015H
	DB	02H
	DB	03fH
	DB	088H
	DB	040H
	DB	09eH
	DB	01fH
	DB	05H
	DB	05H
	DB	05H
	DB	05H
	DB	05H
	DB	050H
	DB	089H
	DB	03H
	DB	00H
	DB	01H
	DB	01H
	DB	01H
	DB	01H
	DB	01H
	DB	01H
	DB	01H
	DB	01H
	DB	01H
	DB	01H
	DB	01H
	DB	01H
	DB	01H
	DB	01H
	DB	01H
	DB	01H
	DB	01H
	DB	01H
	DB	01H
	DB	01H
	DB	01H
	DB	01H
	DB	01H
	DB	00H
	DB	00H
	DB	00H
	DB	00H
	DB	00H
	DB	00H
	DB	00H
	DB	03H
	DB	03H
	DB	00H
	DB	01H
	DB	01H
	DB	01H
	DB	01H
	DB	01H
	DB	01H
	DB	01H
	DB	01H
	DB	01H
	DB	01H
	DB	01H
	DB	01H
	DB	01H
	DB	01H
	DB	01H
	DB	01H
	DB	01H
	DB	01H
	DB	01H
	DB	01H
	DB	01H
	DB	00H
	DB	0dfH
	DB	06aH
	DB	022H
	DB	09aH
	DB	073H
	DB	03cH
	DB	033H
	DB	0f4H
	DB	016H
	DB	016H
	DB	06fH
	DB	08bH
	DB	063H
	DB	015H
	DB	028H
	DB	028H
	DB	02H
	DB	02H
	DB	02H
	DB	02H
	DB	02H
	DB	02H
	DB	02H
	DB	02H
	DB	02H
	DB	02H
	DB	02H
	DB	02H
	DB	02H
	DB	02H
	DB	02H
	DB	02H
	DB	02H
	DB	02H
	DB	02H
	DB	02H
	DB	02H
	DB	02H
	DB	02H
	DB	02H
	DB	02H
	DB	02H
	DB	02H
	DB	02H
	DB	02H
	DB	02H
	DB	02H
	DB	02H
	DB	02H
	DB	02H
	DB	02H
	DB	02H
	DB	02H
	DB	02H
	DB	02H
	DB	02H
	DB	015H
	DB	02H
	DB	019H
	DB	026H
	DB	032H
	DB	040H
	DB	0beH
	DB	05H
	DB	05H
	DB	05H
	DB	05H
	DB	05H
	DB	037H
	DB	0adH
	DB	029H
	DB	01H
	DB	00H
	DB	01H
	DB	01H
	DB	01H
	DB	01H
	DB	01H
	DB	01H
	DB	01H
	DB	01H
	DB	01H
	DB	01H
	DB	01H
	DB	01H
	DB	01H
	DB	01H
	DB	01H
	DB	01H
	DB	01H
	DB	01H
	DB	01H
	DB	01H
	DB	01H
	DB	01H
	DB	00H
	DB	00H
	DB	00H
	DB	00H
	DB	00H
	DB	00H
	DB	00H
	DB	03H
	DB	03H
	DB	00H
	DB	01H
	DB	01H
	DB	01H
	DB	01H
	DB	01H
	DB	01H
	DB	01H
	DB	01H
	DB	01H
	DB	01H
	DB	01H
	DB	01H
	DB	01H
	DB	01H
	DB	01H
	DB	01H
	DB	01H
	DB	01H
	DB	01H
	DB	01H
	DB	01H
	DB	00H
	DB	06H
	DB	06aH
	DB	05bH
	DB	02eH
	DB	0abH
	DB	0e1H
	DB	017H
	DB	056H
	DB	016H
	DB	016H
	DB	04fH
	DB	072H
	DB	024H
	DB	02aH
	DB	046H
	DB	015H
	DB	02H
	DB	02H
	DB	02H
	DB	02H
	DB	02H
	DB	02H
	DB	02H
	DB	02H
	DB	02H
	DB	02H
	DB	02H
	DB	02H
	DB	02H
	DB	02H
	DB	02H
	DB	02H
	DB	02H
	DB	02H
	DB	02H
	DB	02H
	DB	02H
	DB	02H
	DB	02H
	DB	02H
	DB	02H
	DB	02H
	DB	02H
	DB	02H
	DB	02H
	DB	02H
	DB	02H
	DB	02H
	DB	02H
	DB	02H
	DB	02H
	DB	02H
	DB	02H
	DB	02H
	DB	02H
	DB	02H
	DB	02H
	DB	02H
	DB	02H
	DB	059H
	DB	042H
	DB	040H
	DB	054H
	DB	05H
	DB	05H
	DB	05H
	DB	05H
	DB	05H
	DB	05H
	DB	052H
	DB	011H
	DB	097H
	DB	00H
	DB	01H
	DB	01H
	DB	01H
	DB	01H
	DB	01H
	DB	01H
	DB	01H
	DB	01H
	DB	01H
	DB	01H
	DB	01H
	DB	01H
	DB	01H
	DB	01H
	DB	01H
	DB	01H
	DB	01H
	DB	01H
	DB	01H
	DB	01H
	DB	01H
	DB	01H
	DB	00H
	DB	00H
	DB	00H
	DB	00H
	DB	00H
	DB	00H
	DB	00H
	DB	03H
	DB	03H
	DB	00H
	DB	01H
	DB	01H
	DB	01H
	DB	01H
	DB	01H
	DB	01H
	DB	01H
	DB	01H
	DB	01H
	DB	01H
	DB	01H
	DB	01H
	DB	01H
	DB	01H
	DB	01H
	DB	01H
	DB	01H
	DB	01H
	DB	01H
	DB	01H
	DB	00H
	DB	01H
	DB	06aH
	DB	03aH
	DB	08aH
	DB	02eH
	DB	03cH
	DB	05aH
	DB	0a3H
	DB	016H
	DB	04bH
	DB	056H
	DB	066H
	DB	063H
	DB	010H
	DB	028H
	DB	02bH
	DB	02H
	DB	02H
	DB	02H
	DB	02H
	DB	02H
	DB	02H
	DB	02H
	DB	018H
	DB	018H
	DB	010H
	DB	02H
	DB	02H
	DB	02H
	DB	010H
	DB	018H
	DB	018H
	DB	02H
	DB	02H
	DB	02H
	DB	07aH
	DB	018H
	DB	07aH
	DB	010H
	DB	0dH
	DB	018H
	DB	018H
	DB	018H
	DB	018H
	DB	018H
	DB	0dH
	DB	07aH
	DB	02H
	DB	02H
	DB	02H
	DB	07aH
	DB	018H
	DB	018H
	DB	010H
	DB	02H
	DB	02H
	DB	02H
	DB	02H
	DB	02H
	DB	02H
	DB	034H
	DB	03bH
	DB	05fH
	DB	06cH
	DB	037H
	DB	05H
	DB	05H
	DB	02dH
	DB	02dH
	DB	05H
	DB	07dH
	DB	011H
	DB	07fH
	DB	00H
	DB	01H
	DB	01H
	DB	01H
	DB	01H
	DB	01H
	DB	01H
	DB	01H
	DB	01H
	DB	01H
	DB	01H
	DB	01H
	DB	01H
	DB	01H
	DB	01H
	DB	01H
	DB	01H
	DB	01H
	DB	01H
	DB	01H
	DB	01H
	DB	01H
	DB	01H
	DB	00H
	DB	00H
	DB	00H
	DB	00H
	DB	00H
	DB	00H
	DB	00H
	DB	03H
	DB	03H
	DB	00H
	DB	01H
	DB	01H
	DB	01H
	DB	01H
	DB	01H
	DB	01H
	DB	01H
	DB	01H
	DB	01H
	DB	01H
	DB	01H
	DB	01H
	DB	01H
	DB	01H
	DB	01H
	DB	01H
	DB	01H
	DB	01H
	DB	01H
	DB	01H
	DB	00H
	DB	01H
	DB	023H
	DB	022H
	DB	02eH
	DB	073H
	DB	03cH
	DB	033H
	DB	0a3H
	DB	04bH
	DB	016H
	DB	016H
	DB	021H
	DB	053H
	DB	015H
	DB	02bH
	DB	015H
	DB	02H
	DB	02H
	DB	02H
	DB	02H
	DB	02H
	DB	02H
	DB	019H
	DB	0bH
	DB	013H
	DB	0dH
	DB	02H
	DB	02H
	DB	02H
	DB	0dH
	DB	086H
	DB	0dbH
	DB	010H
	DB	02H
	DB	02H
	DB	04bH
	DB	013H
	DB	01eH
	DB	079H
	DB	086H
	DB	013H
	DB	0ffH
	DB	0ffH
	DB	0ffH
	DB	013H
	DB	013H
	DB	01bH
	DB	02H
	DB	019H
	DB	04cH
	DB	0cH
	DB	013H
	DB	013H
	DB	0feH
	DB	012H
	DB	010H
	DB	02H
	DB	02H
	DB	02H
	DB	02H
	DB	02H
	DB	03dH
	DB	082H
	DB	040H
	DB	0dbH
	DB	05H
	DB	05H
	DB	037H
	DB	0d5H
	DB	05H
	DB	0feH
	DB	0fH
	DB	01dH
	DB	00H
	DB	01H
	DB	01H
	DB	01H
	DB	01H
	DB	01H
	DB	01H
	DB	01H
	DB	01H
	DB	01H
	DB	01H
	DB	01H
	DB	01H
	DB	01H
	DB	01H
	DB	01H
	DB	01H
	DB	01H
	DB	01H
	DB	01H
	DB	01H
	DB	01H
	DB	01H
	DB	00H
	DB	00H
	DB	00H
	DB	00H
	DB	00H
	DB	00H
	DB	00H
	DB	03H
	DB	03H
	DB	00H
	DB	01H
	DB	01H
	DB	01H
	DB	01H
	DB	01H
	DB	01H
	DB	01H
	DB	01H
	DB	01H
	DB	01H
	DB	01H
	DB	01H
	DB	01H
	DB	01H
	DB	01H
	DB	01H
	DB	01H
	DB	01H
	DB	01H
	DB	01H
	DB	00H
	DB	030H
	DB	023H
	DB	0adH
	DB	02eH
	DB	0abH
	DB	021H
	DB	017H
	DB	027H
	DB	017H
	DB	04bH
	DB	054H
	DB	026H
	DB	034H
	DB	015H
	DB	015H
	DB	02H
	DB	02H
	DB	02H
	DB	02H
	DB	02H
	DB	02H
	DB	02H
	DB	0dH
	DB	013H
	DB	05H
	DB	0d2H
	DB	010H
	DB	02H
	DB	02H
	DB	018H
	DB	013H
	DB	0fbH
	DB	010H
	DB	02H
	DB	02H
	DB	0dH
	DB	05H
	DB	0b9H
	DB	019H
	DB	01eH
	DB	056H
	DB	062H
	DB	05H
	DB	0f9H
	DB	056H
	DB	045H
	DB	0dH
	DB	010H
	DB	0dbH
	DB	05H
	DB	01fH
	DB	027H
	DB	056H
	DB	01fH
	DB	05H
	DB	062H
	DB	010H
	DB	02H
	DB	02H
	DB	02H
	DB	02H
	DB	043H
	DB	021H
	DB	05fH
	DB	0a1H
	DB	05H
	DB	05H
	DB	051H
	DB	0a0H
	DB	0c2H
	DB	05H
	DB	068H
	DB	04H
	DB	01H
	DB	00H
	DB	01H
	DB	01H
	DB	01H
	DB	01H
	DB	01H
	DB	01H
	DB	01H
	DB	01H
	DB	01H
	DB	01H
	DB	01H
	DB	01H
	DB	01H
	DB	01H
	DB	01H
	DB	01H
	DB	01H
	DB	01H
	DB	01H
	DB	01H
	DB	01H
	DB	00H
	DB	00H
	DB	00H
	DB	00H
	DB	00H
	DB	00H
	DB	00H
	DB	03H
	DB	03H
	DB	00H
	DB	01H
	DB	01H
	DB	01H
	DB	01H
	DB	01H
	DB	01H
	DB	01H
	DB	01H
	DB	01H
	DB	01H
	DB	01H
	DB	01H
	DB	01H
	DB	01H
	DB	01H
	DB	01H
	DB	01H
	DB	01H
	DB	01H
	DB	01H
	DB	00H
	DB	0fH
	DB	03aH
	DB	02eH
	DB	0c4H
	DB	07fH
	DB	03cH
	DB	0d1H
	DB	0d1H
	DB	017H
	DB	027H
	DB	066H
	DB	063H
	DB	010H
	DB	02H
	DB	02H
	DB	02H
	DB	02H
	DB	02H
	DB	02H
	DB	02H
	DB	02H
	DB	010H
	DB	0fbH
	DB	037H
	DB	01fH
	DB	013H
	DB	018H
	DB	02H
	DB	02H
	DB	018H
	DB	013H
	DB	0fbH
	DB	010H
	DB	02H
	DB	02H
	DB	0dH
	DB	05H
	DB	012H
	DB	02H
	DB	02H
	DB	02H
	DB	0dH
	DB	05H
	DB	012H
	DB	02H
	DB	02H
	DB	02H
	DB	01bH
	DB	05H
	DB	039H
	DB	019H
	DB	02H
	DB	02H
	DB	019H
	DB	0fbH
	DB	05H
	DB	0dH
	DB	02H
	DB	02H
	DB	02H
	DB	02H
	DB	034H
	DB	088H
	DB	05fH
	DB	0b5H
	DB	05H
	DB	05H
	DB	01fH
	DB	0a0H
	DB	0f9H
	DB	05H
	DB	052H
	DB	089H
	DB	097H
	DB	00H
	DB	01H
	DB	01H
	DB	01H
	DB	01H
	DB	01H
	DB	01H
	DB	01H
	DB	01H
	DB	01H
	DB	01H
	DB	01H
	DB	01H
	DB	01H
	DB	01H
	DB	01H
	DB	01H
	DB	01H
	DB	01H
	DB	01H
	DB	01H
	DB	01H
	DB	00H
	DB	00H
	DB	00H
	DB	00H
	DB	00H
	DB	00H
	DB	00H
	DB	03H
	DB	03H
	DB	00H
	DB	01H
	DB	01H
	DB	01H
	DB	01H
	DB	01H
	DB	01H
	DB	01H
	DB	01H
	DB	01H
	DB	01H
	DB	01H
	DB	01H
	DB	01H
	DB	01H
	DB	01H
	DB	01H
	DB	01H
	DB	01H
	DB	01H
	DB	01H
	DB	00H
	DB	0fH
	DB	04dH
	DB	02eH
	DB	081H
	DB	097H
	DB	088H
	DB	027H
	DB	017H
	DB	017H
	DB	016H
	DB	065H
	DB	03fH
	DB	02H
	DB	02H
	DB	02H
	DB	02H
	DB	02H
	DB	02H
	DB	02H
	DB	02H
	DB	02H
	DB	0dH
	DB	013H
	DB	017H
	DB	035H
	DB	05H
	DB	039H
	DB	010H
	DB	02H
	DB	018H
	DB	013H
	DB	0fbH
	DB	010H
	DB	02H
	DB	02H
	DB	0dH
	DB	05H
	DB	012H
	DB	02H
	DB	02H
	DB	02H
	DB	0dH
	DB	05H
	DB	012H
	DB	02H
	DB	02H
	DB	02H
	DB	012H
	DB	05H
	DB	0dH
	DB	02H
	DB	02H
	DB	02H
	DB	02H
	DB	01bH
	DB	05H
	DB	027H
	DB	02H
	DB	02H
	DB	02H
	DB	02H
	DB	010H
	DB	03dH
	DB	032H
	DB	06dH
	DB	0a9H
	DB	0ffH
	DB	070H
	DB	0a0H
	DB	057H
	DB	05H
	DB	050H
	DB	089H
	DB	03H
	DB	00H
	DB	01H
	DB	01H
	DB	01H
	DB	01H
	DB	01H
	DB	01H
	DB	01H
	DB	01H
	DB	01H
	DB	01H
	DB	01H
	DB	01H
	DB	01H
	DB	01H
	DB	01H
	DB	01H
	DB	01H
	DB	01H
	DB	01H
	DB	01H
	DB	01H
	DB	00H
	DB	00H
	DB	00H
	DB	00H
	DB	00H
	DB	00H
	DB	00H
	DB	03H
	DB	03H
	DB	00H
	DB	01H
	DB	01H
	DB	01H
	DB	01H
	DB	01H
	DB	01H
	DB	01H
	DB	01H
	DB	01H
	DB	01H
	DB	01H
	DB	01H
	DB	01H
	DB	01H
	DB	01H
	DB	01H
	DB	01H
	DB	01H
	DB	01H
	DB	00H
	DB	097H
	DB	068H
	DB	023H
	DB	02eH
	DB	011H
	DB	01H
	DB	021H
	DB	0d1H
	DB	017H
	DB	017H
	DB	055H
	DB	03cH
	DB	043H
	DB	02H
	DB	02H
	DB	02H
	DB	02H
	DB	02H
	DB	02H
	DB	02H
	DB	02H
	DB	010H
	DB	039H
	DB	05H
	DB	01fH
	DB	01fH
	DB	05H
	DB	013H
	DB	079H
	DB	02H
	DB	018H
	DB	013H
	DB	031H
	DB	010H
	DB	02H
	DB	02H
	DB	0dH
	DB	05H
	DB	012H
	DB	02H
	DB	02H
	DB	02H
	DB	0dH
	DB	05H
	DB	012H
	DB	02H
	DB	02H
	DB	02H
	DB	0d1H
	DB	05H
	DB	012H
	DB	010H
	DB	02H
	DB	02H
	DB	010H
	DB	0d2H
	DB	05H
	DB	01bH
	DB	02H
	DB	02H
	DB	02H
	DB	02H
	DB	02H
	DB	059H
	DB	082H
	DB	06cH
	DB	060H
	DB	0beH
	DB	0d4H
	DB	091H
	DB	090H
	DB	02fH
	DB	07dH
	DB	06H
	DB	098H
	DB	00H
	DB	01H
	DB	01H
	DB	01H
	DB	01H
	DB	01H
	DB	01H
	DB	01H
	DB	01H
	DB	01H
	DB	01H
	DB	01H
	DB	01H
	DB	01H
	DB	01H
	DB	01H
	DB	01H
	DB	01H
	DB	01H
	DB	01H
	DB	01H
	DB	01H
	DB	00H
	DB	00H
	DB	00H
	DB	00H
	DB	00H
	DB	00H
	DB	00H
	DB	03H
	DB	03H
	DB	00H
	DB	01H
	DB	01H
	DB	01H
	DB	01H
	DB	01H
	DB	01H
	DB	01H
	DB	01H
	DB	01H
	DB	01H
	DB	01H
	DB	01H
	DB	01H
	DB	01H
	DB	01H
	DB	01H
	DB	01H
	DB	01H
	DB	01H
	DB	00H
	DB	097H
	DB	023H
	DB	075H
	DB	081H
	DB	041H
	DB	01H
	DB	03eH
	DB	0d1H
	DB	06eH
	DB	017H
	DB	054H
	DB	026H
	DB	024H
	DB	02H
	DB	02H
	DB	02H
	DB	02H
	DB	02H
	DB	02H
	DB	02H
	DB	02H
	DB	018H
	DB	0ffH
	DB	0fbH
	DB	0f5H
	DB	0f5H
	DB	039H
	DB	05H
	DB	039H
	DB	02H
	DB	019H
	DB	0feH
	DB	0ffH
	DB	01bH
	DB	018H
	DB	0dH
	DB	0fbH
	DB	05H
	DB	01bH
	DB	02H
	DB	02H
	DB	02H
	DB	0dH
	DB	05H
	DB	012H
	DB	02H
	DB	02H
	DB	02H
	DB	010H
	DB	01fH
	DB	05H
	DB	025H
	DB	0dH
	DB	0dH
	DB	039H
	DB	05H
	DB	01fH
	DB	010H
	DB	02H
	DB	02H
	DB	02H
	DB	02H
	DB	02H
	DB	043H
	DB	047H
	DB	06cH
	DB	0d0H
	DB	058H
	DB	090H
	DB	058H
	DB	058H
	DB	037H
	DB	085H
	DB	0fH
	DB	011H
	DB	01H
	DB	00H
	DB	01H
	DB	01H
	DB	01H
	DB	01H
	DB	01H
	DB	01H
	DB	01H
	DB	01H
	DB	01H
	DB	01H
	DB	01H
	DB	01H
	DB	01H
	DB	01H
	DB	01H
	DB	01H
	DB	01H
	DB	01H
	DB	01H
	DB	01H
	DB	01H
	DB	00H
	DB	00H
	DB	00H
	DB	00H
	DB	00H
	DB	00H
	DB	03H
	DB	03H
	DB	00H
	DB	01H
	DB	01H
	DB	01H
	DB	01H
	DB	01H
	DB	01H
	DB	01H
	DB	01H
	DB	01H
	DB	01H
	DB	01H
	DB	01H
	DB	01H
	DB	01H
	DB	01H
	DB	01H
	DB	01H
	DB	01H
	DB	01H
	DB	00H
	DB	097H
	DB	023H
	DB	022H
	DB	081H
	DB	01dH
	DB	097H
	DB	048H
	DB	0d1H
	DB	06eH
	DB	017H
	DB	033H
	DB	026H
	DB	034H
	DB	02H
	DB	02H
	DB	02H
	DB	02H
	DB	02H
	DB	02H
	DB	02H
	DB	010H
	DB	062H
	DB	013H
	DB	079H
	DB	02H
	DB	02H
	DB	019H
	DB	0feH
	DB	013H
	DB	0dH
	DB	02H
	DB	01bH
	DB	0cH
	DB	05H
	DB	013H
	DB	013H
	DB	013H
	DB	039H
	DB	010H
	DB	02H
	DB	02H
	DB	02H
	DB	01bH
	DB	013H
	DB	045H
	DB	02H
	DB	02H
	DB	02H
	DB	02H
	DB	018H
	DB	031H
	DB	013H
	DB	013H
	DB	013H
	DB	013H
	DB	039H
	DB	07aH
	DB	02H
	DB	02H
	DB	02H
	DB	02H
	DB	02H
	DB	02H
	DB	024H
	DB	047H
	DB	044H
	DB	0a2H
	DB	057H
	DB	057H
	DB	070H
	DB	058H
	DB	051H
	DB	0a7H
	DB	05bH
	DB	089H
	DB	01H
	DB	00H
	DB	01H
	DB	01H
	DB	01H
	DB	01H
	DB	01H
	DB	01H
	DB	01H
	DB	01H
	DB	01H
	DB	01H
	DB	01H
	DB	01H
	DB	01H
	DB	01H
	DB	01H
	DB	01H
	DB	01H
	DB	01H
	DB	01H
	DB	01H
	DB	01H
	DB	00H
	DB	00H
	DB	00H
	DB	00H
	DB	00H
	DB	00H
	DB	03H
	DB	03H
	DB	01H
	DB	01H
	DB	01H
	DB	01H
	DB	01H
	DB	01H
	DB	01H
	DB	01H
	DB	01H
	DB	01H
	DB	01H
	DB	01H
	DB	01H
	DB	01H
	DB	01H
	DB	01H
	DB	01H
	DB	01H
	DB	01H
	DB	01H
	DB	00H
	DB	097H
	DB	023H
	DB	022H
	DB	081H
	DB	01dH
	DB	097H
	DB	08eH
	DB	0d1H
	DB	06eH
	DB	017H
	DB	06bH
	DB	026H
	DB	019H
	DB	02H
	DB	02H
	DB	02H
	DB	02H
	DB	02H
	DB	02H
	DB	02H
	DB	02H
	DB	0dH
	DB	0dH
	DB	010H
	DB	02H
	DB	02H
	DB	010H
	DB	0dH
	DB	01bH
	DB	018H
	DB	02H
	DB	02H
	DB	07aH
	DB	0dH
	DB	01bH
	DB	01bH
	DB	0dH
	DB	010H
	DB	02H
	DB	02H
	DB	02H
	DB	02H
	DB	07aH
	DB	01bH
	DB	018H
	DB	02H
	DB	02H
	DB	02H
	DB	02H
	DB	02H
	DB	010H
	DB	018H
	DB	01bH
	DB	01bH
	DB	018H
	DB	010H
	DB	02H
	DB	02H
	DB	02H
	DB	02H
	DB	02H
	DB	02H
	DB	02H
	DB	034H
	DB	042H
	DB	044H
	DB	0a2H
	DB	093H
	DB	057H
	DB	070H
	DB	0a6H
	DB	037H
	DB	0bH
	DB	0fH
	DB	0fH
	DB	01H
	DB	00H
	DB	01H
	DB	01H
	DB	01H
	DB	01H
	DB	01H
	DB	01H
	DB	01H
	DB	01H
	DB	01H
	DB	01H
	DB	01H
	DB	01H
	DB	01H
	DB	01H
	DB	01H
	DB	01H
	DB	01H
	DB	01H
	DB	01H
	DB	01H
	DB	01H
	DB	00H
	DB	00H
	DB	00H
	DB	00H
	DB	00H
	DB	00H
	DB	03H
	DB	03H
	DB	01H
	DB	01H
	DB	01H
	DB	01H
	DB	01H
	DB	01H
	DB	01H
	DB	01H
	DB	01H
	DB	01H
	DB	01H
	DB	01H
	DB	01H
	DB	01H
	DB	01H
	DB	01H
	DB	01H
	DB	01H
	DB	01H
	DB	01H
	DB	00H
	DB	097H
	DB	023H
	DB	05cH
	DB	081H
	DB	041H
	DB	0c3H
	DB	0cbH
	DB	01bH
	DB	06eH
	DB	017H
	DB	044H
	DB	026H
	DB	019H
	DB	02H
	DB	02H
	DB	02H
	DB	02H
	DB	02H
	DB	02H
	DB	02H
	DB	02H
	DB	02H
	DB	02H
	DB	02H
	DB	02H
	DB	02H
	DB	02H
	DB	02H
	DB	02H
	DB	02H
	DB	02H
	DB	02H
	DB	02H
	DB	02H
	DB	02H
	DB	02H
	DB	02H
	DB	02H
	DB	02H
	DB	02H
	DB	02H
	DB	02H
	DB	02H
	DB	02H
	DB	02H
	DB	02H
	DB	02H
	DB	02H
	DB	02H
	DB	02H
	DB	02H
	DB	02H
	DB	02H
	DB	02H
	DB	02H
	DB	02H
	DB	02H
	DB	02H
	DB	02H
	DB	02H
	DB	02H
	DB	02H
	DB	02H
	DB	034H
	DB	042H
	DB	044H
	DB	0d0H
	DB	036H
	DB	036H
	DB	070H
	DB	0a6H
	DB	037H
	DB	085H
	DB	05bH
	DB	05bH
	DB	097H
	DB	00H
	DB	01H
	DB	01H
	DB	01H
	DB	01H
	DB	01H
	DB	01H
	DB	01H
	DB	01H
	DB	01H
	DB	01H
	DB	01H
	DB	01H
	DB	01H
	DB	01H
	DB	01H
	DB	01H
	DB	01H
	DB	01H
	DB	01H
	DB	01H
	DB	01H
	DB	00H
	DB	00H
	DB	00H
	DB	00H
	DB	00H
	DB	00H
	DB	03H
	DB	03H
	DB	01H
	DB	01H
	DB	01H
	DB	01H
	DB	01H
	DB	01H
	DB	01H
	DB	01H
	DB	01H
	DB	01H
	DB	01H
	DB	01H
	DB	01H
	DB	01H
	DB	01H
	DB	01H
	DB	01H
	DB	01H
	DB	01H
	DB	01H
	DB	01H
	DB	097H
	DB	023H
	DB	05cH
	DB	081H
	DB	01dH
	DB	0c3H
	DB	066H
	DB	01bH
	DB	06eH
	DB	017H
	DB	05aH
	DB	026H
	DB	019H
	DB	02H
	DB	02H
	DB	02H
	DB	02H
	DB	02H
	DB	02H
	DB	02H
	DB	02H
	DB	02H
	DB	02H
	DB	02H
	DB	02H
	DB	02H
	DB	02H
	DB	02H
	DB	02H
	DB	02H
	DB	02H
	DB	02H
	DB	02H
	DB	02H
	DB	02H
	DB	02H
	DB	02H
	DB	02H
	DB	02H
	DB	02H
	DB	02H
	DB	02H
	DB	02H
	DB	02H
	DB	02H
	DB	02H
	DB	02H
	DB	02H
	DB	02H
	DB	02H
	DB	02H
	DB	02H
	DB	02H
	DB	02H
	DB	02H
	DB	02H
	DB	02H
	DB	02H
	DB	02H
	DB	02H
	DB	02H
	DB	02H
	DB	02H
	DB	034H
	DB	042H
	DB	044H
	DB	060H
	DB	02cH
	DB	02cH
	DB	036H
	DB	036H
	DB	037H
	DB	01aH
	DB	05bH
	DB	05bH
	DB	097H
	DB	00H
	DB	01H
	DB	01H
	DB	01H
	DB	01H
	DB	01H
	DB	01H
	DB	01H
	DB	01H
	DB	01H
	DB	01H
	DB	01H
	DB	01H
	DB	01H
	DB	01H
	DB	01H
	DB	01H
	DB	01H
	DB	01H
	DB	01H
	DB	01H
	DB	01H
	DB	00H
	DB	00H
	DB	00H
	DB	00H
	DB	00H
	DB	00H
	DB	03H
	DB	03H
	DB	01H
	DB	01H
	DB	01H
	DB	01H
	DB	01H
	DB	01H
	DB	01H
	DB	01H
	DB	01H
	DB	01H
	DB	01H
	DB	01H
	DB	01H
	DB	01H
	DB	01H
	DB	01H
	DB	01H
	DB	01H
	DB	01H
	DB	01H
	DB	01H
	DB	097H
	DB	03aH
	DB	0adH
	DB	081H
	DB	07fH
	DB	0c3H
	DB	047H
	DB	017H
	DB	035H
	DB	017H
	DB	05aH
	DB	026H
	DB	019H
	DB	02H
	DB	02H
	DB	02H
	DB	02H
	DB	02H
	DB	02H
	DB	010H
	DB	01bH
	DB	056H
	DB	0d1H
	DB	0dH
	DB	010H
	DB	02H
	DB	018H
	DB	016H
	DB	01bH
	DB	01bH
	DB	01bH
	DB	01bH
	DB	01bH
	DB	016H
	DB	07aH
	DB	02H
	DB	018H
	DB	01bH
	DB	0ecH
	DB	010H
	DB	02H
	DB	02H
	DB	02H
	DB	018H
	DB	01bH
	DB	01bH
	DB	01bH
	DB	01bH
	DB	01bH
	DB	0dH
	DB	010H
	DB	02H
	DB	0dH
	DB	016H
	DB	01bH
	DB	01bH
	DB	01bH
	DB	01bH
	DB	01bH
	DB	04bH
	DB	010H
	DB	02H
	DB	02H
	DB	034H
	DB	042H
	DB	044H
	DB	0faH
	DB	02cH
	DB	02cH
	DB	036H
	DB	0a6H
	DB	0a9H
	DB	01aH
	DB	05bH
	DB	05bH
	DB	097H
	DB	01H
	DB	01H
	DB	01H
	DB	01H
	DB	01H
	DB	01H
	DB	01H
	DB	01H
	DB	01H
	DB	01H
	DB	01H
	DB	01H
	DB	01H
	DB	01H
	DB	01H
	DB	01H
	DB	01H
	DB	01H
	DB	01H
	DB	01H
	DB	01H
	DB	01H
	DB	00H
	DB	00H
	DB	00H
	DB	00H
	DB	00H
	DB	00H
	DB	03H
	DB	03H
	DB	01H
	DB	01H
	DB	01H
	DB	01H
	DB	01H
	DB	01H
	DB	01H
	DB	01H
	DB	01H
	DB	01H
	DB	01H
	DB	01H
	DB	01H
	DB	01H
	DB	01H
	DB	01H
	DB	01H
	DB	01H
	DB	01H
	DB	01H
	DB	01H
	DB	097H
	DB	075H
	DB	0fH
	DB	09aH
	DB	03H
	DB	071H
	DB	065H
	DB	017H
	DB	035H
	DB	0ecH
	DB	044H
	DB	026H
	DB	019H
	DB	02H
	DB	02H
	DB	02H
	DB	02H
	DB	02H
	DB	018H
	DB	0c2H
	DB	013H
	DB	0ffH
	DB	013H
	DB	013H
	DB	01fH
	DB	079H
	DB	0dH
	DB	013H
	DB	013H
	DB	013H
	DB	05H
	DB	013H
	DB	013H
	DB	086H
	DB	018H
	DB	02H
	DB	017H
	DB	05H
	DB	0feH
	DB	07aH
	DB	02H
	DB	02H
	DB	02H
	DB	0dH
	DB	013H
	DB	013H
	DB	013H
	DB	013H
	DB	013H
	DB	013H
	DB	039H
	DB	02H
	DB	0d1H
	DB	013H
	DB	013H
	DB	013H
	DB	05H
	DB	013H
	DB	013H
	DB	095H
	DB	07aH
	DB	02H
	DB	02H
	DB	024H
	DB	064H
	DB	06bH
	DB	02cH
	DB	02cH
	DB	02cH
	DB	036H
	DB	058H
	DB	0a9H
	DB	07dH
	DB	05bH
	DB	05bH
	DB	097H
	DB	01H
	DB	01H
	DB	01H
	DB	01H
	DB	01H
	DB	01H
	DB	01H
	DB	01H
	DB	01H
	DB	01H
	DB	01H
	DB	01H
	DB	01H
	DB	01H
	DB	01H
	DB	01H
	DB	01H
	DB	01H
	DB	01H
	DB	01H
	DB	01H
	DB	01H
	DB	00H
	DB	00H
	DB	00H
	DB	00H
	DB	00H
	DB	00H
	DB	03H
	DB	098H
	DB	01H
	DB	01H
	DB	01H
	DB	01H
	DB	01H
	DB	01H
	DB	01H
	DB	01H
	DB	01H
	DB	01H
	DB	01H
	DB	01H
	DB	01H
	DB	01H
	DB	01H
	DB	01H
	DB	01H
	DB	01H
	DB	01H
	DB	01H
	DB	01H
	DB	097H
	DB	022H
	DB	0fH
	DB	02eH
	DB	01dH
	DB	071H
	DB	03cH
	DB	038H
	DB	06eH
	DB	0ecH
	DB	06bH
	DB	020H
	DB	034H
	DB	02H
	DB	02H
	DB	02H
	DB	02H
	DB	02H
	DB	039H
	DB	05H
	DB	017H
	DB	034H
	DB	079H
	DB	04cH
	DB	01fH
	DB	010H
	DB	07aH
	DB	01bH
	DB	0dH
	DB	025H
	DB	05H
	DB	06fH
	DB	0dH
	DB	0dH
	DB	07aH
	DB	010H
	DB	031H
	DB	05H
	DB	05H
	DB	01bH
	DB	02H
	DB	02H
	DB	02H
	DB	018H
	DB	05H
	DB	039H
	DB	018H
	DB	018H
	DB	079H
	DB	01fH
	DB	013H
	DB	018H
	DB	018H
	DB	0dH
	DB	0dH
	DB	031H
	DB	05H
	DB	04bH
	DB	0dH
	DB	0ecH
	DB	010H
	DB	02H
	DB	02H
	DB	024H
	DB	064H
	DB	0b3H
	DB	01fH
	DB	02cH
	DB	02cH
	DB	02cH
	DB	070H
	DB	02fH
	DB	050H
	DB	05bH
	DB	05bH
	DB	097H
	DB	01H
	DB	01H
	DB	01H
	DB	01H
	DB	01H
	DB	01H
	DB	01H
	DB	01H
	DB	01H
	DB	01H
	DB	01H
	DB	01H
	DB	01H
	DB	01H
	DB	01H
	DB	01H
	DB	01H
	DB	01H
	DB	01H
	DB	01H
	DB	01H
	DB	01H
	DB	00H
	DB	00H
	DB	00H
	DB	00H
	DB	00H
	DB	00H
	DB	03H
	DB	098H
	DB	01H
	DB	01H
	DB	01H
	DB	01H
	DB	01H
	DB	01H
	DB	01H
	DB	01H
	DB	01H
	DB	01H
	DB	01H
	DB	01H
	DB	01H
	DB	01H
	DB	01H
	DB	01H
	DB	01H
	DB	01H
	DB	01H
	DB	01H
	DB	01H
	DB	097H
	DB	0adH
	DB	030H
	DB	02eH
	DB	01dH
	DB	071H
	DB	072H
	DB	033H
	DB	017H
	DB	04eH
	DB	033H
	DB	020H
	DB	043H
	DB	02H
	DB	02H
	DB	02H
	DB	02H
	DB	02H
	DB	039H
	DB	05H
	DB	01fH
	DB	0a4H
	DB	0b9H
	DB	017H
	DB	079H
	DB	02H
	DB	02H
	DB	02H
	DB	02H
	DB	056H
	DB	05H
	DB	0dH
	DB	02H
	DB	02H
	DB	02H
	DB	0dH
	DB	013H
	DB	045H
	DB	02fH
	DB	0c2H
	DB	010H
	DB	02H
	DB	02H
	DB	0dH
	DB	05H
	DB	031H
	DB	0dH
	DB	0dH
	DB	0dH
	DB	01fH
	DB	013H
	DB	018H
	DB	02H
	DB	02H
	DB	02H
	DB	025H
	DB	013H
	DB	0dH
	DB	02H
	DB	02H
	DB	02H
	DB	02H
	DB	02H
	DB	053H
	DB	03eH
	DB	0b5H
	DB	02cH
	DB	051H
	DB	051H
	DB	02cH
	DB	02cH
	DB	02dH
	DB	077H
	DB	05bH
	DB	06H
	DB	01H
	DB	01H
	DB	01H
	DB	01H
	DB	01H
	DB	01H
	DB	01H
	DB	01H
	DB	01H
	DB	01H
	DB	01H
	DB	01H
	DB	01H
	DB	01H
	DB	01H
	DB	01H
	DB	01H
	DB	01H
	DB	01H
	DB	01H
	DB	01H
	DB	01H
	DB	01H
	DB	00H
	DB	00H
	DB	00H
	DB	00H
	DB	00H
	DB	00H
	DB	03H
	DB	098H
	DB	01H
	DB	097H
	DB	097H
	DB	097H
	DB	097H
	DB	097H
	DB	097H
	DB	097H
	DB	097H
	DB	097H
	DB	097H
	DB	097H
	DB	097H
	DB	097H
	DB	097H
	DB	097H
	DB	097H
	DB	097H
	DB	097H
	DB	097H
	DB	01H
	DB	097H
	DB	0fH
	DB	06H
	DB	075H
	DB	011H
	DB	071H
	DB	07fH
	DB	044H
	DB	017H
	DB	04eH
	DB	04eH
	DB	072H
	DB	03fH
	DB	02H
	DB	02H
	DB	02H
	DB	02H
	DB	02H
	DB	018H
	DB	0fbH
	DB	0ffH
	DB	05H
	DB	05H
	DB	05H
	DB	037H
	DB	018H
	DB	02H
	DB	02H
	DB	02H
	DB	012H
	DB	05H
	DB	0dH
	DB	02H
	DB	02H
	DB	010H
	DB	031H
	DB	0cH
	DB	024H
	DB	039H
	DB	05H
	DB	0d1H
	DB	02H
	DB	02H
	DB	0dH
	DB	013H
	DB	0ffH
	DB	0feH
	DB	0ffH
	DB	05H
	DB	037H
	DB	01bH
	DB	02H
	DB	02H
	DB	02H
	DB	02H
	DB	025H
	DB	013H
	DB	0dH
	DB	02H
	DB	02H
	DB	02H
	DB	02H
	DB	02H
	DB	03fH
	DB	048H
	DB	062H
	DB	0bbH
	DB	0d5H
	DB	070H
	DB	0a6H
	DB	070H
	DB	0ffH
	DB	052H
	DB	05bH
	DB	04H
	DB	00H
	DB	01H
	DB	01H
	DB	01H
	DB	097H
	DB	097H
	DB	097H
	DB	097H
	DB	097H
	DB	097H
	DB	097H
	DB	097H
	DB	097H
	DB	097H
	DB	097H
	DB	097H
	DB	097H
	DB	097H
	DB	097H
	DB	097H
	DB	097H
	DB	097H
	DB	01H
	DB	00H
	DB	00H
	DB	00H
	DB	00H
	DB	00H
	DB	00H
	DB	03H
	DB	098H
	DB	01H
	DB	097H
	DB	097H
	DB	097H
	DB	097H
	DB	097H
	DB	097H
	DB	097H
	DB	097H
	DB	097H
	DB	097H
	DB	097H
	DB	097H
	DB	097H
	DB	097H
	DB	097H
	DB	097H
	DB	097H
	DB	097H
	DB	097H
	DB	097H
	DB	00H
	DB	04H
	DB	06H
	DB	0adH
	DB	0fH
	DB	097H
	DB	03H
	DB	05aH
	DB	017H
	DB	06eH
	DB	04eH
	DB	021H
	DB	063H
	DB	02H
	DB	02H
	DB	02H
	DB	02H
	DB	02H
	DB	07aH
	DB	079H
	DB	034H
	DB	079H
	DB	079H
	DB	045H
	DB	05H
	DB	012H
	DB	02H
	DB	02H
	DB	02H
	DB	012H
	DB	05H
	DB	0dH
	DB	02H
	DB	02H
	DB	018H
	DB	013H
	DB	0ffH
	DB	0eH
	DB	0cH
	DB	05H
	DB	0c2H
	DB	019H
	DB	02H
	DB	0dH
	DB	05H
	DB	039H
	DB	019H
	DB	027H
	DB	05H
	DB	0dbH
	DB	010H
	DB	02H
	DB	02H
	DB	02H
	DB	02H
	DB	025H
	DB	013H
	DB	0dH
	DB	02H
	DB	02H
	DB	02H
	DB	02H
	DB	019H
	DB	064H
	DB	08eH
	DB	058H
	DB	051H
	DB	02cH
	DB	070H
	DB	070H
	DB	036H
	DB	0ffH
	DB	08H
	DB	05bH
	DB	029H
	DB	00H
	DB	01H
	DB	01H
	DB	097H
	DB	097H
	DB	097H
	DB	097H
	DB	097H
	DB	097H
	DB	097H
	DB	097H
	DB	097H
	DB	097H
	DB	097H
	DB	097H
	DB	097H
	DB	097H
	DB	097H
	DB	097H
	DB	097H
	DB	097H
	DB	097H
	DB	01H
	DB	00H
	DB	00H
	DB	00H
	DB	00H
	DB	00H
	DB	00H
	DB	03H
	DB	098H
	DB	01H
	DB	097H
	DB	097H
	DB	097H
	DB	097H
	DB	097H
	DB	097H
	DB	097H
	DB	097H
	DB	097H
	DB	097H
	DB	097H
	DB	097H
	DB	097H
	DB	097H
	DB	097H
	DB	097H
	DB	097H
	DB	097H
	DB	097H
	DB	097H
	DB	00H
	DB	089H
	DB	05bH
	DB	089H
	DB	0fH
	DB	07fH
	DB	03H
	DB	065H
	DB	017H
	DB	06eH
	DB	04eH
	DB	048H
	DB	026H
	DB	019H
	DB	02H
	DB	02H
	DB	02H
	DB	02H
	DB	012H
	DB	013H
	DB	0c0H
	DB	0a3H
	DB	0a3H
	DB	051H
	DB	013H
	DB	01bH
	DB	02H
	DB	02H
	DB	02H
	DB	012H
	DB	05H
	DB	01bH
	DB	02H
	DB	02H
	DB	031H
	DB	0ffH
	DB	01bH
	DB	0dH
	DB	0dH
	DB	031H
	DB	05H
	DB	027H
	DB	02H
	DB	0dH
	DB	05H
	DB	0d2H
	DB	02H
	DB	010H
	DB	039H
	DB	05H
	DB	056H
	DB	02H
	DB	02H
	DB	02H
	DB	02H
	DB	0d2H
	DB	05H
	DB	0dH
	DB	02H
	DB	02H
	DB	02H
	DB	02H
	DB	024H
	DB	042H
	DB	0ccH
	DB	0faH
	DB	058H
	DB	02cH
	DB	0faH
	DB	036H
	DB	037H
	DB	037H
	DB	0adH
	DB	0fH
	DB	01dH
	DB	01H
	DB	01H
	DB	097H
	DB	097H
	DB	097H
	DB	097H
	DB	097H
	DB	097H
	DB	097H
	DB	097H
	DB	097H
	DB	097H
	DB	097H
	DB	097H
	DB	097H
	DB	097H
	DB	097H
	DB	097H
	DB	097H
	DB	097H
	DB	097H
	DB	097H
	DB	01H
	DB	00H
	DB	00H
	DB	00H
	DB	00H
	DB	00H
	DB	00H
	DB	03H
	DB	098H
	DB	097H
	DB	097H
	DB	097H
	DB	097H
	DB	097H
	DB	097H
	DB	097H
	DB	097H
	DB	097H
	DB	097H
	DB	097H
	DB	097H
	DB	097H
	DB	097H
	DB	097H
	DB	097H
	DB	097H
	DB	097H
	DB	097H
	DB	097H
	DB	097H
	DB	01H
	DB	089H
	DB	068H
	DB	011H
	DB	089H
	DB	03H
	DB	071H
	DB	072H
	DB	033H
	DB	017H
	DB	06eH
	DB	06cH
	DB	020H
	DB	043H
	DB	02H
	DB	02H
	DB	02H
	DB	02H
	DB	0ecH
	DB	0fbH
	DB	0ffH
	DB	013H
	DB	013H
	DB	037H
	DB	01bH
	DB	010H
	DB	02H
	DB	02H
	DB	02H
	DB	01eH
	DB	086H
	DB	017H
	DB	02H
	DB	079H
	DB	095H
	DB	062H
	DB	010H
	DB	02H
	DB	02H
	DB	0dH
	DB	0cH
	DB	0a7H
	DB	019H
	DB	0dH
	DB	086H
	DB	062H
	DB	010H
	DB	02H
	DB	079H
	DB	0feH
	DB	095H
	DB	0dH
	DB	02H
	DB	02H
	DB	02H
	DB	045H
	DB	086H
	DB	0dH
	DB	02H
	DB	02H
	DB	02H
	DB	02H
	DB	0e3H
	DB	047H
	DB	060H
	DB	096H
	DB	02cH
	DB	070H
	DB	0faH
	DB	070H
	DB	0cH
	DB	0a7H
	DB	05bH
	DB	05bH
	DB	0c3H
	DB	01H
	DB	097H
	DB	097H
	DB	097H
	DB	097H
	DB	097H
	DB	097H
	DB	097H
	DB	097H
	DB	097H
	DB	097H
	DB	097H
	DB	097H
	DB	097H
	DB	097H
	DB	097H
	DB	097H
	DB	097H
	DB	097H
	DB	097H
	DB	097H
	DB	097H
	DB	01H
	DB	00H
	DB	00H
	DB	00H
	DB	00H
	DB	00H
	DB	00H
	DB	03H
	DB	098H
	DB	097H
	DB	097H
	DB	097H
	DB	097H
	DB	097H
	DB	097H
	DB	097H
	DB	097H
	DB	097H
	DB	097H
	DB	097H
	DB	097H
	DB	097H
	DB	097H
	DB	097H
	DB	097H
	DB	097H
	DB	097H
	DB	097H
	DB	097H
	DB	097H
	DB	097H
	DB	0c3H
	DB	03aH
	DB	011H
	DB	089H
	DB	098H
	DB	098H
	DB	03H
	DB	08dH
	DB	017H
	DB	06eH
	DB	06eH
	DB	03cH
	DB	063H
	DB	02H
	DB	02H
	DB	02H
	DB	02H
	DB	02H
	DB	010H
	DB	019H
	DB	018H
	DB	07aH
	DB	010H
	DB	02H
	DB	02H
	DB	02H
	DB	02H
	DB	02H
	DB	010H
	DB	07aH
	DB	010H
	DB	02H
	DB	010H
	DB	018H
	DB	010H
	DB	02H
	DB	02H
	DB	02H
	DB	010H
	DB	019H
	DB	07aH
	DB	02H
	DB	010H
	DB	07aH
	DB	07aH
	DB	02H
	DB	02H
	DB	010H
	DB	019H
	DB	07aH
	DB	010H
	DB	02H
	DB	02H
	DB	02H
	DB	010H
	DB	07aH
	DB	010H
	DB	02H
	DB	02H
	DB	02H
	DB	019H
	DB	064H
	DB	048H
	DB	093H
	DB	051H
	DB	096H
	DB	051H
	DB	02cH
	DB	01fH
	DB	05H
	DB	0d3H
	DB	05bH
	DB	05bH
	DB	01H
	DB	097H
	DB	097H
	DB	097H
	DB	097H
	DB	097H
	DB	097H
	DB	097H
	DB	097H
	DB	097H
	DB	097H
	DB	097H
	DB	097H
	DB	097H
	DB	097H
	DB	097H
	DB	097H
	DB	097H
	DB	097H
	DB	097H
	DB	097H
	DB	097H
	DB	097H
	DB	01H
	DB	00H
	DB	00H
	DB	00H
	DB	00H
	DB	00H
	DB	00H
	DB	03H
	DB	04H
	DB	097H
	DB	097H
	DB	097H
	DB	097H
	DB	097H
	DB	097H
	DB	097H
	DB	097H
	DB	097H
	DB	097H
	DB	097H
	DB	097H
	DB	097H
	DB	097H
	DB	097H
	DB	097H
	DB	097H
	DB	097H
	DB	097H
	DB	097H
	DB	097H
	DB	097H
	DB	01H
	DB	022H
	DB	0fH
	DB	089H
	DB	04H
	DB	029H
	DB	098H
	DB	0abH
	DB	038H
	DB	038H
	DB	06eH
	DB	0e4H
	DB	020H
	DB	034H
	DB	02H
	DB	02H
	DB	02H
	DB	02H
	DB	02H
	DB	02H
	DB	02H
	DB	02H
	DB	02H
	DB	02H
	DB	02H
	DB	02H
	DB	02H
	DB	02H
	DB	02H
	DB	02H
	DB	02H
	DB	02H
	DB	02H
	DB	02H
	DB	02H
	DB	02H
	DB	02H
	DB	02H
	DB	02H
	DB	02H
	DB	02H
	DB	02H
	DB	02H
	DB	02H
	DB	02H
	DB	02H
	DB	02H
	DB	02H
	DB	02H
	DB	02H
	DB	02H
	DB	02H
	DB	02H
	DB	02H
	DB	02H
	DB	02H
	DB	02H
	DB	02H
	DB	02H
	DB	02H
	DB	024H
	DB	042H
	DB	0b4H
	DB	0bdH
	DB	052H
	DB	057H
	DB	01fH
	DB	051H
	DB	02fH
	DB	013H
	DB	08H
	DB	022H
	DB	089H
	DB	01H
	DB	097H
	DB	097H
	DB	097H
	DB	097H
	DB	097H
	DB	097H
	DB	097H
	DB	097H
	DB	097H
	DB	097H
	DB	097H
	DB	097H
	DB	097H
	DB	097H
	DB	097H
	DB	097H
	DB	097H
	DB	097H
	DB	097H
	DB	097H
	DB	097H
	DB	097H
	DB	01H
	DB	00H
	DB	00H
	DB	00H
	DB	00H
	DB	00H
	DB	00H
	DB	03H
	DB	04H
	DB	097H
	DB	097H
	DB	097H
	DB	097H
	DB	097H
	DB	097H
	DB	097H
	DB	097H
	DB	097H
	DB	097H
	DB	097H
	DB	097H
	DB	097H
	DB	097H
	DB	097H
	DB	097H
	DB	097H
	DB	097H
	DB	097H
	DB	097H
	DB	097H
	DB	097H
	DB	01H
	DB	0fH
	DB	05cH
	DB	011H
	DB	089H
	DB	01dH
	DB	04H
	DB	072H
	DB	06bH
	DB	038H
	DB	06eH
	DB	033H
	DB	026H
	DB	03fH
	DB	02H
	DB	02H
	DB	02H
	DB	02H
	DB	02H
	DB	02H
	DB	02H
	DB	02H
	DB	02H
	DB	02H
	DB	02H
	DB	02H
	DB	02H
	DB	02H
	DB	02H
	DB	02H
	DB	02H
	DB	02H
	DB	02H
	DB	02H
	DB	02H
	DB	02H
	DB	02H
	DB	02H
	DB	02H
	DB	02H
	DB	02H
	DB	02H
	DB	02H
	DB	02H
	DB	02H
	DB	02H
	DB	02H
	DB	02H
	DB	02H
	DB	02H
	DB	02H
	DB	02H
	DB	02H
	DB	02H
	DB	02H
	DB	02H
	DB	02H
	DB	02H
	DB	02H
	DB	010H
	DB	08cH
	DB	047H
	DB	01fH
	DB	05H
	DB	0c2H
	DB	0c9H
	DB	090H
	DB	0beH
	DB	0ffH
	DB	0c2H
	DB	0fH
	DB	05cH
	DB	098H
	DB	01H
	DB	097H
	DB	097H
	DB	097H
	DB	097H
	DB	097H
	DB	097H
	DB	097H
	DB	097H
	DB	097H
	DB	097H
	DB	097H
	DB	097H
	DB	097H
	DB	097H
	DB	097H
	DB	097H
	DB	097H
	DB	097H
	DB	097H
	DB	097H
	DB	097H
	DB	097H
	DB	097H
	DB	00H
	DB	00H
	DB	00H
	DB	00H
	DB	00H
	DB	00H
	DB	098H
	DB	04H
	DB	097H
	DB	0c3H
	DB	0c3H
	DB	0c3H
	DB	0c3H
	DB	0c3H
	DB	0c3H
	DB	0c3H
	DB	0c3H
	DB	0c3H
	DB	0c3H
	DB	0c3H
	DB	0c3H
	DB	0c3H
	DB	0c3H
	DB	0c3H
	DB	0c3H
	DB	0c3H
	DB	0c3H
	DB	0c3H
	DB	0c3H
	DB	097H
	DB	01H
	DB	01dH
	DB	03aH
	DB	011H
	DB	06H
	DB	098H
	DB	04H
	DB	03H
	DB	03eH
	DB	038H
	DB	0b2H
	DB	04eH
	DB	048H
	DB	020H
	DB	034H
	DB	02H
	DB	02H
	DB	02H
	DB	02H
	DB	02H
	DB	02H
	DB	02H
	DB	02H
	DB	02H
	DB	02H
	DB	02H
	DB	02H
	DB	02H
	DB	02H
	DB	02H
	DB	02H
	DB	02H
	DB	02H
	DB	02H
	DB	02H
	DB	02H
	DB	02H
	DB	02H
	DB	02H
	DB	02H
	DB	02H
	DB	02H
	DB	02H
	DB	02H
	DB	02H
	DB	02H
	DB	02H
	DB	02H
	DB	02H
	DB	02H
	DB	02H
	DB	02H
	DB	02H
	DB	02H
	DB	02H
	DB	02H
	DB	02H
	DB	02H
	DB	02H
	DB	024H
	DB	042H
	DB	09cH
	DB	05H
	DB	05H
	DB	05H
	DB	02fH
	DB	0bdH
	DB	050H
	DB	05H
	DB	0d3H
	DB	0fH
	DB	05bH
	DB	097H
	DB	01H
	DB	097H
	DB	0c3H
	DB	0c3H
	DB	0c3H
	DB	0c3H
	DB	0c3H
	DB	0c3H
	DB	0c3H
	DB	0c3H
	DB	0c3H
	DB	0c3H
	DB	0c3H
	DB	0c3H
	DB	0c3H
	DB	0c3H
	DB	0c3H
	DB	0c3H
	DB	0c3H
	DB	0c3H
	DB	0c3H
	DB	0c3H
	DB	0c3H
	DB	097H
	DB	00H
	DB	00H
	DB	00H
	DB	00H
	DB	00H
	DB	00H
	DB	098H
	DB	04H
	DB	0c3H
	DB	0c3H
	DB	0c3H
	DB	0c3H
	DB	0c3H
	DB	0c3H
	DB	0c3H
	DB	0c3H
	DB	0c3H
	DB	0c3H
	DB	0c3H
	DB	0c3H
	DB	0c3H
	DB	0c3H
	DB	0c3H
	DB	0c3H
	DB	0c3H
	DB	0c3H
	DB	0c3H
	DB	0c3H
	DB	0c3H
	DB	0c3H
	DB	097H
	DB	097H
	DB	068H
	DB	0fH
	DB	011H
	DB	098H
	DB	029H
	DB	0aaH
	DB	01dH
	DB	033H
	DB	038H
	DB	04eH
	DB	033H
	DB	072H
	DB	03dH
	DB	02H
	DB	02H
	DB	02H
	DB	02H
	DB	02H
	DB	02H
	DB	02H
	DB	02H
	DB	02H
	DB	02H
	DB	02H
	DB	02H
	DB	02H
	DB	02H
	DB	02H
	DB	02H
	DB	02H
	DB	02H
	DB	02H
	DB	02H
	DB	02H
	DB	02H
	DB	02H
	DB	02H
	DB	02H
	DB	02H
	DB	02H
	DB	02H
	DB	02H
	DB	02H
	DB	02H
	DB	02H
	DB	02H
	DB	02H
	DB	02H
	DB	02H
	DB	02H
	DB	02H
	DB	02H
	DB	02H
	DB	02H
	DB	02H
	DB	02H
	DB	010H
	DB	082H
	DB	03eH
	DB	01fH
	DB	05H
	DB	02dH
	DB	05H
	DB	05H
	DB	05H
	DB	05H
	DB	0cH
	DB	05bH
	DB	0fH
	DB	06H
	DB	01H
	DB	097H
	DB	097H
	DB	0c3H
	DB	0c3H
	DB	0c3H
	DB	0c3H
	DB	0c3H
	DB	0c3H
	DB	0c3H
	DB	0c3H
	DB	0c3H
	DB	0c3H
	DB	0c3H
	DB	0c3H
	DB	0c3H
	DB	0c3H
	DB	0c3H
	DB	0c3H
	DB	0c3H
	DB	0c3H
	DB	0c3H
	DB	0c3H
	DB	0c3H
	DB	097H
	DB	00H
	DB	00H
	DB	00H
	DB	00H
	DB	00H
	DB	00H
	DB	098H
	DB	04H
	DB	0c3H
	DB	0c3H
	DB	0c3H
	DB	0c3H
	DB	0c3H
	DB	0c3H
	DB	0c3H
	DB	0c3H
	DB	0c3H
	DB	0c3H
	DB	0c3H
	DB	0c3H
	DB	0c3H
	DB	0c3H
	DB	0c3H
	DB	0c3H
	DB	0c3H
	DB	0c3H
	DB	0c3H
	DB	0c3H
	DB	0c3H
	DB	0c3H
	DB	0c3H
	DB	01H
	DB	089H
	DB	022H
	DB	011H
	DB	089H
	DB	04H
	DB	06H
	DB	03H
	DB	03eH
	DB	038H
	DB	038H
	DB	06dH
	DB	05aH
	DB	020H
	DB	024H
	DB	02H
	DB	02H
	DB	02H
	DB	02H
	DB	02H
	DB	02H
	DB	02H
	DB	02H
	DB	02H
	DB	02H
	DB	02H
	DB	02H
	DB	02H
	DB	02H
	DB	02H
	DB	02H
	DB	02H
	DB	02H
	DB	02H
	DB	02H
	DB	02H
	DB	02H
	DB	02H
	DB	02H
	DB	02H
	DB	02H
	DB	02H
	DB	02H
	DB	02H
	DB	02H
	DB	02H
	DB	02H
	DB	02H
	DB	02H
	DB	02H
	DB	02H
	DB	02H
	DB	02H
	DB	02H
	DB	015H
	DB	015H
	DB	02H
	DB	0e3H
	DB	021H
	DB	0efH
	DB	05H
	DB	05H
	DB	02dH
	DB	05H
	DB	05H
	DB	05H
	DB	05H
	DB	0f8H
	DB	011H
	DB	022H
	DB	03H
	DB	01H
	DB	097H
	DB	0c3H
	DB	0c3H
	DB	0c3H
	DB	0c3H
	DB	0c3H
	DB	0c3H
	DB	0c3H
	DB	0c3H
	DB	0c3H
	DB	0c3H
	DB	0c3H
	DB	0c3H
	DB	0c3H
	DB	0c3H
	DB	0c3H
	DB	0c3H
	DB	0c3H
	DB	0c3H
	DB	0c3H
	DB	0c3H
	DB	0c3H
	DB	0c3H
	DB	097H
	DB	00H
	DB	00H
	DB	00H
	DB	00H
	DB	00H
	DB	00H
	DB	098H
	DB	04H
	DB	0c3H
	DB	0c3H
	DB	0c3H
	DB	0c3H
	DB	0c3H
	DB	0c3H
	DB	0c3H
	DB	0c3H
	DB	0c3H
	DB	0c3H
	DB	0c3H
	DB	0c3H
	DB	0c3H
	DB	0c3H
	DB	0c3H
	DB	0c3H
	DB	0c3H
	DB	0c3H
	DB	0c3H
	DB	0c3H
	DB	0c3H
	DB	0c3H
	DB	0c3H
	DB	097H
	DB	0c3H
	DB	03aH
	DB	05bH
	DB	06H
	DB	0dfH
	DB	087H
	DB	087H
	DB	098H
	DB	08eH
	DB	04bH
	DB	0b2H
	DB	06dH
	DB	021H
	DB	026H
	DB	019H
	DB	02H
	DB	02H
	DB	02H
	DB	02H
	DB	02H
	DB	02H
	DB	02H
	DB	02H
	DB	02H
	DB	02H
	DB	02H
	DB	02H
	DB	02H
	DB	02H
	DB	02H
	DB	02H
	DB	02H
	DB	02H
	DB	02H
	DB	02H
	DB	02H
	DB	02H
	DB	02H
	DB	02H
	DB	02H
	DB	02H
	DB	02H
	DB	02H
	DB	02H
	DB	02H
	DB	02H
	DB	02H
	DB	02H
	DB	02H
	DB	02H
	DB	02H
	DB	02H
	DB	015H
	DB	02aH
	DB	015H
	DB	024H
	DB	021H
	DB	0c7H
	DB	0ffH
	DB	05H
	DB	05H
	DB	05H
	DB	02dH
	DB	05H
	DB	05H
	DB	0ffH
	DB	07H
	DB	0fH
	DB	05bH
	DB	097H
	DB	097H
	DB	0c3H
	DB	0c3H
	DB	0c3H
	DB	0c3H
	DB	0c3H
	DB	0c3H
	DB	0c3H
	DB	0c3H
	DB	0c3H
	DB	0c3H
	DB	0c3H
	DB	0c3H
	DB	0c3H
	DB	0c3H
	DB	0c3H
	DB	0c3H
	DB	0c3H
	DB	0c3H
	DB	0c3H
	DB	0c3H
	DB	0c3H
	DB	0c3H
	DB	0c3H
	DB	097H
	DB	00H
	DB	00H
	DB	00H
	DB	00H
	DB	00H
	DB	00H
	DB	098H
	DB	04H
	DB	0c3H
	DB	03H
	DB	03H
	DB	03H
	DB	03H
	DB	03H
	DB	03H
	DB	03H
	DB	03H
	DB	03H
	DB	03H
	DB	03H
	DB	03H
	DB	03H
	DB	03H
	DB	03H
	DB	03H
	DB	03H
	DB	03H
	DB	03H
	DB	03H
	DB	03H
	DB	0c3H
	DB	0c3H
	DB	01H
	DB	089H
	DB	075H
	DB	011H
	DB	0fH
	DB	03H
	DB	03H
	DB	03H
	DB	072H
	DB	06bH
	DB	038H
	DB	06dH
	DB	06cH
	DB	026H
	DB	063H
	DB	02H
	DB	02H
	DB	02H
	DB	02H
	DB	02H
	DB	02H
	DB	02H
	DB	02H
	DB	02H
	DB	02H
	DB	02H
	DB	02H
	DB	02H
	DB	02H
	DB	02H
	DB	02H
	DB	02H
	DB	02H
	DB	02H
	DB	02H
	DB	02H
	DB	02H
	DB	02H
	DB	02H
	DB	02H
	DB	02H
	DB	02H
	DB	02H
	DB	02H
	DB	02H
	DB	02H
	DB	02H
	DB	02H
	DB	02H
	DB	02H
	DB	02H
	DB	02H
	DB	02bH
	DB	02aH
	DB	019H
	DB	064H
	DB	08bH
	DB	037H
	DB	05H
	DB	05H
	DB	05H
	DB	05H
	DB	05H
	DB	05H
	DB	05H
	DB	0f7H
	DB	04H
	DB	022H
	DB	04H
	DB	01H
	DB	097H
	DB	0c3H
	DB	0c3H
	DB	03H
	DB	03H
	DB	03H
	DB	03H
	DB	03H
	DB	03H
	DB	03H
	DB	03H
	DB	03H
	DB	03H
	DB	03H
	DB	03H
	DB	03H
	DB	03H
	DB	03H
	DB	03H
	DB	03H
	DB	03H
	DB	03H
	DB	03H
	DB	03H
	DB	097H
	DB	00H
	DB	00H
	DB	00H
	DB	00H
	DB	00H
	DB	00H
	DB	098H
	DB	0dfH
	DB	03H
	DB	03H
	DB	03H
	DB	03H
	DB	03H
	DB	03H
	DB	03H
	DB	03H
	DB	03H
	DB	03H
	DB	03H
	DB	03H
	DB	03H
	DB	03H
	DB	03H
	DB	03H
	DB	03H
	DB	03H
	DB	03H
	DB	03H
	DB	03H
	DB	03H
	DB	03H
	DB	0c3H
	DB	097H
	DB	097H
	DB	075H
	DB	0fH
	DB	06H
	DB	06H
	DB	03H
	DB	03H
	DB	0aaH
	DB	0abH
	DB	04eH
	DB	06eH
	DB	033H
	DB	05fH
	DB	020H
	DB	03fH
	DB	02H
	DB	02H
	DB	02H
	DB	02H
	DB	02H
	DB	02H
	DB	02H
	DB	02H
	DB	02H
	DB	02H
	DB	02H
	DB	02H
	DB	02H
	DB	02H
	DB	02H
	DB	02H
	DB	02H
	DB	02H
	DB	02H
	DB	02H
	DB	02H
	DB	02H
	DB	02H
	DB	02H
	DB	02H
	DB	02H
	DB	02H
	DB	02H
	DB	02H
	DB	02H
	DB	02H
	DB	02H
	DB	02H
	DB	02H
	DB	015H
	DB	02bH
	DB	02bH
	DB	010H
	DB	08cH
	DB	065H
	DB	0a7H
	DB	05H
	DB	05H
	DB	05H
	DB	05H
	DB	05H
	DB	05H
	DB	05H
	DB	0feH
	DB	06H
	DB	089H
	DB	07H
	DB	097H
	DB	097H
	DB	0c3H
	DB	0c3H
	DB	03H
	DB	03H
	DB	03H
	DB	03H
	DB	03H
	DB	03H
	DB	03H
	DB	03H
	DB	03H
	DB	03H
	DB	03H
	DB	03H
	DB	03H
	DB	03H
	DB	03H
	DB	03H
	DB	03H
	DB	03H
	DB	03H
	DB	03H
	DB	03H
	DB	03H
	DB	097H
	DB	00H
	DB	00H
	DB	00H
	DB	00H
	DB	00H
	DB	00H
	DB	098H
	DB	0dfH
	DB	03H
	DB	03H
	DB	03H
	DB	03H
	DB	03H
	DB	03H
	DB	03H
	DB	03H
	DB	03H
	DB	03H
	DB	03H
	DB	03H
	DB	03H
	DB	03H
	DB	03H
	DB	03H
	DB	03H
	DB	03H
	DB	03H
	DB	03H
	DB	03H
	DB	03H
	DB	03H
	DB	03H
	DB	0c3H
	DB	01H
	DB	030H
	DB	023H
	DB	011H
	DB	06H
	DB	0acH
	DB	03H
	DB	04H
	DB	03H
	DB	065H
	DB	06dH
	DB	06dH
	DB	06dH
	DB	032H
	DB	020H
	DB	059H
	DB	02H
	DB	02H
	DB	02H
	DB	02H
	DB	02H
	DB	02H
	DB	02H
	DB	02H
	DB	02H
	DB	02H
	DB	02H
	DB	02H
	DB	02H
	DB	02H
	DB	02H
	DB	02H
	DB	02H
	DB	02H
	DB	02H
	DB	02H
	DB	02H
	DB	02H
	DB	02H
	DB	02H
	DB	02H
	DB	02H
	DB	02H
	DB	02H
	DB	02H
	DB	02H
	DB	02H
	DB	02H
	DB	015H
	DB	028H
	DB	02bH
	DB	010H
	DB	08cH
	DB	021H
	DB	07dH
	DB	05H
	DB	05H
	DB	05H
	DB	05H
	DB	05H
	DB	05H
	DB	05H
	DB	05H
	DB	09H
	DB	04H
	DB	068H
	DB	098H
	DB	01H
	DB	0c3H
	DB	0c3H
	DB	03H
	DB	03H
	DB	03H
	DB	03H
	DB	03H
	DB	03H
	DB	03H
	DB	03H
	DB	03H
	DB	03H
	DB	03H
	DB	03H
	DB	03H
	DB	03H
	DB	03H
	DB	03H
	DB	03H
	DB	03H
	DB	03H
	DB	03H
	DB	03H
	DB	03H
	DB	03H
	DB	097H
	DB	00H
	DB	00H
	DB	00H
	DB	00H
	DB	00H
	DB	00H
	DB	098H
	DB	0dfH
	DB	03H
	DB	03H
	DB	03H
	DB	03H
	DB	03H
	DB	03H
	DB	03H
	DB	03H
	DB	03H
	DB	03H
	DB	03H
	DB	03H
	DB	03H
	DB	03H
	DB	03H
	DB	03H
	DB	03H
	DB	03H
	DB	03H
	DB	03H
	DB	03H
	DB	03H
	DB	03H
	DB	03H
	DB	03H
	DB	0c3H
	DB	097H
	DB	023H
	DB	0adH
	DB	04H
	DB	0acH
	DB	0acH
	DB	029H
	DB	0aaH
	DB	071H
	DB	065H
	DB	054H
	DB	06dH
	DB	06cH
	DB	032H
	DB	020H
	DB	059H
	DB	02H
	DB	02H
	DB	02H
	DB	02H
	DB	02H
	DB	02H
	DB	02H
	DB	02H
	DB	02H
	DB	02H
	DB	02H
	DB	02H
	DB	02H
	DB	02H
	DB	02H
	DB	02H
	DB	02H
	DB	02H
	DB	02H
	DB	02H
	DB	02H
	DB	02H
	DB	02H
	DB	02H
	DB	02H
	DB	02H
	DB	02H
	DB	02H
	DB	02H
	DB	02H
	DB	02aH
	DB	028H
	DB	02aH
	DB	019H
	DB	08cH
	DB	021H
	DB	0beH
	DB	05H
	DB	05H
	DB	05H
	DB	0ffH
	DB	05H
	DB	05H
	DB	05H
	DB	05H
	DB	0aH
	DB	04H
	DB	0fH
	DB	05bH
	DB	01H
	DB	097H
	DB	0c3H
	DB	03H
	DB	03H
	DB	03H
	DB	03H
	DB	03H
	DB	03H
	DB	03H
	DB	03H
	DB	03H
	DB	03H
	DB	03H
	DB	03H
	DB	03H
	DB	03H
	DB	03H
	DB	03H
	DB	03H
	DB	03H
	DB	03H
	DB	03H
	DB	03H
	DB	03H
	DB	03H
	DB	03H
	DB	097H
	DB	00H
	DB	00H
	DB	00H
	DB	00H
	DB	00H
	DB	00H
	DB	098H
	DB	0acH
	DB	03H
	DB	03H
	DB	03H
	DB	03H
	DB	03H
	DB	03H
	DB	03H
	DB	03H
	DB	03H
	DB	03H
	DB	03H
	DB	03H
	DB	03H
	DB	03H
	DB	03H
	DB	03H
	DB	03H
	DB	03H
	DB	03H
	DB	03H
	DB	03H
	DB	03H
	DB	03H
	DB	03H
	DB	03H
	DB	03H
	DB	097H
	DB	011H
	DB	023H
	DB	0fH
	DB	06H
	DB	08H
	DB	04H
	DB	099H
	DB	029H
	DB	099H
	DB	073H
	DB	0cdH
	DB	06dH
	DB	06cH
	DB	048H
	DB	026H
	DB	03dH
	DB	010H
	DB	02H
	DB	02H
	DB	02H
	DB	02H
	DB	02H
	DB	02H
	DB	02H
	DB	02H
	DB	02H
	DB	02H
	DB	02H
	DB	02H
	DB	02H
	DB	02H
	DB	02H
	DB	02H
	DB	02H
	DB	02H
	DB	02H
	DB	02H
	DB	02H
	DB	02H
	DB	02H
	DB	02H
	DB	02H
	DB	02H
	DB	02H
	DB	02bH
	DB	028H
	DB	015H
	DB	034H
	DB	064H
	DB	073H
	DB	0daH
	DB	05H
	DB	05H
	DB	05H
	DB	02dH
	DB	0f9H
	DB	096H
	DB	02dH
	DB	05H
	DB	0bH
	DB	0acH
	DB	098H
	DB	068H
	DB	03H
	DB	01H
	DB	0c3H
	DB	03H
	DB	03H
	DB	03H
	DB	03H
	DB	03H
	DB	03H
	DB	03H
	DB	03H
	DB	03H
	DB	03H
	DB	03H
	DB	03H
	DB	03H
	DB	03H
	DB	03H
	DB	03H
	DB	03H
	DB	03H
	DB	03H
	DB	03H
	DB	03H
	DB	03H
	DB	03H
	DB	03H
	DB	03H
	DB	0c3H
	DB	00H
	DB	00H
	DB	00H
	DB	00H
	DB	00H
	DB	00H
	DB	098H
	DB	0acH
	DB	03H
	DB	098H
	DB	098H
	DB	098H
	DB	098H
	DB	098H
	DB	098H
	DB	098H
	DB	098H
	DB	098H
	DB	098H
	DB	098H
	DB	098H
	DB	098H
	DB	098H
	DB	098H
	DB	098H
	DB	098H
	DB	098H
	DB	098H
	DB	098H
	DB	098H
	DB	098H
	DB	098H
	DB	03H
	DB	03H
	DB	03H
	DB	01H
	DB	0fH
	DB	023H
	DB	0dfH
	DB	0e0H
	DB	0e0H
	DB	06H
	DB	080H
	DB	029H
	DB	03H
	DB	02eH
	DB	0a1H
	DB	06dH
	DB	06cH
	DB	05fH
	DB	088H
	DB	03bH
	DB	024H
	DB	02H
	DB	02H
	DB	02H
	DB	02H
	DB	02H
	DB	02H
	DB	02H
	DB	02H
	DB	02H
	DB	02H
	DB	02H
	DB	02H
	DB	02H
	DB	02H
	DB	02H
	DB	02H
	DB	02H
	DB	02H
	DB	02H
	DB	02H
	DB	02H
	DB	02H
	DB	02H
	DB	02H
	DB	015H
	DB	02bH
	DB	0f3H
	DB	010H
	DB	043H
	DB	021H
	DB	02eH
	DB	0a7H
	DB	05H
	DB	05H
	DB	05H
	DB	05H
	DB	0a9H
	DB	02fH
	DB	051H
	DB	02dH
	DB	0feH
	DB	09bH
	DB	029H
	DB	05bH
	DB	04H
	DB	01H
	DB	0c3H
	DB	0c3H
	DB	03H
	DB	03H
	DB	098H
	DB	098H
	DB	098H
	DB	098H
	DB	098H
	DB	098H
	DB	098H
	DB	098H
	DB	098H
	DB	098H
	DB	098H
	DB	098H
	DB	098H
	DB	098H
	DB	098H
	DB	098H
	DB	098H
	DB	098H
	DB	098H
	DB	098H
	DB	098H
	DB	098H
	DB	098H
	DB	0c3H
	DB	00H
	DB	00H
	DB	00H
	DB	00H
	DB	00H
	DB	00H
	DB	098H
	DB	06H
	DB	03H
	DB	098H
	DB	098H
	DB	098H
	DB	098H
	DB	098H
	DB	098H
	DB	098H
	DB	098H
	DB	098H
	DB	098H
	DB	098H
	DB	098H
	DB	098H
	DB	098H
	DB	098H
	DB	098H
	DB	098H
	DB	098H
	DB	098H
	DB	098H
	DB	098H
	DB	098H
	DB	098H
	DB	098H
	DB	03H
	DB	03H
	DB	0c3H
	DB	0c3H
	DB	022H
	DB	0fH
	DB	029H
	DB	06aH
	DB	08H
	DB	06H
	DB	0acH
	DB	087H
	DB	071H
	DB	05bH
	DB	09fH
	DB	054H
	DB	040H
	DB	05fH
	DB	047H
	DB	026H
	DB	059H
	DB	019H
	DB	02H
	DB	02H
	DB	02H
	DB	02H
	DB	02H
	DB	02H
	DB	02H
	DB	02H
	DB	02H
	DB	02H
	DB	02H
	DB	02H
	DB	02H
	DB	02H
	DB	02H
	DB	02H
	DB	02H
	DB	02H
	DB	02H
	DB	02H
	DB	015H
	DB	02aH
	DB	0f3H
	DB	015H
	DB	034H
	DB	08cH
	DB	021H
	DB	0afH
	DB	0feH
	DB	05H
	DB	05H
	DB	05H
	DB	05H
	DB	02dH
	DB	02fH
	DB	02dH
	DB	02dH
	DB	05H
	DB	08H
	DB	03H
	DB	0fH
	DB	07H
	DB	01H
	DB	097H
	DB	0c3H
	DB	03H
	DB	03H
	DB	098H
	DB	098H
	DB	098H
	DB	098H
	DB	098H
	DB	098H
	DB	098H
	DB	098H
	DB	098H
	DB	098H
	DB	098H
	DB	098H
	DB	098H
	DB	098H
	DB	098H
	DB	098H
	DB	098H
	DB	098H
	DB	098H
	DB	098H
	DB	098H
	DB	098H
	DB	098H
	DB	098H
	DB	0c3H
	DB	00H
	DB	00H
	DB	00H
	DB	00H
	DB	00H
	DB	00H
	DB	098H
	DB	06H
	DB	098H
	DB	098H
	DB	098H
	DB	098H
	DB	098H
	DB	098H
	DB	098H
	DB	098H
	DB	098H
	DB	098H
	DB	098H
	DB	098H
	DB	098H
	DB	098H
	DB	098H
	DB	098H
	DB	098H
	DB	098H
	DB	098H
	DB	098H
	DB	098H
	DB	098H
	DB	098H
	DB	098H
	DB	098H
	DB	098H
	DB	03H
	DB	03H
	DB	097H
	DB	03H
	DB	05bH
	DB	030H
	DB	06H
	DB	01cH
	DB	074H
	DB	0e0H
	DB	080H
	DB	099H
	DB	087H
	DB	06H
	DB	0c8H
	DB	0b5H
	DB	09eH
	DB	05fH
	DB	082H
	DB	088H
	DB	03bH
	DB	053H
	DB	019H
	DB	02H
	DB	02H
	DB	02H
	DB	02H
	DB	02H
	DB	02H
	DB	02H
	DB	02H
	DB	02H
	DB	02H
	DB	02H
	DB	02H
	DB	02H
	DB	02H
	DB	02H
	DB	02H
	DB	02H
	DB	015H
	DB	015H
	DB	015H
	DB	034H
	DB	0e3H
	DB	021H
	DB	081H
	DB	0daH
	DB	013H
	DB	05H
	DB	05H
	DB	05H
	DB	05H
	DB	05H
	DB	02fH
	DB	01fH
	DB	05H
	DB	05H
	DB	0e9H
	DB	01dH
	DB	06H
	DB	068H
	DB	097H
	DB	097H
	DB	0c3H
	DB	03H
	DB	03H
	DB	098H
	DB	098H
	DB	098H
	DB	098H
	DB	098H
	DB	098H
	DB	098H
	DB	098H
	DB	098H
	DB	098H
	DB	098H
	DB	098H
	DB	098H
	DB	098H
	DB	098H
	DB	098H
	DB	098H
	DB	098H
	DB	098H
	DB	098H
	DB	098H
	DB	098H
	DB	098H
	DB	098H
	DB	098H
	DB	0c3H
	DB	00H
	DB	00H
	DB	00H
	DB	00H
	DB	00H
	DB	00H
	DB	098H
	DB	06H
	DB	098H
	DB	098H
	DB	098H
	DB	098H
	DB	098H
	DB	098H
	DB	098H
	DB	098H
	DB	098H
	DB	098H
	DB	098H
	DB	098H
	DB	098H
	DB	098H
	DB	098H
	DB	098H
	DB	098H
	DB	098H
	DB	098H
	DB	098H
	DB	098H
	DB	098H
	DB	098H
	DB	098H
	DB	098H
	DB	098H
	DB	098H
	DB	03H
	DB	03H
	DB	097H
	DB	011H
	DB	0adH
	DB	011H
	DB	07H
	DB	0bH
	DB	08H
	DB	099H
	DB	074H
	DB	07H
	DB	06H
	DB	080H
	DB	06aH
	DB	0ceH
	DB	06bH
	DB	05fH
	DB	05fH
	DB	082H
	DB	088H
	DB	03bH
	DB	03fH
	DB	024H
	DB	010H
	DB	02H
	DB	02H
	DB	02H
	DB	02H
	DB	02H
	DB	02H
	DB	02H
	DB	02H
	DB	02H
	DB	02H
	DB	02H
	DB	02H
	DB	02H
	DB	02H
	DB	019H
	DB	024H
	DB	08cH
	DB	021H
	DB	073H
	DB	076H
	DB	0cH
	DB	05H
	DB	05H
	DB	05H
	DB	05H
	DB	05H
	DB	05H
	DB	05H
	DB	05H
	DB	05H
	DB	05H
	DB	014H
	DB	029H
	DB	0fH
	DB	052H
	DB	0c3H
	DB	01H
	DB	0c3H
	DB	03H
	DB	03H
	DB	098H
	DB	098H
	DB	098H
	DB	098H
	DB	098H
	DB	098H
	DB	098H
	DB	098H
	DB	098H
	DB	098H
	DB	098H
	DB	098H
	DB	098H
	DB	098H
	DB	098H
	DB	098H
	DB	098H
	DB	098H
	DB	098H
	DB	098H
	DB	098H
	DB	098H
	DB	098H
	DB	098H
	DB	098H
	DB	098H
	DB	0c3H
	DB	00H
	DB	00H
	DB	00H
	DB	00H
	DB	00H
	DB	00H
	DB	098H
	DB	06H
	DB	098H
	DB	098H
	DB	098H
	DB	098H
	DB	098H
	DB	098H
	DB	098H
	DB	098H
	DB	098H
	DB	098H
	DB	098H
	DB	098H
	DB	098H
	DB	098H
	DB	098H
	DB	098H
	DB	098H
	DB	098H
	DB	098H
	DB	098H
	DB	098H
	DB	098H
	DB	098H
	DB	098H
	DB	098H
	DB	098H
	DB	098H
	DB	098H
	DB	03H
	DB	03H
	DB	097H
	DB	08aH
	DB	0adH
	DB	011H
	DB	08H
	DB	0c2H
	DB	069H
	DB	080H
	DB	04aH
	DB	049H
	DB	08H
	DB	07H
	DB	0f8H
	DB	0daH
	DB	0ccH
	DB	05aH
	DB	05fH
	DB	05fH
	DB	082H
	DB	042H
	DB	088H
	DB	042H
	DB	08cH
	DB	043H
	DB	034H
	DB	019H
	DB	010H
	DB	010H
	DB	02H
	DB	02H
	DB	010H
	DB	010H
	DB	019H
	DB	024H
	DB	043H
	DB	08cH
	DB	042H
	DB	065H
	DB	081H
	DB	076H
	DB	0c2H
	DB	05H
	DB	05H
	DB	05H
	DB	05H
	DB	05H
	DB	05H
	DB	05H
	DB	05H
	DB	05H
	DB	05H
	DB	05H
	DB	014H
	DB	098H
	DB	0e2H
	DB	057H
	DB	041H
	DB	01H
	DB	0c3H
	DB	03H
	DB	03H
	DB	098H
	DB	098H
	DB	098H
	DB	098H
	DB	098H
	DB	098H
	DB	098H
	DB	098H
	DB	098H
	DB	098H
	DB	098H
	DB	098H
	DB	098H
	DB	098H
	DB	098H
	DB	098H
	DB	098H
	DB	098H
	DB	098H
	DB	098H
	DB	098H
	DB	098H
	DB	098H
	DB	098H
	DB	098H
	DB	098H
	DB	098H
	DB	0c3H
	DB	00H
	DB	00H
	DB	00H
	DB	00H
	DB	00H
	DB	00H
	DB	04H
	DB	06H
	DB	098H
	DB	098H
	DB	098H
	DB	098H
	DB	098H
	DB	098H
	DB	098H
	DB	098H
	DB	098H
	DB	098H
	DB	098H
	DB	098H
	DB	098H
	DB	098H
	DB	098H
	DB	098H
	DB	098H
	DB	098H
	DB	098H
	DB	098H
	DB	098H
	DB	098H
	DB	098H
	DB	098H
	DB	098H
	DB	098H
	DB	098H
	DB	098H
	DB	098H
	DB	098H
	DB	03H
	DB	097H
	DB	0fH
	DB	0fH
	DB	029H
	DB	0aeH
	DB	094H
	DB	049H
	DB	0eaH
	DB	07eH
	DB	084H
	DB	04aH
	DB	0eaH
	DB	0d9H
	DB	0bdH
	DB	0c2H
	DB	0b4H
	DB	066H
	DB	044H
	DB	05fH
	DB	032H
	DB	082H
	DB	064H
	DB	042H
	DB	042H
	DB	042H
	DB	064H
	DB	064H
	DB	03dH
	DB	03dH
	DB	064H
	DB	064H
	DB	042H
	DB	042H
	DB	021H
	DB	08bH
	DB	0c4H
	DB	0efH
	DB	0feH
	DB	05H
	DB	05H
	DB	05H
	DB	05H
	DB	05H
	DB	05H
	DB	05H
	DB	05H
	DB	05H
	DB	05H
	DB	05H
	DB	0ffH
	DB	06aH
	DB	03H
	DB	0c5H
	DB	058H
	DB	011H
	DB	01H
	DB	0c3H
	DB	03H
	DB	03H
	DB	098H
	DB	098H
	DB	098H
	DB	098H
	DB	098H
	DB	098H
	DB	098H
	DB	098H
	DB	098H
	DB	098H
	DB	098H
	DB	098H
	DB	098H
	DB	098H
	DB	098H
	DB	098H
	DB	098H
	DB	098H
	DB	098H
	DB	098H
	DB	098H
	DB	098H
	DB	098H
	DB	098H
	DB	098H
	DB	098H
	DB	098H
	DB	098H
	DB	0c3H
	DB	00H
	DB	00H
	DB	00H
	DB	00H
	DB	00H
	DB	00H
	DB	04H
	DB	06H
	DB	098H
	DB	04H
	DB	04H
	DB	04H
	DB	04H
	DB	04H
	DB	04H
	DB	04H
	DB	04H
	DB	04H
	DB	04H
	DB	04H
	DB	04H
	DB	04H
	DB	04H
	DB	04H
	DB	04H
	DB	04H
	DB	04H
	DB	04H
	DB	04H
	DB	04H
	DB	04H
	DB	04H
	DB	04H
	DB	04H
	DB	04H
	DB	04H
	DB	098H
	DB	098H
	DB	098H
	DB	03H
	DB	097H
	DB	0fH
	DB	0adH
	DB	029H
	DB	09bH
	DB	0bH
	DB	0d9H
	DB	0aH
	DB	084H
	DB	0eaH
	DB	04aH
	DB	0eaH
	DB	01aH
	DB	0dcH
	DB	023H
	DB	02eH
	DB	0c7H
	DB	0b4H
	DB	09fH
	DB	0cbH
	DB	08eH
	DB	05aH
	DB	032H
	DB	082H
	DB	03eH
	DB	03eH
	DB	047H
	DB	03eH
	DB	03eH
	DB	08bH
	DB	08dH
	DB	0afH
	DB	076H
	DB	0a7H
	DB	0ffH
	DB	05H
	DB	05H
	DB	05H
	DB	05H
	DB	05H
	DB	05H
	DB	05H
	DB	05H
	DB	05H
	DB	05H
	DB	05H
	DB	05H
	DB	0eH
	DB	07H
	DB	041H
	DB	0b7H
	DB	0bbH
	DB	041H
	DB	01H
	DB	0c3H
	DB	03H
	DB	03H
	DB	098H
	DB	098H
	DB	04H
	DB	04H
	DB	04H
	DB	04H
	DB	04H
	DB	04H
	DB	04H
	DB	04H
	DB	04H
	DB	04H
	DB	04H
	DB	04H
	DB	04H
	DB	04H
	DB	04H
	DB	04H
	DB	04H
	DB	04H
	DB	04H
	DB	04H
	DB	04H
	DB	04H
	DB	04H
	DB	04H
	DB	04H
	DB	04H
	DB	04H
	DB	0c3H
	DB	00H
	DB	00H
	DB	00H
	DB	00H
	DB	00H
	DB	00H
	DB	04H
	DB	06H
	DB	098H
	DB	04H
	DB	04H
	DB	04H
	DB	04H
	DB	04H
	DB	04H
	DB	04H
	DB	04H
	DB	04H
	DB	04H
	DB	04H
	DB	04H
	DB	04H
	DB	04H
	DB	04H
	DB	04H
	DB	04H
	DB	04H
	DB	04H
	DB	04H
	DB	04H
	DB	04H
	DB	04H
	DB	04H
	DB	04H
	DB	04H
	DB	04H
	DB	04H
	DB	04H
	DB	098H
	DB	098H
	DB	03H
	DB	0c3H
	DB	05bH
	DB	05cH
	DB	030H
	DB	04H
	DB	0aH
	DB	094H
	DB	0aH
	DB	0caH
	DB	07eH
	DB	0ebH
	DB	069H
	DB	08H
	DB	0aeH
	DB	074H
	DB	09bH
	DB	07H
	DB	067H
	DB	023H
	DB	0c8H
	DB	0afH
	DB	09fH
	DB	076H
	DB	076H
	DB	09fH
	DB	076H
	DB	0ceH
	DB	077H
	DB	0bdH
	DB	0bH
	DB	0eH
	DB	094H
	DB	05H
	DB	05H
	DB	05H
	DB	05H
	DB	05H
	DB	05H
	DB	05H
	DB	05H
	DB	05H
	DB	05H
	DB	05H
	DB	05H
	DB	05H
	DB	083H
	DB	06H
	DB	0e7H
	DB	07cH
	DB	0bcH
	DB	03H
	DB	01H
	DB	071H
	DB	03H
	DB	03H
	DB	098H
	DB	04H
	DB	04H
	DB	04H
	DB	04H
	DB	04H
	DB	04H
	DB	04H
	DB	04H
	DB	04H
	DB	04H
	DB	04H
	DB	04H
	DB	04H
	DB	04H
	DB	04H
	DB	04H
	DB	04H
	DB	04H
	DB	04H
	DB	04H
	DB	04H
	DB	04H
	DB	04H
	DB	04H
	DB	04H
	DB	04H
	DB	04H
	DB	04H
	DB	04H
	DB	03H
	DB	00H
	DB	00H
	DB	00H
	DB	00H
	DB	00H
	DB	00H
	DB	04H
	DB	0e0H
	DB	04H
	DB	04H
	DB	04H
	DB	04H
	DB	04H
	DB	04H
	DB	04H
	DB	04H
	DB	04H
	DB	04H
	DB	04H
	DB	04H
	DB	04H
	DB	04H
	DB	04H
	DB	04H
	DB	04H
	DB	04H
	DB	04H
	DB	04H
	DB	04H
	DB	04H
	DB	04H
	DB	04H
	DB	04H
	DB	04H
	DB	04H
	DB	04H
	DB	04H
	DB	04H
	DB	04H
	DB	098H
	DB	098H
	DB	03H
	DB	0c3H
	DB	0fH
	DB	0b6H
	DB	068H
	DB	03H
	DB	06aH
	DB	094H
	DB	0bH
	DB	0d9H
	DB	07eH
	DB	0ebH
	DB	084H
	DB	083H
	DB	0eaH
	DB	08H
	DB	07H
	DB	080H
	DB	0e0H
	DB	07H
	DB	06H
	DB	09bH
	DB	0aeH
	DB	0aeH
	DB	049H
	DB	08fH
	DB	049H
	DB	01cH
	DB	0aH
	DB	094H
	DB	095H
	DB	061H
	DB	083H
	DB	013H
	DB	05H
	DB	05H
	DB	05H
	DB	05H
	DB	05H
	DB	05H
	DB	05H
	DB	05H
	DB	05H
	DB	094H
	DB	08H
	DB	011H
	DB	0b7H
	DB	0a8H
	DB	0b7H
	DB	097H
	DB	01H
	DB	0c3H
	DB	03H
	DB	098H
	DB	098H
	DB	04H
	DB	04H
	DB	04H
	DB	04H
	DB	04H
	DB	04H
	DB	04H
	DB	04H
	DB	04H
	DB	04H
	DB	04H
	DB	04H
	DB	04H
	DB	04H
	DB	04H
	DB	04H
	DB	04H
	DB	04H
	DB	04H
	DB	04H
	DB	04H
	DB	04H
	DB	04H
	DB	04H
	DB	04H
	DB	04H
	DB	04H
	DB	04H
	DB	04H
	DB	04H
	DB	03H
	DB	00H
	DB	00H
	DB	00H
	DB	00H
	DB	00H
	DB	00H
	DB	04H
	DB	0e0H
	DB	04H
	DB	04H
	DB	04H
	DB	04H
	DB	04H
	DB	04H
	DB	04H
	DB	04H
	DB	04H
	DB	04H
	DB	04H
	DB	04H
	DB	04H
	DB	04H
	DB	04H
	DB	04H
	DB	04H
	DB	04H
	DB	04H
	DB	04H
	DB	04H
	DB	04H
	DB	04H
	DB	04H
	DB	04H
	DB	04H
	DB	04H
	DB	04H
	DB	04H
	DB	04H
	DB	04H
	DB	04H
	DB	098H
	DB	098H
	DB	03H
	DB	097H
	DB	029H
	DB	090H
	DB	0b6H
	DB	041H
	DB	04H
	DB	05dH
	DB	0f7H
	DB	0aH
	DB	084H
	DB	084H
	DB	07eH
	DB	084H
	DB	0caH
	DB	0aeH
	DB	080H
	DB	0aeH
	DB	074H
	DB	080H
	DB	080H
	DB	074H
	DB	074H
	DB	05dH
	DB	05dH
	DB	05dH
	DB	0b1H
	DB	01cH
	DB	01aH
	DB	094H
	DB	061H
	DB	0ebH
	DB	0eH
	DB	05H
	DB	05H
	DB	05H
	DB	05H
	DB	05H
	DB	05H
	DB	05H
	DB	086H
	DB	049H
	DB	06H
	DB	0c6H
	DB	07cH
	DB	0fcH
	DB	03aH
	DB	01H
	DB	097H
	DB	03H
	DB	03H
	DB	098H
	DB	098H
	DB	04H
	DB	04H
	DB	04H
	DB	04H
	DB	04H
	DB	04H
	DB	04H
	DB	04H
	DB	04H
	DB	04H
	DB	04H
	DB	04H
	DB	04H
	DB	04H
	DB	04H
	DB	04H
	DB	04H
	DB	04H
	DB	04H
	DB	04H
	DB	04H
	DB	04H
	DB	04H
	DB	04H
	DB	04H
	DB	04H
	DB	04H
	DB	04H
	DB	04H
	DB	04H
	DB	04H
	DB	03H
	DB	00H
	DB	00H
	DB	00H
	DB	00H
	DB	00H
	DB	00H
	DB	04H
	DB	0e0H
	DB	04H
	DB	04H
	DB	04H
	DB	04H
	DB	04H
	DB	04H
	DB	04H
	DB	04H
	DB	04H
	DB	04H
	DB	04H
	DB	04H
	DB	04H
	DB	04H
	DB	04H
	DB	04H
	DB	04H
	DB	04H
	DB	04H
	DB	04H
	DB	04H
	DB	04H
	DB	04H
	DB	04H
	DB	04H
	DB	04H
	DB	04H
	DB	04H
	DB	04H
	DB	04H
	DB	04H
	DB	04H
	DB	04H
	DB	04H
	DB	098H
	DB	098H
	DB	071H
	DB	097H
	DB	04dH
	DB	0bcH
	DB	09dH
	DB	041H
	DB	06H
	DB	08fH
	DB	061H
	DB	07eH
	DB	083H
	DB	0caH
	DB	0caH
	DB	0ebH
	DB	049H
	DB	0b1H
	DB	049H
	DB	069H
	DB	069H
	DB	069H
	DB	05dH
	DB	05dH
	DB	05dH
	DB	05dH
	DB	0b1H
	DB	01cH
	DB	061H
	DB	0bfH
	DB	061H
	DB	061H
	DB	0bfH
	DB	05H
	DB	05H
	DB	05H
	DB	05H
	DB	05H
	DB	0feH
	DB	04aH
	DB	09bH
	DB	0e2H
	DB	0a5H
	DB	0a8H
	DB	0bbH
	DB	041H
	DB	00H
	DB	097H
	DB	03H
	DB	03H
	DB	098H
	DB	04H
	DB	04H
	DB	04H
	DB	04H
	DB	04H
	DB	04H
	DB	04H
	DB	04H
	DB	04H
	DB	04H
	DB	04H
	DB	04H
	DB	04H
	DB	04H
	DB	04H
	DB	04H
	DB	04H
	DB	04H
	DB	04H
	DB	04H
	DB	04H
	DB	04H
	DB	04H
	DB	04H
	DB	04H
	DB	04H
	DB	04H
	DB	04H
	DB	04H
	DB	04H
	DB	04H
	DB	04H
	DB	04H
	DB	03H
	DB	00H
	DB	00H
	DB	00H
	DB	00H
	DB	00H
	DB	00H
	DB	04H
	DB	0e0H
	DB	04H
	DB	0dfH
	DB	0dfH
	DB	0dfH
	DB	0dfH
	DB	0dfH
	DB	0dfH
	DB	0dfH
	DB	0dfH
	DB	0dfH
	DB	0dfH
	DB	0dfH
	DB	0dfH
	DB	0dfH
	DB	0dfH
	DB	0dfH
	DB	0dfH
	DB	0dfH
	DB	0dfH
	DB	0dfH
	DB	0dfH
	DB	0dfH
	DB	0dfH
	DB	0dfH
	DB	0dfH
	DB	0dfH
	DB	0dfH
	DB	0dfH
	DB	0dfH
	DB	0dfH
	DB	0dfH
	DB	0dfH
	DB	04H
	DB	04H
	DB	04H
	DB	098H
	DB	098H
	DB	03H
	DB	097H
	DB	011H
	DB	0bcH
	DB	07cH
	DB	0eeH
	DB	0e2H
	DB	06H
	DB	014H
	DB	07eH
	DB	095H
	DB	0d9H
	DB	04aH
	DB	049H
	DB	049H
	DB	04aH
	DB	08fH
	DB	049H
	DB	08fH
	DB	05dH
	DB	08fH
	DB	069H
	DB	069H
	DB	09H
	DB	014H
	DB	01cH
	DB	061H
	DB	0bfH
	DB	0aH
	DB	094H
	DB	05H
	DB	05H
	DB	013H
	DB	0dcH
	DB	09H
	DB	0fH
	DB	03aH
	DB	0d7H
	DB	0a8H
	DB	0fcH
	DB	03aH
	DB	097H
	DB	01H
	DB	071H
	DB	03H
	DB	098H
	DB	098H
	DB	04H
	DB	04H
	DB	04H
	DB	04H
	DB	0dfH
	DB	0dfH
	DB	0dfH
	DB	0dfH
	DB	0dfH
	DB	0dfH
	DB	0dfH
	DB	0dfH
	DB	0dfH
	DB	0dfH
	DB	0dfH
	DB	0dfH
	DB	0dfH
	DB	0dfH
	DB	0dfH
	DB	0dfH
	DB	0dfH
	DB	0dfH
	DB	0dfH
	DB	0dfH
	DB	0dfH
	DB	0dfH
	DB	0dfH
	DB	0dfH
	DB	0dfH
	DB	0dfH
	DB	0dfH
	DB	0dfH
	DB	0dfH
	DB	0dfH
	DB	03H
	DB	00H
	DB	00H
	DB	00H
	DB	00H
	DB	00H
	DB	00H
	DB	04H
	DB	0e0H
	DB	0dfH
	DB	0dfH
	DB	0dfH
	DB	0dfH
	DB	0dfH
	DB	0dfH
	DB	0dfH
	DB	0dfH
	DB	0dfH
	DB	0dfH
	DB	0dfH
	DB	0dfH
	DB	0dfH
	DB	0dfH
	DB	0dfH
	DB	0dfH
	DB	0dfH
	DB	0dfH
	DB	0dfH
	DB	0dfH
	DB	0dfH
	DB	0dfH
	DB	0dfH
	DB	0dfH
	DB	0dfH
	DB	0dfH
	DB	0dfH
	DB	0dfH
	DB	0dfH
	DB	0dfH
	DB	0dfH
	DB	0dfH
	DB	0dfH
	DB	0dfH
	DB	04H
	DB	04H
	DB	04H
	DB	098H
	DB	03H
	DB	097H
	DB	071H
	DB	0c5H
	DB	07cH
	DB	0d8H
	DB	0a5H
	DB	0e7H
	DB	0fH
	DB	05eH
	DB	0c2H
	DB	0ffH
	DB	0cH
	DB	0bH
	DB	07eH
	DB	061H
	DB	04aH
	DB	014H
	DB	049H
	DB	049H
	DB	04aH
	DB	049H
	DB	0f7H
	DB	0aH
	DB	094H
	DB	0ffH
	DB	013H
	DB	0ffH
	DB	0ffH
	DB	094H
	DB	0baH
	DB	07H
	DB	08aH
	DB	09dH
	DB	07cH
	DB	0fdH
	DB	0a8H
	DB	0b6H
	DB	03H
	DB	01H
	DB	097H
	DB	03H
	DB	03H
	DB	098H
	DB	04H
	DB	04H
	DB	04H
	DB	0dfH
	DB	0dfH
	DB	0dfH
	DB	0dfH
	DB	0dfH
	DB	0dfH
	DB	0dfH
	DB	0dfH
	DB	0dfH
	DB	0dfH
	DB	0dfH
	DB	0dfH
	DB	0dfH
	DB	0dfH
	DB	0dfH
	DB	0dfH
	DB	0dfH
	DB	0dfH
	DB	0dfH
	DB	0dfH
	DB	0dfH
	DB	0dfH
	DB	0dfH
	DB	0dfH
	DB	0dfH
	DB	0dfH
	DB	0dfH
	DB	0dfH
	DB	0dfH
	DB	0dfH
	DB	0dfH
	DB	0dfH
	DB	0dfH
	DB	03H
	DB	00H
	DB	00H
	DB	00H
	DB	00H
	DB	00H
	DB	00H
	DB	04H
	DB	0e0H
	DB	0dfH
	DB	0dfH
	DB	0dfH
	DB	0dfH
	DB	0dfH
	DB	0dfH
	DB	0dfH
	DB	0dfH
	DB	0dfH
	DB	0dfH
	DB	0dfH
	DB	0dfH
	DB	0dfH
	DB	0dfH
	DB	0dfH
	DB	0dfH
	DB	0dfH
	DB	0dfH
	DB	0dfH
	DB	0dfH
	DB	0dfH
	DB	0dfH
	DB	0dfH
	DB	0dfH
	DB	0dfH
	DB	0dfH
	DB	0dfH
	DB	0dfH
	DB	0dfH
	DB	0dfH
	DB	0dfH
	DB	0dfH
	DB	0dfH
	DB	0dfH
	DB	0dfH
	DB	0dfH
	DB	04H
	DB	04H
	DB	04H
	DB	098H
	DB	03H
	DB	097H
	DB	071H
	DB	0c5H
	DB	0a5H
	DB	0d8H
	DB	0a5H
	DB	0e8H
	DB	08aH
	DB	07H
	DB	09H
	DB	061H
	DB	094H
	DB	0feH
	DB	0ffH
	DB	0ffH
	DB	0ffH
	DB	05H
	DB	05H
	DB	013H
	DB	0ffH
	DB	0feH
	DB	0eH
	DB	01aH
	DB	0baH
	DB	06aH
	DB	022H
	DB	0c5H
	DB	0b6H
	DB	036H
	DB	0ddH
	DB	0ddH
	DB	051H
	DB	04dH
	DB	03H
	DB	01H
	DB	097H
	DB	03H
	DB	03H
	DB	098H
	DB	04H
	DB	04H
	DB	04H
	DB	0dfH
	DB	0dfH
	DB	0dfH
	DB	0dfH
	DB	0dfH
	DB	0dfH
	DB	0dfH
	DB	0dfH
	DB	0dfH
	DB	0dfH
	DB	0dfH
	DB	0dfH
	DB	0dfH
	DB	0dfH
	DB	0dfH
	DB	0dfH
	DB	0dfH
	DB	0dfH
	DB	0dfH
	DB	0dfH
	DB	0dfH
	DB	0dfH
	DB	0dfH
	DB	0dfH
	DB	0dfH
	DB	0dfH
	DB	0dfH
	DB	0dfH
	DB	0dfH
	DB	0dfH
	DB	0dfH
	DB	0dfH
	DB	0dfH
	DB	0dfH
	DB	0dfH
	DB	03H
	DB	00H
	DB	00H
	DB	00H
	DB	00H
	DB	00H
	DB	00H
	DB	04H
	DB	07H
	DB	0dfH
	DB	0acH
	DB	0acH
	DB	0acH
	DB	0acH
	DB	0acH
	DB	0acH
	DB	0acH
	DB	0acH
	DB	0acH
	DB	0acH
	DB	0acH
	DB	0acH
	DB	0acH
	DB	0acH
	DB	0acH
	DB	0acH
	DB	0acH
	DB	0acH
	DB	0acH
	DB	0acH
	DB	0acH
	DB	0acH
	DB	0acH
	DB	0acH
	DB	0acH
	DB	0acH
	DB	0acH
	DB	0acH
	DB	0acH
	DB	0acH
	DB	0acH
	DB	0acH
	DB	0acH
	DB	0acH
	DB	0acH
	DB	0dfH
	DB	0dfH
	DB	04H
	DB	04H
	DB	04H
	DB	098H
	DB	03H
	DB	097H
	DB	071H
	DB	041H
	DB	09dH
	DB	0d7H
	DB	07cH
	DB	07cH
	DB	0f6H
	DB	0b0H
	DB	03aH
	DB	068H
	DB	067H
	DB	08H
	DB	06aH
	DB	06aH
	DB	052H
	DB	052H
	DB	023H
	DB	068H
	DB	068H
	DB	09dH
	DB	0d4H
	DB	036H
	DB	096H
	DB	02dH
	DB	05H
	DB	02dH
	DB	07dH
	DB	07H
	DB	03H
	DB	01H
	DB	097H
	DB	03H
	DB	03H
	DB	098H
	DB	098H
	DB	04H
	DB	04H
	DB	0dfH
	DB	0dfH
	DB	0acH
	DB	0acH
	DB	0acH
	DB	0acH
	DB	0acH
	DB	0acH
	DB	0acH
	DB	0acH
	DB	0acH
	DB	0acH
	DB	0acH
	DB	0acH
	DB	0acH
	DB	0acH
	DB	0acH
	DB	0acH
	DB	0acH
	DB	0acH
	DB	0acH
	DB	0acH
	DB	0acH
	DB	0acH
	DB	0acH
	DB	0acH
	DB	0acH
	DB	0acH
	DB	0acH
	DB	0acH
	DB	0acH
	DB	0acH
	DB	0acH
	DB	0acH
	DB	0acH
	DB	0acH
	DB	0acH
	DB	03H
	DB	00H
	DB	00H
	DB	00H
	DB	00H
	DB	00H
	DB	00H
	DB	04H
	DB	07H
	DB	0acH
	DB	0acH
	DB	0acH
	DB	0acH
	DB	0acH
	DB	0acH
	DB	0acH
	DB	0acH
	DB	0acH
	DB	0acH
	DB	0acH
	DB	0acH
	DB	0acH
	DB	0acH
	DB	0acH
	DB	0acH
	DB	0acH
	DB	0acH
	DB	0acH
	DB	0acH
	DB	0acH
	DB	0acH
	DB	0acH
	DB	0acH
	DB	0acH
	DB	0acH
	DB	0acH
	DB	0acH
	DB	0acH
	DB	0acH
	DB	0acH
	DB	0acH
	DB	0acH
	DB	0acH
	DB	0acH
	DB	0acH
	DB	0acH
	DB	0acH
	DB	0acH
	DB	0dfH
	DB	0dfH
	DB	04H
	DB	04H
	DB	098H
	DB	03H
	DB	071H
	DB	01H
	DB	097H
	DB	089H
	DB	03aH
	DB	093H
	DB	02cH
	DB	096H
	DB	02dH
	DB	02fH
	DB	0a9H
	DB	02fH
	DB	0ffH
	DB	02fH
	DB	02dH
	DB	02dH
	DB	02dH
	DB	02dH
	DB	02dH
	DB	02dH
	DB	02dH
	DB	0a7H
	DB	077H
	DB	07H
	DB	03H
	DB	00H
	DB	01H
	DB	0c3H
	DB	03H
	DB	098H
	DB	098H
	DB	04H
	DB	04H
	DB	0dfH
	DB	0dfH
	DB	0acH
	DB	0acH
	DB	0acH
	DB	0acH
	DB	0acH
	DB	0acH
	DB	0acH
	DB	0acH
	DB	0acH
	DB	0acH
	DB	0acH
	DB	0acH
	DB	0acH
	DB	0acH
	DB	0acH
	DB	0acH
	DB	0acH
	DB	0acH
	DB	0acH
	DB	0acH
	DB	0acH
	DB	0acH
	DB	0acH
	DB	0acH
	DB	0acH
	DB	0acH
	DB	0acH
	DB	0acH
	DB	0acH
	DB	0acH
	DB	0acH
	DB	0acH
	DB	0acH
	DB	0acH
	DB	0acH
	DB	0acH
	DB	0acH
	DB	0acH
	DB	098H
	DB	00H
	DB	00H
	DB	00H
	DB	00H
	DB	00H
	DB	00H
	DB	04H
	DB	07H
	DB	0acH
	DB	06H
	DB	06H
	DB	06H
	DB	06H
	DB	06H
	DB	06H
	DB	06H
	DB	06H
	DB	06H
	DB	06H
	DB	06H
	DB	06H
	DB	06H
	DB	06H
	DB	06H
	DB	06H
	DB	06H
	DB	06H
	DB	06H
	DB	06H
	DB	06H
	DB	06H
	DB	06H
	DB	06H
	DB	06H
	DB	06H
	DB	06H
	DB	06H
	DB	06H
	DB	06H
	DB	06H
	DB	06H
	DB	06H
	DB	06H
	DB	06H
	DB	06H
	DB	06H
	DB	06H
	DB	06H
	DB	0acH
	DB	0acH
	DB	0dfH
	DB	04H
	DB	04H
	DB	098H
	DB	098H
	DB	03H
	DB	097H
	DB	097H
	DB	097H
	DB	097H
	DB	098H
	DB	07H
	DB	09H
	DB	0d3H
	DB	0f8H
	DB	0aH
	DB	0aH
	DB	0bdH
	DB	0bdH
	DB	01cH
	DB	0c9H
	DB	08H
	DB	0acH
	DB	03H
	DB	097H
	DB	01H
	DB	01H
	DB	0c3H
	DB	03H
	DB	098H
	DB	098H
	DB	098H
	DB	04H
	DB	04H
	DB	0dfH
	DB	0dfH
	DB	0acH
	DB	06H
	DB	06H
	DB	06H
	DB	06H
	DB	06H
	DB	06H
	DB	06H
	DB	06H
	DB	06H
	DB	06H
	DB	06H
	DB	06H
	DB	06H
	DB	06H
	DB	06H
	DB	06H
	DB	06H
	DB	06H
	DB	06H
	DB	06H
	DB	06H
	DB	06H
	DB	06H
	DB	06H
	DB	06H
	DB	06H
	DB	06H
	DB	06H
	DB	06H
	DB	06H
	DB	06H
	DB	06H
	DB	06H
	DB	06H
	DB	06H
	DB	06H
	DB	06H
	DB	06H
	DB	06H
	DB	098H
	DB	00H
	DB	00H
	DB	00H
	DB	00H
	DB	00H
	DB	00H
	DB	0dfH
	DB	07H
	DB	06H
	DB	06H
	DB	06H
	DB	06H
	DB	06H
	DB	06H
	DB	06H
	DB	06H
	DB	06H
	DB	06H
	DB	06H
	DB	06H
	DB	06H
	DB	06H
	DB	06H
	DB	06H
	DB	06H
	DB	06H
	DB	06H
	DB	06H
	DB	06H
	DB	06H
	DB	06H
	DB	06H
	DB	06H
	DB	06H
	DB	06H
	DB	06H
	DB	06H
	DB	06H
	DB	06H
	DB	06H
	DB	06H
	DB	06H
	DB	06H
	DB	06H
	DB	06H
	DB	06H
	DB	06H
	DB	06H
	DB	06H
	DB	06H
	DB	06H
	DB	0acH
	DB	0dfH
	DB	0dfH
	DB	04H
	DB	04H
	DB	098H
	DB	098H
	DB	098H
	DB	03H
	DB	071H
	DB	097H
	DB	01H
	DB	01H
	DB	01H
	DB	00H
	DB	00H
	DB	00H
	DB	00H
	DB	01H
	DB	01H
	DB	097H
	DB	097H
	DB	0c3H
	DB	03H
	DB	03H
	DB	098H
	DB	098H
	DB	098H
	DB	04H
	DB	04H
	DB	0dfH
	DB	0dfH
	DB	0acH
	DB	06H
	DB	06H
	DB	06H
	DB	06H
	DB	06H
	DB	06H
	DB	06H
	DB	06H
	DB	06H
	DB	06H
	DB	06H
	DB	06H
	DB	06H
	DB	06H
	DB	06H
	DB	06H
	DB	06H
	DB	06H
	DB	06H
	DB	06H
	DB	06H
	DB	06H
	DB	06H
	DB	06H
	DB	06H
	DB	06H
	DB	06H
	DB	06H
	DB	06H
	DB	06H
	DB	06H
	DB	06H
	DB	06H
	DB	06H
	DB	06H
	DB	06H
	DB	06H
	DB	06H
	DB	06H
	DB	06H
	DB	06H
	DB	06H
	DB	098H
	DB	00H
	DB	00H
	DB	00H
	DB	00H
	DB	00H
	DB	00H
	DB	04H
	DB	07H
	DB	06H
	DB	06H
	DB	06H
	DB	06H
	DB	06H
	DB	06H
	DB	06H
	DB	06H
	DB	06H
	DB	06H
	DB	06H
	DB	06H
	DB	06H
	DB	06H
	DB	06H
	DB	06H
	DB	06H
	DB	06H
	DB	06H
	DB	06H
	DB	06H
	DB	06H
	DB	06H
	DB	06H
	DB	06H
	DB	06H
	DB	06H
	DB	06H
	DB	06H
	DB	06H
	DB	06H
	DB	06H
	DB	06H
	DB	06H
	DB	06H
	DB	06H
	DB	06H
	DB	06H
	DB	06H
	DB	06H
	DB	06H
	DB	06H
	DB	06H
	DB	06H
	DB	06H
	DB	06H
	DB	0acH
	DB	0acH
	DB	0dfH
	DB	04H
	DB	04H
	DB	04H
	DB	04H
	DB	098H
	DB	098H
	DB	098H
	DB	098H
	DB	098H
	DB	098H
	DB	098H
	DB	098H
	DB	098H
	DB	098H
	DB	098H
	DB	098H
	DB	098H
	DB	04H
	DB	04H
	DB	04H
	DB	04H
	DB	0dfH
	DB	0acH
	DB	0acH
	DB	06H
	DB	06H
	DB	06H
	DB	06H
	DB	06H
	DB	06H
	DB	06H
	DB	06H
	DB	06H
	DB	06H
	DB	06H
	DB	06H
	DB	06H
	DB	06H
	DB	06H
	DB	06H
	DB	06H
	DB	06H
	DB	06H
	DB	06H
	DB	06H
	DB	06H
	DB	06H
	DB	06H
	DB	06H
	DB	06H
	DB	06H
	DB	06H
	DB	06H
	DB	06H
	DB	06H
	DB	06H
	DB	06H
	DB	06H
	DB	06H
	DB	06H
	DB	06H
	DB	06H
	DB	06H
	DB	06H
	DB	06H
	DB	06H
	DB	06H
	DB	06H
	DB	06H
	DB	098H
	DB	00H
	DB	00H
	DB	00H
	DB	00H
	DB	00H
	DB	00H
	DB	098H
	DB	0e0H
	DB	06H
	DB	06H
	DB	06H
	DB	06H
	DB	06H
	DB	06H
	DB	06H
	DB	06H
	DB	06H
	DB	06H
	DB	06H
	DB	06H
	DB	06H
	DB	06H
	DB	06H
	DB	06H
	DB	06H
	DB	06H
	DB	06H
	DB	06H
	DB	06H
	DB	06H
	DB	06H
	DB	06H
	DB	06H
	DB	06H
	DB	06H
	DB	06H
	DB	06H
	DB	06H
	DB	06H
	DB	06H
	DB	06H
	DB	06H
	DB	06H
	DB	06H
	DB	06H
	DB	06H
	DB	06H
	DB	06H
	DB	06H
	DB	06H
	DB	06H
	DB	06H
	DB	06H
	DB	06H
	DB	06H
	DB	06H
	DB	06H
	DB	06H
	DB	06H
	DB	0acH
	DB	0dfH
	DB	0dfH
	DB	0dfH
	DB	04H
	DB	04H
	DB	04H
	DB	04H
	DB	04H
	DB	04H
	DB	04H
	DB	04H
	DB	0dfH
	DB	0dfH
	DB	0dfH
	DB	0dfH
	DB	0acH
	DB	0acH
	DB	06H
	DB	06H
	DB	06H
	DB	06H
	DB	06H
	DB	06H
	DB	06H
	DB	06H
	DB	06H
	DB	06H
	DB	06H
	DB	06H
	DB	06H
	DB	06H
	DB	06H
	DB	06H
	DB	06H
	DB	06H
	DB	06H
	DB	06H
	DB	06H
	DB	06H
	DB	06H
	DB	06H
	DB	06H
	DB	06H
	DB	06H
	DB	06H
	DB	06H
	DB	06H
	DB	06H
	DB	06H
	DB	06H
	DB	06H
	DB	06H
	DB	06H
	DB	06H
	DB	06H
	DB	06H
	DB	06H
	DB	06H
	DB	06H
	DB	06H
	DB	06H
	DB	06H
	DB	06H
	DB	06H
	DB	06H
	DB	06H
	DB	03H
	DB	00H
	DB	00H
	DB	00H
	DB	00H
	DB	00H
	DB	00H
	DB	01H
	DB	04H
	DB	06H
	DB	0e0H
	DB	0e0H
	DB	0e0H
	DB	0e0H
	DB	0e0H
	DB	0e0H
	DB	0e0H
	DB	0e0H
	DB	0e0H
	DB	0e0H
	DB	0e0H
	DB	0e0H
	DB	0e0H
	DB	0e0H
	DB	0e0H
	DB	0e0H
	DB	0e0H
	DB	0e0H
	DB	0e0H
	DB	0e0H
	DB	0e0H
	DB	0e0H
	DB	0e0H
	DB	0e0H
	DB	0e0H
	DB	0e0H
	DB	0e0H
	DB	0e0H
	DB	0e0H
	DB	0e0H
	DB	0e0H
	DB	0e0H
	DB	0e0H
	DB	0e0H
	DB	0e0H
	DB	0e0H
	DB	0e0H
	DB	0e0H
	DB	0e0H
	DB	0e0H
	DB	0e0H
	DB	0e0H
	DB	0e0H
	DB	0e0H
	DB	0e0H
	DB	0e0H
	DB	0e0H
	DB	0e0H
	DB	0e0H
	DB	0e0H
	DB	0e0H
	DB	06H
	DB	06H
	DB	06H
	DB	06H
	DB	06H
	DB	06H
	DB	06H
	DB	06H
	DB	06H
	DB	06H
	DB	06H
	DB	06H
	DB	06H
	DB	06H
	DB	06H
	DB	0e0H
	DB	0e0H
	DB	0e0H
	DB	0e0H
	DB	0e0H
	DB	0e0H
	DB	0e0H
	DB	0e0H
	DB	0e0H
	DB	0e0H
	DB	0e0H
	DB	0e0H
	DB	0e0H
	DB	0e0H
	DB	0e0H
	DB	0e0H
	DB	0e0H
	DB	0e0H
	DB	0e0H
	DB	0e0H
	DB	0e0H
	DB	0e0H
	DB	0e0H
	DB	0e0H
	DB	0e0H
	DB	0e0H
	DB	0e0H
	DB	0e0H
	DB	0e0H
	DB	0e0H
	DB	0e0H
	DB	0e0H
	DB	0e0H
	DB	0e0H
	DB	0e0H
	DB	0e0H
	DB	0e0H
	DB	0e0H
	DB	0e0H
	DB	0e0H
	DB	0e0H
	DB	0e0H
	DB	0e0H
	DB	0e0H
	DB	0e0H
	DB	0e0H
	DB	0e0H
	DB	0e0H
	DB	0e0H
	DB	06H
	DB	098H
	DB	01H
	DB	00H
	DB	00H
	DB	00H
	DB	00H
	DB	00H
	DB	00H
	DB	00H
	DB	097H
	DB	03H
	DB	03H
	DB	098H
	DB	098H
	DB	098H
	DB	098H
	DB	098H
	DB	098H
	DB	098H
	DB	098H
	DB	098H
	DB	098H
	DB	098H
	DB	098H
	DB	098H
	DB	098H
	DB	098H
	DB	098H
	DB	098H
	DB	098H
	DB	098H
	DB	098H
	DB	098H
	DB	098H
	DB	098H
	DB	098H
	DB	098H
	DB	098H
	DB	098H
	DB	098H
	DB	098H
	DB	098H
	DB	098H
	DB	098H
	DB	098H
	DB	098H
	DB	098H
	DB	098H
	DB	098H
	DB	098H
	DB	098H
	DB	098H
	DB	098H
	DB	098H
	DB	098H
	DB	098H
	DB	098H
	DB	098H
	DB	098H
	DB	098H
	DB	098H
	DB	098H
	DB	098H
	DB	098H
	DB	098H
	DB	098H
	DB	098H
	DB	03H
	DB	03H
	DB	03H
	DB	03H
	DB	03H
	DB	098H
	DB	098H
	DB	098H
	DB	098H
	DB	098H
	DB	098H
	DB	098H
	DB	098H
	DB	098H
	DB	098H
	DB	098H
	DB	098H
	DB	098H
	DB	098H
	DB	098H
	DB	098H
	DB	098H
	DB	098H
	DB	098H
	DB	098H
	DB	098H
	DB	098H
	DB	098H
	DB	098H
	DB	098H
	DB	098H
	DB	098H
	DB	098H
	DB	098H
	DB	098H
	DB	098H
	DB	098H
	DB	098H
	DB	098H
	DB	098H
	DB	098H
	DB	098H
	DB	098H
	DB	098H
	DB	098H
	DB	098H
	DB	098H
	DB	098H
	DB	098H
	DB	098H
	DB	098H
	DB	098H
	DB	098H
	DB	098H
	DB	098H
	DB	098H
	DB	098H
	DB	098H
	DB	03H
	DB	03H
	DB	097H
	DB	00H
	DB	00H
	DB	00H
	DB	00H
	DB	00H
	DB	00H
	DB	00H
	DB	00H
	DB	00H
	DB	00H
	DB	00H
	DB	00H
	DB	00H
	DB	00H
	DB	00H
	DB	00H
	DB	00H
	DB	00H
	DB	00H
	DB	00H
	DB	00H
	DB	00H
	DB	00H
	DB	00H
	DB	00H
	DB	00H
	DB	00H
	DB	00H
	DB	00H
	DB	00H
	DB	00H
	DB	00H
	DB	00H
	DB	00H
	DB	00H
	DB	00H
	DB	00H
	DB	00H
	DB	00H
	DB	00H
	DB	00H
	DB	00H
	DB	00H
	DB	00H
	DB	00H
	DB	00H
	DB	00H
	DB	00H
	DB	00H
	DB	00H
	DB	00H
	DB	00H
	DB	00H
	DB	00H
	DB	00H
	DB	00H
	DB	00H
	DB	00H
	DB	00H
	DB	00H
	DB	00H
	DB	00H
	DB	00H
	DB	00H
	DB	00H
	DB	00H
	DB	00H
	DB	00H
	DB	00H
	DB	00H
	DB	00H
	DB	00H
	DB	00H
	DB	00H
	DB	00H
	DB	00H
	DB	00H
	DB	00H
	DB	00H
	DB	00H
	DB	00H
	DB	00H
	DB	00H
	DB	00H
	DB	00H
	DB	00H
	DB	00H
	DB	00H
	DB	00H
	DB	00H
	DB	00H
	DB	00H
	DB	00H
	DB	00H
	DB	00H
	DB	00H
	DB	00H
	DB	00H
	DB	00H
	DB	00H
	DB	00H
	DB	00H
	DB	00H
	DB	00H
	DB	00H
	DB	00H
	DB	00H
	DB	00H
	DB	00H
	DB	00H
	DB	00H
	DB	00H
	DB	00H
	DB	00H
	DB	00H
	DB	00H
	DB	00H
	DB	00H
	DB	00H
	DB	00H
	DB	00H
	DB	00H
	DB	00H
	DB	00H
	DB	00H
	DB	00H
	DB	00H
	DB	00H
	DB	00H
	DB	00H
	DB	00H
	DB	00H
	DB	00H
	DB	00H
	DB	00H
	DB	00H
	DB	00H
	DB	00H
	DB	00H
	DB	00H
	DB	00H
	DB	00H
	DB	00H
	DB	00H
	DB	00H
	DB	00H
	DB	00H
	DB	00H
	DB	00H
	DB	00H
	DB	00H
	DB	00H
	DB	00H
	DB	00H
	DB	00H
	DB	00H
	DB	00H
	DB	00H
	DB	00H
	DB	00H
	DB	00H
	DB	00H
	DB	00H
	DB	00H
	DB	00H
	DB	00H
	DB	00H
	DB	00H
	DB	00H
	DB	00H
	DB	00H
	DB	00H
	DB	00H
	DB	00H
	DB	00H
	DB	00H
	DB	00H
	DB	00H
	DB	00H
	DB	00H
	DB	00H
	DB	00H
	DB	00H
	DB	00H
	DB	00H
	DB	00H
	DB	00H
	DB	00H
	DB	00H
	DB	00H
	DB	00H
	DB	00H
	DB	00H
	DB	00H
	DB	00H
	DB	00H
	DB	00H
	DB	00H
	DB	00H
	DB	00H
	DB	00H
	DB	00H
	DB	00H
	DB	00H
	DB	00H
	DB	00H
	DB	00H
	DB	00H
	DB	00H
	DB	00H
	DB	00H
	DB	00H
	DB	00H
	DB	00H
	DB	00H
	DB	00H
	DB	00H
	DB	00H
	DB	00H
	DB	00H
	DB	00H
	DB	00H
	DB	00H
	DB	00H
	DB	00H
	DB	00H
	DB	00H
	DB	00H
	DB	00H
	DB	00H
	DB	00H
	DB	00H
	DB	00H
	DB	00H
	DB	00H
	DB	00H
	DB	00H
	DB	00H
	DB	00H
	DB	00H
	DB	00H
	DB	00H
	DB	00H
	DB	00H
	DB	00H
	DB	00H
	DB	00H
	DB	00H
	DB	00H
	DB	00H
	DB	00H
	DB	00H
	DB	00H
	DB	00H
	DB	00H
	DB	00H
	DB	00H
	DB	00H
	DB	00H
	DB	00H
	DB	00H
	DB	00H
	DB	00H
	DB	00H
	DB	00H
	DB	00H
	DB	00H
	DB	00H
	DB	00H
	DB	00H
	DB	00H
	DB	00H
	DB	00H
	DB	00H
	DB	00H
	DB	00H
	DB	00H
	DB	00H
	DB	00H
	DB	00H
	DB	00H
	DB	00H
	DB	00H
	DB	00H
	DB	00H
	DB	00H
	DB	00H
	DB	00H
	DB	00H
	DB	00H
	DB	00H
	DB	00H
	DB	00H
	DB	00H
	DB	00H
	DB	00H
	DB	00H
	DB	00H
	DB	00H
	DB	00H
	DB	00H
	DB	00H
	DB	00H
	DB	00H
	DB	00H
	DB	00H
	DB	00H
	DB	00H
	DB	00H
	DB	00H
	DB	00H
	DB	00H
	DB	00H
	DB	00H
	DB	00H
	DB	00H
	DB	00H
	DB	00H
	DB	00H
	DB	00H
	DB	00H
	DB	00H
	DB	00H
	DB	00H
	DB	00H
	DB	00H
	DB	00H
	DB	00H
	DB	00H
	DB	00H
	DB	00H
	DB	00H
	DB	00H
	DB	00H
	DB	00H
	DB	00H
	DB	00H
	DB	00H
	DB	00H
	DB	00H
	DB	00H
	DB	00H
	DB	00H
	DB	00H
	DB	00H
	DB	00H
	DB	00H
	DB	00H
	DB	00H
	DB	00H
	DB	00H
	DB	00H
	DB	00H
	DB	00H
	DB	00H
	DB	00H
	DB	00H
	DB	00H
	DB	00H
	DB	00H
	DB	00H
	DB	00H
	DB	00H
	DB	00H
	DB	00H
	DB	00H
	DB	00H
	DB	00H
	DB	00H
	DB	00H
	DB	00H
	DB	00H
	DB	00H
	DB	00H
	DB	00H
	DB	00H
	DB	00H
	DB	00H
	DB	00H
	DB	00H
	DB	00H
	DB	00H
	DB	00H
	DB	00H
	DB	00H
	DB	00H
	DB	00H
	DB	00H
	DB	00H
	DB	00H
	DB	00H
	DB	00H
	DB	00H
	DB	00H
	DB	00H
	DB	00H
	DB	00H
	DB	00H
	DB	00H
	DB	00H
	DB	00H
	DB	00H
	DB	00H
	DB	00H
	DB	00H
	DB	00H
	DB	00H
	DB	00H
	DB	00H
	DB	00H
	DB	00H
	DB	00H
	DB	00H
	DB	00H
	DB	00H
	DB	00H
	DB	00H
	DB	00H
	DB	00H
	DB	00H
	DB	00H
	DB	00H
	DB	00H
	DB	00H
	DB	00H
	DB	00H
	DB	00H
	DB	00H
	DB	00H
	DB	00H
	DB	00H
	DB	00H
	DB	00H
	DB	00H
	DB	00H
	DB	00H
	DB	00H
	DB	00H
	DB	00H
	DB	00H
	DB	00H
	DB	00H
	DB	00H
	DB	00H
	DB	00H
	DB	00H
	DB	00H
	DB	00H
	DB	00H
	DB	00H
	DB	00H
	DB	00H
	DB	00H
	DB	00H
	DB	00H
	DB	00H
	DB	00H
	DB	00H
	DB	00H
	DB	00H
	DB	00H
	DB	00H
	DB	00H
	DB	00H
	DB	00H
	DB	00H
	DB	00H
	DB	00H
	DB	00H
	DB	00H
	DB	00H
	DB	00H
	DB	00H
	DB	00H
	DB	00H
	DB	00H
	DB	00H
	DB	00H
	DB	00H
	DB	00H
	DB	00H
	DB	00H
	DB	00H
	DB	00H
	DB	00H
	DB	00H
	DB	00H
	DB	00H
	DB	00H
	DB	00H
	DB	00H
	DB	00H
	DB	00H
	DB	00H
	DB	00H
	DB	00H
	DB	00H
	DB	00H
	DB	00H
	DB	00H
	DB	00H
	DB	00H
	DB	00H
	DB	00H
	DB	00H
	DB	00H
	DB	00H
	DB	00H
	DB	00H
	DB	00H
	DB	00H
	DB	00H
	DB	00H
	DB	00H
	DB	00H
	DB	00H
	DB	00H
	DB	00H
	DB	00H
	DB	00H
	DB	00H
	DB	00H
	DB	00H
	DB	00H
	DB	00H
	DB	00H
	DB	00H
	DB	00H
	DB	00H
	DB	00H
	DB	00H
	DB	097H
	DB	03H
	DB	03H
	DB	0c3H
	DB	00H
	DB	00H
	DB	00H
	DB	00H
	DB	00H
	DB	00H
	DB	00H
	DB	00H
	DB	00H
	DB	00H
	DB	00H
	DB	00H
	DB	00H
	DB	00H
	DB	00H
	DB	00H
	DB	00H
	DB	00H
	DB	00H
	DB	00H
	DB	00H
	DB	00H
	DB	00H
	DB	00H
	DB	00H
	DB	00H
	DB	00H
	DB	00H
	DB	00H
	DB	00H
	DB	00H
	DB	00H
	DB	00H
	DB	00H
	DB	00H
	DB	00H
	DB	00H
	DB	00H
	DB	00H
	DB	00H
	DB	00H
	DB	00H
	DB	00H
	DB	00H
	DB	00H
	DB	00H
	DB	00H
	DB	00H
	DB	00H
	DB	00H
	DB	00H
	DB	00H
	DB	00H
	DB	00H
	DB	00H
	DB	00H
	DB	00H
	DB	097H
	DB	03H
	DB	03H
	DB	03H
	DB	0c3H
	DB	00H
	DB	00H
	DB	00H
	DB	00H
	DB	00H
	DB	01H
	DB	0c3H
	DB	03H
	DB	03H
	DB	01H
	DB	00H
	DB	00H
	DB	00H
	DB	00H
	DB	00H
	DB	00H
	DB	00H
	DB	00H
	DB	00H
	DB	00H
	DB	00H
	DB	00H
	DB	00H
	DB	00H
	DB	00H
	DB	00H
	DB	00H
	DB	00H
	DB	00H
	DB	00H
	DB	00H
	DB	00H
	DB	00H
	DB	00H
	DB	00H
	DB	00H
	DB	00H
	DB	00H
	DB	00H
	DB	00H
	DB	00H
	DB	00H
	DB	00H
	DB	00H
	DB	00H
	DB	00H
	DB	00H
	DB	00H
	DB	00H
	DB	00H
	DB	00H
	DB	00H
	DB	00H
	DB	00H
	DB	00H
	DB	00H
	DB	00H
	DB	00H
	DB	03H
	DB	0e9H
	DB	0dcH
	DB	0feH
	DB	0ffH
	DB	0ffH
	DB	0cH
	DB	094H
	DB	0aH
	DB	0e0H
	DB	00H
	DB	00H
	DB	00H
	DB	00H
	DB	00H
	DB	00H
	DB	0dfH
	DB	098H
	DB	00H
	DB	00H
	DB	00H
	DB	00H
	DB	00H
	DB	00H
	DB	00H
	DB	00H
	DB	00H
	DB	00H
	DB	00H
	DB	00H
	DB	00H
	DB	00H
	DB	00H
	DB	00H
	DB	00H
	DB	00H
	DB	00H
	DB	00H
	DB	00H
	DB	00H
	DB	00H
	DB	00H
	DB	00H
	DB	00H
	DB	00H
	DB	00H
	DB	00H
	DB	00H
	DB	00H
	DB	00H
	DB	00H
	DB	01H
	DB	06H
	DB	097H
	DB	00H
	DB	00H
	DB	00H
	DB	00H
	DB	00H
	DB	00H
	DB	00H
	DB	00H
	DB	00H
	DB	00H
	DB	067H
	DB	0ffH
	DB	0cH
	DB	0ffH
	DB	01aH
	DB	01H
	DB	00H
	DB	00H
	DB	00H
	DB	00H
	DB	097H
	DB	0bH
	DB	0ffH
	DB	0cH
	DB	0e0H
	DB	00H
	DB	00H
	DB	00H
	DB	00H
	DB	00H
	DB	00H
	DB	00H
	DB	00H
	DB	00H
	DB	00H
	DB	00H
	DB	00H
	DB	00H
	DB	00H
	DB	00H
	DB	00H
	DB	00H
	DB	00H
	DB	00H
	DB	00H
	DB	00H
	DB	00H
	DB	00H
	DB	00H
	DB	00H
	DB	00H
	DB	00H
	DB	00H
	DB	00H
	DB	00H
	DB	00H
	DB	00H
	DB	00H
	DB	00H
	DB	00H
	DB	00H
	DB	00H
	DB	00H
	DB	00H
	DB	00H
	DB	00H
	DB	00H
	DB	00H
	DB	00H
	DB	00H
	DB	00H
	DB	00H
	DB	07H
	DB	0ffH
	DB	05H
	DB	05H
	DB	05H
	DB	05H
	DB	05H
	DB	05H
	DB	05H
	DB	05H
	DB	0aH
	DB	00H
	DB	00H
	DB	00H
	DB	00H
	DB	0c3H
	DB	01cH
	DB	0ffH
	DB	06H
	DB	00H
	DB	00H
	DB	00H
	DB	00H
	DB	00H
	DB	00H
	DB	00H
	DB	00H
	DB	00H
	DB	00H
	DB	00H
	DB	00H
	DB	00H
	DB	00H
	DB	00H
	DB	00H
	DB	00H
	DB	00H
	DB	00H
	DB	00H
	DB	00H
	DB	00H
	DB	00H
	DB	00H
	DB	00H
	DB	00H
	DB	00H
	DB	00H
	DB	00H
	DB	00H
	DB	00H
	DB	00H
	DB	098H
	DB	0bfH
	DB	0cH
	DB	0c3H
	DB	00H
	DB	00H
	DB	00H
	DB	00H
	DB	00H
	DB	00H
	DB	00H
	DB	00H
	DB	00H
	DB	00H
	DB	06aH
	DB	05H
	DB	05H
	DB	05H
	DB	0eH
	DB	01H
	DB	00H
	DB	00H
	DB	00H
	DB	00H
	DB	097H
	DB	0cH
	DB	05H
	DB	05H
	DB	07H
	DB	00H
	DB	00H
	DB	00H
	DB	00H
	DB	00H
	DB	00H
	DB	00H
	DB	00H
	DB	00H
	DB	00H
	DB	00H
	DB	00H
	DB	00H
	DB	00H
	DB	00H
	DB	00H
	DB	00H
	DB	00H
	DB	00H
	DB	00H
	DB	00H
	DB	00H
	DB	00H
	DB	00H
	DB	00H
	DB	00H
	DB	00H
	DB	00H
	DB	00H
	DB	00H
	DB	00H
	DB	00H
	DB	00H
	DB	00H
	DB	00H
	DB	00H
	DB	00H
	DB	00H
	DB	00H
	DB	00H
	DB	00H
	DB	00H
	DB	00H
	DB	00H
	DB	00H
	DB	00H
	DB	0e0H
	DB	05H
	DB	05H
	DB	05H
	DB	05H
	DB	013H
	DB	0cH
	DB	0feH
	DB	0ffH
	DB	05H
	DB	05H
	DB	09H
	DB	00H
	DB	00H
	DB	00H
	DB	0aeH
	DB	0cH
	DB	05H
	DB	05H
	DB	06H
	DB	00H
	DB	00H
	DB	00H
	DB	00H
	DB	00H
	DB	00H
	DB	00H
	DB	00H
	DB	00H
	DB	00H
	DB	00H
	DB	00H
	DB	00H
	DB	00H
	DB	00H
	DB	00H
	DB	00H
	DB	00H
	DB	00H
	DB	00H
	DB	00H
	DB	00H
	DB	00H
	DB	00H
	DB	00H
	DB	00H
	DB	00H
	DB	00H
	DB	00H
	DB	00H
	DB	00H
	DB	0e9H
	DB	013H
	DB	05H
	DB	0cH
	DB	0c3H
	DB	00H
	DB	00H
	DB	00H
	DB	00H
	DB	00H
	DB	00H
	DB	00H
	DB	00H
	DB	00H
	DB	00H
	DB	06aH
	DB	05H
	DB	05H
	DB	05H
	DB	0eH
	DB	01H
	DB	00H
	DB	00H
	DB	00H
	DB	00H
	DB	097H
	DB	0cH
	DB	05H
	DB	05H
	DB	07H
	DB	00H
	DB	00H
	DB	00H
	DB	00H
	DB	00H
	DB	00H
	DB	00H
	DB	00H
	DB	00H
	DB	00H
	DB	00H
	DB	00H
	DB	00H
	DB	00H
	DB	00H
	DB	00H
	DB	00H
	DB	00H
	DB	00H
	DB	00H
	DB	00H
	DB	00H
	DB	00H
	DB	00H
	DB	00H
	DB	00H
	DB	00H
	DB	00H
	DB	00H
	DB	00H
	DB	00H
	DB	00H
	DB	00H
	DB	00H
	DB	00H
	DB	00H
	DB	00H
	DB	00H
	DB	00H
	DB	00H
	DB	00H
	DB	00H
	DB	00H
	DB	00H
	DB	00H
	DB	00H
	DB	094H
	DB	05H
	DB	05H
	DB	05H
	DB	01cH
	DB	098H
	DB	097H
	DB	097H
	DB	03H
	DB	0dfH
	DB	0aeH
	DB	098H
	DB	00H
	DB	00H
	DB	00H
	DB	094H
	DB	05H
	DB	05H
	DB	05H
	DB	0acH
	DB	00H
	DB	00H
	DB	00H
	DB	00H
	DB	00H
	DB	00H
	DB	00H
	DB	00H
	DB	00H
	DB	00H
	DB	00H
	DB	00H
	DB	00H
	DB	00H
	DB	00H
	DB	00H
	DB	00H
	DB	00H
	DB	00H
	DB	00H
	DB	00H
	DB	00H
	DB	00H
	DB	00H
	DB	00H
	DB	00H
	DB	00H
	DB	00H
	DB	00H
	DB	00H
	DB	097H
	DB	0cH
	DB	05H
	DB	05H
	DB	0cH
	DB	097H
	DB	00H
	DB	00H
	DB	00H
	DB	00H
	DB	00H
	DB	00H
	DB	00H
	DB	00H
	DB	00H
	DB	00H
	DB	06aH
	DB	05H
	DB	05H
	DB	05H
	DB	0eH
	DB	01H
	DB	00H
	DB	00H
	DB	00H
	DB	00H
	DB	097H
	DB	0cH
	DB	05H
	DB	05H
	DB	07H
	DB	00H
	DB	00H
	DB	00H
	DB	00H
	DB	00H
	DB	00H
	DB	00H
	DB	00H
	DB	00H
	DB	00H
	DB	00H
	DB	00H
	DB	00H
	DB	00H
	DB	00H
	DB	00H
	DB	00H
	DB	00H
	DB	00H
	DB	00H
	DB	00H
	DB	00H
	DB	00H
	DB	00H
	DB	00H
	DB	00H
	DB	00H
	DB	00H
	DB	00H
	DB	00H
	DB	00H
	DB	00H
	DB	00H
	DB	00H
	DB	00H
	DB	00H
	DB	00H
	DB	00H
	DB	00H
	DB	00H
	DB	00H
	DB	00H
	DB	00H
	DB	00H
	DB	00H
	DB	03H
	DB	0ffH
	DB	05H
	DB	05H
	DB	0cH
	DB	00H
	DB	00H
	DB	00H
	DB	00H
	DB	00H
	DB	00H
	DB	00H
	DB	00H
	DB	00H
	DB	0aeH
	DB	0e9H
	DB	0ffH
	DB	05H
	DB	05H
	DB	05H
	DB	0f8H
	DB	0e9H
	DB	0e9H
	DB	03H
	DB	00H
	DB	00H
	DB	00H
	DB	00H
	DB	04H
	DB	08H
	DB	014H
	DB	0aH
	DB	0aH
	DB	0f8H
	DB	08H
	DB	0c3H
	DB	00H
	DB	00H
	DB	00H
	DB	00H
	DB	01H
	DB	06aH
	DB	014H
	DB	014H
	DB	0e9H
	DB	01H
	DB	097H
	DB	09H
	DB	0d9H
	DB	0e0H
	DB	08H
	DB	0d3H
	DB	013H
	DB	05H
	DB	05H
	DB	013H
	DB	0eaH
	DB	014H
	DB	06aH
	DB	01H
	DB	00H
	DB	00H
	DB	00H
	DB	00H
	DB	00H
	DB	00H
	DB	00H
	DB	06aH
	DB	05H
	DB	05H
	DB	05H
	DB	0eH
	DB	01H
	DB	00H
	DB	00H
	DB	00H
	DB	00H
	DB	097H
	DB	0cH
	DB	05H
	DB	05H
	DB	07H
	DB	00H
	DB	00H
	DB	04H
	DB	014H
	DB	014H
	DB	014H
	DB	06H
	DB	00H
	DB	03H
	DB	08H
	DB	014H
	DB	09H
	DB	06H
	DB	00H
	DB	00H
	DB	00H
	DB	00H
	DB	00H
	DB	00H
	DB	00H
	DB	00H
	DB	00H
	DB	00H
	DB	00H
	DB	00H
	DB	00H
	DB	00H
	DB	00H
	DB	00H
	DB	00H
	DB	00H
	DB	00H
	DB	00H
	DB	00H
	DB	00H
	DB	00H
	DB	00H
	DB	00H
	DB	00H
	DB	00H
	DB	00H
	DB	00H
	DB	00H
	DB	00H
	DB	00H
	DB	098H
	DB	0ffH
	DB	05H
	DB	05H
	DB	013H
	DB	04H
	DB	00H
	DB	00H
	DB	00H
	DB	00H
	DB	00H
	DB	00H
	DB	00H
	DB	00H
	DB	0bfH
	DB	05H
	DB	05H
	DB	05H
	DB	05H
	DB	05H
	DB	05H
	DB	05H
	DB	05H
	DB	06H
	DB	00H
	DB	00H
	DB	01H
	DB	01aH
	DB	05H
	DB	05H
	DB	05H
	DB	05H
	DB	05H
	DB	05H
	DB	05H
	DB	0ffH
	DB	07H
	DB	00H
	DB	00H
	DB	00H
	DB	0c3H
	DB	0cH
	DB	05H
	DB	05H
	DB	05H
	DB	098H
	DB	0dcH
	DB	05H
	DB	05H
	DB	0e9H
	DB	0feH
	DB	05H
	DB	05H
	DB	05H
	DB	05H
	DB	05H
	DB	05H
	DB	05H
	DB	0cH
	DB	0c3H
	DB	00H
	DB	00H
	DB	00H
	DB	00H
	DB	00H
	DB	00H
	DB	00H
	DB	06aH
	DB	05H
	DB	05H
	DB	05H
	DB	0eH
	DB	01H
	DB	00H
	DB	00H
	DB	00H
	DB	00H
	DB	097H
	DB	0cH
	DB	05H
	DB	05H
	DB	07H
	DB	00H
	DB	00H
	DB	08H
	DB	05H
	DB	05H
	DB	05H
	DB	014H
	DB	08H
	DB	0ffH
	DB	05H
	DB	05H
	DB	05H
	DB	05H
	DB	0d9H
	DB	097H
	DB	00H
	DB	00H
	DB	00H
	DB	00H
	DB	00H
	DB	00H
	DB	00H
	DB	00H
	DB	00H
	DB	00H
	DB	00H
	DB	00H
	DB	00H
	DB	00H
	DB	00H
	DB	00H
	DB	00H
	DB	00H
	DB	00H
	DB	00H
	DB	00H
	DB	00H
	DB	00H
	DB	00H
	DB	00H
	DB	00H
	DB	00H
	DB	00H
	DB	00H
	DB	00H
	DB	097H
	DB	0cH
	DB	05H
	DB	05H
	DB	05H
	DB	0eH
	DB	06H
	DB	01H
	DB	00H
	DB	00H
	DB	00H
	DB	00H
	DB	00H
	DB	00H
	DB	0d9H
	DB	05H
	DB	05H
	DB	05H
	DB	05H
	DB	05H
	DB	05H
	DB	05H
	DB	0ffH
	DB	0acH
	DB	00H
	DB	00H
	DB	01H
	DB	0feH
	DB	05H
	DB	05H
	DB	0ffH
	DB	0ffH
	DB	05H
	DB	05H
	DB	05H
	DB	05H
	DB	013H
	DB	04H
	DB	00H
	DB	00H
	DB	0c3H
	DB	0feH
	DB	05H
	DB	05H
	DB	0ffH
	DB	0aH
	DB	05H
	DB	05H
	DB	05H
	DB	09H
	DB	094H
	DB	05H
	DB	05H
	DB	05H
	DB	05H
	DB	05H
	DB	05H
	DB	05H
	DB	0feH
	DB	097H
	DB	00H
	DB	00H
	DB	00H
	DB	00H
	DB	00H
	DB	00H
	DB	00H
	DB	06aH
	DB	05H
	DB	05H
	DB	05H
	DB	0eH
	DB	01H
	DB	00H
	DB	00H
	DB	00H
	DB	00H
	DB	097H
	DB	0cH
	DB	05H
	DB	05H
	DB	07H
	DB	00H
	DB	00H
	DB	08H
	DB	05H
	DB	05H
	DB	05H
	DB	0ffH
	DB	05H
	DB	05H
	DB	05H
	DB	05H
	DB	05H
	DB	05H
	DB	05H
	DB	0d9H
	DB	00H
	DB	00H
	DB	00H
	DB	00H
	DB	00H
	DB	00H
	DB	00H
	DB	00H
	DB	00H
	DB	00H
	DB	00H
	DB	00H
	DB	00H
	DB	00H
	DB	00H
	DB	00H
	DB	00H
	DB	00H
	DB	00H
	DB	00H
	DB	00H
	DB	00H
	DB	00H
	DB	00H
	DB	00H
	DB	00H
	DB	00H
	DB	00H
	DB	00H
	DB	00H
	DB	00H
	DB	0aH
	DB	05H
	DB	05H
	DB	05H
	DB	05H
	DB	05H
	DB	094H
	DB	09H
	DB	098H
	DB	00H
	DB	00H
	DB	00H
	DB	00H
	DB	03H
	DB	03H
	DB	0eH
	DB	05H
	DB	05H
	DB	05H
	DB	0aeH
	DB	098H
	DB	098H
	DB	097H
	DB	00H
	DB	00H
	DB	00H
	DB	08H
	DB	08H
	DB	098H
	DB	01H
	DB	00H
	DB	03H
	DB	0aH
	DB	05H
	DB	05H
	DB	05H
	DB	01cH
	DB	00H
	DB	00H
	DB	0c3H
	DB	0feH
	DB	05H
	DB	05H
	DB	05H
	DB	05H
	DB	05H
	DB	05H
	DB	05H
	DB	08H
	DB	0c3H
	DB	06H
	DB	0ffH
	DB	05H
	DB	05H
	DB	0ffH
	DB	0acH
	DB	098H
	DB	098H
	DB	01H
	DB	00H
	DB	00H
	DB	00H
	DB	00H
	DB	00H
	DB	00H
	DB	00H
	DB	06aH
	DB	05H
	DB	05H
	DB	05H
	DB	0eH
	DB	01H
	DB	00H
	DB	00H
	DB	00H
	DB	00H
	DB	097H
	DB	0cH
	DB	05H
	DB	05H
	DB	07H
	DB	00H
	DB	00H
	DB	08H
	DB	05H
	DB	05H
	DB	05H
	DB	05H
	DB	0ffH
	DB	0f8H
	DB	01cH
	DB	0cH
	DB	05H
	DB	05H
	DB	05H
	DB	05H
	DB	06H
	DB	00H
	DB	00H
	DB	00H
	DB	00H
	DB	00H
	DB	00H
	DB	00H
	DB	00H
	DB	00H
	DB	00H
	DB	00H
	DB	00H
	DB	00H
	DB	00H
	DB	00H
	DB	00H
	DB	00H
	DB	00H
	DB	00H
	DB	00H
	DB	00H
	DB	00H
	DB	00H
	DB	00H
	DB	00H
	DB	00H
	DB	00H
	DB	00H
	DB	00H
	DB	00H
	DB	098H
	DB	0ffH
	DB	05H
	DB	05H
	DB	05H
	DB	05H
	DB	05H
	DB	05H
	DB	0ffH
	DB	0eaH
	DB	097H
	DB	00H
	DB	00H
	DB	00H
	DB	00H
	DB	094H
	DB	05H
	DB	05H
	DB	05H
	DB	06H
	DB	00H
	DB	00H
	DB	00H
	DB	00H
	DB	00H
	DB	00H
	DB	00H
	DB	00H
	DB	00H
	DB	01H
	DB	00H
	DB	00H
	DB	0dfH
	DB	05H
	DB	05H
	DB	05H
	DB	0c2H
	DB	00H
	DB	00H
	DB	0c3H
	DB	0feH
	DB	05H
	DB	05H
	DB	05H
	DB	05H
	DB	013H
	DB	0d3H
	DB	06H
	DB	097H
	DB	00H
	DB	0c3H
	DB	0ffH
	DB	05H
	DB	05H
	DB	0cH
	DB	097H
	DB	00H
	DB	00H
	DB	00H
	DB	00H
	DB	00H
	DB	00H
	DB	00H
	DB	00H
	DB	00H
	DB	00H
	DB	06aH
	DB	05H
	DB	05H
	DB	05H
	DB	0eH
	DB	01H
	DB	00H
	DB	00H
	DB	00H
	DB	00H
	DB	097H
	DB	0cH
	DB	05H
	DB	05H
	DB	07H
	DB	00H
	DB	00H
	DB	08H
	DB	05H
	DB	05H
	DB	05H
	DB	05H
	DB	07H
	DB	00H
	DB	00H
	DB	03H
	DB	0cH
	DB	05H
	DB	05H
	DB	05H
	DB	0b1H
	DB	00H
	DB	00H
	DB	00H
	DB	00H
	DB	00H
	DB	00H
	DB	00H
	DB	00H
	DB	00H
	DB	00H
	DB	00H
	DB	00H
	DB	00H
	DB	00H
	DB	00H
	DB	00H
	DB	00H
	DB	00H
	DB	00H
	DB	00H
	DB	00H
	DB	00H
	DB	00H
	DB	00H
	DB	00H
	DB	00H
	DB	00H
	DB	00H
	DB	00H
	DB	00H
	DB	00H
	DB	0dfH
	DB	0eH
	DB	05H
	DB	05H
	DB	05H
	DB	05H
	DB	05H
	DB	05H
	DB	05H
	DB	094H
	DB	03H
	DB	00H
	DB	00H
	DB	00H
	DB	094H
	DB	05H
	DB	05H
	DB	05H
	DB	06H
	DB	00H
	DB	00H
	DB	00H
	DB	00H
	DB	00H
	DB	00H
	DB	04H
	DB	0f7H
	DB	094H
	DB	0eH
	DB	094H
	DB	014H
	DB	0e0H
	DB	0ffH
	DB	05H
	DB	05H
	DB	0feH
	DB	00H
	DB	00H
	DB	0c3H
	DB	0feH
	DB	05H
	DB	05H
	DB	05H
	DB	0ffH
	DB	06H
	DB	00H
	DB	00H
	DB	00H
	DB	00H
	DB	0c3H
	DB	0ffH
	DB	05H
	DB	05H
	DB	0cH
	DB	0c3H
	DB	00H
	DB	00H
	DB	00H
	DB	00H
	DB	00H
	DB	00H
	DB	00H
	DB	00H
	DB	00H
	DB	00H
	DB	06aH
	DB	05H
	DB	05H
	DB	05H
	DB	0eH
	DB	01H
	DB	00H
	DB	00H
	DB	00H
	DB	00H
	DB	097H
	DB	0cH
	DB	05H
	DB	05H
	DB	07H
	DB	00H
	DB	00H
	DB	08H
	DB	05H
	DB	05H
	DB	05H
	DB	0c2H
	DB	00H
	DB	00H
	DB	00H
	DB	00H
	DB	0b1H
	DB	05H
	DB	05H
	DB	05H
	DB	0bH
	DB	00H
	DB	00H
	DB	00H
	DB	00H
	DB	00H
	DB	00H
	DB	00H
	DB	00H
	DB	00H
	DB	00H
	DB	00H
	DB	00H
	DB	00H
	DB	00H
	DB	00H
	DB	00H
	DB	00H
	DB	00H
	DB	00H
	DB	00H
	DB	00H
	DB	00H
	DB	00H
	DB	00H
	DB	00H
	DB	00H
	DB	00H
	DB	00H
	DB	00H
	DB	00H
	DB	00H
	DB	00H
	DB	097H
	DB	0e9H
	DB	0feH
	DB	05H
	DB	05H
	DB	05H
	DB	05H
	DB	05H
	DB	05H
	DB	0aH
	DB	00H
	DB	00H
	DB	00H
	DB	094H
	DB	05H
	DB	05H
	DB	05H
	DB	06H
	DB	00H
	DB	00H
	DB	00H
	DB	00H
	DB	00H
	DB	08H
	DB	05H
	DB	05H
	DB	05H
	DB	05H
	DB	05H
	DB	05H
	DB	013H
	DB	05H
	DB	05H
	DB	05H
	DB	0feH
	DB	00H
	DB	00H
	DB	0c3H
	DB	0feH
	DB	05H
	DB	05H
	DB	05H
	DB	0e9H
	DB	00H
	DB	00H
	DB	00H
	DB	00H
	DB	00H
	DB	0c3H
	DB	0ffH
	DB	05H
	DB	05H
	DB	0cH
	DB	0c3H
	DB	00H
	DB	00H
	DB	00H
	DB	00H
	DB	00H
	DB	00H
	DB	00H
	DB	00H
	DB	00H
	DB	00H
	DB	06aH
	DB	05H
	DB	05H
	DB	05H
	DB	0eH
	DB	01H
	DB	00H
	DB	00H
	DB	00H
	DB	00H
	DB	097H
	DB	0cH
	DB	05H
	DB	05H
	DB	07H
	DB	00H
	DB	00H
	DB	08H
	DB	05H
	DB	05H
	DB	05H
	DB	01aH
	DB	00H
	DB	00H
	DB	00H
	DB	00H
	DB	06aH
	DB	05H
	DB	05H
	DB	05H
	DB	0eH
	DB	01H
	DB	00H
	DB	00H
	DB	00H
	DB	00H
	DB	00H
	DB	00H
	DB	00H
	DB	00H
	DB	00H
	DB	00H
	DB	00H
	DB	00H
	DB	00H
	DB	00H
	DB	00H
	DB	00H
	DB	00H
	DB	00H
	DB	00H
	DB	00H
	DB	00H
	DB	00H
	DB	00H
	DB	00H
	DB	00H
	DB	00H
	DB	00H
	DB	00H
	DB	00H
	DB	00H
	DB	00H
	DB	00H
	DB	00H
	DB	01H
	DB	07H
	DB	0c2H
	DB	05H
	DB	05H
	DB	05H
	DB	05H
	DB	05H
	DB	04H
	DB	00H
	DB	00H
	DB	094H
	DB	05H
	DB	05H
	DB	05H
	DB	06H
	DB	00H
	DB	00H
	DB	00H
	DB	00H
	DB	06H
	DB	05H
	DB	05H
	DB	05H
	DB	0cH
	DB	0aeH
	DB	098H
	DB	0aeH
	DB	0cH
	DB	05H
	DB	05H
	DB	05H
	DB	0feH
	DB	00H
	DB	00H
	DB	0c3H
	DB	0feH
	DB	05H
	DB	05H
	DB	05H
	DB	04H
	DB	00H
	DB	00H
	DB	00H
	DB	00H
	DB	00H
	DB	0c3H
	DB	0ffH
	DB	05H
	DB	05H
	DB	0cH
	DB	0c3H
	DB	00H
	DB	00H
	DB	00H
	DB	00H
	DB	00H
	DB	00H
	DB	00H
	DB	00H
	DB	00H
	DB	00H
	DB	06aH
	DB	05H
	DB	05H
	DB	05H
	DB	0eH
	DB	01H
	DB	00H
	DB	00H
	DB	00H
	DB	00H
	DB	097H
	DB	0cH
	DB	05H
	DB	05H
	DB	07H
	DB	00H
	DB	00H
	DB	08H
	DB	05H
	DB	05H
	DB	05H
	DB	0aH
	DB	00H
	DB	00H
	DB	00H
	DB	00H
	DB	08H
	DB	05H
	DB	05H
	DB	05H
	DB	0feH
	DB	097H
	DB	00H
	DB	00H
	DB	00H
	DB	00H
	DB	00H
	DB	00H
	DB	00H
	DB	00H
	DB	00H
	DB	00H
	DB	00H
	DB	00H
	DB	00H
	DB	00H
	DB	00H
	DB	00H
	DB	00H
	DB	00H
	DB	00H
	DB	00H
	DB	00H
	DB	00H
	DB	00H
	DB	00H
	DB	00H
	DB	00H
	DB	00H
	DB	00H
	DB	00H
	DB	00H
	DB	00H
	DB	00H
	DB	00H
	DB	00H
	DB	00H
	DB	01H
	DB	0f8H
	DB	05H
	DB	05H
	DB	05H
	DB	05H
	DB	08H
	DB	00H
	DB	00H
	DB	094H
	DB	05H
	DB	05H
	DB	05H
	DB	06H
	DB	00H
	DB	00H
	DB	00H
	DB	00H
	DB	01aH
	DB	05H
	DB	05H
	DB	05H
	DB	07H
	DB	00H
	DB	00H
	DB	00H
	DB	0aeH
	DB	05H
	DB	05H
	DB	05H
	DB	0feH
	DB	00H
	DB	00H
	DB	0c3H
	DB	0feH
	DB	05H
	DB	05H
	DB	05H
	DB	0c3H
	DB	00H
	DB	00H
	DB	00H
	DB	00H
	DB	00H
	DB	0c3H
	DB	0ffH
	DB	05H
	DB	05H
	DB	0cH
	DB	0c3H
	DB	00H
	DB	00H
	DB	00H
	DB	00H
	DB	00H
	DB	00H
	DB	00H
	DB	00H
	DB	00H
	DB	00H
	DB	06aH
	DB	05H
	DB	05H
	DB	05H
	DB	0eH
	DB	01H
	DB	00H
	DB	00H
	DB	00H
	DB	00H
	DB	097H
	DB	0cH
	DB	05H
	DB	05H
	DB	07H
	DB	00H
	DB	00H
	DB	08H
	DB	05H
	DB	05H
	DB	05H
	DB	0aH
	DB	00H
	DB	00H
	DB	00H
	DB	00H
	DB	08H
	DB	05H
	DB	05H
	DB	05H
	DB	0feH
	DB	097H
	DB	00H
	DB	00H
	DB	00H
	DB	00H
	DB	00H
	DB	00H
	DB	00H
	DB	00H
	DB	00H
	DB	00H
	DB	00H
	DB	00H
	DB	00H
	DB	00H
	DB	00H
	DB	00H
	DB	00H
	DB	00H
	DB	00H
	DB	00H
	DB	00H
	DB	00H
	DB	00H
	DB	00H
	DB	00H
	DB	00H
	DB	00H
	DB	00H
	DB	00H
	DB	00H
	DB	00H
	DB	00H
	DB	00H
	DB	00H
	DB	00H
	DB	00H
	DB	097H
	DB	0ffH
	DB	05H
	DB	05H
	DB	05H
	DB	09H
	DB	00H
	DB	00H
	DB	094H
	DB	05H
	DB	05H
	DB	05H
	DB	06H
	DB	00H
	DB	00H
	DB	00H
	DB	01H
	DB	0feH
	DB	05H
	DB	05H
	DB	0ffH
	DB	03H
	DB	00H
	DB	00H
	DB	00H
	DB	04H
	DB	013H
	DB	05H
	DB	05H
	DB	0feH
	DB	00H
	DB	00H
	DB	0c3H
	DB	0feH
	DB	05H
	DB	05H
	DB	05H
	DB	0c3H
	DB	00H
	DB	00H
	DB	00H
	DB	00H
	DB	00H
	DB	0c3H
	DB	0ffH
	DB	05H
	DB	05H
	DB	0cH
	DB	0c3H
	DB	00H
	DB	00H
	DB	00H
	DB	00H
	DB	00H
	DB	00H
	DB	00H
	DB	00H
	DB	00H
	DB	00H
	DB	08H
	DB	05H
	DB	05H
	DB	05H
	DB	0eH
	DB	01H
	DB	00H
	DB	00H
	DB	00H
	DB	00H
	DB	097H
	DB	0cH
	DB	05H
	DB	05H
	DB	07H
	DB	00H
	DB	00H
	DB	08H
	DB	05H
	DB	05H
	DB	05H
	DB	01aH
	DB	00H
	DB	00H
	DB	00H
	DB	00H
	DB	09H
	DB	05H
	DB	05H
	DB	05H
	DB	0c2H
	DB	00H
	DB	00H
	DB	00H
	DB	00H
	DB	00H
	DB	00H
	DB	00H
	DB	00H
	DB	00H
	DB	00H
	DB	00H
	DB	00H
	DB	00H
	DB	00H
	DB	00H
	DB	00H
	DB	00H
	DB	00H
	DB	00H
	DB	00H
	DB	00H
	DB	00H
	DB	00H
	DB	00H
	DB	00H
	DB	00H
	DB	00H
	DB	00H
	DB	00H
	DB	00H
	DB	00H
	DB	00H
	DB	00H
	DB	00H
	DB	00H
	DB	00H
	DB	00H
	DB	0c3H
	DB	0ffH
	DB	05H
	DB	05H
	DB	05H
	DB	0aeH
	DB	00H
	DB	00H
	DB	094H
	DB	05H
	DB	05H
	DB	05H
	DB	06H
	DB	00H
	DB	00H
	DB	00H
	DB	0c3H
	DB	0cH
	DB	05H
	DB	05H
	DB	0ffH
	DB	03H
	DB	00H
	DB	00H
	DB	00H
	DB	0dfH
	DB	05H
	DB	05H
	DB	05H
	DB	0feH
	DB	00H
	DB	00H
	DB	0c3H
	DB	0feH
	DB	05H
	DB	05H
	DB	05H
	DB	0c3H
	DB	00H
	DB	00H
	DB	00H
	DB	00H
	DB	00H
	DB	0c3H
	DB	0ffH
	DB	05H
	DB	05H
	DB	0cH
	DB	097H
	DB	00H
	DB	00H
	DB	00H
	DB	00H
	DB	00H
	DB	00H
	DB	00H
	DB	00H
	DB	00H
	DB	00H
	DB	06H
	DB	05H
	DB	05H
	DB	05H
	DB	0ffH
	DB	0c3H
	DB	00H
	DB	00H
	DB	00H
	DB	00H
	DB	098H
	DB	05H
	DB	05H
	DB	05H
	DB	0e0H
	DB	00H
	DB	00H
	DB	08H
	DB	05H
	DB	05H
	DB	05H
	DB	0feH
	DB	01H
	DB	00H
	DB	00H
	DB	00H
	DB	0f8H
	DB	05H
	DB	05H
	DB	05H
	DB	0d9H
	DB	00H
	DB	00H
	DB	00H
	DB	00H
	DB	00H
	DB	00H
	DB	00H
	DB	00H
	DB	00H
	DB	00H
	DB	00H
	DB	00H
	DB	00H
	DB	00H
	DB	00H
	DB	00H
	DB	00H
	DB	00H
	DB	00H
	DB	00H
	DB	00H
	DB	00H
	DB	00H
	DB	00H
	DB	00H
	DB	00H
	DB	00H
	DB	00H
	DB	00H
	DB	00H
	DB	09H
	DB	08H
	DB	03H
	DB	01H
	DB	01H
	DB	01H
	DB	0c3H
	DB	0f8H
	DB	05H
	DB	05H
	DB	05H
	DB	05H
	DB	04H
	DB	00H
	DB	00H
	DB	01aH
	DB	05H
	DB	05H
	DB	05H
	DB	08H
	DB	00H
	DB	00H
	DB	00H
	DB	00H
	DB	0eH
	DB	05H
	DB	05H
	DB	05H
	DB	06aH
	DB	00H
	DB	00H
	DB	00H
	DB	014H
	DB	05H
	DB	05H
	DB	05H
	DB	0feH
	DB	00H
	DB	00H
	DB	0c3H
	DB	0feH
	DB	05H
	DB	05H
	DB	05H
	DB	0c3H
	DB	00H
	DB	00H
	DB	00H
	DB	00H
	DB	00H
	DB	00H
	DB	0feH
	DB	05H
	DB	05H
	DB	05H
	DB	0acH
	DB	00H
	DB	00H
	DB	00H
	DB	00H
	DB	00H
	DB	00H
	DB	00H
	DB	00H
	DB	00H
	DB	00H
	DB	0c3H
	DB	0cH
	DB	05H
	DB	05H
	DB	05H
	DB	0aH
	DB	0c3H
	DB	01H
	DB	01H
	DB	0c3H
	DB	01aH
	DB	05H
	DB	05H
	DB	0ffH
	DB	097H
	DB	00H
	DB	00H
	DB	08H
	DB	05H
	DB	05H
	DB	05H
	DB	05H
	DB	0e9H
	DB	01H
	DB	00H
	DB	0e0H
	DB	0ffH
	DB	05H
	DB	05H
	DB	05H
	DB	0aeH
	DB	00H
	DB	00H
	DB	00H
	DB	00H
	DB	00H
	DB	00H
	DB	00H
	DB	00H
	DB	00H
	DB	00H
	DB	00H
	DB	00H
	DB	00H
	DB	00H
	DB	00H
	DB	00H
	DB	00H
	DB	00H
	DB	00H
	DB	00H
	DB	00H
	DB	00H
	DB	00H
	DB	00H
	DB	00H
	DB	00H
	DB	00H
	DB	00H
	DB	00H
	DB	01H
	DB	0feH
	DB	05H
	DB	05H
	DB	0c2H
	DB	0bH
	DB	094H
	DB	0ffH
	DB	05H
	DB	05H
	DB	05H
	DB	05H
	DB	0aH
	DB	00H
	DB	00H
	DB	00H
	DB	08H
	DB	05H
	DB	05H
	DB	05H
	DB	0ffH
	DB	01cH
	DB	01cH
	DB	0e0H
	DB	00H
	DB	01cH
	DB	05H
	DB	05H
	DB	05H
	DB	05H
	DB	0aH
	DB	014H
	DB	0d9H
	DB	05H
	DB	05H
	DB	05H
	DB	05H
	DB	0feH
	DB	00H
	DB	00H
	DB	0c3H
	DB	0feH
	DB	05H
	DB	05H
	DB	05H
	DB	0c3H
	DB	00H
	DB	00H
	DB	00H
	DB	00H
	DB	00H
	DB	00H
	DB	0f8H
	DB	05H
	DB	05H
	DB	05H
	DB	0feH
	DB	0eaH
	DB	0d3H
	DB	0dfH
	DB	00H
	DB	00H
	DB	00H
	DB	00H
	DB	00H
	DB	00H
	DB	00H
	DB	00H
	DB	0e9H
	DB	05H
	DB	05H
	DB	05H
	DB	05H
	DB	0ffH
	DB	094H
	DB	094H
	DB	0ffH
	DB	05H
	DB	05H
	DB	05H
	DB	0d3H
	DB	00H
	DB	00H
	DB	00H
	DB	08H
	DB	05H
	DB	05H
	DB	05H
	DB	05H
	DB	05H
	DB	0eH
	DB	094H
	DB	05H
	DB	05H
	DB	05H
	DB	05H
	DB	0feH
	DB	097H
	DB	00H
	DB	00H
	DB	00H
	DB	00H
	DB	00H
	DB	00H
	DB	00H
	DB	00H
	DB	00H
	DB	00H
	DB	00H
	DB	00H
	DB	00H
	DB	00H
	DB	00H
	DB	00H
	DB	00H
	DB	00H
	DB	00H
	DB	00H
	DB	00H
	DB	00H
	DB	00H
	DB	00H
	DB	00H
	DB	00H
	DB	00H
	DB	00H
	DB	00H
	DB	04H
	DB	013H
	DB	05H
	DB	05H
	DB	05H
	DB	05H
	DB	05H
	DB	05H
	DB	05H
	DB	05H
	DB	05H
	DB	01aH
	DB	097H
	DB	00H
	DB	00H
	DB	00H
	DB	097H
	DB	094H
	DB	05H
	DB	05H
	DB	05H
	DB	05H
	DB	05H
	DB	01aH
	DB	00H
	DB	03H
	DB	0cH
	DB	05H
	DB	05H
	DB	05H
	DB	05H
	DB	05H
	DB	05H
	DB	0dcH
	DB	0cH
	DB	05H
	DB	05H
	DB	0feH
	DB	00H
	DB	00H
	DB	0c3H
	DB	0feH
	DB	05H
	DB	05H
	DB	05H
	DB	0c3H
	DB	00H
	DB	00H
	DB	00H
	DB	00H
	DB	00H
	DB	00H
	DB	098H
	DB	0ffH
	DB	05H
	DB	05H
	DB	05H
	DB	05H
	DB	05H
	DB	014H
	DB	00H
	DB	00H
	DB	00H
	DB	00H
	DB	00H
	DB	00H
	DB	00H
	DB	00H
	DB	00H
	DB	01cH
	DB	05H
	DB	05H
	DB	05H
	DB	05H
	DB	05H
	DB	05H
	DB	05H
	DB	05H
	DB	05H
	DB	01aH
	DB	097H
	DB	00H
	DB	00H
	DB	00H
	DB	08H
	DB	05H
	DB	05H
	DB	05H
	DB	0c2H
	DB	0cH
	DB	05H
	DB	05H
	DB	05H
	DB	05H
	DB	05H
	DB	05H
	DB	07H
	DB	00H
	DB	00H
	DB	00H
	DB	00H
	DB	00H
	DB	00H
	DB	00H
	DB	00H
	DB	00H
	DB	00H
	DB	00H
	DB	00H
	DB	00H
	DB	00H
	DB	00H
	DB	00H
	DB	00H
	DB	00H
	DB	00H
	DB	00H
	DB	00H
	DB	00H
	DB	00H
	DB	00H
	DB	00H
	DB	00H
	DB	00H
	DB	00H
	DB	00H
	DB	00H
	DB	097H
	DB	08H
	DB	01aH
	DB	0cH
	DB	0ffH
	DB	05H
	DB	05H
	DB	05H
	DB	0cH
	DB	01aH
	DB	0aeH
	DB	01H
	DB	00H
	DB	00H
	DB	00H
	DB	00H
	DB	00H
	DB	03H
	DB	0aH
	DB	0ffH
	DB	05H
	DB	013H
	DB	0cH
	DB	014H
	DB	01H
	DB	00H
	DB	098H
	DB	0aH
	DB	0ffH
	DB	05H
	DB	05H
	DB	0feH
	DB	09H
	DB	00H
	DB	094H
	DB	05H
	DB	05H
	DB	0c2H
	DB	00H
	DB	00H
	DB	097H
	DB	0c2H
	DB	05H
	DB	05H
	DB	0ffH
	DB	097H
	DB	00H
	DB	00H
	DB	00H
	DB	00H
	DB	00H
	DB	00H
	DB	00H
	DB	04H
	DB	0dcH
	DB	05H
	DB	05H
	DB	013H
	DB	0feH
	DB	08H
	DB	00H
	DB	00H
	DB	00H
	DB	00H
	DB	00H
	DB	00H
	DB	00H
	DB	00H
	DB	00H
	DB	00H
	DB	0e0H
	DB	0d9H
	DB	0cH
	DB	05H
	DB	05H
	DB	05H
	DB	0ffH
	DB	01aH
	DB	08H
	DB	01H
	DB	00H
	DB	00H
	DB	00H
	DB	00H
	DB	08H
	DB	05H
	DB	05H
	DB	05H
	DB	0f8H
	DB	03H
	DB	0f8H
	DB	0ffH
	DB	05H
	DB	05H
	DB	094H
	DB	06H
	DB	00H
	DB	00H
	DB	00H
	DB	00H
	DB	00H
	DB	00H
	DB	00H
	DB	00H
	DB	00H
	DB	00H
	DB	00H
	DB	00H
	DB	00H
	DB	00H
	DB	00H
	DB	00H
	DB	00H
	DB	00H
	DB	00H
	DB	00H
	DB	00H
	DB	00H
	DB	00H
	DB	00H
	DB	00H
	DB	00H
	DB	00H
	DB	00H
	DB	00H
	DB	00H
	DB	00H
	DB	00H
	DB	00H
	DB	00H
	DB	00H
	DB	0c3H
	DB	098H
	DB	098H
	DB	098H
	DB	00H
	DB	00H
	DB	00H
	DB	00H
	DB	00H
	DB	00H
	DB	00H
	DB	00H
	DB	00H
	DB	00H
	DB	00H
	DB	0c3H
	DB	04H
	DB	03H
	DB	00H
	DB	00H
	DB	00H
	DB	00H
	DB	00H
	DB	00H
	DB	01H
	DB	04H
	DB	03H
	DB	00H
	DB	00H
	DB	00H
	DB	03H
	DB	04H
	DB	098H
	DB	098H
	DB	00H
	DB	00H
	DB	01H
	DB	098H
	DB	098H
	DB	098H
	DB	098H
	DB	01H
	DB	00H
	DB	00H
	DB	00H
	DB	00H
	DB	00H
	DB	00H
	DB	00H
	DB	00H
	DB	00H
	DB	03H
	DB	04H
	DB	03H
	DB	00H
	DB	00H
	DB	00H
	DB	00H
	DB	00H
	DB	00H
	DB	00H
	DB	00H
	DB	00H
	DB	00H
	DB	00H
	DB	00H
	DB	00H
	DB	00H
	DB	00H
	DB	098H
	DB	04H
	DB	098H
	DB	01H
	DB	00H
	DB	00H
	DB	00H
	DB	00H
	DB	00H
	DB	00H
	DB	00H
	DB	08H
	DB	05H
	DB	05H
	DB	05H
	DB	0aH
	DB	00H
	DB	00H
	DB	097H
	DB	04H
	DB	03H
	DB	00H
	DB	00H
	DB	00H
	DB	00H
	DB	00H
	DB	00H
	DB	00H
	DB	00H
	DB	00H
	DB	00H
	DB	00H
	DB	00H
	DB	00H
	DB	00H
	DB	00H
	DB	00H
	DB	00H
	DB	00H
	DB	00H
	DB	00H
	DB	00H
	DB	00H
	DB	00H
	DB	00H
	DB	00H
	DB	00H
	DB	00H
	DB	00H
	DB	00H
	DB	00H
	DB	00H
	DB	00H
	DB	00H
	DB	00H
	DB	00H
	DB	00H
	DB	00H
	DB	00H
	DB	00H
	DB	00H
	DB	00H
	DB	00H
	DB	00H
	DB	00H
	DB	00H
	DB	00H
	DB	00H
	DB	00H
	DB	00H
	DB	00H
	DB	00H
	DB	00H
	DB	00H
	DB	00H
	DB	00H
	DB	00H
	DB	00H
	DB	00H
	DB	00H
	DB	00H
	DB	00H
	DB	00H
	DB	00H
	DB	00H
	DB	00H
	DB	00H
	DB	00H
	DB	00H
	DB	00H
	DB	00H
	DB	00H
	DB	00H
	DB	00H
	DB	00H
	DB	00H
	DB	00H
	DB	00H
	DB	00H
	DB	00H
	DB	00H
	DB	00H
	DB	00H
	DB	00H
	DB	00H
	DB	00H
	DB	00H
	DB	00H
	DB	00H
	DB	00H
	DB	00H
	DB	00H
	DB	00H
	DB	00H
	DB	00H
	DB	00H
	DB	00H
	DB	00H
	DB	00H
	DB	00H
	DB	00H
	DB	00H
	DB	00H
	DB	00H
	DB	00H
	DB	00H
	DB	00H
	DB	00H
	DB	00H
	DB	00H
	DB	00H
	DB	00H
	DB	00H
	DB	00H
	DB	00H
	DB	00H
	DB	00H
	DB	00H
	DB	08H
	DB	05H
	DB	05H
	DB	05H
	DB	0aH
	DB	00H
	DB	00H
	DB	00H
	DB	00H
	DB	00H
	DB	00H
	DB	00H
	DB	00H
	DB	00H
	DB	00H
	DB	00H
	DB	00H
	DB	00H
	DB	00H
	DB	00H
	DB	00H
	DB	00H
	DB	00H
	DB	00H
	DB	00H
	DB	00H
	DB	00H
	DB	00H
	DB	00H
	DB	00H
	DB	00H
	DB	00H
	DB	00H
	DB	00H
	DB	00H
	DB	00H
	DB	00H
	DB	00H
	DB	00H
	DB	00H
	DB	00H
	DB	00H
	DB	00H
	DB	00H
	DB	00H
	DB	00H
	DB	00H
	DB	00H
	DB	00H
	DB	00H
	DB	00H
	DB	00H
	DB	00H
	DB	00H
	DB	00H
	DB	00H
	DB	00H
	DB	00H
	DB	00H
	DB	00H
	DB	00H
	DB	00H
	DB	00H
	DB	00H
	DB	00H
	DB	00H
	DB	00H
	DB	00H
	DB	00H
	DB	00H
	DB	00H
	DB	00H
	DB	00H
	DB	00H
	DB	00H
	DB	00H
	DB	00H
	DB	00H
	DB	00H
	DB	00H
	DB	00H
	DB	00H
	DB	00H
	DB	00H
	DB	00H
	DB	00H
	DB	00H
	DB	00H
	DB	00H
	DB	00H
	DB	00H
	DB	00H
	DB	00H
	DB	00H
	DB	00H
	DB	00H
	DB	00H
	DB	00H
	DB	00H
	DB	00H
	DB	00H
	DB	00H
	DB	00H
	DB	00H
	DB	00H
	DB	00H
	DB	00H
	DB	00H
	DB	00H
	DB	00H
	DB	00H
	DB	00H
	DB	00H
	DB	00H
	DB	00H
	DB	00H
	DB	00H
	DB	00H
	DB	00H
	DB	00H
	DB	00H
	DB	00H
	DB	00H
	DB	00H
	DB	00H
	DB	00H
	DB	00H
	DB	08H
	DB	05H
	DB	05H
	DB	05H
	DB	0aH
	DB	00H
	DB	00H
	DB	00H
	DB	00H
	DB	00H
	DB	00H
	DB	00H
	DB	00H
	DB	00H
	DB	00H
	DB	00H
	DB	00H
	DB	00H
	DB	00H
	DB	00H
	DB	00H
	DB	00H
	DB	00H
	DB	00H
	DB	00H
	DB	00H
	DB	00H
	DB	00H
	DB	00H
	DB	00H
	DB	00H
	DB	00H
	DB	00H
	DB	00H
	DB	00H
	DB	00H
	DB	00H
	DB	00H
	DB	00H
	DB	00H
	DB	00H
	DB	00H
	DB	00H
	DB	00H
	DB	00H
	DB	00H
	DB	00H
	DB	00H
	DB	00H
	DB	00H
	DB	00H
	DB	00H
	DB	00H
	DB	00H
	DB	00H
	DB	00H
	DB	00H
	DB	00H
	DB	00H
	DB	00H
	DB	00H
	DB	00H
	DB	00H
	DB	00H
	DB	00H
	DB	00H
	DB	00H
	DB	00H
	DB	00H
	DB	00H
	DB	00H
	DB	00H
	DB	00H
	DB	00H
	DB	00H
	DB	00H
	DB	00H
	DB	00H
	DB	00H
	DB	00H
	DB	00H
	DB	00H
	DB	00H
	DB	00H
	DB	00H
	DB	00H
	DB	00H
	DB	00H
	DB	00H
	DB	00H
	DB	00H
	DB	00H
	DB	00H
	DB	00H
	DB	00H
	DB	00H
	DB	00H
	DB	00H
	DB	00H
	DB	00H
	DB	00H
	DB	00H
	DB	00H
	DB	00H
	DB	00H
	DB	00H
	DB	00H
	DB	00H
	DB	00H
	DB	00H
	DB	00H
	DB	00H
	DB	00H
	DB	00H
	DB	00H
	DB	00H
	DB	00H
	DB	00H
	DB	00H
	DB	00H
	DB	00H
	DB	00H
	DB	00H
	DB	00H
	DB	00H
	DB	00H
	DB	00H
	DB	08H
	DB	05H
	DB	05H
	DB	05H
	DB	0aH
	DB	00H
	DB	00H
	DB	00H
	DB	00H
	DB	00H
	DB	00H
	DB	00H
	DB	00H
	DB	00H
	DB	00H
	DB	00H
	DB	00H
	DB	00H
	DB	00H
	DB	00H
	DB	00H
	DB	00H
	DB	00H
	DB	00H
	DB	00H
	DB	00H
	DB	00H
	DB	00H
	DB	00H
	DB	00H
	DB	00H
	DB	00H
	DB	00H
	DB	00H
	DB	00H
	DB	00H
	DB	00H
	DB	00H
	DB	00H
	DB	00H
	DB	00H
	DB	00H
	DB	00H
	DB	00H
	DB	00H
	DB	00H
	DB	00H
	DB	00H
	DB	00H
	DB	00H
	DB	00H
	DB	00H
	DB	00H
	DB	00H
	DB	00H
	DB	00H
	DB	00H
	DB	00H
	DB	00H
	DB	00H
	DB	00H
	DB	00H
	DB	00H
	DB	00H
	DB	00H
	DB	00H
	DB	00H
	DB	00H
	DB	00H
	DB	00H
	DB	00H
	DB	00H
	DB	00H
	DB	00H
	DB	00H
	DB	00H
	DB	00H
	DB	00H
	DB	00H
	DB	00H
	DB	00H
	DB	00H
	DB	00H
	DB	00H
	DB	00H
	DB	00H
	DB	00H
	DB	00H
	DB	00H
	DB	00H
	DB	00H
	DB	00H
	DB	00H
	DB	00H
	DB	00H
	DB	00H
	DB	00H
	DB	00H
	DB	00H
	DB	00H
	DB	00H
	DB	00H
	DB	00H
	DB	00H
	DB	00H
	DB	00H
	DB	00H
	DB	00H
	DB	00H
	DB	00H
	DB	00H
	DB	00H
	DB	00H
	DB	00H
	DB	00H
	DB	00H
	DB	00H
	DB	00H
	DB	00H
	DB	00H
	DB	00H
	DB	00H
	DB	00H
	DB	00H
	DB	00H
	DB	00H
	DB	00H
	DB	03H
	DB	07H
	DB	07H
	DB	07H
	DB	04H
	DB	00H
	DB	00H
	DB	00H
	DB	00H
	DB	00H
	DB	00H
	DB	00H
	DB	00H
	DB	00H
	DB	00H
	DB	00H
	DB	00H
	DB	00H
	DB	00H
	DB	00H
	DB	00H
	DB	00H
	DB	00H
	DB	00H
	DB	00H
	DB	00H
	DB	00H
	DB	00H
	DB	00H
	DB	00H
	DB	00H
	DB	00H
	DB	00H
	DB	00H
	DB	00H
	DB	00H
	DB	00H
	DB	00H
	DB	00H
	DB	00H
	DB	00H
	DB	00H
	DB	00H
	DB	00H
	DB	00H
	DB	00H
	DB	00H
	DB	00H
	DB	00H
	DB	00H
	DB	00H
	DB	00H
	DB	00H
	DB	00H
	DB	00H
	DB	00H
	DB	00H
	DB	00H
	DB	00H
	DB	00H
	DB	00H
	DB	00H
	DB	00H
	DB	00H
	DB	00H
	DB	00H
	DB	00H
	DB	00H
	DB	00H
	DB	00H
	DB	00H
	DB	00H
	DB	00H
	DB	00H
	DB	00H
	DB	00H
	DB	00H
	DB	00H
	DB	00H
	DB	00H
	DB	00H
	DB	00H
	DB	00H
	DB	00H
	DB	00H
	DB	00H
	DB	00H
	DB	00H
	DB	00H
	DB	00H
	DB	00H
	DB	00H
	DB	00H
	DB	00H
	DB	00H
	DB	00H
	DB	00H
	DB	00H
	DB	00H
	DB	00H
	DB	00H
	DB	00H
	DB	00H
	DB	00H
	DB	00H
	DB	00H
	DB	00H
	DB	00H
	DB	00H
	DB	00H
	DB	00H
	DB	00H
	DB	00H
	DB	00H
	DB	00H
	DB	00H
	DB	00H
	DB	00H
	DB	00H
	DB	00H
	DB	00H
	DB	00H
	DB	00H
	DB	00H
	DB	00H
	DB	00H
	DB	00H
	DB	00H
	DB	00H
	DB	00H
	DB	00H
	DB	00H
	DB	00H
	DB	00H
	DB	00H
	DB	00H
	DB	00H
	DB	00H
	DB	00H
	DB	00H
	DB	00H
	DB	00H
	DB	00H
	DB	00H
	DB	00H
	DB	00H
	DB	00H
	DB	00H
	DB	00H
	DB	00H
	DB	00H
	DB	00H
	DB	00H
	DB	00H
	DB	00H
	DB	00H
	DB	00H
	DB	00H
	DB	00H
	DB	00H
	DB	00H
	DB	00H
	DB	00H
	DB	00H
	DB	00H
	DB	00H
	DB	00H
	DB	00H
	DB	00H
	DB	00H
	DB	00H
	DB	00H
	DB	00H
	DB	00H
	DB	00H
	DB	00H
	DB	00H
	DB	00H
	DB	00H
	DB	00H
	DB	00H
	DB	00H
	DB	00H
	DB	00H
	DB	00H
	DB	00H
	DB	00H
	DB	00H
	DB	00H
	DB	00H
	DB	00H
	DB	00H
	DB	00H
	DB	00H
	DB	00H
	DB	00H
	DB	00H
	DB	00H
	DB	00H
	DB	00H
	DB	00H
	DB	00H
	DB	00H
	DB	00H
	DB	00H
	DB	00H
	DB	00H
	DB	00H
	DB	00H
	DB	00H
	DB	00H
	DB	00H
	DB	00H
	DB	00H
	DB	00H
	DB	00H
	DB	00H
	DB	00H
	DB	00H
	DB	00H
	DB	00H
	DB	00H
	DB	00H
	DB	00H
	DB	00H
	DB	00H
	DB	00H
	DB	00H
	DB	00H
	DB	00H
	DB	00H
	DB	00H
	DB	00H
	DB	00H
	DB	00H
	DB	00H
	DB	00H
	DB	00H
	DB	00H
	DB	00H
	DB	00H
	DB	00H
	DB	00H
	DB	00H
	DB	00H
	DB	00H
	DB	00H
	DB	00H
	DB	00H
	DB	00H
	DB	00H
	DB	00H
	DB	00H
	DB	00H
	DB	00H
	DB	00H
	DB	00H
	DB	00H
	DB	00H
	DB	00H
	DB	00H
	DB	00H
	DB	00H
	DB	00H
	DB	00H
	DB	00H
	DB	00H
	DB	00H
	DB	00H
	DB	00H
	DB	00H
	DB	00H
	DB	00H
	DB	00H
	DB	00H
	DB	00H
	DB	00H
	DB	00H
	DB	00H
	DB	00H
	DB	00H
	DB	00H
	DB	00H
	DB	00H
	DB	00H
	DB	00H
	DB	00H
	DB	00H
	DB	00H
	DB	00H
	DB	00H
	DB	00H
	DB	00H
	DB	00H
	DB	00H
	DB	00H
	DB	00H
	DB	00H
	DB	00H
	DB	00H
	DB	00H
	DB	00H
	DB	00H
	DB	00H
	DB	00H
	DB	00H
	DB	00H
	DB	00H
	DB	00H
	DB	00H
	DB	00H
	DB	00H
	DB	00H
	DB	00H
	DB	00H
	DB	00H
	DB	00H
	DB	00H
	DB	00H
	DB	00H
	DB	00H
	DB	00H
	DB	00H
	DB	00H
	DB	00H
	DB	00H
	DB	00H
	DB	00H
	DB	00H
	DB	00H
	DB	00H
	DB	00H
	DB	00H
	DB	00H
	DB	00H
	DB	00H
	DB	00H
	DB	00H
	DB	00H
	DB	00H
	DB	00H
	DB	00H
	DB	00H
	DB	00H
	DB	00H
	DB	00H
	DB	00H
	DB	00H
	DB	00H
	DB	00H
	DB	00H
	DB	00H
	DB	00H
	DB	00H
	DB	00H
	DB	00H
	DB	00H
	DB	00H
	DB	00H
	DB	00H
	DB	00H
	DB	00H
	DB	00H
	DB	00H
	DB	00H
	DB	00H
	DB	00H
	DB	00H
	DB	00H
	DB	00H
	DB	00H
	DB	00H
	DB	00H
	DB	00H
	DB	00H
	DB	00H
	DB	00H
	DB	00H
	DB	00H
	DB	00H
	DB	00H
	DB	00H
	DB	00H
	DB	00H
	DB	00H
	DB	00H
	DB	00H
	DB	00H
	DB	00H
	DB	00H
	DB	00H
	DB	00H
	DB	00H
	DB	00H
	DB	00H
	DB	00H
	DB	00H
	DB	00H
	DB	00H
	DB	00H
	DB	00H
	DB	00H
	DB	00H
	DB	00H
	DB	00H
	DB	00H
	DB	00H
	DB	00H
	DB	00H
	DB	00H
CONST	ENDS
END
