; Listing generated by Microsoft (R) Optimizing Compiler Version 16.00.40219.01 

	TITLE	C:\DUII\DUII\Graphics\AutocrossStageBackground.c
	.686P
	.XMM
	include listing.inc
	.model	flat

INCLUDELIB LIBCMT
INCLUDELIB OLDNAMES

PUBLIC	_bmAutocrossStageBackground
CONST	SEGMENT
_ColorsAutocrossStageBackground DD 0eeeff0H
	DD	020202H
	DD	0161717H
	DD	0252627H
	DD	0111fdH
	DD	0343536H
	DD	06b6c6eH
	DD	018fe00H
	DD	01b1d22H
	DD	0fefefeH
	DD	0464748H
	DD	0565658H
	DD	01d2224H
	DD	0d1ecfeH
	DD	02c3236H
	DD	0282c32H
	DD	0e1112H
	DD	0343a44H
	DD	03b4349H
	DD	0c0e10H
	DD	0dee0e0H
	DD	0728fcH
	DD	0464b53H
	DD	0b6cbf0H
	DD	0100d0dH
	DD	0515966H
	DD	061605H
	DD	04a5256H
	DD	011110eH
	DD	0aeaeaeH
	DD	01c1c37H
	DD	0c4d9f7H
	DD	08d8f91H
	DD	0211d1cH
	DD	059646cH
	DD	0a5b6d9H
	DD	022211dH
	DD	015e600H
	DD	0322c2aH
	DD	0110e11H
	DD	0a5bae4H
	DD	032400H
	DD	0c5c6c6H
	DD	012c800H
	DD	0e7e7e6H
	DD	01d201dH
	DD	0c8a00H
	DD	033312dH
	DD	09caed4H
	DD	064800H
	DD	06f7988H
	DD	0d8d8d8H
	DD	0423c3bH
	DD	0d9400H
	DD	02c302dH
	DD	014d700H
	DD	0211e21H
	DD	0322e32H
	DD	01312d0H
	DD	078848dH
	DD	044423dH
	DD	0662608H
	DD	085800H
	DD	043700H
	DD	096700H
	DD	03c403dH
	DD	0534b49H
	DD	011b500H
	DD	08e98aaH
	DD	010a900H
	DD	014176eH
	DD	0742b05H
	DD	01113b3H
	DD	0413d42H
	DD	059220bH
	DD	014174fH
	DD	03449f7H
	DD	0e4fafdH
	DD	0b7800H
	DD	04b514cH
	DD	056534cH
	DD	014168eH
	DD	01c2735H
	DD	0625c5aH
	DD	0953901H
	DD	07b4538H
	DD	0b64802H
	DD	0566c88H
	DD	0854c37H
	DD	0fa100H
	DD	096a9fcH
	DD	0374d65H
	DD	066635cH
	DD	0883301H
	DD	0b76728H
	DD	0a66945H
	DD	0253af5H
	DD	07789a6H
	DD	0541d11H
	DD	0d98538H
	DD	06575fbH
	DD	0351509H
	DD	0293170H
	DD	05c615dH
	DD	0874427H
	DD	0a45826H
	DD	0c67229H
	DD	0c57837H
	DD	0f59935H
	DD	0182aafH
	DD	02939b1H
	DD	05365feH
	DD	0b4754aH
	DD	0eb9337H
	DD	04652feH
	DD	08698fdH
	DD	0a84102H
	DD	0944c24H
	DD	0c95200H
	DD	0817974H
	DD	0d7cbb5H
	DD	0514d52H
	DD	08a513cH
	DD	0d27b2aH
	DD	0d48a46H
	DD	0e59748H
	DD	01930d2H
	DD	0d5c5a9H
	DD	0b8c4d7H
	DD	027140aH
	DD	0582313H
	DD	0773a27H
	DD	01c244cH
	DD	018246fH
	DD	094583bH
	DD	0c24d00H
	DD	0d45800H
	DD	0945b41H
	DD	0c88246H
	DD	0f5a247H
	DD	07484fdH
	DD	080b25H
	DD	0974919H
	DD	09b6142H
	DD	0da822bH
	DD	0e38c33H
	DD	0fda139H
	DD	0878378H
	DD	0eca355H
	DD	03443a6H
	DD	0e5d9caH
	DD	0541e0dH
	DD	0471811H
	DD	0632615H
	DD	067342bH
	DD	0655d62H
	DD	0832e00H
	DD	0a7571bH
	DD	0ac612bH
	DD	0b46b35H
	DD	0e58829H
	DD	0f9992eH
	DD	0f19e44H
	DD	015248eH
	DD	0485589H
	DD	02439d0H
	DD	09ba3aaH
	DD	08a9dc2H
	DD	0250d06H
	DD	0401a07H
	DD	0452208H
	DD	07d3407H
	DD	09c5326H
	DD	0dc7513H
	DD	0c46b24H
	DD	0db9352H
	DD	0e59b54H
	DD	0293893H
	DD	03246d5H
	DD	0cbb69bH
	DD	0d8bb96H
	DD	0dbd4c4H
	DD	0eae4dbH
	DD	0e5edf4H
	DD	0e1820H
	DD	070a32H
	DD	04e2516H
	DD	0753d31H
	DD	07d402dH
	DD	0a33900H
	DD	0823e23H
	DD	09e551cH
	DD	0a34d16H
	DD	0b55f18H
	DD	0be7539H
	DD	0d96506H
	DD	0c5621bH
	DD	08d5540H
	DD	0af7148H
	DD	0c37d44H
	DD	0ffa02eH
	DD	0d79e6aH
	DD	0ca9b78H
	DD	0d5a372H
	DD	037468bH
	DD	05663b2H
	DD	0d2a888H
	DD	0e8b787H
	DD	0cebba6H
	DD	0d8bfa1H
	DD	0f0eee9H
	DD	0f2f0ebH
	DD	0331b17H
	DD	035211dH
	DD	0b1038H
	DD	0603711H
	DD	071331fH
	DD	0482622H
	DD	05c2f28H
	DD	05f332dH
	DD	0794110H
	DD	091480fH
	DD	08a431fH
	DD	0be641bH
	DD	09e603eH
	DD	0aa6231H
	DD	0e4760dH
	DD	0d27e30H
	DD	0b07c57H
	DD	0fb000H
	DD	073807aH
	DD	0eb8114H
	DD	0ba8759H
	DD	0df9349H
	DD	0eda04eH
	DD	0f1a451H
	DD	0ebb478H
	DD	03a648aH
	DD	04e5aacH
	DD	04960ceH
	DD	07381d7H
	DD	0be9e80H
	DD	0a69c9fH
	DD	0cba98bH
	DD	0c7a998H
	DD	0c5bebcH
	DD	0c6c0bbH
	DD	0dbd1baH
	DD	0f1cca1H
	DD	0e1ccbcH
	DD	0f3d5b2H
	DD	0c2d0deH
	DD	0f1dcc1H
	DD	0f8e3c6H
	DD	0f9e9d0H
	DD	0f9e9d0H
_PalAutocrossStageBackground DD 0100H
	DB	00H
	ORG $+3
	DD	FLAT:_ColorsAutocrossStageBackground
_bmAutocrossStageBackground DW 0d2H
	DW	0110H
	DW	0d2H
	DW	08H
	DD	FLAT:_acAutocrossStageBackground
	DD	FLAT:_PalAutocrossStageBackground
	ORG $+4
_acAutocrossStageBackground DB 01H
	DB	01H
	DB	01H
	DB	01H
	DB	01H
	DB	01H
	DB	01H
	DB	01H
	DB	01H
	DB	01H
	DB	01H
	DB	01H
	DB	01H
	DB	01H
	DB	01H
	DB	01H
	DB	01H
	DB	01H
	DB	01H
	DB	01H
	DB	01H
	DB	01H
	DB	01H
	DB	01H
	DB	01H
	DB	01H
	DB	01H
	DB	01H
	DB	01H
	DB	01H
	DB	01H
	DB	01H
	DB	01H
	DB	01H
	DB	01H
	DB	01H
	DB	01H
	DB	01H
	DB	01H
	DB	01H
	DB	01H
	DB	01H
	DB	01H
	DB	01H
	DB	01H
	DB	01H
	DB	01H
	DB	01H
	DB	01H
	DB	01H
	DB	01H
	DB	01H
	DB	01H
	DB	01H
	DB	01H
	DB	01H
	DB	01H
	DB	01H
	DB	01H
	DB	01H
	DB	01H
	DB	01H
	DB	01H
	DB	01H
	DB	01H
	DB	01H
	DB	01H
	DB	01H
	DB	01H
	DB	01H
	DB	01H
	DB	01H
	DB	01H
	DB	01H
	DB	01H
	DB	01H
	DB	01H
	DB	01H
	DB	01H
	DB	01H
	DB	01H
	DB	01H
	DB	01H
	DB	01H
	DB	01H
	DB	01H
	DB	01H
	DB	01H
	DB	01H
	DB	01H
	DB	01H
	DB	01H
	DB	01H
	DB	01H
	DB	01H
	DB	01H
	DB	01H
	DB	01H
	DB	01H
	DB	01H
	DB	01H
	DB	01H
	DB	01H
	DB	01H
	DB	01H
	DB	01H
	DB	01H
	DB	01H
	DB	01H
	DB	01H
	DB	01H
	DB	01H
	DB	01H
	DB	01H
	DB	01H
	DB	01H
	DB	01H
	DB	01H
	DB	01H
	DB	01H
	DB	01H
	DB	01H
	DB	01H
	DB	01H
	DB	01H
	DB	01H
	DB	01H
	DB	01H
	DB	01H
	DB	01H
	DB	01H
	DB	01H
	DB	01H
	DB	01H
	DB	01H
	DB	01H
	DB	01H
	DB	01H
	DB	01H
	DB	01H
	DB	01H
	DB	01H
	DB	01H
	DB	01H
	DB	01H
	DB	01H
	DB	01H
	DB	01H
	DB	01H
	DB	01H
	DB	01H
	DB	01H
	DB	01H
	DB	01H
	DB	01H
	DB	01H
	DB	01H
	DB	01H
	DB	01H
	DB	01H
	DB	01H
	DB	01H
	DB	01H
	DB	01H
	DB	01H
	DB	01H
	DB	01H
	DB	01H
	DB	01H
	DB	01H
	DB	01H
	DB	01H
	DB	01H
	DB	01H
	DB	01H
	DB	01H
	DB	01H
	DB	01H
	DB	01H
	DB	01H
	DB	01H
	DB	01H
	DB	01H
	DB	01H
	DB	01H
	DB	01H
	DB	01H
	DB	01H
	DB	01H
	DB	01H
	DB	01H
	DB	01H
	DB	01H
	DB	01H
	DB	01H
	DB	01H
	DB	01H
	DB	01H
	DB	01H
	DB	01H
	DB	01H
	DB	01H
	DB	01H
	DB	01H
	DB	01H
	DB	01H
	DB	01H
	DB	01H
	DB	01H
	DB	01H
	DB	01H
	DB	01H
	DB	01H
	DB	01H
	DB	01H
	DB	01H
	DB	01H
	DB	01H
	DB	01H
	DB	01H
	DB	01H
	DB	0a8H
	DB	0a9H
	DB	04aH
	DB	04aH
	DB	082H
	DB	0baH
	DB	0aaH
	DB	081H
	DB	018H
	DB	01H
	DB	01H
	DB	01H
	DB	01H
	DB	01H
	DB	01H
	DB	01H
	DB	01H
	DB	01H
	DB	01H
	DB	01H
	DB	01H
	DB	01H
	DB	01H
	DB	01H
	DB	01H
	DB	01H
	DB	01H
	DB	01H
	DB	01H
	DB	01H
	DB	01H
	DB	01H
	DB	01H
	DB	01H
	DB	01H
	DB	01H
	DB	01H
	DB	01H
	DB	01H
	DB	01H
	DB	01H
	DB	01H
	DB	01H
	DB	01H
	DB	01H
	DB	01H
	DB	01H
	DB	01H
	DB	01H
	DB	01H
	DB	01H
	DB	01H
	DB	01H
	DB	01H
	DB	01H
	DB	01H
	DB	01H
	DB	01H
	DB	01H
	DB	01H
	DB	01H
	DB	01H
	DB	01H
	DB	01H
	DB	01H
	DB	01H
	DB	01H
	DB	01H
	DB	01H
	DB	01H
	DB	01H
	DB	01H
	DB	01H
	DB	01H
	DB	01H
	DB	01H
	DB	01H
	DB	01H
	DB	01H
	DB	01H
	DB	01H
	DB	01H
	DB	01H
	DB	01H
	DB	01H
	DB	01H
	DB	01H
	DB	01H
	DB	01H
	DB	01H
	DB	01H
	DB	01H
	DB	01H
	DB	01H
	DB	01H
	DB	01H
	DB	01H
	DB	01H
	DB	01H
	DB	01H
	DB	01H
	DB	01H
	DB	01H
	DB	01H
	DB	01H
	DB	01H
	DB	01H
	DB	01H
	DB	01H
	DB	01H
	DB	01H
	DB	01H
	DB	01H
	DB	01H
	DB	01H
	DB	01H
	DB	01H
	DB	01H
	DB	01H
	DB	01H
	DB	01H
	DB	01H
	DB	01H
	DB	01H
	DB	01H
	DB	01H
	DB	01H
	DB	01H
	DB	01H
	DB	01H
	DB	01H
	DB	01H
	DB	01H
	DB	01H
	DB	01H
	DB	01H
	DB	01H
	DB	01H
	DB	01H
	DB	01H
	DB	01H
	DB	01H
	DB	01H
	DB	01H
	DB	01H
	DB	01H
	DB	01H
	DB	01H
	DB	01H
	DB	01H
	DB	01H
	DB	01H
	DB	01H
	DB	01H
	DB	01H
	DB	01H
	DB	01H
	DB	01H
	DB	01H
	DB	01H
	DB	01H
	DB	01H
	DB	01H
	DB	01H
	DB	01H
	DB	01H
	DB	01H
	DB	01H
	DB	01H
	DB	01H
	DB	01H
	DB	01H
	DB	01H
	DB	01H
	DB	01H
	DB	01H
	DB	01H
	DB	01H
	DB	01H
	DB	01H
	DB	01H
	DB	01H
	DB	01H
	DB	01H
	DB	01H
	DB	01H
	DB	01H
	DB	01H
	DB	01H
	DB	01H
	DB	01H
	DB	01H
	DB	01H
	DB	01H
	DB	01H
	DB	01H
	DB	01H
	DB	01H
	DB	01H
	DB	01H
	DB	01H
	DB	01H
	DB	01H
	DB	01H
	DB	01H
	DB	01H
	DB	01H
	DB	01H
	DB	0aaH
	DB	0dcH
	DB	08eH
	DB	0deH
	DB	0deH
	DB	0deH
	DB	068H
	DB	068H
	DB	0beH
	DB	083H
	DB	0d8H
	DB	0baH
	DB	081H
	DB	01H
	DB	01H
	DB	01H
	DB	01H
	DB	01H
	DB	01H
	DB	01H
	DB	01H
	DB	01H
	DB	01H
	DB	01H
	DB	01H
	DB	01H
	DB	01H
	DB	01H
	DB	01H
	DB	01H
	DB	01H
	DB	01H
	DB	01H
	DB	01H
	DB	01H
	DB	01H
	DB	01H
	DB	01H
	DB	01H
	DB	01H
	DB	01H
	DB	01H
	DB	01H
	DB	01H
	DB	01H
	DB	01H
	DB	01H
	DB	01H
	DB	01H
	DB	01H
	DB	01H
	DB	01H
	DB	01H
	DB	01H
	DB	01H
	DB	01H
	DB	01H
	DB	01H
	DB	01H
	DB	01H
	DB	01H
	DB	01H
	DB	01H
	DB	01H
	DB	01H
	DB	01H
	DB	01H
	DB	01H
	DB	01H
	DB	01H
	DB	01H
	DB	01H
	DB	01H
	DB	01H
	DB	01H
	DB	01H
	DB	01H
	DB	01H
	DB	01H
	DB	01H
	DB	01H
	DB	01H
	DB	01H
	DB	01H
	DB	01H
	DB	01H
	DB	01H
	DB	01H
	DB	01H
	DB	01H
	DB	01H
	DB	01H
	DB	01H
	DB	01H
	DB	01H
	DB	01H
	DB	01H
	DB	01H
	DB	01H
	DB	01H
	DB	01H
	DB	01H
	DB	01H
	DB	01H
	DB	01H
	DB	01H
	DB	01H
	DB	01H
	DB	01H
	DB	01H
	DB	01H
	DB	01H
	DB	01H
	DB	01H
	DB	01H
	DB	01H
	DB	01H
	DB	01H
	DB	01H
	DB	01H
	DB	01H
	DB	01H
	DB	01H
	DB	01H
	DB	01H
	DB	01H
	DB	01H
	DB	01H
	DB	01H
	DB	01H
	DB	01H
	DB	01H
	DB	01H
	DB	01H
	DB	01H
	DB	01H
	DB	01H
	DB	01H
	DB	01H
	DB	01H
	DB	01H
	DB	01H
	DB	01H
	DB	01H
	DB	01H
	DB	01H
	DB	01H
	DB	01H
	DB	01H
	DB	01H
	DB	01H
	DB	01H
	DB	01H
	DB	01H
	DB	01H
	DB	01H
	DB	01H
	DB	01H
	DB	01H
	DB	01H
	DB	01H
	DB	01H
	DB	01H
	DB	01H
	DB	01H
	DB	01H
	DB	01H
	DB	01H
	DB	01H
	DB	01H
	DB	01H
	DB	01H
	DB	01H
	DB	01H
	DB	01H
	DB	01H
	DB	01H
	DB	01H
	DB	01H
	DB	01H
	DB	01H
	DB	01H
	DB	01H
	DB	01H
	DB	01H
	DB	01H
	DB	01H
	DB	01H
	DB	01H
	DB	01H
	DB	01H
	DB	01H
	DB	01H
	DB	01H
	DB	01H
	DB	01H
	DB	01H
	DB	01H
	DB	01H
	DB	01H
	DB	01H
	DB	01H
	DB	01H
	DB	01H
	DB	01H
	DB	01H
	DB	01H
	DB	01H
	DB	065H
	DB	0ddH
	DB	09dH
	DB	075H
	DB	075H
	DB	075H
	DB	075H
	DB	075H
	DB	075H
	DB	068H
	DB	068H
	DB	0bcH
	DB	0bcH
	DB	0bcH
	DB	083H
	DB	0baH
	DB	018H
	DB	01H
	DB	01H
	DB	01H
	DB	01H
	DB	01H
	DB	01H
	DB	01H
	DB	01H
	DB	01H
	DB	01H
	DB	01H
	DB	01H
	DB	01H
	DB	01H
	DB	01H
	DB	01H
	DB	01H
	DB	01H
	DB	01H
	DB	01H
	DB	01H
	DB	01H
	DB	01H
	DB	01H
	DB	01H
	DB	01H
	DB	01H
	DB	01H
	DB	01H
	DB	01H
	DB	01H
	DB	01H
	DB	01H
	DB	01H
	DB	01H
	DB	01H
	DB	01H
	DB	01H
	DB	01H
	DB	01H
	DB	01H
	DB	01H
	DB	01H
	DB	01H
	DB	01H
	DB	01H
	DB	01H
	DB	01H
	DB	01H
	DB	01H
	DB	01H
	DB	01H
	DB	01H
	DB	01H
	DB	01H
	DB	01H
	DB	01H
	DB	01H
	DB	01H
	DB	01H
	DB	01H
	DB	01H
	DB	01H
	DB	01H
	DB	01H
	DB	01H
	DB	01H
	DB	01H
	DB	01H
	DB	01H
	DB	01H
	DB	01H
	DB	01H
	DB	01H
	DB	01H
	DB	01H
	DB	01H
	DB	01H
	DB	01H
	DB	01H
	DB	01H
	DB	01H
	DB	01H
	DB	01H
	DB	01H
	DB	01H
	DB	01H
	DB	01H
	DB	01H
	DB	01H
	DB	01H
	DB	01H
	DB	01H
	DB	01H
	DB	01H
	DB	01H
	DB	01H
	DB	01H
	DB	01H
	DB	01H
	DB	01H
	DB	01H
	DB	01H
	DB	01H
	DB	01H
	DB	01H
	DB	01H
	DB	01H
	DB	01H
	DB	01H
	DB	01H
	DB	01H
	DB	01H
	DB	01H
	DB	01H
	DB	01H
	DB	01H
	DB	01H
	DB	01H
	DB	01H
	DB	01H
	DB	01H
	DB	01H
	DB	01H
	DB	01H
	DB	01H
	DB	01H
	DB	01H
	DB	01H
	DB	01H
	DB	01H
	DB	01H
	DB	01H
	DB	01H
	DB	01H
	DB	01H
	DB	01H
	DB	01H
	DB	01H
	DB	01H
	DB	01H
	DB	01H
	DB	01H
	DB	01H
	DB	01H
	DB	01H
	DB	01H
	DB	01H
	DB	01H
	DB	01H
	DB	01H
	DB	01H
	DB	01H
	DB	01H
	DB	01H
	DB	01H
	DB	01H
	DB	01H
	DB	01H
	DB	01H
	DB	01H
	DB	01H
	DB	01H
	DB	01H
	DB	01H
	DB	01H
	DB	01H
	DB	01H
	DB	01H
	DB	01H
	DB	01H
	DB	01H
	DB	01H
	DB	01H
	DB	01H
	DB	01H
	DB	01H
	DB	01H
	DB	01H
	DB	01H
	DB	01H
	DB	01H
	DB	01H
	DB	01H
	DB	01H
	DB	01H
	DB	01H
	DB	01H
	DB	01H
	DB	01H
	DB	01H
	DB	01H
	DB	04aH
	DB	09dH
	DB	0acH
	DB	0acH
	DB	069H
	DB	069H
	DB	069H
	DB	069H
	DB	0acH
	DB	075H
	DB	0bfH
	DB	09dH
	DB	075H
	DB	058H
	DB	068H
	DB	0bcH
	DB	0bcH
	DB	09aH
	DB	0a8H
	DB	01H
	DB	01H
	DB	01H
	DB	01H
	DB	01H
	DB	01H
	DB	01H
	DB	01H
	DB	01H
	DB	01H
	DB	01H
	DB	01H
	DB	01H
	DB	01H
	DB	01H
	DB	01H
	DB	01H
	DB	01H
	DB	01H
	DB	01H
	DB	01H
	DB	01H
	DB	01H
	DB	01H
	DB	01H
	DB	01H
	DB	01H
	DB	01H
	DB	01H
	DB	01H
	DB	01H
	DB	01H
	DB	01H
	DB	01H
	DB	01H
	DB	01H
	DB	01H
	DB	01H
	DB	01H
	DB	01H
	DB	01H
	DB	01H
	DB	01H
	DB	01H
	DB	01H
	DB	01H
	DB	01H
	DB	01H
	DB	01H
	DB	01H
	DB	01H
	DB	01H
	DB	01H
	DB	01H
	DB	01H
	DB	01H
	DB	01H
	DB	01H
	DB	01H
	DB	01H
	DB	01H
	DB	01H
	DB	01H
	DB	01H
	DB	01H
	DB	01H
	DB	01H
	DB	01H
	DB	01H
	DB	01H
	DB	01H
	DB	01H
	DB	01H
	DB	01H
	DB	01H
	DB	01H
	DB	01H
	DB	01H
	DB	01H
	DB	01H
	DB	01H
	DB	01H
	DB	01H
	DB	01H
	DB	01H
	DB	01H
	DB	01H
	DB	01H
	DB	01H
	DB	01H
	DB	01H
	DB	01H
	DB	01H
	DB	01H
	DB	01H
	DB	01H
	DB	01H
	DB	01H
	DB	01H
	DB	01H
	DB	01H
	DB	01H
	DB	01H
	DB	01H
	DB	01H
	DB	01H
	DB	01H
	DB	01H
	DB	01H
	DB	01H
	DB	01H
	DB	01H
	DB	01H
	DB	01H
	DB	01H
	DB	01H
	DB	01H
	DB	01H
	DB	01H
	DB	01H
	DB	01H
	DB	01H
	DB	01H
	DB	01H
	DB	01H
	DB	01H
	DB	01H
	DB	01H
	DB	01H
	DB	01H
	DB	01H
	DB	01H
	DB	01H
	DB	01H
	DB	01H
	DB	01H
	DB	01H
	DB	01H
	DB	01H
	DB	01H
	DB	01H
	DB	01H
	DB	01H
	DB	01H
	DB	01H
	DB	01H
	DB	01H
	DB	01H
	DB	01H
	DB	01H
	DB	01H
	DB	01H
	DB	01H
	DB	01H
	DB	01H
	DB	01H
	DB	01H
	DB	01H
	DB	01H
	DB	01H
	DB	01H
	DB	01H
	DB	01H
	DB	01H
	DB	01H
	DB	01H
	DB	01H
	DB	01H
	DB	01H
	DB	01H
	DB	01H
	DB	01H
	DB	01H
	DB	01H
	DB	01H
	DB	01H
	DB	01H
	DB	01H
	DB	01H
	DB	01H
	DB	01H
	DB	01H
	DB	01H
	DB	01H
	DB	01H
	DB	01H
	DB	01H
	DB	01H
	DB	01H
	DB	01H
	DB	04aH
	DB	0c1H
	DB	069H
	DB	09eH
	DB	05eH
	DB	05eH
	DB	09eH
	DB	09eH
	DB	09eH
	DB	069H
	DB	09fH
	DB	0d1H
	DB	0fcH
	DB	0afH
	DB	0acH
	DB	058H
	DB	058H
	DB	055H
	DB	055H
	DB	09aH
	DB	0d4H
	DB	036H
	DB	0aH
	DB	079H
	DB	0bH
	DB	0bH
	DB	0bH
	DB	0bH
	DB	0bH
	DB	0bH
	DB	0bH
	DB	0bH
	DB	0bH
	DB	0bH
	DB	0bH
	DB	0bH
	DB	0bH
	DB	0bH
	DB	0bH
	DB	0bH
	DB	0bH
	DB	0bH
	DB	0bH
	DB	0bH
	DB	0bH
	DB	0bH
	DB	0bH
	DB	0bH
	DB	0bH
	DB	0aH
	DB	01H
	DB	01H
	DB	01H
	DB	01H
	DB	01H
	DB	01H
	DB	01H
	DB	01H
	DB	049H
	DB	0bH
	DB	0bH
	DB	0bH
	DB	0bH
	DB	0bH
	DB	0bH
	DB	0bH
	DB	0bH
	DB	0bH
	DB	0bH
	DB	0bH
	DB	0bH
	DB	0bH
	DB	0bH
	DB	0bH
	DB	0bH
	DB	0bH
	DB	0bH
	DB	0bH
	DB	0bH
	DB	0bH
	DB	0bH
	DB	0bH
	DB	0bH
	DB	0bH
	DB	0bH
	DB	0bH
	DB	0bH
	DB	0bH
	DB	0bH
	DB	0bH
	DB	0bH
	DB	0bH
	DB	0bH
	DB	0bH
	DB	0bH
	DB	0bH
	DB	0bH
	DB	0bH
	DB	0bH
	DB	0bH
	DB	0bH
	DB	0bH
	DB	0bH
	DB	0bH
	DB	0bH
	DB	0bH
	DB	0bH
	DB	0bH
	DB	0bH
	DB	0bH
	DB	0bH
	DB	0bH
	DB	0bH
	DB	0aH
	DB	018H
	DB	01H
	DB	01H
	DB	01H
	DB	01H
	DB	01H
	DB	01H
	DB	01H
	DB	027H
	DB	049H
	DB	0bH
	DB	0bH
	DB	0bH
	DB	0bH
	DB	0aH
	DB	027H
	DB	029H
	DB	040H
	DB	035H
	DB	04eH
	DB	029H
	DB	018H
	DB	0aH
	DB	0bH
	DB	0bH
	DB	0bH
	DB	0bH
	DB	0bH
	DB	0bH
	DB	0bH
	DB	0bH
	DB	0bH
	DB	0bH
	DB	0bH
	DB	0bH
	DB	0bH
	DB	0bH
	DB	0bH
	DB	0bH
	DB	0bH
	DB	0bH
	DB	0bH
	DB	0bH
	DB	0bH
	DB	036H
	DB	01H
	DB	01H
	DB	01H
	DB	01H
	DB	01H
	DB	01H
	DB	01H
	DB	01H
	DB	01H
	DB	01H
	DB	01H
	DB	01H
	DB	01H
	DB	01H
	DB	01H
	DB	01H
	DB	018H
	DB	038H
	DB	049H
	DB	0bH
	DB	0bH
	DB	0bH
	DB	0bH
	DB	0bH
	DB	0bH
	DB	0bH
	DB	0bH
	DB	0bH
	DB	0bH
	DB	0bH
	DB	0bH
	DB	0bH
	DB	0bH
	DB	0bH
	DB	0bH
	DB	0bH
	DB	0bH
	DB	0bH
	DB	0bH
	DB	0bH
	DB	0bH
	DB	0bH
	DB	0bH
	DB	0bH
	DB	0bH
	DB	0bH
	DB	01H
	DB	01H
	DB	01H
	DB	01H
	DB	0aaH
	DB	0dfH
	DB	09eH
	DB	0aeH
	DB	0aeH
	DB	05eH
	DB	05eH
	DB	05eH
	DB	09fH
	DB	05eH
	DB	09eH
	DB	0f9H
	DB	09H
	DB	04dH
	DB	0feH
	DB	0aeH
	DB	07aH
	DB	07aH
	DB	058H
	DB	055H
	DB	055H
	DB	0bbH
	DB	03cH
	DB	04fH
	DB	0bH
	DB	0bH
	DB	0bH
	DB	0bH
	DB	0bH
	DB	0bH
	DB	0bH
	DB	0bH
	DB	0bH
	DB	0bH
	DB	0bH
	DB	0bH
	DB	0bH
	DB	0bH
	DB	0bH
	DB	0bH
	DB	0bH
	DB	0bH
	DB	0bH
	DB	0bH
	DB	0bH
	DB	0bH
	DB	0bH
	DB	0bH
	DB	0bH
	DB	0bH
	DB	02H
	DB	031H
	DB	02bH
	DB	02bH
	DB	02bH
	DB	02bH
	DB	02bH
	DB	02bH
	DB	03fH
	DB	039H
	DB	067H
	DB	0bH
	DB	0bH
	DB	0bH
	DB	0bH
	DB	0bH
	DB	0bH
	DB	0bH
	DB	0bH
	DB	0bH
	DB	0bH
	DB	0bH
	DB	0bH
	DB	0bH
	DB	0bH
	DB	0bH
	DB	0bH
	DB	0bH
	DB	0bH
	DB	0bH
	DB	0bH
	DB	0bH
	DB	0bH
	DB	0bH
	DB	0bH
	DB	0bH
	DB	0bH
	DB	0bH
	DB	0bH
	DB	0bH
	DB	0bH
	DB	0bH
	DB	0bH
	DB	0bH
	DB	0bH
	DB	0bH
	DB	0bH
	DB	0bH
	DB	0bH
	DB	0bH
	DB	0bH
	DB	0bH
	DB	0bH
	DB	0bH
	DB	0bH
	DB	0bH
	DB	0bH
	DB	0bH
	DB	0bH
	DB	0bH
	DB	0bH
	DB	0bH
	DB	0bH
	DB	0bH
	DB	02H
	DB	03eH
	DB	02bH
	DB	02bH
	DB	02bH
	DB	02bH
	DB	02bH
	DB	02bH
	DB	043H
	DB	03eH
	DB	013H
	DB	049H
	DB	0bH
	DB	0bH
	DB	079H
	DB	027H
	DB	031H
	DB	025H
	DB	07H
	DB	07H
	DB	07H
	DB	025H
	DB	031H
	DB	038H
	DB	0bH
	DB	0bH
	DB	0bH
	DB	0bH
	DB	0bH
	DB	0bH
	DB	0bH
	DB	0bH
	DB	0bH
	DB	0bH
	DB	0bH
	DB	0bH
	DB	0bH
	DB	0bH
	DB	0bH
	DB	0bH
	DB	0bH
	DB	0bH
	DB	0bH
	DB	0bH
	DB	04fH
	DB	01H
	DB	02eH
	DB	02bH
	DB	02bH
	DB	02bH
	DB	02bH
	DB	02bH
	DB	02bH
	DB	02bH
	DB	02bH
	DB	02bH
	DB	02bH
	DB	02bH
	DB	02bH
	DB	02bH
	DB	02bH
	DB	043H
	DB	02eH
	DB	03fH
	DB	013H
	DB	039H
	DB	0bH
	DB	0bH
	DB	0bH
	DB	0bH
	DB	0bH
	DB	0bH
	DB	0bH
	DB	0bH
	DB	0bH
	DB	0bH
	DB	0bH
	DB	0bH
	DB	0bH
	DB	0bH
	DB	0bH
	DB	0bH
	DB	0bH
	DB	0bH
	DB	0bH
	DB	0bH
	DB	0bH
	DB	0bH
	DB	0bH
	DB	0bH
	DB	0bH
	DB	0bH
	DB	01H
	DB	01H
	DB	01H
	DB	018H
	DB	0c1H
	DB	05eH
	DB	06aH
	DB	06aH
	DB	06aH
	DB	06aH
	DB	06aH
	DB	0c2H
	DB	0c2H
	DB	09fH
	DB	070H
	DB	00H
	DB	00H
	DB	04dH
	DB	0fdH
	DB	06aH
	DB	086H
	DB	086H
	DB	07aH
	DB	058H
	DB	055H
	DB	055H
	DB	0daH
	DB	01H
	DB	01H
	DB	01H
	DB	01H
	DB	01H
	DB	01H
	DB	01H
	DB	01H
	DB	01H
	DB	01H
	DB	01H
	DB	01H
	DB	01H
	DB	01H
	DB	01H
	DB	01H
	DB	01H
	DB	01H
	DB	01H
	DB	01H
	DB	01H
	DB	01H
	DB	01H
	DB	01H
	DB	01H
	DB	01H
	DB	01H
	DB	029H
	DB	025H
	DB	07H
	DB	07H
	DB	07H
	DB	07H
	DB	07H
	DB	025H
	DB	01aH
	DB	01H
	DB	01H
	DB	01H
	DB	01H
	DB	01H
	DB	01H
	DB	01H
	DB	01H
	DB	01H
	DB	01H
	DB	01H
	DB	01H
	DB	01H
	DB	01H
	DB	01H
	DB	01H
	DB	01H
	DB	01H
	DB	01H
	DB	01H
	DB	01H
	DB	01H
	DB	01H
	DB	01H
	DB	01H
	DB	01H
	DB	01H
	DB	01H
	DB	01H
	DB	01H
	DB	01H
	DB	01H
	DB	01H
	DB	01H
	DB	01H
	DB	01H
	DB	01H
	DB	01H
	DB	01H
	DB	01H
	DB	01H
	DB	01H
	DB	01H
	DB	01H
	DB	01H
	DB	01H
	DB	01H
	DB	01H
	DB	01H
	DB	01H
	DB	01H
	DB	01H
	DB	01H
	DB	01H
	DB	01H
	DB	01aH
	DB	025H
	DB	07H
	DB	07H
	DB	07H
	DB	07H
	DB	07H
	DB	07H
	DB	07H
	DB	07H
	DB	02eH
	DB	01H
	DB	01H
	DB	01H
	DB	01H
	DB	031H
	DB	07H
	DB	07H
	DB	07H
	DB	07H
	DB	07H
	DB	07H
	DB	02bH
	DB	01H
	DB	01H
	DB	01H
	DB	01H
	DB	01H
	DB	01H
	DB	01H
	DB	01H
	DB	01H
	DB	01H
	DB	01H
	DB	01H
	DB	01H
	DB	01H
	DB	01H
	DB	01H
	DB	01H
	DB	01H
	DB	01H
	DB	01H
	DB	01H
	DB	01H
	DB	031H
	DB	07H
	DB	07H
	DB	07H
	DB	07H
	DB	07H
	DB	07H
	DB	07H
	DB	07H
	DB	07H
	DB	07H
	DB	07H
	DB	07H
	DB	07H
	DB	07H
	DB	07H
	DB	07H
	DB	07H
	DB	07H
	DB	0e5H
	DB	01aH
	DB	01H
	DB	01H
	DB	01H
	DB	01H
	DB	01H
	DB	01H
	DB	01H
	DB	01H
	DB	01H
	DB	01H
	DB	01H
	DB	01H
	DB	01H
	DB	01H
	DB	01H
	DB	01H
	DB	01H
	DB	01H
	DB	01H
	DB	01H
	DB	01H
	DB	01H
	DB	01H
	DB	01H
	DB	01H
	DB	01H
	DB	01H
	DB	01H
	DB	01H
	DB	0dcH
	DB	06aH
	DB	06aH
	DB	07bH
	DB	07bH
	DB	0e3H
	DB	0e3H
	DB	0e3H
	DB	06bH
	DB	06bH
	DB	0c2H
	DB	0c2H
	DB	096H
	DB	09H
	DB	0d3H
	DB	094H
	DB	0e1H
	DB	0e0H
	DB	086H
	DB	086H
	DB	07aH
	DB	058H
	DB	055H
	DB	055H
	DB	0d4H
	DB	01H
	DB	01H
	DB	01H
	DB	01H
	DB	01H
	DB	01H
	DB	01H
	DB	01H
	DB	01H
	DB	01H
	DB	01H
	DB	01H
	DB	01H
	DB	01H
	DB	01H
	DB	01H
	DB	01H
	DB	01H
	DB	01H
	DB	01H
	DB	01H
	DB	01H
	DB	01H
	DB	01H
	DB	01H
	DB	01H
	DB	02bH
	DB	07H
	DB	025H
	DB	025H
	DB	07H
	DB	07H
	DB	07H
	DB	035H
	DB	01H
	DB	01H
	DB	01H
	DB	01H
	DB	01H
	DB	01H
	DB	01H
	DB	01H
	DB	01H
	DB	01H
	DB	01H
	DB	01H
	DB	01H
	DB	01H
	DB	01H
	DB	01H
	DB	01H
	DB	01H
	DB	01H
	DB	01H
	DB	01H
	DB	01H
	DB	01H
	DB	01H
	DB	01H
	DB	01H
	DB	01H
	DB	01H
	DB	01H
	DB	01H
	DB	01H
	DB	01H
	DB	01H
	DB	01H
	DB	01H
	DB	01H
	DB	01H
	DB	01H
	DB	01H
	DB	01H
	DB	01H
	DB	01H
	DB	01H
	DB	01H
	DB	01H
	DB	01H
	DB	01H
	DB	01H
	DB	01H
	DB	01H
	DB	01H
	DB	01H
	DB	01H
	DB	01H
	DB	01H
	DB	01H
	DB	045H
	DB	07H
	DB	07H
	DB	07H
	DB	07H
	DB	07H
	DB	07H
	DB	07H
	DB	07H
	DB	07H
	DB	025H
	DB	029H
	DB	01H
	DB	01H
	DB	03fH
	DB	025H
	DB	07H
	DB	07H
	DB	07H
	DB	07H
	DB	07H
	DB	07H
	DB	025H
	DB	01aH
	DB	01H
	DB	01H
	DB	01H
	DB	01H
	DB	01H
	DB	01H
	DB	01H
	DB	01H
	DB	01H
	DB	01H
	DB	01H
	DB	01H
	DB	01H
	DB	01H
	DB	01H
	DB	01H
	DB	01H
	DB	01H
	DB	01H
	DB	01H
	DB	01aH
	DB	025H
	DB	07H
	DB	07H
	DB	07H
	DB	07H
	DB	07H
	DB	07H
	DB	07H
	DB	07H
	DB	07H
	DB	07H
	DB	07H
	DB	07H
	DB	07H
	DB	07H
	DB	07H
	DB	07H
	DB	07H
	DB	07H
	DB	07H
	DB	045H
	DB	01H
	DB	01H
	DB	01H
	DB	01H
	DB	01H
	DB	01H
	DB	01H
	DB	01H
	DB	01H
	DB	01H
	DB	01H
	DB	01H
	DB	01H
	DB	01H
	DB	01H
	DB	01H
	DB	01H
	DB	01H
	DB	01H
	DB	01H
	DB	01H
	DB	031H
	DB	031H
	DB	031H
	DB	031H
	DB	01aH
	DB	01H
	DB	01H
	DB	0a8H
	DB	0aeH
	DB	06aH
	DB	090H
	DB	090H
	DB	090H
	DB	063H
	DB	063H
	DB	063H
	DB	063H
	DB	08aH
	DB	08aH
	DB	0c7H
	DB	08aH
	DB	0cbH
	DB	0afH
	DB	09fH
	DB	05fH
	DB	05fH
	DB	0e0H
	DB	089H
	DB	0c5H
	DB	07aH
	DB	058H
	DB	055H
	DB	09aH
	DB	01H
	DB	01H
	DB	01H
	DB	01H
	DB	01H
	DB	01H
	DB	01H
	DB	01H
	DB	01H
	DB	01H
	DB	01H
	DB	01H
	DB	01H
	DB	01H
	DB	01H
	DB	01H
	DB	01H
	DB	01H
	DB	01H
	DB	01H
	DB	01H
	DB	01H
	DB	01H
	DB	01H
	DB	01H
	DB	059H
	DB	07H
	DB	025H
	DB	035H
	DB	07H
	DB	07H
	DB	07H
	DB	07H
	DB	031H
	DB	01H
	DB	01H
	DB	01H
	DB	01H
	DB	01H
	DB	01H
	DB	01H
	DB	01H
	DB	01H
	DB	01H
	DB	01H
	DB	01H
	DB	01H
	DB	01H
	DB	01H
	DB	01H
	DB	01H
	DB	01H
	DB	01H
	DB	01H
	DB	01H
	DB	01H
	DB	01H
	DB	01H
	DB	01H
	DB	01H
	DB	01H
	DB	01H
	DB	01H
	DB	01H
	DB	01H
	DB	01H
	DB	01H
	DB	01H
	DB	01H
	DB	01H
	DB	01H
	DB	01H
	DB	01H
	DB	01H
	DB	01H
	DB	01H
	DB	01H
	DB	01H
	DB	01H
	DB	01H
	DB	01H
	DB	01H
	DB	01H
	DB	01H
	DB	01H
	DB	01H
	DB	01H
	DB	01H
	DB	01H
	DB	01H
	DB	031H
	DB	031H
	DB	031H
	DB	031H
	DB	031H
	DB	031H
	DB	043H
	DB	07H
	DB	07H
	DB	07H
	DB	07H
	DB	031H
	DB	01H
	DB	029H
	DB	025H
	DB	07H
	DB	07H
	DB	07H
	DB	07H
	DB	07H
	DB	07H
	DB	07H
	DB	043H
	DB	01H
	DB	01H
	DB	01H
	DB	01H
	DB	01H
	DB	01H
	DB	01H
	DB	01H
	DB	01H
	DB	01H
	DB	01H
	DB	01H
	DB	01H
	DB	01H
	DB	01H
	DB	01H
	DB	01H
	DB	01H
	DB	01H
	DB	01H
	DB	01H
	DB	01aH
	DB	03eH
	DB	031H
	DB	031H
	DB	031H
	DB	031H
	DB	031H
	DB	031H
	DB	031H
	DB	031H
	DB	031H
	DB	031H
	DB	031H
	DB	031H
	DB	03eH
	DB	045H
	DB	07H
	DB	07H
	DB	07H
	DB	07H
	DB	07H
	DB	07H
	DB	029H
	DB	01H
	DB	01H
	DB	01H
	DB	01H
	DB	01H
	DB	01H
	DB	01H
	DB	01H
	DB	01H
	DB	01H
	DB	01H
	DB	01H
	DB	01H
	DB	01H
	DB	01H
	DB	01H
	DB	01H
	DB	01H
	DB	01H
	DB	040H
	DB	07H
	DB	07H
	DB	07H
	DB	07H
	DB	029H
	DB	01H
	DB	01H
	DB	0d7H
	DB	07bH
	DB	090H
	DB	0a0H
	DB	091H
	DB	091H
	DB	091H
	DB	063H
	DB	07cH
	DB	07cH
	DB	07cH
	DB	07cH
	DB	0c7H
	DB	08aH
	DB	07cH
	DB	06bH
	DB	0c6H
	DB	0c6H
	DB	05fH
	DB	05fH
	DB	08fH
	DB	089H
	DB	0c5H
	DB	058H
	DB	055H
	DB	055H
	DB	081H
	DB	01H
	DB	01H
	DB	01H
	DB	01H
	DB	01H
	DB	01H
	DB	01H
	DB	01H
	DB	01H
	DB	01H
	DB	01H
	DB	01H
	DB	01H
	DB	01H
	DB	01H
	DB	01H
	DB	01H
	DB	01H
	DB	01H
	DB	01H
	DB	01H
	DB	01H
	DB	01H
	DB	040H
	DB	07H
	DB	07H
	DB	040H
	DB	059H
	DB	07H
	DB	07H
	DB	07H
	DB	037H
	DB	01H
	DB	01H
	DB	01H
	DB	01H
	DB	01H
	DB	01H
	DB	01H
	DB	01H
	DB	01H
	DB	01H
	DB	01H
	DB	01H
	DB	01H
	DB	01H
	DB	01H
	DB	01H
	DB	01H
	DB	01H
	DB	01H
	DB	01H
	DB	01H
	DB	01H
	DB	01H
	DB	029H
	DB	059H
	DB	059H
	DB	029H
	DB	01H
	DB	01H
	DB	01H
	DB	01H
	DB	01H
	DB	01H
	DB	01H
	DB	01H
	DB	01H
	DB	01H
	DB	01H
	DB	01H
	DB	01H
	DB	01H
	DB	01H
	DB	01H
	DB	01H
	DB	01H
	DB	01H
	DB	01H
	DB	01H
	DB	01H
	DB	01H
	DB	01H
	DB	01H
	DB	01H
	DB	01H
	DB	01H
	DB	01H
	DB	01H
	DB	01H
	DB	01H
	DB	01H
	DB	01H
	DB	01H
	DB	01H
	DB	040H
	DB	07H
	DB	07H
	DB	07H
	DB	07H
	DB	040H
	DB	029H
	DB	037H
	DB	07H
	DB	02bH
	DB	03fH
	DB	045H
	DB	07H
	DB	07H
	DB	07H
	DB	037H
	DB	029H
	DB	01H
	DB	01H
	DB	01H
	DB	01H
	DB	01H
	DB	01H
	DB	01H
	DB	01H
	DB	01H
	DB	01H
	DB	01H
	DB	01H
	DB	01H
	DB	01H
	DB	01H
	DB	01H
	DB	01H
	DB	01H
	DB	01H
	DB	01H
	DB	01H
	DB	01H
	DB	01H
	DB	01H
	DB	01H
	DB	01H
	DB	01H
	DB	01H
	DB	01aH
	DB	01aH
	DB	01aH
	DB	01aH
	DB	01H
	DB	01H
	DB	01H
	DB	01H
	DB	01H
	DB	059H
	DB	07H
	DB	07H
	DB	07H
	DB	07H
	DB	07H
	DB	031H
	DB	01H
	DB	01H
	DB	01H
	DB	01H
	DB	01H
	DB	01H
	DB	01H
	DB	01H
	DB	01H
	DB	01H
	DB	01H
	DB	01H
	DB	01H
	DB	01H
	DB	01H
	DB	01H
	DB	01H
	DB	01H
	DB	01H
	DB	0e5H
	DB	07H
	DB	07H
	DB	07H
	DB	0e5H
	DB	01H
	DB	01H
	DB	01H
	DB	0bfH
	DB	090H
	DB	0a0H
	DB	091H
	DB	071H
	DB	071H
	DB	071H
	DB	0e9H
	DB	0e9H
	DB	0e9H
	DB	07cH
	DB	08aH
	DB	0ceH
	DB	096H
	DB	0d2H
	DB	0cfH
	DB	0c2H
	DB	0c6H
	DB	0c6H
	DB	05fH
	DB	08fH
	DB	089H
	DB	0c5H
	DB	07aH
	DB	055H
	DB	055H
	DB	0d9H
	DB	01H
	DB	01H
	DB	01H
	DB	01H
	DB	01H
	DB	01H
	DB	01H
	DB	01H
	DB	01H
	DB	01H
	DB	01H
	DB	01H
	DB	01H
	DB	01H
	DB	01H
	DB	01H
	DB	01H
	DB	01H
	DB	01H
	DB	01H
	DB	01H
	DB	01H
	DB	031H
	DB	07H
	DB	07H
	DB	059H
	DB	01aH
	DB	025H
	DB	07H
	DB	07H
	DB	07H
	DB	02eH
	DB	01H
	DB	01H
	DB	01H
	DB	01H
	DB	01H
	DB	01H
	DB	01H
	DB	01H
	DB	01H
	DB	01H
	DB	01H
	DB	01H
	DB	01H
	DB	01H
	DB	01H
	DB	01H
	DB	01H
	DB	01H
	DB	01H
	DB	01H
	DB	01H
	DB	01H
	DB	01H
	DB	0e5H
	DB	07H
	DB	07H
	DB	029H
	DB	01H
	DB	01H
	DB	01H
	DB	01H
	DB	01H
	DB	01H
	DB	01H
	DB	01H
	DB	01H
	DB	01H
	DB	01H
	DB	01H
	DB	01H
	DB	01H
	DB	01H
	DB	01H
	DB	01H
	DB	01H
	DB	01H
	DB	01H
	DB	01H
	DB	01H
	DB	01H
	DB	01H
	DB	01H
	DB	01H
	DB	01H
	DB	01H
	DB	01H
	DB	01H
	DB	01H
	DB	01H
	DB	01H
	DB	01H
	DB	01H
	DB	01H
	DB	03fH
	DB	07H
	DB	07H
	DB	07H
	DB	07H
	DB	043H
	DB	043H
	DB	07H
	DB	037H
	DB	029H
	DB	01H
	DB	01H
	DB	03fH
	DB	040H
	DB	03eH
	DB	01aH
	DB	01H
	DB	01H
	DB	01H
	DB	01H
	DB	01H
	DB	01H
	DB	01H
	DB	01H
	DB	01H
	DB	01H
	DB	01H
	DB	01H
	DB	01H
	DB	01H
	DB	01H
	DB	01H
	DB	01H
	DB	01H
	DB	01H
	DB	01H
	DB	01H
	DB	01H
	DB	01H
	DB	01H
	DB	01H
	DB	01H
	DB	01H
	DB	01H
	DB	02eH
	DB	025H
	DB	025H
	DB	025H
	DB	037H
	DB	01aH
	DB	01H
	DB	01H
	DB	01H
	DB	01H
	DB	03eH
	DB	07H
	DB	07H
	DB	07H
	DB	07H
	DB	025H
	DB	029H
	DB	01H
	DB	01H
	DB	01H
	DB	01H
	DB	01H
	DB	01H
	DB	01H
	DB	01H
	DB	01H
	DB	01H
	DB	01H
	DB	01H
	DB	01H
	DB	01H
	DB	01H
	DB	01H
	DB	01H
	DB	01H
	DB	01aH
	DB	025H
	DB	07H
	DB	07H
	DB	07H
	DB	040H
	DB	01H
	DB	01H
	DB	018H
	DB	0aeH
	DB	091H
	DB	0a1H
	DB	071H
	DB	071H
	DB	0a2H
	DB	07dH
	DB	07dH
	DB	07dH
	DB	07cH
	DB	0caH
	DB	096H
	DB	00H
	DB	0d2H
	DB	00H
	DB	0faH
	DB	08aH
	DB	070H
	DB	0c6H
	DB	05fH
	DB	05fH
	DB	08fH
	DB	089H
	DB	07aH
	DB	058H
	DB	055H
	DB	0dbH
	DB	01H
	DB	01H
	DB	01H
	DB	01H
	DB	01H
	DB	01H
	DB	01H
	DB	01H
	DB	01H
	DB	01H
	DB	01H
	DB	01H
	DB	01H
	DB	01H
	DB	01H
	DB	01H
	DB	01H
	DB	01H
	DB	01H
	DB	01H
	DB	01H
	DB	029H
	DB	025H
	DB	07H
	DB	037H
	DB	01H
	DB	040H
	DB	07H
	DB	07H
	DB	07H
	DB	07H
	DB	03fH
	DB	01H
	DB	01H
	DB	01H
	DB	01H
	DB	01H
	DB	01H
	DB	01H
	DB	01H
	DB	01H
	DB	01H
	DB	01H
	DB	01H
	DB	01H
	DB	01H
	DB	01H
	DB	01H
	DB	01H
	DB	01H
	DB	01H
	DB	01H
	DB	01H
	DB	01H
	DB	03eH
	DB	07H
	DB	07H
	DB	043H
	DB	01H
	DB	01H
	DB	01H
	DB	01H
	DB	01H
	DB	01H
	DB	01H
	DB	01H
	DB	01H
	DB	01H
	DB	01H
	DB	01H
	DB	01H
	DB	01H
	DB	01H
	DB	01H
	DB	01H
	DB	01H
	DB	01H
	DB	01H
	DB	01H
	DB	01H
	DB	01H
	DB	01H
	DB	01H
	DB	01H
	DB	01H
	DB	01H
	DB	01H
	DB	01H
	DB	01H
	DB	01H
	DB	01H
	DB	01H
	DB	01H
	DB	01H
	DB	01H
	DB	01H
	DB	025H
	DB	07H
	DB	07H
	DB	07H
	DB	07H
	DB	07H
	DB	037H
	DB	029H
	DB	01H
	DB	01H
	DB	01H
	DB	01H
	DB	01H
	DB	01H
	DB	01H
	DB	01H
	DB	01H
	DB	01H
	DB	01H
	DB	01H
	DB	01H
	DB	01H
	DB	01H
	DB	01H
	DB	01H
	DB	01H
	DB	01H
	DB	01H
	DB	01H
	DB	01H
	DB	01H
	DB	01H
	DB	01H
	DB	01H
	DB	01H
	DB	01H
	DB	01H
	DB	01H
	DB	01H
	DB	01H
	DB	01H
	DB	01H
	DB	01H
	DB	037H
	DB	07H
	DB	07H
	DB	07H
	DB	045H
	DB	01H
	DB	01H
	DB	01H
	DB	01H
	DB	01H
	DB	04eH
	DB	07H
	DB	07H
	DB	07H
	DB	07H
	DB	059H
	DB	01H
	DB	01H
	DB	01H
	DB	01H
	DB	01H
	DB	01H
	DB	01H
	DB	01H
	DB	01H
	DB	01H
	DB	01H
	DB	01H
	DB	01H
	DB	01H
	DB	01H
	DB	01H
	DB	01H
	DB	01H
	DB	01H
	DB	03eH
	DB	07H
	DB	07H
	DB	07H
	DB	07H
	DB	029H
	DB	01H
	DB	01H
	DB	081H
	DB	07bH
	DB	091H
	DB	0a1H
	DB	06cH
	DB	06cH
	DB	0a2H
	DB	0a2H
	DB	0eaH
	DB	0afH
	DB	0f4H
	DB	0d2H
	DB	0d3H
	DB	0d2H
	DB	0b6H
	DB	0d2H
	DB	0f8H
	DB	0c7H
	DB	070H
	DB	070H
	DB	05fH
	DB	05fH
	DB	08fH
	DB	089H
	DB	0c5H
	DB	058H
	DB	055H
	DB	09aH
	DB	018H
	DB	01H
	DB	01H
	DB	01H
	DB	01H
	DB	01H
	DB	01H
	DB	01H
	DB	01H
	DB	01H
	DB	01H
	DB	01H
	DB	01H
	DB	01H
	DB	01H
	DB	01H
	DB	01H
	DB	01H
	DB	01H
	DB	01H
	DB	01H
	DB	043H
	DB	07H
	DB	07H
	DB	03fH
	DB	01H
	DB	043H
	DB	07H
	DB	07H
	DB	07H
	DB	02bH
	DB	01H
	DB	01H
	DB	01H
	DB	01H
	DB	01H
	DB	01H
	DB	01H
	DB	01H
	DB	01H
	DB	01H
	DB	01H
	DB	01H
	DB	01H
	DB	01H
	DB	01H
	DB	01H
	DB	01H
	DB	01H
	DB	01H
	DB	01H
	DB	01H
	DB	01H
	DB	029H
	DB	025H
	DB	07H
	DB	07H
	DB	040H
	DB	01H
	DB	01H
	DB	01H
	DB	01H
	DB	01H
	DB	01H
	DB	01H
	DB	01H
	DB	01H
	DB	01H
	DB	01H
	DB	01H
	DB	01H
	DB	01H
	DB	01H
	DB	01H
	DB	01H
	DB	01H
	DB	01H
	DB	01H
	DB	01H
	DB	01H
	DB	01H
	DB	01H
	DB	01H
	DB	01H
	DB	01H
	DB	01H
	DB	01H
	DB	01H
	DB	01H
	DB	01H
	DB	01H
	DB	01H
	DB	01H
	DB	01H
	DB	01H
	DB	01H
	DB	0e5H
	DB	07H
	DB	07H
	DB	07H
	DB	07H
	DB	025H
	DB	03fH
	DB	01H
	DB	01H
	DB	01H
	DB	01H
	DB	01H
	DB	01H
	DB	01H
	DB	01H
	DB	01H
	DB	01H
	DB	01H
	DB	01H
	DB	01H
	DB	01H
	DB	01H
	DB	01H
	DB	01H
	DB	01H
	DB	01H
	DB	01H
	DB	01H
	DB	01H
	DB	01H
	DB	01H
	DB	01H
	DB	01H
	DB	01H
	DB	01H
	DB	01H
	DB	01H
	DB	01H
	DB	01H
	DB	01H
	DB	01H
	DB	01H
	DB	03fH
	DB	07H
	DB	07H
	DB	07H
	DB	07H
	DB	03eH
	DB	01H
	DB	01H
	DB	01H
	DB	01H
	DB	03fH
	DB	025H
	DB	07H
	DB	07H
	DB	07H
	DB	037H
	DB	01aH
	DB	01H
	DB	01H
	DB	01H
	DB	01H
	DB	01H
	DB	01H
	DB	01H
	DB	01H
	DB	01H
	DB	01H
	DB	01H
	DB	01H
	DB	01H
	DB	01H
	DB	01H
	DB	01H
	DB	01H
	DB	01H
	DB	01H
	DB	035H
	DB	07H
	DB	07H
	DB	07H
	DB	02bH
	DB	01H
	DB	01H
	DB	01H
	DB	065H
	DB	090H
	DB	071H
	DB	0c8H
	DB	092H
	DB	092H
	DB	08bH
	DB	08bH
	DB	0ebH
	DB	0b0H
	DB	0d0H
	DB	0d2H
	DB	0f9H
	DB	0b6H
	DB	0b6H
	DB	0d2H
	DB	0ecH
	DB	0c7H
	DB	070H
	DB	0c6H
	DB	05fH
	DB	05fH
	DB	08fH
	DB	089H
	DB	07aH
	DB	058H
	DB	0bbH
	DB	082H
	DB	01H
	DB	01H
	DB	01H
	DB	01H
	DB	01H
	DB	01H
	DB	01H
	DB	01H
	DB	01H
	DB	01H
	DB	01H
	DB	01H
	DB	01H
	DB	01H
	DB	01H
	DB	01H
	DB	01H
	DB	01H
	DB	01H
	DB	01H
	DB	035H
	DB	07H
	DB	07H
	DB	040H
	DB	01H
	DB	029H
	DB	07H
	DB	07H
	DB	07H
	DB	07H
	DB	04eH
	DB	01H
	DB	01H
	DB	01H
	DB	01H
	DB	01H
	DB	01H
	DB	01H
	DB	01H
	DB	01H
	DB	01H
	DB	01H
	DB	01H
	DB	01H
	DB	01H
	DB	01H
	DB	01H
	DB	01H
	DB	01H
	DB	01H
	DB	01H
	DB	01H
	DB	03eH
	DB	037H
	DB	07H
	DB	07H
	DB	07H
	DB	01aH
	DB	01H
	DB	01H
	DB	01H
	DB	01H
	DB	01H
	DB	01H
	DB	01H
	DB	01H
	DB	01H
	DB	01H
	DB	01H
	DB	01H
	DB	01H
	DB	01H
	DB	01H
	DB	01H
	DB	01H
	DB	01H
	DB	01H
	DB	01H
	DB	01H
	DB	01H
	DB	01H
	DB	01H
	DB	01H
	DB	01H
	DB	01H
	DB	01H
	DB	01H
	DB	01H
	DB	01H
	DB	01H
	DB	01H
	DB	01H
	DB	01H
	DB	01H
	DB	01H
	DB	01H
	DB	04eH
	DB	07H
	DB	07H
	DB	07H
	DB	07H
	DB	04eH
	DB	01H
	DB	01H
	DB	01H
	DB	01H
	DB	01H
	DB	01H
	DB	01H
	DB	01H
	DB	01H
	DB	01H
	DB	01H
	DB	01H
	DB	01H
	DB	01H
	DB	01H
	DB	01H
	DB	01H
	DB	01H
	DB	01H
	DB	01H
	DB	01H
	DB	01H
	DB	01H
	DB	01H
	DB	01H
	DB	01H
	DB	01H
	DB	01H
	DB	01H
	DB	01H
	DB	01H
	DB	01H
	DB	01H
	DB	01H
	DB	01H
	DB	01H
	DB	04eH
	DB	07H
	DB	07H
	DB	07H
	DB	025H
	DB	01aH
	DB	01H
	DB	01H
	DB	01H
	DB	03eH
	DB	025H
	DB	07H
	DB	07H
	DB	07H
	DB	043H
	DB	029H
	DB	01H
	DB	01H
	DB	01H
	DB	01H
	DB	01H
	DB	01H
	DB	01H
	DB	01H
	DB	01H
	DB	01H
	DB	01H
	DB	01H
	DB	01H
	DB	01H
	DB	01H
	DB	01H
	DB	01H
	DB	01H
	DB	01H
	DB	01aH
	DB	025H
	DB	07H
	DB	07H
	DB	07H
	DB	04eH
	DB	01H
	DB	01H
	DB	01H
	DB	065H
	DB	090H
	DB	06cH
	DB	0c8H
	DB	092H
	DB	092H
	DB	08bH
	DB	08bH
	DB	0ebH
	DB	094H
	DB	0c9H
	DB	0caH
	DB	0ceH
	DB	0b6H
	DB	0b6H
	DB	096H
	DB	07bH
	DB	0c0H
	DB	0c0H
	DB	08eH
	DB	08eH
	DB	0deH
	DB	0beH
	DB	083H
	DB	0d8H
	DB	099H
	DB	099H
	DB	062H
	DB	01H
	DB	01H
	DB	01H
	DB	01H
	DB	01H
	DB	01H
	DB	01H
	DB	01H
	DB	01H
	DB	01H
	DB	01H
	DB	01aH
	DB	029H
	DB	03eH
	DB	040H
	DB	02eH
	DB	02eH
	DB	02eH
	DB	02eH
	DB	059H
	DB	07H
	DB	07H
	DB	025H
	DB	02eH
	DB	02eH
	DB	02bH
	DB	07H
	DB	07H
	DB	07H
	DB	07H
	DB	0e5H
	DB	02eH
	DB	02eH
	DB	02eH
	DB	02eH
	DB	02eH
	DB	02eH
	DB	02eH
	DB	02eH
	DB	035H
	DB	029H
	DB	01H
	DB	01aH
	DB	02eH
	DB	035H
	DB	02eH
	DB	035H
	DB	03eH
	DB	01H
	DB	01H
	DB	03eH
	DB	02bH
	DB	07H
	DB	07H
	DB	07H
	DB	07H
	DB	025H
	DB	035H
	DB	035H
	DB	03eH
	DB	01H
	DB	01H
	DB	01H
	DB	01H
	DB	029H
	DB	040H
	DB	02eH
	DB	02eH
	DB	02eH
	DB	02eH
	DB	02eH
	DB	02eH
	DB	02eH
	DB	02eH
	DB	02eH
	DB	02eH
	DB	02eH
	DB	02eH
	DB	02eH
	DB	02eH
	DB	02eH
	DB	035H
	DB	02eH
	DB	01aH
	DB	01H
	DB	01H
	DB	01H
	DB	01H
	DB	01H
	DB	01H
	DB	01H
	DB	01H
	DB	01H
	DB	01H
	DB	01H
	DB	01H
	DB	031H
	DB	07H
	DB	07H
	DB	07H
	DB	07H
	DB	02eH
	DB	01H
	DB	01H
	DB	01H
	DB	01H
	DB	01H
	DB	01H
	DB	01H
	DB	01H
	DB	01H
	DB	01H
	DB	01H
	DB	01H
	DB	01H
	DB	01H
	DB	01H
	DB	01H
	DB	01H
	DB	01H
	DB	01H
	DB	01H
	DB	01H
	DB	01H
	DB	01H
	DB	01H
	DB	01H
	DB	01H
	DB	01H
	DB	01H
	DB	01H
	DB	01H
	DB	01H
	DB	01H
	DB	01H
	DB	01H
	DB	01H
	DB	01H
	DB	02bH
	DB	07H
	DB	07H
	DB	07H
	DB	0e5H
	DB	01H
	DB	029H
	DB	04eH
	DB	02bH
	DB	07H
	DB	07H
	DB	07H
	DB	037H
	DB	040H
	DB	01H
	DB	01H
	DB	01H
	DB	01H
	DB	01H
	DB	01H
	DB	01aH
	DB	031H
	DB	02eH
	DB	035H
	DB	02eH
	DB	02eH
	DB	02eH
	DB	02eH
	DB	02eH
	DB	035H
	DB	03fH
	DB	01H
	DB	01H
	DB	01H
	DB	01H
	DB	031H
	DB	07H
	DB	07H
	DB	07H
	DB	07H
	DB	03fH
	DB	01H
	DB	01H
	DB	01H
	DB	081H
	DB	07bH
	DB	071H
	DB	0c8H
	DB	092H
	DB	092H
	DB	08bH
	DB	08bH
	DB	0eaH
	DB	094H
	DB	0eaH
	DB	0e3H
	DB	0f3H
	DB	096H
	DB	0b5H
	DB	0cfH
	DB	056H
	DB	054H
	DB	054H
	DB	05dH
	DB	09cH
	DB	047H
	DB	047H
	DB	03dH
	DB	04aH
	DB	062H
	DB	04aH
	DB	062H
	DB	01H
	DB	01H
	DB	01H
	DB	01H
	DB	01H
	DB	01H
	DB	01H
	DB	01H
	DB	01aH
	DB	040H
	DB	045H
	DB	025H
	DB	07H
	DB	07H
	DB	07H
	DB	07H
	DB	07H
	DB	07H
	DB	07H
	DB	07H
	DB	07H
	DB	07H
	DB	07H
	DB	07H
	DB	07H
	DB	07H
	DB	07H
	DB	07H
	DB	07H
	DB	07H
	DB	07H
	DB	07H
	DB	07H
	DB	07H
	DB	07H
	DB	07H
	DB	07H
	DB	07H
	DB	07H
	DB	07H
	DB	029H
	DB	01H
	DB	031H
	DB	07H
	DB	07H
	DB	07H
	DB	07H
	DB	040H
	DB	01H
	DB	01aH
	DB	025H
	DB	07H
	DB	07H
	DB	07H
	DB	07H
	DB	07H
	DB	07H
	DB	07H
	DB	07H
	DB	031H
	DB	01H
	DB	01H
	DB	029H
	DB	045H
	DB	07H
	DB	07H
	DB	07H
	DB	07H
	DB	07H
	DB	07H
	DB	07H
	DB	07H
	DB	07H
	DB	07H
	DB	07H
	DB	07H
	DB	07H
	DB	07H
	DB	07H
	DB	07H
	DB	07H
	DB	07H
	DB	043H
	DB	01H
	DB	01H
	DB	01H
	DB	01H
	DB	01H
	DB	01H
	DB	01H
	DB	01H
	DB	01H
	DB	01H
	DB	01H
	DB	01H
	DB	01H
	DB	059H
	DB	07H
	DB	07H
	DB	07H
	DB	07H
	DB	02bH
	DB	01H
	DB	01H
	DB	01H
	DB	01H
	DB	01H
	DB	01H
	DB	01H
	DB	01H
	DB	01H
	DB	01H
	DB	01H
	DB	01H
	DB	01H
	DB	01H
	DB	01H
	DB	01H
	DB	01H
	DB	01H
	DB	01H
	DB	03fH
	DB	040H
	DB	03eH
	DB	03eH
	DB	03eH
	DB	03eH
	DB	03eH
	DB	040H
	DB	031H
	DB	01H
	DB	01H
	DB	01H
	DB	01H
	DB	01H
	DB	01H
	DB	01H
	DB	029H
	DB	07H
	DB	07H
	DB	07H
	DB	07H
	DB	04eH
	DB	035H
	DB	025H
	DB	07H
	DB	07H
	DB	07H
	DB	02bH
	DB	040H
	DB	01aH
	DB	01H
	DB	01H
	DB	01H
	DB	01H
	DB	01H
	DB	01H
	DB	04eH
	DB	025H
	DB	07H
	DB	07H
	DB	07H
	DB	07H
	DB	07H
	DB	07H
	DB	07H
	DB	07H
	DB	07H
	DB	031H
	DB	01H
	DB	01H
	DB	01H
	DB	01H
	DB	02eH
	DB	07H
	DB	07H
	DB	07H
	DB	02bH
	DB	01H
	DB	01H
	DB	013H
	DB	01H
	DB	018H
	DB	06aH
	DB	071H
	DB	0a1H
	DB	06cH
	DB	06cH
	DB	0a2H
	DB	0a2H
	DB	0a2H
	DB	091H
	DB	0adH
	DB	056H
	DB	0b3H
	DB	0b5H
	DB	0b5H
	DB	0afH
	DB	0bdH
	DB	054H
	DB	054H
	DB	05dH
	DB	09cH
	DB	047H
	DB	047H
	DB	03dH
	DB	082H
	DB	062H
	DB	082H
	DB	098H
	DB	01H
	DB	01H
	DB	01H
	DB	01H
	DB	01H
	DB	01H
	DB	01aH
	DB	02eH
	DB	025H
	DB	07H
	DB	07H
	DB	07H
	DB	07H
	DB	025H
	DB	02bH
	DB	0e5H
	DB	02eH
	DB	0e5H
	DB	07H
	DB	07H
	DB	025H
	DB	035H
	DB	035H
	DB	035H
	DB	045H
	DB	07H
	DB	07H
	DB	07H
	DB	07H
	DB	02bH
	DB	035H
	DB	035H
	DB	035H
	DB	035H
	DB	059H
	DB	07H
	DB	07H
	DB	07H
	DB	07H
	DB	043H
	DB	01H
	DB	01H
	DB	045H
	DB	07H
	DB	07H
	DB	07H
	DB	025H
	DB	01aH
	DB	01H
	DB	01aH
	DB	035H
	DB	02bH
	DB	07H
	DB	07H
	DB	07H
	DB	07H
	DB	045H
	DB	02eH
	DB	03fH
	DB	01H
	DB	01H
	DB	029H
	DB	037H
	DB	07H
	DB	07H
	DB	07H
	DB	043H
	DB	035H
	DB	035H
	DB	037H
	DB	07H
	DB	07H
	DB	037H
	DB	035H
	DB	035H
	DB	035H
	DB	035H
	DB	035H
	DB	035H
	DB	035H
	DB	035H
	DB	03eH
	DB	01H
	DB	01H
	DB	01H
	DB	01H
	DB	01H
	DB	01H
	DB	01H
	DB	01H
	DB	01H
	DB	01H
	DB	01H
	DB	01H
	DB	01H
	DB	059H
	DB	07H
	DB	07H
	DB	07H
	DB	07H
	DB	07H
	DB	07H
	DB	029H
	DB	01H
	DB	01H
	DB	01H
	DB	01H
	DB	01H
	DB	01H
	DB	01H
	DB	01H
	DB	01H
	DB	01H
	DB	01H
	DB	01H
	DB	01H
	DB	01H
	DB	01H
	DB	01H
	DB	01H
	DB	01H
	DB	02bH
	DB	07H
	DB	07H
	DB	07H
	DB	07H
	DB	07H
	DB	07H
	DB	07H
	DB	043H
	DB	01H
	DB	01H
	DB	01H
	DB	01H
	DB	01H
	DB	01H
	DB	01H
	DB	040H
	DB	07H
	DB	07H
	DB	07H
	DB	025H
	DB	029H
	DB	035H
	DB	07H
	DB	07H
	DB	07H
	DB	07H
	DB	031H
	DB	01H
	DB	01H
	DB	013H
	DB	013H
	DB	013H
	DB	01H
	DB	01H
	DB	035H
	DB	07H
	DB	07H
	DB	07H
	DB	025H
	DB	035H
	DB	02eH
	DB	025H
	DB	07H
	DB	07H
	DB	07H
	DB	037H
	DB	01aH
	DB	01H
	DB	013H
	DB	01H
	DB	01H
	DB	037H
	DB	07H
	DB	07H
	DB	07H
	DB	035H
	DB	01H
	DB	013H
	DB	013H
	DB	01H
	DB	01H
	DB	0bfH
	DB	090H
	DB	06cH
	DB	06cH
	DB	06cH
	DB	071H
	DB	0a0H
	DB	0adH
	DB	088H
	DB	087H
	DB	069H
	DB	078H
	DB	078H
	DB	078H
	DB	0aeH
	DB	054H
	DB	054H
	DB	05dH
	DB	05dH
	DB	09cH
	DB	047H
	DB	03dH
	DB	04aH
	DB	082H
	DB	062H
	DB	099H
	DB	065H
	DB	01H
	DB	01H
	DB	01H
	DB	01H
	DB	01H
	DB	029H
	DB	02bH
	DB	07H
	DB	07H
	DB	07H
	DB	07H
	DB	0e5H
	DB	031H
	DB	029H
	DB	01H
	DB	01H
	DB	01H
	DB	0e5H
	DB	07H
	DB	025H
	DB	031H
	DB	01H
	DB	01H
	DB	01H
	DB	040H
	DB	07H
	DB	07H
	DB	07H
	DB	07H
	DB	029H
	DB	01H
	DB	01H
	DB	01H
	DB	01H
	DB	031H
	DB	07H
	DB	07H
	DB	07H
	DB	07H
	DB	03eH
	DB	01H
	DB	029H
	DB	025H
	DB	07H
	DB	07H
	DB	07H
	DB	02eH
	DB	01H
	DB	01H
	DB	01H
	DB	01H
	DB	059H
	DB	07H
	DB	07H
	DB	07H
	DB	037H
	DB	01H
	DB	01H
	DB	01H
	DB	01H
	DB	01H
	DB	059H
	DB	07H
	DB	07H
	DB	07H
	DB	07H
	DB	01aH
	DB	01H
	DB	01H
	DB	037H
	DB	07H
	DB	07H
	DB	02bH
	DB	01H
	DB	01H
	DB	01H
	DB	01H
	DB	01H
	DB	01H
	DB	01H
	DB	01H
	DB	01H
	DB	01H
	DB	01H
	DB	01H
	DB	01H
	DB	01H
	DB	01aH
	DB	035H
	DB	02bH
	DB	02bH
	DB	04eH
	DB	01H
	DB	01H
	DB	059H
	DB	07H
	DB	07H
	DB	02bH
	DB	07H
	DB	07H
	DB	07H
	DB	07H
	DB	040H
	DB	01H
	DB	01H
	DB	01H
	DB	01H
	DB	01H
	DB	01H
	DB	01H
	DB	01H
	DB	01H
	DB	01H
	DB	01H
	DB	01H
	DB	01H
	DB	01H
	DB	01H
	DB	01H
	DB	01H
	DB	03fH
	DB	07H
	DB	07H
	DB	07H
	DB	07H
	DB	07H
	DB	07H
	DB	07H
	DB	07H
	DB	040H
	DB	01H
	DB	013H
	DB	013H
	DB	013H
	DB	013H
	DB	01H
	DB	01H
	DB	043H
	DB	07H
	DB	07H
	DB	07H
	DB	02bH
	DB	01H
	DB	029H
	DB	07H
	DB	07H
	DB	07H
	DB	07H
	DB	043H
	DB	01H
	DB	013H
	DB	013H
	DB	013H
	DB	013H
	DB	01H
	DB	040H
	DB	07H
	DB	07H
	DB	07H
	DB	07H
	DB	04eH
	DB	01H
	DB	01H
	DB	037H
	DB	07H
	DB	07H
	DB	07H
	DB	035H
	DB	01H
	DB	013H
	DB	013H
	DB	01H
	DB	03fH
	DB	07H
	DB	07H
	DB	07H
	DB	07H
	DB	03fH
	DB	01H
	DB	013H
	DB	013H
	DB	01H
	DB	01H
	DB	04aH
	DB	0c3H
	DB	0adH
	DB	0e7H
	DB	0e2H
	DB	0c3H
	DB	088H
	DB	088H
	DB	076H
	DB	056H
	DB	0e4H
	DB	0f7H
	DB	078H
	DB	0b4H
	DB	087H
	DB	0bdH
	DB	054H
	DB	05dH
	DB	09cH
	DB	047H
	DB	03dH
	DB	03dH
	DB	04aH
	DB	062H
	DB	04aH
	DB	082H
	DB	0a8H
	DB	01H
	DB	01H
	DB	01H
	DB	01H
	DB	029H
	DB	037H
	DB	07H
	DB	07H
	DB	07H
	DB	07H
	DB	02eH
	DB	01H
	DB	01H
	DB	01H
	DB	01H
	DB	029H
	DB	02bH
	DB	07H
	DB	07H
	DB	031H
	DB	01H
	DB	01H
	DB	01H
	DB	01H
	DB	02bH
	DB	07H
	DB	07H
	DB	07H
	DB	02bH
	DB	01H
	DB	01H
	DB	01H
	DB	01H
	DB	01H
	DB	0e5H
	DB	07H
	DB	07H
	DB	07H
	DB	025H
	DB	01aH
	DB	01H
	DB	04eH
	DB	07H
	DB	07H
	DB	07H
	DB	07H
	DB	03fH
	DB	01H
	DB	01H
	DB	01H
	DB	01aH
	DB	025H
	DB	07H
	DB	07H
	DB	07H
	DB	02eH
	DB	01H
	DB	01H
	DB	01H
	DB	01H
	DB	01aH
	DB	037H
	DB	07H
	DB	07H
	DB	07H
	DB	0e5H
	DB	01H
	DB	01H
	DB	031H
	DB	07H
	DB	07H
	DB	07H
	DB	07H
	DB	03fH
	DB	01H
	DB	01H
	DB	01H
	DB	01H
	DB	01H
	DB	01H
	DB	01H
	DB	01H
	DB	01H
	DB	01H
	DB	01H
	DB	01H
	DB	01aH
	DB	02bH
	DB	07H
	DB	07H
	DB	07H
	DB	07H
	DB	035H
	DB	035H
	DB	07H
	DB	07H
	DB	04eH
	DB	029H
	DB	07H
	DB	07H
	DB	07H
	DB	07H
	DB	059H
	DB	01H
	DB	01H
	DB	01H
	DB	01H
	DB	01H
	DB	01H
	DB	01H
	DB	01H
	DB	01H
	DB	01H
	DB	01H
	DB	013H
	DB	01H
	DB	01H
	DB	01H
	DB	01H
	DB	01H
	DB	03eH
	DB	02bH
	DB	02bH
	DB	02bH
	DB	02bH
	DB	02bH
	DB	02bH
	DB	02bH
	DB	043H
	DB	01aH
	DB	01H
	DB	013H
	DB	013H
	DB	013H
	DB	013H
	DB	01H
	DB	029H
	DB	07H
	DB	07H
	DB	07H
	DB	07H
	DB	04eH
	DB	01H
	DB	01H
	DB	045H
	DB	07H
	DB	07H
	DB	07H
	DB	07H
	DB	031H
	DB	01H
	DB	010H
	DB	010H
	DB	013H
	DB	01H
	DB	043H
	DB	07H
	DB	07H
	DB	07H
	DB	07H
	DB	03fH
	DB	01H
	DB	031H
	DB	07H
	DB	07H
	DB	07H
	DB	07H
	DB	031H
	DB	01H
	DB	010H
	DB	013H
	DB	01H
	DB	02eH
	DB	07H
	DB	07H
	DB	07H
	DB	037H
	DB	01aH
	DB	013H
	DB	010H
	DB	013H
	DB	01H
	DB	01H
	DB	018H
	DB	056H
	DB	087H
	DB	088H
	DB	088H
	DB	088H
	DB	076H
	DB	076H
	DB	076H
	DB	074H
	DB	0f1H
	DB	078H
	DB	078H
	DB	0c9H
	DB	063H
	DB	0b0H
	DB	056H
	DB	09cH
	DB	0abH
	DB	047H
	DB	03dH
	DB	04aH
	DB	04aH
	DB	062H
	DB	03dH
	DB	098H
	DB	01H
	DB	01H
	DB	01H
	DB	01H
	DB	01H
	DB	059H
	DB	07H
	DB	07H
	DB	07H
	DB	07H
	DB	02bH
	DB	01H
	DB	01H
	DB	01H
	DB	01H
	DB	03eH
	DB	037H
	DB	07H
	DB	07H
	DB	031H
	DB	01H
	DB	01H
	DB	01H
	DB	01H
	DB	03fH
	DB	07H
	DB	07H
	DB	07H
	DB	07H
	DB	040H
	DB	01H
	DB	01H
	DB	01H
	DB	01H
	DB	029H
	DB	025H
	DB	07H
	DB	07H
	DB	07H
	DB	045H
	DB	01H
	DB	01H
	DB	02bH
	DB	07H
	DB	07H
	DB	07H
	DB	02bH
	DB	01H
	DB	01H
	DB	01H
	DB	01H
	DB	03eH
	DB	07H
	DB	07H
	DB	07H
	DB	07H
	DB	03fH
	DB	01H
	DB	01H
	DB	01H
	DB	01H
	DB	01aH
	DB	025H
	DB	07H
	DB	07H
	DB	07H
	DB	03eH
	DB	01H
	DB	01H
	DB	059H
	DB	07H
	DB	07H
	DB	07H
	DB	025H
	DB	029H
	DB	01H
	DB	01H
	DB	01H
	DB	01H
	DB	01H
	DB	01H
	DB	01H
	DB	01H
	DB	01H
	DB	01H
	DB	01H
	DB	01H
	DB	040H
	DB	07H
	DB	07H
	DB	07H
	DB	07H
	DB	07H
	DB	07H
	DB	07H
	DB	07H
	DB	04eH
	DB	01H
	DB	01H
	DB	037H
	DB	07H
	DB	07H
	DB	07H
	DB	037H
	DB	01H
	DB	01H
	DB	01H
	DB	01H
	DB	01H
	DB	01H
	DB	01H
	DB	01H
	DB	013H
	DB	013H
	DB	013H
	DB	013H
	DB	013H
	DB	013H
	DB	013H
	DB	013H
	DB	01H
	DB	01H
	DB	01H
	DB	01H
	DB	01H
	DB	01H
	DB	01H
	DB	01H
	DB	01H
	DB	01H
	DB	01H
	DB	013H
	DB	013H
	DB	013H
	DB	013H
	DB	013H
	DB	01H
	DB	03eH
	DB	07H
	DB	07H
	DB	07H
	DB	07H
	DB	03fH
	DB	01H
	DB	01H
	DB	03fH
	DB	07H
	DB	07H
	DB	07H
	DB	07H
	DB	045H
	DB	01H
	DB	01H
	DB	013H
	DB	01H
	DB	01aH
	DB	037H
	DB	07H
	DB	07H
	DB	07H
	DB	037H
	DB	01H
	DB	01H
	DB	02eH
	DB	07H
	DB	07H
	DB	07H
	DB	025H
	DB	01H
	DB	01H
	DB	013H
	DB	013H
	DB	01H
	DB	02bH
	DB	07H
	DB	07H
	DB	07H
	DB	035H
	DB	01H
	DB	013H
	DB	013H
	DB	01H
	DB	01H
	DB	01H
	DB	01H
	DB	03dH
	DB	087H
	DB	087H
	DB	088H
	DB	076H
	DB	076H
	DB	087H
	DB	087H
	DB	0c0H
	DB	0b3H
	DB	07fH
	DB	07fH
	DB	0b4H
	DB	078H
	DB	078H
	DB	0c4H
	DB	047H
	DB	047H
	DB	03dH
	DB	04aH
	DB	04aH
	DB	062H
	DB	04aH
	DB	099H
	DB	0a8H
	DB	01H
	DB	01H
	DB	01H
	DB	01H
	DB	01aH
	DB	025H
	DB	07H
	DB	07H
	DB	07H
	DB	07H
	DB	02bH
	DB	01H
	DB	01H
	DB	03fH
	DB	059H
	DB	07H
	DB	07H
	DB	037H
	DB	03fH
	DB	01H
	DB	01H
	DB	01H
	DB	01H
	DB	01H
	DB	02eH
	DB	07H
	DB	07H
	DB	07H
	DB	025H
	DB	029H
	DB	01H
	DB	01H
	DB	01H
	DB	01H
	DB	03eH
	DB	07H
	DB	07H
	DB	07H
	DB	07H
	DB	04eH
	DB	029H
	DB	031H
	DB	07H
	DB	07H
	DB	07H
	DB	07H
	DB	02eH
	DB	029H
	DB	029H
	DB	029H
	DB	029H
	DB	059H
	DB	07H
	DB	07H
	DB	07H
	DB	037H
	DB	029H
	DB	029H
	DB	029H
	DB	029H
	DB	029H
	DB	029H
	DB	02bH
	DB	07H
	DB	07H
	DB	07H
	DB	040H
	DB	01H
	DB	029H
	DB	025H
	DB	07H
	DB	07H
	DB	07H
	DB	059H
	DB	01H
	DB	01H
	DB	01H
	DB	01H
	DB	01H
	DB	01H
	DB	01H
	DB	01H
	DB	01H
	DB	01H
	DB	01H
	DB	01H
	DB	01H
	DB	02eH
	DB	07H
	DB	07H
	DB	07H
	DB	07H
	DB	07H
	DB	07H
	DB	07H
	DB	04eH
	DB	01H
	DB	01H
	DB	01H
	DB	035H
	DB	07H
	DB	07H
	DB	07H
	DB	07H
	DB	031H
	DB	029H
	DB	029H
	DB	029H
	DB	029H
	DB	029H
	DB	029H
	DB	01H
	DB	013H
	DB	013H
	DB	018H
	DB	013H
	DB	013H
	DB	013H
	DB	013H
	DB	013H
	DB	013H
	DB	013H
	DB	013H
	DB	01H
	DB	01H
	DB	013H
	DB	013H
	DB	013H
	DB	013H
	DB	018H
	DB	013H
	DB	013H
	DB	013H
	DB	010H
	DB	013H
	DB	013H
	DB	01H
	DB	045H
	DB	07H
	DB	07H
	DB	07H
	DB	037H
	DB	01H
	DB	013H
	DB	013H
	DB	01H
	DB	043H
	DB	07H
	DB	07H
	DB	07H
	DB	07H
	DB	031H
	DB	029H
	DB	029H
	DB	029H
	DB	03fH
	DB	025H
	DB	07H
	DB	07H
	DB	07H
	DB	025H
	DB	031H
	DB	029H
	DB	037H
	DB	07H
	DB	07H
	DB	07H
	DB	043H
	DB	01aH
	DB	029H
	DB	029H
	DB	029H
	DB	031H
	DB	07H
	DB	07H
	DB	07H
	DB	07H
	DB	040H
	DB	029H
	DB	029H
	DB	029H
	DB	029H
	DB	01H
	DB	01H
	DB	01H
	DB	01H
	DB	054H
	DB	056H
	DB	087H
	DB	087H
	DB	087H
	DB	056H
	DB	056H
	DB	069H
	DB	07fH
	DB	0d1H
	DB	0d1H
	DB	07fH
	DB	0d1H
	DB	063H
	DB	054H
	DB	047H
	DB	03dH
	DB	03dH
	DB	04aH
	DB	097H
	DB	097H
	DB	047H
	DB	098H
	DB	01H
	DB	01H
	DB	01H
	DB	01H
	DB	01H
	DB	01aH
	DB	025H
	DB	07H
	DB	07H
	DB	07H
	DB	07H
	DB	07H
	DB	02bH
	DB	02bH
	DB	07H
	DB	07H
	DB	07H
	DB	045H
	DB	01aH
	DB	01H
	DB	01H
	DB	01H
	DB	01H
	DB	01H
	DB	01aH
	DB	037H
	DB	07H
	DB	07H
	DB	07H
	DB	045H
	DB	01H
	DB	01H
	DB	01H
	DB	01H
	DB	01H
	DB	040H
	DB	07H
	DB	07H
	DB	07H
	DB	07H
	DB	07H
	DB	07H
	DB	07H
	DB	07H
	DB	07H
	DB	07H
	DB	07H
	DB	07H
	DB	07H
	DB	07H
	DB	07H
	DB	07H
	DB	07H
	DB	07H
	DB	07H
	DB	07H
	DB	07H
	DB	07H
	DB	07H
	DB	07H
	DB	07H
	DB	07H
	DB	07H
	DB	02eH
	DB	037H
	DB	07H
	DB	07H
	DB	07H
	DB	02bH
	DB	02bH
	DB	07H
	DB	07H
	DB	07H
	DB	02bH
	DB	01aH
	DB	01H
	DB	01H
	DB	01H
	DB	01H
	DB	01H
	DB	01H
	DB	01H
	DB	01H
	DB	01H
	DB	01H
	DB	01H
	DB	01H
	DB	01H
	DB	03fH
	DB	07H
	DB	07H
	DB	07H
	DB	07H
	DB	07H
	DB	07H
	DB	04eH
	DB	01H
	DB	01H
	DB	01H
	DB	01H
	DB	029H
	DB	07H
	DB	07H
	DB	07H
	DB	07H
	DB	07H
	DB	07H
	DB	07H
	DB	07H
	DB	07H
	DB	07H
	DB	059H
	DB	01H
	DB	01H
	DB	01H
	DB	013H
	DB	013H
	DB	013H
	DB	013H
	DB	013H
	DB	013H
	DB	013H
	DB	013H
	DB	013H
	DB	013H
	DB	013H
	DB	013H
	DB	013H
	DB	013H
	DB	013H
	DB	013H
	DB	013H
	DB	013H
	DB	013H
	DB	010H
	DB	010H
	DB	013H
	DB	01aH
	DB	025H
	DB	07H
	DB	07H
	DB	07H
	DB	02eH
	DB	01H
	DB	010H
	DB	010H
	DB	01H
	DB	031H
	DB	07H
	DB	07H
	DB	07H
	DB	07H
	DB	07H
	DB	07H
	DB	07H
	DB	07H
	DB	07H
	DB	037H
	DB	07H
	DB	07H
	DB	07H
	DB	07H
	DB	07H
	DB	025H
	DB	07H
	DB	07H
	DB	07H
	DB	07H
	DB	07H
	DB	07H
	DB	07H
	DB	07H
	DB	07H
	DB	025H
	DB	07H
	DB	07H
	DB	07H
	DB	07H
	DB	07H
	DB	07H
	DB	07H
	DB	07H
	DB	07H
	DB	01H
	DB	01H
	DB	01H
	DB	01H
	DB	0a8H
	DB	074H
	DB	074H
	DB	056H
	DB	056H
	DB	056H
	DB	074H
	DB	08eH
	DB	0b3H
	DB	07fH
	DB	0d0H
	DB	0cbH
	DB	0c4H
	DB	09cH
	DB	03dH
	DB	03dH
	DB	03dH
	DB	04aH
	DB	097H
	DB	097H
	DB	047H
	DB	062H
	DB	018H
	DB	01H
	DB	01H
	DB	01H
	DB	01H
	DB	01H
	DB	01H
	DB	02eH
	DB	07H
	DB	07H
	DB	07H
	DB	07H
	DB	07H
	DB	07H
	DB	07H
	DB	07H
	DB	02bH
	DB	03eH
	DB	01H
	DB	01H
	DB	01H
	DB	01H
	DB	01H
	DB	01H
	DB	01H
	DB	03fH
	DB	025H
	DB	025H
	DB	025H
	DB	025H
	DB	031H
	DB	01H
	DB	01H
	DB	01H
	DB	01H
	DB	01H
	DB	029H
	DB	043H
	DB	025H
	DB	025H
	DB	025H
	DB	037H
	DB	059H
	DB	03eH
	DB	037H
	DB	025H
	DB	025H
	DB	025H
	DB	025H
	DB	025H
	DB	025H
	DB	037H
	DB	03eH
	DB	02eH
	DB	037H
	DB	025H
	DB	025H
	DB	025H
	DB	025H
	DB	025H
	DB	025H
	DB	025H
	DB	037H
	DB	04eH
	DB	01H
	DB	029H
	DB	035H
	DB	037H
	DB	07H
	DB	07H
	DB	07H
	DB	025H
	DB	02bH
	DB	04eH
	DB	01H
	DB	01H
	DB	01H
	DB	01H
	DB	01H
	DB	01H
	DB	01H
	DB	01H
	DB	01H
	DB	01H
	DB	01H
	DB	01H
	DB	01H
	DB	01H
	DB	01H
	DB	01H
	DB	040H
	DB	025H
	DB	07H
	DB	07H
	DB	037H
	DB	040H
	DB	01H
	DB	01H
	DB	013H
	DB	01H
	DB	01H
	DB	01H
	DB	031H
	DB	02bH
	DB	025H
	DB	025H
	DB	025H
	DB	025H
	DB	025H
	DB	025H
	DB	037H
	DB	035H
	DB	01aH
	DB	01H
	DB	013H
	DB	013H
	DB	013H
	DB	013H
	DB	013H
	DB	013H
	DB	013H
	DB	013H
	DB	010H
	DB	010H
	DB	010H
	DB	010H
	DB	013H
	DB	013H
	DB	013H
	DB	013H
	DB	010H
	DB	010H
	DB	010H
	DB	010H
	DB	010H
	DB	010H
	DB	02H
	DB	01H
	DB	031H
	DB	025H
	DB	025H
	DB	025H
	DB	025H
	DB	031H
	DB	01H
	DB	02H
	DB	02H
	DB	010H
	DB	01H
	DB	02eH
	DB	025H
	DB	025H
	DB	025H
	DB	025H
	DB	025H
	DB	025H
	DB	037H
	DB	040H
	DB	01aH
	DB	043H
	DB	07H
	DB	07H
	DB	07H
	DB	0e5H
	DB	03fH
	DB	045H
	DB	025H
	DB	025H
	DB	025H
	DB	025H
	DB	025H
	DB	025H
	DB	037H
	DB	04eH
	DB	03fH
	DB	02bH
	DB	025H
	DB	025H
	DB	025H
	DB	025H
	DB	025H
	DB	025H
	DB	037H
	DB	03eH
	DB	01H
	DB	01H
	DB	01H
	DB	01H
	DB	01H
	DB	065H
	DB	074H
	DB	0bdH
	DB	074H
	DB	074H
	DB	074H
	DB	054H
	DB	0e1H
	DB	0e8H
	DB	09fH
	DB	054H
	DB	047H
	DB	03dH
	DB	03dH
	DB	03dH
	DB	04aH
	DB	097H
	DB	04aH
	DB	047H
	DB	062H
	DB	018H
	DB	01H
	DB	01H
	DB	01H
	DB	01H
	DB	01H
	DB	01H
	DB	01H
	DB	01H
	DB	040H
	DB	02bH
	DB	025H
	DB	025H
	DB	025H
	DB	037H
	DB	059H
	DB	031H
	DB	01H
	DB	01H
	DB	01H
	DB	01H
	DB	01H
	DB	01H
	DB	01H
	DB	01H
	DB	01H
	DB	01aH
	DB	029H
	DB	029H
	DB	029H
	DB	029H
	DB	01H
	DB	01H
	DB	01H
	DB	01H
	DB	01H
	DB	01H
	DB	01H
	DB	01H
	DB	029H
	DB	029H
	DB	029H
	DB	01aH
	DB	01H
	DB	01H
	DB	01H
	DB	029H
	DB	029H
	DB	029H
	DB	029H
	DB	029H
	DB	029H
	DB	01H
	DB	01H
	DB	01H
	DB	01aH
	DB	029H
	DB	029H
	DB	029H
	DB	029H
	DB	029H
	DB	029H
	DB	029H
	DB	01aH
	DB	01H
	DB	01H
	DB	01H
	DB	01H
	DB	01H
	DB	029H
	DB	03fH
	DB	03fH
	DB	029H
	DB	01H
	DB	01H
	DB	01H
	DB	01H
	DB	01H
	DB	01H
	DB	01H
	DB	01H
	DB	01H
	DB	01H
	DB	01H
	DB	01H
	DB	01H
	DB	01H
	DB	01H
	DB	01H
	DB	01H
	DB	01H
	DB	01H
	DB	029H
	DB	031H
	DB	031H
	DB	01aH
	DB	01H
	DB	01H
	DB	01H
	DB	01H
	DB	013H
	DB	013H
	DB	013H
	DB	01H
	DB	01H
	DB	029H
	DB	029H
	DB	029H
	DB	029H
	DB	029H
	DB	029H
	DB	01aH
	DB	01H
	DB	01H
	DB	013H
	DB	018H
	DB	013H
	DB	010H
	DB	010H
	DB	013H
	DB	013H
	DB	013H
	DB	018H
	DB	013H
	DB	027H
	DB	02H
	DB	02H
	DB	010H
	DB	010H
	DB	02H
	DB	010H
	DB	010H
	DB	010H
	DB	02H
	DB	010H
	DB	02H
	DB	02H
	DB	02H
	DB	013H
	DB	01aH
	DB	029H
	DB	029H
	DB	029H
	DB	029H
	DB	01H
	DB	010H
	DB	02H
	DB	02H
	DB	08H
	DB	02H
	DB	01H
	DB	029H
	DB	029H
	DB	029H
	DB	029H
	DB	029H
	DB	029H
	DB	01aH
	DB	01H
	DB	013H
	DB	01H
	DB	03fH
	DB	031H
	DB	03fH
	DB	01H
	DB	01H
	DB	01H
	DB	029H
	DB	029H
	DB	029H
	DB	029H
	DB	029H
	DB	029H
	DB	01aH
	DB	01H
	DB	01H
	DB	01H
	DB	029H
	DB	029H
	DB	029H
	DB	029H
	DB	029H
	DB	029H
	DB	01H
	DB	01H
	DB	01H
	DB	01H
	DB	01H
	DB	01H
	DB	01H
	DB	01H
	DB	065H
	DB	054H
	DB	054H
	DB	054H
	DB	054H
	DB	054H
	DB	05dH
	DB	09cH
	DB	09cH
	DB	047H
	DB	047H
	DB	03dH
	DB	03dH
	DB	04aH
	DB	04aH
	DB	03dH
	DB	047H
	DB	062H
	DB	018H
	DB	01H
	DB	01H
	DB	01H
	DB	01H
	DB	01H
	DB	01H
	DB	01H
	DB	01H
	DB	01H
	DB	01H
	DB	01H
	DB	01aH
	DB	029H
	DB	01aH
	DB	01H
	DB	01H
	DB	01H
	DB	01H
	DB	01H
	DB	01H
	DB	01H
	DB	01H
	DB	01H
	DB	01H
	DB	01H
	DB	01H
	DB	01H
	DB	01H
	DB	01H
	DB	01H
	DB	01H
	DB	01H
	DB	01H
	DB	01H
	DB	01H
	DB	01H
	DB	01H
	DB	01H
	DB	01H
	DB	01H
	DB	01H
	DB	01H
	DB	01H
	DB	01H
	DB	01H
	DB	01H
	DB	01H
	DB	01H
	DB	01H
	DB	01H
	DB	01H
	DB	01H
	DB	01H
	DB	01H
	DB	01H
	DB	01H
	DB	01H
	DB	01H
	DB	01H
	DB	01H
	DB	01H
	DB	01H
	DB	01H
	DB	01H
	DB	01H
	DB	01H
	DB	01H
	DB	01H
	DB	01H
	DB	01H
	DB	01H
	DB	01H
	DB	01H
	DB	01H
	DB	01H
	DB	01H
	DB	01H
	DB	01H
	DB	01H
	DB	01H
	DB	01H
	DB	01H
	DB	01H
	DB	01H
	DB	01H
	DB	01H
	DB	01H
	DB	01H
	DB	01H
	DB	01H
	DB	013H
	DB	013H
	DB	01H
	DB	01H
	DB	01H
	DB	01H
	DB	013H
	DB	013H
	DB	01H
	DB	013H
	DB	013H
	DB	013H
	DB	013H
	DB	013H
	DB	01H
	DB	01H
	DB	01H
	DB	01H
	DB	01H
	DB	01H
	DB	01H
	DB	01H
	DB	013H
	DB	013H
	DB	013H
	DB	018H
	DB	010H
	DB	01cH
	DB	018H
	DB	013H
	DB	013H
	DB	010H
	DB	010H
	DB	010H
	DB	010H
	DB	02H
	DB	02H
	DB	010H
	DB	02H
	DB	02dH
	DB	02H
	DB	02H
	DB	02H
	DB	02H
	DB	02H
	DB	02H
	DB	02H
	DB	02H
	DB	02H
	DB	027H
	DB	018H
	DB	027H
	DB	027H
	DB	027H
	DB	02H
	DB	08H
	DB	08H
	DB	08H
	DB	0cH
	DB	03H
	DB	08H
	DB	02H
	DB	02H
	DB	027H
	DB	027H
	DB	02H
	DB	027H
	DB	02H
	DB	02dH
	DB	08H
	DB	02H
	DB	027H
	DB	018H
	DB	027H
	DB	08H
	DB	02dH
	DB	010H
	DB	02H
	DB	02H
	DB	08H
	DB	02H
	DB	02H
	DB	027H
	DB	08H
	DB	03H
	DB	0cH
	DB	02H
	DB	02H
	DB	02H
	DB	018H
	DB	01H
	DB	01H
	DB	01H
	DB	01H
	DB	018H
	DB	01H
	DB	01H
	DB	01H
	DB	01H
	DB	01H
	DB	01H
	DB	01H
	DB	018H
	DB	03dH
	DB	05dH
	DB	09cH
	DB	0abH
	DB	0abH
	DB	047H
	DB	047H
	DB	047H
	DB	03dH
	DB	03dH
	DB	03dH
	DB	03dH
	DB	047H
	DB	03dH
	DB	065H
	DB	01H
	DB	01H
	DB	01H
	DB	01H
	DB	01H
	DB	01H
	DB	01H
	DB	01H
	DB	01H
	DB	01H
	DB	01H
	DB	01H
	DB	01H
	DB	01H
	DB	01H
	DB	01H
	DB	01H
	DB	01H
	DB	01H
	DB	01H
	DB	01H
	DB	01H
	DB	01H
	DB	01H
	DB	01H
	DB	01H
	DB	01H
	DB	01H
	DB	01H
	DB	01H
	DB	01H
	DB	01H
	DB	01H
	DB	01H
	DB	01H
	DB	01H
	DB	01H
	DB	01H
	DB	01H
	DB	01H
	DB	01H
	DB	01H
	DB	01H
	DB	01H
	DB	01H
	DB	01H
	DB	01H
	DB	01H
	DB	01H
	DB	01H
	DB	01H
	DB	01H
	DB	01H
	DB	01H
	DB	01H
	DB	01H
	DB	01H
	DB	01H
	DB	01H
	DB	01H
	DB	01H
	DB	01H
	DB	01H
	DB	01H
	DB	01H
	DB	01H
	DB	01H
	DB	01H
	DB	01H
	DB	01H
	DB	01H
	DB	01H
	DB	01H
	DB	01H
	DB	01H
	DB	01H
	DB	01H
	DB	01H
	DB	01H
	DB	01H
	DB	01H
	DB	01H
	DB	01H
	DB	01H
	DB	01H
	DB	01H
	DB	01H
	DB	01H
	DB	01H
	DB	01H
	DB	01H
	DB	01H
	DB	01H
	DB	013H
	DB	01H
	DB	013H
	DB	013H
	DB	013H
	DB	013H
	DB	013H
	DB	013H
	DB	013H
	DB	013H
	DB	013H
	DB	013H
	DB	013H
	DB	013H
	DB	013H
	DB	013H
	DB	013H
	DB	013H
	DB	013H
	DB	013H
	DB	013H
	DB	013H
	DB	013H
	DB	018H
	DB	013H
	DB	010H
	DB	010H
	DB	013H
	DB	01cH
	DB	02H
	DB	02H
	DB	02H
	DB	02H
	DB	02H
	DB	02dH
	DB	02H
	DB	010H
	DB	02H
	DB	08H
	DB	08H
	DB	02H
	DB	08H
	DB	02H
	DB	08H
	DB	08H
	DB	08H
	DB	02dH
	DB	02dH
	DB	02dH
	DB	02dH
	DB	02dH
	DB	02dH
	DB	08H
	DB	0cH
	DB	0cH
	DB	0cH
	DB	0fH
	DB	0fH
	DB	0cH
	DB	038H
	DB	03H
	DB	02dH
	DB	08H
	DB	03H
	DB	03H
	DB	08H
	DB	02dH
	DB	0cH
	DB	0cH
	DB	038H
	DB	03H
	DB	0fH
	DB	0fH
	DB	02dH
	DB	02H
	DB	0cH
	DB	0fH
	DB	0fH
	DB	03H
	DB	0cH
	DB	03H
	DB	03H
	DB	03H
	DB	0fH
	DB	0fH
	DB	0fH
	DB	08H
	DB	010H
	DB	013H
	DB	018H
	DB	018H
	DB	013H
	DB	013H
	DB	013H
	DB	01H
	DB	01H
	DB	01H
	DB	01H
	DB	01H
	DB	01H
	DB	01H
	DB	01H
	DB	01H
	DB	0a8H
	DB	04aH
	DB	047H
	DB	047H
	DB	047H
	DB	047H
	DB	047H
	DB	047H
	DB	03dH
	DB	03dH
	DB	04aH
	DB	065H
	DB	018H
	DB	01H
	DB	01H
	DB	01H
	DB	01H
	DB	01H
	DB	01H
	DB	01H
	DB	01H
	DB	01H
	DB	01H
	DB	01H
	DB	01H
	DB	01H
	DB	01H
	DB	01H
	DB	01H
	DB	01H
	DB	01H
	DB	01H
	DB	01H
	DB	01H
	DB	01H
	DB	01H
	DB	01H
	DB	01H
	DB	01H
	DB	01H
	DB	01H
	DB	01H
	DB	01H
	DB	01H
	DB	01H
	DB	01H
	DB	01H
	DB	01H
	DB	01H
	DB	01H
	DB	01H
	DB	01H
	DB	01H
	DB	01H
	DB	01H
	DB	01H
	DB	01H
	DB	01H
	DB	01H
	DB	01H
	DB	01H
	DB	01H
	DB	01H
	DB	01H
	DB	01H
	DB	01H
	DB	01H
	DB	01H
	DB	01H
	DB	01H
	DB	01H
	DB	01H
	DB	01H
	DB	01H
	DB	01H
	DB	01H
	DB	01H
	DB	01H
	DB	01H
	DB	01H
	DB	01H
	DB	01H
	DB	01H
	DB	01H
	DB	01H
	DB	01H
	DB	01H
	DB	01H
	DB	01H
	DB	01H
	DB	01H
	DB	01H
	DB	01H
	DB	01H
	DB	01H
	DB	01H
	DB	01H
	DB	01H
	DB	01H
	DB	01H
	DB	01H
	DB	01H
	DB	01H
	DB	01H
	DB	01H
	DB	01H
	DB	01H
	DB	01H
	DB	01H
	DB	013H
	DB	013H
	DB	013H
	DB	013H
	DB	013H
	DB	013H
	DB	013H
	DB	013H
	DB	013H
	DB	013H
	DB	027H
	DB	013H
	DB	010H
	DB	010H
	DB	010H
	DB	010H
	DB	010H
	DB	010H
	DB	027H
	DB	010H
	DB	010H
	DB	013H
	DB	013H
	DB	02H
	DB	02H
	DB	010H
	DB	010H
	DB	02H
	DB	08H
	DB	02H
	DB	02dH
	DB	02dH
	DB	08H
	DB	08H
	DB	02H
	DB	010H
	DB	02H
	DB	02H
	DB	08H
	DB	02H
	DB	02H
	DB	08H
	DB	0cH
	DB	0cH
	DB	038H
	DB	02dH
	DB	08H
	DB	08H
	DB	0cH
	DB	0cH
	DB	0cH
	DB	08H
	DB	02H
	DB	08H
	DB	03H
	DB	03H
	DB	03H
	DB	02dH
	DB	02H
	DB	02H
	DB	08H
	DB	0cH
	DB	02H
	DB	02dH
	DB	0cH
	DB	0fH
	DB	0fH
	DB	03H
	DB	0cH
	DB	036H
	DB	0eH
	DB	03H
	DB	03H
	DB	0fH
	DB	03H
	DB	0cH
	DB	03H
	DB	0cH
	DB	0fH
	DB	0fH
	DB	0fH
	DB	0fH
	DB	03H
	DB	03H
	DB	02H
	DB	013H
	DB	027H
	DB	013H
	DB	018H
	DB	018H
	DB	018H
	DB	018H
	DB	01H
	DB	01H
	DB	01H
	DB	01H
	DB	01H
	DB	01H
	DB	01H
	DB	01H
	DB	01H
	DB	01H
	DB	01H
	DB	018H
	DB	0a8H
	DB	065H
	DB	0a9H
	DB	0a9H
	DB	065H
	DB	065H
	DB	0d5H
	DB	027H
	DB	01H
	DB	01H
	DB	01H
	DB	01H
	DB	01H
	DB	01H
	DB	01H
	DB	01H
	DB	01H
	DB	01H
	DB	01H
	DB	01H
	DB	01H
	DB	01H
	DB	01H
	DB	01H
	DB	01H
	DB	01H
	DB	01H
	DB	01H
	DB	01H
	DB	01H
	DB	01H
	DB	01H
	DB	01H
	DB	01H
	DB	01H
	DB	01H
	DB	01H
	DB	01H
	DB	01H
	DB	01H
	DB	01H
	DB	01H
	DB	01H
	DB	01H
	DB	01H
	DB	01H
	DB	01H
	DB	01H
	DB	01H
	DB	01H
	DB	01H
	DB	01H
	DB	01H
	DB	01H
	DB	01H
	DB	01H
	DB	01H
	DB	01H
	DB	01H
	DB	01H
	DB	01H
	DB	01H
	DB	01H
	DB	01H
	DB	01H
	DB	01H
	DB	01H
	DB	01H
	DB	01H
	DB	01H
	DB	01H
	DB	01H
	DB	01H
	DB	01H
	DB	01H
	DB	01H
	DB	01H
	DB	01H
	DB	01H
	DB	01H
	DB	01H
	DB	01H
	DB	01H
	DB	01H
	DB	01H
	DB	01H
	DB	01H
	DB	01H
	DB	01H
	DB	01H
	DB	01H
	DB	01H
	DB	01H
	DB	01H
	DB	01H
	DB	01H
	DB	01H
	DB	01H
	DB	01H
	DB	013H
	DB	013H
	DB	013H
	DB	01H
	DB	013H
	DB	013H
	DB	013H
	DB	013H
	DB	013H
	DB	013H
	DB	013H
	DB	013H
	DB	010H
	DB	010H
	DB	013H
	DB	013H
	DB	018H
	DB	01cH
	DB	018H
	DB	010H
	DB	02H
	DB	02H
	DB	02H
	DB	010H
	DB	010H
	DB	02H
	DB	02H
	DB	010H
	DB	010H
	DB	02H
	DB	02H
	DB	010H
	DB	010H
	DB	010H
	DB	010H
	DB	02H
	DB	08H
	DB	08H
	DB	038H
	DB	02dH
	DB	02H
	DB	02H
	DB	02H
	DB	010H
	DB	02H
	DB	08H
	DB	08H
	DB	08H
	DB	08H
	DB	0cH
	DB	03H
	DB	0cH
	DB	02H
	DB	02H
	DB	08H
	DB	03H
	DB	03H
	DB	03H
	DB	08H
	DB	02H
	DB	08H
	DB	08H
	DB	0cH
	DB	0cH
	DB	08H
	DB	08H
	DB	0cH
	DB	0cH
	DB	02dH
	DB	03H
	DB	0fH
	DB	0fH
	DB	0fH
	DB	0fH
	DB	0cH
	DB	0cH
	DB	0eH
	DB	05H
	DB	05H
	DB	0eH
	DB	0fH
	DB	03H
	DB	03H
	DB	0eH
	DB	0fH
	DB	041H
	DB	05H
	DB	0fH
	DB	0eH
	DB	03H
	DB	02H
	DB	01cH
	DB	010H
	DB	02H
	DB	018H
	DB	018H
	DB	018H
	DB	018H
	DB	018H
	DB	01H
	DB	01H
	DB	01H
	DB	01H
	DB	01H
	DB	01H
	DB	01H
	DB	01H
	DB	01H
	DB	01H
	DB	01H
	DB	01H
	DB	01H
	DB	01H
	DB	01H
	DB	01H
	DB	01H
	DB	013H
	DB	049H
	DB	02dH
	DB	01H
	DB	01H
	DB	01H
	DB	01H
	DB	01H
	DB	01H
	DB	01H
	DB	01H
	DB	01H
	DB	01H
	DB	01H
	DB	01H
	DB	01H
	DB	01H
	DB	01H
	DB	01H
	DB	01H
	DB	01H
	DB	01H
	DB	01H
	DB	01H
	DB	01H
	DB	01H
	DB	01H
	DB	01H
	DB	01H
	DB	01H
	DB	01H
	DB	01H
	DB	01H
	DB	01H
	DB	01H
	DB	01H
	DB	01H
	DB	01H
	DB	01H
	DB	01H
	DB	01H
	DB	01H
	DB	01H
	DB	01H
	DB	01H
	DB	01H
	DB	01H
	DB	01H
	DB	01H
	DB	01H
	DB	01H
	DB	01H
	DB	01H
	DB	01H
	DB	01H
	DB	01H
	DB	01H
	DB	01H
	DB	01H
	DB	01H
	DB	01H
	DB	01H
	DB	01H
	DB	01H
	DB	01H
	DB	01H
	DB	01H
	DB	01H
	DB	01H
	DB	01H
	DB	01H
	DB	01H
	DB	01H
	DB	01H
	DB	01H
	DB	01H
	DB	01H
	DB	01H
	DB	01H
	DB	01H
	DB	01H
	DB	01H
	DB	01H
	DB	01H
	DB	01H
	DB	01H
	DB	01H
	DB	01H
	DB	01H
	DB	01H
	DB	01H
	DB	01H
	DB	013H
	DB	01H
	DB	013H
	DB	01H
	DB	01H
	DB	01H
	DB	01H
	DB	013H
	DB	013H
	DB	013H
	DB	013H
	DB	013H
	DB	01cH
	DB	010H
	DB	010H
	DB	010H
	DB	013H
	DB	013H
	DB	018H
	DB	027H
	DB	018H
	DB	013H
	DB	02H
	DB	02H
	DB	010H
	DB	010H
	DB	010H
	DB	02H
	DB	02H
	DB	02H
	DB	02H
	DB	02H
	DB	02H
	DB	010H
	DB	010H
	DB	010H
	DB	010H
	DB	02H
	DB	08H
	DB	038H
	DB	02dH
	DB	0cH
	DB	0cH
	DB	02H
	DB	02H
	DB	02H
	DB	08H
	DB	0cH
	DB	03H
	DB	03H
	DB	03H
	DB	03H
	DB	03H
	DB	03H
	DB	02H
	DB	02H
	DB	0cH
	DB	03H
	DB	0cH
	DB	0cH
	DB	03H
	DB	03H
	DB	0cH
	DB	0cH
	DB	0fH
	DB	0fH
	DB	0cH
	DB	0fH
	DB	0fH
	DB	0fH
	DB	03H
	DB	0fH
	DB	0eH
	DB	0fH
	DB	0fH
	DB	0eH
	DB	03H
	DB	0cH
	DB	03H
	DB	0eH
	DB	012H
	DB	011H
	DB	0fH
	DB	0cH
	DB	03H
	DB	0fH
	DB	0eH
	DB	011H
	DB	011H
	DB	0eH
	DB	0eH
	DB	0cH
	DB	02H
	DB	01cH
	DB	01cH
	DB	018H
	DB	010H
	DB	010H
	DB	01cH
	DB	027H
	DB	018H
	DB	01H
	DB	01H
	DB	01H
	DB	01H
	DB	01H
	DB	01H
	DB	01H
	DB	01H
	DB	01H
	DB	01H
	DB	01H
	DB	01H
	DB	01H
	DB	01H
	DB	01H
	DB	01H
	DB	01H
	DB	02H
	DB	067H
	DB	036H
	DB	01H
	DB	01H
	DB	01H
	DB	01H
	DB	01H
	DB	01H
	DB	01H
	DB	01H
	DB	01H
	DB	01H
	DB	01H
	DB	01H
	DB	01H
	DB	01H
	DB	01H
	DB	01H
	DB	01H
	DB	01H
	DB	01H
	DB	01H
	DB	01H
	DB	01H
	DB	01H
	DB	01H
	DB	01H
	DB	01H
	DB	01H
	DB	01H
	DB	01H
	DB	01H
	DB	01H
	DB	01H
	DB	01H
	DB	01H
	DB	01H
	DB	01H
	DB	01H
	DB	01H
	DB	01H
	DB	01H
	DB	01H
	DB	01H
	DB	01H
	DB	01H
	DB	01H
	DB	01H
	DB	01H
	DB	01H
	DB	01H
	DB	01H
	DB	01H
	DB	01H
	DB	01H
	DB	01H
	DB	01H
	DB	01H
	DB	01H
	DB	01H
	DB	01H
	DB	01H
	DB	01H
	DB	01H
	DB	01H
	DB	01H
	DB	01H
	DB	01H
	DB	01H
	DB	01H
	DB	01H
	DB	01H
	DB	01H
	DB	01H
	DB	01H
	DB	01H
	DB	01H
	DB	01H
	DB	01H
	DB	01H
	DB	01H
	DB	01H
	DB	01H
	DB	01H
	DB	01H
	DB	01H
	DB	01H
	DB	01H
	DB	013H
	DB	013H
	DB	013H
	DB	013H
	DB	013H
	DB	013H
	DB	01H
	DB	01H
	DB	01H
	DB	01H
	DB	013H
	DB	013H
	DB	013H
	DB	013H
	DB	010H
	DB	010H
	DB	010H
	DB	013H
	DB	013H
	DB	013H
	DB	013H
	DB	013H
	DB	010H
	DB	010H
	DB	027H
	DB	02H
	DB	02H
	DB	010H
	DB	013H
	DB	013H
	DB	02H
	DB	08H
	DB	08H
	DB	08H
	DB	02dH
	DB	02dH
	DB	02H
	DB	02H
	DB	08H
	DB	08H
	DB	02H
	DB	038H
	DB	03H
	DB	0cH
	DB	03H
	DB	0cH
	DB	0cH
	DB	08H
	DB	08H
	DB	0cH
	DB	0cH
	DB	03H
	DB	036H
	DB	039H
	DB	036H
	DB	03H
	DB	0cH
	DB	08H
	DB	03H
	DB	0fH
	DB	0eH
	DB	0fH
	DB	03H
	DB	0eH
	DB	0fH
	DB	03H
	DB	0fH
	DB	011H
	DB	011H
	DB	0fH
	DB	0fH
	DB	0eH
	DB	0eH
	DB	011H
	DB	0eH
	DB	011H
	DB	011H
	DB	0eH
	DB	011H
	DB	05H
	DB	0fH
	DB	0eH
	DB	0eH
	DB	0eH
	DB	011H
	DB	0eH
	DB	03H
	DB	03H
	DB	0eH
	DB	011H
	DB	011H
	DB	012H
	DB	05H
	DB	02dH
	DB	02H
	DB	02H
	DB	010H
	DB	027H
	DB	010H
	DB	08H
	DB	08H
	DB	018H
	DB	01cH
	DB	02H
	DB	01H
	DB	01H
	DB	01H
	DB	01H
	DB	01H
	DB	01H
	DB	01H
	DB	01H
	DB	01H
	DB	01H
	DB	01H
	DB	01H
	DB	01H
	DB	01H
	DB	01H
	DB	01H
	DB	01H
	DB	02dH
	DB	06H
	DB	039H
	DB	01H
	DB	01H
	DB	01H
	DB	01H
	DB	01H
	DB	01H
	DB	01H
	DB	01H
	DB	01H
	DB	01H
	DB	01H
	DB	01H
	DB	01H
	DB	01H
	DB	01H
	DB	01H
	DB	01H
	DB	01H
	DB	01H
	DB	01H
	DB	01H
	DB	01H
	DB	01H
	DB	01H
	DB	01H
	DB	01H
	DB	01H
	DB	01H
	DB	01H
	DB	01H
	DB	01H
	DB	01H
	DB	01H
	DB	01H
	DB	01H
	DB	01H
	DB	01H
	DB	01H
	DB	01H
	DB	01H
	DB	01H
	DB	01H
	DB	01H
	DB	01H
	DB	01H
	DB	01H
	DB	01H
	DB	01H
	DB	01H
	DB	01H
	DB	01H
	DB	01H
	DB	01H
	DB	01H
	DB	01H
	DB	01H
	DB	01H
	DB	01H
	DB	01H
	DB	01H
	DB	01H
	DB	01H
	DB	01H
	DB	01H
	DB	01H
	DB	01H
	DB	01H
	DB	01H
	DB	01H
	DB	01H
	DB	01H
	DB	01H
	DB	01H
	DB	01H
	DB	01H
	DB	01H
	DB	01H
	DB	01H
	DB	01H
	DB	01H
	DB	01H
	DB	01H
	DB	01H
	DB	01H
	DB	01H
	DB	01H
	DB	018H
	DB	013H
	DB	013H
	DB	018H
	DB	013H
	DB	013H
	DB	01H
	DB	01H
	DB	013H
	DB	013H
	DB	013H
	DB	010H
	DB	013H
	DB	013H
	DB	010H
	DB	010H
	DB	013H
	DB	013H
	DB	013H
	DB	013H
	DB	013H
	DB	013H
	DB	013H
	DB	010H
	DB	02H
	DB	08H
	DB	08H
	DB	02H
	DB	010H
	DB	010H
	DB	02H
	DB	02H
	DB	02dH
	DB	02dH
	DB	02dH
	DB	02dH
	DB	02H
	DB	02H
	DB	02dH
	DB	02H
	DB	02dH
	DB	03H
	DB	0fH
	DB	03H
	DB	0cH
	DB	0cH
	DB	03H
	DB	0fH
	DB	0eH
	DB	03H
	DB	0cH
	DB	03H
	DB	0fH
	DB	036H
	DB	03H
	DB	0fH
	DB	0fH
	DB	0cH
	DB	0cH
	DB	0fH
	DB	0fH
	DB	0fH
	DB	03H
	DB	0eH
	DB	0eH
	DB	011H
	DB	041H
	DB	05H
	DB	036H
	DB	0fH
	DB	0eH
	DB	036H
	DB	0fH
	DB	011H
	DB	012H
	DB	0aH
	DB	05H
	DB	0eH
	DB	05H
	DB	0fH
	DB	0fH
	DB	05H
	DB	0fH
	DB	03H
	DB	0eH
	DB	011H
	DB	0eH
	DB	0fH
	DB	011H
	DB	0aH
	DB	041H
	DB	05H
	DB	038H
	DB	02H
	DB	02H
	DB	02H
	DB	02H
	DB	02H
	DB	02H
	DB	02H
	DB	02H
	DB	01cH
	DB	01cH
	DB	0cH
	DB	01H
	DB	01H
	DB	01H
	DB	01H
	DB	01H
	DB	01H
	DB	01H
	DB	01H
	DB	01H
	DB	01H
	DB	01H
	DB	01H
	DB	01H
	DB	01H
	DB	01H
	DB	01H
	DB	01H
	DB	02dH
	DB	06H
	DB	039H
	DB	01H
	DB	01H
	DB	01H
	DB	01H
	DB	01H
	DB	01H
	DB	01H
	DB	01H
	DB	01H
	DB	01H
	DB	01H
	DB	01H
	DB	01H
	DB	01H
	DB	01H
	DB	01H
	DB	01H
	DB	01H
	DB	01H
	DB	01H
	DB	01H
	DB	01H
	DB	01H
	DB	01H
	DB	01H
	DB	01H
	DB	01H
	DB	01H
	DB	01H
	DB	01H
	DB	01H
	DB	01H
	DB	01H
	DB	01H
	DB	01H
	DB	01H
	DB	01H
	DB	01H
	DB	01H
	DB	01H
	DB	01H
	DB	01H
	DB	01H
	DB	01H
	DB	01H
	DB	01H
	DB	01H
	DB	01H
	DB	01H
	DB	01H
	DB	01H
	DB	01H
	DB	01H
	DB	01H
	DB	01H
	DB	01H
	DB	01H
	DB	01H
	DB	01H
	DB	01H
	DB	01H
	DB	01H
	DB	01H
	DB	01H
	DB	01H
	DB	01H
	DB	01H
	DB	01H
	DB	01H
	DB	01H
	DB	01H
	DB	01H
	DB	01H
	DB	01H
	DB	01H
	DB	01H
	DB	01H
	DB	01H
	DB	01H
	DB	01H
	DB	01H
	DB	01H
	DB	01H
	DB	01H
	DB	01H
	DB	01H
	DB	013H
	DB	013H
	DB	013H
	DB	013H
	DB	013H
	DB	013H
	DB	013H
	DB	013H
	DB	013H
	DB	010H
	DB	010H
	DB	010H
	DB	013H
	DB	013H
	DB	013H
	DB	013H
	DB	013H
	DB	013H
	DB	013H
	DB	013H
	DB	013H
	DB	010H
	DB	013H
	DB	02H
	DB	08H
	DB	08H
	DB	02H
	DB	02H
	DB	08H
	DB	08H
	DB	08H
	DB	08H
	DB	08H
	DB	02H
	DB	08H
	DB	08H
	DB	08H
	DB	08H
	DB	0cH
	DB	02dH
	DB	08H
	DB	03H
	DB	0cH
	DB	02dH
	DB	08H
	DB	0cH
	DB	0cH
	DB	036H
	DB	0eH
	DB	0fH
	DB	0fH
	DB	03H
	DB	0cH
	DB	0cH
	DB	02dH
	DB	0cH
	DB	0fH
	DB	03H
	DB	08H
	DB	03H
	DB	0eH
	DB	0eH
	DB	0fH
	DB	05H
	DB	011H
	DB	05H
	DB	0eH
	DB	03H
	DB	038H
	DB	036H
	DB	0eH
	DB	0fH
	DB	0eH
	DB	012H
	DB	012H
	DB	05H
	DB	036H
	DB	05H
	DB	036H
	DB	038H
	DB	03H
	DB	0eH
	DB	0fH
	DB	0fH
	DB	012H
	DB	012H
	DB	012H
	DB	011H
	DB	05H
	DB	05H
	DB	0eH
	DB	0cH
	DB	02H
	DB	02H
	DB	02H
	DB	02H
	DB	02H
	DB	02H
	DB	010H
	DB	02H
	DB	010H
	DB	027H
	DB	021H
	DB	02fH
	DB	01H
	DB	01H
	DB	01H
	DB	01H
	DB	01H
	DB	01H
	DB	01H
	DB	01H
	DB	01H
	DB	01H
	DB	01H
	DB	01H
	DB	01H
	DB	01H
	DB	01H
	DB	01H
	DB	01H
	DB	02dH
	DB	06H
	DB	039H
	DB	01H
	DB	01H
	DB	01H
	DB	01H
	DB	01H
	DB	01H
	DB	01H
	DB	01H
	DB	01H
	DB	01H
	DB	01H
	DB	01H
	DB	01H
	DB	01H
	DB	01H
	DB	01H
	DB	01H
	DB	01H
	DB	01H
	DB	01H
	DB	01H
	DB	01H
	DB	01H
	DB	01H
	DB	01H
	DB	01H
	DB	01H
	DB	01H
	DB	01H
	DB	01H
	DB	01H
	DB	01H
	DB	01H
	DB	01H
	DB	01H
	DB	01H
	DB	01H
	DB	01H
	DB	01H
	DB	01H
	DB	01H
	DB	01H
	DB	01H
	DB	01H
	DB	01H
	DB	01H
	DB	01H
	DB	01H
	DB	01H
	DB	01H
	DB	01H
	DB	01H
	DB	01H
	DB	01H
	DB	01H
	DB	01H
	DB	01H
	DB	01H
	DB	01H
	DB	01H
	DB	01H
	DB	01H
	DB	01H
	DB	01H
	DB	01H
	DB	01H
	DB	01H
	DB	01H
	DB	01H
	DB	01H
	DB	01H
	DB	01H
	DB	01H
	DB	01H
	DB	01H
	DB	01H
	DB	01H
	DB	01H
	DB	01H
	DB	01H
	DB	01H
	DB	01H
	DB	01H
	DB	01H
	DB	013H
	DB	013H
	DB	013H
	DB	013H
	DB	013H
	DB	013H
	DB	013H
	DB	010H
	DB	010H
	DB	010H
	DB	010H
	DB	010H
	DB	010H
	DB	010H
	DB	013H
	DB	013H
	DB	013H
	DB	010H
	DB	010H
	DB	02H
	DB	02H
	DB	02H
	DB	02H
	DB	02H
	DB	08H
	DB	08H
	DB	0cH
	DB	0cH
	DB	02H
	DB	0b8H
	DB	0b8H
	DB	08H
	DB	038H
	DB	0cH
	DB	08H
	DB	02H
	DB	02H
	DB	02dH
	DB	08H
	DB	03H
	DB	036H
	DB	03H
	DB	0cH
	DB	0cH
	DB	08H
	DB	08H
	DB	0cH
	DB	0fH
	DB	0fH
	DB	03H
	DB	03H
	DB	0fH
	DB	0eH
	DB	0eH
	DB	0fH
	DB	052H
	DB	02H
	DB	08H
	DB	0fH
	DB	05H
	DB	03H
	DB	03H
	DB	0eH
	DB	05H
	DB	0fH
	DB	0eH
	DB	0fH
	DB	03H
	DB	036H
	DB	0eH
	DB	041H
	DB	012H
	DB	011H
	DB	011H
	DB	0aH
	DB	0aH
	DB	011H
	DB	011H
	DB	05H
	DB	05H
	DB	03H
	DB	0fH
	DB	0eH
	DB	0fH
	DB	011H
	DB	01bH
	DB	019H
	DB	01bH
	DB	012H
	DB	05H
	DB	011H
	DB	011H
	DB	0fH
	DB	02H
	DB	08H
	DB	08H
	DB	010H
	DB	02H
	DB	02H
	DB	02H
	DB	010H
	DB	02H
	DB	02H
	DB	038H
	DB	0fH
	DB	03H
	DB	01H
	DB	01H
	DB	01H
	DB	01H
	DB	01H
	DB	01H
	DB	01H
	DB	01H
	DB	01H
	DB	01H
	DB	01H
	DB	01H
	DB	01H
	DB	01H
	DB	01H
	DB	01H
	DB	01H
	DB	02dH
	DB	06H
	DB	039H
	DB	01H
	DB	01H
	DB	01H
	DB	01H
	DB	01H
	DB	01H
	DB	01H
	DB	01H
	DB	01H
	DB	01H
	DB	01H
	DB	01H
	DB	01H
	DB	01H
	DB	01H
	DB	01H
	DB	01H
	DB	01H
	DB	01H
	DB	01H
	DB	01H
	DB	01H
	DB	01H
	DB	01H
	DB	01H
	DB	01H
	DB	01H
	DB	01H
	DB	01H
	DB	01H
	DB	01H
	DB	01H
	DB	01H
	DB	01H
	DB	01H
	DB	01H
	DB	01H
	DB	01H
	DB	01H
	DB	01H
	DB	01H
	DB	01H
	DB	01H
	DB	01H
	DB	01H
	DB	01H
	DB	01H
	DB	01H
	DB	01H
	DB	01H
	DB	01H
	DB	01H
	DB	01H
	DB	01H
	DB	01H
	DB	01H
	DB	01H
	DB	01H
	DB	01H
	DB	01H
	DB	01H
	DB	01H
	DB	01H
	DB	01H
	DB	01H
	DB	01H
	DB	01H
	DB	01H
	DB	01H
	DB	01H
	DB	01H
	DB	01H
	DB	01H
	DB	01H
	DB	01H
	DB	01H
	DB	01H
	DB	01H
	DB	01H
	DB	01H
	DB	01H
	DB	01H
	DB	013H
	DB	013H
	DB	018H
	DB	018H
	DB	013H
	DB	013H
	DB	013H
	DB	013H
	DB	013H
	DB	013H
	DB	018H
	DB	013H
	DB	013H
	DB	013H
	DB	013H
	DB	010H
	DB	010H
	DB	013H
	DB	013H
	DB	013H
	DB	010H
	DB	010H
	DB	02H
	DB	02H
	DB	02H
	DB	02H
	DB	08H
	DB	02dH
	DB	02dH
	DB	02H
	DB	02H
	DB	0b8H
	DB	0b8H
	DB	02H
	DB	08H
	DB	08H
	DB	02H
	DB	02H
	DB	02H
	DB	02H
	DB	02H
	DB	0cH
	DB	038H
	DB	03H
	DB	03H
	DB	02dH
	DB	08H
	DB	03H
	DB	0eH
	DB	05H
	DB	0fH
	DB	0cH
	DB	03H
	DB	03H
	DB	0eH
	DB	0eH
	DB	0fH
	DB	0fH
	DB	08H
	DB	08H
	DB	05H
	DB	041H
	DB	0fH
	DB	0cH
	DB	036H
	DB	036H
	DB	0cH
	DB	052H
	DB	0cH
	DB	03H
	DB	0fH
	DB	0eH
	DB	0aH
	DB	0aH
	DB	011H
	DB	011H
	DB	05H
	DB	05H
	DB	011H
	DB	012H
	DB	011H
	DB	036H
	DB	0fH
	DB	011H
	DB	0eH
	DB	0eH
	DB	016H
	DB	019H
	DB	01bH
	DB	016H
	DB	05H
	DB	03H
	DB	012H
	DB	0fH
	DB	02H
	DB	02H
	DB	021H
	DB	02H
	DB	01cH
	DB	01cH
	DB	02H
	DB	02H
	DB	02H
	DB	02H
	DB	038H
	DB	0eH
	DB	0cH
	DB	0cH
	DB	01H
	DB	01H
	DB	01H
	DB	01H
	DB	01H
	DB	01H
	DB	01H
	DB	01H
	DB	01H
	DB	01H
	DB	01H
	DB	01H
	DB	01H
	DB	01H
	DB	01H
	DB	01H
	DB	01H
	DB	02dH
	DB	06H
	DB	039H
	DB	01H
	DB	01H
	DB	01H
	DB	01H
	DB	01H
	DB	01H
	DB	01H
	DB	01H
	DB	01H
	DB	01H
	DB	01H
	DB	01H
	DB	01H
	DB	01H
	DB	01H
	DB	01H
	DB	01H
	DB	01H
	DB	01H
	DB	01H
	DB	01H
	DB	01H
	DB	01H
	DB	01H
	DB	01H
	DB	01H
	DB	01H
	DB	01H
	DB	01H
	DB	01H
	DB	01H
	DB	01H
	DB	01H
	DB	01H
	DB	01H
	DB	01H
	DB	01H
	DB	01H
	DB	01H
	DB	01H
	DB	01H
	DB	01H
	DB	01H
	DB	01H
	DB	01H
	DB	01H
	DB	01H
	DB	01H
	DB	01H
	DB	01H
	DB	01H
	DB	01H
	DB	01H
	DB	01H
	DB	01H
	DB	01H
	DB	01H
	DB	01H
	DB	01H
	DB	01H
	DB	01H
	DB	01H
	DB	01H
	DB	01H
	DB	01H
	DB	01H
	DB	01H
	DB	01H
	DB	01H
	DB	01H
	DB	01H
	DB	01H
	DB	01H
	DB	01H
	DB	01H
	DB	01H
	DB	01H
	DB	01H
	DB	01H
	DB	013H
	DB	013H
	DB	018H
	DB	013H
	DB	013H
	DB	013H
	DB	013H
	DB	01H
	DB	013H
	DB	013H
	DB	013H
	DB	01H
	DB	01H
	DB	013H
	DB	013H
	DB	010H
	DB	010H
	DB	013H
	DB	013H
	DB	013H
	DB	013H
	DB	010H
	DB	010H
	DB	02H
	DB	02H
	DB	02H
	DB	02H
	DB	02H
	DB	02H
	DB	02H
	DB	02H
	DB	02H
	DB	013H
	DB	010H
	DB	0b8H
	DB	0cH
	DB	08H
	DB	010H
	DB	02H
	DB	02H
	DB	02dH
	DB	0cH
	DB	08H
	DB	02H
	DB	02H
	DB	02dH
	DB	03H
	DB	0fH
	DB	0cH
	DB	0cH
	DB	0cH
	DB	036H
	DB	0fH
	DB	0cH
	DB	08H
	DB	08H
	DB	0cH
	DB	0fH
	DB	0eH
	DB	0fH
	DB	03H
	DB	0fH
	DB	0eH
	DB	05H
	DB	036H
	DB	03H
	DB	0cH
	DB	03H
	DB	0fH
	DB	0eH
	DB	0eH
	DB	0eH
	DB	0eH
	DB	011H
	DB	05H
	DB	05H
	DB	011H
	DB	011H
	DB	012H
	DB	0fH
	DB	0eH
	DB	011H
	DB	011H
	DB	011H
	DB	0eH
	DB	012H
	DB	05bH
	DB	019H
	DB	016H
	DB	012H
	DB	041H
	DB	0aH
	DB	01bH
	DB	016H
	DB	05H
	DB	03H
	DB	02H
	DB	010H
	DB	02H
	DB	02H
	DB	02H
	DB	02H
	DB	02H
	DB	02H
	DB	02H
	DB	02H
	DB	02H
	DB	0cH
	DB	011H
	DB	012H
	DB	016H
	DB	01H
	DB	01H
	DB	01H
	DB	01H
	DB	01H
	DB	01H
	DB	01H
	DB	01H
	DB	01H
	DB	01H
	DB	01H
	DB	01H
	DB	01H
	DB	01H
	DB	01H
	DB	01H
	DB	01H
	DB	02dH
	DB	06H
	DB	039H
	DB	01H
	DB	01H
	DB	01H
	DB	01H
	DB	01H
	DB	01H
	DB	01H
	DB	01H
	DB	01H
	DB	01H
	DB	01H
	DB	01H
	DB	01H
	DB	01H
	DB	01H
	DB	01H
	DB	01H
	DB	01H
	DB	01H
	DB	01H
	DB	01H
	DB	01H
	DB	01H
	DB	01H
	DB	01H
	DB	01H
	DB	01H
	DB	01H
	DB	01H
	DB	01H
	DB	01H
	DB	01H
	DB	01H
	DB	01H
	DB	01H
	DB	01H
	DB	01H
	DB	01H
	DB	01H
	DB	01H
	DB	01H
	DB	01H
	DB	01H
	DB	01H
	DB	01H
	DB	01H
	DB	01H
	DB	01H
	DB	01H
	DB	01H
	DB	01H
	DB	01H
	DB	01H
	DB	01H
	DB	01H
	DB	01H
	DB	01H
	DB	01H
	DB	01H
	DB	01H
	DB	01H
	DB	01H
	DB	01H
	DB	01H
	DB	01H
	DB	01H
	DB	01H
	DB	01H
	DB	01H
	DB	01H
	DB	01H
	DB	01H
	DB	01H
	DB	01H
	DB	01H
	DB	01H
	DB	01H
	DB	01H
	DB	013H
	DB	013H
	DB	013H
	DB	013H
	DB	01H
	DB	01H
	DB	013H
	DB	013H
	DB	013H
	DB	013H
	DB	013H
	DB	013H
	DB	013H
	DB	013H
	DB	013H
	DB	02H
	DB	02H
	DB	010H
	DB	010H
	DB	013H
	DB	013H
	DB	010H
	DB	02H
	DB	02H
	DB	02H
	DB	010H
	DB	010H
	DB	010H
	DB	010H
	DB	010H
	DB	010H
	DB	013H
	DB	013H
	DB	013H
	DB	013H
	DB	010H
	DB	010H
	DB	01cH
	DB	018H
	DB	013H
	DB	013H
	DB	01cH
	DB	02H
	DB	02dH
	DB	02H
	DB	010H
	DB	02H
	DB	010H
	DB	02H
	DB	02H
	DB	02H
	DB	02H
	DB	02dH
	DB	03H
	DB	0cH
	DB	03H
	DB	0fH
	DB	0fH
	DB	0fH
	DB	0fH
	DB	0cH
	DB	03H
	DB	0fH
	DB	0fH
	DB	0fH
	DB	0cH
	DB	08H
	DB	011H
	DB	016H
	DB	012H
	DB	041H
	DB	05H
	DB	08H
	DB	0fH
	DB	05H
	DB	0eH
	DB	0eH
	DB	041H
	DB	016H
	DB	019H
	DB	016H
	DB	016H
	DB	016H
	DB	03H
	DB	08H
	DB	0fH
	DB	011H
	DB	019H
	DB	01bH
	DB	0aH
	DB	012H
	DB	011H
	DB	0eH
	DB	016H
	DB	0bH
	DB	041H
	DB	02H
	DB	02dH
	DB	0cH
	DB	08H
	DB	02dH
	DB	02H
	DB	02H
	DB	02H
	DB	02H
	DB	010H
	DB	01cH
	DB	02H
	DB	0cH
	DB	011H
	DB	016H
	DB	016H
	DB	01H
	DB	01H
	DB	01H
	DB	01H
	DB	01H
	DB	01H
	DB	01H
	DB	01H
	DB	01H
	DB	01H
	DB	01H
	DB	01H
	DB	01H
	DB	01H
	DB	01H
	DB	01H
	DB	01H
	DB	02dH
	DB	06H
	DB	039H
	DB	01H
	DB	01H
	DB	01H
	DB	01H
	DB	01H
	DB	01H
	DB	01H
	DB	01H
	DB	01H
	DB	01H
	DB	01H
	DB	01H
	DB	01H
	DB	01H
	DB	01H
	DB	01H
	DB	01H
	DB	01H
	DB	01H
	DB	01H
	DB	01H
	DB	01H
	DB	01H
	DB	01H
	DB	01H
	DB	01H
	DB	01H
	DB	01H
	DB	01H
	DB	01H
	DB	01H
	DB	01H
	DB	01H
	DB	01H
	DB	01H
	DB	01H
	DB	01H
	DB	01H
	DB	01H
	DB	01H
	DB	01H
	DB	01H
	DB	01H
	DB	01H
	DB	01H
	DB	01H
	DB	01H
	DB	01H
	DB	01H
	DB	01H
	DB	01H
	DB	01H
	DB	01H
	DB	01H
	DB	01H
	DB	01H
	DB	01H
	DB	01H
	DB	01H
	DB	01H
	DB	01H
	DB	01H
	DB	01H
	DB	01H
	DB	01H
	DB	01H
	DB	01H
	DB	01H
	DB	01H
	DB	01H
	DB	01H
	DB	01H
	DB	01H
	DB	01H
	DB	01H
	DB	01H
	DB	01H
	DB	01H
	DB	013H
	DB	013H
	DB	013H
	DB	01H
	DB	01H
	DB	01H
	DB	013H
	DB	013H
	DB	013H
	DB	01H
	DB	01H
	DB	013H
	DB	013H
	DB	013H
	DB	013H
	DB	010H
	DB	02H
	DB	013H
	DB	013H
	DB	013H
	DB	013H
	DB	013H
	DB	013H
	DB	013H
	DB	013H
	DB	018H
	DB	01H
	DB	01H
	DB	013H
	DB	013H
	DB	013H
	DB	013H
	DB	013H
	DB	013H
	DB	018H
	DB	013H
	DB	013H
	DB	013H
	DB	013H
	DB	013H
	DB	018H
	DB	018H
	DB	013H
	DB	013H
	DB	013H
	DB	013H
	DB	013H
	DB	013H
	DB	027H
	DB	010H
	DB	010H
	DB	01cH
	DB	01cH
	DB	02H
	DB	02H
	DB	02H
	DB	0cH
	DB	0cH
	DB	02H
	DB	02H
	DB	02H
	DB	08H
	DB	02dH
	DB	08H
	DB	0eH
	DB	0fH
	DB	08H
	DB	05H
	DB	0aH
	DB	05H
	DB	0cH
	DB	0cH
	DB	0cH
	DB	03H
	DB	0cH
	DB	0cH
	DB	011H
	DB	012H
	DB	041H
	DB	0bH
	DB	016H
	DB	016H
	DB	016H
	DB	049H
	DB	05H
	DB	0eH
	DB	0eH
	DB	012H
	DB	041H
	DB	0fH
	DB	012H
	DB	0eH
	DB	0eH
	DB	0eH
	DB	0eH
	DB	038H
	DB	02H
	DB	05H
	DB	05H
	DB	021H
	DB	02dH
	DB	02H
	DB	01cH
	DB	02H
	DB	02H
	DB	02H
	DB	02dH
	DB	03H
	DB	011H
	DB	016H
	DB	012H
	DB	016H
	DB	01H
	DB	01H
	DB	01H
	DB	01H
	DB	01H
	DB	01H
	DB	01H
	DB	01H
	DB	01H
	DB	01H
	DB	01H
	DB	01H
	DB	01H
	DB	01H
	DB	01H
	DB	01H
	DB	01H
	DB	02dH
	DB	06H
	DB	039H
	DB	01H
	DB	01H
	DB	01H
	DB	01H
	DB	01H
	DB	01H
	DB	01H
	DB	01H
	DB	01H
	DB	01H
	DB	01H
	DB	01H
	DB	01H
	DB	01H
	DB	01H
	DB	01H
	DB	01H
	DB	01H
	DB	01H
	DB	01H
	DB	01H
	DB	01H
	DB	01H
	DB	01H
	DB	01H
	DB	01H
	DB	01H
	DB	01H
	DB	01H
	DB	01H
	DB	01H
	DB	01H
	DB	01H
	DB	01H
	DB	01H
	DB	01H
	DB	01H
	DB	01H
	DB	01H
	DB	01H
	DB	01H
	DB	01H
	DB	01H
	DB	01H
	DB	01H
	DB	01H
	DB	01H
	DB	01H
	DB	01H
	DB	01H
	DB	01H
	DB	01H
	DB	01H
	DB	01H
	DB	01H
	DB	01H
	DB	01H
	DB	01H
	DB	01H
	DB	01H
	DB	01H
	DB	01H
	DB	01H
	DB	01H
	DB	01H
	DB	01H
	DB	01H
	DB	01H
	DB	01H
	DB	01H
	DB	01H
	DB	01H
	DB	01H
	DB	01H
	DB	01H
	DB	01H
	DB	01H
	DB	01H
	DB	01H
	DB	01H
	DB	01H
	DB	01H
	DB	01H
	DB	01H
	DB	01H
	DB	01H
	DB	01H
	DB	01H
	DB	01H
	DB	01H
	DB	01H
	DB	01H
	DB	01H
	DB	01H
	DB	013H
	DB	013H
	DB	01H
	DB	013H
	DB	010H
	DB	013H
	DB	018H
	DB	013H
	DB	013H
	DB	013H
	DB	013H
	DB	018H
	DB	013H
	DB	013H
	DB	013H
	DB	018H
	DB	018H
	DB	013H
	DB	018H
	DB	018H
	DB	013H
	DB	013H
	DB	010H
	DB	018H
	DB	018H
	DB	013H
	DB	013H
	DB	018H
	DB	018H
	DB	018H
	DB	018H
	DB	018H
	DB	018H
	DB	018H
	DB	018H
	DB	018H
	DB	018H
	DB	018H
	DB	013H
	DB	013H
	DB	010H
	DB	010H
	DB	010H
	DB	02H
	DB	03H
	DB	0fH
	DB	03H
	DB	03H
	DB	011H
	DB	05H
	DB	0cH
	DB	03H
	DB	0fH
	DB	011H
	DB	012H
	DB	012H
	DB	011H
	DB	011H
	DB	0cH
	DB	02H
	DB	03H
	DB	02dH
	DB	02dH
	DB	0fH
	DB	0eH
	DB	052H
	DB	03H
	DB	0eH
	DB	011H
	DB	011H
	DB	0eH
	DB	0eH
	DB	03H
	DB	03H
	DB	0eH
	DB	0fH
	DB	0eH
	DB	0cH
	DB	02H
	DB	01cH
	DB	02H
	DB	024H
	DB	024H
	DB	02H
	DB	01cH
	DB	02H
	DB	02H
	DB	02H
	DB	010H
	DB	01cH
	DB	02H
	DB	0cH
	DB	03H
	DB	011H
	DB	011H
	DB	05H
	DB	01H
	DB	01H
	DB	01H
	DB	01H
	DB	01H
	DB	01H
	DB	01H
	DB	01H
	DB	01H
	DB	01H
	DB	01H
	DB	01H
	DB	01H
	DB	01H
	DB	01H
	DB	01H
	DB	01H
	DB	02dH
	DB	06H
	DB	039H
	DB	01H
	DB	01H
	DB	01H
	DB	01H
	DB	01H
	DB	01H
	DB	01H
	DB	01H
	DB	01H
	DB	01H
	DB	01H
	DB	01H
	DB	01H
	DB	01H
	DB	01H
	DB	01H
	DB	01H
	DB	01H
	DB	01H
	DB	01H
	DB	01H
	DB	01H
	DB	01H
	DB	01H
	DB	01H
	DB	01H
	DB	01H
	DB	01H
	DB	01H
	DB	01H
	DB	01H
	DB	01H
	DB	01H
	DB	01H
	DB	01H
	DB	01H
	DB	01H
	DB	01H
	DB	01H
	DB	01H
	DB	01H
	DB	01H
	DB	01H
	DB	01H
	DB	01H
	DB	01H
	DB	01H
	DB	01H
	DB	01H
	DB	01H
	DB	01H
	DB	01H
	DB	01H
	DB	01H
	DB	01H
	DB	01H
	DB	01H
	DB	01H
	DB	01H
	DB	01H
	DB	01H
	DB	01H
	DB	01H
	DB	01H
	DB	01H
	DB	01H
	DB	01H
	DB	01H
	DB	01H
	DB	01H
	DB	01H
	DB	01H
	DB	01H
	DB	01H
	DB	01H
	DB	01H
	DB	01H
	DB	01H
	DB	01H
	DB	01H
	DB	01H
	DB	01H
	DB	01H
	DB	01H
	DB	01H
	DB	01H
	DB	01H
	DB	01H
	DB	01H
	DB	01H
	DB	01H
	DB	01H
	DB	01H
	DB	01H
	DB	01H
	DB	013H
	DB	010H
	DB	02H
	DB	02H
	DB	02H
	DB	02H
	DB	010H
	DB	02H
	DB	02H
	DB	02H
	DB	010H
	DB	013H
	DB	010H
	DB	013H
	DB	018H
	DB	013H
	DB	08H
	DB	010H
	DB	018H
	DB	018H
	DB	02H
	DB	03H
	DB	02H
	DB	013H
	DB	018H
	DB	018H
	DB	018H
	DB	018H
	DB	013H
	DB	027H
	DB	027H
	DB	018H
	DB	018H
	DB	02H
	DB	0eH
	DB	0fH
	DB	02dH
	DB	0cH
	DB	0fH
	DB	08H
	DB	0fH
	DB	0eH
	DB	03H
	DB	0fH
	DB	05H
	DB	03H
	DB	0cH
	DB	0cH
	DB	02dH
	DB	08H
	DB	05H
	DB	0eH
	DB	011H
	DB	012H
	DB	012H
	DB	041H
	DB	05H
	DB	03H
	DB	021H
	DB	02dH
	DB	0cH
	DB	0cH
	DB	02dH
	DB	0fH
	DB	052H
	DB	08H
	DB	038H
	DB	016H
	DB	06H
	DB	019H
	DB	016H
	DB	012H
	DB	0fH
	DB	052H
	DB	012H
	DB	011H
	DB	02dH
	DB	01cH
	DB	018H
	DB	02H
	DB	02dH
	DB	08H
	DB	02H
	DB	02dH
	DB	038H
	DB	02dH
	DB	02H
	DB	02H
	DB	02H
	DB	08H
	DB	0eH
	DB	049H
	DB	011H
	DB	011H
	DB	036H
	DB	01H
	DB	01H
	DB	01H
	DB	01H
	DB	01H
	DB	01H
	DB	01H
	DB	01H
	DB	01H
	DB	01H
	DB	01H
	DB	01H
	DB	01H
	DB	01H
	DB	01H
	DB	01H
	DB	01H
	DB	02dH
	DB	06H
	DB	039H
	DB	01H
	DB	01H
	DB	01H
	DB	01H
	DB	01H
	DB	01H
	DB	01H
	DB	01H
	DB	01H
	DB	01H
	DB	01H
	DB	01H
	DB	01H
	DB	01H
	DB	01H
	DB	01H
	DB	01H
	DB	01H
	DB	01H
	DB	01H
	DB	01H
	DB	01H
	DB	01H
	DB	01H
	DB	01H
	DB	01H
	DB	01H
	DB	01H
	DB	01H
	DB	01H
	DB	01H
	DB	01H
	DB	01H
	DB	01H
	DB	01H
	DB	01H
	DB	01H
	DB	01H
	DB	01H
	DB	01H
	DB	01H
	DB	01H
	DB	01H
	DB	01H
	DB	01H
	DB	01H
	DB	01H
	DB	01H
	DB	01H
	DB	01H
	DB	01H
	DB	01H
	DB	01H
	DB	01H
	DB	01H
	DB	01H
	DB	01H
	DB	01H
	DB	01H
	DB	01H
	DB	01H
	DB	01H
	DB	01H
	DB	01H
	DB	01H
	DB	01H
	DB	01H
	DB	01H
	DB	01H
	DB	01H
	DB	01H
	DB	01H
	DB	01H
	DB	01H
	DB	01H
	DB	01H
	DB	01H
	DB	01H
	DB	01H
	DB	01H
	DB	01H
	DB	013H
	DB	01H
	DB	013H
	DB	013H
	DB	01H
	DB	013H
	DB	013H
	DB	013H
	DB	013H
	DB	013H
	DB	013H
	DB	013H
	DB	013H
	DB	013H
	DB	010H
	DB	02H
	DB	02H
	DB	02H
	DB	02H
	DB	08H
	DB	02H
	DB	02H
	DB	02dH
	DB	02dH
	DB	02H
	DB	02H
	DB	02H
	DB	08H
	DB	02H
	DB	02H
	DB	03H
	DB	0fH
	DB	08H
	DB	02H
	DB	02H
	DB	03H
	DB	03H
	DB	03H
	DB	038H
	DB	02H
	DB	010H
	DB	010H
	DB	02H
	DB	08H
	DB	08H
	DB	02H
	DB	02H
	DB	0fH
	DB	01bH
	DB	01bH
	DB	0eH
	DB	0fH
	DB	05H
	DB	0fH
	DB	03H
	DB	03H
	DB	02dH
	DB	02H
	DB	021H
	DB	03H
	DB	011H
	DB	011H
	DB	0fH
	DB	0cH
	DB	011H
	DB	016H
	DB	01bH
	DB	016H
	DB	016H
	DB	01bH
	DB	012H
	DB	041H
	DB	0aH
	DB	0aH
	DB	012H
	DB	0eH
	DB	0cH
	DB	012H
	DB	019H
	DB	022H
	DB	022H
	DB	06H
	DB	0e6H
	DB	0bH
	DB	016H
	DB	01bH
	DB	012H
	DB	012H
	DB	011H
	DB	03H
	DB	02H
	DB	02H
	DB	08H
	DB	08H
	DB	02dH
	DB	02dH
	DB	0cH
	DB	03H
	DB	0fH
	DB	0cH
	DB	01cH
	DB	02H
	DB	038H
	DB	02fH
	DB	06H
	DB	06H
	DB	016H
	DB	024H
	DB	02H
	DB	01H
	DB	01H
	DB	01H
	DB	01H
	DB	01H
	DB	01H
	DB	01H
	DB	01H
	DB	01H
	DB	01H
	DB	01H
	DB	01H
	DB	01H
	DB	01H
	DB	01H
	DB	01H
	DB	01H
	DB	02dH
	DB	06H
	DB	039H
	DB	01H
	DB	01H
	DB	01H
	DB	01H
	DB	01H
	DB	01H
	DB	01H
	DB	01H
	DB	01H
	DB	01H
	DB	01H
	DB	01H
	DB	01H
	DB	01H
	DB	01H
	DB	01H
	DB	01H
	DB	01H
	DB	01H
	DB	01H
	DB	01H
	DB	01H
	DB	01H
	DB	01H
	DB	01H
	DB	01H
	DB	01H
	DB	01H
	DB	01H
	DB	01H
	DB	01H
	DB	01H
	DB	01H
	DB	01H
	DB	01H
	DB	01H
	DB	01H
	DB	01H
	DB	01H
	DB	01H
	DB	01H
	DB	01H
	DB	01H
	DB	01H
	DB	01H
	DB	01H
	DB	01H
	DB	01H
	DB	01H
	DB	01H
	DB	01H
	DB	01H
	DB	01H
	DB	01H
	DB	01H
	DB	01H
	DB	01H
	DB	01H
	DB	01H
	DB	01H
	DB	01H
	DB	01H
	DB	01H
	DB	01H
	DB	01H
	DB	01H
	DB	01H
	DB	01H
	DB	01H
	DB	01H
	DB	01H
	DB	01H
	DB	01H
	DB	01H
	DB	01H
	DB	01H
	DB	01H
	DB	01H
	DB	01H
	DB	013H
	DB	013H
	DB	013H
	DB	013H
	DB	013H
	DB	010H
	DB	013H
	DB	013H
	DB	013H
	DB	010H
	DB	013H
	DB	013H
	DB	013H
	DB	013H
	DB	013H
	DB	010H
	DB	02H
	DB	010H
	DB	010H
	DB	02H
	DB	02H
	DB	02H
	DB	02H
	DB	013H
	DB	02H
	DB	02H
	DB	010H
	DB	013H
	DB	01cH
	DB	01cH
	DB	010H
	DB	02H
	DB	02dH
	DB	03H
	DB	0fH
	DB	03H
	DB	08H
	DB	0b8H
	DB	0b8H
	DB	0fH
	DB	05H
	DB	0fH
	DB	03H
	DB	0cH
	DB	08H
	DB	02dH
	DB	08H
	DB	0fH
	DB	05H
	DB	05H
	DB	041H
	DB	012H
	DB	012H
	DB	036H
	DB	0eH
	DB	011H
	DB	039H
	DB	08H
	DB	0fH
	DB	0fH
	DB	03H
	DB	0eH
	DB	012H
	DB	012H
	DB	012H
	DB	0fH
	DB	0eH
	DB	012H
	DB	0aH
	DB	012H
	DB	0aH
	DB	016H
	DB	019H
	DB	019H
	DB	0bH
	DB	05cH
	DB	03cH
	DB	03H
	DB	039H
	DB	012H
	DB	0bH
	DB	06H
	DB	019H
	DB	0aH
	DB	0aH
	DB	05H
	DB	012H
	DB	016H
	DB	012H
	DB	011H
	DB	03H
	DB	02dH
	DB	02H
	DB	02H
	DB	0fH
	DB	011H
	DB	0cH
	DB	02H
	DB	02H
	DB	02H
	DB	03H
	DB	03H
	DB	02H
	DB	02dH
	DB	03H
	DB	041H
	DB	0aH
	DB	016H
	DB	011H
	DB	03H
	DB	021H
	DB	01H
	DB	01H
	DB	01H
	DB	01H
	DB	01H
	DB	01H
	DB	01H
	DB	01H
	DB	01H
	DB	01H
	DB	01H
	DB	01H
	DB	01H
	DB	01H
	DB	01H
	DB	01H
	DB	01H
	DB	02dH
	DB	06H
	DB	039H
	DB	01H
	DB	01H
	DB	01H
	DB	01H
	DB	01H
	DB	01H
	DB	01H
	DB	01H
	DB	01H
	DB	01H
	DB	01H
	DB	01H
	DB	01H
	DB	01H
	DB	01H
	DB	01H
	DB	01H
	DB	01H
	DB	01H
	DB	01H
	DB	01H
	DB	01H
	DB	01H
	DB	01H
	DB	01H
	DB	01H
	DB	01H
	DB	01H
	DB	01H
	DB	01H
	DB	01H
	DB	01H
	DB	01H
	DB	01H
	DB	01H
	DB	01H
	DB	01H
	DB	01H
	DB	01H
	DB	01H
	DB	01H
	DB	01H
	DB	01H
	DB	01H
	DB	01H
	DB	01H
	DB	01H
	DB	01H
	DB	01H
	DB	01H
	DB	01H
	DB	01H
	DB	01H
	DB	01H
	DB	01H
	DB	01H
	DB	01H
	DB	01H
	DB	01H
	DB	01H
	DB	01H
	DB	01H
	DB	01H
	DB	01H
	DB	01H
	DB	01H
	DB	01H
	DB	01H
	DB	01H
	DB	01H
	DB	01H
	DB	01H
	DB	01H
	DB	01H
	DB	01H
	DB	01H
	DB	01H
	DB	013H
	DB	013H
	DB	013H
	DB	013H
	DB	013H
	DB	013H
	DB	013H
	DB	013H
	DB	01H
	DB	01H
	DB	01H
	DB	013H
	DB	010H
	DB	010H
	DB	010H
	DB	010H
	DB	027H
	DB	013H
	DB	013H
	DB	010H
	DB	010H
	DB	010H
	DB	08H
	DB	02H
	DB	010H
	DB	02H
	DB	02H
	DB	010H
	DB	013H
	DB	018H
	DB	018H
	DB	027H
	DB	010H
	DB	02H
	DB	038H
	DB	02H
	DB	02dH
	DB	02H
	DB	08H
	DB	08H
	DB	02H
	DB	0cH
	DB	039H
	DB	0fH
	DB	0eH
	DB	011H
	DB	0eH
	DB	03H
	DB	08H
	DB	036H
	DB	041H
	DB	05H
	DB	0fH
	DB	012H
	DB	04fH
	DB	05H
	DB	0eH
	DB	0aH
	DB	041H
	DB	0fH
	DB	016H
	DB	019H
	DB	01bH
	DB	012H
	DB	011H
	DB	011H
	DB	0eH
	DB	03H
	DB	0eH
	DB	012H
	DB	05H
	DB	036H
	DB	012H
	DB	012H
	DB	012H
	DB	041H
	DB	0bH
	DB	022H
	DB	041H
	DB	02H
	DB	02H
	DB	011H
	DB	012H
	DB	019H
	DB	019H
	DB	011H
	DB	011H
	DB	019H
	DB	019H
	DB	016H
	DB	0fH
	DB	0cH
	DB	038H
	DB	02dH
	DB	02H
	DB	02dH
	DB	0fH
	DB	0eH
	DB	02dH
	DB	02H
	DB	02H
	DB	02H
	DB	02dH
	DB	038H
	DB	02dH
	DB	02H
	DB	03H
	DB	0aH
	DB	01bH
	DB	019H
	DB	016H
	DB	011H
	DB	03H
	DB	01H
	DB	01H
	DB	01H
	DB	01H
	DB	01H
	DB	01H
	DB	01H
	DB	01H
	DB	01H
	DB	01H
	DB	01H
	DB	01H
	DB	01H
	DB	01H
	DB	01H
	DB	01H
	DB	01H
	DB	02dH
	DB	06H
	DB	039H
	DB	01H
	DB	01H
	DB	01H
	DB	01H
	DB	01H
	DB	01H
	DB	01H
	DB	01H
	DB	01H
	DB	01H
	DB	01H
	DB	01H
	DB	01H
	DB	01H
	DB	01H
	DB	01H
	DB	01H
	DB	01H
	DB	01H
	DB	01H
	DB	01H
	DB	01H
	DB	01H
	DB	01H
	DB	01H
	DB	01H
	DB	01H
	DB	01H
	DB	01H
	DB	01H
	DB	01H
	DB	01H
	DB	01H
	DB	01H
	DB	01H
	DB	01H
	DB	01H
	DB	01H
	DB	01H
	DB	01H
	DB	01H
	DB	01H
	DB	01H
	DB	01H
	DB	01H
	DB	01H
	DB	01H
	DB	01H
	DB	01H
	DB	01H
	DB	01H
	DB	01H
	DB	01H
	DB	01H
	DB	01H
	DB	01H
	DB	01H
	DB	01H
	DB	01H
	DB	01H
	DB	01H
	DB	01H
	DB	01H
	DB	01H
	DB	01H
	DB	01H
	DB	01H
	DB	01H
	DB	01H
	DB	01H
	DB	01H
	DB	01H
	DB	01H
	DB	01H
	DB	01H
	DB	01H
	DB	01H
	DB	01H
	DB	01H
	DB	013H
	DB	013H
	DB	013H
	DB	013H
	DB	013H
	DB	013H
	DB	013H
	DB	013H
	DB	013H
	DB	01H
	DB	018H
	DB	013H
	DB	013H
	DB	010H
	DB	01cH
	DB	013H
	DB	013H
	DB	013H
	DB	018H
	DB	018H
	DB	018H
	DB	01cH
	DB	02H
	DB	038H
	DB	038H
	DB	02H
	DB	013H
	DB	027H
	DB	08H
	DB	0cH
	DB	08H
	DB	02H
	DB	02dH
	DB	02H
	DB	02H
	DB	018H
	DB	08H
	DB	036H
	DB	08H
	DB	02H
	DB	08H
	DB	0fH
	DB	0fH
	DB	036H
	DB	0eH
	DB	0eH
	DB	011H
	DB	05H
	DB	05H
	DB	0cH
	DB	012H
	DB	0bH
	DB	0aH
	DB	036H
	DB	0fH
	DB	03H
	DB	0fH
	DB	05H
	DB	012H
	DB	016H
	DB	01bH
	DB	016H
	DB	011H
	DB	011H
	DB	0eH
	DB	0eH
	DB	019H
	DB	019H
	DB	012H
	DB	0fH
	DB	0eH
	DB	0eH
	DB	0fH
	DB	0fH
	DB	016H
	DB	01bH
	DB	016H
	DB	0fH
	DB	0cH
	DB	05bH
	DB	057H
	DB	022H
	DB	022H
	DB	016H
	DB	011H
	DB	057H
	DB	057H
	DB	012H
	DB	0cH
	DB	02H
	DB	038H
	DB	038H
	DB	02dH
	DB	03H
	DB	0cH
	DB	038H
	DB	02dH
	DB	038H
	DB	038H
	DB	02dH
	DB	024H
	DB	021H
	DB	0fH
	DB	05H
	DB	049H
	DB	04fH
	DB	0eH
	DB	041H
	DB	04fH
	DB	036H
	DB	021H
	DB	01H
	DB	01H
	DB	01H
	DB	01H
	DB	01H
	DB	01H
	DB	01H
	DB	01H
	DB	01H
	DB	01H
	DB	01H
	DB	01H
	DB	01H
	DB	01H
	DB	01H
	DB	01H
	DB	01H
	DB	02dH
	DB	06H
	DB	039H
	DB	01H
	DB	01H
	DB	01H
	DB	01H
	DB	01H
	DB	01H
	DB	01H
	DB	01H
	DB	01H
	DB	01H
	DB	01H
	DB	01H
	DB	01H
	DB	01H
	DB	01H
	DB	01H
	DB	01H
	DB	01H
	DB	01H
	DB	01H
	DB	01H
	DB	01H
	DB	01H
	DB	01H
	DB	01H
	DB	01H
	DB	01H
	DB	01H
	DB	01H
	DB	01H
	DB	01H
	DB	01H
	DB	01H
	DB	01H
	DB	01H
	DB	01H
	DB	01H
	DB	01H
	DB	01H
	DB	01H
	DB	01H
	DB	01H
	DB	01H
	DB	01H
	DB	01H
	DB	01H
	DB	01H
	DB	01H
	DB	01H
	DB	01H
	DB	01H
	DB	01H
	DB	01H
	DB	01H
	DB	01H
	DB	01H
	DB	01H
	DB	01H
	DB	01H
	DB	01H
	DB	01H
	DB	01H
	DB	01H
	DB	01H
	DB	01H
	DB	01H
	DB	01H
	DB	01H
	DB	01H
	DB	01H
	DB	01H
	DB	01H
	DB	01H
	DB	01H
	DB	01H
	DB	01H
	DB	01H
	DB	01H
	DB	013H
	DB	013H
	DB	013H
	DB	018H
	DB	013H
	DB	013H
	DB	010H
	DB	010H
	DB	010H
	DB	027H
	DB	027H
	DB	027H
	DB	013H
	DB	013H
	DB	013H
	DB	013H
	DB	02H
	DB	02H
	DB	02H
	DB	02H
	DB	08H
	DB	02H
	DB	010H
	DB	02H
	DB	0cH
	DB	03H
	DB	0cH
	DB	02H
	DB	02dH
	DB	0cH
	DB	02dH
	DB	02dH
	DB	02H
	DB	021H
	DB	02H
	DB	018H
	DB	013H
	DB	08H
	DB	03H
	DB	02dH
	DB	02H
	DB	0b8H
	DB	08H
	DB	08H
	DB	08H
	DB	0cH
	DB	041H
	DB	016H
	DB	0aH
	DB	049H
	DB	0eH
	DB	0aH
	DB	041H
	DB	05H
	DB	05H
	DB	041H
	DB	0fH
	DB	011H
	DB	012H
	DB	012H
	DB	05H
	DB	011H
	DB	016H
	DB	012H
	DB	0fH
	DB	0eH
	DB	012H
	DB	01bH
	DB	0bH
	DB	041H
	DB	03H
	DB	0eH
	DB	011H
	DB	012H
	DB	012H
	DB	016H
	DB	012H
	DB	0bH
	DB	016H
	DB	012H
	DB	022H
	DB	032H
	DB	01bH
	DB	0eH
	DB	05H
	DB	019H
	DB	057H
	DB	019H
	DB	036H
	DB	02H
	DB	02H
	DB	0cH
	DB	03H
	DB	02H
	DB	02H
	DB	02H
	DB	02H
	DB	02dH
	DB	038H
	DB	02H
	DB	02H
	DB	02dH
	DB	024H
	DB	0fH
	DB	0eH
	DB	05H
	DB	049H
	DB	039H
	DB	011H
	DB	036H
	DB	02dH
	DB	02H
	DB	01H
	DB	01H
	DB	01H
	DB	01H
	DB	01H
	DB	01H
	DB	01H
	DB	01H
	DB	01H
	DB	01H
	DB	01H
	DB	01H
	DB	01H
	DB	01H
	DB	01H
	DB	01H
	DB	01H
	DB	02dH
	DB	06H
	DB	039H
	DB	01H
	DB	01H
	DB	01H
	DB	01H
	DB	01H
	DB	01H
	DB	01H
	DB	01H
	DB	01H
	DB	01H
	DB	01H
	DB	01H
	DB	01H
	DB	01H
	DB	01H
	DB	01H
	DB	01H
	DB	01H
	DB	01H
	DB	01H
	DB	01H
	DB	01H
	DB	01H
	DB	01H
	DB	01H
	DB	01H
	DB	01H
	DB	01H
	DB	01H
	DB	01H
	DB	01H
	DB	01H
	DB	01H
	DB	01H
	DB	01H
	DB	01H
	DB	01H
	DB	01H
	DB	01H
	DB	01H
	DB	01H
	DB	01H
	DB	01H
	DB	01H
	DB	01H
	DB	01H
	DB	01H
	DB	01H
	DB	01H
	DB	01H
	DB	01H
	DB	01H
	DB	01H
	DB	01H
	DB	01H
	DB	01H
	DB	01H
	DB	01H
	DB	01H
	DB	01H
	DB	01H
	DB	01H
	DB	01H
	DB	01H
	DB	01H
	DB	01H
	DB	01H
	DB	01H
	DB	01H
	DB	01H
	DB	01H
	DB	01H
	DB	01H
	DB	01H
	DB	01H
	DB	01H
	DB	013H
	DB	013H
	DB	013H
	DB	01H
	DB	01H
	DB	01H
	DB	01H
	DB	01H
	DB	01H
	DB	013H
	DB	013H
	DB	018H
	DB	01cH
	DB	02H
	DB	02H
	DB	010H
	DB	02H
	DB	02dH
	DB	02dH
	DB	010H
	DB	02H
	DB	02H
	DB	02H
	DB	02H
	DB	02H
	DB	02H
	DB	08H
	DB	02dH
	DB	08H
	DB	08H
	DB	0cH
	DB	02H
	DB	02H
	DB	038H
	DB	08H
	DB	03H
	DB	03H
	DB	02H
	DB	08H
	DB	02dH
	DB	08H
	DB	02H
	DB	08H
	DB	0cH
	DB	08H
	DB	0cH
	DB	0cH
	DB	03H
	DB	036H
	DB	0eH
	DB	036H
	DB	036H
	DB	03H
	DB	039H
	DB	036H
	DB	038H
	DB	0fH
	DB	012H
	DB	03H
	DB	03H
	DB	011H
	DB	016H
	DB	0eH
	DB	03H
	DB	0eH
	DB	0aH
	DB	012H
	DB	012H
	DB	012H
	DB	012H
	DB	049H
	DB	05H
	DB	05H
	DB	0bH
	DB	01bH
	DB	016H
	DB	04fH
	DB	0aH
	DB	041H
	DB	011H
	DB	0eH
	DB	011H
	DB	01bH
	DB	067H
	DB	0bH
	DB	012H
	DB	016H
	DB	032H
	DB	032H
	DB	05cH
	DB	03H
	DB	02H
	DB	08H
	DB	02dH
	DB	024H
	DB	02H
	DB	018H
	DB	02H
	DB	02H
	DB	02dH
	DB	02dH
	DB	018H
	DB	02dH
	DB	03H
	DB	038H
	DB	011H
	DB	016H
	DB	01bH
	DB	0bH
	DB	0bH
	DB	06H
	DB	0fH
	DB	021H
	DB	02dH
	DB	01H
	DB	01H
	DB	01H
	DB	01H
	DB	01H
	DB	01H
	DB	01H
	DB	01H
	DB	01H
	DB	01H
	DB	01H
	DB	01H
	DB	01H
	DB	01H
	DB	01H
	DB	01H
	DB	01H
	DB	02dH
	DB	06H
	DB	039H
	DB	01H
	DB	01H
	DB	01H
	DB	01H
	DB	01H
	DB	01H
	DB	01H
	DB	01H
	DB	01H
	DB	01H
	DB	01H
	DB	01H
	DB	01H
	DB	01H
	DB	01H
	DB	01H
	DB	01H
	DB	01H
	DB	01H
	DB	01H
	DB	01H
	DB	01H
	DB	01H
	DB	01H
	DB	01H
	DB	01H
	DB	01H
	DB	01H
	DB	01H
	DB	01H
	DB	01H
	DB	01H
	DB	01H
	DB	01H
	DB	01H
	DB	01H
	DB	01H
	DB	01H
	DB	01H
	DB	01H
	DB	01H
	DB	01H
	DB	01H
	DB	01H
	DB	01H
	DB	01H
	DB	01H
	DB	01H
	DB	01H
	DB	01H
	DB	01H
	DB	01H
	DB	01H
	DB	01H
	DB	01H
	DB	01H
	DB	01H
	DB	01H
	DB	01H
	DB	01H
	DB	01H
	DB	01H
	DB	01H
	DB	01H
	DB	01H
	DB	01H
	DB	01H
	DB	01H
	DB	01H
	DB	01H
	DB	01H
	DB	01H
	DB	01H
	DB	01H
	DB	01H
	DB	01H
	DB	01H
	DB	013H
	DB	01H
	DB	01H
	DB	01H
	DB	01H
	DB	013H
	DB	01H
	DB	01H
	DB	013H
	DB	018H
	DB	018H
	DB	018H
	DB	02H
	DB	010H
	DB	01cH
	DB	010H
	DB	02H
	DB	010H
	DB	010H
	DB	02H
	DB	010H
	DB	010H
	DB	010H
	DB	02H
	DB	02dH
	DB	02dH
	DB	010H
	DB	010H
	DB	01cH
	DB	021H
	DB	02H
	DB	08H
	DB	0fH
	DB	03H
	DB	02H
	DB	02H
	DB	02H
	DB	010H
	DB	02dH
	DB	0cH
	DB	02H
	DB	02H
	DB	02H
	DB	02H
	DB	0b8H
	DB	08H
	DB	0cH
	DB	02dH
	DB	038H
	DB	038H
	DB	08H
	DB	03H
	DB	0fH
	DB	012H
	DB	011H
	DB	011H
	DB	01bH
	DB	0eH
	DB	0fH
	DB	012H
	DB	01bH
	DB	011H
	DB	02H
	DB	0cH
	DB	01bH
	DB	019H
	DB	01bH
	DB	016H
	DB	0aH
	DB	019H
	DB	09bH
	DB	04fH
	DB	0bH
	DB	0bH
	DB	041H
	DB	024H
	DB	02dH
	DB	0fH
	DB	05bH
	DB	019H
	DB	019H
	DB	016H
	DB	06H
	DB	020H
	DB	03bH
	DB	057H
	DB	022H
	DB	042H
	DB	026H
	DB	024H
	DB	05H
	DB	016H
	DB	049H
	DB	0fH
	DB	038H
	DB	01cH
	DB	010H
	DB	02H
	DB	02dH
	DB	038H
	DB	02H
	DB	038H
	DB	041H
	DB	0eH
	DB	0eH
	DB	016H
	DB	06H
	DB	049H
	DB	05H
	DB	041H
	DB	02H
	DB	02dH
	DB	02dH
	DB	01H
	DB	01H
	DB	01H
	DB	01H
	DB	01H
	DB	01H
	DB	01H
	DB	01H
	DB	01H
	DB	01H
	DB	01H
	DB	01H
	DB	01H
	DB	01H
	DB	01H
	DB	01H
	DB	01H
	DB	02dH
	DB	06H
	DB	039H
	DB	01H
	DB	01H
	DB	01H
	DB	01H
	DB	01H
	DB	01H
	DB	01H
	DB	01H
	DB	01H
	DB	01H
	DB	01H
	DB	01H
	DB	01H
	DB	01H
	DB	01H
	DB	01H
	DB	01H
	DB	01H
	DB	01H
	DB	01H
	DB	01H
	DB	01H
	DB	01H
	DB	01H
	DB	01H
	DB	01H
	DB	01H
	DB	01H
	DB	01H
	DB	01H
	DB	01H
	DB	01H
	DB	01H
	DB	01H
	DB	01H
	DB	01H
	DB	01H
	DB	01H
	DB	01H
	DB	01H
	DB	01H
	DB	01H
	DB	01H
	DB	01H
	DB	01H
	DB	01H
	DB	01H
	DB	01H
	DB	01H
	DB	01H
	DB	01H
	DB	01H
	DB	01H
	DB	01H
	DB	01H
	DB	01H
	DB	01H
	DB	01H
	DB	01H
	DB	01H
	DB	01H
	DB	01H
	DB	01H
	DB	01H
	DB	01H
	DB	01H
	DB	01H
	DB	01H
	DB	01H
	DB	01H
	DB	01H
	DB	01H
	DB	01H
	DB	01H
	DB	01H
	DB	01H
	DB	01H
	DB	013H
	DB	013H
	DB	013H
	DB	01H
	DB	01H
	DB	013H
	DB	01H
	DB	013H
	DB	018H
	DB	018H
	DB	01cH
	DB	013H
	DB	01H
	DB	013H
	DB	013H
	DB	010H
	DB	02H
	DB	02H
	DB	02H
	DB	02H
	DB	010H
	DB	010H
	DB	013H
	DB	02H
	DB	08H
	DB	02dH
	DB	02dH
	DB	010H
	DB	013H
	DB	010H
	DB	02H
	DB	038H
	DB	03H
	DB	0cH
	DB	02dH
	DB	02H
	DB	018H
	DB	010H
	DB	0cH
	DB	0cH
	DB	0cH
	DB	03H
	DB	03H
	DB	0fH
	DB	03H
	DB	05H
	DB	0eH
	DB	0cH
	DB	03H
	DB	039H
	DB	011H
	DB	011H
	DB	011H
	DB	01bH
	DB	0aH
	DB	036H
	DB	041H
	DB	039H
	DB	041H
	DB	012H
	DB	011H
	DB	011H
	DB	052H
	DB	0fH
	DB	011H
	DB	016H
	DB	0aH
	DB	02fH
	DB	05H
	DB	01bH
	DB	067H
	DB	09bH
	DB	04fH
	DB	0aH
	DB	019H
	DB	05H
	DB	0eH
	DB	019H
	DB	022H
	DB	022H
	DB	032H
	DB	067H
	DB	04fH
	DB	0e6H
	DB	03bH
	DB	032H
	DB	0bH
	DB	024H
	DB	02H
	DB	02H
	DB	03H
	DB	036H
	DB	036H
	DB	03H
	DB	038H
	DB	08H
	DB	08H
	DB	02H
	DB	01cH
	DB	02dH
	DB	024H
	DB	02H
	DB	02H
	DB	03H
	DB	012H
	DB	049H
	DB	05H
	DB	012H
	DB	01bH
	DB	022H
	DB	06H
	DB	012H
	DB	03H
	DB	01H
	DB	01H
	DB	01H
	DB	01H
	DB	01H
	DB	01H
	DB	01H
	DB	01H
	DB	01H
	DB	01H
	DB	01H
	DB	01H
	DB	01H
	DB	01H
	DB	01H
	DB	01H
	DB	01H
	DB	02dH
	DB	06H
	DB	039H
	DB	01H
	DB	01H
	DB	01H
	DB	01H
	DB	01H
	DB	01H
	DB	01H
	DB	01H
	DB	01H
	DB	01H
	DB	01H
	DB	01H
	DB	01H
	DB	01H
	DB	01H
	DB	01H
	DB	01H
	DB	01H
	DB	01H
	DB	01H
	DB	01H
	DB	01H
	DB	01H
	DB	01H
	DB	01H
	DB	01H
	DB	01H
	DB	01H
	DB	01H
	DB	01H
	DB	01H
	DB	01H
	DB	01H
	DB	01H
	DB	01H
	DB	01H
	DB	01H
	DB	01H
	DB	01H
	DB	01H
	DB	01H
	DB	01H
	DB	01H
	DB	01H
	DB	01H
	DB	01H
	DB	01H
	DB	01H
	DB	01H
	DB	01H
	DB	01H
	DB	01H
	DB	01H
	DB	01H
	DB	01H
	DB	01H
	DB	01H
	DB	01H
	DB	01H
	DB	01H
	DB	01H
	DB	01H
	DB	01H
	DB	01H
	DB	01H
	DB	01H
	DB	01H
	DB	01H
	DB	01H
	DB	01H
	DB	01H
	DB	01H
	DB	01H
	DB	01H
	DB	01H
	DB	01H
	DB	01H
	DB	013H
	DB	01H
	DB	01H
	DB	01H
	DB	01H
	DB	01H
	DB	01H
	DB	018H
	DB	018H
	DB	018H
	DB	02H
	DB	010H
	DB	010H
	DB	02H
	DB	010H
	DB	013H
	DB	02H
	DB	038H
	DB	0cH
	DB	08H
	DB	02H
	DB	010H
	DB	013H
	DB	02H
	DB	0cH
	DB	0cH
	DB	08H
	DB	0cH
	DB	010H
	DB	02H
	DB	08H
	DB	03H
	DB	03H
	DB	0fH
	DB	039H
	DB	03H
	DB	0cH
	DB	03H
	DB	03H
	DB	0cH
	DB	0cH
	DB	02dH
	DB	036H
	DB	0eH
	DB	02dH
	DB	039H
	DB	05H
	DB	0eH
	DB	0eH
	DB	049H
	DB	01bH
	DB	012H
	DB	012H
	DB	0bH
	DB	0aH
	DB	02dH
	DB	03H
	DB	03H
	DB	036H
	DB	012H
	DB	012H
	DB	012H
	DB	012H
	DB	0eH
	DB	03H
	DB	0eH
	DB	0aH
	DB	011H
	DB	05H
	DB	016H
	DB	01bH
	DB	05H
	DB	03H
	DB	041H
	DB	06H
	DB	06H
	DB	09bH
	DB	06H
	DB	06H
	DB	03cH
	DB	050H
	DB	034H
	DB	02dH
	DB	04fH
	DB	0e6H
	DB	0e6H
	DB	04fH
	DB	0cH
	DB	02dH
	DB	02H
	DB	02H
	DB	021H
	DB	021H
	DB	02H
	DB	02H
	DB	038H
	DB	038H
	DB	038H
	DB	038H
	DB	038H
	DB	02H
	DB	02H
	DB	08H
	DB	049H
	DB	032H
	DB	06H
	DB	05H
	DB	0eH
	DB	036H
	DB	079H
	DB	0e6H
	DB	06H
	DB	05H
	DB	01H
	DB	01H
	DB	01H
	DB	01H
	DB	01H
	DB	01H
	DB	01H
	DB	01H
	DB	01H
	DB	01H
	DB	01H
	DB	01H
	DB	01H
	DB	01H
	DB	01H
	DB	01H
	DB	01H
	DB	02dH
	DB	06H
	DB	039H
	DB	01H
	DB	01H
	DB	01H
	DB	01H
	DB	01H
	DB	01H
	DB	01H
	DB	01H
	DB	01H
	DB	01H
	DB	01H
	DB	01H
	DB	01H
	DB	01H
	DB	01H
	DB	01H
	DB	01H
	DB	01H
	DB	01H
	DB	01H
	DB	01H
	DB	01H
	DB	01H
	DB	01H
	DB	01H
	DB	01H
	DB	01H
	DB	01H
	DB	01H
	DB	01H
	DB	01H
	DB	01H
	DB	01H
	DB	01H
	DB	01H
	DB	01H
	DB	01H
	DB	01H
	DB	01H
	DB	01H
	DB	01H
	DB	01H
	DB	01H
	DB	01H
	DB	01H
	DB	01H
	DB	01H
	DB	01H
	DB	01H
	DB	01H
	DB	01H
	DB	01H
	DB	01H
	DB	01H
	DB	01H
	DB	01H
	DB	01H
	DB	01H
	DB	01H
	DB	01H
	DB	01H
	DB	01H
	DB	01H
	DB	01H
	DB	01H
	DB	01H
	DB	01H
	DB	01H
	DB	01H
	DB	01H
	DB	01H
	DB	01H
	DB	01H
	DB	01H
	DB	01H
	DB	01H
	DB	01H
	DB	018H
	DB	01H
	DB	01H
	DB	01H
	DB	01H
	DB	01H
	DB	01H
	DB	013H
	DB	013H
	DB	013H
	DB	02H
	DB	02H
	DB	02H
	DB	02H
	DB	013H
	DB	013H
	DB	018H
	DB	02H
	DB	02H
	DB	02H
	DB	08H
	DB	08H
	DB	08H
	DB	0cH
	DB	03H
	DB	02dH
	DB	02H
	DB	08H
	DB	03H
	DB	03H
	DB	03H
	DB	038H
	DB	038H
	DB	03H
	DB	03H
	DB	036H
	DB	036H
	DB	039H
	DB	0fH
	DB	052H
	DB	0cH
	DB	010H
	DB	0fH
	DB	011H
	DB	0eH
	DB	05H
	DB	0cH
	DB	0cH
	DB	03H
	DB	016H
	DB	067H
	DB	04fH
	DB	036H
	DB	041H
	DB	04fH
	DB	026H
	DB	02H
	DB	039H
	DB	012H
	DB	01bH
	DB	01bH
	DB	019H
	DB	022H
	DB	01bH
	DB	016H
	DB	012H
	DB	04fH
	DB	01bH
	DB	01bH
	DB	019H
	DB	05bH
	DB	052H
	DB	01eH
	DB	036H
	DB	05H
	DB	05H
	DB	05H
	DB	03cH
	DB	0aH
	DB	0eH
	DB	012H
	DB	016H
	DB	019H
	DB	06H
	DB	0bH
	DB	03H
	DB	02dH
	DB	0cH
	DB	038H
	DB	02dH
	DB	02dH
	DB	02H
	DB	02H
	DB	02H
	DB	038H
	DB	03H
	DB	038H
	DB	02dH
	DB	021H
	DB	03H
	DB	036H
	DB	03H
	DB	049H
	DB	01bH
	DB	06H
	DB	022H
	DB	012H
	DB	0fH
	DB	0fH
	DB	026H
	DB	026H
	DB	024H
	DB	02H
	DB	01H
	DB	01H
	DB	01H
	DB	01H
	DB	01H
	DB	01H
	DB	01H
	DB	01H
	DB	01H
	DB	01H
	DB	01H
	DB	01H
	DB	01H
	DB	01H
	DB	01H
	DB	01H
	DB	01H
	DB	02dH
	DB	06H
	DB	039H
	DB	01H
	DB	01H
	DB	01H
	DB	01H
	DB	01H
	DB	01H
	DB	01H
	DB	01H
	DB	01H
	DB	01H
	DB	01H
	DB	01H
	DB	01H
	DB	01H
	DB	01H
	DB	01H
	DB	01H
	DB	01H
	DB	01H
	DB	01H
	DB	01H
	DB	01H
	DB	01H
	DB	01H
	DB	01H
	DB	01H
	DB	01H
	DB	01H
	DB	01H
	DB	01H
	DB	01H
	DB	01H
	DB	01H
	DB	01H
	DB	01H
	DB	01H
	DB	01H
	DB	01H
	DB	01H
	DB	01H
	DB	01H
	DB	01H
	DB	01H
	DB	01H
	DB	01H
	DB	01H
	DB	01H
	DB	01H
	DB	01H
	DB	01H
	DB	01H
	DB	01H
	DB	01H
	DB	01H
	DB	01H
	DB	01H
	DB	01H
	DB	01H
	DB	01H
	DB	01H
	DB	01H
	DB	01H
	DB	01H
	DB	01H
	DB	01H
	DB	01H
	DB	01H
	DB	01H
	DB	01H
	DB	01H
	DB	01H
	DB	01H
	DB	01H
	DB	01H
	DB	01H
	DB	01H
	DB	01H
	DB	018H
	DB	013H
	DB	013H
	DB	013H
	DB	013H
	DB	027H
	DB	010H
	DB	010H
	DB	010H
	DB	010H
	DB	010H
	DB	01cH
	DB	010H
	DB	010H
	DB	01H
	DB	01H
	DB	010H
	DB	02H
	DB	018H
	DB	018H
	DB	02H
	DB	08H
	DB	0cH
	DB	08H
	DB	02dH
	DB	01cH
	DB	018H
	DB	027H
	DB	03H
	DB	03H
	DB	02dH
	DB	024H
	DB	03H
	DB	038H
	DB	03H
	DB	03H
	DB	02H
	DB	03H
	DB	0fH
	DB	0fH
	DB	03H
	DB	010H
	DB	0fH
	DB	0eH
	DB	0fH
	DB	011H
	DB	0eH
	DB	02H
	DB	02dH
	DB	0aH
	DB	0bH
	DB	01bH
	DB	011H
	DB	0eH
	DB	0aH
	DB	079H
	DB	012H
	DB	05H
	DB	041H
	DB	022H
	DB	019H
	DB	01bH
	DB	067H
	DB	022H
	DB	022H
	DB	022H
	DB	041H
	DB	034H
	DB	079H
	DB	011H
	DB	016H
	DB	012H
	DB	011H
	DB	0fH
	DB	03H
	DB	01cH
	DB	03H
	DB	016H
	DB	0bH
	DB	019H
	DB	032H
	DB	03bH
	DB	0e6H
	DB	06H
	DB	041H
	DB	01cH
	DB	018H
	DB	02H
	DB	0eH
	DB	0fH
	DB	011H
	DB	08H
	DB	01cH
	DB	038H
	DB	03H
	DB	03H
	DB	03H
	DB	0fH
	DB	0fH
	DB	03H
	DB	0aH
	DB	0aH
	DB	0aH
	DB	0e6H
	DB	03bH
	DB	016H
	DB	041H
	DB	011H
	DB	0fH
	DB	03H
	DB	038H
	DB	03H
	DB	03H
	DB	01H
	DB	01H
	DB	01H
	DB	01H
	DB	01H
	DB	01H
	DB	01H
	DB	01H
	DB	01H
	DB	01H
	DB	01H
	DB	01H
	DB	01H
	DB	01H
	DB	01H
	DB	01H
	DB	01H
	DB	02dH
	DB	06H
	DB	039H
	DB	01H
	DB	01H
	DB	01H
	DB	01H
	DB	01H
	DB	01H
	DB	01H
	DB	01H
	DB	01H
	DB	01H
	DB	01H
	DB	01H
	DB	01H
	DB	01H
	DB	01H
	DB	01H
	DB	01H
	DB	01H
	DB	01H
	DB	01H
	DB	01H
	DB	01H
	DB	01H
	DB	01H
	DB	01H
	DB	01H
	DB	01H
	DB	01H
	DB	01H
	DB	01H
	DB	01H
	DB	01H
	DB	01H
	DB	01H
	DB	01H
	DB	01H
	DB	01H
	DB	01H
	DB	01H
	DB	01H
	DB	01H
	DB	01H
	DB	01H
	DB	01H
	DB	01H
	DB	01H
	DB	01H
	DB	01H
	DB	01H
	DB	01H
	DB	01H
	DB	01H
	DB	01H
	DB	01H
	DB	01H
	DB	01H
	DB	01H
	DB	01H
	DB	01H
	DB	01H
	DB	01H
	DB	01H
	DB	01H
	DB	01H
	DB	01H
	DB	01H
	DB	01H
	DB	01H
	DB	01H
	DB	01H
	DB	01H
	DB	01H
	DB	01H
	DB	01H
	DB	01H
	DB	01H
	DB	01H
	DB	013H
	DB	01H
	DB	01H
	DB	013H
	DB	013H
	DB	013H
	DB	010H
	DB	010H
	DB	010H
	DB	010H
	DB	018H
	DB	013H
	DB	013H
	DB	01H
	DB	01H
	DB	018H
	DB	02H
	DB	02H
	DB	018H
	DB	01H
	DB	013H
	DB	08H
	DB	02H
	DB	010H
	DB	010H
	DB	02H
	DB	038H
	DB	02dH
	DB	038H
	DB	02dH
	DB	010H
	DB	02H
	DB	02dH
	DB	010H
	DB	03H
	DB	0fH
	DB	03H
	DB	03H
	DB	03H
	DB	039H
	DB	0fH
	DB	08H
	DB	02H
	DB	01cH
	DB	08H
	DB	011H
	DB	012H
	DB	039H
	DB	011H
	DB	041H
	DB	05H
	DB	0fH
	DB	03H
	DB	0cH
	DB	039H
	DB	041H
	DB	05H
	DB	03H
	DB	05H
	DB	012H
	DB	05H
	DB	036H
	DB	03cH
	DB	04fH
	DB	0aH
	DB	067H
	DB	0bH
	DB	0aH
	DB	034H
	DB	039H
	DB	036H
	DB	011H
	DB	019H
	DB	06H
	DB	06H
	DB	019H
	DB	03H
	DB	036H
	DB	079H
	DB	022H
	DB	067H
	DB	0bH
	DB	067H
	DB	04fH
	DB	036H
	DB	0cH
	DB	0fH
	DB	0eH
	DB	0cH
	DB	021H
	DB	02dH
	DB	02H
	DB	02H
	DB	0eH
	DB	03H
	DB	02H
	DB	036H
	DB	06H
	DB	03bH
	DB	05H
	DB	01cH
	DB	0fH
	DB	019H
	DB	03bH
	DB	044H
	DB	0aH
	DB	02H
	DB	038H
	DB	03H
	DB	03H
	DB	038H
	DB	03H
	DB	036H
	DB	01H
	DB	01H
	DB	01H
	DB	01H
	DB	01H
	DB	01H
	DB	01H
	DB	01H
	DB	01H
	DB	01H
	DB	01H
	DB	01H
	DB	01H
	DB	01H
	DB	01H
	DB	01H
	DB	01H
	DB	02dH
	DB	06H
	DB	039H
	DB	01H
	DB	01H
	DB	01H
	DB	01H
	DB	01H
	DB	01H
	DB	01H
	DB	01H
	DB	01H
	DB	01H
	DB	01H
	DB	01H
	DB	01H
	DB	01H
	DB	01H
	DB	01H
	DB	01H
	DB	01H
	DB	01H
	DB	01H
	DB	01H
	DB	01H
	DB	01H
	DB	01H
	DB	01H
	DB	01H
	DB	01H
	DB	01H
	DB	01H
	DB	01H
	DB	01H
	DB	01H
	DB	01H
	DB	01H
	DB	01H
	DB	01H
	DB	01H
	DB	01H
	DB	01H
	DB	01H
	DB	01H
	DB	01H
	DB	01H
	DB	01H
	DB	01H
	DB	01H
	DB	01H
	DB	01H
	DB	01H
	DB	01H
	DB	01H
	DB	01H
	DB	01H
	DB	01H
	DB	01H
	DB	01H
	DB	01H
	DB	01H
	DB	01H
	DB	01H
	DB	01H
	DB	01H
	DB	01H
	DB	01H
	DB	01H
	DB	01H
	DB	01H
	DB	01H
	DB	01H
	DB	01H
	DB	01H
	DB	01H
	DB	01H
	DB	01H
	DB	01H
	DB	01H
	DB	01H
	DB	01H
	DB	01H
	DB	013H
	DB	013H
	DB	013H
	DB	013H
	DB	010H
	DB	013H
	DB	013H
	DB	013H
	DB	013H
	DB	010H
	DB	013H
	DB	013H
	DB	013H
	DB	02H
	DB	01cH
	DB	013H
	DB	01H
	DB	01H
	DB	013H
	DB	0cH
	DB	02H
	DB	013H
	DB	02H
	DB	08H
	DB	08H
	DB	02dH
	DB	02H
	DB	0cH
	DB	03H
	DB	0eH
	DB	02H
	DB	013H
	DB	02H
	DB	02dH
	DB	02dH
	DB	02H
	DB	02H
	DB	026H
	DB	03H
	DB	0eH
	DB	08H
	DB	02H
	DB	049H
	DB	0aH
	DB	05H
	DB	011H
	DB	012H
	DB	011H
	DB	0cH
	DB	08H
	DB	02H
	DB	02H
	DB	0eH
	DB	05H
	DB	01cH
	DB	010H
	DB	0cH
	DB	011H
	DB	0eH
	DB	0eH
	DB	039H
	DB	024H
	DB	01cH
	DB	012H
	DB	019H
	DB	01bH
	DB	036H
	DB	038H
	DB	038H
	DB	039H
	DB	09bH
	DB	0e6H
	DB	03bH
	DB	03bH
	DB	022H
	DB	05bH
	DB	022H
	DB	019H
	DB	012H
	DB	019H
	DB	0bH
	DB	03H
	DB	021H
	DB	02dH
	DB	024H
	DB	02dH
	DB	02dH
	DB	0cH
	DB	02H
	DB	02H
	DB	0eH
	DB	0eH
	DB	02H
	DB	0cH
	DB	022H
	DB	022H
	DB	079H
	DB	026H
	DB	018H
	DB	0bH
	DB	020H
	DB	0e6H
	DB	067H
	DB	036H
	DB	02H
	DB	03H
	DB	012H
	DB	011H
	DB	038H
	DB	02H
	DB	02H
	DB	01H
	DB	01H
	DB	01H
	DB	01H
	DB	01H
	DB	01H
	DB	01H
	DB	01H
	DB	01H
	DB	01H
	DB	01H
	DB	01H
	DB	01H
	DB	01H
	DB	01H
	DB	01H
	DB	01H
	DB	02dH
	DB	06H
	DB	039H
	DB	01H
	DB	01H
	DB	01H
	DB	01H
	DB	01H
	DB	01H
	DB	01H
	DB	01H
	DB	01H
	DB	01H
	DB	01H
	DB	01H
	DB	01H
	DB	01H
	DB	01H
	DB	01H
	DB	01H
	DB	01H
	DB	01H
	DB	01H
	DB	01H
	DB	01H
	DB	01H
	DB	01H
	DB	01H
	DB	01H
	DB	01H
	DB	01H
	DB	01H
	DB	01H
	DB	01H
	DB	01H
	DB	01H
	DB	01H
	DB	01H
	DB	01H
	DB	01H
	DB	01H
	DB	01H
	DB	01H
	DB	01H
	DB	01H
	DB	01H
	DB	01H
	DB	01H
	DB	01H
	DB	01H
	DB	01H
	DB	01H
	DB	01H
	DB	01H
	DB	01H
	DB	01H
	DB	01H
	DB	01H
	DB	01H
	DB	01H
	DB	01H
	DB	01H
	DB	01H
	DB	01H
	DB	01H
	DB	01H
	DB	01H
	DB	01H
	DB	01H
	DB	01H
	DB	01H
	DB	01H
	DB	01H
	DB	01H
	DB	01H
	DB	01H
	DB	01H
	DB	01H
	DB	01H
	DB	01H
	DB	013H
	DB	013H
	DB	013H
	DB	013H
	DB	013H
	DB	010H
	DB	010H
	DB	013H
	DB	013H
	DB	013H
	DB	010H
	DB	010H
	DB	018H
	DB	018H
	DB	010H
	DB	02H
	DB	018H
	DB	01cH
	DB	013H
	DB	013H
	DB	013H
	DB	08H
	DB	02H
	DB	010H
	DB	02H
	DB	02H
	DB	02dH
	DB	02H
	DB	02H
	DB	0fH
	DB	0eH
	DB	0eH
	DB	0fH
	DB	0cH
	DB	038H
	DB	02H
	DB	0fH
	DB	0fH
	DB	038H
	DB	02dH
	DB	03H
	DB	0cH
	DB	027H
	DB	02H
	DB	03H
	DB	036H
	DB	0fH
	DB	0fH
	DB	052H
	DB	011H
	DB	0fH
	DB	02H
	DB	011H
	DB	016H
	DB	012H
	DB	012H
	DB	0eH
	DB	0cH
	DB	0eH
	DB	019H
	DB	016H
	DB	0eH
	DB	038H
	DB	0cH
	DB	012H
	DB	022H
	DB	011H
	DB	04fH
	DB	011H
	DB	03H
	DB	01bH
	DB	019H
	DB	06H
	DB	012H
	DB	016H
	DB	032H
	DB	03bH
	DB	022H
	DB	05H
	DB	041H
	DB	0aH
	DB	012H
	DB	016H
	DB	05H
	DB	03H
	DB	049H
	DB	0fH
	DB	021H
	DB	01cH
	DB	02H
	DB	02dH
	DB	08H
	DB	05H
	DB	03H
	DB	02H
	DB	024H
	DB	041H
	DB	036H
	DB	03H
	DB	038H
	DB	049H
	DB	01bH
	DB	0aH
	DB	079H
	DB	03H
	DB	03H
	DB	08H
	DB	038H
	DB	039H
	DB	03H
	DB	02H
	DB	01cH
	DB	02H
	DB	01H
	DB	01H
	DB	01H
	DB	01H
	DB	01H
	DB	01H
	DB	01H
	DB	01H
	DB	01H
	DB	01H
	DB	01H
	DB	01H
	DB	01H
	DB	01H
	DB	01H
	DB	01H
	DB	01H
	DB	02dH
	DB	06H
	DB	039H
	DB	01H
	DB	01H
	DB	01H
	DB	01H
	DB	01H
	DB	01H
	DB	01H
	DB	01H
	DB	01H
	DB	01H
	DB	01H
	DB	01H
	DB	01H
	DB	01H
	DB	01H
	DB	01H
	DB	01H
	DB	01H
	DB	01H
	DB	01H
	DB	01H
	DB	01H
	DB	01H
	DB	01H
	DB	01H
	DB	01H
	DB	01H
	DB	01H
	DB	01H
	DB	01H
	DB	01H
	DB	01H
	DB	01H
	DB	01H
	DB	01H
	DB	01H
	DB	01H
	DB	01H
	DB	01H
	DB	01H
	DB	01H
	DB	01H
	DB	01H
	DB	01H
	DB	01H
	DB	01H
	DB	01H
	DB	01H
	DB	01H
	DB	01H
	DB	01H
	DB	01H
	DB	01H
	DB	01H
	DB	01H
	DB	01H
	DB	01H
	DB	01H
	DB	01H
	DB	01H
	DB	01H
	DB	01H
	DB	01H
	DB	01H
	DB	01H
	DB	01H
	DB	01H
	DB	01H
	DB	01H
	DB	01H
	DB	01H
	DB	01H
	DB	01H
	DB	01H
	DB	013H
	DB	013H
	DB	01H
	DB	01H
	DB	018H
	DB	018H
	DB	010H
	DB	013H
	DB	010H
	DB	010H
	DB	013H
	DB	013H
	DB	013H
	DB	013H
	DB	010H
	DB	018H
	DB	027H
	DB	02H
	DB	02H
	DB	018H
	DB	010H
	DB	08H
	DB	02H
	DB	010H
	DB	02H
	DB	027H
	DB	01cH
	DB	02H
	DB	02H
	DB	02H
	DB	02dH
	DB	038H
	DB	03H
	DB	036H
	DB	0fH
	DB	0fH
	DB	0eH
	DB	03H
	DB	0cH
	DB	0fH
	DB	011H
	DB	0eH
	DB	0fH
	DB	0fH
	DB	0cH
	DB	0fH
	DB	011H
	DB	012H
	DB	05H
	DB	03H
	DB	02H
	DB	02H
	DB	012H
	DB	016H
	DB	05H
	DB	011H
	DB	016H
	DB	012H
	DB	01bH
	DB	019H
	DB	016H
	DB	012H
	DB	012H
	DB	0eH
	DB	052H
	DB	0eH
	DB	0eH
	DB	011H
	DB	016H
	DB	02dH
	DB	021H
	DB	041H
	DB	05H
	DB	0bH
	DB	067H
	DB	019H
	DB	012H
	DB	041H
	DB	0aH
	DB	04fH
	DB	05H
	DB	049H
	DB	05H
	DB	012H
	DB	0eH
	DB	0eH
	DB	0cH
	DB	05H
	DB	06H
	DB	09bH
	DB	024H
	DB	010H
	DB	08H
	DB	02H
	DB	01cH
	DB	03H
	DB	041H
	DB	012H
	DB	038H
	DB	018H
	DB	02H
	DB	036H
	DB	03H
	DB	0bH
	DB	057H
	DB	016H
	DB	09bH
	DB	079H
	DB	036H
	DB	0fH
	DB	011H
	DB	016H
	DB	01bH
	DB	011H
	DB	016H
	DB	0fH
	DB	01H
	DB	01H
	DB	01H
	DB	01H
	DB	01H
	DB	01H
	DB	01H
	DB	01H
	DB	01H
	DB	01H
	DB	01H
	DB	01H
	DB	01H
	DB	01H
	DB	01H
	DB	01H
	DB	01H
	DB	02dH
	DB	06H
	DB	039H
	DB	01H
	DB	01H
	DB	01H
	DB	01H
	DB	01H
	DB	01H
	DB	01H
	DB	01H
	DB	01H
	DB	01H
	DB	01H
	DB	01H
	DB	01H
	DB	01H
	DB	01H
	DB	01H
	DB	01H
	DB	01H
	DB	01H
	DB	01H
	DB	01H
	DB	01H
	DB	01H
	DB	01H
	DB	01H
	DB	01H
	DB	01H
	DB	01H
	DB	01H
	DB	01H
	DB	01H
	DB	01H
	DB	01H
	DB	01H
	DB	01H
	DB	01H
	DB	01H
	DB	01H
	DB	01H
	DB	01H
	DB	01H
	DB	01H
	DB	01H
	DB	01H
	DB	01H
	DB	01H
	DB	01H
	DB	01H
	DB	01H
	DB	01H
	DB	01H
	DB	01H
	DB	01H
	DB	01H
	DB	01H
	DB	01H
	DB	01H
	DB	01H
	DB	01H
	DB	01H
	DB	01H
	DB	01H
	DB	01H
	DB	01H
	DB	01H
	DB	01H
	DB	01H
	DB	01H
	DB	01H
	DB	01H
	DB	01H
	DB	01H
	DB	01H
	DB	013H
	DB	01H
	DB	013H
	DB	01H
	DB	01H
	DB	01H
	DB	013H
	DB	013H
	DB	013H
	DB	010H
	DB	010H
	DB	010H
	DB	010H
	DB	013H
	DB	018H
	DB	013H
	DB	02H
	DB	02H
	DB	02H
	DB	01cH
	DB	013H
	DB	010H
	DB	02H
	DB	013H
	DB	02H
	DB	0cH
	DB	08H
	DB	02H
	DB	02dH
	DB	02dH
	DB	02H
	DB	03H
	DB	036H
	DB	02dH
	DB	03H
	DB	02H
	DB	02H
	DB	036H
	DB	02H
	DB	02H
	DB	08H
	DB	0fH
	DB	0fH
	DB	03H
	DB	08H
	DB	02dH
	DB	0eH
	DB	012H
	DB	0aH
	DB	05H
	DB	02H
	DB	013H
	DB	0b8H
	DB	0cH
	DB	0cH
	DB	024H
	DB	0cH
	DB	084H
	DB	011H
	DB	041H
	DB	012H
	DB	0eH
	DB	052H
	DB	011H
	DB	011H
	DB	0eH
	DB	016H
	DB	012H
	DB	0eH
	DB	03H
	DB	05H
	DB	05H
	DB	036H
	DB	036H
	DB	02fH
	DB	038H
	DB	05H
	DB	019H
	DB	019H
	DB	052H
	DB	0eH
	DB	022H
	DB	0e6H
	DB	016H
	DB	019H
	DB	049H
	DB	039H
	DB	0fH
	DB	05H
	DB	0e6H
	DB	077H
	DB	024H
	DB	08H
	DB	03H
	DB	03H
	DB	021H
	DB	011H
	DB	03bH
	DB	022H
	DB	02dH
	DB	018H
	DB	02dH
	DB	038H
	DB	0fH
	DB	067H
	DB	03bH
	DB	032H
	DB	0aH
	DB	019H
	DB	012H
	DB	05H
	DB	0fH
	DB	0cH
	DB	03H
	DB	0aH
	DB	093H
	DB	016H
	DB	01H
	DB	01H
	DB	01H
	DB	01H
	DB	01H
	DB	01H
	DB	01H
	DB	01H
	DB	01H
	DB	01H
	DB	01H
	DB	01H
	DB	01H
	DB	01H
	DB	01H
	DB	01H
	DB	01H
	DB	02dH
	DB	06H
	DB	039H
	DB	01H
	DB	01H
	DB	01H
	DB	01H
	DB	01H
	DB	01H
	DB	01H
	DB	01H
	DB	01H
	DB	01H
	DB	01H
	DB	01H
	DB	01H
	DB	01H
	DB	01H
	DB	01H
	DB	01H
	DB	01H
	DB	01H
	DB	01H
	DB	01H
	DB	01H
	DB	01H
	DB	01H
	DB	01H
	DB	01H
	DB	01H
	DB	01H
	DB	01H
	DB	01H
	DB	01H
	DB	01H
	DB	01H
	DB	01H
	DB	01H
	DB	01H
	DB	01H
	DB	01H
	DB	01H
	DB	01H
	DB	01H
	DB	01H
	DB	01H
	DB	01H
	DB	01H
	DB	01H
	DB	01H
	DB	01H
	DB	01H
	DB	01H
	DB	01H
	DB	01H
	DB	01H
	DB	01H
	DB	01H
	DB	01H
	DB	01H
	DB	01H
	DB	01H
	DB	01H
	DB	01H
	DB	01H
	DB	01H
	DB	01H
	DB	01H
	DB	01H
	DB	01H
	DB	01H
	DB	01H
	DB	01H
	DB	01H
	DB	01H
	DB	01H
	DB	01H
	DB	013H
	DB	013H
	DB	018H
	DB	018H
	DB	013H
	DB	013H
	DB	013H
	DB	013H
	DB	013H
	DB	013H
	DB	013H
	DB	010H
	DB	013H
	DB	013H
	DB	010H
	DB	010H
	DB	02H
	DB	02H
	DB	013H
	DB	013H
	DB	08H
	DB	08H
	DB	02H
	DB	0cH
	DB	02dH
	DB	02H
	DB	01cH
	DB	02H
	DB	02H
	DB	02H
	DB	02dH
	DB	0fH
	DB	0fH
	DB	0fH
	DB	03H
	DB	024H
	DB	024H
	DB	02H
	DB	08H
	DB	0fH
	DB	03H
	DB	0cH
	DB	0cH
	DB	02H
	DB	08H
	DB	05H
	DB	0aH
	DB	05H
	DB	0cH
	DB	052H
	DB	0eH
	DB	011H
	DB	0fH
	DB	08H
	DB	0cH
	DB	0b8H
	DB	012H
	DB	016H
	DB	0eH
	DB	0eH
	DB	0eH
	DB	052H
	DB	03H
	DB	02H
	DB	02H
	DB	041H
	DB	0aH
	DB	012H
	DB	03H
	DB	02fH
	DB	042H
	DB	03H
	DB	05H
	DB	0aH
	DB	041H
	DB	05H
	DB	022H
	DB	057H
	DB	05bH
	DB	05bH
	DB	01bH
	DB	03cH
	DB	049H
	DB	079H
	DB	0aH
	DB	0aH
	DB	0eH
	DB	02H
	DB	034H
	DB	03cH
	DB	02dH
	DB	0eH
	DB	016H
	DB	0eH
	DB	03H
	DB	036H
	DB	06H
	DB	036H
	DB	02dH
	DB	012H
	DB	049H
	DB	03H
	DB	0aH
	DB	032H
	DB	020H
	DB	0e6H
	DB	0aH
	DB	016H
	DB	016H
	DB	03H
	DB	016H
	DB	012H
	DB	02H
	DB	02dH
	DB	024H
	DB	024H
	DB	01H
	DB	01H
	DB	01H
	DB	01H
	DB	01H
	DB	01H
	DB	01H
	DB	01H
	DB	01H
	DB	01H
	DB	01H
	DB	01H
	DB	01H
	DB	01H
	DB	01H
	DB	01H
	DB	01H
	DB	02dH
	DB	06H
	DB	039H
	DB	01H
	DB	01H
	DB	01H
	DB	01H
	DB	01H
	DB	01H
	DB	01H
	DB	01H
	DB	01H
	DB	01H
	DB	01H
	DB	01H
	DB	01H
	DB	01H
	DB	01H
	DB	01H
	DB	01H
	DB	01H
	DB	01H
	DB	01H
	DB	01H
	DB	01H
	DB	01H
	DB	01H
	DB	01H
	DB	01H
	DB	01H
	DB	01H
	DB	01H
	DB	01H
	DB	01H
	DB	01H
	DB	01H
	DB	01H
	DB	01H
	DB	01H
	DB	01H
	DB	01H
	DB	01H
	DB	01H
	DB	01H
	DB	01H
	DB	01H
	DB	01H
	DB	01H
	DB	01H
	DB	01H
	DB	01H
	DB	01H
	DB	01H
	DB	01H
	DB	01H
	DB	01H
	DB	01H
	DB	01H
	DB	01H
	DB	01H
	DB	01H
	DB	01H
	DB	01H
	DB	01H
	DB	01H
	DB	01H
	DB	01H
	DB	01H
	DB	01H
	DB	01H
	DB	01H
	DB	01H
	DB	01H
	DB	01H
	DB	01H
	DB	01H
	DB	01H
	DB	01H
	DB	01H
	DB	01H
	DB	013H
	DB	01H
	DB	01H
	DB	013H
	DB	013H
	DB	013H
	DB	013H
	DB	013H
	DB	010H
	DB	010H
	DB	010H
	DB	02H
	DB	027H
	DB	02H
	DB	010H
	DB	01H
	DB	013H
	DB	02H
	DB	02dH
	DB	02dH
	DB	02dH
	DB	02H
	DB	013H
	DB	013H
	DB	02H
	DB	02H
	DB	010H
	DB	02H
	DB	03H
	DB	036H
	DB	03H
	DB	02dH
	DB	02H
	DB	013H
	DB	02H
	DB	0cH
	DB	03H
	DB	03H
	DB	0fH
	DB	03H
	DB	0eH
	DB	05H
	DB	03H
	DB	03H
	DB	03H
	DB	03H
	DB	0fH
	DB	041H
	DB	012H
	DB	03H
	DB	02H
	DB	0eH
	DB	049H
	DB	0aH
	DB	012H
	DB	011H
	DB	011H
	DB	041H
	DB	05H
	DB	011H
	DB	016H
	DB	01bH
	DB	079H
	DB	034H
	DB	039H
	DB	041H
	DB	012H
	DB	01bH
	DB	06H
	DB	06H
	DB	022H
	DB	0aH
	DB	0cH
	DB	0eH
	DB	0fH
	DB	05H
	DB	05bH
	DB	011H
	DB	02H
	DB	08H
	DB	0eH
	DB	03H
	DB	024H
	DB	02H
	DB	052H
	DB	0fH
	DB	0cH
	DB	0fH
	DB	03H
	DB	036H
	DB	0eH
	DB	03H
	DB	02H
	DB	02H
	DB	02H
	DB	0fH
	DB	01bH
	DB	041H
	DB	03H
	DB	012H
	DB	019H
	DB	03bH
	DB	06H
	DB	09bH
	DB	05H
	DB	05H
	DB	0aH
	DB	022H
	DB	05H
	DB	02H
	DB	018H
	DB	01H
	DB	02H
	DB	01H
	DB	01H
	DB	01H
	DB	01H
	DB	01H
	DB	01H
	DB	01H
	DB	01H
	DB	01H
	DB	01H
	DB	01H
	DB	01H
	DB	01H
	DB	01H
	DB	01H
	DB	01H
	DB	01H
	DB	02dH
	DB	06H
	DB	039H
	DB	01H
	DB	01H
	DB	01H
	DB	01H
	DB	01H
	DB	01H
	DB	01H
	DB	01H
	DB	01H
	DB	01H
	DB	01H
	DB	01H
	DB	01H
	DB	01H
	DB	01H
	DB	01H
	DB	01H
	DB	01H
	DB	01H
	DB	01H
	DB	01H
	DB	01H
	DB	01H
	DB	01H
	DB	01H
	DB	01H
	DB	01H
	DB	01H
	DB	01H
	DB	01H
	DB	01H
	DB	01H
	DB	01H
	DB	01H
	DB	01H
	DB	01H
	DB	01H
	DB	01H
	DB	01H
	DB	01H
	DB	01H
	DB	01H
	DB	01H
	DB	01H
	DB	01H
	DB	01H
	DB	01H
	DB	01H
	DB	01H
	DB	01H
	DB	01H
	DB	01H
	DB	01H
	DB	01H
	DB	01H
	DB	01H
	DB	01H
	DB	01H
	DB	01H
	DB	01H
	DB	01H
	DB	01H
	DB	01H
	DB	01H
	DB	01H
	DB	01H
	DB	01H
	DB	01H
	DB	01H
	DB	01H
	DB	01H
	DB	01H
	DB	01H
	DB	01H
	DB	01H
	DB	01H
	DB	01H
	DB	01H
	DB	01H
	DB	01H
	DB	013H
	DB	013H
	DB	013H
	DB	018H
	DB	01cH
	DB	013H
	DB	013H
	DB	027H
	DB	02H
	DB	02H
	DB	02H
	DB	02H
	DB	010H
	DB	013H
	DB	027H
	DB	02H
	DB	02H
	DB	02H
	DB	08H
	DB	02H
	DB	010H
	DB	08H
	DB	02H
	DB	038H
	DB	03H
	DB	02H
	DB	02dH
	DB	02H
	DB	02H
	DB	038H
	DB	08H
	DB	0cH
	DB	03H
	DB	036H
	DB	036H
	DB	05H
	DB	02dH
	DB	03H
	DB	041H
	DB	0eH
	DB	03H
	DB	03H
	DB	05H
	DB	03H
	DB	024H
	DB	0fH
	DB	036H
	DB	03H
	DB	011H
	DB	01bH
	DB	0aH
	DB	011H
	DB	012H
	DB	039H
	DB	0aH
	DB	079H
	DB	067H
	DB	0bH
	DB	0bH
	DB	06H
	DB	053H
	DB	0bH
	DB	016H
	DB	01bH
	DB	016H
	DB	01bH
	DB	01bH
	DB	041H
	DB	0aH
	DB	011H
	DB	0eH
	DB	0fH
	DB	02H
	DB	0fH
	DB	012H
	DB	02H
	DB	08H
	DB	0cH
	DB	02dH
	DB	02dH
	DB	01cH
	DB	02H
	DB	02dH
	DB	02H
	DB	038H
	DB	01cH
	DB	02H
	DB	024H
	DB	02dH
	DB	027H
	DB	010H
	DB	02H
	DB	0cH
	DB	08H
	DB	02H
	DB	01bH
	DB	057H
	DB	019H
	DB	022H
	DB	01bH
	DB	05H
	DB	049H
	DB	019H
	DB	0bH
	DB	036H
	DB	0cH
	DB	02H
	DB	01cH
	DB	02H
	DB	02H
	DB	01H
	DB	01H
	DB	01H
	DB	01H
	DB	01H
	DB	01H
	DB	01H
	DB	01H
	DB	01H
	DB	01H
	DB	01H
	DB	01H
	DB	01H
	DB	01H
	DB	01H
	DB	01H
	DB	01H
	DB	02dH
	DB	06H
	DB	039H
	DB	01H
	DB	01H
	DB	01H
	DB	01H
	DB	01H
	DB	01H
	DB	01H
	DB	01H
	DB	01H
	DB	01H
	DB	01H
	DB	01H
	DB	01H
	DB	01H
	DB	01H
	DB	01H
	DB	01H
	DB	01H
	DB	01H
	DB	01H
	DB	01H
	DB	01H
	DB	01H
	DB	01H
	DB	01H
	DB	01H
	DB	01H
	DB	01H
	DB	01H
	DB	01H
	DB	01H
	DB	01H
	DB	01H
	DB	01H
	DB	01H
	DB	01H
	DB	01H
	DB	01H
	DB	01H
	DB	01H
	DB	01H
	DB	01H
	DB	01H
	DB	01H
	DB	01H
	DB	01H
	DB	01H
	DB	01H
	DB	01H
	DB	01H
	DB	01H
	DB	01H
	DB	01H
	DB	01H
	DB	01H
	DB	01H
	DB	01H
	DB	01H
	DB	01H
	DB	01H
	DB	01H
	DB	01H
	DB	01H
	DB	01H
	DB	01H
	DB	01H
	DB	01H
	DB	01H
	DB	01H
	DB	01H
	DB	01H
	DB	01H
	DB	01H
	DB	01H
	DB	01H
	DB	01H
	DB	01H
	DB	01H
	DB	01H
	DB	01H
	DB	013H
	DB	013H
	DB	027H
	DB	018H
	DB	01H
	DB	01H
	DB	01H
	DB	01H
	DB	018H
	DB	02H
	DB	02H
	DB	02H
	DB	02H
	DB	013H
	DB	08H
	DB	02H
	DB	010H
	DB	02H
	DB	010H
	DB	013H
	DB	02H
	DB	08H
	DB	010H
	DB	03H
	DB	036H
	DB	02dH
	DB	02H
	DB	013H
	DB	02H
	DB	036H
	DB	036H
	DB	011H
	DB	012H
	DB	05H
	DB	0fH
	DB	0eH
	DB	03H
	DB	036H
	DB	05H
	DB	041H
	DB	05H
	DB	039H
	DB	02fH
	DB	039H
	DB	038H
	DB	0eH
	DB	05H
	DB	03H
	DB	02dH
	DB	02dH
	DB	0eH
	DB	05H
	DB	0eH
	DB	02H
	DB	0fH
	DB	024H
	DB	024H
	DB	041H
	DB	03H
	DB	024H
	DB	026H
	DB	041H
	DB	016H
	DB	012H
	DB	01bH
	DB	022H
	DB	01bH
	DB	012H
	DB	022H
	DB	019H
	DB	041H
	DB	049H
	DB	041H
	DB	022H
	DB	019H
	DB	03H
	DB	027H
	DB	039H
	DB	049H
	DB	05H
	DB	010H
	DB	01H
	DB	018H
	DB	010H
	DB	03H
	DB	039H
	DB	02H
	DB	018H
	DB	018H
	DB	021H
	DB	02fH
	DB	036H
	DB	038H
	DB	018H
	DB	02H
	DB	067H
	DB	01bH
	DB	011H
	DB	022H
	DB	041H
	DB	02H
	DB	02fH
	DB	0eH
	DB	041H
	DB	05H
	DB	016H
	DB	0eH
	DB	01cH
	DB	02fH
	DB	049H
	DB	01H
	DB	01H
	DB	01H
	DB	01H
	DB	01H
	DB	01H
	DB	01H
	DB	01H
	DB	01H
	DB	01H
	DB	01H
	DB	01H
	DB	01H
	DB	01H
	DB	01H
	DB	01H
	DB	01H
	DB	02dH
	DB	06H
	DB	039H
	DB	01H
	DB	01H
	DB	01H
	DB	01H
	DB	01H
	DB	01H
	DB	01H
	DB	01H
	DB	01H
	DB	01H
	DB	01H
	DB	01H
	DB	01H
	DB	01H
	DB	01H
	DB	01H
	DB	01H
	DB	01H
	DB	01H
	DB	01H
	DB	01H
	DB	01H
	DB	01H
	DB	01H
	DB	01H
	DB	01H
	DB	01H
	DB	01H
	DB	01H
	DB	01H
	DB	01H
	DB	01H
	DB	01H
	DB	01H
	DB	01H
	DB	01H
	DB	01H
	DB	01H
	DB	01H
	DB	01H
	DB	01H
	DB	01H
	DB	01H
	DB	01H
	DB	01H
	DB	01H
	DB	01H
	DB	01H
	DB	01H
	DB	01H
	DB	01H
	DB	01H
	DB	01H
	DB	01H
	DB	01H
	DB	01H
	DB	01H
	DB	01H
	DB	01H
	DB	01H
	DB	01H
	DB	01H
	DB	01H
	DB	01H
	DB	01H
	DB	01H
	DB	01H
	DB	01H
	DB	01H
	DB	01H
	DB	01H
	DB	01H
	DB	01H
	DB	01H
	DB	01H
	DB	01H
	DB	01H
	DB	01H
	DB	01H
	DB	01H
	DB	018H
	DB	018H
	DB	027H
	DB	01cH
	DB	018H
	DB	018H
	DB	013H
	DB	013H
	DB	02H
	DB	038H
	DB	02dH
	DB	02dH
	DB	02H
	DB	01cH
	DB	01cH
	DB	018H
	DB	018H
	DB	01cH
	DB	02H
	DB	02dH
	DB	08H
	DB	08H
	DB	010H
	DB	02H
	DB	02H
	DB	02H
	DB	013H
	DB	018H
	DB	02H
	DB	02H
	DB	02H
	DB	0eH
	DB	05H
	DB	03H
	DB	03H
	DB	05H
	DB	05H
	DB	0fH
	DB	03H
	DB	05H
	DB	079H
	DB	03cH
	DB	01cH
	DB	02fH
	DB	041H
	DB	012H
	DB	041H
	DB	03H
	DB	0fH
	DB	02H
	DB	01cH
	DB	01cH
	DB	021H
	DB	05H
	DB	012H
	DB	011H
	DB	0eH
	DB	012H
	DB	012H
	DB	0eH
	DB	08H
	DB	03H
	DB	012H
	DB	01bH
	DB	022H
	DB	022H
	DB	01bH
	DB	012H
	DB	0eH
	DB	08H
	DB	0bH
	DB	0bH
	DB	041H
	DB	022H
	DB	041H
	DB	039H
	DB	024H
	DB	0aH
	DB	03H
	DB	02H
	DB	02H
	DB	02H
	DB	02H
	DB	02H
	DB	049H
	DB	0bH
	DB	036H
	DB	02H
	DB	02H
	DB	01cH
	DB	01cH
	DB	02fH
	DB	016H
	DB	02H
	DB	0fH
	DB	01bH
	DB	019H
	DB	05bH
	DB	0eH
	DB	02H
	DB	02H
	DB	018H
	DB	02H
	DB	011H
	DB	016H
	DB	036H
	DB	02H
	DB	08H
	DB	036H
	DB	01bH
	DB	01H
	DB	01H
	DB	01H
	DB	01H
	DB	01H
	DB	01H
	DB	01H
	DB	01H
	DB	01H
	DB	01H
	DB	01H
	DB	01H
	DB	01H
	DB	01H
	DB	01H
	DB	01H
	DB	01H
	DB	02dH
	DB	06H
	DB	039H
	DB	01H
	DB	01H
	DB	01H
	DB	01H
	DB	01H
	DB	01H
	DB	01H
	DB	01H
	DB	01H
	DB	01H
	DB	01H
	DB	01H
	DB	01H
	DB	01H
	DB	01H
	DB	01H
	DB	01H
	DB	01H
	DB	01H
	DB	01H
	DB	01H
	DB	01H
	DB	01H
	DB	01H
	DB	01H
	DB	01H
	DB	01H
	DB	01H
	DB	01H
	DB	01H
	DB	01H
	DB	01H
	DB	01H
	DB	01H
	DB	01H
	DB	01H
	DB	01H
	DB	01H
	DB	01H
	DB	01H
	DB	01H
	DB	01H
	DB	01H
	DB	01H
	DB	01H
	DB	01H
	DB	01H
	DB	01H
	DB	01H
	DB	01H
	DB	01H
	DB	01H
	DB	01H
	DB	01H
	DB	01H
	DB	01H
	DB	01H
	DB	01H
	DB	01H
	DB	01H
	DB	01H
	DB	01H
	DB	01H
	DB	01H
	DB	01H
	DB	01H
	DB	01H
	DB	01H
	DB	01H
	DB	01H
	DB	01H
	DB	01H
	DB	01H
	DB	01H
	DB	01H
	DB	01H
	DB	01H
	DB	01H
	DB	013H
	DB	013H
	DB	013H
	DB	013H
	DB	02H
	DB	02H
	DB	02H
	DB	02H
	DB	02H
	DB	02H
	DB	02H
	DB	02dH
	DB	02H
	DB	02dH
	DB	08H
	DB	02H
	DB	02H
	DB	013H
	DB	013H
	DB	013H
	DB	02H
	DB	02dH
	DB	02H
	DB	02H
	DB	02H
	DB	018H
	DB	018H
	DB	018H
	DB	013H
	DB	010H
	DB	038H
	DB	0cH
	DB	08H
	DB	03H
	DB	0eH
	DB	0fH
	DB	03H
	DB	039H
	DB	05H
	DB	05H
	DB	0fH
	DB	0fH
	DB	039H
	DB	02fH
	DB	03H
	DB	05H
	DB	0aH
	DB	0aH
	DB	041H
	DB	03H
	DB	0fH
	DB	0eH
	DB	02H
	DB	039H
	DB	0aH
	DB	019H
	DB	019H
	DB	016H
	DB	01bH
	DB	0aH
	DB	012H
	DB	05H
	DB	0cH
	DB	05H
	DB	0eH
	DB	012H
	DB	01bH
	DB	022H
	DB	04fH
	DB	0aH
	DB	0aH
	DB	04fH
	DB	032H
	DB	067H
	DB	03H
	DB	024H
	DB	03H
	DB	06H
	DB	0aH
	DB	021H
	DB	016H
	DB	08H
	DB	02H
	DB	01cH
	DB	01cH
	DB	021H
	DB	02dH
	DB	01cH
	DB	01cH
	DB	02H
	DB	02H
	DB	02H
	DB	038H
	DB	0cH
	DB	038H
	DB	02dH
	DB	019H
	DB	057H
	DB	057H
	DB	016H
	DB	02H
	DB	011H
	DB	019H
	DB	0fH
	DB	01bH
	DB	01bH
	DB	019H
	DB	039H
	DB	01cH
	DB	012H
	DB	022H
	DB	011H
	DB	01H
	DB	01H
	DB	01H
	DB	01H
	DB	01H
	DB	01H
	DB	01H
	DB	01H
	DB	01H
	DB	01H
	DB	01H
	DB	01H
	DB	01H
	DB	01H
	DB	01H
	DB	01H
	DB	01H
	DB	02dH
	DB	06H
	DB	039H
	DB	01H
	DB	01H
	DB	01H
	DB	01H
	DB	01H
	DB	01H
	DB	01H
	DB	01H
	DB	01H
	DB	01H
	DB	01H
	DB	01H
	DB	01H
	DB	01H
	DB	01H
	DB	01H
	DB	01H
	DB	01H
	DB	01H
	DB	01H
	DB	01H
	DB	01H
	DB	01H
	DB	01H
	DB	01H
	DB	01H
	DB	01H
	DB	01H
	DB	01H
	DB	01H
	DB	01H
	DB	01H
	DB	01H
	DB	01H
	DB	01H
	DB	01H
	DB	01H
	DB	01H
	DB	01H
	DB	01H
	DB	01H
	DB	01H
	DB	01H
	DB	01H
	DB	01H
	DB	01H
	DB	01H
	DB	01H
	DB	01H
	DB	01H
	DB	01H
	DB	01H
	DB	01H
	DB	01H
	DB	01H
	DB	01H
	DB	01H
	DB	01H
	DB	01H
	DB	01H
	DB	01H
	DB	01H
	DB	01H
	DB	01H
	DB	01H
	DB	01H
	DB	01H
	DB	01H
	DB	01H
	DB	01H
	DB	01H
	DB	01H
	DB	01H
	DB	01H
	DB	01H
	DB	01H
	DB	01H
	DB	01H
	DB	01H
	DB	01H
	DB	01H
	DB	018H
	DB	010H
	DB	02H
	DB	02H
	DB	02H
	DB	02H
	DB	02H
	DB	018H
	DB	02H
	DB	02dH
	DB	02H
	DB	01cH
	DB	01cH
	DB	02H
	DB	08H
	DB	02H
	DB	08H
	DB	02H
	DB	02H
	DB	02H
	DB	02H
	DB	02H
	DB	018H
	DB	018H
	DB	01H
	DB	02H
	DB	0cH
	DB	08H
	DB	0cH
	DB	08H
	DB	03H
	DB	0eH
	DB	011H
	DB	0eH
	DB	0fH
	DB	02dH
	DB	0fH
	DB	011H
	DB	052H
	DB	0fH
	DB	011H
	DB	012H
	DB	0aH
	DB	012H
	DB	05H
	DB	02dH
	DB	038H
	DB	0aH
	DB	079H
	DB	05H
	DB	0bH
	DB	0aH
	DB	012H
	DB	01bH
	DB	0aH
	DB	042H
	DB	03cH
	DB	049H
	DB	03H
	DB	02H
	DB	03H
	DB	0eH
	DB	03H
	DB	036H
	DB	05H
	DB	016H
	DB	022H
	DB	022H
	DB	0bH
	DB	067H
	DB	0aH
	DB	038H
	DB	02H
	DB	0fH
	DB	0aH
	DB	02fH
	DB	026H
	DB	0bH
	DB	049H
	DB	01cH
	DB	018H
	DB	02H
	DB	02H
	DB	02H
	DB	08H
	DB	049H
	DB	016H
	DB	02H
	DB	03H
	DB	012H
	DB	022H
	DB	0aH
	DB	038H
	DB	016H
	DB	057H
	DB	022H
	DB	0fH
	DB	021H
	DB	0eH
	DB	016H
	DB	067H
	DB	079H
	DB	01cH
	DB	01cH
	DB	03H
	DB	039H
	DB	05H
	DB	06H
	DB	012H
	DB	01H
	DB	01H
	DB	01H
	DB	01H
	DB	01H
	DB	01H
	DB	01H
	DB	01H
	DB	01H
	DB	01H
	DB	01H
	DB	01H
	DB	01H
	DB	01H
	DB	01H
	DB	01H
	DB	01H
	DB	02dH
	DB	06H
	DB	039H
	DB	01H
	DB	01H
	DB	01H
	DB	01H
	DB	01H
	DB	01H
	DB	01H
	DB	01H
	DB	01H
	DB	01H
	DB	01H
	DB	01H
	DB	01H
	DB	01H
	DB	01H
	DB	01H
	DB	01H
	DB	01H
	DB	01H
	DB	01H
	DB	01H
	DB	01H
	DB	01H
	DB	01H
	DB	01H
	DB	01H
	DB	01H
	DB	01H
	DB	01H
	DB	01H
	DB	01H
	DB	01H
	DB	01H
	DB	01H
	DB	01H
	DB	01H
	DB	01H
	DB	01H
	DB	01H
	DB	01H
	DB	01H
	DB	01H
	DB	01H
	DB	01H
	DB	01H
	DB	01H
	DB	01H
	DB	01H
	DB	01H
	DB	01H
	DB	01H
	DB	01H
	DB	01H
	DB	01H
	DB	01H
	DB	01H
	DB	01H
	DB	01H
	DB	01H
	DB	01H
	DB	01H
	DB	01H
	DB	01H
	DB	01H
	DB	01H
	DB	01H
	DB	01H
	DB	01H
	DB	01H
	DB	01H
	DB	01H
	DB	01H
	DB	01H
	DB	01H
	DB	01H
	DB	01H
	DB	01H
	DB	018H
	DB	018H
	DB	027H
	DB	018H
	DB	018H
	DB	018H
	DB	018H
	DB	018H
	DB	01cH
	DB	018H
	DB	018H
	DB	018H
	DB	018H
	DB	018H
	DB	013H
	DB	018H
	DB	027H
	DB	02H
	DB	02H
	DB	013H
	DB	02H
	DB	0cH
	DB	02dH
	DB	013H
	DB	01H
	DB	018H
	DB	018H
	DB	01H
	DB	013H
	DB	010H
	DB	08H
	DB	03H
	DB	02H
	DB	010H
	DB	0cH
	DB	03H
	DB	052H
	DB	052H
	DB	03H
	DB	03H
	DB	0fH
	DB	012H
	DB	0eH
	DB	0eH
	DB	05H
	DB	05H
	DB	05H
	DB	0eH
	DB	036H
	DB	02H
	DB	03H
	DB	079H
	DB	022H
	DB	0bH
	DB	067H
	DB	01bH
	DB	012H
	DB	041H
	DB	024H
	DB	01cH
	DB	018H
	DB	05H
	DB	016H
	DB	012H
	DB	011H
	DB	011H
	DB	011H
	DB	052H
	DB	03H
	DB	022H
	DB	032H
	DB	032H
	DB	0aH
	DB	02dH
	DB	01cH
	DB	02H
	DB	08H
	DB	0cH
	DB	02H
	DB	02H
	DB	03H
	DB	0aH
	DB	079H
	DB	02H
	DB	02H
	DB	02dH
	DB	038H
	DB	049H
	DB	09bH
	DB	041H
	DB	03H
	DB	038H
	DB	021H
	DB	01cH
	DB	02H
	DB	03H
	DB	038H
	DB	05H
	DB	011H
	DB	036H
	DB	02dH
	DB	038H
	DB	02H
	DB	02H
	DB	026H
	DB	026H
	DB	038H
	DB	016H
	DB	0aH
	DB	03H
	DB	03cH
	DB	077H
	DB	041H
	DB	01H
	DB	01H
	DB	01H
	DB	01H
	DB	01H
	DB	01H
	DB	01H
	DB	01H
	DB	01H
	DB	01H
	DB	01H
	DB	01H
	DB	01H
	DB	01H
	DB	01H
	DB	01H
	DB	01H
	DB	02dH
	DB	06H
	DB	039H
	DB	01H
	DB	01H
	DB	01H
	DB	01H
	DB	01H
	DB	01H
	DB	01H
	DB	01H
	DB	01H
	DB	01H
	DB	01H
	DB	01H
	DB	01H
	DB	01H
	DB	01H
	DB	01H
	DB	01H
	DB	01H
	DB	01H
	DB	01H
	DB	01H
	DB	01H
	DB	01H
	DB	01H
	DB	01H
	DB	01H
	DB	01H
	DB	01H
	DB	01H
	DB	01H
	DB	01H
	DB	01H
	DB	01H
	DB	01H
	DB	01H
	DB	01H
	DB	01H
	DB	01H
	DB	01H
	DB	01H
	DB	01H
	DB	01H
	DB	01H
	DB	01H
	DB	01H
	DB	01H
	DB	01H
	DB	01H
	DB	01H
	DB	01H
	DB	01H
	DB	01H
	DB	01H
	DB	01H
	DB	01H
	DB	01H
	DB	01H
	DB	01H
	DB	01H
	DB	01H
	DB	01H
	DB	01H
	DB	01H
	DB	01H
	DB	01H
	DB	01H
	DB	01H
	DB	01H
	DB	01H
	DB	01H
	DB	01H
	DB	01H
	DB	01H
	DB	01H
	DB	01H
	DB	01H
	DB	01H
	DB	018H
	DB	013H
	DB	010H
	DB	027H
	DB	010H
	DB	018H
	DB	013H
	DB	01H
	DB	01H
	DB	013H
	DB	01cH
	DB	010H
	DB	018H
	DB	018H
	DB	010H
	DB	02dH
	DB	02dH
	DB	02H
	DB	013H
	DB	018H
	DB	027H
	DB	038H
	DB	038H
	DB	010H
	DB	013H
	DB	013H
	DB	013H
	DB	010H
	DB	02H
	DB	018H
	DB	08H
	DB	03H
	DB	01cH
	DB	01H
	DB	08H
	DB	02H
	DB	010H
	DB	02H
	DB	02dH
	DB	05H
	DB	036H
	DB	0fH
	DB	05H
	DB	0aH
	DB	049H
	DB	05H
	DB	02H
	DB	039H
	DB	026H
	DB	02H
	DB	0fH
	DB	05H
	DB	041H
	DB	0eH
	DB	039H
	DB	036H
	DB	02dH
	DB	036H
	DB	026H
	DB	0fH
	DB	038H
	DB	08H
	DB	0bH
	DB	022H
	DB	022H
	DB	01bH
	DB	08H
	DB	08H
	DB	016H
	DB	019H
	DB	06H
	DB	06H
	DB	02fH
	DB	018H
	DB	018H
	DB	0bH
	DB	053H
	DB	0bH
	DB	03H
	DB	018H
	DB	01cH
	DB	02H
	DB	024H
	DB	02H
	DB	02H
	DB	02H
	DB	039H
	DB	06H
	DB	0bH
	DB	02H
	DB	038H
	DB	036H
	DB	03H
	DB	01cH
	DB	018H
	DB	01cH
	DB	01cH
	DB	02H
	DB	0cH
	DB	0fH
	DB	08H
	DB	052H
	DB	02H
	DB	011H
	DB	01bH
	DB	0fH
	DB	0eH
	DB	016H
	DB	05H
	DB	0fH
	DB	016H
	DB	026H
	DB	02dH
	DB	01H
	DB	01H
	DB	01H
	DB	01H
	DB	01H
	DB	01H
	DB	01H
	DB	01H
	DB	01H
	DB	01H
	DB	01H
	DB	01H
	DB	01H
	DB	01H
	DB	01H
	DB	01H
	DB	01H
	DB	02dH
	DB	06H
	DB	039H
	DB	01H
	DB	01H
	DB	01H
	DB	01H
	DB	01H
	DB	01H
	DB	01H
	DB	01H
	DB	01H
	DB	01H
	DB	01H
	DB	01H
	DB	01H
	DB	01H
	DB	01H
	DB	01H
	DB	01H
	DB	01H
	DB	01H
	DB	01H
	DB	01H
	DB	01H
	DB	01H
	DB	01H
	DB	01H
	DB	01H
	DB	01H
	DB	01H
	DB	01H
	DB	01H
	DB	01H
	DB	01H
	DB	01H
	DB	01H
	DB	01H
	DB	01H
	DB	01H
	DB	01H
	DB	01H
	DB	01H
	DB	01H
	DB	01H
	DB	01H
	DB	01H
	DB	01H
	DB	01H
	DB	01H
	DB	01H
	DB	01H
	DB	01H
	DB	01H
	DB	01H
	DB	01H
	DB	01H
	DB	01H
	DB	01H
	DB	01H
	DB	01H
	DB	01H
	DB	01H
	DB	01H
	DB	01H
	DB	01H
	DB	01H
	DB	01H
	DB	01H
	DB	01H
	DB	01H
	DB	01H
	DB	01H
	DB	01H
	DB	01H
	DB	01H
	DB	01H
	DB	018H
	DB	01H
	DB	013H
	DB	013H
	DB	01H
	DB	01H
	DB	013H
	DB	02H
	DB	010H
	DB	01cH
	DB	01H
	DB	013H
	DB	01H
	DB	01H
	DB	01cH
	DB	08H
	DB	02H
	DB	010H
	DB	038H
	DB	038H
	DB	02H
	DB	01H
	DB	018H
	DB	02H
	DB	02H
	DB	018H
	DB	01H
	DB	02dH
	DB	02H
	DB	010H
	DB	02H
	DB	08H
	DB	02H
	DB	010H
	DB	02H
	DB	02dH
	DB	013H
	DB	02H
	DB	02H
	DB	018H
	DB	027H
	DB	0fH
	DB	03H
	DB	02H
	DB	03H
	DB	05H
	DB	0aH
	DB	0bH
	DB	02fH
	DB	026H
	DB	0aH
	DB	0aH
	DB	0fH
	DB	08H
	DB	08H
	DB	03H
	DB	038H
	DB	021H
	DB	026H
	DB	03H
	DB	038H
	DB	0aH
	DB	067H
	DB	0aH
	DB	0aH
	DB	06H
	DB	06H
	DB	067H
	DB	022H
	DB	049H
	DB	041H
	DB	05H
	DB	016H
	DB	022H
	DB	04fH
	DB	02H
	DB	018H
	DB	02H
	DB	02fH
	DB	026H
	DB	03cH
	DB	024H
	DB	018H
	DB	0fH
	DB	03H
	DB	0cH
	DB	03H
	DB	01cH
	DB	027H
	DB	02H
	DB	03H
	DB	0aH
	DB	0aH
	DB	024H
	DB	02H
	DB	021H
	DB	039H
	DB	05H
	DB	036H
	DB	05H
	DB	011H
	DB	038H
	DB	036H
	DB	032H
	DB	03bH
	DB	016H
	DB	012H
	DB	022H
	DB	022H
	DB	03bH
	DB	079H
	DB	026H
	DB	041H
	DB	0aH
	DB	05H
	DB	02dH
	DB	01H
	DB	01H
	DB	01H
	DB	01H
	DB	01H
	DB	01H
	DB	01H
	DB	01H
	DB	01H
	DB	01H
	DB	01H
	DB	01H
	DB	01H
	DB	01H
	DB	01H
	DB	01H
	DB	01H
	DB	02dH
	DB	06H
	DB	039H
	DB	01H
	DB	01H
	DB	01H
	DB	01H
	DB	01H
	DB	01H
	DB	01H
	DB	01H
	DB	01H
	DB	01H
	DB	01H
	DB	01H
	DB	01H
	DB	01H
	DB	01H
	DB	01H
	DB	01H
	DB	01H
	DB	01H
	DB	01H
	DB	01H
	DB	01H
	DB	01H
	DB	01H
	DB	01H
	DB	01H
	DB	01H
	DB	01H
	DB	01H
	DB	01H
	DB	01H
	DB	01H
	DB	01H
	DB	01H
	DB	01H
	DB	01H
	DB	01H
	DB	01H
	DB	01H
	DB	01H
	DB	01H
	DB	01H
	DB	01H
	DB	01H
	DB	01H
	DB	01H
	DB	01H
	DB	01H
	DB	01H
	DB	01H
	DB	01H
	DB	01H
	DB	01H
	DB	01H
	DB	01H
	DB	01H
	DB	01H
	DB	01H
	DB	01H
	DB	01H
	DB	01H
	DB	01H
	DB	01H
	DB	01H
	DB	01H
	DB	01H
	DB	01H
	DB	01H
	DB	01H
	DB	01H
	DB	01H
	DB	013H
	DB	01H
	DB	01H
	DB	01H
	DB	018H
	DB	013H
	DB	01H
	DB	013H
	DB	013H
	DB	013H
	DB	010H
	DB	013H
	DB	01H
	DB	013H
	DB	01H
	DB	01H
	DB	01H
	DB	013H
	DB	010H
	DB	02H
	DB	010H
	DB	02H
	DB	02H
	DB	02H
	DB	010H
	DB	013H
	DB	013H
	DB	010H
	DB	02H
	DB	02dH
	DB	021H
	DB	018H
	DB	027H
	DB	02H
	DB	03H
	DB	01cH
	DB	018H
	DB	018H
	DB	02H
	DB	02H
	DB	013H
	DB	013H
	DB	010H
	DB	03H
	DB	0eH
	DB	036H
	DB	03H
	DB	03H
	DB	0cH
	DB	02H
	DB	024H
	DB	02H
	DB	05H
	DB	079H
	DB	041H
	DB	0eH
	DB	0cH
	DB	052H
	DB	012H
	DB	05H
	DB	03H
	DB	03H
	DB	021H
	DB	011H
	DB	067H
	DB	02fH
	DB	05H
	DB	019H
	DB	0e6H
	DB	0e6H
	DB	012H
	DB	0eH
	DB	011H
	DB	016H
	DB	041H
	DB	012H
	DB	03H
	DB	02H
	DB	02H
	DB	02H
	DB	02H
	DB	01cH
	DB	01cH
	DB	02H
	DB	02H
	DB	01cH
	DB	024H
	DB	03H
	DB	05H
	DB	039H
	DB	013H
	DB	010H
	DB	02H
	DB	0eH
	DB	019H
	DB	024H
	DB	02H
	DB	02H
	DB	039H
	DB	0bH
	DB	022H
	DB	06H
	DB	0a6H
	DB	020H
	DB	06H
	DB	0bH
	DB	0e6H
	DB	0e6H
	DB	06H
	DB	05H
	DB	036H
	DB	05H
	DB	034H
	DB	03cH
	DB	034H
	DB	024H
	DB	03H
	DB	021H
	DB	02dH
	DB	01H
	DB	01H
	DB	01H
	DB	01H
	DB	01H
	DB	01H
	DB	01H
	DB	01H
	DB	01H
	DB	01H
	DB	01H
	DB	01H
	DB	01H
	DB	01H
	DB	01H
	DB	01H
	DB	01H
	DB	02dH
	DB	06H
	DB	039H
	DB	01H
	DB	01H
	DB	01H
	DB	01H
	DB	01H
	DB	01H
	DB	01H
	DB	01H
	DB	01H
	DB	01H
	DB	01H
	DB	01H
	DB	01H
	DB	01H
	DB	01H
	DB	01H
	DB	01H
	DB	01H
	DB	01H
	DB	01H
	DB	01H
	DB	01H
	DB	01H
	DB	01H
	DB	01H
	DB	01H
	DB	01H
	DB	01H
	DB	01H
	DB	01H
	DB	01H
	DB	01H
	DB	01H
	DB	01H
	DB	01H
	DB	01H
	DB	01H
	DB	01H
	DB	01H
	DB	01H
	DB	01H
	DB	01H
	DB	01H
	DB	01H
	DB	01H
	DB	01H
	DB	01H
	DB	01H
	DB	01H
	DB	01H
	DB	01H
	DB	01H
	DB	01H
	DB	01H
	DB	01H
	DB	01H
	DB	01H
	DB	01H
	DB	01H
	DB	01H
	DB	01H
	DB	01H
	DB	01H
	DB	01H
	DB	01H
	DB	01H
	DB	01H
	DB	01H
	DB	01H
	DB	01H
	DB	01H
	DB	01H
	DB	01H
	DB	01H
	DB	01H
	DB	018H
	DB	013H
	DB	013H
	DB	01H
	DB	013H
	DB	018H
	DB	018H
	DB	01H
	DB	01H
	DB	01H
	DB	01H
	DB	013H
	DB	013H
	DB	013H
	DB	01H
	DB	013H
	DB	027H
	DB	02H
	DB	018H
	DB	013H
	DB	027H
	DB	018H
	DB	013H
	DB	01H
	DB	021H
	DB	021H
	DB	018H
	DB	027H
	DB	018H
	DB	018H
	DB	018H
	DB	02H
	DB	0cH
	DB	03H
	DB	018H
	DB	038H
	DB	038H
	DB	02H
	DB	02H
	DB	03H
	DB	05H
	DB	03H
	DB	038H
	DB	011H
	DB	011H
	DB	03H
	DB	018H
	DB	0cH
	DB	012H
	DB	0eH
	DB	052H
	DB	0fH
	DB	0fH
	DB	08H
	DB	010H
	DB	010H
	DB	018H
	DB	02H
	DB	0fH
	DB	036H
	DB	03H
	DB	08H
	DB	018H
	DB	05H
	DB	01bH
	DB	01bH
	DB	01bH
	DB	05H
	DB	02H
	DB	02H
	DB	02dH
	DB	02H
	DB	01cH
	DB	01cH
	DB	01cH
	DB	018H
	DB	027H
	DB	018H
	DB	018H
	DB	02H
	DB	01cH
	DB	018H
	DB	01cH
	DB	0fH
	DB	03H
	DB	01cH
	DB	01H
	DB	01H
	DB	02H
	DB	0aH
	DB	02dH
	DB	018H
	DB	018H
	DB	01cH
	DB	02H
	DB	03H
	DB	03H
	DB	06H
	DB	061H
	DB	0aH
	DB	02fH
	DB	041H
	DB	041H
	DB	024H
	DB	049H
	DB	02fH
	DB	02dH
	DB	02H
	DB	013H
	DB	01cH
	DB	024H
	DB	0fH
	DB	049H
	DB	0cH
	DB	018H
	DB	01H
	DB	01H
	DB	01H
	DB	01H
	DB	01H
	DB	01H
	DB	01H
	DB	01H
	DB	01H
	DB	01H
	DB	01H
	DB	01H
	DB	01H
	DB	01H
	DB	01H
	DB	01H
	DB	01H
	DB	02dH
	DB	06H
	DB	039H
	DB	01H
	DB	01H
	DB	01H
	DB	01H
	DB	01H
	DB	01H
	DB	01H
	DB	01H
	DB	01H
	DB	01H
	DB	01H
	DB	01H
	DB	01H
	DB	01H
	DB	01H
	DB	01H
	DB	01H
	DB	01H
	DB	01H
	DB	01H
	DB	01H
	DB	01H
	DB	01H
	DB	01H
	DB	01H
	DB	01H
	DB	01H
	DB	01H
	DB	01H
	DB	01H
	DB	01H
	DB	01H
	DB	01H
	DB	01H
	DB	01H
	DB	01H
	DB	01H
	DB	01H
	DB	01H
	DB	01H
	DB	01H
	DB	01H
	DB	01H
	DB	01H
	DB	01H
	DB	01H
	DB	01H
	DB	01H
	DB	01H
	DB	01H
	DB	01H
	DB	01H
	DB	01H
	DB	01H
	DB	01H
	DB	01H
	DB	01H
	DB	01H
	DB	01H
	DB	01H
	DB	01H
	DB	01H
	DB	01H
	DB	01H
	DB	01H
	DB	01H
	DB	01H
	DB	01H
	DB	01H
	DB	01H
	DB	01H
	DB	01H
	DB	01H
	DB	01H
	DB	01H
	DB	01H
	DB	013H
	DB	013H
	DB	01H
	DB	013H
	DB	018H
	DB	013H
	DB	013H
	DB	013H
	DB	013H
	DB	010H
	DB	02H
	DB	010H
	DB	01H
	DB	01H
	DB	010H
	DB	010H
	DB	013H
	DB	010H
	DB	013H
	DB	02H
	DB	010H
	DB	02H
	DB	013H
	DB	02H
	DB	02H
	DB	010H
	DB	0fH
	DB	03H
	DB	010H
	DB	03H
	DB	03H
	DB	02dH
	DB	021H
	DB	02H
	DB	0fH
	DB	03H
	DB	02H
	DB	038H
	DB	039H
	DB	036H
	DB	036H
	DB	0eH
	DB	0aH
	DB	0aH
	DB	012H
	DB	0fH
	DB	016H
	DB	01bH
	DB	036H
	DB	0fH
	DB	0fH
	DB	0fH
	DB	03H
	DB	018H
	DB	010H
	DB	010H
	DB	05H
	DB	036H
	DB	02H
	DB	0cH
	DB	0eH
	DB	0eH
	DB	0eH
	DB	0fH
	DB	010H
	DB	03H
	DB	036H
	DB	038H
	DB	02H
	DB	038H
	DB	038H
	DB	02H
	DB	024H
	DB	05H
	DB	039H
	DB	0bH
	DB	036H
	DB	02H
	DB	05H
	DB	02H
	DB	018H
	DB	024H
	DB	039H
	DB	02dH
	DB	01cH
	DB	013H
	DB	010H
	DB	0fH
	DB	06H
	DB	0eH
	DB	018H
	DB	01H
	DB	027H
	DB	03H
	DB	036H
	DB	05H
	DB	022H
	DB	011H
	DB	08H
	DB	08H
	DB	08H
	DB	02dH
	DB	03H
	DB	050H
	DB	03cH
	DB	016H
	DB	011H
	DB	02H
	DB	01H
	DB	03H
	DB	03H
	DB	024H
	DB	038H
	DB	02H
	DB	01H
	DB	01H
	DB	01H
	DB	01H
	DB	01H
	DB	01H
	DB	01H
	DB	01H
	DB	01H
	DB	01H
	DB	01H
	DB	01H
	DB	01H
	DB	01H
	DB	01H
	DB	01H
	DB	01H
	DB	02dH
	DB	06H
	DB	039H
	DB	01H
	DB	01H
	DB	01H
	DB	01H
	DB	01H
	DB	01H
	DB	01H
	DB	01H
	DB	01H
	DB	01H
	DB	01H
	DB	01H
	DB	01H
	DB	01H
	DB	01H
	DB	01H
	DB	01H
	DB	01H
	DB	01H
	DB	01H
	DB	01H
	DB	01H
	DB	01H
	DB	01H
	DB	01H
	DB	01H
	DB	01H
	DB	01H
	DB	01H
	DB	01H
	DB	01H
	DB	01H
	DB	01H
	DB	01H
	DB	01H
	DB	01H
	DB	01H
	DB	01H
	DB	01H
	DB	01H
	DB	01H
	DB	01H
	DB	01H
	DB	01H
	DB	01H
	DB	01H
	DB	01H
	DB	01H
	DB	01H
	DB	01H
	DB	01H
	DB	01H
	DB	01H
	DB	01H
	DB	01H
	DB	01H
	DB	01H
	DB	01H
	DB	01H
	DB	01H
	DB	01H
	DB	01H
	DB	01H
	DB	01H
	DB	01H
	DB	01H
	DB	01H
	DB	01H
	DB	01H
	DB	01H
	DB	01H
	DB	01H
	DB	01H
	DB	01H
	DB	01H
	DB	01H
	DB	01H
	DB	01H
	DB	01H
	DB	01H
	DB	013H
	DB	01cH
	DB	01H
	DB	013H
	DB	013H
	DB	02H
	DB	02H
	DB	02H
	DB	013H
	DB	027H
	DB	02dH
	DB	01cH
	DB	013H
	DB	010H
	DB	013H
	DB	0cH
	DB	08H
	DB	02H
	DB	08H
	DB	03H
	DB	08H
	DB	02H
	DB	02dH
	DB	0cH
	DB	0cH
	DB	02dH
	DB	01cH
	DB	013H
	DB	08H
	DB	0cH
	DB	03H
	DB	02H
	DB	018H
	DB	02H
	DB	03H
	DB	03H
	DB	03H
	DB	036H
	DB	05H
	DB	041H
	DB	041H
	DB	0aH
	DB	0aH
	DB	036H
	DB	024H
	DB	05H
	DB	012H
	DB	012H
	DB	0eH
	DB	0fH
	DB	03H
	DB	0eH
	DB	011H
	DB	03H
	DB	049H
	DB	0bH
	DB	0aH
	DB	01bH
	DB	0bH
	DB	041H
	DB	02H
	DB	021H
	DB	03H
	DB	02H
	DB	01cH
	DB	021H
	DB	021H
	DB	02H
	DB	02H
	DB	03H
	DB	0bH
	DB	0aH
	DB	02H
	DB	018H
	DB	01cH
	DB	02H
	DB	02H
	DB	018H
	DB	02H
	DB	02H
	DB	013H
	DB	02H
	DB	03H
	DB	03H
	DB	02fH
	DB	049H
	DB	038H
	DB	03H
	DB	067H
	DB	079H
	DB	0bH
	DB	067H
	DB	012H
	DB	011H
	DB	022H
	DB	022H
	DB	079H
	DB	03H
	DB	039H
	DB	041H
	DB	02dH
	DB	02H
	DB	02H
	DB	01cH
	DB	02H
	DB	0fH
	DB	08H
	DB	02H
	DB	02H
	DB	021H
	DB	01H
	DB	01H
	DB	01H
	DB	01H
	DB	01H
	DB	01H
	DB	01H
	DB	01H
	DB	01H
	DB	01H
	DB	01H
	DB	01H
	DB	01H
	DB	01H
	DB	01H
	DB	01H
	DB	01H
	DB	02dH
	DB	06H
	DB	039H
	DB	01H
	DB	01H
	DB	01H
	DB	01H
	DB	01H
	DB	01H
	DB	01H
	DB	01H
	DB	01H
	DB	01H
	DB	01H
	DB	01H
	DB	01H
	DB	01H
	DB	01H
	DB	01H
	DB	01H
	DB	01H
	DB	01H
	DB	01H
	DB	01H
	DB	01H
	DB	01H
	DB	01H
	DB	01H
	DB	01H
	DB	01H
	DB	01H
	DB	01H
	DB	01H
	DB	01H
	DB	01H
	DB	01H
	DB	01H
	DB	01H
	DB	01H
	DB	01H
	DB	01H
	DB	01H
	DB	01H
	DB	01H
	DB	01H
	DB	01H
	DB	01H
	DB	01H
	DB	01H
	DB	01H
	DB	01H
	DB	01H
	DB	01H
	DB	01H
	DB	01H
	DB	01H
	DB	01H
	DB	01H
	DB	01H
	DB	01H
	DB	01H
	DB	01H
	DB	01H
	DB	01H
	DB	01H
	DB	01H
	DB	01H
	DB	01H
	DB	01H
	DB	01H
	DB	01H
	DB	01H
	DB	01H
	DB	01H
	DB	01H
	DB	01H
	DB	01H
	DB	01H
	DB	018H
	DB	013H
	DB	013H
	DB	013H
	DB	013H
	DB	018H
	DB	018H
	DB	013H
	DB	010H
	DB	010H
	DB	02H
	DB	010H
	DB	02H
	DB	02H
	DB	02H
	DB	02H
	DB	010H
	DB	010H
	DB	02H
	DB	02dH
	DB	02dH
	DB	0cH
	DB	0cH
	DB	0cH
	DB	02H
	DB	02H
	DB	03H
	DB	0cH
	DB	02H
	DB	010H
	DB	08H
	DB	02H
	DB	0cH
	DB	08H
	DB	03H
	DB	05H
	DB	038H
	DB	010H
	DB	0cH
	DB	0cH
	DB	08H
	DB	08H
	DB	0eH
	DB	0cH
	DB	0cH
	DB	02H
	DB	021H
	DB	039H
	DB	05H
	DB	049H
	DB	039H
	DB	05H
	DB	05H
	DB	0cH
	DB	0cH
	DB	03H
	DB	0eH
	DB	0eH
	DB	03H
	DB	03H
	DB	067H
	DB	01bH
	DB	02dH
	DB	02H
	DB	01cH
	DB	018H
	DB	018H
	DB	018H
	DB	01cH
	DB	049H
	DB	011H
	DB	03H
	DB	02H
	DB	02H
	DB	02H
	DB	05H
	DB	02dH
	DB	01H
	DB	01H
	DB	01H
	DB	018H
	DB	08H
	DB	0fH
	DB	039H
	DB	02H
	DB	013H
	DB	010H
	DB	02H
	DB	01cH
	DB	05H
	DB	09bH
	DB	053H
	DB	079H
	DB	04fH
	DB	024H
	DB	0fH
	DB	032H
	DB	03bH
	DB	03H
	DB	0aH
	DB	050H
	DB	05H
	DB	079H
	DB	0bH
	DB	05H
	DB	021H
	DB	0eH
	DB	02dH
	DB	02dH
	DB	05H
	DB	038H
	DB	02H
	DB	041H
	DB	036H
	DB	02H
	DB	01H
	DB	01H
	DB	01H
	DB	01H
	DB	01H
	DB	01H
	DB	01H
	DB	01H
	DB	01H
	DB	01H
	DB	01H
	DB	01H
	DB	01H
	DB	01H
	DB	01H
	DB	01H
	DB	01H
	DB	02dH
	DB	06H
	DB	039H
	DB	01H
	DB	01H
	DB	01H
	DB	01H
	DB	01H
	DB	01H
	DB	01H
	DB	01H
	DB	01H
	DB	01H
	DB	01H
	DB	01H
	DB	01H
	DB	01H
	DB	01H
	DB	01H
	DB	01H
	DB	01H
	DB	01H
	DB	01H
	DB	01H
	DB	01H
	DB	01H
	DB	01H
	DB	01H
	DB	01H
	DB	01H
	DB	01H
	DB	01H
	DB	01H
	DB	01H
	DB	01H
	DB	01H
	DB	01H
	DB	01H
	DB	01H
	DB	01H
	DB	01H
	DB	01H
	DB	01H
	DB	01H
	DB	01H
	DB	01H
	DB	01H
	DB	01H
	DB	01H
	DB	01H
	DB	01H
	DB	01H
	DB	01H
	DB	01H
	DB	01H
	DB	01H
	DB	01H
	DB	01H
	DB	01H
	DB	01H
	DB	01H
	DB	01H
	DB	01H
	DB	01H
	DB	01H
	DB	01H
	DB	01H
	DB	01H
	DB	01H
	DB	01H
	DB	01H
	DB	01H
	DB	01H
	DB	01H
	DB	01H
	DB	01H
	DB	01H
	DB	013H
	DB	013H
	DB	01H
	DB	01H
	DB	01H
	DB	013H
	DB	01H
	DB	01H
	DB	013H
	DB	010H
	DB	010H
	DB	013H
	DB	010H
	DB	010H
	DB	013H
	DB	01H
	DB	02H
	DB	03H
	DB	0cH
	DB	0cH
	DB	02dH
	DB	08H
	DB	0b8H
	DB	010H
	DB	013H
	DB	013H
	DB	010H
	DB	010H
	DB	013H
	DB	018H
	DB	013H
	DB	03H
	DB	0eH
	DB	0cH
	DB	013H
	DB	02H
	DB	011H
	DB	0fH
	DB	0cH
	DB	0eH
	DB	05H
	DB	02H
	DB	02H
	DB	02H
	DB	010H
	DB	02H
	DB	018H
	DB	018H
	DB	036H
	DB	04fH
	DB	041H
	DB	05H
	DB	016H
	DB	012H
	DB	0eH
	DB	052H
	DB	052H
	DB	08H
	DB	08H
	DB	052H
	DB	016H
	DB	0aH
	DB	0aH
	DB	039H
	DB	010H
	DB	02H
	DB	08H
	DB	0fH
	DB	08H
	DB	039H
	DB	02fH
	DB	012H
	DB	0eH
	DB	038H
	DB	049H
	DB	03H
	DB	018H
	DB	018H
	DB	01H
	DB	01H
	DB	01H
	DB	027H
	DB	08H
	DB	0cH
	DB	0cH
	DB	01cH
	DB	027H
	DB	02H
	DB	02H
	DB	02H
	DB	041H
	DB	034H
	DB	03H
	DB	0fH
	DB	08H
	DB	021H
	DB	019H
	DB	022H
	DB	0aH
	DB	01H
	DB	01cH
	DB	03H
	DB	03H
	DB	041H
	DB	036H
	DB	018H
	DB	02H
	DB	02H
	DB	03H
	DB	039H
	DB	039H
	DB	036H
	DB	02H
	DB	018H
	DB	02dH
	DB	02dH
	DB	01H
	DB	01H
	DB	01H
	DB	01H
	DB	01H
	DB	01H
	DB	01H
	DB	01H
	DB	01H
	DB	01H
	DB	01H
	DB	01H
	DB	01H
	DB	01H
	DB	01H
	DB	01H
	DB	01H
	DB	02dH
	DB	06H
	DB	039H
	DB	01H
	DB	01H
	DB	01H
	DB	01H
	DB	01H
	DB	01H
	DB	01H
	DB	01H
	DB	01H
	DB	01H
	DB	01H
	DB	01H
	DB	01H
	DB	01H
	DB	01H
	DB	01H
	DB	01H
	DB	01H
	DB	01H
	DB	01H
	DB	01H
	DB	01H
	DB	01H
	DB	01H
	DB	01H
	DB	01H
	DB	01H
	DB	01H
	DB	01H
	DB	01H
	DB	01H
	DB	01H
	DB	01H
	DB	01H
	DB	01H
	DB	01H
	DB	01H
	DB	01H
	DB	01H
	DB	01H
	DB	01H
	DB	01H
	DB	01H
	DB	01H
	DB	01H
	DB	01H
	DB	01H
	DB	01H
	DB	01H
	DB	01H
	DB	01H
	DB	01H
	DB	01H
	DB	01H
	DB	01H
	DB	01H
	DB	01H
	DB	01H
	DB	01H
	DB	01H
	DB	01H
	DB	01H
	DB	01H
	DB	01H
	DB	01H
	DB	01H
	DB	01H
	DB	01H
	DB	01H
	DB	01H
	DB	01H
	DB	01H
	DB	01H
	DB	01H
	DB	01H
	DB	01H
	DB	01H
	DB	013H
	DB	013H
	DB	01H
	DB	01H
	DB	01H
	DB	013H
	DB	013H
	DB	013H
	DB	010H
	DB	010H
	DB	010H
	DB	01H
	DB	01H
	DB	013H
	DB	027H
	DB	02H
	DB	02H
	DB	02H
	DB	02H
	DB	0b8H
	DB	013H
	DB	01H
	DB	01H
	DB	013H
	DB	013H
	DB	02H
	DB	013H
	DB	018H
	DB	02H
	DB	02dH
	DB	02H
	DB	02H
	DB	02dH
	DB	03H
	DB	02dH
	DB	0fH
	DB	036H
	DB	0fH
	DB	0cH
	DB	03H
	DB	02H
	DB	018H
	DB	02H
	DB	03H
	DB	039H
	DB	02dH
	DB	03H
	DB	0eH
	DB	0fH
	DB	0fH
	DB	0eH
	DB	0eH
	DB	0eH
	DB	0eH
	DB	02H
	DB	05H
	DB	016H
	DB	016H
	DB	0eH
	DB	03H
	DB	039H
	DB	011H
	DB	016H
	DB	011H
	DB	0eH
	DB	041H
	DB	0aH
	DB	02H
	DB	018H
	DB	02dH
	DB	036H
	DB	012H
	DB	05H
	DB	02H
	DB	02H
	DB	01cH
	DB	018H
	DB	027H
	DB	010H
	DB	018H
	DB	01cH
	DB	02H
	DB	038H
	DB	03H
	DB	02H
	DB	038H
	DB	0fH
	DB	02H
	DB	02dH
	DB	011H
	DB	049H
	DB	026H
	DB	020H
	DB	020H
	DB	0bH
	DB	079H
	DB	0bH
	DB	03H
	DB	03H
	DB	049H
	DB	02dH
	DB	01cH
	DB	02H
	DB	018H
	DB	018H
	DB	05H
	DB	0aH
	DB	024H
	DB	026H
	DB	02dH
	DB	018H
	DB	018H
	DB	08H
	DB	01H
	DB	01H
	DB	01H
	DB	01H
	DB	01H
	DB	01H
	DB	01H
	DB	01H
	DB	01H
	DB	01H
	DB	01H
	DB	01H
	DB	01H
	DB	01H
	DB	01H
	DB	01H
	DB	01H
	DB	02dH
	DB	06H
	DB	039H
	DB	01H
	DB	01H
	DB	01H
	DB	01H
	DB	01H
	DB	01H
	DB	01H
	DB	01H
	DB	01H
	DB	01H
	DB	01H
	DB	01H
	DB	01H
	DB	01H
	DB	01H
	DB	01H
	DB	01H
	DB	01H
	DB	01H
	DB	01H
	DB	01H
	DB	01H
	DB	01H
	DB	01H
	DB	01H
	DB	01H
	DB	01H
	DB	01H
	DB	01H
	DB	01H
	DB	01H
	DB	01H
	DB	01H
	DB	01H
	DB	01H
	DB	01H
	DB	01H
	DB	01H
	DB	01H
	DB	01H
	DB	01H
	DB	01H
	DB	01H
	DB	01H
	DB	01H
	DB	01H
	DB	01H
	DB	01H
	DB	01H
	DB	01H
	DB	01H
	DB	01H
	DB	01H
	DB	01H
	DB	01H
	DB	01H
	DB	01H
	DB	01H
	DB	01H
	DB	01H
	DB	01H
	DB	01H
	DB	01H
	DB	01H
	DB	01H
	DB	01H
	DB	01H
	DB	01H
	DB	01H
	DB	01H
	DB	01H
	DB	01H
	DB	01H
	DB	01H
	DB	01H
	DB	01H
	DB	01H
	DB	01H
	DB	01H
	DB	01H
	DB	018H
	DB	01H
	DB	01H
	DB	018H
	DB	018H
	DB	01H
	DB	01H
	DB	018H
	DB	013H
	DB	013H
	DB	010H
	DB	02H
	DB	0b8H
	DB	010H
	DB	010H
	DB	02H
	DB	02H
	DB	013H
	DB	01H
	DB	013H
	DB	018H
	DB	013H
	DB	02H
	DB	010H
	DB	013H
	DB	018H
	DB	013H
	DB	01H
	DB	018H
	DB	02H
	DB	036H
	DB	049H
	DB	036H
	DB	0cH
	DB	0eH
	DB	0fH
	DB	03H
	DB	02H
	DB	02H
	DB	08H
	DB	012H
	DB	05H
	DB	010H
	DB	052H
	DB	011H
	DB	011H
	DB	0fH
	DB	039H
	DB	016H
	DB	01bH
	DB	0aH
	DB	021H
	DB	05H
	DB	036H
	DB	049H
	DB	022H
	DB	022H
	DB	0aH
	DB	016H
	DB	06H
	DB	022H
	DB	016H
	DB	012H
	DB	036H
	DB	021H
	DB	026H
	DB	016H
	DB	041H
	DB	02dH
	DB	02H
	DB	02H
	DB	01cH
	DB	01cH
	DB	01cH
	DB	010H
	DB	0eH
	DB	0eH
	DB	036H
	DB	05H
	DB	02dH
	DB	02H
	DB	01H
	DB	02H
	DB	026H
	DB	01cH
	DB	0fH
	DB	0fH
	DB	02H
	DB	02fH
	DB	05cH
	DB	0aH
	DB	036H
	DB	049H
	DB	06H
	DB	02fH
	DB	053H
	DB	032H
	DB	06H
	DB	03H
	DB	02H
	DB	01cH
	DB	038H
	DB	036H
	DB	05H
	DB	02dH
	DB	02dH
	DB	02dH
	DB	02H
	DB	03H
	DB	011H
	DB	01H
	DB	01H
	DB	01H
	DB	01H
	DB	01H
	DB	01H
	DB	01H
	DB	01H
	DB	01H
	DB	01H
	DB	01H
	DB	01H
	DB	01H
	DB	01H
	DB	01H
	DB	01H
	DB	01H
	DB	02dH
	DB	06H
	DB	039H
	DB	01H
	DB	01H
	DB	01H
	DB	01H
	DB	01H
	DB	01H
	DB	01H
	DB	01H
	DB	01H
	DB	01H
	DB	01H
	DB	01H
	DB	01H
	DB	01H
	DB	01H
	DB	01H
	DB	01H
	DB	01H
	DB	01H
	DB	01H
	DB	01H
	DB	01H
	DB	01H
	DB	01H
	DB	01H
	DB	01H
	DB	01H
	DB	01H
	DB	01H
	DB	01H
	DB	01H
	DB	01H
	DB	01H
	DB	01H
	DB	01H
	DB	01H
	DB	01H
	DB	01H
	DB	01H
	DB	01H
	DB	01H
	DB	01H
	DB	01H
	DB	01H
	DB	01H
	DB	01H
	DB	01H
	DB	01H
	DB	01H
	DB	01H
	DB	01H
	DB	01H
	DB	01H
	DB	01H
	DB	01H
	DB	01H
	DB	01H
	DB	01H
	DB	01H
	DB	01H
	DB	01H
	DB	01H
	DB	01H
	DB	01H
	DB	01H
	DB	01H
	DB	01H
	DB	01H
	DB	01H
	DB	01H
	DB	01H
	DB	01H
	DB	01H
	DB	01H
	DB	01H
	DB	01H
	DB	01H
	DB	01H
	DB	01H
	DB	013H
	DB	01H
	DB	01H
	DB	013H
	DB	010H
	DB	027H
	DB	02H
	DB	02H
	DB	01H
	DB	027H
	DB	02H
	DB	013H
	DB	02H
	DB	0b8H
	DB	010H
	DB	013H
	DB	010H
	DB	0b8H
	DB	013H
	DB	01H
	DB	013H
	DB	013H
	DB	013H
	DB	013H
	DB	02H
	DB	018H
	DB	018H
	DB	018H
	DB	027H
	DB	038H
	DB	02dH
	DB	038H
	DB	036H
	DB	0fH
	DB	0fH
	DB	0eH
	DB	011H
	DB	0eH
	DB	08H
	DB	0cH
	DB	0fH
	DB	012H
	DB	0eH
	DB	03H
	DB	011H
	DB	0fH
	DB	0cH
	DB	02H
	DB	036H
	DB	05H
	DB	05H
	DB	05H
	DB	039H
	DB	02dH
	DB	010H
	DB	036H
	DB	03H
	DB	036H
	DB	02fH
	DB	05H
	DB	041H
	DB	034H
	DB	041H
	DB	0aH
	DB	039H
	DB	038H
	DB	06H
	DB	04fH
	DB	01cH
	DB	018H
	DB	02H
	DB	05H
	DB	01cH
	DB	01H
	DB	01H
	DB	01cH
	DB	01cH
	DB	02dH
	DB	02dH
	DB	08H
	DB	03H
	DB	079H
	DB	05H
	DB	038H
	DB	038H
	DB	011H
	DB	012H
	DB	036H
	DB	05H
	DB	02dH
	DB	026H
	DB	079H
	DB	032H
	DB	0aH
	DB	03H
	DB	09bH
	DB	077H
	DB	03bH
	DB	032H
	DB	05H
	DB	01cH
	DB	018H
	DB	01H
	DB	036H
	DB	036H
	DB	018H
	DB	018H
	DB	01cH
	DB	018H
	DB	03H
	DB	0eH
	DB	01H
	DB	01H
	DB	01H
	DB	01H
	DB	01H
	DB	01H
	DB	01H
	DB	01H
	DB	01H
	DB	01H
	DB	01H
	DB	01H
	DB	01H
	DB	01H
	DB	01H
	DB	01H
	DB	01H
	DB	02dH
	DB	06H
	DB	039H
	DB	01H
	DB	01H
	DB	01H
	DB	01H
	DB	01H
	DB	01H
	DB	01H
	DB	01H
	DB	01H
	DB	01H
	DB	01H
	DB	01H
	DB	01H
	DB	01H
	DB	01H
	DB	01H
	DB	01H
	DB	01H
	DB	01H
	DB	01H
	DB	01H
	DB	01H
	DB	01H
	DB	01H
	DB	01H
	DB	01H
	DB	01H
	DB	01H
	DB	01H
	DB	01H
	DB	01H
	DB	01H
	DB	01H
	DB	01H
	DB	01H
	DB	01H
	DB	01H
	DB	01H
	DB	01H
	DB	01H
	DB	01H
	DB	01H
	DB	01H
	DB	01H
	DB	01H
	DB	01H
	DB	01H
	DB	01H
	DB	01H
	DB	01H
	DB	01H
	DB	01H
	DB	01H
	DB	01H
	DB	01H
	DB	01H
	DB	01H
	DB	01H
	DB	01H
	DB	01H
	DB	01H
	DB	01H
	DB	01H
	DB	01H
	DB	01H
	DB	01H
	DB	01H
	DB	01H
	DB	01H
	DB	01H
	DB	01H
	DB	01H
	DB	01H
	DB	01H
	DB	013H
	DB	01H
	DB	01H
	DB	01H
	DB	01H
	DB	01H
	DB	01H
	DB	013H
	DB	013H
	DB	01H
	DB	018H
	DB	02H
	DB	02H
	DB	018H
	DB	018H
	DB	010H
	DB	01H
	DB	013H
	DB	013H
	DB	013H
	DB	013H
	DB	013H
	DB	02H
	DB	02H
	DB	08H
	DB	02dH
	DB	013H
	DB	01H
	DB	018H
	DB	018H
	DB	01H
	DB	013H
	DB	02H
	DB	02H
	DB	02H
	DB	02dH
	DB	0cH
	DB	0cH
	DB	010H
	DB	013H
	DB	0cH
	DB	0fH
	DB	0eH
	DB	011H
	DB	02H
	DB	0fH
	DB	012H
	DB	05H
	DB	024H
	DB	0eH
	DB	01cH
	DB	018H
	DB	021H
	DB	03H
	DB	011H
	DB	011H
	DB	0fH
	DB	011H
	DB	02H
	DB	02H
	DB	03H
	DB	03H
	DB	021H
	DB	039H
	DB	0aH
	DB	08H
	DB	039H
	DB	039H
	DB	02fH
	DB	0aH
	DB	011H
	DB	0bH
	DB	026H
	DB	01cH
	DB	018H
	DB	034H
	DB	020H
	DB	05H
	DB	027H
	DB	0cH
	DB	02dH
	DB	01cH
	DB	0fH
	DB	0fH
	DB	018H
	DB	03H
	DB	050H
	DB	067H
	DB	039H
	DB	039H
	DB	06H
	DB	041H
	DB	03H
	DB	02H
	DB	021H
	DB	021H
	DB	03H
	DB	0aH
	DB	049H
	DB	022H
	DB	020H
	DB	0bH
	DB	01bH
	DB	0eH
	DB	024H
	DB	039H
	DB	021H
	DB	027H
	DB	01cH
	DB	018H
	DB	018H
	DB	01H
	DB	013H
	DB	011H
	DB	011H
	DB	019H
	DB	01H
	DB	01H
	DB	01H
	DB	01H
	DB	01H
	DB	01H
	DB	01H
	DB	01H
	DB	01H
	DB	01H
	DB	01H
	DB	01H
	DB	01H
	DB	01H
	DB	01H
	DB	01H
	DB	01H
	DB	02dH
	DB	06H
	DB	039H
	DB	01H
	DB	01H
	DB	01H
	DB	01H
	DB	01H
	DB	01H
	DB	01H
	DB	01H
	DB	01H
	DB	01H
	DB	01H
	DB	01H
	DB	01H
	DB	01H
	DB	01H
	DB	01H
	DB	01H
	DB	01H
	DB	01H
	DB	01H
	DB	01H
	DB	01H
	DB	01H
	DB	01H
	DB	01H
	DB	01H
	DB	01H
	DB	01H
	DB	01H
	DB	01H
	DB	01H
	DB	01H
	DB	01H
	DB	01H
	DB	01H
	DB	01H
	DB	01H
	DB	01H
	DB	01H
	DB	01H
	DB	01H
	DB	01H
	DB	01H
	DB	01H
	DB	01H
	DB	01H
	DB	01H
	DB	01H
	DB	01H
	DB	01H
	DB	01H
	DB	01H
	DB	01H
	DB	01H
	DB	01H
	DB	01H
	DB	01H
	DB	01H
	DB	01H
	DB	01H
	DB	01H
	DB	01H
	DB	01H
	DB	01H
	DB	01H
	DB	01H
	DB	01H
	DB	01H
	DB	01H
	DB	01H
	DB	01H
	DB	01H
	DB	01H
	DB	013H
	DB	013H
	DB	01H
	DB	01H
	DB	013H
	DB	01H
	DB	01H
	DB	013H
	DB	013H
	DB	013H
	DB	01H
	DB	01H
	DB	010H
	DB	02H
	DB	013H
	DB	01H
	DB	013H
	DB	02H
	DB	02H
	DB	010H
	DB	013H
	DB	013H
	DB	018H
	DB	02H
	DB	0cH
	DB	03H
	DB	0cH
	DB	013H
	DB	02H
	DB	0fH
	DB	010H
	DB	08H
	DB	0cH
	DB	02H
	DB	013H
	DB	018H
	DB	0fH
	DB	0eH
	DB	03H
	DB	02dH
	DB	08H
	DB	08H
	DB	038H
	DB	041H
	DB	016H
	DB	05H
	DB	02H
	DB	02H
	DB	01cH
	DB	018H
	DB	08H
	DB	03H
	DB	02H
	DB	01cH
	DB	013H
	DB	038H
	DB	041H
	DB	0eH
	DB	012H
	DB	0fH
	DB	0eH
	DB	0eH
	DB	079H
	DB	0bH
	DB	05H
	DB	01bH
	DB	019H
	DB	019H
	DB	05H
	DB	01H
	DB	01cH
	DB	02H
	DB	010H
	DB	01cH
	DB	018H
	DB	018H
	DB	0aH
	DB	050H
	DB	03H
	DB	041H
	DB	05H
	DB	08H
	DB	036H
	DB	05H
	DB	05H
	DB	013H
	DB	02H
	DB	02fH
	DB	04fH
	DB	02H
	DB	039H
	DB	079H
	DB	021H
	DB	03H
	DB	016H
	DB	038H
	DB	052H
	DB	011H
	DB	02H
	DB	021H
	DB	067H
	DB	0bH
	DB	05H
	DB	024H
	DB	018H
	DB	01cH
	DB	02H
	DB	0bH
	DB	077H
	DB	010H
	DB	013H
	DB	08H
	DB	038H
	DB	0cH
	DB	041H
	DB	036H
	DB	03H
	DB	01H
	DB	01H
	DB	01H
	DB	01H
	DB	01H
	DB	01H
	DB	01H
	DB	01H
	DB	01H
	DB	01H
	DB	01H
	DB	01H
	DB	01H
	DB	01H
	DB	01H
	DB	01H
	DB	01H
	DB	02dH
	DB	06H
	DB	039H
	DB	01H
	DB	01H
	DB	01H
	DB	01H
	DB	01H
	DB	01H
	DB	01H
	DB	01H
	DB	01H
	DB	01H
	DB	01H
	DB	01H
	DB	01H
	DB	01H
	DB	01H
	DB	01H
	DB	01H
	DB	01H
	DB	01H
	DB	01H
	DB	01H
	DB	01H
	DB	01H
	DB	01H
	DB	01H
	DB	01H
	DB	01H
	DB	01H
	DB	01H
	DB	01H
	DB	01H
	DB	01H
	DB	01H
	DB	01H
	DB	01H
	DB	01H
	DB	01H
	DB	01H
	DB	01H
	DB	01H
	DB	01H
	DB	01H
	DB	01H
	DB	01H
	DB	01H
	DB	01H
	DB	01H
	DB	01H
	DB	01H
	DB	01H
	DB	01H
	DB	01H
	DB	01H
	DB	01H
	DB	01H
	DB	01H
	DB	01H
	DB	01H
	DB	01H
	DB	01H
	DB	01H
	DB	01H
	DB	01H
	DB	01H
	DB	01H
	DB	01H
	DB	01H
	DB	01H
	DB	01H
	DB	01H
	DB	01H
	DB	01H
	DB	01H
	DB	01H
	DB	01H
	DB	01H
	DB	01H
	DB	013H
	DB	013H
	DB	018H
	DB	01H
	DB	01H
	DB	013H
	DB	013H
	DB	01H
	DB	013H
	DB	010H
	DB	010H
	DB	013H
	DB	010H
	DB	010H
	DB	013H
	DB	013H
	DB	010H
	DB	010H
	DB	010H
	DB	08H
	DB	0cH
	DB	0cH
	DB	0cH
	DB	02H
	DB	03H
	DB	03H
	DB	02H
	DB	0cH
	DB	02dH
	DB	02H
	DB	0cH
	DB	0cH
	DB	03H
	DB	02H
	DB	03H
	DB	038H
	DB	02dH
	DB	03H
	DB	038H
	DB	039H
	DB	05H
	DB	03H
	DB	02H
	DB	0cH
	DB	0fH
	DB	05H
	DB	0eH
	DB	016H
	DB	036H
	DB	01cH
	DB	018H
	DB	0cH
	DB	012H
	DB	012H
	DB	03H
	DB	036H
	DB	011H
	DB	0eH
	DB	01bH
	DB	01bH
	DB	016H
	DB	049H
	DB	01bH
	DB	04fH
	DB	02H
	DB	027H
	DB	08H
	DB	0eH
	DB	02H
	DB	01H
	DB	018H
	DB	01H
	DB	01cH
	DB	01H
	DB	01H
	DB	02H
	DB	01cH
	DB	02H
	DB	024H
	DB	02H
	DB	01cH
	DB	02H
	DB	018H
	DB	018H
	DB	02H
	DB	01cH
	DB	05H
	DB	012H
	DB	08H
	DB	0eH
	DB	012H
	DB	0fH
	DB	0a4H
	DB	05bH
	DB	038H
	DB	021H
	DB	02dH
	DB	026H
	DB	03H
	DB	027H
	DB	01H
	DB	038H
	DB	02H
	DB	03H
	DB	050H
	DB	06H
	DB	019H
	DB	02dH
	DB	01bH
	DB	0eH
	DB	01H
	DB	02H
	DB	012H
	DB	01H
	DB	01H
	DB	01H
	DB	01H
	DB	01H
	DB	01H
	DB	01H
	DB	01H
	DB	01H
	DB	01H
	DB	01H
	DB	01H
	DB	01H
	DB	01H
	DB	01H
	DB	01H
	DB	01H
	DB	02dH
	DB	06H
	DB	039H
	DB	01H
	DB	01H
	DB	01H
	DB	01H
	DB	01H
	DB	01H
	DB	01H
	DB	01H
	DB	01H
	DB	01H
	DB	01H
	DB	01H
	DB	01H
	DB	01H
	DB	01H
	DB	01H
	DB	01H
	DB	01H
	DB	01H
	DB	01H
	DB	01H
	DB	01H
	DB	01H
	DB	01H
	DB	01H
	DB	01H
	DB	01H
	DB	01H
	DB	01H
	DB	01H
	DB	01H
	DB	01H
	DB	01H
	DB	01H
	DB	01H
	DB	01H
	DB	01H
	DB	01H
	DB	01H
	DB	01H
	DB	01H
	DB	01H
	DB	01H
	DB	01H
	DB	01H
	DB	01H
	DB	01H
	DB	01H
	DB	01H
	DB	01H
	DB	01H
	DB	01H
	DB	01H
	DB	01H
	DB	01H
	DB	01H
	DB	01H
	DB	01H
	DB	01H
	DB	01H
	DB	01H
	DB	01H
	DB	01H
	DB	01H
	DB	01H
	DB	01H
	DB	01H
	DB	01H
	DB	01H
	DB	01H
	DB	01H
	DB	01H
	DB	01H
	DB	01H
	DB	01H
	DB	01H
	DB	01H
	DB	01H
	DB	01H
	DB	01H
	DB	01H
	DB	01H
	DB	018H
	DB	018H
	DB	018H
	DB	01H
	DB	01H
	DB	01H
	DB	01H
	DB	01H
	DB	01H
	DB	013H
	DB	013H
	DB	013H
	DB	013H
	DB	010H
	DB	02H
	DB	03H
	DB	08H
	DB	013H
	DB	018H
	DB	02H
	DB	03H
	DB	02H
	DB	018H
	DB	01H
	DB	010H
	DB	0cH
	DB	08H
	DB	08H
	DB	08H
	DB	02H
	DB	02H
	DB	02H
	DB	010H
	DB	018H
	DB	03H
	DB	036H
	DB	02H
	DB	03H
	DB	05H
	DB	012H
	DB	01bH
	DB	05H
	DB	0aH
	DB	01bH
	DB	05H
	DB	03H
	DB	016H
	DB	041H
	DB	0aH
	DB	021H
	DB	02H
	DB	02dH
	DB	079H
	DB	067H
	DB	036H
	DB	012H
	DB	01bH
	DB	041H
	DB	02H
	DB	018H
	DB	0eH
	DB	0fH
	DB	02H
	DB	013H
	DB	01H
	DB	018H
	DB	038H
	DB	011H
	DB	03H
	DB	02H
	DB	02H
	DB	018H
	DB	01cH
	DB	02H
	DB	02H
	DB	03H
	DB	041H
	DB	02H
	DB	01H
	DB	03H
	DB	038H
	DB	02dH
	DB	02dH
	DB	0fH
	DB	0a4H
	DB	011H
	DB	019H
	DB	044H
	DB	050H
	DB	021H
	DB	02H
	DB	018H
	DB	024H
	DB	021H
	DB	018H
	DB	01H
	DB	06H
	DB	042H
	DB	01H
	DB	01cH
	DB	05H
	DB	02fH
	DB	03H
	DB	01bH
	DB	012H
	DB	01cH
	DB	01cH
	DB	036H
	DB	01H
	DB	01H
	DB	01H
	DB	01H
	DB	01H
	DB	01H
	DB	01H
	DB	01H
	DB	01H
	DB	01H
	DB	01H
	DB	01H
	DB	01H
	DB	01H
	DB	01H
	DB	01H
	DB	01H
	DB	02dH
	DB	06H
	DB	039H
	DB	01H
	DB	01H
	DB	01H
	DB	01H
	DB	01H
	DB	01H
	DB	01H
	DB	01H
	DB	01H
	DB	01H
	DB	01H
	DB	01H
	DB	01H
	DB	01H
	DB	01H
	DB	01H
	DB	01H
	DB	01H
	DB	01H
	DB	01H
	DB	01H
	DB	01H
	DB	01H
	DB	01H
	DB	01H
	DB	01H
	DB	01H
	DB	01H
	DB	01H
	DB	01H
	DB	01H
	DB	01H
	DB	01H
	DB	01H
	DB	01H
	DB	01H
	DB	01H
	DB	01H
	DB	01H
	DB	01H
	DB	01H
	DB	01H
	DB	01H
	DB	01H
	DB	01H
	DB	01H
	DB	01H
	DB	01H
	DB	01H
	DB	01H
	DB	01H
	DB	01H
	DB	01H
	DB	01H
	DB	01H
	DB	01H
	DB	01H
	DB	01H
	DB	01H
	DB	01H
	DB	01H
	DB	01H
	DB	01H
	DB	01H
	DB	01H
	DB	01H
	DB	01H
	DB	01H
	DB	01H
	DB	01H
	DB	01H
	DB	01H
	DB	01H
	DB	01H
	DB	01H
	DB	01H
	DB	01H
	DB	01H
	DB	01H
	DB	013H
	DB	01H
	DB	018H
	DB	018H
	DB	01H
	DB	01H
	DB	013H
	DB	013H
	DB	01H
	DB	01H
	DB	01H
	DB	010H
	DB	010H
	DB	02H
	DB	013H
	DB	010H
	DB	013H
	DB	08H
	DB	0cH
	DB	0cH
	DB	08H
	DB	010H
	DB	018H
	DB	02dH
	DB	03H
	DB	010H
	DB	013H
	DB	018H
	DB	018H
	DB	018H
	DB	01cH
	DB	039H
	DB	03H
	DB	03H
	DB	02H
	DB	018H
	DB	027H
	DB	08H
	DB	02dH
	DB	0cH
	DB	0eH
	DB	0aH
	DB	041H
	DB	05H
	DB	03H
	DB	0fH
	DB	0fH
	DB	0eH
	DB	0eH
	DB	012H
	DB	011H
	DB	026H
	DB	021H
	DB	02H
	DB	05H
	DB	06H
	DB	067H
	DB	02H
	DB	05H
	DB	0fH
	DB	02dH
	DB	02H
	DB	03H
	DB	039H
	DB	026H
	DB	018H
	DB	01H
	DB	01H
	DB	021H
	DB	0aH
	DB	036H
	DB	01cH
	DB	08H
	DB	0eH
	DB	052H
	DB	011H
	DB	03H
	DB	018H
	DB	018H
	DB	02H
	DB	021H
	DB	049H
	DB	02dH
	DB	01cH
	DB	02dH
	DB	010H
	DB	08H
	DB	01bH
	DB	0fH
	DB	05H
	DB	016H
	DB	02H
	DB	024H
	DB	0aH
	DB	049H
	DB	049H
	DB	016H
	DB	03H
	DB	08H
	DB	05H
	DB	067H
	DB	036H
	DB	018H
	DB	01H
	DB	01cH
	DB	038H
	DB	036H
	DB	024H
	DB	018H
	DB	018H
	DB	018H
	DB	01H
	DB	01H
	DB	01H
	DB	01H
	DB	01H
	DB	01H
	DB	01H
	DB	01H
	DB	01H
	DB	01H
	DB	01H
	DB	01H
	DB	01H
	DB	01H
	DB	01H
	DB	01H
	DB	01H
	DB	02dH
	DB	06H
	DB	039H
	DB	01H
	DB	01H
	DB	01H
	DB	01H
	DB	01H
	DB	01H
	DB	01H
	DB	01H
	DB	01H
	DB	01H
	DB	01H
	DB	01H
	DB	01H
	DB	01H
	DB	01H
	DB	01H
	DB	01H
	DB	01H
	DB	01H
	DB	01H
	DB	01H
	DB	01H
	DB	01H
	DB	01H
	DB	01H
	DB	01H
	DB	01H
	DB	01H
	DB	01H
	DB	01H
	DB	01H
	DB	01H
	DB	01H
	DB	01H
	DB	01H
	DB	01H
	DB	01H
	DB	01H
	DB	01H
	DB	01H
	DB	01H
	DB	01H
	DB	01H
	DB	01H
	DB	01H
	DB	01H
	DB	01H
	DB	01H
	DB	01H
	DB	01H
	DB	01H
	DB	01H
	DB	01H
	DB	01H
	DB	01H
	DB	01H
	DB	01H
	DB	01H
	DB	01H
	DB	01H
	DB	01H
	DB	01H
	DB	01H
	DB	01H
	DB	01H
	DB	01H
	DB	01H
	DB	01H
	DB	01H
	DB	01H
	DB	01H
	DB	01H
	DB	01H
	DB	01H
	DB	01H
	DB	01H
	DB	01H
	DB	01H
	DB	013H
	DB	013H
	DB	013H
	DB	018H
	DB	018H
	DB	01H
	DB	013H
	DB	013H
	DB	01H
	DB	01H
	DB	013H
	DB	013H
	DB	010H
	DB	08H
	DB	0cH
	DB	08H
	DB	010H
	DB	013H
	DB	02H
	DB	02H
	DB	02H
	DB	0cH
	DB	08H
	DB	018H
	DB	02H
	DB	03H
	DB	08H
	DB	018H
	DB	018H
	DB	013H
	DB	02H
	DB	02H
	DB	0cH
	DB	03H
	DB	021H
	DB	02H
	DB	052H
	DB	0cH
	DB	052H
	DB	0cH
	DB	010H
	DB	018H
	DB	02H
	DB	0fH
	DB	0eH
	DB	0fH
	DB	0eH
	DB	0cH
	DB	0fH
	DB	052H
	DB	02H
	DB	02H
	DB	018H
	DB	018H
	DB	0cH
	DB	0eH
	DB	0eH
	DB	012H
	DB	0cH
	DB	03H
	DB	018H
	DB	01H
	DB	018H
	DB	021H
	DB	036H
	DB	011H
	DB	036H
	DB	01H
	DB	01H
	DB	01H
	DB	01H
	DB	01H
	DB	013H
	DB	08H
	DB	02H
	DB	01bH
	DB	057H
	DB	022H
	DB	03H
	DB	02H
	DB	0eH
	DB	012H
	DB	041H
	DB	02H
	DB	027H
	DB	02H
	DB	02H
	DB	049H
	DB	0eH
	DB	08H
	DB	08H
	DB	011H
	DB	012H
	DB	01cH
	DB	0bH
	DB	067H
	DB	0bH
	DB	041H
	DB	08H
	DB	0fH
	DB	03H
	DB	0fH
	DB	03H
	DB	02dH
	DB	01cH
	DB	02H
	DB	01cH
	DB	038H
	DB	01cH
	DB	01H
	DB	027H
	DB	027H
	DB	01H
	DB	01H
	DB	01H
	DB	01H
	DB	01H
	DB	01H
	DB	01H
	DB	01H
	DB	01H
	DB	01H
	DB	01H
	DB	01H
	DB	01H
	DB	01H
	DB	01H
	DB	01H
	DB	01H
	DB	02dH
	DB	06H
	DB	039H
	DB	01H
	DB	01H
	DB	01H
	DB	01H
	DB	01H
	DB	01H
	DB	01H
	DB	01H
	DB	01H
	DB	01H
	DB	01H
	DB	01H
	DB	01H
	DB	01H
	DB	01H
	DB	01H
	DB	01H
	DB	01H
	DB	01H
	DB	01H
	DB	01H
	DB	01H
	DB	01H
	DB	01H
	DB	01H
	DB	01H
	DB	01H
	DB	01H
	DB	01H
	DB	01H
	DB	01H
	DB	01H
	DB	01H
	DB	01H
	DB	01H
	DB	01H
	DB	01H
	DB	01H
	DB	01H
	DB	01H
	DB	01H
	DB	01H
	DB	01H
	DB	01H
	DB	01H
	DB	01H
	DB	01H
	DB	01H
	DB	01H
	DB	01H
	DB	01H
	DB	01H
	DB	01H
	DB	01H
	DB	01H
	DB	01H
	DB	01H
	DB	01H
	DB	01H
	DB	01H
	DB	01H
	DB	01H
	DB	01H
	DB	01H
	DB	01H
	DB	01H
	DB	01H
	DB	01H
	DB	01H
	DB	01H
	DB	01H
	DB	01H
	DB	01H
	DB	01H
	DB	01H
	DB	01H
	DB	01H
	DB	013H
	DB	013H
	DB	013H
	DB	013H
	DB	01H
	DB	01H
	DB	013H
	DB	013H
	DB	01H
	DB	013H
	DB	02H
	DB	02H
	DB	010H
	DB	010H
	DB	02H
	DB	038H
	DB	03H
	DB	02dH
	DB	01H
	DB	018H
	DB	013H
	DB	018H
	DB	013H
	DB	08H
	DB	027H
	DB	02H
	DB	036H
	DB	02dH
	DB	02H
	DB	039H
	DB	03H
	DB	03H
	DB	02H
	DB	036H
	DB	036H
	DB	039H
	DB	0cH
	DB	052H
	DB	052H
	DB	08H
	DB	0b8H
	DB	010H
	DB	02H
	DB	027H
	DB	011H
	DB	01bH
	DB	012H
	DB	016H
	DB	012H
	DB	036H
	DB	02dH
	DB	03H
	DB	08H
	DB	08H
	DB	08H
	DB	0fH
	DB	0fH
	DB	0eH
	DB	016H
	DB	03H
	DB	01cH
	DB	010H
	DB	018H
	DB	027H
	DB	010H
	DB	018H
	DB	018H
	DB	01H
	DB	01H
	DB	02H
	DB	08H
	DB	027H
	DB	08H
	DB	011H
	DB	01bH
	DB	019H
	DB	06H
	DB	04fH
	DB	04fH
	DB	021H
	DB	03H
	DB	08H
	DB	03H
	DB	02dH
	DB	02dH
	DB	02H
	DB	03H
	DB	09bH
	DB	0f2H
	DB	05H
	DB	01cH
	DB	03H
	DB	019H
	DB	01bH
	DB	02H
	DB	02H
	DB	02dH
	DB	02H
	DB	01cH
	DB	018H
	DB	02H
	DB	024H
	DB	010H
	DB	010H
	DB	03H
	DB	0fH
	DB	021H
	DB	02H
	DB	027H
	DB	03H
	DB	038H
	DB	038H
	DB	039H
	DB	01H
	DB	01H
	DB	01H
	DB	01H
	DB	01H
	DB	01H
	DB	01H
	DB	01H
	DB	01H
	DB	01H
	DB	01H
	DB	01H
	DB	01H
	DB	01H
	DB	01H
	DB	01H
	DB	01H
	DB	02dH
	DB	06H
	DB	039H
	DB	01H
	DB	01H
	DB	01H
	DB	01H
	DB	01H
	DB	01H
	DB	01H
	DB	01H
	DB	01H
	DB	01H
	DB	01H
	DB	01H
	DB	01H
	DB	01H
	DB	01H
	DB	01H
	DB	01H
	DB	01H
	DB	01H
	DB	01H
	DB	01H
	DB	01H
	DB	01H
	DB	01H
	DB	01H
	DB	01H
	DB	01H
	DB	01H
	DB	01H
	DB	01H
	DB	01H
	DB	01H
	DB	01H
	DB	01H
	DB	01H
	DB	01H
	DB	01H
	DB	01H
	DB	01H
	DB	01H
	DB	01H
	DB	01H
	DB	01H
	DB	01H
	DB	01H
	DB	01H
	DB	01H
	DB	01H
	DB	01H
	DB	01H
	DB	01H
	DB	01H
	DB	01H
	DB	01H
	DB	01H
	DB	01H
	DB	01H
	DB	01H
	DB	01H
	DB	01H
	DB	01H
	DB	01H
	DB	01H
	DB	01H
	DB	01H
	DB	01H
	DB	01H
	DB	01H
	DB	01H
	DB	01H
	DB	01H
	DB	01H
	DB	01H
	DB	01H
	DB	01H
	DB	01H
	DB	01H
	DB	01H
	DB	013H
	DB	01H
	DB	01H
	DB	01H
	DB	013H
	DB	013H
	DB	013H
	DB	013H
	DB	013H
	DB	013H
	DB	010H
	DB	02H
	DB	02H
	DB	010H
	DB	02H
	DB	0cH
	DB	038H
	DB	02H
	DB	02H
	DB	02H
	DB	018H
	DB	013H
	DB	08H
	DB	02H
	DB	02dH
	DB	0cH
	DB	02H
	DB	018H
	DB	021H
	DB	024H
	DB	026H
	DB	01cH
	DB	01H
	DB	01H
	DB	052H
	DB	0eH
	DB	052H
	DB	0b8H
	DB	013H
	DB	018H
	DB	018H
	DB	021H
	DB	01cH
	DB	018H
	DB	02dH
	DB	02H
	DB	03H
	DB	041H
	DB	024H
	DB	010H
	DB	011H
	DB	012H
	DB	011H
	DB	0eH
	DB	011H
	DB	012H
	DB	011H
	DB	03H
	DB	02H
	DB	02H
	DB	02H
	DB	01H
	DB	03H
	DB	03H
	DB	018H
	DB	018H
	DB	018H
	DB	02H
	DB	03H
	DB	01cH
	DB	010H
	DB	0aH
	DB	0bH
	DB	0aH
	DB	04fH
	DB	03cH
	DB	02H
	DB	018H
	DB	01H
	DB	01cH
	DB	02H
	DB	02H
	DB	02H
	DB	021H
	DB	02fH
	DB	05H
	DB	06H
	DB	05cH
	DB	021H
	DB	0eH
	DB	019H
	DB	022H
	DB	041H
	DB	01H
	DB	02dH
	DB	049H
	DB	024H
	DB	01cH
	DB	01H
	DB	01H
	DB	027H
	DB	02dH
	DB	03H
	DB	036H
	DB	02H
	DB	018H
	DB	018H
	DB	049H
	DB	044H
	DB	06H
	DB	05H
	DB	02H
	DB	01H
	DB	01H
	DB	01H
	DB	01H
	DB	01H
	DB	01H
	DB	01H
	DB	01H
	DB	01H
	DB	01H
	DB	01H
	DB	01H
	DB	01H
	DB	01H
	DB	01H
	DB	01H
	DB	01H
	DB	02dH
	DB	06H
	DB	039H
	DB	01H
	DB	01H
	DB	01H
	DB	01H
	DB	01H
	DB	01H
	DB	01H
	DB	01H
	DB	01H
	DB	01H
	DB	01H
	DB	01H
	DB	01H
	DB	01H
	DB	01H
	DB	01H
	DB	01H
	DB	01H
	DB	01H
	DB	01H
	DB	01H
	DB	01H
	DB	01H
	DB	01H
	DB	01H
	DB	01H
	DB	01H
	DB	01H
	DB	01H
	DB	01H
	DB	01H
	DB	01H
	DB	01H
	DB	01H
	DB	01H
	DB	01H
	DB	01H
	DB	01H
	DB	01H
	DB	01H
	DB	01H
	DB	01H
	DB	01H
	DB	01H
	DB	01H
	DB	01H
	DB	01H
	DB	01H
	DB	01H
	DB	01H
	DB	01H
	DB	01H
	DB	01H
	DB	01H
	DB	01H
	DB	01H
	DB	01H
	DB	01H
	DB	01H
	DB	01H
	DB	01H
	DB	01H
	DB	01H
	DB	01H
	DB	01H
	DB	01H
	DB	01H
	DB	01H
	DB	01H
	DB	01H
	DB	01H
	DB	01H
	DB	01H
	DB	01H
	DB	01H
	DB	01H
	DB	01H
	DB	018H
	DB	013H
	DB	013H
	DB	018H
	DB	013H
	DB	010H
	DB	010H
	DB	02H
	DB	010H
	DB	010H
	DB	02H
	DB	02H
	DB	038H
	DB	08H
	DB	02H
	DB	01cH
	DB	01cH
	DB	02H
	DB	02H
	DB	02H
	DB	02H
	DB	08H
	DB	02H
	DB	03H
	DB	03H
	DB	052H
	DB	0fH
	DB	0eH
	DB	0cH
	DB	01H
	DB	01H
	DB	018H
	DB	013H
	DB	01H
	DB	027H
	DB	08H
	DB	0b8H
	DB	052H
	DB	0eH
	DB	0fH
	DB	02H
	DB	018H
	DB	03H
	DB	0eH
	DB	0eH
	DB	0fH
	DB	018H
	DB	01cH
	DB	050H
	DB	041H
	DB	036H
	DB	019H
	DB	0eH
	DB	0fH
	DB	039H
	DB	041H
	DB	0eH
	DB	02dH
	DB	01H
	DB	01H
	DB	01H
	DB	01H
	DB	013H
	DB	02H
	DB	01cH
	DB	01H
	DB	018H
	DB	018H
	DB	01cH
	DB	02dH
	DB	02H
	DB	02dH
	DB	018H
	DB	018H
	DB	01H
	DB	01H
	DB	01H
	DB	018H
	DB	01cH
	DB	01cH
	DB	03H
	DB	0eH
	DB	0eH
	DB	039H
	DB	0fH
	DB	0eH
	DB	012H
	DB	09bH
	DB	036H
	DB	0fH
	DB	057H
	DB	0eH
	DB	024H
	DB	0aH
	DB	027H
	DB	018H
	DB	018H
	DB	02H
	DB	01cH
	DB	01H
	DB	036H
	DB	03H
	DB	02dH
	DB	02dH
	DB	02H
	DB	021H
	DB	049H
	DB	0bH
	DB	042H
	DB	049H
	DB	0aH
	DB	079H
	DB	011H
	DB	01H
	DB	01H
	DB	01H
	DB	01H
	DB	01H
	DB	01H
	DB	01H
	DB	01H
	DB	01H
	DB	01H
	DB	01H
	DB	01H
	DB	01H
	DB	01H
	DB	01H
	DB	01H
	DB	01H
	DB	02dH
	DB	06H
	DB	039H
	DB	01H
	DB	01H
	DB	01H
	DB	01H
	DB	01H
	DB	01H
	DB	01H
	DB	01H
	DB	01H
	DB	01H
	DB	01H
	DB	01H
	DB	01H
	DB	01H
	DB	01H
	DB	01H
	DB	01H
	DB	01H
	DB	01H
	DB	01H
	DB	01H
	DB	01H
	DB	01H
	DB	01H
	DB	01H
	DB	01H
	DB	01H
	DB	01H
	DB	01H
	DB	01H
	DB	01H
	DB	01H
	DB	01H
	DB	01H
	DB	01H
	DB	01H
	DB	01H
	DB	01H
	DB	01H
	DB	01H
	DB	01H
	DB	01H
	DB	01H
	DB	01H
	DB	01H
	DB	01H
	DB	01H
	DB	01H
	DB	01H
	DB	01H
	DB	01H
	DB	01H
	DB	01H
	DB	01H
	DB	01H
	DB	01H
	DB	01H
	DB	01H
	DB	01H
	DB	01H
	DB	01H
	DB	01H
	DB	01H
	DB	01H
	DB	01H
	DB	01H
	DB	01H
	DB	01H
	DB	01H
	DB	01H
	DB	01H
	DB	01H
	DB	01H
	DB	01H
	DB	01H
	DB	01H
	DB	01H
	DB	013H
	DB	010H
	DB	010H
	DB	010H
	DB	018H
	DB	018H
	DB	01H
	DB	013H
	DB	02H
	DB	02H
	DB	02H
	DB	02dH
	DB	02dH
	DB	02dH
	DB	08H
	DB	013H
	DB	01H
	DB	013H
	DB	013H
	DB	01cH
	DB	018H
	DB	02H
	DB	0cH
	DB	0cH
	DB	0cH
	DB	0cH
	DB	0cH
	DB	08H
	DB	0fH
	DB	0cH
	DB	08H
	DB	08H
	DB	02H
	DB	03H
	DB	05H
	DB	02dH
	DB	010H
	DB	0cH
	DB	0cH
	DB	05H
	DB	03H
	DB	01cH
	DB	0fH
	DB	041H
	DB	011H
	DB	011H
	DB	038H
	DB	018H
	DB	021H
	DB	01cH
	DB	021H
	DB	04fH
	DB	012H
	DB	02H
	DB	018H
	DB	02dH
	DB	01cH
	DB	01H
	DB	018H
	DB	027H
	DB	018H
	DB	013H
	DB	02H
	DB	01H
	DB	01H
	DB	013H
	DB	0eH
	DB	0aH
	DB	026H
	DB	03H
	DB	0cH
	DB	021H
	DB	02H
	DB	02H
	DB	01cH
	DB	02H
	DB	0eH
	DB	0cH
	DB	018H
	DB	01H
	DB	0fH
	DB	0eH
	DB	011H
	DB	0aH
	DB	012H
	DB	016H
	DB	0eH
	DB	026H
	DB	03H
	DB	02dH
	DB	02H
	DB	0cH
	DB	016H
	DB	03H
	DB	024H
	DB	02H
	DB	018H
	DB	018H
	DB	027H
	DB	02H
	DB	05H
	DB	03H
	DB	018H
	DB	01cH
	DB	013H
	DB	05H
	DB	05cH
	DB	050H
	DB	041H
	DB	022H
	DB	0e6H
	DB	06H
	DB	03bH
	DB	01H
	DB	01H
	DB	01H
	DB	01H
	DB	01H
	DB	01H
	DB	01H
	DB	01H
	DB	01H
	DB	01H
	DB	01H
	DB	01H
	DB	01H
	DB	01H
	DB	01H
	DB	01H
	DB	01H
	DB	02dH
	DB	06H
	DB	039H
	DB	01H
	DB	01H
	DB	01H
	DB	01H
	DB	01H
	DB	01H
	DB	01H
	DB	01H
	DB	01H
	DB	01H
	DB	01H
	DB	01H
	DB	01H
	DB	01H
	DB	01H
	DB	01H
	DB	01H
	DB	01H
	DB	01H
	DB	01H
	DB	01H
	DB	01H
	DB	01H
	DB	01H
	DB	01H
	DB	01H
	DB	01H
	DB	01H
	DB	01H
	DB	01H
	DB	01H
	DB	01H
	DB	01H
	DB	01H
	DB	01H
	DB	01H
	DB	01H
	DB	01H
	DB	01H
	DB	01H
	DB	01H
	DB	01H
	DB	01H
	DB	01H
	DB	01H
	DB	01H
	DB	01H
	DB	01H
	DB	01H
	DB	01H
	DB	01H
	DB	01H
	DB	01H
	DB	01H
	DB	01H
	DB	01H
	DB	01H
	DB	01H
	DB	01H
	DB	01H
	DB	01H
	DB	01H
	DB	01H
	DB	01H
	DB	01H
	DB	01H
	DB	01H
	DB	01H
	DB	01H
	DB	01H
	DB	01H
	DB	01H
	DB	01H
	DB	01H
	DB	01H
	DB	01H
	DB	01H
	DB	01H
	DB	013H
	DB	013H
	DB	01H
	DB	01H
	DB	01H
	DB	01H
	DB	013H
	DB	02H
	DB	013H
	DB	013H
	DB	010H
	DB	01cH
	DB	018H
	DB	02H
	DB	010H
	DB	010H
	DB	010H
	DB	013H
	DB	013H
	DB	01H
	DB	01H
	DB	018H
	DB	03H
	DB	05H
	DB	036H
	DB	018H
	DB	018H
	DB	03H
	DB	0cH
	DB	0cH
	DB	02H
	DB	02H
	DB	0eH
	DB	0eH
	DB	0fH
	DB	0cH
	DB	01cH
	DB	02H
	DB	05H
	DB	03H
	DB	018H
	DB	018H
	DB	018H
	DB	018H
	DB	02H
	DB	02fH
	DB	02dH
	DB	08H
	DB	08H
	DB	018H
	DB	02H
	DB	049H
	DB	0aH
	DB	036H
	DB	08H
	DB	02H
	DB	08H
	DB	02H
	DB	02H
	DB	018H
	DB	018H
	DB	027H
	DB	027H
	DB	018H
	DB	021H
	DB	05H
	DB	02dH
	DB	01cH
	DB	018H
	DB	0cH
	DB	03H
	DB	02H
	DB	02H
	DB	02H
	DB	02H
	DB	02H
	DB	013H
	DB	027H
	DB	010H
	DB	01cH
	DB	02H
	DB	01H
	DB	01cH
	DB	0eH
	DB	016H
	DB	022H
	DB	079H
	DB	02fH
	DB	02H
	DB	018H
	DB	013H
	DB	0cH
	DB	02H
	DB	038H
	DB	02H
	DB	02H
	DB	018H
	DB	018H
	DB	02H
	DB	0fH
	DB	02H
	DB	02H
	DB	05H
	DB	03H
	DB	018H
	DB	01H
	DB	0fH
	DB	02dH
	DB	03H
	DB	02dH
	DB	01cH
	DB	024H
	DB	01H
	DB	01H
	DB	01H
	DB	01H
	DB	01H
	DB	01H
	DB	01H
	DB	01H
	DB	01H
	DB	01H
	DB	01H
	DB	01H
	DB	01H
	DB	01H
	DB	01H
	DB	01H
	DB	01H
	DB	02dH
	DB	06H
	DB	039H
	DB	01H
	DB	01H
	DB	01H
	DB	01H
	DB	01H
	DB	01H
	DB	01H
	DB	01H
	DB	01H
	DB	01H
	DB	01H
	DB	01H
	DB	01H
	DB	01H
	DB	01H
	DB	01H
	DB	01H
	DB	01H
	DB	01H
	DB	01H
	DB	01H
	DB	01H
	DB	01H
	DB	01H
	DB	01H
	DB	01H
	DB	01H
	DB	01H
	DB	01H
	DB	01H
	DB	01H
	DB	01H
	DB	01H
	DB	01H
	DB	01H
	DB	01H
	DB	01H
	DB	01H
	DB	01H
	DB	01H
	DB	01H
	DB	01H
	DB	01H
	DB	01H
	DB	01H
	DB	01H
	DB	01H
	DB	01H
	DB	01H
	DB	01H
	DB	01H
	DB	01H
	DB	01H
	DB	01H
	DB	01H
	DB	01H
	DB	01H
	DB	01H
	DB	01H
	DB	01H
	DB	01H
	DB	01H
	DB	01H
	DB	01H
	DB	01H
	DB	01H
	DB	01H
	DB	01H
	DB	01H
	DB	01H
	DB	01H
	DB	01H
	DB	01H
	DB	01H
	DB	013H
	DB	013H
	DB	013H
	DB	013H
	DB	013H
	DB	018H
	DB	01H
	DB	01H
	DB	013H
	DB	018H
	DB	018H
	DB	018H
	DB	01H
	DB	01H
	DB	01H
	DB	018H
	DB	018H
	DB	02H
	DB	010H
	DB	010H
	DB	013H
	DB	013H
	DB	013H
	DB	013H
	DB	01H
	DB	018H
	DB	01cH
	DB	02H
	DB	02dH
	DB	018H
	DB	021H
	DB	026H
	DB	018H
	DB	027H
	DB	038H
	DB	02H
	DB	08H
	DB	010H
	DB	024H
	DB	02H
	DB	02H
	DB	0aH
	DB	049H
	DB	05H
	DB	018H
	DB	010H
	DB	027H
	DB	010H
	DB	03H
	DB	01cH
	DB	03H
	DB	012H
	DB	011H
	DB	0eH
	DB	010H
	DB	021H
	DB	034H
	DB	05H
	DB	01bH
	DB	011H
	DB	011H
	DB	05H
	DB	012H
	DB	0cH
	DB	01H
	DB	03H
	DB	042H
	DB	02H
	DB	018H
	DB	01cH
	DB	0aH
	DB	05H
	DB	018H
	DB	01H
	DB	01H
	DB	01H
	DB	01cH
	DB	02dH
	DB	01cH
	DB	03H
	DB	03H
	DB	02H
	DB	013H
	DB	018H
	DB	038H
	DB	08H
	DB	02H
	DB	011H
	DB	012H
	DB	016H
	DB	022H
	DB	0aH
	DB	02H
	DB	08H
	DB	010H
	DB	01H
	DB	018H
	DB	018H
	DB	018H
	DB	018H
	DB	018H
	DB	01H
	DB	018H
	DB	02H
	DB	018H
	DB	08H
	DB	036H
	DB	038H
	DB	02H
	DB	02H
	DB	032H
	DB	016H
	DB	02H
	DB	010H
	DB	02H
	DB	039H
	DB	01H
	DB	01H
	DB	01H
	DB	01H
	DB	01H
	DB	01H
	DB	01H
	DB	01H
	DB	01H
	DB	01H
	DB	01H
	DB	01H
	DB	01H
	DB	01H
	DB	01H
	DB	01H
	DB	01H
	DB	02dH
	DB	06H
	DB	039H
	DB	01H
	DB	01H
	DB	01H
	DB	01H
	DB	01H
	DB	01H
	DB	01H
	DB	01H
	DB	01H
	DB	01H
	DB	01H
	DB	01H
	DB	01H
	DB	01H
	DB	01H
	DB	01H
	DB	01H
	DB	01H
	DB	01H
	DB	01H
	DB	01H
	DB	01H
	DB	01H
	DB	01H
	DB	01H
	DB	01H
	DB	01H
	DB	01H
	DB	01H
	DB	01H
	DB	01H
	DB	01H
	DB	01H
	DB	01H
	DB	01H
	DB	01H
	DB	01H
	DB	01H
	DB	01H
	DB	01H
	DB	01H
	DB	01H
	DB	01H
	DB	01H
	DB	01H
	DB	01H
	DB	01H
	DB	01H
	DB	01H
	DB	01H
	DB	01H
	DB	01H
	DB	01H
	DB	01H
	DB	01H
	DB	01H
	DB	01H
	DB	01H
	DB	01H
	DB	01H
	DB	01H
	DB	01H
	DB	01H
	DB	01H
	DB	01H
	DB	01H
	DB	01H
	DB	01H
	DB	01H
	DB	01H
	DB	01H
	DB	01H
	DB	01H
	DB	01H
	DB	01H
	DB	018H
	DB	018H
	DB	018H
	DB	01H
	DB	01H
	DB	018H
	DB	027H
	DB	010H
	DB	018H
	DB	01H
	DB	010H
	DB	02H
	DB	013H
	DB	01H
	DB	018H
	DB	01H
	DB	01H
	DB	01H
	DB	013H
	DB	01H
	DB	01H
	DB	013H
	DB	013H
	DB	010H
	DB	02H
	DB	013H
	DB	010H
	DB	02H
	DB	03H
	DB	03H
	DB	02dH
	DB	013H
	DB	027H
	DB	02H
	DB	02H
	DB	013H
	DB	013H
	DB	08H
	DB	0fH
	DB	0fH
	DB	05H
	DB	0cH
	DB	0fH
	DB	08H
	DB	01cH
	DB	0cH
	DB	03H
	DB	02dH
	DB	018H
	DB	02H
	DB	08H
	DB	08H
	DB	0fH
	DB	036H
	DB	010H
	DB	08H
	DB	02dH
	DB	03H
	DB	02H
	DB	024H
	DB	02H
	DB	03H
	DB	03H
	DB	01H
	DB	02H
	DB	024H
	DB	02H
	DB	013H
	DB	01H
	DB	03H
	DB	036H
	DB	02H
	DB	039H
	DB	049H
	DB	027H
	DB	013H
	DB	018H
	DB	01cH
	DB	026H
	DB	02fH
	DB	02H
	DB	013H
	DB	01H
	DB	02dH
	DB	0aH
	DB	01bH
	DB	01bH
	DB	0bH
	DB	012H
	DB	03bH
	DB	032H
	DB	016H
	DB	036H
	DB	02H
	DB	02H
	DB	02dH
	DB	01cH
	DB	01H
	DB	01H
	DB	02H
	DB	0cH
	DB	08H
	DB	01cH
	DB	02dH
	DB	01cH
	DB	018H
	DB	01H
	DB	021H
	DB	036H
	DB	041H
	DB	05H
	DB	02H
	DB	02H
	DB	06H
	DB	06H
	DB	01H
	DB	01H
	DB	01H
	DB	01H
	DB	01H
	DB	01H
	DB	01H
	DB	01H
	DB	01H
	DB	01H
	DB	01H
	DB	01H
	DB	01H
	DB	01H
	DB	01H
	DB	01H
	DB	01H
	DB	02dH
	DB	06H
	DB	039H
	DB	01H
	DB	01H
	DB	01H
	DB	01H
	DB	01H
	DB	01H
	DB	01H
	DB	01H
	DB	01H
	DB	01H
	DB	01H
	DB	01H
	DB	01H
	DB	01H
	DB	01H
	DB	01H
	DB	01H
	DB	01H
	DB	01H
	DB	01H
	DB	01H
	DB	01H
	DB	01H
	DB	01H
	DB	01H
	DB	01H
	DB	01H
	DB	01H
	DB	01H
	DB	01H
	DB	01H
	DB	01H
	DB	01H
	DB	01H
	DB	01H
	DB	01H
	DB	01H
	DB	01H
	DB	01H
	DB	01H
	DB	01H
	DB	01H
	DB	01H
	DB	01H
	DB	01H
	DB	01H
	DB	01H
	DB	01H
	DB	01H
	DB	01H
	DB	01H
	DB	01H
	DB	01H
	DB	01H
	DB	01H
	DB	01H
	DB	01H
	DB	01H
	DB	01H
	DB	01H
	DB	01H
	DB	01H
	DB	01H
	DB	01H
	DB	01H
	DB	01H
	DB	01H
	DB	01H
	DB	01H
	DB	01H
	DB	01H
	DB	01H
	DB	01H
	DB	01H
	DB	01H
	DB	01H
	DB	01H
	DB	01H
	DB	01H
	DB	01H
	DB	01H
	DB	013H
	DB	010H
	DB	013H
	DB	013H
	DB	027H
	DB	02dH
	DB	02H
	DB	018H
	DB	01cH
	DB	018H
	DB	013H
	DB	013H
	DB	013H
	DB	013H
	DB	02H
	DB	08H
	DB	02H
	DB	0cH
	DB	0cH
	DB	010H
	DB	08H
	DB	08H
	DB	03H
	DB	03H
	DB	03H
	DB	018H
	DB	018H
	DB	018H
	DB	010H
	DB	0cH
	DB	0eH
	DB	052H
	DB	0cH
	DB	036H
	DB	02dH
	DB	01H
	DB	013H
	DB	08H
	DB	010H
	DB	013H
	DB	02H
	DB	018H
	DB	038H
	DB	0eH
	DB	0fH
	DB	03H
	DB	0eH
	DB	0cH
	DB	08H
	DB	012H
	DB	02H
	DB	05H
	DB	03cH
	DB	02fH
	DB	021H
	DB	02H
	DB	018H
	DB	01H
	DB	013H
	DB	027H
	DB	010H
	DB	02H
	DB	03H
	DB	02H
	DB	01cH
	DB	02H
	DB	024H
	DB	02fH
	DB	02H
	DB	0aH
	DB	039H
	DB	027H
	DB	01cH
	DB	02H
	DB	03H
	DB	02H
	DB	01H
	DB	01H
	DB	02H
	DB	03H
	DB	0cH
	DB	05bH
	DB	057H
	DB	022H
	DB	032H
	DB	022H
	DB	041H
	DB	0fH
	DB	0a4H
	DB	057H
	DB	026H
	DB	03H
	DB	0eH
	DB	0fH
	DB	018H
	DB	01H
	DB	01cH
	DB	02H
	DB	02H
	DB	021H
	DB	018H
	DB	01H
	DB	01H
	DB	053H
	DB	06H
	DB	08H
	DB	0cH
	DB	053H
	DB	03cH
	DB	01H
	DB	01H
	DB	01H
	DB	01H
	DB	01H
	DB	01H
	DB	01H
	DB	01H
	DB	01H
	DB	01H
	DB	01H
	DB	01H
	DB	01H
	DB	01H
	DB	01H
	DB	01H
	DB	01H
	DB	02dH
	DB	06H
	DB	039H
	DB	01H
	DB	01H
	DB	01H
	DB	01H
	DB	01H
	DB	01H
	DB	01H
	DB	01H
	DB	01H
	DB	01H
	DB	01H
	DB	01H
	DB	01H
	DB	01H
	DB	01H
	DB	01H
	DB	01H
	DB	01H
	DB	01H
	DB	01H
	DB	01H
	DB	01H
	DB	01H
	DB	01H
	DB	01H
	DB	01H
	DB	01H
	DB	01H
	DB	01H
	DB	01H
	DB	01H
	DB	01H
	DB	01H
	DB	01H
	DB	01H
	DB	01H
	DB	01H
	DB	01H
	DB	01H
	DB	01H
	DB	01H
	DB	01H
	DB	01H
	DB	01H
	DB	01H
	DB	01H
	DB	01H
	DB	01H
	DB	01H
	DB	01H
	DB	01H
	DB	01H
	DB	01H
	DB	01H
	DB	01H
	DB	01H
	DB	01H
	DB	01H
	DB	01H
	DB	01H
	DB	01H
	DB	01H
	DB	01H
	DB	01H
	DB	01H
	DB	01H
	DB	01H
	DB	01H
	DB	01H
	DB	01H
	DB	01H
	DB	01H
	DB	01H
	DB	01H
	DB	01H
	DB	01H
	DB	01H
	DB	018H
	DB	013H
	DB	027H
	DB	027H
	DB	010H
	DB	013H
	DB	013H
	DB	013H
	DB	013H
	DB	01cH
	DB	018H
	DB	018H
	DB	01H
	DB	018H
	DB	02H
	DB	010H
	DB	010H
	DB	0b8H
	DB	08H
	DB	08H
	DB	08H
	DB	02H
	DB	0fH
	DB	08H
	DB	08H
	DB	08H
	DB	010H
	DB	013H
	DB	01cH
	DB	038H
	DB	02H
	DB	0b8H
	DB	052H
	DB	052H
	DB	0fH
	DB	08H
	DB	0cH
	DB	024H
	DB	01cH
	DB	01H
	DB	01H
	DB	03H
	DB	02H
	DB	018H
	DB	018H
	DB	010H
	DB	011H
	DB	011H
	DB	012H
	DB	01bH
	DB	05bH
	DB	012H
	DB	0cH
	DB	010H
	DB	02dH
	DB	079H
	DB	041H
	DB	03H
	DB	03H
	DB	0cH
	DB	013H
	DB	018H
	DB	02H
	DB	02H
	DB	03H
	DB	012H
	DB	0e6H
	DB	03cH
	DB	027H
	DB	0fH
	DB	010H
	DB	013H
	DB	01H
	DB	02H
	DB	0eH
	DB	016H
	DB	02dH
	DB	018H
	DB	018H
	DB	01H
	DB	01H
	DB	018H
	DB	0fH
	DB	0cH
	DB	0eH
	DB	057H
	DB	0edH
	DB	05bH
	DB	012H
	DB	02dH
	DB	013H
	DB	02H
	DB	05bH
	DB	012H
	DB	01H
	DB	02H
	DB	03H
	DB	012H
	DB	0aH
	DB	03H
	DB	027H
	DB	013H
	DB	03H
	DB	05H
	DB	0aH
	DB	026H
	DB	02dH
	DB	05cH
	DB	041H
	DB	0eH
	DB	01bH
	DB	011H
	DB	012H
	DB	01H
	DB	01H
	DB	01H
	DB	01H
	DB	01H
	DB	01H
	DB	01H
	DB	01H
	DB	01H
	DB	01H
	DB	01H
	DB	01H
	DB	01H
	DB	01H
	DB	01H
	DB	01H
	DB	01H
	DB	02dH
	DB	06H
	DB	039H
	DB	01H
	DB	01H
	DB	01H
	DB	01H
	DB	01H
	DB	01H
	DB	01H
	DB	01H
	DB	01H
	DB	01H
	DB	01H
	DB	01H
	DB	01H
	DB	01H
	DB	01H
	DB	01H
	DB	01H
	DB	01H
	DB	01H
	DB	01H
	DB	01H
	DB	01H
	DB	01H
	DB	01H
	DB	01H
	DB	01H
	DB	01H
	DB	01H
	DB	01H
	DB	01H
	DB	01H
	DB	01H
	DB	01H
	DB	01H
	DB	01H
	DB	01H
	DB	01H
	DB	01H
	DB	01H
	DB	01H
	DB	01H
	DB	01H
	DB	01H
	DB	01H
	DB	01H
	DB	01H
	DB	01H
	DB	01H
	DB	01H
	DB	01H
	DB	01H
	DB	01H
	DB	01H
	DB	01H
	DB	01H
	DB	01H
	DB	01H
	DB	01H
	DB	01H
	DB	01H
	DB	01H
	DB	01H
	DB	01H
	DB	01H
	DB	01H
	DB	01H
	DB	01H
	DB	01H
	DB	01H
	DB	01H
	DB	01H
	DB	013H
	DB	01H
	DB	01H
	DB	01H
	DB	01H
	DB	013H
	DB	013H
	DB	013H
	DB	01cH
	DB	010H
	DB	01cH
	DB	01H
	DB	01H
	DB	01H
	DB	013H
	DB	018H
	DB	018H
	DB	027H
	DB	027H
	DB	018H
	DB	010H
	DB	02H
	DB	08H
	DB	02H
	DB	02H
	DB	02dH
	DB	03H
	DB	02H
	DB	0cH
	DB	03H
	DB	0cH
	DB	0b8H
	DB	0b8H
	DB	0cH
	DB	03H
	DB	02dH
	DB	01H
	DB	02H
	DB	0eH
	DB	0eH
	DB	08H
	DB	027H
	DB	01cH
	DB	027H
	DB	027H
	DB	010H
	DB	027H
	DB	02H
	DB	01cH
	DB	02dH
	DB	02H
	DB	08H
	DB	05H
	DB	01bH
	DB	05H
	DB	03H
	DB	05H
	DB	0fH
	DB	013H
	DB	038H
	DB	01cH
	DB	010H
	DB	021H
	DB	02H
	DB	018H
	DB	018H
	DB	018H
	DB	01cH
	DB	021H
	DB	02H
	DB	02H
	DB	05H
	DB	05H
	DB	036H
	DB	024H
	DB	02H
	DB	08H
	DB	052H
	DB	02H
	DB	02H
	DB	012H
	DB	06H
	DB	016H
	DB	05H
	DB	01H
	DB	01H
	DB	01cH
	DB	02dH
	DB	019H
	DB	019H
	DB	022H
	DB	06H
	DB	011H
	DB	011H
	DB	038H
	DB	06H
	DB	050H
	DB	03H
	DB	01cH
	DB	01H
	DB	01cH
	DB	034H
	DB	02H
	DB	01cH
	DB	079H
	DB	032H
	DB	067H
	DB	024H
	DB	018H
	DB	049H
	DB	01cH
	DB	03cH
	DB	077H
	DB	041H
	DB	0fH
	DB	05H
	DB	0aH
	DB	03bH
	DB	0aH
	DB	01H
	DB	01H
	DB	01H
	DB	01H
	DB	01H
	DB	01H
	DB	01H
	DB	01H
	DB	01H
	DB	01H
	DB	01H
	DB	01H
	DB	01H
	DB	01H
	DB	01H
	DB	01H
	DB	01H
	DB	02dH
	DB	06H
	DB	039H
	DB	01H
	DB	01H
	DB	01H
	DB	01H
	DB	01H
	DB	01H
	DB	01H
	DB	01H
	DB	01H
	DB	01H
	DB	01H
	DB	01H
	DB	01H
	DB	01H
	DB	01H
	DB	01H
	DB	01H
	DB	01H
	DB	01H
	DB	01H
	DB	01H
	DB	01H
	DB	01H
	DB	01H
	DB	01H
	DB	01H
	DB	01H
	DB	01H
	DB	01H
	DB	01H
	DB	01H
	DB	01H
	DB	01H
	DB	01H
	DB	01H
	DB	01H
	DB	01H
	DB	01H
	DB	01H
	DB	01H
	DB	01H
	DB	01H
	DB	01H
	DB	01H
	DB	01H
	DB	01H
	DB	01H
	DB	01H
	DB	01H
	DB	01H
	DB	01H
	DB	01H
	DB	01H
	DB	01H
	DB	01H
	DB	01H
	DB	01H
	DB	01H
	DB	01H
	DB	01H
	DB	01H
	DB	01H
	DB	01H
	DB	01H
	DB	01H
	DB	01H
	DB	01H
	DB	01H
	DB	01H
	DB	01H
	DB	01H
	DB	01H
	DB	013H
	DB	01H
	DB	01H
	DB	013H
	DB	013H
	DB	013H
	DB	013H
	DB	013H
	DB	018H
	DB	018H
	DB	013H
	DB	013H
	DB	013H
	DB	013H
	DB	013H
	DB	013H
	DB	02H
	DB	02H
	DB	02H
	DB	08H
	DB	02H
	DB	02dH
	DB	02H
	DB	010H
	DB	010H
	DB	02H
	DB	08H
	DB	0cH
	DB	0cH
	DB	0cH
	DB	03H
	DB	03H
	DB	03H
	DB	0cH
	DB	01H
	DB	02H
	DB	039H
	DB	05H
	DB	03H
	DB	02H
	DB	02H
	DB	01cH
	DB	02H
	DB	027H
	DB	018H
	DB	03H
	DB	0eH
	DB	011H
	DB	011H
	DB	0eH
	DB	0fH
	DB	03H
	DB	03H
	DB	0cH
	DB	010H
	DB	018H
	DB	018H
	DB	08H
	DB	036H
	DB	013H
	DB	01H
	DB	01H
	DB	01H
	DB	01H
	DB	01H
	DB	01H
	DB	01H
	DB	018H
	DB	02H
	DB	02H
	DB	01H
	DB	01H
	DB	018H
	DB	02H
	DB	012H
	DB	01bH
	DB	011H
	DB	02dH
	DB	021H
	DB	02fH
	DB	021H
	DB	02H
	DB	02dH
	DB	018H
	DB	02H
	DB	011H
	DB	012H
	DB	024H
	DB	0eH
	DB	0fH
	DB	03H
	DB	024H
	DB	03H
	DB	026H
	DB	03H
	DB	01cH
	DB	01cH
	DB	018H
	DB	013H
	DB	03H
	DB	093H
	DB	050H
	DB	02H
	DB	03H
	DB	0bH
	DB	03H
	DB	02H
	DB	026H
	DB	050H
	DB	02dH
	DB	02fH
	DB	041H
	DB	05H
	DB	020H
	DB	036H
	DB	018H
	DB	03cH
	DB	021H
	DB	01H
	DB	01H
	DB	01H
	DB	01H
	DB	01H
	DB	01H
	DB	01H
	DB	01H
	DB	01H
	DB	01H
	DB	01H
	DB	01H
	DB	01H
	DB	01H
	DB	01H
	DB	01H
	DB	01H
	DB	02dH
	DB	06H
	DB	039H
	DB	01H
	DB	01H
	DB	01H
	DB	01H
	DB	01H
	DB	01H
	DB	01H
	DB	01H
	DB	01H
	DB	01H
	DB	01H
	DB	01H
	DB	01H
	DB	01H
	DB	01H
	DB	01H
	DB	01H
	DB	01H
	DB	01H
	DB	01H
	DB	01H
	DB	01H
	DB	01H
	DB	01H
	DB	01H
	DB	01H
	DB	01H
	DB	01H
	DB	01H
	DB	01H
	DB	01H
	DB	01H
	DB	01H
	DB	01H
	DB	01H
	DB	01H
	DB	01H
	DB	01H
	DB	01H
	DB	01H
	DB	01H
	DB	01H
	DB	01H
	DB	01H
	DB	01H
	DB	01H
	DB	01H
	DB	01H
	DB	01H
	DB	01H
	DB	01H
	DB	01H
	DB	01H
	DB	01H
	DB	01H
	DB	01H
	DB	01H
	DB	01H
	DB	01H
	DB	01H
	DB	01H
	DB	01H
	DB	01H
	DB	01H
	DB	01H
	DB	01H
	DB	01H
	DB	01H
	DB	01H
	DB	01H
	DB	01H
	DB	01H
	DB	01H
	DB	01H
	DB	01H
	DB	013H
	DB	013H
	DB	013H
	DB	013H
	DB	013H
	DB	013H
	DB	01H
	DB	01H
	DB	013H
	DB	010H
	DB	02H
	DB	02H
	DB	02H
	DB	02H
	DB	02H
	DB	02H
	DB	010H
	DB	02H
	DB	013H
	DB	02H
	DB	08H
	DB	08H
	DB	08H
	DB	0cH
	DB	03H
	DB	08H
	DB	03H
	DB	0fH
	DB	02H
	DB	013H
	DB	013H
	DB	02H
	DB	03H
	DB	02H
	DB	018H
	DB	013H
	DB	013H
	DB	02H
	DB	03H
	DB	010H
	DB	018H
	DB	027H
	DB	05H
	DB	0fH
	DB	03H
	DB	011H
	DB	0eH
	DB	011H
	DB	05H
	DB	010H
	DB	010H
	DB	02H
	DB	01cH
	DB	01cH
	DB	038H
	DB	01cH
	DB	013H
	DB	018H
	DB	018H
	DB	018H
	DB	021H
	DB	0aH
	DB	0fH
	DB	01H
	DB	018H
	DB	02H
	DB	02H
	DB	0eH
	DB	02H
	DB	01H
	DB	018H
	DB	02dH
	DB	02H
	DB	02H
	DB	0eH
	DB	0bH
	DB	067H
	DB	03H
	DB	01H
	DB	01H
	DB	08H
	DB	02H
	DB	03H
	DB	016H
	DB	012H
	DB	02H
	DB	026H
	DB	053H
	DB	02fH
	DB	0aH
	DB	06H
	DB	0aH
	DB	02H
	DB	02dH
	DB	021H
	DB	03H
	DB	024H
	DB	02H
	DB	021H
	DB	036H
	DB	036H
	DB	03H
	DB	03H
	DB	02dH
	DB	03H
	DB	05cH
	DB	0bH
	DB	02dH
	DB	03H
	DB	026H
	DB	05H
	DB	03H
	DB	01bH
	DB	022H
	DB	022H
	DB	01H
	DB	01H
	DB	01H
	DB	01H
	DB	01H
	DB	01H
	DB	01H
	DB	01H
	DB	01H
	DB	01H
	DB	01H
	DB	01H
	DB	01H
	DB	01H
	DB	01H
	DB	01H
	DB	01H
	DB	02dH
	DB	06H
	DB	039H
	DB	01H
	DB	01H
	DB	01H
	DB	01H
	DB	01H
	DB	01H
	DB	01H
	DB	01H
	DB	01H
	DB	01H
	DB	01H
	DB	01H
	DB	01H
	DB	01H
	DB	01H
	DB	01H
	DB	01H
	DB	01H
	DB	01H
	DB	01H
	DB	01H
	DB	01H
	DB	01H
	DB	01H
	DB	01H
	DB	01H
	DB	01H
	DB	01H
	DB	01H
	DB	01H
	DB	01H
	DB	01H
	DB	01H
	DB	01H
	DB	01H
	DB	01H
	DB	01H
	DB	01H
	DB	01H
	DB	01H
	DB	01H
	DB	01H
	DB	01H
	DB	01H
	DB	01H
	DB	01H
	DB	01H
	DB	01H
	DB	01H
	DB	01H
	DB	01H
	DB	01H
	DB	01H
	DB	01H
	DB	01H
	DB	01H
	DB	01H
	DB	01H
	DB	01H
	DB	01H
	DB	01H
	DB	01H
	DB	01H
	DB	01H
	DB	01H
	DB	01H
	DB	01H
	DB	01H
	DB	01H
	DB	01H
	DB	01H
	DB	01H
	DB	01H
	DB	01H
	DB	01H
	DB	01H
	DB	01H
	DB	013H
	DB	013H
	DB	01H
	DB	01H
	DB	01H
	DB	01H
	DB	013H
	DB	010H
	DB	02H
	DB	013H
	DB	018H
	DB	013H
	DB	013H
	DB	018H
	DB	01H
	DB	013H
	DB	027H
	DB	013H
	DB	010H
	DB	0cH
	DB	03H
	DB	0cH
	DB	03H
	DB	0fH
	DB	0fH
	DB	0fH
	DB	036H
	DB	01cH
	DB	013H
	DB	0fH
	DB	0fH
	DB	013H
	DB	01H
	DB	01H
	DB	02H
	DB	05H
	DB	041H
	DB	0cH
	DB	018H
	DB	02H
	DB	03H
	DB	018H
	DB	08H
	DB	011H
	DB	0eH
	DB	011H
	DB	011H
	DB	0cH
	DB	013H
	DB	018H
	DB	018H
	DB	013H
	DB	018H
	DB	027H
	DB	018H
	DB	018H
	DB	01cH
	DB	01cH
	DB	018H
	DB	02dH
	DB	0eH
	DB	010H
	DB	018H
	DB	010H
	DB	010H
	DB	08H
	DB	02dH
	DB	02H
	DB	03H
	DB	02H
	DB	0cH
	DB	0fH
	DB	038H
	DB	02dH
	DB	02dH
	DB	01H
	DB	018H
	DB	0bH
	DB	06H
	DB	02dH
	DB	01H
	DB	01H
	DB	026H
	DB	02dH
	DB	012H
	DB	022H
	DB	019H
	DB	057H
	DB	057H
	DB	03bH
	DB	036H
	DB	01cH
	DB	0cH
	DB	03H
	DB	03H
	DB	049H
	DB	0bH
	DB	0fH
	DB	02dH
	DB	02fH
	DB	0aH
	DB	02H
	DB	01cH
	DB	02fH
	DB	03H
	DB	02dH
	DB	021H
	DB	02dH
	DB	02dH
	DB	02H
	DB	01bH
	DB	0aH
	DB	036H
	DB	01H
	DB	01H
	DB	01H
	DB	01H
	DB	01H
	DB	01H
	DB	01H
	DB	01H
	DB	01H
	DB	01H
	DB	01H
	DB	01H
	DB	01H
	DB	01H
	DB	01H
	DB	01H
	DB	01H
	DB	02dH
	DB	06H
	DB	039H
	DB	01H
	DB	01H
	DB	01H
	DB	01H
	DB	01H
	DB	01H
	DB	01H
	DB	01H
	DB	01H
	DB	01H
	DB	01H
	DB	01H
	DB	01H
	DB	01H
	DB	01H
	DB	01H
	DB	01H
	DB	01H
	DB	01H
	DB	01H
	DB	01H
	DB	01H
	DB	01H
	DB	01H
	DB	01H
	DB	01H
	DB	01H
	DB	01H
	DB	01H
	DB	01H
	DB	01H
	DB	01H
	DB	01H
	DB	01H
	DB	01H
	DB	01H
	DB	01H
	DB	01H
	DB	01H
	DB	01H
	DB	01H
	DB	01H
	DB	01H
	DB	01H
	DB	01H
	DB	01H
	DB	01H
	DB	01H
	DB	01H
	DB	01H
	DB	01H
	DB	01H
	DB	01H
	DB	01H
	DB	01H
	DB	01H
	DB	01H
	DB	01H
	DB	01H
	DB	01H
	DB	01H
	DB	01H
	DB	01H
	DB	01H
	DB	01H
	DB	01H
	DB	01H
	DB	01H
	DB	01H
	DB	01H
	DB	01H
	DB	01H
	DB	01H
	DB	01H
	DB	01H
	DB	01H
	DB	01H
	DB	01H
	DB	01H
	DB	01H
	DB	01H
	DB	013H
	DB	010H
	DB	02H
	DB	010H
	DB	010H
	DB	013H
	DB	01H
	DB	01H
	DB	01H
	DB	01H
	DB	01H
	DB	010H
	DB	02H
	DB	08H
	DB	02H
	DB	018H
	DB	01H
	DB	01H
	DB	018H
	DB	02dH
	DB	03H
	DB	036H
	DB	036H
	DB	013H
	DB	010H
	DB	05H
	DB	011H
	DB	0eH
	DB	03H
	DB	02dH
	DB	01cH
	DB	05H
	DB	0aH
	DB	0eH
	DB	0eH
	DB	041H
	DB	0aH
	DB	0cH
	DB	03H
	DB	0fH
	DB	0fH
	DB	011H
	DB	011H
	DB	0fH
	DB	02H
	DB	018H
	DB	03H
	DB	02H
	DB	027H
	DB	018H
	DB	01H
	DB	01H
	DB	018H
	DB	018H
	DB	02H
	DB	01cH
	DB	01H
	DB	018H
	DB	018H
	DB	018H
	DB	013H
	DB	01H
	DB	01H
	DB	02H
	DB	02fH
	DB	049H
	DB	0bH
	DB	0aH
	DB	036H
	DB	013H
	DB	01H
	DB	01H
	DB	03H
	DB	093H
	DB	03cH
	DB	01H
	DB	01H
	DB	04bH
	DB	0a3H
	DB	0a5H
	DB	07eH
	DB	060H
	DB	060H
	DB	060H
	DB	04cH
	DB	04cH
	DB	0b1H
	DB	013H
	DB	05H
	DB	0fH
	DB	02dH
	DB	02H
	DB	01bH
	DB	012H
	DB	02H
	DB	021H
	DB	021H
	DB	02H
	DB	02H
	DB	013H
	DB	010H
	DB	021H
	DB	039H
	DB	06H
	DB	079H
	DB	027H
	DB	018H
	DB	01cH
	DB	018H
	DB	01H
	DB	01H
	DB	01H
	DB	01H
	DB	01H
	DB	01H
	DB	01H
	DB	01H
	DB	01H
	DB	01H
	DB	01H
	DB	01H
	DB	01H
	DB	01H
	DB	01H
	DB	01H
	DB	01H
	DB	02dH
	DB	06H
	DB	039H
	DB	01H
	DB	01H
	DB	01H
	DB	01H
	DB	01H
	DB	01H
	DB	01H
	DB	01H
	DB	01H
	DB	01H
	DB	01H
	DB	01H
	DB	01H
	DB	01H
	DB	01H
	DB	01H
	DB	01H
	DB	01H
	DB	01H
	DB	01H
	DB	01H
	DB	01H
	DB	01H
	DB	01H
	DB	01H
	DB	01H
	DB	01H
	DB	01H
	DB	01H
	DB	01H
	DB	01H
	DB	01H
	DB	01H
	DB	01H
	DB	01H
	DB	01H
	DB	01H
	DB	01H
	DB	01H
	DB	01H
	DB	01H
	DB	01H
	DB	01H
	DB	01H
	DB	01H
	DB	01H
	DB	01H
	DB	01H
	DB	01H
	DB	01H
	DB	01H
	DB	01H
	DB	01H
	DB	01H
	DB	01H
	DB	01H
	DB	01H
	DB	01H
	DB	01H
	DB	01H
	DB	01H
	DB	01H
	DB	01H
	DB	01H
	DB	01H
	DB	01H
	DB	01H
	DB	01H
	DB	01H
	DB	01H
	DB	01H
	DB	01H
	DB	01H
	DB	01H
	DB	01H
	DB	013H
	DB	018H
	DB	01H
	DB	01H
	DB	01H
	DB	01H
	DB	01H
	DB	018H
	DB	013H
	DB	01cH
	DB	018H
	DB	01H
	DB	018H
	DB	02H
	DB	02H
	DB	02H
	DB	013H
	DB	013H
	DB	02H
	DB	0cH
	DB	02dH
	DB	01H
	DB	01H
	DB	01H
	DB	01H
	DB	018H
	DB	024H
	DB	039H
	DB	05H
	DB	0fH
	DB	036H
	DB	0eH
	DB	05H
	DB	05H
	DB	049H
	DB	05H
	DB	027H
	DB	03H
	DB	036H
	DB	036H
	DB	041H
	DB	0aH
	DB	0aH
	DB	012H
	DB	0aH
	DB	0eH
	DB	0fH
	DB	010H
	DB	039H
	DB	0aH
	DB	0aH
	DB	0eH
	DB	02H
	DB	018H
	DB	027H
	DB	02H
	DB	010H
	DB	0cH
	DB	02H
	DB	018H
	DB	01cH
	DB	01cH
	DB	01cH
	DB	0cH
	DB	05H
	DB	05H
	DB	024H
	DB	01cH
	DB	01H
	DB	038H
	DB	03H
	DB	02fH
	DB	024H
	DB	018H
	DB	01H
	DB	01H
	DB	01H
	DB	018H
	DB	02H
	DB	02H
	DB	018H
	DB	01H
	DB	01eH
	DB	07eH
	DB	015H
	DB	015H
	DB	015H
	DB	04cH
	DB	064H
	DB	04cH
	DB	015H
	DB	015H
	DB	015H
	DB	0b9H
	DB	024H
	DB	02fH
	DB	02H
	DB	01cH
	DB	02H
	DB	02H
	DB	01H
	DB	05H
	DB	03H
	DB	03H
	DB	049H
	DB	02H
	DB	02H
	DB	02dH
	DB	04fH
	DB	067H
	DB	021H
	DB	01H
	DB	02H
	DB	021H
	DB	01H
	DB	01H
	DB	01H
	DB	01H
	DB	01H
	DB	01H
	DB	01H
	DB	01H
	DB	01H
	DB	01H
	DB	01H
	DB	01H
	DB	01H
	DB	01H
	DB	01H
	DB	01H
	DB	01H
	DB	01H
	DB	02dH
	DB	06H
	DB	039H
	DB	01H
	DB	01H
	DB	01H
	DB	01H
	DB	01H
	DB	01H
	DB	01H
	DB	01H
	DB	01H
	DB	01H
	DB	01H
	DB	01H
	DB	01H
	DB	01H
	DB	01H
	DB	01H
	DB	01H
	DB	01H
	DB	01H
	DB	01H
	DB	01H
	DB	01H
	DB	01H
	DB	01H
	DB	01H
	DB	01H
	DB	01H
	DB	01H
	DB	01H
	DB	01H
	DB	01H
	DB	01H
	DB	01H
	DB	01H
	DB	01H
	DB	01H
	DB	01H
	DB	01H
	DB	01H
	DB	01H
	DB	01H
	DB	01H
	DB	01H
	DB	01H
	DB	01H
	DB	01H
	DB	01H
	DB	01H
	DB	01H
	DB	01H
	DB	01H
	DB	01H
	DB	01H
	DB	01H
	DB	01H
	DB	01H
	DB	01H
	DB	01H
	DB	01H
	DB	01H
	DB	01H
	DB	01H
	DB	01H
	DB	01H
	DB	01H
	DB	01H
	DB	01H
	DB	01H
	DB	01H
	DB	01H
	DB	01H
	DB	013H
	DB	01H
	DB	01H
	DB	01H
	DB	01H
	DB	01H
	DB	01H
	DB	01H
	DB	01H
	DB	018H
	DB	018H
	DB	01H
	DB	018H
	DB	010H
	DB	02H
	DB	02H
	DB	02dH
	DB	0cH
	DB	0cH
	DB	0cH
	DB	02H
	DB	013H
	DB	013H
	DB	010H
	DB	01H
	DB	01H
	DB	01H
	DB	01H
	DB	013H
	DB	013H
	DB	01cH
	DB	03H
	DB	03H
	DB	03H
	DB	01cH
	DB	01H
	DB	01cH
	DB	02H
	DB	0cH
	DB	0fH
	DB	0eH
	DB	0eH
	DB	0eH
	DB	011H
	DB	036H
	DB	03H
	DB	041H
	DB	04fH
	DB	0bH
	DB	036H
	DB	02dH
	DB	026H
	DB	0bH
	DB	04fH
	DB	02fH
	DB	021H
	DB	02H
	DB	02H
	DB	01cH
	DB	036H
	DB	02H
	DB	018H
	DB	01H
	DB	02H
	DB	0eH
	DB	02H
	DB	02H
	DB	0bH
	DB	041H
	DB	02dH
	DB	03H
	DB	018H
	DB	02H
	DB	036H
	DB	02H
	DB	01H
	DB	01H
	DB	01H
	DB	018H
	DB	039H
	DB	038H
	DB	01H
	DB	01H
	DB	01H
	DB	01H
	DB	036H
	DB	0ccH
	DB	04H
	DB	015H
	DB	015H
	DB	015H
	DB	060H
	DB	072H
	DB	060H
	DB	015H
	DB	015H
	DB	04H
	DB	046H
	DB	018H
	DB	02fH
	DB	01cH
	DB	02H
	DB	01cH
	DB	021H
	DB	05H
	DB	0aH
	DB	039H
	DB	021H
	DB	053H
	DB	06H
	DB	02H
	DB	021H
	DB	02fH
	DB	01cH
	DB	0aH
	DB	079H
	DB	05H
	DB	050H
	DB	09bH
	DB	01H
	DB	01H
	DB	01H
	DB	01H
	DB	01H
	DB	01H
	DB	01H
	DB	01H
	DB	01H
	DB	01H
	DB	01H
	DB	01H
	DB	01H
	DB	01H
	DB	01H
	DB	01H
	DB	01H
	DB	02dH
	DB	06H
	DB	039H
	DB	01H
	DB	01H
	DB	01H
	DB	01H
	DB	01H
	DB	01H
	DB	01H
	DB	01H
	DB	01H
	DB	01H
	DB	01H
	DB	01H
	DB	01H
	DB	01H
	DB	01H
	DB	01H
	DB	01H
	DB	01H
	DB	01H
	DB	01H
	DB	01H
	DB	01H
	DB	01H
	DB	01H
	DB	01H
	DB	01H
	DB	01H
	DB	01H
	DB	01H
	DB	01H
	DB	01H
	DB	01H
	DB	01H
	DB	01H
	DB	01H
	DB	01H
	DB	01H
	DB	01H
	DB	01H
	DB	01H
	DB	01H
	DB	01H
	DB	01H
	DB	01H
	DB	01H
	DB	01H
	DB	01H
	DB	01H
	DB	01H
	DB	01H
	DB	01H
	DB	01H
	DB	01H
	DB	01H
	DB	01H
	DB	01H
	DB	01H
	DB	01H
	DB	01H
	DB	01H
	DB	01H
	DB	01H
	DB	01H
	DB	01H
	DB	01H
	DB	01H
	DB	01H
	DB	01H
	DB	01H
	DB	01H
	DB	01H
	DB	018H
	DB	01H
	DB	01H
	DB	013H
	DB	018H
	DB	01H
	DB	01H
	DB	013H
	DB	018H
	DB	01H
	DB	01cH
	DB	010H
	DB	010H
	DB	013H
	DB	018H
	DB	010H
	DB	02H
	DB	0b8H
	DB	02H
	DB	08H
	DB	02H
	DB	01H
	DB	01H
	DB	01H
	DB	01H
	DB	01H
	DB	01H
	DB	018H
	DB	018H
	DB	01H
	DB	01H
	DB	018H
	DB	010H
	DB	010H
	DB	02H
	DB	027H
	DB	02H
	DB	052H
	DB	052H
	DB	08H
	DB	0cH
	DB	0fH
	DB	02dH
	DB	013H
	DB	01cH
	DB	03H
	DB	03H
	DB	03H
	DB	024H
	DB	018H
	DB	03H
	DB	021H
	DB	02dH
	DB	018H
	DB	01H
	DB	01cH
	DB	03cH
	DB	02H
	DB	01H
	DB	013H
	DB	01H
	DB	027H
	DB	039H
	DB	019H
	DB	01bH
	DB	018H
	DB	018H
	DB	026H
	DB	02dH
	DB	013H
	DB	01H
	DB	01H
	DB	01H
	DB	01H
	DB	01H
	DB	018H
	DB	02H
	DB	018H
	DB	018H
	DB	0aH
	DB	036H
	DB	01H
	DB	01H
	DB	01H
	DB	02H
	DB	0e6H
	DB	0eeH
	DB	04H
	DB	015H
	DB	015H
	DB	015H
	DB	015H
	DB	015H
	DB	015H
	DB	015H
	DB	015H
	DB	04H
	DB	046H
	DB	01H
	DB	041H
	DB	0aH
	DB	0aH
	DB	03H
	DB	02dH
	DB	02dH
	DB	036H
	DB	03H
	DB	02H
	DB	077H
	DB	0f6H
	DB	09bH
	DB	01cH
	DB	021H
	DB	02H
	DB	021H
	DB	02fH
	DB	036H
	DB	05H
	DB	050H
	DB	01H
	DB	01H
	DB	01H
	DB	01H
	DB	01H
	DB	01H
	DB	01H
	DB	01H
	DB	01H
	DB	01H
	DB	01H
	DB	01H
	DB	01H
	DB	01H
	DB	01H
	DB	01H
	DB	01H
	DB	02dH
	DB	06H
	DB	039H
	DB	01H
	DB	01H
	DB	01H
	DB	01H
	DB	01H
	DB	01H
	DB	01H
	DB	01H
	DB	01H
	DB	01H
	DB	01H
	DB	01H
	DB	01H
	DB	01H
	DB	01H
	DB	01H
	DB	01H
	DB	01H
	DB	01H
	DB	01H
	DB	01H
	DB	01H
	DB	01H
	DB	01H
	DB	01H
	DB	01H
	DB	01H
	DB	01H
	DB	01H
	DB	01H
	DB	01H
	DB	01H
	DB	01H
	DB	01H
	DB	01H
	DB	01H
	DB	01H
	DB	01H
	DB	01H
	DB	01H
	DB	01H
	DB	01H
	DB	01H
	DB	01H
	DB	01H
	DB	01H
	DB	01H
	DB	01H
	DB	01H
	DB	01H
	DB	01H
	DB	01H
	DB	01H
	DB	01H
	DB	01H
	DB	01H
	DB	01H
	DB	01H
	DB	01H
	DB	01H
	DB	01H
	DB	01H
	DB	01H
	DB	01H
	DB	01H
	DB	01H
	DB	01H
	DB	01H
	DB	01H
	DB	01H
	DB	01H
	DB	01H
	DB	01H
	DB	01H
	DB	01H
	DB	013H
	DB	01H
	DB	01H
	DB	013H
	DB	013H
	DB	013H
	DB	01H
	DB	01H
	DB	01H
	DB	01H
	DB	013H
	DB	02H
	DB	0b8H
	DB	0b8H
	DB	08H
	DB	08H
	DB	038H
	DB	08H
	DB	013H
	DB	01H
	DB	01H
	DB	013H
	DB	010H
	DB	02H
	DB	02H
	DB	013H
	DB	01H
	DB	018H
	DB	08H
	DB	0fH
	DB	0cH
	DB	0fH
	DB	0fH
	DB	03H
	DB	08H
	DB	013H
	DB	013H
	DB	013H
	DB	018H
	DB	02H
	DB	02H
	DB	018H
	DB	02H
	DB	018H
	DB	02H
	DB	08H
	DB	02dH
	DB	01cH
	DB	01H
	DB	018H
	DB	013H
	DB	08H
	DB	0fH
	DB	0b8H
	DB	027H
	DB	02H
	DB	018H
	DB	02H
	DB	02fH
	DB	036H
	DB	01cH
	DB	01H
	DB	01H
	DB	01H
	DB	01H
	DB	018H
	DB	01H
	DB	013H
	DB	01cH
	DB	018H
	DB	027H
	DB	03cH
	DB	0aH
	DB	02H
	DB	01H
	DB	013H
	DB	02H
	DB	013H
	DB	01H
	DB	018H
	DB	03H
	DB	04fH
	DB	06dH
	DB	015H
	DB	015H
	DB	015H
	DB	015H
	DB	015H
	DB	015H
	DB	015H
	DB	015H
	DB	015H
	DB	04H
	DB	046H
	DB	01H
	DB	03H
	DB	036H
	DB	038H
	DB	02H
	DB	018H
	DB	01H
	DB	01H
	DB	01H
	DB	01H
	DB	01H
	DB	042H
	DB	06H
	DB	02H
	DB	05H
	DB	03bH
	DB	0aH
	DB	02dH
	DB	067H
	DB	016H
	DB	01cH
	DB	01H
	DB	01H
	DB	01H
	DB	01H
	DB	01H
	DB	01H
	DB	01H
	DB	01H
	DB	01H
	DB	01H
	DB	01H
	DB	01H
	DB	01H
	DB	01H
	DB	01H
	DB	01H
	DB	01H
	DB	02dH
	DB	06H
	DB	039H
	DB	01H
	DB	01H
	DB	01H
	DB	01H
	DB	01H
	DB	01H
	DB	01H
	DB	01H
	DB	01H
	DB	01H
	DB	01H
	DB	01H
	DB	01H
	DB	01H
	DB	01H
	DB	01H
	DB	01H
	DB	01H
	DB	01H
	DB	01H
	DB	01H
	DB	01H
	DB	01H
	DB	01H
	DB	01H
	DB	01H
	DB	01H
	DB	01H
	DB	01H
	DB	01H
	DB	01H
	DB	01H
	DB	01H
	DB	01H
	DB	01H
	DB	01H
	DB	01H
	DB	01H
	DB	01H
	DB	01H
	DB	01H
	DB	01H
	DB	01H
	DB	01H
	DB	01H
	DB	01H
	DB	01H
	DB	01H
	DB	01H
	DB	01H
	DB	01H
	DB	01H
	DB	01H
	DB	01H
	DB	01H
	DB	01H
	DB	01H
	DB	01H
	DB	01H
	DB	01H
	DB	01H
	DB	01H
	DB	01H
	DB	01H
	DB	01H
	DB	01H
	DB	01H
	DB	01H
	DB	01H
	DB	01H
	DB	01H
	DB	01H
	DB	01H
	DB	01H
	DB	013H
	DB	01H
	DB	01H
	DB	01H
	DB	01H
	DB	013H
	DB	013H
	DB	01H
	DB	013H
	DB	013H
	DB	013H
	DB	018H
	DB	013H
	DB	010H
	DB	02H
	DB	08H
	DB	02H
	DB	02dH
	DB	02dH
	DB	02H
	DB	02H
	DB	0cH
	DB	03H
	DB	03H
	DB	03H
	DB	036H
	DB	02H
	DB	018H
	DB	018H
	DB	010H
	DB	0cH
	DB	02dH
	DB	03H
	DB	02H
	DB	018H
	DB	02H
	DB	010H
	DB	01H
	DB	02H
	DB	036H
	DB	0eH
	DB	0cH
	DB	013H
	DB	018H
	DB	02H
	DB	038H
	DB	03H
	DB	01cH
	DB	018H
	DB	018H
	DB	018H
	DB	02H
	DB	02H
	DB	010H
	DB	013H
	DB	018H
	DB	018H
	DB	010H
	DB	0eH
	DB	02H
	DB	018H
	DB	02H
	DB	018H
	DB	08H
	DB	079H
	DB	02H
	DB	0eH
	DB	03H
	DB	018H
	DB	018H
	DB	01cH
	DB	03H
	DB	02H
	DB	08H
	DB	010H
	DB	01H
	DB	01cH
	DB	010H
	DB	010H
	DB	02H
	DB	024H
	DB	024H
	DB	02dH
	DB	048H
	DB	015H
	DB	015H
	DB	015H
	DB	015H
	DB	015H
	DB	015H
	DB	015H
	DB	015H
	DB	015H
	DB	04H
	DB	048H
	DB	02H
	DB	01H
	DB	01H
	DB	01H
	DB	01H
	DB	01H
	DB	01H
	DB	038H
	DB	0fH
	DB	018H
	DB	018H
	DB	027H
	DB	039H
	DB	036H
	DB	03H
	DB	06H
	DB	022H
	DB	05H
	DB	024H
	DB	01cH
	DB	02H
	DB	01H
	DB	01H
	DB	01H
	DB	01H
	DB	01H
	DB	01H
	DB	01H
	DB	01H
	DB	01H
	DB	01H
	DB	01H
	DB	01H
	DB	01H
	DB	01H
	DB	01H
	DB	01H
	DB	01H
	DB	02dH
	DB	06H
	DB	039H
	DB	01H
	DB	01H
	DB	01H
	DB	01H
	DB	01H
	DB	01H
	DB	01H
	DB	01H
	DB	01H
	DB	01H
	DB	01H
	DB	01H
	DB	01H
	DB	01H
	DB	01H
	DB	01H
	DB	01H
	DB	01H
	DB	01H
	DB	01H
	DB	01H
	DB	01H
	DB	01H
	DB	01H
	DB	01H
	DB	01H
	DB	01H
	DB	01H
	DB	01H
	DB	01H
	DB	01H
	DB	01H
	DB	01H
	DB	01H
	DB	01H
	DB	01H
	DB	01H
	DB	01H
	DB	01H
	DB	01H
	DB	01H
	DB	01H
	DB	01H
	DB	01H
	DB	01H
	DB	01H
	DB	01H
	DB	01H
	DB	01H
	DB	01H
	DB	01H
	DB	01H
	DB	01H
	DB	01H
	DB	01H
	DB	01H
	DB	01H
	DB	01H
	DB	01H
	DB	01H
	DB	01H
	DB	01H
	DB	01H
	DB	01H
	DB	01H
	DB	01H
	DB	01H
	DB	01H
	DB	01H
	DB	01H
	DB	01H
	DB	01H
	DB	01H
	DB	01H
	DB	01H
	DB	01H
	DB	018H
	DB	013H
	DB	01H
	DB	013H
	DB	01H
	DB	01H
	DB	013H
	DB	013H
	DB	010H
	DB	010H
	DB	01H
	DB	01H
	DB	027H
	DB	02dH
	DB	02H
	DB	010H
	DB	01H
	DB	018H
	DB	036H
	DB	02dH
	DB	01cH
	DB	01H
	DB	01H
	DB	018H
	DB	010H
	DB	038H
	DB	03H
	DB	02dH
	DB	010H
	DB	010H
	DB	01H
	DB	021H
	DB	02H
	DB	03H
	DB	0cH
	DB	0cH
	DB	0eH
	DB	052H
	DB	0fH
	DB	0eH
	DB	011H
	DB	0fH
	DB	01cH
	DB	018H
	DB	01cH
	DB	027H
	DB	0cH
	DB	010H
	DB	01H
	DB	03H
	DB	0eH
	DB	010H
	DB	01H
	DB	010H
	DB	02H
	DB	026H
	DB	05H
	DB	018H
	DB	01cH
	DB	03H
	DB	02H
	DB	0cH
	DB	03H
	DB	018H
	DB	02H
	DB	018H
	DB	02H
	DB	039H
	DB	03H
	DB	03H
	DB	01cH
	DB	02dH
	DB	018H
	DB	01H
	DB	013H
	DB	0fH
	DB	02H
	DB	05H
	DB	038H
	DB	03H
	DB	016H
	DB	07eH
	DB	04H
	DB	015H
	DB	015H
	DB	015H
	DB	015H
	DB	015H
	DB	015H
	DB	015H
	DB	015H
	DB	04H
	DB	03aH
	DB	049H
	DB	03H
	DB	038H
	DB	0fH
	DB	036H
	DB	018H
	DB	02H
	DB	05H
	DB	02dH
	DB	010H
	DB	02H
	DB	03cH
	DB	03H
	DB	0eH
	DB	012H
	DB	01cH
	DB	02H
	DB	02H
	DB	010H
	DB	05H
	DB	02H
	DB	01H
	DB	01H
	DB	01H
	DB	01H
	DB	01H
	DB	01H
	DB	01H
	DB	01H
	DB	01H
	DB	01H
	DB	01H
	DB	01H
	DB	01H
	DB	01H
	DB	01H
	DB	01H
	DB	01H
	DB	02dH
	DB	06H
	DB	039H
	DB	01H
	DB	01H
	DB	01H
	DB	01H
	DB	01H
	DB	01H
	DB	01H
	DB	01H
	DB	01H
	DB	01H
	DB	01H
	DB	01H
	DB	01H
	DB	01H
	DB	01H
	DB	01H
	DB	01H
	DB	01H
	DB	01H
	DB	01H
	DB	01H
	DB	01H
	DB	01H
	DB	01H
	DB	01H
	DB	01H
	DB	01H
	DB	01H
	DB	01H
	DB	01H
	DB	01H
	DB	01H
	DB	01H
	DB	01H
	DB	01H
	DB	01H
	DB	01H
	DB	01H
	DB	01H
	DB	01H
	DB	01H
	DB	01H
	DB	01H
	DB	01H
	DB	01H
	DB	01H
	DB	01H
	DB	01H
	DB	01H
	DB	01H
	DB	01H
	DB	01H
	DB	01H
	DB	01H
	DB	01H
	DB	01H
	DB	01H
	DB	01H
	DB	01H
	DB	01H
	DB	01H
	DB	01H
	DB	01H
	DB	01H
	DB	01H
	DB	01H
	DB	01H
	DB	01H
	DB	01H
	DB	01H
	DB	01H
	DB	01H
	DB	01H
	DB	01H
	DB	01H
	DB	01H
	DB	01H
	DB	013H
	DB	01H
	DB	01H
	DB	01H
	DB	01H
	DB	010H
	DB	010H
	DB	013H
	DB	01H
	DB	01H
	DB	01H
	DB	01H
	DB	01H
	DB	027H
	DB	018H
	DB	027H
	DB	02H
	DB	018H
	DB	018H
	DB	013H
	DB	013H
	DB	01H
	DB	01H
	DB	010H
	DB	013H
	DB	01H
	DB	02H
	DB	0cH
	DB	013H
	DB	01H
	DB	018H
	DB	08H
	DB	011H
	DB	0fH
	DB	052H
	DB	052H
	DB	052H
	DB	052H
	DB	0eH
	DB	0eH
	DB	02H
	DB	018H
	DB	01H
	DB	01H
	DB	013H
	DB	03H
	DB	0cH
	DB	0cH
	DB	02dH
	DB	02H
	DB	013H
	DB	01H
	DB	02H
	DB	02H
	DB	03H
	DB	034H
	DB	02dH
	DB	018H
	DB	010H
	DB	02H
	DB	010H
	DB	013H
	DB	018H
	DB	010H
	DB	01H
	DB	01cH
	DB	036H
	DB	03H
	DB	02H
	DB	018H
	DB	03H
	DB	010H
	DB	01H
	DB	01H
	DB	01H
	DB	01cH
	DB	041H
	DB	05H
	DB	02fH
	DB	066H
	DB	04H
	DB	015H
	DB	015H
	DB	015H
	DB	015H
	DB	015H
	DB	015H
	DB	015H
	DB	015H
	DB	015H
	DB	04H
	DB	04H
	DB	0b9H
	DB	01cH
	DB	0fH
	DB	038H
	DB	02H
	DB	018H
	DB	02dH
	DB	013H
	DB	01H
	DB	08H
	DB	0eH
	DB	034H
	DB	02fH
	DB	0fH
	DB	012H
	DB	024H
	DB	03cH
	DB	02H
	DB	036H
	DB	044H
	DB	012H
	DB	01H
	DB	01H
	DB	01H
	DB	01H
	DB	01H
	DB	01H
	DB	01H
	DB	01H
	DB	01H
	DB	01H
	DB	01H
	DB	01H
	DB	01H
	DB	01H
	DB	01H
	DB	01H
	DB	01H
	DB	02dH
	DB	06H
	DB	039H
	DB	01H
	DB	01H
	DB	01H
	DB	01H
	DB	01H
	DB	01H
	DB	01H
	DB	01H
	DB	01H
	DB	01H
	DB	01H
	DB	01H
	DB	01H
	DB	01H
	DB	01H
	DB	01H
	DB	01H
	DB	01H
	DB	01H
	DB	01H
	DB	01H
	DB	01H
	DB	01H
	DB	01H
	DB	01H
	DB	01H
	DB	01H
	DB	01H
	DB	01H
	DB	01H
	DB	01H
	DB	01H
	DB	01H
	DB	01H
	DB	01H
	DB	01H
	DB	01H
	DB	01H
	DB	01H
	DB	01H
	DB	01H
	DB	01H
	DB	01H
	DB	01H
	DB	01H
	DB	01H
	DB	01H
	DB	01H
	DB	01H
	DB	01H
	DB	01H
	DB	01H
	DB	01H
	DB	01H
	DB	01H
	DB	01H
	DB	01H
	DB	01H
	DB	01H
	DB	01H
	DB	01H
	DB	01H
	DB	01H
	DB	01H
	DB	01H
	DB	01H
	DB	01H
	DB	01H
	DB	01H
	DB	01H
	DB	01H
	DB	013H
	DB	01H
	DB	01H
	DB	01H
	DB	01H
	DB	01H
	DB	01H
	DB	01H
	DB	01H
	DB	010H
	DB	010H
	DB	010H
	DB	02H
	DB	02H
	DB	013H
	DB	01H
	DB	01H
	DB	01H
	DB	018H
	DB	013H
	DB	08H
	DB	03H
	DB	02dH
	DB	01cH
	DB	021H
	DB	03H
	DB	08H
	DB	013H
	DB	01cH
	DB	01H
	DB	018H
	DB	01H
	DB	010H
	DB	010H
	DB	018H
	DB	013H
	DB	01H
	DB	013H
	DB	0eH
	DB	0fH
	DB	0fH
	DB	0eH
	DB	011H
	DB	052H
	DB	0cH
	DB	018H
	DB	018H
	DB	018H
	DB	010H
	DB	027H
	DB	03H
	DB	02H
	DB	026H
	DB	02fH
	DB	018H
	DB	018H
	DB	013H
	DB	01H
	DB	01H
	DB	038H
	DB	0aH
	DB	0bH
	DB	02dH
	DB	01H
	DB	010H
	DB	08H
	DB	08H
	DB	0cH
	DB	01H
	DB	01H
	DB	039H
	DB	021H
	DB	02H
	DB	024H
	DB	02H
	DB	08H
	DB	01bH
	DB	0eH
	DB	01H
	DB	01H
	DB	03H
	DB	0aH
	DB	021H
	DB	02H
	DB	036H
	DB	0b1H
	DB	04H
	DB	015H
	DB	015H
	DB	015H
	DB	015H
	DB	015H
	DB	015H
	DB	015H
	DB	015H
	DB	015H
	DB	04H
	DB	04H
	DB	04bH
	DB	034H
	DB	0eH
	DB	018H
	DB	01H
	DB	018H
	DB	021H
	DB	01H
	DB	03H
	DB	01bH
	DB	019H
	DB	0cH
	DB	01cH
	DB	05H
	DB	036H
	DB	02H
	DB	026H
	DB	02H
	DB	02dH
	DB	01bH
	DB	032H
	DB	01H
	DB	01H
	DB	01H
	DB	01H
	DB	01H
	DB	01H
	DB	01H
	DB	01H
	DB	01H
	DB	01H
	DB	01H
	DB	01H
	DB	01H
	DB	01H
	DB	01H
	DB	01H
	DB	01H
	DB	02dH
	DB	06H
	DB	039H
	DB	01H
	DB	01H
	DB	01H
	DB	01H
	DB	01H
	DB	01H
	DB	01H
	DB	01H
	DB	01H
	DB	01H
	DB	01H
	DB	01H
	DB	01H
	DB	01H
	DB	01H
	DB	01H
	DB	01H
	DB	01H
	DB	01H
	DB	01H
	DB	01H
	DB	01H
	DB	01H
	DB	01H
	DB	01H
	DB	01H
	DB	01H
	DB	01H
	DB	01H
	DB	01H
	DB	01H
	DB	01H
	DB	01H
	DB	01H
	DB	01H
	DB	01H
	DB	01H
	DB	01H
	DB	01H
	DB	01H
	DB	01H
	DB	01H
	DB	01H
	DB	01H
	DB	01H
	DB	01H
	DB	01H
	DB	01H
	DB	01H
	DB	01H
	DB	01H
	DB	01H
	DB	01H
	DB	01H
	DB	01H
	DB	01H
	DB	01H
	DB	01H
	DB	01H
	DB	01H
	DB	01H
	DB	01H
	DB	01H
	DB	01H
	DB	01H
	DB	01H
	DB	01H
	DB	01H
	DB	01H
	DB	01H
	DB	01H
	DB	013H
	DB	013H
	DB	01H
	DB	01H
	DB	01H
	DB	01H
	DB	01H
	DB	01H
	DB	013H
	DB	013H
	DB	010H
	DB	010H
	DB	010H
	DB	013H
	DB	01cH
	DB	018H
	DB	013H
	DB	013H
	DB	02H
	DB	02H
	DB	0cH
	DB	08H
	DB	02dH
	DB	013H
	DB	027H
	DB	02H
	DB	02H
	DB	018H
	DB	02H
	DB	013H
	DB	018H
	DB	013H
	DB	013H
	DB	03H
	DB	03H
	DB	010H
	DB	010H
	DB	0cH
	DB	010H
	DB	018H
	DB	03H
	DB	03H
	DB	03H
	DB	02H
	DB	08H
	DB	0cH
	DB	018H
	DB	013H
	DB	0fH
	DB	03H
	DB	010H
	DB	01cH
	DB	038H
	DB	018H
	DB	01H
	DB	018H
	DB	018H
	DB	03H
	DB	08H
	DB	018H
	DB	01cH
	DB	02H
	DB	018H
	DB	01H
	DB	01H
	DB	01H
	DB	01H
	DB	018H
	DB	01H
	DB	018H
	DB	034H
	DB	02fH
	DB	013H
	DB	010H
	DB	02H
	DB	02H
	DB	02dH
	DB	038H
	DB	05H
	DB	049H
	DB	0bH
	DB	06H
	DB	041H
	DB	026H
	DB	03H
	DB	06dH
	DB	04H
	DB	015H
	DB	015H
	DB	015H
	DB	015H
	DB	015H
	DB	015H
	DB	015H
	DB	015H
	DB	04H
	DB	04H
	DB	04H
	DB	0ccH
	DB	026H
	DB	01cH
	DB	02H
	DB	018H
	DB	05H
	DB	06H
	DB	036H
	DB	02H
	DB	01cH
	DB	01cH
	DB	018H
	DB	02H
	DB	03H
	DB	03cH
	DB	03H
	DB	02H
	DB	01cH
	DB	01H
	DB	01H
	DB	02dH
	DB	01H
	DB	01H
	DB	01H
	DB	01H
	DB	01H
	DB	01H
	DB	01H
	DB	01H
	DB	01H
	DB	01H
	DB	01H
	DB	01H
	DB	01H
	DB	01H
	DB	01H
	DB	01H
	DB	01H
	DB	02dH
	DB	06H
	DB	039H
	DB	01H
	DB	01H
	DB	01H
	DB	01H
	DB	01H
	DB	01H
	DB	01H
	DB	01H
	DB	01H
	DB	01H
	DB	01H
	DB	01H
	DB	01H
	DB	01H
	DB	01H
	DB	01H
	DB	01H
	DB	01H
	DB	01H
	DB	01H
	DB	01H
	DB	01H
	DB	01H
	DB	01H
	DB	01H
	DB	01H
	DB	01H
	DB	01H
	DB	01H
	DB	01H
	DB	01H
	DB	01H
	DB	01H
	DB	01H
	DB	01H
	DB	01H
	DB	01H
	DB	01H
	DB	01H
	DB	01H
	DB	01H
	DB	01H
	DB	01H
	DB	01H
	DB	01H
	DB	01H
	DB	01H
	DB	01H
	DB	01H
	DB	01H
	DB	01H
	DB	01H
	DB	01H
	DB	01H
	DB	01H
	DB	01H
	DB	01H
	DB	01H
	DB	01H
	DB	01H
	DB	01H
	DB	01H
	DB	01H
	DB	01H
	DB	01H
	DB	01H
	DB	01H
	DB	01H
	DB	01H
	DB	01H
	DB	01H
	DB	01H
	DB	01H
	DB	01H
	DB	01H
	DB	018H
	DB	018H
	DB	013H
	DB	010H
	DB	010H
	DB	013H
	DB	013H
	DB	018H
	DB	013H
	DB	013H
	DB	018H
	DB	018H
	DB	013H
	DB	013H
	DB	01H
	DB	018H
	DB	02H
	DB	02dH
	DB	0cH
	DB	08H
	DB	03H
	DB	02dH
	DB	038H
	DB	0cH
	DB	013H
	DB	013H
	DB	010H
	DB	018H
	DB	018H
	DB	02dH
	DB	01cH
	DB	010H
	DB	010H
	DB	010H
	DB	01cH
	DB	021H
	DB	02H
	DB	02H
	DB	01cH
	DB	010H
	DB	012H
	DB	011H
	DB	02H
	DB	010H
	DB	02H
	DB	010H
	DB	01cH
	DB	038H
	DB	013H
	DB	013H
	DB	02H
	DB	08H
	DB	013H
	DB	0fH
	DB	012H
	DB	052H
	DB	010H
	DB	018H
	DB	018H
	DB	01H
	DB	01H
	DB	027H
	DB	018H
	DB	01H
	DB	018H
	DB	038H
	DB	05H
	DB	0bH
	DB	03H
	DB	0cH
	DB	0fH
	DB	02H
	DB	018H
	DB	02H
	DB	03H
	DB	041H
	DB	032H
	DB	032H
	DB	06H
	DB	01bH
	DB	024H
	DB	051H
	DB	04H
	DB	015H
	DB	015H
	DB	015H
	DB	015H
	DB	015H
	DB	015H
	DB	015H
	DB	015H
	DB	015H
	DB	04H
	DB	04H
	DB	06dH
	DB	026H
	DB	03H
	DB	02H
	DB	02dH
	DB	024H
	DB	05H
	DB	036H
	DB	013H
	DB	01H
	DB	018H
	DB	02H
	DB	02H
	DB	021H
	DB	03cH
	DB	036H
	DB	02H
	DB	01H
	DB	01H
	DB	027H
	DB	01bH
	DB	01H
	DB	01H
	DB	01H
	DB	01H
	DB	01H
	DB	01H
	DB	01H
	DB	01H
	DB	01H
	DB	01H
	DB	01H
	DB	01H
	DB	01H
	DB	01H
	DB	01H
	DB	01H
	DB	01H
	DB	02dH
	DB	06H
	DB	039H
	DB	01H
	DB	01H
	DB	01H
	DB	01H
	DB	01H
	DB	01H
	DB	01H
	DB	01H
	DB	01H
	DB	01H
	DB	01H
	DB	01H
	DB	01H
	DB	01H
	DB	01H
	DB	01H
	DB	01H
	DB	01H
	DB	01H
	DB	01H
	DB	01H
	DB	01H
	DB	01H
	DB	01H
	DB	01H
	DB	01H
	DB	01H
	DB	01H
	DB	01H
	DB	01H
	DB	01H
	DB	01H
	DB	01H
	DB	01H
	DB	01H
	DB	01H
	DB	01H
	DB	01H
	DB	01H
	DB	01H
	DB	01H
	DB	01H
	DB	01H
	DB	01H
	DB	01H
	DB	01H
	DB	01H
	DB	01H
	DB	01H
	DB	01H
	DB	01H
	DB	01H
	DB	01H
	DB	01H
	DB	01H
	DB	01H
	DB	01H
	DB	01H
	DB	01H
	DB	01H
	DB	01H
	DB	01H
	DB	01H
	DB	01H
	DB	01H
	DB	01H
	DB	01H
	DB	01H
	DB	01H
	DB	01H
	DB	01H
	DB	013H
	DB	013H
	DB	01H
	DB	01H
	DB	013H
	DB	013H
	DB	013H
	DB	013H
	DB	013H
	DB	013H
	DB	01H
	DB	01H
	DB	018H
	DB	018H
	DB	01H
	DB	01H
	DB	01H
	DB	01H
	DB	01H
	DB	01H
	DB	018H
	DB	038H
	DB	03H
	DB	03H
	DB	02H
	DB	018H
	DB	0cH
	DB	02H
	DB	013H
	DB	01H
	DB	01H
	DB	010H
	DB	03H
	DB	03H
	DB	010H
	DB	01H
	DB	013H
	DB	08H
	DB	02dH
	DB	038H
	DB	021H
	DB	038H
	DB	0aH
	DB	039H
	DB	03H
	DB	0fH
	DB	013H
	DB	02H
	DB	0cH
	DB	036H
	DB	0eH
	DB	0aH
	DB	02dH
	DB	018H
	DB	03H
	DB	011H
	DB	011H
	DB	011H
	DB	0eH
	DB	041H
	DB	0cH
	DB	02H
	DB	021H
	DB	01H
	DB	018H
	DB	042H
	DB	010H
	DB	02H
	DB	079H
	DB	016H
	DB	012H
	DB	036H
	DB	018H
	DB	02H
	DB	02dH
	DB	024H
	DB	018H
	DB	02H
	DB	039H
	DB	0cH
	DB	011H
	DB	032H
	DB	020H
	DB	020H
	DB	01bH
	DB	03aH
	DB	015H
	DB	015H
	DB	015H
	DB	015H
	DB	015H
	DB	015H
	DB	015H
	DB	015H
	DB	015H
	DB	015H
	DB	04H
	DB	04H
	DB	048H
	DB	024H
	DB	024H
	DB	018H
	DB	01H
	DB	01H
	DB	01cH
	DB	018H
	DB	013H
	DB	038H
	DB	03H
	DB	03H
	DB	0cH
	DB	0fH
	DB	011H
	DB	09bH
	DB	02H
	DB	018H
	DB	05H
	DB	041H
	DB	03H
	DB	01H
	DB	01H
	DB	01H
	DB	01H
	DB	01H
	DB	01H
	DB	01H
	DB	01H
	DB	01H
	DB	01H
	DB	01H
	DB	01H
	DB	01H
	DB	01H
	DB	01H
	DB	01H
	DB	01H
	DB	02dH
	DB	06H
	DB	039H
	DB	01H
	DB	01H
	DB	01H
	DB	01H
	DB	01H
	DB	01H
	DB	01H
	DB	01H
	DB	01H
	DB	01H
	DB	01H
	DB	01H
	DB	01H
	DB	01H
	DB	01H
	DB	01H
	DB	01H
	DB	01H
	DB	01H
	DB	01H
	DB	01H
	DB	01H
	DB	01H
	DB	01H
	DB	01H
	DB	01H
	DB	01H
	DB	01H
	DB	01H
	DB	01H
	DB	01H
	DB	01H
	DB	01H
	DB	01H
	DB	01H
	DB	01H
	DB	01H
	DB	01H
	DB	01H
	DB	01H
	DB	01H
	DB	01H
	DB	01H
	DB	01H
	DB	01H
	DB	01H
	DB	01H
	DB	01H
	DB	01H
	DB	01H
	DB	01H
	DB	01H
	DB	01H
	DB	01H
	DB	01H
	DB	01H
	DB	01H
	DB	01H
	DB	01H
	DB	01H
	DB	01H
	DB	01H
	DB	01H
	DB	01H
	DB	01H
	DB	01H
	DB	01H
	DB	01H
	DB	01H
	DB	01H
	DB	01H
	DB	018H
	DB	013H
	DB	01H
	DB	01H
	DB	01H
	DB	01H
	DB	018H
	DB	01H
	DB	01H
	DB	01H
	DB	01H
	DB	01H
	DB	01H
	DB	01H
	DB	01H
	DB	01H
	DB	01H
	DB	01H
	DB	01H
	DB	018H
	DB	013H
	DB	018H
	DB	018H
	DB	02dH
	DB	01cH
	DB	01H
	DB	013H
	DB	01H
	DB	01H
	DB	01H
	DB	018H
	DB	0cH
	DB	0fH
	DB	0cH
	DB	08H
	DB	02H
	DB	02dH
	DB	02H
	DB	013H
	DB	018H
	DB	013H
	DB	0fH
	DB	0eH
	DB	013H
	DB	02dH
	DB	041H
	DB	010H
	DB	01H
	DB	038H
	DB	041H
	DB	02dH
	DB	03H
	DB	05H
	DB	03H
	DB	041H
	DB	0fH
	DB	0aH
	DB	03H
	DB	018H
	DB	018H
	DB	024H
	DB	041H
	DB	018H
	DB	01H
	DB	02H
	DB	03H
	DB	01H
	DB	03H
	DB	0bH
	DB	012H
	DB	0eH
	DB	041H
	DB	02dH
	DB	01H
	DB	018H
	DB	02fH
	DB	02H
	DB	018H
	DB	026H
	DB	03cH
	DB	0aH
	DB	06H
	DB	03bH
	DB	0e6H
	DB	011H
	DB	03aH
	DB	04H
	DB	015H
	DB	015H
	DB	015H
	DB	015H
	DB	015H
	DB	015H
	DB	015H
	DB	015H
	DB	015H
	DB	04H
	DB	04H
	DB	048H
	DB	013H
	DB	02H
	DB	02H
	DB	010H
	DB	038H
	DB	02dH
	DB	01cH
	DB	03H
	DB	0bH
	DB	0fH
	DB	0cH
	DB	0fH
	DB	0fH
	DB	0eH
	DB	041H
	DB	01H
	DB	018H
	DB	03H
	DB	03H
	DB	05H
	DB	01H
	DB	01H
	DB	01H
	DB	01H
	DB	01H
	DB	01H
	DB	01H
	DB	01H
	DB	01H
	DB	01H
	DB	01H
	DB	01H
	DB	01H
	DB	01H
	DB	01H
	DB	01H
	DB	01H
	DB	02dH
	DB	06H
	DB	039H
	DB	01H
	DB	01H
	DB	01H
	DB	01H
	DB	01H
	DB	01H
	DB	01H
	DB	01H
	DB	01H
	DB	01H
	DB	01H
	DB	01H
	DB	01H
	DB	01H
	DB	01H
	DB	01H
	DB	01H
	DB	01H
	DB	01H
	DB	01H
	DB	01H
	DB	01H
	DB	01H
	DB	01H
	DB	01H
	DB	01H
	DB	01H
	DB	01H
	DB	01H
	DB	01H
	DB	01H
	DB	01H
	DB	01H
	DB	01H
	DB	01H
	DB	01H
	DB	01H
	DB	01H
	DB	01H
	DB	01H
	DB	01H
	DB	01H
	DB	01H
	DB	01H
	DB	01H
	DB	01H
	DB	01H
	DB	01H
	DB	01H
	DB	01H
	DB	01H
	DB	01H
	DB	01H
	DB	01H
	DB	01H
	DB	01H
	DB	01H
	DB	01H
	DB	01H
	DB	01H
	DB	01H
	DB	01H
	DB	01H
	DB	01H
	DB	01H
	DB	01H
	DB	01H
	DB	01H
	DB	01H
	DB	01H
	DB	01H
	DB	01H
	DB	01H
	DB	01H
	DB	01H
	DB	01H
	DB	01H
	DB	01H
	DB	01H
	DB	01H
	DB	01H
	DB	01H
	DB	01H
	DB	01H
	DB	01H
	DB	01H
	DB	01H
	DB	01H
	DB	018H
	DB	018H
	DB	018H
	DB	01cH
	DB	01H
	DB	013H
	DB	018H
	DB	01H
	DB	018H
	DB	02H
	DB	02H
	DB	02H
	DB	018H
	DB	01H
	DB	02H
	DB	0cH
	DB	08H
	DB	0eH
	DB	05H
	DB	03H
	DB	024H
	DB	02H
	DB	02H
	DB	05H
	DB	0eH
	DB	02H
	DB	0cH
	DB	03H
	DB	03H
	DB	02H
	DB	02H
	DB	01H
	DB	01H
	DB	018H
	DB	01H
	DB	018H
	DB	039H
	DB	012H
	DB	012H
	DB	016H
	DB	0aH
	DB	03H
	DB	018H
	DB	02H
	DB	021H
	DB	018H
	DB	018H
	DB	02dH
	DB	02H
	DB	02H
	DB	01cH
	DB	02dH
	DB	02H
	DB	010H
	DB	02H
	DB	018H
	DB	01H
	DB	01H
	DB	013H
	DB	010H
	DB	03H
	DB	05H
	DB	022H
	DB	03bH
	DB	020H
	DB	03bH
	DB	06H
	DB	066H
	DB	04H
	DB	015H
	DB	015H
	DB	015H
	DB	015H
	DB	015H
	DB	015H
	DB	015H
	DB	015H
	DB	015H
	DB	015H
	DB	015H
	DB	04H
	DB	03aH
	DB	0d6H
	DB	0aH
	DB	039H
	DB	02H
	DB	02dH
	DB	02dH
	DB	018H
	DB	01H
	DB	018H
	DB	03H
	DB	03H
	DB	02H
	DB	018H
	DB	018H
	DB	01H
	DB	010H
	DB	011H
	DB	05H
	DB	03H
	DB	03H
	DB	01H
	DB	01H
	DB	01H
	DB	01H
	DB	01H
	DB	01H
	DB	01H
	DB	01H
	DB	01H
	DB	01H
	DB	01H
	DB	01H
	DB	01H
	DB	01H
	DB	01H
	DB	01H
	DB	01H
	DB	02dH
	DB	06H
	DB	039H
	DB	01H
	DB	01H
	DB	01H
	DB	01H
	DB	01H
	DB	01H
	DB	01H
	DB	01H
	DB	01H
	DB	01H
	DB	01H
	DB	01H
	DB	01H
	DB	01H
	DB	01H
	DB	01H
	DB	01H
	DB	01H
	DB	01H
	DB	01H
	DB	01H
	DB	01H
	DB	01H
	DB	01H
	DB	01H
	DB	01H
	DB	01H
	DB	01H
	DB	01H
	DB	01H
	DB	01H
	DB	01H
	DB	01H
	DB	01H
	DB	01H
	DB	01H
	DB	01H
	DB	01H
	DB	01H
	DB	01H
	DB	01H
	DB	01H
	DB	01H
	DB	01H
	DB	01H
	DB	01H
	DB	01H
	DB	01H
	DB	01H
	DB	01H
	DB	01H
	DB	01H
	DB	01H
	DB	01H
	DB	01H
	DB	01H
	DB	01H
	DB	01H
	DB	01H
	DB	01H
	DB	01H
	DB	01H
	DB	01H
	DB	01H
	DB	01H
	DB	01H
	DB	01H
	DB	01H
	DB	01H
	DB	01H
	DB	01H
	DB	01H
	DB	013H
	DB	01H
	DB	01H
	DB	01H
	DB	01H
	DB	01H
	DB	01H
	DB	01H
	DB	01H
	DB	01H
	DB	01H
	DB	013H
	DB	013H
	DB	013H
	DB	01H
	DB	01H
	DB	018H
	DB	018H
	DB	013H
	DB	01H
	DB	01H
	DB	01H
	DB	01H
	DB	018H
	DB	038H
	DB	03H
	DB	0cH
	DB	03H
	DB	03H
	DB	038H
	DB	0cH
	DB	0fH
	DB	0eH
	DB	05H
	DB	02dH
	DB	018H
	DB	018H
	DB	02H
	DB	0cH
	DB	02fH
	DB	018H
	DB	01H
	DB	03H
	DB	02H
	DB	01H
	DB	013H
	DB	01H
	DB	013H
	DB	013H
	DB	018H
	DB	01H
	DB	01H
	DB	01H
	DB	03H
	DB	012H
	DB	011H
	DB	0aH
	DB	03H
	DB	013H
	DB	018H
	DB	018H
	DB	02dH
	DB	013H
	DB	01H
	DB	01H
	DB	01H
	DB	01H
	DB	018H
	DB	02dH
	DB	02H
	DB	02H
	DB	05H
	DB	038H
	DB	021H
	DB	038H
	DB	0fH
	DB	016H
	DB	022H
	DB	04fH
	DB	049H
	DB	0e6H
	DB	06H
	DB	01aH
	DB	046H
	DB	015H
	DB	04H
	DB	04H
	DB	04H
	DB	04H
	DB	015H
	DB	015H
	DB	015H
	DB	015H
	DB	015H
	DB	04H
	DB	04H
	DB	04H
	DB	03aH
	DB	01eH
	DB	024H
	DB	018H
	DB	02H
	DB	02H
	DB	01cH
	DB	01cH
	DB	02H
	DB	013H
	DB	013H
	DB	018H
	DB	013H
	DB	027H
	DB	021H
	DB	08H
	DB	0fH
	DB	012H
	DB	012H
	DB	02H
	DB	02H
	DB	01H
	DB	01H
	DB	01H
	DB	01H
	DB	01H
	DB	01H
	DB	01H
	DB	01H
	DB	01H
	DB	01H
	DB	01H
	DB	01H
	DB	01H
	DB	01H
	DB	01H
	DB	01H
	DB	01H
	DB	02dH
	DB	06H
	DB	039H
	DB	01H
	DB	01H
	DB	01H
	DB	01H
	DB	01H
	DB	01H
	DB	01H
	DB	01H
	DB	01H
	DB	01H
	DB	01H
	DB	01H
	DB	01H
	DB	01H
	DB	01H
	DB	01H
	DB	01H
	DB	01H
	DB	01H
	DB	01H
	DB	01H
	DB	01H
	DB	01H
	DB	01H
	DB	01H
	DB	01H
	DB	01H
	DB	01H
	DB	01H
	DB	01H
	DB	01H
	DB	01H
	DB	01H
	DB	01H
	DB	01H
	DB	01H
	DB	01H
	DB	01H
	DB	01H
	DB	01H
	DB	01H
	DB	01H
	DB	01H
	DB	01H
	DB	01H
	DB	01H
	DB	01H
	DB	01H
	DB	01H
	DB	01H
	DB	01H
	DB	01H
	DB	01H
	DB	01H
	DB	01H
	DB	01H
	DB	01H
	DB	01H
	DB	01H
	DB	01H
	DB	01H
	DB	01H
	DB	01H
	DB	01H
	DB	01H
	DB	01H
	DB	01H
	DB	01H
	DB	01H
	DB	01H
	DB	01H
	DB	01H
	DB	01H
	DB	01H
	DB	01H
	DB	01H
	DB	01H
	DB	01H
	DB	01H
	DB	01H
	DB	01H
	DB	01H
	DB	01H
	DB	013H
	DB	013H
	DB	013H
	DB	013H
	DB	01H
	DB	01H
	DB	02H
	DB	02dH
	DB	02dH
	DB	02H
	DB	018H
	DB	038H
	DB	036H
	DB	036H
	DB	03H
	DB	03H
	DB	0fH
	DB	0fH
	DB	08H
	DB	03H
	DB	0eH
	DB	036H
	DB	03H
	DB	018H
	DB	018H
	DB	010H
	DB	03H
	DB	010H
	DB	018H
	DB	018H
	DB	01H
	DB	018H
	DB	01H
	DB	01H
	DB	018H
	DB	018H
	DB	010H
	DB	010H
	DB	013H
	DB	01H
	DB	01H
	DB	01H
	DB	018H
	DB	02dH
	DB	013H
	DB	02H
	DB	01H
	DB	01H
	DB	01H
	DB	021H
	DB	0bH
	DB	034H
	DB	036H
	DB	018H
	DB	013H
	DB	013H
	DB	02H
	DB	024H
	DB	038H
	DB	02H
	DB	041H
	DB	021H
	DB	02H
	DB	02H
	DB	03cH
	DB	05H
	DB	010H
	DB	02H
	DB	03H
	DB	02dH
	DB	024H
	DB	026H
	DB	057H
	DB	017H
	DB	073H
	DB	064H
	DB	04cH
	DB	060H
	DB	015H
	DB	060H
	DB	060H
	DB	060H
	DB	060H
	DB	060H
	DB	04cH
	DB	06fH
	DB	064H
	DB	0fH
	DB	01cH
	DB	021H
	DB	018H
	DB	01H
	DB	01H
	DB	01H
	DB	02H
	DB	01cH
	DB	01H
	DB	01cH
	DB	02H
	DB	02H
	DB	021H
	DB	0fH
	DB	0eH
	DB	052H
	DB	05bH
	DB	011H
	DB	0fH
	DB	01H
	DB	01H
	DB	01H
	DB	01H
	DB	01H
	DB	01H
	DB	01H
	DB	01H
	DB	01H
	DB	01H
	DB	01H
	DB	01H
	DB	01H
	DB	01H
	DB	01H
	DB	01H
	DB	01H
	DB	02dH
	DB	06H
	DB	039H
	DB	01H
	DB	01H
	DB	01H
	DB	01H
	DB	01H
	DB	01H
	DB	01H
	DB	01H
	DB	01H
	DB	01H
	DB	01H
	DB	01H
	DB	01H
	DB	01H
	DB	01H
	DB	01H
	DB	01H
	DB	01H
	DB	01H
	DB	01H
	DB	01H
	DB	01H
	DB	01H
	DB	01H
	DB	01H
	DB	01H
	DB	01H
	DB	01H
	DB	01H
	DB	01H
	DB	01H
	DB	01H
	DB	01H
	DB	01H
	DB	01H
	DB	01H
	DB	01H
	DB	01H
	DB	01H
	DB	01H
	DB	01H
	DB	01H
	DB	01H
	DB	01H
	DB	01H
	DB	01H
	DB	01H
	DB	01H
	DB	01H
	DB	01H
	DB	01H
	DB	01H
	DB	01H
	DB	01H
	DB	01H
	DB	01H
	DB	01H
	DB	01H
	DB	01H
	DB	01H
	DB	01H
	DB	01H
	DB	01H
	DB	01H
	DB	01H
	DB	01H
	DB	01H
	DB	01H
	DB	01H
	DB	01H
	DB	01H
	DB	01H
	DB	01H
	DB	01H
	DB	01H
	DB	01H
	DB	01H
	DB	01H
	DB	01H
	DB	013H
	DB	01cH
	DB	01H
	DB	01H
	DB	01H
	DB	01H
	DB	01H
	DB	013H
	DB	013H
	DB	027H
	DB	02H
	DB	02H
	DB	018H
	DB	02H
	DB	02H
	DB	03H
	DB	036H
	DB	036H
	DB	036H
	DB	039H
	DB	0eH
	DB	0fH
	DB	02H
	DB	08H
	DB	03H
	DB	036H
	DB	03H
	DB	02H
	DB	018H
	DB	021H
	DB	02dH
	DB	013H
	DB	013H
	DB	010H
	DB	010H
	DB	010H
	DB	013H
	DB	01H
	DB	01H
	DB	01H
	DB	01H
	DB	01H
	DB	01H
	DB	018H
	DB	013H
	DB	013H
	DB	08H
	DB	013H
	DB	01H
	DB	01H
	DB	01H
	DB	01H
	DB	027H
	DB	021H
	DB	024H
	DB	021H
	DB	034H
	DB	026H
	DB	02dH
	DB	03H
	DB	018H
	DB	026H
	DB	036H
	DB	01cH
	DB	02H
	DB	03H
	DB	016H
	DB	01bH
	DB	06H
	DB	04fH
	DB	022H
	DB	03bH
	DB	03bH
	DB	0bH
	DB	034H
	DB	0bH
	DB	044H
	DB	0dH
	DB	04dH
	DB	04dH
	DB	0dH
	DB	01fH
	DB	01fH
	DB	017H
	DB	01fH
	DB	01fH
	DB	01fH
	DB	01fH
	DB	0dH
	DB	04dH
	DB	01fH
	DB	019H
	DB	026H
	DB	02fH
	DB	02H
	DB	018H
	DB	018H
	DB	01H
	DB	02H
	DB	021H
	DB	01cH
	DB	01H
	DB	013H
	DB	02H
	DB	02H
	DB	08H
	DB	08H
	DB	01cH
	DB	052H
	DB	011H
	DB	011H
	DB	01H
	DB	01H
	DB	01H
	DB	01H
	DB	01H
	DB	01H
	DB	01H
	DB	01H
	DB	01H
	DB	01H
	DB	01H
	DB	01H
	DB	01H
	DB	01H
	DB	01H
	DB	01H
	DB	01H
	DB	02dH
	DB	06H
	DB	039H
	DB	01H
	DB	01H
	DB	01H
	DB	01H
	DB	01H
	DB	01H
	DB	01H
	DB	01H
	DB	01H
	DB	01H
	DB	01H
	DB	01H
	DB	01H
	DB	01H
	DB	01H
	DB	01H
	DB	01H
	DB	01H
	DB	01H
	DB	01H
	DB	01H
	DB	01H
	DB	01H
	DB	01H
	DB	01H
	DB	01H
	DB	01H
	DB	01H
	DB	01H
	DB	01H
	DB	01H
	DB	01H
	DB	01H
	DB	01H
	DB	01H
	DB	01H
	DB	01H
	DB	01H
	DB	01H
	DB	01H
	DB	01H
	DB	01H
	DB	01H
	DB	01H
	DB	01H
	DB	01H
	DB	01H
	DB	01H
	DB	01H
	DB	01H
	DB	01H
	DB	01H
	DB	01H
	DB	01H
	DB	01H
	DB	01H
	DB	01H
	DB	01H
	DB	01H
	DB	01H
	DB	01H
	DB	01H
	DB	01H
	DB	01H
	DB	01H
	DB	01H
	DB	01H
	DB	01H
	DB	01H
	DB	01H
	DB	01H
	DB	01H
	DB	01H
	DB	013H
	DB	013H
	DB	01H
	DB	018H
	DB	01H
	DB	01H
	DB	018H
	DB	018H
	DB	01H
	DB	01H
	DB	01H
	DB	01H
	DB	013H
	DB	02H
	DB	0cH
	DB	02dH
	DB	038H
	DB	0cH
	DB	038H
	DB	0cH
	DB	03H
	DB	02dH
	DB	018H
	DB	018H
	DB	018H
	DB	024H
	DB	024H
	DB	02dH
	DB	02H
	DB	013H
	DB	02H
	DB	0fH
	DB	0fH
	DB	0cH
	DB	02H
	DB	02H
	DB	018H
	DB	013H
	DB	05H
	DB	011H
	DB	0eH
	DB	011H
	DB	011H
	DB	05H
	DB	010H
	DB	01H
	DB	01H
	DB	01H
	DB	018H
	DB	018H
	DB	010H
	DB	08H
	DB	05H
	DB	02H
	DB	01H
	DB	01H
	DB	01H
	DB	018H
	DB	0aH
	DB	0aH
	DB	01cH
	DB	01H
	DB	026H
	DB	03H
	DB	01cH
	DB	021H
	DB	038H
	DB	026H
	DB	02fH
	DB	013H
	DB	018H
	DB	02H
	DB	036H
	DB	0fH
	DB	0b8H
	DB	013H
	DB	011H
	DB	022H
	DB	067H
	DB	06H
	DB	041H
	DB	013H
	DB	044H
	DB	0dH
	DB	0dH
	DB	0dH
	DB	0dH
	DB	01fH
	DB	0b7H
	DB	080H
	DB	017H
	DB	01fH
	DB	017H
	DB	0dH
	DB	0dH
	DB	0dH
	DB	017H
	DB	01bH
	DB	01cH
	DB	016H
	DB	034H
	DB	02H
	DB	027H
	DB	02H
	DB	036H
	DB	021H
	DB	03H
	DB	01cH
	DB	02H
	DB	038H
	DB	01cH
	DB	01cH
	DB	018H
	DB	013H
	DB	03H
	DB	052H
	DB	084H
	DB	01H
	DB	01H
	DB	01H
	DB	01H
	DB	01H
	DB	01H
	DB	01H
	DB	01H
	DB	01H
	DB	01H
	DB	01H
	DB	01H
	DB	01H
	DB	01H
	DB	01H
	DB	01H
	DB	01H
	DB	02dH
	DB	06H
	DB	039H
	DB	01H
	DB	01H
	DB	01H
	DB	01H
	DB	01H
	DB	01H
	DB	01H
	DB	01H
	DB	01H
	DB	01H
	DB	01H
	DB	01H
	DB	01H
	DB	01H
	DB	01H
	DB	01H
	DB	01H
	DB	01H
	DB	01H
	DB	01H
	DB	01H
	DB	01H
	DB	01H
	DB	01H
	DB	01H
	DB	01H
	DB	01H
	DB	01H
	DB	01H
	DB	01H
	DB	01H
	DB	01H
	DB	01H
	DB	01H
	DB	01H
	DB	01H
	DB	01H
	DB	01H
	DB	01H
	DB	01H
	DB	01H
	DB	01H
	DB	01H
	DB	01H
	DB	01H
	DB	01H
	DB	01H
	DB	01H
	DB	01H
	DB	01H
	DB	01H
	DB	01H
	DB	01H
	DB	01H
	DB	01H
	DB	01H
	DB	01H
	DB	01H
	DB	01H
	DB	01H
	DB	01H
	DB	01H
	DB	01H
	DB	01H
	DB	01H
	DB	01H
	DB	01H
	DB	01H
	DB	01H
	DB	01H
	DB	01H
	DB	01H
	DB	01H
	DB	01H
	DB	01H
	DB	01H
	DB	013H
	DB	018H
	DB	01H
	DB	01H
	DB	018H
	DB	018H
	DB	01H
	DB	01H
	DB	01H
	DB	02H
	DB	02dH
	DB	02H
	DB	02H
	DB	02H
	DB	02H
	DB	01cH
	DB	018H
	DB	02H
	DB	018H
	DB	01H
	DB	01H
	DB	01H
	DB	01H
	DB	01H
	DB	01H
	DB	018H
	DB	01H
	DB	02H
	DB	0cH
	DB	03H
	DB	02dH
	DB	03H
	DB	0eH
	DB	0cH
	DB	02H
	DB	0eH
	DB	02dH
	DB	02H
	DB	02H
	DB	02H
	DB	02H
	DB	01cH
	DB	01H
	DB	01H
	DB	01H
	DB	018H
	DB	01H
	DB	013H
	DB	018H
	DB	018H
	DB	01H
	DB	01H
	DB	01H
	DB	01H
	DB	018H
	DB	079H
	DB	0bH
	DB	034H
	DB	02H
	DB	013H
	DB	013H
	DB	02H
	DB	052H
	DB	03H
	DB	02H
	DB	01cH
	DB	021H
	DB	02H
	DB	02H
	DB	018H
	DB	05H
	DB	0fH
	DB	02H
	DB	032H
	DB	032H
	DB	016H
	DB	016H
	DB	012H
	DB	016H
	DB	030H
	DB	0dH
	DB	0dH
	DB	0dH
	DB	01fH
	DB	01fH
	DB	0b7H
	DB	028H
	DB	017H
	DB	017H
	DB	017H
	DB	01fH
	DB	0dH
	DB	0dH
	DB	017H
	DB	019H
	DB	01cH
	DB	05H
	DB	01cH
	DB	01H
	DB	042H
	DB	041H
	DB	01H
	DB	018H
	DB	02H
	DB	02H
	DB	036H
	DB	049H
	DB	01cH
	DB	02H
	DB	01H
	DB	013H
	DB	03H
	DB	0cH
	DB	08H
	DB	01H
	DB	01H
	DB	01H
	DB	01H
	DB	01H
	DB	01H
	DB	01H
	DB	01H
	DB	01H
	DB	01H
	DB	01H
	DB	01H
	DB	01H
	DB	01H
	DB	01H
	DB	01H
	DB	01H
	DB	02dH
	DB	06H
	DB	039H
	DB	01H
	DB	01H
	DB	01H
	DB	01H
	DB	01H
	DB	01H
	DB	01H
	DB	01H
	DB	01H
	DB	01H
	DB	01H
	DB	01H
	DB	01H
	DB	01H
	DB	01H
	DB	01H
	DB	01H
	DB	01H
	DB	01H
	DB	01H
	DB	01H
	DB	01H
	DB	01H
	DB	01H
	DB	01H
	DB	01H
	DB	01H
	DB	01H
	DB	01H
	DB	01H
	DB	01H
	DB	01H
	DB	01H
	DB	01H
	DB	01H
	DB	01H
	DB	01H
	DB	01H
	DB	01H
	DB	01H
	DB	01H
	DB	01H
	DB	01H
	DB	01H
	DB	01H
	DB	01H
	DB	01H
	DB	01H
	DB	01H
	DB	01H
	DB	01H
	DB	01H
	DB	01H
	DB	01H
	DB	01H
	DB	01H
	DB	01H
	DB	01H
	DB	01H
	DB	01H
	DB	01H
	DB	01H
	DB	01H
	DB	01H
	DB	01H
	DB	01H
	DB	01H
	DB	01H
	DB	01H
	DB	01H
	DB	01H
	DB	01H
	DB	01H
	DB	018H
	DB	013H
	DB	013H
	DB	018H
	DB	01cH
	DB	018H
	DB	01H
	DB	018H
	DB	013H
	DB	01H
	DB	01H
	DB	018H
	DB	02H
	DB	02H
	DB	010H
	DB	01H
	DB	01H
	DB	01H
	DB	01H
	DB	013H
	DB	013H
	DB	013H
	DB	01H
	DB	02H
	DB	01cH
	DB	01H
	DB	01H
	DB	01H
	DB	01H
	DB	01H
	DB	01H
	DB	027H
	DB	027H
	DB	013H
	DB	01cH
	DB	03H
	DB	02H
	DB	02H
	DB	03H
	DB	02H
	DB	01H
	DB	01H
	DB	01H
	DB	01H
	DB	01H
	DB	013H
	DB	018H
	DB	01cH
	DB	01H
	DB	018H
	DB	013H
	DB	01H
	DB	01H
	DB	01H
	DB	018H
	DB	05H
	DB	02dH
	DB	01H
	DB	018H
	DB	018H
	DB	01cH
	DB	05H
	DB	038H
	DB	010H
	DB	010H
	DB	02H
	DB	010H
	DB	01H
	DB	018H
	DB	01cH
	DB	02H
	DB	021H
	DB	0eH
	DB	067H
	DB	0bH
	DB	021H
	DB	03cH
	DB	04fH
	DB	0bH
	DB	041H
	DB	02H
	DB	012H
	DB	080H
	DB	0dH
	DB	0dH
	DB	0dH
	DB	01fH
	DB	01fH
	DB	0dH
	DB	028H
	DB	017H
	DB	017H
	DB	017H
	DB	01fH
	DB	0dH
	DB	0dH
	DB	01fH
	DB	061H
	DB	010H
	DB	021H
	DB	02H
	DB	018H
	DB	02H
	DB	02dH
	DB	018H
	DB	018H
	DB	01H
	DB	018H
	DB	02H
	DB	021H
	DB	02H
	DB	02dH
	DB	02H
	DB	036H
	DB	038H
	DB	08H
	DB	02dH
	DB	01H
	DB	01H
	DB	01H
	DB	01H
	DB	01H
	DB	01H
	DB	01H
	DB	01H
	DB	01H
	DB	01H
	DB	01H
	DB	01H
	DB	01H
	DB	01H
	DB	01H
	DB	01H
	DB	01H
	DB	02dH
	DB	06H
	DB	039H
	DB	01H
	DB	01H
	DB	01H
	DB	01H
	DB	01H
	DB	01H
	DB	01H
	DB	01H
	DB	01H
	DB	01H
	DB	01H
	DB	01H
	DB	01H
	DB	01H
	DB	01H
	DB	01H
	DB	01H
	DB	01H
	DB	01H
	DB	01H
	DB	01H
	DB	01H
	DB	01H
	DB	01H
	DB	01H
	DB	01H
	DB	01H
	DB	01H
	DB	01H
	DB	01H
	DB	01H
	DB	01H
	DB	01H
	DB	01H
	DB	01H
	DB	01H
	DB	01H
	DB	01H
	DB	01H
	DB	01H
	DB	01H
	DB	01H
	DB	01H
	DB	01H
	DB	01H
	DB	01H
	DB	01H
	DB	01H
	DB	01H
	DB	01H
	DB	01H
	DB	01H
	DB	01H
	DB	01H
	DB	01H
	DB	01H
	DB	01H
	DB	01H
	DB	01H
	DB	01H
	DB	01H
	DB	01H
	DB	01H
	DB	01H
	DB	01H
	DB	01H
	DB	01H
	DB	01H
	DB	01H
	DB	01H
	DB	01H
	DB	01H
	DB	01H
	DB	01H
	DB	01H
	DB	01H
	DB	01H
	DB	01H
	DB	01H
	DB	01H
	DB	01H
	DB	01H
	DB	01H
	DB	01H
	DB	018H
	DB	018H
	DB	01H
	DB	01H
	DB	01H
	DB	01H
	DB	01H
	DB	013H
	DB	0cH
	DB	0cH
	DB	02H
	DB	013H
	DB	018H
	DB	01H
	DB	01H
	DB	01H
	DB	01H
	DB	018H
	DB	02H
	DB	08H
	DB	03H
	DB	02H
	DB	01cH
	DB	013H
	DB	018H
	DB	038H
	DB	041H
	DB	02fH
	DB	049H
	DB	05H
	DB	01H
	DB	01H
	DB	01H
	DB	010H
	DB	02H
	DB	021H
	DB	021H
	DB	01cH
	DB	018H
	DB	013H
	DB	018H
	DB	013H
	DB	013H
	DB	02H
	DB	0aH
	DB	05H
	DB	013H
	DB	01H
	DB	013H
	DB	013H
	DB	013H
	DB	03H
	DB	03H
	DB	02H
	DB	018H
	DB	018H
	DB	013H
	DB	018H
	DB	018H
	DB	05H
	DB	077H
	DB	093H
	DB	077H
	DB	05H
	DB	021H
	DB	02H
	DB	010H
	DB	010H
	DB	02dH
	DB	026H
	DB	019H
	DB	017H
	DB	0dH
	DB	0dH
	DB	0dH
	DB	01fH
	DB	01fH
	DB	0dH
	DB	023H
	DB	017H
	DB	017H
	DB	017H
	DB	01fH
	DB	01fH
	DB	0dH
	DB	01fH
	DB	061H
	DB	02H
	DB	010H
	DB	02H
	DB	0cH
	DB	052H
	DB	08H
	DB	02dH
	DB	010H
	DB	01H
	DB	02H
	DB	011H
	DB	02dH
	DB	027H
	DB	02H
	DB	03H
	DB	09bH
	DB	05H
	DB	038H
	DB	05H
	DB	01H
	DB	01H
	DB	01H
	DB	01H
	DB	01H
	DB	01H
	DB	01H
	DB	01H
	DB	01H
	DB	01H
	DB	01H
	DB	01H
	DB	01H
	DB	01H
	DB	01H
	DB	01H
	DB	01H
	DB	02dH
	DB	06H
	DB	039H
	DB	01H
	DB	01H
	DB	01H
	DB	01H
	DB	01H
	DB	01H
	DB	01H
	DB	01H
	DB	01H
	DB	01H
	DB	01H
	DB	01H
	DB	01H
	DB	01H
	DB	01H
	DB	01H
	DB	01H
	DB	01H
	DB	01H
	DB	01H
	DB	01H
	DB	01H
	DB	01H
	DB	01H
	DB	01H
	DB	01H
	DB	01H
	DB	01H
	DB	01H
	DB	01H
	DB	01H
	DB	01H
	DB	01H
	DB	01H
	DB	01H
	DB	01H
	DB	01H
	DB	01H
	DB	01H
	DB	01H
	DB	01H
	DB	01H
	DB	01H
	DB	01H
	DB	01H
	DB	01H
	DB	01H
	DB	01H
	DB	01H
	DB	01H
	DB	01H
	DB	01H
	DB	01H
	DB	01H
	DB	01H
	DB	01H
	DB	01H
	DB	01H
	DB	01H
	DB	01H
	DB	01H
	DB	01H
	DB	01H
	DB	01H
	DB	01H
	DB	01H
	DB	01H
	DB	01H
	DB	01H
	DB	01H
	DB	01H
	DB	01H
	DB	01H
	DB	01H
	DB	01H
	DB	01H
	DB	01H
	DB	013H
	DB	01H
	DB	01H
	DB	01H
	DB	01H
	DB	01H
	DB	01H
	DB	01H
	DB	01H
	DB	01H
	DB	013H
	DB	013H
	DB	018H
	DB	01H
	DB	01H
	DB	010H
	DB	010H
	DB	01H
	DB	01H
	DB	01H
	DB	01H
	DB	01H
	DB	018H
	DB	018H
	DB	02H
	DB	02H
	DB	0cH
	DB	02dH
	DB	02H
	DB	01cH
	DB	018H
	DB	018H
	DB	013H
	DB	039H
	DB	041H
	DB	034H
	DB	03H
	DB	013H
	DB	027H
	DB	02dH
	DB	018H
	DB	01cH
	DB	01cH
	DB	018H
	DB	02H
	DB	01cH
	DB	013H
	DB	013H
	DB	013H
	DB	013H
	DB	01cH
	DB	039H
	DB	03H
	DB	01cH
	DB	03H
	DB	041H
	DB	04fH
	DB	0eH
	DB	08H
	DB	0cH
	DB	0fH
	DB	0cH
	DB	010H
	DB	027H
	DB	018H
	DB	01cH
	DB	034H
	DB	09bH
	DB	067H
	DB	067H
	DB	021H
	DB	02fH
	DB	0aH
	DB	036H
	DB	02H
	DB	013H
	DB	01cH
	DB	022H
	DB	01fH
	DB	0dH
	DB	0dH
	DB	0dH
	DB	01fH
	DB	01fH
	DB	014H
	DB	023H
	DB	017H
	DB	017H
	DB	028H
	DB	01fH
	DB	01fH
	DB	0dH
	DB	01fH
	DB	0a7H
	DB	052H
	DB	08H
	DB	08H
	DB	0cH
	DB	0fH
	DB	08H
	DB	021H
	DB	03H
	DB	0eH
	DB	012H
	DB	022H
	DB	011H
	DB	036H
	DB	03cH
	DB	011H
	DB	0fH
	DB	021H
	DB	0fH
	DB	019H
	DB	01H
	DB	01H
	DB	01H
	DB	01H
	DB	01H
	DB	01H
	DB	01H
	DB	01H
	DB	01H
	DB	01H
	DB	01H
	DB	01H
	DB	01H
	DB	01H
	DB	01H
	DB	01H
	DB	01H
	DB	02dH
	DB	06H
	DB	039H
	DB	01H
	DB	01H
	DB	01H
	DB	01H
	DB	01H
	DB	01H
	DB	01H
	DB	01H
	DB	01H
	DB	01H
	DB	01H
	DB	01H
	DB	01H
	DB	01H
	DB	01H
	DB	01H
	DB	01H
	DB	01H
	DB	01H
	DB	01H
	DB	01H
	DB	01H
	DB	01H
	DB	01H
	DB	01H
	DB	01H
	DB	01H
	DB	01H
	DB	01H
	DB	01H
	DB	01H
	DB	01H
	DB	01H
	DB	01H
	DB	01H
	DB	01H
	DB	01H
	DB	01H
	DB	01H
	DB	01H
	DB	01H
	DB	01H
	DB	01H
	DB	01H
	DB	01H
	DB	01H
	DB	01H
	DB	01H
	DB	01H
	DB	01H
	DB	01H
	DB	01H
	DB	01H
	DB	01H
	DB	01H
	DB	01H
	DB	01H
	DB	01H
	DB	01H
	DB	01H
	DB	01H
	DB	01H
	DB	01H
	DB	01H
	DB	01H
	DB	01H
	DB	01H
	DB	01H
	DB	01H
	DB	01H
	DB	01H
	DB	01H
	DB	01H
	DB	01H
	DB	01H
	DB	01H
	DB	01H
	DB	01H
	DB	013H
	DB	01H
	DB	01H
	DB	01H
	DB	01H
	DB	01H
	DB	01H
	DB	01H
	DB	02H
	DB	08H
	DB	08H
	DB	038H
	DB	02H
	DB	01H
	DB	01H
	DB	01H
	DB	013H
	DB	01H
	DB	02H
	DB	021H
	DB	013H
	DB	013H
	DB	010H
	DB	02H
	DB	02H
	DB	013H
	DB	013H
	DB	01cH
	DB	01cH
	DB	010H
	DB	02H
	DB	013H
	DB	018H
	DB	018H
	DB	01H
	DB	01cH
	DB	038H
	DB	05H
	DB	03H
	DB	01H
	DB	018H
	DB	02H
	DB	03H
	DB	013H
	DB	01H
	DB	018H
	DB	013H
	DB	018H
	DB	018H
	DB	02H
	DB	038H
	DB	018H
	DB	018H
	DB	02H
	DB	018H
	DB	021H
	DB	02H
	DB	01H
	DB	02dH
	DB	05H
	DB	01bH
	DB	016H
	DB	018H
	DB	021H
	DB	038H
	DB	03H
	DB	06H
	DB	06H
	DB	0eH
	DB	02dH
	DB	01cH
	DB	01cH
	DB	03H
	DB	041H
	DB	018H
	DB	013H
	DB	061H
	DB	0dH
	DB	0dH
	DB	0dH
	DB	0dH
	DB	01fH
	DB	01fH
	DB	01fH
	DB	023H
	DB	017H
	DB	017H
	DB	028H
	DB	01fH
	DB	01fH
	DB	0dH
	DB	01fH
	DB	028H
	DB	016H
	DB	0fH
	DB	03H
	DB	02H
	DB	08H
	DB	0fH
	DB	012H
	DB	032H
	DB	057H
	DB	019H
	DB	022H
	DB	011H
	DB	024H
	DB	04fH
	DB	032H
	DB	03bH
	DB	049H
	DB	011H
	DB	05bH
	DB	01H
	DB	01H
	DB	01H
	DB	01H
	DB	01H
	DB	01H
	DB	01H
	DB	01H
	DB	01H
	DB	01H
	DB	01H
	DB	01H
	DB	01H
	DB	01H
	DB	01H
	DB	01H
	DB	01H
	DB	02dH
	DB	06H
	DB	039H
	DB	01H
	DB	01H
	DB	01H
	DB	01H
	DB	01H
	DB	01H
	DB	01H
	DB	01H
	DB	01H
	DB	01H
	DB	01H
	DB	01H
	DB	01H
	DB	01H
	DB	01H
	DB	01H
	DB	01H
	DB	01H
	DB	01H
	DB	01H
	DB	01H
	DB	01H
	DB	01H
	DB	01H
	DB	01H
	DB	01H
	DB	01H
	DB	01H
	DB	01H
	DB	01H
	DB	01H
	DB	01H
	DB	01H
	DB	01H
	DB	01H
	DB	01H
	DB	01H
	DB	01H
	DB	01H
	DB	01H
	DB	01H
	DB	01H
	DB	01H
	DB	01H
	DB	01H
	DB	01H
	DB	01H
	DB	01H
	DB	01H
	DB	01H
	DB	01H
	DB	01H
	DB	01H
	DB	01H
	DB	01H
	DB	01H
	DB	01H
	DB	01H
	DB	01H
	DB	01H
	DB	01H
	DB	01H
	DB	01H
	DB	01H
	DB	01H
	DB	01H
	DB	01H
	DB	01H
	DB	01H
	DB	01H
	DB	01H
	DB	01H
	DB	01H
	DB	01H
	DB	01H
	DB	01H
	DB	01H
	DB	01H
	DB	01H
	DB	01H
	DB	01H
	DB	01H
	DB	01H
	DB	01H
	DB	01cH
	DB	02H
	DB	02H
	DB	08H
	DB	02dH
	DB	02H
	DB	018H
	DB	01H
	DB	013H
	DB	01H
	DB	013H
	DB	01H
	DB	018H
	DB	018H
	DB	02dH
	DB	010H
	DB	018H
	DB	013H
	DB	013H
	DB	013H
	DB	01H
	DB	01H
	DB	01H
	DB	018H
	DB	013H
	DB	010H
	DB	01H
	DB	01H
	DB	01H
	DB	013H
	DB	013H
	DB	01cH
	DB	02H
	DB	010H
	DB	02H
	DB	0fH
	DB	03H
	DB	013H
	DB	01H
	DB	01H
	DB	01H
	DB	02H
	DB	036H
	DB	05H
	DB	05H
	DB	049H
	DB	041H
	DB	05H
	DB	02H
	DB	01H
	DB	01H
	DB	01H
	DB	0eH
	DB	0eH
	DB	03H
	DB	01bH
	DB	010H
	DB	05H
	DB	0aH
	DB	018H
	DB	0aH
	DB	06H
	DB	041H
	DB	018H
	DB	013H
	DB	013H
	DB	0aH
	DB	0aH
	DB	01cH
	DB	041H
	DB	030H
	DB	0dH
	DB	0dH
	DB	0dH
	DB	0dH
	DB	01fH
	DB	01fH
	DB	014H
	DB	023H
	DB	017H
	DB	017H
	DB	028H
	DB	01fH
	DB	0dH
	DB	0dH
	DB	0dH
	DB	028H
	DB	019H
	DB	01cH
	DB	013H
	DB	02H
	DB	041H
	DB	01cH
	DB	038H
	DB	019H
	DB	057H
	DB	057H
	DB	022H
	DB	019H
	DB	038H
	DB	03H
	DB	042H
	DB	05H
	DB	03H
	DB	011H
	DB	036H
	DB	01H
	DB	01H
	DB	01H
	DB	01H
	DB	01H
	DB	01H
	DB	01H
	DB	01H
	DB	01H
	DB	01H
	DB	01H
	DB	01H
	DB	01H
	DB	01H
	DB	01H
	DB	01H
	DB	01H
	DB	02dH
	DB	06H
	DB	039H
	DB	01H
	DB	01H
	DB	01H
	DB	01H
	DB	01H
	DB	01H
	DB	01H
	DB	01H
	DB	01H
	DB	01H
	DB	01H
	DB	01H
	DB	01H
	DB	01H
	DB	01H
	DB	01H
	DB	01H
	DB	01H
	DB	01H
	DB	01H
	DB	01H
	DB	01H
	DB	01H
	DB	01H
	DB	01H
	DB	01H
	DB	01H
	DB	01H
	DB	01H
	DB	01H
	DB	01H
	DB	01H
	DB	01H
	DB	01H
	DB	01H
	DB	01H
	DB	01H
	DB	01H
	DB	01H
	DB	01H
	DB	01H
	DB	01H
	DB	01H
	DB	01H
	DB	01H
	DB	01H
	DB	01H
	DB	01H
	DB	01H
	DB	01H
	DB	01H
	DB	01H
	DB	01H
	DB	01H
	DB	01H
	DB	01H
	DB	01H
	DB	01H
	DB	01H
	DB	01H
	DB	01H
	DB	01H
	DB	01H
	DB	01H
	DB	01H
	DB	01H
	DB	01H
	DB	01H
	DB	01H
	DB	013H
	DB	01H
	DB	01H
	DB	01H
	DB	01H
	DB	01H
	DB	01H
	DB	01H
	DB	01H
	DB	01H
	DB	01H
	DB	01H
	DB	018H
	DB	013H
	DB	01H
	DB	02H
	DB	02dH
	DB	02dH
	DB	02dH
	DB	02dH
	DB	02H
	DB	013H
	DB	01H
	DB	01H
	DB	01H
	DB	01H
	DB	013H
	DB	010H
	DB	013H
	DB	018H
	DB	018H
	DB	018H
	DB	013H
	DB	013H
	DB	010H
	DB	013H
	DB	01H
	DB	01H
	DB	018H
	DB	01cH
	DB	018H
	DB	01H
	DB	02H
	DB	02dH
	DB	011H
	DB	0eH
	DB	02H
	DB	0cH
	DB	0fH
	DB	0fH
	DB	010H
	DB	01H
	DB	01H
	DB	01H
	DB	01H
	DB	03H
	DB	05H
	DB	03H
	DB	041H
	DB	05H
	DB	03H
	DB	041H
	DB	036H
	DB	010H
	DB	013H
	DB	01H
	DB	01H
	DB	010H
	DB	0fH
	DB	012H
	DB	012H
	DB	018H
	DB	024H
	DB	034H
	DB	0eH
	DB	0cH
	DB	011H
	DB	0eH
	DB	0fH
	DB	016H
	DB	016H
	DB	04fH
	DB	036H
	DB	01H
	DB	03H
	DB	030H
	DB	0dH
	DB	01fH
	DB	0dH
	DB	0dH
	DB	017H
	DB	01fH
	DB	01fH
	DB	030H
	DB	080H
	DB	017H
	DB	028H
	DB	01fH
	DB	0dH
	DB	0dH
	DB	0dH
	DB	028H
	DB	022H
	DB	02dH
	DB	079H
	DB	079H
	DB	039H
	DB	027H
	DB	01H
	DB	01cH
	DB	012H
	DB	022H
	DB	022H
	DB	0aH
	DB	02H
	DB	03cH
	DB	0aH
	DB	034H
	DB	020H
	DB	06H
	DB	01cH
	DB	01H
	DB	01H
	DB	01H
	DB	01H
	DB	01H
	DB	01H
	DB	01H
	DB	01H
	DB	01H
	DB	01H
	DB	01H
	DB	01H
	DB	01H
	DB	01H
	DB	01H
	DB	01H
	DB	01H
	DB	02dH
	DB	06H
	DB	039H
	DB	01H
	DB	01H
	DB	01H
	DB	01H
	DB	01H
	DB	01H
	DB	01H
	DB	01H
	DB	01H
	DB	01H
	DB	01H
	DB	01H
	DB	01H
	DB	01H
	DB	01H
	DB	01H
	DB	01H
	DB	01H
	DB	01H
	DB	01H
	DB	01H
	DB	01H
	DB	01H
	DB	01H
	DB	01H
	DB	01H
	DB	01H
	DB	01H
	DB	01H
	DB	01H
	DB	01H
	DB	01H
	DB	01H
	DB	01H
	DB	01H
	DB	01H
	DB	01H
	DB	01H
	DB	01H
	DB	01H
	DB	01H
	DB	01H
	DB	01H
	DB	01H
	DB	01H
	DB	01H
	DB	01H
	DB	01H
	DB	01H
	DB	01H
	DB	01H
	DB	01H
	DB	01H
	DB	01H
	DB	01H
	DB	01H
	DB	01H
	DB	01H
	DB	01H
	DB	01H
	DB	01H
	DB	01H
	DB	01H
	DB	01H
	DB	01H
	DB	01H
	DB	01H
	DB	01H
	DB	01H
	DB	01H
	DB	01H
	DB	01H
	DB	01H
	DB	01H
	DB	01H
	DB	01H
	DB	01H
	DB	01H
	DB	018H
	DB	018H
	DB	018H
	DB	01cH
	DB	01cH
	DB	018H
	DB	018H
	DB	02H
	DB	02H
	DB	027H
	DB	02H
	DB	02H
	DB	02dH
	DB	02H
	DB	01H
	DB	013H
	DB	010H
	DB	0b8H
	DB	0b8H
	DB	0b8H
	DB	013H
	DB	018H
	DB	018H
	DB	02H
	DB	013H
	DB	013H
	DB	010H
	DB	013H
	DB	013H
	DB	013H
	DB	018H
	DB	010H
	DB	027H
	DB	02H
	DB	01cH
	DB	010H
	DB	013H
	DB	018H
	DB	03H
	DB	05H
	DB	02H
	DB	01H
	DB	01H
	DB	018H
	DB	02H
	DB	0fH
	DB	05H
	DB	0cH
	DB	02H
	DB	036H
	DB	02H
	DB	021H
	DB	05H
	DB	03H
	DB	013H
	DB	02H
	DB	038H
	DB	02H
	DB	013H
	DB	03H
	DB	05H
	DB	02dH
	DB	01cH
	DB	039H
	DB	0fH
	DB	019H
	DB	019H
	DB	01bH
	DB	0aH
	DB	016H
	DB	041H
	DB	0cH
	DB	03H
	DB	02H
	DB	01H
	DB	012H
	DB	017H
	DB	0dH
	DB	01fH
	DB	0dH
	DB	0dH
	DB	017H
	DB	01fH
	DB	01fH
	DB	023H
	DB	028H
	DB	017H
	DB	028H
	DB	01fH
	DB	0dH
	DB	0dH
	DB	0dH
	DB	028H
	DB	03bH
	DB	02H
	DB	079H
	DB	0f2H
	DB	053H
	DB	02H
	DB	01H
	DB	05H
	DB	016H
	DB	012H
	DB	052H
	DB	02H
	DB	02H
	DB	02H
	DB	021H
	DB	039H
	DB	093H
	DB	020H
	DB	067H
	DB	01H
	DB	01H
	DB	01H
	DB	01H
	DB	01H
	DB	01H
	DB	01H
	DB	01H
	DB	01H
	DB	01H
	DB	01H
	DB	01H
	DB	01H
	DB	01H
	DB	01H
	DB	01H
	DB	01H
	DB	02dH
	DB	06H
	DB	039H
	DB	01H
	DB	01H
	DB	01H
	DB	01H
	DB	01H
	DB	01H
	DB	01H
	DB	01H
	DB	01H
	DB	01H
	DB	01H
	DB	01H
	DB	01H
	DB	01H
	DB	01H
	DB	01H
	DB	01H
	DB	01H
	DB	01H
	DB	01H
	DB	01H
	DB	01H
	DB	01H
	DB	01H
	DB	01H
	DB	01H
	DB	01H
	DB	01H
	DB	01H
	DB	01H
	DB	01H
	DB	01H
	DB	01H
	DB	01H
	DB	01H
	DB	01H
	DB	01H
	DB	01H
	DB	01H
	DB	01H
	DB	01H
	DB	01H
	DB	01H
	DB	01H
	DB	01H
	DB	01H
	DB	01H
	DB	01H
	DB	01H
	DB	01H
	DB	01H
	DB	01H
	DB	01H
	DB	01H
	DB	01H
	DB	01H
	DB	01H
	DB	01H
	DB	01H
	DB	01H
	DB	01H
	DB	01H
	DB	01H
	DB	01H
	DB	01H
	DB	01H
	DB	01H
	DB	01H
	DB	01H
	DB	01H
	DB	01H
	DB	01H
	DB	01H
	DB	01H
	DB	01H
	DB	01H
	DB	013H
	DB	01H
	DB	013H
	DB	01H
	DB	013H
	DB	013H
	DB	013H
	DB	010H
	DB	01H
	DB	02H
	DB	02H
	DB	01H
	DB	02H
	DB	024H
	DB	01cH
	DB	02H
	DB	02H
	DB	08H
	DB	0b8H
	DB	0b8H
	DB	0b8H
	DB	0b8H
	DB	0cH
	DB	018H
	DB	018H
	DB	013H
	DB	013H
	DB	01H
	DB	01H
	DB	01H
	DB	010H
	DB	02H
	DB	018H
	DB	03H
	DB	0eH
	DB	013H
	DB	01H
	DB	01H
	DB	01H
	DB	018H
	DB	01H
	DB	01H
	DB	01H
	DB	01H
	DB	018H
	DB	027H
	DB	049H
	DB	0aH
	DB	05H
	DB	02dH
	DB	01H
	DB	01H
	DB	01H
	DB	027H
	DB	01cH
	DB	018H
	DB	02H
	DB	018H
	DB	01cH
	DB	02dH
	DB	02H
	DB	02H
	DB	016H
	DB	08H
	DB	02fH
	DB	05H
	DB	03H
	DB	03H
	DB	019H
	DB	016H
	DB	02dH
	DB	01H
	DB	01H
	DB	01H
	DB	010H
	DB	02H
	DB	01cH
	DB	019H
	DB	017H
	DB	0dH
	DB	0dH
	DB	0dH
	DB	0dH
	DB	017H
	DB	01fH
	DB	01fH
	DB	023H
	DB	080H
	DB	080H
	DB	028H
	DB	01fH
	DB	0dH
	DB	0dH
	DB	0dH
	DB	017H
	DB	032H
	DB	01cH
	DB	01cH
	DB	02fH
	DB	02fH
	DB	01H
	DB	05H
	DB	03bH
	DB	019H
	DB	01bH
	DB	0eH
	DB	011H
	DB	03H
	DB	03H
	DB	05H
	DB	03H
	DB	03H
	DB	02fH
	DB	06H
	DB	01H
	DB	01H
	DB	01H
	DB	01H
	DB	01H
	DB	01H
	DB	01H
	DB	01H
	DB	01H
	DB	01H
	DB	01H
	DB	01H
	DB	01H
	DB	01H
	DB	01H
	DB	01H
	DB	01H
	DB	02dH
	DB	06H
	DB	039H
	DB	01H
	DB	01H
	DB	01H
	DB	01H
	DB	01H
	DB	01H
	DB	01H
	DB	01H
	DB	01H
	DB	01H
	DB	01H
	DB	01H
	DB	01H
	DB	01H
	DB	01H
	DB	01H
	DB	01H
	DB	01H
	DB	01H
	DB	01H
	DB	01H
	DB	01H
	DB	01H
	DB	01H
	DB	01H
	DB	01H
	DB	01H
	DB	01H
	DB	01H
	DB	01H
	DB	01H
	DB	01H
	DB	01H
	DB	01H
	DB	01H
	DB	01H
	DB	01H
	DB	01H
	DB	01H
	DB	01H
	DB	01H
	DB	01H
	DB	01H
	DB	01H
	DB	01H
	DB	01H
	DB	01H
	DB	01H
	DB	01H
	DB	01H
	DB	01H
	DB	01H
	DB	01H
	DB	01H
	DB	01H
	DB	01H
	DB	01H
	DB	01H
	DB	01H
	DB	01H
	DB	01H
	DB	01H
	DB	01H
	DB	01H
	DB	01H
	DB	01H
	DB	01H
	DB	01H
	DB	01H
	DB	01H
	DB	01H
	DB	01H
	DB	01H
	DB	01H
	DB	01H
	DB	013H
	DB	013H
	DB	013H
	DB	013H
	DB	013H
	DB	013H
	DB	013H
	DB	013H
	DB	010H
	DB	013H
	DB	01H
	DB	01H
	DB	01H
	DB	01H
	DB	01H
	DB	01H
	DB	02H
	DB	08H
	DB	08H
	DB	08H
	DB	08H
	DB	010H
	DB	010H
	DB	08H
	DB	018H
	DB	018H
	DB	013H
	DB	013H
	DB	01H
	DB	01H
	DB	018H
	DB	010H
	DB	02dH
	DB	02H
	DB	0cH
	DB	010H
	DB	01H
	DB	01H
	DB	018H
	DB	010H
	DB	013H
	DB	013H
	DB	018H
	DB	038H
	DB	038H
	DB	021H
	DB	01cH
	DB	03H
	DB	0aH
	DB	049H
	DB	013H
	DB	027H
	DB	039H
	DB	0aH
	DB	04fH
	DB	012H
	DB	05H
	DB	02dH
	DB	02H
	DB	039H
	DB	03H
	DB	049H
	DB	03H
	DB	038H
	DB	02H
	DB	027H
	DB	036H
	DB	0bH
	DB	012H
	DB	05H
	DB	0eH
	DB	011H
	DB	0cH
	DB	010H
	DB	018H
	DB	036H
	DB	049H
	DB	05H
	DB	061H
	DB	01fH
	DB	0dH
	DB	0dH
	DB	0dH
	DB	0dH
	DB	01fH
	DB	0dH
	DB	01fH
	DB	023H
	DB	017H
	DB	0fbH
	DB	080H
	DB	01fH
	DB	0dH
	DB	0dH
	DB	0dH
	DB	017H
	DB	044H
	DB	03H
	DB	01cH
	DB	018H
	DB	01H
	DB	018H
	DB	036H
	DB	02H
	DB	05H
	DB	016H
	DB	016H
	DB	01bH
	DB	016H
	DB	04fH
	DB	03H
	DB	038H
	DB	05H
	DB	012H
	DB	011H
	DB	01H
	DB	01H
	DB	01H
	DB	01H
	DB	01H
	DB	01H
	DB	01H
	DB	01H
	DB	01H
	DB	01H
	DB	01H
	DB	01H
	DB	01H
	DB	01H
	DB	01H
	DB	01H
	DB	01H
	DB	02dH
	DB	06H
	DB	039H
	DB	01H
	DB	01H
	DB	01H
	DB	01H
	DB	01H
	DB	01H
	DB	01H
	DB	01H
	DB	01H
	DB	01H
	DB	01H
	DB	01H
	DB	01H
	DB	01H
	DB	01H
	DB	01H
	DB	01H
	DB	01H
	DB	01H
	DB	01H
	DB	01H
	DB	01H
	DB	01H
	DB	01H
	DB	01H
	DB	01H
	DB	01H
	DB	01H
	DB	01H
	DB	01H
	DB	01H
	DB	01H
	DB	01H
	DB	01H
	DB	01H
	DB	01H
	DB	01H
	DB	01H
	DB	01H
	DB	01H
	DB	01H
	DB	01H
	DB	01H
	DB	01H
	DB	01H
	DB	01H
	DB	01H
	DB	01H
	DB	01H
	DB	01H
	DB	01H
	DB	01H
	DB	01H
	DB	01H
	DB	01H
	DB	01H
	DB	01H
	DB	01H
	DB	01H
	DB	01H
	DB	01H
	DB	01H
	DB	01H
	DB	01H
	DB	01H
	DB	01H
	DB	01H
	DB	01H
	DB	01H
	DB	01H
	DB	01H
	DB	01H
	DB	01H
	DB	01H
	DB	01H
	DB	013H
	DB	013H
	DB	013H
	DB	013H
	DB	013H
	DB	013H
	DB	013H
	DB	013H
	DB	010H
	DB	01H
	DB	01H
	DB	01H
	DB	01H
	DB	01H
	DB	013H
	DB	02H
	DB	013H
	DB	02H
	DB	08H
	DB	0cH
	DB	02dH
	DB	010H
	DB	027H
	DB	013H
	DB	018H
	DB	01H
	DB	010H
	DB	013H
	DB	01H
	DB	018H
	DB	01cH
	DB	02H
	DB	027H
	DB	02H
	DB	02H
	DB	013H
	DB	01H
	DB	01H
	DB	013H
	DB	010H
	DB	013H
	DB	018H
	DB	018H
	DB	02dH
	DB	021H
	DB	01cH
	DB	02H
	DB	01H
	DB	018H
	DB	02H
	DB	05H
	DB	079H
	DB	067H
	DB	067H
	DB	016H
	DB	067H
	DB	06H
	DB	018H
	DB	01cH
	DB	036H
	DB	02H
	DB	02H
	DB	024H
	DB	018H
	DB	038H
	DB	012H
	DB	019H
	DB	06H
	DB	0aH
	DB	010H
	DB	0aH
	DB	02dH
	DB	02H
	DB	03H
	DB	03H
	DB	01cH
	DB	01H
	DB	010H
	DB	0a7H
	DB	01fH
	DB	0dH
	DB	0dH
	DB	0dH
	DB	0dH
	DB	017H
	DB	01fH
	DB	0fbH
	DB	030H
	DB	023H
	DB	028H
	DB	023H
	DB	01fH
	DB	0dH
	DB	0dH
	DB	0dH
	DB	0dH
	DB	028H
	DB	019H
	DB	013H
	DB	027H
	DB	02dH
	DB	01H
	DB	08H
	DB	08H
	DB	01H
	DB	01H
	DB	01H
	DB	013H
	DB	02H
	DB	03H
	DB	02H
	DB	041H
	DB	019H
	DB	0fH
	DB	02H
	DB	01H
	DB	01H
	DB	01H
	DB	01H
	DB	01H
	DB	01H
	DB	01H
	DB	01H
	DB	01H
	DB	01H
	DB	01H
	DB	01H
	DB	01H
	DB	01H
	DB	01H
	DB	01H
	DB	01H
	DB	02dH
	DB	06H
	DB	039H
	DB	01H
	DB	01H
	DB	01H
	DB	01H
	DB	01H
	DB	01H
	DB	01H
	DB	01H
	DB	01H
	DB	01H
	DB	01H
	DB	01H
	DB	01H
	DB	01H
	DB	01H
	DB	01H
	DB	01H
	DB	01H
	DB	01H
	DB	01H
	DB	01H
	DB	01H
	DB	01H
	DB	01H
	DB	01H
	DB	01H
	DB	01H
	DB	01H
	DB	01H
	DB	01H
	DB	01H
	DB	01H
	DB	01H
	DB	01H
	DB	01H
	DB	01H
	DB	01H
	DB	01H
	DB	01H
	DB	01H
	DB	01H
	DB	01H
	DB	01H
	DB	01H
	DB	01H
	DB	01H
	DB	01H
	DB	01H
	DB	01H
	DB	01H
	DB	01H
	DB	01H
	DB	01H
	DB	01H
	DB	01H
	DB	01H
	DB	01H
	DB	01H
	DB	01H
	DB	01H
	DB	01H
	DB	01H
	DB	01H
	DB	01H
	DB	01H
	DB	01H
	DB	01H
	DB	01H
	DB	01H
	DB	01H
	DB	01H
	DB	01H
	DB	01H
	DB	013H
	DB	01H
	DB	01H
	DB	013H
	DB	013H
	DB	013H
	DB	01H
	DB	01H
	DB	01H
	DB	01H
	DB	01H
	DB	01H
	DB	018H
	DB	018H
	DB	018H
	DB	01H
	DB	02dH
	DB	038H
	DB	03H
	DB	03H
	DB	08H
	DB	03H
	DB	0cH
	DB	010H
	DB	018H
	DB	018H
	DB	018H
	DB	013H
	DB	018H
	DB	01cH
	DB	01H
	DB	01H
	DB	027H
	DB	036H
	DB	010H
	DB	01H
	DB	01H
	DB	013H
	DB	03H
	DB	010H
	DB	01H
	DB	018H
	DB	018H
	DB	018H
	DB	021H
	DB	01cH
	DB	02H
	DB	036H
	DB	039H
	DB	02dH
	DB	01cH
	DB	03H
	DB	067H
	DB	067H
	DB	01bH
	DB	012H
	DB	052H
	DB	012H
	DB	036H
	DB	01H
	DB	03H
	DB	0eH
	DB	0eH
	DB	018H
	DB	01cH
	DB	05H
	DB	012H
	DB	019H
	DB	06H
	DB	0bH
	DB	01cH
	DB	02H
	DB	0fH
	DB	02H
	DB	02H
	DB	02H
	DB	01cH
	DB	018H
	DB	0fH
	DB	016H
	DB	0a7H
	DB	01fH
	DB	01fH
	DB	0dH
	DB	04dH
	DB	04dH
	DB	0dH
	DB	0b7H
	DB	0b7H
	DB	01fH
	DB	01fH
	DB	0dH
	DB	01fH
	DB	0dH
	DB	04dH
	DB	0dH
	DB	0dH
	DB	01fH
	DB	0a7H
	DB	022H
	DB	019H
	DB	067H
	DB	06H
	DB	0e6H
	DB	020H
	DB	0aH
	DB	02H
	DB	013H
	DB	01cH
	DB	013H
	DB	021H
	DB	018H
	DB	01cH
	DB	0bH
	DB	019H
	DB	021H
	DB	02H
	DB	01H
	DB	01H
	DB	01H
	DB	01H
	DB	01H
	DB	01H
	DB	01H
	DB	01H
	DB	01H
	DB	01H
	DB	01H
	DB	01H
	DB	01H
	DB	01H
	DB	01H
	DB	01H
	DB	01H
	DB	02dH
	DB	06H
	DB	039H
	DB	01H
	DB	01H
	DB	01H
	DB	01H
	DB	01H
	DB	01H
	DB	01H
	DB	01H
	DB	01H
	DB	01H
	DB	01H
	DB	01H
	DB	01H
	DB	01H
	DB	01H
	DB	01H
	DB	01H
	DB	01H
	DB	01H
	DB	01H
	DB	01H
	DB	01H
	DB	01H
	DB	01H
	DB	01H
	DB	01H
	DB	01H
	DB	01H
	DB	01H
	DB	01H
	DB	01H
	DB	01H
	DB	01H
	DB	01H
	DB	01H
	DB	01H
	DB	01H
	DB	01H
	DB	01H
	DB	01H
	DB	01H
	DB	01H
	DB	01H
	DB	01H
	DB	01H
	DB	01H
	DB	01H
	DB	01H
	DB	01H
	DB	01H
	DB	01H
	DB	01H
	DB	01H
	DB	01H
	DB	01H
	DB	01H
	DB	01H
	DB	01H
	DB	01H
	DB	01H
	DB	01H
	DB	01H
	DB	01H
	DB	01H
	DB	01H
	DB	01H
	DB	01H
	DB	01H
	DB	01H
	DB	01H
	DB	01H
	DB	01H
	DB	01H
	DB	013H
	DB	013H
	DB	013H
	DB	013H
	DB	013H
	DB	01H
	DB	01H
	DB	018H
	DB	013H
	DB	01H
	DB	01H
	DB	01H
	DB	018H
	DB	01H
	DB	01H
	DB	01H
	DB	02H
	DB	02H
	DB	02dH
	DB	02H
	DB	018H
	DB	02H
	DB	02H
	DB	013H
	DB	013H
	DB	038H
	DB	02dH
	DB	02H
	DB	01H
	DB	01H
	DB	01H
	DB	02H
	DB	03H
	DB	0fH
	DB	0fH
	DB	036H
	DB	036H
	DB	0fH
	DB	02H
	DB	02H
	DB	038H
	DB	02dH
	DB	01H
	DB	01H
	DB	02dH
	DB	02H
	DB	03H
	DB	036H
	DB	024H
	DB	02dH
	DB	05H
	DB	041H
	DB	049H
	DB	079H
	DB	0bH
	DB	067H
	DB	01bH
	DB	04fH
	DB	013H
	DB	02H
	DB	012H
	DB	02H
	DB	02dH
	DB	038H
	DB	021H
	DB	01bH
	DB	01bH
	DB	05H
	DB	05H
	DB	03H
	DB	02H
	DB	049H
	DB	0aH
	DB	0aH
	DB	03H
	DB	01cH
	DB	01H
	DB	02H
	DB	02H
	DB	01bH
	DB	023H
	DB	01fH
	DB	01fH
	DB	01fH
	DB	0dH
	DB	01fH
	DB	017H
	DB	0dH
	DB	0fbH
	DB	080H
	DB	0fbH
	DB	01fH
	DB	080H
	DB	017H
	DB	0dH
	DB	0dH
	DB	01fH
	DB	017H
	DB	030H
	DB	032H
	DB	06H
	DB	020H
	DB	03bH
	DB	06H
	DB	04fH
	DB	03cH
	DB	039H
	DB	02H
	DB	02H
	DB	010H
	DB	0fH
	DB	09bH
	DB	039H
	DB	01dH
	DB	09bH
	DB	03H
	DB	038H
	DB	01H
	DB	01H
	DB	01H
	DB	01H
	DB	01H
	DB	01H
	DB	01H
	DB	01H
	DB	01H
	DB	01H
	DB	01H
	DB	01H
	DB	01H
	DB	01H
	DB	01H
	DB	01H
	DB	01H
	DB	02dH
	DB	06H
	DB	039H
	DB	01H
	DB	01H
	DB	01H
	DB	01H
	DB	01H
	DB	01H
	DB	01H
	DB	01H
	DB	01H
	DB	01H
	DB	01H
	DB	01H
	DB	01H
	DB	01H
	DB	01H
	DB	01H
	DB	01H
	DB	01H
	DB	01H
	DB	01H
	DB	01H
	DB	01H
	DB	01H
	DB	01H
	DB	01H
	DB	01H
	DB	01H
	DB	01H
	DB	01H
	DB	01H
	DB	01H
	DB	01H
	DB	01H
	DB	01H
	DB	01H
	DB	01H
	DB	01H
	DB	01H
	DB	01H
	DB	01H
	DB	01H
	DB	01H
	DB	01H
	DB	01H
	DB	01H
	DB	01H
	DB	01H
	DB	01H
	DB	01H
	DB	01H
	DB	01H
	DB	01H
	DB	01H
	DB	01H
	DB	01H
	DB	01H
	DB	01H
	DB	01H
	DB	01H
	DB	01H
	DB	01H
	DB	01H
	DB	01H
	DB	01H
	DB	01H
	DB	01H
	DB	01H
	DB	01H
	DB	01H
	DB	01H
	DB	01H
	DB	01H
	DB	01H
	DB	018H
	DB	013H
	DB	018H
	DB	01H
	DB	01H
	DB	01H
	DB	01H
	DB	018H
	DB	018H
	DB	013H
	DB	018H
	DB	01H
	DB	01H
	DB	01H
	DB	01H
	DB	018H
	DB	02H
	DB	01H
	DB	01H
	DB	01H
	DB	018H
	DB	02H
	DB	02dH
	DB	018H
	DB	013H
	DB	013H
	DB	01H
	DB	018H
	DB	02H
	DB	010H
	DB	01cH
	DB	01cH
	DB	010H
	DB	02dH
	DB	03H
	DB	036H
	DB	036H
	DB	02fH
	DB	02dH
	DB	02H
	DB	034H
	DB	02dH
	DB	0cH
	DB	03H
	DB	0cH
	DB	02H
	DB	018H
	DB	01H
	DB	01H
	DB	01H
	DB	01H
	DB	03H
	DB	05H
	DB	0aH
	DB	049H
	DB	042H
	DB	053H
	DB	026H
	DB	03H
	DB	02dH
	DB	018H
	DB	01H
	DB	010H
	DB	02H
	DB	018H
	DB	021H
	DB	067H
	DB	012H
	DB	01bH
	DB	012H
	DB	08H
	DB	03H
	DB	05H
	DB	05H
	DB	02H
	DB	038H
	DB	018H
	DB	034H
	DB	0aH
	DB	032H
	DB	028H
	DB	01fH
	DB	01fH
	DB	0dH
	DB	0dH
	DB	017H
	DB	028H
	DB	0b7H
	DB	080H
	DB	030H
	DB	023H
	DB	028H
	DB	030H
	DB	028H
	DB	01fH
	DB	0dH
	DB	0dH
	DB	017H
	DB	028H
	DB	022H
	DB	01cH
	DB	02H
	DB	05cH
	DB	06H
	DB	034H
	DB	02dH
	DB	036H
	DB	039H
	DB	049H
	DB	022H
	DB	016H
	DB	06H
	DB	049H
	DB	0aH
	DB	050H
	DB	02H
	DB	02H
	DB	01H
	DB	01H
	DB	01H
	DB	01H
	DB	01H
	DB	01H
	DB	01H
	DB	01H
	DB	01H
	DB	01H
	DB	01H
	DB	01H
	DB	01H
	DB	01H
	DB	01H
	DB	01H
	DB	01H
	DB	02dH
	DB	06H
	DB	039H
	DB	01H
	DB	01H
	DB	01H
	DB	01H
	DB	01H
	DB	01H
	DB	01H
	DB	01H
	DB	01H
	DB	01H
	DB	01H
	DB	01H
	DB	01H
	DB	01H
	DB	01H
	DB	01H
	DB	01H
	DB	01H
	DB	01H
	DB	01H
	DB	01H
	DB	01H
	DB	01H
	DB	01H
	DB	01H
	DB	01H
	DB	01H
	DB	01H
	DB	01H
	DB	01H
	DB	01H
	DB	01H
	DB	01H
	DB	01H
	DB	01H
	DB	01H
	DB	01H
	DB	01H
	DB	01H
	DB	01H
	DB	01H
	DB	01H
	DB	01H
	DB	01H
	DB	01H
	DB	01H
	DB	01H
	DB	01H
	DB	01H
	DB	01H
	DB	01H
	DB	01H
	DB	01H
	DB	01H
	DB	01H
	DB	01H
	DB	01H
	DB	01H
	DB	01H
	DB	01H
	DB	01H
	DB	01H
	DB	01H
	DB	01H
	DB	01H
	DB	01H
	DB	01H
	DB	01H
	DB	01H
	DB	01H
	DB	01H
	DB	01H
	DB	01H
	DB	01H
	DB	01H
	DB	01H
	DB	01H
	DB	01H
	DB	01H
	DB	027H
	DB	013H
	DB	01H
	DB	01cH
	DB	010H
	DB	013H
	DB	027H
	DB	018H
	DB	018H
	DB	018H
	DB	018H
	DB	01H
	DB	018H
	DB	013H
	DB	013H
	DB	018H
	DB	013H
	DB	013H
	DB	01H
	DB	013H
	DB	01H
	DB	018H
	DB	02H
	DB	010H
	DB	01cH
	DB	036H
	DB	02dH
	DB	018H
	DB	02H
	DB	03H
	DB	036H
	DB	02fH
	DB	024H
	DB	01H
	DB	038H
	DB	05H
	DB	02dH
	DB	05H
	DB	010H
	DB	018H
	DB	013H
	DB	01H
	DB	01H
	DB	036H
	DB	0aH
	DB	012H
	DB	036H
	DB	03H
	DB	021H
	DB	018H
	DB	01cH
	DB	018H
	DB	018H
	DB	010H
	DB	0fH
	DB	05H
	DB	03H
	DB	02H
	DB	01cH
	DB	01cH
	DB	039H
	DB	011H
	DB	06H
	DB	019H
	DB	0fH
	DB	01cH
	DB	018H
	DB	018H
	DB	018H
	DB	018H
	DB	05H
	DB	042H
	DB	05H
	DB	032H
	DB	017H
	DB	01fH
	DB	01fH
	DB	01fH
	DB	01fH
	DB	017H
	DB	017H
	DB	0b7H
	DB	080H
	DB	023H
	DB	023H
	DB	080H
	DB	030H
	DB	028H
	DB	0dH
	DB	01fH
	DB	01fH
	DB	01fH
	DB	028H
	DB	03bH
	DB	041H
	DB	02H
	DB	03H
	DB	024H
	DB	024H
	DB	05H
	DB	0aH
	DB	039H
	DB	05H
	DB	016H
	DB	02H
	DB	02H
	DB	021H
	DB	05H
	DB	016H
	DB	01bH
	DB	01bH
	DB	01H
	DB	01H
	DB	01H
	DB	01H
	DB	01H
	DB	01H
	DB	01H
	DB	01H
	DB	01H
	DB	01H
	DB	01H
	DB	01H
	DB	01H
	DB	01H
	DB	01H
	DB	01H
	DB	01H
	DB	02dH
	DB	06H
	DB	039H
	DB	01H
	DB	01H
	DB	01H
	DB	01H
	DB	01H
	DB	01H
	DB	01H
	DB	01H
	DB	01H
	DB	01H
	DB	01H
	DB	01H
	DB	01H
	DB	01H
	DB	01H
	DB	01H
	DB	01H
	DB	01H
	DB	01H
	DB	01H
	DB	01H
	DB	01H
	DB	01H
	DB	01H
	DB	01H
	DB	01H
	DB	01H
	DB	01H
	DB	01H
	DB	01H
	DB	01H
	DB	01H
	DB	01H
	DB	01H
	DB	01H
	DB	01H
	DB	01H
	DB	01H
	DB	01H
	DB	01H
	DB	01H
	DB	01H
	DB	01H
	DB	01H
	DB	01H
	DB	01H
	DB	01H
	DB	01H
	DB	01H
	DB	01H
	DB	01H
	DB	01H
	DB	01H
	DB	01H
	DB	01H
	DB	01H
	DB	01H
	DB	01H
	DB	01H
	DB	01H
	DB	01H
	DB	01H
	DB	01H
	DB	01H
	DB	01H
	DB	01H
	DB	01H
	DB	01H
	DB	01H
	DB	01H
	DB	013H
	DB	01H
	DB	01H
	DB	01H
	DB	01H
	DB	01H
	DB	01H
	DB	018H
	DB	010H
	DB	018H
	DB	018H
	DB	01cH
	DB	02H
	DB	010H
	DB	01H
	DB	021H
	DB	02H
	DB	010H
	DB	010H
	DB	01H
	DB	018H
	DB	013H
	DB	01H
	DB	013H
	DB	02H
	DB	0cH
	DB	013H
	DB	018H
	DB	018H
	DB	01H
	DB	01H
	DB	01H
	DB	01H
	DB	01H
	DB	01cH
	DB	018H
	DB	02H
	DB	018H
	DB	01cH
	DB	02dH
	DB	013H
	DB	01H
	DB	01H
	DB	01H
	DB	01H
	DB	01H
	DB	018H
	DB	01H
	DB	01H
	DB	01H
	DB	018H
	DB	013H
	DB	02H
	DB	05H
	DB	041H
	DB	018H
	DB	01H
	DB	018H
	DB	02H
	DB	018H
	DB	018H
	DB	010H
	DB	08H
	DB	0fH
	DB	041H
	DB	0bH
	DB	067H
	DB	02dH
	DB	018H
	DB	018H
	DB	02H
	DB	079H
	DB	05H
	DB	041H
	DB	05H
	DB	01H
	DB	01H
	DB	01H
	DB	02H
	DB	077H
	DB	06H
	DB	067H
	DB	061H
	DB	017H
	DB	01fH
	DB	01fH
	DB	01fH
	DB	01fH
	DB	017H
	DB	017H
	DB	0b7H
	DB	080H
	DB	023H
	DB	023H
	DB	023H
	DB	030H
	DB	017H
	DB	01fH
	DB	01fH
	DB	01fH
	DB	01fH
	DB	028H
	DB	030H
	DB	0e6H
	DB	0e6H
	DB	011H
	DB	0cH
	DB	067H
	DB	016H
	DB	020H
	DB	02aH
	DB	020H
	DB	08H
	DB	0cH
	DB	039H
	DB	09bH
	DB	0f2H
	DB	044H
	DB	03bH
	DB	032H
	DB	01H
	DB	01H
	DB	01H
	DB	01H
	DB	01H
	DB	01H
	DB	01H
	DB	01H
	DB	01H
	DB	01H
	DB	01H
	DB	01H
	DB	01H
	DB	01H
	DB	01H
	DB	01H
	DB	01H
	DB	02dH
	DB	06H
	DB	039H
	DB	01H
	DB	01H
	DB	01H
	DB	01H
	DB	01H
	DB	01H
	DB	01H
	DB	01H
	DB	01H
	DB	01H
	DB	01H
	DB	01H
	DB	01H
	DB	01H
	DB	01H
	DB	01H
	DB	01H
	DB	01H
	DB	01H
	DB	01H
	DB	01H
	DB	01H
	DB	01H
	DB	01H
	DB	01H
	DB	01H
	DB	01H
	DB	01H
	DB	01H
	DB	01H
	DB	01H
	DB	01H
	DB	01H
	DB	01H
	DB	01H
	DB	01H
	DB	01H
	DB	01H
	DB	01H
	DB	01H
	DB	01H
	DB	01H
	DB	01H
	DB	01H
	DB	01H
	DB	01H
	DB	01H
	DB	01H
	DB	01H
	DB	01H
	DB	01H
	DB	01H
	DB	01H
	DB	01H
	DB	01H
	DB	01H
	DB	01H
	DB	01H
	DB	01H
	DB	01H
	DB	01H
	DB	01H
	DB	01H
	DB	01H
	DB	01H
	DB	01H
	DB	01H
	DB	01H
	DB	01H
	DB	01H
	DB	01H
	DB	01H
	DB	01H
	DB	01H
	DB	018H
	DB	013H
	DB	01H
	DB	018H
	DB	018H
	DB	01H
	DB	018H
	DB	013H
	DB	010H
	DB	013H
	DB	01H
	DB	018H
	DB	010H
	DB	01cH
	DB	01cH
	DB	01H
	DB	018H
	DB	02H
	DB	08H
	DB	03H
	DB	03H
	DB	0cH
	DB	010H
	DB	01H
	DB	01H
	DB	01H
	DB	018H
	DB	01H
	DB	01H
	DB	018H
	DB	01H
	DB	02H
	DB	036H
	DB	010H
	DB	02H
	DB	02dH
	DB	01H
	DB	01H
	DB	01H
	DB	013H
	DB	02H
	DB	01H
	DB	01H
	DB	01H
	DB	01H
	DB	027H
	DB	02H
	DB	01H
	DB	02H
	DB	03H
	DB	03H
	DB	02H
	DB	018H
	DB	018H
	DB	018H
	DB	02H
	DB	038H
	DB	0cH
	DB	03H
	DB	010H
	DB	039H
	DB	034H
	DB	05H
	DB	02dH
	DB	018H
	DB	013H
	DB	013H
	DB	01cH
	DB	01H
	DB	05H
	DB	0aH
	DB	03H
	DB	02dH
	DB	0eH
	DB	09bH
	DB	0bH
	DB	041H
	DB	012H
	DB	0a7H
	DB	01fH
	DB	01fH
	DB	01fH
	DB	01fH
	DB	01fH
	DB	017H
	DB	080H
	DB	0b7H
	DB	080H
	DB	023H
	DB	080H
	DB	080H
	DB	030H
	DB	017H
	DB	01fH
	DB	01fH
	DB	01fH
	DB	01fH
	DB	028H
	DB	030H
	DB	022H
	DB	06H
	DB	057H
	DB	057H
	DB	011H
	DB	05H
	DB	0a6H
	DB	0f5H
	DB	01dH
	DB	01bH
	DB	012H
	DB	05H
	DB	053H
	DB	026H
	DB	03H
	DB	038H
	DB	024H
	DB	01H
	DB	01H
	DB	01H
	DB	01H
	DB	01H
	DB	01H
	DB	01H
	DB	01H
	DB	01H
	DB	01H
	DB	01H
	DB	01H
	DB	01H
	DB	01H
	DB	01H
	DB	01H
	DB	01H
	DB	02dH
	DB	06H
	DB	039H
	DB	01H
	DB	01H
	DB	01H
	DB	01H
	DB	01H
	DB	01H
	DB	01H
	DB	01H
	DB	01H
	DB	01H
	DB	01H
	DB	01H
	DB	01H
	DB	01H
	DB	01H
	DB	01H
	DB	01H
	DB	01H
	DB	01H
	DB	01H
	DB	01H
	DB	01H
	DB	01H
	DB	01H
	DB	01H
	DB	01H
	DB	01H
	DB	01H
	DB	01H
	DB	01H
	DB	01H
	DB	01H
	DB	01H
	DB	01H
	DB	01H
	DB	01H
	DB	01H
	DB	01H
	DB	01H
	DB	01H
	DB	01H
	DB	01H
	DB	01H
	DB	01H
	DB	01H
	DB	01H
	DB	01H
	DB	01H
	DB	01H
	DB	01H
	DB	01H
	DB	01H
	DB	01H
	DB	01H
	DB	01H
	DB	01H
	DB	01H
	DB	01H
	DB	01H
	DB	01H
	DB	01H
	DB	01H
	DB	01H
	DB	01H
	DB	01H
	DB	01H
	DB	01H
	DB	01H
	DB	01H
	DB	01H
	DB	01H
	DB	01H
	DB	01H
	DB	01H
	DB	01H
	DB	01H
	DB	01H
	DB	01H
	DB	01H
	DB	01H
	DB	013H
	DB	01H
	DB	013H
	DB	02H
	DB	010H
	DB	01H
	DB	018H
	DB	02H
	DB	02H
	DB	02H
	DB	010H
	DB	02H
	DB	038H
	DB	010H
	DB	018H
	DB	018H
	DB	01H
	DB	01H
	DB	01H
	DB	018H
	DB	02H
	DB	02H
	DB	038H
	DB	013H
	DB	013H
	DB	011H
	DB	041H
	DB	03H
	DB	02H
	DB	010H
	DB	01H
	DB	01H
	DB	018H
	DB	05H
	DB	041H
	DB	03H
	DB	018H
	DB	038H
	DB	02H
	DB	0eH
	DB	0eH
	DB	013H
	DB	013H
	DB	01cH
	DB	013H
	DB	01cH
	DB	02H
	DB	01H
	DB	018H
	DB	021H
	DB	018H
	DB	01H
	DB	0eH
	DB	016H
	DB	01bH
	DB	079H
	DB	02dH
	DB	018H
	DB	02H
	DB	02H
	DB	02H
	DB	027H
	DB	010H
	DB	038H
	DB	06H
	DB	050H
	DB	018H
	DB	018H
	DB	01cH
	DB	018H
	DB	01H
	DB	0fH
	DB	0a7H
	DB	01fH
	DB	01fH
	DB	01fH
	DB	0dH
	DB	01fH
	DB	017H
	DB	017H
	DB	0b7H
	DB	023H
	DB	023H
	DB	080H
	DB	080H
	DB	030H
	DB	028H
	DB	01fH
	DB	01fH
	DB	01fH
	DB	01fH
	DB	028H
	DB	023H
	DB	032H
	DB	016H
	DB	022H
	DB	032H
	DB	05bH
	DB	011H
	DB	019H
	DB	03bH
	DB	044H
	DB	067H
	DB	09bH
	DB	0bH
	DB	038H
	DB	02H
	DB	02H
	DB	08H
	DB	021H
	DB	01H
	DB	01H
	DB	01H
	DB	01H
	DB	01H
	DB	01H
	DB	01H
	DB	01H
	DB	01H
	DB	01H
	DB	01H
	DB	01H
	DB	01H
	DB	01H
	DB	01H
	DB	01H
	DB	01H
	DB	02dH
	DB	06H
	DB	039H
	DB	01H
	DB	01H
	DB	01H
	DB	01H
	DB	01H
	DB	01H
	DB	01H
	DB	01H
	DB	01H
	DB	01H
	DB	01H
	DB	01H
	DB	01H
	DB	01H
	DB	01H
	DB	01H
	DB	01H
	DB	01H
	DB	01H
	DB	01H
	DB	01H
	DB	01H
	DB	01H
	DB	01H
	DB	01H
	DB	01H
	DB	01H
	DB	01H
	DB	01H
	DB	01H
	DB	01H
	DB	01H
	DB	01H
	DB	01H
	DB	01H
	DB	01H
	DB	01H
	DB	01H
	DB	01H
	DB	01H
	DB	01H
	DB	01H
	DB	01H
	DB	01H
	DB	01H
	DB	01H
	DB	01H
	DB	01H
	DB	01H
	DB	01H
	DB	01H
	DB	01H
	DB	01H
	DB	01H
	DB	01H
	DB	01H
	DB	01H
	DB	01H
	DB	01H
	DB	01H
	DB	01H
	DB	01H
	DB	01H
	DB	01H
	DB	01H
	DB	01H
	DB	01H
	DB	01H
	DB	01H
	DB	01H
	DB	01H
	DB	01H
	DB	01H
	DB	01H
	DB	01H
	DB	01H
	DB	013H
	DB	013H
	DB	01H
	DB	01H
	DB	013H
	DB	013H
	DB	013H
	DB	010H
	DB	013H
	DB	01H
	DB	02H
	DB	08H
	DB	02dH
	DB	0cH
	DB	038H
	DB	013H
	DB	018H
	DB	01H
	DB	01H
	DB	01H
	DB	01H
	DB	01H
	DB	01H
	DB	01H
	DB	021H
	DB	03H
	DB	036H
	DB	02H
	DB	010H
	DB	0fH
	DB	0fH
	DB	0fH
	DB	0cH
	DB	013H
	DB	013H
	DB	010H
	DB	038H
	DB	05H
	DB	018H
	DB	018H
	DB	018H
	DB	018H
	DB	02H
	DB	02dH
	DB	0fH
	DB	011H
	DB	02H
	DB	01H
	DB	01H
	DB	013H
	DB	010H
	DB	018H
	DB	018H
	DB	036H
	DB	038H
	DB	02H
	DB	08H
	DB	0eH
	DB	041H
	DB	039H
	DB	049H
	DB	049H
	DB	02H
	DB	01cH
	DB	01cH
	DB	026H
	DB	05H
	DB	02H
	DB	0aH
	DB	03H
	DB	02H
	DB	021H
	DB	021H
	DB	010H
	DB	05H
	DB	032H
	DB	030H
	DB	01fH
	DB	01fH
	DB	01fH
	DB	0dH
	DB	01fH
	DB	080H
	DB	017H
	DB	0b7H
	DB	023H
	DB	030H
	DB	023H
	DB	080H
	DB	023H
	DB	028H
	DB	01fH
	DB	01fH
	DB	01fH
	DB	01fH
	DB	028H
	DB	028H
	DB	03bH
	DB	019H
	DB	019H
	DB	01bH
	DB	012H
	DB	022H
	DB	011H
	DB	019H
	DB	019H
	DB	041H
	DB	010H
	DB	012H
	DB	06H
	DB	0bH
	DB	041H
	DB	0bH
	DB	02H
	DB	01H
	DB	01H
	DB	01H
	DB	01H
	DB	01H
	DB	01H
	DB	01H
	DB	01H
	DB	01H
	DB	01H
	DB	01H
	DB	01H
	DB	01H
	DB	01H
	DB	01H
	DB	01H
	DB	01H
	DB	02dH
	DB	06H
	DB	039H
	DB	01H
	DB	01H
	DB	01H
	DB	01H
	DB	01H
	DB	01H
	DB	01H
	DB	01H
	DB	01H
	DB	01H
	DB	01H
	DB	01H
	DB	01H
	DB	01H
	DB	01H
	DB	01H
	DB	01H
	DB	01H
	DB	01H
	DB	01H
	DB	01H
	DB	01H
	DB	01H
	DB	01H
	DB	01H
	DB	01H
	DB	01H
	DB	01H
	DB	01H
	DB	01H
	DB	01H
	DB	01H
	DB	01H
	DB	01H
	DB	01H
	DB	01H
	DB	01H
	DB	01H
	DB	01H
	DB	01H
	DB	01H
	DB	01H
	DB	01H
	DB	01H
	DB	01H
	DB	01H
	DB	01H
	DB	01H
	DB	01H
	DB	01H
	DB	01H
	DB	01H
	DB	01H
	DB	01H
	DB	01H
	DB	01H
	DB	01H
	DB	01H
	DB	01H
	DB	01H
	DB	01H
	DB	01H
	DB	01H
	DB	01H
	DB	01H
	DB	01H
	DB	01H
	DB	01H
	DB	01H
	DB	01H
	DB	01H
	DB	01H
	DB	01H
	DB	01H
	DB	01H
	DB	01H
	DB	01H
	DB	018H
	DB	018H
	DB	018H
	DB	013H
	DB	010H
	DB	013H
	DB	01H
	DB	01H
	DB	018H
	DB	02H
	DB	02H
	DB	038H
	DB	02dH
	DB	02dH
	DB	01cH
	DB	01H
	DB	01H
	DB	01H
	DB	018H
	DB	013H
	DB	018H
	DB	01H
	DB	01H
	DB	018H
	DB	02H
	DB	018H
	DB	01H
	DB	018H
	DB	02H
	DB	02H
	DB	0cH
	DB	010H
	DB	01H
	DB	018H
	DB	018H
	DB	02H
	DB	02H
	DB	01H
	DB	01H
	DB	01H
	DB	01H
	DB	018H
	DB	01H
	DB	013H
	DB	013H
	DB	01H
	DB	01H
	DB	02H
	DB	010H
	DB	027H
	DB	018H
	DB	021H
	DB	09bH
	DB	036H
	DB	021H
	DB	02H
	DB	013H
	DB	02H
	DB	01H
	DB	03H
	DB	067H
	DB	034H
	DB	024H
	DB	010H
	DB	03H
	DB	02H
	DB	010H
	DB	02H
	DB	03cH
	DB	036H
	DB	02H
	DB	02H
	DB	02H
	DB	02H
	DB	019H
	DB	028H
	DB	01fH
	DB	01fH
	DB	01fH
	DB	0dH
	DB	01fH
	DB	080H
	DB	017H
	DB	0b7H
	DB	023H
	DB	023H
	DB	023H
	DB	023H
	DB	023H
	DB	023H
	DB	01fH
	DB	01fH
	DB	0dH
	DB	01fH
	DB	028H
	DB	030H
	DB	032H
	DB	012H
	DB	05H
	DB	05H
	DB	026H
	DB	053H
	DB	0a6H
	DB	0a6H
	DB	044H
	DB	03H
	DB	08H
	DB	0eH
	DB	039H
	DB	05H
	DB	05H
	DB	036H
	DB	02dH
	DB	01H
	DB	01H
	DB	01H
	DB	01H
	DB	01H
	DB	01H
	DB	01H
	DB	01H
	DB	01H
	DB	01H
	DB	01H
	DB	01H
	DB	01H
	DB	01H
	DB	01H
	DB	01H
	DB	01H
	DB	02dH
	DB	06H
	DB	039H
	DB	01H
	DB	01H
	DB	01H
	DB	01H
	DB	01H
	DB	01H
	DB	01H
	DB	01H
	DB	01H
	DB	01H
	DB	01H
	DB	01H
	DB	01H
	DB	01H
	DB	01H
	DB	01H
	DB	01H
	DB	01H
	DB	01H
	DB	01H
	DB	01H
	DB	01H
	DB	01H
	DB	01H
	DB	01H
	DB	01H
	DB	01H
	DB	01H
	DB	01H
	DB	01H
	DB	01H
	DB	01H
	DB	01H
	DB	01H
	DB	01H
	DB	01H
	DB	01H
	DB	01H
	DB	01H
	DB	01H
	DB	01H
	DB	01H
	DB	01H
	DB	01H
	DB	01H
	DB	01H
	DB	01H
	DB	01H
	DB	01H
	DB	01H
	DB	01H
	DB	01H
	DB	01H
	DB	01H
	DB	01H
	DB	01H
	DB	01H
	DB	01H
	DB	01H
	DB	01H
	DB	01H
	DB	01H
	DB	01H
	DB	01H
	DB	01H
	DB	01H
	DB	01H
	DB	01H
	DB	01H
	DB	01H
	DB	01H
	DB	01H
	DB	01H
	DB	01H
	DB	01H
	DB	01H
	DB	01H
	DB	018H
	DB	018H
	DB	013H
	DB	010H
	DB	010H
	DB	013H
	DB	013H
	DB	01H
	DB	01H
	DB	027H
	DB	02H
	DB	02H
	DB	013H
	DB	010H
	DB	013H
	DB	013H
	DB	013H
	DB	01H
	DB	01H
	DB	018H
	DB	013H
	DB	013H
	DB	01H
	DB	01H
	DB	01H
	DB	013H
	DB	013H
	DB	013H
	DB	02dH
	DB	0eH
	DB	03H
	DB	03H
	DB	018H
	DB	01H
	DB	01H
	DB	018H
	DB	013H
	DB	013H
	DB	010H
	DB	02H
	DB	018H
	DB	01H
	DB	018H
	DB	018H
	DB	01H
	DB	01H
	DB	018H
	DB	02H
	DB	01cH
	DB	018H
	DB	013H
	DB	02H
	DB	05H
	DB	02H
	DB	01cH
	DB	038H
	DB	03H
	DB	08H
	DB	010H
	DB	02H
	DB	027H
	DB	053H
	DB	05H
	DB	021H
	DB	09bH
	DB	012H
	DB	013H
	DB	018H
	DB	03H
	DB	010H
	DB	02H
	DB	03H
	DB	02H
	DB	024H
	DB	032H
	DB	028H
	DB	01fH
	DB	01fH
	DB	01fH
	DB	01fH
	DB	01fH
	DB	017H
	DB	017H
	DB	0dH
	DB	030H
	DB	023H
	DB	023H
	DB	023H
	DB	023H
	DB	028H
	DB	01fH
	DB	01fH
	DB	01fH
	DB	0dH
	DB	080H
	DB	028H
	DB	061H
	DB	01bH
	DB	012H
	DB	0fH
	DB	01H
	DB	01H
	DB	041H
	DB	03bH
	DB	020H
	DB	036H
	DB	03H
	DB	03H
	DB	021H
	DB	036H
	DB	05H
	DB	02H
	DB	02H
	DB	01H
	DB	01H
	DB	01H
	DB	01H
	DB	01H
	DB	01H
	DB	01H
	DB	01H
	DB	01H
	DB	01H
	DB	01H
	DB	01H
	DB	01H
	DB	01H
	DB	01H
	DB	01H
	DB	01H
	DB	02dH
	DB	06H
	DB	039H
	DB	01H
	DB	01H
	DB	01H
	DB	01H
	DB	01H
	DB	01H
	DB	01H
	DB	01H
	DB	01H
	DB	01H
	DB	01H
	DB	01H
	DB	01H
	DB	01H
	DB	01H
	DB	01H
	DB	01H
	DB	01H
	DB	01H
	DB	01H
	DB	01H
	DB	01H
	DB	01H
	DB	01H
	DB	01H
	DB	01H
	DB	01H
	DB	01H
	DB	01H
	DB	01H
	DB	01H
	DB	01H
	DB	01H
	DB	01H
	DB	01H
	DB	01H
	DB	01H
	DB	01H
	DB	01H
	DB	01H
	DB	01H
	DB	01H
	DB	01H
	DB	01H
	DB	01H
	DB	01H
	DB	01H
	DB	01H
	DB	01H
	DB	01H
	DB	01H
	DB	01H
	DB	01H
	DB	01H
	DB	01H
	DB	01H
	DB	01H
	DB	01H
	DB	01H
	DB	01H
	DB	01H
	DB	01H
	DB	01H
	DB	01H
	DB	01H
	DB	01H
	DB	01H
	DB	01H
	DB	01H
	DB	01H
	DB	01H
	DB	01H
	DB	01H
	DB	01H
	DB	01H
	DB	01H
	DB	01H
	DB	01H
	DB	013H
	DB	013H
	DB	013H
	DB	010H
	DB	010H
	DB	010H
	DB	01cH
	DB	01cH
	DB	013H
	DB	018H
	DB	01H
	DB	013H
	DB	02H
	DB	013H
	DB	010H
	DB	02H
	DB	02H
	DB	013H
	DB	013H
	DB	013H
	DB	02H
	DB	013H
	DB	01H
	DB	02H
	DB	036H
	DB	036H
	DB	010H
	DB	03H
	DB	03H
	DB	02H
	DB	010H
	DB	018H
	DB	018H
	DB	018H
	DB	03H
	DB	02dH
	DB	08H
	DB	0eH
	DB	03H
	DB	018H
	DB	018H
	DB	018H
	DB	02dH
	DB	013H
	DB	01cH
	DB	018H
	DB	03H
	DB	02H
	DB	0fH
	DB	0eH
	DB	0eH
	DB	0fH
	DB	013H
	DB	018H
	DB	01cH
	DB	0aH
	DB	0bH
	DB	03H
	DB	049H
	DB	0fH
	DB	08H
	DB	03H
	DB	0aH
	DB	03bH
	DB	0e6H
	DB	016H
	DB	01H
	DB	03cH
	DB	06H
	DB	038H
	DB	026H
	DB	03H
	DB	038H
	DB	061H
	DB	017H
	DB	01fH
	DB	01fH
	DB	01fH
	DB	01fH
	DB	017H
	DB	017H
	DB	0fbH
	DB	014H
	DB	030H
	DB	023H
	DB	023H
	DB	080H
	DB	023H
	DB	017H
	DB	0dH
	DB	0dH
	DB	01fH
	DB	01fH
	DB	017H
	DB	028H
	DB	0a7H
	DB	012H
	DB	0cH
	DB	02H
	DB	01cH
	DB	03H
	DB	0aH
	DB	06H
	DB	057H
	DB	05bH
	DB	057H
	DB	032H
	DB	036H
	DB	021H
	DB	034H
	DB	067H
	DB	05cH
	DB	01H
	DB	01H
	DB	01H
	DB	01H
	DB	01H
	DB	01H
	DB	01H
	DB	01H
	DB	01H
	DB	01H
	DB	01H
	DB	01H
	DB	01H
	DB	01H
	DB	01H
	DB	01H
	DB	01H
	DB	02dH
	DB	06H
	DB	039H
	DB	01H
	DB	01H
	DB	01H
	DB	01H
	DB	01H
	DB	01H
	DB	01H
	DB	01H
	DB	01H
	DB	01H
	DB	01H
	DB	01H
	DB	01H
	DB	01H
	DB	01H
	DB	01H
	DB	01H
	DB	01H
	DB	01H
	DB	01H
	DB	01H
	DB	01H
	DB	01H
	DB	01H
	DB	01H
	DB	01H
	DB	01H
	DB	01H
	DB	01H
	DB	01H
	DB	01H
	DB	01H
	DB	01H
	DB	01H
	DB	01H
	DB	01H
	DB	01H
	DB	01H
	DB	01H
	DB	01H
	DB	01H
	DB	01H
	DB	01H
	DB	01H
	DB	01H
	DB	01H
	DB	01H
	DB	01H
	DB	01H
	DB	01H
	DB	01H
	DB	01H
	DB	01H
	DB	01H
	DB	01H
	DB	01H
	DB	01H
	DB	01H
	DB	01H
	DB	01H
	DB	01H
	DB	01H
	DB	01H
	DB	01H
	DB	01H
	DB	01H
	DB	01H
	DB	01H
	DB	01H
	DB	01H
	DB	01H
	DB	01H
	DB	01H
	DB	01H
	DB	01H
	DB	01H
	DB	01H
	DB	01H
	DB	01H
	DB	013H
	DB	010H
	DB	02H
	DB	027H
	DB	02H
	DB	02dH
	DB	02H
	DB	01H
	DB	01H
	DB	01H
	DB	01H
	DB	013H
	DB	01H
	DB	013H
	DB	027H
	DB	018H
	DB	013H
	DB	01H
	DB	01H
	DB	013H
	DB	010H
	DB	013H
	DB	018H
	DB	01cH
	DB	018H
	DB	038H
	DB	03H
	DB	02dH
	DB	03H
	DB	01cH
	DB	01H
	DB	01H
	DB	01H
	DB	01H
	DB	018H
	DB	027H
	DB	03H
	DB	010H
	DB	01H
	DB	010H
	DB	024H
	DB	03H
	DB	02H
	DB	02H
	DB	01H
	DB	013H
	DB	011H
	DB	0fH
	DB	0cH
	DB	0fH
	DB	0fH
	DB	010H
	DB	03H
	DB	067H
	DB	067H
	DB	049H
	DB	038H
	DB	011H
	DB	016H
	DB	011H
	DB	052H
	DB	012H
	DB	0e6H
	DB	06H
	DB	0cH
	DB	01H
	DB	02H
	DB	077H
	DB	042H
	DB	02H
	DB	021H
	DB	011H
	DB	023H
	DB	01fH
	DB	01fH
	DB	01fH
	DB	01fH
	DB	01fH
	DB	017H
	DB	080H
	DB	0fbH
	DB	0dH
	DB	030H
	DB	023H
	DB	023H
	DB	080H
	DB	023H
	DB	017H
	DB	0dH
	DB	01fH
	DB	01fH
	DB	01fH
	DB	017H
	DB	028H
	DB	061H
	DB	01H
	DB	01H
	DB	03H
	DB	019H
	DB	032H
	DB	057H
	DB	032H
	DB	061H
	DB	032H
	DB	061H
	DB	012H
	DB	01H
	DB	01H
	DB	042H
	DB	0f5H
	DB	06H
	DB	01H
	DB	01H
	DB	01H
	DB	01H
	DB	01H
	DB	01H
	DB	01H
	DB	01H
	DB	01H
	DB	01H
	DB	01H
	DB	01H
	DB	01H
	DB	01H
	DB	01H
	DB	01H
	DB	01H
	DB	02dH
	DB	06H
	DB	039H
	DB	01H
	DB	01H
	DB	01H
	DB	01H
	DB	01H
	DB	01H
	DB	01H
	DB	01H
	DB	01H
	DB	01H
	DB	01H
	DB	01H
	DB	01H
	DB	01H
	DB	01H
	DB	01H
	DB	01H
	DB	01H
	DB	01H
	DB	01H
	DB	01H
	DB	01H
	DB	01H
	DB	01H
	DB	01H
	DB	01H
	DB	01H
	DB	01H
	DB	01H
	DB	01H
	DB	01H
	DB	01H
	DB	01H
	DB	01H
	DB	01H
	DB	01H
	DB	01H
	DB	01H
	DB	01H
	DB	01H
	DB	01H
	DB	01H
	DB	01H
	DB	01H
	DB	01H
	DB	01H
	DB	01H
	DB	01H
	DB	01H
	DB	01H
	DB	01H
	DB	01H
	DB	01H
	DB	01H
	DB	01H
	DB	01H
	DB	01H
	DB	01H
	DB	01H
	DB	01H
	DB	01H
	DB	01H
	DB	01H
	DB	01H
	DB	01H
	DB	01H
	DB	01H
	DB	01H
	DB	01H
	DB	01H
	DB	01H
	DB	01H
	DB	01H
	DB	01H
	DB	01H
	DB	01H
	DB	01H
	DB	01H
	DB	01H
	DB	018H
	DB	018H
	DB	010H
	DB	02H
	DB	02H
	DB	02dH
	DB	010H
	DB	018H
	DB	018H
	DB	01H
	DB	01H
	DB	01H
	DB	01H
	DB	013H
	DB	018H
	DB	02H
	DB	02dH
	DB	018H
	DB	018H
	DB	02H
	DB	02dH
	DB	013H
	DB	01H
	DB	01H
	DB	01H
	DB	01cH
	DB	01H
	DB	01H
	DB	02H
	DB	01H
	DB	01H
	DB	013H
	DB	018H
	DB	018H
	DB	01H
	DB	01H
	DB	02H
	DB	018H
	DB	01H
	DB	02H
	DB	03H
	DB	018H
	DB	018H
	DB	018H
	DB	01H
	DB	010H
	DB	013H
	DB	01H
	DB	018H
	DB	018H
	DB	018H
	DB	013H
	DB	038H
	DB	079H
	DB	09bH
	DB	036H
	DB	08H
	DB	0aH
	DB	0aH
	DB	05H
	DB	03H
	DB	06H
	DB	0e6H
	DB	041H
	DB	018H
	DB	027H
	DB	01cH
	DB	02H
	DB	024H
	DB	05H
	DB	034H
	DB	0ccH
	DB	06fH
	DB	017H
	DB	0dH
	DB	0dH
	DB	0dH
	DB	0dH
	DB	01fH
	DB	028H
	DB	080H
	DB	01fH
	DB	030H
	DB	030H
	DB	023H
	DB	023H
	DB	030H
	DB	017H
	DB	01fH
	DB	01fH
	DB	01fH
	DB	0dH
	DB	0dH
	DB	01fH
	DB	0f0H
	DB	011H
	DB	02H
	DB	0fH
	DB	0eH
	DB	0eH
	DB	022H
	DB	044H
	DB	019H
	DB	03bH
	DB	01dH
	DB	044H
	DB	057H
	DB	08H
	DB	036H
	DB	0f2H
	DB	06H
	DB	01H
	DB	01H
	DB	01H
	DB	01H
	DB	01H
	DB	01H
	DB	01H
	DB	01H
	DB	01H
	DB	01H
	DB	01H
	DB	01H
	DB	01H
	DB	01H
	DB	01H
	DB	01H
	DB	01H
	DB	02dH
	DB	06H
	DB	039H
	DB	01H
	DB	01H
	DB	01H
	DB	01H
	DB	01H
	DB	01H
	DB	01H
	DB	01H
	DB	01H
	DB	01H
	DB	01H
	DB	01H
	DB	01H
	DB	01H
	DB	01H
	DB	01H
	DB	01H
	DB	01H
	DB	01H
	DB	01H
	DB	01H
	DB	01H
	DB	01H
	DB	01H
	DB	01H
	DB	01H
	DB	01H
	DB	01H
	DB	01H
	DB	01H
	DB	01H
	DB	01H
	DB	01H
	DB	01H
	DB	01H
	DB	01H
	DB	01H
	DB	01H
	DB	01H
	DB	01H
	DB	01H
	DB	01H
	DB	01H
	DB	01H
	DB	01H
	DB	01H
	DB	01H
	DB	01H
	DB	01H
	DB	01H
	DB	01H
	DB	01H
	DB	01H
	DB	01H
	DB	01H
	DB	01H
	DB	01H
	DB	01H
	DB	01H
	DB	01H
	DB	01H
	DB	01H
	DB	01H
	DB	01H
	DB	01H
	DB	01H
	DB	01H
	DB	01H
	DB	01H
	DB	01H
	DB	01H
	DB	01H
	DB	01H
	DB	01H
	DB	01H
	DB	01H
	DB	01H
	DB	013H
	DB	013H
	DB	010H
	DB	027H
	DB	010H
	DB	02H
	DB	02H
	DB	010H
	DB	013H
	DB	01H
	DB	01H
	DB	01H
	DB	01H
	DB	010H
	DB	038H
	DB	02dH
	DB	02H
	DB	02H
	DB	03H
	DB	010H
	DB	018H
	DB	02dH
	DB	01cH
	DB	01H
	DB	01H
	DB	01H
	DB	01H
	DB	01H
	DB	01H
	DB	01H
	DB	01H
	DB	01H
	DB	02H
	DB	02H
	DB	018H
	DB	018H
	DB	013H
	DB	01H
	DB	01H
	DB	01H
	DB	01H
	DB	038H
	DB	02H
	DB	08H
	DB	02H
	DB	01H
	DB	018H
	DB	0cH
	DB	01H
	DB	01H
	DB	01H
	DB	01H
	DB	018H
	DB	0bH
	DB	0aH
	DB	03H
	DB	02dH
	DB	018H
	DB	018H
	DB	02H
	DB	010H
	DB	018H
	DB	038H
	DB	036H
	DB	02H
	DB	013H
	DB	018H
	DB	018H
	DB	018H
	DB	079H
	DB	022H
	DB	01bH
	DB	0bH
	DB	095H
	DB	04H
	DB	015H
	DB	06fH
	DB	05aH
	DB	01fH
	DB	0dH
	DB	04dH
	DB	01fH
	DB	014H
	DB	0b7H
	DB	0fbH
	DB	0fbH
	DB	0fbH
	DB	0fbH
	DB	0fbH
	DB	0dH
	DB	0dH
	DB	04dH
	DB	0dH
	DB	01fH
	DB	05aH
	DB	072H
	DB	04H
	DB	0a4H
	DB	03H
	DB	041H
	DB	020H
	DB	044H
	DB	020H
	DB	01bH
	DB	0fH
	DB	022H
	DB	022H
	DB	016H
	DB	0eH
	DB	0fH
	DB	06H
	DB	06H
	DB	03H
	DB	01H
	DB	01H
	DB	01H
	DB	01H
	DB	01H
	DB	01H
	DB	01H
	DB	01H
	DB	01H
	DB	01H
	DB	01H
	DB	01H
	DB	01H
	DB	01H
	DB	01H
	DB	01H
	DB	01H
	DB	02dH
	DB	06H
	DB	039H
	DB	01H
	DB	01H
	DB	01H
	DB	01H
	DB	01H
	DB	01H
	DB	01H
	DB	01H
	DB	01H
	DB	01H
	DB	01H
	DB	01H
	DB	01H
	DB	01H
	DB	01H
	DB	01H
	DB	01H
	DB	01H
	DB	01H
	DB	01H
	DB	01H
	DB	01H
	DB	01H
	DB	01H
	DB	01H
	DB	01H
	DB	01H
	DB	01H
	DB	01H
	DB	01H
	DB	01H
	DB	01H
	DB	01H
	DB	01H
	DB	01H
	DB	01H
	DB	01H
	DB	01H
	DB	01H
	DB	01H
	DB	01H
	DB	01H
	DB	01H
	DB	01H
	DB	01H
	DB	01H
	DB	01H
	DB	01H
	DB	01H
	DB	01H
	DB	01H
	DB	01H
	DB	01H
	DB	01H
	DB	01H
	DB	01H
	DB	01H
	DB	01H
	DB	01H
	DB	01H
	DB	01H
	DB	01H
	DB	01H
	DB	01H
	DB	01H
	DB	01H
	DB	01H
	DB	01H
	DB	01H
	DB	01H
	DB	01H
	DB	013H
	DB	01H
	DB	01H
	DB	018H
	DB	013H
	DB	013H
	DB	018H
	DB	010H
	DB	01cH
	DB	010H
	DB	018H
	DB	018H
	DB	010H
	DB	01H
	DB	01H
	DB	013H
	DB	013H
	DB	018H
	DB	013H
	DB	038H
	DB	08H
	DB	02dH
	DB	03H
	DB	02H
	DB	02H
	DB	018H
	DB	01H
	DB	018H
	DB	01H
	DB	01H
	DB	018H
	DB	01H
	DB	01H
	DB	01H
	DB	013H
	DB	013H
	DB	02H
	DB	0cH
	DB	03H
	DB	02H
	DB	02H
	DB	08H
	DB	0fH
	DB	02H
	DB	01H
	DB	01H
	DB	01H
	DB	01H
	DB	01H
	DB	02H
	DB	0eH
	DB	011H
	DB	079H
	DB	067H
	DB	03H
	DB	01H
	DB	01H
	DB	027H
	DB	010H
	DB	038H
	DB	0cH
	DB	041H
	DB	0aH
	DB	03H
	DB	027H
	DB	018H
	DB	03H
	DB	041H
	DB	010H
	DB	0fH
	DB	0bH
	DB	0eH
	DB	036H
	DB	049H
	DB	09bH
	DB	093H
	DB	022H
	DB	016H
	DB	03H
	DB	06dH
	DB	04H
	DB	04H
	DB	04H
	DB	04H
	DB	015H
	DB	060H
	DB	072H
	DB	064H
	DB	08cH
	DB	073H
	DB	05aH
	DB	05aH
	DB	05aH
	DB	05aH
	DB	073H
	DB	08cH
	DB	08cH
	DB	06fH
	DB	04cH
	DB	015H
	DB	04H
	DB	04H
	DB	04H
	DB	051H
	DB	021H
	DB	0e6H
	DB	0a6H
	DB	033H
	DB	02aH
	DB	019H
	DB	03H
	DB	0eH
	DB	0bH
	DB	03H
	DB	018H
	DB	02H
	DB	03H
	DB	06H
	DB	0aH
	DB	01H
	DB	01H
	DB	01H
	DB	01H
	DB	01H
	DB	01H
	DB	01H
	DB	01H
	DB	01H
	DB	01H
	DB	01H
	DB	01H
	DB	01H
	DB	01H
	DB	01H
	DB	01H
	DB	01H
	DB	02dH
	DB	06H
	DB	039H
	DB	01H
	DB	01H
	DB	01H
	DB	01H
	DB	01H
	DB	01H
	DB	01H
	DB	01H
	DB	01H
	DB	01H
	DB	01H
	DB	01H
	DB	01H
	DB	01H
	DB	01H
	DB	01H
	DB	01H
	DB	01H
	DB	01H
	DB	01H
	DB	01H
	DB	01H
	DB	01H
	DB	01H
	DB	01H
	DB	01H
	DB	01H
	DB	01H
	DB	01H
	DB	01H
	DB	01H
	DB	01H
	DB	01H
	DB	01H
	DB	01H
	DB	01H
	DB	01H
	DB	01H
	DB	01H
	DB	01H
	DB	01H
	DB	01H
	DB	01H
	DB	01H
	DB	01H
	DB	01H
	DB	01H
	DB	01H
	DB	01H
	DB	01H
	DB	01H
	DB	01H
	DB	01H
	DB	01H
	DB	01H
	DB	01H
	DB	01H
	DB	01H
	DB	01H
	DB	01H
	DB	01H
	DB	01H
	DB	01H
	DB	01H
	DB	01H
	DB	01H
	DB	01H
	DB	01H
	DB	01H
	DB	01H
	DB	01H
	DB	01H
	DB	013H
	DB	01H
	DB	01H
	DB	013H
	DB	018H
	DB	018H
	DB	018H
	DB	018H
	DB	018H
	DB	013H
	DB	013H
	DB	010H
	DB	013H
	DB	01H
	DB	027H
	DB	02H
	DB	018H
	DB	013H
	DB	02H
	DB	02dH
	DB	02H
	DB	010H
	DB	018H
	DB	01H
	DB	01H
	DB	01H
	DB	01H
	DB	01H
	DB	01H
	DB	01H
	DB	01H
	DB	013H
	DB	02H
	DB	08H
	DB	0cH
	DB	08H
	DB	0fH
	DB	03H
	DB	0cH
	DB	02H
	DB	02H
	DB	021H
	DB	013H
	DB	01H
	DB	01H
	DB	01H
	DB	01H
	DB	01H
	DB	08H
	DB	013H
	DB	03H
	DB	042H
	DB	053H
	DB	05H
	DB	013H
	DB	018H
	DB	01cH
	DB	02H
	DB	018H
	DB	05H
	DB	09bH
	DB	06H
	DB	06H
	DB	02dH
	DB	018H
	DB	039H
	DB	09bH
	DB	0aH
	DB	041H
	DB	022H
	DB	06H
	DB	034H
	DB	04fH
	DB	039H
	DB	02H
	DB	01H
	DB	01H
	DB	013H
	DB	06dH
	DB	04H
	DB	04H
	DB	04H
	DB	04H
	DB	04H
	DB	04H
	DB	04H
	DB	04H
	DB	04H
	DB	04H
	DB	04H
	DB	04H
	DB	015H
	DB	015H
	DB	04H
	DB	04H
	DB	04H
	DB	04H
	DB	04H
	DB	04H
	DB	04H
	DB	04H
	DB	04H
	DB	051H
	DB	041H
	DB	0e6H
	DB	03bH
	DB	03bH
	DB	020H
	DB	0eH
	DB	05H
	DB	04fH
	DB	05H
	DB	05H
	DB	041H
	DB	010H
	DB	02H
	DB	042H
	DB	03H
	DB	01H
	DB	01H
	DB	01H
	DB	01H
	DB	01H
	DB	01H
	DB	01H
	DB	01H
	DB	01H
	DB	01H
	DB	01H
	DB	01H
	DB	01H
	DB	01H
	DB	01H
	DB	01H
	DB	01H
	DB	02dH
	DB	06H
	DB	039H
	DB	01H
	DB	01H
	DB	01H
	DB	01H
	DB	01H
	DB	01H
	DB	01H
	DB	01H
	DB	01H
	DB	01H
	DB	01H
	DB	01H
	DB	01H
	DB	01H
	DB	01H
	DB	01H
	DB	01H
	DB	01H
	DB	01H
	DB	01H
	DB	01H
	DB	01H
	DB	01H
	DB	01H
	DB	01H
	DB	01H
	DB	01H
	DB	01H
	DB	01H
	DB	01H
	DB	01H
	DB	01H
	DB	01H
	DB	01H
	DB	01H
	DB	01H
	DB	01H
	DB	01H
	DB	01H
	DB	01H
	DB	01H
	DB	01H
	DB	01H
	DB	01H
	DB	01H
	DB	01H
	DB	01H
	DB	01H
	DB	01H
	DB	01H
	DB	01H
	DB	01H
	DB	01H
	DB	01H
	DB	01H
	DB	01H
	DB	01H
	DB	01H
	DB	01H
	DB	01H
	DB	01H
	DB	01H
	DB	01H
	DB	01H
	DB	01H
	DB	01H
	DB	01H
	DB	01H
	DB	01H
	DB	01H
	DB	01H
	DB	01H
	DB	01H
	DB	01H
	DB	01H
	DB	01H
	DB	01H
	DB	01H
	DB	01H
	DB	01H
	DB	01H
	DB	01H
	DB	013H
	DB	013H
	DB	013H
	DB	01H
	DB	018H
	DB	018H
	DB	01H
	DB	01H
	DB	018H
	DB	02H
	DB	010H
	DB	013H
	DB	01H
	DB	01H
	DB	02H
	DB	02H
	DB	010H
	DB	010H
	DB	013H
	DB	01H
	DB	013H
	DB	0fH
	DB	0fH
	DB	0cH
	DB	08H
	DB	010H
	DB	013H
	DB	013H
	DB	010H
	DB	013H
	DB	01H
	DB	01H
	DB	013H
	DB	013H
	DB	013H
	DB	018H
	DB	018H
	DB	08H
	DB	041H
	DB	0eH
	DB	02H
	DB	018H
	DB	018H
	DB	013H
	DB	018H
	DB	018H
	DB	01H
	DB	018H
	DB	013H
	DB	024H
	DB	03cH
	DB	041H
	DB	036H
	DB	027H
	DB	011H
	DB	05H
	DB	011H
	DB	067H
	DB	077H
	DB	04fH
	DB	02dH
	DB	01H
	DB	01H
	DB	01H
	DB	01H
	DB	01H
	DB	018H
	DB	0d6H
	DB	015H
	DB	04H
	DB	04H
	DB	04H
	DB	04H
	DB	015H
	DB	04H
	DB	04H
	DB	04H
	DB	04H
	DB	04H
	DB	04H
	DB	015H
	DB	015H
	DB	015H
	DB	015H
	DB	04H
	DB	04H
	DB	04H
	DB	04H
	DB	04H
	DB	04H
	DB	04H
	DB	04H
	DB	051H
	DB	0aH
	DB	016H
	DB	011H
	DB	0fH
	DB	03H
	DB	08H
	DB	03cH
	DB	06H
	DB	019H
	DB	011H
	DB	03H
	DB	02H
	DB	02H
	DB	034H
	DB	03H
	DB	01H
	DB	01H
	DB	01H
	DB	01H
	DB	01H
	DB	01H
	DB	01H
	DB	01H
	DB	01H
	DB	01H
	DB	01H
	DB	01H
	DB	01H
	DB	01H
	DB	01H
	DB	01H
	DB	01H
	DB	02dH
	DB	06H
	DB	039H
	DB	01H
	DB	01H
	DB	01H
	DB	01H
	DB	01H
	DB	01H
	DB	01H
	DB	01H
	DB	01H
	DB	01H
	DB	01H
	DB	01H
	DB	01H
	DB	01H
	DB	01H
	DB	01H
	DB	01H
	DB	01H
	DB	01H
	DB	01H
	DB	01H
	DB	01H
	DB	01H
	DB	01H
	DB	01H
	DB	01H
	DB	01H
	DB	01H
	DB	01H
	DB	01H
	DB	01H
	DB	01H
	DB	01H
	DB	01H
	DB	01H
	DB	01H
	DB	01H
	DB	01H
	DB	01H
	DB	01H
	DB	01H
	DB	01H
	DB	01H
	DB	01H
	DB	01H
	DB	01H
	DB	01H
	DB	01H
	DB	01H
	DB	01H
	DB	01H
	DB	01H
	DB	01H
	DB	01H
	DB	01H
	DB	01H
	DB	01H
	DB	01H
	DB	01H
	DB	01H
	DB	01H
	DB	01H
	DB	01H
	DB	01H
	DB	01H
	DB	01H
	DB	01H
	DB	01H
	DB	01H
	DB	01H
	DB	01H
	DB	01H
	DB	01H
	DB	01H
	DB	01H
	DB	01H
	DB	01H
	DB	01H
	DB	01H
	DB	01H
	DB	01H
	DB	01H
	DB	027H
	DB	02H
	DB	010H
	DB	01H
	DB	01H
	DB	013H
	DB	013H
	DB	01H
	DB	01H
	DB	01H
	DB	010H
	DB	08H
	DB	010H
	DB	013H
	DB	02H
	DB	0b8H
	DB	013H
	DB	01H
	DB	01H
	DB	01H
	DB	03H
	DB	0fH
	DB	0cH
	DB	013H
	DB	01H
	DB	01H
	DB	01H
	DB	013H
	DB	08H
	DB	013H
	DB	01H
	DB	027H
	DB	036H
	DB	08H
	DB	01H
	DB	01H
	DB	01H
	DB	018H
	DB	018H
	DB	05H
	DB	041H
	DB	013H
	DB	010H
	DB	027H
	DB	018H
	DB	018H
	DB	013H
	DB	02dH
	DB	079H
	DB	02dH
	DB	02dH
	DB	08H
	DB	02H
	DB	036H
	DB	0bH
	DB	05H
	DB	02H
	DB	0bH
	DB	039H
	DB	010H
	DB	02dH
	DB	010H
	DB	01cH
	DB	041H
	DB	0aH
	DB	02H
	DB	01H
	DB	084H
	DB	015H
	DB	04H
	DB	04H
	DB	04H
	DB	04H
	DB	04H
	DB	04H
	DB	04H
	DB	04H
	DB	04H
	DB	04H
	DB	04H
	DB	015H
	DB	015H
	DB	015H
	DB	015H
	DB	04H
	DB	04H
	DB	04H
	DB	04H
	DB	04H
	DB	04H
	DB	04H
	DB	04H
	DB	03aH
	DB	08dH
	DB	03H
	DB	0aH
	DB	011H
	DB	0cH
	DB	079H
	DB	0f2H
	DB	093H
	DB	06H
	DB	036H
	DB	02H
	DB	08H
	DB	03H
	DB	03H
	DB	01cH
	DB	01H
	DB	01H
	DB	01H
	DB	01H
	DB	01H
	DB	01H
	DB	01H
	DB	01H
	DB	01H
	DB	01H
	DB	01H
	DB	01H
	DB	01H
	DB	01H
	DB	01H
	DB	01H
	DB	01H
	DB	02dH
	DB	06H
	DB	039H
	DB	01H
	DB	01H
	DB	01H
	DB	01H
	DB	01H
	DB	01H
	DB	01H
	DB	01H
	DB	01H
	DB	01H
	DB	01H
	DB	01H
	DB	01H
	DB	01H
	DB	01H
	DB	01H
	DB	01H
	DB	01H
	DB	01H
	DB	01H
	DB	01H
	DB	01H
	DB	01H
	DB	01H
