; Listing generated by Microsoft (R) Optimizing Compiler Version 16.00.30319.01 

	TITLE	C:\DUII\DUII\Graphics\AutoXPressToStageButton.c
	.686P
	.XMM
	include listing.inc
	.model	flat

INCLUDELIB LIBCMT
INCLUDELIB OLDNAMES

PUBLIC	_bmAutoXPressToStageButton
CONST	SEGMENT
_ColorsAutoXPressToStageButton DD 00H
	DD	0b0b0bH
	DD	030303H
	DD	0232323H
	DD	0fe00H
	DD	01b1b1bH
	DD	02b2a2bH
	DD	0333333H
	DD	0111111H
	DD	03b3b3bH
	DD	0151515H
	DD	0434343H
	DD	0a3a3a3H
	DD	04b4b4bH
	DD	0535353H
	DD	09b9b9bH
	DD	0939393H
	DD	0737373H
	DD	07b7b7bH
	DD	0636363H
	DD	05b5b5bH
	DD	0838383H
	DD	06b6b6bH
	DD	08b8b8bH
	DD	0a9a9a9H
	DD	0a010aH
	DD	0a0a02H
	DD	00H
	DD	04043dH
	DD	09096eH
	DD	040482H
	DD	08087aH
	DD	0a0H
	DD	04cH
	DD	020214H
	DD	0ec00H
	DD	092H
	DD	090974H
	DD	0120b12H
	DD	010a01H
	DD	041H
	DD	01c00H
	DD	01300H
	DD	0ffffffH
	DD	01a141aH
	DD	04400H
	DD	0f300H
	DD	0fdH
	DD	05400H
	DD	06300H
	DD	0e300H
	DD	05056dH
	DD	030373H
	DD	06067eH
	DD	0bb00H
	DD	05c00H
	DD	0110511H
	DD	049H
	DD	0b300H
	DD	0dc00H
	DD	04c00H
	DD	0c400H
	DD	02200H
	DD	080819H
	DD	02b00H
	DD	08400H
	DD	02028dH
	DD	0231c23H
	DD	03300H
	DD	0cb00H
	DD	03b00H
	DD	0393935H
	DD	09b00H
	DD	0d300H
	DD	07300H
	DD	06c00H
	DD	09300H
	DD	08b00H
	DD	0151511H
	DD	013130cH
	DD	07b00H
	DD	0a300H
	DD	040489H
	DD	0151115H
	DD	02a242aH
	DD	01a0d1aH
	DD	094H
	DD	04b434bH
	DD	0ac00H
	DD	0b01eaH
	DD	0322b32H
	DD	0423c42H
	DD	0686864H
	DD	045H
	DD	050518H
	DD	0e00e3H
	DD	041413dH
	DD	01017dH
	DD	031312cH
	DD	0393439H
	DD	0494945H
	DD	061615dH
	DD	01001dbH
	DD	0a01f2H
	DD	099H
	DD	04142feH
	DD	0201420H
	DD	02c2c24H
	DD	03038aH
	DD	01b1b14H
	DD	040478H
	DD	0b0b0b0H
	DD	02027aH
	DD	0595955H
	DD	0615c61H
	DD	01202d4H
	DD	0300f3H
	DD	0b120bH
	DD	0291d29H
	DD	0696369H
	DD	0101006H
	DD	022221dH
	DD	0302530H
	DD	0544c54H
	DD	01010bH
	DD	018180dH
	DD	0b0a63H
	DD	090a32H
	DD	0403340H
	DD	051514dH
	DD	05a565aH
	DD	0716d71H
	DD	01314ffH
	DD	01b1c23H
	DD	051H
	DD	07076bH
	DD	0150bd3H
	DD	01b14ddH
	DD	06465feH
	DD	0ebedffH
	DD	0100f0fH
	DD	0131513H
	DD	021H
	DD	028H
	DD	050534H
	DD	013123bH
	DD	0210e21H
	DD	03b2e3bH
	DD	050546H
	DD	05aH
	DD	06065aH
	DD	065H
	DD	036367bH
	DD	0493e49H
	DD	0504450H
	DD	0807f7fH
	DD	0708caH
	DD	01201cfH
	DD	01005e3H
	DD	0b0afcH
	DD	0120af4H
	DD	01b1afdH
	DD	03234ffH
	DD	0a2a3feH
	DD	0dfe1ffH
	DD	0e1e3ffH
	DD	0f1f2ffH
	DD	090910H
	DD	0e0e11H
	DD	011111eH
	DD	0a0b2cH
	DD	0f1028H
	DD	013142eH
	DD	01c1d2aH
	DD	02f3026H
	DD	050542H
	DD	06064eH
	DD	011104dH
	DD	070750H
	DD	054H
	DD	070755H
	DD	080952H
	DD	05cH
	DD	0161658H
	DD	0292a45H
	DD	06bH
	DD	06cH
	DD	015137aH
	DD	01d1b7fH
	DD	0242361H
	DD	0292966H
	DD	0484747H
	DD	0474847H
	DD	0504f4fH
	DD	0676868H
	DD	0706f6fH
	DD	070706fH
	DD	040389H
	DD	04038cH
	DD	060790H
	DD	070990H
	DD	09eH
	DD	0807a0H
	DD	0902a9H
	DD	0608a8H
	DD	0809acH
	DD	090ab0H
	DD	0708b9H
	DD	0809bfH
	DD	03331b0H
	DD	04947baH
	DD	0904c0H
	DD	0708c5H
	DD	0708d3H
	DD	0704d9H
	DD	01d14d2H
	DD	0241ddaH
	DD	02f2dcdH
	DD	02821d7H
	DD	03a36dfH
	DD	0506e5H
	DD	0505e8H
	DD	0160fe8H
	DD	01710e1H
	DD	0f10ffH
	DD	01b13f5H
	DD	01f1bf6H
	DD	0211de9H
	DD	0211bf9H
	DD	02620e0H
	DD	02824e5H
	DD	03430e1H
	DD	02725f7H
	DD	02221fdH
	DD	02929ffH
	DD	02f31ffH
	DD	0403ec4H
	DD	04948d0H
	DD	04b47faH
	DD	05154ffH
	DD	0595cffH
	DD	0797bffH
	DD	07f8080H
	DD	0a8a7a7H
	DD	0afb0afH
	DD	08587ffH
	DD	08789ffH
	DD	09d9fffH
	DD	0aeb0ffH
	DD	0b0b2ffH
	DD	0bec0ffH
	DD	0c0c2ffH
	DD	0c9cbffH
	DD	0d3d5ffH
	DD	0eff1ffH
	DD	0f7f8ffH
_PalAutoXPressToStageButton DD 0100H
	DB	00H
	ORG $+3
	DD	FLAT:_ColorsAutoXPressToStageButton
_bmAutoXPressToStageButton DW 0b3H
	DW	0f3H
	DW	0b3H
	DW	08H
	DD	FLAT:_acAutoXPressToStageButton
	DD	FLAT:_PalAutoXPressToStageButton
	ORG $+4
_acAutoXPressToStageButton DB 024H
	DB	024H
	DB	024H
	DB	024H
	DB	024H
	DB	024H
	DB	024H
	DB	024H
	DB	024H
	DB	056H
	DB	068H
	DB	0c9H
	DB	020H
	DB	020H
	DB	020H
	DB	020H
	DB	020H
	DB	020H
	DB	020H
	DB	020H
	DB	020H
	DB	020H
	DB	020H
	DB	020H
	DB	020H
	DB	020H
	DB	020H
	DB	020H
	DB	020H
	DB	020H
	DB	020H
	DB	020H
	DB	020H
	DB	020H
	DB	020H
	DB	020H
	DB	020H
	DB	020H
	DB	020H
	DB	020H
	DB	020H
	DB	020H
	DB	020H
	DB	020H
	DB	020H
	DB	020H
	DB	020H
	DB	020H
	DB	020H
	DB	020H
	DB	020H
	DB	020H
	DB	020H
	DB	020H
	DB	020H
	DB	020H
	DB	020H
	DB	020H
	DB	020H
	DB	020H
	DB	020H
	DB	020H
	DB	020H
	DB	020H
	DB	020H
	DB	020H
	DB	020H
	DB	020H
	DB	020H
	DB	020H
	DB	020H
	DB	020H
	DB	020H
	DB	020H
	DB	020H
	DB	020H
	DB	020H
	DB	020H
	DB	020H
	DB	020H
	DB	020H
	DB	020H
	DB	020H
	DB	020H
	DB	020H
	DB	020H
	DB	020H
	DB	020H
	DB	020H
	DB	020H
	DB	020H
	DB	020H
	DB	020H
	DB	020H
	DB	020H
	DB	020H
	DB	020H
	DB	020H
	DB	020H
	DB	020H
	DB	020H
	DB	020H
	DB	020H
	DB	020H
	DB	020H
	DB	020H
	DB	020H
	DB	020H
	DB	020H
	DB	020H
	DB	020H
	DB	020H
	DB	020H
	DB	020H
	DB	020H
	DB	020H
	DB	020H
	DB	020H
	DB	020H
	DB	020H
	DB	020H
	DB	020H
	DB	020H
	DB	020H
	DB	020H
	DB	020H
	DB	020H
	DB	020H
	DB	020H
	DB	020H
	DB	020H
	DB	020H
	DB	020H
	DB	020H
	DB	020H
	DB	020H
	DB	020H
	DB	020H
	DB	020H
	DB	020H
	DB	020H
	DB	020H
	DB	020H
	DB	020H
	DB	020H
	DB	020H
	DB	020H
	DB	020H
	DB	020H
	DB	020H
	DB	020H
	DB	020H
	DB	020H
	DB	020H
	DB	020H
	DB	020H
	DB	020H
	DB	020H
	DB	020H
	DB	020H
	DB	020H
	DB	020H
	DB	020H
	DB	020H
	DB	020H
	DB	020H
	DB	020H
	DB	020H
	DB	020H
	DB	068H
	DB	056H
	DB	024H
	DB	024H
	DB	024H
	DB	024H
	DB	024H
	DB	024H
	DB	024H
	DB	024H
	DB	024H
	DB	024H
	DB	024H
	DB	024H
	DB	024H
	DB	024H
	DB	024H
	DB	056H
	DB	068H
	DB	056H
	DB	070H
	DB	0b6H
	DB	021H
	DB	039H
	DB	039H
	DB	039H
	DB	039H
	DB	039H
	DB	039H
	DB	039H
	DB	039H
	DB	039H
	DB	039H
	DB	039H
	DB	039H
	DB	039H
	DB	039H
	DB	021H
	DB	021H
	DB	021H
	DB	021H
	DB	021H
	DB	021H
	DB	021H
	DB	021H
	DB	021H
	DB	021H
	DB	021H
	DB	021H
	DB	021H
	DB	021H
	DB	021H
	DB	021H
	DB	021H
	DB	021H
	DB	021H
	DB	021H
	DB	021H
	DB	021H
	DB	021H
	DB	021H
	DB	021H
	DB	021H
	DB	021H
	DB	021H
	DB	021H
	DB	021H
	DB	021H
	DB	021H
	DB	021H
	DB	021H
	DB	021H
	DB	021H
	DB	021H
	DB	021H
	DB	021H
	DB	021H
	DB	021H
	DB	021H
	DB	021H
	DB	021H
	DB	021H
	DB	021H
	DB	021H
	DB	021H
	DB	021H
	DB	021H
	DB	021H
	DB	021H
	DB	021H
	DB	021H
	DB	021H
	DB	021H
	DB	021H
	DB	021H
	DB	021H
	DB	021H
	DB	021H
	DB	021H
	DB	021H
	DB	021H
	DB	021H
	DB	021H
	DB	021H
	DB	021H
	DB	021H
	DB	021H
	DB	021H
	DB	021H
	DB	021H
	DB	021H
	DB	021H
	DB	021H
	DB	021H
	DB	021H
	DB	021H
	DB	021H
	DB	021H
	DB	021H
	DB	021H
	DB	021H
	DB	021H
	DB	021H
	DB	021H
	DB	021H
	DB	021H
	DB	021H
	DB	021H
	DB	021H
	DB	021H
	DB	021H
	DB	021H
	DB	021H
	DB	021H
	DB	021H
	DB	021H
	DB	021H
	DB	021H
	DB	021H
	DB	021H
	DB	021H
	DB	021H
	DB	021H
	DB	021H
	DB	021H
	DB	021H
	DB	021H
	DB	021H
	DB	021H
	DB	021H
	DB	021H
	DB	021H
	DB	021H
	DB	021H
	DB	021H
	DB	021H
	DB	021H
	DB	021H
	DB	021H
	DB	021H
	DB	021H
	DB	021H
	DB	021H
	DB	021H
	DB	021H
	DB	021H
	DB	021H
	DB	021H
	DB	021H
	DB	021H
	DB	039H
	DB	039H
	DB	039H
	DB	039H
	DB	039H
	DB	039H
	DB	039H
	DB	039H
	DB	0b3H
	DB	0baH
	DB	024H
	DB	068H
	DB	068H
	DB	024H
	DB	024H
	DB	024H
	DB	024H
	DB	024H
	DB	024H
	DB	024H
	DB	024H
	DB	024H
	DB	024H
	DB	024H
	DB	024H
	DB	068H
	DB	056H
	DB	097H
	DB	08eH
	DB	0a7H
	DB	0aH
	DB	06dH
	DB	06dH
	DB	06dH
	DB	06dH
	DB	06dH
	DB	06dH
	DB	06dH
	DB	07dH
	DB	07dH
	DB	07dH
	DB	07dH
	DB	07dH
	DB	04fH
	DB	04fH
	DB	04fH
	DB	078H
	DB	078H
	DB	078H
	DB	078H
	DB	078H
	DB	01aH
	DB	01aH
	DB	01aH
	DB	01aH
	DB	01aH
	DB	01aH
	DB	01aH
	DB	01aH
	DB	01aH
	DB	01aH
	DB	01aH
	DB	01aH
	DB	01aH
	DB	01aH
	DB	01aH
	DB	01aH
	DB	01aH
	DB	01aH
	DB	01aH
	DB	01aH
	DB	01aH
	DB	01aH
	DB	01aH
	DB	01aH
	DB	01aH
	DB	01aH
	DB	01aH
	DB	01aH
	DB	01aH
	DB	01aH
	DB	01aH
	DB	01aH
	DB	01aH
	DB	01aH
	DB	01aH
	DB	01aH
	DB	01aH
	DB	01aH
	DB	01aH
	DB	01aH
	DB	01aH
	DB	01aH
	DB	01aH
	DB	01aH
	DB	01aH
	DB	01aH
	DB	01aH
	DB	01aH
	DB	01aH
	DB	01aH
	DB	01aH
	DB	01aH
	DB	01aH
	DB	01aH
	DB	01aH
	DB	01aH
	DB	01aH
	DB	01aH
	DB	01aH
	DB	01aH
	DB	01aH
	DB	01aH
	DB	01aH
	DB	01aH
	DB	01aH
	DB	01aH
	DB	01aH
	DB	01aH
	DB	01aH
	DB	01aH
	DB	01aH
	DB	01aH
	DB	01aH
	DB	01aH
	DB	01aH
	DB	01aH
	DB	01aH
	DB	01aH
	DB	01aH
	DB	01aH
	DB	01aH
	DB	01aH
	DB	01aH
	DB	01aH
	DB	01aH
	DB	01aH
	DB	01aH
	DB	01aH
	DB	01aH
	DB	01aH
	DB	01aH
	DB	01aH
	DB	01aH
	DB	01aH
	DB	01aH
	DB	01aH
	DB	01aH
	DB	01aH
	DB	01aH
	DB	01aH
	DB	01aH
	DB	01aH
	DB	01aH
	DB	01aH
	DB	01aH
	DB	01aH
	DB	01aH
	DB	01aH
	DB	01aH
	DB	01aH
	DB	01aH
	DB	01aH
	DB	01aH
	DB	01aH
	DB	01aH
	DB	01aH
	DB	01aH
	DB	01aH
	DB	01aH
	DB	01aH
	DB	01aH
	DB	01aH
	DB	01aH
	DB	078H
	DB	078H
	DB	078H
	DB	078H
	DB	078H
	DB	078H
	DB	04fH
	DB	04fH
	DB	04fH
	DB	07dH
	DB	07dH
	DB	07dH
	DB	07dH
	DB	04fH
	DB	0a8H
	DB	022H
	DB	028H
	DB	01eH
	DB	068H
	DB	024H
	DB	024H
	DB	024H
	DB	024H
	DB	024H
	DB	024H
	DB	024H
	DB	024H
	DB	024H
	DB	024H
	DB	068H
	DB	06cH
	DB	08fH
	DB	01H
	DB	047H
	DB	0dH
	DB	0dH
	DB	0bfH
	DB	0bH
	DB	0bH
	DB	060H
	DB	060H
	DB	09H
	DB	09H
	DB	047H
	DB	047H
	DB	07H
	DB	07H
	DB	062H
	DB	06H
	DB	06H
	DB	06H
	DB	03H
	DB	03H
	DB	03H
	DB	03H
	DB	079H
	DB	05H
	DB	05H
	DB	05H
	DB	0aH
	DB	0aH
	DB	0aH
	DB	0aH
	DB	0aH
	DB	0aH
	DB	08dH
	DB	08H
	DB	08H
	DB	08H
	DB	08cH
	DB	08cH
	DB	08cH
	DB	08cH
	DB	08cH
	DB	01H
	DB	01H
	DB	01H
	DB	01H
	DB	01H
	DB	01H
	DB	01H
	DB	01H
	DB	01H
	DB	01H
	DB	01H
	DB	01H
	DB	01H
	DB	01H
	DB	01H
	DB	01H
	DB	01H
	DB	01H
	DB	01H
	DB	01H
	DB	01H
	DB	01H
	DB	01H
	DB	01H
	DB	01H
	DB	01H
	DB	01H
	DB	01H
	DB	01H
	DB	01H
	DB	01H
	DB	01H
	DB	01H
	DB	01H
	DB	01H
	DB	01H
	DB	01H
	DB	01H
	DB	01H
	DB	01H
	DB	01H
	DB	01H
	DB	01H
	DB	01H
	DB	01H
	DB	01H
	DB	01H
	DB	01H
	DB	01H
	DB	01H
	DB	01H
	DB	01H
	DB	01H
	DB	01H
	DB	01H
	DB	01H
	DB	01H
	DB	01H
	DB	01H
	DB	01H
	DB	01H
	DB	01H
	DB	01H
	DB	01H
	DB	01H
	DB	01H
	DB	01H
	DB	01H
	DB	01H
	DB	01H
	DB	01H
	DB	01H
	DB	01H
	DB	01H
	DB	01H
	DB	01H
	DB	01H
	DB	01H
	DB	01H
	DB	01H
	DB	01H
	DB	01H
	DB	01H
	DB	01H
	DB	01H
	DB	01H
	DB	01H
	DB	08cH
	DB	08cH
	DB	08cH
	DB	08cH
	DB	08cH
	DB	08H
	DB	08H
	DB	08H
	DB	08dH
	DB	0aH
	DB	0aH
	DB	0aH
	DB	0aH
	DB	0aH
	DB	0aH
	DB	05H
	DB	05H
	DB	05H
	DB	05H
	DB	079H
	DB	03H
	DB	03H
	DB	03H
	DB	054H
	DB	06H
	DB	06H
	DB	06H
	DB	062H
	DB	07H
	DB	07H
	DB	07H
	DB	047H
	DB	047H
	DB	062H
	DB	07dH
	DB	07cH
	DB	097H
	DB	068H
	DB	056H
	DB	024H
	DB	024H
	DB	024H
	DB	024H
	DB	024H
	DB	024H
	DB	024H
	DB	068H
	DB	01eH
	DB	022H
	DB	079H
	DB	0eH
	DB	0dH
	DB	047H
	DB	07H
	DB	062H
	DB	06H
	DB	06H
	DB	06H
	DB	06H
	DB	06H
	DB	03H
	DB	03H
	DB	03H
	DB	03H
	DB	03H
	DB	079H
	DB	05H
	DB	05H
	DB	05H
	DB	05H
	DB	02cH
	DB	02cH
	DB	0aH
	DB	0aH
	DB	0aH
	DB	08H
	DB	08H
	DB	08cH
	DB	08cH
	DB	01H
	DB	01H
	DB	01H
	DB	01H
	DB	01H
	DB	01aH
	DB	02H
	DB	02H
	DB	02H
	DB	02H
	DB	02H
	DB	00H
	DB	00H
	DB	00H
	DB	00H
	DB	00H
	DB	00H
	DB	00H
	DB	00H
	DB	00H
	DB	00H
	DB	00H
	DB	00H
	DB	00H
	DB	00H
	DB	00H
	DB	00H
	DB	00H
	DB	00H
	DB	00H
	DB	00H
	DB	00H
	DB	00H
	DB	00H
	DB	00H
	DB	00H
	DB	00H
	DB	00H
	DB	00H
	DB	00H
	DB	00H
	DB	00H
	DB	00H
	DB	00H
	DB	00H
	DB	00H
	DB	00H
	DB	00H
	DB	00H
	DB	00H
	DB	00H
	DB	00H
	DB	00H
	DB	00H
	DB	00H
	DB	00H
	DB	00H
	DB	00H
	DB	00H
	DB	00H
	DB	00H
	DB	00H
	DB	00H
	DB	00H
	DB	00H
	DB	00H
	DB	00H
	DB	00H
	DB	00H
	DB	00H
	DB	00H
	DB	00H
	DB	00H
	DB	00H
	DB	00H
	DB	00H
	DB	00H
	DB	00H
	DB	00H
	DB	00H
	DB	00H
	DB	00H
	DB	00H
	DB	00H
	DB	00H
	DB	00H
	DB	00H
	DB	00H
	DB	00H
	DB	00H
	DB	00H
	DB	00H
	DB	00H
	DB	00H
	DB	00H
	DB	00H
	DB	00H
	DB	00H
	DB	00H
	DB	00H
	DB	00H
	DB	02H
	DB	02H
	DB	02H
	DB	02H
	DB	02H
	DB	02H
	DB	01H
	DB	01H
	DB	01H
	DB	01H
	DB	01H
	DB	01H
	DB	08cH
	DB	08cH
	DB	08H
	DB	08H
	DB	08dH
	DB	0aH
	DB	0aH
	DB	0aH
	DB	02cH
	DB	05H
	DB	05H
	DB	05H
	DB	05H
	DB	05H
	DB	079H
	DB	03H
	DB	03H
	DB	03H
	DB	03H
	DB	06H
	DB	062H
	DB	09H
	DB	06bH
	DB	02H
	DB	095H
	DB	068H
	DB	024H
	DB	024H
	DB	024H
	DB	024H
	DB	024H
	DB	024H
	DB	056H
	DB	042H
	DB	08eH
	DB	03H
	DB	014H
	DB	060H
	DB	07H
	DB	07H
	DB	07H
	DB	07H
	DB	07H
	DB	062H
	DB	06H
	DB	06H
	DB	06H
	DB	06H
	DB	06H
	DB	03H
	DB	03H
	DB	03H
	DB	03H
	DB	079H
	DB	079H
	DB	05H
	DB	05H
	DB	05H
	DB	05H
	DB	0aH
	DB	0aH
	DB	0aH
	DB	08dH
	DB	08dH
	DB	08H
	DB	08cH
	DB	08cH
	DB	08cH
	DB	01H
	DB	01H
	DB	01H
	DB	01H
	DB	01H
	DB	01aH
	DB	02H
	DB	02H
	DB	02H
	DB	02H
	DB	02H
	DB	02H
	DB	00H
	DB	00H
	DB	00H
	DB	00H
	DB	00H
	DB	00H
	DB	00H
	DB	00H
	DB	00H
	DB	00H
	DB	00H
	DB	00H
	DB	00H
	DB	00H
	DB	00H
	DB	00H
	DB	00H
	DB	00H
	DB	00H
	DB	00H
	DB	00H
	DB	00H
	DB	00H
	DB	00H
	DB	00H
	DB	00H
	DB	00H
	DB	00H
	DB	00H
	DB	00H
	DB	00H
	DB	00H
	DB	00H
	DB	00H
	DB	00H
	DB	00H
	DB	00H
	DB	00H
	DB	00H
	DB	00H
	DB	00H
	DB	00H
	DB	00H
	DB	00H
	DB	00H
	DB	00H
	DB	00H
	DB	00H
	DB	00H
	DB	00H
	DB	00H
	DB	00H
	DB	00H
	DB	00H
	DB	00H
	DB	00H
	DB	00H
	DB	00H
	DB	00H
	DB	00H
	DB	00H
	DB	00H
	DB	00H
	DB	00H
	DB	00H
	DB	00H
	DB	00H
	DB	00H
	DB	00H
	DB	00H
	DB	00H
	DB	00H
	DB	00H
	DB	00H
	DB	00H
	DB	00H
	DB	00H
	DB	00H
	DB	00H
	DB	00H
	DB	00H
	DB	00H
	DB	00H
	DB	00H
	DB	00H
	DB	02H
	DB	02H
	DB	02H
	DB	02H
	DB	02H
	DB	01aH
	DB	01aH
	DB	01H
	DB	01H
	DB	01H
	DB	01H
	DB	01H
	DB	01H
	DB	08cH
	DB	08cH
	DB	08H
	DB	08H
	DB	08dH
	DB	0aH
	DB	0aH
	DB	0aH
	DB	02cH
	DB	05H
	DB	05H
	DB	05H
	DB	05H
	DB	05H
	DB	079H
	DB	03H
	DB	03H
	DB	03H
	DB	03H
	DB	03H
	DB	06H
	DB	06H
	DB	06H
	DB	063H
	DB	03H
	DB	02H
	DB	0b9H
	DB	068H
	DB	024H
	DB	024H
	DB	024H
	DB	024H
	DB	024H
	DB	068H
	DB	028H
	DB	04fH
	DB	071H
	DB	060H
	DB	047H
	DB	047H
	DB	07H
	DB	07H
	DB	07H
	DB	07H
	DB	062H
	DB	06H
	DB	06H
	DB	06H
	DB	06H
	DB	054H
	DB	03H
	DB	03H
	DB	03H
	DB	03H
	DB	079H
	DB	079H
	DB	05H
	DB	05H
	DB	05H
	DB	05H
	DB	02cH
	DB	0aH
	DB	0aH
	DB	0aH
	DB	0aH
	DB	08H
	DB	08cH
	DB	08cH
	DB	08cH
	DB	01H
	DB	01H
	DB	01H
	DB	01H
	DB	01H
	DB	01H
	DB	01aH
	DB	02H
	DB	02H
	DB	02H
	DB	02H
	DB	02H
	DB	02H
	DB	02H
	DB	00H
	DB	00H
	DB	00H
	DB	00H
	DB	00H
	DB	00H
	DB	00H
	DB	00H
	DB	00H
	DB	00H
	DB	00H
	DB	00H
	DB	00H
	DB	00H
	DB	00H
	DB	00H
	DB	00H
	DB	00H
	DB	00H
	DB	00H
	DB	00H
	DB	00H
	DB	00H
	DB	00H
	DB	00H
	DB	00H
	DB	00H
	DB	00H
	DB	00H
	DB	00H
	DB	00H
	DB	00H
	DB	00H
	DB	00H
	DB	00H
	DB	00H
	DB	00H
	DB	00H
	DB	00H
	DB	00H
	DB	00H
	DB	00H
	DB	00H
	DB	00H
	DB	00H
	DB	00H
	DB	00H
	DB	00H
	DB	00H
	DB	00H
	DB	00H
	DB	00H
	DB	00H
	DB	00H
	DB	00H
	DB	00H
	DB	00H
	DB	00H
	DB	00H
	DB	00H
	DB	00H
	DB	00H
	DB	00H
	DB	00H
	DB	00H
	DB	00H
	DB	00H
	DB	00H
	DB	00H
	DB	00H
	DB	00H
	DB	00H
	DB	00H
	DB	00H
	DB	00H
	DB	00H
	DB	00H
	DB	00H
	DB	00H
	DB	00H
	DB	00H
	DB	02H
	DB	02H
	DB	02H
	DB	02H
	DB	02H
	DB	02H
	DB	02H
	DB	01H
	DB	01H
	DB	01H
	DB	01H
	DB	01H
	DB	01H
	DB	08cH
	DB	08cH
	DB	08cH
	DB	08cH
	DB	08H
	DB	08dH
	DB	0aH
	DB	0aH
	DB	0aH
	DB	0aH
	DB	02cH
	DB	05H
	DB	05H
	DB	05H
	DB	05H
	DB	079H
	DB	079H
	DB	03H
	DB	03H
	DB	03H
	DB	03H
	DB	054H
	DB	06H
	DB	06H
	DB	06H
	DB	06H
	DB	07H
	DB	06dH
	DB	022H
	DB	06cH
	DB	056H
	DB	024H
	DB	024H
	DB	024H
	DB	056H
	DB	061H
	DB	07cH
	DB	0bH
	DB	0bfH
	DB	047H
	DB	047H
	DB	047H
	DB	07H
	DB	07H
	DB	07H
	DB	07H
	DB	062H
	DB	062H
	DB	06H
	DB	06H
	DB	06H
	DB	06H
	DB	054H
	DB	03H
	DB	03H
	DB	03H
	DB	03H
	DB	079H
	DB	079H
	DB	05H
	DB	05H
	DB	05H
	DB	05H
	DB	0aH
	DB	0aH
	DB	0aH
	DB	0aH
	DB	08dH
	DB	08H
	DB	08cH
	DB	08cH
	DB	01H
	DB	01H
	DB	01H
	DB	01H
	DB	01H
	DB	01H
	DB	01H
	DB	01aH
	DB	02H
	DB	02H
	DB	02H
	DB	02H
	DB	02H
	DB	02H
	DB	02H
	DB	02H
	DB	02H
	DB	02H
	DB	02H
	DB	02H
	DB	02H
	DB	02H
	DB	02H
	DB	02H
	DB	02H
	DB	00H
	DB	02H
	DB	02H
	DB	02H
	DB	02H
	DB	00H
	DB	00H
	DB	00H
	DB	00H
	DB	00H
	DB	00H
	DB	00H
	DB	00H
	DB	00H
	DB	00H
	DB	00H
	DB	00H
	DB	00H
	DB	00H
	DB	00H
	DB	00H
	DB	00H
	DB	00H
	DB	00H
	DB	00H
	DB	00H
	DB	00H
	DB	00H
	DB	00H
	DB	00H
	DB	00H
	DB	02H
	DB	02H
	DB	02H
	DB	02H
	DB	02H
	DB	02H
	DB	02H
	DB	02H
	DB	02H
	DB	02H
	DB	02H
	DB	02H
	DB	02H
	DB	02H
	DB	02H
	DB	02H
	DB	02H
	DB	02H
	DB	02H
	DB	02H
	DB	02H
	DB	02H
	DB	02H
	DB	02H
	DB	02H
	DB	02H
	DB	02H
	DB	02H
	DB	02H
	DB	02H
	DB	02H
	DB	02H
	DB	02H
	DB	02H
	DB	02H
	DB	02H
	DB	02H
	DB	02H
	DB	02H
	DB	02H
	DB	02H
	DB	02H
	DB	02H
	DB	02H
	DB	01aH
	DB	01aH
	DB	01H
	DB	01H
	DB	01H
	DB	01H
	DB	01H
	DB	01H
	DB	08cH
	DB	08cH
	DB	08cH
	DB	08H
	DB	08H
	DB	08dH
	DB	0aH
	DB	0aH
	DB	0aH
	DB	02cH
	DB	05H
	DB	05H
	DB	05H
	DB	05H
	DB	05H
	DB	079H
	DB	03H
	DB	03H
	DB	03H
	DB	03H
	DB	03H
	DB	06H
	DB	06H
	DB	06H
	DB	06H
	DB	06H
	DB	062H
	DB	062H
	DB	01aH
	DB	086H
	DB	068H
	DB	024H
	DB	024H
	DB	024H
	DB	068H
	DB	0b3H
	DB	04eH
	DB	0c1H
	DB	09H
	DB	09H
	DB	047H
	DB	047H
	DB	07H
	DB	07H
	DB	07H
	DB	07H
	DB	062H
	DB	062H
	DB	062H
	DB	06H
	DB	06H
	DB	06H
	DB	054H
	DB	03H
	DB	03H
	DB	03H
	DB	03H
	DB	079H
	DB	079H
	DB	05H
	DB	05H
	DB	05H
	DB	05H
	DB	02cH
	DB	0aH
	DB	0aH
	DB	0aH
	DB	08dH
	DB	08H
	DB	08H
	DB	08cH
	DB	08cH
	DB	08cH
	DB	01H
	DB	01H
	DB	01H
	DB	01H
	DB	01H
	DB	01aH
	DB	01aH
	DB	02H
	DB	02H
	DB	02H
	DB	02H
	DB	02H
	DB	02H
	DB	02H
	DB	02H
	DB	02H
	DB	02H
	DB	02H
	DB	02H
	DB	02H
	DB	02H
	DB	02H
	DB	02H
	DB	02H
	DB	02H
	DB	02H
	DB	02H
	DB	02H
	DB	02H
	DB	02H
	DB	02H
	DB	00H
	DB	00H
	DB	00H
	DB	00H
	DB	00H
	DB	00H
	DB	00H
	DB	00H
	DB	00H
	DB	00H
	DB	00H
	DB	00H
	DB	00H
	DB	00H
	DB	00H
	DB	00H
	DB	00H
	DB	00H
	DB	00H
	DB	00H
	DB	00H
	DB	00H
	DB	02H
	DB	02H
	DB	02H
	DB	02H
	DB	02H
	DB	02H
	DB	02H
	DB	02H
	DB	02H
	DB	02H
	DB	02H
	DB	02H
	DB	02H
	DB	02H
	DB	02H
	DB	02H
	DB	02H
	DB	02H
	DB	02H
	DB	02H
	DB	02H
	DB	02H
	DB	02H
	DB	02H
	DB	02H
	DB	02H
	DB	02H
	DB	02H
	DB	02H
	DB	02H
	DB	02H
	DB	02H
	DB	02H
	DB	02H
	DB	02H
	DB	02H
	DB	02H
	DB	02H
	DB	02H
	DB	02H
	DB	02H
	DB	02H
	DB	02H
	DB	02H
	DB	01aH
	DB	01aH
	DB	01H
	DB	01H
	DB	01H
	DB	01H
	DB	01H
	DB	01H
	DB	08cH
	DB	08cH
	DB	08cH
	DB	08cH
	DB	08H
	DB	08dH
	DB	0aH
	DB	0aH
	DB	0aH
	DB	0aH
	DB	02cH
	DB	05H
	DB	05H
	DB	05H
	DB	05H
	DB	05H
	DB	079H
	DB	03H
	DB	03H
	DB	03H
	DB	03H
	DB	03H
	DB	06H
	DB	06H
	DB	06H
	DB	06H
	DB	06H
	DB	062H
	DB	07H
	DB	06dH
	DB	08eH
	DB	024H
	DB	024H
	DB	024H
	DB	024H
	DB	068H
	DB	08fH
	DB	0aeH
	DB	0dH
	DB	09H
	DB	09H
	DB	09H
	DB	047H
	DB	047H
	DB	07H
	DB	07H
	DB	07H
	DB	062H
	DB	062H
	DB	062H
	DB	06H
	DB	06H
	DB	06H
	DB	06H
	DB	03H
	DB	03H
	DB	03H
	DB	03H
	DB	03H
	DB	079H
	DB	05H
	DB	05H
	DB	05H
	DB	05H
	DB	05H
	DB	02cH
	DB	0aH
	DB	0aH
	DB	0aH
	DB	08dH
	DB	08H
	DB	08H
	DB	08cH
	DB	08cH
	DB	01H
	DB	01H
	DB	01H
	DB	01H
	DB	01H
	DB	01H
	DB	01H
	DB	01aH
	DB	01aH
	DB	02H
	DB	02H
	DB	02H
	DB	02H
	DB	02H
	DB	02H
	DB	02H
	DB	02H
	DB	02H
	DB	02H
	DB	02H
	DB	02H
	DB	02H
	DB	02H
	DB	02H
	DB	02H
	DB	02H
	DB	02H
	DB	02H
	DB	02H
	DB	02H
	DB	02H
	DB	02H
	DB	02H
	DB	02H
	DB	02H
	DB	02H
	DB	00H
	DB	00H
	DB	00H
	DB	00H
	DB	00H
	DB	00H
	DB	00H
	DB	00H
	DB	00H
	DB	00H
	DB	00H
	DB	00H
	DB	00H
	DB	00H
	DB	00H
	DB	00H
	DB	02H
	DB	02H
	DB	02H
	DB	02H
	DB	02H
	DB	02H
	DB	02H
	DB	02H
	DB	02H
	DB	02H
	DB	02H
	DB	02H
	DB	02H
	DB	02H
	DB	02H
	DB	02H
	DB	02H
	DB	02H
	DB	02H
	DB	02H
	DB	02H
	DB	02H
	DB	02H
	DB	02H
	DB	02H
	DB	02H
	DB	02H
	DB	02H
	DB	02H
	DB	02H
	DB	02H
	DB	02H
	DB	02H
	DB	02H
	DB	02H
	DB	02H
	DB	02H
	DB	02H
	DB	02H
	DB	02H
	DB	02H
	DB	02H
	DB	02H
	DB	02H
	DB	01aH
	DB	01aH
	DB	01H
	DB	01H
	DB	01H
	DB	01H
	DB	01H
	DB	01H
	DB	01H
	DB	08cH
	DB	08cH
	DB	08H
	DB	08H
	DB	08H
	DB	08dH
	DB	0aH
	DB	0aH
	DB	0aH
	DB	02cH
	DB	05H
	DB	05H
	DB	05H
	DB	05H
	DB	05H
	DB	079H
	DB	079H
	DB	03H
	DB	03H
	DB	03H
	DB	03H
	DB	03H
	DB	054H
	DB	06H
	DB	06H
	DB	06H
	DB	06H
	DB	062H
	DB	07H
	DB	03H
	DB	07cH
	DB	034H
	DB	056H
	DB	024H
	DB	056H
	DB	042H
	DB	08eH
	DB	047H
	DB	0bH
	DB	09H
	DB	09H
	DB	09H
	DB	047H
	DB	047H
	DB	07H
	DB	07H
	DB	07H
	DB	07H
	DB	062H
	DB	062H
	DB	06H
	DB	06H
	DB	06H
	DB	06H
	DB	054H
	DB	03H
	DB	03H
	DB	03H
	DB	03H
	DB	03H
	DB	079H
	DB	05H
	DB	05H
	DB	05H
	DB	05H
	DB	05H
	DB	0aH
	DB	0aH
	DB	0aH
	DB	0aH
	DB	08dH
	DB	08H
	DB	08cH
	DB	08cH
	DB	08cH
	DB	01H
	DB	01H
	DB	01H
	DB	01H
	DB	01H
	DB	01H
	DB	01H
	DB	01H
	DB	01aH
	DB	02H
	DB	02H
	DB	02H
	DB	02H
	DB	02H
	DB	02H
	DB	02H
	DB	02H
	DB	02H
	DB	02H
	DB	02H
	DB	02H
	DB	02H
	DB	02H
	DB	02H
	DB	02H
	DB	02H
	DB	02H
	DB	02H
	DB	02H
	DB	02H
	DB	02H
	DB	02H
	DB	02H
	DB	02H
	DB	02H
	DB	02H
	DB	02H
	DB	00H
	DB	00H
	DB	00H
	DB	00H
	DB	00H
	DB	00H
	DB	00H
	DB	00H
	DB	00H
	DB	00H
	DB	00H
	DB	00H
	DB	00H
	DB	02H
	DB	02H
	DB	02H
	DB	02H
	DB	02H
	DB	02H
	DB	02H
	DB	02H
	DB	02H
	DB	02H
	DB	02H
	DB	02H
	DB	02H
	DB	02H
	DB	02H
	DB	02H
	DB	02H
	DB	02H
	DB	02H
	DB	02H
	DB	02H
	DB	02H
	DB	02H
	DB	02H
	DB	02H
	DB	02H
	DB	02H
	DB	02H
	DB	02H
	DB	02H
	DB	02H
	DB	02H
	DB	02H
	DB	02H
	DB	02H
	DB	02H
	DB	02H
	DB	02H
	DB	02H
	DB	02H
	DB	02H
	DB	02H
	DB	02H
	DB	02H
	DB	01aH
	DB	01H
	DB	01H
	DB	01H
	DB	01H
	DB	01H
	DB	01H
	DB	01H
	DB	08cH
	DB	08cH
	DB	08cH
	DB	08H
	DB	08H
	DB	08H
	DB	08dH
	DB	0aH
	DB	0aH
	DB	0aH
	DB	0aH
	DB	02cH
	DB	05H
	DB	05H
	DB	05H
	DB	05H
	DB	05H
	DB	079H
	DB	03H
	DB	03H
	DB	03H
	DB	03H
	DB	03H
	DB	054H
	DB	06H
	DB	06H
	DB	06H
	DB	06H
	DB	06H
	DB	062H
	DB	07H
	DB	06H
	DB	02H
	DB	095H
	DB	068H
	DB	024H
	DB	056H
	DB	01eH
	DB	022H
	DB	07H
	DB	0bH
	DB	09H
	DB	09H
	DB	09H
	DB	047H
	DB	047H
	DB	07H
	DB	07H
	DB	07H
	DB	07H
	DB	062H
	DB	062H
	DB	06H
	DB	06H
	DB	06H
	DB	06H
	DB	06H
	DB	054H
	DB	03H
	DB	03H
	DB	03H
	DB	03H
	DB	079H
	DB	079H
	DB	05H
	DB	05H
	DB	05H
	DB	05H
	DB	02cH
	DB	0aH
	DB	0aH
	DB	0aH
	DB	08dH
	DB	08dH
	DB	08H
	DB	08cH
	DB	08cH
	DB	08cH
	DB	08cH
	DB	01H
	DB	01H
	DB	01H
	DB	01H
	DB	01H
	DB	01H
	DB	01H
	DB	01aH
	DB	02H
	DB	02H
	DB	02H
	DB	02H
	DB	02H
	DB	02H
	DB	02H
	DB	02H
	DB	02H
	DB	02H
	DB	02H
	DB	02H
	DB	02H
	DB	02H
	DB	02H
	DB	02H
	DB	02H
	DB	02H
	DB	02H
	DB	02H
	DB	02H
	DB	02H
	DB	02H
	DB	02H
	DB	02H
	DB	02H
	DB	02H
	DB	02H
	DB	02H
	DB	02H
	DB	02H
	DB	02H
	DB	02H
	DB	02H
	DB	02H
	DB	02H
	DB	02H
	DB	02H
	DB	02H
	DB	02H
	DB	02H
	DB	02H
	DB	02H
	DB	02H
	DB	02H
	DB	02H
	DB	02H
	DB	02H
	DB	02H
	DB	02H
	DB	02H
	DB	02H
	DB	02H
	DB	02H
	DB	02H
	DB	02H
	DB	02H
	DB	02H
	DB	02H
	DB	02H
	DB	02H
	DB	02H
	DB	02H
	DB	02H
	DB	02H
	DB	02H
	DB	02H
	DB	02H
	DB	02H
	DB	02H
	DB	02H
	DB	02H
	DB	02H
	DB	02H
	DB	02H
	DB	02H
	DB	02H
	DB	02H
	DB	02H
	DB	02H
	DB	02H
	DB	02H
	DB	01aH
	DB	01H
	DB	01H
	DB	01H
	DB	01H
	DB	01H
	DB	01H
	DB	01H
	DB	01H
	DB	08cH
	DB	08cH
	DB	08cH
	DB	08cH
	DB	08H
	DB	08H
	DB	08dH
	DB	0aH
	DB	0aH
	DB	0aH
	DB	0aH
	DB	02cH
	DB	05H
	DB	05H
	DB	05H
	DB	05H
	DB	05H
	DB	05H
	DB	079H
	DB	03H
	DB	03H
	DB	03H
	DB	03H
	DB	03H
	DB	054H
	DB	06H
	DB	06H
	DB	06H
	DB	06H
	DB	06H
	DB	062H
	DB	07H
	DB	06H
	DB	01aH
	DB	086H
	DB	056H
	DB	024H
	DB	056H
	DB	01eH
	DB	022H
	DB	07H
	DB	0bH
	DB	09H
	DB	09H
	DB	09H
	DB	047H
	DB	047H
	DB	047H
	DB	07H
	DB	07H
	DB	07H
	DB	062H
	DB	062H
	DB	062H
	DB	06H
	DB	06H
	DB	06H
	DB	06H
	DB	054H
	DB	03H
	DB	03H
	DB	03H
	DB	03H
	DB	079H
	DB	079H
	DB	05H
	DB	05H
	DB	05H
	DB	05H
	DB	05H
	DB	02cH
	DB	0aH
	DB	0aH
	DB	0aH
	DB	0aH
	DB	08H
	DB	08H
	DB	08cH
	DB	08cH
	DB	08cH
	DB	08cH
	DB	01H
	DB	01H
	DB	01H
	DB	01H
	DB	01H
	DB	01H
	DB	01H
	DB	01H
	DB	01aH
	DB	01aH
	DB	01aH
	DB	02H
	DB	02H
	DB	02H
	DB	02H
	DB	02H
	DB	02H
	DB	02H
	DB	02H
	DB	02H
	DB	02H
	DB	02H
	DB	02H
	DB	02H
	DB	02H
	DB	02H
	DB	02H
	DB	02H
	DB	02H
	DB	02H
	DB	02H
	DB	02H
	DB	02H
	DB	02H
	DB	02H
	DB	02H
	DB	02H
	DB	02H
	DB	02H
	DB	02H
	DB	02H
	DB	02H
	DB	02H
	DB	02H
	DB	02H
	DB	02H
	DB	02H
	DB	02H
	DB	02H
	DB	02H
	DB	02H
	DB	02H
	DB	02H
	DB	02H
	DB	02H
	DB	02H
	DB	02H
	DB	02H
	DB	02H
	DB	02H
	DB	02H
	DB	02H
	DB	01aH
	DB	01aH
	DB	01aH
	DB	01aH
	DB	01aH
	DB	01aH
	DB	01H
	DB	01H
	DB	01H
	DB	01H
	DB	01H
	DB	01H
	DB	01H
	DB	01H
	DB	01H
	DB	01H
	DB	01H
	DB	01H
	DB	01H
	DB	01H
	DB	01H
	DB	01H
	DB	01H
	DB	01H
	DB	01H
	DB	01H
	DB	01H
	DB	01H
	DB	01H
	DB	01H
	DB	01H
	DB	01H
	DB	01H
	DB	01H
	DB	01H
	DB	08cH
	DB	08cH
	DB	08cH
	DB	08cH
	DB	08H
	DB	08H
	DB	08dH
	DB	0aH
	DB	0aH
	DB	0aH
	DB	0aH
	DB	0aH
	DB	02cH
	DB	05H
	DB	05H
	DB	05H
	DB	05H
	DB	05H
	DB	079H
	DB	079H
	DB	03H
	DB	03H
	DB	03H
	DB	03H
	DB	03H
	DB	054H
	DB	06H
	DB	06H
	DB	06H
	DB	06H
	DB	06H
	DB	062H
	DB	07H
	DB	06H
	DB	01aH
	DB	086H
	DB	056H
	DB	024H
	DB	056H
	DB	01eH
	DB	022H
	DB	07H
	DB	0bH
	DB	09H
	DB	09H
	DB	09H
	DB	09H
	DB	047H
	DB	047H
	DB	07H
	DB	07H
	DB	07H
	DB	07H
	DB	062H
	DB	062H
	DB	06H
	DB	06H
	DB	06H
	DB	06H
	DB	06H
	DB	03H
	DB	03H
	DB	03H
	DB	03H
	DB	03H
	DB	079H
	DB	079H
	DB	05H
	DB	05H
	DB	05H
	DB	05H
	DB	05H
	DB	02cH
	DB	0aH
	DB	0aH
	DB	0aH
	DB	08dH
	DB	08dH
	DB	08H
	DB	08cH
	DB	08cH
	DB	08cH
	DB	01H
	DB	01H
	DB	01H
	DB	01H
	DB	01H
	DB	01H
	DB	01H
	DB	01H
	DB	01H
	DB	01H
	DB	01H
	DB	01aH
	DB	01aH
	DB	01aH
	DB	01aH
	DB	02H
	DB	02H
	DB	02H
	DB	02H
	DB	02H
	DB	02H
	DB	02H
	DB	02H
	DB	02H
	DB	02H
	DB	02H
	DB	02H
	DB	02H
	DB	02H
	DB	02H
	DB	02H
	DB	02H
	DB	02H
	DB	02H
	DB	02H
	DB	02H
	DB	02H
	DB	02H
	DB	02H
	DB	02H
	DB	02H
	DB	02H
	DB	02H
	DB	02H
	DB	02H
	DB	02H
	DB	02H
	DB	02H
	DB	02H
	DB	02H
	DB	02H
	DB	02H
	DB	02H
	DB	02H
	DB	02H
	DB	02H
	DB	02H
	DB	02H
	DB	02H
	DB	02H
	DB	02H
	DB	01aH
	DB	01aH
	DB	01H
	DB	01H
	DB	01H
	DB	01H
	DB	01H
	DB	01H
	DB	01H
	DB	01H
	DB	01H
	DB	01H
	DB	01H
	DB	01H
	DB	01H
	DB	01H
	DB	01H
	DB	01H
	DB	01H
	DB	01H
	DB	01H
	DB	01H
	DB	01H
	DB	01H
	DB	01H
	DB	01H
	DB	01H
	DB	01H
	DB	01H
	DB	01H
	DB	01H
	DB	01H
	DB	01H
	DB	01H
	DB	01H
	DB	08cH
	DB	08cH
	DB	08cH
	DB	08H
	DB	08H
	DB	08H
	DB	08dH
	DB	0aH
	DB	0aH
	DB	0aH
	DB	0aH
	DB	0aH
	DB	02cH
	DB	05H
	DB	05H
	DB	05H
	DB	05H
	DB	05H
	DB	05H
	DB	079H
	DB	079H
	DB	03H
	DB	03H
	DB	03H
	DB	03H
	DB	03H
	DB	054H
	DB	06H
	DB	06H
	DB	06H
	DB	06H
	DB	06H
	DB	062H
	DB	07H
	DB	06H
	DB	01aH
	DB	086H
	DB	056H
	DB	024H
	DB	056H
	DB	01eH
	DB	022H
	DB	047H
	DB	0bH
	DB	09H
	DB	09H
	DB	09H
	DB	09H
	DB	047H
	DB	047H
	DB	07H
	DB	07H
	DB	07H
	DB	07H
	DB	07H
	DB	062H
	DB	06H
	DB	06H
	DB	06H
	DB	06H
	DB	06H
	DB	054H
	DB	03H
	DB	03H
	DB	03H
	DB	03H
	DB	03H
	DB	079H
	DB	05H
	DB	05H
	DB	05H
	DB	05H
	DB	05H
	DB	02cH
	DB	0aH
	DB	0aH
	DB	0aH
	DB	0aH
	DB	08dH
	DB	08H
	DB	08H
	DB	08H
	DB	08cH
	DB	08cH
	DB	08cH
	DB	01H
	DB	01H
	DB	01H
	DB	01H
	DB	01H
	DB	01H
	DB	01H
	DB	01H
	DB	01H
	DB	01H
	DB	01H
	DB	01aH
	DB	01aH
	DB	01aH
	DB	01aH
	DB	02H
	DB	02H
	DB	02H
	DB	02H
	DB	02H
	DB	02H
	DB	02H
	DB	02H
	DB	02H
	DB	02H
	DB	02H
	DB	02H
	DB	02H
	DB	02H
	DB	02H
	DB	02H
	DB	02H
	DB	02H
	DB	02H
	DB	02H
	DB	02H
	DB	02H
	DB	02H
	DB	02H
	DB	02H
	DB	02H
	DB	02H
	DB	02H
	DB	02H
	DB	02H
	DB	02H
	DB	02H
	DB	02H
	DB	02H
	DB	02H
	DB	02H
	DB	02H
	DB	02H
	DB	02H
	DB	02H
	DB	02H
	DB	02H
	DB	02H
	DB	02H
	DB	01aH
	DB	01aH
	DB	01H
	DB	01H
	DB	01H
	DB	01H
	DB	01H
	DB	01H
	DB	01H
	DB	01H
	DB	01H
	DB	01H
	DB	01H
	DB	01H
	DB	01H
	DB	01H
	DB	01H
	DB	01H
	DB	01H
	DB	01H
	DB	01H
	DB	01H
	DB	01H
	DB	01H
	DB	01H
	DB	01H
	DB	01H
	DB	01H
	DB	01H
	DB	01H
	DB	01H
	DB	01H
	DB	01H
	DB	08cH
	DB	08cH
	DB	08cH
	DB	08cH
	DB	08H
	DB	08H
	DB	08H
	DB	08dH
	DB	0aH
	DB	0aH
	DB	0aH
	DB	0aH
	DB	0aH
	DB	02cH
	DB	02cH
	DB	05H
	DB	05H
	DB	05H
	DB	05H
	DB	05H
	DB	05H
	DB	079H
	DB	079H
	DB	03H
	DB	03H
	DB	03H
	DB	03H
	DB	03H
	DB	054H
	DB	06H
	DB	06H
	DB	06H
	DB	06H
	DB	06H
	DB	062H
	DB	07H
	DB	06H
	DB	01aH
	DB	021H
	DB	056H
	DB	024H
	DB	056H
	DB	01eH
	DB	022H
	DB	047H
	DB	0bH
	DB	09H
	DB	09H
	DB	09H
	DB	09H
	DB	047H
	DB	047H
	DB	047H
	DB	07H
	DB	07H
	DB	07H
	DB	07H
	DB	062H
	DB	062H
	DB	06H
	DB	06H
	DB	06H
	DB	06H
	DB	06H
	DB	03H
	DB	03H
	DB	03H
	DB	03H
	DB	03H
	DB	03H
	DB	079H
	DB	05H
	DB	05H
	DB	05H
	DB	05H
	DB	05H
	DB	02cH
	DB	02cH
	DB	0aH
	DB	0aH
	DB	0aH
	DB	0aH
	DB	08H
	DB	08H
	DB	08H
	DB	08cH
	DB	08cH
	DB	08cH
	DB	08cH
	DB	01H
	DB	01H
	DB	01H
	DB	01H
	DB	01H
	DB	01H
	DB	01H
	DB	01H
	DB	01H
	DB	01H
	DB	01H
	DB	01aH
	DB	01aH
	DB	01aH
	DB	01aH
	DB	02H
	DB	02H
	DB	02H
	DB	02H
	DB	02H
	DB	02H
	DB	02H
	DB	02H
	DB	02H
	DB	02H
	DB	02H
	DB	02H
	DB	02H
	DB	02H
	DB	02H
	DB	02H
	DB	02H
	DB	02H
	DB	02H
	DB	02H
	DB	02H
	DB	02H
	DB	02H
	DB	02H
	DB	02H
	DB	02H
	DB	02H
	DB	02H
	DB	02H
	DB	02H
	DB	02H
	DB	02H
	DB	02H
	DB	02H
	DB	02H
	DB	02H
	DB	02H
	DB	02H
	DB	02H
	DB	02H
	DB	02H
	DB	02H
	DB	01aH
	DB	01aH
	DB	01H
	DB	01H
	DB	01H
	DB	01H
	DB	01H
	DB	01H
	DB	01H
	DB	01H
	DB	01H
	DB	01H
	DB	01H
	DB	01H
	DB	01H
	DB	01H
	DB	01H
	DB	01H
	DB	01H
	DB	01H
	DB	01H
	DB	01H
	DB	01H
	DB	01H
	DB	01H
	DB	01H
	DB	01H
	DB	01H
	DB	01H
	DB	01H
	DB	01H
	DB	08cH
	DB	08cH
	DB	08cH
	DB	08cH
	DB	08H
	DB	08H
	DB	08H
	DB	08dH
	DB	08dH
	DB	0aH
	DB	0aH
	DB	0aH
	DB	0aH
	DB	0aH
	DB	0aH
	DB	02cH
	DB	05H
	DB	05H
	DB	05H
	DB	05H
	DB	05H
	DB	05H
	DB	079H
	DB	079H
	DB	03H
	DB	03H
	DB	03H
	DB	03H
	DB	03H
	DB	03H
	DB	054H
	DB	06H
	DB	06H
	DB	06H
	DB	06H
	DB	06H
	DB	062H
	DB	07H
	DB	06H
	DB	01aH
	DB	086H
	DB	056H
	DB	024H
	DB	056H
	DB	01eH
	DB	022H
	DB	047H
	DB	0bH
	DB	060H
	DB	09H
	DB	09H
	DB	09H
	DB	09H
	DB	047H
	DB	047H
	DB	047H
	DB	07H
	DB	07H
	DB	07H
	DB	062H
	DB	062H
	DB	062H
	DB	06H
	DB	06H
	DB	06H
	DB	06H
	DB	054H
	DB	054H
	DB	03H
	DB	03H
	DB	03H
	DB	03H
	DB	079H
	DB	079H
	DB	05H
	DB	05H
	DB	05H
	DB	05H
	DB	05H
	DB	05H
	DB	02cH
	DB	0aH
	DB	0aH
	DB	0aH
	DB	0aH
	DB	0aH
	DB	08H
	DB	08H
	DB	08H
	DB	08cH
	DB	08cH
	DB	08cH
	DB	01H
	DB	01H
	DB	01H
	DB	01H
	DB	01H
	DB	01H
	DB	01H
	DB	01H
	DB	01H
	DB	01H
	DB	01H
	DB	01H
	DB	01H
	DB	01aH
	DB	01aH
	DB	01aH
	DB	02H
	DB	02H
	DB	02H
	DB	02H
	DB	02H
	DB	02H
	DB	02H
	DB	02H
	DB	02H
	DB	02H
	DB	02H
	DB	02H
	DB	02H
	DB	02H
	DB	02H
	DB	02H
	DB	02H
	DB	02H
	DB	02H
	DB	02H
	DB	02H
	DB	02H
	DB	02H
	DB	02H
	DB	02H
	DB	02H
	DB	02H
	DB	02H
	DB	02H
	DB	02H
	DB	02H
	DB	02H
	DB	02H
	DB	02H
	DB	02H
	DB	02H
	DB	02H
	DB	02H
	DB	02H
	DB	02H
	DB	01aH
	DB	01aH
	DB	01H
	DB	01H
	DB	01H
	DB	01H
	DB	01H
	DB	01H
	DB	01H
	DB	01H
	DB	01H
	DB	01H
	DB	01H
	DB	01H
	DB	01H
	DB	01H
	DB	01H
	DB	01H
	DB	01H
	DB	01H
	DB	01H
	DB	01H
	DB	01H
	DB	01H
	DB	01H
	DB	01H
	DB	01H
	DB	01H
	DB	01H
	DB	01H
	DB	08cH
	DB	08cH
	DB	08cH
	DB	08cH
	DB	08H
	DB	08H
	DB	08H
	DB	08dH
	DB	0aH
	DB	0aH
	DB	0aH
	DB	0aH
	DB	0aH
	DB	0aH
	DB	0aH
	DB	02cH
	DB	05H
	DB	05H
	DB	05H
	DB	05H
	DB	05H
	DB	05H
	DB	05H
	DB	079H
	DB	079H
	DB	03H
	DB	03H
	DB	03H
	DB	03H
	DB	03H
	DB	03H
	DB	054H
	DB	06H
	DB	06H
	DB	06H
	DB	06H
	DB	062H
	DB	062H
	DB	07H
	DB	06H
	DB	01aH
	DB	086H
	DB	056H
	DB	024H
	DB	024H
	DB	01eH
	DB	022H
	DB	047H
	DB	0bH
	DB	060H
	DB	09H
	DB	09H
	DB	09H
	DB	09H
	DB	047H
	DB	047H
	DB	07H
	DB	07H
	DB	07H
	DB	07H
	DB	07H
	DB	062H
	DB	062H
	DB	06H
	DB	06H
	DB	06H
	DB	06H
	DB	06H
	DB	054H
	DB	03H
	DB	03H
	DB	03H
	DB	03H
	DB	03H
	DB	079H
	DB	079H
	DB	05H
	DB	05H
	DB	05H
	DB	05H
	DB	05H
	DB	05H
	DB	0aH
	DB	0aH
	DB	0aH
	DB	0aH
	DB	0aH
	DB	08dH
	DB	08H
	DB	08H
	DB	08H
	DB	08cH
	DB	08cH
	DB	08cH
	DB	01H
	DB	01H
	DB	01H
	DB	01H
	DB	01H
	DB	01H
	DB	01H
	DB	01H
	DB	01H
	DB	01H
	DB	01H
	DB	01H
	DB	01aH
	DB	01aH
	DB	01aH
	DB	02H
	DB	02H
	DB	02H
	DB	02H
	DB	02H
	DB	02H
	DB	02H
	DB	02H
	DB	02H
	DB	02H
	DB	02H
	DB	02H
	DB	02H
	DB	02H
	DB	02H
	DB	02H
	DB	02H
	DB	02H
	DB	02H
	DB	02H
	DB	02H
	DB	02H
	DB	02H
	DB	02H
	DB	02H
	DB	02H
	DB	02H
	DB	02H
	DB	02H
	DB	02H
	DB	02H
	DB	02H
	DB	02H
	DB	02H
	DB	02H
	DB	02H
	DB	02H
	DB	02H
	DB	02H
	DB	02H
	DB	02H
	DB	01aH
	DB	01H
	DB	01H
	DB	01H
	DB	01H
	DB	01H
	DB	01H
	DB	01H
	DB	01H
	DB	01H
	DB	01H
	DB	01H
	DB	08cH
	DB	08cH
	DB	08cH
	DB	08cH
	DB	08cH
	DB	08cH
	DB	08cH
	DB	08cH
	DB	08cH
	DB	08cH
	DB	08cH
	DB	08cH
	DB	08cH
	DB	08cH
	DB	08cH
	DB	08cH
	DB	08cH
	DB	08cH
	DB	08cH
	DB	08H
	DB	08H
	DB	08H
	DB	08dH
	DB	08dH
	DB	0aH
	DB	0aH
	DB	0aH
	DB	0aH
	DB	0aH
	DB	0aH
	DB	0aH
	DB	0aH
	DB	02cH
	DB	05H
	DB	05H
	DB	05H
	DB	05H
	DB	05H
	DB	05H
	DB	05H
	DB	079H
	DB	079H
	DB	03H
	DB	03H
	DB	03H
	DB	03H
	DB	03H
	DB	03H
	DB	06H
	DB	06H
	DB	06H
	DB	06H
	DB	06H
	DB	062H
	DB	062H
	DB	07H
	DB	06H
	DB	01aH
	DB	021H
	DB	056H
	DB	024H
	DB	024H
	DB	01eH
	DB	022H
	DB	047H
	DB	0bH
	DB	060H
	DB	060H
	DB	09H
	DB	09H
	DB	09H
	DB	09H
	DB	047H
	DB	047H
	DB	07H
	DB	07H
	DB	07H
	DB	07H
	DB	062H
	DB	062H
	DB	062H
	DB	06H
	DB	06H
	DB	06H
	DB	06H
	DB	06H
	DB	054H
	DB	03H
	DB	03H
	DB	03H
	DB	03H
	DB	03H
	DB	079H
	DB	079H
	DB	05H
	DB	05H
	DB	05H
	DB	05H
	DB	05H
	DB	05H
	DB	02cH
	DB	0aH
	DB	0aH
	DB	0aH
	DB	0aH
	DB	0aH
	DB	08dH
	DB	08H
	DB	08H
	DB	08cH
	DB	08cH
	DB	08cH
	DB	01H
	DB	01H
	DB	01H
	DB	01H
	DB	01H
	DB	01H
	DB	01H
	DB	01H
	DB	01H
	DB	01H
	DB	01H
	DB	01H
	DB	01H
	DB	01aH
	DB	01aH
	DB	02H
	DB	02H
	DB	02H
	DB	02H
	DB	02H
	DB	02H
	DB	02H
	DB	02H
	DB	02H
	DB	02H
	DB	02H
	DB	02H
	DB	02H
	DB	02H
	DB	02H
	DB	02H
	DB	02H
	DB	02H
	DB	02H
	DB	02H
	DB	02H
	DB	02H
	DB	02H
	DB	02H
	DB	02H
	DB	02H
	DB	02H
	DB	02H
	DB	02H
	DB	02H
	DB	02H
	DB	02H
	DB	02H
	DB	02H
	DB	02H
	DB	02H
	DB	02H
	DB	02H
	DB	02H
	DB	02H
	DB	01aH
	DB	01H
	DB	01H
	DB	01H
	DB	01H
	DB	01H
	DB	01H
	DB	01H
	DB	01H
	DB	08cH
	DB	08cH
	DB	08cH
	DB	08cH
	DB	08cH
	DB	08cH
	DB	08cH
	DB	08cH
	DB	08cH
	DB	08cH
	DB	08cH
	DB	08cH
	DB	08cH
	DB	08cH
	DB	08cH
	DB	08cH
	DB	08cH
	DB	08cH
	DB	08cH
	DB	08H
	DB	08H
	DB	08H
	DB	08H
	DB	08dH
	DB	08dH
	DB	0aH
	DB	0aH
	DB	0aH
	DB	0aH
	DB	0aH
	DB	0aH
	DB	0aH
	DB	0aH
	DB	02cH
	DB	02cH
	DB	05H
	DB	05H
	DB	05H
	DB	05H
	DB	05H
	DB	05H
	DB	05H
	DB	05H
	DB	079H
	DB	079H
	DB	03H
	DB	03H
	DB	03H
	DB	03H
	DB	03H
	DB	054H
	DB	06H
	DB	06H
	DB	06H
	DB	06H
	DB	06H
	DB	062H
	DB	062H
	DB	07H
	DB	06H
	DB	01aH
	DB	021H
	DB	024H
	DB	024H
	DB	024H
	DB	01eH
	DB	022H
	DB	047H
	DB	0bfH
	DB	060H
	DB	060H
	DB	09H
	DB	09H
	DB	09H
	DB	09H
	DB	047H
	DB	047H
	DB	047H
	DB	07H
	DB	07H
	DB	07H
	DB	07H
	DB	062H
	DB	062H
	DB	062H
	DB	06H
	DB	06H
	DB	06H
	DB	06H
	DB	06H
	DB	03H
	DB	03H
	DB	03H
	DB	03H
	DB	03H
	DB	03H
	DB	079H
	DB	079H
	DB	05H
	DB	05H
	DB	05H
	DB	05H
	DB	05H
	DB	05H
	DB	02cH
	DB	0aH
	DB	0aH
	DB	0aH
	DB	0aH
	DB	0aH
	DB	08dH
	DB	08H
	DB	08H
	DB	08cH
	DB	08cH
	DB	08cH
	DB	01H
	DB	01H
	DB	01H
	DB	01H
	DB	01H
	DB	01H
	DB	01H
	DB	01H
	DB	01H
	DB	01H
	DB	01H
	DB	01H
	DB	01H
	DB	01aH
	DB	01aH
	DB	02H
	DB	02H
	DB	02H
	DB	02H
	DB	02H
	DB	02H
	DB	02H
	DB	02H
	DB	02H
	DB	02H
	DB	02H
	DB	02H
	DB	02H
	DB	02H
	DB	02H
	DB	02H
	DB	02H
	DB	02H
	DB	02H
	DB	02H
	DB	02H
	DB	02H
	DB	02H
	DB	02H
	DB	02H
	DB	02H
	DB	02H
	DB	02H
	DB	02H
	DB	02H
	DB	02H
	DB	02H
	DB	02H
	DB	02H
	DB	02H
	DB	02H
	DB	02H
	DB	02H
	DB	02H
	DB	02H
	DB	01aH
	DB	01H
	DB	01H
	DB	01H
	DB	01H
	DB	01H
	DB	01H
	DB	01H
	DB	08cH
	DB	08cH
	DB	08cH
	DB	08cH
	DB	08H
	DB	08H
	DB	08H
	DB	08H
	DB	08H
	DB	08H
	DB	08H
	DB	08H
	DB	08H
	DB	08H
	DB	08H
	DB	08H
	DB	08H
	DB	08H
	DB	08H
	DB	08H
	DB	08dH
	DB	08dH
	DB	0aH
	DB	08dH
	DB	0aH
	DB	0aH
	DB	0aH
	DB	0aH
	DB	0aH
	DB	0aH
	DB	0aH
	DB	02cH
	DB	02cH
	DB	02cH
	DB	05H
	DB	05H
	DB	05H
	DB	05H
	DB	05H
	DB	05H
	DB	05H
	DB	05H
	DB	079H
	DB	079H
	DB	03H
	DB	03H
	DB	03H
	DB	03H
	DB	03H
	DB	03H
	DB	054H
	DB	06H
	DB	06H
	DB	06H
	DB	06H
	DB	06H
	DB	062H
	DB	062H
	DB	07H
	DB	06H
	DB	01aH
	DB	021H
	DB	024H
	DB	024H
	DB	024H
	DB	01eH
	DB	022H
	DB	047H
	DB	0bfH
	DB	060H
	DB	060H
	DB	060H
	DB	09H
	DB	09H
	DB	09H
	DB	09H
	DB	047H
	DB	047H
	DB	07H
	DB	07H
	DB	07H
	DB	07H
	DB	07H
	DB	062H
	DB	062H
	DB	06H
	DB	06H
	DB	06H
	DB	06H
	DB	06H
	DB	054H
	DB	054H
	DB	03H
	DB	03H
	DB	03H
	DB	03H
	DB	03H
	DB	079H
	DB	079H
	DB	05H
	DB	05H
	DB	05H
	DB	05H
	DB	05H
	DB	05H
	DB	02cH
	DB	02cH
	DB	0aH
	DB	0aH
	DB	0aH
	DB	0aH
	DB	08dH
	DB	08H
	DB	08H
	DB	08cH
	DB	08cH
	DB	08cH
	DB	01H
	DB	01H
	DB	01H
	DB	01H
	DB	01H
	DB	01H
	DB	01H
	DB	01H
	DB	01H
	DB	01H
	DB	01H
	DB	01H
	DB	01aH
	DB	01aH
	DB	02H
	DB	02H
	DB	02H
	DB	02H
	DB	02H
	DB	02H
	DB	02H
	DB	02H
	DB	02H
	DB	02H
	DB	02H
	DB	02H
	DB	02H
	DB	02H
	DB	02H
	DB	02H
	DB	02H
	DB	02H
	DB	02H
	DB	02H
	DB	02H
	DB	02H
	DB	02H
	DB	02H
	DB	02H
	DB	02H
	DB	02H
	DB	02H
	DB	02H
	DB	02H
	DB	02H
	DB	02H
	DB	02H
	DB	02H
	DB	02H
	DB	02H
	DB	02H
	DB	02H
	DB	02H
	DB	02H
	DB	01aH
	DB	01aH
	DB	01H
	DB	01H
	DB	01H
	DB	01H
	DB	01H
	DB	01H
	DB	08cH
	DB	08cH
	DB	08cH
	DB	08cH
	DB	08H
	DB	08H
	DB	08H
	DB	08H
	DB	08H
	DB	08H
	DB	08H
	DB	08H
	DB	08H
	DB	08H
	DB	08H
	DB	08H
	DB	08H
	DB	08H
	DB	08H
	DB	08dH
	DB	08dH
	DB	0aH
	DB	0aH
	DB	0aH
	DB	0aH
	DB	0aH
	DB	0aH
	DB	0aH
	DB	0aH
	DB	0aH
	DB	0aH
	DB	02cH
	DB	02cH
	DB	05H
	DB	05H
	DB	05H
	DB	05H
	DB	05H
	DB	05H
	DB	05H
	DB	05H
	DB	05H
	DB	079H
	DB	079H
	DB	03H
	DB	03H
	DB	03H
	DB	03H
	DB	03H
	DB	03H
	DB	054H
	DB	06H
	DB	06H
	DB	06H
	DB	06H
	DB	062H
	DB	062H
	DB	062H
	DB	07H
	DB	06H
	DB	01aH
	DB	021H
	DB	024H
	DB	042H
	DB	024H
	DB	01eH
	DB	022H
	DB	047H
	DB	0bfH
	DB	060H
	DB	060H
	DB	060H
	DB	09H
	DB	09H
	DB	09H
	DB	09H
	DB	09H
	DB	047H
	DB	047H
	DB	07H
	DB	07H
	DB	07H
	DB	07H
	DB	07H
	DB	062H
	DB	062H
	DB	06H
	DB	06H
	DB	06H
	DB	06H
	DB	06H
	DB	06H
	DB	054H
	DB	03H
	DB	03H
	DB	03H
	DB	03H
	DB	03H
	DB	079H
	DB	079H
	DB	079H
	DB	05H
	DB	05H
	DB	05H
	DB	05H
	DB	05H
	DB	05H
	DB	02cH
	DB	0aH
	DB	0aH
	DB	0aH
	DB	0aH
	DB	08dH
	DB	08H
	DB	08cH
	DB	08cH
	DB	08cH
	DB	08cH
	DB	08cH
	DB	01H
	DB	01H
	DB	01H
	DB	01H
	DB	01H
	DB	01H
	DB	01H
	DB	01H
	DB	01H
	DB	01H
	DB	01aH
	DB	01aH
	DB	02H
	DB	02H
	DB	02H
	DB	02H
	DB	02H
	DB	02H
	DB	02H
	DB	02H
	DB	02H
	DB	02H
	DB	02H
	DB	02H
	DB	02H
	DB	02H
	DB	02H
	DB	02H
	DB	02H
	DB	02H
	DB	02H
	DB	02H
	DB	02H
	DB	02H
	DB	02H
	DB	02H
	DB	02H
	DB	02H
	DB	02H
	DB	02H
	DB	02H
	DB	02H
	DB	02H
	DB	02H
	DB	02H
	DB	02H
	DB	02H
	DB	02H
	DB	02H
	DB	02H
	DB	02H
	DB	02H
	DB	02H
	DB	02H
	DB	01aH
	DB	01H
	DB	01H
	DB	01H
	DB	01H
	DB	01H
	DB	08cH
	DB	08cH
	DB	08cH
	DB	08H
	DB	08H
	DB	08H
	DB	08dH
	DB	08dH
	DB	08dH
	DB	0aH
	DB	0aH
	DB	0aH
	DB	0aH
	DB	0aH
	DB	0aH
	DB	0aH
	DB	0aH
	DB	0aH
	DB	0aH
	DB	0aH
	DB	0aH
	DB	0aH
	DB	0aH
	DB	0aH
	DB	0aH
	DB	0aH
	DB	0aH
	DB	0aH
	DB	02cH
	DB	02cH
	DB	02cH
	DB	05H
	DB	05H
	DB	05H
	DB	05H
	DB	05H
	DB	05H
	DB	05H
	DB	05H
	DB	05H
	DB	05H
	DB	05H
	DB	079H
	DB	079H
	DB	03H
	DB	03H
	DB	03H
	DB	03H
	DB	03H
	DB	03H
	DB	054H
	DB	06H
	DB	06H
	DB	06H
	DB	06H
	DB	062H
	DB	062H
	DB	062H
	DB	07H
	DB	06H
	DB	01aH
	DB	021H
	DB	024H
	DB	042H
	DB	024H
	DB	01eH
	DB	022H
	DB	047H
	DB	0bfH
	DB	060H
	DB	060H
	DB	060H
	DB	09H
	DB	09H
	DB	09H
	DB	09H
	DB	09H
	DB	047H
	DB	047H
	DB	047H
	DB	07H
	DB	07H
	DB	07H
	DB	07H
	DB	062H
	DB	062H
	DB	062H
	DB	06H
	DB	06H
	DB	06H
	DB	06H
	DB	06H
	DB	06H
	DB	03H
	DB	03H
	DB	03H
	DB	03H
	DB	03H
	DB	03H
	DB	03H
	DB	079H
	DB	079H
	DB	05H
	DB	05H
	DB	05H
	DB	05H
	DB	05H
	DB	05H
	DB	02cH
	DB	0aH
	DB	0aH
	DB	0aH
	DB	0aH
	DB	08dH
	DB	08H
	DB	08cH
	DB	08cH
	DB	08cH
	DB	08cH
	DB	01H
	DB	01H
	DB	01H
	DB	01H
	DB	01H
	DB	01H
	DB	01H
	DB	01H
	DB	01H
	DB	01H
	DB	01H
	DB	01aH
	DB	01aH
	DB	02H
	DB	02H
	DB	02H
	DB	02H
	DB	02H
	DB	02H
	DB	02H
	DB	02H
	DB	02H
	DB	02H
	DB	02H
	DB	02H
	DB	02H
	DB	02H
	DB	02H
	DB	02H
	DB	02H
	DB	02H
	DB	02H
	DB	02H
	DB	02H
	DB	02H
	DB	02H
	DB	02H
	DB	02H
	DB	02H
	DB	02H
	DB	02H
	DB	02H
	DB	02H
	DB	02H
	DB	02H
	DB	02H
	DB	02H
	DB	02H
	DB	02H
	DB	02H
	DB	02H
	DB	02H
	DB	02H
	DB	02H
	DB	01aH
	DB	01aH
	DB	01H
	DB	01H
	DB	01H
	DB	01H
	DB	01H
	DB	08cH
	DB	08cH
	DB	08cH
	DB	08H
	DB	08H
	DB	08dH
	DB	0aH
	DB	0aH
	DB	0aH
	DB	0aH
	DB	0aH
	DB	0aH
	DB	0aH
	DB	0aH
	DB	0aH
	DB	0aH
	DB	0aH
	DB	0aH
	DB	0aH
	DB	0aH
	DB	0aH
	DB	0aH
	DB	02cH
	DB	02cH
	DB	02cH
	DB	02cH
	DB	02cH
	DB	02cH
	DB	05H
	DB	05H
	DB	05H
	DB	05H
	DB	05H
	DB	05H
	DB	05H
	DB	05H
	DB	05H
	DB	05H
	DB	05H
	DB	05H
	DB	05H
	DB	079H
	DB	079H
	DB	03H
	DB	03H
	DB	03H
	DB	03H
	DB	03H
	DB	03H
	DB	054H
	DB	06H
	DB	06H
	DB	06H
	DB	06H
	DB	062H
	DB	062H
	DB	062H
	DB	07H
	DB	06H
	DB	01aH
	DB	021H
	DB	024H
	DB	042H
	DB	024H
	DB	01eH
	DB	022H
	DB	047H
	DB	0bfH
	DB	0bH
	DB	060H
	DB	060H
	DB	060H
	DB	09H
	DB	09H
	DB	09H
	DB	09H
	DB	09H
	DB	047H
	DB	047H
	DB	07H
	DB	07H
	DB	07H
	DB	07H
	DB	07H
	DB	062H
	DB	062H
	DB	06H
	DB	06H
	DB	06H
	DB	06H
	DB	06H
	DB	06H
	DB	054H
	DB	054H
	DB	03H
	DB	03H
	DB	03H
	DB	03H
	DB	03H
	DB	079H
	DB	079H
	DB	079H
	DB	05H
	DB	05H
	DB	05H
	DB	05H
	DB	05H
	DB	05H
	DB	02cH
	DB	0aH
	DB	0aH
	DB	0aH
	DB	08dH
	DB	08H
	DB	08H
	DB	08cH
	DB	08cH
	DB	08cH
	DB	08cH
	DB	01H
	DB	01H
	DB	01H
	DB	01H
	DB	01H
	DB	01H
	DB	01H
	DB	01H
	DB	01H
	DB	01H
	DB	01aH
	DB	01aH
	DB	02H
	DB	02H
	DB	02H
	DB	02H
	DB	02H
	DB	02H
	DB	02H
	DB	02H
	DB	02H
	DB	02H
	DB	02H
	DB	02H
	DB	02H
	DB	02H
	DB	02H
	DB	02H
	DB	02H
	DB	02H
	DB	02H
	DB	02H
	DB	02H
	DB	02H
	DB	02H
	DB	02H
	DB	02H
	DB	02H
	DB	02H
	DB	02H
	DB	02H
	DB	02H
	DB	02H
	DB	02H
	DB	02H
	DB	02H
	DB	02H
	DB	02H
	DB	02H
	DB	02H
	DB	02H
	DB	02H
	DB	02H
	DB	02H
	DB	01aH
	DB	01H
	DB	01H
	DB	01H
	DB	01H
	DB	01H
	DB	08cH
	DB	08cH
	DB	08cH
	DB	08H
	DB	08H
	DB	08dH
	DB	0aH
	DB	0aH
	DB	0aH
	DB	0aH
	DB	0aH
	DB	0aH
	DB	0aH
	DB	0aH
	DB	0aH
	DB	0aH
	DB	0aH
	DB	0aH
	DB	02cH
	DB	02cH
	DB	02cH
	DB	02cH
	DB	02cH
	DB	02cH
	DB	05H
	DB	05H
	DB	05H
	DB	05H
	DB	05H
	DB	05H
	DB	05H
	DB	05H
	DB	05H
	DB	05H
	DB	05H
	DB	05H
	DB	05H
	DB	05H
	DB	05H
	DB	05H
	DB	079H
	DB	079H
	DB	079H
	DB	03H
	DB	03H
	DB	03H
	DB	03H
	DB	03H
	DB	03H
	DB	054H
	DB	06H
	DB	06H
	DB	06H
	DB	06H
	DB	062H
	DB	062H
	DB	062H
	DB	07H
	DB	06H
	DB	01aH
	DB	021H
	DB	024H
	DB	042H
	DB	024H
	DB	01eH
	DB	022H
	DB	047H
	DB	0bfH
	DB	0bH
	DB	0bH
	DB	060H
	DB	060H
	DB	060H
	DB	09H
	DB	09H
	DB	09H
	DB	09H
	DB	047H
	DB	047H
	DB	047H
	DB	07H
	DB	07H
	DB	07H
	DB	07H
	DB	07H
	DB	062H
	DB	062H
	DB	062H
	DB	06H
	DB	06H
	DB	06H
	DB	06H
	DB	06H
	DB	06H
	DB	054H
	DB	03H
	DB	03H
	DB	03H
	DB	03H
	DB	03H
	DB	03H
	DB	03H
	DB	079H
	DB	079H
	DB	05H
	DB	05H
	DB	05H
	DB	05H
	DB	05H
	DB	02cH
	DB	0aH
	DB	0aH
	DB	0aH
	DB	08H
	DB	08H
	DB	08H
	DB	08cH
	DB	08cH
	DB	08cH
	DB	08cH
	DB	01H
	DB	01H
	DB	01H
	DB	01H
	DB	01H
	DB	01H
	DB	01H
	DB	01H
	DB	01H
	DB	01aH
	DB	01aH
	DB	02H
	DB	02H
	DB	02H
	DB	02H
	DB	02H
	DB	02H
	DB	02H
	DB	02H
	DB	02H
	DB	02H
	DB	02H
	DB	02H
	DB	02H
	DB	02H
	DB	02H
	DB	02H
	DB	02H
	DB	02H
	DB	02H
	DB	02H
	DB	02H
	DB	02H
	DB	02H
	DB	02H
	DB	02H
	DB	02H
	DB	02H
	DB	02H
	DB	02H
	DB	02H
	DB	02H
	DB	02H
	DB	02H
	DB	02H
	DB	02H
	DB	02H
	DB	02H
	DB	02H
	DB	02H
	DB	02H
	DB	02H
	DB	02H
	DB	01aH
	DB	01aH
	DB	01H
	DB	01H
	DB	01H
	DB	01H
	DB	01H
	DB	08cH
	DB	08cH
	DB	08H
	DB	08H
	DB	08dH
	DB	0aH
	DB	0aH
	DB	0aH
	DB	0aH
	DB	02cH
	DB	02cH
	DB	02cH
	DB	02cH
	DB	02cH
	DB	02cH
	DB	02cH
	DB	05H
	DB	05H
	DB	05H
	DB	05H
	DB	05H
	DB	05H
	DB	05H
	DB	05H
	DB	05H
	DB	05H
	DB	05H
	DB	05H
	DB	05H
	DB	05H
	DB	05H
	DB	05H
	DB	05H
	DB	05H
	DB	05H
	DB	05H
	DB	05H
	DB	05H
	DB	079H
	DB	079H
	DB	079H
	DB	03H
	DB	03H
	DB	03H
	DB	03H
	DB	03H
	DB	03H
	DB	054H
	DB	06H
	DB	06H
	DB	06H
	DB	06H
	DB	06H
	DB	062H
	DB	062H
	DB	07H
	DB	07H
	DB	062H
	DB	01aH
	DB	021H
	DB	024H
	DB	042H
	DB	024H
	DB	01eH
	DB	022H
	DB	09H
	DB	0bfH
	DB	0bH
	DB	0bH
	DB	060H
	DB	060H
	DB	060H
	DB	09H
	DB	09H
	DB	09H
	DB	09H
	DB	09H
	DB	047H
	DB	047H
	DB	047H
	DB	07H
	DB	07H
	DB	07H
	DB	07H
	DB	07H
	DB	062H
	DB	062H
	DB	062H
	DB	06H
	DB	06H
	DB	06H
	DB	06H
	DB	06H
	DB	06H
	DB	054H
	DB	03H
	DB	03H
	DB	03H
	DB	03H
	DB	03H
	DB	03H
	DB	03H
	DB	03H
	DB	079H
	DB	05H
	DB	05H
	DB	05H
	DB	05H
	DB	05H
	DB	0aH
	DB	0aH
	DB	0aH
	DB	08dH
	DB	08dH
	DB	08H
	DB	08H
	DB	08cH
	DB	08cH
	DB	08cH
	DB	08cH
	DB	01H
	DB	01H
	DB	01H
	DB	01H
	DB	01H
	DB	01H
	DB	01H
	DB	01H
	DB	01H
	DB	01aH
	DB	01aH
	DB	01aH
	DB	01aH
	DB	01aH
	DB	01aH
	DB	01aH
	DB	01aH
	DB	01aH
	DB	01aH
	DB	01aH
	DB	01aH
	DB	01aH
	DB	01aH
	DB	01aH
	DB	01aH
	DB	01aH
	DB	01aH
	DB	01aH
	DB	01aH
	DB	01aH
	DB	01aH
	DB	01aH
	DB	01aH
	DB	01aH
	DB	01aH
	DB	01aH
	DB	01aH
	DB	01aH
	DB	01aH
	DB	01aH
	DB	01aH
	DB	01aH
	DB	01aH
	DB	01aH
	DB	01aH
	DB	01aH
	DB	01aH
	DB	01aH
	DB	01aH
	DB	01aH
	DB	01aH
	DB	01aH
	DB	01aH
	DB	01aH
	DB	01H
	DB	01H
	DB	01H
	DB	01H
	DB	01H
	DB	01H
	DB	08cH
	DB	08cH
	DB	08H
	DB	08dH
	DB	0aH
	DB	0aH
	DB	0aH
	DB	02cH
	DB	02cH
	DB	05H
	DB	05H
	DB	05H
	DB	05H
	DB	05H
	DB	05H
	DB	05H
	DB	05H
	DB	05H
	DB	05H
	DB	05H
	DB	05H
	DB	05H
	DB	05H
	DB	05H
	DB	05H
	DB	05H
	DB	05H
	DB	05H
	DB	05H
	DB	05H
	DB	05H
	DB	05H
	DB	05H
	DB	05H
	DB	05H
	DB	05H
	DB	05H
	DB	05H
	DB	079H
	DB	079H
	DB	079H
	DB	03H
	DB	03H
	DB	03H
	DB	03H
	DB	03H
	DB	03H
	DB	06H
	DB	06H
	DB	06H
	DB	06H
	DB	06H
	DB	062H
	DB	062H
	DB	07H
	DB	07H
	DB	062H
	DB	01aH
	DB	021H
	DB	024H
	DB	042H
	DB	024H
	DB	061H
	DB	022H
	DB	09H
	DB	0bfH
	DB	0bH
	DB	0bH
	DB	0bH
	DB	060H
	DB	060H
	DB	060H
	DB	09H
	DB	09H
	DB	09H
	DB	09H
	DB	09H
	DB	047H
	DB	047H
	DB	047H
	DB	07H
	DB	07H
	DB	07H
	DB	07H
	DB	062H
	DB	062H
	DB	062H
	DB	062H
	DB	06H
	DB	06H
	DB	06H
	DB	06H
	DB	06H
	DB	06H
	DB	06H
	DB	054H
	DB	03H
	DB	03H
	DB	03H
	DB	03H
	DB	03H
	DB	03H
	DB	079H
	DB	079H
	DB	05H
	DB	05H
	DB	05H
	DB	05H
	DB	02cH
	DB	0aH
	DB	0aH
	DB	0aH
	DB	08dH
	DB	08H
	DB	08H
	DB	08cH
	DB	08cH
	DB	08cH
	DB	08cH
	DB	01H
	DB	01H
	DB	01H
	DB	01H
	DB	01H
	DB	01H
	DB	01H
	DB	01H
	DB	01H
	DB	01aH
	DB	01aH
	DB	01aH
	DB	01aH
	DB	01aH
	DB	01aH
	DB	01aH
	DB	01aH
	DB	01aH
	DB	01aH
	DB	01aH
	DB	01aH
	DB	01aH
	DB	01aH
	DB	01aH
	DB	01aH
	DB	01aH
	DB	01aH
	DB	01aH
	DB	01aH
	DB	01aH
	DB	01aH
	DB	01aH
	DB	01aH
	DB	01aH
	DB	01aH
	DB	01aH
	DB	01aH
	DB	01aH
	DB	01aH
	DB	01aH
	DB	01aH
	DB	01aH
	DB	01aH
	DB	01aH
	DB	01aH
	DB	01aH
	DB	01aH
	DB	01aH
	DB	01aH
	DB	01aH
	DB	01aH
	DB	01aH
	DB	01aH
	DB	01aH
	DB	01aH
	DB	01H
	DB	01H
	DB	01H
	DB	01H
	DB	01H
	DB	01H
	DB	08cH
	DB	08cH
	DB	08H
	DB	08dH
	DB	0aH
	DB	0aH
	DB	02cH
	DB	05H
	DB	05H
	DB	05H
	DB	05H
	DB	05H
	DB	05H
	DB	05H
	DB	05H
	DB	05H
	DB	05H
	DB	05H
	DB	05H
	DB	05H
	DB	05H
	DB	05H
	DB	05H
	DB	05H
	DB	05H
	DB	05H
	DB	05H
	DB	05H
	DB	05H
	DB	05H
	DB	05H
	DB	05H
	DB	05H
	DB	05H
	DB	05H
	DB	05H
	DB	05H
	DB	079H
	DB	079H
	DB	079H
	DB	03H
	DB	03H
	DB	03H
	DB	03H
	DB	03H
	DB	054H
	DB	06H
	DB	06H
	DB	06H
	DB	06H
	DB	06H
	DB	062H
	DB	062H
	DB	07H
	DB	07H
	DB	062H
	DB	01aH
	DB	021H
	DB	024H
	DB	042H
	DB	024H
	DB	061H
	DB	022H
	DB	09H
	DB	0dH
	DB	0bH
	DB	0bH
	DB	0bH
	DB	060H
	DB	060H
	DB	060H
	DB	09H
	DB	09H
	DB	09H
	DB	09H
	DB	09H
	DB	09H
	DB	047H
	DB	047H
	DB	047H
	DB	07H
	DB	07H
	DB	07H
	DB	07H
	DB	07H
	DB	062H
	DB	062H
	DB	062H
	DB	06H
	DB	06H
	DB	06H
	DB	06H
	DB	06H
	DB	06H
	DB	06H
	DB	054H
	DB	054H
	DB	03H
	DB	03H
	DB	03H
	DB	03H
	DB	03H
	DB	079H
	DB	05H
	DB	05H
	DB	05H
	DB	05H
	DB	05H
	DB	02cH
	DB	0aH
	DB	0aH
	DB	0aH
	DB	08H
	DB	08H
	DB	08H
	DB	08cH
	DB	08cH
	DB	08cH
	DB	08cH
	DB	01H
	DB	01H
	DB	01H
	DB	01H
	DB	01H
	DB	01H
	DB	01H
	DB	01H
	DB	01H
	DB	01H
	DB	01H
	DB	01H
	DB	01H
	DB	01H
	DB	01H
	DB	01H
	DB	01H
	DB	01H
	DB	01H
	DB	01H
	DB	01H
	DB	01H
	DB	01H
	DB	01H
	DB	01H
	DB	01H
	DB	01H
	DB	01H
	DB	01H
	DB	01H
	DB	01H
	DB	01H
	DB	01H
	DB	01H
	DB	01H
	DB	01H
	DB	01H
	DB	01H
	DB	01H
	DB	01H
	DB	01H
	DB	01H
	DB	01H
	DB	01H
	DB	01H
	DB	01H
	DB	01H
	DB	01H
	DB	01H
	DB	01H
	DB	01H
	DB	01aH
	DB	01aH
	DB	01aH
	DB	01H
	DB	01H
	DB	01H
	DB	01H
	DB	01H
	DB	01H
	DB	08cH
	DB	08cH
	DB	08cH
	DB	08H
	DB	08dH
	DB	0aH
	DB	0aH
	DB	02cH
	DB	05H
	DB	05H
	DB	05H
	DB	05H
	DB	05H
	DB	05H
	DB	05H
	DB	05H
	DB	05H
	DB	05H
	DB	05H
	DB	05H
	DB	05H
	DB	05H
	DB	05H
	DB	05H
	DB	05H
	DB	05H
	DB	05H
	DB	05H
	DB	05H
	DB	05H
	DB	05H
	DB	05H
	DB	05H
	DB	05H
	DB	05H
	DB	05H
	DB	079H
	DB	079H
	DB	079H
	DB	079H
	DB	03H
	DB	03H
	DB	03H
	DB	03H
	DB	03H
	DB	054H
	DB	06H
	DB	06H
	DB	06H
	DB	06H
	DB	062H
	DB	062H
	DB	062H
	DB	07H
	DB	07H
	DB	062H
	DB	01aH
	DB	021H
	DB	024H
	DB	042H
	DB	024H
	DB	061H
	DB	022H
	DB	09H
	DB	0dH
	DB	0bH
	DB	0bH
	DB	0bH
	DB	0bH
	DB	060H
	DB	060H
	DB	060H
	DB	09H
	DB	09H
	DB	09H
	DB	09H
	DB	09H
	DB	09H
	DB	047H
	DB	047H
	DB	047H
	DB	07H
	DB	07H
	DB	07H
	DB	07H
	DB	07H
	DB	062H
	DB	062H
	DB	062H
	DB	062H
	DB	06H
	DB	06H
	DB	06H
	DB	06H
	DB	06H
	DB	06H
	DB	06H
	DB	06H
	DB	03H
	DB	03H
	DB	03H
	DB	03H
	DB	03H
	DB	079H
	DB	05H
	DB	05H
	DB	05H
	DB	05H
	DB	05H
	DB	0aH
	DB	0aH
	DB	0aH
	DB	08dH
	DB	08H
	DB	08H
	DB	08cH
	DB	08cH
	DB	08cH
	DB	08cH
	DB	01H
	DB	01H
	DB	01H
	DB	01H
	DB	01H
	DB	01H
	DB	01H
	DB	01H
	DB	01H
	DB	01H
	DB	01H
	DB	01H
	DB	01H
	DB	01H
	DB	01H
	DB	01H
	DB	01H
	DB	01H
	DB	01H
	DB	01H
	DB	01H
	DB	01H
	DB	01H
	DB	01H
	DB	01H
	DB	01H
	DB	01H
	DB	01H
	DB	01H
	DB	01H
	DB	01H
	DB	01H
	DB	01H
	DB	01H
	DB	01H
	DB	01H
	DB	01H
	DB	01H
	DB	01H
	DB	01H
	DB	01H
	DB	01H
	DB	01H
	DB	01H
	DB	01H
	DB	01H
	DB	01H
	DB	01H
	DB	01H
	DB	01H
	DB	01H
	DB	01H
	DB	01H
	DB	01H
	DB	01H
	DB	01H
	DB	01H
	DB	01H
	DB	01H
	DB	01H
	DB	01H
	DB	08cH
	DB	08cH
	DB	08H
	DB	08dH
	DB	0aH
	DB	0aH
	DB	02cH
	DB	05H
	DB	05H
	DB	05H
	DB	05H
	DB	05H
	DB	05H
	DB	079H
	DB	05H
	DB	05H
	DB	05H
	DB	05H
	DB	05H
	DB	05H
	DB	05H
	DB	05H
	DB	05H
	DB	05H
	DB	05H
	DB	05H
	DB	05H
	DB	05H
	DB	05H
	DB	05H
	DB	05H
	DB	05H
	DB	05H
	DB	05H
	DB	05H
	DB	079H
	DB	079H
	DB	079H
	DB	079H
	DB	03H
	DB	03H
	DB	03H
	DB	03H
	DB	03H
	DB	06H
	DB	06H
	DB	06H
	DB	06H
	DB	06H
	DB	062H
	DB	062H
	DB	062H
	DB	07H
	DB	07H
	DB	062H
	DB	01aH
	DB	021H
	DB	024H
	DB	042H
	DB	024H
	DB	061H
	DB	022H
	DB	09H
	DB	0dH
	DB	0bH
	DB	0bH
	DB	0bH
	DB	0bH
	DB	0bH
	DB	060H
	DB	060H
	DB	060H
	DB	09H
	DB	09H
	DB	09H
	DB	09H
	DB	09H
	DB	09H
	DB	047H
	DB	047H
	DB	047H
	DB	07H
	DB	07H
	DB	07H
	DB	07H
	DB	07H
	DB	07H
	DB	062H
	DB	062H
	DB	062H
	DB	06H
	DB	06H
	DB	06H
	DB	06H
	DB	06H
	DB	06H
	DB	06H
	DB	054H
	DB	03H
	DB	03H
	DB	03H
	DB	03H
	DB	079H
	DB	05H
	DB	05H
	DB	05H
	DB	05H
	DB	05H
	DB	0aH
	DB	0aH
	DB	0aH
	DB	08dH
	DB	08H
	DB	08H
	DB	08H
	DB	08cH
	DB	08cH
	DB	08cH
	DB	01H
	DB	01H
	DB	01H
	DB	01H
	DB	01H
	DB	01H
	DB	01H
	DB	01H
	DB	01H
	DB	01H
	DB	01H
	DB	01H
	DB	01H
	DB	01H
	DB	01H
	DB	01H
	DB	01H
	DB	01H
	DB	01H
	DB	01H
	DB	01H
	DB	01H
	DB	01H
	DB	01H
	DB	01H
	DB	01H
	DB	01H
	DB	01H
	DB	01H
	DB	01H
	DB	01H
	DB	01H
	DB	01H
	DB	01H
	DB	01H
	DB	01H
	DB	01H
	DB	01H
	DB	01H
	DB	01H
	DB	01H
	DB	01H
	DB	01H
	DB	01H
	DB	01H
	DB	01H
	DB	01H
	DB	01H
	DB	01H
	DB	01H
	DB	01H
	DB	01H
	DB	01H
	DB	01H
	DB	01H
	DB	01H
	DB	01H
	DB	01H
	DB	01H
	DB	01H
	DB	01H
	DB	01H
	DB	08cH
	DB	08cH
	DB	08H
	DB	08dH
	DB	0aH
	DB	0aH
	DB	02cH
	DB	05H
	DB	05H
	DB	05H
	DB	079H
	DB	079H
	DB	079H
	DB	079H
	DB	079H
	DB	079H
	DB	05H
	DB	05H
	DB	05H
	DB	05H
	DB	05H
	DB	05H
	DB	05H
	DB	05H
	DB	05H
	DB	05H
	DB	05H
	DB	05H
	DB	05H
	DB	05H
	DB	05H
	DB	05H
	DB	05H
	DB	079H
	DB	079H
	DB	079H
	DB	079H
	DB	03H
	DB	03H
	DB	03H
	DB	03H
	DB	03H
	DB	03H
	DB	06H
	DB	06H
	DB	06H
	DB	06H
	DB	06H
	DB	062H
	DB	062H
	DB	062H
	DB	07H
	DB	07H
	DB	062H
	DB	01aH
	DB	021H
	DB	024H
	DB	042H
	DB	042H
	DB	061H
	DB	022H
	DB	060H
	DB	0dH
	DB	0bH
	DB	0bH
	DB	0bH
	DB	0bH
	DB	0bH
	DB	0bH
	DB	060H
	DB	060H
	DB	060H
	DB	09H
	DB	09H
	DB	09H
	DB	09H
	DB	09H
	DB	09H
	DB	047H
	DB	047H
	DB	047H
	DB	07H
	DB	07H
	DB	07H
	DB	07H
	DB	07H
	DB	07H
	DB	062H
	DB	062H
	DB	062H
	DB	062H
	DB	06H
	DB	06H
	DB	06H
	DB	06H
	DB	06H
	DB	06H
	DB	054H
	DB	03H
	DB	03H
	DB	03H
	DB	03H
	DB	079H
	DB	05H
	DB	05H
	DB	05H
	DB	05H
	DB	02cH
	DB	0aH
	DB	0aH
	DB	0aH
	DB	08dH
	DB	08H
	DB	08H
	DB	08cH
	DB	08cH
	DB	08cH
	DB	01H
	DB	01H
	DB	01H
	DB	01H
	DB	01H
	DB	01H
	DB	01H
	DB	01H
	DB	01H
	DB	01H
	DB	01H
	DB	01H
	DB	01H
	DB	01H
	DB	01H
	DB	01H
	DB	01H
	DB	01H
	DB	01H
	DB	01H
	DB	01H
	DB	01H
	DB	01H
	DB	01H
	DB	01H
	DB	01H
	DB	01H
	DB	01H
	DB	01H
	DB	01H
	DB	01H
	DB	01H
	DB	01H
	DB	01H
	DB	01H
	DB	01H
	DB	01H
	DB	01H
	DB	01H
	DB	01H
	DB	01H
	DB	01H
	DB	01H
	DB	01H
	DB	01H
	DB	01H
	DB	01H
	DB	01H
	DB	01H
	DB	01H
	DB	01H
	DB	01H
	DB	01H
	DB	01H
	DB	01H
	DB	01H
	DB	01H
	DB	01H
	DB	01H
	DB	01H
	DB	01H
	DB	01H
	DB	01H
	DB	08cH
	DB	08cH
	DB	08H
	DB	08dH
	DB	0aH
	DB	0aH
	DB	05H
	DB	05H
	DB	05H
	DB	079H
	DB	079H
	DB	03H
	DB	03H
	DB	079H
	DB	079H
	DB	079H
	DB	079H
	DB	05H
	DB	05H
	DB	05H
	DB	05H
	DB	05H
	DB	05H
	DB	05H
	DB	05H
	DB	05H
	DB	05H
	DB	05H
	DB	05H
	DB	05H
	DB	05H
	DB	05H
	DB	079H
	DB	079H
	DB	079H
	DB	079H
	DB	03H
	DB	03H
	DB	03H
	DB	03H
	DB	03H
	DB	054H
	DB	06H
	DB	06H
	DB	06H
	DB	06H
	DB	06H
	DB	062H
	DB	062H
	DB	062H
	DB	07H
	DB	07H
	DB	062H
	DB	01aH
	DB	021H
	DB	024H
	DB	042H
	DB	042H
	DB	061H
	DB	022H
	DB	060H
	DB	0dH
	DB	0bH
	DB	0bH
	DB	0bH
	DB	0bH
	DB	0bH
	DB	0bH
	DB	0bH
	DB	060H
	DB	060H
	DB	060H
	DB	060H
	DB	09H
	DB	09H
	DB	09H
	DB	09H
	DB	09H
	DB	047H
	DB	047H
	DB	047H
	DB	047H
	DB	07H
	DB	07H
	DB	07H
	DB	07H
	DB	07H
	DB	07H
	DB	062H
	DB	062H
	DB	062H
	DB	062H
	DB	06H
	DB	06H
	DB	06H
	DB	06H
	DB	06H
	DB	03H
	DB	03H
	DB	03H
	DB	03H
	DB	079H
	DB	079H
	DB	05H
	DB	05H
	DB	05H
	DB	02cH
	DB	0aH
	DB	0aH
	DB	0aH
	DB	08dH
	DB	08H
	DB	08H
	DB	08cH
	DB	08cH
	DB	08cH
	DB	01H
	DB	01H
	DB	01H
	DB	01H
	DB	01H
	DB	01H
	DB	01H
	DB	01H
	DB	01H
	DB	01H
	DB	01H
	DB	01H
	DB	01H
	DB	01H
	DB	01H
	DB	01H
	DB	01H
	DB	01H
	DB	01H
	DB	01H
	DB	01H
	DB	01H
	DB	01H
	DB	01H
	DB	01H
	DB	01H
	DB	01H
	DB	01H
	DB	01H
	DB	01H
	DB	01H
	DB	01H
	DB	01H
	DB	01H
	DB	01H
	DB	01H
	DB	01H
	DB	01H
	DB	01H
	DB	01H
	DB	01H
	DB	01H
	DB	01H
	DB	01H
	DB	01H
	DB	01H
	DB	01H
	DB	01H
	DB	01H
	DB	01H
	DB	01H
	DB	01H
	DB	01H
	DB	01H
	DB	01H
	DB	01H
	DB	01H
	DB	01H
	DB	01H
	DB	01H
	DB	01H
	DB	01H
	DB	01H
	DB	01H
	DB	08cH
	DB	08cH
	DB	08H
	DB	08dH
	DB	0aH
	DB	02cH
	DB	05H
	DB	05H
	DB	079H
	DB	079H
	DB	03H
	DB	03H
	DB	03H
	DB	03H
	DB	079H
	DB	079H
	DB	05H
	DB	05H
	DB	05H
	DB	05H
	DB	05H
	DB	05H
	DB	05H
	DB	05H
	DB	05H
	DB	05H
	DB	05H
	DB	05H
	DB	05H
	DB	05H
	DB	05H
	DB	05H
	DB	079H
	DB	079H
	DB	079H
	DB	03H
	DB	03H
	DB	03H
	DB	03H
	DB	03H
	DB	054H
	DB	06H
	DB	06H
	DB	06H
	DB	06H
	DB	06H
	DB	062H
	DB	062H
	DB	07H
	DB	07H
	DB	07H
	DB	062H
	DB	01aH
	DB	021H
	DB	024H
	DB	042H
	DB	042H
	DB	061H
	DB	022H
	DB	060H
	DB	0dH
	DB	0bH
	DB	0bH
	DB	0bH
	DB	0bH
	DB	0bH
	DB	0bH
	DB	0bH
	DB	0bH
	DB	060H
	DB	060H
	DB	060H
	DB	09H
	DB	09H
	DB	09H
	DB	09H
	DB	09H
	DB	09H
	DB	047H
	DB	047H
	DB	047H
	DB	047H
	DB	07H
	DB	07H
	DB	07H
	DB	07H
	DB	07H
	DB	07H
	DB	062H
	DB	062H
	DB	062H
	DB	062H
	DB	06H
	DB	06H
	DB	06H
	DB	06H
	DB	054H
	DB	03H
	DB	03H
	DB	03H
	DB	079H
	DB	079H
	DB	05H
	DB	05H
	DB	05H
	DB	05H
	DB	0aH
	DB	0aH
	DB	0aH
	DB	08dH
	DB	08H
	DB	08H
	DB	08cH
	DB	08cH
	DB	08cH
	DB	01H
	DB	01H
	DB	01H
	DB	01H
	DB	01H
	DB	01H
	DB	01H
	DB	01H
	DB	01H
	DB	01H
	DB	01H
	DB	01H
	DB	01H
	DB	01H
	DB	01H
	DB	01H
	DB	01H
	DB	01H
	DB	01H
	DB	01H
	DB	01H
	DB	01H
	DB	01H
	DB	01H
	DB	01H
	DB	01H
	DB	01H
	DB	01H
	DB	01H
	DB	01H
	DB	01H
	DB	01H
	DB	01H
	DB	01H
	DB	01H
	DB	01H
	DB	01H
	DB	01H
	DB	01H
	DB	01H
	DB	01H
	DB	01H
	DB	01H
	DB	01H
	DB	01H
	DB	01H
	DB	01H
	DB	01H
	DB	01H
	DB	01H
	DB	01H
	DB	01H
	DB	01H
	DB	01H
	DB	01H
	DB	01H
	DB	01H
	DB	01H
	DB	01H
	DB	01H
	DB	01H
	DB	01H
	DB	01H
	DB	01H
	DB	01H
	DB	08cH
	DB	08cH
	DB	08H
	DB	0aH
	DB	0aH
	DB	02cH
	DB	05H
	DB	05H
	DB	079H
	DB	03H
	DB	03H
	DB	03H
	DB	03H
	DB	03H
	DB	079H
	DB	079H
	DB	079H
	DB	079H
	DB	05H
	DB	05H
	DB	05H
	DB	05H
	DB	05H
	DB	05H
	DB	05H
	DB	05H
	DB	05H
	DB	05H
	DB	05H
	DB	05H
	DB	05H
	DB	079H
	DB	079H
	DB	079H
	DB	03H
	DB	03H
	DB	03H
	DB	03H
	DB	03H
	DB	054H
	DB	06H
	DB	06H
	DB	06H
	DB	06H
	DB	06H
	DB	062H
	DB	062H
	DB	07H
	DB	07H
	DB	07H
	DB	062H
	DB	01aH
	DB	021H
	DB	042H
	DB	042H
	DB	042H
	DB	061H
	DB	022H
	DB	060H
	DB	0dH
	DB	0bfH
	DB	0bfH
	DB	0bH
	DB	0bH
	DB	0bH
	DB	0bH
	DB	0bH
	DB	0bH
	DB	0bH
	DB	060H
	DB	060H
	DB	060H
	DB	09H
	DB	09H
	DB	09H
	DB	09H
	DB	09H
	DB	09H
	DB	09H
	DB	047H
	DB	047H
	DB	047H
	DB	07H
	DB	07H
	DB	07H
	DB	07H
	DB	07H
	DB	07H
	DB	07H
	DB	07H
	DB	062H
	DB	062H
	DB	06H
	DB	06H
	DB	06H
	DB	06H
	DB	03H
	DB	03H
	DB	03H
	DB	03H
	DB	079H
	DB	05H
	DB	05H
	DB	05H
	DB	05H
	DB	0aH
	DB	0aH
	DB	0aH
	DB	08dH
	DB	08dH
	DB	08H
	DB	08cH
	DB	08cH
	DB	08cH
	DB	01H
	DB	01H
	DB	01H
	DB	01H
	DB	01H
	DB	01H
	DB	01H
	DB	01H
	DB	01H
	DB	01H
	DB	01H
	DB	01H
	DB	01H
	DB	01H
	DB	01H
	DB	01H
	DB	01H
	DB	01H
	DB	01H
	DB	01H
	DB	01H
	DB	01H
	DB	01H
	DB	01H
	DB	01H
	DB	01H
	DB	01H
	DB	01H
	DB	01H
	DB	01H
	DB	01H
	DB	01H
	DB	01H
	DB	01H
	DB	01H
	DB	01H
	DB	01H
	DB	01H
	DB	01H
	DB	01H
	DB	01H
	DB	01H
	DB	01H
	DB	01H
	DB	01H
	DB	01H
	DB	01H
	DB	01H
	DB	01H
	DB	01H
	DB	01H
	DB	01H
	DB	01H
	DB	01H
	DB	01H
	DB	01H
	DB	01H
	DB	01H
	DB	01H
	DB	01H
	DB	01H
	DB	01H
	DB	01H
	DB	01H
	DB	01H
	DB	01H
	DB	08cH
	DB	08cH
	DB	08H
	DB	0aH
	DB	0aH
	DB	05H
	DB	05H
	DB	079H
	DB	03H
	DB	03H
	DB	03H
	DB	03H
	DB	03H
	DB	03H
	DB	079H
	DB	079H
	DB	079H
	DB	079H
	DB	05H
	DB	05H
	DB	05H
	DB	05H
	DB	05H
	DB	05H
	DB	05H
	DB	05H
	DB	05H
	DB	05H
	DB	05H
	DB	05H
	DB	05H
	DB	079H
	DB	079H
	DB	03H
	DB	03H
	DB	03H
	DB	03H
	DB	03H
	DB	06H
	DB	06H
	DB	06H
	DB	06H
	DB	06H
	DB	062H
	DB	062H
	DB	062H
	DB	07H
	DB	07H
	DB	07H
	DB	062H
	DB	01aH
	DB	021H
	DB	042H
	DB	042H
	DB	042H
	DB	061H
	DB	022H
	DB	060H
	DB	0c1H
	DB	0bfH
	DB	0bfH
	DB	0bfH
	DB	0bH
	DB	0bH
	DB	0bH
	DB	0bH
	DB	0bH
	DB	0bH
	DB	0bH
	DB	060H
	DB	060H
	DB	060H
	DB	060H
	DB	09H
	DB	09H
	DB	09H
	DB	09H
	DB	09H
	DB	09H
	DB	09H
	DB	047H
	DB	047H
	DB	047H
	DB	047H
	DB	07H
	DB	07H
	DB	07H
	DB	07H
	DB	07H
	DB	062H
	DB	062H
	DB	062H
	DB	06H
	DB	06H
	DB	06H
	DB	03H
	DB	03H
	DB	03H
	DB	03H
	DB	079H
	DB	05H
	DB	05H
	DB	05H
	DB	05H
	DB	0aH
	DB	0aH
	DB	0aH
	DB	08dH
	DB	08H
	DB	08H
	DB	08cH
	DB	08cH
	DB	08cH
	DB	01H
	DB	01H
	DB	01H
	DB	01H
	DB	01H
	DB	01H
	DB	01H
	DB	01H
	DB	01H
	DB	01H
	DB	01H
	DB	01H
	DB	01H
	DB	01H
	DB	01H
	DB	01H
	DB	01H
	DB	01H
	DB	01H
	DB	01H
	DB	01H
	DB	01H
	DB	01H
	DB	01H
	DB	01H
	DB	01H
	DB	01H
	DB	01H
	DB	01H
	DB	01H
	DB	01H
	DB	01H
	DB	01H
	DB	01H
	DB	01H
	DB	01H
	DB	01H
	DB	01H
	DB	01H
	DB	01H
	DB	01H
	DB	01H
	DB	01H
	DB	01H
	DB	01H
	DB	01H
	DB	01H
	DB	01H
	DB	01H
	DB	01H
	DB	01H
	DB	01H
	DB	01H
	DB	01H
	DB	01H
	DB	01H
	DB	01H
	DB	01H
	DB	01H
	DB	01H
	DB	01H
	DB	01H
	DB	01H
	DB	01H
	DB	01H
	DB	01H
	DB	01H
	DB	01H
	DB	08cH
	DB	08H
	DB	0aH
	DB	05H
	DB	05H
	DB	079H
	DB	03H
	DB	03H
	DB	06H
	DB	054H
	DB	03H
	DB	03H
	DB	03H
	DB	079H
	DB	079H
	DB	079H
	DB	05H
	DB	05H
	DB	05H
	DB	05H
	DB	05H
	DB	05H
	DB	05H
	DB	05H
	DB	05H
	DB	05H
	DB	05H
	DB	05H
	DB	079H
	DB	079H
	DB	03H
	DB	03H
	DB	03H
	DB	03H
	DB	03H
	DB	054H
	DB	06H
	DB	06H
	DB	06H
	DB	06H
	DB	06H
	DB	062H
	DB	062H
	DB	07H
	DB	07H
	DB	07H
	DB	07H
	DB	062H
	DB	01aH
	DB	021H
	DB	042H
	DB	042H
	DB	042H
	DB	061H
	DB	022H
	DB	060H
	DB	0c1H
	DB	0bfH
	DB	0bfH
	DB	0bfH
	DB	0bfH
	DB	0bH
	DB	0bH
	DB	0bH
	DB	0bH
	DB	0bH
	DB	0bH
	DB	0bH
	DB	060H
	DB	060H
	DB	060H
	DB	060H
	DB	09H
	DB	09H
	DB	09H
	DB	09H
	DB	09H
	DB	09H
	DB	09H
	DB	047H
	DB	047H
	DB	047H
	DB	047H
	DB	047H
	DB	07H
	DB	07H
	DB	07H
	DB	07H
	DB	062H
	DB	062H
	DB	06H
	DB	06H
	DB	06H
	DB	054H
	DB	03H
	DB	03H
	DB	03H
	DB	079H
	DB	079H
	DB	05H
	DB	05H
	DB	05H
	DB	02cH
	DB	0aH
	DB	0aH
	DB	08dH
	DB	08H
	DB	08H
	DB	08cH
	DB	08cH
	DB	01H
	DB	01H
	DB	01H
	DB	01H
	DB	01H
	DB	01H
	DB	01H
	DB	01H
	DB	01H
	DB	01H
	DB	01H
	DB	01H
	DB	01H
	DB	01H
	DB	01H
	DB	01H
	DB	01H
	DB	01H
	DB	01H
	DB	01H
	DB	01H
	DB	01H
	DB	01H
	DB	01H
	DB	01H
	DB	01H
	DB	01H
	DB	01H
	DB	01H
	DB	01H
	DB	01H
	DB	01H
	DB	01H
	DB	01H
	DB	01H
	DB	01H
	DB	01H
	DB	01H
	DB	01H
	DB	01H
	DB	01H
	DB	01H
	DB	01H
	DB	01H
	DB	01H
	DB	01H
	DB	01H
	DB	01H
	DB	01H
	DB	01H
	DB	01H
	DB	01H
	DB	01H
	DB	01H
	DB	01H
	DB	01H
	DB	01H
	DB	01H
	DB	01H
	DB	01H
	DB	01H
	DB	01H
	DB	01H
	DB	01H
	DB	01H
	DB	01H
	DB	01H
	DB	01H
	DB	01H
	DB	08cH
	DB	08H
	DB	08dH
	DB	0aH
	DB	05H
	DB	05H
	DB	03H
	DB	03H
	DB	06H
	DB	06H
	DB	06H
	DB	03H
	DB	03H
	DB	03H
	DB	03H
	DB	079H
	DB	079H
	DB	05H
	DB	05H
	DB	05H
	DB	05H
	DB	05H
	DB	05H
	DB	05H
	DB	05H
	DB	05H
	DB	05H
	DB	05H
	DB	079H
	DB	079H
	DB	03H
	DB	03H
	DB	03H
	DB	03H
	DB	03H
	DB	054H
	DB	06H
	DB	06H
	DB	06H
	DB	06H
	DB	06H
	DB	062H
	DB	062H
	DB	062H
	DB	07H
	DB	07H
	DB	07H
	DB	062H
	DB	01aH
	DB	021H
	DB	042H
	DB	0c6H
	DB	042H
	DB	061H
	DB	022H
	DB	060H
	DB	0c1H
	DB	0bfH
	DB	0bfH
	DB	0bfH
	DB	0bfH
	DB	0bfH
	DB	0bH
	DB	0bH
	DB	0bH
	DB	0bH
	DB	0bH
	DB	0bH
	DB	0bH
	DB	060H
	DB	060H
	DB	060H
	DB	060H
	DB	09H
	DB	09H
	DB	09H
	DB	09H
	DB	09H
	DB	09H
	DB	09H
	DB	09H
	DB	047H
	DB	047H
	DB	047H
	DB	047H
	DB	07H
	DB	07H
	DB	07H
	DB	07H
	DB	062H
	DB	06H
	DB	06H
	DB	06H
	DB	054H
	DB	03H
	DB	03H
	DB	03H
	DB	03H
	DB	079H
	DB	05H
	DB	05H
	DB	05H
	DB	02cH
	DB	0aH
	DB	0aH
	DB	08dH
	DB	08H
	DB	08H
	DB	08cH
	DB	08cH
	DB	01H
	DB	01H
	DB	01H
	DB	01H
	DB	01H
	DB	01H
	DB	01H
	DB	01H
	DB	01H
	DB	01H
	DB	01H
	DB	01H
	DB	01H
	DB	01H
	DB	01H
	DB	01H
	DB	01H
	DB	01H
	DB	01H
	DB	01H
	DB	01H
	DB	01H
	DB	01H
	DB	01H
	DB	01H
	DB	01H
	DB	01H
	DB	01H
	DB	01H
	DB	01H
	DB	01H
	DB	01H
	DB	01H
	DB	01H
	DB	01H
	DB	01H
	DB	01H
	DB	01H
	DB	01H
	DB	01H
	DB	01H
	DB	01H
	DB	01H
	DB	01H
	DB	01H
	DB	01H
	DB	01H
	DB	01H
	DB	01H
	DB	01H
	DB	01H
	DB	01H
	DB	01H
	DB	01H
	DB	01H
	DB	01H
	DB	01H
	DB	01H
	DB	01H
	DB	01H
	DB	01H
	DB	01H
	DB	01H
	DB	01H
	DB	01H
	DB	01H
	DB	01H
	DB	01H
	DB	01H
	DB	01H
	DB	08cH
	DB	08H
	DB	0aH
	DB	05H
	DB	05H
	DB	03H
	DB	03H
	DB	06H
	DB	06H
	DB	06H
	DB	06H
	DB	06H
	DB	03H
	DB	03H
	DB	03H
	DB	079H
	DB	079H
	DB	05H
	DB	05H
	DB	05H
	DB	05H
	DB	05H
	DB	05H
	DB	05H
	DB	05H
	DB	05H
	DB	05H
	DB	079H
	DB	079H
	DB	03H
	DB	03H
	DB	03H
	DB	03H
	DB	03H
	DB	054H
	DB	06H
	DB	06H
	DB	06H
	DB	06H
	DB	06H
	DB	062H
	DB	062H
	DB	07H
	DB	07H
	DB	07H
	DB	047H
	DB	062H
	DB	01aH
	DB	021H
	DB	042H
	DB	0c6H
	DB	042H
	DB	061H
	DB	05eH
	DB	060H
	DB	0c1H
	DB	0bfH
	DB	0bfH
	DB	0bfH
	DB	0bfH
	DB	0bfH
	DB	0bfH
	DB	0bH
	DB	0bH
	DB	0bH
	DB	0bH
	DB	0bH
	DB	0bH
	DB	0bH
	DB	060H
	DB	060H
	DB	060H
	DB	060H
	DB	060H
	DB	060H
	DB	09H
	DB	09H
	DB	09H
	DB	09H
	DB	09H
	DB	09H
	DB	09H
	DB	09H
	DB	047H
	DB	047H
	DB	07H
	DB	07H
	DB	07H
	DB	062H
	DB	062H
	DB	06H
	DB	06H
	DB	06H
	DB	054H
	DB	03H
	DB	03H
	DB	03H
	DB	079H
	DB	05H
	DB	05H
	DB	05H
	DB	02cH
	DB	0aH
	DB	0aH
	DB	08dH
	DB	08H
	DB	08H
	DB	08cH
	DB	08cH
	DB	01H
	DB	01H
	DB	01H
	DB	01H
	DB	01H
	DB	01H
	DB	01H
	DB	01H
	DB	01H
	DB	01H
	DB	01H
	DB	01H
	DB	01H
	DB	01H
	DB	01H
	DB	01H
	DB	01H
	DB	01H
	DB	01H
	DB	01H
	DB	01H
	DB	01H
	DB	01H
	DB	01H
	DB	01H
	DB	01H
	DB	01H
	DB	01H
	DB	01H
	DB	01H
	DB	01H
	DB	01H
	DB	01H
	DB	01H
	DB	01H
	DB	01H
	DB	01H
	DB	01H
	DB	01H
	DB	01H
	DB	01H
	DB	01H
	DB	01H
	DB	01H
	DB	01H
	DB	01H
	DB	01H
	DB	01H
	DB	01H
	DB	01H
	DB	01H
	DB	01H
	DB	01H
	DB	01H
	DB	01H
	DB	01H
	DB	01H
	DB	01H
	DB	01H
	DB	01H
	DB	01H
	DB	01H
	DB	01H
	DB	01H
	DB	01H
	DB	01H
	DB	01H
	DB	01H
	DB	01H
	DB	08cH
	DB	08cH
	DB	08H
	DB	0aH
	DB	0aH
	DB	05H
	DB	079H
	DB	03H
	DB	06H
	DB	06H
	DB	06H
	DB	06H
	DB	06H
	DB	06H
	DB	03H
	DB	03H
	DB	079H
	DB	079H
	DB	05H
	DB	05H
	DB	05H
	DB	05H
	DB	05H
	DB	05H
	DB	05H
	DB	05H
	DB	05H
	DB	079H
	DB	079H
	DB	079H
	DB	03H
	DB	03H
	DB	03H
	DB	03H
	DB	054H
	DB	06H
	DB	06H
	DB	06H
	DB	06H
	DB	06H
	DB	062H
	DB	062H
	DB	062H
	DB	07H
	DB	07H
	DB	07H
	DB	047H
	DB	062H
	DB	01aH
	DB	021H
	DB	042H
	DB	06cH
	DB	042H
	DB	061H
	DB	05eH
	DB	060H
	DB	0c1H
	DB	0bfH
	DB	0bfH
	DB	0bfH
	DB	0bfH
	DB	0bfH
	DB	0bfH
	DB	0bfH
	DB	0bfH
	DB	0bH
	DB	0bH
	DB	0bH
	DB	0bH
	DB	0bH
	DB	0bH
	DB	0bH
	DB	060H
	DB	060H
	DB	060H
	DB	060H
	DB	060H
	DB	09H
	DB	09H
	DB	09H
	DB	09H
	DB	09H
	DB	09H
	DB	09H
	DB	047H
	DB	047H
	DB	07H
	DB	07H
	DB	07H
	DB	062H
	DB	062H
	DB	06H
	DB	06H
	DB	06H
	DB	054H
	DB	03H
	DB	03H
	DB	03H
	DB	079H
	DB	05H
	DB	05H
	DB	05H
	DB	02cH
	DB	0aH
	DB	0aH
	DB	08dH
	DB	08H
	DB	08cH
	DB	08cH
	DB	08cH
	DB	01H
	DB	01H
	DB	01H
	DB	01H
	DB	01H
	DB	01H
	DB	01H
	DB	01H
	DB	01H
	DB	01H
	DB	01H
	DB	01H
	DB	01H
	DB	01H
	DB	01H
	DB	01H
	DB	01H
	DB	01H
	DB	01H
	DB	01H
	DB	01H
	DB	01H
	DB	01H
	DB	01H
	DB	01H
	DB	01H
	DB	01H
	DB	01H
	DB	01H
	DB	01H
	DB	01H
	DB	01H
	DB	01H
	DB	01H
	DB	01H
	DB	01H
	DB	01H
	DB	01H
	DB	01H
	DB	01H
	DB	01H
	DB	01H
	DB	01H
	DB	01H
	DB	01H
	DB	01H
	DB	01H
	DB	01H
	DB	01H
	DB	01H
	DB	01H
	DB	01H
	DB	01H
	DB	01H
	DB	01H
	DB	01H
	DB	01H
	DB	01H
	DB	01H
	DB	01H
	DB	01H
	DB	01H
	DB	01H
	DB	01H
	DB	01H
	DB	01H
	DB	01H
	DB	01H
	DB	08cH
	DB	08cH
	DB	08H
	DB	08H
	DB	0aH
	DB	0aH
	DB	05H
	DB	05H
	DB	03H
	DB	054H
	DB	06H
	DB	062H
	DB	062H
	DB	06H
	DB	06H
	DB	06H
	DB	03H
	DB	03H
	DB	03H
	DB	079H
	DB	05H
	DB	05H
	DB	05H
	DB	05H
	DB	05H
	DB	05H
	DB	05H
	DB	05H
	DB	079H
	DB	079H
	DB	03H
	DB	03H
	DB	03H
	DB	03H
	DB	03H
	DB	054H
	DB	06H
	DB	06H
	DB	06H
	DB	06H
	DB	06H
	DB	062H
	DB	062H
	DB	062H
	DB	07H
	DB	07H
	DB	07H
	DB	047H
	DB	062H
	DB	01aH
	DB	021H
	DB	042H
	DB	06cH
	DB	042H
	DB	061H
	DB	05eH
	DB	0bH
	DB	0c1H
	DB	0dH
	DB	0dH
	DB	0bfH
	DB	0bfH
	DB	0bfH
	DB	0bfH
	DB	0bfH
	DB	0bfH
	DB	0bfH
	DB	0bH
	DB	0bH
	DB	0bH
	DB	0bH
	DB	0bH
	DB	0bH
	DB	0bH
	DB	0bH
	DB	0bH
	DB	060H
	DB	060H
	DB	060H
	DB	060H
	DB	060H
	DB	09H
	DB	09H
	DB	09H
	DB	09H
	DB	09H
	DB	047H
	DB	047H
	DB	07H
	DB	07H
	DB	07H
	DB	062H
	DB	06H
	DB	06H
	DB	06H
	DB	054H
	DB	03H
	DB	03H
	DB	03H
	DB	079H
	DB	05H
	DB	05H
	DB	05H
	DB	02cH
	DB	0aH
	DB	0aH
	DB	08H
	DB	08H
	DB	08cH
	DB	08cH
	DB	08cH
	DB	01H
	DB	01H
	DB	01H
	DB	01H
	DB	01H
	DB	01H
	DB	01H
	DB	01H
	DB	01H
	DB	01H
	DB	01H
	DB	01H
	DB	01H
	DB	01H
	DB	01H
	DB	01H
	DB	01H
	DB	01H
	DB	01H
	DB	01H
	DB	01H
	DB	01H
	DB	01H
	DB	01H
	DB	01H
	DB	01H
	DB	01H
	DB	01H
	DB	01H
	DB	01H
	DB	01H
	DB	01H
	DB	01H
	DB	01H
	DB	01H
	DB	01H
	DB	01H
	DB	01H
	DB	01H
	DB	01H
	DB	01H
	DB	01H
	DB	01H
	DB	01H
	DB	01H
	DB	01H
	DB	01H
	DB	01H
	DB	01H
	DB	01H
	DB	01H
	DB	01H
	DB	01H
	DB	01H
	DB	01H
	DB	01H
	DB	01H
	DB	01H
	DB	01H
	DB	01H
	DB	01H
	DB	01H
	DB	01H
	DB	01H
	DB	01H
	DB	01H
	DB	08cH
	DB	08cH
	DB	08cH
	DB	08H
	DB	08H
	DB	08dH
	DB	0aH
	DB	02cH
	DB	05H
	DB	05H
	DB	03H
	DB	03H
	DB	06H
	DB	062H
	DB	062H
	DB	07H
	DB	062H
	DB	06H
	DB	06H
	DB	054H
	DB	03H
	DB	03H
	DB	079H
	DB	05H
	DB	05H
	DB	05H
	DB	05H
	DB	05H
	DB	05H
	DB	05H
	DB	079H
	DB	079H
	DB	03H
	DB	03H
	DB	03H
	DB	03H
	DB	03H
	DB	054H
	DB	06H
	DB	06H
	DB	06H
	DB	06H
	DB	06H
	DB	062H
	DB	062H
	DB	07H
	DB	07H
	DB	07H
	DB	07H
	DB	047H
	DB	062H
	DB	01aH
	DB	021H
	DB	042H
	DB	06cH
	DB	042H
	DB	061H
	DB	05eH
	DB	0bH
	DB	0c1H
	DB	0dH
	DB	0dH
	DB	0dH
	DB	0bfH
	DB	0bfH
	DB	0bfH
	DB	0bfH
	DB	0bfH
	DB	0bfH
	DB	0bfH
	DB	0bfH
	DB	0bH
	DB	0bH
	DB	0bH
	DB	0bH
	DB	0bH
	DB	0bH
	DB	0bH
	DB	0bH
	DB	0bH
	DB	0bH
	DB	060H
	DB	060H
	DB	060H
	DB	09H
	DB	09H
	DB	09H
	DB	09H
	DB	047H
	DB	047H
	DB	07H
	DB	07H
	DB	07H
	DB	062H
	DB	06H
	DB	06H
	DB	06H
	DB	06H
	DB	03H
	DB	03H
	DB	03H
	DB	079H
	DB	05H
	DB	05H
	DB	05H
	DB	0aH
	DB	0aH
	DB	0aH
	DB	08H
	DB	08H
	DB	08cH
	DB	08cH
	DB	08cH
	DB	08cH
	DB	08cH
	DB	08cH
	DB	08cH
	DB	08cH
	DB	08cH
	DB	08cH
	DB	08cH
	DB	08cH
	DB	08cH
	DB	08cH
	DB	08cH
	DB	08cH
	DB	08cH
	DB	08cH
	DB	08cH
	DB	08cH
	DB	08cH
	DB	08cH
	DB	08cH
	DB	08cH
	DB	08cH
	DB	08cH
	DB	08cH
	DB	08cH
	DB	08cH
	DB	08cH
	DB	08cH
	DB	08cH
	DB	08cH
	DB	08cH
	DB	08cH
	DB	08cH
	DB	08cH
	DB	08cH
	DB	08cH
	DB	08cH
	DB	08cH
	DB	08cH
	DB	08cH
	DB	08cH
	DB	08cH
	DB	08cH
	DB	08cH
	DB	08cH
	DB	08cH
	DB	08cH
	DB	08cH
	DB	08cH
	DB	08cH
	DB	08cH
	DB	08cH
	DB	08cH
	DB	08cH
	DB	08cH
	DB	08cH
	DB	08cH
	DB	08cH
	DB	08cH
	DB	08cH
	DB	08cH
	DB	08cH
	DB	08cH
	DB	08cH
	DB	08cH
	DB	08cH
	DB	08cH
	DB	08cH
	DB	08H
	DB	08dH
	DB	0aH
	DB	0aH
	DB	0aH
	DB	02cH
	DB	05H
	DB	05H
	DB	03H
	DB	03H
	DB	06H
	DB	06H
	DB	07H
	DB	07H
	DB	07H
	DB	07H
	DB	062H
	DB	06H
	DB	03H
	DB	03H
	DB	03H
	DB	079H
	DB	05H
	DB	05H
	DB	05H
	DB	05H
	DB	05H
	DB	079H
	DB	079H
	DB	03H
	DB	03H
	DB	03H
	DB	03H
	DB	03H
	DB	03H
	DB	054H
	DB	06H
	DB	06H
	DB	06H
	DB	06H
	DB	06H
	DB	062H
	DB	062H
	DB	07H
	DB	07H
	DB	07H
	DB	07H
	DB	047H
	DB	062H
	DB	01aH
	DB	021H
	DB	042H
	DB	06cH
	DB	042H
	DB	061H
	DB	05eH
	DB	0bH
	DB	0c1H
	DB	0dH
	DB	0dH
	DB	0dH
	DB	0dH
	DB	0dH
	DB	0bfH
	DB	0bfH
	DB	0bfH
	DB	0bfH
	DB	0bfH
	DB	0bfH
	DB	0bfH
	DB	0bH
	DB	0bH
	DB	0bH
	DB	0bH
	DB	0bH
	DB	0bH
	DB	0bH
	DB	0bH
	DB	0bH
	DB	0bH
	DB	060H
	DB	060H
	DB	060H
	DB	060H
	DB	09H
	DB	09H
	DB	09H
	DB	047H
	DB	07H
	DB	07H
	DB	07H
	DB	062H
	DB	062H
	DB	06H
	DB	06H
	DB	06H
	DB	03H
	DB	03H
	DB	03H
	DB	079H
	DB	05H
	DB	05H
	DB	05H
	DB	0aH
	DB	0aH
	DB	0aH
	DB	08H
	DB	08H
	DB	08cH
	DB	08cH
	DB	08cH
	DB	08cH
	DB	08cH
	DB	08cH
	DB	08cH
	DB	08cH
	DB	08cH
	DB	08cH
	DB	08cH
	DB	08cH
	DB	08cH
	DB	08cH
	DB	08cH
	DB	08cH
	DB	08cH
	DB	08cH
	DB	08cH
	DB	08cH
	DB	08cH
	DB	08cH
	DB	08cH
	DB	08cH
	DB	08cH
	DB	08cH
	DB	08cH
	DB	08cH
	DB	08cH
	DB	08cH
	DB	08cH
	DB	08cH
	DB	08cH
	DB	08cH
	DB	08cH
	DB	08cH
	DB	08cH
	DB	08cH
	DB	08cH
	DB	08cH
	DB	08cH
	DB	08cH
	DB	08cH
	DB	08cH
	DB	08cH
	DB	08cH
	DB	08cH
	DB	08cH
	DB	08cH
	DB	08cH
	DB	08cH
	DB	08cH
	DB	08cH
	DB	08cH
	DB	08cH
	DB	08cH
	DB	08cH
	DB	08cH
	DB	08cH
	DB	08cH
	DB	08cH
	DB	08cH
	DB	08cH
	DB	08cH
	DB	08cH
	DB	08cH
	DB	08cH
	DB	08cH
	DB	08cH
	DB	08cH
	DB	08H
	DB	08H
	DB	0aH
	DB	0aH
	DB	0aH
	DB	05H
	DB	05H
	DB	05H
	DB	05H
	DB	03H
	DB	03H
	DB	06H
	DB	06H
	DB	062H
	DB	07H
	DB	07H
	DB	07H
	DB	07H
	DB	062H
	DB	06H
	DB	03H
	DB	03H
	DB	03H
	DB	079H
	DB	05H
	DB	05H
	DB	05H
	DB	05H
	DB	079H
	DB	079H
	DB	03H
	DB	03H
	DB	03H
	DB	03H
	DB	03H
	DB	03H
	DB	06H
	DB	06H
	DB	06H
	DB	06H
	DB	06H
	DB	06H
	DB	062H
	DB	062H
	DB	07H
	DB	07H
	DB	07H
	DB	07H
	DB	047H
	DB	062H
	DB	01aH
	DB	021H
	DB	042H
	DB	06cH
	DB	042H
	DB	061H
	DB	05eH
	DB	0bH
	DB	0eH
	DB	0dH
	DB	0dH
	DB	0dH
	DB	0dH
	DB	0dH
	DB	0dH
	DB	0bfH
	DB	0bfH
	DB	0bfH
	DB	0bfH
	DB	0bfH
	DB	0bfH
	DB	0bfH
	DB	0bfH
	DB	0bfH
	DB	0bH
	DB	0bH
	DB	0bH
	DB	0bH
	DB	0bH
	DB	0bH
	DB	0bH
	DB	0bH
	DB	0bH
	DB	060H
	DB	060H
	DB	09H
	DB	09H
	DB	09H
	DB	047H
	DB	07H
	DB	07H
	DB	07H
	DB	062H
	DB	062H
	DB	06H
	DB	06H
	DB	06H
	DB	03H
	DB	03H
	DB	03H
	DB	079H
	DB	05H
	DB	05H
	DB	05H
	DB	0aH
	DB	0aH
	DB	08dH
	DB	08H
	DB	08H
	DB	08cH
	DB	08cH
	DB	08cH
	DB	08cH
	DB	08cH
	DB	08cH
	DB	08cH
	DB	08cH
	DB	08cH
	DB	08cH
	DB	08cH
	DB	08cH
	DB	08cH
	DB	08cH
	DB	08cH
	DB	08cH
	DB	08cH
	DB	08cH
	DB	08cH
	DB	08cH
	DB	08cH
	DB	08cH
	DB	08cH
	DB	08cH
	DB	08cH
	DB	08cH
	DB	08cH
	DB	08cH
	DB	08cH
	DB	08cH
	DB	08cH
	DB	08cH
	DB	08cH
	DB	08cH
	DB	08cH
	DB	08cH
	DB	08cH
	DB	08cH
	DB	08cH
	DB	08cH
	DB	08cH
	DB	08cH
	DB	08cH
	DB	08cH
	DB	08cH
	DB	08cH
	DB	08cH
	DB	08cH
	DB	08cH
	DB	08cH
	DB	08cH
	DB	08cH
	DB	08cH
	DB	08cH
	DB	08cH
	DB	08cH
	DB	08cH
	DB	08cH
	DB	08cH
	DB	08cH
	DB	08cH
	DB	08cH
	DB	08cH
	DB	08cH
	DB	08cH
	DB	08cH
	DB	08cH
	DB	08cH
	DB	08cH
	DB	08H
	DB	0aH
	DB	0aH
	DB	0aH
	DB	02cH
	DB	05H
	DB	05H
	DB	05H
	DB	05H
	DB	079H
	DB	03H
	DB	03H
	DB	06H
	DB	06H
	DB	062H
	DB	07H
	DB	047H
	DB	047H
	DB	07H
	DB	07H
	DB	062H
	DB	06H
	DB	054H
	DB	03H
	DB	03H
	DB	079H
	DB	079H
	DB	05H
	DB	05H
	DB	079H
	DB	079H
	DB	03H
	DB	03H
	DB	03H
	DB	03H
	DB	03H
	DB	054H
	DB	06H
	DB	06H
	DB	06H
	DB	06H
	DB	06H
	DB	062H
	DB	062H
	DB	062H
	DB	07H
	DB	07H
	DB	07H
	DB	07H
	DB	047H
	DB	062H
	DB	01aH
	DB	021H
	DB	042H
	DB	06cH
	DB	042H
	DB	061H
	DB	05eH
	DB	0bH
	DB	0eH
	DB	0dH
	DB	0dH
	DB	0dH
	DB	0dH
	DB	0dH
	DB	0dH
	DB	0dH
	DB	0dH
	DB	0dH
	DB	0bfH
	DB	0bfH
	DB	0bfH
	DB	0bfH
	DB	0bfH
	DB	0bfH
	DB	0bfH
	DB	0bfH
	DB	0bfH
	DB	0bH
	DB	0bH
	DB	0bH
	DB	0bH
	DB	0bH
	DB	0bH
	DB	060H
	DB	060H
	DB	09H
	DB	09H
	DB	09H
	DB	047H
	DB	047H
	DB	07H
	DB	07H
	DB	062H
	DB	062H
	DB	06H
	DB	06H
	DB	06H
	DB	03H
	DB	03H
	DB	03H
	DB	079H
	DB	05H
	DB	05H
	DB	05H
	DB	0aH
	DB	0aH
	DB	08dH
	DB	08H
	DB	08H
	DB	08cH
	DB	08cH
	DB	08cH
	DB	08cH
	DB	08cH
	DB	08cH
	DB	08cH
	DB	08cH
	DB	08cH
	DB	08cH
	DB	08cH
	DB	08cH
	DB	08cH
	DB	08cH
	DB	08cH
	DB	08cH
	DB	08cH
	DB	08cH
	DB	08cH
	DB	08cH
	DB	08cH
	DB	08cH
	DB	08cH
	DB	08cH
	DB	08cH
	DB	08cH
	DB	08cH
	DB	08cH
	DB	08cH
	DB	08cH
	DB	08cH
	DB	08cH
	DB	08cH
	DB	08cH
	DB	08cH
	DB	08cH
	DB	08cH
	DB	08cH
	DB	08cH
	DB	08cH
	DB	08cH
	DB	08cH
	DB	08cH
	DB	08cH
	DB	08cH
	DB	08cH
	DB	08cH
	DB	08cH
	DB	08cH
	DB	08cH
	DB	08cH
	DB	08cH
	DB	08cH
	DB	08cH
	DB	08cH
	DB	08cH
	DB	08cH
	DB	08cH
	DB	08cH
	DB	08cH
	DB	08cH
	DB	08cH
	DB	08cH
	DB	08cH
	DB	08cH
	DB	08cH
	DB	08cH
	DB	08cH
	DB	08H
	DB	0aH
	DB	0aH
	DB	0aH
	DB	02cH
	DB	05H
	DB	05H
	DB	05H
	DB	079H
	DB	079H
	DB	03H
	DB	03H
	DB	03H
	DB	06H
	DB	06H
	DB	062H
	DB	07H
	DB	047H
	DB	09H
	DB	047H
	DB	047H
	DB	07H
	DB	062H
	DB	06H
	DB	06H
	DB	03H
	DB	03H
	DB	03H
	DB	079H
	DB	079H
	DB	079H
	DB	03H
	DB	03H
	DB	03H
	DB	03H
	DB	03H
	DB	03H
	DB	054H
	DB	06H
	DB	06H
	DB	06H
	DB	06H
	DB	06H
	DB	062H
	DB	062H
	DB	062H
	DB	07H
	DB	07H
	DB	07H
	DB	07H
	DB	047H
	DB	062H
	DB	01aH
	DB	039H
	DB	042H
	DB	06cH
	DB	042H
	DB	061H
	DB	05eH
	DB	064H
	DB	0eH
	DB	0dH
	DB	0dH
	DB	0dH
	DB	0dH
	DB	0dH
	DB	0dH
	DB	0dH
	DB	0dH
	DB	0dH
	DB	0dH
	DB	0dH
	DB	0bfH
	DB	0bfH
	DB	0bfH
	DB	0bfH
	DB	0bfH
	DB	0bfH
	DB	0bfH
	DB	0bfH
	DB	0bfH
	DB	0bH
	DB	0bH
	DB	0bH
	DB	0bH
	DB	0bH
	DB	060H
	DB	060H
	DB	09H
	DB	09H
	DB	047H
	DB	047H
	DB	07H
	DB	07H
	DB	062H
	DB	062H
	DB	06H
	DB	06H
	DB	06H
	DB	03H
	DB	03H
	DB	03H
	DB	079H
	DB	05H
	DB	05H
	DB	05H
	DB	0aH
	DB	0aH
	DB	08H
	DB	08H
	DB	08H
	DB	08cH
	DB	08cH
	DB	08cH
	DB	08cH
	DB	08cH
	DB	08cH
	DB	08cH
	DB	08cH
	DB	08cH
	DB	08cH
	DB	08cH
	DB	08cH
	DB	08cH
	DB	08cH
	DB	08cH
	DB	08cH
	DB	08cH
	DB	08cH
	DB	08cH
	DB	08cH
	DB	08cH
	DB	08cH
	DB	08cH
	DB	08cH
	DB	08cH
	DB	08cH
	DB	08cH
	DB	08cH
	DB	08cH
	DB	08cH
	DB	08cH
	DB	08cH
	DB	08cH
	DB	08cH
	DB	08cH
	DB	08cH
	DB	08cH
	DB	08cH
	DB	08cH
	DB	08cH
	DB	08cH
	DB	08cH
	DB	08cH
	DB	08cH
	DB	08cH
	DB	08cH
	DB	08cH
	DB	08cH
	DB	08cH
	DB	08cH
	DB	08cH
	DB	08cH
	DB	08cH
	DB	08cH
	DB	08cH
	DB	08cH
	DB	08cH
	DB	08cH
	DB	08cH
	DB	08cH
	DB	08cH
	DB	08cH
	DB	08cH
	DB	08cH
	DB	08cH
	DB	08cH
	DB	08H
	DB	08H
	DB	08dH
	DB	0aH
	DB	0aH
	DB	02cH
	DB	05H
	DB	05H
	DB	05H
	DB	079H
	DB	03H
	DB	03H
	DB	03H
	DB	054H
	DB	06H
	DB	06H
	DB	06H
	DB	062H
	DB	07H
	DB	047H
	DB	09H
	DB	09H
	DB	09H
	DB	047H
	DB	07H
	DB	062H
	DB	06H
	DB	06H
	DB	03H
	DB	03H
	DB	03H
	DB	03H
	DB	03H
	DB	03H
	DB	03H
	DB	03H
	DB	03H
	DB	03H
	DB	03H
	DB	054H
	DB	06H
	DB	06H
	DB	06H
	DB	06H
	DB	06H
	DB	062H
	DB	062H
	DB	062H
	DB	07H
	DB	07H
	DB	07H
	DB	07H
	DB	047H
	DB	07H
	DB	01aH
	DB	039H
	DB	042H
	DB	06cH
	DB	0c6H
	DB	061H
	DB	05eH
	DB	064H
	DB	0eH
	DB	0c1H
	DB	0c1H
	DB	0c1H
	DB	0dH
	DB	0dH
	DB	0dH
	DB	0dH
	DB	0dH
	DB	0dH
	DB	0dH
	DB	0dH
	DB	0dH
	DB	0dH
	DB	0dH
	DB	0bfH
	DB	0bfH
	DB	0bfH
	DB	0bfH
	DB	0bfH
	DB	0bfH
	DB	0bfH
	DB	0bfH
	DB	0bH
	DB	0bH
	DB	0bH
	DB	060H
	DB	060H
	DB	09H
	DB	09H
	DB	047H
	DB	047H
	DB	07H
	DB	07H
	DB	062H
	DB	062H
	DB	06H
	DB	06H
	DB	06H
	DB	03H
	DB	03H
	DB	03H
	DB	079H
	DB	05H
	DB	05H
	DB	02cH
	DB	0aH
	DB	0aH
	DB	08H
	DB	08H
	DB	08H
	DB	08cH
	DB	08H
	DB	08H
	DB	08H
	DB	08H
	DB	08H
	DB	08H
	DB	08H
	DB	08H
	DB	08H
	DB	08H
	DB	08H
	DB	08H
	DB	08H
	DB	08H
	DB	08H
	DB	08H
	DB	08H
	DB	08H
	DB	08H
	DB	08H
	DB	08H
	DB	08H
	DB	08H
	DB	08H
	DB	08H
	DB	08H
	DB	08H
	DB	08H
	DB	08H
	DB	08H
	DB	08H
	DB	08H
	DB	08H
	DB	08H
	DB	08H
	DB	08H
	DB	08H
	DB	08H
	DB	08H
	DB	08H
	DB	08H
	DB	08H
	DB	08H
	DB	08H
	DB	08H
	DB	08H
	DB	08H
	DB	08H
	DB	08H
	DB	08H
	DB	08H
	DB	08H
	DB	08H
	DB	08H
	DB	08H
	DB	08H
	DB	08H
	DB	08H
	DB	08H
	DB	08H
	DB	08H
	DB	08cH
	DB	08H
	DB	08H
	DB	08H
	DB	08H
	DB	0aH
	DB	0aH
	DB	0aH
	DB	05H
	DB	05H
	DB	05H
	DB	079H
	DB	079H
	DB	03H
	DB	03H
	DB	03H
	DB	054H
	DB	06H
	DB	06H
	DB	062H
	DB	062H
	DB	07H
	DB	07H
	DB	047H
	DB	09H
	DB	09H
	DB	09H
	DB	09H
	DB	047H
	DB	07H
	DB	07H
	DB	062H
	DB	06H
	DB	06H
	DB	054H
	DB	03H
	DB	03H
	DB	03H
	DB	03H
	DB	03H
	DB	03H
	DB	03H
	DB	054H
	DB	06H
	DB	06H
	DB	06H
	DB	06H
	DB	06H
	DB	062H
	DB	062H
	DB	062H
	DB	07H
	DB	07H
	DB	07H
	DB	07H
	DB	07H
	DB	047H
	DB	07H
	DB	01aH
	DB	039H
	DB	0c6H
	DB	06cH
	DB	0c6H
	DB	061H
	DB	05eH
	DB	064H
	DB	0eH
	DB	0c1H
	DB	0c1H
	DB	0c1H
	DB	0c1H
	DB	0c1H
	DB	0dH
	DB	0dH
	DB	0dH
	DB	0dH
	DB	0dH
	DB	0dH
	DB	0dH
	DB	0dH
	DB	0dH
	DB	0dH
	DB	0dH
	DB	0dH
	DB	0dH
	DB	0bfH
	DB	0bfH
	DB	0bfH
	DB	0bfH
	DB	0bfH
	DB	0bH
	DB	0bH
	DB	060H
	DB	060H
	DB	09H
	DB	09H
	DB	09H
	DB	047H
	DB	07H
	DB	07H
	DB	062H
	DB	062H
	DB	06H
	DB	06H
	DB	06H
	DB	03H
	DB	03H
	DB	03H
	DB	079H
	DB	05H
	DB	05H
	DB	02cH
	DB	0aH
	DB	0aH
	DB	08H
	DB	08H
	DB	08H
	DB	08H
	DB	08H
	DB	08H
	DB	08H
	DB	08H
	DB	08H
	DB	08H
	DB	08H
	DB	08H
	DB	08H
	DB	08H
	DB	08H
	DB	08H
	DB	08H
	DB	08H
	DB	08H
	DB	08H
	DB	08H
	DB	08H
	DB	08H
	DB	08H
	DB	08H
	DB	08H
	DB	08H
	DB	08H
	DB	08H
	DB	08H
	DB	08H
	DB	08H
	DB	08H
	DB	08H
	DB	08H
	DB	08H
	DB	08H
	DB	08H
	DB	08H
	DB	08H
	DB	08H
	DB	08H
	DB	08H
	DB	08H
	DB	08H
	DB	08H
	DB	08H
	DB	08H
	DB	08H
	DB	08H
	DB	08H
	DB	08H
	DB	08H
	DB	08H
	DB	08H
	DB	08H
	DB	08H
	DB	08H
	DB	08H
	DB	08H
	DB	08H
	DB	08H
	DB	08H
	DB	08H
	DB	08H
	DB	08H
	DB	08H
	DB	08H
	DB	08H
	DB	08dH
	DB	0aH
	DB	0aH
	DB	05H
	DB	05H
	DB	05H
	DB	079H
	DB	03H
	DB	03H
	DB	03H
	DB	03H
	DB	06H
	DB	06H
	DB	06H
	DB	062H
	DB	062H
	DB	07H
	DB	07H
	DB	047H
	DB	09H
	DB	09H
	DB	060H
	DB	060H
	DB	060H
	DB	09H
	DB	047H
	DB	047H
	DB	07H
	DB	062H
	DB	062H
	DB	06H
	DB	06H
	DB	06H
	DB	03H
	DB	03H
	DB	03H
	DB	03H
	DB	03H
	DB	054H
	DB	06H
	DB	06H
	DB	06H
	DB	06H
	DB	06H
	DB	062H
	DB	062H
	DB	062H
	DB	07H
	DB	07H
	DB	07H
	DB	07H
	DB	047H
	DB	047H
	DB	07H
	DB	01aH
	DB	039H
	DB	0c6H
	DB	06cH
	DB	0c6H
	DB	061H
	DB	05eH
	DB	064H
	DB	0eH
	DB	0c1H
	DB	0c1H
	DB	0c1H
	DB	0c1H
	DB	0c1H
	DB	0c1H
	DB	0c1H
	DB	0dH
	DB	0dH
	DB	0dH
	DB	0dH
	DB	0dH
	DB	0dH
	DB	0dH
	DB	0dH
	DB	0dH
	DB	0dH
	DB	0dH
	DB	0dH
	DB	0bfH
	DB	0bfH
	DB	0bfH
	DB	0bfH
	DB	0bH
	DB	0bH
	DB	0bH
	DB	060H
	DB	09H
	DB	09H
	DB	09H
	DB	047H
	DB	07H
	DB	07H
	DB	062H
	DB	062H
	DB	06H
	DB	06H
	DB	054H
	DB	03H
	DB	03H
	DB	079H
	DB	05H
	DB	05H
	DB	05H
	DB	0aH
	DB	0aH
	DB	08H
	DB	08H
	DB	08H
	DB	08H
	DB	08H
	DB	08H
	DB	08H
	DB	08H
	DB	08H
	DB	08H
	DB	08H
	DB	08H
	DB	08H
	DB	08H
	DB	08H
	DB	08H
	DB	08H
	DB	08H
	DB	08H
	DB	08H
	DB	08H
	DB	08H
	DB	08H
	DB	08H
	DB	08H
	DB	08H
	DB	08H
	DB	08H
	DB	08H
	DB	08H
	DB	08H
	DB	08H
	DB	08H
	DB	08H
	DB	08H
	DB	08H
	DB	08H
	DB	08H
	DB	08H
	DB	08H
	DB	08H
	DB	08H
	DB	08H
	DB	08H
	DB	08H
	DB	08H
	DB	08H
	DB	08H
	DB	08H
	DB	08H
	DB	08H
	DB	08H
	DB	08H
	DB	08H
	DB	08H
	DB	08H
	DB	08H
	DB	08H
	DB	08H
	DB	08H
	DB	08H
	DB	08H
	DB	08H
	DB	08H
	DB	08H
	DB	08H
	DB	08H
	DB	08H
	DB	08dH
	DB	08dH
	DB	0aH
	DB	0aH
	DB	05H
	DB	05H
	DB	05H
	DB	05H
	DB	079H
	DB	03H
	DB	03H
	DB	03H
	DB	06H
	DB	06H
	DB	06H
	DB	062H
	DB	062H
	DB	07H
	DB	07H
	DB	047H
	DB	09H
	DB	09H
	DB	060H
	DB	060H
	DB	0bH
	DB	0bH
	DB	060H
	DB	09H
	DB	09H
	DB	047H
	DB	07H
	DB	07H
	DB	062H
	DB	062H
	DB	06H
	DB	06H
	DB	06H
	DB	06H
	DB	054H
	DB	054H
	DB	06H
	DB	06H
	DB	06H
	DB	06H
	DB	06H
	DB	06H
	DB	062H
	DB	062H
	DB	062H
	DB	07H
	DB	07H
	DB	07H
	DB	07H
	DB	047H
	DB	047H
	DB	07H
	DB	01aH
	DB	039H
	DB	0c6H
	DB	0c5H
	DB	0c6H
	DB	061H
	DB	05eH
	DB	064H
	DB	0eH
	DB	0c1H
	DB	0c1H
	DB	0c1H
	DB	0c1H
	DB	0c1H
	DB	0c1H
	DB	0c1H
	DB	0c1H
	DB	0c1H
	DB	0c1H
	DB	0c1H
	DB	0dH
	DB	0dH
	DB	0dH
	DB	0dH
	DB	0dH
	DB	0dH
	DB	0dH
	DB	0dH
	DB	0dH
	DB	0bfH
	DB	0bfH
	DB	0bfH
	DB	0bH
	DB	0bH
	DB	0bH
	DB	060H
	DB	09H
	DB	09H
	DB	09H
	DB	047H
	DB	07H
	DB	07H
	DB	062H
	DB	062H
	DB	06H
	DB	06H
	DB	054H
	DB	03H
	DB	03H
	DB	079H
	DB	05H
	DB	05H
	DB	02cH
	DB	0aH
	DB	0aH
	DB	08dH
	DB	08H
	DB	08H
	DB	08H
	DB	08H
	DB	08H
	DB	08H
	DB	08H
	DB	08H
	DB	08H
	DB	08H
	DB	08H
	DB	08H
	DB	08H
	DB	08H
	DB	08H
	DB	08H
	DB	08H
	DB	08H
	DB	08H
	DB	08H
	DB	08H
	DB	08H
	DB	08H
	DB	08H
	DB	08H
	DB	08H
	DB	08H
	DB	08H
	DB	08H
	DB	08H
	DB	08H
	DB	08H
	DB	08H
	DB	08H
	DB	08H
	DB	08H
	DB	08H
	DB	08H
	DB	08H
	DB	08H
	DB	08H
	DB	08H
	DB	08H
	DB	08H
	DB	08H
	DB	08H
	DB	08H
	DB	08H
	DB	08H
	DB	08H
	DB	08H
	DB	08H
	DB	08H
	DB	08H
	DB	08H
	DB	08H
	DB	08H
	DB	08H
	DB	08H
	DB	08H
	DB	08H
	DB	08H
	DB	08H
	DB	08H
	DB	08H
	DB	08H
	DB	08dH
	DB	0aH
	DB	0aH
	DB	02cH
	DB	05H
	DB	05H
	DB	05H
	DB	079H
	DB	03H
	DB	03H
	DB	03H
	DB	054H
	DB	06H
	DB	06H
	DB	06H
	DB	062H
	DB	07H
	DB	07H
	DB	047H
	DB	047H
	DB	09H
	DB	09H
	DB	060H
	DB	0bH
	DB	0bH
	DB	0bH
	DB	0bfH
	DB	0bH
	DB	0bH
	DB	0bH
	DB	09H
	DB	09H
	DB	09H
	DB	047H
	DB	07H
	DB	07H
	DB	062H
	DB	06H
	DB	06H
	DB	06H
	DB	06H
	DB	06H
	DB	06H
	DB	06H
	DB	06H
	DB	06H
	DB	062H
	DB	062H
	DB	062H
	DB	07H
	DB	07H
	DB	07H
	DB	07H
	DB	07H
	DB	047H
	DB	047H
	DB	07H
	DB	01aH
	DB	039H
	DB	06cH
	DB	052H
	DB	0c6H
	DB	061H
	DB	05eH
	DB	064H
	DB	071H
	DB	0c1H
	DB	0c1H
	DB	0c1H
	DB	0c1H
	DB	0c1H
	DB	0c1H
	DB	0c1H
	DB	0c1H
	DB	0c1H
	DB	0c1H
	DB	0c1H
	DB	0c1H
	DB	0c1H
	DB	0c1H
	DB	0c1H
	DB	0c1H
	DB	0dH
	DB	0dH
	DB	0dH
	DB	0dH
	DB	0dH
	DB	0bfH
	DB	0bfH
	DB	0bH
	DB	0bH
	DB	0bH
	DB	060H
	DB	09H
	DB	09H
	DB	09H
	DB	047H
	DB	07H
	DB	07H
	DB	062H
	DB	062H
	DB	06H
	DB	06H
	DB	054H
	DB	03H
	DB	03H
	DB	079H
	DB	05H
	DB	05H
	DB	02cH
	DB	0aH
	DB	0aH
	DB	08dH
	DB	08dH
	DB	08dH
	DB	08dH
	DB	08dH
	DB	08dH
	DB	08dH
	DB	08dH
	DB	08dH
	DB	08dH
	DB	08dH
	DB	08dH
	DB	08dH
	DB	08dH
	DB	08dH
	DB	08dH
	DB	08dH
	DB	08dH
	DB	08dH
	DB	08dH
	DB	08dH
	DB	08dH
	DB	08dH
	DB	08dH
	DB	08dH
	DB	08dH
	DB	08dH
	DB	08dH
	DB	08dH
	DB	08dH
	DB	08dH
	DB	08dH
	DB	08dH
	DB	08dH
	DB	08dH
	DB	08dH
	DB	08dH
	DB	08dH
	DB	08dH
	DB	08dH
	DB	08dH
	DB	08dH
	DB	08dH
	DB	08dH
	DB	08dH
	DB	08dH
	DB	08dH
	DB	08dH
	DB	08dH
	DB	08dH
	DB	08dH
	DB	08dH
	DB	08dH
	DB	08dH
	DB	08dH
	DB	08dH
	DB	08dH
	DB	08dH
	DB	08dH
	DB	08dH
	DB	08dH
	DB	08dH
	DB	08dH
	DB	08dH
	DB	08H
	DB	08dH
	DB	08dH
	DB	0aH
	DB	0aH
	DB	02cH
	DB	05H
	DB	05H
	DB	05H
	DB	079H
	DB	03H
	DB	03H
	DB	03H
	DB	06H
	DB	06H
	DB	06H
	DB	062H
	DB	062H
	DB	07H
	DB	07H
	DB	047H
	DB	09H
	DB	09H
	DB	09H
	DB	060H
	DB	0bH
	DB	0bH
	DB	0bH
	DB	0bfH
	DB	0bfH
	DB	0bfH
	DB	0bfH
	DB	0bfH
	DB	0bH
	DB	060H
	DB	060H
	DB	09H
	DB	09H
	DB	047H
	DB	07H
	DB	07H
	DB	062H
	DB	062H
	DB	06H
	DB	06H
	DB	06H
	DB	06H
	DB	06H
	DB	06H
	DB	062H
	DB	062H
	DB	062H
	DB	07H
	DB	07H
	DB	07H
	DB	07H
	DB	07H
	DB	047H
	DB	09H
	DB	07H
	DB	01aH
	DB	039H
	DB	06cH
	DB	052H
	DB	0c6H
	DB	061H
	DB	05eH
	DB	064H
	DB	071H
	DB	0c1H
	DB	0c1H
	DB	0c1H
	DB	0c1H
	DB	0c1H
	DB	0c1H
	DB	0c1H
	DB	0c1H
	DB	0c1H
	DB	0c1H
	DB	0c1H
	DB	0c1H
	DB	0c1H
	DB	0c1H
	DB	0c1H
	DB	0c1H
	DB	0c1H
	DB	0c1H
	DB	0dH
	DB	0dH
	DB	0dH
	DB	0bfH
	DB	0bfH
	DB	0bH
	DB	0bH
	DB	0bH
	DB	060H
	DB	09H
	DB	09H
	DB	09H
	DB	047H
	DB	07H
	DB	07H
	DB	062H
	DB	062H
	DB	06H
	DB	06H
	DB	03H
	DB	03H
	DB	03H
	DB	079H
	DB	05H
	DB	05H
	DB	02cH
	DB	0aH
	DB	0aH
	DB	08dH
	DB	08dH
	DB	08dH
	DB	08dH
	DB	08dH
	DB	08dH
	DB	08dH
	DB	08dH
	DB	08dH
	DB	08dH
	DB	08dH
	DB	08dH
	DB	08dH
	DB	08dH
	DB	08dH
	DB	08dH
	DB	08dH
	DB	08dH
	DB	08dH
	DB	08dH
	DB	08dH
	DB	08dH
	DB	08dH
	DB	08dH
	DB	08dH
	DB	08dH
	DB	08dH
	DB	08dH
	DB	08dH
	DB	08dH
	DB	08dH
	DB	08dH
	DB	08dH
	DB	08dH
	DB	08dH
	DB	08dH
	DB	08dH
	DB	08dH
	DB	08dH
	DB	08dH
	DB	08dH
	DB	08dH
	DB	08dH
	DB	08dH
	DB	08dH
	DB	08dH
	DB	08dH
	DB	08dH
	DB	08dH
	DB	08dH
	DB	08dH
	DB	08dH
	DB	08dH
	DB	08dH
	DB	08dH
	DB	08dH
	DB	08dH
	DB	08dH
	DB	08dH
	DB	08dH
	DB	08dH
	DB	08dH
	DB	08dH
	DB	08dH
	DB	08dH
	DB	0aH
	DB	0aH
	DB	0aH
	DB	02cH
	DB	05H
	DB	05H
	DB	05H
	DB	079H
	DB	03H
	DB	03H
	DB	03H
	DB	06H
	DB	06H
	DB	06H
	DB	062H
	DB	07H
	DB	07H
	DB	07H
	DB	047H
	DB	09H
	DB	09H
	DB	060H
	DB	060H
	DB	0bH
	DB	0bH
	DB	0bfH
	DB	0bfH
	DB	0dH
	DB	0dH
	DB	0dH
	DB	0dH
	DB	0dH
	DB	0bfH
	DB	0bfH
	DB	0bH
	DB	060H
	DB	060H
	DB	09H
	DB	047H
	DB	047H
	DB	07H
	DB	07H
	DB	062H
	DB	062H
	DB	06H
	DB	06H
	DB	06H
	DB	06H
	DB	062H
	DB	062H
	DB	062H
	DB	07H
	DB	07H
	DB	07H
	DB	07H
	DB	07H
	DB	047H
	DB	09H
	DB	07H
	DB	01aH
	DB	039H
	DB	0c6H
	DB	052H
	DB	0c6H
	DB	061H
	DB	05eH
	DB	0dH
	DB	071H
	DB	0eH
	DB	0eH
	DB	0eH
	DB	0eH
	DB	0eH
	DB	0c1H
	DB	0c1H
	DB	0c1H
	DB	0c1H
	DB	0c1H
	DB	0c1H
	DB	0c1H
	DB	0c1H
	DB	0c1H
	DB	0c1H
	DB	0c1H
	DB	0c1H
	DB	0c1H
	DB	0dH
	DB	0dH
	DB	0dH
	DB	0bfH
	DB	0bfH
	DB	0bH
	DB	0bH
	DB	0bH
	DB	060H
	DB	09H
	DB	09H
	DB	09H
	DB	047H
	DB	07H
	DB	07H
	DB	062H
	DB	06H
	DB	06H
	DB	06H
	DB	03H
	DB	03H
	DB	079H
	DB	05H
	DB	05H
	DB	05H
	DB	0aH
	DB	0aH
	DB	0aH
	DB	0aH
	DB	0aH
	DB	0aH
	DB	0aH
	DB	0aH
	DB	0aH
	DB	0aH
	DB	0aH
	DB	0aH
	DB	0aH
	DB	0aH
	DB	0aH
	DB	0aH
	DB	0aH
	DB	0aH
	DB	0aH
	DB	0aH
	DB	0aH
	DB	0aH
	DB	0aH
	DB	0aH
	DB	0aH
	DB	0aH
	DB	0aH
	DB	0aH
	DB	0aH
	DB	0aH
	DB	0aH
	DB	0aH
	DB	0aH
	DB	0aH
	DB	0aH
	DB	0aH
	DB	0aH
	DB	0aH
	DB	0aH
	DB	0aH
	DB	0aH
	DB	0aH
	DB	0aH
	DB	0aH
	DB	0aH
	DB	0aH
	DB	0aH
	DB	0aH
	DB	0aH
	DB	0aH
	DB	0aH
	DB	0aH
	DB	0aH
	DB	0aH
	DB	0aH
	DB	0aH
	DB	0aH
	DB	0aH
	DB	0aH
	DB	0aH
	DB	0aH
	DB	0aH
	DB	0aH
	DB	0aH
	DB	0aH
	DB	0aH
	DB	0aH
	DB	0aH
	DB	0aH
	DB	0aH
	DB	02cH
	DB	05H
	DB	05H
	DB	05H
	DB	03H
	DB	03H
	DB	03H
	DB	054H
	DB	06H
	DB	06H
	DB	062H
	DB	062H
	DB	07H
	DB	07H
	DB	047H
	DB	047H
	DB	09H
	DB	09H
	DB	060H
	DB	0bH
	DB	0bH
	DB	0bfH
	DB	0bfH
	DB	0bfH
	DB	0dH
	DB	0dH
	DB	0dH
	DB	0dH
	DB	0dH
	DB	0dH
	DB	0dH
	DB	0dH
	DB	0bfH
	DB	0bfH
	DB	0bH
	DB	0bH
	DB	060H
	DB	09H
	DB	09H
	DB	047H
	DB	07H
	DB	07H
	DB	07H
	DB	062H
	DB	062H
	DB	062H
	DB	062H
	DB	062H
	DB	062H
	DB	07H
	DB	07H
	DB	07H
	DB	07H
	DB	047H
	DB	047H
	DB	09H
	DB	07H
	DB	01aH
	DB	039H
	DB	0c6H
	DB	052H
	DB	0c6H
	DB	061H
	DB	05eH
	DB	0dH
	DB	071H
	DB	0eH
	DB	0eH
	DB	0eH
	DB	0eH
	DB	0eH
	DB	0eH
	DB	0eH
	DB	0eH
	DB	0eH
	DB	0eH
	DB	0eH
	DB	0eH
	DB	0c1H
	DB	0eH
	DB	0c1H
	DB	0c1H
	DB	0c1H
	DB	0c1H
	DB	0c1H
	DB	0dH
	DB	0dH
	DB	0bfH
	DB	0bfH
	DB	0bH
	DB	0bH
	DB	0bH
	DB	060H
	DB	09H
	DB	09H
	DB	09H
	DB	047H
	DB	07H
	DB	07H
	DB	062H
	DB	06H
	DB	06H
	DB	06H
	DB	03H
	DB	03H
	DB	079H
	DB	05H
	DB	05H
	DB	05H
	DB	0aH
	DB	0aH
	DB	0aH
	DB	0aH
	DB	0aH
	DB	0aH
	DB	0aH
	DB	0aH
	DB	0aH
	DB	0aH
	DB	0aH
	DB	0aH
	DB	0aH
	DB	0aH
	DB	0aH
	DB	0aH
	DB	0aH
	DB	0aH
	DB	0aH
	DB	0aH
	DB	0aH
	DB	0aH
	DB	0aH
	DB	0aH
	DB	0aH
	DB	0aH
	DB	0aH
	DB	0aH
	DB	0aH
	DB	0aH
	DB	0aH
	DB	0aH
	DB	0aH
	DB	0aH
	DB	0aH
	DB	0aH
	DB	0aH
	DB	0aH
	DB	0aH
	DB	0aH
	DB	0aH
	DB	0aH
	DB	0aH
	DB	0aH
	DB	0aH
	DB	0aH
	DB	0aH
	DB	0aH
	DB	0aH
	DB	0aH
	DB	0aH
	DB	0aH
	DB	0aH
	DB	0aH
	DB	0aH
	DB	0aH
	DB	0aH
	DB	0aH
	DB	0aH
	DB	0aH
	DB	0aH
	DB	0aH
	DB	0aH
	DB	0aH
	DB	0aH
	DB	0aH
	DB	0aH
	DB	0aH
	DB	0aH
	DB	02cH
	DB	05H
	DB	05H
	DB	05H
	DB	03H
	DB	03H
	DB	03H
	DB	054H
	DB	06H
	DB	06H
	DB	062H
	DB	062H
	DB	07H
	DB	07H
	DB	047H
	DB	09H
	DB	09H
	DB	09H
	DB	060H
	DB	0bH
	DB	0bH
	DB	0bfH
	DB	0bfH
	DB	0dH
	DB	0dH
	DB	0c1H
	DB	0c1H
	DB	0c1H
	DB	0c1H
	DB	0c1H
	DB	0c1H
	DB	0c1H
	DB	0c1H
	DB	0dH
	DB	0dH
	DB	0bfH
	DB	0bfH
	DB	0bH
	DB	0bH
	DB	060H
	DB	09H
	DB	09H
	DB	047H
	DB	07H
	DB	07H
	DB	07H
	DB	07H
	DB	062H
	DB	062H
	DB	07H
	DB	07H
	DB	07H
	DB	07H
	DB	07H
	DB	047H
	DB	047H
	DB	09H
	DB	07H
	DB	01aH
	DB	039H
	DB	052H
	DB	052H
	DB	052H
	DB	070H
	DB	05eH
	DB	0dH
	DB	082H
	DB	0eH
	DB	0eH
	DB	0eH
	DB	0eH
	DB	0eH
	DB	0eH
	DB	0eH
	DB	0eH
	DB	0eH
	DB	0eH
	DB	0eH
	DB	0eH
	DB	0eH
	DB	0eH
	DB	0eH
	DB	0eH
	DB	0c1H
	DB	0c1H
	DB	0c1H
	DB	0dH
	DB	0dH
	DB	0bfH
	DB	0bfH
	DB	0bH
	DB	0bH
	DB	0bH
	DB	060H
	DB	09H
	DB	09H
	DB	047H
	DB	047H
	DB	06H
	DB	01H
	DB	02H
	DB	02H
	DB	02H
	DB	02H
	DB	02H
	DB	02H
	DB	02H
	DB	02H
	DB	02H
	DB	02H
	DB	02H
	DB	02H
	DB	019H
	DB	019H
	DB	026H
	DB	0aH
	DB	0aH
	DB	0aH
	DB	0aH
	DB	0aH
	DB	0aH
	DB	0aH
	DB	0aH
	DB	0aH
	DB	0aH
	DB	0aH
	DB	0aH
	DB	0aH
	DB	0aH
	DB	0aH
	DB	0aH
	DB	0aH
	DB	0aH
	DB	0aH
	DB	0aH
	DB	0aH
	DB	0aH
	DB	0aH
	DB	0aH
	DB	0aH
	DB	0aH
	DB	0aH
	DB	0aH
	DB	0aH
	DB	0aH
	DB	0aH
	DB	0aH
	DB	0aH
	DB	0aH
	DB	0aH
	DB	0aH
	DB	0aH
	DB	0aH
	DB	0aH
	DB	0aH
	DB	0aH
	DB	0aH
	DB	0aH
	DB	0aH
	DB	0aH
	DB	0aH
	DB	0aH
	DB	0aH
	DB	0aH
	DB	0aH
	DB	0aH
	DB	0aH
	DB	0aH
	DB	0aH
	DB	0aH
	DB	0aH
	DB	0aH
	DB	0aH
	DB	0aH
	DB	0aH
	DB	0aH
	DB	0aH
	DB	0aH
	DB	02cH
	DB	05H
	DB	05H
	DB	05H
	DB	079H
	DB	03H
	DB	03H
	DB	054H
	DB	06H
	DB	06H
	DB	062H
	DB	062H
	DB	07H
	DB	07H
	DB	047H
	DB	09H
	DB	09H
	DB	060H
	DB	060H
	DB	0bH
	DB	0bH
	DB	0bfH
	DB	0bfH
	DB	0dH
	DB	0c1H
	DB	0c1H
	DB	0c1H
	DB	0c1H
	DB	0c1H
	DB	0c1H
	DB	0c1H
	DB	0c1H
	DB	0c1H
	DB	0c1H
	DB	0c1H
	DB	0c1H
	DB	0c1H
	DB	0dH
	DB	0bfH
	DB	0bfH
	DB	0bH
	DB	0bH
	DB	060H
	DB	09H
	DB	09H
	DB	047H
	DB	047H
	DB	07H
	DB	07H
	DB	07H
	DB	07H
	DB	07H
	DB	07H
	DB	07H
	DB	07H
	DB	047H
	DB	047H
	DB	09H
	DB	07H
	DB	01aH
	DB	039H
	DB	052H
	DB	052H
	DB	052H
	DB	070H
	DB	05eH
	DB	0dH
	DB	082H
	DB	0eH
	DB	0eH
	DB	0eH
	DB	0eH
	DB	0eH
	DB	0eH
	DB	0eH
	DB	0eH
	DB	0eH
	DB	0eH
	DB	0eH
	DB	0eH
	DB	0eH
	DB	0eH
	DB	0eH
	DB	0eH
	DB	0eH
	DB	0c1H
	DB	0c1H
	DB	0dH
	DB	0dH
	DB	0bfH
	DB	0bfH
	DB	0bH
	DB	0bH
	DB	0bH
	DB	060H
	DB	09H
	DB	09H
	DB	047H
	DB	047H
	DB	053H
	DB	02dH
	DB	036H
	DB	03aH
	DB	03aH
	DB	03aH
	DB	03aH
	DB	03aH
	DB	03aH
	DB	03aH
	DB	03aH
	DB	03aH
	DB	03aH
	DB	04cH
	DB	04aH
	DB	044H
	DB	027H
	DB	02H
	DB	0a8H
	DB	0aH
	DB	0aH
	DB	0aH
	DB	0aH
	DB	0aH
	DB	0aH
	DB	0aH
	DB	0aH
	DB	0aH
	DB	0aH
	DB	0aH
	DB	0aH
	DB	0aH
	DB	0aH
	DB	0aH
	DB	0aH
	DB	0aH
	DB	0aH
	DB	0aH
	DB	0aH
	DB	0aH
	DB	0aH
	DB	0aH
	DB	0aH
	DB	0aH
	DB	0aH
	DB	0aH
	DB	0aH
	DB	0aH
	DB	0aH
	DB	0aH
	DB	0aH
	DB	0aH
	DB	0aH
	DB	0aH
	DB	0aH
	DB	0aH
	DB	0aH
	DB	0aH
	DB	0aH
	DB	0aH
	DB	0aH
	DB	0aH
	DB	0aH
	DB	0aH
	DB	0aH
	DB	0aH
	DB	0aH
	DB	0aH
	DB	0aH
	DB	0aH
	DB	0aH
	DB	0aH
	DB	0aH
	DB	0aH
	DB	0aH
	DB	0aH
	DB	0aH
	DB	0aH
	DB	0aH
	DB	05H
	DB	05H
	DB	05H
	DB	079H
	DB	03H
	DB	03H
	DB	03H
	DB	06H
	DB	06H
	DB	06H
	DB	062H
	DB	07H
	DB	07H
	DB	047H
	DB	047H
	DB	09H
	DB	09H
	DB	060H
	DB	0bH
	DB	0bH
	DB	0bfH
	DB	0bfH
	DB	0dH
	DB	0dH
	DB	0c1H
	DB	0eH
	DB	0eH
	DB	0eH
	DB	0eH
	DB	0eH
	DB	0eH
	DB	0eH
	DB	0eH
	DB	0eH
	DB	0eH
	DB	0eH
	DB	0eH
	DB	0eH
	DB	0c1H
	DB	0c1H
	DB	0dH
	DB	0dH
	DB	0bfH
	DB	0bH
	DB	0bH
	DB	060H
	DB	09H
	DB	09H
	DB	047H
	DB	047H
	DB	047H
	DB	07H
	DB	07H
	DB	07H
	DB	07H
	DB	047H
	DB	047H
	DB	047H
	DB	09H
	DB	07H
	DB	01aH
	DB	039H
	DB	052H
	DB	052H
	DB	052H
	DB	070H
	DB	05eH
	DB	0dH
	DB	082H
	DB	0eH
	DB	0eH
	DB	0eH
	DB	0eH
	DB	0eH
	DB	0eH
	DB	0eH
	DB	0eH
	DB	0eH
	DB	0eH
	DB	0eH
	DB	0eH
	DB	0eH
	DB	0eH
	DB	0eH
	DB	0eH
	DB	0eH
	DB	0c1H
	DB	0c1H
	DB	0dH
	DB	0dH
	DB	0bfH
	DB	0bfH
	DB	0bH
	DB	0bH
	DB	0bH
	DB	060H
	DB	09H
	DB	09H
	DB	047H
	DB	063H
	DB	026H
	DB	031H
	DB	04H
	DB	04H
	DB	04H
	DB	04H
	DB	04H
	DB	04H
	DB	04H
	DB	04H
	DB	04H
	DB	04H
	DB	04H
	DB	04H
	DB	04H
	DB	04H
	DB	049H
	DB	04bH
	DB	027H
	DB	019H
	DB	0aH
	DB	0aH
	DB	0aH
	DB	0aH
	DB	0aH
	DB	0aH
	DB	0aH
	DB	0aH
	DB	0aH
	DB	0aH
	DB	0aH
	DB	0aH
	DB	0aH
	DB	0aH
	DB	0aH
	DB	0aH
	DB	0aH
	DB	0aH
	DB	0aH
	DB	0aH
	DB	0aH
	DB	0aH
	DB	0aH
	DB	0aH
	DB	0aH
	DB	0aH
	DB	0aH
	DB	0aH
	DB	0aH
	DB	0aH
	DB	0aH
	DB	0aH
	DB	0aH
	DB	0aH
	DB	0aH
	DB	0aH
	DB	0aH
	DB	0aH
	DB	0aH
	DB	0aH
	DB	0aH
	DB	0aH
	DB	0aH
	DB	0aH
	DB	0aH
	DB	0aH
	DB	0aH
	DB	0aH
	DB	0aH
	DB	0aH
	DB	0aH
	DB	0aH
	DB	0aH
	DB	0aH
	DB	0aH
	DB	0aH
	DB	0aH
	DB	0aH
	DB	05H
	DB	05H
	DB	05H
	DB	079H
	DB	03H
	DB	03H
	DB	03H
	DB	06H
	DB	06H
	DB	06H
	DB	062H
	DB	07H
	DB	07H
	DB	047H
	DB	09H
	DB	09H
	DB	09H
	DB	060H
	DB	0bH
	DB	0bH
	DB	0bfH
	DB	0dH
	DB	0dH
	DB	0c1H
	DB	0c1H
	DB	0eH
	DB	0eH
	DB	0eH
	DB	0eH
	DB	0eH
	DB	0eH
	DB	0eH
	DB	0eH
	DB	0eH
	DB	0eH
	DB	0eH
	DB	0eH
	DB	0eH
	DB	0eH
	DB	0eH
	DB	0eH
	DB	0c1H
	DB	0c1H
	DB	0dH
	DB	0bfH
	DB	0bfH
	DB	0bH
	DB	0bH
	DB	060H
	DB	09H
	DB	09H
	DB	09H
	DB	047H
	DB	047H
	DB	047H
	DB	07H
	DB	047H
	DB	047H
	DB	047H
	DB	09H
	DB	07H
	DB	01aH
	DB	039H
	DB	052H
	DB	052H
	DB	052H
	DB	070H
	DB	05eH
	DB	0dH
	DB	082H
	DB	0eH
	DB	0eH
	DB	0eH
	DB	0eH
	DB	071H
	DB	071H
	DB	071H
	DB	071H
	DB	071H
	DB	071H
	DB	071H
	DB	071H
	DB	071H
	DB	0eH
	DB	0eH
	DB	0eH
	DB	0eH
	DB	0c1H
	DB	0c1H
	DB	0dH
	DB	0dH
	DB	0bfH
	DB	0bfH
	DB	0bH
	DB	0bH
	DB	0bH
	DB	060H
	DB	09H
	DB	09H
	DB	047H
	DB	047H
	DB	026H
	DB	031H
	DB	04H
	DB	04H
	DB	04H
	DB	04H
	DB	04H
	DB	04H
	DB	04H
	DB	04H
	DB	04H
	DB	04H
	DB	04H
	DB	04H
	DB	04H
	DB	04H
	DB	04H
	DB	04H
	DB	036H
	DB	029H
	DB	019H
	DB	0aH
	DB	0aH
	DB	0aH
	DB	0aH
	DB	0aH
	DB	0aH
	DB	0aH
	DB	0aH
	DB	0aH
	DB	0aH
	DB	0aH
	DB	0aH
	DB	0aH
	DB	0aH
	DB	0aH
	DB	0aH
	DB	0aH
	DB	0aH
	DB	0aH
	DB	0aH
	DB	0aH
	DB	0aH
	DB	0aH
	DB	0aH
	DB	0aH
	DB	0aH
	DB	0aH
	DB	0aH
	DB	0aH
	DB	0aH
	DB	0aH
	DB	0aH
	DB	0aH
	DB	0aH
	DB	0aH
	DB	0aH
	DB	0aH
	DB	0aH
	DB	0aH
	DB	0aH
	DB	0aH
	DB	0aH
	DB	0aH
	DB	0aH
	DB	0aH
	DB	0aH
	DB	0aH
	DB	0aH
	DB	0aH
	DB	0aH
	DB	0aH
	DB	0aH
	DB	0aH
	DB	0aH
	DB	0aH
	DB	0aH
	DB	05H
	DB	05H
	DB	05H
	DB	079H
	DB	03H
	DB	03H
	DB	03H
	DB	06H
	DB	06H
	DB	06H
	DB	062H
	DB	07H
	DB	07H
	DB	047H
	DB	09H
	DB	09H
	DB	060H
	DB	0bH
	DB	0bH
	DB	0bH
	DB	0bfH
	DB	0dH
	DB	0dH
	DB	0c1H
	DB	0eH
	DB	0eH
	DB	0eH
	DB	071H
	DB	071H
	DB	071H
	DB	071H
	DB	071H
	DB	071H
	DB	071H
	DB	071H
	DB	071H
	DB	071H
	DB	071H
	DB	071H
	DB	071H
	DB	071H
	DB	0eH
	DB	0eH
	DB	0eH
	DB	0c1H
	DB	0c1H
	DB	0dH
	DB	0bfH
	DB	0bfH
	DB	0bH
	DB	0bH
	DB	060H
	DB	060H
	DB	09H
	DB	09H
	DB	047H
	DB	047H
	DB	047H
	DB	047H
	DB	047H
	DB	09H
	DB	07H
	DB	01aH
	DB	039H
	DB	052H
	DB	052H
	DB	052H
	DB	070H
	DB	05eH
	DB	064H
	DB	071H
	DB	0eH
	DB	0eH
	DB	071H
	DB	071H
	DB	071H
	DB	071H
	DB	071H
	DB	071H
	DB	071H
	DB	071H
	DB	071H
	DB	071H
	DB	071H
	DB	071H
	DB	0eH
	DB	0eH
	DB	0eH
	DB	0c1H
	DB	0c1H
	DB	0dH
	DB	0dH
	DB	0bfH
	DB	0bfH
	DB	0bH
	DB	0bH
	DB	0bH
	DB	060H
	DB	09H
	DB	09H
	DB	047H
	DB	07H
	DB	026H
	DB	031H
	DB	04H
	DB	04H
	DB	04H
	DB	04H
	DB	04H
	DB	04H
	DB	04H
	DB	04H
	DB	04H
	DB	04H
	DB	04H
	DB	04H
	DB	04H
	DB	04H
	DB	04H
	DB	04H
	DB	04H
	DB	03dH
	DB	02aH
	DB	0a8H
	DB	02cH
	DB	0aH
	DB	0aH
	DB	0aH
	DB	0aH
	DB	0aH
	DB	0aH
	DB	0aH
	DB	0aH
	DB	0aH
	DB	0aH
	DB	0aH
	DB	0aH
	DB	0aH
	DB	0aH
	DB	0aH
	DB	0aH
	DB	0aH
	DB	0aH
	DB	0aH
	DB	0aH
	DB	0aH
	DB	0aH
	DB	0aH
	DB	0aH
	DB	0aH
	DB	0aH
	DB	0aH
	DB	0aH
	DB	0aH
	DB	0aH
	DB	0aH
	DB	0aH
	DB	0aH
	DB	0aH
	DB	0aH
	DB	0aH
	DB	0aH
	DB	0aH
	DB	0aH
	DB	0aH
	DB	0aH
	DB	0aH
	DB	0aH
	DB	0aH
	DB	0aH
	DB	0aH
	DB	0aH
	DB	0aH
	DB	0aH
	DB	0aH
	DB	0aH
	DB	0aH
	DB	02cH
	DB	05H
	DB	05H
	DB	05H
	DB	079H
	DB	03H
	DB	03H
	DB	054H
	DB	06H
	DB	06H
	DB	062H
	DB	07H
	DB	07H
	DB	07H
	DB	047H
	DB	09H
	DB	09H
	DB	060H
	DB	0bH
	DB	0bH
	DB	0bfH
	DB	0bfH
	DB	0dH
	DB	0c1H
	DB	0c1H
	DB	0eH
	DB	071H
	DB	071H
	DB	071H
	DB	071H
	DB	071H
	DB	071H
	DB	071H
	DB	071H
	DB	071H
	DB	071H
	DB	071H
	DB	071H
	DB	071H
	DB	071H
	DB	071H
	DB	071H
	DB	071H
	DB	071H
	DB	071H
	DB	071H
	DB	0eH
	DB	0eH
	DB	0eH
	DB	0c1H
	DB	0dH
	DB	0dH
	DB	0bfH
	DB	0bH
	DB	0bH
	DB	060H
	DB	09H
	DB	09H
	DB	09H
	DB	09H
	DB	09H
	DB	09H
	DB	09H
	DB	07H
	DB	01aH
	DB	039H
	DB	052H
	DB	052H
	DB	052H
	DB	070H
	DB	05eH
	DB	064H
	DB	071H
	DB	0eH
	DB	0eH
	DB	0eH
	DB	071H
	DB	071H
	DB	071H
	DB	071H
	DB	071H
	DB	071H
	DB	071H
	DB	071H
	DB	071H
	DB	071H
	DB	071H
	DB	0eH
	DB	0eH
	DB	0eH
	DB	0c1H
	DB	0c1H
	DB	0dH
	DB	0dH
	DB	0bfH
	DB	0bfH
	DB	0bH
	DB	0bH
	DB	060H
	DB	060H
	DB	09H
	DB	09H
	DB	047H
	DB	07H
	DB	026H
	DB	031H
	DB	04H
	DB	04H
	DB	04H
	DB	04H
	DB	04H
	DB	04H
	DB	04cH
	DB	030H
	DB	031H
	DB	04dH
	DB	049H
	DB	04H
	DB	04H
	DB	04H
	DB	04H
	DB	04H
	DB	04H
	DB	04H
	DB	041H
	DB	02H
	DB	0aH
	DB	02cH
	DB	02cH
	DB	02cH
	DB	02cH
	DB	02cH
	DB	02cH
	DB	02cH
	DB	02cH
	DB	02cH
	DB	02cH
	DB	02cH
	DB	02cH
	DB	02cH
	DB	02cH
	DB	02cH
	DB	02cH
	DB	02cH
	DB	02cH
	DB	02cH
	DB	02cH
	DB	02cH
	DB	02cH
	DB	02cH
	DB	02cH
	DB	02cH
	DB	02cH
	DB	02cH
	DB	02cH
	DB	05H
	DB	05H
	DB	02cH
	DB	02cH
	DB	02cH
	DB	02cH
	DB	02cH
	DB	02cH
	DB	02cH
	DB	02cH
	DB	02cH
	DB	02cH
	DB	02cH
	DB	02cH
	DB	02cH
	DB	02cH
	DB	02cH
	DB	02cH
	DB	02cH
	DB	02cH
	DB	02cH
	DB	02cH
	DB	02cH
	DB	02cH
	DB	05H
	DB	05H
	DB	05H
	DB	079H
	DB	03H
	DB	03H
	DB	054H
	DB	06H
	DB	06H
	DB	062H
	DB	07H
	DB	07H
	DB	047H
	DB	047H
	DB	09H
	DB	09H
	DB	0bH
	DB	0bH
	DB	0bfH
	DB	0bfH
	DB	0dH
	DB	0dH
	DB	0c1H
	DB	0eH
	DB	0eH
	DB	071H
	DB	082H
	DB	082H
	DB	014H
	DB	014H
	DB	014H
	DB	014H
	DB	014H
	DB	014H
	DB	014H
	DB	082H
	DB	082H
	DB	014H
	DB	014H
	DB	014H
	DB	014H
	DB	014H
	DB	014H
	DB	014H
	DB	014H
	DB	082H
	DB	071H
	DB	071H
	DB	071H
	DB	0eH
	DB	0eH
	DB	0c1H
	DB	0dH
	DB	0dH
	DB	0bfH
	DB	0bH
	DB	0bH
	DB	060H
	DB	060H
	DB	09H
	DB	09H
	DB	09H
	DB	09H
	DB	07H
	DB	01aH
	DB	039H
	DB	052H
	DB	01eH
	DB	052H
	DB	06eH
	DB	022H
	DB	064H
	DB	071H
	DB	0c1H
	DB	0eH
	DB	0eH
	DB	071H
	DB	071H
	DB	071H
	DB	071H
	DB	071H
	DB	071H
	DB	082H
	DB	071H
	DB	071H
	DB	071H
	DB	071H
	DB	0eH
	DB	0eH
	DB	0eH
	DB	0c1H
	DB	0c1H
	DB	0dH
	DB	0dH
	DB	0bfH
	DB	0bfH
	DB	0bH
	DB	0bH
	DB	060H
	DB	060H
	DB	09H
	DB	047H
	DB	047H
	DB	07H
	DB	026H
	DB	031H
	DB	04H
	DB	04H
	DB	04H
	DB	04H
	DB	04H
	DB	04H
	DB	030H
	DB	00H
	DB	02H
	DB	00H
	DB	027H
	DB	04dH
	DB	04H
	DB	04H
	DB	04H
	DB	04H
	DB	04H
	DB	04H
	DB	032H
	DB	027H
	DB	08H
	DB	05H
	DB	02cH
	DB	05H
	DB	05H
	DB	05H
	DB	05H
	DB	05H
	DB	05H
	DB	05H
	DB	02cH
	DB	02cH
	DB	05H
	DB	05H
	DB	0aH
	DB	053H
	DB	0aH
	DB	05H
	DB	02cH
	DB	02cH
	DB	02cH
	DB	02cH
	DB	02cH
	DB	02cH
	DB	05H
	DB	05H
	DB	05H
	DB	0aH
	DB	053H
	DB	026H
	DB	026H
	DB	053H
	DB	0aH
	DB	05H
	DB	05H
	DB	05H
	DB	02cH
	DB	02cH
	DB	02cH
	DB	02cH
	DB	02cH
	DB	02cH
	DB	02cH
	DB	02cH
	DB	02cH
	DB	02cH
	DB	02cH
	DB	05H
	DB	05H
	DB	05H
	DB	02cH
	DB	02cH
	DB	02cH
	DB	05H
	DB	079H
	DB	03H
	DB	03H
	DB	03H
	DB	054H
	DB	06H
	DB	06H
	DB	062H
	DB	07H
	DB	07H
	DB	047H
	DB	09H
	DB	060H
	DB	0bH
	DB	0bH
	DB	0bH
	DB	0bH
	DB	0bfH
	DB	0c1H
	DB	0eH
	DB	0eH
	DB	0eH
	DB	071H
	DB	071H
	DB	014H
	DB	014H
	DB	014H
	DB	014H
	DB	014H
	DB	014H
	DB	014H
	DB	014H
	DB	014H
	DB	014H
	DB	014H
	DB	014H
	DB	014H
	DB	014H
	DB	014H
	DB	014H
	DB	014H
	DB	014H
	DB	014H
	DB	014H
	DB	014H
	DB	014H
	DB	014H
	DB	082H
	DB	071H
	DB	071H
	DB	0eH
	DB	0c1H
	DB	0dH
	DB	0dH
	DB	0bfH
	DB	0bfH
	DB	0bH
	DB	0bH
	DB	060H
	DB	060H
	DB	09H
	DB	060H
	DB	047H
	DB	01aH
	DB	039H
	DB	052H
	DB	01eH
	DB	052H
	DB	06eH
	DB	022H
	DB	0bH
	DB	0eH
	DB	0c1H
	DB	0c1H
	DB	0eH
	DB	0eH
	DB	0eH
	DB	071H
	DB	071H
	DB	082H
	DB	014H
	DB	014H
	DB	082H
	DB	082H
	DB	071H
	DB	071H
	DB	0eH
	DB	0eH
	DB	0eH
	DB	0c1H
	DB	0c1H
	DB	0dH
	DB	0dH
	DB	0bfH
	DB	0bfH
	DB	0bH
	DB	0bH
	DB	060H
	DB	09H
	DB	09H
	DB	047H
	DB	07H
	DB	07H
	DB	026H
	DB	031H
	DB	04H
	DB	04H
	DB	04H
	DB	04H
	DB	04H
	DB	04H
	DB	030H
	DB	02H
	DB	01H
	DB	01H
	DB	019H
	DB	00H
	DB	036H
	DB	04H
	DB	04H
	DB	04H
	DB	04H
	DB	04H
	DB	04H
	DB	02dH
	DB	019H
	DB	05H
	DB	0aH
	DB	038H
	DB	019H
	DB	019H
	DB	019H
	DB	019H
	DB	019H
	DB	019H
	DB	0aH
	DB	05H
	DB	08cH
	DB	019H
	DB	02H
	DB	027H
	DB	02H
	DB	08H
	DB	05H
	DB	05H
	DB	05H
	DB	05H
	DB	05H
	DB	05H
	DB	0aH
	DB	038H
	DB	019H
	DB	02H
	DB	027H
	DB	02aH
	DB	02aH
	DB	02aH
	DB	02H
	DB	02H
	DB	019H
	DB	053H
	DB	05H
	DB	05H
	DB	05H
	DB	05H
	DB	05H
	DB	05H
	DB	05H
	DB	05H
	DB	05H
	DB	05H
	DB	02cH
	DB	053H
	DB	019H
	DB	019H
	DB	02H
	DB	02H
	DB	02H
	DB	02H
	DB	019H
	DB	038H
	DB	02cH
	DB	03H
	DB	06H
	DB	06H
	DB	062H
	DB	07H
	DB	07H
	DB	047H
	DB	09H
	DB	047H
	DB	054H
	DB	055H
	DB	038H
	DB	01H
	DB	01H
	DB	026H
	DB	038H
	DB	092H
	DB	07aH
	DB	0bfH
	DB	071H
	DB	065H
	DB	014H
	DB	065H
	DB	065H
	DB	065H
	DB	065H
	DB	065H
	DB	065H
	DB	065H
	DB	065H
	DB	065H
	DB	065H
	DB	065H
	DB	014H
	DB	014H
	DB	014H
	DB	014H
	DB	014H
	DB	014H
	DB	014H
	DB	014H
	DB	014H
	DB	014H
	DB	014H
	DB	014H
	DB	014H
	DB	014H
	DB	071H
	DB	0eH
	DB	0eH
	DB	0c1H
	DB	0dH
	DB	0dH
	DB	0bfH
	DB	0bfH
	DB	0bH
	DB	0bH
	DB	0bH
	DB	0bH
	DB	047H
	DB	01aH
	DB	039H
	DB	052H
	DB	01eH
	DB	052H
	DB	06eH
	DB	022H
	DB	060H
	DB	0eH
	DB	0c1H
	DB	0c1H
	DB	0c1H
	DB	0eH
	DB	0eH
	DB	071H
	DB	071H
	DB	014H
	DB	014H
	DB	014H
	DB	014H
	DB	082H
	DB	071H
	DB	071H
	DB	0eH
	DB	0eH
	DB	0eH
	DB	0c1H
	DB	0c1H
	DB	0dH
	DB	0dH
	DB	0bfH
	DB	0bfH
	DB	0bH
	DB	0bH
	DB	060H
	DB	09H
	DB	09H
	DB	047H
	DB	07H
	DB	07H
	DB	026H
	DB	031H
	DB	04H
	DB	04H
	DB	04H
	DB	04H
	DB	04H
	DB	04H
	DB	030H
	DB	02H
	DB	08H
	DB	08H
	DB	08H
	DB	02H
	DB	04bH
	DB	04H
	DB	04H
	DB	04H
	DB	04H
	DB	04H
	DB	04H
	DB	050H
	DB	019H
	DB	05H
	DB	01H
	DB	044H
	DB	031H
	DB	037H
	DB	037H
	DB	037H
	DB	031H
	DB	02dH
	DB	019H
	DB	01H
	DB	027H
	DB	031H
	DB	03aH
	DB	045H
	DB	037H
	DB	019H
	DB	05H
	DB	05H
	DB	05H
	DB	05H
	DB	05H
	DB	026H
	DB	02H
	DB	040H
	DB	050H
	DB	058H
	DB	045H
	DB	03bH
	DB	032H
	DB	049H
	DB	036H
	DB	04dH
	DB	02dH
	DB	02H
	DB	019H
	DB	0aH
	DB	05H
	DB	05H
	DB	05H
	DB	05H
	DB	05H
	DB	05H
	DB	05H
	DB	026H
	DB	02H
	DB	027H
	DB	02dH
	DB	04aH
	DB	04cH
	DB	051H
	DB	051H
	DB	04cH
	DB	050H
	DB	030H
	DB	029H
	DB	02H
	DB	02cH
	DB	062H
	DB	07H
	DB	07H
	DB	09H
	DB	09H
	DB	06aH
	DB	019H
	DB	03eH
	DB	037H
	DB	041H
	DB	048H
	DB	048H
	DB	048H
	DB	041H
	DB	04bH
	DB	046H
	DB	02H
	DB	053H
	DB	0bfH
	DB	013H
	DB	013H
	DB	013H
	DB	013H
	DB	065H
	DB	065H
	DB	065H
	DB	065H
	DB	065H
	DB	065H
	DB	065H
	DB	065H
	DB	065H
	DB	065H
	DB	065H
	DB	065H
	DB	065H
	DB	065H
	DB	065H
	DB	014H
	DB	065H
	DB	065H
	DB	065H
	DB	065H
	DB	014H
	DB	014H
	DB	014H
	DB	082H
	DB	071H
	DB	071H
	DB	0eH
	DB	0c1H
	DB	0dH
	DB	0dH
	DB	0bfH
	DB	0bfH
	DB	0bH
	DB	0bH
	DB	09H
	DB	01aH
	DB	039H
	DB	052H
	DB	01eH
	DB	052H
	DB	06eH
	DB	022H
	DB	060H
	DB	0c1H
	DB	0dH
	DB	0dH
	DB	0c1H
	DB	0c1H
	DB	0eH
	DB	0eH
	DB	071H
	DB	082H
	DB	014H
	DB	014H
	DB	014H
	DB	082H
	DB	071H
	DB	071H
	DB	0eH
	DB	0eH
	DB	0eH
	DB	0c1H
	DB	0c1H
	DB	0dH
	DB	0dH
	DB	0bfH
	DB	0bfH
	DB	0bH
	DB	0bH
	DB	060H
	DB	09H
	DB	09H
	DB	047H
	DB	07H
	DB	07H
	DB	038H
	DB	031H
	DB	04H
	DB	04H
	DB	04H
	DB	04H
	DB	04H
	DB	04H
	DB	030H
	DB	019H
	DB	0aH
	DB	0aH
	DB	0aH
	DB	019H
	DB	046H
	DB	04H
	DB	04H
	DB	04H
	DB	04H
	DB	04H
	DB	04H
	DB	04cH
	DB	02H
	DB	02cH
	DB	019H
	DB	041H
	DB	04H
	DB	04H
	DB	04H
	DB	04H
	DB	04H
	DB	03dH
	DB	00H
	DB	03eH
	DB	03dH
	DB	04H
	DB	04H
	DB	04H
	DB	041H
	DB	019H
	DB	05H
	DB	05H
	DB	05H
	DB	05H
	DB	019H
	DB	02aH
	DB	048H
	DB	02eH
	DB	04H
	DB	04H
	DB	04H
	DB	04H
	DB	04H
	DB	04H
	DB	04H
	DB	04H
	DB	04H
	DB	03dH
	DB	046H
	DB	02H
	DB	0aH
	DB	05H
	DB	05H
	DB	05H
	DB	05H
	DB	05H
	DB	026H
	DB	02H
	DB	04aH
	DB	03bH
	DB	04H
	DB	04H
	DB	04H
	DB	04H
	DB	04H
	DB	04H
	DB	04H
	DB	04H
	DB	023H
	DB	048H
	DB	02aH
	DB	03H
	DB	047H
	DB	09H
	DB	047H
	DB	026H
	DB	029H
	DB	051H
	DB	023H
	DB	04H
	DB	04H
	DB	04H
	DB	04H
	DB	04H
	DB	04H
	DB	04H
	DB	04H
	DB	03bH
	DB	037H
	DB	0aH
	DB	072H
	DB	013H
	DB	013H
	DB	013H
	DB	013H
	DB	013H
	DB	013H
	DB	013H
	DB	013H
	DB	013H
	DB	013H
	DB	013H
	DB	013H
	DB	065H
	DB	065H
	DB	065H
	DB	065H
	DB	065H
	DB	065H
	DB	065H
	DB	065H
	DB	065H
	DB	065H
	DB	065H
	DB	065H
	DB	065H
	DB	014H
	DB	014H
	DB	014H
	DB	082H
	DB	071H
	DB	0eH
	DB	0c1H
	DB	0c1H
	DB	0dH
	DB	0dH
	DB	0bfH
	DB	0bfH
	DB	060H
	DB	01aH
	DB	039H
	DB	052H
	DB	01eH
	DB	052H
	DB	06eH
	DB	022H
	DB	09H
	DB	0c1H
	DB	0bfH
	DB	0dH
	DB	0dH
	DB	0c1H
	DB	0c1H
	DB	0c1H
	DB	0eH
	DB	071H
	DB	082H
	DB	014H
	DB	014H
	DB	014H
	DB	071H
	DB	071H
	DB	0eH
	DB	0eH
	DB	0eH
	DB	0c1H
	DB	0c1H
	DB	0dH
	DB	0bfH
	DB	0bfH
	DB	0bH
	DB	0bH
	DB	060H
	DB	09H
	DB	09H
	DB	09H
	DB	07H
	DB	07H
	DB	07H
	DB	038H
	DB	031H
	DB	04H
	DB	04H
	DB	04H
	DB	04H
	DB	04H
	DB	04H
	DB	030H
	DB	019H
	DB	05H
	DB	05H
	DB	05H
	DB	038H
	DB	044H
	DB	04H
	DB	04H
	DB	04H
	DB	04H
	DB	04H
	DB	04H
	DB	04cH
	DB	02H
	DB	0aH
	DB	019H
	DB	041H
	DB	04H
	DB	04H
	DB	04H
	DB	04H
	DB	04H
	DB	03dH
	DB	00H
	DB	03dH
	DB	04H
	DB	04H
	DB	04H
	DB	04H
	DB	041H
	DB	019H
	DB	05H
	DB	05H
	DB	05H
	DB	019H
	DB	046H
	DB	03bH
	DB	04H
	DB	04H
	DB	04H
	DB	04H
	DB	04H
	DB	04H
	DB	04H
	DB	04H
	DB	04H
	DB	04H
	DB	04H
	DB	04H
	DB	04H
	DB	031H
	DB	02H
	DB	0aH
	DB	05H
	DB	05H
	DB	05H
	DB	08cH
	DB	027H
	DB	03aH
	DB	04H
	DB	04H
	DB	04H
	DB	04H
	DB	04H
	DB	04H
	DB	04H
	DB	04H
	DB	04H
	DB	04H
	DB	04H
	DB	032H
	DB	03eH
	DB	043H
	DB	09H
	DB	09H
	DB	026H
	DB	046H
	DB	023H
	DB	04H
	DB	04H
	DB	04H
	DB	04H
	DB	04H
	DB	04H
	DB	04H
	DB	04H
	DB	04H
	DB	04H
	DB	04H
	DB	048H
	DB	08H
	DB	072H
	DB	0c2H
	DB	013H
	DB	013H
	DB	013H
	DB	013H
	DB	013H
	DB	013H
	DB	013H
	DB	013H
	DB	013H
	DB	013H
	DB	013H
	DB	013H
	DB	013H
	DB	013H
	DB	013H
	DB	013H
	DB	013H
	DB	013H
	DB	013H
	DB	013H
	DB	065H
	DB	065H
	DB	065H
	DB	065H
	DB	065H
	DB	065H
	DB	065H
	DB	014H
	DB	014H
	DB	014H
	DB	071H
	DB	0eH
	DB	0c1H
	DB	0c1H
	DB	0dH
	DB	0dH
	DB	0bH
	DB	01H
	DB	039H
	DB	052H
	DB	01eH
	DB	052H
	DB	06eH
	DB	022H
	DB	09H
	DB	0dH
	DB	0bfH
	DB	0bfH
	DB	0dH
	DB	0dH
	DB	0dH
	DB	0c1H
	DB	0eH
	DB	0eH
	DB	071H
	DB	014H
	DB	014H
	DB	014H
	DB	082H
	DB	071H
	DB	0eH
	DB	0eH
	DB	0eH
	DB	0c1H
	DB	0dH
	DB	0dH
	DB	0bfH
	DB	0bfH
	DB	0bH
	DB	0bH
	DB	060H
	DB	09H
	DB	09H
	DB	047H
	DB	07H
	DB	07H
	DB	062H
	DB	038H
	DB	031H
	DB	04H
	DB	04H
	DB	04H
	DB	04H
	DB	04H
	DB	04H
	DB	030H
	DB	019H
	DB	05H
	DB	05H
	DB	05H
	DB	038H
	DB	03cH
	DB	04H
	DB	04H
	DB	04H
	DB	04H
	DB	04H
	DB	04H
	DB	04dH
	DB	02H
	DB	0aH
	DB	019H
	DB	041H
	DB	04H
	DB	04H
	DB	04H
	DB	04H
	DB	04H
	DB	036H
	DB	050H
	DB	04H
	DB	04H
	DB	04H
	DB	04H
	DB	04H
	DB	041H
	DB	019H
	DB	02cH
	DB	05H
	DB	019H
	DB	040H
	DB	032H
	DB	04H
	DB	04H
	DB	04H
	DB	04H
	DB	04H
	DB	032H
	DB	051H
	DB	048H
	DB	049H
	DB	04H
	DB	04H
	DB	04H
	DB	04H
	DB	04H
	DB	04H
	DB	030H
	DB	019H
	DB	05H
	DB	05H
	DB	02cH
	DB	02H
	DB	048H
	DB	04H
	DB	04H
	DB	04H
	DB	04H
	DB	04H
	DB	04H
	DB	032H
	DB	03bH
	DB	032H
	DB	04H
	DB	04H
	DB	04H
	DB	049H
	DB	00H
	DB	06H
	DB	09H
	DB	043H
	DB	029H
	DB	032H
	DB	04H
	DB	04H
	DB	04H
	DB	04H
	DB	04H
	DB	02eH
	DB	03bH
	DB	03bH
	DB	023H
	DB	04H
	DB	04H
	DB	04H
	DB	04aH
	DB	055H
	DB	013H
	DB	013H
	DB	0c2H
	DB	0c2H
	DB	0c2H
	DB	013H
	DB	0c2H
	DB	0c2H
	DB	0c2H
	DB	013H
	DB	013H
	DB	013H
	DB	013H
	DB	013H
	DB	013H
	DB	013H
	DB	013H
	DB	013H
	DB	013H
	DB	013H
	DB	013H
	DB	013H
	DB	013H
	DB	013H
	DB	013H
	DB	065H
	DB	013H
	DB	065H
	DB	065H
	DB	065H
	DB	065H
	DB	014H
	DB	014H
	DB	082H
	DB	071H
	DB	0eH
	DB	0c1H
	DB	0c1H
	DB	0bfH
	DB	01H
	DB	05dH
	DB	052H
	DB	01eH
	DB	052H
	DB	06eH
	DB	022H
	DB	09H
	DB	0dH
	DB	0bH
	DB	0bfH
	DB	0bfH
	DB	0bfH
	DB	0dH
	DB	0dH
	DB	0c1H
	DB	0eH
	DB	0eH
	DB	082H
	DB	014H
	DB	014H
	DB	014H
	DB	071H
	DB	0eH
	DB	0eH
	DB	0c1H
	DB	0c1H
	DB	0dH
	DB	0dH
	DB	0bfH
	DB	0bfH
	DB	0bH
	DB	0bH
	DB	060H
	DB	09H
	DB	09H
	DB	047H
	DB	07H
	DB	07H
	DB	062H
	DB	038H
	DB	031H
	DB	04H
	DB	04H
	DB	04H
	DB	04H
	DB	04H
	DB	04H
	DB	030H
	DB	019H
	DB	05H
	DB	05H
	DB	05H
	DB	02H
	DB	04cH
	DB	04H
	DB	04H
	DB	04H
	DB	04H
	DB	04H
	DB	04H
	DB	04bH
	DB	019H
	DB	0aH
	DB	019H
	DB	041H
	DB	04H
	DB	04H
	DB	04H
	DB	04H
	DB	04H
	DB	032H
	DB	049H
	DB	04H
	DB	04H
	DB	04H
	DB	04H
	DB	04H
	DB	041H
	DB	02H
	DB	02cH
	DB	053H
	DB	00H
	DB	036H
	DB	04H
	DB	04H
	DB	04H
	DB	04H
	DB	04H
	DB	048H
	DB	02aH
	DB	00H
	DB	00H
	DB	027H
	DB	04bH
	DB	04H
	DB	04H
	DB	04H
	DB	04H
	DB	04H
	DB	03bH
	DB	02aH
	DB	026H
	DB	05H
	DB	038H
	DB	044H
	DB	04H
	DB	04H
	DB	04H
	DB	04H
	DB	02eH
	DB	041H
	DB	040H
	DB	02aH
	DB	02aH
	DB	02aH
	DB	029H
	DB	02dH
	DB	04cH
	DB	04dH
	DB	019H
	DB	062H
	DB	063H
	DB	038H
	DB	041H
	DB	04H
	DB	04H
	DB	04H
	DB	04H
	DB	049H
	DB	037H
	DB	029H
	DB	02aH
	DB	02aH
	DB	02aH
	DB	03eH
	DB	030H
	DB	058H
	DB	02dH
	DB	043H
	DB	065H
	DB	013H
	DB	0c2H
	DB	0c2H
	DB	0c2H
	DB	0c2H
	DB	0c2H
	DB	0c2H
	DB	0c2H
	DB	0c2H
	DB	0c2H
	DB	0c2H
	DB	0c2H
	DB	013H
	DB	013H
	DB	013H
	DB	013H
	DB	013H
	DB	013H
	DB	013H
	DB	013H
	DB	013H
	DB	013H
	DB	013H
	DB	013H
	DB	013H
	DB	013H
	DB	013H
	DB	013H
	DB	013H
	DB	065H
	DB	065H
	DB	065H
	DB	014H
	DB	014H
	DB	071H
	DB	0eH
	DB	0eH
	DB	0dH
	DB	01H
	DB	05dH
	DB	052H
	DB	01eH
	DB	052H
	DB	06eH
	DB	022H
	DB	047H
	DB	0dH
	DB	0bH
	DB	0bH
	DB	0bH
	DB	0bfH
	DB	0bfH
	DB	0dH
	DB	0dH
	DB	0c1H
	DB	0eH
	DB	071H
	DB	014H
	DB	014H
	DB	014H
	DB	014H
	DB	071H
	DB	0eH
	DB	0c1H
	DB	0c1H
	DB	0dH
	DB	0dH
	DB	0bfH
	DB	0bfH
	DB	0bH
	DB	0bH
	DB	060H
	DB	09H
	DB	09H
	DB	07H
	DB	07H
	DB	062H
	DB	06H
	DB	038H
	DB	031H
	DB	04H
	DB	04H
	DB	04H
	DB	04H
	DB	04H
	DB	04H
	DB	030H
	DB	019H
	DB	05H
	DB	02cH
	DB	019H
	DB	03eH
	DB	032H
	DB	04H
	DB	04H
	DB	04H
	DB	04H
	DB	04H
	DB	02eH
	DB	044H
	DB	019H
	DB	0aH
	DB	019H
	DB	041H
	DB	04H
	DB	04H
	DB	04H
	DB	04H
	DB	04H
	DB	04H
	DB	04H
	DB	04H
	DB	04H
	DB	04H
	DB	04H
	DB	04H
	DB	050H
	DB	02H
	DB	0aH
	DB	019H
	DB	037H
	DB	04H
	DB	04H
	DB	04H
	DB	04H
	DB	04H
	DB	036H
	DB	02H
	DB	02H
	DB	01H
	DB	01H
	DB	019H
	DB	00H
	DB	04dH
	DB	04H
	DB	04H
	DB	04H
	DB	04H
	DB	04H
	DB	031H
	DB	019H
	DB	05H
	DB	019H
	DB	050H
	DB	04H
	DB	04H
	DB	04H
	DB	04H
	DB	04bH
	DB	00H
	DB	019H
	DB	019H
	DB	01H
	DB	01H
	DB	01H
	DB	019H
	DB	02H
	DB	02H
	DB	0aH
	DB	07H
	DB	07H
	DB	027H
	DB	045H
	DB	04H
	DB	04H
	DB	04H
	DB	023H
	DB	029H
	DB	019H
	DB	053H
	DB	02cH
	DB	05H
	DB	05H
	DB	02cH
	DB	038H
	DB	02H
	DB	01H
	DB	09H
	DB	014H
	DB	013H
	DB	016H
	DB	016H
	DB	016H
	DB	016H
	DB	0c2H
	DB	0c2H
	DB	0c2H
	DB	0c2H
	DB	0c2H
	DB	0c2H
	DB	0c2H
	DB	0c2H
	DB	0c2H
	DB	0c2H
	DB	0c2H
	DB	0c2H
	DB	0c2H
	DB	013H
	DB	013H
	DB	013H
	DB	013H
	DB	013H
	DB	013H
	DB	013H
	DB	013H
	DB	013H
	DB	013H
	DB	013H
	DB	013H
	DB	013H
	DB	065H
	DB	065H
	DB	065H
	DB	014H
	DB	082H
	DB	071H
	DB	0c1H
	DB	078H
	DB	05dH
	DB	052H
	DB	01eH
	DB	052H
	DB	06eH
	DB	022H
	DB	047H
	DB	0dH
	DB	0bH
	DB	0bH
	DB	0bH
	DB	0bH
	DB	0bH
	DB	0bfH
	DB	0dH
	DB	0dH
	DB	0c1H
	DB	0eH
	DB	082H
	DB	014H
	DB	065H
	DB	014H
	DB	082H
	DB	0eH
	DB	0c1H
	DB	0c1H
	DB	0dH
	DB	0bfH
	DB	0bfH
	DB	0bH
	DB	0bH
	DB	060H
	DB	09H
	DB	09H
	DB	047H
	DB	07H
	DB	07H
	DB	062H
	DB	06H
	DB	038H
	DB	031H
	DB	04H
	DB	04H
	DB	04H
	DB	04H
	DB	04H
	DB	04H
	DB	030H
	DB	00H
	DB	02H
	DB	00H
	DB	02dH
	DB	049H
	DB	04H
	DB	04H
	DB	04H
	DB	04H
	DB	04H
	DB	04H
	DB	03dH
	DB	00H
	DB	08cH
	DB	0aH
	DB	019H
	DB	041H
	DB	04H
	DB	04H
	DB	04H
	DB	04H
	DB	04H
	DB	04H
	DB	04H
	DB	04H
	DB	04H
	DB	03dH
	DB	04aH
	DB	03cH
	DB	029H
	DB	019H
	DB	053H
	DB	027H
	DB	03dH
	DB	04H
	DB	04H
	DB	04H
	DB	04H
	DB	04H
	DB	03cH
	DB	02H
	DB	01H
	DB	01H
	DB	08cH
	DB	08H
	DB	019H
	DB	03eH
	DB	02eH
	DB	04H
	DB	04H
	DB	04H
	DB	04H
	DB	03dH
	DB	00H
	DB	05H
	DB	019H
	DB	04cH
	DB	04H
	DB	04H
	DB	04H
	DB	04H
	DB	046H
	DB	02H
	DB	08cH
	DB	0aH
	DB	02cH
	DB	05H
	DB	05H
	DB	05H
	DB	05H
	DB	05H
	DB	054H
	DB	047H
	DB	07H
	DB	027H
	DB	023H
	DB	04H
	DB	04H
	DB	04H
	DB	049H
	DB	00H
	DB	05H
	DB	06H
	DB	07H
	DB	047H
	DB	047H
	DB	047H
	DB	047H
	DB	07H
	DB	063H
	DB	0dH
	DB	014H
	DB	0c2H
	DB	016H
	DB	016H
	DB	016H
	DB	016H
	DB	016H
	DB	016H
	DB	016H
	DB	016H
	DB	016H
	DB	016H
	DB	016H
	DB	0c2H
	DB	0c2H
	DB	0c2H
	DB	0c2H
	DB	0c2H
	DB	0c2H
	DB	0c2H
	DB	0c2H
	DB	0c2H
	DB	013H
	DB	0c2H
	DB	013H
	DB	013H
	DB	013H
	DB	013H
	DB	013H
	DB	013H
	DB	013H
	DB	013H
	DB	013H
	DB	013H
	DB	013H
	DB	065H
	DB	014H
	DB	014H
	DB	0eH
	DB	08cH
	DB	05dH
	DB	052H
	DB	01eH
	DB	052H
	DB	06eH
	DB	022H
	DB	047H
	DB	0dH
	DB	0bH
	DB	0bH
	DB	0bH
	DB	0bH
	DB	0bH
	DB	0bH
	DB	0bfH
	DB	0dH
	DB	0c1H
	DB	0eH
	DB	071H
	DB	014H
	DB	065H
	DB	065H
	DB	014H
	DB	071H
	DB	0eH
	DB	0c1H
	DB	0dH
	DB	0bfH
	DB	0bfH
	DB	0bH
	DB	0bH
	DB	060H
	DB	09H
	DB	09H
	DB	047H
	DB	07H
	DB	062H
	DB	06H
	DB	06H
	DB	038H
	DB	031H
	DB	04H
	DB	04H
	DB	04H
	DB	04H
	DB	04H
	DB	04H
	DB	049H
	DB	03aH
	DB	036H
	DB	03bH
	DB	04H
	DB	04H
	DB	04H
	DB	04H
	DB	04H
	DB	04H
	DB	04H
	DB	04H
	DB	03cH
	DB	02H
	DB	08H
	DB	02cH
	DB	019H
	DB	041H
	DB	04H
	DB	04H
	DB	04H
	DB	04H
	DB	04H
	DB	04H
	DB	04H
	DB	02eH
	DB	04bH
	DB	00H
	DB	02H
	DB	02H
	DB	019H
	DB	08H
	DB	038H
	DB	040H
	DB	04H
	DB	04H
	DB	04H
	DB	04H
	DB	04H
	DB	023H
	DB	027H
	DB	019H
	DB	08cH
	DB	0aH
	DB	0aH
	DB	05H
	DB	053H
	DB	02H
	DB	036H
	DB	04H
	DB	04H
	DB	04H
	DB	04H
	DB	023H
	DB	03eH
	DB	026H
	DB	019H
	DB	04cH
	DB	04H
	DB	04H
	DB	04H
	DB	04H
	DB	03aH
	DB	027H
	DB	02H
	DB	038H
	DB	02cH
	DB	03H
	DB	06H
	DB	06H
	DB	06H
	DB	06H
	DB	07H
	DB	060H
	DB	063H
	DB	027H
	DB	023H
	DB	04H
	DB	04H
	DB	04H
	DB	04H
	DB	04bH
	DB	02H
	DB	026H
	DB	07aH
	DB	05bH
	DB	0eH
	DB	071H
	DB	0c1H
	DB	0dH
	DB	0c1H
	DB	071H
	DB	013H
	DB	016H
	DB	0c3H
	DB	016H
	DB	016H
	DB	016H
	DB	016H
	DB	016H
	DB	016H
	DB	016H
	DB	016H
	DB	016H
	DB	016H
	DB	016H
	DB	016H
	DB	016H
	DB	0c2H
	DB	0c2H
	DB	0c2H
	DB	0c2H
	DB	0c2H
	DB	0c2H
	DB	0c2H
	DB	0c2H
	DB	0c2H
	DB	0c2H
	DB	013H
	DB	013H
	DB	013H
	DB	013H
	DB	013H
	DB	013H
	DB	013H
	DB	013H
	DB	013H
	DB	013H
	DB	065H
	DB	065H
	DB	071H
	DB	08cH
	DB	05dH
	DB	052H
	DB	01eH
	DB	052H
	DB	06eH
	DB	022H
	DB	047H
	DB	0dH
	DB	0bH
	DB	0bH
	DB	0bH
	DB	0bH
	DB	0bH
	DB	0bH
	DB	0bH
	DB	0bfH
	DB	0dH
	DB	0c1H
	DB	0eH
	DB	082H
	DB	014H
	DB	065H
	DB	065H
	DB	014H
	DB	071H
	DB	0eH
	DB	0dH
	DB	0bfH
	DB	0bfH
	DB	0bH
	DB	060H
	DB	060H
	DB	09H
	DB	047H
	DB	07H
	DB	07H
	DB	062H
	DB	06H
	DB	06H
	DB	038H
	DB	031H
	DB	04H
	DB	04H
	DB	04H
	DB	04H
	DB	04H
	DB	04H
	DB	04H
	DB	04H
	DB	04H
	DB	04H
	DB	04H
	DB	04H
	DB	04H
	DB	04H
	DB	04H
	DB	04H
	DB	04H
	DB	04cH
	DB	00H
	DB	01H
	DB	0aH
	DB	05H
	DB	019H
	DB	041H
	DB	04H
	DB	04H
	DB	04H
	DB	04H
	DB	04H
	DB	04H
	DB	04H
	DB	037H
	DB	00H
	DB	019H
	DB	01H
	DB	01H
	DB	08cH
	DB	0aH
	DB	019H
	DB	04bH
	DB	04H
	DB	04H
	DB	04H
	DB	04H
	DB	04H
	DB	036H
	DB	00H
	DB	019H
	DB	026H
	DB	026H
	DB	026H
	DB	053H
	DB	026H
	DB	02H
	DB	04cH
	DB	04H
	DB	04H
	DB	04H
	DB	04H
	DB	04H
	DB	02dH
	DB	038H
	DB	019H
	DB	050H
	DB	04H
	DB	04H
	DB	04H
	DB	04H
	DB	04H
	DB	03bH
	DB	041H
	DB	046H
	DB	02aH
	DB	019H
	DB	055H
	DB	06H
	DB	09H
	DB	09H
	DB	060H
	DB	0bfH
	DB	05bH
	DB	02H
	DB	045H
	DB	04H
	DB	04H
	DB	04H
	DB	04H
	DB	04H
	DB	036H
	DB	031H
	DB	03eH
	DB	01H
	DB	055H
	DB	080H
	DB	065H
	DB	0c2H
	DB	013H
	DB	013H
	DB	016H
	DB	0c3H
	DB	0c4H
	DB	0c4H
	DB	0c3H
	DB	0c3H
	DB	0c3H
	DB	0c3H
	DB	0c3H
	DB	0c3H
	DB	016H
	DB	016H
	DB	016H
	DB	016H
	DB	016H
	DB	016H
	DB	016H
	DB	016H
	DB	016H
	DB	016H
	DB	016H
	DB	0c2H
	DB	0c2H
	DB	0c2H
	DB	0c2H
	DB	0c2H
	DB	0c2H
	DB	0c2H
	DB	0c2H
	DB	013H
	DB	013H
	DB	013H
	DB	013H
	DB	013H
	DB	013H
	DB	013H
	DB	013H
	DB	013H
	DB	014H
	DB	04fH
	DB	05dH
	DB	052H
	DB	01eH
	DB	052H
	DB	06eH
	DB	022H
	DB	09H
	DB	0dH
	DB	0bH
	DB	0bH
	DB	0bH
	DB	0bH
	DB	0bH
	DB	0bH
	DB	0bH
	DB	0bfH
	DB	0dH
	DB	0c1H
	DB	0eH
	DB	071H
	DB	014H
	DB	065H
	DB	013H
	DB	065H
	DB	014H
	DB	0eH
	DB	0c1H
	DB	0dH
	DB	0bfH
	DB	0bH
	DB	060H
	DB	09H
	DB	09H
	DB	047H
	DB	07H
	DB	07H
	DB	062H
	DB	06H
	DB	06H
	DB	038H
	DB	031H
	DB	04H
	DB	04H
	DB	04H
	DB	04H
	DB	04H
	DB	04H
	DB	04H
	DB	04H
	DB	04H
	DB	04H
	DB	04H
	DB	04H
	DB	04H
	DB	04H
	DB	04H
	DB	04H
	DB	04dH
	DB	02H
	DB	019H
	DB	08cH
	DB	0aH
	DB	05H
	DB	019H
	DB	041H
	DB	04H
	DB	04H
	DB	04H
	DB	04H
	DB	04H
	DB	04H
	DB	048H
	DB	00H
	DB	01H
	DB	08cH
	DB	08cH
	DB	08H
	DB	0aH
	DB	05H
	DB	02H
	DB	048H
	DB	04H
	DB	04H
	DB	04H
	DB	04H
	DB	04H
	DB	03aH
	DB	029H
	DB	029H
	DB	029H
	DB	029H
	DB	029H
	DB	029H
	DB	029H
	DB	02aH
	DB	04dH
	DB	04H
	DB	04H
	DB	04H
	DB	04H
	DB	04H
	DB	037H
	DB	019H
	DB	038H
	DB	02dH
	DB	04H
	DB	04H
	DB	04H
	DB	04H
	DB	04H
	DB	04H
	DB	04H
	DB	04H
	DB	03bH
	DB	048H
	DB	02dH
	DB	02H
	DB	055H
	DB	09H
	DB	0dH
	DB	0dH
	DB	0dH
	DB	026H
	DB	04cH
	DB	04H
	DB	04H
	DB	04H
	DB	04H
	DB	04H
	DB	04H
	DB	04H
	DB	02eH
	DB	03dH
	DB	050H
	DB	03eH
	DB	038H
	DB	05bH
	DB	0c3H
	DB	011H
	DB	0c4H
	DB	011H
	DB	011H
	DB	011H
	DB	0c4H
	DB	0c4H
	DB	0c4H
	DB	0c4H
	DB	0c4H
	DB	0c4H
	DB	0c3H
	DB	0c3H
	DB	0c3H
	DB	0c3H
	DB	0c3H
	DB	016H
	DB	016H
	DB	016H
	DB	016H
	DB	016H
	DB	016H
	DB	016H
	DB	016H
	DB	016H
	DB	0c2H
	DB	0c2H
	DB	0c2H
	DB	0c2H
	DB	0c2H
	DB	0c2H
	DB	0c2H
	DB	013H
	DB	013H
	DB	013H
	DB	013H
	DB	013H
	DB	013H
	DB	013H
	DB	014H
	DB	04fH
	DB	05dH
	DB	01eH
	DB	01eH
	DB	052H
	DB	06eH
	DB	022H
	DB	09H
	DB	0dH
	DB	0bH
	DB	0bH
	DB	0bH
	DB	0bH
	DB	0bH
	DB	0bH
	DB	0bH
	DB	0bH
	DB	0bfH
	DB	0dH
	DB	0c1H
	DB	0eH
	DB	014H
	DB	065H
	DB	013H
	DB	013H
	DB	065H
	DB	014H
	DB	0eH
	DB	0c1H
	DB	0bfH
	DB	0bH
	DB	060H
	DB	09H
	DB	047H
	DB	047H
	DB	07H
	DB	062H
	DB	06H
	DB	06H
	DB	06H
	DB	038H
	DB	031H
	DB	04H
	DB	04H
	DB	04H
	DB	04H
	DB	04H
	DB	04H
	DB	04H
	DB	04H
	DB	04H
	DB	04H
	DB	04H
	DB	04H
	DB	04H
	DB	04H
	DB	036H
	DB	02dH
	DB	00H
	DB	02H
	DB	08cH
	DB	0aH
	DB	05H
	DB	05H
	DB	019H
	DB	041H
	DB	04H
	DB	04H
	DB	04H
	DB	04H
	DB	04H
	DB	04H
	DB	02dH
	DB	02H
	DB	08cH
	DB	08H
	DB	0aH
	DB	02cH
	DB	05H
	DB	05H
	DB	02H
	DB	058H
	DB	04H
	DB	04H
	DB	04H
	DB	04H
	DB	04H
	DB	02eH
	DB	023H
	DB	023H
	DB	023H
	DB	023H
	DB	023H
	DB	023H
	DB	023H
	DB	023H
	DB	02eH
	DB	04H
	DB	04H
	DB	04H
	DB	04H
	DB	04H
	DB	031H
	DB	019H
	DB	0aH
	DB	027H
	DB	045H
	DB	04H
	DB	04H
	DB	04H
	DB	04H
	DB	04H
	DB	04H
	DB	04H
	DB	04H
	DB	04H
	DB	04H
	DB	03dH
	DB	02dH
	DB	019H
	DB	063H
	DB	0eH
	DB	071H
	DB	043H
	DB	046H
	DB	04H
	DB	04H
	DB	04H
	DB	04H
	DB	04H
	DB	04H
	DB	04H
	DB	04H
	DB	04H
	DB	04H
	DB	02eH
	DB	04cH
	DB	029H
	DB	043H
	DB	0c3H
	DB	011H
	DB	011H
	DB	011H
	DB	011H
	DB	011H
	DB	011H
	DB	011H
	DB	011H
	DB	0c4H
	DB	0c4H
	DB	0c4H
	DB	0c4H
	DB	0c4H
	DB	0c3H
	DB	0c3H
	DB	0c3H
	DB	0c3H
	DB	016H
	DB	016H
	DB	016H
	DB	016H
	DB	016H
	DB	016H
	DB	016H
	DB	016H
	DB	0c2H
	DB	0c2H
	DB	0c2H
	DB	0c2H
	DB	0c2H
	DB	0c2H
	DB	0c2H
	DB	0c2H
	DB	013H
	DB	013H
	DB	013H
	DB	013H
	DB	013H
	DB	014H
	DB	04fH
	DB	05dH
	DB	01eH
	DB	01eH
	DB	01eH
	DB	06eH
	DB	022H
	DB	09H
	DB	0dH
	DB	0bH
	DB	0bH
	DB	0bH
	DB	0bH
	DB	0bH
	DB	0bH
	DB	0bH
	DB	0bH
	DB	0bfH
	DB	0dH
	DB	0dH
	DB	0c1H
	DB	071H
	DB	014H
	DB	013H
	DB	013H
	DB	013H
	DB	013H
	DB	014H
	DB	0eH
	DB	0dH
	DB	0bfH
	DB	0bH
	DB	09H
	DB	047H
	DB	07H
	DB	07H
	DB	062H
	DB	06H
	DB	06H
	DB	06H
	DB	038H
	DB	031H
	DB	04H
	DB	04H
	DB	04H
	DB	04H
	DB	04H
	DB	04H
	DB	049H
	DB	03aH
	DB	036H
	DB	036H
	DB	058H
	DB	04cH
	DB	031H
	DB	044H
	DB	00H
	DB	02H
	DB	01H
	DB	08cH
	DB	08dH
	DB	02cH
	DB	05H
	DB	079H
	DB	019H
	DB	041H
	DB	04H
	DB	04H
	DB	04H
	DB	04H
	DB	04H
	DB	03bH
	DB	02aH
	DB	019H
	DB	08dH
	DB	02cH
	DB	05H
	DB	05H
	DB	079H
	DB	05H
	DB	02H
	DB	036H
	DB	04H
	DB	04H
	DB	04H
	DB	04H
	DB	04H
	DB	04H
	DB	04H
	DB	04H
	DB	04H
	DB	04H
	DB	04H
	DB	04H
	DB	04H
	DB	04H
	DB	04H
	DB	04H
	DB	04H
	DB	04H
	DB	04H
	DB	04H
	DB	031H
	DB	019H
	DB	05H
	DB	019H
	DB	02dH
	DB	02eH
	DB	04H
	DB	04H
	DB	04H
	DB	04H
	DB	04H
	DB	04H
	DB	04H
	DB	04H
	DB	04H
	DB	04H
	DB	04H
	DB	050H
	DB	019H
	DB	0bH
	DB	014H
	DB	0dH
	DB	019H
	DB	04cH
	DB	04H
	DB	04H
	DB	04H
	DB	04H
	DB	04H
	DB	04H
	DB	04H
	DB	04H
	DB	04H
	DB	04H
	DB	04H
	DB	032H
	DB	044H
	DB	043H
	DB	011H
	DB	012H
	DB	011H
	DB	011H
	DB	011H
	DB	011H
	DB	011H
	DB	011H
	DB	011H
	DB	011H
	DB	011H
	DB	011H
	DB	011H
	DB	0c4H
	DB	0c4H
	DB	0c4H
	DB	0c4H
	DB	0c3H
	DB	0c3H
	DB	0c3H
	DB	0c3H
	DB	016H
	DB	016H
	DB	016H
	DB	016H
	DB	016H
	DB	016H
	DB	016H
	DB	0c2H
	DB	0c2H
	DB	0c2H
	DB	0c2H
	DB	0c2H
	DB	0c2H
	DB	0c2H
	DB	0c2H
	DB	013H
	DB	0c2H
	DB	065H
	DB	04fH
	DB	05dH
	DB	01eH
	DB	01eH
	DB	01eH
	DB	06eH
	DB	022H
	DB	09H
	DB	0dH
	DB	0bH
	DB	0bH
	DB	0bH
	DB	0bH
	DB	0bH
	DB	0bH
	DB	0bH
	DB	0bfH
	DB	0bfH
	DB	0bfH
	DB	0dH
	DB	0c1H
	DB	0eH
	DB	082H
	DB	065H
	DB	013H
	DB	0c2H
	DB	013H
	DB	065H
	DB	071H
	DB	0c1H
	DB	0dH
	DB	0bH
	DB	060H
	DB	047H
	DB	07H
	DB	062H
	DB	06H
	DB	06H
	DB	06H
	DB	06H
	DB	038H
	DB	031H
	DB	04H
	DB	04H
	DB	04H
	DB	04H
	DB	04H
	DB	04H
	DB	030H
	DB	00H
	DB	00H
	DB	00H
	DB	00H
	DB	00H
	DB	02H
	DB	02H
	DB	01H
	DB	01H
	DB	08cH
	DB	08dH
	DB	02cH
	DB	05H
	DB	079H
	DB	079H
	DB	019H
	DB	041H
	DB	04H
	DB	04H
	DB	04H
	DB	04H
	DB	04H
	DB	045H
	DB	00H
	DB	08cH
	DB	0aH
	DB	05H
	DB	05H
	DB	079H
	DB	03H
	DB	05H
	DB	02H
	DB	036H
	DB	04H
	DB	04H
	DB	04H
	DB	04H
	DB	04H
	DB	04H
	DB	04H
	DB	04H
	DB	04H
	DB	04H
	DB	04H
	DB	04H
	DB	04H
	DB	04H
	DB	04H
	DB	04H
	DB	04H
	DB	04H
	DB	04H
	DB	04H
	DB	031H
	DB	019H
	DB	05H
	DB	05H
	DB	02H
	DB	02dH
	DB	03bH
	DB	04H
	DB	04H
	DB	04H
	DB	04H
	DB	04H
	DB	04H
	DB	04H
	DB	04H
	DB	04H
	DB	04H
	DB	04H
	DB	037H
	DB	055H
	DB	014H
	DB	065H
	DB	063H
	DB	027H
	DB	041H
	DB	04H
	DB	04H
	DB	04H
	DB	04H
	DB	04H
	DB	04H
	DB	04H
	DB	04H
	DB	04H
	DB	04H
	DB	04H
	DB	03bH
	DB	029H
	DB	057H
	DB	012H
	DB	012H
	DB	011H
	DB	011H
	DB	011H
	DB	011H
	DB	011H
	DB	011H
	DB	011H
	DB	011H
	DB	011H
	DB	011H
	DB	011H
	DB	011H
	DB	011H
	DB	011H
	DB	0c4H
	DB	0c4H
	DB	0c4H
	DB	0c4H
	DB	0c3H
	DB	0c3H
	DB	0c3H
	DB	016H
	DB	016H
	DB	016H
	DB	016H
	DB	016H
	DB	016H
	DB	0c2H
	DB	0c2H
	DB	0c2H
	DB	0c2H
	DB	0c2H
	DB	0c2H
	DB	0c2H
	DB	0c2H
	DB	065H
	DB	04fH
	DB	05dH
	DB	01eH
	DB	01eH
	DB	01eH
	DB	06eH
	DB	022H
	DB	09H
	DB	0dH
	DB	0bH
	DB	0bH
	DB	0bH
	DB	0bH
	DB	0bH
	DB	0bfH
	DB	0bfH
	DB	0bfH
	DB	0bfH
	DB	0dH
	DB	0dH
	DB	0c1H
	DB	0eH
	DB	071H
	DB	014H
	DB	013H
	DB	05cH
	DB	0c2H
	DB	013H
	DB	065H
	DB	071H
	DB	0c1H
	DB	0bfH
	DB	0bH
	DB	09H
	DB	07H
	DB	07H
	DB	06H
	DB	06H
	DB	06H
	DB	06H
	DB	038H
	DB	031H
	DB	04H
	DB	04H
	DB	04H
	DB	04H
	DB	04H
	DB	04H
	DB	030H
	DB	02H
	DB	01H
	DB	01H
	DB	01H
	DB	01H
	DB	08cH
	DB	08cH
	DB	08cH
	DB	08H
	DB	0aH
	DB	05H
	DB	05H
	DB	05H
	DB	079H
	DB	079H
	DB	019H
	DB	041H
	DB	04H
	DB	04H
	DB	04H
	DB	04H
	DB	04H
	DB	03dH
	DB	00H
	DB	08dH
	DB	05H
	DB	079H
	DB	079H
	DB	079H
	DB	079H
	DB	05H
	DB	02H
	DB	03aH
	DB	04H
	DB	04H
	DB	04H
	DB	04H
	DB	04H
	DB	051H
	DB	046H
	DB	02dH
	DB	02dH
	DB	02dH
	DB	02dH
	DB	02dH
	DB	02dH
	DB	02dH
	DB	02dH
	DB	02dH
	DB	02dH
	DB	02dH
	DB	02dH
	DB	03cH
	DB	029H
	DB	01H
	DB	05H
	DB	03H
	DB	05H
	DB	019H
	DB	02aH
	DB	050H
	DB	045H
	DB	04H
	DB	04H
	DB	04H
	DB	04H
	DB	04H
	DB	04H
	DB	04H
	DB	04H
	DB	04H
	DB	049H
	DB	027H
	DB	0bfH
	DB	013H
	DB	065H
	DB	063H
	DB	019H
	DB	044H
	DB	048H
	DB	032H
	DB	04H
	DB	04H
	DB	04H
	DB	04H
	DB	04H
	DB	04H
	DB	04H
	DB	04H
	DB	04H
	DB	041H
	DB	055H
	DB	012H
	DB	012H
	DB	012H
	DB	012H
	DB	012H
	DB	011H
	DB	011H
	DB	011H
	DB	011H
	DB	011H
	DB	011H
	DB	011H
	DB	011H
	DB	011H
	DB	011H
	DB	011H
	DB	011H
	DB	0c4H
	DB	0c4H
	DB	0c4H
	DB	0c4H
	DB	0c3H
	DB	0c3H
	DB	0c3H
	DB	016H
	DB	016H
	DB	016H
	DB	016H
	DB	016H
	DB	016H
	DB	0c2H
	DB	0c2H
	DB	0c2H
	DB	0c2H
	DB	0c2H
	DB	0c2H
	DB	0c2H
	DB	065H
	DB	04fH
	DB	05dH
	DB	01eH
	DB	01eH
	DB	01eH
	DB	06eH
	DB	022H
	DB	09H
	DB	0dH
	DB	0bH
	DB	0bH
	DB	0bH
	DB	0bfH
	DB	0bfH
	DB	0bfH
	DB	0bfH
	DB	0bfH
	DB	0dH
	DB	0dH
	DB	0dH
	DB	0c1H
	DB	0c1H
	DB	0eH
	DB	082H
	DB	065H
	DB	013H
	DB	0c2H
	DB	0c2H
	DB	013H
	DB	014H
	DB	071H
	DB	0c1H
	DB	0bfH
	DB	060H
	DB	047H
	DB	07H
	DB	062H
	DB	06H
	DB	06H
	DB	06H
	DB	038H
	DB	031H
	DB	04H
	DB	04H
	DB	04H
	DB	04H
	DB	04H
	DB	04H
	DB	030H
	DB	019H
	DB	08dH
	DB	08dH
	DB	0aH
	DB	0aH
	DB	0aH
	DB	0aH
	DB	0aH
	DB	05H
	DB	05H
	DB	05H
	DB	079H
	DB	079H
	DB	03H
	DB	03H
	DB	019H
	DB	041H
	DB	04H
	DB	04H
	DB	04H
	DB	04H
	DB	04H
	DB	03dH
	DB	00H
	DB	0aH
	DB	05H
	DB	079H
	DB	03H
	DB	03H
	DB	03H
	DB	03H
	DB	02H
	DB	048H
	DB	04H
	DB	04H
	DB	04H
	DB	04H
	DB	04H
	DB	04cH
	DB	00H
	DB	019H
	DB	019H
	DB	019H
	DB	019H
	DB	019H
	DB	019H
	DB	019H
	DB	019H
	DB	019H
	DB	02H
	DB	02H
	DB	02H
	DB	019H
	DB	01H
	DB	0aH
	DB	079H
	DB	03H
	DB	06H
	DB	03H
	DB	026H
	DB	02H
	DB	027H
	DB	044H
	DB	04aH
	DB	045H
	DB	04H
	DB	04H
	DB	04H
	DB	04H
	DB	04H
	DB	04H
	DB	04H
	DB	02dH
	DB	05aH
	DB	0c2H
	DB	013H
	DB	065H
	DB	0bfH
	DB	06aH
	DB	019H
	DB	02aH
	DB	02dH
	DB	048H
	DB	032H
	DB	04H
	DB	04H
	DB	04H
	DB	04H
	DB	04H
	DB	04H
	DB	045H
	DB	075H
	DB	072H
	DB	012H
	DB	012H
	DB	012H
	DB	012H
	DB	012H
	DB	012H
	DB	012H
	DB	012H
	DB	011H
	DB	011H
	DB	011H
	DB	011H
	DB	011H
	DB	011H
	DB	011H
	DB	011H
	DB	011H
	DB	011H
	DB	011H
	DB	0c4H
	DB	0c4H
	DB	0c4H
	DB	0c3H
	DB	0c3H
	DB	0c3H
	DB	016H
	DB	016H
	DB	016H
	DB	016H
	DB	016H
	DB	016H
	DB	0c2H
	DB	0c2H
	DB	0c2H
	DB	0c2H
	DB	0c2H
	DB	065H
	DB	04fH
	DB	05dH
	DB	01eH
	DB	01eH
	DB	01eH
	DB	06eH
	DB	022H
	DB	09H
	DB	0dH
	DB	0bH
	DB	0bfH
	DB	0bfH
	DB	0bfH
	DB	0bfH
	DB	0bfH
	DB	0dH
	DB	0dH
	DB	0dH
	DB	0dH
	DB	0dH
	DB	0c1H
	DB	0c1H
	DB	0eH
	DB	071H
	DB	014H
	DB	013H
	DB	0c2H
	DB	016H
	DB	0c2H
	DB	013H
	DB	014H
	DB	0eH
	DB	0dH
	DB	0bH
	DB	09H
	DB	047H
	DB	07H
	DB	062H
	DB	06H
	DB	06H
	DB	038H
	DB	031H
	DB	04H
	DB	04H
	DB	04H
	DB	04H
	DB	04H
	DB	04H
	DB	030H
	DB	019H
	DB	05H
	DB	05H
	DB	05H
	DB	05H
	DB	05H
	DB	05H
	DB	05H
	DB	079H
	DB	079H
	DB	03H
	DB	03H
	DB	03H
	DB	03H
	DB	03H
	DB	019H
	DB	041H
	DB	04H
	DB	04H
	DB	04H
	DB	04H
	DB	04H
	DB	03dH
	DB	00H
	DB	02cH
	DB	05H
	DB	03H
	DB	03H
	DB	03H
	DB	03H
	DB	03H
	DB	019H
	DB	050H
	DB	04H
	DB	04H
	DB	04H
	DB	04H
	DB	04H
	DB	03aH
	DB	02H
	DB	01H
	DB	08cH
	DB	08cH
	DB	08cH
	DB	08cH
	DB	08cH
	DB	08cH
	DB	08cH
	DB	08cH
	DB	08cH
	DB	08cH
	DB	08cH
	DB	08cH
	DB	0aH
	DB	05H
	DB	03H
	DB	06H
	DB	06H
	DB	06H
	DB	06H
	DB	03H
	DB	02cH
	DB	038H
	DB	019H
	DB	00H
	DB	031H
	DB	02eH
	DB	04H
	DB	04H
	DB	04H
	DB	04H
	DB	04H
	DB	04aH
	DB	06aH
	DB	0c2H
	DB	016H
	DB	0c2H
	DB	013H
	DB	0eH
	DB	060H
	DB	054H
	DB	055H
	DB	019H
	DB	02aH
	DB	048H
	DB	04H
	DB	04H
	DB	04H
	DB	04H
	DB	04H
	DB	023H
	DB	03eH
	DB	09aH
	DB	09bH
	DB	012H
	DB	012H
	DB	012H
	DB	012H
	DB	012H
	DB	012H
	DB	012H
	DB	012H
	DB	012H
	DB	012H
	DB	012H
	DB	011H
	DB	011H
	DB	011H
	DB	011H
	DB	011H
	DB	011H
	DB	011H
	DB	011H
	DB	011H
	DB	0c4H
	DB	0c4H
	DB	0c4H
	DB	0c4H
	DB	0c3H
	DB	0c3H
	DB	016H
	DB	016H
	DB	016H
	DB	016H
	DB	016H
	DB	016H
	DB	0c2H
	DB	0c2H
	DB	016H
	DB	013H
	DB	04fH
	DB	05dH
	DB	01eH
	DB	01eH
	DB	01eH
	DB	06eH
	DB	022H
	DB	09H
	DB	0dH
	DB	0bfH
	DB	0bfH
	DB	0bfH
	DB	0bfH
	DB	0bfH
	DB	0dH
	DB	0dH
	DB	0dH
	DB	0dH
	DB	0c1H
	DB	0c1H
	DB	0eH
	DB	0eH
	DB	0eH
	DB	071H
	DB	014H
	DB	065H
	DB	013H
	DB	016H
	DB	016H
	DB	0c2H
	DB	013H
	DB	014H
	DB	0eH
	DB	0dH
	DB	0bH
	DB	060H
	DB	09H
	DB	07H
	DB	062H
	DB	06H
	DB	038H
	DB	031H
	DB	04H
	DB	04H
	DB	04H
	DB	04H
	DB	04H
	DB	04H
	DB	030H
	DB	019H
	DB	05H
	DB	079H
	DB	03H
	DB	079H
	DB	079H
	DB	079H
	DB	079H
	DB	03H
	DB	03H
	DB	03H
	DB	03H
	DB	03H
	DB	03H
	DB	03H
	DB	019H
	DB	041H
	DB	04H
	DB	04H
	DB	04H
	DB	04H
	DB	04H
	DB	03dH
	DB	00H
	DB	02cH
	DB	05H
	DB	03H
	DB	03H
	DB	03H
	DB	03H
	DB	03H
	DB	026H
	DB	02dH
	DB	04H
	DB	04H
	DB	04H
	DB	04H
	DB	04H
	DB	023H
	DB	02aH
	DB	01H
	DB	0aH
	DB	0aH
	DB	0aH
	DB	0aH
	DB	0aH
	DB	0aH
	DB	0aH
	DB	0aH
	DB	02cH
	DB	05H
	DB	02cH
	DB	02cH
	DB	05H
	DB	079H
	DB	054H
	DB	062H
	DB	07H
	DB	07H
	DB	07H
	DB	062H
	DB	06H
	DB	06H
	DB	03H
	DB	05H
	DB	019H
	DB	050H
	DB	04H
	DB	04H
	DB	04H
	DB	04H
	DB	04H
	DB	050H
	DB	055H
	DB	0c2H
	DB	011H
	DB	011H
	DB	0c4H
	DB	0c2H
	DB	014H
	DB	0eH
	DB	0bfH
	DB	09H
	DB	043H
	DB	027H
	DB	045H
	DB	04H
	DB	04H
	DB	04H
	DB	04H
	DB	02eH
	DB	040H
	DB	05bH
	DB	012H
	DB	012H
	DB	09bH
	DB	012H
	DB	012H
	DB	012H
	DB	012H
	DB	012H
	DB	012H
	DB	012H
	DB	012H
	DB	012H
	DB	012H
	DB	011H
	DB	011H
	DB	011H
	DB	011H
	DB	011H
	DB	011H
	DB	011H
	DB	011H
	DB	011H
	DB	011H
	DB	0c4H
	DB	0c4H
	DB	0c3H
	DB	0c3H
	DB	0c3H
	DB	016H
	DB	016H
	DB	016H
	DB	016H
	DB	016H
	DB	016H
	DB	0c2H
	DB	016H
	DB	013H
	DB	04eH
	DB	05dH
	DB	01eH
	DB	01eH
	DB	01eH
	DB	06eH
	DB	022H
	DB	09H
	DB	0dH
	DB	0bfH
	DB	0bfH
	DB	0bfH
	DB	0dH
	DB	0dH
	DB	0dH
	DB	0dH
	DB	0dH
	DB	0c1H
	DB	0c1H
	DB	0eH
	DB	0eH
	DB	071H
	DB	071H
	DB	014H
	DB	014H
	DB	065H
	DB	013H
	DB	0c2H
	DB	016H
	DB	016H
	DB	0c2H
	DB	013H
	DB	082H
	DB	0eH
	DB	0dH
	DB	0bfH
	DB	060H
	DB	09H
	DB	07H
	DB	07H
	DB	038H
	DB	031H
	DB	04H
	DB	04H
	DB	04H
	DB	04H
	DB	04H
	DB	04H
	DB	030H
	DB	019H
	DB	079H
	DB	03H
	DB	03H
	DB	03H
	DB	03H
	DB	03H
	DB	03H
	DB	03H
	DB	03H
	DB	03H
	DB	03H
	DB	03H
	DB	03H
	DB	03H
	DB	019H
	DB	041H
	DB	04H
	DB	04H
	DB	04H
	DB	04H
	DB	04H
	DB	03dH
	DB	00H
	DB	02cH
	DB	079H
	DB	03H
	DB	03H
	DB	03H
	DB	03H
	DB	03H
	DB	02cH
	DB	027H
	DB	03bH
	DB	04H
	DB	04H
	DB	04H
	DB	04H
	DB	04H
	DB	041H
	DB	02H
	DB	0aH
	DB	079H
	DB	079H
	DB	079H
	DB	079H
	DB	079H
	DB	079H
	DB	05H
	DB	0aH
	DB	019H
	DB	019H
	DB	05H
	DB	03H
	DB	054H
	DB	06H
	DB	054H
	DB	06H
	DB	09H
	DB	09H
	DB	09H
	DB	09H
	DB	047H
	DB	047H
	DB	09H
	DB	055H
	DB	02dH
	DB	04H
	DB	04H
	DB	04H
	DB	04H
	DB	04H
	DB	04aH
	DB	055H
	DB	065H
	DB	082H
	DB	0c4H
	DB	0f2H
	DB	09bH
	DB	011H
	DB	016H
	DB	013H
	DB	065H
	DB	0eH
	DB	019H
	DB	048H
	DB	04H
	DB	04H
	DB	04H
	DB	04H
	DB	023H
	DB	03eH
	DB	05bH
	DB	012H
	DB	09bH
	DB	09bH
	DB	09bH
	DB	09bH
	DB	09bH
	DB	012H
	DB	012H
	DB	012H
	DB	012H
	DB	012H
	DB	012H
	DB	012H
	DB	012H
	DB	012H
	DB	012H
	DB	011H
	DB	011H
	DB	011H
	DB	011H
	DB	011H
	DB	011H
	DB	011H
	DB	011H
	DB	011H
	DB	0c4H
	DB	0c4H
	DB	0c3H
	DB	0c3H
	DB	0c3H
	DB	016H
	DB	016H
	DB	016H
	DB	016H
	DB	016H
	DB	016H
	DB	013H
	DB	04eH
	DB	028H
	DB	01eH
	DB	01eH
	DB	01eH
	DB	06eH
	DB	022H
	DB	09H
	DB	0c1H
	DB	0bfH
	DB	0bfH
	DB	0dH
	DB	0dH
	DB	0dH
	DB	0dH
	DB	0c1H
	DB	0c1H
	DB	0c1H
	DB	0eH
	DB	0eH
	DB	071H
	DB	071H
	DB	082H
	DB	014H
	DB	065H
	DB	065H
	DB	013H
	DB	0c2H
	DB	016H
	DB	0c3H
	DB	016H
	DB	0c2H
	DB	065H
	DB	082H
	DB	0eH
	DB	0c1H
	DB	0bfH
	DB	0bH
	DB	09H
	DB	063H
	DB	026H
	DB	031H
	DB	04H
	DB	04H
	DB	04H
	DB	04H
	DB	04H
	DB	04H
	DB	030H
	DB	019H
	DB	079H
	DB	03H
	DB	03H
	DB	03H
	DB	03H
	DB	03H
	DB	03H
	DB	03H
	DB	03H
	DB	03H
	DB	03H
	DB	03H
	DB	03H
	DB	03H
	DB	019H
	DB	041H
	DB	04H
	DB	04H
	DB	04H
	DB	04H
	DB	04H
	DB	03dH
	DB	00H
	DB	02cH
	DB	079H
	DB	03H
	DB	03H
	DB	03H
	DB	03H
	DB	03H
	DB	03H
	DB	019H
	DB	050H
	DB	04H
	DB	04H
	DB	04H
	DB	04H
	DB	04H
	DB	02eH
	DB	030H
	DB	02H
	DB	038H
	DB	055H
	DB	02cH
	DB	02cH
	DB	026H
	DB	038H
	DB	019H
	DB	027H
	DB	030H
	DB	046H
	DB	026H
	DB	06H
	DB	062H
	DB	03H
	DB	027H
	DB	02H
	DB	026H
	DB	054H
	DB	09H
	DB	0bH
	DB	0bfH
	DB	05bH
	DB	054H
	DB	019H
	DB	050H
	DB	04H
	DB	04H
	DB	04H
	DB	04H
	DB	04H
	DB	03cH
	DB	076H
	DB	03H
	DB	027H
	DB	026H
	DB	080H
	DB	072H
	DB	012H
	DB	0f2H
	DB	012H
	DB	072H
	DB	07aH
	DB	027H
	DB	045H
	DB	04H
	DB	04H
	DB	04H
	DB	04H
	DB	049H
	DB	02aH
	DB	0dH
	DB	011H
	DB	09bH
	DB	0f2H
	DB	0f2H
	DB	0f2H
	DB	0f2H
	DB	09bH
	DB	09bH
	DB	09bH
	DB	012H
	DB	012H
	DB	012H
	DB	012H
	DB	012H
	DB	012H
	DB	012H
	DB	012H
	DB	012H
	DB	011H
	DB	011H
	DB	011H
	DB	011H
	DB	011H
	DB	011H
	DB	011H
	DB	011H
	DB	0c4H
	DB	0c4H
	DB	0c4H
	DB	0c3H
	DB	0c3H
	DB	016H
	DB	016H
	DB	016H
	DB	016H
	DB	016H
	DB	013H
	DB	04eH
	DB	028H
	DB	01eH
	DB	01eH
	DB	01eH
	DB	06eH
	DB	022H
	DB	060H
	DB	0c1H
	DB	0bfH
	DB	0dH
	DB	0dH
	DB	0dH
	DB	0dH
	DB	0c1H
	DB	0c1H
	DB	0c1H
	DB	0eH
	DB	0eH
	DB	0eH
	DB	071H
	DB	082H
	DB	014H
	DB	065H
	DB	065H
	DB	013H
	DB	013H
	DB	0c2H
	DB	016H
	DB	0c3H
	DB	0c4H
	DB	016H
	DB	0c2H
	DB	013H
	DB	014H
	DB	071H
	DB	0c1H
	DB	0dH
	DB	0bfH
	DB	0bH
	DB	055H
	DB	031H
	DB	04H
	DB	04H
	DB	04H
	DB	04H
	DB	04H
	DB	04H
	DB	030H
	DB	019H
	DB	079H
	DB	03H
	DB	03H
	DB	03H
	DB	03H
	DB	03H
	DB	03H
	DB	03H
	DB	03H
	DB	03H
	DB	03H
	DB	03H
	DB	03H
	DB	03H
	DB	019H
	DB	041H
	DB	04H
	DB	04H
	DB	04H
	DB	04H
	DB	04H
	DB	03dH
	DB	00H
	DB	05H
	DB	079H
	DB	03H
	DB	03H
	DB	03H
	DB	03H
	DB	03H
	DB	03H
	DB	053H
	DB	02aH
	DB	03bH
	DB	04H
	DB	04H
	DB	04H
	DB	04H
	DB	04H
	DB	04H
	DB	048H
	DB	02dH
	DB	03eH
	DB	029H
	DB	03eH
	DB	044H
	DB	030H
	DB	04cH
	DB	03bH
	DB	04H
	DB	051H
	DB	019H
	DB	06H
	DB	07H
	DB	038H
	DB	04aH
	DB	045H
	DB	037H
	DB	03eH
	DB	02H
	DB	019H
	DB	019H
	DB	019H
	DB	03eH
	DB	050H
	DB	02eH
	DB	04H
	DB	04H
	DB	04H
	DB	04H
	DB	032H
	DB	02aH
	DB	07aH
	DB	01H
	DB	036H
	DB	051H
	DB	046H
	DB	029H
	DB	038H
	DB	038H
	DB	038H
	DB	075H
	DB	044H
	DB	03aH
	DB	04H
	DB	04H
	DB	04H
	DB	04H
	DB	04H
	DB	04cH
	DB	019H
	DB	082H
	DB	011H
	DB	0f2H
	DB	015H
	DB	015H
	DB	0f2H
	DB	0f2H
	DB	0f2H
	DB	09bH
	DB	09bH
	DB	09bH
	DB	09bH
	DB	012H
	DB	012H
	DB	012H
	DB	012H
	DB	012H
	DB	012H
	DB	012H
	DB	012H
	DB	011H
	DB	011H
	DB	011H
	DB	011H
	DB	011H
	DB	011H
	DB	011H
	DB	011H
	DB	0c4H
	DB	0c4H
	DB	0c4H
	DB	0c3H
	DB	0c3H
	DB	016H
	DB	016H
	DB	016H
	DB	016H
	DB	013H
	DB	04eH
	DB	028H
	DB	01eH
	DB	01eH
	DB	01eH
	DB	06eH
	DB	022H
	DB	060H
	DB	0c1H
	DB	0dH
	DB	0dH
	DB	0dH
	DB	0dH
	DB	0c1H
	DB	0c1H
	DB	0c1H
	DB	0eH
	DB	0eH
	DB	071H
	DB	071H
	DB	082H
	DB	014H
	DB	065H
	DB	065H
	DB	013H
	DB	013H
	DB	0c2H
	DB	016H
	DB	0c3H
	DB	011H
	DB	011H
	DB	011H
	DB	0c3H
	DB	016H
	DB	013H
	DB	065H
	DB	014H
	DB	0eH
	DB	0c1H
	DB	0bfH
	DB	055H
	DB	031H
	DB	04H
	DB	04H
	DB	04H
	DB	04H
	DB	04H
	DB	04H
	DB	030H
	DB	019H
	DB	03H
	DB	03H
	DB	03H
	DB	03H
	DB	03H
	DB	03H
	DB	03H
	DB	03H
	DB	03H
	DB	03H
	DB	03H
	DB	03H
	DB	03H
	DB	03H
	DB	019H
	DB	041H
	DB	04H
	DB	04H
	DB	04H
	DB	04H
	DB	04H
	DB	03dH
	DB	00H
	DB	05H
	DB	079H
	DB	03H
	DB	03H
	DB	03H
	DB	03H
	DB	03H
	DB	03H
	DB	03H
	DB	019H
	DB	02dH
	DB	02eH
	DB	04H
	DB	04H
	DB	04H
	DB	04H
	DB	04H
	DB	04H
	DB	04H
	DB	023H
	DB	032H
	DB	032H
	DB	04H
	DB	04H
	DB	04H
	DB	04H
	DB	04H
	DB	03bH
	DB	02aH
	DB	043H
	DB	047H
	DB	019H
	DB	048H
	DB	04H
	DB	04H
	DB	023H
	DB	03dH
	DB	03aH
	DB	03aH
	DB	03dH
	DB	023H
	DB	04H
	DB	04H
	DB	04H
	DB	04H
	DB	04H
	DB	04H
	DB	04bH
	DB	038H
	DB	063H
	DB	02aH
	DB	023H
	DB	04H
	DB	04H
	DB	03bH
	DB	036H
	DB	058H
	DB	03aH
	DB	045H
	DB	02eH
	DB	04H
	DB	04H
	DB	04H
	DB	04H
	DB	04H
	DB	032H
	DB	03eH
	DB	076H
	DB	065H
	DB	011H
	DB	015H
	DB	015H
	DB	015H
	DB	015H
	DB	015H
	DB	015H
	DB	0f2H
	DB	0f2H
	DB	0f2H
	DB	09bH
	DB	09bH
	DB	09bH
	DB	012H
	DB	012H
	DB	012H
	DB	012H
	DB	012H
	DB	012H
	DB	012H
	DB	012H
	DB	011H
	DB	011H
	DB	011H
	DB	011H
	DB	011H
	DB	011H
	DB	011H
	DB	0c4H
	DB	0c4H
	DB	0c4H
	DB	0c3H
	DB	0c3H
	DB	0c3H
	DB	016H
	DB	0c3H
	DB	013H
	DB	04eH
	DB	028H
	DB	01eH
	DB	01eH
	DB	01eH
	DB	06eH
	DB	022H
	DB	060H
	DB	0c1H
	DB	0dH
	DB	0dH
	DB	0dH
	DB	0c1H
	DB	0c1H
	DB	0c1H
	DB	0eH
	DB	0eH
	DB	071H
	DB	071H
	DB	014H
	DB	014H
	DB	065H
	DB	065H
	DB	013H
	DB	013H
	DB	0c2H
	DB	016H
	DB	0c3H
	DB	0c4H
	DB	011H
	DB	011H
	DB	011H
	DB	011H
	DB	011H
	DB	016H
	DB	0c2H
	DB	013H
	DB	014H
	DB	071H
	DB	0eH
	DB	06aH
	DB	031H
	DB	04H
	DB	04H
	DB	04H
	DB	04H
	DB	04H
	DB	04H
	DB	030H
	DB	019H
	DB	03H
	DB	03H
	DB	03H
	DB	03H
	DB	03H
	DB	03H
	DB	03H
	DB	03H
	DB	03H
	DB	03H
	DB	03H
	DB	03H
	DB	03H
	DB	03H
	DB	019H
	DB	041H
	DB	04H
	DB	04H
	DB	04H
	DB	04H
	DB	04H
	DB	03dH
	DB	00H
	DB	05H
	DB	03H
	DB	03H
	DB	03H
	DB	03H
	DB	03H
	DB	03H
	DB	03H
	DB	03H
	DB	05H
	DB	02H
	DB	03cH
	DB	023H
	DB	04H
	DB	04H
	DB	04H
	DB	04H
	DB	04H
	DB	04H
	DB	04H
	DB	04H
	DB	04H
	DB	04H
	DB	04H
	DB	04H
	DB	04H
	DB	04H
	DB	04H
	DB	040H
	DB	06aH
	DB	05aH
	DB	01aH
	DB	03dH
	DB	04H
	DB	04H
	DB	04H
	DB	04H
	DB	04H
	DB	04H
	DB	04H
	DB	04H
	DB	04H
	DB	04H
	DB	04H
	DB	04H
	DB	04H
	DB	04cH
	DB	00H
	DB	05aH
	DB	07aH
	DB	046H
	DB	04H
	DB	04H
	DB	04H
	DB	04H
	DB	04H
	DB	04H
	DB	04H
	DB	04H
	DB	04H
	DB	04H
	DB	04H
	DB	04H
	DB	04H
	DB	02eH
	DB	02dH
	DB	019H
	DB	0bH
	DB	013H
	DB	012H
	DB	015H
	DB	015H
	DB	015H
	DB	015H
	DB	015H
	DB	015H
	DB	015H
	DB	015H
	DB	0f2H
	DB	0f2H
	DB	0f2H
	DB	0f2H
	DB	09bH
	DB	012H
	DB	012H
	DB	012H
	DB	012H
	DB	012H
	DB	012H
	DB	012H
	DB	012H
	DB	011H
	DB	011H
	DB	011H
	DB	011H
	DB	011H
	DB	011H
	DB	011H
	DB	0c4H
	DB	0c4H
	DB	0c4H
	DB	0c3H
	DB	0c3H
	DB	016H
	DB	0c3H
	DB	013H
	DB	04eH
	DB	028H
	DB	01eH
	DB	01eH
	DB	01eH
	DB	06eH
	DB	022H
	DB	060H
	DB	0eH
	DB	0dH
	DB	0c1H
	DB	0c1H
	DB	0c1H
	DB	0c1H
	DB	0eH
	DB	0eH
	DB	0eH
	DB	071H
	DB	082H
	DB	014H
	DB	014H
	DB	065H
	DB	013H
	DB	013H
	DB	0c2H
	DB	016H
	DB	016H
	DB	0c4H
	DB	011H
	DB	011H
	DB	012H
	DB	012H
	DB	012H
	DB	012H
	DB	011H
	DB	011H
	DB	016H
	DB	0c2H
	DB	013H
	DB	014H
	DB	043H
	DB	031H
	DB	04H
	DB	04H
	DB	04H
	DB	04H
	DB	04H
	DB	04H
	DB	030H
	DB	019H
	DB	03H
	DB	03H
	DB	03H
	DB	03H
	DB	03H
	DB	03H
	DB	03H
	DB	03H
	DB	03H
	DB	03H
	DB	03H
	DB	03H
	DB	03H
	DB	03H
	DB	019H
	DB	04dH
	DB	04H
	DB	04H
	DB	04H
	DB	04H
	DB	04H
	DB	03dH
	DB	00H
	DB	05H
	DB	03H
	DB	03H
	DB	03H
	DB	03H
	DB	03H
	DB	03H
	DB	03H
	DB	03H
	DB	03H
	DB	05H
	DB	02H
	DB	040H
	DB	058H
	DB	04H
	DB	04H
	DB	04H
	DB	04H
	DB	04H
	DB	04H
	DB	04H
	DB	04H
	DB	04H
	DB	04H
	DB	04H
	DB	02eH
	DB	03aH
	DB	02dH
	DB	02H
	DB	054H
	DB	054H
	DB	02aH
	DB	036H
	DB	04H
	DB	04H
	DB	04H
	DB	04H
	DB	04H
	DB	04H
	DB	04H
	DB	04H
	DB	04H
	DB	04H
	DB	04H
	DB	03bH
	DB	031H
	DB	00H
	DB	05H
	DB	0bfH
	DB	076H
	DB	02dH
	DB	023H
	DB	04H
	DB	04H
	DB	04H
	DB	04H
	DB	04H
	DB	04H
	DB	04H
	DB	04H
	DB	04H
	DB	04H
	DB	04H
	DB	036H
	DB	040H
	DB	019H
	DB	07H
	DB	0eH
	DB	016H
	DB	09bH
	DB	015H
	DB	015H
	DB	015H
	DB	015H
	DB	015H
	DB	015H
	DB	015H
	DB	015H
	DB	015H
	DB	015H
	DB	0f2H
	DB	0f2H
	DB	0f2H
	DB	09bH
	DB	09bH
	DB	012H
	DB	012H
	DB	012H
	DB	012H
	DB	012H
	DB	012H
	DB	012H
	DB	011H
	DB	011H
	DB	011H
	DB	011H
	DB	011H
	DB	011H
	DB	011H
	DB	011H
	DB	0c4H
	DB	0c3H
	DB	0c3H
	DB	0c3H
	DB	0c3H
	DB	0c2H
	DB	04eH
	DB	028H
	DB	01eH
	DB	01eH
	DB	01eH
	DB	06eH
	DB	022H
	DB	060H
	DB	0eH
	DB	0c1H
	DB	0c1H
	DB	0c1H
	DB	0c1H
	DB	0eH
	DB	0eH
	DB	071H
	DB	071H
	DB	082H
	DB	014H
	DB	014H
	DB	065H
	DB	013H
	DB	013H
	DB	0c2H
	DB	016H
	DB	016H
	DB	0c4H
	DB	011H
	DB	011H
	DB	012H
	DB	012H
	DB	012H
	DB	012H
	DB	012H
	DB	012H
	DB	012H
	DB	011H
	DB	0c3H
	DB	016H
	DB	0c2H
	DB	06H
	DB	03eH
	DB	04aH
	DB	04bH
	DB	04bH
	DB	04bH
	DB	04bH
	DB	04aH
	DB	03eH
	DB	038H
	DB	03H
	DB	03H
	DB	03H
	DB	03H
	DB	03H
	DB	03H
	DB	03H
	DB	03H
	DB	03H
	DB	03H
	DB	03H
	DB	03H
	DB	03H
	DB	03H
	DB	026H
	DB	044H
	DB	04aH
	DB	04bH
	DB	04bH
	DB	04bH
	DB	04aH
	DB	030H
	DB	02H
	DB	05H
	DB	03H
	DB	03H
	DB	03H
	DB	03H
	DB	03H
	DB	03H
	DB	03H
	DB	03H
	DB	03H
	DB	03H
	DB	05H
	DB	019H
	DB	00H
	DB	044H
	DB	041H
	DB	036H
	DB	032H
	DB	023H
	DB	023H
	DB	023H
	DB	032H
	DB	045H
	DB	051H
	DB	031H
	DB	03eH
	DB	02H
	DB	019H
	DB	05H
	DB	062H
	DB	047H
	DB	02cH
	DB	027H
	DB	02dH
	DB	04cH
	DB	045H
	DB	032H
	DB	023H
	DB	023H
	DB	023H
	DB	032H
	DB	045H
	DB	048H
	DB	037H
	DB	02aH
	DB	019H
	DB	043H
	DB	09H
	DB	071H
	DB	014H
	DB	053H
	DB	029H
	DB	031H
	DB	058H
	DB	03bH
	DB	023H
	DB	023H
	DB	023H
	DB	023H
	DB	032H
	DB	036H
	DB	041H
	DB	046H
	DB	02H
	DB	026H
	DB	07H
	DB	0bfH
	DB	013H
	DB	012H
	DB	015H
	DB	017H
	DB	017H
	DB	017H
	DB	017H
	DB	015H
	DB	015H
	DB	015H
	DB	015H
	DB	015H
	DB	015H
	DB	015H
	DB	015H
	DB	0f2H
	DB	0f2H
	DB	0f2H
	DB	09bH
	DB	09bH
	DB	09bH
	DB	012H
	DB	012H
	DB	012H
	DB	012H
	DB	012H
	DB	012H
	DB	011H
	DB	011H
	DB	011H
	DB	011H
	DB	011H
	DB	011H
	DB	0c4H
	DB	0c4H
	DB	0c4H
	DB	0c3H
	DB	0c4H
	DB	0c2H
	DB	04eH
	DB	028H
	DB	01eH
	DB	01eH
	DB	01eH
	DB	06eH
	DB	022H
	DB	0bH
	DB	0eH
	DB	0c1H
	DB	0c1H
	DB	0c1H
	DB	0eH
	DB	0eH
	DB	071H
	DB	071H
	DB	082H
	DB	014H
	DB	014H
	DB	065H
	DB	013H
	DB	013H
	DB	0c2H
	DB	0c2H
	DB	016H
	DB	0c4H
	DB	011H
	DB	011H
	DB	012H
	DB	012H
	DB	012H
	DB	012H
	DB	09bH
	DB	09bH
	DB	09bH
	DB	09bH
	DB	012H
	DB	012H
	DB	011H
	DB	0c4H
	DB	014H
	DB	054H
	DB	055H
	DB	038H
	DB	019H
	DB	019H
	DB	019H
	DB	019H
	DB	01H
	DB	05H
	DB	03H
	DB	03H
	DB	03H
	DB	03H
	DB	03H
	DB	03H
	DB	03H
	DB	03H
	DB	03H
	DB	03H
	DB	03H
	DB	03H
	DB	03H
	DB	03H
	DB	079H
	DB	01H
	DB	019H
	DB	019H
	DB	02H
	DB	02H
	DB	02H
	DB	02H
	DB	08H
	DB	05H
	DB	03H
	DB	03H
	DB	03H
	DB	03H
	DB	03H
	DB	03H
	DB	03H
	DB	03H
	DB	03H
	DB	03H
	DB	079H
	DB	05H
	DB	08H
	DB	019H
	DB	02H
	DB	00H
	DB	027H
	DB	029H
	DB	03eH
	DB	029H
	DB	027H
	DB	00H
	DB	00H
	DB	02H
	DB	019H
	DB	08cH
	DB	02cH
	DB	03H
	DB	062H
	DB	09H
	DB	0bH
	DB	05aH
	DB	055H
	DB	019H
	DB	00H
	DB	027H
	DB	029H
	DB	029H
	DB	029H
	DB	027H
	DB	00H
	DB	019H
	DB	038H
	DB	02cH
	DB	06H
	DB	09H
	DB	0c1H
	DB	0c2H
	DB	0f2H
	DB	011H
	DB	099H
	DB	06aH
	DB	019H
	DB	00H
	DB	02aH
	DB	029H
	DB	029H
	DB	029H
	DB	00H
	DB	02H
	DB	019H
	DB	055H
	DB	054H
	DB	09H
	DB	0bfH
	DB	014H
	DB	011H
	DB	015H
	DB	017H
	DB	017H
	DB	017H
	DB	017H
	DB	017H
	DB	017H
	DB	017H
	DB	015H
	DB	015H
	DB	015H
	DB	015H
	DB	015H
	DB	015H
	DB	015H
	DB	015H
	DB	0f2H
	DB	0f2H
	DB	09bH
	DB	09bH
	DB	012H
	DB	012H
	DB	012H
	DB	012H
	DB	012H
	DB	012H
	DB	012H
	DB	011H
	DB	011H
	DB	011H
	DB	011H
	DB	011H
	DB	011H
	DB	011H
	DB	0c4H
	DB	0c4H
	DB	0c4H
	DB	0c2H
	DB	04eH
	DB	028H
	DB	01eH
	DB	01eH
	DB	01eH
	DB	034H
	DB	022H
	DB	0bH
	DB	0eH
	DB	0c1H
	DB	0c1H
	DB	0eH
	DB	0eH
	DB	0eH
	DB	071H
	DB	082H
	DB	014H
	DB	014H
	DB	065H
	DB	013H
	DB	013H
	DB	0c2H
	DB	0c2H
	DB	016H
	DB	0c3H
	DB	011H
	DB	011H
	DB	012H
	DB	012H
	DB	012H
	DB	012H
	DB	09bH
	DB	09bH
	DB	0f2H
	DB	0f2H
	DB	0f2H
	DB	0f2H
	DB	0f2H
	DB	012H
	DB	012H
	DB	011H
	DB	0c2H
	DB	0c1H
	DB	09H
	DB	06H
	DB	03H
	DB	079H
	DB	05H
	DB	03H
	DB	03H
	DB	06H
	DB	06H
	DB	06H
	DB	03H
	DB	03H
	DB	03H
	DB	03H
	DB	03H
	DB	03H
	DB	03H
	DB	03H
	DB	03H
	DB	03H
	DB	03H
	DB	03H
	DB	03H
	DB	05H
	DB	0aH
	DB	08H
	DB	08cH
	DB	08cH
	DB	08H
	DB	02cH
	DB	05H
	DB	03H
	DB	03H
	DB	03H
	DB	03H
	DB	03H
	DB	03H
	DB	03H
	DB	03H
	DB	03H
	DB	03H
	DB	03H
	DB	079H
	DB	05H
	DB	02cH
	DB	08H
	DB	08cH
	DB	01H
	DB	019H
	DB	019H
	DB	019H
	DB	01H
	DB	01H
	DB	08cH
	DB	08dH
	DB	0aH
	DB	05H
	DB	03H
	DB	06H
	DB	047H
	DB	0bH
	DB	0bfH
	DB	0bfH
	DB	09H
	DB	062H
	DB	03H
	DB	05H
	DB	02cH
	DB	02cH
	DB	02cH
	DB	043H
	DB	03H
	DB	06H
	DB	07H
	DB	09H
	DB	0bH
	DB	0eH
	DB	016H
	DB	012H
	DB	017H
	DB	015H
	DB	012H
	DB	065H
	DB	0bH
	DB	063H
	DB	06H
	DB	03H
	DB	03H
	DB	054H
	DB	06H
	DB	07H
	DB	047H
	DB	09H
	DB	0bH
	DB	0eH
	DB	013H
	DB	011H
	DB	015H
	DB	017H
	DB	017H
	DB	017H
	DB	017H
	DB	017H
	DB	017H
	DB	017H
	DB	017H
	DB	017H
	DB	015H
	DB	015H
	DB	015H
	DB	015H
	DB	015H
	DB	015H
	DB	015H
	DB	015H
	DB	0f2H
	DB	0f2H
	DB	0f2H
	DB	09bH
	DB	09bH
	DB	012H
	DB	012H
	DB	012H
	DB	012H
	DB	012H
	DB	012H
	DB	011H
	DB	011H
	DB	011H
	DB	011H
	DB	011H
	DB	011H
	DB	0c4H
	DB	0c4H
	DB	0c4H
	DB	0c2H
	DB	04eH
	DB	028H
	DB	01eH
	DB	01eH
	DB	01eH
	DB	034H
	DB	022H
	DB	064H
	DB	071H
	DB	0c1H
	DB	0eH
	DB	0eH
	DB	0eH
	DB	071H
	DB	082H
	DB	014H
	DB	014H
	DB	065H
	DB	013H
	DB	013H
	DB	0c2H
	DB	0c2H
	DB	016H
	DB	0c3H
	DB	011H
	DB	011H
	DB	011H
	DB	012H
	DB	012H
	DB	012H
	DB	09bH
	DB	09bH
	DB	0f2H
	DB	0f2H
	DB	015H
	DB	015H
	DB	015H
	DB	015H
	DB	015H
	DB	0f2H
	DB	012H
	DB	0c4H
	DB	013H
	DB	0c1H
	DB	0bH
	DB	09H
	DB	047H
	DB	07H
	DB	07H
	DB	07H
	DB	07H
	DB	07H
	DB	06H
	DB	06H
	DB	03H
	DB	03H
	DB	03H
	DB	03H
	DB	03H
	DB	03H
	DB	03H
	DB	03H
	DB	03H
	DB	03H
	DB	03H
	DB	03H
	DB	079H
	DB	05H
	DB	05H
	DB	02cH
	DB	02cH
	DB	05H
	DB	05H
	DB	03H
	DB	03H
	DB	03H
	DB	03H
	DB	03H
	DB	03H
	DB	03H
	DB	03H
	DB	03H
	DB	03H
	DB	03H
	DB	03H
	DB	03H
	DB	03H
	DB	079H
	DB	05H
	DB	05H
	DB	0aH
	DB	0aH
	DB	0aH
	DB	0aH
	DB	0aH
	DB	0aH
	DB	02cH
	DB	05H
	DB	03H
	DB	06H
	DB	062H
	DB	047H
	DB	060H
	DB	0bfH
	DB	0dH
	DB	0dH
	DB	0bfH
	DB	0bH
	DB	09H
	DB	09H
	DB	047H
	DB	047H
	DB	09H
	DB	09H
	DB	060H
	DB	0bH
	DB	0dH
	DB	0eH
	DB	013H
	DB	011H
	DB	0f2H
	DB	017H
	DB	010H
	DB	017H
	DB	015H
	DB	011H
	DB	013H
	DB	014H
	DB	0eH
	DB	0c1H
	DB	0dH
	DB	0dH
	DB	0dH
	DB	0c1H
	DB	0eH
	DB	014H
	DB	013H
	DB	0c4H
	DB	012H
	DB	015H
	DB	017H
	DB	010H
	DB	017H
	DB	017H
	DB	017H
	DB	017H
	DB	017H
	DB	017H
	DB	017H
	DB	017H
	DB	017H
	DB	017H
	DB	017H
	DB	015H
	DB	015H
	DB	015H
	DB	015H
	DB	015H
	DB	015H
	DB	0f2H
	DB	0f2H
	DB	0f2H
	DB	09bH
	DB	09bH
	DB	012H
	DB	012H
	DB	012H
	DB	012H
	DB	012H
	DB	012H
	DB	011H
	DB	011H
	DB	011H
	DB	011H
	DB	011H
	DB	011H
	DB	0c4H
	DB	011H
	DB	016H
	DB	04eH
	DB	028H
	DB	01eH
	DB	01eH
	DB	01eH
	DB	034H
	DB	022H
	DB	064H
	DB	071H
	DB	0eH
	DB	0eH
	DB	0eH
	DB	071H
	DB	071H
	DB	014H
	DB	014H
	DB	065H
	DB	013H
	DB	013H
	DB	0c2H
	DB	0c2H
	DB	016H
	DB	016H
	DB	0c4H
	DB	011H
	DB	011H
	DB	012H
	DB	012H
	DB	012H
	DB	09bH
	DB	09bH
	DB	0f2H
	DB	0f2H
	DB	015H
	DB	015H
	DB	015H
	DB	015H
	DB	015H
	DB	015H
	DB	015H
	DB	015H
	DB	012H
	DB	011H
	DB	0c2H
	DB	065H
	DB	071H
	DB	0c1H
	DB	0dH
	DB	0bfH
	DB	0bH
	DB	0bH
	DB	09H
	DB	07H
	DB	062H
	DB	06H
	DB	03H
	DB	03H
	DB	03H
	DB	03H
	DB	03H
	DB	03H
	DB	03H
	DB	03H
	DB	03H
	DB	03H
	DB	03H
	DB	03H
	DB	03H
	DB	03H
	DB	079H
	DB	079H
	DB	03H
	DB	03H
	DB	03H
	DB	03H
	DB	03H
	DB	03H
	DB	03H
	DB	03H
	DB	03H
	DB	03H
	DB	03H
	DB	03H
	DB	03H
	DB	03H
	DB	03H
	DB	03H
	DB	03H
	DB	03H
	DB	079H
	DB	05H
	DB	05H
	DB	05H
	DB	05H
	DB	079H
	DB	03H
	DB	03H
	DB	06H
	DB	062H
	DB	07H
	DB	09H
	DB	0bH
	DB	0bfH
	DB	0dH
	DB	0c1H
	DB	0eH
	DB	0eH
	DB	0eH
	DB	0c1H
	DB	0c1H
	DB	0c1H
	DB	0c1H
	DB	0eH
	DB	071H
	DB	014H
	DB	013H
	DB	0c2H
	DB	011H
	DB	012H
	DB	015H
	DB	017H
	DB	010H
	DB	010H
	DB	010H
	DB	017H
	DB	015H
	DB	09bH
	DB	012H
	DB	011H
	DB	0c3H
	DB	016H
	DB	016H
	DB	016H
	DB	0c3H
	DB	011H
	DB	012H
	DB	0f2H
	DB	015H
	DB	017H
	DB	010H
	DB	010H
	DB	010H
	DB	010H
	DB	010H
	DB	010H
	DB	017H
	DB	017H
	DB	017H
	DB	017H
	DB	017H
	DB	017H
	DB	017H
	DB	017H
	DB	017H
	DB	015H
	DB	015H
	DB	015H
	DB	015H
	DB	015H
	DB	015H
	DB	015H
	DB	0f2H
	DB	0f2H
	DB	09bH
	DB	09bH
	DB	012H
	DB	012H
	DB	012H
	DB	012H
	DB	012H
	DB	012H
	DB	011H
	DB	011H
	DB	011H
	DB	011H
	DB	011H
	DB	011H
	DB	011H
	DB	016H
	DB	04eH
	DB	028H
	DB	01eH
	DB	035H
	DB	01eH
	DB	034H
	DB	022H
	DB	064H
	DB	071H
	DB	0eH
	DB	0eH
	DB	071H
	DB	071H
	DB	082H
	DB	014H
	DB	065H
	DB	065H
	DB	013H
	DB	013H
	DB	0c2H
	DB	016H
	DB	016H
	DB	0c3H
	DB	011H
	DB	011H
	DB	012H
	DB	012H
	DB	012H
	DB	09bH
	DB	09bH
	DB	0f2H
	DB	0f2H
	DB	015H
	DB	015H
	DB	015H
	DB	015H
	DB	015H
	DB	015H
	DB	017H
	DB	017H
	DB	017H
	DB	015H
	DB	015H
	DB	012H
	DB	011H
	DB	0c3H
	DB	0c2H
	DB	013H
	DB	014H
	DB	0eH
	DB	0c1H
	DB	0bfH
	DB	060H
	DB	047H
	DB	07H
	DB	06H
	DB	06H
	DB	03H
	DB	03H
	DB	03H
	DB	03H
	DB	03H
	DB	03H
	DB	054H
	DB	054H
	DB	03H
	DB	03H
	DB	03H
	DB	03H
	DB	03H
	DB	03H
	DB	03H
	DB	03H
	DB	03H
	DB	03H
	DB	054H
	DB	054H
	DB	054H
	DB	054H
	DB	054H
	DB	054H
	DB	054H
	DB	054H
	DB	054H
	DB	054H
	DB	054H
	DB	03H
	DB	03H
	DB	03H
	DB	03H
	DB	03H
	DB	03H
	DB	03H
	DB	03H
	DB	06H
	DB	06H
	DB	062H
	DB	07H
	DB	09H
	DB	060H
	DB	0bH
	DB	0bfH
	DB	0dH
	DB	0c1H
	DB	0eH
	DB	071H
	DB	014H
	DB	065H
	DB	065H
	DB	013H
	DB	013H
	DB	0c2H
	DB	016H
	DB	0c3H
	DB	011H
	DB	012H
	DB	09bH
	DB	015H
	DB	017H
	DB	010H
	DB	010H
	DB	010H
	DB	010H
	DB	010H
	DB	010H
	DB	010H
	DB	010H
	DB	017H
	DB	017H
	DB	017H
	DB	015H
	DB	015H
	DB	015H
	DB	017H
	DB	017H
	DB	017H
	DB	010H
	DB	010H
	DB	010H
	DB	010H
	DB	010H
	DB	010H
	DB	010H
	DB	010H
	DB	010H
	DB	010H
	DB	017H
	DB	017H
	DB	017H
	DB	017H
	DB	017H
	DB	017H
	DB	017H
	DB	017H
	DB	017H
	DB	015H
	DB	015H
	DB	015H
	DB	015H
	DB	015H
	DB	015H
	DB	015H
	DB	0f2H
	DB	0f2H
	DB	09bH
	DB	09bH
	DB	012H
	DB	012H
	DB	012H
	DB	012H
	DB	012H
	DB	011H
	DB	011H
	DB	011H
	DB	011H
	DB	011H
	DB	011H
	DB	011H
	DB	016H
	DB	04eH
	DB	028H
	DB	01eH
	DB	035H
	DB	01eH
	DB	034H
	DB	022H
	DB	064H
	DB	014H
	DB	0eH
	DB	071H
	DB	071H
	DB	014H
	DB	014H
	DB	014H
	DB	065H
	DB	013H
	DB	013H
	DB	0c2H
	DB	0c2H
	DB	016H
	DB	0c3H
	DB	011H
	DB	011H
	DB	012H
	DB	012H
	DB	012H
	DB	09bH
	DB	09bH
	DB	0f2H
	DB	0f2H
	DB	015H
	DB	015H
	DB	015H
	DB	015H
	DB	015H
	DB	015H
	DB	017H
	DB	017H
	DB	017H
	DB	017H
	DB	017H
	DB	017H
	DB	017H
	DB	015H
	DB	09bH
	DB	011H
	DB	0c4H
	DB	0c2H
	DB	013H
	DB	014H
	DB	0eH
	DB	0bfH
	DB	0bH
	DB	09H
	DB	07H
	DB	062H
	DB	06H
	DB	06H
	DB	03H
	DB	03H
	DB	03H
	DB	054H
	DB	054H
	DB	054H
	DB	054H
	DB	054H
	DB	054H
	DB	054H
	DB	054H
	DB	054H
	DB	054H
	DB	054H
	DB	054H
	DB	054H
	DB	054H
	DB	054H
	DB	054H
	DB	054H
	DB	054H
	DB	054H
	DB	054H
	DB	054H
	DB	054H
	DB	054H
	DB	054H
	DB	054H
	DB	054H
	DB	054H
	DB	054H
	DB	054H
	DB	054H
	DB	06H
	DB	06H
	DB	062H
	DB	07H
	DB	047H
	DB	09H
	DB	060H
	DB	0bH
	DB	0bfH
	DB	0dH
	DB	0c1H
	DB	0eH
	DB	071H
	DB	014H
	DB	065H
	DB	013H
	DB	0c2H
	DB	016H
	DB	0c4H
	DB	011H
	DB	012H
	DB	012H
	DB	0f2H
	DB	015H
	DB	017H
	DB	017H
	DB	010H
	DB	010H
	DB	010H
	DB	010H
	DB	010H
	DB	010H
	DB	010H
	DB	010H
	DB	010H
	DB	010H
	DB	010H
	DB	010H
	DB	010H
	DB	010H
	DB	010H
	DB	010H
	DB	010H
	DB	010H
	DB	010H
	DB	010H
	DB	010H
	DB	010H
	DB	010H
	DB	010H
	DB	010H
	DB	010H
	DB	010H
	DB	010H
	DB	010H
	DB	010H
	DB	010H
	DB	017H
	DB	017H
	DB	017H
	DB	017H
	DB	017H
	DB	017H
	DB	017H
	DB	015H
	DB	015H
	DB	015H
	DB	015H
	DB	015H
	DB	015H
	DB	015H
	DB	0f2H
	DB	0f2H
	DB	09bH
	DB	09bH
	DB	012H
	DB	012H
	DB	012H
	DB	012H
	DB	012H
	DB	011H
	DB	011H
	DB	011H
	DB	011H
	DB	011H
	DB	011H
	DB	016H
	DB	04eH
	DB	028H
	DB	01eH
	DB	035H
	DB	01eH
	DB	034H
	DB	05eH
	DB	0dH
	DB	014H
	DB	071H
	DB	082H
	DB	082H
	DB	014H
	DB	014H
	DB	065H
	DB	013H
	DB	013H
	DB	0c2H
	DB	0c2H
	DB	016H
	DB	0c3H
	DB	011H
	DB	011H
	DB	011H
	DB	012H
	DB	012H
	DB	012H
	DB	09bH
	DB	0f2H
	DB	0f2H
	DB	015H
	DB	015H
	DB	015H
	DB	015H
	DB	015H
	DB	015H
	DB	017H
	DB	017H
	DB	017H
	DB	017H
	DB	017H
	DB	017H
	DB	017H
	DB	017H
	DB	017H
	DB	017H
	DB	015H
	DB	012H
	DB	011H
	DB	016H
	DB	0c2H
	DB	065H
	DB	071H
	DB	0c1H
	DB	0bfH
	DB	060H
	DB	047H
	DB	062H
	DB	06H
	DB	06H
	DB	03H
	DB	03H
	DB	054H
	DB	054H
	DB	054H
	DB	054H
	DB	054H
	DB	054H
	DB	054H
	DB	054H
	DB	054H
	DB	054H
	DB	054H
	DB	054H
	DB	054H
	DB	054H
	DB	054H
	DB	054H
	DB	054H
	DB	054H
	DB	054H
	DB	054H
	DB	054H
	DB	054H
	DB	054H
	DB	054H
	DB	054H
	DB	054H
	DB	054H
	DB	054H
	DB	06H
	DB	06H
	DB	06H
	DB	062H
	DB	07H
	DB	047H
	DB	09H
	DB	060H
	DB	0bH
	DB	0bfH
	DB	0dH
	DB	0c1H
	DB	0eH
	DB	071H
	DB	014H
	DB	065H
	DB	013H
	DB	0c2H
	DB	016H
	DB	0c4H
	DB	011H
	DB	012H
	DB	09bH
	DB	015H
	DB	015H
	DB	017H
	DB	010H
	DB	010H
	DB	010H
	DB	010H
	DB	0fH
	DB	0fH
	DB	0fH
	DB	0fH
	DB	0fH
	DB	0fH
	DB	0fH
	DB	0fH
	DB	0fH
	DB	0fH
	DB	0fH
	DB	0fH
	DB	0fH
	DB	0fH
	DB	0fH
	DB	0fH
	DB	0fH
	DB	0fH
	DB	010H
	DB	010H
	DB	010H
	DB	010H
	DB	010H
	DB	010H
	DB	010H
	DB	010H
	DB	010H
	DB	010H
	DB	010H
	DB	010H
	DB	017H
	DB	017H
	DB	017H
	DB	017H
	DB	017H
	DB	017H
	DB	017H
	DB	017H
	DB	015H
	DB	015H
	DB	015H
	DB	015H
	DB	015H
	DB	015H
	DB	0f2H
	DB	0f2H
	DB	09bH
	DB	012H
	DB	012H
	DB	012H
	DB	012H
	DB	012H
	DB	012H
	DB	011H
	DB	011H
	DB	011H
	DB	011H
	DB	011H
	DB	016H
	DB	04eH
	DB	028H
	DB	01eH
	DB	035H
	DB	01eH
	DB	034H
	DB	05eH
	DB	0dH
	DB	014H
	DB	071H
	DB	071H
	DB	014H
	DB	014H
	DB	065H
	DB	065H
	DB	013H
	DB	013H
	DB	0c2H
	DB	016H
	DB	016H
	DB	0c4H
	DB	011H
	DB	011H
	DB	012H
	DB	012H
	DB	012H
	DB	09bH
	DB	0f2H
	DB	0f2H
	DB	0f2H
	DB	015H
	DB	015H
	DB	015H
	DB	015H
	DB	015H
	DB	017H
	DB	017H
	DB	017H
	DB	017H
	DB	017H
	DB	017H
	DB	017H
	DB	010H
	DB	010H
	DB	010H
	DB	017H
	DB	017H
	DB	015H
	DB	0f2H
	DB	012H
	DB	011H
	DB	0c2H
	DB	013H
	DB	014H
	DB	0eH
	DB	0dH
	DB	0bH
	DB	09H
	DB	07H
	DB	062H
	DB	06H
	DB	054H
	DB	054H
	DB	054H
	DB	054H
	DB	054H
	DB	054H
	DB	06H
	DB	06H
	DB	06H
	DB	06H
	DB	06H
	DB	06H
	DB	06H
	DB	06H
	DB	06H
	DB	06H
	DB	06H
	DB	06H
	DB	06H
	DB	06H
	DB	06H
	DB	06H
	DB	06H
	DB	06H
	DB	06H
	DB	06H
	DB	06H
	DB	054H
	DB	06H
	DB	06H
	DB	06H
	DB	06H
	DB	062H
	DB	07H
	DB	09H
	DB	09H
	DB	0bH
	DB	0bfH
	DB	0dH
	DB	0c1H
	DB	0eH
	DB	071H
	DB	014H
	DB	065H
	DB	013H
	DB	0c2H
	DB	016H
	DB	0c4H
	DB	011H
	DB	012H
	DB	012H
	DB	015H
	DB	015H
	DB	017H
	DB	010H
	DB	010H
	DB	010H
	DB	0fH
	DB	0fH
	DB	0fH
	DB	0fH
	DB	0fH
	DB	0fH
	DB	0fH
	DB	0fH
	DB	0fH
	DB	0fH
	DB	0fH
	DB	0fH
	DB	0fH
	DB	0fH
	DB	0fH
	DB	0fH
	DB	0fH
	DB	0fH
	DB	0fH
	DB	0fH
	DB	0fH
	DB	0fH
	DB	010H
	DB	010H
	DB	010H
	DB	010H
	DB	010H
	DB	010H
	DB	010H
	DB	010H
	DB	010H
	DB	010H
	DB	010H
	DB	017H
	DB	017H
	DB	017H
	DB	017H
	DB	017H
	DB	017H
	DB	017H
	DB	015H
	DB	015H
	DB	015H
	DB	015H
	DB	015H
	DB	015H
	DB	0f2H
	DB	0f2H
	DB	09bH
	DB	09bH
	DB	012H
	DB	012H
	DB	012H
	DB	012H
	DB	012H
	DB	011H
	DB	011H
	DB	011H
	DB	011H
	DB	011H
	DB	016H
	DB	04eH
	DB	028H
	DB	01eH
	DB	035H
	DB	01eH
	DB	034H
	DB	05eH
	DB	0dH
	DB	014H
	DB	071H
	DB	014H
	DB	014H
	DB	065H
	DB	065H
	DB	013H
	DB	013H
	DB	0c2H
	DB	016H
	DB	016H
	DB	0c4H
	DB	011H
	DB	011H
	DB	012H
	DB	012H
	DB	012H
	DB	09bH
	DB	09bH
	DB	0f2H
	DB	0f2H
	DB	015H
	DB	015H
	DB	015H
	DB	015H
	DB	015H
	DB	017H
	DB	017H
	DB	017H
	DB	017H
	DB	017H
	DB	017H
	DB	017H
	DB	010H
	DB	010H
	DB	010H
	DB	010H
	DB	010H
	DB	010H
	DB	010H
	DB	017H
	DB	015H
	DB	012H
	DB	011H
	DB	016H
	DB	0c2H
	DB	014H
	DB	0eH
	DB	0c1H
	DB	0bH
	DB	09H
	DB	047H
	DB	062H
	DB	06H
	DB	06H
	DB	054H
	DB	054H
	DB	054H
	DB	06H
	DB	06H
	DB	06H
	DB	06H
	DB	06H
	DB	06H
	DB	06H
	DB	06H
	DB	06H
	DB	06H
	DB	06H
	DB	06H
	DB	06H
	DB	06H
	DB	06H
	DB	06H
	DB	06H
	DB	06H
	DB	06H
	DB	06H
	DB	06H
	DB	06H
	DB	06H
	DB	06H
	DB	06H
	DB	06H
	DB	07H
	DB	07H
	DB	047H
	DB	09H
	DB	0bH
	DB	0bfH
	DB	0dH
	DB	0c1H
	DB	0eH
	DB	071H
	DB	014H
	DB	065H
	DB	013H
	DB	0c2H
	DB	016H
	DB	0c4H
	DB	011H
	DB	012H
	DB	012H
	DB	0f2H
	DB	015H
	DB	017H
	DB	017H
	DB	010H
	DB	010H
	DB	0fH
	DB	0fH
	DB	0fH
	DB	0fH
	DB	0fH
	DB	0fH
	DB	0fH
	DB	0fH
	DB	0fH
	DB	0fH
	DB	0fH
	DB	0fH
	DB	0fH
	DB	0fH
	DB	0fH
	DB	0fH
	DB	0fH
	DB	0fH
	DB	0fH
	DB	0fH
	DB	0fH
	DB	0fH
	DB	0fH
	DB	0fH
	DB	0fH
	DB	010H
	DB	010H
	DB	010H
	DB	010H
	DB	010H
	DB	010H
	DB	010H
	DB	010H
	DB	010H
	DB	010H
	DB	010H
	DB	017H
	DB	017H
	DB	017H
	DB	017H
	DB	017H
	DB	017H
	DB	017H
	DB	015H
	DB	015H
	DB	015H
	DB	015H
	DB	015H
	DB	0f2H
	DB	0f2H
	DB	09bH
	DB	09bH
	DB	012H
	DB	012H
	DB	012H
	DB	012H
	DB	012H
	DB	011H
	DB	011H
	DB	011H
	DB	011H
	DB	0c3H
	DB	04eH
	DB	028H
	DB	01eH
	DB	035H
	DB	01eH
	DB	034H
	DB	05eH
	DB	081H
	DB	065H
	DB	082H
	DB	014H
	DB	065H
	DB	065H
	DB	013H
	DB	013H
	DB	0c2H
	DB	0c2H
	DB	016H
	DB	0c3H
	DB	011H
	DB	011H
	DB	012H
	DB	012H
	DB	012H
	DB	09bH
	DB	09bH
	DB	0f2H
	DB	015H
	DB	015H
	DB	015H
	DB	015H
	DB	015H
	DB	015H
	DB	017H
	DB	017H
	DB	017H
	DB	017H
	DB	017H
	DB	017H
	DB	010H
	DB	010H
	DB	010H
	DB	010H
	DB	010H
	DB	010H
	DB	010H
	DB	010H
	DB	010H
	DB	010H
	DB	010H
	DB	017H
	DB	0f2H
	DB	012H
	DB	011H
	DB	016H
	DB	013H
	DB	014H
	DB	0c1H
	DB	0dH
	DB	0bH
	DB	09H
	DB	07H
	DB	062H
	DB	06H
	DB	054H
	DB	054H
	DB	06H
	DB	06H
	DB	06H
	DB	06H
	DB	06H
	DB	06H
	DB	06H
	DB	06H
	DB	06H
	DB	06H
	DB	06H
	DB	06H
	DB	06H
	DB	06H
	DB	06H
	DB	06H
	DB	06H
	DB	06H
	DB	06H
	DB	06H
	DB	06H
	DB	06H
	DB	06H
	DB	06H
	DB	06H
	DB	062H
	DB	07H
	DB	047H
	DB	09H
	DB	060H
	DB	0bH
	DB	0bfH
	DB	0c1H
	DB	0eH
	DB	071H
	DB	014H
	DB	065H
	DB	013H
	DB	0c2H
	DB	016H
	DB	0c4H
	DB	011H
	DB	012H
	DB	012H
	DB	0f2H
	DB	015H
	DB	017H
	DB	017H
	DB	010H
	DB	0fH
	DB	0fH
	DB	0fH
	DB	0fH
	DB	0fH
	DB	0fH
	DB	0fH
	DB	0fH
	DB	0fH
	DB	0fH
	DB	0fH
	DB	0fH
	DB	0fH
	DB	0fH
	DB	0fH
	DB	0fH
	DB	0fH
	DB	0fH
	DB	0fH
	DB	0fH
	DB	0fH
	DB	0fH
	DB	0fH
	DB	0fH
	DB	0fH
	DB	0fH
	DB	0fH
	DB	0fH
	DB	0fH
	DB	010H
	DB	010H
	DB	010H
	DB	010H
	DB	010H
	DB	010H
	DB	010H
	DB	010H
	DB	010H
	DB	010H
	DB	017H
	DB	017H
	DB	017H
	DB	017H
	DB	017H
	DB	017H
	DB	017H
	DB	015H
	DB	015H
	DB	015H
	DB	015H
	DB	015H
	DB	0f2H
	DB	0f2H
	DB	09bH
	DB	09bH
	DB	012H
	DB	012H
	DB	012H
	DB	012H
	DB	012H
	DB	011H
	DB	011H
	DB	011H
	DB	0c3H
	DB	04eH
	DB	028H
	DB	01eH
	DB	035H
	DB	01eH
	DB	034H
	DB	05eH
	DB	081H
	DB	065H
	DB	014H
	DB	014H
	DB	065H
	DB	013H
	DB	013H
	DB	013H
	DB	0c2H
	DB	016H
	DB	016H
	DB	0c4H
	DB	011H
	DB	011H
	DB	012H
	DB	012H
	DB	012H
	DB	09bH
	DB	09bH
	DB	0f2H
	DB	015H
	DB	015H
	DB	015H
	DB	015H
	DB	015H
	DB	017H
	DB	017H
	DB	017H
	DB	017H
	DB	017H
	DB	017H
	DB	017H
	DB	010H
	DB	010H
	DB	010H
	DB	010H
	DB	010H
	DB	010H
	DB	010H
	DB	010H
	DB	0fH
	DB	0fH
	DB	010H
	DB	010H
	DB	017H
	DB	015H
	DB	09bH
	DB	011H
	DB	0c3H
	DB	0c2H
	DB	065H
	DB	0eH
	DB	0c1H
	DB	0bH
	DB	09H
	DB	047H
	DB	062H
	DB	06H
	DB	06H
	DB	06H
	DB	06H
	DB	06H
	DB	06H
	DB	06H
	DB	06H
	DB	06H
	DB	06H
	DB	06H
	DB	06H
	DB	06H
	DB	06H
	DB	06H
	DB	06H
	DB	06H
	DB	06H
	DB	06H
	DB	06H
	DB	06H
	DB	06H
	DB	06H
	DB	06H
	DB	06H
	DB	06H
	DB	062H
	DB	07H
	DB	047H
	DB	09H
	DB	060H
	DB	0bH
	DB	0bfH
	DB	0dH
	DB	0c1H
	DB	0eH
	DB	014H
	DB	065H
	DB	013H
	DB	0c2H
	DB	016H
	DB	0c3H
	DB	011H
	DB	012H
	DB	012H
	DB	0f2H
	DB	015H
	DB	017H
	DB	010H
	DB	010H
	DB	010H
	DB	0fH
	DB	0fH
	DB	0fH
	DB	0fH
	DB	0fH
	DB	0fH
	DB	0fH
	DB	0fH
	DB	0fH
	DB	0fH
	DB	0fH
	DB	0fH
	DB	0fH
	DB	0fH
	DB	0fH
	DB	0fH
	DB	0fH
	DB	0fH
	DB	0fH
	DB	0fH
	DB	0fH
	DB	0fH
	DB	0fH
	DB	0fH
	DB	0fH
	DB	0fH
	DB	0fH
	DB	0fH
	DB	0fH
	DB	0fH
	DB	0fH
	DB	010H
	DB	010H
	DB	010H
	DB	010H
	DB	010H
	DB	010H
	DB	010H
	DB	010H
	DB	010H
	DB	017H
	DB	017H
	DB	017H
	DB	017H
	DB	017H
	DB	017H
	DB	015H
	DB	015H
	DB	015H
	DB	015H
	DB	015H
	DB	015H
	DB	0f2H
	DB	09bH
	DB	09bH
	DB	012H
	DB	012H
	DB	012H
	DB	012H
	DB	012H
	DB	011H
	DB	011H
	DB	011H
	DB	0c3H
	DB	04eH
	DB	028H
	DB	01eH
	DB	035H
	DB	01eH
	DB	034H
	DB	05eH
	DB	081H
	DB	065H
	DB	014H
	DB	065H
	DB	065H
	DB	013H
	DB	013H
	DB	0c2H
	DB	016H
	DB	016H
	DB	0c3H
	DB	011H
	DB	011H
	DB	012H
	DB	012H
	DB	012H
	DB	012H
	DB	09bH
	DB	0f2H
	DB	0f2H
	DB	015H
	DB	015H
	DB	015H
	DB	015H
	DB	017H
	DB	017H
	DB	017H
	DB	017H
	DB	017H
	DB	017H
	DB	017H
	DB	010H
	DB	010H
	DB	010H
	DB	010H
	DB	010H
	DB	010H
	DB	010H
	DB	0fH
	DB	0fH
	DB	0fH
	DB	0fH
	DB	0fH
	DB	0fH
	DB	010H
	DB	010H
	DB	017H
	DB	015H
	DB	012H
	DB	011H
	DB	016H
	DB	013H
	DB	014H
	DB	0c1H
	DB	0bfH
	DB	0bH
	DB	047H
	DB	07H
	DB	06H
	DB	06H
	DB	06H
	DB	06H
	DB	06H
	DB	06H
	DB	06H
	DB	06H
	DB	06H
	DB	06H
	DB	06H
	DB	06H
	DB	06H
	DB	06H
	DB	06H
	DB	06H
	DB	06H
	DB	06H
	DB	06H
	DB	06H
	DB	06H
	DB	06H
	DB	06H
	DB	06H
	DB	062H
	DB	07H
	DB	047H
	DB	09H
	DB	060H
	DB	0bH
	DB	0bfH
	DB	0dH
	DB	0c1H
	DB	0eH
	DB	082H
	DB	065H
	DB	013H
	DB	0c2H
	DB	016H
	DB	0c3H
	DB	011H
	DB	012H
	DB	012H
	DB	0f2H
	DB	015H
	DB	017H
	DB	017H
	DB	010H
	DB	0fH
	DB	0fH
	DB	0fH
	DB	0fH
	DB	0fH
	DB	0fH
	DB	0fH
	DB	0fH
	DB	0fH
	DB	0fH
	DB	0fH
	DB	0fH
	DB	0fH
	DB	0fH
	DB	0fH
	DB	0fH
	DB	0fH
	DB	0fH
	DB	0fH
	DB	0fH
	DB	0fH
	DB	0fH
	DB	0fH
	DB	0fH
	DB	0fH
	DB	0fH
	DB	0fH
	DB	0fH
	DB	0fH
	DB	0fH
	DB	0fH
	DB	0fH
	DB	0fH
	DB	0fH
	DB	010H
	DB	010H
	DB	010H
	DB	010H
	DB	010H
	DB	010H
	DB	010H
	DB	010H
	DB	010H
	DB	017H
	DB	017H
	DB	017H
	DB	017H
	DB	017H
	DB	017H
	DB	015H
	DB	015H
	DB	015H
	DB	015H
	DB	015H
	DB	0f2H
	DB	0f2H
	DB	09bH
	DB	09bH
	DB	012H
	DB	012H
	DB	012H
	DB	012H
	DB	012H
	DB	011H
	DB	011H
	DB	0c3H
	DB	04eH
	DB	028H
	DB	01eH
	DB	035H
	DB	01eH
	DB	034H
	DB	05eH
	DB	081H
	DB	013H
	DB	014H
	DB	065H
	DB	013H
	DB	013H
	DB	0c2H
	DB	0c2H
	DB	016H
	DB	0c3H
	DB	011H
	DB	011H
	DB	011H
	DB	012H
	DB	012H
	DB	012H
	DB	09bH
	DB	0f2H
	DB	0f2H
	DB	015H
	DB	015H
	DB	015H
	DB	015H
	DB	015H
	DB	017H
	DB	017H
	DB	017H
	DB	017H
	DB	017H
	DB	017H
	DB	010H
	DB	010H
	DB	010H
	DB	010H
	DB	010H
	DB	010H
	DB	010H
	DB	010H
	DB	0fH
	DB	0fH
	DB	0fH
	DB	0fH
	DB	0fH
	DB	0fH
	DB	0fH
	DB	0fH
	DB	010H
	DB	010H
	DB	017H
	DB	0f2H
	DB	011H
	DB	0c3H
	DB	0c2H
	DB	065H
	DB	071H
	DB	0c1H
	DB	0bH
	DB	09H
	DB	07H
	DB	062H
	DB	06H
	DB	06H
	DB	06H
	DB	06H
	DB	06H
	DB	06H
	DB	06H
	DB	06H
	DB	06H
	DB	06H
	DB	06H
	DB	06H
	DB	06H
	DB	06H
	DB	06H
	DB	06H
	DB	06H
	DB	06H
	DB	06H
	DB	06H
	DB	06H
	DB	062H
	DB	07H
	DB	07H
	DB	09H
	DB	060H
	DB	0bH
	DB	0bfH
	DB	0dH
	DB	0c1H
	DB	0eH
	DB	082H
	DB	014H
	DB	013H
	DB	0c2H
	DB	016H
	DB	0c3H
	DB	011H
	DB	011H
	DB	012H
	DB	0f2H
	DB	015H
	DB	017H
	DB	017H
	DB	010H
	DB	0fH
	DB	0fH
	DB	0fH
	DB	0fH
	DB	0cH
	DB	0cH
	DB	0cH
	DB	0cH
	DB	0cH
	DB	0cH
	DB	0cH
	DB	0cH
	DB	0cH
	DB	0cH
	DB	0cH
	DB	0cH
	DB	0cH
	DB	0cH
	DB	0cH
	DB	0cH
	DB	0cH
	DB	0cH
	DB	0cH
	DB	0cH
	DB	0cH
	DB	0fH
	DB	0fH
	DB	0fH
	DB	0fH
	DB	0fH
	DB	0fH
	DB	0fH
	DB	0fH
	DB	0fH
	DB	0fH
	DB	0fH
	DB	010H
	DB	010H
	DB	010H
	DB	010H
	DB	010H
	DB	010H
	DB	010H
	DB	010H
	DB	010H
	DB	017H
	DB	017H
	DB	017H
	DB	017H
	DB	017H
	DB	017H
	DB	015H
	DB	015H
	DB	015H
	DB	015H
	DB	015H
	DB	0f2H
	DB	0f2H
	DB	09bH
	DB	012H
	DB	012H
	DB	012H
	DB	012H
	DB	012H
	DB	011H
	DB	012H
	DB	0c3H
	DB	04eH
	DB	028H
	DB	01eH
	DB	035H
	DB	01eH
	DB	034H
	DB	05eH
	DB	0eH
	DB	013H
	DB	065H
	DB	065H
	DB	013H
	DB	013H
	DB	0c2H
	DB	016H
	DB	016H
	DB	0c4H
	DB	011H
	DB	011H
	DB	012H
	DB	012H
	DB	012H
	DB	09bH
	DB	09bH
	DB	0f2H
	DB	0f2H
	DB	015H
	DB	015H
	DB	015H
	DB	015H
	DB	017H
	DB	017H
	DB	017H
	DB	017H
	DB	017H
	DB	017H
	DB	010H
	DB	010H
	DB	010H
	DB	010H
	DB	010H
	DB	010H
	DB	010H
	DB	010H
	DB	0fH
	DB	0fH
	DB	0fH
	DB	0fH
	DB	0fH
	DB	0fH
	DB	0fH
	DB	0fH
	DB	0fH
	DB	0fH
	DB	0fH
	DB	010H
	DB	017H
	DB	015H
	DB	012H
	DB	011H
	DB	016H
	DB	013H
	DB	082H
	DB	0c1H
	DB	0bfH
	DB	060H
	DB	047H
	DB	07H
	DB	06H
	DB	06H
	DB	06H
	DB	06H
	DB	06H
	DB	06H
	DB	06H
	DB	06H
	DB	06H
	DB	06H
	DB	06H
	DB	06H
	DB	06H
	DB	06H
	DB	06H
	DB	06H
	DB	06H
	DB	06H
	DB	06H
	DB	06H
	DB	062H
	DB	07H
	DB	047H
	DB	09H
	DB	0bH
	DB	0bfH
	DB	0dH
	DB	0c1H
	DB	0eH
	DB	071H
	DB	014H
	DB	065H
	DB	013H
	DB	016H
	DB	0c3H
	DB	011H
	DB	011H
	DB	012H
	DB	0f2H
	DB	015H
	DB	017H
	DB	017H
	DB	010H
	DB	010H
	DB	0fH
	DB	0fH
	DB	0cH
	DB	0cH
	DB	0cH
	DB	0cH
	DB	0cH
	DB	0cH
	DB	0cH
	DB	0cH
	DB	0cH
	DB	0cH
	DB	0cH
	DB	0cH
	DB	0cH
	DB	0cH
	DB	0cH
	DB	0cH
	DB	0cH
	DB	0cH
	DB	0cH
	DB	0cH
	DB	0cH
	DB	0cH
	DB	0cH
	DB	0cH
	DB	0fH
	DB	0fH
	DB	0fH
	DB	0fH
	DB	0fH
	DB	0fH
	DB	0fH
	DB	0fH
	DB	0fH
	DB	0fH
	DB	0fH
	DB	010H
	DB	010H
	DB	010H
	DB	010H
	DB	010H
	DB	010H
	DB	010H
	DB	010H
	DB	017H
	DB	017H
	DB	017H
	DB	017H
	DB	017H
	DB	017H
	DB	015H
	DB	015H
	DB	015H
	DB	015H
	DB	015H
	DB	0f2H
	DB	0f2H
	DB	09bH
	DB	09bH
	DB	012H
	DB	012H
	DB	012H
	DB	012H
	DB	012H
	DB	012H
	DB	0c4H
	DB	0aH
	DB	028H
	DB	01eH
	DB	035H
	DB	01eH
	DB	034H
	DB	05eH
	DB	0eH
	DB	013H
	DB	065H
	DB	013H
	DB	013H
	DB	0c2H
	DB	0c2H
	DB	016H
	DB	0c4H
	DB	011H
	DB	011H
	DB	012H
	DB	012H
	DB	012H
	DB	012H
	DB	09bH
	DB	09bH
	DB	0f2H
	DB	015H
	DB	015H
	DB	015H
	DB	015H
	DB	015H
	DB	017H
	DB	017H
	DB	017H
	DB	017H
	DB	017H
	DB	017H
	DB	010H
	DB	010H
	DB	010H
	DB	010H
	DB	010H
	DB	010H
	DB	010H
	DB	0fH
	DB	0fH
	DB	0fH
	DB	0fH
	DB	0fH
	DB	0fH
	DB	0fH
	DB	0fH
	DB	0fH
	DB	0fH
	DB	0cH
	DB	0fH
	DB	0fH
	DB	0fH
	DB	010H
	DB	017H
	DB	0f2H
	DB	011H
	DB	0c3H
	DB	0c2H
	DB	014H
	DB	0eH
	DB	0dH
	DB	0bH
	DB	09H
	DB	07H
	DB	062H
	DB	06H
	DB	06H
	DB	06H
	DB	06H
	DB	06H
	DB	06H
	DB	06H
	DB	06H
	DB	06H
	DB	06H
	DB	06H
	DB	06H
	DB	06H
	DB	06H
	DB	06H
	DB	06H
	DB	06H
	DB	062H
	DB	07H
	DB	047H
	DB	09H
	DB	0bH
	DB	0bH
	DB	0dH
	DB	0c1H
	DB	0eH
	DB	071H
	DB	014H
	DB	065H
	DB	013H
	DB	0c2H
	DB	0c3H
	DB	011H
	DB	011H
	DB	012H
	DB	09bH
	DB	015H
	DB	017H
	DB	017H
	DB	010H
	DB	010H
	DB	0fH
	DB	0fH
	DB	0cH
	DB	0cH
	DB	0cH
	DB	0cH
	DB	0cH
	DB	0cH
	DB	0cH
	DB	0cH
	DB	0cH
	DB	0cH
	DB	0cH
	DB	0cH
	DB	0cH
	DB	0cH
	DB	0cH
	DB	0cH
	DB	0cH
	DB	0cH
	DB	0cH
	DB	0cH
	DB	0cH
	DB	0cH
	DB	0cH
	DB	0cH
	DB	0cH
	DB	0cH
	DB	0cH
	DB	0fH
	DB	0fH
	DB	0fH
	DB	0fH
	DB	0fH
	DB	0fH
	DB	0fH
	DB	0fH
	DB	0fH
	DB	0fH
	DB	010H
	DB	010H
	DB	010H
	DB	010H
	DB	010H
	DB	010H
	DB	010H
	DB	010H
	DB	017H
	DB	017H
	DB	017H
	DB	017H
	DB	017H
	DB	017H
	DB	015H
	DB	015H
	DB	015H
	DB	015H
	DB	015H
	DB	0f2H
	DB	0f2H
	DB	09bH
	DB	012H
	DB	012H
	DB	012H
	DB	012H
	DB	012H
	DB	012H
	DB	0c4H
	DB	04eH
	DB	028H
	DB	01eH
	DB	035H
	DB	01eH
	DB	034H
	DB	05eH
	DB	071H
	DB	013H
	DB	013H
	DB	013H
	DB	0c2H
	DB	0c2H
	DB	016H
	DB	0c3H
	DB	011H
	DB	011H
	DB	011H
	DB	012H
	DB	012H
	DB	012H
	DB	09bH
	DB	09bH
	DB	0f2H
	DB	0f2H
	DB	015H
	DB	015H
	DB	015H
	DB	015H
	DB	015H
	DB	017H
	DB	017H
	DB	017H
	DB	017H
	DB	017H
	DB	010H
	DB	010H
	DB	010H
	DB	010H
	DB	010H
	DB	010H
	DB	010H
	DB	0fH
	DB	0fH
	DB	0fH
	DB	0fH
	DB	0fH
	DB	0fH
	DB	0fH
	DB	0fH
	DB	0fH
	DB	0cH
	DB	0cH
	DB	0cH
	DB	0cH
	DB	0cH
	DB	0cH
	DB	0fH
	DB	010H
	DB	010H
	DB	015H
	DB	012H
	DB	011H
	DB	016H
	DB	013H
	DB	014H
	DB	0c1H
	DB	0bfH
	DB	060H
	DB	047H
	DB	07H
	DB	06H
	DB	06H
	DB	06H
	DB	06H
	DB	06H
	DB	06H
	DB	06H
	DB	06H
	DB	06H
	DB	06H
	DB	06H
	DB	06H
	DB	06H
	DB	06H
	DB	06H
	DB	062H
	DB	07H
	DB	047H
	DB	09H
	DB	0bH
	DB	0bH
	DB	0bfH
	DB	0c1H
	DB	0eH
	DB	071H
	DB	014H
	DB	065H
	DB	013H
	DB	0c2H
	DB	016H
	DB	011H
	DB	011H
	DB	012H
	DB	0f2H
	DB	015H
	DB	017H
	DB	017H
	DB	010H
	DB	010H
	DB	0fH
	DB	0fH
	DB	0cH
	DB	0cH
	DB	0cH
	DB	0cH
	DB	0cH
	DB	0cH
	DB	0cH
	DB	0cH
	DB	0cH
	DB	0cH
	DB	0cH
	DB	0cH
	DB	0cH
	DB	0cH
	DB	0cH
	DB	0cH
	DB	0cH
	DB	0cH
	DB	0cH
	DB	0cH
	DB	0cH
	DB	0cH
	DB	0cH
	DB	0cH
	DB	0cH
	DB	0cH
	DB	0cH
	DB	0cH
	DB	0cH
	DB	0cH
	DB	0fH
	DB	0fH
	DB	0fH
	DB	0fH
	DB	0fH
	DB	0fH
	DB	0fH
	DB	0fH
	DB	0fH
	DB	010H
	DB	010H
	DB	010H
	DB	010H
	DB	010H
	DB	010H
	DB	010H
	DB	010H
	DB	017H
	DB	017H
	DB	017H
	DB	017H
	DB	017H
	DB	015H
	DB	015H
	DB	015H
	DB	015H
	DB	015H
	DB	0f2H
	DB	0f2H
	DB	0f2H
	DB	09bH
	DB	012H
	DB	012H
	DB	012H
	DB	012H
	DB	012H
	DB	0c4H
	DB	04eH
	DB	028H
	DB	01eH
	DB	035H
	DB	01eH
	DB	034H
	DB	05eH
	DB	071H
	DB	013H
	DB	013H
	DB	013H
	DB	0c2H
	DB	016H
	DB	016H
	DB	0c3H
	DB	011H
	DB	011H
	DB	012H
	DB	012H
	DB	012H
	DB	012H
	DB	09bH
	DB	09bH
	DB	0f2H
	DB	015H
	DB	015H
	DB	015H
	DB	015H
	DB	015H
	DB	017H
	DB	017H
	DB	017H
	DB	017H
	DB	017H
	DB	010H
	DB	010H
	DB	010H
	DB	010H
	DB	010H
	DB	010H
	DB	010H
	DB	010H
	DB	0fH
	DB	0fH
	DB	0fH
	DB	0fH
	DB	0fH
	DB	0fH
	DB	0fH
	DB	0cH
	DB	0cH
	DB	0cH
	DB	0cH
	DB	0cH
	DB	0cH
	DB	0cH
	DB	0cH
	DB	0cH
	DB	0fH
	DB	0fH
	DB	010H
	DB	017H
	DB	0f2H
	DB	011H
	DB	0c3H
	DB	0c2H
	DB	014H
	DB	0eH
	DB	0dH
	DB	0bH
	DB	09H
	DB	07H
	DB	062H
	DB	06H
	DB	06H
	DB	06H
	DB	06H
	DB	06H
	DB	03H
	DB	06H
	DB	06H
	DB	06H
	DB	06H
	DB	06H
	DB	06H
	DB	062H
	DB	07H
	DB	07H
	DB	09H
	DB	060H
	DB	0bH
	DB	0bfH
	DB	0dH
	DB	0c1H
	DB	0eH
	DB	014H
	DB	065H
	DB	013H
	DB	0c2H
	DB	016H
	DB	0c4H
	DB	011H
	DB	012H
	DB	09bH
	DB	015H
	DB	015H
	DB	017H
	DB	010H
	DB	010H
	DB	0fH
	DB	0fH
	DB	0cH
	DB	0cH
	DB	0cH
	DB	0cH
	DB	0cH
	DB	0cH
	DB	0cH
	DB	0cH
	DB	0cH
	DB	0cH
	DB	0cH
	DB	0cH
	DB	0cH
	DB	0cH
	DB	0cH
	DB	0cH
	DB	0cH
	DB	0cH
	DB	0cH
	DB	0cH
	DB	0cH
	DB	0cH
	DB	0cH
	DB	0cH
	DB	0cH
	DB	0cH
	DB	0cH
	DB	0cH
	DB	0cH
	DB	0cH
	DB	0cH
	DB	0cH
	DB	0fH
	DB	0fH
	DB	0fH
	DB	0fH
	DB	0fH
	DB	0fH
	DB	0fH
	DB	0fH
	DB	0fH
	DB	010H
	DB	010H
	DB	010H
	DB	010H
	DB	010H
	DB	010H
	DB	010H
	DB	017H
	DB	017H
	DB	017H
	DB	017H
	DB	017H
	DB	017H
	DB	015H
	DB	015H
	DB	015H
	DB	015H
	DB	015H
	DB	0f2H
	DB	0f2H
	DB	09bH
	DB	012H
	DB	012H
	DB	012H
	DB	012H
	DB	012H
	DB	0c4H
	DB	0aH
	DB	028H
	DB	01eH
	DB	035H
	DB	01eH
	DB	034H
	DB	05eH
	DB	071H
	DB	0c2H
	DB	013H
	DB	0c2H
	DB	0c2H
	DB	016H
	DB	0c3H
	DB	0c4H
	DB	011H
	DB	011H
	DB	012H
	DB	012H
	DB	012H
	DB	012H
	DB	09bH
	DB	09bH
	DB	0f2H
	DB	015H
	DB	015H
	DB	015H
	DB	015H
	DB	017H
	DB	017H
	DB	017H
	DB	017H
	DB	017H
	DB	017H
	DB	010H
	DB	010H
	DB	010H
	DB	010H
	DB	010H
	DB	010H
	DB	010H
	DB	0fH
	DB	0fH
	DB	0fH
	DB	0fH
	DB	0fH
	DB	0fH
	DB	0fH
	DB	0cH
	DB	0cH
	DB	0cH
	DB	0cH
	DB	0cH
	DB	0cH
	DB	0cH
	DB	0cH
	DB	0cH
	DB	0cH
	DB	0cH
	DB	0cH
	DB	0fH
	DB	010H
	DB	017H
	DB	015H
	DB	012H
	DB	011H
	DB	0c2H
	DB	013H
	DB	071H
	DB	0c1H
	DB	0bfH
	DB	060H
	DB	047H
	DB	07H
	DB	06H
	DB	06H
	DB	03H
	DB	026H
	DB	027H
	DB	075H
	DB	06H
	DB	06H
	DB	06H
	DB	06H
	DB	062H
	DB	07H
	DB	07H
	DB	09H
	DB	060H
	DB	0bH
	DB	0bfH
	DB	0dH
	DB	0c1H
	DB	0eH
	DB	082H
	DB	065H
	DB	013H
	DB	0c2H
	DB	016H
	DB	0c4H
	DB	011H
	DB	012H
	DB	09bH
	DB	015H
	DB	015H
	DB	017H
	DB	010H
	DB	010H
	DB	0fH
	DB	0fH
	DB	0cH
	DB	0cH
	DB	0cH
	DB	0cH
	DB	0cH
	DB	0cH
	DB	0cH
	DB	0cH
	DB	0cH
	DB	0cH
	DB	0cH
	DB	0cH
	DB	0cH
	DB	0cH
	DB	0cH
	DB	0cH
	DB	0cH
	DB	0cH
	DB	0cH
	DB	0cH
	DB	0cH
	DB	0cH
	DB	0cH
	DB	0cH
	DB	0cH
	DB	0cH
	DB	0cH
	DB	0cH
	DB	0cH
	DB	0cH
	DB	0cH
	DB	0cH
	DB	0cH
	DB	0cH
	DB	0fH
	DB	0fH
	DB	0fH
	DB	0fH
	DB	0fH
	DB	0fH
	DB	0fH
	DB	0fH
	DB	0fH
	DB	010H
	DB	010H
	DB	010H
	DB	010H
	DB	010H
	DB	010H
	DB	010H
	DB	017H
	DB	017H
	DB	017H
	DB	017H
	DB	017H
	DB	015H
	DB	015H
	DB	015H
	DB	015H
	DB	015H
	DB	0f2H
	DB	0f2H
	DB	09bH
	DB	012H
	DB	012H
	DB	012H
	DB	012H
	DB	012H
	DB	0c4H
	DB	0aH
	DB	028H
	DB	01eH
	DB	035H
	DB	01eH
	DB	034H
	DB	05eH
	DB	071H
	DB	0c2H
	DB	013H
	DB	0c2H
	DB	016H
	DB	016H
	DB	0c4H
	DB	011H
	DB	011H
	DB	012H
	DB	012H
	DB	012H
	DB	012H
	DB	012H
	DB	09bH
	DB	0f2H
	DB	0f2H
	DB	015H
	DB	015H
	DB	015H
	DB	015H
	DB	017H
	DB	017H
	DB	017H
	DB	017H
	DB	017H
	DB	010H
	DB	010H
	DB	010H
	DB	010H
	DB	010H
	DB	010H
	DB	0fH
	DB	0fH
	DB	0fH
	DB	0fH
	DB	0fH
	DB	0fH
	DB	0fH
	DB	0fH
	DB	0fH
	DB	0cH
	DB	0cH
	DB	0cH
	DB	0cH
	DB	0cH
	DB	0cH
	DB	0cH
	DB	0cH
	DB	0cH
	DB	0cH
	DB	0cH
	DB	0cH
	DB	0cH
	DB	0fH
	DB	0fH
	DB	010H
	DB	017H
	DB	0f2H
	DB	011H
	DB	0c3H
	DB	013H
	DB	014H
	DB	0eH
	DB	0dH
	DB	0bH
	DB	060H
	DB	07H
	DB	02cH
	DB	02H
	DB	046H
	DB	03aH
	DB	02aH
	DB	03H
	DB	06H
	DB	06H
	DB	06H
	DB	062H
	DB	07H
	DB	09H
	DB	09H
	DB	0bH
	DB	0bfH
	DB	0dH
	DB	0c1H
	DB	0eH
	DB	082H
	DB	014H
	DB	013H
	DB	0c2H
	DB	016H
	DB	0c4H
	DB	011H
	DB	012H
	DB	09bH
	DB	015H
	DB	015H
	DB	017H
	DB	010H
	DB	010H
	DB	0fH
	DB	0fH
	DB	0cH
	DB	0cH
	DB	0cH
	DB	0cH
	DB	0cH
	DB	0cH
	DB	0cH
	DB	0cH
	DB	0cH
	DB	0cH
	DB	0cH
	DB	0cH
	DB	0cH
	DB	0cH
	DB	0cH
	DB	0cH
	DB	0cH
	DB	0cH
	DB	0cH
	DB	0cH
	DB	0cH
	DB	0cH
	DB	0cH
	DB	0cH
	DB	0cH
	DB	0cH
	DB	0cH
	DB	0cH
	DB	0cH
	DB	0cH
	DB	0cH
	DB	0cH
	DB	0cH
	DB	0cH
	DB	0cH
	DB	0cH
	DB	0fH
	DB	0fH
	DB	0fH
	DB	0fH
	DB	0fH
	DB	0fH
	DB	0fH
	DB	0fH
	DB	0fH
	DB	010H
	DB	010H
	DB	010H
	DB	010H
	DB	010H
	DB	010H
	DB	017H
	DB	017H
	DB	017H
	DB	017H
	DB	017H
	DB	017H
	DB	015H
	DB	015H
	DB	015H
	DB	015H
	DB	015H
	DB	0f2H
	DB	09bH
	DB	09bH
	DB	012H
	DB	012H
	DB	012H
	DB	012H
	DB	0c4H
	DB	0aH
	DB	028H
	DB	01eH
	DB	035H
	DB	01eH
	DB	034H
	DB	03fH
	DB	014H
	DB	0c2H
	DB	0c2H
	DB	0c2H
	DB	016H
	DB	0c3H
	DB	0c4H
	DB	011H
	DB	011H
	DB	011H
	DB	012H
	DB	012H
	DB	012H
	DB	09bH
	DB	09bH
	DB	0f2H
	DB	015H
	DB	015H
	DB	015H
	DB	015H
	DB	017H
	DB	017H
	DB	017H
	DB	017H
	DB	017H
	DB	017H
	DB	010H
	DB	010H
	DB	010H
	DB	010H
	DB	010H
	DB	010H
	DB	0fH
	DB	0fH
	DB	0fH
	DB	0fH
	DB	0fH
	DB	0fH
	DB	0fH
	DB	0fH
	DB	0cH
	DB	0cH
	DB	0cH
	DB	0cH
	DB	0cH
	DB	0cH
	DB	0cH
	DB	0cH
	DB	0cH
	DB	0cH
	DB	0cH
	DB	0cH
	DB	0cH
	DB	0cH
	DB	0cH
	DB	0cH
	DB	0fH
	DB	010H
	DB	017H
	DB	015H
	DB	012H
	DB	011H
	DB	0c2H
	DB	065H
	DB	082H
	DB	0eH
	DB	063H
	DB	038H
	DB	02aH
	DB	04cH
	DB	04H
	DB	02eH
	DB	027H
	DB	043H
	DB	06H
	DB	06H
	DB	062H
	DB	07H
	DB	047H
	DB	09H
	DB	060H
	DB	0bH
	DB	0dH
	DB	0c1H
	DB	0eH
	DB	071H
	DB	014H
	DB	013H
	DB	0c2H
	DB	016H
	DB	0c3H
	DB	011H
	DB	012H
	DB	012H
	DB	0f2H
	DB	015H
	DB	017H
	DB	010H
	DB	010H
	DB	0fH
	DB	0fH
	DB	0cH
	DB	0cH
	DB	0cH
	DB	0cH
	DB	0cH
	DB	0cH
	DB	0cH
	DB	0cH
	DB	0cH
	DB	0cH
	DB	0cH
	DB	0cH
	DB	0cH
	DB	0cH
	DB	0cH
	DB	0cH
	DB	0cH
	DB	0cH
	DB	0cH
	DB	0cH
	DB	0cH
	DB	0cH
	DB	0cH
	DB	0cH
	DB	0cH
	DB	0cH
	DB	0cH
	DB	0cH
	DB	0cH
	DB	0cH
	DB	0cH
	DB	0cH
	DB	0cH
	DB	0cH
	DB	0cH
	DB	0cH
	DB	0cH
	DB	0cH
	DB	0fH
	DB	0fH
	DB	0fH
	DB	0fH
	DB	0fH
	DB	0fH
	DB	0fH
	DB	0fH
	DB	010H
	DB	010H
	DB	010H
	DB	010H
	DB	010H
	DB	010H
	DB	010H
	DB	017H
	DB	017H
	DB	017H
	DB	017H
	DB	017H
	DB	015H
	DB	015H
	DB	015H
	DB	015H
	DB	015H
	DB	0f2H
	DB	09bH
	DB	09bH
	DB	012H
	DB	012H
	DB	012H
	DB	012H
	DB	011H
	DB	0aH
	DB	028H
	DB	01eH
	DB	035H
	DB	01eH
	DB	034H
	DB	03fH
	DB	014H
	DB	016H
	DB	0c2H
	DB	016H
	DB	016H
	DB	0c4H
	DB	011H
	DB	011H
	DB	011H
	DB	012H
	DB	012H
	DB	012H
	DB	012H
	DB	09bH
	DB	0f2H
	DB	0f2H
	DB	015H
	DB	015H
	DB	015H
	DB	015H
	DB	017H
	DB	017H
	DB	017H
	DB	017H
	DB	017H
	DB	010H
	DB	010H
	DB	010H
	DB	010H
	DB	010H
	DB	010H
	DB	010H
	DB	0fH
	DB	0fH
	DB	0fH
	DB	0fH
	DB	0fH
	DB	0fH
	DB	0fH
	DB	0fH
	DB	0cH
	DB	0cH
	DB	0cH
	DB	0cH
	DB	0cH
	DB	0cH
	DB	0cH
	DB	0cH
	DB	0f3H
	DB	0f3H
	DB	0f3H
	DB	0f3H
	DB	0f3H
	DB	0f3H
	DB	0f3H
	DB	0f3H
	DB	0cH
	DB	0cH
	DB	0fH
	DB	010H
	DB	017H
	DB	0f2H
	DB	011H
	DB	0c3H
	DB	013H
	DB	05aH
	DB	02H
	DB	037H
	DB	03bH
	DB	04H
	DB	04H
	DB	023H
	DB	027H
	DB	043H
	DB	06H
	DB	062H
	DB	07H
	DB	047H
	DB	09H
	DB	060H
	DB	0bH
	DB	0bfH
	DB	0c1H
	DB	0eH
	DB	071H
	DB	014H
	DB	065H
	DB	013H
	DB	016H
	DB	0c3H
	DB	011H
	DB	012H
	DB	012H
	DB	0f2H
	DB	015H
	DB	017H
	DB	010H
	DB	010H
	DB	0fH
	DB	0fH
	DB	0cH
	DB	0cH
	DB	0cH
	DB	0f3H
	DB	0f3H
	DB	0f3H
	DB	0f3H
	DB	0f3H
	DB	0f3H
	DB	0f3H
	DB	0f3H
	DB	0f3H
	DB	0f3H
	DB	0f3H
	DB	0f3H
	DB	0f3H
	DB	0f3H
	DB	0f3H
	DB	0f3H
	DB	0f3H
	DB	0f3H
	DB	0f3H
	DB	0f3H
	DB	0f3H
	DB	0f3H
	DB	0f3H
	DB	0f3H
	DB	0f3H
	DB	0f3H
	DB	0f3H
	DB	0cH
	DB	0cH
	DB	0cH
	DB	0cH
	DB	0cH
	DB	0cH
	DB	0cH
	DB	0cH
	DB	0cH
	DB	0fH
	DB	0fH
	DB	0fH
	DB	0fH
	DB	0fH
	DB	0fH
	DB	0fH
	DB	0fH
	DB	0fH
	DB	010H
	DB	010H
	DB	010H
	DB	010H
	DB	010H
	DB	010H
	DB	017H
	DB	017H
	DB	017H
	DB	017H
	DB	017H
	DB	017H
	DB	015H
	DB	015H
	DB	015H
	DB	015H
	DB	015H
	DB	0f2H
	DB	09bH
	DB	012H
	DB	012H
	DB	012H
	DB	012H
	DB	0c4H
	DB	04eH
	DB	028H
	DB	01eH
	DB	035H
	DB	035H
	DB	034H
	DB	03fH
	DB	014H
	DB	016H
	DB	0c2H
	DB	016H
	DB	0c3H
	DB	011H
	DB	011H
	DB	011H
	DB	012H
	DB	012H
	DB	012H
	DB	012H
	DB	012H
	DB	09bH
	DB	0f2H
	DB	0f2H
	DB	015H
	DB	015H
	DB	015H
	DB	015H
	DB	017H
	DB	017H
	DB	017H
	DB	017H
	DB	017H
	DB	010H
	DB	010H
	DB	010H
	DB	010H
	DB	010H
	DB	010H
	DB	0fH
	DB	0fH
	DB	0fH
	DB	0fH
	DB	0fH
	DB	0fH
	DB	0fH
	DB	0cH
	DB	0cH
	DB	0cH
	DB	0cH
	DB	0cH
	DB	0cH
	DB	0cH
	DB	0cH
	DB	0cH
	DB	0f3H
	DB	0f3H
	DB	0f3H
	DB	0f3H
	DB	0f3H
	DB	0f3H
	DB	0f3H
	DB	0f3H
	DB	0f3H
	DB	0f3H
	DB	0cH
	DB	0cH
	DB	0fH
	DB	010H
	DB	017H
	DB	015H
	DB	0f2H
	DB	0bfH
	DB	029H
	DB	03aH
	DB	04H
	DB	04H
	DB	04H
	DB	04H
	DB	023H
	DB	027H
	DB	043H
	DB	06H
	DB	062H
	DB	047H
	DB	09H
	DB	060H
	DB	0bH
	DB	0bfH
	DB	0dH
	DB	0eH
	DB	071H
	DB	014H
	DB	065H
	DB	013H
	DB	016H
	DB	0c4H
	DB	011H
	DB	012H
	DB	0f2H
	DB	015H
	DB	017H
	DB	017H
	DB	017H
	DB	010H
	DB	0fH
	DB	0fH
	DB	0cH
	DB	0cH
	DB	0f3H
	DB	0f3H
	DB	0f3H
	DB	0f3H
	DB	0f3H
	DB	0f3H
	DB	0f3H
	DB	0f3H
	DB	0f3H
	DB	0f3H
	DB	0f3H
	DB	0f3H
	DB	0f3H
	DB	0f3H
	DB	0f3H
	DB	0f3H
	DB	0f3H
	DB	0f3H
	DB	0f3H
	DB	0f3H
	DB	0f3H
	DB	0f3H
	DB	0f3H
	DB	0f3H
	DB	0f3H
	DB	0f3H
	DB	0f3H
	DB	0f3H
	DB	0f3H
	DB	0f3H
	DB	0cH
	DB	0cH
	DB	0cH
	DB	0cH
	DB	0cH
	DB	0cH
	DB	0cH
	DB	0cH
	DB	0cH
	DB	0cH
	DB	0fH
	DB	0fH
	DB	0fH
	DB	0fH
	DB	0fH
	DB	0fH
	DB	0fH
	DB	010H
	DB	010H
	DB	010H
	DB	010H
	DB	010H
	DB	010H
	DB	010H
	DB	017H
	DB	017H
	DB	017H
	DB	017H
	DB	017H
	DB	015H
	DB	015H
	DB	015H
	DB	015H
	DB	0f2H
	DB	0f2H
	DB	09bH
	DB	09bH
	DB	012H
	DB	012H
	DB	012H
	DB	0c4H
	DB	04eH
	DB	028H
	DB	01eH
	DB	035H
	DB	035H
	DB	034H
	DB	03fH
	DB	065H
	DB	016H
	DB	016H
	DB	016H
	DB	0c3H
	DB	011H
	DB	011H
	DB	011H
	DB	012H
	DB	012H
	DB	012H
	DB	012H
	DB	012H
	DB	09bH
	DB	0f2H
	DB	0f2H
	DB	015H
	DB	015H
	DB	015H
	DB	015H
	DB	017H
	DB	017H
	DB	017H
	DB	017H
	DB	017H
	DB	010H
	DB	010H
	DB	010H
	DB	010H
	DB	010H
	DB	010H
	DB	0fH
	DB	0fH
	DB	0fH
	DB	0fH
	DB	0fH
	DB	0fH
	DB	0fH
	DB	0cH
	DB	0cH
	DB	0cH
	DB	0cH
	DB	0cH
	DB	0cH
	DB	0cH
	DB	0cH
	DB	0f3H
	DB	0f3H
	DB	0f3H
	DB	0f3H
	DB	0f3H
	DB	0f3H
	DB	0f3H
	DB	0f3H
	DB	0f3H
	DB	0f3H
	DB	0f3H
	DB	0f3H
	DB	0f3H
	DB	0cH
	DB	0cH
	DB	0fH
	DB	0fH
	DB	010H
	DB	080H
	DB	030H
	DB	04H
	DB	04H
	DB	04H
	DB	04H
	DB	04H
	DB	023H
	DB	027H
	DB	043H
	DB	07H
	DB	07H
	DB	09H
	DB	060H
	DB	0bH
	DB	0bfH
	DB	0dH
	DB	0c1H
	DB	0eH
	DB	082H
	DB	065H
	DB	0c2H
	DB	0c3H
	DB	016H
	DB	013H
	DB	072H
	DB	072H
	DB	013H
	DB	083H
	DB	012H
	DB	010H
	DB	0fH
	DB	0fH
	DB	0fH
	DB	0cH
	DB	0cH
	DB	0cH
	DB	0f3H
	DB	0f3H
	DB	0f3H
	DB	0f3H
	DB	0f3H
	DB	0f3H
	DB	0f3H
	DB	0f3H
	DB	0f3H
	DB	0f3H
	DB	0f3H
	DB	0f3H
	DB	0f3H
	DB	0f3H
	DB	0f3H
	DB	0f3H
	DB	0f3H
	DB	0f3H
	DB	0f3H
	DB	0f3H
	DB	0f3H
	DB	0f3H
	DB	0f3H
	DB	0f3H
	DB	0f3H
	DB	0f3H
	DB	0f3H
	DB	0f3H
	DB	0f3H
	DB	0f3H
	DB	0f3H
	DB	0cH
	DB	0cH
	DB	0cH
	DB	0cH
	DB	0cH
	DB	0cH
	DB	0cH
	DB	0cH
	DB	0cH
	DB	0fH
	DB	0fH
	DB	0fH
	DB	0fH
	DB	0fH
	DB	0fH
	DB	0fH
	DB	010H
	DB	010H
	DB	010H
	DB	010H
	DB	010H
	DB	010H
	DB	010H
	DB	017H
	DB	017H
	DB	017H
	DB	017H
	DB	017H
	DB	015H
	DB	015H
	DB	015H
	DB	015H
	DB	015H
	DB	0f2H
	DB	09bH
	DB	09bH
	DB	012H
	DB	012H
	DB	012H
	DB	0c3H
	DB	04eH
	DB	028H
	DB	035H
	DB	035H
	DB	035H
	DB	034H
	DB	03fH
	DB	065H
	DB	0c3H
	DB	016H
	DB	0c3H
	DB	0c4H
	DB	011H
	DB	011H
	DB	011H
	DB	012H
	DB	012H
	DB	012H
	DB	012H
	DB	012H
	DB	09bH
	DB	0f2H
	DB	015H
	DB	015H
	DB	015H
	DB	015H
	DB	015H
	DB	017H
	DB	017H
	DB	017H
	DB	017H
	DB	017H
	DB	010H
	DB	010H
	DB	010H
	DB	010H
	DB	010H
	DB	010H
	DB	0fH
	DB	0fH
	DB	0fH
	DB	0fH
	DB	0fH
	DB	0fH
	DB	0cH
	DB	0cH
	DB	0cH
	DB	0cH
	DB	0cH
	DB	0cH
	DB	0cH
	DB	0cH
	DB	0cH
	DB	0f3H
	DB	0f3H
	DB	0f3H
	DB	0f3H
	DB	0f3H
	DB	0f3H
	DB	0f3H
	DB	0f3H
	DB	0f3H
	DB	0f3H
	DB	0f3H
	DB	0f3H
	DB	0f3H
	DB	0f3H
	DB	0f3H
	DB	0fH
	DB	072H
	DB	080H
	DB	092H
	DB	030H
	DB	04H
	DB	04H
	DB	04H
	DB	04H
	DB	04H
	DB	023H
	DB	027H
	DB	038H
	DB	038H
	DB	026H
	DB	055H
	DB	07H
	DB	0bfH
	DB	0dH
	DB	0c1H
	DB	0eH
	DB	082H
	DB	013H
	DB	065H
	DB	0bfH
	DB	076H
	DB	055H
	DB	075H
	DB	075H
	DB	02aH
	DB	02aH
	DB	075H
	DB	08dH
	DB	076H
	DB	099H
	DB	012H
	DB	0cH
	DB	0f3H
	DB	0cH
	DB	0f3H
	DB	0f3H
	DB	0f3H
	DB	0f3H
	DB	0f3H
	DB	0f3H
	DB	0f3H
	DB	0f3H
	DB	0f3H
	DB	0f3H
	DB	0f3H
	DB	0f3H
	DB	0f3H
	DB	0f3H
	DB	0f3H
	DB	0f3H
	DB	0f3H
	DB	0f3H
	DB	0f3H
	DB	0f3H
	DB	0f3H
	DB	0f3H
	DB	0f3H
	DB	0f3H
	DB	0f3H
	DB	0f3H
	DB	0f3H
	DB	0f3H
	DB	0f3H
	DB	0f3H
	DB	0f3H
	DB	0f3H
	DB	0f3H
	DB	0cH
	DB	0cH
	DB	0cH
	DB	0cH
	DB	0cH
	DB	0cH
	DB	0cH
	DB	0cH
	DB	0cH
	DB	0fH
	DB	0fH
	DB	0fH
	DB	0fH
	DB	0fH
	DB	0fH
	DB	0fH
	DB	010H
	DB	010H
	DB	010H
	DB	010H
	DB	010H
	DB	010H
	DB	010H
	DB	017H
	DB	017H
	DB	017H
	DB	017H
	DB	015H
	DB	015H
	DB	015H
	DB	015H
	DB	015H
	DB	0f2H
	DB	09bH
	DB	09bH
	DB	012H
	DB	012H
	DB	012H
	DB	0c3H
	DB	04eH
	DB	028H
	DB	035H
	DB	035H
	DB	035H
	DB	034H
	DB	03fH
	DB	065H
	DB	0c3H
	DB	016H
	DB	0c4H
	DB	0c4H
	DB	011H
	DB	011H
	DB	011H
	DB	012H
	DB	012H
	DB	012H
	DB	012H
	DB	012H
	DB	09bH
	DB	0f2H
	DB	015H
	DB	015H
	DB	015H
	DB	015H
	DB	017H
	DB	017H
	DB	017H
	DB	017H
	DB	017H
	DB	010H
	DB	010H
	DB	010H
	DB	010H
	DB	010H
	DB	010H
	DB	0fH
	DB	0fH
	DB	0fH
	DB	0fH
	DB	0fH
	DB	0fH
	DB	0fH
	DB	0cH
	DB	0cH
	DB	0cH
	DB	0cH
	DB	0cH
	DB	0cH
	DB	0cH
	DB	0f3H
	DB	0f3H
	DB	0f3H
	DB	0f3H
	DB	018H
	DB	018H
	DB	018H
	DB	018H
	DB	018H
	DB	018H
	DB	018H
	DB	018H
	DB	018H
	DB	018H
	DB	018H
	DB	018H
	DB	0f4H
	DB	077H
	DB	029H
	DB	037H
	DB	030H
	DB	048H
	DB	04H
	DB	04H
	DB	04H
	DB	04H
	DB	04H
	DB	02eH
	DB	031H
	DB	037H
	DB	037H
	DB	031H
	DB	02dH
	DB	026H
	DB	0bfH
	DB	0c1H
	DB	0eH
	DB	014H
	DB	065H
	DB	0bH
	DB	055H
	DB	02aH
	DB	037H
	DB	04cH
	DB	036H
	DB	049H
	DB	032H
	DB	032H
	DB	045H
	DB	058H
	DB	041H
	DB	02dH
	DB	02H
	DB	05aH
	DB	017H
	DB	0f4H
	DB	018H
	DB	018H
	DB	018H
	DB	018H
	DB	018H
	DB	018H
	DB	018H
	DB	018H
	DB	018H
	DB	018H
	DB	018H
	DB	018H
	DB	018H
	DB	018H
	DB	018H
	DB	018H
	DB	018H
	DB	018H
	DB	018H
	DB	018H
	DB	018H
	DB	018H
	DB	018H
	DB	018H
	DB	018H
	DB	018H
	DB	018H
	DB	018H
	DB	018H
	DB	018H
	DB	0f3H
	DB	0f3H
	DB	0f3H
	DB	0f3H
	DB	0cH
	DB	0cH
	DB	0cH
	DB	0cH
	DB	0cH
	DB	0cH
	DB	0cH
	DB	0cH
	DB	0fH
	DB	0fH
	DB	0fH
	DB	0fH
	DB	0fH
	DB	0fH
	DB	0fH
	DB	010H
	DB	010H
	DB	010H
	DB	010H
	DB	010H
	DB	010H
	DB	017H
	DB	017H
	DB	017H
	DB	017H
	DB	017H
	DB	017H
	DB	015H
	DB	015H
	DB	015H
	DB	015H
	DB	0f2H
	DB	0f2H
	DB	09bH
	DB	012H
	DB	012H
	DB	012H
	DB	016H
	DB	04eH
	DB	028H
	DB	035H
	DB	035H
	DB	035H
	DB	034H
	DB	03fH
	DB	065H
	DB	0c3H
	DB	016H
	DB	0c4H
	DB	011H
	DB	011H
	DB	011H
	DB	011H
	DB	012H
	DB	012H
	DB	012H
	DB	012H
	DB	012H
	DB	09bH
	DB	0f2H
	DB	015H
	DB	015H
	DB	015H
	DB	015H
	DB	017H
	DB	017H
	DB	017H
	DB	017H
	DB	017H
	DB	010H
	DB	010H
	DB	010H
	DB	010H
	DB	010H
	DB	010H
	DB	0fH
	DB	0fH
	DB	0fH
	DB	0fH
	DB	0fH
	DB	0fH
	DB	0fH
	DB	0cH
	DB	0cH
	DB	0cH
	DB	0cH
	DB	0cH
	DB	0cH
	DB	0cH
	DB	0f3H
	DB	0f3H
	DB	0f3H
	DB	0f3H
	DB	0f3H
	DB	018H
	DB	018H
	DB	018H
	DB	018H
	DB	018H
	DB	018H
	DB	018H
	DB	018H
	DB	018H
	DB	018H
	DB	018H
	DB	06fH
	DB	09aH
	DB	030H
	DB	04H
	DB	04H
	DB	04H
	DB	04H
	DB	04H
	DB	04H
	DB	04H
	DB	04H
	DB	04H
	DB	04H
	DB	04H
	DB	04H
	DB	04H
	DB	045H
	DB	02H
	DB	0bH
	DB	0c1H
	DB	071H
	DB	014H
	DB	07aH
	DB	027H
	DB	04aH
	DB	032H
	DB	04H
	DB	04H
	DB	04H
	DB	04H
	DB	04H
	DB	04H
	DB	04H
	DB	04H
	DB	04H
	DB	04H
	DB	045H
	DB	02dH
	DB	038H
	DB	016H
	DB	06fH
	DB	018H
	DB	018H
	DB	018H
	DB	018H
	DB	018H
	DB	018H
	DB	018H
	DB	018H
	DB	018H
	DB	018H
	DB	018H
	DB	018H
	DB	018H
	DB	018H
	DB	018H
	DB	018H
	DB	018H
	DB	018H
	DB	018H
	DB	018H
	DB	018H
	DB	018H
	DB	018H
	DB	018H
	DB	018H
	DB	018H
	DB	018H
	DB	018H
	DB	018H
	DB	0f3H
	DB	0f3H
	DB	0f3H
	DB	0f3H
	DB	0cH
	DB	0cH
	DB	0cH
	DB	0cH
	DB	0cH
	DB	0cH
	DB	0cH
	DB	0cH
	DB	0fH
	DB	0fH
	DB	0fH
	DB	0fH
	DB	0fH
	DB	0fH
	DB	0fH
	DB	010H
	DB	010H
	DB	010H
	DB	010H
	DB	010H
	DB	010H
	DB	010H
	DB	017H
	DB	017H
	DB	017H
	DB	017H
	DB	017H
	DB	015H
	DB	015H
	DB	015H
	DB	015H
	DB	0f2H
	DB	0f2H
	DB	09bH
	DB	012H
	DB	012H
	DB	011H
	DB	016H
	DB	04eH
	DB	028H
	DB	035H
	DB	035H
	DB	035H
	DB	034H
	DB	03fH
	DB	013H
	DB	0c4H
	DB	0c3H
	DB	0c4H
	DB	011H
	DB	011H
	DB	011H
	DB	011H
	DB	012H
	DB	012H
	DB	012H
	DB	012H
	DB	09bH
	DB	0f2H
	DB	0f2H
	DB	015H
	DB	015H
	DB	015H
	DB	015H
	DB	017H
	DB	017H
	DB	017H
	DB	017H
	DB	010H
	DB	010H
	DB	010H
	DB	010H
	DB	010H
	DB	010H
	DB	010H
	DB	0fH
	DB	0fH
	DB	0fH
	DB	0fH
	DB	0fH
	DB	0fH
	DB	0cH
	DB	0cH
	DB	0cH
	DB	0cH
	DB	0cH
	DB	0cH
	DB	0cH
	DB	0cH
	DB	0f3H
	DB	0f3H
	DB	0f3H
	DB	018H
	DB	018H
	DB	018H
	DB	018H
	DB	018H
	DB	018H
	DB	018H
	DB	018H
	DB	018H
	DB	018H
	DB	018H
	DB	018H
	DB	018H
	DB	06fH
	DB	09aH
	DB	030H
	DB	04H
	DB	04H
	DB	04H
	DB	04H
	DB	04H
	DB	04H
	DB	04H
	DB	04H
	DB	04H
	DB	04H
	DB	04H
	DB	04H
	DB	04H
	DB	045H
	DB	02H
	DB	09H
	DB	0c1H
	DB	071H
	DB	076H
	DB	02aH
	DB	036H
	DB	04H
	DB	04H
	DB	04H
	DB	04H
	DB	04H
	DB	04H
	DB	04H
	DB	04H
	DB	04H
	DB	04H
	DB	04H
	DB	04H
	DB	04H
	DB	04H
	DB	04cH
	DB	02H
	DB	077H
	DB	06fH
	DB	018H
	DB	018H
	DB	018H
	DB	018H
	DB	018H
	DB	018H
	DB	018H
	DB	018H
	DB	018H
	DB	018H
	DB	018H
	DB	018H
	DB	018H
	DB	018H
	DB	018H
	DB	018H
	DB	018H
	DB	018H
	DB	018H
	DB	018H
	DB	018H
	DB	018H
	DB	018H
	DB	018H
	DB	018H
	DB	018H
	DB	018H
	DB	018H
	DB	018H
	DB	0f3H
	DB	0f3H
	DB	0f3H
	DB	0f3H
	DB	0cH
	DB	0cH
	DB	0cH
	DB	0cH
	DB	0cH
	DB	0cH
	DB	0cH
	DB	0fH
	DB	0fH
	DB	0fH
	DB	0fH
	DB	0fH
	DB	0fH
	DB	0fH
	DB	010H
	DB	010H
	DB	010H
	DB	010H
	DB	010H
	DB	010H
	DB	010H
	DB	017H
	DB	017H
	DB	017H
	DB	017H
	DB	017H
	DB	015H
	DB	015H
	DB	015H
	DB	015H
	DB	015H
	DB	0f2H
	DB	012H
	DB	012H
	DB	011H
	DB	011H
	DB	016H
	DB	04eH
	DB	028H
	DB	035H
	DB	035H
	DB	035H
	DB	034H
	DB	03fH
	DB	05cH
	DB	011H
	DB	0c3H
	DB	011H
	DB	011H
	DB	011H
	DB	011H
	DB	011H
	DB	012H
	DB	012H
	DB	012H
	DB	012H
	DB	09bH
	DB	0f2H
	DB	015H
	DB	015H
	DB	015H
	DB	015H
	DB	015H
	DB	017H
	DB	017H
	DB	017H
	DB	017H
	DB	010H
	DB	010H
	DB	010H
	DB	010H
	DB	010H
	DB	010H
	DB	0fH
	DB	0fH
	DB	0fH
	DB	0fH
	DB	0fH
	DB	0fH
	DB	0fH
	DB	0cH
	DB	0cH
	DB	0cH
	DB	0cH
	DB	0cH
	DB	0cH
	DB	0cH
	DB	0f3H
	DB	0f3H
	DB	0f3H
	DB	0f3H
	DB	018H
	DB	018H
	DB	018H
	DB	018H
	DB	018H
	DB	018H
	DB	018H
	DB	018H
	DB	018H
	DB	018H
	DB	018H
	DB	018H
	DB	018H
	DB	06fH
	DB	09aH
	DB	030H
	DB	04H
	DB	04H
	DB	04H
	DB	04H
	DB	04H
	DB	04H
	DB	04H
	DB	04H
	DB	04H
	DB	04H
	DB	04H
	DB	04H
	DB	04H
	DB	045H
	DB	02H
	DB	07H
	DB	0dH
	DB	07aH
	DB	02aH
	DB	045H
	DB	04H
	DB	04H
	DB	04H
	DB	04H
	DB	04H
	DB	04H
	DB	032H
	DB	036H
	DB	045H
	DB	02eH
	DB	04H
	DB	04H
	DB	04H
	DB	04H
	DB	04H
	DB	04H
	DB	04cH
	DB	01H
	DB	017H
	DB	06fH
	DB	018H
	DB	018H
	DB	018H
	DB	018H
	DB	018H
	DB	018H
	DB	018H
	DB	018H
	DB	018H
	DB	018H
	DB	018H
	DB	018H
	DB	018H
	DB	018H
	DB	018H
	DB	018H
	DB	018H
	DB	018H
	DB	018H
	DB	018H
	DB	018H
	DB	018H
	DB	018H
	DB	018H
	DB	018H
	DB	018H
	DB	018H
	DB	018H
	DB	018H
	DB	0f3H
	DB	0f3H
	DB	0f3H
	DB	0cH
	DB	0cH
	DB	0cH
	DB	0cH
	DB	0cH
	DB	0cH
	DB	0cH
	DB	0cH
	DB	0fH
	DB	0fH
	DB	0fH
	DB	0fH
	DB	0fH
	DB	0fH
	DB	0fH
	DB	010H
	DB	010H
	DB	010H
	DB	010H
	DB	010H
	DB	010H
	DB	017H
	DB	017H
	DB	017H
	DB	017H
	DB	017H
	DB	015H
	DB	015H
	DB	015H
	DB	015H
	DB	015H
	DB	09bH
	DB	012H
	DB	012H
	DB	011H
	DB	011H
	DB	0c2H
	DB	04eH
	DB	028H
	DB	035H
	DB	035H
	DB	035H
	DB	034H
	DB	03fH
	DB	05cH
	DB	011H
	DB	0c3H
	DB	011H
	DB	011H
	DB	011H
	DB	011H
	DB	011H
	DB	012H
	DB	012H
	DB	012H
	DB	012H
	DB	09bH
	DB	0f2H
	DB	015H
	DB	015H
	DB	015H
	DB	015H
	DB	015H
	DB	017H
	DB	017H
	DB	017H
	DB	017H
	DB	010H
	DB	010H
	DB	010H
	DB	010H
	DB	010H
	DB	010H
	DB	0fH
	DB	0fH
	DB	0fH
	DB	0fH
	DB	0fH
	DB	0fH
	DB	0fH
	DB	0cH
	DB	0cH
	DB	0cH
	DB	0cH
	DB	0cH
	DB	0cH
	DB	0f3H
	DB	0f3H
	DB	0f3H
	DB	0f3H
	DB	0f3H
	DB	018H
	DB	018H
	DB	018H
	DB	018H
	DB	018H
	DB	018H
	DB	018H
	DB	018H
	DB	018H
	DB	018H
	DB	018H
	DB	018H
	DB	018H
	DB	06fH
	DB	07bH
	DB	044H
	DB	03aH
	DB	03aH
	DB	045H
	DB	04H
	DB	04H
	DB	04H
	DB	04H
	DB	04H
	DB	04H
	DB	036H
	DB	03aH
	DB	03aH
	DB	036H
	DB	04dH
	DB	02H
	DB	062H
	DB	07H
	DB	02H
	DB	051H
	DB	04H
	DB	04H
	DB	04H
	DB	04H
	DB	04H
	DB	02eH
	DB	04aH
	DB	02aH
	DB	027H
	DB	027H
	DB	03eH
	DB	058H
	DB	04H
	DB	04H
	DB	04H
	DB	04H
	DB	04H
	DB	04H
	DB	037H
	DB	054H
	DB	0cH
	DB	018H
	DB	018H
	DB	018H
	DB	018H
	DB	018H
	DB	018H
	DB	018H
	DB	018H
	DB	018H
	DB	018H
	DB	018H
	DB	018H
	DB	018H
	DB	018H
	DB	018H
	DB	018H
	DB	018H
	DB	018H
	DB	018H
	DB	018H
	DB	018H
	DB	018H
	DB	018H
	DB	018H
	DB	018H
	DB	018H
	DB	018H
	DB	018H
	DB	0f3H
	DB	0f3H
	DB	0f3H
	DB	0f3H
	DB	0f3H
	DB	0cH
	DB	0cH
	DB	0cH
	DB	0cH
	DB	0cH
	DB	0cH
	DB	0cH
	DB	0fH
	DB	0fH
	DB	0fH
	DB	0fH
	DB	0fH
	DB	0fH
	DB	0fH
	DB	010H
	DB	010H
	DB	010H
	DB	010H
	DB	010H
	DB	010H
	DB	017H
	DB	017H
	DB	017H
	DB	017H
	DB	017H
	DB	015H
	DB	015H
	DB	015H
	DB	015H
	DB	0f2H
	DB	09bH
	DB	012H
	DB	012H
	DB	011H
	DB	011H
	DB	0c2H
	DB	04eH
	DB	028H
	DB	035H
	DB	035H
	DB	035H
	DB	034H
	DB	03fH
	DB	05cH
	DB	011H
	DB	0c3H
	DB	011H
	DB	011H
	DB	011H
	DB	011H
	DB	011H
	DB	012H
	DB	012H
	DB	012H
	DB	012H
	DB	09bH
	DB	0f2H
	DB	015H
	DB	015H
	DB	015H
	DB	015H
	DB	015H
	DB	017H
	DB	017H
	DB	017H
	DB	017H
	DB	010H
	DB	010H
	DB	010H
	DB	010H
	DB	010H
	DB	010H
	DB	0fH
	DB	0fH
	DB	0fH
	DB	0fH
	DB	0fH
	DB	0fH
	DB	0fH
	DB	0cH
	DB	0cH
	DB	0cH
	DB	0cH
	DB	0cH
	DB	0cH
	DB	0f3H
	DB	0f3H
	DB	0f3H
	DB	0f3H
	DB	0f3H
	DB	018H
	DB	018H
	DB	018H
	DB	018H
	DB	018H
	DB	018H
	DB	018H
	DB	018H
	DB	018H
	DB	018H
	DB	018H
	DB	018H
	DB	018H
	DB	0f4H
	DB	010H
	DB	05aH
	DB	019H
	DB	02H
	DB	030H
	DB	04H
	DB	04H
	DB	04H
	DB	04H
	DB	04H
	DB	023H
	DB	027H
	DB	02H
	DB	02H
	DB	02H
	DB	02H
	DB	0aH
	DB	062H
	DB	053H
	DB	03cH
	DB	04H
	DB	04H
	DB	04H
	DB	04H
	DB	04H
	DB	04H
	DB	04bH
	DB	02H
	DB	043H
	DB	06H
	DB	05aH
	DB	06aH
	DB	02H
	DB	036H
	DB	04H
	DB	04H
	DB	04H
	DB	04H
	DB	04H
	DB	03bH
	DB	02aH
	DB	083H
	DB	06fH
	DB	018H
	DB	018H
	DB	018H
	DB	018H
	DB	018H
	DB	018H
	DB	018H
	DB	018H
	DB	018H
	DB	018H
	DB	018H
	DB	018H
	DB	018H
	DB	018H
	DB	018H
	DB	018H
	DB	018H
	DB	018H
	DB	018H
	DB	018H
	DB	018H
	DB	018H
	DB	018H
	DB	018H
	DB	018H
	DB	018H
	DB	018H
	DB	0f3H
	DB	0f3H
	DB	0f3H
	DB	0f3H
	DB	0f3H
	DB	0cH
	DB	0cH
	DB	0cH
	DB	0cH
	DB	0cH
	DB	0cH
	DB	0cH
	DB	0fH
	DB	0fH
	DB	0fH
	DB	0fH
	DB	0fH
	DB	0fH
	DB	0fH
	DB	010H
	DB	010H
	DB	010H
	DB	010H
	DB	010H
	DB	010H
	DB	017H
	DB	017H
	DB	017H
	DB	017H
	DB	017H
	DB	015H
	DB	015H
	DB	015H
	DB	015H
	DB	0f2H
	DB	012H
	DB	012H
	DB	011H
	DB	0c4H
	DB	0c4H
	DB	05cH
	DB	04eH
	DB	028H
	DB	035H
	DB	035H
	DB	035H
	DB	034H
	DB	03fH
	DB	05cH
	DB	011H
	DB	0c3H
	DB	011H
	DB	011H
	DB	011H
	DB	011H
	DB	011H
	DB	012H
	DB	012H
	DB	012H
	DB	012H
	DB	09bH
	DB	0f2H
	DB	015H
	DB	015H
	DB	015H
	DB	015H
	DB	015H
	DB	017H
	DB	017H
	DB	017H
	DB	017H
	DB	010H
	DB	010H
	DB	010H
	DB	010H
	DB	010H
	DB	010H
	DB	0fH
	DB	0fH
	DB	0fH
	DB	0fH
	DB	0fH
	DB	0fH
	DB	0cH
	DB	0cH
	DB	0cH
	DB	0cH
	DB	0cH
	DB	0cH
	DB	0cH
	DB	0cH
	DB	0f3H
	DB	0f3H
	DB	0f3H
	DB	018H
	DB	018H
	DB	018H
	DB	018H
	DB	018H
	DB	018H
	DB	018H
	DB	018H
	DB	018H
	DB	018H
	DB	018H
	DB	018H
	DB	018H
	DB	018H
	DB	018H
	DB	018H
	DB	0cH
	DB	015H
	DB	07aH
	DB	030H
	DB	04H
	DB	04H
	DB	04H
	DB	04H
	DB	04H
	DB	023H
	DB	027H
	DB	043H
	DB	06H
	DB	03H
	DB	03H
	DB	06H
	DB	06H
	DB	02H
	DB	03aH
	DB	04H
	DB	04H
	DB	04H
	DB	04H
	DB	04H
	DB	049H
	DB	02H
	DB	043H
	DB	09H
	DB	0bfH
	DB	0eH
	DB	071H
	DB	076H
	DB	046H
	DB	04H
	DB	04H
	DB	04H
	DB	04H
	DB	04H
	DB	04H
	DB	037H
	DB	093H
	DB	018H
	DB	018H
	DB	018H
	DB	018H
	DB	018H
	DB	018H
	DB	018H
	DB	018H
	DB	018H
	DB	018H
	DB	018H
	DB	018H
	DB	018H
	DB	018H
	DB	018H
	DB	018H
	DB	018H
	DB	018H
	DB	018H
	DB	018H
	DB	018H
	DB	018H
	DB	018H
	DB	018H
	DB	018H
	DB	018H
	DB	018H
	DB	018H
	DB	018H
	DB	0f3H
	DB	0f3H
	DB	0f3H
	DB	0f3H
	DB	0cH
	DB	0cH
	DB	0cH
	DB	0cH
	DB	0cH
	DB	0cH
	DB	0cH
	DB	0fH
	DB	0fH
	DB	0fH
	DB	0fH
	DB	0fH
	DB	0fH
	DB	0fH
	DB	010H
	DB	010H
	DB	010H
	DB	010H
	DB	010H
	DB	010H
	DB	010H
	DB	017H
	DB	017H
	DB	017H
	DB	017H
	DB	015H
	DB	015H
	DB	015H
	DB	015H
	DB	09bH
	DB	012H
	DB	012H
	DB	011H
	DB	0c4H
	DB	0c4H
	DB	013H
	DB	04fH
	DB	028H
	DB	035H
	DB	035H
	DB	035H
	DB	034H
	DB	03fH
	DB	05cH
	DB	011H
	DB	0c3H
	DB	011H
	DB	011H
	DB	011H
	DB	011H
	DB	011H
	DB	012H
	DB	012H
	DB	012H
	DB	012H
	DB	09bH
	DB	0f2H
	DB	015H
	DB	015H
	DB	015H
	DB	015H
	DB	015H
	DB	017H
	DB	017H
	DB	017H
	DB	017H
	DB	010H
	DB	010H
	DB	010H
	DB	010H
	DB	010H
	DB	010H
	DB	0fH
	DB	0fH
	DB	0fH
	DB	0fH
	DB	0fH
	DB	0fH
	DB	0cH
	DB	0cH
	DB	0cH
	DB	0cH
	DB	0cH
	DB	0cH
	DB	0cH
	DB	0cH
	DB	0f3H
	DB	0f3H
	DB	0f3H
	DB	018H
	DB	018H
	DB	018H
	DB	018H
	DB	018H
	DB	018H
	DB	018H
	DB	018H
	DB	018H
	DB	018H
	DB	018H
	DB	018H
	DB	018H
	DB	018H
	DB	018H
	DB	018H
	DB	0cH
	DB	010H
	DB	093H
	DB	030H
	DB	04H
	DB	04H
	DB	04H
	DB	04H
	DB	04H
	DB	023H
	DB	027H
	DB	05aH
	DB	060H
	DB	09H
	DB	047H
	DB	09H
	DB	076H
	DB	03eH
	DB	02eH
	DB	04H
	DB	04H
	DB	04H
	DB	04H
	DB	04H
	DB	04aH
	DB	019H
	DB	09H
	DB	0eH
	DB	0c2H
	DB	011H
	DB	012H
	DB	072H
	DB	075H
	DB	03dH
	DB	04H
	DB	04H
	DB	04H
	DB	04H
	DB	04H
	DB	051H
	DB	0aH
	DB	010H
	DB	0f4H
	DB	018H
	DB	018H
	DB	018H
	DB	018H
	DB	018H
	DB	018H
	DB	018H
	DB	018H
	DB	018H
	DB	018H
	DB	018H
	DB	018H
	DB	018H
	DB	018H
	DB	018H
	DB	018H
	DB	018H
	DB	018H
	DB	018H
	DB	018H
	DB	018H
	DB	018H
	DB	018H
	DB	018H
	DB	018H
	DB	018H
	DB	018H
	DB	0f3H
	DB	0f3H
	DB	0f3H
	DB	0f3H
	DB	0cH
	DB	0cH
	DB	0cH
	DB	0cH
	DB	0cH
	DB	0cH
	DB	0cH
	DB	0fH
	DB	0fH
	DB	0fH
	DB	0fH
	DB	0fH
	DB	0fH
	DB	0fH
	DB	010H
	DB	010H
	DB	010H
	DB	010H
	DB	010H
	DB	010H
	DB	010H
	DB	017H
	DB	017H
	DB	017H
	DB	017H
	DB	015H
	DB	015H
	DB	015H
	DB	0f2H
	DB	012H
	DB	012H
	DB	011H
	DB	011H
	DB	0c3H
	DB	0c3H
	DB	013H
	DB	04fH
	DB	028H
	DB	035H
	DB	035H
	DB	035H
	DB	033H
	DB	03fH
	DB	05cH
	DB	011H
	DB	0c3H
	DB	011H
	DB	011H
	DB	011H
	DB	011H
	DB	011H
	DB	012H
	DB	012H
	DB	012H
	DB	012H
	DB	09bH
	DB	0f2H
	DB	015H
	DB	015H
	DB	015H
	DB	015H
	DB	015H
	DB	017H
	DB	017H
	DB	017H
	DB	017H
	DB	010H
	DB	010H
	DB	010H
	DB	010H
	DB	010H
	DB	010H
	DB	0fH
	DB	0fH
	DB	0fH
	DB	0fH
	DB	0fH
	DB	0fH
	DB	0cH
	DB	0cH
	DB	0cH
	DB	0cH
	DB	0cH
	DB	0cH
	DB	0cH
	DB	0cH
	DB	0f3H
	DB	0f3H
	DB	0f3H
	DB	018H
	DB	018H
	DB	018H
	DB	018H
	DB	018H
	DB	018H
	DB	018H
	DB	018H
	DB	018H
	DB	018H
	DB	018H
	DB	018H
	DB	018H
	DB	018H
	DB	018H
	DB	018H
	DB	0f3H
	DB	0cH
	DB	099H
	DB	030H
	DB	04H
	DB	04H
	DB	04H
	DB	04H
	DB	04H
	DB	023H
	DB	027H
	DB	05bH
	DB	014H
	DB	014H
	DB	0eH
	DB	0dH
	DB	06aH
	DB	03cH
	DB	04H
	DB	04H
	DB	04H
	DB	04H
	DB	04H
	DB	04H
	DB	02dH
	DB	06aH
	DB	0eH
	DB	0c4H
	DB	017H
	DB	010H
	DB	0fH
	DB	010H
	DB	092H
	DB	04cH
	DB	04H
	DB	04H
	DB	04H
	DB	04H
	DB	04H
	DB	023H
	DB	027H
	DB	011H
	DB	018H
	DB	018H
	DB	018H
	DB	018H
	DB	018H
	DB	018H
	DB	018H
	DB	018H
	DB	018H
	DB	018H
	DB	018H
	DB	018H
	DB	018H
	DB	018H
	DB	018H
	DB	018H
	DB	018H
	DB	018H
	DB	018H
	DB	018H
	DB	018H
	DB	018H
	DB	018H
	DB	018H
	DB	018H
	DB	018H
	DB	018H
	DB	018H
	DB	0f3H
	DB	0f3H
	DB	0f3H
	DB	0f3H
	DB	0cH
	DB	0cH
	DB	0cH
	DB	0cH
	DB	0cH
	DB	0cH
	DB	0cH
	DB	0fH
	DB	0fH
	DB	0fH
	DB	0fH
	DB	0fH
	DB	0fH
	DB	0fH
	DB	010H
	DB	010H
	DB	010H
	DB	010H
	DB	010H
	DB	010H
	DB	010H
	DB	017H
	DB	017H
	DB	017H
	DB	017H
	DB	015H
	DB	015H
	DB	015H
	DB	09bH
	DB	012H
	DB	011H
	DB	011H
	DB	0c4H
	DB	016H
	DB	016H
	DB	013H
	DB	04fH
	DB	028H
	DB	035H
	DB	035H
	DB	035H
	DB	033H
	DB	03fH
	DB	05cH
	DB	011H
	DB	0c3H
	DB	011H
	DB	011H
	DB	011H
	DB	011H
	DB	011H
	DB	012H
	DB	012H
	DB	012H
	DB	012H
	DB	09bH
	DB	0f2H
	DB	015H
	DB	015H
	DB	015H
	DB	015H
	DB	015H
	DB	017H
	DB	017H
	DB	017H
	DB	017H
	DB	010H
	DB	010H
	DB	010H
	DB	010H
	DB	010H
	DB	010H
	DB	0fH
	DB	0fH
	DB	0fH
	DB	0fH
	DB	0fH
	DB	0fH
	DB	0cH
	DB	0cH
	DB	0cH
	DB	0cH
	DB	0cH
	DB	0cH
	DB	0cH
	DB	0cH
	DB	0f3H
	DB	0f3H
	DB	0f3H
	DB	018H
	DB	018H
	DB	018H
	DB	018H
	DB	018H
	DB	018H
	DB	018H
	DB	018H
	DB	018H
	DB	018H
	DB	018H
	DB	018H
	DB	018H
	DB	018H
	DB	018H
	DB	018H
	DB	018H
	DB	0f4H
	DB	09aH
	DB	030H
	DB	04H
	DB	04H
	DB	04H
	DB	04H
	DB	04H
	DB	023H
	DB	027H
	DB	0bfH
	DB	016H
	DB	0c3H
	DB	0c2H
	DB	014H
	DB	02cH
	DB	050H
	DB	04H
	DB	04H
	DB	04H
	DB	04H
	DB	04H
	DB	023H
	DB	040H
	DB	054H
	DB	013H
	DB	015H
	DB	0fH
	DB	0cH
	DB	0f3H
	DB	018H
	DB	05aH
	DB	04bH
	DB	04H
	DB	04H
	DB	04H
	DB	04H
	DB	04H
	DB	04H
	DB	040H
	DB	082H
	DB	0f3H
	DB	018H
	DB	018H
	DB	018H
	DB	018H
	DB	018H
	DB	018H
	DB	018H
	DB	018H
	DB	018H
	DB	018H
	DB	018H
	DB	018H
	DB	018H
	DB	018H
	DB	018H
	DB	018H
	DB	018H
	DB	018H
	DB	018H
	DB	018H
	DB	018H
	DB	018H
	DB	018H
	DB	018H
	DB	018H
	DB	018H
	DB	018H
	DB	0f3H
	DB	0f3H
	DB	0f3H
	DB	0f3H
	DB	0cH
	DB	0cH
	DB	0cH
	DB	0cH
	DB	0cH
	DB	0cH
	DB	0cH
	DB	0fH
	DB	0fH
	DB	0fH
	DB	0fH
	DB	0fH
	DB	0fH
	DB	0fH
	DB	010H
	DB	010H
	DB	010H
	DB	010H
	DB	010H
	DB	010H
	DB	010H
	DB	017H
	DB	017H
	DB	017H
	DB	017H
	DB	017H
	DB	015H
	DB	0f2H
	DB	012H
	DB	012H
	DB	011H
	DB	011H
	DB	0c4H
	DB	016H
	DB	016H
	DB	065H
	DB	04fH
	DB	028H
	DB	035H
	DB	035H
	DB	035H
	DB	033H
	DB	03fH
	DB	05cH
	DB	011H
	DB	0c3H
	DB	011H
	DB	011H
	DB	011H
	DB	011H
	DB	011H
	DB	012H
	DB	012H
	DB	012H
	DB	012H
	DB	09bH
	DB	0f2H
	DB	015H
	DB	015H
	DB	015H
	DB	015H
	DB	015H
	DB	017H
	DB	017H
	DB	017H
	DB	017H
	DB	010H
	DB	010H
	DB	010H
	DB	010H
	DB	010H
	DB	010H
	DB	0fH
	DB	0fH
	DB	0fH
	DB	0fH
	DB	0fH
	DB	0fH
	DB	0fH
	DB	0cH
	DB	0cH
	DB	0cH
	DB	0cH
	DB	0cH
	DB	0cH
	DB	0cH
	DB	0f3H
	DB	0f3H
	DB	0f3H
	DB	018H
	DB	018H
	DB	018H
	DB	018H
	DB	018H
	DB	018H
	DB	018H
	DB	018H
	DB	018H
	DB	018H
	DB	018H
	DB	018H
	DB	018H
	DB	018H
	DB	018H
	DB	018H
	DB	018H
	DB	06fH
	DB	09aH
	DB	030H
	DB	04H
	DB	04H
	DB	04H
	DB	04H
	DB	04H
	DB	023H
	DB	027H
	DB	0dH
	DB	011H
	DB	011H
	DB	0c4H
	DB	013H
	DB	026H
	DB	048H
	DB	04H
	DB	04H
	DB	04H
	DB	04H
	DB	04H
	DB	03bH
	DB	02aH
	DB	07H
	DB	016H
	DB	017H
	DB	0fH
	DB	0cH
	DB	0f3H
	DB	06fH
	DB	09aH
	DB	030H
	DB	04H
	DB	04H
	DB	04H
	DB	04H
	DB	04H
	DB	04H
	DB	03cH
	DB	05bH
	DB	0cH
	DB	018H
	DB	018H
	DB	018H
	DB	018H
	DB	018H
	DB	018H
	DB	018H
	DB	018H
	DB	018H
	DB	018H
	DB	018H
	DB	018H
	DB	018H
	DB	018H
	DB	018H
	DB	018H
	DB	018H
	DB	018H
	DB	018H
	DB	018H
	DB	018H
	DB	018H
	DB	018H
	DB	018H
	DB	018H
	DB	018H
	DB	018H
	DB	0f3H
	DB	0f3H
	DB	0f3H
	DB	0f3H
	DB	0cH
	DB	0cH
	DB	0cH
	DB	0cH
	DB	0cH
	DB	0cH
	DB	0cH
	DB	0fH
	DB	0fH
	DB	0fH
	DB	0fH
	DB	0fH
	DB	0fH
	DB	0fH
	DB	010H
	DB	010H
	DB	010H
	DB	010H
	DB	010H
	DB	010H
	DB	017H
	DB	017H
	DB	017H
	DB	017H
	DB	017H
	DB	015H
	DB	015H
	DB	09bH
	DB	012H
	DB	012H
	DB	011H
	DB	0c4H
	DB	0c3H
	DB	016H
	DB	016H
	DB	065H
	DB	04fH
	DB	028H
	DB	035H
	DB	035H
	DB	035H
	DB	033H
	DB	03fH
	DB	05cH
	DB	011H
	DB	0c3H
	DB	011H
	DB	011H
	DB	011H
	DB	011H
	DB	011H
	DB	012H
	DB	012H
	DB	012H
	DB	012H
	DB	09bH
	DB	0f2H
	DB	015H
	DB	015H
	DB	015H
	DB	015H
	DB	015H
	DB	017H
	DB	017H
	DB	017H
	DB	017H
	DB	010H
	DB	010H
	DB	010H
	DB	010H
	DB	010H
	DB	010H
	DB	0fH
	DB	0fH
	DB	0fH
	DB	0fH
	DB	0fH
	DB	0fH
	DB	0fH
	DB	0cH
	DB	0cH
	DB	0cH
	DB	0cH
	DB	0cH
	DB	0cH
	DB	0f3H
	DB	0f3H
	DB	0f3H
	DB	0f3H
	DB	0f3H
	DB	018H
	DB	018H
	DB	018H
	DB	018H
	DB	018H
	DB	018H
	DB	018H
	DB	018H
	DB	018H
	DB	018H
	DB	018H
	DB	018H
	DB	018H
	DB	018H
	DB	018H
	DB	018H
	DB	06fH
	DB	09aH
	DB	030H
	DB	04H
	DB	04H
	DB	04H
	DB	04H
	DB	04H
	DB	023H
	DB	027H
	DB	0bfH
	DB	0c4H
	DB	011H
	DB	0c4H
	DB	013H
	DB	038H
	DB	051H
	DB	04H
	DB	04H
	DB	04H
	DB	04H
	DB	04H
	DB	03bH
	DB	02aH
	DB	063H
	DB	0c2H
	DB	015H
	DB	010H
	DB	0cH
	DB	0cH
	DB	0f4H
	DB	07bH
	DB	03cH
	DB	04H
	DB	04H
	DB	04H
	DB	04H
	DB	04H
	DB	04H
	DB	030H
	DB	093H
	DB	0fH
	DB	0f3H
	DB	018H
	DB	018H
	DB	018H
	DB	018H
	DB	018H
	DB	018H
	DB	018H
	DB	018H
	DB	018H
	DB	018H
	DB	018H
	DB	018H
	DB	018H
	DB	018H
	DB	018H
	DB	018H
	DB	018H
	DB	018H
	DB	018H
	DB	018H
	DB	018H
	DB	018H
	DB	018H
	DB	018H
	DB	018H
	DB	0f3H
	DB	0f3H
	DB	0f3H
	DB	0f3H
	DB	0f3H
	DB	0cH
	DB	0cH
	DB	0cH
	DB	0cH
	DB	0cH
	DB	0cH
	DB	0cH
	DB	0fH
	DB	0fH
	DB	0fH
	DB	0fH
	DB	0fH
	DB	0fH
	DB	0fH
	DB	010H
	DB	010H
	DB	010H
	DB	010H
	DB	010H
	DB	010H
	DB	017H
	DB	017H
	DB	017H
	DB	017H
	DB	015H
	DB	015H
	DB	0f2H
	DB	012H
	DB	012H
	DB	011H
	DB	011H
	DB	0c3H
	DB	016H
	DB	0c2H
	DB	0c2H
	DB	014H
	DB	04fH
	DB	028H
	DB	035H
	DB	035H
	DB	035H
	DB	033H
	DB	03fH
	DB	05cH
	DB	011H
	DB	0c3H
	DB	011H
	DB	011H
	DB	011H
	DB	011H
	DB	011H
	DB	012H
	DB	012H
	DB	012H
	DB	012H
	DB	09bH
	DB	0f2H
	DB	015H
	DB	015H
	DB	015H
	DB	015H
	DB	015H
	DB	017H
	DB	017H
	DB	017H
	DB	017H
	DB	010H
	DB	010H
	DB	010H
	DB	010H
	DB	010H
	DB	010H
	DB	0fH
	DB	0fH
	DB	0fH
	DB	0fH
	DB	0fH
	DB	0fH
	DB	0fH
	DB	0cH
	DB	0cH
	DB	0cH
	DB	0cH
	DB	0cH
	DB	0cH
	DB	0f3H
	DB	0f3H
	DB	0f3H
	DB	0f3H
	DB	0f3H
	DB	018H
	DB	018H
	DB	018H
	DB	018H
	DB	018H
	DB	018H
	DB	018H
	DB	018H
	DB	018H
	DB	018H
	DB	018H
	DB	018H
	DB	018H
	DB	018H
	DB	018H
	DB	018H
	DB	0f4H
	DB	09aH
	DB	030H
	DB	04H
	DB	04H
	DB	04H
	DB	04H
	DB	04H
	DB	023H
	DB	027H
	DB	0bfH
	DB	016H
	DB	0c4H
	DB	0c3H
	DB	013H
	DB	038H
	DB	051H
	DB	04H
	DB	04H
	DB	04H
	DB	04H
	DB	04H
	DB	03bH
	DB	02aH
	DB	063H
	DB	013H
	DB	012H
	DB	017H
	DB	0fH
	DB	0fH
	DB	018H
	DB	07bH
	DB	03cH
	DB	04H
	DB	04H
	DB	04H
	DB	04H
	DB	04H
	DB	04H
	DB	030H
	DB	093H
	DB	0fH
	DB	0f3H
	DB	018H
	DB	018H
	DB	018H
	DB	018H
	DB	018H
	DB	018H
	DB	018H
	DB	018H
	DB	018H
	DB	018H
	DB	018H
	DB	018H
	DB	018H
	DB	018H
	DB	018H
	DB	018H
	DB	018H
	DB	018H
	DB	018H
	DB	018H
	DB	018H
	DB	018H
	DB	018H
	DB	018H
	DB	018H
	DB	0f3H
	DB	0f3H
	DB	0f3H
	DB	0f3H
	DB	0f3H
	DB	0cH
	DB	0cH
	DB	0cH
	DB	0cH
	DB	0cH
	DB	0cH
	DB	0cH
	DB	0fH
	DB	0fH
	DB	0fH
	DB	0fH
	DB	0fH
	DB	0fH
	DB	0fH
	DB	010H
	DB	010H
	DB	010H
	DB	010H
	DB	010H
	DB	010H
	DB	017H
	DB	017H
	DB	017H
	DB	017H
	DB	015H
	DB	015H
	DB	09bH
	DB	012H
	DB	012H
	DB	011H
	DB	0c4H
	DB	0c3H
	DB	016H
	DB	0c2H
	DB	0c2H
	DB	014H
	DB	04fH
	DB	028H
	DB	035H
	DB	035H
	DB	035H
	DB	033H
	DB	03fH
	DB	05cH
	DB	011H
	DB	0c3H
	DB	011H
	DB	011H
	DB	011H
	DB	011H
	DB	011H
	DB	012H
	DB	012H
	DB	012H
	DB	012H
	DB	09bH
	DB	0f2H
	DB	0f2H
	DB	015H
	DB	015H
	DB	015H
	DB	015H
	DB	017H
	DB	017H
	DB	017H
	DB	017H
	DB	010H
	DB	010H
	DB	010H
	DB	010H
	DB	010H
	DB	010H
	DB	0fH
	DB	0fH
	DB	0fH
	DB	0fH
	DB	0fH
	DB	0fH
	DB	0fH
	DB	0cH
	DB	0cH
	DB	0cH
	DB	0cH
	DB	0cH
	DB	0cH
	DB	0cH
	DB	0f3H
	DB	0f3H
	DB	0f3H
	DB	0f3H
	DB	018H
	DB	018H
	DB	018H
	DB	018H
	DB	018H
	DB	018H
	DB	018H
	DB	018H
	DB	018H
	DB	018H
	DB	018H
	DB	018H
	DB	018H
	DB	018H
	DB	018H
	DB	0f3H
	DB	018H
	DB	057H
	DB	030H
	DB	04H
	DB	04H
	DB	04H
	DB	04H
	DB	04H
	DB	023H
	DB	027H
	DB	0bH
	DB	0c2H
	DB	016H
	DB	016H
	DB	013H
	DB	026H
	DB	048H
	DB	04H
	DB	04H
	DB	04H
	DB	04H
	DB	04H
	DB	03bH
	DB	02aH
	DB	05aH
	DB	065H
	DB	011H
	DB	0f2H
	DB	017H
	DB	010H
	DB	0cH
	DB	09aH
	DB	03cH
	DB	04H
	DB	04H
	DB	04H
	DB	04H
	DB	04H
	DB	04H
	DB	03cH
	DB	093H
	DB	010H
	DB	0cH
	DB	018H
	DB	018H
	DB	018H
	DB	018H
	DB	018H
	DB	018H
	DB	018H
	DB	018H
	DB	018H
	DB	018H
	DB	018H
	DB	018H
	DB	018H
	DB	018H
	DB	018H
	DB	018H
	DB	018H
	DB	018H
	DB	018H
	DB	018H
	DB	018H
	DB	018H
	DB	018H
	DB	018H
	DB	018H
	DB	018H
	DB	0f3H
	DB	0f3H
	DB	0f3H
	DB	0cH
	DB	0cH
	DB	0cH
	DB	0cH
	DB	0cH
	DB	0cH
	DB	0cH
	DB	0cH
	DB	0fH
	DB	0fH
	DB	0fH
	DB	0fH
	DB	0fH
	DB	0fH
	DB	0fH
	DB	010H
	DB	010H
	DB	010H
	DB	010H
	DB	010H
	DB	010H
	DB	017H
	DB	017H
	DB	017H
	DB	017H
	DB	015H
	DB	0f2H
	DB	012H
	DB	012H
	DB	011H
	DB	011H
	DB	0c3H
	DB	016H
	DB	0c2H
	DB	013H
	DB	013H
	DB	014H
	DB	08cH
	DB	028H
	DB	035H
	DB	01fH
	DB	035H
	DB	033H
	DB	03fH
	DB	05cH
	DB	011H
	DB	0c3H
	DB	011H
	DB	011H
	DB	011H
	DB	011H
	DB	011H
	DB	012H
	DB	012H
	DB	012H
	DB	012H
	DB	09bH
	DB	0f2H
	DB	0f2H
	DB	015H
	DB	015H
	DB	015H
	DB	015H
	DB	017H
	DB	017H
	DB	017H
	DB	017H
	DB	017H
	DB	010H
	DB	010H
	DB	010H
	DB	010H
	DB	010H
	DB	010H
	DB	0fH
	DB	0fH
	DB	0fH
	DB	0fH
	DB	0fH
	DB	0fH
	DB	0cH
	DB	0cH
	DB	0cH
	DB	0cH
	DB	0cH
	DB	0cH
	DB	0cH
	DB	0cH
	DB	0f3H
	DB	0f3H
	DB	0f3H
	DB	018H
	DB	018H
	DB	018H
	DB	018H
	DB	018H
	DB	018H
	DB	018H
	DB	018H
	DB	018H
	DB	018H
	DB	018H
	DB	018H
	DB	018H
	DB	018H
	DB	0f3H
	DB	0f3H
	DB	0f3H
	DB	057H
	DB	030H
	DB	04H
	DB	04H
	DB	04H
	DB	04H
	DB	04H
	DB	023H
	DB	027H
	DB	0bH
	DB	013H
	DB	0c2H
	DB	0c2H
	DB	065H
	DB	06aH
	DB	04aH
	DB	04H
	DB	04H
	DB	04H
	DB	04H
	DB	04H
	DB	023H
	DB	040H
	DB	076H
	DB	0eH
	DB	0c2H
	DB	011H
	DB	012H
	DB	015H
	DB	010H
	DB	05aH
	DB	04bH
	DB	04H
	DB	04H
	DB	04H
	DB	04H
	DB	04H
	DB	04H
	DB	040H
	DB	099H
	DB	010H
	DB	0cH
	DB	018H
	DB	018H
	DB	018H
	DB	018H
	DB	018H
	DB	018H
	DB	018H
	DB	018H
	DB	018H
	DB	018H
	DB	018H
	DB	018H
	DB	018H
	DB	018H
	DB	018H
	DB	018H
	DB	018H
	DB	018H
	DB	018H
	DB	018H
	DB	018H
	DB	018H
	DB	018H
	DB	018H
	DB	018H
	DB	0f3H
	DB	0f3H
	DB	0f3H
	DB	0f3H
	DB	0cH
	DB	0cH
	DB	0cH
	DB	0cH
	DB	0cH
	DB	0cH
	DB	0cH
	DB	0fH
	DB	0fH
	DB	0fH
	DB	0fH
	DB	0fH
	DB	0fH
	DB	0fH
	DB	010H
	DB	010H
	DB	010H
	DB	010H
	DB	010H
	DB	010H
	DB	010H
	DB	017H
	DB	017H
	DB	017H
	DB	015H
	DB	015H
	DB	09bH
	DB	012H
	DB	011H
	DB	011H
	DB	0c4H
	DB	016H
	DB	0c2H
	DB	0c2H
	DB	013H
	DB	013H
	DB	071H
	DB	08cH
	DB	028H
	DB	035H
	DB	01fH
	DB	035H
	DB	033H
	DB	03fH
	DB	05cH
	DB	011H
	DB	0c3H
	DB	011H
	DB	011H
	DB	011H
	DB	011H
	DB	011H
	DB	012H
	DB	012H
	DB	012H
	DB	012H
	DB	09bH
	DB	09bH
	DB	0f2H
	DB	015H
	DB	015H
	DB	015H
	DB	015H
	DB	017H
	DB	017H
	DB	017H
	DB	017H
	DB	017H
	DB	010H
	DB	010H
	DB	010H
	DB	010H
	DB	010H
	DB	010H
	DB	0fH
	DB	0fH
	DB	0fH
	DB	0fH
	DB	0fH
	DB	0fH
	DB	0fH
	DB	0cH
	DB	0cH
	DB	0cH
	DB	0cH
	DB	0cH
	DB	0cH
	DB	0cH
	DB	0f3H
	DB	0f3H
	DB	0f3H
	DB	0f3H
	DB	018H
	DB	018H
	DB	018H
	DB	018H
	DB	018H
	DB	018H
	DB	018H
	DB	018H
	DB	018H
	DB	018H
	DB	018H
	DB	018H
	DB	0f3H
	DB	0f3H
	DB	0cH
	DB	0cH
	DB	099H
	DB	030H
	DB	04H
	DB	04H
	DB	04H
	DB	04H
	DB	04H
	DB	023H
	DB	027H
	DB	05bH
	DB	013H
	DB	0c2H
	DB	013H
	DB	065H
	DB	054H
	DB	03cH
	DB	04H
	DB	04H
	DB	04H
	DB	04H
	DB	04H
	DB	04H
	DB	02dH
	DB	055H
	DB	0dH
	DB	014H
	DB	0c2H
	DB	0c4H
	DB	012H
	DB	015H
	DB	092H
	DB	04dH
	DB	04H
	DB	04H
	DB	04H
	DB	04H
	DB	04H
	DB	023H
	DB	02aH
	DB	0eH
	DB	010H
	DB	0cH
	DB	018H
	DB	018H
	DB	018H
	DB	018H
	DB	018H
	DB	018H
	DB	018H
	DB	018H
	DB	018H
	DB	018H
	DB	018H
	DB	018H
	DB	018H
	DB	018H
	DB	018H
	DB	018H
	DB	018H
	DB	018H
	DB	018H
	DB	018H
	DB	018H
	DB	018H
	DB	018H
	DB	018H
	DB	0f3H
	DB	0f3H
	DB	0f3H
	DB	0f3H
	DB	0cH
	DB	0cH
	DB	0cH
	DB	0cH
	DB	0cH
	DB	0cH
	DB	0cH
	DB	0cH
	DB	0fH
	DB	0fH
	DB	0fH
	DB	0fH
	DB	0fH
	DB	0fH
	DB	0fH
	DB	010H
	DB	010H
	DB	010H
	DB	010H
	DB	010H
	DB	010H
	DB	010H
	DB	017H
	DB	017H
	DB	017H
	DB	015H
	DB	0f2H
	DB	012H
	DB	012H
	DB	011H
	DB	0c4H
	DB	0c3H
	DB	016H
	DB	0c2H
	DB	013H
	DB	013H
	DB	013H
	DB	071H
	DB	08cH
	DB	028H
	DB	035H
	DB	01fH
	DB	035H
	DB	033H
	DB	03fH
	DB	05cH
	DB	011H
	DB	0c4H
	DB	0c4H
	DB	011H
	DB	011H
	DB	011H
	DB	011H
	DB	012H
	DB	012H
	DB	012H
	DB	012H
	DB	012H
	DB	09bH
	DB	0f2H
	DB	015H
	DB	015H
	DB	015H
	DB	015H
	DB	017H
	DB	017H
	DB	017H
	DB	017H
	DB	017H
	DB	010H
	DB	010H
	DB	010H
	DB	010H
	DB	010H
	DB	010H
	DB	010H
	DB	0fH
	DB	0fH
	DB	0fH
	DB	0fH
	DB	0fH
	DB	0fH
	DB	0cH
	DB	0cH
	DB	0cH
	DB	0cH
	DB	0cH
	DB	0cH
	DB	0cH
	DB	0f3H
	DB	0f3H
	DB	0f3H
	DB	0f3H
	DB	018H
	DB	018H
	DB	018H
	DB	018H
	DB	018H
	DB	018H
	DB	018H
	DB	018H
	DB	018H
	DB	018H
	DB	018H
	DB	0f3H
	DB	0f3H
	DB	0cH
	DB	0cH
	DB	0cH
	DB	099H
	DB	030H
	DB	04H
	DB	04H
	DB	04H
	DB	04H
	DB	04H
	DB	023H
	DB	027H
	DB	05bH
	DB	065H
	DB	013H
	DB	065H
	DB	065H
	DB	093H
	DB	03eH
	DB	02eH
	DB	04H
	DB	04H
	DB	04H
	DB	04H
	DB	04H
	DB	04aH
	DB	019H
	DB	060H
	DB	0c1H
	DB	014H
	DB	013H
	DB	0c4H
	DB	077H
	DB	075H
	DB	036H
	DB	04H
	DB	04H
	DB	04H
	DB	04H
	DB	04H
	DB	036H
	DB	01H
	DB	072H
	DB	010H
	DB	0cH
	DB	018H
	DB	018H
	DB	018H
	DB	018H
	DB	018H
	DB	018H
	DB	018H
	DB	018H
	DB	018H
	DB	018H
	DB	018H
	DB	018H
	DB	0f3H
	DB	018H
	DB	018H
	DB	018H
	DB	018H
	DB	018H
	DB	018H
	DB	018H
	DB	018H
	DB	018H
	DB	018H
	DB	018H
	DB	0f3H
	DB	0f3H
	DB	0f3H
	DB	0f3H
	DB	0cH
	DB	0cH
	DB	0cH
	DB	0cH
	DB	0cH
	DB	0cH
	DB	0cH
	DB	0cH
	DB	0fH
	DB	0fH
	DB	0fH
	DB	0fH
	DB	0fH
	DB	0fH
	DB	0fH
	DB	010H
	DB	010H
	DB	010H
	DB	010H
	DB	010H
	DB	010H
	DB	010H
	DB	017H
	DB	017H
	DB	015H
	DB	015H
	DB	012H
	DB	012H
	DB	011H
	DB	011H
	DB	0c3H
	DB	016H
	DB	0c2H
	DB	0c2H
	DB	013H
	DB	065H
	DB	065H
	DB	0eH
	DB	08cH
	DB	028H
	DB	035H
	DB	01fH
	DB	035H
	DB	033H
	DB	03fH
	DB	05cH
	DB	011H
	DB	0c3H
	DB	0c4H
	DB	011H
	DB	011H
	DB	011H
	DB	011H
	DB	012H
	DB	012H
	DB	012H
	DB	012H
	DB	012H
	DB	09bH
	DB	0f2H
	DB	015H
	DB	015H
	DB	015H
	DB	015H
	DB	015H
	DB	017H
	DB	017H
	DB	017H
	DB	017H
	DB	017H
	DB	010H
	DB	010H
	DB	010H
	DB	010H
	DB	010H
	DB	010H
	DB	0fH
	DB	0fH
	DB	0fH
	DB	0fH
	DB	0fH
	DB	0fH
	DB	0fH
	DB	0cH
	DB	0cH
	DB	0cH
	DB	0cH
	DB	0cH
	DB	0cH
	DB	0cH
	DB	0cH
	DB	0f3H
	DB	0f3H
	DB	0f3H
	DB	0f3H
	DB	0f3H
	DB	0f3H
	DB	0f3H
	DB	0f3H
	DB	0f3H
	DB	0f3H
	DB	0f3H
	DB	0f3H
	DB	0f3H
	DB	0f3H
	DB	0cH
	DB	0cH
	DB	0fH
	DB	0fH
	DB	07bH
	DB	046H
	DB	04H
	DB	04H
	DB	04H
	DB	04H
	DB	04H
	DB	02eH
	DB	029H
	DB	07H
	DB	013H
	DB	013H
	DB	014H
	DB	082H
	DB	0bfH
	DB	01H
	DB	03aH
	DB	04H
	DB	04H
	DB	04H
	DB	04H
	DB	04H
	DB	03dH
	DB	02H
	DB	054H
	DB	0bH
	DB	0dH
	DB	071H
	DB	013H
	DB	05aH
	DB	040H
	DB	04H
	DB	04H
	DB	04H
	DB	04H
	DB	04H
	DB	04H
	DB	04aH
	DB	055H
	DB	0c3H
	DB	010H
	DB	0cH
	DB	0f3H
	DB	0f3H
	DB	0f3H
	DB	0f3H
	DB	0f3H
	DB	0f3H
	DB	0f3H
	DB	0f3H
	DB	0f3H
	DB	0f3H
	DB	0f3H
	DB	0f3H
	DB	0f3H
	DB	0f3H
	DB	0f3H
	DB	0f3H
	DB	0f3H
	DB	0f3H
	DB	0f3H
	DB	0f3H
	DB	0f3H
	DB	0f3H
	DB	0f3H
	DB	0f3H
	DB	0f3H
	DB	0f3H
	DB	0f3H
	DB	0cH
	DB	0cH
	DB	0cH
	DB	0cH
	DB	0cH
	DB	0cH
	DB	0cH
	DB	0cH
	DB	0fH
	DB	0fH
	DB	0fH
	DB	0fH
	DB	0fH
	DB	0fH
	DB	0fH
	DB	0fH
	DB	010H
	DB	010H
	DB	010H
	DB	010H
	DB	010H
	DB	010H
	DB	017H
	DB	017H
	DB	015H
	DB	015H
	DB	0f2H
	DB	012H
	DB	011H
	DB	011H
	DB	0c4H
	DB	016H
	DB	016H
	DB	0c2H
	DB	013H
	DB	013H
	DB	065H
	DB	065H
	DB	0eH
	DB	08cH
	DB	028H
	DB	035H
	DB	01fH
	DB	035H
	DB	033H
	DB	03fH
	DB	05cH
	DB	011H
	DB	0c3H
	DB	0c4H
	DB	011H
	DB	011H
	DB	011H
	DB	011H
	DB	012H
	DB	012H
	DB	012H
	DB	012H
	DB	012H
	DB	09bH
	DB	0f2H
	DB	0f2H
	DB	015H
	DB	015H
	DB	015H
	DB	015H
	DB	017H
	DB	017H
	DB	017H
	DB	017H
	DB	017H
	DB	010H
	DB	010H
	DB	010H
	DB	010H
	DB	010H
	DB	010H
	DB	0fH
	DB	0fH
	DB	0fH
	DB	0fH
	DB	0fH
	DB	0fH
	DB	0fH
	DB	0cH
	DB	0cH
	DB	0cH
	DB	0cH
	DB	0cH
	DB	0cH
	DB	0cH
	DB	0f3H
	DB	0f3H
	DB	0f3H
	DB	0f3H
	DB	0f3H
	DB	0f3H
	DB	0f3H
	DB	0f3H
	DB	0f3H
	DB	0f3H
	DB	0f3H
	DB	0f3H
	DB	0f3H
	DB	0f3H
	DB	0cH
	DB	0cH
	DB	0fH
	DB	0fH
	DB	0fH
	DB	077H
	DB	02aH
	DB	02eH
	DB	04H
	DB	04H
	DB	04H
	DB	04H
	DB	04H
	DB	04bH
	DB	019H
	DB	076H
	DB	07aH
	DB	06aH
	DB	043H
	DB	0dH
	DB	02cH
	DB	030H
	DB	04H
	DB	04H
	DB	04H
	DB	04H
	DB	04H
	DB	04H
	DB	037H
	DB	019H
	DB	054H
	DB	0bH
	DB	0bfH
	DB	05aH
	DB	02H
	DB	058H
	DB	04H
	DB	04H
	DB	04H
	DB	04H
	DB	04H
	DB	032H
	DB	029H
	DB	05aH
	DB	012H
	DB	010H
	DB	0cH
	DB	0f3H
	DB	0f3H
	DB	0f3H
	DB	0f3H
	DB	0f3H
	DB	0f3H
	DB	0f3H
	DB	0f3H
	DB	0f3H
	DB	0f3H
	DB	0f3H
	DB	0f3H
	DB	0f3H
	DB	0f3H
	DB	0f3H
	DB	0f3H
	DB	0f3H
	DB	0f3H
	DB	0f3H
	DB	0f3H
	DB	0f3H
	DB	0f3H
	DB	0f3H
	DB	0f3H
	DB	0f3H
	DB	0f3H
	DB	0f3H
	DB	0cH
	DB	0cH
	DB	0cH
	DB	0cH
	DB	0cH
	DB	0cH
	DB	0cH
	DB	0cH
	DB	0fH
	DB	0fH
	DB	0fH
	DB	0fH
	DB	0fH
	DB	0fH
	DB	0fH
	DB	010H
	DB	010H
	DB	010H
	DB	010H
	DB	010H
	DB	010H
	DB	010H
	DB	017H
	DB	017H
	DB	015H
	DB	0f2H
	DB	012H
	DB	012H
	DB	011H
	DB	011H
	DB	0c3H
	DB	016H
	DB	0c2H
	DB	013H
	DB	013H
	DB	065H
	DB	014H
	DB	014H
	DB	0eH
	DB	08cH
	DB	028H
	DB	035H
	DB	01fH
	DB	035H
	DB	033H
	DB	03fH
	DB	05cH
	DB	011H
	DB	0c3H
	DB	0c4H
	DB	011H
	DB	011H
	DB	011H
	DB	011H
	DB	012H
	DB	012H
	DB	012H
	DB	012H
	DB	012H
	DB	09bH
	DB	0f2H
	DB	0f2H
	DB	015H
	DB	015H
	DB	015H
	DB	015H
	DB	017H
	DB	017H
	DB	017H
	DB	017H
	DB	017H
	DB	010H
	DB	010H
	DB	010H
	DB	010H
	DB	010H
	DB	010H
	DB	0fH
	DB	0fH
	DB	0fH
	DB	0fH
	DB	0fH
	DB	0fH
	DB	0fH
	DB	0cH
	DB	0cH
	DB	0cH
	DB	0cH
	DB	0cH
	DB	0cH
	DB	0cH
	DB	0cH
	DB	0cH
	DB	0f3H
	DB	0f3H
	DB	0f3H
	DB	0f3H
	DB	0f3H
	DB	0f3H
	DB	0f3H
	DB	0f3H
	DB	0f3H
	DB	0f3H
	DB	0f3H
	DB	0cH
	DB	0cH
	DB	0fH
	DB	0fH
	DB	010H
	DB	010H
	DB	012H
	DB	01H
	DB	03aH
	DB	04H
	DB	04H
	DB	04H
	DB	04H
	DB	04H
	DB	02eH
	DB	041H
	DB	02dH
	DB	02dH
	DB	04bH
	DB	040H
	DB	054H
	DB	09H
	DB	02H
	DB	03aH
	DB	04H
	DB	04H
	DB	04H
	DB	04H
	DB	04H
	DB	02eH
	DB	031H
	DB	027H
	DB	019H
	DB	019H
	DB	029H
	DB	04cH
	DB	04H
	DB	04H
	DB	04H
	DB	04H
	DB	04H
	DB	04H
	DB	050H
	DB	019H
	DB	0c1H
	DB	012H
	DB	0fH
	DB	0cH
	DB	0f3H
	DB	0f3H
	DB	0f3H
	DB	0f3H
	DB	0f3H
	DB	0f3H
	DB	0f3H
	DB	0f3H
	DB	0f3H
	DB	0f3H
	DB	0f3H
	DB	0f3H
	DB	0f3H
	DB	0f3H
	DB	0f3H
	DB	0f3H
	DB	0f3H
	DB	0f3H
	DB	0f3H
	DB	0f3H
	DB	0f3H
	DB	0f3H
	DB	0f3H
	DB	0f3H
	DB	0f3H
	DB	0cH
	DB	0cH
	DB	0cH
	DB	0cH
	DB	0cH
	DB	0cH
	DB	0cH
	DB	0cH
	DB	0cH
	DB	0fH
	DB	0fH
	DB	0fH
	DB	0fH
	DB	0fH
	DB	0fH
	DB	0fH
	DB	0fH
	DB	010H
	DB	010H
	DB	010H
	DB	010H
	DB	010H
	DB	010H
	DB	017H
	DB	017H
	DB	015H
	DB	015H
	DB	09bH
	DB	012H
	DB	011H
	DB	011H
	DB	0c4H
	DB	016H
	DB	016H
	DB	0c2H
	DB	013H
	DB	013H
	DB	065H
	DB	014H
	DB	014H
	DB	0c1H
	DB	01H
	DB	028H
	DB	035H
	DB	01fH
	DB	035H
	DB	033H
	DB	03fH
	DB	05cH
	DB	011H
	DB	0c3H
	DB	0c4H
	DB	0c4H
	DB	011H
	DB	011H
	DB	011H
	DB	011H
	DB	012H
	DB	012H
	DB	012H
	DB	012H
	DB	09bH
	DB	0f2H
	DB	0f2H
	DB	015H
	DB	015H
	DB	015H
	DB	015H
	DB	017H
	DB	017H
	DB	017H
	DB	017H
	DB	017H
	DB	010H
	DB	010H
	DB	010H
	DB	010H
	DB	010H
	DB	010H
	DB	010H
	DB	0fH
	DB	0fH
	DB	0fH
	DB	0fH
	DB	0fH
	DB	0fH
	DB	0fH
	DB	0cH
	DB	0cH
	DB	0cH
	DB	0cH
	DB	0cH
	DB	0cH
	DB	0cH
	DB	0cH
	DB	0f3H
	DB	0f3H
	DB	0f3H
	DB	0f3H
	DB	0f3H
	DB	0f3H
	DB	0f3H
	DB	0f3H
	DB	0f3H
	DB	0f3H
	DB	0cH
	DB	0cH
	DB	0fH
	DB	0fH
	DB	010H
	DB	010H
	DB	017H
	DB	017H
	DB	07aH
	DB	03cH
	DB	04H
	DB	04H
	DB	04H
	DB	04H
	DB	04H
	DB	04H
	DB	04H
	DB	04H
	DB	04H
	DB	04H
	DB	04aH
	DB	026H
	DB	0bH
	DB	02cH
	DB	029H
	DB	049H
	DB	04H
	DB	04H
	DB	04H
	DB	04H
	DB	04H
	DB	04H
	DB	049H
	DB	03aH
	DB	036H
	DB	032H
	DB	04H
	DB	04H
	DB	04H
	DB	04H
	DB	04H
	DB	04H
	DB	03aH
	DB	027H
	DB	054H
	DB	082H
	DB	012H
	DB	010H
	DB	0cH
	DB	0cH
	DB	0f3H
	DB	0f3H
	DB	0f3H
	DB	0f3H
	DB	0f3H
	DB	0f3H
	DB	0f3H
	DB	0f3H
	DB	0f3H
	DB	0f3H
	DB	0f3H
	DB	0f3H
	DB	0f3H
	DB	0f3H
	DB	0f3H
	DB	0f3H
	DB	0f3H
	DB	0f3H
	DB	0f3H
	DB	0f3H
	DB	0f3H
	DB	0f3H
	DB	0f3H
	DB	0f3H
	DB	0cH
	DB	0cH
	DB	0cH
	DB	0cH
	DB	0cH
	DB	0cH
	DB	0cH
	DB	0cH
	DB	0cH
	DB	0fH
	DB	0fH
	DB	0fH
	DB	0fH
	DB	0fH
	DB	0fH
	DB	0fH
	DB	0fH
	DB	010H
	DB	010H
	DB	010H
	DB	010H
	DB	010H
	DB	010H
	DB	017H
	DB	017H
	DB	015H
	DB	0f2H
	DB	012H
	DB	012H
	DB	011H
	DB	0c4H
	DB	016H
	DB	0c2H
	DB	0c2H
	DB	013H
	DB	065H
	DB	065H
	DB	014H
	DB	082H
	DB	071H
	DB	0c1H
	DB	01H
	DB	028H
	DB	035H
	DB	01fH
	DB	035H
	DB	033H
	DB	03fH
	DB	05cH
	DB	011H
	DB	0c3H
	DB	0c4H
	DB	0c4H
	DB	011H
	DB	011H
	DB	011H
	DB	011H
	DB	012H
	DB	012H
	DB	012H
	DB	012H
	DB	09bH
	DB	09bH
	DB	0f2H
	DB	015H
	DB	015H
	DB	015H
	DB	015H
	DB	017H
	DB	017H
	DB	017H
	DB	017H
	DB	017H
	DB	017H
	DB	010H
	DB	010H
	DB	010H
	DB	010H
	DB	010H
	DB	010H
	DB	0fH
	DB	0fH
	DB	0fH
	DB	0fH
	DB	0fH
	DB	0fH
	DB	0fH
	DB	0cH
	DB	0cH
	DB	0cH
	DB	0cH
	DB	0cH
	DB	0cH
	DB	0cH
	DB	0cH
	DB	0cH
	DB	0f3H
	DB	0cH
	DB	0cH
	DB	0cH
	DB	0cH
	DB	0cH
	DB	0cH
	DB	0f3H
	DB	0cH
	DB	0cH
	DB	0cH
	DB	0fH
	DB	0fH
	DB	010H
	DB	017H
	DB	017H
	DB	017H
	DB	072H
	DB	019H
	DB	048H
	DB	04H
	DB	04H
	DB	04H
	DB	04H
	DB	04H
	DB	04H
	DB	04H
	DB	04H
	DB	04H
	DB	03dH
	DB	027H
	DB	07H
	DB	07H
	DB	038H
	DB	03eH
	DB	049H
	DB	04H
	DB	04H
	DB	04H
	DB	04H
	DB	04H
	DB	04H
	DB	04H
	DB	04H
	DB	04H
	DB	04H
	DB	04H
	DB	04H
	DB	04H
	DB	04H
	DB	03aH
	DB	027H
	DB	053H
	DB	060H
	DB	014H
	DB	012H
	DB	010H
	DB	0fH
	DB	0cH
	DB	0cH
	DB	0f3H
	DB	0f3H
	DB	0f3H
	DB	0cH
	DB	0cH
	DB	0cH
	DB	0cH
	DB	0cH
	DB	0cH
	DB	0cH
	DB	0cH
	DB	0cH
	DB	0cH
	DB	0cH
	DB	0cH
	DB	0cH
	DB	0cH
	DB	0cH
	DB	0cH
	DB	0cH
	DB	0cH
	DB	0cH
	DB	0cH
	DB	0cH
	DB	0cH
	DB	0cH
	DB	0cH
	DB	0cH
	DB	0cH
	DB	0cH
	DB	0cH
	DB	0fH
	DB	0fH
	DB	0fH
	DB	0fH
	DB	0fH
	DB	0fH
	DB	0fH
	DB	0fH
	DB	010H
	DB	010H
	DB	010H
	DB	010H
	DB	010H
	DB	010H
	DB	010H
	DB	017H
	DB	015H
	DB	015H
	DB	09bH
	DB	012H
	DB	011H
	DB	011H
	DB	0c4H
	DB	016H
	DB	0c2H
	DB	013H
	DB	013H
	DB	065H
	DB	014H
	DB	014H
	DB	082H
	DB	071H
	DB	0dH
	DB	01H
	DB	028H
	DB	035H
	DB	01fH
	DB	035H
	DB	033H
	DB	03fH
	DB	05cH
	DB	011H
	DB	0c3H
	DB	0c3H
	DB	0c4H
	DB	011H
	DB	011H
	DB	011H
	DB	011H
	DB	012H
	DB	012H
	DB	012H
	DB	012H
	DB	09bH
	DB	09bH
	DB	0f2H
	DB	015H
	DB	015H
	DB	015H
	DB	015H
	DB	017H
	DB	017H
	DB	017H
	DB	017H
	DB	017H
	DB	017H
	DB	010H
	DB	010H
	DB	010H
	DB	010H
	DB	010H
	DB	010H
	DB	0fH
	DB	0fH
	DB	0fH
	DB	0fH
	DB	0fH
	DB	0fH
	DB	0fH
	DB	0fH
	DB	0cH
	DB	0cH
	DB	0cH
	DB	0cH
	DB	0cH
	DB	0cH
	DB	0cH
	DB	0cH
	DB	0cH
	DB	0cH
	DB	0cH
	DB	0cH
	DB	0cH
	DB	0cH
	DB	0cH
	DB	0cH
	DB	0cH
	DB	0cH
	DB	0fH
	DB	0fH
	DB	010H
	DB	010H
	DB	017H
	DB	015H
	DB	0f2H
	DB	012H
	DB	05bH
	DB	027H
	DB	04cH
	DB	04H
	DB	04H
	DB	04H
	DB	04H
	DB	04H
	DB	04H
	DB	04H
	DB	04H
	DB	045H
	DB	027H
	DB	054H
	DB	07H
	DB	06H
	DB	01H
	DB	02aH
	DB	04dH
	DB	023H
	DB	04H
	DB	04H
	DB	04H
	DB	04H
	DB	04H
	DB	04H
	DB	04H
	DB	04H
	DB	04H
	DB	04H
	DB	032H
	DB	04aH
	DB	027H
	DB	026H
	DB	06H
	DB	0bH
	DB	065H
	DB	012H
	DB	017H
	DB	010H
	DB	0fH
	DB	0cH
	DB	0cH
	DB	0cH
	DB	0cH
	DB	0cH
	DB	0cH
	DB	0cH
	DB	0cH
	DB	0cH
	DB	0cH
	DB	0cH
	DB	0cH
	DB	0cH
	DB	0cH
	DB	0cH
	DB	0cH
	DB	0cH
	DB	0cH
	DB	0cH
	DB	0cH
	DB	0cH
	DB	0cH
	DB	0cH
	DB	0cH
	DB	0cH
	DB	0cH
	DB	0cH
	DB	0cH
	DB	0cH
	DB	0cH
	DB	0cH
	DB	0cH
	DB	0fH
	DB	0fH
	DB	0fH
	DB	0fH
	DB	0fH
	DB	0fH
	DB	0fH
	DB	0fH
	DB	010H
	DB	010H
	DB	010H
	DB	010H
	DB	010H
	DB	010H
	DB	017H
	DB	017H
	DB	015H
	DB	09bH
	DB	012H
	DB	012H
	DB	011H
	DB	0c3H
	DB	016H
	DB	016H
	DB	0c2H
	DB	013H
	DB	013H
	DB	065H
	DB	014H
	DB	071H
	DB	071H
	DB	071H
	DB	0dH
	DB	01H
	DB	028H
	DB	035H
	DB	01fH
	DB	035H
	DB	033H
	DB	03fH
	DB	05cH
	DB	011H
	DB	0c3H
	DB	0c3H
	DB	0c4H
	DB	011H
	DB	011H
	DB	011H
	DB	011H
	DB	011H
	DB	012H
	DB	012H
	DB	012H
	DB	012H
	DB	09bH
	DB	0f2H
	DB	0f2H
	DB	015H
	DB	015H
	DB	015H
	DB	015H
	DB	017H
	DB	017H
	DB	017H
	DB	017H
	DB	017H
	DB	010H
	DB	010H
	DB	010H
	DB	010H
	DB	010H
	DB	010H
	DB	010H
	DB	0fH
	DB	0fH
	DB	0fH
	DB	0fH
	DB	0fH
	DB	0fH
	DB	0fH
	DB	0fH
	DB	0cH
	DB	0cH
	DB	0cH
	DB	0cH
	DB	0cH
	DB	0cH
	DB	0cH
	DB	0cH
	DB	0cH
	DB	0cH
	DB	0cH
	DB	0cH
	DB	0cH
	DB	0cH
	DB	0cH
	DB	0cH
	DB	0fH
	DB	0fH
	DB	010H
	DB	017H
	DB	017H
	DB	015H
	DB	0f2H
	DB	012H
	DB	011H
	DB	016H
	DB	063H
	DB	02H
	DB	044H
	DB	050H
	DB	058H
	DB	036H
	DB	036H
	DB	048H
	DB	04aH
	DB	02dH
	DB	02aH
	DB	08cH
	DB	06H
	DB	062H
	DB	06H
	DB	03H
	DB	026H
	DB	02H
	DB	03eH
	DB	04bH
	DB	03aH
	DB	03bH
	DB	023H
	DB	023H
	DB	023H
	DB	023H
	DB	049H
	DB	051H
	DB	037H
	DB	029H
	DB	02H
	DB	026H
	DB	03H
	DB	07H
	DB	0bfH
	DB	065H
	DB	0c3H
	DB	012H
	DB	015H
	DB	017H
	DB	010H
	DB	0fH
	DB	0cH
	DB	0cH
	DB	0cH
	DB	0cH
	DB	0cH
	DB	0cH
	DB	0cH
	DB	0cH
	DB	0cH
	DB	0cH
	DB	0cH
	DB	0cH
	DB	0cH
	DB	0cH
	DB	0cH
	DB	0cH
	DB	0cH
	DB	0cH
	DB	0cH
	DB	0cH
	DB	0cH
	DB	0cH
	DB	0cH
	DB	0cH
	DB	0cH
	DB	0cH
	DB	0cH
	DB	0cH
	DB	0cH
	DB	0fH
	DB	0fH
	DB	0fH
	DB	0fH
	DB	0fH
	DB	0fH
	DB	0fH
	DB	0fH
	DB	0fH
	DB	010H
	DB	010H
	DB	010H
	DB	010H
	DB	010H
	DB	017H
	DB	017H
	DB	015H
	DB	0f2H
	DB	012H
	DB	012H
	DB	011H
	DB	0c4H
	DB	016H
	DB	0c2H
	DB	0c2H
	DB	013H
	DB	013H
	DB	065H
	DB	014H
	DB	082H
	DB	071H
	DB	0eH
	DB	0eH
	DB	0dH
	DB	01H
	DB	028H
	DB	035H
	DB	01fH
	DB	035H
	DB	033H
	DB	03fH
	DB	05cH
	DB	0c4H
	DB	016H
	DB	0c4H
	DB	0c4H
	DB	011H
	DB	011H
	DB	011H
	DB	011H
	DB	011H
	DB	012H
	DB	012H
	DB	012H
	DB	012H
	DB	09bH
	DB	09bH
	DB	0f2H
	DB	015H
	DB	015H
	DB	015H
	DB	015H
	DB	017H
	DB	017H
	DB	017H
	DB	017H
	DB	017H
	DB	017H
	DB	010H
	DB	010H
	DB	010H
	DB	010H
	DB	010H
	DB	010H
	DB	010H
	DB	0fH
	DB	0fH
	DB	0fH
	DB	0fH
	DB	0fH
	DB	0fH
	DB	0fH
	DB	0cH
	DB	0cH
	DB	0cH
	DB	0cH
	DB	0cH
	DB	0cH
	DB	0cH
	DB	0cH
	DB	0cH
	DB	0cH
	DB	0cH
	DB	0cH
	DB	0cH
	DB	0cH
	DB	0cH
	DB	0fH
	DB	0fH
	DB	010H
	DB	010H
	DB	017H
	DB	015H
	DB	0f2H
	DB	012H
	DB	012H
	DB	011H
	DB	016H
	DB	014H
	DB	09H
	DB	055H
	DB	019H
	DB	02H
	DB	02H
	DB	02H
	DB	02H
	DB	019H
	DB	019H
	DB	053H
	DB	03H
	DB	06H
	DB	06H
	DB	06H
	DB	054H
	DB	03H
	DB	02cH
	DB	038H
	DB	02H
	DB	00H
	DB	00H
	DB	02aH
	DB	03eH
	DB	03eH
	DB	02aH
	DB	00H
	DB	00H
	DB	02H
	DB	019H
	DB	08dH
	DB	05H
	DB	054H
	DB	047H
	DB	0bfH
	DB	082H
	DB	0c2H
	DB	0c3H
	DB	012H
	DB	0f2H
	DB	017H
	DB	010H
	DB	0fH
	DB	0fH
	DB	0cH
	DB	0cH
	DB	0cH
	DB	0cH
	DB	0cH
	DB	0cH
	DB	0cH
	DB	0cH
	DB	0cH
	DB	0cH
	DB	0cH
	DB	0cH
	DB	0cH
	DB	0cH
	DB	0cH
	DB	0cH
	DB	0cH
	DB	0cH
	DB	0cH
	DB	0cH
	DB	0cH
	DB	0cH
	DB	0cH
	DB	0cH
	DB	0cH
	DB	0cH
	DB	0fH
	DB	0fH
	DB	0fH
	DB	0fH
	DB	0fH
	DB	0fH
	DB	0fH
	DB	0fH
	DB	0fH
	DB	010H
	DB	010H
	DB	010H
	DB	010H
	DB	010H
	DB	017H
	DB	017H
	DB	015H
	DB	015H
	DB	09bH
	DB	012H
	DB	011H
	DB	011H
	DB	0c4H
	DB	016H
	DB	0c2H
	DB	013H
	DB	013H
	DB	065H
	DB	014H
	DB	014H
	DB	082H
	DB	071H
	DB	0eH
	DB	0eH
	DB	0bfH
	DB	01H
	DB	028H
	DB	035H
	DB	01fH
	DB	035H
	DB	033H
	DB	03fH
	DB	05cH
	DB	0c4H
	DB	016H
	DB	0c4H
	DB	0c4H
	DB	011H
	DB	011H
	DB	011H
	DB	011H
	DB	011H
	DB	012H
	DB	012H
	DB	012H
	DB	012H
	DB	09bH
	DB	09bH
	DB	0f2H
	DB	015H
	DB	015H
	DB	015H
	DB	015H
	DB	015H
	DB	017H
	DB	017H
	DB	017H
	DB	017H
	DB	017H
	DB	010H
	DB	010H
	DB	010H
	DB	010H
	DB	010H
	DB	010H
	DB	010H
	DB	0fH
	DB	0fH
	DB	0fH
	DB	0fH
	DB	0fH
	DB	0fH
	DB	0fH
	DB	0fH
	DB	0cH
	DB	0cH
	DB	0cH
	DB	0cH
	DB	0cH
	DB	0cH
	DB	0cH
	DB	0cH
	DB	0cH
	DB	0cH
	DB	0cH
	DB	0cH
	DB	0cH
	DB	0fH
	DB	0fH
	DB	010H
	DB	010H
	DB	017H
	DB	015H
	DB	015H
	DB	012H
	DB	012H
	DB	011H
	DB	0c4H
	DB	016H
	DB	065H
	DB	0c1H
	DB	0bH
	DB	062H
	DB	03H
	DB	05H
	DB	05H
	DB	05H
	DB	05H
	DB	05H
	DB	05H
	DB	03H
	DB	06H
	DB	06H
	DB	06H
	DB	06H
	DB	03H
	DB	03H
	DB	05H
	DB	0aH
	DB	08H
	DB	08cH
	DB	01H
	DB	01H
	DB	01H
	DB	01H
	DB	01H
	DB	08cH
	DB	08cH
	DB	08dH
	DB	02cH
	DB	079H
	DB	06H
	DB	047H
	DB	0bH
	DB	0c1H
	DB	014H
	DB	013H
	DB	016H
	DB	011H
	DB	012H
	DB	015H
	DB	010H
	DB	010H
	DB	0fH
	DB	0cH
	DB	0cH
	DB	0cH
	DB	0cH
	DB	0cH
	DB	0cH
	DB	0cH
	DB	0cH
	DB	0cH
	DB	0cH
	DB	0cH
	DB	0cH
	DB	0cH
	DB	0cH
	DB	0cH
	DB	0cH
	DB	0cH
	DB	0cH
	DB	0cH
	DB	0cH
	DB	0cH
	DB	0cH
	DB	0cH
	DB	0cH
	DB	0fH
	DB	0fH
	DB	0fH
	DB	0fH
	DB	0fH
	DB	0fH
	DB	0fH
	DB	0fH
	DB	0fH
	DB	010H
	DB	010H
	DB	010H
	DB	010H
	DB	010H
	DB	010H
	DB	017H
	DB	017H
	DB	015H
	DB	09bH
	DB	012H
	DB	012H
	DB	011H
	DB	0c4H
	DB	016H
	DB	0c2H
	DB	0c2H
	DB	013H
	DB	065H
	DB	065H
	DB	014H
	DB	071H
	DB	0eH
	DB	0eH
	DB	0c1H
	DB	0c1H
	DB	0bfH
	DB	01H
	DB	028H
	DB	035H
	DB	01fH
	DB	035H
	DB	033H
	DB	03fH
	DB	05cH
	DB	0c4H
	DB	016H
	DB	0c3H
	DB	0c4H
	DB	0c4H
	DB	011H
	DB	011H
	DB	011H
	DB	011H
	DB	012H
	DB	012H
	DB	012H
	DB	012H
	DB	012H
	DB	09bH
	DB	0f2H
	DB	0f2H
	DB	015H
	DB	015H
	DB	015H
	DB	015H
	DB	017H
	DB	017H
	DB	017H
	DB	017H
	DB	017H
	DB	017H
	DB	010H
	DB	010H
	DB	010H
	DB	010H
	DB	010H
	DB	010H
	DB	010H
	DB	0fH
	DB	0fH
	DB	0fH
	DB	0fH
	DB	0fH
	DB	0fH
	DB	0fH
	DB	0fH
	DB	0fH
	DB	0cH
	DB	0cH
	DB	0cH
	DB	0cH
	DB	0cH
	DB	0cH
	DB	0cH
	DB	0cH
	DB	0cH
	DB	0cH
	DB	0fH
	DB	0fH
	DB	010H
	DB	010H
	DB	017H
	DB	015H
	DB	015H
	DB	09bH
	DB	012H
	DB	011H
	DB	0c4H
	DB	016H
	DB	0c2H
	DB	013H
	DB	071H
	DB	0dH
	DB	060H
	DB	047H
	DB	062H
	DB	06H
	DB	054H
	DB	03H
	DB	03H
	DB	03H
	DB	054H
	DB	06H
	DB	06H
	DB	06H
	DB	06H
	DB	06H
	DB	03H
	DB	03H
	DB	079H
	DB	05H
	DB	05H
	DB	02cH
	DB	0aH
	DB	0aH
	DB	0aH
	DB	0aH
	DB	0aH
	DB	02cH
	DB	05H
	DB	079H
	DB	03H
	DB	06H
	DB	07H
	DB	09H
	DB	0bH
	DB	0dH
	DB	0eH
	DB	065H
	DB	0c2H
	DB	0c3H
	DB	012H
	DB	0f2H
	DB	017H
	DB	010H
	DB	0fH
	DB	0fH
	DB	0cH
	DB	0cH
	DB	0cH
	DB	0cH
	DB	0cH
	DB	0cH
	DB	0cH
	DB	0cH
	DB	0cH
	DB	0cH
	DB	0cH
	DB	0cH
	DB	0cH
	DB	0cH
	DB	0cH
	DB	0cH
	DB	0cH
	DB	0cH
	DB	0cH
	DB	0cH
	DB	0fH
	DB	0fH
	DB	0fH
	DB	0fH
	DB	0fH
	DB	0fH
	DB	0fH
	DB	0fH
	DB	0fH
	DB	0fH
	DB	010H
	DB	010H
	DB	010H
	DB	010H
	DB	010H
	DB	010H
	DB	017H
	DB	017H
	DB	015H
	DB	0f2H
	DB	012H
	DB	012H
	DB	011H
	DB	0c4H
	DB	016H
	DB	016H
	DB	0c2H
	DB	013H
	DB	065H
	DB	014H
	DB	014H
	DB	082H
	DB	0eH
	DB	0eH
	DB	0eH
	DB	0c1H
	DB	0c1H
	DB	0bH
	DB	01H
	DB	028H
	DB	035H
	DB	01fH
	DB	035H
	DB	033H
	DB	03fH
	DB	05cH
	DB	0c4H
	DB	016H
	DB	0c3H
	DB	0c4H
	DB	0c4H
	DB	011H
	DB	011H
	DB	011H
	DB	011H
	DB	012H
	DB	012H
	DB	012H
	DB	012H
	DB	012H
	DB	09bH
	DB	09bH
	DB	0f2H
	DB	015H
	DB	015H
	DB	015H
	DB	015H
	DB	015H
	DB	017H
	DB	017H
	DB	017H
	DB	017H
	DB	017H
	DB	010H
	DB	010H
	DB	010H
	DB	010H
	DB	010H
	DB	010H
	DB	010H
	DB	0fH
	DB	0fH
	DB	0fH
	DB	0fH
	DB	0fH
	DB	0fH
	DB	0fH
	DB	0fH
	DB	0fH
	DB	0fH
	DB	0cH
	DB	0cH
	DB	0cH
	DB	0cH
	DB	0cH
	DB	0cH
	DB	0cH
	DB	0cH
	DB	0fH
	DB	0fH
	DB	010H
	DB	010H
	DB	017H
	DB	017H
	DB	015H
	DB	09bH
	DB	012H
	DB	011H
	DB	0c4H
	DB	016H
	DB	0c2H
	DB	013H
	DB	065H
	DB	082H
	DB	0eH
	DB	0dH
	DB	0bH
	DB	09H
	DB	047H
	DB	07H
	DB	062H
	DB	062H
	DB	06H
	DB	06H
	DB	06H
	DB	06H
	DB	06H
	DB	06H
	DB	06H
	DB	06H
	DB	06H
	DB	03H
	DB	03H
	DB	03H
	DB	03H
	DB	079H
	DB	079H
	DB	079H
	DB	079H
	DB	079H
	DB	03H
	DB	03H
	DB	03H
	DB	054H
	DB	06H
	DB	06H
	DB	07H
	DB	047H
	DB	060H
	DB	0bfH
	DB	0eH
	DB	014H
	DB	013H
	DB	016H
	DB	011H
	DB	09bH
	DB	015H
	DB	017H
	DB	010H
	DB	0fH
	DB	0cH
	DB	0cH
	DB	0cH
	DB	0cH
	DB	0cH
	DB	0cH
	DB	0cH
	DB	0cH
	DB	0cH
	DB	0cH
	DB	0cH
	DB	0cH
	DB	0cH
	DB	0cH
	DB	0cH
	DB	0cH
	DB	0cH
	DB	0cH
	DB	0fH
	DB	0fH
	DB	0fH
	DB	0fH
	DB	0fH
	DB	0fH
	DB	0fH
	DB	0fH
	DB	0fH
	DB	0fH
	DB	010H
	DB	010H
	DB	010H
	DB	010H
	DB	010H
	DB	010H
	DB	010H
	DB	017H
	DB	015H
	DB	0f2H
	DB	09bH
	DB	012H
	DB	011H
	DB	011H
	DB	0c3H
	DB	016H
	DB	0c2H
	DB	013H
	DB	013H
	DB	065H
	DB	014H
	DB	071H
	DB	071H
	DB	0eH
	DB	0eH
	DB	0c1H
	DB	0c1H
	DB	0c1H
	DB	0bH
	DB	01H
	DB	028H
	DB	035H
	DB	01fH
	DB	035H
	DB	033H
	DB	03fH
	DB	05cH
	DB	0c4H
	DB	016H
	DB	0c3H
	DB	0c3H
	DB	0c4H
	DB	011H
	DB	011H
	DB	011H
	DB	011H
	DB	011H
	DB	012H
	DB	012H
	DB	012H
	DB	012H
	DB	012H
	DB	09bH
	DB	0f2H
	DB	0f2H
	DB	015H
	DB	015H
	DB	015H
	DB	015H
	DB	017H
	DB	017H
	DB	017H
	DB	017H
	DB	017H
	DB	017H
	DB	010H
	DB	010H
	DB	010H
	DB	010H
	DB	010H
	DB	010H
	DB	010H
	DB	010H
	DB	0fH
	DB	0fH
	DB	0fH
	DB	0fH
	DB	0fH
	DB	0fH
	DB	0fH
	DB	0fH
	DB	0fH
	DB	0cH
	DB	0cH
	DB	0cH
	DB	0cH
	DB	0cH
	DB	0cH
	DB	0fH
	DB	0fH
	DB	010H
	DB	010H
	DB	017H
	DB	017H
	DB	015H
	DB	09bH
	DB	012H
	DB	011H
	DB	0c4H
	DB	016H
	DB	0c2H
	DB	013H
	DB	065H
	DB	014H
	DB	071H
	DB	0eH
	DB	0dH
	DB	0bfH
	DB	0bH
	DB	09H
	DB	09H
	DB	07H
	DB	07H
	DB	062H
	DB	06H
	DB	06H
	DB	06H
	DB	06H
	DB	06H
	DB	06H
	DB	06H
	DB	06H
	DB	06H
	DB	06H
	DB	06H
	DB	054H
	DB	03H
	DB	03H
	DB	03H
	DB	03H
	DB	03H
	DB	054H
	DB	06H
	DB	06H
	DB	06H
	DB	06H
	DB	06H
	DB	06H
	DB	062H
	DB	07H
	DB	09H
	DB	0bH
	DB	0dH
	DB	0eH
	DB	065H
	DB	0c2H
	DB	0c4H
	DB	012H
	DB	0f2H
	DB	017H
	DB	010H
	DB	0fH
	DB	0fH
	DB	0cH
	DB	0cH
	DB	0cH
	DB	0cH
	DB	0cH
	DB	0cH
	DB	0cH
	DB	0cH
	DB	0cH
	DB	0cH
	DB	0cH
	DB	0cH
	DB	0cH
	DB	0cH
	DB	0cH
	DB	0fH
	DB	0fH
	DB	0fH
	DB	0fH
	DB	0fH
	DB	0fH
	DB	0fH
	DB	0fH
	DB	0fH
	DB	0fH
	DB	010H
	DB	010H
	DB	010H
	DB	010H
	DB	010H
	DB	010H
	DB	010H
	DB	017H
	DB	017H
	DB	015H
	DB	09bH
	DB	012H
	DB	011H
	DB	011H
	DB	0c3H
	DB	016H
	DB	0c2H
	DB	013H
	DB	013H
	DB	065H
	DB	014H
	DB	082H
	DB	071H
	DB	0eH
	DB	0eH
	DB	0c1H
	DB	0c1H
	DB	0dH
	DB	0dH
	DB	0bH
	DB	01H
	DB	028H
	DB	035H
	DB	01fH
	DB	035H
	DB	033H
	DB	03fH
	DB	013H
	DB	0c4H
	DB	016H
	DB	016H
	DB	0c3H
	DB	0c4H
	DB	011H
	DB	011H
	DB	011H
	DB	011H
	DB	011H
	DB	012H
	DB	012H
	DB	012H
	DB	012H
	DB	012H
	DB	09bH
	DB	0f2H
	DB	0f2H
	DB	015H
	DB	015H
	DB	015H
	DB	015H
	DB	015H
	DB	017H
	DB	017H
	DB	017H
	DB	017H
	DB	017H
	DB	017H
	DB	010H
	DB	010H
	DB	010H
	DB	010H
	DB	010H
	DB	010H
	DB	010H
	DB	010H
	DB	0fH
	DB	0fH
	DB	0fH
	DB	0fH
	DB	0fH
	DB	0fH
	DB	0fH
	DB	0fH
	DB	0fH
	DB	0fH
	DB	0cH
	DB	0cH
	DB	0fH
	DB	0fH
	DB	0fH
	DB	010H
	DB	010H
	DB	017H
	DB	017H
	DB	015H
	DB	0f2H
	DB	012H
	DB	011H
	DB	011H
	DB	016H
	DB	0c2H
	DB	013H
	DB	065H
	DB	014H
	DB	071H
	DB	0eH
	DB	0c1H
	DB	0dH
	DB	0bfH
	DB	0bH
	DB	09H
	DB	09H
	DB	07H
	DB	062H
	DB	06H
	DB	06H
	DB	06H
	DB	06H
	DB	06H
	DB	06H
	DB	06H
	DB	06H
	DB	06H
	DB	06H
	DB	06H
	DB	06H
	DB	06H
	DB	06H
	DB	06H
	DB	06H
	DB	06H
	DB	06H
	DB	06H
	DB	06H
	DB	06H
	DB	06H
	DB	06H
	DB	06H
	DB	06H
	DB	06H
	DB	06H
	DB	07H
	DB	09H
	DB	0bH
	DB	0bfH
	DB	0c1H
	DB	014H
	DB	013H
	DB	016H
	DB	011H
	DB	012H
	DB	015H
	DB	017H
	DB	010H
	DB	0fH
	DB	0fH
	DB	0fH
	DB	0cH
	DB	0cH
	DB	0cH
	DB	0cH
	DB	0cH
	DB	0cH
	DB	0cH
	DB	0cH
	DB	0cH
	DB	0cH
	DB	0fH
	DB	0fH
	DB	0fH
	DB	0fH
	DB	0fH
	DB	0fH
	DB	0fH
	DB	0fH
	DB	0fH
	DB	0fH
	DB	0fH
	DB	010H
	DB	010H
	DB	010H
	DB	010H
	DB	010H
	DB	010H
	DB	010H
	DB	017H
	DB	017H
	DB	015H
	DB	09bH
	DB	012H
	DB	011H
	DB	011H
	DB	0c4H
	DB	016H
	DB	0c2H
	DB	0c2H
	DB	013H
	DB	065H
	DB	014H
	DB	014H
	DB	071H
	DB	0eH
	DB	0eH
	DB	0c1H
	DB	0c1H
	DB	0dH
	DB	0dH
	DB	0dH
	DB	060H
	DB	01aH
	DB	028H
	DB	035H
	DB	01fH
	DB	035H
	DB	033H
	DB	03fH
	DB	013H
	DB	0c4H
	DB	016H
	DB	016H
	DB	0c3H
	DB	0c4H
	DB	011H
	DB	011H
	DB	011H
	DB	011H
	DB	011H
	DB	012H
	DB	012H
	DB	012H
	DB	012H
	DB	012H
	DB	09bH
	DB	09bH
	DB	0f2H
	DB	0f2H
	DB	015H
	DB	015H
	DB	015H
	DB	015H
	DB	017H
	DB	017H
	DB	017H
	DB	017H
	DB	017H
	DB	017H
	DB	010H
	DB	010H
	DB	010H
	DB	010H
	DB	010H
	DB	010H
	DB	010H
	DB	010H
	DB	0fH
	DB	0fH
	DB	0fH
	DB	0fH
	DB	0fH
	DB	0fH
	DB	0fH
	DB	0fH
	DB	0fH
	DB	0fH
	DB	0fH
	DB	0fH
	DB	0fH
	DB	0fH
	DB	0fH
	DB	010H
	DB	017H
	DB	017H
	DB	015H
	DB	0f2H
	DB	012H
	DB	011H
	DB	011H
	DB	0c3H
	DB	016H
	DB	0c2H
	DB	013H
	DB	014H
	DB	082H
	DB	0eH
	DB	0c1H
	DB	0dH
	DB	0bfH
	DB	0bH
	DB	060H
	DB	09H
	DB	07H
	DB	07H
	DB	062H
	DB	06H
	DB	06H
	DB	06H
	DB	06H
	DB	06H
	DB	06H
	DB	06H
	DB	06H
	DB	06H
	DB	06H
	DB	06H
	DB	06H
	DB	06H
	DB	06H
	DB	06H
	DB	06H
	DB	06H
	DB	06H
	DB	06H
	DB	06H
	DB	06H
	DB	06H
	DB	06H
	DB	06H
	DB	06H
	DB	06H
	DB	06H
	DB	06H
	DB	062H
	DB	047H
	DB	09H
	DB	0bfH
	DB	0c1H
	DB	071H
	DB	065H
	DB	0c2H
	DB	0c4H
	DB	012H
	DB	015H
	DB	017H
	DB	010H
	DB	0fH
	DB	0fH
	DB	0fH
	DB	0fH
	DB	0fH
	DB	0fH
	DB	0fH
	DB	0fH
	DB	0fH
	DB	0fH
	DB	0fH
	DB	0fH
	DB	0fH
	DB	0fH
	DB	0fH
	DB	0fH
	DB	0fH
	DB	0fH
	DB	0fH
	DB	0fH
	DB	0fH
	DB	0fH
	DB	010H
	DB	010H
	DB	010H
	DB	010H
	DB	010H
	DB	010H
	DB	010H
	DB	017H
	DB	017H
	DB	015H
	DB	0f2H
	DB	012H
	DB	012H
	DB	011H
	DB	0c4H
	DB	0c3H
	DB	016H
	DB	0c2H
	DB	013H
	DB	013H
	DB	014H
	DB	014H
	DB	071H
	DB	0eH
	DB	0eH
	DB	0c1H
	DB	0c1H
	DB	0c1H
	DB	0dH
	DB	0bfH
	DB	0bfH
	DB	060H
	DB	01aH
	DB	028H
	DB	035H
	DB	01fH
	DB	035H
	DB	033H
	DB	03fH
	DB	013H
	DB	0c3H
	DB	016H
	DB	0c3H
	DB	0c3H
	DB	0c4H
	DB	0c4H
	DB	011H
	DB	011H
	DB	011H
	DB	011H
	DB	011H
	DB	012H
	DB	012H
	DB	012H
	DB	012H
	DB	012H
	DB	09bH
	DB	09bH
	DB	0f2H
	DB	015H
	DB	015H
	DB	015H
	DB	015H
	DB	015H
	DB	017H
	DB	017H
	DB	017H
	DB	017H
	DB	017H
	DB	017H
	DB	010H
	DB	010H
	DB	010H
	DB	010H
	DB	010H
	DB	010H
	DB	010H
	DB	010H
	DB	010H
	DB	0fH
	DB	0fH
	DB	0fH
	DB	0fH
	DB	0fH
	DB	0fH
	DB	0fH
	DB	0fH
	DB	0fH
	DB	0fH
	DB	0fH
	DB	010H
	DB	010H
	DB	017H
	DB	017H
	DB	015H
	DB	0f2H
	DB	012H
	DB	012H
	DB	011H
	DB	0c3H
	DB	016H
	DB	0c2H
	DB	013H
	DB	065H
	DB	082H
	DB	0eH
	DB	0c1H
	DB	0dH
	DB	0bfH
	DB	0bH
	DB	060H
	DB	09H
	DB	047H
	DB	07H
	DB	062H
	DB	06H
	DB	06H
	DB	06H
	DB	06H
	DB	06H
	DB	06H
	DB	06H
	DB	06H
	DB	06H
	DB	06H
	DB	06H
	DB	06H
	DB	06H
	DB	06H
	DB	06H
	DB	06H
	DB	06H
	DB	06H
	DB	06H
	DB	06H
	DB	06H
	DB	06H
	DB	06H
	DB	06H
	DB	06H
	DB	06H
	DB	06H
	DB	06H
	DB	06H
	DB	06H
	DB	062H
	DB	07H
	DB	09H
	DB	0bH
	DB	0dH
	DB	0eH
	DB	014H
	DB	013H
	DB	016H
	DB	011H
	DB	012H
	DB	015H
	DB	017H
	DB	010H
	DB	0fH
	DB	0fH
	DB	0fH
	DB	0fH
	DB	0fH
	DB	0fH
	DB	0fH
	DB	0fH
	DB	0fH
	DB	0fH
	DB	0fH
	DB	0fH
	DB	0fH
	DB	0fH
	DB	0fH
	DB	0fH
	DB	0fH
	DB	0fH
	DB	0fH
	DB	010H
	DB	010H
	DB	010H
	DB	010H
	DB	010H
	DB	010H
	DB	010H
	DB	017H
	DB	017H
	DB	015H
	DB	015H
	DB	09bH
	DB	012H
	DB	011H
	DB	011H
	DB	0c3H
	DB	016H
	DB	0c2H
	DB	013H
	DB	013H
	DB	065H
	DB	014H
	DB	071H
	DB	071H
	DB	0eH
	DB	0c1H
	DB	0c1H
	DB	0dH
	DB	0dH
	DB	0bfH
	DB	0bfH
	DB	0bfH
	DB	060H
	DB	01aH
	DB	028H
	DB	035H
	DB	01fH
	DB	01fH
	DB	033H
	DB	03fH
	DB	013H
	DB	0c3H
	DB	016H
	DB	016H
	DB	0c3H
	DB	0c3H
	DB	0c4H
	DB	0c4H
	DB	011H
	DB	011H
	DB	011H
	DB	011H
	DB	011H
	DB	012H
	DB	012H
	DB	012H
	DB	012H
	DB	09bH
	DB	09bH
	DB	0f2H
	DB	015H
	DB	015H
	DB	015H
	DB	015H
	DB	015H
	DB	015H
	DB	017H
	DB	017H
	DB	017H
	DB	017H
	DB	017H
	DB	017H
	DB	010H
	DB	010H
	DB	010H
	DB	010H
	DB	010H
	DB	010H
	DB	010H
	DB	010H
	DB	010H
	DB	0fH
	DB	0fH
	DB	0fH
	DB	0fH
	DB	0fH
	DB	0fH
	DB	0fH
	DB	0fH
	DB	0fH
	DB	010H
	DB	010H
	DB	010H
	DB	017H
	DB	015H
	DB	0f2H
	DB	012H
	DB	012H
	DB	011H
	DB	0c3H
	DB	016H
	DB	0c2H
	DB	013H
	DB	065H
	DB	014H
	DB	0eH
	DB	0c1H
	DB	0dH
	DB	0bfH
	DB	0bH
	DB	060H
	DB	09H
	DB	047H
	DB	07H
	DB	062H
	DB	06H
	DB	06H
	DB	06H
	DB	06H
	DB	06H
	DB	06H
	DB	06H
	DB	06H
	DB	06H
	DB	06H
	DB	06H
	DB	06H
	DB	06H
	DB	06H
	DB	06H
	DB	06H
	DB	06H
	DB	06H
	DB	06H
	DB	06H
	DB	06H
	DB	06H
	DB	06H
	DB	06H
	DB	06H
	DB	06H
	DB	06H
	DB	06H
	DB	06H
	DB	06H
	DB	054H
	DB	06H
	DB	06H
	DB	062H
	DB	047H
	DB	060H
	DB	0bH
	DB	0c1H
	DB	071H
	DB	065H
	DB	0c2H
	DB	0c3H
	DB	011H
	DB	0f2H
	DB	017H
	DB	010H
	DB	010H
	DB	0fH
	DB	0fH
	DB	0fH
	DB	0fH
	DB	0fH
	DB	0fH
	DB	0fH
	DB	0fH
	DB	0fH
	DB	0fH
	DB	0fH
	DB	0fH
	DB	0fH
	DB	0fH
	DB	0fH
	DB	010H
	DB	010H
	DB	010H
	DB	010H
	DB	010H
	DB	010H
	DB	010H
	DB	010H
	DB	010H
	DB	017H
	DB	015H
	DB	015H
	DB	09bH
	DB	012H
	DB	011H
	DB	011H
	DB	0c4H
	DB	016H
	DB	0c2H
	DB	013H
	DB	013H
	DB	065H
	DB	014H
	DB	071H
	DB	071H
	DB	0eH
	DB	0c1H
	DB	0c1H
	DB	0dH
	DB	0dH
	DB	0bfH
	DB	0bfH
	DB	0bfH
	DB	0bfH
	DB	09H
	DB	01aH
	DB	028H
	DB	01fH
	DB	01fH
	DB	01fH
	DB	033H
	DB	03fH
	DB	013H
	DB	0c3H
	DB	016H
	DB	016H
	DB	016H
	DB	0c3H
	DB	0c4H
	DB	0c4H
	DB	011H
	DB	011H
	DB	011H
	DB	011H
	DB	011H
	DB	012H
	DB	012H
	DB	012H
	DB	012H
	DB	012H
	DB	09bH
	DB	09bH
	DB	0f2H
	DB	015H
	DB	015H
	DB	015H
	DB	015H
	DB	015H
	DB	017H
	DB	017H
	DB	017H
	DB	017H
	DB	017H
	DB	017H
	DB	017H
	DB	010H
	DB	010H
	DB	010H
	DB	010H
	DB	010H
	DB	010H
	DB	010H
	DB	010H
	DB	010H
	DB	0fH
	DB	0fH
	DB	0fH
	DB	0fH
	DB	0fH
	DB	0fH
	DB	0fH
	DB	010H
	DB	010H
	DB	017H
	DB	017H
	DB	015H
	DB	0f2H
	DB	012H
	DB	012H
	DB	011H
	DB	0c4H
	DB	016H
	DB	0c2H
	DB	013H
	DB	065H
	DB	014H
	DB	071H
	DB	0eH
	DB	0c1H
	DB	0bfH
	DB	0bH
	DB	0bH
	DB	09H
	DB	047H
	DB	07H
	DB	062H
	DB	06H
	DB	06H
	DB	06H
	DB	06H
	DB	06H
	DB	06H
	DB	06H
	DB	06H
	DB	06H
	DB	06H
	DB	06H
	DB	06H
	DB	06H
	DB	06H
	DB	06H
	DB	06H
	DB	06H
	DB	06H
	DB	06H
	DB	06H
	DB	06H
	DB	06H
	DB	06H
	DB	06H
	DB	06H
	DB	06H
	DB	06H
	DB	06H
	DB	06H
	DB	06H
	DB	06H
	DB	054H
	DB	054H
	DB	06H
	DB	06H
	DB	062H
	DB	07H
	DB	09H
	DB	0bH
	DB	0dH
	DB	0eH
	DB	014H
	DB	013H
	DB	016H
	DB	011H
	DB	012H
	DB	015H
	DB	017H
	DB	010H
	DB	0fH
	DB	0fH
	DB	0fH
	DB	0fH
	DB	0fH
	DB	0fH
	DB	0fH
	DB	0fH
	DB	0fH
	DB	0fH
	DB	0fH
	DB	0fH
	DB	0fH
	DB	0fH
	DB	010H
	DB	010H
	DB	010H
	DB	010H
	DB	010H
	DB	010H
	DB	010H
	DB	010H
	DB	017H
	DB	017H
	DB	015H
	DB	09bH
	DB	012H
	DB	012H
	DB	011H
	DB	0c4H
	DB	016H
	DB	0c2H
	DB	013H
	DB	013H
	DB	065H
	DB	014H
	DB	082H
	DB	071H
	DB	0eH
	DB	0eH
	DB	0c1H
	DB	0dH
	DB	0dH
	DB	0bfH
	DB	0bfH
	DB	0bfH
	DB	0bH
	DB	0bH
	DB	09H
	DB	01aH
	DB	028H
	DB	01fH
	DB	01fH
	DB	01fH
	DB	033H
	DB	03fH
	DB	013H
	DB	0c3H
	DB	016H
	DB	016H
	DB	016H
	DB	0c3H
	DB	0c4H
	DB	0c4H
	DB	011H
	DB	011H
	DB	011H
	DB	011H
	DB	011H
	DB	012H
	DB	012H
	DB	012H
	DB	012H
	DB	012H
	DB	09bH
	DB	09bH
	DB	0f2H
	DB	0f2H
	DB	015H
	DB	015H
	DB	015H
	DB	015H
	DB	015H
	DB	017H
	DB	017H
	DB	017H
	DB	017H
	DB	017H
	DB	017H
	DB	017H
	DB	010H
	DB	010H
	DB	010H
	DB	010H
	DB	010H
	DB	010H
	DB	010H
	DB	010H
	DB	010H
	DB	010H
	DB	0fH
	DB	0fH
	DB	0fH
	DB	0fH
	DB	010H
	DB	010H
	DB	017H
	DB	017H
	DB	015H
	DB	0f2H
	DB	012H
	DB	012H
	DB	011H
	DB	0c4H
	DB	016H
	DB	0c2H
	DB	013H
	DB	065H
	DB	014H
	DB	071H
	DB	0eH
	DB	0c1H
	DB	0dH
	DB	0bfH
	DB	0bH
	DB	09H
	DB	09H
	DB	07H
	DB	07H
	DB	06H
	DB	06H
	DB	06H
	DB	06H
	DB	06H
	DB	06H
	DB	06H
	DB	06H
	DB	06H
	DB	06H
	DB	06H
	DB	06H
	DB	06H
	DB	06H
	DB	06H
	DB	06H
	DB	06H
	DB	06H
	DB	06H
	DB	06H
	DB	06H
	DB	06H
	DB	06H
	DB	06H
	DB	06H
	DB	06H
	DB	06H
	DB	06H
	DB	06H
	DB	06H
	DB	06H
	DB	054H
	DB	054H
	DB	054H
	DB	054H
	DB	054H
	DB	06H
	DB	06H
	DB	07H
	DB	047H
	DB	060H
	DB	0bfH
	DB	0c1H
	DB	071H
	DB	065H
	DB	0c2H
	DB	0c4H
	DB	012H
	DB	0f2H
	DB	017H
	DB	010H
	DB	010H
	DB	0fH
	DB	0fH
	DB	0fH
	DB	0fH
	DB	0fH
	DB	0fH
	DB	0fH
	DB	0fH
	DB	0fH
	DB	0fH
	DB	010H
	DB	010H
	DB	010H
	DB	010H
	DB	010H
	DB	010H
	DB	010H
	DB	010H
	DB	010H
	DB	017H
	DB	017H
	DB	015H
	DB	0f2H
	DB	012H
	DB	012H
	DB	011H
	DB	0c4H
	DB	016H
	DB	016H
	DB	0c2H
	DB	013H
	DB	065H
	DB	014H
	DB	014H
	DB	071H
	DB	0eH
	DB	0c1H
	DB	0c1H
	DB	0dH
	DB	0dH
	DB	0bfH
	DB	0bfH
	DB	0bH
	DB	0bH
	DB	0bH
	DB	0bH
	DB	09H
	DB	01aH
	DB	028H
	DB	01fH
	DB	01fH
	DB	01fH
	DB	033H
	DB	03fH
	DB	065H
	DB	0c3H
	DB	016H
	DB	016H
	DB	016H
	DB	0c3H
	DB	0c3H
	DB	0c4H
	DB	0c4H
	DB	011H
	DB	011H
	DB	011H
	DB	011H
	DB	011H
	DB	012H
	DB	012H
	DB	012H
	DB	012H
	DB	012H
	DB	09bH
	DB	09bH
	DB	0f2H
	DB	0f2H
	DB	015H
	DB	015H
	DB	015H
	DB	015H
	DB	015H
	DB	017H
	DB	017H
	DB	017H
	DB	017H
	DB	017H
	DB	017H
	DB	017H
	DB	010H
	DB	010H
	DB	010H
	DB	010H
	DB	010H
	DB	010H
	DB	010H
	DB	010H
	DB	010H
	DB	010H
	DB	010H
	DB	010H
	DB	010H
	DB	010H
	DB	010H
	DB	017H
	DB	015H
	DB	015H
	DB	012H
	DB	012H
	DB	011H
	DB	0c4H
	DB	016H
	DB	0c2H
	DB	013H
	DB	065H
	DB	014H
	DB	071H
	DB	0eH
	DB	0c1H
	DB	0dH
	DB	0bfH
	DB	0bH
	DB	09H
	DB	09H
	DB	047H
	DB	07H
	DB	06H
	DB	06H
	DB	06H
	DB	06H
	DB	054H
	DB	054H
	DB	06H
	DB	06H
	DB	06H
	DB	06H
	DB	06H
	DB	06H
	DB	06H
	DB	06H
	DB	06H
	DB	06H
	DB	06H
	DB	06H
	DB	06H
	DB	06H
	DB	06H
	DB	06H
	DB	06H
	DB	06H
	DB	06H
	DB	06H
	DB	06H
	DB	06H
	DB	06H
	DB	06H
	DB	06H
	DB	054H
	DB	054H
	DB	054H
	DB	054H
	DB	054H
	DB	054H
	DB	054H
	DB	06H
	DB	06H
	DB	062H
	DB	07H
	DB	09H
	DB	0bH
	DB	0dH
	DB	0eH
	DB	014H
	DB	013H
	DB	016H
	DB	011H
	DB	012H
	DB	015H
	DB	017H
	DB	010H
	DB	010H
	DB	0fH
	DB	0fH
	DB	0fH
	DB	0fH
	DB	0fH
	DB	010H
	DB	010H
	DB	010H
	DB	010H
	DB	010H
	DB	010H
	DB	010H
	DB	010H
	DB	010H
	DB	010H
	DB	010H
	DB	017H
	DB	017H
	DB	015H
	DB	0f2H
	DB	09bH
	DB	012H
	DB	011H
	DB	0c4H
	DB	0c3H
	DB	016H
	DB	0c2H
	DB	013H
	DB	065H
	DB	014H
	DB	082H
	DB	071H
	DB	0eH
	DB	0c1H
	DB	0c1H
	DB	0dH
	DB	0dH
	DB	0bfH
	DB	0bfH
	DB	0bH
	DB	0bH
	DB	0bH
	DB	0bH
	DB	0bH
	DB	09H
	DB	01aH
	DB	028H
	DB	01fH
	DB	01fH
	DB	01fH
	DB	033H
	DB	03fH
	DB	065H
	DB	0c3H
	DB	016H
	DB	016H
	DB	016H
	DB	0c3H
	DB	0c3H
	DB	0c4H
	DB	0c4H
	DB	011H
	DB	011H
	DB	011H
	DB	011H
	DB	011H
	DB	011H
	DB	012H
	DB	012H
	DB	012H
	DB	012H
	DB	012H
	DB	09bH
	DB	0f2H
	DB	0f2H
	DB	015H
	DB	015H
	DB	015H
	DB	015H
	DB	015H
	DB	015H
	DB	017H
	DB	017H
	DB	017H
	DB	017H
	DB	017H
	DB	017H
	DB	017H
	DB	017H
	DB	010H
	DB	010H
	DB	010H
	DB	010H
	DB	010H
	DB	010H
	DB	010H
	DB	010H
	DB	010H
	DB	010H
	DB	010H
	DB	017H
	DB	017H
	DB	015H
	DB	015H
	DB	09bH
	DB	012H
	DB	011H
	DB	011H
	DB	016H
	DB	0c2H
	DB	013H
	DB	065H
	DB	014H
	DB	071H
	DB	0eH
	DB	0c1H
	DB	0dH
	DB	0bfH
	DB	0bH
	DB	060H
	DB	09H
	DB	047H
	DB	07H
	DB	062H
	DB	06H
	DB	06H
	DB	054H
	DB	054H
	DB	054H
	DB	054H
	DB	054H
	DB	054H
	DB	054H
	DB	054H
	DB	054H
	DB	054H
	DB	054H
	DB	054H
	DB	054H
	DB	054H
	DB	054H
	DB	054H
	DB	054H
	DB	054H
	DB	054H
	DB	054H
	DB	054H
	DB	054H
	DB	054H
	DB	054H
	DB	054H
	DB	054H
	DB	054H
	DB	054H
	DB	054H
	DB	054H
	DB	054H
	DB	054H
	DB	054H
	DB	054H
	DB	054H
	DB	03H
	DB	03H
	DB	054H
	DB	06H
	DB	06H
	DB	07H
	DB	047H
	DB	060H
	DB	0bfH
	DB	0c1H
	DB	071H
	DB	065H
	DB	0c2H
	DB	0c4H
	DB	012H
	DB	0f2H
	DB	017H
	DB	017H
	DB	010H
	DB	010H
	DB	0fH
	DB	0fH
	DB	010H
	DB	010H
	DB	010H
	DB	010H
	DB	010H
	DB	010H
	DB	010H
	DB	010H
	DB	010H
	DB	010H
	DB	010H
	DB	017H
	DB	017H
	DB	015H
	DB	015H
	DB	012H
	DB	012H
	DB	011H
	DB	011H
	DB	0c3H
	DB	016H
	DB	0c2H
	DB	013H
	DB	065H
	DB	014H
	DB	014H
	DB	071H
	DB	0eH
	DB	0eH
	DB	0c1H
	DB	0dH
	DB	0dH
	DB	0bfH
	DB	0bfH
	DB	0bfH
	DB	0bH
	DB	0bH
	DB	0bH
	DB	060H
	DB	0bH
	DB	09H
	DB	01aH
	DB	028H
	DB	01fH
	DB	01fH
	DB	01fH
	DB	033H
	DB	03fH
	DB	065H
	DB	016H
	DB	0c2H
	DB	016H
	DB	016H
	DB	016H
	DB	0c3H
	DB	0c3H
	DB	0c4H
	DB	0c4H
	DB	011H
	DB	011H
	DB	011H
	DB	011H
	DB	011H
	DB	012H
	DB	012H
	DB	012H
	DB	012H
	DB	012H
	DB	09bH
	DB	09bH
	DB	0f2H
	DB	0f2H
	DB	015H
	DB	015H
	DB	015H
	DB	015H
	DB	015H
	DB	015H
	DB	017H
	DB	017H
	DB	017H
	DB	017H
	DB	017H
	DB	017H
	DB	017H
	DB	017H
	DB	010H
	DB	010H
	DB	010H
	DB	010H
	DB	010H
	DB	010H
	DB	010H
	DB	010H
	DB	010H
	DB	017H
	DB	017H
	DB	015H
	DB	015H
	DB	09bH
	DB	012H
	DB	011H
	DB	0c4H
	DB	016H
	DB	0c2H
	DB	013H
	DB	013H
	DB	014H
	DB	071H
	DB	0eH
	DB	0c1H
	DB	0dH
	DB	0bfH
	DB	0bH
	DB	060H
	DB	09H
	DB	047H
	DB	07H
	DB	062H
	DB	06H
	DB	06H
	DB	054H
	DB	054H
	DB	054H
	DB	054H
	DB	054H
	DB	054H
	DB	054H
	DB	054H
	DB	054H
	DB	054H
	DB	054H
	DB	054H
	DB	054H
	DB	054H
	DB	054H
	DB	054H
	DB	054H
	DB	054H
	DB	054H
	DB	054H
	DB	054H
	DB	054H
	DB	054H
	DB	054H
	DB	054H
	DB	054H
	DB	054H
	DB	054H
	DB	054H
	DB	054H
	DB	054H
	DB	054H
	DB	054H
	DB	054H
	DB	054H
	DB	03H
	DB	03H
	DB	03H
	DB	03H
	DB	03H
	DB	054H
	DB	06H
	DB	062H
	DB	07H
	DB	09H
	DB	0bH
	DB	0dH
	DB	0eH
	DB	014H
	DB	013H
	DB	016H
	DB	011H
	DB	012H
	DB	015H
	DB	017H
	DB	010H
	DB	010H
	DB	010H
	DB	010H
	DB	010H
	DB	010H
	DB	010H
	DB	010H
	DB	010H
	DB	010H
	DB	010H
	DB	010H
	DB	010H
	DB	017H
	DB	017H
	DB	015H
	DB	015H
	DB	09bH
	DB	012H
	DB	011H
	DB	011H
	DB	0c3H
	DB	016H
	DB	0c2H
	DB	013H
	DB	013H
	DB	065H
	DB	014H
	DB	082H
	DB	0eH
	DB	0eH
	DB	0c1H
	DB	0dH
	DB	0dH
	DB	0bfH
	DB	0bfH
	DB	0bH
	DB	0bH
	DB	0bH
	DB	060H
	DB	060H
	DB	060H
	DB	0bH
	DB	09H
	DB	01aH
	DB	028H
	DB	01fH
	DB	01fH
	DB	01fH
	DB	033H
	DB	03fH
	DB	065H
	DB	016H
	DB	0c2H
	DB	016H
	DB	016H
	DB	016H
	DB	0c3H
	DB	0c3H
	DB	0c4H
	DB	0c4H
	DB	011H
	DB	011H
	DB	011H
	DB	011H
	DB	011H
	DB	011H
	DB	012H
	DB	012H
	DB	012H
	DB	012H
	DB	012H
	DB	09bH
	DB	09bH
	DB	0f2H
	DB	0f2H
	DB	015H
	DB	015H
	DB	015H
	DB	015H
	DB	015H
	DB	015H
	DB	017H
	DB	017H
	DB	017H
	DB	017H
	DB	017H
	DB	017H
	DB	017H
	DB	017H
	DB	010H
	DB	010H
	DB	010H
	DB	010H
	DB	0fH
	DB	010H
	DB	010H
	DB	010H
	DB	017H
	DB	015H
	DB	015H
	DB	09bH
	DB	012H
	DB	011H
	DB	0c4H
	DB	016H
	DB	0c2H
	DB	013H
	DB	013H
	DB	014H
	DB	071H
	DB	0eH
	DB	0c1H
	DB	0dH
	DB	0bfH
	DB	0bH
	DB	060H
	DB	09H
	DB	047H
	DB	07H
	DB	062H
	DB	06H
	DB	06H
	DB	06H
	DB	054H
	DB	03H
	DB	03H
	DB	054H
	DB	054H
	DB	054H
	DB	054H
	DB	054H
	DB	054H
	DB	054H
	DB	054H
	DB	054H
	DB	054H
	DB	054H
	DB	054H
	DB	054H
	DB	054H
	DB	054H
	DB	054H
	DB	054H
	DB	054H
	DB	054H
	DB	054H
	DB	054H
	DB	054H
	DB	054H
	DB	054H
	DB	054H
	DB	054H
	DB	054H
	DB	054H
	DB	054H
	DB	054H
	DB	054H
	DB	03H
	DB	03H
	DB	03H
	DB	03H
	DB	03H
	DB	03H
	DB	03H
	DB	03H
	DB	06H
	DB	06H
	DB	07H
	DB	047H
	DB	060H
	DB	0bfH
	DB	0c1H
	DB	071H
	DB	065H
	DB	0c2H
	DB	0c4H
	DB	012H
	DB	0f2H
	DB	017H
	DB	017H
	DB	010H
	DB	010H
	DB	010H
	DB	010H
	DB	010H
	DB	010H
	DB	010H
	DB	010H
	DB	010H
	DB	017H
	DB	017H
	DB	017H
	DB	015H
	DB	015H
	DB	0f2H
	DB	012H
	DB	011H
	DB	011H
	DB	0c3H
	DB	016H
	DB	0c2H
	DB	013H
	DB	013H
	DB	065H
	DB	014H
	DB	071H
	DB	0eH
	DB	0eH
	DB	0c1H
	DB	0dH
	DB	0dH
	DB	0bfH
	DB	0bfH
	DB	0bH
	DB	0bH
	DB	0bH
	DB	060H
	DB	060H
	DB	060H
	DB	060H
	DB	0bH
	DB	09H
	DB	01aH
	DB	028H
	DB	01fH
	DB	01fH
	DB	01fH
	DB	033H
	DB	03fH
	DB	065H
	DB	016H
	DB	0c2H
	DB	016H
	DB	016H
	DB	016H
	DB	0c3H
	DB	0c3H
	DB	0c3H
	DB	0c4H
	DB	0c4H
	DB	011H
	DB	011H
	DB	011H
	DB	011H
	DB	011H
	DB	012H
	DB	012H
	DB	012H
	DB	012H
	DB	012H
	DB	012H
	DB	09bH
	DB	09bH
	DB	0f2H
	DB	0f2H
	DB	015H
	DB	015H
	DB	015H
	DB	015H
	DB	015H
	DB	015H
	DB	017H
	DB	017H
	DB	017H
	DB	017H
	DB	017H
	DB	010H
	DB	010H
	DB	010H
	DB	010H
	DB	015H
	DB	011H
	DB	077H
	DB	077H
	DB	077H
	DB	083H
	DB	011H
	DB	015H
	DB	0f2H
	DB	09bH
	DB	012H
	DB	011H
	DB	0c3H
	DB	016H
	DB	0c2H
	DB	013H
	DB	014H
	DB	082H
	DB	0eH
	DB	0c1H
	DB	0dH
	DB	0bfH
	DB	0bfH
	DB	0bH
	DB	09H
	DB	09H
	DB	07H
	DB	07H
	DB	06H
	DB	06H
	DB	06H
	DB	03H
	DB	03H
	DB	03H
	DB	03H
	DB	03H
	DB	03H
	DB	03H
	DB	03H
	DB	03H
	DB	03H
	DB	03H
	DB	03H
	DB	03H
	DB	03H
	DB	03H
	DB	03H
	DB	03H
	DB	03H
	DB	03H
	DB	03H
	DB	03H
	DB	03H
	DB	03H
	DB	03H
	DB	03H
	DB	03H
	DB	03H
	DB	03H
	DB	03H
	DB	03H
	DB	03H
	DB	03H
	DB	03H
	DB	03H
	DB	03H
	DB	03H
	DB	03H
	DB	03H
	DB	03H
	DB	03H
	DB	03H
	DB	03H
	DB	03H
	DB	03H
	DB	054H
	DB	06H
	DB	062H
	DB	07H
	DB	09H
	DB	0bH
	DB	0dH
	DB	0eH
	DB	014H
	DB	013H
	DB	016H
	DB	011H
	DB	012H
	DB	015H
	DB	017H
	DB	017H
	DB	010H
	DB	010H
	DB	010H
	DB	010H
	DB	010H
	DB	010H
	DB	010H
	DB	017H
	DB	017H
	DB	017H
	DB	015H
	DB	0f2H
	DB	012H
	DB	012H
	DB	011H
	DB	0c4H
	DB	016H
	DB	0c2H
	DB	0c2H
	DB	013H
	DB	065H
	DB	014H
	DB	082H
	DB	071H
	DB	0eH
	DB	0c1H
	DB	0c1H
	DB	0dH
	DB	0bfH
	DB	0bfH
	DB	0bfH
	DB	0bH
	DB	0bH
	DB	0bH
	DB	060H
	DB	060H
	DB	060H
	DB	060H
	DB	0bH
	DB	09H
	DB	01aH
	DB	028H
	DB	01fH
	DB	01fH
	DB	01fH
	DB	033H
	DB	03fH
	DB	065H
	DB	016H
	DB	0c2H
	DB	0c2H
	DB	016H
	DB	016H
	DB	016H
	DB	016H
	DB	0c3H
	DB	0c4H
	DB	0c4H
	DB	011H
	DB	011H
	DB	011H
	DB	011H
	DB	011H
	DB	011H
	DB	012H
	DB	012H
	DB	012H
	DB	012H
	DB	012H
	DB	012H
	DB	09bH
	DB	09bH
	DB	0f2H
	DB	0f2H
	DB	015H
	DB	015H
	DB	015H
	DB	015H
	DB	015H
	DB	015H
	DB	017H
	DB	017H
	DB	017H
	DB	010H
	DB	015H
	DB	072H
	DB	080H
	DB	092H
	DB	01H
	DB	075H
	DB	03eH
	DB	03eH
	DB	03eH
	DB	075H
	DB	01H
	DB	038H
	DB	076H
	DB	05bH
	DB	082H
	DB	016H
	DB	016H
	DB	013H
	DB	013H
	DB	014H
	DB	082H
	DB	071H
	DB	0c1H
	DB	0dH
	DB	0dH
	DB	0bfH
	DB	09H
	DB	09H
	DB	09H
	DB	07H
	DB	07H
	DB	062H
	DB	06H
	DB	06H
	DB	03H
	DB	03H
	DB	03H
	DB	03H
	DB	03H
	DB	03H
	DB	03H
	DB	03H
	DB	03H
	DB	03H
	DB	03H
	DB	03H
	DB	03H
	DB	03H
	DB	03H
	DB	03H
	DB	03H
	DB	03H
	DB	03H
	DB	03H
	DB	03H
	DB	03H
	DB	03H
	DB	03H
	DB	03H
	DB	03H
	DB	03H
	DB	03H
	DB	03H
	DB	03H
	DB	03H
	DB	03H
	DB	03H
	DB	03H
	DB	03H
	DB	03H
	DB	03H
	DB	03H
	DB	03H
	DB	03H
	DB	03H
	DB	03H
	DB	03H
	DB	03H
	DB	03H
	DB	03H
	DB	03H
	DB	06H
	DB	06H
	DB	07H
	DB	047H
	DB	060H
	DB	0bfH
	DB	0c1H
	DB	071H
	DB	065H
	DB	0c2H
	DB	0c4H
	DB	012H
	DB	09bH
	DB	015H
	DB	017H
	DB	017H
	DB	017H
	DB	010H
	DB	017H
	DB	017H
	DB	017H
	DB	017H
	DB	017H
	DB	015H
	DB	0f2H
	DB	012H
	DB	012H
	DB	011H
	DB	0c4H
	DB	0c3H
	DB	0c2H
	DB	0c2H
	DB	013H
	DB	065H
	DB	014H
	DB	082H
	DB	071H
	DB	0eH
	DB	0c1H
	DB	0c1H
	DB	0dH
	DB	0dH
	DB	0bfH
	DB	0bH
	DB	0bH
	DB	0bH
	DB	060H
	DB	060H
	DB	060H
	DB	060H
	DB	060H
	DB	060H
	DB	0bH
	DB	09H
	DB	01aH
	DB	028H
	DB	01fH
	DB	01fH
	DB	01fH
	DB	033H
	DB	03fH
	DB	065H
	DB	016H
	DB	0c2H
	DB	0c2H
	DB	016H
	DB	016H
	DB	016H
	DB	016H
	DB	0c3H
	DB	0c3H
	DB	0c4H
	DB	0c4H
	DB	011H
	DB	011H
	DB	011H
	DB	011H
	DB	011H
	DB	011H
	DB	012H
	DB	012H
	DB	012H
	DB	012H
	DB	012H
	DB	012H
	DB	09bH
	DB	09bH
	DB	0f2H
	DB	0f2H
	DB	015H
	DB	015H
	DB	015H
	DB	015H
	DB	015H
	DB	015H
	DB	017H
	DB	015H
	DB	07bH
	DB	055H
	DB	02aH
	DB	030H
	DB	04cH
	DB	03dH
	DB	049H
	DB	032H
	DB	032H
	DB	032H
	DB	049H
	DB	03dH
	DB	058H
	DB	050H
	DB	046H
	DB	02aH
	DB	054H
	DB	0c2H
	DB	013H
	DB	065H
	DB	082H
	DB	0eH
	DB	0eH
	DB	0dH
	DB	0dH
	DB	060H
	DB	02cH
	DB	01aH
	DB	08H
	DB	07H
	DB	07H
	DB	062H
	DB	06H
	DB	06H
	DB	03H
	DB	03H
	DB	03H
	DB	03H
	DB	03H
	DB	03H
	DB	03H
	DB	03H
	DB	03H
	DB	03H
	DB	03H
	DB	03H
	DB	03H
	DB	03H
	DB	03H
	DB	03H
	DB	03H
	DB	03H
	DB	03H
	DB	03H
	DB	03H
	DB	03H
	DB	03H
	DB	03H
	DB	03H
	DB	03H
	DB	03H
	DB	03H
	DB	03H
	DB	03H
	DB	03H
	DB	03H
	DB	03H
	DB	03H
	DB	03H
	DB	03H
	DB	03H
	DB	03H
	DB	03H
	DB	03H
	DB	03H
	DB	03H
	DB	03H
	DB	03H
	DB	03H
	DB	03H
	DB	03H
	DB	03H
	DB	03H
	DB	054H
	DB	06H
	DB	062H
	DB	07H
	DB	09H
	DB	0bH
	DB	0dH
	DB	0eH
	DB	014H
	DB	013H
	DB	016H
	DB	011H
	DB	012H
	DB	0f2H
	DB	015H
	DB	017H
	DB	017H
	DB	017H
	DB	017H
	DB	017H
	DB	017H
	DB	015H
	DB	0f2H
	DB	012H
	DB	012H
	DB	011H
	DB	0c4H
	DB	016H
	DB	016H
	DB	0c2H
	DB	013H
	DB	065H
	DB	014H
	DB	082H
	DB	071H
	DB	0eH
	DB	0c1H
	DB	0c1H
	DB	0dH
	DB	0bfH
	DB	0bfH
	DB	0bH
	DB	0bH
	DB	0bH
	DB	060H
	DB	09H
	DB	09H
	DB	09H
	DB	060H
	DB	060H
	DB	060H
	DB	0bH
	DB	09H
	DB	01aH
	DB	028H
	DB	01fH
	DB	01fH
	DB	01fH
	DB	033H
	DB	03fH
	DB	065H
	DB	016H
	DB	0c2H
	DB	0c2H
	DB	0c2H
	DB	016H
	DB	016H
	DB	016H
	DB	0c3H
	DB	0c3H
	DB	0c4H
	DB	0c4H
	DB	0c4H
	DB	011H
	DB	011H
	DB	011H
	DB	011H
	DB	011H
	DB	011H
	DB	012H
	DB	012H
	DB	012H
	DB	012H
	DB	012H
	DB	012H
	DB	09bH
	DB	09bH
	DB	0f2H
	DB	0f2H
	DB	015H
	DB	015H
	DB	015H
	DB	015H
	DB	017H
	DB	012H
	DB	076H
	DB	02aH
	DB	041H
	DB	023H
	DB	04H
	DB	04H
	DB	04H
	DB	04H
	DB	04H
	DB	04H
	DB	04H
	DB	04H
	DB	04H
	DB	04H
	DB	04H
	DB	04H
	DB	036H
	DB	075H
	DB	0eH
	DB	013H
	DB	014H
	DB	071H
	DB	0eH
	DB	0c1H
	DB	0dH
	DB	054H
	DB	019H
	DB	044H
	DB	051H
	DB	03eH
	DB	076H
	DB	07H
	DB	06H
	DB	06H
	DB	03H
	DB	03H
	DB	03H
	DB	03H
	DB	03H
	DB	03H
	DB	03H
	DB	03H
	DB	03H
	DB	03H
	DB	03H
	DB	03H
	DB	03H
	DB	03H
	DB	03H
	DB	03H
	DB	03H
	DB	03H
	DB	03H
	DB	03H
	DB	03H
	DB	03H
	DB	03H
	DB	03H
	DB	03H
	DB	03H
	DB	03H
	DB	03H
	DB	03H
	DB	03H
	DB	03H
	DB	03H
	DB	03H
	DB	03H
	DB	03H
	DB	03H
	DB	03H
	DB	03H
	DB	03H
	DB	03H
	DB	03H
	DB	03H
	DB	03H
	DB	03H
	DB	03H
	DB	03H
	DB	03H
	DB	03H
	DB	03H
	DB	03H
	DB	03H
	DB	03H
	DB	06H
	DB	06H
	DB	07H
	DB	047H
	DB	060H
	DB	0bfH
	DB	0c1H
	DB	071H
	DB	065H
	DB	0c2H
	DB	0c3H
	DB	011H
	DB	012H
	DB	015H
	DB	015H
	DB	017H
	DB	017H
	DB	017H
	DB	015H
	DB	015H
	DB	012H
	DB	012H
	DB	011H
	DB	011H
	DB	016H
	DB	016H
	DB	0c2H
	DB	013H
	DB	065H
	DB	014H
	DB	082H
	DB	071H
	DB	0eH
	DB	0c1H
	DB	0c1H
	DB	0dH
	DB	0bfH
	DB	0bfH
	DB	0bH
	DB	0bH
	DB	0bH
	DB	060H
	DB	060H
	DB	09H
	DB	09H
	DB	09H
	DB	060H
	DB	060H
	DB	060H
	DB	0bH
	DB	09H
	DB	01aH
	DB	028H
	DB	01fH
	DB	01fH
	DB	01fH
	DB	033H
	DB	03fH
	DB	065H
	DB	016H
	DB	0c2H
	DB	0c2H
	DB	0c2H
	DB	016H
	DB	016H
	DB	016H
	DB	016H
	DB	0c3H
	DB	0c3H
	DB	0c4H
	DB	0c4H
	DB	011H
	DB	011H
	DB	011H
	DB	011H
	DB	011H
	DB	011H
	DB	011H
	DB	012H
	DB	012H
	DB	012H
	DB	012H
	DB	012H
	DB	012H
	DB	09bH
	DB	09bH
	DB	0f2H
	DB	0f2H
	DB	0f2H
	DB	015H
	DB	017H
	DB	012H
	DB	06aH
	DB	02dH
	DB	03bH
	DB	04H
	DB	04H
	DB	04H
	DB	04H
	DB	04H
	DB	04H
	DB	04H
	DB	04H
	DB	04H
	DB	04H
	DB	04H
	DB	04H
	DB	04H
	DB	04H
	DB	03aH
	DB	01H
	DB	0eH
	DB	014H
	DB	071H
	DB	0eH
	DB	0eH
	DB	09H
	DB	026H
	DB	027H
	DB	04dH
	DB	04H
	DB	023H
	DB	029H
	DB	043H
	DB	06H
	DB	06H
	DB	03H
	DB	03H
	DB	03H
	DB	03H
	DB	03H
	DB	03H
	DB	03H
	DB	03H
	DB	03H
	DB	03H
	DB	03H
	DB	03H
	DB	03H
	DB	03H
	DB	03H
	DB	03H
	DB	03H
	DB	03H
	DB	03H
	DB	03H
	DB	03H
	DB	03H
	DB	03H
	DB	03H
	DB	03H
	DB	03H
	DB	03H
	DB	03H
	DB	03H
	DB	03H
	DB	03H
	DB	03H
	DB	03H
	DB	03H
	DB	03H
	DB	03H
	DB	03H
	DB	03H
	DB	03H
	DB	03H
	DB	03H
	DB	03H
	DB	03H
	DB	03H
	DB	03H
	DB	03H
	DB	03H
	DB	03H
	DB	03H
	DB	03H
	DB	03H
	DB	03H
	DB	03H
	DB	03H
	DB	03H
	DB	06H
	DB	062H
	DB	07H
	DB	09H
	DB	0bH
	DB	0dH
	DB	0eH
	DB	014H
	DB	013H
	DB	0c2H
	DB	0c4H
	DB	011H
	DB	012H
	DB	015H
	DB	015H
	DB	015H
	DB	015H
	DB	09bH
	DB	012H
	DB	011H
	DB	0c4H
	DB	0c3H
	DB	016H
	DB	0c2H
	DB	013H
	DB	065H
	DB	014H
	DB	014H
	DB	071H
	DB	0eH
	DB	0eH
	DB	0c1H
	DB	0dH
	DB	0dH
	DB	0bfH
	DB	0bH
	DB	0bH
	DB	0bH
	DB	060H
	DB	09H
	DB	09H
	DB	09H
	DB	09H
	DB	09H
	DB	09H
	DB	060H
	DB	060H
	DB	0bH
	DB	09H
	DB	01aH
	DB	028H
	DB	01fH
	DB	01fH
	DB	01fH
	DB	033H
	DB	03fH
	DB	065H
	DB	016H
	DB	0c2H
	DB	0c2H
	DB	0c2H
	DB	0c2H
	DB	016H
	DB	016H
	DB	016H
	DB	016H
	DB	0c3H
	DB	0c3H
	DB	0c3H
	DB	0c4H
	DB	011H
	DB	011H
	DB	011H
	DB	011H
	DB	011H
	DB	011H
	DB	012H
	DB	012H
	DB	012H
	DB	012H
	DB	012H
	DB	012H
	DB	012H
	DB	09bH
	DB	09bH
	DB	0f2H
	DB	0f2H
	DB	015H
	DB	0f2H
	DB	076H
	DB	02dH
	DB	02eH
	DB	04H
	DB	04H
	DB	04H
	DB	04H
	DB	04H
	DB	04H
	DB	04H
	DB	04H
	DB	04H
	DB	04H
	DB	04H
	DB	04H
	DB	04H
	DB	04H
	DB	04H
	DB	04cH
	DB	038H
	DB	0eH
	DB	0eH
	DB	0eH
	DB	0c1H
	DB	076H
	DB	02H
	DB	037H
	DB	03bH
	DB	04H
	DB	04H
	DB	023H
	DB	029H
	DB	02cH
	DB	06H
	DB	03H
	DB	03H
	DB	03H
	DB	03H
	DB	03H
	DB	03H
	DB	03H
	DB	03H
	DB	03H
	DB	03H
	DB	03H
	DB	03H
	DB	03H
	DB	03H
	DB	03H
	DB	03H
	DB	03H
	DB	03H
	DB	03H
	DB	03H
	DB	03H
	DB	03H
	DB	03H
	DB	03H
	DB	03H
	DB	03H
	DB	03H
	DB	03H
	DB	03H
	DB	03H
	DB	03H
	DB	03H
	DB	03H
	DB	03H
	DB	03H
	DB	03H
	DB	03H
	DB	03H
	DB	03H
	DB	03H
	DB	03H
	DB	03H
	DB	03H
	DB	03H
	DB	03H
	DB	03H
	DB	03H
	DB	03H
	DB	03H
	DB	03H
	DB	03H
	DB	03H
	DB	03H
	DB	03H
	DB	03H
	DB	03H
	DB	03H
	DB	06H
	DB	06H
	DB	07H
	DB	09H
	DB	0bH
	DB	0bfH
	DB	0c1H
	DB	071H
	DB	065H
	DB	0c2H
	DB	016H
	DB	011H
	DB	012H
	DB	0f2H
	DB	015H
	DB	0f2H
	DB	012H
	DB	011H
	DB	011H
	DB	016H
	DB	016H
	DB	0c2H
	DB	013H
	DB	065H
	DB	014H
	DB	014H
	DB	071H
	DB	0eH
	DB	0c1H
	DB	0c1H
	DB	0dH
	DB	0bfH
	DB	0bfH
	DB	0bH
	DB	0bH
	DB	0bH
	DB	060H
	DB	09H
	DB	09H
	DB	09H
	DB	09H
	DB	09H
	DB	09H
	DB	09H
	DB	060H
	DB	060H
	DB	060H
	DB	047H
	DB	01aH
	DB	028H
	DB	01fH
	DB	01fH
	DB	01fH
	DB	033H
	DB	03fH
	DB	065H
	DB	016H
	DB	0c2H
	DB	0c2H
	DB	0c2H
	DB	0c2H
	DB	016H
	DB	016H
	DB	016H
	DB	016H
	DB	016H
	DB	0c3H
	DB	0c3H
	DB	0c4H
	DB	0c4H
	DB	011H
	DB	011H
	DB	011H
	DB	011H
	DB	011H
	DB	011H
	DB	011H
	DB	012H
	DB	012H
	DB	012H
	DB	012H
	DB	012H
	DB	012H
	DB	012H
	DB	09bH
	DB	09bH
	DB	015H
	DB	07bH
	DB	02aH
	DB	03bH
	DB	04H
	DB	04H
	DB	04H
	DB	04H
	DB	04H
	DB	04H
	DB	023H
	DB	03dH
	DB	051H
	DB	048H
	DB	048H
	DB	036H
	DB	049H
	DB	02eH
	DB	04H
	DB	04H
	DB	04bH
	DB	055H
	DB	0dH
	DB	0c1H
	DB	0eH
	DB	05aH
	DB	029H
	DB	058H
	DB	04H
	DB	04H
	DB	04H
	DB	04H
	DB	023H
	DB	029H
	DB	02cH
	DB	03H
	DB	03H
	DB	03H
	DB	03H
	DB	03H
	DB	03H
	DB	03H
	DB	03H
	DB	03H
	DB	03H
	DB	03H
	DB	03H
	DB	03H
	DB	03H
	DB	03H
	DB	03H
	DB	03H
	DB	03H
	DB	03H
	DB	03H
	DB	03H
	DB	03H
	DB	03H
	DB	03H
	DB	03H
	DB	03H
	DB	03H
	DB	03H
	DB	03H
	DB	03H
	DB	03H
	DB	03H
	DB	03H
	DB	03H
	DB	03H
	DB	03H
	DB	03H
	DB	03H
	DB	03H
	DB	03H
	DB	03H
	DB	03H
	DB	03H
	DB	03H
	DB	03H
	DB	03H
	DB	03H
	DB	03H
	DB	03H
	DB	03H
	DB	03H
	DB	03H
	DB	03H
	DB	03H
	DB	03H
	DB	03H
	DB	03H
	DB	03H
	DB	03H
	DB	03H
	DB	06H
	DB	062H
	DB	07H
	DB	09H
	DB	0bH
	DB	0c1H
	DB	071H
	DB	065H
	DB	013H
	DB	016H
	DB	0c4H
	DB	011H
	DB	012H
	DB	09bH
	DB	012H
	DB	011H
	DB	0c3H
	DB	016H
	DB	0c2H
	DB	013H
	DB	013H
	DB	014H
	DB	082H
	DB	071H
	DB	0eH
	DB	0c1H
	DB	0c1H
	DB	0dH
	DB	0bfH
	DB	0bfH
	DB	0bH
	DB	0bH
	DB	0bH
	DB	060H
	DB	09H
	DB	09H
	DB	09H
	DB	09H
	DB	09H
	DB	09H
	DB	09H
	DB	09H
	DB	09H
	DB	060H
	DB	060H
	DB	047H
	DB	01aH
	DB	028H
	DB	01fH
	DB	01fH
	DB	01fH
	DB	033H
	DB	03fH
	DB	065H
	DB	016H
	DB	013H
	DB	0c2H
	DB	0c2H
	DB	0c2H
	DB	0c2H
	DB	016H
	DB	016H
	DB	016H
	DB	016H
	DB	0c3H
	DB	0c3H
	DB	0c3H
	DB	0c4H
	DB	0c4H
	DB	011H
	DB	011H
	DB	011H
	DB	011H
	DB	011H
	DB	011H
	DB	011H
	DB	012H
	DB	012H
	DB	012H
	DB	012H
	DB	012H
	DB	012H
	DB	012H
	DB	09bH
	DB	015H
	DB	07aH
	DB	04bH
	DB	04H
	DB	04H
	DB	04H
	DB	04H
	DB	04H
	DB	04H
	DB	04dH
	DB	02aH
	DB	027H
	DB	02H
	DB	02H
	DB	02H
	DB	027H
	DB	02aH
	DB	02aH
	DB	02dH
	DB	050H
	DB	044H
	DB	06aH
	DB	0bH
	DB	0dH
	DB	0eH
	DB	043H
	DB	03cH
	DB	04H
	DB	04H
	DB	04H
	DB	04H
	DB	04H
	DB	023H
	DB	029H
	DB	053H
	DB	03H
	DB	03H
	DB	03H
	DB	03H
	DB	03H
	DB	03H
	DB	03H
	DB	03H
	DB	03H
	DB	03H
	DB	03H
	DB	03H
	DB	03H
	DB	03H
	DB	03H
	DB	043H
	DB	043H
	DB	043H
	DB	043H
	DB	03H
	DB	03H
	DB	03H
	DB	03H
	DB	03H
	DB	03H
	DB	03H
	DB	03H
	DB	03H
	DB	03H
	DB	03H
	DB	03H
	DB	03H
	DB	03H
	DB	03H
	DB	03H
	DB	03H
	DB	03H
	DB	03H
	DB	03H
	DB	03H
	DB	03H
	DB	03H
	DB	03H
	DB	03H
	DB	03H
	DB	03H
	DB	03H
	DB	03H
	DB	03H
	DB	03H
	DB	03H
	DB	03H
	DB	03H
	DB	03H
	DB	03H
	DB	03H
	DB	03H
	DB	03H
	DB	03H
	DB	03H
	DB	03H
	DB	06H
	DB	062H
	DB	07H
	DB	07H
	DB	07H
	DB	063H
	DB	05bH
	DB	057H
	DB	082H
	DB	016H
	DB	011H
	DB	012H
	DB	012H
	DB	012H
	DB	011H
	DB	016H
	DB	0c2H
	DB	013H
	DB	065H
	DB	014H
	DB	014H
	DB	071H
	DB	0eH
	DB	0c1H
	DB	0c1H
	DB	0dH
	DB	0bfH
	DB	0bfH
	DB	0bH
	DB	0bH
	DB	060H
	DB	060H
	DB	09H
	DB	09H
	DB	09H
	DB	09H
	DB	09H
	DB	09H
	DB	09H
	DB	09H
	DB	09H
	DB	09H
	DB	060H
	DB	060H
	DB	047H
	DB	01aH
	DB	028H
	DB	01fH
	DB	01fH
	DB	01fH
	DB	033H
	DB	03fH
	DB	014H
	DB	0c2H
	DB	013H
	DB	0c2H
	DB	0c2H
	DB	0c2H
	DB	0c2H
	DB	0c2H
	DB	016H
	DB	016H
	DB	016H
	DB	016H
	DB	016H
	DB	0c3H
	DB	0c3H
	DB	0c4H
	DB	0c4H
	DB	011H
	DB	011H
	DB	011H
	DB	011H
	DB	011H
	DB	011H
	DB	011H
	DB	012H
	DB	012H
	DB	012H
	DB	012H
	DB	012H
	DB	012H
	DB	0f2H
	DB	011H
	DB	08dH
	DB	058H
	DB	04H
	DB	04H
	DB	04H
	DB	04H
	DB	04H
	DB	051H
	DB	02H
	DB	055H
	DB	043H
	DB	054H
	DB	054H
	DB	054H
	DB	03H
	DB	043H
	DB	02cH
	DB	026H
	DB	019H
	DB	026H
	DB	062H
	DB	060H
	DB	06H
	DB	06aH
	DB	038H
	DB	03cH
	DB	04H
	DB	04H
	DB	04H
	DB	04H
	DB	04H
	DB	023H
	DB	029H
	DB	019H
	DB	019H
	DB	038H
	DB	038H
	DB	05H
	DB	03H
	DB	03H
	DB	03H
	DB	03H
	DB	03H
	DB	03H
	DB	079H
	DB	02cH
	DB	038H
	DB	019H
	DB	019H
	DB	02H
	DB	027H
	DB	027H
	DB	027H
	DB	019H
	DB	019H
	DB	026H
	DB	079H
	DB	03H
	DB	03H
	DB	03H
	DB	03H
	DB	03H
	DB	03H
	DB	03H
	DB	03H
	DB	03H
	DB	03H
	DB	03H
	DB	03H
	DB	079H
	DB	053H
	DB	019H
	DB	019H
	DB	019H
	DB	019H
	DB	019H
	DB	053H
	DB	03H
	DB	079H
	DB	026H
	DB	038H
	DB	038H
	DB	038H
	DB	038H
	DB	038H
	DB	053H
	DB	03H
	DB	03H
	DB	03H
	DB	03H
	DB	03H
	DB	03H
	DB	03H
	DB	03H
	DB	03H
	DB	05H
	DB	038H
	DB	019H
	DB	01aH
	DB	02aH
	DB	02aH
	DB	02aH
	DB	075H
	DB	0a8H
	DB	06aH
	DB	05bH
	DB	016H
	DB	012H
	DB	012H
	DB	011H
	DB	016H
	DB	0c2H
	DB	013H
	DB	014H
	DB	082H
	DB	071H
	DB	0eH
	DB	0c1H
	DB	0c1H
	DB	0dH
	DB	0bfH
	DB	0bfH
	DB	0bH
	DB	0bH
	DB	060H
	DB	09H
	DB	09H
	DB	09H
	DB	09H
	DB	047H
	DB	047H
	DB	09H
	DB	09H
	DB	09H
	DB	09H
	DB	09H
	DB	09H
	DB	060H
	DB	060H
	DB	047H
	DB	01aH
	DB	028H
	DB	01fH
	DB	01fH
	DB	01fH
	DB	033H
	DB	03fH
	DB	014H
	DB	0c2H
	DB	013H
	DB	0c2H
	DB	0c2H
	DB	0c2H
	DB	0c2H
	DB	0c2H
	DB	0c2H
	DB	016H
	DB	016H
	DB	016H
	DB	016H
	DB	0c3H
	DB	0c3H
	DB	0c3H
	DB	0c4H
	DB	0c4H
	DB	011H
	DB	011H
	DB	011H
	DB	011H
	DB	011H
	DB	011H
	DB	011H
	DB	012H
	DB	012H
	DB	012H
	DB	012H
	DB	012H
	DB	0f2H
	DB	077H
	DB	075H
	DB	049H
	DB	04H
	DB	04H
	DB	04H
	DB	04H
	DB	04H
	DB	04bH
	DB	038H
	DB	07H
	DB	047H
	DB	09H
	DB	060H
	DB	060H
	DB	09H
	DB	047H
	DB	07H
	DB	062H
	DB	06H
	DB	062H
	DB	09H
	DB	054H
	DB	029H
	DB	037H
	DB	030H
	DB	04cH
	DB	04H
	DB	04H
	DB	04H
	DB	04H
	DB	04H
	DB	02eH
	DB	04aH
	DB	037H
	DB	037H
	DB	031H
	DB	03cH
	DB	01aH
	DB	03H
	DB	03H
	DB	03H
	DB	03H
	DB	02cH
	DB	019H
	DB	02H
	DB	029H
	DB	03cH
	DB	050H
	DB	048H
	DB	03aH
	DB	03dH
	DB	03dH
	DB	036H
	DB	048H
	DB	04aH
	DB	044H
	DB	02H
	DB	026H
	DB	03H
	DB	03H
	DB	03H
	DB	03H
	DB	03H
	DB	03H
	DB	03H
	DB	03H
	DB	03H
	DB	03H
	DB	038H
	DB	00H
	DB	044H
	DB	04bH
	DB	04cH
	DB	051H
	DB	048H
	DB	04aH
	DB	040H
	DB	019H
	DB	02H
	DB	046H
	DB	031H
	DB	037H
	DB	037H
	DB	037H
	DB	037H
	DB	03eH
	DB	053H
	DB	03H
	DB	03H
	DB	03H
	DB	03H
	DB	03H
	DB	03H
	DB	05H
	DB	019H
	DB	00H
	DB	03cH
	DB	04dH
	DB	036H
	DB	049H
	DB	032H
	DB	03bH
	DB	045H
	DB	058H
	DB	04aH
	DB	03eH
	DB	038H
	DB	099H
	DB	012H
	DB	012H
	DB	0c4H
	DB	0c2H
	DB	065H
	DB	014H
	DB	071H
	DB	0eH
	DB	0c1H
	DB	0c1H
	DB	0dH
	DB	0bfH
	DB	0bfH
	DB	0bH
	DB	0bH
	DB	060H
	DB	060H
	DB	09H
	DB	09H
	DB	047H
	DB	047H
	DB	047H
	DB	047H
	DB	09H
	DB	09H
	DB	09H
	DB	09H
	DB	09H
	DB	09H
	DB	060H
	DB	060H
	DB	047H
	DB	01aH
	DB	028H
	DB	01fH
	DB	01fH
	DB	01fH
	DB	033H
	DB	03fH
	DB	014H
	DB	0c2H
	DB	013H
	DB	013H
	DB	0c2H
	DB	0c2H
	DB	0c2H
	DB	0c2H
	DB	0c2H
	DB	016H
	DB	016H
	DB	016H
	DB	016H
	DB	016H
	DB	0c3H
	DB	0c3H
	DB	0c3H
	DB	0c4H
	DB	0c4H
	DB	011H
	DB	011H
	DB	011H
	DB	011H
	DB	011H
	DB	011H
	DB	011H
	DB	012H
	DB	012H
	DB	012H
	DB	012H
	DB	09bH
	DB	013H
	DB	02aH
	DB	03bH
	DB	04H
	DB	04H
	DB	04H
	DB	04H
	DB	04H
	DB	041H
	DB	019H
	DB	060H
	DB	0dH
	DB	0c1H
	DB	0eH
	DB	0c1H
	DB	0c1H
	DB	0dH
	DB	0bH
	DB	060H
	DB	09H
	DB	09H
	DB	0bH
	DB	06aH
	DB	03cH
	DB	04H
	DB	04H
	DB	04H
	DB	04H
	DB	04H
	DB	04H
	DB	04H
	DB	04H
	DB	04H
	DB	04H
	DB	04H
	DB	04H
	DB	04H
	DB	045H
	DB	027H
	DB	05H
	DB	03H
	DB	03H
	DB	05H
	DB	027H
	DB	031H
	DB	03dH
	DB	023H
	DB	04H
	DB	04H
	DB	04H
	DB	04H
	DB	04H
	DB	04H
	DB	04H
	DB	04H
	DB	04H
	DB	04H
	DB	03aH
	DB	03eH
	DB	019H
	DB	03H
	DB	03H
	DB	03H
	DB	03H
	DB	03H
	DB	03H
	DB	03H
	DB	05H
	DB	019H
	DB	044H
	DB	036H
	DB	02eH
	DB	04H
	DB	04H
	DB	04H
	DB	04H
	DB	04H
	DB	02eH
	DB	04dH
	DB	027H
	DB	051H
	DB	04H
	DB	04H
	DB	04H
	DB	04H
	DB	04H
	DB	037H
	DB	038H
	DB	03H
	DB	03H
	DB	03H
	DB	03H
	DB	03H
	DB	02cH
	DB	02H
	DB	02dH
	DB	045H
	DB	04H
	DB	04H
	DB	04H
	DB	04H
	DB	04H
	DB	04H
	DB	04H
	DB	04H
	DB	04H
	DB	02eH
	DB	04cH
	DB	027H
	DB	07aH
	DB	011H
	DB	011H
	DB	016H
	DB	013H
	DB	014H
	DB	0eH
	DB	0c1H
	DB	0c1H
	DB	0dH
	DB	0bfH
	DB	0bfH
	DB	0bH
	DB	0bH
	DB	060H
	DB	09H
	DB	09H
	DB	09H
	DB	047H
	DB	047H
	DB	047H
	DB	047H
	DB	047H
	DB	09H
	DB	09H
	DB	09H
	DB	09H
	DB	09H
	DB	09H
	DB	060H
	DB	060H
	DB	047H
	DB	01aH
	DB	028H
	DB	01fH
	DB	01fH
	DB	01fH
	DB	033H
	DB	03fH
	DB	014H
	DB	0c2H
	DB	013H
	DB	013H
	DB	013H
	DB	0c2H
	DB	0c2H
	DB	0c2H
	DB	0c2H
	DB	0c2H
	DB	016H
	DB	016H
	DB	016H
	DB	016H
	DB	016H
	DB	0c3H
	DB	0c3H
	DB	0c3H
	DB	0c4H
	DB	0c4H
	DB	011H
	DB	011H
	DB	011H
	DB	011H
	DB	011H
	DB	011H
	DB	011H
	DB	011H
	DB	011H
	DB	012H
	DB	012H
	DB	077H
	DB	075H
	DB	045H
	DB	04H
	DB	04H
	DB	04H
	DB	04H
	DB	04H
	DB	032H
	DB	040H
	DB	055H
	DB	0dH
	DB	072H
	DB	013H
	DB	014H
	DB	082H
	DB	0eH
	DB	0c1H
	DB	0dH
	DB	0bfH
	DB	0bH
	DB	0bfH
	DB	06aH
	DB	03cH
	DB	04H
	DB	04H
	DB	04H
	DB	04H
	DB	04H
	DB	04H
	DB	04H
	DB	04H
	DB	04H
	DB	04H
	DB	04H
	DB	04H
	DB	04H
	DB	045H
	DB	027H
	DB	05H
	DB	03H
	DB	03H
	DB	02cH
	DB	03eH
	DB	02eH
	DB	04H
	DB	04H
	DB	04H
	DB	04H
	DB	04H
	DB	04H
	DB	04H
	DB	04H
	DB	04H
	DB	04H
	DB	04H
	DB	04H
	DB	04H
	DB	032H
	DB	046H
	DB	038H
	DB	03H
	DB	03H
	DB	03H
	DB	03H
	DB	03H
	DB	05H
	DB	02H
	DB	031H
	DB	04H
	DB	04H
	DB	04H
	DB	04H
	DB	04H
	DB	04H
	DB	04H
	DB	04H
	DB	04H
	DB	04H
	DB	048H
	DB	051H
	DB	04H
	DB	04H
	DB	04H
	DB	04H
	DB	04H
	DB	037H
	DB	038H
	DB	03H
	DB	03H
	DB	03H
	DB	03H
	DB	05H
	DB	02H
	DB	050H
	DB	04H
	DB	04H
	DB	04H
	DB	04H
	DB	04H
	DB	04H
	DB	04H
	DB	04H
	DB	04H
	DB	04H
	DB	04H
	DB	04H
	DB	04H
	DB	045H
	DB	029H
	DB	05aH
	DB	012H
	DB	0c4H
	DB	0c2H
	DB	065H
	DB	071H
	DB	0c1H
	DB	0dH
	DB	0bfH
	DB	0bfH
	DB	0bH
	DB	060H
	DB	060H
	DB	09H
	DB	09H
	DB	09H
	DB	047H
	DB	047H
	DB	07H
	DB	047H
	DB	047H
	DB	047H
	DB	047H
	DB	09H
	DB	09H
	DB	09H
	DB	09H
	DB	09H
	DB	09H
	DB	060H
	DB	047H
	DB	01aH
	DB	028H
	DB	01fH
	DB	01fH
	DB	01fH
	DB	033H
	DB	03fH
	DB	014H
	DB	0c2H
	DB	013H
	DB	013H
	DB	013H
	DB	05cH
	DB	0c2H
	DB	0c2H
	DB	0c2H
	DB	0c2H
	DB	0c2H
	DB	016H
	DB	016H
	DB	016H
	DB	016H
	DB	016H
	DB	0c3H
	DB	0c3H
	DB	0c3H
	DB	0c4H
	DB	0c4H
	DB	0c4H
	DB	011H
	DB	011H
	DB	011H
	DB	011H
	DB	011H
	DB	011H
	DB	011H
	DB	011H
	DB	012H
	DB	011H
	DB	0aH
	DB	051H
	DB	04H
	DB	04H
	DB	04H
	DB	04H
	DB	04H
	DB	04H
	DB	03bH
	DB	046H
	DB	02H
	DB	06aH
	DB	05bH
	DB	082H
	DB	014H
	DB	014H
	DB	0eH
	DB	0c1H
	DB	0dH
	DB	0bfH
	DB	0bfH
	DB	06aH
	DB	030H
	DB	04H
	DB	04H
	DB	04H
	DB	04H
	DB	04H
	DB	04H
	DB	04H
	DB	04H
	DB	04H
	DB	04H
	DB	04H
	DB	04H
	DB	04H
	DB	049H
	DB	027H
	DB	02cH
	DB	03H
	DB	03H
	DB	05H
	DB	027H
	DB	032H
	DB	04H
	DB	04H
	DB	04H
	DB	04H
	DB	04H
	DB	04H
	DB	04H
	DB	04H
	DB	04H
	DB	04H
	DB	04H
	DB	04H
	DB	04H
	DB	04H
	DB	049H
	DB	02aH
	DB	02cH
	DB	03H
	DB	03H
	DB	03H
	DB	03H
	DB	019H
	DB	03cH
	DB	04H
	DB	04H
	DB	04H
	DB	04H
	DB	04H
	DB	04H
	DB	04H
	DB	03dH
	DB	03dH
	DB	02eH
	DB	04H
	DB	04H
	DB	023H
	DB	04H
	DB	04H
	DB	04H
	DB	04H
	DB	04H
	DB	037H
	DB	019H
	DB	079H
	DB	03H
	DB	03H
	DB	079H
	DB	02H
	DB	04aH
	DB	04H
	DB	04H
	DB	04H
	DB	04H
	DB	04H
	DB	04H
	DB	045H
	DB	048H
	DB	058H
	DB	023H
	DB	04H
	DB	04H
	DB	04H
	DB	04H
	DB	04H
	DB	045H
	DB	027H
	DB	057H
	DB	011H
	DB	016H
	DB	013H
	DB	082H
	DB	0eH
	DB	0dH
	DB	0bfH
	DB	0bH
	DB	0bH
	DB	060H
	DB	09H
	DB	09H
	DB	09H
	DB	047H
	DB	07H
	DB	07H
	DB	07H
	DB	047H
	DB	047H
	DB	047H
	DB	047H
	DB	09H
	DB	09H
	DB	09H
	DB	09H
	DB	09H
	DB	09H
	DB	060H
	DB	047H
	DB	01aH
	DB	028H
	DB	01fH
	DB	01fH
	DB	01fH
	DB	033H
	DB	03fH
	DB	071H
	DB	0c2H
	DB	013H
	DB	013H
	DB	013H
	DB	013H
	DB	0c2H
	DB	0c2H
	DB	0c2H
	DB	0c2H
	DB	0c2H
	DB	0c2H
	DB	0c2H
	DB	016H
	DB	016H
	DB	016H
	DB	016H
	DB	016H
	DB	0c3H
	DB	0c3H
	DB	0c4H
	DB	0c4H
	DB	0c4H
	DB	011H
	DB	011H
	DB	011H
	DB	011H
	DB	011H
	DB	011H
	DB	011H
	DB	011H
	DB	012H
	DB	076H
	DB	031H
	DB	04H
	DB	04H
	DB	04H
	DB	04H
	DB	04H
	DB	04H
	DB	04H
	DB	02eH
	DB	03dH
	DB	031H
	DB	029H
	DB	019H
	DB	043H
	DB	05bH
	DB	0c1H
	DB	0c1H
	DB	0bfH
	DB	0bH
	DB	0bH
	DB	06aH
	DB	044H
	DB	03aH
	DB	03aH
	DB	045H
	DB	04H
	DB	04H
	DB	04H
	DB	04H
	DB	04H
	DB	04H
	DB	036H
	DB	03aH
	DB	03aH
	DB	036H
	DB	04cH
	DB	02H
	DB	0aH
	DB	079H
	DB	03H
	DB	05H
	DB	027H
	DB	036H
	DB	032H
	DB	048H
	DB	031H
	DB	02dH
	DB	03eH
	DB	029H
	DB	03eH
	DB	03cH
	DB	051H
	DB	04H
	DB	04H
	DB	04H
