; Listing generated by Microsoft (R) Optimizing Compiler Version 16.00.40219.01 

	TITLE	C:\DUII\DUII\Graphics\BestLapEver.c
	.686P
	.XMM
	include listing.inc
	.model	flat

INCLUDELIB LIBCMT
INCLUDELIB OLDNAMES

PUBLIC	_bmBestLapEver
CONST	SEGMENT
_ColorsBestLapEver DD 00H
	DD	053dafbH
	DD	083e3fbH
	DD	063ddfbH
	DD	06adefbH
	DD	04dd9fbH
	DD	07be2fcH
	DD	0c3f2fdH
	DD	029bdf4H
	DD	072e1fcH
	DD	0bcf0fdH
	DD	05bdcfbH
	DD	06ce0fcH
	DD	08ae4fbH
	DD	0abecfcH
	DD	02cc3f6H
	DD	033c9f6H
	DD	072defaH
	DD	09aeafdH
	DD	020404H
	DD	0b3eefcH
	DD	02c424dH
	DD	023a8ddH
	DD	022b1eaH
	DD	044d4faH
	DD	0a3ebfdH
	DD	0b151aH
	DD	014181aH
	DD	014b3f1H
	DD	024bbf2H
	DD	031c6f5H
	DD	03acaf6H
	DD	032cbf8H
	DD	093e3f9H
	DD	093e8fdH
	DD	0baeefcH
	DD	0b4f0feH
	DD	011212aH
	DD	0349bc5H
	DD	01dbcf4H
	DD	02cb2e6H
	DD	04ad3f8H
	DD	07cdefaH
	DD	06090aH
	DD	0b0e11H
	DD	0121618H
	DD	0b1a21H
	DD	021292dH
	DD	0273135H
	DD	0213642H
	DD	0224251H
	DD	02c4b5cH
	DD	02e5161H
	DD	02d5c71H
	DD	01c7daaH
	DD	0427d94H
	DD	02e85aeH
	DD	03484a6H
	DD	0368aadH
	DD	03493b9H
	DD	018a5ddH
	DD	031a1ccH
	DD	024a5ddH
	DD	035a6d1H
	DD	03a3ecH
	DD	08a6ebH
	DD	0dacecH
	DD	013a4e4H
	DD	010b0efH
	DD	025b9eeH
	DD	022c1f5H
	DD	02ec5f9H
	DD	039cbf8H
	DD	044ccf4H
	DD	04bcdf5H
	DD	054d1f6H
	DD	052d7f9H
	DD	064d3f5H
	DD	068d3f5H
	DD	040505H
	DD	0a0b0bH
	DD	080a0cH
	DD	0b0c0dH
	DD	0c0e0fH
	DD	0d1011H
	DD	081014H
	DD	0d1314H
	DD	0101213H
	DD	0181a1cH
	DD	0a1f28H
	DD	0181d20H
	DD	0182224H
	DD	01c2428H
	DD	01a272cH
	DD	0162f3dH
	DD	01f3236H
	DD	019313eH
	DD	0202b31H
	DD	02d3234H
	DD	025353cH
	DD	029373eH
	DD	01e3b45H
	DD	0123d4dH
	DD	0193b4eH
	DD	0273a44H
	DD	02a3b43H
	DD	02f3f42H
	DD	0314046H
	DD	032434aH
	DD	038464cH
	DD	02b4551H
	DD	0214853H
	DD	0334a55H
	DD	0354d5aH
	DD	03a5058H
	DD	0125a74H
	DD	0165c7cH
	DD	02c566aH
	DD	0395663H
	DD	0385d6eH
	DD	0205871H
	DD	0255e7aH
	DD	0345d70H
	DD	03a616eH
	DD	02f677aH
	DD	02b637eH
	DD	02c637eH
	DD	0376173H
	DD	0366377H
	DD	03d6374H
	DD	03b667dH
	DD	0366c7bH
	DD	044626eH
	DD	0466875H
	DD	0176182H
	DD	0176c95H
	DD	016799eH
	DD	0276685H
	DD	02c6581H
	DD	0336a83H
	DD	0316e83H
	DD	0396c83H
	DD	0387289H
	DD	0296f90H
	DD	02e7594H
	DD	02d739aH
	DD	02e7b9cH
	DD	0367691H
	DD	0397993H
	DD	0397c93H
	DD	0397c95H
	DD	0367d9bH
	DD	0c6ebaH
	DD	071beH
	DD	0257da7H
	DD	02c7fa1H
	DD	0547584H
	DD	0417c92H
	DD	0427f99H
	DD	076c1H
	DD	07cc5H
	DD	01d8bb4H
	DD	01a8abeH
	DD	02f80a7H
	DD	03c88a7H
	DD	0208fbdH
	DD	03188b0H
	DD	0328db5H
	DD	02d90bfH
	DD	03b92b4H
	DD	0468190H
	DD	04a839eH
	DD	0568594H
	DD	0458faeH
	DD	0458fb1H
	DD	04f95b0H
	DD	0499dbeH
	DD	0509db8H
	DD	086cbH
	DD	01b90c6H
	DD	01e9eccH
	DD	028fd0H
	DD	0998d4H
	DD	0999dcH
	DD	02797c5H
	DD	02f9dc7H
	DD	02c9accH
	DD	03097c5H
	DD	0389ac3H
	DD	03d9ec8H
	DD	010a0d9H
	DD	013a2ddH
	DD	01fa3daH
	DD	02fa0ceH
	DD	022a1d9H
	DD	02eabdbH
	DD	028aadeH
	DD	02cacdeH
	DD	038aad5H
	DD	036a6dbH
	DD	037b1d6H
	DD	0ca0e1H
	DD	07a9eeH
	DD	01aaae7H
	DD	0fb0efH
	DD	018b6efH
	DD	0aaff0H
	DD	09b2f1H
	DD	017b9f5H
	DD	022a9e1H
	DD	020ade0H
	DD	024b2e3H
	DD	022b3e7H
	DD	02ab5eaH
	DD	02fbdeeH
	DD	031b0e1H
	DD	03ab6e5H
	DD	030bae7H
	DD	03bbae5H
	DD	036b3e9H
	DD	035bde8H
	DD	021b5f1H
	DD	02bbbf3H
	DD	02ebbf2H
	DD	028bff2H
	DD	034bdf0H
	DD	052a6c3H
	DD	056acccH
	DD	044aedaH
	DD	053b7d9H
	DD	053b8dcH
	DD	048bce3H
	DD	045bee9H
	DD	043beecH
	DD	025c2fbH
	DD	039c4f4H
	DD	030c6faH
	DD	037d0faH
	DD	03dd1f9H
	DD	04fc5edH
	DD	050c0ebH
	DD	04ccff8H
	DD	055c8f1H
	DD	054cbf4H
	DD	05bccf1H
	DD	059c9f4H
	DD	05ccdf4H
	DD	058d3f7H
	DD	059d4f8H
	DD	060cdf5H
	DD	063d5f6H
	DD	067d6f6H
	DD	069d8f7H
	DD	079dbf7H
	DD	08fe8fdH
	DD	0c8f2feH
_PalBestLapEver DD 0100H
	DB	01H
	ORG $+3
	DD	FLAT:_ColorsBestLapEver
_bmBestLapEver DW 024H
	DW	022H
	DW	024H
	DW	08H
	DD	FLAT:_acBestLapEver
	DD	FLAT:_PalBestLapEver
	ORG $+4
_acBestLapEver DB 00H
	DB	00H
	DB	00H
	DB	00H
	DB	00H
	DB	00H
	DB	00H
	DB	00H
	DB	00H
	DB	00H
	DB	00H
	DB	00H
	DB	00H
	DB	00H
	DB	00H
	DB	00H
	DB	00H
	DB	00H
	DB	00H
	DB	00H
	DB	00H
	DB	00H
	DB	00H
	DB	00H
	DB	00H
	DB	00H
	DB	00H
	DB	00H
	DB	00H
	DB	00H
	DB	00H
	DB	00H
	DB	00H
	DB	00H
	DB	00H
	DB	00H
	DB	00H
	DB	00H
	DB	00H
	DB	00H
	DB	00H
	DB	00H
	DB	00H
	DB	00H
	DB	00H
	DB	00H
	DB	00H
	DB	00H
	DB	05bH
	DB	065H
	DB	034H
	DB	07fH
	DB	07cH
	DB	08eH
	DB	096H
	DB	095H
	DB	08cH
	DB	083H
	DB	07bH
	DB	06fH
	DB	05fH
	DB	056H
	DB	00H
	DB	00H
	DB	00H
	DB	00H
	DB	00H
	DB	00H
	DB	00H
	DB	00H
	DB	00H
	DB	00H
	DB	00H
	DB	00H
	DB	00H
	DB	00H
	DB	00H
	DB	00H
	DB	00H
	DB	00H
	DB	00H
	DB	00H
	DB	06aH
	DB	0a7H
	DB	098H
	DB	099H
	DB	09fH
	DB	0a0H
	DB	0b2H
	DB	0b5H
	DB	0b6H
	DB	0beH
	DB	03cH
	DB	0d2H
	DB	0d3H
	DB	0d9H
	DB	0dcH
	DB	0c8H
	DB	0aaH
	DB	050H
	DB	00H
	DB	00H
	DB	00H
	DB	00H
	DB	00H
	DB	00H
	DB	00H
	DB	00H
	DB	00H
	DB	00H
	DB	00H
	DB	00H
	DB	00H
	DB	037H
	DB	0e5H
	DB	0e3H
	DB	064H
	DB	00H
	DB	097H
	DB	0e9H
	DB	0c7H
	DB	0c2H
	DB	0c0H
	DB	03eH
	DB	0c4H
	DB	0d7H
	DB	0d8H
	DB	0e8H
	DB	0efH
	DB	0f4H
	DB	04dH
	DB	0fbH
	DB	0fcH
	DB	0faH
	DB	0e1H
	DB	05cH
	DB	013H
	DB	037H
	DB	0e6H
	DB	0e2H
	DB	06bH
	DB	00H
	DB	00H
	DB	00H
	DB	00H
	DB	00H
	DB	00H
	DB	00H
	DB	00H
	DB	08H
	DB	035H
	DB	09bH
	DB	039H
	DB	00H
	DB	089H
	DB	0f2H
	DB	06H
	DB	09H
	DB	04H
	DB	02aH
	DB	02H
	DB	0dH
	DB	021H
	DB	021H
	DB	0dH
	DB	02H
	DB	02aH
	DB	011H
	DB	02aH
	DB	04dH
	DB	043H
	DB	01aH
	DB	02eH
	DB	016H
	DB	075H
	DB	0a5H
	DB	03bH
	DB	00H
	DB	00H
	DB	00H
	DB	00H
	DB	00H
	DB	00H
	DB	00H
	DB	00H
	DB	0c5H
	DB	013H
	DB	025H
	DB	0bcH
	DB	00H
	DB	078H
	DB	0f3H
	DB	011H
	DB	03H
	DB	04cH
	DB	09H
	DB	019H
	DB	0aH
	DB	0ffH
	DB	07H
	DB	014H
	DB	0dH
	DB	04H
	DB	09H
	DB	011H
	DB	04bH
	DB	0bfH
	DB	013H
	DB	070H
	DB	036H
	DB	00H
	DB	07dH
	DB	0a9H
	DB	00H
	DB	00H
	DB	00H
	DB	00H
	DB	00H
	DB	00H
	DB	00H
	DB	00H
	DB	0c4H
	DB	025H
	DB	02cH
	DB	028H
	DB	0acH
	DB	0abH
	DB	0f6H
	DB	02aH
	DB	04H
	DB	01H
	DB	011H
	DB	021H
	DB	014H
	DB	0aH
	DB	023H
	DB	0eH
	DB	02H
	DB	0cH
	DB	02H
	DB	02H
	DB	0f7H
	DB	03cH
	DB	085H
	DB	0daH
	DB	08bH
	DB	00H
	DB	092H
	DB	090H
	DB	00H
	DB	00H
	DB	00H
	DB	00H
	DB	00H
	DB	00H
	DB	00H
	DB	00H
	DB	0c3H
	DB	032H
	DB	00H
	DB	031H
	DB	0b8H
	DB	0dbH
	DB	04eH
	DB	02H
	DB	0cH
	DB	04cH
	DB	011H
	DB	021H
	DB	014H
	DB	0aH
	DB	023H
	DB	0eH
	DB	02H
	DB	0cH
	DB	02H
	DB	0dH
	DB	0f7H
	DB	041H
	DB	016H
	DB	08fH
	DB	051H
	DB	00H
	DB	03dH
	DB	035H
	DB	00H
	DB	00H
	DB	00H
	DB	00H
	DB	00H
	DB	00H
	DB	00H
	DB	00H
	DB	03bH
	DB	093H
	DB	00H
	DB	00H
	DB	00H
	DB	033H
	DB	0f9H
	DB	02H
	DB	09H
	DB	01H
	DB	09H
	DB	012H
	DB	023H
	DB	07H
	DB	07H
	DB	0eH
	DB	02H
	DB	09H
	DB	02H
	DB	0dH
	DB	0f1H
	DB	0b3H
	DB	051H
	DB	00H
	DB	00H
	DB	01bH
	DB	017H
	DB	068H
	DB	00H
	DB	00H
	DB	00H
	DB	00H
	DB	00H
	DB	00H
	DB	00H
	DB	00H
	DB	080H
	DB	03fH
	DB	013H
	DB	00H
	DB	00H
	DB	060H
	DB	0f5H
	DB	06H
	DB	09H
	DB	01H
	DB	09H
	DB	012H
	DB	0aH
	DB	0ffH
	DB	07H
	DB	0eH
	DB	02H
	DB	0cH
	DB	02H
	DB	0dH
	DB	01fH
	DB	036H
	DB	00H
	DB	00H
	DB	00H
	DB	06eH
	DB	028H
	DB	053H
	DB	00H
	DB	00H
	DB	00H
	DB	00H
	DB	00H
	DB	00H
	DB	00H
	DB	00H
	DB	02fH
	DB	045H
	DB	061H
	DB	00H
	DB	00H
	DB	025H
	DB	0f0H
	DB	011H
	DB	0cH
	DB	01H
	DB	0cH
	DB	022H
	DB	024H
	DB	0ffH
	DB	07H
	DB	0eH
	DB	06H
	DB	0cH
	DB	06H
	DB	06H
	DB	01eH
	DB	087H
	DB	00H
	DB	00H
	DB	00H
	DB	039H
	DB	03aH
	DB	00H
	DB	00H
	DB	00H
	DB	00H
	DB	00H
	DB	00H
	DB	00H
	DB	00H
	DB	00H
	DB	00H
	DB	026H
	DB	094H
	DB	00H
	DB	00H
	DB	055H
	DB	0e4H
	DB	0fcH
	DB	04H
	DB	05H
	DB	03H
	DB	0feH
	DB	024H
	DB	07H
	DB	0aH
	DB	019H
	DB	06H
	DB	04H
	DB	09H
	DB	09H
	DB	01dH
	DB	079H
	DB	00H
	DB	00H
	DB	02dH
	DB	017H
	DB	06cH
	DB	00H
	DB	00H
	DB	00H
	DB	00H
	DB	00H
	DB	00H
	DB	00H
	DB	00H
	DB	00H
	DB	00H
	DB	06eH
	DB	0d5H
	DB	02dH
	DB	00H
	DB	013H
	DB	0bdH
	DB	0f8H
	DB	03H
	DB	05H
	DB	03H
	DB	0dH
	DB	014H
	DB	07H
	DB	0aH
	DB	019H
	DB	09H
	DB	03H
	DB	0cH
	DB	04H
	DB	01cH
	DB	033H
	DB	00H
	DB	00H
	DB	08dH
	DB	0c1H
	DB	013H
	DB	00H
	DB	00H
	DB	00H
	DB	00H
	DB	00H
	DB	00H
	DB	00H
	DB	00H
	DB	00H
	DB	00H
	DB	013H
	DB	026H
	DB	09dH
	DB	00H
	DB	00H
	DB	0a3H
	DB	04aH
	DB	03H
	DB	05H
	DB	0bH
	DB	02H
	DB	0eH
	DB	07H
	DB	0aH
	DB	012H
	DB	0cH
	DB	03H
	DB	04H
	DB	0bH
	DB	044H
	DB	05eH
	DB	00H
	DB	058H
	DB	017H
	DB	015H
	DB	00H
	DB	00H
	DB	00H
	DB	00H
	DB	00H
	DB	00H
	DB	00H
	DB	00H
	DB	00H
	DB	00H
	DB	00H
	DB	00H
	DB	030H
	DB	017H
	DB	030H
	DB	00H
	DB	08aH
	DB	0ebH
	DB	0bH
	DB	05H
	DB	0bH
	DB	06H
	DB	019H
	DB	07H
	DB	024H
	DB	022H
	DB	04H
	DB	0bH
	DB	03H
	DB	029H
	DB	043H
	DB	01aH
	DB	00H
	DB	0a4H
	DB	0a6H
	DB	00H
	DB	00H
	DB	00H
	DB	00H
	DB	00H
	DB	00H
	DB	00H
	DB	00H
	DB	00H
	DB	00H
	DB	00H
	DB	00H
	DB	00H
	DB	00H
	DB	082H
	DB	0c6H
	DB	02bH
	DB	015H
	DB	045H
	DB	04cH
	DB	05H
	DB	01H
	DB	09H
	DB	012H
	DB	0aH
	DB	014H
	DB	0dH
	DB	03H
	DB	0bH
	DB	03H
	DB	010H
	DB	0a2H
	DB	00H
	DB	034H
	DB	0d1H
	DB	01bH
	DB	00H
	DB	00H
	DB	00H
	DB	00H
	DB	00H
	DB	00H
	DB	00H
	DB	00H
	DB	00H
	DB	00H
	DB	00H
	DB	00H
	DB	00H
	DB	00H
	DB	013H
	DB	03aH
	DB	0afH
	DB	05aH
	DB	016H
	DB	018H
	DB	05H
	DB	01H
	DB	04H
	DB	022H
	DB	0aH
	DB	0eH
	DB	06H
	DB	0bH
	DB	01H
	DB	01H
	DB	027H
	DB	07eH
	DB	063H
	DB	017H
	DB	069H
	DB	00H
	DB	00H
	DB	00H
	DB	00H
	DB	00H
	DB	00H
	DB	00H
	DB	00H
	DB	00H
	DB	00H
	DB	00H
	DB	00H
	DB	00H
	DB	00H
	DB	00H
	DB	00H
	DB	052H
	DB	026H
	DB	0b1H
	DB	0baH
	DB	01eH
	DB	05H
	DB	05H
	DB	03H
	DB	0dH
	DB	023H
	DB	019H
	DB	09H
	DB	01H
	DB	01H
	DB	029H
	DB	0ccH
	DB	0aeH
	DB	028H
	DB	076H
	DB	00H
	DB	00H
	DB	00H
	DB	00H
	DB	00H
	DB	00H
	DB	00H
	DB	00H
	DB	00H
	DB	00H
	DB	00H
	DB	00H
	DB	00H
	DB	00H
	DB	00H
	DB	00H
	DB	00H
	DB	00H
	DB	01bH
	DB	03fH
	DB	01cH
	DB	01dH
	DB	018H
	DB	05H
	DB	0bH
	DB	06H
	DB	024H
	DB	012H
	DB	04H
	DB	01H
	DB	01H
	DB	010H
	DB	0caH
	DB	0d0H
	DB	081H
	DB	00H
	DB	00H
	DB	00H
	DB	00H
	DB	00H
	DB	00H
	DB	00H
	DB	00H
	DB	00H
	DB	00H
	DB	00H
	DB	00H
	DB	00H
	DB	00H
	DB	00H
	DB	00H
	DB	00H
	DB	00H
	DB	00H
	DB	00H
	DB	01bH
	DB	0a8H
	DB	040H
	DB	010H
	DB	05H
	DB	01H
	DB	09H
	DB	014H
	DB	012H
	DB	03H
	DB	05H
	DB	018H
	DB	01cH
	DB	040H
	DB	077H
	DB	00H
	DB	00H
	DB	00H
	DB	00H
	DB	00H
	DB	00H
	DB	00H
	DB	00H
	DB	00H
	DB	00H
	DB	00H
	DB	00H
	DB	00H
	DB	00H
	DB	00H
	DB	00H
	DB	00H
	DB	00H
	DB	00H
	DB	00H
	DB	00H
	DB	00H
	DB	053H
	DB	091H
	DB	0ceH
	DB	0eeH
	DB	01H
	DB	06H
	DB	024H
	DB	012H
	DB	03H
	DB	05H
	DB	046H
	DB	0b7H
	DB	015H
	DB	00H
	DB	00H
	DB	00H
	DB	00H
	DB	00H
	DB	00H
	DB	00H
	DB	00H
	DB	00H
	DB	00H
	DB	00H
	DB	00H
	DB	00H
	DB	00H
	DB	00H
	DB	00H
	DB	00H
	DB	00H
	DB	00H
	DB	00H
	DB	00H
	DB	00H
	DB	00H
	DB	00H
	DB	04fH
	DB	038H
	DB	0cfH
	DB	029H
	DB	02H
	DB	023H
	DB	019H
	DB	04H
	DB	0fH
	DB	041H
	DB	015H
	DB	00H
	DB	00H
	DB	00H
	DB	00H
	DB	00H
	DB	00H
	DB	00H
	DB	00H
	DB	00H
	DB	00H
	DB	00H
	DB	00H
	DB	00H
	DB	00H
	DB	00H
	DB	00H
	DB	00H
	DB	00H
	DB	00H
	DB	00H
	DB	00H
	DB	00H
	DB	00H
	DB	00H
	DB	00H
	DB	00H
	DB	054H
	DB	09aH
	DB	044H
	DB	04aH
	DB	0fdH
	DB	0fbH
	DB	0e0H
	DB	0c9H
	DB	071H
	DB	00H
	DB	00H
	DB	00H
	DB	00H
	DB	00H
	DB	00H
	DB	00H
	DB	00H
	DB	00H
	DB	00H
	DB	00H
	DB	00H
	DB	00H
	DB	00H
	DB	00H
	DB	00H
	DB	00H
	DB	00H
	DB	00H
	DB	00H
	DB	00H
	DB	00H
	DB	00H
	DB	00H
	DB	00H
	DB	00H
	DB	00H
	DB	00H
	DB	00H
	DB	07aH
	DB	042H
	DB	0cdH
	DB	0ceH
	DB	0bbH
	DB	05dH
	DB	00H
	DB	00H
	DB	00H
	DB	00H
	DB	00H
	DB	00H
	DB	00H
	DB	00H
	DB	00H
	DB	00H
	DB	00H
	DB	00H
	DB	00H
	DB	00H
	DB	00H
	DB	00H
	DB	00H
	DB	00H
	DB	00H
	DB	00H
	DB	00H
	DB	00H
	DB	00H
	DB	00H
	DB	00H
	DB	00H
	DB	00H
	DB	00H
	DB	00H
	DB	00H
	DB	00H
	DB	09eH
	DB	0edH
	DB	0d6H
	DB	062H
	DB	00H
	DB	00H
	DB	00H
	DB	00H
	DB	00H
	DB	00H
	DB	00H
	DB	00H
	DB	00H
	DB	00H
	DB	00H
	DB	00H
	DB	00H
	DB	00H
	DB	00H
	DB	00H
	DB	00H
	DB	00H
	DB	00H
	DB	00H
	DB	00H
	DB	00H
	DB	00H
	DB	00H
	DB	00H
	DB	00H
	DB	00H
	DB	00H
	DB	00H
	DB	00H
	DB	00H
	DB	00H
	DB	067H
	DB	020H
	DB	0b9H
	DB	00H
	DB	00H
	DB	00H
	DB	00H
	DB	00H
	DB	00H
	DB	00H
	DB	00H
	DB	00H
	DB	00H
	DB	00H
	DB	00H
	DB	00H
	DB	00H
	DB	00H
	DB	00H
	DB	00H
	DB	00H
	DB	00H
	DB	00H
	DB	00H
	DB	00H
	DB	00H
	DB	00H
	DB	00H
	DB	00H
	DB	00H
	DB	00H
	DB	00H
	DB	00H
	DB	00H
	DB	00H
	DB	00H
	DB	032H
	DB	020H
	DB	03dH
	DB	00H
	DB	00H
	DB	00H
	DB	00H
	DB	00H
	DB	00H
	DB	00H
	DB	00H
	DB	00H
	DB	00H
	DB	00H
	DB	00H
	DB	00H
	DB	00H
	DB	00H
	DB	00H
	DB	00H
	DB	00H
	DB	00H
	DB	00H
	DB	00H
	DB	00H
	DB	00H
	DB	00H
	DB	00H
	DB	00H
	DB	00H
	DB	00H
	DB	00H
	DB	00H
	DB	00H
	DB	02fH
	DB	072H
	DB	0b0H
	DB	018H
	DB	049H
	DB	09cH
	DB	06dH
	DB	058H
	DB	00H
	DB	00H
	DB	00H
	DB	00H
	DB	00H
	DB	00H
	DB	00H
	DB	00H
	DB	00H
	DB	00H
	DB	00H
	DB	00H
	DB	00H
	DB	00H
	DB	00H
	DB	00H
	DB	00H
	DB	00H
	DB	00H
	DB	00H
	DB	00H
	DB	00H
	DB	00H
	DB	00H
	DB	00H
	DB	00H
	DB	057H
	DB	0adH
	DB	049H
	DB	01fH
	DB	0ddH
	DB	0fH
	DB	08H
	DB	0deH
	DB	018H
	DB	0e7H
	DB	084H
	DB	00H
	DB	00H
	DB	00H
	DB	00H
	DB	00H
	DB	00H
	DB	00H
	DB	00H
	DB	00H
	DB	00H
	DB	00H
	DB	00H
	DB	00H
	DB	00H
	DB	00H
	DB	00H
	DB	00H
	DB	00H
	DB	00H
	DB	00H
	DB	00H
	DB	00H
	DB	00H
	DB	00H
	DB	04fH
	DB	038H
	DB	027H
	DB	01eH
	DB	048H
	DB	048H
	DB	048H
	DB	048H
	DB	048H
	DB	010H
	DB	046H
	DB	0dfH
	DB	031H
	DB	00H
	DB	00H
	DB	00H
	DB	00H
	DB	00H
	DB	00H
	DB	00H
	DB	00H
	DB	00H
	DB	00H
	DB	00H
	DB	00H
	DB	00H
	DB	00H
	DB	00H
	DB	00H
	DB	00H
	DB	00H
	DB	00H
	DB	00H
	DB	00H
	DB	00H
	DB	00H
	DB	074H
	DB	01cH
	DB	0fH
	DB	01eH
	DB	010H
	DB	020H
	DB	020H
	DB	020H
	DB	01eH
	DB	01eH
	DB	047H
	DB	027H
	DB	03eH
	DB	01aH
	DB	00H
	DB	00H
	DB	00H
	DB	00H
	DB	00H
	DB	00H
	DB	00H
	DB	00H
	DB	00H
	DB	00H
	DB	00H
	DB	00H
	DB	00H
	DB	00H
	DB	00H
	DB	00H
	DB	00H
	DB	00H
	DB	00H
	DB	00H
	DB	00H
	DB	00H
	DB	086H
	DB	0eaH
	DB	0ecH
	DB	08H
	DB	08H
	DB	08H
	DB	08H
	DB	08H
	DB	08H
	DB	08H
	DB	047H
	DB	047H
	DB	0cbH
	DB	059H
	DB	00H
	DB	00H
	DB	00H
	DB	00H
	DB	00H
	DB	00H
	DB	00H
	DB	00H
	DB	00H
	DB	00H
	DB	00H
	DB	00H
	DB	00H
	DB	00H
	DB	00H
	DB	00H
	DB	00H
	DB	00H
	DB	00H
	DB	00H
	DB	00H
	DB	00H
	DB	013H
	DB	066H
	DB	088H
	DB	0b4H
	DB	0d4H
	DB	08H
	DB	08H
	DB	0e0H
	DB	045H
	DB	016H
	DB	0a1H
	DB	073H
	DB	02eH
	DB	00H
	DB	00H
	DB	00H
	DB	00H
	DB	00H
	DB	00H
	DB	00H
	DB	00H
	DB	00H
	DB	00H
	DB	00H
	DB	00H
	DB	00H
	DB	00H
	DB	00H
	DB	00H
	DB	00H
	DB	00H
	DB	00H
	DB	00H
	DB	00H
	DB	00H
	DB	00H
	DB	00H
	DB	00H
	DB	00H
	DB	00H
	DB	00H
	DB	00H
	DB	00H
	DB	00H
	DB	00H
	DB	00H
	DB	00H
	DB	00H
	DB	00H
	DB	00H
	DB	00H
	DB	00H
	DB	00H
	DB	00H
	DB	00H
	DB	00H
	DB	00H
	DB	00H
	DB	00H
	DB	00H
CONST	ENDS
END
