; Listing generated by Microsoft (R) Optimizing Compiler Version 16.00.40219.01 

	TITLE	C:\DUII\DUII\Graphics\BrightIcon.c
	.686P
	.XMM
	include listing.inc
	.model	flat

INCLUDELIB LIBCMT
INCLUDELIB OLDNAMES

PUBLIC	_bmBrightIcon
CONST	SEGMENT
_ColorsBrightIcon DD 0ffffffH
	DD	0fefefeH
	DD	0fcfcfcH
	DD	0fdfdfdH
	DD	00H
	DD	0fbfbfbH
	DD	0fbfbfcH
	DD	0fdfcfdH
	DD	080808H
	DD	060606H
	DD	0171717H
	DD	0666666H
	DD	0c2c2c2H
	DD	0dbdbdbH
	DD	0696969H
	DD	0d0d0dH
	DD	050505H
	DD	0f0f0fH
	DD	0b3b3b3H
	DD	0d0d0d0H
	DD	030303H
	DD	070707H
	DD	0101010H
	DD	0131313H
	DD	0141414H
	DD	0626262H
	DD	0929292H
	DD	0adadadH
	DD	0d3d3d3H
	DD	0d9d9d9H
	DD	0dcdcdcH
	DD	0e6e6e6H
	DD	0eeeeeeH
	DD	0f4f4f4H
	DD	0111111H
	DD	0121212H
	DD	01f1f1fH
	DD	0262626H
	DD	03f3f3fH
	DD	0434343H
	DD	06e6e6eH
	DD	07e7e7eH
	DD	0939393H
	DD	0959595H
	DD	0969696H
	DD	0979797H
	DD	0999999H
	DD	0abababH
	DD	0aeaeaeH
	DD	0b4b4b4H
	DD	0c3c3c3H
	DD	0c5c5c5H
	DD	0d1d1d1H
	DD	0e4e4e4H
	DD	0f5f5f5H
	DD	0fafafaH
	DD	0fefdfeH
	DD	040404H
	DD	0a0a0aH
	DD	0b0b0bH
	DD	0151515H
	DD	01e1e1eH
	DD	0252525H
	DD	02e2e2eH
	DD	0333333H
	DD	0454545H
	DD	04a4a4aH
	DD	04b4b4bH
	DD	05f5f5fH
	DD	0616161H
	DD	0636363H
	DD	0646464H
	DD	0656565H
	DD	06b6b6bH
	DD	0777777H
	DD	0787878H
	DD	08c8c8cH
	DD	0949494H
	DD	09a9a9aH
	DD	09d9d9dH
	DD	09e9e9eH
	DD	0afafafH
	DD	0b0b0b0H
	DD	0b2b2b2H
	DD	0b5b5b5H
	DD	0b7b7b7H
	DD	0b9b9b9H
	DD	0bebebeH
	DD	0c0c0c0H
	DD	0c7c7c7H
	DD	0cdcdcdH
	DD	0d3d3d2H
	DD	0d4d4d4H
	DD	0d5d5d5H
	DD	0e0e0e0H
	DD	0ebebebH
	DD	0edededH
	DD	0f8f8f8H
	DD	020202H
	DD	090909H
	DD	0c0c0cH
	DD	0161616H
	DD	01a1a1aH
	DD	01b1b1bH
	DD	01d1d1dH
	DD	0232323H
	DD	0242424H
	DD	02a2a2aH
	DD	02b2b2bH
	DD	02d2d2dH
	DD	02f2f2fH
	DD	0323232H
	DD	0343434H
	DD	0353535H
	DD	0363636H
	DD	0373737H
	DD	0383838H
	DD	0393939H
	DD	03a3a3aH
	DD	0414141H
	DD	0494949H
	DD	04c4c4cH
	DD	04d4d4dH
	DD	04f4f4fH
	DD	0555555H
	DD	0565656H
	DD	05a5a5aH
	DD	05e5e5eH
	DD	0606060H
	DD	0686868H
	DD	06d6d6dH
	DD	06f6f6fH
	DD	0707070H
	DD	0717171H
	DD	0737373H
	DD	0747474H
	DD	0767676H
	DD	07f7f7fH
	DD	0808080H
	DD	0838383H
	DD	0848484H
	DD	0858585H
	DD	0878787H
	DD	08b8b8bH
	DD	08f8f8fH
	DD	0919191H
	DD	09c9c9cH
	DD	09f9f9fH
	DD	0a5a5a5H
	DD	0a6a6a6H
	DD	0a9a9a9H
	DD	0acacacH
	DD	0b1b1b1H
	DD	0b6b6b6H
	DD	0b8b8b8H
	DD	0bababaH
	DD	0bbbbbbH
	DD	0bcbcbcH
	DD	0bdbdbdH
	DD	0bfbfbfH
	DD	0c1c1c1H
	DD	0c4c4c4H
	DD	0c6c6c6H
	DD	0cfcfcfH
	DD	0dadadaH
	DD	0dfdfdfH
	DD	0e0dfe0H
	DD	0e2e2e2H
	DD	0e3e3e3H
	DD	0e7e7e7H
	DD	0e8e8e8H
	DD	0e9e9e9H
	DD	0ecececH
	DD	0eeeeedH
	DD	0efefefH
	DD	0f1f1f1H
	DD	0f1f1f2H
	DD	0f2f2f2H
	DD	0f3f3f3H
	DD	0f6f6f6H
	DD	0f9f9f9H
	DD	0fdfdfeH
	DD	0fffeffH
_PalBrightIcon DD 0b7H
	DB	00H
	ORG $+3
	DD	FLAT:_ColorsBrightIcon
_acBrightIcon DB 00H
	DB	00H
	DB	00H
	DB	00H
	DB	00H
	DB	00H
	DB	00H
	DB	00H
	DB	00H
	DB	00H
	DB	00H
	DB	00H
	DB	00H
	DB	00H
	DB	00H
	DB	00H
	DB	00H
	DB	00H
	DB	00H
	DB	00H
	DB	01fH
	DB	095H
	DB	0dH
	DB	00H
	DB	00H
	DB	00H
	DB	00H
	DB	00H
	DB	00H
	DB	00H
	DB	00H
	DB	00H
	DB	00H
	DB	00H
	DB	00H
	DB	00H
	DB	00H
	DB	00H
	DB	00H
	DB	00H
	DB	00H
	DB	00H
	DB	00H
	DB	00H
	DB	00H
	DB	00H
	DB	00H
	DB	00H
	DB	00H
	DB	00H
	DB	00H
	DB	00H
	DB	00H
	DB	00H
	DB	00H
	DB	00H
	DB	00H
	DB	00H
	DB	00H
	DB	00H
	DB	00H
	DB	00H
	DB	00H
	DB	00H
	DB	036H
	DB	079H
	DB	04H
	DB	06fH
	DB	035H
	DB	00H
	DB	00H
	DB	00H
	DB	00H
	DB	00H
	DB	00H
	DB	00H
	DB	00H
	DB	00H
	DB	00H
	DB	00H
	DB	00H
	DB	00H
	DB	00H
	DB	00H
	DB	00H
	DB	00H
	DB	00H
	DB	00H
	DB	00H
	DB	00H
	DB	00H
	DB	00H
	DB	00H
	DB	00H
	DB	00H
	DB	00H
	DB	00H
	DB	00H
	DB	00H
	DB	00H
	DB	00H
	DB	00H
	DB	00H
	DB	00H
	DB	00H
	DB	00H
	DB	00H
	DB	00H
	DB	00H
	DB	0dH
	DB	017H
	DB	04H
	DB	015H
	DB	058H
	DB	00H
	DB	00H
	DB	00H
	DB	00H
	DB	00H
	DB	00H
	DB	00H
	DB	00H
	DB	00H
	DB	00H
	DB	00H
	DB	00H
	DB	00H
	DB	00H
	DB	00H
	DB	00H
	DB	00H
	DB	00H
	DB	00H
	DB	00H
	DB	00H
	DB	00H
	DB	00H
	DB	00H
	DB	00H
	DB	00H
	DB	00H
	DB	00H
	DB	00H
	DB	00H
	DB	00H
	DB	00H
	DB	00H
	DB	00H
	DB	00H
	DB	00H
	DB	00H
	DB	00H
	DB	00H
	DB	00H
	DB	0dH
	DB	065H
	DB	04H
	DB	08H
	DB	0cH
	DB	00H
	DB	00H
	DB	00H
	DB	00H
	DB	00H
	DB	00H
	DB	00H
	DB	00H
	DB	00H
	DB	00H
	DB	00H
	DB	00H
	DB	00H
	DB	00H
	DB	00H
	DB	00H
	DB	00H
	DB	00H
	DB	00H
	DB	00H
	DB	00H
	DB	00H
	DB	00H
	DB	00H
	DB	00H
	DB	00H
	DB	00H
	DB	00H
	DB	00H
	DB	00H
	DB	00H
	DB	00H
	DB	00H
	DB	00H
	DB	00H
	DB	00H
	DB	00H
	DB	00H
	DB	00H
	DB	00H
	DB	01eH
	DB	0aH
	DB	04H
	DB	08H
	DB	0cH
	DB	00H
	DB	00H
	DB	00H
	DB	00H
	DB	00H
	DB	00H
	DB	00H
	DB	00H
	DB	00H
	DB	00H
	DB	00H
	DB	00H
	DB	00H
	DB	00H
	DB	00H
	DB	00H
	DB	00H
	DB	00H
	DB	00H
	DB	00H
	DB	00H
	DB	00H
	DB	00H
	DB	00H
	DB	00H
	DB	00H
	DB	00H
	DB	00H
	DB	00H
	DB	00H
	DB	00H
	DB	00H
	DB	00H
	DB	00H
	DB	00H
	DB	00H
	DB	00H
	DB	00H
	DB	00H
	DB	00H
	DB	01eH
	DB	0aH
	DB	04H
	DB	08H
	DB	0cH
	DB	00H
	DB	00H
	DB	00H
	DB	00H
	DB	00H
	DB	00H
	DB	00H
	DB	00H
	DB	00H
	DB	00H
	DB	00H
	DB	00H
	DB	00H
	DB	00H
	DB	00H
	DB	00H
	DB	00H
	DB	00H
	DB	00H
	DB	00H
	DB	00H
	DB	00H
	DB	00H
	DB	00H
	DB	00H
	DB	00H
	DB	00H
	DB	013H
	DB	04aH
	DB	02fH
	DB	03H
	DB	00H
	DB	00H
	DB	00H
	DB	00H
	DB	00H
	DB	00H
	DB	00H
	DB	00H
	DB	00H
	DB	01eH
	DB	0aH
	DB	04H
	DB	08H
	DB	0cH
	DB	00H
	DB	00H
	DB	00H
	DB	00H
	DB	00H
	DB	00H
	DB	00H
	DB	00H
	DB	00H
	DB	00H
	DB	09dH
	DB	088H
	DB	09eH
	DB	00H
	DB	00H
	DB	00H
	DB	00H
	DB	00H
	DB	00H
	DB	00H
	DB	00H
	DB	00H
	DB	00H
	DB	00H
	DB	00H
	DB	00H
	DB	0afH
	DB	076H
	DB	04H
	DB	010H
	DB	01aH
	DB	00H
	DB	00H
	DB	00H
	DB	00H
	DB	00H
	DB	00H
	DB	00H
	DB	00H
	DB	00H
	DB	01eH
	DB	0aH
	DB	04H
	DB	08H
	DB	0cH
	DB	00H
	DB	00H
	DB	00H
	DB	00H
	DB	00H
	DB	00H
	DB	00H
	DB	00H
	DB	00H
	DB	02fH
	DB	03bH
	DB	04H
	DB	03dH
	DB	05eH
	DB	00H
	DB	00H
	DB	00H
	DB	00H
	DB	00H
	DB	00H
	DB	00H
	DB	00H
	DB	00H
	DB	00H
	DB	00H
	DB	00H
	DB	060H
	DB	06eH
	DB	04H
	DB	04H
	DB	010H
	DB	02cH
	DB	00H
	DB	00H
	DB	00H
	DB	00H
	DB	00H
	DB	00H
	DB	00H
	DB	00H
	DB	01dH
	DB	016H
	DB	04H
	DB	09H
	DB	057H
	DB	00H
	DB	00H
	DB	00H
	DB	00H
	DB	00H
	DB	00H
	DB	00H
	DB	00H
	DB	01bH
	DB	0fH
	DB	04H
	DB	04H
	DB	066H
	DB	0a4H
	DB	00H
	DB	00H
	DB	00H
	DB	00H
	DB	00H
	DB	00H
	DB	00H
	DB	01H
	DB	01H
	DB	01H
	DB	01H
	DB	01H
	DB	00H
	DB	055H
	DB	023H
	DB	04H
	DB	04H
	DB	09H
	DB	01aH
	DB	00H
	DB	00H
	DB	01H
	DB	01H
	DB	01H
	DB	01H
	DB	00H
	DB	020H
	DB	073H
	DB	04H
	DB	024H
	DB	0dH
	DB	00H
	DB	01H
	DB	01H
	DB	01H
	DB	01H
	DB	00H
	DB	00H
	DB	097H
	DB	0fH
	DB	04H
	DB	04H
	DB	010H
	DB	02dH
	DB	00H
	DB	00H
	DB	01H
	DB	01H
	DB	01H
	DB	01H
	DB	01H
	DB	01H
	DB	01H
	DB	01H
	DB	01H
	DB	01H
	DB	01H
	DB	00H
	DB	00H
	DB	031H
	DB	018H
	DB	04H
	DB	04H
	DB	09H
	DB	02aH
	DB	00H
	DB	00H
	DB	01H
	DB	01H
	DB	01H
	DB	01H
	DB	00H
	DB	05cH
	DB	08eH
	DB	059H
	DB	00H
	DB	01H
	DB	01H
	DB	01H
	DB	01H
	DB	01H
	DB	00H
	DB	030H
	DB	064H
	DB	04H
	DB	04H
	DB	014H
	DB	02bH
	DB	00H
	DB	00H
	DB	01H
	DB	01H
	DB	01H
	DB	01H
	DB	01H
	DB	01H
	DB	01H
	DB	01H
	DB	01H
	DB	01H
	DB	01H
	DB	01H
	DB	01H
	DB	00H
	DB	00H
	DB	053H
	DB	023H
	DB	04H
	DB	04H
	DB	09H
	DB	050H
	DB	00H
	DB	00H
	DB	01H
	DB	01H
	DB	01H
	DB	01H
	DB	00H
	DB	00H
	DB	00H
	DB	00H
	DB	01H
	DB	01H
	DB	01H
	DB	01H
	DB	00H
	DB	055H
	DB	011H
	DB	04H
	DB	04H
	DB	039H
	DB	02bH
	DB	00H
	DB	00H
	DB	01H
	DB	01H
	DB	01H
	DB	01H
	DB	01H
	DB	01H
	DB	01H
	DB	01H
	DB	01H
	DB	01H
	DB	01H
	DB	01H
	DB	01H
	DB	01H
	DB	01H
	DB	00H
	DB	00H
	DB	031H
	DB	022H
	DB	04H
	DB	04H
	DB	072H
	DB	0aeH
	DB	00H
	DB	01H
	DB	01H
	DB	00H
	DB	00H
	DB	00H
	DB	00H
	DB	00H
	DB	00H
	DB	00H
	DB	01H
	DB	01H
	DB	00H
	DB	03H
	DB	07bH
	DB	04H
	DB	04H
	DB	010H
	DB	02cH
	DB	00H
	DB	00H
	DB	01H
	DB	01H
	DB	01H
	DB	01H
	DB	01H
	DB	01H
	DB	01H
	DB	01H
	DB	01H
	DB	01H
	DB	01H
	DB	01H
	DB	01H
	DB	01H
	DB	01H
	DB	01H
	DB	01H
	DB	00H
	DB	00H
	DB	012H
	DB	018H
	DB	04H
	DB	046H
	DB	02H
	DB	00H
	DB	00H
	DB	00H
	DB	00H
	DB	060H
	DB	013H
	DB	033H
	DB	05aH
	DB	0abH
	DB	00H
	DB	00H
	DB	00H
	DB	00H
	DB	00H
	DB	029H
	DB	04H
	DB	08H
	DB	02eH
	DB	00H
	DB	00H
	DB	01H
	DB	01H
	DB	01H
	DB	01H
	DB	01H
	DB	01H
	DB	01H
	DB	01H
	DB	01H
	DB	01H
	DB	01H
	DB	01H
	DB	01H
	DB	01H
	DB	01H
	DB	01H
	DB	01H
	DB	01H
	DB	01H
	DB	00H
	DB	00H
	DB	013H
	DB	01bH
	DB	020H
	DB	00H
	DB	00H
	DB	00H
	DB	01cH
	DB	083H
	DB	025H
	DB	03aH
	DB	08H
	DB	063H
	DB	068H
	DB	044H
	DB	032H
	DB	00H
	DB	00H
	DB	00H
	DB	036H
	DB	031H
	DB	0a2H
	DB	00H
	DB	00H
	DB	01H
	DB	01H
	DB	01H
	DB	01H
	DB	01H
	DB	01H
	DB	01H
	DB	01H
	DB	01H
	DB	01H
	DB	01H
	DB	01H
	DB	01H
	DB	01H
	DB	01H
	DB	01H
	DB	01H
	DB	01H
	DB	01H
	DB	01H
	DB	01H
	DB	00H
	DB	00H
	DB	00H
	DB	00H
	DB	00H
	DB	03H
	DB	091H
	DB	011H
	DB	04H
	DB	04H
	DB	04H
	DB	04H
	DB	04H
	DB	04H
	DB	04H
	DB	03aH
	DB	087H
	DB	0b3H
	DB	00H
	DB	00H
	DB	00H
	DB	00H
	DB	00H
	DB	01H
	DB	01H
	DB	01H
	DB	01H
	DB	01H
	DB	01H
	DB	01H
	DB	01H
	DB	01H
	DB	01H
	DB	01H
	DB	01H
	DB	01H
	DB	01H
	DB	01H
	DB	01H
	DB	01H
	DB	01H
	DB	01H
	DB	01H
	DB	01H
	DB	01H
	DB	01H
	DB	01H
	DB	01H
	DB	00H
	DB	00H
	DB	08bH
	DB	04H
	DB	04H
	DB	04H
	DB	070H
	DB	08aH
	DB	04dH
	DB	04cH
	DB	07cH
	DB	08H
	DB	04H
	DB	04H
	DB	07fH
	DB	02H
	DB	00H
	DB	01H
	DB	01H
	DB	01H
	DB	01H
	DB	01H
	DB	01H
	DB	01H
	DB	01H
	DB	01H
	DB	01H
	DB	01H
	DB	01H
	DB	01H
	DB	01H
	DB	01H
	DB	01H
	DB	01H
	DB	01H
	DB	01H
	DB	01H
	DB	01H
	DB	01H
	DB	01H
	DB	01H
	DB	01H
	DB	01H
	DB	01H
	DB	01H
	DB	00H
	DB	053H
	DB	09H
	DB	04H
	DB	0fH
	DB	01aH
	DB	037H
	DB	00H
	DB	00H
	DB	00H
	DB	00H
	DB	059H
	DB	06dH
	DB	04H
	DB	04H
	DB	02cH
	DB	00H
	DB	01H
	DB	01H
	DB	01H
	DB	01H
	DB	01H
	DB	01H
	DB	01H
	DB	01H
	DB	01H
	DB	01H
	DB	01H
	DB	01H
	DB	01H
	DB	01H
	DB	01H
	DB	01H
	DB	00H
	DB	00H
	DB	00H
	DB	00H
	DB	00H
	DB	00H
	DB	00H
	DB	00H
	DB	01H
	DB	01H
	DB	01H
	DB	00H
	DB	0b1H
	DB	026H
	DB	04H
	DB	062H
	DB	094H
	DB	00H
	DB	00H
	DB	00H
	DB	00H
	DB	00H
	DB	00H
	DB	00H
	DB	0a5H
	DB	06bH
	DB	04H
	DB	03dH
	DB	035H
	DB	00H
	DB	01H
	DB	01H
	DB	01H
	DB	00H
	DB	00H
	DB	00H
	DB	00H
	DB	00H
	DB	00H
	DB	00H
	DB	00H
	DB	01H
	DB	01H
	DB	01H
	DB	00H
	DB	00H
	DB	00H
	DB	00H
	DB	00H
	DB	00H
	DB	00H
	DB	00H
	DB	00H
	DB	00H
	DB	01H
	DB	01H
	DB	00H
	DB	056H
	DB	014H
	DB	04H
	DB	07eH
	DB	00H
	DB	00H
	DB	00H
	DB	00H
	DB	00H
	DB	00H
	DB	00H
	DB	00H
	DB	00H
	DB	02fH
	DB	04H
	DB	04H
	DB	092H
	DB	00H
	DB	01H
	DB	01H
	DB	00H
	DB	00H
	DB	00H
	DB	00H
	DB	00H
	DB	00H
	DB	00H
	DB	00H
	DB	00H
	DB	00H
	DB	00H
	DB	01H
	DB	05eH
	DB	086H
	DB	019H
	DB	0bH
	DB	0bH
	DB	0bH
	DB	0bH
	DB	048H
	DB	048H
	DB	09cH
	DB	00H
	DB	00H
	DB	00H
	DB	04cH
	DB	04H
	DB	04H
	DB	099H
	DB	00H
	DB	00H
	DB	00H
	DB	00H
	DB	00H
	DB	00H
	DB	00H
	DB	00H
	DB	00H
	DB	036H
	DB	03eH
	DB	04H
	DB	045H
	DB	00H
	DB	00H
	DB	00H
	DB	034H
	DB	049H
	DB	046H
	DB	0bH
	DB	0bH
	DB	0bH
	DB	0bH
	DB	047H
	DB	028H
	DB	01cH
	DB	01cH
	DB	00H
	DB	045H
	DB	04H
	DB	04H
	DB	04H
	DB	04H
	DB	04H
	DB	04H
	DB	04H
	DB	04H
	DB	069H
	DB	01fH
	DB	00H
	DB	00H
	DB	028H
	DB	04H
	DB	016H
	DB	05cH
	DB	00H
	DB	00H
	DB	00H
	DB	00H
	DB	00H
	DB	00H
	DB	00H
	DB	00H
	DB	00H
	DB	00H
	DB	078H
	DB	04H
	DB	043H
	DB	03H
	DB	00H
	DB	021H
	DB	026H
	DB	04H
	DB	04H
	DB	04H
	DB	04H
	DB	04H
	DB	04H
	DB	04H
	DB	04H
	DB	041H
	DB	041H
	DB	061H
	DB	019H
	DB	04H
	DB	04H
	DB	04H
	DB	04H
	DB	04H
	DB	04H
	DB	04H
	DB	04H
	DB	024H
	DB	01fH
	DB	00H
	DB	00H
	DB	028H
	DB	04H
	DB	022H
	DB	05dH
	DB	00H
	DB	00H
	DB	00H
	DB	00H
	DB	00H
	DB	00H
	DB	00H
	DB	00H
	DB	00H
	DB	00H
	DB	042H
	DB	04H
	DB	043H
	DB	03H
	DB	00H
	DB	021H
	DB	026H
	DB	04H
	DB	04H
	DB	04H
	DB	04H
	DB	04H
	DB	04H
	DB	04H
	DB	04H
	DB	027H
	DB	027H
	DB	061H
	DB	0a7H
	DB	04bH
	DB	047H
	DB	0eH
	DB	0eH
	DB	0eH
	DB	0eH
	DB	081H
	DB	0eH
	DB	057H
	DB	00H
	DB	01H
	DB	00H
	DB	08fH
	DB	04H
	DB	04H
	DB	056H
	DB	00H
	DB	00H
	DB	00H
	DB	00H
	DB	00H
	DB	00H
	DB	00H
	DB	00H
	DB	00H
	DB	0b4H
	DB	025H
	DB	04H
	DB	080H
	DB	00H
	DB	00H
	DB	00H
	DB	034H
	DB	082H
	DB	0bH
	DB	0eH
	DB	0eH
	DB	0eH
	DB	0eH
	DB	0bH
	DB	085H
	DB	05bH
	DB	05bH
	DB	00H
	DB	00H
	DB	00H
	DB	00H
	DB	00H
	DB	00H
	DB	00H
	DB	00H
	DB	00H
	DB	00H
	DB	00H
	DB	01H
	DB	03H
	DB	00H
	DB	09bH
	DB	039H
	DB	04H
	DB	044H
	DB	00H
	DB	00H
	DB	00H
	DB	00H
	DB	00H
	DB	00H
	DB	00H
	DB	00H
	DB	00H
	DB	051H
	DB	04H
	DB	04H
	DB	093H
	DB	00H
	DB	03H
	DB	03H
	DB	00H
	DB	00H
	DB	00H
	DB	00H
	DB	00H
	DB	00H
	DB	00H
	DB	00H
	DB	00H
	DB	00H
	DB	00H
	DB	03H
	DB	03H
	DB	01H
	DB	01H
	DB	01H
	DB	01H
	DB	01H
	DB	01H
	DB	01H
	DB	01H
	DB	03H
	DB	03H
	DB	03H
	DB	00H
	DB	021H
	DB	027H
	DB	04H
	DB	014H
	DB	01bH
	DB	00H
	DB	00H
	DB	00H
	DB	00H
	DB	00H
	DB	00H
	DB	00H
	DB	01fH
	DB	03fH
	DB	04H
	DB	06aH
	DB	0a9H
	DB	00H
	DB	03H
	DB	03H
	DB	03H
	DB	01H
	DB	01H
	DB	01H
	DB	01H
	DB	01H
	DB	01H
	DB	01H
	DB	01H
	DB	03H
	DB	03H
	DB	03H
	DB	03H
	DB	03H
	DB	03H
	DB	03H
	DB	03H
	DB	03H
	DB	03H
	DB	03H
	DB	03H
	DB	03H
	DB	03H
	DB	03H
	DB	03H
	DB	00H
	DB	054H
	DB	08H
	DB	04H
	DB	011H
	DB	050H
	DB	03H
	DB	00H
	DB	00H
	DB	00H
	DB	00H
	DB	013H
	DB	074H
	DB	04H
	DB	04H
	DB	02eH
	DB	00H
	DB	03H
	DB	03H
	DB	03H
	DB	03H
	DB	03H
	DB	03H
	DB	03H
	DB	03H
	DB	03H
	DB	03H
	DB	03H
	DB	03H
	DB	03H
	DB	03H
	DB	03H
	DB	03H
	DB	03H
	DB	03H
	DB	03H
	DB	03H
	DB	03H
	DB	03H
	DB	03H
	DB	03H
	DB	03H
	DB	03H
	DB	03H
	DB	03H
	DB	01H
	DB	00H
	DB	08dH
	DB	04H
	DB	04H
	DB	014H
	DB	075H
	DB	08cH
	DB	04fH
	DB	04dH
	DB	07dH
	DB	011H
	DB	04H
	DB	04H
	DB	049H
	DB	03H
	DB	00H
	DB	03H
	DB	03H
	DB	03H
	DB	03H
	DB	03H
	DB	03H
	DB	03H
	DB	03H
	DB	03H
	DB	03H
	DB	03H
	DB	03H
	DB	03H
	DB	03H
	DB	03H
	DB	03H
	DB	03H
	DB	03H
	DB	03H
	DB	03H
	DB	03H
	DB	03H
	DB	03H
	DB	03H
	DB	03H
	DB	03H
	DB	00H
	DB	00H
	DB	00H
	DB	00H
	DB	03H
	DB	090H
	DB	03cH
	DB	04H
	DB	04H
	DB	04H
	DB	04H
	DB	04H
	DB	04H
	DB	04H
	DB	0fH
	DB	029H
	DB	037H
	DB	00H
	DB	01H
	DB	00H
	DB	00H
	DB	01H
	DB	03H
	DB	03H
	DB	03H
	DB	03H
	DB	03H
	DB	03H
	DB	03H
	DB	03H
	DB	03H
	DB	03H
	DB	03H
	DB	03H
	DB	03H
	DB	03H
	DB	03H
	DB	03H
	DB	03H
	DB	03H
	DB	03H
	DB	03H
	DB	03H
	DB	01H
	DB	00H
	DB	05aH
	DB	096H
	DB	0acH
	DB	00H
	DB	01H
	DB	00H
	DB	034H
	DB	084H
	DB	06cH
	DB	0aH
	DB	0fH
	DB	03cH
	DB	025H
	DB	019H
	DB	033H
	DB	00H
	DB	00H
	DB	00H
	DB	021H
	DB	051H
	DB	032H
	DB	00H
	DB	01H
	DB	03H
	DB	03H
	DB	03H
	DB	03H
	DB	03H
	DB	03H
	DB	03H
	DB	03H
	DB	03H
	DB	03H
	DB	03H
	DB	03H
	DB	03H
	DB	03H
	DB	03H
	DB	03H
	DB	03H
	DB	03H
	DB	03H
	DB	01H
	DB	00H
	DB	01bH
	DB	023H
	DB	04H
	DB	019H
	DB	037H
	DB	00H
	DB	01H
	DB	00H
	DB	00H
	DB	020H
	DB	01cH
	DB	032H
	DB	013H
	DB	05fH
	DB	01H
	DB	00H
	DB	01H
	DB	01H
	DB	00H
	DB	04aH
	DB	04H
	DB	03bH
	DB	02bH
	DB	00H
	DB	00H
	DB	03H
	DB	03H
	DB	03H
	DB	03H
	DB	03H
	DB	03H
	DB	03H
	DB	03H
	DB	03H
	DB	03H
	DB	03H
	DB	03H
	DB	03H
	DB	03H
	DB	03H
	DB	03H
	DB	03H
	DB	03H
	DB	00H
	DB	030H
	DB	0fH
	DB	04H
	DB	04H
	DB	040H
	DB	0adH
	DB	00H
	DB	03H
	DB	03H
	DB	01H
	DB	00H
	DB	00H
	DB	00H
	DB	00H
	DB	00H
	DB	00H
	DB	03H
	DB	03H
	DB	00H
	DB	02H
	DB	07aH
	DB	04H
	DB	04H
	DB	09H
	DB	02aH
	DB	00H
	DB	00H
	DB	03H
	DB	03H
	DB	03H
	DB	03H
	DB	03H
	DB	03H
	DB	03H
	DB	03H
	DB	03H
	DB	07H
	DB	07H
	DB	07H
	DB	07H
	DB	07H
	DB	07H
	DB	038H
	DB	00H
	DB	098H
	DB	011H
	DB	04H
	DB	04H
	DB	010H
	DB	04fH
	DB	00H
	DB	038H
	DB	07H
	DB	07H
	DB	07H
	DB	07H
	DB	00H
	DB	00H
	DB	00H
	DB	038H
	DB	07H
	DB	07H
	DB	07H
	DB	07H
	DB	00H
	DB	09aH
	DB	017H
	DB	04H
	DB	04H
	DB	09H
	DB	02dH
	DB	00H
	DB	0b6H
	DB	07H
	DB	07H
	DB	07H
	DB	07H
	DB	07H
	DB	07H
	DB	07H
	DB	07H
	DB	02H
	DB	02H
	DB	02H
	DB	02H
	DB	02H
	DB	03H
	DB	00H
	DB	030H
	DB	016H
	DB	04H
	DB	04H
	DB	09H
	DB	02dH
	DB	00H
	DB	03H
	DB	02H
	DB	02H
	DB	02H
	DB	02H
	DB	00H
	DB	0a3H
	DB	089H
	DB	0a0H
	DB	00H
	DB	02H
	DB	02H
	DB	02H
	DB	02H
	DB	02H
	DB	00H
	DB	012H
	DB	022H
	DB	04H
	DB	04H
	DB	09H
	DB	01aH
	DB	00H
	DB	00H
	DB	02H
	DB	02H
	DB	02H
	DB	02H
	DB	02H
	DB	02H
	DB	02H
	DB	02H
	DB	02H
	DB	02H
	DB	02H
	DB	02H
	DB	00H
	DB	052H
	DB	0fH
	DB	04H
	DB	04H
	DB	015H
	DB	02eH
	DB	00H
	DB	01H
	DB	02H
	DB	02H
	DB	02H
	DB	02H
	DB	00H
	DB	020H
	DB	040H
	DB	04H
	DB	024H
	DB	01dH
	DB	00H
	DB	02H
	DB	02H
	DB	02H
	DB	02H
	DB	03H
	DB	00H
	DB	012H
	DB	017H
	DB	04H
	DB	04H
	DB	010H
	DB	02aH
	DB	00H
	DB	03H
	DB	02H
	DB	02H
	DB	02H
	DB	02H
	DB	02H
	DB	02H
	DB	02H
	DB	02H
	DB	02H
	DB	02H
	DB	00H
	DB	05fH
	DB	03fH
	DB	04H
	DB	04H
	DB	09H
	DB	04eH
	DB	00H
	DB	03H
	DB	02H
	DB	02H
	DB	02H
	DB	02H
	DB	02H
	DB	00H
	DB	01dH
	DB	017H
	DB	04H
	DB	015H
	DB	058H
	DB	00H
	DB	02H
	DB	02H
	DB	02H
	DB	02H
	DB	02H
	DB	0b5H
	DB	00H
	DB	012H
	DB	018H
	DB	04H
	DB	04H
	DB	067H
	DB	0dH
	DB	00H
	DB	02H
	DB	02H
	DB	02H
	DB	02H
	DB	02H
	DB	02H
	DB	02H
	DB	02H
	DB	02H
	DB	02H
	DB	00H
	DB	0b0H
	DB	077H
	DB	04H
	DB	015H
	DB	04eH
	DB	00H
	DB	01H
	DB	02H
	DB	02H
	DB	02H
	DB	02H
	DB	02H
	DB	02H
	DB	00H
	DB	0dH
	DB	0aH
	DB	04H
	DB	08H
	DB	0cH
	DB	00H
	DB	02H
	DB	02H
	DB	02H
	DB	02H
	DB	02H
	DB	02H
	DB	03H
	DB	00H
	DB	054H
	DB	018H
	DB	04H
	DB	03eH
	DB	0a8H
	DB	00H
	DB	02H
	DB	02H
	DB	02H
	DB	02H
	DB	02H
	DB	02H
	DB	02H
	DB	02H
	DB	02H
	DB	02H
	DB	02H
	DB	00H
	DB	05dH
	DB	029H
	DB	012H
	DB	00H
	DB	01H
	DB	02H
	DB	02H
	DB	02H
	DB	02H
	DB	02H
	DB	02H
	DB	02H
	DB	00H
	DB	0dH
	DB	0aH
	DB	04H
	DB	08H
	DB	0cH
	DB	00H
	DB	02H
	DB	02H
	DB	02H
	DB	02H
	DB	02H
	DB	02H
	DB	02H
	DB	03H
	DB	00H
	DB	033H
	DB	04bH
	DB	0a1H
	DB	00H
	DB	02H
	DB	02H
	DB	02H
	DB	02H
	DB	02H
	DB	02H
	DB	02H
	DB	02H
	DB	02H
	DB	02H
	DB	02H
	DB	02H
	DB	02H
	DB	00H
	DB	00H
	DB	00H
	DB	03H
	DB	02H
	DB	02H
	DB	02H
	DB	02H
	DB	02H
	DB	02H
	DB	02H
	DB	02H
	DB	00H
	DB	0dH
	DB	0aH
	DB	04H
	DB	08H
	DB	0cH
	DB	00H
	DB	02H
	DB	02H
	DB	02H
	DB	02H
	DB	02H
	DB	02H
	DB	02H
	DB	02H
	DB	03H
	DB	00H
	DB	00H
	DB	00H
	DB	03H
	DB	02H
	DB	02H
	DB	02H
	DB	02H
	DB	02H
	DB	02H
	DB	02H
	DB	02H
	DB	02H
	DB	02H
	DB	02H
	DB	02H
	DB	02H
	DB	02H
	DB	03H
	DB	07H
	DB	02H
	DB	02H
	DB	02H
	DB	02H
	DB	02H
	DB	02H
	DB	02H
	DB	02H
	DB	02H
	DB	00H
	DB	0dH
	DB	0aH
	DB	04H
	DB	08H
	DB	0cH
	DB	00H
	DB	02H
	DB	02H
	DB	02H
	DB	02H
	DB	02H
	DB	02H
	DB	02H
	DB	02H
	DB	02H
	DB	02H
	DB	03H
	DB	02H
	DB	02H
	DB	02H
	DB	02H
	DB	02H
	DB	02H
	DB	02H
	DB	02H
	DB	02H
	DB	06H
	DB	06H
	DB	06H
	DB	06H
	DB	06H
	DB	06H
	DB	06H
	DB	06H
	DB	06H
	DB	06H
	DB	06H
	DB	06H
	DB	06H
	DB	06H
	DB	06H
	DB	06H
	DB	06H
	DB	06H
	DB	00H
	DB	0dH
	DB	0aH
	DB	04H
	DB	08H
	DB	0cH
	DB	00H
	DB	06H
	DB	06H
	DB	06H
	DB	06H
	DB	06H
	DB	06H
	DB	06H
	DB	06H
	DB	06H
	DB	06H
	DB	06H
	DB	06H
	DB	06H
	DB	06H
	DB	06H
	DB	06H
	DB	06H
	DB	06H
	DB	06H
	DB	06H
	DB	06H
	DB	06H
	DB	06H
	DB	06H
	DB	06H
	DB	06H
	DB	06H
	DB	06H
	DB	06H
	DB	06H
	DB	06H
	DB	06H
	DB	06H
	DB	06H
	DB	06H
	DB	06H
	DB	06H
	DB	06H
	DB	00H
	DB	01dH
	DB	016H
	DB	04H
	DB	09H
	DB	09fH
	DB	00H
	DB	06H
	DB	06H
	DB	06H
	DB	06H
	DB	06H
	DB	06H
	DB	06H
	DB	06H
	DB	06H
	DB	06H
	DB	06H
	DB	06H
	DB	06H
	DB	06H
	DB	06H
	DB	06H
	DB	06H
	DB	06H
	DB	06H
	DB	06H
	DB	05H
	DB	05H
	DB	05H
	DB	05H
	DB	05H
	DB	05H
	DB	05H
	DB	05H
	DB	05H
	DB	05H
	DB	05H
	DB	05H
	DB	05H
	DB	05H
	DB	05H
	DB	05H
	DB	05H
	DB	05H
	DB	00H
	DB	0b2H
	DB	042H
	DB	04H
	DB	071H
	DB	035H
	DB	00H
	DB	05H
	DB	05H
	DB	05H
	DB	05H
	DB	05H
	DB	05H
	DB	05H
	DB	05H
	DB	05H
	DB	05H
	DB	05H
	DB	05H
	DB	05H
	DB	05H
	DB	05H
	DB	05H
	DB	05H
	DB	05H
	DB	05H
	DB	05H
	DB	05H
	DB	05H
	DB	05H
	DB	05H
	DB	05H
	DB	05H
	DB	05H
	DB	05H
	DB	05H
	DB	05H
	DB	05H
	DB	05H
	DB	05H
	DB	05H
	DB	05H
	DB	05H
	DB	05H
	DB	05H
	DB	05H
	DB	00H
	DB	0aaH
	DB	052H
	DB	0a6H
	DB	00H
	DB	05H
	DB	05H
	DB	05H
	DB	05H
	DB	05H
	DB	05H
	DB	05H
	DB	05H
	DB	05H
	DB	05H
	DB	05H
	DB	05H
	DB	05H
	DB	05H
	DB	05H
	DB	05H
	DB	05H
	DB	05H
	DB	05H
	DB	05H
	DB	05H
	DB	05H
	DB	05H
	DB	05H
	DB	05H
	DB	05H
	DB	05H
	DB	05H
	DB	05H
	DB	05H
	DB	05H
	DB	05H
	DB	05H
	DB	05H
	DB	05H
	DB	05H
	DB	05H
	DB	05H
	DB	05H
	DB	05H
	DB	05H
	DB	05H
	DB	03H
	DB	00H
	DB	00H
	DB	05H
	DB	05H
	DB	05H
	DB	05H
	DB	05H
	DB	05H
	DB	05H
	DB	05H
	DB	05H
	DB	05H
	DB	05H
	DB	05H
	DB	05H
	DB	05H
	DB	05H
	DB	05H
	DB	05H
	DB	05H
	DB	05H
	DB	05H
	DB	05H
	ORG $+3
_bmBrightIcon DW 02dH
	DW	02dH
	DW	02dH
	DW	08H
	DD	FLAT:_acBrightIcon
	DD	FLAT:_PalBrightIcon
	ORG $+4
CONST	ENDS
END
