; Listing generated by Microsoft (R) Optimizing Compiler Version 16.00.40219.01 

	TITLE	C:\DUII\Simulation\GUI\Widget\BUTTON.c
	.686P
	.XMM
	include listing.inc
	.model	flat

INCLUDELIB LIBCMT
INCLUDELIB OLDNAMES

PUBLIC	_BUTTON__DefaultProps
PUBLIC	_BUTTON__pSkinDefault
EXTRN	_BUTTON__SkinClassic:BYTE
EXTRN	_GUI_Font13_1:BYTE
_DATA	SEGMENT
_BUTTON__DefaultProps DD 0aaaaaaH
	DD	0ffffffH
	DD	0d3d3d3H
	DD	0ffffffH
	DD	00H
	DD	0404040H
	DD	0808080H
	DD	00H
	DD	FLAT:_GUI_Font13_1
	DD	00H
	DW	0eH
	ORG $+2
_BUTTON__pSkinDefault DD FLAT:_BUTTON__SkinClassic
__pfOnTouch DD	FLAT:__OnTouchReactOnLevel
__pfOnPidStateChange DD FLAT:__OnPidStateChange
$SG12742 DB	'BUTTON.c: Wrong handle type or Object not init''ed', 00H
	ORG $+2
$SG12797 DB	'BUTTON_Create failed', 00H
_DATA	ENDS
PUBLIC	_BUTTON_LockH
EXTRN	_GUI_ALLOC_UnlockH:PROC
EXTRN	__RTC_CheckEsp:PROC
EXTRN	__RTC_Shutdown:PROC
EXTRN	__RTC_InitBase:PROC
;	COMDAT rtc$TMZ
; File c:\duii\simulation\gui\widget\button.c
rtc$TMZ	SEGMENT
__RTC_Shutdown.rtc$TMZ DD FLAT:__RTC_Shutdown
rtc$TMZ	ENDS
;	COMDAT rtc$IMZ
rtc$IMZ	SEGMENT
__RTC_InitBase.rtc$IMZ DD FLAT:__RTC_InitBase
; Function compile flags: /Odtp /RTCsu /ZI
rtc$IMZ	ENDS
;	COMDAT __OnTouchReactOnLevel
_TEXT	SEGMENT
_State$ = -32						; size = 2
_pObj$ = -20						; size = 4
_pState$ = -8						; size = 4
_hObj$ = 8						; size = 4
_pMsg$ = 12						; size = 4
__OnTouchReactOnLevel PROC				; COMDAT
; Line 226
	push	ebp
	mov	ebp, esp
	sub	esp, 228				; 000000e4H
	push	ebx
	push	esi
	push	edi
	lea	edi, DWORD PTR [ebp-228]
	mov	ecx, 57					; 00000039H
	mov	eax, -858993460				; ccccccccH
	rep stosd
; Line 231
	mov	eax, DWORD PTR _hObj$[ebp]
	push	eax
	call	_BUTTON_LockH
	add	esp, 4
	mov	DWORD PTR _pObj$[ebp], eax
; Line 232
	mov	eax, DWORD PTR _pObj$[ebp]
	mov	cx, WORD PTR [eax+54]
	mov	WORD PTR _State$[ebp], cx
; Line 233
	call	_GUI_ALLOC_UnlockH
	mov	DWORD PTR _pObj$[ebp], 0
; Line 234
	mov	eax, DWORD PTR _pMsg$[ebp]
	mov	ecx, DWORD PTR [eax+12]
	mov	DWORD PTR _pState$[ebp], ecx
; Line 235
	mov	eax, DWORD PTR _pMsg$[ebp]
	cmp	DWORD PTR [eax+12], 0
	jne	SHORT $LN3@OnTouchRea
; Line 236
	push	3
	mov	eax, DWORD PTR _hObj$[ebp]
	push	eax
	call	__OnButtonReleased
	add	esp, 8
	jmp	SHORT $LN4@OnTouchRea
$LN3@OnTouchRea:
; Line 237
	mov	eax, DWORD PTR _pState$[ebp]
	movzx	ecx, BYTE PTR [eax+8]
	test	ecx, ecx
	jne	SHORT $LN4@OnTouchRea
	movzx	eax, WORD PTR _State$[ebp]
	and	eax, 256				; 00000100H
	je	SHORT $LN4@OnTouchRea
; Line 238
	push	3
	mov	eax, DWORD PTR _hObj$[ebp]
	push	eax
	call	__OnButtonReleased
	add	esp, 8
$LN4@OnTouchRea:
; Line 240
	pop	edi
	pop	esi
	pop	ebx
	add	esp, 228				; 000000e4H
	cmp	ebp, esp
	call	__RTC_CheckEsp
	mov	esp, ebp
	pop	ebp
	ret	0
__OnTouchReactOnLevel ENDP
_TEXT	ENDS
EXTRN	_WM_NotifyParent:PROC
EXTRN	_GUI_StoreKey:PROC
EXTRN	_WIDGET_AndState:PROC
; Function compile flags: /Odtp /RTCsu /ZI
;	COMDAT __OnButtonReleased
_TEXT	SEGMENT
_Id$ = -32						; size = 2
_Status$ = -20						; size = 2
_pObj$ = -8						; size = 4
_hObj$ = 8						; size = 4
_Notification$ = 12					; size = 4
__OnButtonReleased PROC					; COMDAT
; Line 176
	push	ebp
	mov	ebp, esp
	sub	esp, 228				; 000000e4H
	push	ebx
	push	esi
	push	edi
	lea	edi, DWORD PTR [ebp-228]
	mov	ecx, 57					; 00000039H
	mov	eax, -858993460				; ccccccccH
	rep stosd
; Line 179
	push	256					; 00000100H
	mov	eax, DWORD PTR _hObj$[ebp]
	push	eax
	call	_WIDGET_AndState
	add	esp, 8
; Line 180
	mov	eax, DWORD PTR _hObj$[ebp]
	push	eax
	call	_BUTTON_LockH
	add	esp, 4
	mov	DWORD PTR _pObj$[ebp], eax
; Line 181
	mov	eax, DWORD PTR _pObj$[ebp]
	mov	cx, WORD PTR [eax+40]
	mov	WORD PTR _Status$[ebp], cx
; Line 182
	mov	eax, DWORD PTR _pObj$[ebp]
	mov	cx, WORD PTR [eax+52]
	mov	WORD PTR _Id$[ebp], cx
; Line 183
	call	_GUI_ALLOC_UnlockH
	mov	DWORD PTR _pObj$[ebp], 0
; Line 184
	cmp	DWORD PTR _Notification$[ebp], 2
	jne	SHORT $LN2@OnButtonRe
; Line 186
	movzx	eax, WORD PTR _Id$[ebp]
	push	eax
	call	_GUI_StoreKey
	add	esp, 4
$LN2@OnButtonRe:
; Line 188
	movzx	eax, WORD PTR _Status$[ebp]
	and	eax, 2
	je	SHORT $LN3@OnButtonRe
; Line 189
	mov	eax, DWORD PTR _Notification$[ebp]
	push	eax
	mov	ecx, DWORD PTR _hObj$[ebp]
	push	ecx
	call	_WM_NotifyParent
	add	esp, 8
$LN3@OnButtonRe:
; Line 191
	pop	edi
	pop	esi
	pop	ebx
	add	esp, 228				; 000000e4H
	cmp	ebp, esp
	call	__RTC_CheckEsp
	mov	esp, ebp
	pop	ebp
	ret	0
__OnButtonReleased ENDP
; Function compile flags: /Odtp /RTCsu /ZI
_TEXT	ENDS
;	COMDAT __OnPidStateChange
_TEXT	SEGMENT
_State$ = -32						; size = 2
_pObj$ = -20						; size = 4
_pState$ = -8						; size = 4
_hObj$ = 8						; size = 4
_pMsg$ = 12						; size = 4
__OnPidStateChange PROC					; COMDAT
; Line 246
	push	ebp
	mov	ebp, esp
	sub	esp, 228				; 000000e4H
	push	ebx
	push	esi
	push	edi
	lea	edi, DWORD PTR [ebp-228]
	mov	ecx, 57					; 00000039H
	mov	eax, -858993460				; ccccccccH
	rep stosd
; Line 250
	mov	eax, DWORD PTR _hObj$[ebp]
	push	eax
	call	_BUTTON_LockH
	add	esp, 4
	mov	DWORD PTR _pObj$[ebp], eax
; Line 251
	mov	eax, DWORD PTR _pObj$[ebp]
	mov	cx, WORD PTR [eax+54]
	mov	WORD PTR _State$[ebp], cx
; Line 252
	call	_GUI_ALLOC_UnlockH
	mov	DWORD PTR _pObj$[ebp], 0
; Line 253
	mov	eax, DWORD PTR _pMsg$[ebp]
	mov	ecx, DWORD PTR [eax+12]
	mov	DWORD PTR _pState$[ebp], ecx
; Line 254
	mov	eax, DWORD PTR _pState$[ebp]
	movzx	ecx, BYTE PTR [eax+9]
	test	ecx, ecx
	jne	SHORT $LN5@OnPidState
	mov	eax, DWORD PTR _pState$[ebp]
	movzx	ecx, BYTE PTR [eax+8]
	test	ecx, ecx
	je	SHORT $LN5@OnPidState
; Line 255
	movzx	eax, WORD PTR _State$[ebp]
	and	eax, 256				; 00000100H
	jne	SHORT $LN4@OnPidState
; Line 256
	mov	eax, DWORD PTR _hObj$[ebp]
	push	eax
	call	__OnButtonPressed
	add	esp, 4
$LN4@OnPidState:
; Line 257
	jmp	SHORT $LN6@OnPidState
$LN5@OnPidState:
; Line 258
	mov	eax, DWORD PTR _pState$[ebp]
	movzx	ecx, BYTE PTR [eax+9]
	cmp	ecx, 1
	jne	SHORT $LN6@OnPidState
	mov	eax, DWORD PTR _pState$[ebp]
	movzx	ecx, BYTE PTR [eax+8]
	test	ecx, ecx
	jne	SHORT $LN6@OnPidState
; Line 259
	movzx	eax, WORD PTR _State$[ebp]
	and	eax, 256				; 00000100H
	je	SHORT $LN6@OnPidState
; Line 260
	push	2
	mov	eax, DWORD PTR _hObj$[ebp]
	push	eax
	call	__OnButtonReleased
	add	esp, 8
$LN6@OnPidState:
; Line 263
	pop	edi
	pop	esi
	pop	ebx
	add	esp, 228				; 000000e4H
	cmp	ebp, esp
	call	__RTC_CheckEsp
	mov	esp, ebp
	pop	ebp
	ret	0
__OnPidStateChange ENDP
_TEXT	ENDS
EXTRN	_WIDGET_OrState:PROC
; Function compile flags: /Odtp /RTCsu /ZI
;	COMDAT __OnButtonPressed
_TEXT	SEGMENT
_Status$ = -20						; size = 2
_pObj$ = -8						; size = 4
_hObj$ = 8						; size = 4
__OnButtonPressed PROC					; COMDAT
; Line 160
	push	ebp
	mov	ebp, esp
	sub	esp, 216				; 000000d8H
	push	ebx
	push	esi
	push	edi
	lea	edi, DWORD PTR [ebp-216]
	mov	ecx, 54					; 00000036H
	mov	eax, -858993460				; ccccccccH
	rep stosd
; Line 163
	push	256					; 00000100H
	mov	eax, DWORD PTR _hObj$[ebp]
	push	eax
	call	_WIDGET_OrState
	add	esp, 8
; Line 164
	mov	eax, DWORD PTR _hObj$[ebp]
	push	eax
	call	_BUTTON_LockH
	add	esp, 4
	mov	DWORD PTR _pObj$[ebp], eax
; Line 165
	mov	eax, DWORD PTR _pObj$[ebp]
	mov	cx, WORD PTR [eax+40]
	mov	WORD PTR _Status$[ebp], cx
; Line 166
	call	_GUI_ALLOC_UnlockH
	mov	DWORD PTR _pObj$[ebp], 0
; Line 167
	movzx	eax, WORD PTR _Status$[ebp]
	and	eax, 2
	je	SHORT $LN2@OnButtonPr
; Line 168
	push	1
	mov	eax, DWORD PTR _hObj$[ebp]
	push	eax
	call	_WM_NotifyParent
	add	esp, 8
$LN2@OnButtonPr:
; Line 170
	pop	edi
	pop	esi
	pop	ebx
	add	esp, 216				; 000000d8H
	cmp	ebp, esp
	call	__RTC_CheckEsp
	mov	esp, ebp
	pop	ebp
	ret	0
__OnButtonPressed ENDP
_TEXT	ENDS
PUBLIC	_BUTTON_SetReactOnLevel
; Function compile flags: /Odtp /RTCsu /ZI
;	COMDAT _BUTTON_SetReactOnLevel
_TEXT	SEGMENT
_BUTTON_SetReactOnLevel PROC				; COMDAT
; Line 281
	push	ebp
	mov	ebp, esp
	sub	esp, 192				; 000000c0H
	push	ebx
	push	esi
	push	edi
	lea	edi, DWORD PTR [ebp-192]
	mov	ecx, 48					; 00000030H
	mov	eax, -858993460				; ccccccccH
	rep stosd
; Line 282
	mov	DWORD PTR __pfOnTouch, OFFSET __OnTouchReactOnLevel
; Line 283
	mov	DWORD PTR __pfOnPidStateChange, OFFSET __OnPidStateChange
; Line 284
	pop	edi
	pop	esi
	pop	ebx
	mov	esp, ebp
	pop	ebp
	ret	0
_BUTTON_SetReactOnLevel ENDP
_TEXT	ENDS
EXTRN	_GUI_ErrorOut:PROC
EXTRN	_GUI_ALLOC_LockH:PROC
; Function compile flags: /Odtp /RTCsu /ZI
;	COMDAT _BUTTON_LockH
_TEXT	SEGMENT
_p$ = -8						; size = 4
_h$ = 8							; size = 4
_BUTTON_LockH PROC					; COMDAT
; Line 297
	push	ebp
	mov	ebp, esp
	sub	esp, 204				; 000000ccH
	push	ebx
	push	esi
	push	edi
	lea	edi, DWORD PTR [ebp-204]
	mov	ecx, 51					; 00000033H
	mov	eax, -858993460				; ccccccccH
	rep stosd
; Line 298
	mov	eax, DWORD PTR _h$[ebp]
	push	eax
	call	_GUI_ALLOC_LockH
	add	esp, 4
	mov	DWORD PTR _p$[ebp], eax
; Line 299
	cmp	DWORD PTR _p$[ebp], 0
	je	SHORT $LN2@BUTTON_Loc
; Line 300
	mov	eax, DWORD PTR _p$[ebp]
	cmp	DWORD PTR [eax+120], 1112888404		; 42555454H
	je	SHORT $LN2@BUTTON_Loc
; Line 301
	push	OFFSET $SG12742
	call	_GUI_ErrorOut
	add	esp, 4
; Line 302
	xor	eax, eax
	jmp	SHORT $LN3@BUTTON_Loc
$LN2@BUTTON_Loc:
; Line 305
	mov	eax, DWORD PTR _p$[ebp]
$LN3@BUTTON_Loc:
; Line 306
	pop	edi
	pop	esi
	pop	ebx
	add	esp, 204				; 000000ccH
	cmp	ebp, esp
	call	__RTC_CheckEsp
	mov	esp, ebp
	pop	ebp
	ret	0
_BUTTON_LockH ENDP
_TEXT	ENDS
PUBLIC	_BUTTON_Callback
EXTRN	_WM_DefaultProc:PROC
EXTRN	_WIDGET_HandleActive:PROC
; Function compile flags: /Odtp /RTCsu /ZI
;	COMDAT _BUTTON_Callback
_TEXT	SEGMENT
tv81 = -232						; size = 4
tv69 = -232						; size = 4
_hObj$ = -32						; size = 4
_Key$ = -20						; size = 4
_PressedCnt$ = -8					; size = 4
_pMsg$ = 8						; size = 4
_BUTTON_Callback PROC					; COMDAT
; Line 319
	push	ebp
	mov	ebp, esp
	sub	esp, 232				; 000000e8H
	push	ebx
	push	esi
	push	edi
	lea	edi, DWORD PTR [ebp-232]
	mov	ecx, 58					; 0000003aH
	mov	eax, -858993460				; ccccccccH
	rep stosd
; Line 323
	mov	eax, DWORD PTR _pMsg$[ebp]
	mov	ecx, DWORD PTR [eax+4]
	mov	DWORD PTR _hObj$[ebp], ecx
; Line 325
	mov	eax, DWORD PTR _pMsg$[ebp]
	push	eax
	mov	ecx, DWORD PTR _hObj$[ebp]
	push	ecx
	call	_WIDGET_HandleActive
	add	esp, 8
	test	eax, eax
	jne	SHORT $LN16@BUTTON_Cal
; Line 326
	jmp	$LN17@BUTTON_Cal
$LN16@BUTTON_Cal:
; Line 328
	mov	eax, DWORD PTR _pMsg$[ebp]
	mov	ecx, DWORD PTR [eax]
	mov	DWORD PTR tv69[ebp], ecx
	mov	edx, DWORD PTR tv69[ebp]
	sub	edx, 11					; 0000000bH
	mov	DWORD PTR tv69[ebp], edx
	cmp	DWORD PTR tv69[ebp], 6
	ja	$LN14@BUTTON_Cal
	mov	eax, DWORD PTR tv69[ebp]
	jmp	DWORD PTR $LN19@BUTTON_Cal[eax*4]
$LN13@BUTTON_Cal:
; Line 330
	cmp	DWORD PTR __pfOnPidStateChange, 0
	je	SHORT $LN12@BUTTON_Cal
; Line 331
	mov	esi, esp
	mov	eax, DWORD PTR _pMsg$[ebp]
	push	eax
	mov	ecx, DWORD PTR _hObj$[ebp]
	push	ecx
	call	DWORD PTR __pfOnPidStateChange
	add	esp, 8
	cmp	esi, esp
	call	__RTC_CheckEsp
$LN12@BUTTON_Cal:
; Line 333
	jmp	$LN17@BUTTON_Cal
$LN11@BUTTON_Cal:
; Line 335
	mov	esi, esp
	mov	eax, DWORD PTR _pMsg$[ebp]
	push	eax
	mov	ecx, DWORD PTR _hObj$[ebp]
	push	ecx
	call	DWORD PTR __pfOnTouch
	add	esp, 8
	cmp	esi, esp
	call	__RTC_CheckEsp
; Line 336
	jmp	$LN17@BUTTON_Cal
$LN10@BUTTON_Cal:
; Line 339
	mov	eax, DWORD PTR _hObj$[ebp]
	push	eax
	call	__Paint
	add	esp, 4
; Line 340
	jmp	$LN17@BUTTON_Cal
$LN9@BUTTON_Cal:
; Line 343
	mov	eax, DWORD PTR _hObj$[ebp]
	push	eax
	call	__Delete
	add	esp, 4
; Line 344
	jmp	SHORT $LN14@BUTTON_Cal
$LN8@BUTTON_Cal:
; Line 346
	mov	eax, DWORD PTR _pMsg$[ebp]
	mov	ecx, DWORD PTR [eax+12]
	mov	edx, DWORD PTR [ecx+4]
	mov	DWORD PTR _PressedCnt$[ebp], edx
; Line 347
	mov	eax, DWORD PTR _pMsg$[ebp]
	mov	ecx, DWORD PTR [eax+12]
	mov	edx, DWORD PTR [ecx]
	mov	DWORD PTR _Key$[ebp], edx
; Line 348
	mov	eax, DWORD PTR _Key$[ebp]
	mov	DWORD PTR tv81[ebp], eax
	cmp	DWORD PTR tv81[ebp], 13			; 0000000dH
	je	SHORT $LN5@BUTTON_Cal
	cmp	DWORD PTR tv81[ebp], 32			; 00000020H
	je	SHORT $LN3@BUTTON_Cal
	jmp	SHORT $LN14@BUTTON_Cal
$LN5@BUTTON_Cal:
; Line 350
	cmp	DWORD PTR _PressedCnt$[ebp], 0
	jle	SHORT $LN4@BUTTON_Cal
; Line 351
	mov	eax, DWORD PTR _hObj$[ebp]
	push	eax
	call	__OnButtonPressed
	add	esp, 4
; Line 352
	push	2
	mov	eax, DWORD PTR _hObj$[ebp]
	push	eax
	call	__OnButtonReleased
	add	esp, 8
; Line 353
	jmp	SHORT $LN17@BUTTON_Cal
$LN4@BUTTON_Cal:
; Line 355
	jmp	SHORT $LN14@BUTTON_Cal
$LN3@BUTTON_Cal:
; Line 357
	cmp	DWORD PTR _PressedCnt$[ebp], 0
	jle	SHORT $LN2@BUTTON_Cal
; Line 358
	mov	eax, DWORD PTR _hObj$[ebp]
	push	eax
	call	__OnButtonPressed
	add	esp, 4
; Line 359
	jmp	SHORT $LN1@BUTTON_Cal
$LN2@BUTTON_Cal:
; Line 360
	push	2
	mov	eax, DWORD PTR _hObj$[ebp]
	push	eax
	call	__OnButtonReleased
	add	esp, 8
$LN1@BUTTON_Cal:
; Line 362
	jmp	SHORT $LN17@BUTTON_Cal
$LN14@BUTTON_Cal:
; Line 365
	mov	eax, DWORD PTR _pMsg$[ebp]
	push	eax
	call	_WM_DefaultProc
	add	esp, 4
$LN17@BUTTON_Cal:
; Line 366
	pop	edi
	pop	esi
	pop	ebx
	add	esp, 232				; 000000e8H
	cmp	ebp, esp
	call	__RTC_CheckEsp
	mov	esp, ebp
	pop	ebp
	ret	0
	npad	2
$LN19@BUTTON_Cal:
	DD	$LN9@BUTTON_Cal
	DD	$LN11@BUTTON_Cal
	DD	$LN14@BUTTON_Cal
	DD	$LN8@BUTTON_Cal
	DD	$LN10@BUTTON_Cal
	DD	$LN14@BUTTON_Cal
	DD	$LN13@BUTTON_Cal
_BUTTON_Callback ENDP
; Function compile flags: /Odtp /RTCsu /ZI
_TEXT	ENDS
;	COMDAT __Paint
_TEXT	SEGMENT
_pfPaint$ = -20						; size = 4
_pObj$ = -8						; size = 4
_hObj$ = 8						; size = 4
__Paint	PROC						; COMDAT
; Line 130
	push	ebp
	mov	ebp, esp
	sub	esp, 216				; 000000d8H
	push	ebx
	push	esi
	push	edi
	lea	edi, DWORD PTR [ebp-216]
	mov	ecx, 54					; 00000036H
	mov	eax, -858993460				; ccccccccH
	rep stosd
; Line 134
	mov	eax, DWORD PTR _hObj$[ebp]
	push	eax
	call	_BUTTON_LockH
	add	esp, 4
	mov	DWORD PTR _pObj$[ebp], eax
; Line 135
	mov	eax, DWORD PTR _pObj$[ebp]
	mov	ecx, DWORD PTR [eax+100]
	mov	edx, DWORD PTR [ecx]
	mov	DWORD PTR _pfPaint$[ebp], edx
; Line 136
	call	_GUI_ALLOC_UnlockH
	mov	DWORD PTR _pObj$[ebp], 0
; Line 137
	cmp	DWORD PTR _pfPaint$[ebp], 0
	je	SHORT $LN2@Paint
; Line 138
	mov	esi, esp
	mov	eax, DWORD PTR _hObj$[ebp]
	push	eax
	call	DWORD PTR _pfPaint$[ebp]
	add	esp, 4
	cmp	esi, esp
	call	__RTC_CheckEsp
$LN2@Paint:
; Line 140
	pop	edi
	pop	esi
	pop	ebx
	add	esp, 216				; 000000d8H
	cmp	ebp, esp
	call	__RTC_CheckEsp
	mov	esp, ebp
	pop	ebp
	ret	0
__Paint	ENDP
_TEXT	ENDS
EXTRN	_GUI_ALLOC_FreePtrArray:PROC
EXTRN	_GUI_ALLOC_FreePtr:PROC
; Function compile flags: /Odtp /RTCsu /ZI
;	COMDAT __Delete
_TEXT	SEGMENT
_pObj$ = -8						; size = 4
_hObj$ = 8						; size = 4
__Delete PROC						; COMDAT
; Line 148
	push	ebp
	mov	ebp, esp
	sub	esp, 204				; 000000ccH
	push	ebx
	push	esi
	push	edi
	lea	edi, DWORD PTR [ebp-204]
	mov	ecx, 51					; 00000033H
	mov	eax, -858993460				; ccccccccH
	rep stosd
; Line 150
	mov	eax, DWORD PTR _hObj$[ebp]
	push	eax
	call	_BUTTON_LockH
	add	esp, 4
	mov	DWORD PTR _pObj$[ebp], eax
; Line 151
	mov	eax, DWORD PTR _pObj$[ebp]
	add	eax, 104				; 00000068H
	push	eax
	call	_GUI_ALLOC_FreePtr
	add	esp, 4
; Line 152
	push	3
	mov	eax, DWORD PTR _pObj$[ebp]
	add	eax, 108				; 0000006cH
	push	eax
	call	_GUI_ALLOC_FreePtrArray
	add	esp, 8
; Line 153
	call	_GUI_ALLOC_UnlockH
	mov	DWORD PTR _pObj$[ebp], 0
; Line 154
	pop	edi
	pop	esi
	pop	ebx
	add	esp, 204				; 000000ccH
	cmp	ebp, esp
	call	__RTC_CheckEsp
	mov	esp, ebp
	pop	ebp
	ret	0
__Delete ENDP
_TEXT	ENDS
PUBLIC	_BUTTON_CreateEx
EXTRN	_WIDGET__Init:PROC
EXTRN	_WM_CreateWindowAsChild:PROC
; Function compile flags: /Odtp /RTCsu /ZI
;	COMDAT _BUTTON_CreateEx
_TEXT	SEGMENT
_pObj$ = -20						; size = 4
_hObj$ = -8						; size = 4
_x0$ = 8						; size = 4
_y0$ = 12						; size = 4
_xsize$ = 16						; size = 4
_ysize$ = 20						; size = 4
_hParent$ = 24						; size = 4
_WinFlags$ = 28						; size = 4
_ExFlags$ = 32						; size = 4
_Id$ = 36						; size = 4
_BUTTON_CreateEx PROC					; COMDAT
; Line 378
	push	ebp
	mov	ebp, esp
	sub	esp, 216				; 000000d8H
	push	ebx
	push	esi
	push	edi
	lea	edi, DWORD PTR [ebp-216]
	mov	ecx, 54					; 00000036H
	mov	eax, -858993460				; ccccccccH
	rep stosd
; Line 382
	mov	eax, DWORD PTR _ExFlags$[ebp]
	mov	DWORD PTR _ExFlags$[ebp], eax
; Line 386
	push	76					; 0000004cH
	push	OFFSET _BUTTON_Callback
	mov	eax, DWORD PTR _WinFlags$[ebp]
	push	eax
	mov	ecx, DWORD PTR _hParent$[ebp]
	push	ecx
	mov	edx, DWORD PTR _ysize$[ebp]
	push	edx
	mov	eax, DWORD PTR _xsize$[ebp]
	push	eax
	mov	ecx, DWORD PTR _y0$[ebp]
	push	ecx
	mov	edx, DWORD PTR _x0$[ebp]
	push	edx
	call	_WM_CreateWindowAsChild
	add	esp, 32					; 00000020H
	mov	DWORD PTR _hObj$[ebp], eax
; Line 387
	cmp	DWORD PTR _hObj$[ebp], 0
	je	SHORT $LN3@BUTTON_Cre
; Line 388
	mov	eax, DWORD PTR _hObj$[ebp]
	push	eax
	call	_GUI_ALLOC_LockH
	add	esp, 4
	mov	DWORD PTR _pObj$[ebp], eax
; Line 390
	push	16					; 00000010H
	mov	eax, DWORD PTR _Id$[ebp]
	push	eax
	mov	ecx, DWORD PTR _pObj$[ebp]
	push	ecx
	call	_WIDGET__Init
	add	esp, 12					; 0000000cH
; Line 392
	mov	eax, DWORD PTR _pObj$[ebp]
	mov	DWORD PTR [eax+120], 1112888404		; 42555454H
; Line 393
	mov	edi, DWORD PTR _pObj$[ebp]
	add	edi, 56					; 00000038H
	mov	ecx, 11					; 0000000bH
	mov	esi, OFFSET _BUTTON__DefaultProps
	rep movsd
; Line 394
	mov	eax, DWORD PTR _pObj$[ebp]
	mov	ecx, DWORD PTR _BUTTON__pSkinDefault
	mov	DWORD PTR [eax+100], ecx
; Line 395
	call	_GUI_ALLOC_UnlockH
	mov	DWORD PTR _pObj$[ebp], 0
; Line 396
	mov	esi, esp
	mov	eax, DWORD PTR _hObj$[ebp]
	push	eax
	mov	ecx, DWORD PTR _BUTTON__pSkinDefault
	mov	edx, DWORD PTR [ecx+4]
	call	edx
	add	esp, 4
	cmp	esi, esp
	call	__RTC_CheckEsp
; Line 397
	jmp	SHORT $LN2@BUTTON_Cre
$LN3@BUTTON_Cre:
; Line 398
	cmp	DWORD PTR _hObj$[ebp], 0
	jne	SHORT $LN2@BUTTON_Cre
	push	OFFSET $SG12797
	call	_GUI_ErrorOut
	add	esp, 4
$LN2@BUTTON_Cre:
; Line 401
	mov	eax, DWORD PTR _hObj$[ebp]
; Line 402
	pop	edi
	pop	esi
	pop	ebx
	add	esp, 216				; 000000d8H
	cmp	ebp, esp
	call	__RTC_CheckEsp
	mov	esp, ebp
	pop	ebp
	ret	0
_BUTTON_CreateEx ENDP
_TEXT	ENDS
PUBLIC	_BUTTON_SetText
EXTRN	_WM_InvalidateWindow:PROC
EXTRN	_GUI__SetText:PROC
EXTRN	@_RTC_CheckStackVars@8:PROC
; Function compile flags: /Odtp /RTCsu /ZI
;	COMDAT _BUTTON_SetText
_TEXT	SEGMENT
_hpTextOld$12806 = -32					; size = 4
_hpText$12805 = -20					; size = 4
_pObj$12804 = -8					; size = 4
_hObj$ = 8						; size = 4
_s$ = 12						; size = 4
_BUTTON_SetText PROC					; COMDAT
; Line 415
	push	ebp
	mov	ebp, esp
	sub	esp, 228				; 000000e4H
	push	ebx
	push	esi
	push	edi
	lea	edi, DWORD PTR [ebp-228]
	mov	ecx, 57					; 00000039H
	mov	eax, -858993460				; ccccccccH
	rep stosd
; Line 416
	cmp	DWORD PTR _hObj$[ebp], 0
	je	SHORT $LN4@BUTTON_Set
; Line 421
	mov	eax, DWORD PTR _hObj$[ebp]
	push	eax
	call	_BUTTON_LockH
	add	esp, 4
	mov	DWORD PTR _pObj$12804[ebp], eax
; Line 422
	mov	eax, DWORD PTR _pObj$12804[ebp]
	mov	ecx, DWORD PTR [eax+104]
	mov	DWORD PTR _hpTextOld$12806[ebp], ecx
	mov	edx, DWORD PTR _hpTextOld$12806[ebp]
	mov	DWORD PTR _hpText$12805[ebp], edx
; Line 423
	call	_GUI_ALLOC_UnlockH
	mov	DWORD PTR _pObj$12804[ebp], 0
; Line 424
	mov	eax, DWORD PTR _s$[ebp]
	push	eax
	lea	ecx, DWORD PTR _hpText$12805[ebp]
	push	ecx
	call	_GUI__SetText
	add	esp, 8
	test	eax, eax
	je	SHORT $LN4@BUTTON_Set
; Line 425
	mov	eax, DWORD PTR _hpText$12805[ebp]
	cmp	eax, DWORD PTR _hpTextOld$12806[ebp]
	je	SHORT $LN1@BUTTON_Set
; Line 426
	mov	eax, DWORD PTR _hObj$[ebp]
	push	eax
	call	_BUTTON_LockH
	add	esp, 4
	mov	DWORD PTR _pObj$12804[ebp], eax
; Line 427
	mov	eax, DWORD PTR _pObj$12804[ebp]
	mov	ecx, DWORD PTR _hpText$12805[ebp]
	mov	DWORD PTR [eax+104], ecx
; Line 428
	call	_GUI_ALLOC_UnlockH
	mov	DWORD PTR _pObj$12804[ebp], 0
$LN1@BUTTON_Set:
; Line 430
	mov	eax, DWORD PTR _hObj$[ebp]
	push	eax
	call	_WM_InvalidateWindow
	add	esp, 4
$LN4@BUTTON_Set:
; Line 434
	push	edx
	mov	ecx, ebp
	push	eax
	lea	edx, DWORD PTR $LN8@BUTTON_Set
	call	@_RTC_CheckStackVars@8
	pop	eax
	pop	edx
	pop	edi
	pop	esi
	pop	ebx
	add	esp, 228				; 000000e4H
	cmp	ebp, esp
	call	__RTC_CheckEsp
	mov	esp, ebp
	pop	ebp
	ret	0
	npad	1
$LN8@BUTTON_Set:
	DD	1
	DD	$LN7@BUTTON_Set
$LN7@BUTTON_Set:
	DD	-20					; ffffffecH
	DD	4
	DD	$LN6@BUTTON_Set
$LN6@BUTTON_Set:
	DB	104					; 00000068H
	DB	112					; 00000070H
	DB	84					; 00000054H
	DB	101					; 00000065H
	DB	120					; 00000078H
	DB	116					; 00000074H
	DB	0
_BUTTON_SetText ENDP
_TEXT	ENDS
PUBLIC	_BUTTON_SetFont
; Function compile flags: /Odtp /RTCsu /ZI
;	COMDAT _BUTTON_SetFont
_TEXT	SEGMENT
_pObj$12817 = -8					; size = 4
_hObj$ = 8						; size = 4
_pfont$ = 12						; size = 4
_BUTTON_SetFont PROC					; COMDAT
; Line 440
	push	ebp
	mov	ebp, esp
	sub	esp, 204				; 000000ccH
	push	ebx
	push	esi
	push	edi
	lea	edi, DWORD PTR [ebp-204]
	mov	ecx, 51					; 00000033H
	mov	eax, -858993460				; ccccccccH
	rep stosd
; Line 441
	cmp	DWORD PTR _hObj$[ebp], 0
	je	SHORT $LN2@BUTTON_Set@2
; Line 444
	mov	eax, DWORD PTR _hObj$[ebp]
	push	eax
	call	_BUTTON_LockH
	add	esp, 4
	mov	DWORD PTR _pObj$12817[ebp], eax
; Line 445
	mov	eax, DWORD PTR _pObj$12817[ebp]
	mov	ecx, DWORD PTR _pfont$[ebp]
	mov	DWORD PTR [eax+88], ecx
; Line 446
	call	_GUI_ALLOC_UnlockH
	mov	DWORD PTR _pObj$12817[ebp], 0
; Line 447
	mov	eax, DWORD PTR _hObj$[ebp]
	push	eax
	call	_WM_InvalidateWindow
	add	esp, 4
$LN2@BUTTON_Set@2:
; Line 450
	pop	edi
	pop	esi
	pop	ebx
	add	esp, 204				; 000000ccH
	cmp	ebp, esp
	call	__RTC_CheckEsp
	mov	esp, ebp
	pop	ebp
	ret	0
_BUTTON_SetFont ENDP
_TEXT	ENDS
PUBLIC	_BUTTON_SetState
EXTRN	_WIDGET_SetState:PROC
; Function compile flags: /Odtp /RTCsu /ZI
;	COMDAT _BUTTON_SetState
_TEXT	SEGMENT
_hObj$ = 8						; size = 4
_State$ = 12						; size = 4
_BUTTON_SetState PROC					; COMDAT
; Line 456
	push	ebp
	mov	ebp, esp
	sub	esp, 192				; 000000c0H
	push	ebx
	push	esi
	push	edi
	lea	edi, DWORD PTR [ebp-192]
	mov	ecx, 48					; 00000030H
	mov	eax, -858993460				; ccccccccH
	rep stosd
; Line 457
	mov	eax, DWORD PTR _State$[ebp]
	push	eax
	mov	ecx, DWORD PTR _hObj$[ebp]
	push	ecx
	call	_WIDGET_SetState
	add	esp, 8
; Line 458
	pop	edi
	pop	esi
	pop	ebx
	add	esp, 192				; 000000c0H
	cmp	ebp, esp
	call	__RTC_CheckEsp
	mov	esp, ebp
	pop	ebp
	ret	0
_BUTTON_SetState ENDP
_TEXT	ENDS
PUBLIC	_BUTTON_SetPressed
; Function compile flags: /Odtp /RTCsu /ZI
;	COMDAT _BUTTON_SetPressed
_TEXT	SEGMENT
_hObj$ = 8						; size = 4
_State$ = 12						; size = 4
_BUTTON_SetPressed PROC					; COMDAT
; Line 464
	push	ebp
	mov	ebp, esp
	sub	esp, 192				; 000000c0H
	push	ebx
	push	esi
	push	edi
	lea	edi, DWORD PTR [ebp-192]
	mov	ecx, 48					; 00000030H
	mov	eax, -858993460				; ccccccccH
	rep stosd
; Line 465
	cmp	DWORD PTR _State$[ebp], 0
	je	SHORT $LN2@BUTTON_Set@3
; Line 466
	push	256					; 00000100H
	mov	eax, DWORD PTR _hObj$[ebp]
	push	eax
	call	_WIDGET_OrState
	add	esp, 8
; Line 467
	jmp	SHORT $LN3@BUTTON_Set@3
$LN2@BUTTON_Set@3:
; Line 468
	push	256					; 00000100H
	mov	eax, DWORD PTR _hObj$[ebp]
	push	eax
	call	_WIDGET_AndState
	add	esp, 8
$LN3@BUTTON_Set@3:
; Line 470
	pop	edi
	pop	esi
	pop	ebx
	add	esp, 192				; 000000c0H
	cmp	ebp, esp
	call	__RTC_CheckEsp
	mov	esp, ebp
	pop	ebp
	ret	0
_BUTTON_SetPressed ENDP
_TEXT	ENDS
PUBLIC	_BUTTON_SetFocussable
; Function compile flags: /Odtp /RTCsu /ZI
;	COMDAT _BUTTON_SetFocussable
_TEXT	SEGMENT
_hObj$ = 8						; size = 4
_State$ = 12						; size = 4
_BUTTON_SetFocussable PROC				; COMDAT
; Line 476
	push	ebp
	mov	ebp, esp
	sub	esp, 192				; 000000c0H
	push	ebx
	push	esi
	push	edi
	lea	edi, DWORD PTR [ebp-192]
	mov	ecx, 48					; 00000030H
	mov	eax, -858993460				; ccccccccH
	rep stosd
; Line 477
	cmp	DWORD PTR _State$[ebp], 0
	je	SHORT $LN2@BUTTON_Set@4
; Line 478
	push	16					; 00000010H
	mov	eax, DWORD PTR _hObj$[ebp]
	push	eax
	call	_WIDGET_OrState
	add	esp, 8
; Line 479
	jmp	SHORT $LN3@BUTTON_Set@4
$LN2@BUTTON_Set@4:
; Line 480
	push	16					; 00000010H
	mov	eax, DWORD PTR _hObj$[ebp]
	push	eax
	call	_WIDGET_AndState
	add	esp, 8
$LN3@BUTTON_Set@4:
; Line 482
	pop	edi
	pop	esi
	pop	ebx
	add	esp, 192				; 000000c0H
	cmp	ebp, esp
	call	__RTC_CheckEsp
	mov	esp, ebp
	pop	ebp
	ret	0
_BUTTON_SetFocussable ENDP
_TEXT	ENDS
END
