; Listing generated by Microsoft (R) Optimizing Compiler Version 16.00.40219.01 

	TITLE	C:\DUII\Simulation\GUI\Widget\BUTTON_Skin.c
	.686P
	.XMM
	include listing.inc
	.model	flat

INCLUDELIB LIBCMT
INCLUDELIB OLDNAMES

EXTRN	_BUTTON__DefaultProps:BYTE
_DATA	SEGMENT
__Skin	DD	FLAT:__Paint
	DD	FLAT:__Create
	DD	FLAT:_BUTTON__DefaultProps+36
_DATA	ENDS
EXTRN	_WM_GetWindowSizeY:PROC
EXTRN	_WM_GetWindowSizeX:PROC
EXTRN	_GUI_ALLOC_UnlockH:PROC
EXTRN	_BUTTON_LockH:PROC
EXTRN	@_RTC_CheckStackVars@8:PROC
EXTRN	__RTC_CheckEsp:PROC
EXTRN	__RTC_Shutdown:PROC
EXTRN	__RTC_InitBase:PROC
;	COMDAT rtc$TMZ
; File c:\duii\simulation\gui\widget\button_skin.c
rtc$TMZ	SEGMENT
__RTC_Shutdown.rtc$TMZ DD FLAT:__RTC_Shutdown
rtc$TMZ	ENDS
;	COMDAT rtc$IMZ
rtc$IMZ	SEGMENT
__RTC_InitBase.rtc$IMZ DD FLAT:__RTC_InitBase
; Function compile flags: /Odtp /RTCsu /ZI
rtc$IMZ	ENDS
;	COMDAT __Paint
_TEXT	SEGMENT
_Status$ = -108						; size = 2
_State$ = -96						; size = 4
_ySize$ = -84						; size = 4
_xSize$ = -72						; size = 4
_ItemInfo$ = -60					; size = 32
_pfDrawSkin$ = -20					; size = 4
_pObj$ = -8						; size = 4
_hObj$ = 8						; size = 4
__Paint	PROC						; COMDAT
; Line 39
	push	ebp
	mov	ebp, esp
	sub	esp, 304				; 00000130H
	push	ebx
	push	esi
	push	edi
	lea	edi, DWORD PTR [ebp-304]
	mov	ecx, 76					; 0000004cH
	mov	eax, -858993460				; ccccccccH
	rep stosd
; Line 49
	mov	eax, DWORD PTR _hObj$[ebp]
	push	eax
	call	_BUTTON_LockH
	add	esp, 4
	mov	DWORD PTR _pObj$[ebp], eax
; Line 50
	mov	eax, DWORD PTR _pObj$[ebp]
	mov	ecx, DWORD PTR [eax+92]
	mov	DWORD PTR _pfDrawSkin$[ebp], ecx
; Line 51
	mov	eax, DWORD PTR _pObj$[ebp]
	movzx	ecx, WORD PTR [eax+54]
	mov	DWORD PTR _State$[ebp], ecx
; Line 52
	mov	eax, DWORD PTR _pObj$[ebp]
	mov	cx, WORD PTR [eax+40]
	mov	WORD PTR _Status$[ebp], cx
; Line 53
	call	_GUI_ALLOC_UnlockH
	mov	DWORD PTR _pObj$[ebp], 0
; Line 57
	mov	eax, DWORD PTR _hObj$[ebp]
	push	eax
	call	_WM_GetWindowSizeX
	add	esp, 4
	mov	DWORD PTR _xSize$[ebp], eax
; Line 58
	mov	eax, DWORD PTR _hObj$[ebp]
	push	eax
	call	_WM_GetWindowSizeY
	add	esp, 4
	mov	DWORD PTR _ySize$[ebp], eax
; Line 62
	mov	eax, DWORD PTR _hObj$[ebp]
	mov	DWORD PTR _ItemInfo$[ebp], eax
; Line 63
	mov	DWORD PTR _ItemInfo$[ebp+16], 0
	mov	eax, DWORD PTR _ItemInfo$[ebp+16]
	mov	DWORD PTR _ItemInfo$[ebp+12], eax
; Line 64
	mov	eax, DWORD PTR _xSize$[ebp]
	sub	eax, 1
	mov	DWORD PTR _ItemInfo$[ebp+20], eax
; Line 65
	mov	eax, DWORD PTR _ySize$[ebp]
	sub	eax, 1
	mov	DWORD PTR _ItemInfo$[ebp+24], eax
; Line 66
	mov	eax, DWORD PTR _State$[ebp]
	and	eax, 256				; 00000100H
	je	SHORT $LN6@Paint
; Line 67
	mov	DWORD PTR _ItemInfo$[ebp+8], 0
	jmp	SHORT $LN5@Paint
$LN6@Paint:
; Line 68
	mov	eax, DWORD PTR _State$[ebp]
	and	eax, 1
	je	SHORT $LN4@Paint
; Line 69
	mov	DWORD PTR _ItemInfo$[ebp+8], 1
	jmp	SHORT $LN5@Paint
$LN4@Paint:
; Line 70
	movzx	eax, WORD PTR _Status$[ebp]
	and	eax, 16					; 00000010H
	je	SHORT $LN2@Paint
; Line 71
	mov	DWORD PTR _ItemInfo$[ebp+8], 3
; Line 72
	jmp	SHORT $LN5@Paint
$LN2@Paint:
; Line 73
	mov	DWORD PTR _ItemInfo$[ebp+8], 2
$LN5@Paint:
; Line 78
	mov	DWORD PTR _ItemInfo$[ebp+4], 3
; Line 79
	mov	esi, esp
	lea	eax, DWORD PTR _ItemInfo$[ebp]
	push	eax
	call	DWORD PTR _pfDrawSkin$[ebp]
	add	esp, 4
	cmp	esi, esp
	call	__RTC_CheckEsp
; Line 83
	mov	DWORD PTR _ItemInfo$[ebp+4], 4
; Line 84
	mov	esi, esp
	lea	eax, DWORD PTR _ItemInfo$[ebp]
	push	eax
	call	DWORD PTR _pfDrawSkin$[ebp]
	add	esp, 4
	cmp	esi, esp
	call	__RTC_CheckEsp
; Line 88
	mov	DWORD PTR _ItemInfo$[ebp+4], 16		; 00000010H
; Line 89
	mov	esi, esp
	lea	eax, DWORD PTR _ItemInfo$[ebp]
	push	eax
	call	DWORD PTR _pfDrawSkin$[ebp]
	add	esp, 4
	cmp	esi, esp
	call	__RTC_CheckEsp
; Line 93
	mov	DWORD PTR _ItemInfo$[ebp+4], 8
; Line 94
	mov	esi, esp
	lea	eax, DWORD PTR _ItemInfo$[ebp]
	push	eax
	call	DWORD PTR _pfDrawSkin$[ebp]
	add	esp, 4
	cmp	esi, esp
	call	__RTC_CheckEsp
; Line 95
	push	edx
	mov	ecx, ebp
	push	eax
	lea	edx, DWORD PTR $LN11@Paint
	call	@_RTC_CheckStackVars@8
	pop	eax
	pop	edx
	pop	edi
	pop	esi
	pop	ebx
	add	esp, 304				; 00000130H
	cmp	ebp, esp
	call	__RTC_CheckEsp
	mov	esp, ebp
	pop	ebp
	ret	0
$LN11@Paint:
	DD	1
	DD	$LN10@Paint
$LN10@Paint:
	DD	-60					; ffffffc4H
	DD	32					; 00000020H
	DD	$LN9@Paint
$LN9@Paint:
	DB	73					; 00000049H
	DB	116					; 00000074H
	DB	101					; 00000065H
	DB	109					; 0000006dH
	DB	73					; 00000049H
	DB	110					; 0000006eH
	DB	102					; 00000066H
	DB	111					; 0000006fH
	DB	0
__Paint	ENDP
; Function compile flags: /Odtp /RTCsu /ZI
_TEXT	ENDS
;	COMDAT __Create
_TEXT	SEGMENT
_ItemInfo$ = -60					; size = 32
_pSkinPrivate$ = -20					; size = 4
_pObj$ = -8						; size = 4
_hObj$ = 8						; size = 4
__Create PROC						; COMDAT
; Line 101
	push	ebp
	mov	ebp, esp
	sub	esp, 256				; 00000100H
	push	ebx
	push	esi
	push	edi
	lea	edi, DWORD PTR [ebp-256]
	mov	ecx, 64					; 00000040H
	mov	eax, -858993460				; ccccccccH
	rep stosd
; Line 104
	mov	DWORD PTR _ItemInfo$[ebp], 0
	xor	eax, eax
	mov	DWORD PTR _ItemInfo$[ebp+4], eax
	mov	DWORD PTR _ItemInfo$[ebp+8], eax
	mov	DWORD PTR _ItemInfo$[ebp+12], eax
	mov	DWORD PTR _ItemInfo$[ebp+16], eax
	mov	DWORD PTR _ItemInfo$[ebp+20], eax
	mov	DWORD PTR _ItemInfo$[ebp+24], eax
	mov	DWORD PTR _ItemInfo$[ebp+28], eax
; Line 109
	mov	eax, DWORD PTR _hObj$[ebp]
	push	eax
	call	_BUTTON_LockH
	add	esp, 4
	mov	DWORD PTR _pObj$[ebp], eax
; Line 110
	mov	eax, DWORD PTR _pObj$[ebp]
	mov	ecx, DWORD PTR [eax+100]
	mov	edx, DWORD PTR [ecx+8]
	mov	DWORD PTR _pSkinPrivate$[ebp], edx
; Line 111
	call	_GUI_ALLOC_UnlockH
	mov	DWORD PTR _pObj$[ebp], 0
; Line 115
	mov	DWORD PTR _ItemInfo$[ebp+4], 0
; Line 116
	mov	eax, DWORD PTR _hObj$[ebp]
	mov	DWORD PTR _ItemInfo$[ebp], eax
; Line 117
	mov	esi, esp
	lea	eax, DWORD PTR _ItemInfo$[ebp]
	push	eax
	mov	ecx, DWORD PTR _pSkinPrivate$[ebp]
	mov	edx, DWORD PTR [ecx]
	call	edx
	add	esp, 4
	cmp	esi, esp
	call	__RTC_CheckEsp
; Line 118
	push	edx
	mov	ecx, ebp
	push	eax
	lea	edx, DWORD PTR $LN5@Create
	call	@_RTC_CheckStackVars@8
	pop	eax
	pop	edx
	pop	edi
	pop	esi
	pop	ebx
	add	esp, 256				; 00000100H
	cmp	ebp, esp
	call	__RTC_CheckEsp
	mov	esp, ebp
	pop	ebp
	ret	0
$LN5@Create:
	DD	1
	DD	$LN4@Create
$LN4@Create:
	DD	-60					; ffffffc4H
	DD	32					; 00000020H
	DD	$LN3@Create
$LN3@Create:
	DB	73					; 00000049H
	DB	116					; 00000074H
	DB	101					; 00000065H
	DB	109					; 0000006dH
	DB	73					; 00000049H
	DB	110					; 0000006eH
	DB	102					; 00000066H
	DB	111					; 0000006fH
	DB	0
__Create ENDP
_TEXT	ENDS
PUBLIC	_BUTTON_SetSkin
EXTRN	_WM_InvalidateWindow:PROC
EXTRN	_WM_SetHasTrans:PROC
; Function compile flags: /Odtp /RTCsu /ZI
;	COMDAT _BUTTON_SetSkin
_TEXT	SEGMENT
_pObj$ = -8						; size = 4
_hObj$ = 8						; size = 4
_pfDrawSkin$ = 12					; size = 4
_BUTTON_SetSkin PROC					; COMDAT
; Line 146
	push	ebp
	mov	ebp, esp
	sub	esp, 204				; 000000ccH
	push	ebx
	push	esi
	push	edi
	lea	edi, DWORD PTR [ebp-204]
	mov	ecx, 51					; 00000033H
	mov	eax, -858993460				; ccccccccH
	rep stosd
; Line 150
	mov	eax, DWORD PTR _hObj$[ebp]
	push	eax
	call	_BUTTON_LockH
	add	esp, 4
	mov	DWORD PTR _pObj$[ebp], eax
; Line 154
	mov	eax, DWORD PTR _pObj$[ebp]
	mov	DWORD PTR [eax+100], OFFSET __Skin
; Line 158
	mov	eax, DWORD PTR _pObj$[ebp]
	mov	ecx, DWORD PTR _pfDrawSkin$[ebp]
	mov	DWORD PTR [eax+92], ecx
; Line 159
	call	_GUI_ALLOC_UnlockH
	mov	DWORD PTR _pObj$[ebp], 0
; Line 163
	mov	eax, DWORD PTR _hObj$[ebp]
	push	eax
	call	_WM_SetHasTrans
	add	esp, 4
; Line 164
	mov	eax, DWORD PTR _hObj$[ebp]
	push	eax
	call	_WM_InvalidateWindow
	add	esp, 4
; Line 166
	pop	edi
	pop	esi
	pop	ebx
	add	esp, 204				; 000000ccH
	cmp	ebp, esp
	call	__RTC_CheckEsp
	mov	esp, ebp
	pop	ebp
	ret	0
_BUTTON_SetSkin ENDP
_TEXT	ENDS
PUBLIC	_BUTTON_SetDefaultSkin
EXTRN	_BUTTON__pSkinDefault:DWORD
; Function compile flags: /Odtp /RTCsu /ZI
;	COMDAT _BUTTON_SetDefaultSkin
_TEXT	SEGMENT
_pfDrawSkin$ = 8					; size = 4
_BUTTON_SetDefaultSkin PROC				; COMDAT
; Line 172
	push	ebp
	mov	ebp, esp
	sub	esp, 192				; 000000c0H
	push	ebx
	push	esi
	push	edi
	lea	edi, DWORD PTR [ebp-192]
	mov	ecx, 48					; 00000030H
	mov	eax, -858993460				; ccccccccH
	rep stosd
; Line 173
	mov	DWORD PTR _BUTTON__pSkinDefault, OFFSET __Skin
; Line 174
	mov	eax, DWORD PTR _pfDrawSkin$[ebp]
	mov	DWORD PTR _BUTTON__DefaultProps+36, eax
; Line 175
	pop	edi
	pop	esi
	pop	ebx
	mov	esp, ebp
	pop	ebp
	ret	0
_BUTTON_SetDefaultSkin ENDP
_TEXT	ENDS
END
