; Listing generated by Microsoft (R) Optimizing Compiler Version 16.00.40219.01 

	TITLE	C:\DUII\DUII\Graphics\CameraNotReadyIcon.c
	.686P
	.XMM
	include listing.inc
	.model	flat

INCLUDELIB LIBCMT
INCLUDELIB OLDNAMES

PUBLIC	_bmCameraNotReadyIcon
CONST	SEGMENT
_ColorsCameraNotReadyIcon DD 00H
	DD	00H
	DD	0fefefeH
	DD	03e3e3eH
	DD	0404040H
	DD	0393939H
	DD	0343434H
	DD	03b3b3aH
	DD	0222222H
	DD	0424242H
	DD	0232323H
	DD	02c2c2cH
	DD	02e2e2eH
	DD	02a2a2aH
	DD	0323232H
	DD	0303ef0H
	DD	040404H
	DD	0313ff2H
	DD	0a0a0aH
	DD	03c3c3cH
	DD	080808H
	DD	0343430H
	DD	03240f8H
	DD	0f3f3f3H
	DD	020202H
	DD	060606H
	DD	0e0e0eH
	DD	0272727H
	DD	03240faH
	DD	0202020H
	DD	0242424H
	DD	0303030H
	DD	0f4f4f4H
	DD	0fcfcfcH
	DD	040400H
	DD	0131313H
	DD	0282828H
	DD	0363636H
	DD	0787878H
	DD	0303eeeH
	DD	0313ff4H
	DD	0303ef8H
	DD	03140f4H
	DD	03240f7H
	DD	0d0d0d0H
	DD	0dadadaH
	DD	0ecececH
	DD	0efefeeH
	DD	0f6f6f6H
	DD	020000H
	DD	0c0c0cH
	DD	0151627H
	DD	0333231H
	DD	0444444H
	DD	06c6c6cH
	DD	0727272H
	DD	07b7b7bH
	DD	07c7c7cH
	DD	07e7e7eH
	DD	02c3aeaH
	DD	03140f6H
	DD	03443ffH
	DD	0828282H
	DD	0858585H
	DD	0aeaeaeH
	DD	0ccccccH
	DD	0e9e9e9H
	DD	0eaeaeaH
	DD	0fafafaH
	DD	030300H
	DD	040300H
	DD	060500H
	DD	040403H
	DD	060603H
	DD	030307H
	DD	060605H
	DD	080801H
	DD	080807H
	DD	0d0d05H
	DD	0e0d04H
	DD	0d0d07H
	DD	01020cH
	DD	04050eH
	DD	0a0b0eH
	DD	090a1bH
	DD	0161512H
	DD	0151515H
	DD	0161617H
	DD	0191919H
	DD	01b1b1bH
	DD	01d1d1dH
	DD	090b21H
	DD	080a24H
	DD	050828H
	DD	0131426H
	DD	0141526H
	DD	01e1e27H
	DD	0141628H
	DD	016172aH
	DD	0b0e35H
	DD	0f1239H
	DD	01f202cH
	DD	0202025H
	DD	0262628H
	DD	02d2d2dH
	DD	036342bH
	DD	036352cH
	DD	038372cH
	DD	0343432H
	DD	0383736H
	DD	037383bH
	DD	040403fH
	DD	0e1344H
	DD	0141847H
	DD	01b1f45H
	DD	0191d4aH
	DD	0e1354H
	DD	0f1455H
	DD	0101555H
	DD	0101654H
	DD	0101556H
	DD	0161a53H
	DD	0131856H
	DD	010155dH
	DD	0121859H
	DD	01a1e5aH
	DD	01b205cH
	DD	022254cH
	DD	023264cH
	DD	0161c6cH
	DD	01a2075H
	DD	0192078H
	DD	02b3068H
	DD	03a3e6bH
	DD	0262d75H
	DD	0282e7fH
	DD	04f4f4fH
	DD	05a594fH
	DD	0464756H
	DD	04e4f59H
	DD	04a4b5cH
	DD	05b5a57H
	DD	05f5f5eH
	DD	067665dH
	DD	0444766H
	DD	05c5d63H
	DD	050526bH
	DD	054566aH
	DD	0616161H
	DD	0676767H
	DD	06a6a6aH
	DD	06e6e6eH
	DD	070706dH
	DD	0707070H
	DD	0747474H
	DD	0747477H
	DD	0767676H
	DD	07a7a72H
	DD	0818178H
	DD	083837dH
	DD	01a2384H
	DD	01b2388H
	DD	01c258cH
	DD	0182191H
	DD	01f2895H
	DD	01f2898H
	DD	0232a80H
	DD	020288fH
	DD	020299eH
	DD	01721a2H
	DD	01f29a5H
	DD	01c27b9H
	DD	0222ba6H
	DD	0232dabH
	DD	0212cb3H
	DD	0242eb0H
	DD	0222eb7H
	DD	0222eb8H
	DD	02531bdH
	DD	01f2cccH
	DD	01e2bd1H
	DD	02833c4H
	DD	02330cbH
	DD	02734cdH
	DD	02431d0H
	DD	02432d3H
	DD	02a36d2H
	DD	02b39daH
	DD	02b39dfH
	DD	02331e2H
	DD	02635e4H
	DD	02b38e3H
	DD	02c38e0H
	DD	02d3ae0H
	DD	02d3ae2H
	DD	02e3ce5H
	DD	02f3ce7H
	DD	02938e9H
	DD	02b3aedH
	DD	02c3aefH
	DD	02e3cedH
	DD	02e3df1H
	DD	02d3bf5H
	DD	02e3ef4H
	DD	0303ff7H
	DD	03140f8H
	DD	03140faH
	DD	03341fcH
	DD	03242ffH
	DD	03545ffH
	DD	0808080H
	DD	0868682H
	DD	0828385H
	DD	0878787H
	DD	0888888H
	DD	08d8d8dH
	DD	08d8d8eH
	DD	095948aH
	DD	094948eH
	DD	0919191H
	DD	0939396H
	DD	0969696H
	DD	09a9a9aH
	DD	09f9f9fH
	DD	0a0a09fH
	DD	0a2a2a2H
	DD	0a8a8a8H
	DD	0b1b1afH
	DD	0b6b6b2H
	DD	0b7b7b7H
	DD	0bcbbb1H
	DD	0b9b9b4H
	DD	0b8b8b8H
	DD	0bbbbbbH
	DD	0bdbcb8H
	DD	0bcbcbcH
	DD	0bebebeH
	DD	0cbcac2H
	DD	0c8c8c8H
	DD	0c9c9caH
	DD	0cbcbcbH
	DD	0d0cfc8H
	DD	0d5d5d5H
	DD	0d6d6d6H
	DD	0deddd5H
	DD	0dcdcdcH
	DD	0dfdfdfH
	DD	0e4e4deH
	DD	0e2e2e2H
	DD	0e7e6e1H
	DD	0e4e4e4H
	DD	0ececebH
	DD	0f0f0eeH
	DD	0f1f1f1H
	DD	0f8f8f8H
	DD	0fffff9H
_PalCameraNotReadyIcon DD 0100H
	DB	00H
	ORG $+3
	DD	FLAT:_ColorsCameraNotReadyIcon
_bmCameraNotReadyIcon DW 01fH
	DW	023H
	DW	01fH
	DW	08H
	DD	FLAT:_acCameraNotReadyIcon
	DD	FLAT:_PalCameraNotReadyIcon
	ORG $+4
_acCameraNotReadyIcon DB 08H
	DB	08H
	DB	08H
	DB	08H
	DB	08H
	DB	08H
	DB	08H
	DB	08H
	DB	08H
	DB	08H
	DB	08H
	DB	08H
	DB	08H
	DB	08H
	DB	08H
	DB	08H
	DB	08H
	DB	08H
	DB	08H
	DB	08H
	DB	08H
	DB	08H
	DB	08H
	DB	08H
	DB	08H
	DB	08H
	DB	08H
	DB	08H
	DB	08H
	DB	08H
	DB	08H
	DB	0aH
	DB	0aH
	DB	0aH
	DB	0aH
	DB	0aH
	DB	0aH
	DB	0aH
	DB	0aH
	DB	0aH
	DB	0aH
	DB	0aH
	DB	0aH
	DB	0aH
	DB	0aH
	DB	0aH
	DB	0aH
	DB	0aH
	DB	0aH
	DB	0aH
	DB	0aH
	DB	0aH
	DB	0aH
	DB	0aH
	DB	0aH
	DB	0aH
	DB	0aH
	DB	0aH
	DB	0aH
	DB	0aH
	DB	0aH
	DB	0aH
	DB	0bH
	DB	0bH
	DB	0bH
	DB	0bH
	DB	0bH
	DB	0bH
	DB	0bH
	DB	0bH
	DB	0bH
	DB	0bH
	DB	0bH
	DB	0bH
	DB	0bH
	DB	0bH
	DB	0bH
	DB	0bH
	DB	0bH
	DB	0bH
	DB	0bH
	DB	0bH
	DB	0bH
	DB	0bH
	DB	0bH
	DB	0bH
	DB	0bH
	DB	0bH
	DB	0bH
	DB	0bH
	DB	0bH
	DB	0bH
	DB	0bH
	DB	05H
	DB	05H
	DB	05H
	DB	05H
	DB	05H
	DB	05H
	DB	05H
	DB	05H
	DB	05H
	DB	05H
	DB	05H
	DB	05H
	DB	05H
	DB	05H
	DB	05H
	DB	05H
	DB	05H
	DB	05H
	DB	05H
	DB	05H
	DB	05H
	DB	05H
	DB	05H
	DB	05H
	DB	05H
	DB	05H
	DB	05H
	DB	05H
	DB	05H
	DB	05H
	DB	05H
	DB	04H
	DB	04H
	DB	04H
	DB	04H
	DB	04H
	DB	04H
	DB	04H
	DB	04H
	DB	04H
	DB	04H
	DB	04H
	DB	04H
	DB	04H
	DB	04H
	DB	04H
	DB	04H
	DB	04H
	DB	04H
	DB	04H
	DB	04H
	DB	04H
	DB	04H
	DB	04H
	DB	04H
	DB	04H
	DB	04H
	DB	04H
	DB	04H
	DB	04H
	DB	04H
	DB	04H
	DB	09H
	DB	09H
	DB	09H
	DB	09H
	DB	09H
	DB	09H
	DB	09H
	DB	09H
	DB	09H
	DB	09H
	DB	09H
	DB	09H
	DB	09H
	DB	09H
	DB	09H
	DB	09H
	DB	09H
	DB	09H
	DB	09H
	DB	09H
	DB	09H
	DB	09H
	DB	09H
	DB	09H
	DB	09H
	DB	09H
	DB	09H
	DB	09H
	DB	09H
	DB	09H
	DB	09H
	DB	04H
	DB	04H
	DB	04H
	DB	04H
	DB	04H
	DB	04H
	DB	04H
	DB	04H
	DB	04H
	DB	04H
	DB	04H
	DB	04H
	DB	04H
	DB	04H
	DB	04H
	DB	04H
	DB	04H
	DB	04H
	DB	04H
	DB	04H
	DB	04H
	DB	04H
	DB	04H
	DB	04H
	DB	04H
	DB	04H
	DB	04H
	DB	04H
	DB	04H
	DB	04H
	DB	04H
	DB	06fH
	DB	06fH
	DB	06fH
	DB	06fH
	DB	06fH
	DB	06fH
	DB	06fH
	DB	06fH
	DB	06fH
	DB	06fH
	DB	06fH
	DB	06fH
	DB	06fH
	DB	06fH
	DB	06fH
	DB	06fH
	DB	06fH
	DB	06fH
	DB	06fH
	DB	06fH
	DB	06fH
	DB	06fH
	DB	06fH
	DB	06fH
	DB	06fH
	DB	06fH
	DB	06fH
	DB	06fH
	DB	06fH
	DB	06fH
	DB	06fH
	DB	03H
	DB	03H
	DB	03H
	DB	03H
	DB	03H
	DB	03H
	DB	03H
	DB	03H
	DB	03H
	DB	03H
	DB	03H
	DB	03H
	DB	03H
	DB	03H
	DB	03H
	DB	03H
	DB	03H
	DB	03H
	DB	03H
	DB	03H
	DB	03H
	DB	03H
	DB	03H
	DB	03H
	DB	03H
	DB	03H
	DB	03H
	DB	03H
	DB	03H
	DB	03H
	DB	03H
	DB	07H
	DB	07H
	DB	07H
	DB	07H
	DB	07H
	DB	07H
	DB	07H
	DB	07H
	DB	07H
	DB	07H
	DB	07H
	DB	07H
	DB	07H
	DB	07H
	DB	07H
	DB	07H
	DB	07H
	DB	07H
	DB	07H
	DB	07H
	DB	07H
	DB	07H
	DB	07H
	DB	07H
	DB	07H
	DB	07H
	DB	07H
	DB	07H
	DB	07H
	DB	07H
	DB	07H
	DB	05H
	DB	05H
	DB	05H
	DB	05H
	DB	05H
	DB	05H
	DB	05H
	DB	05H
	DB	05H
	DB	05H
	DB	05H
	DB	05H
	DB	05H
	DB	05H
	DB	05H
	DB	05H
	DB	05H
	DB	05H
	DB	05H
	DB	05H
	DB	05H
	DB	05H
	DB	05H
	DB	05H
	DB	05H
	DB	05H
	DB	05H
	DB	05H
	DB	05H
	DB	05H
	DB	05H
	DB	06H
	DB	06H
	DB	06H
	DB	06H
	DB	06H
	DB	06H
	DB	06H
	DB	06H
	DB	06H
	DB	06H
	DB	06H
	DB	06H
	DB	06H
	DB	06H
	DB	06H
	DB	06H
	DB	06H
	DB	06H
	DB	06H
	DB	06H
	DB	06H
	DB	06H
	DB	06H
	DB	06H
	DB	06H
	DB	06H
	DB	06H
	DB	06H
	DB	06H
	DB	06H
	DB	06H
	DB	0eH
	DB	0eH
	DB	0eH
	DB	0eH
	DB	0eH
	DB	0eH
	DB	0eH
	DB	0eH
	DB	0cH
	DB	0cH
	DB	0cH
	DB	0cH
	DB	0cH
	DB	0cH
	DB	0eH
	DB	015H
	DB	015H
	DB	015H
	DB	06cH
	DB	0cH
	DB	0cH
	DB	0cH
	DB	0cH
	DB	034H
	DB	015H
	DB	015H
	DB	015H
	DB	034H
	DB	0cH
	DB	0cH
	DB	01fH
	DB	0cH
	DB	0cH
	DB	0cH
	DB	0cH
	DB	0cH
	DB	0cH
	DB	0cH
	DB	0bH
	DB	0eH
	DB	03H
	DB	03H
	DB	03H
	DB	03H
	DB	07H
	DB	060H
	DB	062H
	DB	033H
	DB	05eH
	DB	066H
	DB	06fH
	DB	03H
	DB	03H
	DB	04H
	DB	067H
	DB	05fH
	DB	033H
	DB	061H
	DB	065H
	DB	06dH
	DB	03H
	DB	01fH
	DB	0bH
	DB	0bH
	DB	0bH
	DB	0bH
	DB	0bH
	DB	0bH
	DB	024H
	DB	07H
	DB	0e8H
	DB	02eH
	DB	043H
	DB	042H
	DB	0fbH
	DB	0f9H
	DB	090H
	DB	0b4H
	DB	0c8H
	DB	0c6H
	DB	0a1H
	DB	0d9H
	DB	02fH
	DB	02fH
	DB	0e6H
	DB	086H
	DB	0c5H
	DB	03bH
	DB	0bdH
	DB	084H
	DB	0f1H
	DB	02eH
	DB	040H
	DB	01bH
	DB	01eH
	DB	08H
	DB	01eH
	DB	01bH
	DB	01bH
	DB	059H
	DB	03fH
	DB	02H
	DB	02H
	DB	02H
	DB	02H
	DB	02H
	DB	02H
	DB	0edH
	DB	087H
	DB	0caH
	DB	028H
	DB	0beH
	DB	085H
	DB	0f4H
	DB	0ffH
	DB	092H
	DB	0b3H
	DB	03cH
	DB	0ceH
	DB	0a4H
	DB	0d3H
	DB	0fbH
	DB	017H
	DB	021H
	DB	01eH
	DB	068H
	DB	06H
	DB	01bH
	DB	058H
	DB	01dH
	DB	056H
	DB	0ddH
	DB	02H
	DB	02H
	DB	02H
	DB	02H
	DB	02H
	DB	02H
	DB	02H
	DB	0d8H
	DB	0aeH
	DB	02bH
	DB	016H
	DB	0abH
	DB	091H
	DB	09fH
	DB	0aaH
	DB	0cdH
	DB	02aH
	DB	0b6H
	DB	08aH
	DB	0e7H
	DB	041H
	DB	0f6H
	DB	030H
	DB	03H
	DB	041H
	DB	0faH
	DB	0eeH
	DB	03aH
	DB	0dH
	DB	032H
	DB	0dbH
	DB	02H
	DB	021H
	DB	040H
	DB	0e2H
	DB	02H
	DB	0ecH
	DB	0d5H
	DB	09dH
	DB	072H
	DB	0bfH
	DB	011H
	DB	029H
	DB	0a6H
	DB	07dH
	DB	0cbH
	DB	011H
	DB	028H
	DB	07aH
	DB	069H
	DB	088H
	DB	036H
	DB	02dH
	DB	030H
	DB	035H
	DB	020H
	DB	02H
	DB	02H
	DB	02H
	DB	0f2H
	DB	024H
	DB	0d6H
	DB	02H
	DB	0f5H
	DB	01aH
	DB	014H
	DB	02dH
	DB	026H
	DB	00H
	DB	01aH
	DB	04eH
	DB	083H
	DB	01cH
	DB	011H
	DB	0bcH
	DB	0c0H
	DB	011H
	DB	0cfH
	DB	0a8H
	DB	047H
	DB	04bH
	DB	00H
	DB	01dH
	DB	0f8H
	DB	044H
	DB	04H
	DB	020H
	DB	02H
	DB	02H
	DB	02H
	DB	02H
	DB	09H
	DB	0d2H
	DB	02H
	DB	042H
	DB	04H
	DB	06dH
	DB	02eH
	DB	039H
	DB	04dH
	DB	057H
	DB	055H
	DB	053H
	DB	0b2H
	DB	016H
	DB	0fH
	DB	011H
	DB	011H
	DB	0bbH
	DB	05bH
	DB	04cH
	DB	012H
	DB	012H
	DB	0bH
	DB	02fH
	DB	02H
	DB	03H
	DB	020H
	DB	02H
	DB	02H
	DB	02H
	DB	02H
	DB	06fH
	DB	03aH
	DB	02H
	DB	02H
	DB	020H
	DB	0fdH
	DB	02H
	DB	037H
	DB	010H
	DB	023H
	DB	023H
	DB	04fH
	DB	064H
	DB	0c3H
	DB	011H
	DB	0fH
	DB	0fH
	DB	07cH
	DB	045H
	DB	014H
	DB	012H
	DB	012H
	DB	0bH
	DB	0feH
	DB	02H
	DB	07H
	DB	017H
	DB	02H
	DB	02H
	DB	02H
	DB	02H
	DB	013H
	DB	039H
	DB	02H
	DB	02H
	DB	02H
	DB	02H
	DB	02H
	DB	099H
	DB	00H
	DB	01aH
	DB	01aH
	DB	050H
	DB	054H
	DB	0baH
	DB	02aH
	DB	011H
	DB	0c4H
	DB	063H
	DB	046H
	DB	014H
	DB	012H
	DB	04dH
	DB	0dH
	DB	021H
	DB	02H
	DB	06dH
	DB	017H
	DB	02H
	DB	02H
	DB	02H
	DB	02H
	DB	05H
	DB	026H
	DB	02H
	DB	02H
	DB	02H
	DB	02H
	DB	02H
	DB	097H
	DB	00H
	DB	012H
	DB	012H
	DB	047H
	DB	0a2H
	DB	016H
	DB	027H
	DB	0fH
	DB	02bH
	DB	0afH
	DB	04aH
	DB	049H
	DB	012H
	DB	010H
	DB	01bH
	DB	02H
	DB	02H
	DB	06H
	DB	017H
	DB	02H
	DB	02H
	DB	02H
	DB	02H
	DB	025H
	DB	026H
	DB	02H
	DB	02H
	DB	02H
	DB	02H
	DB	02H
	DB	036H
	DB	00H
	DB	014H
	DB	022H
	DB	070H
	DB	0fH
	DB	011H
	DB	0fH
	DB	011H
	DB	027H
	DB	016H
	DB	081H
	DB	031H
	DB	04dH
	DB	00H
	DB	01eH
	DB	02H
	DB	02H
	DB	06H
	DB	017H
	DB	02H
	DB	02H
	DB	02H
	DB	02H
	DB	06H
	DB	09cH
	DB	02H
	DB	02H
	DB	02H
	DB	02H
	DB	02H
	DB	096H
	DB	00H
	DB	022H
	DB	052H
	DB	0b5H
	DB	02bH
	DB	016H
	DB	0adH
	DB	0a5H
	DB	01cH
	DB	028H
	DB	0c1H
	DB	05cH
	DB	031H
	DB	00H
	DB	08H
	DB	02H
	DB	02H
	DB	01fH
	DB	017H
	DB	02H
	DB	02H
	DB	02H
	DB	0f0H
	DB	01aH
	DB	038H
	DB	02H
	DB	02H
	DB	02H
	DB	02H
	DB	02H
	DB	095H
	DB	00H
	DB	00H
	DB	0a0H
	DB	01cH
	DB	011H
	DB	0c2H
	DB	05dH
	DB	051H
	DB	0b7H
	DB	02bH
	DB	0cfH
	DB	0acH
	DB	00H
	DB	00H
	DB	05aH
	DB	02H
	DB	02H
	DB	08H
	DB	0ebH
	DB	02cH
	DB	0e5H
	DB	094H
	DB	012H
	DB	00H
	DB	03eH
	DB	02H
	DB	02H
	DB	02H
	DB	02H
	DB	02H
	DB	0efH
	DB	09eH
	DB	073H
	DB	03bH
	DB	011H
	DB	0cdH
	DB	082H
	DB	06aH
	DB	06bH
	DB	07eH
	DB	0c9H
	DB	0fH
	DB	016H
	DB	07bH
	DB	089H
	DB	0e0H
	DB	021H
	DB	02H
	DB	00H
	DB	04dH
	DB	032H
	DB	018H
	DB	00H
	DB	00H
	DB	00H
	DB	03fH
	DB	02H
	DB	02H
	DB	02H
	DB	02H
	DB	02H
	DB	02H
	DB	0dcH
	DB	0b0H
	DB	0ccH
	DB	0cdH
	DB	0b1H
	DB	06eH
	DB	098H
	DB	03eH
	DB	08dH
	DB	0a3H
	DB	01cH
	DB	02aH
	DB	0b8H
	DB	093H
	DB	0f7H
	DB	030H
	DB	02H
	DB	00H
	DB	00H
	DB	00H
	DB	00H
	DB	00H
	DB	00H
	DB	00H
	DB	037H
	DB	02H
	DB	02H
	DB	02H
	DB	02H
	DB	02H
	DB	0e4H
	DB	0a7H
	DB	0d0H
	DB	03dH
	DB	0c7H
	DB	07fH
	DB	08fH
	DB	038H
	DB	0e1H
	DB	0eaH
	DB	08cH
	DB	0b9H
	DB	03dH
	DB	0d1H
	DB	0a9H
	DB	09bH
	DB	0fcH
	DB	02H
	DB	00H
	DB	00H
	DB	00H
	DB	00H
	DB	00H
	DB	00H
	DB	00H
	DB	023H
	DB	0dfH
	DB	0f3H
	DB	02cH
	DB	02cH
	DB	02dH
	DB	0d4H
	DB	079H
	DB	075H
	DB	078H
	DB	071H
	DB	035H
	DB	08eH
	DB	09aH
	DB	0deH
	DB	0e9H
	DB	0daH
	DB	080H
	DB	074H
	DB	076H
	DB	077H
	DB	08bH
	DB	0e3H
	DB	0d7H
	DB	00H
	DB	00H
	DB	00H
	DB	00H
	DB	00H
	DB	00H
	DB	00H
	DB	00H
	DB	00H
	DB	010H
	DB	010H
	DB	010H
	DB	010H
	DB	04dH
	DB	00H
	DB	00H
	DB	00H
	DB	00H
	DB	048H
	DB	018H
	DB	048H
	DB	010H
	DB	010H
	DB	019H
	DB	018H
	DB	00H
	DB	00H
	DB	00H
	DB	010H
	DB	018H
	DB	00H
	DB	00H
	DB	00H
	DB	00H
	DB	00H
	DB	00H
	DB	00H
	DB	00H
	DB	00H
	DB	00H
	DB	00H
	DB	00H
	DB	00H
	DB	00H
	DB	00H
	DB	00H
	DB	00H
	DB	00H
	DB	00H
	DB	00H
	DB	00H
	DB	00H
	DB	00H
	DB	00H
	DB	00H
	DB	00H
	DB	00H
	DB	00H
	DB	00H
	DB	00H
	DB	00H
	DB	00H
	DB	00H
	DB	00H
	DB	00H
	DB	00H
	DB	00H
	DB	00H
	DB	00H
	DB	00H
	DB	00H
	DB	00H
	DB	00H
	DB	00H
	DB	00H
	DB	00H
	DB	00H
	DB	00H
	DB	00H
	DB	00H
	DB	00H
	DB	00H
	DB	00H
	DB	00H
	DB	00H
	DB	00H
	DB	00H
	DB	00H
	DB	00H
	DB	00H
	DB	00H
	DB	00H
	DB	00H
	DB	00H
	DB	00H
	DB	00H
	DB	00H
	DB	00H
	DB	00H
	DB	00H
	DB	00H
	DB	00H
	DB	00H
	DB	00H
	DB	00H
	DB	00H
	DB	00H
	DB	00H
	DB	00H
	DB	00H
	DB	00H
	DB	00H
	DB	00H
	DB	00H
	DB	00H
	DB	00H
	DB	00H
	DB	00H
	DB	00H
	DB	00H
	DB	00H
	DB	00H
	DB	00H
	DB	00H
	DB	00H
	DB	00H
	DB	00H
	DB	00H
	DB	00H
	DB	00H
	DB	00H
	DB	00H
	DB	00H
	DB	00H
	DB	00H
	DB	00H
	DB	00H
	DB	00H
	DB	00H
	DB	00H
	DB	00H
	DB	00H
	DB	00H
	DB	00H
	DB	00H
	DB	00H
	DB	00H
	DB	00H
	DB	00H
	DB	00H
	DB	00H
	DB	00H
	DB	00H
	DB	00H
	DB	00H
CONST	ENDS
END
