; Listing generated by Microsoft (R) Optimizing Compiler Version 16.00.40219.01 

	TITLE	C:\DUII\DUII\Graphics\Cancel.c
	.686P
	.XMM
	include listing.inc
	.model	flat

INCLUDELIB LIBCMT
INCLUDELIB OLDNAMES

PUBLIC	_bmCancel
EXTRN	_GUI_BitmapMethods555:BYTE
CONST	SEGMENT
_acCancel DW	00H
	DW	0863H
	DW	03a95H
	DW	04bbfH
	DW	047bfH
	DW	047bfH
	DW	047bfH
	DW	047bfH
	DW	047bfH
	DW	047bfH
	DW	047bfH
	DW	047bfH
	DW	047bfH
	DW	047bfH
	DW	047bfH
	DW	047bfH
	DW	047bfH
	DW	047bfH
	DW	047bfH
	DW	047bfH
	DW	047bfH
	DW	047bfH
	DW	047bfH
	DW	047bfH
	DW	047bfH
	DW	047bfH
	DW	047bfH
	DW	047bfH
	DW	047bfH
	DW	047bfH
	DW	047bfH
	DW	047bfH
	DW	047bfH
	DW	047bfH
	DW	047bfH
	DW	047bfH
	DW	047bfH
	DW	047bfH
	DW	047bfH
	DW	047bfH
	DW	047bfH
	DW	047bfH
	DW	047bfH
	DW	047bfH
	DW	047bfH
	DW	047bfH
	DW	047bfH
	DW	047bfH
	DW	047bfH
	DW	047bfH
	DW	047bfH
	DW	047bfH
	DW	047bfH
	DW	047bfH
	DW	047bfH
	DW	047bfH
	DW	047bfH
	DW	047bfH
	DW	047bfH
	DW	047bfH
	DW	047bfH
	DW	047bfH
	DW	047bfH
	DW	047bfH
	DW	047bfH
	DW	047bfH
	DW	047bfH
	DW	047bfH
	DW	047bfH
	DW	047bfH
	DW	047bfH
	DW	047bfH
	DW	047bfH
	DW	047bfH
	DW	047bfH
	DW	047bfH
	DW	047bfH
	DW	047bfH
	DW	047bfH
	DW	047bfH
	DW	047bfH
	DW	047bfH
	DW	047bfH
	DW	047bfH
	DW	047bfH
	DW	047bfH
	DW	047bfH
	DW	047bfH
	DW	047bfH
	DW	047bfH
	DW	047bfH
	DW	047bfH
	DW	047bfH
	DW	047bfH
	DW	047bfH
	DW	047bfH
	DW	047bfH
	DW	047bfH
	DW	047bfH
	DW	047bfH
	DW	047bfH
	DW	047bfH
	DW	047bfH
	DW	047bfH
	DW	047bfH
	DW	047dfH
	DW	0373bH
	DW	0114bH
	DW	00H
	DW	0442H
	DW	02e96H
	DW	0339fH
	DW	01b7fH
	DW	0177fH
	DW	0177fH
	DW	0177fH
	DW	0177fH
	DW	0177fH
	DW	0177fH
	DW	0177fH
	DW	0177fH
	DW	0177fH
	DW	0177fH
	DW	0177fH
	DW	0177fH
	DW	0177fH
	DW	0177fH
	DW	0177fH
	DW	0177fH
	DW	0177fH
	DW	0177fH
	DW	0177fH
	DW	0177fH
	DW	0177fH
	DW	0177fH
	DW	0177fH
	DW	0177fH
	DW	0177fH
	DW	0177fH
	DW	0177fH
	DW	0177fH
	DW	0177fH
	DW	0177fH
	DW	0177fH
	DW	0177fH
	DW	0177fH
	DW	0177fH
	DW	0177fH
	DW	0177fH
	DW	0177fH
	DW	0177fH
	DW	0177fH
	DW	0177fH
	DW	0177fH
	DW	0177fH
	DW	0177fH
	DW	0177fH
	DW	0177fH
	DW	0177fH
	DW	0177fH
	DW	0177fH
	DW	0177fH
	DW	0177fH
	DW	0177fH
	DW	0177fH
	DW	0177fH
	DW	0177fH
	DW	0177fH
	DW	0177fH
	DW	0177fH
	DW	0177fH
	DW	0177fH
	DW	0177fH
	DW	0177fH
	DW	0177fH
	DW	0177fH
	DW	0177fH
	DW	0177fH
	DW	0177fH
	DW	0177fH
	DW	0177fH
	DW	0177fH
	DW	0177fH
	DW	0177fH
	DW	0177fH
	DW	0177fH
	DW	0177fH
	DW	0177fH
	DW	0177fH
	DW	0177fH
	DW	0177fH
	DW	0177fH
	DW	0177fH
	DW	0177fH
	DW	0177fH
	DW	0177fH
	DW	0177fH
	DW	0177fH
	DW	0177fH
	DW	0177fH
	DW	0177fH
	DW	0177fH
	DW	0177fH
	DW	0177fH
	DW	0177fH
	DW	0177fH
	DW	0177fH
	DW	0177fH
	DW	0177fH
	DW	0177fH
	DW	0177fH
	DW	0177fH
	DW	0177fH
	DW	0177fH
	DW	0177fH
	DW	01b7fH
	DW	0175dH
	DW	0e9H
	DW	01e33H
	DW	0239fH
	DW	077fH
	DW	035fH
	DW	035fH
	DW	035fH
	DW	035fH
	DW	035fH
	DW	035fH
	DW	035fH
	DW	035fH
	DW	035fH
	DW	035fH
	DW	035fH
	DW	035fH
	DW	035fH
	DW	035fH
	DW	035fH
	DW	035fH
	DW	035fH
	DW	035fH
	DW	035fH
	DW	035fH
	DW	035fH
	DW	035fH
	DW	035fH
	DW	035fH
	DW	035fH
	DW	035fH
	DW	035fH
	DW	035fH
	DW	035fH
	DW	035fH
	DW	035fH
	DW	035fH
	DW	035fH
	DW	035fH
	DW	035fH
	DW	035fH
	DW	035fH
	DW	035fH
	DW	035fH
	DW	035fH
	DW	035fH
	DW	035fH
	DW	035fH
	DW	035fH
	DW	035fH
	DW	035fH
	DW	035fH
	DW	035fH
	DW	035fH
	DW	035fH
	DW	035fH
	DW	035fH
	DW	035fH
	DW	035fH
	DW	035fH
	DW	035fH
	DW	035fH
	DW	035fH
	DW	035fH
	DW	035fH
	DW	035fH
	DW	035fH
	DW	035fH
	DW	035fH
	DW	035fH
	DW	035fH
	DW	035fH
	DW	035fH
	DW	035fH
	DW	035fH
	DW	035fH
	DW	035fH
	DW	035fH
	DW	035fH
	DW	035fH
	DW	035fH
	DW	035fH
	DW	035fH
	DW	035fH
	DW	035fH
	DW	035fH
	DW	035fH
	DW	035fH
	DW	035fH
	DW	035fH
	DW	035fH
	DW	035fH
	DW	035fH
	DW	035fH
	DW	035fH
	DW	035fH
	DW	035fH
	DW	035fH
	DW	035fH
	DW	035fH
	DW	035fH
	DW	035fH
	DW	035fH
	DW	035fH
	DW	035fH
	DW	035fH
	DW	035fH
	DW	035fH
	DW	035fH
	DW	037fH
	DW	0213H
	DW	016d9H
	DW	0f7eH
	DW	035eH
	DW	035eH
	DW	035eH
	DW	035eH
	DW	035eH
	DW	035eH
	DW	035eH
	DW	035eH
	DW	035eH
	DW	035eH
	DW	035eH
	DW	035eH
	DW	035eH
	DW	035eH
	DW	035eH
	DW	035eH
	DW	035eH
	DW	035eH
	DW	035eH
	DW	035eH
	DW	035eH
	DW	035eH
	DW	035eH
	DW	035eH
	DW	035eH
	DW	035eH
	DW	035eH
	DW	035eH
	DW	035eH
	DW	035eH
	DW	035eH
	DW	035eH
	DW	035eH
	DW	035eH
	DW	035eH
	DW	035eH
	DW	035eH
	DW	035eH
	DW	035eH
	DW	035eH
	DW	035eH
	DW	035eH
	DW	035eH
	DW	035eH
	DW	035eH
	DW	035eH
	DW	035eH
	DW	035eH
	DW	035eH
	DW	035eH
	DW	035eH
	DW	035eH
	DW	035eH
	DW	035eH
	DW	035eH
	DW	035eH
	DW	035eH
	DW	035eH
	DW	035eH
	DW	035eH
	DW	035eH
	DW	035eH
	DW	035eH
	DW	035eH
	DW	035eH
	DW	035eH
	DW	035eH
	DW	035eH
	DW	035eH
	DW	035eH
	DW	035eH
	DW	035eH
	DW	035eH
	DW	035eH
	DW	035eH
	DW	035eH
	DW	035eH
	DW	035eH
	DW	035eH
	DW	035eH
	DW	035eH
	DW	035eH
	DW	035eH
	DW	035eH
	DW	035eH
	DW	035eH
	DW	035eH
	DW	035eH
	DW	035eH
	DW	035eH
	DW	035eH
	DW	035eH
	DW	035eH
	DW	035eH
	DW	035eH
	DW	035eH
	DW	035eH
	DW	035eH
	DW	035eH
	DW	035eH
	DW	035eH
	DW	035eH
	DW	035eH
	DW	035eH
	DW	035eH
	DW	035eH
	DW	01f2H
	DW	012d8H
	DW	0b5eH
	DW	035eH
	DW	035eH
	DW	035eH
	DW	035eH
	DW	035eH
	DW	035eH
	DW	035eH
	DW	035eH
	DW	035eH
	DW	035eH
	DW	035eH
	DW	035eH
	DW	035eH
	DW	035eH
	DW	035eH
	DW	035eH
	DW	035eH
	DW	035eH
	DW	035eH
	DW	035eH
	DW	035eH
	DW	035eH
	DW	035eH
	DW	035eH
	DW	035eH
	DW	035eH
	DW	035eH
	DW	035eH
	DW	035eH
	DW	035eH
	DW	035eH
	DW	035eH
	DW	035eH
	DW	035eH
	DW	035eH
	DW	035eH
	DW	035eH
	DW	035eH
	DW	035eH
	DW	035eH
	DW	035eH
	DW	035eH
	DW	035eH
	DW	035eH
	DW	035eH
	DW	035eH
	DW	035eH
	DW	035eH
	DW	035eH
	DW	035eH
	DW	035eH
	DW	035eH
	DW	035eH
	DW	035eH
	DW	035eH
	DW	035eH
	DW	035eH
	DW	035eH
	DW	035eH
	DW	035eH
	DW	035eH
	DW	035eH
	DW	035eH
	DW	035eH
	DW	035eH
	DW	035eH
	DW	035eH
	DW	035eH
	DW	035eH
	DW	035eH
	DW	035eH
	DW	035eH
	DW	035eH
	DW	035eH
	DW	035eH
	DW	035eH
	DW	035eH
	DW	035eH
	DW	035eH
	DW	035eH
	DW	035eH
	DW	035eH
	DW	035eH
	DW	035eH
	DW	035eH
	DW	035eH
	DW	035eH
	DW	035eH
	DW	035eH
	DW	035eH
	DW	035eH
	DW	035eH
	DW	035eH
	DW	035eH
	DW	035eH
	DW	035eH
	DW	035eH
	DW	035eH
	DW	035eH
	DW	035eH
	DW	035eH
	DW	035eH
	DW	035eH
	DW	035eH
	DW	035eH
	DW	035eH
	DW	01f1H
	DW	012d8H
	DW	0f5dH
	DW	035eH
	DW	035eH
	DW	035eH
	DW	035eH
	DW	035eH
	DW	035eH
	DW	035eH
	DW	035eH
	DW	035eH
	DW	035eH
	DW	035eH
	DW	035eH
	DW	035eH
	DW	035eH
	DW	035eH
	DW	035eH
	DW	035eH
	DW	035eH
	DW	035eH
	DW	035eH
	DW	035eH
	DW	035eH
	DW	035eH
	DW	035eH
	DW	035eH
	DW	035eH
	DW	035eH
	DW	035eH
	DW	035eH
	DW	035eH
	DW	035eH
	DW	035eH
	DW	035eH
	DW	035eH
	DW	035eH
	DW	035eH
	DW	035eH
	DW	035eH
	DW	035eH
	DW	035eH
	DW	035eH
	DW	035eH
	DW	035eH
	DW	035eH
	DW	035eH
	DW	035eH
	DW	035eH
	DW	035eH
	DW	035eH
	DW	035eH
	DW	035eH
	DW	035eH
	DW	035eH
	DW	035eH
	DW	035eH
	DW	035eH
	DW	035eH
	DW	035eH
	DW	035eH
	DW	035eH
	DW	035eH
	DW	035eH
	DW	035eH
	DW	035eH
	DW	035eH
	DW	035eH
	DW	035eH
	DW	035eH
	DW	035eH
	DW	035eH
	DW	035eH
	DW	035eH
	DW	035eH
	DW	035eH
	DW	035eH
	DW	035eH
	DW	035eH
	DW	035eH
	DW	035eH
	DW	035eH
	DW	035eH
	DW	035eH
	DW	035eH
	DW	035eH
	DW	035eH
	DW	035eH
	DW	035eH
	DW	035eH
	DW	035eH
	DW	035eH
	DW	035eH
	DW	035eH
	DW	035eH
	DW	035eH
	DW	035eH
	DW	035eH
	DW	035eH
	DW	035eH
	DW	035eH
	DW	035eH
	DW	035eH
	DW	035eH
	DW	035eH
	DW	035eH
	DW	035eH
	DW	035dH
	DW	01f1H
	DW	012d8H
	DW	0f5dH
	DW	035dH
	DW	035dH
	DW	035dH
	DW	035dH
	DW	035dH
	DW	035dH
	DW	035dH
	DW	035dH
	DW	035dH
	DW	035dH
	DW	035dH
	DW	035dH
	DW	035dH
	DW	035dH
	DW	035dH
	DW	035dH
	DW	035dH
	DW	035dH
	DW	035dH
	DW	035dH
	DW	035dH
	DW	035dH
	DW	035dH
	DW	035dH
	DW	035dH
	DW	035dH
	DW	035dH
	DW	035dH
	DW	035dH
	DW	035dH
	DW	035dH
	DW	035dH
	DW	035dH
	DW	035dH
	DW	035dH
	DW	035dH
	DW	035dH
	DW	035dH
	DW	035dH
	DW	035dH
	DW	035dH
	DW	035dH
	DW	035dH
	DW	035dH
	DW	035dH
	DW	035dH
	DW	035dH
	DW	035dH
	DW	035dH
	DW	035dH
	DW	035dH
	DW	035dH
	DW	035dH
	DW	035dH
	DW	035dH
	DW	035dH
	DW	035dH
	DW	035dH
	DW	035dH
	DW	035dH
	DW	035dH
	DW	035dH
	DW	035dH
	DW	035dH
	DW	035dH
	DW	035dH
	DW	035dH
	DW	035dH
	DW	035dH
	DW	035dH
	DW	035dH
	DW	035dH
	DW	035dH
	DW	035dH
	DW	035dH
	DW	035dH
	DW	035dH
	DW	035dH
	DW	035dH
	DW	035dH
	DW	035dH
	DW	035dH
	DW	035dH
	DW	035dH
	DW	035dH
	DW	035dH
	DW	035dH
	DW	035dH
	DW	035dH
	DW	035dH
	DW	035dH
	DW	035dH
	DW	035dH
	DW	035dH
	DW	035dH
	DW	035dH
	DW	035dH
	DW	035dH
	DW	035dH
	DW	035dH
	DW	035dH
	DW	035dH
	DW	035dH
	DW	035dH
	DW	035eH
	DW	035dH
	DW	01f0H
	DW	012d8H
	DW	0f5dH
	DW	075dH
	DW	075dH
	DW	075dH
	DW	075dH
	DW	075dH
	DW	075dH
	DW	075dH
	DW	075dH
	DW	075dH
	DW	075dH
	DW	075dH
	DW	075dH
	DW	075dH
	DW	075dH
	DW	075dH
	DW	075dH
	DW	075dH
	DW	075dH
	DW	075dH
	DW	075dH
	DW	075dH
	DW	075dH
	DW	075dH
	DW	075dH
	DW	075dH
	DW	075dH
	DW	075dH
	DW	075dH
	DW	075dH
	DW	075dH
	DW	075dH
	DW	075dH
	DW	075dH
	DW	075dH
	DW	075dH
	DW	075dH
	DW	075dH
	DW	075dH
	DW	075dH
	DW	075dH
	DW	075dH
	DW	075dH
	DW	075dH
	DW	075dH
	DW	075dH
	DW	075dH
	DW	075dH
	DW	075dH
	DW	075dH
	DW	075dH
	DW	075dH
	DW	075dH
	DW	075dH
	DW	075dH
	DW	075dH
	DW	075dH
	DW	075dH
	DW	075dH
	DW	075dH
	DW	075dH
	DW	075dH
	DW	075dH
	DW	075dH
	DW	075dH
	DW	075dH
	DW	075dH
	DW	075dH
	DW	075dH
	DW	075dH
	DW	075dH
	DW	075dH
	DW	075dH
	DW	075dH
	DW	075dH
	DW	075dH
	DW	075dH
	DW	075dH
	DW	075dH
	DW	075dH
	DW	075dH
	DW	075dH
	DW	075dH
	DW	075dH
	DW	075dH
	DW	075dH
	DW	075dH
	DW	075dH
	DW	075dH
	DW	075dH
	DW	075dH
	DW	075dH
	DW	075dH
	DW	075dH
	DW	075dH
	DW	075dH
	DW	075dH
	DW	075dH
	DW	075dH
	DW	075dH
	DW	075dH
	DW	075dH
	DW	075dH
	DW	075dH
	DW	075dH
	DW	075dH
	DW	075dH
	DW	01f0H
	DW	016d8H
	DW	0f5dH
	DW	075dH
	DW	075dH
	DW	075dH
	DW	075dH
	DW	075dH
	DW	075dH
	DW	075dH
	DW	075dH
	DW	075dH
	DW	075dH
	DW	075dH
	DW	075dH
	DW	075dH
	DW	075dH
	DW	075dH
	DW	075dH
	DW	075dH
	DW	075dH
	DW	075dH
	DW	075dH
	DW	075dH
	DW	075dH
	DW	075dH
	DW	075dH
	DW	075dH
	DW	075dH
	DW	075dH
	DW	075dH
	DW	075dH
	DW	075dH
	DW	075dH
	DW	075dH
	DW	075dH
	DW	075dH
	DW	075dH
	DW	075dH
	DW	075dH
	DW	075dH
	DW	075dH
	DW	075dH
	DW	075dH
	DW	075dH
	DW	075dH
	DW	075dH
	DW	075dH
	DW	075dH
	DW	075dH
	DW	075dH
	DW	075dH
	DW	075dH
	DW	075dH
	DW	075dH
	DW	075dH
	DW	075dH
	DW	075dH
	DW	075dH
	DW	075dH
	DW	075dH
	DW	075dH
	DW	075dH
	DW	075dH
	DW	075dH
	DW	075dH
	DW	075dH
	DW	075dH
	DW	075dH
	DW	075dH
	DW	075dH
	DW	075dH
	DW	075dH
	DW	075dH
	DW	075dH
	DW	075dH
	DW	075dH
	DW	075dH
	DW	075dH
	DW	075dH
	DW	075dH
	DW	075dH
	DW	075dH
	DW	075dH
	DW	075dH
	DW	075dH
	DW	075dH
	DW	075dH
	DW	075dH
	DW	075dH
	DW	075dH
	DW	075dH
	DW	075dH
	DW	075dH
	DW	075dH
	DW	075dH
	DW	075dH
	DW	075dH
	DW	075dH
	DW	075dH
	DW	075dH
	DW	075dH
	DW	075dH
	DW	075dH
	DW	075dH
	DW	075dH
	DW	075dH
	DW	075dH
	DW	075dH
	DW	01f0H
	DW	016d8H
	DW	0135dH
	DW	075dH
	DW	075dH
	DW	075dH
	DW	075dH
	DW	075dH
	DW	075dH
	DW	075dH
	DW	075dH
	DW	075dH
	DW	075dH
	DW	075dH
	DW	075dH
	DW	075dH
	DW	075dH
	DW	075dH
	DW	075dH
	DW	075dH
	DW	075dH
	DW	075dH
	DW	075dH
	DW	075dH
	DW	075dH
	DW	075dH
	DW	075dH
	DW	075dH
	DW	075dH
	DW	075dH
	DW	075dH
	DW	075dH
	DW	075dH
	DW	075dH
	DW	075dH
	DW	075dH
	DW	075dH
	DW	075dH
	DW	075dH
	DW	075dH
	DW	075dH
	DW	075dH
	DW	075dH
	DW	075dH
	DW	075dH
	DW	075dH
	DW	075dH
	DW	075dH
	DW	075dH
	DW	075dH
	DW	075dH
	DW	075dH
	DW	075dH
	DW	075dH
	DW	075dH
	DW	075dH
	DW	075dH
	DW	075dH
	DW	075dH
	DW	075dH
	DW	075dH
	DW	075dH
	DW	075dH
	DW	075dH
	DW	075dH
	DW	075dH
	DW	075dH
	DW	075dH
	DW	075dH
	DW	075dH
	DW	075dH
	DW	075dH
	DW	075dH
	DW	075dH
	DW	075dH
	DW	075dH
	DW	075dH
	DW	075dH
	DW	075dH
	DW	075dH
	DW	075dH
	DW	075dH
	DW	075dH
	DW	075dH
	DW	075dH
	DW	075dH
	DW	075dH
	DW	075dH
	DW	075dH
	DW	075dH
	DW	075dH
	DW	075dH
	DW	075dH
	DW	075dH
	DW	075dH
	DW	075dH
	DW	075dH
	DW	075dH
	DW	075dH
	DW	075dH
	DW	075dH
	DW	075dH
	DW	075dH
	DW	075dH
	DW	075dH
	DW	075dH
	DW	075dH
	DW	077dH
	DW	075dH
	DW	01f0H
	DW	016d8H
	DW	0135dH
	DW	075dH
	DW	075dH
	DW	075dH
	DW	075dH
	DW	075dH
	DW	075dH
	DW	075dH
	DW	075dH
	DW	075dH
	DW	075dH
	DW	075dH
	DW	075dH
	DW	075dH
	DW	075dH
	DW	075dH
	DW	075dH
	DW	075dH
	DW	075dH
	DW	075dH
	DW	075dH
	DW	075dH
	DW	075dH
	DW	075dH
	DW	075dH
	DW	075dH
	DW	075dH
	DW	075dH
	DW	075dH
	DW	075dH
	DW	075dH
	DW	075dH
	DW	075dH
	DW	075dH
	DW	075dH
	DW	075dH
	DW	075dH
	DW	075dH
	DW	075dH
	DW	075dH
	DW	075dH
	DW	075dH
	DW	075dH
	DW	075dH
	DW	075dH
	DW	075dH
	DW	075dH
	DW	075dH
	DW	075dH
	DW	075dH
	DW	075dH
	DW	075dH
	DW	075dH
	DW	075dH
	DW	075dH
	DW	075dH
	DW	075dH
	DW	075dH
	DW	075dH
	DW	075dH
	DW	075dH
	DW	075dH
	DW	075dH
	DW	075dH
	DW	075dH
	DW	075dH
	DW	075dH
	DW	075dH
	DW	075dH
	DW	075dH
	DW	075dH
	DW	075dH
	DW	075dH
	DW	075dH
	DW	075dH
	DW	075dH
	DW	075dH
	DW	075dH
	DW	075dH
	DW	075dH
	DW	075dH
	DW	075dH
	DW	075dH
	DW	075dH
	DW	075dH
	DW	075dH
	DW	075dH
	DW	075dH
	DW	075dH
	DW	075dH
	DW	075dH
	DW	075dH
	DW	075dH
	DW	075dH
	DW	075dH
	DW	075dH
	DW	075dH
	DW	075dH
	DW	075dH
	DW	075dH
	DW	075dH
	DW	075dH
	DW	075dH
	DW	075dH
	DW	075dH
	DW	077eH
	DW	075dH
	DW	01f0H
	DW	016d8H
	DW	0137dH
	DW	077dH
	DW	077dH
	DW	077dH
	DW	077dH
	DW	077dH
	DW	077dH
	DW	077dH
	DW	077dH
	DW	077dH
	DW	077dH
	DW	077dH
	DW	077dH
	DW	077dH
	DW	077dH
	DW	077dH
	DW	077dH
	DW	077dH
	DW	077dH
	DW	077dH
	DW	077dH
	DW	077dH
	DW	077dH
	DW	077dH
	DW	077dH
	DW	077dH
	DW	077dH
	DW	077dH
	DW	077dH
	DW	077dH
	DW	077dH
	DW	077dH
	DW	077dH
	DW	077dH
	DW	077dH
	DW	077dH
	DW	077dH
	DW	077dH
	DW	077dH
	DW	077dH
	DW	077dH
	DW	077dH
	DW	077dH
	DW	077dH
	DW	077dH
	DW	077dH
	DW	077dH
	DW	077dH
	DW	077dH
	DW	077dH
	DW	077dH
	DW	077dH
	DW	077dH
	DW	077dH
	DW	077dH
	DW	077dH
	DW	077dH
	DW	077dH
	DW	077dH
	DW	077dH
	DW	077dH
	DW	077dH
	DW	077dH
	DW	077dH
	DW	077dH
	DW	077dH
	DW	077dH
	DW	077dH
	DW	077dH
	DW	077dH
	DW	077dH
	DW	077dH
	DW	077dH
	DW	077dH
	DW	077dH
	DW	077dH
	DW	077dH
	DW	077dH
	DW	077dH
	DW	077dH
	DW	077dH
	DW	077dH
	DW	077dH
	DW	077dH
	DW	077dH
	DW	077dH
	DW	077dH
	DW	077dH
	DW	077dH
	DW	077dH
	DW	077dH
	DW	077dH
	DW	077dH
	DW	077dH
	DW	077dH
	DW	077dH
	DW	077dH
	DW	077dH
	DW	077dH
	DW	077dH
	DW	077dH
	DW	077dH
	DW	077dH
	DW	077dH
	DW	077dH
	DW	077eH
	DW	075dH
	DW	05f1H
	DW	016d8H
	DW	0137dH
	DW	0b7eH
	DW	0b7eH
	DW	0b7eH
	DW	0b7eH
	DW	0b7eH
	DW	0b7eH
	DW	0b7eH
	DW	0b7eH
	DW	0b7eH
	DW	0b7eH
	DW	0b7eH
	DW	0b7eH
	DW	0b7eH
	DW	0b7eH
	DW	0b7eH
	DW	0b7eH
	DW	0b7eH
	DW	0b7eH
	DW	0b7eH
	DW	0b7eH
	DW	0b7eH
	DW	0b7eH
	DW	0b7eH
	DW	0b7eH
	DW	0b7eH
	DW	0b7eH
	DW	0b7eH
	DW	0b7eH
	DW	0b7eH
	DW	0b7eH
	DW	0b7eH
	DW	0b7eH
	DW	0b7eH
	DW	0b7eH
	DW	0b7eH
	DW	0b7eH
	DW	0b7eH
	DW	0b7eH
	DW	0b7eH
	DW	0b7eH
	DW	0b7eH
	DW	0b7eH
	DW	0b7eH
	DW	0b7eH
	DW	0b7eH
	DW	0b7eH
	DW	0b7eH
	DW	0b7eH
	DW	0b7eH
	DW	0b7eH
	DW	0b7eH
	DW	0b7eH
	DW	0b7eH
	DW	0b7eH
	DW	0b7eH
	DW	0b7eH
	DW	0b7eH
	DW	0b7eH
	DW	0b7eH
	DW	0b7eH
	DW	0b7eH
	DW	0b7eH
	DW	0b7eH
	DW	0b7eH
	DW	0b7eH
	DW	0b7eH
	DW	0b7eH
	DW	0b7eH
	DW	0b7eH
	DW	0b7eH
	DW	0b7eH
	DW	0b7eH
	DW	0b7eH
	DW	0b7eH
	DW	0b7eH
	DW	0b7eH
	DW	0b7eH
	DW	0b7eH
	DW	0b7eH
	DW	0b7eH
	DW	0b7eH
	DW	0b7eH
	DW	0b7eH
	DW	0b7eH
	DW	0b7eH
	DW	0b7eH
	DW	0b7eH
	DW	0b7eH
	DW	0b7eH
	DW	0b7eH
	DW	0b7eH
	DW	0b7eH
	DW	0b7eH
	DW	0b7eH
	DW	0b7eH
	DW	0b7eH
	DW	0b7eH
	DW	0b7eH
	DW	0b7eH
	DW	0b7eH
	DW	0b7eH
	DW	0b7eH
	DW	0b7eH
	DW	0b7eH
	DW	0b7eH
	DW	0b5dH
	DW	05f1H
	DW	016d8H
	DW	0137dH
	DW	0b7eH
	DW	0b7eH
	DW	0b7eH
	DW	0b7eH
	DW	0b7eH
	DW	0b7eH
	DW	0b7eH
	DW	0b7eH
	DW	0b7eH
	DW	0b7eH
	DW	0b7eH
	DW	0b7eH
	DW	0b7eH
	DW	0b7eH
	DW	0b7eH
	DW	0b7eH
	DW	0b7eH
	DW	0b7eH
	DW	0b7eH
	DW	0b7eH
	DW	0b7eH
	DW	0b7eH
	DW	0b7eH
	DW	0b7eH
	DW	0b7eH
	DW	0b7eH
	DW	0b7eH
	DW	0b7eH
	DW	0b7eH
	DW	0b7eH
	DW	0b7eH
	DW	0b7eH
	DW	0b7eH
	DW	0b7eH
	DW	0b7eH
	DW	0b7eH
	DW	0b7eH
	DW	0b7eH
	DW	0b7eH
	DW	0b7eH
	DW	0b7eH
	DW	0b7eH
	DW	0b7eH
	DW	0b7eH
	DW	0b7eH
	DW	0b7eH
	DW	0b7eH
	DW	0b7eH
	DW	0b7eH
	DW	0b7eH
	DW	0b7eH
	DW	0b7eH
	DW	0b7eH
	DW	0b7eH
	DW	0b7eH
	DW	0b7eH
	DW	0b7eH
	DW	0b7eH
	DW	0b7eH
	DW	0b7eH
	DW	0b7eH
	DW	0b7eH
	DW	0b7eH
	DW	0b7eH
	DW	0b7eH
	DW	0b7eH
	DW	0b7eH
	DW	0b7eH
	DW	0b7eH
	DW	0b7eH
	DW	0b7eH
	DW	0b7eH
	DW	0b7eH
	DW	0b7eH
	DW	0b7eH
	DW	0b7eH
	DW	0b7eH
	DW	0b7eH
	DW	0b7eH
	DW	0b7eH
	DW	0b7eH
	DW	0b7eH
	DW	0b7eH
	DW	0b7eH
	DW	0b7eH
	DW	0b7eH
	DW	0b7eH
	DW	0b7eH
	DW	0b7eH
	DW	0b7eH
	DW	0b7eH
	DW	0b7eH
	DW	0b7eH
	DW	0b7eH
	DW	0b7eH
	DW	0b7eH
	DW	0b7eH
	DW	0b7eH
	DW	0b7eH
	DW	0b7eH
	DW	0b7eH
	DW	0b7eH
	DW	0b7eH
	DW	0b7eH
	DW	0b7eH
	DW	0b5dH
	DW	05f1H
	DW	01ad8H
	DW	0177eH
	DW	0b7eH
	DW	0b7eH
	DW	0b7eH
	DW	0b7eH
	DW	0b7eH
	DW	0b7eH
	DW	0b7eH
	DW	0b7eH
	DW	0b7eH
	DW	0b7eH
	DW	0b7eH
	DW	0b7eH
	DW	0b7eH
	DW	0b7eH
	DW	0b7eH
	DW	0b7eH
	DW	0b7eH
	DW	0b7eH
	DW	0b7eH
	DW	0b7eH
	DW	0b7eH
	DW	0b7eH
	DW	0b7eH
	DW	0b7eH
	DW	0b7eH
	DW	0b7eH
	DW	0b7eH
	DW	0b7eH
	DW	0b7eH
	DW	0b7eH
	DW	0b7eH
	DW	0b7eH
	DW	0b7eH
	DW	0b7eH
	DW	0b7eH
	DW	0b7eH
	DW	0b7eH
	DW	0b7eH
	DW	0b7eH
	DW	0b7eH
	DW	0b7eH
	DW	0b7eH
	DW	0b7eH
	DW	0b7eH
	DW	0b7eH
	DW	0b7eH
	DW	0b7eH
	DW	0b7eH
	DW	0b7eH
	DW	0b7eH
	DW	0b7eH
	DW	0b7eH
	DW	0b7eH
	DW	0b7eH
	DW	0b7eH
	DW	0b7eH
	DW	0b7eH
	DW	0b7eH
	DW	0b7eH
	DW	0b7eH
	DW	0b7eH
	DW	0b7eH
	DW	0b7eH
	DW	0b7eH
	DW	0b7eH
	DW	0b7eH
	DW	0b7eH
	DW	0b7eH
	DW	0b7eH
	DW	0b7eH
	DW	0b7eH
	DW	0b7eH
	DW	0b7eH
	DW	0b7eH
	DW	0b7eH
	DW	0b7eH
	DW	0b7eH
	DW	0b7eH
	DW	0b7eH
	DW	0b7eH
	DW	0b7eH
	DW	0b7eH
	DW	0b7eH
	DW	0b7eH
	DW	0b7eH
	DW	0b7eH
	DW	0b7eH
	DW	0b7eH
	DW	0b7eH
	DW	0b7eH
	DW	0b7eH
	DW	0b7eH
	DW	0b7eH
	DW	0b7eH
	DW	0b7eH
	DW	0b7eH
	DW	0b7eH
	DW	0b7eH
	DW	0b7eH
	DW	0b7eH
	DW	0b7eH
	DW	0b7eH
	DW	0b7eH
	DW	0b7eH
	DW	0b7eH
	DW	0b5dH
	DW	05f1H
	DW	01ad8H
	DW	0177eH
	DW	0b7eH
	DW	0f7eH
	DW	0f7eH
	DW	0f7eH
	DW	0f7eH
	DW	0f7eH
	DW	0f7eH
	DW	0f7eH
	DW	0f7eH
	DW	0f7eH
	DW	0f7eH
	DW	0f7eH
	DW	0f7eH
	DW	0f7eH
	DW	0f7eH
	DW	0f7eH
	DW	0f7eH
	DW	0f7eH
	DW	0f7eH
	DW	0f7eH
	DW	0f7eH
	DW	0f7eH
	DW	0f7eH
	DW	0f7eH
	DW	0f7eH
	DW	0f7eH
	DW	0f7eH
	DW	0f7eH
	DW	0f7eH
	DW	0f7eH
	DW	0f7eH
	DW	0f7eH
	DW	0f7eH
	DW	0f7eH
	DW	0f7eH
	DW	0f7eH
	DW	0f7eH
	DW	0f7eH
	DW	0f7eH
	DW	0f7eH
	DW	0f7eH
	DW	0f7eH
	DW	0f7eH
	DW	0f7eH
	DW	0f7eH
	DW	0f7eH
	DW	0f7eH
	DW	0f7eH
	DW	0f7eH
	DW	0f7eH
	DW	0f7eH
	DW	0f7eH
	DW	0f7eH
	DW	0f7eH
	DW	0f7eH
	DW	0f7eH
	DW	0f7eH
	DW	0f7eH
	DW	0f7eH
	DW	0f7eH
	DW	0f7eH
	DW	0f7eH
	DW	0f7eH
	DW	0f7eH
	DW	0f7eH
	DW	0f7eH
	DW	0f7eH
	DW	0f7eH
	DW	0f7eH
	DW	0f7eH
	DW	0f7eH
	DW	0f7eH
	DW	0f7eH
	DW	0f7eH
	DW	0f7eH
	DW	0f7eH
	DW	0f7eH
	DW	0f7eH
	DW	0f7eH
	DW	0f7eH
	DW	0f7eH
	DW	0f7eH
	DW	0f7eH
	DW	0f7eH
	DW	0f7eH
	DW	0f7eH
	DW	0f7eH
	DW	0f7eH
	DW	0f7eH
	DW	0f7eH
	DW	0f7eH
	DW	0f7eH
	DW	0f7eH
	DW	0f7eH
	DW	0f7eH
	DW	0f7eH
	DW	0f7eH
	DW	0f7eH
	DW	0f7eH
	DW	0f7eH
	DW	0f7eH
	DW	0f7eH
	DW	0f7eH
	DW	0f7eH
	DW	0f7eH
	DW	0f7dH
	DW	05f1H
	DW	01ad8H
	DW	0177eH
	DW	0f7eH
	DW	0f7eH
	DW	0f7eH
	DW	0f7eH
	DW	0f7eH
	DW	0f7eH
	DW	0f7eH
	DW	0f7eH
	DW	0f7eH
	DW	0f7eH
	DW	0f7eH
	DW	0f7eH
	DW	0f7eH
	DW	0f7eH
	DW	0f7eH
	DW	0f7eH
	DW	0f7eH
	DW	0f7eH
	DW	0f7eH
	DW	0f7eH
	DW	0f7eH
	DW	0f7eH
	DW	0f7eH
	DW	0f7eH
	DW	0f7eH
	DW	0f7eH
	DW	0f7eH
	DW	0f7eH
	DW	0f7eH
	DW	0f7eH
	DW	0f7eH
	DW	0f7eH
	DW	0f7eH
	DW	0f7eH
	DW	0f7eH
	DW	0f7eH
	DW	0f7eH
	DW	0f7eH
	DW	0f7eH
	DW	0f7eH
	DW	0f7eH
	DW	0f7eH
	DW	0f7eH
	DW	0f7eH
	DW	0f7eH
	DW	0f7eH
	DW	0f7eH
	DW	0f7eH
	DW	0f7eH
	DW	0f7eH
	DW	0f7eH
	DW	0f7eH
	DW	0f7eH
	DW	0f7eH
	DW	0f7eH
	DW	0f7eH
	DW	0f7eH
	DW	0f7eH
	DW	0f7eH
	DW	0f7eH
	DW	0f7eH
	DW	0f7eH
	DW	0f7eH
	DW	0f7eH
	DW	0f7eH
	DW	0f7eH
	DW	0f7eH
	DW	0f7eH
	DW	0f7eH
	DW	0f7eH
	DW	0f7eH
	DW	0f7eH
	DW	0f7eH
	DW	0f7eH
	DW	0f7eH
	DW	0f7eH
	DW	0f7eH
	DW	0f7eH
	DW	0f7eH
	DW	0f7eH
	DW	0f7eH
	DW	0f7eH
	DW	0f7eH
	DW	0f7eH
	DW	0f7eH
	DW	0f7eH
	DW	0f7eH
	DW	0f7eH
	DW	0f7eH
	DW	0f7eH
	DW	0f7eH
	DW	0f7eH
	DW	0f7eH
	DW	0f7eH
	DW	0f7eH
	DW	0f7eH
	DW	0f7eH
	DW	0f7eH
	DW	0f7eH
	DW	0f7eH
	DW	0f7eH
	DW	0f7eH
	DW	0f7eH
	DW	0f7eH
	DW	0f7eH
	DW	0f7eH
	DW	05f1H
	DW	01ad8H
	DW	01b7eH
	DW	0f7eH
	DW	0f7eH
	DW	0f7eH
	DW	0f7eH
	DW	0f7eH
	DW	0f7eH
	DW	0f7eH
	DW	0f7eH
	DW	0f7eH
	DW	0f7eH
	DW	0f7eH
	DW	0f7eH
	DW	0f7eH
	DW	0f7eH
	DW	0f7eH
	DW	0f7eH
	DW	0f7eH
	DW	0f7eH
	DW	0f7eH
	DW	0f7eH
	DW	0f7eH
	DW	0f7eH
	DW	0f7eH
	DW	0f7eH
	DW	0f7eH
	DW	0f7eH
	DW	0f7eH
	DW	0f7eH
	DW	0f7eH
	DW	0f7eH
	DW	0f7eH
	DW	0f7eH
	DW	0f7eH
	DW	0f7eH
	DW	0f7eH
	DW	0f7eH
	DW	0f7eH
	DW	0f7eH
	DW	0f7eH
	DW	0f7eH
	DW	0f7eH
	DW	0f7eH
	DW	0f7eH
	DW	0f7eH
	DW	0f7eH
	DW	0f7eH
	DW	0f7eH
	DW	0f7eH
	DW	0f7eH
	DW	0f7eH
	DW	0f7eH
	DW	0f7eH
	DW	0f7eH
	DW	0f7eH
	DW	0f7eH
	DW	0f7eH
	DW	0f7eH
	DW	0f7eH
	DW	0f7eH
	DW	0f7eH
	DW	0f7eH
	DW	0f7eH
	DW	0f7eH
	DW	0f7eH
	DW	0f7eH
	DW	0f7eH
	DW	0f7eH
	DW	0f7eH
	DW	0f7eH
	DW	0f7eH
	DW	0f7eH
	DW	0f7eH
	DW	0f7eH
	DW	0f7eH
	DW	0f7eH
	DW	0f7eH
	DW	0f7eH
	DW	0f7eH
	DW	0f7eH
	DW	0f7eH
	DW	0f7eH
	DW	0f7eH
	DW	0f7eH
	DW	0f7eH
	DW	0f7eH
	DW	0f7eH
	DW	0f7eH
	DW	0f7eH
	DW	0f7eH
	DW	0f7eH
	DW	0f7eH
	DW	0f7eH
	DW	0f7eH
	DW	0f7eH
	DW	0f7eH
	DW	0f7eH
	DW	0f7eH
	DW	0f7eH
	DW	0f7eH
	DW	0f7eH
	DW	0f7eH
	DW	0f7eH
	DW	0f7eH
	DW	0f7eH
	DW	0f7eH
	DW	0f7eH
	DW	09f1H
	DW	01ef9H
	DW	01b9eH
	DW	0139eH
	DW	0139eH
	DW	0139eH
	DW	0139eH
	DW	0139eH
	DW	0139eH
	DW	0139eH
	DW	0139eH
	DW	0139eH
	DW	0139eH
	DW	0139eH
	DW	0139eH
	DW	0139eH
	DW	0139eH
	DW	0139eH
	DW	0139eH
	DW	0139eH
	DW	0139eH
	DW	0139eH
	DW	0139eH
	DW	0139eH
	DW	0139eH
	DW	0139eH
	DW	0139eH
	DW	0139eH
	DW	0139eH
	DW	0139eH
	DW	0139eH
	DW	0139eH
	DW	0139eH
	DW	0139eH
	DW	0139eH
	DW	0139eH
	DW	0139eH
	DW	0139eH
	DW	0139eH
	DW	0139eH
	DW	0139eH
	DW	0139eH
	DW	0139eH
	DW	0139eH
	DW	0139eH
	DW	0139eH
	DW	0139eH
	DW	0139eH
	DW	0139eH
	DW	0139eH
	DW	0139eH
	DW	0139eH
	DW	0139eH
	DW	0139eH
	DW	0139eH
	DW	0139eH
	DW	0139eH
	DW	0139eH
	DW	0139eH
	DW	0139eH
	DW	0139eH
	DW	0139eH
	DW	0139eH
	DW	0139eH
	DW	0139eH
	DW	0139eH
	DW	0139eH
	DW	0139eH
	DW	0139eH
	DW	0139eH
	DW	0139eH
	DW	0139eH
	DW	0139eH
	DW	0139eH
	DW	0139eH
	DW	0139eH
	DW	0139eH
	DW	0139eH
	DW	0139eH
	DW	0139eH
	DW	0139eH
	DW	0139eH
	DW	0139eH
	DW	0139eH
	DW	0139eH
	DW	0139eH
	DW	0139eH
	DW	0139eH
	DW	0139eH
	DW	0139eH
	DW	0139eH
	DW	0139eH
	DW	0139eH
	DW	0139eH
	DW	0139eH
	DW	0139eH
	DW	0139eH
	DW	0139eH
	DW	0139eH
	DW	0139eH
	DW	0139eH
	DW	0139eH
	DW	0139eH
	DW	0139eH
	DW	0139eH
	DW	0139eH
	DW	0139eH
	DW	0139fH
	DW	0137eH
	DW	09f1H
	DW	01ef9H
	DW	01b9eH
	DW	0139fH
	DW	0139fH
	DW	0139fH
	DW	0139fH
	DW	0139fH
	DW	0139fH
	DW	0139fH
	DW	0139fH
	DW	0139fH
	DW	0139fH
	DW	0139fH
	DW	0139fH
	DW	0139fH
	DW	0139fH
	DW	0139fH
	DW	0139fH
	DW	0139fH
	DW	0139fH
	DW	0139fH
	DW	0139fH
	DW	0139fH
	DW	0139fH
	DW	0139fH
	DW	0139fH
	DW	0139fH
	DW	0139fH
	DW	0139fH
	DW	0139fH
	DW	0139fH
	DW	0139fH
	DW	0139fH
	DW	0139fH
	DW	0139fH
	DW	0139fH
	DW	0139fH
	DW	0139fH
	DW	0139fH
	DW	0139fH
	DW	0139fH
	DW	0139fH
	DW	0139fH
	DW	0139fH
	DW	0139fH
	DW	0139fH
	DW	0139fH
	DW	0139fH
	DW	0139fH
	DW	0139fH
	DW	0139fH
	DW	0139fH
	DW	0139fH
	DW	0139fH
	DW	0139fH
	DW	0139fH
	DW	0139fH
	DW	0139fH
	DW	0139fH
	DW	0139fH
	DW	0139fH
	DW	0139fH
	DW	0139fH
	DW	0139fH
	DW	0139fH
	DW	0139fH
	DW	0139fH
	DW	0139fH
	DW	0139fH
	DW	0139fH
	DW	0139fH
	DW	0139fH
	DW	0139fH
	DW	0139fH
	DW	0139fH
	DW	0139fH
	DW	0139fH
	DW	0139fH
	DW	0139fH
	DW	0139fH
	DW	0139fH
	DW	0139fH
	DW	0139fH
	DW	0139fH
	DW	0139fH
	DW	0139fH
	DW	0139fH
	DW	0139fH
	DW	0139fH
	DW	0139fH
	DW	0139fH
	DW	0139fH
	DW	0139fH
	DW	0139fH
	DW	0139fH
	DW	0139fH
	DW	0139fH
	DW	0139fH
	DW	0139fH
	DW	0139fH
	DW	0139fH
	DW	0139fH
	DW	0139fH
	DW	0139fH
	DW	0139fH
	DW	0139fH
	DW	0139fH
	DW	0137eH
	DW	0a11H
	DW	01ef9H
	DW	01b9eH
	DW	0139fH
	DW	0139fH
	DW	0139fH
	DW	0139fH
	DW	0139fH
	DW	0139fH
	DW	0139fH
	DW	0139fH
	DW	0139fH
	DW	0139fH
	DW	0139fH
	DW	0139fH
	DW	0139fH
	DW	0139fH
	DW	0139fH
	DW	0139fH
	DW	0139fH
	DW	0139fH
	DW	0139fH
	DW	0139fH
	DW	0139fH
	DW	0139fH
	DW	0139fH
	DW	0139fH
	DW	0139fH
	DW	0139fH
	DW	0139fH
	DW	0139fH
	DW	0139fH
	DW	0139fH
	DW	0139fH
	DW	0139fH
	DW	0139fH
	DW	0139fH
	DW	0139fH
	DW	0139fH
	DW	0139fH
	DW	0139fH
	DW	0139fH
	DW	0139fH
	DW	0139fH
	DW	0139fH
	DW	0139fH
	DW	0139fH
	DW	0139fH
	DW	0139fH
	DW	0139fH
	DW	0139fH
	DW	0139fH
	DW	0139fH
	DW	0139fH
	DW	0139fH
	DW	0139fH
	DW	0139fH
	DW	0139fH
	DW	0139fH
	DW	0139fH
	DW	0139fH
	DW	0139fH
	DW	0139fH
	DW	0139fH
	DW	0139fH
	DW	0139fH
	DW	0139fH
	DW	0139fH
	DW	0139fH
	DW	0139fH
	DW	0139fH
	DW	0139fH
	DW	0139fH
	DW	0139fH
	DW	0139fH
	DW	0139fH
	DW	0139fH
	DW	0139fH
	DW	0139fH
	DW	0139fH
	DW	0139fH
	DW	0139fH
	DW	0139fH
	DW	0139fH
	DW	0139fH
	DW	0139fH
	DW	0139fH
	DW	0139fH
	DW	0139fH
	DW	0139fH
	DW	0139fH
	DW	0139fH
	DW	0139fH
	DW	0139fH
	DW	0139fH
	DW	0139fH
	DW	0139fH
	DW	0139fH
	DW	0139fH
	DW	0139fH
	DW	0139fH
	DW	0139fH
	DW	0139fH
	DW	0139fH
	DW	0139fH
	DW	0139fH
	DW	0139fH
	DW	0139fH
	DW	0139eH
	DW	0a11H
	DW	01ef9H
	DW	01b9eH
	DW	0139fH
	DW	0139fH
	DW	0139fH
	DW	0139fH
	DW	0139fH
	DW	0139fH
	DW	0139fH
	DW	0139fH
	DW	0139fH
	DW	0139fH
	DW	0139fH
	DW	0139fH
	DW	0139fH
	DW	0139fH
	DW	0139fH
	DW	0139fH
	DW	0139fH
	DW	0139fH
	DW	0139fH
	DW	0139fH
	DW	0139fH
	DW	0139fH
	DW	0139fH
	DW	0139fH
	DW	0139fH
	DW	0139fH
	DW	0139fH
	DW	0139fH
	DW	0139fH
	DW	0139fH
	DW	0139fH
	DW	0139fH
	DW	0139fH
	DW	0139fH
	DW	0139fH
	DW	0139fH
	DW	0139fH
	DW	0139fH
	DW	0139fH
	DW	0139fH
	DW	0139fH
	DW	0139fH
	DW	0139fH
	DW	0139fH
	DW	0139fH
	DW	0139fH
	DW	0139fH
	DW	0139fH
	DW	0139fH
	DW	0139fH
	DW	0139fH
	DW	0139fH
	DW	0139fH
	DW	0139fH
	DW	0139fH
	DW	0139fH
	DW	0139fH
	DW	0139fH
	DW	0139fH
	DW	0139fH
	DW	0139fH
	DW	0139fH
	DW	0139fH
	DW	0139fH
	DW	0139fH
	DW	0139fH
	DW	0139fH
	DW	0139fH
	DW	0139fH
	DW	0139fH
	DW	0139fH
	DW	0139fH
	DW	0139fH
	DW	0139fH
	DW	0139fH
	DW	0139fH
	DW	0139fH
	DW	0139fH
	DW	0139fH
	DW	0139fH
	DW	0139fH
	DW	0139fH
	DW	0139fH
	DW	0139fH
	DW	0139fH
	DW	0139fH
	DW	0139fH
	DW	0139fH
	DW	0139fH
	DW	0139fH
	DW	0139fH
	DW	0139fH
	DW	0139fH
	DW	0139fH
	DW	0139fH
	DW	0139fH
	DW	0139fH
	DW	0139fH
	DW	0139fH
	DW	0139fH
	DW	0139fH
	DW	0139fH
	DW	0139fH
	DW	0139fH
	DW	0139fH
	DW	0139eH
	DW	0a11H
	DW	01ef9H
	DW	01b9eH
	DW	0139fH
	DW	0139fH
	DW	0139fH
	DW	0139fH
	DW	0139fH
	DW	0139fH
	DW	0139fH
	DW	0139fH
	DW	0139fH
	DW	0139fH
	DW	0139fH
	DW	0139fH
	DW	0139fH
	DW	0139fH
	DW	0139fH
	DW	0139fH
	DW	0139fH
	DW	0139fH
	DW	0139fH
	DW	0139fH
	DW	0139fH
	DW	0139fH
	DW	0139fH
	DW	0139fH
	DW	0139fH
	DW	0139fH
	DW	0139fH
	DW	0139fH
	DW	0139fH
	DW	0139fH
	DW	0139fH
	DW	0139fH
	DW	0139fH
	DW	0139fH
	DW	0139fH
	DW	0139fH
	DW	0139fH
	DW	0139fH
	DW	0139fH
	DW	0139fH
	DW	0139fH
	DW	0139fH
	DW	0139fH
	DW	0139fH
	DW	0139fH
	DW	0139fH
	DW	0139fH
	DW	0139fH
	DW	0139fH
	DW	0139fH
	DW	0139fH
	DW	0139fH
	DW	0139fH
	DW	0139fH
	DW	0139fH
	DW	0139fH
	DW	0139fH
	DW	0139fH
	DW	0139fH
	DW	0139fH
	DW	0139fH
	DW	0139fH
	DW	0139fH
	DW	0139fH
	DW	0139fH
	DW	0139fH
	DW	0139fH
	DW	0139fH
	DW	0139fH
	DW	0139fH
	DW	0139fH
	DW	0139fH
	DW	0139fH
	DW	0139fH
	DW	0139fH
	DW	0139fH
	DW	0139fH
	DW	0139fH
	DW	0139fH
	DW	0139fH
	DW	0139fH
	DW	0139fH
	DW	0139fH
	DW	0139fH
	DW	0139fH
	DW	0139fH
	DW	0139fH
	DW	0139fH
	DW	0139fH
	DW	0139fH
	DW	0139fH
	DW	0139fH
	DW	0139fH
	DW	0139fH
	DW	0139fH
	DW	0139fH
	DW	0139fH
	DW	0139fH
	DW	0139fH
	DW	0139fH
	DW	0139fH
	DW	0139fH
	DW	0139fH
	DW	0139fH
	DW	0139fH
	DW	0139eH
	DW	0a11H
	DW	01ef9H
	DW	01b9eH
	DW	0139fH
	DW	0139fH
	DW	0139fH
	DW	0139fH
	DW	0139fH
	DW	0139fH
	DW	0139fH
	DW	0139fH
	DW	0139fH
	DW	0139fH
	DW	0139fH
	DW	0139fH
	DW	0139fH
	DW	0139fH
	DW	0139fH
	DW	0139fH
	DW	0139fH
	DW	0139fH
	DW	0139fH
	DW	0139fH
	DW	0139fH
	DW	0139fH
	DW	0139fH
	DW	0139fH
	DW	0139fH
	DW	0139fH
	DW	0139fH
	DW	0139fH
	DW	0139fH
	DW	0139fH
	DW	0139fH
	DW	0139fH
	DW	0139fH
	DW	0139fH
	DW	0139fH
	DW	0139fH
	DW	0139fH
	DW	0139fH
	DW	0139fH
	DW	0139fH
	DW	0139fH
	DW	0139fH
	DW	0139fH
	DW	0139fH
	DW	0139fH
	DW	0139fH
	DW	0139fH
	DW	0139fH
	DW	0139fH
	DW	0139fH
	DW	0139fH
	DW	0139fH
	DW	0139fH
	DW	0139fH
	DW	0139fH
	DW	0139fH
	DW	0139fH
	DW	0139fH
	DW	0139fH
	DW	0139fH
	DW	0139fH
	DW	0139fH
	DW	0139fH
	DW	0139fH
	DW	0139fH
	DW	0139fH
	DW	0139fH
	DW	0139fH
	DW	0139fH
	DW	0139fH
	DW	0139fH
	DW	0139fH
	DW	0139fH
	DW	0139fH
	DW	0139fH
	DW	0139fH
	DW	0139fH
	DW	0139fH
	DW	0139fH
	DW	0139fH
	DW	0139fH
	DW	0139fH
	DW	0139fH
	DW	0139fH
	DW	0139fH
	DW	0139fH
	DW	0139fH
	DW	0139fH
	DW	0139fH
	DW	0139fH
	DW	0139fH
	DW	0139fH
	DW	0139fH
	DW	0139fH
	DW	0139fH
	DW	0139fH
	DW	0139fH
	DW	0139fH
	DW	0139fH
	DW	0139fH
	DW	0139fH
	DW	0139fH
	DW	0139fH
	DW	0139fH
	DW	013bfH
	DW	0139eH
	DW	0a11H
	DW	01af9H
	DW	01bbeH
	DW	0fbfH
	DW	0fbfH
	DW	0fbfH
	DW	0fbfH
	DW	0fbfH
	DW	0fbfH
	DW	0fbfH
	DW	0fbfH
	DW	0fbfH
	DW	0fbfH
	DW	0fbfH
	DW	0fbfH
	DW	0fbfH
	DW	0fbfH
	DW	0fbfH
	DW	0fbfH
	DW	0fbfH
	DW	0fbfH
	DW	0fbfH
	DW	0fbfH
	DW	0fbfH
	DW	0fbfH
	DW	0fbfH
	DW	0fbfH
	DW	0fbfH
	DW	0fbfH
	DW	0fbfH
	DW	0fbfH
	DW	0fbfH
	DW	0fbfH
	DW	0fbfH
	DW	0fbfH
	DW	0fbfH
	DW	0fbfH
	DW	0fbfH
	DW	0fbfH
	DW	0fbfH
	DW	0fbfH
	DW	0fbfH
	DW	0fbfH
	DW	0fbfH
	DW	0fbfH
	DW	0fbfH
	DW	0fbfH
	DW	0fbfH
	DW	0fbfH
	DW	0fbfH
	DW	0fbfH
	DW	0fbfH
	DW	0fbfH
	DW	0fbfH
	DW	0fbfH
	DW	0fbfH
	DW	0fbfH
	DW	0fbfH
	DW	0fbfH
	DW	0fbfH
	DW	0fbfH
	DW	0fbfH
	DW	0fbfH
	DW	0fbfH
	DW	0fbfH
	DW	0fbfH
	DW	0fbfH
	DW	0fbfH
	DW	0fbfH
	DW	0fbfH
	DW	0fbfH
	DW	0fbfH
	DW	0fbfH
	DW	0fbfH
	DW	0fbfH
	DW	0fbfH
	DW	0fbfH
	DW	0fbfH
	DW	0fbfH
	DW	0fbfH
	DW	0fbfH
	DW	0fbfH
	DW	0fbfH
	DW	0fbfH
	DW	0fbfH
	DW	0fbfH
	DW	0fbfH
	DW	0fbfH
	DW	0fbfH
	DW	0fbfH
	DW	0fbfH
	DW	0fbfH
	DW	0fbfH
	DW	0fbfH
	DW	0fbfH
	DW	0fbfH
	DW	0fbfH
	DW	0fbfH
	DW	0fbfH
	DW	0fbfH
	DW	0fbfH
	DW	0fbfH
	DW	0fbfH
	DW	0fbfH
	DW	0fbfH
	DW	0fbfH
	DW	0fbfH
	DW	0fbfH
	DW	0f9eH
	DW	0a11H
	DW	01b19H
	DW	017beH
	DW	0fbfH
	DW	0fbfH
	DW	0fbfH
	DW	0fbfH
	DW	0fbfH
	DW	0fbfH
	DW	0fbfH
	DW	0fbfH
	DW	0fbfH
	DW	0fbfH
	DW	0fbfH
	DW	0fbfH
	DW	0fbfH
	DW	0fbfH
	DW	0fbfH
	DW	0fbfH
	DW	0fbfH
	DW	0fbfH
	DW	0fbfH
	DW	0fbfH
	DW	0fbfH
	DW	0fbfH
	DW	0fbfH
	DW	0fbfH
	DW	0fbfH
	DW	0fbfH
	DW	0fbfH
	DW	0fbfH
	DW	0fbfH
	DW	0fbfH
	DW	0fbfH
	DW	0fbfH
	DW	0fbfH
	DW	0fbfH
	DW	0fbfH
	DW	0fbfH
	DW	0fbfH
	DW	0fbfH
	DW	0fbfH
	DW	0fbfH
	DW	0fbfH
	DW	0fbfH
	DW	0fbfH
	DW	0fbfH
	DW	0fbfH
	DW	0fbfH
	DW	0fbfH
	DW	0fbfH
	DW	0fbfH
	DW	0fbfH
	DW	0fbfH
	DW	0fbfH
	DW	0fbfH
	DW	0fbfH
	DW	0fbfH
	DW	0fbfH
	DW	0fbfH
	DW	0fbfH
	DW	0fbfH
	DW	0fbfH
	DW	0fbfH
	DW	0fbfH
	DW	0fbfH
	DW	0fbfH
	DW	0fbfH
	DW	0fbfH
	DW	0fbfH
	DW	0fbfH
	DW	0fbfH
	DW	0fbfH
	DW	0fbfH
	DW	0fbfH
	DW	0fbfH
	DW	0fbfH
	DW	0fbfH
	DW	0fbfH
	DW	0fbfH
	DW	0fbfH
	DW	0fbfH
	DW	0fbfH
	DW	0fbfH
	DW	0fbfH
	DW	0fbfH
	DW	0fbfH
	DW	0fbfH
	DW	0fbfH
	DW	0fbfH
	DW	0fbfH
	DW	0fbfH
	DW	0fbfH
	DW	0fbfH
	DW	0fbfH
	DW	0fbfH
	DW	0fbfH
	DW	0fbfH
	DW	0fbfH
	DW	0fbfH
	DW	0fbfH
	DW	0fbfH
	DW	0fbfH
	DW	0fbfH
	DW	0fbfH
	DW	0fbfH
	DW	0fbfH
	DW	0fbfH
	DW	0fbeH
	DW	0a11H
	DW	01b19H
	DW	017beH
	DW	0bbfH
	DW	0fbfH
	DW	0fbfH
	DW	0fbfH
	DW	0fbfH
	DW	0fbfH
	DW	0fbfH
	DW	0fbfH
	DW	0fbfH
	DW	0fbfH
	DW	0fbfH
	DW	0fbfH
	DW	0fbfH
	DW	0fbfH
	DW	0fbfH
	DW	0fbfH
	DW	0fbfH
	DW	0fbfH
	DW	0fbfH
	DW	0fbfH
	DW	0fbfH
	DW	0fbfH
	DW	0fbfH
	DW	0fbfH
	DW	0fbfH
	DW	0fbfH
	DW	0fbfH
	DW	0fbfH
	DW	0fbfH
	DW	0fbfH
	DW	0fbfH
	DW	0fbfH
	DW	0fbfH
	DW	0fbfH
	DW	0fbfH
	DW	0fbfH
	DW	0fbfH
	DW	0fbfH
	DW	0fbfH
	DW	0fbfH
	DW	0fbfH
	DW	0fbfH
	DW	0fbfH
	DW	0fbfH
	DW	0fbfH
	DW	0fbfH
	DW	0fbfH
	DW	0fbfH
	DW	0fbfH
	DW	0fbfH
	DW	0fbfH
	DW	0fbfH
	DW	0fbfH
	DW	0fbfH
	DW	0fbfH
	DW	0fbfH
	DW	0fbfH
	DW	0fbfH
	DW	0fbfH
	DW	0fbfH
	DW	0fbfH
	DW	0fbfH
	DW	0fbfH
	DW	0fbfH
	DW	0fbfH
	DW	0fbfH
	DW	0fbfH
	DW	0fbfH
	DW	0fbfH
	DW	0fbfH
	DW	0fbfH
	DW	0fbfH
	DW	0fbfH
	DW	0fbfH
	DW	0fbfH
	DW	0fbfH
	DW	0fbfH
	DW	0fbfH
	DW	0fbfH
	DW	0fbfH
	DW	0fbfH
	DW	0fbfH
	DW	0fbfH
	DW	0fbfH
	DW	0fbfH
	DW	0fbfH
	DW	0fbfH
	DW	0fbfH
	DW	0fbfH
	DW	0fbfH
	DW	0fbfH
	DW	0fbfH
	DW	0fbfH
	DW	0fbfH
	DW	0fbfH
	DW	0fbfH
	DW	0fbfH
	DW	0fbfH
	DW	0fbfH
	DW	0fbfH
	DW	0fbfH
	DW	0fbfH
	DW	0fbfH
	DW	0fbfH
	DW	0fdfH
	DW	0fbeH
	DW	0611H
	DW	01719H
	DW	013beH
	DW	0bbfH
	DW	0bbfH
	DW	0bbfH
	DW	0bbfH
	DW	0bbfH
	DW	0bbfH
	DW	0bbfH
	DW	0bbfH
	DW	0bbfH
	DW	0bbfH
	DW	0bbfH
	DW	0bbfH
	DW	0bbfH
	DW	0bbfH
	DW	0bbfH
	DW	0bbfH
	DW	0bbfH
	DW	0bbfH
	DW	0bbfH
	DW	0bbfH
	DW	0bbfH
	DW	0bbfH
	DW	0bbfH
	DW	0bbfH
	DW	0bbfH
	DW	0bbfH
	DW	0bbfH
	DW	0bbfH
	DW	0bbfH
	DW	0bbfH
	DW	0bbfH
	DW	0bbfH
	DW	0bbfH
	DW	0bbfH
	DW	0bbfH
	DW	0bbfH
	DW	0bbfH
	DW	0bbfH
	DW	0bbfH
	DW	0bbfH
	DW	0bbfH
	DW	0bbfH
	DW	0bbfH
	DW	0bbfH
	DW	0bbfH
	DW	0bbfH
	DW	0bbfH
	DW	0bbfH
	DW	0bbfH
	DW	0bbfH
	DW	0bbfH
	DW	0bbfH
	DW	0bbfH
	DW	0bbfH
	DW	0bbfH
	DW	0bbfH
	DW	0bbfH
	DW	0bbfH
	DW	0bbfH
	DW	0bbfH
	DW	0bbfH
	DW	0bbfH
	DW	0bbfH
	DW	0bbfH
	DW	0bbfH
	DW	0bbfH
	DW	0bbfH
	DW	0bbfH
	DW	0bbfH
	DW	0bbfH
	DW	0bbfH
	DW	0bbfH
	DW	0bbfH
	DW	0bbfH
	DW	0bbfH
	DW	0bbfH
	DW	0bbfH
	DW	0bbfH
	DW	0bbfH
	DW	0bbfH
	DW	0bbfH
	DW	0bbfH
	DW	0bbfH
	DW	0bbfH
	DW	0bbfH
	DW	0bbfH
	DW	0bbfH
	DW	0bbfH
	DW	0bbfH
	DW	0bbfH
	DW	0bbfH
	DW	0bbfH
	DW	0bbfH
	DW	0bbfH
	DW	0bbfH
	DW	0bbfH
	DW	0bbfH
	DW	0bbfH
	DW	0bbfH
	DW	0bbfH
	DW	0bbfH
	DW	0bbfH
	DW	0bbfH
	DW	0bbfH
	DW	0bdfH
	DW	0bbeH
	DW	0631H
	DW	01719H
	DW	013beH
	DW	07bfH
	DW	0bbfH
	DW	0bbfH
	DW	0bbfH
	DW	0bbfH
	DW	0bbfH
	DW	0bbfH
	DW	0bbfH
	DW	0bbfH
	DW	0bbfH
	DW	0bbfH
	DW	0bbfH
	DW	0bbfH
	DW	0bbfH
	DW	0bbfH
	DW	0bbfH
	DW	0bbfH
	DW	0bbfH
	DW	0bbfH
	DW	0bbfH
	DW	0bbfH
	DW	0bbfH
	DW	0bbfH
	DW	0bbfH
	DW	0bbfH
	DW	0bbfH
	DW	0bbfH
	DW	0bbfH
	DW	0bbfH
	DW	0bbfH
	DW	0bbfH
	DW	0bbfH
	DW	0bbfH
	DW	0bbfH
	DW	0bbfH
	DW	0bbfH
	DW	0bbfH
	DW	0bbfH
	DW	0bbfH
	DW	0bbfH
	DW	0bbfH
	DW	0bbfH
	DW	0bbfH
	DW	0bbfH
	DW	0bbfH
	DW	0bbfH
	DW	0bbfH
	DW	0bbfH
	DW	0bbfH
	DW	0bbfH
	DW	0bbfH
	DW	0bbfH
	DW	0bbfH
	DW	0bbfH
	DW	0bbfH
	DW	0bbfH
	DW	0bbfH
	DW	0bbfH
	DW	0bbfH
	DW	0bbfH
	DW	0bbfH
	DW	0bbfH
	DW	0bbfH
	DW	0bbfH
	DW	0bbfH
	DW	0bbfH
	DW	0bbfH
	DW	0bbfH
	DW	0bbfH
	DW	0bbfH
	DW	0bbfH
	DW	0bbfH
	DW	0bbfH
	DW	0bbfH
	DW	0bbfH
	DW	0bbfH
	DW	0bbfH
	DW	0bbfH
	DW	0bbfH
	DW	0bbfH
	DW	0bbfH
	DW	0bbfH
	DW	0bbfH
	DW	0bbfH
	DW	0bbfH
	DW	0bbfH
	DW	0bbfH
	DW	0bbfH
	DW	0bbfH
	DW	0bbfH
	DW	0bbfH
	DW	0bbfH
	DW	0bbfH
	DW	0bbfH
	DW	0bbfH
	DW	0bbfH
	DW	0bbfH
	DW	0bbfH
	DW	0bbfH
	DW	0bbfH
	DW	0bbfH
	DW	0bbfH
	DW	0bbfH
	DW	0bbfH
	DW	0bdfH
	DW	0bbeH
	DW	0631H
	DW	01719H
	DW	013beH
	DW	07bfH
	DW	07bfH
	DW	07bfH
	DW	07bfH
	DW	07bfH
	DW	07bfH
	DW	07bfH
	DW	07bfH
	DW	07bfH
	DW	07bfH
	DW	07bfH
	DW	07bfH
	DW	07bfH
	DW	07bfH
	DW	07bfH
	DW	07bfH
	DW	07bfH
	DW	07bfH
	DW	07bfH
	DW	07bfH
	DW	07bfH
	DW	07bfH
	DW	07bfH
	DW	07bfH
	DW	07bfH
	DW	07bfH
	DW	07bfH
	DW	07bfH
	DW	07bfH
	DW	07bfH
	DW	07bfH
	DW	07bfH
	DW	07bfH
	DW	07bfH
	DW	07bfH
	DW	07bfH
	DW	07bfH
	DW	07bfH
	DW	07bfH
	DW	07bfH
	DW	07bfH
	DW	07bfH
	DW	07bfH
	DW	07bfH
	DW	07bfH
	DW	07bfH
	DW	07bfH
	DW	07bfH
	DW	07bfH
	DW	07bfH
	DW	07bfH
	DW	07bfH
	DW	07bfH
	DW	07bfH
	DW	07bfH
	DW	07bfH
	DW	07bfH
	DW	07bfH
	DW	07bfH
	DW	07bfH
	DW	07bfH
	DW	07bfH
	DW	07bfH
	DW	07bfH
	DW	07bfH
	DW	07bfH
	DW	07bfH
	DW	07bfH
	DW	07bfH
	DW	07bfH
	DW	07bfH
	DW	07bfH
	DW	07bfH
	DW	07bfH
	DW	07bfH
	DW	07bfH
	DW	07bfH
	DW	07bfH
	DW	07bfH
	DW	07bfH
	DW	07bfH
	DW	07bfH
	DW	07bfH
	DW	07bfH
	DW	07bfH
	DW	07bfH
	DW	07bfH
	DW	07bfH
	DW	07bfH
	DW	07bfH
	DW	07bfH
	DW	07bfH
	DW	07bfH
	DW	07bfH
	DW	07bfH
	DW	07bfH
	DW	07bfH
	DW	07bfH
	DW	07bfH
	DW	07bfH
	DW	07bfH
	DW	07bfH
	DW	07bfH
	DW	07bfH
	DW	07dfH
	DW	07beH
	DW	0231H
	DW	01319H
	DW	0fbeH
	DW	03bfH
	DW	07bfH
	DW	07bfH
	DW	07bfH
	DW	07bfH
	DW	07bfH
	DW	07bfH
	DW	07bfH
	DW	07bfH
	DW	07bfH
	DW	07bfH
	DW	07bfH
	DW	07bfH
	DW	07bfH
	DW	07bfH
	DW	07bfH
	DW	07bfH
	DW	07bfH
	DW	07bfH
	DW	07bfH
	DW	07bfH
	DW	07bfH
	DW	07bfH
	DW	07bfH
	DW	07bfH
	DW	07bfH
	DW	07bfH
	DW	07bfH
	DW	07bfH
	DW	07bfH
	DW	07bfH
	DW	07bfH
	DW	07bfH
	DW	07bfH
	DW	07bfH
	DW	07bfH
	DW	07bfH
	DW	07bfH
	DW	07bfH
	DW	07bfH
	DW	07bfH
	DW	07bfH
	DW	07bfH
	DW	07bfH
	DW	07bfH
	DW	07bfH
	DW	07bfH
	DW	07bfH
	DW	07bfH
	DW	07bfH
	DW	07bfH
	DW	07bfH
	DW	07bfH
	DW	07bfH
	DW	07bfH
	DW	07bfH
	DW	07bfH
	DW	07bfH
	DW	07bfH
	DW	07bfH
	DW	07bfH
	DW	07bfH
	DW	07bfH
	DW	07bfH
	DW	07bfH
	DW	07bfH
	DW	07bfH
	DW	07bfH
	DW	07bfH
	DW	07bfH
	DW	07bfH
	DW	07bfH
	DW	07bfH
	DW	07bfH
	DW	07bfH
	DW	07bfH
	DW	07bfH
	DW	07bfH
	DW	07bfH
	DW	07bfH
	DW	07bfH
	DW	07bfH
	DW	07bfH
	DW	07bfH
	DW	07bfH
	DW	07bfH
	DW	07bfH
	DW	07bfH
	DW	07bfH
	DW	07bfH
	DW	07bfH
	DW	07bfH
	DW	07bfH
	DW	07bfH
	DW	07bfH
	DW	07bfH
	DW	07bfH
	DW	07bfH
	DW	07bfH
	DW	07bfH
	DW	07bfH
	DW	07bfH
	DW	07bfH
	DW	07bfH
	DW	07dfH
	DW	07beH
	DW	0231H
	DW	01319H
	DW	0fbeH
	DW	03bfH
	DW	03bfH
	DW	03bfH
	DW	03bfH
	DW	03bfH
	DW	03bfH
	DW	03bfH
	DW	03bfH
	DW	03bfH
	DW	03bfH
	DW	03bfH
	DW	03bfH
	DW	03bfH
	DW	03bfH
	DW	03bfH
	DW	03bfH
	DW	03bfH
	DW	03bfH
	DW	03bfH
	DW	03bfH
	DW	03bfH
	DW	03bfH
	DW	03bfH
	DW	03bfH
	DW	03bfH
	DW	03bfH
	DW	03bfH
	DW	03bfH
	DW	03bfH
	DW	03bfH
	DW	03bfH
	DW	03bfH
	DW	03bfH
	DW	03bfH
	DW	03bfH
	DW	03bfH
	DW	03bfH
	DW	03bfH
	DW	03bfH
	DW	03bfH
	DW	03bfH
	DW	03bfH
	DW	03bfH
	DW	03bfH
	DW	03bfH
	DW	03bfH
	DW	03bfH
	DW	03bfH
	DW	03bfH
	DW	03bfH
	DW	03bfH
	DW	03bfH
	DW	03bfH
	DW	03bfH
	DW	03bfH
	DW	03bfH
	DW	03bfH
	DW	03bfH
	DW	03bfH
	DW	03bfH
	DW	03bfH
	DW	03bfH
	DW	03bfH
	DW	03bfH
	DW	03bfH
	DW	03bfH
	DW	03bfH
	DW	03bfH
	DW	03bfH
	DW	03bfH
	DW	03bfH
	DW	03bfH
	DW	03bfH
	DW	03bfH
	DW	03bfH
	DW	03bfH
	DW	03bfH
	DW	03bfH
	DW	03bfH
	DW	03bfH
	DW	03bfH
	DW	03bfH
	DW	03bfH
	DW	03bfH
	DW	03bfH
	DW	03bfH
	DW	03bfH
	DW	03bfH
	DW	03bfH
	DW	03bfH
	DW	03bfH
	DW	03bfH
	DW	03bfH
	DW	03bfH
	DW	03bfH
	DW	03bfH
	DW	03bfH
	DW	03bfH
	DW	03bfH
	DW	03bfH
	DW	03bfH
	DW	03bfH
	DW	03bfH
	DW	03bfH
	DW	03dfH
	DW	03beH
	DW	0231H
	DW	01319H
	DW	0bbeH
	DW	03bfH
	DW	03bfH
	DW	03bfH
	DW	03bfH
	DW	03bfH
	DW	03bfH
	DW	03bfH
	DW	03bfH
	DW	03bfH
	DW	03bfH
	DW	03bfH
	DW	03bfH
	DW	03bfH
	DW	03bfH
	DW	03bfH
	DW	03bfH
	DW	03bfH
	DW	03bfH
	DW	03bfH
	DW	03bfH
	DW	03bfH
	DW	03bfH
	DW	03bfH
	DW	03bfH
	DW	03bfH
	DW	03bfH
	DW	03bfH
	DW	03bfH
	DW	03bfH
	DW	03bfH
	DW	03bfH
	DW	03bfH
	DW	03bfH
	DW	03bfH
	DW	03bfH
	DW	03bfH
	DW	03bfH
	DW	03bfH
	DW	03bfH
	DW	03bfH
	DW	03bfH
	DW	03bfH
	DW	03bfH
	DW	03bfH
	DW	03bfH
	DW	03bfH
	DW	03bfH
	DW	03bfH
	DW	03bfH
	DW	03bfH
	DW	03bfH
	DW	03bfH
	DW	03bfH
	DW	03bfH
	DW	03bfH
	DW	03bfH
	DW	03bfH
	DW	03bfH
	DW	03bfH
	DW	03bfH
	DW	03bfH
	DW	03bfH
	DW	03bfH
	DW	03bfH
	DW	03bfH
	DW	03bfH
	DW	03bfH
	DW	03bfH
	DW	03bfH
	DW	03bfH
	DW	03bfH
	DW	03bfH
	DW	03bfH
	DW	03bfH
	DW	03bfH
	DW	03bfH
	DW	03bfH
	DW	03bfH
	DW	03bfH
	DW	03bfH
	DW	03bfH
	DW	03bfH
	DW	03bfH
	DW	03bfH
	DW	03bfH
	DW	03bfH
	DW	03bfH
	DW	03bfH
	DW	03bfH
	DW	03bfH
	DW	03bfH
	DW	03bfH
	DW	03bfH
	DW	03bfH
	DW	03bfH
	DW	03bfH
	DW	03bfH
	DW	03bfH
	DW	03bfH
	DW	03bfH
	DW	03bfH
	DW	03bfH
	DW	03bfH
	DW	03bfH
	DW	03dfH
	DW	03beH
	DW	0231H
	DW	012f9H
	DW	0bbeH
	DW	03bfH
	DW	03bfH
	DW	03bfH
	DW	03bfH
	DW	03bfH
	DW	03bfH
	DW	03bfH
	DW	03bfH
	DW	03bfH
	DW	03bfH
	DW	03bfH
	DW	03bfH
	DW	03bfH
	DW	03bfH
	DW	03bfH
	DW	03bfH
	DW	03bfH
	DW	03bfH
	DW	03bfH
	DW	03bfH
	DW	03bfH
	DW	03bfH
	DW	03bfH
	DW	03bfH
	DW	03bfH
	DW	03bfH
	DW	03bfH
	DW	03bfH
	DW	03bfH
	DW	03bfH
	DW	03bfH
	DW	03bfH
	DW	03bfH
	DW	03bfH
	DW	03bfH
	DW	03bfH
	DW	03bfH
	DW	03bfH
	DW	03bfH
	DW	03bfH
	DW	03bfH
	DW	03bfH
	DW	03bfH
	DW	03bfH
	DW	03bfH
	DW	03bfH
	DW	03bfH
	DW	03bfH
	DW	03bfH
	DW	03bfH
	DW	03bfH
	DW	03bfH
	DW	03bfH
	DW	03bfH
	DW	03bfH
	DW	03bfH
	DW	03bfH
	DW	03bfH
	DW	03bfH
	DW	03bfH
	DW	03bfH
	DW	03bfH
	DW	03bfH
	DW	03bfH
	DW	03bfH
	DW	03bfH
	DW	03bfH
	DW	03bfH
	DW	03bfH
	DW	03bfH
	DW	03bfH
	DW	03bfH
	DW	03bfH
	DW	03bfH
	DW	03bfH
	DW	03bfH
	DW	03bfH
	DW	03bfH
	DW	03bfH
	DW	03bfH
	DW	03bfH
	DW	03bfH
	DW	03bfH
	DW	03bfH
	DW	03bfH
	DW	03bfH
	DW	03bfH
	DW	03bfH
	DW	03bfH
	DW	03bfH
	DW	03bfH
	DW	03bfH
	DW	03bfH
	DW	03bfH
	DW	03bfH
	DW	03bfH
	DW	03bfH
	DW	03bfH
	DW	03bfH
	DW	03bfH
	DW	03bfH
	DW	03bfH
	DW	03bfH
	DW	03bfH
	DW	03bfH
	DW	039eH
	DW	0211H
	DW	012f9H
	DW	0b9fH
	DW	039fH
	DW	039fH
	DW	039fH
	DW	039fH
	DW	039fH
	DW	039fH
	DW	039fH
	DW	039fH
	DW	039fH
	DW	039fH
	DW	039fH
	DW	039fH
	DW	039fH
	DW	039fH
	DW	039fH
	DW	039fH
	DW	039fH
	DW	039fH
	DW	039fH
	DW	039fH
	DW	039fH
	DW	039fH
	DW	039fH
	DW	039fH
	DW	039fH
	DW	039fH
	DW	039fH
	DW	039fH
	DW	039fH
	DW	039fH
	DW	039fH
	DW	039fH
	DW	039fH
	DW	039fH
	DW	039fH
	DW	039fH
	DW	039fH
	DW	039fH
	DW	039fH
	DW	039fH
	DW	039fH
	DW	039fH
	DW	039fH
	DW	039fH
	DW	039fH
	DW	039fH
	DW	039fH
	DW	039fH
	DW	039fH
	DW	039fH
	DW	039fH
	DW	039fH
	DW	039fH
	DW	039fH
	DW	039fH
	DW	039fH
	DW	039fH
	DW	039fH
	DW	039fH
	DW	039fH
	DW	039fH
	DW	039fH
	DW	039fH
	DW	039fH
	DW	039fH
	DW	039fH
	DW	039fH
	DW	039fH
	DW	039fH
	DW	039fH
	DW	039fH
	DW	039fH
	DW	039fH
	DW	039fH
	DW	039fH
	DW	039fH
	DW	039fH
	DW	039fH
	DW	039fH
	DW	039fH
	DW	039fH
	DW	039fH
	DW	039fH
	DW	039fH
	DW	039fH
	DW	039fH
	DW	039fH
	DW	039fH
	DW	039fH
	DW	039fH
	DW	039fH
	DW	039fH
	DW	039fH
	DW	039fH
	DW	039fH
	DW	039fH
	DW	039fH
	DW	039fH
	DW	039fH
	DW	039fH
	DW	039fH
	DW	039fH
	DW	039fH
	DW	039fH
	DW	039fH
	DW	037fH
	DW	0211H
	DW	012d9H
	DW	0b7fH
	DW	037fH
	DW	037fH
	DW	037fH
	DW	037fH
	DW	037fH
	DW	037fH
	DW	037fH
	DW	037fH
	DW	037fH
	DW	037fH
	DW	037fH
	DW	037fH
	DW	037fH
	DW	037fH
	DW	037fH
	DW	037fH
	DW	037fH
	DW	037fH
	DW	037fH
	DW	037fH
	DW	037fH
	DW	037fH
	DW	037fH
	DW	037fH
	DW	037fH
	DW	037fH
	DW	037fH
	DW	037fH
	DW	037fH
	DW	037fH
	DW	037fH
	DW	037fH
	DW	037fH
	DW	037fH
	DW	037fH
	DW	037fH
	DW	037fH
	DW	037fH
	DW	037fH
	DW	037fH
	DW	037fH
	DW	037fH
	DW	037fH
	DW	037fH
	DW	037fH
	DW	037fH
	DW	037fH
	DW	037fH
	DW	037fH
	DW	037fH
	DW	037fH
	DW	037fH
	DW	037fH
	DW	037fH
	DW	037fH
	DW	037fH
	DW	037fH
	DW	037fH
	DW	037fH
	DW	037fH
	DW	037fH
	DW	037fH
	DW	037fH
	DW	037fH
	DW	037fH
	DW	037fH
	DW	037fH
	DW	037fH
	DW	037fH
	DW	037fH
	DW	037fH
	DW	037fH
	DW	037fH
	DW	037fH
	DW	037fH
	DW	037fH
	DW	037fH
	DW	037fH
	DW	037fH
	DW	037fH
	DW	037fH
	DW	037fH
	DW	037fH
	DW	037fH
	DW	037fH
	DW	037fH
	DW	037fH
	DW	037fH
	DW	037fH
	DW	037fH
	DW	037fH
	DW	037fH
	DW	037fH
	DW	037fH
	DW	037fH
	DW	037fH
	DW	037fH
	DW	037fH
	DW	037fH
	DW	037fH
	DW	037fH
	DW	037fH
	DW	037fH
	DW	037fH
	DW	037fH
	DW	035fH
	DW	01f1H
	DW	012b9H
	DW	0b3fH
	DW	033fH
	DW	033fH
	DW	033fH
	DW	033fH
	DW	033fH
	DW	033fH
	DW	033fH
	DW	033fH
	DW	033fH
	DW	033fH
	DW	033fH
	DW	033fH
	DW	033fH
	DW	033fH
	DW	033fH
	DW	033fH
	DW	033fH
	DW	033fH
	DW	033fH
	DW	033fH
	DW	033fH
	DW	033fH
	DW	033fH
	DW	033fH
	DW	033fH
	DW	033fH
	DW	033fH
	DW	033fH
	DW	033fH
	DW	033fH
	DW	033fH
	DW	033fH
	DW	033fH
	DW	033fH
	DW	033fH
	DW	033fH
	DW	033fH
	DW	033fH
	DW	033fH
	DW	033fH
	DW	033fH
	DW	033fH
	DW	033fH
	DW	033fH
	DW	033fH
	DW	033fH
	DW	033fH
	DW	033fH
	DW	033fH
	DW	033fH
	DW	033fH
	DW	033fH
	DW	033fH
	DW	033fH
	DW	033fH
	DW	033fH
	DW	033fH
	DW	033fH
	DW	033fH
	DW	033fH
	DW	033fH
	DW	033fH
	DW	033fH
	DW	033fH
	DW	033fH
	DW	033fH
	DW	033fH
	DW	033fH
	DW	033fH
	DW	033fH
	DW	033fH
	DW	033fH
	DW	033fH
	DW	033fH
	DW	033fH
	DW	033fH
	DW	033fH
	DW	033fH
	DW	033fH
	DW	033fH
	DW	033fH
	DW	033fH
	DW	033fH
	DW	033fH
	DW	033fH
	DW	033fH
	DW	033fH
	DW	033fH
	DW	033fH
	DW	033fH
	DW	033fH
	DW	033fH
	DW	033fH
	DW	033fH
	DW	033fH
	DW	033fH
	DW	033fH
	DW	033fH
	DW	033fH
	DW	033fH
	DW	033fH
	DW	033fH
	DW	033fH
	DW	033fH
	DW	033fH
	DW	033fH
	DW	01d1H
	DW	0678H
	DW	071fH
	DW	031fH
	DW	031fH
	DW	031fH
	DW	031fH
	DW	031fH
	DW	031fH
	DW	031fH
	DW	031fH
	DW	031fH
	DW	031fH
	DW	031fH
	DW	031fH
	DW	031fH
	DW	031fH
	DW	031fH
	DW	031fH
	DW	031fH
	DW	031fH
	DW	031fH
	DW	031fH
	DW	031fH
	DW	031fH
	DW	031fH
	DW	031fH
	DW	031fH
	DW	031fH
	DW	031fH
	DW	031fH
	DW	031fH
	DW	031fH
	DW	031fH
	DW	031fH
	DW	031fH
	DW	031fH
	DW	031fH
	DW	031fH
	DW	031fH
	DW	031fH
	DW	031fH
	DW	031fH
	DW	031fH
	DW	031fH
	DW	031fH
	DW	031fH
	DW	031fH
	DW	031fH
	DW	031fH
	DW	031fH
	DW	031fH
	DW	031fH
	DW	031fH
	DW	031fH
	DW	031fH
	DW	031fH
	DW	031fH
	DW	031fH
	DW	031fH
	DW	031fH
	DW	031fH
	DW	031fH
	DW	031fH
	DW	031fH
	DW	031fH
	DW	031fH
	DW	031fH
	DW	031fH
	DW	031fH
	DW	031fH
	DW	031fH
	DW	031fH
	DW	031fH
	DW	031fH
	DW	031fH
	DW	031fH
	DW	031fH
	DW	031fH
	DW	031fH
	DW	031fH
	DW	031fH
	DW	031fH
	DW	031fH
	DW	031fH
	DW	031fH
	DW	031fH
	DW	031fH
	DW	031fH
	DW	031fH
	DW	031fH
	DW	031fH
	DW	031fH
	DW	031fH
	DW	031fH
	DW	031fH
	DW	031fH
	DW	031fH
	DW	031fH
	DW	031fH
	DW	031fH
	DW	031fH
	DW	031fH
	DW	031fH
	DW	031fH
	DW	031fH
	DW	031fH
	DW	031fH
	DW	02feH
	DW	016fH
	DW	010bH
	DW	0259H
	DW	02beH
	DW	02ffH
	DW	02ffH
	DW	02ffH
	DW	02ffH
	DW	02ffH
	DW	02ffH
	DW	02ffH
	DW	02ffH
	DW	02ffH
	DW	02ffH
	DW	02ffH
	DW	02ffH
	DW	02ffH
	DW	02ffH
	DW	02ffH
	DW	02ffH
	DW	02ffH
	DW	02ffH
	DW	02ffH
	DW	02ffH
	DW	02ffH
	DW	02ffH
	DW	02ffH
	DW	02ffH
	DW	02ffH
	DW	02ffH
	DW	02ffH
	DW	02ffH
	DW	02ffH
	DW	02ffH
	DW	02ffH
	DW	02ffH
	DW	02ffH
	DW	02ffH
	DW	02ffH
	DW	02ffH
	DW	02ffH
	DW	02ffH
	DW	02ffH
	DW	02ffH
	DW	02ffH
	DW	02ffH
	DW	02ffH
	DW	02ffH
	DW	02ffH
	DW	02ffH
	DW	02ffH
	DW	02ffH
	DW	02ffH
	DW	02ffH
	DW	02ffH
	DW	02ffH
	DW	02ffH
	DW	02ffH
	DW	02ffH
	DW	02ffH
	DW	02ffH
	DW	02ffH
	DW	02ffH
	DW	02ffH
	DW	02ffH
	DW	02ffH
	DW	02ffH
	DW	02ffH
	DW	02ffH
	DW	02ffH
	DW	02ffH
	DW	02ffH
	DW	02ffH
	DW	02ffH
	DW	02ffH
	DW	02ffH
	DW	02ffH
	DW	02ffH
	DW	02ffH
	DW	02ffH
	DW	02ffH
	DW	02ffH
	DW	02ffH
	DW	02ffH
	DW	02ffH
	DW	02ffH
	DW	02ffH
	DW	02ffH
	DW	02ffH
	DW	02ffH
	DW	02ffH
	DW	02ffH
	DW	02ffH
	DW	02ffH
	DW	02ffH
	DW	02ffH
	DW	02ffH
	DW	02ffH
	DW	02ffH
	DW	02ffH
	DW	02ffH
	DW	02ffH
	DW	02ffH
	DW	02ffH
	DW	02ffH
	DW	02ffH
	DW	02ffH
	DW	02deH
	DW	01f5H
	DW	086H
	DW	00H
	DW	0a7H
	DW	014eH
	DW	0191H
	DW	0192H
	DW	0192H
	DW	0192H
	DW	0192H
	DW	0192H
	DW	0192H
	DW	0192H
	DW	0192H
	DW	0192H
	DW	0192H
	DW	0192H
	DW	0192H
	DW	0192H
	DW	0192H
	DW	0192H
	DW	0192H
	DW	0192H
	DW	0192H
	DW	0192H
	DW	0192H
	DW	0192H
	DW	0192H
	DW	0192H
	DW	0192H
	DW	0192H
	DW	0192H
	DW	0192H
	DW	0192H
	DW	0192H
	DW	0192H
	DW	0192H
	DW	0192H
	DW	0192H
	DW	0192H
	DW	0192H
	DW	0192H
	DW	0192H
	DW	0192H
	DW	0192H
	DW	0192H
	DW	0192H
	DW	0192H
	DW	0192H
	DW	0192H
	DW	0192H
	DW	0192H
	DW	0192H
	DW	0192H
	DW	0192H
	DW	0192H
	DW	0192H
	DW	0192H
	DW	0192H
	DW	0192H
	DW	0192H
	DW	0192H
	DW	0192H
	DW	0192H
	DW	0192H
	DW	0192H
	DW	0192H
	DW	0192H
	DW	0192H
	DW	0192H
	DW	0192H
	DW	0192H
	DW	0192H
	DW	0192H
	DW	0192H
	DW	0192H
	DW	0192H
	DW	0192H
	DW	0192H
	DW	0192H
	DW	0192H
	DW	0192H
	DW	0192H
	DW	0192H
	DW	0192H
	DW	0192H
	DW	0192H
	DW	0192H
	DW	0192H
	DW	0192H
	DW	0192H
	DW	0192H
	DW	0192H
	DW	0192H
	DW	0192H
	DW	0192H
	DW	0192H
	DW	0192H
	DW	0192H
	DW	0192H
	DW	0192H
	DW	0192H
	DW	0192H
	DW	0192H
	DW	0192H
	DW	0192H
	DW	0192H
	DW	0192H
	DW	012dH
	DW	085H
	DW	00H
_bmCancel DW	06dH
	DW	028H
	DW	0daH
	DW	010H
	DD	FLAT:_acCancel
	DD	00H
	DD	FLAT:_GUI_BitmapMethods555
CONST	ENDS
END
