; Listing generated by Microsoft (R) Optimizing Compiler Version 16.00.40219.01 

	TITLE	C:\DUII\DUII\Graphics\Capital.c
	.686P
	.XMM
	include listing.inc
	.model	flat

INCLUDELIB LIBCMT
INCLUDELIB OLDNAMES

PUBLIC	_bmCapital
EXTRN	_GUI_BitmapMethods555:BYTE
CONST	SEGMENT
_acCapital DW	00H
	DW	00H
	DW	00H
	DW	00H
	DW	00H
	DW	00H
	DW	00H
	DW	00H
	DW	00H
	DW	00H
	DW	00H
	DW	00H
	DW	00H
	DW	00H
	DW	00H
	DW	00H
	DW	00H
	DW	00H
	DW	00H
	DW	00H
	DW	00H
	DW	00H
	DW	00H
	DW	00H
	DW	00H
	DW	00H
	DW	00H
	DW	00H
	DW	00H
	DW	00H
	DW	00H
	DW	00H
	DW	00H
	DW	00H
	DW	00H
	DW	00H
	DW	00H
	DW	00H
	DW	00H
	DW	00H
	DW	00H
	DW	00H
	DW	00H
	DW	00H
	DW	00H
	DW	00H
	DW	00H
	DW	00H
	DW	00H
	DW	00H
	DW	00H
	DW	00H
	DW	00H
	DW	00H
	DW	00H
	DW	00H
	DW	00H
	DW	00H
	DW	00H
	DW	00H
	DW	00H
	DW	00H
	DW	00H
	DW	00H
	DW	00H
	DW	00H
	DW	00H
	DW	00H
	DW	00H
	DW	00H
	DW	00H
	DW	00H
	DW	00H
	DW	00H
	DW	00H
	DW	00H
	DW	00H
	DW	00H
	DW	00H
	DW	00H
	DW	00H
	DW	00H
	DW	00H
	DW	00H
	DW	00H
	DW	00H
	DW	00H
	DW	00H
	DW	00H
	DW	02d6bH
	DW	05ab5H
	DW	062f7H
	DW	062f6H
	DW	062f6H
	DW	062f6H
	DW	062f6H
	DW	062f6H
	DW	062f6H
	DW	062f6H
	DW	062f6H
	DW	062f6H
	DW	062f6H
	DW	062f6H
	DW	062f6H
	DW	062f6H
	DW	062f6H
	DW	062f6H
	DW	062f6H
	DW	062f6H
	DW	062f6H
	DW	062f6H
	DW	062f6H
	DW	062f6H
	DW	062f6H
	DW	062f6H
	DW	062f6H
	DW	062f6H
	DW	062f6H
	DW	062f6H
	DW	062f6H
	DW	062f6H
	DW	062f6H
	DW	062f6H
	DW	062f7H
	DW	05ed6H
	DW	04a30H
	DW	01084H
	DW	00H
	DW	00H
	DW	00H
	DW	00H
	DW	02d4aH
	DW	0735aH
	DW	066f6H
	DW	062d5H
	DW	05eb4H
	DW	05eb4H
	DW	05eb4H
	DW	05eb4H
	DW	05eb4H
	DW	05eb4H
	DW	05eb4H
	DW	05eb4H
	DW	05eb4H
	DW	05eb4H
	DW	05eb4H
	DW	05eb4H
	DW	05eb4H
	DW	05eb4H
	DW	05eb4H
	DW	05eb4H
	DW	05eb4H
	DW	05eb4H
	DW	05eb4H
	DW	05eb4H
	DW	05eb4H
	DW	05eb4H
	DW	05eb4H
	DW	05eb4H
	DW	05eb4H
	DW	05eb4H
	DW	05eb4H
	DW	05eb4H
	DW	05eb4H
	DW	05eb4H
	DW	05eb4H
	DW	05eb4H
	DW	062d5H
	DW	066f6H
	DW	05272H
	DW	0842H
	DW	00H
	DW	00H
	DW	00H
	DW	05673H
	DW	062d5H
	DW	05a93H
	DW	05a93H
	DW	05a93H
	DW	05a93H
	DW	05a93H
	DW	05a93H
	DW	05a93H
	DW	05a93H
	DW	05a93H
	DW	05a93H
	DW	05a93H
	DW	05a93H
	DW	05a93H
	DW	05a93H
	DW	05a93H
	DW	05a93H
	DW	05a93H
	DW	05a93H
	DW	05a93H
	DW	05a93H
	DW	05a93H
	DW	05a93H
	DW	05a93H
	DW	05a93H
	DW	05a93H
	DW	05a93H
	DW	05a93H
	DW	05a93H
	DW	05a93H
	DW	05a93H
	DW	05a93H
	DW	05a93H
	DW	05a93H
	DW	05a93H
	DW	05a93H
	DW	05a93H
	DW	05672H
	DW	01cc6H
	DW	00H
	DW	00H
	DW	00H
	DW	05673H
	DW	05eb4H
	DW	05a93H
	DW	05a93H
	DW	05a93H
	DW	05a93H
	DW	05a93H
	DW	05a93H
	DW	05a93H
	DW	05a93H
	DW	05a93H
	DW	05a93H
	DW	05a93H
	DW	05a93H
	DW	05a93H
	DW	05a93H
	DW	05a93H
	DW	05a93H
	DW	05ab4H
	DW	06f59H
	DW	0737bH
	DW	062d6H
	DW	05a93H
	DW	05a93H
	DW	05a93H
	DW	05a93H
	DW	05a93H
	DW	05a93H
	DW	05a93H
	DW	05a93H
	DW	05a93H
	DW	05a93H
	DW	05a93H
	DW	05a93H
	DW	05a93H
	DW	05a93H
	DW	05a93H
	DW	05a93H
	DW	05251H
	DW	018a5H
	DW	00H
	DW	00H
	DW	00H
	DW	05272H
	DW	05eb4H
	DW	05a93H
	DW	05a93H
	DW	05a93H
	DW	05a93H
	DW	05a93H
	DW	05a93H
	DW	05a93H
	DW	05a93H
	DW	05a93H
	DW	05a93H
	DW	05a93H
	DW	05a93H
	DW	05a93H
	DW	05a93H
	DW	05a93H
	DW	05a93H
	DW	06f59H
	DW	07fffH
	DW	07fffH
	DW	07bbdH
	DW	05ed5H
	DW	05a93H
	DW	05a93H
	DW	05a93H
	DW	05a93H
	DW	05a93H
	DW	05a93H
	DW	05a93H
	DW	05a93H
	DW	05a93H
	DW	05a93H
	DW	05a93H
	DW	05a93H
	DW	05a93H
	DW	05a93H
	DW	05a93H
	DW	05251H
	DW	018a5H
	DW	00H
	DW	00H
	DW	00H
	DW	05272H
	DW	05ab4H
	DW	05a93H
	DW	05a93H
	DW	05a93H
	DW	05a93H
	DW	05a93H
	DW	05a93H
	DW	05a93H
	DW	05a93H
	DW	05a93H
	DW	05a93H
	DW	05a93H
	DW	05a93H
	DW	05a93H
	DW	05a93H
	DW	05672H
	DW	06717H
	DW	07fffH
	DW	07fffH
	DW	07fffH
	DW	07fffH
	DW	0737bH
	DW	05a93H
	DW	05693H
	DW	05a93H
	DW	05a93H
	DW	05a93H
	DW	05a93H
	DW	05a93H
	DW	05a93H
	DW	05a93H
	DW	05a93H
	DW	05a93H
	DW	05a93H
	DW	05a93H
	DW	05a93H
	DW	05a93H
	DW	04e51H
	DW	018a5H
	DW	00H
	DW	00H
	DW	00H
	DW	05272H
	DW	05ab4H
	DW	05693H
	DW	05693H
	DW	05693H
	DW	05693H
	DW	05693H
	DW	05693H
	DW	05693H
	DW	05693H
	DW	05693H
	DW	05693H
	DW	05693H
	DW	05693H
	DW	05693H
	DW	05672H
	DW	05ed5H
	DW	07bdeH
	DW	07fffH
	DW	077bdH
	DW	0737aH
	DW	07fffH
	DW	07fffH
	DW	06b39H
	DW	05673H
	DW	05693H
	DW	05693H
	DW	05693H
	DW	05693H
	DW	05693H
	DW	05693H
	DW	05693H
	DW	05693H
	DW	05693H
	DW	05693H
	DW	05693H
	DW	05693H
	DW	05a93H
	DW	04e51H
	DW	014a5H
	DW	00H
	DW	00H
	DW	00H
	DW	05272H
	DW	05a93H
	DW	05672H
	DW	05672H
	DW	05672H
	DW	05672H
	DW	05672H
	DW	05672H
	DW	05672H
	DW	05672H
	DW	05672H
	DW	05672H
	DW	05672H
	DW	05672H
	DW	05672H
	DW	05a93H
	DW	0779cH
	DW	07fffH
	DW	07fffH
	DW	062f6H
	DW	05a93H
	DW	0739cH
	DW	07fffH
	DW	07fffH
	DW	062f6H
	DW	05672H
	DW	05672H
	DW	05672H
	DW	05672H
	DW	05672H
	DW	05672H
	DW	05672H
	DW	05672H
	DW	05672H
	DW	05672H
	DW	05672H
	DW	05672H
	DW	05a93H
	DW	04e31H
	DW	014a5H
	DW	00H
	DW	00H
	DW	00H
	DW	05252H
	DW	05a93H
	DW	05672H
	DW	05672H
	DW	05672H
	DW	05672H
	DW	05672H
	DW	05672H
	DW	05672H
	DW	05672H
	DW	05672H
	DW	05672H
	DW	05672H
	DW	05672H
	DW	05672H
	DW	06f5aH
	DW	07fffH
	DW	07fffH
	DW	06b38H
	DW	05672H
	DW	05672H
	DW	05eb4H
	DW	07bbdH
	DW	07fffH
	DW	07bbdH
	DW	05eb5H
	DW	05672H
	DW	05672H
	DW	05672H
	DW	05672H
	DW	05672H
	DW	05672H
	DW	05672H
	DW	05672H
	DW	05672H
	DW	05672H
	DW	05672H
	DW	05693H
	DW	04e30H
	DW	014a5H
	DW	00H
	DW	00H
	DW	00H
	DW	05252H
	DW	05a93H
	DW	05672H
	DW	05672H
	DW	05672H
	DW	05672H
	DW	05672H
	DW	05672H
	DW	05672H
	DW	05672H
	DW	05672H
	DW	05672H
	DW	05672H
	DW	05272H
	DW	06717H
	DW	07fffH
	DW	07fffH
	DW	06f7aH
	DW	05673H
	DW	05672H
	DW	05672H
	DW	05272H
	DW	062f7H
	DW	07fffH
	DW	07fffH
	DW	0739bH
	DW	05693H
	DW	05672H
	DW	05672H
	DW	05672H
	DW	05672H
	DW	05672H
	DW	05672H
	DW	05672H
	DW	05672H
	DW	05672H
	DW	05672H
	DW	05673H
	DW	04e30H
	DW	014a5H
	DW	00H
	DW	00H
	DW	00H
	DW	04e51H
	DW	05693H
	DW	05272H
	DW	05272H
	DW	05272H
	DW	05272H
	DW	05272H
	DW	05272H
	DW	05272H
	DW	05272H
	DW	05272H
	DW	05272H
	DW	05252H
	DW	05ed5H
	DW	07bdeH
	DW	07fffH
	DW	077bdH
	DW	05a94H
	DW	05272H
	DW	05272H
	DW	05272H
	DW	05272H
	DW	05272H
	DW	06b39H
	DW	07fffH
	DW	07fffH
	DW	06b39H
	DW	05272H
	DW	05272H
	DW	05272H
	DW	05272H
	DW	05272H
	DW	05272H
	DW	05272H
	DW	05272H
	DW	05272H
	DW	05272H
	DW	05672H
	DW	04a30H
	DW	014a5H
	DW	00H
	DW	00H
	DW	00H
	DW	04e51H
	DW	05673H
	DW	05252H
	DW	05272H
	DW	05272H
	DW	05272H
	DW	05272H
	DW	05272H
	DW	05272H
	DW	05272H
	DW	05272H
	DW	05252H
	DW	05693H
	DW	0779cH
	DW	07fffH
	DW	07bdeH
	DW	05ed5H
	DW	05251H
	DW	05272H
	DW	05272H
	DW	05272H
	DW	05272H
	DW	05252H
	DW	05672H
	DW	0737bH
	DW	07fffH
	DW	07fffH
	DW	062f7H
	DW	05252H
	DW	05272H
	DW	05272H
	DW	05272H
	DW	05272H
	DW	05272H
	DW	05272H
	DW	05272H
	DW	05272H
	DW	05672H
	DW	04a30H
	DW	014a5H
	DW	00H
	DW	00H
	DW	00H
	DW	04e51H
	DW	05673H
	DW	05252H
	DW	05252H
	DW	05252H
	DW	05252H
	DW	05252H
	DW	05252H
	DW	05252H
	DW	05252H
	DW	05252H
	DW	05272H
	DW	06f5aH
	DW	07fffH
	DW	07fffH
	DW	06717H
	DW	05251H
	DW	05252H
	DW	05252H
	DW	05252H
	DW	05252H
	DW	05252H
	DW	05252H
	DW	05251H
	DW	05a94H
	DW	077bdH
	DW	07fffH
	DW	07bdeH
	DW	05ab4H
	DW	05251H
	DW	05252H
	DW	05252H
	DW	05252H
	DW	05252H
	DW	05252H
	DW	05252H
	DW	05252H
	DW	05272H
	DW	04a30H
	DW	014a5H
	DW	00H
	DW	00H
	DW	00H
	DW	04e51H
	DW	05672H
	DW	05251H
	DW	05252H
	DW	05252H
	DW	05252H
	DW	05252H
	DW	05252H
	DW	05252H
	DW	05251H
	DW	04e51H
	DW	06317H
	DW	07fffH
	DW	07fffH
	DW	06f5aH
	DW	05272H
	DW	05251H
	DW	05252H
	DW	05252H
	DW	05252H
	DW	05252H
	DW	05252H
	DW	05252H
	DW	05252H
	DW	04e51H
	DW	05ed6H
	DW	07fffH
	DW	07fffH
	DW	0739cH
	DW	05273H
	DW	04e51H
	DW	05252H
	DW	05252H
	DW	05252H
	DW	05252H
	DW	05252H
	DW	05252H
	DW	05272H
	DW	04a10H
	DW	014a4H
	DW	00H
	DW	00H
	DW	00H
	DW	04e51H
	DW	05272H
	DW	04e51H
	DW	04e51H
	DW	04e51H
	DW	04e51H
	DW	04e51H
	DW	04e51H
	DW	04e51H
	DW	04e31H
	DW	05ab5H
	DW	07bdeH
	DW	07fffH
	DW	0739cH
	DW	05273H
	DW	04e51H
	DW	04e51H
	DW	04e51H
	DW	04e51H
	DW	04e51H
	DW	04e51H
	DW	04e51H
	DW	04e51H
	DW	04e51H
	DW	04e51H
	DW	04e51H
	DW	06718H
	DW	07fffH
	DW	07fffH
	DW	06b39H
	DW	04e51H
	DW	04e51H
	DW	04e51H
	DW	04e51H
	DW	04e51H
	DW	04e51H
	DW	04e51H
	DW	05252H
	DW	04610H
	DW	014a4H
	DW	00H
	DW	00H
	DW	00H
	DW	04a31H
	DW	05272H
	DW	04e51H
	DW	04e51H
	DW	04e51H
	DW	04e51H
	DW	04e51H
	DW	04e51H
	DW	04e31H
	DW	05273H
	DW	077bcH
	DW	07fffH
	DW	07bdeH
	DW	05ab4H
	DW	04e31H
	DW	04e51H
	DW	04e51H
	DW	04e51H
	DW	04e51H
	DW	04e51H
	DW	04e51H
	DW	04e51H
	DW	04e51H
	DW	04e51H
	DW	04e51H
	DW	04e31H
	DW	04e51H
	DW	06f5aH
	DW	07fffH
	DW	07fffH
	DW	062f6H
	DW	04e31H
	DW	04e51H
	DW	04e51H
	DW	04e51H
	DW	04e51H
	DW	04e51H
	DW	04e51H
	DW	0460fH
	DW	014a4H
	DW	00H
	DW	00H
	DW	00H
	DW	04a31H
	DW	05252H
	DW	04e31H
	DW	04e51H
	DW	04e51H
	DW	04e51H
	DW	04e51H
	DW	04e31H
	DW	04e51H
	DW	06f5aH
	DW	07fffH
	DW	07fffH
	DW	062f6H
	DW	04e31H
	DW	04e31H
	DW	04a31H
	DW	04e51H
	DW	04e51H
	DW	04e51H
	DW	04e51H
	DW	04e51H
	DW	04e51H
	DW	04e51H
	DW	04e51H
	DW	04e31H
	DW	04e31H
	DW	04e31H
	DW	05273H
	DW	0779cH
	DW	07fffH
	DW	07bdeH
	DW	05ab4H
	DW	04a31H
	DW	04e51H
	DW	04e51H
	DW	04e51H
	DW	04e51H
	DW	04e51H
	DW	0460fH
	DW	01484H
	DW	00H
	DW	00H
	DW	00H
	DW	04a31H
	DW	04e52H
	DW	04a31H
	DW	04a31H
	DW	04a31H
	DW	04a31H
	DW	04a31H
	DW	04a31H
	DW	06317H
	DW	07fffH
	DW	07fffH
	DW	07bdeH
	DW	06f5aH
	DW	06b5aH
	DW	06b59H
	DW	05ab5H
	DW	04a31H
	DW	04a31H
	DW	04a31H
	DW	04a31H
	DW	04a31H
	DW	04a31H
	DW	04a31H
	DW	04a31H
	DW	05273H
	DW	06738H
	DW	06f5aH
	DW	06b5aH
	DW	0739cH
	DW	07fffH
	DW	07fffH
	DW	0739cH
	DW	04e52H
	DW	04a31H
	DW	04a31H
	DW	04a31H
	DW	04a31H
	DW	04e51H
	DW	0460fH
	DW	01484H
	DW	00H
	DW	00H
	DW	00H
	DW	04a30H
	DW	04e51H
	DW	04a30H
	DW	04a31H
	DW	04a31H
	DW	04a31H
	DW	04a30H
	DW	04a31H
	DW	06f7bH
	DW	07fffH
	DW	07fffH
	DW	07fffH
	DW	07fffH
	DW	07fffH
	DW	07fffH
	DW	07bbdH
	DW	05273H
	DW	04a30H
	DW	04a31H
	DW	04a31H
	DW	04a31H
	DW	04a31H
	DW	04a30H
	DW	04a30H
	DW	06738H
	DW	07fffH
	DW	07fffH
	DW	07fffH
	DW	07fffH
	DW	07fffH
	DW	07fffH
	DW	07bdeH
	DW	05693H
	DW	04a30H
	DW	04a31H
	DW	04a31H
	DW	04a31H
	DW	04e31H
	DW	041efH
	DW	01484H
	DW	00H
	DW	00H
	DW	00H
	DW	04630H
	DW	04e51H
	DW	04a30H
	DW	04a30H
	DW	04a30H
	DW	04a30H
	DW	04a30H
	DW	04a30H
	DW	05ab5H
	DW	06f7bH
	DW	0737bH
	DW	06f7bH
	DW	06f7bH
	DW	077bcH
	DW	07fffH
	DW	07fffH
	DW	05694H
	DW	04610H
	DW	04a30H
	DW	04a30H
	DW	04a30H
	DW	04a30H
	DW	04a30H
	DW	04a30H
	DW	06b5aH
	DW	07fffH
	DW	07bdeH
	DW	06f7bH
	DW	06f7bH
	DW	06f7bH
	DW	0737bH
	DW	06317H
	DW	04a31H
	DW	04a30H
	DW	04a30H
	DW	04a30H
	DW	04a30H
	DW	04a31H
	DW	041efH
	DW	01484H
	DW	00H
	DW	00H
	DW	00H
	DW	04610H
	DW	04a31H
	DW	04610H
	DW	04a30H
	DW	04a30H
	DW	04a30H
	DW	04a30H
	DW	04a30H
	DW	04610H
	DW	04a30H
	DW	04a30H
	DW	04a30H
	DW	04610H
	DW	05ad5H
	DW	07fffH
	DW	07fffH
	DW	05694H
	DW	04610H
	DW	04a30H
	DW	04a30H
	DW	04a30H
	DW	04a30H
	DW	04610H
	DW	04630H
	DW	06b5aH
	DW	07fffH
	DW	06b39H
	DW	04a30H
	DW	04a30H
	DW	04a30H
	DW	04a30H
	DW	04610H
	DW	04a30H
	DW	04a30H
	DW	04a30H
	DW	04a30H
	DW	04a30H
	DW	04a30H
	DW	041efH
	DW	01084H
	DW	00H
	DW	00H
	DW	00H
	DW	04610H
	DW	04a31H
	DW	04610H
	DW	04610H
	DW	04610H
	DW	04610H
	DW	04610H
	DW	04610H
	DW	04610H
	DW	04610H
	DW	04610H
	DW	04610H
	DW	0460fH
	DW	05ab5H
	DW	07fffH
	DW	07fffH
	DW	05694H
	DW	0460fH
	DW	04610H
	DW	04610H
	DW	04610H
	DW	04610H
	DW	04610H
	DW	04610H
	DW	06b5aH
	DW	07fffH
	DW	06b39H
	DW	04610H
	DW	04610H
	DW	04610H
	DW	04610H
	DW	04610H
	DW	04610H
	DW	04610H
	DW	04610H
	DW	04610H
	DW	04610H
	DW	04a30H
	DW	041eeH
	DW	01084H
	DW	00H
	DW	00H
	DW	00H
	DW	04610H
	DW	04a31H
	DW	04610H
	DW	04610H
	DW	04610H
	DW	04610H
	DW	04610H
	DW	04610H
	DW	04610H
	DW	04610H
	DW	04610H
	DW	04610H
	DW	0460fH
	DW	05ab5H
	DW	07fffH
	DW	07fffH
	DW	05294H
	DW	0460fH
	DW	04610H
	DW	04610H
	DW	04610H
	DW	04610H
	DW	04610H
	DW	04610H
	DW	06b59H
	DW	07fffH
	DW	06b39H
	DW	04610H
	DW	04610H
	DW	04610H
	DW	04610H
	DW	04610H
	DW	04610H
	DW	04610H
	DW	04610H
	DW	04610H
	DW	04610H
	DW	04610H
	DW	03deeH
	DW	01084H
	DW	00H
	DW	00H
	DW	00H
	DW	04610H
	DW	04a31H
	DW	04610H
	DW	04610H
	DW	04610H
	DW	04610H
	DW	04610H
	DW	04610H
	DW	04610H
	DW	04610H
	DW	04610H
	DW	04610H
	DW	041efH
	DW	056b5H
	DW	07fffH
	DW	07fffH
	DW	05293H
	DW	041efH
	DW	04610H
	DW	04610H
	DW	04610H
	DW	04610H
	DW	04610H
	DW	04610H
	DW	06b59H
	DW	07fffH
	DW	06739H
	DW	0460fH
	DW	04610H
	DW	04610H
	DW	04610H
	DW	04610H
	DW	04610H
	DW	04610H
	DW	04610H
	DW	04610H
	DW	04610H
	DW	04610H
	DW	03dceH
	DW	01084H
	DW	00H
	DW	00H
	DW	00H
	DW	04210H
	DW	04630H
	DW	0420fH
	DW	0420fH
	DW	0420fH
	DW	0420fH
	DW	0420fH
	DW	0420fH
	DW	0420fH
	DW	0420fH
	DW	0420fH
	DW	0420fH
	DW	041efH
	DW	056b5H
	DW	07fffH
	DW	07fffH
	DW	05273H
	DW	041efH
	DW	0420fH
	DW	0420fH
	DW	0420fH
	DW	0420fH
	DW	0420fH
	DW	0420fH
	DW	06b39H
	DW	07fffH
	DW	06739H
	DW	041efH
	DW	0420fH
	DW	0420fH
	DW	0420fH
	DW	0420fH
	DW	0420fH
	DW	0420fH
	DW	0420fH
	DW	0420fH
	DW	0420fH
	DW	04610H
	DW	03dceH
	DW	01084H
	DW	00H
	DW	00H
	DW	00H
	DW	0420fH
	DW	04610H
	DW	041efH
	DW	0420fH
	DW	0420fH
	DW	0420fH
	DW	0420fH
	DW	0420fH
	DW	0420fH
	DW	0420fH
	DW	0420fH
	DW	0420fH
	DW	041efH
	DW	056b5H
	DW	07fffH
	DW	07fffH
	DW	05273H
	DW	041efH
	DW	0420fH
	DW	0420fH
	DW	0420fH
	DW	0420fH
	DW	041efH
	DW	041efH
	DW	06b39H
	DW	07fffH
	DW	06739H
	DW	041efH
	DW	041efH
	DW	0420fH
	DW	0420fH
	DW	0420fH
	DW	0420fH
	DW	0420fH
	DW	0420fH
	DW	0420fH
	DW	0420fH
	DW	04210H
	DW	03dceH
	DW	01084H
	DW	00H
	DW	00H
	DW	00H
	DW	041efH
	DW	04610H
	DW	041efH
	DW	041efH
	DW	041efH
	DW	041efH
	DW	041efH
	DW	041efH
	DW	041efH
	DW	041efH
	DW	041efH
	DW	041efH
	DW	03deeH
	DW	056b4H
	DW	07fffH
	DW	07fffH
	DW	05273H
	DW	03defH
	DW	041efH
	DW	041efH
	DW	041efH
	DW	041efH
	DW	041efH
	DW	041efH
	DW	06739H
	DW	07fffH
	DW	06739H
	DW	041efH
	DW	041efH
	DW	041efH
	DW	041efH
	DW	041efH
	DW	041efH
	DW	041efH
	DW	041efH
	DW	041efH
	DW	041efH
	DW	0420fH
	DW	039ceH
	DW	01084H
	DW	00H
	DW	00H
	DW	00H
	DW	041efH
	DW	04210H
	DW	03defH
	DW	041efH
	DW	041efH
	DW	041efH
	DW	041efH
	DW	041efH
	DW	041efH
	DW	041efH
	DW	041efH
	DW	041efH
	DW	03dceH
	DW	05694H
	DW	07fffH
	DW	07fffH
	DW	04e73H
	DW	03deeH
	DW	041efH
	DW	041efH
	DW	041efH
	DW	041efH
	DW	03defH
	DW	03defH
	DW	06739H
	DW	07fffH
	DW	06739H
	DW	03defH
	DW	03defH
	DW	041efH
	DW	041efH
	DW	041efH
	DW	041efH
	DW	041efH
	DW	041efH
	DW	041efH
	DW	041efH
	DW	041efH
	DW	039cdH
	DW	01084H
	DW	00H
	DW	00H
	DW	00H
	DW	03defH
	DW	04210H
	DW	03defH
	DW	03defH
	DW	03defH
	DW	03defH
	DW	03defH
	DW	03defH
	DW	03defH
	DW	03defH
	DW	03defH
	DW	03defH
	DW	03dceH
	DW	05294H
	DW	07fffH
	DW	07fffH
	DW	04e73H
	DW	03dceH
	DW	03defH
	DW	03defH
	DW	03defH
	DW	03defH
	DW	03defH
	DW	03defH
	DW	06739H
	DW	07fffH
	DW	06739H
	DW	03defH
	DW	03defH
	DW	03defH
	DW	03defH
	DW	03defH
	DW	03defH
	DW	03defH
	DW	03defH
	DW	03defH
	DW	03defH
	DW	041efH
	DW	039adH
	DW	01084H
	DW	00H
	DW	00H
	DW	00H
	DW	03defH
	DW	0420fH
	DW	03deeH
	DW	03defH
	DW	03defH
	DW	03defH
	DW	03defH
	DW	03defH
	DW	03defH
	DW	03defH
	DW	03defH
	DW	03defH
	DW	039ceH
	DW	05294H
	DW	07fffH
	DW	07fffH
	DW	04e73H
	DW	03dceH
	DW	03defH
	DW	03defH
	DW	03defH
	DW	03defH
	DW	03deeH
	DW	03deeH
	DW	06739H
	DW	07fffH
	DW	06738H
	DW	03dceH
	DW	03deeH
	DW	03defH
	DW	03defH
	DW	03defH
	DW	03defH
	DW	03defH
	DW	03defH
	DW	03defH
	DW	03defH
	DW	03defH
	DW	039adH
	DW	01084H
	DW	00H
	DW	00H
	DW	00H
	DW	03defH
	DW	041efH
	DW	03dceH
	DW	03dceH
	DW	03dceH
	DW	03dceH
	DW	03dceH
	DW	03dceH
	DW	03dceH
	DW	03dceH
	DW	03dceH
	DW	03dceH
	DW	039ceH
	DW	05294H
	DW	07fffH
	DW	07fffH
	DW	04e72H
	DW	039ceH
	DW	03dceH
	DW	03dceH
	DW	03dceH
	DW	03dceH
	DW	03dceH
	DW	03dceH
	DW	06739H
	DW	07fffH
	DW	06718H
	DW	03dceH
	DW	03dceH
	DW	03dceH
	DW	03dceH
	DW	03dceH
	DW	03dceH
	DW	03dceH
	DW	03dceH
	DW	03dceH
	DW	03dceH
	DW	03defH
	DW	035adH
	DW	01084H
	DW	00H
	DW	00H
	DW	00H
	DW	03defH
	DW	03defH
	DW	039ceH
	DW	03dceH
	DW	03dceH
	DW	03dceH
	DW	03dceH
	DW	03dceH
	DW	03dceH
	DW	03dceH
	DW	03dceH
	DW	03dceH
	DW	039ceH
	DW	05294H
	DW	07fffH
	DW	07fffH
	DW	04a52H
	DW	039adH
	DW	039ceH
	DW	039ceH
	DW	039ceH
	DW	039ceH
	DW	039ceH
	DW	039ceH
	DW	06739H
	DW	07fffH
	DW	06318H
	DW	039ceH
	DW	039ceH
	DW	03dceH
	DW	03dceH
	DW	03dceH
	DW	03dceH
	DW	03dceH
	DW	03dceH
	DW	03dceH
	DW	03dceH
	DW	03dceH
	DW	035adH
	DW	01084H
	DW	00H
	DW	00H
	DW	00H
	DW	03defH
	DW	03defH
	DW	039ceH
	DW	039ceH
	DW	039ceH
	DW	039ceH
	DW	039ceH
	DW	039ceH
	DW	039ceH
	DW	039ceH
	DW	039ceH
	DW	039ceH
	DW	039adH
	DW	05294H
	DW	07fffH
	DW	07fffH
	DW	04e73H
	DW	03dceH
	DW	03defH
	DW	03defH
	DW	03defH
	DW	03defH
	DW	03defH
	DW	03defH
	DW	06739H
	DW	07fffH
	DW	06318H
	DW	039ceH
	DW	039ceH
	DW	039ceH
	DW	039ceH
	DW	039ceH
	DW	039ceH
	DW	039ceH
	DW	039ceH
	DW	039ceH
	DW	039ceH
	DW	03dceH
	DW	035adH
	DW	01084H
	DW	00H
	DW	00H
	DW	00H
	DW	03dceH
	DW	03defH
	DW	039ceH
	DW	039ceH
	DW	039ceH
	DW	039ceH
	DW	039ceH
	DW	039ceH
	DW	039ceH
	DW	039ceH
	DW	039ceH
	DW	039ceH
	DW	035adH
	DW	05294H
	DW	07fffH
	DW	07fffH
	DW	0739cH
	DW	06f7bH
	DW	06f7bH
	DW	06f7bH
	DW	06f7bH
	DW	06f7bH
	DW	06f7bH
	DW	06f7bH
	DW	07bdeH
	DW	07fffH
	DW	06318H
	DW	039ceH
	DW	039ceH
	DW	039ceH
	DW	039ceH
	DW	039ceH
	DW	039ceH
	DW	039ceH
	DW	039ceH
	DW	039ceH
	DW	039ceH
	DW	039ceH
	DW	0358dH
	DW	01063H
	DW	00H
	DW	00H
	DW	00H
	DW	039ceH
	DW	03defH
	DW	039ceH
	DW	039ceH
	DW	039ceH
	DW	039ceH
	DW	039ceH
	DW	039ceH
	DW	039ceH
	DW	039ceH
	DW	039ceH
	DW	039ceH
	DW	035adH
	DW	04631H
	DW	07bdeH
	DW	07fffH
	DW	07fffH
	DW	07fffH
	DW	07fffH
	DW	07fffH
	DW	07fffH
	DW	07fffH
	DW	07fffH
	DW	07fffH
	DW	07fffH
	DW	07fffH
	DW	05ed6H
	DW	035adH
	DW	039ceH
	DW	039ceH
	DW	039ceH
	DW	039ceH
	DW	039ceH
	DW	039ceH
	DW	039ceH
	DW	039ceH
	DW	039ceH
	DW	039ceH
	DW	0318cH
	DW	0c63H
	DW	00H
	DW	00H
	DW	00H
	DW	039ceH
	DW	03dcfH
	DW	039aeH
	DW	039ceH
	DW	039ceH
	DW	039ceH
	DW	039ceH
	DW	039ceH
	DW	039ceH
	DW	039ceH
	DW	039ceH
	DW	039ceH
	DW	039aeH
	DW	039ceH
	DW	04e73H
	DW	06318H
	DW	06719H
	DW	06318H
	DW	06318H
	DW	06318H
	DW	06318H
	DW	06318H
	DW	06318H
	DW	06318H
	DW	06739H
	DW	05ef7H
	DW	04210H
	DW	035adH
	DW	039ceH
	DW	039ceH
	DW	039ceH
	DW	039ceH
	DW	039ceH
	DW	039ceH
	DW	039ceH
	DW	039ceH
	DW	039ceH
	DW	039ceH
	DW	0318cH
	DW	0c63H
	DW	00H
	DW	00H
	DW	00H
	DW	0318cH
	DW	039ceH
	DW	039ceH
	DW	039ceH
	DW	039ceH
	DW	039ceH
	DW	039ceH
	DW	039ceH
	DW	039ceH
	DW	039ceH
	DW	039ceH
	DW	039ceH
	DW	039ceH
	DW	039aeH
	DW	035adH
	DW	035adH
	DW	039aeH
	DW	039aeH
	DW	039aeH
	DW	039aeH
	DW	039aeH
	DW	039aeH
	DW	039aeH
	DW	039aeH
	DW	039aeH
	DW	035adH
	DW	035adH
	DW	039ceH
	DW	039ceH
	DW	039ceH
	DW	039ceH
	DW	039ceH
	DW	039ceH
	DW	039ceH
	DW	039ceH
	DW	039ceH
	DW	039ceH
	DW	039ceH
	DW	0294aH
	DW	0842H
	DW	00H
	DW	00H
	DW	00H
	DW	014a5H
	DW	02d6bH
	DW	035adH
	DW	035adH
	DW	035adH
	DW	035adH
	DW	035adH
	DW	035adH
	DW	035adH
	DW	035adH
	DW	035adH
	DW	035adH
	DW	035adH
	DW	035adH
	DW	035adH
	DW	035adH
	DW	035adH
	DW	035adH
	DW	035adH
	DW	035adH
	DW	035adH
	DW	035adH
	DW	035adH
	DW	035adH
	DW	035adH
	DW	035adH
	DW	035adH
	DW	035adH
	DW	035adH
	DW	035adH
	DW	035adH
	DW	035adH
	DW	035adH
	DW	035adH
	DW	035adH
	DW	035adH
	DW	035adH
	DW	02d6bH
	DW	014a5H
	DW	00H
	DW	00H
	DW	00H
	DW	00H
	DW	00H
	DW	0c63H
	DW	014a5H
	DW	018c6H
	DW	018c6H
	DW	018c6H
	DW	018c6H
	DW	018c6H
	DW	018c6H
	DW	018c6H
	DW	018c6H
	DW	018c6H
	DW	018c6H
	DW	018c6H
	DW	018c6H
	DW	018c6H
	DW	018c6H
	DW	018c6H
	DW	018c6H
	DW	018c6H
	DW	018c6H
	DW	018c6H
	DW	018c6H
	DW	018c6H
	DW	018c6H
	DW	018c6H
	DW	018c6H
	DW	018c6H
	DW	018c6H
	DW	018c6H
	DW	018c6H
	DW	018c6H
	DW	018c6H
	DW	018c6H
	DW	018c6H
	DW	018c6H
	DW	018c6H
	DW	0c63H
	DW	00H
	DW	00H
	DW	00H
	DW	00H
	DW	00H
	DW	00H
	DW	00H
	DW	00H
	DW	00H
	DW	00H
	DW	00H
	DW	00H
	DW	00H
	DW	00H
	DW	00H
	DW	00H
	DW	00H
	DW	00H
	DW	00H
	DW	00H
	DW	00H
	DW	00H
	DW	00H
	DW	00H
	DW	00H
	DW	00H
	DW	00H
	DW	00H
	DW	00H
	DW	00H
	DW	00H
	DW	00H
	DW	00H
	DW	00H
	DW	00H
	DW	00H
	DW	00H
	DW	00H
	DW	00H
	DW	00H
	DW	00H
	DW	00H
	DW	00H
	DW	00H
	DW	00H
	DW	00H
_bmCapital DW	02bH
	DW	02aH
	DW	056H
	DW	010H
	DD	FLAT:_acCapital
	DD	00H
	DD	FLAT:_GUI_BitmapMethods555
CONST	ENDS
END
