; Listing generated by Microsoft (R) Optimizing Compiler Version 16.00.40219.01 

	TITLE	C:\DUII\DUII\Graphics\CarMetricsBanner.c
	.686P
	.XMM
	include listing.inc
	.model	flat

INCLUDELIB LIBCMT
INCLUDELIB OLDNAMES

PUBLIC	_bmCarMetricsBanner
CONST	SEGMENT
_ColorsCarMetricsBanner DD 00H
	DD	03efafeH
	DD	040fefeH
	DD	0222222H
	DD	0393939H
	DD	02c2c2cH
	DD	0b0b0bH
	DD	0414141H
	DD	01c1c1cH
	DD	0141414H
	DD	03e3e3eH
	DD	02a2a2aH
	DD	0262626H
	DD	0403838H
	DD	039edf2H
	DD	0353535H
	DD	0244c4dH
	DD	0323232H
	DD	03efcfeH
	DD	0a1011H
	DD	0a0202H
	DD	032d0d4H
	DD	02bb0b3H
	DD	0185c5dH
	DD	0130b0bH
	DD	01a1212H
	DD	032cdd1H
	DD	01a5b5cH
	DD	0241c1cH
	DD	02ab1b4H
	DD	0124a4bH
	DD	044ffffH
	DD	03df5f9H
	DD	01d7a7cH
	DD	030b0bH
	DD	0292121H
	DD	0124344H
	DD	0145254H
	DD	0194142H
	DD	01a6a6bH
	DD	0444444H
	DD	031cacdH
	DD	035daddH
	DD	036dde1H
	DD	03cf1f5H
	DD	041313H
	DD	0186263H
	DD	02cb9bdH
	DD	0123435H
	DD	0444242H
	DD	02cb6b9H
	DD	039eff4H
	DD	0110505H
	DD	0b2324H
	DD	0423d3dH
	DD	040fbfeH
	DD	02d2929H
	DD	024999bH
	DD	02dbdc1H
	DD	038e5eaH
	DD	039e9edH
	DD	034d6d9H
	DD	036e1e4H
	DD	061a1bH
	DD	0a1b1bH
	DD	01b2223H
	DD	0b3233H
	DD	0123b3cH
	DD	0393131H
	DD	0259da1H
	DD	0221414H
	DD	0b2b2cH
	DD	0e3a3bH
	DD	0228d90H
	DD	028a6a9H
	DD	02aaeb1H
	DD	036e5e9H
	DD	03af0f5H
	DD	03df7fcH
	DD	0132223H
	DD	0122b2cH
	DD	02e2525H
	DD	0166264H
	DD	01c7678H
	DD	0249698H
	DD	02cb4b7H
	DD	030c6c9H
	DD	038e3e6H
	DD	0190d0dH
	DD	062323H
	DD	0292424H
	DD	0165a5bH
	DD	019595aH
	DD	0234c4dH
	DD	01c7476H
	DD	01e8284H
	DD	0218c8eH
	DD	026a1a4H
	DD	02dc1c5H
	DD	032d9ddH
	DD	03df8faH
	DD	0242a2bH
	DD	0352d2dH
	DD	0263232H
	DD	03e3635H
	DD	0443e3eH
	DD	0e4143H
	DD	0114748H
	DD	024494aH
	DD	01b6d70H
	DD	01e8688H
	DD	0218182H
	DD	020898cH
	DD	028a9adH
	DD	02cb2b5H
	DD	02dbcbfH
	DD	02ec1c2H
	DD	034d1d5H
	DD	0252020H
	DD	0312929H
	DD	0342929H
	DD	01e5a5cH
	DD	0234b4cH
	DD	0244b4cH
	DD	0195e60H
	DD	0207e7eH
	DD	01d7e81H
	DD	0218487H
	DD	0208689H
	DD	0239092H
	DD	0229294H
	DD	0229496H
	DD	026a0a2H
	DD	028a8aaH
	DD	029acafH
	DD	02fc5c8H
	DD	030c2c4H
	DD	03af4f9H
	DD	0141919H
	DD	061f20H
	DD	0b2f30H
	DD	0e3738H
	DD	01c3a3bH
	DD	0312626H
	DD	0312d2dH
	DD	0253738H
	DD	03b3535H
	DD	0143f40H
	DD	01a3f40H
	DD	01f4546H
	DD	01e5051H
	DD	0195254H
	DD	01d5a5bH
	DD	0244545H
	DD	02c4041H
	DD	01a6668H
	DD	0197072H
	DD	01d7172H
	DD	01b7476H
	DD	0208385H
	DD	0268284H
	DD	0259294H
	DD	0259595H
	DD	028a1a5H
	DD	028a4a7H
	DD	026aaadH
	DD	02cb0b2H
	DD	02db8bbH
	DD	032d0d2H
	DD	030d6daH
	DD	034d8dbH
	DD	032dee3H
	DD	036dfe4H
	DD	038e8e9H
	DD	03beceeH
	DD	036eff4H
	DD	03aebf0H
	DD	03cf0f3H
	DD	03df4f7H
	DD	03af7fcH
	DD	03af8fdH
	DD	040fbfbH
	DD	0180505H
	DD	01a100fH
	DD	01d1817H
	DD	021100fH
	DD	0301f1fH
	DD	081f20H
	DD	0151f20H
	DD	0182828H
	DD	01c2b2cH
	DD	0182f2fH
	DD	01f2e2fH
	DD	01e3435H
	DD	0282423H
	DD	02b2827H
	DD	0282e2eH
	DD	0203737H
	DD	0273737H
	DD	0213a3bH
	DD	024393aH
	DD	0203b3cH
	DD	0253c3dH
	DD	03c3333H
	DD	0323a3aH
	DD	03f3a3aH
	DD	03e3c3bH
	DD	0443b3aH
	DD	0f3f41H
	DD	01e4243H
	DD	01b4a4bH
	DD	0184b4dH
	DD	01f4b4cH
	DD	0184c4dH
	DD	0114f51H
	DD	01e4f51H
	DD	0185253H
	DD	0195455H
	DD	0165658H
	DD	01f5e5fH
	DD	02c4647H
	DD	0224a4bH
	DD	028494aH
	DD	0334343H
	DD	0394040H
	DD	03f4040H
	DD	0215859H
	DD	0175e60H
	DD	017696bH
	DD	0176f71H
	DD	01b7375H
	DD	01e7274H
	DD	0217678H
	DD	021898bH
	DD	024888aH
	DD	0258b8eH
	DD	0249091H
	DD	0299b9eH
	DD	0299da0H
	DD	027a4a7H
	DD	027a5a8H
	DD	027a8abH
	DD	029c3c6H
	DD	02fc4c7H
	DD	02fcacdH
	DD	034d4d7H
	DD	030d3d8H
	DD	031d7dcH
	DD	033d8dbH
	DD	037dddeH
	DD	037eaeeH
	DD	03cedefH
	DD	03ceef2H
	DD	03bf0f2H
	DD	03bf4f7H
	DD	03cf3f8H
_PalCarMetricsBanner DD 0100H
	DB	00H
	ORG $+3
	DD	FLAT:_ColorsCarMetricsBanner
_bmCarMetricsBanner DW 0159H
	DW	023H
	DW	0159H
	DW	08H
	DD	FLAT:_acCarMetricsBanner
	DD	FLAT:_PalCarMetricsBanner
	ORG $+4
_acCarMetricsBanner DB 03H
	DB	03H
	DB	03H
	DB	03H
	DB	03H
	DB	03H
	DB	03H
	DB	03H
	DB	03H
	DB	03H
	DB	03H
	DB	03H
	DB	03H
	DB	03H
	DB	03H
	DB	03H
	DB	03H
	DB	03H
	DB	03H
	DB	03H
	DB	03H
	DB	03H
	DB	03H
	DB	03H
	DB	03H
	DB	03H
	DB	03H
	DB	03H
	DB	03H
	DB	03H
	DB	03H
	DB	03H
	DB	03H
	DB	03H
	DB	03H
	DB	03H
	DB	03H
	DB	03H
	DB	03H
	DB	03H
	DB	03H
	DB	03H
	DB	03H
	DB	03H
	DB	03H
	DB	03H
	DB	03H
	DB	03H
	DB	03H
	DB	03H
	DB	03H
	DB	03H
	DB	03H
	DB	03H
	DB	03H
	DB	03H
	DB	03H
	DB	03H
	DB	03H
	DB	03H
	DB	03H
	DB	03H
	DB	03H
	DB	03H
	DB	03H
	DB	03H
	DB	03H
	DB	03H
	DB	03H
	DB	03H
	DB	03H
	DB	03H
	DB	03H
	DB	03H
	DB	03H
	DB	03H
	DB	03H
	DB	03H
	DB	03H
	DB	03H
	DB	03H
	DB	03H
	DB	03H
	DB	03H
	DB	03H
	DB	03H
	DB	03H
	DB	03H
	DB	03H
	DB	03H
	DB	03H
	DB	03H
	DB	03H
	DB	03H
	DB	03H
	DB	03H
	DB	03H
	DB	03H
	DB	03H
	DB	03H
	DB	03H
	DB	03H
	DB	03H
	DB	03H
	DB	03H
	DB	03H
	DB	03H
	DB	03H
	DB	03H
	DB	03H
	DB	03H
	DB	03H
	DB	03H
	DB	03H
	DB	03H
	DB	03H
	DB	03H
	DB	03H
	DB	03H
	DB	03H
	DB	03H
	DB	03H
	DB	03H
	DB	03H
	DB	03H
	DB	03H
	DB	03H
	DB	03H
	DB	03H
	DB	03H
	DB	03H
	DB	03H
	DB	03H
	DB	03H
	DB	03H
	DB	03H
	DB	03H
	DB	03H
	DB	03H
	DB	03H
	DB	03H
	DB	03H
	DB	03H
	DB	03H
	DB	03H
	DB	03H
	DB	03H
	DB	03H
	DB	03H
	DB	03H
	DB	03H
	DB	03H
	DB	03H
	DB	03H
	DB	03H
	DB	03H
	DB	03H
	DB	03H
	DB	03H
	DB	03H
	DB	03H
	DB	03H
	DB	03H
	DB	03H
	DB	03H
	DB	03H
	DB	03H
	DB	03H
	DB	03H
	DB	03H
	DB	03H
	DB	03H
	DB	03H
	DB	03H
	DB	03H
	DB	03H
	DB	03H
	DB	03H
	DB	03H
	DB	03H
	DB	03H
	DB	03H
	DB	03H
	DB	03H
	DB	03H
	DB	03H
	DB	03H
	DB	03H
	DB	03H
	DB	03H
	DB	03H
	DB	03H
	DB	03H
	DB	03H
	DB	03H
	DB	03H
	DB	03H
	DB	03H
	DB	03H
	DB	03H
	DB	03H
	DB	03H
	DB	03H
	DB	03H
	DB	03H
	DB	03H
	DB	03H
	DB	03H
	DB	03H
	DB	03H
	DB	03H
	DB	03H
	DB	03H
	DB	03H
	DB	03H
	DB	03H
	DB	03H
	DB	03H
	DB	03H
	DB	03H
	DB	03H
	DB	03H
	DB	03H
	DB	03H
	DB	03H
	DB	03H
	DB	03H
	DB	03H
	DB	03H
	DB	03H
	DB	03H
	DB	03H
	DB	03H
	DB	03H
	DB	03H
	DB	03H
	DB	03H
	DB	03H
	DB	03H
	DB	03H
	DB	03H
	DB	03H
	DB	03H
	DB	03H
	DB	03H
	DB	03H
	DB	03H
	DB	03H
	DB	03H
	DB	03H
	DB	03H
	DB	03H
	DB	03H
	DB	03H
	DB	03H
	DB	03H
	DB	03H
	DB	03H
	DB	03H
	DB	03H
	DB	03H
	DB	03H
	DB	03H
	DB	03H
	DB	03H
	DB	03H
	DB	03H
	DB	03H
	DB	03H
	DB	03H
	DB	03H
	DB	03H
	DB	03H
	DB	03H
	DB	03H
	DB	03H
	DB	03H
	DB	03H
	DB	03H
	DB	03H
	DB	03H
	DB	03H
	DB	03H
	DB	03H
	DB	03H
	DB	03H
	DB	03H
	DB	03H
	DB	03H
	DB	03H
	DB	03H
	DB	03H
	DB	03H
	DB	03H
	DB	03H
	DB	03H
	DB	03H
	DB	03H
	DB	03H
	DB	03H
	DB	03H
	DB	03H
	DB	03H
	DB	03H
	DB	03H
	DB	03H
	DB	03H
	DB	03H
	DB	03H
	DB	03H
	DB	03H
	DB	03H
	DB	03H
	DB	03H
	DB	03H
	DB	03H
	DB	03H
	DB	03H
	DB	03H
	DB	03H
	DB	03H
	DB	03H
	DB	03H
	DB	03H
	DB	03H
	DB	03H
	DB	03H
	DB	03H
	DB	03H
	DB	03H
	DB	03H
	DB	03H
	DB	03H
	DB	03H
	DB	03H
	DB	03H
	DB	03H
	DB	03H
	DB	03H
	DB	03H
	DB	03H
	DB	03H
	DB	03H
	DB	03H
	DB	03H
	DB	03H
	DB	03H
	DB	03H
	DB	03H
	DB	03H
	DB	03H
	DB	03H
	DB	03H
	DB	03H
	DB	03H
	DB	03H
	DB	03H
	DB	03H
	DB	03H
	DB	03H
	DB	03H
	DB	03H
	DB	03H
	DB	03H
	DB	03H
	DB	03H
	DB	03H
	DB	03H
	DB	03H
	DB	03H
	DB	03H
	DB	03H
	DB	03H
	DB	03H
	DB	03H
	DB	03H
	DB	03H
	DB	03H
	DB	03H
	DB	03H
	DB	03H
	DB	03H
	DB	03H
	DB	03H
	DB	03H
	DB	03H
	DB	03H
	DB	03H
	DB	03H
	DB	03H
	DB	03H
	DB	03H
	DB	03H
	DB	03H
	DB	03H
	DB	03H
	DB	03H
	DB	03H
	DB	03H
	DB	03H
	DB	03H
	DB	03H
	DB	03H
	DB	03H
	DB	03H
	DB	03H
	DB	03H
	DB	03H
	DB	03H
	DB	03H
	DB	03H
	DB	03H
	DB	03H
	DB	03H
	DB	03H
	DB	03H
	DB	03H
	DB	03H
	DB	03H
	DB	03H
	DB	03H
	DB	03H
	DB	03H
	DB	03H
	DB	03H
	DB	03H
	DB	03H
	DB	03H
	DB	03H
	DB	03H
	DB	03H
	DB	03H
	DB	03H
	DB	03H
	DB	03H
	DB	03H
	DB	03H
	DB	03H
	DB	03H
	DB	03H
	DB	03H
	DB	03H
	DB	03H
	DB	03H
	DB	03H
	DB	03H
	DB	03H
	DB	03H
	DB	03H
	DB	03H
	DB	03H
	DB	03H
	DB	03H
	DB	03H
	DB	03H
	DB	03H
	DB	03H
	DB	03H
	DB	03H
	DB	03H
	DB	03H
	DB	03H
	DB	03H
	DB	03H
	DB	03H
	DB	03H
	DB	03H
	DB	03H
	DB	03H
	DB	03H
	DB	03H
	DB	03H
	DB	03H
	DB	03H
	DB	03H
	DB	03H
	DB	03H
	DB	03H
	DB	03H
	DB	03H
	DB	03H
	DB	03H
	DB	03H
	DB	03H
	DB	03H
	DB	03H
	DB	03H
	DB	03H
	DB	03H
	DB	03H
	DB	03H
	DB	03H
	DB	03H
	DB	03H
	DB	03H
	DB	03H
	DB	03H
	DB	03H
	DB	03H
	DB	03H
	DB	03H
	DB	03H
	DB	03H
	DB	03H
	DB	03H
	DB	03H
	DB	03H
	DB	03H
	DB	03H
	DB	03H
	DB	03H
	DB	03H
	DB	03H
	DB	03H
	DB	03H
	DB	03H
	DB	03H
	DB	03H
	DB	03H
	DB	03H
	DB	03H
	DB	03H
	DB	03H
	DB	03H
	DB	03H
	DB	03H
	DB	03H
	DB	03H
	DB	03H
	DB	03H
	DB	03H
	DB	03H
	DB	03H
	DB	03H
	DB	03H
	DB	03H
	DB	03H
	DB	03H
	DB	03H
	DB	03H
	DB	03H
	DB	03H
	DB	03H
	DB	03H
	DB	03H
	DB	03H
	DB	03H
	DB	03H
	DB	03H
	DB	03H
	DB	03H
	DB	03H
	DB	03H
	DB	03H
	DB	03H
	DB	03H
	DB	03H
	DB	03H
	DB	03H
	DB	03H
	DB	03H
	DB	03H
	DB	03H
	DB	03H
	DB	03H
	DB	03H
	DB	03H
	DB	03H
	DB	03H
	DB	03H
	DB	03H
	DB	03H
	DB	03H
	DB	03H
	DB	03H
	DB	03H
	DB	03H
	DB	03H
	DB	03H
	DB	03H
	DB	03H
	DB	03H
	DB	03H
	DB	03H
	DB	03H
	DB	03H
	DB	03H
	DB	03H
	DB	03H
	DB	03H
	DB	03H
	DB	03H
	DB	03H
	DB	03H
	DB	03H
	DB	03H
	DB	03H
	DB	03H
	DB	03H
	DB	03H
	DB	03H
	DB	03H
	DB	03H
	DB	03H
	DB	03H
	DB	03H
	DB	03H
	DB	03H
	DB	03H
	DB	03H
	DB	03H
	DB	03H
	DB	03H
	DB	03H
	DB	03H
	DB	03H
	DB	03H
	DB	03H
	DB	03H
	DB	03H
	DB	03H
	DB	03H
	DB	03H
	DB	03H
	DB	03H
	DB	03H
	DB	03H
	DB	03H
	DB	03H
	DB	03H
	DB	03H
	DB	03H
	DB	03H
	DB	03H
	DB	03H
	DB	03H
	DB	03H
	DB	03H
	DB	03H
	DB	03H
	DB	03H
	DB	03H
	DB	03H
	DB	03H
	DB	03H
	DB	03H
	DB	03H
	DB	03H
	DB	03H
	DB	03H
	DB	03H
	DB	03H
	DB	03H
	DB	03H
	DB	03H
	DB	03H
	DB	03H
	DB	03H
	DB	03H
	DB	03H
	DB	03H
	DB	03H
	DB	03H
	DB	03H
	DB	03H
	DB	03H
	DB	03H
	DB	03H
	DB	03H
	DB	03H
	DB	03H
	DB	03H
	DB	03H
	DB	03H
	DB	03H
	DB	03H
	DB	03H
	DB	03H
	DB	03H
	DB	03H
	DB	03H
	DB	03H
	DB	03H
	DB	03H
	DB	03H
	DB	03H
	DB	03H
	DB	03H
	DB	03H
	DB	03H
	DB	05H
	DB	05H
	DB	05H
	DB	05H
	DB	05H
	DB	05H
	DB	05H
	DB	05H
	DB	05H
	DB	05H
	DB	05H
	DB	05H
	DB	05H
	DB	05H
	DB	05H
	DB	05H
	DB	05H
	DB	05H
	DB	05H
	DB	05H
	DB	05H
	DB	05H
	DB	05H
	DB	05H
	DB	05H
	DB	05H
	DB	05H
	DB	05H
	DB	05H
	DB	05H
	DB	05H
	DB	05H
	DB	05H
	DB	05H
	DB	05H
	DB	05H
	DB	05H
	DB	05H
	DB	05H
	DB	05H
	DB	05H
	DB	05H
	DB	05H
	DB	05H
	DB	05H
	DB	05H
	DB	05H
	DB	05H
	DB	05H
	DB	05H
	DB	05H
	DB	05H
	DB	05H
	DB	05H
	DB	05H
	DB	05H
	DB	05H
	DB	05H
	DB	05H
	DB	05H
	DB	05H
	DB	05H
	DB	05H
	DB	05H
	DB	05H
	DB	05H
	DB	05H
	DB	05H
	DB	05H
	DB	05H
	DB	05H
	DB	05H
	DB	05H
	DB	05H
	DB	05H
	DB	05H
	DB	05H
	DB	05H
	DB	05H
	DB	05H
	DB	05H
	DB	05H
	DB	05H
	DB	05H
	DB	05H
	DB	05H
	DB	05H
	DB	05H
	DB	05H
	DB	05H
	DB	05H
	DB	05H
	DB	05H
	DB	05H
	DB	05H
	DB	05H
	DB	05H
	DB	05H
	DB	05H
	DB	05H
	DB	05H
	DB	05H
	DB	05H
	DB	05H
	DB	05H
	DB	05H
	DB	05H
	DB	05H
	DB	05H
	DB	05H
	DB	05H
	DB	05H
	DB	05H
	DB	05H
	DB	05H
	DB	05H
	DB	05H
	DB	05H
	DB	05H
	DB	05H
	DB	05H
	DB	05H
	DB	05H
	DB	05H
	DB	05H
	DB	05H
	DB	05H
	DB	05H
	DB	05H
	DB	05H
	DB	05H
	DB	05H
	DB	05H
	DB	05H
	DB	05H
	DB	05H
	DB	05H
	DB	05H
	DB	05H
	DB	05H
	DB	05H
	DB	05H
	DB	05H
	DB	05H
	DB	05H
	DB	05H
	DB	05H
	DB	05H
	DB	05H
	DB	05H
	DB	05H
	DB	05H
	DB	05H
	DB	05H
	DB	05H
	DB	05H
	DB	05H
	DB	05H
	DB	05H
	DB	05H
	DB	05H
	DB	05H
	DB	05H
	DB	05H
	DB	05H
	DB	05H
	DB	05H
	DB	05H
	DB	05H
	DB	05H
	DB	05H
	DB	05H
	DB	05H
	DB	05H
	DB	05H
	DB	05H
	DB	05H
	DB	05H
	DB	05H
	DB	05H
	DB	05H
	DB	05H
	DB	05H
	DB	05H
	DB	05H
	DB	05H
	DB	05H
	DB	05H
	DB	05H
	DB	05H
	DB	05H
	DB	05H
	DB	05H
	DB	05H
	DB	05H
	DB	05H
	DB	05H
	DB	05H
	DB	05H
	DB	05H
	DB	05H
	DB	05H
	DB	05H
	DB	05H
	DB	05H
	DB	05H
	DB	05H
	DB	05H
	DB	05H
	DB	05H
	DB	05H
	DB	05H
	DB	05H
	DB	05H
	DB	05H
	DB	05H
	DB	05H
	DB	05H
	DB	05H
	DB	05H
	DB	05H
	DB	05H
	DB	05H
	DB	05H
	DB	05H
	DB	05H
	DB	05H
	DB	05H
	DB	05H
	DB	05H
	DB	05H
	DB	05H
	DB	05H
	DB	05H
	DB	05H
	DB	05H
	DB	05H
	DB	05H
	DB	05H
	DB	05H
	DB	05H
	DB	05H
	DB	05H
	DB	05H
	DB	05H
	DB	05H
	DB	05H
	DB	05H
	DB	05H
	DB	05H
	DB	05H
	DB	05H
	DB	05H
	DB	05H
	DB	05H
	DB	05H
	DB	05H
	DB	05H
	DB	05H
	DB	05H
	DB	05H
	DB	05H
	DB	05H
	DB	05H
	DB	05H
	DB	05H
	DB	05H
	DB	05H
	DB	05H
	DB	05H
	DB	05H
	DB	05H
	DB	05H
	DB	05H
	DB	05H
	DB	05H
	DB	05H
	DB	05H
	DB	05H
	DB	05H
	DB	05H
	DB	05H
	DB	05H
	DB	05H
	DB	05H
	DB	05H
	DB	05H
	DB	05H
	DB	05H
	DB	05H
	DB	05H
	DB	05H
	DB	05H
	DB	05H
	DB	05H
	DB	05H
	DB	05H
	DB	05H
	DB	05H
	DB	05H
	DB	05H
	DB	05H
	DB	05H
	DB	05H
	DB	05H
	DB	05H
	DB	05H
	DB	05H
	DB	05H
	DB	05H
	DB	05H
	DB	05H
	DB	05H
	DB	05H
	DB	05H
	DB	05H
	DB	05H
	DB	05H
	DB	05H
	DB	05H
	DB	05H
	DB	05H
	DB	05H
	DB	05H
	DB	05H
	DB	05H
	DB	05H
	DB	05H
	DB	05H
	DB	05H
	DB	05H
	DB	05H
	DB	05H
	DB	05H
	DB	05H
	DB	05H
	DB	05H
	DB	05H
	DB	05H
	DB	05H
	DB	05H
	DB	05H
	DB	05H
	DB	05H
	DB	05H
	DB	04H
	DB	04H
	DB	04H
	DB	04H
	DB	04H
	DB	04H
	DB	04H
	DB	04H
	DB	04H
	DB	04H
	DB	04H
	DB	04H
	DB	04H
	DB	04H
	DB	04H
	DB	04H
	DB	04H
	DB	04H
	DB	04H
	DB	04H
	DB	04H
	DB	04H
	DB	04H
	DB	04H
	DB	04H
	DB	04H
	DB	04H
	DB	04H
	DB	04H
	DB	04H
	DB	04H
	DB	04H
	DB	04H
	DB	04H
	DB	04H
	DB	04H
	DB	04H
	DB	04H
	DB	04H
	DB	04H
	DB	04H
	DB	04H
	DB	04H
	DB	04H
	DB	04H
	DB	04H
	DB	04H
	DB	04H
	DB	04H
	DB	04H
	DB	04H
	DB	04H
	DB	04H
	DB	04H
	DB	04H
	DB	04H
	DB	04H
	DB	04H
	DB	04H
	DB	04H
	DB	04H
	DB	04H
	DB	04H
	DB	04H
	DB	04H
	DB	04H
	DB	04H
	DB	04H
	DB	04H
	DB	04H
	DB	04H
	DB	04H
	DB	04H
	DB	04H
	DB	04H
	DB	04H
	DB	04H
	DB	04H
	DB	04H
	DB	04H
	DB	04H
	DB	04H
	DB	04H
	DB	04H
	DB	04H
	DB	04H
	DB	04H
	DB	04H
	DB	04H
	DB	04H
	DB	04H
	DB	04H
	DB	04H
	DB	04H
	DB	04H
	DB	04H
	DB	04H
	DB	04H
	DB	04H
	DB	04H
	DB	04H
	DB	04H
	DB	04H
	DB	04H
	DB	04H
	DB	04H
	DB	04H
	DB	04H
	DB	04H
	DB	04H
	DB	04H
	DB	04H
	DB	04H
	DB	04H
	DB	04H
	DB	04H
	DB	04H
	DB	04H
	DB	04H
	DB	04H
	DB	04H
	DB	04H
	DB	04H
	DB	04H
	DB	04H
	DB	04H
	DB	04H
	DB	04H
	DB	04H
	DB	04H
	DB	04H
	DB	04H
	DB	04H
	DB	04H
	DB	04H
	DB	04H
	DB	04H
	DB	04H
	DB	04H
	DB	04H
	DB	04H
	DB	04H
	DB	04H
	DB	04H
	DB	04H
	DB	04H
	DB	04H
	DB	04H
	DB	04H
	DB	04H
	DB	04H
	DB	04H
	DB	04H
	DB	04H
	DB	04H
	DB	04H
	DB	04H
	DB	04H
	DB	04H
	DB	04H
	DB	04H
	DB	04H
	DB	04H
	DB	04H
	DB	04H
	DB	04H
	DB	04H
	DB	04H
	DB	04H
	DB	04H
	DB	04H
	DB	04H
	DB	04H
	DB	04H
	DB	04H
	DB	04H
	DB	04H
	DB	04H
	DB	04H
	DB	04H
	DB	04H
	DB	04H
	DB	04H
	DB	04H
	DB	04H
	DB	04H
	DB	04H
	DB	04H
	DB	04H
	DB	04H
	DB	04H
	DB	04H
	DB	04H
	DB	04H
	DB	04H
	DB	04H
	DB	04H
	DB	04H
	DB	04H
	DB	04H
	DB	04H
	DB	04H
	DB	04H
	DB	04H
	DB	04H
	DB	04H
	DB	04H
	DB	04H
	DB	04H
	DB	04H
	DB	04H
	DB	04H
	DB	04H
	DB	04H
	DB	04H
	DB	04H
	DB	04H
	DB	04H
	DB	04H
	DB	04H
	DB	04H
	DB	04H
	DB	04H
	DB	04H
	DB	04H
	DB	04H
	DB	04H
	DB	04H
	DB	04H
	DB	04H
	DB	04H
	DB	04H
	DB	04H
	DB	04H
	DB	04H
	DB	04H
	DB	04H
	DB	04H
	DB	04H
	DB	04H
	DB	04H
	DB	04H
	DB	04H
	DB	04H
	DB	04H
	DB	04H
	DB	04H
	DB	04H
	DB	04H
	DB	04H
	DB	04H
	DB	04H
	DB	04H
	DB	04H
	DB	04H
	DB	04H
	DB	04H
	DB	04H
	DB	04H
	DB	04H
	DB	04H
	DB	04H
	DB	04H
	DB	04H
	DB	04H
	DB	04H
	DB	04H
	DB	04H
	DB	04H
	DB	04H
	DB	04H
	DB	04H
	DB	04H
	DB	04H
	DB	04H
	DB	04H
	DB	04H
	DB	04H
	DB	04H
	DB	04H
	DB	04H
	DB	04H
	DB	04H
	DB	04H
	DB	04H
	DB	04H
	DB	04H
	DB	04H
	DB	04H
	DB	04H
	DB	04H
	DB	04H
	DB	04H
	DB	04H
	DB	04H
	DB	04H
	DB	04H
	DB	04H
	DB	04H
	DB	04H
	DB	04H
	DB	04H
	DB	04H
	DB	04H
	DB	04H
	DB	04H
	DB	04H
	DB	04H
	DB	04H
	DB	04H
	DB	04H
	DB	04H
	DB	04H
	DB	04H
	DB	04H
	DB	04H
	DB	04H
	DB	04H
	DB	04H
	DB	04H
	DB	04H
	DB	04H
	DB	04H
	DB	04H
	DB	04H
	DB	04H
	DB	04H
	DB	04H
	DB	04H
	DB	04H
	DB	04H
	DB	04H
	DB	04H
	DB	04H
	DB	04H
	DB	04H
	DB	04H
	DB	04H
	DB	04H
	DB	04H
	DB	04H
	DB	04H
	DB	04H
	DB	04H
	DB	04H
	DB	07H
	DB	07H
	DB	07H
	DB	07H
	DB	07H
	DB	07H
	DB	07H
	DB	07H
	DB	07H
	DB	07H
	DB	07H
	DB	07H
	DB	07H
	DB	07H
	DB	07H
	DB	07H
	DB	07H
	DB	07H
	DB	07H
	DB	07H
	DB	07H
	DB	07H
	DB	07H
	DB	07H
	DB	07H
	DB	07H
	DB	07H
	DB	07H
	DB	07H
	DB	07H
	DB	07H
	DB	07H
	DB	07H
	DB	07H
	DB	07H
	DB	07H
	DB	07H
	DB	07H
	DB	07H
	DB	07H
	DB	07H
	DB	07H
	DB	07H
	DB	07H
	DB	07H
	DB	07H
	DB	07H
	DB	07H
	DB	07H
	DB	07H
	DB	07H
	DB	07H
	DB	07H
	DB	07H
	DB	07H
	DB	07H
	DB	07H
	DB	07H
	DB	07H
	DB	07H
	DB	07H
	DB	07H
	DB	07H
	DB	07H
	DB	07H
	DB	07H
	DB	07H
	DB	028H
	DB	069H
	DB	0dH
	DB	0dH
	DB	0dH
	DB	0dH
	DB	0dH
	DB	0dH
	DB	0dH
	DB	0dH
	DB	0dH
	DB	0dH
	DB	0dH
	DB	0dH
	DB	0cdH
	DB	07H
	DB	07H
	DB	036H
	DB	0dH
	DB	0dH
	DB	0dH
	DB	0dH
	DB	0dH
	DB	0dH
	DB	0dH
	DB	0dH
	DB	0dH
	DB	0dH
	DB	0dH
	DB	0dH
	DB	0dH
	DB	0dH
	DB	0dH
	DB	069H
	DB	028H
	DB	07H
	DB	07H
	DB	07H
	DB	07H
	DB	0dH
	DB	0dH
	DB	0dH
	DB	0dH
	DB	0dH
	DB	0dH
	DB	0dH
	DB	0dH
	DB	0dH
	DB	0dH
	DB	0dH
	DB	0dH
	DB	0dH
	DB	0dH
	DB	0dH
	DB	0dH
	DB	0dH
	DB	031H
	DB	028H
	DB	07H
	DB	07H
	DB	07H
	DB	07H
	DB	07H
	DB	07H
	DB	07H
	DB	07H
	DB	07H
	DB	07H
	DB	07H
	DB	07H
	DB	07H
	DB	036H
	DB	0dH
	DB	0dH
	DB	0dH
	DB	0dH
	DB	0dH
	DB	0dH
	DB	0dH
	DB	0dH
	DB	0dH
	DB	0dH
	DB	0dH
	DB	0dH
	DB	0dH
	DB	0dH
	DB	0dH
	DB	0dH
	DB	0dH
	DB	0dH
	DB	0dH
	DB	0dH
	DB	0dH
	DB	0dH
	DB	036H
	DB	028H
	DB	07H
	DB	07H
	DB	07H
	DB	07H
	DB	07H
	DB	07H
	DB	07H
	DB	07H
	DB	028H
	DB	069H
	DB	0dH
	DB	0dH
	DB	0dH
	DB	0dH
	DB	0dH
	DB	0dH
	DB	0dH
	DB	0dH
	DB	0dH
	DB	0dH
	DB	0dH
	DB	0cfH
	DB	028H
	DB	028H
	DB	07H
	DB	07H
	DB	07H
	DB	0dH
	DB	0dH
	DB	0dH
	DB	0dH
	DB	0dH
	DB	0dH
	DB	0dH
	DB	0dH
	DB	0dH
	DB	0dH
	DB	0dH
	DB	0dH
	DB	0dH
	DB	0dH
	DB	0dH
	DB	0dH
	DB	0dH
	DB	0dH
	DB	0dH
	DB	0dH
	DB	0dH
	DB	0dH
	DB	0dH
	DB	0dH
	DB	0dH
	DB	0dH
	DB	0dH
	DB	0dH
	DB	0dH
	DB	0dH
	DB	0dH
	DB	0dH
	DB	0dH
	DB	0dH
	DB	0dH
	DB	0dH
	DB	0cdH
	DB	031H
	DB	028H
	DB	07H
	DB	07H
	DB	07H
	DB	07H
	DB	031H
	DB	0dH
	DB	0dH
	DB	0dH
	DB	0dH
	DB	0dH
	DB	036H
	DB	07H
	DB	07H
	DB	07H
	DB	07H
	DB	028H
	DB	028H
	DB	0cdH
	DB	0dH
	DB	0dH
	DB	0dH
	DB	0dH
	DB	0dH
	DB	0dH
	DB	0dH
	DB	0dH
	DB	0dH
	DB	0dH
	DB	0dH
	DB	0dH
	DB	07H
	DB	07H
	DB	07H
	DB	07H
	DB	07H
	DB	028H
	DB	031H
	DB	0dH
	DB	0dH
	DB	0dH
	DB	0dH
	DB	0dH
	DB	0dH
	DB	0dH
	DB	0dH
	DB	0dH
	DB	0dH
	DB	0dH
	DB	0dH
	DB	0dH
	DB	0dH
	DB	0dH
	DB	0cdH
	DB	07H
	DB	07H
	DB	07H
	DB	07H
	DB	07H
	DB	07H
	DB	07H
	DB	07H
	DB	07H
	DB	07H
	DB	07H
	DB	07H
	DB	07H
	DB	07H
	DB	07H
	DB	07H
	DB	07H
	DB	07H
	DB	07H
	DB	07H
	DB	07H
	DB	07H
	DB	07H
	DB	07H
	DB	07H
	DB	07H
	DB	07H
	DB	07H
	DB	07H
	DB	07H
	DB	07H
	DB	07H
	DB	07H
	DB	07H
	DB	07H
	DB	07H
	DB	07H
	DB	07H
	DB	07H
	DB	07H
	DB	07H
	DB	07H
	DB	07H
	DB	07H
	DB	07H
	DB	07H
	DB	07H
	DB	07H
	DB	07H
	DB	07H
	DB	07H
	DB	07H
	DB	07H
	DB	07H
	DB	07H
	DB	07H
	DB	07H
	DB	07H
	DB	07H
	DB	07H
	DB	07H
	DB	07H
	DB	07H
	DB	07H
	DB	07H
	DB	07H
	DB	07H
	DB	07H
	DB	07H
	DB	07H
	DB	07H
	DB	07H
	DB	07H
	DB	07H
	DB	07H
	DB	07H
	DB	07H
	DB	07H
	DB	07H
	DB	07H
	DB	07H
	DB	07H
	DB	07H
	DB	07H
	DB	07H
	DB	07H
	DB	07H
	DB	07H
	DB	07H
	DB	07H
	DB	07H
	DB	07H
	DB	07H
	DB	07H
	DB	07H
	DB	07H
	DB	07H
	DB	07H
	DB	07H
	DB	07H
	DB	07H
	DB	07H
	DB	07H
	DB	07H
	DB	07H
	DB	07H
	DB	07H
	DB	07H
	DB	07H
	DB	07H
	DB	07H
	DB	07H
	DB	07H
	DB	07H
	DB	07H
	DB	07H
	DB	07H
	DB	07H
	DB	07H
	DB	07H
	DB	07H
	DB	07H
	DB	07H
	DB	07H
	DB	07H
	DB	07H
	DB	07H
	DB	028H
	DB	028H
	DB	0dH
	DB	051H
	DB	0c6H
	DB	06cH
	DB	010H
	DB	010H
	DB	010H
	DB	010H
	DB	010H
	DB	010H
	DB	010H
	DB	010H
	DB	010H
	DB	010H
	DB	05dH
	DB	0deH
	DB	0aH
	DB	07H
	DB	09aH
	DB	05dH
	DB	010H
	DB	010H
	DB	010H
	DB	010H
	DB	010H
	DB	010H
	DB	010H
	DB	010H
	DB	010H
	DB	010H
	DB	010H
	DB	010H
	DB	010H
	DB	07bH
	DB	091H
	DB	077H
	DB	0cfH
	DB	028H
	DB	028H
	DB	0fH
	DB	07aH
	DB	010H
	DB	010H
	DB	010H
	DB	010H
	DB	010H
	DB	010H
	DB	010H
	DB	010H
	DB	010H
	DB	010H
	DB	010H
	DB	010H
	DB	010H
	DB	010H
	DB	010H
	DB	06cH
	DB	067H
	DB	078H
	DB	069H
	DB	028H
	DB	07H
	DB	07H
	DB	07H
	DB	07H
	DB	07H
	DB	07H
	DB	07H
	DB	07H
	DB	07H
	DB	07H
	DB	07H
	DB	09aH
	DB	05dH
	DB	010H
	DB	010H
	DB	010H
	DB	010H
	DB	010H
	DB	010H
	DB	010H
	DB	010H
	DB	010H
	DB	010H
	DB	010H
	DB	010H
	DB	010H
	DB	010H
	DB	010H
	DB	010H
	DB	010H
	DB	010H
	DB	010H
	DB	010H
	DB	010H
	DB	0caH
	DB	038H
	DB	068H
	DB	028H
	DB	07H
	DB	07H
	DB	07H
	DB	028H
	DB	031H
	DB	068H
	DB	051H
	DB	091H
	DB	07bH
	DB	010H
	DB	010H
	DB	010H
	DB	010H
	DB	010H
	DB	010H
	DB	010H
	DB	010H
	DB	010H
	DB	010H
	DB	099H
	DB	05aH
	DB	0cbH
	DB	028H
	DB	028H
	DB	0fH
	DB	07aH
	DB	010H
	DB	010H
	DB	010H
	DB	010H
	DB	010H
	DB	010H
	DB	010H
	DB	010H
	DB	010H
	DB	010H
	DB	010H
	DB	010H
	DB	010H
	DB	010H
	DB	010H
	DB	010H
	DB	010H
	DB	010H
	DB	010H
	DB	010H
	DB	010H
	DB	010H
	DB	010H
	DB	010H
	DB	010H
	DB	010H
	DB	010H
	DB	010H
	DB	010H
	DB	010H
	DB	010H
	DB	010H
	DB	010H
	DB	010H
	DB	010H
	DB	06cH
	DB	067H
	DB	078H
	DB	069H
	DB	028H
	DB	07H
	DB	031H
	DB	0ccH
	DB	07aH
	DB	010H
	DB	010H
	DB	010H
	DB	05dH
	DB	0dcH
	DB	069H
	DB	028H
	DB	028H
	DB	069H
	DB	066H
	DB	0c3H
	DB	099H
	DB	010H
	DB	010H
	DB	010H
	DB	010H
	DB	010H
	DB	010H
	DB	010H
	DB	010H
	DB	010H
	DB	010H
	DB	010H
	DB	05dH
	DB	0dfH
	DB	031H
	DB	028H
	DB	028H
	DB	0dH
	DB	051H
	DB	067H
	DB	010H
	DB	010H
	DB	010H
	DB	010H
	DB	010H
	DB	010H
	DB	010H
	DB	010H
	DB	010H
	DB	010H
	DB	010H
	DB	010H
	DB	010H
	DB	010H
	DB	010H
	DB	06cH
	DB	0e0H
	DB	031H
	DB	07H
	DB	07H
	DB	07H
	DB	07H
	DB	07H
	DB	07H
	DB	07H
	DB	07H
	DB	07H
	DB	07H
	DB	07H
	DB	07H
	DB	07H
	DB	07H
	DB	07H
	DB	07H
	DB	07H
	DB	07H
	DB	07H
	DB	07H
	DB	07H
	DB	07H
	DB	07H
	DB	07H
	DB	07H
	DB	07H
	DB	07H
	DB	07H
	DB	07H
	DB	07H
	DB	07H
	DB	07H
	DB	07H
	DB	07H
	DB	07H
	DB	07H
	DB	07H
	DB	07H
	DB	07H
	DB	07H
	DB	07H
	DB	07H
	DB	07H
	DB	07H
	DB	07H
	DB	07H
	DB	07H
	DB	07H
	DB	07H
	DB	07H
	DB	07H
	DB	07H
	DB	07H
	DB	07H
	DB	07H
	DB	07H
	DB	07H
	DB	07H
	DB	07H
	DB	07H
	DB	07H
	DB	07H
	DB	07H
	DB	07H
	DB	07H
	DB	07H
	DB	07H
	DB	07H
	DB	07H
	DB	07H
	DB	07H
	DB	07H
	DB	07H
	DB	07H
	DB	07H
	DB	07H
	DB	07H
	DB	07H
	DB	07H
	DB	07H
	DB	07H
	DB	07H
	DB	07H
	DB	07H
	DB	07H
	DB	07H
	DB	07H
	DB	07H
	DB	07H
	DB	07H
	DB	07H
	DB	07H
	DB	07H
	DB	07H
	DB	07H
	DB	07H
	DB	07H
	DB	07H
	DB	07H
	DB	07H
	DB	07H
	DB	07H
	DB	07H
	DB	07H
	DB	07H
	DB	07H
	DB	07H
	DB	07H
	DB	07H
	DB	07H
	DB	07H
	DB	07H
	DB	07H
	DB	07H
	DB	07H
	DB	07H
	DB	07H
	DB	07H
	DB	07H
	DB	07H
	DB	07H
	DB	07H
	DB	07H
	DB	07H
	DB	028H
	DB	0dH
	DB	0c3H
	DB	079H
	DB	085H
	DB	0a9H
	DB	0eH
	DB	033H
	DB	0eH
	DB	0eH
	DB	0eH
	DB	0eH
	DB	0eH
	DB	0eH
	DB	0eH
	DB	0eH
	DB	0eH
	DB	0b3H
	DB	061H
	DB	090H
	DB	08fH
	DB	082H
	DB	0b4H
	DB	0eH
	DB	0eH
	DB	0eH
	DB	0eH
	DB	0eH
	DB	0eH
	DB	0eH
	DB	0eH
	DB	0eH
	DB	0eH
	DB	0eH
	DB	0eH
	DB	033H
	DB	0eH
	DB	063H
	DB	0a4H
	DB	095H
	DB	077H
	DB	036H
	DB	096H
	DB	0afH
	DB	033H
	DB	0eH
	DB	0eH
	DB	0eH
	DB	0eH
	DB	0eH
	DB	0eH
	DB	0eH
	DB	0eH
	DB	0eH
	DB	0eH
	DB	0eH
	DB	0eH
	DB	0eH
	DB	033H
	DB	0faH
	DB	015H
	DB	0a1H
	DB	0c5H
	DB	044H
	DB	028H
	DB	07H
	DB	07H
	DB	07H
	DB	07H
	DB	07H
	DB	07H
	DB	07H
	DB	07H
	DB	028H
	DB	078H
	DB	0eaH
	DB	0b3H
	DB	0eH
	DB	0eH
	DB	0eH
	DB	0eH
	DB	0eH
	DB	0eH
	DB	0eH
	DB	0eH
	DB	0eH
	DB	0eH
	DB	0eH
	DB	0eH
	DB	0eH
	DB	0eH
	DB	0eH
	DB	0eH
	DB	0eH
	DB	0eH
	DB	0eH
	DB	0eH
	DB	033H
	DB	0abH
	DB	01dH
	DB	0e2H
	DB	038H
	DB	031H
	DB	07H
	DB	028H
	DB	068H
	DB	0bH
	DB	079H
	DB	086H
	DB	0f7H
	DB	0eH
	DB	033H
	DB	0eH
	DB	0eH
	DB	0eH
	DB	0eH
	DB	0eH
	DB	0eH
	DB	0eH
	DB	0eH
	DB	04dH
	DB	04cH
	DB	02fH
	DB	01bH
	DB	038H
	DB	0cfH
	DB	096H
	DB	0afH
	DB	033H
	DB	0eH
	DB	0eH
	DB	0eH
	DB	0eH
	DB	0eH
	DB	0eH
	DB	0eH
	DB	0eH
	DB	0eH
	DB	0eH
	DB	0eH
	DB	0eH
	DB	0eH
	DB	0eH
	DB	0eH
	DB	0eH
	DB	0eH
	DB	0eH
	DB	0eH
	DB	0eH
	DB	0eH
	DB	0eH
	DB	0eH
	DB	0eH
	DB	0eH
	DB	0eH
	DB	0eH
	DB	0eH
	DB	0eH
	DB	0eH
	DB	0eH
	DB	0eH
	DB	0eH
	DB	033H
	DB	0faH
	DB	015H
	DB	0ebH
	DB	0c0H
	DB	092H
	DB	028H
	DB	068H
	DB	097H
	DB	0b4H
	DB	033H
	DB	0eH
	DB	0eH
	DB	089H
	DB	06fH
	DB	066H
	DB	031H
	DB	066H
	DB	0c7H
	DB	0eaH
	DB	062H
	DB	04cH
	DB	033H
	DB	0eH
	DB	0eH
	DB	0eH
	DB	0eH
	DB	0eH
	DB	0eH
	DB	0eH
	DB	0eH
	DB	0eH
	DB	0feH
	DB	0abH
	DB	0d1H
	DB	036H
	DB	036H
	DB	038H
	DB	0d4H
	DB	071H
	DB	0f6H
	DB	0eH
	DB	033H
	DB	0eH
	DB	0eH
	DB	0eH
	DB	0eH
	DB	0eH
	DB	0eH
	DB	0eH
	DB	0eH
	DB	0eH
	DB	0eH
	DB	0eH
	DB	0eH
	DB	04eH
	DB	0f2H
	DB	067H
	DB	036H
	DB	07H
	DB	07H
	DB	07H
	DB	07H
	DB	07H
	DB	07H
	DB	07H
	DB	07H
	DB	07H
	DB	07H
	DB	07H
	DB	07H
	DB	07H
	DB	07H
	DB	07H
	DB	07H
	DB	07H
	DB	07H
	DB	07H
	DB	07H
	DB	07H
	DB	07H
	DB	07H
	DB	07H
	DB	07H
	DB	07H
	DB	07H
	DB	07H
	DB	07H
	DB	07H
	DB	07H
	DB	07H
	DB	07H
	DB	07H
	DB	07H
	DB	07H
	DB	07H
	DB	07H
	DB	07H
	DB	07H
	DB	07H
	DB	07H
	DB	07H
	DB	07H
	DB	07H
	DB	07H
	DB	07H
	DB	07H
	DB	07H
	DB	07H
	DB	07H
	DB	07H
	DB	07H
	DB	07H
	DB	07H
	DB	07H
	DB	07H
	DB	07H
	DB	07H
	DB	07H
	DB	07H
	DB	0e1H
	DB	0e1H
	DB	0e1H
	DB	0e1H
	DB	0e1H
	DB	0e1H
	DB	0e1H
	DB	0e1H
	DB	0e1H
	DB	0e1H
	DB	0e1H
	DB	0e1H
	DB	0e1H
	DB	0e1H
	DB	0e1H
	DB	0e1H
	DB	0e1H
	DB	0e1H
	DB	0e1H
	DB	0e1H
	DB	0e1H
	DB	0e1H
	DB	0e1H
	DB	0e1H
	DB	0e1H
	DB	0e1H
	DB	0e1H
	DB	0e1H
	DB	0e1H
	DB	0e1H
	DB	0e1H
	DB	0e1H
	DB	0e1H
	DB	0e1H
	DB	0e1H
	DB	0e1H
	DB	0e1H
	DB	0e1H
	DB	0e1H
	DB	0e1H
	DB	0e1H
	DB	0e1H
	DB	0e1H
	DB	0e1H
	DB	0e1H
	DB	0e1H
	DB	0e1H
	DB	0e1H
	DB	0e1H
	DB	0e1H
	DB	0e1H
	DB	0e1H
	DB	0e1H
	DB	0e1H
	DB	0e1H
	DB	0e1H
	DB	0e1H
	DB	0e1H
	DB	0e1H
	DB	0e1H
	DB	0e1H
	DB	0e1H
	DB	07H
	DB	044H
	DB	0c9H
	DB	0a5H
	DB	012H
	DB	01fH
	DB	02H
	DB	02H
	DB	02H
	DB	02H
	DB	02H
	DB	02H
	DB	02H
	DB	02H
	DB	02H
	DB	02H
	DB	02H
	DB	02H
	DB	01fH
	DB	09dH
	DB	051H
	DB	0cH
	DB	074H
	DB	01fH
	DB	02H
	DB	02H
	DB	02H
	DB	02H
	DB	02H
	DB	02H
	DB	02H
	DB	02H
	DB	02H
	DB	02H
	DB	02H
	DB	02H
	DB	02H
	DB	02H
	DB	01fH
	DB	01fH
	DB	0eH
	DB	017H
	DB	046H
	DB	0a0H
	DB	02H
	DB	02H
	DB	02H
	DB	02H
	DB	02H
	DB	02H
	DB	02H
	DB	02H
	DB	02H
	DB	02H
	DB	02H
	DB	02H
	DB	02H
	DB	02H
	DB	02H
	DB	02H
	DB	02H
	DB	01fH
	DB	01fH
	DB	063H
	DB	026H
	DB	044H
	DB	07H
	DB	0e1H
	DB	0e1H
	DB	0e1H
	DB	0e1H
	DB	0e1H
	DB	0e1H
	DB	0e1H
	DB	07H
	DB	05aH
	DB	01dH
	DB	01fH
	DB	02H
	DB	02H
	DB	02H
	DB	02H
	DB	02H
	DB	02H
	DB	02H
	DB	02H
	DB	02H
	DB	02H
	DB	02H
	DB	02H
	DB	02H
	DB	02H
	DB	02H
	DB	02H
	DB	02H
	DB	02H
	DB	02H
	DB	02H
	DB	02H
	DB	02H
	DB	01fH
	DB	01H
	DB	021H
	DB	05aH
	DB	031H
	DB	044H
	DB	094H
	DB	01dH
	DB	02H
	DB	02H
	DB	01fH
	DB	02H
	DB	02H
	DB	02H
	DB	02H
	DB	02H
	DB	02H
	DB	02H
	DB	02H
	DB	02H
	DB	02H
	DB	02H
	DB	02H
	DB	01fH
	DB	01H
	DB	021H
	DB	046H
	DB	0a0H
	DB	02H
	DB	02H
	DB	02H
	DB	02H
	DB	02H
	DB	02H
	DB	02H
	DB	02H
	DB	02H
	DB	02H
	DB	02H
	DB	02H
	DB	02H
	DB	02H
	DB	02H
	DB	02H
	DB	02H
	DB	02H
	DB	02H
	DB	02H
	DB	02H
	DB	02H
	DB	02H
	DB	02H
	DB	02H
	DB	02H
	DB	02H
	DB	02H
	DB	02H
	DB	02H
	DB	02H
	DB	02H
	DB	02H
	DB	02H
	DB	02H
	DB	02H
	DB	02H
	DB	01fH
	DB	01fH
	DB	0a9H
	DB	026H
	DB	0cbH
	DB	066H
	DB	0ecH
	DB	01fH
	DB	02H
	DB	02H
	DB	02H
	DB	02H
	DB	01bH
	DB	08fH
	DB	0c2H
	DB	0e8H
	DB	04cH
	DB	02H
	DB	01fH
	DB	02H
	DB	02H
	DB	02H
	DB	02H
	DB	02H
	DB	02H
	DB	02H
	DB	02H
	DB	02H
	DB	02H
	DB	02H
	DB	01fH
	DB	015H
	DB	0b8H
	DB	044H
	DB	065H
	DB	039H
	DB	064H
	DB	01fH
	DB	01fH
	DB	02H
	DB	02H
	DB	02H
	DB	02H
	DB	02H
	DB	02H
	DB	02H
	DB	02H
	DB	02H
	DB	02H
	DB	02H
	DB	02H
	DB	02H
	DB	02H
	DB	01fH
	DB	085H
	DB	046H
	DB	0ceH
	DB	0e1H
	DB	0e1H
	DB	0e1H
	DB	0e1H
	DB	0e1H
	DB	0e1H
	DB	0e1H
	DB	0e1H
	DB	0e1H
	DB	0e1H
	DB	0e1H
	DB	0e1H
	DB	0e1H
	DB	0e1H
	DB	0e1H
	DB	0e1H
	DB	0e1H
	DB	0e1H
	DB	0e1H
	DB	0e1H
	DB	0e1H
	DB	0e1H
	DB	0e1H
	DB	0e1H
	DB	0e1H
	DB	0e1H
	DB	0e1H
	DB	0e1H
	DB	0e1H
	DB	0e1H
	DB	0e1H
	DB	0e1H
	DB	0e1H
	DB	0e1H
	DB	0e1H
	DB	0e1H
	DB	0e1H
	DB	0e1H
	DB	0e1H
	DB	0e1H
	DB	0e1H
	DB	0e1H
	DB	0e1H
	DB	0e1H
	DB	0e1H
	DB	0e1H
	DB	0e1H
	DB	0e1H
	DB	0e1H
	DB	0e1H
	DB	0e1H
	DB	0e1H
	DB	0e1H
	DB	0e1H
	DB	0e1H
	DB	0e1H
	DB	0e1H
	DB	0e1H
	DB	0e1H
	DB	0e1H
	DB	0e1H
	DB	0aH
	DB	0aH
	DB	0aH
	DB	0aH
	DB	0aH
	DB	0aH
	DB	0aH
	DB	0aH
	DB	0aH
	DB	0aH
	DB	0aH
	DB	0aH
	DB	0aH
	DB	0aH
	DB	0aH
	DB	0aH
	DB	0aH
	DB	0aH
	DB	0aH
	DB	0aH
	DB	0aH
	DB	0aH
	DB	0aH
	DB	0aH
	DB	0aH
	DB	0aH
	DB	0aH
	DB	0aH
	DB	0aH
	DB	0aH
	DB	0aH
	DB	0aH
	DB	0aH
	DB	0aH
	DB	0aH
	DB	0aH
	DB	0aH
	DB	0aH
	DB	0aH
	DB	0aH
	DB	0aH
	DB	0aH
	DB	0aH
	DB	0aH
	DB	0aH
	DB	0aH
	DB	0aH
	DB	0aH
	DB	0aH
	DB	0aH
	DB	0aH
	DB	0aH
	DB	0aH
	DB	0aH
	DB	0aH
	DB	0aH
	DB	0aH
	DB	0aH
	DB	0aH
	DB	0aH
	DB	0aH
	DB	0e1H
	DB	044H
	DB	0ddH
	DB	02aH
	DB	01fH
	DB	037H
	DB	01H
	DB	01H
	DB	01H
	DB	01H
	DB	01H
	DB	01H
	DB	01H
	DB	01H
	DB	01H
	DB	01H
	DB	01H
	DB	01H
	DB	037H
	DB	012H
	DB	024H
	DB	046H
	DB	0c9H
	DB	04cH
	DB	02H
	DB	01H
	DB	01H
	DB	01H
	DB	01H
	DB	01H
	DB	01H
	DB	01H
	DB	01H
	DB	01H
	DB	01H
	DB	01H
	DB	01H
	DB	01H
	DB	01H
	DB	01H
	DB	01H
	DB	02H
	DB	0fbH
	DB	035H
	DB	0eeH
	DB	01fH
	DB	01H
	DB	01H
	DB	01H
	DB	01H
	DB	01H
	DB	01H
	DB	01H
	DB	01H
	DB	01H
	DB	01H
	DB	01H
	DB	01H
	DB	01H
	DB	01H
	DB	01H
	DB	01H
	DB	01H
	DB	01H
	DB	01fH
	DB	029H
	DB	0c0H
	DB	0ceH
	DB	0aH
	DB	0aH
	DB	0aH
	DB	0aH
	DB	0aH
	DB	0aH
	DB	0aH
	DB	0cdH
	DB	0c8H
	DB	063H
	DB	02H
	DB	01H
	DB	01H
	DB	01H
	DB	01H
	DB	01H
	DB	01H
	DB	01H
	DB	01H
	DB	01H
	DB	01H
	DB	01H
	DB	01H
	DB	01H
	DB	01H
	DB	01H
	DB	01H
	DB	01H
	DB	01H
	DB	01H
	DB	01H
	DB	01H
	DB	01H
	DB	01H
	DB	02H
	DB	012H
	DB	079H
	DB	0baH
	DB	0d7H
	DB	03eH
	DB	01fH
	DB	037H
	DB	01H
	DB	01H
	DB	01H
	DB	01H
	DB	01H
	DB	01H
	DB	01H
	DB	01H
	DB	01H
	DB	01H
	DB	01H
	DB	01H
	DB	01H
	DB	01H
	DB	01H
	DB	02H
	DB	064H
	DB	048H
	DB	0edH
	DB	01fH
	DB	01H
	DB	01H
	DB	01H
	DB	01H
	DB	01H
	DB	01H
	DB	01H
	DB	01H
	DB	01H
	DB	01H
	DB	01H
	DB	01H
	DB	01H
	DB	01H
	DB	01H
	DB	01H
	DB	01H
	DB	01H
	DB	01H
	DB	01H
	DB	01H
	DB	01H
	DB	01H
	DB	01H
	DB	01H
	DB	01H
	DB	01H
	DB	01H
	DB	01H
	DB	01H
	DB	01H
	DB	01H
	DB	01H
	DB	01H
	DB	01H
	DB	01H
	DB	01H
	DB	01H
	DB	01fH
	DB	062H
	DB	065H
	DB	023H
	DB	0a7H
	DB	02H
	DB	01H
	DB	01H
	DB	037H
	DB	0fcH
	DB	04fH
	DB	058H
	DB	039H
	DB	02H
	DB	02H
	DB	01H
	DB	01H
	DB	01H
	DB	01H
	DB	01H
	DB	01H
	DB	01H
	DB	01H
	DB	01H
	DB	01H
	DB	01H
	DB	01H
	DB	01H
	DB	02H
	DB	086H
	DB	058H
	DB	041H
	DB	0a6H
	DB	01fH
	DB	037H
	DB	01H
	DB	01H
	DB	01H
	DB	01H
	DB	01H
	DB	01H
	DB	01H
	DB	01H
	DB	01H
	DB	01H
	DB	01H
	DB	01H
	DB	01H
	DB	01H
	DB	01H
	DB	01H
	DB	02H
	DB	07fH
	DB	0b7H
	DB	0fH
	DB	0aH
	DB	0aH
	DB	0aH
	DB	0aH
	DB	0aH
	DB	0aH
	DB	0aH
	DB	0aH
	DB	0aH
	DB	0aH
	DB	0aH
	DB	0aH
	DB	0aH
	DB	0aH
	DB	0aH
	DB	0aH
	DB	0aH
	DB	0aH
	DB	0aH
	DB	0aH
	DB	0aH
	DB	0aH
	DB	0aH
	DB	0aH
	DB	0aH
	DB	0aH
	DB	0aH
	DB	0aH
	DB	0aH
	DB	0aH
	DB	0aH
	DB	0aH
	DB	0aH
	DB	0aH
	DB	0aH
	DB	0aH
	DB	0aH
	DB	0aH
	DB	0aH
	DB	0aH
	DB	0aH
	DB	0aH
	DB	0aH
	DB	0aH
	DB	0aH
	DB	0aH
	DB	0aH
	DB	0aH
	DB	0aH
	DB	0aH
	DB	0aH
	DB	0aH
	DB	0aH
	DB	0aH
	DB	0aH
	DB	0aH
	DB	0aH
	DB	0aH
	DB	0aH
	DB	0aH
	DB	0aH
	DB	0ceH
	DB	0ceH
	DB	0ceH
	DB	0ceH
	DB	0ceH
	DB	0ceH
	DB	0ceH
	DB	0ceH
	DB	0ceH
	DB	0ceH
	DB	0ceH
	DB	0ceH
	DB	0ceH
	DB	0ceH
	DB	0ceH
	DB	0ceH
	DB	0ceH
	DB	0ceH
	DB	0ceH
	DB	0ceH
	DB	0ceH
	DB	0ceH
	DB	0ceH
	DB	0ceH
	DB	0ceH
	DB	0ceH
	DB	0ceH
	DB	0ceH
	DB	0ceH
	DB	0ceH
	DB	0ceH
	DB	0ceH
	DB	0ceH
	DB	0ceH
	DB	0ceH
	DB	0ceH
	DB	0ceH
	DB	0ceH
	DB	0ceH
	DB	0ceH
	DB	0ceH
	DB	0ceH
	DB	0ceH
	DB	0ceH
	DB	0ceH
	DB	0ceH
	DB	0ceH
	DB	0ceH
	DB	0ceH
	DB	0ceH
	DB	0ceH
	DB	0ceH
	DB	0ceH
	DB	0ceH
	DB	0ceH
	DB	0ceH
	DB	0ceH
	DB	0ceH
	DB	0ceH
	DB	0ceH
	DB	0ceH
	DB	092H
	DB	0c1H
	DB	02aH
	DB	01fH
	DB	01H
	DB	01H
	DB	01H
	DB	012H
	DB	02H
	DB	02H
	DB	02H
	DB	02H
	DB	02H
	DB	02H
	DB	02H
	DB	02H
	DB	02H
	DB	02H
	DB	01fH
	DB	0adH
	DB	050H
	DB	0b9H
	DB	0d2H
	DB	02H
	DB	02H
	DB	02H
	DB	02H
	DB	02H
	DB	02H
	DB	02H
	DB	02H
	DB	02H
	DB	02H
	DB	02H
	DB	02H
	DB	02H
	DB	02H
	DB	037H
	DB	01H
	DB	01H
	DB	01H
	DB	01H
	DB	01fH
	DB	084H
	DB	074H
	DB	01fH
	DB	01H
	DB	01H
	DB	01H
	DB	02H
	DB	02H
	DB	02H
	DB	02H
	DB	02H
	DB	02H
	DB	02H
	DB	02H
	DB	02H
	DB	02H
	DB	02H
	DB	037H
	DB	01H
	DB	01H
	DB	01H
	DB	012H
	DB	02H
	DB	027H
	DB	051H
	DB	0ceH
	DB	0ceH
	DB	0ceH
	DB	0ceH
	DB	0ceH
	DB	0ceH
	DB	0ceH
	DB	044H
	DB	095H
	DB	04eH
	DB	02H
	DB	01H
	DB	01H
	DB	01H
	DB	02H
	DB	02H
	DB	02H
	DB	02H
	DB	02H
	DB	02H
	DB	01H
	DB	01H
	DB	01H
	DB	01H
	DB	01H
	DB	02H
	DB	02H
	DB	02H
	DB	02H
	DB	02H
	DB	02H
	DB	01H
	DB	01H
	DB	01H
	DB	01H
	DB	01fH
	DB	032H
	DB	047H
	DB	02bH
	DB	01fH
	DB	01H
	DB	01H
	DB	01H
	DB	02H
	DB	02H
	DB	02H
	DB	02H
	DB	02H
	DB	02H
	DB	02H
	DB	02H
	DB	02H
	DB	02H
	DB	037H
	DB	01H
	DB	01H
	DB	01H
	DB	01H
	DB	01fH
	DB	01dH
	DB	088H
	DB	01fH
	DB	02H
	DB	02H
	DB	02H
	DB	02H
	DB	02H
	DB	037H
	DB	01H
	DB	01H
	DB	01H
	DB	01H
	DB	037H
	DB	02H
	DB	02H
	DB	02H
	DB	02H
	DB	02H
	DB	02H
	DB	02H
	DB	01H
	DB	01H
	DB	01H
	DB	01H
	DB	01H
	DB	02H
	DB	02H
	DB	02H
	DB	02H
	DB	02H
	DB	02H
	DB	02H
	DB	02H
	DB	02H
	DB	02H
	DB	02H
	DB	037H
	DB	01H
	DB	01H
	DB	01H
	DB	037H
	DB	02H
	DB	079H
	DB	09H
	DB	02aH
	DB	02H
	DB	01H
	DB	01H
	DB	02H
	DB	01aH
	DB	06H
	DB	06fH
	DB	01fH
	DB	012H
	DB	01H
	DB	01H
	DB	01H
	DB	02H
	DB	02H
	DB	02H
	DB	02H
	DB	02H
	DB	02H
	DB	02H
	DB	02H
	DB	02H
	DB	02H
	DB	02H
	DB	01fH
	DB	05eH
	DB	014H
	DB	0a3H
	DB	01fH
	DB	037H
	DB	01H
	DB	01H
	DB	037H
	DB	02H
	DB	02H
	DB	02H
	DB	02H
	DB	02H
	DB	02H
	DB	02H
	DB	02H
	DB	02H
	DB	02H
	DB	02H
	DB	02H
	DB	02H
	DB	02H
	DB	02H
	DB	01eH
	DB	0b8H
	DB	011H
	DB	0ceH
	DB	0ceH
	DB	0ceH
	DB	0ceH
	DB	0ceH
	DB	0ceH
	DB	0ceH
	DB	0ceH
	DB	0ceH
	DB	0ceH
	DB	0ceH
	DB	0ceH
	DB	0ceH
	DB	0ceH
	DB	0ceH
	DB	0ceH
	DB	0ceH
	DB	0ceH
	DB	0ceH
	DB	0ceH
	DB	0ceH
	DB	0ceH
	DB	0ceH
	DB	0ceH
	DB	0ceH
	DB	0ceH
	DB	0ceH
	DB	0ceH
	DB	0ceH
	DB	0ceH
	DB	0ceH
	DB	0ceH
	DB	0ceH
	DB	0ceH
	DB	0ceH
	DB	0ceH
	DB	0ceH
	DB	0ceH
	DB	0ceH
	DB	0ceH
	DB	0ceH
	DB	0ceH
	DB	0ceH
	DB	0ceH
	DB	0ceH
	DB	0ceH
	DB	0ceH
	DB	0ceH
	DB	0ceH
	DB	0ceH
	DB	0ceH
	DB	0ceH
	DB	0ceH
	DB	0ceH
	DB	0ceH
	DB	0ceH
	DB	0ceH
	DB	0ceH
	DB	0ceH
	DB	0ceH
	DB	0ceH
	DB	04H
	DB	04H
	DB	04H
	DB	04H
	DB	04H
	DB	04H
	DB	04H
	DB	04H
	DB	04H
	DB	04H
	DB	04H
	DB	04H
	DB	04H
	DB	04H
	DB	04H
	DB	04H
	DB	04H
	DB	04H
	DB	04H
	DB	04H
	DB	04H
	DB	04H
	DB	04H
	DB	04H
	DB	04H
	DB	04H
	DB	04H
	DB	04H
	DB	04H
	DB	04H
	DB	04H
	DB	04H
	DB	04H
	DB	04H
	DB	04H
	DB	04H
	DB	04H
	DB	04H
	DB	04H
	DB	04H
	DB	04H
	DB	04H
	DB	04H
	DB	04H
	DB	04H
	DB	04H
	DB	04H
	DB	04H
	DB	04H
	DB	04H
	DB	04H
	DB	04H
	DB	04H
	DB	04H
	DB	04H
	DB	04H
	DB	04H
	DB	04H
	DB	04H
	DB	04H
	DB	0ceH
	DB	023H
	DB	054H
	DB	01fH
	DB	01H
	DB	01H
	DB	01H
	DB	02H
	DB	01H
	DB	0aaH
	DB	01aH
	DB	015H
	DB	015H
	DB	015H
	DB	015H
	DB	015H
	DB	015H
	DB	015H
	DB	015H
	DB	02aH
	DB	084H
	DB	06H
	DB	01cH
	DB	07cH
	DB	02aH
	DB	015H
	DB	015H
	DB	015H
	DB	015H
	DB	015H
	DB	015H
	DB	015H
	DB	015H
	DB	015H
	DB	015H
	DB	015H
	DB	015H
	DB	0f5H
	DB	0b2H
	DB	037H
	DB	01H
	DB	01H
	DB	01H
	DB	02H
	DB	057H
	DB	03eH
	DB	02H
	DB	01H
	DB	01H
	DB	037H
	DB	0aeH
	DB	01aH
	DB	015H
	DB	015H
	DB	015H
	DB	015H
	DB	015H
	DB	015H
	DB	015H
	DB	01aH
	DB	02bH
	DB	02H
	DB	01H
	DB	01H
	DB	01H
	DB	01H
	DB	01fH
	DB	07dH
	DB	046H
	DB	04H
	DB	04H
	DB	04H
	DB	04H
	DB	04H
	DB	04H
	DB	04H
	DB	078H
	DB	09bH
	DB	02H
	DB	01H
	DB	01H
	DB	01H
	DB	037H
	DB	03eH
	DB	01aH
	DB	015H
	DB	015H
	DB	015H
	DB	03dH
	DB	04eH
	DB	037H
	DB	01H
	DB	01H
	DB	037H
	DB	0fcH
	DB	075H
	DB	015H
	DB	015H
	DB	075H
	DB	0b2H
	DB	02H
	DB	01H
	DB	01H
	DB	01H
	DB	02H
	DB	0f9H
	DB	0a3H
	DB	01fH
	DB	01H
	DB	01H
	DB	01H
	DB	02H
	DB	0b1H
	DB	015H
	DB	015H
	DB	015H
	DB	015H
	DB	015H
	DB	015H
	DB	015H
	DB	015H
	DB	015H
	DB	02cH
	DB	02H
	DB	01H
	DB	01H
	DB	01H
	DB	02H
	DB	0adH
	DB	087H
	DB	075H
	DB	015H
	DB	015H
	DB	015H
	DB	015H
	DB	075H
	DB	04eH
	DB	037H
	DB	01H
	DB	01H
	DB	037H
	DB	02cH
	DB	015H
	DB	015H
	DB	015H
	DB	015H
	DB	015H
	DB	015H
	DB	02aH
	DB	01H
	DB	037H
	DB	01H
	DB	01H
	DB	02H
	DB	03bH
	DB	01aH
	DB	015H
	DB	015H
	DB	015H
	DB	015H
	DB	015H
	DB	015H
	DB	015H
	DB	01aH
	DB	02bH
	DB	02H
	DB	037H
	DB	01H
	DB	01H
	DB	01H
	DB	01fH
	DB	06fH
	DB	06bH
	DB	0feH
	DB	02H
	DB	01H
	DB	01H
	DB	01fH
	DB	049H
	DB	08cH
	DB	0b2H
	DB	02H
	DB	01H
	DB	01H
	DB	01H
	DB	02H
	DB	03bH
	DB	015H
	DB	015H
	DB	015H
	DB	015H
	DB	015H
	DB	015H
	DB	015H
	DB	015H
	DB	015H
	DB	075H
	DB	03dH
	DB	050H
	DB	024H
	DB	0b5H
	DB	02H
	DB	01H
	DB	01H
	DB	037H
	DB	012H
	DB	02bH
	DB	01aH
	DB	015H
	DB	015H
	DB	015H
	DB	015H
	DB	015H
	DB	015H
	DB	015H
	DB	015H
	DB	015H
	DB	015H
	DB	015H
	DB	075H
	DB	056H
	DB	040H
	DB	01cH
	DB	0fH
	DB	04H
	DB	04H
	DB	04H
	DB	04H
	DB	04H
	DB	04H
	DB	04H
	DB	04H
	DB	04H
	DB	04H
	DB	04H
	DB	04H
	DB	04H
	DB	04H
	DB	04H
	DB	04H
	DB	04H
	DB	04H
	DB	04H
	DB	04H
	DB	04H
	DB	04H
	DB	04H
	DB	04H
	DB	04H
	DB	04H
	DB	04H
	DB	04H
	DB	04H
	DB	04H
	DB	04H
	DB	04H
	DB	04H
	DB	04H
	DB	04H
	DB	04H
	DB	04H
	DB	04H
	DB	04H
	DB	04H
	DB	04H
	DB	04H
	DB	04H
	DB	04H
	DB	04H
	DB	04H
	DB	04H
	DB	04H
	DB	04H
	DB	04H
	DB	04H
	DB	04H
	DB	04H
	DB	04H
	DB	04H
	DB	04H
	DB	04H
	DB	04H
	DB	04H
	DB	04H
	DB	04H
	DB	0fH
	DB	0fH
	DB	0fH
	DB	0fH
	DB	0fH
	DB	0fH
	DB	0fH
	DB	0fH
	DB	0fH
	DB	0fH
	DB	0fH
	DB	0fH
	DB	0fH
	DB	0fH
	DB	0fH
	DB	0fH
	DB	0fH
	DB	0fH
	DB	0fH
	DB	0fH
	DB	0fH
	DB	0fH
	DB	0fH
	DB	0fH
	DB	0fH
	DB	0fH
	DB	0fH
	DB	0fH
	DB	0fH
	DB	0fH
	DB	0fH
	DB	0fH
	DB	0fH
	DB	0fH
	DB	0fH
	DB	0fH
	DB	0fH
	DB	0fH
	DB	0fH
	DB	0fH
	DB	0fH
	DB	0fH
	DB	0fH
	DB	0fH
	DB	0fH
	DB	0fH
	DB	0fH
	DB	0fH
	DB	0fH
	DB	0fH
	DB	0fH
	DB	0fH
	DB	0fH
	DB	0fH
	DB	0fH
	DB	0fH
	DB	0fH
	DB	0fH
	DB	0fH
	DB	0fH
	DB	0fH
	DB	0beH
	DB	03eH
	DB	02H
	DB	01H
	DB	01H
	DB	02H
	DB	0fcH
	DB	0e3H
	DB	06H
	DB	06H
	DB	013H
	DB	013H
	DB	013H
	DB	013H
	DB	013H
	DB	013H
	DB	013H
	DB	013H
	DB	013H
	DB	06H
	DB	09H
	DB	0bH
	DB	0c4H
	DB	08H
	DB	09H
	DB	013H
	DB	013H
	DB	013H
	DB	013H
	DB	013H
	DB	013H
	DB	013H
	DB	013H
	DB	013H
	DB	013H
	DB	013H
	DB	06H
	DB	027H
	DB	02H
	DB	037H
	DB	01H
	DB	01H
	DB	037H
	DB	020H
	DB	020H
	DB	037H
	DB	01H
	DB	01H
	DB	02H
	DB	081H
	DB	014H
	DB	013H
	DB	013H
	DB	013H
	DB	013H
	DB	013H
	DB	013H
	DB	013H
	DB	013H
	DB	013H
	DB	071H
	DB	02H
	DB	01H
	DB	01H
	DB	01H
	DB	01fH
	DB	07dH
	DB	058H
	DB	011H
	DB	0fH
	DB	0fH
	DB	0fH
	DB	0fH
	DB	0fH
	DB	0fH
	DB	05aH
	DB	045H
	DB	02H
	DB	01H
	DB	01H
	DB	037H
	DB	02H
	DB	06aH
	DB	014H
	DB	013H
	DB	013H
	DB	06H
	DB	01eH
	DB	020H
	DB	02H
	DB	01H
	DB	01H
	DB	01fH
	DB	039H
	DB	014H
	DB	013H
	DB	013H
	DB	06H
	DB	0daH
	DB	04eH
	DB	012H
	DB	01H
	DB	01H
	DB	037H
	DB	0ffH
	DB	0fdH
	DB	037H
	DB	01H
	DB	01H
	DB	02H
	DB	03eH
	DB	08dH
	DB	06H
	DB	013H
	DB	013H
	DB	013H
	DB	013H
	DB	013H
	DB	013H
	DB	013H
	DB	014H
	DB	02eH
	DB	02H
	DB	037H
	DB	01H
	DB	01H
	DB	01fH
	DB	088H
	DB	06H
	DB	013H
	DB	013H
	DB	013H
	DB	013H
	DB	06H
	DB	048H
	DB	01H
	DB	037H
	DB	01H
	DB	01H
	DB	01fH
	DB	0f0H
	DB	06H
	DB	013H
	DB	013H
	DB	013H
	DB	013H
	DB	014H
	DB	02eH
	DB	02H
	DB	012H
	DB	01H
	DB	037H
	DB	01fH
	DB	053H
	DB	014H
	DB	013H
	DB	013H
	DB	013H
	DB	013H
	DB	013H
	DB	013H
	DB	013H
	DB	06H
	DB	013H
	DB	0a7H
	DB	02H
	DB	01H
	DB	01H
	DB	01H
	DB	01fH
	DB	053H
	DB	02eH
	DB	02H
	DB	037H
	DB	01H
	DB	037H
	DB	02H
	DB	02eH
	DB	021H
	DB	01fH
	DB	01H
	DB	01H
	DB	01H
	DB	02H
	DB	085H
	DB	040H
	DB	06H
	DB	013H
	DB	013H
	DB	013H
	DB	013H
	DB	013H
	DB	013H
	DB	013H
	DB	013H
	DB	013H
	DB	013H
	DB	06H
	DB	045H
	DB	01fH
	DB	01H
	DB	01H
	DB	012H
	DB	012H
	DB	080H
	DB	013H
	DB	06H
	DB	013H
	DB	013H
	DB	013H
	DB	013H
	DB	013H
	DB	013H
	DB	013H
	DB	013H
	DB	013H
	DB	013H
	DB	013H
	DB	013H
	DB	013H
	DB	09H
	DB	0cH
	DB	011H
	DB	0fH
	DB	0fH
	DB	0fH
	DB	0fH
	DB	0fH
	DB	0fH
	DB	0fH
	DB	0fH
	DB	0fH
	DB	0fH
	DB	0fH
	DB	0fH
	DB	0fH
	DB	0fH
	DB	0fH
	DB	0fH
	DB	0fH
	DB	0fH
	DB	0fH
	DB	0fH
	DB	0fH
	DB	0fH
	DB	0fH
	DB	0fH
	DB	0fH
	DB	0fH
	DB	0fH
	DB	0fH
	DB	0fH
	DB	0fH
	DB	0fH
	DB	0fH
	DB	0fH
	DB	0fH
	DB	0fH
	DB	0fH
	DB	0fH
	DB	0fH
	DB	0fH
	DB	0fH
	DB	0fH
	DB	0fH
	DB	0fH
	DB	0fH
	DB	0fH
	DB	0fH
	DB	0fH
	DB	0fH
	DB	0fH
	DB	0fH
	DB	0fH
	DB	0fH
	DB	0fH
	DB	0fH
	DB	0fH
	DB	0fH
	DB	0fH
	DB	0fH
	DB	0fH
	DB	0fH
	DB	0fH
	DB	011H
	DB	011H
	DB	011H
	DB	011H
	DB	011H
	DB	011H
	DB	011H
	DB	011H
	DB	011H
	DB	011H
	DB	011H
	DB	011H
	DB	011H
	DB	011H
	DB	011H
	DB	011H
	DB	011H
	DB	011H
	DB	011H
	DB	011H
	DB	011H
	DB	011H
	DB	011H
	DB	011H
	DB	011H
	DB	011H
	DB	011H
	DB	011H
	DB	011H
	DB	011H
	DB	011H
	DB	011H
	DB	011H
	DB	011H
	DB	011H
	DB	011H
	DB	011H
	DB	011H
	DB	011H
	DB	011H
	DB	011H
	DB	011H
	DB	011H
	DB	011H
	DB	011H
	DB	011H
	DB	011H
	DB	011H
	DB	011H
	DB	011H
	DB	011H
	DB	011H
	DB	011H
	DB	011H
	DB	011H
	DB	011H
	DB	011H
	DB	011H
	DB	011H
	DB	011H
	DB	051H
	DB	0dbH
	DB	01H
	DB	037H
	DB	01H
	DB	01H
	DB	01fH
	DB	07fH
	DB	014H
	DB	09H
	DB	0b8H
	DB	08H
	DB	08H
	DB	08H
	DB	08H
	DB	08H
	DB	08H
	DB	08H
	DB	08H
	DB	08H
	DB	08H
	DB	03H
	DB	05H
	DB	011H
	DB	05H
	DB	076H
	DB	0b8H
	DB	019H
	DB	019H
	DB	019H
	DB	019H
	DB	019H
	DB	019H
	DB	019H
	DB	019H
	DB	019H
	DB	019H
	DB	0b6H
	DB	093H
	DB	02H
	DB	037H
	DB	01H
	DB	01H
	DB	01H
	DB	037H
	DB	037H
	DB	01H
	DB	01H
	DB	01H
	DB	02H
	DB	05bH
	DB	034H
	DB	0b8H
	DB	08H
	DB	08H
	DB	08H
	DB	08H
	DB	08H
	DB	08H
	DB	08H
	DB	018H
	DB	06dH
	DB	01fH
	DB	037H
	DB	01H
	DB	037H
	DB	02H
	DB	027H
	DB	058H
	DB	090H
	DB	011H
	DB	011H
	DB	011H
	DB	011H
	DB	011H
	DB	0fH
	DB	0b8H
	DB	087H
	DB	02H
	DB	01H
	DB	01H
	DB	02H
	DB	03bH
	DB	040H
	DB	058H
	DB	08H
	DB	08H
	DB	018H
	DB	027H
	DB	02H
	DB	037H
	DB	01H
	DB	037H
	DB	02H
	DB	027H
	DB	014H
	DB	0b8H
	DB	08H
	DB	0b8H
	DB	04fH
	DB	03cH
	DB	02H
	DB	01H
	DB	01H
	DB	01H
	DB	01H
	DB	012H
	DB	01H
	DB	01H
	DB	01H
	DB	01fH
	DB	09eH
	DB	014H
	DB	018H
	DB	0b7H
	DB	019H
	DB	019H
	DB	019H
	DB	019H
	DB	019H
	DB	019H
	DB	0b6H
	DB	0d3H
	DB	02H
	DB	012H
	DB	01H
	DB	01H
	DB	01fH
	DB	081H
	DB	014H
	DB	08H
	DB	08H
	DB	08H
	DB	08H
	DB	058H
	DB	0e7H
	DB	02H
	DB	01H
	DB	01H
	DB	01H
	DB	01fH
	DB	0e4H
	DB	034H
	DB	0b8H
	DB	08H
	DB	08H
	DB	08H
	DB	018H
	DB	07fH
	DB	01fH
	DB	01H
	DB	01H
	DB	02H
	DB	01H
	DB	025H
	DB	034H
	DB	08H
	DB	08H
	DB	08H
	DB	08H
	DB	08H
	DB	08H
	DB	08H
	DB	08H
	DB	0b6H
	DB	06fH
	DB	02H
	DB	01H
	DB	01H
	DB	01H
	DB	01fH
	DB	06bH
	DB	080H
	DB	01fH
	DB	01H
	DB	01H
	DB	02H
	DB	020H
	DB	06aH
	DB	03aH
	DB	02H
	DB	01H
	DB	01H
	DB	02H
	DB	03bH
	DB	040H
	DB	034H
	DB	08aH
	DB	08H
	DB	08H
	DB	08H
	DB	08H
	DB	08H
	DB	08H
	DB	08H
	DB	08H
	DB	08H
	DB	0b8H
	DB	0bcH
	DB	01aH
	DB	02H
	DB	01H
	DB	01H
	DB	02H
	DB	0acH
	DB	022H
	DB	034H
	DB	058H
	DB	019H
	DB	019H
	DB	019H
	DB	019H
	DB	019H
	DB	019H
	DB	019H
	DB	019H
	DB	0b8H
	DB	08H
	DB	08H
	DB	08H
	DB	08H
	DB	03H
	DB	0bH
	DB	011H
	DB	011H
	DB	011H
	DB	011H
	DB	011H
	DB	011H
	DB	011H
	DB	011H
	DB	011H
	DB	011H
	DB	011H
	DB	011H
	DB	011H
	DB	011H
	DB	011H
	DB	011H
	DB	011H
	DB	011H
	DB	011H
	DB	011H
	DB	011H
	DB	011H
	DB	011H
	DB	011H
	DB	011H
	DB	011H
	DB	011H
	DB	011H
	DB	011H
	DB	011H
	DB	011H
	DB	011H
	DB	011H
	DB	011H
	DB	011H
	DB	011H
	DB	011H
	DB	011H
	DB	011H
	DB	011H
	DB	011H
	DB	011H
	DB	011H
	DB	011H
	DB	011H
	DB	011H
	DB	011H
	DB	011H
	DB	011H
	DB	011H
	DB	011H
	DB	011H
	DB	011H
	DB	011H
	DB	011H
	DB	011H
	DB	011H
	DB	011H
	DB	011H
	DB	011H
	DB	011H
	DB	011H
	DB	090H
	DB	090H
	DB	090H
	DB	090H
	DB	090H
	DB	090H
	DB	090H
	DB	090H
	DB	090H
	DB	090H
	DB	090H
	DB	090H
	DB	090H
	DB	090H
	DB	090H
	DB	090H
	DB	090H
	DB	090H
	DB	090H
	DB	090H
	DB	090H
	DB	090H
	DB	090H
	DB	090H
	DB	090H
	DB	090H
	DB	090H
	DB	090H
	DB	090H
	DB	090H
	DB	090H
	DB	090H
	DB	090H
	DB	090H
	DB	090H
	DB	090H
	DB	090H
	DB	090H
	DB	090H
	DB	090H
	DB	090H
	DB	090H
	DB	090H
	DB	090H
	DB	090H
	DB	090H
	DB	090H
	DB	090H
	DB	090H
	DB	090H
	DB	090H
	DB	090H
	DB	090H
	DB	090H
	DB	090H
	DB	090H
	DB	090H
	DB	090H
	DB	090H
	DB	090H
	DB	01cH
	DB	021H
	DB	01fH
	DB	01H
	DB	01H
	DB	037H
	DB	02H
	DB	017H
	DB	034H
	DB	03H
	DB	0bH
	DB	0bH
	DB	0bH
	DB	0bH
	DB	0bH
	DB	0bH
	DB	0bH
	DB	0bH
	DB	0bH
	DB	0bH
	DB	0bH
	DB	05H
	DB	090H
	DB	090H
	DB	01cH
	DB	041H
	DB	030H
	DB	01bH
	DB	01bH
	DB	01bH
	DB	01bH
	DB	01bH
	DB	01bH
	DB	01bH
	DB	01bH
	DB	01bH
	DB	01bH
	DB	097H
	DB	081H
	DB	01fH
	DB	01H
	DB	01H
	DB	01H
	DB	01H
	DB	01H
	DB	01H
	DB	01H
	DB	01H
	DB	037H
	DB	04dH
	DB	035H
	DB	019H
	DB	0cH
	DB	0bH
	DB	0bH
	DB	0bH
	DB	0bH
	DB	0bH
	DB	0bH
	DB	038H
	DB	0b8H
	DB	039H
	DB	01fH
	DB	01H
	DB	01H
	DB	02H
	DB	0feH
	DB	024H
	DB	0b7H
	DB	0bH
	DB	090H
	DB	090H
	DB	090H
	DB	090H
	DB	090H
	DB	05H
	DB	0bfH
	DB	04cH
	DB	02H
	DB	01H
	DB	01H
	DB	01fH
	DB	073H
	DB	013H
	DB	08H
	DB	0bH
	DB	0bH
	DB	08H
	DB	039H
	DB	01fH
	DB	01H
	DB	01H
	DB	02H
	DB	0feH
	DB	024H
	DB	058H
	DB	0cH
	DB	05H
	DB	023H
	DB	0d5H
	DB	012H
	DB	037H
	DB	01H
	DB	01H
	DB	01H
	DB	01H
	DB	01H
	DB	01H
	DB	01H
	DB	037H
	DB	02H
	DB	021H
	DB	01eH
	DB	05cH
	DB	01bH
	DB	01bH
	DB	01bH
	DB	01bH
	DB	01bH
	DB	01bH
	DB	05cH
	DB	06dH
	DB	02bH
	DB	02H
	DB	01H
	DB	01H
	DB	02H
	DB	0fdH
	DB	042H
	DB	058H
	DB	0cH
	DB	0bH
	DB	0bH
	DB	05H
	DB	0b9H
	DB	039H
	DB	02H
	DB	01H
	DB	01H
	DB	037H
	DB	012H
	DB	043H
	DB	018H
	DB	0cH
	DB	0bH
	DB	0bH
	DB	0c3H
	DB	041H
	DB	062H
	DB	02H
	DB	01H
	DB	01H
	DB	02H
	DB	03bH
	DB	035H
	DB	0b8H
	DB	0cH
	DB	0bH
	DB	0bH
	DB	0bH
	DB	0bH
	DB	0bH
	DB	0bH
	DB	05H
	DB	0b7H
	DB	0f0H
	DB	01fH
	DB	01H
	DB	01H
	DB	02H
	DB	0fcH
	DB	0d0H
	DB	074H
	DB	02H
	DB	01H
	DB	01H
	DB	02H
	DB	02aH
	DB	059H
	DB	03bH
	DB	02H
	DB	01H
	DB	01H
	DB	01fH
	DB	073H
	DB	013H
	DB	0b8H
	DB	0cH
	DB	0bH
	DB	0bH
	DB	0bH
	DB	0bH
	DB	0bH
	DB	0bH
	DB	0bH
	DB	0bH
	DB	0bH
	DB	0c3H
	DB	0bdH
	DB	029H
	DB	02H
	DB	01H
	DB	01H
	DB	037H
	DB	04eH
	DB	081H
	DB	025H
	DB	01bH
	DB	01bH
	DB	01bH
	DB	01bH
	DB	01bH
	DB	01bH
	DB	01bH
	DB	01bH
	DB	01bH
	DB	030H
	DB	08H
	DB	076H
	DB	05H
	DB	0bH
	DB	05H
	DB	05H
	DB	090H
	DB	090H
	DB	090H
	DB	090H
	DB	090H
	DB	090H
	DB	090H
	DB	090H
	DB	090H
	DB	090H
	DB	090H
	DB	090H
	DB	090H
	DB	090H
	DB	090H
	DB	090H
	DB	090H
	DB	090H
	DB	090H
	DB	090H
	DB	090H
	DB	090H
	DB	090H
	DB	090H
	DB	090H
	DB	090H
	DB	090H
	DB	090H
	DB	090H
	DB	090H
	DB	090H
	DB	090H
	DB	090H
	DB	090H
	DB	090H
	DB	090H
	DB	090H
	DB	090H
	DB	090H
	DB	090H
	DB	090H
	DB	090H
	DB	090H
	DB	090H
	DB	090H
	DB	090H
	DB	090H
	DB	090H
	DB	090H
	DB	090H
	DB	090H
	DB	090H
	DB	090H
	DB	090H
	DB	090H
	DB	090H
	DB	090H
	DB	090H
	DB	090H
	DB	090H
	DB	090H
	DB	090H
	DB	05H
	DB	05H
	DB	05H
	DB	05H
	DB	05H
	DB	05H
	DB	05H
	DB	05H
	DB	05H
	DB	05H
	DB	05H
	DB	05H
	DB	05H
	DB	05H
	DB	05H
	DB	05H
	DB	05H
	DB	05H
	DB	05H
	DB	05H
	DB	05H
	DB	05H
	DB	05H
	DB	05H
	DB	05H
	DB	05H
	DB	05H
	DB	05H
	DB	05H
	DB	05H
	DB	05H
	DB	05H
	DB	05H
	DB	05H
	DB	05H
	DB	05H
	DB	05H
	DB	05H
	DB	05H
	DB	05H
	DB	05H
	DB	05H
	DB	05H
	DB	05H
	DB	05H
	DB	05H
	DB	05H
	DB	05H
	DB	05H
	DB	05H
	DB	05H
	DB	05H
	DB	05H
	DB	05H
	DB	05H
	DB	05H
	DB	05H
	DB	05H
	DB	05H
	DB	038H
	DB	03H
	DB	0a5H
	DB	01fH
	DB	01H
	DB	01H
	DB	02H
	DB	0fcH
	DB	08dH
	DB	0b7H
	DB	0cH
	DB	05H
	DB	05H
	DB	05H
	DB	05H
	DB	05H
	DB	05H
	DB	05H
	DB	05H
	DB	05H
	DB	05H
	DB	05H
	DB	05H
	DB	076H
	DB	041H
	DB	06dH
	DB	029H
	DB	089H
	DB	012H
	DB	01H
	DB	01H
	DB	01H
	DB	01H
	DB	01H
	DB	01H
	DB	01H
	DB	01H
	DB	01H
	DB	01H
	DB	02H
	DB	01H
	DB	01H
	DB	01H
	DB	01H
	DB	01H
	DB	04eH
	DB	01H
	DB	01H
	DB	01H
	DB	02H
	DB	01aH
	DB	013H
	DB	058H
	DB	076H
	DB	023H
	DB	023H
	DB	023H
	DB	023H
	DB	023H
	DB	023H
	DB	01cH
	DB	0bdH
	DB	063H
	DB	02H
	DB	01H
	DB	01H
	DB	02H
	DB	0acH
	DB	040H
	DB	0b8H
	DB	0c3H
	DB	05H
	DB	05H
	DB	05H
	DB	05H
	DB	05H
	DB	076H
	DB	098H
	DB	04eH
	DB	02H
	DB	01H
	DB	01H
	DB	01fH
	DB	070H
	DB	034H
	DB	03H
	DB	05H
	DB	038H
	DB	0bdH
	DB	029H
	DB	02H
	DB	01H
	DB	01H
	DB	02H
	DB	02bH
	DB	040H
	DB	0b8H
	DB	0bH
	DB	090H
	DB	01cH
	DB	07fH
	DB	02H
	DB	01H
	DB	01H
	DB	01H
	DB	01H
	DB	04eH
	DB	01H
	DB	01H
	DB	01H
	DB	01H
	DB	01H
	DB	037H
	DB	012H
	DB	012H
	DB	01H
	DB	01H
	DB	01H
	DB	01H
	DB	01H
	DB	01H
	DB	01H
	DB	02H
	DB	02H
	DB	01H
	DB	01H
	DB	02H
	DB	01fH
	DB	021H
	DB	014H
	DB	0b8H
	DB	0cH
	DB	05H
	DB	05H
	DB	05H
	DB	08H
	DB	03aH
	DB	01fH
	DB	01H
	DB	01H
	DB	02H
	DB	03eH
	DB	035H
	DB	019H
	DB	0c3H
	DB	05H
	DB	05H
	DB	038H
	DB	0bdH
	DB	04cH
	DB	02H
	DB	01H
	DB	01H
	DB	02H
	DB	0f3H
	DB	014H
	DB	019H
	DB	076H
	DB	023H
	DB	023H
	DB	023H
	DB	023H
	DB	023H
	DB	023H
	DB	01cH
	DB	0bdH
	DB	02bH
	DB	02H
	DB	01H
	DB	01H
	DB	01fH
	DB	0a8H
	DB	047H
	DB	03cH
	DB	02H
	DB	01H
	DB	01H
	DB	02H
	DB	016H
	DB	01eH
	DB	01H
	DB	02H
	DB	01H
	DB	01H
	DB	01fH
	DB	070H
	DB	014H
	DB	03H
	DB	0bH
	DB	05H
	DB	05H
	DB	05H
	DB	05H
	DB	05H
	DB	05H
	DB	05H
	DB	05H
	DB	05H
	DB	05H
	DB	01cH
	DB	081H
	DB	01fH
	DB	01H
	DB	01H
	DB	01H
	DB	037H
	DB	02H
	DB	012H
	DB	012H
	DB	01H
	DB	01H
	DB	01H
	DB	01H
	DB	01H
	DB	01H
	DB	01H
	DB	012H
	DB	020H
	DB	0f3H
	DB	0d9H
	DB	0b8H
	DB	05H
	DB	05H
	DB	05H
	DB	05H
	DB	05H
	DB	05H
	DB	05H
	DB	05H
	DB	05H
	DB	05H
	DB	05H
	DB	05H
	DB	05H
	DB	05H
	DB	05H
	DB	05H
	DB	05H
	DB	05H
	DB	05H
	DB	05H
	DB	05H
	DB	05H
	DB	05H
	DB	05H
	DB	05H
	DB	05H
	DB	05H
	DB	05H
	DB	05H
	DB	05H
	DB	05H
	DB	05H
	DB	05H
	DB	05H
	DB	05H
	DB	05H
	DB	05H
	DB	05H
	DB	05H
	DB	05H
	DB	05H
	DB	05H
	DB	05H
	DB	05H
	DB	05H
	DB	05H
	DB	05H
	DB	05H
	DB	05H
	DB	05H
	DB	05H
	DB	05H
	DB	05H
	DB	05H
	DB	05H
	DB	05H
	DB	05H
	DB	05H
	DB	05H
	DB	05H
	DB	05H
	DB	05H
	DB	05H
	DB	05H
	DB	05H
	DB	0cH
	DB	0cH
	DB	0cH
	DB	0cH
	DB	0cH
	DB	0cH
	DB	0cH
	DB	0cH
	DB	0cH
	DB	0cH
	DB	0cH
	DB	0cH
	DB	0cH
	DB	0cH
	DB	0cH
	DB	0cH
	DB	0cH
	DB	0cH
	DB	0cH
	DB	0cH
	DB	0cH
	DB	0cH
	DB	0cH
	DB	0cH
	DB	0cH
	DB	0cH
	DB	0cH
	DB	0cH
	DB	0cH
	DB	0cH
	DB	0cH
	DB	0cH
	DB	0cH
	DB	0cH
	DB	0cH
	DB	0cH
	DB	0cH
	DB	0cH
	DB	0cH
	DB	0cH
	DB	0cH
	DB	0cH
	DB	0cH
	DB	0cH
	DB	0cH
	DB	0cH
	DB	0cH
	DB	0cH
	DB	0cH
	DB	0cH
	DB	0cH
	DB	0cH
	DB	0cH
	DB	0cH
	DB	0cH
	DB	0cH
	DB	0cH
	DB	0cH
	DB	0cH
	DB	05aH
	DB	041H
	DB	03dH
	DB	02H
	DB	01H
	DB	01H
	DB	02H
	DB	0f5H
	DB	06H
	DB	0b8H
	DB	0cH
	DB	0cH
	DB	0cH
	DB	0cH
	DB	0cH
	DB	0cH
	DB	0cH
	DB	0cH
	DB	0cH
	DB	0cH
	DB	0cH
	DB	0c3H
	DB	01cH
	DB	030H
	DB	062H
	DB	02H
	DB	02H
	DB	037H
	DB	037H
	DB	037H
	DB	037H
	DB	037H
	DB	037H
	DB	037H
	DB	037H
	DB	037H
	DB	037H
	DB	037H
	DB	037H
	DB	037H
	DB	01H
	DB	01H
	DB	01H
	DB	01H
	DB	01H
	DB	037H
	DB	01H
	DB	01H
	DB	01H
	DB	01fH
	DB	02fH
	DB	08dH
	DB	093H
	DB	026H
	DB	026H
	DB	026H
	DB	026H
	DB	026H
	DB	026H
	DB	094H
	DB	0d3H
	DB	073H
	DB	02H
	DB	01H
	DB	01H
	DB	01H
	DB	01fH
	DB	04aH
	DB	014H
	DB	08H
	DB	0cH
	DB	0cH
	DB	0cH
	DB	0cH
	DB	0cH
	DB	0c3H
	DB	046H
	DB	09dH
	DB	01fH
	DB	037H
	DB	01H
	DB	012H
	DB	02H
	DB	02eH
	DB	034H
	DB	03H
	DB	0cH
	DB	0c2H
	DB	0bdH
	DB	0eH
	DB	02H
	DB	01H
	DB	01H
	DB	02H
	DB	02fH
	DB	014H
	DB	08H
	DB	0cH
	DB	0bH
	DB	0b7H
	DB	0a4H
	DB	01fH
	DB	01H
	DB	01H
	DB	01H
	DB	01H
	DB	037H
	DB	01H
	DB	01H
	DB	01H
	DB	01H
	DB	01H
	DB	037H
	DB	037H
	DB	037H
	DB	037H
	DB	037H
	DB	037H
	DB	037H
	DB	037H
	DB	037H
	DB	037H
	DB	037H
	DB	01H
	DB	037H
	DB	02H
	DB	02H
	DB	05fH
	DB	014H
	DB	018H
	DB	08H
	DB	0cH
	DB	0cH
	DB	0cH
	DB	076H
	DB	08eH
	DB	03cH
	DB	02H
	DB	01H
	DB	01H
	DB	01fH
	DB	02fH
	DB	014H
	DB	08H
	DB	0cH
	DB	0cH
	DB	0cH
	DB	076H
	DB	024H
	DB	01H
	DB	037H
	DB	01H
	DB	01H
	DB	02H
	DB	072H
	DB	030H
	DB	093H
	DB	026H
	DB	026H
	DB	026H
	DB	026H
	DB	026H
	DB	026H
	DB	026H
	DB	0d3H
	DB	088H
	DB	02H
	DB	01H
	DB	01H
	DB	01H
	DB	01fH
	DB	054H
	DB	048H
	DB	02H
	DB	037H
	DB	01H
	DB	01H
	DB	01fH
	DB	07eH
	DB	027H
	DB	01fH
	DB	037H
	DB	01H
	DB	012H
	DB	02H
	DB	02eH
	DB	034H
	DB	03H
	DB	0cH
	DB	0cH
	DB	0cH
	DB	0cH
	DB	0cH
	DB	0cH
	DB	0cH
	DB	0cH
	DB	0cH
	DB	0cH
	DB	0cH
	DB	076H
	DB	030H
	DB	057H
	DB	01fH
	DB	01H
	DB	01H
	DB	01H
	DB	037H
	DB	037H
	DB	037H
	DB	037H
	DB	037H
	DB	037H
	DB	037H
	DB	037H
	DB	037H
	DB	037H
	DB	037H
	DB	037H
	DB	01fH
	DB	064H
	DB	02eH
	DB	046H
	DB	0c3H
	DB	0cH
	DB	0cH
	DB	0cH
	DB	0cH
	DB	0cH
	DB	0cH
	DB	0cH
	DB	0cH
	DB	0cH
	DB	0cH
	DB	0cH
	DB	0cH
	DB	0cH
	DB	0cH
	DB	0cH
	DB	0cH
	DB	0cH
	DB	0cH
	DB	0cH
	DB	0cH
	DB	0cH
	DB	0cH
	DB	0cH
	DB	0cH
	DB	0cH
	DB	0cH
	DB	0cH
	DB	0cH
	DB	0cH
	DB	0cH
	DB	0cH
	DB	0cH
	DB	0cH
	DB	0cH
	DB	0cH
	DB	0cH
	DB	0cH
	DB	0cH
	DB	0cH
	DB	0cH
	DB	0cH
	DB	0cH
	DB	0cH
	DB	0cH
	DB	0cH
	DB	0cH
	DB	0cH
	DB	0cH
	DB	0cH
	DB	0cH
	DB	0cH
	DB	0cH
	DB	0cH
	DB	0cH
	DB	0cH
	DB	0cH
	DB	0cH
	DB	0cH
	DB	0cH
	DB	0cH
	DB	0cH
	DB	0cH
	DB	0cH
	DB	03H
	DB	03H
	DB	03H
	DB	03H
	DB	03H
	DB	03H
	DB	03H
	DB	03H
	DB	03H
	DB	03H
	DB	03H
	DB	03H
	DB	03H
	DB	03H
	DB	03H
	DB	03H
	DB	03H
	DB	03H
	DB	03H
	DB	03H
	DB	03H
	DB	03H
	DB	03H
	DB	03H
	DB	03H
	DB	03H
	DB	03H
	DB	03H
	DB	03H
	DB	03H
	DB	03H
	DB	03H
	DB	03H
	DB	03H
	DB	03H
	DB	03H
	DB	03H
	DB	03H
	DB	03H
	DB	03H
	DB	03H
	DB	03H
	DB	03H
	DB	03H
	DB	03H
	DB	03H
	DB	03H
	DB	03H
	DB	03H
	DB	03H
	DB	03H
	DB	03H
	DB	03H
	DB	03H
	DB	03H
	DB	03H
	DB	03H
	DB	03H
	DB	03H
	DB	01cH
	DB	050H
	DB	020H
	DB	012H
	DB	01H
	DB	01H
	DB	02H
	DB	086H
	DB	014H
	DB	08H
	DB	03H
	DB	03H
	DB	03H
	DB	03H
	DB	03H
	DB	03H
	DB	03H
	DB	03H
	DB	03H
	DB	03H
	DB	03H
	DB	0b8H
	DB	024H
	DB	04cH
	DB	01fH
	DB	012H
	DB	01H
	DB	01H
	DB	02H
	DB	02H
	DB	02H
	DB	02H
	DB	02H
	DB	02H
	DB	02H
	DB	02H
	DB	02H
	DB	02H
	DB	02H
	DB	01H
	DB	01H
	DB	01H
	DB	01H
	DB	01H
	DB	01H
	DB	01H
	DB	01H
	DB	01H
	DB	01H
	DB	037H
	DB	04eH
	DB	04eH
	DB	01H
	DB	01H
	DB	04eH
	DB	04eH
	DB	04eH
	DB	04eH
	DB	04eH
	DB	04eH
	DB	02H
	DB	02H
	DB	037H
	DB	01H
	DB	01H
	DB	02H
	DB	020H
	DB	048H
	DB	034H
	DB	08H
	DB	03H
	DB	03H
	DB	03H
	DB	03H
	DB	03H
	DB	03H
	DB	0b8H
	DB	0a3H
	DB	01fH
	DB	01H
	DB	01H
	DB	02H
	DB	0b1H
	DB	08dH
	DB	018H
	DB	03H
	DB	03H
	DB	0b8H
	DB	0d8H
	DB	02H
	DB	037H
	DB	01H
	DB	01H
	DB	01fH
	DB	06eH
	DB	014H
	DB	08H
	DB	03H
	DB	076H
	DB	04fH
	DB	0a8H
	DB	01fH
	DB	01H
	DB	01H
	DB	01H
	DB	01H
	DB	01H
	DB	01H
	DB	01H
	DB	01H
	DB	01H
	DB	02H
	DB	02H
	DB	02H
	DB	02H
	DB	02H
	DB	02H
	DB	02H
	DB	02H
	DB	02H
	DB	02H
	DB	02H
	DB	02H
	DB	01fH
	DB	02H
	DB	02aH
	DB	025H
	DB	00H
	DB	06H
	DB	08aH
	DB	03H
	DB	03H
	DB	03H
	DB	03H
	DB	0b8H
	DB	0d2H
	DB	02H
	DB	037H
	DB	01H
	DB	01H
	DB	02H
	DB	049H
	DB	014H
	DB	08H
	DB	03H
	DB	03H
	DB	03H
	DB	019H
	DB	07dH
	DB	02H
	DB	01H
	DB	01H
	DB	01H
	DB	01H
	DB	04eH
	DB	01H
	DB	01H
	DB	04eH
	DB	04eH
	DB	04eH
	DB	04eH
	DB	04eH
	DB	04eH
	DB	04eH
	DB	037H
	DB	02H
	DB	01H
	DB	01H
	DB	01H
	DB	02H
	DB	02cH
	DB	035H
	DB	021H
	DB	02H
	DB	01H
	DB	01H
	DB	01H
	DB	01fH
	DB	01eH
	DB	054H
	DB	01fH
	DB	01H
	DB	01H
	DB	02H
	DB	0b1H
	DB	08dH
	DB	018H
	DB	03H
	DB	03H
	DB	03H
	DB	03H
	DB	03H
	DB	03H
	DB	03H
	DB	03H
	DB	03H
	DB	03H
	DB	03H
	DB	03H
	DB	03H
	DB	019H
	DB	0d3H
	DB	04cH
	DB	01fH
	DB	01fH
	DB	02H
	DB	02H
	DB	02H
	DB	02H
	DB	02H
	DB	02H
	DB	02H
	DB	02H
	DB	02H
	DB	02H
	DB	037H
	DB	01H
	DB	01H
	DB	01H
	DB	02H
	DB	0adH
	DB	030H
	DB	01cH
	DB	03H
	DB	03H
	DB	03H
	DB	03H
	DB	03H
	DB	03H
	DB	03H
	DB	03H
	DB	03H
	DB	03H
	DB	03H
	DB	03H
	DB	03H
	DB	03H
	DB	03H
	DB	03H
	DB	03H
	DB	03H
	DB	03H
	DB	03H
	DB	03H
	DB	03H
	DB	03H
	DB	03H
	DB	03H
	DB	03H
	DB	03H
	DB	03H
	DB	03H
	DB	03H
	DB	03H
	DB	03H
	DB	03H
	DB	03H
	DB	03H
	DB	03H
	DB	03H
	DB	03H
	DB	03H
	DB	03H
	DB	03H
	DB	03H
	DB	03H
	DB	03H
	DB	03H
	DB	03H
	DB	03H
	DB	03H
	DB	03H
	DB	03H
	DB	03H
	DB	03H
	DB	03H
	DB	03H
	DB	03H
	DB	03H
	DB	03H
	DB	03H
	DB	03H
	DB	03H
	DB	03H
	DB	03H
	DB	03H
	DB	03H
	DB	03H
	DB	03H
	DB	03H
	DB	03H
	DB	03H
	DB	03H
	DB	03H
	DB	03H
	DB	03H
	DB	03H
	DB	03H
	DB	03H
	DB	03H
	DB	03H
	DB	03H
	DB	03H
	DB	03H
	DB	03H
	DB	03H
	DB	03H
	DB	03H
	DB	03H
	DB	03H
	DB	03H
	DB	03H
	DB	03H
	DB	03H
	DB	03H
	DB	03H
	DB	03H
	DB	03H
	DB	03H
	DB	03H
	DB	03H
	DB	03H
	DB	03H
	DB	03H
	DB	03H
	DB	03H
	DB	03H
	DB	03H
	DB	03H
	DB	03H
	DB	03H
	DB	03H
	DB	03H
	DB	03H
	DB	03H
	DB	03H
	DB	03H
	DB	03H
	DB	03H
	DB	03H
	DB	03H
	DB	03H
	DB	03H
	DB	03H
	DB	03H
	DB	019H
	DB	06dH
	DB	02H
	DB	01H
	DB	01H
	DB	01H
	DB	01fH
	DB	09cH
	DB	014H
	DB	0b8H
	DB	03H
	DB	03H
	DB	03H
	DB	03H
	DB	03H
	DB	03H
	DB	03H
	DB	03H
	DB	03H
	DB	03H
	DB	08H
	DB	04fH
	DB	0a8H
	DB	01fH
	DB	01H
	DB	01H
	DB	037H
	DB	02H
	DB	02aH
	DB	029H
	DB	01aH
	DB	01aH
	DB	01aH
	DB	01aH
	DB	01aH
	DB	01aH
	DB	01aH
	DB	029H
	DB	02bH
	DB	037H
	DB	01H
	DB	01H
	DB	01H
	DB	01H
	DB	01H
	DB	01H
	DB	01H
	DB	01H
	DB	01H
	DB	01H
	DB	037H
	DB	037H
	DB	037H
	DB	037H
	DB	037H
	DB	037H
	DB	037H
	DB	037H
	DB	037H
	DB	037H
	DB	037H
	DB	01H
	DB	01H
	DB	01H
	DB	02H
	DB	01fH
	DB	07eH
	DB	00H
	DB	09H
	DB	08H
	DB	03H
	DB	03H
	DB	03H
	DB	03H
	DB	03H
	DB	08H
	DB	0bcH
	DB	0aaH
	DB	02H
	DB	01H
	DB	01H
	DB	02H
	DB	075H
	DB	014H
	DB	09H
	DB	08H
	DB	03H
	DB	058H
	DB	060H
	DB	02H
	DB	01H
	DB	01H
	DB	037H
	DB	02H
	DB	06bH
	DB	014H
	DB	08H
	DB	03H
	DB	0b8H
	DB	043H
	DB	04dH
	DB	02H
	DB	01H
	DB	01H
	DB	01H
	DB	01H
	DB	01H
	DB	01H
	DB	01H
	DB	01H
	DB	012H
	DB	02bH
	DB	029H
	DB	01aH
	DB	01aH
	DB	01aH
	DB	01aH
	DB	01aH
	DB	01aH
	DB	01aH
	DB	01aH
	DB	01aH
	DB	01aH
	DB	0efH
	DB	0e3H
	DB	03fH
	DB	00H
	DB	06H
	DB	09H
	DB	08H
	DB	03H
	DB	03H
	DB	03H
	DB	03H
	DB	019H
	DB	053H
	DB	01fH
	DB	01H
	DB	01H
	DB	01H
	DB	02H
	DB	0e4H
	DB	014H
	DB	08H
	DB	03H
	DB	03H
	DB	03H
	DB	034H
	DB	0a3H
	DB	01fH
	DB	01H
	DB	01H
	DB	01H
	DB	01H
	DB	037H
	DB	037H
	DB	037H
	DB	037H
	DB	037H
	DB	037H
	DB	037H
	DB	037H
	DB	037H
	DB	037H
	DB	037H
	DB	01H
	DB	01H
	DB	01H
	DB	02H
	DB	02H
	DB	09eH
	DB	00H
	DB	04aH
	DB	01fH
	DB	01H
	DB	01H
	DB	02H
	DB	04dH
	DB	06bH
	DB	015H
	DB	02H
	DB	01H
	DB	01H
	DB	02H
	DB	075H
	DB	014H
	DB	09H
	DB	08H
	DB	03H
	DB	03H
	DB	03H
	DB	03H
	DB	03H
	DB	03H
	DB	03H
	DB	03H
	DB	03H
	DB	03H
	DB	03H
	DB	03H
	DB	03H
	DB	058H
	DB	050H
	DB	07fH
	DB	03aH
	DB	01aH
	DB	01aH
	DB	01aH
	DB	01aH
	DB	01aH
	DB	01aH
	DB	01aH
	DB	01aH
	DB	029H
	DB	015H
	DB	020H
	DB	012H
	DB	01H
	DB	01H
	DB	037H
	DB	01fH
	DB	05eH
	DB	018H
	DB	03H
	DB	03H
	DB	03H
	DB	03H
	DB	03H
	DB	03H
	DB	03H
	DB	03H
	DB	03H
	DB	03H
	DB	03H
	DB	03H
	DB	03H
	DB	03H
	DB	03H
	DB	03H
	DB	03H
	DB	03H
	DB	03H
	DB	03H
	DB	03H
	DB	03H
	DB	03H
	DB	03H
	DB	03H
	DB	03H
	DB	03H
	DB	03H
	DB	03H
	DB	03H
	DB	03H
	DB	03H
	DB	03H
	DB	03H
	DB	03H
	DB	03H
	DB	03H
	DB	03H
	DB	03H
	DB	03H
	DB	03H
	DB	03H
	DB	03H
	DB	03H
	DB	03H
	DB	03H
	DB	03H
	DB	03H
	DB	03H
	DB	03H
	DB	03H
	DB	03H
	DB	03H
	DB	03H
	DB	03H
	DB	03H
	DB	03H
	DB	03H
	DB	03H
	DB	03H
	DB	03H
	DB	03H
	DB	03H
	DB	08H
	DB	08H
	DB	08H
	DB	08H
	DB	08H
	DB	08H
	DB	08H
	DB	08H
	DB	08H
	DB	08H
	DB	08H
	DB	08H
	DB	08H
	DB	08H
	DB	08H
	DB	08H
	DB	08H
	DB	08H
	DB	08H
	DB	08H
	DB	08H
	DB	08H
	DB	08H
	DB	08H
	DB	08H
	DB	08H
	DB	08H
	DB	08H
	DB	08H
	DB	08H
	DB	08H
	DB	08H
	DB	08H
	DB	08H
	DB	08H
	DB	08H
	DB	08H
	DB	08H
	DB	08H
	DB	08H
	DB	08H
	DB	08H
	DB	08H
	DB	08H
	DB	08H
	DB	08H
	DB	08H
	DB	08H
	DB	08H
	DB	08H
	DB	08H
	DB	08H
	DB	08H
	DB	08H
	DB	08H
	DB	08H
	DB	08H
	DB	08H
	DB	08H
	DB	034H
	DB	054H
	DB	02H
	DB	01H
	DB	01H
	DB	037H
	DB	012H
	DB	043H
	DB	014H
	DB	08aH
	DB	08H
	DB	08H
	DB	08H
	DB	08H
	DB	08H
	DB	08H
	DB	08H
	DB	08H
	DB	08H
	DB	08H
	DB	058H
	DB	07dH
	DB	01fH
	DB	01H
	DB	01H
	DB	037H
	DB	02H
	DB	06eH
	DB	02dH
	DB	013H
	DB	013H
	DB	013H
	DB	013H
	DB	013H
	DB	013H
	DB	013H
	DB	013H
	DB	00H
	DB	07eH
	DB	01fH
	DB	01H
	DB	01H
	DB	01H
	DB	01H
	DB	01H
	DB	01H
	DB	01H
	DB	01H
	DB	01H
	DB	01H
	DB	01H
	DB	01H
	DB	01H
	DB	01H
	DB	01H
	DB	01H
	DB	01H
	DB	01H
	DB	01H
	DB	01H
	DB	01H
	DB	01H
	DB	02H
	DB	01fH
	DB	012H
	DB	06eH
	DB	00H
	DB	06H
	DB	09H
	DB	08H
	DB	08H
	DB	08H
	DB	08H
	DB	08H
	DB	08H
	DB	0b8H
	DB	050H
	DB	0ffH
	DB	037H
	DB	01H
	DB	01H
	DB	02H
	DB	055H
	DB	014H
	DB	09H
	DB	08H
	DB	08H
	DB	018H
	DB	04bH
	DB	01fH
	DB	01H
	DB	01H
	DB	02H
	DB	04dH
	DB	042H
	DB	034H
	DB	0b8H
	DB	08H
	DB	058H
	DB	0d8H
	DB	02H
	DB	037H
	DB	01H
	DB	01H
	DB	01H
	DB	01H
	DB	01H
	DB	01H
	DB	01H
	DB	037H
	DB	01H
	DB	06aH
	DB	022H
	DB	013H
	DB	013H
	DB	013H
	DB	013H
	DB	013H
	DB	013H
	DB	013H
	DB	013H
	DB	013H
	DB	013H
	DB	022H
	DB	00H
	DB	06H
	DB	013H
	DB	09H
	DB	0b8H
	DB	08H
	DB	08H
	DB	08H
	DB	08H
	DB	08H
	DB	018H
	DB	04bH
	DB	02H
	DB	01H
	DB	01H
	DB	012H
	DB	04eH
	DB	035H
	DB	06H
	DB	08aH
	DB	08H
	DB	08H
	DB	0b8H
	DB	08aH
	DB	0f4H
	DB	01fH
	DB	01H
	DB	01H
	DB	01H
	DB	01H
	DB	01H
	DB	01H
	DB	01H
	DB	01H
	DB	01H
	DB	01H
	DB	01H
	DB	01H
	DB	01H
	DB	01H
	DB	01H
	DB	01H
	DB	02H
	DB	01fH
	DB	037H
	DB	021H
	DB	00H
	DB	03fH
	DB	03dH
	DB	02H
	DB	01H
	DB	01H
	DB	01fH
	DB	029H
	DB	042H
	DB	0ffH
	DB	012H
	DB	01H
	DB	01H
	DB	01fH
	DB	085H
	DB	014H
	DB	09H
	DB	08H
	DB	08H
	DB	08H
	DB	08H
	DB	08H
	DB	08H
	DB	08H
	DB	08H
	DB	08H
	DB	08H
	DB	08H
	DB	08H
	DB	08H
	DB	08H
	DB	08H
	DB	0b7H
	DB	014H
	DB	013H
	DB	013H
	DB	013H
	DB	013H
	DB	013H
	DB	013H
	DB	013H
	DB	013H
	DB	013H
	DB	013H
	DB	022H
	DB	06dH
	DB	02H
	DB	012H
	DB	01H
	DB	01H
	DB	01fH
	DB	07dH
	DB	014H
	DB	08H
	DB	08H
	DB	08H
	DB	08H
	DB	08H
	DB	08H
	DB	08H
	DB	08H
	DB	08H
	DB	08H
	DB	08H
	DB	08H
	DB	08H
	DB	08H
	DB	08H
	DB	08H
	DB	08H
	DB	08H
	DB	08H
	DB	08H
	DB	08H
	DB	08H
	DB	08H
	DB	08H
	DB	08H
	DB	08H
	DB	08H
	DB	08H
	DB	08H
	DB	08H
	DB	08H
	DB	08H
	DB	08H
	DB	08H
	DB	08H
	DB	08H
	DB	08H
	DB	08H
	DB	08H
	DB	08H
	DB	08H
	DB	08H
	DB	08H
	DB	08H
	DB	08H
	DB	08H
	DB	08H
	DB	08H
	DB	08H
	DB	08H
	DB	08H
	DB	08H
	DB	08H
	DB	08H
	DB	08H
	DB	08H
	DB	08H
	DB	08H
	DB	08H
	DB	08H
	DB	08H
	DB	08H
	DB	08H
	DB	08aH
	DB	08aH
	DB	08aH
	DB	08aH
	DB	08aH
	DB	08aH
	DB	08aH
	DB	08aH
	DB	08aH
	DB	08aH
	DB	08aH
	DB	08aH
	DB	08aH
	DB	08aH
	DB	08aH
	DB	08aH
	DB	08aH
	DB	08aH
	DB	08aH
	DB	08aH
	DB	08aH
	DB	08aH
	DB	08aH
	DB	08aH
	DB	08aH
	DB	08aH
	DB	08aH
	DB	08aH
	DB	08aH
	DB	08aH
	DB	08aH
	DB	08aH
	DB	08aH
	DB	08aH
	DB	08aH
	DB	08aH
	DB	08aH
	DB	08aH
	DB	08aH
	DB	08aH
	DB	08aH
	DB	08aH
	DB	08aH
	DB	08aH
	DB	08aH
	DB	08aH
	DB	08aH
	DB	08aH
	DB	08aH
	DB	08aH
	DB	08aH
	DB	08aH
	DB	08aH
	DB	08aH
	DB	08aH
	DB	08aH
	DB	08aH
	DB	08aH
	DB	09H
	DB	06H
	DB	073H
	DB	01fH
	DB	01H
	DB	01H
	DB	02H
	DB	0ffH
	DB	042H
	DB	014H
	DB	034H
	DB	018H
	DB	018H
	DB	018H
	DB	018H
	DB	018H
	DB	018H
	DB	018H
	DB	018H
	DB	018H
	DB	018H
	DB	014H
	DB	029H
	DB	02H
	DB	01H
	DB	01H
	DB	02H
	DB	0fcH
	DB	03fH
	DB	00H
	DB	014H
	DB	014H
	DB	014H
	DB	014H
	DB	014H
	DB	014H
	DB	014H
	DB	014H
	DB	014H
	DB	0f1H
	DB	01fH
	DB	01H
	DB	01H
	DB	01H
	DB	01H
	DB	01H
	DB	01H
	DB	01H
	DB	01H
	DB	01H
	DB	02H
	DB	037H
	DB	01H
	DB	01H
	DB	01H
	DB	01H
	DB	01H
	DB	01H
	DB	02H
	DB	02H
	DB	02H
	DB	02H
	DB	01fH
	DB	012H
	DB	015H
	DB	01eH
	DB	00H
	DB	014H
	DB	013H
	DB	09H
	DB	08aH
	DB	08aH
	DB	08aH
	DB	08aH
	DB	08aH
	DB	08aH
	DB	018H
	DB	02eH
	DB	02H
	DB	01H
	DB	01H
	DB	01H
	DB	01fH
	DB	021H
	DB	014H
	DB	09H
	DB	08aH
	DB	019H
	DB	04fH
	DB	0aaH
	DB	02H
	DB	01H
	DB	01H
	DB	01fH
	DB	0a8H
	DB	02dH
	DB	06H
	DB	09H
	DB	08aH
	DB	018H
	DB	070H
	DB	01fH
	DB	01H
	DB	01H
	DB	01H
	DB	037H
	DB	037H
	DB	01H
	DB	01H
	DB	01H
	DB	02H
	DB	0b0H
	DB	03fH
	DB	00H
	DB	014H
	DB	014H
	DB	014H
	DB	014H
	DB	014H
	DB	014H
	DB	014H
	DB	014H
	DB	014H
	DB	014H
	DB	014H
	DB	014H
	DB	014H
	DB	018H
	DB	08aH
	DB	08aH
	DB	08aH
	DB	08aH
	DB	08aH
	DB	08aH
	DB	08aH
	DB	013H
	DB	0f5H
	DB	02H
	DB	01H
	DB	01H
	DB	02H
	DB	03dH
	DB	02dH
	DB	06H
	DB	09H
	DB	08aH
	DB	08aH
	DB	058H
	DB	030H
	DB	0eH
	DB	02H
	DB	01H
	DB	01H
	DB	01H
	DB	037H
	DB	01H
	DB	01H
	DB	01H
	DB	01H
	DB	01H
	DB	01H
	DB	01H
	DB	02H
	DB	02H
	DB	02H
	DB	01fH
	DB	01fH
	DB	012H
	DB	029H
	DB	06bH
	DB	00H
	DB	014H
	DB	030H
	DB	0ffH
	DB	02H
	DB	01H
	DB	01H
	DB	01fH
	DB	0eeH
	DB	025H
	DB	02H
	DB	01H
	DB	01H
	DB	01H
	DB	01fH
	DB	083H
	DB	00H
	DB	034H
	DB	018H
	DB	018H
	DB	018H
	DB	018H
	DB	018H
	DB	018H
	DB	018H
	DB	018H
	DB	018H
	DB	018H
	DB	018H
	DB	09H
	DB	09H
	DB	018H
	DB	018H
	DB	018H
	DB	034H
	DB	014H
	DB	014H
	DB	014H
	DB	014H
	DB	014H
	DB	014H
	DB	014H
	DB	014H
	DB	014H
	DB	014H
	DB	00H
	DB	02eH
	DB	02H
	DB	037H
	DB	01H
	DB	01H
	DB	01fH
	DB	021H
	DB	014H
	DB	09H
	DB	08aH
	DB	08aH
	DB	08aH
	DB	08aH
	DB	08aH
	DB	08aH
	DB	08aH
	DB	08aH
	DB	08aH
	DB	08aH
	DB	08aH
	DB	08aH
	DB	08aH
	DB	08aH
	DB	08aH
	DB	08aH
	DB	08aH
	DB	08aH
	DB	08aH
	DB	08aH
	DB	08aH
	DB	08aH
	DB	08aH
	DB	08aH
	DB	08aH
	DB	08aH
	DB	08aH
	DB	08aH
	DB	08aH
	DB	08aH
	DB	08aH
	DB	08aH
	DB	08aH
	DB	08aH
	DB	08aH
	DB	08aH
	DB	08aH
	DB	08aH
	DB	08aH
	DB	08aH
	DB	08aH
	DB	08aH
	DB	08aH
	DB	08aH
	DB	08aH
	DB	08aH
	DB	08aH
	DB	08aH
	DB	08aH
	DB	08aH
	DB	08aH
	DB	08aH
	DB	08aH
	DB	08aH
	DB	08aH
	DB	08aH
	DB	08aH
	DB	08aH
	DB	08aH
	DB	08aH
	DB	08aH
	DB	08aH
	DB	09H
	DB	09H
	DB	09H
	DB	09H
	DB	09H
	DB	09H
	DB	09H
	DB	09H
	DB	09H
	DB	09H
	DB	09H
	DB	09H
	DB	09H
	DB	09H
	DB	09H
	DB	09H
	DB	09H
	DB	09H
	DB	09H
	DB	09H
	DB	09H
	DB	09H
	DB	09H
	DB	09H
	DB	09H
	DB	09H
	DB	09H
	DB	09H
	DB	09H
	DB	09H
	DB	09H
	DB	09H
	DB	09H
	DB	09H
	DB	09H
	DB	09H
	DB	09H
	DB	09H
	DB	09H
	DB	09H
	DB	09H
	DB	09H
	DB	09H
	DB	09H
	DB	09H
	DB	09H
	DB	09H
	DB	09H
	DB	09H
	DB	09H
	DB	09H
	DB	09H
	DB	09H
	DB	09H
	DB	09H
	DB	09H
	DB	09H
	DB	09H
	DB	018H
	DB	035H
	DB	0f8H
	DB	02H
	DB	01H
	DB	01H
	DB	01H
	DB	02H
	DB	0a7H
	DB	017H
	DB	017H
	DB	017H
	DB	017H
	DB	017H
	DB	017H
	DB	017H
	DB	017H
	DB	017H
	DB	017H
	DB	017H
	DB	07cH
	DB	025H
	DB	057H
	DB	02H
	DB	01H
	DB	01H
	DB	01H
	DB	02H
	DB	045H
	DB	0daH
	DB	017H
	DB	017H
	DB	017H
	DB	017H
	DB	017H
	DB	017H
	DB	017H
	DB	05bH
	DB	09bH
	DB	057H
	DB	02H
	DB	01H
	DB	01H
	DB	01H
	DB	01H
	DB	01H
	DB	01H
	DB	01H
	DB	01H
	DB	037H
	DB	02cH
	DB	02H
	DB	037H
	DB	01H
	DB	01H
	DB	01H
	DB	01H
	DB	037H
	DB	0acH
	DB	073H
	DB	056H
	DB	073H
	DB	049H
	DB	0d6H
	DB	022H
	DB	00H
	DB	014H
	DB	06H
	DB	09H
	DB	09H
	DB	09H
	DB	09H
	DB	09H
	DB	09H
	DB	09H
	DB	09H
	DB	014H
	DB	049H
	DB	02H
	DB	01H
	DB	01H
	DB	037H
	DB	02H
	DB	024H
	DB	014H
	DB	013H
	DB	09H
	DB	034H
	DB	030H
	DB	020H
	DB	02H
	DB	01H
	DB	01H
	DB	01fH
	DB	04aH
	DB	00H
	DB	06H
	DB	09H
	DB	09H
	DB	014H
	DB	0a7H
	DB	02H
	DB	01H
	DB	01H
	DB	037H
	DB	02cH
	DB	04eH
	DB	037H
	DB	01H
	DB	01H
	DB	01H
	DB	02H
	DB	045H
	DB	0daH
	DB	017H
	DB	017H
	DB	017H
	DB	017H
	DB	017H
	DB	017H
	DB	017H
	DB	017H
	DB	017H
	DB	017H
	DB	017H
	DB	017H
	DB	07cH
	DB	030H
	DB	018H
	DB	09H
	DB	09H
	DB	09H
	DB	09H
	DB	09H
	DB	018H
	DB	043H
	DB	04dH
	DB	02H
	DB	01H
	DB	01H
	DB	01fH
	DB	071H
	DB	014H
	DB	06H
	DB	09H
	DB	09H
	DB	09H
	DB	034H
	DB	06bH
	DB	02H
	DB	037H
	DB	01H
	DB	01H
	DB	01H
	DB	02cH
	DB	02H
	DB	037H
	DB	01H
	DB	01H
	DB	01H
	DB	01H
	DB	012H
	DB	02aH
	DB	073H
	DB	056H
	DB	02fH
	DB	060H
	DB	01eH
	DB	022H
	DB	00H
	DB	06H
	DB	014H
	DB	025H
	DB	01fH
	DB	01H
	DB	01H
	DB	01H
	DB	02H
	DB	05eH
	DB	05eH
	DB	02H
	DB	01H
	DB	01H
	DB	01H
	DB	02H
	DB	03cH
	DB	053H
	DB	05cH
	DB	017H
	DB	017H
	DB	017H
	DB	017H
	DB	017H
	DB	017H
	DB	017H
	DB	017H
	DB	017H
	DB	017H
	DB	07cH
	DB	030H
	DB	040H
	DB	07cH
	DB	017H
	DB	017H
	DB	017H
	DB	017H
	DB	017H
	DB	017H
	DB	017H
	DB	017H
	DB	017H
	DB	017H
	DB	017H
	DB	017H
	DB	05cH
	DB	053H
	DB	057H
	DB	02H
	DB	01H
	DB	01H
	DB	037H
	DB	012H
	DB	0d6H
	DB	014H
	DB	09H
	DB	09H
	DB	09H
	DB	09H
	DB	09H
	DB	09H
	DB	09H
	DB	09H
	DB	09H
	DB	09H
	DB	09H
	DB	09H
	DB	09H
	DB	09H
	DB	09H
	DB	09H
	DB	09H
	DB	09H
	DB	09H
	DB	09H
	DB	09H
	DB	09H
	DB	09H
	DB	09H
	DB	09H
	DB	09H
	DB	09H
	DB	09H
	DB	09H
	DB	09H
	DB	09H
	DB	09H
	DB	09H
	DB	09H
	DB	09H
	DB	09H
	DB	09H
	DB	09H
	DB	09H
	DB	09H
	DB	09H
	DB	09H
	DB	09H
	DB	09H
	DB	09H
	DB	09H
	DB	09H
	DB	09H
	DB	09H
	DB	09H
	DB	09H
	DB	09H
	DB	09H
	DB	09H
	DB	09H
	DB	09H
	DB	09H
	DB	09H
	DB	09H
	DB	09H
	DB	09H
	DB	09H
	DB	09H
	DB	013H
	DB	013H
	DB	013H
	DB	013H
	DB	013H
	DB	013H
	DB	013H
	DB	013H
	DB	013H
	DB	013H
	DB	013H
	DB	013H
	DB	013H
	DB	013H
	DB	013H
	DB	013H
	DB	013H
	DB	013H
	DB	013H
	DB	013H
	DB	013H
	DB	013H
	DB	013H
	DB	013H
	DB	013H
	DB	013H
	DB	013H
	DB	013H
	DB	013H
	DB	013H
	DB	013H
	DB	013H
	DB	013H
	DB	013H
	DB	013H
	DB	013H
	DB	013H
	DB	013H
	DB	013H
	DB	013H
	DB	013H
	DB	013H
	DB	013H
	DB	013H
	DB	013H
	DB	013H
	DB	013H
	DB	013H
	DB	013H
	DB	013H
	DB	013H
	DB	013H
	DB	013H
	DB	013H
	DB	013H
	DB	013H
	DB	013H
	DB	013H
	DB	06H
	DB	06H
	DB	056H
	DB	01fH
	DB	01H
	DB	01H
	DB	01H
	DB	01H
	DB	02H
	DB	02H
	DB	012H
	DB	012H
	DB	012H
	DB	012H
	DB	012H
	DB	012H
	DB	012H
	DB	012H
	DB	012H
	DB	012H
	DB	02H
	DB	0f5H
	DB	0b0H
	DB	037H
	DB	01H
	DB	01H
	DB	01H
	DB	01H
	DB	02H
	DB	02H
	DB	012H
	DB	012H
	DB	012H
	DB	012H
	DB	012H
	DB	012H
	DB	012H
	DB	012H
	DB	012H
	DB	037H
	DB	01H
	DB	01H
	DB	01H
	DB	01H
	DB	01H
	DB	01H
	DB	01H
	DB	01H
	DB	01H
	DB	01fH
	DB	09bH
	DB	049H
	DB	02H
	DB	02H
	DB	01H
	DB	01H
	DB	01H
	DB	02H
	DB	0b0H
	DB	09bH
	DB	00H
	DB	00H
	DB	00H
	DB	00H
	DB	014H
	DB	06H
	DB	06H
	DB	06H
	DB	013H
	DB	013H
	DB	013H
	DB	013H
	DB	013H
	DB	013H
	DB	013H
	DB	018H
	DB	014H
	DB	0a7H
	DB	01fH
	DB	01H
	DB	01H
	DB	02H
	DB	0b0H
	DB	047H
	DB	014H
	DB	06H
	DB	013H
	DB	014H
	DB	0daH
	DB	01fH
	DB	01H
	DB	01H
	DB	01H
	DB	02H
	DB	021H
	DB	00H
	DB	06H
	DB	013H
	DB	018H
	DB	013H
	DB	02bH
	DB	02H
	DB	01H
	DB	01H
	DB	02H
	DB	01aH
	DB	03eH
	DB	02H
	DB	01H
	DB	01H
	DB	01H
	DB	01H
	DB	02H
	DB	02H
	DB	012H
	DB	012H
	DB	012H
	DB	012H
	DB	012H
	DB	012H
	DB	012H
	DB	012H
	DB	012H
	DB	012H
	DB	012H
	DB	012H
	DB	02H
	DB	01eH
	DB	014H
	DB	013H
	DB	013H
	DB	013H
	DB	013H
	DB	013H
	DB	014H
	DB	07cH
	DB	02H
	DB	037H
	DB	01H
	DB	01H
	DB	01fH
	DB	053H
	DB	00H
	DB	06H
	DB	013H
	DB	013H
	DB	013H
	DB	014H
	DB	080H
	DB	01fH
	DB	01H
	DB	01H
	DB	01H
	DB	02H
	DB	0e5H
	DB	039H
	DB	01fH
	DB	02H
	DB	01H
	DB	01H
	DB	01H
	DB	02H
	DB	03bH
	DB	052H
	DB	00H
	DB	00H
	DB	00H
	DB	00H
	DB	014H
	DB	06H
	DB	06H
	DB	014H
	DB	060H
	DB	01fH
	DB	01H
	DB	01H
	DB	037H
	DB	02H
	DB	048H
	DB	052H
	DB	01fH
	DB	01H
	DB	01H
	DB	01H
	DB	01H
	DB	037H
	DB	02H
	DB	012H
	DB	012H
	DB	012H
	DB	012H
	DB	012H
	DB	012H
	DB	012H
	DB	012H
	DB	012H
	DB	012H
	DB	012H
	DB	02H
	DB	0daH
	DB	0e3H
	DB	02H
	DB	012H
	DB	012H
	DB	012H
	DB	012H
	DB	012H
	DB	012H
	DB	012H
	DB	012H
	DB	012H
	DB	012H
	DB	012H
	DB	012H
	DB	012H
	DB	02H
	DB	02H
	DB	01H
	DB	01H
	DB	01H
	DB	01fH
	DB	073H
	DB	00H
	DB	06H
	DB	06H
	DB	013H
	DB	013H
	DB	013H
	DB	013H
	DB	013H
	DB	013H
	DB	013H
	DB	013H
	DB	013H
	DB	013H
	DB	013H
	DB	013H
	DB	013H
	DB	013H
	DB	013H
	DB	013H
	DB	013H
	DB	013H
	DB	013H
	DB	013H
	DB	013H
	DB	013H
	DB	013H
	DB	013H
	DB	013H
	DB	013H
	DB	013H
	DB	013H
	DB	013H
	DB	013H
	DB	013H
	DB	013H
	DB	013H
	DB	013H
	DB	013H
	DB	013H
	DB	013H
	DB	013H
	DB	013H
	DB	013H
	DB	013H
	DB	013H
	DB	013H
	DB	013H
	DB	013H
	DB	013H
	DB	013H
	DB	013H
	DB	013H
	DB	013H
	DB	013H
	DB	013H
	DB	013H
	DB	013H
	DB	013H
	DB	013H
	DB	013H
	DB	013H
	DB	013H
	DB	013H
	DB	013H
	DB	013H
	DB	06H
	DB	06H
	DB	06H
	DB	06H
	DB	06H
	DB	06H
	DB	06H
	DB	06H
	DB	06H
	DB	06H
	DB	06H
	DB	06H
	DB	06H
	DB	06H
	DB	06H
	DB	06H
	DB	06H
	DB	06H
	DB	06H
	DB	06H
	DB	06H
	DB	06H
	DB	06H
	DB	06H
	DB	06H
	DB	06H
	DB	06H
	DB	06H
	DB	06H
	DB	06H
	DB	06H
	DB	06H
	DB	06H
	DB	06H
	DB	06H
	DB	06H
	DB	06H
	DB	06H
	DB	06H
	DB	06H
	DB	06H
	DB	06H
	DB	06H
	DB	06H
	DB	06H
	DB	06H
	DB	06H
	DB	06H
	DB	06H
	DB	06H
	DB	06H
	DB	06H
	DB	06H
	DB	06H
	DB	06H
	DB	06H
	DB	06H
	DB	06H
	DB	06H
	DB	014H
	DB	0e9H
	DB	01fH
	DB	01H
	DB	01H
	DB	01H
	DB	01H
	DB	01H
	DB	037H
	DB	037H
	DB	037H
	DB	037H
	DB	037H
	DB	037H
	DB	037H
	DB	037H
	DB	037H
	DB	037H
	DB	037H
	DB	01fH
	DB	039H
	DB	084H
	DB	01fH
	DB	01H
	DB	01H
	DB	01H
	DB	01H
	DB	037H
	DB	037H
	DB	037H
	DB	037H
	DB	037H
	DB	037H
	DB	037H
	DB	037H
	DB	037H
	DB	037H
	DB	037H
	DB	037H
	DB	01H
	DB	01H
	DB	01H
	DB	01H
	DB	01H
	DB	01H
	DB	01H
	DB	01H
	DB	02H
	DB	04eH
	DB	042H
	DB	00H
	DB	052H
	DB	02cH
	DB	01fH
	DB	01H
	DB	01H
	DB	01H
	DB	02H
	DB	02H
	DB	084H
	DB	03fH
	DB	00H
	DB	06H
	DB	06H
	DB	06H
	DB	06H
	DB	06H
	DB	06H
	DB	06H
	DB	06H
	DB	06H
	DB	06H
	DB	06H
	DB	06H
	DB	014H
	DB	035H
	DB	0acH
	DB	02H
	DB	01H
	DB	01H
	DB	01fH
	DB	056H
	DB	022H
	DB	014H
	DB	06H
	DB	06H
	DB	014H
	DB	054H
	DB	01fH
	DB	01H
	DB	01H
	DB	037H
	DB	02H
	DB	06aH
	DB	00H
	DB	06H
	DB	06H
	DB	014H
	DB	06bH
	DB	020H
	DB	02H
	DB	01H
	DB	01H
	DB	01fH
	DB	083H
	DB	060H
	DB	01fH
	DB	01H
	DB	01H
	DB	01H
	DB	01H
	DB	037H
	DB	037H
	DB	037H
	DB	037H
	DB	037H
	DB	037H
	DB	037H
	DB	037H
	DB	037H
	DB	037H
	DB	037H
	DB	037H
	DB	037H
	DB	02H
	DB	0aeH
	DB	040H
	DB	014H
	DB	06H
	DB	06H
	DB	06H
	DB	06H
	DB	06H
	DB	014H
	DB	09fH
	DB	01fH
	DB	01H
	DB	01H
	DB	037H
	DB	01H
	DB	025H
	DB	00H
	DB	06H
	DB	06H
	DB	06H
	DB	06H
	DB	014H
	DB	055H
	DB	02H
	DB	01H
	DB	01H
	DB	037H
	DB	0b2H
	DB	08bH
	DB	00H
	DB	06dH
	DB	0b2H
	DB	02H
	DB	01H
	DB	01H
	DB	01H
	DB	02H
	DB	012H
	DB	054H
	DB	022H
	DB	00H
	DB	06H
	DB	06H
	DB	06H
	DB	06H
	DB	014H
	DB	03aH
	DB	02H
	DB	01H
	DB	01H
	DB	02H
	DB	03cH
	DB	02dH
	DB	0bbH
	DB	0b1H
	DB	02H
	DB	01H
	DB	01H
	DB	01H
	DB	01H
	DB	037H
	DB	037H
	DB	037H
	DB	037H
	DB	037H
	DB	037H
	DB	037H
	DB	037H
	DB	037H
	DB	037H
	DB	037H
	DB	02H
	DB	020H
	DB	02dH
	DB	0a1H
	DB	01fH
	DB	037H
	DB	037H
	DB	037H
	DB	037H
	DB	037H
	DB	037H
	DB	037H
	DB	037H
	DB	037H
	DB	037H
	DB	037H
	DB	037H
	DB	037H
	DB	037H
	DB	01H
	DB	01H
	DB	01H
	DB	01fH
	DB	03cH
	DB	08cH
	DB	00H
	DB	06H
	DB	06H
	DB	06H
	DB	06H
	DB	06H
	DB	06H
	DB	06H
	DB	06H
	DB	06H
	DB	06H
	DB	06H
	DB	06H
	DB	06H
	DB	06H
	DB	06H
	DB	06H
	DB	06H
	DB	06H
	DB	06H
	DB	06H
	DB	06H
	DB	06H
	DB	06H
	DB	06H
	DB	06H
	DB	06H
	DB	06H
	DB	06H
	DB	06H
	DB	06H
	DB	06H
	DB	06H
	DB	06H
	DB	06H
	DB	06H
	DB	06H
	DB	06H
	DB	06H
	DB	06H
	DB	06H
	DB	06H
	DB	06H
	DB	06H
	DB	06H
	DB	06H
	DB	06H
	DB	06H
	DB	06H
	DB	06H
	DB	06H
	DB	06H
	DB	06H
	DB	06H
	DB	06H
	DB	06H
	DB	06H
	DB	06H
	DB	06H
	DB	06H
	DB	06H
	DB	06H
	DB	06H
	DB	06H
	DB	06H
	DB	06H
	DB	06H
	DB	06H
	DB	06H
	DB	06H
	DB	06H
	DB	06H
	DB	06H
	DB	06H
	DB	06H
	DB	06H
	DB	06H
	DB	06H
	DB	06H
	DB	06H
	DB	06H
	DB	06H
	DB	06H
	DB	06H
	DB	06H
	DB	06H
	DB	06H
	DB	06H
	DB	06H
	DB	06H
	DB	06H
	DB	06H
	DB	06H
	DB	06H
	DB	06H
	DB	06H
	DB	06H
	DB	06H
	DB	06H
	DB	06H
	DB	06H
	DB	06H
	DB	06H
	DB	06H
	DB	06H
	DB	06H
	DB	06H
	DB	06H
	DB	06H
	DB	06H
	DB	06H
	DB	06H
	DB	06H
	DB	06H
	DB	06H
	DB	06H
	DB	06H
	DB	06H
	DB	06H
	DB	06H
	DB	06H
	DB	06H
	DB	06H
	DB	06H
	DB	014H
	DB	08bH
	DB	015H
	DB	01fH
	DB	037H
	DB	01H
	DB	01H
	DB	01H
	DB	01H
	DB	01H
	DB	01H
	DB	01H
	DB	01H
	DB	01H
	DB	01H
	DB	01H
	DB	01H
	DB	01H
	DB	037H
	DB	01fH
	DB	02eH
	DB	08bH
	DB	0fbH
	DB	01fH
	DB	01H
	DB	01H
	DB	01H
	DB	01H
	DB	01H
	DB	01H
	DB	01H
	DB	01H
	DB	01H
	DB	01H
	DB	01H
	DB	01H
	DB	01H
	DB	01H
	DB	01H
	DB	01H
	DB	01H
	DB	01H
	DB	01H
	DB	01H
	DB	01H
	DB	01H
	DB	01H
	DB	02H
	DB	02aH
	DB	03fH
	DB	00H
	DB	00H
	DB	048H
	DB	0aaH
	DB	01fH
	DB	037H
	DB	01H
	DB	01H
	DB	012H
	DB	01fH
	DB	0aaH
	DB	06bH
	DB	00H
	DB	014H
	DB	06H
	DB	06H
	DB	06H
	DB	06H
	DB	06H
	DB	06H
	DB	06H
	DB	06H
	DB	06H
	DB	06H
	DB	00H
	DB	048H
	DB	01H
	DB	02H
	DB	01H
	DB	01H
	DB	01fH
	DB	045H
	DB	00H
	DB	014H
	DB	06H
	DB	06H
	DB	00H
	DB	074H
	DB	02H
	DB	01H
	DB	01H
	DB	02H
	DB	03cH
	DB	03fH
	DB	00H
	DB	06H
	DB	06H
	DB	00H
	DB	027H
	DB	02H
	DB	037H
	DB	01H
	DB	037H
	DB	01fH
	DB	09bH
	DB	022H
	DB	02aH
	DB	01fH
	DB	037H
	DB	01H
	DB	01H
	DB	01H
	DB	01H
	DB	01H
	DB	01H
	DB	01H
	DB	01H
	DB	01H
	DB	01H
	DB	01H
	DB	01H
	DB	01H
	DB	01H
	DB	01H
	DB	02H
	DB	0f3H
	DB	022H
	DB	014H
	DB	06H
	DB	06H
	DB	06H
	DB	06H
	DB	014H
	DB	022H
	DB	03aH
	DB	01fH
	DB	01H
	DB	01H
	DB	02H
	DB	03bH
	DB	08bH
	DB	00H
	DB	06H
	DB	06H
	DB	06H
	DB	014H
	DB	022H
	DB	0aaH
	DB	02H
	DB	01H
	DB	01H
	DB	02H
	DB	03dH
	DB	02dH
	DB	00H
	DB	00H
	DB	024H
	DB	02aH
	DB	01fH
	DB	037H
	DB	01H
	DB	01H
	DB	037H
	DB	01fH
	DB	015H
	DB	024H
	DB	00H
	DB	014H
	DB	06H
	DB	014H
	DB	02dH
	DB	03eH
	DB	02H
	DB	01H
	DB	01H
	DB	02H
	DB	029H
	DB	022H
	DB	00H
	DB	021H
	DB	01fH
	DB	02H
	DB	01H
	DB	01H
	DB	01H
	DB	01H
	DB	01H
	DB	01H
	DB	01H
	DB	01H
	DB	01H
	DB	01H
	DB	01H
	DB	01H
	DB	01H
	DB	01H
	DB	02H
	DB	015H
	DB	02dH
	DB	073H
	DB	01fH
	DB	01H
	DB	01H
	DB	01H
	DB	01H
	DB	01H
	DB	01H
	DB	01H
	DB	01H
	DB	01H
	DB	01H
	DB	01H
	DB	01H
	DB	01H
	DB	01H
	DB	01H
	DB	037H
	DB	01fH
	DB	02bH
	DB	0d0H
	DB	00H
	DB	014H
	DB	014H
	DB	06H
	DB	06H
	DB	06H
	DB	06H
	DB	06H
	DB	06H
	DB	06H
	DB	06H
	DB	06H
	DB	06H
	DB	06H
	DB	06H
	DB	06H
	DB	06H
	DB	06H
	DB	06H
	DB	06H
	DB	06H
	DB	06H
	DB	06H
	DB	06H
	DB	06H
	DB	06H
	DB	06H
	DB	06H
	DB	06H
	DB	06H
	DB	06H
	DB	06H
	DB	06H
	DB	06H
	DB	06H
	DB	06H
	DB	06H
	DB	06H
	DB	06H
	DB	06H
	DB	06H
	DB	06H
	DB	06H
	DB	06H
	DB	06H
	DB	06H
	DB	06H
	DB	06H
	DB	06H
	DB	06H
	DB	06H
	DB	06H
	DB	06H
	DB	06H
	DB	06H
	DB	06H
	DB	06H
	DB	06H
	DB	06H
	DB	06H
	DB	06H
	DB	06H
	DB	06H
	DB	06H
	DB	06H
	DB	06H
	DB	014H
	DB	014H
	DB	014H
	DB	014H
	DB	014H
	DB	014H
	DB	014H
	DB	014H
	DB	014H
	DB	014H
	DB	014H
	DB	014H
	DB	014H
	DB	014H
	DB	014H
	DB	014H
	DB	014H
	DB	014H
	DB	014H
	DB	014H
	DB	014H
	DB	014H
	DB	014H
	DB	014H
	DB	014H
	DB	014H
	DB	014H
	DB	014H
	DB	014H
	DB	014H
	DB	014H
	DB	014H
	DB	014H
	DB	014H
	DB	014H
	DB	014H
	DB	014H
	DB	014H
	DB	014H
	DB	014H
	DB	014H
	DB	014H
	DB	014H
	DB	014H
	DB	014H
	DB	014H
	DB	014H
	DB	014H
	DB	014H
	DB	014H
	DB	014H
	DB	014H
	DB	014H
	DB	014H
	DB	014H
	DB	014H
	DB	014H
	DB	014H
	DB	014H
	DB	014H
	DB	00H
	DB	047H
	DB	073H
	DB	02H
	DB	01fH
	DB	01fH
	DB	01fH
	DB	01fH
	DB	01fH
	DB	01fH
	DB	01fH
	DB	01fH
	DB	01fH
	DB	01fH
	DB	01fH
	DB	01fH
	DB	01fH
	DB	01fH
	DB	0b5H
	DB	06bH
	DB	00H
	DB	01eH
	DB	0acH
	DB	01fH
	DB	01fH
	DB	01fH
	DB	01fH
	DB	01fH
	DB	01fH
	DB	01fH
	DB	01fH
	DB	01fH
	DB	01fH
	DB	01fH
	DB	01fH
	DB	01fH
	DB	01fH
	DB	01fH
	DB	01fH
	DB	01fH
	DB	01fH
	DB	01fH
	DB	01fH
	DB	01fH
	DB	01fH
	DB	01fH
	DB	01fH
	DB	0a6H
	DB	00H
	DB	00H
	DB	014H
	DB	00H
	DB	03fH
	DB	04bH
	DB	01fH
	DB	01fH
	DB	01fH
	DB	01fH
	DB	01fH
	DB	01fH
	DB	02H
	DB	049H
	DB	02dH
	DB	00H
	DB	014H
	DB	014H
	DB	014H
	DB	014H
	DB	014H
	DB	014H
	DB	014H
	DB	014H
	DB	014H
	DB	00H
	DB	02eH
	DB	01fH
	DB	01fH
	DB	01fH
	DB	01fH
	DB	01fH
	DB	0e6H
	DB	00H
	DB	014H
	DB	014H
	DB	00H
	DB	02dH
	DB	0adH
	DB	01fH
	DB	01fH
	DB	01fH
	DB	01fH
	DB	056H
	DB	022H
	DB	00H
	DB	014H
	DB	014H
	DB	00H
	DB	0a2H
	DB	01fH
	DB	01fH
	DB	01fH
	DB	01fH
	DB	0b5H
	DB	06bH
	DB	00H
	DB	042H
	DB	087H
	DB	02H
	DB	01fH
	DB	01fH
	DB	01fH
	DB	01fH
	DB	01fH
	DB	01fH
	DB	01fH
	DB	01fH
	DB	01fH
	DB	01fH
	DB	01fH
	DB	01fH
	DB	01fH
	DB	01fH
	DB	01fH
	DB	01fH
	DB	082H
	DB	00H
	DB	00H
	DB	014H
	DB	014H
	DB	014H
	DB	014H
	DB	00H
	DB	040H
	DB	0fbH
	DB	01fH
	DB	01fH
	DB	01fH
	DB	01fH
	DB	0a8H
	DB	00H
	DB	00H
	DB	014H
	DB	014H
	DB	014H
	DB	00H
	DB	06aH
	DB	020H
	DB	01fH
	DB	01fH
	DB	01fH
	DB	01fH
	DB	084H
	DB	00H
	DB	00H
	DB	014H
	DB	00H
	DB	08bH
	DB	032H
	DB	01fH
	DB	01fH
	DB	01fH
	DB	01fH
	DB	01fH
	DB	01fH
	DB	0b5H
	DB	080H
	DB	02dH
	DB	00H
	DB	00H
	DB	01eH
	DB	0b5H
	DB	01fH
	DB	01fH
	DB	01fH
	DB	01fH
	DB	039H
	DB	00H
	DB	00H
	DB	00H
	DB	07dH
	DB	02cH
	DB	01fH
	DB	01fH
	DB	01fH
	DB	01fH
	DB	01fH
	DB	01fH
	DB	01fH
	DB	01fH
	DB	01fH
	DB	01fH
	DB	01fH
	DB	01fH
	DB	01fH
	DB	01fH
	DB	01fH
	DB	0a2H
	DB	059H
	DB	0aeH
	DB	01fH
	DB	01fH
	DB	01fH
	DB	01fH
	DB	01fH
	DB	01fH
	DB	01fH
	DB	01fH
	DB	01fH
	DB	01fH
	DB	01fH
	DB	01fH
	DB	01fH
	DB	01fH
	DB	01fH
	DB	01fH
	DB	064H
	DB	045H
	DB	059H
	DB	00H
	DB	00H
	DB	00H
	DB	014H
	DB	014H
	DB	014H
	DB	014H
	DB	014H
	DB	014H
	DB	014H
	DB	014H
	DB	014H
	DB	014H
	DB	014H
	DB	014H
	DB	014H
	DB	014H
	DB	014H
	DB	014H
	DB	014H
	DB	014H
	DB	014H
	DB	014H
	DB	014H
	DB	014H
	DB	014H
	DB	014H
	DB	014H
	DB	014H
	DB	014H
	DB	014H
	DB	014H
	DB	014H
	DB	014H
	DB	014H
	DB	014H
	DB	014H
	DB	014H
	DB	014H
	DB	014H
	DB	014H
	DB	014H
	DB	014H
	DB	014H
	DB	014H
	DB	014H
	DB	014H
	DB	014H
	DB	014H
	DB	014H
	DB	014H
	DB	014H
	DB	014H
	DB	014H
	DB	014H
	DB	014H
	DB	014H
	DB	014H
	DB	014H
	DB	014H
	DB	014H
	DB	014H
	DB	014H
	DB	014H
	DB	014H
	DB	014H
	DB	014H
	DB	00H
	DB	00H
	DB	00H
	DB	00H
	DB	00H
	DB	00H
	DB	00H
	DB	00H
	DB	00H
	DB	00H
	DB	00H
	DB	00H
	DB	00H
	DB	00H
	DB	00H
	DB	00H
	DB	00H
	DB	00H
	DB	00H
	DB	00H
	DB	00H
	DB	00H
	DB	00H
	DB	00H
	DB	00H
	DB	00H
	DB	00H
	DB	00H
	DB	00H
	DB	00H
	DB	00H
	DB	00H
	DB	00H
	DB	00H
	DB	00H
	DB	00H
	DB	00H
	DB	00H
	DB	00H
	DB	00H
	DB	00H
	DB	00H
	DB	00H
	DB	00H
	DB	00H
	DB	00H
	DB	00H
	DB	00H
	DB	00H
	DB	00H
	DB	00H
	DB	00H
	DB	00H
	DB	00H
	DB	00H
	DB	00H
	DB	00H
	DB	00H
	DB	00H
	DB	00H
	DB	00H
	DB	00H
	DB	022H
	DB	0d6H
	DB	082H
	DB	016H
	DB	01dH
	DB	016H
	DB	016H
	DB	016H
	DB	016H
	DB	016H
	DB	016H
	DB	016H
	DB	016H
	DB	016H
	DB	016H
	DB	055H
	DB	061H
	DB	02dH
	DB	00H
	DB	00H
	DB	02dH
	DB	06dH
	DB	085H
	DB	01dH
	DB	016H
	DB	016H
	DB	016H
	DB	016H
	DB	016H
	DB	016H
	DB	016H
	DB	016H
	DB	016H
	DB	016H
	DB	016H
	DB	016H
	DB	016H
	DB	016H
	DB	016H
	DB	04bH
	DB	04bH
	DB	016H
	DB	016H
	DB	016H
	DB	0a7H
	DB	052H
	DB	00H
	DB	00H
	DB	00H
	DB	00H
	DB	00H
	DB	00H
	DB	021H
	DB	032H
	DB	016H
	DB	016H
	DB	016H
	DB	016H
	DB	055H
	DB	03aH
	DB	09cH
	DB	00H
	DB	00H
	DB	00H
	DB	00H
	DB	00H
	DB	00H
	DB	00H
	DB	00H
	DB	00H
	DB	00H
	DB	00H
	DB	06dH
	DB	0a7H
	DB	016H
	DB	016H
	DB	01dH
	DB	072H
	DB	047H
	DB	00H
	DB	00H
	DB	00H
	DB	00H
	DB	042H
	DB	04bH
	DB	072H
	DB	016H
	DB	016H
	DB	02fH
	DB	027H
	DB	00H
	DB	00H
	DB	00H
	DB	00H
	DB	022H
	DB	049H
	DB	032H
	DB	016H
	DB	016H
	DB	055H
	DB	061H
	DB	02dH
	DB	00H
	DB	00H
	DB	022H
	DB	0d6H
	DB	083H
	DB	072H
	DB	016H
	DB	016H
	DB	016H
	DB	016H
	DB	016H
	DB	016H
	DB	016H
	DB	016H
	DB	016H
	DB	016H
	DB	016H
	DB	016H
	DB	01dH
	DB	0a7H
	DB	01eH
	DB	00H
	DB	00H
	DB	00H
	DB	00H
	DB	00H
	DB	00H
	DB	00H
	DB	059H
	DB	01dH
	DB	01dH
	DB	016H
	DB	016H
	DB	0a7H
	DB	053H
	DB	00H
	DB	00H
	DB	00H
	DB	00H
	DB	00H
	DB	00H
	DB	024H
	DB	055H
	DB	01dH
	DB	016H
	DB	016H
	DB	02fH
	DB	025H
	DB	00H
	DB	00H
	DB	00H
	DB	00H
	DB	00H
	DB	022H
	DB	07eH
	DB	032H
	DB	016H
	DB	016H
	DB	016H
	DB	016H
	DB	055H
	DB	073H
	DB	0e4H
	DB	00H
	DB	00H
	DB	06bH
	DB	032H
	DB	01dH
	DB	016H
	DB	01dH
	DB	0a7H
	DB	01eH
	DB	00H
	DB	00H
	DB	00H
	DB	00H
	DB	035H
	DB	021H
	DB	04aH
	DB	072H
	DB	016H
	DB	016H
	DB	016H
	DB	016H
	DB	016H
	DB	016H
	DB	016H
	DB	016H
	DB	016H
	DB	016H
	DB	016H
	DB	02fH
	DB	06bH
	DB	0bbH
	DB	055H
	DB	01dH
	DB	016H
	DB	016H
	DB	016H
	DB	016H
	DB	016H
	DB	016H
	DB	016H
	DB	016H
	DB	016H
	DB	016H
	DB	016H
	DB	016H
	DB	01dH
	DB	086H
	DB	07eH
	DB	047H
	DB	00H
	DB	00H
	DB	00H
	DB	00H
	DB	00H
	DB	00H
	DB	00H
	DB	00H
	DB	00H
	DB	00H
	DB	00H
	DB	00H
	DB	00H
	DB	00H
	DB	00H
	DB	00H
	DB	00H
	DB	00H
	DB	00H
	DB	00H
	DB	00H
	DB	00H
	DB	00H
	DB	00H
	DB	00H
	DB	00H
	DB	00H
	DB	00H
	DB	00H
	DB	00H
	DB	00H
	DB	00H
	DB	00H
	DB	00H
	DB	00H
	DB	00H
	DB	00H
	DB	00H
	DB	00H
	DB	00H
	DB	00H
	DB	00H
	DB	00H
	DB	00H
	DB	00H
	DB	00H
	DB	00H
	DB	00H
	DB	00H
	DB	00H
	DB	00H
	DB	00H
	DB	00H
	DB	00H
	DB	00H
	DB	00H
	DB	00H
	DB	00H
	DB	00H
	DB	00H
	DB	00H
	DB	00H
	DB	00H
	DB	00H
	DB	00H
	DB	00H
	DB	00H
	DB	00H
	DB	00H
	DB	00H
	DB	00H
	DB	00H
	DB	00H
	DB	00H
	DB	00H
	DB	00H
	DB	00H
	DB	00H
	DB	00H
	DB	00H
	DB	00H
	DB	00H
	DB	00H
	DB	00H
	DB	00H
	DB	00H
	DB	00H
	DB	00H
	DB	00H
	DB	00H
	DB	00H
	DB	00H
	DB	00H
	DB	00H
	DB	00H
	DB	00H
	DB	00H
	DB	00H
	DB	00H
	DB	00H
	DB	00H
	DB	00H
	DB	00H
	DB	00H
	DB	00H
	DB	00H
	DB	00H
	DB	00H
	DB	00H
	DB	00H
	DB	00H
	DB	00H
	DB	00H
	DB	00H
	DB	00H
	DB	00H
	DB	00H
	DB	00H
	DB	00H
	DB	00H
	DB	00H
	DB	00H
	DB	00H
	DB	00H
	DB	00H
	DB	00H
	DB	00H
	DB	00H
	DB	00H
	DB	00H
	DB	00H
	DB	00H
	DB	00H
	DB	00H
	DB	00H
	DB	00H
	DB	00H
	DB	00H
	DB	00H
	DB	00H
	DB	00H
	DB	00H
	DB	00H
	DB	00H
	DB	00H
	DB	00H
	DB	00H
	DB	00H
	DB	00H
	DB	00H
	DB	00H
	DB	00H
	DB	00H
	DB	00H
	DB	00H
	DB	00H
	DB	00H
	DB	00H
	DB	00H
	DB	00H
	DB	00H
	DB	00H
	DB	00H
	DB	00H
	DB	00H
	DB	00H
	DB	00H
	DB	00H
	DB	00H
	DB	00H
	DB	00H
	DB	00H
	DB	00H
	DB	00H
	DB	00H
	DB	00H
	DB	00H
	DB	00H
	DB	00H
	DB	00H
	DB	00H
	DB	00H
	DB	00H
	DB	00H
	DB	00H
	DB	00H
	DB	00H
	DB	00H
	DB	00H
	DB	00H
	DB	00H
	DB	00H
	DB	00H
	DB	00H
	DB	00H
	DB	00H
	DB	00H
	DB	00H
	DB	00H
	DB	00H
	DB	00H
	DB	00H
	DB	00H
	DB	00H
	DB	00H
	DB	00H
	DB	00H
	DB	00H
	DB	00H
	DB	00H
	DB	00H
	DB	00H
	DB	00H
	DB	00H
	DB	00H
	DB	00H
	DB	00H
	DB	00H
	DB	00H
	DB	00H
	DB	00H
	DB	00H
	DB	00H
	DB	00H
	DB	00H
	DB	00H
	DB	00H
	DB	00H
	DB	00H
	DB	00H
	DB	00H
	DB	00H
	DB	00H
	DB	00H
	DB	00H
	DB	00H
	DB	00H
	DB	00H
	DB	00H
	DB	00H
	DB	00H
	DB	00H
	DB	00H
	DB	00H
	DB	00H
	DB	00H
	DB	00H
	DB	00H
	DB	00H
	DB	00H
	DB	00H
	DB	00H
	DB	00H
	DB	00H
	DB	00H
	DB	00H
	DB	00H
	DB	00H
	DB	00H
	DB	00H
	DB	00H
	DB	00H
	DB	00H
	DB	00H
	DB	00H
	DB	00H
	DB	00H
	DB	00H
	DB	00H
	DB	00H
	DB	00H
	DB	00H
	DB	00H
	DB	00H
	DB	00H
	DB	00H
	DB	00H
	DB	00H
	DB	00H
	DB	00H
	DB	00H
	DB	00H
	DB	00H
	DB	00H
	DB	00H
	DB	00H
	DB	00H
	DB	00H
	DB	00H
	DB	00H
	DB	00H
	DB	00H
	DB	00H
	DB	00H
	DB	00H
	DB	00H
	DB	00H
	DB	00H
	DB	00H
	DB	00H
	DB	00H
	DB	00H
	DB	00H
	DB	00H
	DB	00H
	DB	00H
	DB	00H
	DB	00H
	DB	00H
	DB	00H
	DB	00H
	DB	00H
	DB	00H
	DB	00H
	DB	00H
	DB	00H
	DB	00H
	DB	00H
	DB	00H
	DB	00H
	DB	00H
	DB	00H
	DB	00H
	DB	00H
	DB	00H
	DB	00H
	DB	00H
	DB	00H
	DB	00H
	DB	00H
	DB	00H
	DB	00H
	DB	00H
	DB	00H
	DB	00H
	DB	00H
	DB	00H
	DB	00H
	DB	00H
	DB	00H
	DB	00H
	DB	00H
	DB	00H
	DB	00H
	DB	00H
	DB	00H
	DB	00H
	DB	00H
	DB	00H
	DB	00H
	DB	00H
	DB	00H
	DB	00H
	DB	00H
	DB	00H
	DB	00H
	DB	00H
	DB	00H
	DB	00H
	DB	00H
	DB	00H
	DB	00H
	DB	00H
	DB	00H
	DB	00H
	DB	00H
	DB	00H
	DB	00H
	DB	00H
	DB	00H
	DB	00H
	DB	00H
	DB	00H
	DB	00H
	DB	00H
	DB	00H
	DB	00H
	DB	00H
	DB	00H
	DB	00H
	DB	00H
	DB	00H
	DB	00H
	DB	00H
	DB	00H
	DB	00H
	DB	00H
	DB	00H
	DB	00H
	DB	00H
	DB	00H
	DB	00H
	DB	00H
	DB	00H
	DB	00H
	DB	00H
	DB	00H
	DB	00H
	DB	00H
	DB	00H
	DB	00H
	DB	00H
	DB	00H
	DB	00H
	DB	00H
	DB	00H
	DB	00H
	DB	00H
	DB	00H
	DB	00H
	DB	00H
	DB	00H
	DB	00H
	DB	00H
	DB	00H
	DB	00H
	DB	00H
	DB	00H
	DB	00H
	DB	00H
	DB	00H
	DB	00H
	DB	00H
	DB	00H
	DB	00H
	DB	00H
	DB	00H
	DB	00H
	DB	00H
	DB	00H
	DB	00H
	DB	00H
	DB	00H
	DB	00H
	DB	00H
	DB	00H
	DB	00H
	DB	00H
	DB	00H
	DB	00H
	DB	00H
	DB	00H
	DB	00H
	DB	00H
	DB	00H
	DB	00H
	DB	00H
	DB	00H
	DB	00H
	DB	00H
	DB	00H
	DB	00H
	DB	00H
	DB	00H
	DB	00H
	DB	00H
	DB	00H
	DB	00H
	DB	00H
	DB	00H
	DB	00H
	DB	00H
	DB	00H
	DB	00H
	DB	00H
	DB	00H
	DB	00H
	DB	00H
	DB	00H
	DB	00H
	DB	00H
	DB	00H
	DB	00H
	DB	00H
	DB	00H
	DB	00H
	DB	00H
	DB	00H
	DB	00H
	DB	00H
	DB	00H
	DB	00H
	DB	00H
	DB	00H
	DB	00H
	DB	00H
	DB	00H
	DB	00H
	DB	00H
	DB	00H
	DB	00H
	DB	00H
	DB	00H
	DB	00H
	DB	00H
	DB	00H
	DB	00H
	DB	00H
	DB	00H
	DB	00H
	DB	00H
	DB	00H
	DB	00H
	DB	00H
	DB	00H
	DB	00H
	DB	00H
	DB	00H
	DB	00H
	DB	00H
	DB	00H
	DB	00H
	DB	00H
	DB	00H
	DB	00H
	DB	00H
	DB	00H
	DB	00H
	DB	00H
	DB	00H
	DB	00H
	DB	00H
	DB	00H
	DB	00H
	DB	00H
	DB	00H
	DB	00H
	DB	00H
	DB	00H
	DB	00H
	DB	00H
	DB	00H
	DB	00H
	DB	00H
	DB	00H
	DB	00H
	DB	00H
	DB	00H
	DB	00H
	DB	00H
	DB	00H
	DB	00H
	DB	00H
	DB	00H
	DB	00H
	DB	00H
	DB	00H
	DB	00H
	DB	00H
	DB	00H
	DB	00H
	DB	00H
	DB	00H
	DB	00H
	DB	00H
	DB	00H
	DB	00H
	DB	00H
	DB	00H
	DB	00H
	DB	00H
	DB	00H
	DB	00H
	DB	00H
	DB	00H
	DB	00H
	DB	00H
	DB	00H
	DB	00H
	DB	00H
	DB	00H
	DB	00H
	DB	00H
	DB	00H
	DB	00H
	DB	00H
	DB	00H
	DB	00H
	DB	00H
	DB	00H
	DB	00H
	DB	00H
	DB	00H
	DB	00H
	DB	00H
	DB	00H
	DB	00H
	DB	00H
	DB	00H
	DB	00H
	DB	00H
	DB	00H
	DB	00H
	DB	00H
	DB	00H
	DB	00H
	DB	00H
	DB	00H
	DB	00H
	DB	00H
	DB	00H
	DB	00H
	DB	00H
	DB	00H
	DB	00H
	DB	00H
	DB	00H
	DB	00H
	DB	00H
	DB	00H
	DB	00H
	DB	00H
	DB	00H
	DB	00H
	DB	00H
	DB	00H
	DB	00H
	DB	00H
	DB	00H
	DB	00H
	DB	00H
	DB	00H
	DB	00H
	DB	00H
	DB	00H
	DB	00H
	DB	00H
	DB	00H
	DB	00H
	DB	00H
	DB	00H
	DB	00H
	DB	00H
	DB	00H
	DB	00H
	DB	00H
	DB	00H
	DB	00H
	DB	00H
	DB	00H
	DB	00H
	DB	00H
	DB	00H
	DB	00H
	DB	00H
	DB	00H
	DB	00H
	DB	00H
	DB	00H
	DB	00H
	DB	00H
	DB	00H
	DB	00H
	DB	00H
	DB	00H
	DB	00H
	DB	00H
	DB	00H
	DB	00H
	DB	00H
	DB	00H
	DB	00H
	DB	00H
	DB	00H
	DB	00H
	DB	00H
	DB	00H
	DB	00H
	DB	00H
	DB	00H
	DB	00H
	DB	00H
	DB	00H
	DB	00H
	DB	00H
	DB	00H
	DB	00H
	DB	00H
	DB	00H
	DB	00H
	DB	00H
	DB	00H
	DB	00H
	DB	00H
	DB	00H
	DB	00H
	DB	00H
	DB	00H
	DB	00H
	DB	00H
	DB	00H
	DB	00H
	DB	00H
	DB	00H
	DB	00H
	DB	00H
	DB	00H
	DB	00H
	DB	00H
	DB	00H
	DB	00H
	DB	00H
	DB	00H
	DB	00H
	DB	00H
	DB	00H
	DB	00H
	DB	00H
	DB	00H
	DB	00H
	DB	00H
	DB	00H
	DB	00H
	DB	00H
	DB	00H
	DB	00H
	DB	00H
	DB	00H
	DB	00H
	DB	00H
	DB	00H
	DB	00H
	DB	00H
	DB	00H
	DB	00H
	DB	00H
	DB	00H
	DB	00H
	DB	00H
	DB	00H
	DB	00H
	DB	00H
	DB	00H
	DB	00H
	DB	00H
	DB	00H
	DB	00H
	DB	00H
	DB	00H
	DB	00H
	DB	00H
	DB	00H
	DB	00H
	DB	00H
	DB	00H
	DB	00H
	DB	00H
	DB	00H
	DB	00H
	DB	00H
	DB	00H
	DB	00H
	DB	00H
	DB	00H
	DB	00H
	DB	00H
	DB	00H
	DB	00H
	DB	00H
	DB	00H
	DB	00H
	DB	00H
	DB	00H
	DB	00H
	DB	00H
	DB	00H
	DB	00H
	DB	00H
	DB	00H
	DB	00H
	DB	00H
	DB	00H
	DB	00H
	DB	00H
	DB	00H
	DB	00H
	DB	00H
	DB	00H
	DB	00H
	DB	00H
	DB	00H
	DB	00H
	DB	00H
	DB	00H
	DB	00H
	DB	00H
	DB	00H
	DB	00H
	DB	00H
	DB	00H
	DB	00H
	DB	00H
	DB	00H
	DB	00H
	DB	00H
	DB	00H
	DB	00H
	DB	00H
	DB	00H
	DB	00H
	DB	00H
	DB	00H
	DB	00H
	DB	00H
	DB	00H
	DB	00H
	DB	00H
	DB	00H
	DB	00H
	DB	00H
	DB	00H
	DB	00H
	DB	00H
	DB	00H
	DB	00H
	DB	00H
	DB	00H
	DB	00H
	DB	00H
	DB	00H
	DB	00H
	DB	00H
	DB	00H
	DB	00H
	DB	00H
	DB	00H
	DB	00H
	DB	00H
	DB	00H
	DB	00H
	DB	00H
	DB	00H
	DB	00H
	DB	00H
	DB	00H
	DB	00H
	DB	00H
	DB	00H
	DB	00H
	DB	00H
	DB	00H
	DB	00H
	DB	00H
	DB	00H
	DB	00H
	DB	00H
	DB	00H
	DB	00H
	DB	00H
	DB	00H
	DB	00H
	DB	00H
	DB	00H
	DB	00H
	DB	00H
	DB	00H
	DB	00H
	DB	00H
	DB	00H
	DB	00H
	DB	00H
	DB	00H
	DB	00H
	DB	00H
	DB	00H
	DB	00H
	DB	00H
	DB	00H
	DB	00H
	DB	00H
	DB	00H
	DB	00H
	DB	00H
	DB	00H
	DB	00H
	DB	00H
	DB	00H
	DB	00H
	DB	00H
	DB	00H
	DB	00H
	DB	00H
	DB	00H
	DB	00H
	DB	00H
	DB	00H
	DB	00H
	DB	00H
	DB	00H
	DB	00H
	DB	00H
	DB	00H
	DB	00H
	DB	00H
	DB	00H
	DB	00H
	DB	00H
	DB	00H
	DB	00H
	DB	00H
	DB	00H
	DB	00H
	DB	00H
	DB	00H
	DB	00H
	DB	00H
	DB	00H
	DB	00H
	DB	00H
	DB	00H
	DB	00H
	DB	00H
	DB	00H
	DB	00H
	DB	00H
	DB	00H
	DB	00H
	DB	00H
	DB	00H
	DB	00H
	DB	00H
	DB	00H
	DB	00H
	DB	00H
	DB	00H
	DB	00H
	DB	00H
	DB	00H
	DB	00H
	DB	00H
	DB	00H
	DB	00H
	DB	00H
	DB	00H
	DB	00H
	DB	00H
	DB	00H
	DB	00H
	DB	00H
	DB	00H
	DB	00H
	DB	00H
	DB	00H
	DB	00H
	DB	00H
	DB	00H
	DB	00H
	DB	00H
	DB	00H
	DB	00H
	DB	00H
	DB	00H
	DB	00H
	DB	00H
	DB	00H
	DB	00H
	DB	00H
	DB	00H
	DB	00H
	DB	00H
	DB	00H
	DB	00H
	DB	00H
	DB	00H
	DB	00H
	DB	00H
	DB	00H
	DB	00H
	DB	00H
	DB	00H
	DB	00H
	DB	00H
	DB	00H
	DB	00H
	DB	00H
	DB	00H
	DB	00H
	DB	00H
	DB	00H
	DB	00H
	DB	00H
	DB	00H
	DB	00H
	DB	00H
	DB	00H
	DB	00H
	DB	00H
	DB	00H
	DB	00H
	DB	00H
	DB	00H
	DB	00H
	DB	00H
	DB	00H
	DB	00H
	DB	00H
	DB	00H
	DB	00H
	DB	00H
	DB	00H
	DB	00H
	DB	00H
	DB	00H
	DB	00H
	DB	00H
	DB	00H
	DB	00H
	DB	00H
	DB	00H
	DB	00H
	DB	00H
	DB	00H
	DB	00H
	DB	00H
	DB	00H
	DB	00H
	DB	00H
	DB	00H
	DB	00H
	DB	00H
	DB	00H
	DB	00H
	DB	00H
	DB	00H
	DB	00H
	DB	00H
	DB	00H
	DB	00H
	DB	00H
	DB	00H
	DB	00H
	DB	00H
	DB	00H
	DB	00H
	DB	00H
	DB	00H
	DB	00H
	DB	00H
	DB	00H
	DB	00H
	DB	00H
	DB	00H
	DB	00H
	DB	00H
	DB	00H
	DB	00H
	DB	00H
	DB	00H
	DB	00H
	DB	00H
	DB	00H
	DB	00H
	DB	00H
	DB	00H
	DB	00H
	DB	00H
	DB	00H
	DB	00H
	DB	00H
	DB	00H
	DB	00H
	DB	00H
	DB	00H
	DB	00H
	DB	00H
	DB	00H
	DB	00H
	DB	00H
	DB	00H
	DB	00H
	DB	00H
	DB	00H
	DB	00H
	DB	00H
	DB	00H
	DB	00H
	DB	00H
	DB	00H
	DB	00H
	DB	00H
	DB	00H
	DB	00H
	DB	00H
	DB	00H
	DB	00H
	DB	00H
	DB	00H
	DB	00H
	DB	00H
	DB	00H
	DB	00H
	DB	00H
	DB	00H
	DB	00H
	DB	00H
	DB	00H
	DB	00H
	DB	00H
	DB	00H
	DB	00H
	DB	00H
	DB	00H
	DB	00H
	DB	00H
	DB	00H
	DB	00H
	DB	00H
	DB	00H
	DB	00H
	DB	00H
	DB	00H
	DB	00H
	DB	00H
	DB	00H
	DB	00H
	DB	00H
	DB	00H
	DB	00H
	DB	00H
	DB	00H
	DB	00H
	DB	00H
	DB	00H
	DB	00H
	DB	00H
	DB	00H
	DB	00H
	DB	00H
	DB	00H
	DB	00H
	DB	00H
	DB	00H
	DB	00H
	DB	00H
	DB	00H
	DB	00H
	DB	00H
	DB	00H
	DB	00H
	DB	00H
	DB	00H
	DB	00H
	DB	00H
	DB	00H
	DB	00H
	DB	00H
	DB	00H
	DB	00H
	DB	00H
	DB	00H
	DB	00H
	DB	00H
	DB	00H
	DB	00H
	DB	00H
	DB	00H
	DB	00H
	DB	00H
	DB	00H
	DB	00H
	DB	00H
	DB	00H
	DB	00H
	DB	00H
	DB	00H
	DB	00H
	DB	00H
	DB	00H
	DB	00H
	DB	00H
	DB	00H
	DB	00H
	DB	00H
	DB	00H
	DB	00H
	DB	00H
	DB	00H
	DB	00H
	DB	00H
	DB	00H
	DB	00H
	DB	00H
	DB	00H
	DB	00H
	DB	00H
	DB	00H
	DB	00H
	DB	00H
	DB	00H
	DB	00H
	DB	00H
	DB	00H
	DB	00H
	DB	00H
	DB	00H
	DB	00H
	DB	00H
	DB	00H
	DB	00H
	DB	00H
	DB	00H
	DB	00H
	DB	00H
	DB	00H
	DB	00H
	DB	00H
	DB	00H
	DB	00H
	DB	00H
	DB	00H
	DB	00H
	DB	00H
	DB	00H
	DB	00H
	DB	00H
	DB	00H
	DB	00H
	DB	00H
	DB	00H
	DB	00H
	DB	00H
	DB	00H
	DB	00H
	DB	00H
	DB	00H
	DB	00H
	DB	00H
	DB	00H
	DB	00H
	DB	00H
	DB	00H
	DB	00H
	DB	00H
	DB	00H
	DB	00H
	DB	00H
	DB	00H
	DB	00H
	DB	00H
	DB	00H
	DB	00H
	DB	00H
	DB	00H
	DB	00H
	DB	00H
	DB	00H
	DB	00H
	DB	00H
	DB	00H
	DB	00H
	DB	00H
	DB	00H
	DB	00H
	DB	00H
	DB	00H
	DB	00H
	DB	00H
	DB	00H
	DB	00H
	DB	00H
	DB	00H
	DB	00H
	DB	00H
	DB	00H
	DB	00H
	DB	00H
	DB	00H
	DB	00H
	DB	00H
	DB	00H
	DB	00H
	DB	00H
	DB	00H
	DB	00H
	DB	00H
	DB	00H
	DB	00H
	DB	00H
	DB	00H
	DB	00H
	DB	00H
	DB	00H
	DB	00H
	DB	00H
	DB	00H
	DB	00H
	DB	00H
	DB	00H
	DB	00H
	DB	00H
	DB	00H
	DB	00H
	DB	00H
	DB	00H
	DB	00H
	DB	00H
	DB	00H
	DB	00H
	DB	00H
	DB	00H
	DB	00H
	DB	00H
	DB	00H
	DB	00H
	DB	00H
	DB	00H
	DB	00H
	DB	00H
	DB	00H
	DB	00H
	DB	00H
	DB	00H
	DB	00H
	DB	00H
	DB	00H
	DB	00H
	DB	00H
	DB	00H
	DB	00H
	DB	00H
	DB	00H
	DB	00H
	DB	00H
	DB	00H
	DB	00H
	DB	00H
	DB	00H
	DB	00H
	DB	00H
	DB	00H
	DB	00H
	DB	00H
	DB	00H
	DB	00H
	DB	00H
	DB	00H
	DB	00H
	DB	00H
	DB	00H
	DB	00H
	DB	00H
	DB	00H
	DB	00H
	DB	00H
	DB	00H
	DB	00H
	DB	00H
	DB	00H
	DB	00H
	DB	00H
	DB	00H
	DB	00H
	DB	00H
	DB	00H
	DB	00H
	DB	00H
	DB	00H
	DB	00H
	DB	00H
	DB	00H
	DB	00H
	DB	00H
	DB	00H
	DB	00H
	DB	00H
	DB	00H
	DB	00H
	DB	00H
	DB	00H
	DB	00H
	DB	00H
	DB	00H
	DB	00H
	DB	00H
	DB	00H
	DB	00H
	DB	00H
	DB	00H
	DB	00H
	DB	00H
	DB	00H
	DB	00H
	DB	00H
	DB	00H
	DB	00H
	DB	00H
	DB	00H
	DB	00H
	DB	00H
	DB	00H
	DB	00H
	DB	00H
	DB	00H
	DB	00H
	DB	00H
	DB	00H
	DB	00H
	DB	00H
	DB	00H
	DB	00H
	DB	00H
	DB	00H
	DB	00H
	DB	00H
	DB	00H
	DB	00H
	DB	00H
	DB	00H
	DB	00H
	DB	00H
	DB	00H
	DB	00H
	DB	00H
	DB	00H
	DB	00H
	DB	00H
	DB	00H
	DB	00H
	DB	00H
	DB	00H
	DB	00H
	DB	00H
	DB	00H
	DB	00H
	DB	00H
	DB	00H
	DB	00H
	DB	00H
	DB	00H
	DB	00H
	DB	00H
	DB	00H
	DB	00H
	DB	00H
	DB	00H
	DB	00H
	DB	00H
	DB	00H
	DB	00H
	DB	00H
	DB	00H
	DB	00H
	DB	00H
	DB	00H
	DB	00H
	DB	00H
	DB	00H
	DB	00H
	DB	00H
	DB	00H
	DB	00H
	DB	00H
	DB	00H
	DB	00H
	DB	00H
	DB	00H
	DB	00H
	DB	00H
	DB	00H
	DB	00H
	DB	00H
	DB	00H
	DB	00H
	DB	00H
	DB	00H
	DB	00H
	DB	00H
	DB	00H
	DB	00H
	DB	00H
	DB	00H
	DB	00H
	DB	00H
	DB	00H
	DB	00H
	DB	00H
	DB	00H
	DB	00H
	DB	00H
	DB	00H
	DB	00H
	DB	00H
	DB	00H
	DB	00H
	DB	00H
	DB	00H
	DB	00H
	DB	00H
	DB	00H
	DB	00H
	DB	00H
	DB	00H
	DB	00H
	DB	00H
	DB	00H
	DB	00H
	DB	00H
	DB	00H
	DB	00H
	DB	00H
	DB	00H
	DB	00H
	DB	00H
	DB	00H
	DB	00H
	DB	00H
	DB	00H
	DB	00H
	DB	00H
	DB	00H
	DB	00H
	DB	00H
	DB	00H
	DB	00H
	DB	00H
	DB	00H
	DB	00H
	DB	00H
	DB	00H
	DB	00H
	DB	00H
	DB	00H
	DB	00H
	DB	00H
	DB	00H
	DB	00H
	DB	00H
	DB	00H
	DB	00H
	DB	00H
	DB	00H
	DB	00H
	DB	00H
	DB	00H
	DB	00H
	DB	00H
	DB	00H
	DB	00H
	DB	00H
	DB	00H
	DB	00H
	DB	00H
	DB	00H
	DB	00H
	DB	00H
	DB	00H
	DB	00H
	DB	00H
	DB	00H
	DB	00H
	DB	00H
	DB	00H
	DB	00H
	DB	00H
	DB	00H
	DB	00H
	DB	00H
	DB	00H
	DB	00H
	DB	00H
	DB	00H
	DB	00H
	DB	00H
	DB	00H
	DB	00H
	DB	00H
	DB	00H
	DB	00H
	DB	00H
	DB	00H
	DB	00H
	DB	00H
	DB	00H
	DB	00H
	DB	00H
	DB	00H
	DB	00H
	DB	00H
	DB	00H
	DB	00H
	DB	00H
	DB	00H
	DB	00H
	DB	00H
	DB	00H
	DB	00H
	DB	00H
	DB	00H
	DB	00H
	DB	00H
	DB	00H
	DB	00H
	DB	00H
	DB	00H
	DB	00H
	DB	00H
	DB	00H
	DB	00H
	DB	00H
	DB	00H
	DB	00H
	DB	00H
	DB	00H
	DB	00H
	DB	00H
	DB	00H
	DB	00H
	DB	00H
	DB	00H
	DB	00H
	DB	00H
	DB	00H
	DB	00H
	DB	00H
	DB	00H
	DB	00H
	DB	00H
	DB	00H
	DB	00H
	DB	00H
	DB	00H
	DB	00H
	DB	00H
	DB	00H
	DB	00H
	DB	00H
	DB	00H
	DB	00H
	DB	00H
	DB	00H
	DB	00H
	DB	00H
	DB	00H
	DB	00H
	DB	00H
	DB	00H
	DB	00H
	DB	00H
	DB	00H
	DB	00H
	DB	00H
	DB	00H
	DB	00H
	DB	00H
	DB	00H
	DB	00H
	DB	00H
	DB	00H
	DB	00H
	DB	00H
	DB	00H
	DB	00H
	DB	00H
	DB	00H
	DB	00H
	DB	00H
	DB	00H
	DB	00H
	DB	00H
	DB	00H
	DB	00H
	DB	00H
	DB	00H
	DB	00H
	DB	00H
	DB	00H
	DB	00H
	DB	00H
	DB	00H
	DB	00H
	DB	00H
	DB	00H
	DB	00H
	DB	00H
	DB	00H
	DB	00H
	DB	00H
	DB	00H
	DB	00H
	DB	00H
	DB	00H
	DB	00H
	DB	00H
	DB	00H
	DB	00H
	DB	00H
	DB	00H
	DB	00H
	DB	00H
	DB	00H
	DB	00H
	DB	00H
	DB	00H
	DB	00H
	DB	00H
	DB	00H
	DB	00H
	DB	00H
	DB	00H
	DB	00H
	DB	00H
	DB	00H
	DB	00H
	DB	00H
	DB	00H
	DB	00H
	DB	00H
	DB	00H
	DB	00H
	DB	00H
	DB	00H
	DB	00H
	DB	00H
	DB	00H
	DB	00H
	DB	00H
	DB	00H
	DB	00H
	DB	00H
	DB	00H
	DB	00H
	DB	00H
	DB	00H
	DB	00H
	DB	00H
	DB	00H
	DB	00H
	DB	00H
	DB	00H
	DB	00H
	DB	00H
	DB	00H
	DB	00H
	DB	00H
	DB	00H
	DB	00H
	DB	00H
	DB	00H
	DB	00H
	DB	00H
	DB	00H
	DB	00H
	DB	00H
	DB	00H
	DB	00H
	DB	00H
	DB	00H
	DB	00H
	DB	00H
	DB	00H
	DB	00H
	DB	00H
	DB	00H
	DB	00H
	DB	00H
	DB	00H
	DB	00H
	DB	00H
	DB	00H
	DB	00H
	DB	00H
	DB	00H
	DB	00H
	DB	00H
	DB	00H
	DB	00H
	DB	00H
	DB	00H
	DB	00H
	DB	00H
	DB	00H
	DB	00H
	DB	00H
	DB	00H
	DB	00H
	DB	00H
	DB	00H
	DB	00H
	DB	00H
	DB	00H
	DB	00H
	DB	00H
	DB	00H
	DB	00H
	DB	00H
	DB	00H
	DB	00H
	DB	00H
	DB	00H
	DB	00H
	DB	00H
	DB	00H
	DB	00H
	DB	00H
	DB	00H
	DB	00H
	DB	00H
	DB	00H
	DB	00H
	DB	00H
	DB	00H
	DB	00H
	DB	00H
	DB	00H
	DB	00H
	DB	00H
	DB	00H
	DB	00H
	DB	00H
	DB	00H
	DB	00H
	DB	00H
	DB	00H
	DB	00H
	DB	00H
	DB	00H
	DB	00H
	DB	00H
	DB	00H
	DB	00H
	DB	00H
	DB	00H
	DB	00H
	DB	00H
	DB	00H
	DB	00H
	DB	00H
	DB	00H
	DB	00H
	DB	00H
	DB	00H
	DB	00H
	DB	00H
	DB	00H
	DB	00H
	DB	00H
	DB	00H
	DB	00H
	DB	00H
	DB	00H
	DB	00H
	DB	00H
	DB	00H
	DB	00H
	DB	00H
	DB	00H
	DB	00H
	DB	00H
	DB	00H
	DB	00H
	DB	00H
	DB	00H
	DB	00H
	DB	00H
	DB	00H
	DB	00H
	DB	00H
	DB	00H
	DB	00H
	DB	00H
	DB	00H
	DB	00H
	DB	00H
	DB	00H
	DB	00H
	DB	00H
	DB	00H
	DB	00H
	DB	00H
	DB	00H
	DB	00H
	DB	00H
	DB	00H
	DB	00H
	DB	00H
	DB	00H
	DB	00H
	DB	00H
	DB	00H
	DB	00H
	DB	00H
	DB	00H
	DB	00H
	DB	00H
	DB	00H
	DB	00H
	DB	00H
	DB	00H
	DB	00H
	DB	00H
	DB	00H
	DB	00H
	DB	00H
	DB	00H
	DB	00H
	DB	00H
	DB	00H
	DB	00H
	DB	00H
	DB	00H
	DB	00H
	DB	00H
	DB	00H
	DB	00H
	DB	00H
	DB	00H
	DB	00H
	DB	00H
	DB	00H
	DB	00H
	DB	00H
	DB	00H
	DB	00H
	DB	00H
	DB	00H
	DB	00H
	DB	00H
	DB	00H
	DB	00H
	DB	00H
	DB	00H
	DB	00H
	DB	00H
	DB	00H
	DB	00H
	DB	00H
	DB	00H
	DB	00H
	DB	00H
	DB	00H
	DB	00H
	DB	00H
	DB	00H
	DB	00H
	DB	00H
	DB	00H
	DB	00H
	DB	00H
	DB	00H
	DB	00H
	DB	00H
	DB	00H
	DB	00H
	DB	00H
	DB	00H
	DB	00H
	DB	00H
	DB	00H
	DB	00H
	DB	00H
	DB	00H
	DB	00H
	DB	00H
	DB	00H
	DB	00H
	DB	00H
	DB	00H
	DB	00H
	DB	00H
	DB	00H
	DB	00H
	DB	00H
	DB	00H
	DB	00H
	DB	00H
	DB	00H
	DB	00H
	DB	00H
	DB	00H
	DB	00H
	DB	00H
	DB	00H
	DB	00H
	DB	00H
	DB	00H
	DB	00H
	DB	00H
	DB	00H
	DB	00H
	DB	00H
	DB	00H
	DB	00H
	DB	00H
	DB	00H
	DB	00H
	DB	00H
	DB	00H
	DB	00H
	DB	00H
	DB	00H
	DB	00H
	DB	00H
	DB	00H
	DB	00H
	DB	00H
	DB	00H
	DB	00H
	DB	00H
	DB	00H
	DB	00H
	DB	00H
	DB	00H
	DB	00H
	DB	00H
	DB	00H
	DB	00H
	DB	00H
	DB	00H
	DB	00H
	DB	00H
	DB	00H
	DB	00H
	DB	00H
	DB	00H
	DB	00H
	DB	00H
	DB	00H
	DB	00H
	DB	00H
	DB	00H
	DB	00H
	DB	00H
	DB	00H
	DB	00H
	DB	00H
	DB	00H
	DB	00H
	DB	00H
	DB	00H
	DB	00H
	DB	00H
	DB	00H
	DB	00H
	DB	00H
	DB	00H
	DB	00H
	DB	00H
	DB	00H
	DB	00H
	DB	00H
	DB	00H
	DB	00H
	DB	00H
	DB	00H
	DB	00H
	DB	00H
	DB	00H
	DB	00H
	DB	00H
	DB	00H
	DB	00H
	DB	00H
	DB	00H
	DB	00H
	DB	00H
	DB	00H
	DB	00H
	DB	00H
	DB	00H
	DB	00H
	DB	00H
	DB	00H
	DB	00H
	DB	00H
	DB	00H
	DB	00H
	DB	00H
	DB	00H
	DB	00H
	DB	00H
	DB	00H
	DB	00H
	DB	00H
	DB	00H
	DB	00H
	DB	00H
	DB	00H
	DB	00H
	DB	00H
	DB	00H
	DB	00H
	DB	00H
	DB	00H
	DB	00H
	DB	00H
	DB	00H
	DB	00H
	DB	00H
	DB	00H
	DB	00H
	DB	00H
	DB	00H
	DB	00H
	DB	00H
	DB	00H
	DB	00H
	DB	00H
	DB	00H
	DB	00H
	DB	00H
	DB	00H
	DB	00H
	DB	00H
	DB	00H
	DB	00H
	DB	00H
	DB	00H
	DB	00H
	DB	00H
	DB	00H
	DB	00H
	DB	00H
	DB	00H
	DB	00H
	DB	00H
	DB	00H
	DB	00H
	DB	00H
	DB	00H
	DB	00H
	DB	00H
	DB	00H
	DB	00H
	DB	00H
	DB	00H
	DB	00H
	DB	00H
	DB	00H
	DB	00H
	DB	00H
	DB	00H
	DB	00H
	DB	00H
	DB	00H
	DB	00H
	DB	00H
	DB	00H
	DB	00H
	DB	00H
	DB	00H
	DB	00H
	DB	00H
	DB	00H
	DB	00H
	DB	00H
	DB	00H
	DB	00H
	DB	00H
	DB	00H
	DB	00H
	DB	00H
	DB	00H
	DB	00H
	DB	00H
	DB	00H
	DB	00H
	DB	00H
	DB	00H
	DB	00H
	DB	00H
	DB	00H
	DB	00H
	DB	00H
	DB	00H
	DB	00H
	DB	00H
	DB	00H
	DB	00H
	DB	00H
	DB	00H
	DB	00H
	DB	00H
	DB	00H
	DB	00H
	DB	00H
	DB	00H
	DB	00H
	DB	00H
	DB	00H
	DB	00H
	DB	00H
	DB	00H
	DB	00H
	DB	00H
	DB	00H
	DB	00H
	DB	00H
	DB	00H
	DB	00H
	DB	00H
	DB	00H
	DB	00H
	DB	00H
	DB	00H
	DB	00H
	DB	00H
	DB	00H
	DB	00H
	DB	00H
	DB	00H
	DB	00H
	DB	00H
	DB	00H
	DB	00H
	DB	00H
	DB	00H
	DB	00H
	DB	00H
	DB	00H
	DB	00H
	DB	00H
	DB	00H
	DB	00H
	DB	00H
	DB	00H
	DB	00H
	DB	00H
	DB	00H
	DB	00H
	DB	00H
	DB	00H
	DB	00H
	DB	00H
	DB	00H
	DB	00H
	DB	00H
	DB	00H
	DB	00H
	DB	00H
	DB	00H
	DB	00H
	DB	00H
	DB	00H
	DB	00H
	DB	00H
	DB	00H
	DB	00H
	DB	00H
	DB	00H
	DB	00H
	DB	00H
	DB	00H
	DB	00H
	DB	00H
	DB	00H
	DB	00H
	DB	00H
	DB	00H
	DB	00H
	DB	00H
	DB	00H
	DB	00H
	DB	00H
	DB	00H
	DB	00H
	DB	00H
	DB	00H
	DB	00H
	DB	00H
	DB	00H
	DB	00H
	DB	00H
	DB	00H
	DB	00H
	DB	00H
	DB	00H
	DB	00H
	DB	00H
	DB	00H
	DB	00H
	DB	00H
	DB	00H
	DB	00H
	DB	00H
	DB	00H
	DB	00H
	DB	00H
	DB	00H
	DB	00H
	DB	00H
	DB	00H
	DB	00H
	DB	00H
	DB	00H
	DB	00H
	DB	00H
	DB	00H
	DB	00H
	DB	00H
	DB	00H
	DB	00H
	DB	00H
	DB	00H
	DB	00H
	DB	00H
	DB	00H
	DB	00H
	DB	00H
	DB	00H
	DB	00H
	DB	00H
	DB	00H
	DB	00H
	DB	00H
	DB	00H
	DB	00H
	DB	00H
	DB	00H
	DB	00H
	DB	00H
	DB	00H
	DB	00H
	DB	00H
	DB	00H
	DB	00H
	DB	00H
	DB	00H
	DB	00H
	DB	00H
	DB	00H
	DB	00H
	DB	00H
	DB	00H
	DB	00H
	DB	00H
	DB	00H
	DB	00H
	DB	00H
	DB	00H
	DB	00H
	DB	00H
	DB	00H
	DB	00H
	DB	00H
	DB	00H
	DB	00H
	DB	00H
	DB	00H
	DB	00H
	DB	00H
	DB	00H
	DB	00H
	DB	00H
	DB	00H
	DB	00H
	DB	00H
	DB	00H
	DB	00H
	DB	00H
	DB	00H
	DB	00H
	DB	00H
	DB	00H
	DB	00H
	DB	00H
	DB	00H
	DB	00H
	DB	00H
	DB	00H
	DB	00H
	DB	00H
	DB	00H
	DB	00H
	DB	00H
	DB	00H
	DB	00H
	DB	00H
	DB	00H
	DB	00H
	DB	00H
	DB	00H
	DB	00H
	DB	00H
	DB	00H
	DB	00H
	DB	00H
	DB	00H
	DB	00H
	DB	00H
	DB	00H
	DB	00H
	DB	00H
	DB	00H
	DB	00H
	DB	00H
	DB	00H
	DB	00H
	DB	00H
	DB	00H
	DB	00H
	DB	00H
	DB	00H
	DB	00H
	DB	00H
	DB	00H
	DB	00H
	DB	00H
	DB	00H
	DB	00H
	DB	00H
	DB	00H
	DB	00H
	DB	00H
	DB	00H
	DB	00H
	DB	00H
	DB	00H
	DB	00H
	DB	00H
	DB	00H
	DB	00H
	DB	00H
	DB	00H
	DB	00H
	DB	00H
	DB	00H
	DB	00H
	DB	00H
	DB	00H
	DB	00H
	DB	00H
	DB	00H
	DB	00H
	DB	00H
	DB	00H
	DB	00H
	DB	00H
	DB	00H
	DB	00H
	DB	00H
	DB	00H
	DB	00H
	DB	00H
	DB	00H
	DB	00H
	DB	00H
	DB	00H
	DB	00H
	DB	00H
	DB	00H
	DB	00H
	DB	00H
	DB	00H
	DB	00H
	DB	00H
	DB	00H
	DB	00H
	DB	00H
	DB	00H
	DB	00H
	DB	00H
	DB	00H
	DB	00H
	DB	00H
	DB	00H
	DB	00H
	DB	00H
	DB	00H
	DB	00H
	DB	00H
	DB	00H
	DB	00H
	DB	00H
	DB	00H
	DB	00H
	DB	00H
	DB	00H
	DB	00H
	DB	00H
	DB	00H
	DB	00H
	DB	00H
	DB	00H
	DB	00H
	DB	00H
	DB	00H
	DB	00H
	DB	00H
	DB	00H
	DB	00H
	DB	00H
	DB	00H
	DB	00H
	DB	00H
	DB	00H
	DB	00H
	DB	00H
	DB	00H
	DB	00H
	DB	00H
	DB	00H
	DB	00H
	DB	00H
	DB	00H
	DB	00H
	DB	00H
	DB	00H
	DB	00H
	DB	00H
	DB	00H
	DB	00H
	DB	00H
	DB	00H
	DB	00H
	DB	00H
	DB	00H
	DB	00H
	DB	00H
	DB	00H
	DB	00H
	DB	00H
	DB	00H
	DB	00H
	DB	00H
	DB	00H
	DB	00H
	DB	00H
	DB	00H
	DB	00H
	DB	00H
	DB	00H
	DB	00H
	DB	00H
	DB	00H
	DB	00H
	DB	00H
	DB	00H
	DB	00H
	DB	00H
	DB	00H
	DB	00H
	DB	00H
	DB	00H
	DB	00H
	DB	00H
	DB	00H
	DB	00H
	DB	00H
	DB	00H
	DB	00H
	DB	00H
	DB	00H
	DB	00H
	DB	00H
	DB	00H
	DB	00H
	DB	00H
	DB	00H
	DB	00H
	DB	00H
	DB	00H
	DB	00H
	DB	00H
	DB	00H
	DB	00H
	DB	00H
	DB	00H
	DB	00H
	DB	00H
	DB	00H
	DB	00H
	DB	00H
	DB	00H
	DB	00H
	DB	00H
	DB	00H
	DB	00H
	DB	00H
	DB	00H
	DB	00H
	DB	00H
	DB	00H
	DB	00H
	DB	00H
	DB	00H
	DB	00H
	DB	00H
	DB	00H
	DB	00H
	DB	00H
	DB	00H
	DB	00H
	DB	00H
	DB	00H
	DB	00H
	DB	00H
	DB	00H
	DB	00H
	DB	00H
	DB	00H
	DB	00H
	DB	00H
	DB	00H
	DB	00H
	DB	00H
	DB	00H
	DB	00H
	DB	00H
	DB	00H
	DB	00H
	DB	00H
	DB	00H
	DB	00H
	DB	00H
	DB	00H
	DB	00H
	DB	00H
	DB	00H
	DB	00H
	DB	00H
	DB	00H
	DB	00H
	DB	00H
	DB	00H
	DB	00H
	DB	00H
	DB	00H
	DB	00H
	DB	00H
	DB	00H
	DB	00H
	DB	00H
	DB	00H
	DB	00H
	DB	00H
	DB	00H
	DB	00H
	DB	00H
	DB	00H
	DB	00H
	DB	00H
	DB	00H
	DB	00H
	DB	00H
	DB	00H
	DB	00H
	DB	00H
	DB	00H
	DB	00H
	DB	00H
	DB	00H
	DB	00H
	DB	00H
	DB	00H
	DB	00H
	DB	00H
	DB	00H
	DB	00H
	DB	00H
	DB	00H
	DB	00H
	DB	00H
	DB	00H
	DB	00H
	DB	00H
	DB	00H
	DB	00H
	DB	00H
	DB	00H
	DB	00H
	DB	00H
	DB	00H
	DB	00H
	DB	00H
	DB	00H
	DB	00H
	DB	00H
	DB	00H
	DB	00H
	DB	00H
	DB	00H
	DB	00H
	DB	00H
	DB	00H
	DB	00H
	DB	00H
	DB	00H
	DB	00H
	DB	00H
	DB	00H
	DB	00H
	DB	00H
	DB	00H
	DB	00H
	DB	00H
	DB	00H
	DB	00H
	DB	00H
	DB	00H
	DB	00H
	DB	00H
	DB	00H
	DB	00H
	DB	00H
	DB	00H
	DB	00H
	DB	00H
	DB	00H
	DB	00H
	DB	00H
	DB	00H
	DB	00H
	DB	00H
	DB	00H
	DB	00H
	DB	00H
	DB	00H
	DB	00H
	DB	00H
	DB	00H
	DB	00H
	DB	00H
	DB	00H
	DB	00H
	DB	00H
	DB	00H
	DB	00H
	DB	00H
	DB	00H
	DB	00H
	DB	00H
	DB	00H
	DB	00H
	DB	00H
	DB	00H
	DB	00H
	DB	00H
	DB	00H
	DB	00H
	DB	00H
	DB	00H
	DB	00H
	DB	00H
	DB	00H
	DB	00H
	DB	00H
	DB	00H
	DB	00H
	DB	00H
	DB	00H
	DB	00H
	DB	00H
	DB	00H
	DB	00H
	DB	00H
	DB	00H
	DB	00H
	DB	00H
	DB	00H
	DB	00H
	DB	00H
	DB	00H
	DB	00H
	DB	00H
	DB	00H
	DB	00H
	DB	00H
	DB	00H
	DB	00H
	DB	00H
	DB	00H
	DB	00H
	DB	00H
	DB	00H
	DB	00H
	DB	00H
	DB	00H
	DB	00H
	DB	00H
	DB	00H
	DB	00H
	DB	00H
	DB	00H
	DB	00H
	DB	00H
	DB	00H
	DB	00H
	DB	00H
	DB	00H
	DB	00H
	DB	00H
	DB	00H
	DB	00H
	DB	00H
	DB	00H
	DB	00H
	DB	00H
	DB	00H
	DB	00H
	DB	00H
	DB	00H
	DB	00H
	DB	00H
	DB	00H
	DB	00H
	DB	00H
	DB	00H
	DB	00H
	DB	00H
	DB	00H
	DB	00H
	DB	00H
	DB	00H
	DB	00H
	DB	00H
	DB	00H
	DB	00H
	DB	00H
	DB	00H
	DB	00H
	DB	00H
	DB	00H
	DB	00H
	DB	00H
	DB	00H
	DB	00H
	DB	00H
	DB	00H
	DB	00H
	DB	00H
	DB	00H
	DB	00H
	DB	00H
	DB	00H
	DB	00H
	DB	00H
	DB	00H
	DB	00H
	DB	00H
	DB	00H
	DB	00H
	DB	00H
	DB	00H
	DB	00H
	DB	00H
	DB	00H
	DB	00H
	DB	00H
	DB	00H
	DB	00H
	DB	00H
	DB	00H
	DB	00H
	DB	00H
	DB	00H
	DB	00H
	DB	00H
	DB	00H
	DB	00H
	DB	00H
	DB	00H
	DB	00H
	DB	00H
	DB	00H
	DB	00H
	DB	00H
	DB	00H
	DB	00H
	DB	00H
	DB	00H
	DB	00H
	DB	00H
	DB	00H
	DB	00H
	DB	00H
	DB	00H
	DB	00H
	DB	00H
	DB	00H
	DB	00H
	DB	00H
	DB	00H
	DB	00H
	DB	00H
	DB	00H
	DB	00H
	DB	00H
	DB	00H
	DB	00H
	DB	00H
	DB	00H
	DB	00H
	DB	00H
	DB	00H
	DB	00H
	DB	00H
	DB	00H
	DB	00H
	DB	00H
	DB	00H
	DB	00H
	DB	00H
	DB	00H
	DB	00H
	DB	00H
	DB	00H
	DB	00H
	DB	00H
	DB	00H
	DB	00H
	DB	00H
	DB	00H
	DB	00H
	DB	00H
	DB	00H
	DB	00H
	DB	00H
	DB	00H
	DB	00H
	DB	00H
	DB	00H
	DB	00H
	DB	00H
	DB	00H
	DB	00H
	DB	00H
	DB	00H
	DB	00H
	DB	00H
	DB	00H
	DB	00H
	DB	00H
	DB	00H
	DB	00H
	DB	00H
	DB	00H
	DB	00H
	DB	00H
	DB	00H
	DB	00H
	DB	00H
	DB	00H
	DB	00H
	DB	00H
	DB	00H
	DB	00H
	DB	00H
	DB	00H
	DB	00H
	DB	00H
	DB	00H
	DB	00H
	DB	00H
	DB	00H
	DB	00H
	DB	00H
	DB	00H
	DB	00H
	DB	00H
	DB	00H
	DB	00H
	DB	00H
	DB	00H
	DB	00H
	DB	00H
	DB	00H
	DB	00H
	DB	00H
	DB	00H
	DB	00H
	DB	00H
	DB	00H
	DB	00H
	DB	00H
	DB	00H
	DB	00H
	DB	00H
	DB	00H
	DB	00H
	DB	00H
	DB	00H
	DB	00H
	DB	00H
	DB	00H
	DB	00H
	DB	00H
	DB	00H
	DB	00H
	DB	00H
	DB	00H
	DB	00H
	DB	00H
	DB	00H
	DB	00H
	DB	00H
	DB	00H
	DB	00H
	DB	00H
	DB	00H
	DB	00H
	DB	00H
	DB	00H
	DB	00H
	DB	00H
	DB	00H
	DB	00H
	DB	00H
	DB	00H
	DB	00H
	DB	00H
	DB	00H
	DB	00H
	DB	00H
	DB	00H
	DB	00H
	DB	00H
	DB	00H
	DB	00H
	DB	00H
	DB	00H
	DB	00H
	DB	00H
	DB	00H
	DB	00H
	DB	00H
	DB	00H
	DB	00H
	DB	00H
	DB	00H
	DB	00H
	DB	00H
	DB	00H
	DB	00H
	DB	00H
	DB	00H
	DB	00H
	DB	00H
	DB	00H
	DB	00H
	DB	00H
	DB	00H
	DB	00H
	DB	00H
	DB	00H
	DB	00H
	DB	00H
	DB	00H
	DB	00H
	DB	00H
	DB	00H
	DB	00H
	DB	00H
	DB	00H
	DB	00H
	DB	00H
	DB	00H
	DB	00H
	DB	00H
	DB	00H
	DB	00H
	DB	00H
	DB	00H
	DB	00H
	DB	00H
	DB	00H
	DB	00H
	DB	00H
	DB	00H
	DB	00H
	DB	00H
	DB	00H
	DB	00H
	DB	00H
	DB	00H
	DB	00H
	DB	00H
	DB	00H
	DB	00H
	DB	00H
	DB	00H
	DB	00H
	DB	00H
	DB	00H
	DB	00H
	DB	00H
	DB	00H
	DB	00H
	DB	00H
	DB	00H
	DB	00H
	DB	00H
	DB	00H
	DB	00H
	DB	00H
	DB	00H
	DB	00H
	DB	00H
	DB	00H
	DB	00H
	DB	00H
	DB	00H
	DB	00H
	DB	00H
	DB	00H
	DB	00H
	DB	00H
	DB	00H
	DB	00H
	DB	00H
	DB	00H
	DB	00H
	DB	00H
	DB	00H
	DB	00H
	DB	00H
	DB	00H
	DB	00H
	DB	00H
	DB	00H
	DB	00H
	DB	00H
	DB	00H
	DB	00H
	DB	00H
	DB	00H
	DB	00H
	DB	00H
	DB	00H
	DB	00H
	DB	00H
	DB	00H
	DB	00H
	DB	00H
	DB	00H
	DB	00H
	DB	00H
	DB	00H
	DB	00H
	DB	00H
	DB	00H
	DB	00H
	DB	00H
	DB	00H
	DB	00H
	DB	00H
	DB	00H
	DB	00H
	DB	00H
	DB	00H
	DB	00H
	DB	00H
	DB	00H
	DB	00H
	DB	00H
	DB	00H
	DB	00H
	DB	00H
	DB	00H
	DB	00H
	DB	00H
	DB	00H
	DB	00H
	DB	00H
	DB	00H
	DB	00H
	DB	00H
	DB	00H
	DB	00H
	DB	00H
	DB	00H
	DB	00H
	DB	00H
	DB	00H
	DB	00H
	DB	00H
	DB	00H
	DB	00H
	DB	00H
	DB	00H
	DB	00H
	DB	00H
	DB	00H
	DB	00H
	DB	00H
CONST	ENDS
END
