; Listing generated by Microsoft (R) Optimizing Compiler Version 16.00.40219.01 

	TITLE	C:\DUII\DUII\Graphics\DeleteKey.c
	.686P
	.XMM
	include listing.inc
	.model	flat

INCLUDELIB LIBCMT
INCLUDELIB OLDNAMES

PUBLIC	_bmDeleteKey
EXTRN	_GUI_BitmapMethods555:BYTE
CONST	SEGMENT
_acDeleteKey DW	00H
	DW	0421H
	DW	035b2H
	DW	04e5cH
	DW	04a3cH
	DW	04a3cH
	DW	04a3cH
	DW	04a3cH
	DW	04a3cH
	DW	04a3cH
	DW	04a3cH
	DW	04a3cH
	DW	04a3cH
	DW	04a3cH
	DW	04a3cH
	DW	04a3cH
	DW	04a3cH
	DW	04a3cH
	DW	04a3cH
	DW	04a3cH
	DW	04a3cH
	DW	04a3cH
	DW	04a3cH
	DW	04a3cH
	DW	04a3cH
	DW	04a3cH
	DW	04a3cH
	DW	04a3cH
	DW	04a3cH
	DW	04a3cH
	DW	04a3cH
	DW	04a3cH
	DW	04a3cH
	DW	04a3cH
	DW	04a3cH
	DW	04a3cH
	DW	04a3cH
	DW	04a3cH
	DW	04a3cH
	DW	04a3cH
	DW	04a3cH
	DW	04a3cH
	DW	04a3cH
	DW	04a3cH
	DW	04a3cH
	DW	04a3cH
	DW	04a3cH
	DW	04a3cH
	DW	04a3cH
	DW	04a3cH
	DW	04a3cH
	DW	04a3cH
	DW	04a3cH
	DW	04a3cH
	DW	04a3cH
	DW	04a3cH
	DW	04a3cH
	DW	04a3cH
	DW	04a3cH
	DW	04a3cH
	DW	04a3cH
	DW	04a3cH
	DW	04a3cH
	DW	04a3cH
	DW	04a3cH
	DW	04a3cH
	DW	04a3cH
	DW	04a3cH
	DW	04a3cH
	DW	04a3cH
	DW	04a3cH
	DW	04a3cH
	DW	04a3cH
	DW	04a3cH
	DW	04a3cH
	DW	04a3cH
	DW	04a3cH
	DW	04a3cH
	DW	04a3cH
	DW	04a3cH
	DW	04a3cH
	DW	04a1cH
	DW	03176H
	DW	0845H
	DW	00H
	DW	0421H
	DW	02d52H
	DW	0399bH
	DW	020faH
	DW	01cbaH
	DW	01cbaH
	DW	01cbaH
	DW	01cbaH
	DW	01cbaH
	DW	01cbaH
	DW	01cbaH
	DW	01cbaH
	DW	01cbaH
	DW	01cbaH
	DW	01cbaH
	DW	01cbaH
	DW	01cbaH
	DW	01cbaH
	DW	01cbaH
	DW	01cbaH
	DW	01cbaH
	DW	01cbaH
	DW	01cbaH
	DW	01cbaH
	DW	01cbaH
	DW	01cbaH
	DW	01cbaH
	DW	01cbaH
	DW	01cbaH
	DW	01cbaH
	DW	01cbaH
	DW	01cbaH
	DW	01cbaH
	DW	01cbaH
	DW	01cbaH
	DW	01cbaH
	DW	01cbaH
	DW	01cbaH
	DW	01cbaH
	DW	01cbaH
	DW	01cbaH
	DW	01cbaH
	DW	01cbaH
	DW	01cbaH
	DW	01cbaH
	DW	01cbaH
	DW	01cbaH
	DW	01cbaH
	DW	01cbaH
	DW	01cbaH
	DW	01cbaH
	DW	01cbaH
	DW	01cbaH
	DW	01cbaH
	DW	01cbaH
	DW	01cbaH
	DW	01cbaH
	DW	01cbaH
	DW	01cbaH
	DW	01cbaH
	DW	01cbaH
	DW	01cbaH
	DW	01cbaH
	DW	01cbaH
	DW	01cbaH
	DW	01cbaH
	DW	01cbaH
	DW	01cbaH
	DW	01cbaH
	DW	01cbaH
	DW	01cbaH
	DW	01cbaH
	DW	01cbaH
	DW	01cbaH
	DW	01cbaH
	DW	01cbaH
	DW	01cbaH
	DW	01cbaH
	DW	01cbaH
	DW	01cbaH
	DW	01cbaH
	DW	01cbaH
	DW	020faH
	DW	01896H
	DW	04H
	DW	0148cH
	DW	0293aH
	DW	0c39H
	DW	0419H
	DW	0419H
	DW	0419H
	DW	0419H
	DW	0419H
	DW	0419H
	DW	0419H
	DW	0419H
	DW	0419H
	DW	0419H
	DW	0419H
	DW	0419H
	DW	0419H
	DW	0419H
	DW	0419H
	DW	0419H
	DW	0419H
	DW	0419H
	DW	0419H
	DW	0419H
	DW	0419H
	DW	0419H
	DW	0419H
	DW	0419H
	DW	0419H
	DW	0419H
	DW	0419H
	DW	0419H
	DW	0419H
	DW	0419H
	DW	0419H
	DW	0419H
	DW	0419H
	DW	0419H
	DW	0419H
	DW	0419H
	DW	0419H
	DW	0419H
	DW	0419H
	DW	0419H
	DW	0419H
	DW	0419H
	DW	0419H
	DW	0419H
	DW	0419H
	DW	0419H
	DW	0419H
	DW	0419H
	DW	0419H
	DW	0419H
	DW	0419H
	DW	0419H
	DW	0419H
	DW	0419H
	DW	0419H
	DW	0419H
	DW	0419H
	DW	0419H
	DW	0419H
	DW	0419H
	DW	0419H
	DW	0419H
	DW	0419H
	DW	0419H
	DW	0419H
	DW	0419H
	DW	0419H
	DW	0419H
	DW	0419H
	DW	0419H
	DW	0419H
	DW	0419H
	DW	0419H
	DW	0419H
	DW	0419H
	DW	0419H
	DW	0419H
	DW	0419H
	DW	0419H
	DW	0819H
	DW	0c1aH
	DW	040bH
	DW	01491H
	DW	01499H
	DW	0819H
	DW	0819H
	DW	0819H
	DW	0819H
	DW	0819H
	DW	0819H
	DW	0819H
	DW	0819H
	DW	0819H
	DW	0819H
	DW	0819H
	DW	0819H
	DW	0819H
	DW	0819H
	DW	0819H
	DW	0819H
	DW	0819H
	DW	0819H
	DW	0819H
	DW	0819H
	DW	0819H
	DW	0819H
	DW	0819H
	DW	0819H
	DW	0819H
	DW	0819H
	DW	0819H
	DW	0819H
	DW	0819H
	DW	0819H
	DW	0819H
	DW	0819H
	DW	0819H
	DW	0819H
	DW	0819H
	DW	0819H
	DW	0819H
	DW	0819H
	DW	0819H
	DW	0819H
	DW	0819H
	DW	0819H
	DW	0819H
	DW	0819H
	DW	0819H
	DW	0819H
	DW	0819H
	DW	0819H
	DW	0819H
	DW	0819H
	DW	0819H
	DW	0819H
	DW	0819H
	DW	0819H
	DW	0819H
	DW	0819H
	DW	0819H
	DW	0819H
	DW	0819H
	DW	0819H
	DW	0819H
	DW	0819H
	DW	0819H
	DW	0819H
	DW	0819H
	DW	0819H
	DW	0819H
	DW	0819H
	DW	0819H
	DW	0819H
	DW	0819H
	DW	0819H
	DW	0819H
	DW	0819H
	DW	0819H
	DW	0819H
	DW	0819H
	DW	0819H
	DW	0819H
	DW	0819H
	DW	081aH
	DW	0819H
	DW	040bH
	DW	01072H
	DW	0107aH
	DW	081aH
	DW	081aH
	DW	081aH
	DW	081aH
	DW	081aH
	DW	081aH
	DW	081aH
	DW	081aH
	DW	081aH
	DW	081aH
	DW	081aH
	DW	081aH
	DW	081aH
	DW	081aH
	DW	081aH
	DW	081aH
	DW	081aH
	DW	081aH
	DW	081aH
	DW	081aH
	DW	081aH
	DW	081aH
	DW	081aH
	DW	081aH
	DW	081aH
	DW	081aH
	DW	081aH
	DW	081aH
	DW	081aH
	DW	081aH
	DW	081aH
	DW	081aH
	DW	081aH
	DW	081aH
	DW	081aH
	DW	081aH
	DW	081aH
	DW	081aH
	DW	081aH
	DW	081aH
	DW	081aH
	DW	081aH
	DW	081aH
	DW	081aH
	DW	081aH
	DW	081aH
	DW	081aH
	DW	081aH
	DW	081aH
	DW	081aH
	DW	081aH
	DW	081aH
	DW	081aH
	DW	081aH
	DW	081aH
	DW	081aH
	DW	081aH
	DW	081aH
	DW	081aH
	DW	081aH
	DW	081aH
	DW	081aH
	DW	081aH
	DW	081aH
	DW	081aH
	DW	081aH
	DW	081aH
	DW	081aH
	DW	081aH
	DW	081aH
	DW	081aH
	DW	081aH
	DW	081aH
	DW	081aH
	DW	081aH
	DW	081aH
	DW	081aH
	DW	081aH
	DW	081aH
	DW	081aH
	DW	081aH
	DW	0819H
	DW	0bH
	DW	01072H
	DW	0107aH
	DW	081aH
	DW	081aH
	DW	081aH
	DW	081aH
	DW	081aH
	DW	081aH
	DW	081aH
	DW	081aH
	DW	081aH
	DW	081aH
	DW	081aH
	DW	081aH
	DW	081aH
	DW	081aH
	DW	081aH
	DW	081aH
	DW	081aH
	DW	081aH
	DW	081aH
	DW	081aH
	DW	081aH
	DW	081aH
	DW	081aH
	DW	081aH
	DW	081aH
	DW	081aH
	DW	081aH
	DW	081aH
	DW	081aH
	DW	081aH
	DW	081aH
	DW	081aH
	DW	081aH
	DW	081aH
	DW	081aH
	DW	081aH
	DW	081aH
	DW	081aH
	DW	081aH
	DW	081aH
	DW	081aH
	DW	081aH
	DW	081aH
	DW	081aH
	DW	081aH
	DW	081aH
	DW	081aH
	DW	081aH
	DW	081aH
	DW	081aH
	DW	081aH
	DW	081aH
	DW	081aH
	DW	081aH
	DW	081aH
	DW	081aH
	DW	081aH
	DW	081aH
	DW	081aH
	DW	081aH
	DW	081aH
	DW	081aH
	DW	081aH
	DW	081aH
	DW	081aH
	DW	081aH
	DW	081aH
	DW	081aH
	DW	081aH
	DW	081aH
	DW	081aH
	DW	081aH
	DW	081aH
	DW	081aH
	DW	081aH
	DW	081aH
	DW	081aH
	DW	081aH
	DW	081aH
	DW	081aH
	DW	081aH
	DW	0419H
	DW	0bH
	DW	01072H
	DW	0107aH
	DW	041bH
	DW	041bH
	DW	041bH
	DW	041bH
	DW	041bH
	DW	041bH
	DW	041bH
	DW	041bH
	DW	041bH
	DW	041bH
	DW	041bH
	DW	041bH
	DW	041bH
	DW	041bH
	DW	041bH
	DW	041bH
	DW	041bH
	DW	041bH
	DW	041bH
	DW	041bH
	DW	041bH
	DW	041bH
	DW	041bH
	DW	041bH
	DW	041bH
	DW	041bH
	DW	041bH
	DW	041bH
	DW	041bH
	DW	041bH
	DW	041bH
	DW	041bH
	DW	041bH
	DW	041bH
	DW	041bH
	DW	041bH
	DW	041bH
	DW	041bH
	DW	041bH
	DW	041bH
	DW	041bH
	DW	041bH
	DW	041bH
	DW	041bH
	DW	041bH
	DW	041bH
	DW	041bH
	DW	041bH
	DW	041bH
	DW	041bH
	DW	041bH
	DW	041bH
	DW	041bH
	DW	041bH
	DW	041bH
	DW	041bH
	DW	041bH
	DW	041bH
	DW	041bH
	DW	041bH
	DW	041bH
	DW	041bH
	DW	041bH
	DW	041bH
	DW	041bH
	DW	041bH
	DW	041bH
	DW	041bH
	DW	041bH
	DW	041bH
	DW	041bH
	DW	041bH
	DW	041bH
	DW	041bH
	DW	041bH
	DW	041bH
	DW	041bH
	DW	041bH
	DW	041bH
	DW	041bH
	DW	041bH
	DW	041aH
	DW	0bH
	DW	01072H
	DW	0107bH
	DW	041bH
	DW	041bH
	DW	041bH
	DW	041bH
	DW	041bH
	DW	041bH
	DW	041bH
	DW	041bH
	DW	041bH
	DW	041bH
	DW	041bH
	DW	041bH
	DW	041cH
	DW	041cH
	DW	041cH
	DW	041cH
	DW	041cH
	DW	041cH
	DW	041cH
	DW	041cH
	DW	041cH
	DW	041cH
	DW	041cH
	DW	041cH
	DW	041bH
	DW	041bH
	DW	041bH
	DW	041bH
	DW	041bH
	DW	041bH
	DW	041bH
	DW	041bH
	DW	041bH
	DW	041bH
	DW	041bH
	DW	041bH
	DW	041bH
	DW	041bH
	DW	041bH
	DW	041bH
	DW	041bH
	DW	041bH
	DW	041bH
	DW	041bH
	DW	041bH
	DW	041bH
	DW	041bH
	DW	041bH
	DW	041bH
	DW	041bH
	DW	041bH
	DW	041bH
	DW	041bH
	DW	041bH
	DW	041bH
	DW	041bH
	DW	041bH
	DW	041bH
	DW	041bH
	DW	041bH
	DW	041bH
	DW	041bH
	DW	041bH
	DW	041bH
	DW	041bH
	DW	041bH
	DW	041bH
	DW	041bH
	DW	041bH
	DW	041bH
	DW	041bH
	DW	041bH
	DW	041bH
	DW	041bH
	DW	041bH
	DW	041bH
	DW	041bH
	DW	041bH
	DW	041bH
	DW	041bH
	DW	041bH
	DW	041aH
	DW	0cH
	DW	01073H
	DW	0107bH
	DW	041cH
	DW	041cH
	DW	041cH
	DW	041cH
	DW	041cH
	DW	041cH
	DW	041cH
	DW	041cH
	DW	041cH
	DW	041cH
	DW	041cH
	DW	041cH
	DW	0417H
	DW	0416H
	DW	0416H
	DW	0416H
	DW	0416H
	DW	0416H
	DW	0416H
	DW	0416H
	DW	0416H
	DW	0416H
	DW	0416H
	DW	0416H
	DW	041aH
	DW	041cH
	DW	041cH
	DW	041cH
	DW	041cH
	DW	041cH
	DW	041cH
	DW	041cH
	DW	041cH
	DW	041cH
	DW	041cH
	DW	041cH
	DW	041cH
	DW	041cH
	DW	041cH
	DW	041cH
	DW	041cH
	DW	041cH
	DW	041cH
	DW	041cH
	DW	041cH
	DW	041cH
	DW	041cH
	DW	041cH
	DW	041cH
	DW	041cH
	DW	041cH
	DW	041cH
	DW	041cH
	DW	041cH
	DW	041cH
	DW	041cH
	DW	041cH
	DW	041cH
	DW	041cH
	DW	041cH
	DW	041cH
	DW	041cH
	DW	041cH
	DW	041cH
	DW	041cH
	DW	041cH
	DW	041cH
	DW	041cH
	DW	041cH
	DW	041cH
	DW	041cH
	DW	041cH
	DW	041cH
	DW	041cH
	DW	041cH
	DW	041cH
	DW	041cH
	DW	041cH
	DW	041cH
	DW	041cH
	DW	041cH
	DW	041bH
	DW	0cH
	DW	01073H
	DW	0107cH
	DW	041cH
	DW	041cH
	DW	041cH
	DW	041cH
	DW	041cH
	DW	041cH
	DW	041cH
	DW	041cH
	DW	041cH
	DW	041dH
	DW	041dH
	DW	0eH
	DW	00H
	DW	00H
	DW	00H
	DW	00H
	DW	00H
	DW	00H
	DW	00H
	DW	00H
	DW	00H
	DW	00H
	DW	00H
	DW	00H
	DW	014H
	DW	041dH
	DW	041cH
	DW	041cH
	DW	041cH
	DW	041cH
	DW	041cH
	DW	041cH
	DW	041cH
	DW	041cH
	DW	041cH
	DW	041cH
	DW	041cH
	DW	041cH
	DW	041cH
	DW	041cH
	DW	041cH
	DW	041cH
	DW	041cH
	DW	041cH
	DW	041cH
	DW	041cH
	DW	041cH
	DW	041cH
	DW	041cH
	DW	041cH
	DW	041cH
	DW	041cH
	DW	041cH
	DW	041cH
	DW	041cH
	DW	041cH
	DW	041cH
	DW	041cH
	DW	041cH
	DW	041cH
	DW	041cH
	DW	041cH
	DW	041cH
	DW	041cH
	DW	041cH
	DW	041cH
	DW	041cH
	DW	041cH
	DW	041cH
	DW	041cH
	DW	041cH
	DW	041cH
	DW	041cH
	DW	041cH
	DW	041cH
	DW	041cH
	DW	041cH
	DW	041cH
	DW	041cH
	DW	041cH
	DW	041cH
	DW	041bH
	DW	0cH
	DW	01073H
	DW	0c7cH
	DW	041dH
	DW	041dH
	DW	041dH
	DW	041dH
	DW	041dH
	DW	041dH
	DW	041dH
	DW	041dH
	DW	041dH
	DW	041eH
	DW	0eH
	DW	00H
	DW	00H
	DW	00H
	DW	00H
	DW	00H
	DW	00H
	DW	00H
	DW	00H
	DW	00H
	DW	00H
	DW	00H
	DW	00H
	DW	0421H
	DW	0434H
	DW	01eH
	DW	041dH
	DW	041dH
	DW	041dH
	DW	041dH
	DW	041dH
	DW	041dH
	DW	041dH
	DW	041dH
	DW	041dH
	DW	041dH
	DW	041dH
	DW	041dH
	DW	041dH
	DW	041dH
	DW	041dH
	DW	041dH
	DW	041dH
	DW	041dH
	DW	041dH
	DW	041dH
	DW	041dH
	DW	041dH
	DW	041dH
	DW	041dH
	DW	041dH
	DW	041dH
	DW	041dH
	DW	041dH
	DW	041dH
	DW	041dH
	DW	041dH
	DW	041dH
	DW	041dH
	DW	041dH
	DW	041dH
	DW	041dH
	DW	041dH
	DW	041dH
	DW	041dH
	DW	041dH
	DW	041dH
	DW	041dH
	DW	041dH
	DW	041dH
	DW	041dH
	DW	041dH
	DW	041dH
	DW	041dH
	DW	041dH
	DW	041dH
	DW	041dH
	DW	041dH
	DW	041dH
	DW	041dH
	DW	041dH
	DW	041cH
	DW	0cH
	DW	0c73H
	DW	0c7dH
	DW	01dH
	DW	01dH
	DW	01dH
	DW	01dH
	DW	01dH
	DW	01dH
	DW	01dH
	DW	01eH
	DW	01eH
	DW	0eH
	DW	00H
	DW	00H
	DW	00H
	DW	00H
	DW	00H
	DW	00H
	DW	00H
	DW	00H
	DW	00H
	DW	00H
	DW	00H
	DW	00H
	DW	00H
	DW	0c63H
	DW	0835H
	DW	01eH
	DW	01dH
	DW	01dH
	DW	01dH
	DW	01dH
	DW	01dH
	DW	01dH
	DW	01dH
	DW	01dH
	DW	01dH
	DW	01dH
	DW	01dH
	DW	01dH
	DW	01dH
	DW	01dH
	DW	01dH
	DW	01dH
	DW	01dH
	DW	01dH
	DW	01dH
	DW	01dH
	DW	01dH
	DW	01dH
	DW	01dH
	DW	01dH
	DW	01dH
	DW	01dH
	DW	01dH
	DW	01dH
	DW	01dH
	DW	01dH
	DW	01dH
	DW	01dH
	DW	01dH
	DW	01dH
	DW	01dH
	DW	01dH
	DW	01dH
	DW	01dH
	DW	01dH
	DW	01dH
	DW	01dH
	DW	01dH
	DW	01dH
	DW	01dH
	DW	01dH
	DW	01dH
	DW	01dH
	DW	01dH
	DW	01dH
	DW	01dH
	DW	01dH
	DW	01dH
	DW	01dH
	DW	01dH
	DW	01dH
	DW	01cH
	DW	0cH
	DW	0c74H
	DW	0c7dH
	DW	01eH
	DW	01eH
	DW	01eH
	DW	01eH
	DW	01eH
	DW	01eH
	DW	01eH
	DW	01fH
	DW	0fH
	DW	00H
	DW	00H
	DW	00H
	DW	00H
	DW	00H
	DW	00H
	DW	00H
	DW	00H
	DW	00H
	DW	00H
	DW	00H
	DW	00H
	DW	00H
	DW	00H
	DW	0c63H
	DW	0436H
	DW	01fH
	DW	01eH
	DW	01eH
	DW	01eH
	DW	01eH
	DW	01eH
	DW	01eH
	DW	01eH
	DW	01eH
	DW	01eH
	DW	01eH
	DW	01eH
	DW	01eH
	DW	01eH
	DW	01eH
	DW	01eH
	DW	01eH
	DW	01eH
	DW	01eH
	DW	01eH
	DW	01eH
	DW	01eH
	DW	01eH
	DW	01eH
	DW	01eH
	DW	01eH
	DW	01eH
	DW	01eH
	DW	01eH
	DW	01eH
	DW	01eH
	DW	01eH
	DW	01eH
	DW	01eH
	DW	01eH
	DW	01eH
	DW	01eH
	DW	01eH
	DW	01eH
	DW	01eH
	DW	01eH
	DW	01eH
	DW	01eH
	DW	01eH
	DW	01eH
	DW	01eH
	DW	01eH
	DW	01eH
	DW	01eH
	DW	01eH
	DW	01eH
	DW	01eH
	DW	01eH
	DW	01eH
	DW	01eH
	DW	01eH
	DW	01dH
	DW	0dH
	DW	0c74H
	DW	0c7eH
	DW	01eH
	DW	01eH
	DW	01eH
	DW	01eH
	DW	01eH
	DW	01fH
	DW	01fH
	DW	0fH
	DW	00H
	DW	00H
	DW	00H
	DW	00H
	DW	00H
	DW	00H
	DW	00H
	DW	00H
	DW	00H
	DW	00H
	DW	00H
	DW	00H
	DW	00H
	DW	00H
	DW	00H
	DW	0c63H
	DW	0436H
	DW	01fH
	DW	01eH
	DW	01eH
	DW	01eH
	DW	01eH
	DW	01eH
	DW	01eH
	DW	01eH
	DW	01eH
	DW	01eH
	DW	01eH
	DW	01eH
	DW	01eH
	DW	01eH
	DW	01eH
	DW	01eH
	DW	01eH
	DW	01eH
	DW	01eH
	DW	01eH
	DW	01eH
	DW	01eH
	DW	01eH
	DW	01eH
	DW	01eH
	DW	01eH
	DW	01eH
	DW	01eH
	DW	01eH
	DW	01eH
	DW	01eH
	DW	01eH
	DW	01eH
	DW	01eH
	DW	01eH
	DW	01eH
	DW	01eH
	DW	01eH
	DW	01eH
	DW	01eH
	DW	01eH
	DW	01eH
	DW	01eH
	DW	01eH
	DW	01eH
	DW	01eH
	DW	01eH
	DW	01eH
	DW	01eH
	DW	01eH
	DW	01eH
	DW	01eH
	DW	01eH
	DW	01eH
	DW	01eH
	DW	01eH
	DW	01dH
	DW	0dH
	DW	0c74H
	DW	0c7eH
	DW	01fH
	DW	01fH
	DW	01fH
	DW	01fH
	DW	01fH
	DW	01fH
	DW	010H
	DW	00H
	DW	00H
	DW	00H
	DW	00H
	DW	00H
	DW	0c63H
	DW	0318cH
	DW	02d6bH
	DW	01ce7H
	DW	00H
	DW	00H
	DW	00H
	DW	01ce7H
	DW	04210H
	DW	01ce7H
	DW	00H
	DW	0c63H
	DW	0436H
	DW	01fH
	DW	01fH
	DW	01fH
	DW	01fH
	DW	01fH
	DW	01fH
	DW	01fH
	DW	01fH
	DW	01fH
	DW	01fH
	DW	01fH
	DW	01fH
	DW	01fH
	DW	01fH
	DW	01fH
	DW	01fH
	DW	01fH
	DW	01fH
	DW	01fH
	DW	01fH
	DW	01fH
	DW	01fH
	DW	01fH
	DW	01fH
	DW	01fH
	DW	01fH
	DW	01fH
	DW	01fH
	DW	01fH
	DW	01fH
	DW	01fH
	DW	01fH
	DW	01fH
	DW	01fH
	DW	01fH
	DW	01fH
	DW	01fH
	DW	01fH
	DW	01fH
	DW	01fH
	DW	01fH
	DW	01fH
	DW	01fH
	DW	01fH
	DW	01fH
	DW	01fH
	DW	01fH
	DW	01fH
	DW	01fH
	DW	01fH
	DW	01fH
	DW	01fH
	DW	01fH
	DW	01fH
	DW	01fH
	DW	01fH
	DW	01eH
	DW	0dH
	DW	0c74H
	DW	0c7eH
	DW	01fH
	DW	01fH
	DW	01fH
	DW	01fH
	DW	01fH
	DW	010H
	DW	00H
	DW	00H
	DW	00H
	DW	00H
	DW	00H
	DW	00H
	DW	0421H
	DW	05294H
	DW	0739cH
	DW	06318H
	DW	0c63H
	DW	00H
	DW	0c63H
	DW	06739H
	DW	06f7bH
	DW	0842H
	DW	00H
	DW	0c63H
	DW	0437H
	DW	01fH
	DW	01fH
	DW	01fH
	DW	01fH
	DW	01fH
	DW	01fH
	DW	01fH
	DW	01fH
	DW	01fH
	DW	01fH
	DW	01fH
	DW	01fH
	DW	01fH
	DW	01fH
	DW	01fH
	DW	01fH
	DW	01fH
	DW	01fH
	DW	01fH
	DW	01fH
	DW	01fH
	DW	01fH
	DW	01fH
	DW	01fH
	DW	01fH
	DW	01fH
	DW	01fH
	DW	01fH
	DW	01fH
	DW	01fH
	DW	01fH
	DW	01fH
	DW	01fH
	DW	01fH
	DW	01fH
	DW	01fH
	DW	01fH
	DW	01fH
	DW	01fH
	DW	01fH
	DW	01fH
	DW	01fH
	DW	01fH
	DW	01fH
	DW	01fH
	DW	01fH
	DW	01fH
	DW	01fH
	DW	01fH
	DW	01fH
	DW	01fH
	DW	01fH
	DW	01fH
	DW	01fH
	DW	01fH
	DW	01fH
	DW	01eH
	DW	0dH
	DW	0c75H
	DW	0c7fH
	DW	01fH
	DW	01fH
	DW	01fH
	DW	01fH
	DW	010H
	DW	00H
	DW	00H
	DW	00H
	DW	00H
	DW	00H
	DW	00H
	DW	00H
	DW	00H
	DW	02529H
	DW	07fffH
	DW	07fffH
	DW	03defH
	DW	00H
	DW	04631H
	DW	07fffH
	DW	0294aH
	DW	00H
	DW	00H
	DW	0c63H
	DW	0437H
	DW	01fH
	DW	01fH
	DW	01fH
	DW	01fH
	DW	01fH
	DW	01fH
	DW	01fH
	DW	01fH
	DW	01fH
	DW	01fH
	DW	01fH
	DW	01fH
	DW	01fH
	DW	01fH
	DW	01fH
	DW	01fH
	DW	01fH
	DW	01fH
	DW	01fH
	DW	01fH
	DW	01fH
	DW	01fH
	DW	01fH
	DW	01fH
	DW	01fH
	DW	01fH
	DW	01fH
	DW	01fH
	DW	01fH
	DW	01fH
	DW	01fH
	DW	01fH
	DW	01fH
	DW	01fH
	DW	01fH
	DW	01fH
	DW	01fH
	DW	01fH
	DW	01fH
	DW	01fH
	DW	01fH
	DW	01fH
	DW	01fH
	DW	01fH
	DW	01fH
	DW	01fH
	DW	01fH
	DW	01fH
	DW	01fH
	DW	01fH
	DW	01fH
	DW	01fH
	DW	01fH
	DW	01fH
	DW	01fH
	DW	01fH
	DW	01eH
	DW	0dH
	DW	0c75H
	DW	0c7fH
	DW	01fH
	DW	01fH
	DW	01fH
	DW	011H
	DW	00H
	DW	00H
	DW	00H
	DW	00H
	DW	00H
	DW	00H
	DW	00H
	DW	00H
	DW	00H
	DW	00H
	DW	05ad6H
	DW	07fffH
	DW	06739H
	DW	035adH
	DW	07bdeH
	DW	056b5H
	DW	00H
	DW	00H
	DW	00H
	DW	0c63H
	DW	0437H
	DW	01fH
	DW	01fH
	DW	01fH
	DW	01fH
	DW	01fH
	DW	01fH
	DW	01fH
	DW	01fH
	DW	01fH
	DW	01fH
	DW	01fH
	DW	01fH
	DW	01fH
	DW	01fH
	DW	01fH
	DW	01fH
	DW	01fH
	DW	01fH
	DW	01fH
	DW	01fH
	DW	01fH
	DW	01fH
	DW	01fH
	DW	01fH
	DW	01fH
	DW	01fH
	DW	01fH
	DW	01fH
	DW	01fH
	DW	01fH
	DW	01fH
	DW	01fH
	DW	01fH
	DW	01fH
	DW	01fH
	DW	01fH
	DW	01fH
	DW	01fH
	DW	01fH
	DW	01fH
	DW	01fH
	DW	01fH
	DW	01fH
	DW	01fH
	DW	01fH
	DW	01fH
	DW	01fH
	DW	01fH
	DW	01fH
	DW	01fH
	DW	01fH
	DW	01fH
	DW	01fH
	DW	01fH
	DW	01fH
	DW	01fH
	DW	01eH
	DW	0eH
	DW	0c75H
	DW	0c7fH
	DW	01fH
	DW	01fH
	DW	011H
	DW	00H
	DW	00H
	DW	00H
	DW	00H
	DW	00H
	DW	00H
	DW	00H
	DW	00H
	DW	00H
	DW	00H
	DW	00H
	DW	02108H
	DW	07fffH
	DW	07bdeH
	DW	07fffH
	DW	077bdH
	DW	01084H
	DW	00H
	DW	00H
	DW	00H
	DW	0c63H
	DW	0437H
	DW	01fH
	DW	01fH
	DW	01fH
	DW	01fH
	DW	01fH
	DW	01fH
	DW	01fH
	DW	01fH
	DW	01fH
	DW	01fH
	DW	01fH
	DW	01fH
	DW	01fH
	DW	01fH
	DW	01fH
	DW	01fH
	DW	01fH
	DW	01fH
	DW	01fH
	DW	01fH
	DW	01fH
	DW	01fH
	DW	01fH
	DW	01fH
	DW	01fH
	DW	01fH
	DW	01fH
	DW	01fH
	DW	01fH
	DW	01fH
	DW	01fH
	DW	01fH
	DW	01fH
	DW	01fH
	DW	01fH
	DW	01fH
	DW	01fH
	DW	01fH
	DW	01fH
	DW	01fH
	DW	01fH
	DW	01fH
	DW	01fH
	DW	01fH
	DW	01fH
	DW	01fH
	DW	01fH
	DW	01fH
	DW	01fH
	DW	01fH
	DW	01fH
	DW	01fH
	DW	01fH
	DW	01fH
	DW	01fH
	DW	01fH
	DW	01eH
	DW	0eH
	DW	0c75H
	DW	0c7fH
	DW	01fH
	DW	011H
	DW	00H
	DW	00H
	DW	00H
	DW	00H
	DW	00H
	DW	00H
	DW	00H
	DW	00H
	DW	00H
	DW	00H
	DW	00H
	DW	00H
	DW	00H
	DW	04631H
	DW	07fffH
	DW	07fffH
	DW	04631H
	DW	00H
	DW	00H
	DW	00H
	DW	00H
	DW	0c63H
	DW	0437H
	DW	01fH
	DW	01fH
	DW	01fH
	DW	01fH
	DW	01fH
	DW	01fH
	DW	01fH
	DW	01fH
	DW	01fH
	DW	01fH
	DW	01fH
	DW	01fH
	DW	01fH
	DW	01fH
	DW	01fH
	DW	01fH
	DW	01fH
	DW	01fH
	DW	01fH
	DW	01fH
	DW	01fH
	DW	01fH
	DW	01fH
	DW	01fH
	DW	01fH
	DW	01fH
	DW	01fH
	DW	01fH
	DW	01fH
	DW	01fH
	DW	01fH
	DW	01fH
	DW	01fH
	DW	01fH
	DW	01fH
	DW	01fH
	DW	01fH
	DW	01fH
	DW	01fH
	DW	01fH
	DW	01fH
	DW	01fH
	DW	01fH
	DW	01fH
	DW	01fH
	DW	01fH
	DW	01fH
	DW	01fH
	DW	01fH
	DW	01fH
	DW	01fH
	DW	01fH
	DW	01fH
	DW	01fH
	DW	01fH
	DW	01fH
	DW	01eH
	DW	0eH
	DW	0c75H
	DW	0c7fH
	DW	01dH
	DW	04H
	DW	00H
	DW	00H
	DW	00H
	DW	00H
	DW	00H
	DW	00H
	DW	00H
	DW	00H
	DW	00H
	DW	00H
	DW	00H
	DW	00H
	DW	00H
	DW	02d6bH
	DW	07bdeH
	DW	07fffH
	DW	05ad6H
	DW	00H
	DW	00H
	DW	00H
	DW	00H
	DW	0c63H
	DW	0437H
	DW	01fH
	DW	01fH
	DW	01fH
	DW	01fH
	DW	01fH
	DW	01fH
	DW	01fH
	DW	01fH
	DW	01fH
	DW	01fH
	DW	01fH
	DW	01fH
	DW	01fH
	DW	01fH
	DW	01fH
	DW	01fH
	DW	01fH
	DW	01fH
	DW	01fH
	DW	01fH
	DW	01fH
	DW	01fH
	DW	01fH
	DW	01fH
	DW	01fH
	DW	01fH
	DW	01fH
	DW	01fH
	DW	01fH
	DW	01fH
	DW	01fH
	DW	01fH
	DW	01fH
	DW	01fH
	DW	01fH
	DW	01fH
	DW	01fH
	DW	01fH
	DW	01fH
	DW	01fH
	DW	01fH
	DW	01fH
	DW	01fH
	DW	01fH
	DW	01fH
	DW	01fH
	DW	01fH
	DW	01fH
	DW	01fH
	DW	01fH
	DW	01fH
	DW	01fH
	DW	01fH
	DW	01fH
	DW	01fH
	DW	01fH
	DW	01eH
	DW	0eH
	DW	0c75H
	DW	0c7fH
	DW	01fH
	DW	018H
	DW	0845H
	DW	0841H
	DW	00H
	DW	00H
	DW	00H
	DW	00H
	DW	00H
	DW	00H
	DW	00H
	DW	00H
	DW	00H
	DW	00H
	DW	0c63H
	DW	05ef7H
	DW	07fffH
	DW	07fffH
	DW	07bdeH
	DW	02108H
	DW	00H
	DW	00H
	DW	00H
	DW	0c63H
	DW	0437H
	DW	01fH
	DW	01fH
	DW	01fH
	DW	01fH
	DW	01fH
	DW	01fH
	DW	01fH
	DW	01fH
	DW	01fH
	DW	01fH
	DW	01fH
	DW	01fH
	DW	01fH
	DW	01fH
	DW	01fH
	DW	01fH
	DW	01fH
	DW	01fH
	DW	01fH
	DW	01fH
	DW	01fH
	DW	01fH
	DW	01fH
	DW	01fH
	DW	01fH
	DW	01fH
	DW	01fH
	DW	01fH
	DW	01fH
	DW	01fH
	DW	01fH
	DW	01fH
	DW	01fH
	DW	01fH
	DW	01fH
	DW	01fH
	DW	01fH
	DW	01fH
	DW	01fH
	DW	01fH
	DW	01fH
	DW	01fH
	DW	01fH
	DW	01fH
	DW	01fH
	DW	01fH
	DW	01fH
	DW	01fH
	DW	01fH
	DW	01fH
	DW	01fH
	DW	01fH
	DW	01fH
	DW	01fH
	DW	01fH
	DW	01fH
	DW	01eH
	DW	0eH
	DW	0c75H
	DW	0c7fH
	DW	01fH
	DW	01fH
	DW	0439H
	DW	0c66H
	DW	0841H
	DW	00H
	DW	00H
	DW	00H
	DW	00H
	DW	00H
	DW	00H
	DW	00H
	DW	00H
	DW	00H
	DW	04210H
	DW	07fffH
	DW	039ceH
	DW	0739cH
	DW	07fffH
	DW	05ad6H
	DW	00H
	DW	00H
	DW	00H
	DW	0c63H
	DW	0437H
	DW	01fH
	DW	01fH
	DW	01fH
	DW	01fH
	DW	01fH
	DW	01fH
	DW	01fH
	DW	01fH
	DW	01fH
	DW	01fH
	DW	01fH
	DW	01fH
	DW	01fH
	DW	01fH
	DW	01fH
	DW	01fH
	DW	01fH
	DW	01fH
	DW	01fH
	DW	01fH
	DW	01fH
	DW	01fH
	DW	01fH
	DW	01fH
	DW	01fH
	DW	01fH
	DW	01fH
	DW	01fH
	DW	01fH
	DW	01fH
	DW	01fH
	DW	01fH
	DW	01fH
	DW	01fH
	DW	01fH
	DW	01fH
	DW	01fH
	DW	01fH
	DW	01fH
	DW	01fH
	DW	01fH
	DW	01fH
	DW	01fH
	DW	01fH
	DW	01fH
	DW	01fH
	DW	01fH
	DW	01fH
	DW	01fH
	DW	01fH
	DW	01fH
	DW	01fH
	DW	01fH
	DW	01fH
	DW	01fH
	DW	01fH
	DW	01eH
	DW	0eH
	DW	0c75H
	DW	0c7fH
	DW	01fH
	DW	01fH
	DW	01fH
	DW	0439H
	DW	0c65H
	DW	0841H
	DW	00H
	DW	00H
	DW	00H
	DW	00H
	DW	00H
	DW	00H
	DW	00H
	DW	018c6H
	DW	07bdeH
	DW	05ef7H
	DW	00H
	DW	039ceH
	DW	07fffH
	DW	07fffH
	DW	0294aH
	DW	00H
	DW	00H
	DW	0c63H
	DW	0437H
	DW	01fH
	DW	01fH
	DW	01fH
	DW	01fH
	DW	01fH
	DW	01fH
	DW	01fH
	DW	01fH
	DW	01fH
	DW	01fH
	DW	01fH
	DW	01fH
	DW	01fH
	DW	01fH
	DW	01fH
	DW	01fH
	DW	01fH
	DW	01fH
	DW	01fH
	DW	01fH
	DW	01fH
	DW	01fH
	DW	01fH
	DW	01fH
	DW	01fH
	DW	01fH
	DW	01fH
	DW	01fH
	DW	01fH
	DW	01fH
	DW	01fH
	DW	01fH
	DW	01fH
	DW	01fH
	DW	01fH
	DW	01fH
	DW	01fH
	DW	01fH
	DW	01fH
	DW	01fH
	DW	01fH
	DW	01fH
	DW	01fH
	DW	01fH
	DW	01fH
	DW	01fH
	DW	01fH
	DW	01fH
	DW	01fH
	DW	01fH
	DW	01fH
	DW	01fH
	DW	01fH
	DW	01fH
	DW	01fH
	DW	01fH
	DW	01eH
	DW	0eH
	DW	0c75H
	DW	0c7fH
	DW	01fH
	DW	01fH
	DW	01fH
	DW	01fH
	DW	0438H
	DW	0c65H
	DW	0841H
	DW	00H
	DW	00H
	DW	00H
	DW	00H
	DW	00H
	DW	0842H
	DW	06318H
	DW	07fffH
	DW	018c6H
	DW	00H
	DW	0842H
	DW	0739cH
	DW	07fffH
	DW	06f7bH
	DW	0421H
	DW	00H
	DW	0c63H
	DW	0437H
	DW	01fH
	DW	01fH
	DW	01fH
	DW	01fH
	DW	01fH
	DW	01fH
	DW	01fH
	DW	01fH
	DW	01fH
	DW	01fH
	DW	01fH
	DW	01fH
	DW	01fH
	DW	01fH
	DW	01fH
	DW	01fH
	DW	01fH
	DW	01fH
	DW	01fH
	DW	01fH
	DW	01fH
	DW	01fH
	DW	01fH
	DW	01fH
	DW	01fH
	DW	01fH
	DW	01fH
	DW	01fH
	DW	01fH
	DW	01fH
	DW	01fH
	DW	01fH
	DW	01fH
	DW	01fH
	DW	01fH
	DW	01fH
	DW	01fH
	DW	01fH
	DW	01fH
	DW	01fH
	DW	01fH
	DW	01fH
	DW	01fH
	DW	01fH
	DW	01fH
	DW	01fH
	DW	01fH
	DW	01fH
	DW	01fH
	DW	01fH
	DW	01fH
	DW	01fH
	DW	01fH
	DW	01fH
	DW	01fH
	DW	01fH
	DW	01eH
	DW	0eH
	DW	0c75H
	DW	0c7fH
	DW	01fH
	DW	01fH
	DW	01fH
	DW	01fH
	DW	01fH
	DW	0438H
	DW	0c65H
	DW	0841H
	DW	00H
	DW	00H
	DW	00H
	DW	00H
	DW	02d6bH
	DW	06f7bH
	DW	04210H
	DW	00H
	DW	00H
	DW	00H
	DW	0318cH
	DW	06b5aH
	DW	06f7bH
	DW	0294aH
	DW	00H
	DW	0c63H
	DW	0437H
	DW	01fH
	DW	01fH
	DW	01fH
	DW	01fH
	DW	01fH
	DW	01fH
	DW	01fH
	DW	01fH
	DW	01fH
	DW	01fH
	DW	01fH
	DW	01fH
	DW	01fH
	DW	01fH
	DW	01fH
	DW	01fH
	DW	01fH
	DW	01fH
	DW	01fH
	DW	01fH
	DW	01fH
	DW	01fH
	DW	01fH
	DW	01fH
	DW	01fH
	DW	01fH
	DW	01fH
	DW	01fH
	DW	01fH
	DW	01fH
	DW	01fH
	DW	01fH
	DW	01fH
	DW	01fH
	DW	01fH
	DW	01fH
	DW	01fH
	DW	01fH
	DW	01fH
	DW	01fH
	DW	01fH
	DW	01fH
	DW	01fH
	DW	01fH
	DW	01fH
	DW	01fH
	DW	01fH
	DW	01fH
	DW	01fH
	DW	01fH
	DW	01fH
	DW	01fH
	DW	01fH
	DW	01fH
	DW	01fH
	DW	01fH
	DW	01eH
	DW	0eH
	DW	0c75H
	DW	0c7fH
	DW	01fH
	DW	01fH
	DW	01fH
	DW	01fH
	DW	01fH
	DW	01fH
	DW	0438H
	DW	0c65H
	DW	0841H
	DW	00H
	DW	00H
	DW	00H
	DW	0842H
	DW	0421H
	DW	00H
	DW	00H
	DW	00H
	DW	00H
	DW	00H
	DW	0421H
	DW	0421H
	DW	0421H
	DW	00H
	DW	0c63H
	DW	0437H
	DW	01fH
	DW	01fH
	DW	01fH
	DW	01fH
	DW	01fH
	DW	01fH
	DW	01fH
	DW	01fH
	DW	01fH
	DW	01fH
	DW	01fH
	DW	01fH
	DW	01fH
	DW	01fH
	DW	01fH
	DW	01fH
	DW	01fH
	DW	01fH
	DW	01fH
	DW	01fH
	DW	01fH
	DW	01fH
	DW	01fH
	DW	01fH
	DW	01fH
	DW	01fH
	DW	01fH
	DW	01fH
	DW	01fH
	DW	01fH
	DW	01fH
	DW	01fH
	DW	01fH
	DW	01fH
	DW	01fH
	DW	01fH
	DW	01fH
	DW	01fH
	DW	01fH
	DW	01fH
	DW	01fH
	DW	01fH
	DW	01fH
	DW	01fH
	DW	01fH
	DW	01fH
	DW	01fH
	DW	01fH
	DW	01fH
	DW	01fH
	DW	01fH
	DW	01fH
	DW	01fH
	DW	01fH
	DW	01fH
	DW	01fH
	DW	01eH
	DW	0eH
	DW	0c75H
	DW	0c7fH
	DW	01fH
	DW	01fH
	DW	01fH
	DW	01fH
	DW	01fH
	DW	01fH
	DW	01fH
	DW	0437H
	DW	0c64H
	DW	0841H
	DW	00H
	DW	00H
	DW	00H
	DW	00H
	DW	00H
	DW	00H
	DW	00H
	DW	00H
	DW	00H
	DW	00H
	DW	00H
	DW	00H
	DW	00H
	DW	0c63H
	DW	0437H
	DW	01fH
	DW	01fH
	DW	01fH
	DW	01fH
	DW	01fH
	DW	01fH
	DW	01fH
	DW	01fH
	DW	01fH
	DW	01fH
	DW	01fH
	DW	01fH
	DW	01fH
	DW	01fH
	DW	01fH
	DW	01fH
	DW	01fH
	DW	01fH
	DW	01fH
	DW	01fH
	DW	01fH
	DW	01fH
	DW	01fH
	DW	01fH
	DW	01fH
	DW	01fH
	DW	01fH
	DW	01fH
	DW	01fH
	DW	01fH
	DW	01fH
	DW	01fH
	DW	01fH
	DW	01fH
	DW	01fH
	DW	01fH
	DW	01fH
	DW	01fH
	DW	01fH
	DW	01fH
	DW	01fH
	DW	01fH
	DW	01fH
	DW	01fH
	DW	01fH
	DW	01fH
	DW	01fH
	DW	01fH
	DW	01fH
	DW	01fH
	DW	01fH
	DW	01fH
	DW	01fH
	DW	01fH
	DW	01fH
	DW	01fH
	DW	01eH
	DW	0eH
	DW	0c75H
	DW	0c7fH
	DW	01fH
	DW	01fH
	DW	01fH
	DW	01fH
	DW	01fH
	DW	01fH
	DW	01fH
	DW	01fH
	DW	0437H
	DW	0c65H
	DW	0841H
	DW	00H
	DW	00H
	DW	00H
	DW	00H
	DW	00H
	DW	00H
	DW	00H
	DW	00H
	DW	00H
	DW	00H
	DW	00H
	DW	00H
	DW	0c63H
	DW	0437H
	DW	01fH
	DW	01fH
	DW	01fH
	DW	01fH
	DW	01fH
	DW	01fH
	DW	01fH
	DW	01fH
	DW	01fH
	DW	01fH
	DW	01fH
	DW	01fH
	DW	01fH
	DW	01fH
	DW	01fH
	DW	01fH
	DW	01fH
	DW	01fH
	DW	01fH
	DW	01fH
	DW	01fH
	DW	01fH
	DW	01fH
	DW	01fH
	DW	01fH
	DW	01fH
	DW	01fH
	DW	01fH
	DW	01fH
	DW	01fH
	DW	01fH
	DW	01fH
	DW	01fH
	DW	01fH
	DW	01fH
	DW	01fH
	DW	01fH
	DW	01fH
	DW	01fH
	DW	01fH
	DW	01fH
	DW	01fH
	DW	01fH
	DW	01fH
	DW	01fH
	DW	01fH
	DW	01fH
	DW	01fH
	DW	01fH
	DW	01fH
	DW	01fH
	DW	01fH
	DW	01fH
	DW	01fH
	DW	01fH
	DW	01fH
	DW	01eH
	DW	0eH
	DW	0c75H
	DW	0c7fH
	DW	01fH
	DW	01fH
	DW	01fH
	DW	01fH
	DW	01fH
	DW	01fH
	DW	01fH
	DW	01fH
	DW	01fH
	DW	0437H
	DW	0c64H
	DW	0841H
	DW	00H
	DW	00H
	DW	00H
	DW	00H
	DW	00H
	DW	00H
	DW	00H
	DW	00H
	DW	00H
	DW	00H
	DW	00H
	DW	0c63H
	DW	0437H
	DW	01fH
	DW	01fH
	DW	01fH
	DW	01fH
	DW	01fH
	DW	01fH
	DW	01fH
	DW	01fH
	DW	01fH
	DW	01fH
	DW	01fH
	DW	01fH
	DW	01fH
	DW	01fH
	DW	01fH
	DW	01fH
	DW	01fH
	DW	01fH
	DW	01fH
	DW	01fH
	DW	01fH
	DW	01fH
	DW	01fH
	DW	01fH
	DW	01fH
	DW	01fH
	DW	01fH
	DW	01fH
	DW	01fH
	DW	01fH
	DW	01fH
	DW	01fH
	DW	01fH
	DW	01fH
	DW	01fH
	DW	01fH
	DW	01fH
	DW	01fH
	DW	01fH
	DW	01fH
	DW	01fH
	DW	01fH
	DW	01fH
	DW	01fH
	DW	01fH
	DW	01fH
	DW	01fH
	DW	01fH
	DW	01fH
	DW	01fH
	DW	01fH
	DW	01fH
	DW	01fH
	DW	01fH
	DW	01fH
	DW	01fH
	DW	01eH
	DW	0eH
	DW	0c75H
	DW	0c7fH
	DW	01fH
	DW	01fH
	DW	01fH
	DW	01fH
	DW	01fH
	DW	01fH
	DW	01fH
	DW	01fH
	DW	01fH
	DW	01fH
	DW	0436H
	DW	01085H
	DW	014a3H
	DW	01083H
	DW	01083H
	DW	01083H
	DW	01083H
	DW	01083H
	DW	01083H
	DW	01083H
	DW	01083H
	DW	01083H
	DW	014a4H
	DW	01ce5H
	DW	0857H
	DW	01fH
	DW	01fH
	DW	01fH
	DW	01fH
	DW	01fH
	DW	01fH
	DW	01fH
	DW	01fH
	DW	01fH
	DW	01fH
	DW	01fH
	DW	01fH
	DW	01fH
	DW	01fH
	DW	01fH
	DW	01fH
	DW	01fH
	DW	01fH
	DW	01fH
	DW	01fH
	DW	01fH
	DW	01fH
	DW	01fH
	DW	01fH
	DW	01fH
	DW	01fH
	DW	01fH
	DW	01fH
	DW	01fH
	DW	01fH
	DW	01fH
	DW	01fH
	DW	01fH
	DW	01fH
	DW	01fH
	DW	01fH
	DW	01fH
	DW	01fH
	DW	01fH
	DW	01fH
	DW	01fH
	DW	01fH
	DW	01fH
	DW	01fH
	DW	01fH
	DW	01fH
	DW	01fH
	DW	01fH
	DW	01fH
	DW	01fH
	DW	01fH
	DW	01fH
	DW	01fH
	DW	01fH
	DW	01fH
	DW	01fH
	DW	01eH
	DW	0eH
	DW	0c75H
	DW	0c7fH
	DW	01fH
	DW	01fH
	DW	01fH
	DW	01fH
	DW	01fH
	DW	01fH
	DW	01fH
	DW	01fH
	DW	01fH
	DW	01fH
	DW	01fH
	DW	0858H
	DW	0210dH
	DW	0294dH
	DW	0294eH
	DW	0294eH
	DW	0294eH
	DW	0294eH
	DW	0294eH
	DW	0294eH
	DW	0294eH
	DW	0294eH
	DW	0294eH
	DW	0294fH
	DW	085aH
	DW	01fH
	DW	01fH
	DW	01fH
	DW	01fH
	DW	01fH
	DW	01fH
	DW	01fH
	DW	01fH
	DW	01fH
	DW	01fH
	DW	01fH
	DW	01fH
	DW	01fH
	DW	01fH
	DW	01fH
	DW	01fH
	DW	01fH
	DW	01fH
	DW	01fH
	DW	01fH
	DW	01fH
	DW	01fH
	DW	01fH
	DW	01fH
	DW	01fH
	DW	01fH
	DW	01fH
	DW	01fH
	DW	01fH
	DW	01fH
	DW	01fH
	DW	01fH
	DW	01fH
	DW	01fH
	DW	01fH
	DW	01fH
	DW	01fH
	DW	01fH
	DW	01fH
	DW	01fH
	DW	01fH
	DW	01fH
	DW	01fH
	DW	01fH
	DW	01fH
	DW	01fH
	DW	01fH
	DW	01fH
	DW	01fH
	DW	01fH
	DW	01fH
	DW	01fH
	DW	01fH
	DW	01fH
	DW	01fH
	DW	01fH
	DW	01eH
	DW	0eH
	DW	0c75H
	DW	0c7fH
	DW	01fH
	DW	01fH
	DW	01fH
	DW	01fH
	DW	01fH
	DW	01fH
	DW	01fH
	DW	01fH
	DW	01fH
	DW	01fH
	DW	01fH
	DW	01fH
	DW	01fH
	DW	01fH
	DW	01fH
	DW	01fH
	DW	01fH
	DW	01fH
	DW	01fH
	DW	01fH
	DW	01fH
	DW	043fH
	DW	043fH
	DW	01fH
	DW	01fH
	DW	01fH
	DW	01fH
	DW	01fH
	DW	01fH
	DW	01fH
	DW	01fH
	DW	01fH
	DW	01fH
	DW	01fH
	DW	01fH
	DW	01fH
	DW	01fH
	DW	01fH
	DW	01fH
	DW	01fH
	DW	01fH
	DW	01fH
	DW	01fH
	DW	01fH
	DW	01fH
	DW	01fH
	DW	01fH
	DW	01fH
	DW	01fH
	DW	01fH
	DW	01fH
	DW	01fH
	DW	01fH
	DW	01fH
	DW	01fH
	DW	01fH
	DW	01fH
	DW	01fH
	DW	01fH
	DW	01fH
	DW	01fH
	DW	01fH
	DW	01fH
	DW	01fH
	DW	01fH
	DW	01fH
	DW	01fH
	DW	01fH
	DW	01fH
	DW	01fH
	DW	01fH
	DW	01fH
	DW	01fH
	DW	01fH
	DW	01fH
	DW	01fH
	DW	01fH
	DW	01fH
	DW	01fH
	DW	01fH
	DW	01fH
	DW	01eH
	DW	0eH
	DW	0c75H
	DW	0c7fH
	DW	01fH
	DW	01fH
	DW	01fH
	DW	01fH
	DW	01fH
	DW	01fH
	DW	01fH
	DW	01fH
	DW	01fH
	DW	01fH
	DW	01fH
	DW	01fH
	DW	01fH
	DW	01fH
	DW	01fH
	DW	01fH
	DW	01fH
	DW	01fH
	DW	01fH
	DW	01fH
	DW	01fH
	DW	01fH
	DW	01fH
	DW	01fH
	DW	01fH
	DW	01fH
	DW	01fH
	DW	01fH
	DW	01fH
	DW	01fH
	DW	01fH
	DW	01fH
	DW	01fH
	DW	01fH
	DW	01fH
	DW	01fH
	DW	01fH
	DW	01fH
	DW	01fH
	DW	01fH
	DW	01fH
	DW	01fH
	DW	01fH
	DW	01fH
	DW	01fH
	DW	01fH
	DW	01fH
	DW	01fH
	DW	01fH
	DW	01fH
	DW	01fH
	DW	01fH
	DW	01fH
	DW	01fH
	DW	01fH
	DW	01fH
	DW	01fH
	DW	01fH
	DW	01fH
	DW	01fH
	DW	01fH
	DW	01fH
	DW	01fH
	DW	01fH
	DW	01fH
	DW	01fH
	DW	01fH
	DW	01fH
	DW	01fH
	DW	01fH
	DW	01fH
	DW	01fH
	DW	01fH
	DW	01fH
	DW	01fH
	DW	01fH
	DW	01fH
	DW	01fH
	DW	01fH
	DW	01fH
	DW	01fH
	DW	01eH
	DW	0dH
	DW	0c74H
	DW	0c7eH
	DW	01eH
	DW	01eH
	DW	01eH
	DW	01eH
	DW	01eH
	DW	01eH
	DW	01eH
	DW	01eH
	DW	01eH
	DW	01eH
	DW	01eH
	DW	01eH
	DW	01eH
	DW	01eH
	DW	01eH
	DW	01eH
	DW	01eH
	DW	01eH
	DW	01eH
	DW	01eH
	DW	01eH
	DW	01eH
	DW	01eH
	DW	01eH
	DW	01eH
	DW	01eH
	DW	01eH
	DW	01eH
	DW	01eH
	DW	01eH
	DW	01eH
	DW	01eH
	DW	01eH
	DW	01eH
	DW	01eH
	DW	01eH
	DW	01eH
	DW	01eH
	DW	01eH
	DW	01eH
	DW	01eH
	DW	01eH
	DW	01eH
	DW	01eH
	DW	01eH
	DW	01eH
	DW	01eH
	DW	01eH
	DW	01eH
	DW	01eH
	DW	01eH
	DW	01eH
	DW	01eH
	DW	01eH
	DW	01eH
	DW	01eH
	DW	01eH
	DW	01eH
	DW	01eH
	DW	01eH
	DW	01eH
	DW	01eH
	DW	01eH
	DW	01eH
	DW	01eH
	DW	01eH
	DW	01eH
	DW	01eH
	DW	01eH
	DW	01eH
	DW	01eH
	DW	01eH
	DW	01eH
	DW	01eH
	DW	01eH
	DW	01eH
	DW	01eH
	DW	01eH
	DW	01eH
	DW	01eH
	DW	01fH
	DW	01dH
	DW	0dH
	DW	0c73H
	DW	0c7dH
	DW	01dH
	DW	01dH
	DW	01dH
	DW	01dH
	DW	01dH
	DW	01dH
	DW	01dH
	DW	01dH
	DW	01dH
	DW	01dH
	DW	01dH
	DW	01dH
	DW	01dH
	DW	01dH
	DW	01dH
	DW	01dH
	DW	01dH
	DW	01dH
	DW	01dH
	DW	01dH
	DW	01dH
	DW	01dH
	DW	01dH
	DW	01dH
	DW	01dH
	DW	01dH
	DW	01dH
	DW	01dH
	DW	01dH
	DW	01dH
	DW	01dH
	DW	01dH
	DW	01dH
	DW	01dH
	DW	01dH
	DW	01dH
	DW	01dH
	DW	01dH
	DW	01dH
	DW	01dH
	DW	01dH
	DW	01dH
	DW	01dH
	DW	01dH
	DW	01dH
	DW	01dH
	DW	01dH
	DW	01dH
	DW	01dH
	DW	01dH
	DW	01dH
	DW	01dH
	DW	01dH
	DW	01dH
	DW	01dH
	DW	01dH
	DW	01dH
	DW	01dH
	DW	01dH
	DW	01dH
	DW	01dH
	DW	01dH
	DW	01dH
	DW	01dH
	DW	01dH
	DW	01dH
	DW	01dH
	DW	01dH
	DW	01dH
	DW	01dH
	DW	01dH
	DW	01dH
	DW	01dH
	DW	01dH
	DW	01dH
	DW	01dH
	DW	01dH
	DW	01dH
	DW	01dH
	DW	01dH
	DW	01dH
	DW	01cH
	DW	0cH
	DW	0c73H
	DW	0c7bH
	DW	01bH
	DW	01bH
	DW	01bH
	DW	01bH
	DW	01bH
	DW	01bH
	DW	01bH
	DW	01bH
	DW	01bH
	DW	01bH
	DW	01bH
	DW	01bH
	DW	01bH
	DW	01bH
	DW	01bH
	DW	01bH
	DW	01bH
	DW	01bH
	DW	01bH
	DW	01bH
	DW	01bH
	DW	01bH
	DW	01bH
	DW	01bH
	DW	01bH
	DW	01bH
	DW	01bH
	DW	01bH
	DW	01bH
	DW	01bH
	DW	01bH
	DW	01bH
	DW	01bH
	DW	01bH
	DW	01bH
	DW	01bH
	DW	01bH
	DW	01bH
	DW	01bH
	DW	01bH
	DW	01bH
	DW	01bH
	DW	01bH
	DW	01bH
	DW	01bH
	DW	01bH
	DW	01bH
	DW	01bH
	DW	01bH
	DW	01bH
	DW	01bH
	DW	01bH
	DW	01bH
	DW	01bH
	DW	01bH
	DW	01bH
	DW	01bH
	DW	01bH
	DW	01bH
	DW	01bH
	DW	01bH
	DW	01bH
	DW	01bH
	DW	01bH
	DW	01bH
	DW	01bH
	DW	01bH
	DW	01bH
	DW	01bH
	DW	01bH
	DW	01bH
	DW	01bH
	DW	01bH
	DW	01bH
	DW	01bH
	DW	01bH
	DW	01bH
	DW	01bH
	DW	01bH
	DW	01bH
	DW	01cH
	DW	01aH
	DW	0cH
	DW	0430H
	DW	043aH
	DW	01aH
	DW	01aH
	DW	01aH
	DW	01aH
	DW	01aH
	DW	01aH
	DW	01aH
	DW	01aH
	DW	01aH
	DW	01aH
	DW	01aH
	DW	01aH
	DW	01aH
	DW	01aH
	DW	01aH
	DW	01aH
	DW	01aH
	DW	01aH
	DW	01aH
	DW	01aH
	DW	01aH
	DW	01aH
	DW	01aH
	DW	01aH
	DW	01aH
	DW	01aH
	DW	01aH
	DW	01aH
	DW	01aH
	DW	01aH
	DW	01aH
	DW	01aH
	DW	01aH
	DW	01aH
	DW	01aH
	DW	01aH
	DW	01aH
	DW	01aH
	DW	01aH
	DW	01aH
	DW	01aH
	DW	01aH
	DW	01aH
	DW	01aH
	DW	01aH
	DW	01aH
	DW	01aH
	DW	01aH
	DW	01aH
	DW	01aH
	DW	01aH
	DW	01aH
	DW	01aH
	DW	01aH
	DW	01aH
	DW	01aH
	DW	01aH
	DW	01aH
	DW	01aH
	DW	01aH
	DW	01aH
	DW	01aH
	DW	01aH
	DW	01aH
	DW	01aH
	DW	01aH
	DW	01aH
	DW	01aH
	DW	01aH
	DW	01aH
	DW	01aH
	DW	01aH
	DW	01aH
	DW	01aH
	DW	01aH
	DW	01aH
	DW	01aH
	DW	01aH
	DW	01aH
	DW	01aH
	DW	01aH
	DW	017H
	DW	09H
	DW	06H
	DW	013H
	DW	017H
	DW	018H
	DW	019H
	DW	019H
	DW	019H
	DW	019H
	DW	019H
	DW	019H
	DW	019H
	DW	019H
	DW	019H
	DW	019H
	DW	019H
	DW	019H
	DW	019H
	DW	019H
	DW	019H
	DW	019H
	DW	019H
	DW	019H
	DW	019H
	DW	019H
	DW	019H
	DW	019H
	DW	019H
	DW	019H
	DW	019H
	DW	019H
	DW	019H
	DW	019H
	DW	019H
	DW	019H
	DW	019H
	DW	019H
	DW	019H
	DW	019H
	DW	019H
	DW	019H
	DW	019H
	DW	019H
	DW	019H
	DW	019H
	DW	019H
	DW	019H
	DW	019H
	DW	019H
	DW	019H
	DW	019H
	DW	019H
	DW	019H
	DW	019H
	DW	019H
	DW	019H
	DW	019H
	DW	019H
	DW	019H
	DW	019H
	DW	019H
	DW	019H
	DW	019H
	DW	019H
	DW	019H
	DW	019H
	DW	019H
	DW	019H
	DW	019H
	DW	019H
	DW	019H
	DW	019H
	DW	019H
	DW	019H
	DW	019H
	DW	019H
	DW	019H
	DW	019H
	DW	019H
	DW	019H
	DW	019H
	DW	019H
	DW	018H
	DW	016H
	DW	0eH
	DW	03H
	DW	00H
	DW	04H
	DW	0aH
	DW	0cH
	DW	0dH
	DW	0dH
	DW	0dH
	DW	0dH
	DW	0dH
	DW	0dH
	DW	0dH
	DW	0dH
	DW	0dH
	DW	0dH
	DW	0dH
	DW	0dH
	DW	0dH
	DW	0dH
	DW	0dH
	DW	0dH
	DW	0dH
	DW	0dH
	DW	0dH
	DW	0dH
	DW	0dH
	DW	0dH
	DW	0dH
	DW	0dH
	DW	0dH
	DW	0dH
	DW	0dH
	DW	0dH
	DW	0dH
	DW	0dH
	DW	0dH
	DW	0dH
	DW	0dH
	DW	0dH
	DW	0dH
	DW	0dH
	DW	0dH
	DW	0dH
	DW	0dH
	DW	0dH
	DW	0dH
	DW	0dH
	DW	0dH
	DW	0dH
	DW	0dH
	DW	0dH
	DW	0dH
	DW	0dH
	DW	0dH
	DW	0dH
	DW	0dH
	DW	0dH
	DW	0dH
	DW	0dH
	DW	0dH
	DW	0dH
	DW	0dH
	DW	0dH
	DW	0dH
	DW	0dH
	DW	0dH
	DW	0dH
	DW	0dH
	DW	0dH
	DW	0dH
	DW	0dH
	DW	0dH
	DW	0dH
	DW	0dH
	DW	0dH
	DW	0dH
	DW	0dH
	DW	0dH
	DW	0dH
	DW	0dH
	DW	0dH
	DW	0dH
	DW	0cH
	DW	08H
	DW	03H
	DW	00H
_bmDeleteKey DW	055H
	DW	028H
	DW	0aaH
	DW	010H
	DD	FLAT:_acDeleteKey
	DD	00H
	DD	FLAT:_GUI_BitmapMethods555
CONST	ENDS
END
