; Listing generated by Microsoft (R) Optimizing Compiler Version 16.00.40219.01 

	TITLE	C:\DUII\Simulation\GUI\Widget\DIALOG.c
	.686P
	.XMM
	include listing.inc
	.model	flat

INCLUDELIB LIBCMT
INCLUDELIB OLDNAMES

_DATA	SEGMENT
__BkColor DD	0c0c0c0H
_DATA	ENDS
PUBLIC	_DIALOG_GetBkColor
EXTRN	__RTC_Shutdown:PROC
EXTRN	__RTC_InitBase:PROC
;	COMDAT rtc$TMZ
; File c:\duii\simulation\gui\widget\dialog.c
rtc$TMZ	SEGMENT
__RTC_Shutdown.rtc$TMZ DD FLAT:__RTC_Shutdown
rtc$TMZ	ENDS
;	COMDAT rtc$IMZ
rtc$IMZ	SEGMENT
__RTC_InitBase.rtc$IMZ DD FLAT:__RTC_InitBase
; Function compile flags: /Odtp /RTCsu /ZI
rtc$IMZ	ENDS
;	COMDAT _DIALOG_GetBkColor
_TEXT	SEGMENT
_DIALOG_GetBkColor PROC					; COMDAT
; Line 63
	push	ebp
	mov	ebp, esp
	sub	esp, 192				; 000000c0H
	push	ebx
	push	esi
	push	edi
	lea	edi, DWORD PTR [ebp-192]
	mov	ecx, 48					; 00000030H
	mov	eax, -858993460				; ccccccccH
	rep stosd
; Line 64
	mov	eax, DWORD PTR __BkColor
; Line 65
	pop	edi
	pop	esi
	pop	ebx
	mov	esp, ebp
	pop	ebp
	ret	0
_DIALOG_GetBkColor ENDP
_TEXT	ENDS
PUBLIC	_DIALOG_SetBkColor
; Function compile flags: /Odtp /RTCsu /ZI
;	COMDAT _DIALOG_SetBkColor
_TEXT	SEGMENT
_r$ = -8						; size = 4
_BkColor$ = 8						; size = 4
_DIALOG_SetBkColor PROC					; COMDAT
; Line 71
	push	ebp
	mov	ebp, esp
	sub	esp, 204				; 000000ccH
	push	ebx
	push	esi
	push	edi
	lea	edi, DWORD PTR [ebp-204]
	mov	ecx, 51					; 00000033H
	mov	eax, -858993460				; ccccccccH
	rep stosd
; Line 73
	mov	eax, DWORD PTR __BkColor
	mov	DWORD PTR _r$[ebp], eax
; Line 74
	mov	eax, DWORD PTR _BkColor$[ebp]
	mov	DWORD PTR __BkColor, eax
; Line 75
	mov	eax, DWORD PTR _r$[ebp]
; Line 76
	pop	edi
	pop	esi
	pop	ebx
	mov	esp, ebp
	pop	ebp
	ret	0
_DIALOG_SetBkColor ENDP
_TEXT	ENDS
PUBLIC	_GUI_SetDialogStatusPtr
EXTRN	_WM_SendMessage:PROC
EXTRN	__RTC_CheckEsp:PROC
EXTRN	@_RTC_CheckStackVars@8:PROC
; Function compile flags: /Odtp /RTCsu /ZI
;	COMDAT _GUI_SetDialogStatusPtr
_TEXT	SEGMENT
_Msg$ = -20						; size = 16
_hDialog$ = 8						; size = 4
_pDialogStatus$ = 12					; size = 4
_GUI_SetDialogStatusPtr PROC				; COMDAT
; Line 81
	push	ebp
	mov	ebp, esp
	sub	esp, 216				; 000000d8H
	push	ebx
	push	esi
	push	edi
	lea	edi, DWORD PTR [ebp-216]
	mov	ecx, 54					; 00000036H
	mov	eax, -858993460				; ccccccccH
	rep stosd
; Line 82
	mov	DWORD PTR _Msg$[ebp], 0
	xor	eax, eax
	mov	DWORD PTR _Msg$[ebp+4], eax
	mov	DWORD PTR _Msg$[ebp+8], eax
	mov	DWORD PTR _Msg$[ebp+12], eax
; Line 83
	mov	DWORD PTR _Msg$[ebp], 42		; 0000002aH
; Line 84
	mov	eax, DWORD PTR _pDialogStatus$[ebp]
	mov	DWORD PTR _Msg$[ebp+12], eax
; Line 85
	lea	eax, DWORD PTR _Msg$[ebp]
	push	eax
	mov	ecx, DWORD PTR _hDialog$[ebp]
	push	ecx
	call	_WM_SendMessage
	add	esp, 8
; Line 86
	push	edx
	mov	ecx, ebp
	push	eax
	lea	edx, DWORD PTR $LN5@GUI_SetDia
	call	@_RTC_CheckStackVars@8
	pop	eax
	pop	edx
	pop	edi
	pop	esi
	pop	ebx
	add	esp, 216				; 000000d8H
	cmp	ebp, esp
	call	__RTC_CheckEsp
	mov	esp, ebp
	pop	ebp
	ret	0
	npad	2
$LN5@GUI_SetDia:
	DD	1
	DD	$LN4@GUI_SetDia
$LN4@GUI_SetDia:
	DD	-20					; ffffffecH
	DD	16					; 00000010H
	DD	$LN3@GUI_SetDia
$LN3@GUI_SetDia:
	DB	77					; 0000004dH
	DB	115					; 00000073H
	DB	103					; 00000067H
	DB	0
_GUI_SetDialogStatusPtr ENDP
_TEXT	ENDS
PUBLIC	_GUI_GetDialogStatusPtr
; Function compile flags: /Odtp /RTCsu /ZI
;	COMDAT _GUI_GetDialogStatusPtr
_TEXT	SEGMENT
_Msg$ = -20						; size = 16
_hDialog$ = 8						; size = 4
_GUI_GetDialogStatusPtr PROC				; COMDAT
; Line 92
	push	ebp
	mov	ebp, esp
	sub	esp, 216				; 000000d8H
	push	ebx
	push	esi
	push	edi
	lea	edi, DWORD PTR [ebp-216]
	mov	ecx, 54					; 00000036H
	mov	eax, -858993460				; ccccccccH
	rep stosd
; Line 93
	mov	DWORD PTR _Msg$[ebp], 0
	xor	eax, eax
	mov	DWORD PTR _Msg$[ebp+4], eax
	mov	DWORD PTR _Msg$[ebp+8], eax
	mov	DWORD PTR _Msg$[ebp+12], eax
; Line 94
	mov	DWORD PTR _Msg$[ebp], 42		; 0000002aH
; Line 95
	lea	eax, DWORD PTR _Msg$[ebp]
	push	eax
	mov	ecx, DWORD PTR _hDialog$[ebp]
	push	ecx
	call	_WM_SendMessage
	add	esp, 8
; Line 96
	mov	eax, DWORD PTR _Msg$[ebp+12]
; Line 97
	push	edx
	mov	ecx, ebp
	push	eax
	lea	edx, DWORD PTR $LN5@GUI_GetDia
	call	@_RTC_CheckStackVars@8
	pop	eax
	pop	edx
	pop	edi
	pop	esi
	pop	ebx
	add	esp, 216				; 000000d8H
	cmp	ebp, esp
	call	__RTC_CheckEsp
	mov	esp, ebp
	pop	ebp
	ret	0
	npad	1
$LN5@GUI_GetDia:
	DD	1
	DD	$LN4@GUI_GetDia
$LN4@GUI_GetDia:
	DD	-20					; ffffffecH
	DD	16					; 00000010H
	DD	$LN3@GUI_GetDia
$LN3@GUI_GetDia:
	DB	77					; 0000004dH
	DB	115					; 00000073H
	DB	103					; 00000067H
	DB	0
_GUI_GetDialogStatusPtr ENDP
_TEXT	ENDS
PUBLIC	_GUI_CreateDialogBox
EXTRN	_WM_SendMessageNoPara:PROC
EXTRN	_WM_SetFocusOnNextChild:PROC
EXTRN	_WM_DeleteWindow:PROC
EXTRN	_WM_ShowWindow:PROC
EXTRN	_WIDGET_OrState:PROC
EXTRN	_WM_GetClientWindow:PROC
; Function compile flags: /Odtp /RTCsu /ZI
;	COMDAT _GUI_CreateDialogBox
_TEXT	SEGMENT
_hChild$14526 = -32					; size = 4
_hDialogClient$ = -20					; size = 4
_hDialog$ = -8						; size = 4
_paWidget$ = 8						; size = 4
_NumWidgets$ = 12					; size = 4
_cb$ = 16						; size = 4
_hParent$ = 20						; size = 4
_x0$ = 24						; size = 4
_y0$ = 28						; size = 4
_GUI_CreateDialogBox PROC				; COMDAT
; Line 104
	push	ebp
	mov	ebp, esp
	sub	esp, 228				; 000000e4H
	push	ebx
	push	esi
	push	edi
	lea	edi, DWORD PTR [ebp-228]
	mov	ecx, 57					; 00000039H
	mov	eax, -858993460				; ccccccccH
	rep stosd
; Line 106
	mov	esi, esp
	mov	eax, DWORD PTR _cb$[ebp]
	push	eax
	mov	ecx, DWORD PTR _y0$[ebp]
	push	ecx
	mov	edx, DWORD PTR _x0$[ebp]
	push	edx
	mov	eax, DWORD PTR _hParent$[ebp]
	push	eax
	mov	ecx, DWORD PTR _paWidget$[ebp]
	push	ecx
	mov	edx, DWORD PTR _paWidget$[ebp]
	mov	eax, DWORD PTR [edx]
	call	eax
	add	esp, 20					; 00000014H
	cmp	esi, esp
	call	__RTC_CheckEsp
	mov	DWORD PTR _hDialog$[ebp], eax
; Line 107
	cmp	DWORD PTR _hDialog$[ebp], 0
	jne	SHORT $LN4@GUI_Create
; Line 108
	xor	eax, eax
	jmp	$LN5@GUI_Create
$LN4@GUI_Create:
; Line 110
	mov	eax, DWORD PTR _hDialog$[ebp]
	push	eax
	call	_WM_GetClientWindow
	add	esp, 4
	mov	DWORD PTR _hDialogClient$[ebp], eax
; Line 111
	mov	eax, DWORD PTR _paWidget$[ebp]
	movzx	ecx, WORD PTR [eax+18]
	push	ecx
	mov	edx, DWORD PTR _hDialog$[ebp]
	push	edx
	call	_WIDGET_OrState
	add	esp, 8
; Line 112
	mov	eax, DWORD PTR _hDialog$[ebp]
	push	eax
	call	_WM_ShowWindow
	add	esp, 4
; Line 113
	mov	eax, DWORD PTR _hDialogClient$[ebp]
	push	eax
	call	_WM_ShowWindow
	add	esp, 4
$LN3@GUI_Create:
; Line 114
	mov	eax, DWORD PTR _NumWidgets$[ebp]
	sub	eax, 1
	mov	DWORD PTR _NumWidgets$[ebp], eax
	cmp	DWORD PTR _NumWidgets$[ebp], 0
	jle	SHORT $LN2@GUI_Create
; Line 116
	mov	eax, DWORD PTR _paWidget$[ebp]
	add	eax, 24					; 00000018H
	mov	DWORD PTR _paWidget$[ebp], eax
; Line 117
	mov	esi, esp
	push	0
	push	0
	push	0
	mov	eax, DWORD PTR _hDialogClient$[ebp]
	push	eax
	mov	ecx, DWORD PTR _paWidget$[ebp]
	push	ecx
	mov	edx, DWORD PTR _paWidget$[ebp]
	mov	eax, DWORD PTR [edx]
	call	eax
	add	esp, 20					; 00000014H
	cmp	esi, esp
	call	__RTC_CheckEsp
	mov	DWORD PTR _hChild$14526[ebp], eax
; Line 118
	cmp	DWORD PTR _hChild$14526[ebp], 0
	jne	SHORT $LN1@GUI_Create
; Line 119
	mov	eax, DWORD PTR _hDialog$[ebp]
	push	eax
	call	_WM_DeleteWindow
	add	esp, 4
; Line 120
	xor	eax, eax
	jmp	SHORT $LN5@GUI_Create
$LN1@GUI_Create:
; Line 122
	mov	eax, DWORD PTR _hChild$14526[ebp]
	push	eax
	call	_WM_ShowWindow
	add	esp, 4
; Line 123
	jmp	SHORT $LN3@GUI_Create
$LN2@GUI_Create:
; Line 124
	mov	eax, DWORD PTR _hDialog$[ebp]
	push	eax
	call	_WM_SetFocusOnNextChild
	add	esp, 4
; Line 125
	push	29					; 0000001dH
	mov	eax, DWORD PTR _hDialogClient$[ebp]
	push	eax
	call	_WM_SendMessageNoPara
	add	esp, 8
; Line 126
	mov	eax, DWORD PTR _hDialog$[ebp]
$LN5@GUI_Create:
; Line 127
	pop	edi
	pop	esi
	pop	ebx
	add	esp, 228				; 000000e4H
	cmp	ebp, esp
	call	__RTC_CheckEsp
	mov	esp, ebp
	pop	ebp
	ret	0
_GUI_CreateDialogBox ENDP
_TEXT	ENDS
PUBLIC	_GUI_EndDialog
EXTRN	_WM__DeleteSecure:PROC
; Function compile flags: /Odtp /RTCsu /ZI
;	COMDAT _GUI_EndDialog
_TEXT	SEGMENT
_pStatus$ = -8						; size = 4
_hDialog$ = 8						; size = 4
_r$ = 12						; size = 4
_GUI_EndDialog PROC					; COMDAT
; Line 133
	push	ebp
	mov	ebp, esp
	sub	esp, 204				; 000000ccH
	push	ebx
	push	esi
	push	edi
	lea	edi, DWORD PTR [ebp-204]
	mov	ecx, 51					; 00000033H
	mov	eax, -858993460				; ccccccccH
	rep stosd
; Line 135
	mov	eax, DWORD PTR _hDialog$[ebp]
	push	eax
	call	_GUI_GetDialogStatusPtr
	add	esp, 4
	mov	DWORD PTR _pStatus$[ebp], eax
; Line 136
	cmp	DWORD PTR _pStatus$[ebp], 0
	je	SHORT $LN1@GUI_EndDia
; Line 137
	mov	eax, DWORD PTR _pStatus$[ebp]
	mov	ecx, DWORD PTR _r$[ebp]
	mov	DWORD PTR [eax+4], ecx
; Line 138
	mov	eax, DWORD PTR _pStatus$[ebp]
	mov	DWORD PTR [eax], 1
$LN1@GUI_EndDia:
; Line 146
	mov	eax, DWORD PTR _hDialog$[ebp]
	push	eax
	call	_WM__DeleteSecure
	add	esp, 4
; Line 147
	pop	edi
	pop	esi
	pop	ebx
	add	esp, 204				; 000000ccH
	cmp	ebp, esp
	call	__RTC_CheckEsp
	mov	esp, ebp
	pop	ebp
	ret	0
_GUI_EndDialog ENDP
_TEXT	ENDS
PUBLIC	_GUI_ExecCreatedDialog
EXTRN	_GUI_WaitEvent:PROC
EXTRN	_GUI_Exec:PROC
; Function compile flags: /Odtp /RTCsu /ZI
;	COMDAT _GUI_ExecCreatedDialog
_TEXT	SEGMENT
_DialogStatus$ = -12					; size = 8
_hDialog$ = 8						; size = 4
_GUI_ExecCreatedDialog PROC				; COMDAT
; Line 154
	push	ebp
	mov	ebp, esp
	sub	esp, 208				; 000000d0H
	push	ebx
	push	esi
	push	edi
	lea	edi, DWORD PTR [ebp-208]
	mov	ecx, 52					; 00000034H
	mov	eax, -858993460				; ccccccccH
	rep stosd
; Line 155
	mov	DWORD PTR _DialogStatus$[ebp], 0
	xor	eax, eax
	mov	DWORD PTR _DialogStatus$[ebp+4], eax
; Line 157
	lea	eax, DWORD PTR _DialogStatus$[ebp]
	push	eax
	mov	ecx, DWORD PTR _hDialog$[ebp]
	push	ecx
	call	_GUI_SetDialogStatusPtr
	add	esp, 8
$LN3@GUI_ExecCr:
; Line 158
	cmp	DWORD PTR _DialogStatus$[ebp], 0
	jne	SHORT $LN2@GUI_ExecCr
; Line 159
	call	_GUI_Exec
	test	eax, eax
	jne	SHORT $LN1@GUI_ExecCr
; Line 160
	call	_GUI_WaitEvent
$LN1@GUI_ExecCr:
; Line 162
	jmp	SHORT $LN3@GUI_ExecCr
$LN2@GUI_ExecCr:
; Line 163
	mov	eax, DWORD PTR _DialogStatus$[ebp+4]
; Line 164
	push	edx
	mov	ecx, ebp
	push	eax
	lea	edx, DWORD PTR $LN8@GUI_ExecCr
	call	@_RTC_CheckStackVars@8
	pop	eax
	pop	edx
	pop	edi
	pop	esi
	pop	ebx
	add	esp, 208				; 000000d0H
	cmp	ebp, esp
	call	__RTC_CheckEsp
	mov	esp, ebp
	pop	ebp
	ret	0
$LN8@GUI_ExecCr:
	DD	1
	DD	$LN7@GUI_ExecCr
$LN7@GUI_ExecCr:
	DD	-12					; fffffff4H
	DD	8
	DD	$LN6@GUI_ExecCr
$LN6@GUI_ExecCr:
	DB	68					; 00000044H
	DB	105					; 00000069H
	DB	97					; 00000061H
	DB	108					; 0000006cH
	DB	111					; 0000006fH
	DB	103					; 00000067H
	DB	83					; 00000053H
	DB	116					; 00000074H
	DB	97					; 00000061H
	DB	116					; 00000074H
	DB	117					; 00000075H
	DB	115					; 00000073H
	DB	0
_GUI_ExecCreatedDialog ENDP
_TEXT	ENDS
PUBLIC	_GUI_ExecDialogBox
; Function compile flags: /Odtp /RTCsu /ZI
;	COMDAT _GUI_ExecDialogBox
_TEXT	SEGMENT
_hDialog$ = -8						; size = 4
_paWidget$ = 8						; size = 4
_NumWidgets$ = 12					; size = 4
_cb$ = 16						; size = 4
_hParent$ = 20						; size = 4
_x0$ = 24						; size = 4
_y0$ = 28						; size = 4
_GUI_ExecDialogBox PROC					; COMDAT
; Line 178
	push	ebp
	mov	ebp, esp
	sub	esp, 204				; 000000ccH
	push	ebx
	push	esi
	push	edi
	lea	edi, DWORD PTR [ebp-204]
	mov	ecx, 51					; 00000033H
	mov	eax, -858993460				; ccccccccH
	rep stosd
; Line 180
	mov	eax, DWORD PTR _y0$[ebp]
	push	eax
	mov	ecx, DWORD PTR _x0$[ebp]
	push	ecx
	mov	edx, DWORD PTR _hParent$[ebp]
	push	edx
	mov	eax, DWORD PTR _cb$[ebp]
	push	eax
	mov	ecx, DWORD PTR _NumWidgets$[ebp]
	push	ecx
	mov	edx, DWORD PTR _paWidget$[ebp]
	push	edx
	call	_GUI_CreateDialogBox
	add	esp, 24					; 00000018H
	mov	DWORD PTR _hDialog$[ebp], eax
; Line 181
	mov	eax, DWORD PTR _hDialog$[ebp]
	push	eax
	call	_GUI_ExecCreatedDialog
	add	esp, 4
; Line 182
	pop	edi
	pop	esi
	pop	ebx
	add	esp, 204				; 000000ccH
	cmp	ebp, esp
	call	__RTC_CheckEsp
	mov	esp, ebp
	pop	ebp
	ret	0
_GUI_ExecDialogBox ENDP
_TEXT	ENDS
END
