; Listing generated by Microsoft (R) Optimizing Compiler Version 16.00.40219.01 

	TITLE	C:\DUII\DUII\Graphics\DigitalBarBlueSweepFullColor.c
	.686P
	.XMM
	include listing.inc
	.model	flat

INCLUDELIB LIBCMT
INCLUDELIB OLDNAMES

PUBLIC	_bmDigitalBarBlueSweepFullColor
EXTRN	_GUI_BitmapMethods555:BYTE
CONST	SEGMENT
_acDigitalBarBlueSweepFullColor DW 00H
	DW	00H
	DW	00H
	DW	00H
	DW	00H
	DW	00H
	DW	00H
	DW	00H
	DW	00H
	DW	00H
	DW	00H
	DW	00H
	DW	00H
	DW	00H
	DW	00H
	DW	00H
	DW	00H
	DW	00H
	DW	00H
	DW	00H
	DW	00H
	DW	00H
	DW	00H
	DW	00H
	DW	00H
	DW	00H
	DW	00H
	DW	00H
	DW	00H
	DW	00H
	DW	00H
	DW	00H
	DW	00H
	DW	00H
	DW	00H
	DW	00H
	DW	00H
	DW	00H
	DW	00H
	DW	00H
	DW	00H
	DW	00H
	DW	00H
	DW	00H
	DW	00H
	DW	00H
	DW	00H
	DW	00H
	DW	00H
	DW	00H
	DW	00H
	DW	00H
	DW	00H
	DW	00H
	DW	00H
	DW	00H
	DW	00H
	DW	00H
	DW	00H
	DW	00H
	DW	00H
	DW	00H
	DW	00H
	DW	00H
	DW	00H
	DW	00H
	DW	00H
	DW	00H
	DW	00H
	DW	00H
	DW	00H
	DW	00H
	DW	00H
	DW	00H
	DW	00H
	DW	00H
	DW	00H
	DW	00H
	DW	00H
	DW	00H
	DW	00H
	DW	00H
	DW	00H
	DW	00H
	DW	00H
	DW	00H
	DW	00H
	DW	00H
	DW	00H
	DW	00H
	DW	00H
	DW	00H
	DW	00H
	DW	00H
	DW	00H
	DW	00H
	DW	00H
	DW	00H
	DW	00H
	DW	00H
	DW	00H
	DW	00H
	DW	00H
	DW	00H
	DW	00H
	DW	00H
	DW	00H
	DW	00H
	DW	00H
	DW	00H
	DW	00H
	DW	00H
	DW	00H
	DW	00H
	DW	00H
	DW	00H
	DW	00H
	DW	00H
	DW	00H
	DW	00H
	DW	00H
	DW	00H
	DW	00H
	DW	00H
	DW	00H
	DW	00H
	DW	00H
	DW	00H
	DW	00H
	DW	00H
	DW	00H
	DW	00H
	DW	00H
	DW	00H
	DW	00H
	DW	00H
	DW	00H
	DW	00H
	DW	00H
	DW	00H
	DW	00H
	DW	00H
	DW	00H
	DW	00H
	DW	00H
	DW	00H
	DW	00H
	DW	00H
	DW	00H
	DW	00H
	DW	00H
	DW	00H
	DW	00H
	DW	00H
	DW	00H
	DW	00H
	DW	00H
	DW	00H
	DW	00H
	DW	00H
	DW	00H
	DW	00H
	DW	00H
	DW	00H
	DW	00H
	DW	00H
	DW	00H
	DW	00H
	DW	00H
	DW	00H
	DW	00H
	DW	00H
	DW	00H
	DW	00H
	DW	00H
	DW	00H
	DW	00H
	DW	00H
	DW	00H
	DW	00H
	DW	00H
	DW	00H
	DW	00H
	DW	00H
	DW	00H
	DW	00H
	DW	00H
	DW	00H
	DW	00H
	DW	00H
	DW	00H
	DW	00H
	DW	00H
	DW	00H
	DW	00H
	DW	00H
	DW	00H
	DW	00H
	DW	00H
	DW	00H
	DW	00H
	DW	00H
	DW	00H
	DW	00H
	DW	00H
	DW	00H
	DW	00H
	DW	00H
	DW	00H
	DW	00H
	DW	00H
	DW	00H
	DW	00H
	DW	00H
	DW	00H
	DW	00H
	DW	00H
	DW	00H
	DW	00H
	DW	00H
	DW	00H
	DW	00H
	DW	00H
	DW	00H
	DW	00H
	DW	00H
	DW	00H
	DW	00H
	DW	00H
	DW	00H
	DW	00H
	DW	00H
	DW	00H
	DW	00H
	DW	00H
	DW	00H
	DW	00H
	DW	00H
	DW	00H
	DW	00H
	DW	00H
	DW	00H
	DW	00H
	DW	00H
	DW	00H
	DW	00H
	DW	00H
	DW	00H
	DW	00H
	DW	00H
	DW	00H
	DW	00H
	DW	00H
	DW	00H
	DW	00H
	DW	00H
	DW	00H
	DW	00H
	DW	00H
	DW	00H
	DW	00H
	DW	00H
	DW	00H
	DW	00H
	DW	00H
	DW	00H
	DW	00H
	DW	00H
	DW	00H
	DW	00H
	DW	00H
	DW	00H
	DW	00H
	DW	00H
	DW	00H
	DW	00H
	DW	00H
	DW	00H
	DW	00H
	DW	00H
	DW	00H
	DW	00H
	DW	00H
	DW	00H
	DW	00H
	DW	00H
	DW	00H
	DW	00H
	DW	00H
	DW	00H
	DW	00H
	DW	00H
	DW	00H
	DW	00H
	DW	00H
	DW	00H
	DW	00H
	DW	00H
	DW	00H
	DW	00H
	DW	00H
	DW	00H
	DW	00H
	DW	00H
	DW	00H
	DW	00H
	DW	00H
	DW	00H
	DW	00H
	DW	00H
	DW	00H
	DW	00H
	DW	00H
	DW	00H
	DW	00H
	DW	00H
	DW	00H
	DW	00H
	DW	00H
	DW	00H
	DW	00H
	DW	00H
	DW	00H
	DW	00H
	DW	00H
	DW	00H
	DW	00H
	DW	00H
	DW	00H
	DW	00H
	DW	00H
	DW	00H
	DW	00H
	DW	00H
	DW	00H
	DW	00H
	DW	00H
	DW	00H
	DW	00H
	DW	00H
	DW	00H
	DW	00H
	DW	00H
	DW	00H
	DW	00H
	DW	00H
	DW	00H
	DW	00H
	DW	00H
	DW	00H
	DW	00H
	DW	00H
	DW	00H
	DW	00H
	DW	00H
	DW	00H
	DW	00H
	DW	00H
	DW	00H
	DW	00H
	DW	00H
	DW	00H
	DW	00H
	DW	00H
	DW	00H
	DW	00H
	DW	00H
	DW	00H
	DW	00H
	DW	00H
	DW	00H
	DW	00H
	DW	00H
	DW	00H
	DW	00H
	DW	00H
	DW	00H
	DW	00H
	DW	00H
	DW	00H
	DW	00H
	DW	00H
	DW	00H
	DW	00H
	DW	00H
	DW	00H
	DW	00H
	DW	00H
	DW	00H
	DW	00H
	DW	00H
	DW	00H
	DW	00H
	DW	00H
	DW	00H
	DW	00H
	DW	00H
	DW	00H
	DW	00H
	DW	00H
	DW	00H
	DW	00H
	DW	00H
	DW	00H
	DW	00H
	DW	00H
	DW	00H
	DW	00H
	DW	00H
	DW	00H
	DW	00H
	DW	00H
	DW	00H
	DW	00H
	DW	00H
	DW	00H
	DW	00H
	DW	00H
	DW	00H
	DW	00H
	DW	00H
	DW	00H
	DW	00H
	DW	00H
	DW	00H
	DW	00H
	DW	00H
	DW	00H
	DW	00H
	DW	00H
	DW	00H
	DW	00H
	DW	00H
	DW	00H
	DW	00H
	DW	00H
	DW	00H
	DW	00H
	DW	00H
	DW	00H
	DW	00H
	DW	00H
	DW	00H
	DW	00H
	DW	00H
	DW	00H
	DW	00H
	DW	00H
	DW	00H
	DW	00H
	DW	00H
	DW	00H
	DW	00H
	DW	00H
	DW	00H
	DW	00H
	DW	00H
	DW	00H
	DW	00H
	DW	00H
	DW	00H
	DW	00H
	DW	00H
	DW	00H
	DW	00H
	DW	00H
	DW	00H
	DW	00H
	DW	00H
	DW	00H
	DW	00H
	DW	00H
	DW	00H
	DW	00H
	DW	00H
	DW	00H
	DW	00H
	DW	00H
	DW	00H
	DW	00H
	DW	00H
	DW	00H
	DW	00H
	DW	00H
	DW	00H
	DW	00H
	DW	00H
	DW	00H
	DW	00H
	DW	00H
	DW	00H
	DW	00H
	DW	00H
	DW	00H
	DW	00H
	DW	00H
	DW	00H
	DW	00H
	DW	00H
	DW	00H
	DW	00H
	DW	00H
	DW	00H
	DW	00H
	DW	00H
	DW	00H
	DW	00H
	DW	00H
	DW	00H
	DW	00H
	DW	00H
	DW	00H
	DW	00H
	DW	00H
	DW	00H
	DW	00H
	DW	00H
	DW	00H
	DW	00H
	DW	00H
	DW	00H
	DW	00H
	DW	00H
	DW	00H
	DW	00H
	DW	00H
	DW	00H
	DW	00H
	DW	00H
	DW	00H
	DW	00H
	DW	00H
	DW	00H
	DW	00H
	DW	00H
	DW	00H
	DW	00H
	DW	00H
	DW	00H
	DW	00H
	DW	00H
	DW	00H
	DW	00H
	DW	00H
	DW	00H
	DW	00H
	DW	00H
	DW	00H
	DW	00H
	DW	00H
	DW	00H
	DW	00H
	DW	00H
	DW	00H
	DW	00H
	DW	00H
	DW	00H
	DW	00H
	DW	00H
	DW	00H
	DW	00H
	DW	00H
	DW	00H
	DW	00H
	DW	00H
	DW	00H
	DW	00H
	DW	00H
	DW	00H
	DW	00H
	DW	00H
	DW	00H
	DW	00H
	DW	00H
	DW	00H
	DW	00H
	DW	00H
	DW	00H
	DW	00H
	DW	00H
	DW	00H
	DW	00H
	DW	00H
	DW	00H
	DW	00H
	DW	00H
	DW	00H
	DW	00H
	DW	00H
	DW	00H
	DW	00H
	DW	00H
	DW	00H
	DW	00H
	DW	00H
	DW	00H
	DW	00H
	DW	00H
	DW	00H
	DW	00H
	DW	00H
	DW	00H
	DW	00H
	DW	00H
	DW	00H
	DW	00H
	DW	00H
	DW	00H
	DW	00H
	DW	00H
	DW	00H
	DW	00H
	DW	00H
	DW	00H
	DW	00H
	DW	00H
	DW	00H
	DW	00H
	DW	00H
	DW	00H
	DW	00H
	DW	00H
	DW	00H
	DW	00H
	DW	00H
	DW	00H
	DW	00H
	DW	00H
	DW	00H
	DW	00H
	DW	00H
	DW	00H
	DW	00H
	DW	00H
	DW	00H
	DW	00H
	DW	00H
	DW	00H
	DW	00H
	DW	00H
	DW	00H
	DW	00H
	DW	00H
	DW	00H
	DW	00H
	DW	00H
	DW	00H
	DW	00H
	DW	00H
	DW	00H
	DW	00H
	DW	00H
	DW	00H
	DW	00H
	DW	00H
	DW	00H
	DW	00H
	DW	00H
	DW	00H
	DW	00H
	DW	00H
	DW	00H
	DW	00H
	DW	00H
	DW	00H
	DW	00H
	DW	00H
	DW	00H
	DW	00H
	DW	00H
	DW	00H
	DW	00H
	DW	00H
	DW	00H
	DW	00H
	DW	00H
	DW	00H
	DW	00H
	DW	00H
	DW	00H
	DW	00H
	DW	00H
	DW	00H
	DW	00H
	DW	00H
	DW	00H
	DW	00H
	DW	00H
	DW	00H
	DW	00H
	DW	00H
	DW	00H
	DW	00H
	DW	00H
	DW	00H
	DW	00H
	DW	00H
	DW	00H
	DW	00H
	DW	00H
	DW	00H
	DW	00H
	DW	00H
	DW	00H
	DW	00H
	DW	00H
	DW	00H
	DW	00H
	DW	00H
	DW	00H
	DW	00H
	DW	00H
	DW	00H
	DW	00H
	DW	00H
	DW	00H
	DW	00H
	DW	00H
	DW	00H
	DW	00H
	DW	00H
	DW	00H
	DW	00H
	DW	00H
	DW	00H
	DW	00H
	DW	00H
	DW	00H
	DW	00H
	DW	00H
	DW	00H
	DW	00H
	DW	00H
	DW	00H
	DW	00H
	DW	00H
	DW	00H
	DW	00H
	DW	00H
	DW	00H
	DW	00H
	DW	00H
	DW	00H
	DW	00H
	DW	00H
	DW	00H
	DW	00H
	DW	00H
	DW	00H
	DW	00H
	DW	00H
	DW	00H
	DW	00H
	DW	00H
	DW	00H
	DW	00H
	DW	00H
	DW	00H
	DW	00H
	DW	00H
	DW	00H
	DW	00H
	DW	00H
	DW	00H
	DW	00H
	DW	00H
	DW	00H
	DW	00H
	DW	00H
	DW	00H
	DW	00H
	DW	00H
	DW	00H
	DW	00H
	DW	00H
	DW	00H
	DW	00H
	DW	00H
	DW	00H
	DW	00H
	DW	00H
	DW	00H
	DW	00H
	DW	00H
	DW	00H
	DW	00H
	DW	00H
	DW	00H
	DW	00H
	DW	00H
	DW	00H
	DW	00H
	DW	00H
	DW	00H
	DW	00H
	DW	00H
	DW	00H
	DW	00H
	DW	00H
	DW	00H
	DW	00H
	DW	00H
	DW	00H
	DW	00H
	DW	00H
	DW	00H
	DW	00H
	DW	00H
	DW	00H
	DW	00H
	DW	00H
	DW	00H
	DW	00H
	DW	00H
	DW	00H
	DW	00H
	DW	00H
	DW	00H
	DW	00H
	DW	00H
	DW	00H
	DW	00H
	DW	00H
	DW	00H
	DW	00H
	DW	00H
	DW	00H
	DW	00H
	DW	00H
	DW	00H
	DW	00H
	DW	00H
	DW	00H
	DW	00H
	DW	00H
	DW	00H
	DW	00H
	DW	00H
	DW	00H
	DW	00H
	DW	00H
	DW	00H
	DW	00H
	DW	00H
	DW	00H
	DW	00H
	DW	00H
	DW	00H
	DW	00H
	DW	00H
	DW	00H
	DW	00H
	DW	00H
	DW	00H
	DW	00H
	DW	00H
	DW	00H
	DW	00H
	DW	00H
	DW	00H
	DW	00H
	DW	00H
	DW	00H
	DW	00H
	DW	00H
	DW	00H
	DW	00H
	DW	00H
	DW	00H
	DW	00H
	DW	00H
	DW	00H
	DW	00H
	DW	00H
	DW	00H
	DW	00H
	DW	00H
	DW	00H
	DW	00H
	DW	00H
	DW	00H
	DW	00H
	DW	00H
	DW	00H
	DW	00H
	DW	00H
	DW	00H
	DW	00H
	DW	00H
	DW	00H
	DW	00H
	DW	00H
	DW	00H
	DW	00H
	DW	00H
	DW	00H
	DW	00H
	DW	00H
	DW	00H
	DW	00H
	DW	00H
	DW	00H
	DW	00H
	DW	00H
	DW	00H
	DW	00H
	DW	00H
	DW	00H
	DW	00H
	DW	00H
	DW	00H
	DW	00H
	DW	00H
	DW	00H
	DW	00H
	DW	00H
	DW	00H
	DW	00H
	DW	00H
	DW	00H
	DW	00H
	DW	00H
	DW	00H
	DW	00H
	DW	00H
	DW	00H
	DW	00H
	DW	00H
	DW	00H
	DW	00H
	DW	00H
	DW	00H
	DW	00H
	DW	00H
	DW	00H
	DW	00H
	DW	00H
	DW	00H
	DW	00H
	DW	00H
	DW	00H
	DW	00H
	DW	00H
	DW	00H
	DW	00H
	DW	00H
	DW	00H
	DW	00H
	DW	00H
	DW	00H
	DW	00H
	DW	00H
	DW	00H
	DW	00H
	DW	00H
	DW	00H
	DW	00H
	DW	00H
	DW	00H
	DW	00H
	DW	00H
	DW	00H
	DW	00H
	DW	00H
	DW	00H
	DW	00H
	DW	00H
	DW	00H
	DW	00H
	DW	00H
	DW	00H
	DW	00H
	DW	00H
	DW	00H
	DW	00H
	DW	00H
	DW	00H
	DW	00H
	DW	00H
	DW	00H
	DW	00H
	DW	00H
	DW	00H
	DW	00H
	DW	00H
	DW	00H
	DW	00H
	DW	00H
	DW	00H
	DW	00H
	DW	00H
	DW	00H
	DW	00H
	DW	00H
	DW	00H
	DW	00H
	DW	00H
	DW	00H
	DW	00H
	DW	00H
	DW	00H
	DW	00H
	DW	00H
	DW	00H
	DW	00H
	DW	00H
	DW	00H
	DW	00H
	DW	00H
	DW	00H
	DW	00H
	DW	00H
	DW	00H
	DW	00H
	DW	00H
	DW	00H
	DW	00H
	DW	00H
	DW	00H
	DW	00H
	DW	00H
	DW	00H
	DW	00H
	DW	00H
	DW	00H
	DW	00H
	DW	00H
	DW	00H
	DW	00H
	DW	00H
	DW	00H
	DW	00H
	DW	00H
	DW	00H
	DW	00H
	DW	00H
	DW	00H
	DW	00H
	DW	00H
	DW	00H
	DW	00H
	DW	00H
	DW	00H
	DW	00H
	DW	00H
	DW	00H
	DW	00H
	DW	00H
	DW	00H
	DW	00H
	DW	00H
	DW	00H
	DW	00H
	DW	00H
	DW	00H
	DW	00H
	DW	00H
	DW	00H
	DW	00H
	DW	00H
	DW	00H
	DW	00H
	DW	00H
	DW	00H
	DW	00H
	DW	00H
	DW	00H
	DW	00H
	DW	00H
	DW	00H
	DW	00H
	DW	00H
	DW	00H
	DW	00H
	DW	00H
	DW	00H
	DW	00H
	DW	00H
	DW	00H
	DW	00H
	DW	00H
	DW	00H
	DW	00H
	DW	00H
	DW	00H
	DW	00H
	DW	00H
	DW	00H
	DW	00H
	DW	00H
	DW	00H
	DW	00H
	DW	00H
	DW	00H
	DW	00H
	DW	00H
	DW	00H
	DW	00H
	DW	00H
	DW	00H
	DW	00H
	DW	00H
	DW	00H
	DW	00H
	DW	00H
	DW	00H
	DW	00H
	DW	00H
	DW	00H
	DW	00H
	DW	00H
	DW	00H
	DW	00H
	DW	00H
	DW	00H
	DW	00H
	DW	00H
	DW	00H
	DW	00H
	DW	00H
	DW	00H
	DW	00H
	DW	00H
	DW	00H
	DW	00H
	DW	00H
	DW	00H
	DW	00H
	DW	00H
	DW	00H
	DW	00H
	DW	00H
	DW	00H
	DW	00H
	DW	00H
	DW	00H
	DW	00H
	DW	00H
	DW	00H
	DW	00H
	DW	00H
	DW	00H
	DW	00H
	DW	00H
	DW	00H
	DW	00H
	DW	00H
	DW	00H
	DW	00H
	DW	00H
	DW	00H
	DW	00H
	DW	00H
	DW	00H
	DW	00H
	DW	00H
	DW	00H
	DW	00H
	DW	00H
	DW	00H
	DW	00H
	DW	00H
	DW	00H
	DW	00H
	DW	00H
	DW	00H
	DW	00H
	DW	00H
	DW	00H
	DW	00H
	DW	00H
	DW	00H
	DW	00H
	DW	00H
	DW	00H
	DW	00H
	DW	00H
	DW	00H
	DW	00H
	DW	00H
	DW	00H
	DW	00H
	DW	00H
	DW	00H
	DW	00H
	DW	00H
	DW	00H
	DW	00H
	DW	00H
	DW	00H
	DW	00H
	DW	00H
	DW	00H
	DW	00H
	DW	00H
	DW	00H
	DW	00H
	DW	00H
	DW	00H
	DW	00H
	DW	00H
	DW	00H
	DW	00H
	DW	00H
	DW	00H
	DW	00H
	DW	00H
	DW	00H
	DW	00H
	DW	00H
	DW	00H
	DW	00H
	DW	00H
	DW	00H
	DW	00H
	DW	00H
	DW	00H
	DW	00H
	DW	00H
	DW	00H
	DW	00H
	DW	00H
	DW	00H
	DW	00H
	DW	00H
	DW	00H
	DW	00H
	DW	00H
	DW	00H
	DW	00H
	DW	00H
	DW	00H
	DW	00H
	DW	00H
	DW	00H
	DW	00H
	DW	00H
	DW	00H
	DW	00H
	DW	00H
	DW	00H
	DW	00H
	DW	00H
	DW	00H
	DW	00H
	DW	00H
	DW	00H
	DW	00H
	DW	00H
	DW	00H
	DW	00H
	DW	00H
	DW	00H
	DW	00H
	DW	00H
	DW	00H
	DW	00H
	DW	00H
	DW	00H
	DW	00H
	DW	00H
	DW	00H
	DW	00H
	DW	00H
	DW	00H
	DW	00H
	DW	00H
	DW	00H
	DW	00H
	DW	00H
	DW	00H
	DW	00H
	DW	00H
	DW	00H
	DW	00H
	DW	00H
	DW	00H
	DW	00H
	DW	00H
	DW	00H
	DW	00H
	DW	00H
	DW	00H
	DW	00H
	DW	00H
	DW	00H
	DW	00H
	DW	00H
	DW	00H
	DW	00H
	DW	00H
	DW	00H
	DW	00H
	DW	00H
	DW	00H
	DW	00H
	DW	00H
	DW	00H
	DW	00H
	DW	00H
	DW	00H
	DW	00H
	DW	00H
	DW	00H
	DW	00H
	DW	00H
	DW	00H
	DW	00H
	DW	00H
	DW	00H
	DW	00H
	DW	00H
	DW	00H
	DW	00H
	DW	00H
	DW	00H
	DW	00H
	DW	00H
	DW	00H
	DW	00H
	DW	00H
	DW	00H
	DW	00H
	DW	00H
	DW	00H
	DW	00H
	DW	00H
	DW	00H
	DW	00H
	DW	00H
	DW	00H
	DW	00H
	DW	00H
	DW	00H
	DW	00H
	DW	00H
	DW	00H
	DW	00H
	DW	00H
	DW	00H
	DW	00H
	DW	00H
	DW	00H
	DW	00H
	DW	00H
	DW	00H
	DW	00H
	DW	00H
	DW	00H
	DW	00H
	DW	00H
	DW	00H
	DW	00H
	DW	00H
	DW	00H
	DW	00H
	DW	00H
	DW	00H
	DW	00H
	DW	00H
	DW	00H
	DW	00H
	DW	00H
	DW	00H
	DW	00H
	DW	00H
	DW	00H
	DW	00H
	DW	00H
	DW	00H
	DW	00H
	DW	00H
	DW	00H
	DW	00H
	DW	00H
	DW	00H
	DW	00H
	DW	00H
	DW	00H
	DW	00H
	DW	00H
	DW	00H
	DW	00H
	DW	00H
	DW	00H
	DW	00H
	DW	00H
	DW	00H
	DW	00H
	DW	00H
	DW	00H
	DW	00H
	DW	00H
	DW	00H
	DW	00H
	DW	00H
	DW	00H
	DW	00H
	DW	00H
	DW	00H
	DW	00H
	DW	00H
	DW	00H
	DW	00H
	DW	00H
	DW	00H
	DW	00H
	DW	00H
	DW	00H
	DW	00H
	DW	00H
	DW	00H
	DW	00H
	DW	00H
	DW	00H
	DW	00H
	DW	00H
	DW	00H
	DW	00H
	DW	00H
	DW	00H
	DW	00H
	DW	00H
	DW	00H
	DW	00H
	DW	00H
	DW	00H
	DW	00H
	DW	00H
	DW	00H
	DW	00H
	DW	00H
	DW	00H
	DW	00H
	DW	00H
	DW	00H
	DW	00H
	DW	00H
	DW	00H
	DW	00H
	DW	00H
	DW	00H
	DW	00H
	DW	00H
	DW	00H
	DW	00H
	DW	00H
	DW	00H
	DW	00H
	DW	00H
	DW	00H
	DW	00H
	DW	00H
	DW	00H
	DW	00H
	DW	00H
	DW	00H
	DW	00H
	DW	00H
	DW	00H
	DW	00H
	DW	00H
	DW	00H
	DW	00H
	DW	00H
	DW	00H
	DW	00H
	DW	00H
	DW	00H
	DW	00H
	DW	00H
	DW	00H
	DW	00H
	DW	00H
	DW	00H
	DW	00H
	DW	00H
	DW	00H
	DW	00H
	DW	00H
	DW	00H
	DW	00H
	DW	00H
	DW	00H
	DW	00H
	DW	00H
	DW	00H
	DW	00H
	DW	00H
	DW	00H
	DW	00H
	DW	00H
	DW	00H
	DW	00H
	DW	00H
	DW	00H
	DW	00H
	DW	00H
	DW	00H
	DW	00H
	DW	00H
	DW	00H
	DW	00H
	DW	00H
	DW	00H
	DW	00H
	DW	00H
	DW	00H
	DW	00H
	DW	00H
	DW	00H
	DW	00H
	DW	00H
	DW	00H
	DW	00H
	DW	00H
	DW	00H
	DW	00H
	DW	00H
	DW	00H
	DW	00H
	DW	00H
	DW	00H
	DW	00H
	DW	00H
	DW	00H
	DW	00H
	DW	00H
	DW	00H
	DW	00H
	DW	00H
	DW	00H
	DW	00H
	DW	00H
	DW	00H
	DW	00H
	DW	00H
	DW	00H
	DW	00H
	DW	00H
	DW	00H
	DW	00H
	DW	00H
	DW	00H
	DW	00H
	DW	00H
	DW	00H
	DW	00H
	DW	00H
	DW	00H
	DW	00H
	DW	00H
	DW	00H
	DW	00H
	DW	00H
	DW	00H
	DW	00H
	DW	00H
	DW	00H
	DW	00H
	DW	00H
	DW	00H
	DW	00H
	DW	00H
	DW	00H
	DW	00H
	DW	00H
	DW	00H
	DW	00H
	DW	00H
	DW	00H
	DW	00H
	DW	00H
	DW	00H
	DW	00H
	DW	00H
	DW	00H
	DW	00H
	DW	00H
	DW	00H
	DW	00H
	DW	00H
	DW	00H
	DW	00H
	DW	00H
	DW	00H
	DW	00H
	DW	00H
	DW	00H
	DW	00H
	DW	00H
	DW	00H
	DW	00H
	DW	00H
	DW	00H
	DW	00H
	DW	00H
	DW	00H
	DW	00H
	DW	00H
	DW	00H
	DW	00H
	DW	00H
	DW	00H
	DW	00H
	DW	00H
	DW	00H
	DW	00H
	DW	00H
	DW	00H
	DW	00H
	DW	00H
	DW	00H
	DW	00H
	DW	00H
	DW	00H
	DW	00H
	DW	00H
	DW	00H
	DW	00H
	DW	00H
	DW	00H
	DW	00H
	DW	00H
	DW	00H
	DW	00H
	DW	00H
	DW	00H
	DW	00H
	DW	00H
	DW	00H
	DW	00H
	DW	00H
	DW	00H
	DW	00H
	DW	00H
	DW	00H
	DW	00H
	DW	00H
	DW	00H
	DW	00H
	DW	00H
	DW	00H
	DW	00H
	DW	00H
	DW	00H
	DW	00H
	DW	00H
	DW	00H
	DW	00H
	DW	00H
	DW	00H
	DW	00H
	DW	00H
	DW	00H
	DW	00H
	DW	00H
	DW	00H
	DW	00H
	DW	00H
	DW	00H
	DW	00H
	DW	00H
	DW	00H
	DW	00H
	DW	00H
	DW	00H
	DW	00H
	DW	00H
	DW	00H
	DW	00H
	DW	00H
	DW	00H
	DW	00H
	DW	00H
	DW	00H
	DW	00H
	DW	00H
	DW	00H
	DW	00H
	DW	00H
	DW	00H
	DW	00H
	DW	00H
	DW	00H
	DW	00H
	DW	00H
	DW	00H
	DW	00H
	DW	00H
	DW	00H
	DW	00H
	DW	00H
	DW	00H
	DW	00H
	DW	00H
	DW	00H
	DW	00H
	DW	00H
	DW	00H
	DW	00H
	DW	00H
	DW	00H
	DW	00H
	DW	00H
	DW	00H
	DW	00H
	DW	00H
	DW	00H
	DW	00H
	DW	00H
	DW	00H
	DW	00H
	DW	00H
	DW	00H
	DW	00H
	DW	00H
	DW	00H
	DW	00H
	DW	00H
	DW	00H
	DW	00H
	DW	00H
	DW	00H
	DW	00H
	DW	00H
	DW	00H
	DW	00H
	DW	00H
	DW	00H
	DW	00H
	DW	00H
	DW	00H
	DW	00H
	DW	00H
	DW	00H
	DW	00H
	DW	00H
	DW	00H
	DW	00H
	DW	00H
	DW	00H
	DW	00H
	DW	00H
	DW	00H
	DW	00H
	DW	00H
	DW	00H
	DW	00H
	DW	00H
	DW	00H
	DW	00H
	DW	00H
	DW	00H
	DW	00H
	DW	00H
	DW	00H
	DW	00H
	DW	00H
	DW	00H
	DW	00H
	DW	00H
	DW	00H
	DW	00H
	DW	00H
	DW	00H
	DW	00H
	DW	00H
	DW	00H
	DW	00H
	DW	00H
	DW	00H
	DW	00H
	DW	00H
	DW	00H
	DW	00H
	DW	00H
	DW	00H
	DW	00H
	DW	00H
	DW	00H
	DW	00H
	DW	00H
	DW	00H
	DW	00H
	DW	00H
	DW	00H
	DW	00H
	DW	00H
	DW	00H
	DW	00H
	DW	00H
	DW	00H
	DW	00H
	DW	00H
	DW	00H
	DW	00H
	DW	00H
	DW	00H
	DW	00H
	DW	00H
	DW	00H
	DW	00H
	DW	00H
	DW	00H
	DW	00H
	DW	00H
	DW	00H
	DW	00H
	DW	00H
	DW	00H
	DW	00H
	DW	00H
	DW	00H
	DW	00H
	DW	00H
	DW	00H
	DW	00H
	DW	00H
	DW	00H
	DW	00H
	DW	00H
	DW	00H
	DW	00H
	DW	00H
	DW	00H
	DW	00H
	DW	00H
	DW	00H
	DW	00H
	DW	00H
	DW	00H
	DW	00H
	DW	00H
	DW	00H
	DW	00H
	DW	00H
	DW	00H
	DW	00H
	DW	00H
	DW	00H
	DW	00H
	DW	00H
	DW	00H
	DW	00H
	DW	00H
	DW	00H
	DW	00H
	DW	00H
	DW	00H
	DW	00H
	DW	00H
	DW	00H
	DW	00H
	DW	00H
	DW	00H
	DW	00H
	DW	00H
	DW	00H
	DW	00H
	DW	00H
	DW	00H
	DW	00H
	DW	00H
	DW	00H
	DW	00H
	DW	00H
	DW	00H
	DW	00H
	DW	00H
	DW	00H
	DW	00H
	DW	00H
	DW	00H
	DW	00H
	DW	00H
	DW	00H
	DW	00H
	DW	00H
	DW	00H
	DW	00H
	DW	00H
	DW	00H
	DW	00H
	DW	00H
	DW	00H
	DW	00H
	DW	00H
	DW	00H
	DW	00H
	DW	00H
	DW	00H
	DW	00H
	DW	00H
	DW	00H
	DW	00H
	DW	00H
	DW	00H
	DW	00H
	DW	00H
	DW	00H
	DW	00H
	DW	00H
	DW	00H
	DW	00H
	DW	00H
	DW	00H
	DW	00H
	DW	00H
	DW	00H
	DW	00H
	DW	00H
	DW	00H
	DW	00H
	DW	00H
	DW	00H
	DW	00H
	DW	00H
	DW	00H
	DW	00H
	DW	00H
	DW	00H
	DW	00H
	DW	00H
	DW	00H
	DW	00H
	DW	00H
	DW	00H
	DW	00H
	DW	00H
	DW	00H
	DW	00H
	DW	00H
	DW	00H
	DW	00H
	DW	00H
	DW	00H
	DW	00H
	DW	00H
	DW	00H
	DW	00H
	DW	00H
	DW	00H
	DW	00H
	DW	00H
	DW	00H
	DW	00H
	DW	00H
	DW	00H
	DW	00H
	DW	00H
	DW	00H
	DW	00H
	DW	00H
	DW	00H
	DW	00H
	DW	00H
	DW	00H
	DW	00H
	DW	00H
	DW	00H
	DW	00H
	DW	00H
	DW	00H
	DW	00H
	DW	00H
	DW	00H
	DW	00H
	DW	00H
	DW	00H
	DW	00H
	DW	00H
	DW	00H
	DW	00H
	DW	00H
	DW	00H
	DW	00H
	DW	00H
	DW	00H
	DW	00H
	DW	00H
	DW	00H
	DW	00H
	DW	00H
	DW	00H
	DW	00H
	DW	00H
	DW	00H
	DW	00H
	DW	00H
	DW	00H
	DW	00H
	DW	00H
	DW	00H
	DW	00H
	DW	00H
	DW	00H
	DW	00H
	DW	00H
	DW	00H
	DW	00H
	DW	00H
	DW	00H
	DW	00H
	DW	00H
	DW	00H
	DW	00H
	DW	00H
	DW	00H
	DW	00H
	DW	00H
	DW	00H
	DW	00H
	DW	00H
	DW	00H
	DW	00H
	DW	00H
	DW	00H
	DW	00H
	DW	00H
	DW	00H
	DW	00H
	DW	00H
	DW	00H
	DW	00H
	DW	00H
	DW	00H
	DW	00H
	DW	00H
	DW	00H
	DW	00H
	DW	00H
	DW	00H
	DW	00H
	DW	00H
	DW	00H
	DW	00H
	DW	00H
	DW	00H
	DW	00H
	DW	00H
	DW	00H
	DW	00H
	DW	00H
	DW	00H
	DW	00H
	DW	00H
	DW	00H
	DW	00H
	DW	00H
	DW	00H
	DW	00H
	DW	00H
	DW	00H
	DW	00H
	DW	00H
	DW	00H
	DW	00H
	DW	00H
	DW	00H
	DW	00H
	DW	00H
	DW	00H
	DW	00H
	DW	00H
	DW	00H
	DW	00H
	DW	00H
	DW	00H
	DW	00H
	DW	00H
	DW	00H
	DW	00H
	DW	00H
	DW	00H
	DW	00H
	DW	00H
	DW	00H
	DW	00H
	DW	00H
	DW	00H
	DW	00H
	DW	00H
	DW	00H
	DW	00H
	DW	00H
	DW	00H
	DW	00H
	DW	00H
	DW	00H
	DW	00H
	DW	00H
	DW	00H
	DW	00H
	DW	00H
	DW	00H
	DW	00H
	DW	00H
	DW	00H
	DW	00H
	DW	00H
	DW	00H
	DW	00H
	DW	00H
	DW	00H
	DW	00H
	DW	00H
	DW	00H
	DW	00H
	DW	00H
	DW	00H
	DW	00H
	DW	00H
	DW	00H
	DW	00H
	DW	00H
	DW	00H
	DW	00H
	DW	00H
	DW	00H
	DW	00H
	DW	00H
	DW	00H
	DW	00H
	DW	00H
	DW	00H
	DW	00H
	DW	00H
	DW	00H
	DW	00H
	DW	00H
	DW	00H
	DW	00H
	DW	00H
	DW	00H
	DW	00H
	DW	00H
	DW	00H
	DW	00H
	DW	00H
	DW	00H
	DW	00H
	DW	00H
	DW	00H
	DW	00H
	DW	00H
	DW	00H
	DW	00H
	DW	00H
	DW	00H
	DW	00H
	DW	00H
	DW	00H
	DW	00H
	DW	00H
	DW	00H
	DW	00H
	DW	00H
	DW	00H
	DW	00H
	DW	00H
	DW	00H
	DW	00H
	DW	00H
	DW	00H
	DW	00H
	DW	00H
	DW	00H
	DW	00H
	DW	00H
	DW	00H
	DW	00H
	DW	00H
	DW	00H
	DW	00H
	DW	00H
	DW	00H
	DW	00H
	DW	00H
	DW	00H
	DW	00H
	DW	00H
	DW	00H
	DW	00H
	DW	00H
	DW	00H
	DW	00H
	DW	00H
	DW	00H
	DW	00H
	DW	00H
	DW	00H
	DW	00H
	DW	00H
	DW	00H
	DW	00H
	DW	00H
	DW	00H
	DW	00H
	DW	00H
	DW	00H
	DW	00H
	DW	00H
	DW	00H
	DW	00H
	DW	00H
	DW	00H
	DW	00H
	DW	00H
	DW	00H
	DW	00H
	DW	00H
	DW	00H
	DW	00H
	DW	00H
	DW	00H
	DW	00H
	DW	00H
	DW	00H
	DW	00H
	DW	00H
	DW	00H
	DW	00H
	DW	00H
	DW	00H
	DW	00H
	DW	00H
	DW	00H
	DW	00H
	DW	00H
	DW	00H
	DW	00H
	DW	00H
	DW	00H
	DW	00H
	DW	00H
	DW	00H
	DW	00H
	DW	00H
	DW	00H
	DW	00H
	DW	00H
	DW	00H
	DW	00H
	DW	00H
	DW	00H
	DW	00H
	DW	00H
	DW	00H
	DW	00H
	DW	00H
	DW	00H
	DW	00H
	DW	00H
	DW	00H
	DW	00H
	DW	00H
	DW	00H
	DW	00H
	DW	00H
	DW	00H
	DW	00H
	DW	00H
	DW	00H
	DW	00H
	DW	00H
	DW	00H
	DW	00H
	DW	00H
	DW	00H
	DW	00H
	DW	00H
	DW	00H
	DW	00H
	DW	00H
	DW	00H
	DW	00H
	DW	00H
	DW	00H
	DW	00H
	DW	00H
	DW	00H
	DW	00H
	DW	00H
	DW	00H
	DW	00H
	DW	00H
	DW	00H
	DW	00H
	DW	00H
	DW	00H
	DW	00H
	DW	00H
	DW	00H
	DW	00H
	DW	00H
	DW	00H
	DW	00H
	DW	00H
	DW	00H
	DW	00H
	DW	00H
	DW	00H
	DW	00H
	DW	00H
	DW	00H
	DW	00H
	DW	00H
	DW	00H
	DW	00H
	DW	00H
	DW	00H
	DW	00H
	DW	00H
	DW	00H
	DW	00H
	DW	00H
	DW	00H
	DW	00H
	DW	00H
	DW	00H
	DW	00H
	DW	00H
	DW	00H
	DW	00H
	DW	00H
	DW	00H
	DW	00H
	DW	00H
	DW	00H
	DW	00H
	DW	00H
	DW	00H
	DW	00H
	DW	00H
	DW	00H
	DW	00H
	DW	00H
	DW	00H
	DW	00H
	DW	00H
	DW	00H
	DW	00H
	DW	00H
	DW	00H
	DW	00H
	DW	00H
	DW	00H
	DW	00H
	DW	00H
	DW	00H
	DW	00H
	DW	00H
	DW	00H
	DW	00H
	DW	00H
	DW	00H
	DW	00H
	DW	00H
	DW	00H
	DW	00H
	DW	00H
	DW	00H
	DW	00H
	DW	00H
	DW	00H
	DW	00H
	DW	00H
	DW	00H
	DW	00H
	DW	00H
	DW	00H
	DW	00H
	DW	00H
	DW	00H
	DW	00H
	DW	00H
	DW	00H
	DW	00H
	DW	00H
	DW	00H
	DW	00H
	DW	00H
	DW	00H
	DW	00H
	DW	00H
	DW	00H
	DW	00H
	DW	00H
	DW	00H
	DW	00H
	DW	00H
	DW	00H
	DW	00H
	DW	00H
	DW	00H
	DW	00H
	DW	00H
	DW	00H
	DW	00H
	DW	00H
	DW	00H
	DW	00H
	DW	00H
	DW	00H
	DW	00H
	DW	00H
	DW	00H
	DW	00H
	DW	00H
	DW	00H
	DW	00H
	DW	00H
	DW	00H
	DW	00H
	DW	00H
	DW	00H
	DW	00H
	DW	00H
	DW	00H
	DW	00H
	DW	00H
	DW	00H
	DW	00H
	DW	00H
	DW	00H
	DW	00H
	DW	00H
	DW	00H
	DW	00H
	DW	00H
	DW	00H
	DW	00H
	DW	00H
	DW	00H
	DW	00H
	DW	00H
	DW	00H
	DW	00H
	DW	00H
	DW	00H
	DW	00H
	DW	00H
	DW	00H
	DW	00H
	DW	00H
	DW	00H
	DW	00H
	DW	00H
	DW	00H
	DW	00H
	DW	00H
	DW	00H
	DW	00H
	DW	00H
	DW	00H
	DW	00H
	DW	00H
	DW	00H
	DW	00H
	DW	00H
	DW	00H
	DW	00H
	DW	00H
	DW	00H
	DW	00H
	DW	00H
	DW	00H
	DW	00H
	DW	00H
	DW	00H
	DW	00H
	DW	00H
	DW	00H
	DW	00H
	DW	00H
	DW	00H
	DW	00H
	DW	00H
	DW	00H
	DW	00H
	DW	00H
	DW	00H
	DW	00H
	DW	00H
	DW	00H
	DW	00H
	DW	00H
	DW	00H
	DW	00H
	DW	00H
	DW	00H
	DW	00H
	DW	00H
	DW	00H
	DW	00H
	DW	00H
	DW	00H
	DW	00H
	DW	00H
	DW	00H
	DW	00H
	DW	00H
	DW	00H
	DW	00H
	DW	00H
	DW	00H
	DW	00H
	DW	00H
	DW	00H
	DW	00H
	DW	00H
	DW	00H
	DW	00H
	DW	00H
	DW	00H
	DW	00H
	DW	00H
	DW	00H
	DW	00H
	DW	00H
	DW	00H
	DW	00H
	DW	00H
	DW	00H
	DW	00H
	DW	00H
	DW	00H
	DW	00H
	DW	00H
	DW	00H
	DW	00H
	DW	00H
	DW	00H
	DW	00H
	DW	00H
	DW	00H
	DW	00H
	DW	00H
	DW	00H
	DW	00H
	DW	00H
	DW	00H
	DW	00H
	DW	00H
	DW	00H
	DW	00H
	DW	00H
	DW	00H
	DW	00H
	DW	00H
	DW	00H
	DW	00H
	DW	00H
	DW	00H
	DW	00H
	DW	00H
	DW	00H
	DW	00H
	DW	00H
	DW	00H
	DW	00H
	DW	00H
	DW	00H
	DW	00H
	DW	00H
	DW	00H
	DW	00H
	DW	00H
	DW	00H
	DW	00H
	DW	00H
	DW	00H
	DW	00H
	DW	00H
	DW	00H
	DW	00H
	DW	00H
	DW	00H
	DW	00H
	DW	00H
	DW	00H
	DW	00H
	DW	00H
	DW	00H
	DW	00H
	DW	00H
	DW	00H
	DW	00H
	DW	00H
	DW	00H
	DW	00H
	DW	00H
	DW	00H
	DW	00H
	DW	00H
	DW	00H
	DW	00H
	DW	00H
	DW	00H
	DW	00H
	DW	00H
	DW	00H
	DW	00H
	DW	00H
	DW	00H
	DW	00H
	DW	00H
	DW	00H
	DW	00H
	DW	00H
	DW	00H
	DW	00H
	DW	00H
	DW	00H
	DW	00H
	DW	00H
	DW	00H
	DW	00H
	DW	00H
	DW	00H
	DW	00H
	DW	00H
	DW	00H
	DW	00H
	DW	00H
	DW	00H
	DW	00H
	DW	00H
	DW	00H
	DW	00H
	DW	00H
	DW	00H
	DW	00H
	DW	00H
	DW	00H
	DW	00H
	DW	00H
	DW	00H
	DW	00H
	DW	00H
	DW	00H
	DW	00H
	DW	00H
	DW	00H
	DW	00H
	DW	00H
	DW	00H
	DW	00H
	DW	00H
	DW	00H
	DW	00H
	DW	00H
	DW	00H
	DW	00H
	DW	00H
	DW	00H
	DW	00H
	DW	00H
	DW	00H
	DW	00H
	DW	00H
	DW	00H
	DW	00H
	DW	00H
	DW	00H
	DW	00H
	DW	00H
	DW	00H
	DW	00H
	DW	00H
	DW	00H
	DW	00H
	DW	00H
	DW	00H
	DW	00H
	DW	00H
	DW	00H
	DW	00H
	DW	00H
	DW	00H
	DW	00H
	DW	00H
	DW	00H
	DW	00H
	DW	00H
	DW	00H
	DW	00H
	DW	00H
	DW	00H
	DW	00H
	DW	00H
	DW	00H
	DW	00H
	DW	00H
	DW	00H
	DW	00H
	DW	00H
	DW	00H
	DW	00H
	DW	00H
	DW	00H
	DW	00H
	DW	00H
	DW	00H
	DW	00H
	DW	00H
	DW	00H
	DW	00H
	DW	00H
	DW	00H
	DW	00H
	DW	00H
	DW	00H
	DW	00H
	DW	00H
	DW	00H
	DW	00H
	DW	00H
	DW	00H
	DW	00H
	DW	00H
	DW	00H
	DW	00H
	DW	00H
	DW	00H
	DW	00H
	DW	00H
	DW	00H
	DW	00H
	DW	00H
	DW	00H
	DW	00H
	DW	00H
	DW	00H
	DW	00H
	DW	00H
	DW	00H
	DW	00H
	DW	00H
	DW	00H
	DW	00H
	DW	00H
	DW	00H
	DW	00H
	DW	00H
	DW	00H
	DW	00H
	DW	00H
	DW	00H
	DW	00H
	DW	00H
	DW	00H
	DW	00H
	DW	00H
	DW	00H
	DW	00H
	DW	00H
	DW	00H
	DW	00H
	DW	00H
	DW	00H
	DW	00H
	DW	00H
	DW	00H
	DW	00H
	DW	00H
	DW	00H
	DW	00H
	DW	00H
	DW	00H
	DW	00H
	DW	00H
	DW	00H
	DW	00H
	DW	00H
	DW	00H
	DW	00H
	DW	00H
	DW	00H
	DW	00H
	DW	00H
	DW	00H
	DW	00H
	DW	00H
	DW	00H
	DW	00H
	DW	00H
	DW	00H
	DW	00H
	DW	00H
	DW	00H
	DW	00H
	DW	00H
	DW	00H
	DW	00H
	DW	00H
	DW	00H
	DW	00H
	DW	00H
	DW	00H
	DW	00H
	DW	00H
	DW	00H
	DW	00H
	DW	00H
	DW	00H
	DW	00H
	DW	00H
	DW	00H
	DW	00H
	DW	00H
	DW	00H
	DW	00H
	DW	00H
	DW	00H
	DW	00H
	DW	00H
	DW	00H
	DW	00H
	DW	00H
	DW	00H
	DW	00H
	DW	00H
	DW	00H
	DW	00H
	DW	00H
	DW	00H
	DW	00H
	DW	00H
	DW	00H
	DW	00H
	DW	00H
	DW	00H
	DW	00H
	DW	00H
	DW	00H
	DW	00H
	DW	00H
	DW	00H
	DW	00H
	DW	00H
	DW	00H
	DW	00H
	DW	00H
	DW	00H
	DW	00H
	DW	00H
	DW	00H
	DW	00H
	DW	00H
	DW	00H
	DW	00H
	DW	00H
	DW	00H
	DW	00H
	DW	00H
	DW	00H
	DW	00H
	DW	00H
	DW	00H
	DW	00H
	DW	00H
	DW	00H
	DW	00H
	DW	00H
	DW	00H
	DW	00H
	DW	00H
	DW	00H
	DW	00H
	DW	00H
	DW	00H
	DW	00H
	DW	00H
	DW	00H
	DW	00H
	DW	00H
	DW	00H
	DW	00H
	DW	00H
	DW	00H
	DW	00H
	DW	00H
	DW	00H
	DW	00H
	DW	00H
	DW	00H
	DW	00H
	DW	00H
	DW	00H
	DW	00H
	DW	00H
	DW	00H
	DW	00H
	DW	00H
	DW	00H
	DW	00H
	DW	00H
	DW	00H
	DW	00H
	DW	00H
	DW	00H
	DW	00H
	DW	00H
	DW	00H
	DW	00H
	DW	00H
	DW	00H
	DW	00H
	DW	00H
	DW	00H
	DW	00H
	DW	00H
	DW	00H
	DW	00H
	DW	00H
	DW	00H
	DW	00H
	DW	00H
	DW	00H
	DW	00H
	DW	00H
	DW	00H
	DW	00H
	DW	00H
	DW	00H
	DW	00H
	DW	00H
	DW	00H
	DW	00H
	DW	00H
	DW	00H
	DW	00H
	DW	00H
	DW	00H
	DW	00H
	DW	00H
	DW	00H
	DW	00H
	DW	00H
	DW	00H
	DW	00H
	DW	00H
	DW	00H
	DW	00H
	DW	00H
	DW	00H
	DW	00H
	DW	00H
	DW	00H
	DW	00H
	DW	00H
	DW	00H
	DW	00H
	DW	00H
	DW	00H
	DW	00H
	DW	00H
	DW	00H
	DW	00H
	DW	00H
	DW	00H
	DW	00H
	DW	00H
	DW	00H
	DW	00H
	DW	00H
	DW	00H
	DW	00H
	DW	00H
	DW	00H
	DW	00H
	DW	00H
	DW	00H
	DW	00H
	DW	00H
	DW	00H
	DW	00H
	DW	00H
	DW	00H
	DW	00H
	DW	00H
	DW	00H
	DW	00H
	DW	00H
	DW	00H
	DW	00H
	DW	00H
	DW	00H
	DW	00H
	DW	00H
	DW	00H
	DW	00H
	DW	00H
	DW	00H
	DW	00H
	DW	00H
	DW	00H
	DW	00H
	DW	00H
	DW	00H
	DW	00H
	DW	00H
	DW	00H
	DW	00H
	DW	00H
	DW	00H
	DW	00H
	DW	00H
	DW	00H
	DW	00H
	DW	00H
	DW	00H
	DW	00H
	DW	00H
	DW	00H
	DW	00H
	DW	00H
	DW	00H
	DW	00H
	DW	00H
	DW	00H
	DW	00H
	DW	00H
	DW	00H
	DW	00H
	DW	00H
	DW	00H
	DW	00H
	DW	00H
	DW	00H
	DW	00H
	DW	00H
	DW	00H
	DW	00H
	DW	00H
	DW	00H
	DW	00H
	DW	00H
	DW	00H
	DW	00H
	DW	00H
	DW	00H
	DW	00H
	DW	00H
	DW	00H
	DW	00H
	DW	00H
	DW	00H
	DW	00H
	DW	00H
	DW	00H
	DW	00H
	DW	00H
	DW	00H
	DW	00H
	DW	00H
	DW	00H
	DW	00H
	DW	00H
	DW	00H
	DW	00H
	DW	00H
	DW	00H
	DW	00H
	DW	00H
	DW	00H
	DW	00H
	DW	00H
	DW	00H
	DW	00H
	DW	00H
	DW	00H
	DW	00H
	DW	00H
	DW	00H
	DW	00H
	DW	00H
	DW	00H
	DW	00H
	DW	00H
	DW	00H
	DW	00H
	DW	00H
	DW	00H
	DW	00H
	DW	00H
	DW	00H
	DW	00H
	DW	00H
	DW	00H
	DW	00H
	DW	00H
	DW	00H
	DW	00H
	DW	00H
	DW	00H
	DW	00H
	DW	00H
	DW	00H
	DW	00H
	DW	00H
	DW	00H
	DW	00H
	DW	00H
	DW	00H
	DW	00H
	DW	00H
	DW	00H
	DW	00H
	DW	00H
	DW	00H
	DW	00H
	DW	00H
	DW	00H
	DW	00H
	DW	00H
	DW	00H
	DW	00H
	DW	00H
	DW	00H
	DW	00H
	DW	00H
	DW	00H
	DW	00H
	DW	00H
	DW	00H
	DW	00H
	DW	00H
	DW	00H
	DW	00H
	DW	00H
	DW	00H
	DW	00H
	DW	00H
	DW	00H
	DW	00H
	DW	00H
	DW	00H
	DW	00H
	DW	00H
	DW	00H
	DW	00H
	DW	00H
	DW	00H
	DW	00H
	DW	00H
	DW	00H
	DW	00H
	DW	00H
	DW	00H
	DW	00H
	DW	00H
	DW	00H
	DW	00H
	DW	00H
	DW	00H
	DW	00H
	DW	00H
	DW	00H
	DW	00H
	DW	00H
	DW	00H
	DW	00H
	DW	00H
	DW	00H
	DW	00H
	DW	00H
	DW	00H
	DW	00H
	DW	00H
	DW	00H
	DW	00H
	DW	00H
	DW	00H
	DW	00H
	DW	00H
	DW	00H
	DW	00H
	DW	00H
	DW	00H
	DW	00H
	DW	00H
	DW	00H
	DW	00H
	DW	00H
	DW	00H
	DW	00H
	DW	00H
	DW	00H
	DW	00H
	DW	00H
	DW	00H
	DW	00H
	DW	00H
	DW	00H
	DW	00H
	DW	00H
	DW	00H
	DW	00H
	DW	00H
	DW	00H
	DW	00H
	DW	00H
	DW	00H
	DW	00H
	DW	00H
	DW	00H
	DW	00H
	DW	00H
	DW	00H
	DW	00H
	DW	00H
	DW	00H
	DW	00H
	DW	00H
	DW	00H
	DW	00H
	DW	00H
	DW	00H
	DW	00H
	DW	00H
	DW	00H
	DW	00H
	DW	00H
	DW	00H
	DW	00H
	DW	00H
	DW	00H
	DW	00H
	DW	00H
	DW	00H
	DW	00H
	DW	00H
	DW	00H
	DW	00H
	DW	00H
	DW	00H
	DW	00H
	DW	00H
	DW	00H
	DW	00H
	DW	00H
	DW	00H
	DW	00H
	DW	00H
	DW	00H
	DW	00H
	DW	00H
	DW	00H
	DW	00H
	DW	00H
	DW	00H
	DW	00H
	DW	00H
	DW	00H
	DW	00H
	DW	00H
	DW	00H
	DW	00H
	DW	00H
	DW	00H
	DW	00H
	DW	00H
	DW	00H
	DW	00H
	DW	00H
	DW	00H
	DW	00H
	DW	00H
	DW	00H
	DW	00H
	DW	00H
	DW	00H
	DW	00H
	DW	00H
	DW	00H
	DW	00H
	DW	00H
	DW	00H
	DW	00H
	DW	00H
	DW	00H
	DW	00H
	DW	00H
	DW	00H
	DW	00H
	DW	00H
	DW	00H
	DW	00H
	DW	00H
	DW	00H
	DW	00H
	DW	00H
	DW	00H
	DW	00H
	DW	00H
	DW	00H
	DW	00H
	DW	00H
	DW	00H
	DW	00H
	DW	00H
	DW	00H
	DW	00H
	DW	00H
	DW	00H
	DW	00H
	DW	00H
	DW	00H
	DW	00H
	DW	00H
	DW	00H
	DW	00H
	DW	00H
	DW	00H
	DW	00H
	DW	00H
	DW	00H
	DW	00H
	DW	00H
	DW	00H
	DW	00H
	DW	00H
	DW	00H
	DW	00H
	DW	00H
	DW	00H
	DW	00H
	DW	00H
	DW	00H
	DW	00H
	DW	00H
	DW	00H
	DW	00H
	DW	00H
	DW	00H
	DW	00H
	DW	00H
	DW	00H
	DW	00H
	DW	00H
	DW	00H
	DW	00H
	DW	00H
	DW	00H
	DW	00H
	DW	00H
	DW	00H
	DW	00H
	DW	00H
	DW	00H
	DW	00H
	DW	00H
	DW	00H
	DW	00H
	DW	00H
	DW	00H
	DW	00H
	DW	00H
	DW	00H
	DW	00H
	DW	00H
	DW	00H
	DW	00H
	DW	00H
	DW	00H
	DW	00H
	DW	00H
	DW	00H
	DW	00H
	DW	00H
	DW	00H
	DW	00H
	DW	00H
	DW	00H
	DW	00H
	DW	00H
	DW	00H
	DW	00H
	DW	00H
	DW	00H
	DW	00H
	DW	00H
	DW	00H
	DW	00H
	DW	00H
	DW	00H
	DW	00H
	DW	00H
	DW	00H
	DW	00H
	DW	00H
	DW	00H
	DW	00H
	DW	00H
	DW	00H
	DW	00H
	DW	00H
	DW	00H
	DW	00H
	DW	00H
	DW	00H
	DW	00H
	DW	00H
	DW	00H
	DW	00H
	DW	00H
	DW	00H
	DW	00H
	DW	00H
	DW	00H
	DW	00H
	DW	00H
	DW	00H
	DW	00H
	DW	00H
	DW	00H
	DW	00H
	DW	00H
	DW	00H
	DW	00H
	DW	00H
	DW	00H
	DW	00H
	DW	00H
	DW	00H
	DW	00H
	DW	00H
	DW	00H
	DW	00H
	DW	00H
	DW	00H
	DW	00H
	DW	00H
	DW	00H
	DW	00H
	DW	00H
	DW	00H
	DW	00H
	DW	00H
	DW	00H
	DW	00H
	DW	00H
	DW	00H
	DW	00H
	DW	00H
	DW	00H
	DW	00H
	DW	00H
	DW	00H
	DW	00H
	DW	00H
	DW	00H
	DW	00H
	DW	00H
	DW	00H
	DW	00H
	DW	00H
	DW	00H
	DW	00H
	DW	00H
	DW	00H
	DW	00H
	DW	00H
	DW	00H
	DW	00H
	DW	00H
	DW	00H
	DW	00H
	DW	00H
	DW	00H
	DW	00H
	DW	00H
	DW	00H
	DW	00H
	DW	00H
	DW	00H
	DW	00H
	DW	00H
	DW	00H
	DW	00H
	DW	00H
	DW	00H
	DW	00H
	DW	00H
	DW	00H
	DW	00H
	DW	00H
	DW	00H
	DW	00H
	DW	00H
	DW	00H
	DW	00H
	DW	00H
	DW	00H
	DW	00H
	DW	00H
	DW	00H
	DW	00H
	DW	00H
	DW	00H
	DW	00H
	DW	00H
	DW	00H
	DW	00H
	DW	00H
	DW	00H
	DW	00H
	DW	00H
	DW	00H
	DW	00H
	DW	00H
	DW	00H
	DW	00H
	DW	00H
	DW	00H
	DW	00H
	DW	00H
	DW	00H
	DW	00H
	DW	00H
	DW	00H
	DW	00H
	DW	00H
	DW	00H
	DW	00H
	DW	00H
	DW	00H
	DW	00H
	DW	00H
	DW	00H
	DW	00H
	DW	00H
	DW	00H
	DW	00H
	DW	00H
	DW	00H
	DW	00H
	DW	00H
	DW	00H
	DW	00H
	DW	00H
	DW	00H
	DW	00H
	DW	00H
	DW	00H
	DW	00H
	DW	00H
	DW	00H
	DW	00H
	DW	00H
	DW	00H
	DW	00H
	DW	00H
	DW	00H
	DW	00H
	DW	00H
	DW	00H
	DW	00H
	DW	00H
	DW	00H
	DW	00H
	DW	00H
	DW	00H
	DW	00H
	DW	00H
	DW	00H
	DW	00H
	DW	00H
	DW	00H
	DW	00H
	DW	00H
	DW	00H
	DW	00H
	DW	00H
	DW	00H
	DW	00H
	DW	00H
	DW	00H
	DW	00H
	DW	00H
	DW	00H
	DW	00H
	DW	00H
	DW	00H
	DW	00H
	DW	00H
	DW	00H
	DW	00H
	DW	00H
	DW	00H
	DW	00H
	DW	00H
	DW	00H
	DW	00H
	DW	00H
	DW	00H
	DW	00H
	DW	00H
	DW	00H
	DW	00H
	DW	00H
	DW	00H
	DW	00H
	DW	00H
	DW	00H
	DW	00H
	DW	00H
	DW	00H
	DW	00H
	DW	00H
	DW	00H
	DW	00H
	DW	00H
	DW	00H
	DW	00H
	DW	00H
	DW	00H
	DW	00H
	DW	00H
	DW	00H
	DW	00H
	DW	00H
	DW	00H
	DW	00H
	DW	00H
	DW	00H
	DW	00H
	DW	00H
	DW	00H
	DW	00H
	DW	00H
	DW	00H
	DW	00H
	DW	00H
	DW	00H
	DW	00H
	DW	00H
	DW	00H
	DW	00H
	DW	00H
	DW	00H
	DW	00H
	DW	00H
	DW	00H
	DW	00H
	DW	00H
	DW	00H
	DW	00H
	DW	00H
	DW	00H
	DW	00H
	DW	00H
	DW	00H
	DW	00H
	DW	00H
	DW	00H
	DW	00H
	DW	00H
	DW	00H
	DW	00H
	DW	00H
	DW	00H
	DW	00H
	DW	00H
	DW	00H
	DW	00H
	DW	00H
	DW	00H
	DW	00H
	DW	00H
	DW	00H
	DW	00H
	DW	00H
	DW	00H
	DW	00H
	DW	00H
	DW	00H
	DW	00H
	DW	00H
	DW	00H
	DW	00H
	DW	00H
	DW	00H
	DW	00H
	DW	00H
	DW	00H
	DW	00H
	DW	00H
	DW	00H
	DW	00H
	DW	00H
	DW	00H
	DW	00H
	DW	00H
	DW	00H
	DW	00H
	DW	00H
	DW	00H
	DW	00H
	DW	00H
	DW	00H
	DW	00H
	DW	00H
	DW	00H
	DW	00H
	DW	00H
	DW	00H
	DW	00H
	DW	00H
	DW	00H
	DW	00H
	DW	00H
	DW	00H
	DW	00H
	DW	00H
	DW	00H
	DW	00H
	DW	00H
	DW	00H
	DW	00H
	DW	00H
	DW	00H
	DW	00H
	DW	00H
	DW	00H
	DW	00H
	DW	00H
	DW	00H
	DW	00H
	DW	00H
	DW	00H
	DW	00H
	DW	00H
	DW	00H
	DW	00H
	DW	00H
	DW	00H
	DW	00H
	DW	00H
	DW	00H
	DW	00H
	DW	00H
	DW	00H
	DW	00H
	DW	00H
	DW	00H
	DW	00H
	DW	00H
	DW	00H
	DW	00H
	DW	00H
	DW	00H
	DW	00H
	DW	00H
	DW	00H
	DW	00H
	DW	00H
	DW	00H
	DW	00H
	DW	00H
	DW	00H
	DW	00H
	DW	00H
	DW	00H
	DW	00H
	DW	00H
	DW	00H
	DW	00H
	DW	00H
	DW	00H
	DW	00H
	DW	00H
	DW	00H
	DW	00H
	DW	00H
	DW	00H
	DW	00H
	DW	00H
	DW	00H
	DW	00H
	DW	00H
	DW	00H
	DW	00H
	DW	00H
	DW	00H
	DW	00H
	DW	00H
	DW	00H
	DW	00H
	DW	00H
	DW	00H
	DW	00H
	DW	00H
	DW	00H
	DW	0400H
	DW	0400H
	DW	0400H
	DW	0800H
	DW	0800H
	DW	0800H
	DW	0800H
	DW	0c00H
	DW	0c00H
	DW	0c00H
	DW	0800H
	DW	0800H
	DW	0800H
	DW	0800H
	DW	0800H
	DW	0c00H
	DW	0c20H
	DW	0c20H
	DW	0c20H
	DW	0c20H
	DW	0c20H
	DW	0c20H
	DW	0c20H
	DW	0c20H
	DW	0c00H
	DW	0800H
	DW	0800H
	DW	0800H
	DW	0800H
	DW	0800H
	DW	0800H
	DW	0800H
	DW	0c00H
	DW	0800H
	DW	0800H
	DW	0800H
	DW	0800H
	DW	0400H
	DW	0400H
	DW	0400H
	DW	00H
	DW	00H
	DW	00H
	DW	00H
	DW	00H
	DW	00H
	DW	00H
	DW	00H
	DW	00H
	DW	00H
	DW	00H
	DW	00H
	DW	00H
	DW	00H
	DW	00H
	DW	00H
	DW	00H
	DW	00H
	DW	00H
	DW	00H
	DW	00H
	DW	00H
	DW	00H
	DW	00H
	DW	00H
	DW	00H
	DW	00H
	DW	00H
	DW	00H
	DW	00H
	DW	00H
	DW	00H
	DW	00H
	DW	00H
	DW	00H
	DW	00H
	DW	00H
	DW	00H
	DW	00H
	DW	00H
	DW	00H
	DW	00H
	DW	00H
	DW	00H
	DW	00H
	DW	00H
	DW	00H
	DW	00H
	DW	00H
	DW	00H
	DW	00H
	DW	00H
	DW	00H
	DW	00H
	DW	00H
	DW	00H
	DW	00H
	DW	00H
	DW	00H
	DW	00H
	DW	00H
	DW	00H
	DW	00H
	DW	00H
	DW	00H
	DW	00H
	DW	00H
	DW	00H
	DW	00H
	DW	00H
	DW	00H
	DW	00H
	DW	00H
	DW	00H
	DW	00H
	DW	00H
	DW	00H
	DW	00H
	DW	00H
	DW	00H
	DW	00H
	DW	00H
	DW	00H
	DW	00H
	DW	00H
	DW	00H
	DW	00H
	DW	00H
	DW	00H
	DW	00H
	DW	00H
	DW	00H
	DW	00H
	DW	00H
	DW	00H
	DW	00H
	DW	00H
	DW	00H
	DW	00H
	DW	00H
	DW	00H
	DW	00H
	DW	00H
	DW	00H
	DW	00H
	DW	00H
	DW	00H
	DW	00H
	DW	00H
	DW	00H
	DW	00H
	DW	00H
	DW	00H
	DW	00H
	DW	00H
	DW	00H
	DW	00H
	DW	00H
	DW	00H
	DW	00H
	DW	00H
	DW	00H
	DW	00H
	DW	00H
	DW	00H
	DW	00H
	DW	00H
	DW	00H
	DW	00H
	DW	00H
	DW	00H
	DW	00H
	DW	00H
	DW	00H
	DW	00H
	DW	00H
	DW	00H
	DW	00H
	DW	00H
	DW	00H
	DW	00H
	DW	00H
	DW	00H
	DW	00H
	DW	00H
	DW	00H
	DW	00H
	DW	00H
	DW	00H
	DW	00H
	DW	00H
	DW	00H
	DW	00H
	DW	00H
	DW	00H
	DW	00H
	DW	00H
	DW	00H
	DW	00H
	DW	00H
	DW	00H
	DW	00H
	DW	00H
	DW	00H
	DW	00H
	DW	00H
	DW	00H
	DW	00H
	DW	00H
	DW	00H
	DW	00H
	DW	00H
	DW	00H
	DW	00H
	DW	00H
	DW	00H
	DW	00H
	DW	00H
	DW	00H
	DW	00H
	DW	00H
	DW	00H
	DW	00H
	DW	00H
	DW	00H
	DW	00H
	DW	00H
	DW	00H
	DW	00H
	DW	00H
	DW	00H
	DW	00H
	DW	00H
	DW	00H
	DW	00H
	DW	00H
	DW	00H
	DW	00H
	DW	00H
	DW	00H
	DW	00H
	DW	00H
	DW	00H
	DW	00H
	DW	00H
	DW	00H
	DW	00H
	DW	00H
	DW	00H
	DW	00H
	DW	00H
	DW	00H
	DW	00H
	DW	00H
	DW	00H
	DW	00H
	DW	00H
	DW	00H
	DW	00H
	DW	00H
	DW	00H
	DW	00H
	DW	00H
	DW	00H
	DW	00H
	DW	00H
	DW	00H
	DW	00H
	DW	00H
	DW	00H
	DW	00H
	DW	00H
	DW	00H
	DW	00H
	DW	00H
	DW	00H
	DW	00H
	DW	00H
	DW	00H
	DW	00H
	DW	00H
	DW	00H
	DW	00H
	DW	00H
	DW	00H
	DW	00H
	DW	00H
	DW	00H
	DW	00H
	DW	00H
	DW	00H
	DW	00H
	DW	00H
	DW	00H
	DW	00H
	DW	00H
	DW	00H
	DW	00H
	DW	00H
	DW	00H
	DW	00H
	DW	00H
	DW	00H
	DW	00H
	DW	00H
	DW	00H
	DW	00H
	DW	00H
	DW	00H
	DW	00H
	DW	00H
	DW	00H
	DW	00H
	DW	00H
	DW	00H
	DW	00H
	DW	00H
	DW	00H
	DW	00H
	DW	00H
	DW	00H
	DW	00H
	DW	00H
	DW	00H
	DW	00H
	DW	00H
	DW	00H
	DW	00H
	DW	00H
	DW	00H
	DW	00H
	DW	00H
	DW	00H
	DW	00H
	DW	00H
	DW	00H
	DW	00H
	DW	00H
	DW	00H
	DW	00H
	DW	00H
	DW	00H
	DW	00H
	DW	00H
	DW	00H
	DW	00H
	DW	00H
	DW	00H
	DW	00H
	DW	00H
	DW	00H
	DW	00H
	DW	00H
	DW	00H
	DW	00H
	DW	00H
	DW	00H
	DW	00H
	DW	00H
	DW	00H
	DW	00H
	DW	00H
	DW	00H
	DW	00H
	DW	00H
	DW	00H
	DW	00H
	DW	00H
	DW	00H
	DW	00H
	DW	00H
	DW	00H
	DW	00H
	DW	00H
	DW	00H
	DW	00H
	DW	00H
	DW	00H
	DW	00H
	DW	00H
	DW	00H
	DW	00H
	DW	00H
	DW	00H
	DW	00H
	DW	00H
	DW	00H
	DW	00H
	DW	00H
	DW	00H
	DW	00H
	DW	00H
	DW	00H
	DW	00H
	DW	00H
	DW	00H
	DW	00H
	DW	00H
	DW	00H
	DW	00H
	DW	00H
	DW	00H
	DW	00H
	DW	00H
	DW	00H
	DW	00H
	DW	00H
	DW	00H
	DW	00H
	DW	00H
	DW	00H
	DW	00H
	DW	00H
	DW	00H
	DW	00H
	DW	00H
	DW	00H
	DW	00H
	DW	00H
	DW	00H
	DW	00H
	DW	00H
	DW	00H
	DW	00H
	DW	00H
	DW	00H
	DW	00H
	DW	00H
	DW	00H
	DW	00H
	DW	00H
	DW	00H
	DW	00H
	DW	00H
	DW	00H
	DW	00H
	DW	00H
	DW	00H
	DW	00H
	DW	00H
	DW	00H
	DW	00H
	DW	00H
	DW	00H
	DW	00H
	DW	00H
	DW	00H
	DW	00H
	DW	00H
	DW	00H
	DW	00H
	DW	00H
	DW	00H
	DW	00H
	DW	00H
	DW	00H
	DW	00H
	DW	00H
	DW	00H
	DW	00H
	DW	0400H
	DW	0400H
	DW	0400H
	DW	0400H
	DW	0800H
	DW	0800H
	DW	0c20H
	DW	0c20H
	DW	0c20H
	DW	01020H
	DW	01020H
	DW	01420H
	DW	01420H
	DW	01820H
	DW	01840H
	DW	01840H
	DW	01840H
	DW	01840H
	DW	01840H
	DW	01840H
	DW	01c40H
	DW	01c40H
	DW	01c40H
	DW	01c40H
	DW	01c40H
	DW	01c40H
	DW	01c40H
	DW	01c40H
	DW	01c40H
	DW	01c40H
	DW	01c40H
	DW	01c40H
	DW	01c40H
	DW	01c40H
	DW	01c40H
	DW	01c40H
	DW	01c40H
	DW	01c40H
	DW	01c40H
	DW	01c40H
	DW	01c40H
	DW	01c40H
	DW	01c40H
	DW	01c40H
	DW	01c40H
	DW	01c40H
	DW	01c40H
	DW	01c40H
	DW	01c40H
	DW	01c40H
	DW	01c20H
	DW	01c20H
	DW	01c20H
	DW	01c20H
	DW	01c20H
	DW	01c20H
	DW	01c20H
	DW	01820H
	DW	01820H
	DW	01820H
	DW	01c20H
	DW	0c00H
	DW	00H
	DW	00H
	DW	00H
	DW	00H
	DW	00H
	DW	00H
	DW	00H
	DW	00H
	DW	00H
	DW	00H
	DW	00H
	DW	00H
	DW	00H
	DW	00H
	DW	00H
	DW	00H
	DW	00H
	DW	00H
	DW	00H
	DW	00H
	DW	00H
	DW	00H
	DW	00H
	DW	00H
	DW	00H
	DW	00H
	DW	00H
	DW	00H
	DW	00H
	DW	00H
	DW	00H
	DW	00H
	DW	00H
	DW	00H
	DW	00H
	DW	00H
	DW	00H
	DW	00H
	DW	00H
	DW	00H
	DW	00H
	DW	00H
	DW	00H
	DW	00H
	DW	00H
	DW	00H
	DW	00H
	DW	00H
	DW	00H
	DW	00H
	DW	00H
	DW	00H
	DW	00H
	DW	00H
	DW	00H
	DW	00H
	DW	00H
	DW	00H
	DW	00H
	DW	00H
	DW	00H
	DW	00H
	DW	00H
	DW	00H
	DW	00H
	DW	00H
	DW	00H
	DW	00H
	DW	00H
	DW	00H
	DW	00H
	DW	00H
	DW	00H
	DW	00H
	DW	00H
	DW	00H
	DW	00H
	DW	00H
	DW	00H
	DW	00H
	DW	00H
	DW	00H
	DW	00H
	DW	00H
	DW	00H
	DW	00H
	DW	00H
	DW	00H
	DW	00H
	DW	00H
	DW	00H
	DW	00H
	DW	00H
	DW	00H
	DW	00H
	DW	00H
	DW	00H
	DW	00H
	DW	00H
	DW	00H
	DW	00H
	DW	00H
	DW	00H
	DW	00H
	DW	00H
	DW	00H
	DW	00H
	DW	00H
	DW	00H
	DW	00H
	DW	00H
	DW	00H
	DW	00H
	DW	00H
	DW	00H
	DW	00H
	DW	00H
	DW	00H
	DW	00H
	DW	00H
	DW	00H
	DW	00H
	DW	00H
	DW	00H
	DW	00H
	DW	00H
	DW	00H
	DW	00H
	DW	00H
	DW	00H
	DW	00H
	DW	00H
	DW	00H
	DW	00H
	DW	00H
	DW	00H
	DW	00H
	DW	00H
	DW	00H
	DW	00H
	DW	00H
	DW	00H
	DW	00H
	DW	00H
	DW	00H
	DW	00H
	DW	00H
	DW	00H
	DW	00H
	DW	00H
	DW	00H
	DW	00H
	DW	00H
	DW	00H
	DW	00H
	DW	00H
	DW	00H
	DW	00H
	DW	00H
	DW	00H
	DW	00H
	DW	00H
	DW	00H
	DW	00H
	DW	00H
	DW	00H
	DW	00H
	DW	00H
	DW	00H
	DW	00H
	DW	00H
	DW	00H
	DW	00H
	DW	00H
	DW	00H
	DW	00H
	DW	00H
	DW	00H
	DW	00H
	DW	00H
	DW	00H
	DW	00H
	DW	00H
	DW	00H
	DW	00H
	DW	00H
	DW	00H
	DW	00H
	DW	00H
	DW	00H
	DW	00H
	DW	00H
	DW	00H
	DW	00H
	DW	00H
	DW	00H
	DW	00H
	DW	00H
	DW	00H
	DW	00H
	DW	00H
	DW	00H
	DW	00H
	DW	00H
	DW	00H
	DW	00H
	DW	00H
	DW	00H
	DW	00H
	DW	00H
	DW	00H
	DW	00H
	DW	00H
	DW	00H
	DW	00H
	DW	00H
	DW	00H
	DW	00H
	DW	00H
	DW	00H
	DW	00H
	DW	00H
	DW	00H
	DW	00H
	DW	00H
	DW	00H
	DW	00H
	DW	00H
	DW	00H
	DW	00H
	DW	00H
	DW	00H
	DW	00H
	DW	00H
	DW	00H
	DW	00H
	DW	00H
	DW	00H
	DW	00H
	DW	00H
	DW	00H
	DW	00H
	DW	00H
	DW	00H
	DW	00H
	DW	00H
	DW	00H
	DW	00H
	DW	00H
	DW	00H
	DW	00H
	DW	00H
	DW	00H
	DW	00H
	DW	00H
	DW	00H
	DW	00H
	DW	00H
	DW	00H
	DW	00H
	DW	00H
	DW	00H
	DW	00H
	DW	00H
	DW	00H
	DW	00H
	DW	00H
	DW	00H
	DW	00H
	DW	00H
	DW	00H
	DW	00H
	DW	00H
	DW	00H
	DW	00H
	DW	00H
	DW	00H
	DW	00H
	DW	00H
	DW	00H
	DW	00H
	DW	00H
	DW	00H
	DW	00H
	DW	00H
	DW	00H
	DW	00H
	DW	00H
	DW	00H
	DW	00H
	DW	00H
	DW	00H
	DW	00H
	DW	00H
	DW	00H
	DW	00H
	DW	00H
	DW	00H
	DW	00H
	DW	00H
	DW	00H
	DW	00H
	DW	00H
	DW	00H
	DW	00H
	DW	00H
	DW	00H
	DW	00H
	DW	00H
	DW	00H
	DW	00H
	DW	00H
	DW	00H
	DW	00H
	DW	00H
	DW	00H
	DW	00H
	DW	00H
	DW	00H
	DW	00H
	DW	00H
	DW	00H
	DW	00H
	DW	00H
	DW	00H
	DW	00H
	DW	00H
	DW	00H
	DW	00H
	DW	00H
	DW	00H
	DW	00H
	DW	00H
	DW	00H
	DW	00H
	DW	00H
	DW	00H
	DW	00H
	DW	00H
	DW	00H
	DW	00H
	DW	00H
	DW	00H
	DW	00H
	DW	00H
	DW	00H
	DW	00H
	DW	00H
	DW	00H
	DW	00H
	DW	00H
	DW	00H
	DW	00H
	DW	00H
	DW	00H
	DW	00H
	DW	00H
	DW	00H
	DW	00H
	DW	00H
	DW	00H
	DW	00H
	DW	00H
	DW	00H
	DW	00H
	DW	00H
	DW	00H
	DW	00H
	DW	00H
	DW	00H
	DW	00H
	DW	00H
	DW	00H
	DW	00H
	DW	00H
	DW	00H
	DW	00H
	DW	00H
	DW	00H
	DW	00H
	DW	00H
	DW	00H
	DW	00H
	DW	00H
	DW	00H
	DW	00H
	DW	00H
	DW	00H
	DW	00H
	DW	00H
	DW	00H
	DW	00H
	DW	00H
	DW	00H
	DW	00H
	DW	00H
	DW	00H
	DW	00H
	DW	00H
	DW	00H
	DW	00H
	DW	00H
	DW	00H
	DW	00H
	DW	00H
	DW	00H
	DW	00H
	DW	00H
	DW	0400H
	DW	0800H
	DW	0820H
	DW	0c20H
	DW	01020H
	DW	01020H
	DW	01420H
	DW	01420H
	DW	01840H
	DW	01840H
	DW	01840H
	DW	01c40H
	DW	01c40H
	DW	01c40H
	DW	02040H
	DW	02040H
	DW	01c40H
	DW	01c40H
	DW	01c40H
	DW	01c40H
	DW	01c40H
	DW	01c40H
	DW	01c40H
	DW	01c40H
	DW	01c40H
	DW	01c40H
	DW	01c40H
	DW	01c40H
	DW	01c40H
	DW	01c40H
	DW	01c40H
	DW	01c40H
	DW	01c40H
	DW	01c40H
	DW	01c40H
	DW	01c40H
	DW	01c40H
	DW	01c40H
	DW	01c40H
	DW	01c40H
	DW	01c40H
	DW	01c40H
	DW	01c40H
	DW	01c40H
	DW	01c40H
	DW	01c40H
	DW	01c40H
	DW	01c40H
	DW	01c40H
	DW	01c40H
	DW	01c40H
	DW	01c40H
	DW	01c40H
	DW	01c40H
	DW	01c40H
	DW	01c40H
	DW	01c40H
	DW	01c40H
	DW	01c20H
	DW	01c20H
	DW	01c20H
	DW	01c20H
	DW	01c20H
	DW	01c20H
	DW	01c20H
	DW	01c20H
	DW	01c20H
	DW	01c20H
	DW	01c20H
	DW	01c20H
	DW	01c20H
	DW	0c00H
	DW	00H
	DW	00H
	DW	00H
	DW	00H
	DW	00H
	DW	00H
	DW	00H
	DW	00H
	DW	00H
	DW	00H
	DW	00H
	DW	00H
	DW	00H
	DW	00H
	DW	00H
	DW	00H
	DW	00H
	DW	00H
	DW	00H
	DW	00H
	DW	00H
	DW	00H
	DW	00H
	DW	00H
	DW	00H
	DW	00H
	DW	00H
	DW	00H
	DW	00H
	DW	00H
	DW	00H
	DW	00H
	DW	00H
	DW	00H
	DW	00H
	DW	00H
	DW	00H
	DW	00H
	DW	00H
	DW	00H
	DW	00H
	DW	00H
	DW	00H
	DW	00H
	DW	00H
	DW	00H
	DW	00H
	DW	00H
	DW	00H
	DW	00H
	DW	00H
	DW	00H
	DW	00H
	DW	00H
	DW	00H
	DW	00H
	DW	00H
	DW	00H
	DW	00H
	DW	00H
	DW	00H
	DW	00H
	DW	00H
	DW	00H
	DW	00H
	DW	00H
	DW	00H
	DW	00H
	DW	00H
	DW	00H
	DW	00H
	DW	00H
	DW	00H
	DW	00H
	DW	00H
	DW	00H
	DW	00H
	DW	00H
	DW	00H
	DW	00H
	DW	00H
	DW	00H
	DW	00H
	DW	00H
	DW	00H
	DW	00H
	DW	00H
	DW	00H
	DW	00H
	DW	00H
	DW	00H
	DW	00H
	DW	00H
	DW	00H
	DW	00H
	DW	00H
	DW	00H
	DW	00H
	DW	00H
	DW	00H
	DW	00H
	DW	00H
	DW	00H
	DW	00H
	DW	00H
	DW	00H
	DW	00H
	DW	00H
	DW	00H
	DW	00H
	DW	00H
	DW	00H
	DW	00H
	DW	00H
	DW	00H
	DW	00H
	DW	00H
	DW	00H
	DW	00H
	DW	00H
	DW	00H
	DW	00H
	DW	00H
	DW	00H
	DW	00H
	DW	00H
	DW	00H
	DW	00H
	DW	00H
	DW	00H
	DW	00H
	DW	00H
	DW	00H
	DW	00H
	DW	00H
	DW	00H
	DW	00H
	DW	00H
	DW	00H
	DW	00H
	DW	00H
	DW	00H
	DW	00H
	DW	00H
	DW	00H
	DW	00H
	DW	00H
	DW	00H
	DW	00H
	DW	00H
	DW	00H
	DW	00H
	DW	00H
	DW	00H
	DW	00H
	DW	00H
	DW	00H
	DW	00H
	DW	00H
	DW	00H
	DW	00H
	DW	00H
	DW	00H
	DW	00H
	DW	00H
	DW	00H
	DW	00H
	DW	00H
	DW	00H
	DW	00H
	DW	00H
	DW	00H
	DW	00H
	DW	00H
	DW	00H
	DW	00H
	DW	00H
	DW	00H
	DW	00H
	DW	00H
	DW	00H
	DW	00H
	DW	00H
	DW	00H
	DW	00H
	DW	00H
	DW	00H
	DW	00H
	DW	00H
	DW	00H
	DW	00H
	DW	00H
	DW	00H
	DW	00H
	DW	00H
	DW	00H
	DW	00H
	DW	00H
	DW	00H
	DW	00H
	DW	00H
	DW	00H
	DW	00H
	DW	00H
	DW	00H
	DW	00H
	DW	00H
	DW	00H
	DW	00H
	DW	00H
	DW	00H
	DW	00H
	DW	00H
	DW	00H
	DW	00H
	DW	00H
	DW	00H
	DW	00H
	DW	00H
	DW	00H
	DW	00H
	DW	00H
	DW	00H
	DW	00H
	DW	00H
	DW	00H
	DW	00H
	DW	00H
	DW	00H
	DW	00H
	DW	00H
	DW	00H
	DW	00H
	DW	00H
	DW	00H
	DW	00H
	DW	00H
	DW	00H
	DW	00H
	DW	00H
	DW	00H
	DW	00H
	DW	00H
	DW	00H
	DW	00H
	DW	00H
	DW	00H
	DW	00H
	DW	00H
	DW	00H
	DW	00H
	DW	00H
	DW	00H
	DW	00H
	DW	00H
	DW	00H
	DW	00H
	DW	00H
	DW	00H
	DW	00H
	DW	00H
	DW	00H
	DW	00H
	DW	00H
	DW	00H
	DW	00H
	DW	00H
	DW	00H
	DW	00H
	DW	00H
	DW	00H
	DW	00H
	DW	00H
	DW	00H
	DW	00H
	DW	00H
	DW	00H
	DW	00H
	DW	00H
	DW	00H
	DW	00H
	DW	00H
	DW	00H
	DW	00H
	DW	00H
	DW	00H
	DW	00H
	DW	00H
	DW	00H
	DW	00H
	DW	00H
	DW	00H
	DW	00H
	DW	00H
	DW	00H
	DW	00H
	DW	00H
	DW	00H
	DW	00H
	DW	00H
	DW	00H
	DW	00H
	DW	00H
	DW	00H
	DW	00H
	DW	00H
	DW	00H
	DW	00H
	DW	00H
	DW	00H
	DW	00H
	DW	00H
	DW	00H
	DW	00H
	DW	00H
	DW	00H
	DW	00H
	DW	00H
	DW	00H
	DW	00H
	DW	00H
	DW	00H
	DW	00H
	DW	00H
	DW	00H
	DW	00H
	DW	00H
	DW	00H
	DW	00H
	DW	00H
	DW	00H
	DW	00H
	DW	00H
	DW	00H
	DW	00H
	DW	00H
	DW	00H
	DW	00H
	DW	00H
	DW	00H
	DW	00H
	DW	00H
	DW	00H
	DW	00H
	DW	00H
	DW	00H
	DW	00H
	DW	00H
	DW	00H
	DW	00H
	DW	00H
	DW	00H
	DW	00H
	DW	00H
	DW	00H
	DW	00H
	DW	00H
	DW	00H
	DW	00H
	DW	00H
	DW	00H
	DW	00H
	DW	00H
	DW	00H
	DW	00H
	DW	00H
	DW	00H
	DW	00H
	DW	00H
	DW	00H
	DW	00H
	DW	00H
	DW	00H
	DW	00H
	DW	00H
	DW	00H
	DW	00H
	DW	00H
	DW	00H
	DW	00H
	DW	00H
	DW	00H
	DW	00H
	DW	00H
	DW	00H
	DW	00H
	DW	00H
	DW	00H
	DW	00H
	DW	00H
	DW	00H
	DW	00H
	DW	00H
	DW	00H
	DW	00H
	DW	00H
	DW	00H
	DW	00H
	DW	0400H
	DW	0800H
	DW	0c20H
	DW	0c20H
	DW	01020H
	DW	01420H
	DW	01440H
	DW	01840H
	DW	01c40H
	DW	01c40H
	DW	01c40H
	DW	01c40H
	DW	01c40H
	DW	01c40H
	DW	01c40H
	DW	01c40H
	DW	01c40H
	DW	01c40H
	DW	01c40H
	DW	01c40H
	DW	01c40H
	DW	01c40H
	DW	01c40H
	DW	01c40H
	DW	01c40H
	DW	01c40H
	DW	01c40H
	DW	01c40H
	DW	01c40H
	DW	01c40H
	DW	01c40H
	DW	01c40H
	DW	01c40H
	DW	01c40H
	DW	01c40H
	DW	01c40H
	DW	01c40H
	DW	01c40H
	DW	01c40H
	DW	01c40H
	DW	01c40H
	DW	01c40H
	DW	01c40H
	DW	01c40H
	DW	01c40H
	DW	01c40H
	DW	01c40H
	DW	01c40H
	DW	01c40H
	DW	01c40H
	DW	01c40H
	DW	01c40H
	DW	01c40H
	DW	01c40H
	DW	01c40H
	DW	01c40H
	DW	01c40H
	DW	01c40H
	DW	01c40H
	DW	01c40H
	DW	01c40H
	DW	01c40H
	DW	01c40H
	DW	01c40H
	DW	01c40H
	DW	01c40H
	DW	01c20H
	DW	01c20H
	DW	01c20H
	DW	01c20H
	DW	01c20H
	DW	01c20H
	DW	01c20H
	DW	01c20H
	DW	01c20H
	DW	01c20H
	DW	01c20H
	DW	01c20H
	DW	01c20H
	DW	01c20H
	DW	01c20H
	DW	0c00H
	DW	00H
	DW	00H
	DW	00H
	DW	00H
	DW	00H
	DW	00H
	DW	00H
	DW	00H
	DW	00H
	DW	00H
	DW	00H
	DW	00H
	DW	00H
	DW	00H
	DW	00H
	DW	00H
	DW	00H
	DW	00H
	DW	00H
	DW	00H
	DW	00H
	DW	00H
	DW	00H
	DW	00H
	DW	00H
	DW	00H
	DW	00H
	DW	00H
	DW	00H
	DW	00H
	DW	00H
	DW	00H
	DW	00H
	DW	00H
	DW	00H
	DW	00H
	DW	00H
	DW	00H
	DW	00H
	DW	00H
	DW	00H
	DW	00H
	DW	00H
	DW	00H
	DW	00H
	DW	00H
	DW	00H
	DW	00H
	DW	00H
	DW	00H
	DW	00H
	DW	00H
	DW	00H
	DW	00H
	DW	00H
	DW	00H
	DW	00H
	DW	00H
	DW	00H
	DW	00H
	DW	00H
	DW	00H
	DW	00H
	DW	00H
	DW	00H
	DW	00H
	DW	00H
	DW	00H
	DW	00H
	DW	00H
	DW	00H
	DW	00H
	DW	00H
	DW	00H
	DW	00H
	DW	00H
	DW	00H
	DW	00H
	DW	00H
	DW	00H
	DW	00H
	DW	00H
	DW	00H
	DW	00H
	DW	00H
	DW	00H
	DW	00H
	DW	00H
	DW	00H
	DW	00H
	DW	00H
	DW	00H
	DW	00H
	DW	00H
	DW	00H
	DW	00H
	DW	00H
	DW	00H
	DW	00H
	DW	00H
	DW	00H
	DW	00H
	DW	00H
	DW	00H
	DW	00H
	DW	00H
	DW	00H
	DW	00H
	DW	00H
	DW	00H
	DW	00H
	DW	00H
	DW	00H
	DW	00H
	DW	00H
	DW	00H
	DW	00H
	DW	00H
	DW	00H
	DW	00H
	DW	00H
	DW	00H
	DW	00H
	DW	00H
	DW	00H
	DW	00H
	DW	00H
	DW	00H
	DW	00H
	DW	00H
	DW	00H
	DW	00H
	DW	00H
	DW	00H
	DW	00H
	DW	00H
	DW	00H
	DW	00H
	DW	00H
	DW	00H
	DW	00H
	DW	00H
	DW	00H
	DW	00H
	DW	00H
	DW	00H
	DW	00H
	DW	00H
	DW	00H
	DW	00H
	DW	00H
	DW	00H
	DW	00H
	DW	00H
	DW	00H
	DW	00H
	DW	00H
	DW	00H
	DW	00H
	DW	00H
	DW	00H
	DW	00H
	DW	00H
	DW	00H
	DW	00H
	DW	00H
	DW	00H
	DW	00H
	DW	00H
	DW	00H
	DW	00H
	DW	00H
	DW	00H
	DW	00H
	DW	00H
	DW	00H
	DW	00H
	DW	00H
	DW	00H
	DW	00H
	DW	00H
	DW	00H
	DW	00H
	DW	00H
	DW	00H
	DW	00H
	DW	00H
	DW	00H
	DW	00H
	DW	00H
	DW	00H
	DW	00H
	DW	00H
	DW	00H
	DW	00H
	DW	00H
	DW	00H
	DW	00H
	DW	00H
	DW	00H
	DW	00H
	DW	00H
	DW	00H
	DW	00H
	DW	00H
	DW	00H
	DW	00H
	DW	00H
	DW	00H
	DW	00H
	DW	00H
	DW	00H
	DW	00H
	DW	00H
	DW	00H
	DW	00H
	DW	00H
	DW	00H
	DW	00H
	DW	00H
	DW	00H
	DW	00H
	DW	00H
	DW	00H
	DW	00H
	DW	00H
	DW	00H
	DW	00H
	DW	00H
	DW	00H
	DW	00H
	DW	00H
	DW	00H
	DW	00H
	DW	00H
	DW	00H
	DW	00H
	DW	00H
	DW	00H
	DW	00H
	DW	00H
	DW	00H
	DW	00H
	DW	00H
	DW	00H
	DW	00H
	DW	00H
	DW	00H
	DW	00H
	DW	00H
	DW	00H
	DW	00H
	DW	00H
	DW	00H
	DW	00H
	DW	00H
	DW	00H
	DW	00H
	DW	00H
	DW	00H
	DW	00H
	DW	00H
	DW	00H
	DW	00H
	DW	00H
	DW	00H
	DW	00H
	DW	00H
	DW	00H
	DW	00H
	DW	00H
	DW	00H
	DW	00H
	DW	00H
	DW	00H
	DW	00H
	DW	00H
	DW	00H
	DW	00H
	DW	00H
	DW	00H
	DW	00H
	DW	00H
	DW	00H
	DW	00H
	DW	00H
	DW	00H
	DW	00H
	DW	00H
	DW	00H
	DW	00H
	DW	00H
	DW	00H
	DW	00H
	DW	00H
	DW	00H
	DW	00H
	DW	00H
	DW	00H
	DW	00H
	DW	00H
	DW	00H
	DW	00H
	DW	00H
	DW	00H
	DW	00H
	DW	00H
	DW	00H
	DW	00H
	DW	00H
	DW	00H
	DW	00H
	DW	00H
	DW	00H
	DW	00H
	DW	00H
	DW	00H
	DW	00H
	DW	00H
	DW	00H
	DW	00H
	DW	00H
	DW	00H
	DW	00H
	DW	00H
	DW	00H
	DW	00H
	DW	00H
	DW	00H
	DW	00H
	DW	00H
	DW	00H
	DW	00H
	DW	00H
	DW	00H
	DW	00H
	DW	00H
	DW	00H
	DW	00H
	DW	00H
	DW	00H
	DW	00H
	DW	00H
	DW	00H
	DW	00H
	DW	00H
	DW	00H
	DW	00H
	DW	00H
	DW	00H
	DW	00H
	DW	00H
	DW	00H
	DW	00H
	DW	00H
	DW	00H
	DW	00H
	DW	00H
	DW	00H
	DW	00H
	DW	00H
	DW	00H
	DW	00H
	DW	00H
	DW	00H
	DW	00H
	DW	00H
	DW	00H
	DW	00H
	DW	00H
	DW	00H
	DW	00H
	DW	00H
	DW	00H
	DW	00H
	DW	00H
	DW	00H
	DW	00H
	DW	00H
	DW	00H
	DW	00H
	DW	00H
	DW	00H
	DW	00H
	DW	00H
	DW	00H
	DW	00H
	DW	00H
	DW	00H
	DW	0400H
	DW	0400H
	DW	0800H
	DW	0c20H
	DW	01020H
	DW	01420H
	DW	01840H
	DW	01840H
	DW	01c40H
	DW	01c40H
	DW	01c40H
	DW	01c40H
	DW	02040H
	DW	02040H
	DW	02040H
	DW	01c40H
	DW	01c40H
	DW	01c40H
	DW	01c40H
	DW	01c40H
	DW	01c40H
	DW	01c40H
	DW	01c40H
	DW	01c40H
	DW	01c40H
	DW	01c40H
	DW	01c40H
	DW	01c40H
	DW	01c40H
	DW	01c40H
	DW	01c40H
	DW	01c40H
	DW	01c40H
	DW	01c40H
	DW	01c40H
	DW	01c40H
	DW	01c40H
	DW	01c40H
	DW	01c40H
	DW	01c40H
	DW	01c40H
	DW	01c40H
	DW	01c40H
	DW	01c40H
	DW	01c40H
	DW	01c40H
	DW	01c40H
	DW	01c40H
	DW	01c40H
	DW	01c40H
	DW	01c40H
	DW	01c40H
	DW	01c40H
	DW	01c40H
	DW	01c40H
	DW	01c40H
	DW	01c40H
	DW	01c40H
	DW	01c40H
	DW	01c40H
	DW	01c40H
	DW	01c40H
	DW	01c40H
	DW	01c40H
	DW	01c40H
	DW	01c40H
	DW	01c40H
	DW	01c40H
	DW	01c40H
	DW	01c40H
	DW	01c40H
	DW	01c40H
	DW	01c40H
	DW	01c40H
	DW	01c20H
	DW	01c20H
	DW	01c20H
	DW	01c20H
	DW	01c20H
	DW	01c20H
	DW	01c20H
	DW	01c20H
	DW	01c20H
	DW	01c20H
	DW	01c20H
	DW	01c20H
	DW	01c20H
	DW	01c20H
	DW	01c20H
	DW	01c20H
	DW	0c00H
	DW	00H
	DW	00H
	DW	00H
	DW	00H
	DW	00H
	DW	00H
	DW	00H
	DW	00H
	DW	00H
	DW	00H
	DW	00H
	DW	00H
	DW	00H
	DW	00H
	DW	00H
	DW	00H
	DW	00H
	DW	00H
	DW	00H
	DW	00H
	DW	00H
	DW	00H
	DW	00H
	DW	00H
	DW	00H
	DW	00H
	DW	00H
	DW	00H
	DW	00H
	DW	00H
	DW	00H
	DW	00H
	DW	00H
	DW	00H
	DW	00H
	DW	00H
	DW	00H
	DW	00H
	DW	00H
	DW	00H
	DW	00H
	DW	00H
	DW	00H
	DW	00H
	DW	00H
	DW	00H
	DW	00H
	DW	00H
	DW	00H
	DW	00H
	DW	00H
	DW	00H
	DW	00H
	DW	00H
	DW	00H
	DW	00H
	DW	00H
	DW	00H
	DW	00H
	DW	00H
	DW	00H
	DW	00H
	DW	00H
	DW	00H
	DW	00H
	DW	00H
	DW	00H
	DW	00H
	DW	00H
	DW	00H
	DW	00H
	DW	00H
	DW	00H
	DW	00H
	DW	00H
	DW	00H
	DW	00H
	DW	00H
	DW	00H
	DW	00H
	DW	00H
	DW	00H
	DW	00H
	DW	00H
	DW	00H
	DW	00H
	DW	00H
	DW	00H
	DW	00H
	DW	00H
	DW	00H
	DW	00H
	DW	00H
	DW	00H
	DW	00H
	DW	00H
	DW	00H
	DW	00H
	DW	00H
	DW	00H
	DW	00H
	DW	00H
	DW	00H
	DW	00H
	DW	00H
	DW	00H
	DW	00H
	DW	00H
	DW	00H
	DW	00H
	DW	00H
	DW	00H
	DW	00H
	DW	00H
	DW	00H
	DW	00H
	DW	00H
	DW	00H
	DW	00H
	DW	00H
	DW	00H
	DW	00H
	DW	00H
	DW	00H
	DW	00H
	DW	00H
	DW	00H
	DW	00H
	DW	00H
	DW	00H
	DW	00H
	DW	00H
	DW	00H
	DW	00H
	DW	00H
	DW	00H
	DW	00H
	DW	00H
	DW	00H
	DW	00H
	DW	00H
	DW	00H
	DW	00H
	DW	00H
	DW	00H
	DW	00H
	DW	00H
	DW	00H
	DW	00H
	DW	00H
	DW	00H
	DW	00H
	DW	00H
	DW	00H
	DW	00H
	DW	00H
	DW	00H
	DW	00H
	DW	00H
	DW	00H
	DW	00H
	DW	00H
	DW	00H
	DW	00H
	DW	00H
	DW	00H
	DW	00H
	DW	00H
	DW	00H
	DW	00H
	DW	00H
	DW	00H
	DW	00H
	DW	00H
	DW	00H
	DW	00H
	DW	00H
	DW	00H
	DW	00H
	DW	00H
	DW	00H
	DW	00H
	DW	00H
	DW	00H
	DW	00H
	DW	00H
	DW	00H
	DW	00H
	DW	00H
	DW	00H
	DW	00H
	DW	00H
	DW	00H
	DW	00H
	DW	00H
	DW	00H
	DW	00H
	DW	00H
	DW	00H
	DW	00H
	DW	00H
	DW	00H
	DW	00H
	DW	00H
	DW	00H
	DW	00H
	DW	00H
	DW	00H
	DW	00H
	DW	00H
	DW	00H
	DW	00H
	DW	00H
	DW	00H
	DW	00H
	DW	00H
	DW	00H
	DW	00H
	DW	00H
	DW	00H
	DW	00H
	DW	00H
	DW	00H
	DW	00H
	DW	00H
	DW	00H
	DW	00H
	DW	00H
	DW	00H
	DW	00H
	DW	00H
	DW	00H
	DW	00H
	DW	00H
	DW	00H
	DW	00H
	DW	00H
	DW	00H
	DW	00H
	DW	00H
	DW	00H
	DW	00H
	DW	00H
	DW	00H
	DW	00H
	DW	00H
	DW	00H
	DW	00H
	DW	00H
	DW	00H
	DW	00H
	DW	00H
	DW	00H
	DW	00H
	DW	00H
	DW	00H
	DW	00H
	DW	00H
	DW	00H
	DW	00H
	DW	00H
	DW	00H
	DW	00H
	DW	00H
	DW	00H
	DW	00H
	DW	00H
	DW	00H
	DW	00H
	DW	00H
	DW	00H
	DW	00H
	DW	00H
	DW	00H
	DW	00H
	DW	00H
	DW	00H
	DW	00H
	DW	00H
	DW	00H
	DW	00H
	DW	00H
	DW	00H
	DW	00H
	DW	00H
	DW	00H
	DW	00H
	DW	00H
	DW	00H
	DW	00H
	DW	00H
	DW	00H
	DW	00H
	DW	00H
	DW	00H
	DW	00H
	DW	00H
	DW	00H
	DW	00H
	DW	00H
	DW	00H
	DW	00H
	DW	00H
	DW	00H
	DW	00H
	DW	00H
	DW	00H
	DW	00H
	DW	00H
	DW	00H
	DW	00H
	DW	00H
	DW	00H
	DW	00H
	DW	00H
	DW	00H
	DW	00H
	DW	00H
	DW	00H
	DW	00H
	DW	00H
	DW	00H
	DW	00H
	DW	00H
	DW	00H
	DW	00H
	DW	00H
	DW	00H
	DW	00H
	DW	00H
	DW	00H
	DW	00H
	DW	00H
	DW	00H
	DW	00H
	DW	00H
	DW	00H
	DW	00H
	DW	00H
	DW	00H
	DW	00H
	DW	00H
	DW	00H
	DW	00H
	DW	00H
	DW	00H
	DW	00H
	DW	00H
	DW	00H
	DW	00H
	DW	00H
	DW	00H
	DW	00H
	DW	00H
	DW	00H
	DW	00H
	DW	00H
	DW	00H
	DW	00H
	DW	00H
	DW	00H
	DW	00H
	DW	00H
	DW	00H
	DW	00H
	DW	00H
	DW	00H
	DW	00H
	DW	00H
	DW	00H
	DW	00H
	DW	00H
	DW	00H
	DW	00H
	DW	00H
	DW	00H
	DW	00H
	DW	00H
	DW	00H
	DW	00H
	DW	00H
	DW	00H
	DW	0400H
	DW	0800H
	DW	0c20H
	DW	01020H
	DW	01420H
	DW	01440H
	DW	01840H
	DW	01c40H
	DW	01c40H
	DW	02040H
	DW	02040H
	DW	02040H
	DW	01c40H
	DW	01c40H
	DW	01c40H
	DW	01c40H
	DW	01c40H
	DW	01c40H
	DW	01c40H
	DW	01c40H
	DW	01c40H
	DW	01c40H
	DW	01c40H
	DW	01c40H
	DW	01c40H
	DW	01c40H
	DW	01c40H
	DW	01c40H
	DW	01c40H
	DW	01c40H
	DW	01c40H
	DW	01c40H
	DW	01c40H
	DW	01c40H
	DW	01c40H
	DW	01c40H
	DW	01c40H
	DW	01c40H
	DW	01c40H
	DW	01c40H
	DW	01c40H
	DW	01c40H
	DW	01c40H
	DW	01c40H
	DW	01c40H
	DW	01c40H
	DW	01c40H
	DW	01c40H
	DW	01c40H
	DW	01c40H
	DW	01c40H
	DW	01c40H
	DW	01c40H
	DW	01c40H
	DW	01c40H
	DW	01c40H
	DW	01c40H
	DW	01c40H
	DW	01c40H
	DW	01c40H
	DW	01c40H
	DW	01c40H
	DW	02040H
	DW	02040H
	DW	02040H
	DW	02040H
	DW	02040H
	DW	02040H
	DW	02040H
	DW	02040H
	DW	02040H
	DW	02040H
	DW	02040H
	DW	02040H
	DW	02040H
	DW	02040H
	DW	02040H
	DW	02040H
	DW	02040H
	DW	02040H
	DW	02040H
	DW	02040H
	DW	02040H
	DW	02040H
	DW	02040H
	DW	02040H
	DW	02040H
	DW	02040H
	DW	02040H
	DW	02040H
	DW	02040H
	DW	02040H
	DW	02040H
	DW	02040H
	DW	01c40H
	DW	01c40H
	DW	02040H
	DW	0c00H
	DW	00H
	DW	00H
	DW	00H
	DW	00H
	DW	00H
	DW	00H
	DW	00H
	DW	00H
	DW	00H
	DW	00H
	DW	00H
	DW	00H
	DW	00H
	DW	00H
	DW	00H
	DW	00H
	DW	00H
	DW	00H
	DW	00H
	DW	00H
	DW	00H
	DW	00H
	DW	00H
	DW	00H
	DW	00H
	DW	00H
	DW	00H
	DW	00H
	DW	00H
	DW	00H
	DW	00H
	DW	00H
	DW	00H
	DW	00H
	DW	00H
	DW	00H
	DW	00H
	DW	00H
	DW	00H
	DW	00H
	DW	00H
	DW	00H
	DW	00H
	DW	00H
	DW	00H
	DW	00H
	DW	00H
	DW	00H
	DW	00H
	DW	00H
	DW	00H
	DW	00H
	DW	00H
	DW	00H
	DW	00H
	DW	00H
	DW	00H
	DW	00H
	DW	00H
	DW	00H
	DW	00H
	DW	00H
	DW	00H
	DW	00H
	DW	00H
	DW	00H
	DW	00H
	DW	00H
	DW	00H
	DW	00H
	DW	00H
	DW	00H
	DW	00H
	DW	00H
	DW	00H
	DW	00H
	DW	00H
	DW	00H
	DW	00H
	DW	00H
	DW	00H
	DW	00H
	DW	00H
	DW	00H
	DW	00H
	DW	00H
	DW	00H
	DW	00H
	DW	00H
	DW	00H
	DW	00H
	DW	00H
	DW	00H
	DW	00H
	DW	00H
	DW	00H
	DW	00H
	DW	00H
	DW	00H
	DW	00H
	DW	00H
	DW	00H
	DW	00H
	DW	00H
	DW	00H
	DW	00H
	DW	00H
	DW	00H
	DW	00H
	DW	00H
	DW	00H
	DW	00H
	DW	00H
	DW	00H
	DW	00H
	DW	00H
	DW	00H
	DW	00H
	DW	00H
	DW	00H
	DW	00H
	DW	00H
	DW	00H
	DW	00H
	DW	00H
	DW	00H
	DW	00H
	DW	00H
	DW	00H
	DW	00H
	DW	00H
	DW	00H
	DW	00H
	DW	00H
	DW	00H
	DW	00H
	DW	00H
	DW	00H
	DW	00H
	DW	00H
	DW	00H
	DW	00H
	DW	00H
	DW	00H
	DW	00H
	DW	00H
	DW	00H
	DW	00H
	DW	00H
	DW	00H
	DW	00H
	DW	00H
	DW	00H
	DW	00H
	DW	00H
	DW	00H
	DW	00H
	DW	00H
	DW	00H
	DW	00H
	DW	00H
	DW	00H
	DW	00H
	DW	00H
	DW	00H
	DW	00H
	DW	00H
	DW	00H
	DW	00H
	DW	00H
	DW	00H
	DW	00H
	DW	00H
	DW	00H
	DW	00H
	DW	00H
	DW	00H
	DW	00H
	DW	00H
	DW	00H
	DW	00H
	DW	00H
	DW	00H
	DW	00H
	DW	00H
	DW	00H
	DW	00H
	DW	00H
	DW	00H
	DW	00H
	DW	00H
	DW	00H
	DW	00H
	DW	00H
	DW	00H
	DW	00H
	DW	00H
	DW	00H
	DW	00H
	DW	00H
	DW	00H
	DW	00H
	DW	00H
	DW	00H
	DW	00H
	DW	00H
	DW	00H
	DW	00H
	DW	00H
	DW	00H
	DW	00H
	DW	00H
	DW	00H
	DW	00H
	DW	00H
	DW	00H
	DW	00H
	DW	00H
	DW	00H
	DW	00H
	DW	00H
	DW	00H
	DW	00H
	DW	00H
	DW	00H
	DW	00H
	DW	00H
	DW	00H
	DW	00H
	DW	00H
	DW	00H
	DW	00H
	DW	00H
	DW	00H
	DW	00H
	DW	00H
	DW	00H
	DW	00H
	DW	00H
	DW	00H
	DW	00H
	DW	00H
	DW	00H
	DW	00H
	DW	00H
	DW	00H
	DW	00H
	DW	00H
	DW	00H
	DW	00H
	DW	00H
	DW	00H
	DW	00H
	DW	00H
	DW	00H
	DW	00H
	DW	00H
	DW	00H
	DW	00H
	DW	00H
	DW	00H
	DW	00H
	DW	00H
	DW	00H
	DW	00H
	DW	00H
	DW	00H
	DW	00H
	DW	00H
	DW	00H
	DW	00H
	DW	00H
	DW	00H
	DW	00H
	DW	00H
	DW	00H
	DW	00H
	DW	00H
	DW	00H
	DW	00H
	DW	00H
	DW	00H
	DW	00H
	DW	00H
	DW	00H
	DW	00H
	DW	00H
	DW	00H
	DW	00H
	DW	00H
	DW	00H
	DW	00H
	DW	00H
	DW	00H
	DW	00H
	DW	00H
	DW	00H
	DW	00H
	DW	00H
	DW	00H
	DW	00H
	DW	00H
	DW	00H
	DW	00H
	DW	00H
	DW	00H
	DW	00H
	DW	00H
	DW	00H
	DW	00H
	DW	00H
	DW	00H
	DW	00H
	DW	00H
	DW	00H
	DW	00H
	DW	00H
	DW	00H
	DW	00H
	DW	00H
	DW	00H
	DW	00H
	DW	00H
	DW	00H
	DW	00H
	DW	00H
	DW	00H
	DW	00H
	DW	00H
	DW	00H
	DW	00H
	DW	00H
	DW	00H
	DW	00H
	DW	00H
	DW	00H
	DW	00H
	DW	00H
	DW	00H
	DW	00H
	DW	00H
	DW	00H
	DW	00H
	DW	00H
	DW	00H
	DW	00H
	DW	00H
	DW	00H
	DW	00H
	DW	00H
	DW	00H
	DW	00H
	DW	00H
	DW	00H
	DW	00H
	DW	00H
	DW	00H
	DW	00H
	DW	00H
	DW	00H
	DW	00H
	DW	00H
	DW	00H
	DW	00H
	DW	00H
	DW	00H
	DW	00H
	DW	00H
	DW	00H
	DW	00H
	DW	00H
	DW	00H
	DW	00H
	DW	00H
	DW	00H
	DW	0400H
	DW	0800H
	DW	0c20H
	DW	01020H
	DW	01420H
	DW	01840H
	DW	01c40H
	DW	01c40H
	DW	01c40H
	DW	01c40H
	DW	02040H
	DW	02040H
	DW	02040H
	DW	01c40H
	DW	01c40H
	DW	01c40H
	DW	01c40H
	DW	01c40H
	DW	01c40H
	DW	01c40H
	DW	01c40H
	DW	01c40H
	DW	01c40H
	DW	01c40H
	DW	01c40H
	DW	01c40H
	DW	01c40H
	DW	01c40H
	DW	01c40H
	DW	01c40H
	DW	01c40H
	DW	01c40H
	DW	01c40H
	DW	01c40H
	DW	01c40H
	DW	01c40H
	DW	01c40H
	DW	01c40H
	DW	01c40H
	DW	01c40H
	DW	01c40H
	DW	01c40H
	DW	01c40H
	DW	01c40H
	DW	01c40H
	DW	01c40H
	DW	01c40H
	DW	01c40H
	DW	01c40H
	DW	02040H
	DW	02040H
	DW	02040H
	DW	02040H
	DW	02040H
	DW	02040H
	DW	02040H
	DW	02040H
	DW	02040H
	DW	02040H
	DW	02040H
	DW	02040H
	DW	02040H
	DW	02040H
	DW	02440H
	DW	02440H
	DW	02440H
	DW	02440H
	DW	02440H
	DW	02440H
	DW	02440H
	DW	02440H
	DW	02440H
	DW	02440H
	DW	02440H
	DW	02440H
	DW	02440H
	DW	02440H
	DW	02440H
	DW	02440H
	DW	02440H
	DW	02440H
	DW	02440H
	DW	02440H
	DW	02440H
	DW	02840H
	DW	02840H
	DW	02840H
	DW	02840H
	DW	02840H
	DW	02440H
	DW	02440H
	DW	02440H
	DW	02440H
	DW	02440H
	DW	02440H
	DW	02440H
	DW	02440H
	DW	02440H
	DW	02440H
	DW	02440H
	DW	02440H
	DW	02440H
	DW	02440H
	DW	02440H
	DW	01020H
	DW	00H
	DW	00H
	DW	00H
	DW	00H
	DW	00H
	DW	00H
	DW	00H
	DW	00H
	DW	00H
	DW	00H
	DW	00H
	DW	00H
	DW	00H
	DW	00H
	DW	00H
	DW	00H
	DW	00H
	DW	00H
	DW	00H
	DW	00H
	DW	00H
	DW	00H
	DW	00H
	DW	00H
	DW	00H
	DW	00H
	DW	00H
	DW	00H
	DW	00H
	DW	00H
	DW	00H
	DW	00H
	DW	00H
	DW	00H
	DW	00H
	DW	00H
	DW	00H
	DW	00H
	DW	00H
	DW	00H
	DW	00H
	DW	00H
	DW	00H
	DW	00H
	DW	00H
	DW	00H
	DW	00H
	DW	00H
	DW	00H
	DW	00H
	DW	00H
	DW	00H
	DW	00H
	DW	00H
	DW	00H
	DW	00H
	DW	00H
	DW	00H
	DW	00H
	DW	00H
	DW	00H
	DW	00H
	DW	00H
	DW	00H
	DW	00H
	DW	00H
	DW	00H
	DW	00H
	DW	00H
	DW	00H
	DW	00H
	DW	00H
	DW	00H
	DW	00H
	DW	00H
	DW	00H
	DW	00H
	DW	00H
	DW	00H
	DW	00H
	DW	00H
	DW	00H
	DW	00H
	DW	00H
	DW	00H
	DW	00H
	DW	00H
	DW	00H
	DW	00H
	DW	00H
	DW	00H
	DW	00H
	DW	00H
	DW	00H
	DW	00H
	DW	00H
	DW	00H
	DW	00H
	DW	00H
	DW	00H
	DW	00H
	DW	00H
	DW	00H
	DW	00H
	DW	00H
	DW	00H
	DW	00H
	DW	00H
	DW	00H
	DW	00H
	DW	00H
	DW	00H
	DW	00H
	DW	00H
	DW	00H
	DW	00H
	DW	00H
	DW	00H
	DW	00H
	DW	00H
	DW	00H
	DW	00H
	DW	00H
	DW	00H
	DW	00H
	DW	00H
	DW	00H
	DW	00H
	DW	00H
	DW	00H
	DW	00H
	DW	00H
	DW	00H
	DW	00H
	DW	00H
	DW	00H
	DW	00H
	DW	00H
	DW	00H
	DW	00H
	DW	00H
	DW	00H
	DW	00H
	DW	00H
	DW	00H
	DW	00H
	DW	00H
	DW	00H
	DW	00H
	DW	00H
	DW	00H
	DW	00H
	DW	00H
	DW	00H
	DW	00H
	DW	00H
	DW	00H
	DW	00H
	DW	00H
	DW	00H
	DW	00H
	DW	00H
	DW	00H
	DW	00H
	DW	00H
	DW	00H
	DW	00H
	DW	00H
	DW	00H
	DW	00H
	DW	00H
	DW	00H
	DW	00H
	DW	00H
	DW	00H
	DW	00H
	DW	00H
	DW	00H
	DW	00H
	DW	00H
	DW	00H
	DW	00H
	DW	00H
	DW	00H
	DW	00H
	DW	00H
	DW	00H
	DW	00H
	DW	00H
	DW	00H
	DW	00H
	DW	00H
	DW	00H
	DW	00H
	DW	00H
	DW	00H
	DW	00H
	DW	00H
	DW	00H
	DW	00H
	DW	00H
	DW	00H
	DW	00H
	DW	00H
	DW	00H
	DW	00H
	DW	00H
	DW	00H
	DW	00H
	DW	00H
	DW	00H
	DW	00H
	DW	00H
	DW	00H
	DW	00H
	DW	00H
	DW	00H
	DW	00H
	DW	00H
	DW	00H
	DW	00H
	DW	00H
	DW	00H
	DW	00H
	DW	00H
	DW	00H
	DW	00H
	DW	00H
	DW	00H
	DW	00H
	DW	00H
	DW	00H
	DW	00H
	DW	00H
	DW	00H
	DW	00H
	DW	00H
	DW	00H
	DW	00H
	DW	00H
	DW	00H
	DW	00H
	DW	00H
	DW	00H
	DW	00H
	DW	00H
	DW	00H
	DW	00H
	DW	00H
	DW	00H
	DW	00H
	DW	00H
	DW	00H
	DW	00H
	DW	00H
	DW	00H
	DW	00H
	DW	00H
	DW	00H
	DW	00H
	DW	00H
	DW	00H
	DW	00H
	DW	00H
	DW	00H
	DW	00H
	DW	00H
	DW	00H
	DW	00H
	DW	00H
	DW	00H
	DW	00H
	DW	00H
	DW	00H
	DW	00H
	DW	00H
	DW	00H
	DW	00H
	DW	00H
	DW	00H
	DW	00H
	DW	00H
	DW	00H
	DW	00H
	DW	00H
	DW	00H
	DW	00H
	DW	00H
	DW	00H
	DW	00H
	DW	00H
	DW	00H
	DW	00H
	DW	00H
	DW	00H
	DW	00H
	DW	00H
	DW	00H
	DW	00H
	DW	00H
	DW	00H
	DW	00H
	DW	00H
	DW	00H
	DW	00H
	DW	00H
	DW	00H
	DW	00H
	DW	00H
	DW	00H
	DW	00H
	DW	00H
	DW	00H
	DW	00H
	DW	00H
	DW	00H
	DW	00H
	DW	00H
	DW	00H
	DW	00H
	DW	00H
	DW	00H
	DW	00H
	DW	00H
	DW	00H
	DW	00H
	DW	00H
	DW	00H
	DW	00H
	DW	00H
	DW	00H
	DW	00H
	DW	00H
	DW	00H
	DW	00H
	DW	00H
	DW	00H
	DW	00H
	DW	00H
	DW	00H
	DW	00H
	DW	00H
	DW	00H
	DW	00H
	DW	00H
	DW	00H
	DW	00H
	DW	00H
	DW	00H
	DW	00H
	DW	00H
	DW	00H
	DW	00H
	DW	00H
	DW	00H
	DW	00H
	DW	00H
	DW	00H
	DW	00H
	DW	00H
	DW	00H
	DW	00H
	DW	00H
	DW	00H
	DW	00H
	DW	00H
	DW	00H
	DW	00H
	DW	00H
	DW	0400H
	DW	0800H
	DW	0c20H
	DW	01020H
	DW	01440H
	DW	01840H
	DW	01c40H
	DW	01c40H
	DW	02060H
	DW	02060H
	DW	02060H
	DW	01c40H
	DW	01c40H
	DW	01c40H
	DW	01c40H
	DW	01c40H
	DW	01c40H
	DW	01c40H
	DW	01c40H
	DW	01c40H
	DW	01c40H
	DW	01c40H
	DW	01c40H
	DW	01c40H
	DW	01c40H
	DW	01c40H
	DW	01c40H
	DW	01c40H
	DW	01c40H
	DW	01c40H
	DW	01c40H
	DW	01c40H
	DW	01c40H
	DW	01c40H
	DW	01c40H
	DW	01c40H
	DW	01c40H
	DW	01c40H
	DW	01c40H
	DW	01c40H
	DW	01c40H
	DW	01c40H
	DW	02040H
	DW	02040H
	DW	02040H
	DW	02040H
	DW	02040H
	DW	02040H
	DW	02040H
	DW	02040H
	DW	02040H
	DW	02440H
	DW	02440H
	DW	02440H
	DW	02440H
	DW	02440H
	DW	02440H
	DW	02460H
	DW	02460H
	DW	02460H
	DW	02860H
	DW	02860H
	DW	02860H
	DW	02860H
	DW	02860H
	DW	02860H
	DW	02860H
	DW	02c60H
	DW	02c60H
	DW	02c60H
	DW	02c60H
	DW	02c60H
	DW	02c60H
	DW	02c60H
	DW	02c60H
	DW	02c60H
	DW	03060H
	DW	03060H
	DW	03060H
	DW	03060H
	DW	03060H
	DW	03060H
	DW	03060H
	DW	03060H
	DW	03060H
	DW	03060H
	DW	03060H
	DW	03060H
	DW	03060H
	DW	03060H
	DW	03060H
	DW	03060H
	DW	03060H
	DW	03060H
	DW	03060H
	DW	03060H
	DW	03060H
	DW	03060H
	DW	03060H
	DW	03060H
	DW	03060H
	DW	03060H
	DW	03060H
	DW	03060H
	DW	03060H
	DW	03040H
	DW	03040H
	DW	02c40H
	DW	02c40H
	DW	03060H
	DW	01420H
	DW	00H
	DW	00H
	DW	00H
	DW	00H
	DW	00H
	DW	00H
	DW	00H
	DW	00H
	DW	00H
	DW	00H
	DW	00H
	DW	00H
	DW	00H
	DW	00H
	DW	00H
	DW	00H
	DW	00H
	DW	00H
	DW	00H
	DW	00H
	DW	00H
	DW	00H
	DW	00H
	DW	00H
	DW	00H
	DW	00H
	DW	00H
	DW	00H
	DW	00H
	DW	00H
	DW	00H
	DW	00H
	DW	00H
	DW	00H
	DW	00H
	DW	00H
	DW	00H
	DW	00H
	DW	00H
	DW	00H
	DW	00H
	DW	00H
	DW	00H
	DW	00H
	DW	00H
	DW	00H
	DW	00H
	DW	00H
	DW	00H
	DW	00H
	DW	00H
	DW	00H
	DW	00H
	DW	00H
	DW	00H
	DW	00H
	DW	00H
	DW	00H
	DW	00H
	DW	00H
	DW	00H
	DW	00H
	DW	00H
	DW	00H
	DW	00H
	DW	00H
	DW	00H
	DW	00H
	DW	00H
	DW	00H
	DW	00H
	DW	00H
	DW	00H
	DW	00H
	DW	00H
	DW	00H
	DW	00H
	DW	00H
	DW	00H
	DW	00H
	DW	00H
	DW	00H
	DW	00H
	DW	00H
	DW	00H
	DW	00H
	DW	00H
	DW	00H
	DW	00H
	DW	00H
	DW	00H
	DW	00H
	DW	00H
	DW	00H
	DW	00H
	DW	00H
	DW	00H
	DW	00H
	DW	00H
	DW	00H
	DW	00H
	DW	00H
	DW	00H
	DW	00H
	DW	00H
	DW	00H
	DW	00H
	DW	00H
	DW	00H
	DW	00H
	DW	00H
	DW	00H
	DW	00H
	DW	00H
	DW	00H
	DW	00H
	DW	00H
	DW	00H
	DW	00H
	DW	00H
	DW	00H
	DW	00H
	DW	00H
	DW	00H
	DW	00H
	DW	00H
	DW	00H
	DW	00H
	DW	00H
	DW	00H
	DW	00H
	DW	00H
	DW	00H
	DW	00H
	DW	00H
	DW	00H
	DW	00H
	DW	00H
	DW	00H
	DW	00H
	DW	00H
	DW	00H
	DW	00H
	DW	00H
	DW	00H
	DW	00H
	DW	00H
	DW	00H
	DW	00H
	DW	00H
	DW	00H
	DW	00H
	DW	00H
	DW	00H
	DW	00H
	DW	00H
	DW	00H
	DW	00H
	DW	00H
	DW	00H
	DW	00H
	DW	00H
	DW	00H
	DW	00H
	DW	00H
	DW	00H
	DW	00H
	DW	00H
	DW	00H
	DW	00H
	DW	00H
	DW	00H
	DW	00H
	DW	00H
	DW	00H
	DW	00H
	DW	00H
	DW	00H
	DW	00H
	DW	00H
	DW	00H
	DW	00H
	DW	00H
	DW	00H
	DW	00H
	DW	00H
	DW	00H
	DW	00H
	DW	00H
	DW	00H
	DW	00H
	DW	00H
	DW	00H
	DW	00H
	DW	00H
	DW	00H
	DW	00H
	DW	00H
	DW	00H
	DW	00H
	DW	00H
	DW	00H
	DW	00H
	DW	00H
	DW	00H
	DW	00H
	DW	00H
	DW	00H
	DW	00H
	DW	00H
	DW	00H
	DW	00H
	DW	00H
	DW	00H
	DW	00H
	DW	00H
	DW	00H
	DW	00H
	DW	00H
	DW	00H
	DW	00H
	DW	00H
	DW	00H
	DW	00H
	DW	00H
	DW	00H
	DW	00H
	DW	00H
	DW	00H
	DW	00H
	DW	00H
	DW	00H
	DW	00H
	DW	00H
	DW	00H
	DW	00H
	DW	00H
	DW	00H
	DW	00H
	DW	00H
	DW	00H
	DW	00H
	DW	00H
	DW	00H
	DW	00H
	DW	00H
	DW	00H
	DW	00H
	DW	00H
	DW	00H
	DW	00H
	DW	00H
	DW	00H
	DW	00H
	DW	00H
	DW	00H
	DW	00H
	DW	00H
	DW	00H
	DW	00H
	DW	00H
	DW	00H
	DW	00H
	DW	00H
	DW	00H
	DW	00H
	DW	00H
	DW	00H
	DW	00H
	DW	00H
	DW	00H
	DW	00H
	DW	00H
	DW	00H
	DW	00H
	DW	00H
	DW	00H
	DW	00H
	DW	00H
	DW	00H
	DW	00H
	DW	00H
	DW	00H
	DW	00H
	DW	00H
	DW	00H
	DW	00H
	DW	00H
	DW	00H
	DW	00H
	DW	00H
	DW	00H
	DW	00H
	DW	00H
	DW	00H
	DW	00H
	DW	00H
	DW	00H
	DW	00H
	DW	00H
	DW	00H
	DW	00H
	DW	00H
	DW	00H
	DW	00H
	DW	00H
	DW	00H
	DW	00H
	DW	00H
	DW	00H
	DW	00H
	DW	00H
	DW	00H
	DW	00H
	DW	00H
	DW	00H
	DW	00H
	DW	00H
	DW	00H
	DW	00H
	DW	00H
	DW	00H
	DW	00H
	DW	00H
	DW	00H
	DW	00H
	DW	00H
	DW	00H
	DW	00H
	DW	00H
	DW	00H
	DW	00H
	DW	00H
	DW	00H
	DW	00H
	DW	00H
	DW	00H
	DW	00H
	DW	00H
	DW	00H
	DW	00H
	DW	00H
	DW	00H
	DW	00H
	DW	00H
	DW	00H
	DW	00H
	DW	00H
	DW	00H
	DW	00H
	DW	00H
	DW	00H
	DW	00H
	DW	00H
	DW	00H
	DW	00H
	DW	00H
	DW	00H
	DW	00H
	DW	00H
	DW	00H
	DW	00H
	DW	00H
	DW	0400H
	DW	0800H
	DW	0c20H
	DW	01020H
	DW	01440H
	DW	01840H
	DW	01c40H
	DW	02060H
	DW	02060H
	DW	02060H
	DW	01c60H
	DW	01c60H
	DW	01c40H
	DW	01c40H
	DW	01c40H
	DW	01c40H
	DW	01c40H
	DW	01c40H
	DW	01c40H
	DW	01c40H
	DW	01c40H
	DW	01c40H
	DW	01c40H
	DW	01c40H
	DW	01c40H
	DW	01c40H
	DW	01c40H
	DW	01c40H
	DW	01c40H
	DW	01c40H
	DW	01c40H
	DW	01c40H
	DW	01c40H
	DW	01c40H
	DW	01c40H
	DW	01c40H
	DW	01c40H
	DW	01c40H
	DW	02040H
	DW	02040H
	DW	02040H
	DW	02040H
	DW	02040H
	DW	02040H
	DW	02060H
	DW	02060H
	DW	02460H
	DW	02460H
	DW	02460H
	DW	02460H
	DW	02460H
	DW	02460H
	DW	02860H
	DW	02860H
	DW	02860H
	DW	02860H
	DW	02c60H
	DW	02c60H
	DW	02c60H
	DW	02c60H
	DW	02c60H
	DW	02c60H
	DW	03060H
	DW	03060H
	DW	03060H
	DW	03060H
	DW	03060H
	DW	03460H
	DW	03480H
	DW	03480H
	DW	03480H
	DW	03480H
	DW	03880H
	DW	03880H
	DW	03880H
	DW	03880H
	DW	03880H
	DW	03880H
	DW	03880H
	DW	03c80H
	DW	03c80H
	DW	03c80H
	DW	03c80H
	DW	03c80H
	DW	03c80H
	DW	03c80H
	DW	04080H
	DW	04080H
	DW	04080H
	DW	04080H
	DW	04080H
	DW	04080H
	DW	04080H
	DW	04080H
	DW	04080H
	DW	04080H
	DW	04080H
	DW	04080H
	DW	04080H
	DW	04080H
	DW	04080H
	DW	04080H
	DW	04080H
	DW	04080H
	DW	04080H
	DW	04080H
	DW	04080H
	DW	03c60H
	DW	03c60H
	DW	03c60H
	DW	03c60H
	DW	03c60H
	DW	03c60H
	DW	03c60H
	DW	03c60H
	DW	04060H
	DW	01c20H
	DW	00H
	DW	00H
	DW	00H
	DW	00H
	DW	00H
	DW	00H
	DW	00H
	DW	00H
	DW	00H
	DW	00H
	DW	00H
	DW	00H
	DW	00H
	DW	00H
	DW	00H
	DW	00H
	DW	00H
	DW	00H
	DW	00H
	DW	00H
	DW	00H
	DW	00H
	DW	00H
	DW	00H
	DW	00H
	DW	00H
	DW	00H
	DW	00H
	DW	00H
	DW	00H
	DW	00H
	DW	00H
	DW	00H
	DW	00H
	DW	00H
	DW	00H
	DW	00H
	DW	00H
	DW	00H
	DW	00H
	DW	00H
	DW	00H
	DW	00H
	DW	00H
	DW	00H
	DW	00H
	DW	00H
	DW	00H
	DW	00H
	DW	00H
	DW	00H
	DW	00H
	DW	00H
	DW	00H
	DW	00H
	DW	00H
	DW	00H
	DW	00H
	DW	00H
	DW	00H
	DW	00H
	DW	00H
	DW	00H
	DW	00H
	DW	00H
	DW	00H
	DW	00H
	DW	00H
	DW	00H
	DW	00H
	DW	00H
	DW	00H
	DW	00H
	DW	00H
	DW	00H
	DW	00H
	DW	00H
	DW	00H
	DW	00H
	DW	00H
	DW	00H
	DW	00H
	DW	00H
	DW	00H
	DW	00H
	DW	00H
	DW	00H
	DW	00H
	DW	00H
	DW	00H
	DW	00H
	DW	00H
	DW	00H
	DW	00H
	DW	00H
	DW	00H
	DW	00H
	DW	00H
	DW	00H
	DW	00H
	DW	00H
	DW	00H
	DW	00H
	DW	00H
	DW	00H
	DW	00H
	DW	00H
	DW	00H
	DW	00H
	DW	00H
	DW	00H
	DW	00H
	DW	00H
	DW	00H
	DW	00H
	DW	00H
	DW	00H
	DW	00H
	DW	00H
	DW	00H
	DW	00H
	DW	00H
	DW	00H
	DW	00H
	DW	00H
	DW	00H
	DW	00H
	DW	00H
	DW	00H
	DW	00H
	DW	00H
	DW	00H
	DW	00H
	DW	00H
	DW	00H
	DW	00H
	DW	00H
	DW	00H
	DW	00H
	DW	00H
	DW	00H
	DW	00H
	DW	00H
	DW	00H
	DW	00H
	DW	00H
	DW	00H
	DW	00H
	DW	00H
	DW	00H
	DW	00H
	DW	00H
	DW	00H
	DW	00H
	DW	00H
	DW	00H
	DW	00H
	DW	00H
	DW	00H
	DW	00H
	DW	00H
	DW	00H
	DW	00H
	DW	00H
	DW	00H
	DW	00H
	DW	00H
	DW	00H
	DW	00H
	DW	00H
	DW	00H
	DW	00H
	DW	00H
	DW	00H
	DW	00H
	DW	00H
	DW	00H
	DW	00H
	DW	00H
	DW	00H
	DW	00H
	DW	00H
	DW	00H
	DW	00H
	DW	00H
	DW	00H
	DW	00H
	DW	00H
	DW	00H
	DW	00H
	DW	00H
	DW	00H
	DW	00H
	DW	00H
	DW	00H
	DW	00H
	DW	00H
	DW	00H
	DW	00H
	DW	00H
	DW	00H
	DW	00H
	DW	00H
	DW	00H
	DW	00H
	DW	00H
	DW	00H
	DW	00H
	DW	00H
	DW	00H
	DW	00H
	DW	00H
	DW	00H
	DW	00H
	DW	00H
	DW	00H
	DW	00H
	DW	00H
	DW	00H
	DW	00H
	DW	00H
	DW	00H
	DW	00H
	DW	00H
	DW	00H
	DW	00H
	DW	00H
	DW	00H
	DW	00H
	DW	00H
	DW	00H
	DW	00H
	DW	00H
	DW	00H
	DW	00H
	DW	00H
	DW	00H
	DW	00H
	DW	00H
	DW	00H
	DW	00H
	DW	00H
	DW	00H
	DW	00H
	DW	00H
	DW	00H
	DW	00H
	DW	00H
	DW	00H
	DW	00H
	DW	00H
	DW	00H
	DW	00H
	DW	00H
	DW	00H
	DW	00H
	DW	00H
	DW	00H
	DW	00H
	DW	00H
	DW	00H
	DW	00H
	DW	00H
	DW	00H
	DW	00H
	DW	00H
	DW	00H
	DW	00H
	DW	00H
	DW	00H
	DW	00H
	DW	00H
	DW	00H
	DW	00H
	DW	00H
	DW	00H
	DW	00H
	DW	00H
	DW	00H
	DW	00H
	DW	00H
	DW	00H
	DW	00H
	DW	00H
	DW	00H
	DW	00H
	DW	00H
	DW	00H
	DW	00H
	DW	00H
	DW	00H
	DW	00H
	DW	00H
	DW	00H
	DW	00H
	DW	00H
	DW	00H
	DW	00H
	DW	00H
	DW	00H
	DW	00H
	DW	00H
	DW	00H
	DW	00H
	DW	00H
	DW	00H
	DW	00H
	DW	00H
	DW	00H
	DW	00H
	DW	00H
	DW	00H
	DW	00H
	DW	00H
	DW	00H
	DW	00H
	DW	00H
	DW	00H
	DW	00H
	DW	00H
	DW	00H
	DW	00H
	DW	00H
	DW	00H
	DW	00H
	DW	00H
	DW	00H
	DW	00H
	DW	00H
	DW	00H
	DW	00H
	DW	00H
	DW	00H
	DW	00H
	DW	00H
	DW	00H
	DW	00H
	DW	00H
	DW	00H
	DW	00H
	DW	00H
	DW	00H
	DW	00H
	DW	00H
	DW	00H
	DW	00H
	DW	00H
	DW	00H
	DW	00H
	DW	00H
	DW	00H
	DW	00H
	DW	00H
	DW	00H
	DW	00H
	DW	00H
	DW	00H
	DW	00H
	DW	0400H
	DW	0820H
	DW	0c20H
	DW	01440H
	DW	01840H
	DW	01c40H
	DW	01c60H
	DW	01c60H
	DW	02060H
	DW	02060H
	DW	01c60H
	DW	01c40H
	DW	01c40H
	DW	01c40H
	DW	01c40H
	DW	01c40H
	DW	01c40H
	DW	01c40H
	DW	01c40H
	DW	01c40H
	DW	01c40H
	DW	01c40H
	DW	01c40H
	DW	01c40H
	DW	01c40H
	DW	01c40H
	DW	01c40H
	DW	01c40H
	DW	01c40H
	DW	01c40H
	DW	01c40H
	DW	01c40H
	DW	01c40H
	DW	01c40H
	DW	01c40H
	DW	02040H
	DW	02040H
	DW	02040H
	DW	02040H
	DW	02060H
	DW	02060H
	DW	02060H
	DW	02460H
	DW	02460H
	DW	02460H
	DW	02460H
	DW	02860H
	DW	02860H
	DW	02860H
	DW	02860H
	DW	02c60H
	DW	02c60H
	DW	02c60H
	DW	02c60H
	DW	03060H
	DW	03080H
	DW	03080H
	DW	03080H
	DW	03480H
	DW	03480H
	DW	03480H
	DW	03880H
	DW	03880H
	DW	03880H
	DW	03880H
	DW	03c80H
	DW	03c80H
	DW	03c80H
	DW	03c80H
	DW	04080H
	DW	04080H
	DW	040a0H
	DW	040a0H
	DW	044a0H
	DW	044a0H
	DW	044a0H
	DW	044a0H
	DW	048a0H
	DW	048a0H
	DW	048a0H
	DW	048a0H
	DW	048a0H
	DW	04ca0H
	DW	04ca0H
	DW	04ca0H
	DW	04ca0H
	DW	04ca0H
	DW	04ca1H
	DW	04ca1H
	DW	050a1H
	DW	050a1H
	DW	050a1H
	DW	050a1H
	DW	050a1H
	DW	050a1H
	DW	050a1H
	DW	050a1H
	DW	050a1H
	DW	050a1H
	DW	050a1H
	DW	050a1H
	DW	050a1H
	DW	050a0H
	DW	050a0H
	DW	050a0H
	DW	050a0H
	DW	050a0H
	DW	050a1H
	DW	050a1H
	DW	050a1H
	DW	050a1H
	DW	050a1H
	DW	05081H
	DW	05081H
	DW	05081H
	DW	05081H
	DW	04c81H
	DW	04c81H
	DW	04c81H
	DW	04c81H
	DW	05081H
	DW	02440H
	DW	00H
	DW	00H
	DW	00H
	DW	00H
	DW	00H
	DW	00H
	DW	00H
	DW	00H
	DW	00H
	DW	00H
	DW	00H
	DW	00H
	DW	00H
	DW	00H
	DW	00H
	DW	00H
	DW	00H
	DW	00H
	DW	00H
	DW	00H
	DW	00H
	DW	00H
	DW	00H
	DW	00H
	DW	00H
	DW	00H
	DW	00H
	DW	00H
	DW	00H
	DW	00H
	DW	00H
	DW	00H
	DW	00H
	DW	00H
	DW	00H
	DW	00H
	DW	00H
	DW	00H
	DW	00H
	DW	00H
	DW	00H
	DW	00H
	DW	00H
	DW	00H
	DW	00H
	DW	00H
	DW	00H
	DW	00H
	DW	00H
	DW	00H
	DW	00H
	DW	00H
	DW	00H
	DW	00H
	DW	00H
	DW	00H
	DW	00H
	DW	00H
	DW	00H
	DW	00H
	DW	00H
	DW	00H
	DW	00H
	DW	00H
	DW	00H
	DW	00H
	DW	00H
	DW	00H
	DW	00H
	DW	00H
	DW	00H
	DW	00H
	DW	00H
	DW	00H
	DW	00H
	DW	00H
	DW	00H
	DW	00H
	DW	00H
	DW	00H
	DW	00H
	DW	00H
	DW	00H
	DW	00H
	DW	00H
	DW	00H
	DW	00H
	DW	00H
	DW	00H
	DW	00H
	DW	00H
	DW	00H
	DW	00H
	DW	00H
	DW	00H
	DW	00H
	DW	00H
	DW	00H
	DW	00H
	DW	00H
	DW	00H
	DW	00H
	DW	00H
	DW	00H
	DW	00H
	DW	00H
	DW	00H
	DW	00H
	DW	00H
	DW	00H
	DW	00H
	DW	00H
	DW	00H
	DW	00H
	DW	00H
	DW	00H
	DW	00H
	DW	00H
	DW	00H
	DW	00H
	DW	00H
	DW	00H
	DW	00H
	DW	00H
	DW	00H
	DW	00H
	DW	00H
	DW	00H
	DW	00H
	DW	00H
	DW	00H
	DW	00H
	DW	00H
	DW	00H
	DW	00H
	DW	00H
	DW	00H
	DW	00H
	DW	00H
	DW	00H
	DW	00H
	DW	00H
	DW	00H
	DW	00H
	DW	00H
	DW	00H
	DW	00H
	DW	00H
	DW	00H
	DW	00H
	DW	00H
	DW	00H
	DW	00H
	DW	00H
	DW	00H
	DW	00H
	DW	00H
	DW	00H
	DW	00H
	DW	00H
	DW	00H
	DW	00H
	DW	00H
	DW	00H
	DW	00H
	DW	00H
	DW	00H
	DW	00H
	DW	00H
	DW	00H
	DW	00H
	DW	00H
	DW	00H
	DW	00H
	DW	00H
	DW	00H
	DW	00H
	DW	00H
	DW	00H
	DW	00H
	DW	00H
	DW	00H
	DW	00H
	DW	00H
	DW	00H
	DW	00H
	DW	00H
	DW	00H
	DW	00H
	DW	00H
	DW	00H
	DW	00H
	DW	00H
	DW	00H
	DW	00H
	DW	00H
	DW	00H
	DW	00H
	DW	00H
	DW	00H
	DW	00H
	DW	00H
	DW	00H
	DW	00H
	DW	00H
	DW	00H
	DW	00H
	DW	00H
	DW	00H
	DW	00H
	DW	00H
	DW	00H
	DW	00H
	DW	00H
	DW	00H
	DW	00H
	DW	00H
	DW	00H
	DW	00H
	DW	00H
	DW	00H
	DW	00H
	DW	00H
	DW	00H
	DW	00H
	DW	00H
	DW	00H
	DW	00H
	DW	00H
	DW	00H
	DW	00H
	DW	00H
	DW	00H
	DW	00H
	DW	00H
	DW	00H
	DW	00H
	DW	00H
	DW	00H
	DW	00H
	DW	00H
	DW	00H
	DW	00H
	DW	00H
	DW	00H
	DW	00H
	DW	00H
	DW	00H
	DW	00H
	DW	00H
	DW	00H
	DW	00H
	DW	00H
	DW	00H
	DW	00H
	DW	00H
	DW	00H
	DW	00H
	DW	00H
	DW	00H
	DW	00H
	DW	00H
	DW	00H
	DW	00H
	DW	00H
	DW	00H
	DW	00H
	DW	00H
	DW	00H
	DW	00H
	DW	00H
	DW	00H
	DW	00H
	DW	00H
	DW	00H
	DW	00H
	DW	00H
	DW	00H
	DW	00H
	DW	00H
	DW	00H
	DW	00H
	DW	00H
	DW	00H
	DW	00H
	DW	00H
	DW	00H
	DW	00H
	DW	00H
	DW	00H
	DW	00H
	DW	00H
	DW	00H
	DW	00H
	DW	00H
	DW	00H
	DW	00H
	DW	00H
	DW	00H
	DW	00H
	DW	00H
	DW	00H
	DW	00H
	DW	00H
	DW	00H
	DW	00H
	DW	00H
	DW	00H
	DW	00H
	DW	00H
	DW	00H
	DW	00H
	DW	00H
	DW	00H
	DW	00H
	DW	00H
	DW	00H
	DW	00H
	DW	00H
	DW	00H
	DW	00H
	DW	00H
	DW	00H
	DW	00H
	DW	00H
	DW	00H
	DW	00H
	DW	00H
	DW	00H
	DW	00H
	DW	00H
	DW	00H
	DW	00H
	DW	00H
	DW	00H
	DW	00H
	DW	00H
	DW	00H
	DW	00H
	DW	00H
	DW	00H
	DW	00H
	DW	00H
	DW	00H
	DW	00H
	DW	00H
	DW	00H
	DW	00H
	DW	00H
	DW	00H
	DW	00H
	DW	00H
	DW	00H
	DW	0400H
	DW	0820H
	DW	01020H
	DW	01440H
	DW	01840H
	DW	01c40H
	DW	01c60H
	DW	02060H
	DW	02060H
	DW	02060H
	DW	01c60H
	DW	01c60H
	DW	01c40H
	DW	01c40H
	DW	01c40H
	DW	01c40H
	DW	01c40H
	DW	01c40H
	DW	01c40H
	DW	01c40H
	DW	01c40H
	DW	01c40H
	DW	01c40H
	DW	01c40H
	DW	01c40H
	DW	01c40H
	DW	01c40H
	DW	01c40H
	DW	01c40H
	DW	01c40H
	DW	01c40H
	DW	01c40H
	DW	02040H
	DW	02040H
	DW	02040H
	DW	02040H
	DW	02060H
	DW	02060H
	DW	02460H
	DW	02460H
	DW	02460H
	DW	02460H
	DW	02460H
	DW	02860H
	DW	02860H
	DW	02860H
	DW	02c60H
	DW	02c60H
	DW	02c60H
	DW	03080H
	DW	03080H
	DW	03080H
	DW	03480H
	DW	03480H
	DW	03480H
	DW	03880H
	DW	03880H
	DW	03880H
	DW	03c80H
	DW	03ca0H
	DW	03ca0H
	DW	040a0H
	DW	040a0H
	DW	044a0H
	DW	044a0H
	DW	044a0H
	DW	048a0H
	DW	048a0H
	DW	048a0H
	DW	04ca0H
	DW	04ca0H
	DW	04cc0H
	DW	050c0H
	DW	050c0H
	DW	050c0H
	DW	050c0H
	DW	050c0H
	DW	054c1H
	DW	054c1H
	DW	054c1H
	DW	054c1H
	DW	058c1H
	DW	058c1H
	DW	058c1H
	DW	058c1H
	DW	058c1H
	DW	058c1H
	DW	05cc1H
	DW	05cc1H
	DW	05cc1H
	DW	05cc1H
	DW	05cc1H
	DW	05cc1H
	DW	05cc1H
	DW	05cc1H
	DW	05cc1H
	DW	05cc1H
	DW	05cc1H
	DW	060c1H
	DW	060c1H
	DW	060c1H
	DW	060c1H
	DW	060c1H
	DW	060c1H
	DW	060c1H
	DW	060c1H
	DW	060c1H
	DW	060c1H
	DW	060c1H
	DW	060c1H
	DW	060c1H
	DW	060c1H
	DW	060c1H
	DW	05ca1H
	DW	05ca1H
	DW	05ca1H
	DW	05ca1H
	DW	05ca1H
	DW	05ca1H
	DW	05ca1H
	DW	05ca1H
	DW	05ca1H
	DW	05ca1H
	DW	05ca1H
	DW	05ca1H
	DW	060a1H
	DW	02c40H
	DW	00H
	DW	00H
	DW	00H
	DW	00H
	DW	00H
	DW	00H
	DW	00H
	DW	00H
	DW	00H
	DW	00H
	DW	00H
	DW	00H
	DW	00H
	DW	00H
	DW	00H
	DW	00H
	DW	00H
	DW	00H
	DW	00H
	DW	00H
	DW	00H
	DW	00H
	DW	00H
	DW	00H
	DW	00H
	DW	00H
	DW	00H
	DW	00H
	DW	00H
	DW	00H
	DW	00H
	DW	00H
	DW	00H
	DW	00H
	DW	00H
	DW	00H
	DW	00H
	DW	00H
	DW	00H
	DW	00H
	DW	00H
	DW	00H
	DW	00H
	DW	00H
	DW	00H
	DW	00H
	DW	00H
	DW	00H
	DW	00H
	DW	00H
	DW	00H
	DW	00H
	DW	00H
	DW	00H
	DW	00H
	DW	00H
	DW	00H
	DW	00H
	DW	00H
	DW	00H
	DW	00H
	DW	00H
	DW	00H
	DW	00H
	DW	00H
	DW	00H
	DW	00H
	DW	00H
	DW	00H
	DW	00H
	DW	00H
	DW	00H
	DW	00H
	DW	00H
	DW	00H
	DW	00H
	DW	00H
	DW	00H
	DW	00H
	DW	00H
	DW	00H
	DW	00H
	DW	00H
	DW	00H
	DW	00H
	DW	00H
	DW	00H
	DW	00H
	DW	00H
	DW	00H
	DW	00H
	DW	00H
	DW	00H
	DW	00H
	DW	00H
	DW	00H
	DW	00H
	DW	00H
	DW	00H
	DW	00H
	DW	00H
	DW	00H
	DW	00H
	DW	00H
	DW	00H
	DW	00H
	DW	00H
	DW	00H
	DW	00H
	DW	00H
	DW	00H
	DW	00H
	DW	00H
	DW	00H
	DW	00H
	DW	00H
	DW	00H
	DW	00H
	DW	00H
	DW	00H
	DW	00H
	DW	00H
	DW	00H
	DW	00H
	DW	00H
	DW	00H
	DW	00H
	DW	00H
	DW	00H
	DW	00H
	DW	00H
	DW	00H
	DW	00H
	DW	00H
	DW	00H
	DW	00H
	DW	00H
	DW	00H
	DW	00H
	DW	00H
	DW	00H
	DW	00H
	DW	00H
	DW	00H
	DW	00H
	DW	00H
	DW	00H
	DW	00H
	DW	00H
	DW	00H
	DW	00H
	DW	00H
	DW	00H
	DW	00H
	DW	00H
	DW	00H
	DW	00H
	DW	00H
	DW	00H
	DW	00H
	DW	00H
	DW	00H
	DW	00H
	DW	00H
	DW	00H
	DW	00H
	DW	00H
	DW	00H
	DW	00H
	DW	00H
	DW	00H
	DW	00H
	DW	00H
	DW	00H
	DW	00H
	DW	00H
	DW	00H
	DW	00H
	DW	00H
	DW	00H
	DW	00H
	DW	00H
	DW	00H
	DW	00H
	DW	00H
	DW	00H
	DW	00H
	DW	00H
	DW	00H
	DW	00H
	DW	00H
	DW	00H
	DW	00H
	DW	00H
	DW	00H
	DW	00H
	DW	00H
	DW	00H
	DW	00H
	DW	00H
	DW	00H
	DW	00H
	DW	00H
	DW	00H
	DW	00H
	DW	00H
	DW	00H
	DW	00H
	DW	00H
	DW	00H
	DW	00H
	DW	00H
	DW	00H
	DW	00H
	DW	00H
	DW	00H
	DW	00H
	DW	00H
	DW	00H
	DW	00H
	DW	00H
	DW	00H
	DW	00H
	DW	00H
	DW	00H
	DW	00H
	DW	00H
	DW	00H
	DW	00H
	DW	00H
	DW	00H
	DW	00H
	DW	00H
	DW	00H
	DW	00H
	DW	00H
	DW	00H
	DW	00H
	DW	00H
	DW	00H
	DW	00H
	DW	00H
	DW	00H
	DW	00H
	DW	00H
	DW	00H
	DW	00H
	DW	00H
	DW	00H
	DW	00H
	DW	00H
	DW	00H
	DW	00H
	DW	00H
	DW	00H
	DW	00H
	DW	00H
	DW	00H
	DW	00H
	DW	00H
	DW	00H
	DW	00H
	DW	00H
	DW	00H
	DW	00H
	DW	00H
	DW	00H
	DW	00H
	DW	00H
	DW	00H
	DW	00H
	DW	00H
	DW	00H
	DW	00H
	DW	00H
	DW	00H
	DW	00H
	DW	00H
	DW	00H
	DW	00H
	DW	00H
	DW	00H
	DW	00H
	DW	00H
	DW	00H
	DW	00H
	DW	00H
	DW	00H
	DW	00H
	DW	00H
	DW	00H
	DW	00H
	DW	00H
	DW	00H
	DW	00H
	DW	00H
	DW	00H
	DW	00H
	DW	00H
	DW	00H
	DW	00H
	DW	00H
	DW	00H
	DW	00H
	DW	00H
	DW	00H
	DW	00H
	DW	00H
	DW	00H
	DW	00H
	DW	00H
	DW	00H
	DW	00H
	DW	00H
	DW	00H
	DW	00H
	DW	00H
	DW	00H
	DW	00H
	DW	00H
	DW	00H
	DW	00H
	DW	00H
	DW	00H
	DW	00H
	DW	00H
	DW	00H
	DW	00H
	DW	00H
	DW	00H
	DW	00H
	DW	00H
	DW	00H
	DW	00H
	DW	00H
	DW	00H
	DW	00H
	DW	00H
	DW	00H
	DW	00H
	DW	00H
	DW	00H
	DW	00H
	DW	00H
	DW	00H
	DW	00H
	DW	00H
	DW	00H
	DW	0400H
	DW	0c20H
	DW	01020H
	DW	01440H
	DW	01840H
	DW	01c60H
	DW	02060H
	DW	02060H
	DW	02060H
	DW	02060H
	DW	01c60H
	DW	01c60H
	DW	01c60H
	DW	01c60H
	DW	01c60H
	DW	01c40H
	DW	01c40H
	DW	01c40H
	DW	01c40H
	DW	01c40H
	DW	01c40H
	DW	01c40H
	DW	01c40H
	DW	01c40H
	DW	01c40H
	DW	01c40H
	DW	01c40H
	DW	01c40H
	DW	01c40H
	DW	02040H
	DW	02040H
	DW	02060H
	DW	02060H
	DW	02060H
	DW	02060H
	DW	02060H
	DW	02460H
	DW	02460H
	DW	02460H
	DW	02460H
	DW	02860H
	DW	02860H
	DW	02860H
	DW	02c60H
	DW	02c80H
	DW	03080H
	DW	03080H
	DW	03080H
	DW	03480H
	DW	03480H
	DW	03480H
	DW	03880H
	DW	03880H
	DW	03ca0H
	DW	03ca0H
	DW	040a0H
	DW	040a0H
	DW	040a0H
	DW	044a0H
	DW	044a0H
	DW	048a0H
	DW	048c0H
	DW	04cc0H
	DW	04cc0H
	DW	04cc0H
	DW	050c1H
	DW	050c1H
	DW	054c1H
	DW	054c1H
	DW	054c1H
	DW	058c1H
	DW	058c1H
	DW	058c1H
	DW	05ce1H
	DW	05ce1H
	DW	05ce1H
	DW	05ce1H
	DW	060e1H
	DW	060e1H
	DW	060e1H
	DW	060e1H
	DW	060e1H
	DW	060e1H
	DW	064e1H
	DW	064e1H
	DW	064e1H
	DW	064e1H
	DW	064e1H
	DW	064e1H
	DW	064e1H
	DW	064e1H
	DW	068e1H
	DW	068e1H
	DW	068e1H
	DW	068e1H
	DW	068e1H
	DW	068e1H
	DW	068e1H
	DW	068e1H
	DW	068e1H
	DW	068e1H
	DW	068e1H
	DW	068e1H
	DW	068e1H
	DW	068e1H
	DW	068e1H
	DW	068e1H
	DW	068e1H
	DW	068e1H
	DW	068e1H
	DW	068c1H
	DW	068c1H
	DW	068c1H
	DW	068c1H
	DW	068c1H
	DW	068c1H
	DW	068c1H
	DW	068c1H
	DW	068c1H
	DW	068c1H
	DW	068c1H
	DW	068c1H
	DW	068c1H
	DW	068c1H
	DW	068c1H
	DW	068c1H
	DW	068c1H
	DW	068c1H
	DW	068c1H
	DW	068c1H
	DW	06cc1H
	DW	03060H
	DW	00H
	DW	00H
	DW	00H
	DW	00H
	DW	00H
	DW	00H
	DW	00H
	DW	00H
	DW	00H
	DW	00H
	DW	00H
	DW	00H
	DW	00H
	DW	00H
	DW	00H
	DW	00H
	DW	00H
	DW	00H
	DW	00H
	DW	00H
	DW	00H
	DW	00H
	DW	00H
	DW	00H
	DW	00H
	DW	00H
	DW	00H
	DW	00H
	DW	00H
	DW	00H
	DW	00H
	DW	00H
	DW	00H
	DW	00H
	DW	00H
	DW	00H
	DW	00H
	DW	00H
	DW	00H
	DW	00H
	DW	00H
	DW	00H
	DW	00H
	DW	00H
	DW	00H
	DW	00H
	DW	00H
	DW	00H
	DW	00H
	DW	00H
	DW	00H
	DW	00H
	DW	00H
	DW	00H
	DW	00H
	DW	00H
	DW	00H
	DW	00H
	DW	00H
	DW	00H
	DW	00H
	DW	00H
	DW	00H
	DW	00H
	DW	00H
	DW	00H
	DW	00H
	DW	00H
	DW	00H
	DW	00H
	DW	00H
	DW	00H
	DW	00H
	DW	00H
	DW	00H
	DW	00H
	DW	00H
	DW	00H
	DW	00H
	DW	00H
	DW	00H
	DW	00H
	DW	00H
	DW	00H
	DW	00H
	DW	00H
	DW	00H
	DW	00H
	DW	00H
	DW	00H
	DW	00H
	DW	00H
	DW	00H
	DW	00H
	DW	00H
	DW	00H
	DW	00H
	DW	00H
	DW	00H
	DW	00H
	DW	00H
	DW	00H
	DW	00H
	DW	00H
	DW	00H
	DW	00H
	DW	00H
	DW	00H
	DW	00H
	DW	00H
	DW	00H
	DW	00H
	DW	00H
	DW	00H
	DW	00H
	DW	00H
	DW	00H
	DW	00H
	DW	00H
	DW	00H
	DW	00H
	DW	00H
	DW	00H
	DW	00H
	DW	00H
	DW	00H
	DW	00H
	DW	00H
	DW	00H
	DW	00H
	DW	00H
	DW	00H
	DW	00H
	DW	00H
	DW	00H
	DW	00H
	DW	00H
	DW	00H
	DW	00H
	DW	00H
	DW	00H
	DW	00H
	DW	00H
	DW	00H
	DW	00H
	DW	00H
	DW	00H
	DW	00H
	DW	00H
	DW	00H
	DW	00H
	DW	00H
	DW	00H
	DW	00H
	DW	00H
	DW	00H
	DW	00H
	DW	00H
	DW	00H
	DW	00H
	DW	00H
	DW	00H
	DW	00H
	DW	00H
	DW	00H
	DW	00H
	DW	00H
	DW	00H
	DW	00H
	DW	00H
	DW	00H
	DW	00H
	DW	00H
	DW	00H
	DW	00H
	DW	00H
	DW	00H
	DW	00H
	DW	00H
	DW	00H
	DW	00H
	DW	00H
	DW	00H
	DW	00H
	DW	00H
	DW	00H
	DW	00H
	DW	00H
	DW	00H
	DW	00H
	DW	00H
	DW	00H
	DW	00H
	DW	00H
	DW	00H
	DW	00H
	DW	00H
	DW	00H
	DW	00H
	DW	00H
	DW	00H
	DW	00H
	DW	00H
	DW	00H
	DW	00H
	DW	00H
	DW	00H
	DW	00H
	DW	00H
	DW	00H
	DW	00H
	DW	00H
	DW	00H
	DW	00H
	DW	00H
	DW	00H
	DW	00H
	DW	00H
	DW	00H
	DW	00H
	DW	00H
	DW	00H
	DW	00H
	DW	00H
	DW	00H
	DW	00H
	DW	00H
	DW	00H
	DW	00H
	DW	00H
	DW	00H
	DW	00H
	DW	00H
	DW	00H
	DW	00H
	DW	00H
	DW	00H
	DW	00H
	DW	00H
	DW	00H
	DW	00H
	DW	00H
	DW	00H
	DW	00H
	DW	00H
	DW	00H
	DW	00H
	DW	00H
	DW	00H
	DW	00H
	DW	00H
	DW	00H
	DW	00H
	DW	00H
	DW	00H
	DW	00H
	DW	00H
	DW	00H
	DW	00H
	DW	00H
	DW	00H
	DW	00H
	DW	00H
	DW	00H
	DW	00H
	DW	00H
	DW	00H
	DW	00H
	DW	00H
	DW	00H
	DW	00H
	DW	00H
	DW	00H
	DW	00H
	DW	00H
	DW	00H
	DW	00H
	DW	00H
	DW	00H
	DW	00H
	DW	00H
	DW	00H
	DW	00H
	DW	00H
	DW	00H
	DW	00H
	DW	00H
	DW	00H
	DW	00H
	DW	00H
	DW	00H
	DW	00H
	DW	00H
	DW	00H
	DW	00H
	DW	00H
	DW	00H
	DW	00H
	DW	00H
	DW	00H
	DW	00H
	DW	00H
	DW	00H
	DW	00H
	DW	00H
	DW	00H
	DW	00H
	DW	00H
	DW	00H
	DW	00H
	DW	00H
	DW	00H
	DW	00H
	DW	00H
	DW	00H
	DW	00H
	DW	00H
	DW	00H
	DW	00H
	DW	00H
	DW	00H
	DW	00H
	DW	00H
	DW	00H
	DW	00H
	DW	00H
	DW	00H
	DW	00H
	DW	00H
	DW	00H
	DW	00H
	DW	00H
	DW	00H
	DW	00H
	DW	00H
	DW	00H
	DW	00H
	DW	00H
	DW	00H
	DW	00H
	DW	00H
	DW	00H
	DW	00H
	DW	00H
	DW	0820H
	DW	0c20H
	DW	01440H
	DW	01840H
	DW	01c60H
	DW	02060H
	DW	02060H
	DW	02060H
	DW	02060H
	DW	01c60H
	DW	01c60H
	DW	01c60H
	DW	01c60H
	DW	01c60H
	DW	01c60H
	DW	01c60H
	DW	01c60H
	DW	01c40H
	DW	01c40H
	DW	01c40H
	DW	01c40H
	DW	01c40H
	DW	01c40H
	DW	01c40H
	DW	01c40H
	DW	01c40H
	DW	01c40H
	DW	01c40H
	DW	01c40H
	DW	02060H
	DW	02060H
	DW	02060H
	DW	02060H
	DW	02460H
	DW	02460H
	DW	02460H
	DW	02460H
	DW	02860H
	DW	02860H
	DW	02860H
	DW	02c80H
	DW	02c80H
	DW	03080H
	DW	03080H
	DW	03080H
	DW	03480H
	DW	03480H
	DW	03880H
	DW	038a0H
	DW	03ca0H
	DW	03ca0H
	DW	040a0H
	DW	040a0H
	DW	044a0H
	DW	044c0H
	DW	048c0H
	DW	048c0H
	DW	04cc0H
	DW	04cc0H
	DW	050c1H
	DW	050c1H
	DW	054c1H
	DW	054e0H
	DW	058e1H
	DW	058e1H
	DW	058e1H
	DW	05ce1H
	DW	05ce1H
	DW	05ce1H
	DW	060e1H
	DW	060e1H
	DW	060e1H
	DW	064e1H
	DW	064e1H
	DW	064e1H
	DW	064e1H
	DW	064e1H
	DW	068e1H
	DW	06901H
	DW	06901H
	DW	06901H
	DW	06901H
	DW	06901H
	DW	06d01H
	DW	06d01H
	DW	06d01H
	DW	06d01H
	DW	06d01H
	DW	06d01H
	DW	06d01H
	DW	06d01H
	DW	06d01H
	DW	06ce1H
	DW	06ce1H
	DW	070e1H
	DW	070e1H
	DW	070e1H
	DW	070e1H
	DW	070e1H
	DW	070e1H
	DW	070e1H
	DW	070e1H
	DW	070e1H
	DW	070e1H
	DW	070e1H
	DW	070e1H
	DW	070e1H
	DW	070e1H
	DW	070e1H
	DW	070e1H
	DW	070e1H
	DW	070e1H
	DW	070e1H
	DW	070e1H
	DW	070e1H
	DW	070e1H
	DW	070e1H
	DW	070e1H
	DW	070e1H
	DW	070e1H
	DW	070e1H
	DW	070e1H
	DW	070e1H
	DW	070c1H
	DW	070c1H
	DW	070c1H
	DW	070c1H
	DW	070c1H
	DW	070c1H
	DW	070c1H
	DW	06cc1H
	DW	06cc1H
	DW	06cc1H
	DW	06cc1H
	DW	074c1H
	DW	03460H
	DW	00H
	DW	00H
	DW	00H
	DW	00H
	DW	00H
	DW	00H
	DW	00H
	DW	00H
	DW	00H
	DW	00H
	DW	00H
	DW	00H
	DW	00H
	DW	00H
	DW	00H
	DW	00H
	DW	00H
	DW	00H
	DW	00H
	DW	00H
	DW	00H
	DW	00H
	DW	00H
	DW	00H
	DW	00H
	DW	00H
	DW	00H
	DW	00H
	DW	00H
	DW	00H
	DW	00H
	DW	00H
	DW	00H
	DW	00H
	DW	00H
	DW	00H
	DW	00H
	DW	00H
	DW	00H
	DW	00H
	DW	00H
	DW	00H
	DW	00H
	DW	00H
	DW	00H
	DW	00H
	DW	00H
	DW	00H
	DW	00H
	DW	00H
	DW	00H
	DW	00H
	DW	00H
	DW	00H
	DW	00H
	DW	00H
	DW	00H
	DW	00H
	DW	00H
	DW	00H
	DW	00H
	DW	00H
	DW	00H
	DW	00H
	DW	00H
	DW	00H
	DW	00H
	DW	00H
	DW	00H
	DW	00H
	DW	00H
	DW	00H
	DW	00H
	DW	00H
	DW	00H
	DW	00H
	DW	00H
	DW	00H
	DW	00H
	DW	00H
	DW	00H
	DW	00H
	DW	00H
	DW	00H
	DW	00H
	DW	00H
	DW	00H
	DW	00H
	DW	00H
	DW	00H
	DW	00H
	DW	00H
	DW	00H
	DW	00H
	DW	00H
	DW	00H
	DW	00H
	DW	00H
	DW	00H
	DW	00H
	DW	00H
	DW	00H
	DW	00H
	DW	00H
	DW	00H
	DW	00H
	DW	00H
	DW	00H
	DW	00H
	DW	00H
	DW	00H
	DW	00H
	DW	00H
	DW	00H
	DW	00H
	DW	00H
	DW	00H
	DW	00H
	DW	00H
	DW	00H
	DW	00H
	DW	00H
	DW	00H
	DW	00H
	DW	00H
	DW	00H
	DW	00H
	DW	00H
	DW	00H
	DW	00H
	DW	00H
	DW	00H
	DW	00H
	DW	00H
	DW	00H
	DW	00H
	DW	00H
	DW	00H
	DW	00H
	DW	00H
	DW	00H
	DW	00H
	DW	00H
	DW	00H
	DW	00H
	DW	00H
	DW	00H
	DW	00H
	DW	00H
	DW	00H
	DW	00H
	DW	00H
	DW	00H
	DW	00H
	DW	00H
	DW	00H
	DW	00H
	DW	00H
	DW	00H
	DW	00H
	DW	00H
	DW	00H
	DW	00H
	DW	00H
	DW	00H
	DW	00H
	DW	00H
	DW	00H
	DW	00H
	DW	00H
	DW	00H
	DW	00H
	DW	00H
	DW	00H
	DW	00H
	DW	00H
	DW	00H
	DW	00H
	DW	00H
	DW	00H
	DW	00H
	DW	00H
	DW	00H
	DW	00H
	DW	00H
	DW	00H
	DW	00H
	DW	00H
	DW	00H
	DW	00H
	DW	00H
	DW	00H
	DW	00H
	DW	00H
	DW	00H
	DW	00H
	DW	00H
	DW	00H
	DW	00H
	DW	00H
	DW	00H
	DW	00H
	DW	00H
	DW	00H
	DW	00H
	DW	00H
	DW	00H
	DW	00H
	DW	00H
	DW	00H
	DW	00H
	DW	00H
	DW	00H
	DW	00H
	DW	00H
	DW	00H
	DW	00H
	DW	00H
	DW	00H
	DW	00H
	DW	00H
	DW	00H
	DW	00H
	DW	00H
	DW	00H
	DW	00H
	DW	00H
	DW	00H
	DW	00H
	DW	00H
	DW	00H
	DW	00H
	DW	00H
	DW	00H
	DW	00H
	DW	00H
	DW	00H
	DW	00H
	DW	00H
	DW	00H
	DW	00H
	DW	00H
	DW	00H
	DW	00H
	DW	00H
	DW	00H
	DW	00H
	DW	00H
	DW	00H
	DW	00H
	DW	00H
	DW	00H
	DW	00H
	DW	00H
	DW	00H
	DW	00H
	DW	00H
	DW	00H
	DW	00H
	DW	00H
	DW	00H
	DW	00H
	DW	00H
	DW	00H
	DW	00H
	DW	00H
	DW	00H
	DW	00H
	DW	00H
	DW	00H
	DW	00H
	DW	00H
	DW	00H
	DW	00H
	DW	00H
	DW	00H
	DW	00H
	DW	00H
	DW	00H
	DW	00H
	DW	00H
	DW	00H
	DW	00H
	DW	00H
	DW	00H
	DW	00H
	DW	00H
	DW	00H
	DW	00H
	DW	00H
	DW	00H
	DW	00H
	DW	00H
	DW	00H
	DW	00H
	DW	00H
	DW	00H
	DW	00H
	DW	00H
	DW	00H
	DW	00H
	DW	00H
	DW	00H
	DW	00H
	DW	00H
	DW	00H
	DW	00H
	DW	00H
	DW	00H
	DW	00H
	DW	00H
	DW	00H
	DW	00H
	DW	00H
	DW	00H
	DW	00H
	DW	00H
	DW	00H
	DW	00H
	DW	00H
	DW	00H
	DW	00H
	DW	00H
	DW	00H
	DW	00H
	DW	00H
	DW	00H
	DW	00H
	DW	00H
	DW	00H
	DW	00H
	DW	00H
	DW	00H
	DW	00H
	DW	00H
	DW	00H
	DW	00H
	DW	00H
	DW	00H
	DW	0400H
	DW	0c20H
	DW	01020H
	DW	01840H
	DW	01c40H
	DW	01c60H
	DW	02060H
	DW	02060H
	DW	01c60H
	DW	01c60H
	DW	01c60H
	DW	01c60H
	DW	01c60H
	DW	01c60H
	DW	01c60H
	DW	01c60H
	DW	01c60H
	DW	01c60H
	DW	01c60H
	DW	01c60H
	DW	01c60H
	DW	01c60H
	DW	01c40H
	DW	01c40H
	DW	01c40H
	DW	01c40H
	DW	01c60H
	DW	02060H
	DW	02060H
	DW	02060H
	DW	02060H
	DW	02060H
	DW	02460H
	DW	02460H
	DW	02460H
	DW	02460H
	DW	02860H
	DW	02860H
	DW	02c80H
	DW	02c80H
	DW	02c80H
	DW	03080H
	DW	03080H
	DW	03480H
	DW	034a0H
	DW	038a0H
	DW	038a0H
	DW	03ca0H
	DW	03ca0H
	DW	040a0H
	DW	044c0H
	DW	044c0H
	DW	048c0H
	DW	048c0H
	DW	04cc0H
	DW	050c0H
	DW	050e0H
	DW	054e0H
	DW	054e1H
	DW	058e1H
	DW	058e1H
	DW	05ce1H
	DW	05ce1H
	DW	05ce1H
	DW	060e1H
	DW	06101H
	DW	06101H
	DW	06501H
	DW	06501H
	DW	06501H
	DW	06901H
	DW	06901H
	DW	06901H
	DW	06901H
	DW	06d01H
	DW	06d01H
	DW	06d01H
	DW	06d01H
	DW	06d01H
	DW	06d01H
	DW	07101H
	DW	07101H
	DW	07101H
	DW	07101H
	DW	07101H
	DW	07101H
	DW	07101H
	DW	07101H
	DW	07101H
	DW	07101H
	DW	07101H
	DW	07101H
	DW	07501H
	DW	07501H
	DW	07501H
	DW	07501H
	DW	07501H
	DW	07501H
	DW	07501H
	DW	07501H
	DW	07501H
	DW	07501H
	DW	07501H
	DW	07501H
	DW	07501H
	DW	07501H
	DW	074e1H
	DW	074e1H
	DW	074e1H
	DW	074e1H
	DW	074e1H
	DW	074e1H
	DW	074e1H
	DW	074e1H
	DW	074e1H
	DW	074e1H
	DW	074e1H
	DW	074e1H
	DW	074e1H
	DW	074e1H
	DW	074e1H
	DW	074e1H
	DW	074e1H
	DW	074e1H
	DW	074e1H
	DW	074e1H
	DW	070e1H
	DW	070e1H
	DW	070e1H
	DW	070e1H
	DW	070c1H
	DW	070c1H
	DW	070c1H
	DW	070c1H
	DW	070c1H
	DW	070c1H
	DW	070c1H
	DW	070c1H
	DW	070c1H
	DW	078e1H
	DW	03860H
	DW	00H
	DW	00H
	DW	00H
	DW	00H
	DW	00H
	DW	00H
	DW	00H
	DW	00H
	DW	00H
	DW	00H
	DW	00H
	DW	00H
	DW	00H
	DW	00H
	DW	00H
	DW	00H
	DW	00H
	DW	00H
	DW	00H
	DW	00H
	DW	00H
	DW	00H
	DW	00H
	DW	00H
	DW	00H
	DW	00H
	DW	00H
	DW	00H
	DW	00H
	DW	00H
	DW	00H
	DW	00H
	DW	00H
	DW	00H
	DW	00H
	DW	00H
	DW	00H
	DW	00H
	DW	00H
	DW	00H
	DW	00H
	DW	00H
	DW	00H
	DW	00H
	DW	00H
	DW	00H
	DW	00H
	DW	00H
	DW	00H
	DW	00H
	DW	00H
	DW	00H
	DW	00H
	DW	00H
	DW	00H
	DW	00H
	DW	00H
	DW	00H
	DW	00H
	DW	00H
	DW	00H
	DW	00H
	DW	00H
	DW	00H
	DW	00H
	DW	00H
	DW	00H
	DW	00H
	DW	00H
	DW	00H
	DW	00H
	DW	00H
	DW	00H
	DW	00H
	DW	00H
	DW	00H
	DW	00H
	DW	00H
	DW	00H
	DW	00H
	DW	00H
	DW	00H
	DW	00H
	DW	00H
	DW	00H
	DW	00H
	DW	00H
	DW	00H
	DW	00H
	DW	00H
	DW	00H
	DW	00H
	DW	00H
	DW	00H
	DW	00H
	DW	00H
	DW	00H
	DW	00H
	DW	00H
	DW	00H
	DW	00H
	DW	00H
	DW	00H
	DW	00H
	DW	00H
	DW	00H
	DW	00H
	DW	00H
	DW	00H
	DW	00H
	DW	00H
	DW	00H
	DW	00H
	DW	00H
	DW	00H
	DW	00H
	DW	00H
	DW	00H
	DW	00H
	DW	00H
	DW	00H
	DW	00H
	DW	00H
	DW	00H
	DW	00H
	DW	00H
	DW	00H
	DW	00H
	DW	00H
	DW	00H
	DW	00H
	DW	00H
	DW	00H
	DW	00H
	DW	00H
	DW	00H
	DW	00H
	DW	00H
	DW	00H
	DW	00H
	DW	00H
	DW	00H
	DW	00H
	DW	00H
	DW	00H
	DW	00H
	DW	00H
	DW	00H
	DW	00H
	DW	00H
	DW	00H
	DW	00H
	DW	00H
	DW	00H
	DW	00H
	DW	00H
	DW	00H
	DW	00H
	DW	00H
	DW	00H
	DW	00H
	DW	00H
	DW	00H
	DW	00H
	DW	00H
	DW	00H
	DW	00H
	DW	00H
	DW	00H
	DW	00H
	DW	00H
	DW	00H
	DW	00H
	DW	00H
	DW	00H
	DW	00H
	DW	00H
	DW	00H
	DW	00H
	DW	00H
	DW	00H
	DW	00H
	DW	00H
	DW	00H
	DW	00H
	DW	00H
	DW	00H
	DW	00H
	DW	00H
	DW	00H
	DW	00H
	DW	00H
	DW	00H
	DW	00H
	DW	00H
	DW	00H
	DW	00H
	DW	00H
	DW	00H
	DW	00H
	DW	00H
	DW	00H
	DW	00H
	DW	00H
	DW	00H
	DW	00H
	DW	00H
	DW	00H
	DW	00H
	DW	00H
	DW	00H
	DW	00H
	DW	00H
	DW	00H
	DW	00H
	DW	00H
	DW	00H
	DW	00H
	DW	00H
	DW	00H
	DW	00H
	DW	00H
	DW	00H
	DW	00H
	DW	00H
	DW	00H
	DW	00H
	DW	00H
	DW	00H
	DW	00H
	DW	00H
	DW	00H
	DW	00H
	DW	00H
	DW	00H
	DW	00H
	DW	00H
	DW	00H
	DW	00H
	DW	00H
	DW	00H
	DW	00H
	DW	00H
	DW	00H
	DW	00H
	DW	00H
	DW	00H
	DW	00H
	DW	00H
	DW	00H
	DW	00H
	DW	00H
	DW	00H
	DW	00H
	DW	00H
	DW	00H
	DW	00H
	DW	00H
	DW	00H
	DW	00H
	DW	00H
	DW	00H
	DW	00H
	DW	00H
	DW	00H
	DW	00H
	DW	00H
	DW	00H
	DW	00H
	DW	00H
	DW	00H
	DW	00H
	DW	00H
	DW	00H
	DW	00H
	DW	00H
	DW	00H
	DW	00H
	DW	00H
	DW	00H
	DW	00H
	DW	00H
	DW	00H
	DW	00H
	DW	00H
	DW	00H
	DW	00H
	DW	00H
	DW	00H
	DW	00H
	DW	00H
	DW	00H
	DW	00H
	DW	00H
	DW	00H
	DW	00H
	DW	00H
	DW	00H
	DW	00H
	DW	00H
	DW	00H
	DW	00H
	DW	00H
	DW	00H
	DW	00H
	DW	00H
	DW	00H
	DW	00H
	DW	00H
	DW	00H
	DW	00H
	DW	00H
	DW	00H
	DW	00H
	DW	00H
	DW	00H
	DW	00H
	DW	00H
	DW	00H
	DW	00H
	DW	00H
	DW	00H
	DW	00H
	DW	00H
	DW	00H
	DW	00H
	DW	00H
	DW	00H
	DW	00H
	DW	00H
	DW	00H
	DW	00H
	DW	00H
	DW	00H
	DW	00H
	DW	0400H
	DW	0c20H
	DW	01440H
	DW	01840H
	DW	01c60H
	DW	02060H
	DW	02060H
	DW	02060H
	DW	01c60H
	DW	01c60H
	DW	01c60H
	DW	01c60H
	DW	01c60H
	DW	01c60H
	DW	01c60H
	DW	01c60H
	DW	01c60H
	DW	01c60H
	DW	01c60H
	DW	01c60H
	DW	01c60H
	DW	01c60H
	DW	01c60H
	DW	01c60H
	DW	01c60H
	DW	01c60H
	DW	02060H
	DW	02060H
	DW	02060H
	DW	02060H
	DW	02460H
	DW	02460H
	DW	02460H
	DW	02460H
	DW	02860H
	DW	02860H
	DW	02c80H
	DW	02c80H
	DW	03080H
	DW	03080H
	DW	03480H
	DW	03480H
	DW	038a0H
	DW	038a0H
	DW	03ca0H
	DW	040a0H
	DW	040a0H
	DW	044c0H
	DW	048c0H
	DW	048c0H
	DW	04cc0H
	DW	04cc0H
	DW	050e0H
	DW	054e1H
	DW	054e1H
	DW	058e1H
	DW	058e1H
	DW	05ce1H
	DW	05d01H
	DW	06101H
	DW	06101H
	DW	06101H
	DW	06501H
	DW	06501H
	DW	06901H
	DW	06901H
	DW	06901H
	DW	06901H
	DW	06d01H
	DW	06d01H
	DW	06d01H
	DW	06d01H
	DW	07121H
	DW	07121H
	DW	07121H
	DW	07121H
	DW	07121H
	DW	07121H
	DW	07121H
	DW	07121H
	DW	07521H
	DW	07521H
	DW	07501H
	DW	07501H
	DW	07501H
	DW	07501H
	DW	07501H
	DW	07501H
	DW	07501H
	DW	07501H
	DW	07501H
	DW	07501H
	DW	07501H
	DW	07501H
	DW	07501H
	DW	07501H
	DW	07501H
	DW	07501H
	DW	07501H
	DW	07501H
	DW	07501H
	DW	07501H
	DW	07501H
	DW	07501H
	DW	07501H
	DW	07501H
	DW	07501H
	DW	07501H
	DW	07501H
	DW	074e1H
	DW	074e1H
	DW	074e1H
	DW	074e1H
	DW	074e1H
	DW	074e1H
	DW	074e1H
	DW	074e1H
	DW	074e1H
	DW	074e1H
	DW	074e1H
	DW	074e1H
	DW	074e1H
	DW	074e1H
	DW	074e1H
	DW	074e1H
	DW	074e1H
	DW	074e1H
	DW	074e1H
	DW	070e1H
	DW	070e1H
	DW	070e1H
	DW	070e1H
	DW	070e1H
	DW	070c1H
	DW	070c1H
	DW	070c1H
	DW	070c1H
	DW	070c1H
	DW	070c1H
	DW	070c1H
	DW	070c1H
	DW	070c1H
	DW	070c1H
	DW	078e1H
	DW	03860H
	DW	00H
	DW	00H
	DW	00H
	DW	00H
	DW	00H
	DW	00H
	DW	00H
	DW	00H
	DW	00H
	DW	00H
	DW	00H
	DW	00H
	DW	00H
	DW	00H
	DW	00H
	DW	00H
	DW	00H
	DW	00H
	DW	00H
	DW	00H
	DW	00H
	DW	00H
	DW	00H
	DW	00H
	DW	00H
	DW	00H
	DW	00H
	DW	00H
	DW	00H
	DW	00H
	DW	00H
	DW	00H
	DW	00H
	DW	00H
	DW	00H
	DW	00H
	DW	00H
	DW	00H
	DW	00H
	DW	00H
	DW	00H
	DW	00H
	DW	00H
	DW	00H
	DW	00H
	DW	00H
	DW	00H
	DW	00H
	DW	00H
	DW	00H
	DW	00H
	DW	00H
	DW	00H
	DW	00H
	DW	00H
	DW	00H
	DW	00H
	DW	00H
	DW	00H
	DW	00H
	DW	00H
	DW	00H
	DW	00H
	DW	00H
	DW	00H
	DW	00H
	DW	00H
	DW	00H
	DW	00H
	DW	00H
	DW	00H
	DW	00H
	DW	00H
	DW	00H
	DW	00H
	DW	00H
	DW	00H
	DW	00H
	DW	00H
	DW	00H
	DW	00H
	DW	00H
	DW	00H
	DW	00H
	DW	00H
	DW	00H
	DW	00H
	DW	00H
	DW	00H
	DW	00H
	DW	00H
	DW	00H
	DW	00H
	DW	00H
	DW	00H
	DW	00H
	DW	00H
	DW	00H
	DW	00H
	DW	00H
	DW	00H
	DW	00H
	DW	00H
	DW	00H
	DW	00H
	DW	00H
	DW	00H
	DW	00H
	DW	00H
	DW	00H
	DW	00H
	DW	00H
	DW	00H
	DW	00H
	DW	00H
	DW	00H
	DW	00H
	DW	00H
	DW	00H
	DW	00H
	DW	00H
	DW	00H
	DW	00H
	DW	00H
	DW	00H
	DW	00H
	DW	00H
	DW	00H
	DW	00H
	DW	00H
	DW	00H
	DW	00H
	DW	00H
	DW	00H
	DW	00H
	DW	00H
	DW	00H
	DW	00H
	DW	00H
	DW	00H
	DW	00H
	DW	00H
	DW	00H
	DW	00H
	DW	00H
	DW	00H
	DW	00H
	DW	00H
	DW	00H
	DW	00H
	DW	00H
	DW	00H
	DW	00H
	DW	00H
	DW	00H
	DW	00H
	DW	00H
	DW	00H
	DW	00H
	DW	00H
	DW	00H
	DW	00H
	DW	00H
	DW	00H
	DW	00H
	DW	00H
	DW	00H
	DW	00H
	DW	00H
	DW	00H
	DW	00H
	DW	00H
	DW	00H
	DW	00H
	DW	00H
	DW	00H
	DW	00H
	DW	00H
	DW	00H
	DW	00H
	DW	00H
	DW	00H
	DW	00H
	DW	00H
	DW	00H
	DW	00H
	DW	00H
	DW	00H
	DW	00H
	DW	00H
	DW	00H
	DW	00H
	DW	00H
	DW	00H
	DW	00H
	DW	00H
	DW	00H
	DW	00H
	DW	00H
	DW	00H
	DW	00H
	DW	00H
	DW	00H
	DW	00H
	DW	00H
	DW	00H
	DW	00H
	DW	00H
	DW	00H
	DW	00H
	DW	00H
	DW	00H
	DW	00H
	DW	00H
	DW	00H
	DW	00H
	DW	00H
	DW	00H
	DW	00H
	DW	00H
	DW	00H
	DW	00H
	DW	00H
	DW	00H
	DW	00H
	DW	00H
	DW	00H
	DW	00H
	DW	00H
	DW	00H
	DW	00H
	DW	00H
	DW	00H
	DW	00H
	DW	00H
	DW	00H
	DW	00H
	DW	00H
	DW	00H
	DW	00H
	DW	00H
	DW	00H
	DW	00H
	DW	00H
	DW	00H
	DW	00H
	DW	00H
	DW	00H
	DW	00H
	DW	00H
	DW	00H
	DW	00H
	DW	00H
	DW	00H
	DW	00H
	DW	00H
	DW	00H
	DW	00H
	DW	00H
	DW	00H
	DW	00H
	DW	00H
	DW	00H
	DW	00H
	DW	00H
	DW	00H
	DW	00H
	DW	00H
	DW	00H
	DW	00H
	DW	00H
	DW	00H
	DW	00H
	DW	00H
	DW	00H
	DW	00H
	DW	00H
	DW	00H
	DW	00H
	DW	00H
	DW	00H
	DW	00H
	DW	00H
	DW	00H
	DW	00H
	DW	00H
	DW	00H
	DW	00H
	DW	00H
	DW	00H
	DW	00H
	DW	00H
	DW	00H
	DW	00H
	DW	00H
	DW	00H
	DW	00H
	DW	00H
	DW	00H
	DW	00H
	DW	00H
	DW	00H
	DW	00H
	DW	00H
	DW	00H
	DW	00H
	DW	00H
	DW	00H
	DW	00H
	DW	00H
	DW	00H
	DW	00H
	DW	00H
	DW	00H
	DW	00H
	DW	00H
	DW	00H
	DW	00H
	DW	00H
	DW	00H
	DW	00H
	DW	00H
	DW	00H
	DW	00H
	DW	00H
	DW	00H
	DW	00H
	DW	00H
	DW	00H
	DW	00H
	DW	00H
	DW	0820H
	DW	0c20H
	DW	01440H
	DW	01c60H
	DW	01c60H
	DW	02060H
	DW	02060H
	DW	02060H
	DW	01c60H
	DW	01c60H
	DW	01c60H
	DW	01c60H
	DW	01c60H
	DW	01c60H
	DW	01c60H
	DW	01c60H
	DW	01c60H
	DW	01c60H
	DW	01c60H
	DW	01c60H
	DW	01c60H
	DW	01c60H
	DW	01c60H
	DW	01c60H
	DW	02060H
	DW	02060H
	DW	02060H
	DW	02060H
	DW	02060H
	DW	02460H
	DW	02460H
	DW	02460H
	DW	02860H
	DW	02880H
	DW	02880H
	DW	02c80H
	DW	03080H
	DW	03080H
	DW	03480H
	DW	034a0H
	DW	038a0H
	DW	038a0H
	DW	03ca0H
	DW	040a0H
	DW	040c0H
	DW	044c0H
	DW	048c0H
	DW	048c0H
	DW	04ce0H
	DW	050e1H
	DW	054e1H
	DW	054e0H
	DW	058e1H
	DW	058e1H
	DW	05d01H
	DW	05d01H
	DW	06101H
	DW	06101H
	DW	06501H
	DW	06501H
	DW	06901H
	DW	06901H
	DW	06901H
	DW	06d21H
	DW	06d21H
	DW	06d21H
	DW	06d21H
	DW	07121H
	DW	07121H
	DW	07121H
	DW	07121H
	DW	07121H
	DW	07521H
	DW	07521H
	DW	07521H
	DW	07521H
	DW	07521H
	DW	07521H
	DW	07521H
	DW	07521H
	DW	07521H
	DW	07521H
	DW	07521H
	DW	07521H
	DW	07521H
	DW	07521H
	DW	07521H
	DW	07521H
	DW	07521H
	DW	07501H
	DW	07501H
	DW	07501H
	DW	07501H
	DW	07501H
	DW	07501H
	DW	07501H
	DW	07501H
	DW	07501H
	DW	07501H
	DW	07501H
	DW	07501H
	DW	07501H
	DW	07501H
	DW	07501H
	DW	07501H
	DW	07501H
	DW	07501H
	DW	07501H
	DW	07501H
	DW	07501H
	DW	07501H
	DW	07501H
	DW	074e1H
	DW	074e1H
	DW	074e1H
	DW	074e1H
	DW	074e1H
	DW	074e1H
	DW	074e1H
	DW	074e1H
	DW	074e1H
	DW	074e1H
	DW	074e1H
	DW	074e1H
	DW	074e1H
	DW	074e1H
	DW	074e1H
	DW	074e1H
	DW	074e1H
	DW	074e1H
	DW	074e1H
	DW	070e1H
	DW	070e1H
	DW	070e1H
	DW	070e1H
	DW	070c1H
	DW	070c1H
	DW	070c1H
	DW	070c1H
	DW	070c1H
	DW	070c1H
	DW	070c1H
	DW	070c1H
	DW	070c1H
	DW	070c1H
	DW	070c1H
	DW	070c1H
	DW	078c1H
	DW	03860H
	DW	00H
	DW	00H
	DW	00H
	DW	00H
	DW	00H
	DW	00H
	DW	00H
	DW	00H
	DW	00H
	DW	00H
	DW	00H
	DW	00H
	DW	00H
	DW	00H
	DW	00H
	DW	00H
	DW	00H
	DW	00H
	DW	00H
	DW	00H
	DW	00H
	DW	00H
	DW	00H
	DW	00H
	DW	00H
	DW	00H
	DW	00H
	DW	00H
	DW	00H
	DW	00H
	DW	00H
	DW	00H
	DW	00H
	DW	00H
	DW	00H
	DW	00H
	DW	00H
	DW	00H
	DW	00H
	DW	00H
	DW	00H
	DW	00H
	DW	00H
	DW	00H
	DW	00H
	DW	00H
	DW	00H
	DW	00H
	DW	00H
	DW	00H
	DW	00H
	DW	00H
	DW	00H
	DW	00H
	DW	00H
	DW	00H
	DW	00H
	DW	00H
	DW	00H
	DW	00H
	DW	00H
	DW	00H
	DW	00H
	DW	00H
	DW	00H
	DW	00H
	DW	00H
	DW	00H
	DW	00H
	DW	00H
	DW	00H
	DW	00H
	DW	00H
	DW	00H
	DW	00H
	DW	00H
	DW	00H
	DW	00H
	DW	00H
	DW	00H
	DW	00H
	DW	00H
	DW	00H
	DW	00H
	DW	00H
	DW	00H
	DW	00H
	DW	00H
	DW	00H
	DW	00H
	DW	00H
	DW	00H
	DW	00H
	DW	00H
	DW	00H
	DW	00H
	DW	00H
	DW	00H
	DW	00H
	DW	00H
	DW	00H
	DW	00H
	DW	00H
	DW	00H
	DW	00H
	DW	00H
	DW	00H
	DW	00H
	DW	00H
	DW	00H
	DW	00H
	DW	00H
	DW	00H
	DW	00H
	DW	00H
	DW	00H
	DW	00H
	DW	00H
	DW	00H
	DW	00H
	DW	00H
	DW	00H
	DW	00H
	DW	00H
	DW	00H
	DW	00H
	DW	00H
	DW	00H
	DW	00H
	DW	00H
	DW	00H
	DW	00H
	DW	00H
	DW	00H
	DW	00H
	DW	00H
	DW	00H
	DW	00H
	DW	00H
	DW	00H
	DW	00H
	DW	00H
	DW	00H
	DW	00H
	DW	00H
	DW	00H
	DW	00H
	DW	00H
	DW	00H
	DW	00H
	DW	00H
	DW	00H
	DW	00H
	DW	00H
	DW	00H
	DW	00H
	DW	00H
	DW	00H
	DW	00H
	DW	00H
	DW	00H
	DW	00H
	DW	00H
	DW	00H
	DW	00H
	DW	00H
	DW	00H
	DW	00H
	DW	00H
	DW	00H
	DW	00H
	DW	00H
	DW	00H
	DW	00H
	DW	00H
	DW	00H
	DW	00H
	DW	00H
	DW	00H
	DW	00H
	DW	00H
	DW	00H
	DW	00H
	DW	00H
	DW	00H
	DW	00H
	DW	00H
	DW	00H
	DW	00H
	DW	00H
	DW	00H
	DW	00H
	DW	00H
	DW	00H
	DW	00H
	DW	00H
	DW	00H
	DW	00H
	DW	00H
	DW	00H
	DW	00H
	DW	00H
	DW	00H
	DW	00H
	DW	00H
	DW	00H
	DW	00H
	DW	00H
	DW	00H
	DW	00H
	DW	00H
	DW	00H
	DW	00H
	DW	00H
	DW	00H
	DW	00H
	DW	00H
	DW	00H
	DW	00H
	DW	00H
	DW	00H
	DW	00H
	DW	00H
	DW	00H
	DW	00H
	DW	00H
	DW	00H
	DW	00H
	DW	00H
	DW	00H
	DW	00H
	DW	00H
	DW	00H
	DW	00H
	DW	00H
	DW	00H
	DW	00H
	DW	00H
	DW	00H
	DW	00H
	DW	00H
	DW	00H
	DW	00H
	DW	00H
	DW	00H
	DW	00H
	DW	00H
	DW	00H
	DW	00H
	DW	00H
	DW	00H
	DW	00H
	DW	00H
	DW	00H
	DW	00H
	DW	00H
	DW	00H
	DW	00H
	DW	00H
	DW	00H
	DW	00H
	DW	00H
	DW	00H
	DW	00H
	DW	00H
	DW	00H
	DW	00H
	DW	00H
	DW	00H
	DW	00H
	DW	00H
	DW	00H
	DW	00H
	DW	00H
	DW	00H
	DW	00H
	DW	00H
	DW	00H
	DW	00H
	DW	00H
	DW	00H
	DW	00H
	DW	00H
	DW	00H
	DW	00H
	DW	00H
	DW	00H
	DW	00H
	DW	00H
	DW	00H
	DW	00H
	DW	00H
	DW	00H
	DW	00H
	DW	00H
	DW	00H
	DW	00H
	DW	00H
	DW	00H
	DW	00H
	DW	00H
	DW	00H
	DW	00H
	DW	00H
	DW	00H
	DW	00H
	DW	00H
	DW	00H
	DW	00H
	DW	00H
	DW	00H
	DW	00H
	DW	00H
	DW	00H
	DW	00H
	DW	00H
	DW	00H
	DW	00H
	DW	00H
	DW	00H
	DW	00H
	DW	00H
	DW	00H
	DW	00H
	DW	00H
	DW	00H
	DW	0400H
	DW	0800H
	DW	0c20H
	DW	01440H
	DW	01c60H
	DW	01c60H
	DW	02061H
	DW	02060H
	DW	01c60H
	DW	01c60H
	DW	01c60H
	DW	01c60H
	DW	01c60H
	DW	01c60H
	DW	01c60H
	DW	01c60H
	DW	01c60H
	DW	01c60H
	DW	01c60H
	DW	01c60H
	DW	01c60H
	DW	01c60H
	DW	01c60H
	DW	01c60H
	DW	01c60H
	DW	02060H
	DW	02060H
	DW	02060H
	DW	02060H
	DW	02460H
	DW	02460H
	DW	02460H
	DW	02860H
	DW	02880H
	DW	02c80H
	DW	02c80H
	DW	03080H
	DW	03080H
	DW	034a0H
	DW	038a0H
	DW	038a0H
	DW	03ca0H
	DW	040a0H
	DW	040c0H
	DW	044c0H
	DW	048c0H
	DW	04cc0H
	DW	04ce0H
	DW	050e1H
	DW	054e1H
	DW	054e1H
	DW	05901H
	DW	05d01H
	DW	05d01H
	DW	06101H
	DW	06101H
	DW	06501H
	DW	06501H
	DW	06921H
	DW	06921H
	DW	06921H
	DW	06d21H
	DW	06d21H
	DW	06d21H
	DW	07121H
	DW	07121H
	DW	07121H
	DW	07121H
	DW	07521H
	DW	07521H
	DW	07521H
	DW	07521H
	DW	07521H
	DW	07521H
	DW	07521H
	DW	07521H
	DW	07521H
	DW	07521H
	DW	07521H
	DW	07521H
	DW	07521H
	DW	07521H
	DW	07521H
	DW	07521H
	DW	07521H
	DW	07521H
	DW	07521H
	DW	07521H
	DW	07521H
	DW	07521H
	DW	07521H
	DW	07521H
	DW	07501H
	DW	07501H
	DW	07501H
	DW	07501H
	DW	07501H
	DW	07501H
	DW	07501H
	DW	07501H
	DW	07501H
	DW	07501H
	DW	07501H
	DW	07501H
	DW	07501H
	DW	07501H
	DW	07501H
	DW	07501H
	DW	07501H
	DW	07501H
	DW	07501H
	DW	07501H
	DW	07501H
	DW	07501H
	DW	07501H
	DW	074e1H
	DW	074e1H
	DW	074e1H
	DW	074e1H
	DW	074e1H
	DW	074e1H
	DW	074e1H
	DW	074e1H
	DW	074e1H
	DW	074e1H
	DW	074e1H
	DW	074e1H
	DW	074e1H
	DW	074e1H
	DW	074e1H
	DW	074e1H
	DW	074e1H
	DW	074e1H
	DW	074e1H
	DW	070e1H
	DW	070e1H
	DW	070e1H
	DW	070e1H
	DW	070e1H
	DW	070c1H
	DW	070c1H
	DW	070c1H
	DW	070c1H
	DW	070c1H
	DW	070c1H
	DW	070c1H
	DW	070c1H
	DW	070c1H
	DW	070c1H
	DW	070c1H
	DW	070c1H
	DW	070c1H
	DW	078c1H
	DW	03860H
	DW	00H
	DW	00H
	DW	00H
	DW	00H
	DW	00H
	DW	00H
	DW	00H
	DW	00H
	DW	00H
	DW	00H
	DW	00H
	DW	00H
	DW	00H
	DW	00H
	DW	00H
	DW	00H
	DW	00H
	DW	00H
	DW	00H
	DW	00H
	DW	00H
	DW	00H
	DW	00H
	DW	00H
	DW	00H
	DW	00H
	DW	00H
	DW	00H
	DW	00H
	DW	00H
	DW	00H
	DW	00H
	DW	00H
	DW	00H
	DW	00H
	DW	00H
	DW	00H
	DW	00H
	DW	00H
	DW	00H
	DW	00H
	DW	00H
	DW	00H
	DW	00H
	DW	00H
	DW	00H
	DW	00H
	DW	00H
	DW	00H
	DW	00H
	DW	00H
	DW	00H
	DW	00H
	DW	00H
	DW	00H
	DW	00H
	DW	00H
	DW	00H
	DW	00H
	DW	00H
	DW	00H
	DW	00H
	DW	00H
	DW	00H
	DW	00H
	DW	00H
	DW	00H
	DW	00H
	DW	00H
	DW	00H
	DW	00H
	DW	00H
	DW	00H
	DW	00H
	DW	00H
	DW	00H
	DW	00H
	DW	00H
	DW	00H
	DW	00H
	DW	00H
	DW	00H
	DW	00H
	DW	00H
	DW	00H
	DW	00H
	DW	00H
	DW	00H
	DW	00H
	DW	00H
	DW	00H
	DW	00H
	DW	00H
	DW	00H
	DW	00H
	DW	00H
	DW	00H
	DW	00H
	DW	00H
	DW	00H
	DW	00H
	DW	00H
	DW	00H
	DW	00H
	DW	00H
	DW	00H
	DW	00H
	DW	00H
	DW	00H
	DW	00H
	DW	00H
	DW	00H
	DW	00H
	DW	00H
	DW	00H
	DW	00H
	DW	00H
	DW	00H
	DW	00H
	DW	00H
	DW	00H
	DW	00H
	DW	00H
	DW	00H
	DW	00H
	DW	00H
	DW	00H
	DW	00H
	DW	00H
	DW	00H
	DW	00H
	DW	00H
	DW	00H
	DW	00H
	DW	00H
	DW	00H
	DW	00H
	DW	00H
	DW	00H
	DW	00H
	DW	00H
	DW	00H
	DW	00H
	DW	00H
	DW	00H
	DW	00H
	DW	00H
	DW	00H
	DW	00H
	DW	00H
	DW	00H
	DW	00H
	DW	00H
	DW	00H
	DW	00H
	DW	00H
	DW	00H
	DW	00H
	DW	00H
	DW	00H
	DW	00H
	DW	00H
	DW	00H
	DW	00H
	DW	00H
	DW	00H
	DW	00H
	DW	00H
	DW	00H
	DW	00H
	DW	00H
	DW	00H
	DW	00H
	DW	00H
	DW	00H
	DW	00H
	DW	00H
	DW	00H
	DW	00H
	DW	00H
	DW	00H
	DW	00H
	DW	00H
	DW	00H
	DW	00H
	DW	00H
	DW	00H
	DW	00H
	DW	00H
	DW	00H
	DW	00H
	DW	00H
	DW	00H
	DW	00H
	DW	00H
	DW	00H
	DW	00H
	DW	00H
	DW	00H
	DW	00H
	DW	00H
	DW	00H
	DW	00H
	DW	00H
	DW	00H
	DW	00H
	DW	00H
	DW	00H
	DW	00H
	DW	00H
	DW	00H
	DW	00H
	DW	00H
	DW	00H
	DW	00H
	DW	00H
	DW	00H
	DW	00H
	DW	00H
	DW	00H
	DW	00H
	DW	00H
	DW	00H
	DW	00H
	DW	00H
	DW	00H
	DW	00H
	DW	00H
	DW	00H
	DW	00H
	DW	00H
	DW	00H
	DW	00H
	DW	00H
	DW	00H
	DW	00H
	DW	00H
	DW	00H
	DW	00H
	DW	00H
	DW	00H
	DW	00H
	DW	00H
	DW	00H
	DW	00H
	DW	00H
	DW	00H
	DW	00H
	DW	00H
	DW	00H
	DW	00H
	DW	00H
	DW	00H
	DW	00H
	DW	00H
	DW	00H
	DW	00H
	DW	00H
	DW	00H
	DW	00H
	DW	00H
	DW	00H
	DW	00H
	DW	00H
	DW	00H
	DW	00H
	DW	00H
	DW	00H
	DW	00H
	DW	00H
	DW	00H
	DW	00H
	DW	00H
	DW	00H
	DW	00H
	DW	00H
	DW	00H
	DW	00H
	DW	00H
	DW	00H
	DW	00H
	DW	00H
	DW	00H
	DW	00H
	DW	00H
	DW	00H
	DW	00H
	DW	00H
	DW	00H
	DW	00H
	DW	00H
	DW	00H
	DW	00H
	DW	00H
	DW	00H
	DW	00H
	DW	00H
	DW	00H
	DW	00H
	DW	00H
	DW	00H
	DW	00H
	DW	00H
	DW	00H
	DW	00H
	DW	00H
	DW	00H
	DW	00H
	DW	00H
	DW	00H
	DW	00H
	DW	00H
	DW	00H
	DW	00H
	DW	00H
	DW	00H
	DW	00H
	DW	00H
	DW	00H
	DW	00H
	DW	00H
	DW	00H
	DW	00H
	DW	0400H
	DW	01020H
	DW	01440H
	DW	01c60H
	DW	02060H
	DW	02060H
	DW	02060H
	DW	02060H
	DW	01c60H
	DW	01c60H
	DW	01c60H
	DW	01c60H
	DW	01c60H
	DW	01c60H
	DW	01c60H
	DW	01c60H
	DW	01c60H
	DW	01c60H
	DW	01c60H
	DW	01c60H
	DW	01c60H
	DW	01c60H
	DW	01c60H
	DW	02060H
	DW	02060H
	DW	02060H
	DW	02060H
	DW	02460H
	DW	02460H
	DW	02460H
	DW	02880H
	DW	02880H
	DW	02c80H
	DW	02c80H
	DW	03080H
	DW	03080H
	DW	034a0H
	DW	038a0H
	DW	038a0H
	DW	03ca0H
	DW	040c1H
	DW	044c1H
	DW	048c1H
	DW	048c1H
	DW	04ce1H
	DW	050e1H
	DW	054e1H
	DW	05901H
	DW	05901H
	DW	05d01H
	DW	05d01H
	DW	06101H
	DW	06101H
	DW	06521H
	DW	06921H
	DW	06921H
	DW	06921H
	DW	06d21H
	DW	06d21H
	DW	07121H
	DW	07121H
	DW	07121H
	DW	07121H
	DW	07521H
	DW	07521H
	DW	07521H
	DW	07521H
	DW	07521H
	DW	07521H
	DW	07521H
	DW	07521H
	DW	07921H
	DW	07921H
	DW	07921H
	DW	07921H
	DW	07921H
	DW	07921H
	DW	07921H
	DW	07921H
	DW	07921H
	DW	07921H
	DW	07521H
	DW	07521H
	DW	07521H
	DW	07521H
	DW	07521H
	DW	07521H
	DW	07521H
	DW	07521H
	DW	07521H
	DW	07521H
	DW	07521H
	DW	07521H
	DW	07521H
	DW	07501H
	DW	07501H
	DW	07501H
	DW	07501H
	DW	07501H
	DW	07501H
	DW	07501H
	DW	07501H
	DW	07501H
	DW	07501H
	DW	07501H
	DW	07501H
	DW	07501H
	DW	07501H
	DW	07501H
	DW	07501H
	DW	07501H
	DW	07501H
	DW	07501H
	DW	07501H
	DW	07501H
	DW	07501H
	DW	074e1H
	DW	074e1H
	DW	074e1H
	DW	074e1H
	DW	074e1H
	DW	074e1H
	DW	074e1H
	DW	074e1H
	DW	074e1H
	DW	074e1H
	DW	074e1H
	DW	074e1H
	DW	074e1H
	DW	074e1H
	DW	074e1H
	DW	074e1H
	DW	074e1H
	DW	074e1H
	DW	074e1H
	DW	074e1H
	DW	070e1H
	DW	070e1H
	DW	070e1H
	DW	070e1H
	DW	070c1H
	DW	070c1H
	DW	070c1H
	DW	070c1H
	DW	070c1H
	DW	070c1H
	DW	070c1H
	DW	070c1H
	DW	070c1H
	DW	070c1H
	DW	070c1H
	DW	070c1H
	DW	070c1H
	DW	070c1H
	DW	070c1H
	DW	078c1H
	DW	03860H
	DW	00H
	DW	00H
	DW	00H
	DW	00H
	DW	00H
	DW	00H
	DW	00H
	DW	00H
	DW	00H
	DW	00H
	DW	00H
	DW	00H
	DW	00H
	DW	00H
	DW	00H
	DW	00H
	DW	00H
	DW	00H
	DW	00H
	DW	00H
	DW	00H
	DW	00H
	DW	00H
	DW	00H
	DW	00H
	DW	00H
	DW	00H
	DW	00H
	DW	00H
	DW	00H
	DW	00H
	DW	00H
	DW	00H
	DW	00H
	DW	00H
	DW	00H
	DW	00H
	DW	00H
	DW	00H
	DW	00H
	DW	00H
	DW	00H
	DW	00H
	DW	00H
	DW	00H
	DW	00H
	DW	00H
	DW	00H
	DW	00H
	DW	00H
	DW	00H
	DW	00H
	DW	00H
	DW	00H
	DW	00H
	DW	00H
	DW	00H
	DW	00H
	DW	00H
	DW	00H
	DW	00H
	DW	00H
	DW	00H
	DW	00H
	DW	00H
	DW	00H
	DW	00H
	DW	00H
	DW	00H
	DW	00H
	DW	00H
	DW	00H
	DW	00H
	DW	00H
	DW	00H
	DW	00H
	DW	00H
	DW	00H
	DW	00H
	DW	00H
	DW	00H
	DW	00H
	DW	00H
	DW	00H
	DW	00H
	DW	00H
	DW	00H
	DW	00H
	DW	00H
	DW	00H
	DW	00H
	DW	00H
	DW	00H
	DW	00H
	DW	00H
	DW	00H
	DW	00H
	DW	00H
	DW	00H
	DW	00H
	DW	00H
	DW	00H
	DW	00H
	DW	00H
	DW	00H
	DW	00H
	DW	00H
	DW	00H
	DW	00H
	DW	00H
	DW	00H
	DW	00H
	DW	00H
	DW	00H
	DW	00H
	DW	00H
	DW	00H
	DW	00H
	DW	00H
	DW	00H
	DW	00H
	DW	00H
	DW	00H
	DW	00H
	DW	00H
	DW	00H
	DW	00H
	DW	00H
	DW	00H
	DW	00H
	DW	00H
	DW	00H
	DW	00H
	DW	00H
	DW	00H
	DW	00H
	DW	00H
	DW	00H
	DW	00H
	DW	00H
	DW	00H
	DW	00H
	DW	00H
	DW	00H
	DW	00H
	DW	00H
	DW	00H
	DW	00H
	DW	00H
	DW	00H
	DW	00H
	DW	00H
	DW	00H
	DW	00H
	DW	00H
	DW	00H
	DW	00H
	DW	00H
	DW	00H
	DW	00H
	DW	00H
	DW	00H
	DW	00H
	DW	00H
	DW	00H
	DW	00H
	DW	00H
	DW	00H
	DW	00H
	DW	00H
	DW	00H
	DW	00H
	DW	00H
	DW	00H
	DW	00H
	DW	00H
	DW	00H
	DW	00H
	DW	00H
	DW	00H
	DW	00H
	DW	00H
	DW	00H
	DW	00H
	DW	00H
	DW	00H
	DW	00H
	DW	00H
	DW	00H
	DW	00H
	DW	00H
	DW	00H
	DW	00H
	DW	00H
	DW	00H
	DW	00H
	DW	00H
	DW	00H
	DW	00H
	DW	00H
	DW	00H
	DW	00H
	DW	00H
	DW	00H
	DW	00H
	DW	00H
	DW	00H
	DW	00H
	DW	00H
	DW	00H
	DW	00H
	DW	00H
	DW	00H
	DW	00H
	DW	00H
	DW	00H
	DW	00H
	DW	00H
	DW	00H
	DW	00H
	DW	00H
	DW	00H
	DW	00H
	DW	00H
	DW	00H
	DW	00H
	DW	00H
	DW	00H
	DW	00H
	DW	00H
	DW	00H
	DW	00H
	DW	00H
	DW	00H
	DW	00H
	DW	00H
	DW	00H
	DW	00H
	DW	00H
	DW	00H
	DW	00H
	DW	00H
	DW	00H
	DW	00H
	DW	00H
	DW	00H
	DW	00H
	DW	00H
	DW	00H
	DW	00H
	DW	00H
	DW	00H
	DW	00H
	DW	00H
	DW	00H
	DW	00H
	DW	00H
	DW	00H
	DW	00H
	DW	00H
	DW	00H
	DW	00H
	DW	00H
	DW	00H
	DW	00H
	DW	00H
	DW	00H
	DW	00H
	DW	00H
	DW	00H
	DW	00H
	DW	00H
	DW	00H
	DW	00H
	DW	00H
	DW	00H
	DW	00H
	DW	00H
	DW	00H
	DW	00H
	DW	00H
	DW	00H
	DW	00H
	DW	00H
	DW	00H
	DW	00H
	DW	00H
	DW	00H
	DW	00H
	DW	00H
	DW	00H
	DW	00H
	DW	00H
	DW	00H
	DW	00H
	DW	00H
	DW	00H
	DW	00H
	DW	00H
	DW	00H
	DW	00H
	DW	00H
	DW	00H
	DW	00H
	DW	00H
	DW	00H
	DW	00H
	DW	00H
	DW	00H
	DW	00H
	DW	00H
	DW	00H
	DW	00H
	DW	00H
	DW	00H
	DW	00H
	DW	00H
	DW	00H
	DW	00H
	DW	0400H
	DW	0c20H
	DW	01440H
	DW	01860H
	DW	01c61H
	DW	02061H
	DW	02060H
	DW	01c60H
	DW	01c60H
	DW	01c60H
	DW	01c60H
	DW	01c60H
	DW	01c60H
	DW	01c60H
	DW	01c60H
	DW	01c60H
	DW	01c60H
	DW	01c60H
	DW	01c60H
	DW	01c60H
	DW	01c60H
	DW	01c60H
	DW	01c60H
	DW	02060H
	DW	02060H
	DW	02060H
	DW	02060H
	DW	02460H
	DW	02460H
	DW	02460H
	DW	02880H
	DW	02c80H
	DW	02c80H
	DW	03080H
	DW	030a0H
	DW	034a0H
	DW	038a0H
	DW	03ca0H
	DW	03cc0H
	DW	040c1H
	DW	044c1H
	DW	048c1H
	DW	04ce1H
	DW	04ce1H
	DW	050e1H
	DW	054e1H
	DW	05901H
	DW	05d01H
	DW	05d01H
	DW	06101H
	DW	06121H
	DW	06521H
	DW	06921H
	DW	06921H
	DW	06d21H
	DW	06d21H
	DW	06d21H
	DW	07121H
	DW	07141H
	DW	07141H
	DW	07541H
	DW	07541H
	DW	07541H
	DW	07541H
	DW	07541H
	DW	07541H
	DW	07541H
	DW	07941H
	DW	07941H
	DW	07941H
	DW	07941H
	DW	07941H
	DW	07941H
	DW	07941H
	DW	07921H
	DW	07921H
	DW	07921H
	DW	07921H
	DW	07921H
	DW	07921H
	DW	07921H
	DW	07921H
	DW	07921H
	DW	07521H
	DW	07521H
	DW	07521H
	DW	07521H
	DW	07521H
	DW	07521H
	DW	07521H
	DW	07521H
	DW	07521H
	DW	07521H
	DW	07521H
	DW	07521H
	DW	07521H
	DW	07501H
	DW	07501H
	DW	07501H
	DW	07501H
	DW	07501H
	DW	07501H
	DW	07501H
	DW	07501H
	DW	07501H
	DW	07501H
	DW	07501H
	DW	07501H
	DW	07501H
	DW	07501H
	DW	07501H
	DW	07501H
	DW	07501H
	DW	07501H
	DW	07501H
	DW	07501H
	DW	07501H
	DW	07501H
	DW	07501H
	DW	07501H
	DW	074e1H
	DW	074e1H
	DW	074e1H
	DW	074e1H
	DW	074e1H
	DW	074e1H
	DW	074e1H
	DW	074e1H
	DW	074e1H
	DW	074e1H
	DW	074e1H
	DW	074e1H
	DW	074e1H
	DW	074e1H
	DW	074e1H
	DW	074e1H
	DW	074e1H
	DW	074e1H
	DW	074e1H
	DW	070e1H
	DW	070e1H
	DW	070e1H
	DW	070e1H
	DW	070c1H
	DW	070c1H
	DW	070c1H
	DW	070c1H
	DW	070c1H
	DW	070c1H
	DW	070c1H
	DW	070c1H
	DW	070c1H
	DW	070c1H
	DW	070c1H
	DW	070c1H
	DW	070c1H
	DW	070c1H
	DW	070c1H
	DW	070c1H
	DW	078c1H
	DW	03860H
	DW	00H
	DW	00H
	DW	00H
	DW	00H
	DW	00H
	DW	00H
	DW	00H
	DW	00H
	DW	00H
	DW	00H
	DW	00H
	DW	00H
	DW	00H
	DW	00H
	DW	00H
	DW	00H
	DW	00H
	DW	00H
	DW	00H
	DW	00H
	DW	00H
	DW	00H
	DW	00H
	DW	00H
	DW	00H
	DW	00H
	DW	00H
	DW	00H
	DW	00H
	DW	00H
	DW	00H
	DW	00H
	DW	00H
	DW	00H
	DW	00H
	DW	00H
	DW	00H
	DW	00H
	DW	00H
	DW	00H
	DW	00H
	DW	00H
	DW	00H
	DW	00H
	DW	00H
	DW	00H
	DW	00H
	DW	00H
	DW	00H
	DW	00H
	DW	00H
	DW	00H
	DW	00H
	DW	00H
	DW	00H
	DW	00H
	DW	00H
	DW	00H
	DW	00H
	DW	00H
	DW	00H
	DW	00H
	DW	00H
	DW	00H
	DW	00H
	DW	00H
	DW	00H
	DW	00H
	DW	00H
	DW	00H
	DW	00H
	DW	00H
	DW	00H
	DW	00H
	DW	00H
	DW	00H
	DW	00H
	DW	00H
	DW	00H
	DW	00H
	DW	00H
	DW	00H
	DW	00H
	DW	00H
	DW	00H
	DW	00H
	DW	00H
	DW	00H
	DW	00H
	DW	00H
	DW	00H
	DW	00H
	DW	00H
	DW	00H
	DW	00H
	DW	00H
	DW	00H
	DW	00H
	DW	00H
	DW	00H
	DW	00H
	DW	00H
	DW	00H
	DW	00H
	DW	00H
	DW	00H
	DW	00H
	DW	00H
	DW	00H
	DW	00H
	DW	00H
	DW	00H
	DW	00H
	DW	00H
	DW	00H
	DW	00H
	DW	00H
	DW	00H
	DW	00H
	DW	00H
	DW	00H
	DW	00H
	DW	00H
	DW	00H
	DW	00H
	DW	00H
	DW	00H
	DW	00H
	DW	00H
	DW	00H
	DW	00H
	DW	00H
	DW	00H
	DW	00H
	DW	00H
	DW	00H
	DW	00H
	DW	00H
	DW	00H
	DW	00H
	DW	00H
	DW	00H
	DW	00H
	DW	00H
	DW	00H
	DW	00H
	DW	00H
	DW	00H
	DW	00H
	DW	00H
	DW	00H
	DW	00H
	DW	00H
	DW	00H
	DW	00H
	DW	00H
	DW	00H
	DW	00H
	DW	00H
	DW	00H
	DW	00H
	DW	00H
	DW	00H
	DW	00H
	DW	00H
	DW	00H
	DW	00H
	DW	00H
	DW	00H
	DW	00H
	DW	00H
	DW	00H
	DW	00H
	DW	00H
	DW	00H
	DW	00H
	DW	00H
	DW	00H
	DW	00H
	DW	00H
	DW	00H
	DW	00H
	DW	00H
	DW	00H
	DW	00H
	DW	00H
	DW	00H
	DW	00H
	DW	00H
	DW	00H
	DW	00H
	DW	00H
	DW	00H
	DW	00H
	DW	00H
	DW	00H
	DW	00H
	DW	00H
	DW	00H
	DW	00H
	DW	00H
	DW	00H
	DW	00H
	DW	00H
	DW	00H
	DW	00H
	DW	00H
	DW	00H
	DW	00H
	DW	00H
	DW	00H
	DW	00H
	DW	00H
	DW	00H
	DW	00H
	DW	00H
	DW	00H
	DW	00H
	DW	00H
	DW	00H
	DW	00H
	DW	00H
	DW	00H
	DW	00H
	DW	00H
	DW	00H
	DW	00H
	DW	00H
	DW	00H
	DW	00H
	DW	00H
	DW	00H
	DW	00H
	DW	00H
	DW	00H
	DW	00H
	DW	00H
	DW	00H
	DW	00H
	DW	00H
	DW	00H
	DW	00H
	DW	00H
	DW	00H
	DW	00H
	DW	00H
	DW	00H
	DW	00H
	DW	00H
	DW	00H
	DW	00H
	DW	00H
	DW	00H
	DW	00H
	DW	00H
	DW	00H
	DW	00H
	DW	00H
	DW	00H
	DW	00H
	DW	00H
	DW	00H
	DW	00H
	DW	00H
	DW	00H
	DW	00H
	DW	00H
	DW	00H
	DW	00H
	DW	00H
	DW	00H
	DW	00H
	DW	00H
	DW	00H
	DW	00H
	DW	00H
	DW	00H
	DW	00H
	DW	00H
	DW	00H
	DW	00H
	DW	00H
	DW	00H
	DW	00H
	DW	00H
	DW	00H
	DW	00H
	DW	00H
	DW	00H
	DW	00H
	DW	00H
	DW	00H
	DW	00H
	DW	00H
	DW	00H
	DW	00H
	DW	00H
	DW	00H
	DW	00H
	DW	00H
	DW	00H
	DW	00H
	DW	00H
	DW	00H
	DW	00H
	DW	00H
	DW	00H
	DW	00H
	DW	00H
	DW	00H
	DW	00H
	DW	00H
	DW	00H
	DW	00H
	DW	00H
	DW	0400H
	DW	0820H
	DW	01040H
	DW	01840H
	DW	01c61H
	DW	02061H
	DW	02061H
	DW	01c61H
	DW	01c61H
	DW	01c60H
	DW	01c60H
	DW	01c60H
	DW	01c60H
	DW	01c60H
	DW	01c60H
	DW	01c60H
	DW	01c60H
	DW	01c60H
	DW	01c60H
	DW	01c60H
	DW	01c60H
	DW	01c60H
	DW	02060H
	DW	02060H
	DW	02060H
	DW	02060H
	DW	02060H
	DW	02460H
	DW	02460H
	DW	02880H
	DW	02880H
	DW	02c80H
	DW	02c80H
	DW	03080H
	DW	034a0H
	DW	038a1H
	DW	038a1H
	DW	03cc1H
	DW	040c1H
	DW	044c1H
	DW	048e1H
	DW	04ce1H
	DW	050e1H
	DW	050e1H
	DW	05501H
	DW	05901H
	DW	05d01H
	DW	06101H
	DW	06121H
	DW	06521H
	DW	06521H
	DW	06921H
	DW	06921H
	DW	06d21H
	DW	06d41H
	DW	07141H
	DW	07141H
	DW	07141H
	DW	07541H
	DW	07541H
	DW	07541H
	DW	07541H
	DW	07541H
	DW	07541H
	DW	07941H
	DW	07941H
	DW	07941H
	DW	07941H
	DW	07941H
	DW	07941H
	DW	07941H
	DW	07941H
	DW	07941H
	DW	07941H
	DW	07941H
	DW	07941H
	DW	07921H
	DW	07921H
	DW	07921H
	DW	07921H
	DW	07921H
	DW	07921H
	DW	07921H
	DW	07921H
	DW	07921H
	DW	07521H
	DW	07521H
	DW	07521H
	DW	07521H
	DW	07521H
	DW	07521H
	DW	07521H
	DW	07521H
	DW	07521H
	DW	07521H
	DW	07521H
	DW	07521H
	DW	07521H
	DW	07521H
	DW	07501H
	DW	07501H
	DW	07501H
	DW	07501H
	DW	07501H
	DW	07501H
	DW	07501H
	DW	07501H
	DW	07501H
	DW	07501H
	DW	07501H
	DW	07501H
	DW	07501H
	DW	07501H
	DW	07501H
	DW	07501H
	DW	07501H
	DW	07501H
	DW	07501H
	DW	07501H
	DW	07501H
	DW	07501H
	DW	07501H
	DW	074e1H
	DW	074e1H
	DW	074e1H
	DW	074e1H
	DW	074e1H
	DW	074e1H
	DW	074e1H
	DW	074e1H
	DW	074e1H
	DW	074e1H
	DW	074e1H
	DW	074e1H
	DW	074e1H
	DW	074e1H
	DW	074e1H
	DW	074e1H
	DW	074e1H
	DW	074e1H
	DW	074e1H
	DW	070e1H
	DW	070e1H
	DW	070e1H
	DW	070e1H
	DW	070c1H
	DW	070c1H
	DW	070c1H
	DW	070c1H
	DW	070c1H
	DW	070c1H
	DW	070c1H
	DW	070c1H
	DW	070c1H
	DW	070c1H
	DW	070c1H
	DW	070c1H
	DW	070c1H
	DW	070c1H
	DW	070c1H
	DW	070c1H
	DW	070c1H
	DW	070c1H
	DW	078c1H
	DW	03860H
	DW	00H
	DW	00H
	DW	00H
	DW	00H
	DW	00H
	DW	00H
	DW	00H
	DW	00H
	DW	00H
	DW	00H
	DW	00H
	DW	00H
	DW	00H
	DW	00H
	DW	00H
	DW	00H
	DW	00H
	DW	00H
	DW	00H
	DW	00H
	DW	00H
	DW	00H
	DW	00H
	DW	00H
	DW	00H
	DW	00H
	DW	00H
	DW	00H
	DW	00H
	DW	00H
	DW	00H
	DW	00H
	DW	00H
	DW	00H
	DW	00H
	DW	00H
	DW	00H
	DW	00H
	DW	00H
	DW	00H
	DW	00H
	DW	00H
	DW	00H
	DW	00H
	DW	00H
	DW	00H
	DW	00H
	DW	00H
	DW	00H
	DW	00H
	DW	00H
	DW	00H
	DW	00H
	DW	00H
	DW	00H
	DW	00H
	DW	00H
	DW	00H
	DW	00H
	DW	00H
	DW	00H
	DW	00H
	DW	00H
	DW	00H
	DW	00H
	DW	00H
	DW	00H
	DW	00H
	DW	00H
	DW	00H
	DW	00H
	DW	00H
	DW	00H
	DW	00H
	DW	00H
	DW	00H
	DW	00H
	DW	00H
	DW	00H
	DW	00H
	DW	00H
	DW	00H
	DW	00H
	DW	00H
	DW	00H
	DW	00H
	DW	00H
	DW	00H
	DW	00H
	DW	00H
	DW	00H
	DW	00H
	DW	00H
	DW	00H
	DW	00H
	DW	00H
	DW	00H
	DW	00H
	DW	00H
	DW	00H
	DW	00H
	DW	00H
	DW	00H
	DW	00H
	DW	00H
	DW	00H
	DW	00H
	DW	00H
	DW	00H
	DW	00H
	DW	00H
	DW	00H
	DW	00H
	DW	00H
	DW	00H
	DW	00H
	DW	00H
	DW	00H
	DW	00H
	DW	00H
	DW	00H
	DW	00H
	DW	00H
	DW	00H
	DW	00H
	DW	00H
	DW	00H
	DW	00H
	DW	00H
	DW	00H
	DW	00H
	DW	00H
	DW	00H
	DW	00H
	DW	00H
	DW	00H
	DW	00H
	DW	00H
	DW	00H
	DW	00H
	DW	00H
	DW	00H
	DW	00H
	DW	00H
	DW	00H
	DW	00H
	DW	00H
	DW	00H
	DW	00H
	DW	00H
	DW	00H
	DW	00H
	DW	00H
	DW	00H
	DW	00H
	DW	00H
	DW	00H
	DW	00H
	DW	00H
	DW	00H
	DW	00H
	DW	00H
	DW	00H
	DW	00H
	DW	00H
	DW	00H
	DW	00H
	DW	00H
	DW	00H
	DW	00H
	DW	00H
	DW	00H
	DW	00H
	DW	00H
	DW	00H
	DW	00H
	DW	00H
	DW	00H
	DW	00H
	DW	00H
	DW	00H
	DW	00H
	DW	00H
	DW	00H
	DW	00H
	DW	00H
	DW	00H
	DW	00H
	DW	00H
	DW	00H
	DW	00H
	DW	00H
	DW	00H
	DW	00H
	DW	00H
	DW	00H
	DW	00H
	DW	00H
	DW	00H
	DW	00H
	DW	00H
	DW	00H
	DW	00H
	DW	00H
	DW	00H
	DW	00H
	DW	00H
	DW	00H
	DW	00H
	DW	00H
	DW	00H
	DW	00H
	DW	00H
	DW	00H
	DW	00H
	DW	00H
	DW	00H
	DW	00H
	DW	00H
	DW	00H
	DW	00H
	DW	00H
	DW	00H
	DW	00H
	DW	00H
	DW	00H
	DW	00H
	DW	00H
	DW	00H
	DW	00H
	DW	00H
	DW	00H
	DW	00H
	DW	00H
	DW	00H
	DW	00H
	DW	00H
	DW	00H
	DW	00H
	DW	00H
	DW	00H
	DW	00H
	DW	00H
	DW	00H
	DW	00H
	DW	00H
	DW	00H
	DW	00H
	DW	00H
	DW	00H
	DW	00H
	DW	00H
	DW	00H
	DW	00H
	DW	00H
	DW	00H
	DW	00H
	DW	00H
	DW	00H
	DW	00H
	DW	00H
	DW	00H
	DW	00H
	DW	00H
	DW	00H
	DW	00H
	DW	00H
	DW	00H
	DW	00H
	DW	00H
	DW	00H
	DW	00H
	DW	00H
	DW	00H
	DW	00H
	DW	00H
	DW	00H
	DW	00H
	DW	00H
	DW	00H
	DW	00H
	DW	00H
	DW	00H
	DW	00H
	DW	00H
	DW	00H
	DW	00H
	DW	00H
	DW	00H
	DW	00H
	DW	00H
	DW	00H
	DW	00H
	DW	00H
	DW	00H
	DW	00H
	DW	00H
	DW	00H
	DW	00H
	DW	00H
	DW	00H
	DW	00H
	DW	00H
	DW	00H
	DW	00H
	DW	00H
	DW	00H
	DW	00H
	DW	00H
	DW	00H
	DW	00H
	DW	00H
	DW	0400H
	DW	01020H
	DW	01440H
	DW	01c61H
	DW	02061H
	DW	02061H
	DW	02061H
	DW	01c61H
	DW	01c61H
	DW	01c61H
	DW	01c60H
	DW	01c60H
	DW	01c60H
	DW	01c60H
	DW	01c60H
	DW	01c60H
	DW	01c60H
	DW	01c60H
	DW	01c60H
	DW	01c60H
	DW	01c60H
	DW	02060H
	DW	02060H
	DW	02060H
	DW	02060H
	DW	02460H
	DW	02460H
	DW	02460H
	DW	02880H
	DW	02c80H
	DW	02c80H
	DW	03081H
	DW	034a1H
	DW	034a1H
	DW	038a1H
	DW	03ca1H
	DW	040c1H
	DW	044c1H
	DW	048e1H
	DW	04ce1H
	DW	050e1H
	DW	05501H
	DW	05501H
	DW	05901H
	DW	05d01H
	DW	06121H
	DW	06121H
	DW	06521H
	DW	06921H
	DW	06921H
	DW	06d41H
	DW	06d41H
	DW	07141H
	DW	07141H
	DW	07141H
	DW	07541H
	DW	07541H
	DW	07541H
	DW	07541H
	DW	07941H
	DW	07941H
	DW	07941H
	DW	07941H
	DW	07941H
	DW	07941H
	DW	07941H
	DW	07941H
	DW	07941H
	DW	07941H
	DW	07941H
	DW	07941H
	DW	07941H
	DW	07941H
	DW	07941H
	DW	07941H
	DW	07941H
	DW	07941H
	DW	07941H
	DW	07921H
	DW	07921H
	DW	07921H
	DW	07921H
	DW	07921H
	DW	07921H
	DW	07921H
	DW	07921H
	DW	07921H
	DW	07521H
	DW	07521H
	DW	07521H
	DW	07521H
	DW	07521H
	DW	07521H
	DW	07521H
	DW	07521H
	DW	07521H
	DW	07521H
	DW	07521H
	DW	07521H
	DW	07521H
	DW	07501H
	DW	07501H
	DW	07501H
	DW	07501H
	DW	07501H
	DW	07501H
	DW	07501H
	DW	07501H
	DW	07501H
	DW	07501H
	DW	07501H
	DW	07501H
	DW	07501H
	DW	07501H
	DW	07501H
	DW	07501H
	DW	07501H
	DW	07501H
	DW	07501H
	DW	07501H
	DW	07501H
	DW	07501H
	DW	07501H
	DW	074e1H
	DW	074e1H
	DW	074e1H
	DW	074e1H
	DW	074e1H
	DW	074e1H
	DW	074e1H
	DW	074e1H
	DW	074e1H
	DW	074e1H
	DW	074e1H
	DW	074e1H
	DW	074e1H
	DW	074e1H
	DW	074e1H
	DW	074e1H
	DW	074e1H
	DW	074e1H
	DW	074e1H
	DW	070e1H
	DW	070e1H
	DW	070e1H
	DW	070e1H
	DW	070e1H
	DW	070c1H
	DW	070c1H
	DW	070c1H
	DW	070c1H
	DW	070c1H
	DW	070c1H
	DW	070c1H
	DW	070c1H
	DW	070c1H
	DW	070c1H
	DW	070c1H
	DW	070c1H
	DW	070c1H
	DW	070c1H
	DW	070c1H
	DW	070c1H
	DW	070c1H
	DW	070c1H
	DW	070c1H
	DW	078c1H
	DW	03860H
	DW	00H
	DW	00H
	DW	00H
	DW	00H
	DW	00H
	DW	00H
	DW	00H
	DW	00H
	DW	00H
	DW	00H
	DW	00H
	DW	00H
	DW	00H
	DW	00H
	DW	00H
	DW	00H
	DW	00H
	DW	00H
	DW	00H
	DW	00H
	DW	00H
	DW	00H
	DW	00H
	DW	00H
	DW	00H
	DW	00H
	DW	00H
	DW	00H
	DW	00H
	DW	00H
	DW	00H
	DW	00H
	DW	00H
	DW	00H
	DW	00H
	DW	00H
	DW	00H
	DW	00H
	DW	00H
	DW	00H
	DW	00H
	DW	00H
	DW	00H
	DW	00H
	DW	00H
	DW	00H
	DW	00H
	DW	00H
	DW	00H
	DW	00H
	DW	00H
	DW	00H
	DW	00H
	DW	00H
	DW	00H
	DW	00H
	DW	00H
	DW	00H
	DW	00H
	DW	00H
	DW	00H
	DW	00H
	DW	00H
	DW	00H
	DW	00H
	DW	00H
	DW	00H
	DW	00H
	DW	00H
	DW	00H
	DW	00H
	DW	00H
	DW	00H
	DW	00H
	DW	00H
	DW	00H
	DW	00H
	DW	00H
	DW	00H
	DW	00H
	DW	00H
	DW	00H
	DW	00H
	DW	00H
	DW	00H
	DW	00H
	DW	00H
	DW	00H
	DW	00H
	DW	00H
	DW	00H
	DW	00H
	DW	00H
	DW	00H
	DW	00H
	DW	00H
	DW	00H
	DW	00H
	DW	00H
	DW	00H
	DW	00H
	DW	00H
	DW	00H
	DW	00H
	DW	00H
	DW	00H
	DW	00H
	DW	00H
	DW	00H
	DW	00H
	DW	00H
	DW	00H
	DW	00H
	DW	00H
	DW	00H
	DW	00H
	DW	00H
	DW	00H
	DW	00H
	DW	00H
	DW	00H
	DW	00H
	DW	00H
	DW	00H
	DW	00H
	DW	00H
	DW	00H
	DW	00H
	DW	00H
	DW	00H
	DW	00H
	DW	00H
	DW	00H
	DW	00H
	DW	00H
	DW	00H
	DW	00H
	DW	00H
	DW	00H
	DW	00H
	DW	00H
	DW	00H
	DW	00H
	DW	00H
	DW	00H
	DW	00H
	DW	00H
	DW	00H
	DW	00H
	DW	00H
	DW	00H
	DW	00H
	DW	00H
	DW	00H
	DW	00H
	DW	00H
	DW	00H
	DW	00H
	DW	00H
	DW	00H
	DW	00H
	DW	00H
	DW	00H
	DW	00H
	DW	00H
	DW	00H
	DW	00H
	DW	00H
	DW	00H
	DW	00H
	DW	00H
	DW	00H
	DW	00H
	DW	00H
	DW	00H
	DW	00H
	DW	00H
	DW	00H
	DW	00H
	DW	00H
	DW	00H
	DW	00H
	DW	00H
	DW	00H
	DW	00H
	DW	00H
	DW	00H
	DW	00H
	DW	00H
	DW	00H
	DW	00H
	DW	00H
	DW	00H
	DW	00H
	DW	00H
	DW	00H
	DW	00H
	DW	00H
	DW	00H
	DW	00H
	DW	00H
	DW	00H
	DW	00H
	DW	00H
	DW	00H
	DW	00H
	DW	00H
	DW	00H
	DW	00H
	DW	00H
	DW	00H
	DW	00H
	DW	00H
	DW	00H
	DW	00H
	DW	00H
	DW	00H
	DW	00H
	DW	00H
	DW	00H
	DW	00H
	DW	00H
	DW	00H
	DW	00H
	DW	00H
	DW	00H
	DW	00H
	DW	00H
	DW	00H
	DW	00H
	DW	00H
	DW	00H
	DW	00H
	DW	00H
	DW	00H
	DW	00H
	DW	00H
	DW	00H
	DW	00H
	DW	00H
	DW	00H
	DW	00H
	DW	00H
	DW	00H
	DW	00H
	DW	00H
	DW	00H
	DW	00H
	DW	00H
	DW	00H
	DW	00H
	DW	00H
	DW	00H
	DW	00H
	DW	00H
	DW	00H
	DW	00H
	DW	00H
	DW	00H
	DW	00H
	DW	00H
	DW	00H
	DW	00H
	DW	00H
	DW	00H
	DW	00H
	DW	00H
	DW	00H
	DW	00H
	DW	00H
	DW	00H
	DW	00H
	DW	00H
	DW	00H
	DW	00H
	DW	00H
	DW	00H
	DW	00H
	DW	00H
	DW	00H
	DW	00H
	DW	00H
	DW	00H
	DW	00H
	DW	00H
	DW	00H
	DW	00H
	DW	00H
	DW	00H
	DW	00H
	DW	00H
	DW	00H
	DW	00H
	DW	00H
	DW	00H
	DW	00H
	DW	00H
	DW	00H
	DW	00H
	DW	00H
	DW	00H
	DW	00H
	DW	00H
	DW	00H
	DW	00H
	DW	00H
	DW	00H
	DW	00H
	DW	00H
	DW	0820H
	DW	01040H
	DW	01861H
	DW	01c61H
	DW	02061H
	DW	02061H
	DW	01c61H
	DW	01c61H
	DW	01c61H
	DW	01c61H
	DW	01c61H
	DW	01c61H
	DW	01c60H
	DW	01c60H
	DW	01c60H
	DW	01c60H
	DW	01c60H
	DW	01c60H
	DW	01c60H
	DW	02060H
	DW	02060H
	DW	02060H
	DW	02060H
	DW	02060H
	DW	02460H
	DW	02460H
	DW	02880H
	DW	02880H
	DW	02c80H
	DW	02c80H
	DW	03080H
	DW	034a1H
	DW	038a1H
	DW	038a1H
	DW	03cc1H
	DW	040c1H
	DW	044c1H
	DW	048e1H
	DW	04ce1H
	DW	050e1H
	DW	05501H
	DW	05901H
	DW	05d01H
	DW	06121H
	DW	06121H
	DW	06521H
	DW	06921H
	DW	06941H
	DW	06d41H
	DW	06d41H
	DW	07141H
	DW	07141H
	DW	07141H
	DW	07541H
	DW	07541H
	DW	07541H
	DW	07541H
	DW	07941H
	DW	07941H
	DW	07941H
	DW	07941H
	DW	07941H
	DW	07941H
	DW	07941H
	DW	07941H
	DW	07941H
	DW	07941H
	DW	07941H
	DW	07941H
	DW	07941H
	DW	07941H
	DW	07941H
	DW	07941H
	DW	07941H
	DW	07941H
	DW	07941H
	DW	07941H
	DW	07941H
	DW	07941H
	DW	07941H
	DW	07921H
	DW	07921H
	DW	07921H
	DW	07921H
	DW	07921H
	DW	07921H
	DW	07921H
	DW	07921H
	DW	07921H
	DW	07521H
	DW	07521H
	DW	07521H
	DW	07521H
	DW	07521H
	DW	07521H
	DW	07521H
	DW	07521H
	DW	07521H
	DW	07521H
	DW	07521H
	DW	07521H
	DW	07521H
	DW	07501H
	DW	07501H
	DW	07501H
	DW	07501H
	DW	07501H
	DW	07501H
	DW	07501H
	DW	07501H
	DW	07501H
	DW	07501H
	DW	07501H
	DW	07501H
	DW	07501H
	DW	07501H
	DW	07501H
	DW	07501H
	DW	07501H
	DW	07501H
	DW	07501H
	DW	07501H
	DW	07501H
	DW	07501H
	DW	07501H
	DW	07501H
	DW	074e1H
	DW	074e1H
	DW	074e1H
	DW	074e1H
	DW	074e1H
	DW	074e1H
	DW	074e1H
	DW	074e1H
	DW	074e1H
	DW	074e1H
	DW	074e1H
	DW	074e1H
	DW	074e1H
	DW	074e1H
	DW	074e1H
	DW	074e1H
	DW	074e1H
	DW	074e1H
	DW	074e1H
	DW	070e1H
	DW	070e1H
	DW	070e1H
	DW	070e1H
	DW	070c1H
	DW	070c1H
	DW	070c1H
	DW	070c1H
	DW	070c1H
	DW	070c1H
	DW	070c1H
	DW	070c1H
	DW	070c1H
	DW	070c1H
	DW	070c1H
	DW	070c1H
	DW	070c1H
	DW	070c1H
	DW	070c1H
	DW	070c1H
	DW	070c1H
	DW	070c1H
	DW	070c1H
	DW	070c1H
	DW	078c1H
	DW	03860H
	DW	00H
	DW	00H
	DW	00H
	DW	00H
	DW	00H
	DW	00H
	DW	00H
	DW	00H
	DW	00H
	DW	00H
	DW	00H
	DW	00H
	DW	00H
	DW	00H
	DW	00H
	DW	00H
	DW	00H
	DW	00H
	DW	00H
	DW	00H
	DW	00H
	DW	00H
	DW	00H
	DW	00H
	DW	00H
	DW	00H
	DW	00H
	DW	00H
	DW	00H
	DW	00H
	DW	00H
	DW	00H
	DW	00H
	DW	00H
	DW	00H
	DW	00H
	DW	00H
	DW	00H
	DW	00H
	DW	00H
	DW	00H
	DW	00H
	DW	00H
	DW	00H
	DW	00H
	DW	00H
	DW	00H
	DW	00H
	DW	00H
	DW	00H
	DW	00H
	DW	00H
	DW	00H
	DW	00H
	DW	00H
	DW	00H
	DW	00H
	DW	00H
	DW	00H
	DW	00H
	DW	00H
	DW	00H
	DW	00H
	DW	00H
	DW	00H
	DW	00H
	DW	00H
	DW	00H
	DW	00H
	DW	00H
	DW	00H
	DW	00H
	DW	00H
	DW	00H
	DW	00H
	DW	00H
	DW	00H
	DW	00H
	DW	00H
	DW	00H
	DW	00H
	DW	00H
	DW	00H
	DW	00H
	DW	00H
	DW	00H
	DW	00H
	DW	00H
	DW	00H
	DW	00H
	DW	00H
	DW	00H
	DW	00H
	DW	00H
	DW	00H
	DW	00H
	DW	00H
	DW	00H
	DW	00H
	DW	00H
	DW	00H
	DW	00H
	DW	00H
	DW	00H
	DW	00H
	DW	00H
	DW	00H
	DW	00H
	DW	00H
	DW	00H
	DW	00H
	DW	00H
	DW	00H
	DW	00H
	DW	00H
	DW	00H
	DW	00H
	DW	00H
	DW	00H
	DW	00H
	DW	00H
	DW	00H
	DW	00H
	DW	00H
	DW	00H
	DW	00H
	DW	00H
	DW	00H
	DW	00H
	DW	00H
	DW	00H
	DW	00H
	DW	00H
	DW	00H
	DW	00H
	DW	00H
	DW	00H
	DW	00H
	DW	00H
	DW	00H
	DW	00H
	DW	00H
	DW	00H
	DW	00H
	DW	00H
	DW	00H
	DW	00H
	DW	00H
	DW	00H
	DW	00H
	DW	00H
	DW	00H
	DW	00H
	DW	00H
	DW	00H
	DW	00H
	DW	00H
	DW	00H
	DW	00H
	DW	00H
	DW	00H
	DW	00H
	DW	00H
	DW	00H
	DW	00H
	DW	00H
	DW	00H
	DW	00H
	DW	00H
	DW	00H
	DW	00H
	DW	00H
	DW	00H
	DW	00H
	DW	00H
	DW	00H
	DW	00H
	DW	00H
	DW	00H
	DW	00H
	DW	00H
	DW	00H
	DW	00H
	DW	00H
	DW	00H
	DW	00H
	DW	00H
	DW	00H
	DW	00H
	DW	00H
	DW	00H
	DW	00H
	DW	00H
	DW	00H
	DW	00H
	DW	00H
	DW	00H
	DW	00H
	DW	00H
	DW	00H
	DW	00H
	DW	00H
	DW	00H
	DW	00H
	DW	00H
	DW	00H
	DW	00H
	DW	00H
	DW	00H
	DW	00H
	DW	00H
	DW	00H
	DW	00H
	DW	00H
	DW	00H
	DW	00H
	DW	00H
	DW	00H
	DW	00H
	DW	00H
	DW	00H
	DW	00H
	DW	00H
	DW	00H
	DW	00H
	DW	00H
	DW	00H
	DW	00H
	DW	00H
	DW	00H
	DW	00H
	DW	00H
	DW	00H
	DW	00H
	DW	00H
	DW	00H
	DW	00H
	DW	00H
	DW	00H
	DW	00H
	DW	00H
	DW	00H
	DW	00H
	DW	00H
	DW	00H
	DW	00H
	DW	00H
	DW	00H
	DW	00H
	DW	00H
	DW	00H
	DW	00H
	DW	00H
	DW	00H
	DW	00H
	DW	00H
	DW	00H
	DW	00H
	DW	00H
	DW	00H
	DW	00H
	DW	00H
	DW	00H
	DW	00H
	DW	00H
	DW	00H
	DW	00H
	DW	00H
	DW	00H
	DW	00H
	DW	00H
	DW	00H
	DW	00H
	DW	00H
	DW	00H
	DW	00H
	DW	00H
	DW	00H
	DW	00H
	DW	00H
	DW	00H
	DW	00H
	DW	00H
	DW	00H
	DW	00H
	DW	00H
	DW	00H
	DW	00H
	DW	00H
	DW	00H
	DW	00H
	DW	00H
	DW	00H
	DW	00H
	DW	00H
	DW	00H
	DW	00H
	DW	00H
	DW	00H
	DW	00H
	DW	00H
	DW	00H
	DW	00H
	DW	00H
	DW	00H
	DW	0400H
	DW	0c20H
	DW	01440H
	DW	01c61H
	DW	01c61H
	DW	02061H
	DW	01c61H
	DW	01c61H
	DW	01c61H
	DW	01c61H
	DW	01c61H
	DW	01c61H
	DW	01c61H
	DW	01c61H
	DW	01c60H
	DW	01c60H
	DW	01c60H
	DW	01c60H
	DW	01c60H
	DW	01c60H
	DW	02060H
	DW	02060H
	DW	02060H
	DW	02060H
	DW	02460H
	DW	02460H
	DW	02880H
	DW	02880H
	DW	02c81H
	DW	02c81H
	DW	030a1H
	DW	034a1H
	DW	038a1H
	DW	03cc1H
	DW	040c1H
	DW	044c1H
	DW	048e1H
	DW	04ce1H
	DW	050e1H
	DW	05501H
	DW	05901H
	DW	05901H
	DW	05d21H
	DW	06121H
	DW	06521H
	DW	06921H
	DW	06941H
	DW	06d41H
	DW	06d41H
	DW	07141H
	DW	07141H
	DW	07541H
	DW	07541H
	DW	07541H
	DW	07541H
	DW	07541H
	DW	07941H
	DW	07941H
	DW	07941H
	DW	07941H
	DW	07941H
	DW	07941H
	DW	07941H
	DW	07941H
	DW	07941H
	DW	07941H
	DW	07941H
	DW	07941H
	DW	07941H
	DW	07941H
	DW	07941H
	DW	07941H
	DW	07941H
	DW	07941H
	DW	07941H
	DW	07941H
	DW	07941H
	DW	07941H
	DW	07941H
	DW	07941H
	DW	07941H
	DW	07941H
	DW	07921H
	DW	07921H
	DW	07921H
	DW	07921H
	DW	07921H
	DW	07921H
	DW	07921H
	DW	07921H
	DW	07921H
	DW	07521H
	DW	07521H
	DW	07521H
	DW	07521H
	DW	07521H
	DW	07521H
	DW	07521H
	DW	07521H
	DW	07521H
	DW	07521H
	DW	07521H
	DW	07521H
	DW	07521H
	DW	07501H
	DW	07501H
	DW	07501H
	DW	07501H
	DW	07501H
	DW	07501H
	DW	07501H
	DW	07501H
	DW	07501H
	DW	07501H
	DW	07501H
	DW	07501H
	DW	07501H
	DW	07501H
	DW	07501H
	DW	07501H
	DW	07501H
	DW	07501H
	DW	07501H
	DW	07501H
	DW	07501H
	DW	07501H
	DW	07501H
	DW	07501H
	DW	074e1H
	DW	074e1H
	DW	074e1H
	DW	074e1H
	DW	074e1H
	DW	074e1H
	DW	074e1H
	DW	074e1H
	DW	074e1H
	DW	074e1H
	DW	074e1H
	DW	074e1H
	DW	074e1H
	DW	074e1H
	DW	074e1H
	DW	074e1H
	DW	074e1H
	DW	074e1H
	DW	074e1H
	DW	070e1H
	DW	070e1H
	DW	070e1H
	DW	070e1H
	DW	070c1H
	DW	070c1H
	DW	070c1H
	DW	070c1H
	DW	070c1H
	DW	070c1H
	DW	070c1H
	DW	070c1H
	DW	070c1H
	DW	070c1H
	DW	070c1H
	DW	070c1H
	DW	070c1H
	DW	070c1H
	DW	070c1H
	DW	070c1H
	DW	070c1H
	DW	070c1H
	DW	070c1H
	DW	070c1H
	DW	070c1H
	DW	070c1H
	DW	078c1H
	DW	03860H
	DW	00H
	DW	00H
	DW	00H
	DW	00H
	DW	00H
	DW	00H
	DW	00H
	DW	00H
	DW	00H
	DW	00H
	DW	00H
	DW	00H
	DW	00H
	DW	00H
	DW	00H
	DW	00H
	DW	00H
	DW	00H
	DW	00H
	DW	00H
	DW	00H
	DW	00H
	DW	00H
	DW	00H
	DW	00H
	DW	00H
	DW	00H
	DW	00H
	DW	00H
	DW	00H
	DW	00H
	DW	00H
	DW	00H
	DW	00H
	DW	00H
	DW	00H
	DW	00H
	DW	00H
	DW	00H
	DW	00H
	DW	00H
	DW	00H
	DW	00H
	DW	00H
	DW	00H
	DW	00H
	DW	00H
	DW	00H
	DW	00H
	DW	00H
	DW	00H
	DW	00H
	DW	00H
	DW	00H
	DW	00H
	DW	00H
	DW	00H
	DW	00H
	DW	00H
	DW	00H
	DW	00H
	DW	00H
	DW	00H
	DW	00H
	DW	00H
	DW	00H
	DW	00H
	DW	00H
	DW	00H
	DW	00H
	DW	00H
	DW	00H
	DW	00H
	DW	00H
	DW	00H
	DW	00H
	DW	00H
	DW	00H
	DW	00H
	DW	00H
	DW	00H
	DW	00H
	DW	00H
	DW	00H
	DW	00H
	DW	00H
	DW	00H
	DW	00H
	DW	00H
	DW	00H
	DW	00H
	DW	00H
	DW	00H
	DW	00H
	DW	00H
	DW	00H
	DW	00H
	DW	00H
	DW	00H
	DW	00H
	DW	00H
	DW	00H
	DW	00H
	DW	00H
	DW	00H
	DW	00H
	DW	00H
	DW	00H
	DW	00H
	DW	00H
	DW	00H
	DW	00H
	DW	00H
	DW	00H
	DW	00H
	DW	00H
	DW	00H
	DW	00H
	DW	00H
	DW	00H
	DW	00H
	DW	00H
	DW	00H
	DW	00H
	DW	00H
	DW	00H
	DW	00H
	DW	00H
	DW	00H
	DW	00H
	DW	00H
	DW	00H
	DW	00H
	DW	00H
	DW	00H
	DW	00H
	DW	00H
	DW	00H
	DW	00H
	DW	00H
	DW	00H
	DW	00H
	DW	00H
	DW	00H
	DW	00H
	DW	00H
	DW	00H
	DW	00H
	DW	00H
	DW	00H
	DW	00H
	DW	00H
	DW	00H
	DW	00H
	DW	00H
	DW	00H
	DW	00H
	DW	00H
	DW	00H
	DW	00H
	DW	00H
	DW	00H
	DW	00H
	DW	00H
	DW	00H
	DW	00H
	DW	00H
	DW	00H
	DW	00H
	DW	00H
	DW	00H
	DW	00H
	DW	00H
	DW	00H
	DW	00H
	DW	00H
	DW	00H
	DW	00H
	DW	00H
	DW	00H
	DW	00H
	DW	00H
	DW	00H
	DW	00H
	DW	00H
	DW	00H
	DW	00H
	DW	00H
	DW	00H
	DW	00H
	DW	00H
	DW	00H
	DW	00H
	DW	00H
	DW	00H
	DW	00H
	DW	00H
	DW	00H
	DW	00H
	DW	00H
	DW	00H
	DW	00H
	DW	00H
	DW	00H
	DW	00H
	DW	00H
	DW	00H
	DW	00H
	DW	00H
	DW	00H
	DW	00H
	DW	00H
	DW	00H
	DW	00H
	DW	00H
	DW	00H
	DW	00H
	DW	00H
	DW	00H
	DW	00H
	DW	00H
	DW	00H
	DW	00H
	DW	00H
	DW	00H
	DW	00H
	DW	00H
	DW	00H
	DW	00H
	DW	00H
	DW	00H
	DW	00H
	DW	00H
	DW	00H
	DW	00H
	DW	00H
	DW	00H
	DW	00H
	DW	00H
	DW	00H
	DW	00H
	DW	00H
	DW	00H
	DW	00H
	DW	00H
	DW	00H
	DW	00H
	DW	00H
	DW	00H
	DW	00H
	DW	00H
	DW	00H
	DW	00H
	DW	00H
	DW	00H
	DW	00H
	DW	00H
	DW	00H
	DW	00H
	DW	00H
	DW	00H
	DW	00H
	DW	00H
	DW	00H
	DW	00H
	DW	00H
	DW	00H
	DW	00H
	DW	00H
	DW	00H
	DW	00H
	DW	00H
	DW	00H
	DW	00H
	DW	00H
	DW	00H
	DW	00H
	DW	00H
	DW	00H
	DW	00H
	DW	00H
	DW	00H
	DW	00H
	DW	00H
	DW	00H
	DW	00H
	DW	00H
	DW	00H
	DW	00H
	DW	00H
	DW	00H
	DW	00H
	DW	00H
	DW	00H
	DW	00H
	DW	00H
	DW	00H
	DW	00H
	DW	00H
	DW	00H
	DW	00H
	DW	00H
	DW	0820H
	DW	01040H
	DW	01841H
	DW	01c61H
	DW	02061H
	DW	02061H
	DW	01c61H
	DW	01c61H
	DW	01c61H
	DW	01c61H
	DW	01c61H
	DW	01c61H
	DW	01c61H
	DW	01c61H
	DW	01c61H
	DW	01c61H
	DW	01c60H
	DW	01c60H
	DW	01c60H
	DW	02060H
	DW	02060H
	DW	02060H
	DW	02060H
	DW	02460H
	DW	02481H
	DW	02881H
	DW	02881H
	DW	02c81H
	DW	03081H
	DW	030a1H
	DW	034a1H
	DW	038a1H
	DW	03cc1H
	DW	040c1H
	DW	044c1H
	DW	048e1H
	DW	04ce1H
	DW	05101H
	DW	05501H
	DW	05901H
	DW	05d21H
	DW	06121H
	DW	06521H
	DW	06521H
	DW	06941H
	DW	06d41H
	DW	06d41H
	DW	07141H
	DW	07141H
	DW	07141H
	DW	07561H
	DW	07561H
	DW	07561H
	DW	07961H
	DW	07961H
	DW	07961H
	DW	07961H
	DW	07961H
	DW	07961H
	DW	07961H
	DW	07961H
	DW	07941H
	DW	07941H
	DW	07941H
	DW	07941H
	DW	07941H
	DW	07941H
	DW	07941H
	DW	07941H
	DW	07941H
	DW	07941H
	DW	07941H
	DW	07941H
	DW	07941H
	DW	07941H
	DW	07941H
	DW	07941H
	DW	07941H
	DW	07941H
	DW	07941H
	DW	07941H
	DW	07941H
	DW	07941H
	DW	07921H
	DW	07921H
	DW	07921H
	DW	07921H
	DW	07921H
	DW	07921H
	DW	07921H
	DW	07921H
	DW	07921H
	DW	07521H
	DW	07521H
	DW	07521H
	DW	07521H
	DW	07521H
	DW	07521H
	DW	07521H
	DW	07521H
	DW	07521H
	DW	07521H
	DW	07521H
	DW	07521H
	DW	07521H
	DW	07521H
	DW	07501H
	DW	07501H
	DW	07501H
	DW	07501H
	DW	07501H
	DW	07501H
	DW	07501H
	DW	07501H
	DW	07501H
	DW	07501H
	DW	07501H
	DW	07501H
	DW	07501H
	DW	07501H
	DW	07501H
	DW	07501H
	DW	07501H
	DW	07501H
	DW	07501H
	DW	07501H
	DW	07501H
	DW	07501H
	DW	07501H
	DW	074e1H
	DW	074e1H
	DW	074e1H
	DW	074e1H
	DW	074e1H
	DW	074e1H
	DW	074e1H
	DW	074e1H
	DW	074e1H
	DW	074e1H
	DW	074e1H
	DW	074e1H
	DW	074e1H
	DW	074e1H
	DW	074e1H
	DW	074e1H
	DW	074e1H
	DW	074e1H
	DW	074e1H
	DW	070e1H
	DW	070e1H
	DW	070e1H
	DW	070e1H
	DW	070e1H
	DW	070c1H
	DW	070c1H
	DW	070c1H
	DW	070c1H
	DW	070c1H
	DW	070c1H
	DW	070c1H
	DW	070c1H
	DW	070c1H
	DW	070c1H
	DW	070c1H
	DW	070c1H
	DW	070c1H
	DW	070c1H
	DW	070c1H
	DW	070c1H
	DW	070c1H
	DW	070c1H
	DW	070c1H
	DW	070c1H
	DW	070c1H
	DW	070c1H
	DW	070c1H
	DW	078c1H
	DW	03860H
	DW	00H
	DW	00H
	DW	00H
	DW	00H
	DW	00H
	DW	00H
	DW	00H
	DW	00H
	DW	00H
	DW	00H
	DW	00H
	DW	00H
	DW	00H
	DW	00H
	DW	00H
	DW	00H
	DW	00H
	DW	00H
	DW	00H
	DW	00H
	DW	00H
	DW	00H
	DW	00H
	DW	00H
	DW	00H
	DW	00H
	DW	00H
	DW	00H
	DW	00H
	DW	00H
	DW	00H
	DW	00H
	DW	00H
	DW	00H
	DW	00H
	DW	00H
	DW	00H
	DW	00H
	DW	00H
	DW	00H
	DW	00H
	DW	00H
	DW	00H
	DW	00H
	DW	00H
	DW	00H
	DW	00H
	DW	00H
	DW	00H
	DW	00H
	DW	00H
	DW	00H
	DW	00H
	DW	00H
	DW	00H
	DW	00H
	DW	00H
	DW	00H
	DW	00H
	DW	00H
	DW	00H
	DW	00H
	DW	00H
	DW	00H
	DW	00H
	DW	00H
	DW	00H
	DW	00H
	DW	00H
	DW	00H
	DW	00H
	DW	00H
	DW	00H
	DW	00H
	DW	00H
	DW	00H
	DW	00H
	DW	00H
	DW	00H
	DW	00H
	DW	00H
	DW	00H
	DW	00H
	DW	00H
	DW	00H
	DW	00H
	DW	00H
	DW	00H
	DW	00H
	DW	00H
	DW	00H
	DW	00H
	DW	00H
	DW	00H
	DW	00H
	DW	00H
	DW	00H
	DW	00H
	DW	00H
	DW	00H
	DW	00H
	DW	00H
	DW	00H
	DW	00H
	DW	00H
	DW	00H
	DW	00H
	DW	00H
	DW	00H
	DW	00H
	DW	00H
	DW	00H
	DW	00H
	DW	00H
	DW	00H
	DW	00H
	DW	00H
	DW	00H
	DW	00H
	DW	00H
	DW	00H
	DW	00H
	DW	00H
	DW	00H
	DW	00H
	DW	00H
	DW	00H
	DW	00H
	DW	00H
	DW	00H
	DW	00H
	DW	00H
	DW	00H
	DW	00H
	DW	00H
	DW	00H
	DW	00H
	DW	00H
	DW	00H
	DW	00H
	DW	00H
	DW	00H
	DW	00H
	DW	00H
	DW	00H
	DW	00H
	DW	00H
	DW	00H
	DW	00H
	DW	00H
	DW	00H
	DW	00H
	DW	00H
	DW	00H
	DW	00H
	DW	00H
	DW	00H
	DW	00H
	DW	00H
	DW	00H
	DW	00H
	DW	00H
	DW	00H
	DW	00H
	DW	00H
	DW	00H
	DW	00H
	DW	00H
	DW	00H
	DW	00H
	DW	00H
	DW	00H
	DW	00H
	DW	00H
	DW	00H
	DW	00H
	DW	00H
	DW	00H
	DW	00H
	DW	00H
	DW	00H
	DW	00H
	DW	00H
	DW	00H
	DW	00H
	DW	00H
	DW	00H
	DW	00H
	DW	00H
	DW	00H
	DW	00H
	DW	00H
	DW	00H
	DW	00H
	DW	00H
	DW	00H
	DW	00H
	DW	00H
	DW	00H
	DW	00H
	DW	00H
	DW	00H
	DW	00H
	DW	00H
	DW	00H
	DW	00H
	DW	00H
	DW	00H
	DW	00H
	DW	00H
	DW	00H
	DW	00H
	DW	00H
	DW	00H
	DW	00H
	DW	00H
	DW	00H
	DW	00H
	DW	00H
	DW	00H
	DW	00H
	DW	00H
	DW	00H
	DW	00H
	DW	00H
	DW	00H
	DW	00H
	DW	00H
	DW	00H
	DW	00H
	DW	00H
	DW	00H
	DW	00H
	DW	00H
	DW	00H
	DW	00H
	DW	00H
	DW	00H
	DW	00H
	DW	00H
	DW	00H
	DW	00H
	DW	00H
	DW	00H
	DW	00H
	DW	00H
	DW	00H
	DW	00H
	DW	00H
	DW	00H
	DW	00H
	DW	00H
	DW	00H
	DW	00H
	DW	00H
	DW	00H
	DW	00H
	DW	00H
	DW	00H
	DW	00H
	DW	00H
	DW	00H
	DW	00H
	DW	00H
	DW	00H
	DW	00H
	DW	00H
	DW	00H
	DW	00H
	DW	00H
	DW	00H
	DW	00H
	DW	00H
	DW	00H
	DW	00H
	DW	00H
	DW	00H
	DW	00H
	DW	00H
	DW	00H
	DW	00H
	DW	00H
	DW	00H
	DW	00H
	DW	00H
	DW	00H
	DW	00H
	DW	00H
	DW	00H
	DW	00H
	DW	00H
	DW	00H
	DW	00H
	DW	00H
	DW	00H
	DW	00H
	DW	00H
	DW	00H
	DW	00H
	DW	0820H
	DW	01040H
	DW	01c61H
	DW	02061H
	DW	02061H
	DW	02061H
	DW	01c61H
	DW	01c61H
	DW	01c61H
	DW	01c61H
	DW	01c61H
	DW	01c61H
	DW	01c61H
	DW	01c61H
	DW	01c61H
	DW	01c61H
	DW	01c61H
	DW	01c61H
	DW	02060H
	DW	02060H
	DW	02060H
	DW	02060H
	DW	02060H
	DW	02481H
	DW	02481H
	DW	02881H
	DW	02c81H
	DW	02c81H
	DW	030a1H
	DW	034a1H
	DW	038a1H
	DW	03cc1H
	DW	040c1H
	DW	044c1H
	DW	048e1H
	DW	04ce1H
	DW	05101H
	DW	05501H
	DW	05901H
	DW	05d21H
	DW	06121H
	DW	06521H
	DW	06941H
	DW	06941H
	DW	06d41H
	DW	06d41H
	DW	07141H
	DW	07161H
	DW	07561H
	DW	07561H
	DW	07561H
	DW	07961H
	DW	07961H
	DW	07961H
	DW	07961H
	DW	07961H
	DW	07961H
	DW	07961H
	DW	07961H
	DW	07961H
	DW	07961H
	DW	07961H
	DW	07961H
	DW	07961H
	DW	07941H
	DW	07941H
	DW	07941H
	DW	07941H
	DW	07941H
	DW	07941H
	DW	07941H
	DW	07941H
	DW	07941H
	DW	07941H
	DW	07941H
	DW	07941H
	DW	07941H
	DW	07941H
	DW	07941H
	DW	07941H
	DW	07941H
	DW	07941H
	DW	07941H
	DW	07941H
	DW	07941H
	DW	07941H
	DW	07921H
	DW	07921H
	DW	07921H
	DW	07921H
	DW	07921H
	DW	07921H
	DW	07921H
	DW	07921H
	DW	07921H
	DW	07521H
	DW	07521H
	DW	07521H
	DW	07521H
	DW	07521H
	DW	07521H
	DW	07521H
	DW	07521H
	DW	07521H
	DW	07521H
	DW	07521H
	DW	07521H
	DW	07521H
	DW	07501H
	DW	07501H
	DW	07501H
	DW	07501H
	DW	07501H
	DW	07501H
	DW	07501H
	DW	07501H
	DW	07501H
	DW	07501H
	DW	07501H
	DW	07501H
	DW	07501H
	DW	07501H
	DW	07501H
	DW	07501H
	DW	07501H
	DW	07501H
	DW	07501H
	DW	07501H
	DW	07501H
	DW	07501H
	DW	07501H
	DW	074e1H
	DW	074e1H
	DW	074e1H
	DW	074e1H
	DW	074e1H
	DW	074e1H
	DW	074e1H
	DW	074e1H
	DW	074e1H
	DW	074e1H
	DW	074e1H
	DW	074e1H
	DW	074e1H
	DW	074e1H
	DW	074e1H
	DW	074e1H
	DW	074e1H
	DW	074e1H
	DW	074e1H
	DW	074e1H
	DW	070e1H
	DW	070e1H
	DW	070e1H
	DW	070e1H
	DW	070c1H
	DW	070c1H
	DW	070c1H
	DW	070c1H
	DW	070c1H
	DW	070c1H
	DW	070c1H
	DW	070c1H
	DW	070c1H
	DW	070c1H
	DW	070c1H
	DW	070c1H
	DW	070c1H
	DW	070c1H
	DW	070c1H
	DW	070c1H
	DW	070c1H
	DW	070c1H
	DW	070c1H
	DW	070c1H
	DW	070c1H
	DW	070c1H
	DW	070c1H
	DW	070c1H
	DW	078c1H
	DW	03860H
	DW	00H
	DW	00H
	DW	00H
	DW	00H
	DW	00H
	DW	00H
	DW	00H
	DW	00H
	DW	00H
	DW	00H
	DW	00H
	DW	00H
	DW	00H
	DW	00H
	DW	00H
	DW	00H
	DW	00H
	DW	00H
	DW	00H
	DW	00H
	DW	00H
	DW	00H
	DW	00H
	DW	00H
	DW	00H
	DW	00H
	DW	00H
	DW	00H
	DW	00H
	DW	00H
	DW	00H
	DW	00H
	DW	00H
	DW	00H
	DW	00H
	DW	00H
	DW	00H
	DW	00H
	DW	00H
	DW	00H
	DW	00H
	DW	00H
	DW	00H
	DW	00H
	DW	00H
	DW	00H
	DW	00H
	DW	00H
	DW	00H
	DW	00H
	DW	00H
	DW	00H
	DW	00H
	DW	00H
	DW	00H
	DW	00H
	DW	00H
	DW	00H
	DW	00H
	DW	00H
	DW	00H
	DW	00H
	DW	00H
	DW	00H
	DW	00H
	DW	00H
	DW	00H
	DW	00H
	DW	00H
	DW	00H
	DW	00H
	DW	00H
	DW	00H
	DW	00H
	DW	00H
	DW	00H
	DW	00H
	DW	00H
	DW	00H
	DW	00H
	DW	00H
	DW	00H
	DW	00H
	DW	00H
	DW	00H
	DW	00H
	DW	00H
	DW	00H
	DW	00H
	DW	00H
	DW	00H
	DW	00H
	DW	00H
	DW	00H
	DW	00H
	DW	00H
	DW	00H
	DW	00H
	DW	00H
	DW	00H
	DW	00H
	DW	00H
	DW	00H
	DW	00H
	DW	00H
	DW	00H
	DW	00H
	DW	00H
	DW	00H
	DW	00H
	DW	00H
	DW	00H
	DW	00H
	DW	00H
	DW	00H
	DW	00H
	DW	00H
	DW	00H
	DW	00H
	DW	00H
	DW	00H
	DW	00H
	DW	00H
	DW	00H
	DW	00H
	DW	00H
	DW	00H
	DW	00H
	DW	00H
	DW	00H
	DW	00H
	DW	00H
	DW	00H
	DW	00H
	DW	00H
	DW	00H
	DW	00H
	DW	00H
	DW	00H
	DW	00H
	DW	00H
	DW	00H
	DW	00H
	DW	00H
	DW	00H
	DW	00H
	DW	00H
	DW	00H
	DW	00H
	DW	00H
	DW	00H
	DW	00H
	DW	00H
	DW	00H
	DW	00H
	DW	00H
	DW	00H
	DW	00H
	DW	00H
	DW	00H
	DW	00H
	DW	00H
	DW	00H
	DW	00H
	DW	00H
	DW	00H
	DW	00H
	DW	00H
	DW	00H
	DW	00H
	DW	00H
	DW	00H
	DW	00H
	DW	00H
	DW	00H
	DW	00H
	DW	00H
	DW	00H
	DW	00H
	DW	00H
	DW	00H
	DW	00H
	DW	00H
	DW	00H
	DW	00H
	DW	00H
	DW	00H
	DW	00H
	DW	00H
	DW	00H
	DW	00H
	DW	00H
	DW	00H
	DW	00H
	DW	00H
	DW	00H
	DW	00H
	DW	00H
	DW	00H
	DW	00H
	DW	00H
	DW	00H
	DW	00H
	DW	00H
	DW	00H
	DW	00H
	DW	00H
	DW	00H
	DW	00H
	DW	00H
	DW	00H
	DW	00H
	DW	00H
	DW	00H
	DW	00H
	DW	00H
	DW	00H
	DW	00H
	DW	00H
	DW	00H
	DW	00H
	DW	00H
	DW	00H
	DW	00H
	DW	00H
	DW	00H
	DW	00H
	DW	00H
	DW	00H
	DW	00H
	DW	00H
	DW	00H
	DW	00H
	DW	00H
	DW	00H
	DW	00H
	DW	00H
	DW	00H
	DW	00H
	DW	00H
	DW	00H
	DW	00H
	DW	00H
	DW	00H
	DW	00H
	DW	00H
	DW	00H
	DW	00H
	DW	00H
	DW	00H
	DW	00H
	DW	00H
	DW	00H
	DW	00H
	DW	00H
	DW	00H
	DW	00H
	DW	00H
	DW	00H
	DW	00H
	DW	00H
	DW	00H
	DW	00H
	DW	00H
	DW	00H
	DW	00H
	DW	00H
	DW	00H
	DW	00H
	DW	00H
	DW	00H
	DW	00H
	DW	00H
	DW	00H
	DW	00H
	DW	00H
	DW	00H
	DW	00H
	DW	00H
	DW	00H
	DW	00H
	DW	00H
	DW	00H
	DW	00H
	DW	00H
	DW	00H
	DW	00H
	DW	00H
	DW	00H
	DW	00H
	DW	00H
	DW	00H
	DW	00H
	DW	00H
	DW	00H
	DW	00H
	DW	0820H
	DW	01440H
	DW	01c61H
	DW	02061H
	DW	02061H
	DW	02061H
	DW	01c61H
	DW	01c61H
	DW	01c61H
	DW	01c61H
	DW	01c61H
	DW	01c61H
	DW	01c61H
	DW	01c61H
	DW	01c61H
	DW	01c61H
	DW	01c61H
	DW	01c61H
	DW	02061H
	DW	02061H
	DW	02061H
	DW	02061H
	DW	02481H
	DW	02481H
	DW	02881H
	DW	02881H
	DW	02c81H
	DW	030a1H
	DW	034a1H
	DW	038a1H
	DW	03cc1H
	DW	040c1H
	DW	044e1H
	DW	048e1H
	DW	04ce1H
	DW	05101H
	DW	05501H
	DW	05921H
	DW	05d21H
	DW	06121H
	DW	06521H
	DW	06941H
	DW	06942H
	DW	06d42H
	DW	07142H
	DW	07162H
	DW	07562H
	DW	07562H
	DW	07562H
	DW	07561H
	DW	07961H
	DW	07961H
	DW	07961H
	DW	07961H
	DW	07961H
	DW	07961H
	DW	07961H
	DW	07961H
	DW	07961H
	DW	07961H
	DW	07961H
	DW	07961H
	DW	07961H
	DW	07961H
	DW	07961H
	DW	07941H
	DW	07941H
	DW	07941H
	DW	07941H
	DW	07941H
	DW	07941H
	DW	07941H
	DW	07941H
	DW	07941H
	DW	07941H
	DW	07941H
	DW	07941H
	DW	07941H
	DW	07941H
	DW	07941H
	DW	07941H
	DW	07941H
	DW	07941H
	DW	07941H
	DW	07941H
	DW	07941H
	DW	07941H
	DW	07921H
	DW	07921H
	DW	07921H
	DW	07921H
	DW	07921H
	DW	07921H
	DW	07921H
	DW	07921H
	DW	07921H
	DW	07521H
	DW	07521H
	DW	07521H
	DW	07521H
	DW	07521H
	DW	07521H
	DW	07521H
	DW	07521H
	DW	07521H
	DW	07521H
	DW	07521H
	DW	07521H
	DW	07521H
	DW	07501H
	DW	07501H
	DW	07501H
	DW	07501H
	DW	07501H
	DW	07501H
	DW	07501H
	DW	07501H
	DW	07501H
	DW	07501H
	DW	07501H
	DW	07501H
	DW	07501H
	DW	07501H
	DW	07501H
	DW	07501H
	DW	07501H
	DW	07501H
	DW	07501H
	DW	07501H
	DW	07501H
	DW	07501H
	DW	07501H
	DW	07501H
	DW	074e1H
	DW	074e1H
	DW	074e1H
	DW	074e1H
	DW	074e1H
	DW	074e1H
	DW	074e1H
	DW	074e1H
	DW	074e1H
	DW	074e1H
	DW	074e1H
	DW	074e1H
	DW	074e1H
	DW	074e1H
	DW	074e1H
	DW	074e1H
	DW	074e1H
	DW	074e1H
	DW	074e1H
	DW	070e1H
	DW	070e1H
	DW	070e1H
	DW	070e1H
	DW	070c1H
	DW	070c1H
	DW	070c1H
	DW	070c1H
	DW	070c1H
	DW	070c1H
	DW	070c1H
	DW	070c1H
	DW	070c1H
	DW	070c1H
	DW	070c1H
	DW	070c1H
	DW	070c1H
	DW	070c1H
	DW	070c1H
	DW	070c1H
	DW	070c1H
	DW	070c1H
	DW	070c1H
	DW	070c1H
	DW	070c1H
	DW	070c1H
	DW	070c1H
	DW	070c1H
	DW	070c1H
	DW	070a1H
	DW	078c1H
	DW	03860H
	DW	00H
	DW	00H
	DW	00H
	DW	00H
	DW	00H
	DW	00H
	DW	00H
	DW	00H
	DW	00H
	DW	00H
	DW	00H
	DW	00H
	DW	00H
	DW	00H
	DW	00H
	DW	00H
	DW	00H
	DW	00H
	DW	00H
	DW	00H
	DW	00H
	DW	00H
	DW	00H
	DW	00H
	DW	00H
	DW	00H
	DW	00H
	DW	00H
	DW	00H
	DW	00H
	DW	00H
	DW	00H
	DW	00H
	DW	00H
	DW	00H
	DW	00H
	DW	00H
	DW	00H
	DW	00H
	DW	00H
	DW	00H
	DW	00H
	DW	00H
	DW	00H
	DW	00H
	DW	00H
	DW	00H
	DW	00H
	DW	00H
	DW	00H
	DW	00H
	DW	00H
	DW	00H
	DW	00H
	DW	00H
	DW	00H
	DW	00H
	DW	00H
	DW	00H
	DW	00H
	DW	00H
	DW	00H
	DW	00H
	DW	00H
	DW	00H
	DW	00H
	DW	00H
	DW	00H
	DW	00H
	DW	00H
	DW	00H
	DW	00H
	DW	00H
	DW	00H
	DW	00H
	DW	00H
	DW	00H
	DW	00H
	DW	00H
	DW	00H
	DW	00H
	DW	00H
	DW	00H
	DW	00H
	DW	00H
	DW	00H
	DW	00H
	DW	00H
	DW	00H
	DW	00H
	DW	00H
	DW	00H
	DW	00H
	DW	00H
	DW	00H
	DW	00H
	DW	00H
	DW	00H
	DW	00H
	DW	00H
	DW	00H
	DW	00H
	DW	00H
	DW	00H
	DW	00H
	DW	00H
	DW	00H
	DW	00H
	DW	00H
	DW	00H
	DW	00H
	DW	00H
	DW	00H
	DW	00H
	DW	00H
	DW	00H
	DW	00H
	DW	00H
	DW	00H
	DW	00H
	DW	00H
	DW	00H
	DW	00H
	DW	00H
	DW	00H
	DW	00H
	DW	00H
	DW	00H
	DW	00H
	DW	00H
	DW	00H
	DW	00H
	DW	00H
	DW	00H
	DW	00H
	DW	00H
	DW	00H
	DW	00H
	DW	00H
	DW	00H
	DW	00H
	DW	00H
	DW	00H
	DW	00H
	DW	00H
	DW	00H
	DW	00H
	DW	00H
	DW	00H
	DW	00H
	DW	00H
	DW	00H
	DW	00H
	DW	00H
	DW	00H
	DW	00H
	DW	00H
	DW	00H
	DW	00H
	DW	00H
	DW	00H
	DW	00H
	DW	00H
	DW	00H
	DW	00H
	DW	00H
	DW	00H
	DW	00H
	DW	00H
	DW	00H
	DW	00H
	DW	00H
	DW	00H
	DW	00H
	DW	00H
	DW	00H
	DW	00H
	DW	00H
	DW	00H
	DW	00H
	DW	00H
	DW	00H
	DW	00H
	DW	00H
	DW	00H
	DW	00H
	DW	00H
	DW	00H
	DW	00H
	DW	00H
	DW	00H
	DW	00H
	DW	00H
	DW	00H
	DW	00H
	DW	00H
	DW	00H
	DW	00H
	DW	00H
	DW	00H
	DW	00H
	DW	00H
	DW	00H
	DW	00H
	DW	00H
	DW	00H
	DW	00H
	DW	00H
	DW	00H
	DW	00H
	DW	00H
	DW	00H
	DW	00H
	DW	00H
	DW	00H
	DW	00H
	DW	00H
	DW	00H
	DW	00H
	DW	00H
	DW	00H
	DW	00H
	DW	00H
	DW	00H
	DW	00H
	DW	00H
	DW	00H
	DW	00H
	DW	00H
	DW	00H
	DW	00H
	DW	00H
	DW	00H
	DW	00H
	DW	00H
	DW	00H
	DW	00H
	DW	00H
	DW	00H
	DW	00H
	DW	00H
	DW	00H
	DW	00H
	DW	00H
	DW	00H
	DW	00H
	DW	00H
	DW	00H
	DW	00H
	DW	00H
	DW	00H
	DW	00H
	DW	00H
	DW	00H
	DW	00H
	DW	00H
	DW	00H
	DW	00H
	DW	00H
	DW	00H
	DW	00H
	DW	00H
	DW	00H
	DW	00H
	DW	00H
	DW	00H
	DW	00H
	DW	00H
	DW	00H
	DW	00H
	DW	00H
	DW	00H
	DW	00H
	DW	00H
	DW	00H
	DW	00H
	DW	00H
	DW	00H
	DW	00H
	DW	00H
	DW	00H
	DW	00H
	DW	00H
	DW	00H
	DW	00H
	DW	00H
	DW	00H
	DW	00H
	DW	00H
	DW	00H
	DW	00H
	DW	00H
	DW	00H
	DW	0c20H
	DW	01441H
	DW	01c61H
	DW	02081H
	DW	02061H
	DW	02061H
	DW	02061H
	DW	01c61H
	DW	01c61H
	DW	01c61H
	DW	01c61H
	DW	01c61H
	DW	01c61H
	DW	01c61H
	DW	01c61H
	DW	01c61H
	DW	01c61H
	DW	02061H
	DW	02061H
	DW	02061H
	DW	02061H
	DW	02481H
	DW	02481H
	DW	02881H
	DW	02881H
	DW	02c81H
	DW	030a1H
	DW	034a1H
	DW	038a1H
	DW	038c1H
	DW	040c1H
	DW	044c1H
	DW	048e1H
	DW	04ce1H
	DW	05101H
	DW	05501H
	DW	05921H
	DW	05d22H
	DW	06122H
	DW	06542H
	DW	06942H
	DW	06d42H
	DW	06d42H
	DW	07162H
	DW	07162H
	DW	07562H
	DW	07562H
	DW	07562H
	DW	07962H
	DW	07962H
	DW	07962H
	DW	07962H
	DW	07961H
	DW	07961H
	DW	07961H
	DW	07961H
	DW	07961H
	DW	07961H
	DW	07961H
	DW	07961H
	DW	07961H
	DW	07961H
	DW	07961H
	DW	07961H
	DW	07961H
	DW	07961H
	DW	07941H
	DW	07941H
	DW	07941H
	DW	07941H
	DW	07941H
	DW	07941H
	DW	07941H
	DW	07941H
	DW	07941H
	DW	07941H
	DW	07941H
	DW	07941H
	DW	07941H
	DW	07941H
	DW	07941H
	DW	07941H
	DW	07941H
	DW	07941H
	DW	07941H
	DW	07941H
	DW	07941H
	DW	07941H
	DW	07921H
	DW	07921H
	DW	07921H
	DW	07921H
	DW	07921H
	DW	07921H
	DW	07921H
	DW	07921H
	DW	07921H
	DW	07521H
	DW	07521H
	DW	07521H
	DW	07521H
	DW	07521H
	DW	07521H
	DW	07521H
	DW	07521H
	DW	07521H
	DW	07521H
	DW	07521H
	DW	07521H
	DW	07521H
	DW	07501H
	DW	07501H
	DW	07501H
	DW	07501H
	DW	07501H
	DW	07501H
	DW	07501H
	DW	07501H
	DW	07501H
	DW	07501H
	DW	07501H
	DW	07501H
	DW	07501H
	DW	07501H
	DW	07501H
	DW	07501H
	DW	07501H
	DW	07501H
	DW	07501H
	DW	07501H
	DW	07501H
	DW	07501H
	DW	07501H
	DW	07501H
	DW	074e1H
	DW	074e1H
	DW	074e1H
	DW	074e1H
	DW	074e1H
	DW	074e1H
	DW	074e1H
	DW	074e1H
	DW	074e1H
	DW	074e1H
	DW	074e1H
	DW	074e1H
	DW	074e1H
	DW	074e1H
	DW	074e1H
	DW	074e1H
	DW	074e1H
	DW	074e1H
	DW	074e1H
	DW	070e1H
	DW	070e1H
	DW	070e1H
	DW	070e1H
	DW	070e1H
	DW	070c1H
	DW	070c1H
	DW	070c1H
	DW	070c1H
	DW	070c1H
	DW	070c1H
	DW	070c1H
	DW	070c1H
	DW	070c1H
	DW	070c1H
	DW	070c1H
	DW	070c1H
	DW	070c1H
	DW	070c1H
	DW	070c1H
	DW	070c1H
	DW	070c1H
	DW	070c1H
	DW	070c1H
	DW	070c1H
	DW	070c1H
	DW	070c1H
	DW	070c1H
	DW	070c1H
	DW	070a1H
	DW	070a1H
	DW	070a1H
	DW	078c1H
	DW	03840H
	DW	00H
	DW	00H
	DW	00H
	DW	00H
	DW	00H
	DW	00H
	DW	00H
	DW	00H
	DW	00H
	DW	00H
	DW	00H
	DW	00H
	DW	00H
	DW	00H
	DW	00H
	DW	00H
	DW	00H
	DW	00H
	DW	00H
	DW	00H
	DW	00H
	DW	00H
	DW	00H
	DW	00H
	DW	00H
	DW	00H
	DW	00H
	DW	00H
	DW	00H
	DW	00H
	DW	00H
	DW	00H
	DW	00H
	DW	00H
	DW	00H
	DW	00H
	DW	00H
	DW	00H
	DW	00H
	DW	00H
	DW	00H
	DW	00H
	DW	00H
	DW	00H
	DW	00H
	DW	00H
	DW	00H
	DW	00H
	DW	00H
	DW	00H
	DW	00H
	DW	00H
	DW	00H
	DW	00H
	DW	00H
	DW	00H
	DW	00H
	DW	00H
	DW	00H
	DW	00H
	DW	00H
	DW	00H
	DW	00H
	DW	00H
	DW	00H
	DW	00H
	DW	00H
	DW	00H
	DW	00H
	DW	00H
	DW	00H
	DW	00H
	DW	00H
	DW	00H
	DW	00H
	DW	00H
	DW	00H
	DW	00H
	DW	00H
	DW	00H
	DW	00H
	DW	00H
	DW	00H
	DW	00H
	DW	00H
	DW	00H
	DW	00H
	DW	00H
	DW	00H
	DW	00H
	DW	00H
	DW	00H
	DW	00H
	DW	00H
	DW	00H
	DW	00H
	DW	00H
	DW	00H
	DW	00H
	DW	00H
	DW	00H
	DW	00H
	DW	00H
	DW	00H
	DW	00H
	DW	00H
	DW	00H
	DW	00H
	DW	00H
	DW	00H
	DW	00H
	DW	00H
	DW	00H
	DW	00H
	DW	00H
	DW	00H
	DW	00H
	DW	00H
	DW	00H
	DW	00H
	DW	00H
	DW	00H
	DW	00H
	DW	00H
	DW	00H
	DW	00H
	DW	00H
	DW	00H
	DW	00H
	DW	00H
	DW	00H
	DW	00H
	DW	00H
	DW	00H
	DW	00H
	DW	00H
	DW	00H
	DW	00H
	DW	00H
	DW	00H
	DW	00H
	DW	00H
	DW	00H
	DW	00H
	DW	00H
	DW	00H
	DW	00H
	DW	00H
	DW	00H
	DW	00H
	DW	00H
	DW	00H
	DW	00H
	DW	00H
	DW	00H
	DW	00H
	DW	00H
	DW	00H
	DW	00H
	DW	00H
	DW	00H
	DW	00H
	DW	00H
	DW	00H
	DW	00H
	DW	00H
	DW	00H
	DW	00H
	DW	00H
	DW	00H
	DW	00H
	DW	00H
	DW	00H
	DW	00H
	DW	00H
	DW	00H
	DW	00H
	DW	00H
	DW	00H
	DW	00H
	DW	00H
	DW	00H
	DW	00H
	DW	00H
	DW	00H
	DW	00H
	DW	00H
	DW	00H
	DW	00H
	DW	00H
	DW	00H
	DW	00H
	DW	00H
	DW	00H
	DW	00H
	DW	00H
	DW	00H
	DW	00H
	DW	00H
	DW	00H
	DW	00H
	DW	00H
	DW	00H
	DW	00H
	DW	00H
	DW	00H
	DW	00H
	DW	00H
	DW	00H
	DW	00H
	DW	00H
	DW	00H
	DW	00H
	DW	00H
	DW	00H
	DW	00H
	DW	00H
	DW	00H
	DW	00H
	DW	00H
	DW	00H
	DW	00H
	DW	00H
	DW	00H
	DW	00H
	DW	00H
	DW	00H
	DW	00H
	DW	00H
	DW	00H
	DW	00H
	DW	00H
	DW	00H
	DW	00H
	DW	00H
	DW	00H
	DW	00H
	DW	00H
	DW	00H
	DW	00H
	DW	00H
	DW	00H
	DW	00H
	DW	00H
	DW	00H
	DW	00H
	DW	00H
	DW	00H
	DW	00H
	DW	00H
	DW	00H
	DW	00H
	DW	00H
	DW	00H
	DW	00H
	DW	00H
	DW	00H
	DW	00H
	DW	00H
	DW	00H
	DW	00H
	DW	00H
	DW	00H
	DW	00H
	DW	00H
	DW	00H
	DW	00H
	DW	00H
	DW	00H
	DW	00H
	DW	00H
	DW	00H
	DW	00H
	DW	00H
	DW	00H
	DW	00H
	DW	00H
	DW	00H
	DW	00H
	DW	00H
	DW	00H
	DW	00H
	DW	00H
	DW	00H
	DW	00H
	DW	00H
	DW	00H
	DW	00H
	DW	00H
	DW	0400H
	DW	0c20H
	DW	01441H
	DW	01c61H
	DW	02061H
	DW	02081H
	DW	02061H
	DW	01c61H
	DW	01c61H
	DW	01c61H
	DW	01c61H
	DW	01c61H
	DW	01c61H
	DW	01c61H
	DW	01c61H
	DW	01c61H
	DW	01c61H
	DW	01c61H
	DW	02061H
	DW	02061H
	DW	02061H
	DW	02061H
	DW	02481H
	DW	02481H
	DW	02881H
	DW	02c81H
	DW	02ca1H
	DW	030a1H
	DW	034a1H
	DW	038c1H
	DW	03cc1H
	DW	040c1H
	DW	044e1H
	DW	04ce1H
	DW	05101H
	DW	05501H
	DW	05921H
	DW	05d22H
	DW	06122H
	DW	06542H
	DW	06942H
	DW	06d42H
	DW	06d42H
	DW	07162H
	DW	07162H
	DW	07562H
	DW	07562H
	DW	07562H
	DW	07962H
	DW	07962H
	DW	07962H
	DW	07962H
	DW	07962H
	DW	07962H
	DW	07962H
	DW	07961H
	DW	07961H
	DW	07961H
	DW	07961H
	DW	07961H
	DW	07961H
	DW	07961H
	DW	07961H
	DW	07961H
	DW	07961H
	DW	07961H
	DW	07961H
	DW	07961H
	DW	07961H
	DW	07941H
	DW	07941H
	DW	07941H
	DW	07941H
	DW	07941H
	DW	07941H
	DW	07941H
	DW	07941H
	DW	07941H
	DW	07941H
	DW	07941H
	DW	07941H
	DW	07941H
	DW	07941H
	DW	07941H
	DW	07941H
	DW	07941H
	DW	07941H
	DW	07941H
	DW	07941H
	DW	07941H
	DW	07941H
	DW	07941H
	DW	07921H
	DW	07921H
	DW	07921H
	DW	07921H
	DW	07921H
	DW	07921H
	DW	07921H
	DW	07921H
	DW	07921H
	DW	07521H
	DW	07521H
	DW	07521H
	DW	07521H
	DW	07521H
	DW	07521H
	DW	07521H
	DW	07521H
	DW	07521H
	DW	07521H
	DW	07521H
	DW	07521H
	DW	07521H
	DW	07501H
	DW	07501H
	DW	07501H
	DW	07501H
	DW	07501H
	DW	07501H
	DW	07501H
	DW	07501H
	DW	07501H
	DW	07501H
	DW	07501H
	DW	07501H
	DW	07501H
	DW	07501H
	DW	07501H
	DW	07501H
	DW	07501H
	DW	07501H
	DW	07501H
	DW	07501H
	DW	07501H
	DW	07501H
	DW	07501H
	DW	074e1H
	DW	074e1H
	DW	074e1H
	DW	074e1H
	DW	074e1H
	DW	074e1H
	DW	074e1H
	DW	074e1H
	DW	074e1H
	DW	074e1H
	DW	074e1H
	DW	074e1H
	DW	074e1H
	DW	074e1H
	DW	074e1H
	DW	074e1H
	DW	074e1H
	DW	074e1H
	DW	074e1H
	DW	070e1H
	DW	070e1H
	DW	070e1H
	DW	070e1H
	DW	070e1H
	DW	070c1H
	DW	070c1H
	DW	070c1H
	DW	070c1H
	DW	070c1H
	DW	070c1H
	DW	070c1H
	DW	070c1H
	DW	070c1H
	DW	070c1H
	DW	070c1H
	DW	070c1H
	DW	070c1H
	DW	070c1H
	DW	070c1H
	DW	070c1H
	DW	070c1H
	DW	070c1H
	DW	070c1H
	DW	070c1H
	DW	070c1H
	DW	070c1H
	DW	070c1H
	DW	070c1H
	DW	070a1H
	DW	070a1H
	DW	070a1H
	DW	070a1H
	DW	078c1H
	DW	03840H
	DW	00H
	DW	00H
	DW	00H
	DW	00H
	DW	00H
	DW	00H
	DW	00H
	DW	00H
	DW	00H
	DW	00H
	DW	00H
	DW	00H
	DW	00H
	DW	00H
	DW	00H
	DW	00H
	DW	00H
	DW	00H
	DW	00H
	DW	00H
	DW	00H
	DW	00H
	DW	00H
	DW	00H
	DW	00H
	DW	00H
	DW	00H
	DW	00H
	DW	00H
	DW	00H
	DW	00H
	DW	00H
	DW	00H
	DW	00H
	DW	00H
	DW	00H
	DW	00H
	DW	00H
	DW	00H
	DW	00H
	DW	00H
	DW	00H
	DW	00H
	DW	00H
	DW	00H
	DW	00H
	DW	00H
	DW	00H
	DW	00H
	DW	00H
	DW	00H
	DW	00H
	DW	00H
	DW	00H
	DW	00H
	DW	00H
	DW	00H
	DW	00H
	DW	00H
	DW	00H
	DW	00H
	DW	00H
	DW	00H
	DW	00H
	DW	00H
	DW	00H
	DW	00H
	DW	00H
	DW	00H
	DW	00H
	DW	00H
	DW	00H
	DW	00H
	DW	00H
	DW	00H
	DW	00H
	DW	00H
	DW	00H
	DW	00H
	DW	00H
	DW	00H
	DW	00H
	DW	00H
	DW	00H
	DW	00H
	DW	00H
	DW	00H
	DW	00H
	DW	00H
	DW	00H
	DW	00H
	DW	00H
	DW	00H
	DW	00H
	DW	00H
	DW	00H
	DW	00H
	DW	00H
	DW	00H
	DW	00H
	DW	00H
	DW	00H
	DW	00H
	DW	00H
	DW	00H
	DW	00H
	DW	00H
	DW	00H
	DW	00H
	DW	00H
	DW	00H
	DW	00H
	DW	00H
	DW	00H
	DW	00H
	DW	00H
	DW	00H
	DW	00H
	DW	00H
	DW	00H
	DW	00H
	DW	00H
	DW	00H
	DW	00H
	DW	00H
	DW	00H
	DW	00H
	DW	00H
	DW	00H
	DW	00H
	DW	00H
	DW	00H
	DW	00H
	DW	00H
	DW	00H
	DW	00H
	DW	00H
	DW	00H
	DW	00H
	DW	00H
	DW	00H
	DW	00H
	DW	00H
	DW	00H
	DW	00H
	DW	00H
	DW	00H
	DW	00H
	DW	00H
	DW	00H
	DW	00H
	DW	00H
	DW	00H
	DW	00H
	DW	00H
	DW	00H
	DW	00H
	DW	00H
	DW	00H
	DW	00H
	DW	00H
	DW	00H
	DW	00H
	DW	00H
	DW	00H
	DW	00H
	DW	00H
	DW	00H
	DW	00H
	DW	00H
	DW	00H
	DW	00H
	DW	00H
	DW	00H
	DW	00H
	DW	00H
	DW	00H
	DW	00H
	DW	00H
	DW	00H
	DW	00H
	DW	00H
	DW	00H
	DW	00H
	DW	00H
	DW	00H
	DW	00H
	DW	00H
	DW	00H
	DW	00H
	DW	00H
	DW	00H
	DW	00H
	DW	00H
	DW	00H
	DW	00H
	DW	00H
	DW	00H
	DW	00H
	DW	00H
	DW	00H
	DW	00H
	DW	00H
	DW	00H
	DW	00H
	DW	00H
	DW	00H
	DW	00H
	DW	00H
	DW	00H
	DW	00H
	DW	00H
	DW	00H
	DW	00H
	DW	00H
	DW	00H
	DW	00H
	DW	00H
	DW	00H
	DW	00H
	DW	00H
	DW	00H
	DW	00H
	DW	00H
	DW	00H
	DW	00H
	DW	00H
	DW	00H
	DW	00H
	DW	00H
	DW	00H
	DW	00H
	DW	00H
	DW	00H
	DW	00H
	DW	00H
	DW	00H
	DW	00H
	DW	00H
	DW	00H
	DW	00H
	DW	00H
	DW	00H
	DW	00H
	DW	00H
	DW	00H
	DW	00H
	DW	00H
	DW	00H
	DW	00H
	DW	00H
	DW	00H
	DW	00H
	DW	00H
	DW	00H
	DW	00H
	DW	00H
	DW	00H
	DW	00H
	DW	00H
	DW	00H
	DW	00H
	DW	00H
	DW	00H
	DW	00H
	DW	00H
	DW	00H
	DW	00H
	DW	00H
	DW	00H
	DW	00H
	DW	00H
	DW	00H
	DW	00H
	DW	00H
	DW	00H
	DW	00H
	DW	00H
	DW	00H
	DW	00H
	DW	00H
	DW	00H
	DW	00H
	DW	00H
	DW	00H
	DW	00H
	DW	0400H
	DW	0820H
	DW	01441H
	DW	01c61H
	DW	02081H
	DW	02081H
	DW	02061H
	DW	01c61H
	DW	01c61H
	DW	01c61H
	DW	01c61H
	DW	01c61H
	DW	01c61H
	DW	01c61H
	DW	01c61H
	DW	01c61H
	DW	01c61H
	DW	01c61H
	DW	02061H
	DW	02061H
	DW	02061H
	DW	02061H
	DW	02481H
	DW	02481H
	DW	02881H
	DW	02c81H
	DW	030a1H
	DW	034a1H
	DW	038a1H
	DW	03cc1H
	DW	040c1H
	DW	044e1H
	DW	048e1H
	DW	04d01H
	DW	05502H
	DW	05922H
	DW	05d22H
	DW	06122H
	DW	06542H
	DW	06942H
	DW	06942H
	DW	06d62H
	DW	07162H
	DW	07162H
	DW	07562H
	DW	07562H
	DW	07562H
	DW	07962H
	DW	07962H
	DW	07962H
	DW	07962H
	DW	07962H
	DW	07962H
	DW	07962H
	DW	07962H
	DW	07962H
	DW	07961H
	DW	07961H
	DW	07961H
	DW	07961H
	DW	07961H
	DW	07961H
	DW	07961H
	DW	07961H
	DW	07961H
	DW	07961H
	DW	07961H
	DW	07961H
	DW	07961H
	DW	07961H
	DW	07961H
	DW	07941H
	DW	07941H
	DW	07941H
	DW	07941H
	DW	07941H
	DW	07941H
	DW	07941H
	DW	07941H
	DW	07941H
	DW	07941H
	DW	07941H
	DW	07941H
	DW	07941H
	DW	07941H
	DW	07941H
	DW	07941H
	DW	07941H
	DW	07941H
	DW	07941H
	DW	07941H
	DW	07941H
	DW	07941H
	DW	07921H
	DW	07921H
	DW	07921H
	DW	07921H
	DW	07921H
	DW	07921H
	DW	07921H
	DW	07921H
	DW	07921H
	DW	07521H
	DW	07521H
	DW	07521H
	DW	07521H
	DW	07521H
	DW	07521H
	DW	07521H
	DW	07521H
	DW	07521H
	DW	07521H
	DW	07521H
	DW	07521H
	DW	07521H
	DW	07501H
	DW	07501H
	DW	07501H
	DW	07501H
	DW	07501H
	DW	07501H
	DW	07501H
	DW	07501H
	DW	07501H
	DW	07501H
	DW	07501H
	DW	07501H
	DW	07501H
	DW	07501H
	DW	07501H
	DW	07501H
	DW	07501H
	DW	07501H
	DW	07501H
	DW	07501H
	DW	07501H
	DW	07501H
	DW	07501H
	DW	074e1H
	DW	074e1H
	DW	074e1H
	DW	074e1H
	DW	074e1H
	DW	074e1H
	DW	074e1H
	DW	074e1H
	DW	074e1H
	DW	074e1H
	DW	074e1H
	DW	074e1H
	DW	074e1H
	DW	074e1H
	DW	074e1H
	DW	074e1H
	DW	074e1H
	DW	074e1H
	DW	074e1H
	DW	074e1H
	DW	070e1H
	DW	070e1H
	DW	070e1H
	DW	070e1H
	DW	070c1H
	DW	070c1H
	DW	070c1H
	DW	070c1H
	DW	070c1H
	DW	070c1H
	DW	070c1H
	DW	070c1H
	DW	070c1H
	DW	070c1H
	DW	070c1H
	DW	070c1H
	DW	070c1H
	DW	070c1H
	DW	070c1H
	DW	070c1H
	DW	070c1H
	DW	070c1H
	DW	070c1H
	DW	070c1H
	DW	070c1H
	DW	070c1H
	DW	070c1H
	DW	070c1H
	DW	070a1H
	DW	070a1H
	DW	070a1H
	DW	070a1H
	DW	070a1H
	DW	070a1H
	DW	078c1H
	DW	03840H
	DW	00H
	DW	00H
	DW	00H
	DW	00H
	DW	00H
	DW	00H
	DW	00H
	DW	00H
	DW	00H
	DW	00H
	DW	00H
	DW	00H
	DW	00H
	DW	00H
	DW	00H
	DW	00H
	DW	00H
	DW	00H
	DW	00H
	DW	00H
	DW	00H
	DW	00H
	DW	00H
	DW	00H
	DW	00H
	DW	00H
	DW	00H
	DW	00H
	DW	00H
	DW	00H
	DW	00H
	DW	00H
	DW	00H
	DW	00H
	DW	00H
	DW	00H
	DW	00H
	DW	00H
	DW	00H
	DW	00H
	DW	00H
	DW	00H
	DW	00H
	DW	00H
	DW	00H
	DW	00H
	DW	00H
	DW	00H
	DW	00H
	DW	00H
	DW	00H
	DW	00H
	DW	00H
	DW	00H
	DW	00H
	DW	00H
	DW	00H
	DW	00H
	DW	00H
	DW	00H
	DW	00H
	DW	00H
	DW	00H
	DW	00H
	DW	00H
	DW	00H
	DW	00H
	DW	00H
	DW	00H
	DW	00H
	DW	00H
	DW	00H
	DW	00H
	DW	00H
	DW	00H
	DW	00H
	DW	00H
	DW	00H
	DW	00H
	DW	00H
	DW	00H
	DW	00H
	DW	00H
	DW	00H
	DW	00H
	DW	00H
	DW	00H
	DW	00H
	DW	00H
	DW	00H
	DW	00H
	DW	00H
	DW	00H
	DW	00H
	DW	00H
	DW	00H
	DW	00H
	DW	00H
	DW	00H
	DW	00H
	DW	00H
	DW	00H
	DW	00H
	DW	00H
	DW	00H
	DW	00H
	DW	00H
	DW	00H
	DW	00H
	DW	00H
	DW	00H
	DW	00H
	DW	00H
	DW	00H
	DW	00H
	DW	00H
	DW	00H
	DW	00H
	DW	00H
	DW	00H
	DW	00H
	DW	00H
	DW	00H
	DW	00H
	DW	00H
	DW	00H
	DW	00H
	DW	00H
	DW	00H
	DW	00H
	DW	00H
	DW	00H
	DW	00H
	DW	00H
	DW	00H
	DW	00H
	DW	00H
	DW	00H
	DW	00H
	DW	00H
	DW	00H
	DW	00H
	DW	00H
	DW	00H
	DW	00H
	DW	00H
	DW	00H
	DW	00H
	DW	00H
	DW	00H
	DW	00H
	DW	00H
	DW	00H
	DW	00H
	DW	00H
	DW	00H
	DW	00H
	DW	00H
	DW	00H
	DW	00H
	DW	00H
	DW	00H
	DW	00H
	DW	00H
	DW	00H
	DW	00H
	DW	00H
	DW	00H
	DW	00H
	DW	00H
	DW	00H
	DW	00H
	DW	00H
	DW	00H
	DW	00H
	DW	00H
	DW	00H
	DW	00H
	DW	00H
	DW	00H
	DW	00H
	DW	00H
	DW	00H
	DW	00H
	DW	00H
	DW	00H
	DW	00H
	DW	00H
	DW	00H
	DW	00H
	DW	00H
	DW	00H
	DW	00H
	DW	00H
	DW	00H
	DW	00H
	DW	00H
	DW	00H
	DW	00H
	DW	00H
	DW	00H
	DW	00H
	DW	00H
	DW	00H
	DW	00H
	DW	00H
	DW	00H
	DW	00H
	DW	00H
	DW	00H
	DW	00H
	DW	00H
	DW	00H
	DW	00H
	DW	00H
	DW	00H
	DW	00H
	DW	00H
	DW	00H
	DW	00H
	DW	00H
	DW	00H
	DW	00H
	DW	00H
	DW	00H
	DW	00H
	DW	00H
	DW	00H
	DW	00H
	DW	00H
	DW	00H
	DW	00H
	DW	00H
	DW	00H
	DW	00H
	DW	00H
	DW	00H
	DW	00H
	DW	00H
	DW	00H
	DW	00H
	DW	00H
	DW	00H
	DW	00H
	DW	00H
	DW	00H
	DW	00H
	DW	00H
	DW	00H
	DW	00H
	DW	00H
	DW	00H
	DW	00H
	DW	00H
	DW	00H
	DW	00H
	DW	00H
	DW	00H
	DW	00H
	DW	00H
	DW	00H
	DW	00H
	DW	00H
	DW	00H
	DW	00H
	DW	00H
	DW	00H
	DW	00H
	DW	00H
	DW	00H
	DW	00H
	DW	00H
	DW	00H
	DW	00H
	DW	00H
	DW	00H
	DW	00H
	DW	00H
	DW	00H
	DW	00H
	DW	00H
	DW	00H
	DW	00H
	DW	00H
	DW	0820H
	DW	01441H
	DW	01c61H
	DW	02081H
	DW	02081H
	DW	02061H
	DW	01c61H
	DW	01c61H
	DW	01c61H
	DW	01c61H
	DW	01c61H
	DW	01c61H
	DW	01c61H
	DW	01c61H
	DW	01c61H
	DW	01c61H
	DW	02061H
	DW	02061H
	DW	02061H
	DW	02061H
	DW	02481H
	DW	02481H
	DW	02881H
	DW	02881H
	DW	02ca1H
	DW	030a1H
	DW	034a1H
	DW	038c1H
	DW	03cc1H
	DW	040e1H
	DW	048e1H
	DW	04d02H
	DW	05102H
	DW	05522H
	DW	05922H
	DW	06122H
	DW	06542H
	DW	06542H
	DW	06942H
	DW	06d62H
	DW	07162H
	DW	07162H
	DW	07562H
	DW	07562H
	DW	07562H
	DW	07962H
	DW	07962H
	DW	07962H
	DW	07962H
	DW	07962H
	DW	07962H
	DW	07962H
	DW	07962H
	DW	07962H
	DW	07962H
	DW	07962H
	DW	07962H
	DW	07961H
	DW	07961H
	DW	07961H
	DW	07961H
	DW	07961H
	DW	07961H
	DW	07961H
	DW	07961H
	DW	07961H
	DW	07961H
	DW	07961H
	DW	07961H
	DW	07961H
	DW	07961H
	DW	07941H
	DW	07941H
	DW	07941H
	DW	07941H
	DW	07941H
	DW	07941H
	DW	07941H
	DW	07941H
	DW	07941H
	DW	07941H
	DW	07941H
	DW	07941H
	DW	07941H
	DW	07941H
	DW	07941H
	DW	07941H
	DW	07941H
	DW	07941H
	DW	07941H
	DW	07941H
	DW	07941H
	DW	07941H
	DW	07921H
	DW	07921H
	DW	07921H
	DW	07921H
	DW	07921H
	DW	07921H
	DW	07921H
	DW	07921H
	DW	07921H
	DW	07521H
	DW	07521H
	DW	07521H
	DW	07521H
	DW	07521H
	DW	07521H
	DW	07521H
	DW	07521H
	DW	07521H
	DW	07521H
	DW	07521H
	DW	07521H
	DW	07521H
	DW	07501H
	DW	07501H
	DW	07501H
	DW	07501H
	DW	07501H
	DW	07501H
	DW	07501H
	DW	07501H
	DW	07501H
	DW	07501H
	DW	07501H
	DW	07501H
	DW	07501H
	DW	07501H
	DW	07501H
	DW	07501H
	DW	07501H
	DW	07501H
	DW	07501H
	DW	07501H
	DW	07501H
	DW	07501H
	DW	07501H
	DW	07501H
	DW	074e1H
	DW	074e1H
	DW	074e1H
	DW	074e1H
	DW	074e1H
	DW	074e1H
	DW	074e1H
	DW	074e1H
	DW	074e1H
	DW	074e1H
	DW	074e1H
	DW	074e1H
	DW	074e1H
	DW	074e1H
	DW	074e1H
	DW	074e1H
	DW	074e1H
	DW	074e1H
	DW	074e1H
	DW	070e1H
	DW	070e1H
	DW	070e1H
	DW	070e1H
	DW	070e1H
	DW	070c1H
	DW	070c1H
	DW	070c1H
	DW	070c1H
	DW	070c1H
	DW	070c1H
	DW	070c1H
	DW	070c1H
	DW	070c1H
	DW	070c1H
	DW	070c1H
	DW	070c1H
	DW	070c1H
	DW	070c1H
	DW	070c1H
	DW	070c1H
	DW	070c1H
	DW	070c1H
	DW	070c1H
	DW	070c1H
	DW	070c1H
	DW	070c1H
	DW	070c1H
	DW	070c1H
	DW	070a1H
	DW	070a1H
	DW	070a1H
	DW	070a1H
	DW	070a1H
	DW	070a1H
	DW	070a1H
	DW	078c1H
	DW	03840H
	DW	00H
	DW	00H
	DW	00H
	DW	00H
	DW	00H
	DW	00H
	DW	00H
	DW	00H
	DW	00H
	DW	00H
	DW	00H
	DW	00H
	DW	00H
	DW	00H
	DW	00H
	DW	00H
	DW	00H
	DW	00H
	DW	00H
	DW	00H
	DW	00H
	DW	00H
	DW	00H
	DW	00H
	DW	00H
	DW	00H
	DW	00H
	DW	00H
	DW	00H
	DW	00H
	DW	00H
	DW	00H
	DW	00H
	DW	00H
	DW	00H
	DW	00H
	DW	00H
	DW	00H
	DW	00H
	DW	00H
	DW	00H
	DW	00H
	DW	00H
	DW	00H
	DW	00H
	DW	00H
	DW	00H
	DW	00H
	DW	00H
	DW	00H
	DW	00H
	DW	00H
	DW	00H
	DW	00H
	DW	00H
	DW	00H
	DW	00H
	DW	00H
	DW	00H
	DW	00H
	DW	00H
	DW	00H
	DW	00H
	DW	00H
	DW	00H
	DW	00H
	DW	00H
	DW	00H
	DW	00H
	DW	00H
	DW	00H
	DW	00H
	DW	00H
	DW	00H
	DW	00H
	DW	00H
	DW	00H
	DW	00H
	DW	00H
	DW	00H
	DW	00H
	DW	00H
	DW	00H
	DW	00H
	DW	00H
	DW	00H
	DW	00H
	DW	00H
	DW	00H
	DW	00H
	DW	00H
	DW	00H
	DW	00H
	DW	00H
	DW	00H
	DW	00H
	DW	00H
	DW	00H
	DW	00H
	DW	00H
	DW	00H
	DW	00H
	DW	00H
	DW	00H
	DW	00H
	DW	00H
	DW	00H
	DW	00H
	DW	00H
	DW	00H
	DW	00H
	DW	00H
	DW	00H
	DW	00H
	DW	00H
	DW	00H
	DW	00H
	DW	00H
	DW	00H
	DW	00H
	DW	00H
	DW	00H
	DW	00H
	DW	00H
	DW	00H
	DW	00H
	DW	00H
	DW	00H
	DW	00H
	DW	00H
	DW	00H
	DW	00H
	DW	00H
	DW	00H
	DW	00H
	DW	00H
	DW	00H
	DW	00H
	DW	00H
	DW	00H
	DW	00H
	DW	00H
	DW	00H
	DW	00H
	DW	00H
	DW	00H
	DW	00H
	DW	00H
	DW	00H
	DW	00H
	DW	00H
	DW	00H
	DW	00H
	DW	00H
	DW	00H
	DW	00H
	DW	00H
	DW	00H
	DW	00H
	DW	00H
	DW	00H
	DW	00H
	DW	00H
	DW	00H
	DW	00H
	DW	00H
	DW	00H
	DW	00H
	DW	00H
	DW	00H
	DW	00H
	DW	00H
	DW	00H
	DW	00H
	DW	00H
	DW	00H
	DW	00H
	DW	00H
	DW	00H
	DW	00H
	DW	00H
	DW	00H
	DW	00H
	DW	00H
	DW	00H
	DW	00H
	DW	00H
	DW	00H
	DW	00H
	DW	00H
	DW	00H
	DW	00H
	DW	00H
	DW	00H
	DW	00H
	DW	00H
	DW	00H
	DW	00H
	DW	00H
	DW	00H
	DW	00H
	DW	00H
	DW	00H
	DW	00H
	DW	00H
	DW	00H
	DW	00H
	DW	00H
	DW	00H
	DW	00H
	DW	00H
	DW	00H
	DW	00H
	DW	00H
	DW	00H
	DW	00H
	DW	00H
	DW	00H
	DW	00H
	DW	00H
	DW	00H
	DW	00H
	DW	00H
	DW	00H
	DW	00H
	DW	00H
	DW	00H
	DW	00H
	DW	00H
	DW	00H
	DW	00H
	DW	00H
	DW	00H
	DW	00H
	DW	00H
	DW	00H
	DW	00H
	DW	00H
	DW	00H
	DW	00H
	DW	00H
	DW	00H
	DW	00H
	DW	00H
	DW	00H
	DW	00H
	DW	00H
	DW	00H
	DW	00H
	DW	00H
	DW	00H
	DW	00H
	DW	00H
	DW	00H
	DW	00H
	DW	00H
	DW	00H
	DW	00H
	DW	00H
	DW	00H
	DW	00H
	DW	00H
	DW	00H
	DW	00H
	DW	00H
	DW	00H
	DW	00H
	DW	00H
	DW	00H
	DW	00H
	DW	00H
	DW	00H
	DW	00H
	DW	00H
	DW	00H
	DW	00H
	DW	00H
	DW	00H
	DW	00H
	DW	00H
	DW	00H
	DW	0820H
	DW	01041H
	DW	01c61H
	DW	02081H
	DW	02081H
	DW	02081H
	DW	01c61H
	DW	01c61H
	DW	01c61H
	DW	01c61H
	DW	01c61H
	DW	01c61H
	DW	01c61H
	DW	01c61H
	DW	01c61H
	DW	01c61H
	DW	01c61H
	DW	02061H
	DW	02061H
	DW	02061H
	DW	02481H
	DW	02481H
	DW	02881H
	DW	02c81H
	DW	02ca1H
	DW	030a1H
	DW	034c1H
	DW	038c1H
	DW	040c1H
	DW	044e2H
	DW	048e2H
	DW	04d02H
	DW	05502H
	DW	05922H
	DW	05d22H
	DW	06142H
	DW	06542H
	DW	06942H
	DW	06d62H
	DW	06d62H
	DW	07162H
	DW	07562H
	DW	07562H
	DW	07562H
	DW	07982H
	DW	07982H
	DW	07982H
	DW	07982H
	DW	07982H
	DW	07982H
	DW	07982H
	DW	07962H
	DW	07962H
	DW	07962H
	DW	07962H
	DW	07962H
	DW	07962H
	DW	07962H
	DW	07962H
	DW	07961H
	DW	07961H
	DW	07961H
	DW	07961H
	DW	07961H
	DW	07961H
	DW	07961H
	DW	07961H
	DW	07961H
	DW	07961H
	DW	07961H
	DW	07961H
	DW	07961H
	DW	07961H
	DW	07941H
	DW	07941H
	DW	07941H
	DW	07941H
	DW	07941H
	DW	07941H
	DW	07941H
	DW	07941H
	DW	07941H
	DW	07941H
	DW	07941H
	DW	07941H
	DW	07941H
	DW	07941H
	DW	07941H
	DW	07941H
	DW	07941H
	DW	07941H
	DW	07941H
	DW	07941H
	DW	07941H
	DW	07941H
	DW	07921H
	DW	07921H
	DW	07921H
	DW	07921H
	DW	07921H
	DW	07921H
	DW	07921H
	DW	07921H
	DW	07921H
	DW	07521H
	DW	07521H
	DW	07521H
	DW	07521H
	DW	07521H
	DW	07521H
	DW	07521H
	DW	07521H
	DW	07521H
	DW	07521H
	DW	07521H
	DW	07521H
	DW	07521H
	DW	07521H
	DW	07501H
	DW	07501H
	DW	07501H
	DW	07501H
	DW	07501H
	DW	07501H
	DW	07501H
	DW	07501H
	DW	07501H
	DW	07501H
	DW	07501H
	DW	07501H
	DW	07501H
	DW	07501H
	DW	07501H
	DW	07501H
	DW	07501H
	DW	07501H
	DW	07501H
	DW	07501H
	DW	07501H
	DW	07501H
	DW	07501H
	DW	074e1H
	DW	074e1H
	DW	074e1H
	DW	074e1H
	DW	074e1H
	DW	074e1H
	DW	074e1H
	DW	074e1H
	DW	074e1H
	DW	074e1H
	DW	074e1H
	DW	074e1H
	DW	074e1H
	DW	074e1H
	DW	074e1H
	DW	074e1H
	DW	074e1H
	DW	074e1H
	DW	074e1H
	DW	070e1H
	DW	070e1H
	DW	070e1H
	DW	070e1H
	DW	070c1H
	DW	070c1H
	DW	070c1H
	DW	070c1H
	DW	070c1H
	DW	070c1H
	DW	070c1H
	DW	070c1H
	DW	070c1H
	DW	070c1H
	DW	070c1H
	DW	070c1H
	DW	070c1H
	DW	070c1H
	DW	070c1H
	DW	070c1H
	DW	070c1H
	DW	070c1H
	DW	070c1H
	DW	070c1H
	DW	070c1H
	DW	070c1H
	DW	070c1H
	DW	070c1H
	DW	070c1H
	DW	070a1H
	DW	070a1H
	DW	070a1H
	DW	070a1H
	DW	070a1H
	DW	070a1H
	DW	070a1H
	DW	070a1H
	DW	078c1H
	DW	03840H
	DW	00H
	DW	00H
	DW	00H
	DW	00H
	DW	00H
	DW	00H
	DW	00H
	DW	00H
	DW	00H
	DW	00H
	DW	00H
	DW	00H
	DW	00H
	DW	00H
	DW	00H
	DW	00H
	DW	00H
	DW	00H
	DW	00H
	DW	00H
	DW	00H
	DW	00H
	DW	00H
	DW	00H
	DW	00H
	DW	00H
	DW	00H
	DW	00H
	DW	00H
	DW	00H
	DW	00H
	DW	00H
	DW	00H
	DW	00H
	DW	00H
	DW	00H
	DW	00H
	DW	00H
	DW	00H
	DW	00H
	DW	00H
	DW	00H
	DW	00H
	DW	00H
	DW	00H
	DW	00H
	DW	00H
	DW	00H
	DW	00H
	DW	00H
	DW	00H
	DW	00H
	DW	00H
	DW	00H
	DW	00H
	DW	00H
	DW	00H
	DW	00H
	DW	00H
	DW	00H
	DW	00H
	DW	00H
	DW	00H
	DW	00H
	DW	00H
	DW	00H
	DW	00H
	DW	00H
	DW	00H
	DW	00H
	DW	00H
	DW	00H
	DW	00H
	DW	00H
	DW	00H
	DW	00H
	DW	00H
	DW	00H
	DW	00H
	DW	00H
	DW	00H
	DW	00H
	DW	00H
	DW	00H
	DW	00H
	DW	00H
	DW	00H
	DW	00H
	DW	00H
	DW	00H
	DW	00H
	DW	00H
	DW	00H
	DW	00H
	DW	00H
	DW	00H
	DW	00H
	DW	00H
	DW	00H
	DW	00H
	DW	00H
	DW	00H
	DW	00H
	DW	00H
	DW	00H
	DW	00H
	DW	00H
	DW	00H
	DW	00H
	DW	00H
	DW	00H
	DW	00H
	DW	00H
	DW	00H
	DW	00H
	DW	00H
	DW	00H
	DW	00H
	DW	00H
	DW	00H
	DW	00H
	DW	00H
	DW	00H
	DW	00H
	DW	00H
	DW	00H
	DW	00H
	DW	00H
	DW	00H
	DW	00H
	DW	00H
	DW	00H
	DW	00H
	DW	00H
	DW	00H
	DW	00H
	DW	00H
	DW	00H
	DW	00H
	DW	00H
	DW	00H
	DW	00H
	DW	00H
	DW	00H
	DW	00H
	DW	00H
	DW	00H
	DW	00H
	DW	00H
	DW	00H
	DW	00H
	DW	00H
	DW	00H
	DW	00H
	DW	00H
	DW	00H
	DW	00H
	DW	00H
	DW	00H
	DW	00H
	DW	00H
	DW	00H
	DW	00H
	DW	00H
	DW	00H
	DW	00H
	DW	00H
	DW	00H
	DW	00H
	DW	00H
	DW	00H
	DW	00H
	DW	00H
	DW	00H
	DW	00H
	DW	00H
	DW	00H
	DW	00H
	DW	00H
	DW	00H
	DW	00H
	DW	00H
	DW	00H
	DW	00H
	DW	00H
	DW	00H
	DW	00H
	DW	00H
	DW	00H
	DW	00H
	DW	00H
	DW	00H
	DW	00H
	DW	00H
	DW	00H
	DW	00H
	DW	00H
	DW	00H
	DW	00H
	DW	00H
	DW	00H
	DW	00H
	DW	00H
	DW	00H
	DW	00H
	DW	00H
	DW	00H
	DW	00H
	DW	00H
	DW	00H
	DW	00H
	DW	00H
	DW	00H
	DW	00H
	DW	00H
	DW	00H
	DW	00H
	DW	00H
	DW	00H
	DW	00H
	DW	00H
	DW	00H
	DW	00H
	DW	00H
	DW	00H
	DW	00H
	DW	00H
	DW	00H
	DW	00H
	DW	00H
	DW	00H
	DW	00H
	DW	00H
	DW	00H
	DW	00H
	DW	00H
	DW	00H
	DW	00H
	DW	00H
	DW	00H
	DW	00H
	DW	00H
	DW	00H
	DW	00H
	DW	00H
	DW	00H
	DW	00H
	DW	00H
	DW	00H
	DW	00H
	DW	00H
	DW	00H
	DW	00H
	DW	00H
	DW	00H
	DW	00H
	DW	00H
	DW	00H
	DW	00H
	DW	00H
	DW	00H
	DW	00H
	DW	00H
	DW	00H
	DW	00H
	DW	00H
	DW	00H
	DW	00H
	DW	00H
	DW	00H
	DW	00H
	DW	00H
	DW	00H
	DW	00H
	DW	00H
	DW	00H
	DW	00H
	DW	00H
	DW	0400H
	DW	01040H
	DW	01861H
	DW	01c61H
	DW	02081H
	DW	02081H
	DW	01c61H
	DW	01c61H
	DW	01c61H
	DW	01c61H
	DW	01c61H
	DW	01c61H
	DW	01c61H
	DW	01c61H
	DW	01c61H
	DW	01c61H
	DW	02061H
	DW	02061H
	DW	02061H
	DW	02081H
	DW	02481H
	DW	02481H
	DW	02881H
	DW	02ca1H
	DW	030a1H
	DW	034a1H
	DW	038c1H
	DW	03cc1H
	DW	040e2H
	DW	044e2H
	DW	04902H
	DW	05102H
	DW	05522H
	DW	05922H
	DW	05d42H
	DW	06142H
	DW	06542H
	DW	06962H
	DW	06d62H
	DW	07162H
	DW	07162H
	DW	07562H
	DW	07562H
	DW	07982H
	DW	07982H
	DW	07982H
	DW	07982H
	DW	07982H
	DW	07982H
	DW	07982H
	DW	07982H
	DW	07982H
	DW	07962H
	DW	07962H
	DW	07962H
	DW	07962H
	DW	07962H
	DW	07962H
	DW	07962H
	DW	07962H
	DW	07961H
	DW	07961H
	DW	07961H
	DW	07961H
	DW	07961H
	DW	07961H
	DW	07961H
	DW	07961H
	DW	07961H
	DW	07961H
	DW	07961H
	DW	07961H
	DW	07961H
	DW	07961H
	DW	07941H
	DW	07941H
	DW	07941H
	DW	07941H
	DW	07941H
	DW	07941H
	DW	07941H
	DW	07941H
	DW	07941H
	DW	07941H
	DW	07941H
	DW	07941H
	DW	07941H
	DW	07941H
	DW	07941H
	DW	07941H
	DW	07941H
	DW	07941H
	DW	07941H
	DW	07941H
	DW	07941H
	DW	07941H
	DW	07941H
	DW	07921H
	DW	07921H
	DW	07921H
	DW	07921H
	DW	07921H
	DW	07921H
	DW	07921H
	DW	07921H
	DW	07921H
	DW	07521H
	DW	07521H
	DW	07521H
	DW	07521H
	DW	07521H
	DW	07521H
	DW	07521H
	DW	07521H
	DW	07521H
	DW	07521H
	DW	07521H
	DW	07521H
	DW	07521H
	DW	07501H
	DW	07501H
	DW	07501H
	DW	07501H
	DW	07501H
	DW	07501H
	DW	07501H
	DW	07501H
	DW	07501H
	DW	07501H
	DW	07501H
	DW	07501H
	DW	07501H
	DW	07501H
	DW	07501H
	DW	07501H
	DW	07501H
	DW	07501H
	DW	07501H
	DW	07501H
	DW	07501H
	DW	07501H
	DW	07501H
	DW	074e1H
	DW	074e1H
	DW	074e1H
	DW	074e1H
	DW	074e1H
	DW	074e1H
	DW	074e1H
	DW	074e1H
	DW	074e1H
	DW	074e1H
	DW	074e1H
	DW	074e1H
	DW	074e1H
	DW	074e1H
	DW	074e1H
	DW	074e1H
	DW	074e1H
	DW	074e1H
	DW	074e1H
	DW	070e1H
	DW	070e1H
	DW	070e1H
	DW	070e1H
	DW	070e1H
	DW	070c1H
	DW	070c1H
	DW	070c1H
	DW	070c1H
	DW	070c1H
	DW	070c1H
	DW	070c1H
	DW	070c1H
	DW	070c1H
	DW	070c1H
	DW	070c1H
	DW	070c1H
	DW	070c1H
	DW	070c1H
	DW	070c1H
	DW	070c1H
	DW	070c1H
	DW	070c1H
	DW	070c1H
	DW	070c1H
	DW	070c1H
	DW	070c1H
	DW	070c1H
	DW	070c1H
	DW	070a1H
	DW	070a1H
	DW	070a1H
	DW	070a1H
	DW	070a1H
	DW	070a1H
	DW	070a1H
	DW	070a1H
	DW	070a1H
	DW	070a1H
	DW	078a1H
	DW	03840H
	DW	00H
	DW	00H
	DW	00H
	DW	00H
	DW	00H
	DW	00H
	DW	00H
	DW	00H
	DW	00H
	DW	00H
	DW	00H
	DW	00H
	DW	00H
	DW	00H
	DW	00H
	DW	00H
	DW	00H
	DW	00H
	DW	00H
	DW	00H
	DW	00H
	DW	00H
	DW	00H
	DW	00H
	DW	00H
	DW	00H
	DW	00H
	DW	00H
	DW	00H
	DW	00H
	DW	00H
	DW	00H
	DW	00H
	DW	00H
	DW	00H
	DW	00H
	DW	00H
	DW	00H
	DW	00H
	DW	00H
	DW	00H
	DW	00H
	DW	00H
	DW	00H
	DW	00H
	DW	00H
	DW	00H
	DW	00H
	DW	00H
	DW	00H
	DW	00H
	DW	00H
	DW	00H
	DW	00H
	DW	00H
	DW	00H
	DW	00H
	DW	00H
	DW	00H
	DW	00H
	DW	00H
	DW	00H
	DW	00H
	DW	00H
	DW	00H
	DW	00H
	DW	00H
	DW	00H
	DW	00H
	DW	00H
	DW	00H
	DW	00H
	DW	00H
	DW	00H
	DW	00H
	DW	00H
	DW	00H
	DW	00H
	DW	00H
	DW	00H
	DW	00H
	DW	00H
	DW	00H
	DW	00H
	DW	00H
	DW	00H
	DW	00H
	DW	00H
	DW	00H
	DW	00H
	DW	00H
	DW	00H
	DW	00H
	DW	00H
	DW	00H
	DW	00H
	DW	00H
	DW	00H
	DW	00H
	DW	00H
	DW	00H
	DW	00H
	DW	00H
	DW	00H
	DW	00H
	DW	00H
	DW	00H
	DW	00H
	DW	00H
	DW	00H
	DW	00H
	DW	00H
	DW	00H
	DW	00H
	DW	00H
	DW	00H
	DW	00H
	DW	00H
	DW	00H
	DW	00H
	DW	00H
	DW	00H
	DW	00H
	DW	00H
	DW	00H
	DW	00H
	DW	00H
	DW	00H
	DW	00H
	DW	00H
	DW	00H
	DW	00H
	DW	00H
	DW	00H
	DW	00H
	DW	00H
	DW	00H
	DW	00H
	DW	00H
	DW	00H
	DW	00H
	DW	00H
	DW	00H
	DW	00H
	DW	00H
	DW	00H
	DW	00H
	DW	00H
	DW	00H
	DW	00H
	DW	00H
	DW	00H
	DW	00H
	DW	00H
	DW	00H
	DW	00H
	DW	00H
	DW	00H
	DW	00H
	DW	00H
	DW	00H
	DW	00H
	DW	00H
	DW	00H
	DW	00H
	DW	00H
	DW	00H
	DW	00H
	DW	00H
	DW	00H
	DW	00H
	DW	00H
	DW	00H
	DW	00H
	DW	00H
	DW	00H
	DW	00H
	DW	00H
	DW	00H
	DW	00H
	DW	00H
	DW	00H
	DW	00H
	DW	00H
	DW	00H
	DW	00H
	DW	00H
	DW	00H
	DW	00H
	DW	00H
	DW	00H
	DW	00H
	DW	00H
	DW	00H
	DW	00H
	DW	00H
	DW	00H
	DW	00H
	DW	00H
	DW	00H
	DW	00H
	DW	00H
	DW	00H
	DW	00H
	DW	00H
	DW	00H
	DW	00H
	DW	00H
	DW	00H
	DW	00H
	DW	00H
	DW	00H
	DW	00H
	DW	00H
	DW	00H
	DW	00H
	DW	00H
	DW	00H
	DW	00H
	DW	00H
	DW	00H
	DW	00H
	DW	00H
	DW	00H
	DW	00H
	DW	00H
	DW	00H
	DW	00H
	DW	00H
	DW	00H
	DW	00H
	DW	00H
	DW	00H
	DW	00H
	DW	00H
	DW	00H
	DW	00H
	DW	00H
	DW	00H
	DW	00H
	DW	00H
	DW	00H
	DW	00H
	DW	00H
	DW	00H
	DW	00H
	DW	00H
	DW	00H
	DW	00H
	DW	00H
	DW	00H
	DW	00H
	DW	00H
	DW	00H
	DW	00H
	DW	00H
	DW	00H
	DW	00H
	DW	00H
	DW	00H
	DW	00H
	DW	00H
	DW	00H
	DW	00H
	DW	00H
	DW	00H
	DW	00H
	DW	00H
	DW	00H
	DW	00H
	DW	00H
	DW	00H
	DW	00H
	DW	00H
	DW	00H
	DW	0400H
	DW	01040H
	DW	01861H
	DW	02081H
	DW	02081H
	DW	02081H
	DW	02061H
	DW	01c61H
	DW	01c61H
	DW	01c61H
	DW	01c61H
	DW	01c61H
	DW	01c61H
	DW	01c61H
	DW	01c61H
	DW	01c61H
	DW	02061H
	DW	02061H
	DW	02061H
	DW	02081H
	DW	02481H
	DW	02481H
	DW	02881H
	DW	02ca1H
	DW	030a1H
	DW	034a1H
	DW	038c2H
	DW	03cc2H
	DW	040e2H
	DW	048e2H
	DW	04d02H
	DW	05122H
	DW	05922H
	DW	05d22H
	DW	06142H
	DW	06542H
	DW	06962H
	DW	06d62H
	DW	06d62H
	DW	07162H
	DW	07562H
	DW	07582H
	DW	07982H
	DW	07982H
	DW	07982H
	DW	07982H
	DW	07982H
	DW	07982H
	DW	07982H
	DW	07982H
	DW	07982H
	DW	07982H
	DW	07982H
	DW	07962H
	DW	07962H
	DW	07962H
	DW	07962H
	DW	07962H
	DW	07962H
	DW	07962H
	DW	07962H
	DW	07962H
	DW	07961H
	DW	07961H
	DW	07961H
	DW	07961H
	DW	07961H
	DW	07961H
	DW	07961H
	DW	07961H
	DW	07961H
	DW	07961H
	DW	07961H
	DW	07961H
	DW	07961H
	DW	07961H
	DW	07941H
	DW	07941H
	DW	07941H
	DW	07941H
	DW	07941H
	DW	07941H
	DW	07941H
	DW	07941H
	DW	07941H
	DW	07941H
	DW	07941H
	DW	07941H
	DW	07941H
	DW	07941H
	DW	07941H
	DW	07941H
	DW	07941H
	DW	07941H
	DW	07941H
	DW	07941H
	DW	07941H
	DW	07941H
	DW	07921H
	DW	07921H
	DW	07921H
	DW	07921H
	DW	07921H
	DW	07921H
	DW	07921H
	DW	07921H
	DW	07921H
	DW	07521H
	DW	07521H
	DW	07521H
	DW	07521H
	DW	07521H
	DW	07521H
	DW	07521H
	DW	07521H
	DW	07521H
	DW	07521H
	DW	07521H
	DW	07521H
	DW	07521H
	DW	07501H
	DW	07501H
	DW	07501H
	DW	07501H
	DW	07501H
	DW	07501H
	DW	07501H
	DW	07501H
	DW	07501H
	DW	07501H
	DW	07501H
	DW	07501H
	DW	07501H
	DW	07501H
	DW	07501H
	DW	07501H
	DW	07501H
	DW	07501H
	DW	07501H
	DW	07501H
	DW	07501H
	DW	07501H
	DW	07501H
	DW	074e1H
	DW	074e1H
	DW	074e1H
	DW	074e1H
	DW	074e1H
	DW	074e1H
	DW	074e1H
	DW	074e1H
	DW	074e1H
	DW	074e1H
	DW	074e1H
	DW	074e1H
	DW	074e1H
	DW	074e1H
	DW	074e1H
	DW	074e1H
	DW	074e1H
	DW	074e1H
	DW	074e1H
	DW	074e1H
	DW	070e1H
	DW	070e1H
	DW	070e1H
	DW	070e1H
	DW	070c1H
	DW	070c1H
	DW	070c1H
	DW	070c1H
	DW	070c1H
	DW	070c1H
	DW	070c1H
	DW	070c1H
	DW	070c1H
	DW	070c1H
	DW	070c1H
	DW	070c1H
	DW	070c1H
	DW	070c1H
	DW	070c1H
	DW	070c1H
	DW	070c1H
	DW	070c1H
	DW	070c1H
	DW	070c1H
	DW	070c1H
	DW	070c1H
	DW	070c1H
	DW	070c1H
	DW	070c1H
	DW	070a1H
	DW	070a1H
	DW	070a1H
	DW	070a1H
	DW	070a1H
	DW	070a1H
	DW	070a1H
	DW	070a1H
	DW	070a1H
	DW	070a1H
	DW	070a1H
	DW	078a1H
	DW	03840H
	DW	00H
	DW	00H
	DW	00H
	DW	00H
	DW	00H
	DW	00H
	DW	00H
	DW	00H
	DW	00H
	DW	00H
	DW	00H
	DW	00H
	DW	00H
	DW	00H
	DW	00H
	DW	00H
	DW	00H
	DW	00H
	DW	00H
	DW	00H
	DW	00H
	DW	00H
	DW	00H
	DW	00H
	DW	00H
	DW	00H
	DW	00H
	DW	00H
	DW	00H
	DW	00H
	DW	00H
	DW	00H
	DW	00H
	DW	00H
	DW	00H
	DW	00H
	DW	00H
	DW	00H
	DW	00H
	DW	00H
	DW	00H
	DW	00H
	DW	00H
	DW	00H
	DW	00H
	DW	00H
	DW	00H
	DW	00H
	DW	00H
	DW	00H
	DW	00H
	DW	00H
	DW	00H
	DW	00H
	DW	00H
	DW	00H
	DW	00H
	DW	00H
	DW	00H
	DW	00H
	DW	00H
	DW	00H
	DW	00H
	DW	00H
	DW	00H
	DW	00H
	DW	00H
	DW	00H
	DW	00H
	DW	00H
	DW	00H
	DW	00H
	DW	00H
	DW	00H
	DW	00H
	DW	00H
	DW	00H
	DW	00H
	DW	00H
	DW	00H
	DW	00H
	DW	00H
	DW	00H
	DW	00H
	DW	00H
	DW	00H
	DW	00H
	DW	00H
	DW	00H
	DW	00H
	DW	00H
	DW	00H
	DW	00H
	DW	00H
	DW	00H
	DW	00H
	DW	00H
	DW	00H
	DW	00H
	DW	00H
	DW	00H
	DW	00H
	DW	00H
	DW	00H
	DW	00H
	DW	00H
	DW	00H
	DW	00H
	DW	00H
	DW	00H
	DW	00H
	DW	00H
	DW	00H
	DW	00H
	DW	00H
	DW	00H
	DW	00H
	DW	00H
	DW	00H
	DW	00H
	DW	00H
	DW	00H
	DW	00H
	DW	00H
	DW	00H
	DW	00H
	DW	00H
	DW	00H
	DW	00H
	DW	00H
	DW	00H
	DW	00H
	DW	00H
	DW	00H
	DW	00H
	DW	00H
	DW	00H
	DW	00H
	DW	00H
	DW	00H
	DW	00H
	DW	00H
	DW	00H
	DW	00H
	DW	00H
	DW	00H
	DW	00H
	DW	00H
	DW	00H
	DW	00H
	DW	00H
	DW	00H
	DW	00H
	DW	00H
	DW	00H
	DW	00H
	DW	00H
	DW	00H
	DW	00H
	DW	00H
	DW	00H
	DW	00H
	DW	00H
	DW	00H
	DW	00H
	DW	00H
	DW	00H
	DW	00H
	DW	00H
	DW	00H
	DW	00H
	DW	00H
	DW	00H
	DW	00H
	DW	00H
	DW	00H
	DW	00H
	DW	00H
	DW	00H
	DW	00H
	DW	00H
	DW	00H
	DW	00H
	DW	00H
	DW	00H
	DW	00H
	DW	00H
	DW	00H
	DW	00H
	DW	00H
	DW	00H
	DW	00H
	DW	00H
	DW	00H
	DW	00H
	DW	00H
	DW	00H
	DW	00H
	DW	00H
	DW	00H
	DW	00H
	DW	00H
	DW	00H
	DW	00H
	DW	00H
	DW	00H
	DW	00H
	DW	00H
	DW	00H
	DW	00H
	DW	00H
	DW	00H
	DW	00H
	DW	00H
	DW	00H
	DW	00H
	DW	00H
	DW	00H
	DW	00H
	DW	00H
	DW	00H
	DW	00H
	DW	00H
	DW	00H
	DW	00H
	DW	00H
	DW	00H
	DW	00H
	DW	00H
	DW	00H
	DW	00H
	DW	00H
	DW	00H
	DW	00H
	DW	00H
	DW	00H
	DW	00H
	DW	00H
	DW	00H
	DW	00H
	DW	00H
	DW	00H
	DW	00H
	DW	00H
	DW	00H
	DW	00H
	DW	00H
	DW	00H
	DW	00H
	DW	00H
	DW	00H
	DW	00H
	DW	00H
	DW	00H
	DW	00H
	DW	00H
	DW	00H
	DW	00H
	DW	00H
	DW	00H
	DW	00H
	DW	00H
	DW	00H
	DW	00H
	DW	00H
	DW	00H
	DW	00H
	DW	00H
	DW	00H
	DW	00H
	DW	00H
	DW	00H
	DW	00H
	DW	0820H
	DW	01441H
	DW	01c61H
	DW	02081H
	DW	02081H
	DW	01c81H
	DW	01c61H
	DW	01c61H
	DW	01c61H
	DW	01c61H
	DW	01c61H
	DW	01c61H
	DW	01c61H
	DW	01c61H
	DW	01c61H
	DW	02061H
	DW	02061H
	DW	02081H
	DW	02081H
	DW	02481H
	DW	02481H
	DW	02881H
	DW	02ca1H
	DW	030a1H
	DW	034a1H
	DW	038c2H
	DW	03cc2H
	DW	040e2H
	DW	04902H
	DW	04d02H
	DW	05522H
	DW	05922H
	DW	05d42H
	DW	06142H
	DW	06542H
	DW	06962H
	DW	06d62H
	DW	07162H
	DW	07182H
	DW	07582H
	DW	07582H
	DW	07982H
	DW	07982H
	DW	07982H
	DW	07982H
	DW	07982H
	DW	07982H
	DW	07982H
	DW	07982H
	DW	07982H
	DW	07982H
	DW	07982H
	DW	07982H
	DW	07982H
	DW	07982H
	DW	07962H
	DW	07962H
	DW	07962H
	DW	07962H
	DW	07962H
	DW	07962H
	DW	07962H
	DW	07962H
	DW	07961H
	DW	07961H
	DW	07961H
	DW	07961H
	DW	07961H
	DW	07961H
	DW	07961H
	DW	07961H
	DW	07961H
	DW	07961H
	DW	07961H
	DW	07961H
	DW	07961H
	DW	07961H
	DW	07941H
	DW	07941H
	DW	07941H
	DW	07941H
	DW	07941H
	DW	07941H
	DW	07941H
	DW	07941H
	DW	07941H
	DW	07941H
	DW	07941H
	DW	07941H
	DW	07941H
	DW	07941H
	DW	07941H
	DW	07941H
	DW	07941H
	DW	07941H
	DW	07941H
	DW	07941H
	DW	07941H
	DW	07941H
	DW	07921H
	DW	07921H
	DW	07921H
	DW	07921H
	DW	07921H
	DW	07921H
	DW	07921H
	DW	07921H
	DW	07921H
	DW	07521H
	DW	07521H
	DW	07521H
	DW	07521H
	DW	07521H
	DW	07521H
	DW	07521H
	DW	07521H
	DW	07521H
	DW	07521H
	DW	07521H
	DW	07521H
	DW	07521H
	DW	07501H
	DW	07501H
	DW	07501H
	DW	07501H
	DW	07501H
	DW	07501H
	DW	07501H
	DW	07501H
	DW	07501H
	DW	07501H
	DW	07501H
	DW	07501H
	DW	07501H
	DW	07501H
	DW	07501H
	DW	07501H
	DW	07501H
	DW	07501H
	DW	07501H
	DW	07501H
	DW	07501H
	DW	07501H
	DW	07501H
	DW	07501H
	DW	074e1H
	DW	074e1H
	DW	074e1H
	DW	074e1H
	DW	074e1H
	DW	074e1H
	DW	074e1H
	DW	074e1H
	DW	074e1H
	DW	074e1H
	DW	074e1H
	DW	074e1H
	DW	074e1H
	DW	074e1H
	DW	074e1H
	DW	074e1H
	DW	074e1H
	DW	074e1H
	DW	074e1H
	DW	070e1H
	DW	070e1H
	DW	070e1H
	DW	070e1H
	DW	070c1H
	DW	070c1H
	DW	070c1H
	DW	070c1H
	DW	070c1H
	DW	070c1H
	DW	070c1H
	DW	070c1H
	DW	070c1H
	DW	070c1H
	DW	070c1H
	DW	070c1H
	DW	070c1H
	DW	070c1H
	DW	070c1H
	DW	070c1H
	DW	070c1H
	DW	070c1H
	DW	070c1H
	DW	070c1H
	DW	070c1H
	DW	070c1H
	DW	070c1H
	DW	070c1H
	DW	070c1H
	DW	070a1H
	DW	070a1H
	DW	070a1H
	DW	070a1H
	DW	070a1H
	DW	070a1H
	DW	070a1H
	DW	070a1H
	DW	070a1H
	DW	070a1H
	DW	070a1H
	DW	070a1H
	DW	078a1H
	DW	03840H
	DW	00H
	DW	00H
	DW	00H
	DW	00H
	DW	00H
	DW	00H
	DW	00H
	DW	00H
	DW	00H
	DW	00H
	DW	00H
	DW	00H
	DW	00H
	DW	00H
	DW	00H
	DW	00H
	DW	00H
	DW	00H
	DW	00H
	DW	00H
	DW	00H
	DW	00H
	DW	00H
	DW	00H
	DW	00H
	DW	00H
	DW	00H
	DW	00H
	DW	00H
	DW	00H
	DW	00H
	DW	00H
	DW	00H
	DW	00H
	DW	00H
	DW	00H
	DW	00H
	DW	00H
	DW	00H
	DW	00H
	DW	00H
	DW	00H
	DW	00H
	DW	00H
	DW	00H
	DW	00H
	DW	00H
	DW	00H
	DW	00H
	DW	00H
	DW	00H
	DW	00H
	DW	00H
	DW	00H
	DW	00H
	DW	00H
	DW	00H
	DW	00H
	DW	00H
	DW	00H
	DW	00H
	DW	00H
	DW	00H
	DW	00H
	DW	00H
	DW	00H
	DW	00H
	DW	00H
	DW	00H
	DW	00H
	DW	00H
	DW	00H
	DW	00H
	DW	00H
	DW	00H
	DW	00H
	DW	00H
	DW	00H
	DW	00H
	DW	00H
	DW	00H
	DW	00H
	DW	00H
	DW	00H
	DW	00H
	DW	00H
	DW	00H
	DW	00H
	DW	00H
	DW	00H
	DW	00H
	DW	00H
	DW	00H
	DW	00H
	DW	00H
	DW	00H
	DW	00H
	DW	00H
	DW	00H
	DW	00H
	DW	00H
	DW	00H
	DW	00H
	DW	00H
	DW	00H
	DW	00H
	DW	00H
	DW	00H
	DW	00H
	DW	00H
	DW	00H
	DW	00H
	DW	00H
	DW	00H
	DW	00H
	DW	00H
	DW	00H
	DW	00H
	DW	00H
	DW	00H
	DW	00H
	DW	00H
	DW	00H
	DW	00H
	DW	00H
	DW	00H
	DW	00H
	DW	00H
	DW	00H
	DW	00H
	DW	00H
	DW	00H
	DW	00H
	DW	00H
	DW	00H
	DW	00H
	DW	00H
	DW	00H
	DW	00H
	DW	00H
	DW	00H
	DW	00H
	DW	00H
	DW	00H
	DW	00H
	DW	00H
	DW	00H
	DW	00H
	DW	00H
	DW	00H
	DW	00H
	DW	00H
	DW	00H
	DW	00H
	DW	00H
	DW	00H
	DW	00H
	DW	00H
	DW	00H
	DW	00H
	DW	00H
	DW	00H
	DW	00H
	DW	00H
	DW	00H
	DW	00H
	DW	00H
	DW	00H
	DW	00H
	DW	00H
	DW	00H
	DW	00H
	DW	00H
	DW	00H
	DW	00H
	DW	00H
	DW	00H
	DW	00H
	DW	00H
	DW	00H
	DW	00H
	DW	00H
	DW	00H
	DW	00H
	DW	00H
	DW	00H
	DW	00H
	DW	00H
	DW	00H
	DW	00H
	DW	00H
	DW	00H
	DW	00H
	DW	00H
	DW	00H
	DW	00H
	DW	00H
	DW	00H
	DW	00H
	DW	00H
	DW	00H
	DW	00H
	DW	00H
	DW	00H
	DW	00H
	DW	00H
	DW	00H
	DW	00H
	DW	00H
	DW	00H
	DW	00H
	DW	00H
	DW	00H
	DW	00H
	DW	00H
	DW	00H
	DW	00H
	DW	00H
	DW	00H
	DW	00H
	DW	00H
	DW	00H
	DW	00H
	DW	00H
	DW	00H
	DW	00H
	DW	00H
	DW	00H
	DW	00H
	DW	00H
	DW	00H
	DW	00H
	DW	00H
	DW	00H
	DW	00H
	DW	00H
	DW	00H
	DW	00H
	DW	00H
	DW	00H
	DW	00H
	DW	00H
	DW	00H
	DW	00H
	DW	00H
	DW	00H
	DW	00H
	DW	00H
	DW	00H
	DW	00H
	DW	00H
	DW	00H
	DW	00H
	DW	00H
	DW	00H
	DW	00H
	DW	00H
	DW	00H
	DW	00H
	DW	00H
	DW	00H
	DW	00H
	DW	00H
	DW	00H
	DW	00H
	DW	00H
	DW	00H
	DW	00H
	DW	00H
	DW	00H
	DW	0420H
	DW	01041H
	DW	01c61H
	DW	02081H
	DW	02081H
	DW	02081H
	DW	01c81H
	DW	01c61H
	DW	01c61H
	DW	01c61H
	DW	01c61H
	DW	01c61H
	DW	01c61H
	DW	01c61H
	DW	01c61H
	DW	02061H
	DW	02061H
	DW	02081H
	DW	02081H
	DW	02481H
	DW	02481H
	DW	02881H
	DW	02ca1H
	DW	030a1H
	DW	034c1H
	DW	038c2H
	DW	03ce2H
	DW	044e2H
	DW	04902H
	DW	04d02H
	DW	05522H
	DW	05922H
	DW	05d42H
	DW	06142H
	DW	06563H
	DW	06963H
	DW	06d63H
	DW	07183H
	DW	07583H
	DW	07583H
	DW	07582H
	DW	07982H
	DW	07982H
	DW	07982H
	DW	07982H
	DW	07982H
	DW	07982H
	DW	07982H
	DW	07982H
	DW	07982H
	DW	07982H
	DW	07982H
	DW	07982H
	DW	07982H
	DW	07982H
	DW	07982H
	DW	07962H
	DW	07962H
	DW	07962H
	DW	07962H
	DW	07962H
	DW	07962H
	DW	07962H
	DW	07962H
	DW	07961H
	DW	07961H
	DW	07961H
	DW	07961H
	DW	07961H
	DW	07961H
	DW	07961H
	DW	07961H
	DW	07961H
	DW	07961H
	DW	07961H
	DW	07961H
	DW	07961H
	DW	07961H
	DW	07941H
	DW	07941H
	DW	07941H
	DW	07941H
	DW	07941H
	DW	07941H
	DW	07941H
	DW	07941H
	DW	07941H
	DW	07941H
	DW	07941H
	DW	07941H
	DW	07941H
	DW	07941H
	DW	07941H
	DW	07941H
	DW	07941H
	DW	07941H
	DW	07941H
	DW	07941H
	DW	07941H
	DW	07941H
	DW	07921H
	DW	07921H
	DW	07921H
	DW	07921H
	DW	07921H
	DW	07921H
	DW	07921H
	DW	07921H
	DW	07921H
	DW	07521H
	DW	07521H
	DW	07521H
	DW	07521H
	DW	07521H
	DW	07521H
	DW	07521H
	DW	07521H
	DW	07521H
	DW	07521H
	DW	07521H
	DW	07521H
	DW	07521H
	DW	07521H
	DW	07501H
	DW	07501H
	DW	07501H
	DW	07501H
	DW	07501H
	DW	07501H
	DW	07501H
	DW	07501H
	DW	07501H
	DW	07501H
	DW	07501H
	DW	07501H
	DW	07501H
	DW	07501H
	DW	07501H
	DW	07501H
	DW	07501H
	DW	07501H
	DW	07501H
	DW	07501H
	DW	07501H
	DW	07501H
	DW	07501H
	DW	074e1H
	DW	074e1H
	DW	074e1H
	DW	074e1H
	DW	074e1H
	DW	074e1H
	DW	074e1H
	DW	074e1H
	DW	074e1H
	DW	074e1H
	DW	074e1H
	DW	074e1H
	DW	074e1H
	DW	074e1H
	DW	074e1H
	DW	074e1H
	DW	074e1H
	DW	074e1H
	DW	074e1H
	DW	070e1H
	DW	070e1H
	DW	070e1H
	DW	070e1H
	DW	070c1H
	DW	070c1H
	DW	070c1H
	DW	070c1H
	DW	070c1H
	DW	070c1H
	DW	070c1H
	DW	070c1H
	DW	070c1H
	DW	070c1H
	DW	070c1H
	DW	070c1H
	DW	070c1H
	DW	070c1H
	DW	070c1H
	DW	070c1H
	DW	070c1H
	DW	070c1H
	DW	070c1H
	DW	070c1H
	DW	070c1H
	DW	070c1H
	DW	070c1H
	DW	070c1H
	DW	070c1H
	DW	070a1H
	DW	070a1H
	DW	070a1H
	DW	070a1H
	DW	070a1H
	DW	070a1H
	DW	070a1H
	DW	070a1H
	DW	070a1H
	DW	070a1H
	DW	070a1H
	DW	070a1H
	DW	070a1H
	DW	070a1H
	DW	078a1H
	DW	03840H
	DW	00H
	DW	00H
	DW	00H
	DW	00H
	DW	00H
	DW	00H
	DW	00H
	DW	00H
	DW	00H
	DW	00H
	DW	00H
	DW	00H
	DW	00H
	DW	00H
	DW	00H
	DW	00H
	DW	00H
	DW	00H
	DW	00H
	DW	00H
	DW	00H
	DW	00H
	DW	00H
	DW	00H
	DW	00H
	DW	00H
	DW	00H
	DW	00H
	DW	00H
	DW	00H
	DW	00H
	DW	00H
	DW	00H
	DW	00H
	DW	00H
	DW	00H
	DW	00H
	DW	00H
	DW	00H
	DW	00H
	DW	00H
	DW	00H
	DW	00H
	DW	00H
	DW	00H
	DW	00H
	DW	00H
	DW	00H
	DW	00H
	DW	00H
	DW	00H
	DW	00H
	DW	00H
	DW	00H
	DW	00H
	DW	00H
	DW	00H
	DW	00H
	DW	00H
	DW	00H
	DW	00H
	DW	00H
	DW	00H
	DW	00H
	DW	00H
	DW	00H
	DW	00H
	DW	00H
	DW	00H
	DW	00H
	DW	00H
	DW	00H
	DW	00H
	DW	00H
	DW	00H
	DW	00H
	DW	00H
	DW	00H
	DW	00H
	DW	00H
	DW	00H
	DW	00H
	DW	00H
	DW	00H
	DW	00H
	DW	00H
	DW	00H
	DW	00H
	DW	00H
	DW	00H
	DW	00H
	DW	00H
	DW	00H
	DW	00H
	DW	00H
	DW	00H
	DW	00H
	DW	00H
	DW	00H
	DW	00H
	DW	00H
	DW	00H
	DW	00H
	DW	00H
	DW	00H
	DW	00H
	DW	00H
	DW	00H
	DW	00H
	DW	00H
	DW	00H
	DW	00H
	DW	00H
	DW	00H
	DW	00H
	DW	00H
	DW	00H
	DW	00H
	DW	00H
	DW	00H
	DW	00H
	DW	00H
	DW	00H
	DW	00H
	DW	00H
	DW	00H
	DW	00H
	DW	00H
	DW	00H
	DW	00H
	DW	00H
	DW	00H
	DW	00H
	DW	00H
	DW	00H
	DW	00H
	DW	00H
	DW	00H
	DW	00H
	DW	00H
	DW	00H
	DW	00H
	DW	00H
	DW	00H
	DW	00H
	DW	00H
	DW	00H
	DW	00H
	DW	00H
	DW	00H
	DW	00H
	DW	00H
	DW	00H
	DW	00H
	DW	00H
	DW	00H
	DW	00H
	DW	00H
	DW	00H
	DW	00H
	DW	00H
	DW	00H
	DW	00H
	DW	00H
	DW	00H
	DW	00H
	DW	00H
	DW	00H
	DW	00H
	DW	00H
	DW	00H
	DW	00H
	DW	00H
	DW	00H
	DW	00H
	DW	00H
	DW	00H
	DW	00H
	DW	00H
	DW	00H
	DW	00H
	DW	00H
	DW	00H
	DW	00H
	DW	00H
	DW	00H
	DW	00H
	DW	00H
	DW	00H
	DW	00H
	DW	00H
	DW	00H
	DW	00H
	DW	00H
	DW	00H
	DW	00H
	DW	00H
	DW	00H
	DW	00H
	DW	00H
	DW	00H
	DW	00H
	DW	00H
	DW	00H
	DW	00H
	DW	00H
	DW	00H
	DW	00H
	DW	00H
	DW	00H
	DW	00H
	DW	00H
	DW	00H
	DW	00H
	DW	00H
	DW	00H
	DW	00H
	DW	00H
	DW	00H
	DW	00H
	DW	00H
	DW	00H
	DW	00H
	DW	00H
	DW	00H
	DW	00H
	DW	00H
	DW	00H
	DW	00H
	DW	00H
	DW	00H
	DW	00H
	DW	00H
	DW	00H
	DW	00H
	DW	00H
	DW	00H
	DW	00H
	DW	00H
	DW	00H
	DW	00H
	DW	00H
	DW	00H
	DW	00H
	DW	00H
	DW	00H
	DW	00H
	DW	00H
	DW	00H
	DW	00H
	DW	00H
	DW	00H
	DW	00H
	DW	00H
	DW	00H
	DW	00H
	DW	00H
	DW	00H
	DW	00H
	DW	00H
	DW	00H
	DW	00H
	DW	00H
	DW	00H
	DW	00H
	DW	00H
	DW	00H
	DW	0400H
	DW	0c40H
	DW	01861H
	DW	02081H
	DW	02081H
	DW	02081H
	DW	01c81H
	DW	01c81H
	DW	01c61H
	DW	01c61H
	DW	01c61H
	DW	01c61H
	DW	01c61H
	DW	01c61H
	DW	01c61H
	DW	02061H
	DW	02061H
	DW	02081H
	DW	02081H
	DW	02481H
	DW	02481H
	DW	02881H
	DW	02ca1H
	DW	030a2H
	DW	034c2H
	DW	038c2H
	DW	03ce2H
	DW	044e2H
	DW	04902H
	DW	05102H
	DW	05522H
	DW	05942H
	DW	06143H
	DW	06543H
	DW	06963H
	DW	06d63H
	DW	06d63H
	DW	07183H
	DW	07583H
	DW	07583H
	DW	07983H
	DW	07983H
	DW	07983H
	DW	07982H
	DW	07982H
	DW	07982H
	DW	07982H
	DW	07982H
	DW	07982H
	DW	07982H
	DW	07982H
	DW	07982H
	DW	07982H
	DW	07982H
	DW	07982H
	DW	07982H
	DW	07982H
	DW	07962H
	DW	07962H
	DW	07962H
	DW	07962H
	DW	07962H
	DW	07962H
	DW	07962H
	DW	07962H
	DW	07961H
	DW	07961H
	DW	07961H
	DW	07961H
	DW	07961H
	DW	07961H
	DW	07961H
	DW	07961H
	DW	07961H
	DW	07961H
	DW	07961H
	DW	07961H
	DW	07961H
	DW	07961H
	DW	07941H
	DW	07941H
	DW	07941H
	DW	07941H
	DW	07941H
	DW	07941H
	DW	07941H
	DW	07941H
	DW	07941H
	DW	07941H
	DW	07941H
	DW	07941H
	DW	07941H
	DW	07941H
	DW	07941H
	DW	07941H
	DW	07941H
	DW	07941H
	DW	07941H
	DW	07941H
	DW	07941H
	DW	07941H
	DW	07941H
	DW	07921H
	DW	07921H
	DW	07921H
	DW	07921H
	DW	07921H
	DW	07921H
	DW	07921H
	DW	07921H
	DW	07921H
	DW	07521H
	DW	07521H
	DW	07521H
	DW	07521H
	DW	07521H
	DW	07521H
	DW	07521H
	DW	07521H
	DW	07521H
	DW	07521H
	DW	07521H
	DW	07521H
	DW	07521H
	DW	07501H
	DW	07501H
	DW	07501H
	DW	07501H
	DW	07501H
	DW	07501H
	DW	07501H
	DW	07501H
	DW	07501H
	DW	07501H
	DW	07501H
	DW	07501H
	DW	07501H
	DW	07501H
	DW	07501H
	DW	07501H
	DW	07501H
	DW	07501H
	DW	07501H
	DW	07501H
	DW	07501H
	DW	07501H
	DW	07501H
	DW	074e1H
	DW	074e1H
	DW	074e1H
	DW	074e1H
	DW	074e1H
	DW	074e1H
	DW	074e1H
	DW	074e1H
	DW	074e1H
	DW	074e1H
	DW	074e1H
	DW	074e1H
	DW	074e1H
	DW	074e1H
	DW	074e1H
	DW	074e1H
	DW	074e1H
	DW	074e1H
	DW	074e1H
	DW	070e1H
	DW	070e1H
	DW	070e1H
	DW	070e1H
	DW	070e1H
	DW	070c1H
	DW	070c1H
	DW	070c1H
	DW	070c1H
	DW	070c1H
	DW	070c1H
	DW	070c1H
	DW	070c1H
	DW	070c1H
	DW	070c1H
	DW	070c1H
	DW	070c1H
	DW	070c1H
	DW	070c1H
	DW	070c1H
	DW	070c1H
	DW	070c1H
	DW	070c1H
	DW	070c1H
	DW	070c1H
	DW	070c1H
	DW	070c1H
	DW	070c1H
	DW	070c1H
	DW	070c1H
	DW	070a1H
	DW	070a1H
	DW	070a1H
	DW	070a1H
	DW	070a1H
	DW	070a1H
	DW	070a1H
	DW	070a1H
	DW	070a1H
	DW	070a1H
	DW	070a1H
	DW	070a1H
	DW	070a1H
	DW	070a1H
	DW	070a1H
	DW	078a1H
	DW	03840H
	DW	00H
	DW	00H
	DW	00H
	DW	00H
	DW	00H
	DW	00H
	DW	00H
	DW	00H
	DW	00H
	DW	00H
	DW	00H
	DW	00H
	DW	00H
	DW	00H
	DW	00H
	DW	00H
	DW	00H
	DW	00H
	DW	00H
	DW	00H
	DW	00H
	DW	00H
	DW	00H
	DW	00H
	DW	00H
	DW	00H
	DW	00H
	DW	00H
	DW	00H
	DW	00H
	DW	00H
	DW	00H
	DW	00H
	DW	00H
	DW	00H
	DW	00H
	DW	00H
	DW	00H
	DW	00H
	DW	00H
	DW	00H
	DW	00H
	DW	00H
	DW	00H
	DW	00H
	DW	00H
	DW	00H
	DW	00H
	DW	00H
	DW	00H
	DW	00H
	DW	00H
	DW	00H
	DW	00H
	DW	00H
	DW	00H
	DW	00H
	DW	00H
	DW	00H
	DW	00H
	DW	00H
	DW	00H
	DW	00H
	DW	00H
	DW	00H
	DW	00H
	DW	00H
	DW	00H
	DW	00H
	DW	00H
	DW	00H
	DW	00H
	DW	00H
	DW	00H
	DW	00H
	DW	00H
	DW	00H
	DW	00H
	DW	00H
	DW	00H
	DW	00H
	DW	00H
	DW	00H
	DW	00H
	DW	00H
	DW	00H
	DW	00H
	DW	00H
	DW	00H
	DW	00H
	DW	00H
	DW	00H
	DW	00H
	DW	00H
	DW	00H
	DW	00H
	DW	00H
	DW	00H
	DW	00H
	DW	00H
	DW	00H
	DW	00H
	DW	00H
	DW	00H
	DW	00H
	DW	00H
	DW	00H
	DW	00H
	DW	00H
	DW	00H
	DW	00H
	DW	00H
	DW	00H
	DW	00H
	DW	00H
	DW	00H
	DW	00H
	DW	00H
	DW	00H
	DW	00H
	DW	00H
	DW	00H
	DW	00H
	DW	00H
	DW	00H
	DW	00H
	DW	00H
	DW	00H
	DW	00H
	DW	00H
	DW	00H
	DW	00H
	DW	00H
	DW	00H
	DW	00H
	DW	00H
	DW	00H
	DW	00H
	DW	00H
	DW	00H
	DW	00H
	DW	00H
	DW	00H
	DW	00H
	DW	00H
	DW	00H
	DW	00H
	DW	00H
	DW	00H
	DW	00H
	DW	00H
	DW	00H
	DW	00H
	DW	00H
	DW	00H
	DW	00H
	DW	00H
	DW	00H
	DW	00H
	DW	00H
	DW	00H
	DW	00H
	DW	00H
	DW	00H
	DW	00H
	DW	00H
	DW	00H
	DW	00H
	DW	00H
	DW	00H
	DW	00H
	DW	00H
	DW	00H
	DW	00H
	DW	00H
	DW	00H
	DW	00H
	DW	00H
	DW	00H
	DW	00H
	DW	00H
	DW	00H
	DW	00H
	DW	00H
	DW	00H
	DW	00H
	DW	00H
	DW	00H
	DW	00H
	DW	00H
	DW	00H
	DW	00H
	DW	00H
	DW	00H
	DW	00H
	DW	00H
	DW	00H
	DW	00H
	DW	00H
	DW	00H
	DW	00H
	DW	00H
	DW	00H
	DW	00H
	DW	00H
	DW	00H
	DW	00H
	DW	00H
	DW	00H
	DW	00H
	DW	00H
	DW	00H
	DW	00H
	DW	00H
	DW	00H
	DW	00H
	DW	00H
	DW	00H
	DW	00H
	DW	00H
	DW	00H
	DW	00H
	DW	00H
	DW	00H
	DW	00H
	DW	00H
	DW	00H
	DW	00H
	DW	00H
	DW	00H
	DW	00H
	DW	00H
	DW	00H
	DW	00H
	DW	00H
	DW	00H
	DW	00H
	DW	00H
	DW	00H
	DW	00H
	DW	00H
	DW	00H
	DW	00H
	DW	00H
	DW	00H
	DW	00H
	DW	00H
	DW	00H
	DW	00H
	DW	00H
	DW	00H
	DW	00H
	DW	00H
	DW	00H
	DW	00H
	DW	00H
	DW	00H
	DW	00H
	DW	00H
	DW	00H
	DW	00H
	DW	00H
	DW	00H
	DW	00H
	DW	00H
	DW	0820H
	DW	01441H
	DW	01c81H
	DW	02081H
	DW	02081H
	DW	01c81H
	DW	01c81H
	DW	01c81H
	DW	01c81H
	DW	01c61H
	DW	01c61H
	DW	01c61H
	DW	01c61H
	DW	01c61H
	DW	02061H
	DW	02061H
	DW	02081H
	DW	02081H
	DW	02481H
	DW	02481H
	DW	02881H
	DW	02ca1H
	DW	030a1H
	DW	034c2H
	DW	038c2H
	DW	03ce2H
	DW	044e2H
	DW	04902H
	DW	05122H
	DW	05522H
	DW	05943H
	DW	06143H
	DW	06563H
	DW	06963H
	DW	06d63H
	DW	07183H
	DW	07183H
	DW	07583H
	DW	07583H
	DW	07983H
	DW	07983H
	DW	07983H
	DW	07983H
	DW	07983H
	DW	07982H
	DW	07982H
	DW	07982H
	DW	07982H
	DW	07982H
	DW	07982H
	DW	07982H
	DW	07982H
	DW	07982H
	DW	07982H
	DW	07982H
	DW	07982H
	DW	07982H
	DW	07982H
	DW	07982H
	DW	07962H
	DW	07962H
	DW	07962H
	DW	07962H
	DW	07962H
	DW	07962H
	DW	07962H
	DW	07961H
	DW	07961H
	DW	07961H
	DW	07961H
	DW	07961H
	DW	07961H
	DW	07961H
	DW	07961H
	DW	07961H
	DW	07961H
	DW	07961H
	DW	07961H
	DW	07961H
	DW	07961H
	DW	07941H
	DW	07941H
	DW	07941H
	DW	07941H
	DW	07941H
	DW	07941H
	DW	07941H
	DW	07941H
	DW	07941H
	DW	07941H
	DW	07941H
	DW	07941H
	DW	07941H
	DW	07941H
	DW	07941H
	DW	07941H
	DW	07941H
	DW	07941H
	DW	07941H
	DW	07941H
	DW	07941H
	DW	07941H
	DW	07921H
	DW	07921H
	DW	07921H
	DW	07921H
	DW	07921H
	DW	07921H
	DW	07921H
	DW	07921H
	DW	07921H
	DW	07921H
	DW	07521H
	DW	07521H
	DW	07521H
	DW	07521H
	DW	07521H
	DW	07521H
	DW	07521H
	DW	07521H
	DW	07521H
	DW	07521H
	DW	07521H
	DW	07521H
	DW	07521H
	DW	07501H
	DW	07501H
	DW	07501H
	DW	07501H
	DW	07501H
	DW	07501H
	DW	07501H
	DW	07501H
	DW	07501H
	DW	07501H
	DW	07501H
	DW	07501H
	DW	07501H
	DW	07501H
	DW	07501H
	DW	07501H
	DW	07501H
	DW	07501H
	DW	07501H
	DW	07501H
	DW	07501H
	DW	07501H
	DW	07501H
	DW	07501H
	DW	074e1H
	DW	074e1H
	DW	074e1H
	DW	074e1H
	DW	074e1H
	DW	074e1H
	DW	074e1H
	DW	074e1H
	DW	074e1H
	DW	074e1H
	DW	074e1H
	DW	074e1H
	DW	074e1H
	DW	074e1H
	DW	074e1H
	DW	074e1H
	DW	074e1H
	DW	074e1H
	DW	074e1H
	DW	070e1H
	DW	070e1H
	DW	070e1H
	DW	070e1H
	DW	070c1H
	DW	070c1H
	DW	070c1H
	DW	070c1H
	DW	070c1H
	DW	070c1H
	DW	070c1H
	DW	070c1H
	DW	070c1H
	DW	070c1H
	DW	070c1H
	DW	070c1H
	DW	070c1H
	DW	070c1H
	DW	070c1H
	DW	070c1H
	DW	070c1H
	DW	070c1H
	DW	070c1H
	DW	070c1H
	DW	070c1H
	DW	070c1H
	DW	070c1H
	DW	070c1H
	DW	070c1H
	DW	070a1H
	DW	070a1H
	DW	070a1H
	DW	070a1H
	DW	070a1H
	DW	070a1H
	DW	070a1H
	DW	070a1H
	DW	070a1H
	DW	070a1H
	DW	070a1H
	DW	070a1H
	DW	070a1H
	DW	070a1H
	DW	070a1H
	DW	070a1H
	DW	078a1H
	DW	03840H
	DW	00H
	DW	00H
	DW	00H
	DW	00H
	DW	00H
	DW	00H
	DW	00H
	DW	00H
	DW	00H
	DW	00H
	DW	00H
	DW	00H
	DW	00H
	DW	00H
	DW	00H
	DW	00H
	DW	00H
	DW	00H
	DW	00H
	DW	00H
	DW	00H
	DW	00H
	DW	00H
	DW	00H
	DW	00H
	DW	00H
	DW	00H
	DW	00H
	DW	00H
	DW	00H
	DW	00H
	DW	00H
	DW	00H
	DW	00H
	DW	00H
	DW	00H
	DW	00H
	DW	00H
	DW	00H
	DW	00H
	DW	00H
	DW	00H
	DW	00H
	DW	00H
	DW	00H
	DW	00H
	DW	00H
	DW	00H
	DW	00H
	DW	00H
	DW	00H
	DW	00H
	DW	00H
	DW	00H
	DW	00H
	DW	00H
	DW	00H
	DW	00H
	DW	00H
	DW	00H
	DW	00H
	DW	00H
	DW	00H
	DW	00H
	DW	00H
	DW	00H
	DW	00H
	DW	00H
	DW	00H
	DW	00H
	DW	00H
	DW	00H
	DW	00H
	DW	00H
	DW	00H
	DW	00H
	DW	00H
	DW	00H
	DW	00H
	DW	00H
	DW	00H
	DW	00H
	DW	00H
	DW	00H
	DW	00H
	DW	00H
	DW	00H
	DW	00H
	DW	00H
	DW	00H
	DW	00H
	DW	00H
	DW	00H
	DW	00H
	DW	00H
	DW	00H
	DW	00H
	DW	00H
	DW	00H
	DW	00H
	DW	00H
	DW	00H
	DW	00H
	DW	00H
	DW	00H
	DW	00H
	DW	00H
	DW	00H
	DW	00H
	DW	00H
	DW	00H
	DW	00H
	DW	00H
	DW	00H
	DW	00H
	DW	00H
	DW	00H
	DW	00H
	DW	00H
	DW	00H
	DW	00H
	DW	00H
	DW	00H
	DW	00H
	DW	00H
	DW	00H
	DW	00H
	DW	00H
	DW	00H
	DW	00H
	DW	00H
	DW	00H
	DW	00H
	DW	00H
	DW	00H
	DW	00H
	DW	00H
	DW	00H
	DW	00H
	DW	00H
	DW	00H
	DW	00H
	DW	00H
	DW	00H
	DW	00H
	DW	00H
	DW	00H
	DW	00H
	DW	00H
	DW	00H
	DW	00H
	DW	00H
	DW	00H
	DW	00H
	DW	00H
	DW	00H
	DW	00H
	DW	00H
	DW	00H
	DW	00H
	DW	00H
	DW	00H
	DW	00H
	DW	00H
	DW	00H
	DW	00H
	DW	00H
	DW	00H
	DW	00H
	DW	00H
	DW	00H
	DW	00H
	DW	00H
	DW	00H
	DW	00H
	DW	00H
	DW	00H
	DW	00H
	DW	00H
	DW	00H
	DW	00H
	DW	00H
	DW	00H
	DW	00H
	DW	00H
	DW	00H
	DW	00H
	DW	00H
	DW	00H
	DW	00H
	DW	00H
	DW	00H
	DW	00H
	DW	00H
	DW	00H
	DW	00H
	DW	00H
	DW	00H
	DW	00H
	DW	00H
	DW	00H
	DW	00H
	DW	00H
	DW	00H
	DW	00H
	DW	00H
	DW	00H
	DW	00H
	DW	00H
	DW	00H
	DW	00H
	DW	00H
	DW	00H
	DW	00H
	DW	00H
	DW	00H
	DW	00H
	DW	00H
	DW	00H
	DW	00H
	DW	00H
	DW	00H
	DW	00H
	DW	00H
	DW	00H
	DW	00H
	DW	00H
	DW	00H
	DW	00H
	DW	00H
	DW	00H
	DW	00H
	DW	00H
	DW	00H
	DW	00H
	DW	00H
	DW	00H
	DW	00H
	DW	00H
	DW	00H
	DW	00H
	DW	00H
	DW	00H
	DW	00H
	DW	00H
	DW	00H
	DW	00H
	DW	00H
	DW	00H
	DW	00H
	DW	00H
	DW	00H
	DW	00H
	DW	00H
	DW	00H
	DW	00H
	DW	00H
	DW	00H
	DW	00H
	DW	00H
	DW	00H
	DW	00H
	DW	0400H
	DW	01040H
	DW	01861H
	DW	02081H
	DW	02082H
	DW	02081H
	DW	01c81H
	DW	01c81H
	DW	01c81H
	DW	01c81H
	DW	01c81H
	DW	01c61H
	DW	01c61H
	DW	01c61H
	DW	01c61H
	DW	02061H
	DW	02081H
	DW	02081H
	DW	02481H
	DW	02481H
	DW	02881H
	DW	02ca1H
	DW	02ca2H
	DW	034c2H
	DW	038c2H
	DW	03ce2H
	DW	040e2H
	DW	04902H
	DW	04d22H
	DW	05523H
	DW	05943H
	DW	06143H
	DW	06563H
	DW	06963H
	DW	06d83H
	DW	07183H
	DW	07183H
	DW	07583H
	DW	07583H
	DW	07983H
	DW	07983H
	DW	07983H
	DW	07983H
	DW	07983H
	DW	07983H
	DW	07983H
	DW	07982H
	DW	07982H
	DW	07982H
	DW	07982H
	DW	07982H
	DW	07982H
	DW	07982H
	DW	07982H
	DW	07982H
	DW	07982H
	DW	07982H
	DW	07982H
	DW	07982H
	DW	07982H
	DW	07962H
	DW	07962H
	DW	07962H
	DW	07962H
	DW	07962H
	DW	07962H
	DW	07962H
	DW	07962H
	DW	07961H
	DW	07961H
	DW	07961H
	DW	07961H
	DW	07961H
	DW	07961H
	DW	07961H
	DW	07961H
	DW	07961H
	DW	07961H
	DW	07961H
	DW	07961H
	DW	07961H
	DW	07961H
	DW	07941H
	DW	07941H
	DW	07941H
	DW	07941H
	DW	07941H
	DW	07941H
	DW	07941H
	DW	07941H
	DW	07941H
	DW	07941H
	DW	07941H
	DW	07941H
	DW	07941H
	DW	07941H
	DW	07941H
	DW	07941H
	DW	07941H
	DW	07941H
	DW	07941H
	DW	07941H
	DW	07941H
	DW	07941H
	DW	07921H
	DW	07921H
	DW	07921H
	DW	07921H
	DW	07921H
	DW	07921H
	DW	07921H
	DW	07921H
	DW	07921H
	DW	07521H
	DW	07521H
	DW	07521H
	DW	07521H
	DW	07521H
	DW	07521H
	DW	07521H
	DW	07521H
	DW	07521H
	DW	07521H
	DW	07521H
	DW	07521H
	DW	07521H
	DW	07501H
	DW	07501H
	DW	07501H
	DW	07501H
	DW	07501H
	DW	07501H
	DW	07501H
	DW	07501H
	DW	07501H
	DW	07501H
	DW	07501H
	DW	07501H
	DW	07501H
	DW	07501H
	DW	07501H
	DW	07501H
	DW	07501H
	DW	07501H
	DW	07501H
	DW	07501H
	DW	07501H
	DW	07501H
	DW	07501H
	DW	07501H
	DW	074e1H
	DW	074e1H
	DW	074e1H
	DW	074e1H
	DW	074e1H
	DW	074e1H
	DW	074e1H
	DW	074e1H
	DW	074e1H
	DW	074e1H
	DW	074e1H
	DW	074e1H
	DW	074e1H
	DW	074e1H
	DW	074e1H
	DW	074e1H
	DW	074e1H
	DW	074e1H
	DW	074e1H
	DW	070e1H
	DW	070e1H
	DW	070e1H
	DW	070e1H
	DW	070c1H
	DW	070c1H
	DW	070c1H
	DW	070c1H
	DW	070c1H
	DW	070c1H
	DW	070c1H
	DW	070c1H
	DW	070c1H
	DW	070c1H
	DW	070c1H
	DW	070c1H
	DW	070c1H
	DW	070c1H
	DW	070c1H
	DW	070c1H
	DW	070c1H
	DW	070c1H
	DW	070c1H
	DW	070c1H
	DW	070c1H
	DW	070c1H
	DW	070c1H
	DW	070c1H
	DW	070c1H
	DW	070a1H
	DW	070a1H
	DW	070a1H
	DW	070a1H
	DW	070a1H
	DW	070a1H
	DW	070a1H
	DW	070a1H
	DW	070a1H
	DW	070a1H
	DW	070a1H
	DW	070a1H
	DW	070a1H
	DW	070a1H
	DW	070a1H
	DW	070a1H
	DW	070a1H
	DW	070a1H
	DW	078a1H
	DW	03840H
	DW	00H
	DW	00H
	DW	00H
	DW	00H
	DW	00H
	DW	00H
	DW	00H
	DW	00H
	DW	00H
	DW	00H
	DW	00H
	DW	00H
	DW	00H
	DW	00H
	DW	00H
	DW	00H
	DW	00H
	DW	00H
	DW	00H
	DW	00H
	DW	00H
	DW	00H
	DW	00H
	DW	00H
	DW	00H
	DW	00H
	DW	00H
	DW	00H
	DW	00H
	DW	00H
	DW	00H
	DW	00H
	DW	00H
	DW	00H
	DW	00H
	DW	00H
	DW	00H
	DW	00H
	DW	00H
	DW	00H
	DW	00H
	DW	00H
	DW	00H
	DW	00H
	DW	00H
	DW	00H
	DW	00H
	DW	00H
	DW	00H
	DW	00H
	DW	00H
	DW	00H
	DW	00H
	DW	00H
	DW	00H
	DW	00H
	DW	00H
	DW	00H
	DW	00H
	DW	00H
	DW	00H
	DW	00H
	DW	00H
	DW	00H
	DW	00H
	DW	00H
	DW	00H
	DW	00H
	DW	00H
	DW	00H
	DW	00H
	DW	00H
	DW	00H
	DW	00H
	DW	00H
	DW	00H
	DW	00H
	DW	00H
	DW	00H
	DW	00H
	DW	00H
	DW	00H
	DW	00H
	DW	00H
	DW	00H
	DW	00H
	DW	00H
	DW	00H
	DW	00H
	DW	00H
	DW	00H
	DW	00H
	DW	00H
	DW	00H
	DW	00H
	DW	00H
	DW	00H
	DW	00H
	DW	00H
	DW	00H
	DW	00H
	DW	00H
	DW	00H
	DW	00H
	DW	00H
	DW	00H
	DW	00H
	DW	00H
	DW	00H
	DW	00H
	DW	00H
	DW	00H
	DW	00H
	DW	00H
	DW	00H
	DW	00H
	DW	00H
	DW	00H
	DW	00H
	DW	00H
	DW	00H
	DW	00H
	DW	00H
	DW	00H
	DW	00H
	DW	00H
	DW	00H
	DW	00H
	DW	00H
	DW	00H
	DW	00H
	DW	00H
	DW	00H
	DW	00H
	DW	00H
	DW	00H
	DW	00H
	DW	00H
	DW	00H
	DW	00H
	DW	00H
	DW	00H
	DW	00H
	DW	00H
	DW	00H
	DW	00H
	DW	00H
	DW	00H
	DW	00H
	DW	00H
	DW	00H
	DW	00H
	DW	00H
	DW	00H
	DW	00H
	DW	00H
	DW	00H
	DW	00H
	DW	00H
	DW	00H
	DW	00H
	DW	00H
	DW	00H
	DW	00H
	DW	00H
	DW	00H
	DW	00H
	DW	00H
	DW	00H
	DW	00H
	DW	00H
	DW	00H
	DW	00H
	DW	00H
	DW	00H
	DW	00H
	DW	00H
	DW	00H
	DW	00H
	DW	00H
	DW	00H
	DW	00H
	DW	00H
	DW	00H
	DW	00H
	DW	00H
	DW	00H
	DW	00H
	DW	00H
	DW	00H
	DW	00H
	DW	00H
	DW	00H
	DW	00H
	DW	00H
	DW	00H
	DW	00H
	DW	00H
	DW	00H
	DW	00H
	DW	00H
	DW	00H
	DW	00H
	DW	00H
	DW	00H
	DW	00H
	DW	00H
	DW	00H
	DW	00H
	DW	00H
	DW	00H
	DW	00H
	DW	00H
	DW	00H
	DW	00H
	DW	00H
	DW	00H
	DW	00H
	DW	00H
	DW	00H
	DW	00H
	DW	00H
	DW	00H
	DW	00H
	DW	00H
	DW	00H
	DW	00H
	DW	00H
	DW	00H
	DW	00H
	DW	00H
	DW	00H
	DW	00H
	DW	00H
	DW	00H
	DW	00H
	DW	00H
	DW	00H
	DW	00H
	DW	00H
	DW	00H
	DW	00H
	DW	00H
	DW	00H
	DW	00H
	DW	00H
	DW	00H
	DW	00H
	DW	00H
	DW	00H
	DW	00H
	DW	00H
	DW	00H
	DW	00H
	DW	00H
	DW	00H
	DW	00H
	DW	00H
	DW	00H
	DW	00H
	DW	0820H
	DW	01441H
	DW	01c81H
	DW	02082H
	DW	02082H
	DW	02081H
	DW	01c81H
	DW	01c81H
	DW	01c81H
	DW	01c81H
	DW	01c81H
	DW	01c61H
	DW	01c61H
	DW	01c61H
	DW	02081H
	DW	02081H
	DW	02081H
	DW	02481H
	DW	02481H
	DW	02881H
	DW	02ca2H
	DW	02ca2H
	DW	030c2H
	DW	038c2H
	DW	03ce2H
	DW	040e2H
	DW	04902H
	DW	04d23H
	DW	05523H
	DW	05943H
	DW	06143H
	DW	06563H
	DW	06963H
	DW	06d83H
	DW	07183H
	DW	07183H
	DW	07583H
	DW	07983H
	DW	079a3H
	DW	079a3H
	DW	079a3H
	DW	079a3H
	DW	079a3H
	DW	07983H
	DW	07983H
	DW	07983H
	DW	07982H
	DW	07982H
	DW	07982H
	DW	07982H
	DW	07982H
	DW	07982H
	DW	07982H
	DW	07982H
	DW	07982H
	DW	07982H
	DW	07982H
	DW	07982H
	DW	07982H
	DW	07982H
	DW	07962H
	DW	07962H
	DW	07962H
	DW	07962H
	DW	07962H
	DW	07962H
	DW	07962H
	DW	07962H
	DW	07961H
	DW	07961H
	DW	07961H
	DW	07961H
	DW	07961H
	DW	07961H
	DW	07961H
	DW	07961H
	DW	07961H
	DW	07961H
	DW	07961H
	DW	07961H
	DW	07961H
	DW	07961H
	DW	07941H
	DW	07941H
	DW	07941H
	DW	07941H
	DW	07941H
	DW	07941H
	DW	07941H
	DW	07941H
	DW	07941H
	DW	07941H
	DW	07941H
	DW	07941H
	DW	07941H
	DW	07941H
	DW	07941H
	DW	07941H
	DW	07941H
	DW	07941H
	DW	07941H
	DW	07941H
	DW	07941H
	DW	07941H
	DW	07921H
	DW	07921H
	DW	07921H
	DW	07921H
	DW	07921H
	DW	07921H
	DW	07921H
	DW	07921H
	DW	07921H
	DW	07521H
	DW	07521H
	DW	07521H
	DW	07521H
	DW	07521H
	DW	07521H
	DW	07521H
	DW	07521H
	DW	07521H
	DW	07521H
	DW	07521H
	DW	07521H
	DW	07521H
	DW	07521H
	DW	07501H
	DW	07501H
	DW	07501H
	DW	07501H
	DW	07501H
	DW	07501H
	DW	07501H
	DW	07501H
	DW	07501H
	DW	07501H
	DW	07501H
	DW	07501H
	DW	07501H
	DW	07501H
	DW	07501H
	DW	07501H
	DW	07501H
	DW	07501H
	DW	07501H
	DW	07501H
	DW	07501H
	DW	07501H
	DW	07501H
	DW	074e1H
	DW	074e1H
	DW	074e1H
	DW	074e1H
	DW	074e1H
	DW	074e1H
	DW	074e1H
	DW	074e1H
	DW	074e1H
	DW	074e1H
	DW	074e1H
	DW	074e1H
	DW	074e1H
	DW	074e1H
	DW	074e1H
	DW	074e1H
	DW	074e1H
	DW	074e1H
	DW	074e1H
	DW	070e1H
	DW	070e1H
	DW	070e1H
	DW	070e1H
	DW	070c1H
	DW	070c1H
	DW	070c1H
	DW	070c1H
	DW	070c1H
	DW	070c1H
	DW	070c1H
	DW	070c1H
	DW	070c1H
	DW	070c1H
	DW	070c1H
	DW	070c1H
	DW	070c1H
	DW	070c1H
	DW	070c1H
	DW	070c1H
	DW	070c1H
	DW	070c1H
	DW	070c1H
	DW	070c1H
	DW	070c1H
	DW	070c1H
	DW	070c1H
	DW	070c1H
	DW	070c1H
	DW	070a1H
	DW	070a1H
	DW	070a1H
	DW	070a1H
	DW	070a1H
	DW	070a1H
	DW	070a1H
	DW	070a1H
	DW	070a1H
	DW	070a1H
	DW	070a1H
	DW	070a1H
	DW	070a1H
	DW	070a1H
	DW	070a1H
	DW	070a1H
	DW	070a1H
	DW	070a1H
	DW	070a1H
	DW	070a1H
	DW	078a1H
	DW	03840H
	DW	00H
	DW	00H
	DW	00H
	DW	00H
	DW	00H
	DW	00H
	DW	00H
	DW	00H
	DW	00H
	DW	00H
	DW	00H
	DW	00H
	DW	00H
	DW	00H
	DW	00H
	DW	00H
	DW	00H
	DW	00H
	DW	00H
	DW	00H
	DW	00H
	DW	00H
	DW	00H
	DW	00H
	DW	00H
	DW	00H
	DW	00H
	DW	00H
	DW	00H
	DW	00H
	DW	00H
	DW	00H
	DW	00H
	DW	00H
	DW	00H
	DW	00H
	DW	00H
	DW	00H
	DW	00H
	DW	00H
	DW	00H
	DW	00H
	DW	00H
	DW	00H
	DW	00H
	DW	00H
	DW	00H
	DW	00H
	DW	00H
	DW	00H
	DW	00H
	DW	00H
	DW	00H
	DW	00H
	DW	00H
	DW	00H
	DW	00H
	DW	00H
	DW	00H
	DW	00H
	DW	00H
	DW	00H
	DW	00H
	DW	00H
	DW	00H
	DW	00H
	DW	00H
	DW	00H
	DW	00H
	DW	00H
	DW	00H
	DW	00H
	DW	00H
	DW	00H
	DW	00H
	DW	00H
	DW	00H
	DW	00H
	DW	00H
	DW	00H
	DW	00H
	DW	00H
	DW	00H
	DW	00H
	DW	00H
	DW	00H
	DW	00H
	DW	00H
	DW	00H
	DW	00H
	DW	00H
	DW	00H
	DW	00H
	DW	00H
	DW	00H
	DW	00H
	DW	00H
	DW	00H
	DW	00H
	DW	00H
	DW	00H
	DW	00H
	DW	00H
	DW	00H
	DW	00H
	DW	00H
	DW	00H
	DW	00H
	DW	00H
	DW	00H
	DW	00H
	DW	00H
	DW	00H
	DW	00H
	DW	00H
	DW	00H
	DW	00H
	DW	00H
	DW	00H
	DW	00H
	DW	00H
	DW	00H
	DW	00H
	DW	00H
	DW	00H
	DW	00H
	DW	00H
	DW	00H
	DW	00H
	DW	00H
	DW	00H
	DW	00H
	DW	00H
	DW	00H
	DW	00H
	DW	00H
	DW	00H
	DW	00H
	DW	00H
	DW	00H
	DW	00H
	DW	00H
	DW	00H
	DW	00H
	DW	00H
	DW	00H
	DW	00H
	DW	00H
	DW	00H
	DW	00H
	DW	00H
	DW	00H
	DW	00H
	DW	00H
	DW	00H
	DW	00H
	DW	00H
	DW	00H
	DW	00H
	DW	00H
	DW	00H
	DW	00H
	DW	00H
	DW	00H
	DW	00H
	DW	00H
	DW	00H
	DW	00H
	DW	00H
	DW	00H
	DW	00H
	DW	00H
	DW	00H
	DW	00H
	DW	00H
	DW	00H
	DW	00H
	DW	00H
	DW	00H
	DW	00H
	DW	00H
	DW	00H
	DW	00H
	DW	00H
	DW	00H
	DW	00H
	DW	00H
	DW	00H
	DW	00H
	DW	00H
	DW	00H
	DW	00H
	DW	00H
	DW	00H
	DW	00H
	DW	00H
	DW	00H
	DW	00H
	DW	00H
	DW	00H
	DW	00H
	DW	00H
	DW	00H
	DW	00H
	DW	00H
	DW	00H
	DW	00H
	DW	00H
	DW	00H
	DW	00H
	DW	00H
	DW	00H
	DW	00H
	DW	00H
	DW	00H
	DW	00H
	DW	00H
	DW	00H
	DW	00H
	DW	00H
	DW	00H
	DW	00H
	DW	00H
	DW	00H
	DW	00H
	DW	00H
	DW	00H
	DW	00H
	DW	00H
	DW	00H
	DW	00H
	DW	00H
	DW	00H
	DW	00H
	DW	00H
	DW	00H
	DW	00H
	DW	00H
	DW	00H
	DW	00H
	DW	00H
	DW	00H
	DW	00H
	DW	00H
	DW	00H
	DW	00H
	DW	00H
	DW	00H
	DW	00H
	DW	00H
	DW	00H
	DW	00H
	DW	00H
	DW	00H
	DW	00H
	DW	00H
	DW	00H
	DW	0400H
	DW	0c40H
	DW	01861H
	DW	02082H
	DW	02082H
	DW	02081H
	DW	01c81H
	DW	01c81H
	DW	01c81H
	DW	01c81H
	DW	01c81H
	DW	01c81H
	DW	01c81H
	DW	01c81H
	DW	02061H
	DW	02081H
	DW	02081H
	DW	02081H
	DW	02481H
	DW	02481H
	DW	028a1H
	DW	02ca2H
	DW	030c2H
	DW	034c2H
	DW	03ce2H
	DW	040e2H
	DW	04902H
	DW	04d23H
	DW	05123H
	DW	05943H
	DW	05d43H
	DW	06563H
	DW	06963H
	DW	06d83H
	DW	07183H
	DW	07183H
	DW	075a3H
	DW	075a3H
	DW	079a3H
	DW	079a3H
	DW	079a3H
	DW	079a3H
	DW	079a3H
	DW	079a3H
	DW	079a3H
	DW	07983H
	DW	07983H
	DW	07983H
	DW	07982H
	DW	07982H
	DW	07982H
	DW	07982H
	DW	07982H
	DW	07982H
	DW	07982H
	DW	07982H
	DW	07982H
	DW	07982H
	DW	07982H
	DW	07982H
	DW	07982H
	DW	07982H
	DW	07962H
	DW	07962H
	DW	07962H
	DW	07962H
	DW	07962H
	DW	07962H
	DW	07962H
	DW	07962H
	DW	07961H
	DW	07961H
	DW	07961H
	DW	07961H
	DW	07961H
	DW	07961H
	DW	07961H
	DW	07961H
	DW	07961H
	DW	07961H
	DW	07961H
	DW	07961H
	DW	07961H
	DW	07961H
	DW	07941H
	DW	07941H
	DW	07941H
	DW	07941H
	DW	07941H
	DW	07941H
	DW	07941H
	DW	07941H
	DW	07941H
	DW	07941H
	DW	07941H
	DW	07941H
	DW	07941H
	DW	07941H
	DW	07941H
	DW	07941H
	DW	07941H
	DW	07941H
	DW	07941H
	DW	07941H
	DW	07941H
	DW	07941H
	DW	07921H
	DW	07921H
	DW	07921H
	DW	07921H
	DW	07921H
	DW	07921H
	DW	07921H
	DW	07921H
	DW	07921H
	DW	07921H
	DW	07521H
	DW	07521H
	DW	07521H
	DW	07521H
	DW	07521H
	DW	07521H
	DW	07521H
	DW	07521H
	DW	07521H
	DW	07521H
	DW	07521H
	DW	07521H
	DW	07521H
	DW	07501H
	DW	07501H
	DW	07501H
	DW	07501H
	DW	07501H
	DW	07501H
	DW	07501H
	DW	07501H
	DW	07501H
	DW	07501H
	DW	07501H
	DW	07501H
	DW	07501H
	DW	07501H
	DW	07501H
	DW	07501H
	DW	07501H
	DW	07501H
	DW	07501H
	DW	07501H
	DW	07501H
	DW	07501H
	DW	07501H
	DW	074e1H
	DW	074e1H
	DW	074e1H
	DW	074e1H
	DW	074e1H
	DW	074e1H
	DW	074e1H
	DW	074e1H
	DW	074e1H
	DW	074e1H
	DW	074e1H
	DW	074e1H
	DW	074e1H
	DW	074e1H
	DW	074e1H
	DW	074e1H
	DW	074e1H
	DW	074e1H
	DW	074e1H
	DW	074e1H
	DW	070e1H
	DW	070e1H
	DW	070e1H
	DW	070e1H
	DW	070c1H
	DW	070c1H
	DW	070c1H
	DW	070c1H
	DW	070c1H
	DW	070c1H
	DW	070c1H
	DW	070c1H
	DW	070c1H
	DW	070c1H
	DW	070c1H
	DW	070c1H
	DW	070c1H
	DW	070c1H
	DW	070c1H
	DW	070c1H
	DW	070c1H
	DW	070c1H
	DW	070c1H
	DW	070c1H
	DW	070c1H
	DW	070c1H
	DW	070c1H
	DW	070c1H
	DW	070a1H
	DW	070a1H
	DW	070a1H
	DW	070a1H
	DW	070a1H
	DW	070a1H
	DW	070a1H
	DW	070a1H
	DW	070a1H
	DW	070a1H
	DW	070a1H
	DW	070a1H
	DW	070a1H
	DW	070a1H
	DW	070a1H
	DW	070a1H
	DW	070a1H
	DW	070a1H
	DW	070a1H
	DW	070a1H
	DW	070a1H
	DW	074a1H
	DW	03440H
	DW	00H
	DW	00H
	DW	00H
	DW	00H
	DW	00H
	DW	00H
	DW	00H
	DW	00H
	DW	00H
	DW	00H
	DW	00H
	DW	00H
	DW	00H
	DW	00H
	DW	00H
	DW	00H
	DW	00H
	DW	00H
	DW	00H
	DW	00H
	DW	00H
	DW	00H
	DW	00H
	DW	00H
	DW	00H
	DW	00H
	DW	00H
	DW	00H
	DW	00H
	DW	00H
	DW	00H
	DW	00H
	DW	00H
	DW	00H
	DW	00H
	DW	00H
	DW	00H
	DW	00H
	DW	00H
	DW	00H
	DW	00H
	DW	00H
	DW	00H
	DW	00H
	DW	00H
	DW	00H
	DW	00H
	DW	00H
	DW	00H
	DW	00H
	DW	00H
	DW	00H
	DW	00H
	DW	00H
	DW	00H
	DW	00H
	DW	00H
	DW	00H
	DW	00H
	DW	00H
	DW	00H
	DW	00H
	DW	00H
	DW	00H
	DW	00H
	DW	00H
	DW	00H
	DW	00H
	DW	00H
	DW	00H
	DW	00H
	DW	00H
	DW	00H
	DW	00H
	DW	00H
	DW	00H
	DW	00H
	DW	00H
	DW	00H
	DW	00H
	DW	00H
	DW	00H
	DW	00H
	DW	00H
	DW	00H
	DW	00H
	DW	00H
	DW	00H
	DW	00H
	DW	00H
	DW	00H
	DW	00H
	DW	00H
	DW	00H
	DW	00H
	DW	00H
	DW	00H
	DW	00H
	DW	00H
	DW	00H
	DW	00H
	DW	00H
	DW	00H
	DW	00H
	DW	00H
	DW	00H
	DW	00H
	DW	00H
	DW	00H
	DW	00H
	DW	00H
	DW	00H
	DW	00H
	DW	00H
	DW	00H
	DW	00H
	DW	00H
	DW	00H
	DW	00H
	DW	00H
	DW	00H
	DW	00H
	DW	00H
	DW	00H
	DW	00H
	DW	00H
	DW	00H
	DW	00H
	DW	00H
	DW	00H
	DW	00H
	DW	00H
	DW	00H
	DW	00H
	DW	00H
	DW	00H
	DW	00H
	DW	00H
	DW	00H
	DW	00H
	DW	00H
	DW	00H
	DW	00H
	DW	00H
	DW	00H
	DW	00H
	DW	00H
	DW	00H
	DW	00H
	DW	00H
	DW	00H
	DW	00H
	DW	00H
	DW	00H
	DW	00H
	DW	00H
	DW	00H
	DW	00H
	DW	00H
	DW	00H
	DW	00H
	DW	00H
	DW	00H
	DW	00H
	DW	00H
	DW	00H
	DW	00H
	DW	00H
	DW	00H
	DW	00H
	DW	00H
	DW	00H
	DW	00H
	DW	00H
	DW	00H
	DW	00H
	DW	00H
	DW	00H
	DW	00H
	DW	00H
	DW	00H
	DW	00H
	DW	00H
	DW	00H
	DW	00H
	DW	00H
	DW	00H
	DW	00H
	DW	00H
	DW	00H
	DW	00H
	DW	00H
	DW	00H
	DW	00H
	DW	00H
	DW	00H
	DW	00H
	DW	00H
	DW	00H
	DW	00H
	DW	00H
	DW	00H
	DW	00H
	DW	00H
	DW	00H
	DW	00H
	DW	00H
	DW	00H
	DW	00H
	DW	00H
	DW	00H
	DW	00H
	DW	00H
	DW	00H
	DW	00H
	DW	00H
	DW	00H
	DW	00H
	DW	00H
	DW	00H
	DW	00H
	DW	00H
	DW	00H
	DW	00H
	DW	00H
	DW	00H
	DW	00H
	DW	00H
	DW	00H
	DW	00H
	DW	00H
	DW	00H
	DW	00H
	DW	00H
	DW	00H
	DW	00H
	DW	00H
	DW	00H
	DW	00H
	DW	00H
	DW	00H
	DW	00H
	DW	00H
	DW	00H
	DW	00H
	DW	00H
	DW	00H
	DW	00H
	DW	00H
	DW	00H
	DW	00H
	DW	00H
	DW	00H
	DW	00H
	DW	00H
	DW	0820H
	DW	01441H
	DW	01c81H
	DW	02082H
	DW	02082H
	DW	01c81H
	DW	01c81H
	DW	01c81H
	DW	01c81H
	DW	01c81H
	DW	01c81H
	DW	01c81H
	DW	01c81H
	DW	01c81H
	DW	02081H
	DW	02081H
	DW	02081H
	DW	02481H
	DW	02481H
	DW	028a1H
	DW	02ca2H
	DW	030a2H
	DW	034c2H
	DW	038e2H
	DW	040e2H
	DW	04502H
	DW	04d23H
	DW	05123H
	DW	05943H
	DW	05d43H
	DW	06163H
	DW	06963H
	DW	06d83H
	DW	07183H
	DW	07183H
	DW	075a3H
	DW	075a3H
	DW	079a3H
	DW	079a3H
	DW	079a3H
	DW	079a3H
	DW	079a3H
	DW	079a3H
	DW	079a3H
	DW	079a3H
	DW	07983H
	DW	07983H
	DW	07983H
	DW	07982H
	DW	07982H
	DW	07982H
	DW	07982H
	DW	07982H
	DW	07982H
	DW	07982H
	DW	07982H
	DW	07982H
	DW	07982H
	DW	07982H
	DW	07982H
	DW	07982H
	DW	07982H
	DW	07982H
	DW	07962H
	DW	07962H
	DW	07962H
	DW	07962H
	DW	07962H
	DW	07962H
	DW	07962H
	DW	07961H
	DW	07961H
	DW	07961H
	DW	07961H
	DW	07961H
	DW	07961H
	DW	07961H
	DW	07961H
	DW	07961H
	DW	07961H
	DW	07961H
	DW	07961H
	DW	07961H
	DW	07961H
	DW	07961H
	DW	07941H
	DW	07941H
	DW	07941H
	DW	07941H
	DW	07941H
	DW	07941H
	DW	07941H
	DW	07941H
	DW	07941H
	DW	07941H
	DW	07941H
	DW	07941H
	DW	07941H
	DW	07941H
	DW	07941H
	DW	07941H
	DW	07941H
	DW	07941H
	DW	07941H
	DW	07941H
	DW	07941H
	DW	07941H
	DW	07921H
	DW	07921H
	DW	07921H
	DW	07921H
	DW	07921H
	DW	07921H
	DW	07921H
	DW	07921H
	DW	07921H
	DW	07521H
	DW	07521H
	DW	07521H
	DW	07521H
	DW	07521H
	DW	07521H
	DW	07521H
	DW	07521H
	DW	07521H
	DW	07521H
	DW	07521H
	DW	07521H
	DW	07521H
	DW	07501H
	DW	07501H
	DW	07501H
	DW	07501H
	DW	07501H
	DW	07501H
	DW	07501H
	DW	07501H
	DW	07501H
	DW	07501H
	DW	07501H
	DW	07501H
	DW	07501H
	DW	07501H
	DW	07501H
	DW	07501H
	DW	07501H
	DW	07501H
	DW	07501H
	DW	07501H
	DW	07501H
	DW	07501H
	DW	07501H
	DW	07501H
	DW	074e1H
	DW	074e1H
	DW	074e1H
	DW	074e1H
	DW	074e1H
	DW	074e1H
	DW	074e1H
	DW	074e1H
	DW	074e1H
	DW	074e1H
	DW	074e1H
	DW	074e1H
	DW	074e1H
	DW	074e1H
	DW	074e1H
	DW	074e1H
	DW	074e1H
	DW	074e1H
	DW	074e1H
	DW	070e1H
	DW	070e1H
	DW	070e1H
	DW	070e1H
	DW	070c1H
	DW	070c1H
	DW	070c1H
	DW	070c1H
	DW	070c1H
	DW	070c1H
	DW	070c1H
	DW	070c1H
	DW	070c1H
	DW	070c1H
	DW	070c1H
	DW	070c1H
	DW	070c1H
	DW	070c1H
	DW	070c1H
	DW	070c1H
	DW	070c1H
	DW	070c1H
	DW	070c1H
	DW	070c1H
	DW	070c1H
	DW	070c1H
	DW	070c1H
	DW	070c1H
	DW	070c1H
	DW	070a1H
	DW	070a1H
	DW	070a1H
	DW	070a1H
	DW	070a1H
	DW	070a1H
	DW	070a1H
	DW	070a1H
	DW	070a1H
	DW	070a1H
	DW	070a1H
	DW	070a1H
	DW	070a1H
	DW	070a1H
	DW	070a1H
	DW	070a1H
	DW	070a1H
	DW	070a1H
	DW	070a1H
	DW	070a1H
	DW	070a1H
	DW	06ca1H
	DW	074a1H
	DW	03840H
	DW	00H
	DW	00H
	DW	00H
	DW	00H
	DW	00H
	DW	00H
	DW	00H
	DW	00H
	DW	00H
	DW	00H
	DW	00H
	DW	00H
	DW	00H
	DW	00H
	DW	00H
	DW	00H
	DW	00H
	DW	00H
	DW	00H
	DW	00H
	DW	00H
	DW	00H
	DW	00H
	DW	00H
	DW	00H
	DW	00H
	DW	00H
	DW	00H
	DW	00H
	DW	00H
	DW	00H
	DW	00H
	DW	00H
	DW	00H
	DW	00H
	DW	00H
	DW	00H
	DW	00H
	DW	00H
	DW	00H
	DW	00H
	DW	00H
	DW	00H
	DW	00H
	DW	00H
	DW	00H
	DW	00H
	DW	00H
	DW	00H
	DW	00H
	DW	00H
	DW	00H
	DW	00H
	DW	00H
	DW	00H
	DW	00H
	DW	00H
	DW	00H
	DW	00H
	DW	00H
	DW	00H
	DW	00H
	DW	00H
	DW	00H
	DW	00H
	DW	00H
	DW	00H
	DW	00H
	DW	00H
	DW	00H
	DW	00H
	DW	00H
	DW	00H
	DW	00H
	DW	00H
	DW	00H
	DW	00H
	DW	00H
	DW	00H
	DW	00H
	DW	00H
	DW	00H
	DW	00H
	DW	00H
	DW	00H
	DW	00H
	DW	00H
	DW	00H
	DW	00H
	DW	00H
	DW	00H
	DW	00H
	DW	00H
	DW	00H
	DW	00H
	DW	00H
	DW	00H
	DW	00H
	DW	00H
	DW	00H
	DW	00H
	DW	00H
	DW	00H
	DW	00H
	DW	00H
	DW	00H
	DW	00H
	DW	00H
	DW	00H
	DW	00H
	DW	00H
	DW	00H
	DW	00H
	DW	00H
	DW	00H
	DW	00H
	DW	00H
	DW	00H
	DW	00H
	DW	00H
	DW	00H
	DW	00H
	DW	00H
	DW	00H
	DW	00H
	DW	00H
	DW	00H
	DW	00H
	DW	00H
	DW	00H
	DW	00H
	DW	00H
	DW	00H
	DW	00H
	DW	00H
	DW	00H
	DW	00H
	DW	00H
	DW	00H
	DW	00H
	DW	00H
	DW	00H
	DW	00H
	DW	00H
	DW	00H
	DW	00H
	DW	00H
	DW	00H
	DW	00H
	DW	00H
	DW	00H
	DW	00H
	DW	00H
	DW	00H
	DW	00H
	DW	00H
	DW	00H
	DW	00H
	DW	00H
	DW	00H
	DW	00H
	DW	00H
	DW	00H
	DW	00H
	DW	00H
	DW	00H
	DW	00H
	DW	00H
	DW	00H
	DW	00H
	DW	00H
	DW	00H
	DW	00H
	DW	00H
	DW	00H
	DW	00H
	DW	00H
	DW	00H
	DW	00H
	DW	00H
	DW	00H
	DW	00H
	DW	00H
	DW	00H
	DW	00H
	DW	00H
	DW	00H
	DW	00H
	DW	00H
	DW	00H
	DW	00H
	DW	00H
	DW	00H
	DW	00H
	DW	00H
	DW	00H
	DW	00H
	DW	00H
	DW	00H
	DW	00H
	DW	00H
	DW	00H
	DW	00H
	DW	00H
	DW	00H
	DW	00H
	DW	00H
	DW	00H
	DW	00H
	DW	00H
	DW	00H
	DW	00H
	DW	00H
	DW	00H
	DW	00H
	DW	00H
	DW	00H
	DW	00H
	DW	00H
	DW	00H
	DW	00H
	DW	00H
	DW	00H
	DW	00H
	DW	00H
	DW	00H
	DW	00H
	DW	00H
	DW	00H
	DW	00H
	DW	00H
	DW	00H
	DW	00H
	DW	00H
	DW	00H
	DW	00H
	DW	00H
	DW	00H
	DW	00H
	DW	00H
	DW	00H
	DW	00H
	DW	00H
	DW	00H
	DW	00H
	DW	00H
	DW	00H
	DW	00H
	DW	00H
	DW	00H
	DW	00H
	DW	00H
	DW	00H
	DW	0c41H
	DW	01861H
	DW	02082H
	DW	02082H
	DW	02082H
	DW	01c81H
	DW	01c81H
	DW	01c81H
	DW	01c81H
	DW	01c81H
	DW	01c81H
	DW	01c81H
	DW	02081H
	DW	02081H
	DW	02081H
	DW	02081H
	DW	02081H
	DW	02481H
	DW	028a1H
	DW	028a2H
	DW	02ca2H
	DW	034c2H
	DW	038c2H
	DW	03ce2H
	DW	04502H
	DW	04903H
	DW	05123H
	DW	05943H
	DW	05d43H
	DW	06163H
	DW	06563H
	DW	06d84H
	DW	06d84H
	DW	07184H
	DW	075a4H
	DW	075a4H
	DW	079a3H
	DW	079a3H
	DW	079a3H
	DW	079a3H
	DW	07da3H
	DW	079a3H
	DW	079a3H
	DW	079a3H
	DW	079a3H
	DW	07983H
	DW	07983H
	DW	07983H
	DW	07983H
	DW	07982H
	DW	07982H
	DW	07982H
	DW	07982H
	DW	07982H
	DW	07982H
	DW	07982H
	DW	07982H
	DW	07982H
	DW	07982H
	DW	07982H
	DW	07982H
	DW	07982H
	DW	07982H
	DW	07962H
	DW	07962H
	DW	07962H
	DW	07962H
	DW	07962H
	DW	07962H
	DW	07962H
	DW	07962H
	DW	07961H
	DW	07961H
	DW	07961H
	DW	07961H
	DW	07961H
	DW	07961H
	DW	07961H
	DW	07961H
	DW	07961H
	DW	07961H
	DW	07961H
	DW	07961H
	DW	07961H
	DW	07961H
	DW	07941H
	DW	07941H
	DW	07941H
	DW	07941H
	DW	07941H
	DW	07941H
	DW	07941H
	DW	07941H
	DW	07941H
	DW	07941H
	DW	07941H
	DW	07941H
	DW	07941H
	DW	07941H
	DW	07941H
	DW	07941H
	DW	07941H
	DW	07941H
	DW	07941H
	DW	07941H
	DW	07941H
	DW	07941H
	DW	07921H
	DW	07921H
	DW	07921H
	DW	07921H
	DW	07921H
	DW	07921H
	DW	07921H
	DW	07921H
	DW	07921H
	DW	07521H
	DW	07521H
	DW	07521H
	DW	07521H
	DW	07521H
	DW	07521H
	DW	07521H
	DW	07521H
	DW	07521H
	DW	07521H
	DW	07521H
	DW	07521H
	DW	07521H
	DW	07501H
	DW	07501H
	DW	07501H
	DW	07501H
	DW	07501H
	DW	07501H
	DW	07501H
	DW	07501H
	DW	07501H
	DW	07501H
	DW	07501H
	DW	07501H
	DW	07501H
	DW	07501H
	DW	07501H
	DW	07501H
	DW	07501H
	DW	07501H
	DW	07501H
	DW	07501H
	DW	07501H
	DW	07501H
	DW	07501H
	DW	07501H
	DW	074e1H
	DW	074e1H
	DW	074e1H
	DW	074e1H
	DW	074e1H
	DW	074e1H
	DW	074e1H
	DW	074e1H
	DW	074e1H
	DW	074e1H
	DW	074e1H
	DW	074e1H
	DW	074e1H
	DW	074e1H
	DW	074e1H
	DW	074e1H
	DW	074e1H
	DW	074e1H
	DW	074e1H
	DW	070e1H
	DW	070e1H
	DW	070e1H
	DW	070e1H
	DW	070c1H
	DW	070c1H
	DW	070c1H
	DW	070c1H
	DW	070c1H
	DW	070c1H
	DW	070c1H
	DW	070c1H
	DW	070c1H
	DW	070c1H
	DW	070c1H
	DW	070c1H
	DW	070c1H
	DW	070c1H
	DW	070c1H
	DW	070c1H
	DW	070c1H
	DW	070c1H
	DW	070c1H
	DW	070c1H
	DW	070c1H
	DW	070c1H
	DW	070c1H
	DW	070c1H
	DW	070c1H
	DW	070a1H
	DW	070a1H
	DW	070a1H
	DW	070a1H
	DW	070a1H
	DW	070a1H
	DW	070a1H
	DW	070a1H
	DW	070a1H
	DW	070a1H
	DW	070a1H
	DW	070a1H
	DW	070a1H
	DW	070a1H
	DW	070a1H
	DW	070a1H
	DW	070a1H
	DW	070a1H
	DW	070a1H
	DW	070a1H
	DW	070a1H
	DW	06ca1H
	DW	06ca1H
	DW	06ca1H
	DW	074a1H
	DW	03840H
	DW	00H
	DW	00H
	DW	00H
	DW	00H
	DW	00H
	DW	00H
	DW	00H
	DW	00H
	DW	00H
	DW	00H
	DW	00H
	DW	00H
	DW	00H
	DW	00H
	DW	00H
	DW	00H
	DW	00H
	DW	00H
	DW	00H
	DW	00H
	DW	00H
	DW	00H
	DW	00H
	DW	00H
	DW	00H
	DW	00H
	DW	00H
	DW	00H
	DW	00H
	DW	00H
	DW	00H
	DW	00H
	DW	00H
	DW	00H
	DW	00H
	DW	00H
	DW	00H
	DW	00H
	DW	00H
	DW	00H
	DW	00H
	DW	00H
	DW	00H
	DW	00H
	DW	00H
	DW	00H
	DW	00H
	DW	00H
	DW	00H
	DW	00H
	DW	00H
	DW	00H
	DW	00H
	DW	00H
	DW	00H
	DW	00H
	DW	00H
	DW	00H
	DW	00H
	DW	00H
	DW	00H
	DW	00H
	DW	00H
	DW	00H
	DW	00H
	DW	00H
	DW	00H
	DW	00H
	DW	00H
	DW	00H
	DW	00H
	DW	00H
	DW	00H
	DW	00H
	DW	00H
	DW	00H
	DW	00H
	DW	00H
	DW	00H
	DW	00H
	DW	00H
	DW	00H
	DW	00H
	DW	00H
	DW	00H
	DW	00H
	DW	00H
	DW	00H
	DW	00H
	DW	00H
	DW	00H
	DW	00H
	DW	00H
	DW	00H
	DW	00H
	DW	00H
	DW	00H
	DW	00H
	DW	00H
	DW	00H
	DW	00H
	DW	00H
	DW	00H
	DW	00H
	DW	00H
	DW	00H
	DW	00H
	DW	00H
	DW	00H
	DW	00H
	DW	00H
	DW	00H
	DW	00H
	DW	00H
	DW	00H
	DW	00H
	DW	00H
	DW	00H
	DW	00H
	DW	00H
	DW	00H
	DW	00H
	DW	00H
	DW	00H
	DW	00H
	DW	00H
	DW	00H
	DW	00H
	DW	00H
	DW	00H
	DW	00H
	DW	00H
	DW	00H
	DW	00H
	DW	00H
	DW	00H
	DW	00H
	DW	00H
	DW	00H
	DW	00H
	DW	00H
	DW	00H
	DW	00H
	DW	00H
	DW	00H
	DW	00H
	DW	00H
	DW	00H
	DW	00H
	DW	00H
	DW	00H
	DW	00H
	DW	00H
	DW	00H
	DW	00H
	DW	00H
	DW	00H
	DW	00H
	DW	00H
	DW	00H
	DW	00H
	DW	00H
	DW	00H
	DW	00H
	DW	00H
	DW	00H
	DW	00H
	DW	00H
	DW	00H
	DW	00H
	DW	00H
	DW	00H
	DW	00H
	DW	00H
	DW	00H
	DW	00H
	DW	00H
	DW	00H
	DW	00H
	DW	00H
	DW	00H
	DW	00H
	DW	00H
	DW	00H
	DW	00H
	DW	00H
	DW	00H
	DW	00H
	DW	00H
	DW	00H
	DW	00H
	DW	00H
	DW	00H
	DW	00H
	DW	00H
	DW	00H
	DW	00H
	DW	00H
	DW	00H
	DW	00H
	DW	00H
	DW	00H
	DW	00H
	DW	00H
	DW	00H
	DW	00H
	DW	00H
	DW	00H
	DW	00H
	DW	00H
	DW	00H
	DW	00H
	DW	00H
	DW	00H
	DW	00H
	DW	00H
	DW	00H
	DW	00H
	DW	00H
	DW	00H
	DW	00H
	DW	00H
	DW	00H
	DW	00H
	DW	00H
	DW	00H
	DW	00H
	DW	00H
	DW	00H
	DW	00H
	DW	00H
	DW	00H
	DW	00H
	DW	00H
	DW	00H
	DW	00H
	DW	00H
	DW	00H
	DW	00H
	DW	00H
	DW	00H
	DW	00H
	DW	00H
	DW	00H
	DW	00H
	DW	00H
	DW	00H
	DW	00H
	DW	00H
	DW	00H
	DW	0420H
	DW	01041H
	DW	01c62H
	DW	02082H
	DW	02082H
	DW	01c82H
	DW	01c82H
	DW	01c81H
	DW	01c81H
	DW	01c81H
	DW	01c81H
	DW	01c81H
	DW	01c81H
	DW	02081H
	DW	02081H
	DW	02081H
	DW	02081H
	DW	02481H
	DW	02481H
	DW	028a2H
	DW	02ca2H
	DW	030c2H
	DW	034c2H
	DW	03ce2H
	DW	04102H
	DW	04903H
	DW	04d23H
	DW	05543H
	DW	05d43H
	DW	06163H
	DW	06563H
	DW	06984H
	DW	06d84H
	DW	071a4H
	DW	075a4H
	DW	075a4H
	DW	079a4H
	DW	079a4H
	DW	079a4H
	DW	079a3H
	DW	07da3H
	DW	07da3H
	DW	07da3H
	DW	07da3H
	DW	079a3H
	DW	079a3H
	DW	079a3H
	DW	079a3H
	DW	07983H
	DW	07983H
	DW	07983H
	DW	07982H
	DW	07982H
	DW	07982H
	DW	07982H
	DW	07982H
	DW	07982H
	DW	07982H
	DW	07982H
	DW	07982H
	DW	07982H
	DW	07982H
	DW	07982H
	DW	07982H
	DW	07982H
	DW	07962H
	DW	07962H
	DW	07962H
	DW	07962H
	DW	07962H
	DW	07962H
	DW	07962H
	DW	07962H
	DW	07961H
	DW	07961H
	DW	07961H
	DW	07961H
	DW	07961H
	DW	07961H
	DW	07961H
	DW	07961H
	DW	07961H
	DW	07961H
	DW	07961H
	DW	07961H
	DW	07961H
	DW	07961H
	DW	07941H
	DW	07941H
	DW	07941H
	DW	07941H
	DW	07941H
	DW	07941H
	DW	07941H
	DW	07941H
	DW	07941H
	DW	07941H
	DW	07941H
	DW	07941H
	DW	07941H
	DW	07941H
	DW	07941H
	DW	07941H
	DW	07941H
	DW	07941H
	DW	07941H
	DW	07941H
	DW	07941H
	DW	07941H
	DW	07921H
	DW	07921H
	DW	07921H
	DW	07921H
	DW	07921H
	DW	07921H
	DW	07921H
	DW	07921H
	DW	07921H
	DW	07921H
	DW	07521H
	DW	07521H
	DW	07521H
	DW	07521H
	DW	07521H
	DW	07521H
	DW	07521H
	DW	07521H
	DW	07521H
	DW	07521H
	DW	07521H
	DW	07521H
	DW	07521H
	DW	07501H
	DW	07501H
	DW	07501H
	DW	07501H
	DW	07501H
	DW	07501H
	DW	07501H
	DW	07501H
	DW	07501H
	DW	07501H
	DW	07501H
	DW	07501H
	DW	07501H
	DW	07501H
	DW	07501H
	DW	07501H
	DW	07501H
	DW	07501H
	DW	07501H
	DW	07501H
	DW	07501H
	DW	07501H
	DW	07501H
	DW	074e1H
	DW	074e1H
	DW	074e1H
	DW	074e1H
	DW	074e1H
	DW	074e1H
	DW	074e1H
	DW	074e1H
	DW	074e1H
	DW	074e1H
	DW	074e1H
	DW	074e1H
	DW	074e1H
	DW	074e1H
	DW	074e1H
	DW	074e1H
	DW	074e1H
	DW	074e1H
	DW	074e1H
	DW	070e1H
	DW	070e1H
	DW	070e1H
	DW	070e1H
	DW	070e1H
	DW	070c1H
	DW	070c1H
	DW	070c1H
	DW	070c1H
	DW	070c1H
	DW	070c1H
	DW	070c1H
	DW	070c1H
	DW	070c1H
	DW	070c1H
	DW	070c1H
	DW	070c1H
	DW	070c1H
	DW	070c1H
	DW	070c1H
	DW	070c1H
	DW	070c1H
	DW	070c1H
	DW	070c1H
	DW	070c1H
	DW	070c1H
	DW	070c1H
	DW	070c1H
	DW	070c1H
	DW	070a1H
	DW	070a1H
	DW	070a1H
	DW	070a1H
	DW	070a1H
	DW	070a1H
	DW	070a1H
	DW	070a1H
	DW	070a1H
	DW	070a1H
	DW	070a1H
	DW	070a1H
	DW	070a1H
	DW	070a1H
	DW	070a1H
	DW	070a1H
	DW	070a1H
	DW	070a1H
	DW	070a1H
	DW	070a1H
	DW	070a1H
	DW	06ca1H
	DW	06ca1H
	DW	06ca1H
	DW	06ca1H
	DW	074a1H
	DW	03840H
	DW	00H
	DW	00H
	DW	00H
	DW	00H
	DW	00H
	DW	00H
	DW	00H
	DW	00H
	DW	00H
	DW	00H
	DW	00H
	DW	00H
	DW	00H
	DW	00H
	DW	00H
	DW	00H
	DW	00H
	DW	00H
	DW	00H
	DW	00H
	DW	00H
	DW	00H
	DW	00H
	DW	00H
	DW	00H
	DW	00H
	DW	00H
	DW	00H
	DW	00H
	DW	00H
	DW	00H
	DW	00H
	DW	00H
	DW	00H
	DW	00H
	DW	00H
	DW	00H
	DW	00H
	DW	00H
	DW	00H
	DW	00H
	DW	00H
	DW	00H
	DW	00H
	DW	00H
	DW	00H
	DW	00H
	DW	00H
	DW	00H
	DW	00H
	DW	00H
	DW	00H
	DW	00H
	DW	00H
	DW	00H
	DW	00H
	DW	00H
	DW	00H
	DW	00H
	DW	00H
	DW	00H
	DW	00H
	DW	00H
	DW	00H
	DW	00H
	DW	00H
	DW	00H
	DW	00H
	DW	00H
	DW	00H
	DW	00H
	DW	00H
	DW	00H
	DW	00H
	DW	00H
	DW	00H
	DW	00H
	DW	00H
	DW	00H
	DW	00H
	DW	00H
	DW	00H
	DW	00H
	DW	00H
	DW	00H
	DW	00H
	DW	00H
	DW	00H
	DW	00H
	DW	00H
	DW	00H
	DW	00H
	DW	00H
	DW	00H
	DW	00H
	DW	00H
	DW	00H
	DW	00H
	DW	00H
	DW	00H
	DW	00H
	DW	00H
	DW	00H
	DW	00H
	DW	00H
	DW	00H
	DW	00H
	DW	00H
	DW	00H
	DW	00H
	DW	00H
	DW	00H
	DW	00H
	DW	00H
	DW	00H
	DW	00H
	DW	00H
	DW	00H
	DW	00H
	DW	00H
	DW	00H
	DW	00H
	DW	00H
	DW	00H
	DW	00H
	DW	00H
	DW	00H
	DW	00H
	DW	00H
	DW	00H
	DW	00H
	DW	00H
	DW	00H
	DW	00H
	DW	00H
	DW	00H
	DW	00H
	DW	00H
	DW	00H
	DW	00H
	DW	00H
	DW	00H
	DW	00H
	DW	00H
	DW	00H
	DW	00H
	DW	00H
	DW	00H
	DW	00H
	DW	00H
	DW	00H
	DW	00H
	DW	00H
	DW	00H
	DW	00H
	DW	00H
	DW	00H
	DW	00H
	DW	00H
	DW	00H
	DW	00H
	DW	00H
	DW	00H
	DW	00H
	DW	00H
	DW	00H
	DW	00H
	DW	00H
	DW	00H
	DW	00H
	DW	00H
	DW	00H
	DW	00H
	DW	00H
	DW	00H
	DW	00H
	DW	00H
	DW	00H
	DW	00H
	DW	00H
	DW	00H
	DW	00H
	DW	00H
	DW	00H
	DW	00H
	DW	00H
	DW	00H
	DW	00H
	DW	00H
	DW	00H
	DW	00H
	DW	00H
	DW	00H
	DW	00H
	DW	00H
	DW	00H
	DW	00H
	DW	00H
	DW	00H
	DW	00H
	DW	00H
	DW	00H
	DW	00H
	DW	00H
	DW	00H
	DW	00H
	DW	00H
	DW	00H
	DW	00H
	DW	00H
	DW	00H
	DW	00H
	DW	00H
	DW	00H
	DW	00H
	DW	00H
	DW	00H
	DW	00H
	DW	00H
	DW	00H
	DW	00H
	DW	00H
	DW	00H
	DW	00H
	DW	00H
	DW	00H
	DW	00H
	DW	00H
	DW	00H
	DW	00H
	DW	00H
	DW	00H
	DW	00H
	DW	00H
	DW	00H
	DW	00H
	DW	00H
	DW	00H
	DW	00H
	DW	00H
	DW	00H
	DW	00H
	DW	00H
	DW	00H
	DW	00H
	DW	00H
	DW	00H
	DW	00H
	DW	0820H
	DW	01461H
	DW	01c82H
	DW	02082H
	DW	02082H
	DW	01c82H
	DW	01c82H
	DW	01c81H
	DW	01c81H
	DW	01c81H
	DW	01c81H
	DW	01c81H
	DW	01c81H
	DW	02081H
	DW	02081H
	DW	02081H
	DW	02081H
	DW	02481H
	DW	028a2H
	DW	02ca2H
	DW	030c2H
	DW	034c2H
	DW	038e2H
	DW	040e2H
	DW	04503H
	DW	04d23H
	DW	05123H
	DW	05943H
	DW	05d63H
	DW	06564H
	DW	06984H
	DW	06d84H
	DW	071a4H
	DW	075a4H
	DW	075a4H
	DW	079a4H
	DW	079a4H
	DW	079a4H
	DW	079a4H
	DW	07da4H
	DW	07da3H
	DW	07da3H
	DW	07da3H
	DW	07da3H
	DW	079a3H
	DW	079a3H
	DW	079a3H
	DW	079a3H
	DW	07983H
	DW	07983H
	DW	07983H
	DW	07982H
	DW	07982H
	DW	07982H
	DW	07982H
	DW	07982H
	DW	07982H
	DW	07982H
	DW	07982H
	DW	07982H
	DW	07982H
	DW	07982H
	DW	07982H
	DW	07982H
	DW	07982H
	DW	07962H
	DW	07962H
	DW	07962H
	DW	07962H
	DW	07962H
	DW	07962H
	DW	07962H
	DW	07962H
	DW	07961H
	DW	07961H
	DW	07961H
	DW	07961H
	DW	07961H
	DW	07961H
	DW	07961H
	DW	07961H
	DW	07961H
	DW	07961H
	DW	07961H
	DW	07961H
	DW	07961H
	DW	07961H
	DW	07961H
	DW	07941H
	DW	07941H
	DW	07941H
	DW	07941H
	DW	07941H
	DW	07941H
	DW	07941H
	DW	07941H
	DW	07941H
	DW	07941H
	DW	07941H
	DW	07941H
	DW	07941H
	DW	07941H
	DW	07941H
	DW	07941H
	DW	07941H
	DW	07941H
	DW	07941H
	DW	07941H
	DW	07941H
	DW	07941H
	DW	07921H
	DW	07921H
	DW	07921H
	DW	07921H
	DW	07921H
	DW	07921H
	DW	07921H
	DW	07921H
	DW	07921H
	DW	07521H
	DW	07521H
	DW	07521H
	DW	07521H
	DW	07521H
	DW	07521H
	DW	07521H
	DW	07521H
	DW	07521H
	DW	07521H
	DW	07521H
	DW	07521H
	DW	07521H
	DW	07501H
	DW	07501H
	DW	07501H
	DW	07501H
	DW	07501H
	DW	07501H
	DW	07501H
	DW	07501H
	DW	07501H
	DW	07501H
	DW	07501H
	DW	07501H
	DW	07501H
	DW	07501H
	DW	07501H
	DW	07501H
	DW	07501H
	DW	07501H
	DW	07501H
	DW	07501H
	DW	07501H
	DW	07501H
	DW	07501H
	DW	074e1H
	DW	074e1H
	DW	074e1H
	DW	074e1H
	DW	074e1H
	DW	074e1H
	DW	074e1H
	DW	074e1H
	DW	074e1H
	DW	074e1H
	DW	074e1H
	DW	074e1H
	DW	074e1H
	DW	074e1H
	DW	074e1H
	DW	074e1H
	DW	074e1H
	DW	074e1H
	DW	074e1H
	DW	074e1H
	DW	070e1H
	DW	070e1H
	DW	070e1H
	DW	070e1H
	DW	070c1H
	DW	070c1H
	DW	070c1H
	DW	070c1H
	DW	070c1H
	DW	070c1H
	DW	070c1H
	DW	070c1H
	DW	070c1H
	DW	070c1H
	DW	070c1H
	DW	070c1H
	DW	070c1H
	DW	070c1H
	DW	070c1H
	DW	070c1H
	DW	070c1H
	DW	070c1H
	DW	070c1H
	DW	070c1H
	DW	070c1H
	DW	070c1H
	DW	070c1H
	DW	070c1H
	DW	070a1H
	DW	070a1H
	DW	070a1H
	DW	070a1H
	DW	070a1H
	DW	070a1H
	DW	070a1H
	DW	070a1H
	DW	070a1H
	DW	070a1H
	DW	070a1H
	DW	070a1H
	DW	070a1H
	DW	070a1H
	DW	070a1H
	DW	070a1H
	DW	070a1H
	DW	070a1H
	DW	070a1H
	DW	070a1H
	DW	070a1H
	DW	070a1H
	DW	06ca1H
	DW	06ca1H
	DW	06ca1H
	DW	06ca1H
	DW	06c81H
	DW	074a1H
	DW	03440H
	DW	00H
	DW	00H
	DW	00H
	DW	00H
	DW	00H
	DW	00H
	DW	00H
	DW	00H
	DW	00H
	DW	00H
	DW	00H
	DW	00H
	DW	00H
	DW	00H
	DW	00H
	DW	00H
	DW	00H
	DW	00H
	DW	00H
	DW	00H
	DW	00H
	DW	00H
	DW	00H
	DW	00H
	DW	00H
	DW	00H
	DW	00H
	DW	00H
	DW	00H
	DW	00H
	DW	00H
	DW	00H
	DW	00H
	DW	00H
	DW	00H
	DW	00H
	DW	00H
	DW	00H
	DW	00H
	DW	00H
	DW	00H
	DW	00H
	DW	00H
	DW	00H
	DW	00H
	DW	00H
	DW	00H
	DW	00H
	DW	00H
	DW	00H
	DW	00H
	DW	00H
	DW	00H
	DW	00H
	DW	00H
	DW	00H
	DW	00H
	DW	00H
	DW	00H
	DW	00H
	DW	00H
	DW	00H
	DW	00H
	DW	00H
	DW	00H
	DW	00H
	DW	00H
	DW	00H
	DW	00H
	DW	00H
	DW	00H
	DW	00H
	DW	00H
	DW	00H
	DW	00H
	DW	00H
	DW	00H
	DW	00H
	DW	00H
	DW	00H
	DW	00H
	DW	00H
	DW	00H
	DW	00H
	DW	00H
	DW	00H
	DW	00H
	DW	00H
	DW	00H
	DW	00H
	DW	00H
	DW	00H
	DW	00H
	DW	00H
	DW	00H
	DW	00H
	DW	00H
	DW	00H
	DW	00H
	DW	00H
	DW	00H
	DW	00H
	DW	00H
	DW	00H
	DW	00H
	DW	00H
	DW	00H
	DW	00H
	DW	00H
	DW	00H
	DW	00H
	DW	00H
	DW	00H
	DW	00H
	DW	00H
	DW	00H
	DW	00H
	DW	00H
	DW	00H
	DW	00H
	DW	00H
	DW	00H
	DW	00H
	DW	00H
	DW	00H
	DW	00H
	DW	00H
	DW	00H
	DW	00H
	DW	00H
	DW	00H
	DW	00H
	DW	00H
	DW	00H
	DW	00H
	DW	00H
	DW	00H
	DW	00H
	DW	00H
	DW	00H
	DW	00H
	DW	00H
	DW	00H
	DW	00H
	DW	00H
	DW	00H
	DW	00H
	DW	00H
	DW	00H
	DW	00H
	DW	00H
	DW	00H
	DW	00H
	DW	00H
	DW	00H
	DW	00H
	DW	00H
	DW	00H
	DW	00H
	DW	00H
	DW	00H
	DW	00H
	DW	00H
	DW	00H
	DW	00H
	DW	00H
	DW	00H
	DW	00H
	DW	00H
	DW	00H
	DW	00H
	DW	00H
	DW	00H
	DW	00H
	DW	00H
	DW	00H
	DW	00H
	DW	00H
	DW	00H
	DW	00H
	DW	00H
	DW	00H
	DW	00H
	DW	00H
	DW	00H
	DW	00H
	DW	00H
	DW	00H
	DW	00H
	DW	00H
	DW	00H
	DW	00H
	DW	00H
	DW	00H
	DW	00H
	DW	00H
	DW	00H
	DW	00H
	DW	00H
	DW	00H
	DW	00H
	DW	00H
	DW	00H
	DW	00H
	DW	00H
	DW	00H
	DW	00H
	DW	00H
	DW	00H
	DW	00H
	DW	00H
	DW	00H
	DW	00H
	DW	00H
	DW	00H
	DW	00H
	DW	00H
	DW	00H
	DW	00H
	DW	00H
	DW	00H
	DW	00H
	DW	00H
	DW	00H
	DW	00H
	DW	00H
	DW	00H
	DW	00H
	DW	00H
	DW	00H
	DW	00H
	DW	00H
	DW	00H
	DW	00H
	DW	00H
	DW	00H
	DW	00H
	DW	00H
	DW	00H
	DW	00H
	DW	00H
	DW	00H
	DW	00H
	DW	00H
	DW	00H
	DW	00H
	DW	0c20H
	DW	01861H
	DW	02082H
	DW	02082H
	DW	02082H
	DW	01c82H
	DW	01c82H
	DW	01c81H
	DW	01c81H
	DW	01c81H
	DW	01c81H
	DW	01c81H
	DW	02081H
	DW	02081H
	DW	02081H
	DW	02081H
	DW	02482H
	DW	02482H
	DW	028a2H
	DW	02ca2H
	DW	030c2H
	DW	038c2H
	DW	03ce2H
	DW	04503H
	DW	04923H
	DW	05123H
	DW	05943H
	DW	05d63H
	DW	06164H
	DW	06984H
	DW	06d84H
	DW	071a4H
	DW	075a4H
	DW	075a4H
	DW	079a4H
	DW	079a4H
	DW	079a4H
	DW	079a4H
	DW	07da4H
	DW	07da4H
	DW	07da3H
	DW	07da3H
	DW	07da3H
	DW	07da3H
	DW	07da3H
	DW	079a3H
	DW	079a3H
	DW	079a3H
	DW	07983H
	DW	07983H
	DW	07983H
	DW	07983H
	DW	07982H
	DW	07982H
	DW	07982H
	DW	07982H
	DW	07982H
	DW	07982H
	DW	07982H
	DW	07982H
	DW	07982H
	DW	07982H
	DW	07982H
	DW	07982H
	DW	07982H
	DW	07982H
	DW	07962H
	DW	07962H
	DW	07962H
	DW	07962H
	DW	07962H
	DW	07962H
	DW	07962H
	DW	07961H
	DW	07961H
	DW	07961H
	DW	07961H
	DW	07961H
	DW	07961H
	DW	07961H
	DW	07961H
	DW	07961H
	DW	07961H
	DW	07961H
	DW	07961H
	DW	07961H
	DW	07961H
	DW	07961H
	DW	07941H
	DW	07941H
	DW	07941H
	DW	07941H
	DW	07941H
	DW	07941H
	DW	07941H
	DW	07941H
	DW	07941H
	DW	07941H
	DW	07941H
	DW	07941H
	DW	07941H
	DW	07941H
	DW	07941H
	DW	07941H
	DW	07941H
	DW	07941H
	DW	07941H
	DW	07941H
	DW	07941H
	DW	07941H
	DW	07921H
	DW	07921H
	DW	07921H
	DW	07921H
	DW	07921H
	DW	07921H
	DW	07921H
	DW	07921H
	DW	07921H
	DW	07521H
	DW	07521H
	DW	07521H
	DW	07521H
	DW	07521H
	DW	07521H
	DW	07521H
	DW	07521H
	DW	07521H
	DW	07521H
	DW	07521H
	DW	07521H
	DW	07521H
	DW	07501H
	DW	07501H
	DW	07501H
	DW	07501H
	DW	07501H
	DW	07501H
	DW	07501H
	DW	07501H
	DW	07501H
	DW	07501H
	DW	07501H
	DW	07501H
	DW	07501H
	DW	07501H
	DW	07501H
	DW	07501H
	DW	07501H
	DW	07501H
	DW	07501H
	DW	07501H
	DW	07501H
	DW	07501H
	DW	07501H
	DW	07501H
	DW	074e1H
	DW	074e1H
	DW	074e1H
	DW	074e1H
	DW	074e1H
	DW	074e1H
	DW	074e1H
	DW	074e1H
	DW	074e1H
	DW	074e1H
	DW	074e1H
	DW	074e1H
	DW	074e1H
	DW	074e1H
	DW	074e1H
	DW	074e1H
	DW	074e1H
	DW	074e1H
	DW	074e1H
	DW	070e1H
	DW	070e1H
	DW	070e1H
	DW	070e1H
	DW	070c1H
	DW	070c1H
	DW	070c1H
	DW	070c1H
	DW	070c1H
	DW	070c1H
	DW	070c1H
	DW	070c1H
	DW	070c1H
	DW	070c1H
	DW	070c1H
	DW	070c1H
	DW	070c1H
	DW	070c1H
	DW	070c1H
	DW	070c1H
	DW	070c1H
	DW	070c1H
	DW	070c1H
	DW	070c1H
	DW	070c1H
	DW	070c1H
	DW	070c1H
	DW	070c1H
	DW	070c1H
	DW	070a1H
	DW	070a1H
	DW	070a1H
	DW	070a1H
	DW	070a1H
	DW	070a1H
	DW	070a1H
	DW	070a1H
	DW	070a1H
	DW	070a1H
	DW	070a1H
	DW	070a1H
	DW	070a1H
	DW	070a1H
	DW	070a1H
	DW	070a1H
	DW	070a1H
	DW	070a1H
	DW	070a1H
	DW	070a1H
	DW	070a1H
	DW	06ca1H
	DW	06ca1H
	DW	06ca1H
	DW	06ca1H
	DW	06ca1H
	DW	06c81H
	DW	06c81H
	DW	074a1H
	DW	03440H
	DW	00H
	DW	00H
	DW	00H
	DW	00H
	DW	00H
	DW	00H
	DW	00H
	DW	00H
	DW	00H
	DW	00H
	DW	00H
	DW	00H
	DW	00H
	DW	00H
	DW	00H
	DW	00H
	DW	00H
	DW	00H
	DW	00H
	DW	00H
	DW	00H
	DW	00H
	DW	00H
	DW	00H
	DW	00H
	DW	00H
	DW	00H
	DW	00H
	DW	00H
	DW	00H
	DW	00H
	DW	00H
	DW	00H
	DW	00H
	DW	00H
	DW	00H
	DW	00H
	DW	00H
	DW	00H
	DW	00H
	DW	00H
	DW	00H
	DW	00H
	DW	00H
	DW	00H
	DW	00H
	DW	00H
	DW	00H
	DW	00H
	DW	00H
	DW	00H
	DW	00H
	DW	00H
	DW	00H
	DW	00H
	DW	00H
	DW	00H
	DW	00H
	DW	00H
	DW	00H
	DW	00H
	DW	00H
	DW	00H
	DW	00H
	DW	00H
	DW	00H
	DW	00H
	DW	00H
	DW	00H
	DW	00H
	DW	00H
	DW	00H
	DW	00H
	DW	00H
	DW	00H
	DW	00H
	DW	00H
	DW	00H
	DW	00H
	DW	00H
	DW	00H
	DW	00H
	DW	00H
	DW	00H
	DW	00H
	DW	00H
	DW	00H
	DW	00H
	DW	00H
	DW	00H
	DW	00H
	DW	00H
	DW	00H
	DW	00H
	DW	00H
	DW	00H
	DW	00H
	DW	00H
	DW	00H
	DW	00H
	DW	00H
	DW	00H
	DW	00H
	DW	00H
	DW	00H
	DW	00H
	DW	00H
	DW	00H
	DW	00H
	DW	00H
	DW	00H
	DW	00H
	DW	00H
	DW	00H
	DW	00H
	DW	00H
	DW	00H
	DW	00H
	DW	00H
	DW	00H
	DW	00H
	DW	00H
	DW	00H
	DW	00H
	DW	00H
	DW	00H
	DW	00H
	DW	00H
	DW	00H
	DW	00H
	DW	00H
	DW	00H
	DW	00H
	DW	00H
	DW	00H
	DW	00H
	DW	00H
	DW	00H
	DW	00H
	DW	00H
	DW	00H
	DW	00H
	DW	00H
	DW	00H
	DW	00H
	DW	00H
	DW	00H
	DW	00H
	DW	00H
	DW	00H
	DW	00H
	DW	00H
	DW	00H
	DW	00H
	DW	00H
	DW	00H
	DW	00H
	DW	00H
	DW	00H
	DW	00H
	DW	00H
	DW	00H
	DW	00H
	DW	00H
	DW	00H
	DW	00H
	DW	00H
	DW	00H
	DW	00H
	DW	00H
	DW	00H
	DW	00H
	DW	00H
	DW	00H
	DW	00H
	DW	00H
	DW	00H
	DW	00H
	DW	00H
	DW	00H
	DW	00H
	DW	00H
	DW	00H
	DW	00H
	DW	00H
	DW	00H
	DW	00H
	DW	00H
	DW	00H
	DW	00H
	DW	00H
	DW	00H
	DW	00H
	DW	00H
	DW	00H
	DW	00H
	DW	00H
	DW	00H
	DW	00H
	DW	00H
	DW	00H
	DW	00H
	DW	00H
	DW	00H
	DW	00H
	DW	00H
	DW	00H
	DW	00H
	DW	00H
	DW	00H
	DW	00H
	DW	00H
	DW	00H
	DW	00H
	DW	00H
	DW	00H
	DW	00H
	DW	00H
	DW	00H
	DW	00H
	DW	00H
	DW	00H
	DW	00H
	DW	00H
	DW	00H
	DW	00H
	DW	00H
	DW	00H
	DW	00H
	DW	00H
	DW	00H
	DW	00H
	DW	00H
	DW	00H
	DW	00H
	DW	00H
	DW	00H
	DW	00H
	DW	00H
	DW	00H
	DW	00H
	DW	00H
	DW	00H
	DW	0400H
	DW	01041H
	DW	01c61H
	DW	02082H
	DW	02082H
	DW	01c82H
	DW	01c82H
	DW	01c82H
	DW	01c82H
	DW	01c82H
	DW	01c81H
	DW	01c81H
	DW	01c81H
	DW	02081H
	DW	02081H
	DW	02081H
	DW	02081H
	DW	02482H
	DW	028a2H
	DW	02ca2H
	DW	030c2H
	DW	034c2H
	DW	038e2H
	DW	04103H
	DW	04503H
	DW	04d23H
	DW	05543H
	DW	05943H
	DW	06164H
	DW	06584H
	DW	06984H
	DW	06d84H
	DW	071a4H
	DW	075a4H
	DW	079a4H
	DW	079a4H
	DW	079a4H
	DW	079a4H
	DW	07da4H
	DW	07da4H
	DW	07da4H
	DW	07da4H
	DW	07da3H
	DW	07da3H
	DW	07da3H
	DW	07da3H
	DW	07da3H
	DW	079a3H
	DW	079a3H
	DW	079a3H
	DW	079a3H
	DW	07983H
	DW	07983H
	DW	07983H
	DW	07982H
	DW	07982H
	DW	07982H
	DW	07982H
	DW	07982H
	DW	07982H
	DW	07982H
	DW	07982H
	DW	07982H
	DW	07982H
	DW	07982H
	DW	07982H
	DW	07982H
	DW	07982H
	DW	07962H
	DW	07962H
	DW	07962H
	DW	07962H
	DW	07962H
	DW	07962H
	DW	07962H
	DW	07962H
	DW	07961H
	DW	07961H
	DW	07961H
	DW	07961H
	DW	07961H
	DW	07961H
	DW	07961H
	DW	07961H
	DW	07961H
	DW	07961H
	DW	07961H
	DW	07961H
	DW	07961H
	DW	07961H
	DW	07941H
	DW	07941H
	DW	07941H
	DW	07941H
	DW	07941H
	DW	07941H
	DW	07941H
	DW	07941H
	DW	07941H
	DW	07941H
	DW	07941H
	DW	07941H
	DW	07941H
	DW	07941H
	DW	07941H
	DW	07941H
	DW	07941H
	DW	07941H
	DW	07941H
	DW	07941H
	DW	07941H
	DW	07941H
	DW	07921H
	DW	07921H
	DW	07921H
	DW	07921H
	DW	07921H
	DW	07921H
	DW	07921H
	DW	07921H
	DW	07921H
	DW	07521H
	DW	07521H
	DW	07521H
	DW	07521H
	DW	07521H
	DW	07521H
	DW	07521H
	DW	07521H
	DW	07521H
	DW	07521H
	DW	07521H
	DW	07521H
	DW	07521H
	DW	07521H
	DW	07501H
	DW	07501H
	DW	07501H
	DW	07501H
	DW	07501H
	DW	07501H
	DW	07501H
	DW	07501H
	DW	07501H
	DW	07501H
	DW	07501H
	DW	07501H
	DW	07501H
	DW	07501H
	DW	07501H
	DW	07501H
	DW	07501H
	DW	07501H
	DW	07501H
	DW	07501H
	DW	07501H
	DW	07501H
	DW	074e1H
	DW	074e1H
	DW	074e1H
	DW	074e1H
	DW	074e1H
	DW	074e1H
	DW	074e1H
	DW	074e1H
	DW	074e1H
	DW	074e1H
	DW	074e1H
	DW	074e1H
	DW	074e1H
	DW	074e1H
	DW	074e1H
	DW	074e1H
	DW	074e1H
	DW	074e1H
	DW	074e1H
	DW	074e1H
	DW	070e1H
	DW	070e1H
	DW	070e1H
	DW	070e1H
	DW	070c1H
	DW	070c1H
	DW	070c1H
	DW	070c1H
	DW	070c1H
	DW	070c1H
	DW	070c1H
	DW	070c1H
	DW	070c1H
	DW	070c1H
	DW	070c1H
	DW	070c1H
	DW	070c1H
	DW	070c1H
	DW	070c1H
	DW	070c1H
	DW	070c1H
	DW	070c1H
	DW	070c1H
	DW	070c1H
	DW	070c1H
	DW	070c1H
	DW	070c1H
	DW	070c1H
	DW	070c1H
	DW	070a1H
	DW	070a1H
	DW	070a1H
	DW	070a1H
	DW	070a1H
	DW	070a1H
	DW	070a1H
	DW	070a1H
	DW	070a1H
	DW	070a1H
	DW	070a1H
	DW	070a1H
	DW	070a1H
	DW	070a1H
	DW	070a1H
	DW	070a1H
	DW	070a1H
	DW	070a1H
	DW	070a1H
	DW	070a1H
	DW	070a1H
	DW	06ca1H
	DW	06ca1H
	DW	06ca1H
	DW	06ca1H
	DW	06ca1H
	DW	06c81H
	DW	06c81H
	DW	06c81H
	DW	074a1H
	DW	03440H
	DW	00H
	DW	00H
	DW	00H
	DW	00H
	DW	00H
	DW	00H
	DW	00H
	DW	00H
	DW	00H
	DW	00H
	DW	00H
	DW	00H
	DW	00H
	DW	00H
	DW	00H
	DW	00H
	DW	00H
	DW	00H
	DW	00H
	DW	00H
	DW	00H
	DW	00H
	DW	00H
	DW	00H
	DW	00H
	DW	00H
	DW	00H
	DW	00H
	DW	00H
	DW	00H
	DW	00H
	DW	00H
	DW	00H
	DW	00H
	DW	00H
	DW	00H
	DW	00H
	DW	00H
	DW	00H
	DW	00H
	DW	00H
	DW	00H
	DW	00H
	DW	00H
	DW	00H
	DW	00H
	DW	00H
	DW	00H
	DW	00H
	DW	00H
	DW	00H
	DW	00H
	DW	00H
	DW	00H
	DW	00H
	DW	00H
	DW	00H
	DW	00H
	DW	00H
	DW	00H
	DW	00H
	DW	00H
	DW	00H
	DW	00H
	DW	00H
	DW	00H
	DW	00H
	DW	00H
	DW	00H
	DW	00H
	DW	00H
	DW	00H
	DW	00H
	DW	00H
	DW	00H
	DW	00H
	DW	00H
	DW	00H
	DW	00H
	DW	00H
	DW	00H
	DW	00H
	DW	00H
	DW	00H
	DW	00H
	DW	00H
	DW	00H
	DW	00H
	DW	00H
	DW	00H
	DW	00H
	DW	00H
	DW	00H
	DW	00H
	DW	00H
	DW	00H
	DW	00H
	DW	00H
	DW	00H
	DW	00H
	DW	00H
	DW	00H
	DW	00H
	DW	00H
	DW	00H
	DW	00H
	DW	00H
	DW	00H
	DW	00H
	DW	00H
	DW	00H
	DW	00H
	DW	00H
	DW	00H
	DW	00H
	DW	00H
	DW	00H
	DW	00H
	DW	00H
	DW	00H
	DW	00H
	DW	00H
	DW	00H
	DW	00H
	DW	00H
	DW	00H
	DW	00H
	DW	00H
	DW	00H
	DW	00H
	DW	00H
	DW	00H
	DW	00H
	DW	00H
	DW	00H
	DW	00H
	DW	00H
	DW	00H
	DW	00H
	DW	00H
	DW	00H
	DW	00H
	DW	00H
	DW	00H
	DW	00H
	DW	00H
	DW	00H
	DW	00H
	DW	00H
	DW	00H
	DW	00H
	DW	00H
	DW	00H
	DW	00H
	DW	00H
	DW	00H
	DW	00H
	DW	00H
	DW	00H
	DW	00H
	DW	00H
	DW	00H
	DW	00H
	DW	00H
	DW	00H
	DW	00H
	DW	00H
	DW	00H
	DW	00H
	DW	00H
	DW	00H
	DW	00H
	DW	00H
	DW	00H
	DW	00H
	DW	00H
	DW	00H
	DW	00H
	DW	00H
	DW	00H
	DW	00H
	DW	00H
	DW	00H
	DW	00H
	DW	00H
	DW	00H
	DW	00H
	DW	00H
	DW	00H
	DW	00H
	DW	00H
	DW	00H
	DW	00H
	DW	00H
	DW	00H
	DW	00H
	DW	00H
	DW	00H
	DW	00H
	DW	00H
	DW	00H
	DW	00H
	DW	00H
	DW	00H
	DW	00H
	DW	00H
	DW	00H
	DW	00H
	DW	00H
	DW	00H
	DW	00H
	DW	00H
	DW	00H
	DW	00H
	DW	00H
	DW	00H
	DW	00H
	DW	00H
	DW	00H
	DW	00H
	DW	00H
	DW	00H
	DW	00H
	DW	00H
	DW	00H
	DW	00H
	DW	00H
	DW	00H
	DW	00H
	DW	00H
	DW	00H
	DW	00H
	DW	00H
	DW	00H
	DW	00H
	DW	00H
	DW	00H
	DW	00H
	DW	00H
	DW	00H
	DW	00H
	DW	0420H
	DW	01441H
	DW	01c82H
	DW	02082H
	DW	02082H
	DW	01c82H
	DW	01c82H
	DW	01c82H
	DW	01c82H
	DW	01c82H
	DW	01c81H
	DW	01c81H
	DW	02081H
	DW	02081H
	DW	02081H
	DW	02081H
	DW	02482H
	DW	02482H
	DW	028a2H
	DW	02ca2H
	DW	030c2H
	DW	038c2H
	DW	03ce2H
	DW	04503H
	DW	04923H
	DW	05123H
	DW	05943H
	DW	05d64H
	DW	06584H
	DW	06984H
	DW	06da4H
	DW	071a4H
	DW	075a4H
	DW	075a4H
	DW	079a4H
	DW	079a4H
	DW	079c4H
	DW	07dc4H
	DW	07da4H
	DW	07da4H
	DW	07da4H
	DW	07da4H
	DW	07da3H
	DW	07da3H
	DW	07da3H
	DW	07da3H
	DW	07da3H
	DW	079a3H
	DW	079a3H
	DW	079a3H
	DW	079a3H
	DW	07983H
	DW	07983H
	DW	07983H
	DW	07982H
	DW	07982H
	DW	07982H
	DW	07982H
	DW	07982H
	DW	07982H
	DW	07982H
	DW	07982H
	DW	07982H
	DW	07982H
	DW	07982H
	DW	07982H
	DW	07982H
	DW	07982H
	DW	07962H
	DW	07962H
	DW	07962H
	DW	07962H
	DW	07962H
	DW	07962H
	DW	07962H
	DW	07962H
	DW	07961H
	DW	07961H
	DW	07961H
	DW	07961H
	DW	07961H
	DW	07961H
	DW	07961H
	DW	07961H
	DW	07961H
	DW	07961H
	DW	07961H
	DW	07961H
	DW	07961H
	DW	07961H
	DW	07941H
	DW	07941H
	DW	07941H
	DW	07941H
	DW	07941H
	DW	07941H
	DW	07941H
	DW	07941H
	DW	07941H
	DW	07941H
	DW	07941H
	DW	07941H
	DW	07941H
	DW	07941H
	DW	07941H
	DW	07941H
	DW	07941H
	DW	07941H
	DW	07941H
	DW	07941H
	DW	07941H
	DW	07941H
	DW	07941H
	DW	07921H
	DW	07921H
	DW	07921H
	DW	07921H
	DW	07921H
	DW	07921H
	DW	07921H
	DW	07921H
	DW	07921H
	DW	07521H
	DW	07521H
	DW	07521H
	DW	07521H
	DW	07521H
	DW	07521H
	DW	07521H
	DW	07521H
	DW	07521H
	DW	07521H
	DW	07521H
	DW	07521H
	DW	07521H
	DW	07501H
	DW	07501H
	DW	07501H
	DW	07501H
	DW	07501H
	DW	07501H
	DW	07501H
	DW	07501H
	DW	07501H
	DW	07501H
	DW	07501H
	DW	07501H
	DW	07501H
	DW	07501H
	DW	07501H
	DW	07501H
	DW	07501H
	DW	07501H
	DW	07501H
	DW	07501H
	DW	07501H
	DW	07501H
	DW	07501H
	DW	074e1H
	DW	074e1H
	DW	074e1H
	DW	074e1H
	DW	074e1H
	DW	074e1H
	DW	074e1H
	DW	074e1H
	DW	074e1H
	DW	074e1H
	DW	074e1H
	DW	074e1H
	DW	074e1H
	DW	074e1H
	DW	074e1H
	DW	074e1H
	DW	074e1H
	DW	074e1H
	DW	074e1H
	DW	070e1H
	DW	070e1H
	DW	070e1H
	DW	070e1H
	DW	070e1H
	DW	070c1H
	DW	070c1H
	DW	070c1H
	DW	070c1H
	DW	070c1H
	DW	070c1H
	DW	070c1H
	DW	070c1H
	DW	070c1H
	DW	070c1H
	DW	070c1H
	DW	070c1H
	DW	070c1H
	DW	070c1H
	DW	070c1H
	DW	070c1H
	DW	070c1H
	DW	070c1H
	DW	070c1H
	DW	070c1H
	DW	070c1H
	DW	070c1H
	DW	070c1H
	DW	070c1H
	DW	070a1H
	DW	070a1H
	DW	070a1H
	DW	070a1H
	DW	070a1H
	DW	070a1H
	DW	070a1H
	DW	070a1H
	DW	070a1H
	DW	070a1H
	DW	070a1H
	DW	070a1H
	DW	070a1H
	DW	070a1H
	DW	070a1H
	DW	070a1H
	DW	070a1H
	DW	070a1H
	DW	070a1H
	DW	070a1H
	DW	070a1H
	DW	070a1H
	DW	06ca1H
	DW	06ca1H
	DW	06ca1H
	DW	06ca1H
	DW	06c81H
	DW	06c81H
	DW	06c81H
	DW	06c81H
	DW	06c81H
	DW	074a1H
	DW	03440H
	DW	00H
	DW	00H
	DW	00H
	DW	00H
	DW	00H
	DW	00H
	DW	00H
	DW	00H
	DW	00H
	DW	00H
	DW	00H
	DW	00H
	DW	00H
	DW	00H
	DW	00H
	DW	00H
	DW	00H
	DW	00H
	DW	00H
	DW	00H
	DW	00H
	DW	00H
	DW	00H
	DW	00H
	DW	00H
	DW	00H
	DW	00H
	DW	00H
	DW	00H
	DW	00H
	DW	00H
	DW	00H
	DW	00H
	DW	00H
	DW	00H
	DW	00H
	DW	00H
	DW	00H
	DW	00H
	DW	00H
	DW	00H
	DW	00H
	DW	00H
	DW	00H
	DW	00H
	DW	00H
	DW	00H
	DW	00H
	DW	00H
	DW	00H
	DW	00H
	DW	00H
	DW	00H
	DW	00H
	DW	00H
	DW	00H
	DW	00H
	DW	00H
	DW	00H
	DW	00H
	DW	00H
	DW	00H
	DW	00H
	DW	00H
	DW	00H
	DW	00H
	DW	00H
	DW	00H
	DW	00H
	DW	00H
	DW	00H
	DW	00H
	DW	00H
	DW	00H
	DW	00H
	DW	00H
	DW	00H
	DW	00H
	DW	00H
	DW	00H
	DW	00H
	DW	00H
	DW	00H
	DW	00H
	DW	00H
	DW	00H
	DW	00H
	DW	00H
	DW	00H
	DW	00H
	DW	00H
	DW	00H
	DW	00H
	DW	00H
	DW	00H
	DW	00H
	DW	00H
	DW	00H
	DW	00H
	DW	00H
	DW	00H
	DW	00H
	DW	00H
	DW	00H
	DW	00H
	DW	00H
	DW	00H
	DW	00H
	DW	00H
	DW	00H
	DW	00H
	DW	00H
	DW	00H
	DW	00H
	DW	00H
	DW	00H
	DW	00H
	DW	00H
	DW	00H
	DW	00H
	DW	00H
	DW	00H
	DW	00H
	DW	00H
	DW	00H
	DW	00H
	DW	00H
	DW	00H
	DW	00H
	DW	00H
	DW	00H
	DW	00H
	DW	00H
	DW	00H
	DW	00H
	DW	00H
	DW	00H
	DW	00H
	DW	00H
	DW	00H
	DW	00H
	DW	00H
	DW	00H
	DW	00H
	DW	00H
	DW	00H
	DW	00H
	DW	00H
	DW	00H
	DW	00H
	DW	00H
	DW	00H
	DW	00H
	DW	00H
	DW	00H
	DW	00H
	DW	00H
	DW	00H
	DW	00H
	DW	00H
	DW	00H
	DW	00H
	DW	00H
	DW	00H
	DW	00H
	DW	00H
	DW	00H
	DW	00H
	DW	00H
	DW	00H
	DW	00H
	DW	00H
	DW	00H
	DW	00H
	DW	00H
	DW	00H
	DW	00H
	DW	00H
	DW	00H
	DW	00H
	DW	00H
	DW	00H
	DW	00H
	DW	00H
	DW	00H
	DW	00H
	DW	00H
	DW	00H
	DW	00H
	DW	00H
	DW	00H
	DW	00H
	DW	00H
	DW	00H
	DW	00H
	DW	00H
	DW	00H
	DW	00H
	DW	00H
	DW	00H
	DW	00H
	DW	00H
	DW	00H
	DW	00H
	DW	00H
	DW	00H
	DW	00H
	DW	00H
	DW	00H
	DW	00H
	DW	00H
	DW	00H
	DW	00H
	DW	00H
	DW	00H
	DW	00H
	DW	00H
	DW	00H
	DW	00H
	DW	00H
	DW	00H
	DW	00H
	DW	00H
	DW	00H
	DW	00H
	DW	00H
	DW	00H
	DW	00H
	DW	00H
	DW	00H
	DW	00H
	DW	00H
	DW	00H
	DW	00H
	DW	00H
	DW	00H
	DW	00H
	DW	00H
	DW	00H
	DW	0820H
	DW	01461H
	DW	02082H
	DW	02082H
	DW	02082H
	DW	01c82H
	DW	01c82H
	DW	01c82H
	DW	01c82H
	DW	01c82H
	DW	01c81H
	DW	01c81H
	DW	02081H
	DW	02081H
	DW	02082H
	DW	02082H
	DW	02482H
	DW	028a2H
	DW	02ca2H
	DW	030c2H
	DW	034c2H
	DW	038e3H
	DW	04103H
	DW	04903H
	DW	04d23H
	DW	05543H
	DW	05d64H
	DW	06164H
	DW	06584H
	DW	06d84H
	DW	071a4H
	DW	071a4H
	DW	075a4H
	DW	079c4H
	DW	079c4H
	DW	079c4H
	DW	07dc4H
	DW	07dc4H
	DW	07dc4H
	DW	07da4H
	DW	07da4H
	DW	07da4H
	DW	07da4H
	DW	07da3H
	DW	07da3H
	DW	07da3H
	DW	07da3H
	DW	079a3H
	DW	079a3H
	DW	079a3H
	DW	079a3H
	DW	07983H
	DW	07983H
	DW	07983H
	DW	07983H
	DW	07982H
	DW	07982H
	DW	07982H
	DW	07982H
	DW	07982H
	DW	07982H
	DW	07982H
	DW	07982H
	DW	07982H
	DW	07982H
	DW	07982H
	DW	07982H
	DW	07982H
	DW	07962H
	DW	07962H
	DW	07962H
	DW	07962H
	DW	07962H
	DW	07962H
	DW	07962H
	DW	07962H
	DW	07961H
	DW	07961H
	DW	07961H
	DW	07961H
	DW	07961H
	DW	07961H
	DW	07961H
	DW	07961H
	DW	07961H
	DW	07961H
	DW	07961H
	DW	07961H
	DW	07961H
	DW	07961H
	DW	07961H
	DW	07941H
	DW	07941H
	DW	07941H
	DW	07941H
	DW	07941H
	DW	07941H
	DW	07941H
	DW	07941H
	DW	07941H
	DW	07941H
	DW	07941H
	DW	07941H
	DW	07941H
	DW	07941H
	DW	07941H
	DW	07941H
	DW	07941H
	DW	07941H
	DW	07941H
	DW	07941H
	DW	07941H
	DW	07941H
	DW	07921H
	DW	07921H
	DW	07921H
	DW	07921H
	DW	07921H
	DW	07921H
	DW	07921H
	DW	07921H
	DW	07921H
	DW	07521H
	DW	07521H
	DW	07521H
	DW	07521H
	DW	07521H
	DW	07521H
	DW	07521H
	DW	07521H
	DW	07521H
	DW	07521H
	DW	07521H
	DW	07521H
	DW	07521H
	DW	07501H
	DW	07501H
	DW	07501H
	DW	07501H
	DW	07501H
	DW	07501H
	DW	07501H
	DW	07501H
	DW	07501H
	DW	07501H
	DW	07501H
	DW	07501H
	DW	07501H
	DW	07501H
	DW	07501H
	DW	07501H
	DW	07501H
	DW	07501H
	DW	07501H
	DW	07501H
	DW	07501H
	DW	07501H
	DW	07501H
	DW	074e1H
	DW	074e1H
	DW	074e1H
	DW	074e1H
	DW	074e1H
	DW	074e1H
	DW	074e1H
	DW	074e1H
	DW	074e1H
	DW	074e1H
	DW	074e1H
	DW	074e1H
	DW	074e1H
	DW	074e1H
	DW	074e1H
	DW	074e1H
	DW	074e1H
	DW	074e1H
	DW	074e1H
	DW	074e1H
	DW	070e1H
	DW	070e1H
	DW	070e1H
	DW	070e1H
	DW	070c1H
	DW	070c1H
	DW	070c1H
	DW	070c1H
	DW	070c1H
	DW	070c1H
	DW	070c1H
	DW	070c1H
	DW	070c1H
	DW	070c1H
	DW	070c1H
	DW	070c1H
	DW	070c1H
	DW	070c1H
	DW	070c1H
	DW	070c1H
	DW	070c1H
	DW	070c1H
	DW	070c1H
	DW	070c1H
	DW	070c1H
	DW	070c1H
	DW	070c1H
	DW	070c1H
	DW	070a1H
	DW	070a1H
	DW	070a1H
	DW	070a1H
	DW	070a1H
	DW	070a1H
	DW	070a1H
	DW	070a1H
	DW	070a1H
	DW	070a1H
	DW	070a1H
	DW	070a1H
	DW	070a1H
	DW	070a1H
	DW	070a1H
	DW	070a1H
	DW	070a1H
	DW	070a1H
	DW	070a1H
	DW	070a1H
	DW	070a1H
	DW	070a1H
	DW	06ca1H
	DW	06ca1H
	DW	06ca1H
	DW	06ca1H
	DW	06ca1H
	DW	06c81H
	DW	06c81H
	DW	06c81H
	DW	06c81H
	DW	06c81H
	DW	06c81H
	DW	074a1H
	DW	03440H
	DW	00H
	DW	00H
	DW	00H
	DW	00H
	DW	00H
	DW	00H
	DW	00H
	DW	00H
	DW	00H
	DW	00H
	DW	00H
	DW	00H
	DW	00H
	DW	00H
	DW	00H
	DW	00H
	DW	00H
	DW	00H
	DW	00H
	DW	00H
	DW	00H
	DW	00H
	DW	00H
	DW	00H
	DW	00H
	DW	00H
	DW	00H
	DW	00H
	DW	00H
	DW	00H
	DW	00H
	DW	00H
	DW	00H
	DW	00H
	DW	00H
	DW	00H
	DW	00H
	DW	00H
	DW	00H
	DW	00H
	DW	00H
	DW	00H
	DW	00H
	DW	00H
	DW	00H
	DW	00H
	DW	00H
	DW	00H
	DW	00H
	DW	00H
	DW	00H
	DW	00H
	DW	00H
	DW	00H
	DW	00H
	DW	00H
	DW	00H
	DW	00H
	DW	00H
	DW	00H
	DW	00H
	DW	00H
	DW	00H
	DW	00H
	DW	00H
	DW	00H
	DW	00H
	DW	00H
	DW	00H
	DW	00H
	DW	00H
	DW	00H
	DW	00H
	DW	00H
	DW	00H
	DW	00H
	DW	00H
	DW	00H
	DW	00H
	DW	00H
	DW	00H
	DW	00H
	DW	00H
	DW	00H
	DW	00H
	DW	00H
	DW	00H
	DW	00H
	DW	00H
	DW	00H
	DW	00H
	DW	00H
	DW	00H
	DW	00H
	DW	00H
	DW	00H
	DW	00H
	DW	00H
	DW	00H
	DW	00H
	DW	00H
	DW	00H
	DW	00H
	DW	00H
	DW	00H
	DW	00H
	DW	00H
	DW	00H
	DW	00H
	DW	00H
	DW	00H
	DW	00H
	DW	00H
	DW	00H
	DW	00H
	DW	00H
	DW	00H
	DW	00H
	DW	00H
	DW	00H
	DW	00H
	DW	00H
	DW	00H
	DW	00H
	DW	00H
	DW	00H
	DW	00H
	DW	00H
	DW	00H
	DW	00H
	DW	00H
	DW	00H
	DW	00H
	DW	00H
	DW	00H
	DW	00H
	DW	00H
	DW	00H
	DW	00H
	DW	00H
	DW	00H
	DW	00H
	DW	00H
	DW	00H
	DW	00H
	DW	00H
	DW	00H
	DW	00H
	DW	00H
	DW	00H
	DW	00H
	DW	00H
	DW	00H
	DW	00H
	DW	00H
	DW	00H
	DW	00H
	DW	00H
	DW	00H
	DW	00H
	DW	00H
	DW	00H
	DW	00H
	DW	00H
	DW	00H
	DW	00H
	DW	00H
	DW	00H
	DW	00H
	DW	00H
	DW	00H
	DW	00H
	DW	00H
	DW	00H
	DW	00H
	DW	00H
	DW	00H
	DW	00H
	DW	00H
	DW	00H
	DW	00H
	DW	00H
	DW	00H
	DW	00H
	DW	00H
	DW	00H
	DW	00H
	DW	00H
	DW	00H
	DW	00H
	DW	00H
	DW	00H
	DW	00H
	DW	00H
	DW	00H
	DW	00H
	DW	00H
	DW	00H
	DW	00H
	DW	00H
	DW	00H
	DW	00H
	DW	00H
	DW	00H
	DW	00H
	DW	00H
	DW	00H
	DW	00H
	DW	00H
	DW	00H
	DW	00H
	DW	00H
	DW	00H
	DW	00H
	DW	00H
	DW	00H
	DW	00H
	DW	00H
	DW	00H
	DW	00H
	DW	00H
	DW	00H
	DW	00H
	DW	00H
	DW	00H
	DW	00H
	DW	00H
	DW	00H
	DW	00H
	DW	00H
	DW	00H
	DW	00H
	DW	00H
	DW	00H
	DW	00H
	DW	00H
	DW	00H
	DW	0820H
	DW	01861H
	DW	02082H
	DW	02082H
	DW	01c82H
	DW	01c82H
	DW	01c82H
	DW	01c82H
	DW	01c82H
	DW	01c82H
	DW	01c82H
	DW	01c82H
	DW	02081H
	DW	02081H
	DW	02082H
	DW	02082H
	DW	02482H
	DW	028a2H
	DW	02ca2H
	DW	030c2H
	DW	034e2H
	DW	03ce3H
	DW	04503H
	DW	04923H
	DW	05143H
	DW	05944H
	DW	05d64H
	DW	06584H
	DW	06984H
	DW	06da4H
	DW	071a4H
	DW	075a4H
	DW	075c4H
	DW	079c4H
	DW	079c4H
	DW	079c4H
	DW	07dc4H
	DW	07dc4H
	DW	07dc4H
	DW	07dc4H
	DW	07da4H
	DW	07da4H
	DW	07da4H
	DW	07da4H
	DW	07da3H
	DW	07da3H
	DW	07da3H
	DW	07da3H
	DW	07da3H
	DW	079a3H
	DW	079a3H
	DW	079a3H
	DW	07983H
	DW	07983H
	DW	07983H
	DW	07982H
	DW	07982H
	DW	07982H
	DW	07982H
	DW	07982H
	DW	07982H
	DW	07982H
	DW	07982H
	DW	07982H
	DW	07982H
	DW	07982H
	DW	07982H
	DW	07982H
	DW	07982H
	DW	07982H
	DW	07962H
	DW	07962H
	DW	07962H
	DW	07962H
	DW	07962H
	DW	07962H
	DW	07962H
	DW	07962H
	DW	07961H
	DW	07961H
	DW	07961H
	DW	07961H
	DW	07961H
	DW	07961H
	DW	07961H
	DW	07961H
	DW	07961H
	DW	07961H
	DW	07961H
	DW	07961H
	DW	07961H
	DW	07941H
	DW	07941H
	DW	07941H
	DW	07941H
	DW	07941H
	DW	07941H
	DW	07941H
	DW	07941H
	DW	07941H
	DW	07941H
	DW	07941H
	DW	07941H
	DW	07941H
	DW	07941H
	DW	07941H
	DW	07941H
	DW	07941H
	DW	07941H
	DW	07941H
	DW	07941H
	DW	07941H
	DW	07941H
	DW	07941H
	DW	07921H
	DW	07921H
	DW	07921H
	DW	07921H
	DW	07921H
	DW	07921H
	DW	07921H
	DW	07921H
	DW	07921H
	DW	07521H
	DW	07521H
	DW	07521H
	DW	07521H
	DW	07521H
	DW	07521H
	DW	07521H
	DW	07521H
	DW	07521H
	DW	07521H
	DW	07521H
	DW	07521H
	DW	07521H
	DW	07501H
	DW	07501H
	DW	07501H
	DW	07501H
	DW	07501H
	DW	07501H
	DW	07501H
	DW	07501H
	DW	07501H
	DW	07501H
	DW	07501H
	DW	07501H
	DW	07501H
	DW	07501H
	DW	07501H
	DW	07501H
	DW	07501H
	DW	07501H
	DW	07501H
	DW	07501H
	DW	07501H
	DW	07501H
	DW	07501H
	DW	074e1H
	DW	074e1H
	DW	074e1H
	DW	074e1H
	DW	074e1H
	DW	074e1H
	DW	074e1H
	DW	074e1H
	DW	074e1H
	DW	074e1H
	DW	074e1H
	DW	074e1H
	DW	074e1H
	DW	074e1H
	DW	074e1H
	DW	074e1H
	DW	074e1H
	DW	074e1H
	DW	074e1H
	DW	070e1H
	DW	070e1H
	DW	070e1H
	DW	070e1H
	DW	070e1H
	DW	070c1H
	DW	070c1H
	DW	070c1H
	DW	070c1H
	DW	070c1H
	DW	070c1H
	DW	070c1H
	DW	070c1H
	DW	070c1H
	DW	070c1H
	DW	070c1H
	DW	070c1H
	DW	070c1H
	DW	070c1H
	DW	070c1H
	DW	070c1H
	DW	070c1H
	DW	070c1H
	DW	070c1H
	DW	070c1H
	DW	070c1H
	DW	070c1H
	DW	070c1H
	DW	070c1H
	DW	070c1H
	DW	070a1H
	DW	070a1H
	DW	070a1H
	DW	070a1H
	DW	070a1H
	DW	070a1H
	DW	070a1H
	DW	070a1H
	DW	070a1H
	DW	070a1H
	DW	070a1H
	DW	070a1H
	DW	070a1H
	DW	070a1H
	DW	070a1H
	DW	070a1H
	DW	070a1H
	DW	070a1H
	DW	070a1H
	DW	070a1H
	DW	070a1H
	DW	06ca1H
	DW	06ca1H
	DW	06ca1H
	DW	06ca1H
	DW	06ca1H
	DW	06c81H
	DW	06c81H
	DW	06c81H
	DW	06c81H
	DW	06c81H
	DW	06c81H
	DW	06c81H
	DW	074a1H
	DW	03440H
	DW	00H
	DW	00H
	DW	00H
	DW	00H
	DW	00H
	DW	00H
	DW	00H
	DW	00H
	DW	00H
	DW	00H
	DW	00H
	DW	00H
	DW	00H
	DW	00H
	DW	00H
	DW	00H
	DW	00H
	DW	00H
	DW	00H
	DW	00H
	DW	00H
	DW	00H
	DW	00H
	DW	00H
	DW	00H
	DW	00H
	DW	00H
	DW	00H
	DW	00H
	DW	00H
	DW	00H
	DW	00H
	DW	00H
	DW	00H
	DW	00H
	DW	00H
	DW	00H
	DW	00H
	DW	00H
	DW	00H
	DW	00H
	DW	00H
	DW	00H
	DW	00H
	DW	00H
	DW	00H
	DW	00H
	DW	00H
	DW	00H
	DW	00H
	DW	00H
	DW	00H
	DW	00H
	DW	00H
	DW	00H
	DW	00H
	DW	00H
	DW	00H
	DW	00H
	DW	00H
	DW	00H
	DW	00H
	DW	00H
	DW	00H
	DW	00H
	DW	00H
	DW	00H
	DW	00H
	DW	00H
	DW	00H
	DW	00H
	DW	00H
	DW	00H
	DW	00H
	DW	00H
	DW	00H
	DW	00H
	DW	00H
	DW	00H
	DW	00H
	DW	00H
	DW	00H
	DW	00H
	DW	00H
	DW	00H
	DW	00H
	DW	00H
	DW	00H
	DW	00H
	DW	00H
	DW	00H
	DW	00H
	DW	00H
	DW	00H
	DW	00H
	DW	00H
	DW	00H
	DW	00H
	DW	00H
	DW	00H
	DW	00H
	DW	00H
	DW	00H
	DW	00H
	DW	00H
	DW	00H
	DW	00H
	DW	00H
	DW	00H
	DW	00H
	DW	00H
	DW	00H
	DW	00H
	DW	00H
	DW	00H
	DW	00H
	DW	00H
	DW	00H
	DW	00H
	DW	00H
	DW	00H
	DW	00H
	DW	00H
	DW	00H
	DW	00H
	DW	00H
	DW	00H
	DW	00H
	DW	00H
	DW	00H
	DW	00H
	DW	00H
	DW	00H
	DW	00H
	DW	00H
	DW	00H
	DW	00H
	DW	00H
	DW	00H
	DW	00H
	DW	00H
	DW	00H
	DW	00H
	DW	00H
	DW	00H
	DW	00H
	DW	00H
	DW	00H
	DW	00H
	DW	00H
	DW	00H
	DW	00H
	DW	00H
	DW	00H
	DW	00H
	DW	00H
	DW	00H
	DW	00H
	DW	00H
	DW	00H
	DW	00H
	DW	00H
	DW	00H
	DW	00H
	DW	00H
	DW	00H
	DW	00H
	DW	00H
	DW	00H
	DW	00H
	DW	00H
	DW	00H
	DW	00H
	DW	00H
	DW	00H
	DW	00H
	DW	00H
	DW	00H
	DW	00H
	DW	00H
	DW	00H
	DW	00H
	DW	00H
	DW	00H
	DW	00H
	DW	00H
	DW	00H
	DW	00H
	DW	00H
	DW	00H
	DW	00H
	DW	00H
	DW	00H
	DW	00H
	DW	00H
	DW	00H
	DW	00H
	DW	00H
	DW	00H
	DW	00H
	DW	00H
	DW	00H
	DW	00H
	DW	00H
	DW	00H
	DW	00H
	DW	00H
	DW	00H
	DW	00H
	DW	00H
	DW	00H
	DW	00H
	DW	00H
	DW	00H
	DW	00H
	DW	00H
	DW	00H
	DW	00H
	DW	00H
	DW	00H
	DW	00H
	DW	00H
	DW	00H
	DW	00H
	DW	00H
	DW	00H
	DW	00H
	DW	00H
	DW	00H
	DW	00H
	DW	00H
	DW	00H
	DW	00H
	DW	00H
	DW	00H
	DW	0c21H
	DW	01861H
	DW	02082H
	DW	02082H
	DW	01c82H
	DW	01c82H
	DW	01c82H
	DW	01c82H
	DW	01c82H
	DW	01c82H
	DW	01c82H
	DW	01c82H
	DW	02082H
	DW	02082H
	DW	02082H
	DW	02482H
	DW	024a2H
	DW	028a2H
	DW	02cc2H
	DW	034c2H
	DW	038e3H
	DW	04103H
	DW	04503H
	DW	04d23H
	DW	05544H
	DW	05964H
	DW	06164H
	DW	06584H
	DW	06d84H
	DW	071a4H
	DW	071a5H
	DW	075c5H
	DW	079c5H
	DW	079c4H
	DW	079c4H
	DW	07dc4H
	DW	07dc4H
	DW	07dc4H
	DW	07dc4H
	DW	07dc4H
	DW	07da4H
	DW	07da4H
	DW	07da4H
	DW	07da4H
	DW	07da3H
	DW	07da3H
	DW	07da3H
	DW	07da3H
	DW	07da3H
	DW	079a3H
	DW	079a3H
	DW	079a3H
	DW	079a3H
	DW	07983H
	DW	07983H
	DW	07982H
	DW	07982H
	DW	07982H
	DW	07982H
	DW	07982H
	DW	07982H
	DW	07982H
	DW	07982H
	DW	07982H
	DW	07982H
	DW	07982H
	DW	07982H
	DW	07982H
	DW	07982H
	DW	07982H
	DW	07962H
	DW	07962H
	DW	07962H
	DW	07962H
	DW	07962H
	DW	07962H
	DW	07962H
	DW	07962H
	DW	07961H
	DW	07961H
	DW	07961H
	DW	07961H
	DW	07961H
	DW	07961H
	DW	07961H
	DW	07961H
	DW	07961H
	DW	07961H
	DW	07961H
	DW	07961H
	DW	07961H
	DW	07961H
	DW	07941H
	DW	07941H
	DW	07941H
	DW	07941H
	DW	07941H
	DW	07941H
	DW	07941H
	DW	07941H
	DW	07941H
	DW	07941H
	DW	07941H
	DW	07941H
	DW	07941H
	DW	07941H
	DW	07941H
	DW	07941H
	DW	07941H
	DW	07941H
	DW	07941H
	DW	07941H
	DW	07941H
	DW	07941H
	DW	07921H
	DW	07921H
	DW	07921H
	DW	07921H
	DW	07921H
	DW	07921H
	DW	07921H
	DW	07921H
	DW	07921H
	DW	07521H
	DW	07521H
	DW	07521H
	DW	07521H
	DW	07521H
	DW	07521H
	DW	07521H
	DW	07521H
	DW	07521H
	DW	07521H
	DW	07521H
	DW	07521H
	DW	07521H
	DW	07521H
	DW	07501H
	DW	07501H
	DW	07501H
	DW	07501H
	DW	07501H
	DW	07501H
	DW	07501H
	DW	07501H
	DW	07501H
	DW	07501H
	DW	07501H
	DW	07501H
	DW	07501H
	DW	07501H
	DW	07501H
	DW	07501H
	DW	07501H
	DW	07501H
	DW	07501H
	DW	07501H
	DW	07501H
	DW	07501H
	DW	074e1H
	DW	074e1H
	DW	074e1H
	DW	074e1H
	DW	074e1H
	DW	074e1H
	DW	074e1H
	DW	074e1H
	DW	074e1H
	DW	074e1H
	DW	074e1H
	DW	074e1H
	DW	074e1H
	DW	074e1H
	DW	074e1H
	DW	074e1H
	DW	074e1H
	DW	074e1H
	DW	074e1H
	DW	074e1H
	DW	070e1H
	DW	070e1H
	DW	070e1H
	DW	070e1H
	DW	070c1H
	DW	070c1H
	DW	070c1H
	DW	070c1H
	DW	070c1H
	DW	070c1H
	DW	070c1H
	DW	070c1H
	DW	070c1H
	DW	070c1H
	DW	070c1H
	DW	070c1H
	DW	070c1H
	DW	070c1H
	DW	070c1H
	DW	070c1H
	DW	070c1H
	DW	070c1H
	DW	070c1H
	DW	070c1H
	DW	070c1H
	DW	070c1H
	DW	070c1H
	DW	070c1H
	DW	070c1H
	DW	070a1H
	DW	070a1H
	DW	070a1H
	DW	070a1H
	DW	070a1H
	DW	070a1H
	DW	070a1H
	DW	070a1H
	DW	070a1H
	DW	070a1H
	DW	070a1H
	DW	070a1H
	DW	070a1H
	DW	070a1H
	DW	070a1H
	DW	070a1H
	DW	070a1H
	DW	070a1H
	DW	070a1H
	DW	070a1H
	DW	070a1H
	DW	06ca1H
	DW	06ca1H
	DW	06ca1H
	DW	06ca1H
	DW	06ca1H
	DW	06c81H
	DW	06c81H
	DW	06c81H
	DW	06c81H
	DW	06c81H
	DW	06c81H
	DW	06c81H
	DW	06c81H
	DW	06c81H
	DW	07481H
	DW	03440H
	DW	00H
	DW	00H
	DW	00H
	DW	00H
	DW	00H
	DW	00H
	DW	00H
	DW	00H
	DW	00H
	DW	00H
	DW	00H
	DW	00H
	DW	00H
	DW	00H
	DW	00H
	DW	00H
	DW	00H
	DW	00H
	DW	00H
	DW	00H
	DW	00H
	DW	00H
	DW	00H
	DW	00H
	DW	00H
	DW	00H
	DW	00H
	DW	00H
	DW	00H
	DW	00H
	DW	00H
	DW	00H
	DW	00H
	DW	00H
	DW	00H
	DW	00H
	DW	00H
	DW	00H
	DW	00H
	DW	00H
	DW	00H
	DW	00H
	DW	00H
	DW	00H
	DW	00H
	DW	00H
	DW	00H
	DW	00H
	DW	00H
	DW	00H
	DW	00H
	DW	00H
	DW	00H
	DW	00H
	DW	00H
	DW	00H
	DW	00H
	DW	00H
	DW	00H
	DW	00H
	DW	00H
	DW	00H
	DW	00H
	DW	00H
	DW	00H
	DW	00H
	DW	00H
	DW	00H
	DW	00H
	DW	00H
	DW	00H
	DW	00H
	DW	00H
	DW	00H
	DW	00H
	DW	00H
	DW	00H
	DW	00H
	DW	00H
	DW	00H
	DW	00H
	DW	00H
	DW	00H
	DW	00H
	DW	00H
	DW	00H
	DW	00H
	DW	00H
	DW	00H
	DW	00H
	DW	00H
	DW	00H
	DW	00H
	DW	00H
	DW	00H
	DW	00H
	DW	00H
	DW	00H
	DW	00H
	DW	00H
	DW	00H
	DW	00H
	DW	00H
	DW	00H
	DW	00H
	DW	00H
	DW	00H
	DW	00H
	DW	00H
	DW	00H
	DW	00H
	DW	00H
	DW	00H
	DW	00H
	DW	00H
	DW	00H
	DW	00H
	DW	00H
	DW	00H
	DW	00H
	DW	00H
	DW	00H
	DW	00H
	DW	00H
	DW	00H
	DW	00H
	DW	00H
	DW	00H
	DW	00H
	DW	00H
	DW	00H
	DW	00H
	DW	00H
	DW	00H
	DW	00H
	DW	00H
	DW	00H
	DW	00H
	DW	00H
	DW	00H
	DW	00H
	DW	00H
	DW	00H
	DW	00H
	DW	00H
	DW	00H
	DW	00H
	DW	00H
	DW	00H
	DW	00H
	DW	00H
	DW	00H
	DW	00H
	DW	00H
	DW	00H
	DW	00H
	DW	00H
	DW	00H
	DW	00H
	DW	00H
	DW	00H
	DW	00H
	DW	00H
	DW	00H
	DW	00H
	DW	00H
	DW	00H
	DW	00H
	DW	00H
	DW	00H
	DW	00H
	DW	00H
	DW	00H
	DW	00H
	DW	00H
	DW	00H
	DW	00H
	DW	00H
	DW	00H
	DW	00H
	DW	00H
	DW	00H
	DW	00H
	DW	00H
	DW	00H
	DW	00H
	DW	00H
	DW	00H
	DW	00H
	DW	00H
	DW	00H
	DW	00H
	DW	00H
	DW	00H
	DW	00H
	DW	00H
	DW	00H
	DW	00H
	DW	00H
	DW	00H
	DW	00H
	DW	00H
	DW	00H
	DW	00H
	DW	00H
	DW	00H
	DW	00H
	DW	00H
	DW	00H
	DW	00H
	DW	00H
	DW	00H
	DW	00H
	DW	00H
	DW	00H
	DW	00H
	DW	00H
	DW	00H
	DW	00H
	DW	00H
	DW	00H
	DW	00H
	DW	00H
	DW	00H
	DW	00H
	DW	00H
	DW	00H
	DW	00H
	DW	00H
	DW	00H
	DW	00H
	DW	00H
	DW	00H
	DW	01041H
	DW	01862H
	DW	02082H
	DW	02082H
	DW	02082H
	DW	01c82H
	DW	01c82H
	DW	01c82H
	DW	01c82H
	DW	01c82H
	DW	01c82H
	DW	02082H
	DW	02082H
	DW	02082H
	DW	02082H
	DW	02482H
	DW	028a2H
	DW	02ca2H
	DW	030c2H
	DW	034c2H
	DW	03ce3H
	DW	04103H
	DW	04923H
	DW	05144H
	DW	05544H
	DW	05d64H
	DW	06584H
	DW	06985H
	DW	06da5H
	DW	071a5H
	DW	075c5H
	DW	075c5H
	DW	079c5H
	DW	079c5H
	DW	07dc4H
	DW	07dc4H
	DW	07dc4H
	DW	07dc4H
	DW	07dc4H
	DW	07dc4H
	DW	07dc4H
	DW	07da4H
	DW	07da4H
	DW	07da4H
	DW	07da3H
	DW	07da3H
	DW	07da3H
	DW	07da3H
	DW	07da3H
	DW	079a3H
	DW	079a3H
	DW	079a3H
	DW	079a3H
	DW	07983H
	DW	07983H
	DW	07983H
	DW	07982H
	DW	07982H
	DW	07982H
	DW	07982H
	DW	07982H
	DW	07982H
	DW	07982H
	DW	07982H
	DW	07982H
	DW	07982H
	DW	07982H
	DW	07982H
	DW	07982H
	DW	07982H
	DW	07962H
	DW	07962H
	DW	07962H
	DW	07962H
	DW	07962H
	DW	07962H
	DW	07962H
	DW	07962H
	DW	07961H
	DW	07961H
	DW	07961H
	DW	07961H
	DW	07961H
	DW	07961H
	DW	07961H
	DW	07961H
	DW	07961H
	DW	07961H
	DW	07961H
	DW	07961H
	DW	07961H
	DW	07961H
	DW	07941H
	DW	07941H
	DW	07941H
	DW	07941H
	DW	07941H
	DW	07941H
	DW	07941H
	DW	07941H
	DW	07941H
	DW	07941H
	DW	07941H
	DW	07941H
	DW	07941H
	DW	07941H
	DW	07941H
	DW	07941H
	DW	07941H
	DW	07941H
	DW	07941H
	DW	07941H
	DW	07941H
	DW	07941H
	DW	07941H
	DW	07921H
	DW	07921H
	DW	07921H
	DW	07921H
	DW	07921H
	DW	07921H
	DW	07921H
	DW	07921H
	DW	07921H
	DW	07521H
	DW	07521H
	DW	07521H
	DW	07521H
	DW	07521H
	DW	07521H
	DW	07521H
	DW	07521H
	DW	07521H
	DW	07521H
	DW	07521H
	DW	07521H
	DW	07521H
	DW	07501H
	DW	07501H
	DW	07501H
	DW	07501H
	DW	07501H
	DW	07501H
	DW	07501H
	DW	07501H
	DW	07501H
	DW	07501H
	DW	07501H
	DW	07501H
	DW	07501H
	DW	07501H
	DW	07501H
	DW	07501H
	DW	07501H
	DW	07501H
	DW	07501H
	DW	07501H
	DW	07501H
	DW	07501H
	DW	07501H
	DW	074e1H
	DW	074e1H
	DW	074e1H
	DW	074e1H
	DW	074e1H
	DW	074e1H
	DW	074e1H
	DW	074e1H
	DW	074e1H
	DW	074e1H
	DW	074e1H
	DW	074e1H
	DW	074e1H
	DW	074e1H
	DW	074e1H
	DW	074e1H
	DW	074e1H
	DW	074e1H
	DW	074e1H
	DW	070e1H
	DW	070e1H
	DW	070e1H
	DW	070e1H
	DW	070e1H
	DW	070c1H
	DW	070c1H
	DW	070c1H
	DW	070c1H
	DW	070c1H
	DW	070c1H
	DW	070c1H
	DW	070c1H
	DW	070c1H
	DW	070c1H
	DW	070c1H
	DW	070c1H
	DW	070c1H
	DW	070c1H
	DW	070c1H
	DW	070c1H
	DW	070c1H
	DW	070c1H
	DW	070c1H
	DW	070c1H
	DW	070c1H
	DW	070c1H
	DW	070c1H
	DW	070c1H
	DW	070a1H
	DW	070a1H
	DW	070a1H
	DW	070a1H
	DW	070a1H
	DW	070a1H
	DW	070a1H
	DW	070a1H
	DW	070a1H
	DW	070a1H
	DW	070a1H
	DW	070a1H
	DW	070a1H
	DW	070a1H
	DW	070a1H
	DW	070a1H
	DW	070a1H
	DW	070a1H
	DW	070a1H
	DW	070a1H
	DW	070a1H
	DW	070a1H
	DW	06ca1H
	DW	06ca1H
	DW	06ca1H
	DW	06ca1H
	DW	06c81H
	DW	06c81H
	DW	06c81H
	DW	06c81H
	DW	06c81H
	DW	06c81H
	DW	06c81H
	DW	06c81H
	DW	06c81H
	DW	06c81H
	DW	06c81H
	DW	07481H
	DW	03440H
	DW	00H
	DW	00H
	DW	00H
	DW	00H
	DW	00H
	DW	00H
	DW	00H
	DW	00H
	DW	00H
	DW	00H
	DW	00H
	DW	00H
	DW	00H
	DW	00H
	DW	00H
	DW	00H
	DW	00H
	DW	00H
	DW	00H
	DW	00H
	DW	00H
	DW	00H
	DW	00H
	DW	00H
	DW	00H
	DW	00H
	DW	00H
	DW	00H
	DW	00H
	DW	00H
	DW	00H
	DW	00H
	DW	00H
	DW	00H
	DW	00H
	DW	00H
	DW	00H
	DW	00H
	DW	00H
	DW	00H
	DW	00H
	DW	00H
	DW	00H
	DW	00H
	DW	00H
