; Listing generated by Microsoft (R) Optimizing Compiler Version 16.00.30319.01 

	TITLE	C:\DUII\DUII\Graphics\DragBackGround.c
	.686P
	.XMM
	include listing.inc
	.model	flat

INCLUDELIB LIBCMT
INCLUDELIB OLDNAMES

PUBLIC	_bmDragBackGround
CONST	SEGMENT
_ColorsDragBackGround DD 020203H
	DD	0525252H
	DD	080874H
	DD	01018eH
	DD	0161616H
	DD	0282827H
	DD	06e6e6dH
	DD	0fbfcfcH
	DD	0373737H
	DD	0909090H
	DD	040550H
	DD	0a9a9a9H
	DD	0503504H
	DD	010dfbH
	DD	070830H
	DD	0cdf7f5H
	DD	0302d13H
	DD	0d0d0d0H
	DD	06d4700H
	DD	0b0f2f2H
	DD	0643b00H
	DD	0cefcH
	DD	020216H
	DD	0204b1H
	DD	02d2e6cH
	DD	0232382H
	DD	043436cH
	DD	0b2f9H
	DD	0315112H
	DD	0f2fbH
	DD	061615bH
	DD	0406cbH
	DD	06cb3f6H
	DD	073cbf7H
	DD	08dd4f5H
	DD	017294dH
	DD	034680cH
	DD	094e8f6H
	DD	0f42d00H
	DD	0f20c06H
	DD	0152a30H
	DD	02e4a51H
	DD	028334cH
	DD	02c4c6aH
	DD	0574406H
	DD	0add0H
	DD	091d1d2H
	DD	012276cH
	DD	0343428H
	DD	0b3cfefH
	DD	0aee8d7H
	DD	06db2d1H
	DD	0727faH
	DD	059abf5H
	DD	04b6f71H
	DD	02c4e2bH
	DD	032702fH
	DD	0191b0H
	DD	0936d01H
	DD	0141409H
	DD	0102c0eH
	DD	0548a92H
	DD	0294cdH
	DD	08f93H
	DD	0d20509H
	DD	097e4d7H
	DD	0454439H
	DD	05893f2H
	DD	097f4H
	DD	01d0d3H
	DD	04d738eH
	DD	0abaeH
	DD	0c6daf5H
	DD	06fabb1H
	DD	0abd5cfH
	DD	0272933H
	DD	0140202H
	DD	05590adH
	DD	0263838H
	DD	0877372H
	DD	0af8f06H
	DD	0273526H
	DD	0a9b5e6H
	DD	0a7b5d8H
	DD	0699390H
	DD	0d2d8aH
	DD	044d4dH
	DD	02f6b8eH
	DD	0550704H
	DD	06a94f6H
	DD	0625c5cH
	DD	011616H
	DD	0b0ab45H
	DD	077c6d3H
	DD	05690d0H
	DD	095b0d2H
	DD	02b1507H
	DD	0a97400H
	DD	086dacH
	DD	089b3f6H
	DD	037686fH
	DD	08d00H
	DD	06795d3H
	DD	047392cH
	DD	036d6eH
	DD	081817aH
	DD	06794afH
	DD	0a7091H
	DD	05570f4H
	DD	014d01H
	DD	0928904H
	DD	0ce300bH
	DD	0332c25H
	DD	07200H
	DD	0b4e8eH
	DD	0865800H
	DD	0c69100H
	DD	0378d8cH
	DD	0155171H
	DD	0a1a19cH
	DD	059abd6H
	DD	0756e02H
	DD	0358849H
	DD	02931b1H
	DD	0c1c1bdH
	DD	021702H
	DD	04ecdH
	DD	0cbcc00H
	DD	0484d8dH
	DD	086b6b1H
	DD	0935350H
	DD	0f400H
	DD	0afa739H
	DD	0f2bacH
	DD	04e79acH
	DD	090c7baH
	DD	0211e23H
	DD	0366e4bH
	DD	0b2bceH
	DD	02933cdH
	DD	04b6356H
	DD	0328636H
	DD	0a4982eH
	DD	0c9a70cH
	DD	0eded00H
	DD	076e5fbH
	DD	0b3312cH
	DD	02af00H
	DD	0cbb232H
	DD	02b5789H
	DD	047afH
	DD	06a6c8bH
	DD	02f45fbH
	DD	0ca3226H
	DD	02738f7H
	DD	0c5f1d7H
	DD	0ac1106H
	DD	07d407H
	DD	074a49cH
	DD	08a91cbH
	DD	0711609H
	DD	0b2ae05H
	DD	059a3b0H
	DD	08c140eH
	DD	0af2c00H
	DD	0c6bb4cH
	DD	054e8H
	DD	0686acaH
	DD	05bc3f3H
	DD	0c8b1b0H
	DD	0ae4a39H
	DD	05a8579H
	DD	09b9633H
	DD	04747aeH
	DD	0678c8H
	DD	0a498H
	DD	0ac9292H
	DD	0838eb8H
	DD	0a9cab7H
	DD	0110e12H
	DD	08e2b27H
	DD	0fe4000H
	DD	06a8a79H
	DD	0d1c239H
	DD	08596f9H
	DD	0c5b8c6H
	DD	06675aH
	DD	0a64843H
	DD	06773a9H
	DD	0504ec9H
	DD	04a5bfeH
	DD	0c2bbH
	DD	086ac8eH
	DD	0cd9390H
	DD	0302f31H
	DD	0743333H
	DD	0e463bH
	DD	0685128H
	DD	0231e54H
	DD	0211c67H
	DD	094635bH
	DD	0f45049H
	DD	02dcdccH
	DD	0e1dcH
	DD	0773e42H
	DD	08e2a04H
	DD	0ea4636H
	DD	0807fH
	DD	051bb52H
	DD	03073a6H
	DD	0677afaH
	DD	0666531H
	DD	0c1482aH
	DD	0b26d69H
	DD	0f36c61H
	DD	029c329H
	DD	073c074H
	DD	0e2b903H
	DD	0a59e44H
	DD	0cdc355H
	DD	0567bc4H
	DD	0378fa5H
	DD	0e0e0deH
	DD	0e2d6e2H
	DD	0483e46H
	DD	0911f20H
	DD	0f23529H
	DD	0c17f00H
	DD	0a3615dH
	DD	0ec6d5eH
	DD	0c8726bH
	DD	0228901H
	DD	022bf23H
	DD	07f8000H
	DD	01fc420H
	DD	0865cH
	DD	0458b46H
	DD	07a844cH
	DD	04ec34eH
	DD	05fc060H
	DD	0bfc000H
	DD	0e2c11dH
	DD	0dd867fH
	DD	0e88175H
	DD	0201fa2H
	DD	03955a2H
	DD	064f1H
	DD	0605fd1H
	DD	0807e80H
	DD	07ec2bfH
	DD	058c5c4H
	DD	048e7e0H
	DD	0a99fa9H
	DD	0f28983H
	DD	087c387H
	DD	0e0d1d1H
_PalDragBackGround DD 0100H
	DB	00H
	ORG $+3
	DD	FLAT:_ColorsDragBackGround
_bmDragBackGround DW 01e0H
	DW	0110H
	DW	01e0H
	DW	08H
	DD	FLAT:_acDragBackGround
	DD	FLAT:_PalDragBackGround
	ORG $+4
_acDragBackGround DB 00H
	DB	00H
	DB	00H
	DB	00H
	DB	00H
	DB	00H
	DB	00H
	DB	00H
	DB	00H
	DB	00H
	DB	00H
	DB	00H
	DB	00H
	DB	00H
	DB	00H
	DB	00H
	DB	00H
	DB	00H
	DB	00H
	DB	00H
	DB	00H
	DB	00H
	DB	00H
	DB	00H
	DB	00H
	DB	00H
	DB	00H
	DB	00H
	DB	00H
	DB	00H
	DB	00H
	DB	00H
	DB	00H
	DB	00H
	DB	00H
	DB	00H
	DB	00H
	DB	00H
	DB	00H
	DB	00H
	DB	00H
	DB	00H
	DB	00H
	DB	00H
	DB	00H
	DB	00H
	DB	00H
	DB	00H
	DB	00H
	DB	00H
	DB	00H
	DB	00H
	DB	00H
	DB	00H
	DB	00H
	DB	00H
	DB	00H
	DB	00H
	DB	00H
	DB	00H
	DB	00H
	DB	00H
	DB	00H
	DB	00H
	DB	00H
	DB	00H
	DB	00H
	DB	00H
	DB	00H
	DB	00H
	DB	00H
	DB	00H
	DB	00H
	DB	00H
	DB	00H
	DB	00H
	DB	00H
	DB	00H
	DB	00H
	DB	00H
	DB	00H
	DB	00H
	DB	00H
	DB	00H
	DB	00H
	DB	00H
	DB	00H
	DB	00H
	DB	00H
	DB	00H
	DB	00H
	DB	00H
	DB	00H
	DB	00H
	DB	00H
	DB	00H
	DB	00H
	DB	00H
	DB	00H
	DB	00H
	DB	00H
	DB	00H
	DB	00H
	DB	00H
	DB	00H
	DB	00H
	DB	00H
	DB	00H
	DB	00H
	DB	00H
	DB	00H
	DB	00H
	DB	00H
	DB	00H
	DB	00H
	DB	00H
	DB	00H
	DB	00H
	DB	00H
	DB	00H
	DB	00H
	DB	00H
	DB	00H
	DB	00H
	DB	00H
	DB	00H
	DB	00H
	DB	00H
	DB	00H
	DB	00H
	DB	00H
	DB	00H
	DB	00H
	DB	00H
	DB	00H
	DB	00H
	DB	00H
	DB	00H
	DB	00H
	DB	00H
	DB	00H
	DB	00H
	DB	00H
	DB	00H
	DB	00H
	DB	00H
	DB	00H
	DB	00H
	DB	00H
	DB	00H
	DB	00H
	DB	00H
	DB	00H
	DB	00H
	DB	00H
	DB	00H
	DB	00H
	DB	00H
	DB	00H
	DB	00H
	DB	00H
	DB	00H
	DB	00H
	DB	00H
	DB	00H
	DB	00H
	DB	00H
	DB	00H
	DB	00H
	DB	00H
	DB	00H
	DB	00H
	DB	00H
	DB	00H
	DB	00H
	DB	00H
	DB	00H
	DB	00H
	DB	00H
	DB	00H
	DB	00H
	DB	00H
	DB	00H
	DB	00H
	DB	00H
	DB	00H
	DB	00H
	DB	00H
	DB	00H
	DB	00H
	DB	00H
	DB	00H
	DB	00H
	DB	00H
	DB	00H
	DB	00H
	DB	00H
	DB	00H
	DB	00H
	DB	00H
	DB	00H
	DB	00H
	DB	00H
	DB	00H
	DB	00H
	DB	00H
	DB	00H
	DB	00H
	DB	00H
	DB	00H
	DB	00H
	DB	00H
	DB	00H
	DB	00H
	DB	00H
	DB	00H
	DB	00H
	DB	00H
	DB	00H
	DB	00H
	DB	00H
	DB	00H
	DB	00H
	DB	00H
	DB	00H
	DB	00H
	DB	00H
	DB	00H
	DB	00H
	DB	00H
	DB	00H
	DB	00H
	DB	00H
	DB	00H
	DB	00H
	DB	00H
	DB	00H
	DB	00H
	DB	00H
	DB	00H
	DB	00H
	DB	00H
	DB	00H
	DB	00H
	DB	00H
	DB	00H
	DB	00H
	DB	00H
	DB	00H
	DB	00H
	DB	00H
	DB	00H
	DB	00H
	DB	00H
	DB	00H
	DB	00H
	DB	00H
	DB	00H
	DB	00H
	DB	00H
	DB	00H
	DB	00H
	DB	00H
	DB	00H
	DB	00H
	DB	00H
	DB	00H
	DB	00H
	DB	00H
	DB	00H
	DB	00H
	DB	00H
	DB	00H
	DB	00H
	DB	00H
	DB	00H
	DB	00H
	DB	00H
	DB	00H
	DB	00H
	DB	00H
	DB	00H
	DB	00H
	DB	00H
	DB	00H
	DB	00H
	DB	00H
	DB	00H
	DB	00H
	DB	00H
	DB	00H
	DB	00H
	DB	00H
	DB	00H
	DB	00H
	DB	00H
	DB	00H
	DB	00H
	DB	00H
	DB	00H
	DB	00H
	DB	00H
	DB	00H
	DB	00H
	DB	00H
	DB	00H
	DB	00H
	DB	00H
	DB	00H
	DB	00H
	DB	00H
	DB	00H
	DB	00H
	DB	00H
	DB	00H
	DB	00H
	DB	00H
	DB	00H
	DB	00H
	DB	00H
	DB	00H
	DB	00H
	DB	00H
	DB	00H
	DB	00H
	DB	00H
	DB	00H
	DB	00H
	DB	00H
	DB	00H
	DB	00H
	DB	00H
	DB	00H
	DB	00H
	DB	00H
	DB	00H
	DB	00H
	DB	00H
	DB	00H
	DB	00H
	DB	00H
	DB	00H
	DB	00H
	DB	00H
	DB	00H
	DB	00H
	DB	00H
	DB	00H
	DB	00H
	DB	00H
	DB	00H
	DB	00H
	DB	00H
	DB	00H
	DB	00H
	DB	00H
	DB	00H
	DB	00H
	DB	00H
	DB	00H
	DB	00H
	DB	00H
	DB	00H
	DB	00H
	DB	00H
	DB	00H
	DB	00H
	DB	00H
	DB	00H
	DB	00H
	DB	00H
	DB	00H
	DB	00H
	DB	00H
	DB	00H
	DB	00H
	DB	00H
	DB	00H
	DB	00H
	DB	00H
	DB	00H
	DB	00H
	DB	00H
	DB	00H
	DB	00H
	DB	00H
	DB	00H
	DB	00H
	DB	00H
	DB	00H
	DB	00H
	DB	00H
	DB	00H
	DB	00H
	DB	00H
	DB	00H
	DB	00H
	DB	00H
	DB	00H
	DB	00H
	DB	00H
	DB	00H
	DB	00H
	DB	00H
	DB	00H
	DB	00H
	DB	00H
	DB	00H
	DB	00H
	DB	00H
	DB	00H
	DB	00H
	DB	00H
	DB	00H
	DB	00H
	DB	00H
	DB	00H
	DB	00H
	DB	00H
	DB	00H
	DB	00H
	DB	00H
	DB	00H
	DB	00H
	DB	00H
	DB	00H
	DB	00H
	DB	00H
	DB	00H
	DB	00H
	DB	00H
	DB	00H
	DB	00H
	DB	00H
	DB	00H
	DB	00H
	DB	00H
	DB	00H
	DB	00H
	DB	00H
	DB	00H
	DB	00H
	DB	00H
	DB	00H
	DB	00H
	DB	00H
	DB	00H
	DB	00H
	DB	00H
	DB	00H
	DB	00H
	DB	00H
	DB	00H
	DB	00H
	DB	00H
	DB	00H
	DB	00H
	DB	00H
	DB	00H
	DB	00H
	DB	00H
	DB	00H
	DB	00H
	DB	00H
	DB	00H
	DB	00H
	DB	00H
	DB	00H
	DB	00H
	DB	00H
	DB	00H
	DB	00H
	DB	00H
	DB	00H
	DB	00H
	DB	00H
	DB	00H
	DB	00H
	DB	00H
	DB	00H
	DB	00H
	DB	00H
	DB	00H
	DB	00H
	DB	00H
	DB	00H
	DB	00H
	DB	00H
	DB	00H
	DB	00H
	DB	00H
	DB	00H
	DB	00H
	DB	00H
	DB	00H
	DB	00H
	DB	00H
	DB	00H
	DB	00H
	DB	00H
	DB	00H
	DB	00H
	DB	00H
	DB	00H
	DB	00H
	DB	00H
	DB	00H
	DB	00H
	DB	00H
	DB	00H
	DB	00H
	DB	00H
	DB	00H
	DB	00H
	DB	00H
	DB	00H
	DB	00H
	DB	00H
	DB	00H
	DB	00H
	DB	00H
	DB	00H
	DB	00H
	DB	00H
	DB	00H
	DB	00H
	DB	00H
	DB	00H
	DB	00H
	DB	00H
	DB	00H
	DB	00H
	DB	00H
	DB	00H
	DB	00H
	DB	00H
	DB	00H
	DB	00H
	DB	00H
	DB	00H
	DB	00H
	DB	00H
	DB	00H
	DB	00H
	DB	00H
	DB	00H
	DB	00H
	DB	00H
	DB	00H
	DB	00H
	DB	00H
	DB	00H
	DB	00H
	DB	00H
	DB	00H
	DB	00H
	DB	00H
	DB	00H
	DB	00H
	DB	00H
	DB	00H
	DB	00H
	DB	00H
	DB	00H
	DB	00H
	DB	00H
	DB	00H
	DB	00H
	DB	00H
	DB	00H
	DB	00H
	DB	00H
	DB	00H
	DB	00H
	DB	00H
	DB	00H
	DB	00H
	DB	00H
	DB	00H
	DB	00H
	DB	00H
	DB	00H
	DB	00H
	DB	00H
	DB	00H
	DB	00H
	DB	00H
	DB	00H
	DB	00H
	DB	00H
	DB	00H
	DB	00H
	DB	00H
	DB	00H
	DB	00H
	DB	00H
	DB	00H
	DB	00H
	DB	00H
	DB	00H
	DB	00H
	DB	00H
	DB	00H
	DB	00H
	DB	00H
	DB	00H
	DB	00H
	DB	00H
	DB	00H
	DB	00H
	DB	00H
	DB	00H
	DB	00H
	DB	00H
	DB	00H
	DB	00H
	DB	00H
	DB	00H
	DB	00H
	DB	00H
	DB	00H
	DB	00H
	DB	00H
	DB	00H
	DB	00H
	DB	00H
	DB	00H
	DB	00H
	DB	00H
	DB	00H
	DB	00H
	DB	00H
	DB	00H
	DB	00H
	DB	00H
	DB	00H
	DB	00H
	DB	00H
	DB	00H
	DB	00H
	DB	00H
	DB	00H
	DB	00H
	DB	00H
	DB	00H
	DB	00H
	DB	00H
	DB	00H
	DB	00H
	DB	00H
	DB	00H
	DB	00H
	DB	00H
	DB	00H
	DB	00H
	DB	00H
	DB	00H
	DB	00H
	DB	00H
	DB	00H
	DB	00H
	DB	00H
	DB	00H
	DB	00H
	DB	00H
	DB	00H
	DB	00H
	DB	00H
	DB	00H
	DB	00H
	DB	00H
	DB	00H
	DB	00H
	DB	00H
	DB	00H
	DB	00H
	DB	00H
	DB	00H
	DB	00H
	DB	00H
	DB	00H
	DB	00H
	DB	00H
	DB	00H
	DB	00H
	DB	00H
	DB	00H
	DB	00H
	DB	00H
	DB	00H
	DB	00H
	DB	00H
	DB	00H
	DB	00H
	DB	00H
	DB	00H
	DB	00H
	DB	00H
	DB	00H
	DB	00H
	DB	00H
	DB	00H
	DB	00H
	DB	00H
	DB	00H
	DB	00H
	DB	00H
	DB	00H
	DB	00H
	DB	00H
	DB	00H
	DB	00H
	DB	00H
	DB	00H
	DB	00H
	DB	00H
	DB	00H
	DB	00H
	DB	00H
	DB	00H
	DB	00H
	DB	00H
	DB	00H
	DB	00H
	DB	00H
	DB	00H
	DB	00H
	DB	00H
	DB	00H
	DB	00H
	DB	00H
	DB	00H
	DB	00H
	DB	00H
	DB	00H
	DB	00H
	DB	00H
	DB	00H
	DB	00H
	DB	00H
	DB	00H
	DB	00H
	DB	00H
	DB	00H
	DB	00H
	DB	00H
	DB	00H
	DB	00H
	DB	00H
	DB	00H
	DB	00H
	DB	00H
	DB	00H
	DB	00H
	DB	00H
	DB	00H
	DB	00H
	DB	00H
	DB	00H
	DB	00H
	DB	00H
	DB	00H
	DB	00H
	DB	00H
	DB	00H
	DB	00H
	DB	00H
	DB	00H
	DB	00H
	DB	00H
	DB	00H
	DB	00H
	DB	00H
	DB	00H
	DB	00H
	DB	00H
	DB	00H
	DB	00H
	DB	00H
	DB	00H
	DB	00H
	DB	00H
	DB	00H
	DB	00H
	DB	00H
	DB	00H
	DB	00H
	DB	00H
	DB	00H
	DB	00H
	DB	00H
	DB	00H
	DB	00H
	DB	00H
	DB	00H
	DB	00H
	DB	00H
	DB	00H
	DB	00H
	DB	00H
	DB	00H
	DB	00H
	DB	00H
	DB	00H
	DB	00H
	DB	00H
	DB	00H
	DB	00H
	DB	00H
	DB	00H
	DB	00H
	DB	00H
	DB	00H
	DB	00H
	DB	00H
	DB	00H
	DB	00H
	DB	00H
	DB	00H
	DB	00H
	DB	00H
	DB	00H
	DB	00H
	DB	00H
	DB	00H
	DB	00H
	DB	00H
	DB	00H
	DB	00H
	DB	00H
	DB	00H
	DB	00H
	DB	00H
	DB	00H
	DB	00H
	DB	00H
	DB	00H
	DB	00H
	DB	00H
	DB	00H
	DB	00H
	DB	00H
	DB	00H
	DB	00H
	DB	00H
	DB	00H
	DB	00H
	DB	00H
	DB	00H
	DB	00H
	DB	00H
	DB	00H
	DB	00H
	DB	00H
	DB	00H
	DB	00H
	DB	00H
	DB	00H
	DB	00H
	DB	00H
	DB	00H
	DB	00H
	DB	00H
	DB	00H
	DB	00H
	DB	00H
	DB	00H
	DB	00H
	DB	00H
	DB	00H
	DB	00H
	DB	00H
	DB	00H
	DB	00H
	DB	00H
	DB	00H
	DB	00H
	DB	00H
	DB	00H
	DB	00H
	DB	00H
	DB	00H
	DB	00H
	DB	00H
	DB	00H
	DB	00H
	DB	00H
	DB	00H
	DB	00H
	DB	00H
	DB	00H
	DB	00H
	DB	00H
	DB	00H
	DB	00H
	DB	00H
	DB	00H
	DB	00H
	DB	00H
	DB	00H
	DB	00H
	DB	00H
	DB	00H
	DB	00H
	DB	00H
	DB	00H
	DB	00H
	DB	00H
	DB	00H
	DB	00H
	DB	00H
	DB	00H
	DB	00H
	DB	00H
	DB	00H
	DB	00H
	DB	00H
	DB	00H
	DB	00H
	DB	00H
	DB	00H
	DB	00H
	DB	00H
	DB	00H
	DB	00H
	DB	00H
	DB	00H
	DB	00H
	DB	00H
	DB	00H
	DB	00H
	DB	00H
	DB	00H
	DB	00H
	DB	00H
	DB	00H
	DB	00H
	DB	00H
	DB	00H
	DB	00H
	DB	00H
	DB	00H
	DB	00H
	DB	00H
	DB	00H
	DB	00H
	DB	00H
	DB	00H
	DB	00H
	DB	00H
	DB	00H
	DB	00H
	DB	00H
	DB	00H
	DB	00H
	DB	00H
	DB	00H
	DB	00H
	DB	00H
	DB	00H
	DB	00H
	DB	00H
	DB	00H
	DB	00H
	DB	00H
	DB	00H
	DB	00H
	DB	00H
	DB	00H
	DB	00H
	DB	00H
	DB	00H
	DB	00H
	DB	00H
	DB	00H
	DB	00H
	DB	00H
	DB	00H
	DB	00H
	DB	00H
	DB	00H
	DB	00H
	DB	00H
	DB	00H
	DB	00H
	DB	00H
	DB	00H
	DB	00H
	DB	00H
	DB	00H
	DB	00H
	DB	00H
	DB	00H
	DB	00H
	DB	00H
	DB	00H
	DB	00H
	DB	00H
	DB	00H
	DB	00H
	DB	00H
	DB	00H
	DB	00H
	DB	00H
	DB	00H
	DB	00H
	DB	00H
	DB	00H
	DB	00H
	DB	00H
	DB	00H
	DB	00H
	DB	00H
	DB	00H
	DB	00H
	DB	00H
	DB	00H
	DB	00H
	DB	00H
	DB	00H
	DB	00H
	DB	00H
	DB	00H
	DB	00H
	DB	00H
	DB	00H
	DB	00H
	DB	00H
	DB	00H
	DB	00H
	DB	00H
	DB	00H
	DB	00H
	DB	00H
	DB	00H
	DB	00H
	DB	00H
	DB	00H
	DB	00H
	DB	00H
	DB	00H
	DB	00H
	DB	00H
	DB	00H
	DB	00H
	DB	00H
	DB	00H
	DB	00H
	DB	00H
	DB	00H
	DB	00H
	DB	00H
	DB	00H
	DB	00H
	DB	00H
	DB	00H
	DB	00H
	DB	00H
	DB	00H
	DB	00H
	DB	00H
	DB	00H
	DB	00H
	DB	00H
	DB	00H
	DB	00H
	DB	00H
	DB	00H
	DB	00H
	DB	00H
	DB	00H
	DB	00H
	DB	00H
	DB	00H
	DB	00H
	DB	00H
	DB	00H
	DB	00H
	DB	00H
	DB	00H
	DB	00H
	DB	00H
	DB	00H
	DB	00H
	DB	00H
	DB	00H
	DB	00H
	DB	00H
	DB	00H
	DB	00H
	DB	00H
	DB	00H
	DB	00H
	DB	00H
	DB	00H
	DB	00H
	DB	00H
	DB	00H
	DB	00H
	DB	00H
	DB	00H
	DB	00H
	DB	00H
	DB	00H
	DB	00H
	DB	00H
	DB	00H
	DB	00H
	DB	00H
	DB	00H
	DB	00H
	DB	00H
	DB	00H
	DB	00H
	DB	00H
	DB	00H
	DB	00H
	DB	00H
	DB	00H
	DB	00H
	DB	00H
	DB	00H
	DB	00H
	DB	00H
	DB	00H
	DB	00H
	DB	00H
	DB	00H
	DB	00H
	DB	00H
	DB	00H
	DB	00H
	DB	00H
	DB	00H
	DB	00H
	DB	00H
	DB	00H
	DB	00H
	DB	00H
	DB	00H
	DB	00H
	DB	00H
	DB	00H
	DB	00H
	DB	00H
	DB	00H
	DB	00H
	DB	00H
	DB	00H
	DB	00H
	DB	00H
	DB	00H
	DB	00H
	DB	00H
	DB	00H
	DB	00H
	DB	00H
	DB	00H
	DB	00H
	DB	00H
	DB	00H
	DB	00H
	DB	00H
	DB	00H
	DB	00H
	DB	00H
	DB	00H
	DB	00H
	DB	00H
	DB	00H
	DB	00H
	DB	00H
	DB	00H
	DB	00H
	DB	00H
	DB	00H
	DB	00H
	DB	00H
	DB	00H
	DB	00H
	DB	00H
	DB	00H
	DB	00H
	DB	00H
	DB	00H
	DB	00H
	DB	00H
	DB	00H
	DB	00H
	DB	00H
	DB	00H
	DB	00H
	DB	00H
	DB	00H
	DB	00H
	DB	00H
	DB	00H
	DB	00H
	DB	00H
	DB	00H
	DB	00H
	DB	00H
	DB	00H
	DB	00H
	DB	00H
	DB	00H
	DB	00H
	DB	00H
	DB	00H
	DB	00H
	DB	00H
	DB	00H
	DB	00H
	DB	00H
	DB	00H
	DB	00H
	DB	00H
	DB	00H
	DB	00H
	DB	00H
	DB	00H
	DB	00H
	DB	00H
	DB	00H
	DB	00H
	DB	00H
	DB	00H
	DB	00H
	DB	00H
	DB	00H
	DB	00H
	DB	00H
	DB	00H
	DB	00H
	DB	00H
	DB	00H
	DB	00H
	DB	00H
	DB	00H
	DB	00H
	DB	00H
	DB	00H
	DB	00H
	DB	00H
	DB	00H
	DB	00H
	DB	00H
	DB	00H
	DB	00H
	DB	00H
	DB	00H
	DB	00H
	DB	00H
	DB	00H
	DB	00H
	DB	00H
	DB	00H
	DB	00H
	DB	00H
	DB	00H
	DB	00H
	DB	00H
	DB	00H
	DB	00H
	DB	00H
	DB	00H
	DB	00H
	DB	00H
	DB	00H
	DB	00H
	DB	00H
	DB	00H
	DB	00H
	DB	00H
	DB	00H
	DB	00H
	DB	00H
	DB	00H
	DB	00H
	DB	00H
	DB	00H
	DB	00H
	DB	00H
	DB	00H
	DB	00H
	DB	00H
	DB	00H
	DB	00H
	DB	00H
	DB	00H
	DB	00H
	DB	00H
	DB	00H
	DB	00H
	DB	00H
	DB	00H
	DB	00H
	DB	00H
	DB	00H
	DB	00H
	DB	00H
	DB	00H
	DB	00H
	DB	00H
	DB	00H
	DB	00H
	DB	00H
	DB	00H
	DB	00H
	DB	00H
	DB	00H
	DB	00H
	DB	00H
	DB	00H
	DB	00H
	DB	00H
	DB	00H
	DB	00H
	DB	00H
	DB	00H
	DB	00H
	DB	00H
	DB	00H
	DB	00H
	DB	00H
	DB	00H
	DB	00H
	DB	00H
	DB	00H
	DB	00H
	DB	00H
	DB	00H
	DB	00H
	DB	00H
	DB	00H
	DB	00H
	DB	00H
	DB	00H
	DB	00H
	DB	00H
	DB	00H
	DB	00H
	DB	00H
	DB	00H
	DB	00H
	DB	00H
	DB	00H
	DB	00H
	DB	00H
	DB	00H
	DB	00H
	DB	00H
	DB	00H
	DB	00H
	DB	00H
	DB	00H
	DB	00H
	DB	00H
	DB	00H
	DB	00H
	DB	00H
	DB	00H
	DB	00H
	DB	00H
	DB	00H
	DB	00H
	DB	00H
	DB	00H
	DB	00H
	DB	00H
	DB	00H
	DB	00H
	DB	00H
	DB	00H
	DB	00H
	DB	00H
	DB	00H
	DB	00H
	DB	00H
	DB	00H
	DB	00H
	DB	00H
	DB	00H
	DB	00H
	DB	00H
	DB	00H
	DB	00H
	DB	00H
	DB	00H
	DB	00H
	DB	00H
	DB	00H
	DB	00H
	DB	00H
	DB	00H
	DB	00H
	DB	00H
	DB	00H
	DB	00H
	DB	00H
	DB	00H
	DB	00H
	DB	00H
	DB	00H
	DB	00H
	DB	00H
	DB	00H
	DB	00H
	DB	00H
	DB	00H
	DB	00H
	DB	00H
	DB	00H
	DB	00H
	DB	00H
	DB	00H
	DB	00H
	DB	00H
	DB	00H
	DB	00H
	DB	00H
	DB	00H
	DB	00H
	DB	00H
	DB	00H
	DB	00H
	DB	00H
	DB	00H
	DB	00H
	DB	00H
	DB	00H
	DB	00H
	DB	00H
	DB	00H
	DB	00H
	DB	00H
	DB	00H
	DB	00H
	DB	00H
	DB	00H
	DB	00H
	DB	00H
	DB	00H
	DB	00H
	DB	00H
	DB	00H
	DB	00H
	DB	00H
	DB	00H
	DB	00H
	DB	00H
	DB	00H
	DB	00H
	DB	00H
	DB	00H
	DB	00H
	DB	00H
	DB	00H
	DB	00H
	DB	00H
	DB	00H
	DB	00H
	DB	00H
	DB	00H
	DB	00H
	DB	00H
	DB	00H
	DB	00H
	DB	00H
	DB	00H
	DB	00H
	DB	00H
	DB	00H
	DB	00H
	DB	00H
	DB	00H
	DB	00H
	DB	00H
	DB	00H
	DB	00H
	DB	00H
	DB	00H
	DB	00H
	DB	00H
	DB	00H
	DB	00H
	DB	00H
	DB	00H
	DB	00H
	DB	00H
	DB	00H
	DB	00H
	DB	00H
	DB	00H
	DB	00H
	DB	00H
	DB	00H
	DB	00H
	DB	00H
	DB	00H
	DB	00H
	DB	00H
	DB	00H
	DB	00H
	DB	00H
	DB	00H
	DB	00H
	DB	00H
	DB	00H
	DB	00H
	DB	00H
	DB	00H
	DB	00H
	DB	00H
	DB	00H
	DB	00H
	DB	00H
	DB	00H
	DB	00H
	DB	00H
	DB	00H
	DB	00H
	DB	00H
	DB	00H
	DB	00H
	DB	00H
	DB	00H
	DB	00H
	DB	00H
	DB	00H
	DB	00H
	DB	00H
	DB	00H
	DB	00H
	DB	00H
	DB	00H
	DB	00H
	DB	00H
	DB	00H
	DB	00H
	DB	00H
	DB	00H
	DB	00H
	DB	00H
	DB	00H
	DB	00H
	DB	00H
	DB	00H
	DB	00H
	DB	00H
	DB	00H
	DB	00H
	DB	00H
	DB	00H
	DB	00H
	DB	00H
	DB	00H
	DB	00H
	DB	00H
	DB	00H
	DB	00H
	DB	00H
	DB	00H
	DB	00H
	DB	00H
	DB	00H
	DB	00H
	DB	00H
	DB	00H
	DB	00H
	DB	00H
	DB	00H
	DB	00H
	DB	00H
	DB	00H
	DB	00H
	DB	00H
	DB	00H
	DB	00H
	DB	00H
	DB	00H
	DB	00H
	DB	00H
	DB	00H
	DB	00H
	DB	00H
	DB	00H
	DB	00H
	DB	00H
	DB	00H
	DB	00H
	DB	00H
	DB	00H
	DB	00H
	DB	00H
	DB	00H
	DB	00H
	DB	00H
	DB	00H
	DB	00H
	DB	00H
	DB	00H
	DB	00H
	DB	00H
	DB	00H
	DB	00H
	DB	00H
	DB	00H
	DB	00H
	DB	00H
	DB	00H
	DB	00H
	DB	00H
	DB	00H
	DB	00H
	DB	00H
	DB	00H
	DB	00H
	DB	00H
	DB	00H
	DB	00H
	DB	00H
	DB	00H
	DB	00H
	DB	00H
	DB	00H
	DB	00H
	DB	00H
	DB	00H
	DB	00H
	DB	00H
	DB	00H
	DB	00H
	DB	00H
	DB	00H
	DB	00H
	DB	00H
	DB	00H
	DB	00H
	DB	00H
	DB	00H
	DB	00H
	DB	00H
	DB	00H
	DB	00H
	DB	00H
	DB	00H
	DB	00H
	DB	00H
	DB	00H
	DB	00H
	DB	00H
	DB	00H
	DB	00H
	DB	00H
	DB	00H
	DB	00H
	DB	00H
	DB	00H
	DB	00H
	DB	00H
	DB	00H
	DB	00H
	DB	00H
	DB	00H
	DB	00H
	DB	00H
	DB	00H
	DB	00H
	DB	00H
	DB	00H
	DB	00H
	DB	00H
	DB	00H
	DB	00H
	DB	00H
	DB	00H
	DB	00H
	DB	00H
	DB	00H
	DB	00H
	DB	00H
	DB	00H
	DB	00H
	DB	00H
	DB	00H
	DB	00H
	DB	00H
	DB	00H
	DB	00H
	DB	00H
	DB	00H
	DB	00H
	DB	00H
	DB	00H
	DB	00H
	DB	00H
	DB	00H
	DB	00H
	DB	00H
	DB	00H
	DB	00H
	DB	00H
	DB	00H
	DB	00H
	DB	00H
	DB	00H
	DB	00H
	DB	00H
	DB	00H
	DB	00H
	DB	00H
	DB	00H
	DB	00H
	DB	00H
	DB	00H
	DB	00H
	DB	00H
	DB	00H
	DB	00H
	DB	00H
	DB	00H
	DB	00H
	DB	00H
	DB	00H
	DB	00H
	DB	00H
	DB	00H
	DB	00H
	DB	00H
	DB	00H
	DB	00H
	DB	00H
	DB	00H
	DB	00H
	DB	00H
	DB	00H
	DB	00H
	DB	00H
	DB	00H
	DB	00H
	DB	00H
	DB	00H
	DB	00H
	DB	00H
	DB	00H
	DB	00H
	DB	00H
	DB	00H
	DB	00H
	DB	00H
	DB	00H
	DB	00H
	DB	00H
	DB	00H
	DB	00H
	DB	00H
	DB	00H
	DB	00H
	DB	00H
	DB	00H
	DB	00H
	DB	00H
	DB	00H
	DB	00H
	DB	00H
	DB	00H
	DB	00H
	DB	00H
	DB	00H
	DB	00H
	DB	00H
	DB	00H
	DB	00H
	DB	00H
	DB	00H
	DB	00H
	DB	00H
	DB	00H
	DB	00H
	DB	00H
	DB	00H
	DB	00H
	DB	00H
	DB	00H
	DB	00H
	DB	00H
	DB	00H
	DB	00H
	DB	00H
	DB	00H
	DB	00H
	DB	00H
	DB	00H
	DB	00H
	DB	00H
	DB	00H
	DB	00H
	DB	00H
	DB	00H
	DB	00H
	DB	00H
	DB	00H
	DB	00H
	DB	00H
	DB	00H
	DB	00H
	DB	00H
	DB	00H
	DB	00H
	DB	00H
	DB	00H
	DB	00H
	DB	00H
	DB	00H
	DB	00H
	DB	00H
	DB	00H
	DB	00H
	DB	00H
	DB	00H
	DB	00H
	DB	00H
	DB	00H
	DB	00H
	DB	00H
	DB	00H
	DB	00H
	DB	00H
	DB	00H
	DB	00H
	DB	00H
	DB	00H
	DB	00H
	DB	00H
	DB	00H
	DB	00H
	DB	00H
	DB	00H
	DB	00H
	DB	00H
	DB	00H
	DB	00H
	DB	00H
	DB	00H
	DB	00H
	DB	00H
	DB	00H
	DB	00H
	DB	00H
	DB	00H
	DB	00H
	DB	00H
	DB	00H
	DB	00H
	DB	00H
	DB	00H
	DB	00H
	DB	00H
	DB	00H
	DB	00H
	DB	00H
	DB	00H
	DB	00H
	DB	00H
	DB	00H
	DB	00H
	DB	00H
	DB	00H
	DB	00H
	DB	00H
	DB	00H
	DB	00H
	DB	00H
	DB	00H
	DB	00H
	DB	00H
	DB	00H
	DB	00H
	DB	00H
	DB	00H
	DB	00H
	DB	00H
	DB	00H
	DB	00H
	DB	00H
	DB	00H
	DB	00H
	DB	00H
	DB	00H
	DB	00H
	DB	00H
	DB	00H
	DB	00H
	DB	00H
	DB	00H
	DB	00H
	DB	00H
	DB	00H
	DB	00H
	DB	00H
	DB	00H
	DB	00H
	DB	00H
	DB	00H
	DB	00H
	DB	00H
	DB	00H
	DB	00H
	DB	00H
	DB	00H
	DB	00H
	DB	00H
	DB	00H
	DB	00H
	DB	00H
	DB	00H
	DB	00H
	DB	00H
	DB	00H
	DB	00H
	DB	00H
	DB	00H
	DB	00H
	DB	00H
	DB	00H
	DB	00H
	DB	00H
	DB	00H
	DB	00H
	DB	00H
	DB	00H
	DB	00H
	DB	00H
	DB	00H
	DB	00H
	DB	00H
	DB	00H
	DB	00H
	DB	00H
	DB	00H
	DB	00H
	DB	00H
	DB	00H
	DB	00H
	DB	00H
	DB	00H
	DB	00H
	DB	00H
	DB	00H
	DB	00H
	DB	00H
	DB	00H
	DB	00H
	DB	00H
	DB	00H
	DB	00H
	DB	00H
	DB	00H
	DB	00H
	DB	00H
	DB	00H
	DB	00H
	DB	00H
	DB	00H
	DB	00H
	DB	00H
	DB	00H
	DB	00H
	DB	00H
	DB	00H
	DB	00H
	DB	00H
	DB	00H
	DB	00H
	DB	00H
	DB	00H
	DB	00H
	DB	00H
	DB	00H
	DB	00H
	DB	00H
	DB	00H
	DB	00H
	DB	00H
	DB	00H
	DB	00H
	DB	00H
	DB	00H
	DB	00H
	DB	00H
	DB	00H
	DB	00H
	DB	00H
	DB	00H
	DB	00H
	DB	00H
	DB	00H
	DB	00H
	DB	00H
	DB	00H
	DB	00H
	DB	00H
	DB	00H
	DB	00H
	DB	00H
	DB	00H
	DB	00H
	DB	00H
	DB	00H
	DB	00H
	DB	00H
	DB	00H
	DB	00H
	DB	00H
	DB	00H
	DB	00H
	DB	00H
	DB	00H
	DB	00H
	DB	00H
	DB	00H
	DB	00H
	DB	00H
	DB	00H
	DB	00H
	DB	00H
	DB	00H
	DB	00H
	DB	00H
	DB	00H
	DB	00H
	DB	00H
	DB	00H
	DB	00H
	DB	00H
	DB	00H
	DB	00H
	DB	00H
	DB	00H
	DB	00H
	DB	00H
	DB	00H
	DB	00H
	DB	00H
	DB	00H
	DB	00H
	DB	00H
	DB	00H
	DB	00H
	DB	00H
	DB	00H
	DB	00H
	DB	00H
	DB	00H
	DB	00H
	DB	00H
	DB	00H
	DB	00H
	DB	00H
	DB	00H
	DB	00H
	DB	00H
	DB	00H
	DB	00H
	DB	00H
	DB	00H
	DB	00H
	DB	00H
	DB	00H
	DB	00H
	DB	00H
	DB	00H
	DB	00H
	DB	00H
	DB	00H
	DB	00H
	DB	00H
	DB	00H
	DB	00H
	DB	00H
	DB	00H
	DB	00H
	DB	00H
	DB	00H
	DB	00H
	DB	00H
	DB	00H
	DB	00H
	DB	00H
	DB	00H
	DB	00H
	DB	00H
	DB	00H
	DB	00H
	DB	00H
	DB	00H
	DB	00H
	DB	00H
	DB	00H
	DB	00H
	DB	00H
	DB	00H
	DB	00H
	DB	00H
	DB	00H
	DB	00H
	DB	00H
	DB	00H
	DB	00H
	DB	00H
	DB	00H
	DB	00H
	DB	00H
	DB	00H
	DB	00H
	DB	00H
	DB	00H
	DB	00H
	DB	00H
	DB	00H
	DB	00H
	DB	00H
	DB	00H
	DB	00H
	DB	00H
	DB	00H
	DB	00H
	DB	00H
	DB	00H
	DB	00H
	DB	00H
	DB	00H
	DB	00H
	DB	00H
	DB	00H
	DB	00H
	DB	00H
	DB	00H
	DB	00H
	DB	00H
	DB	00H
	DB	00H
	DB	00H
	DB	00H
	DB	00H
	DB	00H
	DB	00H
	DB	00H
	DB	00H
	DB	00H
	DB	00H
	DB	00H
	DB	00H
	DB	00H
	DB	00H
	DB	00H
	DB	00H
	DB	00H
	DB	00H
	DB	00H
	DB	00H
	DB	00H
	DB	00H
	DB	00H
	DB	00H
	DB	00H
	DB	00H
	DB	00H
	DB	00H
	DB	00H
	DB	00H
	DB	00H
	DB	00H
	DB	00H
	DB	00H
	DB	00H
	DB	00H
	DB	00H
	DB	00H
	DB	00H
	DB	00H
	DB	00H
	DB	00H
	DB	00H
	DB	00H
	DB	00H
	DB	00H
	DB	00H
	DB	00H
	DB	00H
	DB	00H
	DB	00H
	DB	00H
	DB	00H
	DB	00H
	DB	00H
	DB	00H
	DB	00H
	DB	00H
	DB	00H
	DB	00H
	DB	00H
	DB	00H
	DB	00H
	DB	00H
	DB	00H
	DB	00H
	DB	00H
	DB	00H
	DB	00H
	DB	00H
	DB	00H
	DB	00H
	DB	00H
	DB	00H
	DB	00H
	DB	00H
	DB	00H
	DB	00H
	DB	00H
	DB	00H
	DB	00H
	DB	00H
	DB	00H
	DB	00H
	DB	00H
	DB	00H
	DB	00H
	DB	00H
	DB	00H
	DB	00H
	DB	00H
	DB	00H
	DB	00H
	DB	00H
	DB	00H
	DB	00H
	DB	00H
	DB	00H
	DB	00H
	DB	00H
	DB	00H
	DB	00H
	DB	00H
	DB	00H
	DB	00H
	DB	00H
	DB	00H
	DB	00H
	DB	00H
	DB	00H
	DB	00H
	DB	00H
	DB	00H
	DB	00H
	DB	00H
	DB	00H
	DB	00H
	DB	00H
	DB	00H
	DB	00H
	DB	00H
	DB	00H
	DB	00H
	DB	00H
	DB	00H
	DB	00H
	DB	00H
	DB	00H
	DB	00H
	DB	00H
	DB	00H
	DB	00H
	DB	00H
	DB	00H
	DB	00H
	DB	00H
	DB	00H
	DB	00H
	DB	00H
	DB	00H
	DB	00H
	DB	00H
	DB	00H
	DB	00H
	DB	00H
	DB	00H
	DB	00H
	DB	00H
	DB	00H
	DB	00H
	DB	00H
	DB	00H
	DB	00H
	DB	00H
	DB	00H
	DB	00H
	DB	00H
	DB	00H
	DB	00H
	DB	00H
	DB	00H
	DB	00H
	DB	00H
	DB	00H
	DB	00H
	DB	00H
	DB	00H
	DB	00H
	DB	00H
	DB	00H
	DB	00H
	DB	00H
	DB	00H
	DB	00H
	DB	00H
	DB	00H
	DB	00H
	DB	00H
	DB	00H
	DB	00H
	DB	00H
	DB	00H
	DB	00H
	DB	00H
	DB	00H
	DB	00H
	DB	00H
	DB	00H
	DB	00H
	DB	00H
	DB	00H
	DB	00H
	DB	00H
	DB	00H
	DB	00H
	DB	00H
	DB	00H
	DB	00H
	DB	00H
	DB	00H
	DB	00H
	DB	00H
	DB	00H
	DB	00H
	DB	00H
	DB	00H
	DB	00H
	DB	00H
	DB	00H
	DB	00H
	DB	00H
	DB	00H
	DB	00H
	DB	00H
	DB	00H
	DB	00H
	DB	00H
	DB	00H
	DB	00H
	DB	00H
	DB	00H
	DB	00H
	DB	00H
	DB	00H
	DB	00H
	DB	00H
	DB	00H
	DB	00H
	DB	00H
	DB	00H
	DB	00H
	DB	00H
	DB	00H
	DB	00H
	DB	00H
	DB	00H
	DB	00H
	DB	00H
	DB	00H
	DB	00H
	DB	00H
	DB	00H
	DB	00H
	DB	00H
	DB	00H
	DB	00H
	DB	00H
	DB	00H
	DB	00H
	DB	00H
	DB	00H
	DB	00H
	DB	00H
	DB	00H
	DB	00H
	DB	00H
	DB	00H
	DB	00H
	DB	00H
	DB	00H
	DB	00H
	DB	00H
	DB	00H
	DB	00H
	DB	00H
	DB	00H
	DB	00H
	DB	00H
	DB	00H
	DB	00H
	DB	00H
	DB	00H
	DB	00H
	DB	00H
	DB	00H
	DB	00H
	DB	00H
	DB	00H
	DB	00H
	DB	00H
	DB	00H
	DB	00H
	DB	00H
	DB	00H
	DB	00H
	DB	00H
	DB	00H
	DB	00H
	DB	00H
	DB	00H
	DB	00H
	DB	00H
	DB	00H
	DB	00H
	DB	00H
	DB	00H
	DB	00H
	DB	00H
	DB	00H
	DB	00H
	DB	00H
	DB	00H
	DB	00H
	DB	00H
	DB	00H
	DB	00H
	DB	00H
	DB	00H
	DB	00H
	DB	00H
	DB	00H
	DB	00H
	DB	00H
	DB	00H
	DB	00H
	DB	00H
	DB	00H
	DB	00H
	DB	00H
	DB	00H
	DB	00H
	DB	00H
	DB	00H
	DB	00H
	DB	00H
	DB	00H
	DB	00H
	DB	00H
	DB	00H
	DB	00H
	DB	00H
	DB	00H
	DB	00H
	DB	00H
	DB	00H
	DB	00H
	DB	00H
	DB	00H
	DB	00H
	DB	00H
	DB	00H
	DB	00H
	DB	00H
	DB	00H
	DB	00H
	DB	00H
	DB	00H
	DB	00H
	DB	00H
	DB	00H
	DB	00H
	DB	00H
	DB	00H
	DB	00H
	DB	00H
	DB	00H
	DB	00H
	DB	00H
	DB	00H
	DB	00H
	DB	00H
	DB	00H
	DB	00H
	DB	00H
	DB	00H
	DB	00H
	DB	00H
	DB	00H
	DB	00H
	DB	00H
	DB	00H
	DB	00H
	DB	00H
	DB	00H
	DB	00H
	DB	00H
	DB	00H
	DB	00H
	DB	00H
	DB	00H
	DB	00H
	DB	00H
	DB	00H
	DB	00H
	DB	00H
	DB	00H
	DB	00H
	DB	00H
	DB	00H
	DB	00H
	DB	00H
	DB	00H
	DB	00H
	DB	00H
	DB	00H
	DB	00H
	DB	00H
	DB	00H
	DB	00H
	DB	00H
	DB	00H
	DB	00H
	DB	00H
	DB	00H
	DB	00H
	DB	00H
	DB	00H
	DB	00H
	DB	00H
	DB	00H
	DB	00H
	DB	00H
	DB	00H
	DB	00H
	DB	00H
	DB	00H
	DB	00H
	DB	00H
	DB	00H
	DB	00H
	DB	00H
	DB	00H
	DB	00H
	DB	00H
	DB	00H
	DB	00H
	DB	00H
	DB	00H
	DB	00H
	DB	00H
	DB	00H
	DB	00H
	DB	00H
	DB	00H
	DB	00H
	DB	00H
	DB	00H
	DB	00H
	DB	00H
	DB	00H
	DB	00H
	DB	00H
	DB	00H
	DB	00H
	DB	00H
	DB	00H
	DB	00H
	DB	00H
	DB	00H
	DB	00H
	DB	00H
	DB	00H
	DB	00H
	DB	00H
	DB	00H
	DB	00H
	DB	00H
	DB	00H
	DB	00H
	DB	00H
	DB	00H
	DB	00H
	DB	00H
	DB	00H
	DB	00H
	DB	00H
	DB	00H
	DB	00H
	DB	00H
	DB	00H
	DB	00H
	DB	00H
	DB	00H
	DB	00H
	DB	00H
	DB	00H
	DB	00H
	DB	00H
	DB	00H
	DB	00H
	DB	00H
	DB	00H
	DB	00H
	DB	00H
	DB	00H
	DB	00H
	DB	00H
	DB	00H
	DB	00H
	DB	00H
	DB	00H
	DB	00H
	DB	00H
	DB	00H
	DB	00H
	DB	00H
	DB	00H
	DB	00H
	DB	00H
	DB	00H
	DB	00H
	DB	00H
	DB	00H
	DB	00H
	DB	00H
	DB	00H
	DB	00H
	DB	00H
	DB	00H
	DB	00H
	DB	00H
	DB	00H
	DB	00H
	DB	00H
	DB	00H
	DB	00H
	DB	00H
	DB	00H
	DB	00H
	DB	00H
	DB	00H
	DB	00H
	DB	00H
	DB	00H
	DB	00H
	DB	00H
	DB	00H
	DB	00H
	DB	00H
	DB	00H
	DB	00H
	DB	00H
	DB	00H
	DB	00H
	DB	00H
	DB	00H
	DB	00H
	DB	00H
	DB	00H
	DB	00H
	DB	00H
	DB	00H
	DB	00H
	DB	00H
	DB	00H
	DB	00H
	DB	00H
	DB	00H
	DB	00H
	DB	00H
	DB	00H
	DB	00H
	DB	00H
	DB	00H
	DB	00H
	DB	00H
	DB	00H
	DB	00H
	DB	00H
	DB	00H
	DB	00H
	DB	00H
	DB	00H
	DB	00H
	DB	00H
	DB	00H
	DB	00H
	DB	00H
	DB	00H
	DB	00H
	DB	00H
	DB	00H
	DB	00H
	DB	00H
	DB	00H
	DB	00H
	DB	00H
	DB	00H
	DB	00H
	DB	00H
	DB	00H
	DB	00H
	DB	00H
	DB	00H
	DB	00H
	DB	00H
	DB	00H
	DB	00H
	DB	00H
	DB	00H
	DB	00H
	DB	00H
	DB	00H
	DB	00H
	DB	00H
	DB	00H
	DB	00H
	DB	00H
	DB	00H
	DB	00H
	DB	00H
	DB	00H
	DB	00H
	DB	00H
	DB	00H
	DB	00H
	DB	00H
	DB	00H
	DB	00H
	DB	00H
	DB	00H
	DB	00H
	DB	00H
	DB	00H
	DB	00H
	DB	00H
	DB	00H
	DB	00H
	DB	00H
	DB	00H
	DB	00H
	DB	00H
	DB	00H
	DB	00H
	DB	00H
	DB	00H
	DB	00H
	DB	00H
	DB	00H
	DB	00H
	DB	00H
	DB	00H
	DB	00H
	DB	00H
	DB	00H
	DB	00H
	DB	00H
	DB	00H
	DB	00H
	DB	00H
	DB	00H
	DB	00H
	DB	00H
	DB	00H
	DB	00H
	DB	00H
	DB	00H
	DB	00H
	DB	00H
	DB	00H
	DB	00H
	DB	00H
	DB	00H
	DB	00H
	DB	00H
	DB	00H
	DB	00H
	DB	00H
	DB	00H
	DB	00H
	DB	00H
	DB	00H
	DB	00H
	DB	00H
	DB	00H
	DB	00H
	DB	00H
	DB	00H
	DB	00H
	DB	00H
	DB	00H
	DB	00H
	DB	00H
	DB	00H
	DB	00H
	DB	00H
	DB	00H
	DB	00H
	DB	00H
	DB	00H
	DB	00H
	DB	00H
	DB	00H
	DB	00H
	DB	00H
	DB	00H
	DB	00H
	DB	00H
	DB	00H
	DB	00H
	DB	00H
	DB	00H
	DB	00H
	DB	00H
	DB	00H
	DB	00H
	DB	00H
	DB	00H
	DB	00H
	DB	00H
	DB	00H
	DB	00H
	DB	00H
	DB	00H
	DB	00H
	DB	00H
	DB	00H
	DB	00H
	DB	00H
	DB	00H
	DB	00H
	DB	00H
	DB	00H
	DB	00H
	DB	00H
	DB	00H
	DB	00H
	DB	00H
	DB	00H
	DB	00H
	DB	00H
	DB	00H
	DB	00H
	DB	00H
	DB	00H
	DB	00H
	DB	00H
	DB	00H
	DB	00H
	DB	00H
	DB	00H
	DB	00H
	DB	00H
	DB	00H
	DB	00H
	DB	00H
	DB	00H
	DB	00H
	DB	00H
	DB	00H
	DB	00H
	DB	00H
	DB	00H
	DB	00H
	DB	00H
	DB	00H
	DB	00H
	DB	00H
	DB	00H
	DB	00H
	DB	00H
	DB	04H
	DB	05H
	DB	0c2H
	DB	0c2H
	DB	0c2H
	DB	0c2H
	DB	0c2H
	DB	0c2H
	DB	0c2H
	DB	0c2H
	DB	0c2H
	DB	0c2H
	DB	0c2H
	DB	0c2H
	DB	0c2H
	DB	0c2H
	DB	0c2H
	DB	0c2H
	DB	0c2H
	DB	0c2H
	DB	0c2H
	DB	0c2H
	DB	0c2H
	DB	0c2H
	DB	0c2H
	DB	0c2H
	DB	0c2H
	DB	0c2H
	DB	0c2H
	DB	0c2H
	DB	0c2H
	DB	0c2H
	DB	0c2H
	DB	0c2H
	DB	0c2H
	DB	0c2H
	DB	0c2H
	DB	0c2H
	DB	0c2H
	DB	0c2H
	DB	0c2H
	DB	0c2H
	DB	0c2H
	DB	0c2H
	DB	0c2H
	DB	0c2H
	DB	0c2H
	DB	0c2H
	DB	0c2H
	DB	0c2H
	DB	0c2H
	DB	0c2H
	DB	0c2H
	DB	0c2H
	DB	0c2H
	DB	0c2H
	DB	0c2H
	DB	0c2H
	DB	0c2H
	DB	0c2H
	DB	0c2H
	DB	0c2H
	DB	0c2H
	DB	0c2H
	DB	0c2H
	DB	0c2H
	DB	0c2H
	DB	0c2H
	DB	0c2H
	DB	0c2H
	DB	0c2H
	DB	0c2H
	DB	0c2H
	DB	0c2H
	DB	0c2H
	DB	0c2H
	DB	0c2H
	DB	0c2H
	DB	0c2H
	DB	0c2H
	DB	0c2H
	DB	0c2H
	DB	0c2H
	DB	0c2H
	DB	0c2H
	DB	0c2H
	DB	0c2H
	DB	0c2H
	DB	0c2H
	DB	0c2H
	DB	0c2H
	DB	0c2H
	DB	0c2H
	DB	0c2H
	DB	0c2H
	DB	0c2H
	DB	0c2H
	DB	0c2H
	DB	0c2H
	DB	0c2H
	DB	0c2H
	DB	0c2H
	DB	0c2H
	DB	0c2H
	DB	0c2H
	DB	0c2H
	DB	0c2H
	DB	0c2H
	DB	0c2H
	DB	0c2H
	DB	0c2H
	DB	0c2H
	DB	0c2H
	DB	0c2H
	DB	0c2H
	DB	0c2H
	DB	0c2H
	DB	0c2H
	DB	0c2H
	DB	0c2H
	DB	0c2H
	DB	0c2H
	DB	0c2H
	DB	0c2H
	DB	0c2H
	DB	0c2H
	DB	0c2H
	DB	0c2H
	DB	0c2H
	DB	0c2H
	DB	0c2H
	DB	0c2H
	DB	0c2H
	DB	0c2H
	DB	0c2H
	DB	0c2H
	DB	0c2H
	DB	0c2H
	DB	0c2H
	DB	0c2H
	DB	0c2H
	DB	0c2H
	DB	0c2H
	DB	0c2H
	DB	0c2H
	DB	0c2H
	DB	0c2H
	DB	0c2H
	DB	0c2H
	DB	0c2H
	DB	0c2H
	DB	0c2H
	DB	0c2H
	DB	0c2H
	DB	0c2H
	DB	0c2H
	DB	0c2H
	DB	0c2H
	DB	0c2H
	DB	0c2H
	DB	0c2H
	DB	0c2H
	DB	0c2H
	DB	0c2H
	DB	0c2H
	DB	0c2H
	DB	0c2H
	DB	0c2H
	DB	0c2H
	DB	0c2H
	DB	0c2H
	DB	0c2H
	DB	0c2H
	DB	0c2H
	DB	0c2H
	DB	0c2H
	DB	0c2H
	DB	0c2H
	DB	0c2H
	DB	0c2H
	DB	0c2H
	DB	0c2H
	DB	0c2H
	DB	0c2H
	DB	0c2H
	DB	0c2H
	DB	0c2H
	DB	0c2H
	DB	0c2H
	DB	0c2H
	DB	0c2H
	DB	0c2H
	DB	0c2H
	DB	0c2H
	DB	0c2H
	DB	0c2H
	DB	0c2H
	DB	0c2H
	DB	0c2H
	DB	0c2H
	DB	0c2H
	DB	0c2H
	DB	0c2H
	DB	0c2H
	DB	0c2H
	DB	0c2H
	DB	0c2H
	DB	0c2H
	DB	0c2H
	DB	0c2H
	DB	0c2H
	DB	0c2H
	DB	0c2H
	DB	0c2H
	DB	0c2H
	DB	0c2H
	DB	0c2H
	DB	0c2H
	DB	0c2H
	DB	0c2H
	DB	0c2H
	DB	0c2H
	DB	0c2H
	DB	0c2H
	DB	0c2H
	DB	0c2H
	DB	0c2H
	DB	0c2H
	DB	0c2H
	DB	0c2H
	DB	0c2H
	DB	0c2H
	DB	0c2H
	DB	0c2H
	DB	0c2H
	DB	0c2H
	DB	0c2H
	DB	0c2H
	DB	0c2H
	DB	0c2H
	DB	0c2H
	DB	0c2H
	DB	0c2H
	DB	0c2H
	DB	0c2H
	DB	0c2H
	DB	0c2H
	DB	0c2H
	DB	0c2H
	DB	0c2H
	DB	0c2H
	DB	0c2H
	DB	0c2H
	DB	0c2H
	DB	0c2H
	DB	0c2H
	DB	0c2H
	DB	0c2H
	DB	0c2H
	DB	0c2H
	DB	0c2H
	DB	0c2H
	DB	0c2H
	DB	0c2H
	DB	0c2H
	DB	0c2H
	DB	0c2H
	DB	0c2H
	DB	0c2H
	DB	0c2H
	DB	0c2H
	DB	0c2H
	DB	0c2H
	DB	0c2H
	DB	0c2H
	DB	0c2H
	DB	0c2H
	DB	0c2H
	DB	0c2H
	DB	0c2H
	DB	0c2H
	DB	0c2H
	DB	0c2H
	DB	0c2H
	DB	0c2H
	DB	0c2H
	DB	0c2H
	DB	0c2H
	DB	0c2H
	DB	0c2H
	DB	0c2H
	DB	0c2H
	DB	0c2H
	DB	0c2H
	DB	0c2H
	DB	0c2H
	DB	0c2H
	DB	0c2H
	DB	0c2H
	DB	0c2H
	DB	0c2H
	DB	0c2H
	DB	0c2H
	DB	0c2H
	DB	0c2H
	DB	0c2H
	DB	0c2H
	DB	0c2H
	DB	0c2H
	DB	0c2H
	DB	0c2H
	DB	0c2H
	DB	0c2H
	DB	0c2H
	DB	0c2H
	DB	0c2H
	DB	0c2H
	DB	0c2H
	DB	0c2H
	DB	0c2H
	DB	0c2H
	DB	0c2H
	DB	0c2H
	DB	0c2H
	DB	0c2H
	DB	0c2H
	DB	0c2H
	DB	0c2H
	DB	0c2H
	DB	0c2H
	DB	0c2H
	DB	0c2H
	DB	0c2H
	DB	0c2H
	DB	0c2H
	DB	0c2H
	DB	0c2H
	DB	0c2H
	DB	0c2H
	DB	0c2H
	DB	0c2H
	DB	0c2H
	DB	0c2H
	DB	0c2H
	DB	0c2H
	DB	0c2H
	DB	0c2H
	DB	0c2H
	DB	0c2H
	DB	0c2H
	DB	0c2H
	DB	0c2H
	DB	0c2H
	DB	0c2H
	DB	0c2H
	DB	0c2H
	DB	0c2H
	DB	0c2H
	DB	0c2H
	DB	0c2H
	DB	0c2H
	DB	0c2H
	DB	0c2H
	DB	0c2H
	DB	0c2H
	DB	0c2H
	DB	0c2H
	DB	0c2H
	DB	0c2H
	DB	0c2H
	DB	0c2H
	DB	0c2H
	DB	0c2H
	DB	0c2H
	DB	0c2H
	DB	0c2H
	DB	0c2H
	DB	0c2H
	DB	0c2H
	DB	0c2H
	DB	0c2H
	DB	0c2H
	DB	0c2H
	DB	0c2H
	DB	0c2H
	DB	0c2H
	DB	0c2H
	DB	0c2H
	DB	0c2H
	DB	0c2H
	DB	0c2H
	DB	0c2H
	DB	0c2H
	DB	0c2H
	DB	0c2H
	DB	0c2H
	DB	0c2H
	DB	0c2H
	DB	0c2H
	DB	0c2H
	DB	0c2H
	DB	0c2H
	DB	0c2H
	DB	0c2H
	DB	0c2H
	DB	0c2H
	DB	0c2H
	DB	0c2H
	DB	0c2H
	DB	0c2H
	DB	0c2H
	DB	0c2H
	DB	0c2H
	DB	0c2H
	DB	0c2H
	DB	0c2H
	DB	0c2H
	DB	0c2H
	DB	0c2H
	DB	0c2H
	DB	0c2H
	DB	0c2H
	DB	0c2H
	DB	0c2H
	DB	0c2H
	DB	0c2H
	DB	0c2H
	DB	0c2H
	DB	0c2H
	DB	0c2H
	DB	0c2H
	DB	0c2H
	DB	0c2H
	DB	0c2H
	DB	0c2H
	DB	0c2H
	DB	0c2H
	DB	0c2H
	DB	0c2H
	DB	0c2H
	DB	0c2H
	DB	0c2H
	DB	0c2H
	DB	0c2H
	DB	0c2H
	DB	0c2H
	DB	0c2H
	DB	0c2H
	DB	0c2H
	DB	0c2H
	DB	0c2H
	DB	0c2H
	DB	0c2H
	DB	05H
	DB	04H
	DB	00H
	DB	00H
	DB	00H
	DB	00H
	DB	00H
	DB	00H
	DB	00H
	DB	00H
	DB	00H
	DB	00H
	DB	00H
	DB	00H
	DB	00H
	DB	00H
	DB	00H
	DB	00H
	DB	00H
	DB	00H
	DB	00H
	DB	00H
	DB	00H
	DB	00H
	DB	0b3H
	DB	08H
	DB	01H
	DB	01eH
	DB	01eH
	DB	01eH
	DB	01eH
	DB	01eH
	DB	01eH
	DB	01eH
	DB	01eH
	DB	01eH
	DB	01eH
	DB	01eH
	DB	01eH
	DB	01eH
	DB	01eH
	DB	01eH
	DB	01eH
	DB	01eH
	DB	01eH
	DB	01eH
	DB	01eH
	DB	01eH
	DB	01eH
	DB	01eH
	DB	01eH
	DB	01eH
	DB	01eH
	DB	01eH
	DB	01eH
	DB	01eH
	DB	01eH
	DB	01eH
	DB	01eH
	DB	01eH
	DB	01eH
	DB	01eH
	DB	01eH
	DB	01eH
	DB	01eH
	DB	01eH
	DB	01eH
	DB	01eH
	DB	01eH
	DB	01eH
	DB	01eH
	DB	01eH
	DB	01eH
	DB	01eH
	DB	01eH
	DB	01eH
	DB	01eH
	DB	01eH
	DB	01eH
	DB	01eH
	DB	01eH
	DB	01eH
	DB	01eH
	DB	01eH
	DB	01eH
	DB	01eH
	DB	01eH
	DB	01eH
	DB	01eH
	DB	01eH
	DB	01eH
	DB	01eH
	DB	01eH
	DB	01eH
	DB	01eH
	DB	01eH
	DB	01eH
	DB	01eH
	DB	01eH
	DB	01eH
	DB	01eH
	DB	01eH
	DB	01eH
	DB	01eH
	DB	01eH
	DB	01eH
	DB	01eH
	DB	01eH
	DB	01eH
	DB	01eH
	DB	01eH
	DB	01eH
	DB	01eH
	DB	01eH
	DB	01eH
	DB	01eH
	DB	01eH
	DB	01eH
	DB	01eH
	DB	01eH
	DB	01eH
	DB	01eH
	DB	01eH
	DB	01eH
	DB	01eH
	DB	01eH
	DB	01eH
	DB	01eH
	DB	01eH
	DB	01eH
	DB	01eH
	DB	01eH
	DB	01eH
	DB	01eH
	DB	01eH
	DB	01eH
	DB	01eH
	DB	01eH
	DB	01eH
	DB	01eH
	DB	01eH
	DB	01eH
	DB	01eH
	DB	01eH
	DB	01eH
	DB	01eH
	DB	01eH
	DB	01eH
	DB	01eH
	DB	01eH
	DB	01eH
	DB	01eH
	DB	01eH
	DB	01eH
	DB	01eH
	DB	01eH
	DB	01eH
	DB	01eH
	DB	01eH
	DB	01eH
	DB	01eH
	DB	01eH
	DB	01eH
	DB	01eH
	DB	01eH
	DB	01eH
	DB	01eH
	DB	01eH
	DB	01eH
	DB	01eH
	DB	01eH
	DB	01eH
	DB	01eH
	DB	01eH
	DB	01eH
	DB	01eH
	DB	01eH
	DB	01eH
	DB	01eH
	DB	01eH
	DB	01eH
	DB	01eH
	DB	01eH
	DB	01eH
	DB	01eH
	DB	01eH
	DB	01eH
	DB	01eH
	DB	01eH
	DB	01eH
	DB	01eH
	DB	01eH
	DB	01eH
	DB	01eH
	DB	01eH
	DB	01eH
	DB	01eH
	DB	01eH
	DB	01eH
	DB	01eH
	DB	01eH
	DB	01eH
	DB	01eH
	DB	01eH
	DB	01eH
	DB	01eH
	DB	01eH
	DB	01eH
	DB	01eH
	DB	01eH
	DB	01eH
	DB	01eH
	DB	01eH
	DB	01eH
	DB	01eH
	DB	01eH
	DB	01eH
	DB	01eH
	DB	01eH
	DB	01eH
	DB	01eH
	DB	01eH
	DB	01eH
	DB	01eH
	DB	01eH
	DB	01eH
	DB	01eH
	DB	01eH
	DB	01eH
	DB	01eH
	DB	01eH
	DB	01eH
	DB	01eH
	DB	01eH
	DB	01eH
	DB	01eH
	DB	01eH
	DB	01eH
	DB	01eH
	DB	01eH
	DB	01eH
	DB	01eH
	DB	01eH
	DB	01eH
	DB	01eH
	DB	01eH
	DB	01eH
	DB	01eH
	DB	01eH
	DB	01eH
	DB	01eH
	DB	01eH
	DB	01eH
	DB	01eH
	DB	01eH
	DB	01eH
	DB	01eH
	DB	01eH
	DB	01eH
	DB	01eH
	DB	01eH
	DB	01eH
	DB	01eH
	DB	01eH
	DB	01eH
	DB	01eH
	DB	01eH
	DB	01eH
	DB	01eH
	DB	01eH
	DB	01eH
	DB	01eH
	DB	01eH
	DB	01eH
	DB	01eH
	DB	01eH
	DB	01eH
	DB	01eH
	DB	01eH
	DB	01eH
	DB	01eH
	DB	01eH
	DB	01eH
	DB	01eH
	DB	01eH
	DB	01eH
	DB	01eH
	DB	01eH
	DB	01eH
	DB	01eH
	DB	01eH
	DB	01eH
	DB	01eH
	DB	01eH
	DB	01eH
	DB	01eH
	DB	01eH
	DB	01eH
	DB	01eH
	DB	01eH
	DB	01eH
	DB	01eH
	DB	01eH
	DB	01eH
	DB	01eH
	DB	01eH
	DB	01eH
	DB	01eH
	DB	01eH
	DB	01eH
	DB	01eH
	DB	01eH
	DB	01eH
	DB	01eH
	DB	01eH
	DB	01eH
	DB	01eH
	DB	01eH
	DB	01eH
	DB	01eH
	DB	01eH
	DB	01eH
	DB	01eH
	DB	01eH
	DB	01eH
	DB	01eH
	DB	01eH
	DB	01eH
	DB	01eH
	DB	01eH
	DB	01eH
	DB	01eH
	DB	01eH
	DB	01eH
	DB	01eH
	DB	01eH
	DB	01eH
	DB	01eH
	DB	01eH
	DB	01eH
	DB	01eH
	DB	01eH
	DB	01eH
	DB	01eH
	DB	01eH
	DB	01eH
	DB	01eH
	DB	01eH
	DB	01eH
	DB	01eH
	DB	01eH
	DB	01eH
	DB	01eH
	DB	01eH
	DB	01eH
	DB	01eH
	DB	01eH
	DB	01eH
	DB	01eH
	DB	01eH
	DB	01eH
	DB	01eH
	DB	01eH
	DB	01eH
	DB	01eH
	DB	01eH
	DB	01eH
	DB	01eH
	DB	01eH
	DB	01eH
	DB	01eH
	DB	01eH
	DB	01eH
	DB	01eH
	DB	01eH
	DB	01eH
	DB	01eH
	DB	01eH
	DB	01eH
	DB	01eH
	DB	01eH
	DB	01eH
	DB	01eH
	DB	01eH
	DB	01eH
	DB	01eH
	DB	01eH
	DB	01eH
	DB	01eH
	DB	01eH
	DB	01eH
	DB	01eH
	DB	01eH
	DB	01eH
	DB	01eH
	DB	01eH
	DB	01eH
	DB	01eH
	DB	01eH
	DB	01eH
	DB	01eH
	DB	01eH
	DB	01eH
	DB	01eH
	DB	01eH
	DB	01eH
	DB	01eH
	DB	01eH
	DB	01eH
	DB	01eH
	DB	01eH
	DB	01eH
	DB	01eH
	DB	01eH
	DB	01eH
	DB	01eH
	DB	01eH
	DB	01eH
	DB	01eH
	DB	01eH
	DB	01eH
	DB	01eH
	DB	01eH
	DB	01eH
	DB	01eH
	DB	01eH
	DB	01eH
	DB	01eH
	DB	01eH
	DB	01eH
	DB	01eH
	DB	01eH
	DB	01eH
	DB	01eH
	DB	01eH
	DB	01eH
	DB	01eH
	DB	01eH
	DB	01eH
	DB	01eH
	DB	01eH
	DB	01eH
	DB	01eH
	DB	01eH
	DB	01eH
	DB	01eH
	DB	01eH
	DB	01eH
	DB	01eH
	DB	01eH
	DB	01eH
	DB	01eH
	DB	01eH
	DB	01eH
	DB	01eH
	DB	01eH
	DB	01eH
	DB	01eH
	DB	01eH
	DB	01eH
	DB	01eH
	DB	01eH
	DB	01eH
	DB	01eH
	DB	01eH
	DB	01eH
	DB	01eH
	DB	01eH
	DB	01eH
	DB	01eH
	DB	01eH
	DB	01eH
	DB	01eH
	DB	01eH
	DB	01eH
	DB	01eH
	DB	01eH
	DB	01eH
	DB	01eH
	DB	01eH
	DB	01eH
	DB	01eH
	DB	01H
	DB	08H
	DB	0b3H
	DB	00H
	DB	00H
	DB	00H
	DB	00H
	DB	00H
	DB	00H
	DB	00H
	DB	00H
	DB	00H
	DB	00H
	DB	00H
	DB	00H
	DB	00H
	DB	00H
	DB	00H
	DB	00H
	DB	00H
	DB	00H
	DB	0c2H
	DB	01eH
	DB	06H
	DB	05aH
	DB	01aH
	DB	019H
	DB	019H
	DB	019H
	DB	019H
	DB	019H
	DB	019H
	DB	019H
	DB	019H
	DB	019H
	DB	019H
	DB	019H
	DB	019H
	DB	019H
	DB	019H
	DB	019H
	DB	019H
	DB	019H
	DB	019H
	DB	019H
	DB	019H
	DB	019H
	DB	019H
	DB	019H
	DB	019H
	DB	019H
	DB	019H
	DB	019H
	DB	019H
	DB	019H
	DB	019H
	DB	019H
	DB	019H
	DB	019H
	DB	019H
	DB	019H
	DB	019H
	DB	019H
	DB	019H
	DB	019H
	DB	019H
	DB	019H
	DB	019H
	DB	019H
	DB	019H
	DB	019H
	DB	019H
	DB	019H
	DB	019H
	DB	019H
	DB	019H
	DB	019H
	DB	019H
	DB	019H
	DB	019H
	DB	019H
	DB	019H
	DB	019H
	DB	019H
	DB	019H
	DB	019H
	DB	019H
	DB	019H
	DB	019H
	DB	019H
	DB	019H
	DB	019H
	DB	019H
	DB	019H
	DB	019H
	DB	019H
	DB	019H
	DB	019H
	DB	019H
	DB	019H
	DB	019H
	DB	019H
	DB	019H
	DB	019H
	DB	019H
	DB	019H
	DB	019H
	DB	019H
	DB	019H
	DB	019H
	DB	019H
	DB	019H
	DB	019H
	DB	019H
	DB	019H
	DB	019H
	DB	019H
	DB	019H
	DB	019H
	DB	019H
	DB	019H
	DB	019H
	DB	019H
	DB	019H
	DB	019H
	DB	019H
	DB	019H
	DB	019H
	DB	019H
	DB	019H
	DB	019H
	DB	019H
	DB	019H
	DB	019H
	DB	019H
	DB	019H
	DB	019H
	DB	019H
	DB	019H
	DB	019H
	DB	019H
	DB	019H
	DB	019H
	DB	019H
	DB	019H
	DB	019H
	DB	019H
	DB	019H
	DB	019H
	DB	019H
	DB	019H
	DB	019H
	DB	019H
	DB	019H
	DB	019H
	DB	019H
	DB	019H
	DB	019H
	DB	019H
	DB	019H
	DB	019H
	DB	019H
	DB	019H
	DB	019H
	DB	019H
	DB	019H
	DB	019H
	DB	019H
	DB	019H
	DB	019H
	DB	019H
	DB	019H
	DB	019H
	DB	019H
	DB	019H
	DB	019H
	DB	019H
	DB	019H
	DB	019H
	DB	019H
	DB	019H
	DB	019H
	DB	019H
	DB	019H
	DB	019H
	DB	019H
	DB	019H
	DB	019H
	DB	019H
	DB	019H
	DB	019H
	DB	019H
	DB	019H
	DB	019H
	DB	019H
	DB	019H
	DB	019H
	DB	019H
	DB	019H
	DB	019H
	DB	019H
	DB	019H
	DB	019H
	DB	019H
	DB	019H
	DB	019H
	DB	019H
	DB	019H
	DB	019H
	DB	019H
	DB	019H
	DB	019H
	DB	019H
	DB	019H
	DB	019H
	DB	019H
	DB	019H
	DB	019H
	DB	019H
	DB	019H
	DB	019H
	DB	019H
	DB	019H
	DB	019H
	DB	019H
	DB	019H
	DB	019H
	DB	019H
	DB	019H
	DB	019H
	DB	019H
	DB	019H
	DB	019H
	DB	019H
	DB	019H
	DB	019H
	DB	019H
	DB	019H
	DB	019H
	DB	019H
	DB	019H
	DB	019H
	DB	019H
	DB	019H
	DB	019H
	DB	019H
	DB	019H
	DB	019H
	DB	019H
	DB	019H
	DB	019H
	DB	019H
	DB	019H
	DB	019H
	DB	019H
	DB	019H
	DB	019H
	DB	019H
	DB	019H
	DB	019H
	DB	019H
	DB	019H
	DB	019H
	DB	019H
	DB	019H
	DB	019H
	DB	019H
	DB	019H
	DB	019H
	DB	019H
	DB	019H
	DB	019H
	DB	019H
	DB	019H
	DB	019H
	DB	019H
	DB	019H
	DB	019H
	DB	019H
	DB	019H
	DB	019H
	DB	019H
	DB	019H
	DB	019H
	DB	019H
	DB	019H
	DB	019H
	DB	019H
	DB	019H
	DB	019H
	DB	019H
	DB	019H
	DB	019H
	DB	019H
	DB	019H
	DB	019H
	DB	019H
	DB	019H
	DB	019H
	DB	019H
	DB	019H
	DB	019H
	DB	019H
	DB	019H
	DB	019H
	DB	019H
	DB	019H
	DB	019H
	DB	019H
	DB	019H
	DB	019H
	DB	019H
	DB	019H
	DB	019H
	DB	019H
	DB	019H
	DB	019H
	DB	019H
	DB	019H
	DB	019H
	DB	019H
	DB	019H
	DB	019H
	DB	019H
	DB	019H
	DB	019H
	DB	019H
	DB	019H
	DB	019H
	DB	019H
	DB	019H
	DB	019H
	DB	019H
	DB	019H
	DB	019H
	DB	019H
	DB	019H
	DB	019H
	DB	019H
	DB	019H
	DB	019H
	DB	019H
	DB	019H
	DB	019H
	DB	019H
	DB	019H
	DB	019H
	DB	019H
	DB	019H
	DB	019H
	DB	019H
	DB	019H
	DB	019H
	DB	019H
	DB	019H
	DB	019H
	DB	019H
	DB	019H
	DB	019H
	DB	019H
	DB	019H
	DB	019H
	DB	019H
	DB	019H
	DB	019H
	DB	019H
	DB	019H
	DB	019H
	DB	019H
	DB	019H
	DB	019H
	DB	019H
	DB	019H
	DB	019H
	DB	019H
	DB	019H
	DB	019H
	DB	019H
	DB	019H
	DB	019H
	DB	019H
	DB	019H
	DB	019H
	DB	019H
	DB	019H
	DB	019H
	DB	019H
	DB	019H
	DB	019H
	DB	019H
	DB	019H
	DB	019H
	DB	019H
	DB	019H
	DB	019H
	DB	019H
	DB	019H
	DB	019H
	DB	019H
	DB	019H
	DB	019H
	DB	019H
	DB	019H
	DB	019H
	DB	019H
	DB	019H
	DB	019H
	DB	019H
	DB	019H
	DB	019H
	DB	019H
	DB	019H
	DB	019H
	DB	019H
	DB	019H
	DB	019H
	DB	019H
	DB	019H
	DB	019H
	DB	019H
	DB	019H
	DB	019H
	DB	019H
	DB	019H
	DB	019H
	DB	019H
	DB	019H
	DB	019H
	DB	019H
	DB	019H
	DB	019H
	DB	019H
	DB	019H
	DB	019H
	DB	019H
	DB	019H
	DB	019H
	DB	019H
	DB	019H
	DB	019H
	DB	019H
	DB	019H
	DB	019H
	DB	019H
	DB	019H
	DB	019H
	DB	019H
	DB	019H
	DB	019H
	DB	019H
	DB	019H
	DB	019H
	DB	019H
	DB	019H
	DB	019H
	DB	019H
	DB	019H
	DB	019H
	DB	019H
	DB	019H
	DB	019H
	DB	019H
	DB	019H
	DB	019H
	DB	019H
	DB	019H
	DB	019H
	DB	019H
	DB	019H
	DB	019H
	DB	019H
	DB	019H
	DB	019H
	DB	019H
	DB	019H
	DB	019H
	DB	019H
	DB	019H
	DB	019H
	DB	01aH
	DB	05aH
	DB	06H
	DB	01eH
	DB	0c2H
	DB	00H
	DB	00H
	DB	00H
	DB	00H
	DB	00H
	DB	00H
	DB	00H
	DB	00H
	DB	00H
	DB	00H
	DB	00H
	DB	00H
	DB	00H
	DB	00H
	DB	00H
	DB	00H
	DB	042H
	DB	06H
	DB	05aH
	DB	019H
	DB	03H
	DB	03H
	DB	03H
	DB	03H
	DB	03H
	DB	03H
	DB	03H
	DB	03H
	DB	03H
	DB	03H
	DB	03H
	DB	03H
	DB	03H
	DB	03H
	DB	03H
	DB	03H
	DB	03H
	DB	03H
	DB	03H
	DB	03H
	DB	03H
	DB	03H
	DB	03H
	DB	03H
	DB	03H
	DB	03H
	DB	03H
	DB	03H
	DB	03H
	DB	03H
	DB	03H
	DB	03H
	DB	03H
	DB	03H
	DB	03H
	DB	03H
	DB	03H
	DB	03H
	DB	03H
	DB	03H
	DB	03H
	DB	03H
	DB	03H
	DB	03H
	DB	03H
	DB	03H
	DB	03H
	DB	03H
	DB	03H
	DB	03H
	DB	03H
	DB	03H
	DB	03H
	DB	03H
	DB	03H
	DB	03H
	DB	03H
	DB	03H
	DB	03H
	DB	03H
	DB	03H
	DB	03H
	DB	03H
	DB	03H
	DB	03H
	DB	03H
	DB	03H
	DB	03H
	DB	03H
	DB	03H
	DB	03H
	DB	03H
	DB	03H
	DB	03H
	DB	03H
	DB	03H
	DB	03H
	DB	03H
	DB	03H
	DB	03H
	DB	03H
	DB	03H
	DB	03H
	DB	03H
	DB	03H
	DB	03H
	DB	03H
	DB	03H
	DB	03H
	DB	03H
	DB	03H
	DB	03H
	DB	03H
	DB	03H
	DB	03H
	DB	03H
	DB	03H
	DB	03H
	DB	03H
	DB	03H
	DB	03H
	DB	03H
	DB	03H
	DB	03H
	DB	03H
	DB	03H
	DB	03H
	DB	03H
	DB	03H
	DB	03H
	DB	03H
	DB	03H
	DB	03H
	DB	03H
	DB	03H
	DB	03H
	DB	03H
	DB	03H
	DB	03H
	DB	03H
	DB	03H
	DB	03H
	DB	03H
	DB	03H
	DB	03H
	DB	03H
	DB	03H
	DB	03H
	DB	03H
	DB	03H
	DB	03H
	DB	03H
	DB	03H
	DB	03H
	DB	03H
	DB	03H
	DB	03H
	DB	03H
	DB	03H
	DB	03H
	DB	03H
	DB	03H
	DB	03H
	DB	03H
	DB	03H
	DB	03H
	DB	03H
	DB	03H
	DB	03H
	DB	03H
	DB	03H
	DB	03H
	DB	03H
	DB	03H
	DB	03H
	DB	03H
	DB	03H
	DB	03H
	DB	03H
	DB	03H
	DB	03H
	DB	03H
	DB	03H
	DB	03H
	DB	03H
	DB	03H
	DB	03H
	DB	03H
	DB	03H
	DB	03H
	DB	03H
	DB	03H
	DB	03H
	DB	03H
	DB	03H
	DB	03H
	DB	03H
	DB	03H
	DB	03H
	DB	03H
	DB	03H
	DB	03H
	DB	03H
	DB	03H
	DB	03H
	DB	03H
	DB	03H
	DB	03H
	DB	03H
	DB	03H
	DB	03H
	DB	03H
	DB	03H
	DB	03H
	DB	03H
	DB	03H
	DB	03H
	DB	03H
	DB	03H
	DB	03H
	DB	03H
	DB	03H
	DB	03H
	DB	03H
	DB	03H
	DB	03H
	DB	03H
	DB	03H
	DB	03H
	DB	03H
	DB	03H
	DB	03H
	DB	03H
	DB	03H
	DB	03H
	DB	03H
	DB	03H
	DB	03H
	DB	03H
	DB	03H
	DB	03H
	DB	03H
	DB	03H
	DB	03H
	DB	03H
	DB	03H
	DB	03H
	DB	03H
	DB	03H
	DB	03H
	DB	03H
	DB	03H
	DB	03H
	DB	03H
	DB	03H
	DB	03H
	DB	03H
	DB	03H
	DB	03H
	DB	03H
	DB	03H
	DB	03H
	DB	03H
	DB	03H
	DB	03H
	DB	03H
	DB	03H
	DB	03H
	DB	03H
	DB	03H
	DB	03H
	DB	03H
	DB	03H
	DB	03H
	DB	03H
	DB	03H
	DB	03H
	DB	03H
	DB	03H
	DB	03H
	DB	03H
	DB	03H
	DB	03H
	DB	03H
	DB	03H
	DB	03H
	DB	03H
	DB	03H
	DB	03H
	DB	03H
	DB	03H
	DB	03H
	DB	03H
	DB	03H
	DB	03H
	DB	03H
	DB	03H
	DB	03H
	DB	03H
	DB	03H
	DB	03H
	DB	03H
	DB	03H
	DB	03H
	DB	03H
	DB	03H
	DB	03H
	DB	03H
	DB	03H
	DB	03H
	DB	03H
	DB	03H
	DB	03H
	DB	03H
	DB	03H
	DB	03H
	DB	03H
	DB	03H
	DB	03H
	DB	03H
	DB	03H
	DB	03H
	DB	03H
	DB	03H
	DB	03H
	DB	03H
	DB	03H
	DB	03H
	DB	03H
	DB	03H
	DB	03H
	DB	03H
	DB	03H
	DB	03H
	DB	03H
	DB	03H
	DB	03H
	DB	03H
	DB	03H
	DB	03H
	DB	03H
	DB	03H
	DB	03H
	DB	03H
	DB	03H
	DB	03H
	DB	03H
	DB	03H
	DB	03H
	DB	03H
	DB	03H
	DB	03H
	DB	03H
	DB	03H
	DB	03H
	DB	03H
	DB	03H
	DB	03H
	DB	03H
	DB	03H
	DB	03H
	DB	03H
	DB	03H
	DB	03H
	DB	03H
	DB	03H
	DB	03H
	DB	03H
	DB	03H
	DB	03H
	DB	03H
	DB	03H
	DB	03H
	DB	03H
	DB	03H
	DB	03H
	DB	03H
	DB	03H
	DB	03H
	DB	03H
	DB	03H
	DB	03H
	DB	03H
	DB	03H
	DB	03H
	DB	03H
	DB	03H
	DB	03H
	DB	03H
	DB	03H
	DB	03H
	DB	03H
	DB	03H
	DB	03H
	DB	03H
	DB	03H
	DB	03H
	DB	03H
	DB	03H
	DB	03H
	DB	03H
	DB	03H
	DB	03H
	DB	03H
	DB	03H
	DB	03H
	DB	03H
	DB	03H
	DB	03H
	DB	03H
	DB	03H
	DB	03H
	DB	03H
	DB	03H
	DB	03H
	DB	03H
	DB	03H
	DB	03H
	DB	03H
	DB	03H
	DB	03H
	DB	03H
	DB	03H
	DB	03H
	DB	03H
	DB	03H
	DB	03H
	DB	03H
	DB	03H
	DB	03H
	DB	03H
	DB	03H
	DB	03H
	DB	03H
	DB	03H
	DB	03H
	DB	03H
	DB	03H
	DB	03H
	DB	03H
	DB	03H
	DB	03H
	DB	03H
	DB	03H
	DB	03H
	DB	03H
	DB	03H
	DB	03H
	DB	03H
	DB	03H
	DB	03H
	DB	03H
	DB	03H
	DB	03H
	DB	03H
	DB	03H
	DB	03H
	DB	03H
	DB	03H
	DB	03H
	DB	03H
	DB	03H
	DB	03H
	DB	03H
	DB	03H
	DB	03H
	DB	03H
	DB	03H
	DB	03H
	DB	03H
	DB	03H
	DB	03H
	DB	03H
	DB	03H
	DB	03H
	DB	03H
	DB	03H
	DB	019H
	DB	05aH
	DB	06H
	DB	0e0H
	DB	00H
	DB	00H
	DB	00H
	DB	00H
	DB	00H
	DB	00H
	DB	00H
	DB	00H
	DB	00H
	DB	00H
	DB	00H
	DB	00H
	DB	00H
	DB	00H
	DB	08H
	DB	06H
	DB	01aH
	DB	03H
	DB	03H
	DB	03H
	DB	03H
	DB	03H
	DB	03H
	DB	03H
	DB	03H
	DB	03H
	DB	03H
	DB	03H
	DB	03H
	DB	03H
	DB	03H
	DB	03H
	DB	03H
	DB	03H
	DB	03H
	DB	03H
	DB	03H
	DB	03H
	DB	03H
	DB	03H
	DB	03H
	DB	03H
	DB	03H
	DB	03H
	DB	03H
	DB	03H
	DB	03H
	DB	03H
	DB	03H
	DB	03H
	DB	03H
	DB	03H
	DB	03H
	DB	03H
	DB	03H
	DB	03H
	DB	03H
	DB	03H
	DB	03H
	DB	03H
	DB	03H
	DB	03H
	DB	03H
	DB	03H
	DB	03H
	DB	03H
	DB	03H
	DB	03H
	DB	03H
	DB	03H
	DB	03H
	DB	03H
	DB	03H
	DB	03H
	DB	03H
	DB	03H
	DB	03H
	DB	03H
	DB	03H
	DB	03H
	DB	03H
	DB	03H
	DB	03H
	DB	03H
	DB	03H
	DB	03H
	DB	03H
	DB	03H
	DB	03H
	DB	03H
	DB	03H
	DB	03H
	DB	03H
	DB	03H
	DB	03H
	DB	03H
	DB	03H
	DB	03H
	DB	03H
	DB	03H
	DB	03H
	DB	03H
	DB	03H
	DB	03H
	DB	03H
	DB	03H
	DB	03H
	DB	03H
	DB	03H
	DB	03H
	DB	03H
	DB	03H
	DB	03H
	DB	03H
	DB	03H
	DB	03H
	DB	03H
	DB	03H
	DB	03H
	DB	03H
	DB	03H
	DB	03H
	DB	03H
	DB	03H
	DB	03H
	DB	03H
	DB	03H
	DB	03H
	DB	03H
	DB	03H
	DB	03H
	DB	03H
	DB	03H
	DB	03H
	DB	03H
	DB	03H
	DB	03H
	DB	03H
	DB	03H
	DB	03H
	DB	03H
	DB	03H
	DB	03H
	DB	03H
	DB	03H
	DB	03H
	DB	03H
	DB	03H
	DB	03H
	DB	03H
	DB	03H
	DB	03H
	DB	03H
	DB	03H
	DB	03H
	DB	03H
	DB	03H
	DB	03H
	DB	03H
	DB	03H
	DB	03H
	DB	03H
	DB	03H
	DB	03H
	DB	03H
	DB	03H
	DB	03H
	DB	03H
	DB	03H
	DB	03H
	DB	03H
	DB	03H
	DB	03H
	DB	03H
	DB	03H
	DB	03H
	DB	03H
	DB	03H
	DB	03H
	DB	03H
	DB	03H
	DB	03H
	DB	03H
	DB	03H
	DB	03H
	DB	03H
	DB	03H
	DB	03H
	DB	03H
	DB	03H
	DB	03H
	DB	03H
	DB	03H
	DB	03H
	DB	03H
	DB	03H
	DB	03H
	DB	03H
	DB	03H
	DB	03H
	DB	03H
	DB	03H
	DB	03H
	DB	03H
	DB	03H
	DB	03H
	DB	03H
	DB	03H
	DB	03H
	DB	03H
	DB	03H
	DB	03H
	DB	03H
	DB	03H
	DB	03H
	DB	03H
	DB	03H
	DB	03H
	DB	03H
	DB	03H
	DB	03H
	DB	03H
	DB	03H
	DB	03H
	DB	03H
	DB	03H
	DB	03H
	DB	03H
	DB	03H
	DB	03H
	DB	03H
	DB	03H
	DB	03H
	DB	03H
	DB	03H
	DB	03H
	DB	03H
	DB	03H
	DB	03H
	DB	03H
	DB	03H
	DB	03H
	DB	03H
	DB	03H
	DB	03H
	DB	03H
	DB	03H
	DB	03H
	DB	03H
	DB	03H
	DB	03H
	DB	03H
	DB	03H
	DB	03H
	DB	03H
	DB	03H
	DB	03H
	DB	03H
	DB	03H
	DB	03H
	DB	03H
	DB	03H
	DB	03H
	DB	03H
	DB	03H
	DB	03H
	DB	03H
	DB	03H
	DB	03H
	DB	03H
	DB	03H
	DB	03H
	DB	03H
	DB	03H
	DB	03H
	DB	03H
	DB	03H
	DB	03H
	DB	03H
	DB	03H
	DB	03H
	DB	03H
	DB	03H
	DB	03H
	DB	03H
	DB	03H
	DB	03H
	DB	03H
	DB	03H
	DB	03H
	DB	03H
	DB	03H
	DB	03H
	DB	03H
	DB	03H
	DB	03H
	DB	03H
	DB	03H
	DB	03H
	DB	03H
	DB	03H
	DB	03H
	DB	03H
	DB	03H
	DB	03H
	DB	03H
	DB	03H
	DB	03H
	DB	03H
	DB	03H
	DB	03H
	DB	03H
	DB	03H
	DB	03H
	DB	03H
	DB	03H
	DB	03H
	DB	03H
	DB	03H
	DB	03H
	DB	03H
	DB	03H
	DB	03H
	DB	03H
	DB	03H
	DB	03H
	DB	03H
	DB	03H
	DB	03H
	DB	03H
	DB	03H
	DB	03H
	DB	03H
	DB	03H
	DB	03H
	DB	03H
	DB	03H
	DB	03H
	DB	03H
	DB	03H
	DB	03H
	DB	03H
	DB	03H
	DB	03H
	DB	03H
	DB	03H
	DB	03H
	DB	03H
	DB	03H
	DB	03H
	DB	03H
	DB	03H
	DB	03H
	DB	03H
	DB	03H
	DB	03H
	DB	03H
	DB	03H
	DB	03H
	DB	03H
	DB	03H
	DB	03H
	DB	03H
	DB	03H
	DB	03H
	DB	03H
	DB	03H
	DB	03H
	DB	03H
	DB	03H
	DB	03H
	DB	03H
	DB	03H
	DB	03H
	DB	03H
	DB	03H
	DB	03H
	DB	03H
	DB	03H
	DB	03H
	DB	03H
	DB	03H
	DB	03H
	DB	03H
	DB	03H
	DB	03H
	DB	03H
	DB	03H
	DB	03H
	DB	03H
	DB	03H
	DB	03H
	DB	03H
	DB	03H
	DB	03H
	DB	03H
	DB	03H
	DB	03H
	DB	03H
	DB	03H
	DB	03H
	DB	03H
	DB	03H
	DB	03H
	DB	03H
	DB	03H
	DB	03H
	DB	03H
	DB	03H
	DB	03H
	DB	03H
	DB	03H
	DB	03H
	DB	03H
	DB	03H
	DB	03H
	DB	03H
	DB	03H
	DB	03H
	DB	03H
	DB	03H
	DB	03H
	DB	03H
	DB	03H
	DB	03H
	DB	03H
	DB	03H
	DB	03H
	DB	03H
	DB	03H
	DB	03H
	DB	03H
	DB	03H
	DB	03H
	DB	03H
	DB	03H
	DB	03H
	DB	03H
	DB	03H
	DB	03H
	DB	03H
	DB	03H
	DB	03H
	DB	03H
	DB	03H
	DB	03H
	DB	03H
	DB	03H
	DB	03H
	DB	03H
	DB	03H
	DB	03H
	DB	03H
	DB	03H
	DB	03H
	DB	03H
	DB	03H
	DB	03H
	DB	03H
	DB	03H
	DB	03H
	DB	03H
	DB	03H
	DB	03H
	DB	03H
	DB	03H
	DB	03H
	DB	03H
	DB	03H
	DB	03H
	DB	03H
	DB	03H
	DB	03H
	DB	03H
	DB	03H
	DB	03H
	DB	03H
	DB	03H
	DB	01aH
	DB	06H
	DB	08H
	DB	00H
	DB	00H
	DB	00H
	DB	00H
	DB	00H
	DB	00H
	DB	00H
	DB	00H
	DB	00H
	DB	00H
	DB	00H
	DB	00H
	DB	088H
	DB	01eH
	DB	01aH
	DB	03H
	DB	03H
	DB	03H
	DB	03H
	DB	03H
	DB	03H
	DB	03H
	DB	03H
	DB	03H
	DB	03H
	DB	03H
	DB	03H
	DB	03H
	DB	03H
	DB	03H
	DB	03H
	DB	03H
	DB	03H
	DB	03H
	DB	03H
	DB	03H
	DB	03H
	DB	03H
	DB	03H
	DB	03H
	DB	03H
	DB	03H
	DB	03H
	DB	03H
	DB	03H
	DB	03H
	DB	03H
	DB	03H
	DB	03H
	DB	03H
	DB	03H
	DB	03H
	DB	03H
	DB	03H
	DB	03H
	DB	03H
	DB	03H
	DB	03H
	DB	03H
	DB	03H
	DB	03H
	DB	03H
	DB	03H
	DB	03H
	DB	03H
	DB	03H
	DB	03H
	DB	03H
	DB	03H
	DB	03H
	DB	03H
	DB	03H
	DB	03H
	DB	03H
	DB	03H
	DB	03H
	DB	03H
	DB	03H
	DB	03H
	DB	03H
	DB	03H
	DB	03H
	DB	03H
	DB	03H
	DB	03H
	DB	03H
	DB	03H
	DB	03H
	DB	03H
	DB	03H
	DB	03H
	DB	03H
	DB	03H
	DB	03H
	DB	03H
	DB	03H
	DB	03H
	DB	03H
	DB	03H
	DB	03H
	DB	03H
	DB	03H
	DB	03H
	DB	03H
	DB	03H
	DB	03H
	DB	03H
	DB	03H
	DB	03H
	DB	03H
	DB	03H
	DB	03H
	DB	03H
	DB	03H
	DB	03H
	DB	03H
	DB	03H
	DB	03H
	DB	03H
	DB	03H
	DB	03H
	DB	03H
	DB	03H
	DB	03H
	DB	03H
	DB	03H
	DB	03H
	DB	03H
	DB	03H
	DB	03H
	DB	03H
	DB	03H
	DB	03H
	DB	03H
	DB	03H
	DB	03H
	DB	03H
	DB	03H
	DB	03H
	DB	03H
	DB	03H
	DB	03H
	DB	03H
	DB	03H
	DB	03H
	DB	03H
	DB	03H
	DB	03H
	DB	03H
	DB	03H
	DB	03H
	DB	03H
	DB	03H
	DB	03H
	DB	03H
	DB	03H
	DB	03H
	DB	03H
	DB	03H
	DB	03H
	DB	03H
	DB	03H
	DB	03H
	DB	03H
	DB	03H
	DB	03H
	DB	03H
	DB	03H
	DB	03H
	DB	03H
	DB	03H
	DB	03H
	DB	03H
	DB	03H
	DB	03H
	DB	03H
	DB	03H
	DB	03H
	DB	03H
	DB	03H
	DB	03H
	DB	03H
	DB	03H
	DB	03H
	DB	03H
	DB	03H
	DB	03H
	DB	03H
	DB	03H
	DB	03H
	DB	03H
	DB	03H
	DB	03H
	DB	03H
	DB	03H
	DB	03H
	DB	03H
	DB	03H
	DB	03H
	DB	03H
	DB	03H
	DB	03H
	DB	03H
	DB	03H
	DB	03H
	DB	03H
	DB	03H
	DB	03H
	DB	03H
	DB	03H
	DB	03H
	DB	03H
	DB	03H
	DB	03H
	DB	03H
	DB	03H
	DB	03H
	DB	03H
	DB	03H
	DB	03H
	DB	03H
	DB	03H
	DB	03H
	DB	03H
	DB	03H
	DB	03H
	DB	03H
	DB	03H
	DB	03H
	DB	03H
	DB	03H
	DB	03H
	DB	03H
	DB	03H
	DB	03H
	DB	03H
	DB	03H
	DB	03H
	DB	03H
	DB	03H
	DB	03H
	DB	03H
	DB	03H
	DB	03H
	DB	03H
	DB	03H
	DB	03H
	DB	03H
	DB	03H
	DB	03H
	DB	03H
	DB	03H
	DB	03H
	DB	03H
	DB	03H
	DB	03H
	DB	03H
	DB	03H
	DB	03H
	DB	03H
	DB	03H
	DB	03H
	DB	03H
	DB	03H
	DB	03H
	DB	03H
	DB	03H
	DB	03H
	DB	03H
	DB	03H
	DB	03H
	DB	03H
	DB	03H
	DB	03H
	DB	03H
	DB	03H
	DB	03H
	DB	03H
	DB	03H
	DB	03H
	DB	03H
	DB	03H
	DB	03H
	DB	03H
	DB	03H
	DB	03H
	DB	03H
	DB	03H
	DB	03H
	DB	03H
	DB	03H
	DB	03H
	DB	03H
	DB	03H
	DB	03H
	DB	03H
	DB	03H
	DB	03H
	DB	03H
	DB	03H
	DB	03H
	DB	03H
	DB	03H
	DB	03H
	DB	03H
	DB	03H
	DB	03H
	DB	03H
	DB	03H
	DB	03H
	DB	03H
	DB	03H
	DB	03H
	DB	03H
	DB	03H
	DB	03H
	DB	03H
	DB	03H
	DB	03H
	DB	03H
	DB	03H
	DB	03H
	DB	03H
	DB	03H
	DB	03H
	DB	03H
	DB	03H
	DB	03H
	DB	03H
	DB	03H
	DB	03H
	DB	03H
	DB	03H
	DB	03H
	DB	03H
	DB	03H
	DB	03H
	DB	03H
	DB	03H
	DB	03H
	DB	03H
	DB	03H
	DB	03H
	DB	03H
	DB	03H
	DB	03H
	DB	03H
	DB	03H
	DB	03H
	DB	03H
	DB	03H
	DB	03H
	DB	03H
	DB	03H
	DB	03H
	DB	03H
	DB	03H
	DB	03H
	DB	03H
	DB	03H
	DB	03H
	DB	03H
	DB	03H
	DB	03H
	DB	03H
	DB	03H
	DB	03H
	DB	03H
	DB	03H
	DB	03H
	DB	03H
	DB	03H
	DB	03H
	DB	03H
	DB	03H
	DB	03H
	DB	03H
	DB	03H
	DB	03H
	DB	03H
	DB	03H
	DB	03H
	DB	03H
	DB	03H
	DB	03H
	DB	03H
	DB	03H
	DB	03H
	DB	03H
	DB	03H
	DB	03H
	DB	03H
	DB	03H
	DB	03H
	DB	03H
	DB	03H
	DB	03H
	DB	03H
	DB	03H
	DB	03H
	DB	03H
	DB	03H
	DB	03H
	DB	03H
	DB	03H
	DB	03H
	DB	03H
	DB	03H
	DB	03H
	DB	03H
	DB	03H
	DB	03H
	DB	03H
	DB	03H
	DB	03H
	DB	03H
	DB	03H
	DB	03H
	DB	03H
	DB	03H
	DB	03H
	DB	03H
	DB	03H
	DB	03H
	DB	03H
	DB	03H
	DB	03H
	DB	03H
	DB	03H
	DB	03H
	DB	03H
	DB	03H
	DB	03H
	DB	03H
	DB	03H
	DB	03H
	DB	03H
	DB	03H
	DB	03H
	DB	03H
	DB	03H
	DB	03H
	DB	03H
	DB	03H
	DB	03H
	DB	03H
	DB	03H
	DB	03H
	DB	03H
	DB	03H
	DB	03H
	DB	03H
	DB	03H
	DB	03H
	DB	03H
	DB	03H
	DB	03H
	DB	03H
	DB	03H
	DB	03H
	DB	03H
	DB	03H
	DB	03H
	DB	03H
	DB	03H
	DB	03H
	DB	03H
	DB	03H
	DB	03H
	DB	03H
	DB	03H
	DB	03H
	DB	03H
	DB	03H
	DB	03H
	DB	03H
	DB	03H
	DB	03H
	DB	01aH
	DB	06H
	DB	05H
	DB	00H
	DB	00H
	DB	00H
	DB	00H
	DB	00H
	DB	00H
	DB	00H
	DB	00H
	DB	00H
	DB	00H
	DB	00H
	DB	01H
	DB	05aH
	DB	03H
	DB	03H
	DB	03H
	DB	03H
	DB	03H
	DB	03H
	DB	03H
	DB	03H
	DB	03H
	DB	03H
	DB	03H
	DB	03H
	DB	03H
	DB	03H
	DB	03H
	DB	03H
	DB	03H
	DB	03H
	DB	03H
	DB	03H
	DB	03H
	DB	03H
	DB	03H
	DB	03H
	DB	03H
	DB	03H
	DB	03H
	DB	03H
	DB	03H
	DB	03H
	DB	03H
	DB	03H
	DB	03H
	DB	03H
	DB	03H
	DB	03H
	DB	03H
	DB	03H
	DB	03H
	DB	03H
	DB	03H
	DB	03H
	DB	03H
	DB	03H
	DB	03H
	DB	03H
	DB	03H
	DB	03H
	DB	03H
	DB	03H
	DB	03H
	DB	03H
	DB	03H
	DB	03H
	DB	03H
	DB	03H
	DB	03H
	DB	03H
	DB	03H
	DB	03H
	DB	03H
	DB	03H
	DB	03H
	DB	03H
	DB	03H
	DB	03H
	DB	03H
	DB	03H
	DB	03H
	DB	03H
	DB	03H
	DB	03H
	DB	03H
	DB	03H
	DB	03H
	DB	03H
	DB	03H
	DB	03H
	DB	03H
	DB	03H
	DB	03H
	DB	03H
	DB	03H
	DB	03H
	DB	03H
	DB	03H
	DB	03H
	DB	03H
	DB	03H
	DB	03H
	DB	03H
	DB	03H
	DB	03H
	DB	03H
	DB	03H
	DB	03H
	DB	03H
	DB	03H
	DB	03H
	DB	03H
	DB	03H
	DB	03H
	DB	03H
	DB	03H
	DB	03H
	DB	03H
	DB	03H
	DB	03H
	DB	03H
	DB	03H
	DB	03H
	DB	03H
	DB	03H
	DB	03H
	DB	03H
	DB	03H
	DB	03H
	DB	03H
	DB	03H
	DB	03H
	DB	03H
	DB	03H
	DB	03H
	DB	03H
	DB	03H
	DB	03H
	DB	03H
	DB	03H
	DB	03H
	DB	03H
	DB	03H
	DB	03H
	DB	03H
	DB	03H
	DB	03H
	DB	03H
	DB	03H
	DB	03H
	DB	03H
	DB	03H
	DB	03H
	DB	03H
	DB	03H
	DB	03H
	DB	03H
	DB	03H
	DB	03H
	DB	03H
	DB	03H
	DB	03H
	DB	03H
	DB	03H
	DB	03H
	DB	03H
	DB	03H
	DB	03H
	DB	03H
	DB	03H
	DB	03H
	DB	03H
	DB	03H
	DB	03H
	DB	03H
	DB	03H
	DB	03H
	DB	03H
	DB	03H
	DB	03H
	DB	03H
	DB	03H
	DB	03H
	DB	03H
	DB	03H
	DB	03H
	DB	03H
	DB	03H
	DB	03H
	DB	03H
	DB	03H
	DB	03H
	DB	03H
	DB	03H
	DB	03H
	DB	03H
	DB	03H
	DB	03H
	DB	03H
	DB	03H
	DB	03H
	DB	03H
	DB	03H
	DB	03H
	DB	03H
	DB	03H
	DB	03H
	DB	03H
	DB	03H
	DB	03H
	DB	03H
	DB	03H
	DB	03H
	DB	03H
	DB	03H
	DB	03H
	DB	03H
	DB	03H
	DB	03H
	DB	03H
	DB	03H
	DB	03H
	DB	03H
	DB	03H
	DB	03H
	DB	03H
	DB	03H
	DB	03H
	DB	03H
	DB	03H
	DB	03H
	DB	03H
	DB	03H
	DB	03H
	DB	03H
	DB	03H
	DB	03H
	DB	03H
	DB	03H
	DB	03H
	DB	03H
	DB	03H
	DB	03H
	DB	03H
	DB	03H
	DB	03H
	DB	03H
	DB	03H
	DB	03H
	DB	03H
	DB	03H
	DB	03H
	DB	03H
	DB	03H
	DB	03H
	DB	03H
	DB	03H
	DB	03H
	DB	03H
	DB	03H
	DB	03H
	DB	03H
	DB	03H
	DB	03H
	DB	03H
	DB	03H
	DB	03H
	DB	03H
	DB	03H
	DB	03H
	DB	03H
	DB	03H
	DB	03H
	DB	03H
	DB	03H
	DB	03H
	DB	03H
	DB	03H
	DB	03H
	DB	03H
	DB	03H
	DB	03H
	DB	03H
	DB	03H
	DB	03H
	DB	03H
	DB	03H
	DB	03H
	DB	03H
	DB	03H
	DB	03H
	DB	03H
	DB	03H
	DB	03H
	DB	03H
	DB	03H
	DB	03H
	DB	03H
	DB	03H
	DB	03H
	DB	03H
	DB	03H
	DB	03H
	DB	03H
	DB	03H
	DB	03H
	DB	03H
	DB	03H
	DB	03H
	DB	03H
	DB	03H
	DB	03H
	DB	03H
	DB	03H
	DB	03H
	DB	03H
	DB	03H
	DB	03H
	DB	03H
	DB	03H
	DB	03H
	DB	03H
	DB	03H
	DB	03H
	DB	03H
	DB	03H
	DB	03H
	DB	03H
	DB	03H
	DB	03H
	DB	03H
	DB	03H
	DB	03H
	DB	03H
	DB	03H
	DB	03H
	DB	03H
	DB	03H
	DB	03H
	DB	03H
	DB	03H
	DB	03H
	DB	03H
	DB	03H
	DB	03H
	DB	03H
	DB	03H
	DB	03H
	DB	03H
	DB	03H
	DB	03H
	DB	03H
	DB	03H
	DB	03H
	DB	03H
	DB	03H
	DB	03H
	DB	03H
	DB	03H
	DB	03H
	DB	03H
	DB	03H
	DB	03H
	DB	03H
	DB	03H
	DB	03H
	DB	03H
	DB	03H
	DB	03H
	DB	03H
	DB	03H
	DB	03H
	DB	03H
	DB	03H
	DB	03H
	DB	03H
	DB	03H
	DB	03H
	DB	03H
	DB	03H
	DB	03H
	DB	03H
	DB	03H
	DB	03H
	DB	03H
	DB	03H
	DB	03H
	DB	03H
	DB	03H
	DB	03H
	DB	03H
	DB	03H
	DB	03H
	DB	03H
	DB	03H
	DB	03H
	DB	03H
	DB	03H
	DB	03H
	DB	03H
	DB	03H
	DB	03H
	DB	03H
	DB	03H
	DB	03H
	DB	03H
	DB	03H
	DB	03H
	DB	03H
	DB	03H
	DB	03H
	DB	03H
	DB	03H
	DB	03H
	DB	03H
	DB	03H
	DB	03H
	DB	03H
	DB	03H
	DB	03H
	DB	03H
	DB	03H
	DB	03H
	DB	03H
	DB	03H
	DB	03H
	DB	03H
	DB	03H
	DB	03H
	DB	03H
	DB	03H
	DB	03H
	DB	03H
	DB	03H
	DB	03H
	DB	03H
	DB	03H
	DB	03H
	DB	03H
	DB	03H
	DB	03H
	DB	03H
	DB	03H
	DB	03H
	DB	03H
	DB	03H
	DB	03H
	DB	03H
	DB	03H
	DB	03H
	DB	03H
	DB	03H
	DB	03H
	DB	03H
	DB	03H
	DB	03H
	DB	03H
	DB	03H
	DB	03H
	DB	03H
	DB	03H
	DB	03H
	DB	03H
	DB	03H
	DB	03H
	DB	03H
	DB	03H
	DB	03H
	DB	03H
	DB	03H
	DB	03H
	DB	03H
	DB	03H
	DB	03H
	DB	03H
	DB	03H
	DB	03H
	DB	05aH
	DB	05aH
	DB	0b3H
	DB	00H
	DB	00H
	DB	00H
	DB	00H
	DB	00H
	DB	00H
	DB	00H
	DB	00H
	DB	00H
	DB	05H
	DB	06H
	DB	018H
	DB	03H
	DB	03H
	DB	03H
	DB	03H
	DB	03H
	DB	03H
	DB	03H
	DB	03H
	DB	03H
	DB	03H
	DB	03H
	DB	03H
	DB	03H
	DB	03H
	DB	03H
	DB	03H
	DB	03H
	DB	03H
	DB	03H
	DB	03H
	DB	03H
	DB	03H
	DB	03H
	DB	03H
	DB	03H
	DB	03H
	DB	03H
	DB	03H
	DB	03H
	DB	03H
	DB	03H
	DB	03H
	DB	03H
	DB	03H
	DB	03H
	DB	03H
	DB	03H
	DB	03H
	DB	03H
	DB	03H
	DB	03H
	DB	03H
	DB	03H
	DB	03H
	DB	03H
	DB	03H
	DB	03H
	DB	03H
	DB	03H
	DB	03H
	DB	03H
	DB	03H
	DB	03H
	DB	03H
	DB	03H
	DB	03H
	DB	03H
	DB	03H
	DB	03H
	DB	03H
	DB	03H
	DB	03H
	DB	03H
	DB	03H
	DB	03H
	DB	03H
	DB	03H
	DB	03H
	DB	03H
	DB	03H
	DB	03H
	DB	03H
	DB	03H
	DB	03H
	DB	03H
	DB	03H
	DB	03H
	DB	03H
	DB	03H
	DB	03H
	DB	03H
	DB	03H
	DB	03H
	DB	03H
	DB	03H
	DB	03H
	DB	03H
	DB	03H
	DB	03H
	DB	03H
	DB	03H
	DB	03H
	DB	03H
	DB	03H
	DB	03H
	DB	03H
	DB	03H
	DB	03H
	DB	03H
	DB	03H
	DB	03H
	DB	03H
	DB	03H
	DB	03H
	DB	03H
	DB	03H
	DB	03H
	DB	03H
	DB	03H
	DB	03H
	DB	03H
	DB	03H
	DB	03H
	DB	03H
	DB	03H
	DB	03H
	DB	03H
	DB	03H
	DB	03H
	DB	03H
	DB	03H
	DB	03H
	DB	03H
	DB	03H
	DB	03H
	DB	03H
	DB	03H
	DB	03H
	DB	03H
	DB	03H
	DB	03H
	DB	03H
	DB	03H
	DB	03H
	DB	03H
	DB	03H
	DB	03H
	DB	03H
	DB	03H
	DB	03H
	DB	03H
	DB	03H
	DB	03H
	DB	03H
	DB	03H
	DB	03H
	DB	03H
	DB	03H
	DB	03H
	DB	03H
	DB	03H
	DB	03H
	DB	03H
	DB	03H
	DB	03H
	DB	03H
	DB	03H
	DB	03H
	DB	03H
	DB	03H
	DB	03H
	DB	03H
	DB	03H
	DB	03H
	DB	03H
	DB	03H
	DB	03H
	DB	03H
	DB	03H
	DB	03H
	DB	03H
	DB	03H
	DB	03H
	DB	03H
	DB	03H
	DB	03H
	DB	03H
	DB	03H
	DB	03H
	DB	03H
	DB	03H
	DB	03H
	DB	03H
	DB	03H
	DB	03H
	DB	03H
	DB	03H
	DB	03H
	DB	03H
	DB	03H
	DB	03H
	DB	03H
	DB	03H
	DB	03H
	DB	03H
	DB	03H
	DB	03H
	DB	03H
	DB	03H
	DB	03H
	DB	03H
	DB	03H
	DB	03H
	DB	03H
	DB	03H
	DB	03H
	DB	03H
	DB	03H
	DB	03H
	DB	03H
	DB	03H
	DB	03H
	DB	03H
	DB	03H
	DB	03H
	DB	03H
	DB	03H
	DB	03H
	DB	03H
	DB	03H
	DB	03H
	DB	03H
	DB	03H
	DB	02H
	DB	02H
	DB	02H
	DB	0c7H
	DB	0c7H
	DB	02H
	DB	02H
	DB	02H
	DB	03H
	DB	03H
	DB	03H
	DB	03H
	DB	03H
	DB	03H
	DB	03H
	DB	03H
	DB	03H
	DB	03H
	DB	03H
	DB	03H
	DB	03H
	DB	03H
	DB	03H
	DB	03H
	DB	03H
	DB	03H
	DB	03H
	DB	03H
	DB	03H
	DB	03H
	DB	03H
	DB	03H
	DB	03H
	DB	03H
	DB	03H
	DB	03H
	DB	03H
	DB	03H
	DB	03H
	DB	03H
	DB	03H
	DB	03H
	DB	03H
	DB	03H
	DB	03H
	DB	03H
	DB	03H
	DB	03H
	DB	03H
	DB	03H
	DB	03H
	DB	03H
	DB	03H
	DB	03H
	DB	03H
	DB	03H
	DB	03H
	DB	03H
	DB	03H
	DB	03H
	DB	03H
	DB	03H
	DB	03H
	DB	03H
	DB	03H
	DB	03H
	DB	03H
	DB	03H
	DB	03H
	DB	03H
	DB	03H
	DB	03H
	DB	03H
	DB	03H
	DB	03H
	DB	03H
	DB	03H
	DB	03H
	DB	03H
	DB	03H
	DB	03H
	DB	03H
	DB	03H
	DB	03H
	DB	03H
	DB	03H
	DB	03H
	DB	03H
	DB	03H
	DB	03H
	DB	03H
	DB	03H
	DB	03H
	DB	03H
	DB	03H
	DB	03H
	DB	03H
	DB	03H
	DB	03H
	DB	03H
	DB	03H
	DB	03H
	DB	03H
	DB	03H
	DB	03H
	DB	03H
	DB	03H
	DB	03H
	DB	03H
	DB	03H
	DB	03H
	DB	03H
	DB	03H
	DB	03H
	DB	03H
	DB	03H
	DB	03H
	DB	03H
	DB	03H
	DB	03H
	DB	03H
	DB	03H
	DB	03H
	DB	03H
	DB	03H
	DB	03H
	DB	03H
	DB	03H
	DB	03H
	DB	03H
	DB	03H
	DB	03H
	DB	03H
	DB	03H
	DB	03H
	DB	03H
	DB	03H
	DB	03H
	DB	03H
	DB	03H
	DB	03H
	DB	03H
	DB	03H
	DB	03H
	DB	03H
	DB	03H
	DB	03H
	DB	03H
	DB	03H
	DB	03H
	DB	03H
	DB	03H
	DB	03H
	DB	03H
	DB	03H
	DB	03H
	DB	03H
	DB	03H
	DB	03H
	DB	03H
	DB	03H
	DB	03H
	DB	03H
	DB	03H
	DB	03H
	DB	03H
	DB	03H
	DB	03H
	DB	03H
	DB	03H
	DB	03H
	DB	03H
	DB	03H
	DB	03H
	DB	03H
	DB	03H
	DB	03H
	DB	03H
	DB	03H
	DB	03H
	DB	03H
	DB	03H
	DB	03H
	DB	03H
	DB	03H
	DB	03H
	DB	03H
	DB	03H
	DB	03H
	DB	03H
	DB	03H
	DB	03H
	DB	03H
	DB	03H
	DB	03H
	DB	03H
	DB	03H
	DB	03H
	DB	03H
	DB	03H
	DB	03H
	DB	03H
	DB	03H
	DB	03H
	DB	03H
	DB	03H
	DB	03H
	DB	03H
	DB	03H
	DB	03H
	DB	03H
	DB	03H
	DB	03H
	DB	03H
	DB	03H
	DB	03H
	DB	03H
	DB	03H
	DB	03H
	DB	03H
	DB	03H
	DB	03H
	DB	03H
	DB	03H
	DB	03H
	DB	03H
	DB	03H
	DB	03H
	DB	03H
	DB	03H
	DB	03H
	DB	03H
	DB	03H
	DB	03H
	DB	03H
	DB	03H
	DB	03H
	DB	03H
	DB	03H
	DB	03H
	DB	03H
	DB	03H
	DB	018H
	DB	06H
	DB	0c2H
	DB	00H
	DB	00H
	DB	00H
	DB	00H
	DB	00H
	DB	00H
	DB	00H
	DB	00H
	DB	00H
	DB	0e0H
	DB	05aH
	DB	03H
	DB	03H
	DB	03H
	DB	03H
	DB	03H
	DB	03H
	DB	03H
	DB	03H
	DB	03H
	DB	03H
	DB	03H
	DB	03H
	DB	03H
	DB	03H
	DB	03H
	DB	03H
	DB	03H
	DB	03H
	DB	03H
	DB	03H
	DB	03H
	DB	03H
	DB	03H
	DB	03H
	DB	03H
	DB	03H
	DB	03H
	DB	03H
	DB	03H
	DB	03H
	DB	03H
	DB	03H
	DB	03H
	DB	03H
	DB	03H
	DB	03H
	DB	03H
	DB	03H
	DB	03H
	DB	03H
	DB	03H
	DB	03H
	DB	03H
	DB	03H
	DB	03H
	DB	03H
	DB	03H
	DB	03H
	DB	03H
	DB	03H
	DB	03H
	DB	03H
	DB	03H
	DB	03H
	DB	03H
	DB	03H
	DB	03H
	DB	03H
	DB	03H
	DB	03H
	DB	03H
	DB	03H
	DB	03H
	DB	03H
	DB	03H
	DB	03H
	DB	03H
	DB	03H
	DB	03H
	DB	03H
	DB	03H
	DB	03H
	DB	03H
	DB	03H
	DB	03H
	DB	03H
	DB	03H
	DB	03H
	DB	03H
	DB	03H
	DB	03H
	DB	03H
	DB	03H
	DB	03H
	DB	03H
	DB	03H
	DB	03H
	DB	03H
	DB	03H
	DB	03H
	DB	03H
	DB	03H
	DB	03H
	DB	03H
	DB	03H
	DB	03H
	DB	03H
	DB	03H
	DB	03H
	DB	03H
	DB	03H
	DB	03H
	DB	03H
	DB	03H
	DB	03H
	DB	03H
	DB	03H
	DB	03H
	DB	03H
	DB	03H
	DB	03H
	DB	03H
	DB	03H
	DB	03H
	DB	03H
	DB	03H
	DB	03H
	DB	03H
	DB	03H
	DB	03H
	DB	03H
	DB	03H
	DB	03H
	DB	03H
	DB	03H
	DB	03H
	DB	03H
	DB	03H
	DB	03H
	DB	03H
	DB	03H
	DB	03H
	DB	03H
	DB	03H
	DB	03H
	DB	03H
	DB	03H
	DB	03H
	DB	03H
	DB	03H
	DB	03H
	DB	03H
	DB	03H
	DB	03H
	DB	03H
	DB	03H
	DB	03H
	DB	03H
	DB	03H
	DB	03H
	DB	03H
	DB	03H
	DB	03H
	DB	03H
	DB	03H
	DB	03H
	DB	03H
	DB	03H
	DB	03H
	DB	03H
	DB	03H
	DB	03H
	DB	03H
	DB	03H
	DB	03H
	DB	03H
	DB	03H
	DB	03H
	DB	03H
	DB	03H
	DB	03H
	DB	03H
	DB	03H
	DB	03H
	DB	03H
	DB	03H
	DB	03H
	DB	03H
	DB	03H
	DB	03H
	DB	03H
	DB	03H
	DB	03H
	DB	03H
	DB	03H
	DB	03H
	DB	03H
	DB	03H
	DB	03H
	DB	03H
	DB	03H
	DB	03H
	DB	03H
	DB	03H
	DB	03H
	DB	03H
	DB	03H
	DB	03H
	DB	03H
	DB	03H
	DB	03H
	DB	03H
	DB	03H
	DB	03H
	DB	03H
	DB	03H
	DB	03H
	DB	03H
	DB	03H
	DB	03H
	DB	03H
	DB	03H
	DB	03H
	DB	03H
	DB	03H
	DB	03H
	DB	03H
	DB	03H
	DB	03H
	DB	03H
	DB	03H
	DB	02H
	DB	02fH
	DB	076H
	DB	095H
	DB	095H
	DB	095H
	DB	057H
	DB	062H
	DB	062H
	DB	095H
	DB	095H
	DB	02bH
	DB	02fH
	DB	02H
	DB	03H
	DB	03H
	DB	03H
	DB	03H
	DB	03H
	DB	03H
	DB	03H
	DB	03H
	DB	03H
	DB	03H
	DB	03H
	DB	03H
	DB	03H
	DB	03H
	DB	03H
	DB	03H
	DB	03H
	DB	03H
	DB	03H
	DB	03H
	DB	03H
	DB	03H
	DB	03H
	DB	03H
	DB	03H
	DB	03H
	DB	03H
	DB	03H
	DB	03H
	DB	03H
	DB	03H
	DB	03H
	DB	03H
	DB	03H
	DB	03H
	DB	03H
	DB	03H
	DB	03H
	DB	03H
	DB	03H
	DB	03H
	DB	03H
	DB	03H
	DB	03H
	DB	03H
	DB	03H
	DB	03H
	DB	03H
	DB	03H
	DB	03H
	DB	03H
	DB	03H
	DB	03H
	DB	03H
	DB	03H
	DB	03H
	DB	03H
	DB	03H
	DB	03H
	DB	03H
	DB	03H
	DB	03H
	DB	03H
	DB	03H
	DB	03H
	DB	03H
	DB	03H
	DB	03H
	DB	03H
	DB	03H
	DB	03H
	DB	03H
	DB	02H
	DB	02H
	DB	0aH
	DB	0aH
	DB	02H
	DB	02H
	DB	03H
	DB	03H
	DB	03H
	DB	02H
	DB	0aH
	DB	0aH
	DB	02H
	DB	03H
	DB	03H
	DB	03H
	DB	03H
	DB	03H
	DB	03H
	DB	03H
	DB	03H
	DB	03H
	DB	03H
	DB	03H
	DB	03H
	DB	03H
	DB	03H
	DB	03H
	DB	03H
	DB	03H
	DB	03H
	DB	03H
	DB	03H
	DB	03H
	DB	03H
	DB	03H
	DB	03H
	DB	03H
	DB	03H
	DB	03H
	DB	03H
	DB	03H
	DB	03H
	DB	03H
	DB	03H
	DB	03H
	DB	03H
	DB	03H
	DB	03H
	DB	03H
	DB	03H
	DB	03H
	DB	03H
	DB	03H
	DB	03H
	DB	03H
	DB	03H
	DB	03H
	DB	03H
	DB	03H
	DB	03H
	DB	03H
	DB	03H
	DB	03H
	DB	03H
	DB	03H
	DB	03H
	DB	03H
	DB	03H
	DB	03H
	DB	03H
	DB	03H
	DB	03H
	DB	03H
	DB	03H
	DB	03H
	DB	03H
	DB	03H
	DB	03H
	DB	03H
	DB	03H
	DB	03H
	DB	03H
	DB	03H
	DB	03H
	DB	03H
	DB	02H
	DB	0aH
	DB	0aH
	DB	02H
	DB	02H
	DB	03H
	DB	03H
	DB	03H
	DB	03H
	DB	03H
	DB	03H
	DB	03H
	DB	03H
	DB	03H
	DB	03H
	DB	03H
	DB	03H
	DB	03H
	DB	03H
	DB	03H
	DB	03H
	DB	03H
	DB	03H
	DB	03H
	DB	03H
	DB	03H
	DB	03H
	DB	03H
	DB	03H
	DB	03H
	DB	03H
	DB	03H
	DB	03H
	DB	03H
	DB	03H
	DB	03H
	DB	03H
	DB	03H
	DB	03H
	DB	03H
	DB	03H
	DB	03H
	DB	03H
	DB	03H
	DB	03H
	DB	03H
	DB	03H
	DB	03H
	DB	03H
	DB	03H
	DB	03H
	DB	03H
	DB	03H
	DB	03H
	DB	03H
	DB	03H
	DB	03H
	DB	03H
	DB	03H
	DB	03H
	DB	03H
	DB	03H
	DB	03H
	DB	03H
	DB	03H
	DB	03H
	DB	03H
	DB	03H
	DB	03H
	DB	03H
	DB	03H
	DB	03H
	DB	03H
	DB	03H
	DB	05aH
	DB	0e0H
	DB	00H
	DB	00H
	DB	00H
	DB	00H
	DB	00H
	DB	00H
	DB	00H
	DB	00H
	DB	00H
	DB	01H
	DB	01aH
	DB	03H
	DB	03H
	DB	03H
	DB	03H
	DB	03H
	DB	03H
	DB	03H
	DB	03H
	DB	03H
	DB	03H
	DB	03H
	DB	03H
	DB	03H
	DB	03H
	DB	03H
	DB	03H
	DB	03H
	DB	03H
	DB	03H
	DB	03H
	DB	03H
	DB	03H
	DB	03H
	DB	03H
	DB	03H
	DB	03H
	DB	03H
	DB	03H
	DB	03H
	DB	03H
	DB	03H
	DB	03H
	DB	03H
	DB	03H
	DB	03H
	DB	03H
	DB	03H
	DB	03H
	DB	03H
	DB	03H
	DB	03H
	DB	03H
	DB	03H
	DB	03H
	DB	03H
	DB	03H
	DB	03H
	DB	03H
	DB	03H
	DB	03H
	DB	03H
	DB	03H
	DB	03H
	DB	03H
	DB	03H
	DB	03H
	DB	03H
	DB	03H
	DB	03H
	DB	03H
	DB	03H
	DB	03H
	DB	03H
	DB	03H
	DB	03H
	DB	03H
	DB	03H
	DB	03H
	DB	03H
	DB	03H
	DB	03H
	DB	03H
	DB	03H
	DB	03H
	DB	03H
	DB	03H
	DB	03H
	DB	03H
	DB	03H
	DB	03H
	DB	03H
	DB	03H
	DB	03H
	DB	03H
	DB	03H
	DB	03H
	DB	03H
	DB	03H
	DB	03H
	DB	03H
	DB	03H
	DB	03H
	DB	03H
	DB	03H
	DB	03H
	DB	03H
	DB	03H
	DB	03H
	DB	03H
	DB	03H
	DB	03H
	DB	03H
	DB	03H
	DB	03H
	DB	03H
	DB	03H
	DB	03H
	DB	03H
	DB	03H
	DB	03H
	DB	03H
	DB	03H
	DB	03H
	DB	03H
	DB	03H
	DB	03H
	DB	03H
	DB	03H
	DB	03H
	DB	03H
	DB	03H
	DB	03H
	DB	03H
	DB	03H
	DB	03H
	DB	03H
	DB	03H
	DB	03H
	DB	03H
	DB	03H
	DB	03H
	DB	03H
	DB	03H
	DB	03H
	DB	03H
	DB	03H
	DB	03H
	DB	03H
	DB	03H
	DB	03H
	DB	03H
	DB	03H
	DB	03H
	DB	03H
	DB	03H
	DB	03H
	DB	03H
	DB	03H
	DB	03H
	DB	03H
	DB	03H
	DB	03H
	DB	03H
	DB	03H
	DB	03H
	DB	03H
	DB	03H
	DB	03H
	DB	03H
	DB	03H
	DB	03H
	DB	03H
	DB	03H
	DB	03H
	DB	03H
	DB	03H
	DB	03H
	DB	03H
	DB	03H
	DB	03H
	DB	03H
	DB	03H
	DB	03H
	DB	03H
	DB	03H
	DB	03H
	DB	03H
	DB	03H
	DB	03H
	DB	03H
	DB	03H
	DB	03H
	DB	03H
	DB	03H
	DB	03H
	DB	03H
	DB	03H
	DB	03H
	DB	03H
	DB	03H
	DB	03H
	DB	03H
	DB	03H
	DB	03H
	DB	03H
	DB	03H
	DB	03H
	DB	03H
	DB	03H
	DB	03H
	DB	03H
	DB	03H
	DB	03H
	DB	03H
	DB	02fH
	DB	02H
	DB	03H
	DB	03H
	DB	03H
	DB	03H
	DB	03H
	DB	03H
	DB	03H
	DB	03H
	DB	03H
	DB	03H
	DB	03H
	DB	03H
	DB	02H
	DB	02fH
	DB	062H
	DB	03eH
	DB	02dH
	DB	01bH
	DB	01bH
	DB	01bH
	DB	01bH
	DB	01bH
	DB	01bH
	DB	01bH
	DB	01bH
	DB	01bH
	DB	044H
	DB	03eH
	DB	0aeH
	DB	072H
	DB	02fH
	DB	02H
	DB	03H
	DB	03H
	DB	03H
	DB	03H
	DB	03H
	DB	03H
	DB	03H
	DB	03H
	DB	03H
	DB	03H
	DB	03H
	DB	03H
	DB	03H
	DB	03H
	DB	03H
	DB	03H
	DB	03H
	DB	03H
	DB	03H
	DB	03H
	DB	03H
	DB	03H
	DB	03H
	DB	03H
	DB	03H
	DB	03H
	DB	03H
	DB	03H
	DB	03H
	DB	03H
	DB	03H
	DB	03H
	DB	03H
	DB	03H
	DB	03H
	DB	03H
	DB	03H
	DB	03H
	DB	03H
	DB	03H
	DB	03H
	DB	03H
	DB	03H
	DB	03H
	DB	03H
	DB	03H
	DB	03H
	DB	03H
	DB	03H
	DB	03H
	DB	03H
	DB	03H
	DB	03H
	DB	03H
	DB	03H
	DB	03H
	DB	03H
	DB	03H
	DB	03H
	DB	03H
	DB	03H
	DB	03H
	DB	03H
	DB	03H
	DB	03H
	DB	03H
	DB	03H
	DB	0aH
	DB	016H
	DB	016H
	DB	04H
	DB	04H
	DB	04H
	DB	04H
	DB	0b3H
	DB	016H
	DB	02H
	DB	016H
	DB	04H
	DB	04H
	DB	04H
	DB	0b3H
	DB	0aH
	DB	03H
	DB	03H
	DB	03H
	DB	03H
	DB	03H
	DB	03H
	DB	03H
	DB	03H
	DB	03H
	DB	03H
	DB	03H
	DB	03H
	DB	03H
	DB	03H
	DB	03H
	DB	03H
	DB	03H
	DB	03H
	DB	03H
	DB	03H
	DB	03H
	DB	03H
	DB	03H
	DB	03H
	DB	03H
	DB	03H
	DB	03H
	DB	03H
	DB	03H
	DB	03H
	DB	03H
	DB	03H
	DB	03H
	DB	03H
	DB	03H
	DB	03H
	DB	03H
	DB	03H
	DB	03H
	DB	03H
	DB	03H
	DB	03H
	DB	03H
	DB	03H
	DB	03H
	DB	03H
	DB	03H
	DB	03H
	DB	03H
	DB	03H
	DB	03H
	DB	03H
	DB	03H
	DB	03H
	DB	03H
	DB	03H
	DB	03H
	DB	03H
	DB	03H
	DB	03H
	DB	03H
	DB	03H
	DB	03H
	DB	03H
	DB	03H
	DB	03H
	DB	03H
	DB	03H
	DB	03H
	DB	0aH
	DB	016H
	DB	016H
	DB	04H
	DB	04H
	DB	04H
	DB	04H
	DB	016H
	DB	016H
	DB	02H
	DB	03H
	DB	03H
	DB	03H
	DB	03H
	DB	03H
	DB	03H
	DB	03H
	DB	03H
	DB	03H
	DB	03H
	DB	03H
	DB	03H
	DB	03H
	DB	03H
	DB	03H
	DB	03H
	DB	03H
	DB	03H
	DB	03H
	DB	03H
	DB	03H
	DB	03H
	DB	03H
	DB	03H
	DB	03H
	DB	03H
	DB	03H
	DB	03H
	DB	03H
	DB	03H
	DB	03H
	DB	03H
	DB	03H
	DB	03H
	DB	03H
	DB	03H
	DB	03H
	DB	03H
	DB	03H
	DB	03H
	DB	03H
	DB	03H
	DB	03H
	DB	03H
	DB	03H
	DB	03H
	DB	03H
	DB	03H
	DB	03H
	DB	03H
	DB	03H
	DB	03H
	DB	03H
	DB	03H
	DB	03H
	DB	03H
	DB	03H
	DB	03H
	DB	03H
	DB	03H
	DB	03H
	DB	03H
	DB	03H
	DB	03H
	DB	03H
	DB	03H
	DB	03H
	DB	01aH
	DB	05aH
	DB	00H
	DB	00H
	DB	00H
	DB	00H
	DB	00H
	DB	00H
	DB	00H
	DB	00H
	DB	0b3H
	DB	01eH
	DB	01aH
	DB	03H
	DB	03H
	DB	03H
	DB	03H
	DB	03H
	DB	03H
	DB	03H
	DB	03H
	DB	03H
	DB	03H
	DB	03H
	DB	03H
	DB	03H
	DB	03H
	DB	03H
	DB	03H
	DB	03H
	DB	03H
	DB	02H
	DB	0aH
	DB	0aH
	DB	0aH
	DB	0aH
	DB	0aH
	DB	0aH
	DB	0aH
	DB	0aH
	DB	0aH
	DB	0aH
	DB	0aH
	DB	0aH
	DB	0aH
	DB	0aH
	DB	0aH
	DB	0aH
	DB	0aH
	DB	0aH
	DB	0aH
	DB	0aH
	DB	0aH
	DB	0aH
	DB	0aH
	DB	0aH
	DB	0aH
	DB	0aH
	DB	0aH
	DB	0aH
	DB	0aH
	DB	0aH
	DB	0aH
	DB	0aH
	DB	0aH
	DB	0aH
	DB	0aH
	DB	0aH
	DB	0aH
	DB	0aH
	DB	0aH
	DB	0aH
	DB	0aH
	DB	0aH
	DB	0aH
	DB	0aH
	DB	0aH
	DB	0aH
	DB	0aH
	DB	0aH
	DB	0aH
	DB	0aH
	DB	0aH
	DB	0aH
	DB	0aH
	DB	0aH
	DB	0aH
	DB	0aH
	DB	0aH
	DB	0aH
	DB	0aH
	DB	0aH
	DB	0aH
	DB	0aH
	DB	0aH
	DB	0aH
	DB	0aH
	DB	0aH
	DB	0aH
	DB	0aH
	DB	0aH
	DB	0aH
	DB	0aH
	DB	0aH
	DB	0aH
	DB	0aH
	DB	0aH
	DB	0aH
	DB	0aH
	DB	0aH
	DB	0aH
	DB	0aH
	DB	0aH
	DB	0aH
	DB	0aH
	DB	0aH
	DB	0aH
	DB	0aH
	DB	0aH
	DB	0aH
	DB	0aH
	DB	0aH
	DB	0aH
	DB	0aH
	DB	0aH
	DB	0aH
	DB	0aH
	DB	0aH
	DB	0aH
	DB	0aH
	DB	0aH
	DB	0aH
	DB	0aH
	DB	0aH
	DB	0aH
	DB	0aH
	DB	0aH
	DB	0aH
	DB	0aH
	DB	0aH
	DB	0aH
	DB	0aH
	DB	0aH
	DB	0aH
	DB	0aH
	DB	0aH
	DB	0aH
	DB	0aH
	DB	0aH
	DB	0aH
	DB	0aH
	DB	0aH
	DB	0aH
	DB	0aH
	DB	0aH
	DB	0aH
	DB	0aH
	DB	0aH
	DB	0aH
	DB	0aH
	DB	0aH
	DB	0aH
	DB	0aH
	DB	0aH
	DB	0aH
	DB	0aH
	DB	0aH
	DB	0aH
	DB	0aH
	DB	0aH
	DB	0aH
	DB	0aH
	DB	0aH
	DB	0aH
	DB	0aH
	DB	0aH
	DB	0aH
	DB	0aH
	DB	0aH
	DB	0aH
	DB	0aH
	DB	0aH
	DB	0aH
	DB	0aH
	DB	0aH
	DB	0aH
	DB	0aH
	DB	0aH
	DB	0aH
	DB	0aH
	DB	02H
	DB	03H
	DB	03H
	DB	03H
	DB	03H
	DB	03H
	DB	03H
	DB	03H
	DB	03H
	DB	03H
	DB	03H
	DB	03H
	DB	03H
	DB	03H
	DB	03H
	DB	03H
	DB	03H
	DB	03H
	DB	03H
	DB	03H
	DB	03H
	DB	03H
	DB	03H
	DB	03H
	DB	03H
	DB	03H
	DB	02aH
	DB	037H
	DB	04eH
	DB	02fH
	DB	03H
	DB	03H
	DB	03H
	DB	03H
	DB	03H
	DB	03H
	DB	03H
	DB	03H
	DB	03H
	DB	02H
	DB	076H
	DB	039H
	DB	01bH
	DB	015H
	DB	015H
	DB	015H
	DB	015H
	DB	015H
	DB	015H
	DB	015H
	DB	01bH
	DB	01bH
	DB	01bH
	DB	01bH
	DB	01bH
	DB	01bH
	DB	01bH
	DB	01bH
	DB	01bH
	DB	03eH
	DB	06bH
	DB	02fH
	DB	02H
	DB	03H
	DB	03H
	DB	03H
	DB	03H
	DB	03H
	DB	03H
	DB	03H
	DB	03H
	DB	03H
	DB	03H
	DB	03H
	DB	03H
	DB	03H
	DB	03H
	DB	03H
	DB	03H
	DB	03H
	DB	03H
	DB	03H
	DB	03H
	DB	03H
	DB	03H
	DB	03H
	DB	03H
	DB	03H
	DB	03H
	DB	03H
	DB	03H
	DB	03H
	DB	03H
	DB	03H
	DB	03H
	DB	03H
	DB	03H
	DB	03H
	DB	03H
	DB	03H
	DB	03H
	DB	03H
	DB	03H
	DB	03H
	DB	03H
	DB	03H
	DB	03H
	DB	03H
	DB	03H
	DB	03H
	DB	03H
	DB	03H
	DB	03H
	DB	03H
	DB	03H
	DB	03H
	DB	03H
	DB	03H
	DB	03H
	DB	03H
	DB	03H
	DB	03H
	DB	03H
	DB	03H
	DB	03H
	DB	03H
	DB	03H
	DB	0eH
	DB	03bH
	DB	06H
	DB	07cH
	DB	07H
	DB	07H
	DB	07H
	DB	07H
	DB	011H
	DB	06H
	DB	00H
	DB	088H
	DB	0deH
	DB	07H
	DB	07H
	DB	06H
	DB	0eH
	DB	03H
	DB	03H
	DB	03H
	DB	03H
	DB	03H
	DB	03H
	DB	03H
	DB	03H
	DB	03H
	DB	03H
	DB	03H
	DB	03H
	DB	03H
	DB	03H
	DB	03H
	DB	03H
	DB	03H
	DB	03H
	DB	03H
	DB	03H
	DB	03H
	DB	03H
	DB	03H
	DB	03H
	DB	03H
	DB	03H
	DB	03H
	DB	03H
	DB	03H
	DB	03H
	DB	03H
	DB	03H
	DB	03H
	DB	03H
	DB	03H
	DB	03H
	DB	03H
	DB	03H
	DB	03H
	DB	03H
	DB	03H
	DB	03H
	DB	03H
	DB	03H
	DB	03H
	DB	03H
	DB	03H
	DB	03H
	DB	03H
	DB	03H
	DB	03H
	DB	03H
	DB	03H
	DB	03H
	DB	03H
	DB	03H
	DB	03H
	DB	03H
	DB	03H
	DB	03H
	DB	03H
	DB	03H
	DB	03H
	DB	03H
	DB	03H
	DB	03H
	DB	03H
	DB	03H
	DB	016H
	DB	03bH
	DB	06H
	DB	0a9H
	DB	0deH
	DB	07H
	DB	07H
	DB	0deH
	DB	07cH
	DB	06H
	DB	00H
	DB	03H
	DB	03H
	DB	03H
	DB	03H
	DB	03H
	DB	03H
	DB	03H
	DB	03H
	DB	03H
	DB	03H
	DB	03H
	DB	03H
	DB	03H
	DB	03H
	DB	03H
	DB	03H
	DB	03H
	DB	03H
	DB	03H
	DB	03H
	DB	03H
	DB	03H
	DB	03H
	DB	03H
	DB	03H
	DB	03H
	DB	03H
	DB	03H
	DB	03H
	DB	03H
	DB	03H
	DB	03H
	DB	03H
	DB	03H
	DB	03H
	DB	03H
	DB	03H
	DB	03H
	DB	03H
	DB	03H
	DB	03H
	DB	03H
	DB	03H
	DB	03H
	DB	03H
	DB	03H
	DB	03H
	DB	03H
	DB	03H
	DB	03H
	DB	03H
	DB	03H
	DB	03H
	DB	03H
	DB	03H
	DB	03H
	DB	03H
	DB	03H
	DB	03H
	DB	03H
	DB	03H
	DB	03H
	DB	03H
	DB	03H
	DB	03H
	DB	03H
	DB	03H
	DB	01aH
	DB	01eH
	DB	0b3H
	DB	00H
	DB	00H
	DB	00H
	DB	00H
	DB	00H
	DB	00H
	DB	00H
	DB	04H
	DB	01eH
	DB	01aH
	DB	03H
	DB	03H
	DB	03H
	DB	03H
	DB	03H
	DB	03H
	DB	03H
	DB	03H
	DB	03H
	DB	03H
	DB	03H
	DB	03H
	DB	03H
	DB	03H
	DB	03H
	DB	03H
	DB	02H
	DB	016H
	DB	016H
	DB	04H
	DB	04H
	DB	04H
	DB	04H
	DB	04H
	DB	04H
	DB	04H
	DB	04H
	DB	03bH
	DB	03bH
	DB	03bH
	DB	03bH
	DB	03bH
	DB	03bH
	DB	03bH
	DB	03bH
	DB	03bH
	DB	03bH
	DB	03bH
	DB	03bH
	DB	03bH
	DB	03bH
	DB	04cH
	DB	04cH
	DB	00H
	DB	00H
	DB	00H
	DB	04cH
	DB	04cH
	DB	04cH
	DB	04cH
	DB	04cH
	DB	04cH
	DB	04cH
	DB	04cH
	DB	04cH
	DB	04cH
	DB	04cH
	DB	04cH
	DB	04cH
	DB	04cH
	DB	04cH
	DB	04cH
	DB	04cH
	DB	04cH
	DB	04cH
	DB	04cH
	DB	04cH
	DB	04cH
	DB	04cH
	DB	04cH
	DB	04cH
	DB	04cH
	DB	04cH
	DB	04cH
	DB	04cH
	DB	04cH
	DB	04cH
	DB	04cH
	DB	04cH
	DB	04cH
	DB	04cH
	DB	04cH
	DB	04cH
	DB	04cH
	DB	04cH
	DB	04cH
	DB	04cH
	DB	04cH
	DB	04cH
	DB	04cH
	DB	04cH
	DB	04cH
	DB	04cH
	DB	04cH
	DB	04cH
	DB	04cH
	DB	04cH
	DB	04cH
	DB	04cH
	DB	04cH
	DB	04cH
	DB	04cH
	DB	04cH
	DB	04cH
	DB	04cH
	DB	04cH
	DB	04cH
	DB	04cH
	DB	04cH
	DB	04cH
	DB	04cH
	DB	04cH
	DB	04cH
	DB	04cH
	DB	04cH
	DB	04cH
	DB	04cH
	DB	04cH
	DB	04cH
	DB	04cH
	DB	04cH
	DB	04cH
	DB	04cH
	DB	04cH
	DB	04cH
	DB	04cH
	DB	04cH
	DB	04cH
	DB	04cH
	DB	04cH
	DB	04cH
	DB	04cH
	DB	04cH
	DB	04cH
	DB	04cH
	DB	04cH
	DB	04cH
	DB	04cH
	DB	04cH
	DB	04cH
	DB	04cH
	DB	04cH
	DB	04cH
	DB	04cH
	DB	04cH
	DB	04cH
	DB	04cH
	DB	04cH
	DB	04cH
	DB	04cH
	DB	04cH
	DB	04cH
	DB	04cH
	DB	04cH
	DB	04cH
	DB	04cH
	DB	04cH
	DB	00H
	DB	00H
	DB	00H
	DB	04cH
	DB	04cH
	DB	04cH
	DB	03bH
	DB	03bH
	DB	03bH
	DB	03bH
	DB	03bH
	DB	03bH
	DB	03bH
	DB	03bH
	DB	03bH
	DB	03bH
	DB	03bH
	DB	03bH
	DB	03bH
	DB	03bH
	DB	0b3H
	DB	016H
	DB	0aH
	DB	03H
	DB	03H
	DB	03H
	DB	03H
	DB	03H
	DB	03H
	DB	03H
	DB	03H
	DB	03H
	DB	03H
	DB	03H
	DB	03H
	DB	03H
	DB	03H
	DB	03H
	DB	03H
	DB	03H
	DB	03H
	DB	03H
	DB	03H
	DB	03H
	DB	03H
	DB	019H
	DB	04eH
	DB	04eH
	DB	04eH
	DB	04eH
	DB	03H
	DB	03H
	DB	03H
	DB	03H
	DB	03H
	DB	03H
	DB	03H
	DB	03H
	DB	02fH
	DB	06bH
	DB	015H
	DB	01dH
	DB	015H
	DB	015H
	DB	015H
	DB	015H
	DB	015H
	DB	015H
	DB	015H
	DB	015H
	DB	015H
	DB	015H
	DB	015H
	DB	015H
	DB	01bH
	DB	01bH
	DB	01bH
	DB	01bH
	DB	01bH
	DB	01bH
	DB	01bH
	DB	01bH
	DB	03eH
	DB	072H
	DB	0c7H
	DB	0c7H
	DB	0c7H
	DB	02H
	DB	03H
	DB	03H
	DB	03H
	DB	03H
	DB	03H
	DB	03H
	DB	03H
	DB	03H
	DB	03H
	DB	03H
	DB	03H
	DB	03H
	DB	03H
	DB	03H
	DB	03H
	DB	03H
	DB	03H
	DB	03H
	DB	03H
	DB	03H
	DB	03H
	DB	03H
	DB	03H
	DB	03H
	DB	03H
	DB	03H
	DB	03H
	DB	03H
	DB	03H
	DB	03H
	DB	03H
	DB	03H
	DB	03H
	DB	03H
	DB	03H
	DB	03H
	DB	03H
	DB	03H
	DB	03H
	DB	03H
	DB	03H
	DB	03H
	DB	03H
	DB	03H
	DB	03H
	DB	03H
	DB	03H
	DB	03H
	DB	03H
	DB	03H
	DB	03H
	DB	03H
	DB	03H
	DB	03H
	DB	03H
	DB	03H
	DB	03H
	DB	03H
	DB	0eH
	DB	05H
	DB	011H
	DB	07H
	DB	07H
	DB	07H
	DB	07H
	DB	07H
	DB	07H
	DB	07H
	DB	0bH
	DB	00H
	DB	088H
	DB	0deH
	DB	07H
	DB	07H
	DB	06H
	DB	0eH
	DB	03H
	DB	03H
	DB	03H
	DB	03H
	DB	03H
	DB	03H
	DB	03H
	DB	03H
	DB	03H
	DB	03H
	DB	03H
	DB	03H
	DB	03H
	DB	03H
	DB	03H
	DB	03H
	DB	03H
	DB	03H
	DB	03H
	DB	03H
	DB	03H
	DB	03H
	DB	03H
	DB	03H
	DB	03H
	DB	03H
	DB	03H
	DB	03H
	DB	03H
	DB	03H
	DB	03H
	DB	03H
	DB	03H
	DB	03H
	DB	03H
	DB	03H
	DB	03H
	DB	03H
	DB	03H
	DB	03H
	DB	03H
	DB	03H
	DB	03H
	DB	03H
	DB	03H
	DB	03H
	DB	03H
	DB	03H
	DB	03H
	DB	03H
	DB	03H
	DB	03H
	DB	03H
	DB	03H
	DB	03H
	DB	03H
	DB	03H
	DB	03H
	DB	03H
	DB	03H
	DB	03H
	DB	03H
	DB	03H
	DB	03H
	DB	03H
	DB	03H
	DB	03H
	DB	016H
	DB	030H
	DB	011H
	DB	07H
	DB	07H
	DB	07H
	DB	07H
	DB	07H
	DB	07H
	DB	07H
	DB	0deH
	DB	00H
	DB	02H
	DB	03H
	DB	03H
	DB	03H
	DB	03H
	DB	03H
	DB	03H
	DB	03H
	DB	03H
	DB	03H
	DB	03H
	DB	03H
	DB	03H
	DB	03H
	DB	03H
	DB	03H
	DB	03H
	DB	03H
	DB	03H
	DB	03H
	DB	03H
	DB	03H
	DB	03H
	DB	03H
	DB	03H
	DB	03H
	DB	03H
	DB	03H
	DB	03H
	DB	03H
	DB	03H
	DB	03H
	DB	03H
	DB	03H
	DB	03H
	DB	03H
	DB	03H
	DB	03H
	DB	03H
	DB	03H
	DB	03H
	DB	03H
	DB	03H
	DB	03H
	DB	03H
	DB	03H
	DB	03H
	DB	03H
	DB	03H
	DB	03H
	DB	03H
	DB	03H
	DB	03H
	DB	03H
	DB	03H
	DB	03H
	DB	03H
	DB	03H
	DB	03H
	DB	03H
	DB	03H
	DB	03H
	DB	03H
	DB	03H
	DB	03H
	DB	03H
	DB	03H
	DB	01aH
	DB	01eH
	DB	0b3H
	DB	00H
	DB	00H
	DB	00H
	DB	00H
	DB	00H
	DB	00H
	DB	00H
	DB	04H
	DB	01eH
	DB	01aH
	DB	03H
	DB	03H
	DB	03H
	DB	03H
	DB	03H
	DB	03H
	DB	03H
	DB	03H
	DB	03H
	DB	03H
	DB	03H
	DB	03H
	DB	03H
	DB	03H
	DB	03H
	DB	0eH
	DB	0b3H
	DB	08H
	DB	01H
	DB	01H
	DB	0e0H
	DB	0e0H
	DB	0e0H
	DB	042H
	DB	042H
	DB	08H
	DB	08H
	DB	08H
	DB	08H
	DB	08H
	DB	0c2H
	DB	0c2H
	DB	0c2H
	DB	05H
	DB	05H
	DB	05H
	DB	05H
	DB	088H
	DB	088H
	DB	088H
	DB	088H
	DB	04H
	DB	04H
	DB	04H
	DB	04H
	DB	04H
	DB	04H
	DB	04H
	DB	04H
	DB	04H
	DB	0b3H
	DB	0b3H
	DB	0b3H
	DB	0b3H
	DB	0b3H
	DB	0b3H
	DB	0b3H
	DB	0b3H
	DB	0b3H
	DB	0b3H
	DB	0b3H
	DB	0b3H
	DB	0b3H
	DB	0b3H
	DB	0b3H
	DB	0b3H
	DB	0b3H
	DB	0b3H
	DB	0b3H
	DB	0b3H
	DB	0b3H
	DB	0b3H
	DB	0b3H
	DB	0b3H
	DB	0b3H
	DB	0b3H
	DB	0b3H
	DB	0b3H
	DB	0b3H
	DB	0b3H
	DB	0b3H
	DB	0b3H
	DB	0b3H
	DB	0b3H
	DB	0b3H
	DB	0b3H
	DB	0b3H
	DB	0b3H
	DB	0b3H
	DB	0b3H
	DB	0b3H
	DB	0b3H
	DB	0b3H
	DB	0b3H
	DB	0b3H
	DB	0b3H
	DB	0b3H
	DB	0b3H
	DB	0b3H
	DB	0b3H
	DB	0b3H
	DB	0b3H
	DB	0b3H
	DB	0b3H
	DB	0b3H
	DB	0b3H
	DB	0b3H
	DB	0b3H
	DB	0b3H
	DB	0b3H
	DB	0b3H
	DB	0b3H
	DB	0b3H
	DB	0b3H
	DB	0b3H
	DB	0b3H
	DB	0b3H
	DB	0b3H
	DB	0b3H
	DB	0b3H
	DB	0b3H
	DB	0b3H
	DB	0b3H
	DB	0b3H
	DB	0b3H
	DB	0b3H
	DB	0b3H
	DB	0b3H
	DB	0b3H
	DB	0b3H
	DB	0b3H
	DB	0b3H
	DB	0b3H
	DB	0b3H
	DB	0b3H
	DB	0b3H
	DB	0b3H
	DB	0b3H
	DB	0b3H
	DB	0b3H
	DB	0b3H
	DB	0b3H
	DB	0b3H
	DB	0b3H
	DB	0b3H
	DB	0b3H
	DB	0b3H
	DB	0b3H
	DB	0b3H
	DB	0b3H
	DB	0b3H
	DB	0b3H
	DB	04H
	DB	04H
	DB	04H
	DB	04H
	DB	04H
	DB	04H
	DB	04H
	DB	04H
	DB	04H
	DB	04H
	DB	088H
	DB	088H
	DB	088H
	DB	088H
	DB	05H
	DB	05H
	DB	05H
	DB	05H
	DB	0c2H
	DB	0c2H
	DB	0c2H
	DB	0c2H
	DB	08H
	DB	08H
	DB	08H
	DB	08H
	DB	070H
	DB	03bH
	DB	016H
	DB	02H
	DB	03H
	DB	03H
	DB	03H
	DB	03H
	DB	03H
	DB	03H
	DB	03H
	DB	03H
	DB	03H
	DB	03H
	DB	03H
	DB	03H
	DB	03H
	DB	03H
	DB	03H
	DB	03H
	DB	03H
	DB	03H
	DB	03H
	DB	02H
	DB	02aH
	DB	04eH
	DB	04eH
	DB	04eH
	DB	04eH
	DB	02H
	DB	03H
	DB	03H
	DB	03H
	DB	03H
	DB	03H
	DB	03H
	DB	055H
	DB	02dH
	DB	01dH
	DB	01dH
	DB	01dH
	DB	015H
	DB	01dH
	DB	015H
	DB	015H
	DB	015H
	DB	015H
	DB	015H
	DB	015H
	DB	015H
	DB	015H
	DB	01bH
	DB	01bH
	DB	01bH
	DB	01bH
	DB	01bH
	DB	044H
	DB	01bH
	DB	01bH
	DB	01bH
	DB	01bH
	DB	015H
	DB	01bH
	DB	039H
	DB	075H
	DB	047H
	DB	03fH
	DB	0aeH
	DB	062H
	DB	055H
	DB	02H
	DB	03H
	DB	03H
	DB	03H
	DB	03H
	DB	03H
	DB	03H
	DB	03H
	DB	03H
	DB	03H
	DB	03H
	DB	03H
	DB	03H
	DB	03H
	DB	03H
	DB	03H
	DB	03H
	DB	03H
	DB	03H
	DB	03H
	DB	03H
	DB	03H
	DB	03H
	DB	03H
	DB	03H
	DB	03H
	DB	03H
	DB	03H
	DB	03H
	DB	03H
	DB	03H
	DB	03H
	DB	03H
	DB	03H
	DB	03H
	DB	03H
	DB	03H
	DB	03H
	DB	03H
	DB	03H
	DB	03H
	DB	03H
	DB	03H
	DB	03H
	DB	03H
	DB	03H
	DB	03H
	DB	03H
	DB	03H
	DB	03H
	DB	03H
	DB	03H
	DB	03H
	DB	03H
	DB	0aH
	DB	088H
	DB	011H
	DB	07H
	DB	07H
	DB	07H
	DB	011H
	DB	0f8H
	DB	06H
	DB	069H
	DB	0bH
	DB	01eH
	DB	016H
	DB	088H
	DB	0deH
	DB	07H
	DB	07H
	DB	06H
	DB	0eH
	DB	03H
	DB	0aH
	DB	0aH
	DB	0aH
	DB	03H
	DB	03H
	DB	03H
	DB	03H
	DB	03H
	DB	03H
	DB	03H
	DB	03H
	DB	02H
	DB	0aH
	DB	0aH
	DB	0aH
	DB	02H
	DB	03H
	DB	03H
	DB	03H
	DB	03H
	DB	03H
	DB	03H
	DB	03H
	DB	03H
	DB	03H
	DB	02H
	DB	0aH
	DB	0aH
	DB	0aH
	DB	02H
	DB	03H
	DB	03H
	DB	03H
	DB	03H
	DB	03H
	DB	03H
	DB	03H
	DB	03H
	DB	02H
	DB	0aH
	DB	0aH
	DB	0aH
	DB	02H
	DB	03H
	DB	03H
	DB	03H
	DB	03H
	DB	03H
	DB	03H
	DB	03H
	DB	02H
	DB	0aH
	DB	0aH
	DB	0aH
	DB	03H
	DB	03H
	DB	03H
	DB	03H
	DB	03H
	DB	03H
	DB	03H
	DB	03H
	DB	03H
	DB	03H
	DB	03H
	DB	0eH
	DB	070H
	DB	0deH
	DB	07H
	DB	07H
	DB	07H
	DB	011H
	DB	069H
	DB	06H
	DB	0f8H
	DB	011H
	DB	0bH
	DB	016H
	DB	03H
	DB	03H
	DB	03H
	DB	03H
	DB	03H
	DB	03H
	DB	02H
	DB	0aH
	DB	0aH
	DB	0aH
	DB	02H
	DB	03H
	DB	03H
	DB	03H
	DB	03H
	DB	03H
	DB	02H
	DB	02H
	DB	02H
	DB	02H
	DB	03H
	DB	03H
	DB	03H
	DB	03H
	DB	02H
	DB	02H
	DB	02H
	DB	02H
	DB	03H
	DB	03H
	DB	03H
	DB	03H
	DB	03H
	DB	02H
	DB	0aH
	DB	0aH
	DB	02H
	DB	03H
	DB	02H
	DB	02H
	DB	02H
	DB	02H
	DB	03H
	DB	03H
	DB	03H
	DB	03H
	DB	03H
	DB	03H
	DB	02H
	DB	0aH
	DB	0aH
	DB	0aH
	DB	03H
	DB	03H
	DB	03H
	DB	03H
	DB	03H
	DB	03H
	DB	03H
	DB	03H
	DB	03H
	DB	03H
	DB	03H
	DB	03H
	DB	03H
	DB	03H
	DB	03H
	DB	01aH
	DB	01eH
	DB	0b3H
	DB	00H
	DB	00H
	DB	00H
	DB	00H
	DB	00H
	DB	00H
	DB	00H
	DB	04H
	DB	01eH
	DB	01aH
	DB	03H
	DB	03H
	DB	03H
	DB	03H
	DB	03H
	DB	03H
	DB	03H
	DB	03H
	DB	03H
	DB	03H
	DB	03H
	DB	03H
	DB	03H
	DB	03H
	DB	016H
	DB	088H
	DB	01H
	DB	01H
	DB	08H
	DB	0c2H
	DB	0c2H
	DB	0c2H
	DB	05H
	DB	05H
	DB	05H
	DB	05H
	DB	05H
	DB	05H
	DB	05H
	DB	088H
	DB	088H
	DB	088H
	DB	088H
	DB	088H
	DB	04H
	DB	04H
	DB	04H
	DB	04H
	DB	04H
	DB	04H
	DB	04H
	DB	0b3H
	DB	0b3H
	DB	0b3H
	DB	0b3H
	DB	0b3H
	DB	0b3H
	DB	0b3H
	DB	00H
	DB	00H
	DB	00H
	DB	00H
	DB	00H
	DB	00H
	DB	00H
	DB	00H
	DB	00H
	DB	00H
	DB	00H
	DB	00H
	DB	00H
	DB	00H
	DB	00H
	DB	00H
	DB	00H
	DB	00H
	DB	00H
	DB	00H
	DB	00H
	DB	00H
	DB	00H
	DB	00H
	DB	00H
	DB	00H
	DB	00H
	DB	00H
	DB	00H
	DB	00H
	DB	00H
	DB	00H
	DB	00H
	DB	00H
	DB	00H
	DB	00H
	DB	00H
	DB	00H
	DB	00H
	DB	00H
	DB	00H
	DB	00H
	DB	00H
	DB	00H
	DB	00H
	DB	00H
	DB	00H
	DB	00H
	DB	00H
	DB	00H
	DB	00H
	DB	00H
	DB	00H
	DB	00H
	DB	00H
	DB	00H
	DB	00H
	DB	00H
	DB	00H
	DB	00H
	DB	00H
	DB	00H
	DB	00H
	DB	00H
	DB	00H
	DB	00H
	DB	00H
	DB	00H
	DB	00H
	DB	00H
	DB	00H
	DB	00H
	DB	00H
	DB	00H
	DB	00H
	DB	00H
	DB	00H
	DB	00H
	DB	00H
	DB	00H
	DB	00H
	DB	00H
	DB	00H
	DB	00H
	DB	00H
	DB	00H
	DB	00H
	DB	00H
	DB	00H
	DB	00H
	DB	00H
	DB	00H
	DB	00H
	DB	00H
	DB	00H
	DB	00H
	DB	00H
	DB	00H
	DB	00H
	DB	00H
	DB	00H
	DB	00H
	DB	00H
	DB	00H
	DB	00H
	DB	00H
	DB	0b3H
	DB	0b3H
	DB	0b3H
	DB	0b3H
	DB	0b3H
	DB	0b3H
	DB	0b3H
	DB	0b3H
	DB	04H
	DB	04H
	DB	04H
	DB	04H
	DB	04H
	DB	04H
	DB	04H
	DB	04H
	DB	088H
	DB	088H
	DB	088H
	DB	088H
	DB	088H
	DB	088H
	DB	05H
	DB	05H
	DB	0c2H
	DB	08H
	DB	088H
	DB	00H
	DB	02H
	DB	03H
	DB	03H
	DB	03H
	DB	03H
	DB	03H
	DB	03H
	DB	03H
	DB	03H
	DB	03H
	DB	03H
	DB	03H
	DB	03H
	DB	03H
	DB	03H
	DB	03H
	DB	02H
	DB	0c6H
	DB	04bH
	DB	051H
	DB	051H
	DB	04eH
	DB	02aH
	DB	04eH
	DB	023H
	DB	02H
	DB	02H
	DB	03H
	DB	03H
	DB	03H
	DB	03H
	DB	072H
	DB	015H
	DB	01dH
	DB	01dH
	DB	01dH
	DB	01dH
	DB	01dH
	DB	015H
	DB	015H
	DB	015H
	DB	015H
	DB	015H
	DB	015H
	DB	015H
	DB	01bH
	DB	01bH
	DB	01bH
	DB	01bH
	DB	01bH
	DB	01bH
	DB	01bH
	DB	01bH
	DB	01bH
	DB	044H
	DB	01bH
	DB	01bH
	DB	01bH
	DB	01bH
	DB	01bH
	DB	02dH
	DB	02dH
	DB	015H
	DB	015H
	DB	02dH
	DB	02dH
	DB	062H
	DB	055H
	DB	03H
	DB	03H
	DB	03H
	DB	03H
	DB	03H
	DB	03H
	DB	03H
	DB	03H
	DB	03H
	DB	03H
	DB	03H
	DB	03H
	DB	03H
	DB	03H
	DB	03H
	DB	03H
	DB	03H
	DB	03H
	DB	03H
	DB	03H
	DB	03H
	DB	03H
	DB	03H
	DB	03H
	DB	03H
	DB	03H
	DB	03H
	DB	03H
	DB	03H
	DB	03H
	DB	03H
	DB	03H
	DB	03H
	DB	03H
	DB	03H
	DB	03H
	DB	03H
	DB	03H
	DB	03H
	DB	03H
	DB	03H
	DB	03H
	DB	03H
	DB	03H
	DB	03H
	DB	03H
	DB	03H
	DB	03H
	DB	03H
	DB	03H
	DB	03H
	DB	02H
	DB	00H
	DB	0bH
	DB	07H
	DB	07H
	DB	07H
	DB	0bH
	DB	0b3H
	DB	016H
	DB	016H
	DB	016H
	DB	016H
	DB	016H
	DB	0aH
	DB	088H
	DB	0deH
	DB	07H
	DB	07H
	DB	06H
	DB	00H
	DB	00H
	DB	088H
	DB	042H
	DB	05H
	DB	00H
	DB	0aH
	DB	03H
	DB	03H
	DB	03H
	DB	03H
	DB	0aH
	DB	016H
	DB	0b3H
	DB	08H
	DB	042H
	DB	08H
	DB	0b3H
	DB	016H
	DB	0aH
	DB	03H
	DB	03H
	DB	03H
	DB	03H
	DB	03H
	DB	0aH
	DB	016H
	DB	0b3H
	DB	0c2H
	DB	042H
	DB	08H
	DB	0b3H
	DB	016H
	DB	0eH
	DB	03H
	DB	03H
	DB	03H
	DB	03H
	DB	0aH
	DB	016H
	DB	00H
	DB	0c2H
	DB	042H
	DB	0c2H
	DB	0b3H
	DB	016H
	DB	0aH
	DB	03H
	DB	03H
	DB	03H
	DB	0eH
	DB	00H
	DB	04H
	DB	08H
	DB	08H
	DB	05H
	DB	00H
	DB	0eH
	DB	02H
	DB	03H
	DB	03H
	DB	03H
	DB	03H
	DB	03H
	DB	03H
	DB	03H
	DB	02H
	DB	00H
	DB	07cH
	DB	07H
	DB	07H
	DB	07H
	DB	0f8H
	DB	00H
	DB	016H
	DB	016H
	DB	016H
	DB	00H
	DB	03bH
	DB	0eH
	DB	03H
	DB	03H
	DB	03H
	DB	0aH
	DB	016H
	DB	00H
	DB	0b3H
	DB	08H
	DB	042H
	DB	08H
	DB	00H
	DB	016H
	DB	0aH
	DB	03H
	DB	03H
	DB	0aH
	DB	0b3H
	DB	088H
	DB	088H
	DB	04H
	DB	0eH
	DB	03H
	DB	03H
	DB	016H
	DB	04H
	DB	088H
	DB	088H
	DB	0b3H
	DB	02H
	DB	03H
	DB	03H
	DB	02H
	DB	016H
	DB	00H
	DB	08H
	DB	08H
	DB	0b3H
	DB	00H
	DB	04H
	DB	088H
	DB	088H
	DB	03bH
	DB	0eH
	DB	03H
	DB	03H
	DB	03H
	DB	0eH
	DB	00H
	DB	04H
	DB	08H
	DB	042H
	DB	05H
	DB	00H
	DB	016H
	DB	02H
	DB	03H
	DB	03H
	DB	03H
	DB	03H
	DB	03H
	DB	03H
	DB	03H
	DB	03H
	DB	03H
	DB	03H
	DB	03H
	DB	03H
	DB	01aH
	DB	01eH
	DB	0b3H
	DB	00H
	DB	00H
	DB	00H
	DB	00H
	DB	00H
	DB	00H
	DB	00H
	DB	04H
	DB	01eH
	DB	01aH
	DB	03H
	DB	03H
	DB	03H
	DB	03H
	DB	03H
	DB	03H
	DB	03H
	DB	03H
	DB	03H
	DB	03H
	DB	03H
	DB	03H
	DB	03H
	DB	016H
	DB	05H
	DB	05aH
	DB	042H
	DB	0c2H
	DB	08H
	DB	0c2H
	DB	0c2H
	DB	0c2H
	DB	0c2H
	DB	0c2H
	DB	0c2H
	DB	05H
	DB	05H
	DB	05H
	DB	05H
	DB	05H
	DB	088H
	DB	088H
	DB	088H
	DB	088H
	DB	088H
	DB	04H
	DB	04H
	DB	04H
	DB	04H
	DB	04H
	DB	04H
	DB	04H
	DB	0b3H
	DB	0b3H
	DB	0b3H
	DB	0b3H
	DB	0b3H
	DB	0b3H
	DB	0b3H
	DB	0b3H
	DB	00H
	DB	00H
	DB	00H
	DB	00H
	DB	00H
	DB	00H
	DB	00H
	DB	00H
	DB	00H
	DB	00H
	DB	00H
	DB	00H
	DB	00H
	DB	00H
	DB	00H
	DB	00H
	DB	00H
	DB	00H
	DB	00H
	DB	00H
	DB	00H
	DB	00H
	DB	00H
	DB	00H
	DB	00H
	DB	00H
	DB	00H
	DB	00H
	DB	00H
	DB	00H
	DB	00H
	DB	00H
	DB	00H
	DB	00H
	DB	00H
	DB	00H
	DB	00H
	DB	00H
	DB	00H
	DB	00H
	DB	00H
	DB	00H
	DB	00H
	DB	00H
	DB	00H
	DB	00H
	DB	00H
	DB	00H
	DB	00H
	DB	00H
	DB	00H
	DB	00H
	DB	00H
	DB	00H
	DB	00H
	DB	00H
	DB	00H
	DB	00H
	DB	00H
	DB	00H
	DB	00H
	DB	00H
	DB	00H
	DB	00H
	DB	00H
	DB	00H
	DB	00H
	DB	00H
	DB	00H
	DB	00H
	DB	00H
	DB	00H
	DB	00H
	DB	00H
	DB	00H
	DB	00H
	DB	00H
	DB	00H
	DB	00H
	DB	00H
	DB	00H
	DB	00H
	DB	00H
	DB	00H
	DB	00H
	DB	00H
	DB	00H
	DB	00H
	DB	00H
	DB	00H
	DB	00H
	DB	00H
	DB	00H
	DB	00H
	DB	00H
	DB	00H
	DB	00H
	DB	00H
	DB	00H
	DB	00H
	DB	00H
	DB	00H
	DB	00H
	DB	0b3H
	DB	0b3H
	DB	0b3H
	DB	0b3H
	DB	0b3H
	DB	0b3H
	DB	0b3H
	DB	0b3H
	DB	04H
	DB	04H
	DB	04H
	DB	04H
	DB	04H
	DB	04H
	DB	04H
	DB	088H
	DB	088H
	DB	088H
	DB	088H
	DB	088H
	DB	088H
	DB	05H
	DB	05H
	DB	05H
	DB	05H
	DB	05H
	DB	0c2H
	DB	08H
	DB	088H
	DB	016H
	DB	03H
	DB	03H
	DB	03H
	DB	03H
	DB	03H
	DB	03H
	DB	03H
	DB	03H
	DB	03H
	DB	03H
	DB	03H
	DB	03H
	DB	02H
	DB	02H
	DB	023H
	DB	051H
	DB	01cH
	DB	051H
	DB	051H
	DB	04eH
	DB	02aH
	DB	04eH
	DB	04eH
	DB	02H
	DB	02H
	DB	02H
	DB	02H
	DB	03H
	DB	03H
	DB	072H
	DB	015H
	DB	015H
	DB	015H
	DB	01dH
	DB	01dH
	DB	015H
	DB	01dH
	DB	01dH
	DB	015H
	DB	015H
	DB	015H
	DB	015H
	DB	015H
	DB	015H
	DB	01bH
	DB	01bH
	DB	01bH
	DB	01bH
	DB	01bH
	DB	01bH
	DB	044H
	DB	044H
	DB	01bH
	DB	044H
	DB	01bH
	DB	01bH
	DB	01bH
	DB	01bH
	DB	01bH
	DB	01bH
	DB	01bH
	DB	02dH
	DB	015H
	DB	0cbH
	DB	02dH
	DB	01bH
	DB	045H
	DB	072H
	DB	03H
	DB	03H
	DB	03H
	DB	03H
	DB	03H
	DB	03H
	DB	03H
	DB	03H
	DB	03H
	DB	03H
	DB	03H
	DB	03H
	DB	03H
	DB	03H
	DB	03H
	DB	03H
	DB	03H
	DB	03H
	DB	03H
	DB	03H
	DB	03H
	DB	03H
	DB	03H
	DB	03H
	DB	03H
	DB	03H
	DB	03H
	DB	03H
	DB	03H
	DB	03H
	DB	03H
	DB	03H
	DB	03H
	DB	03H
	DB	03H
	DB	03H
	DB	03H
	DB	03H
	DB	03H
	DB	03H
	DB	03H
	DB	03H
	DB	03H
	DB	03H
	DB	03H
	DB	03H
	DB	03H
	DB	03H
	DB	03H
	DB	03H
	DB	0aH
	DB	030H
	DB	07H
	DB	07H
	DB	07H
	DB	011H
	DB	0b3H
	DB	0eH
	DB	02H
	DB	02H
	DB	02H
	DB	02H
	DB	02H
	DB	0aH
	DB	088H
	DB	0deH
	DB	07H
	DB	07H
	DB	01eH
	DB	0c2H
	DB	07cH
	DB	0deH
	DB	07H
	DB	07H
	DB	0bH
	DB	00H
	DB	0aH
	DB	03H
	DB	03H
	DB	016H
	DB	088H
	DB	09H
	DB	0deH
	DB	07H
	DB	07H
	DB	07H
	DB	0deH
	DB	077H
	DB	05H
	DB	016H
	DB	03H
	DB	03H
	DB	03H
	DB	0eH
	DB	04H
	DB	0f8H
	DB	0deH
	DB	07H
	DB	07H
	DB	07H
	DB	0deH
	DB	0bH
	DB	08H
	DB	016H
	DB	02H
	DB	03H
	DB	0aH
	DB	00H
	DB	069H
	DB	0deH
	DB	07H
	DB	07H
	DB	07H
	DB	0deH
	DB	09H
	DB	00H
	DB	03H
	DB	03H
	DB	016H
	DB	08H
	DB	0bH
	DB	0deH
	DB	07H
	DB	07H
	DB	07H
	DB	07cH
	DB	01H
	DB	00H
	DB	02H
	DB	03H
	DB	03H
	DB	03H
	DB	03H
	DB	03H
	DB	03H
	DB	0aH
	DB	08H
	DB	07H
	DB	07H
	DB	07H
	DB	07cH
	DB	00H
	DB	0aH
	DB	02H
	DB	02H
	DB	02H
	DB	0aH
	DB	0aH
	DB	02H
	DB	03H
	DB	03H
	DB	02H
	DB	0b3H
	DB	06H
	DB	011H
	DB	0deH
	DB	07H
	DB	07H
	DB	07H
	DB	0deH
	DB	0f8H
	DB	0b3H
	DB	0aH
	DB	03H
	DB	016H
	DB	069H
	DB	0deH
	DB	0deH
	DB	011H
	DB	00H
	DB	03H
	DB	02H
	DB	04H
	DB	0ffH
	DB	0deH
	DB	0deH
	DB	01eH
	DB	0eH
	DB	03H
	DB	02H
	DB	00H
	DB	06H
	DB	0deH
	DB	07H
	DB	07H
	DB	0deH
	DB	01eH
	DB	0bH
	DB	0deH
	DB	0deH
	DB	09H
	DB	016H
	DB	03H
	DB	03H
	DB	016H
	DB	030H
	DB	0bH
	DB	0deH
	DB	07H
	DB	07H
	DB	07H
	DB	011H
	DB	01H
	DB	00H
	DB	02H
	DB	03H
	DB	03H
	DB	03H
	DB	03H
	DB	03H
	DB	03H
	DB	03H
	DB	03H
	DB	03H
	DB	03H
	DB	03H
	DB	01aH
	DB	01eH
	DB	0b3H
	DB	00H
	DB	00H
	DB	00H
	DB	00H
	DB	00H
	DB	00H
	DB	00H
	DB	04H
	DB	01eH
	DB	01aH
	DB	03H
	DB	03H
	DB	03H
	DB	03H
	DB	03H
	DB	03H
	DB	03H
	DB	03H
	DB	03H
	DB	03H
	DB	03H
	DB	03H
	DB	0eH
	DB	03bH
	DB	01H
	DB	042H
	DB	08H
	DB	08H
	DB	08H
	DB	08H
	DB	0c2H
	DB	0c2H
	DB	0c2H
	DB	0c2H
	DB	0c2H
	DB	05H
	DB	05H
	DB	05H
	DB	05H
	DB	05H
	DB	05H
	DB	088H
	DB	088H
	DB	088H
	DB	088H
	DB	088H
	DB	04H
	DB	04H
	DB	04H
	DB	04H
	DB	04H
	DB	04H
	DB	04H
	DB	0b3H
	DB	0b3H
	DB	0b3H
	DB	0b3H
	DB	0b3H
	DB	0b3H
	DB	0b3H
	DB	0b3H
	DB	00H
	DB	00H
	DB	00H
	DB	00H
	DB	00H
	DB	00H
	DB	00H
	DB	00H
	DB	00H
	DB	00H
	DB	00H
	DB	00H
	DB	00H
	DB	00H
	DB	00H
	DB	00H
	DB	00H
	DB	00H
	DB	00H
	DB	00H
	DB	00H
	DB	00H
	DB	00H
	DB	00H
	DB	00H
	DB	00H
	DB	00H
	DB	00H
	DB	00H
	DB	00H
	DB	00H
	DB	00H
	DB	00H
	DB	00H
	DB	00H
	DB	00H
	DB	00H
	DB	00H
	DB	00H
	DB	00H
	DB	00H
	DB	00H
	DB	00H
	DB	00H
	DB	00H
	DB	00H
	DB	00H
	DB	00H
	DB	00H
	DB	00H
	DB	00H
	DB	00H
	DB	00H
	DB	00H
	DB	00H
	DB	00H
	DB	00H
	DB	00H
	DB	00H
	DB	00H
	DB	00H
	DB	00H
	DB	00H
	DB	00H
	DB	00H
	DB	00H
	DB	00H
	DB	00H
	DB	00H
	DB	00H
	DB	00H
	DB	00H
	DB	00H
	DB	00H
	DB	00H
	DB	00H
	DB	00H
	DB	00H
	DB	00H
	DB	00H
	DB	00H
	DB	00H
	DB	00H
	DB	00H
	DB	00H
	DB	00H
	DB	00H
	DB	00H
	DB	00H
	DB	00H
	DB	00H
	DB	00H
	DB	00H
	DB	00H
	DB	00H
	DB	00H
	DB	00H
	DB	00H
	DB	00H
	DB	00H
	DB	00H
	DB	0b3H
	DB	0b3H
	DB	0b3H
	DB	0b3H
	DB	0b3H
	DB	0b3H
	DB	0b3H
	DB	0b3H
	DB	04H
	DB	04H
	DB	04H
	DB	04H
	DB	04H
	DB	04H
	DB	04H
	DB	04H
	DB	088H
	DB	088H
	DB	088H
	DB	088H
	DB	088H
	DB	088H
	DB	05H
	DB	05H
	DB	05H
	DB	05H
	DB	05H
	DB	05H
	DB	0c2H
	DB	08H
	DB	03bH
	DB	0eH
	DB	03H
	DB	03H
	DB	03H
	DB	03H
	DB	03H
	DB	03H
	DB	03H
	DB	03H
	DB	03H
	DB	0c6H
	DB	028H
	DB	037H
	DB	038H
	DB	038H
	DB	037H
	DB	01cH
	DB	051H
	DB	051H
	DB	02aH
	DB	04eH
	DB	04eH
	DB	023H
	DB	0aH
	DB	0aH
	DB	02H
	DB	02H
	DB	03H
	DB	055H
	DB	01bH
	DB	01dH
	DB	015H
	DB	015H
	DB	015H
	DB	01dH
	DB	015H
	DB	01dH
	DB	01dH
	DB	015H
	DB	015H
	DB	015H
	DB	015H
	DB	015H
	DB	015H
	DB	01bH
	DB	01bH
	DB	01bH
	DB	01bH
	DB	044H
	DB	044H
	DB	044H
	DB	01bH
	DB	02dH
	DB	03eH
	DB	01bH
	DB	044H
	DB	01bH
	DB	01bH
	DB	015H
	DB	015H
	DB	015H
	DB	015H
	DB	044H
	DB	015H
	DB	01dH
	DB	0bfH
	DB	045H
	DB	015H
	DB	055H
	DB	03H
	DB	03H
	DB	03H
	DB	03H
	DB	03H
	DB	03H
	DB	03H
	DB	03H
	DB	03H
	DB	03H
	DB	03H
	DB	03H
	DB	03H
	DB	03H
	DB	03H
	DB	03H
	DB	03H
	DB	03H
	DB	03H
	DB	03H
	DB	03H
	DB	03H
	DB	03H
	DB	03H
	DB	03H
	DB	03H
	DB	03H
	DB	03H
	DB	03H
	DB	03H
	DB	03H
	DB	03H
	DB	03H
	DB	03H
	DB	03H
	DB	03H
	DB	03H
	DB	03H
	DB	03H
	DB	03H
	DB	03H
	DB	03H
	DB	03H
	DB	03H
	DB	03H
	DB	03H
	DB	03H
	DB	03H
	DB	03H
	DB	016H
	DB	069H
	DB	07H
	DB	07H
	DB	07H
	DB	06H
	DB	016H
	DB	02H
	DB	02H
	DB	02H
	DB	02H
	DB	02H
	DB	03H
	DB	0aH
	DB	088H
	DB	0deH
	DB	07H
	DB	07H
	DB	0bH
	DB	07H
	DB	07H
	DB	07H
	DB	07H
	DB	07H
	DB	07H
	DB	06H
	DB	016H
	DB	03H
	DB	0eH
	DB	042H
	DB	0deH
	DB	07H
	DB	07H
	DB	07H
	DB	0deH
	DB	07H
	DB	07H
	DB	07H
	DB	07H
	DB	042H
	DB	016H
	DB	03H
	DB	0eH
	DB	070H
	DB	0deH
	DB	07H
	DB	07H
	DB	07H
	DB	0deH
	DB	07H
	DB	07H
	DB	07H
	DB	07H
	DB	01H
	DB	016H
	DB	02H
	DB	00H
	DB	077H
	DB	07H
	DB	07H
	DB	0deH
	DB	07cH
	DB	011H
	DB	07H
	DB	011H
	DB	00H
	DB	02H
	DB	016H
	DB	01H
	DB	07H
	DB	07H
	DB	07H
	DB	011H
	DB	011H
	DB	07H
	DB	07H
	DB	07H
	DB	06H
	DB	016H
	DB	03H
	DB	03H
	DB	03H
	DB	03H
	DB	03H
	DB	03H
	DB	016H
	DB	069H
	DB	07H
	DB	07H
	DB	07H
	DB	01H
	DB	016H
	DB	02H
	DB	02H
	DB	02H
	DB	03H
	DB	03H
	DB	03H
	DB	03H
	DB	03H
	DB	03H
	DB	02H
	DB	04H
	DB	07H
	DB	07H
	DB	07H
	DB	07H
	DB	07H
	DB	07H
	DB	07H
	DB	07H
	DB	077H
	DB	00H
	DB	02H
	DB	016H
	DB	09H
	DB	07H
	DB	07H
	DB	0deH
	DB	00H
	DB	03H
	DB	02H
	DB	088H
	DB	07H
	DB	07H
	DB	07H
	DB	06H
	DB	0eH
	DB	03H
	DB	00H
	DB	069H
	DB	07H
	DB	07H
	DB	07H
	DB	011H
	DB	011H
	DB	07H
	DB	0deH
	DB	07H
	DB	07H
	DB	077H
	DB	016H
	DB	03H
	DB	016H
	DB	0e0H
	DB	07H
	DB	07H
	DB	07H
	DB	011H
	DB	07cH
	DB	07H
	DB	07H
	DB	07H
	DB	069H
	DB	00H
	DB	03H
	DB	03H
	DB	03H
	DB	03H
	DB	03H
	DB	03H
	DB	03H
	DB	03H
	DB	03H
	DB	03H
	DB	03H
	DB	01aH
	DB	01eH
	DB	0b3H
	DB	00H
	DB	00H
	DB	00H
	DB	00H
	DB	00H
	DB	00H
	DB	00H
	DB	04H
	DB	01eH
	DB	01aH
	DB	03H
	DB	03H
	DB	03H
	DB	03H
	DB	03H
	DB	03H
	DB	03H
	DB	03H
	DB	03H
	DB	03H
	DB	03H
	DB	03H
	DB	00H
	DB	0e0H
	DB	0e0H
	DB	08H
	DB	08H
	DB	08H
	DB	08H
	DB	08H
	DB	0c2H
	DB	0c2H
	DB	0c2H
	DB	0c2H
	DB	0c2H
	DB	05H
	DB	05H
	DB	05H
	DB	05H
	DB	05H
	DB	05H
	DB	088H
	DB	088H
	DB	088H
	DB	088H
	DB	088H
	DB	04H
	DB	04H
	DB	04H
	DB	04H
	DB	04H
	DB	04H
	DB	04H
	DB	0b3H
	DB	0b3H
	DB	0b3H
	DB	0b3H
	DB	0b3H
	DB	0b3H
	DB	0b3H
	DB	0b3H
	DB	0b3H
	DB	00H
	DB	00H
	DB	00H
	DB	00H
	DB	00H
	DB	00H
	DB	00H
	DB	00H
	DB	00H
	DB	00H
	DB	00H
	DB	00H
	DB	00H
	DB	00H
	DB	00H
	DB	00H
	DB	00H
	DB	00H
	DB	00H
	DB	00H
	DB	00H
	DB	00H
	DB	00H
	DB	00H
	DB	00H
	DB	00H
	DB	00H
	DB	00H
	DB	00H
	DB	00H
	DB	00H
	DB	00H
	DB	00H
	DB	00H
	DB	00H
	DB	00H
	DB	00H
	DB	00H
	DB	00H
	DB	00H
	DB	00H
	DB	00H
	DB	00H
	DB	00H
	DB	00H
	DB	00H
	DB	00H
	DB	00H
	DB	00H
	DB	00H
	DB	00H
	DB	00H
	DB	00H
	DB	00H
	DB	00H
	DB	00H
	DB	00H
	DB	00H
	DB	00H
	DB	00H
	DB	00H
	DB	00H
	DB	00H
	DB	00H
	DB	00H
	DB	00H
	DB	00H
	DB	00H
	DB	00H
	DB	00H
	DB	00H
	DB	00H
	DB	00H
	DB	00H
	DB	00H
	DB	00H
	DB	00H
	DB	00H
	DB	00H
	DB	00H
	DB	00H
	DB	00H
	DB	00H
	DB	00H
	DB	00H
	DB	00H
	DB	00H
	DB	00H
	DB	00H
	DB	00H
	DB	00H
	DB	00H
	DB	00H
	DB	00H
	DB	00H
	DB	00H
	DB	00H
	DB	00H
	DB	00H
	DB	0b3H
	DB	0b3H
	DB	0b3H
	DB	0b3H
	DB	0b3H
	DB	0b3H
	DB	0b3H
	DB	0b3H
	DB	0b3H
	DB	04H
	DB	04H
	DB	04H
	DB	04H
	DB	04H
	DB	04H
	DB	04H
	DB	088H
	DB	088H
	DB	088H
	DB	088H
	DB	088H
	DB	088H
	DB	05H
	DB	05H
	DB	05H
	DB	05H
	DB	05H
	DB	05H
	DB	0c2H
	DB	0c2H
	DB	0c2H
	DB	05H
	DB	00H
	DB	02H
	DB	03H
	DB	03H
	DB	03H
	DB	03H
	DB	03H
	DB	02H
	DB	023H
	DB	04eH
	DB	037H
	DB	038H
	DB	07aH
	DB	07aH
	DB	038H
	DB	01cH
	DB	01cH
	DB	051H
	DB	04eH
	DB	02aH
	DB	04eH
	DB	04eH
	DB	0aH
	DB	0aH
	DB	0aH
	DB	02H
	DB	02H
	DB	02H
	DB	062H
	DB	015H
	DB	015H
	DB	015H
	DB	015H
	DB	015H
	DB	015H
	DB	01dH
	DB	01dH
	DB	01dH
	DB	015H
	DB	015H
	DB	015H
	DB	015H
	DB	015H
	DB	015H
	DB	01bH
	DB	01bH
	DB	01bH
	DB	01bH
	DB	044H
	DB	01bH
	DB	02dH
	DB	039H
	DB	0baH
	DB	03eH
	DB	01bH
	DB	01bH
	DB	015H
	DB	015H
	DB	015H
	DB	015H
	DB	015H
	DB	015H
	DB	015H
	DB	02dH
	DB	01dH
	DB	01dH
	DB	02dH
	DB	015H
	DB	03eH
	DB	02fH
	DB	03H
	DB	03H
	DB	03H
	DB	03H
	DB	03H
	DB	03H
	DB	03H
	DB	03H
	DB	03H
	DB	03H
	DB	03H
	DB	03H
	DB	03H
	DB	03H
	DB	03H
	DB	03H
	DB	03H
	DB	03H
	DB	03H
	DB	03H
	DB	03H
	DB	03H
	DB	03H
	DB	03H
	DB	03H
	DB	03H
	DB	03H
	DB	03H
	DB	03H
	DB	03H
	DB	03H
	DB	03H
	DB	03H
	DB	03H
	DB	03H
	DB	03H
	DB	03H
	DB	03H
	DB	03H
	DB	03H
	DB	03H
	DB	03H
	DB	03H
	DB	03H
	DB	03H
	DB	03H
	DB	03H
	DB	03H
	DB	00H
	DB	0bH
	DB	07H
	DB	07H
	DB	07H
	DB	042H
	DB	0eH
	DB	02H
	DB	02H
	DB	03H
	DB	03H
	DB	03H
	DB	03H
	DB	0aH
	DB	088H
	DB	0deH
	DB	07H
	DB	07H
	DB	07H
	DB	07cH
	DB	069H
	DB	09H
	DB	07H
	DB	07H
	DB	07H
	DB	07cH
	DB	016H
	DB	0aH
	DB	0b3H
	DB	0deH
	DB	07H
	DB	07H
	DB	011H
	DB	0c2H
	DB	00H
	DB	05H
	DB	07cH
	DB	07H
	DB	07H
	DB	0deH
	DB	04H
	DB	0eH
	DB	0b3H
	DB	07cH
	DB	07H
	DB	07H
	DB	011H
	DB	08H
	DB	00H
	DB	088H
	DB	0bH
	DB	07H
	DB	07H
	DB	07H
	DB	05H
	DB	0eH
	DB	05H
	DB	07H
	DB	07H
	DB	0bH
	DB	0b3H
	DB	016H
	DB	016H
	DB	04H
	DB	030H
	DB	0eH
	DB	0aH
	DB	088H
	DB	0deH
	DB	07H
	DB	07H
	DB	0f8H
	DB	00H
	DB	00H
	DB	01eH
	DB	07H
	DB	07H
	DB	07H
	DB	030H
	DB	0aH
	DB	03H
	DB	03H
	DB	03H
	DB	03H
	DB	03H
	DB	016H
	DB	0bH
	DB	07H
	DB	07H
	DB	07H
	DB	088H
	DB	0aH
	DB	02H
	DB	0aH
	DB	0eH
	DB	0eH
	DB	0eH
	DB	0eH
	DB	0eH
	DB	0aH
	DB	03H
	DB	03H
	DB	016H
	DB	06H
	DB	01H
	DB	05H
	DB	04H
	DB	0c2H
	DB	09H
	DB	07H
	DB	07H
	DB	07H
	DB	030H
	DB	0aH
	DB	016H
	DB	09H
	DB	07H
	DB	07H
	DB	0deH
	DB	00H
	DB	02H
	DB	02H
	DB	088H
	DB	0deH
	DB	07H
	DB	07H
	DB	06H
	DB	0eH
	DB	0aH
	DB	030H
	DB	07H
	DB	07H
	DB	07H
	DB	09H
	DB	00H
	DB	00H
	DB	09H
	DB	07H
	DB	07H
	DB	07H
	DB	077H
	DB	016H
	DB	0aH
	DB	088H
	DB	0deH
	DB	07H
	DB	07H
	DB	0f8H
	DB	00H
	DB	00H
	DB	01H
	DB	07H
	DB	07H
	DB	07H
	DB	08H
	DB	0aH
	DB	03H
	DB	03H
	DB	03H
	DB	03H
	DB	03H
	DB	03H
	DB	03H
	DB	03H
	DB	03H
	DB	03H
	DB	01aH
	DB	01eH
	DB	0b3H
	DB	00H
	DB	00H
	DB	00H
	DB	00H
	DB	00H
	DB	00H
	DB	00H
	DB	04H
	DB	01eH
	DB	01aH
	DB	03H
	DB	03H
	DB	03H
	DB	03H
	DB	03H
	DB	03H
	DB	03H
	DB	03H
	DB	03H
	DB	03H
	DB	03H
	DB	0aH
	DB	03bH
	DB	01H
	DB	08H
	DB	08H
	DB	08H
	DB	08H
	DB	08H
	DB	08H
	DB	0c2H
	DB	0c2H
	DB	0c2H
	DB	0c2H
	DB	0c2H
	DB	0c2H
	DB	05H
	DB	05H
	DB	05H
	DB	05H
	DB	05H
	DB	088H
	DB	088H
	DB	088H
	DB	088H
	DB	088H
	DB	088H
	DB	04H
	DB	04H
	DB	04H
	DB	04H
	DB	04H
	DB	04H
	DB	04H
	DB	0b3H
	DB	0b3H
	DB	0b3H
	DB	0b3H
	DB	0b3H
	DB	0b3H
	DB	0b3H
	DB	0b3H
	DB	0b3H
	DB	00H
	DB	00H
	DB	00H
	DB	00H
	DB	00H
	DB	00H
	DB	00H
	DB	00H
	DB	00H
	DB	00H
	DB	00H
	DB	00H
	DB	00H
	DB	00H
	DB	00H
	DB	00H
	DB	00H
	DB	00H
	DB	00H
	DB	00H
	DB	00H
	DB	00H
	DB	00H
	DB	00H
	DB	00H
	DB	00H
	DB	00H
	DB	00H
	DB	00H
	DB	00H
	DB	00H
	DB	00H
	DB	00H
	DB	00H
	DB	00H
	DB	00H
	DB	00H
	DB	00H
	DB	00H
	DB	00H
	DB	00H
	DB	00H
	DB	00H
	DB	00H
	DB	00H
	DB	00H
	DB	00H
	DB	00H
	DB	00H
	DB	00H
	DB	00H
	DB	00H
	DB	00H
	DB	00H
	DB	00H
	DB	00H
	DB	00H
	DB	00H
	DB	00H
	DB	00H
	DB	00H
	DB	00H
	DB	00H
	DB	00H
	DB	00H
	DB	00H
	DB	00H
	DB	00H
	DB	00H
	DB	00H
	DB	00H
	DB	00H
	DB	00H
	DB	00H
	DB	00H
	DB	00H
	DB	00H
	DB	00H
	DB	00H
	DB	00H
	DB	00H
	DB	00H
	DB	00H
	DB	00H
	DB	00H
	DB	00H
	DB	00H
	DB	00H
	DB	00H
	DB	00H
	DB	00H
	DB	00H
	DB	00H
	DB	00H
	DB	00H
	DB	00H
	DB	00H
	DB	0b3H
	DB	0b3H
	DB	0b3H
	DB	0b3H
	DB	0b3H
	DB	0b3H
	DB	0b3H
	DB	0b3H
	DB	0b3H
	DB	04H
	DB	04H
	DB	04H
	DB	04H
	DB	04H
	DB	04H
	DB	04H
	DB	04H
	DB	088H
	DB	088H
	DB	088H
	DB	088H
	DB	088H
	DB	088H
	DB	05H
	DB	05H
	DB	05H
	DB	05H
	DB	05H
	DB	05H
	DB	0c2H
	DB	0c2H
	DB	0c2H
	DB	0c2H
	DB	03bH
	DB	0eH
	DB	03H
	DB	02H
	DB	02H
	DB	023H
	DB	051H
	DB	037H
	DB	038H
	DB	08dH
	DB	08dH
	DB	08dH
	DB	038H
	DB	038H
	DB	01cH
	DB	01cH
	DB	051H
	DB	051H
	DB	02aH
	DB	02aH
	DB	04eH
	DB	023H
	DB	0aH
	DB	0aH
	DB	0aH
	DB	02H
	DB	02H
	DB	076H
	DB	01bH
	DB	015H
	DB	015H
	DB	015H
	DB	015H
	DB	015H
	DB	015H
	DB	015H
	DB	015H
	DB	01dH
	DB	015H
	DB	015H
	DB	015H
	DB	015H
	DB	015H
	DB	015H
	DB	01bH
	DB	01bH
	DB	01bH
	DB	01bH
	DB	02dH
	DB	039H
	DB	02dH
	DB	068H
	DB	029H
	DB	044H
	DB	01bH
	DB	015H
	DB	015H
	DB	015H
	DB	015H
	DB	015H
	DB	015H
	DB	015H
	DB	01dH
	DB	045H
	DB	0cbH
	DB	01dH
	DB	01dH
	DB	02dH
	DB	015H
	DB	095H
	DB	02H
	DB	03H
	DB	03H
	DB	03H
	DB	03H
	DB	03H
	DB	03H
	DB	03H
	DB	03H
	DB	03H
	DB	03H
	DB	03H
	DB	03H
	DB	03H
	DB	03H
	DB	03H
	DB	03H
	DB	03H
	DB	03H
	DB	03H
	DB	03H
	DB	03H
	DB	03H
	DB	03H
	DB	03H
	DB	03H
	DB	03H
	DB	03H
	DB	03H
	DB	03H
	DB	03H
	DB	03H
	DB	03H
	DB	03H
	DB	03H
	DB	03H
	DB	03H
	DB	03H
	DB	03H
	DB	03H
	DB	03H
	DB	03H
	DB	03H
	DB	03H
	DB	03H
	DB	03H
	DB	03H
	DB	02H
	DB	016H
	DB	011H
	DB	07H
	DB	07H
	DB	0deH
	DB	088H
	DB	0aH
	DB	02H
	DB	03H
	DB	03H
	DB	03H
	DB	03H
	DB	03H
	DB	0aH
	DB	088H
	DB	0deH
	DB	07H
	DB	07H
	DB	077H
	DB	0b3H
	DB	00H
	DB	00H
	DB	077H
	DB	07H
	DB	07H
	DB	0deH
	DB	00H
	DB	016H
	DB	01eH
	DB	07H
	DB	07H
	DB	07H
	DB	042H
	DB	016H
	DB	02H
	DB	016H
	DB	0c2H
	DB	07H
	DB	07H
	DB	07H
	DB	06H
	DB	00H
	DB	0e0H
	DB	07H
	DB	07H
	DB	07H
	DB	01H
	DB	016H
	DB	0aH
	DB	0eH
	DB	088H
	DB	0deH
	DB	07H
	DB	07H
	DB	09H
	DB	00H
	DB	0e0H
	DB	07H
	DB	07H
	DB	077H
	DB	00H
	DB	00H
	DB	0eH
	DB	0eH
	DB	0aH
	DB	02H
	DB	016H
	DB	069H
	DB	07H
	DB	07H
	DB	011H
	DB	00H
	DB	0aH
	DB	0aH
	DB	00H
	DB	07cH
	DB	07H
	DB	07H
	DB	09H
	DB	016H
	DB	03H
	DB	03H
	DB	03H
	DB	03H
	DB	02H
	DB	016H
	DB	07cH
	DB	07H
	DB	07H
	DB	0deH
	DB	04H
	DB	0aH
	DB	0aH
	DB	088H
	DB	042H
	DB	042H
	DB	042H
	DB	042H
	DB	042H
	DB	088H
	DB	0aH
	DB	03H
	DB	0eH
	DB	00H
	DB	00H
	DB	04H
	DB	04H
	DB	00H
	DB	0b3H
	DB	0deH
	DB	07H
	DB	07H
	DB	01eH
	DB	0eH
	DB	016H
	DB	09H
	DB	07H
	DB	07H
	DB	0deH
	DB	00H
	DB	02H
	DB	02H
	DB	088H
	DB	0deH
	DB	07H
	DB	07H
	DB	06H
	DB	0eH
	DB	016H
	DB	069H
	DB	07H
	DB	07H
	DB	0deH
	DB	04H
	DB	0aH
	DB	0aH
	DB	04H
	DB	07H
	DB	07H
	DB	07H
	DB	077H
	DB	016H
	DB	016H
	DB	069H
	DB	07H
	DB	07H
	DB	011H
	DB	016H
	DB	0aH
	DB	0aH
	DB	00H
	DB	0bH
	DB	07H
	DB	07H
	DB	09H
	DB	016H
	DB	03H
	DB	03H
	DB	03H
	DB	03H
	DB	03H
	DB	03H
	DB	03H
	DB	03H
	DB	03H
	DB	03H
	DB	01aH
	DB	01eH
	DB	0b3H
	DB	00H
	DB	00H
	DB	00H
	DB	00H
	DB	00H
	DB	00H
	DB	00H
	DB	04H
	DB	01eH
	DB	01aH
	DB	03H
	DB	03H
	DB	03H
	DB	03H
	DB	03H
	DB	03H
	DB	03H
	DB	03H
	DB	03H
	DB	03H
	DB	03H
	DB	0eH
	DB	070H
	DB	01H
	DB	08H
	DB	08H
	DB	08H
	DB	08H
	DB	08H
	DB	08H
	DB	0c2H
	DB	0c2H
	DB	0c2H
	DB	0c2H
	DB	0c2H
	DB	0c2H
	DB	05H
	DB	05H
	DB	05H
	DB	05H
	DB	05H
	DB	05H
	DB	088H
	DB	088H
	DB	088H
	DB	088H
	DB	088H
	DB	088H
	DB	04H
	DB	04H
	DB	04H
	DB	04H
	DB	04H
	DB	04H
	DB	04H
	DB	0b3H
	DB	0b3H
	DB	0b3H
	DB	0b3H
	DB	0b3H
	DB	0b3H
	DB	0b3H
	DB	0b3H
	DB	00H
	DB	00H
	DB	00H
	DB	00H
	DB	00H
	DB	00H
	DB	00H
	DB	00H
	DB	00H
	DB	00H
	DB	00H
	DB	00H
	DB	00H
	DB	00H
	DB	00H
	DB	00H
	DB	00H
	DB	00H
	DB	00H
	DB	00H
	DB	00H
	DB	00H
	DB	00H
	DB	00H
	DB	00H
	DB	00H
	DB	00H
	DB	00H
	DB	00H
	DB	00H
	DB	00H
	DB	00H
	DB	00H
	DB	00H
	DB	00H
	DB	00H
	DB	00H
	DB	00H
	DB	00H
	DB	00H
	DB	00H
	DB	00H
	DB	00H
	DB	00H
	DB	00H
	DB	00H
	DB	00H
	DB	00H
	DB	00H
	DB	00H
	DB	00H
	DB	00H
	DB	00H
	DB	00H
	DB	00H
	DB	00H
	DB	00H
	DB	00H
	DB	00H
	DB	00H
	DB	00H
	DB	00H
	DB	00H
	DB	00H
	DB	00H
	DB	00H
	DB	00H
	DB	00H
	DB	00H
	DB	00H
	DB	00H
	DB	00H
	DB	00H
	DB	00H
	DB	00H
	DB	00H
	DB	00H
	DB	00H
	DB	00H
	DB	00H
	DB	00H
	DB	00H
	DB	00H
	DB	00H
	DB	00H
	DB	00H
	DB	00H
	DB	00H
	DB	00H
	DB	00H
	DB	00H
	DB	00H
	DB	00H
	DB	00H
	DB	00H
	DB	00H
	DB	0b3H
	DB	0b3H
	DB	0b3H
	DB	0b3H
	DB	0b3H
	DB	0b3H
	DB	0b3H
	DB	0b3H
	DB	0b3H
	DB	04H
	DB	04H
	DB	04H
	DB	04H
	DB	04H
	DB	04H
	DB	04H
	DB	04H
	DB	04H
	DB	088H
	DB	088H
	DB	088H
	DB	088H
	DB	088H
	DB	088H
	DB	05H
	DB	05H
	DB	05H
	DB	05H
	DB	05H
	DB	05H
	DB	0c2H
	DB	0c2H
	DB	0c2H
	DB	0c2H
	DB	088H
	DB	04H
	DB	023H
	DB	037H
	DB	038H
	DB	038H
	DB	08dH
	DB	08dH
	DB	08dH
	DB	024H
	DB	024H
	DB	024H
	DB	024H
	DB	01cH
	DB	01cH
	DB	01cH
	DB	010H
	DB	04eH
	DB	029H
	DB	029H
	DB	02aH
	DB	0eH
	DB	0aH
	DB	0aH
	DB	0aH
	DB	02H
	DB	02H
	DB	06bH
	DB	015H
	DB	015H
	DB	015H
	DB	015H
	DB	015H
	DB	015H
	DB	015H
	DB	015H
	DB	015H
	DB	015H
	DB	015H
	DB	015H
	DB	015H
	DB	015H
	DB	015H
	DB	015H
	DB	01bH
	DB	01bH
	DB	01bH
	DB	03eH
	DB	0baH
	DB	02dH
	DB	062H
	DB	036H
	DB	054H
	DB	06bH
	DB	01bH
	DB	01bH
	DB	015H
	DB	015H
	DB	015H
	DB	015H
	DB	015H
	DB	015H
	DB	015H
	DB	015H
	DB	02dH
	DB	01dH
	DB	01dH
	DB	045H
	DB	01bH
	DB	03eH
	DB	02fH
	DB	02H
	DB	03H
	DB	03H
	DB	03H
	DB	03H
	DB	03H
	DB	03H
	DB	03H
	DB	03H
	DB	03H
	DB	03H
	DB	03H
	DB	03H
	DB	03H
	DB	03H
	DB	03H
	DB	03H
	DB	03H
	DB	03H
	DB	03H
	DB	03H
	DB	03H
	DB	03H
	DB	03H
	DB	03H
	DB	03H
	DB	03H
	DB	03H
	DB	03H
	DB	03H
	DB	03H
	DB	03H
	DB	03H
	DB	03H
	DB	03H
	DB	03H
	DB	03H
	DB	03H
	DB	03H
	DB	03H
	DB	03H
	DB	03H
	DB	03H
	DB	03H
	DB	03H
	DB	03H
	DB	02H
	DB	016H
	DB	011H
	DB	07H
	DB	07H
	DB	0deH
	DB	088H
	DB	0aH
	DB	03H
	DB	03H
	DB	03H
	DB	03H
	DB	03H
	DB	03H
	DB	02H
	DB	088H
	DB	0deH
	DB	07H
	DB	07H
	DB	01eH
	DB	016H
	DB	02H
	DB	016H
	DB	09H
	DB	07H
	DB	07H
	DB	0deH
	DB	00H
	DB	00H
	DB	0bH
	DB	07H
	DB	07H
	DB	0deH
	DB	00H
	DB	0aH
	DB	02H
	DB	0aH
	DB	00H
	DB	011H
	DB	07H
	DB	07H
	DB	07cH
	DB	00H
	DB	09H
	DB	07H
	DB	07H
	DB	0deH
	DB	04H
	DB	0aH
	DB	02H
	DB	02H
	DB	00H
	DB	07cH
	DB	07H
	DB	07H
	DB	011H
	DB	00H
	DB	088H
	DB	07H
	DB	07H
	DB	07H
	DB	011H
	DB	0f8H
	DB	08H
	DB	016H
	DB	0eH
	DB	02H
	DB	00H
	DB	011H
	DB	07H
	DB	07H
	DB	077H
	DB	00H
	DB	016H
	DB	016H
	DB	00H
	DB	0f8H
	DB	07H
	DB	07H
	DB	07cH
	DB	00H
	DB	03H
	DB	03H
	DB	03H
	DB	03H
	DB	02H
	DB	016H
	DB	07cH
	DB	07H
	DB	07H
	DB	0deH
	DB	04H
	DB	0aH
	DB	0eH
	DB	06H
	DB	07H
	DB	07H
	DB	07H
	DB	07H
	DB	07H
	DB	06H
	DB	0eH
	DB	0aH
	DB	016H
	DB	06H
	DB	07cH
	DB	0deH
	DB	0deH
	DB	07cH
	DB	06H
	DB	0deH
	DB	07H
	DB	07H
	DB	06H
	DB	0eH
	DB	016H
	DB	09H
	DB	07H
	DB	07H
	DB	0deH
	DB	00H
	DB	02H
	DB	0aH
	DB	088H
	DB	0deH
	DB	07H
	DB	07H
	DB	06H
	DB	016H
	DB	016H
	DB	07cH
	DB	07H
	DB	07H
	DB	07cH
	DB	00H
	DB	02H
	DB	0aH
	DB	016H
	DB	07cH
	DB	07H
	DB	07H
	DB	077H
	DB	016H
	DB	016H
	DB	07cH
	DB	07H
	DB	07H
	DB	0bH
	DB	00H
	DB	016H
	DB	016H
	DB	00H
	DB	0f8H
	DB	07H
	DB	07H
	DB	011H
	DB	00H
	DB	02H
	DB	03H
	DB	03H
	DB	03H
	DB	03H
	DB	03H
	DB	03H
	DB	03H
	DB	03H
	DB	03H
	DB	01aH
	DB	01eH
	DB	0b3H
	DB	00H
	DB	00H
	DB	00H
	DB	00H
	DB	00H
	DB	00H
	DB	00H
	DB	04H
	DB	01eH
	DB	01aH
	DB	03H
	DB	03H
	DB	03H
	DB	03H
	DB	03H
	DB	03H
	DB	03H
	DB	03H
	DB	03H
	DB	03H
	DB	03H
	DB	016H
	DB	08H
	DB	0e0H
	DB	08H
	DB	08H
	DB	08H
	DB	08H
	DB	08H
	DB	08H
	DB	0c2H
	DB	0c2H
	DB	0c2H
	DB	0c2H
	DB	0c2H
	DB	0c2H
	DB	05H
	DB	05H
	DB	05H
	DB	05H
	DB	05H
	DB	05H
	DB	088H
	DB	088H
	DB	088H
	DB	088H
	DB	088H
	DB	088H
	DB	04H
	DB	04H
	DB	04H
	DB	04H
	DB	04H
	DB	04H
	DB	04H
	DB	0b3H
	DB	0b3H
	DB	0b3H
	DB	0b3H
	DB	0b3H
	DB	0b3H
	DB	0b3H
	DB	0b3H
	DB	0b3H
	DB	0b3H
	DB	00H
	DB	00H
	DB	00H
	DB	00H
	DB	00H
	DB	00H
	DB	00H
	DB	00H
	DB	00H
	DB	00H
	DB	00H
	DB	00H
	DB	00H
	DB	00H
	DB	00H
	DB	00H
	DB	00H
	DB	00H
	DB	00H
	DB	00H
	DB	00H
	DB	00H
	DB	00H
	DB	00H
	DB	00H
	DB	00H
	DB	00H
	DB	00H
	DB	00H
	DB	00H
	DB	00H
	DB	00H
	DB	00H
	DB	00H
	DB	00H
	DB	00H
	DB	00H
	DB	00H
	DB	00H
	DB	00H
	DB	00H
	DB	00H
	DB	00H
	DB	00H
	DB	00H
	DB	00H
	DB	00H
	DB	00H
	DB	00H
	DB	00H
	DB	00H
	DB	00H
	DB	00H
	DB	00H
	DB	00H
	DB	00H
	DB	00H
	DB	00H
	DB	00H
	DB	00H
	DB	00H
	DB	00H
	DB	00H
	DB	00H
	DB	00H
	DB	00H
	DB	00H
	DB	00H
	DB	00H
	DB	00H
	DB	00H
	DB	00H
	DB	00H
	DB	00H
	DB	00H
	DB	00H
	DB	00H
	DB	00H
	DB	00H
	DB	00H
	DB	00H
	DB	00H
	DB	00H
	DB	00H
	DB	00H
	DB	00H
	DB	00H
	DB	00H
	DB	00H
	DB	00H
	DB	00H
	DB	00H
	DB	0b3H
	DB	0b3H
	DB	0b3H
	DB	0b3H
	DB	0b3H
	DB	0b3H
	DB	0b3H
	DB	0b3H
	DB	0b3H
	DB	0b3H
	DB	0b3H
	DB	04H
	DB	04H
	DB	04H
	DB	04H
	DB	04H
	DB	04H
	DB	04H
	DB	04H
	DB	04H
	DB	088H
	DB	088H
	DB	088H
	DB	088H
	DB	088H
	DB	088H
	DB	05H
	DB	05H
	DB	05H
	DB	05H
	DB	05H
	DB	05H
	DB	05H
	DB	0c2H
	DB	051H
	DB	051H
	DB	037H
	DB	037H
	DB	038H
	DB	038H
	DB	038H
	DB	038H
	DB	024H
	DB	024H
	DB	024H
	DB	024H
	DB	024H
	DB	024H
	DB	024H
	DB	024H
	DB	01cH
	DB	01cH
	DB	051H
	DB	02aH
	DB	02bH
	DB	029H
	DB	023H
	DB	0eH
	DB	0aH
	DB	0aH
	DB	0aH
	DB	02H
	DB	02fH
	DB	02dH
	DB	015H
	DB	015H
	DB	015H
	DB	015H
	DB	015H
	DB	015H
	DB	015H
	DB	015H
	DB	015H
	DB	015H
	DB	015H
	DB	015H
	DB	015H
	DB	015H
	DB	015H
	DB	015H
	DB	01bH
	DB	02dH
	DB	0afH
	DB	0ebH
	DB	03fH
	DB	01bH
	DB	04eH
	DB	0a2H
	DB	025H
	DB	064H
	DB	0aeH
	DB	01bH
	DB	01bH
	DB	01bH
	DB	015H
	DB	015H
	DB	015H
	DB	015H
	DB	015H
	DB	01dH
	DB	01bH
	DB	0cbH
	DB	01dH
	DB	01dH
	DB	01bH
	DB	01bH
	DB	076H
	DB	02H
	DB	02H
	DB	03H
	DB	03H
	DB	03H
	DB	03H
	DB	03H
	DB	03H
	DB	03H
	DB	03H
	DB	03H
	DB	03H
	DB	03H
	DB	03H
	DB	03H
	DB	03H
	DB	03H
	DB	03H
	DB	03H
	DB	03H
	DB	03H
	DB	03H
	DB	03H
	DB	03H
	DB	03H
	DB	03H
	DB	03H
	DB	03H
	DB	03H
	DB	03H
	DB	03H
	DB	03H
	DB	03H
	DB	03H
	DB	03H
	DB	03H
	DB	03H
	DB	03H
	DB	03H
	DB	03H
	DB	03H
	DB	03H
	DB	03H
	DB	03H
	DB	03H
	DB	03H
	DB	03H
	DB	016H
	DB	011H
	DB	07H
	DB	07H
	DB	0deH
	DB	088H
	DB	0aH
	DB	03H
	DB	03H
	DB	03H
	DB	03H
	DB	03H
	DB	03H
	DB	02H
	DB	088H
	DB	0deH
	DB	07H
	DB	07H
	DB	06H
	DB	016H
	DB	02H
	DB	016H
	DB	09H
	DB	07H
	DB	07H
	DB	0deH
	DB	00H
	DB	00H
	DB	011H
	DB	07H
	DB	07H
	DB	07cH
	DB	00H
	DB	02H
	DB	02H
	DB	02H
	DB	00H
	DB	0bH
	DB	07H
	DB	07H
	DB	0deH
	DB	00H
	DB	07cH
	DB	07H
	DB	07H
	DB	011H
	DB	016H
	DB	0aH
	DB	02H
	DB	02H
	DB	016H
	DB	09H
	DB	07H
	DB	07H
	DB	0deH
	DB	04H
	DB	00H
	DB	0bH
	DB	07H
	DB	07H
	DB	07H
	DB	07H
	DB	07H
	DB	07cH
	DB	0c2H
	DB	016H
	DB	088H
	DB	0deH
	DB	07H
	DB	07H
	DB	0deH
	DB	07cH
	DB	07cH
	DB	07cH
	DB	07cH
	DB	0deH
	DB	07H
	DB	07H
	DB	011H
	DB	016H
	DB	02H
	DB	03H
	DB	03H
	DB	03H
	DB	03H
	DB	016H
	DB	07cH
	DB	07H
	DB	07H
	DB	0deH
	DB	0b3H
	DB	0aH
	DB	0eH
	DB	01eH
	DB	0deH
	DB	0deH
	DB	07H
	DB	07H
	DB	07H
	DB	06H
	DB	016H
	DB	00H
	DB	077H
	DB	07H
	DB	07H
	DB	07H
	DB	011H
	DB	0deH
	DB	07H
	DB	07H
	DB	07H
	DB	07H
	DB	06H
	DB	0eH
	DB	016H
	DB	09H
	DB	07H
	DB	07H
	DB	0deH
	DB	00H
	DB	02H
	DB	0aH
	DB	088H
	DB	0deH
	DB	07H
	DB	07H
	DB	06H
	DB	016H
	DB	00H
	DB	0deH
	DB	07H
	DB	07H
	DB	0bH
	DB	00H
	DB	02H
	DB	02H
	DB	016H
	DB	07cH
	DB	07H
	DB	07H
	DB	077H
	DB	00H
	DB	0b3H
	DB	0deH
	DB	07H
	DB	07H
	DB	0deH
	DB	07cH
	DB	07cH
	DB	07cH
	DB	07cH
	DB	0deH
	DB	07H
	DB	07H
	DB	0deH
	DB	00H
	DB	02H
	DB	03H
	DB	03H
	DB	03H
	DB	03H
	DB	03H
	DB	03H
	DB	03H
	DB	03H
	DB	03H
	DB	01aH
	DB	01eH
	DB	0b3H
	DB	00H
	DB	00H
	DB	00H
	DB	00H
	DB	00H
	DB	00H
	DB	00H
	DB	04H
	DB	01eH
	DB	01aH
	DB	03H
	DB	03H
	DB	03H
	DB	03H
	DB	03H
	DB	03H
	DB	03H
	DB	03H
	DB	03H
	DB	03H
	DB	03H
	DB	016H
	DB	08H
	DB	0e0H
	DB	08H
	DB	08H
	DB	08H
	DB	08H
	DB	08H
	DB	08H
	DB	08H
	DB	0c2H
	DB	0c2H
	DB	0c2H
	DB	0c2H
	DB	0c2H
	DB	0c2H
	DB	05H
	DB	05H
	DB	05H
	DB	05H
	DB	05H
	DB	088H
	DB	088H
	DB	088H
	DB	088H
	DB	088H
	DB	088H
	DB	088H
	DB	04H
	DB	04H
	DB	04H
	DB	04H
	DB	04H
	DB	04H
	DB	04H
	DB	04H
	DB	0b3H
	DB	0b3H
	DB	0b3H
	DB	0b3H
	DB	0b3H
	DB	0b3H
	DB	0b3H
	DB	0b3H
	DB	0b3H
	DB	00H
	DB	00H
	DB	00H
	DB	00H
	DB	00H
	DB	00H
	DB	00H
	DB	00H
	DB	00H
	DB	00H
	DB	00H
	DB	00H
	DB	00H
	DB	00H
	DB	00H
	DB	00H
	DB	00H
	DB	00H
	DB	00H
	DB	00H
	DB	00H
	DB	00H
	DB	00H
	DB	00H
	DB	00H
	DB	00H
	DB	00H
	DB	00H
	DB	00H
	DB	00H
	DB	00H
	DB	00H
	DB	00H
	DB	00H
	DB	00H
	DB	00H
	DB	00H
	DB	00H
	DB	00H
	DB	00H
	DB	00H
	DB	00H
	DB	00H
	DB	00H
	DB	00H
	DB	00H
	DB	00H
	DB	00H
	DB	00H
	DB	00H
	DB	00H
	DB	00H
	DB	00H
	DB	00H
	DB	00H
	DB	00H
	DB	00H
	DB	00H
	DB	00H
	DB	00H
	DB	00H
	DB	00H
	DB	00H
	DB	00H
	DB	00H
	DB	00H
	DB	00H
	DB	00H
	DB	00H
	DB	00H
	DB	00H
	DB	00H
	DB	00H
	DB	00H
	DB	00H
	DB	00H
	DB	00H
	DB	00H
	DB	00H
	DB	00H
	DB	00H
	DB	00H
	DB	00H
	DB	00H
	DB	00H
	DB	00H
	DB	00H
	DB	00H
	DB	00H
	DB	00H
	DB	0b3H
	DB	0b3H
	DB	0b3H
	DB	0b3H
	DB	0b3H
	DB	0b3H
	DB	0b3H
	DB	0b3H
	DB	0b3H
	DB	0b3H
	DB	0b3H
	DB	04H
	DB	04H
	DB	04H
	DB	04H
	DB	04H
	DB	04H
	DB	04H
	DB	04H
	DB	04H
	DB	088H
	DB	088H
	DB	088H
	DB	088H
	DB	088H
	DB	088H
	DB	088H
	DB	05H
	DB	05H
	DB	05H
	DB	05H
	DB	05H
	DB	051H
	DB	051H
	DB	037H
	DB	037H
	DB	038H
	DB	038H
	DB	038H
	DB	01cH
	DB	01cH
	DB	01cH
	DB	024H
	DB	024H
	DB	024H
	DB	024H
	DB	024H
	DB	024H
	DB	024H
	DB	024H
	DB	024H
	DB	01cH
	DB	051H
	DB	051H
	DB	02bH
	DB	02bH
	DB	02bH
	DB	0eH
	DB	0eH
	DB	0aH
	DB	0aH
	DB	0aH
	DB	02H
	DB	076H
	DB	015H
	DB	015H
	DB	015H
	DB	015H
	DB	015H
	DB	015H
	DB	015H
	DB	015H
	DB	015H
	DB	015H
	DB	015H
	DB	015H
	DB	015H
	DB	015H
	DB	015H
	DB	015H
	DB	015H
	DB	047H
	DB	03eH
	DB	02dH
	DB	0afH
	DB	015H
	DB	06bH
	DB	029H
	DB	078H
	DB	091H
	DB	041H
	DB	064H
	DB	03eH
	DB	01bH
	DB	01bH
	DB	01bH
	DB	01bH
	DB	015H
	DB	015H
	DB	015H
	DB	015H
	DB	02dH
	DB	045H
	DB	01dH
	DB	01dH
	DB	015H
	DB	01bH
	DB	076H
	DB	0aH
	DB	02H
	DB	03H
	DB	03H
	DB	03H
	DB	03H
	DB	03H
	DB	03H
	DB	03H
	DB	03H
	DB	03H
	DB	03H
	DB	03H
	DB	03H
	DB	03H
	DB	03H
	DB	03H
	DB	03H
	DB	03H
	DB	03H
	DB	03H
	DB	03H
	DB	03H
	DB	03H
	DB	03H
	DB	03H
	DB	03H
	DB	03H
	DB	03H
	DB	03H
	DB	03H
	DB	03H
	DB	03H
	DB	03H
	DB	03H
	DB	03H
	DB	03H
	DB	03H
	DB	03H
	DB	03H
	DB	03H
	DB	03H
	DB	03H
	DB	03H
	DB	03H
	DB	03H
	DB	03H
	DB	00H
	DB	0bH
	DB	07H
	DB	07H
	DB	07H
	DB	042H
	DB	0eH
	DB	03H
	DB	03H
	DB	03H
	DB	03H
	DB	03H
	DB	03H
	DB	02H
	DB	088H
	DB	0deH
	DB	07H
	DB	07H
	DB	06H
	DB	016H
	DB	02H
	DB	016H
	DB	09H
	DB	07H
	DB	07H
	DB	0deH
	DB	00H
	DB	00H
	DB	011H
	DB	07H
	DB	07H
	DB	07cH
	DB	00H
	DB	02H
	DB	03H
	DB	03H
	DB	00H
	DB	0bH
	DB	07H
	DB	07H
	DB	0deH
	DB	00H
	DB	07cH
	DB	07H
	DB	07H
	DB	011H
	DB	016H
	DB	0aH
	DB	03H
	DB	03H
	DB	016H
	DB	09H
	DB	07H
	DB	07H
	DB	0deH
	DB	088H
	DB	016H
	DB	04H
	DB	0bH
	DB	07H
	DB	07H
	DB	07H
	DB	07H
	DB	07H
	DB	0deH
	DB	04H
	DB	04H
	DB	0deH
	DB	07H
	DB	07H
	DB	07H
	DB	0deH
	DB	07H
	DB	07H
	DB	07H
	DB	0deH
	DB	0deH
	DB	0deH
	DB	07cH
	DB	00H
	DB	02H
	DB	03H
	DB	03H
	DB	03H
	DB	03H
	DB	016H
	DB	077H
	DB	07H
	DB	07H
	DB	07H
	DB	04H
	DB	0aH
	DB	02H
	DB	0b3H
	DB	04H
	DB	04H
	DB	07cH
	DB	07H
	DB	07H
	DB	06H
	DB	00H
	DB	01eH
	DB	07H
	DB	07H
	DB	07H
	DB	01H
	DB	0b3H
	DB	0b3H
	DB	09H
	DB	07H
	DB	07H
	DB	07H
	DB	06H
	DB	016H
	DB	016H
	DB	09H
	DB	07H
	DB	07H
	DB	0deH
	DB	00H
	DB	02H
	DB	0aH
	DB	088H
	DB	0deH
	DB	07H
	DB	07H
	DB	06H
	DB	016H
	DB	00H
	DB	0deH
	DB	07H
	DB	07H
	DB	0bH
	DB	00H
	DB	02H
	DB	02H
	DB	016H
	DB	07cH
	DB	07H
	DB	07H
	DB	077H
	DB	00H
	DB	04H
	DB	0deH
	DB	07H
	DB	07H
	DB	07H
	DB	0deH
	DB	07H
	DB	07H
	DB	07H
	DB	0deH
	DB	0deH
	DB	0deH
	DB	07cH
	DB	00H
	DB	02H
	DB	03H
	DB	03H
	DB	03H
	DB	03H
	DB	03H
	DB	03H
	DB	03H
	DB	03H
	DB	03H
	DB	01aH
	DB	01eH
	DB	0b3H
	DB	00H
	DB	00H
	DB	00H
	DB	00H
	DB	00H
	DB	00H
	DB	00H
	DB	04H
	DB	01eH
	DB	01aH
	DB	03H
	DB	03H
	DB	03H
	DB	03H
	DB	03H
	DB	03H
	DB	03H
	DB	03H
	DB	03H
	DB	03H
	DB	03H
	DB	016H
	DB	08H
	DB	0e0H
	DB	08H
	DB	08H
	DB	08H
	DB	08H
	DB	08H
	DB	08H
	DB	08H
	DB	0c2H
	DB	0c2H
	DB	0c2H
	DB	0c2H
	DB	0c2H
	DB	0c2H
	DB	05H
	DB	05H
	DB	05H
	DB	05H
	DB	05H
	DB	05H
	DB	088H
	DB	088H
	DB	088H
	DB	088H
	DB	088H
	DB	088H
	DB	04H
	DB	04H
	DB	04H
	DB	04H
	DB	04H
	DB	04H
	DB	04H
	DB	04H
	DB	0b3H
	DB	0b3H
	DB	0b3H
	DB	0b3H
	DB	0b3H
	DB	0b3H
	DB	0b3H
	DB	0b3H
	DB	0b3H
	DB	0b3H
	DB	00H
	DB	00H
	DB	00H
	DB	00H
	DB	00H
	DB	00H
	DB	00H
	DB	00H
	DB	00H
	DB	00H
	DB	00H
	DB	00H
	DB	00H
	DB	00H
	DB	00H
	DB	00H
	DB	00H
	DB	00H
	DB	00H
	DB	00H
	DB	00H
	DB	00H
	DB	00H
	DB	00H
	DB	00H
	DB	00H
	DB	00H
	DB	00H
	DB	00H
	DB	00H
	DB	00H
	DB	00H
	DB	00H
	DB	00H
	DB	00H
	DB	00H
	DB	00H
	DB	00H
	DB	00H
	DB	00H
	DB	00H
	DB	00H
	DB	00H
	DB	00H
	DB	00H
	DB	00H
	DB	00H
	DB	00H
	DB	00H
	DB	00H
	DB	00H
	DB	00H
	DB	00H
	DB	00H
	DB	00H
	DB	00H
	DB	00H
	DB	00H
	DB	00H
	DB	00H
	DB	00H
	DB	00H
	DB	00H
	DB	00H
	DB	00H
	DB	00H
	DB	00H
	DB	00H
	DB	00H
	DB	00H
	DB	00H
	DB	00H
	DB	00H
	DB	00H
	DB	00H
	DB	00H
	DB	00H
	DB	00H
	DB	00H
	DB	00H
	DB	00H
	DB	00H
	DB	00H
	DB	00H
	DB	00H
	DB	00H
	DB	00H
	DB	0b3H
	DB	0b3H
	DB	0b3H
	DB	0b3H
	DB	0b3H
	DB	0b3H
	DB	0b3H
	DB	0b3H
	DB	0b3H
	DB	0b3H
	DB	0b3H
	DB	0b3H
	DB	04H
	DB	04H
	DB	04H
	DB	04H
	DB	04H
	DB	04H
	DB	04H
	DB	04H
	DB	04H
	DB	04H
	DB	088H
	DB	088H
	DB	088H
	DB	088H
	DB	088H
	DB	088H
	DB	088H
	DB	05H
	DB	05H
	DB	05H
	DB	04eH
	DB	037H
	DB	089H
	DB	089H
	DB	037H
	DB	037H
	DB	01cH
	DB	01cH
	DB	01cH
	DB	01cH
	DB	01cH
	DB	024H
	DB	024H
	DB	024H
	DB	024H
	DB	024H
	DB	024H
	DB	024H
	DB	024H
	DB	024H
	DB	024H
	DB	01cH
	DB	051H
	DB	02aH
	DB	02bH
	DB	02bH
	DB	029H
	DB	0eH
	DB	0eH
	DB	0aH
	DB	0aH
	DB	02H
	DB	0aH
	DB	039H
	DB	015H
	DB	015H
	DB	015H
	DB	015H
	DB	015H
	DB	015H
	DB	015H
	DB	015H
	DB	015H
	DB	015H
	DB	015H
	DB	015H
	DB	015H
	DB	015H
	DB	015H
	DB	01bH
	DB	047H
	DB	02dH
	DB	03eH
	DB	01bH
	DB	01bH
	DB	015H
	DB	068H
	DB	036H
	DB	0a8H
	DB	021H
	DB	013H
	DB	041H
	DB	075H
	DB	062H
	DB	01bH
	DB	01bH
	DB	01bH
	DB	01bH
	DB	01bH
	DB	01bH
	DB	01bH
	DB	02dH
	DB	045H
	DB	015H
	DB	01dH
	DB	01bH
	DB	06bH
	DB	02aH
	DB	0aH
	DB	02H
	DB	02H
	DB	03H
	DB	03H
	DB	03H
	DB	03H
	DB	03H
	DB	03H
	DB	03H
	DB	03H
	DB	03H
	DB	03H
	DB	03H
	DB	03H
	DB	03H
	DB	03H
	DB	03H
	DB	03H
	DB	03H
	DB	03H
	DB	03H
	DB	03H
	DB	03H
	DB	03H
	DB	03H
	DB	03H
	DB	03H
	DB	03H
	DB	03H
	DB	03H
	DB	03H
	DB	03H
	DB	03H
	DB	03H
	DB	03H
	DB	03H
	DB	03H
	DB	03H
	DB	03H
	DB	03H
	DB	03H
	DB	03H
	DB	03H
	DB	03H
	DB	03H
	DB	03H
	DB	016H
	DB	069H
	DB	07H
	DB	07H
	DB	07H
	DB	06H
	DB	016H
	DB	03H
	DB	03H
	DB	03H
	DB	03H
	DB	03H
	DB	03H
	DB	02H
	DB	088H
	DB	0deH
	DB	07H
	DB	07H
	DB	06H
	DB	016H
	DB	03H
	DB	016H
	DB	09H
	DB	07H
	DB	07H
	DB	0deH
	DB	00H
	DB	00H
	DB	07cH
	DB	07H
	DB	07H
	DB	07cH
	DB	00H
	DB	02H
	DB	03H
	DB	03H
	DB	00H
	DB	07cH
	DB	07H
	DB	07H
	DB	011H
	DB	00H
	DB	0bH
	DB	07H
	DB	07H
	DB	011H
	DB	0b3H
	DB	0aH
	DB	03H
	DB	03H
	DB	016H
	DB	077H
	DB	07H
	DB	07H
	DB	0deH
	DB	04H
	DB	0aH
	DB	0aH
	DB	00H
	DB	08H
	DB	069H
	DB	011H
	DB	07H
	DB	07H
	DB	07H
	DB	0f8H
	DB	00H
	DB	0deH
	DB	07H
	DB	07H
	DB	0f8H
	DB	088H
	DB	088H
	DB	088H
	DB	088H
	DB	088H
	DB	088H
	DB	088H
	DB	04H
	DB	016H
	DB	02H
	DB	03H
	DB	03H
	DB	03H
	DB	03H
	DB	016H
	DB	069H
	DB	07H
	DB	07H
	DB	07H
	DB	042H
	DB	0eH
	DB	03H
	DB	02H
	DB	0aH
	DB	00H
	DB	07cH
	DB	07H
	DB	07H
	DB	06H
	DB	00H
	DB	0bH
	DB	07H
	DB	07H
	DB	0bH
	DB	00H
	DB	0aH
	DB	0eH
	DB	088H
	DB	07H
	DB	07H
	DB	07H
	DB	06H
	DB	016H
	DB	016H
	DB	09H
	DB	07H
	DB	07H
	DB	0deH
	DB	00H
	DB	02H
	DB	02H
	DB	088H
	DB	0deH
	DB	07H
	DB	07H
	DB	06H
	DB	016H
	DB	00H
	DB	011H
	DB	07H
	DB	07H
	DB	07cH
	DB	00H
	DB	02H
	DB	02H
	DB	0b3H
	DB	011H
	DB	07H
	DB	07H
	DB	077H
	DB	00H
	DB	0b3H
	DB	011H
	DB	07H
	DB	07H
	DB	09H
	DB	088H
	DB	088H
	DB	088H
	DB	088H
	DB	088H
	DB	088H
	DB	088H
	DB	088H
	DB	0eH
	DB	02H
	DB	03H
	DB	03H
	DB	03H
	DB	03H
	DB	03H
	DB	03H
	DB	03H
	DB	03H
	DB	03H
	DB	01aH
	DB	01eH
	DB	0b3H
	DB	00H
	DB	00H
	DB	00H
	DB	00H
	DB	00H
	DB	00H
	DB	00H
	DB	04H
	DB	01eH
	DB	01aH
	DB	03H
	DB	03H
	DB	03H
	DB	03H
	DB	03H
	DB	03H
	DB	03H
	DB	03H
	DB	03H
	DB	03H
	DB	03H
	DB	016H
	DB	08H
	DB	0e0H
	DB	08H
	DB	08H
	DB	08H
	DB	08H
	DB	08H
	DB	08H
	DB	08H
	DB	08H
	DB	0c2H
	DB	0c2H
	DB	0c2H
	DB	0c2H
	DB	0c2H
	DB	0c2H
	DB	05H
	DB	05H
	DB	05H
	DB	05H
	DB	05H
	DB	05H
	DB	088H
	DB	088H
	DB	088H
	DB	088H
	DB	088H
	DB	088H
	DB	04H
	DB	04H
	DB	04H
	DB	04H
	DB	04H
	DB	04H
	DB	04H
	DB	04H
	DB	0b3H
	DB	0b3H
	DB	0b3H
	DB	0b3H
	DB	0b3H
	DB	0b3H
	DB	0b3H
	DB	0b3H
	DB	0b3H
	DB	0b3H
	DB	0b3H
	DB	00H
	DB	00H
	DB	00H
	DB	00H
	DB	00H
	DB	00H
	DB	00H
	DB	00H
	DB	00H
	DB	00H
	DB	00H
	DB	00H
	DB	00H
	DB	00H
	DB	00H
	DB	00H
	DB	00H
	DB	00H
	DB	00H
	DB	00H
	DB	00H
	DB	00H
	DB	00H
	DB	00H
	DB	00H
	DB	00H
	DB	00H
	DB	00H
	DB	00H
	DB	00H
	DB	00H
	DB	00H
	DB	00H
	DB	00H
	DB	00H
	DB	00H
	DB	00H
	DB	00H
	DB	00H
	DB	00H
	DB	00H
	DB	00H
	DB	00H
	DB	00H
	DB	00H
	DB	00H
	DB	00H
	DB	00H
	DB	00H
	DB	00H
	DB	00H
	DB	00H
	DB	00H
	DB	00H
	DB	00H
	DB	00H
	DB	00H
	DB	00H
	DB	00H
	DB	00H
	DB	00H
	DB	00H
	DB	00H
	DB	00H
	DB	00H
	DB	00H
	DB	00H
	DB	00H
	DB	00H
	DB	00H
	DB	00H
	DB	00H
	DB	00H
	DB	00H
	DB	00H
	DB	00H
	DB	00H
	DB	00H
	DB	00H
	DB	00H
	DB	00H
	DB	00H
	DB	00H
	DB	00H
	DB	0b3H
	DB	0b3H
	DB	0b3H
	DB	0b3H
	DB	0b3H
	DB	0b3H
	DB	0b3H
	DB	0b3H
	DB	0b3H
	DB	0b3H
	DB	0b3H
	DB	0b3H
	DB	04H
	DB	04H
	DB	04H
	DB	04H
	DB	04H
	DB	04H
	DB	04H
	DB	04H
	DB	04H
	DB	04H
	DB	088H
	DB	088H
	DB	088H
	DB	088H
	DB	088H
	DB	088H
	DB	088H
	DB	088H
	DB	05H
	DB	051H
	DB	037H
	DB	089H
	DB	038H
	DB	038H
	DB	01cH
	DB	01cH
	DB	01cH
	DB	01cH
	DB	01cH
	DB	01cH
	DB	01cH
	DB	024H
	DB	024H
	DB	024H
	DB	024H
	DB	024H
	DB	024H
	DB	024H
	DB	024H
	DB	024H
	DB	024H
	DB	01cH
	DB	01cH
	DB	051H
	DB	029H
	DB	02bH
	DB	02bH
	DB	02aH
	DB	0eH
	DB	0eH
	DB	0aH
	DB	0aH
	DB	02H
	DB	02H
	DB	02dH
	DB	015H
	DB	015H
	DB	015H
	DB	015H
	DB	015H
	DB	015H
	DB	015H
	DB	015H
	DB	015H
	DB	015H
	DB	015H
	DB	015H
	DB	015H
	DB	015H
	DB	015H
	DB	0afH
	DB	045H
	DB	02dH
	DB	02dH
	DB	03eH
	DB	015H
	DB	02dH
	DB	06bH
	DB	03dH
	DB	021H
	DB	022H
	DB	025H
	DB	013H
	DB	013H
	DB	0abH
	DB	076H
	DB	039H
	DB	01bH
	DB	01bH
	DB	01bH
	DB	044H
	DB	01bH
	DB	015H
	DB	01dH
	DB	015H
	DB	01bH
	DB	076H
	DB	051H
	DB	023H
	DB	0aH
	DB	02H
	DB	02H
	DB	03H
	DB	03H
	DB	03H
	DB	03H
	DB	03H
	DB	03H
	DB	03H
	DB	03H
	DB	03H
	DB	03H
	DB	03H
	DB	03H
	DB	03H
	DB	03H
	DB	03H
	DB	03H
	DB	03H
	DB	03H
	DB	03H
	DB	03H
	DB	03H
	DB	03H
	DB	03H
	DB	03H
	DB	03H
	DB	03H
	DB	03H
	DB	03H
	DB	03H
	DB	03H
	DB	03H
	DB	03H
	DB	03H
	DB	03H
	DB	03H
	DB	03H
	DB	03H
	DB	03H
	DB	03H
	DB	03H
	DB	03H
	DB	03H
	DB	03H
	DB	03H
	DB	0aH
	DB	030H
	DB	07H
	DB	07H
	DB	07H
	DB	011H
	DB	00H
	DB	0aH
	DB	03H
	DB	03H
	DB	03H
	DB	0aH
	DB	02H
	DB	0aH
	DB	088H
	DB	0deH
	DB	07H
	DB	07H
	DB	06H
	DB	0eH
	DB	03H
	DB	016H
	DB	09H
	DB	07H
	DB	07H
	DB	0deH
	DB	00H
	DB	00H
	DB	077H
	DB	07H
	DB	07H
	DB	0deH
	DB	0b3H
	DB	0aH
	DB	03H
	DB	02H
	DB	0b3H
	DB	0deH
	DB	07H
	DB	07H
	DB	0bH
	DB	00H
	DB	0f8H
	DB	07H
	DB	07H
	DB	07H
	DB	05H
	DB	0aH
	DB	03H
	DB	02H
	DB	00H
	DB	011H
	DB	07H
	DB	07H
	DB	07cH
	DB	00H
	DB	02H
	DB	03H
	DB	02H
	DB	0eH
	DB	016H
	DB	0b3H
	DB	07cH
	DB	07H
	DB	07H
	DB	077H
	DB	00H
	DB	07cH
	DB	07H
	DB	07H
	DB	077H
	DB	00H
	DB	0aH
	DB	0aH
	DB	0aH
	DB	0aH
	DB	0eH
	DB	0eH
	DB	0aH
	DB	02H
	DB	03H
	DB	03H
	DB	03H
	DB	03H
	DB	03H
	DB	0aH
	DB	042H
	DB	07H
	DB	07H
	DB	07H
	DB	077H
	DB	00H
	DB	02H
	DB	03H
	DB	02H
	DB	00H
	DB	07cH
	DB	07H
	DB	07H
	DB	06H
	DB	00H
	DB	07cH
	DB	07H
	DB	07H
	DB	077H
	DB	016H
	DB	02H
	DB	0aH
	DB	04H
	DB	0deH
	DB	07H
	DB	07H
	DB	06H
	DB	016H
	DB	016H
	DB	09H
	DB	07H
	DB	07H
	DB	0deH
	DB	00H
	DB	0aH
	DB	0aH
	DB	04H
	DB	0deH
	DB	07H
	DB	07H
	DB	06H
	DB	016H
	DB	016H
	DB	0bH
	DB	07H
	DB	07H
	DB	0deH
	DB	0b3H
	DB	0aH
	DB	0aH
	DB	04H
	DB	07H
	DB	07H
	DB	07H
	DB	077H
	DB	016H
	DB	016H
	DB	0bH
	DB	07H
	DB	07H
	DB	0bH
	DB	00H
	DB	0aH
	DB	0aH
	DB	0aH
	DB	0aH
	DB	0eH
	DB	0eH
	DB	0aH
	DB	02H
	DB	03H
	DB	03H
	DB	03H
	DB	03H
	DB	03H
	DB	03H
	DB	03H
	DB	03H
	DB	03H
	DB	03H
	DB	01aH
	DB	01eH
	DB	0b3H
	DB	00H
	DB	00H
	DB	00H
	DB	00H
	DB	00H
	DB	00H
	DB	00H
	DB	04H
	DB	01eH
	DB	01aH
	DB	03H
	DB	03H
	DB	03H
	DB	03H
	DB	03H
	DB	03H
	DB	03H
	DB	03H
	DB	03H
	DB	03H
	DB	03H
	DB	016H
	DB	08H
	DB	0e0H
	DB	08H
	DB	08H
	DB	08H
	DB	08H
	DB	08H
	DB	08H
	DB	08H
	DB	08H
	DB	0c2H
	DB	0c2H
	DB	0c2H
	DB	0c2H
	DB	0c2H
	DB	0c2H
	DB	05H
	DB	05H
	DB	05H
	DB	05H
	DB	05H
	DB	05H
	DB	088H
	DB	088H
	DB	088H
	DB	088H
	DB	088H
	DB	088H
	DB	088H
	DB	04H
	DB	04H
	DB	04H
	DB	04H
	DB	04H
	DB	04H
	DB	04H
	DB	04H
	DB	0b3H
	DB	0b3H
	DB	0b3H
	DB	0b3H
	DB	0b3H
	DB	0b3H
	DB	0b3H
	DB	0b3H
	DB	0b3H
	DB	0b3H
	DB	0b3H
	DB	00H
	DB	00H
	DB	00H
	DB	00H
	DB	00H
	DB	00H
	DB	00H
	DB	00H
	DB	00H
	DB	00H
	DB	00H
	DB	00H
	DB	00H
	DB	00H
	DB	00H
	DB	00H
	DB	00H
	DB	00H
	DB	00H
	DB	00H
	DB	00H
	DB	00H
	DB	00H
	DB	00H
	DB	00H
	DB	00H
	DB	00H
	DB	00H
	DB	00H
	DB	00H
	DB	00H
	DB	00H
	DB	00H
	DB	00H
	DB	00H
	DB	00H
	DB	00H
	DB	00H
	DB	00H
	DB	00H
	DB	00H
	DB	00H
	DB	00H
	DB	00H
	DB	00H
	DB	00H
	DB	00H
	DB	00H
	DB	00H
	DB	00H
	DB	00H
	DB	00H
	DB	00H
	DB	00H
	DB	00H
	DB	00H
	DB	00H
	DB	00H
	DB	00H
	DB	00H
	DB	00H
	DB	0b3H
	DB	0b3H
	DB	0b3H
	DB	0b3H
	DB	0b3H
	DB	0b3H
	DB	0b3H
	DB	0b3H
	DB	0b3H
	DB	0b3H
	DB	0b3H
	DB	0b3H
	DB	0b3H
	DB	0b3H
	DB	0b3H
	DB	0b3H
	DB	0b3H
	DB	0b3H
	DB	0b3H
	DB	0b3H
	DB	0b3H
	DB	0b3H
	DB	0b3H
	DB	0b3H
	DB	0b3H
	DB	0b3H
	DB	0b3H
	DB	0b3H
	DB	0b3H
	DB	0b3H
	DB	0b3H
	DB	0b3H
	DB	0b3H
	DB	04H
	DB	04H
	DB	04H
	DB	04H
	DB	04H
	DB	04H
	DB	04H
	DB	04H
	DB	04H
	DB	04H
	DB	04H
	DB	088H
	DB	088H
	DB	088H
	DB	088H
	DB	088H
	DB	088H
	DB	05H
	DB	04eH
	DB	037H
	DB	089H
	DB	037H
	DB	037H
	DB	01cH
	DB	01cH
	DB	01cH
	DB	01cH
	DB	01cH
	DB	01cH
	DB	01cH
	DB	01cH
	DB	024H
	DB	024H
	DB	024H
	DB	024H
	DB	024H
	DB	024H
	DB	024H
	DB	024H
	DB	024H
	DB	024H
	DB	024H
	DB	01cH
	DB	01cH
	DB	028H
	DB	02bH
	DB	02bH
	DB	02bH
	DB	023H
	DB	0eH
	DB	0aH
	DB	0aH
	DB	02H
	DB	02H
	DB	02fH
	DB	02dH
	DB	015H
	DB	015H
	DB	015H
	DB	015H
	DB	015H
	DB	015H
	DB	015H
	DB	015H
	DB	015H
	DB	015H
	DB	015H
	DB	015H
	DB	015H
	DB	015H
	DB	047H
	DB	045H
	DB	02dH
	DB	03eH
	DB	044H
	DB	02dH
	DB	015H
	DB	02dH
	DB	062H
	DB	04dH
	DB	021H
	DB	022H
	DB	013H
	DB	013H
	DB	013H
	DB	013H
	DB	087H
	DB	054H
	DB	064H
	DB	06bH
	DB	03eH
	DB	03eH
	DB	03eH
	DB	03fH
	DB	039H
	DB	068H
	DB	029H
	DB	0b6H
	DB	0b6H
	DB	0eH
	DB	0aH
	DB	0aH
	DB	02H
	DB	03H
	DB	03H
	DB	03H
	DB	03H
	DB	03H
	DB	03H
	DB	03H
	DB	03H
	DB	03H
	DB	03H
	DB	03H
	DB	03H
	DB	03H
	DB	03H
	DB	03H
	DB	03H
	DB	03H
	DB	03H
	DB	03H
	DB	03H
	DB	03H
	DB	03H
	DB	03H
	DB	03H
	DB	03H
	DB	03H
	DB	03H
	DB	03H
	DB	03H
	DB	03H
	DB	03H
	DB	03H
	DB	03H
	DB	03H
	DB	03H
	DB	03H
	DB	03H
	DB	03H
	DB	03H
	DB	03H
	DB	03H
	DB	03H
	DB	03H
	DB	03H
	DB	02H
	DB	00H
	DB	0bH
	DB	07H
	DB	07H
	DB	07H
	DB	077H
	DB	04H
	DB	00H
	DB	00H
	DB	016H
	DB	088H
	DB	088H
	DB	0eH
	DB	088H
	DB	0deH
	DB	07H
	DB	07H
	DB	06H
	DB	0eH
	DB	03H
	DB	016H
	DB	09H
	DB	07H
	DB	07H
	DB	0deH
	DB	00H
	DB	016H
	DB	01H
	DB	07H
	DB	07H
	DB	07H
	DB	06H
	DB	00H
	DB	0eH
	DB	00H
	DB	06H
	DB	07H
	DB	07H
	DB	07H
	DB	01H
	DB	00H
	DB	08H
	DB	07H
	DB	07H
	DB	07H
	DB	0f8H
	DB	00H
	DB	0eH
	DB	00H
	DB	01H
	DB	07H
	DB	07H
	DB	07H
	DB	06H
	DB	016H
	DB	016H
	DB	00H
	DB	0eH
	DB	0aH
	DB	0eH
	DB	00H
	DB	09H
	DB	07H
	DB	07H
	DB	09H
	DB	00H
	DB	06H
	DB	07H
	DB	07H
	DB	07H
	DB	08H
	DB	00H
	DB	0eH
	DB	0eH
	DB	016H
	DB	016H
	DB	0b3H
	DB	0eH
	DB	02H
	DB	03H
	DB	03H
	DB	03H
	DB	03H
	DB	03H
	DB	02H
	DB	00H
	DB	011H
	DB	07H
	DB	07H
	DB	07H
	DB	01eH
	DB	00H
	DB	00H
	DB	00H
	DB	05H
	DB	0deH
	DB	07H
	DB	07H
	DB	06H
	DB	00H
	DB	07cH
	DB	07H
	DB	07H
	DB	011H
	DB	0b3H
	DB	016H
	DB	00H
	DB	042H
	DB	07H
	DB	07H
	DB	07H
	DB	06H
	DB	016H
	DB	016H
	DB	09H
	DB	07H
	DB	07H
	DB	07H
	DB	042H
	DB	00H
	DB	088H
	DB	09H
	DB	07H
	DB	07H
	DB	07H
	DB	06H
	DB	0eH
	DB	0eH
	DB	01eH
	DB	07H
	DB	07H
	DB	07H
	DB	0f8H
	DB	0b3H
	DB	0b3H
	DB	0f8H
	DB	07H
	DB	07H
	DB	07H
	DB	077H
	DB	016H
	DB	016H
	DB	06H
	DB	07H
	DB	07H
	DB	07H
	DB	042H
	DB	00H
	DB	0eH
	DB	0eH
	DB	016H
	DB	00H
	DB	04H
	DB	0eH
	DB	02H
	DB	03H
	DB	03H
	DB	03H
	DB	03H
	DB	03H
	DB	03H
	DB	03H
	DB	03H
	DB	03H
	DB	03H
	DB	01aH
	DB	01eH
	DB	0b3H
	DB	00H
	DB	00H
	DB	00H
	DB	00H
	DB	00H
	DB	00H
	DB	00H
	DB	04H
	DB	01eH
	DB	01aH
	DB	03H
	DB	03H
	DB	03H
	DB	03H
	DB	03H
	DB	03H
	DB	03H
	DB	03H
	DB	03H
	DB	03H
	DB	03H
	DB	016H
	DB	08H
	DB	0e0H
	DB	08H
	DB	08H
	DB	08H
	DB	08H
	DB	08H
	DB	08H
	DB	08H
	DB	08H
	DB	0c2H
	DB	0c2H
	DB	0c2H
	DB	0c2H
	DB	0c2H
	DB	0c2H
	DB	0c2H
	DB	05H
	DB	05H
	DB	05H
	DB	05H
	DB	05H
	DB	05H
	DB	088H
	DB	088H
	DB	088H
	DB	088H
	DB	088H
	DB	088H
	DB	088H
	DB	04H
	DB	04H
	DB	04H
	DB	04H
	DB	04H
	DB	04H
	DB	04H
	DB	04H
	DB	0b3H
	DB	0b3H
	DB	0b3H
	DB	0b3H
	DB	0b3H
	DB	0b3H
	DB	0b3H
	DB	0b3H
	DB	0b3H
	DB	0b3H
	DB	0b3H
	DB	0b3H
	DB	00H
	DB	00H
	DB	00H
	DB	00H
	DB	00H
	DB	00H
	DB	00H
	DB	00H
	DB	00H
	DB	00H
	DB	00H
	DB	00H
	DB	00H
	DB	00H
	DB	00H
	DB	00H
	DB	00H
	DB	00H
	DB	00H
	DB	00H
	DB	00H
	DB	00H
	DB	00H
	DB	00H
	DB	00H
	DB	00H
	DB	00H
	DB	00H
	DB	00H
	DB	00H
	DB	00H
	DB	00H
	DB	00H
	DB	00H
	DB	00H
	DB	00H
	DB	00H
	DB	00H
	DB	00H
	DB	00H
	DB	00H
	DB	00H
	DB	00H
	DB	00H
	DB	00H
	DB	00H
	DB	00H
	DB	00H
	DB	00H
	DB	00H
	DB	00H
	DB	00H
	DB	00H
	DB	00H
	DB	00H
	DB	00H
	DB	00H
	DB	0b3H
	DB	0b3H
	DB	0b3H
	DB	0b3H
	DB	0b3H
	DB	0b3H
	DB	0b3H
	DB	0b3H
	DB	0b3H
	DB	0b3H
	DB	0b3H
	DB	0b3H
	DB	0b3H
	DB	0b3H
	DB	0b3H
	DB	0b3H
	DB	0b3H
	DB	0b3H
	DB	0b3H
	DB	0b3H
	DB	0b3H
	DB	0b3H
	DB	0b3H
	DB	0b3H
	DB	0b3H
	DB	0b3H
	DB	0b3H
	DB	0b3H
	DB	0b3H
	DB	0b3H
	DB	0b3H
	DB	0b3H
	DB	0b3H
	DB	04H
	DB	04H
	DB	04H
	DB	04H
	DB	04H
	DB	04H
	DB	04H
	DB	04H
	DB	04H
	DB	04H
	DB	04H
	DB	04H
	DB	088H
	DB	088H
	DB	088H
	DB	088H
	DB	088H
	DB	088H
	DB	088H
	DB	04eH
	DB	089H
	DB	07aH
	DB	089H
	DB	051H
	DB	030H
	DB	037H
	DB	01cH
	DB	01cH
	DB	01cH
	DB	01cH
	DB	01cH
	DB	01cH
	DB	01cH
	DB	024H
	DB	024H
	DB	024H
	DB	024H
	DB	024H
	DB	024H
	DB	024H
	DB	024H
	DB	024H
	DB	024H
	DB	024H
	DB	01cH
	DB	051H
	DB	02aH
	DB	02bH
	DB	02bH
	DB	02aH
	DB	0eH
	DB	0eH
	DB	0aH
	DB	0aH
	DB	02H
	DB	02H
	DB	02fH
	DB	01bH
	DB	015H
	DB	015H
	DB	015H
	DB	015H
	DB	015H
	DB	015H
	DB	015H
	DB	015H
	DB	015H
	DB	015H
	DB	015H
	DB	015H
	DB	015H
	DB	02dH
	DB	0bfH
	DB	015H
	DB	039H
	DB	01bH
	DB	03eH
	DB	01bH
	DB	01bH
	DB	03eH
	DB	062H
	DB	03dH
	DB	021H
	DB	021H
	DB	022H
	DB	013H
	DB	013H
	DB	041H
	DB	02eH
	DB	013H
	DB	013H
	DB	087H
	DB	09eH
	DB	09eH
	DB	0abH
	DB	0abH
	DB	054H
	DB	081H
	DB	013H
	DB	013H
	DB	036H
	DB	0eH
	DB	0aH
	DB	0aH
	DB	02H
	DB	02H
	DB	03H
	DB	03H
	DB	03H
	DB	03H
	DB	03H
	DB	03H
	DB	03H
	DB	03H
	DB	03H
	DB	03H
	DB	03H
	DB	03H
	DB	03H
	DB	03H
	DB	03H
	DB	03H
	DB	03H
	DB	03H
	DB	03H
	DB	03H
	DB	03H
	DB	03H
	DB	03H
	DB	03H
	DB	03H
	DB	03H
	DB	03H
	DB	03H
	DB	03H
	DB	03H
	DB	03H
	DB	03H
	DB	03H
	DB	03H
	DB	03H
	DB	03H
	DB	03H
	DB	03H
	DB	03H
	DB	03H
	DB	03H
	DB	03H
	DB	03H
	DB	03H
	DB	0aH
	DB	088H
	DB	0deH
	DB	07H
	DB	07H
	DB	07H
	DB	0deH
	DB	0bH
	DB	0bH
	DB	07cH
	DB	0deH
	DB	09H
	DB	00H
	DB	088H
	DB	0deH
	DB	07H
	DB	07H
	DB	06H
	DB	0eH
	DB	03H
	DB	016H
	DB	09H
	DB	07H
	DB	07H
	DB	0deH
	DB	00H
	DB	0aH
	DB	00H
	DB	0bH
	DB	07H
	DB	07H
	DB	07H
	DB	09H
	DB	01eH
	DB	09H
	DB	07H
	DB	07H
	DB	07H
	DB	07cH
	DB	00H
	DB	0aH
	DB	00H
	DB	077H
	DB	07H
	DB	07H
	DB	07H
	DB	077H
	DB	01eH
	DB	09H
	DB	07H
	DB	07H
	DB	07H
	DB	011H
	DB	0b3H
	DB	016H
	DB	0c2H
	DB	077H
	DB	06H
	DB	08H
	DB	0e0H
	DB	09H
	DB	07H
	DB	07H
	DB	07H
	DB	01H
	DB	016H
	DB	04H
	DB	011H
	DB	07H
	DB	07H
	DB	0deH
	DB	09H
	DB	01eH
	DB	01eH
	DB	09H
	DB	07cH
	DB	0bH
	DB	0b3H
	DB	02H
	DB	03H
	DB	03H
	DB	03H
	DB	03H
	DB	03H
	DB	03H
	DB	0eH
	DB	08H
	DB	07H
	DB	07H
	DB	07H
	DB	07H
	DB	07cH
	DB	0bH
	DB	07cH
	DB	0deH
	DB	07H
	DB	07H
	DB	0deH
	DB	0c2H
	DB	00H
	DB	0f8H
	DB	07H
	DB	07H
	DB	07H
	DB	07cH
	DB	01eH
	DB	069H
	DB	0deH
	DB	07H
	DB	07H
	DB	07H
	DB	06H
	DB	0eH
	DB	0eH
	DB	01eH
	DB	07H
	DB	07H
	DB	07H
	DB	0deH
	DB	07cH
	DB	0deH
	DB	07H
	DB	07H
	DB	07H
	DB	07H
	DB	06H
	DB	0eH
	DB	0aH
	DB	0b3H
	DB	011H
	DB	07H
	DB	07H
	DB	07H
	DB	011H
	DB	011H
	DB	07H
	DB	07H
	DB	07H
	DB	07H
	DB	077H
	DB	016H
	DB	0aH
	DB	03bH
	DB	011H
	DB	07H
	DB	07H
	DB	07H
	DB	077H
	DB	01eH
	DB	01eH
	DB	09H
	DB	07cH
	DB	07cH
	DB	0b3H
	DB	02H
	DB	03H
	DB	03H
	DB	03H
	DB	03H
	DB	03H
	DB	03H
	DB	03H
	DB	03H
	DB	03H
	DB	03H
	DB	01aH
	DB	01eH
	DB	0b3H
	DB	00H
	DB	00H
	DB	00H
	DB	00H
	DB	00H
	DB	00H
	DB	00H
	DB	04H
	DB	01eH
	DB	01aH
	DB	03H
	DB	03H
	DB	03H
	DB	03H
	DB	03H
	DB	03H
	DB	03H
	DB	03H
	DB	03H
	DB	03H
	DB	03H
	DB	016H
	DB	08H
	DB	0e0H
	DB	08H
	DB	08H
	DB	08H
	DB	08H
	DB	08H
	DB	08H
	DB	08H
	DB	08H
	DB	08H
	DB	0c2H
	DB	0c2H
	DB	0c2H
	DB	0c2H
	DB	0c2H
	DB	0c2H
	DB	05H
	DB	05H
	DB	05H
	DB	05H
	DB	05H
	DB	05H
	DB	088H
	DB	088H
	DB	088H
	DB	088H
	DB	088H
	DB	088H
	DB	088H
	DB	04H
	DB	04H
	DB	04H
	DB	04H
	DB	04H
	DB	04H
	DB	04H
	DB	04H
	DB	04H
	DB	04H
	DB	0b3H
	DB	0b3H
	DB	0b3H
	DB	0b3H
	DB	0b3H
	DB	0b3H
	DB	0b3H
	DB	0b3H
	DB	0b3H
	DB	0b3H
	DB	0b3H
	DB	0b3H
	DB	00H
	DB	00H
	DB	00H
	DB	00H
	DB	00H
	DB	00H
	DB	00H
	DB	00H
	DB	00H
	DB	00H
	DB	00H
	DB	00H
	DB	00H
	DB	00H
	DB	00H
	DB	00H
	DB	00H
	DB	00H
	DB	00H
	DB	00H
	DB	00H
	DB	00H
	DB	00H
	DB	00H
	DB	00H
	DB	00H
	DB	00H
	DB	00H
	DB	00H
	DB	00H
	DB	00H
	DB	00H
	DB	00H
	DB	00H
	DB	00H
	DB	00H
	DB	00H
	DB	00H
	DB	00H
	DB	00H
	DB	00H
	DB	00H
	DB	00H
	DB	00H
	DB	00H
	DB	00H
	DB	00H
	DB	00H
	DB	00H
	DB	00H
	DB	00H
	DB	00H
	DB	00H
	DB	00H
	DB	00H
	DB	0b3H
	DB	0b3H
	DB	0b3H
	DB	0b3H
	DB	0b3H
	DB	0b3H
	DB	0b3H
	DB	0b3H
	DB	0b3H
	DB	0b3H
	DB	0b3H
	DB	0b3H
	DB	0b3H
	DB	0b3H
	DB	0b3H
	DB	0b3H
	DB	0b3H
	DB	0b3H
	DB	0b3H
	DB	0b3H
	DB	0b3H
	DB	0b3H
	DB	0b3H
	DB	0b3H
	DB	0b3H
	DB	0b3H
	DB	0b3H
	DB	0b3H
	DB	0b3H
	DB	0b3H
	DB	0b3H
	DB	0b3H
	DB	04H
	DB	04H
	DB	04H
	DB	04H
	DB	04H
	DB	04H
	DB	04H
	DB	04H
	DB	04H
	DB	04H
	DB	04H
	DB	04H
	DB	04H
	DB	088H
	DB	088H
	DB	088H
	DB	088H
	DB	088H
	DB	088H
	DB	088H
	DB	04eH
	DB	07aH
	DB	07aH
	DB	089H
	DB	051H
	DB	030H
	DB	030H
	DB	037H
	DB	01cH
	DB	01cH
	DB	01cH
	DB	01cH
	DB	01cH
	DB	01cH
	DB	01cH
	DB	024H
	DB	024H
	DB	024H
	DB	024H
	DB	024H
	DB	024H
	DB	024H
	DB	024H
	DB	024H
	DB	01cH
	DB	01cH
	DB	028H
	DB	02bH
	DB	02bH
	DB	02bH
	DB	023H
	DB	0eH
	DB	0aH
	DB	0aH
	DB	0aH
	DB	02H
	DB	02H
	DB	055H
	DB	01bH
	DB	01bH
	DB	015H
	DB	015H
	DB	015H
	DB	015H
	DB	015H
	DB	015H
	DB	015H
	DB	015H
	DB	015H
	DB	015H
	DB	015H
	DB	015H
	DB	0afH
	DB	01dH
	DB	039H
	DB	044H
	DB	044H
	DB	01bH
	DB	015H
	DB	01bH
	DB	03eH
	DB	062H
	DB	03dH
	DB	021H
	DB	021H
	DB	022H
	DB	041H
	DB	0b6H
	DB	036H
	DB	08cH
	DB	029H
	DB	054H
	DB	013H
	DB	013H
	DB	013H
	DB	013H
	DB	013H
	DB	013H
	DB	013H
	DB	013H
	DB	041H
	DB	029H
	DB	0eH
	DB	0aH
	DB	0aH
	DB	02H
	DB	02H
	DB	03H
	DB	03H
	DB	03H
	DB	03H
	DB	03H
	DB	03H
	DB	03H
	DB	03H
	DB	03H
	DB	03H
	DB	03H
	DB	03H
	DB	03H
	DB	03H
	DB	03H
	DB	03H
	DB	03H
	DB	03H
	DB	03H
	DB	03H
	DB	03H
	DB	03H
	DB	03H
	DB	03H
	DB	03H
	DB	03H
	DB	03H
	DB	03H
	DB	03H
	DB	03H
	DB	03H
	DB	03H
	DB	03H
	DB	03H
	DB	03H
	DB	03H
	DB	03H
	DB	03H
	DB	03H
	DB	03H
	DB	03H
	DB	03H
	DB	03H
	DB	03H
	DB	03H
	DB	016H
	DB	05H
	DB	07cH
	DB	07H
	DB	07H
	DB	07H
	DB	07H
	DB	07H
	DB	07H
	DB	07H
	DB	07cH
	DB	00H
	DB	088H
	DB	07H
	DB	07H
	DB	07H
	DB	06H
	DB	016H
	DB	03H
	DB	016H
	DB	09H
	DB	07H
	DB	07H
	DB	0deH
	DB	00H
	DB	02H
	DB	0aH
	DB	03bH
	DB	0bH
	DB	07H
	DB	07H
	DB	07H
	DB	07H
	DB	07H
	DB	07H
	DB	07H
	DB	07cH
	DB	04H
	DB	0eH
	DB	02H
	DB	0aH
	DB	03bH
	DB	077H
	DB	07H
	DB	07H
	DB	07H
	DB	07H
	DB	07H
	DB	07H
	DB	07H
	DB	011H
	DB	05H
	DB	0eH
	DB	016H
	DB	06H
	DB	07H
	DB	07H
	DB	07H
	DB	07H
	DB	07H
	DB	07H
	DB	07H
	DB	0f8H
	DB	00H
	DB	0aH
	DB	0eH
	DB	05H
	DB	011H
	DB	07H
	DB	07H
	DB	07H
	DB	07H
	DB	07H
	DB	07H
	DB	07H
	DB	0deH
	DB	0b3H
	DB	02H
	DB	03H
	DB	03H
	DB	03H
	DB	03H
	DB	03H
	DB	03H
	DB	02H
	DB	00H
	DB	01H
	DB	0deH
	DB	07H
	DB	07H
	DB	07H
	DB	07H
	DB	07H
	DB	07H
	DB	07H
	DB	011H
	DB	08H
	DB	016H
	DB	0eH
	DB	04H
	DB	011H
	DB	07H
	DB	07H
	DB	07H
	DB	07H
	DB	07H
	DB	07cH
	DB	0deH
	DB	07H
	DB	07H
	DB	06H
	DB	0eH
	DB	0aH
	DB	04H
	DB	0deH
	DB	07H
	DB	07H
	DB	07H
	DB	07H
	DB	07H
	DB	05aH
	DB	0deH
	DB	07H
	DB	07H
	DB	06H
	DB	016H
	DB	03H
	DB	0eH
	DB	08H
	DB	0deH
	DB	07H
	DB	07H
	DB	07H
	DB	07H
	DB	0f8H
	DB	07cH
	DB	07H
	DB	07H
	DB	077H
	DB	016H
	DB	02H
	DB	0eH
	DB	088H
	DB	011H
	DB	07H
	DB	07H
	DB	07H
	DB	07H
	DB	07H
	DB	07H
	DB	07H
	DB	0deH
	DB	088H
	DB	0aH
	DB	03H
	DB	03H
	DB	03H
	DB	03H
	DB	03H
	DB	03H
	DB	03H
	DB	03H
	DB	03H
	DB	03H
	DB	01aH
	DB	01eH
	DB	0b3H
	DB	00H
	DB	00H
	DB	00H
	DB	00H
	DB	00H
	DB	00H
	DB	00H
	DB	04H
	DB	01eH
	DB	01aH
	DB	03H
	DB	03H
	DB	03H
	DB	03H
	DB	03H
	DB	03H
	DB	03H
	DB	03H
	DB	03H
	DB	03H
	DB	03H
	DB	016H
	DB	08H
	DB	0e0H
	DB	042H
	DB	08H
	DB	08H
	DB	08H
	DB	08H
	DB	08H
	DB	08H
	DB	08H
	DB	08H
	DB	0c2H
	DB	0c2H
	DB	0c2H
	DB	0c2H
	DB	0c2H
	DB	0c2H
	DB	0c2H
	DB	05H
	DB	05H
	DB	05H
	DB	05H
	DB	05H
	DB	05H
	DB	05H
	DB	088H
	DB	088H
	DB	088H
	DB	088H
	DB	088H
	DB	088H
	DB	088H
	DB	04H
	DB	04H
	DB	04H
	DB	04H
	DB	04H
	DB	04H
	DB	04H
	DB	04H
	DB	04H
	DB	0b3H
	DB	0b3H
	DB	0b3H
	DB	0b3H
	DB	0b3H
	DB	0b3H
	DB	0b3H
	DB	0b3H
	DB	0b3H
	DB	0b3H
	DB	0b3H
	DB	0b3H
	DB	0b3H
	DB	00H
	DB	00H
	DB	00H
	DB	00H
	DB	00H
	DB	00H
	DB	00H
	DB	00H
	DB	00H
	DB	00H
	DB	00H
	DB	00H
	DB	00H
	DB	00H
	DB	00H
	DB	00H
	DB	00H
	DB	00H
	DB	00H
	DB	00H
	DB	00H
	DB	00H
	DB	00H
	DB	00H
	DB	00H
	DB	00H
	DB	00H
	DB	00H
	DB	00H
	DB	00H
	DB	00H
	DB	00H
	DB	00H
	DB	00H
	DB	00H
	DB	00H
	DB	00H
	DB	00H
	DB	00H
	DB	00H
	DB	00H
	DB	00H
	DB	00H
	DB	00H
	DB	00H
	DB	00H
	DB	00H
	DB	00H
	DB	00H
	DB	00H
	DB	00H
	DB	00H
	DB	00H
	DB	0b3H
	DB	0b3H
	DB	0b3H
	DB	0b3H
	DB	0b3H
	DB	0b3H
	DB	0b3H
	DB	0b3H
	DB	0b3H
	DB	0b3H
	DB	0b3H
	DB	0b3H
	DB	0b3H
	DB	0b3H
	DB	0b3H
	DB	0b3H
	DB	0b3H
	DB	0b3H
	DB	0b3H
	DB	0b3H
	DB	0b3H
	DB	0b3H
	DB	0b3H
	DB	0b3H
	DB	0b3H
	DB	0b3H
	DB	0b3H
	DB	0b3H
	DB	0b3H
	DB	0b3H
	DB	04H
	DB	04H
	DB	04H
	DB	04H
	DB	04H
	DB	04H
	DB	04H
	DB	04H
	DB	04H
	DB	04H
	DB	04H
	DB	04H
	DB	04H
	DB	04H
	DB	088H
	DB	088H
	DB	088H
	DB	088H
	DB	088H
	DB	088H
	DB	088H
	DB	088H
	DB	037H
	DB	038H
	DB	08dH
	DB	0ecH
	DB	037H
	DB	051H
	DB	051H
	DB	051H
	DB	051H
	DB	051H
	DB	037H
	DB	01cH
	DB	01cH
	DB	01cH
	DB	01cH
	DB	01cH
	DB	01cH
	DB	024H
	DB	024H
	DB	024H
	DB	024H
	DB	024H
	DB	024H
	DB	024H
	DB	01cH
	DB	051H
	DB	028H
	DB	02bH
	DB	02bH
	DB	02bH
	DB	023H
	DB	0eH
	DB	0aH
	DB	0aH
	DB	02H
	DB	02H
	DB	02H
	DB	072H
	DB	01bH
	DB	01bH
	DB	01bH
	DB	015H
	DB	015H
	DB	015H
	DB	015H
	DB	015H
	DB	015H
	DB	015H
	DB	015H
	DB	015H
	DB	015H
	DB	03fH
	DB	02dH
	DB	015H
	DB	03eH
	DB	044H
	DB	044H
	DB	02dH
	DB	015H
	DB	01bH
	DB	044H
	DB	062H
	DB	046H
	DB	020H
	DB	020H
	DB	021H
	DB	05dH
	DB	0f9H
	DB	041H
	DB	013H
	DB	02eH
	DB	036H
	DB	029H
	DB	02eH
	DB	013H
	DB	013H
	DB	013H
	DB	013H
	DB	0fH
	DB	013H
	DB	02eH
	DB	04eH
	DB	0eH
	DB	0aH
	DB	0aH
	DB	02H
	DB	02H
	DB	03H
	DB	03H
	DB	03H
	DB	03H
	DB	03H
	DB	03H
	DB	03H
	DB	03H
	DB	03H
	DB	03H
	DB	03H
	DB	03H
	DB	03H
	DB	03H
	DB	03H
	DB	03H
	DB	03H
	DB	03H
	DB	03H
	DB	03H
	DB	03H
	DB	03H
	DB	03H
	DB	03H
	DB	03H
	DB	03H
	DB	03H
	DB	03H
	DB	03H
	DB	03H
	DB	03H
	DB	03H
	DB	03H
	DB	03H
	DB	03H
	DB	03H
	DB	03H
	DB	03H
	DB	03H
	DB	03H
	DB	03H
	DB	03H
	DB	03H
	DB	03H
	DB	03H
	DB	03H
	DB	0eH
	DB	00H
	DB	01H
	DB	077H
	DB	07cH
	DB	011H
	DB	011H
	DB	07cH
	DB	09H
	DB	08H
	DB	016H
	DB	04H
	DB	07cH
	DB	011H
	DB	011H
	DB	01H
	DB	0eH
	DB	03H
	DB	016H
	DB	06H
	DB	011H
	DB	011H
	DB	07cH
	DB	00H
	DB	02H
	DB	03H
	DB	0aH
	DB	00H
	DB	01H
	DB	0bH
	DB	07cH
	DB	011H
	DB	011H
	DB	0bH
	DB	01eH
	DB	0b3H
	DB	0eH
	DB	02H
	DB	02H
	DB	03H
	DB	0aH
	DB	00H
	DB	042H
	DB	077H
	DB	07cH
	DB	011H
	DB	011H
	DB	0bH
	DB	06H
	DB	0b3H
	DB	016H
	DB	02H
	DB	0eH
	DB	088H
	DB	0f8H
	DB	07cH
	DB	011H
	DB	011H
	DB	07cH
	DB	077H
	DB	042H
	DB	00H
	DB	0aH
	DB	02H
	DB	02H
	DB	0eH
	DB	0b3H
	DB	06H
	DB	0a9H
	DB	011H
	DB	011H
	DB	011H
	DB	0bH
	DB	01eH
	DB	088H
	DB	016H
	DB	03H
	DB	03H
	DB	03H
	DB	03H
	DB	03H
	DB	03H
	DB	03H
	DB	03H
	DB	02H
	DB	016H
	DB	04H
	DB	06H
	DB	07cH
	DB	011H
	DB	011H
	DB	07cH
	DB	0bH
	DB	01eH
	DB	0b3H
	DB	016H
	DB	0aH
	DB	02H
	DB	0eH
	DB	04H
	DB	09H
	DB	07cH
	DB	011H
	DB	07cH
	DB	06H
	DB	00H
	DB	09H
	DB	011H
	DB	011H
	DB	01H
	DB	016H
	DB	03H
	DB	016H
	DB	030H
	DB	0bH
	DB	011H
	DB	07cH
	DB	09H
	DB	088H
	DB	00H
	DB	0bH
	DB	011H
	DB	011H
	DB	01H
	DB	0eH
	DB	03H
	DB	02H
	DB	00H
	DB	04H
	DB	06H
	DB	09H
	DB	09H
	DB	08H
	DB	00H
	DB	011H
	DB	07H
	DB	07H
	DB	069H
	DB	016H
	DB	03H
	DB	03H
	DB	0eH
	DB	0b3H
	DB	01eH
	DB	0bH
	DB	011H
	DB	011H
	DB	011H
	DB	0bH
	DB	06H
	DB	088H
	DB	016H
	DB	02H
	DB	03H
	DB	03H
	DB	03H
	DB	03H
	DB	03H
	DB	03H
	DB	03H
	DB	03H
	DB	03H
	DB	03H
	DB	01aH
	DB	01eH
	DB	0b3H
	DB	00H
	DB	00H
	DB	00H
	DB	00H
	DB	00H
	DB	00H
	DB	00H
	DB	04H
	DB	01eH
	DB	01aH
	DB	03H
	DB	03H
	DB	03H
	DB	03H
	DB	03H
	DB	03H
	DB	03H
	DB	03H
	DB	03H
	DB	03H
	DB	03H
	DB	016H
	DB	08H
	DB	0e0H
	DB	042H
	DB	042H
	DB	08H
	DB	08H
	DB	08H
	DB	08H
	DB	08H
	DB	08H
	DB	08H
	DB	08H
	DB	0c2H
	DB	0c2H
	DB	0c2H
	DB	0c2H
	DB	0c2H
	DB	0c2H
	DB	0c2H
	DB	05H
	DB	05H
	DB	05H
	DB	05H
	DB	05H
	DB	05H
	DB	088H
	DB	088H
	DB	088H
	DB	088H
	DB	088H
	DB	088H
	DB	088H
	DB	088H
	DB	04H
	DB	04H
	DB	04H
	DB	04H
	DB	04H
	DB	04H
	DB	04H
	DB	04H
	DB	04H
	DB	0b3H
	DB	0b3H
	DB	0b3H
	DB	0b3H
	DB	0b3H
	DB	0b3H
	DB	0b3H
	DB	0b3H
	DB	0b3H
	DB	0b3H
	DB	0b3H
	DB	0b3H
	DB	0b3H
	DB	0b3H
	DB	00H
	DB	00H
	DB	00H
	DB	00H
	DB	00H
	DB	00H
	DB	00H
	DB	00H
	DB	00H
	DB	00H
	DB	00H
	DB	00H
	DB	00H
	DB	00H
	DB	00H
	DB	00H
	DB	00H
	DB	00H
	DB	00H
	DB	00H
	DB	00H
	DB	00H
	DB	00H
	DB	00H
	DB	00H
	DB	00H
	DB	00H
	DB	00H
	DB	00H
	DB	00H
	DB	00H
	DB	00H
	DB	00H
	DB	00H
	DB	00H
	DB	00H
	DB	00H
	DB	00H
	DB	00H
	DB	00H
	DB	00H
	DB	00H
	DB	00H
	DB	00H
	DB	00H
	DB	00H
	DB	00H
	DB	00H
	DB	00H
	DB	00H
	DB	00H
	DB	0b3H
	DB	0b3H
	DB	0b3H
	DB	0b3H
	DB	0b3H
	DB	0b3H
	DB	0b3H
	DB	0b3H
	DB	0b3H
	DB	0b3H
	DB	0b3H
	DB	0b3H
	DB	0b3H
	DB	0b3H
	DB	0b3H
	DB	0b3H
	DB	0b3H
	DB	0b3H
	DB	0b3H
	DB	0b3H
	DB	0b3H
	DB	0b3H
	DB	0b3H
	DB	0b3H
	DB	0b3H
	DB	0b3H
	DB	0b3H
	DB	0b3H
	DB	04H
	DB	04H
	DB	04H
	DB	04H
	DB	04H
	DB	04H
	DB	04H
	DB	04H
	DB	04H
	DB	04H
	DB	04H
	DB	04H
	DB	04H
	DB	04H
	DB	04H
	DB	088H
	DB	088H
	DB	088H
	DB	088H
	DB	088H
	DB	088H
	DB	088H
	DB	088H
	DB	088H
	DB	037H
	DB	038H
	DB	038H
	DB	08dH
	DB	07aH
	DB	07aH
	DB	038H
	DB	037H
	DB	051H
	DB	010H
	DB	010H
	DB	010H
	DB	051H
	DB	01cH
	DB	01cH
	DB	01cH
	DB	01cH
	DB	01cH
	DB	024H
	DB	024H
	DB	024H
	DB	024H
	DB	024H
	DB	024H
	DB	01cH
	DB	051H
	DB	02aH
	DB	02bH
	DB	02bH
	DB	02aH
	DB	0eH
	DB	0eH
	DB	0aH
	DB	0aH
	DB	02H
	DB	02H
	DB	02H
	DB	072H
	DB	01bH
	DB	01bH
	DB	01bH
	DB	01bH
	DB	015H
	DB	015H
	DB	015H
	DB	015H
	DB	015H
	DB	015H
	DB	015H
	DB	015H
	DB	03eH
	DB	03fH
	DB	015H
	DB	045H
	DB	039H
	DB	01bH
	DB	01bH
	DB	02dH
	DB	015H
	DB	01bH
	DB	044H
	DB	062H
	DB	046H
	DB	020H
	DB	035H
	DB	021H
	DB	022H
	DB	022H
	DB	025H
	DB	013H
	DB	013H
	DB	0fH
	DB	081H
	DB	029H
	DB	09eH
	DB	013H
	DB	025H
	DB	013H
	DB	013H
	DB	025H
	DB	054H
	DB	028H
	DB	0aH
	DB	0aH
	DB	0aH
	DB	02H
	DB	03H
	DB	03H
	DB	03H
	DB	03H
	DB	03H
	DB	03H
	DB	03H
	DB	03H
	DB	03H
	DB	03H
	DB	03H
	DB	03H
	DB	03H
	DB	03H
	DB	03H
	DB	03H
	DB	03H
	DB	03H
	DB	03H
	DB	03H
	DB	03H
	DB	03H
	DB	03H
	DB	03H
	DB	03H
	DB	03H
	DB	03H
	DB	03H
	DB	03H
	DB	03H
	DB	03H
	DB	03H
	DB	03H
	DB	03H
	DB	03H
	DB	03H
	DB	03H
	DB	03H
	DB	03H
	DB	03H
	DB	03H
	DB	03H
	DB	03H
	DB	03H
	DB	03H
	DB	03H
	DB	03H
	DB	03H
	DB	0aH
	DB	0eH
	DB	00H
	DB	00H
	DB	0b3H
	DB	016H
	DB	00H
	DB	016H
	DB	0eH
	DB	02H
	DB	016H
	DB	016H
	DB	0b3H
	DB	0b3H
	DB	00H
	DB	0aH
	DB	03H
	DB	0aH
	DB	016H
	DB	0b3H
	DB	0b3H
	DB	0b3H
	DB	0eH
	DB	02H
	DB	03H
	DB	03H
	DB	0aH
	DB	0eH
	DB	00H
	DB	00H
	DB	0b3H
	DB	00H
	DB	00H
	DB	016H
	DB	0aH
	DB	02H
	DB	02H
	DB	02H
	DB	03H
	DB	03H
	DB	02H
	DB	0eH
	DB	00H
	DB	00H
	DB	0b3H
	DB	016H
	DB	00H
	DB	016H
	DB	0aH
	DB	02H
	DB	02H
	DB	02H
	DB	0aH
	DB	016H
	DB	00H
	DB	0b3H
	DB	0b3H
	DB	00H
	DB	00H
	DB	0eH
	DB	0aH
	DB	02H
	DB	02H
	DB	03H
	DB	03H
	DB	0aH
	DB	016H
	DB	00H
	DB	00H
	DB	0b3H
	DB	00H
	DB	00H
	DB	016H
	DB	0aH
	DB	02H
	DB	03H
	DB	03H
	DB	03H
	DB	03H
	DB	03H
	DB	03H
	DB	03H
	DB	03H
	DB	03H
	DB	02H
	DB	0aH
	DB	016H
	DB	00H
	DB	00H
	DB	0b3H
	DB	00H
	DB	00H
	DB	016H
	DB	0aH
	DB	02H
	DB	02H
	DB	02H
	DB	02H
	DB	0aH
	DB	00H
	DB	00H
	DB	0b3H
	DB	00H
	DB	016H
	DB	0eH
	DB	016H
	DB	0b3H
	DB	0b3H
	DB	00H
	DB	0aH
	DB	03H
	DB	03H
	DB	0eH
	DB	00H
	DB	0b3H
	DB	00H
	DB	00H
	DB	0eH
	DB	0eH
	DB	00H
	DB	0b3H
	DB	0b3H
	DB	00H
	DB	0aH
	DB	03H
	DB	0eH
	DB	0c2H
	DB	0b3H
	DB	00H
	DB	00H
	DB	00H
	DB	00H
	DB	06H
	DB	07H
	DB	07H
	DB	07H
	DB	08H
	DB	0eH
	DB	03H
	DB	03H
	DB	03H
	DB	0aH
	DB	016H
	DB	00H
	DB	00H
	DB	0b3H
	DB	00H
	DB	00H
	DB	016H
	DB	0aH
	DB	02H
	DB	03H
	DB	03H
	DB	03H
	DB	03H
	DB	03H
	DB	03H
	DB	03H
	DB	03H
	DB	03H
	DB	03H
	DB	03H
	DB	01aH
	DB	01eH
	DB	0b3H
	DB	00H
	DB	00H
	DB	00H
	DB	00H
	DB	00H
	DB	00H
	DB	00H
	DB	04H
	DB	01eH
	DB	01aH
	DB	03H
	DB	03H
	DB	03H
	DB	03H
	DB	03H
	DB	03H
	DB	03H
	DB	03H
	DB	03H
	DB	03H
	DB	03H
	DB	016H
	DB	08H
	DB	0e0H
	DB	042H
	DB	042H
	DB	08H
	DB	08H
	DB	08H
	DB	08H
	DB	08H
	DB	08H
	DB	08H
	DB	08H
	DB	08H
	DB	0c2H
	DB	0c2H
	DB	0c2H
	DB	0c2H
	DB	0c2H
	DB	0c2H
	DB	05H
	DB	05H
	DB	05H
	DB	05H
	DB	05H
	DB	05H
	DB	05H
	DB	088H
	DB	088H
	DB	088H
	DB	088H
	DB	088H
	DB	088H
	DB	088H
	DB	088H
	DB	04H
	DB	04H
	DB	04H
	DB	04H
	DB	04H
	DB	04H
	DB	04H
	DB	04H
	DB	04H
	DB	04H
	DB	0b3H
	DB	0b3H
	DB	0b3H
	DB	0b3H
	DB	0b3H
	DB	0b3H
	DB	0b3H
	DB	0b3H
	DB	0b3H
	DB	0b3H
	DB	0b3H
	DB	0b3H
	DB	0b3H
	DB	00H
	DB	00H
	DB	00H
	DB	00H
	DB	00H
	DB	00H
	DB	00H
	DB	00H
	DB	00H
	DB	00H
	DB	00H
	DB	00H
	DB	00H
	DB	00H
	DB	00H
	DB	00H
	DB	00H
	DB	00H
	DB	00H
	DB	00H
	DB	00H
	DB	00H
	DB	00H
	DB	00H
	DB	00H
	DB	00H
	DB	00H
	DB	00H
	DB	00H
	DB	00H
	DB	00H
	DB	00H
	DB	00H
	DB	00H
	DB	00H
	DB	00H
	DB	00H
	DB	00H
	DB	00H
	DB	00H
	DB	00H
	DB	00H
	DB	00H
	DB	00H
	DB	00H
	DB	00H
	DB	00H
	DB	00H
	DB	00H
	DB	00H
	DB	0b3H
	DB	0b3H
	DB	0b3H
	DB	0b3H
	DB	0b3H
	DB	0b3H
	DB	0b3H
	DB	0b3H
	DB	0b3H
	DB	0b3H
	DB	0b3H
	DB	0b3H
	DB	0b3H
	DB	0b3H
	DB	0b3H
	DB	0b3H
	DB	0b3H
	DB	0b3H
	DB	0b3H
	DB	0b3H
	DB	0b3H
	DB	0b3H
	DB	0b3H
	DB	0b3H
	DB	0b3H
	DB	04H
	DB	0b3H
	DB	04H
	DB	04H
	DB	04H
	DB	04H
	DB	04H
	DB	04H
	DB	04H
	DB	04H
	DB	04H
	DB	04H
	DB	04H
	DB	04H
	DB	04H
	DB	04H
	DB	04H
	DB	04H
	DB	088H
	DB	088H
	DB	088H
	DB	088H
	DB	088H
	DB	088H
	DB	088H
	DB	088H
	DB	05H
	DB	01cH
	DB	024H
	DB	024H
	DB	024H
	DB	038H
	DB	08dH
	DB	07aH
	DB	07aH
	DB	038H
	DB	038H
	DB	038H
	DB	037H
	DB	051H
	DB	051H
	DB	010H
	DB	010H
	DB	01cH
	DB	01cH
	DB	01cH
	DB	024H
	DB	024H
	DB	024H
	DB	024H
	DB	024H
	DB	01cH
	DB	028H
	DB	029H
	DB	02bH
	DB	02bH
	DB	023H
	DB	0eH
	DB	0aH
	DB	0aH
	DB	0aH
	DB	02H
	DB	02H
	DB	02H
	DB	072H
	DB	01bH
	DB	01bH
	DB	01bH
	DB	01bH
	DB	01bH
	DB	01bH
	DB	015H
	DB	015H
	DB	015H
	DB	015H
	DB	015H
	DB	015H
	DB	03fH
	DB	01bH
	DB	015H
	DB	039H
	DB	044H
	DB	01bH
	DB	02dH
	DB	02dH
	DB	015H
	DB	02dH
	DB	044H
	DB	062H
	DB	046H
	DB	059H
	DB	059H
	DB	020H
	DB	021H
	DB	022H
	DB	025H
	DB	041H
	DB	04aH
	DB	04aH
	DB	013H
	DB	032H
	DB	08cH
	DB	054H
	DB	013H
	DB	013H
	DB	013H
	DB	041H
	DB	08cH
	DB	0eH
	DB	0aH
	DB	0aH
	DB	02H
	DB	02H
	DB	03H
	DB	03H
	DB	03H
	DB	03H
	DB	03H
	DB	03H
	DB	03H
	DB	03H
	DB	03H
	DB	03H
	DB	03H
	DB	03H
	DB	03H
	DB	03H
	DB	03H
	DB	03H
	DB	03H
	DB	03H
	DB	03H
	DB	03H
	DB	03H
	DB	03H
	DB	03H
	DB	03H
	DB	03H
	DB	03H
	DB	03H
	DB	03H
	DB	03H
	DB	03H
	DB	03H
	DB	03H
	DB	03H
	DB	03H
	DB	03H
	DB	03H
	DB	03H
	DB	03H
	DB	03H
	DB	03H
	DB	03H
	DB	03H
	DB	03H
	DB	03H
	DB	03H
	DB	03H
	DB	03H
	DB	03H
	DB	03H
	DB	02H
	DB	02H
	DB	0aH
	DB	0aH
	DB	0aH
	DB	02H
	DB	02H
	DB	02H
	DB	02H
	DB	02H
	DB	02H
	DB	0aH
	DB	0aH
	DB	0aH
	DB	02H
	DB	03H
	DB	03H
	DB	02H
	DB	02H
	DB	0aH
	DB	0aH
	DB	02H
	DB	02H
	DB	03H
	DB	03H
	DB	03H
	DB	02H
	DB	02H
	DB	0aH
	DB	0aH
	DB	0aH
	DB	02H
	DB	02H
	DB	02H
	DB	02H
	DB	02H
	DB	03H
	DB	03H
	DB	03H
	DB	03H
	DB	02H
	DB	02H
	DB	0aH
	DB	0aH
	DB	0aH
	DB	02H
	DB	02H
	DB	02H
	DB	02H
	DB	02H
	DB	03H
	DB	03H
	DB	03H
	DB	02H
	DB	0aH
	DB	0aH
	DB	02H
	DB	02H
	DB	02H
	DB	02H
	DB	02H
	DB	03H
	DB	03H
	DB	03H
	DB	03H
	DB	02H
	DB	02H
	DB	0aH
	DB	0aH
	DB	0aH
	DB	02H
	DB	02H
	DB	02H
	DB	02H
	DB	03H
	DB	03H
	DB	03H
	DB	03H
	DB	03H
	DB	03H
	DB	03H
	DB	03H
	DB	03H
	DB	03H
	DB	03H
	DB	02H
	DB	02H
	DB	0aH
	DB	0aH
	DB	0aH
	DB	02H
	DB	02H
	DB	02H
	DB	02H
	DB	02H
	DB	03H
	DB	03H
	DB	03H
	DB	02H
	DB	0aH
	DB	0aH
	DB	0aH
	DB	02H
	DB	02H
	DB	0aH
	DB	0aH
	DB	0aH
	DB	0aH
	DB	02H
	DB	03H
	DB	03H
	DB	03H
	DB	02H
	DB	0aH
	DB	0aH
	DB	02H
	DB	02H
	DB	02H
	DB	0aH
	DB	0aH
	DB	0aH
	DB	0aH
	DB	02H
	DB	02H
	DB	00H
	DB	07cH
	DB	0deH
	DB	0bH
	DB	09H
	DB	077H
	DB	011H
	DB	07H
	DB	07H
	DB	07H
	DB	077H
	DB	00H
	DB	0aH
	DB	03H
	DB	03H
	DB	03H
	DB	03H
	DB	02H
	DB	02H
	DB	0aH
	DB	0aH
	DB	0aH
	DB	02H
	DB	02H
	DB	02H
	DB	02H
	DB	03H
	DB	03H
	DB	03H
	DB	03H
	DB	03H
	DB	03H
	DB	03H
	DB	03H
	DB	03H
	DB	03H
	DB	03H
	DB	01aH
	DB	01eH
	DB	0b3H
	DB	00H
	DB	00H
	DB	00H
	DB	00H
	DB	00H
	DB	00H
	DB	00H
	DB	04H
	DB	01eH
	DB	01aH
	DB	03H
	DB	03H
	DB	03H
	DB	03H
	DB	03H
	DB	03H
	DB	03H
	DB	03H
	DB	03H
	DB	03H
	DB	03H
	DB	016H
	DB	08H
	DB	0e0H
	DB	042H
	DB	042H
	DB	042H
	DB	08H
	DB	08H
	DB	08H
	DB	08H
	DB	08H
	DB	08H
	DB	08H
	DB	08H
	DB	0c2H
	DB	0c2H
	DB	0c2H
	DB	0c2H
	DB	0c2H
	DB	0c2H
	DB	0c2H
	DB	05H
	DB	05H
	DB	05H
	DB	05H
	DB	05H
	DB	05H
	DB	05H
	DB	088H
	DB	088H
	DB	088H
	DB	088H
	DB	088H
	DB	088H
	DB	088H
	DB	088H
	DB	04H
	DB	04H
	DB	04H
	DB	04H
	DB	04H
	DB	04H
	DB	04H
	DB	04H
	DB	04H
	DB	04H
	DB	0b3H
	DB	0b3H
	DB	0b3H
	DB	0b3H
	DB	0b3H
	DB	0b3H
	DB	0b3H
	DB	0b3H
	DB	0b3H
	DB	0b3H
	DB	0b3H
	DB	0b3H
	DB	0b3H
	DB	00H
	DB	00H
	DB	00H
	DB	00H
	DB	00H
	DB	00H
	DB	00H
	DB	00H
	DB	00H
	DB	00H
	DB	00H
	DB	00H
	DB	00H
	DB	00H
	DB	00H
	DB	00H
	DB	00H
	DB	00H
	DB	00H
	DB	00H
	DB	00H
	DB	00H
	DB	00H
	DB	00H
	DB	00H
	DB	00H
	DB	00H
	DB	00H
	DB	00H
	DB	00H
	DB	00H
	DB	00H
	DB	00H
	DB	00H
	DB	00H
	DB	00H
	DB	00H
	DB	00H
	DB	00H
	DB	00H
	DB	00H
	DB	00H
	DB	00H
	DB	00H
	DB	00H
	DB	00H
	DB	00H
	DB	00H
	DB	00H
	DB	00H
	DB	0b3H
	DB	0b3H
	DB	0b3H
	DB	0b3H
	DB	0b3H
	DB	0b3H
	DB	0b3H
	DB	0b3H
	DB	0b3H
	DB	0b3H
	DB	0b3H
	DB	0b3H
	DB	0b3H
	DB	0b3H
	DB	0b3H
	DB	0b3H
	DB	0b3H
	DB	0b3H
	DB	0b3H
	DB	0b3H
	DB	0b3H
	DB	0b3H
	DB	0b3H
	DB	04H
	DB	04H
	DB	04H
	DB	04H
	DB	04H
	DB	04H
	DB	04H
	DB	04H
	DB	04H
	DB	04H
	DB	04H
	DB	04H
	DB	04H
	DB	04H
	DB	04H
	DB	04H
	DB	04H
	DB	04H
	DB	04H
	DB	088H
	DB	088H
	DB	088H
	DB	088H
	DB	088H
	DB	088H
	DB	088H
	DB	088H
	DB	051H
	DB	038H
	DB	024H
	DB	024H
	DB	024H
	DB	024H
	DB	024H
	DB	01cH
	DB	01cH
	DB	024H
	DB	038H
	DB	08dH
	DB	07aH
	DB	07aH
	DB	07aH
	DB	038H
	DB	03cH
	DB	010H
	DB	01cH
	DB	01cH
	DB	01cH
	DB	024H
	DB	024H
	DB	024H
	DB	01cH
	DB	051H
	DB	04eH
	DB	02bH
	DB	02bH
	DB	02aH
	DB	0eH
	DB	0eH
	DB	0aH
	DB	0aH
	DB	02H
	DB	02H
	DB	02H
	DB	02H
	DB	072H
	DB	01bH
	DB	01bH
	DB	01bH
	DB	01bH
	DB	01bH
	DB	01bH
	DB	015H
	DB	015H
	DB	015H
	DB	015H
	DB	015H
	DB	02dH
	DB	03fH
	DB	015H
	DB	015H
	DB	03fH
	DB	01bH
	DB	015H
	DB	039H
	DB	02dH
	DB	015H
	DB	03eH
	DB	044H
	DB	062H
	DB	036H
	DB	059H
	DB	059H
	DB	086H
	DB	036H
	DB	049H
	DB	08cH
	DB	030H
	DB	010H
	DB	051H
	DB	036H
	DB	013H
	DB	013H
	DB	0f9H
	DB	013H
	DB	013H
	DB	025H
	DB	049H
	DB	04eH
	DB	0eH
	DB	0aH
	DB	0aH
	DB	02H
	DB	02H
	DB	03H
	DB	03H
	DB	03H
	DB	03H
	DB	03H
	DB	03H
	DB	03H
	DB	03H
	DB	03H
	DB	03H
	DB	03H
	DB	03H
	DB	03H
	DB	03H
	DB	03H
	DB	03H
	DB	03H
	DB	03H
	DB	03H
	DB	03H
	DB	03H
	DB	03H
	DB	03H
	DB	03H
	DB	03H
	DB	03H
	DB	03H
	DB	03H
	DB	03H
	DB	03H
	DB	03H
	DB	03H
	DB	03H
	DB	03H
	DB	03H
	DB	03H
	DB	03H
	DB	03H
	DB	03H
	DB	03H
	DB	03H
	DB	03H
	DB	03H
	DB	03H
	DB	03H
	DB	03H
	DB	03H
	DB	03H
	DB	03H
	DB	03H
	DB	02H
	DB	02H
	DB	02H
	DB	02H
	DB	02H
	DB	02H
	DB	02H
	DB	02H
	DB	03H
	DB	03H
	DB	02H
	DB	02H
	DB	02H
	DB	02H
	DB	03H
	DB	03H
	DB	03H
	DB	03H
	DB	02H
	DB	02H
	DB	02H
	DB	03H
	DB	03H
	DB	03H
	DB	03H
	DB	03H
	DB	02H
	DB	02H
	DB	02H
	DB	02H
	DB	02H
	DB	02H
	DB	02H
	DB	02H
	DB	03H
	DB	03H
	DB	03H
	DB	03H
	DB	03H
	DB	03H
	DB	02H
	DB	02H
	DB	02H
	DB	02H
	DB	02H
	DB	02H
	DB	02H
	DB	02H
	DB	03H
	DB	03H
	DB	03H
	DB	03H
	DB	02H
	DB	02H
	DB	02H
	DB	02H
	DB	02H
	DB	02H
	DB	02H
	DB	03H
	DB	03H
	DB	03H
	DB	03H
	DB	03H
	DB	03H
	DB	02H
	DB	02H
	DB	02H
	DB	02H
	DB	02H
	DB	02H
	DB	02H
	DB	02H
	DB	03H
	DB	03H
	DB	03H
	DB	03H
	DB	03H
	DB	03H
	DB	03H
	DB	03H
	DB	03H
	DB	03H
	DB	03H
	DB	02H
	DB	02H
	DB	02H
	DB	02H
	DB	02H
	DB	02H
	DB	02H
	DB	02H
	DB	02H
	DB	03H
	DB	03H
	DB	03H
	DB	03H
	DB	03H
	DB	02H
	DB	02H
	DB	02H
	DB	02H
	DB	02H
	DB	02H
	DB	02H
	DB	02H
	DB	02H
	DB	02H
	DB	03H
	DB	03H
	DB	03H
	DB	03H
	DB	02H
	DB	02H
	DB	02H
	DB	02H
	DB	02H
	DB	02H
	DB	02H
	DB	02H
	DB	02H
	DB	03H
	DB	0aH
	DB	04H
	DB	0deH
	DB	07H
	DB	07H
	DB	07H
	DB	07H
	DB	07H
	DB	07H
	DB	07H
	DB	077H
	DB	00H
	DB	0eH
	DB	02H
	DB	03H
	DB	03H
	DB	03H
	DB	03H
	DB	03H
	DB	02H
	DB	02H
	DB	02H
	DB	02H
	DB	02H
	DB	02H
	DB	02H
	DB	03H
	DB	03H
	DB	03H
	DB	03H
	DB	03H
	DB	03H
	DB	03H
	DB	03H
	DB	03H
	DB	03H
	DB	03H
	DB	03H
	DB	01aH
	DB	01eH
	DB	0b3H
	DB	00H
	DB	00H
	DB	00H
	DB	00H
	DB	00H
	DB	00H
	DB	00H
	DB	04H
	DB	01eH
	DB	01aH
	DB	03H
	DB	03H
	DB	03H
	DB	03H
	DB	03H
	DB	03H
	DB	03H
	DB	03H
	DB	03H
	DB	03H
	DB	03H
	DB	016H
	DB	08H
	DB	0e0H
	DB	042H
	DB	042H
	DB	042H
	DB	08H
	DB	08H
	DB	08H
	DB	08H
	DB	08H
	DB	08H
	DB	08H
	DB	08H
	DB	08H
	DB	0c2H
	DB	0c2H
	DB	0c2H
	DB	0c2H
	DB	0c2H
	DB	0c2H
	DB	0c2H
	DB	05H
	DB	05H
	DB	05H
	DB	05H
	DB	05H
	DB	05H
	DB	05H
	DB	05H
	DB	088H
	DB	088H
	DB	088H
	DB	088H
	DB	088H
	DB	088H
	DB	088H
	DB	088H
	DB	04H
	DB	04H
	DB	04H
	DB	04H
	DB	04H
	DB	04H
	DB	04H
	DB	04H
	DB	0b3H
	DB	0b3H
	DB	0b3H
	DB	0b3H
	DB	0b3H
	DB	0b3H
	DB	0b3H
	DB	0b3H
	DB	0b3H
	DB	0b3H
	DB	0b3H
	DB	0b3H
	DB	0b3H
	DB	0b3H
	DB	00H
	DB	00H
	DB	00H
	DB	00H
	DB	00H
	DB	00H
	DB	00H
	DB	00H
	DB	00H
	DB	00H
	DB	00H
	DB	00H
	DB	00H
	DB	00H
	DB	00H
	DB	00H
	DB	00H
	DB	00H
	DB	00H
	DB	00H
	DB	00H
	DB	00H
	DB	00H
	DB	00H
	DB	00H
	DB	00H
	DB	00H
	DB	00H
	DB	00H
	DB	00H
	DB	00H
	DB	00H
	DB	00H
	DB	00H
	DB	00H
	DB	00H
	DB	00H
	DB	00H
	DB	00H
	DB	00H
	DB	00H
	DB	00H
	DB	00H
	DB	00H
	DB	00H
	DB	00H
	DB	00H
	DB	00H
	DB	00H
	DB	00H
	DB	0b3H
	DB	0b3H
	DB	0b3H
	DB	0b3H
	DB	0b3H
	DB	0b3H
	DB	0b3H
	DB	0b3H
	DB	04H
	DB	04H
	DB	04H
	DB	04H
	DB	04H
	DB	04H
	DB	04H
	DB	04H
	DB	04H
	DB	04H
	DB	04H
	DB	04H
	DB	04H
	DB	04H
	DB	04H
	DB	04H
	DB	04H
	DB	04H
	DB	04H
	DB	04H
	DB	04H
	DB	04H
	DB	04H
	DB	04H
	DB	04H
	DB	04H
	DB	04H
	DB	04H
	DB	04H
	DB	04H
	DB	04H
	DB	04H
	DB	088H
	DB	088H
	DB	088H
	DB	088H
	DB	088H
	DB	088H
	DB	088H
	DB	088H
	DB	088H
	DB	051H
	DB	024H
	DB	024H
	DB	024H
	DB	024H
	DB	01cH
	DB	01cH
	DB	01cH
	DB	01cH
	DB	01cH
	DB	01cH
	DB	01cH
	DB	01cH
	DB	024H
	DB	038H
	DB	08dH
	DB	07aH
	DB	051H
	DB	010H
	DB	01cH
	DB	024H
	DB	024H
	DB	024H
	DB	024H
	DB	01cH
	DB	051H
	DB	029H
	DB	02bH
	DB	02bH
	DB	023H
	DB	0eH
	DB	0eH
	DB	0aH
	DB	0aH
	DB	02H
	DB	02H
	DB	03H
	DB	02H
	DB	072H
	DB	01bH
	DB	01bH
	DB	01bH
	DB	01bH
	DB	02dH
	DB	015H
	DB	015H
	DB	015H
	DB	015H
	DB	015H
	DB	015H
	DB	039H
	DB	02dH
	DB	015H
	DB	02dH
	DB	039H
	DB	01bH
	DB	01bH
	DB	039H
	DB	015H
	DB	015H
	DB	039H
	DB	044H
	DB	062H
	DB	046H
	DB	0d2H
	DB	06cH
	DB	020H
	DB	046H
	DB	04eH
	DB	037H
	DB	0d3H
	DB	02cH
	DB	0abH
	DB	054H
	DB	08cH
	DB	041H
	DB	013H
	DB	025H
	DB	0f9H
	DB	0f9H
	DB	064H
	DB	0eH
	DB	0eH
	DB	0aH
	DB	0aH
	DB	02H
	DB	02H
	DB	03H
	DB	03H
	DB	03H
	DB	03H
	DB	03H
	DB	03H
	DB	03H
	DB	03H
	DB	03H
	DB	03H
	DB	03H
	DB	03H
	DB	03H
	DB	03H
	DB	03H
	DB	03H
	DB	03H
	DB	03H
	DB	03H
	DB	03H
	DB	03H
	DB	03H
	DB	03H
	DB	03H
	DB	03H
	DB	03H
	DB	03H
	DB	03H
	DB	03H
	DB	03H
	DB	03H
	DB	03H
	DB	03H
	DB	03H
	DB	03H
	DB	03H
	DB	03H
	DB	03H
	DB	03H
	DB	03H
	DB	03H
	DB	03H
	DB	03H
	DB	03H
	DB	03H
	DB	03H
	DB	03H
	DB	03H
	DB	03H
	DB	03H
	DB	03H
	DB	03H
	DB	03H
	DB	02H
	DB	02H
	DB	03H
	DB	03H
	DB	03H
	DB	03H
	DB	03H
	DB	03H
	DB	03H
	DB	03H
	DB	03H
	DB	03H
	DB	03H
	DB	03H
	DB	03H
	DB	03H
	DB	03H
	DB	03H
	DB	03H
	DB	03H
	DB	03H
	DB	03H
	DB	03H
	DB	03H
	DB	03H
	DB	03H
	DB	03H
	DB	03H
	DB	03H
	DB	03H
	DB	03H
	DB	03H
	DB	03H
	DB	03H
	DB	03H
	DB	03H
	DB	03H
	DB	03H
	DB	03H
	DB	03H
	DB	03H
	DB	03H
	DB	03H
	DB	03H
	DB	03H
	DB	03H
	DB	03H
	DB	03H
	DB	03H
	DB	03H
	DB	03H
	DB	03H
	DB	02H
	DB	03H
	DB	03H
	DB	03H
	DB	03H
	DB	03H
	DB	03H
	DB	03H
	DB	03H
	DB	03H
	DB	03H
	DB	03H
	DB	03H
	DB	03H
	DB	03H
	DB	03H
	DB	03H
	DB	03H
	DB	03H
	DB	03H
	DB	03H
	DB	03H
	DB	03H
	DB	03H
	DB	03H
	DB	03H
	DB	03H
	DB	03H
	DB	03H
	DB	03H
	DB	03H
	DB	03H
	DB	03H
	DB	02H
	DB	02H
	DB	03H
	DB	03H
	DB	03H
	DB	03H
	DB	03H
	DB	03H
	DB	03H
	DB	03H
	DB	03H
	DB	03H
	DB	03H
	DB	03H
	DB	03H
	DB	03H
	DB	03H
	DB	03H
	DB	03H
	DB	03H
	DB	03H
	DB	03H
	DB	03H
	DB	03H
	DB	03H
	DB	03H
	DB	03H
	DB	03H
	DB	03H
	DB	03H
	DB	03H
	DB	03H
	DB	03H
	DB	03H
	DB	03H
	DB	016H
	DB	08H
	DB	06H
	DB	077H
	DB	07cH
	DB	07cH
	DB	0bH
	DB	069H
	DB	08H
	DB	00H
	DB	0eH
	DB	02H
	DB	02H
	DB	03H
	DB	03H
	DB	03H
	DB	03H
	DB	03H
	DB	03H
	DB	03H
	DB	03H
	DB	03H
	DB	02H
	DB	03H
	DB	03H
	DB	03H
	DB	03H
	DB	03H
	DB	03H
	DB	03H
	DB	03H
	DB	03H
	DB	03H
	DB	03H
	DB	03H
	DB	03H
	DB	03H
	DB	01aH
	DB	01eH
	DB	0b3H
	DB	00H
	DB	00H
	DB	00H
	DB	00H
	DB	00H
	DB	00H
	DB	00H
	DB	04H
	DB	01eH
	DB	01aH
	DB	03H
	DB	03H
	DB	03H
	DB	03H
	DB	03H
	DB	03H
	DB	03H
	DB	03H
	DB	03H
	DB	03H
	DB	03H
	DB	016H
	DB	08H
	DB	0e0H
	DB	042H
	DB	042H
	DB	042H
	DB	08H
	DB	08H
	DB	08H
	DB	08H
	DB	08H
	DB	08H
	DB	08H
	DB	08H
	DB	08H
	DB	0c2H
	DB	0c2H
	DB	0c2H
	DB	0c2H
	DB	0c2H
	DB	0c2H
	DB	0c2H
	DB	0c2H
	DB	05H
	DB	05H
	DB	05H
	DB	05H
	DB	05H
	DB	05H
	DB	05H
	DB	088H
	DB	088H
	DB	088H
	DB	088H
	DB	088H
	DB	088H
	DB	088H
	DB	088H
	DB	088H
	DB	04H
	DB	04H
	DB	04H
	DB	04H
	DB	04H
	DB	04H
	DB	04H
	DB	04H
	DB	0b3H
	DB	0b3H
	DB	0b3H
	DB	0b3H
	DB	0b3H
	DB	0b3H
	DB	0b3H
	DB	0b3H
	DB	0b3H
	DB	0b3H
	DB	0b3H
	DB	0b3H
	DB	0b3H
	DB	00H
	DB	00H
	DB	00H
	DB	00H
	DB	00H
	DB	00H
	DB	00H
	DB	00H
	DB	00H
	DB	00H
	DB	00H
	DB	00H
	DB	00H
	DB	00H
	DB	00H
	DB	00H
	DB	00H
	DB	00H
	DB	00H
	DB	00H
	DB	00H
	DB	00H
	DB	00H
	DB	00H
	DB	00H
	DB	00H
	DB	00H
	DB	00H
	DB	00H
	DB	00H
	DB	00H
	DB	00H
	DB	00H
	DB	00H
	DB	00H
	DB	00H
	DB	00H
	DB	00H
	DB	00H
	DB	00H
	DB	00H
	DB	00H
	DB	00H
	DB	00H
	DB	00H
	DB	00H
	DB	00H
	DB	00H
	DB	00H
	DB	00H
	DB	0b3H
	DB	0b3H
	DB	0b3H
	DB	0b3H
	DB	0b3H
	DB	0b3H
	DB	0b3H
	DB	0b3H
	DB	04H
	DB	04H
	DB	04H
	DB	04H
	DB	04H
	DB	04H
	DB	04H
	DB	04H
	DB	04H
	DB	04H
	DB	04H
	DB	04H
	DB	04H
	DB	04H
	DB	04H
	DB	04H
	DB	04H
	DB	04H
	DB	04H
	DB	04H
	DB	04H
	DB	04H
	DB	04H
	DB	04H
	DB	04H
	DB	04H
	DB	04H
	DB	04H
	DB	04H
	DB	04H
	DB	04H
	DB	04H
	DB	088H
	DB	088H
	DB	088H
	DB	088H
	DB	088H
	DB	088H
	DB	088H
	DB	088H
	DB	088H
	DB	037H
	DB	024H
	DB	024H
	DB	01cH
	DB	01cH
	DB	01cH
	DB	01cH
	DB	051H
	DB	051H
	DB	051H
	DB	051H
	DB	051H
	DB	01cH
	DB	01cH
	DB	01cH
	DB	01cH
	DB	07aH
	DB	089H
	DB	03cH
	DB	01cH
	DB	024H
	DB	024H
	DB	024H
	DB	024H
	DB	051H
	DB	04eH
	DB	02bH
	DB	02bH
	DB	02aH
	DB	0eH
	DB	0eH
	DB	0aH
	DB	0aH
	DB	02H
	DB	02H
	DB	02H
	DB	03H
	DB	02H
	DB	055H
	DB	01bH
	DB	01bH
	DB	01bH
	DB	044H
	DB	02dH
	DB	015H
	DB	015H
	DB	015H
	DB	015H
	DB	015H
	DB	01bH
	DB	03fH
	DB	015H
	DB	015H
	DB	02dH
	DB	02dH
	DB	015H
	DB	01bH
	DB	039H
	DB	015H
	DB	015H
	DB	03fH
	DB	01bH
	DB	062H
	DB	046H
	DB	0d2H
	DB	06cH
	DB	0d2H
	DB	020H
	DB	063H
	DB	087H
	DB	0edH
	DB	0d3H
	DB	08cH
	DB	041H
	DB	054H
	DB	0b6H
	DB	013H
	DB	041H
	DB	064H
	DB	03dH
	DB	04eH
	DB	0eH
	DB	0aH
	DB	0aH
	DB	0aH
	DB	02H
	DB	02H
	DB	03H
	DB	03H
	DB	03H
	DB	03H
	DB	03H
	DB	03H
	DB	03H
	DB	03H
	DB	03H
	DB	03H
	DB	03H
	DB	03H
	DB	03H
	DB	03H
	DB	03H
	DB	03H
	DB	03H
	DB	03H
	DB	03H
	DB	03H
	DB	03H
	DB	03H
	DB	03H
	DB	03H
	DB	03H
	DB	03H
	DB	03H
	DB	03H
	DB	03H
	DB	03H
	DB	03H
	DB	03H
	DB	03H
	DB	03H
	DB	03H
	DB	03H
	DB	03H
	DB	03H
	DB	03H
	DB	03H
	DB	03H
	DB	03H
	DB	03H
	DB	03H
	DB	03H
	DB	03H
	DB	03H
	DB	03H
	DB	03H
	DB	03H
	DB	03H
	DB	03H
	DB	03H
	DB	03H
	DB	03H
	DB	03H
	DB	03H
	DB	03H
	DB	03H
	DB	03H
	DB	03H
	DB	03H
	DB	03H
	DB	03H
	DB	03H
	DB	03H
	DB	03H
	DB	03H
	DB	03H
	DB	03H
	DB	03H
	DB	03H
	DB	03H
	DB	03H
	DB	03H
	DB	03H
	DB	03H
	DB	03H
	DB	03H
	DB	03H
	DB	03H
	DB	03H
	DB	03H
	DB	03H
	DB	03H
	DB	03H
	DB	03H
	DB	03H
	DB	03H
	DB	03H
	DB	03H
	DB	03H
	DB	03H
	DB	03H
	DB	03H
	DB	03H
	DB	03H
	DB	03H
	DB	03H
	DB	03H
	DB	03H
	DB	03H
	DB	03H
	DB	03H
	DB	03H
	DB	03H
	DB	03H
	DB	03H
	DB	03H
	DB	03H
	DB	03H
	DB	03H
	DB	03H
	DB	03H
	DB	03H
	DB	03H
	DB	03H
	DB	03H
	DB	03H
	DB	03H
	DB	03H
	DB	03H
	DB	03H
	DB	03H
	DB	03H
	DB	03H
	DB	03H
	DB	03H
	DB	03H
	DB	03H
	DB	03H
	DB	03H
	DB	03H
	DB	03H
	DB	03H
	DB	03H
	DB	03H
	DB	03H
	DB	03H
	DB	03H
	DB	03H
	DB	03H
	DB	03H
	DB	03H
	DB	03H
	DB	03H
	DB	03H
	DB	03H
	DB	03H
	DB	03H
	DB	03H
	DB	03H
	DB	03H
	DB	03H
	DB	03H
	DB	03H
	DB	03H
	DB	03H
	DB	03H
	DB	03H
	DB	03H
	DB	03H
	DB	03H
	DB	03H
	DB	03H
	DB	03H
	DB	03H
	DB	03H
	DB	03H
	DB	03H
	DB	03H
	DB	03H
	DB	03H
	DB	03H
	DB	0aH
	DB	016H
	DB	016H
	DB	00H
	DB	00H
	DB	016H
	DB	016H
	DB	0eH
	DB	0aH
	DB	02H
	DB	02H
	DB	02H
	DB	03H
	DB	03H
	DB	03H
	DB	03H
	DB	03H
	DB	03H
	DB	03H
	DB	03H
	DB	03H
	DB	03H
	DB	03H
	DB	03H
	DB	03H
	DB	03H
	DB	03H
	DB	03H
	DB	03H
	DB	03H
	DB	03H
	DB	03H
	DB	03H
	DB	03H
	DB	03H
	DB	03H
	DB	01aH
	DB	01eH
	DB	0b3H
	DB	00H
	DB	00H
	DB	00H
	DB	00H
	DB	00H
	DB	00H
	DB	00H
	DB	04H
	DB	01eH
	DB	01aH
	DB	03H
	DB	03H
	DB	03H
	DB	03H
	DB	03H
	DB	03H
	DB	03H
	DB	03H
	DB	03H
	DB	03H
	DB	03H
	DB	016H
	DB	08H
	DB	0e0H
	DB	0e0H
	DB	042H
	DB	042H
	DB	042H
	DB	08H
	DB	08H
	DB	08H
	DB	08H
	DB	08H
	DB	08H
	DB	08H
	DB	08H
	DB	08H
	DB	0c2H
	DB	0c2H
	DB	0c2H
	DB	0c2H
	DB	0c2H
	DB	0c2H
	DB	0c2H
	DB	0c2H
	DB	05H
	DB	05H
	DB	05H
	DB	05H
	DB	05H
	DB	05H
	DB	05H
	DB	05H
	DB	088H
	DB	088H
	DB	088H
	DB	088H
	DB	088H
	DB	088H
	DB	088H
	DB	088H
	DB	088H
	DB	04H
	DB	04H
	DB	04H
	DB	04H
	DB	04H
	DB	04H
	DB	04H
	DB	0b3H
	DB	0b3H
	DB	0b3H
	DB	0b3H
	DB	0b3H
	DB	0b3H
	DB	0b3H
	DB	0b3H
	DB	0b3H
	DB	0b3H
	DB	0b3H
	DB	0b3H
	DB	0b3H
	DB	00H
	DB	00H
	DB	00H
	DB	00H
	DB	00H
	DB	00H
	DB	00H
	DB	00H
	DB	00H
	DB	00H
	DB	00H
	DB	00H
	DB	00H
	DB	00H
	DB	00H
	DB	00H
	DB	00H
	DB	00H
	DB	00H
	DB	00H
	DB	00H
	DB	00H
	DB	00H
	DB	00H
	DB	00H
	DB	00H
	DB	00H
	DB	00H
	DB	00H
	DB	00H
	DB	00H
	DB	00H
	DB	00H
	DB	00H
	DB	00H
	DB	00H
	DB	00H
	DB	00H
	DB	00H
	DB	00H
	DB	00H
	DB	00H
	DB	00H
	DB	00H
	DB	00H
	DB	00H
	DB	00H
	DB	00H
	DB	00H
	DB	00H
	DB	0b3H
	DB	0b3H
	DB	0b3H
	DB	0b3H
	DB	0b3H
	DB	0b3H
	DB	0b3H
	DB	0b3H
	DB	04H
	DB	04H
	DB	04H
	DB	04H
	DB	04H
	DB	04H
	DB	04H
	DB	04H
	DB	04H
	DB	04H
	DB	04H
	DB	04H
	DB	04H
	DB	04H
	DB	04H
	DB	04H
	DB	04H
	DB	04H
	DB	04H
	DB	04H
	DB	04H
	DB	04H
	DB	04H
	DB	04H
	DB	04H
	DB	04H
	DB	04H
	DB	04H
	DB	04H
	DB	088H
	DB	088H
	DB	088H
	DB	088H
	DB	088H
	DB	088H
	DB	088H
	DB	088H
	DB	088H
	DB	088H
	DB	05H
	DB	037H
	DB	024H
	DB	01cH
	DB	01cH
	DB	01cH
	DB	037H
	DB	051H
	DB	051H
	DB	037H
	DB	037H
	DB	051H
	DB	051H
	DB	051H
	DB	051H
	DB	051H
	DB	051H
	DB	037H
	DB	089H
	DB	051H
	DB	01cH
	DB	024H
	DB	024H
	DB	024H
	DB	01cH
	DB	051H
	DB	02aH
	DB	02bH
	DB	02bH
	DB	023H
	DB	0eH
	DB	0eH
	DB	0aH
	DB	0aH
	DB	02H
	DB	02H
	DB	03H
	DB	03H
	DB	02H
	DB	055H
	DB	044H
	DB	044H
	DB	044H
	DB	01bH
	DB	047H
	DB	01bH
	DB	015H
	DB	01bH
	DB	015H
	DB	015H
	DB	02dH
	DB	039H
	DB	015H
	DB	015H
	DB	039H
	DB	01bH
	DB	015H
	DB	02dH
	DB	039H
	DB	015H
	DB	015H
	DB	03fH
	DB	01bH
	DB	062H
	DB	046H
	DB	06cH
	DB	06cH
	DB	06cH
	DB	06cH
	DB	059H
	DB	02eH
	DB	0b6H
	DB	067H
	DB	02cH
	DB	087H
	DB	02eH
	DB	05dH
	DB	013H
	DB	09eH
	DB	029H
	DB	064H
	DB	028H
	DB	028H
	DB	0aH
	DB	0aH
	DB	0aH
	DB	02H
	DB	02H
	DB	03H
	DB	03H
	DB	03H
	DB	03H
	DB	03H
	DB	03H
	DB	03H
	DB	03H
	DB	03H
	DB	03H
	DB	03H
	DB	03H
	DB	03H
	DB	03H
	DB	03H
	DB	03H
	DB	03H
	DB	03H
	DB	03H
	DB	03H
	DB	03H
	DB	03H
	DB	03H
	DB	03H
	DB	03H
	DB	03H
	DB	03H
	DB	03H
	DB	03H
	DB	03H
	DB	03H
	DB	03H
	DB	03H
	DB	03H
	DB	03H
	DB	03H
	DB	03H
	DB	03H
	DB	03H
	DB	03H
	DB	03H
	DB	03H
	DB	03H
	DB	03H
	DB	03H
	DB	03H
	DB	03H
	DB	03H
	DB	03H
	DB	03H
	DB	03H
	DB	03H
	DB	03H
	DB	03H
	DB	03H
	DB	03H
	DB	03H
	DB	03H
	DB	03H
	DB	03H
	DB	03H
	DB	03H
	DB	03H
	DB	03H
	DB	03H
	DB	03H
	DB	03H
	DB	03H
	DB	03H
	DB	03H
	DB	03H
	DB	03H
	DB	03H
	DB	03H
	DB	03H
	DB	03H
	DB	03H
	DB	03H
	DB	03H
	DB	03H
	DB	03H
	DB	03H
	DB	03H
	DB	03H
	DB	03H
	DB	03H
	DB	03H
	DB	03H
	DB	03H
	DB	03H
	DB	03H
	DB	03H
	DB	03H
	DB	03H
	DB	03H
	DB	03H
	DB	03H
	DB	03H
	DB	03H
	DB	03H
	DB	03H
	DB	03H
	DB	03H
	DB	03H
	DB	03H
	DB	03H
	DB	03H
	DB	03H
	DB	03H
	DB	03H
	DB	03H
	DB	03H
	DB	03H
	DB	03H
	DB	03H
	DB	03H
	DB	03H
	DB	03H
	DB	03H
	DB	03H
	DB	03H
	DB	03H
	DB	03H
	DB	03H
	DB	03H
	DB	03H
	DB	03H
	DB	03H
	DB	03H
	DB	03H
	DB	03H
	DB	03H
	DB	03H
	DB	03H
	DB	03H
	DB	03H
	DB	03H
	DB	03H
	DB	03H
	DB	03H
	DB	03H
	DB	03H
	DB	03H
	DB	03H
	DB	03H
	DB	03H
	DB	03H
	DB	03H
	DB	03H
	DB	03H
	DB	03H
	DB	03H
	DB	03H
	DB	03H
	DB	03H
	DB	03H
	DB	03H
	DB	03H
	DB	03H
	DB	03H
	DB	03H
	DB	03H
	DB	03H
	DB	03H
	DB	03H
	DB	03H
	DB	03H
	DB	03H
	DB	03H
	DB	03H
	DB	03H
	DB	03H
	DB	03H
	DB	03H
	DB	03H
	DB	03H
	DB	02H
	DB	0aH
	DB	0aH
	DB	0aH
	DB	02H
	DB	02H
	DB	02H
	DB	02H
	DB	02H
	DB	03H
	DB	03H
	DB	03H
	DB	03H
	DB	03H
	DB	03H
	DB	03H
	DB	03H
	DB	03H
	DB	03H
	DB	03H
	DB	03H
	DB	03H
	DB	03H
	DB	03H
	DB	03H
	DB	03H
	DB	03H
	DB	03H
	DB	03H
	DB	03H
	DB	03H
	DB	03H
	DB	03H
	DB	03H
	DB	01aH
	DB	01eH
	DB	0b3H
	DB	00H
	DB	00H
	DB	00H
	DB	00H
	DB	00H
	DB	00H
	DB	00H
	DB	04H
	DB	01eH
	DB	01aH
	DB	03H
	DB	03H
	DB	03H
	DB	03H
	DB	03H
	DB	03H
	DB	03H
	DB	03H
	DB	03H
	DB	03H
	DB	03H
	DB	016H
	DB	08H
	DB	0e0H
	DB	0e0H
	DB	0e0H
	DB	042H
	DB	042H
	DB	042H
	DB	08H
	DB	08H
	DB	08H
	DB	08H
	DB	08H
	DB	08H
	DB	08H
	DB	08H
	DB	08H
	DB	0c2H
	DB	0c2H
	DB	0c2H
	DB	0c2H
	DB	0c2H
	DB	0c2H
	DB	0c2H
	DB	0c2H
	DB	05H
	DB	05H
	DB	05H
	DB	05H
	DB	05H
	DB	05H
	DB	05H
	DB	05H
	DB	088H
	DB	088H
	DB	088H
	DB	088H
	DB	088H
	DB	088H
	DB	088H
	DB	088H
	DB	088H
	DB	04H
	DB	04H
	DB	04H
	DB	04H
	DB	04H
	DB	04H
	DB	0b3H
	DB	0b3H
	DB	0b3H
	DB	0b3H
	DB	0b3H
	DB	0b3H
	DB	0b3H
	DB	0b3H
	DB	0b3H
	DB	0b3H
	DB	0b3H
	DB	0b3H
	DB	0b3H
	DB	00H
	DB	00H
	DB	00H
	DB	00H
	DB	00H
	DB	00H
	DB	00H
	DB	00H
	DB	00H
	DB	00H
	DB	00H
	DB	00H
	DB	00H
	DB	00H
	DB	00H
	DB	00H
	DB	00H
	DB	00H
	DB	00H
	DB	00H
	DB	00H
	DB	00H
	DB	00H
	DB	00H
	DB	00H
	DB	00H
	DB	00H
	DB	00H
	DB	00H
	DB	00H
	DB	00H
	DB	00H
	DB	00H
	DB	00H
	DB	00H
	DB	00H
	DB	00H
	DB	00H
	DB	00H
	DB	00H
	DB	00H
	DB	00H
	DB	00H
	DB	00H
	DB	00H
	DB	00H
	DB	00H
	DB	00H
	DB	00H
	DB	00H
	DB	00H
	DB	0b3H
	DB	0b3H
	DB	0b3H
	DB	0b3H
	DB	0b3H
	DB	0b3H
	DB	04H
	DB	04H
	DB	04H
	DB	04H
	DB	04H
	DB	04H
	DB	04H
	DB	04H
	DB	04H
	DB	04H
	DB	04H
	DB	04H
	DB	04H
	DB	04H
	DB	04H
	DB	04H
	DB	04H
	DB	04H
	DB	04H
	DB	04H
	DB	04H
	DB	04H
	DB	04H
	DB	04H
	DB	04H
	DB	04H
	DB	04H
	DB	04H
	DB	04H
	DB	04H
	DB	088H
	DB	088H
	DB	088H
	DB	088H
	DB	088H
	DB	088H
	DB	088H
	DB	088H
	DB	088H
	DB	088H
	DB	051H
	DB	01cH
	DB	024H
	DB	01cH
	DB	01cH
	DB	01cH
	DB	051H
	DB	037H
	DB	037H
	DB	051H
	DB	051H
	DB	051H
	DB	037H
	DB	038H
	DB	01cH
	DB	01cH
	DB	01cH
	DB	01cH
	DB	089H
	DB	051H
	DB	010H
	DB	01cH
	DB	024H
	DB	024H
	DB	01cH
	DB	051H
	DB	02bH
	DB	02bH
	DB	02bH
	DB	023H
	DB	0eH
	DB	0aH
	DB	0aH
	DB	0aH
	DB	02H
	DB	02H
	DB	03H
	DB	03H
	DB	02H
	DB	02fH
	DB	044H
	DB	044H
	DB	044H
	DB	02dH
	DB	039H
	DB	015H
	DB	015H
	DB	015H
	DB	015H
	DB	015H
	DB	03fH
	DB	02dH
	DB	015H
	DB	01bH
	DB	03fH
	DB	015H
	DB	015H
	DB	03eH
	DB	02dH
	DB	015H
	DB	01bH
	DB	039H
	DB	01bH
	DB	062H
	DB	046H
	DB	06cH
	DB	06cH
	DB	0d2H
	DB	0d2H
	DB	043H
	DB	020H
	DB	022H
	DB	09eH
	DB	0c0H
	DB	02eH
	DB	066H
	DB	022H
	DB	041H
	DB	08cH
	DB	036H
	DB	08cH
	DB	028H
	DB	0eH
	DB	0aH
	DB	0aH
	DB	02H
	DB	02H
	DB	03H
	DB	03H
	DB	03H
	DB	03H
	DB	03H
	DB	03H
	DB	03H
	DB	03H
	DB	03H
	DB	03H
	DB	03H
	DB	03H
	DB	03H
	DB	03H
	DB	03H
	DB	03H
	DB	03H
	DB	03H
	DB	03H
	DB	03H
	DB	03H
	DB	03H
	DB	03H
	DB	03H
	DB	03H
	DB	03H
	DB	03H
	DB	03H
	DB	03H
	DB	03H
	DB	03H
	DB	03H
	DB	03H
	DB	03H
	DB	03H
	DB	03H
	DB	03H
	DB	03H
	DB	03H
	DB	03H
	DB	03H
	DB	03H
	DB	03H
	DB	03H
	DB	03H
	DB	03H
	DB	03H
	DB	03H
	DB	03H
	DB	03H
	DB	03H
	DB	03H
	DB	03H
	DB	03H
	DB	03H
	DB	03H
	DB	03H
	DB	03H
	DB	03H
	DB	03H
	DB	03H
	DB	03H
	DB	03H
	DB	03H
	DB	03H
	DB	03H
	DB	03H
	DB	03H
	DB	03H
	DB	03H
	DB	03H
	DB	03H
	DB	03H
	DB	03H
	DB	03H
	DB	03H
	DB	03H
	DB	03H
	DB	03H
	DB	03H
	DB	03H
	DB	03H
	DB	03H
	DB	03H
	DB	03H
	DB	03H
	DB	03H
	DB	03H
	DB	03H
	DB	03H
	DB	03H
	DB	03H
	DB	03H
	DB	03H
	DB	03H
	DB	03H
	DB	03H
	DB	03H
	DB	03H
	DB	03H
	DB	03H
	DB	03H
	DB	03H
	DB	03H
	DB	03H
	DB	03H
	DB	03H
	DB	03H
	DB	03H
	DB	03H
	DB	03H
	DB	03H
	DB	03H
	DB	03H
	DB	03H
	DB	03H
	DB	03H
	DB	03H
	DB	03H
	DB	03H
	DB	03H
	DB	03H
	DB	03H
	DB	03H
	DB	03H
	DB	03H
	DB	03H
	DB	03H
	DB	03H
	DB	03H
	DB	03H
	DB	03H
	DB	03H
	DB	03H
	DB	03H
	DB	03H
	DB	03H
	DB	03H
	DB	03H
	DB	03H
	DB	03H
	DB	03H
	DB	03H
	DB	03H
	DB	03H
	DB	03H
	DB	03H
	DB	03H
	DB	03H
	DB	03H
	DB	03H
	DB	03H
	DB	03H
	DB	03H
	DB	03H
	DB	03H
	DB	03H
	DB	03H
	DB	03H
	DB	03H
	DB	03H
	DB	03H
	DB	03H
	DB	03H
	DB	03H
	DB	03H
	DB	03H
	DB	03H
	DB	03H
	DB	03H
	DB	03H
	DB	03H
	DB	03H
	DB	03H
	DB	03H
	DB	03H
	DB	03H
	DB	02H
	DB	02H
	DB	02H
	DB	02H
	DB	02H
	DB	02H
	DB	02H
	DB	03H
	DB	03H
	DB	03H
	DB	03H
	DB	03H
	DB	03H
	DB	03H
	DB	03H
	DB	03H
	DB	03H
	DB	03H
	DB	03H
	DB	03H
	DB	03H
	DB	03H
	DB	03H
	DB	03H
	DB	03H
	DB	03H
	DB	03H
	DB	03H
	DB	03H
	DB	03H
	DB	03H
	DB	03H
	DB	03H
	DB	03H
	DB	01aH
	DB	01eH
	DB	0b3H
	DB	00H
	DB	00H
	DB	00H
	DB	00H
	DB	00H
	DB	00H
	DB	00H
	DB	04H
	DB	01eH
	DB	01aH
	DB	03H
	DB	03H
	DB	03H
	DB	03H
	DB	03H
	DB	03H
	DB	03H
	DB	03H
	DB	03H
	DB	03H
	DB	03H
	DB	016H
	DB	08H
	DB	0e0H
	DB	0e0H
	DB	0e0H
	DB	042H
	DB	042H
	DB	042H
	DB	08H
	DB	08H
	DB	08H
	DB	08H
	DB	08H
	DB	08H
	DB	08H
	DB	08H
	DB	08H
	DB	08H
	DB	0c2H
	DB	0c2H
	DB	0c2H
	DB	0c2H
	DB	0c2H
	DB	0c2H
	DB	0c2H
	DB	0c2H
	DB	05H
	DB	05H
	DB	05H
	DB	05H
	DB	05H
	DB	05H
	DB	05H
	DB	05H
	DB	088H
	DB	088H
	DB	088H
	DB	088H
	DB	088H
	DB	088H
	DB	088H
	DB	088H
	DB	04H
	DB	04H
	DB	04H
	DB	04H
	DB	04H
	DB	04H
	DB	04H
	DB	0b3H
	DB	0b3H
	DB	0b3H
	DB	0b3H
	DB	0b3H
	DB	0b3H
	DB	0b3H
	DB	0b3H
	DB	0b3H
	DB	0b3H
	DB	0b3H
	DB	0b3H
	DB	00H
	DB	00H
	DB	00H
	DB	00H
	DB	00H
	DB	00H
	DB	00H
	DB	00H
	DB	00H
	DB	00H
	DB	00H
	DB	00H
	DB	00H
	DB	00H
	DB	00H
	DB	00H
	DB	00H
	DB	00H
	DB	00H
	DB	00H
	DB	00H
	DB	00H
	DB	00H
	DB	00H
	DB	00H
	DB	00H
	DB	00H
	DB	00H
	DB	00H
	DB	00H
	DB	00H
	DB	00H
	DB	00H
	DB	00H
	DB	00H
	DB	00H
	DB	00H
	DB	00H
	DB	00H
	DB	00H
	DB	00H
	DB	00H
	DB	00H
	DB	00H
	DB	00H
	DB	00H
	DB	00H
	DB	00H
	DB	00H
	DB	00H
	DB	00H
	DB	0b3H
	DB	0b3H
	DB	0b3H
	DB	0b3H
	DB	0b3H
	DB	0b3H
	DB	0b3H
	DB	04H
	DB	04H
	DB	04H
	DB	04H
	DB	04H
	DB	04H
	DB	04H
	DB	04H
	DB	04H
	DB	04H
	DB	04H
	DB	04H
	DB	04H
	DB	04H
	DB	04H
	DB	04H
	DB	04H
	DB	04H
	DB	04H
	DB	04H
	DB	04H
	DB	04H
	DB	04H
	DB	04H
	DB	04H
	DB	04H
	DB	04H
	DB	04H
	DB	088H
	DB	088H
	DB	088H
	DB	088H
	DB	088H
	DB	088H
	DB	088H
	DB	088H
	DB	088H
	DB	088H
	DB	088H
	DB	051H
	DB	024H
	DB	024H
	DB	01cH
	DB	01cH
	DB	01cH
	DB	037H
	DB	089H
	DB	051H
	DB	051H
	DB	010H
	DB	01cH
	DB	01cH
	DB	01cH
	DB	01cH
	DB	01cH
	DB	024H
	DB	024H
	DB	038H
	DB	051H
	DB	01cH
	DB	01cH
	DB	01cH
	DB	01cH
	DB	051H
	DB	04eH
	DB	02bH
	DB	02bH
	DB	02bH
	DB	0eH
	DB	0eH
	DB	0aH
	DB	0aH
	DB	02H
	DB	02H
	DB	02H
	DB	03H
	DB	03H
	DB	03H
	DB	02H
	DB	0aeH
	DB	044H
	DB	044H
	DB	039H
	DB	02dH
	DB	015H
	DB	01bH
	DB	01bH
	DB	015H
	DB	01bH
	DB	039H
	DB	015H
	DB	015H
	DB	047H
	DB	0bfH
	DB	015H
	DB	01bH
	DB	039H
	DB	01bH
	DB	015H
	DB	02dH
	DB	039H
	DB	01bH
	DB	095H
	DB	086H
	DB	06cH
	DB	06cH
	DB	06cH
	DB	06cH
	DB	043H
	DB	043H
	DB	066H
	DB	020H
	DB	021H
	DB	033H
	DB	021H
	DB	041H
	DB	041H
	DB	036H
	DB	066H
	DB	064H
	DB	0eH
	DB	0eH
	DB	0aH
	DB	0aH
	DB	02H
	DB	02H
	DB	03H
	DB	03H
	DB	03H
	DB	03H
	DB	03H
	DB	03H
	DB	03H
	DB	03H
	DB	03H
	DB	03H
	DB	03H
	DB	03H
	DB	03H
	DB	03H
	DB	03H
	DB	03H
	DB	03H
	DB	03H
	DB	03H
	DB	03H
	DB	03H
	DB	03H
	DB	03H
	DB	03H
	DB	03H
	DB	03H
	DB	03H
	DB	03H
	DB	03H
	DB	03H
	DB	03H
	DB	03H
	DB	03H
	DB	03H
	DB	03H
	DB	03H
	DB	03H
	DB	03H
	DB	03H
	DB	03H
	DB	03H
	DB	03H
	DB	03H
	DB	03H
	DB	03H
	DB	03H
	DB	03H
	DB	03H
	DB	03H
	DB	03H
	DB	03H
	DB	03H
	DB	03H
	DB	03H
	DB	03H
	DB	03H
	DB	03H
	DB	03H
	DB	03H
	DB	03H
	DB	03H
	DB	03H
	DB	03H
	DB	03H
	DB	03H
	DB	03H
	DB	03H
	DB	03H
	DB	03H
	DB	03H
	DB	03H
	DB	03H
	DB	03H
	DB	03H
	DB	03H
	DB	03H
	DB	03H
	DB	03H
	DB	03H
	DB	03H
	DB	03H
	DB	03H
	DB	03H
	DB	03H
	DB	03H
	DB	03H
	DB	03H
	DB	03H
	DB	03H
	DB	03H
	DB	03H
	DB	03H
	DB	03H
	DB	03H
	DB	03H
	DB	03H
	DB	03H
	DB	03H
	DB	03H
	DB	03H
	DB	03H
	DB	03H
	DB	03H
	DB	03H
	DB	03H
	DB	03H
	DB	03H
	DB	03H
	DB	03H
	DB	03H
	DB	03H
	DB	03H
	DB	03H
	DB	03H
	DB	03H
	DB	03H
	DB	03H
	DB	03H
	DB	03H
	DB	03H
	DB	03H
	DB	03H
	DB	03H
	DB	03H
	DB	03H
	DB	03H
	DB	03H
	DB	03H
	DB	03H
	DB	03H
	DB	03H
	DB	03H
	DB	03H
	DB	03H
	DB	03H
	DB	03H
	DB	03H
	DB	03H
	DB	03H
	DB	03H
	DB	03H
	DB	03H
	DB	03H
	DB	03H
	DB	03H
	DB	03H
	DB	03H
	DB	03H
	DB	03H
	DB	03H
	DB	03H
	DB	03H
	DB	03H
	DB	03H
	DB	03H
	DB	03H
	DB	03H
	DB	03H
	DB	03H
	DB	03H
	DB	03H
	DB	03H
	DB	03H
	DB	03H
	DB	03H
	DB	03H
	DB	03H
	DB	03H
	DB	03H
	DB	03H
	DB	03H
	DB	03H
	DB	03H
	DB	03H
	DB	03H
	DB	03H
	DB	03H
	DB	03H
	DB	03H
	DB	03H
	DB	03H
	DB	03H
	DB	03H
	DB	03H
	DB	03H
	DB	03H
	DB	03H
	DB	03H
	DB	03H
	DB	03H
	DB	03H
	DB	03H
	DB	03H
	DB	03H
	DB	03H
	DB	03H
	DB	03H
	DB	03H
	DB	03H
	DB	03H
	DB	03H
	DB	03H
	DB	03H
	DB	03H
	DB	03H
	DB	03H
	DB	03H
	DB	03H
	DB	03H
	DB	03H
	DB	03H
	DB	01aH
	DB	01eH
	DB	0b3H
	DB	00H
	DB	00H
	DB	00H
	DB	00H
	DB	00H
	DB	00H
	DB	00H
	DB	04H
	DB	01eH
	DB	01aH
	DB	03H
	DB	03H
	DB	03H
	DB	03H
	DB	03H
	DB	03H
	DB	03H
	DB	03H
	DB	03H
	DB	03H
	DB	03H
	DB	016H
	DB	08H
	DB	0e0H
	DB	0e0H
	DB	0e0H
	DB	0e0H
	DB	042H
	DB	042H
	DB	042H
	DB	08H
	DB	08H
	DB	08H
	DB	08H
	DB	08H
	DB	08H
	DB	08H
	DB	08H
	DB	08H
	DB	08H
	DB	0c2H
	DB	0c2H
	DB	0c2H
	DB	0c2H
	DB	0c2H
	DB	0c2H
	DB	0c2H
	DB	0c2H
	DB	05H
	DB	05H
	DB	05H
	DB	05H
	DB	05H
	DB	05H
	DB	05H
	DB	05H
	DB	05H
	DB	088H
	DB	088H
	DB	088H
	DB	088H
	DB	088H
	DB	088H
	DB	088H
	DB	04H
	DB	04H
	DB	04H
	DB	04H
	DB	04H
	DB	04H
	DB	0b3H
	DB	0b3H
	DB	0b3H
	DB	0b3H
	DB	0b3H
	DB	0b3H
	DB	0b3H
	DB	0b3H
	DB	0b3H
	DB	0b3H
	DB	0b3H
	DB	0b3H
	DB	0b3H
	DB	00H
	DB	00H
	DB	00H
	DB	00H
	DB	00H
	DB	00H
	DB	00H
	DB	00H
	DB	00H
	DB	00H
	DB	00H
	DB	00H
	DB	00H
	DB	00H
	DB	00H
	DB	00H
	DB	00H
	DB	00H
	DB	00H
	DB	00H
	DB	00H
	DB	00H
	DB	00H
	DB	00H
	DB	00H
	DB	00H
	DB	00H
	DB	00H
	DB	00H
	DB	00H
	DB	00H
	DB	00H
	DB	00H
	DB	00H
	DB	00H
	DB	00H
	DB	00H
	DB	00H
	DB	00H
	DB	00H
	DB	00H
	DB	00H
	DB	00H
	DB	00H
	DB	00H
	DB	00H
	DB	00H
	DB	00H
	DB	00H
	DB	00H
	DB	00H
	DB	00H
	DB	0b3H
	DB	0b3H
	DB	0b3H
	DB	0b3H
	DB	0b3H
	DB	0b3H
	DB	04H
	DB	04H
	DB	04H
	DB	04H
	DB	04H
	DB	04H
	DB	04H
	DB	04H
	DB	04H
	DB	04H
	DB	04H
	DB	04H
	DB	088H
	DB	088H
	DB	088H
	DB	04H
	DB	04H
	DB	04H
	DB	04H
	DB	04H
	DB	04H
	DB	04H
	DB	04H
	DB	04H
	DB	088H
	DB	088H
	DB	088H
	DB	088H
	DB	088H
	DB	088H
	DB	088H
	DB	088H
	DB	088H
	DB	088H
	DB	088H
	DB	088H
	DB	088H
	DB	088H
	DB	051H
	DB	024H
	DB	024H
	DB	01cH
	DB	01cH
	DB	051H
	DB	037H
	DB	038H
	DB	03cH
	DB	010H
	DB	010H
	DB	01cH
	DB	01cH
	DB	01cH
	DB	01cH
	DB	01cH
	DB	024H
	DB	024H
	DB	038H
	DB	051H
	DB	01cH
	DB	01cH
	DB	01cH
	DB	01cH
	DB	051H
	DB	029H
	DB	02bH
	DB	02bH
	DB	02aH
	DB	0eH
	DB	0aH
	DB	0aH
	DB	0aH
	DB	02fH
	DB	023H
	DB	02H
	DB	03H
	DB	03H
	DB	03H
	DB	02H
	DB	062H
	DB	01bH
	DB	044H
	DB	03fH
	DB	015H
	DB	01bH
	DB	01bH
	DB	015H
	DB	015H
	DB	03eH
	DB	02dH
	DB	015H
	DB	01bH
	DB	03fH
	DB	015H
	DB	01bH
	DB	01bH
	DB	03fH
	DB	015H
	DB	015H
	DB	039H
	DB	02dH
	DB	01bH
	DB	02bH
	DB	086H
	DB	06cH
	DB	06cH
	DB	06cH
	DB	043H
	DB	05eH
	DB	05eH
	DB	043H
	DB	035H
	DB	078H
	DB	033H
	DB	05dH
	DB	02eH
	DB	02eH
	DB	03dH
	DB	05eH
	DB	046H
	DB	0eH
	DB	0eH
	DB	0aH
	DB	0aH
	DB	02H
	DB	02H
	DB	03H
	DB	03H
	DB	03H
	DB	03H
	DB	03H
	DB	03H
	DB	03H
	DB	03H
	DB	03H
	DB	03H
	DB	03H
	DB	03H
	DB	03H
	DB	03H
	DB	03H
	DB	03H
	DB	03H
	DB	03H
	DB	03H
	DB	03H
	DB	03H
	DB	03H
	DB	03H
	DB	03H
	DB	03H
	DB	03H
	DB	03H
	DB	03H
	DB	03H
	DB	03H
	DB	03H
	DB	03H
	DB	03H
	DB	03H
	DB	03H
	DB	03H
	DB	03H
	DB	03H
	DB	03H
	DB	03H
	DB	03H
	DB	03H
	DB	03H
	DB	03H
	DB	03H
	DB	03H
	DB	03H
	DB	03H
	DB	03H
	DB	03H
	DB	03H
	DB	03H
	DB	03H
	DB	03H
	DB	03H
	DB	03H
	DB	03H
	DB	03H
	DB	03H
	DB	03H
	DB	03H
	DB	03H
	DB	03H
	DB	03H
	DB	03H
	DB	03H
	DB	03H
	DB	03H
	DB	03H
	DB	03H
	DB	03H
	DB	03H
	DB	03H
	DB	03H
	DB	03H
	DB	03H
	DB	03H
	DB	03H
	DB	03H
	DB	03H
	DB	03H
	DB	03H
	DB	03H
	DB	03H
	DB	03H
	DB	03H
	DB	03H
	DB	03H
	DB	03H
	DB	03H
	DB	03H
	DB	03H
	DB	03H
	DB	03H
	DB	03H
	DB	03H
	DB	03H
	DB	03H
	DB	03H
	DB	03H
	DB	03H
	DB	03H
	DB	03H
	DB	03H
	DB	03H
	DB	03H
	DB	03H
	DB	03H
	DB	03H
	DB	03H
	DB	03H
	DB	03H
	DB	03H
	DB	03H
	DB	03H
	DB	03H
	DB	03H
	DB	03H
	DB	03H
	DB	03H
	DB	03H
	DB	03H
	DB	03H
	DB	03H
	DB	03H
	DB	03H
	DB	03H
	DB	03H
	DB	03H
	DB	03H
	DB	03H
	DB	03H
	DB	03H
	DB	03H
	DB	03H
	DB	03H
	DB	03H
	DB	03H
	DB	03H
	DB	03H
	DB	03H
	DB	03H
	DB	03H
	DB	03H
	DB	03H
	DB	03H
	DB	03H
	DB	03H
	DB	03H
	DB	03H
	DB	03H
	DB	03H
	DB	03H
	DB	03H
	DB	03H
	DB	03H
	DB	03H
	DB	03H
	DB	03H
	DB	03H
	DB	03H
	DB	03H
	DB	03H
	DB	03H
	DB	03H
	DB	03H
	DB	03H
	DB	03H
	DB	03H
	DB	03H
	DB	03H
	DB	03H
	DB	03H
	DB	03H
	DB	03H
	DB	03H
	DB	03H
	DB	03H
	DB	03H
	DB	03H
	DB	03H
	DB	03H
	DB	03H
	DB	03H
	DB	03H
	DB	03H
	DB	03H
	DB	03H
	DB	03H
	DB	03H
	DB	03H
	DB	03H
	DB	03H
	DB	03H
	DB	03H
	DB	03H
	DB	03H
	DB	03H
	DB	03H
	DB	03H
	DB	03H
	DB	03H
	DB	03H
	DB	03H
	DB	03H
	DB	03H
	DB	03H
	DB	03H
	DB	03H
	DB	03H
	DB	03H
	DB	01aH
	DB	01eH
	DB	0b3H
	DB	00H
	DB	00H
	DB	00H
	DB	00H
	DB	00H
	DB	00H
	DB	00H
	DB	04H
	DB	01eH
	DB	01aH
	DB	03H
	DB	03H
	DB	03H
	DB	03H
	DB	03H
	DB	03H
	DB	03H
	DB	03H
	DB	03H
	DB	03H
	DB	03H
	DB	016H
	DB	08H
	DB	0e0H
	DB	0e0H
	DB	0e0H
	DB	0e0H
	DB	042H
	DB	042H
	DB	042H
	DB	08H
	DB	08H
	DB	08H
	DB	08H
	DB	08H
	DB	08H
	DB	08H
	DB	08H
	DB	08H
	DB	08H
	DB	08H
	DB	0c2H
	DB	0c2H
	DB	0c2H
	DB	0c2H
	DB	0c2H
	DB	0c2H
	DB	0c2H
	DB	0c2H
	DB	0c2H
	DB	05H
	DB	05H
	DB	05H
	DB	05H
	DB	05H
	DB	05H
	DB	05H
	DB	05H
	DB	05H
	DB	088H
	DB	088H
	DB	088H
	DB	088H
	DB	088H
	DB	04H
	DB	04H
	DB	04H
	DB	04H
	DB	04H
	DB	04H
	DB	04H
	DB	0b3H
	DB	0b3H
	DB	0b3H
	DB	0b3H
	DB	0b3H
	DB	0b3H
	DB	0b3H
	DB	0b3H
	DB	0b3H
	DB	0b3H
	DB	0b3H
	DB	0b3H
	DB	00H
	DB	00H
	DB	00H
	DB	00H
	DB	00H
	DB	00H
	DB	00H
	DB	00H
	DB	00H
	DB	00H
	DB	00H
	DB	00H
	DB	00H
	DB	00H
	DB	00H
	DB	00H
	DB	00H
	DB	00H
	DB	00H
	DB	00H
	DB	00H
	DB	00H
	DB	00H
	DB	00H
	DB	00H
	DB	00H
	DB	00H
	DB	00H
	DB	00H
	DB	00H
	DB	00H
	DB	00H
	DB	00H
	DB	00H
	DB	00H
	DB	00H
	DB	00H
	DB	00H
	DB	00H
	DB	00H
	DB	00H
	DB	00H
	DB	00H
	DB	00H
	DB	00H
	DB	00H
	DB	00H
	DB	00H
	DB	00H
	DB	00H
	DB	00H
	DB	00H
	DB	0b3H
	DB	0b3H
	DB	0b3H
	DB	0b3H
	DB	0b3H
	DB	0b3H
	DB	0b3H
	DB	04H
	DB	04H
	DB	04H
	DB	04H
	DB	04H
	DB	04H
	DB	088H
	DB	088H
	DB	088H
	DB	088H
	DB	088H
	DB	088H
	DB	088H
	DB	088H
	DB	088H
	DB	088H
	DB	088H
	DB	088H
	DB	088H
	DB	088H
	DB	088H
	DB	088H
	DB	088H
	DB	088H
	DB	088H
	DB	088H
	DB	088H
	DB	088H
	DB	088H
	DB	088H
	DB	088H
	DB	088H
	DB	088H
	DB	088H
	DB	088H
	DB	088H
	DB	05H
	DB	01cH
	DB	024H
	DB	024H
	DB	01cH
	DB	037H
	DB	051H
	DB	038H
	DB	038H
	DB	037H
	DB	03cH
	DB	03cH
	DB	010H
	DB	01cH
	DB	01cH
	DB	01cH
	DB	024H
	DB	024H
	DB	024H
	DB	01cH
	DB	03cH
	DB	01cH
	DB	024H
	DB	01cH
	DB	01cH
	DB	028H
	DB	02bH
	DB	02bH
	DB	02bH
	DB	023H
	DB	0eH
	DB	0aH
	DB	0aH
	DB	0aH
	DB	04eH
	DB	02H
	DB	03H
	DB	03H
	DB	03H
	DB	03H
	DB	02H
	DB	02fH
	DB	044H
	DB	062H
	DB	01bH
	DB	015H
	DB	01bH
	DB	01bH
	DB	01bH
	DB	01bH
	DB	039H
	DB	015H
	DB	015H
	DB	03eH
	DB	039H
	DB	015H
	DB	015H
	DB	03fH
	DB	02dH
	DB	015H
	DB	01bH
	DB	03fH
	DB	01bH
	DB	039H
	DB	029H
	DB	0dcH
	DB	06cH
	DB	05eH
	DB	043H
	DB	05eH
	DB	05eH
	DB	066H
	DB	066H
	DB	033H
	DB	05dH
	DB	05dH
	DB	02eH
	DB	041H
	DB	041H
	DB	049H
	DB	05eH
	DB	036H
	DB	0eH
	DB	0aH
	DB	0aH
	DB	0aH
	DB	02H
	DB	02H
	DB	03H
	DB	03H
	DB	03H
	DB	03H
	DB	03H
	DB	03H
	DB	03H
	DB	03H
	DB	03H
	DB	03H
	DB	03H
	DB	03H
	DB	03H
	DB	03H
	DB	03H
	DB	03H
	DB	03H
	DB	03H
	DB	03H
	DB	03H
	DB	03H
	DB	03H
	DB	03H
	DB	03H
	DB	03H
	DB	03H
	DB	03H
	DB	03H
	DB	03H
	DB	03H
	DB	03H
	DB	03H
	DB	03H
	DB	03H
	DB	03H
	DB	03H
	DB	03H
	DB	03H
	DB	03H
	DB	03H
	DB	03H
	DB	03H
	DB	03H
	DB	03H
	DB	03H
	DB	03H
	DB	03H
	DB	03H
	DB	03H
	DB	03H
	DB	03H
	DB	03H
	DB	03H
	DB	03H
	DB	03H
	DB	03H
	DB	03H
	DB	03H
	DB	03H
	DB	03H
	DB	03H
	DB	03H
	DB	03H
	DB	03H
	DB	03H
	DB	03H
	DB	03H
	DB	03H
	DB	03H
	DB	03H
	DB	03H
	DB	03H
	DB	03H
	DB	03H
	DB	03H
	DB	03H
	DB	03H
	DB	03H
	DB	03H
	DB	03H
	DB	03H
	DB	03H
	DB	03H
	DB	03H
	DB	03H
	DB	03H
	DB	03H
	DB	03H
	DB	03H
	DB	03H
	DB	03H
	DB	03H
	DB	03H
	DB	03H
	DB	03H
	DB	03H
	DB	03H
	DB	03H
	DB	03H
	DB	03H
	DB	03H
	DB	03H
	DB	03H
	DB	03H
	DB	03H
	DB	03H
	DB	03H
	DB	03H
	DB	03H
	DB	03H
	DB	03H
	DB	03H
	DB	03H
	DB	03H
	DB	03H
	DB	03H
	DB	03H
	DB	03H
	DB	03H
	DB	03H
	DB	03H
	DB	03H
	DB	03H
	DB	03H
	DB	03H
	DB	03H
	DB	03H
	DB	03H
	DB	03H
	DB	03H
	DB	03H
	DB	03H
	DB	03H
	DB	03H
	DB	03H
	DB	03H
	DB	03H
	DB	03H
	DB	03H
	DB	03H
	DB	03H
	DB	03H
	DB	03H
	DB	03H
	DB	03H
	DB	03H
	DB	03H
	DB	03H
	DB	03H
	DB	03H
	DB	03H
	DB	03H
	DB	03H
	DB	03H
	DB	03H
	DB	03H
	DB	03H
	DB	03H
	DB	03H
	DB	03H
	DB	03H
	DB	03H
	DB	03H
	DB	03H
	DB	03H
	DB	03H
	DB	03H
	DB	03H
	DB	03H
	DB	03H
	DB	03H
	DB	03H
	DB	03H
	DB	03H
	DB	03H
	DB	03H
	DB	03H
	DB	03H
	DB	03H
	DB	03H
	DB	03H
	DB	03H
	DB	03H
	DB	03H
	DB	03H
	DB	03H
	DB	03H
	DB	03H
	DB	03H
	DB	03H
	DB	03H
	DB	03H
	DB	03H
	DB	03H
	DB	03H
	DB	03H
	DB	03H
	DB	03H
	DB	03H
	DB	03H
	DB	03H
	DB	03H
	DB	03H
	DB	03H
	DB	03H
	DB	03H
	DB	03H
	DB	03H
	DB	03H
	DB	03H
	DB	03H
	DB	01aH
	DB	01eH
	DB	0b3H
	DB	00H
	DB	00H
	DB	00H
	DB	00H
	DB	00H
	DB	00H
	DB	00H
	DB	04H
	DB	01eH
	DB	01aH
	DB	03H
	DB	03H
	DB	03H
	DB	03H
	DB	03H
	DB	03H
	DB	03H
	DB	03H
	DB	03H
	DB	03H
	DB	03H
	DB	016H
	DB	08H
	DB	0e0H
	DB	0e0H
	DB	0e0H
	DB	0e0H
	DB	0e0H
	DB	042H
	DB	042H
	DB	042H
	DB	08H
	DB	08H
	DB	08H
	DB	08H
	DB	08H
	DB	08H
	DB	08H
	DB	08H
	DB	08H
	DB	08H
	DB	08H
	DB	0c2H
	DB	0c2H
	DB	0c2H
	DB	0c2H
	DB	0c2H
	DB	0c2H
	DB	0c2H
	DB	0c2H
	DB	0c2H
	DB	05H
	DB	05H
	DB	05H
	DB	05H
	DB	05H
	DB	05H
	DB	05H
	DB	05H
	DB	088H
	DB	088H
	DB	088H
	DB	088H
	DB	088H
	DB	088H
	DB	04H
	DB	04H
	DB	04H
	DB	04H
	DB	04H
	DB	04H
	DB	04H
	DB	0b3H
	DB	0b3H
	DB	0b3H
	DB	0b3H
	DB	0b3H
	DB	0b3H
	DB	0b3H
	DB	0b3H
	DB	0b3H
	DB	0b3H
	DB	0b3H
	DB	00H
	DB	00H
	DB	00H
	DB	00H
	DB	00H
	DB	00H
	DB	00H
	DB	00H
	DB	00H
	DB	00H
	DB	00H
	DB	00H
	DB	00H
	DB	00H
	DB	00H
	DB	00H
	DB	00H
	DB	00H
	DB	00H
	DB	00H
	DB	00H
	DB	00H
	DB	00H
	DB	00H
	DB	00H
	DB	00H
	DB	00H
	DB	00H
	DB	00H
	DB	00H
	DB	00H
	DB	00H
	DB	00H
	DB	00H
	DB	00H
	DB	00H
	DB	00H
	DB	00H
	DB	00H
	DB	00H
	DB	00H
	DB	00H
	DB	00H
	DB	00H
	DB	00H
	DB	00H
	DB	00H
	DB	00H
	DB	00H
	DB	00H
	DB	00H
	DB	00H
	DB	00H
	DB	0b3H
	DB	0b3H
	DB	0b3H
	DB	0b3H
	DB	0b3H
	DB	0b3H
	DB	04H
	DB	04H
	DB	04H
	DB	04H
	DB	04H
	DB	04H
	DB	088H
	DB	088H
	DB	088H
	DB	088H
	DB	088H
	DB	088H
	DB	088H
	DB	088H
	DB	088H
	DB	088H
	DB	088H
	DB	088H
	DB	088H
	DB	088H
	DB	088H
	DB	088H
	DB	088H
	DB	088H
	DB	088H
	DB	088H
	DB	088H
	DB	088H
	DB	088H
	DB	088H
	DB	088H
	DB	088H
	DB	088H
	DB	088H
	DB	088H
	DB	088H
	DB	051H
	DB	037H
	DB	024H
	DB	01cH
	DB	01cH
	DB	051H
	DB	051H
	DB	038H
	DB	038H
	DB	08dH
	DB	037H
	DB	03cH
	DB	03cH
	DB	010H
	DB	010H
	DB	01cH
	DB	024H
	DB	024H
	DB	024H
	DB	01cH
	DB	010H
	DB	024H
	DB	024H
	DB	01cH
	DB	051H
	DB	02aH
	DB	02bH
	DB	02bH
	DB	02bH
	DB	023H
	DB	0eH
	DB	0aH
	DB	0aH
	DB	02aH
	DB	02bH
	DB	02H
	DB	03H
	DB	03H
	DB	03H
	DB	03H
	DB	02H
	DB	028H
	DB	056H
	DB	02dH
	DB	015H
	DB	01bH
	DB	01bH
	DB	01bH
	DB	01bH
	DB	02dH
	DB	03eH
	DB	015H
	DB	01bH
	DB	0cfH
	DB	015H
	DB	015H
	DB	02dH
	DB	06bH
	DB	015H
	DB	015H
	DB	039H
	DB	039H
	DB	01bH
	DB	056H
	DB	04dH
	DB	05eH
	DB	05eH
	DB	05eH
	DB	05eH
	DB	05eH
	DB	05eH
	DB	066H
	DB	033H
	DB	05dH
	DB	02eH
	DB	02eH
	DB	0abH
	DB	054H
	DB	054H
	DB	064H
	DB	05eH
	DB	029H
	DB	0eH
	DB	0aH
	DB	0aH
	DB	02H
	DB	02H
	DB	03H
	DB	03H
	DB	03H
	DB	03H
	DB	03H
	DB	03H
	DB	03H
	DB	03H
	DB	03H
	DB	03H
	DB	03H
	DB	03H
	DB	03H
	DB	03H
	DB	03H
	DB	03H
	DB	03H
	DB	03H
	DB	03H
	DB	03H
	DB	03H
	DB	03H
	DB	03H
	DB	03H
	DB	03H
	DB	03H
	DB	03H
	DB	03H
	DB	03H
	DB	03H
	DB	03H
	DB	03H
	DB	03H
	DB	03H
	DB	03H
	DB	03H
	DB	03H
	DB	03H
	DB	03H
	DB	03H
	DB	03H
	DB	03H
	DB	03H
	DB	03H
	DB	03H
	DB	03H
	DB	03H
	DB	03H
	DB	03H
	DB	03H
	DB	03H
	DB	03H
	DB	03H
	DB	03H
	DB	03H
	DB	03H
	DB	03H
	DB	03H
	DB	03H
	DB	03H
	DB	03H
	DB	03H
	DB	03H
	DB	03H
	DB	03H
	DB	03H
	DB	03H
	DB	03H
	DB	03H
	DB	03H
	DB	03H
	DB	03H
	DB	03H
	DB	03H
	DB	03H
	DB	03H
	DB	03H
	DB	03H
	DB	03H
	DB	03H
	DB	03H
	DB	03H
	DB	03H
	DB	03H
	DB	03H
	DB	03H
	DB	03H
	DB	03H
	DB	03H
	DB	03H
	DB	03H
	DB	03H
	DB	03H
	DB	03H
	DB	03H
	DB	03H
	DB	03H
	DB	03H
	DB	03H
	DB	03H
	DB	03H
	DB	03H
	DB	03H
	DB	03H
	DB	03H
	DB	03H
	DB	03H
	DB	03H
	DB	03H
	DB	03H
	DB	03H
	DB	03H
	DB	03H
	DB	03H
	DB	03H
	DB	03H
	DB	03H
	DB	03H
	DB	03H
	DB	03H
	DB	03H
	DB	03H
	DB	03H
	DB	03H
	DB	03H
	DB	03H
	DB	03H
	DB	03H
	DB	03H
	DB	03H
	DB	03H
	DB	03H
	DB	03H
	DB	03H
	DB	03H
	DB	03H
	DB	03H
	DB	03H
	DB	03H
	DB	03H
	DB	03H
	DB	03H
	DB	03H
	DB	03H
	DB	03H
	DB	03H
	DB	03H
	DB	03H
	DB	03H
	DB	03H
	DB	03H
	DB	03H
	DB	03H
	DB	03H
	DB	03H
	DB	03H
	DB	03H
	DB	03H
	DB	03H
	DB	03H
	DB	03H
	DB	03H
	DB	03H
	DB	03H
	DB	03H
	DB	03H
	DB	03H
	DB	03H
	DB	03H
	DB	03H
	DB	03H
	DB	03H
	DB	03H
	DB	03H
	DB	03H
	DB	03H
	DB	03H
	DB	03H
	DB	03H
	DB	03H
	DB	03H
	DB	03H
	DB	03H
	DB	03H
	DB	03H
	DB	03H
	DB	03H
	DB	03H
	DB	03H
	DB	03H
	DB	03H
	DB	03H
	DB	03H
	DB	03H
	DB	03H
	DB	03H
	DB	03H
	DB	03H
	DB	03H
	DB	03H
	DB	03H
	DB	03H
	DB	03H
	DB	03H
	DB	03H
	DB	03H
	DB	03H
	DB	03H
	DB	03H
	DB	03H
	DB	03H
	DB	03H
	DB	01aH
	DB	01eH
	DB	0b3H
	DB	00H
	DB	00H
	DB	00H
	DB	00H
	DB	00H
	DB	00H
	DB	00H
	DB	04H
	DB	01eH
	DB	01aH
	DB	03H
	DB	03H
	DB	03H
	DB	03H
	DB	03H
	DB	03H
	DB	03H
	DB	03H
	DB	03H
	DB	03H
	DB	03H
	DB	016H
	DB	042H
	DB	0e0H
	DB	0e0H
	DB	0e0H
	DB	0e0H
	DB	0e0H
	DB	0e0H
	DB	042H
	DB	042H
	DB	042H
	DB	08H
	DB	08H
	DB	08H
	DB	08H
	DB	08H
	DB	08H
	DB	08H
	DB	08H
	DB	08H
	DB	08H
	DB	08H
	DB	0c2H
	DB	0c2H
	DB	0c2H
	DB	0c2H
	DB	0c2H
	DB	0c2H
	DB	0c2H
	DB	0c2H
	DB	0c2H
	DB	0c2H
	DB	05H
	DB	05H
	DB	05H
	DB	05H
	DB	05H
	DB	05H
	DB	05H
	DB	088H
	DB	088H
	DB	088H
	DB	088H
	DB	088H
	DB	088H
	DB	04H
	DB	04H
	DB	04H
	DB	04H
	DB	04H
	DB	04H
	DB	0b3H
	DB	0b3H
	DB	0b3H
	DB	0b3H
	DB	0b3H
	DB	0b3H
	DB	0b3H
	DB	0b3H
	DB	0b3H
	DB	0b3H
	DB	00H
	DB	00H
	DB	00H
	DB	00H
	DB	00H
	DB	00H
	DB	00H
	DB	00H
	DB	00H
	DB	00H
	DB	00H
	DB	00H
	DB	00H
	DB	00H
	DB	00H
	DB	00H
	DB	00H
	DB	00H
	DB	00H
	DB	00H
	DB	00H
	DB	00H
	DB	00H
	DB	00H
	DB	00H
	DB	00H
	DB	00H
	DB	00H
	DB	00H
	DB	00H
	DB	00H
	DB	00H
	DB	00H
	DB	00H
	DB	00H
	DB	00H
	DB	00H
	DB	00H
	DB	00H
	DB	00H
	DB	00H
	DB	00H
	DB	00H
	DB	00H
	DB	00H
	DB	00H
	DB	00H
	DB	00H
	DB	00H
	DB	00H
	DB	00H
	DB	00H
	DB	00H
	DB	00H
	DB	00H
	DB	0b3H
	DB	0b3H
	DB	0b3H
	DB	0b3H
	DB	0b3H
	DB	0b3H
	DB	04H
	DB	04H
	DB	04H
	DB	04H
	DB	04H
	DB	088H
	DB	088H
	DB	088H
	DB	088H
	DB	088H
	DB	088H
	DB	088H
	DB	088H
	DB	088H
	DB	088H
	DB	088H
	DB	088H
	DB	088H
	DB	088H
	DB	088H
	DB	088H
	DB	088H
	DB	088H
	DB	088H
	DB	088H
	DB	088H
	DB	088H
	DB	088H
	DB	088H
	DB	088H
	DB	088H
	DB	088H
	DB	088H
	DB	088H
	DB	088H
	DB	051H
	DB	038H
	DB	01cH
	DB	01cH
	DB	01cH
	DB	010H
	DB	037H
	DB	038H
	DB	038H
	DB	024H
	DB	08dH
	DB	037H
	DB	051H
	DB	051H
	DB	01cH
	DB	01cH
	DB	01cH
	DB	024H
	DB	024H
	DB	01cH
	DB	01cH
	DB	024H
	DB	024H
	DB	01cH
	DB	05H
	DB	02bH
	DB	095H
	DB	02bH
	DB	02aH
	DB	0eH
	DB	0eH
	DB	0aH
	DB	023H
	DB	062H
	DB	03eH
	DB	02H
	DB	03H
	DB	03H
	DB	03H
	DB	03H
	DB	02H
	DB	023H
	DB	03eH
	DB	015H
	DB	01bH
	DB	01bH
	DB	015H
	DB	015H
	DB	01bH
	DB	039H
	DB	015H
	DB	01bH
	DB	068H
	DB	02dH
	DB	015H
	DB	01bH
	DB	06bH
	DB	01bH
	DB	01bH
	DB	02dH
	DB	0cfH
	DB	015H
	DB	06bH
	DB	036H
	DB	078H
	DB	078H
	DB	033H
	DB	033H
	DB	033H
	DB	033H
	DB	033H
	DB	05dH
	DB	02eH
	DB	02eH
	DB	087H
	DB	02eH
	DB	087H
	DB	0f9H
	DB	049H
	DB	0a2H
	DB	04dH
	DB	028H
	DB	0eH
	DB	0aH
	DB	0aH
	DB	02H
	DB	02H
	DB	03H
	DB	03H
	DB	03H
	DB	03H
	DB	03H
	DB	03H
	DB	03H
	DB	03H
	DB	03H
	DB	03H
	DB	03H
	DB	03H
	DB	03H
	DB	03H
	DB	03H
	DB	03H
	DB	03H
	DB	03H
	DB	03H
	DB	03H
	DB	03H
	DB	03H
	DB	03H
	DB	03H
	DB	03H
	DB	03H
	DB	03H
	DB	03H
	DB	03H
	DB	03H
	DB	03H
	DB	03H
	DB	03H
	DB	03H
	DB	03H
	DB	03H
	DB	03H
	DB	03H
	DB	03H
	DB	03H
	DB	03H
	DB	03H
	DB	03H
	DB	03H
	DB	03H
	DB	03H
	DB	03H
	DB	03H
	DB	03H
	DB	03H
	DB	03H
	DB	03H
	DB	03H
	DB	03H
	DB	03H
	DB	03H
	DB	03H
	DB	03H
	DB	03H
	DB	03H
	DB	03H
	DB	03H
	DB	03H
	DB	03H
	DB	03H
	DB	03H
	DB	03H
	DB	03H
	DB	03H
	DB	03H
	DB	03H
	DB	03H
	DB	03H
	DB	03H
	DB	03H
	DB	03H
	DB	03H
	DB	03H
	DB	03H
	DB	03H
	DB	03H
	DB	03H
	DB	03H
	DB	03H
	DB	03H
	DB	03H
	DB	03H
	DB	03H
	DB	03H
	DB	03H
	DB	03H
	DB	03H
	DB	03H
	DB	03H
	DB	03H
	DB	03H
	DB	03H
	DB	03H
	DB	03H
	DB	03H
	DB	03H
	DB	03H
	DB	03H
	DB	03H
	DB	03H
	DB	03H
	DB	03H
	DB	03H
	DB	03H
	DB	03H
	DB	03H
	DB	03H
	DB	03H
	DB	03H
	DB	03H
	DB	03H
	DB	03H
	DB	03H
	DB	03H
	DB	03H
	DB	03H
	DB	03H
	DB	03H
	DB	03H
	DB	03H
	DB	03H
	DB	03H
	DB	03H
	DB	03H
	DB	03H
	DB	03H
	DB	03H
	DB	03H
	DB	03H
	DB	03H
	DB	03H
	DB	03H
	DB	03H
	DB	03H
	DB	03H
	DB	03H
	DB	03H
	DB	03H
	DB	03H
	DB	03H
	DB	03H
	DB	03H
	DB	03H
	DB	03H
	DB	03H
	DB	03H
	DB	03H
	DB	03H
	DB	03H
	DB	03H
	DB	03H
	DB	03H
	DB	03H
	DB	03H
	DB	03H
	DB	03H
	DB	03H
	DB	03H
	DB	03H
	DB	03H
	DB	03H
	DB	03H
	DB	03H
	DB	03H
	DB	03H
	DB	03H
	DB	03H
	DB	03H
	DB	03H
	DB	03H
	DB	03H
	DB	03H
	DB	03H
	DB	03H
	DB	03H
	DB	03H
	DB	03H
	DB	03H
	DB	03H
	DB	03H
	DB	03H
	DB	03H
	DB	03H
	DB	03H
	DB	03H
	DB	03H
	DB	03H
	DB	03H
	DB	03H
	DB	03H
	DB	03H
	DB	03H
	DB	03H
	DB	03H
	DB	03H
	DB	03H
	DB	03H
	DB	03H
	DB	03H
	DB	03H
	DB	03H
	DB	03H
	DB	03H
	DB	03H
	DB	03H
	DB	03H
	DB	03H
	DB	01aH
	DB	01eH
	DB	0b3H
	DB	00H
	DB	00H
	DB	00H
	DB	00H
	DB	00H
	DB	00H
	DB	00H
	DB	04H
	DB	01eH
	DB	01aH
	DB	03H
	DB	03H
	DB	03H
	DB	03H
	DB	03H
	DB	03H
	DB	03H
	DB	03H
	DB	03H
	DB	03H
	DB	03H
	DB	016H
	DB	042H
	DB	01H
	DB	0e0H
	DB	0e0H
	DB	0e0H
	DB	0e0H
	DB	0e0H
	DB	0e0H
	DB	042H
	DB	042H
	DB	042H
	DB	08H
	DB	08H
	DB	08H
	DB	08H
	DB	08H
	DB	08H
	DB	08H
	DB	08H
	DB	08H
	DB	08H
	DB	08H
	DB	08H
	DB	0c2H
	DB	0c2H
	DB	0c2H
	DB	0c2H
	DB	0c2H
	DB	0c2H
	DB	0c2H
	DB	0c2H
	DB	0c2H
	DB	05H
	DB	05H
	DB	05H
	DB	05H
	DB	05H
	DB	05H
	DB	05H
	DB	088H
	DB	088H
	DB	088H
	DB	088H
	DB	088H
	DB	04H
	DB	04H
	DB	04H
	DB	04H
	DB	04H
	DB	04H
	DB	04H
	DB	0b3H
	DB	0b3H
	DB	0b3H
	DB	0b3H
	DB	0b3H
	DB	0b3H
	DB	0b3H
	DB	0b3H
	DB	0b3H
	DB	0b3H
	DB	00H
	DB	00H
	DB	00H
	DB	00H
	DB	00H
	DB	00H
	DB	00H
	DB	00H
	DB	00H
	DB	00H
	DB	00H
	DB	00H
	DB	00H
	DB	00H
	DB	00H
	DB	00H
	DB	00H
	DB	00H
	DB	00H
	DB	00H
	DB	00H
	DB	00H
	DB	00H
	DB	00H
	DB	00H
	DB	00H
	DB	00H
	DB	00H
	DB	00H
	DB	00H
	DB	00H
	DB	00H
	DB	00H
	DB	00H
	DB	00H
	DB	00H
	DB	00H
	DB	00H
	DB	00H
	DB	00H
	DB	00H
	DB	00H
	DB	00H
	DB	00H
	DB	00H
	DB	00H
	DB	00H
	DB	00H
	DB	00H
	DB	00H
	DB	00H
	DB	00H
	DB	00H
	DB	00H
	DB	00H
	DB	0b3H
	DB	0b3H
	DB	0b3H
	DB	0b3H
	DB	0b3H
	DB	0b3H
	DB	04H
	DB	04H
	DB	04H
	DB	04H
	DB	04H
	DB	088H
	DB	088H
	DB	088H
	DB	088H
	DB	088H
	DB	088H
	DB	088H
	DB	088H
	DB	088H
	DB	088H
	DB	088H
	DB	088H
	DB	088H
	DB	088H
	DB	088H
	DB	088H
	DB	088H
	DB	088H
	DB	088H
	DB	088H
	DB	088H
	DB	088H
	DB	088H
	DB	088H
	DB	088H
	DB	088H
	DB	088H
	DB	088H
	DB	088H
	DB	037H
	DB	038H
	DB	01cH
	DB	01cH
	DB	030H
	DB	051H
	DB	038H
	DB	038H
	DB	024H
	DB	024H
	DB	024H
	DB	051H
	DB	051H
	DB	01cH
	DB	01cH
	DB	01cH
	DB	024H
	DB	024H
	DB	024H
	DB	010H
	DB	01cH
	DB	024H
	DB	024H
	DB	010H
	DB	04eH
	DB	057H
	DB	057H
	DB	02bH
	DB	023H
	DB	0eH
	DB	0aH
	DB	0aH
	DB	056H
	DB	01bH
	DB	015H
	DB	072H
	DB	02H
	DB	02H
	DB	03H
	DB	02H
	DB	02fH
	DB	03eH
	DB	015H
	DB	015H
	DB	01bH
	DB	015H
	DB	015H
	DB	01bH
	DB	047H
	DB	015H
	DB	015H
	DB	0cfH
	DB	03eH
	DB	01bH
	DB	01bH
	DB	06bH
	DB	03eH
	DB	01bH
	DB	01bH
	DB	06bH
	DB	01bH
	DB	02dH
	DB	029H
	DB	033H
	DB	078H
	DB	033H
	DB	05dH
	DB	02eH
	DB	02eH
	DB	02eH
	DB	087H
	DB	054H
	DB	081H
	DB	054H
	DB	029H
	DB	02bH
	DB	049H
	DB	0f9H
	DB	05dH
	DB	033H
	DB	029H
	DB	0eH
	DB	0eH
	DB	0aH
	DB	0aH
	DB	02H
	DB	02H
	DB	03H
	DB	03H
	DB	03H
	DB	03H
	DB	03H
	DB	03H
	DB	03H
	DB	03H
	DB	03H
	DB	03H
	DB	03H
	DB	03H
	DB	03H
	DB	03H
	DB	03H
	DB	03H
	DB	03H
	DB	03H
	DB	03H
	DB	03H
	DB	03H
	DB	03H
	DB	03H
	DB	03H
	DB	03H
	DB	03H
	DB	03H
	DB	03H
	DB	03H
	DB	03H
	DB	03H
	DB	03H
	DB	03H
	DB	03H
	DB	03H
	DB	03H
	DB	03H
	DB	03H
	DB	03H
	DB	03H
	DB	03H
	DB	03H
	DB	03H
	DB	03H
	DB	03H
	DB	03H
	DB	03H
	DB	03H
	DB	03H
	DB	03H
	DB	03H
	DB	03H
	DB	03H
	DB	03H
	DB	03H
	DB	03H
	DB	03H
	DB	03H
	DB	03H
	DB	03H
	DB	03H
	DB	03H
	DB	03H
	DB	03H
	DB	03H
	DB	03H
	DB	03H
	DB	03H
	DB	03H
	DB	03H
	DB	03H
	DB	03H
	DB	03H
	DB	03H
	DB	03H
	DB	03H
	DB	03H
	DB	03H
	DB	03H
	DB	03H
	DB	03H
	DB	03H
	DB	03H
	DB	03H
	DB	03H
	DB	03H
	DB	03H
	DB	03H
	DB	03H
	DB	03H
	DB	03H
	DB	03H
	DB	03H
	DB	03H
	DB	03H
	DB	03H
	DB	03H
	DB	03H
	DB	03H
	DB	03H
	DB	03H
	DB	03H
	DB	03H
	DB	03H
	DB	03H
	DB	03H
	DB	03H
	DB	03H
	DB	03H
	DB	03H
	DB	03H
	DB	03H
	DB	03H
	DB	03H
	DB	03H
	DB	03H
	DB	03H
	DB	03H
	DB	03H
	DB	03H
	DB	03H
	DB	03H
	DB	03H
	DB	03H
	DB	03H
	DB	03H
	DB	03H
	DB	03H
	DB	03H
	DB	03H
	DB	03H
	DB	03H
	DB	03H
	DB	03H
	DB	03H
	DB	03H
	DB	03H
	DB	03H
	DB	03H
	DB	03H
	DB	03H
	DB	03H
	DB	03H
	DB	03H
	DB	03H
	DB	03H
	DB	03H
	DB	03H
	DB	03H
	DB	03H
	DB	03H
	DB	03H
	DB	03H
	DB	03H
	DB	03H
	DB	03H
	DB	03H
	DB	03H
	DB	03H
	DB	03H
	DB	03H
	DB	03H
	DB	03H
	DB	03H
	DB	03H
	DB	03H
	DB	03H
	DB	03H
	DB	03H
	DB	03H
	DB	03H
	DB	03H
	DB	03H
	DB	03H
	DB	03H
	DB	03H
	DB	03H
	DB	03H
	DB	03H
	DB	03H
	DB	03H
	DB	03H
	DB	03H
	DB	03H
	DB	03H
	DB	03H
	DB	03H
	DB	03H
	DB	03H
	DB	03H
	DB	03H
	DB	03H
	DB	03H
	DB	03H
	DB	03H
	DB	03H
	DB	03H
	DB	03H
	DB	03H
	DB	03H
	DB	03H
	DB	03H
	DB	03H
	DB	03H
	DB	03H
	DB	03H
	DB	03H
	DB	03H
	DB	03H
	DB	03H
	DB	03H
	DB	03H
	DB	01aH
	DB	01eH
	DB	0b3H
	DB	00H
	DB	00H
	DB	00H
	DB	00H
	DB	00H
	DB	00H
	DB	00H
	DB	04H
	DB	01eH
	DB	01aH
	DB	03H
	DB	03H
	DB	03H
	DB	03H
	DB	03H
	DB	03H
	DB	03H
	DB	03H
	DB	03H
	DB	03H
	DB	03H
	DB	016H
	DB	042H
	DB	01H
	DB	0e0H
	DB	0e0H
	DB	0e0H
	DB	0e0H
	DB	0e0H
	DB	0e0H
	DB	0e0H
	DB	042H
	DB	042H
	DB	042H
	DB	08H
	DB	08H
	DB	08H
	DB	08H
	DB	08H
	DB	08H
	DB	08H
	DB	08H
	DB	08H
	DB	08H
	DB	08H
	DB	0c2H
	DB	0c2H
	DB	0c2H
	DB	0c2H
	DB	0c2H
	DB	0c2H
	DB	0c2H
	DB	0c2H
	DB	0c2H
	DB	0c2H
	DB	05H
	DB	05H
	DB	05H
	DB	05H
	DB	05H
	DB	05H
	DB	05H
	DB	088H
	DB	088H
	DB	088H
	DB	088H
	DB	04H
	DB	04H
	DB	04H
	DB	04H
	DB	04H
	DB	04H
	DB	04H
	DB	0b3H
	DB	0b3H
	DB	0b3H
	DB	0b3H
	DB	0b3H
	DB	0b3H
	DB	0b3H
	DB	0b3H
	DB	0b3H
	DB	0b3H
	DB	00H
	DB	00H
	DB	00H
	DB	00H
	DB	00H
	DB	00H
	DB	00H
	DB	00H
	DB	00H
	DB	00H
	DB	00H
	DB	00H
	DB	00H
	DB	00H
	DB	00H
	DB	00H
	DB	00H
	DB	00H
	DB	00H
	DB	00H
	DB	00H
	DB	00H
	DB	00H
	DB	00H
	DB	00H
	DB	00H
	DB	00H
	DB	00H
	DB	00H
	DB	00H
	DB	00H
	DB	00H
	DB	00H
	DB	00H
	DB	00H
	DB	00H
	DB	00H
	DB	00H
	DB	00H
	DB	00H
	DB	00H
	DB	00H
	DB	00H
	DB	00H
	DB	00H
	DB	00H
	DB	00H
	DB	00H
	DB	00H
	DB	00H
	DB	00H
	DB	00H
	DB	00H
	DB	00H
	DB	00H
	DB	0b3H
	DB	0b3H
	DB	0b3H
	DB	0b3H
	DB	0b3H
	DB	0b3H
	DB	0b3H
	DB	04H
	DB	04H
	DB	04H
	DB	04H
	DB	088H
	DB	088H
	DB	088H
	DB	088H
	DB	088H
	DB	088H
	DB	088H
	DB	088H
	DB	088H
	DB	088H
	DB	088H
	DB	088H
	DB	088H
	DB	088H
	DB	088H
	DB	088H
	DB	088H
	DB	088H
	DB	088H
	DB	088H
	DB	088H
	DB	088H
	DB	088H
	DB	088H
	DB	088H
	DB	088H
	DB	088H
	DB	088H
	DB	05H
	DB	037H
	DB	024H
	DB	01cH
	DB	01cH
	DB	051H
	DB	037H
	DB	08dH
	DB	024H
	DB	024H
	DB	024H
	DB	01cH
	DB	03cH
	DB	051H
	DB	01cH
	DB	01cH
	DB	01cH
	DB	024H
	DB	024H
	DB	01cH
	DB	03cH
	DB	024H
	DB	024H
	DB	01cH
	DB	051H
	DB	02bH
	DB	057H
	DB	057H
	DB	029H
	DB	0eH
	DB	0eH
	DB	0aH
	DB	0aH
	DB	072H
	DB	01bH
	DB	015H
	DB	0aeH
	DB	02H
	DB	02H
	DB	02H
	DB	02fH
	DB	03eH
	DB	015H
	DB	015H
	DB	015H
	DB	015H
	DB	015H
	DB	01bH
	DB	047H
	DB	0cbH
	DB	015H
	DB	03fH
	DB	03eH
	DB	01bH
	DB	01bH
	DB	06bH
	DB	02dH
	DB	015H
	DB	015H
	DB	03fH
	DB	02dH
	DB	03eH
	DB	0c4H
	DB	04dH
	DB	033H
	DB	033H
	DB	05dH
	DB	02eH
	DB	04aH
	DB	087H
	DB	087H
	DB	02eH
	DB	029H
	DB	028H
	DB	023H
	DB	0aH
	DB	02H
	DB	0aH
	DB	023H
	DB	064H
	DB	036H
	DB	028H
	DB	0eH
	DB	0aH
	DB	0aH
	DB	02H
	DB	02H
	DB	02H
	DB	03H
	DB	03H
	DB	03H
	DB	03H
	DB	03H
	DB	03H
	DB	03H
	DB	03H
	DB	03H
	DB	03H
	DB	03H
	DB	03H
	DB	03H
	DB	03H
	DB	03H
	DB	03H
	DB	03H
	DB	03H
	DB	03H
	DB	03H
	DB	03H
	DB	03H
	DB	03H
	DB	03H
	DB	03H
	DB	03H
	DB	03H
	DB	03H
	DB	03H
	DB	03H
	DB	03H
	DB	03H
	DB	03H
	DB	03H
	DB	03H
	DB	03H
	DB	03H
	DB	03H
	DB	03H
	DB	03H
	DB	03H
	DB	03H
	DB	03H
	DB	03H
	DB	03H
	DB	03H
	DB	03H
	DB	03H
	DB	03H
	DB	03H
	DB	02H
	DB	0aH
	DB	0aH
	DB	0aH
	DB	0aH
	DB	0aH
	DB	0aH
	DB	0aH
	DB	0aH
	DB	0aH
	DB	0aH
	DB	0aH
	DB	0aH
	DB	0aH
	DB	0aH
	DB	0aH
	DB	0aH
	DB	0aH
	DB	0aH
	DB	0aH
	DB	0aH
	DB	0aH
	DB	0aH
	DB	0aH
	DB	0aH
	DB	0aH
	DB	0aH
	DB	0aH
	DB	0aH
	DB	0aH
	DB	0aH
	DB	0aH
	DB	0aH
	DB	0aH
	DB	0aH
	DB	0aH
	DB	0aH
	DB	0aH
	DB	0aH
	DB	0aH
	DB	0aH
	DB	0aH
	DB	0aH
	DB	0aH
	DB	0aH
	DB	0aH
	DB	0aH
	DB	0aH
	DB	0aH
	DB	0aH
	DB	0aH
	DB	0aH
	DB	0aH
	DB	0aH
	DB	0aH
	DB	0aH
	DB	0aH
	DB	0aH
	DB	0aH
	DB	0aH
	DB	0aH
	DB	0aH
	DB	0aH
	DB	0aH
	DB	0aH
	DB	0aH
	DB	0aH
	DB	0aH
	DB	0aH
	DB	0aH
	DB	0aH
	DB	0aH
	DB	0aH
	DB	0aH
	DB	0aH
	DB	0aH
	DB	0aH
	DB	0aH
	DB	0aH
	DB	0aH
	DB	0aH
	DB	0aH
	DB	0aH
	DB	0aH
	DB	0aH
	DB	0aH
	DB	0aH
	DB	0aH
	DB	0aH
	DB	0aH
	DB	0aH
	DB	0aH
	DB	0aH
	DB	0aH
	DB	0aH
	DB	0aH
	DB	0aH
	DB	0aH
	DB	0aH
	DB	0aH
	DB	0aH
	DB	0aH
	DB	0aH
	DB	0aH
	DB	0aH
	DB	0aH
	DB	0aH
	DB	0aH
	DB	0aH
	DB	0aH
	DB	0aH
	DB	0aH
	DB	0aH
	DB	0aH
	DB	0aH
	DB	0aH
	DB	0aH
	DB	0aH
	DB	0aH
	DB	0aH
	DB	0aH
	DB	0aH
	DB	0aH
	DB	0aH
	DB	0aH
	DB	0aH
	DB	0aH
	DB	0aH
	DB	0aH
	DB	0aH
	DB	0aH
	DB	0aH
	DB	0aH
	DB	0aH
	DB	0aH
	DB	0aH
	DB	0aH
	DB	0aH
	DB	0aH
	DB	0aH
	DB	0aH
	DB	0aH
	DB	0aH
	DB	0aH
	DB	0aH
	DB	0aH
	DB	0aH
	DB	0aH
	DB	0aH
	DB	02H
	DB	03H
	DB	03H
	DB	03H
	DB	03H
	DB	03H
	DB	03H
	DB	03H
	DB	03H
	DB	03H
	DB	03H
	DB	03H
	DB	03H
	DB	01aH
	DB	01eH
	DB	0b3H
	DB	00H
	DB	00H
	DB	00H
	DB	00H
	DB	00H
	DB	00H
	DB	00H
	DB	04H
	DB	01eH
	DB	01aH
	DB	03H
	DB	03H
	DB	03H
	DB	03H
	DB	03H
	DB	03H
	DB	03H
	DB	03H
	DB	03H
	DB	03H
	DB	03H
	DB	016H
	DB	042H
	DB	01H
	DB	0e0H
	DB	0e0H
	DB	0e0H
	DB	0e0H
	DB	0e0H
	DB	0e0H
	DB	0e0H
	DB	0e0H
	DB	042H
	DB	042H
	DB	042H
	DB	08H
	DB	08H
	DB	08H
	DB	08H
	DB	08H
	DB	08H
	DB	08H
	DB	08H
	DB	08H
	DB	08H
	DB	08H
	DB	08H
	DB	0c2H
	DB	0c2H
	DB	0c2H
	DB	0c2H
	DB	0c2H
	DB	0c2H
	DB	0c2H
	DB	0c2H
	DB	0c2H
	DB	0c2H
	DB	05H
	DB	05H
	DB	05H
	DB	05H
	DB	05H
	DB	088H
	DB	088H
	DB	088H
	DB	088H
	DB	04H
	DB	04H
	DB	04H
	DB	04H
	DB	04H
	DB	04H
	DB	04H
	DB	0b3H
	DB	0b3H
	DB	0b3H
	DB	0b3H
	DB	0b3H
	DB	0b3H
	DB	0b3H
	DB	0b3H
	DB	0b3H
	DB	0b3H
	DB	0b3H
	DB	0b3H
	DB	0b3H
	DB	0b3H
	DB	0b3H
	DB	0b3H
	DB	0b3H
	DB	0b3H
	DB	0b3H
	DB	0b3H
	DB	0b3H
	DB	0b3H
	DB	0b3H
	DB	0b3H
	DB	0b3H
	DB	0b3H
	DB	0b3H
	DB	0b3H
	DB	0b3H
	DB	0b3H
	DB	0b3H
	DB	0b3H
	DB	0b3H
	DB	0b3H
	DB	0b3H
	DB	0b3H
	DB	0b3H
	DB	0b3H
	DB	0b3H
	DB	0b3H
	DB	0b3H
	DB	0b3H
	DB	0b3H
	DB	0b3H
	DB	0b3H
	DB	0b3H
	DB	0b3H
	DB	0b3H
	DB	0b3H
	DB	0b3H
	DB	0b3H
	DB	0b3H
	DB	0b3H
	DB	0b3H
	DB	0b3H
	DB	0b3H
	DB	0b3H
	DB	0b3H
	DB	0b3H
	DB	0b3H
	DB	0b3H
	DB	0b3H
	DB	0b3H
	DB	0b3H
	DB	0b3H
	DB	0b3H
	DB	0b3H
	DB	0b3H
	DB	0b3H
	DB	0b3H
	DB	0b3H
	DB	0b3H
	DB	0b3H
	DB	04H
	DB	04H
	DB	04H
	DB	04H
	DB	088H
	DB	088H
	DB	088H
	DB	05H
	DB	088H
	DB	088H
	DB	088H
	DB	088H
	DB	088H
	DB	088H
	DB	088H
	DB	088H
	DB	088H
	DB	088H
	DB	088H
	DB	088H
	DB	088H
	DB	088H
	DB	088H
	DB	088H
	DB	088H
	DB	088H
	DB	088H
	DB	088H
	DB	088H
	DB	088H
	DB	088H
	DB	051H
	DB	01cH
	DB	01cH
	DB	01cH
	DB	01cH
	DB	051H
	DB	08dH
	DB	024H
	DB	024H
	DB	024H
	DB	01cH
	DB	03cH
	DB	010H
	DB	037H
	DB	01cH
	DB	01cH
	DB	01cH
	DB	024H
	DB	024H
	DB	01cH
	DB	01cH
	DB	024H
	DB	024H
	DB	01cH
	DB	028H
	DB	064H
	DB	057H
	DB	095H
	DB	023H
	DB	0eH
	DB	0eH
	DB	0aH
	DB	0aH
	DB	076H
	DB	01bH
	DB	01bH
	DB	01bH
	DB	062H
	DB	028H
	DB	056H
	DB	02dH
	DB	015H
	DB	01bH
	DB	015H
	DB	015H
	DB	015H
	DB	02dH
	DB	045H
	DB	015H
	DB	02dH
	DB	039H
	DB	044H
	DB	01bH
	DB	01bH
	DB	03eH
	DB	01bH
	DB	015H
	DB	045H
	DB	03fH
	DB	02dH
	DB	03eH
	DB	0c4H
	DB	0abH
	DB	078H
	DB	0a8H
	DB	05dH
	DB	02eH
	DB	02eH
	DB	04aH
	DB	02eH
	DB	087H
	DB	02eH
	DB	081H
	DB	02aH
	DB	023H
	DB	023H
	DB	02fH
	DB	02fH
	DB	02H
	DB	023H
	DB	028H
	DB	0eH
	DB	0eH
	DB	0aH
	DB	0aH
	DB	02H
	DB	02H
	DB	03H
	DB	03H
	DB	03H
	DB	03H
	DB	03H
	DB	03H
	DB	03H
	DB	03H
	DB	03H
	DB	03H
	DB	03H
	DB	03H
	DB	03H
	DB	03H
	DB	03H
	DB	03H
	DB	03H
	DB	03H
	DB	03H
	DB	03H
	DB	03H
	DB	03H
	DB	03H
	DB	03H
	DB	03H
	DB	03H
	DB	03H
	DB	03H
	DB	03H
	DB	03H
	DB	03H
	DB	03H
	DB	03H
	DB	03H
	DB	03H
	DB	03H
	DB	03H
	DB	03H
	DB	03H
	DB	03H
	DB	03H
	DB	03H
	DB	03H
	DB	03H
	DB	03H
	DB	03H
	DB	03H
	DB	03H
	DB	02H
	DB	0eH
	DB	016H
	DB	04H
	DB	088H
	DB	070H
	DB	070H
	DB	070H
	DB	070H
	DB	070H
	DB	070H
	DB	070H
	DB	070H
	DB	070H
	DB	070H
	DB	070H
	DB	070H
	DB	070H
	DB	070H
	DB	070H
	DB	070H
	DB	070H
	DB	070H
	DB	070H
	DB	070H
	DB	070H
	DB	070H
	DB	070H
	DB	070H
	DB	070H
	DB	070H
	DB	070H
	DB	070H
	DB	070H
	DB	070H
	DB	070H
	DB	070H
	DB	070H
	DB	070H
	DB	070H
	DB	070H
	DB	070H
	DB	070H
	DB	070H
	DB	070H
	DB	070H
	DB	070H
	DB	070H
	DB	070H
	DB	070H
	DB	070H
	DB	070H
	DB	070H
	DB	070H
	DB	070H
	DB	070H
	DB	070H
	DB	070H
	DB	070H
	DB	070H
	DB	070H
	DB	070H
	DB	070H
	DB	070H
	DB	070H
	DB	070H
	DB	070H
	DB	070H
	DB	070H
	DB	070H
	DB	070H
	DB	070H
	DB	070H
	DB	070H
	DB	070H
	DB	070H
	DB	070H
	DB	070H
	DB	070H
	DB	070H
	DB	070H
	DB	070H
	DB	070H
	DB	070H
	DB	070H
	DB	070H
	DB	070H
	DB	070H
	DB	070H
	DB	070H
	DB	070H
	DB	070H
	DB	070H
	DB	070H
	DB	070H
	DB	070H
	DB	070H
	DB	070H
	DB	070H
	DB	070H
	DB	070H
	DB	070H
	DB	070H
	DB	070H
	DB	070H
	DB	070H
	DB	070H
	DB	070H
	DB	070H
	DB	070H
	DB	070H
	DB	070H
	DB	070H
	DB	070H
	DB	070H
	DB	070H
	DB	070H
	DB	070H
	DB	070H
	DB	070H
	DB	070H
	DB	070H
	DB	070H
	DB	070H
	DB	070H
	DB	070H
	DB	070H
	DB	070H
	DB	070H
	DB	070H
	DB	070H
	DB	070H
	DB	070H
	DB	070H
	DB	070H
	DB	070H
	DB	070H
	DB	070H
	DB	070H
	DB	070H
	DB	070H
	DB	070H
	DB	070H
	DB	070H
	DB	070H
	DB	070H
	DB	070H
	DB	070H
	DB	070H
	DB	070H
	DB	05H
	DB	088H
	DB	016H
	DB	016H
	DB	0aH
	DB	03H
	DB	03H
	DB	03H
	DB	03H
	DB	03H
	DB	03H
	DB	03H
	DB	03H
	DB	03H
	DB	03H
	DB	01aH
	DB	01eH
	DB	0b3H
	DB	00H
	DB	00H
	DB	00H
	DB	00H
	DB	00H
	DB	00H
	DB	00H
	DB	04H
	DB	01eH
	DB	01aH
	DB	03H
	DB	03H
	DB	03H
	DB	03H
	DB	03H
	DB	03H
	DB	03H
	DB	03H
	DB	03H
	DB	03H
	DB	03H
	DB	016H
	DB	042H
	DB	01H
	DB	0e0H
	DB	0e0H
	DB	0e0H
	DB	0e0H
	DB	0e0H
	DB	0e0H
	DB	0e0H
	DB	0e0H
	DB	0e0H
	DB	042H
	DB	042H
	DB	042H
	DB	08H
	DB	08H
	DB	08H
	DB	08H
	DB	08H
	DB	08H
	DB	08H
	DB	08H
	DB	08H
	DB	08H
	DB	08H
	DB	08H
	DB	08H
	DB	0c2H
	DB	0c2H
	DB	0c2H
	DB	0c2H
	DB	0c2H
	DB	0c2H
	DB	0c2H
	DB	0c2H
	DB	05H
	DB	05H
	DB	05H
	DB	05H
	DB	05H
	DB	088H
	DB	088H
	DB	088H
	DB	088H
	DB	088H
	DB	04H
	DB	04H
	DB	04H
	DB	04H
	DB	04H
	DB	04H
	DB	0b3H
	DB	0b3H
	DB	0b3H
	DB	0b3H
	DB	0b3H
	DB	0b3H
	DB	0b3H
	DB	0b3H
	DB	0b3H
	DB	0b3H
	DB	0b3H
	DB	0b3H
	DB	0b3H
	DB	0b3H
	DB	0b3H
	DB	0b3H
	DB	0b3H
	DB	0b3H
	DB	0b3H
	DB	0b3H
	DB	0b3H
	DB	0b3H
	DB	0b3H
	DB	0b3H
	DB	0b3H
	DB	0b3H
	DB	0b3H
	DB	0b3H
	DB	0b3H
	DB	0b3H
	DB	0b3H
	DB	0b3H
	DB	0b3H
	DB	0b3H
	DB	0b3H
	DB	0b3H
	DB	0b3H
	DB	0b3H
	DB	0b3H
	DB	0b3H
	DB	0b3H
	DB	0b3H
	DB	0b3H
	DB	0b3H
	DB	0b3H
	DB	0b3H
	DB	0b3H
	DB	0b3H
	DB	0b3H
	DB	0b3H
	DB	0b3H
	DB	0b3H
	DB	0b3H
	DB	0b3H
	DB	0b3H
	DB	0b3H
	DB	0b3H
	DB	0b3H
	DB	0b3H
	DB	0b3H
	DB	0b3H
	DB	0b3H
	DB	0b3H
	DB	0b3H
	DB	0b3H
	DB	0b3H
	DB	0b3H
	DB	0b3H
	DB	0b3H
	DB	0b3H
	DB	0b3H
	DB	0b3H
	DB	0b3H
	DB	0b3H
	DB	04H
	DB	04H
	DB	04H
	DB	088H
	DB	088H
	DB	088H
	DB	05H
	DB	05H
	DB	05H
	DB	088H
	DB	088H
	DB	088H
	DB	088H
	DB	088H
	DB	088H
	DB	088H
	DB	088H
	DB	088H
	DB	088H
	DB	088H
	DB	088H
	DB	088H
	DB	088H
	DB	088H
	DB	088H
	DB	088H
	DB	088H
	DB	088H
	DB	088H
	DB	088H
	DB	051H
	DB	01cH
	DB	01cH
	DB	01cH
	DB	010H
	DB	037H
	DB	08dH
	DB	024H
	DB	024H
	DB	024H
	DB	01cH
	DB	010H
	DB	051H
	DB	01cH
	DB	01cH
	DB	01cH
	DB	01cH
	DB	024H
	DB	024H
	DB	03cH
	DB	01cH
	DB	024H
	DB	01cH
	DB	010H
	DB	04eH
	DB	057H
	DB	057H
	DB	076H
	DB	028H
	DB	0eH
	DB	0aH
	DB	0aH
	DB	0aH
	DB	023H
	DB	0aeH
	DB	01bH
	DB	01bH
	DB	03eH
	DB	068H
	DB	044H
	DB	01bH
	DB	01bH
	DB	015H
	DB	015H
	DB	02dH
	DB	047H
	DB	0cbH
	DB	02dH
	DB	0afH
	DB	03eH
	DB	044H
	DB	01bH
	DB	047H
	DB	02dH
	DB	015H
	DB	015H
	DB	02dH
	DB	03fH
	DB	02dH
	DB	039H
	DB	04eH
	DB	0a2H
	DB	021H
	DB	078H
	DB	078H
	DB	02eH
	DB	02eH
	DB	04aH
	DB	04aH
	DB	02eH
	DB	087H
	DB	087H
	DB	02eH
	DB	06aH
	DB	0c7H
	DB	023H
	DB	02fH
	DB	02fH
	DB	023H
	DB	028H
	DB	0eH
	DB	0eH
	DB	0eH
	DB	0aH
	DB	0aH
	DB	02H
	DB	02H
	DB	03H
	DB	03H
	DB	03H
	DB	03H
	DB	03H
	DB	03H
	DB	03H
	DB	03H
	DB	03H
	DB	03H
	DB	03H
	DB	03H
	DB	03H
	DB	03H
	DB	03H
	DB	03H
	DB	03H
	DB	03H
	DB	03H
	DB	03H
	DB	03H
	DB	03H
	DB	03H
	DB	03H
	DB	03H
	DB	03H
	DB	03H
	DB	03H
	DB	03H
	DB	03H
	DB	03H
	DB	03H
	DB	03H
	DB	03H
	DB	03H
	DB	03H
	DB	03H
	DB	03H
	DB	03H
	DB	03H
	DB	03H
	DB	03H
	DB	03H
	DB	03H
	DB	03H
	DB	03H
	DB	03H
	DB	0eH
	DB	00H
	DB	042H
	DB	06H
	DB	069H
	DB	069H
	DB	0f8H
	DB	0f8H
	DB	0f8H
	DB	0f8H
	DB	0f8H
	DB	0f8H
	DB	0f8H
	DB	0f8H
	DB	0f8H
	DB	0f8H
	DB	0f8H
	DB	0f8H
	DB	0f8H
	DB	0f8H
	DB	0f8H
	DB	0f8H
	DB	0f8H
	DB	0f8H
	DB	0f8H
	DB	0f8H
	DB	0f8H
	DB	0f8H
	DB	0f8H
	DB	0f8H
	DB	0f8H
	DB	0f8H
	DB	0f8H
	DB	0f8H
	DB	0f8H
	DB	0f8H
	DB	0f8H
	DB	0f8H
	DB	0f8H
	DB	0f8H
	DB	0f8H
	DB	0f8H
	DB	0f8H
	DB	0f8H
	DB	0f8H
	DB	0f8H
	DB	0f8H
	DB	0f8H
	DB	0f8H
	DB	0f8H
	DB	0f8H
	DB	0f8H
	DB	0f8H
	DB	0f8H
	DB	0f8H
	DB	0f8H
	DB	0f8H
	DB	0f8H
	DB	0f8H
	DB	0f8H
	DB	0f8H
	DB	0f8H
	DB	0f8H
	DB	0f8H
	DB	0f8H
	DB	0f8H
	DB	0f8H
	DB	0f8H
	DB	0f8H
	DB	0f8H
	DB	0f8H
	DB	0f8H
	DB	0f8H
	DB	0f8H
	DB	0f8H
	DB	0f8H
	DB	0f8H
	DB	0f8H
	DB	0f8H
	DB	0f8H
	DB	0f8H
	DB	0f8H
	DB	0f8H
	DB	0f8H
	DB	0f8H
	DB	0f8H
	DB	0f8H
	DB	0f8H
	DB	0f8H
	DB	0f8H
	DB	0f8H
	DB	0f8H
	DB	0f8H
	DB	0f8H
	DB	0f8H
	DB	0f8H
	DB	0f8H
	DB	0f8H
	DB	0f8H
	DB	0f8H
	DB	0f8H
	DB	0f8H
	DB	0f8H
	DB	0f8H
	DB	0f8H
	DB	0f8H
	DB	0f8H
	DB	0f8H
	DB	0f8H
	DB	0f8H
	DB	0f8H
	DB	0f8H
	DB	0f8H
	DB	0f8H
	DB	0f8H
	DB	0f8H
	DB	0f8H
	DB	0f8H
	DB	0f8H
	DB	0f8H
	DB	0f8H
	DB	0f8H
	DB	0f8H
	DB	0f8H
	DB	0f8H
	DB	0f8H
	DB	0f8H
	DB	0f8H
	DB	0f8H
	DB	0f8H
	DB	0f8H
	DB	0f8H
	DB	0f8H
	DB	0f8H
	DB	0f8H
	DB	0f8H
	DB	0f8H
	DB	0f8H
	DB	0f8H
	DB	0f8H
	DB	0f8H
	DB	0f8H
	DB	0f8H
	DB	0f8H
	DB	0f8H
	DB	0f8H
	DB	0f8H
	DB	0f8H
	DB	0f8H
	DB	0f8H
	DB	069H
	DB	06H
	DB	06H
	DB	06H
	DB	0e0H
	DB	03bH
	DB	016H
	DB	02H
	DB	03H
	DB	03H
	DB	03H
	DB	03H
	DB	03H
	DB	03H
	DB	03H
	DB	03H
	DB	01aH
	DB	01eH
	DB	0b3H
	DB	00H
	DB	00H
	DB	00H
	DB	00H
	DB	00H
	DB	00H
	DB	00H
	DB	04H
	DB	01eH
	DB	01aH
	DB	03H
	DB	03H
	DB	03H
	DB	03H
	DB	03H
	DB	03H
	DB	03H
	DB	03H
	DB	03H
	DB	03H
	DB	02H
	DB	016H
	DB	042H
	DB	01H
	DB	0e0H
	DB	0e0H
	DB	0e0H
	DB	0e0H
	DB	0e0H
	DB	0e0H
	DB	0e0H
	DB	0e0H
	DB	0e0H
	DB	042H
	DB	042H
	DB	042H
	DB	042H
	DB	042H
	DB	08H
	DB	08H
	DB	08H
	DB	08H
	DB	08H
	DB	08H
	DB	08H
	DB	08H
	DB	08H
	DB	08H
	DB	08H
	DB	08H
	DB	08H
	DB	0c2H
	DB	0c2H
	DB	0c2H
	DB	0c2H
	DB	0c2H
	DB	0c2H
	DB	05H
	DB	05H
	DB	05H
	DB	05H
	DB	05H
	DB	088H
	DB	088H
	DB	088H
	DB	088H
	DB	088H
	DB	04H
	DB	04H
	DB	04H
	DB	04H
	DB	04H
	DB	04H
	DB	0b3H
	DB	0b3H
	DB	0b3H
	DB	0b3H
	DB	0b3H
	DB	0b3H
	DB	0b3H
	DB	0b3H
	DB	0b3H
	DB	0b3H
	DB	0b3H
	DB	0b3H
	DB	0b3H
	DB	0b3H
	DB	0b3H
	DB	0b3H
	DB	0b3H
	DB	0b3H
	DB	0b3H
	DB	0b3H
	DB	0b3H
	DB	0b3H
	DB	0b3H
	DB	0b3H
	DB	0b3H
	DB	0b3H
	DB	0b3H
	DB	0b3H
	DB	0b3H
	DB	0b3H
	DB	0b3H
	DB	0b3H
	DB	0b3H
	DB	0b3H
	DB	0b3H
	DB	0b3H
	DB	0b3H
	DB	0b3H
	DB	0b3H
	DB	0b3H
	DB	0b3H
	DB	0b3H
	DB	0b3H
	DB	0b3H
	DB	0b3H
	DB	0b3H
	DB	0b3H
	DB	0b3H
	DB	0b3H
	DB	0b3H
	DB	0b3H
	DB	0b3H
	DB	0b3H
	DB	0b3H
	DB	0b3H
	DB	0b3H
	DB	0b3H
	DB	0b3H
	DB	0b3H
	DB	0b3H
	DB	0b3H
	DB	0b3H
	DB	0b3H
	DB	0b3H
	DB	0b3H
	DB	0b3H
	DB	0b3H
	DB	0b3H
	DB	0b3H
	DB	0b3H
	DB	0b3H
	DB	0b3H
	DB	0b3H
	DB	0b3H
	DB	04H
	DB	04H
	DB	04H
	DB	088H
	DB	088H
	DB	088H
	DB	05H
	DB	05H
	DB	05H
	DB	05H
	DB	05H
	DB	088H
	DB	088H
	DB	088H
	DB	088H
	DB	088H
	DB	088H
	DB	088H
	DB	088H
	DB	088H
	DB	088H
	DB	088H
	DB	088H
	DB	088H
	DB	088H
	DB	088H
	DB	088H
	DB	088H
	DB	088H
	DB	088H
	DB	051H
	DB	024H
	DB	01cH
	DB	01cH
	DB	03cH
	DB	038H
	DB	038H
	DB	024H
	DB	024H
	DB	01cH
	DB	01cH
	DB	010H
	DB	051H
	DB	01cH
	DB	01cH
	DB	01cH
	DB	024H
	DB	024H
	DB	01cH
	DB	051H
	DB	01cH
	DB	024H
	DB	01cH
	DB	03cH
	DB	02bH
	DB	057H
	DB	057H
	DB	02aH
	DB	0eH
	DB	0eH
	DB	0aH
	DB	0aH
	DB	0aH
	DB	0c6H
	DB	02fH
	DB	044H
	DB	03eH
	DB	039H
	DB	01bH
	DB	01bH
	DB	015H
	DB	015H
	DB	01bH
	DB	03eH
	DB	02dH
	DB	015H
	DB	02dH
	DB	03eH
	DB	044H
	DB	01bH
	DB	03eH
	DB	03eH
	DB	015H
	DB	015H
	DB	015H
	DB	03eH
	DB	039H
	DB	01bH
	DB	062H
	DB	029H
	DB	04dH
	DB	035H
	DB	0a8H
	DB	03dH
	DB	03dH
	DB	091H
	DB	041H
	DB	041H
	DB	04aH
	DB	04aH
	DB	032H
	DB	02eH
	DB	02eH
	DB	05dH
	DB	018H
	DB	0aH
	DB	03H
	DB	019H
	DB	023H
	DB	0eH
	DB	0eH
	DB	0eH
	DB	0aH
	DB	0aH
	DB	02H
	DB	02H
	DB	02H
	DB	03H
	DB	03H
	DB	03H
	DB	03H
	DB	03H
	DB	03H
	DB	03H
	DB	03H
	DB	03H
	DB	03H
	DB	03H
	DB	03H
	DB	03H
	DB	03H
	DB	03H
	DB	03H
	DB	03H
	DB	03H
	DB	03H
	DB	03H
	DB	03H
	DB	03H
	DB	03H
	DB	03H
	DB	03H
	DB	03H
	DB	03H
	DB	03H
	DB	03H
	DB	03H
	DB	03H
	DB	03H
	DB	03H
	DB	03H
	DB	03H
	DB	03H
	DB	03H
	DB	03H
	DB	03H
	DB	03H
	DB	03H
	DB	03H
	DB	03H
	DB	03H
	DB	03H
	DB	03H
	DB	016H
	DB	088H
	DB	069H
	DB	0f8H
	DB	01eH
	DB	01H
	DB	01H
	DB	01H
	DB	01H
	DB	01H
	DB	01H
	DB	01H
	DB	01H
	DB	01H
	DB	01H
	DB	01H
	DB	01H
	DB	01H
	DB	01H
	DB	01H
	DB	01H
	DB	01H
	DB	01H
	DB	01H
	DB	01H
	DB	01H
	DB	01H
	DB	01H
	DB	01H
	DB	01H
	DB	01H
	DB	01H
	DB	01H
	DB	01H
	DB	01H
	DB	01H
	DB	01H
	DB	01H
	DB	01H
	DB	01H
	DB	01H
	DB	01H
	DB	01H
	DB	01H
	DB	01H
	DB	01H
	DB	01H
	DB	01H
	DB	01H
	DB	01H
	DB	01H
	DB	01H
	DB	01H
	DB	01H
	DB	01H
	DB	01H
	DB	01H
	DB	01H
	DB	01H
	DB	01H
	DB	01H
	DB	01H
	DB	01H
	DB	01H
	DB	01H
	DB	01H
	DB	01H
	DB	01H
	DB	01H
	DB	01H
	DB	01H
	DB	01H
	DB	01H
	DB	01H
	DB	01H
	DB	01H
	DB	01H
	DB	01H
	DB	01H
	DB	01H
	DB	01H
	DB	01H
	DB	01H
	DB	01H
	DB	01H
	DB	01H
	DB	01H
	DB	01H
	DB	01H
	DB	01H
	DB	01H
	DB	01H
	DB	01H
	DB	01H
	DB	01H
	DB	01H
	DB	01H
	DB	01H
	DB	01H
	DB	01H
	DB	01H
	DB	01H
	DB	01H
	DB	01H
	DB	01H
	DB	01H
	DB	01H
	DB	01H
	DB	01H
	DB	01H
	DB	01H
	DB	01H
	DB	01H
	DB	01H
	DB	01H
	DB	01H
	DB	01H
	DB	01H
	DB	01H
	DB	01H
	DB	01H
	DB	01H
	DB	01H
	DB	01H
	DB	01H
	DB	01H
	DB	01H
	DB	01H
	DB	01H
	DB	01H
	DB	01H
	DB	01H
	DB	01H
	DB	01H
	DB	01H
	DB	01H
	DB	01H
	DB	01H
	DB	01H
	DB	01H
	DB	01H
	DB	01H
	DB	01H
	DB	01H
	DB	01H
	DB	01H
	DB	01H
	DB	01H
	DB	01H
	DB	01H
	DB	01H
	DB	01H
	DB	01H
	DB	01H
	DB	05aH
	DB	06H
	DB	06H
	DB	030H
	DB	00H
	DB	02H
	DB	03H
	DB	03H
	DB	03H
	DB	03H
	DB	03H
	DB	03H
	DB	03H
	DB	01aH
	DB	01eH
	DB	0b3H
	DB	00H
	DB	00H
	DB	00H
	DB	00H
	DB	00H
	DB	00H
	DB	00H
	DB	04H
	DB	01eH
	DB	01aH
	DB	03H
	DB	03H
	DB	03H
	DB	03H
	DB	03H
	DB	03H
	DB	03H
	DB	03H
	DB	03H
	DB	03H
	DB	02H
	DB	016H
	DB	042H
	DB	01H
	DB	0e0H
	DB	0e0H
	DB	0e0H
	DB	0e0H
	DB	0e0H
	DB	0e0H
	DB	0e0H
	DB	0e0H
	DB	0e0H
	DB	0e0H
	DB	0e0H
	DB	042H
	DB	042H
	DB	042H
	DB	042H
	DB	08H
	DB	08H
	DB	08H
	DB	08H
	DB	08H
	DB	08H
	DB	08H
	DB	08H
	DB	08H
	DB	08H
	DB	08H
	DB	08H
	DB	08H
	DB	08H
	DB	0c2H
	DB	0c2H
	DB	0c2H
	DB	0c2H
	DB	0c2H
	DB	05H
	DB	05H
	DB	05H
	DB	05H
	DB	05H
	DB	088H
	DB	088H
	DB	088H
	DB	088H
	DB	04H
	DB	04H
	DB	04H
	DB	04H
	DB	04H
	DB	04H
	DB	0b3H
	DB	0b3H
	DB	0b3H
	DB	0b3H
	DB	0b3H
	DB	0b3H
	DB	0b3H
	DB	0b3H
	DB	0b3H
	DB	0b3H
	DB	0b3H
	DB	0b3H
	DB	0b3H
	DB	0b3H
	DB	0b3H
	DB	0b3H
	DB	0b3H
	DB	0b3H
	DB	0b3H
	DB	0b3H
	DB	0b3H
	DB	0b3H
	DB	0b3H
	DB	0b3H
	DB	0b3H
	DB	0b3H
	DB	0b3H
	DB	0b3H
	DB	0b3H
	DB	0b3H
	DB	0b3H
	DB	0b3H
	DB	0b3H
	DB	0b3H
	DB	0b3H
	DB	0b3H
	DB	0b3H
	DB	0b3H
	DB	0b3H
	DB	0b3H
	DB	0b3H
	DB	0b3H
	DB	0b3H
	DB	0b3H
	DB	0b3H
	DB	0b3H
	DB	0b3H
	DB	0b3H
	DB	0b3H
	DB	0b3H
	DB	0b3H
	DB	0b3H
	DB	0b3H
	DB	0b3H
	DB	0b3H
	DB	0b3H
	DB	0b3H
	DB	0b3H
	DB	0b3H
	DB	0b3H
	DB	0b3H
	DB	0b3H
	DB	0b3H
	DB	0b3H
	DB	0b3H
	DB	0b3H
	DB	0b3H
	DB	0b3H
	DB	0b3H
	DB	0b3H
	DB	0b3H
	DB	0b3H
	DB	0b3H
	DB	0b3H
	DB	0b3H
	DB	04H
	DB	04H
	DB	04H
	DB	088H
	DB	088H
	DB	05H
	DB	05H
	DB	05H
	DB	05H
	DB	05H
	DB	05H
	DB	088H
	DB	088H
	DB	088H
	DB	088H
	DB	088H
	DB	088H
	DB	088H
	DB	088H
	DB	088H
	DB	088H
	DB	088H
	DB	088H
	DB	088H
	DB	088H
	DB	088H
	DB	088H
	DB	088H
	DB	05H
	DB	037H
	DB	024H
	DB	01cH
	DB	010H
	DB	037H
	DB	07aH
	DB	038H
	DB	024H
	DB	024H
	DB	01cH
	DB	051H
	DB	010H
	DB	01cH
	DB	01cH
	DB	01cH
	DB	024H
	DB	024H
	DB	024H
	DB	01cH
	DB	01cH
	DB	024H
	DB	01cH
	DB	010H
	DB	028H
	DB	057H
	DB	057H
	DB	057H
	DB	023H
	DB	0eH
	DB	0eH
	DB	0aH
	DB	0aH
	DB	0aH
	DB	02H
	DB	0aH
	DB	056H
	DB	0cfH
	DB	01bH
	DB	015H
	DB	015H
	DB	015H
	DB	02dH
	DB	039H
	DB	01bH
	DB	02dH
	DB	039H
	DB	044H
	DB	01bH
	DB	02dH
	DB	039H
	DB	02dH
	DB	015H
	DB	015H
	DB	01bH
	DB	039H
	DB	02dH
	DB	01bH
	DB	06bH
	DB	064H
	DB	033H
	DB	0a8H
	DB	035H
	DB	021H
	DB	0a2H
	DB	0c4H
	DB	03dH
	DB	041H
	DB	032H
	DB	032H
	DB	032H
	DB	032H
	DB	02eH
	DB	02eH
	DB	02eH
	DB	036H
	DB	0aH
	DB	019H
	DB	023H
	DB	0eH
	DB	0eH
	DB	0eH
	DB	0eH
	DB	0aH
	DB	0aH
	DB	02H
	DB	02H
	DB	03H
	DB	03H
	DB	03H
	DB	03H
	DB	03H
	DB	03H
	DB	03H
	DB	03H
	DB	03H
	DB	03H
	DB	03H
	DB	03H
	DB	03H
	DB	03H
	DB	03H
	DB	03H
	DB	03H
	DB	03H
	DB	03H
	DB	03H
	DB	03H
	DB	03H
	DB	03H
	DB	03H
	DB	03H
	DB	03H
	DB	03H
	DB	03H
	DB	03H
	DB	03H
	DB	03H
	DB	03H
	DB	03H
	DB	03H
	DB	03H
	DB	03H
	DB	03H
	DB	03H
	DB	03H
	DB	03H
	DB	03H
	DB	03H
	DB	03H
	DB	03H
	DB	03H
	DB	03H
	DB	016H
	DB	05H
	DB	0f8H
	DB	06H
	DB	01H
	DB	01H
	DB	01H
	DB	01H
	DB	01H
	DB	01H
	DB	01H
	DB	01H
	DB	01H
	DB	01H
	DB	01H
	DB	01H
	DB	01H
	DB	01H
	DB	01H
	DB	01H
	DB	01H
	DB	01H
	DB	01H
	DB	01H
	DB	01H
	DB	01H
	DB	01H
	DB	01H
	DB	01H
	DB	01H
	DB	01H
	DB	01H
	DB	01H
	DB	01H
	DB	01H
	DB	01H
	DB	01H
	DB	01H
	DB	01H
	DB	01H
	DB	01H
	DB	01H
	DB	01H
	DB	01H
	DB	01H
	DB	01H
	DB	01H
	DB	01H
	DB	01H
	DB	01H
	DB	01H
	DB	01H
	DB	01H
	DB	01H
	DB	01H
	DB	01H
	DB	01H
	DB	01H
	DB	01H
	DB	01H
	DB	01H
	DB	01H
	DB	01H
	DB	01H
	DB	01H
	DB	01H
	DB	01H
	DB	01H
	DB	01H
	DB	01H
	DB	01H
	DB	01H
	DB	01H
	DB	01H
	DB	01H
	DB	01H
	DB	01H
	DB	01H
	DB	01H
	DB	01H
	DB	01H
	DB	01H
	DB	01H
	DB	01H
	DB	01H
	DB	01H
	DB	01H
	DB	01H
	DB	01H
	DB	01H
	DB	01H
	DB	01H
	DB	01H
	DB	01H
	DB	01H
	DB	01H
	DB	01H
	DB	01H
	DB	01H
	DB	01H
	DB	01H
	DB	01H
	DB	01H
	DB	01H
	DB	01H
	DB	01H
	DB	01H
	DB	01H
	DB	01H
	DB	01H
	DB	01H
	DB	01H
	DB	01H
	DB	01H
	DB	01H
	DB	01H
	DB	01H
	DB	01H
	DB	01H
	DB	01H
	DB	01H
	DB	01H
	DB	01H
	DB	01H
	DB	01H
	DB	01H
	DB	01H
	DB	01H
	DB	01H
	DB	01H
	DB	01H
	DB	01H
	DB	01H
	DB	01H
	DB	01H
	DB	01H
	DB	01H
	DB	01H
	DB	01H
	DB	01H
	DB	01H
	DB	01H
	DB	01H
	DB	01H
	DB	01H
	DB	01H
	DB	01H
	DB	01H
	DB	01H
	DB	01H
	DB	01H
	DB	01H
	DB	01H
	DB	01H
	DB	01H
	DB	01H
	DB	01H
	DB	05aH
	DB	06H
	DB	08H
	DB	00H
	DB	02H
	DB	03H
	DB	03H
	DB	03H
	DB	03H
	DB	03H
	DB	03H
	DB	01aH
	DB	01eH
	DB	0b3H
	DB	00H
	DB	00H
	DB	00H
	DB	00H
	DB	00H
	DB	00H
	DB	00H
	DB	04H
	DB	01eH
	DB	01aH
	DB	03H
	DB	03H
	DB	03H
	DB	03H
	DB	03H
	DB	03H
	DB	03H
	DB	03H
	DB	03H
	DB	03H
	DB	02H
	DB	016H
	DB	042H
	DB	01H
	DB	0e0H
	DB	0e0H
	DB	0e0H
	DB	0e0H
	DB	0e0H
	DB	0e0H
	DB	0e0H
	DB	0e0H
	DB	0e0H
	DB	0e0H
	DB	0e0H
	DB	0e0H
	DB	042H
	DB	042H
	DB	042H
	DB	042H
	DB	08H
	DB	08H
	DB	08H
	DB	08H
	DB	08H
	DB	08H
	DB	08H
	DB	08H
	DB	08H
	DB	08H
	DB	08H
	DB	08H
	DB	08H
	DB	08H
	DB	0c2H
	DB	0c2H
	DB	0c2H
	DB	0c2H
	DB	05H
	DB	05H
	DB	05H
	DB	05H
	DB	05H
	DB	088H
	DB	088H
	DB	088H
	DB	088H
	DB	088H
	DB	04H
	DB	04H
	DB	04H
	DB	04H
	DB	04H
	DB	0b3H
	DB	0b3H
	DB	0b3H
	DB	0b3H
	DB	0b3H
	DB	0b3H
	DB	0b3H
	DB	0b3H
	DB	0b3H
	DB	0b3H
	DB	0b3H
	DB	0b3H
	DB	0b3H
	DB	0b3H
	DB	0b3H
	DB	0b3H
	DB	0b3H
	DB	0b3H
	DB	0b3H
	DB	0b3H
	DB	0b3H
	DB	0b3H
	DB	0b3H
	DB	0b3H
	DB	0b3H
	DB	0b3H
	DB	0b3H
	DB	0b3H
	DB	0b3H
	DB	0b3H
	DB	0b3H
	DB	0b3H
	DB	0b3H
	DB	0b3H
	DB	0b3H
	DB	0b3H
	DB	0b3H
	DB	0b3H
	DB	0b3H
	DB	0b3H
	DB	0b3H
	DB	0b3H
	DB	0b3H
	DB	0b3H
	DB	0b3H
	DB	0b3H
	DB	0b3H
	DB	0b3H
	DB	0b3H
	DB	0b3H
	DB	0b3H
	DB	0b3H
	DB	0b3H
	DB	0b3H
	DB	0b3H
	DB	0b3H
	DB	0b3H
	DB	0b3H
	DB	0b3H
	DB	0b3H
	DB	0b3H
	DB	0b3H
	DB	0b3H
	DB	0b3H
	DB	0b3H
	DB	0b3H
	DB	0b3H
	DB	0b3H
	DB	0b3H
	DB	0b3H
	DB	0b3H
	DB	0b3H
	DB	0b3H
	DB	0b3H
	DB	0b3H
	DB	0b3H
	DB	04H
	DB	04H
	DB	088H
	DB	088H
	DB	05H
	DB	05H
	DB	05H
	DB	05H
	DB	05H
	DB	05H
	DB	05H
	DB	088H
	DB	088H
	DB	088H
	DB	088H
	DB	088H
	DB	088H
	DB	088H
	DB	088H
	DB	088H
	DB	088H
	DB	088H
	DB	088H
	DB	088H
	DB	088H
	DB	088H
	DB	088H
	DB	051H
	DB	01cH
	DB	024H
	DB	01cH
	DB	010H
	DB	038H
	DB	08dH
	DB	024H
	DB	024H
	DB	024H
	DB	01cH
	DB	010H
	DB	051H
	DB	01cH
	DB	01cH
	DB	024H
	DB	024H
	DB	024H
	DB	024H
	DB	010H
	DB	01cH
	DB	024H
	DB	01cH
	DB	010H
	DB	029H
	DB	057H
	DB	057H
	DB	02bH
	DB	0eH
	DB	0eH
	DB	0aH
	DB	0aH
	DB	0aH
	DB	02H
	DB	02H
	DB	0aH
	DB	076H
	DB	01bH
	DB	015H
	DB	015H
	DB	01bH
	DB	039H
	DB	02dH
	DB	015H
	DB	047H
	DB	039H
	DB	015H
	DB	01bH
	DB	03eH
	DB	039H
	DB	01bH
	DB	01dH
	DB	015H
	DB	0afH
	DB	039H
	DB	01bH
	DB	044H
	DB	076H
	DB	03dH
	DB	020H
	DB	021H
	DB	091H
	DB	022H
	DB	021H
	DB	021H
	DB	0a2H
	DB	028H
	DB	036H
	DB	032H
	DB	013H
	DB	013H
	DB	013H
	DB	013H
	DB	041H
	DB	02eH
	DB	087H
	DB	09eH
	DB	08H
	DB	028H
	DB	029H
	DB	023H
	DB	023H
	DB	023H
	DB	0eH
	DB	0aH
	DB	02H
	DB	02H
	DB	03H
	DB	03H
	DB	03H
	DB	03H
	DB	03H
	DB	03H
	DB	03H
	DB	03H
	DB	03H
	DB	03H
	DB	03H
	DB	03H
	DB	03H
	DB	03H
	DB	03H
	DB	03H
	DB	03H
	DB	03H
	DB	03H
	DB	03H
	DB	03H
	DB	03H
	DB	03H
	DB	03H
	DB	03H
	DB	03H
	DB	03H
	DB	03H
	DB	03H
	DB	03H
	DB	03H
	DB	03H
	DB	03H
	DB	03H
	DB	03H
	DB	03H
	DB	03H
	DB	03H
	DB	03H
	DB	03H
	DB	03H
	DB	03H
	DB	03H
	DB	03H
	DB	03H
	DB	0aH
	DB	04H
	DB	0f8H
	DB	01eH
	DB	01H
	DB	01H
	DB	01H
	DB	01H
	DB	01H
	DB	01H
	DB	01H
	DB	01H
	DB	01H
	DB	01H
	DB	01H
	DB	01H
	DB	01H
	DB	01H
	DB	01H
	DB	01H
	DB	01H
	DB	01H
	DB	01H
	DB	01H
	DB	01H
	DB	01H
	DB	01H
	DB	01H
	DB	01H
	DB	01H
	DB	01H
	DB	01H
	DB	01H
	DB	01H
	DB	01H
	DB	01H
	DB	01H
	DB	01H
	DB	01H
	DB	01H
	DB	01H
	DB	01H
	DB	01H
	DB	01H
	DB	01H
	DB	01H
	DB	01H
	DB	01H
	DB	01H
	DB	01H
	DB	01H
	DB	01H
	DB	01H
	DB	01H
	DB	01H
	DB	01H
	DB	01H
	DB	01H
	DB	01H
	DB	01H
	DB	01H
	DB	01H
	DB	05aH
	DB	05aH
	DB	05aH
	DB	05aH
	DB	05aH
	DB	05aH
	DB	05aH
	DB	05aH
	DB	05aH
	DB	05aH
	DB	05aH
	DB	05aH
	DB	05aH
	DB	05aH
	DB	05aH
	DB	05aH
	DB	05aH
	DB	05aH
	DB	05aH
	DB	05aH
	DB	05aH
	DB	05aH
	DB	05aH
	DB	05aH
	DB	05aH
	DB	05aH
	DB	05aH
	DB	05aH
	DB	05aH
	DB	05aH
	DB	05aH
	DB	05aH
	DB	05aH
	DB	05aH
	DB	05aH
	DB	05aH
	DB	05aH
	DB	05aH
	DB	05aH
	DB	05aH
	DB	05aH
	DB	05aH
	DB	05aH
	DB	05aH
	DB	05aH
	DB	05aH
	DB	05aH
	DB	05aH
	DB	05aH
	DB	05aH
	DB	05aH
	DB	05aH
	DB	05aH
	DB	05aH
	DB	05aH
	DB	05aH
	DB	05aH
	DB	05aH
	DB	05aH
	DB	05aH
	DB	05aH
	DB	05aH
	DB	05aH
	DB	05aH
	DB	05aH
	DB	05aH
	DB	05aH
	DB	05aH
	DB	05aH
	DB	05aH
	DB	05aH
	DB	05aH
	DB	05aH
	DB	05aH
	DB	05aH
	DB	05aH
	DB	05aH
	DB	05aH
	DB	05aH
	DB	05aH
	DB	05aH
	DB	01H
	DB	01H
	DB	01H
	DB	01H
	DB	01H
	DB	01H
	DB	01H
	DB	01H
	DB	01H
	DB	01H
	DB	01H
	DB	01H
	DB	01H
	DB	01H
	DB	01H
	DB	01H
	DB	01H
	DB	01eH
	DB	088H
	DB	016H
	DB	03H
	DB	03H
	DB	03H
	DB	03H
	DB	03H
	DB	03H
	DB	01aH
	DB	01eH
	DB	0b3H
	DB	00H
	DB	00H
	DB	00H
	DB	00H
	DB	00H
	DB	00H
	DB	00H
	DB	04H
	DB	01eH
	DB	01aH
	DB	03H
	DB	03H
	DB	03H
	DB	03H
	DB	03H
	DB	03H
	DB	03H
	DB	03H
	DB	03H
	DB	03H
	DB	02H
	DB	016H
	DB	042H
	DB	01H
	DB	0e0H
	DB	0e0H
	DB	0e0H
	DB	0e0H
	DB	0e0H
	DB	0e0H
	DB	0e0H
	DB	0e0H
	DB	0e0H
	DB	0e0H
	DB	0e0H
	DB	0e0H
	DB	0e0H
	DB	0e0H
	DB	042H
	DB	042H
	DB	042H
	DB	042H
	DB	08H
	DB	08H
	DB	08H
	DB	08H
	DB	08H
	DB	08H
	DB	08H
	DB	08H
	DB	08H
	DB	08H
	DB	08H
	DB	08H
	DB	0c2H
	DB	0c2H
	DB	0c2H
	DB	0c2H
	DB	05H
	DB	05H
	DB	05H
	DB	05H
	DB	05H
	DB	088H
	DB	088H
	DB	088H
	DB	088H
	DB	088H
	DB	04H
	DB	04H
	DB	04H
	DB	04H
	DB	04H
	DB	0b3H
	DB	0b3H
	DB	0b3H
	DB	0b3H
	DB	0b3H
	DB	0b3H
	DB	0b3H
	DB	0b3H
	DB	0b3H
	DB	0b3H
	DB	0b3H
	DB	0b3H
	DB	0b3H
	DB	0b3H
	DB	0b3H
	DB	0b3H
	DB	0b3H
	DB	0b3H
	DB	0b3H
	DB	0b3H
	DB	0b3H
	DB	0b3H
	DB	0b3H
	DB	0b3H
	DB	0b3H
	DB	0b3H
	DB	0b3H
	DB	0b3H
	DB	0b3H
	DB	0b3H
	DB	0b3H
	DB	0b3H
	DB	0b3H
	DB	0b3H
	DB	0b3H
	DB	0b3H
	DB	0b3H
	DB	0b3H
	DB	0b3H
	DB	0b3H
	DB	0b3H
	DB	0b3H
	DB	0b3H
	DB	0b3H
	DB	0b3H
	DB	0b3H
	DB	0b3H
	DB	0b3H
	DB	0b3H
	DB	0b3H
	DB	0b3H
	DB	0b3H
	DB	0b3H
	DB	0b3H
	DB	0b3H
	DB	0b3H
	DB	0b3H
	DB	0b3H
	DB	0b3H
	DB	0b3H
	DB	0b3H
	DB	0b3H
	DB	0b3H
	DB	0b3H
	DB	0b3H
	DB	0b3H
	DB	0b3H
	DB	0b3H
	DB	0b3H
	DB	0b3H
	DB	0b3H
	DB	0b3H
	DB	0b3H
	DB	0b3H
	DB	0b3H
	DB	0b3H
	DB	04H
	DB	04H
	DB	088H
	DB	088H
	DB	05H
	DB	05H
	DB	0c2H
	DB	0c2H
	DB	0c2H
	DB	05H
	DB	05H
	DB	05H
	DB	088H
	DB	088H
	DB	088H
	DB	088H
	DB	088H
	DB	088H
	DB	088H
	DB	088H
	DB	088H
	DB	088H
	DB	088H
	DB	088H
	DB	088H
	DB	088H
	DB	088H
	DB	037H
	DB	024H
	DB	024H
	DB	01cH
	DB	01cH
	DB	08dH
	DB	08dH
	DB	024H
	DB	024H
	DB	024H
	DB	01cH
	DB	010H
	DB	051H
	DB	01cH
	DB	01cH
	DB	01cH
	DB	01cH
	DB	024H
	DB	01cH
	DB	010H
	DB	01cH
	DB	024H
	DB	01cH
	DB	05H
	DB	02bH
	DB	057H
	DB	057H
	DB	02bH
	DB	0eH
	DB	0eH
	DB	0aH
	DB	0aH
	DB	02H
	DB	02H
	DB	0aH
	DB	072H
	DB	01bH
	DB	015H
	DB	015H
	DB	02dH
	DB	02dH
	DB	015H
	DB	015H
	DB	03fH
	DB	02dH
	DB	015H
	DB	02dH
	DB	047H
	DB	045H
	DB	01dH
	DB	01dH
	DB	045H
	DB	03fH
	DB	047H
	DB	015H
	DB	03eH
	DB	0c4H
	DB	0abH
	DB	091H
	DB	0a8H
	DB	022H
	DB	025H
	DB	025H
	DB	025H
	DB	021H
	DB	021H
	DB	033H
	DB	029H
	DB	04eH
	DB	036H
	DB	0f9H
	DB	041H
	DB	032H
	DB	013H
	DB	025H
	DB	025H
	DB	081H
	DB	029H
	DB	0a2H
	DB	05dH
	DB	02eH
	DB	087H
	DB	081H
	DB	09eH
	DB	0abH
	DB	029H
	DB	0aH
	DB	03H
	DB	03H
	DB	03H
	DB	03H
	DB	03H
	DB	03H
	DB	03H
	DB	03H
	DB	03H
	DB	03H
	DB	03H
	DB	03H
	DB	03H
	DB	03H
	DB	03H
	DB	03H
	DB	03H
	DB	03H
	DB	03H
	DB	03H
	DB	03H
	DB	03H
	DB	03H
	DB	03H
	DB	03H
	DB	03H
	DB	03H
	DB	03H
	DB	03H
	DB	03H
	DB	03H
	DB	03H
	DB	03H
	DB	03H
	DB	03H
	DB	03H
	DB	03H
	DB	03H
	DB	03H
	DB	03H
	DB	03H
	DB	03H
	DB	03H
	DB	03H
	DB	02H
	DB	00H
	DB	05aH
	DB	06H
	DB	01H
	DB	01H
	DB	01H
	DB	01H
	DB	01H
	DB	01H
	DB	01H
	DB	01H
	DB	01H
	DB	01H
	DB	01H
	DB	01H
	DB	01H
	DB	01H
	DB	01H
	DB	01H
	DB	01H
	DB	01H
	DB	01H
	DB	01H
	DB	01H
	DB	01H
	DB	01H
	DB	01H
	DB	01H
	DB	01H
	DB	01H
	DB	01H
	DB	01H
	DB	01H
	DB	01H
	DB	01H
	DB	01H
	DB	01H
	DB	01H
	DB	01H
	DB	01H
	DB	01H
	DB	01H
	DB	01H
	DB	01H
	DB	01H
	DB	01H
	DB	01H
	DB	01H
	DB	01H
	DB	01H
	DB	01H
	DB	01H
	DB	01H
	DB	01H
	DB	01H
	DB	01H
	DB	01H
	DB	01H
	DB	01H
	DB	01H
	DB	01H
	DB	042H
	DB	08H
	DB	08H
	DB	0c2H
	DB	0c2H
	DB	08H
	DB	08H
	DB	08H
	DB	08H
	DB	0c2H
	DB	0c2H
	DB	0c2H
	DB	08H
	DB	08H
	DB	08H
	DB	08H
	DB	08H
	DB	08H
	DB	08H
	DB	0c2H
	DB	08H
	DB	08H
	DB	08H
	DB	08H
	DB	08H
	DB	08H
	DB	08H
	DB	08H
	DB	08H
	DB	08H
	DB	08H
	DB	08H
	DB	08H
	DB	08H
	DB	08H
	DB	08H
	DB	08H
	DB	08H
	DB	08H
	DB	08H
	DB	08H
	DB	08H
	DB	08H
	DB	08H
	DB	08H
	DB	08H
	DB	08H
	DB	08H
	DB	08H
	DB	08H
	DB	08H
	DB	08H
	DB	08H
	DB	08H
	DB	08H
	DB	08H
	DB	08H
	DB	08H
	DB	08H
	DB	08H
	DB	08H
	DB	08H
	DB	08H
	DB	08H
	DB	08H
	DB	08H
	DB	08H
	DB	08H
	DB	08H
	DB	08H
	DB	08H
	DB	08H
	DB	08H
	DB	08H
	DB	0c2H
	DB	0c2H
	DB	0c2H
	DB	05H
	DB	0c2H
	DB	0c2H
	DB	0c2H
	DB	08H
	DB	08H
	DB	0e0H
	DB	01H
	DB	05aH
	DB	06H
	DB	06H
	DB	069H
	DB	09H
	DB	09H
	DB	077H
	DB	09H
	DB	09H
	DB	09H
	DB	069H
	DB	05aH
	DB	01H
	DB	01H
	DB	05aH
	DB	01H
	DB	00H
	DB	0aH
	DB	03H
	DB	03H
	DB	03H
	DB	03H
	DB	03H
	DB	01aH
	DB	01eH
	DB	0b3H
	DB	00H
	DB	00H
	DB	00H
	DB	00H
	DB	00H
	DB	00H
	DB	00H
	DB	04H
	DB	01eH
	DB	01aH
	DB	03H
	DB	03H
	DB	03H
	DB	03H
	DB	03H
	DB	03H
	DB	03H
	DB	03H
	DB	03H
	DB	03H
	DB	02H
	DB	016H
	DB	042H
	DB	01H
	DB	0e0H
	DB	0e0H
	DB	0e0H
	DB	0e0H
	DB	0e0H
	DB	0e0H
	DB	0e0H
	DB	0e0H
	DB	0e0H
	DB	0e0H
	DB	0e0H
	DB	0e0H
	DB	0e0H
	DB	0e0H
	DB	0e0H
	DB	042H
	DB	042H
	DB	042H
	DB	042H
	DB	042H
	DB	08H
	DB	08H
	DB	08H
	DB	08H
	DB	08H
	DB	08H
	DB	08H
	DB	08H
	DB	08H
	DB	08H
	DB	0c2H
	DB	0c2H
	DB	0c2H
	DB	0c2H
	DB	0c2H
	DB	05H
	DB	05H
	DB	05H
	DB	05H
	DB	088H
	DB	088H
	DB	088H
	DB	088H
	DB	088H
	DB	04H
	DB	04H
	DB	04H
	DB	04H
	DB	04H
	DB	0b3H
	DB	0b3H
	DB	0b3H
	DB	0b3H
	DB	0b3H
	DB	0b3H
	DB	0b3H
	DB	0b3H
	DB	0b3H
	DB	0b3H
	DB	0b3H
	DB	0b3H
	DB	0b3H
	DB	0b3H
	DB	0b3H
	DB	0b3H
	DB	0b3H
	DB	0b3H
	DB	0b3H
	DB	0b3H
	DB	0b3H
	DB	0b3H
	DB	0b3H
	DB	0b3H
	DB	0b3H
	DB	0b3H
	DB	0b3H
	DB	0b3H
	DB	0b3H
	DB	0b3H
	DB	0b3H
	DB	0b3H
	DB	0b3H
	DB	0b3H
	DB	0b3H
	DB	0b3H
	DB	0b3H
	DB	0b3H
	DB	0b3H
	DB	0b3H
	DB	0b3H
	DB	0b3H
	DB	0b3H
	DB	0b3H
	DB	0b3H
	DB	0b3H
	DB	0b3H
	DB	0b3H
	DB	0b3H
	DB	0b3H
	DB	0b3H
	DB	0b3H
	DB	0b3H
	DB	0b3H
	DB	0b3H
	DB	0b3H
	DB	0b3H
	DB	0b3H
	DB	0b3H
	DB	0b3H
	DB	0b3H
	DB	0b3H
	DB	0b3H
	DB	0b3H
	DB	0b3H
	DB	0b3H
	DB	0b3H
	DB	0b3H
	DB	0b3H
	DB	0b3H
	DB	0b3H
	DB	0b3H
	DB	0b3H
	DB	0b3H
	DB	0b3H
	DB	0b3H
	DB	04H
	DB	04H
	DB	04H
	DB	088H
	DB	05H
	DB	05H
	DB	0c2H
	DB	0c2H
	DB	0c2H
	DB	0c2H
	DB	05H
	DB	05H
	DB	05H
	DB	088H
	DB	088H
	DB	088H
	DB	088H
	DB	088H
	DB	088H
	DB	088H
	DB	088H
	DB	088H
	DB	088H
	DB	088H
	DB	088H
	DB	088H
	DB	088H
	DB	037H
	DB	024H
	DB	01cH
	DB	010H
	DB	037H
	DB	038H
	DB	024H
	DB	024H
	DB	024H
	DB	01cH
	DB	010H
	DB	010H
	DB	01cH
	DB	01cH
	DB	01cH
	DB	01cH
	DB	01cH
	DB	024H
	DB	01cH
	DB	010H
	DB	01cH
	DB	024H
	DB	01cH
	DB	051H
	DB	02bH
	DB	095H
	DB	057H
	DB	023H
	DB	0eH
	DB	0aH
	DB	0aH
	DB	0aH
	DB	02H
	DB	02H
	DB	055H
	DB	01bH
	DB	015H
	DB	015H
	DB	02dH
	DB	045H
	DB	01dH
	DB	045H
	DB	039H
	DB	02dH
	DB	015H
	DB	02dH
	DB	0bfH
	DB	01dH
	DB	01dH
	DB	01dH
	DB	02dH
	DB	047H
	DB	015H
	DB	015H
	DB	039H
	DB	03fH
	DB	029H
	DB	049H
	DB	021H
	DB	021H
	DB	025H
	DB	025H
	DB	013H
	DB	013H
	DB	013H
	DB	025H
	DB	022H
	DB	021H
	DB	033H
	DB	064H
	DB	028H
	DB	029H
	DB	08cH
	DB	036H
	DB	0abH
	DB	0abH
	DB	04eH
	DB	04dH
	DB	078H
	DB	078H
	DB	022H
	DB	02eH
	DB	04aH
	DB	04aH
	DB	032H
	DB	02eH
	DB	036H
	DB	023H
	DB	03H
	DB	03H
	DB	03H
	DB	03H
	DB	03H
	DB	03H
	DB	03H
	DB	03H
	DB	03H
	DB	03H
	DB	03H
	DB	03H
	DB	03H
	DB	03H
	DB	03H
	DB	03H
	DB	03H
	DB	03H
	DB	03H
	DB	03H
	DB	03H
	DB	03H
	DB	03H
	DB	03H
	DB	03H
	DB	03H
	DB	03H
	DB	03H
	DB	03H
	DB	03H
	DB	03H
	DB	03H
	DB	03H
	DB	03H
	DB	03H
	DB	03H
	DB	03H
	DB	03H
	DB	03H
	DB	03H
	DB	03H
	DB	03H
	DB	03H
	DB	0aH
	DB	04H
	DB	06H
	DB	01H
	DB	01H
	DB	01H
	DB	01H
	DB	01H
	DB	01H
	DB	01H
	DB	01H
	DB	01H
	DB	01H
	DB	01H
	DB	01H
	DB	01H
	DB	01H
	DB	01H
	DB	01H
	DB	01H
	DB	01H
	DB	01H
	DB	01H
	DB	01H
	DB	01H
	DB	01H
	DB	01H
	DB	01H
	DB	01H
	DB	01H
	DB	01H
	DB	01H
	DB	01H
	DB	01H
	DB	01H
	DB	01H
	DB	01H
	DB	01H
	DB	01H
	DB	01H
	DB	01H
	DB	01H
	DB	01H
	DB	01H
	DB	01H
	DB	01H
	DB	01H
	DB	01H
	DB	01H
	DB	01H
	DB	01H
	DB	01H
	DB	01H
	DB	01H
	DB	01H
	DB	01H
	DB	01H
	DB	01H
	DB	01H
	DB	01H
	DB	01H
	DB	05aH
	DB	04H
	DB	00H
	DB	00H
	DB	0b3H
	DB	088H
	DB	00H
	DB	00H
	DB	00H
	DB	00H
	DB	00H
	DB	088H
	DB	04H
	DB	00H
	DB	00H
	DB	00H
	DB	00H
	DB	00H
	DB	00H
	DB	00H
	DB	088H
	DB	00H
	DB	00H
	DB	00H
	DB	00H
	DB	00H
	DB	00H
	DB	00H
	DB	00H
	DB	00H
	DB	00H
	DB	00H
	DB	00H
	DB	00H
	DB	00H
	DB	00H
	DB	00H
	DB	00H
	DB	00H
	DB	00H
	DB	00H
	DB	00H
	DB	00H
	DB	00H
	DB	00H
	DB	00H
	DB	00H
	DB	00H
	DB	00H
	DB	00H
	DB	00H
	DB	00H
	DB	00H
	DB	00H
	DB	00H
	DB	00H
	DB	00H
	DB	00H
	DB	00H
	DB	00H
	DB	00H
	DB	00H
	DB	00H
	DB	00H
	DB	00H
	DB	00H
	DB	00H
	DB	00H
	DB	00H
	DB	00H
	DB	00H
	DB	00H
	DB	00H
	DB	00H
	DB	00H
	DB	0b3H
	DB	05H
	DB	08H
	DB	01eH
	DB	069H
	DB	077H
	DB	0a9H
	DB	07cH
	DB	07cH
	DB	011H
	DB	07cH
	DB	07cH
	DB	07cH
	DB	0b9H
	DB	011H
	DB	011H
	DB	011H
	DB	011H
	DB	011H
	DB	011H
	DB	011H
	DB	0b9H
	DB	06H
	DB	01H
	DB	01H
	DB	01H
	DB	05aH
	DB	088H
	DB	016H
	DB	03H
	DB	03H
	DB	03H
	DB	03H
	DB	03H
	DB	01aH
	DB	01eH
	DB	0b3H
	DB	00H
	DB	00H
	DB	00H
	DB	00H
	DB	00H
	DB	00H
	DB	00H
	DB	04H
	DB	01eH
	DB	01aH
	DB	03H
	DB	03H
	DB	03H
	DB	03H
	DB	03H
	DB	03H
	DB	03H
	DB	03H
	DB	03H
	DB	03H
	DB	02H
	DB	016H
	DB	042H
	DB	01H
	DB	0e0H
	DB	0e0H
	DB	0e0H
	DB	0e0H
	DB	0e0H
	DB	0e0H
	DB	0e0H
	DB	0e0H
	DB	0e0H
	DB	0e0H
	DB	0e0H
	DB	0e0H
	DB	0e0H
	DB	0e0H
	DB	0e0H
	DB	0e0H
	DB	0e0H
	DB	0e0H
	DB	042H
	DB	042H
	DB	042H
	DB	042H
	DB	042H
	DB	08H
	DB	08H
	DB	08H
	DB	08H
	DB	08H
	DB	08H
	DB	08H
	DB	08H
	DB	0c2H
	DB	0c2H
	DB	0c2H
	DB	0c2H
	DB	05H
	DB	05H
	DB	05H
	DB	05H
	DB	088H
	DB	088H
	DB	088H
	DB	088H
	DB	088H
	DB	04H
	DB	04H
	DB	04H
	DB	04H
	DB	0b3H
	DB	0b3H
	DB	0b3H
	DB	0b3H
	DB	0b3H
	DB	0b3H
	DB	0b3H
	DB	0b3H
	DB	0b3H
	DB	0b3H
	DB	0b3H
	DB	0b3H
	DB	0b3H
	DB	0b3H
	DB	0b3H
	DB	0b3H
	DB	0b3H
	DB	0b3H
	DB	0b3H
	DB	0b3H
	DB	0b3H
	DB	0b3H
	DB	0b3H
	DB	0b3H
	DB	0b3H
	DB	0b3H
	DB	0b3H
	DB	0b3H
	DB	0b3H
	DB	0b3H
	DB	0b3H
	DB	0b3H
	DB	0b3H
	DB	0b3H
	DB	0b3H
	DB	0b3H
	DB	0b3H
	DB	0b3H
	DB	0b3H
	DB	0b3H
	DB	0b3H
	DB	0b3H
	DB	0b3H
	DB	0b3H
	DB	0b3H
	DB	0b3H
	DB	0b3H
	DB	0b3H
	DB	0b3H
	DB	0b3H
	DB	0b3H
	DB	0b3H
	DB	0b3H
	DB	0b3H
	DB	0b3H
	DB	0b3H
	DB	0b3H
	DB	0b3H
	DB	0b3H
	DB	0b3H
	DB	0b3H
	DB	0b3H
	DB	0b3H
	DB	0b3H
	DB	0b3H
	DB	0b3H
	DB	0b3H
	DB	0b3H
	DB	0b3H
	DB	0b3H
	DB	0b3H
	DB	0b3H
	DB	0b3H
	DB	0b3H
	DB	0b3H
	DB	0b3H
	DB	04H
	DB	04H
	DB	04H
	DB	04H
	DB	088H
	DB	088H
	DB	05H
	DB	05H
	DB	0c2H
	DB	0c2H
	DB	0c2H
	DB	0c2H
	DB	0c2H
	DB	05H
	DB	05H
	DB	088H
	DB	088H
	DB	088H
	DB	088H
	DB	088H
	DB	088H
	DB	088H
	DB	088H
	DB	088H
	DB	088H
	DB	088H
	DB	088H
	DB	051H
	DB	037H
	DB	024H
	DB	01cH
	DB	010H
	DB	038H
	DB	024H
	DB	024H
	DB	024H
	DB	024H
	DB	01cH
	DB	010H
	DB	010H
	DB	01cH
	DB	01cH
	DB	01cH
	DB	01cH
	DB	024H
	DB	024H
	DB	01cH
	DB	01cH
	DB	024H
	DB	01cH
	DB	010H
	DB	04eH
	DB	02bH
	DB	095H
	DB	02bH
	DB	0eH
	DB	0eH
	DB	0aH
	DB	0aH
	DB	02H
	DB	02H
	DB	055H
	DB	01bH
	DB	015H
	DB	045H
	DB	047H
	DB	015H
	DB	01dH
	DB	02dH
	DB	039H
	DB	01bH
	DB	015H
	DB	01bH
	DB	045H
	DB	01dH
	DB	01dH
	DB	01dH
	DB	047H
	DB	03fH
	DB	015H
	DB	015H
	DB	03eH
	DB	047H
	DB	01bH
	DB	02bH
	DB	033H
	DB	0a8H
	DB	022H
	DB	025H
	DB	013H
	DB	0fH
	DB	0fH
	DB	0fH
	DB	013H
	DB	025H
	DB	091H
	DB	091H
	DB	0a2H
	DB	028H
	DB	023H
	DB	028H
	DB	036H
	DB	057H
	DB	057H
	DB	04dH
	DB	0a8H
	DB	035H
	DB	020H
	DB	022H
	DB	013H
	DB	032H
	DB	032H
	DB	041H
	DB	041H
	DB	041H
	DB	0abH
	DB	023H
	DB	03H
	DB	03H
	DB	03H
	DB	03H
	DB	03H
	DB	03H
	DB	03H
	DB	03H
	DB	03H
	DB	03H
	DB	03H
	DB	03H
	DB	03H
	DB	03H
	DB	03H
	DB	03H
	DB	03H
	DB	03H
	DB	03H
	DB	03H
	DB	03H
	DB	03H
	DB	03H
	DB	03H
	DB	03H
	DB	03H
	DB	03H
	DB	03H
	DB	03H
	DB	03H
	DB	03H
	DB	03H
	DB	03H
	DB	03H
	DB	03H
	DB	03H
	DB	03H
	DB	03H
	DB	03H
	DB	03H
	DB	03H
	DB	03H
	DB	0eH
	DB	08H
	DB	06H
	DB	01H
	DB	01H
	DB	01H
	DB	01H
	DB	01H
	DB	01H
	DB	01H
	DB	01H
	DB	01H
	DB	01H
	DB	01H
	DB	01H
	DB	01H
	DB	01H
	DB	01H
	DB	01H
	DB	01H
	DB	01H
	DB	01H
	DB	01H
	DB	01H
	DB	01H
	DB	01H
	DB	01H
	DB	01H
	DB	01H
	DB	01H
	DB	01H
	DB	01H
	DB	01H
	DB	01H
	DB	01H
	DB	01H
	DB	01H
	DB	01H
	DB	01H
	DB	01H
	DB	01H
	DB	01H
	DB	01H
	DB	01H
	DB	01H
	DB	01H
	DB	01H
	DB	01H
	DB	01H
	DB	01H
	DB	01H
	DB	01H
	DB	01H
	DB	01H
	DB	01H
	DB	01H
	DB	01H
	DB	01H
	DB	01H
	DB	01H
	DB	01H
	DB	05aH
	DB	04H
	DB	00H
	DB	0b3H
	DB	07cH
	DB	011H
	DB	0b3H
	DB	00H
	DB	00H
	DB	01H
	DB	011H
	DB	07H
	DB	0deH
	DB	09H
	DB	00H
	DB	00H
	DB	00H
	DB	00H
	DB	00H
	DB	09H
	DB	0deH
	DB	042H
	DB	00H
	DB	00H
	DB	00H
	DB	00H
	DB	00H
	DB	00H
	DB	00H
	DB	00H
	DB	00H
	DB	00H
	DB	00H
	DB	00H
	DB	00H
	DB	00H
	DB	00H
	DB	00H
	DB	00H
	DB	00H
	DB	00H
	DB	00H
	DB	00H
	DB	00H
	DB	00H
	DB	00H
	DB	00H
	DB	00H
	DB	00H
	DB	00H
	DB	00H
	DB	00H
	DB	00H
	DB	00H
	DB	00H
	DB	00H
	DB	00H
	DB	00H
	DB	00H
	DB	00H
	DB	00H
	DB	00H
	DB	00H
	DB	00H
	DB	00H
	DB	00H
	DB	00H
	DB	00H
	DB	00H
	DB	00H
	DB	0b3H
	DB	08H
	DB	06H
	DB	09H
	DB	0a9H
	DB	07cH
	DB	011H
	DB	011H
	DB	0b9H
	DB	09fH
	DB	09fH
	DB	0a7H
	DB	0f8H
	DB	0adH
	DB	08bH
	DB	08bH
	DB	08aH
	DB	01fH
	DB	0dH
	DB	0dH
	DB	0dH
	DB	0dH
	DB	0dH
	DB	0dH
	DB	0dH
	DB	0dH
	DB	01fH
	DB	01aH
	DB	01H
	DB	01H
	DB	01H
	DB	05aH
	DB	08H
	DB	00H
	DB	02H
	DB	03H
	DB	03H
	DB	03H
	DB	03H
	DB	01aH
	DB	01eH
	DB	0b3H
	DB	00H
	DB	00H
	DB	00H
	DB	00H
	DB	00H
	DB	00H
	DB	00H
	DB	04H
	DB	01eH
	DB	01aH
	DB	03H
	DB	03H
	DB	03H
	DB	03H
	DB	03H
	DB	03H
	DB	03H
	DB	03H
	DB	03H
	DB	03H
	DB	02H
	DB	016H
	DB	042H
	DB	01H
	DB	0e0H
	DB	0e0H
	DB	0e0H
	DB	0e0H
	DB	0e0H
	DB	0e0H
	DB	0e0H
	DB	0e0H
	DB	0e0H
	DB	0e0H
	DB	0e0H
	DB	0e0H
	DB	0e0H
	DB	0e0H
	DB	0e0H
	DB	0e0H
	DB	0e0H
	DB	0e0H
	DB	0e0H
	DB	042H
	DB	042H
	DB	042H
	DB	042H
	DB	042H
	DB	08H
	DB	08H
	DB	08H
	DB	08H
	DB	08H
	DB	08H
	DB	08H
	DB	0c2H
	DB	0c2H
	DB	0c2H
	DB	0c2H
	DB	05H
	DB	05H
	DB	05H
	DB	05H
	DB	088H
	DB	088H
	DB	088H
	DB	088H
	DB	04H
	DB	04H
	DB	04H
	DB	04H
	DB	04H
	DB	0b3H
	DB	0b3H
	DB	0b3H
	DB	0b3H
	DB	0b3H
	DB	0b3H
	DB	0b3H
	DB	0b3H
	DB	0b3H
	DB	0b3H
	DB	0b3H
	DB	0b3H
	DB	0b3H
	DB	0b3H
	DB	0b3H
	DB	0b3H
	DB	0b3H
	DB	0b3H
	DB	0b3H
	DB	0b3H
	DB	0b3H
	DB	0b3H
	DB	0b3H
	DB	0b3H
	DB	0b3H
	DB	0b3H
	DB	0b3H
	DB	0b3H
	DB	0b3H
	DB	0b3H
	DB	0b3H
	DB	0b3H
	DB	0b3H
	DB	0b3H
	DB	0b3H
	DB	0b3H
	DB	0b3H
	DB	0b3H
	DB	0b3H
	DB	0b3H
	DB	0b3H
	DB	0b3H
	DB	0b3H
	DB	0b3H
	DB	0b3H
	DB	0b3H
	DB	0b3H
	DB	0b3H
	DB	0b3H
	DB	0b3H
	DB	0b3H
	DB	0b3H
	DB	0b3H
	DB	0b3H
	DB	0b3H
	DB	0b3H
	DB	0b3H
	DB	0b3H
	DB	0b3H
	DB	0b3H
	DB	0b3H
	DB	0b3H
	DB	0b3H
	DB	0b3H
	DB	0b3H
	DB	0b3H
	DB	0b3H
	DB	0b3H
	DB	0b3H
	DB	0b3H
	DB	0b3H
	DB	0b3H
	DB	0b3H
	DB	0b3H
	DB	0b3H
	DB	04H
	DB	04H
	DB	04H
	DB	04H
	DB	04H
	DB	088H
	DB	088H
	DB	05H
	DB	05H
	DB	0c2H
	DB	0c2H
	DB	0c2H
	DB	0c2H
	DB	0c2H
	DB	0c2H
	DB	05H
	DB	05H
	DB	088H
	DB	088H
	DB	088H
	DB	088H
	DB	088H
	DB	088H
	DB	088H
	DB	088H
	DB	088H
	DB	088H
	DB	088H
	DB	051H
	DB	024H
	DB	01cH
	DB	01cH
	DB	051H
	DB	038H
	DB	024H
	DB	024H
	DB	024H
	DB	024H
	DB	01cH
	DB	010H
	DB	010H
	DB	01cH
	DB	01cH
	DB	01cH
	DB	01cH
	DB	024H
	DB	024H
	DB	010H
	DB	01cH
	DB	01cH
	DB	01cH
	DB	051H
	DB	029H
	DB	02bH
	DB	02bH
	DB	023H
	DB	0eH
	DB	0aH
	DB	0aH
	DB	0aH
	DB	02H
	DB	02H
	DB	02dH
	DB	015H
	DB	045H
	DB	047H
	DB	015H
	DB	01dH
	DB	01bH
	DB	039H
	DB	015H
	DB	015H
	DB	015H
	DB	047H
	DB	0cbH
	DB	01dH
	DB	01dH
	DB	0cbH
	DB	039H
	DB	015H
	DB	015H
	DB	01bH
	DB	0afH
	DB	015H
	DB	0d1H
	DB	036H
	DB	020H
	DB	021H
	DB	025H
	DB	013H
	DB	0fH
	DB	0fH
	DB	0fH
	DB	0fH
	DB	013H
	DB	013H
	DB	025H
	DB	021H
	DB	057H
	DB	095H
	DB	023H
	DB	023H
	DB	064H
	DB	0a8H
	DB	0a8H
	DB	021H
	DB	035H
	DB	035H
	DB	021H
	DB	013H
	DB	013H
	DB	09bH
	DB	013H
	DB	013H
	DB	031H
	DB	041H
	DB	02eH
	DB	029H
	DB	0aH
	DB	03H
	DB	03H
	DB	03H
	DB	03H
	DB	03H
	DB	03H
	DB	03H
	DB	03H
	DB	03H
	DB	03H
	DB	03H
	DB	03H
	DB	03H
	DB	03H
	DB	03H
	DB	03H
	DB	03H
	DB	03H
	DB	03H
	DB	03H
	DB	03H
	DB	03H
	DB	03H
	DB	03H
	DB	03H
	DB	03H
	DB	03H
	DB	03H
	DB	03H
	DB	03H
	DB	03H
	DB	03H
	DB	03H
	DB	03H
	DB	03H
	DB	03H
	DB	03H
	DB	03H
	DB	03H
	DB	03H
	DB	03H
	DB	016H
	DB	01H
	DB	01eH
	DB	01H
	DB	01H
	DB	01H
	DB	01H
	DB	01H
	DB	01H
	DB	01H
	DB	01H
	DB	01H
	DB	01H
	DB	01H
	DB	01H
	DB	01H
	DB	01H
	DB	01H
	DB	01H
	DB	01H
	DB	01H
	DB	01H
	DB	01H
	DB	01H
	DB	01H
	DB	01H
	DB	01H
	DB	01H
	DB	01H
	DB	01H
	DB	01H
	DB	01H
	DB	01H
	DB	01H
	DB	01H
	DB	01H
	DB	01H
	DB	01H
	DB	01H
	DB	01H
	DB	01H
	DB	01H
	DB	01H
	DB	01H
	DB	01H
	DB	01H
	DB	01H
	DB	01H
	DB	01H
	DB	01H
	DB	01H
	DB	01H
	DB	01H
	DB	01H
	DB	01H
	DB	01H
	DB	01H
	DB	01H
	DB	01H
	DB	01H
	DB	01H
	DB	05aH
	DB	04H
	DB	088H
	DB	0bH
	DB	07H
	DB	0deH
	DB	0b3H
	DB	00H
	DB	0c2H
	DB	07H
	DB	07H
	DB	0f8H
	DB	07cH
	DB	07H
	DB	0f8H
	DB	00H
	DB	00H
	DB	00H
	DB	01H
	DB	07H
	DB	07H
	DB	0e0H
	DB	00H
	DB	00H
	DB	00H
	DB	00H
	DB	00H
	DB	00H
	DB	00H
	DB	00H
	DB	00H
	DB	00H
	DB	00H
	DB	00H
	DB	00H
	DB	00H
	DB	00H
	DB	00H
	DB	00H
	DB	00H
	DB	00H
	DB	00H
	DB	00H
	DB	00H
	DB	00H
	DB	00H
	DB	00H
	DB	00H
	DB	00H
	DB	00H
	DB	00H
	DB	00H
	DB	00H
	DB	00H
	DB	00H
	DB	00H
	DB	00H
	DB	00H
	DB	00H
	DB	00H
	DB	00H
	DB	00H
	DB	00H
	DB	00H
	DB	00H
	DB	00H
	DB	088H
	DB	01H
	DB	0f8H
	DB	0bH
	DB	0ffH
	DB	011H
	DB	053H
	DB	09fH
	DB	0a7H
	DB	0bdH
	DB	08aH
	DB	01fH
	DB	0dH
	DB	0dH
	DB	0dH
	DB	0dH
	DB	080H
	DB	017H
	DB	01fH
	DB	01fH
	DB	017H
	DB	017H
	DB	017H
	DB	03H
	DB	03H
	DB	03H
	DB	03H
	DB	03H
	DB	03H
	DB	03H
	DB	03H
	DB	029H
	DB	01H
	DB	01H
	DB	01H
	DB	01H
	DB	042H
	DB	00H
	DB	02H
	DB	03H
	DB	03H
	DB	03H
	DB	03H
	DB	01aH
	DB	01eH
	DB	0b3H
	DB	00H
	DB	00H
	DB	00H
	DB	00H
	DB	00H
	DB	00H
	DB	00H
	DB	04H
	DB	01eH
	DB	01aH
	DB	03H
	DB	03H
	DB	03H
	DB	03H
	DB	03H
	DB	03H
	DB	03H
	DB	03H
	DB	03H
	DB	03H
	DB	02H
	DB	016H
	DB	042H
	DB	01H
	DB	01H
	DB	01H
	DB	01H
	DB	0e0H
	DB	0e0H
	DB	0e0H
	DB	0e0H
	DB	0e0H
	DB	0e0H
	DB	0e0H
	DB	0e0H
	DB	0e0H
	DB	0e0H
	DB	0e0H
	DB	0e0H
	DB	0e0H
	DB	0e0H
	DB	0e0H
	DB	0e0H
	DB	0e0H
	DB	0e0H
	DB	0e0H
	DB	042H
	DB	042H
	DB	042H
	DB	042H
	DB	08H
	DB	08H
	DB	08H
	DB	08H
	DB	08H
	DB	0c2H
	DB	0c2H
	DB	0c2H
	DB	0c2H
	DB	0c2H
	DB	05H
	DB	05H
	DB	05H
	DB	088H
	DB	088H
	DB	088H
	DB	088H
	DB	04H
	DB	04H
	DB	04H
	DB	04H
	DB	04H
	DB	0b3H
	DB	0b3H
	DB	0b3H
	DB	0b3H
	DB	0b3H
	DB	0b3H
	DB	0b3H
	DB	0b3H
	DB	0b3H
	DB	0b3H
	DB	0b3H
	DB	0b3H
	DB	0b3H
	DB	0b3H
	DB	0b3H
	DB	0b3H
	DB	0b3H
	DB	0b3H
	DB	0b3H
	DB	0b3H
	DB	0b3H
	DB	0b3H
	DB	0b3H
	DB	0b3H
	DB	0b3H
	DB	0b3H
	DB	0b3H
	DB	0b3H
	DB	0b3H
	DB	0b3H
	DB	0b3H
	DB	0b3H
	DB	0b3H
	DB	0b3H
	DB	0b3H
	DB	0b3H
	DB	0b3H
	DB	0b3H
	DB	0b3H
	DB	0b3H
	DB	0b3H
	DB	0b3H
	DB	0b3H
	DB	0b3H
	DB	0b3H
	DB	0b3H
	DB	0b3H
	DB	0b3H
	DB	0b3H
	DB	0b3H
	DB	0b3H
	DB	0b3H
	DB	0b3H
	DB	0b3H
	DB	0b3H
	DB	0b3H
	DB	0b3H
	DB	0b3H
	DB	0b3H
	DB	0b3H
	DB	0b3H
	DB	0b3H
	DB	0b3H
	DB	0b3H
	DB	0b3H
	DB	0b3H
	DB	0b3H
	DB	0b3H
	DB	0b3H
	DB	0b3H
	DB	0b3H
	DB	0b3H
	DB	0b3H
	DB	0b3H
	DB	04H
	DB	04H
	DB	04H
	DB	04H
	DB	04H
	DB	088H
	DB	088H
	DB	088H
	DB	05H
	DB	05H
	DB	0c2H
	DB	0c2H
	DB	08H
	DB	08H
	DB	0c2H
	DB	0c2H
	DB	0c2H
	DB	05H
	DB	05H
	DB	088H
	DB	088H
	DB	088H
	DB	088H
	DB	088H
	DB	088H
	DB	088H
	DB	088H
	DB	088H
	DB	05H
	DB	037H
	DB	024H
	DB	01cH
	DB	010H
	DB	037H
	DB	038H
	DB	024H
	DB	024H
	DB	024H
	DB	01cH
	DB	01cH
	DB	010H
	DB	01cH
	DB	01cH
	DB	01cH
	DB	01cH
	DB	01cH
	DB	024H
	DB	01cH
	DB	010H
	DB	01cH
	DB	01cH
	DB	051H
	DB	04bH
	DB	02bH
	DB	02bH
	DB	029H
	DB	0eH
	DB	0eH
	DB	0aH
	DB	0aH
	DB	0aH
	DB	02H
	DB	03eH
	DB	01dH
	DB	015H
	DB	03fH
	DB	045H
	DB	01dH
	DB	02dH
	DB	039H
	DB	015H
	DB	015H
	DB	015H
	DB	02dH
	DB	02dH
	DB	01dH
	DB	01dH
	DB	01dH
	DB	0afH
	DB	02dH
	DB	01dH
	DB	015H
	DB	0bfH
	DB	0cbH
	DB	01bH
	DB	02bH
	DB	06aH
	DB	021H
	DB	025H
	DB	013H
	DB	0fH
	DB	0fH
	DB	0fH
	DB	0fH
	DB	0fH
	DB	0fH
	DB	013H
	DB	025H
	DB	021H
	DB	064H
	DB	086H
	DB	018H
	DB	0c6H
	DB	023H
	DB	057H
	DB	020H
	DB	020H
	DB	020H
	DB	0a8H
	DB	021H
	DB	025H
	DB	013H
	DB	0fH
	DB	0fH
	DB	013H
	DB	031H
	DB	041H
	DB	041H
	DB	0f9H
	DB	04eH
	DB	02H
	DB	02H
	DB	03H
	DB	03H
	DB	03H
	DB	03H
	DB	03H
	DB	03H
	DB	03H
	DB	03H
	DB	03H
	DB	03H
	DB	03H
	DB	03H
	DB	03H
	DB	03H
	DB	03H
	DB	03H
	DB	03H
	DB	03H
	DB	03H
	DB	03H
	DB	03H
	DB	03H
	DB	03H
	DB	03H
	DB	03H
	DB	03H
	DB	03H
	DB	03H
	DB	03H
	DB	03H
	DB	03H
	DB	03H
	DB	03H
	DB	03H
	DB	03H
	DB	03H
	DB	03H
	DB	03H
	DB	02H
	DB	016H
	DB	01H
	DB	05aH
	DB	01H
	DB	01H
	DB	01H
	DB	01H
	DB	01H
	DB	01H
	DB	01H
	DB	01H
	DB	01H
	DB	01H
	DB	01H
	DB	01H
	DB	01H
	DB	01H
	DB	01H
	DB	01H
	DB	01H
	DB	01H
	DB	01H
	DB	01H
	DB	01H
	DB	01H
	DB	01H
	DB	01H
	DB	01H
	DB	01H
	DB	01H
	DB	01H
	DB	01H
	DB	01H
	DB	01H
	DB	01H
	DB	01H
	DB	01H
	DB	01H
	DB	01H
	DB	01H
	DB	01H
	DB	01H
	DB	01H
	DB	01H
	DB	01H
	DB	01H
	DB	01H
	DB	01H
	DB	01H
	DB	01H
	DB	01H
	DB	01H
	DB	01H
	DB	01H
	DB	01H
	DB	01H
	DB	01H
	DB	01H
	DB	01H
	DB	01H
	DB	01H
	DB	01H
	DB	0e0H
	DB	0deH
	DB	07H
	DB	07H
	DB	0deH
	DB	0b3H
	DB	00H
	DB	01H
	DB	011H
	DB	06H
	DB	00H
	DB	05H
	DB	07H
	DB	07cH
	DB	00H
	DB	00H
	DB	088H
	DB	0deH
	DB	07H
	DB	07H
	DB	0e0H
	DB	00H
	DB	00H
	DB	00H
	DB	00H
	DB	00H
	DB	00H
	DB	00H
	DB	00H
	DB	00H
	DB	00H
	DB	00H
	DB	00H
	DB	00H
	DB	00H
	DB	00H
	DB	00H
	DB	00H
	DB	00H
	DB	00H
	DB	00H
	DB	00H
	DB	00H
	DB	00H
	DB	00H
	DB	00H
	DB	00H
	DB	00H
	DB	00H
	DB	00H
	DB	00H
	DB	00H
	DB	00H
	DB	00H
	DB	00H
	DB	00H
	DB	00H
	DB	00H
	DB	00H
	DB	00H
	DB	00H
	DB	04H
	DB	0e0H
	DB	0f8H
	DB	0a9H
	DB	07cH
	DB	011H
	DB	087H
	DB	09H
	DB	08bH
	DB	01fH
	DB	0dH
	DB	0dH
	DB	0dH
	DB	0dH
	DB	01fH
	DB	017H
	DB	03H
	DB	02H
	DB	0aH
	DB	0eH
	DB	01H
	DB	04bH
	DB	016H
	DB	00H
	DB	00H
	DB	00H
	DB	00H
	DB	00H
	DB	00H
	DB	00H
	DB	00H
	DB	03bH
	DB	00H
	DB	00H
	DB	00H
	DB	042H
	DB	05aH
	DB	01H
	DB	01H
	DB	01H
	DB	0e0H
	DB	00H
	DB	0aH
	DB	03H
	DB	03H
	DB	03H
	DB	03H
	DB	01aH
	DB	01eH
	DB	0b3H
	DB	00H
	DB	00H
	DB	00H
	DB	00H
	DB	00H
	DB	00H
	DB	00H
	DB	04H
	DB	01eH
	DB	01aH
	DB	03H
	DB	03H
	DB	03H
	DB	03H
	DB	03H
	DB	03H
	DB	03H
	DB	03H
	DB	03H
	DB	03H
	DB	02H
	DB	016H
	DB	042H
	DB	01H
	DB	01H
	DB	01H
	DB	01H
	DB	01H
	DB	0e0H
	DB	0e0H
	DB	0e0H
	DB	0e0H
	DB	0e0H
	DB	0e0H
	DB	0e0H
	DB	0e0H
	DB	0e0H
	DB	0e0H
	DB	0e0H
	DB	0e0H
	DB	0e0H
	DB	0e0H
	DB	0e0H
	DB	0e0H
	DB	0e0H
	DB	0e0H
	DB	0e0H
	DB	0e0H
	DB	042H
	DB	042H
	DB	08H
	DB	08H
	DB	08H
	DB	08H
	DB	08H
	DB	08H
	DB	0c2H
	DB	0c2H
	DB	0c2H
	DB	0c2H
	DB	05H
	DB	05H
	DB	05H
	DB	088H
	DB	088H
	DB	088H
	DB	088H
	DB	04H
	DB	04H
	DB	04H
	DB	04H
	DB	04H
	DB	0b3H
	DB	0b3H
	DB	0b3H
	DB	0b3H
	DB	0b3H
	DB	0b3H
	DB	0b3H
	DB	0b3H
	DB	0b3H
	DB	0b3H
	DB	0b3H
	DB	0b3H
	DB	0b3H
	DB	0b3H
	DB	0b3H
	DB	0b3H
	DB	0b3H
	DB	0b3H
	DB	0b3H
	DB	0b3H
	DB	0b3H
	DB	0b3H
	DB	0b3H
	DB	0b3H
	DB	0b3H
	DB	0b3H
	DB	0b3H
	DB	0b3H
	DB	0b3H
	DB	0b3H
	DB	0b3H
	DB	0b3H
	DB	0b3H
	DB	0b3H
	DB	0b3H
	DB	0b3H
	DB	0b3H
	DB	0b3H
	DB	0b3H
	DB	0b3H
	DB	0b3H
	DB	0b3H
	DB	0b3H
	DB	0b3H
	DB	0b3H
	DB	0b3H
	DB	0b3H
	DB	0b3H
	DB	0b3H
	DB	0b3H
	DB	0b3H
	DB	0b3H
	DB	0b3H
	DB	0b3H
	DB	0b3H
	DB	0b3H
	DB	0b3H
	DB	0b3H
	DB	0b3H
	DB	0b3H
	DB	0b3H
	DB	0b3H
	DB	0b3H
	DB	0b3H
	DB	0b3H
	DB	0b3H
	DB	0b3H
	DB	0b3H
	DB	0b3H
	DB	0b3H
	DB	0b3H
	DB	0b3H
	DB	04H
	DB	04H
	DB	04H
	DB	04H
	DB	04H
	DB	04H
	DB	088H
	DB	088H
	DB	088H
	DB	088H
	DB	05H
	DB	05H
	DB	0c2H
	DB	0c2H
	DB	08H
	DB	08H
	DB	08H
	DB	08H
	DB	0c2H
	DB	0c2H
	DB	05H
	DB	05H
	DB	05H
	DB	088H
	DB	088H
	DB	088H
	DB	088H
	DB	088H
	DB	088H
	DB	088H
	DB	051H
	DB	037H
	DB	01cH
	DB	01cH
	DB	051H
	DB	038H
	DB	038H
	DB	024H
	DB	024H
	DB	01cH
	DB	01cH
	DB	010H
	DB	010H
	DB	01cH
	DB	01cH
	DB	01cH
	DB	01cH
	DB	024H
	DB	024H
	DB	01cH
	DB	051H
	DB	01cH
	DB	01cH
	DB	051H
	DB	02aH
	DB	02bH
	DB	02bH
	DB	02aH
	DB	0eH
	DB	0eH
	DB	0aH
	DB	0aH
	DB	0aH
	DB	072H
	DB	015H
	DB	01dH
	DB	02dH
	DB	039H
	DB	01dH
	DB	015H
	DB	03fH
	DB	015H
	DB	015H
	DB	015H
	DB	015H
	DB	039H
	DB	015H
	DB	01dH
	DB	01dH
	DB	045H
	DB	039H
	DB	01bH
	DB	015H
	DB	015H
	DB	02dH
	DB	01dH
	DB	0d1H
	DB	036H
	DB	020H
	DB	022H
	DB	013H
	DB	013H
	DB	0fH
	DB	0fH
	DB	0fH
	DB	07H
	DB	07H
	DB	0fH
	DB	013H
	DB	025H
	DB	022H
	DB	036H
	DB	0dcH
	DB	095H
	DB	0c6H
	DB	0c7H
	DB	023H
	DB	086H
	DB	020H
	DB	0a8H
	DB	021H
	DB	022H
	DB	025H
	DB	025H
	DB	0fH
	DB	0fH
	DB	0fH
	DB	048H
	DB	013H
	DB	041H
	DB	013H
	DB	0abH
	DB	0aH
	DB	02H
	DB	02H
	DB	03H
	DB	03H
	DB	03H
	DB	03H
	DB	03H
	DB	03H
	DB	03H
	DB	03H
	DB	03H
	DB	03H
	DB	03H
	DB	03H
	DB	03H
	DB	03H
	DB	03H
	DB	03H
	DB	03H
	DB	03H
	DB	03H
	DB	03H
	DB	03H
	DB	03H
	DB	03H
	DB	03H
	DB	03H
	DB	03H
	DB	03H
	DB	03H
	DB	03H
	DB	03H
	DB	03H
	DB	03H
	DB	03H
	DB	03H
	DB	03H
	DB	03H
	DB	03H
	DB	02H
	DB	00H
	DB	01H
	DB	05aH
	DB	01H
	DB	01H
	DB	01H
	DB	01H
	DB	01H
	DB	01H
	DB	01H
	DB	01H
	DB	01H
	DB	01H
	DB	01H
	DB	01H
	DB	01H
	DB	01H
	DB	01H
	DB	01H
	DB	01H
	DB	01H
	DB	01H
	DB	01H
	DB	01H
	DB	01H
	DB	01H
	DB	01H
	DB	01H
	DB	01H
	DB	01H
	DB	01H
	DB	01H
	DB	01H
	DB	01H
	DB	01H
	DB	01H
	DB	01H
	DB	01H
	DB	01H
	DB	01H
	DB	01H
	DB	01H
	DB	01H
	DB	01H
	DB	01H
	DB	01H
	DB	01H
	DB	01H
	DB	01H
	DB	01H
	DB	01H
	DB	01H
	DB	01H
	DB	01H
	DB	01H
	DB	01H
	DB	01H
	DB	01H
	DB	01H
	DB	01H
	DB	01H
	DB	01H
	DB	05aH
	DB	0bH
	DB	08H
	DB	011H
	DB	0deH
	DB	0b3H
	DB	00H
	DB	00H
	DB	0b3H
	DB	00H
	DB	00H
	DB	01H
	DB	07H
	DB	077H
	DB	00H
	DB	00H
	DB	0bH
	DB	0deH
	DB	077H
	DB	07H
	DB	0e0H
	DB	00H
	DB	00H
	DB	00H
	DB	00H
	DB	00H
	DB	00H
	DB	00H
	DB	00H
	DB	00H
	DB	00H
	DB	00H
	DB	00H
	DB	00H
	DB	00H
	DB	00H
	DB	00H
	DB	00H
	DB	00H
	DB	00H
	DB	00H
	DB	00H
	DB	00H
	DB	00H
	DB	00H
	DB	00H
	DB	00H
	DB	00H
	DB	00H
	DB	00H
	DB	00H
	DB	00H
	DB	00H
	DB	00H
	DB	00H
	DB	00H
	DB	00H
	DB	00H
	DB	088H
	DB	01eH
	DB	0fcH
	DB	011H
	DB	011H
	DB	087H
	DB	0faH
	DB	0caH
	DB	0cbH
	DB	01dH
	DB	03dH
	DB	01fH
	DB	01fH
	DB	03H
	DB	02H
	DB	0eH
	DB	016H
	DB	00H
	DB	00H
	DB	00H
	DB	00H
	DB	00H
	DB	00H
	DB	042H
	DB	08H
	DB	00H
	DB	00H
	DB	00H
	DB	00H
	DB	00H
	DB	00H
	DB	00H
	DB	00H
	DB	069H
	DB	011H
	DB	088H
	DB	00H
	DB	00H
	DB	042H
	DB	05aH
	DB	01H
	DB	01H
	DB	01H
	DB	0e0H
	DB	00H
	DB	0aH
	DB	03H
	DB	03H
	DB	03H
	DB	03H
	DB	01aH
	DB	01eH
	DB	0b3H
	DB	00H
	DB	00H
	DB	00H
	DB	00H
	DB	00H
	DB	00H
	DB	00H
	DB	04H
	DB	01eH
	DB	01aH
	DB	03H
	DB	03H
	DB	03H
	DB	03H
	DB	03H
	DB	03H
	DB	03H
	DB	03H
	DB	03H
	DB	03H
	DB	02H
	DB	016H
	DB	042H
	DB	01H
	DB	01H
	DB	01H
	DB	01H
	DB	01H
	DB	01H
	DB	01H
	DB	0e0H
	DB	0e0H
	DB	0e0H
	DB	0e0H
	DB	0e0H
	DB	0e0H
	DB	0e0H
	DB	0e0H
	DB	0e0H
	DB	0e0H
	DB	0e0H
	DB	0e0H
	DB	0e0H
	DB	0e0H
	DB	0e0H
	DB	0e0H
	DB	0e0H
	DB	0e0H
	DB	042H
	DB	042H
	DB	08H
	DB	08H
	DB	08H
	DB	08H
	DB	08H
	DB	0c2H
	DB	0c2H
	DB	0c2H
	DB	0c2H
	DB	0c2H
	DB	05H
	DB	05H
	DB	05H
	DB	088H
	DB	088H
	DB	088H
	DB	088H
	DB	04H
	DB	04H
	DB	04H
	DB	04H
	DB	04H
	DB	0b3H
	DB	0b3H
	DB	0b3H
	DB	0b3H
	DB	0b3H
	DB	0b3H
	DB	0b3H
	DB	0b3H
	DB	0b3H
	DB	0b3H
	DB	0b3H
	DB	0b3H
	DB	0b3H
	DB	0b3H
	DB	0b3H
	DB	0b3H
	DB	0b3H
	DB	0b3H
	DB	0b3H
	DB	0b3H
	DB	0b3H
	DB	0b3H
	DB	0b3H
	DB	0b3H
	DB	0b3H
	DB	0b3H
	DB	0b3H
	DB	0b3H
	DB	0b3H
	DB	0b3H
	DB	0b3H
	DB	0b3H
	DB	0b3H
	DB	0b3H
	DB	0b3H
	DB	0b3H
	DB	0b3H
	DB	0b3H
	DB	0b3H
	DB	0b3H
	DB	0b3H
	DB	0b3H
	DB	0b3H
	DB	0b3H
	DB	0b3H
	DB	0b3H
	DB	0b3H
	DB	0b3H
	DB	0b3H
	DB	0b3H
	DB	0b3H
	DB	0b3H
	DB	0b3H
	DB	0b3H
	DB	0b3H
	DB	0b3H
	DB	0b3H
	DB	0b3H
	DB	0b3H
	DB	0b3H
	DB	0b3H
	DB	0b3H
	DB	0b3H
	DB	0b3H
	DB	0b3H
	DB	0b3H
	DB	0b3H
	DB	0b3H
	DB	0b3H
	DB	0b3H
	DB	0b3H
	DB	04H
	DB	04H
	DB	04H
	DB	04H
	DB	04H
	DB	088H
	DB	088H
	DB	088H
	DB	088H
	DB	088H
	DB	05H
	DB	05H
	DB	05H
	DB	0c2H
	DB	0c2H
	DB	08H
	DB	08H
	DB	08H
	DB	08H
	DB	08H
	DB	0c2H
	DB	0c2H
	DB	05H
	DB	05H
	DB	05H
	DB	088H
	DB	088H
	DB	088H
	DB	088H
	DB	088H
	DB	05H
	DB	051H
	DB	01cH
	DB	01cH
	DB	010H
	DB	037H
	DB	038H
	DB	024H
	DB	024H
	DB	01cH
	DB	01cH
	DB	01cH
	DB	010H
	DB	051H
	DB	01cH
	DB	01cH
	DB	01cH
	DB	01cH
	DB	024H
	DB	024H
	DB	010H
	DB	037H
	DB	01cH
	DB	01cH
	DB	051H
	DB	029H
	DB	02bH
	DB	02bH
	DB	028H
	DB	0eH
	DB	0eH
	DB	0aH
	DB	0aH
	DB	0aH
	DB	0aeH
	DB	015H
	DB	015H
	DB	03fH
	DB	015H
	DB	01dH
	DB	039H
	DB	045H
	DB	015H
	DB	015H
	DB	015H
	DB	045H
	DB	02dH
	DB	01dH
	DB	01dH
	DB	01dH
	DB	047H
	DB	01bH
	DB	01bH
	DB	015H
	DB	01bH
	DB	015H
	DB	02dH
	DB	029H
	DB	033H
	DB	020H
	DB	025H
	DB	013H
	DB	0fH
	DB	07H
	DB	07H
	DB	07H
	DB	07H
	DB	07H
	DB	07H
	DB	0fH
	DB	013H
	DB	013H
	DB	0abH
	DB	086H
	DB	086H
	DB	023H
	DB	02fH
	DB	023H
	DB	023H
	DB	05eH
	DB	020H
	DB	021H
	DB	021H
	DB	022H
	DB	025H
	DB	0fH
	DB	0fH
	DB	0fH
	DB	0fH
	DB	013H
	DB	013H
	DB	013H
	DB	087H
	DB	023H
	DB	02H
	DB	02H
	DB	02H
	DB	03H
	DB	03H
	DB	03H
	DB	03H
	DB	03H
	DB	03H
	DB	03H
	DB	03H
	DB	03H
	DB	03H
	DB	03H
	DB	03H
	DB	03H
	DB	03H
	DB	03H
	DB	03H
	DB	03H
	DB	03H
	DB	03H
	DB	03H
	DB	03H
	DB	03H
	DB	03H
	DB	03H
	DB	03H
	DB	03H
	DB	03H
	DB	03H
	DB	03H
	DB	03H
	DB	03H
	DB	03H
	DB	03H
	DB	03H
	DB	03H
	DB	03H
	DB	02H
	DB	00H
	DB	01H
	DB	05aH
	DB	01H
	DB	01H
	DB	01H
	DB	01H
	DB	01H
	DB	01H
	DB	01H
	DB	01H
	DB	01H
	DB	01H
	DB	01H
	DB	01H
	DB	01H
	DB	01H
	DB	01H
	DB	01H
	DB	01H
	DB	01H
	DB	01H
	DB	01H
	DB	01H
	DB	01H
	DB	01H
	DB	01H
	DB	01H
	DB	01H
	DB	01H
	DB	01H
	DB	01H
	DB	01H
	DB	01H
	DB	01H
	DB	01H
	DB	01H
	DB	01H
	DB	01H
	DB	01H
	DB	01H
	DB	01H
	DB	01H
	DB	01H
	DB	01H
	DB	01H
	DB	01H
	DB	01H
	DB	01H
	DB	01H
	DB	01H
	DB	01H
	DB	01H
	DB	01H
	DB	01H
	DB	01H
	DB	01H
	DB	01H
	DB	01H
	DB	01H
	DB	01H
	DB	05aH
	DB	088H
	DB	00H
	DB	00H
	DB	0ffH
	DB	0deH
	DB	0b3H
	DB	00H
	DB	00H
	DB	00H
	DB	00H
	DB	05H
	DB	0deH
	DB	07H
	DB	08H
	DB	00H
	DB	01eH
	DB	07H
	DB	0e0H
	DB	06H
	DB	07H
	DB	0e0H
	DB	00H
	DB	00H
	DB	00H
	DB	00H
	DB	00H
	DB	00H
	DB	00H
	DB	00H
	DB	00H
	DB	00H
	DB	00H
	DB	00H
	DB	00H
	DB	08H
	DB	088H
	DB	00H
	DB	00H
	DB	00H
	DB	00H
	DB	00H
	DB	00H
	DB	00H
	DB	00H
	DB	00H
	DB	00H
	DB	00H
	DB	00H
	DB	00H
	DB	00H
	DB	00H
	DB	00H
	DB	00H
	DB	00H
	DB	00H
	DB	088H
	DB	01eH
	DB	0bH
	DB	0ffH
	DB	04aH
	DB	0f9H
	DB	0caH
	DB	0cbH
	DB	01dH
	DB	01dH
	DB	0cbH
	DB	047H
	DB	0cfH
	DB	036H
	DB	04bH
	DB	00H
	DB	00H
	DB	00H
	DB	00H
	DB	00H
	DB	00H
	DB	00H
	DB	00H
	DB	00H
	DB	00H
	DB	00H
	DB	0c2H
	DB	0e0H
	DB	00H
	DB	00H
	DB	00H
	DB	00H
	DB	00H
	DB	00H
	DB	00H
	DB	08H
	DB	07H
	DB	0deH
	DB	088H
	DB	00H
	DB	00H
	DB	042H
	DB	05aH
	DB	01H
	DB	01H
	DB	01H
	DB	0e0H
	DB	00H
	DB	0aH
	DB	03H
	DB	03H
	DB	03H
	DB	03H
	DB	01aH
	DB	01eH
	DB	0b3H
	DB	00H
	DB	00H
	DB	00H
	DB	00H
	DB	00H
	DB	00H
	DB	00H
	DB	04H
	DB	01eH
	DB	01aH
	DB	03H
	DB	03H
	DB	03H
	DB	03H
	DB	03H
	DB	03H
	DB	03H
	DB	03H
	DB	03H
	DB	03H
	DB	02H
	DB	016H
	DB	0e0H
	DB	01H
	DB	01H
	DB	01H
	DB	01H
	DB	01H
	DB	01H
	DB	01H
	DB	01H
	DB	01H
	DB	0e0H
	DB	0e0H
	DB	0e0H
	DB	0e0H
	DB	0e0H
	DB	0e0H
	DB	0e0H
	DB	0e0H
	DB	0e0H
	DB	0e0H
	DB	0e0H
	DB	0e0H
	DB	0e0H
	DB	0e0H
	DB	0e0H
	DB	0e0H
	DB	0e0H
	DB	042H
	DB	042H
	DB	08H
	DB	08H
	DB	08H
	DB	08H
	DB	08H
	DB	0c2H
	DB	0c2H
	DB	0c2H
	DB	0c2H
	DB	05H
	DB	05H
	DB	05H
	DB	088H
	DB	088H
	DB	088H
	DB	088H
	DB	04H
	DB	04H
	DB	04H
	DB	04H
	DB	0b3H
	DB	0b3H
	DB	0b3H
	DB	0b3H
	DB	0b3H
	DB	0b3H
	DB	0b3H
	DB	0b3H
	DB	0b3H
	DB	0b3H
	DB	0b3H
	DB	0b3H
	DB	0b3H
	DB	0b3H
	DB	0b3H
	DB	0b3H
	DB	0b3H
	DB	0b3H
	DB	0b3H
	DB	0b3H
	DB	0b3H
	DB	0b3H
	DB	0b3H
	DB	0b3H
	DB	0b3H
	DB	0b3H
	DB	0b3H
	DB	0b3H
	DB	0b3H
	DB	0b3H
	DB	0b3H
	DB	0b3H
	DB	0b3H
	DB	0b3H
	DB	0b3H
	DB	0b3H
	DB	0b3H
	DB	0b3H
	DB	0b3H
	DB	0b3H
	DB	0b3H
	DB	0b3H
	DB	0b3H
	DB	0b3H
	DB	0b3H
	DB	0b3H
	DB	0b3H
	DB	0b3H
	DB	0b3H
	DB	0b3H
	DB	0b3H
	DB	0b3H
	DB	0b3H
	DB	0b3H
	DB	0b3H
	DB	0b3H
	DB	0b3H
	DB	0b3H
	DB	0b3H
	DB	0b3H
	DB	0b3H
	DB	0b3H
	DB	0b3H
	DB	0b3H
	DB	0b3H
	DB	0b3H
	DB	0b3H
	DB	0b3H
	DB	0b3H
	DB	0b3H
	DB	0b3H
	DB	04H
	DB	04H
	DB	04H
	DB	04H
	DB	04H
	DB	088H
	DB	088H
	DB	088H
	DB	088H
	DB	088H
	DB	05H
	DB	05H
	DB	05H
	DB	05H
	DB	0c2H
	DB	0c2H
	DB	08H
	DB	08H
	DB	08H
	DB	08H
	DB	08H
	DB	08H
	DB	0c2H
	DB	0c2H
	DB	05H
	DB	05H
	DB	05H
	DB	05H
	DB	088H
	DB	088H
	DB	088H
	DB	05H
	DB	051H
	DB	01cH
	DB	010H
	DB	010H
	DB	037H
	DB	038H
	DB	024H
	DB	01cH
	DB	01cH
	DB	01cH
	DB	01cH
	DB	010H
	DB	01cH
	DB	01cH
	DB	01cH
	DB	01cH
	DB	024H
	DB	024H
	DB	037H
	DB	010H
	DB	01cH
	DB	01cH
	DB	051H
	DB	04eH
	DB	02bH
	DB	02bH
	DB	029H
	DB	0eH
	DB	0eH
	DB	0aH
	DB	0aH
	DB	0aH
	DB	072H
	DB	015H
	DB	01dH
	DB	02dH
	DB	03eH
	DB	01dH
	DB	02dH
	DB	039H
	DB	015H
	DB	015H
	DB	015H
	DB	015H
	DB	0bfH
	DB	02dH
	DB	01dH
	DB	01dH
	DB	01dH
	DB	02dH
	DB	01bH
	DB	01bH
	DB	01bH
	DB	01bH
	DB	03eH
	DB	02bH
	DB	09eH
	DB	021H
	DB	020H
	DB	025H
	DB	013H
	DB	0fH
	DB	07H
	DB	07H
	DB	07H
	DB	07H
	DB	07H
	DB	07H
	DB	0fH
	DB	013H
	DB	0fH
	DB	087H
	DB	02bH
	DB	05eH
	DB	018H
	DB	02fH
	DB	019H
	DB	02fH
	DB	029H
	DB	066H
	DB	021H
	DB	021H
	DB	022H
	DB	025H
	DB	013H
	DB	0fH
	DB	0fH
	DB	0fH
	DB	0fH
	DB	013H
	DB	013H
	DB	013H
	DB	036H
	DB	0aH
	DB	02H
	DB	02H
	DB	03H
	DB	03H
	DB	03H
	DB	03H
	DB	03H
	DB	03H
	DB	03H
	DB	03H
	DB	03H
	DB	03H
	DB	03H
	DB	03H
	DB	03H
	DB	03H
	DB	03H
	DB	03H
	DB	03H
	DB	03H
	DB	03H
	DB	03H
	DB	03H
	DB	03H
	DB	03H
	DB	03H
	DB	03H
	DB	03H
	DB	03H
	DB	03H
	DB	03H
	DB	03H
	DB	03H
	DB	03H
	DB	03H
	DB	03H
	DB	03H
	DB	03H
	DB	02H
	DB	00H
	DB	01H
	DB	05aH
	DB	01H
	DB	01H
	DB	01H
	DB	01H
	DB	01H
	DB	01H
	DB	01H
	DB	01H
	DB	01H
	DB	01H
	DB	01H
	DB	01H
	DB	01H
	DB	01H
	DB	01H
	DB	01H
	DB	01H
	DB	01H
	DB	01H
	DB	01H
	DB	01H
	DB	01H
	DB	01H
	DB	01H
	DB	01H
	DB	01H
	DB	01H
	DB	01H
	DB	01H
	DB	01H
	DB	01H
	DB	01H
	DB	01H
	DB	01H
	DB	01H
	DB	01H
	DB	01H
	DB	01H
	DB	01H
	DB	01H
	DB	01H
	DB	01H
	DB	01H
	DB	01H
	DB	01H
	DB	01H
	DB	01H
	DB	01H
	DB	01H
	DB	01H
	DB	01H
	DB	01H
	DB	01H
	DB	01H
	DB	01H
	DB	01H
	DB	01H
	DB	01H
	DB	05aH
	DB	04H
	DB	00H
	DB	0b3H
	DB	0ffH
	DB	0deH
	DB	0b3H
	DB	00H
	DB	00H
	DB	00H
	DB	08H
	DB	0deH
	DB	07H
	DB	01eH
	DB	00H
	DB	05H
	DB	07H
	DB	0bH
	DB	04H
	DB	09H
	DB	07H
	DB	05aH
	DB	0b3H
	DB	00H
	DB	0b3H
	DB	0b3H
	DB	04H
	DB	00H
	DB	088H
	DB	00H
	DB	00H
	DB	0b3H
	DB	04H
	DB	0b3H
	DB	00H
	DB	09H
	DB	01H
	DB	088H
	DB	00H
	DB	00H
	DB	00H
	DB	00H
	DB	00H
	DB	00H
	DB	00H
	DB	00H
	DB	00H
	DB	00H
	DB	00H
	DB	00H
	DB	00H
	DB	00H
	DB	00H
	DB	0b3H
	DB	01H
	DB	0bH
	DB	011H
	DB	011H
	DB	0f9H
	DB	0caH
	DB	0cbH
	DB	01dH
	DB	01dH
	DB	045H
	DB	0cfH
	DB	056H
	DB	05bH
	DB	00H
	DB	00H
	DB	08H
	DB	08H
	DB	00H
	DB	00H
	DB	00H
	DB	00H
	DB	00H
	DB	00H
	DB	00H
	DB	00H
	DB	00H
	DB	00H
	DB	00H
	DB	088H
	DB	01H
	DB	00H
	DB	00H
	DB	00H
	DB	00H
	DB	00H
	DB	00H
	DB	00H
	DB	07cH
	DB	011H
	DB	0deH
	DB	088H
	DB	00H
	DB	00H
	DB	042H
	DB	05aH
	DB	01H
	DB	01H
	DB	01H
	DB	0e0H
	DB	00H
	DB	0aH
	DB	03H
	DB	03H
	DB	03H
	DB	03H
	DB	01aH
	DB	01eH
	DB	0b3H
	DB	00H
	DB	00H
	DB	00H
	DB	00H
	DB	00H
	DB	00H
	DB	00H
	DB	04H
	DB	01eH
	DB	01aH
	DB	03H
	DB	03H
	DB	03H
	DB	03H
	DB	03H
	DB	03H
	DB	03H
	DB	03H
	DB	03H
	DB	03H
	DB	02H
	DB	016H
	DB	0e0H
	DB	01H
	DB	01H
	DB	01H
	DB	01H
	DB	01H
	DB	01H
	DB	01H
	DB	01H
	DB	01H
	DB	01H
	DB	01H
	DB	01H
	DB	0e0H
	DB	0e0H
	DB	0e0H
	DB	0e0H
	DB	0e0H
	DB	0e0H
	DB	0e0H
	DB	0e0H
	DB	0e0H
	DB	0e0H
	DB	0e0H
	DB	0e0H
	DB	0e0H
	DB	0e0H
	DB	042H
	DB	042H
	DB	08H
	DB	08H
	DB	08H
	DB	08H
	DB	08H
	DB	0c2H
	DB	0c2H
	DB	0c2H
	DB	0c2H
	DB	05H
	DB	05H
	DB	05H
	DB	088H
	DB	088H
	DB	088H
	DB	088H
	DB	04H
	DB	04H
	DB	04H
	DB	04H
	DB	0b3H
	DB	0b3H
	DB	0b3H
	DB	0b3H
	DB	0b3H
	DB	0b3H
	DB	0b3H
	DB	0b3H
	DB	0b3H
	DB	0b3H
	DB	0b3H
	DB	0b3H
	DB	0b3H
	DB	0b3H
	DB	0b3H
	DB	0b3H
	DB	0b3H
	DB	0b3H
	DB	0b3H
	DB	0b3H
	DB	0b3H
	DB	0b3H
	DB	0b3H
	DB	0b3H
	DB	0b3H
	DB	0b3H
	DB	0b3H
	DB	0b3H
	DB	0b3H
	DB	0b3H
	DB	0b3H
	DB	0b3H
	DB	0b3H
	DB	0b3H
	DB	0b3H
	DB	0b3H
	DB	0b3H
	DB	0b3H
	DB	0b3H
	DB	0b3H
	DB	0b3H
	DB	0b3H
	DB	0b3H
	DB	0b3H
	DB	0b3H
	DB	0b3H
	DB	0b3H
	DB	0b3H
	DB	0b3H
	DB	0b3H
	DB	0b3H
	DB	0b3H
	DB	0b3H
	DB	0b3H
	DB	0b3H
	DB	0b3H
	DB	0b3H
	DB	0b3H
	DB	0b3H
	DB	0b3H
	DB	0b3H
	DB	0b3H
	DB	0b3H
	DB	0b3H
	DB	0b3H
	DB	0b3H
	DB	0b3H
	DB	0b3H
	DB	0b3H
	DB	0b3H
	DB	04H
	DB	04H
	DB	04H
	DB	04H
	DB	04H
	DB	088H
	DB	088H
	DB	088H
	DB	088H
	DB	05H
	DB	05H
	DB	05H
	DB	05H
	DB	0c2H
	DB	0c2H
	DB	0c2H
	DB	0c2H
	DB	08H
	DB	08H
	DB	08H
	DB	08H
	DB	08H
	DB	08H
	DB	08H
	DB	0c2H
	DB	0c2H
	DB	0c2H
	DB	05H
	DB	05H
	DB	05H
	DB	05H
	DB	088H
	DB	05H
	DB	051H
	DB	037H
	DB	051H
	DB	03cH
	DB	038H
	DB	024H
	DB	024H
	DB	024H
	DB	024H
	DB	01cH
	DB	010H
	DB	010H
	DB	01cH
	DB	01cH
	DB	01cH
	DB	01cH
	DB	024H
	DB	024H
	DB	037H
	DB	010H
	DB	01cH
	DB	01cH
	DB	051H
	DB	02aH
	DB	02bH
	DB	02bH
	DB	023H
	DB	0eH
	DB	0eH
	DB	0aH
	DB	0aH
	DB	02fH
	DB	03eH
	DB	01dH
	DB	015H
	DB	039H
	DB	045H
	DB	01dH
	DB	039H
	DB	02dH
	DB	015H
	DB	015H
	DB	015H
	DB	015H
	DB	02dH
	DB	045H
	DB	01dH
	DB	01dH
	DB	0cbH
	DB	02dH
	DB	01bH
	DB	01bH
	DB	01bH
	DB	03eH
	DB	029H
	DB	03dH
	DB	022H
	DB	021H
	DB	021H
	DB	025H
	DB	0fH
	DB	0fH
	DB	07H
	DB	07H
	DB	07H
	DB	07H
	DB	07H
	DB	07H
	DB	07H
	DB	0fH
	DB	0fH
	DB	0fH
	DB	0f9H
	DB	033H
	DB	064H
	DB	019H
	DB	017H
	DB	03H
	DB	019H
	DB	02bH
	DB	078H
	DB	021H
	DB	025H
	DB	025H
	DB	013H
	DB	0fH
	DB	0fH
	DB	0fH
	DB	0fH
	DB	013H
	DB	013H
	DB	013H
	DB	081H
	DB	0aH
	DB	02H
	DB	02H
	DB	02H
	DB	03H
	DB	03H
	DB	03H
	DB	03H
	DB	03H
	DB	03H
	DB	03H
	DB	03H
	DB	03H
	DB	03H
	DB	03H
	DB	03H
	DB	03H
	DB	03H
	DB	03H
	DB	03H
	DB	03H
	DB	03H
	DB	03H
	DB	03H
	DB	03H
	DB	03H
	DB	03H
	DB	03H
	DB	03H
	DB	03H
	DB	03H
	DB	03H
	DB	03H
	DB	03H
	DB	03H
	DB	03H
	DB	03H
	DB	03H
	DB	03H
	DB	02H
	DB	00H
	DB	01H
	DB	05aH
	DB	01H
	DB	01H
	DB	01H
	DB	01H
	DB	01H
	DB	01H
	DB	01H
	DB	01H
	DB	01H
	DB	01H
	DB	01H
	DB	01H
	DB	01H
	DB	01H
	DB	01H
	DB	01H
	DB	01H
	DB	01H
	DB	01H
	DB	01H
	DB	01H
	DB	01H
	DB	01H
	DB	01H
	DB	01H
	DB	01H
	DB	01H
	DB	01H
	DB	01H
	DB	01H
	DB	01H
	DB	01H
	DB	01H
	DB	01H
	DB	01H
	DB	01H
	DB	01H
	DB	01H
	DB	01H
	DB	01H
	DB	01H
	DB	01H
	DB	01H
	DB	01H
	DB	01H
	DB	01H
	DB	01H
	DB	01H
	DB	01H
	DB	01H
	DB	01H
	DB	01H
	DB	01H
	DB	01H
	DB	01H
	DB	01H
	DB	01H
	DB	01H
	DB	05aH
	DB	04H
	DB	00H
	DB	0b3H
	DB	0ffH
	DB	0deH
	DB	0b3H
	DB	00H
	DB	00H
	DB	0c2H
	DB	0deH
	DB	07H
	DB	01H
	DB	00H
	DB	00H
	DB	06H
	DB	07H
	DB	07H
	DB	0deH
	DB	07H
	DB	07H
	DB	07H
	DB	01eH
	DB	00H
	DB	0f8H
	DB	0f8H
	DB	09H
	DB	0f8H
	DB	09H
	DB	01eH
	DB	088H
	DB	077H
	DB	0f8H
	DB	09H
	DB	088H
	DB	0f8H
	DB	09H
	DB	09H
	DB	01eH
	DB	00H
	DB	00H
	DB	00H
	DB	00H
	DB	00H
	DB	00H
	DB	00H
	DB	00H
	DB	00H
	DB	00H
	DB	00H
	DB	00H
	DB	05H
	DB	09H
	DB	0b9H
	DB	011H
	DB	0c0H
	DB	03dH
	DB	0cbH
	DB	01dH
	DB	01dH
	DB	0bfH
	DB	068H
	DB	028H
	DB	00H
	DB	00H
	DB	00H
	DB	00H
	DB	00H
	DB	00H
	DB	05H
	DB	01H
	DB	00H
	DB	00H
	DB	00H
	DB	00H
	DB	00H
	DB	00H
	DB	00H
	DB	00H
	DB	00H
	DB	00H
	DB	00H
	DB	04H
	DB	01H
	DB	00H
	DB	00H
	DB	00H
	DB	00H
	DB	00H
	DB	00H
	DB	09H
	DB	0bH
	DB	01H
	DB	0deH
	DB	04H
	DB	00H
	DB	00H
	DB	042H
	DB	05aH
	DB	01H
	DB	01H
	DB	01H
	DB	0e0H
	DB	00H
	DB	0aH
	DB	03H
	DB	03H
	DB	03H
	DB	03H
	DB	01aH
	DB	01eH
	DB	0b3H
	DB	00H
	DB	00H
	DB	00H
	DB	00H
	DB	00H
	DB	00H
	DB	00H
	DB	04H
	DB	01eH
	DB	01aH
	DB	03H
	DB	03H
	DB	03H
	DB	03H
	DB	03H
	DB	03H
	DB	03H
	DB	03H
	DB	03H
	DB	03H
	DB	02H
	DB	016H
	DB	0e0H
	DB	01H
	DB	01H
	DB	01H
	DB	01H
	DB	01H
	DB	01H
	DB	01H
	DB	01H
	DB	01H
	DB	01H
	DB	01H
	DB	01H
	DB	01H
	DB	0e0H
	DB	0e0H
	DB	0e0H
	DB	0e0H
	DB	0e0H
	DB	0e0H
	DB	0e0H
	DB	0e0H
	DB	0e0H
	DB	0e0H
	DB	0e0H
	DB	0e0H
	DB	0e0H
	DB	042H
	DB	042H
	DB	08H
	DB	08H
	DB	08H
	DB	08H
	DB	08H
	DB	0c2H
	DB	0c2H
	DB	0c2H
	DB	0c2H
	DB	05H
	DB	05H
	DB	05H
	DB	088H
	DB	088H
	DB	088H
	DB	088H
	DB	04H
	DB	04H
	DB	04H
	DB	04H
	DB	0b3H
	DB	0b3H
	DB	0b3H
	DB	0b3H
	DB	0b3H
	DB	0b3H
	DB	0b3H
	DB	0b3H
	DB	0b3H
	DB	0b3H
	DB	0b3H
	DB	0b3H
	DB	0b3H
	DB	0b3H
	DB	0b3H
	DB	0b3H
	DB	0b3H
	DB	0b3H
	DB	0b3H
	DB	0b3H
	DB	0b3H
	DB	0b3H
	DB	0b3H
	DB	0b3H
	DB	0b3H
	DB	0b3H
	DB	0b3H
	DB	0b3H
	DB	0b3H
	DB	0b3H
	DB	0b3H
	DB	0b3H
	DB	0b3H
	DB	0b3H
	DB	0b3H
	DB	0b3H
	DB	0b3H
	DB	0b3H
	DB	0b3H
	DB	0b3H
	DB	0b3H
	DB	0b3H
	DB	0b3H
	DB	0b3H
	DB	0b3H
	DB	0b3H
	DB	0b3H
	DB	0b3H
	DB	0b3H
	DB	0b3H
	DB	0b3H
	DB	0b3H
	DB	0b3H
	DB	0b3H
	DB	0b3H
	DB	0b3H
	DB	0b3H
	DB	0b3H
	DB	0b3H
	DB	0b3H
	DB	0b3H
	DB	0b3H
	DB	0b3H
	DB	0b3H
	DB	0b3H
	DB	0b3H
	DB	0b3H
	DB	0b3H
	DB	0b3H
	DB	04H
	DB	04H
	DB	04H
	DB	04H
	DB	04H
	DB	088H
	DB	088H
	DB	088H
	DB	088H
	DB	05H
	DB	05H
	DB	05H
	DB	05H
	DB	0c2H
	DB	0c2H
	DB	0c2H
	DB	0c2H
	DB	08H
	DB	08H
	DB	08H
	DB	08H
	DB	042H
	DB	042H
	DB	042H
	DB	08H
	DB	08H
	DB	08H
	DB	0c2H
	DB	0c2H
	DB	0c2H
	DB	05H
	DB	05H
	DB	05H
	DB	05H
	DB	051H
	DB	051H
	DB	010H
	DB	01cH
	DB	038H
	DB	024H
	DB	024H
	DB	024H
	DB	024H
	DB	01cH
	DB	051H
	DB	010H
	DB	01cH
	DB	01cH
	DB	01cH
	DB	024H
	DB	024H
	DB	038H
	DB	051H
	DB	010H
	DB	037H
	DB	037H
	DB	051H
	DB	02bH
	DB	02bH
	DB	02bH
	DB	028H
	DB	0eH
	DB	0aH
	DB	0aH
	DB	0aH
	DB	055H
	DB	015H
	DB	015H
	DB	015H
	DB	039H
	DB	01dH
	DB	015H
	DB	039H
	DB	015H
	DB	015H
	DB	015H
	DB	015H
	DB	015H
	DB	045H
	DB	0cbH
	DB	01dH
	DB	01dH
	DB	0cbH
	DB	047H
	DB	01bH
	DB	01bH
	DB	01bH
	DB	076H
	DB	064H
	DB	021H
	DB	020H
	DB	022H
	DB	025H
	DB	013H
	DB	0fH
	DB	0fH
	DB	07H
	DB	07H
	DB	07H
	DB	07H
	DB	0fH
	DB	0fH
	DB	0fH
	DB	0fH
	DB	0fH
	DB	07H
	DB	0fH
	DB	025H
	DB	03dH
	DB	019H
	DB	017H
	DB	017H
	DB	01fH
	DB	0f4H
	DB	02bH
	DB	066H
	DB	021H
	DB	025H
	DB	025H
	DB	0fH
	DB	0fH
	DB	07H
	DB	0fH
	DB	0fH
	DB	0fH
	DB	013H
