; Listing generated by Microsoft (R) Optimizing Compiler Version 16.00.30319.01 

	TITLE	C:\DUII\DUII\Graphics\DragPresstoStage.c
	.686P
	.XMM
	include listing.inc
	.model	flat

INCLUDELIB LIBCMT
INCLUDELIB OLDNAMES

PUBLIC	_bmDragPresstoStage
CONST	SEGMENT
_ColorsDragPresstoStage DD 0bfc1bcH
	DD	040404H
	DD	080876H
	DD	0161616H
	DD	0262626H
	DD	0363636H
	DD	0909090H
	DD	030387H
	DD	093H
	DD	0fd00H
	DD	0474747H
	DD	0666666H
	DD	0a6a6a6H
	DD	0575757H
	DD	0777777H
	DD	0503503H
	DD	060751H
	DD	070768H
	DD	0ccfaf4H
	DD	06d4700H
	DD	0322e13H
	DD	060834H
	DD	0b0f2f2H
	DD	0643b00H
	DD	0368fcH
	DD	02e3cebH
	DD	0315012H
	DD	0f7fdfeH
	DD	030317H
	DD	057fbH
	DD	0212183H
	DD	06bb2f6H
	DD	052d04H
	DD	08cd4f4H
	DD	0528ef2H
	DD	073cbf8H
	DD	0306b0H
	DD	017294dH
	DD	0cf00H
	DD	027276bH
	DD	094e8f6H
	DD	02d36d3H
	DD	034680cH
	DD	02c4952H
	DD	060605cH
	DD	07200H
	DD	0130a13H
	DD	0ae00H
	DD	04f00H
	DD	0308cdH
	DD	0192931H
	DD	08f00H
	DD	041406cH
	DD	092d2d0H
	DD	01700H
	DD	0eeeH
	DD	0584306H
	DD	02b70fbH
	DD	0aee7d8H
	DD	024374cH
	DD	02c4d2cH
	DD	06db1d0H
	DD	059abf6H
	DD	0274767H
	DD	0144c70H
	DD	04a6f6eH
	DD	0326f2eH
	DD	0936b00H
	DD	0231b23H
	DD	0454cfH
	DD	0b08e06H
	DD	098e6d8H
	DD	0253738H
	DD	03e3e73H
	DD	05993f2H
	DD	0b1666H
	DD	04b758dH
	DD	0172566H
	DD	0548895H
	DD	0121b67H
	DD	0174656H
	DD	0a7d9ceH
	DD	06ca9b1H
	DD	0263526H
	DD	038656fH
	DD	0568fadH
	DD	0353428H
	DD	0332a33H
	DD	05792d4H
	DD	030688fH
	DD	0b0ab45H
	DD	0142990H
	DD	0242835H
	DD	03945eaH
	DD	0374aacH
	DD	06694f1H
	DD	069928dH
	DD	0e64d0H
	DD	0474737H
	DD	06695b3H
	DD	0275777H
	DD	0aa7600H
	DD	06794d1H
	DD	06a73f1H
	DD	059add3H
	DD	076c5d4H
	DD	089b6f5H
	DD	0875a00H
	DD	0a1586H
	DD	091577H
	DD	0121a75H
	DD	0924f4H
	DD	088b4adH
	DD	014140bH
	DD	0285666H
	DD	0385866H
	DD	02e6bceH
	DD	0857b7H
	DD	0a5dbf3H
	DD	02b1d07H
	DD	0145797H
	DD	0275787H
	DD	0365876H
	DD	05774f0H
	DD	0a56a9H
	DD	08dc5b8H
	DD	0284973H
	DD	0328536H
	DD	0358749H
	DD	0c79000H
	DD	02e65b5H
	DD	05275abH
	DD	0473a27H
	DD	0243867H
	DD	0433c43H
	DD	0346d48H
	DD	0222eb1H
	DD	0165687H
	DD	094897H
	DD	0162476H
	DD	0131b87H
	DD	084885H
	DD	01658a7H
	DD	054ab5H
	DD	073a69bH
	DD	0332c22H
	DD	09a8507H
	DD	0afa637H
	DD	0164b88H
	DD	0b5498H
	DD	0648a7H
	DD	0354a65H
	DD	0496357H
	DD	0404070H
	DD	0c5f1d9H
	DD	0ceab0bH
	DD	091497H
	DD	0142badH
	DD	03449d4H
	DD	04e4ad3H
	DD	05aa4b6H
	DD	0cdcff9H
	DD	051524dH
	DD	0a49932H
	DD	0cbb432H
	DD	0131999H
	DD	079e3feH
	DD	01667b3H
	DD	0444795H
	DD	0adb1f6H
	DD	077630cH
	DD	0524b52H
	DD	0495959H
	DD	0756fd1H
	DD	0625c63H
	DD	0335a88H
	DD	0295797H
	DD	0e24d1H
	DD	04d57edH
	DD	083b8cfH
	DD	08a90f3H
	DD	0193566H
	DD	0a3878H
	DD	06b857aH
	DD	0b9a418H
	DD	0145ab5H
	DD	05cc4f7H
	DD	0cececaH
	DD	0c7bb4dH
	DD	0234b87H
	DD	083a67H
	DD	092777H
	DD	0334b73H
	DD	0585868H
	DD	09d982eH
	DD	04047a4H
	DD	0100f0eH
	DD	0a1117H
	DD	0c2a6aH
	DD	048594bH
	DD	0474658H
	DD	0415c68H
	DD	0435a7aH
	DD	0d2c43cH
	DD	0232d97H
	DD	0283695H
	DD	0a5189H
	DD	0154a97H
	DD	06c7092H
	DD	05277d1H
	DD	01b462eH
	DD	0173777H
	DD	06a6978H
	DD	057847cH
	DD	0cdc354H
	DD	0354782H
	DD	0214d94H
	DD	01b6791H
	DD	06a70b4H
	DD	07ec2b3H
	DD	06f6731H
	DD	0282b7bH
	DD	0263672H
	DD	0706f6eH
	DD	0807e7eH
	DD	0a79d42H
	DD	0403eccH
	DD	08b88b0H
	DD	0c1c1bcH
	DD	08782d4H
	DD	0406c11H
	DD	05a6034H
	DD	0100e77H
	DD	0504f4fH
	DD	0637341H
	DD	0777e40H
	DD	0524f7aH
	DD	06d716fH
	DD	072716cH
	DD	0706f70H
	DD	061797eH
	DD	09ea03dH
	DD	0e4b000H
	DD	0e0c72bH
	DD	083837fH
	DD	03d429dH
	DD	0365397H
	DD	01b4eabH
	DD	0164bbaH
	DD	0615bbeH
	DD	0817f81H
	DD	0827fa3H
	DD	03b8bacH
	DD	08bb299H
	DD	0a4d8beH
	DD	0e2f8d5H
_PalDragPresstoStage DD 0100H
	DB	00H
	ORG $+3
	DD	FLAT:_ColorsDragPresstoStage
_bmDragPresstoStage DW 0131H
	DW	010fH
	DW	0131H
	DW	08H
	DD	FLAT:_acDragPresstoStage
	DD	FLAT:_PalDragPresstoStage
	ORG $+4
_acDragPresstoStage DB 01H
	DB	01H
	DB	01H
	DB	01H
	DB	01H
	DB	01H
	DB	01H
	DB	01H
	DB	01H
	DB	01H
	DB	01H
	DB	01H
	DB	01H
	DB	01H
	DB	01H
	DB	01H
	DB	01H
	DB	01H
	DB	01H
	DB	01H
	DB	01H
	DB	01H
	DB	01H
	DB	01H
	DB	01H
	DB	01H
	DB	01H
	DB	01H
	DB	01H
	DB	01H
	DB	01H
	DB	01H
	DB	01H
	DB	01H
	DB	01H
	DB	01H
	DB	01H
	DB	01H
	DB	01H
	DB	01H
	DB	01H
	DB	01H
	DB	01H
	DB	01H
	DB	01H
	DB	01H
	DB	01H
	DB	01H
	DB	01H
	DB	01H
	DB	01H
	DB	01H
	DB	01H
	DB	01H
	DB	01H
	DB	01H
	DB	01H
	DB	01H
	DB	01H
	DB	01H
	DB	01H
	DB	01H
	DB	01H
	DB	01H
	DB	01H
	DB	01H
	DB	01H
	DB	01H
	DB	01H
	DB	01H
	DB	01H
	DB	01H
	DB	01H
	DB	01H
	DB	01H
	DB	01H
	DB	01H
	DB	01H
	DB	01H
	DB	01H
	DB	01H
	DB	01H
	DB	01H
	DB	01H
	DB	01H
	DB	01H
	DB	01H
	DB	01H
	DB	01H
	DB	01H
	DB	01H
	DB	01H
	DB	01H
	DB	01H
	DB	01H
	DB	01H
	DB	01H
	DB	01H
	DB	01H
	DB	01H
	DB	01H
	DB	01H
	DB	01H
	DB	01H
	DB	01H
	DB	01H
	DB	01H
	DB	01H
	DB	01H
	DB	01H
	DB	01H
	DB	01H
	DB	01H
	DB	01H
	DB	01H
	DB	01H
	DB	01H
	DB	01H
	DB	01H
	DB	01H
	DB	01H
	DB	01H
	DB	01H
	DB	01H
	DB	01H
	DB	01H
	DB	01H
	DB	01H
	DB	01H
	DB	01H
	DB	01H
	DB	01H
	DB	01H
	DB	01H
	DB	01H
	DB	01H
	DB	01H
	DB	01H
	DB	01H
	DB	01H
	DB	01H
	DB	01H
	DB	01H
	DB	01H
	DB	01H
	DB	01H
	DB	01H
	DB	01H
	DB	01H
	DB	01H
	DB	01H
	DB	01H
	DB	01H
	DB	01H
	DB	01H
	DB	01H
	DB	01H
	DB	01H
	DB	01H
	DB	01H
	DB	01H
	DB	01H
	DB	01H
	DB	01H
	DB	01H
	DB	01H
	DB	01H
	DB	01H
	DB	01H
	DB	01H
	DB	01H
	DB	01H
	DB	01H
	DB	01H
	DB	01H
	DB	01H
	DB	01H
	DB	01H
	DB	01H
	DB	01H
	DB	01H
	DB	01H
	DB	01H
	DB	01H
	DB	01H
	DB	01H
	DB	01H
	DB	01H
	DB	01H
	DB	01H
	DB	01H
	DB	01H
	DB	01H
	DB	01H
	DB	01H
	DB	01H
	DB	01H
	DB	01H
	DB	01H
	DB	01H
	DB	01H
	DB	01H
	DB	01H
	DB	01H
	DB	01H
	DB	01H
	DB	01H
	DB	01H
	DB	01H
	DB	01H
	DB	01H
	DB	01H
	DB	01H
	DB	01H
	DB	01H
	DB	01H
	DB	01H
	DB	01H
	DB	01H
	DB	01H
	DB	01H
	DB	01H
	DB	01H
	DB	01H
	DB	01H
	DB	01H
	DB	01H
	DB	01H
	DB	01H
	DB	01H
	DB	01H
	DB	01H
	DB	01H
	DB	01H
	DB	01H
	DB	01H
	DB	01H
	DB	01H
	DB	01H
	DB	01H
	DB	01H
	DB	01H
	DB	01H
	DB	01H
	DB	01H
	DB	01H
	DB	01H
	DB	01H
	DB	01H
	DB	01H
	DB	01H
	DB	01H
	DB	01H
	DB	01H
	DB	01H
	DB	01H
	DB	01H
	DB	01H
	DB	01H
	DB	01H
	DB	01H
	DB	01H
	DB	01H
	DB	01H
	DB	01H
	DB	01H
	DB	01H
	DB	01H
	DB	01H
	DB	01H
	DB	01H
	DB	01H
	DB	01H
	DB	01H
	DB	01H
	DB	01H
	DB	01H
	DB	01H
	DB	01H
	DB	01H
	DB	01H
	DB	01H
	DB	01H
	DB	01H
	DB	01H
	DB	01H
	DB	01H
	DB	01H
	DB	01H
	DB	01H
	DB	01H
	DB	01H
	DB	01H
	DB	01H
	DB	01H
	DB	01H
	DB	01H
	DB	01H
	DB	01H
	DB	01H
	DB	01H
	DB	01H
	DB	01H
	DB	01H
	DB	01H
	DB	01H
	DB	01H
	DB	01H
	DB	01H
	DB	01H
	DB	01H
	DB	01H
	DB	01H
	DB	01H
	DB	01H
	DB	01H
	DB	01H
	DB	01H
	DB	01H
	DB	01H
	DB	01H
	DB	01H
	DB	01H
	DB	01H
	DB	01H
	DB	01H
	DB	01H
	DB	01H
	DB	01H
	DB	01H
	DB	01H
	DB	01H
	DB	01H
	DB	01H
	DB	01H
	DB	01H
	DB	01H
	DB	01H
	DB	01H
	DB	01H
	DB	01H
	DB	01H
	DB	01H
	DB	01H
	DB	01H
	DB	01H
	DB	01H
	DB	01H
	DB	01H
	DB	01H
	DB	01H
	DB	01H
	DB	01H
	DB	01H
	DB	01H
	DB	01H
	DB	01H
	DB	01H
	DB	01H
	DB	01H
	DB	01H
	DB	01H
	DB	01H
	DB	01H
	DB	01H
	DB	01H
	DB	01H
	DB	01H
	DB	01H
	DB	01H
	DB	01H
	DB	01H
	DB	01H
	DB	01H
	DB	01H
	DB	01H
	DB	01H
	DB	01H
	DB	01H
	DB	01H
	DB	01H
	DB	01H
	DB	01H
	DB	01H
	DB	01H
	DB	01H
	DB	01H
	DB	01H
	DB	01H
	DB	01H
	DB	01H
	DB	01H
	DB	01H
	DB	01H
	DB	01H
	DB	01H
	DB	01H
	DB	01H
	DB	01H
	DB	01H
	DB	01H
	DB	01H
	DB	01H
	DB	01H
	DB	01H
	DB	01H
	DB	01H
	DB	01H
	DB	01H
	DB	01H
	DB	01H
	DB	01H
	DB	01H
	DB	01H
	DB	01H
	DB	01H
	DB	01H
	DB	01H
	DB	01H
	DB	01H
	DB	01H
	DB	01H
	DB	01H
	DB	01H
	DB	01H
	DB	01H
	DB	01H
	DB	01H
	DB	01H
	DB	01H
	DB	01H
	DB	01H
	DB	01H
	DB	01H
	DB	01H
	DB	01H
	DB	01H
	DB	01H
	DB	01H
	DB	01H
	DB	01H
	DB	01H
	DB	01H
	DB	01H
	DB	01H
	DB	01H
	DB	01H
	DB	01H
	DB	01H
	DB	01H
	DB	01H
	DB	01H
	DB	01H
	DB	01H
	DB	01H
	DB	01H
	DB	01H
	DB	01H
	DB	01H
	DB	01H
	DB	01H
	DB	01H
	DB	01H
	DB	01H
	DB	01H
	DB	01H
	DB	01H
	DB	01H
	DB	01H
	DB	01H
	DB	01H
	DB	01H
	DB	01H
	DB	01H
	DB	01H
	DB	01H
	DB	01H
	DB	01H
	DB	01H
	DB	01H
	DB	01H
	DB	01H
	DB	01H
	DB	01H
	DB	01H
	DB	01H
	DB	01H
	DB	01H
	DB	01H
	DB	01H
	DB	01H
	DB	01H
	DB	01H
	DB	01H
	DB	01H
	DB	01H
	DB	01H
	DB	01H
	DB	01H
	DB	01H
	DB	01H
	DB	01H
	DB	01H
	DB	01H
	DB	01H
	DB	01H
	DB	01H
	DB	01H
	DB	01H
	DB	01H
	DB	01H
	DB	01H
	DB	01H
	DB	01H
	DB	01H
	DB	01H
	DB	01H
	DB	01H
	DB	01H
	DB	01H
	DB	01H
	DB	01H
	DB	01H
	DB	01H
	DB	01H
	DB	01H
	DB	01H
	DB	01H
	DB	01H
	DB	01H
	DB	01H
	DB	01H
	DB	01H
	DB	01H
	DB	01H
	DB	01H
	DB	01H
	DB	01H
	DB	01H
	DB	01H
	DB	01H
	DB	01H
	DB	01H
	DB	01H
	DB	01H
	DB	01H
	DB	01H
	DB	01H
	DB	01H
	DB	01H
	DB	01H
	DB	01H
	DB	01H
	DB	01H
	DB	01H
	DB	01H
	DB	01H
	DB	01H
	DB	01H
	DB	01H
	DB	01H
	DB	01H
	DB	01H
	DB	01H
	DB	01H
	DB	01H
	DB	01H
	DB	01H
	DB	01H
	DB	01H
	DB	01H
	DB	01H
	DB	01H
	DB	01H
	DB	01H
	DB	01H
	DB	01H
	DB	01H
	DB	01H
	DB	01H
	DB	01H
	DB	01H
	DB	01H
	DB	01H
	DB	01H
	DB	01H
	DB	01H
	DB	01H
	DB	01H
	DB	01H
	DB	01H
	DB	01H
	DB	01H
	DB	01H
	DB	01H
	DB	01H
	DB	01H
	DB	01H
	DB	01H
	DB	01H
	DB	01H
	DB	01H
	DB	01H
	DB	01H
	DB	01H
	DB	01H
	DB	01H
	DB	01H
	DB	01H
	DB	01H
	DB	01H
	DB	01H
	DB	01H
	DB	01H
	DB	01H
	DB	01H
	DB	01H
	DB	01H
	DB	01H
	DB	01H
	DB	01H
	DB	01H
	DB	01H
	DB	01H
	DB	01H
	DB	01H
	DB	01H
	DB	01H
	DB	01H
	DB	01H
	DB	01H
	DB	01H
	DB	01H
	DB	01H
	DB	01H
	DB	01H
	DB	01H
	DB	01H
	DB	01H
	DB	01H
	DB	01H
	DB	01H
	DB	01H
	DB	01H
	DB	01H
	DB	01H
	DB	01H
	DB	01H
	DB	01H
	DB	01H
	DB	01H
	DB	01H
	DB	01H
	DB	01H
	DB	01H
	DB	01H
	DB	01H
	DB	01H
	DB	01H
	DB	01H
	DB	01H
	DB	01H
	DB	01H
	DB	01H
	DB	01H
	DB	01H
	DB	01H
	DB	01H
	DB	01H
	DB	01H
	DB	01H
	DB	01H
	DB	01H
	DB	01H
	DB	01H
	DB	01H
	DB	01H
	DB	01H
	DB	01H
	DB	01H
	DB	01H
	DB	01H
	DB	01H
	DB	01H
	DB	01H
	DB	01H
	DB	01H
	DB	01H
	DB	01H
	DB	01H
	DB	01H
	DB	01H
	DB	01H
	DB	01H
	DB	01H
	DB	01H
	DB	01H
	DB	01H
	DB	01H
	DB	01H
	DB	01H
	DB	01H
	DB	01H
	DB	01H
	DB	01H
	DB	01H
	DB	01H
	DB	01H
	DB	01H
	DB	01H
	DB	01H
	DB	01H
	DB	01H
	DB	01H
	DB	01H
	DB	01H
	DB	01H
	DB	01H
	DB	01H
	DB	01H
	DB	01H
	DB	01H
	DB	01H
	DB	01H
	DB	01H
	DB	01H
	DB	01H
	DB	01H
	DB	01H
	DB	01H
	DB	01H
	DB	01H
	DB	01H
	DB	01H
	DB	01H
	DB	01H
	DB	01H
	DB	01H
	DB	01H
	DB	01H
	DB	01H
	DB	01H
	DB	01H
	DB	01H
	DB	01H
	DB	01H
	DB	01H
	DB	01H
	DB	01H
	DB	01H
	DB	01H
	DB	01H
	DB	01H
	DB	01H
	DB	01H
	DB	01H
	DB	01H
	DB	01H
	DB	01H
	DB	01H
	DB	01H
	DB	01H
	DB	01H
	DB	01H
	DB	01H
	DB	01H
	DB	01H
	DB	01H
	DB	01H
	DB	01H
	DB	01H
	DB	01H
	DB	01H
	DB	01H
	DB	01H
	DB	01H
	DB	01H
	DB	01H
	DB	01H
	DB	01H
	DB	01H
	DB	01H
	DB	01H
	DB	01H
	DB	01H
	DB	01H
	DB	01H
	DB	01H
	DB	01H
	DB	01H
	DB	01H
	DB	01H
	DB	01H
	DB	01H
	DB	01H
	DB	01H
	DB	01H
	DB	01H
	DB	01H
	DB	01H
	DB	01H
	DB	01H
	DB	01H
	DB	01H
	DB	01H
	DB	01H
	DB	01H
	DB	01H
	DB	01H
	DB	01H
	DB	01H
	DB	01H
	DB	01H
	DB	01H
	DB	01H
	DB	01H
	DB	01H
	DB	01H
	DB	01H
	DB	01H
	DB	01H
	DB	01H
	DB	01H
	DB	01H
	DB	01H
	DB	01H
	DB	01H
	DB	01H
	DB	01H
	DB	01H
	DB	01H
	DB	01H
	DB	01H
	DB	01H
	DB	01H
	DB	01H
	DB	01H
	DB	01H
	DB	01H
	DB	01H
	DB	01H
	DB	01H
	DB	01H
	DB	01H
	DB	01H
	DB	01H
	DB	01H
	DB	01H
	DB	01H
	DB	01H
	DB	01H
	DB	01H
	DB	01H
	DB	01H
	DB	01H
	DB	01H
	DB	01H
	DB	01H
	DB	01H
	DB	01H
	DB	01H
	DB	01H
	DB	01H
	DB	01H
	DB	01H
	DB	01H
	DB	01H
	DB	01H
	DB	01H
	DB	01H
	DB	01H
	DB	01H
	DB	01H
	DB	01H
	DB	01H
	DB	01H
	DB	01H
	DB	01H
	DB	01H
	DB	01H
	DB	01H
	DB	01H
	DB	01H
	DB	01H
	DB	01H
	DB	01H
	DB	01H
	DB	01H
	DB	01H
	DB	01H
	DB	01H
	DB	01H
	DB	01H
	DB	01H
	DB	01H
	DB	01H
	DB	01H
	DB	01H
	DB	01H
	DB	01H
	DB	01H
	DB	01H
	DB	01H
	DB	01H
	DB	01H
	DB	01H
	DB	01H
	DB	01H
	DB	01H
	DB	01H
	DB	01H
	DB	01H
	DB	01H
	DB	01H
	DB	01H
	DB	01H
	DB	01H
	DB	01H
	DB	01H
	DB	01H
	DB	01H
	DB	01H
	DB	01H
	DB	01H
	DB	01H
	DB	01H
	DB	01H
	DB	01H
	DB	01H
	DB	01H
	DB	01H
	DB	01H
	DB	01H
	DB	01H
	DB	01H
	DB	01H
	DB	01H
	DB	01H
	DB	01H
	DB	01H
	DB	01H
	DB	01H
	DB	01H
	DB	01H
	DB	01H
	DB	01H
	DB	01H
	DB	01H
	DB	01H
	DB	01H
	DB	01H
	DB	01H
	DB	01H
	DB	01H
	DB	01H
	DB	01H
	DB	01H
	DB	01H
	DB	01H
	DB	01H
	DB	01H
	DB	01H
	DB	01H
	DB	01H
	DB	01H
	DB	01H
	DB	01H
	DB	01H
	DB	01H
	DB	01H
	DB	01H
	DB	01H
	DB	01H
	DB	01H
	DB	01H
	DB	01H
	DB	01H
	DB	01H
	DB	01H
	DB	01H
	DB	01H
	DB	01H
	DB	01H
	DB	01H
	DB	01H
	DB	01H
	DB	01H
	DB	01H
	DB	01H
	DB	01H
	DB	01H
	DB	01H
	DB	01H
	DB	01H
	DB	01H
	DB	01H
	DB	01H
	DB	01H
	DB	01H
	DB	01H
	DB	01H
	DB	01H
	DB	01H
	DB	01H
	DB	01H
	DB	01H
	DB	01H
	DB	01H
	DB	01H
	DB	01H
	DB	01H
	DB	01H
	DB	01H
	DB	01H
	DB	01H
	DB	01H
	DB	01H
	DB	01H
	DB	01H
	DB	01H
	DB	01H
	DB	01H
	DB	01H
	DB	01H
	DB	01H
	DB	01H
	DB	01H
	DB	01H
	DB	01H
	DB	01H
	DB	01H
	DB	01H
	DB	01H
	DB	01H
	DB	01H
	DB	01H
	DB	01H
	DB	01H
	DB	01H
	DB	01H
	DB	01H
	DB	01H
	DB	01H
	DB	01H
	DB	01H
	DB	01H
	DB	01H
	DB	01H
	DB	01H
	DB	01H
	DB	01H
	DB	01H
	DB	01H
	DB	01H
	DB	01H
	DB	01H
	DB	01H
	DB	01H
	DB	01H
	DB	01H
	DB	01H
	DB	01H
	DB	01H
	DB	01H
	DB	01H
	DB	01H
	DB	01H
	DB	01H
	DB	01H
	DB	01H
	DB	01H
	DB	01H
	DB	01H
	DB	01H
	DB	01H
	DB	01H
	DB	01H
	DB	01H
	DB	01H
	DB	01H
	DB	01H
	DB	01H
	DB	01H
	DB	01H
	DB	01H
	DB	01H
	DB	01H
	DB	01H
	DB	01H
	DB	01H
	DB	01H
	DB	01H
	DB	01H
	DB	01H
	DB	01H
	DB	01H
	DB	01H
	DB	01H
	DB	01H
	DB	01H
	DB	01H
	DB	01H
	DB	01H
	DB	01H
	DB	01H
	DB	01H
	DB	01H
	DB	01H
	DB	01H
	DB	01H
	DB	01H
	DB	01H
	DB	01H
	DB	01H
	DB	01H
	DB	01H
	DB	01H
	DB	01H
	DB	01H
	DB	01H
	DB	01H
	DB	01H
	DB	01H
	DB	01H
	DB	01H
	DB	01H
	DB	01H
	DB	01H
	DB	01H
	DB	01H
	DB	01H
	DB	01H
	DB	01H
	DB	01H
	DB	01H
	DB	01H
	DB	01H
	DB	01H
	DB	01H
	DB	01H
	DB	01H
	DB	01H
	DB	01H
	DB	01H
	DB	01H
	DB	01H
	DB	01H
	DB	01H
	DB	01H
	DB	01H
	DB	01H
	DB	01H
	DB	01H
	DB	01H
	DB	01H
	DB	01H
	DB	01H
	DB	01H
	DB	01H
	DB	01H
	DB	01H
	DB	01H
	DB	01H
	DB	01H
	DB	01H
	DB	01H
	DB	01H
	DB	01H
	DB	01H
	DB	01H
	DB	01H
	DB	01H
	DB	01H
	DB	01H
	DB	01H
	DB	01H
	DB	01H
	DB	01H
	DB	01H
	DB	01H
	DB	01H
	DB	01H
	DB	01H
	DB	01H
	DB	01H
	DB	01H
	DB	01H
	DB	01H
	DB	01H
	DB	01H
	DB	01H
	DB	01H
	DB	01H
	DB	01H
	DB	01H
	DB	01H
	DB	01H
	DB	01H
	DB	01H
	DB	01H
	DB	01H
	DB	01H
	DB	01H
	DB	01H
	DB	01H
	DB	01H
	DB	01H
	DB	01H
	DB	01H
	DB	01H
	DB	01H
	DB	01H
	DB	01H
	DB	01H
	DB	01H
	DB	01H
	DB	01H
	DB	01H
	DB	01H
	DB	01H
	DB	01H
	DB	01H
	DB	01H
	DB	01H
	DB	01H
	DB	01H
	DB	01H
	DB	01H
	DB	01H
	DB	01H
	DB	01H
	DB	01H
	DB	01H
	DB	01H
	DB	01H
	DB	01H
	DB	01H
	DB	01H
	DB	01H
	DB	01H
	DB	01H
	DB	01H
	DB	01H
	DB	01H
	DB	01H
	DB	01H
	DB	01H
	DB	01H
	DB	01H
	DB	01H
	DB	01H
	DB	01H
	DB	01H
	DB	01H
	DB	01H
	DB	01H
	DB	01H
	DB	01H
	DB	01H
	DB	01H
	DB	01H
	DB	01H
	DB	01H
	DB	01H
	DB	01H
	DB	01H
	DB	01H
	DB	01H
	DB	01H
	DB	01H
	DB	01H
	DB	01H
	DB	01H
	DB	01H
	DB	01H
	DB	01H
	DB	01H
	DB	01H
	DB	01H
	DB	01H
	DB	01H
	DB	01H
	DB	01H
	DB	01H
	DB	01H
	DB	01H
	DB	01H
	DB	01H
	DB	01H
	DB	01H
	DB	01H
	DB	01H
	DB	01H
	DB	01H
	DB	01H
	DB	01H
	DB	01H
	DB	01H
	DB	01H
	DB	01H
	DB	01H
	DB	01H
	DB	01H
	DB	01H
	DB	01H
	DB	01H
	DB	01H
	DB	01H
	DB	01H
	DB	01H
	DB	01H
	DB	01H
	DB	01H
	DB	01H
	DB	01H
	DB	01H
	DB	01H
	DB	01H
	DB	01H
	DB	01H
	DB	01H
	DB	01H
	DB	01H
	DB	01H
	DB	01H
	DB	01H
	DB	01H
	DB	01H
	DB	01H
	DB	01H
	DB	01H
	DB	01H
	DB	01H
	DB	01H
	DB	01H
	DB	01H
	DB	01H
	DB	01H
	DB	01H
	DB	01H
	DB	01H
	DB	01H
	DB	01H
	DB	01H
	DB	01H
	DB	01H
	DB	01H
	DB	01H
	DB	01H
	DB	01H
	DB	01H
	DB	01H
	DB	01H
	DB	01H
	DB	01H
	DB	01H
	DB	01H
	DB	01H
	DB	01H
	DB	01H
	DB	01H
	DB	01H
	DB	01H
	DB	01H
	DB	01H
	DB	01H
	DB	01H
	DB	01H
	DB	01H
	DB	01H
	DB	01H
	DB	01H
	DB	01H
	DB	01H
	DB	01H
	DB	01H
	DB	01H
	DB	01H
	DB	01H
	DB	01H
	DB	01H
	DB	01H
	DB	01H
	DB	01H
	DB	01H
	DB	01H
	DB	01H
	DB	01H
	DB	01H
	DB	01H
	DB	01H
	DB	01H
	DB	01H
	DB	01H
	DB	01H
	DB	01H
	DB	01H
	DB	01H
	DB	01H
	DB	01H
	DB	01H
	DB	01H
	DB	01H
	DB	01H
	DB	01H
	DB	01H
	DB	01H
	DB	01H
	DB	01H
	DB	01H
	DB	01H
	DB	01H
	DB	01H
	DB	01H
	DB	01H
	DB	01H
	DB	01H
	DB	01H
	DB	01H
	DB	01H
	DB	01H
	DB	01H
	DB	01H
	DB	01H
	DB	01H
	DB	01H
	DB	01H
	DB	01H
	DB	01H
	DB	01H
	DB	01H
	DB	01H
	DB	01H
	DB	01H
	DB	01H
	DB	01H
	DB	01H
	DB	01H
	DB	01H
	DB	01H
	DB	01H
	DB	01H
	DB	01H
	DB	01H
	DB	01H
	DB	01H
	DB	01H
	DB	01H
	DB	01H
	DB	01H
	DB	01H
	DB	01H
	DB	01H
	DB	01H
	DB	01H
	DB	01H
	DB	01H
	DB	01H
	DB	01H
	DB	01H
	DB	01H
	DB	01H
	DB	01H
	DB	01H
	DB	01H
	DB	01H
	DB	01H
	DB	01H
	DB	01H
	DB	01H
	DB	01H
	DB	01H
	DB	01H
	DB	01H
	DB	01H
	DB	01H
	DB	01H
	DB	01H
	DB	01H
	DB	01H
	DB	01H
	DB	01H
	DB	01H
	DB	01H
	DB	01H
	DB	01H
	DB	01H
	DB	01H
	DB	01H
	DB	01H
	DB	01H
	DB	01H
	DB	01H
	DB	01H
	DB	01H
	DB	01H
	DB	01H
	DB	01H
	DB	01H
	DB	01H
	DB	01H
	DB	01H
	DB	01H
	DB	01H
	DB	01H
	DB	01H
	DB	01H
	DB	01H
	DB	01H
	DB	01H
	DB	01H
	DB	01H
	DB	01H
	DB	01H
	DB	01H
	DB	01H
	DB	01H
	DB	01H
	DB	01H
	DB	01H
	DB	01H
	DB	01H
	DB	01H
	DB	01H
	DB	01H
	DB	01H
	DB	01H
	DB	01H
	DB	01H
	DB	01H
	DB	01H
	DB	01H
	DB	01H
	DB	01H
	DB	01H
	DB	01H
	DB	01H
	DB	01H
	DB	01H
	DB	01H
	DB	01H
	DB	01H
	DB	01H
	DB	01H
	DB	01H
	DB	01H
	DB	01H
	DB	01H
	DB	01H
	DB	01H
	DB	01H
	DB	01H
	DB	01H
	DB	01H
	DB	01H
	DB	01H
	DB	01H
	DB	01H
	DB	01H
	DB	01H
	DB	01H
	DB	01H
	DB	01H
	DB	01H
	DB	01H
	DB	01H
	DB	01H
	DB	01H
	DB	01H
	DB	01H
	DB	01H
	DB	01H
	DB	01H
	DB	01H
	DB	01H
	DB	01H
	DB	01H
	DB	01H
	DB	01H
	DB	01H
	DB	01H
	DB	01H
	DB	01H
	DB	01H
	DB	01H
	DB	01H
	DB	01H
	DB	01H
	DB	01H
	DB	01H
	DB	01H
	DB	01H
	DB	01H
	DB	01H
	DB	01H
	DB	01H
	DB	01H
	DB	01H
	DB	01H
	DB	01H
	DB	01H
	DB	01H
	DB	01H
	DB	01H
	DB	01H
	DB	01H
	DB	01H
	DB	01H
	DB	01H
	DB	01H
	DB	01H
	DB	01H
	DB	01H
	DB	01H
	DB	01H
	DB	01H
	DB	01H
	DB	01H
	DB	01H
	DB	01H
	DB	01H
	DB	01H
	DB	01H
	DB	01H
	DB	01H
	DB	01H
	DB	01H
	DB	01H
	DB	01H
	DB	01H
	DB	01H
	DB	01H
	DB	01H
	DB	01H
	DB	01H
	DB	01H
	DB	01H
	DB	01H
	DB	01H
	DB	01H
	DB	01H
	DB	01H
	DB	01H
	DB	01H
	DB	01H
	DB	01H
	DB	01H
	DB	01H
	DB	01H
	DB	01H
	DB	01H
	DB	01H
	DB	01H
	DB	01H
	DB	01H
	DB	01H
	DB	01H
	DB	01H
	DB	01H
	DB	01H
	DB	01H
	DB	01H
	DB	01H
	DB	01H
	DB	01H
	DB	01H
	DB	01H
	DB	01H
	DB	01H
	DB	01H
	DB	01H
	DB	01H
	DB	01H
	DB	01H
	DB	01H
	DB	01H
	DB	01H
	DB	01H
	DB	01H
	DB	01H
	DB	01H
	DB	01H
	DB	01H
	DB	01H
	DB	01H
	DB	01H
	DB	01H
	DB	01H
	DB	01H
	DB	01H
	DB	01H
	DB	01H
	DB	01H
	DB	01H
	DB	01H
	DB	01H
	DB	01H
	DB	01H
	DB	01H
	DB	01H
	DB	01H
	DB	01H
	DB	01H
	DB	01H
	DB	01H
	DB	01H
	DB	01H
	DB	01H
	DB	01H
	DB	01H
	DB	01H
	DB	01H
	DB	01H
	DB	01H
	DB	01H
	DB	01H
	DB	01H
	DB	01H
	DB	01H
	DB	01H
	DB	01H
	DB	01H
	DB	01H
	DB	01H
	DB	01H
	DB	01H
	DB	01H
	DB	01H
	DB	01H
	DB	01H
	DB	01H
	DB	01H
	DB	01H
	DB	01H
	DB	01H
	DB	01H
	DB	01H
	DB	01H
	DB	01H
	DB	01H
	DB	01H
	DB	01H
	DB	01H
	DB	01H
	DB	01H
	DB	01H
	DB	01H
	DB	01H
	DB	01H
	DB	01H
	DB	01H
	DB	01H
	DB	01H
	DB	01H
	DB	01H
	DB	01H
	DB	01H
	DB	01H
	DB	01H
	DB	01H
	DB	01H
	DB	01H
	DB	01H
	DB	01H
	DB	01H
	DB	01H
	DB	01H
	DB	01H
	DB	01H
	DB	01H
	DB	01H
	DB	01H
	DB	01H
	DB	01H
	DB	01H
	DB	01H
	DB	01H
	DB	01H
	DB	01H
	DB	01H
	DB	01H
	DB	01H
	DB	01H
	DB	01H
	DB	01H
	DB	01H
	DB	01H
	DB	01H
	DB	01H
	DB	01H
	DB	01H
	DB	01H
	DB	01H
	DB	01H
	DB	01H
	DB	01H
	DB	01H
	DB	01H
	DB	01H
	DB	01H
	DB	01H
	DB	01H
	DB	01H
	DB	01H
	DB	01H
	DB	01H
	DB	01H
	DB	01H
	DB	01H
	DB	01H
	DB	01H
	DB	01H
	DB	01H
	DB	01H
	DB	01H
	DB	01H
	DB	01H
	DB	01H
	DB	01H
	DB	01H
	DB	01H
	DB	01H
	DB	01H
	DB	01H
	DB	01H
	DB	01H
	DB	01H
	DB	01H
	DB	01H
	DB	01H
	DB	01H
	DB	01H
	DB	01H
	DB	01H
	DB	01H
	DB	01H
	DB	01H
	DB	01H
	DB	01H
	DB	01H
	DB	01H
	DB	01H
	DB	01H
	DB	03H
	DB	04H
	DB	057H
	DB	057H
	DB	057H
	DB	057H
	DB	057H
	DB	057H
	DB	057H
	DB	057H
	DB	057H
	DB	057H
	DB	057H
	DB	057H
	DB	057H
	DB	057H
	DB	057H
	DB	057H
	DB	057H
	DB	057H
	DB	057H
	DB	057H
	DB	057H
	DB	057H
	DB	057H
	DB	057H
	DB	057H
	DB	057H
	DB	057H
	DB	057H
	DB	057H
	DB	057H
	DB	057H
	DB	057H
	DB	057H
	DB	057H
	DB	057H
	DB	057H
	DB	057H
	DB	057H
	DB	057H
	DB	057H
	DB	057H
	DB	057H
	DB	057H
	DB	057H
	DB	057H
	DB	057H
	DB	057H
	DB	057H
	DB	057H
	DB	057H
	DB	057H
	DB	057H
	DB	057H
	DB	057H
	DB	057H
	DB	057H
	DB	057H
	DB	057H
	DB	057H
	DB	057H
	DB	057H
	DB	057H
	DB	057H
	DB	057H
	DB	057H
	DB	057H
	DB	057H
	DB	057H
	DB	057H
	DB	057H
	DB	057H
	DB	057H
	DB	057H
	DB	057H
	DB	057H
	DB	057H
	DB	057H
	DB	057H
	DB	057H
	DB	057H
	DB	057H
	DB	057H
	DB	057H
	DB	057H
	DB	057H
	DB	057H
	DB	057H
	DB	057H
	DB	057H
	DB	057H
	DB	057H
	DB	057H
	DB	057H
	DB	057H
	DB	057H
	DB	057H
	DB	057H
	DB	057H
	DB	057H
	DB	057H
	DB	057H
	DB	057H
	DB	057H
	DB	057H
	DB	057H
	DB	057H
	DB	057H
	DB	057H
	DB	057H
	DB	057H
	DB	057H
	DB	057H
	DB	057H
	DB	057H
	DB	057H
	DB	057H
	DB	057H
	DB	057H
	DB	057H
	DB	057H
	DB	057H
	DB	057H
	DB	057H
	DB	057H
	DB	057H
	DB	057H
	DB	057H
	DB	057H
	DB	057H
	DB	057H
	DB	057H
	DB	057H
	DB	057H
	DB	057H
	DB	057H
	DB	057H
	DB	057H
	DB	057H
	DB	057H
	DB	057H
	DB	057H
	DB	057H
	DB	057H
	DB	057H
	DB	057H
	DB	057H
	DB	057H
	DB	057H
	DB	057H
	DB	057H
	DB	057H
	DB	057H
	DB	057H
	DB	057H
	DB	057H
	DB	057H
	DB	057H
	DB	057H
	DB	057H
	DB	057H
	DB	057H
	DB	057H
	DB	057H
	DB	057H
	DB	057H
	DB	057H
	DB	057H
	DB	057H
	DB	057H
	DB	057H
	DB	057H
	DB	057H
	DB	057H
	DB	057H
	DB	057H
	DB	057H
	DB	057H
	DB	057H
	DB	057H
	DB	057H
	DB	057H
	DB	057H
	DB	057H
	DB	057H
	DB	057H
	DB	057H
	DB	057H
	DB	057H
	DB	057H
	DB	057H
	DB	057H
	DB	057H
	DB	057H
	DB	057H
	DB	057H
	DB	057H
	DB	057H
	DB	057H
	DB	057H
	DB	057H
	DB	057H
	DB	057H
	DB	057H
	DB	057H
	DB	057H
	DB	057H
	DB	057H
	DB	057H
	DB	057H
	DB	057H
	DB	057H
	DB	057H
	DB	057H
	DB	057H
	DB	057H
	DB	057H
	DB	057H
	DB	057H
	DB	057H
	DB	057H
	DB	057H
	DB	057H
	DB	057H
	DB	057H
	DB	057H
	DB	057H
	DB	057H
	DB	057H
	DB	057H
	DB	057H
	DB	057H
	DB	057H
	DB	057H
	DB	057H
	DB	057H
	DB	057H
	DB	057H
	DB	057H
	DB	057H
	DB	057H
	DB	057H
	DB	057H
	DB	057H
	DB	057H
	DB	057H
	DB	057H
	DB	057H
	DB	057H
	DB	057H
	DB	057H
	DB	057H
	DB	057H
	DB	057H
	DB	057H
	DB	057H
	DB	057H
	DB	057H
	DB	057H
	DB	057H
	DB	057H
	DB	057H
	DB	057H
	DB	057H
	DB	057H
	DB	057H
	DB	057H
	DB	057H
	DB	057H
	DB	057H
	DB	057H
	DB	057H
	DB	057H
	DB	057H
	DB	057H
	DB	057H
	DB	057H
	DB	057H
	DB	057H
	DB	057H
	DB	057H
	DB	057H
	DB	057H
	DB	057H
	DB	057H
	DB	057H
	DB	057H
	DB	057H
	DB	057H
	DB	057H
	DB	057H
	DB	01H
	DB	01H
	DB	01H
	DB	01H
	DB	01H
	DB	01H
	DB	01H
	DB	01H
	DB	01H
	DB	01H
	DB	0c4H
	DB	05H
	DB	0dH
	DB	0bH
	DB	0bH
	DB	0bH
	DB	0bH
	DB	0bH
	DB	0bH
	DB	0bH
	DB	0bH
	DB	0bH
	DB	0bH
	DB	0bH
	DB	0bH
	DB	0bH
	DB	0bH
	DB	0bH
	DB	0bH
	DB	0bH
	DB	0bH
	DB	0bH
	DB	0bH
	DB	0bH
	DB	0bH
	DB	0bH
	DB	0bH
	DB	0bH
	DB	0bH
	DB	0bH
	DB	0bH
	DB	0bH
	DB	0bH
	DB	0bH
	DB	0bH
	DB	0bH
	DB	0bH
	DB	0bH
	DB	0bH
	DB	0bH
	DB	0bH
	DB	0bH
	DB	0bH
	DB	0bH
	DB	0bH
	DB	0bH
	DB	0bH
	DB	0bH
	DB	0bH
	DB	0bH
	DB	0bH
	DB	0bH
	DB	0bH
	DB	0bH
	DB	0bH
	DB	0bH
	DB	0bH
	DB	0bH
	DB	0bH
	DB	0bH
	DB	0bH
	DB	0bH
	DB	0bH
	DB	0bH
	DB	0bH
	DB	0bH
	DB	0bH
	DB	0bH
	DB	0bH
	DB	0bH
	DB	0bH
	DB	0bH
	DB	0bH
	DB	0bH
	DB	0bH
	DB	0bH
	DB	0bH
	DB	0bH
	DB	0bH
	DB	0bH
	DB	0bH
	DB	0bH
	DB	0bH
	DB	0bH
	DB	0bH
	DB	0bH
	DB	0bH
	DB	0bH
	DB	0bH
	DB	0bH
	DB	0bH
	DB	0bH
	DB	0bH
	DB	0bH
	DB	0bH
	DB	0bH
	DB	0bH
	DB	0bH
	DB	0bH
	DB	0bH
	DB	0bH
	DB	0bH
	DB	0bH
	DB	0bH
	DB	0bH
	DB	0bH
	DB	0bH
	DB	0bH
	DB	0bH
	DB	0bH
	DB	0bH
	DB	0bH
	DB	0bH
	DB	0bH
	DB	0bH
	DB	0bH
	DB	0bH
	DB	0bH
	DB	0bH
	DB	0bH
	DB	0bH
	DB	0bH
	DB	0bH
	DB	0bH
	DB	0bH
	DB	0bH
	DB	0bH
	DB	0bH
	DB	0bH
	DB	0bH
	DB	0bH
	DB	0bH
	DB	0bH
	DB	0bH
	DB	0bH
	DB	0bH
	DB	0bH
	DB	0bH
	DB	0bH
	DB	0bH
	DB	0bH
	DB	0bH
	DB	0bH
	DB	0bH
	DB	0bH
	DB	0bH
	DB	0bH
	DB	0bH
	DB	0bH
	DB	0bH
	DB	0bH
	DB	0bH
	DB	0bH
	DB	0bH
	DB	0bH
	DB	0bH
	DB	0bH
	DB	0bH
	DB	0bH
	DB	0bH
	DB	0bH
	DB	0bH
	DB	0bH
	DB	0bH
	DB	0bH
	DB	0bH
	DB	0bH
	DB	0bH
	DB	0bH
	DB	0bH
	DB	0bH
	DB	0bH
	DB	0bH
	DB	0bH
	DB	0bH
	DB	0bH
	DB	0bH
	DB	0bH
	DB	0bH
	DB	0bH
	DB	0bH
	DB	0bH
	DB	0bH
	DB	0bH
	DB	0bH
	DB	0bH
	DB	0bH
	DB	0bH
	DB	0bH
	DB	0bH
	DB	0bH
	DB	0bH
	DB	0bH
	DB	0bH
	DB	0bH
	DB	0bH
	DB	0bH
	DB	0bH
	DB	0bH
	DB	0bH
	DB	0bH
	DB	0bH
	DB	0bH
	DB	0bH
	DB	0bH
	DB	0bH
	DB	0bH
	DB	0bH
	DB	0bH
	DB	0bH
	DB	0bH
	DB	0bH
	DB	0bH
	DB	0bH
	DB	0bH
	DB	0bH
	DB	0bH
	DB	0bH
	DB	0bH
	DB	0bH
	DB	0bH
	DB	0bH
	DB	0bH
	DB	0bH
	DB	0bH
	DB	0bH
	DB	0bH
	DB	0bH
	DB	0bH
	DB	0bH
	DB	0bH
	DB	0bH
	DB	0bH
	DB	0bH
	DB	0bH
	DB	0bH
	DB	0bH
	DB	0bH
	DB	0bH
	DB	0bH
	DB	0bH
	DB	0bH
	DB	0bH
	DB	0bH
	DB	0bH
	DB	0bH
	DB	0bH
	DB	0bH
	DB	0bH
	DB	0bH
	DB	0bH
	DB	0bH
	DB	0bH
	DB	0bH
	DB	0bH
	DB	0bH
	DB	0bH
	DB	0bH
	DB	0bH
	DB	0bH
	DB	0bH
	DB	0bH
	DB	0bH
	DB	0bH
	DB	0bH
	DB	0bH
	DB	0bH
	DB	0bH
	DB	0bH
	DB	0bH
	DB	0bH
	DB	0bH
	DB	0bH
	DB	0bH
	DB	0bH
	DB	0bH
	DB	0bH
	DB	0bH
	DB	0bH
	DB	0bH
	DB	0bH
	DB	0bH
	DB	0bH
	DB	0bH
	DB	0bH
	DB	0bH
	DB	0bH
	DB	0bH
	DB	0bH
	DB	0bH
	DB	0bH
	DB	0bH
	DB	0bH
	DB	0bH
	DB	0bH
	DB	01H
	DB	01H
	DB	01H
	DB	01H
	DB	01H
	DB	01H
	DB	01H
	DB	01H
	DB	01H
	DB	057H
	DB	02cH
	DB	0bH
	DB	0c1H
	DB	049H
	DB	0ddH
	DB	01eH
	DB	01eH
	DB	01eH
	DB	01eH
	DB	01eH
	DB	01eH
	DB	01eH
	DB	01eH
	DB	01eH
	DB	01eH
	DB	01eH
	DB	01eH
	DB	01eH
	DB	01eH
	DB	01eH
	DB	01eH
	DB	01eH
	DB	01eH
	DB	01eH
	DB	01eH
	DB	01eH
	DB	01eH
	DB	01eH
	DB	01eH
	DB	01eH
	DB	01eH
	DB	01eH
	DB	01eH
	DB	01eH
	DB	01eH
	DB	01eH
	DB	01eH
	DB	01eH
	DB	01eH
	DB	01eH
	DB	01eH
	DB	01eH
	DB	01eH
	DB	01eH
	DB	01eH
	DB	01eH
	DB	01eH
	DB	01eH
	DB	01eH
	DB	01eH
	DB	01eH
	DB	01eH
	DB	01eH
	DB	01eH
	DB	01eH
	DB	01eH
	DB	01eH
	DB	01eH
	DB	01eH
	DB	01eH
	DB	01eH
	DB	01eH
	DB	01eH
	DB	01eH
	DB	01eH
	DB	01eH
	DB	01eH
	DB	01eH
	DB	01eH
	DB	01eH
	DB	01eH
	DB	01eH
	DB	01eH
	DB	01eH
	DB	01eH
	DB	01eH
	DB	01eH
	DB	01eH
	DB	01eH
	DB	01eH
	DB	01eH
	DB	01eH
	DB	01eH
	DB	01eH
	DB	01eH
	DB	01eH
	DB	01eH
	DB	01eH
	DB	01eH
	DB	01eH
	DB	01eH
	DB	01eH
	DB	01eH
	DB	01eH
	DB	01eH
	DB	01eH
	DB	01eH
	DB	01eH
	DB	01eH
	DB	01eH
	DB	01eH
	DB	01eH
	DB	01eH
	DB	01eH
	DB	01eH
	DB	01eH
	DB	01eH
	DB	01eH
	DB	01eH
	DB	01eH
	DB	01eH
	DB	01eH
	DB	01eH
	DB	01eH
	DB	01eH
	DB	01eH
	DB	01eH
	DB	01eH
	DB	01eH
	DB	01eH
	DB	01eH
	DB	01eH
	DB	01eH
	DB	01eH
	DB	01eH
	DB	01eH
	DB	01eH
	DB	01eH
	DB	01eH
	DB	01eH
	DB	01eH
	DB	01eH
	DB	01eH
	DB	01eH
	DB	01eH
	DB	01eH
	DB	01eH
	DB	01eH
	DB	01eH
	DB	01eH
	DB	01eH
	DB	01eH
	DB	01eH
	DB	01eH
	DB	01eH
	DB	01eH
	DB	01eH
	DB	01eH
	DB	01eH
	DB	01eH
	DB	01eH
	DB	01eH
	DB	01eH
	DB	01eH
	DB	01eH
	DB	01eH
	DB	01eH
	DB	01eH
	DB	01eH
	DB	01eH
	DB	01eH
	DB	01eH
	DB	01eH
	DB	01eH
	DB	01eH
	DB	01eH
	DB	01eH
	DB	01eH
	DB	01eH
	DB	01eH
	DB	01eH
	DB	01eH
	DB	01eH
	DB	01eH
	DB	01eH
	DB	01eH
	DB	01eH
	DB	01eH
	DB	01eH
	DB	01eH
	DB	01eH
	DB	01eH
	DB	01eH
	DB	01eH
	DB	01eH
	DB	01eH
	DB	01eH
	DB	01eH
	DB	01eH
	DB	01eH
	DB	01eH
	DB	01eH
	DB	01eH
	DB	01eH
	DB	01eH
	DB	01eH
	DB	01eH
	DB	01eH
	DB	01eH
	DB	01eH
	DB	01eH
	DB	01eH
	DB	01eH
	DB	01eH
	DB	01eH
	DB	01eH
	DB	01eH
	DB	01eH
	DB	01eH
	DB	01eH
	DB	01eH
	DB	01eH
	DB	01eH
	DB	01eH
	DB	01eH
	DB	01eH
	DB	01eH
	DB	01eH
	DB	01eH
	DB	01eH
	DB	01eH
	DB	01eH
	DB	01eH
	DB	01eH
	DB	01eH
	DB	01eH
	DB	01eH
	DB	01eH
	DB	01eH
	DB	01eH
	DB	01eH
	DB	01eH
	DB	01eH
	DB	01eH
	DB	01eH
	DB	01eH
	DB	01eH
	DB	01eH
	DB	01eH
	DB	01eH
	DB	01eH
	DB	01eH
	DB	01eH
	DB	01eH
	DB	01eH
	DB	01eH
	DB	01eH
	DB	01eH
	DB	01eH
	DB	01eH
	DB	01eH
	DB	01eH
	DB	01eH
	DB	01eH
	DB	01eH
	DB	01eH
	DB	01eH
	DB	01eH
	DB	01eH
	DB	01eH
	DB	01eH
	DB	01eH
	DB	01eH
	DB	01eH
	DB	01eH
	DB	01eH
	DB	01eH
	DB	01eH
	DB	01eH
	DB	01eH
	DB	01eH
	DB	01eH
	DB	01eH
	DB	01eH
	DB	01eH
	DB	01eH
	DB	01eH
	DB	01eH
	DB	01eH
	DB	01eH
	DB	01eH
	DB	01eH
	DB	01eH
	DB	01eH
	DB	01eH
	DB	01eH
	DB	01eH
	DB	01eH
	DB	01eH
	DB	01eH
	DB	01eH
	DB	01eH
	DB	01eH
	DB	01eH
	DB	01eH
	DB	01H
	DB	01H
	DB	01H
	DB	01H
	DB	01H
	DB	01H
	DB	01H
	DB	01H
	DB	0aH
	DB	0bH
	DB	0c1H
	DB	01eH
	DB	08H
	DB	08H
	DB	08H
	DB	08H
	DB	08H
	DB	08H
	DB	08H
	DB	08H
	DB	08H
	DB	08H
	DB	08H
	DB	08H
	DB	08H
	DB	08H
	DB	08H
	DB	08H
	DB	08H
	DB	08H
	DB	08H
	DB	08H
	DB	08H
	DB	08H
	DB	08H
	DB	08H
	DB	08H
	DB	08H
	DB	08H
	DB	08H
	DB	08H
	DB	08H
	DB	08H
	DB	08H
	DB	08H
	DB	08H
	DB	08H
	DB	08H
	DB	08H
	DB	08H
	DB	08H
	DB	08H
	DB	08H
	DB	08H
	DB	08H
	DB	08H
	DB	08H
	DB	08H
	DB	08H
	DB	08H
	DB	08H
	DB	08H
	DB	08H
	DB	08H
	DB	08H
	DB	08H
	DB	08H
	DB	08H
	DB	08H
	DB	08H
	DB	08H
	DB	08H
	DB	08H
	DB	08H
	DB	08H
	DB	08H
	DB	08H
	DB	08H
	DB	08H
	DB	08H
	DB	08H
	DB	08H
	DB	08H
	DB	08H
	DB	08H
	DB	08H
	DB	08H
	DB	08H
	DB	08H
	DB	08H
	DB	08H
	DB	08H
	DB	08H
	DB	08H
	DB	08H
	DB	08H
	DB	08H
	DB	08H
	DB	08H
	DB	08H
	DB	08H
	DB	08H
	DB	08H
	DB	08H
	DB	08H
	DB	08H
	DB	08H
	DB	08H
	DB	08H
	DB	08H
	DB	08H
	DB	08H
	DB	08H
	DB	08H
	DB	08H
	DB	08H
	DB	08H
	DB	08H
	DB	08H
	DB	08H
	DB	08H
	DB	08H
	DB	08H
	DB	08H
	DB	08H
	DB	08H
	DB	08H
	DB	08H
	DB	08H
	DB	08H
	DB	08H
	DB	08H
	DB	08H
	DB	08H
	DB	08H
	DB	08H
	DB	08H
	DB	08H
	DB	08H
	DB	08H
	DB	08H
	DB	08H
	DB	08H
	DB	08H
	DB	08H
	DB	08H
	DB	08H
	DB	08H
	DB	08H
	DB	08H
	DB	08H
	DB	08H
	DB	08H
	DB	08H
	DB	08H
	DB	08H
	DB	08H
	DB	08H
	DB	08H
	DB	08H
	DB	08H
	DB	08H
	DB	08H
	DB	08H
	DB	08H
	DB	08H
	DB	08H
	DB	08H
	DB	08H
	DB	08H
	DB	08H
	DB	08H
	DB	08H
	DB	08H
	DB	08H
	DB	08H
	DB	08H
	DB	08H
	DB	08H
	DB	08H
	DB	08H
	DB	08H
	DB	08H
	DB	08H
	DB	08H
	DB	08H
	DB	08H
	DB	08H
	DB	08H
	DB	08H
	DB	08H
	DB	08H
	DB	08H
	DB	08H
	DB	08H
	DB	08H
	DB	08H
	DB	08H
	DB	08H
	DB	08H
	DB	08H
	DB	08H
	DB	08H
	DB	08H
	DB	08H
	DB	08H
	DB	08H
	DB	08H
	DB	08H
	DB	08H
	DB	08H
	DB	08H
	DB	08H
	DB	08H
	DB	08H
	DB	08H
	DB	08H
	DB	08H
	DB	08H
	DB	08H
	DB	08H
	DB	08H
	DB	08H
	DB	08H
	DB	08H
	DB	08H
	DB	08H
	DB	08H
	DB	08H
	DB	08H
	DB	08H
	DB	08H
	DB	08H
	DB	08H
	DB	08H
	DB	08H
	DB	08H
	DB	08H
	DB	08H
	DB	08H
	DB	08H
	DB	08H
	DB	08H
	DB	08H
	DB	08H
	DB	08H
	DB	08H
	DB	08H
	DB	08H
	DB	08H
	DB	08H
	DB	08H
	DB	08H
	DB	08H
	DB	08H
	DB	08H
	DB	08H
	DB	08H
	DB	08H
	DB	08H
	DB	08H
	DB	08H
	DB	08H
	DB	08H
	DB	08H
	DB	08H
	DB	08H
	DB	08H
	DB	08H
	DB	08H
	DB	08H
	DB	08H
	DB	08H
	DB	08H
	DB	08H
	DB	08H
	DB	08H
	DB	08H
	DB	08H
	DB	08H
	DB	08H
	DB	08H
	DB	08H
	DB	08H
	DB	08H
	DB	08H
	DB	08H
	DB	08H
	DB	08H
	DB	08H
	DB	08H
	DB	08H
	DB	08H
	DB	08H
	DB	08H
	DB	08H
	DB	08H
	DB	08H
	DB	08H
	DB	08H
	DB	08H
	DB	08H
	DB	08H
	DB	08H
	DB	08H
	DB	01H
	DB	01H
	DB	01H
	DB	01H
	DB	01H
	DB	01H
	DB	01H
	DB	086H
	DB	0bH
	DB	099H
	DB	07H
	DB	08H
	DB	08H
	DB	08H
	DB	08H
	DB	08H
	DB	08H
	DB	08H
	DB	08H
	DB	08H
	DB	08H
	DB	08H
	DB	08H
	DB	08H
	DB	08H
	DB	08H
	DB	08H
	DB	08H
	DB	08H
	DB	08H
	DB	08H
	DB	08H
	DB	08H
	DB	08H
	DB	08H
	DB	08H
	DB	08H
	DB	08H
	DB	08H
	DB	08H
	DB	08H
	DB	08H
	DB	08H
	DB	08H
	DB	08H
	DB	08H
	DB	08H
	DB	08H
	DB	08H
	DB	08H
	DB	08H
	DB	08H
	DB	08H
	DB	08H
	DB	08H
	DB	08H
	DB	08H
	DB	08H
	DB	08H
	DB	08H
	DB	08H
	DB	08H
	DB	08H
	DB	08H
	DB	08H
	DB	08H
	DB	08H
	DB	08H
	DB	08H
	DB	08H
	DB	08H
	DB	08H
	DB	08H
	DB	08H
	DB	08H
	DB	08H
	DB	08H
	DB	08H
	DB	08H
	DB	08H
	DB	08H
	DB	08H
	DB	08H
	DB	08H
	DB	08H
	DB	08H
	DB	08H
	DB	08H
	DB	08H
	DB	08H
	DB	08H
	DB	08H
	DB	08H
	DB	08H
	DB	08H
	DB	08H
	DB	08H
	DB	08H
	DB	08H
	DB	08H
	DB	08H
	DB	08H
	DB	08H
	DB	08H
	DB	08H
	DB	08H
	DB	08H
	DB	08H
	DB	08H
	DB	08H
	DB	08H
	DB	08H
	DB	08H
	DB	08H
	DB	08H
	DB	08H
	DB	08H
	DB	08H
	DB	08H
	DB	08H
	DB	08H
	DB	08H
	DB	08H
	DB	08H
	DB	08H
	DB	08H
	DB	08H
	DB	08H
	DB	08H
	DB	08H
	DB	08H
	DB	08H
	DB	08H
	DB	08H
	DB	08H
	DB	08H
	DB	08H
	DB	08H
	DB	08H
	DB	08H
	DB	08H
	DB	08H
	DB	08H
	DB	08H
	DB	08H
	DB	08H
	DB	08H
	DB	08H
	DB	08H
	DB	08H
	DB	08H
	DB	08H
	DB	08H
	DB	08H
	DB	08H
	DB	08H
	DB	08H
	DB	08H
	DB	08H
	DB	08H
	DB	08H
	DB	08H
	DB	08H
	DB	08H
	DB	08H
	DB	08H
	DB	08H
	DB	08H
	DB	08H
	DB	08H
	DB	08H
	DB	08H
	DB	08H
	DB	08H
	DB	08H
	DB	08H
	DB	08H
	DB	08H
	DB	08H
	DB	08H
	DB	08H
	DB	08H
	DB	08H
	DB	08H
	DB	08H
	DB	08H
	DB	08H
	DB	08H
	DB	08H
	DB	08H
	DB	08H
	DB	08H
	DB	08H
	DB	08H
	DB	08H
	DB	08H
	DB	08H
	DB	08H
	DB	08H
	DB	08H
	DB	08H
	DB	08H
	DB	08H
	DB	08H
	DB	08H
	DB	08H
	DB	08H
	DB	08H
	DB	08H
	DB	08H
	DB	08H
	DB	08H
	DB	08H
	DB	08H
	DB	08H
	DB	08H
	DB	08H
	DB	08H
	DB	08H
	DB	08H
	DB	08H
	DB	08H
	DB	08H
	DB	08H
	DB	08H
	DB	08H
	DB	08H
	DB	08H
	DB	08H
	DB	08H
	DB	08H
	DB	08H
	DB	08H
	DB	08H
	DB	08H
	DB	08H
	DB	08H
	DB	08H
	DB	08H
	DB	08H
	DB	08H
	DB	08H
	DB	08H
	DB	08H
	DB	08H
	DB	08H
	DB	08H
	DB	08H
	DB	08H
	DB	08H
	DB	08H
	DB	08H
	DB	08H
	DB	08H
	DB	08H
	DB	08H
	DB	08H
	DB	08H
	DB	08H
	DB	08H
	DB	08H
	DB	08H
	DB	08H
	DB	08H
	DB	08H
	DB	08H
	DB	08H
	DB	08H
	DB	08H
	DB	08H
	DB	08H
	DB	08H
	DB	08H
	DB	08H
	DB	08H
	DB	08H
	DB	08H
	DB	08H
	DB	08H
	DB	08H
	DB	08H
	DB	08H
	DB	08H
	DB	08H
	DB	08H
	DB	08H
	DB	08H
	DB	08H
	DB	08H
	DB	08H
	DB	08H
	DB	08H
	DB	08H
	DB	08H
	DB	08H
	DB	08H
	DB	08H
	DB	08H
	DB	08H
	DB	08H
	DB	08H
	DB	08H
	DB	08H
	DB	08H
	DB	08H
	DB	01H
	DB	01H
	DB	01H
	DB	01H
	DB	01H
	DB	01H
	DB	04H
	DB	0bH
	DB	034H
	DB	08H
	DB	08H
	DB	08H
	DB	08H
	DB	08H
	DB	08H
	DB	08H
	DB	08H
	DB	08H
	DB	08H
	DB	08H
	DB	08H
	DB	08H
	DB	08H
	DB	08H
	DB	08H
	DB	08H
	DB	08H
	DB	08H
	DB	08H
	DB	08H
	DB	08H
	DB	08H
	DB	08H
	DB	08H
	DB	08H
	DB	08H
	DB	08H
	DB	08H
	DB	08H
	DB	08H
	DB	08H
	DB	08H
	DB	08H
	DB	08H
	DB	08H
	DB	08H
	DB	08H
	DB	08H
	DB	08H
	DB	08H
	DB	08H
	DB	08H
	DB	08H
	DB	08H
	DB	08H
	DB	08H
	DB	08H
	DB	08H
	DB	08H
	DB	08H
	DB	08H
	DB	08H
	DB	08H
	DB	08H
	DB	08H
	DB	08H
	DB	08H
	DB	08H
	DB	08H
	DB	08H
	DB	08H
	DB	08H
	DB	08H
	DB	08H
	DB	08H
	DB	08H
	DB	08H
	DB	08H
	DB	08H
	DB	08H
	DB	08H
	DB	08H
	DB	08H
	DB	08H
	DB	08H
	DB	08H
	DB	08H
	DB	08H
	DB	08H
	DB	08H
	DB	08H
	DB	08H
	DB	08H
	DB	08H
	DB	08H
	DB	08H
	DB	08H
	DB	08H
	DB	08H
	DB	08H
	DB	08H
	DB	08H
	DB	08H
	DB	08H
	DB	08H
	DB	08H
	DB	08H
	DB	08H
	DB	08H
	DB	08H
	DB	08H
	DB	08H
	DB	08H
	DB	08H
	DB	08H
	DB	08H
	DB	08H
	DB	08H
	DB	08H
	DB	08H
	DB	08H
	DB	08H
	DB	08H
	DB	08H
	DB	08H
	DB	08H
	DB	08H
	DB	08H
	DB	08H
	DB	08H
	DB	08H
	DB	08H
	DB	08H
	DB	08H
	DB	08H
	DB	08H
	DB	08H
	DB	08H
	DB	08H
	DB	08H
	DB	08H
	DB	08H
	DB	08H
	DB	08H
	DB	08H
	DB	08H
	DB	08H
	DB	08H
	DB	08H
	DB	08H
	DB	08H
	DB	08H
	DB	08H
	DB	08H
	DB	08H
	DB	08H
	DB	08H
	DB	08H
	DB	08H
	DB	08H
	DB	08H
	DB	08H
	DB	08H
	DB	08H
	DB	08H
	DB	08H
	DB	08H
	DB	08H
	DB	08H
	DB	08H
	DB	08H
	DB	08H
	DB	08H
	DB	08H
	DB	08H
	DB	08H
	DB	08H
	DB	08H
	DB	08H
	DB	08H
	DB	08H
	DB	08H
	DB	08H
	DB	08H
	DB	08H
	DB	08H
	DB	08H
	DB	08H
	DB	08H
	DB	08H
	DB	08H
	DB	08H
	DB	08H
	DB	08H
	DB	08H
	DB	08H
	DB	08H
	DB	08H
	DB	08H
	DB	08H
	DB	08H
	DB	08H
	DB	08H
	DB	08H
	DB	08H
	DB	08H
	DB	08H
	DB	08H
	DB	08H
	DB	08H
	DB	08H
	DB	08H
	DB	08H
	DB	08H
	DB	08H
	DB	08H
	DB	08H
	DB	08H
	DB	08H
	DB	08H
	DB	08H
	DB	08H
	DB	08H
	DB	08H
	DB	08H
	DB	08H
	DB	08H
	DB	08H
	DB	08H
	DB	08H
	DB	08H
	DB	08H
	DB	08H
	DB	08H
	DB	08H
	DB	08H
	DB	08H
	DB	08H
	DB	08H
	DB	08H
	DB	08H
	DB	08H
	DB	08H
	DB	08H
	DB	08H
	DB	08H
	DB	08H
	DB	08H
	DB	08H
	DB	08H
	DB	08H
	DB	08H
	DB	08H
	DB	08H
	DB	08H
	DB	08H
	DB	08H
	DB	08H
	DB	08H
	DB	08H
	DB	08H
	DB	08H
	DB	08H
	DB	08H
	DB	08H
	DB	08H
	DB	08H
	DB	08H
	DB	08H
	DB	08H
	DB	08H
	DB	08H
	DB	08H
	DB	08H
	DB	08H
	DB	08H
	DB	08H
	DB	08H
	DB	08H
	DB	08H
	DB	08H
	DB	08H
	DB	08H
	DB	08H
	DB	08H
	DB	08H
	DB	08H
	DB	08H
	DB	08H
	DB	08H
	DB	08H
	DB	08H
	DB	08H
	DB	08H
	DB	08H
	DB	08H
	DB	08H
	DB	08H
	DB	08H
	DB	08H
	DB	08H
	DB	08H
	DB	08H
	DB	08H
	DB	08H
	DB	01H
	DB	01H
	DB	01H
	DB	01H
	DB	01H
	DB	01H
	DB	0dH
	DB	0c1H
	DB	06cH
	DB	08H
	DB	08H
	DB	08H
	DB	08H
	DB	08H
	DB	08H
	DB	08H
	DB	08H
	DB	08H
	DB	08H
	DB	08H
	DB	08H
	DB	08H
	DB	08H
	DB	08H
	DB	08H
	DB	08H
	DB	08H
	DB	08H
	DB	08H
	DB	08H
	DB	08H
	DB	08H
	DB	08H
	DB	08H
	DB	08H
	DB	08H
	DB	08H
	DB	08H
	DB	08H
	DB	08H
	DB	08H
	DB	08H
	DB	08H
	DB	08H
	DB	08H
	DB	08H
	DB	08H
	DB	08H
	DB	08H
	DB	08H
	DB	08H
	DB	08H
	DB	08H
	DB	08H
	DB	08H
	DB	08H
	DB	08H
	DB	08H
	DB	08H
	DB	08H
	DB	08H
	DB	08H
	DB	08H
	DB	08H
	DB	08H
	DB	08H
	DB	08H
	DB	08H
	DB	08H
	DB	08H
	DB	08H
	DB	08H
	DB	08H
	DB	08H
	DB	08H
	DB	08H
	DB	08H
	DB	08H
	DB	08H
	DB	08H
	DB	08H
	DB	08H
	DB	08H
	DB	08H
	DB	08H
	DB	08H
	DB	08H
	DB	08H
	DB	08H
	DB	08H
	DB	08H
	DB	08H
	DB	08H
	DB	08H
	DB	08H
	DB	08H
	DB	08H
	DB	08H
	DB	08H
	DB	08H
	DB	08H
	DB	08H
	DB	08H
	DB	08H
	DB	08H
	DB	08H
	DB	08H
	DB	08H
	DB	08H
	DB	08H
	DB	08H
	DB	08H
	DB	08H
	DB	08H
	DB	08H
	DB	08H
	DB	08H
	DB	08H
	DB	08H
	DB	08H
	DB	08H
	DB	08H
	DB	08H
	DB	08H
	DB	08H
	DB	08H
	DB	08H
	DB	08H
	DB	08H
	DB	08H
	DB	08H
	DB	08H
	DB	08H
	DB	08H
	DB	08H
	DB	08H
	DB	08H
	DB	08H
	DB	08H
	DB	08H
	DB	08H
	DB	08H
	DB	08H
	DB	08H
	DB	08H
	DB	08H
	DB	08H
	DB	08H
	DB	08H
	DB	08H
	DB	08H
	DB	08H
	DB	08H
	DB	08H
	DB	08H
	DB	08H
	DB	08H
	DB	08H
	DB	08H
	DB	08H
	DB	08H
	DB	08H
	DB	08H
	DB	08H
	DB	08H
	DB	08H
	DB	08H
	DB	08H
	DB	08H
	DB	08H
	DB	08H
	DB	08H
	DB	08H
	DB	08H
	DB	08H
	DB	08H
	DB	08H
	DB	08H
	DB	08H
	DB	08H
	DB	08H
	DB	08H
	DB	08H
	DB	08H
	DB	08H
	DB	08H
	DB	08H
	DB	08H
	DB	08H
	DB	08H
	DB	08H
	DB	08H
	DB	08H
	DB	08H
	DB	08H
	DB	08H
	DB	08H
	DB	08H
	DB	08H
	DB	08H
	DB	08H
	DB	08H
	DB	08H
	DB	08H
	DB	08H
	DB	08H
	DB	08H
	DB	08H
	DB	08H
	DB	08H
	DB	08H
	DB	08H
	DB	08H
	DB	08H
	DB	08H
	DB	08H
	DB	08H
	DB	08H
	DB	08H
	DB	08H
	DB	08H
	DB	08H
	DB	08H
	DB	08H
	DB	08H
	DB	08H
	DB	08H
	DB	08H
	DB	08H
	DB	08H
	DB	08H
	DB	08H
	DB	08H
	DB	08H
	DB	08H
	DB	08H
	DB	08H
	DB	08H
	DB	08H
	DB	08H
	DB	08H
	DB	08H
	DB	08H
	DB	08H
	DB	08H
	DB	08H
	DB	08H
	DB	08H
	DB	08H
	DB	08H
	DB	08H
	DB	08H
	DB	08H
	DB	08H
	DB	08H
	DB	08H
	DB	08H
	DB	08H
	DB	08H
	DB	08H
	DB	08H
	DB	08H
	DB	08H
	DB	08H
	DB	08H
	DB	08H
	DB	08H
	DB	08H
	DB	08H
	DB	08H
	DB	08H
	DB	08H
	DB	08H
	DB	08H
	DB	08H
	DB	08H
	DB	08H
	DB	08H
	DB	08H
	DB	08H
	DB	08H
	DB	08H
	DB	08H
	DB	08H
	DB	08H
	DB	08H
	DB	08H
	DB	08H
	DB	08H
	DB	08H
	DB	08H
	DB	08H
	DB	08H
	DB	08H
	DB	08H
	DB	08H
	DB	08H
	DB	08H
	DB	08H
	DB	08H
	DB	08H
	DB	08H
	DB	08H
	DB	08H
	DB	08H
	DB	01H
	DB	01H
	DB	01H
	DB	01H
	DB	01H
	DB	04H
	DB	0bH
	DB	0ddH
	DB	08H
	DB	08H
	DB	08H
	DB	08H
	DB	08H
	DB	08H
	DB	08H
	DB	08H
	DB	08H
	DB	08H
	DB	08H
	DB	08H
	DB	08H
	DB	08H
	DB	08H
	DB	08H
	DB	08H
	DB	08H
	DB	08H
	DB	08H
	DB	08H
	DB	08H
	DB	08H
	DB	08H
	DB	08H
	DB	08H
	DB	08H
	DB	08H
	DB	08H
	DB	08H
	DB	08H
	DB	08H
	DB	08H
	DB	08H
	DB	08H
	DB	08H
	DB	08H
	DB	08H
	DB	08H
	DB	08H
	DB	08H
	DB	08H
	DB	08H
	DB	08H
	DB	08H
	DB	08H
	DB	08H
	DB	08H
	DB	08H
	DB	08H
	DB	08H
	DB	08H
	DB	08H
	DB	08H
	DB	08H
	DB	08H
	DB	08H
	DB	08H
	DB	08H
	DB	08H
	DB	08H
	DB	08H
	DB	08H
	DB	08H
	DB	08H
	DB	08H
	DB	08H
	DB	08H
	DB	08H
	DB	08H
	DB	08H
	DB	08H
	DB	08H
	DB	08H
	DB	08H
	DB	08H
	DB	08H
	DB	08H
	DB	08H
	DB	08H
	DB	08H
	DB	08H
	DB	08H
	DB	08H
	DB	08H
	DB	08H
	DB	08H
	DB	08H
	DB	08H
	DB	08H
	DB	08H
	DB	08H
	DB	08H
	DB	08H
	DB	08H
	DB	08H
	DB	08H
	DB	08H
	DB	08H
	DB	08H
	DB	08H
	DB	08H
	DB	08H
	DB	08H
	DB	08H
	DB	08H
	DB	08H
	DB	08H
	DB	08H
	DB	08H
	DB	08H
	DB	08H
	DB	08H
	DB	08H
	DB	08H
	DB	08H
	DB	08H
	DB	08H
	DB	08H
	DB	08H
	DB	08H
	DB	08H
	DB	08H
	DB	08H
	DB	08H
	DB	08H
	DB	08H
	DB	08H
	DB	08H
	DB	08H
	DB	08H
	DB	08H
	DB	08H
	DB	08H
	DB	08H
	DB	08H
	DB	08H
	DB	08H
	DB	08H
	DB	08H
	DB	08H
	DB	08H
	DB	08H
	DB	08H
	DB	08H
	DB	08H
	DB	08H
	DB	08H
	DB	08H
	DB	08H
	DB	08H
	DB	08H
	DB	08H
	DB	08H
	DB	08H
	DB	08H
	DB	08H
	DB	08H
	DB	08H
	DB	08H
	DB	08H
	DB	08H
	DB	08H
	DB	08H
	DB	08H
	DB	08H
	DB	08H
	DB	08H
	DB	08H
	DB	08H
	DB	08H
	DB	08H
	DB	08H
	DB	08H
	DB	08H
	DB	08H
	DB	08H
	DB	08H
	DB	08H
	DB	08H
	DB	08H
	DB	08H
	DB	08H
	DB	08H
	DB	08H
	DB	08H
	DB	08H
	DB	08H
	DB	08H
	DB	08H
	DB	08H
	DB	08H
	DB	08H
	DB	08H
	DB	08H
	DB	08H
	DB	08H
	DB	08H
	DB	08H
	DB	08H
	DB	08H
	DB	08H
	DB	08H
	DB	08H
	DB	08H
	DB	08H
	DB	08H
	DB	08H
	DB	08H
	DB	08H
	DB	08H
	DB	08H
	DB	08H
	DB	08H
	DB	08H
	DB	08H
	DB	08H
	DB	08H
	DB	08H
	DB	08H
	DB	08H
	DB	08H
	DB	07H
	DB	0e8H
	DB	06eH
	DB	04fH
	DB	04dH
	DB	04fH
	DB	06eH
	DB	0e8H
	DB	02H
	DB	07H
	DB	08H
	DB	08H
	DB	08H
	DB	08H
	DB	08H
	DB	08H
	DB	08H
	DB	08H
	DB	08H
	DB	08H
	DB	08H
	DB	08H
	DB	08H
	DB	08H
	DB	08H
	DB	08H
	DB	08H
	DB	08H
	DB	08H
	DB	08H
	DB	08H
	DB	08H
	DB	08H
	DB	08H
	DB	08H
	DB	08H
	DB	08H
	DB	08H
	DB	08H
	DB	08H
	DB	08H
	DB	08H
	DB	08H
	DB	08H
	DB	08H
	DB	08H
	DB	08H
	DB	08H
	DB	08H
	DB	08H
	DB	08H
	DB	08H
	DB	08H
	DB	08H
	DB	08H
	DB	08H
	DB	08H
	DB	08H
	DB	08H
	DB	08H
	DB	08H
	DB	08H
	DB	08H
	DB	08H
	DB	08H
	DB	08H
	DB	08H
	DB	08H
	DB	08H
	DB	08H
	DB	08H
	DB	08H
	DB	08H
	DB	08H
	DB	08H
	DB	01H
	DB	01H
	DB	01H
	DB	01H
	DB	01H
	DB	0aH
	DB	0aeH
	DB	06cH
	DB	08H
	DB	08H
	DB	08H
	DB	08H
	DB	08H
	DB	08H
	DB	08H
	DB	08H
	DB	08H
	DB	08H
	DB	08H
	DB	08H
	DB	08H
	DB	08H
	DB	08H
	DB	08H
	DB	08H
	DB	08H
	DB	08H
	DB	08H
	DB	08H
	DB	08H
	DB	08H
	DB	08H
	DB	08H
	DB	08H
	DB	08H
	DB	08H
	DB	08H
	DB	08H
	DB	08H
	DB	08H
	DB	08H
	DB	08H
	DB	08H
	DB	08H
	DB	08H
	DB	08H
	DB	08H
	DB	08H
	DB	08H
	DB	08H
	DB	08H
	DB	08H
	DB	08H
	DB	08H
	DB	08H
	DB	08H
	DB	08H
	DB	08H
	DB	08H
	DB	08H
	DB	08H
	DB	08H
	DB	08H
	DB	08H
	DB	08H
	DB	08H
	DB	08H
	DB	08H
	DB	08H
	DB	08H
	DB	08H
	DB	08H
	DB	08H
	DB	08H
	DB	08H
	DB	08H
	DB	08H
	DB	08H
	DB	08H
	DB	08H
	DB	08H
	DB	08H
	DB	08H
	DB	08H
	DB	08H
	DB	08H
	DB	08H
	DB	08H
	DB	08H
	DB	08H
	DB	08H
	DB	08H
	DB	08H
	DB	08H
	DB	08H
	DB	08H
	DB	08H
	DB	08H
	DB	08H
	DB	08H
	DB	08H
	DB	08H
	DB	08H
	DB	08H
	DB	08H
	DB	08H
	DB	08H
	DB	08H
	DB	08H
	DB	08H
	DB	08H
	DB	08H
	DB	08H
	DB	08H
	DB	08H
	DB	08H
	DB	08H
	DB	08H
	DB	08H
	DB	08H
	DB	08H
	DB	08H
	DB	08H
	DB	08H
	DB	08H
	DB	08H
	DB	08H
	DB	08H
	DB	08H
	DB	08H
	DB	08H
	DB	08H
	DB	08H
	DB	08H
	DB	08H
	DB	08H
	DB	08H
	DB	08H
	DB	08H
	DB	08H
	DB	08H
	DB	08H
	DB	08H
	DB	08H
	DB	08H
	DB	08H
	DB	08H
	DB	08H
	DB	08H
	DB	08H
	DB	08H
	DB	08H
	DB	08H
	DB	08H
	DB	08H
	DB	08H
	DB	08H
	DB	08H
	DB	08H
	DB	08H
	DB	08H
	DB	08H
	DB	08H
	DB	08H
	DB	08H
	DB	08H
	DB	08H
	DB	08H
	DB	08H
	DB	08H
	DB	08H
	DB	08H
	DB	08H
	DB	08H
	DB	08H
	DB	08H
	DB	08H
	DB	08H
	DB	08H
	DB	08H
	DB	08H
	DB	08H
	DB	08H
	DB	08H
	DB	08H
	DB	08H
	DB	08H
	DB	08H
	DB	08H
	DB	08H
	DB	08H
	DB	08H
	DB	08H
	DB	08H
	DB	08H
	DB	08H
	DB	08H
	DB	08H
	DB	08H
	DB	08H
	DB	08H
	DB	08H
	DB	08H
	DB	08H
	DB	08H
	DB	08H
	DB	08H
	DB	08H
	DB	08H
	DB	08H
	DB	08H
	DB	08H
	DB	08H
	DB	08H
	DB	08H
	DB	08H
	DB	08H
	DB	08H
	DB	08H
	DB	08H
	DB	08H
	DB	08H
	DB	08H
	DB	08H
	DB	08H
	DB	08H
	DB	08H
	DB	0e8H
	DB	04fH
	DB	085H
	DB	03fH
	DB	0bdH
	DB	0bdH
	DB	0d8H
	DB	0f7H
	DB	0f7H
	DB	0f7H
	DB	0d8H
	DB	07eH
	DB	085H
	DB	04dH
	DB	0e8H
	DB	08H
	DB	08H
	DB	08H
	DB	08H
	DB	08H
	DB	08H
	DB	08H
	DB	08H
	DB	08H
	DB	08H
	DB	08H
	DB	08H
	DB	08H
	DB	08H
	DB	08H
	DB	08H
	DB	08H
	DB	08H
	DB	08H
	DB	08H
	DB	08H
	DB	08H
	DB	08H
	DB	08H
	DB	08H
	DB	08H
	DB	08H
	DB	08H
	DB	08H
	DB	08H
	DB	08H
	DB	08H
	DB	08H
	DB	08H
	DB	08H
	DB	08H
	DB	08H
	DB	08H
	DB	08H
	DB	08H
	DB	08H
	DB	08H
	DB	08H
	DB	08H
	DB	08H
	DB	08H
	DB	08H
	DB	08H
	DB	08H
	DB	08H
	DB	08H
	DB	08H
	DB	08H
	DB	08H
	DB	08H
	DB	08H
	DB	08H
	DB	08H
	DB	08H
	DB	08H
	DB	08H
	DB	08H
	DB	08H
	DB	01H
	DB	01H
	DB	01H
	DB	01H
	DB	01H
	DB	0dH
	DB	0ecH
	DB	08H
	DB	08H
	DB	08H
	DB	08H
	DB	08H
	DB	08H
	DB	08H
	DB	08H
	DB	08H
	DB	08H
	DB	08H
	DB	08H
	DB	08H
	DB	08H
	DB	08H
	DB	08H
	DB	08H
	DB	08H
	DB	08H
	DB	08H
	DB	08H
	DB	08H
	DB	08H
	DB	08H
	DB	08H
	DB	08H
	DB	08H
	DB	08H
	DB	08H
	DB	08H
	DB	08H
	DB	08H
	DB	08H
	DB	08H
	DB	08H
	DB	08H
	DB	08H
	DB	08H
	DB	08H
	DB	08H
	DB	08H
	DB	08H
	DB	08H
	DB	08H
	DB	08H
	DB	08H
	DB	08H
	DB	08H
	DB	08H
	DB	08H
	DB	08H
	DB	08H
	DB	08H
	DB	08H
	DB	08H
	DB	08H
	DB	08H
	DB	08H
	DB	08H
	DB	08H
	DB	08H
	DB	08H
	DB	08H
	DB	08H
	DB	08H
	DB	08H
	DB	08H
	DB	08H
	DB	08H
	DB	08H
	DB	08H
	DB	08H
	DB	08H
	DB	08H
	DB	08H
	DB	08H
	DB	08H
	DB	08H
	DB	08H
	DB	08H
	DB	08H
	DB	08H
	DB	08H
	DB	08H
	DB	08H
	DB	08H
	DB	08H
	DB	08H
	DB	08H
	DB	08H
	DB	08H
	DB	08H
	DB	08H
	DB	08H
	DB	08H
	DB	08H
	DB	08H
	DB	08H
	DB	08H
	DB	08H
	DB	08H
	DB	08H
	DB	08H
	DB	08H
	DB	08H
	DB	08H
	DB	08H
	DB	08H
	DB	08H
	DB	08H
	DB	08H
	DB	08H
	DB	08H
	DB	08H
	DB	08H
	DB	08H
	DB	08H
	DB	08H
	DB	08H
	DB	08H
	DB	08H
	DB	08H
	DB	08H
	DB	08H
	DB	08H
	DB	08H
	DB	08H
	DB	08H
	DB	08H
	DB	08H
	DB	08H
	DB	08H
	DB	08H
	DB	08H
	DB	08H
	DB	08H
	DB	08H
	DB	08H
	DB	08H
	DB	08H
	DB	08H
	DB	08H
	DB	08H
	DB	08H
	DB	08H
	DB	08H
	DB	08H
	DB	08H
	DB	08H
	DB	08H
	DB	08H
	DB	08H
	DB	08H
	DB	08H
	DB	08H
	DB	08H
	DB	08H
	DB	08H
	DB	08H
	DB	08H
	DB	08H
	DB	08H
	DB	08H
	DB	08H
	DB	08H
	DB	08H
	DB	08H
	DB	08H
	DB	08H
	DB	08H
	DB	08H
	DB	08H
	DB	08H
	DB	08H
	DB	08H
	DB	08H
	DB	08H
	DB	08H
	DB	08H
	DB	08H
	DB	08H
	DB	08H
	DB	08H
	DB	08H
	DB	08H
	DB	08H
	DB	08H
	DB	08H
	DB	08H
	DB	08H
	DB	08H
	DB	08H
	DB	08H
	DB	08H
	DB	08H
	DB	08H
	DB	08H
	DB	08H
	DB	08H
	DB	08H
	DB	08H
	DB	08H
	DB	08H
	DB	06cH
	DB	08bH
	DB	07H
	DB	08H
	DB	08H
	DB	08H
	DB	08H
	DB	08H
	DB	08H
	DB	08H
	DB	08H
	DB	08H
	DB	08H
	DB	08H
	DB	07H
	DB	06eH
	DB	0d3H
	DB	08eH
	DB	061H
	DB	061H
	DB	01dH
	DB	018H
	DB	018H
	DB	01dH
	DB	01dH
	DB	01dH
	DB	01dH
	DB	01dH
	DB	01dH
	DB	01dH
	DB	0b9H
	DB	0cfH
	DB	0d3H
	DB	06eH
	DB	07H
	DB	08H
	DB	08H
	DB	08H
	DB	08H
	DB	08H
	DB	08H
	DB	08H
	DB	08H
	DB	08H
	DB	08H
	DB	08H
	DB	08H
	DB	08H
	DB	08H
	DB	08H
	DB	08H
	DB	08H
	DB	08H
	DB	08H
	DB	08H
	DB	08H
	DB	08H
	DB	08H
	DB	08H
	DB	08H
	DB	08H
	DB	08H
	DB	08H
	DB	08H
	DB	08H
	DB	08H
	DB	08H
	DB	08H
	DB	08H
	DB	08H
	DB	08H
	DB	08H
	DB	08H
	DB	08H
	DB	08H
	DB	08H
	DB	08H
	DB	08H
	DB	08H
	DB	08H
	DB	08H
	DB	08H
	DB	08H
	DB	08H
	DB	08H
	DB	08H
	DB	08H
	DB	08H
	DB	08H
	DB	08H
	DB	08H
	DB	08H
	DB	08H
	DB	08H
	DB	08H
	DB	01H
	DB	01H
	DB	01H
	DB	01H
	DB	0c4H
	DB	02cH
	DB	099H
	DB	08H
	DB	08H
	DB	08H
	DB	08H
	DB	08H
	DB	08H
	DB	08H
	DB	08H
	DB	08H
	DB	08H
	DB	08H
	DB	08H
	DB	08H
	DB	08H
	DB	08H
	DB	08H
	DB	08H
	DB	08H
	DB	011H
	DB	010H
	DB	015H
	DB	015H
	DB	015H
	DB	015H
	DB	015H
	DB	015H
	DB	015H
	DB	015H
	DB	015H
	DB	015H
	DB	015H
	DB	015H
	DB	015H
	DB	015H
	DB	015H
	DB	015H
	DB	015H
	DB	015H
	DB	015H
	DB	015H
	DB	015H
	DB	015H
	DB	015H
	DB	015H
	DB	015H
	DB	015H
	DB	015H
	DB	015H
	DB	015H
	DB	015H
	DB	015H
	DB	015H
	DB	015H
	DB	015H
	DB	015H
	DB	015H
	DB	015H
	DB	015H
	DB	015H
	DB	015H
	DB	015H
	DB	015H
	DB	015H
	DB	015H
	DB	015H
	DB	015H
	DB	015H
	DB	015H
	DB	015H
	DB	015H
	DB	015H
	DB	015H
	DB	015H
	DB	015H
	DB	015H
	DB	015H
	DB	015H
	DB	015H
	DB	015H
	DB	015H
	DB	015H
	DB	015H
	DB	015H
	DB	015H
	DB	015H
	DB	015H
	DB	015H
	DB	015H
	DB	015H
	DB	015H
	DB	015H
	DB	015H
	DB	015H
	DB	015H
	DB	015H
	DB	015H
	DB	015H
	DB	015H
	DB	015H
	DB	015H
	DB	015H
	DB	015H
	DB	015H
	DB	015H
	DB	015H
	DB	015H
	DB	015H
	DB	015H
	DB	015H
	DB	015H
	DB	015H
	DB	015H
	DB	015H
	DB	015H
	DB	015H
	DB	015H
	DB	015H
	DB	015H
	DB	015H
	DB	015H
	DB	015H
	DB	015H
	DB	015H
	DB	015H
	DB	015H
	DB	015H
	DB	015H
	DB	015H
	DB	015H
	DB	015H
	DB	015H
	DB	015H
	DB	015H
	DB	015H
	DB	015H
	DB	015H
	DB	015H
	DB	015H
	DB	015H
	DB	015H
	DB	015H
	DB	015H
	DB	015H
	DB	015H
	DB	015H
	DB	015H
	DB	015H
	DB	015H
	DB	015H
	DB	015H
	DB	015H
	DB	015H
	DB	015H
	DB	015H
	DB	015H
	DB	015H
	DB	015H
	DB	015H
	DB	015H
	DB	015H
	DB	015H
	DB	015H
	DB	015H
	DB	015H
	DB	015H
	DB	015H
	DB	015H
	DB	015H
	DB	015H
	DB	015H
	DB	015H
	DB	015H
	DB	015H
	DB	015H
	DB	015H
	DB	015H
	DB	010H
	DB	02H
	DB	08H
	DB	08H
	DB	08H
	DB	08H
	DB	08H
	DB	08H
	DB	08H
	DB	08H
	DB	08H
	DB	08H
	DB	08H
	DB	08H
	DB	08H
	DB	08H
	DB	08H
	DB	08H
	DB	08H
	DB	08H
	DB	08H
	DB	08H
	DB	08H
	DB	08H
	DB	08H
	DB	08H
	DB	08cH
	DB	02bH
	DB	048H
	DB	048H
	DB	06eH
	DB	08H
	DB	08H
	DB	08H
	DB	08H
	DB	08H
	DB	08H
	DB	08H
	DB	08H
	DB	08H
	DB	04fH
	DB	094H
	DB	061H
	DB	018H
	DB	018H
	DB	018H
	DB	018H
	DB	018H
	DB	018H
	DB	018H
	DB	018H
	DB	01dH
	DB	01dH
	DB	01dH
	DB	01dH
	DB	01dH
	DB	01dH
	DB	01dH
	DB	01dH
	DB	01dH
	DB	0b9H
	DB	040H
	DB	0b5H
	DB	06dH
	DB	08H
	DB	08H
	DB	08H
	DB	08H
	DB	08H
	DB	08H
	DB	08H
	DB	08H
	DB	08H
	DB	08H
	DB	08H
	DB	08H
	DB	08H
	DB	08H
	DB	08H
	DB	08H
	DB	08H
	DB	08H
	DB	08H
	DB	08H
	DB	08H
	DB	08H
	DB	08H
	DB	08H
	DB	08H
	DB	08H
	DB	08H
	DB	08H
	DB	08H
	DB	08H
	DB	08H
	DB	08H
	DB	08H
	DB	08H
	DB	08H
	DB	08H
	DB	08H
	DB	08H
	DB	08H
	DB	08H
	DB	08H
	DB	08H
	DB	08H
	DB	08H
	DB	08H
	DB	08H
	DB	08H
	DB	08H
	DB	08H
	DB	08H
	DB	08H
	DB	08H
	DB	08H
	DB	08H
	DB	08H
	DB	08H
	DB	08H
	DB	08H
	DB	01H
	DB	01H
	DB	01H
	DB	01H
	DB	03H
	DB	02cH
	DB	049H
	DB	08H
	DB	08H
	DB	08H
	DB	08H
	DB	08H
	DB	08H
	DB	08H
	DB	08H
	DB	08H
	DB	08H
	DB	08H
	DB	08H
	DB	08H
	DB	08H
	DB	08H
	DB	08H
	DB	010H
	DB	01cH
	DB	0c4H
	DB	03H
	DB	044H
	DB	04H
	DB	044H
	DB	044H
	DB	03H
	DB	03H
	DB	03H
	DB	03H
	DB	03H
	DB	03H
	DB	03H
	DB	071H
	DB	071H
	DB	071H
	DB	071H
	DB	071H
	DB	071H
	DB	071H
	DB	071H
	DB	0c4H
	DB	0c4H
	DB	0c4H
	DB	01H
	DB	01H
	DB	01H
	DB	01H
	DB	01H
	DB	0c4H
	DB	0c4H
	DB	0c4H
	DB	0c4H
	DB	0c4H
	DB	0c4H
	DB	0c4H
	DB	0c4H
	DB	0c4H
	DB	0c4H
	DB	0c4H
	DB	0c4H
	DB	0c4H
	DB	0c4H
	DB	0c4H
	DB	0c4H
	DB	0c4H
	DB	0c4H
	DB	0c4H
	DB	0c4H
	DB	0c4H
	DB	0c4H
	DB	0c4H
	DB	0c4H
	DB	0c4H
	DB	0c4H
	DB	0c4H
	DB	0c4H
	DB	0c4H
	DB	0c4H
	DB	0c4H
	DB	0c4H
	DB	0c4H
	DB	0c4H
	DB	0c4H
	DB	0c4H
	DB	0c4H
	DB	0c4H
	DB	0c4H
	DB	0c4H
	DB	0c4H
	DB	0c4H
	DB	0c4H
	DB	0c4H
	DB	0c4H
	DB	0c4H
	DB	0c4H
	DB	0c4H
	DB	0c4H
	DB	0c4H
	DB	0c4H
	DB	0c4H
	DB	0c4H
	DB	0c4H
	DB	0c4H
	DB	0c4H
	DB	0c4H
	DB	0c4H
	DB	0c4H
	DB	0c4H
	DB	0c4H
	DB	0c4H
	DB	0c4H
	DB	0c4H
	DB	0c4H
	DB	0c4H
	DB	0c4H
	DB	0c4H
	DB	0c4H
	DB	0c4H
	DB	0c4H
	DB	0c4H
	DB	0c4H
	DB	0c4H
	DB	0c4H
	DB	0c4H
	DB	0c4H
	DB	0c4H
	DB	0c4H
	DB	0c4H
	DB	0c4H
	DB	0c4H
	DB	0c4H
	DB	0c4H
	DB	0c4H
	DB	0c4H
	DB	0c4H
	DB	0c4H
	DB	0c4H
	DB	0c4H
	DB	0c4H
	DB	0c4H
	DB	0c4H
	DB	0c4H
	DB	0c4H
	DB	0c4H
	DB	0c4H
	DB	0c4H
	DB	0c4H
	DB	0c4H
	DB	0c4H
	DB	0c4H
	DB	0c4H
	DB	0c4H
	DB	0c4H
	DB	0c4H
	DB	0c4H
	DB	0c4H
	DB	0c4H
	DB	01H
	DB	01H
	DB	01H
	DB	01H
	DB	0c4H
	DB	0c4H
	DB	0c4H
	DB	071H
	DB	071H
	DB	071H
	DB	071H
	DB	071H
	DB	071H
	DB	071H
	DB	071H
	DB	071H
	DB	071H
	DB	03H
	DB	03H
	DB	03H
	DB	03H
	DB	0c4H
	DB	01cH
	DB	010H
	DB	08H
	DB	08H
	DB	08H
	DB	08H
	DB	08H
	DB	08H
	DB	08H
	DB	08H
	DB	08H
	DB	08H
	DB	08H
	DB	08H
	DB	08H
	DB	08H
	DB	08H
	DB	08H
	DB	08H
	DB	08H
	DB	08H
	DB	08H
	DB	08H
	DB	08H
	DB	0b5H
	DB	048H
	DB	05cH
	DB	048H
	DB	03bH
	DB	07H
	DB	08H
	DB	08H
	DB	08H
	DB	08H
	DB	08H
	DB	08H
	DB	07H
	DB	04dH
	DB	08eH
	DB	039H
	DB	039H
	DB	018H
	DB	018H
	DB	018H
	DB	018H
	DB	018H
	DB	018H
	DB	018H
	DB	018H
	DB	018H
	DB	018H
	DB	018H
	DB	018H
	DB	01dH
	DB	01dH
	DB	01dH
	DB	01dH
	DB	01dH
	DB	01dH
	DB	01dH
	DB	061H
	DB	07cH
	DB	0b5H
	DB	027H
	DB	027H
	DB	06eH
	DB	06cH
	DB	07H
	DB	08H
	DB	08H
	DB	08H
	DB	08H
	DB	08H
	DB	08H
	DB	08H
	DB	08H
	DB	08H
	DB	08H
	DB	08H
	DB	08H
	DB	08H
	DB	08H
	DB	08H
	DB	08H
	DB	08H
	DB	08H
	DB	08H
	DB	08H
	DB	08H
	DB	08H
	DB	08H
	DB	08H
	DB	08H
	DB	08H
	DB	08H
	DB	08H
	DB	08H
	DB	08H
	DB	08H
	DB	08H
	DB	08H
	DB	08H
	DB	08H
	DB	08H
	DB	08H
	DB	08H
	DB	08H
	DB	08H
	DB	08H
	DB	08H
	DB	08H
	DB	08H
	DB	08H
	DB	08H
	DB	08H
	DB	08H
	DB	08H
	DB	08H
	DB	08H
	DB	08H
	DB	01H
	DB	01H
	DB	01H
	DB	01H
	DB	03H
	DB	02cH
	DB	049H
	DB	08H
	DB	08H
	DB	08H
	DB	08H
	DB	08H
	DB	08H
	DB	08H
	DB	08H
	DB	08H
	DB	08H
	DB	08H
	DB	08H
	DB	08H
	DB	08H
	DB	07H
	DB	01cH
	DB	0c4H
	DB	086H
	DB	0e9H
	DB	0aH
	DB	0aH
	DB	086H
	DB	086H
	DB	086H
	DB	086H
	DB	05H
	DB	05H
	DB	05H
	DB	05H
	DB	05H
	DB	057H
	DB	057H
	DB	04H
	DB	04H
	DB	04H
	DB	04H
	DB	04H
	DB	04H
	DB	044H
	DB	044H
	DB	044H
	DB	03H
	DB	03H
	DB	03H
	DB	03H
	DB	03H
	DB	03H
	DB	03H
	DB	0c4H
	DB	0c4H
	DB	0c4H
	DB	0c4H
	DB	0c4H
	DB	0c4H
	DB	0c4H
	DB	0c4H
	DB	0c4H
	DB	0c4H
	DB	0c4H
	DB	0c4H
	DB	0c4H
	DB	0c4H
	DB	0c4H
	DB	0c4H
	DB	0c4H
	DB	0c4H
	DB	0c4H
	DB	0c4H
	DB	0c4H
	DB	0c4H
	DB	0c4H
	DB	0c4H
	DB	0c4H
	DB	0c4H
	DB	0c4H
	DB	0c4H
	DB	0c4H
	DB	0c4H
	DB	0c4H
	DB	0c4H
	DB	0c4H
	DB	0c4H
	DB	0c4H
	DB	0c4H
	DB	0c4H
	DB	0c4H
	DB	0c4H
	DB	0c4H
	DB	0c4H
	DB	0c4H
	DB	0c4H
	DB	0c4H
	DB	0c4H
	DB	0c4H
	DB	0c4H
	DB	0c4H
	DB	0c4H
	DB	0c4H
	DB	0c4H
	DB	0c4H
	DB	0c4H
	DB	0c4H
	DB	0c4H
	DB	0c4H
	DB	0c4H
	DB	0c4H
	DB	0c4H
	DB	0c4H
	DB	0c4H
	DB	0c4H
	DB	0c4H
	DB	0c4H
	DB	0c4H
	DB	0c4H
	DB	0c4H
	DB	0c4H
	DB	0c4H
	DB	0c4H
	DB	0c4H
	DB	0c4H
	DB	0c4H
	DB	0c4H
	DB	0c4H
	DB	0c4H
	DB	0c4H
	DB	0c4H
	DB	0c4H
	DB	0c4H
	DB	0c4H
	DB	0c4H
	DB	0c4H
	DB	0c4H
	DB	0c4H
	DB	0c4H
	DB	0c4H
	DB	0c4H
	DB	0c4H
	DB	0c4H
	DB	0c4H
	DB	0c4H
	DB	0c4H
	DB	0c4H
	DB	0c4H
	DB	0c4H
	DB	0c4H
	DB	0c4H
	DB	0c4H
	DB	0c4H
	DB	0c4H
	DB	0c4H
	DB	0c4H
	DB	0c4H
	DB	0c4H
	DB	0c4H
	DB	03H
	DB	03H
	DB	03H
	DB	03H
	DB	03H
	DB	03H
	DB	03H
	DB	03H
	DB	044H
	DB	044H
	DB	044H
	DB	044H
	DB	04H
	DB	04H
	DB	04H
	DB	04H
	DB	04H
	DB	057H
	DB	057H
	DB	057H
	DB	05H
	DB	05H
	DB	05H
	DB	05H
	DB	091H
	DB	01H
	DB	015H
	DB	07H
	DB	08H
	DB	08H
	DB	08H
	DB	08H
	DB	08H
	DB	08H
	DB	08H
	DB	08H
	DB	08H
	DB	08H
	DB	08H
	DB	08H
	DB	08H
	DB	08H
	DB	08H
	DB	08H
	DB	08H
	DB	08H
	DB	07H
	DB	04fH
	DB	048H
	DB	048H
	DB	048H
	DB	048H
	DB	025H
	DB	07H
	DB	07H
	DB	07H
	DB	08H
	DB	08H
	DB	08H
	DB	06dH
	DB	094H
	DB	074H
	DB	039H
	DB	039H
	DB	039H
	DB	039H
	DB	018H
	DB	018H
	DB	018H
	DB	018H
	DB	018H
	DB	018H
	DB	018H
	DB	018H
	DB	01dH
	DB	01dH
	DB	01dH
	DB	01dH
	DB	01dH
	DB	01dH
	DB	01dH
	DB	01dH
	DB	01dH
	DB	01dH
	DB	01dH
	DB	018H
	DB	045H
	DB	072H
	DB	054H
	DB	059H
	DB	07eH
	DB	0cfH
	DB	094H
	DB	06eH
	DB	07H
	DB	08H
	DB	08H
	DB	08H
	DB	08H
	DB	08H
	DB	08H
	DB	08H
	DB	08H
	DB	08H
	DB	08H
	DB	08H
	DB	08H
	DB	08H
	DB	08H
	DB	08H
	DB	08H
	DB	08H
	DB	08H
	DB	08H
	DB	08H
	DB	08H
	DB	08H
	DB	08H
	DB	08H
	DB	08H
	DB	08H
	DB	08H
	DB	08H
	DB	08H
	DB	08H
	DB	08H
	DB	08H
	DB	08H
	DB	08H
	DB	08H
	DB	08H
	DB	08H
	DB	08H
	DB	08H
	DB	08H
	DB	08H
	DB	08H
	DB	08H
	DB	08H
	DB	08H
	DB	08H
	DB	08H
	DB	08H
	DB	08H
	DB	01H
	DB	01H
	DB	01H
	DB	01H
	DB	03H
	DB	02cH
	DB	049H
	DB	08H
	DB	08H
	DB	08H
	DB	08H
	DB	08H
	DB	08H
	DB	08H
	DB	08H
	DB	08H
	DB	08H
	DB	08H
	DB	08H
	DB	08H
	DB	07H
	DB	01cH
	DB	04H
	DB	0dH
	DB	0aH
	DB	05H
	DB	05H
	DB	057H
	DB	057H
	DB	057H
	DB	04H
	DB	04H
	DB	04H
	DB	04H
	DB	04H
	DB	04H
	DB	04H
	DB	044H
	DB	044H
	DB	044H
	DB	044H
	DB	03H
	DB	03H
	DB	03H
	DB	03H
	DB	03H
	DB	03H
	DB	03H
	DB	0c4H
	DB	0c4H
	DB	0c4H
	DB	0c4H
	DB	0c4H
	DB	0c4H
	DB	0c4H
	DB	01H
	DB	01H
	DB	01H
	DB	01H
	DB	01H
	DB	01H
	DB	01H
	DB	01H
	DB	01H
	DB	01H
	DB	01H
	DB	01H
	DB	01H
	DB	01H
	DB	01H
	DB	01H
	DB	01H
	DB	01H
	DB	01H
	DB	01H
	DB	01H
	DB	01H
	DB	01H
	DB	01H
	DB	01H
	DB	01H
	DB	01H
	DB	01H
	DB	01H
	DB	01H
	DB	01H
	DB	01H
	DB	01H
	DB	01H
	DB	01H
	DB	01H
	DB	01H
	DB	01H
	DB	01H
	DB	01H
	DB	01H
	DB	01H
	DB	01H
	DB	01H
	DB	01H
	DB	01H
	DB	01H
	DB	01H
	DB	01H
	DB	01H
	DB	01H
	DB	01H
	DB	01H
	DB	01H
	DB	01H
	DB	01H
	DB	01H
	DB	01H
	DB	01H
	DB	01H
	DB	01H
	DB	01H
	DB	01H
	DB	01H
	DB	01H
	DB	01H
	DB	01H
	DB	01H
	DB	01H
	DB	01H
	DB	01H
	DB	01H
	DB	01H
	DB	01H
	DB	01H
	DB	01H
	DB	01H
	DB	01H
	DB	01H
	DB	01H
	DB	01H
	DB	01H
	DB	01H
	DB	01H
	DB	01H
	DB	01H
	DB	01H
	DB	01H
	DB	01H
	DB	01H
	DB	01H
	DB	01H
	DB	01H
	DB	01H
	DB	01H
	DB	01H
	DB	01H
	DB	01H
	DB	01H
	DB	01H
	DB	01H
	DB	01H
	DB	01H
	DB	01H
	DB	01H
	DB	01H
	DB	0c4H
	DB	0c4H
	DB	0c4H
	DB	0c4H
	DB	0c4H
	DB	0c4H
	DB	0c4H
	DB	0c4H
	DB	03H
	DB	03H
	DB	03H
	DB	03H
	DB	03H
	DB	03H
	DB	03H
	DB	044H
	DB	044H
	DB	044H
	DB	044H
	DB	044H
	DB	04H
	DB	04H
	DB	04H
	DB	04H
	DB	05H
	DB	05H
	DB	03H
	DB	01cH
	DB	07H
	DB	08H
	DB	08H
	DB	08H
	DB	08H
	DB	08H
	DB	08H
	DB	08H
	DB	08H
	DB	08H
	DB	08H
	DB	08H
	DB	08H
	DB	08H
	DB	08H
	DB	07H
	DB	0e8H
	DB	025H
	DB	053H
	DB	053H
	DB	048H
	DB	03bH
	DB	048H
	DB	048H
	DB	04fH
	DB	02H
	DB	07H
	DB	07H
	DB	07H
	DB	08H
	DB	02H
	DB	0cfH
	DB	039H
	DB	039H
	DB	039H
	DB	039H
	DB	039H
	DB	039H
	DB	018H
	DB	018H
	DB	018H
	DB	018H
	DB	018H
	DB	018H
	DB	018H
	DB	01dH
	DB	01dH
	DB	01dH
	DB	01dH
	DB	01dH
	DB	01dH
	DB	01dH
	DB	01dH
	DB	01dH
	DB	01dH
	DB	01dH
	DB	01dH
	DB	01dH
	DB	01dH
	DB	01dH
	DB	07cH
	DB	079H
	DB	0a7H
	DB	0d9H
	DB	089H
	DB	0a7H
	DB	094H
	DB	02H
	DB	08H
	DB	08H
	DB	08H
	DB	08H
	DB	08H
	DB	08H
	DB	08H
	DB	08H
	DB	08H
	DB	08H
	DB	08H
	DB	08H
	DB	08H
	DB	08H
	DB	08H
	DB	08H
	DB	08H
	DB	08H
	DB	08H
	DB	08H
	DB	08H
	DB	08H
	DB	08H
	DB	08H
	DB	08H
	DB	08H
	DB	08H
	DB	08H
	DB	08H
	DB	08H
	DB	08H
	DB	08H
	DB	08H
	DB	08H
	DB	08H
	DB	08H
	DB	08H
	DB	08H
	DB	08H
	DB	08H
	DB	08H
	DB	08H
	DB	08H
	DB	08H
	DB	08H
	DB	08H
	DB	08H
	DB	08H
	DB	01H
	DB	01H
	DB	01H
	DB	01H
	DB	03H
	DB	02cH
	DB	049H
	DB	08H
	DB	08H
	DB	08H
	DB	08H
	DB	08H
	DB	08H
	DB	08H
	DB	08H
	DB	08H
	DB	08H
	DB	08H
	DB	08H
	DB	07H
	DB	01cH
	DB	091H
	DB	0dH
	DB	086H
	DB	05H
	DB	05H
	DB	05H
	DB	057H
	DB	057H
	DB	057H
	DB	057H
	DB	04H
	DB	04H
	DB	04H
	DB	04H
	DB	04H
	DB	04H
	DB	04H
	DB	04H
	DB	044H
	DB	044H
	DB	044H
	DB	03H
	DB	03H
	DB	03H
	DB	03H
	DB	03H
	DB	03H
	DB	03H
	DB	0c4H
	DB	0c4H
	DB	0c4H
	DB	0c4H
	DB	0c4H
	DB	0c4H
	DB	0c4H
	DB	0c4H
	DB	01H
	DB	01H
	DB	01H
	DB	01H
	DB	01H
	DB	01H
	DB	01H
	DB	01H
	DB	01H
	DB	01H
	DB	01H
	DB	01H
	DB	01H
	DB	01H
	DB	01H
	DB	01H
	DB	01H
	DB	01H
	DB	01H
	DB	01H
	DB	01H
	DB	01H
	DB	01H
	DB	01H
	DB	01H
	DB	01H
	DB	01H
	DB	01H
	DB	01H
	DB	01H
	DB	01H
	DB	01H
	DB	01H
	DB	01H
	DB	01H
	DB	01H
	DB	01H
	DB	01H
	DB	01H
	DB	01H
	DB	01H
	DB	01H
	DB	01H
	DB	01H
	DB	01H
	DB	01H
	DB	01H
	DB	01H
	DB	01H
	DB	01H
	DB	01H
	DB	01H
	DB	01H
	DB	01H
	DB	01H
	DB	01H
	DB	01H
	DB	01H
	DB	01H
	DB	01H
	DB	01H
	DB	01H
	DB	01H
	DB	01H
	DB	01H
	DB	01H
	DB	01H
	DB	01H
	DB	01H
	DB	01H
	DB	01H
	DB	01H
	DB	01H
	DB	01H
	DB	01H
	DB	01H
	DB	01H
	DB	01H
	DB	01H
	DB	01H
	DB	01H
	DB	01H
	DB	01H
	DB	01H
	DB	01H
	DB	01H
	DB	01H
	DB	01H
	DB	01H
	DB	01H
	DB	01H
	DB	01H
	DB	01H
	DB	01H
	DB	01H
	DB	01H
	DB	01H
	DB	01H
	DB	01H
	DB	01H
	DB	01H
	DB	01H
	DB	01H
	DB	0c4H
	DB	0c4H
	DB	0c4H
	DB	0c4H
	DB	0c4H
	DB	0c4H
	DB	0c4H
	DB	0c4H
	DB	03H
	DB	03H
	DB	03H
	DB	03H
	DB	03H
	DB	03H
	DB	03H
	DB	044H
	DB	044H
	DB	044H
	DB	044H
	DB	04H
	DB	04H
	DB	04H
	DB	04H
	DB	04H
	DB	04H
	DB	04H
	DB	057H
	DB	05H
	DB	071H
	DB	01cH
	DB	08H
	DB	08H
	DB	08H
	DB	08H
	DB	08H
	DB	08H
	DB	08H
	DB	08H
	DB	08H
	DB	08H
	DB	08H
	DB	07H
	DB	02H
	DB	025H
	DB	032H
	DB	053H
	DB	01aH
	DB	053H
	DB	053H
	DB	048H
	DB	03bH
	DB	048H
	DB	03bH
	DB	011H
	DB	011H
	DB	02H
	DB	07H
	DB	07H
	DB	02H
	DB	08aH
	DB	018H
	DB	018H
	DB	039H
	DB	039H
	DB	039H
	DB	039H
	DB	039H
	DB	018H
	DB	018H
	DB	018H
	DB	018H
	DB	018H
	DB	018H
	DB	018H
	DB	01dH
	DB	01dH
	DB	01dH
	DB	01dH
	DB	01dH
	DB	01dH
	DB	01dH
	DB	01dH
	DB	01dH
	DB	045H
	DB	01dH
	DB	01dH
	DB	01dH
	DB	01dH
	DB	01dH
	DB	01dH
	DB	045H
	DB	089H
	DB	074H
	DB	082H
	DB	064H
	DB	061H
	DB	08eH
	DB	06dH
	DB	07H
	DB	08H
	DB	08H
	DB	08H
	DB	08H
	DB	08H
	DB	08H
	DB	08H
	DB	08H
	DB	08H
	DB	08H
	DB	08H
	DB	08H
	DB	08H
	DB	08H
	DB	08H
	DB	08H
	DB	08H
	DB	08H
	DB	08H
	DB	08H
	DB	08H
	DB	08H
	DB	08H
	DB	08H
	DB	08H
	DB	08H
	DB	08H
	DB	08H
	DB	08H
	DB	08H
	DB	08H
	DB	08H
	DB	08H
	DB	08H
	DB	08H
	DB	08H
	DB	08H
	DB	08H
	DB	08H
	DB	08H
	DB	08H
	DB	08H
	DB	08H
	DB	08H
	DB	08H
	DB	08H
	DB	01H
	DB	01H
	DB	01H
	DB	01H
	DB	03H
	DB	02cH
	DB	049H
	DB	08H
	DB	08H
	DB	08H
	DB	08H
	DB	08H
	DB	08H
	DB	08H
	DB	08H
	DB	08H
	DB	08H
	DB	08H
	DB	08H
	DB	015H
	DB	03H
	DB	0dH
	DB	086H
	DB	05H
	DB	05H
	DB	05H
	DB	05H
	DB	05H
	DB	057H
	DB	057H
	DB	057H
	DB	057H
	DB	04H
	DB	04H
	DB	04H
	DB	04H
	DB	04H
	DB	04H
	DB	04H
	DB	044H
	DB	044H
	DB	044H
	DB	044H
	DB	03H
	DB	03H
	DB	03H
	DB	03H
	DB	03H
	DB	03H
	DB	03H
	DB	0c4H
	DB	0c4H
	DB	0c4H
	DB	0c4H
	DB	0c4H
	DB	0c4H
	DB	0c4H
	DB	0c4H
	DB	01H
	DB	01H
	DB	01H
	DB	01H
	DB	01H
	DB	01H
	DB	01H
	DB	01H
	DB	01H
	DB	01H
	DB	01H
	DB	01H
	DB	01H
	DB	01H
	DB	01H
	DB	01H
	DB	01H
	DB	01H
	DB	01H
	DB	01H
	DB	01H
	DB	01H
	DB	01H
	DB	01H
	DB	01H
	DB	01H
	DB	01H
	DB	01H
	DB	01H
	DB	01H
	DB	01H
	DB	01H
	DB	01H
	DB	01H
	DB	01H
	DB	01H
	DB	01H
	DB	01H
	DB	01H
	DB	01H
	DB	01H
	DB	01H
	DB	01H
	DB	01H
	DB	01H
	DB	01H
	DB	01H
	DB	01H
	DB	01H
	DB	01H
	DB	01H
	DB	01H
	DB	01H
	DB	01H
	DB	01H
	DB	01H
	DB	01H
	DB	01H
	DB	01H
	DB	01H
	DB	01H
	DB	01H
	DB	01H
	DB	01H
	DB	01H
	DB	01H
	DB	01H
	DB	01H
	DB	01H
	DB	01H
	DB	01H
	DB	01H
	DB	01H
	DB	01H
	DB	01H
	DB	01H
	DB	01H
	DB	01H
	DB	01H
	DB	01H
	DB	01H
	DB	01H
	DB	01H
	DB	01H
	DB	01H
	DB	01H
	DB	01H
	DB	01H
	DB	01H
	DB	01H
	DB	01H
	DB	01H
	DB	01H
	DB	01H
	DB	01H
	DB	01H
	DB	01H
	DB	01H
	DB	01H
	DB	01H
	DB	0c4H
	DB	0c4H
	DB	0c4H
	DB	0c4H
	DB	0c4H
	DB	0c4H
	DB	0c4H
	DB	0c4H
	DB	0c4H
	DB	03H
	DB	03H
	DB	03H
	DB	03H
	DB	03H
	DB	03H
	DB	03H
	DB	03H
	DB	044H
	DB	044H
	DB	044H
	DB	044H
	DB	04H
	DB	04H
	DB	04H
	DB	04H
	DB	04H
	DB	04H
	DB	04H
	DB	04H
	DB	057H
	DB	05H
	DB	0c4H
	DB	010H
	DB	08H
	DB	08H
	DB	08H
	DB	08H
	DB	08H
	DB	08H
	DB	08H
	DB	08H
	DB	0e8H
	DB	025H
	DB	032H
	DB	03cH
	DB	087H
	DB	042H
	DB	03cH
	DB	01aH
	DB	053H
	DB	048H
	DB	03bH
	DB	048H
	DB	048H
	DB	025H
	DB	011H
	DB	011H
	DB	011H
	DB	02H
	DB	02H
	DB	0b6H
	DB	018H
	DB	018H
	DB	018H
	DB	018H
	DB	018H
	DB	039H
	DB	039H
	DB	039H
	DB	039H
	DB	018H
	DB	018H
	DB	018H
	DB	018H
	DB	018H
	DB	018H
	DB	01dH
	DB	01dH
	DB	01dH
	DB	01dH
	DB	01dH
	DB	01dH
	DB	01dH
	DB	045H
	DB	040H
	DB	095H
	DB	01dH
	DB	01dH
	DB	01dH
	DB	018H
	DB	018H
	DB	018H
	DB	018H
	DB	018H
	DB	094H
	DB	039H
	DB	074H
	DB	072H
	DB	061H
	DB	075H
	DB	04fH
	DB	07H
	DB	07H
	DB	08H
	DB	08H
	DB	08H
	DB	08H
	DB	08H
	DB	08H
	DB	08H
	DB	08H
	DB	08H
	DB	08H
	DB	08H
	DB	08H
	DB	08H
	DB	08H
	DB	08H
	DB	08H
	DB	08H
	DB	08H
	DB	08H
	DB	08H
	DB	08H
	DB	08H
	DB	08H
	DB	08H
	DB	08H
	DB	08H
	DB	08H
	DB	08H
	DB	08H
	DB	08H
	DB	08H
	DB	08H
	DB	08H
	DB	08H
	DB	08H
	DB	08H
	DB	08H
	DB	08H
	DB	08H
	DB	08H
	DB	08H
	DB	08H
	DB	08H
	DB	08H
	DB	01H
	DB	01H
	DB	01H
	DB	01H
	DB	03H
	DB	02cH
	DB	049H
	DB	08H
	DB	08H
	DB	08H
	DB	08H
	DB	08H
	DB	08H
	DB	08H
	DB	08H
	DB	08H
	DB	08H
	DB	08H
	DB	02H
	DB	01H
	DB	0aH
	DB	0aH
	DB	05H
	DB	05H
	DB	05H
	DB	05H
	DB	05H
	DB	05H
	DB	057H
	DB	057H
	DB	057H
	DB	057H
	DB	04H
	DB	04H
	DB	04H
	DB	04H
	DB	04H
	DB	04H
	DB	04H
	DB	044H
	DB	044H
	DB	044H
	DB	044H
	DB	03H
	DB	03H
	DB	03H
	DB	03H
	DB	03H
	DB	03H
	DB	03H
	DB	03H
	DB	0c4H
	DB	0c4H
	DB	0c4H
	DB	0c4H
	DB	0c4H
	DB	0c4H
	DB	0c4H
	DB	0c4H
	DB	01H
	DB	01H
	DB	01H
	DB	01H
	DB	01H
	DB	01H
	DB	01H
	DB	01H
	DB	01H
	DB	01H
	DB	01H
	DB	01H
	DB	01H
	DB	01H
	DB	01H
	DB	01H
	DB	01H
	DB	01H
	DB	01H
	DB	01H
	DB	01H
	DB	01H
	DB	01H
	DB	01H
	DB	01H
	DB	01H
	DB	01H
	DB	01H
	DB	01H
	DB	01H
	DB	01H
	DB	01H
	DB	01H
	DB	01H
	DB	01H
	DB	01H
	DB	01H
	DB	01H
	DB	01H
	DB	01H
	DB	01H
	DB	01H
	DB	01H
	DB	01H
	DB	01H
	DB	01H
	DB	01H
	DB	01H
	DB	01H
	DB	01H
	DB	01H
	DB	01H
	DB	01H
	DB	01H
	DB	01H
	DB	01H
	DB	01H
	DB	01H
	DB	01H
	DB	01H
	DB	01H
	DB	01H
	DB	01H
	DB	01H
	DB	01H
	DB	01H
	DB	01H
	DB	01H
	DB	01H
	DB	01H
	DB	01H
	DB	01H
	DB	01H
	DB	01H
	DB	01H
	DB	01H
	DB	01H
	DB	01H
	DB	01H
	DB	01H
	DB	01H
	DB	01H
	DB	01H
	DB	01H
	DB	01H
	DB	01H
	DB	01H
	DB	01H
	DB	01H
	DB	01H
	DB	01H
	DB	01H
	DB	01H
	DB	01H
	DB	01H
	DB	01H
	DB	01H
	DB	01H
	DB	0c4H
	DB	0c4H
	DB	0c4H
	DB	0c4H
	DB	0c4H
	DB	0c4H
	DB	0c4H
	DB	0c4H
	DB	0c4H
	DB	03H
	DB	03H
	DB	03H
	DB	03H
	DB	03H
	DB	03H
	DB	03H
	DB	03H
	DB	044H
	DB	044H
	DB	044H
	DB	044H
	DB	044H
	DB	04H
	DB	04H
	DB	04H
	DB	04H
	DB	04H
	DB	04H
	DB	04H
	DB	057H
	DB	057H
	DB	05H
	DB	044H
	DB	01H
	DB	07H
	DB	08H
	DB	08H
	DB	08H
	DB	08H
	DB	07H
	DB	04bH
	DB	032H
	DB	03cH
	DB	042H
	DB	080H
	DB	080H
	DB	07fH
	DB	042H
	DB	01aH
	DB	01aH
	DB	053H
	DB	03bH
	DB	03bH
	DB	048H
	DB	048H
	DB	010H
	DB	010H
	DB	011H
	DB	011H
	DB	02H
	DB	04bH
	DB	07cH
	DB	018H
	DB	018H
	DB	018H
	DB	018H
	DB	018H
	DB	018H
	DB	039H
	DB	039H
	DB	039H
	DB	039H
	DB	018H
	DB	018H
	DB	018H
	DB	018H
	DB	018H
	DB	01dH
	DB	01dH
	DB	01dH
	DB	01dH
	DB	01dH
	DB	045H
	DB	089H
	DB	048H
	DB	048H
	DB	045H
	DB	01dH
	DB	01dH
	DB	018H
	DB	018H
	DB	018H
	DB	018H
	DB	018H
	DB	018H
	DB	061H
	DB	059H
	DB	039H
	DB	0d1H
	DB	064H
	DB	018H
	DB	078H
	DB	04bH
	DB	07H
	DB	07H
	DB	08H
	DB	08H
	DB	08H
	DB	08H
	DB	08H
	DB	08H
	DB	08H
	DB	08H
	DB	08H
	DB	08H
	DB	08H
	DB	08H
	DB	08H
	DB	08H
	DB	08H
	DB	08H
	DB	08H
	DB	08H
	DB	08H
	DB	08H
	DB	08H
	DB	08H
	DB	08H
	DB	08H
	DB	08H
	DB	08H
	DB	08H
	DB	08H
	DB	08H
	DB	08H
	DB	08H
	DB	08H
	DB	08H
	DB	08H
	DB	08H
	DB	08H
	DB	08H
	DB	08H
	DB	08H
	DB	08H
	DB	08H
	DB	08H
	DB	08H
	DB	01H
	DB	01H
	DB	01H
	DB	01H
	DB	03H
	DB	02cH
	DB	049H
	DB	08H
	DB	08H
	DB	08H
	DB	08H
	DB	08H
	DB	08H
	DB	08H
	DB	08H
	DB	08H
	DB	08H
	DB	08H
	DB	010H
	DB	03H
	DB	0e9H
	DB	05H
	DB	05H
	DB	05H
	DB	05H
	DB	05H
	DB	05H
	DB	05H
	DB	057H
	DB	057H
	DB	057H
	DB	057H
	DB	057H
	DB	04H
	DB	04H
	DB	04H
	DB	04H
	DB	04H
	DB	04H
	DB	044H
	DB	044H
	DB	044H
	DB	044H
	DB	044H
	DB	03H
	DB	03H
	DB	03H
	DB	03H
	DB	03H
	DB	03H
	DB	03H
	DB	0c4H
	DB	0c4H
	DB	0c4H
	DB	0c4H
	DB	0c4H
	DB	0c4H
	DB	0c4H
	DB	0c4H
	DB	0c4H
	DB	01H
	DB	01H
	DB	01H
	DB	01H
	DB	01H
	DB	01H
	DB	01H
	DB	01H
	DB	01H
	DB	01H
	DB	01H
	DB	01H
	DB	01H
	DB	01H
	DB	01H
	DB	01H
	DB	01H
	DB	01H
	DB	01H
	DB	01H
	DB	01H
	DB	01H
	DB	01H
	DB	01H
	DB	01H
	DB	01H
	DB	01H
	DB	01H
	DB	01H
	DB	01H
	DB	01H
	DB	01H
	DB	01H
	DB	01H
	DB	01H
	DB	01H
	DB	01H
	DB	01H
	DB	01H
	DB	01H
	DB	01H
	DB	01H
	DB	01H
	DB	01H
	DB	01H
	DB	01H
	DB	01H
	DB	01H
	DB	01H
	DB	01H
	DB	01H
	DB	01H
	DB	01H
	DB	01H
	DB	01H
	DB	01H
	DB	01H
	DB	01H
	DB	01H
	DB	01H
	DB	01H
	DB	01H
	DB	01H
	DB	01H
	DB	01H
	DB	01H
	DB	01H
	DB	01H
	DB	01H
	DB	01H
	DB	01H
	DB	01H
	DB	01H
	DB	01H
	DB	01H
	DB	01H
	DB	01H
	DB	01H
	DB	01H
	DB	01H
	DB	01H
	DB	01H
	DB	01H
	DB	01H
	DB	01H
	DB	01H
	DB	01H
	DB	01H
	DB	01H
	DB	01H
	DB	01H
	DB	01H
	DB	01H
	DB	01H
	DB	01H
	DB	01H
	DB	01H
	DB	0c4H
	DB	0c4H
	DB	0c4H
	DB	0c4H
	DB	0c4H
	DB	0c4H
	DB	0c4H
	DB	0c4H
	DB	0c4H
	DB	03H
	DB	03H
	DB	03H
	DB	03H
	DB	03H
	DB	03H
	DB	03H
	DB	044H
	DB	044H
	DB	044H
	DB	044H
	DB	044H
	DB	044H
	DB	04H
	DB	04H
	DB	04H
	DB	04H
	DB	04H
	DB	04H
	DB	04H
	DB	057H
	DB	057H
	DB	057H
	DB	057H
	DB	01H
	DB	010H
	DB	08H
	DB	04bH
	DB	04fH
	DB	032H
	DB	03cH
	DB	042H
	DB	07fH
	DB	07fH
	DB	07fH
	DB	042H
	DB	042H
	DB	01aH
	DB	01aH
	DB	01aH
	DB	053H
	DB	048H
	DB	02bH
	DB	03bH
	DB	048H
	DB	025H
	DB	010H
	DB	010H
	DB	010H
	DB	011H
	DB	011H
	DB	050H
	DB	018H
	DB	018H
	DB	018H
	DB	018H
	DB	018H
	DB	018H
	DB	018H
	DB	039H
	DB	039H
	DB	039H
	DB	039H
	DB	018H
	DB	018H
	DB	018H
	DB	018H
	DB	018H
	DB	01dH
	DB	01dH
	DB	01dH
	DB	01dH
	DB	095H
	DB	040H
	DB	079H
	DB	03cH
	DB	02bH
	DB	01dH
	DB	01dH
	DB	018H
	DB	018H
	DB	018H
	DB	018H
	DB	018H
	DB	018H
	DB	018H
	DB	018H
	DB	064H
	DB	074H
	DB	039H
	DB	082H
	DB	079H
	DB	039H
	DB	085H
	DB	02H
	DB	07H
	DB	07H
	DB	08H
	DB	08H
	DB	08H
	DB	08H
	DB	08H
	DB	08H
	DB	08H
	DB	08H
	DB	08H
	DB	08H
	DB	08H
	DB	08H
	DB	08H
	DB	08H
	DB	08H
	DB	08H
	DB	08H
	DB	08H
	DB	08H
	DB	08H
	DB	08H
	DB	08H
	DB	08H
	DB	08H
	DB	08H
	DB	08H
	DB	08H
	DB	08H
	DB	08H
	DB	08H
	DB	08H
	DB	08H
	DB	08H
	DB	08H
	DB	08H
	DB	08H
	DB	08H
	DB	08H
	DB	08H
	DB	08H
	DB	08H
	DB	08H
	DB	01H
	DB	01H
	DB	01H
	DB	01H
	DB	03H
	DB	02cH
	DB	049H
	DB	08H
	DB	08H
	DB	08H
	DB	08H
	DB	08H
	DB	08H
	DB	08H
	DB	08H
	DB	08H
	DB	08H
	DB	08H
	DB	01cH
	DB	056H
	DB	0e9H
	DB	05H
	DB	05H
	DB	05H
	DB	05H
	DB	05H
	DB	05H
	DB	05H
	DB	057H
	DB	057H
	DB	057H
	DB	057H
	DB	057H
	DB	04H
	DB	04H
	DB	04H
	DB	04H
	DB	04H
	DB	04H
	DB	04H
	DB	044H
	DB	044H
	DB	044H
	DB	044H
	DB	044H
	DB	03H
	DB	03H
	DB	03H
	DB	03H
	DB	03H
	DB	03H
	DB	03H
	DB	0c4H
	DB	0c4H
	DB	0c4H
	DB	0c4H
	DB	0c4H
	DB	0c4H
	DB	0c4H
	DB	0c4H
	DB	01H
	DB	01H
	DB	01H
	DB	01H
	DB	01H
	DB	01H
	DB	01H
	DB	01H
	DB	01H
	DB	01H
	DB	01H
	DB	01H
	DB	01H
	DB	01H
	DB	01H
	DB	01H
	DB	01H
	DB	01H
	DB	01H
	DB	01H
	DB	01H
	DB	01H
	DB	01H
	DB	01H
	DB	01H
	DB	01H
	DB	01H
	DB	01H
	DB	01H
	DB	01H
	DB	01H
	DB	01H
	DB	01H
	DB	01H
	DB	01H
	DB	01H
	DB	01H
	DB	01H
	DB	01H
	DB	01H
	DB	01H
	DB	01H
	DB	01H
	DB	01H
	DB	01H
	DB	01H
	DB	01H
	DB	01H
	DB	01H
	DB	01H
	DB	01H
	DB	01H
	DB	01H
	DB	01H
	DB	01H
	DB	01H
	DB	01H
	DB	01H
	DB	01H
	DB	01H
	DB	01H
	DB	01H
	DB	01H
	DB	01H
	DB	01H
	DB	01H
	DB	01H
	DB	01H
	DB	01H
	DB	01H
	DB	01H
	DB	01H
	DB	01H
	DB	01H
	DB	01H
	DB	01H
	DB	01H
	DB	01H
	DB	01H
	DB	01H
	DB	01H
	DB	01H
	DB	01H
	DB	01H
	DB	01H
	DB	01H
	DB	01H
	DB	01H
	DB	01H
	DB	01H
	DB	01H
	DB	01H
	DB	01H
	DB	01H
	DB	01H
	DB	0c4H
	DB	0c4H
	DB	0c4H
	DB	0c4H
	DB	0c4H
	DB	0c4H
	DB	0c4H
	DB	0c4H
	DB	0c4H
	DB	0c4H
	DB	03H
	DB	03H
	DB	03H
	DB	03H
	DB	03H
	DB	03H
	DB	03H
	DB	03H
	DB	044H
	DB	044H
	DB	044H
	DB	044H
	DB	044H
	DB	04H
	DB	04H
	DB	04H
	DB	04H
	DB	04H
	DB	04H
	DB	04H
	DB	04H
	DB	057H
	DB	057H
	DB	057H
	DB	057H
	DB	03H
	DB	032H
	DB	048H
	DB	03cH
	DB	042H
	DB	042H
	DB	07fH
	DB	07fH
	DB	042H
	DB	02aH
	DB	0e6H
	DB	02aH
	DB	02aH
	DB	01aH
	DB	01aH
	DB	01aH
	DB	053H
	DB	03bH
	DB	03fH
	DB	02bH
	DB	048H
	DB	015H
	DB	010H
	DB	010H
	DB	010H
	DB	011H
	DB	025H
	DB	095H
	DB	018H
	DB	018H
	DB	018H
	DB	018H
	DB	018H
	DB	018H
	DB	018H
	DB	018H
	DB	039H
	DB	039H
	DB	039H
	DB	018H
	DB	018H
	DB	018H
	DB	018H
	DB	01dH
	DB	01dH
	DB	01dH
	DB	07cH
	DB	050H
	DB	053H
	DB	082H
	DB	02bH
	DB	090H
	DB	041H
	DB	08aH
	DB	01dH
	DB	01dH
	DB	018H
	DB	018H
	DB	018H
	DB	018H
	DB	018H
	DB	018H
	DB	039H
	DB	082H
	DB	059H
	DB	039H
	DB	039H
	DB	0afH
	DB	074H
	DB	08eH
	DB	04bH
	DB	07H
	DB	07H
	DB	07H
	DB	08H
	DB	08H
	DB	08H
	DB	08H
	DB	08H
	DB	08H
	DB	08H
	DB	08H
	DB	08H
	DB	08H
	DB	08H
	DB	08H
	DB	08H
	DB	08H
	DB	08H
	DB	08H
	DB	08H
	DB	08H
	DB	08H
	DB	08H
	DB	08H
	DB	08H
	DB	08H
	DB	08H
	DB	08H
	DB	08H
	DB	08H
	DB	08H
	DB	08H
	DB	08H
	DB	08H
	DB	08H
	DB	08H
	DB	08H
	DB	08H
	DB	08H
	DB	08H
	DB	08H
	DB	08H
	DB	08H
	DB	08H
	DB	01H
	DB	01H
	DB	01H
	DB	01H
	DB	03H
	DB	02cH
	DB	049H
	DB	08H
	DB	08H
	DB	08H
	DB	08H
	DB	08H
	DB	08H
	DB	08H
	DB	08H
	DB	08H
	DB	08H
	DB	07H
	DB	01cH
	DB	05H
	DB	0aH
	DB	05H
	DB	05H
	DB	05H
	DB	05H
	DB	05H
	DB	05H
	DB	05H
	DB	05H
	DB	057H
	DB	057H
	DB	057H
	DB	057H
	DB	04H
	DB	04H
	DB	04H
	DB	04H
	DB	04H
	DB	04H
	DB	04H
	DB	044H
	DB	044H
	DB	044H
	DB	044H
	DB	044H
	DB	03H
	DB	03H
	DB	03H
	DB	03H
	DB	03H
	DB	03H
	DB	03H
	DB	0c4H
	DB	0c4H
	DB	0c4H
	DB	0c4H
	DB	0c4H
	DB	0c4H
	DB	0c4H
	DB	0c4H
	DB	0c4H
	DB	0c4H
	DB	01H
	DB	01H
	DB	01H
	DB	01H
	DB	01H
	DB	01H
	DB	01H
	DB	01H
	DB	01H
	DB	01H
	DB	01H
	DB	01H
	DB	01H
	DB	01H
	DB	01H
	DB	01H
	DB	01H
	DB	01H
	DB	01H
	DB	01H
	DB	01H
	DB	01H
	DB	01H
	DB	01H
	DB	01H
	DB	01H
	DB	01H
	DB	01H
	DB	01H
	DB	01H
	DB	01H
	DB	01H
	DB	01H
	DB	01H
	DB	01H
	DB	01H
	DB	01H
	DB	01H
	DB	01H
	DB	01H
	DB	01H
	DB	01H
	DB	01H
	DB	01H
	DB	01H
	DB	01H
	DB	01H
	DB	01H
	DB	01H
	DB	01H
	DB	01H
	DB	01H
	DB	01H
	DB	01H
	DB	01H
	DB	01H
	DB	01H
	DB	01H
	DB	01H
	DB	01H
	DB	01H
	DB	01H
	DB	01H
	DB	01H
	DB	01H
	DB	01H
	DB	01H
	DB	01H
	DB	01H
	DB	01H
	DB	01H
	DB	01H
	DB	01H
	DB	01H
	DB	01H
	DB	01H
	DB	01H
	DB	01H
	DB	01H
	DB	01H
	DB	01H
	DB	01H
	DB	01H
	DB	01H
	DB	01H
	DB	01H
	DB	01H
	DB	01H
	DB	01H
	DB	01H
	DB	01H
	DB	01H
	DB	0c4H
	DB	0c4H
	DB	0c4H
	DB	0c4H
	DB	0c4H
	DB	0c4H
	DB	0c4H
	DB	0c4H
	DB	0c4H
	DB	0c4H
	DB	03H
	DB	03H
	DB	03H
	DB	03H
	DB	03H
	DB	03H
	DB	03H
	DB	03H
	DB	03H
	DB	044H
	DB	044H
	DB	044H
	DB	044H
	DB	044H
	DB	04H
	DB	04H
	DB	04H
	DB	04H
	DB	04H
	DB	04H
	DB	04H
	DB	04H
	DB	057H
	DB	048H
	DB	053H
	DB	0d2H
	DB	03cH
	DB	042H
	DB	042H
	DB	042H
	DB	042H
	DB	042H
	DB	02aH
	DB	02aH
	DB	02aH
	DB	02aH
	DB	02aH
	DB	02aH
	DB	0e6H
	DB	0e6H
	DB	01aH
	DB	01aH
	DB	053H
	DB	02bH
	DB	03fH
	DB	02bH
	DB	032H
	DB	015H
	DB	010H
	DB	010H
	DB	011H
	DB	011H
	DB	050H
	DB	018H
	DB	018H
	DB	018H
	DB	018H
	DB	018H
	DB	018H
	DB	018H
	DB	018H
	DB	018H
	DB	039H
	DB	039H
	DB	018H
	DB	018H
	DB	018H
	DB	018H
	DB	018H
	DB	018H
	DB	045H
	DB	040H
	DB	03cH
	DB	053H
	DB	0b0H
	DB	079H
	DB	02bH
	DB	023H
	DB	035H
	DB	03bH
	DB	08fH
	DB	01dH
	DB	01dH
	DB	01dH
	DB	018H
	DB	018H
	DB	018H
	DB	018H
	DB	039H
	DB	039H
	DB	07aH
	DB	039H
	DB	039H
	DB	074H
	DB	08eH
	DB	061H
	DB	04fH
	DB	02H
	DB	07H
	DB	07H
	DB	08H
	DB	08H
	DB	08H
	DB	08H
	DB	08H
	DB	08H
	DB	08H
	DB	08H
	DB	08H
	DB	08H
	DB	08H
	DB	08H
	DB	08H
	DB	08H
	DB	08H
	DB	08H
	DB	08H
	DB	08H
	DB	08H
	DB	08H
	DB	08H
	DB	08H
	DB	08H
	DB	08H
	DB	08H
	DB	08H
	DB	08H
	DB	08H
	DB	08H
	DB	08H
	DB	08H
	DB	08H
	DB	08H
	DB	08H
	DB	08H
	DB	08H
	DB	08H
	DB	08H
	DB	08H
	DB	08H
	DB	08H
	DB	01H
	DB	01H
	DB	01H
	DB	01H
	DB	03H
	DB	02cH
	DB	049H
	DB	08H
	DB	08H
	DB	08H
	DB	08H
	DB	08H
	DB	08H
	DB	08H
	DB	08H
	DB	08H
	DB	08H
	DB	07H
	DB	01cH
	DB	05H
	DB	0aH
	DB	086H
	DB	05H
	DB	05H
	DB	05H
	DB	05H
	DB	05H
	DB	05H
	DB	05H
	DB	057H
	DB	057H
	DB	057H
	DB	057H
	DB	057H
	DB	04H
	DB	04H
	DB	04H
	DB	04H
	DB	04H
	DB	04H
	DB	04H
	DB	044H
	DB	044H
	DB	044H
	DB	044H
	DB	044H
	DB	03H
	DB	03H
	DB	03H
	DB	03H
	DB	03H
	DB	03H
	DB	03H
	DB	03H
	DB	0c4H
	DB	0c4H
	DB	0c4H
	DB	0c4H
	DB	0c4H
	DB	0c4H
	DB	0c4H
	DB	0c4H
	DB	0c4H
	DB	01H
	DB	01H
	DB	01H
	DB	01H
	DB	01H
	DB	01H
	DB	01H
	DB	01H
	DB	01H
	DB	01H
	DB	01H
	DB	01H
	DB	01H
	DB	01H
	DB	01H
	DB	01H
	DB	01H
	DB	01H
	DB	01H
	DB	01H
	DB	01H
	DB	01H
	DB	01H
	DB	01H
	DB	01H
	DB	01H
	DB	01H
	DB	01H
	DB	01H
	DB	01H
	DB	01H
	DB	01H
	DB	01H
	DB	01H
	DB	01H
	DB	01H
	DB	01H
	DB	01H
	DB	01H
	DB	01H
	DB	01H
	DB	01H
	DB	01H
	DB	01H
	DB	01H
	DB	01H
	DB	01H
	DB	01H
	DB	01H
	DB	01H
	DB	01H
	DB	01H
	DB	01H
	DB	01H
	DB	01H
	DB	01H
	DB	01H
	DB	01H
	DB	01H
	DB	01H
	DB	01H
	DB	01H
	DB	01H
	DB	01H
	DB	01H
	DB	01H
	DB	01H
	DB	01H
	DB	01H
	DB	01H
	DB	01H
	DB	01H
	DB	01H
	DB	01H
	DB	01H
	DB	01H
	DB	01H
	DB	01H
	DB	01H
	DB	01H
	DB	01H
	DB	01H
	DB	01H
	DB	01H
	DB	01H
	DB	01H
	DB	01H
	DB	01H
	DB	01H
	DB	01H
	DB	0c4H
	DB	0c4H
	DB	0c4H
	DB	0c4H
	DB	0c4H
	DB	0c4H
	DB	0c4H
	DB	0c4H
	DB	0c4H
	DB	0c4H
	DB	0c4H
	DB	03H
	DB	03H
	DB	03H
	DB	03H
	DB	03H
	DB	03H
	DB	03H
	DB	03H
	DB	03H
	DB	044H
	DB	044H
	DB	044H
	DB	044H
	DB	044H
	DB	04H
	DB	04H
	DB	04H
	DB	04H
	DB	04H
	DB	04H
	DB	04H
	DB	053H
	DB	03cH
	DB	03cH
	DB	03cH
	DB	042H
	DB	042H
	DB	0e6H
	DB	01aH
	DB	01aH
	DB	01aH
	DB	02aH
	DB	02aH
	DB	02aH
	DB	02aH
	DB	02aH
	DB	02aH
	DB	02aH
	DB	0e6H
	DB	02aH
	DB	01aH
	DB	053H
	DB	048H
	DB	03fH
	DB	03fH
	DB	03bH
	DB	015H
	DB	015H
	DB	010H
	DB	010H
	DB	011H
	DB	04bH
	DB	0ceH
	DB	018H
	DB	018H
	DB	018H
	DB	018H
	DB	018H
	DB	018H
	DB	018H
	DB	018H
	DB	018H
	DB	039H
	DB	039H
	DB	039H
	DB	018H
	DB	018H
	DB	018H
	DB	018H
	DB	07cH
	DB	050H
	DB	064H
	DB	0acH
	DB	064H
	DB	061H
	DB	048H
	DB	04cH
	DB	0baH
	DB	028H
	DB	07dH
	DB	02bH
	DB	08fH
	DB	01dH
	DB	01dH
	DB	01dH
	DB	01dH
	DB	018H
	DB	018H
	DB	018H
	DB	018H
	DB	064H
	DB	074H
	DB	018H
	DB	018H
	DB	08eH
	DB	0b9H
	DB	025H
	DB	011H
	DB	02H
	DB	07H
	DB	07H
	DB	08H
	DB	08H
	DB	08H
	DB	08H
	DB	08H
	DB	08H
	DB	08H
	DB	08H
	DB	08H
	DB	08H
	DB	08H
	DB	08H
	DB	08H
	DB	08H
	DB	08H
	DB	08H
	DB	08H
	DB	08H
	DB	08H
	DB	08H
	DB	08H
	DB	08H
	DB	08H
	DB	08H
	DB	08H
	DB	08H
	DB	08H
	DB	08H
	DB	08H
	DB	08H
	DB	08H
	DB	08H
	DB	08H
	DB	08H
	DB	08H
	DB	08H
	DB	08H
	DB	08H
	DB	08H
	DB	08H
	DB	01H
	DB	01H
	DB	01H
	DB	01H
	DB	03H
	DB	02cH
	DB	049H
	DB	08H
	DB	08H
	DB	08H
	DB	08H
	DB	08H
	DB	08H
	DB	08H
	DB	08H
	DB	08H
	DB	08H
	DB	07H
	DB	01cH
	DB	05H
	DB	0aH
	DB	086H
	DB	05H
	DB	05H
	DB	05H
	DB	05H
	DB	05H
	DB	05H
	DB	05H
	DB	05H
	DB	057H
	DB	057H
	DB	057H
	DB	057H
	DB	04H
	DB	04H
	DB	04H
	DB	04H
	DB	04H
	DB	04H
	DB	04H
	DB	04H
	DB	044H
	DB	044H
	DB	044H
	DB	044H
	DB	03H
	DB	03H
	DB	03H
	DB	03H
	DB	03H
	DB	03H
	DB	03H
	DB	03H
	DB	0c4H
	DB	0c4H
	DB	0c4H
	DB	0c4H
	DB	0c4H
	DB	0c4H
	DB	0c4H
	DB	0c4H
	DB	0c4H
	DB	0c4H
	DB	01H
	DB	01H
	DB	01H
	DB	01H
	DB	01H
	DB	01H
	DB	01H
	DB	01H
	DB	01H
	DB	01H
	DB	01H
	DB	01H
	DB	01H
	DB	01H
	DB	01H
	DB	01H
	DB	01H
	DB	01H
	DB	01H
	DB	01H
	DB	01H
	DB	01H
	DB	01H
	DB	01H
	DB	01H
	DB	01H
	DB	01H
	DB	01H
	DB	01H
	DB	01H
	DB	01H
	DB	01H
	DB	01H
	DB	01H
	DB	01H
	DB	01H
	DB	01H
	DB	01H
	DB	01H
	DB	01H
	DB	01H
	DB	01H
	DB	01H
	DB	01H
	DB	01H
	DB	01H
	DB	01H
	DB	01H
	DB	01H
	DB	01H
	DB	01H
	DB	01H
	DB	01H
	DB	01H
	DB	01H
	DB	01H
	DB	01H
	DB	01H
	DB	01H
	DB	01H
	DB	01H
	DB	01H
	DB	01H
	DB	01H
	DB	01H
	DB	01H
	DB	01H
	DB	01H
	DB	01H
	DB	01H
	DB	01H
	DB	01H
	DB	01H
	DB	01H
	DB	01H
	DB	01H
	DB	01H
	DB	01H
	DB	01H
	DB	01H
	DB	01H
	DB	01H
	DB	01H
	DB	01H
	DB	01H
	DB	01H
	DB	01H
	DB	0c4H
	DB	0c4H
	DB	0c4H
	DB	0c4H
	DB	0c4H
	DB	0c4H
	DB	0c4H
	DB	0c4H
	DB	0c4H
	DB	0c4H
	DB	0c4H
	DB	0c4H
	DB	03H
	DB	03H
	DB	03H
	DB	03H
	DB	03H
	DB	03H
	DB	03H
	DB	03H
	DB	03H
	DB	044H
	DB	044H
	DB	044H
	DB	044H
	DB	044H
	DB	044H
	DB	04H
	DB	04H
	DB	04H
	DB	04H
	DB	053H
	DB	03cH
	DB	03cH
	DB	087H
	DB	042H
	DB	03cH
	DB	01aH
	DB	01aH
	DB	01aH
	DB	01aH
	DB	01aH
	DB	01aH
	DB	02aH
	DB	02aH
	DB	02aH
	DB	02aH
	DB	02aH
	DB	02aH
	DB	02aH
	DB	02aH
	DB	0e6H
	DB	02aH
	DB	01aH
	DB	053H
	DB	03bH
	DB	03fH
	DB	03fH
	DB	03bH
	DB	015H
	DB	015H
	DB	010H
	DB	011H
	DB	011H
	DB	04fH
	DB	075H
	DB	018H
	DB	018H
	DB	018H
	DB	018H
	DB	018H
	DB	018H
	DB	018H
	DB	018H
	DB	018H
	DB	018H
	DB	039H
	DB	039H
	DB	039H
	DB	018H
	DB	018H
	DB	07cH
	DB	072H
	DB	079H
	DB	094H
	DB	079H
	DB	061H
	DB	089H
	DB	03cH
	DB	0a0H
	DB	023H
	DB	0a6H
	DB	016H
	DB	0feH
	DB	02bH
	DB	0b6H
	DB	01dH
	DB	01dH
	DB	01dH
	DB	01dH
	DB	01dH
	DB	01dH
	DB	01dH
	DB	089H
	DB	061H
	DB	018H
	DB	018H
	DB	064H
	DB	03fH
	DB	025H
	DB	011H
	DB	02H
	DB	07H
	DB	07H
	DB	08H
	DB	08H
	DB	08H
	DB	08H
	DB	08H
	DB	08H
	DB	08H
	DB	08H
	DB	08H
	DB	08H
	DB	08H
	DB	08H
	DB	08H
	DB	08H
	DB	08H
	DB	08H
	DB	08H
	DB	08H
	DB	08H
	DB	08H
	DB	08H
	DB	08H
	DB	08H
	DB	08H
	DB	08H
	DB	08H
	DB	08H
	DB	08H
	DB	08H
	DB	08H
	DB	08H
	DB	08H
	DB	08H
	DB	08H
	DB	08H
	DB	08H
	DB	08H
	DB	08H
	DB	08H
	DB	08H
	DB	01H
	DB	01H
	DB	01H
	DB	01H
	DB	03H
	DB	02cH
	DB	049H
	DB	08H
	DB	08H
	DB	08H
	DB	08H
	DB	08H
	DB	08H
	DB	08H
	DB	08H
	DB	08H
	DB	08H
	DB	07H
	DB	01cH
	DB	05H
	DB	0aH
	DB	086H
	DB	05H
	DB	05H
	DB	05H
	DB	05H
	DB	05H
	DB	05H
	DB	05H
	DB	05H
	DB	057H
	DB	057H
	DB	057H
	DB	057H
	DB	04H
	DB	04H
	DB	04H
	DB	04H
	DB	04H
	DB	04H
	DB	04H
	DB	04H
	DB	044H
	DB	044H
	DB	044H
	DB	044H
	DB	044H
	DB	03H
	DB	03H
	DB	03H
	DB	03H
	DB	03H
	DB	03H
	DB	03H
	DB	03H
	DB	0c4H
	DB	0c4H
	DB	0c4H
	DB	0c4H
	DB	0c4H
	DB	0c4H
	DB	0c4H
	DB	0c4H
	DB	0c4H
	DB	0c4H
	DB	0c4H
	DB	01H
	DB	01H
	DB	01H
	DB	01H
	DB	01H
	DB	01H
	DB	01H
	DB	01H
	DB	01H
	DB	01H
	DB	01H
	DB	01H
	DB	01H
	DB	01H
	DB	01H
	DB	01H
	DB	01H
	DB	01H
	DB	01H
	DB	01H
	DB	01H
	DB	01H
	DB	01H
	DB	01H
	DB	01H
	DB	01H
	DB	01H
	DB	01H
	DB	01H
	DB	01H
	DB	01H
	DB	01H
	DB	01H
	DB	01H
	DB	01H
	DB	01H
	DB	01H
	DB	01H
	DB	01H
	DB	01H
	DB	01H
	DB	01H
	DB	01H
	DB	01H
	DB	01H
	DB	01H
	DB	01H
	DB	01H
	DB	01H
	DB	01H
	DB	01H
	DB	01H
	DB	01H
	DB	01H
	DB	01H
	DB	01H
	DB	01H
	DB	01H
	DB	01H
	DB	01H
	DB	01H
	DB	01H
	DB	01H
	DB	01H
	DB	01H
	DB	01H
	DB	01H
	DB	01H
	DB	01H
	DB	01H
	DB	01H
	DB	01H
	DB	01H
	DB	01H
	DB	01H
	DB	01H
	DB	01H
	DB	01H
	DB	01H
	DB	01H
	DB	01H
	DB	01H
	DB	01H
	DB	0c4H
	DB	0c4H
	DB	0c4H
	DB	0c4H
	DB	0c4H
	DB	0c4H
	DB	0c4H
	DB	0c4H
	DB	0c4H
	DB	0c4H
	DB	0c4H
	DB	0c4H
	DB	03H
	DB	03H
	DB	03H
	DB	03H
	DB	03H
	DB	03H
	DB	03H
	DB	03H
	DB	03H
	DB	03H
	DB	03H
	DB	044H
	DB	044H
	DB	044H
	DB	044H
	DB	044H
	DB	044H
	DB	04H
	DB	04H
	DB	053H
	DB	03cH
	DB	087H
	DB	087H
	DB	042H
	DB	03cH
	DB	01aH
	DB	01aH
	DB	01aH
	DB	01aH
	DB	01aH
	DB	01aH
	DB	01aH
	DB	02aH
	DB	02aH
	DB	02aH
	DB	02aH
	DB	02aH
	DB	02aH
	DB	02aH
	DB	02aH
	DB	0e6H
	DB	02aH
	DB	01aH
	DB	01aH
	DB	032H
	DB	03fH
	DB	03fH
	DB	03fH
	DB	025H
	DB	015H
	DB	010H
	DB	010H
	DB	011H
	DB	011H
	DB	04dH
	DB	018H
	DB	018H
	DB	018H
	DB	018H
	DB	018H
	DB	018H
	DB	018H
	DB	018H
	DB	018H
	DB	018H
	DB	018H
	DB	018H
	DB	018H
	DB	018H
	DB	018H
	DB	07cH
	DB	072H
	DB	082H
	DB	040H
	DB	095H
	DB	0ceH
	DB	018H
	DB	040H
	DB	02bH
	DB	03dH
	DB	023H
	DB	021H
	DB	016H
	DB	016H
	DB	047H
	DB	041H
	DB	050H
	DB	096H
	DB	045H
	DB	01dH
	DB	01dH
	DB	01dH
	DB	045H
	DB	0d9H
	DB	018H
	DB	018H
	DB	0b9H
	DB	048H
	DB	048H
	DB	010H
	DB	010H
	DB	011H
	DB	02H
	DB	07H
	DB	07H
	DB	08H
	DB	08H
	DB	08H
	DB	08H
	DB	08H
	DB	08H
	DB	08H
	DB	08H
	DB	08H
	DB	08H
	DB	08H
	DB	08H
	DB	08H
	DB	08H
	DB	08H
	DB	08H
	DB	08H
	DB	08H
	DB	08H
	DB	08H
	DB	08H
	DB	08H
	DB	08H
	DB	08H
	DB	08H
	DB	08H
	DB	08H
	DB	08H
	DB	08H
	DB	08H
	DB	08H
	DB	08H
	DB	08H
	DB	08H
	DB	08H
	DB	08H
	DB	08H
	DB	08H
	DB	08H
	DB	01H
	DB	01H
	DB	01H
	DB	01H
	DB	03H
	DB	02cH
	DB	049H
	DB	08H
	DB	08H
	DB	08H
	DB	08H
	DB	08H
	DB	08H
	DB	08H
	DB	08H
	DB	08H
	DB	08H
	DB	07H
	DB	01cH
	DB	05H
	DB	0aH
	DB	086H
	DB	05H
	DB	05H
	DB	05H
	DB	05H
	DB	05H
	DB	05H
	DB	05H
	DB	05H
	DB	057H
	DB	057H
	DB	057H
	DB	057H
	DB	057H
	DB	04H
	DB	04H
	DB	04H
	DB	04H
	DB	04H
	DB	04H
	DB	04H
	DB	04H
	DB	044H
	DB	044H
	DB	044H
	DB	044H
	DB	044H
	DB	03H
	DB	03H
	DB	03H
	DB	03H
	DB	03H
	DB	03H
	DB	03H
	DB	03H
	DB	0c4H
	DB	0c4H
	DB	0c4H
	DB	0c4H
	DB	0c4H
	DB	0c4H
	DB	0c4H
	DB	0c4H
	DB	0c4H
	DB	0c4H
	DB	0c4H
	DB	01H
	DB	01H
	DB	01H
	DB	01H
	DB	01H
	DB	01H
	DB	01H
	DB	01H
	DB	01H
	DB	01H
	DB	01H
	DB	01H
	DB	01H
	DB	01H
	DB	01H
	DB	01H
	DB	01H
	DB	01H
	DB	01H
	DB	01H
	DB	01H
	DB	01H
	DB	01H
	DB	01H
	DB	01H
	DB	01H
	DB	01H
	DB	01H
	DB	01H
	DB	01H
	DB	01H
	DB	01H
	DB	01H
	DB	01H
	DB	01H
	DB	01H
	DB	01H
	DB	01H
	DB	01H
	DB	01H
	DB	01H
	DB	01H
	DB	01H
	DB	01H
	DB	01H
	DB	01H
	DB	01H
	DB	01H
	DB	01H
	DB	01H
	DB	01H
	DB	01H
	DB	01H
	DB	01H
	DB	01H
	DB	01H
	DB	01H
	DB	01H
	DB	01H
	DB	01H
	DB	01H
	DB	0c4H
	DB	0c4H
	DB	0c4H
	DB	0c4H
	DB	0c4H
	DB	0c4H
	DB	0c4H
	DB	0c4H
	DB	0c4H
	DB	0c4H
	DB	0c4H
	DB	0c4H
	DB	0c4H
	DB	0c4H
	DB	0c4H
	DB	0c4H
	DB	0c4H
	DB	0c4H
	DB	0c4H
	DB	0c4H
	DB	0c4H
	DB	0c4H
	DB	0c4H
	DB	0c4H
	DB	0c4H
	DB	0c4H
	DB	0c4H
	DB	0c4H
	DB	0c4H
	DB	0c4H
	DB	0c4H
	DB	0c4H
	DB	0c4H
	DB	03H
	DB	03H
	DB	03H
	DB	03H
	DB	03H
	DB	03H
	DB	03H
	DB	03H
	DB	03H
	DB	03H
	DB	03H
	DB	044H
	DB	044H
	DB	044H
	DB	044H
	DB	044H
	DB	044H
	DB	048H
	DB	0d2H
	DB	087H
	DB	087H
	DB	03cH
	DB	01aH
	DB	01aH
	DB	01aH
	DB	01aH
	DB	01aH
	DB	01aH
	DB	01aH
	DB	01aH
	DB	01aH
	DB	02aH
	DB	02aH
	DB	02aH
	DB	02aH
	DB	02aH
	DB	02aH
	DB	02aH
	DB	02aH
	DB	02aH
	DB	02aH
	DB	0e6H
	DB	01aH
	DB	053H
	DB	03bH
	DB	03fH
	DB	03fH
	DB	02bH
	DB	015H
	DB	015H
	DB	010H
	DB	010H
	DB	011H
	DB	02H
	DB	0c6H
	DB	018H
	DB	018H
	DB	018H
	DB	018H
	DB	018H
	DB	018H
	DB	018H
	DB	018H
	DB	018H
	DB	018H
	DB	018H
	DB	018H
	DB	018H
	DB	018H
	DB	061H
	DB	087H
	DB	0a7H
	DB	040H
	DB	045H
	DB	08dH
	DB	061H
	DB	061H
	DB	040H
	DB	072H
	DB	03dH
	DB	023H
	DB	021H
	DB	016H
	DB	016H
	DB	016H
	DB	016H
	DB	07dH
	DB	060H
	DB	02bH
	DB	040H
	DB	08aH
	DB	08fH
	DB	0beH
	DB	050H
	DB	094H
	DB	072H
	DB	041H
	DB	070H
	DB	0c9H
	DB	010H
	DB	010H
	DB	011H
	DB	02H
	DB	07H
	DB	07H
	DB	08H
	DB	08H
	DB	08H
	DB	08H
	DB	08H
	DB	08H
	DB	08H
	DB	08H
	DB	08H
	DB	08H
	DB	08H
	DB	08H
	DB	08H
	DB	08H
	DB	08H
	DB	08H
	DB	08H
	DB	08H
	DB	08H
	DB	08H
	DB	08H
	DB	08H
	DB	08H
	DB	08H
	DB	08H
	DB	08H
	DB	08H
	DB	08H
	DB	08H
	DB	08H
	DB	08H
	DB	08H
	DB	08H
	DB	08H
	DB	08H
	DB	08H
	DB	08H
	DB	08H
	DB	08H
	DB	01H
	DB	01H
	DB	01H
	DB	01H
	DB	03H
	DB	02cH
	DB	049H
	DB	08H
	DB	08H
	DB	08H
	DB	08H
	DB	08H
	DB	08H
	DB	08H
	DB	08H
	DB	08H
	DB	08H
	DB	07H
	DB	01cH
	DB	05H
	DB	0aH
	DB	086H
	DB	086H
	DB	05H
	DB	05H
	DB	05H
	DB	05H
	DB	05H
	DB	05H
	DB	05H
	DB	05H
	DB	057H
	DB	057H
	DB	057H
	DB	057H
	DB	057H
	DB	04H
	DB	04H
	DB	04H
	DB	04H
	DB	04H
	DB	04H
	DB	04H
	DB	044H
	DB	044H
	DB	044H
	DB	044H
	DB	044H
	DB	044H
	DB	03H
	DB	03H
	DB	03H
	DB	03H
	DB	03H
	DB	03H
	DB	03H
	DB	03H
	DB	0c4H
	DB	0c4H
	DB	0c4H
	DB	0c4H
	DB	0c4H
	DB	0c4H
	DB	0c4H
	DB	0c4H
	DB	0c4H
	DB	0c4H
	DB	0c4H
	DB	0c4H
	DB	01H
	DB	01H
	DB	01H
	DB	01H
	DB	01H
	DB	01H
	DB	01H
	DB	01H
	DB	01H
	DB	01H
	DB	01H
	DB	01H
	DB	01H
	DB	01H
	DB	01H
	DB	01H
	DB	01H
	DB	01H
	DB	01H
	DB	01H
	DB	01H
	DB	01H
	DB	01H
	DB	01H
	DB	01H
	DB	01H
	DB	01H
	DB	01H
	DB	01H
	DB	01H
	DB	01H
	DB	01H
	DB	01H
	DB	01H
	DB	01H
	DB	01H
	DB	01H
	DB	01H
	DB	01H
	DB	01H
	DB	01H
	DB	01H
	DB	01H
	DB	01H
	DB	01H
	DB	01H
	DB	01H
	DB	01H
	DB	01H
	DB	01H
	DB	01H
	DB	01H
	DB	01H
	DB	01H
	DB	01H
	DB	01H
	DB	01H
	DB	0c4H
	DB	0c4H
	DB	0c4H
	DB	0c4H
	DB	0c4H
	DB	0c4H
	DB	0c4H
	DB	0c4H
	DB	0c4H
	DB	0c4H
	DB	0c4H
	DB	0c4H
	DB	0c4H
	DB	0c4H
	DB	0c4H
	DB	0c4H
	DB	0c4H
	DB	0c4H
	DB	0c4H
	DB	0c4H
	DB	0c4H
	DB	0c4H
	DB	0c4H
	DB	0c4H
	DB	0c4H
	DB	0c4H
	DB	0c4H
	DB	0c4H
	DB	0c4H
	DB	0c4H
	DB	0c4H
	DB	0c4H
	DB	0c4H
	DB	03H
	DB	03H
	DB	03H
	DB	03H
	DB	03H
	DB	03H
	DB	03H
	DB	03H
	DB	03H
	DB	03H
	DB	03H
	DB	03H
	DB	044H
	DB	044H
	DB	044H
	DB	044H
	DB	044H
	DB	044H
	DB	04H
	DB	03cH
	DB	087H
	DB	080H
	DB	087H
	DB	053H
	DB	056H
	DB	03cH
	DB	01aH
	DB	01aH
	DB	01aH
	DB	01aH
	DB	01aH
	DB	01aH
	DB	0e6H
	DB	02aH
	DB	02aH
	DB	02aH
	DB	02aH
	DB	02aH
	DB	02aH
	DB	02aH
	DB	02aH
	DB	02aH
	DB	02aH
	DB	02aH
	DB	01aH
	DB	053H
	DB	02bH
	DB	03fH
	DB	03fH
	DB	025H
	DB	015H
	DB	015H
	DB	010H
	DB	011H
	DB	02H
	DB	011H
	DB	0b6H
	DB	018H
	DB	018H
	DB	018H
	DB	018H
	DB	018H
	DB	018H
	DB	018H
	DB	018H
	DB	018H
	DB	018H
	DB	018H
	DB	018H
	DB	018H
	DB	039H
	DB	02bH
	DB	0a7H
	DB	078H
	DB	08aH
	DB	01dH
	DB	08dH
	DB	018H
	DB	095H
	DB	096H
	DB	040H
	DB	03dH
	DB	023H
	DB	021H
	DB	076H
	DB	012H
	DB	03aH
	DB	070H
	DB	07dH
	DB	016H
	DB	016H
	DB	0feH
	DB	070H
	DB	090H
	DB	0b7H
	DB	060H
	DB	070H
	DB	047H
	DB	016H
	DB	051H
	DB	02bH
	DB	010H
	DB	010H
	DB	011H
	DB	02H
	DB	07H
	DB	07H
	DB	08H
	DB	08H
	DB	08H
	DB	08H
	DB	08H
	DB	08H
	DB	08H
	DB	08H
	DB	08H
	DB	08H
	DB	08H
	DB	08H
	DB	08H
	DB	08H
	DB	08H
	DB	08H
	DB	08H
	DB	08H
	DB	08H
	DB	08H
	DB	08H
	DB	08H
	DB	08H
	DB	08H
	DB	08H
	DB	08H
	DB	08H
	DB	08H
	DB	08H
	DB	08H
	DB	08H
	DB	08H
	DB	08H
	DB	08H
	DB	08H
	DB	08H
	DB	08H
	DB	08H
	DB	08H
	DB	01H
	DB	01H
	DB	01H
	DB	01H
	DB	03H
	DB	02cH
	DB	049H
	DB	08H
	DB	08H
	DB	08H
	DB	08H
	DB	08H
	DB	08H
	DB	08H
	DB	08H
	DB	08H
	DB	08H
	DB	07H
	DB	01cH
	DB	05H
	DB	0aH
	DB	086H
	DB	086H
	DB	086H
	DB	05H
	DB	05H
	DB	05H
	DB	05H
	DB	05H
	DB	05H
	DB	05H
	DB	057H
	DB	057H
	DB	057H
	DB	057H
	DB	057H
	DB	04H
	DB	04H
	DB	04H
	DB	04H
	DB	04H
	DB	04H
	DB	04H
	DB	04H
	DB	04H
	DB	044H
	DB	044H
	DB	044H
	DB	044H
	DB	03H
	DB	03H
	DB	03H
	DB	03H
	DB	03H
	DB	03H
	DB	03H
	DB	03H
	DB	03H
	DB	03H
	DB	0c4H
	DB	0c4H
	DB	0c4H
	DB	0c4H
	DB	0c4H
	DB	0c4H
	DB	0c4H
	DB	0c4H
	DB	0c4H
	DB	0c4H
	DB	0c4H
	DB	0c4H
	DB	0c4H
	DB	01H
	DB	01H
	DB	01H
	DB	01H
	DB	01H
	DB	01H
	DB	01H
	DB	01H
	DB	01H
	DB	01H
	DB	01H
	DB	01H
	DB	01H
	DB	01H
	DB	01H
	DB	01H
	DB	01H
	DB	01H
	DB	01H
	DB	01H
	DB	01H
	DB	01H
	DB	01H
	DB	01H
	DB	01H
	DB	01H
	DB	01H
	DB	01H
	DB	01H
	DB	01H
	DB	01H
	DB	01H
	DB	01H
	DB	01H
	DB	01H
	DB	01H
	DB	01H
	DB	01H
	DB	01H
	DB	01H
	DB	01H
	DB	01H
	DB	01H
	DB	01H
	DB	01H
	DB	01H
	DB	01H
	DB	01H
	DB	01H
	DB	01H
	DB	01H
	DB	01H
	DB	01H
	DB	01H
	DB	0c4H
	DB	0c4H
	DB	0c4H
	DB	0c4H
	DB	0c4H
	DB	0c4H
	DB	0c4H
	DB	0c4H
	DB	0c4H
	DB	0c4H
	DB	0c4H
	DB	0c4H
	DB	0c4H
	DB	0c4H
	DB	0c4H
	DB	0c4H
	DB	0c4H
	DB	0c4H
	DB	0c4H
	DB	0c4H
	DB	0c4H
	DB	0c4H
	DB	0c4H
	DB	0c4H
	DB	0c4H
	DB	0c4H
	DB	0c4H
	DB	0c4H
	DB	0c4H
	DB	0c4H
	DB	0c4H
	DB	03H
	DB	03H
	DB	03H
	DB	03H
	DB	03H
	DB	03H
	DB	03H
	DB	03H
	DB	03H
	DB	03H
	DB	03H
	DB	03H
	DB	03H
	DB	044H
	DB	044H
	DB	044H
	DB	044H
	DB	044H
	DB	044H
	DB	044H
	DB	04H
	DB	03cH
	DB	080H
	DB	080H
	DB	087H
	DB	04H
	DB	056H
	DB	03cH
	DB	03cH
	DB	01aH
	DB	01aH
	DB	01aH
	DB	01aH
	DB	01aH
	DB	01aH
	DB	01aH
	DB	02aH
	DB	02aH
	DB	02aH
	DB	02aH
	DB	02aH
	DB	02aH
	DB	02aH
	DB	02aH
	DB	02aH
	DB	01aH
	DB	053H
	DB	032H
	DB	03fH
	DB	03fH
	DB	03fH
	DB	032H
	DB	015H
	DB	010H
	DB	010H
	DB	011H
	DB	02H
	DB	011H
	DB	08aH
	DB	01dH
	DB	01dH
	DB	018H
	DB	018H
	DB	018H
	DB	018H
	DB	018H
	DB	018H
	DB	018H
	DB	018H
	DB	018H
	DB	018H
	DB	018H
	DB	059H
	DB	064H
	DB	061H
	DB	050H
	DB	01dH
	DB	075H
	DB	095H
	DB	018H
	DB	089H
	DB	075H
	DB	040H
	DB	03dH
	DB	0baH
	DB	023H
	DB	021H
	DB	0dbH
	DB	041H
	DB	0d5H
	DB	098H
	DB	0c7H
	DB	090H
	DB	016H
	DB	016H
	DB	016H
	DB	016H
	DB	016H
	DB	016H
	DB	016H
	DB	016H
	DB	0dbH
	DB	032H
	DB	015H
	DB	010H
	DB	011H
	DB	02H
	DB	07H
	DB	07H
	DB	08H
	DB	08H
	DB	08H
	DB	08H
	DB	08H
	DB	08H
	DB	08H
	DB	08H
	DB	08H
	DB	08H
	DB	08H
	DB	08H
	DB	08H
	DB	08H
	DB	08H
	DB	08H
	DB	08H
	DB	08H
	DB	08H
	DB	08H
	DB	08H
	DB	08H
	DB	08H
	DB	08H
	DB	08H
	DB	08H
	DB	08H
	DB	08H
	DB	08H
	DB	08H
	DB	08H
	DB	08H
	DB	08H
	DB	08H
	DB	08H
	DB	08H
	DB	08H
	DB	08H
	DB	08H
	DB	01H
	DB	01H
	DB	01H
	DB	01H
	DB	03H
	DB	02cH
	DB	049H
	DB	08H
	DB	08H
	DB	08H
	DB	08H
	DB	08H
	DB	08H
	DB	08H
	DB	08H
	DB	08H
	DB	08H
	DB	07H
	DB	01cH
	DB	05H
	DB	0aH
	DB	086H
	DB	086H
	DB	086H
	DB	05H
	DB	05H
	DB	05H
	DB	05H
	DB	05H
	DB	05H
	DB	05H
	DB	05H
	DB	057H
	DB	057H
	DB	057H
	DB	057H
	DB	057H
	DB	04H
	DB	04H
	DB	04H
	DB	04H
	DB	04H
	DB	04H
	DB	04H
	DB	04H
	DB	044H
	DB	044H
	DB	044H
	DB	044H
	DB	044H
	DB	044H
	DB	03H
	DB	03H
	DB	03H
	DB	03H
	DB	03H
	DB	03H
	DB	03H
	DB	03H
	DB	03H
	DB	0c4H
	DB	0c4H
	DB	0c4H
	DB	0c4H
	DB	0c4H
	DB	0c4H
	DB	0c4H
	DB	0c4H
	DB	0c4H
	DB	0c4H
	DB	0c4H
	DB	0c4H
	DB	0c4H
	DB	01H
	DB	01H
	DB	01H
	DB	01H
	DB	01H
	DB	01H
	DB	01H
	DB	01H
	DB	01H
	DB	01H
	DB	01H
	DB	01H
	DB	01H
	DB	01H
	DB	01H
	DB	01H
	DB	01H
	DB	01H
	DB	01H
	DB	01H
	DB	01H
	DB	01H
	DB	01H
	DB	01H
	DB	01H
	DB	01H
	DB	01H
	DB	01H
	DB	01H
	DB	01H
	DB	01H
	DB	01H
	DB	01H
	DB	01H
	DB	01H
	DB	01H
	DB	01H
	DB	01H
	DB	01H
	DB	01H
	DB	01H
	DB	01H
	DB	01H
	DB	01H
	DB	01H
	DB	01H
	DB	01H
	DB	01H
	DB	01H
	DB	01H
	DB	01H
	DB	01H
	DB	01H
	DB	0c4H
	DB	0c4H
	DB	0c4H
	DB	0c4H
	DB	0c4H
	DB	0c4H
	DB	0c4H
	DB	0c4H
	DB	0c4H
	DB	0c4H
	DB	0c4H
	DB	0c4H
	DB	0c4H
	DB	0c4H
	DB	0c4H
	DB	0c4H
	DB	0c4H
	DB	0c4H
	DB	0c4H
	DB	0c4H
	DB	0c4H
	DB	0c4H
	DB	0c4H
	DB	0c4H
	DB	0c4H
	DB	0c4H
	DB	0c4H
	DB	0c4H
	DB	0c4H
	DB	0c4H
	DB	03H
	DB	03H
	DB	03H
	DB	03H
	DB	03H
	DB	03H
	DB	03H
	DB	03H
	DB	03H
	DB	03H
	DB	03H
	DB	03H
	DB	03H
	DB	03H
	DB	044H
	DB	044H
	DB	044H
	DB	044H
	DB	044H
	DB	044H
	DB	044H
	DB	04H
	DB	03cH
	DB	042H
	DB	07fH
	DB	080H
	DB	03cH
	DB	053H
	DB	053H
	DB	053H
	DB	053H
	DB	053H
	DB	01aH
	DB	01aH
	DB	01aH
	DB	01aH
	DB	01aH
	DB	01aH
	DB	01aH
	DB	02aH
	DB	02aH
	DB	02aH
	DB	02aH
	DB	02aH
	DB	02aH
	DB	02aH
	DB	01aH
	DB	053H
	DB	03bH
	DB	03fH
	DB	03fH
	DB	02bH
	DB	015H
	DB	015H
	DB	010H
	DB	010H
	DB	011H
	DB	02H
	DB	011H
	DB	08fH
	DB	01dH
	DB	01dH
	DB	01dH
	DB	018H
	DB	018H
	DB	018H
	DB	018H
	DB	018H
	DB	018H
	DB	018H
	DB	018H
	DB	018H
	DB	061H
	DB	050H
	DB	018H
	DB	08eH
	DB	08aH
	DB	01dH
	DB	0ceH
	DB	075H
	DB	018H
	DB	040H
	DB	045H
	DB	040H
	DB	0a0H
	DB	01fH
	DB	01fH
	DB	023H
	DB	069H
	DB	035H
	DB	016H
	DB	016H
	DB	035H
	DB	0c9H
	DB	098H
	DB	03aH
	DB	016H
	DB	028H
	DB	016H
	DB	012H
	DB	016H
	DB	028H
	DB	060H
	DB	015H
	DB	015H
	DB	010H
	DB	011H
	DB	02H
	DB	07H
	DB	07H
	DB	08H
	DB	08H
	DB	08H
	DB	08H
	DB	08H
	DB	08H
	DB	08H
	DB	08H
	DB	08H
	DB	08H
	DB	08H
	DB	08H
	DB	08H
	DB	08H
	DB	08H
	DB	08H
	DB	08H
	DB	08H
	DB	08H
	DB	08H
	DB	08H
	DB	08H
	DB	08H
	DB	08H
	DB	08H
	DB	08H
	DB	08H
	DB	08H
	DB	08H
	DB	08H
	DB	08H
	DB	08H
	DB	08H
	DB	08H
	DB	08H
	DB	08H
	DB	08H
	DB	08H
	DB	08H
	DB	01H
	DB	01H
	DB	01H
	DB	01H
	DB	03H
	DB	02cH
	DB	049H
	DB	08H
	DB	08H
	DB	08H
	DB	08H
	DB	08H
	DB	08H
	DB	08H
	DB	08H
	DB	08H
	DB	08H
	DB	07H
	DB	01cH
	DB	05H
	DB	0aH
	DB	086H
	DB	086H
	DB	086H
	DB	05H
	DB	05H
	DB	05H
	DB	05H
	DB	05H
	DB	05H
	DB	05H
	DB	05H
	DB	05H
	DB	057H
	DB	057H
	DB	057H
	DB	057H
	DB	04H
	DB	04H
	DB	04H
	DB	04H
	DB	04H
	DB	04H
	DB	04H
	DB	04H
	DB	04H
	DB	044H
	DB	044H
	DB	044H
	DB	044H
	DB	044H
	DB	044H
	DB	03H
	DB	03H
	DB	03H
	DB	03H
	DB	03H
	DB	03H
	DB	03H
	DB	03H
	DB	03H
	DB	0c4H
	DB	0c4H
	DB	0c4H
	DB	0c4H
	DB	0c4H
	DB	0c4H
	DB	0c4H
	DB	0c4H
	DB	0c4H
	DB	0c4H
	DB	0c4H
	DB	0c4H
	DB	0c4H
	DB	0c4H
	DB	01H
	DB	01H
	DB	01H
	DB	01H
	DB	01H
	DB	01H
	DB	01H
	DB	01H
	DB	01H
	DB	01H
	DB	01H
	DB	01H
	DB	01H
	DB	01H
	DB	01H
	DB	01H
	DB	01H
	DB	01H
	DB	01H
	DB	01H
	DB	01H
	DB	01H
	DB	01H
	DB	01H
	DB	01H
	DB	01H
	DB	01H
	DB	01H
	DB	01H
	DB	01H
	DB	01H
	DB	01H
	DB	01H
	DB	01H
	DB	01H
	DB	01H
	DB	01H
	DB	01H
	DB	01H
	DB	01H
	DB	01H
	DB	01H
	DB	01H
	DB	01H
	DB	01H
	DB	01H
	DB	01H
	DB	01H
	DB	01H
	DB	01H
	DB	01H
	DB	0c4H
	DB	0c4H
	DB	0c4H
	DB	0c4H
	DB	0c4H
	DB	0c4H
	DB	0c4H
	DB	0c4H
	DB	0c4H
	DB	0c4H
	DB	0c4H
	DB	0c4H
	DB	0c4H
	DB	0c4H
	DB	0c4H
	DB	0c4H
	DB	0c4H
	DB	0c4H
	DB	0c4H
	DB	0c4H
	DB	0c4H
	DB	0c4H
	DB	0c4H
	DB	0c4H
	DB	0c4H
	DB	0c4H
	DB	0c4H
	DB	0c4H
	DB	03H
	DB	03H
	DB	03H
	DB	03H
	DB	03H
	DB	03H
	DB	03H
	DB	03H
	DB	03H
	DB	03H
	DB	03H
	DB	03H
	DB	03H
	DB	03H
	DB	03H
	DB	044H
	DB	044H
	DB	044H
	DB	044H
	DB	044H
	DB	044H
	DB	044H
	DB	044H
	DB	04H
	DB	042H
	DB	0e6H
	DB	042H
	DB	080H
	DB	080H
	DB	080H
	DB	087H
	DB	0d2H
	DB	053H
	DB	053H
	DB	014H
	DB	014H
	DB	053H
	DB	056H
	DB	01aH
	DB	01aH
	DB	01aH
	DB	01aH
	DB	02aH
	DB	02aH
	DB	02aH
	DB	02aH
	DB	02aH
	DB	02aH
	DB	01aH
	DB	053H
	DB	050H
	DB	03fH
	DB	03fH
	DB	025H
	DB	015H
	DB	015H
	DB	010H
	DB	011H
	DB	02H
	DB	02H
	DB	011H
	DB	08fH
	DB	01dH
	DB	01dH
	DB	01dH
	DB	01dH
	DB	018H
	DB	018H
	DB	018H
	DB	018H
	DB	018H
	DB	018H
	DB	018H
	DB	018H
	DB	040H
	DB	095H
	DB	018H
	DB	072H
	DB	08fH
	DB	01dH
	DB	040H
	DB	061H
	DB	018H
	DB	040H
	DB	045H
	DB	040H
	DB	0a0H
	DB	03eH
	DB	03eH
	DB	023H
	DB	021H
	DB	021H
	DB	028H
	DB	016H
	DB	012H
	DB	012H
	DB	090H
	DB	0c7H
	DB	07dH
	DB	016H
	DB	028H
	DB	012H
	DB	016H
	DB	035H
	DB	073H
	DB	015H
	DB	010H
	DB	010H
	DB	011H
	DB	02H
	DB	07H
	DB	07H
	DB	08H
	DB	08H
	DB	08H
	DB	08H
	DB	08H
	DB	08H
	DB	08H
	DB	08H
	DB	08H
	DB	08H
	DB	08H
	DB	08H
	DB	08H
	DB	08H
	DB	08H
	DB	08H
	DB	08H
	DB	08H
	DB	08H
	DB	08H
	DB	08H
	DB	08H
	DB	08H
	DB	08H
	DB	08H
	DB	08H
	DB	08H
	DB	08H
	DB	08H
	DB	08H
	DB	08H
	DB	08H
	DB	08H
	DB	08H
	DB	08H
	DB	08H
	DB	08H
	DB	08H
	DB	08H
	DB	01H
	DB	01H
	DB	01H
	DB	01H
	DB	03H
	DB	02cH
	DB	049H
	DB	08H
	DB	08H
	DB	08H
	DB	08H
	DB	08H
	DB	08H
	DB	08H
	DB	08H
	DB	08H
	DB	08H
	DB	07H
	DB	01cH
	DB	05H
	DB	0aH
	DB	086H
	DB	086H
	DB	086H
	DB	086H
	DB	05H
	DB	05H
	DB	05H
	DB	05H
	DB	05H
	DB	05H
	DB	05H
	DB	05H
	DB	057H
	DB	057H
	DB	057H
	DB	057H
	DB	057H
	DB	057H
	DB	04H
	DB	04H
	DB	04H
	DB	04H
	DB	04H
	DB	04H
	DB	04H
	DB	04H
	DB	044H
	DB	044H
	DB	044H
	DB	044H
	DB	044H
	DB	044H
	DB	044H
	DB	03H
	DB	03H
	DB	03H
	DB	03H
	DB	03H
	DB	03H
	DB	03H
	DB	03H
	DB	03H
	DB	0c4H
	DB	0c4H
	DB	0c4H
	DB	0c4H
	DB	0c4H
	DB	0c4H
	DB	0c4H
	DB	0c4H
	DB	0c4H
	DB	0c4H
	DB	0c4H
	DB	0c4H
	DB	0c4H
	DB	01H
	DB	01H
	DB	01H
	DB	01H
	DB	01H
	DB	01H
	DB	01H
	DB	01H
	DB	01H
	DB	01H
	DB	01H
	DB	01H
	DB	01H
	DB	01H
	DB	01H
	DB	01H
	DB	01H
	DB	01H
	DB	01H
	DB	01H
	DB	01H
	DB	01H
	DB	01H
	DB	01H
	DB	01H
	DB	01H
	DB	01H
	DB	01H
	DB	01H
	DB	01H
	DB	01H
	DB	01H
	DB	01H
	DB	01H
	DB	01H
	DB	01H
	DB	01H
	DB	01H
	DB	01H
	DB	01H
	DB	01H
	DB	01H
	DB	01H
	DB	01H
	DB	01H
	DB	01H
	DB	01H
	DB	01H
	DB	01H
	DB	01H
	DB	0c4H
	DB	0c4H
	DB	0c4H
	DB	0c4H
	DB	0c4H
	DB	0c4H
	DB	0c4H
	DB	0c4H
	DB	0c4H
	DB	0c4H
	DB	0c4H
	DB	0c4H
	DB	0c4H
	DB	0c4H
	DB	0c4H
	DB	0c4H
	DB	0c4H
	DB	0c4H
	DB	0c4H
	DB	0c4H
	DB	0c4H
	DB	0c4H
	DB	0c4H
	DB	0c4H
	DB	0c4H
	DB	03H
	DB	03H
	DB	03H
	DB	03H
	DB	03H
	DB	03H
	DB	03H
	DB	03H
	DB	03H
	DB	03H
	DB	03H
	DB	03H
	DB	03H
	DB	03H
	DB	03H
	DB	03H
	DB	03H
	DB	03H
	DB	044H
	DB	044H
	DB	044H
	DB	044H
	DB	044H
	DB	044H
	DB	044H
	DB	044H
	DB	053H
	DB	042H
	DB	0e6H
	DB	02aH
	DB	02aH
	DB	042H
	DB	07fH
	DB	07fH
	DB	080H
	DB	07fH
	DB	042H
	DB	042H
	DB	03cH
	DB	0d2H
	DB	053H
	DB	014H
	DB	014H
	DB	01aH
	DB	01aH
	DB	01aH
	DB	02aH
	DB	02aH
	DB	02aH
	DB	02aH
	DB	01aH
	DB	053H
	DB	048H
	DB	03fH
	DB	03fH
	DB	050H
	DB	015H
	DB	015H
	DB	010H
	DB	010H
	DB	011H
	DB	02H
	DB	07H
	DB	011H
	DB	08fH
	DB	01dH
	DB	01dH
	DB	01dH
	DB	01dH
	DB	01dH
	DB	018H
	DB	018H
	DB	018H
	DB	018H
	DB	018H
	DB	018H
	DB	075H
	DB	050H
	DB	018H
	DB	018H
	DB	050H
	DB	01dH
	DB	01dH
	DB	040H
	DB	061H
	DB	018H
	DB	03fH
	DB	045H
	DB	040H
	DB	055H
	DB	05fH
	DB	05fH
	DB	03dH
	DB	021H
	DB	028H
	DB	035H
	DB	07dH
	DB	070H
	DB	035H
	DB	012H
	DB	035H
	DB	02bH
	DB	0dbH
	DB	016H
	DB	016H
	DB	016H
	DB	070H
	DB	048H
	DB	015H
	DB	010H
	DB	010H
	DB	011H
	DB	02H
	DB	07H
	DB	07H
	DB	08H
	DB	08H
	DB	08H
	DB	08H
	DB	08H
	DB	08H
	DB	08H
	DB	08H
	DB	08H
	DB	08H
	DB	08H
	DB	08H
	DB	08H
	DB	08H
	DB	08H
	DB	08H
	DB	08H
	DB	08H
	DB	08H
	DB	08H
	DB	08H
	DB	08H
	DB	08H
	DB	08H
	DB	08H
	DB	08H
	DB	08H
	DB	08H
	DB	08H
	DB	08H
	DB	08H
	DB	08H
	DB	08H
	DB	08H
	DB	08H
	DB	08H
	DB	08H
	DB	08H
	DB	08H
	DB	01H
	DB	01H
	DB	01H
	DB	01H
	DB	03H
	DB	02cH
	DB	049H
	DB	08H
	DB	08H
	DB	08H
	DB	08H
	DB	08H
	DB	08H
	DB	08H
	DB	08H
	DB	08H
	DB	08H
	DB	07H
	DB	01cH
	DB	05H
	DB	0aH
	DB	086H
	DB	086H
	DB	086H
	DB	086H
	DB	05H
	DB	05H
	DB	05H
	DB	05H
	DB	05H
	DB	05H
	DB	05H
	DB	05H
	DB	05H
	DB	057H
	DB	057H
	DB	057H
	DB	057H
	DB	057H
	DB	04H
	DB	04H
	DB	04H
	DB	04H
	DB	04H
	DB	04H
	DB	04H
	DB	04H
	DB	04H
	DB	044H
	DB	044H
	DB	044H
	DB	044H
	DB	044H
	DB	044H
	DB	03H
	DB	03H
	DB	03H
	DB	03H
	DB	03H
	DB	03H
	DB	03H
	DB	03H
	DB	03H
	DB	03H
	DB	0c4H
	DB	0c4H
	DB	0c4H
	DB	0c4H
	DB	0c4H
	DB	0c4H
	DB	0c4H
	DB	0c4H
	DB	0c4H
	DB	0c4H
	DB	0c4H
	DB	0c4H
	DB	0c4H
	DB	01H
	DB	01H
	DB	01H
	DB	01H
	DB	01H
	DB	01H
	DB	01H
	DB	01H
	DB	01H
	DB	01H
	DB	01H
	DB	01H
	DB	01H
	DB	01H
	DB	01H
	DB	01H
	DB	01H
	DB	01H
	DB	01H
	DB	01H
	DB	01H
	DB	01H
	DB	01H
	DB	01H
	DB	01H
	DB	01H
	DB	01H
	DB	01H
	DB	01H
	DB	01H
	DB	01H
	DB	01H
	DB	01H
	DB	01H
	DB	01H
	DB	01H
	DB	01H
	DB	01H
	DB	01H
	DB	01H
	DB	01H
	DB	01H
	DB	01H
	DB	01H
	DB	01H
	DB	01H
	DB	01H
	DB	01H
	DB	01H
	DB	01H
	DB	0c4H
	DB	0c4H
	DB	0c4H
	DB	0c4H
	DB	0c4H
	DB	0c4H
	DB	0c4H
	DB	0c4H
	DB	0c4H
	DB	0c4H
	DB	0c4H
	DB	0c4H
	DB	0c4H
	DB	0c4H
	DB	0c4H
	DB	0c4H
	DB	0c4H
	DB	0c4H
	DB	0c4H
	DB	0c4H
	DB	0c4H
	DB	0c4H
	DB	0c4H
	DB	03H
	DB	03H
	DB	03H
	DB	03H
	DB	03H
	DB	03H
	DB	03H
	DB	03H
	DB	03H
	DB	03H
	DB	03H
	DB	03H
	DB	03H
	DB	03H
	DB	03H
	DB	03H
	DB	03H
	DB	03H
	DB	03H
	DB	044H
	DB	044H
	DB	044H
	DB	044H
	DB	044H
	DB	044H
	DB	044H
	DB	044H
	DB	053H
	DB	0e6H
	DB	0e6H
	DB	0e6H
	DB	0e6H
	DB	0e6H
	DB	02aH
	DB	01aH
	DB	01aH
	DB	02aH
	DB	042H
	DB	07fH
	DB	07fH
	DB	080H
	DB	080H
	DB	042H
	DB	053H
	DB	014H
	DB	01aH
	DB	01aH
	DB	02aH
	DB	02aH
	DB	02aH
	DB	02aH
	DB	01aH
	DB	053H
	DB	03bH
	DB	03fH
	DB	03fH
	DB	025H
	DB	015H
	DB	015H
	DB	010H
	DB	010H
	DB	011H
	DB	02H
	DB	07H
	DB	04bH
	DB	0b9H
	DB	01dH
	DB	01dH
	DB	01dH
	DB	01dH
	DB	045H
	DB	01dH
	DB	018H
	DB	018H
	DB	018H
	DB	018H
	DB	018H
	DB	040H
	DB	079H
	DB	039H
	DB	08eH
	DB	0beH
	DB	01dH
	DB	01dH
	DB	050H
	DB	018H
	DB	039H
	DB	03fH
	DB	045H
	DB	040H
	DB	055H
	DB	04aH
	DB	05fH
	DB	0caH
	DB	0d5H
	DB	0d5H
	DB	053H
	DB	014H
	DB	014H
	DB	053H
	DB	0b7H
	DB	016H
	DB	047H
	DB	035H
	DB	016H
	DB	028H
	DB	021H
	DB	041H
	DB	032H
	DB	015H
	DB	010H
	DB	010H
	DB	011H
	DB	07H
	DB	07H
	DB	07H
	DB	08H
	DB	08H
	DB	08H
	DB	08H
	DB	08H
	DB	08H
	DB	08H
	DB	08H
	DB	08H
	DB	08H
	DB	08H
	DB	08H
	DB	08H
	DB	08H
	DB	08H
	DB	08H
	DB	08H
	DB	08H
	DB	08H
	DB	08H
	DB	08H
	DB	08H
	DB	08H
	DB	08H
	DB	08H
	DB	08H
	DB	08H
	DB	08H
	DB	08H
	DB	08H
	DB	08H
	DB	08H
	DB	08H
	DB	08H
	DB	08H
	DB	08H
	DB	08H
	DB	08H
	DB	08H
	DB	01H
	DB	01H
	DB	01H
	DB	01H
	DB	03H
	DB	02cH
	DB	049H
	DB	08H
	DB	08H
	DB	08H
	DB	08H
	DB	08H
	DB	08H
	DB	08H
	DB	08H
	DB	08H
	DB	08H
	DB	07H
	DB	01cH
	DB	05H
	DB	0aH
	DB	086H
	DB	086H
	DB	086H
	DB	086H
	DB	05H
	DB	05H
	DB	05H
	DB	05H
	DB	05H
	DB	05H
	DB	05H
	DB	05H
	DB	05H
	DB	057H
	DB	057H
	DB	057H
	DB	057H
	DB	057H
	DB	057H
	DB	04H
	DB	04H
	DB	04H
	DB	04H
	DB	04H
	DB	04H
	DB	04H
	DB	04H
	DB	04H
	DB	044H
	DB	044H
	DB	044H
	DB	044H
	DB	044H
	DB	044H
	DB	044H
	DB	03H
	DB	03H
	DB	03H
	DB	03H
	DB	03H
	DB	03H
	DB	03H
	DB	03H
	DB	0c4H
	DB	0c4H
	DB	0c4H
	DB	0c4H
	DB	0c4H
	DB	0c4H
	DB	0c4H
	DB	0c4H
	DB	0c4H
	DB	0c4H
	DB	0c4H
	DB	0c4H
	DB	0c4H
	DB	0c4H
	DB	01H
	DB	01H
	DB	01H
	DB	01H
	DB	01H
	DB	01H
	DB	01H
	DB	01H
	DB	01H
	DB	01H
	DB	01H
	DB	01H
	DB	01H
	DB	01H
	DB	01H
	DB	01H
	DB	01H
	DB	01H
	DB	01H
	DB	01H
	DB	01H
	DB	01H
	DB	01H
	DB	01H
	DB	01H
	DB	01H
	DB	01H
	DB	01H
	DB	01H
	DB	01H
	DB	01H
	DB	01H
	DB	01H
	DB	01H
	DB	01H
	DB	01H
	DB	01H
	DB	01H
	DB	01H
	DB	01H
	DB	01H
	DB	01H
	DB	01H
	DB	01H
	DB	01H
	DB	01H
	DB	01H
	DB	01H
	DB	01H
	DB	0c4H
	DB	0c4H
	DB	0c4H
	DB	0c4H
	DB	0c4H
	DB	0c4H
	DB	0c4H
	DB	0c4H
	DB	0c4H
	DB	03H
	DB	03H
	DB	03H
	DB	03H
	DB	03H
	DB	03H
	DB	03H
	DB	03H
	DB	03H
	DB	03H
	DB	03H
	DB	03H
	DB	03H
	DB	03H
	DB	03H
	DB	03H
	DB	03H
	DB	03H
	DB	03H
	DB	03H
	DB	03H
	DB	03H
	DB	03H
	DB	03H
	DB	03H
	DB	03H
	DB	03H
	DB	03H
	DB	03H
	DB	03H
	DB	03H
	DB	044H
	DB	044H
	DB	044H
	DB	044H
	DB	044H
	DB	044H
	DB	044H
	DB	044H
	DB	044H
	DB	04H
	DB	03cH
	DB	02aH
	DB	02aH
	DB	02aH
	DB	01aH
	DB	01aH
	DB	01aH
	DB	01aH
	DB	01aH
	DB	01aH
	DB	01aH
	DB	01aH
	DB	01aH
	DB	02aH
	DB	042H
	DB	07fH
	DB	087H
	DB	053H
	DB	053H
	DB	01aH
	DB	02aH
	DB	02aH
	DB	02aH
	DB	02aH
	DB	01aH
	DB	032H
	DB	03fH
	DB	03fH
	DB	050H
	DB	015H
	DB	015H
	DB	015H
	DB	010H
	DB	011H
	DB	02H
	DB	07H
	DB	07H
	DB	011H
	DB	096H
	DB	01dH
	DB	01dH
	DB	01dH
	DB	01dH
	DB	072H
	DB	061H
	DB	018H
	DB	018H
	DB	018H
	DB	018H
	DB	061H
	DB	050H
	DB	074H
	DB	039H
	DB	064H
	DB	095H
	DB	018H
	DB	045H
	DB	040H
	DB	018H
	DB	039H
	DB	050H
	DB	045H
	DB	064H
	DB	055H
	DB	07bH
	DB	067H
	DB	03dH
	DB	04cH
	DB	0aH
	DB	0e7H
	DB	0dcH
	DB	084H
	DB	07dH
	DB	0d5H
	DB	041H
	DB	016H
	DB	016H
	DB	047H
	DB	052H
	DB	052H
	DB	03bH
	DB	015H
	DB	015H
	DB	010H
	DB	011H
	DB	02H
	DB	07H
	DB	07H
	DB	08H
	DB	08H
	DB	08H
	DB	08H
	DB	08H
	DB	08H
	DB	08H
	DB	08H
	DB	08H
	DB	08H
	DB	08H
	DB	08H
	DB	08H
	DB	08H
	DB	08H
	DB	08H
	DB	08H
	DB	08H
	DB	08H
	DB	08H
	DB	08H
	DB	08H
	DB	08H
	DB	08H
	DB	08H
	DB	08H
	DB	08H
	DB	08H
	DB	08H
	DB	08H
	DB	08H
	DB	08H
	DB	08H
	DB	08H
	DB	08H
	DB	08H
	DB	08H
	DB	08H
	DB	08H
	DB	08H
	DB	01H
	DB	01H
	DB	01H
	DB	01H
	DB	03H
	DB	02cH
	DB	049H
	DB	08H
	DB	08H
	DB	08H
	DB	08H
	DB	08H
	DB	08H
	DB	08H
	DB	08H
	DB	08H
	DB	08H
	DB	07H
	DB	01cH
	DB	05H
	DB	0aH
	DB	086H
	DB	086H
	DB	086H
	DB	086H
	DB	086H
	DB	086H
	DB	05H
	DB	05H
	DB	05H
	DB	05H
	DB	05H
	DB	05H
	DB	05H
	DB	05H
	DB	05H
	DB	057H
	DB	057H
	DB	057H
	DB	057H
	DB	057H
	DB	04H
	DB	04H
	DB	04H
	DB	04H
	DB	04H
	DB	04H
	DB	04H
	DB	04H
	DB	04H
	DB	04H
	DB	044H
	DB	044H
	DB	044H
	DB	044H
	DB	044H
	DB	044H
	DB	044H
	DB	03H
	DB	03H
	DB	03H
	DB	03H
	DB	03H
	DB	03H
	DB	03H
	DB	03H
	DB	0c4H
	DB	0c4H
	DB	0c4H
	DB	0c4H
	DB	0c4H
	DB	0c4H
	DB	0c4H
	DB	0c4H
	DB	0c4H
	DB	0c4H
	DB	0c4H
	DB	0c4H
	DB	01H
	DB	01H
	DB	01H
	DB	01H
	DB	01H
	DB	01H
	DB	01H
	DB	01H
	DB	01H
	DB	01H
	DB	01H
	DB	01H
	DB	01H
	DB	01H
	DB	01H
	DB	01H
	DB	01H
	DB	01H
	DB	01H
	DB	01H
	DB	01H
	DB	01H
	DB	01H
	DB	01H
	DB	01H
	DB	01H
	DB	01H
	DB	01H
	DB	01H
	DB	01H
	DB	01H
	DB	01H
	DB	01H
	DB	01H
	DB	01H
	DB	01H
	DB	01H
	DB	01H
	DB	01H
	DB	01H
	DB	01H
	DB	01H
	DB	01H
	DB	01H
	DB	01H
	DB	01H
	DB	01H
	DB	01H
	DB	01H
	DB	01H
	DB	0c4H
	DB	0c4H
	DB	0c4H
	DB	0c4H
	DB	0c4H
	DB	0c4H
	DB	0c4H
	DB	0c4H
	DB	03H
	DB	03H
	DB	03H
	DB	03H
	DB	03H
	DB	03H
	DB	03H
	DB	03H
	DB	03H
	DB	03H
	DB	03H
	DB	03H
	DB	03H
	DB	03H
	DB	03H
	DB	03H
	DB	03H
	DB	03H
	DB	03H
	DB	03H
	DB	03H
	DB	03H
	DB	03H
	DB	03H
	DB	03H
	DB	03H
	DB	03H
	DB	03H
	DB	03H
	DB	03H
	DB	03H
	DB	044H
	DB	044H
	DB	044H
	DB	044H
	DB	044H
	DB	044H
	DB	044H
	DB	044H
	DB	044H
	DB	04H
	DB	03cH
	DB	0e6H
	DB	01aH
	DB	01aH
	DB	01aH
	DB	01aH
	DB	053H
	DB	053H
	DB	053H
	DB	053H
	DB	053H
	DB	014H
	DB	014H
	DB	056H
	DB	01aH
	DB	042H
	DB	080H
	DB	03cH
	DB	077H
	DB	01aH
	DB	02aH
	DB	02aH
	DB	02aH
	DB	01aH
	DB	053H
	DB	03bH
	DB	03fH
	DB	03fH
	DB	025H
	DB	015H
	DB	015H
	DB	010H
	DB	010H
	DB	011H
	DB	02H
	DB	07H
	DB	07H
	DB	02H
	DB	08aH
	DB	01dH
	DB	01dH
	DB	01dH
	DB	045H
	DB	072H
	DB	061H
	DB	018H
	DB	018H
	DB	018H
	DB	018H
	DB	078H
	DB	03fH
	DB	039H
	DB	039H
	DB	03fH
	DB	061H
	DB	018H
	DB	0ceH
	DB	094H
	DB	039H
	DB	074H
	DB	050H
	DB	018H
	DB	064H
	DB	063H
	DB	07bH
	DB	07bH
	DB	04aH
	DB	05fH
	DB	021H
	DB	0fdH
	DB	0ebH
	DB	0e7H
	DB	0d5H
	DB	047H
	DB	0d5H
	DB	0dbH
	DB	016H
	DB	090H
	DB	054H
	DB	0d5H
	DB	015H
	DB	015H
	DB	010H
	DB	010H
	DB	011H
	DB	02H
	DB	07H
	DB	07H
	DB	08H
	DB	08H
	DB	08H
	DB	08H
	DB	08H
	DB	08H
	DB	08H
	DB	08H
	DB	08H
	DB	08H
	DB	08H
	DB	08H
	DB	08H
	DB	08H
	DB	08H
	DB	08H
	DB	08H
	DB	08H
	DB	08H
	DB	08H
	DB	08H
	DB	08H
	DB	08H
	DB	08H
	DB	08H
	DB	08H
	DB	08H
	DB	08H
	DB	08H
	DB	08H
	DB	08H
	DB	08H
	DB	08H
	DB	08H
	DB	08H
	DB	08H
	DB	08H
	DB	08H
	DB	08H
	DB	08H
	DB	01H
	DB	01H
	DB	01H
	DB	01H
	DB	03H
	DB	02cH
	DB	049H
	DB	08H
	DB	08H
	DB	08H
	DB	08H
	DB	08H
	DB	08H
	DB	08H
	DB	08H
	DB	08H
	DB	08H
	DB	07H
	DB	01cH
	DB	05H
	DB	0aH
	DB	086H
	DB	086H
	DB	086H
	DB	086H
	DB	086H
	DB	086H
	DB	05H
	DB	05H
	DB	05H
	DB	05H
	DB	05H
	DB	05H
	DB	05H
	DB	05H
	DB	05H
	DB	057H
	DB	057H
	DB	057H
	DB	057H
	DB	057H
	DB	057H
	DB	04H
	DB	04H
	DB	04H
	DB	04H
	DB	04H
	DB	04H
	DB	04H
	DB	04H
	DB	04H
	DB	044H
	DB	044H
	DB	044H
	DB	044H
	DB	044H
	DB	044H
	DB	044H
	DB	03H
	DB	03H
	DB	03H
	DB	03H
	DB	03H
	DB	03H
	DB	03H
	DB	03H
	DB	0c4H
	DB	0c4H
	DB	0c4H
	DB	0c4H
	DB	0c4H
	DB	0c4H
	DB	0c4H
	DB	0c4H
	DB	0c4H
	DB	0c4H
	DB	0c4H
	DB	0c4H
	DB	0c4H
	DB	01H
	DB	01H
	DB	01H
	DB	01H
	DB	01H
	DB	01H
	DB	01H
	DB	01H
	DB	01H
	DB	01H
	DB	01H
	DB	01H
	DB	01H
	DB	01H
	DB	01H
	DB	01H
	DB	01H
	DB	01H
	DB	01H
	DB	01H
	DB	01H
	DB	01H
	DB	01H
	DB	01H
	DB	01H
	DB	01H
	DB	01H
	DB	01H
	DB	01H
	DB	01H
	DB	01H
	DB	01H
	DB	01H
	DB	01H
	DB	01H
	DB	01H
	DB	01H
	DB	01H
	DB	01H
	DB	01H
	DB	01H
	DB	01H
	DB	01H
	DB	01H
	DB	01H
	DB	01H
	DB	01H
	DB	01H
	DB	01H
	DB	01H
	DB	0c4H
	DB	0c4H
	DB	0c4H
	DB	0c4H
	DB	0c4H
	DB	0c4H
	DB	0c4H
	DB	03H
	DB	03H
	DB	03H
	DB	03H
	DB	03H
	DB	03H
	DB	03H
	DB	03H
	DB	03H
	DB	03H
	DB	03H
	DB	03H
	DB	03H
	DB	03H
	DB	03H
	DB	03H
	DB	03H
	DB	03H
	DB	03H
	DB	03H
	DB	03H
	DB	03H
	DB	03H
	DB	03H
	DB	03H
	DB	03H
	DB	03H
	DB	03H
	DB	03H
	DB	03H
	DB	044H
	DB	044H
	DB	044H
	DB	044H
	DB	044H
	DB	044H
	DB	044H
	DB	044H
	DB	044H
	DB	044H
	DB	053H
	DB	0e6H
	DB	02aH
	DB	01aH
	DB	01aH
	DB	03cH
	DB	053H
	DB	053H
	DB	0d2H
	DB	03cH
	DB	03cH
	DB	053H
	DB	03cH
	DB	03cH
	DB	053H
	DB	014H
	DB	053H
	DB	042H
	DB	087H
	DB	053H
	DB	01aH
	DB	02aH
	DB	02aH
	DB	02aH
	DB	01aH
	DB	053H
	DB	03fH
	DB	03fH
	DB	03fH
	DB	032H
	DB	015H
	DB	015H
	DB	010H
	DB	011H
	DB	011H
	DB	07H
	DB	07H
	DB	07H
	DB	02H
	DB	0bfH
	DB	01dH
	DB	01dH
	DB	01dH
	DB	078H
	DB	02bH
	DB	018H
	DB	018H
	DB	018H
	DB	018H
	DB	018H
	DB	050H
	DB	0b9H
	DB	039H
	DB	082H
	DB	03fH
	DB	018H
	DB	018H
	DB	040H
	DB	0b0H
	DB	039H
	DB	0f7H
	DB	040H
	DB	01dH
	DB	064H
	DB	083H
	DB	07bH
	DB	07bH
	DB	07bH
	DB	07bH
	DB	05fH
	DB	035H
	DB	0edH
	DB	01aH
	DB	0eaH
	DB	035H
	DB	0b3H
	DB	021H
	DB	03aH
	DB	0acH
	DB	054H
	DB	02bH
	DB	032H
	DB	032H
	DB	010H
	DB	010H
	DB	011H
	DB	02H
	DB	07H
	DB	07H
	DB	08H
	DB	08H
	DB	08H
	DB	08H
	DB	08H
	DB	08H
	DB	08H
	DB	08H
	DB	08H
	DB	08H
	DB	08H
	DB	08H
	DB	08H
	DB	08H
	DB	08H
	DB	08H
	DB	08H
	DB	08H
	DB	08H
	DB	08H
	DB	08H
	DB	08H
	DB	08H
	DB	08H
	DB	08H
	DB	08H
	DB	08H
	DB	08H
	DB	08H
	DB	08H
	DB	08H
	DB	08H
	DB	08H
	DB	08H
	DB	08H
	DB	08H
	DB	08H
	DB	08H
	DB	08H
	DB	08H
	DB	01H
	DB	01H
	DB	01H
	DB	01H
	DB	03H
	DB	02cH
	DB	049H
	DB	08H
	DB	08H
	DB	08H
	DB	08H
	DB	08H
	DB	08H
	DB	08H
	DB	08H
	DB	08H
	DB	08H
	DB	07H
	DB	01cH
	DB	05H
	DB	0aH
	DB	086H
	DB	086H
	DB	086H
	DB	086H
	DB	086H
	DB	086H
	DB	05H
	DB	05H
	DB	05H
	DB	05H
	DB	05H
	DB	05H
	DB	05H
	DB	05H
	DB	05H
	DB	05H
	DB	057H
	DB	057H
	DB	057H
	DB	057H
	DB	057H
	DB	057H
	DB	04H
	DB	04H
	DB	04H
	DB	04H
	DB	04H
	DB	04H
	DB	04H
	DB	04H
	DB	04H
	DB	04H
	DB	04H
	DB	044H
	DB	044H
	DB	044H
	DB	044H
	DB	044H
	DB	044H
	DB	03H
	DB	03H
	DB	03H
	DB	03H
	DB	03H
	DB	03H
	DB	0c4H
	DB	0c4H
	DB	0c4H
	DB	0c4H
	DB	0c4H
	DB	0c4H
	DB	0c4H
	DB	0c4H
	DB	0c4H
	DB	0c4H
	DB	0c4H
	DB	0c4H
	DB	0c4H
	DB	01H
	DB	01H
	DB	01H
	DB	01H
	DB	01H
	DB	01H
	DB	01H
	DB	01H
	DB	01H
	DB	01H
	DB	01H
	DB	01H
	DB	01H
	DB	01H
	DB	01H
	DB	01H
	DB	01H
	DB	01H
	DB	01H
	DB	01H
	DB	01H
	DB	01H
	DB	01H
	DB	01H
	DB	01H
	DB	01H
	DB	01H
	DB	01H
	DB	01H
	DB	01H
	DB	01H
	DB	01H
	DB	01H
	DB	01H
	DB	01H
	DB	01H
	DB	01H
	DB	01H
	DB	01H
	DB	01H
	DB	01H
	DB	01H
	DB	01H
	DB	01H
	DB	01H
	DB	01H
	DB	01H
	DB	01H
	DB	01H
	DB	01H
	DB	01H
	DB	0c4H
	DB	0c4H
	DB	0c4H
	DB	0c4H
	DB	0c4H
	DB	0c4H
	DB	0c4H
	DB	03H
	DB	03H
	DB	03H
	DB	03H
	DB	03H
	DB	03H
	DB	03H
	DB	03H
	DB	03H
	DB	03H
	DB	03H
	DB	03H
	DB	03H
	DB	03H
	DB	03H
	DB	03H
	DB	03H
	DB	03H
	DB	03H
	DB	03H
	DB	03H
	DB	03H
	DB	03H
	DB	03H
	DB	03H
	DB	03H
	DB	03H
	DB	03H
	DB	03H
	DB	044H
	DB	044H
	DB	044H
	DB	044H
	DB	044H
	DB	044H
	DB	044H
	DB	044H
	DB	044H
	DB	044H
	DB	053H
	DB	0e6H
	DB	02aH
	DB	01aH
	DB	01aH
	DB	01aH
	DB	053H
	DB	03cH
	DB	0d2H
	DB	053H
	DB	053H
	DB	053H
	DB	03cH
	DB	03cH
	DB	01aH
	DB	01aH
	DB	01aH
	DB	03cH
	DB	087H
	DB	053H
	DB	01aH
	DB	0e6H
	DB	02aH
	DB	01aH
	DB	01aH
	DB	048H
	DB	03fH
	DB	03fH
	DB	03fH
	DB	015H
	DB	015H
	DB	010H
	DB	010H
	DB	011H
	DB	02H
	DB	07H
	DB	07H
	DB	07H
	DB	02H
	DB	0bfH
	DB	01dH
	DB	01dH
	DB	01dH
	DB	050H
	DB	0d8H
	DB	018H
	DB	018H
	DB	018H
	DB	018H
	DB	045H
	DB	050H
	DB	039H
	DB	039H
	DB	07eH
	DB	078H
	DB	018H
	DB	01dH
	DB	050H
	DB	074H
	DB	039H
	DB	0d8H
	DB	08dH
	DB	018H
	DB	072H
	DB	055H
	DB	07bH
	DB	07bH
	DB	07bH
	DB	07bH
	DB	05fH
	DB	01fH
	DB	0b3H
	DB	070H
	DB	07dH
	DB	069H
	DB	03dH
	DB	047H
	DB	07dH
	DB	073H
	DB	04eH
	DB	048H
	DB	015H
	DB	015H
	DB	010H
	DB	010H
	DB	011H
	DB	02H
	DB	07H
	DB	07H
	DB	08H
	DB	08H
	DB	08H
	DB	08H
	DB	08H
	DB	08H
	DB	08H
	DB	08H
	DB	08H
	DB	08H
	DB	08H
	DB	08H
	DB	08H
	DB	08H
	DB	08H
	DB	08H
	DB	08H
	DB	08H
	DB	08H
	DB	08H
	DB	08H
	DB	08H
	DB	08H
	DB	08H
	DB	08H
	DB	08H
	DB	08H
	DB	08H
	DB	08H
	DB	08H
	DB	08H
	DB	08H
	DB	08H
	DB	08H
	DB	08H
	DB	08H
	DB	08H
	DB	08H
	DB	08H
	DB	08H
	DB	01H
	DB	01H
	DB	01H
	DB	01H
	DB	03H
	DB	02cH
	DB	049H
	DB	08H
	DB	08H
	DB	08H
	DB	08H
	DB	08H
	DB	08H
	DB	08H
	DB	08H
	DB	08H
	DB	08H
	DB	07H
	DB	01cH
	DB	086H
	DB	0aH
	DB	086H
	DB	086H
	DB	086H
	DB	086H
	DB	086H
	DB	086H
	DB	086H
	DB	05H
	DB	05H
	DB	05H
	DB	05H
	DB	05H
	DB	05H
	DB	05H
	DB	05H
	DB	05H
	DB	05H
	DB	057H
	DB	057H
	DB	057H
	DB	057H
	DB	057H
	DB	057H
	DB	04H
	DB	04H
	DB	04H
	DB	04H
	DB	04H
	DB	04H
	DB	04H
	DB	04H
	DB	04H
	DB	04H
	DB	04H
	DB	044H
	DB	044H
	DB	044H
	DB	044H
	DB	044H
	DB	03H
	DB	03H
	DB	03H
	DB	03H
	DB	03H
	DB	03H
	DB	03H
	DB	0c4H
	DB	0c4H
	DB	0c4H
	DB	0c4H
	DB	0c4H
	DB	0c4H
	DB	0c4H
	DB	0c4H
	DB	0c4H
	DB	0c4H
	DB	0c4H
	DB	0c4H
	DB	01H
	DB	01H
	DB	01H
	DB	01H
	DB	01H
	DB	01H
	DB	01H
	DB	01H
	DB	01H
	DB	01H
	DB	01H
	DB	01H
	DB	01H
	DB	01H
	DB	01H
	DB	01H
	DB	01H
	DB	01H
	DB	01H
	DB	01H
	DB	01H
	DB	01H
	DB	01H
	DB	01H
	DB	01H
	DB	01H
	DB	01H
	DB	01H
	DB	01H
	DB	01H
	DB	01H
	DB	01H
	DB	01H
	DB	01H
	DB	01H
	DB	01H
	DB	01H
	DB	01H
	DB	01H
	DB	01H
	DB	01H
	DB	01H
	DB	01H
	DB	01H
	DB	01H
	DB	01H
	DB	01H
	DB	01H
	DB	01H
	DB	01H
	DB	01H
	DB	01H
	DB	0c4H
	DB	0c4H
	DB	0c4H
	DB	0c4H
	DB	0c4H
	DB	0c4H
	DB	0c4H
	DB	03H
	DB	03H
	DB	03H
	DB	03H
	DB	03H
	DB	03H
	DB	03H
	DB	03H
	DB	03H
	DB	03H
	DB	03H
	DB	03H
	DB	03H
	DB	03H
	DB	03H
	DB	03H
	DB	03H
	DB	03H
	DB	03H
	DB	03H
	DB	03H
	DB	03H
	DB	03H
	DB	03H
	DB	03H
	DB	044H
	DB	044H
	DB	044H
	DB	044H
	DB	044H
	DB	044H
	DB	044H
	DB	044H
	DB	044H
	DB	044H
	DB	044H
	DB	044H
	DB	04H
	DB	03cH
	DB	0e6H
	DB	02aH
	DB	01aH
	DB	01aH
	DB	053H
	DB	03cH
	DB	03cH
	DB	04H
	DB	053H
	DB	01aH
	DB	01aH
	DB	01aH
	DB	01aH
	DB	01aH
	DB	02aH
	DB	0e6H
	DB	02aH
	DB	042H
	DB	053H
	DB	01aH
	DB	01aH
	DB	02aH
	DB	01aH
	DB	053H
	DB	03bH
	DB	07eH
	DB	07eH
	DB	03bH
	DB	015H
	DB	015H
	DB	010H
	DB	011H
	DB	02H
	DB	02H
	DB	02H
	DB	07H
	DB	07H
	DB	07H
	DB	04bH
	DB	045H
	DB	01dH
	DB	045H
	DB	050H
	DB	061H
	DB	018H
	DB	01dH
	DB	01dH
	DB	018H
	DB	095H
	DB	07eH
	DB	039H
	DB	039H
	DB	02bH
	DB	061H
	DB	018H
	DB	075H
	DB	03fH
	DB	039H
	DB	039H
	DB	03fH
	DB	07cH
	DB	018H
	DB	072H
	DB	066H
	DB	07bH
	DB	07bH
	DB	07bH
	DB	04aH
	DB	04aH
	DB	058H
	DB	058H
	DB	01fH
	DB	069H
	DB	03dH
	DB	021H
	DB	047H
	DB	0dbH
	DB	04cH
	DB	066H
	DB	048H
	DB	015H
	DB	015H
	DB	010H
	DB	011H
	DB	02H
	DB	07H
	DB	07H
	DB	07H
	DB	08H
	DB	08H
	DB	08H
	DB	08H
	DB	08H
	DB	08H
	DB	08H
	DB	08H
	DB	08H
	DB	08H
	DB	08H
	DB	08H
	DB	08H
	DB	08H
	DB	08H
	DB	08H
	DB	08H
	DB	08H
	DB	08H
	DB	08H
	DB	08H
	DB	08H
	DB	08H
	DB	08H
	DB	08H
	DB	08H
	DB	08H
	DB	08H
	DB	08H
	DB	08H
	DB	08H
	DB	08H
	DB	08H
	DB	08H
	DB	08H
	DB	08H
	DB	08H
	DB	08H
	DB	08H
	DB	08H
	DB	01H
	DB	01H
	DB	01H
	DB	01H
	DB	03H
	DB	02cH
	DB	049H
	DB	08H
	DB	08H
	DB	08H
	DB	08H
	DB	08H
	DB	08H
	DB	08H
	DB	08H
	DB	08H
	DB	08H
	DB	07H
	DB	01cH
	DB	086H
	DB	0aH
	DB	086H
	DB	086H
	DB	086H
	DB	086H
	DB	086H
	DB	086H
	DB	086H
	DB	086H
	DB	05H
	DB	05H
	DB	05H
	DB	05H
	DB	05H
	DB	05H
	DB	05H
	DB	05H
	DB	05H
	DB	05H
	DB	057H
	DB	057H
	DB	057H
	DB	057H
	DB	057H
	DB	057H
	DB	04H
	DB	04H
	DB	04H
	DB	04H
	DB	04H
	DB	04H
	DB	04H
	DB	04H
	DB	04H
	DB	04H
	DB	04H
	DB	044H
	DB	044H
	DB	044H
	DB	044H
	DB	044H
	DB	03H
	DB	03H
	DB	03H
	DB	03H
	DB	03H
	DB	03H
	DB	0c4H
	DB	0c4H
	DB	0c4H
	DB	0c4H
	DB	0c4H
	DB	0c4H
	DB	0c4H
	DB	0c4H
	DB	0c4H
	DB	0c4H
	DB	0c4H
	DB	0c4H
	DB	01H
	DB	01H
	DB	01H
	DB	01H
	DB	01H
	DB	01H
	DB	01H
	DB	01H
	DB	01H
	DB	01H
	DB	01H
	DB	01H
	DB	01H
	DB	01H
	DB	01H
	DB	01H
	DB	01H
	DB	01H
	DB	01H
	DB	01H
	DB	01H
	DB	01H
	DB	01H
	DB	01H
	DB	01H
	DB	01H
	DB	01H
	DB	01H
	DB	01H
	DB	01H
	DB	01H
	DB	01H
	DB	01H
	DB	01H
	DB	01H
	DB	01H
	DB	01H
	DB	01H
	DB	01H
	DB	01H
	DB	01H
	DB	01H
	DB	01H
	DB	01H
	DB	01H
	DB	01H
	DB	01H
	DB	01H
	DB	01H
	DB	01H
	DB	01H
	DB	01H
	DB	01H
	DB	0c4H
	DB	0c4H
	DB	0c4H
	DB	0c4H
	DB	0c4H
	DB	0c4H
	DB	03H
	DB	03H
	DB	03H
	DB	03H
	DB	03H
	DB	03H
	DB	03H
	DB	03H
	DB	03H
	DB	03H
	DB	03H
	DB	03H
	DB	044H
	DB	044H
	DB	044H
	DB	03H
	DB	03H
	DB	03H
	DB	03H
	DB	03H
	DB	03H
	DB	03H
	DB	03H
	DB	03H
	DB	044H
	DB	044H
	DB	044H
	DB	044H
	DB	044H
	DB	044H
	DB	044H
	DB	044H
	DB	044H
	DB	044H
	DB	044H
	DB	044H
	DB	044H
	DB	04H
	DB	01aH
	DB	02aH
	DB	02aH
	DB	01aH
	DB	01aH
	DB	053H
	DB	087H
	DB	03cH
	DB	03H
	DB	053H
	DB	01aH
	DB	01aH
	DB	01aH
	DB	01aH
	DB	01aH
	DB	02aH
	DB	02aH
	DB	02aH
	DB	03cH
	DB	053H
	DB	01aH
	DB	02aH
	DB	01aH
	DB	01aH
	DB	032H
	DB	03fH
	DB	03fH
	DB	03fH
	DB	025H
	DB	015H
	DB	010H
	DB	010H
	DB	011H
	DB	025H
	DB	04bH
	DB	07H
	DB	07H
	DB	07H
	DB	07H
	DB	04bH
	DB	08fH
	DB	01dH
	DB	0beH
	DB	0ceH
	DB	018H
	DB	01dH
	DB	01dH
	DB	01dH
	DB	01dH
	DB	050H
	DB	074H
	DB	039H
	DB	0b0H
	DB	072H
	DB	018H
	DB	01dH
	DB	040H
	DB	0bdH
	DB	039H
	DB	039H
	DB	03bH
	DB	061H
	DB	0b9H
	DB	073H
	DB	058H
	DB	07bH
	DB	07bH
	DB	07bH
	DB	058H
	DB	058H
	DB	058H
	DB	05fH
	DB	01fH
	DB	068H
	DB	03dH
	DB	035H
	DB	047H
	DB	07dH
	DB	083H
	DB	058H
	DB	097H
	DB	015H
	DB	010H
	DB	010H
	DB	011H
	DB	02H
	DB	07H
	DB	07H
	DB	07H
	DB	08H
	DB	08H
	DB	08H
	DB	08H
	DB	08H
	DB	08H
	DB	08H
	DB	08H
	DB	08H
	DB	08H
	DB	08H
	DB	08H
	DB	08H
	DB	08H
	DB	08H
	DB	08H
	DB	08H
	DB	08H
	DB	08H
	DB	08H
	DB	08H
	DB	08H
	DB	08H
	DB	08H
	DB	08H
	DB	08H
	DB	08H
	DB	08H
	DB	08H
	DB	08H
	DB	08H
	DB	08H
	DB	08H
	DB	08H
	DB	08H
	DB	08H
	DB	08H
	DB	08H
	DB	08H
	DB	08H
	DB	01H
	DB	01H
	DB	01H
	DB	01H
	DB	03H
	DB	02cH
	DB	049H
	DB	08H
	DB	08H
	DB	08H
	DB	08H
	DB	08H
	DB	08H
	DB	08H
	DB	08H
	DB	08H
	DB	08H
	DB	07H
	DB	01cH
	DB	086H
	DB	0aH
	DB	0aH
	DB	086H
	DB	086H
	DB	086H
	DB	086H
	DB	086H
	DB	086H
	DB	086H
	DB	086H
	DB	05H
	DB	05H
	DB	05H
	DB	05H
	DB	05H
	DB	05H
	DB	05H
	DB	05H
	DB	05H
	DB	05H
	DB	057H
	DB	057H
	DB	057H
	DB	057H
	DB	057H
	DB	057H
	DB	04H
	DB	04H
	DB	04H
	DB	04H
	DB	04H
	DB	04H
	DB	04H
	DB	04H
	DB	04H
	DB	04H
	DB	04H
	DB	044H
	DB	044H
	DB	044H
	DB	044H
	DB	03H
	DB	03H
	DB	03H
	DB	03H
	DB	03H
	DB	03H
	DB	03H
	DB	0c4H
	DB	0c4H
	DB	0c4H
	DB	0c4H
	DB	0c4H
	DB	0c4H
	DB	0c4H
	DB	0c4H
	DB	0c4H
	DB	0c4H
	DB	0c4H
	DB	01H
	DB	01H
	DB	01H
	DB	01H
	DB	01H
	DB	01H
	DB	01H
	DB	01H
	DB	01H
	DB	01H
	DB	01H
	DB	01H
	DB	01H
	DB	01H
	DB	01H
	DB	01H
	DB	01H
	DB	01H
	DB	01H
	DB	01H
	DB	01H
	DB	01H
	DB	01H
	DB	01H
	DB	01H
	DB	01H
	DB	01H
	DB	01H
	DB	01H
	DB	01H
	DB	01H
	DB	01H
	DB	01H
	DB	01H
	DB	01H
	DB	01H
	DB	01H
	DB	01H
	DB	01H
	DB	01H
	DB	01H
	DB	01H
	DB	01H
	DB	01H
	DB	01H
	DB	01H
	DB	01H
	DB	01H
	DB	01H
	DB	01H
	DB	01H
	DB	01H
	DB	01H
	DB	0c4H
	DB	0c4H
	DB	0c4H
	DB	0c4H
	DB	0c4H
	DB	0c4H
	DB	0c4H
	DB	03H
	DB	03H
	DB	03H
	DB	03H
	DB	03H
	DB	03H
	DB	044H
	DB	044H
	DB	044H
	DB	044H
	DB	044H
	DB	044H
	DB	044H
	DB	044H
	DB	044H
	DB	044H
	DB	044H
	DB	044H
	DB	044H
	DB	044H
	DB	044H
	DB	044H
	DB	044H
	DB	044H
	DB	044H
	DB	044H
	DB	044H
	DB	044H
	DB	044H
	DB	044H
	DB	044H
	DB	044H
	DB	044H
	DB	044H
	DB	044H
	DB	044H
	DB	053H
	DB	01aH
	DB	02aH
	DB	01aH
	DB	01aH
	DB	053H
	DB	053H
	DB	042H
	DB	042H
	DB	03cH
	DB	03H
	DB	014H
	DB	053H
	DB	01aH
	DB	01aH
	DB	01aH
	DB	02aH
	DB	02aH
	DB	0e6H
	DB	01aH
	DB	014H
	DB	01aH
	DB	02aH
	DB	01aH
	DB	053H
	DB	03bH
	DB	07eH
	DB	03fH
	DB	03fH
	DB	025H
	DB	015H
	DB	010H
	DB	010H
	DB	025H
	DB	025H
	DB	02H
	DB	07H
	DB	07H
	DB	07H
	DB	07H
	DB	011H
	DB	08dH
	DB	08aH
	DB	0beH
	DB	01dH
	DB	018H
	DB	01dH
	DB	01dH
	DB	018H
	DB	07cH
	DB	07eH
	DB	039H
	DB	039H
	DB	02bH
	DB	075H
	DB	018H
	DB	061H
	DB	03bH
	DB	074H
	DB	039H
	DB	0f7H
	DB	050H
	DB	018H
	DB	050H
	DB	04cH
	DB	0d1H
	DB	07bH
	DB	058H
	DB	058H
	DB	0d1H
	DB	058H
	DB	058H
	DB	03dH
	DB	069H
	DB	069H
	DB	069H
	DB	035H
	DB	047H
	DB	035H
	DB	055H
	DB	058H
	DB	02bH
	DB	015H
	DB	010H
	DB	010H
	DB	011H
	DB	02H
	DB	07H
	DB	07H
	DB	07H
	DB	08H
	DB	08H
	DB	08H
	DB	08H
	DB	08H
	DB	08H
	DB	08H
	DB	08H
	DB	08H
	DB	08H
	DB	08H
	DB	08H
	DB	08H
	DB	08H
	DB	08H
	DB	08H
	DB	08H
	DB	08H
	DB	08H
	DB	08H
	DB	08H
	DB	08H
	DB	08H
	DB	08H
	DB	08H
	DB	08H
	DB	08H
	DB	08H
	DB	08H
	DB	08H
	DB	08H
	DB	08H
	DB	08H
	DB	08H
	DB	08H
	DB	08H
	DB	08H
	DB	08H
	DB	08H
	DB	08H
	DB	01H
	DB	01H
	DB	01H
	DB	01H
	DB	03H
	DB	02cH
	DB	049H
	DB	08H
	DB	08H
	DB	08H
	DB	08H
	DB	08H
	DB	08H
	DB	08H
	DB	08H
	DB	08H
	DB	08H
	DB	07H
	DB	01cH
	DB	086H
	DB	0aH
	DB	0aH
	DB	0aH
	DB	086H
	DB	086H
	DB	086H
	DB	086H
	DB	086H
	DB	086H
	DB	086H
	DB	086H
	DB	05H
	DB	05H
	DB	05H
	DB	05H
	DB	05H
	DB	05H
	DB	05H
	DB	05H
	DB	05H
	DB	05H
	DB	05H
	DB	057H
	DB	057H
	DB	057H
	DB	057H
	DB	057H
	DB	057H
	DB	04H
	DB	04H
	DB	04H
	DB	04H
	DB	04H
	DB	04H
	DB	04H
	DB	04H
	DB	04H
	DB	04H
	DB	044H
	DB	044H
	DB	044H
	DB	044H
	DB	03H
	DB	03H
	DB	03H
	DB	03H
	DB	03H
	DB	03H
	DB	03H
	DB	0c4H
	DB	0c4H
	DB	0c4H
	DB	0c4H
	DB	0c4H
	DB	0c4H
	DB	0c4H
	DB	0c4H
	DB	0c4H
	DB	0c4H
	DB	01H
	DB	01H
	DB	01H
	DB	01H
	DB	01H
	DB	01H
	DB	01H
	DB	01H
	DB	01H
	DB	01H
	DB	01H
	DB	01H
	DB	01H
	DB	01H
	DB	01H
	DB	01H
	DB	01H
	DB	01H
	DB	01H
	DB	01H
	DB	01H
	DB	01H
	DB	01H
	DB	01H
	DB	01H
	DB	01H
	DB	01H
	DB	01H
	DB	01H
	DB	01H
	DB	01H
	DB	01H
	DB	01H
	DB	01H
	DB	01H
	DB	01H
	DB	01H
	DB	01H
	DB	01H
	DB	01H
	DB	01H
	DB	01H
	DB	01H
	DB	01H
	DB	01H
	DB	01H
	DB	01H
	DB	01H
	DB	01H
	DB	01H
	DB	01H
	DB	01H
	DB	01H
	DB	01H
	DB	0c4H
	DB	0c4H
	DB	0c4H
	DB	0c4H
	DB	0c4H
	DB	0c4H
	DB	03H
	DB	03H
	DB	03H
	DB	03H
	DB	03H
	DB	03H
	DB	044H
	DB	044H
	DB	044H
	DB	044H
	DB	044H
	DB	044H
	DB	044H
	DB	044H
	DB	044H
	DB	044H
	DB	044H
	DB	044H
	DB	044H
	DB	044H
	DB	044H
	DB	044H
	DB	044H
	DB	044H
	DB	044H
	DB	044H
	DB	044H
	DB	044H
	DB	044H
	DB	044H
	DB	044H
	DB	044H
	DB	044H
	DB	044H
	DB	044H
	DB	044H
	DB	053H
	DB	042H
	DB	02aH
	DB	01aH
	DB	01aH
	DB	014H
	DB	03cH
	DB	042H
	DB	042H
	DB	07fH
	DB	03cH
	DB	053H
	DB	053H
	DB	014H
	DB	01aH
	DB	01aH
	DB	02aH
	DB	02aH
	DB	0e6H
	DB	01aH
	DB	01aH
	DB	02aH
	DB	02aH
	DB	01aH
	DB	053H
	DB	097H
	DB	07eH
	DB	03fH
	DB	02bH
	DB	015H
	DB	015H
	DB	010H
	DB	010H
	DB	050H
	DB	0b5H
	DB	07H
	DB	07H
	DB	07H
	DB	07H
	DB	07H
	DB	02H
	DB	032H
	DB	0beH
	DB	01dH
	DB	01dH
	DB	01dH
	DB	01dH
	DB	01dH
	DB	01dH
	DB	050H
	DB	0f8H
	DB	039H
	DB	07eH
	DB	040H
	DB	018H
	DB	018H
	DB	050H
	DB	0d8H
	DB	039H
	DB	074H
	DB	048H
	DB	045H
	DB	096H
	DB	02bH
	DB	066H
	DB	058H
	DB	058H
	DB	058H
	DB	058H
	DB	058H
	DB	058H
	DB	03dH
	DB	069H
	DB	069H
	DB	035H
	DB	0dbH
	DB	041H
	DB	090H
	DB	041H
	DB	04cH
	DB	055H
	DB	032H
	DB	015H
	DB	010H
	DB	011H
	DB	011H
	DB	02H
	DB	07H
	DB	07H
	DB	07H
	DB	08H
	DB	08H
	DB	08H
	DB	08H
	DB	08H
	DB	08H
	DB	08H
	DB	08H
	DB	08H
	DB	08H
	DB	08H
	DB	08H
	DB	08H
	DB	08H
	DB	08H
	DB	08H
	DB	08H
	DB	08H
	DB	08H
	DB	08H
	DB	08H
	DB	08H
	DB	08H
	DB	08H
	DB	08H
	DB	08H
	DB	08H
	DB	08H
	DB	08H
	DB	08H
	DB	08H
	DB	08H
	DB	08H
	DB	08H
	DB	08H
	DB	08H
	DB	08H
	DB	08H
	DB	08H
	DB	08H
	DB	01H
	DB	01H
	DB	01H
	DB	01H
	DB	03H
	DB	02cH
	DB	049H
	DB	08H
	DB	08H
	DB	08H
	DB	08H
	DB	08H
	DB	08H
	DB	08H
	DB	08H
	DB	08H
	DB	08H
	DB	07H
	DB	01cH
	DB	086H
	DB	0aH
	DB	0aH
	DB	0aH
	DB	0aH
	DB	086H
	DB	086H
	DB	086H
	DB	086H
	DB	086H
	DB	086H
	DB	086H
	DB	05H
	DB	05H
	DB	05H
	DB	05H
	DB	05H
	DB	05H
	DB	05H
	DB	05H
	DB	05H
	DB	05H
	DB	05H
	DB	057H
	DB	057H
	DB	057H
	DB	057H
	DB	057H
	DB	057H
	DB	057H
	DB	04H
	DB	04H
	DB	04H
	DB	04H
	DB	04H
	DB	04H
	DB	04H
	DB	04H
	DB	04H
	DB	044H
	DB	044H
	DB	044H
	DB	044H
	DB	044H
	DB	03H
	DB	03H
	DB	03H
	DB	03H
	DB	03H
	DB	03H
	DB	0c4H
	DB	0c4H
	DB	0c4H
	DB	0c4H
	DB	0c4H
	DB	0c4H
	DB	0c4H
	DB	0c4H
	DB	0c4H
	DB	0c4H
	DB	01H
	DB	01H
	DB	01H
	DB	01H
	DB	01H
	DB	01H
	DB	01H
	DB	01H
	DB	01H
	DB	01H
	DB	01H
	DB	01H
	DB	01H
	DB	01H
	DB	01H
	DB	01H
	DB	01H
	DB	01H
	DB	01H
	DB	01H
	DB	01H
	DB	01H
	DB	01H
	DB	01H
	DB	01H
	DB	01H
	DB	01H
	DB	01H
	DB	01H
	DB	01H
	DB	01H
	DB	01H
	DB	01H
	DB	01H
	DB	01H
	DB	01H
	DB	01H
	DB	01H
	DB	01H
	DB	01H
	DB	01H
	DB	01H
	DB	01H
	DB	01H
	DB	01H
	DB	01H
	DB	01H
	DB	01H
	DB	01H
	DB	01H
	DB	01H
	DB	01H
	DB	01H
	DB	01H
	DB	01H
	DB	0c4H
	DB	0c4H
	DB	0c4H
	DB	0c4H
	DB	0c4H
	DB	0c4H
	DB	03H
	DB	03H
	DB	03H
	DB	03H
	DB	03H
	DB	044H
	DB	044H
	DB	044H
	DB	044H
	DB	044H
	DB	044H
	DB	044H
	DB	044H
	DB	044H
	DB	044H
	DB	044H
	DB	044H
	DB	044H
	DB	044H
	DB	044H
	DB	044H
	DB	044H
	DB	044H
	DB	044H
	DB	044H
	DB	044H
	DB	044H
	DB	044H
	DB	044H
	DB	044H
	DB	044H
	DB	044H
	DB	044H
	DB	044H
	DB	044H
	DB	03cH
	DB	042H
	DB	01aH
	DB	01aH
	DB	056H
	DB	053H
	DB	042H
	DB	07fH
	DB	042H
	DB	02aH
	DB	07fH
	DB	03cH
	DB	053H
	DB	01aH
	DB	01aH
	DB	01aH
	DB	02aH
	DB	02aH
	DB	0e6H
	DB	014H
	DB	01aH
	DB	02aH
	DB	02aH
	DB	014H
	DB	048H
	DB	0afH
	DB	079H
	DB	072H
	DB	025H
	DB	015H
	DB	010H
	DB	010H
	DB	0beH
	DB	045H
	DB	0bfH
	DB	02H
	DB	07H
	DB	07H
	DB	07H
	DB	07H
	DB	010H
	DB	0beH
	DB	01dH
	DB	018H
	DB	01dH
	DB	018H
	DB	018H
	DB	018H
	DB	089H
	DB	094H
	DB	039H
	DB	0bdH
	DB	025H
	DB	01dH
	DB	018H
	DB	08dH
	DB	050H
	DB	039H
	DB	039H
	DB	03fH
	DB	08dH
	DB	061H
	DB	02bH
	DB	0a0H
	DB	068H
	DB	03dH
	DB	03dH
	DB	0b3H
	DB	0b3H
	DB	069H
	DB	069H
	DB	035H
	DB	035H
	DB	035H
	DB	0dbH
	DB	035H
	DB	035H
	DB	0b3H
	DB	0a0H
	DB	068H
	DB	054H
	DB	015H
	DB	015H
	DB	010H
	DB	011H
	DB	02H
	DB	07H
	DB	07H
	DB	07H
	DB	07H
	DB	07H
	DB	08H
	DB	08H
	DB	08H
	DB	08H
	DB	08H
	DB	08H
	DB	08H
	DB	08H
	DB	08H
	DB	08H
	DB	08H
	DB	08H
	DB	08H
	DB	08H
	DB	08H
	DB	08H
	DB	08H
	DB	08H
	DB	08H
	DB	08H
	DB	08H
	DB	08H
	DB	08H
	DB	08H
	DB	08H
	DB	08H
	DB	08H
	DB	08H
	DB	08H
	DB	08H
	DB	08H
	DB	08H
	DB	08H
	DB	08H
	DB	08H
	DB	08H
	DB	08H
	DB	08H
	DB	08H
	DB	01H
	DB	01H
	DB	01H
	DB	01H
	DB	03H
	DB	02cH
	DB	049H
	DB	08H
	DB	07H
	DB	07H
	DB	07H
	DB	07H
	DB	07H
	DB	07H
	DB	07H
	DB	07H
	DB	08H
	DB	07H
	DB	01cH
	DB	086H
	DB	0aH
	DB	0aH
	DB	0aH
	DB	0aH
	DB	086H
	DB	086H
	DB	086H
	DB	086H
	DB	086H
	DB	086H
	DB	086H
	DB	086H
	DB	05H
	DB	05H
	DB	05H
	DB	05H
	DB	05H
	DB	05H
	DB	05H
	DB	05H
	DB	05H
	DB	05H
	DB	05H
	DB	05H
	DB	057H
	DB	057H
	DB	057H
	DB	057H
	DB	057H
	DB	057H
	DB	057H
	DB	04H
	DB	04H
	DB	04H
	DB	04H
	DB	04H
	DB	04H
	DB	04H
	DB	04H
	DB	044H
	DB	044H
	DB	044H
	DB	044H
	DB	03H
	DB	03H
	DB	03H
	DB	03H
	DB	03H
	DB	03H
	DB	03H
	DB	0c4H
	DB	0c4H
	DB	0c4H
	DB	0c4H
	DB	0c4H
	DB	0c4H
	DB	0c4H
	DB	0c4H
	DB	0c4H
	DB	01H
	DB	01H
	DB	01H
	DB	01H
	DB	01H
	DB	01H
	DB	01H
	DB	01H
	DB	01H
	DB	01H
	DB	01H
	DB	01H
	DB	01H
	DB	01H
	DB	01H
	DB	01H
	DB	01H
	DB	01H
	DB	01H
	DB	01H
	DB	01H
	DB	01H
	DB	01H
	DB	01H
	DB	01H
	DB	01H
	DB	01H
	DB	01H
	DB	01H
	DB	01H
	DB	01H
	DB	01H
	DB	01H
	DB	01H
	DB	01H
	DB	01H
	DB	01H
	DB	01H
	DB	01H
	DB	01H
	DB	01H
	DB	01H
	DB	01H
	DB	01H
	DB	01H
	DB	01H
	DB	01H
	DB	01H
	DB	01H
	DB	01H
	DB	01H
	DB	01H
	DB	01H
	DB	01H
	DB	01H
	DB	01H
	DB	0c4H
	DB	0c4H
	DB	0c4H
	DB	0c4H
	DB	0c4H
	DB	0c4H
	DB	03H
	DB	03H
	DB	03H
	DB	03H
	DB	03H
	DB	044H
	DB	044H
	DB	044H
	DB	044H
	DB	044H
	DB	044H
	DB	044H
	DB	044H
	DB	044H
	DB	044H
	DB	044H
	DB	044H
	DB	044H
	DB	044H
	DB	044H
	DB	044H
	DB	044H
	DB	044H
	DB	044H
	DB	044H
	DB	044H
	DB	044H
	DB	044H
	DB	044H
	DB	044H
	DB	044H
	DB	044H
	DB	044H
	DB	04H
	DB	03cH
	DB	042H
	DB	01aH
	DB	01aH
	DB	053H
	DB	03cH
	DB	07fH
	DB	042H
	DB	02aH
	DB	02aH
	DB	01aH
	DB	053H
	DB	053H
	DB	01aH
	DB	01aH
	DB	01aH
	DB	02aH
	DB	0e6H
	DB	01aH
	DB	01aH
	DB	02aH
	DB	02aH
	DB	01aH
	DB	014H
	DB	02bH
	DB	059H
	DB	059H
	DB	072H
	DB	015H
	DB	015H
	DB	010H
	DB	025H
	DB	08dH
	DB	018H
	DB	096H
	DB	011H
	DB	07H
	DB	07H
	DB	07H
	DB	011H
	DB	0beH
	DB	01dH
	DB	018H
	DB	018H
	DB	01dH
	DB	018H
	DB	018H
	DB	089H
	DB	089H
	DB	018H
	DB	089H
	DB	025H
	DB	045H
	DB	01dH
	DB	0cfH
	DB	050H
	DB	074H
	DB	039H
	DB	0bdH
	DB	0beH
	DB	018H
	DB	050H
	DB	0d5H
	DB	068H
	DB	068H
	DB	069H
	DB	035H
	DB	035H
	DB	035H
	DB	035H
	DB	090H
	DB	0d5H
	DB	090H
	DB	0c9H
	DB	025H
	DB	0c0H
	DB	063H
	DB	052H
	DB	069H
	DB	04eH
	DB	032H
	DB	015H
	DB	010H
	DB	010H
	DB	011H
	DB	02H
	DB	07H
	DB	07H
	DB	07H
	DB	07H
	DB	07H
	DB	07H
	DB	07H
	DB	07H
	DB	07H
	DB	07H
	DB	07H
	DB	07H
	DB	07H
	DB	07H
	DB	07H
	DB	07H
	DB	07H
	DB	07H
	DB	07H
	DB	07H
	DB	07H
	DB	07H
	DB	07H
	DB	07H
	DB	07H
	DB	07H
	DB	07H
	DB	07H
	DB	07H
	DB	07H
	DB	07H
	DB	07H
	DB	07H
	DB	07H
	DB	07H
	DB	07H
	DB	07H
	DB	07H
	DB	07H
	DB	07H
	DB	07H
	DB	07H
	DB	07H
	DB	07H
	DB	01H
	DB	01H
	DB	01H
	DB	01H
	DB	03H
	DB	02cH
	DB	049H
	DB	08H
	DB	07H
	DB	07H
	DB	07H
	DB	07H
	DB	07H
	DB	07H
	DB	07H
	DB	07H
	DB	08H
	DB	07H
	DB	01cH
	DB	086H
	DB	0e9H
	DB	0aH
	DB	0aH
	DB	0aH
	DB	0aH
	DB	086H
	DB	086H
	DB	086H
	DB	086H
	DB	086H
	DB	086H
	DB	086H
	DB	086H
	DB	086H
	DB	05H
	DB	05H
	DB	05H
	DB	05H
	DB	05H
	DB	05H
	DB	05H
	DB	05H
	DB	05H
	DB	05H
	DB	05H
	DB	05H
	DB	057H
	DB	057H
	DB	057H
	DB	057H
	DB	057H
	DB	057H
	DB	057H
	DB	04H
	DB	04H
	DB	04H
	DB	04H
	DB	04H
	DB	04H
	DB	04H
	DB	044H
	DB	044H
	DB	044H
	DB	03H
	DB	03H
	DB	03H
	DB	03H
	DB	03H
	DB	03H
	DB	03H
	DB	0c4H
	DB	0c4H
	DB	0c4H
	DB	0c4H
	DB	0c4H
	DB	0c4H
	DB	0c4H
	DB	0c4H
	DB	0c4H
	DB	0c4H
	DB	0c4H
	DB	01H
	DB	0c4H
	DB	0c4H
	DB	0c4H
	DB	0c4H
	DB	0c4H
	DB	0c4H
	DB	0c4H
	DB	0c4H
	DB	0c4H
	DB	0c4H
	DB	0c4H
	DB	0c4H
	DB	0c4H
	DB	0c4H
	DB	0c4H
	DB	0c4H
	DB	0c4H
	DB	0c4H
	DB	0c4H
	DB	0c4H
	DB	0c4H
	DB	0c4H
	DB	0c4H
	DB	0c4H
	DB	0c4H
	DB	0c4H
	DB	0c4H
	DB	0c4H
	DB	0c4H
	DB	0c4H
	DB	0c4H
	DB	0c4H
	DB	0c4H
	DB	0c4H
	DB	0c4H
	DB	0c4H
	DB	0c4H
	DB	0c4H
	DB	0c4H
	DB	0c4H
	DB	0c4H
	DB	0c4H
	DB	0c4H
	DB	0c4H
	DB	0c4H
	DB	0c4H
	DB	01H
	DB	01H
	DB	01H
	DB	01H
	DB	01H
	DB	01H
	DB	01H
	DB	0c4H
	DB	0c4H
	DB	0c4H
	DB	0c4H
	DB	0c4H
	DB	0c4H
	DB	0c4H
	DB	03H
	DB	03H
	DB	03H
	DB	03H
	DB	044H
	DB	044H
	DB	044H
	DB	04H
	DB	04H
	DB	04H
	DB	044H
	DB	044H
	DB	044H
	DB	044H
	DB	044H
	DB	044H
	DB	044H
	DB	044H
	DB	044H
	DB	044H
	DB	044H
	DB	044H
	DB	044H
	DB	044H
	DB	044H
	DB	044H
	DB	044H
	DB	044H
	DB	044H
	DB	044H
	DB	044H
	DB	044H
	DB	053H
	DB	03cH
	DB	01aH
	DB	01aH
	DB	01aH
	DB	053H
	DB	042H
	DB	042H
	DB	02aH
	DB	02aH
	DB	02aH
	DB	01aH
	DB	053H
	DB	01aH
	DB	01aH
	DB	01aH
	DB	01aH
	DB	02aH
	DB	0e6H
	DB	01aH
	DB	01aH
	DB	02aH
	DB	02aH
	DB	01aH
	DB	053H
	DB	054H
	DB	059H
	DB	064H
	DB	025H
	DB	015H
	DB	015H
	DB	010H
	DB	025H
	DB	075H
	DB	018H
	DB	01dH
	DB	0bfH
	DB	011H
	DB	04bH
	DB	010H
	DB	0b6H
	DB	018H
	DB	01dH
	DB	018H
	DB	018H
	DB	018H
	DB	045H
	DB	089H
	DB	089H
	DB	018H
	DB	089H
	DB	0beH
	DB	01dH
	DB	01dH
	DB	094H
	DB	050H
	DB	039H
	DB	039H
	DB	0b0H
	DB	050H
	DB	018H
	DB	08dH
	DB	02bH
	DB	068H
	DB	03dH
	DB	069H
	DB	035H
	DB	051H
	DB	051H
	DB	0feH
	DB	0feH
	DB	07dH
	DB	05cH
	DB	015H
	DB	010H
	DB	04bH
	DB	04bH
	DB	010H
	DB	025H
	DB	0c9H
	DB	02bH
	DB	015H
	DB	015H
	DB	010H
	DB	010H
	DB	011H
	DB	02H
	DB	07H
	DB	07H
	DB	07H
	DB	07H
	DB	07H
	DB	07H
	DB	07H
	DB	07H
	DB	07H
	DB	07H
	DB	07H
	DB	07H
	DB	07H
	DB	07H
	DB	07H
	DB	07H
	DB	07H
	DB	07H
	DB	07H
	DB	07H
	DB	07H
	DB	07H
	DB	07H
	DB	07H
	DB	07H
	DB	07H
	DB	07H
	DB	07H
	DB	07H
	DB	07H
	DB	07H
	DB	07H
	DB	07H
	DB	07H
	DB	07H
	DB	07H
	DB	07H
	DB	07H
	DB	07H
	DB	07H
	DB	07H
	DB	07H
	DB	07H
	DB	07H
	DB	01H
	DB	01H
	DB	01H
	DB	01H
	DB	03H
	DB	02cH
	DB	049H
	DB	08H
	DB	07H
	DB	07H
	DB	07H
	DB	07H
	DB	07H
	DB	07H
	DB	07H
	DB	07H
	DB	08H
	DB	07H
	DB	01cH
	DB	086H
	DB	0e9H
	DB	0aH
	DB	0aH
	DB	0aH
	DB	0aH
	DB	086H
	DB	0aH
	DB	086H
	DB	086H
	DB	086H
	DB	086H
	DB	086H
	DB	086H
	DB	086H
	DB	05H
	DB	05H
	DB	05H
	DB	05H
	DB	05H
	DB	05H
	DB	05H
	DB	05H
	DB	05H
	DB	05H
	DB	05H
	DB	05H
	DB	05H
	DB	057H
	DB	057H
	DB	057H
	DB	057H
	DB	057H
	DB	057H
	DB	057H
	DB	04H
	DB	04H
	DB	04H
	DB	04H
	DB	04H
	DB	04H
	DB	044H
	DB	044H
	DB	044H
	DB	03H
	DB	03H
	DB	03H
	DB	03H
	DB	03H
	DB	03H
	DB	03H
	DB	0c4H
	DB	0c4H
	DB	0c4H
	DB	0c4H
	DB	0c4H
	DB	0c4H
	DB	0c4H
	DB	0c4H
	DB	0c4H
	DB	0c4H
	DB	0c4H
	DB	0c4H
	DB	0c4H
	DB	0c4H
	DB	0c4H
	DB	0c4H
	DB	0c4H
	DB	0c4H
	DB	0c4H
	DB	0c4H
	DB	0c4H
	DB	0c4H
	DB	0c4H
	DB	0c4H
	DB	0c4H
	DB	0c4H
	DB	0c4H
	DB	0c4H
	DB	0c4H
	DB	0c4H
	DB	0c4H
	DB	0c4H
	DB	0c4H
	DB	0c4H
	DB	0c4H
	DB	0c4H
	DB	0c4H
	DB	0c4H
	DB	0c4H
	DB	0c4H
	DB	0c4H
	DB	0c4H
	DB	0c4H
	DB	0c4H
	DB	0c4H
	DB	0c4H
	DB	0c4H
	DB	0c4H
	DB	0c4H
	DB	0c4H
	DB	0c4H
	DB	0c4H
	DB	0c4H
	DB	0c4H
	DB	0c4H
	DB	0c4H
	DB	0c4H
	DB	0c4H
	DB	0c4H
	DB	0c4H
	DB	0c4H
	DB	0c4H
	DB	0c4H
	DB	0c4H
	DB	0c4H
	DB	0c4H
	DB	0c4H
	DB	0c4H
	DB	0c4H
	DB	0c4H
	DB	0c4H
	DB	0c4H
	DB	0c4H
	DB	03H
	DB	03H
	DB	03H
	DB	044H
	DB	044H
	DB	044H
	DB	04H
	DB	04H
	DB	04H
	DB	04H
	DB	044H
	DB	044H
	DB	044H
	DB	044H
	DB	044H
	DB	044H
	DB	044H
	DB	044H
	DB	044H
	DB	044H
	DB	044H
	DB	044H
	DB	044H
	DB	044H
	DB	044H
	DB	044H
	DB	044H
	DB	044H
	DB	044H
	DB	044H
	DB	044H
	DB	053H
	DB	01aH
	DB	01aH
	DB	01aH
	DB	01aH
	DB	03cH
	DB	07fH
	DB	02aH
	DB	02aH
	DB	02aH
	DB	01aH
	DB	077H
	DB	053H
	DB	01aH
	DB	01aH
	DB	01aH
	DB	02aH
	DB	02aH
	DB	0e6H
	DB	014H
	DB	01aH
	DB	0e6H
	DB	01aH
	DB	014H
	DB	048H
	DB	059H
	DB	059H
	DB	064H
	DB	032H
	DB	015H
	DB	015H
	DB	010H
	DB	025H
	DB	0ceH
	DB	018H
	DB	01dH
	DB	01dH
	DB	08aH
	DB	032H
	DB	08dH
	DB	018H
	DB	01dH
	DB	018H
	DB	018H
	DB	018H
	DB	075H
	DB	089H
	DB	0a7H
	DB	0a7H
	DB	050H
	DB	08dH
	DB	01dH
	DB	075H
	DB	040H
	DB	095H
	DB	018H
	DB	018H
	DB	0bdH
	DB	0beH
	DB	061H
	DB	08dH
	DB	087H
	DB	03dH
	DB	03eH
	DB	023H
	DB	035H
	DB	035H
	DB	051H
	DB	051H
	DB	035H
	DB	07dH
	DB	035H
	DB	052H
	DB	025H
	DB	025H
	DB	025H
	DB	04fH
	DB	06eH
	DB	06eH
	DB	032H
	DB	015H
	DB	015H
	DB	015H
	DB	010H
	DB	010H
	DB	011H
	DB	02H
	DB	07H
	DB	07H
	DB	07H
	DB	07H
	DB	07H
	DB	07H
	DB	07H
	DB	07H
	DB	07H
	DB	07H
	DB	07H
	DB	07H
	DB	07H
	DB	07H
	DB	07H
	DB	07H
	DB	07H
	DB	07H
	DB	07H
	DB	07H
	DB	07H
	DB	07H
	DB	07H
	DB	07H
	DB	07H
	DB	07H
	DB	07H
	DB	07H
	DB	07H
	DB	07H
	DB	07H
	DB	07H
	DB	07H
	DB	07H
	DB	07H
	DB	07H
	DB	07H
	DB	07H
	DB	07H
	DB	07H
	DB	07H
	DB	07H
	DB	07H
	DB	07H
	DB	01H
	DB	01H
	DB	01H
	DB	01H
	DB	03H
	DB	02cH
	DB	049H
	DB	08H
	DB	07H
	DB	07H
	DB	07H
	DB	07H
	DB	07H
	DB	07H
	DB	07H
	DB	07H
	DB	08H
	DB	07H
	DB	01cH
	DB	086H
	DB	0e9H
	DB	0aH
	DB	0aH
	DB	0aH
	DB	0aH
	DB	0aH
	DB	0aH
	DB	086H
	DB	086H
	DB	086H
	DB	086H
	DB	086H
	DB	086H
	DB	086H
	DB	086H
	DB	086H
	DB	05H
	DB	05H
	DB	05H
	DB	05H
	DB	05H
	DB	05H
	DB	05H
	DB	05H
	DB	05H
	DB	05H
	DB	05H
	DB	05H
	DB	05H
	DB	057H
	DB	057H
	DB	057H
	DB	057H
	DB	057H
	DB	04H
	DB	04H
	DB	04H
	DB	04H
	DB	04H
	DB	04H
	DB	044H
	DB	044H
	DB	044H
	DB	044H
	DB	03H
	DB	03H
	DB	03H
	DB	03H
	DB	03H
	DB	03H
	DB	0c4H
	DB	0c4H
	DB	0c4H
	DB	0c4H
	DB	0c4H
	DB	0c4H
	DB	0c4H
	DB	0c4H
	DB	0c4H
	DB	0c4H
	DB	0c4H
	DB	0c4H
	DB	0c4H
	DB	0c4H
	DB	0c4H
	DB	0c4H
	DB	0c4H
	DB	0c4H
	DB	0c4H
	DB	0c4H
	DB	0c4H
	DB	0c4H
	DB	0c4H
	DB	0c4H
	DB	0c4H
	DB	0c4H
	DB	0c4H
	DB	0c4H
	DB	0c4H
	DB	0c4H
	DB	0c4H
	DB	0c4H
	DB	0c4H
	DB	0c4H
	DB	0c4H
	DB	0c4H
	DB	0c4H
	DB	0c4H
	DB	0c4H
	DB	0c4H
	DB	0c4H
	DB	0c4H
	DB	0c4H
	DB	0c4H
	DB	0c4H
	DB	0c4H
	DB	0c4H
	DB	0c4H
	DB	0c4H
	DB	0c4H
	DB	0c4H
	DB	0c4H
	DB	0c4H
	DB	0c4H
	DB	0c4H
	DB	0c4H
	DB	0c4H
	DB	0c4H
	DB	0c4H
	DB	0c4H
	DB	0c4H
	DB	0c4H
	DB	0c4H
	DB	0c4H
	DB	0c4H
	DB	0c4H
	DB	0c4H
	DB	0c4H
	DB	0c4H
	DB	0c4H
	DB	0c4H
	DB	0c4H
	DB	0c4H
	DB	0c4H
	DB	03H
	DB	03H
	DB	03H
	DB	044H
	DB	044H
	DB	04H
	DB	04H
	DB	04H
	DB	04H
	DB	04H
	DB	044H
	DB	044H
	DB	044H
	DB	044H
	DB	044H
	DB	044H
	DB	044H
	DB	044H
	DB	044H
	DB	044H
	DB	044H
	DB	044H
	DB	044H
	DB	044H
	DB	044H
	DB	044H
	DB	044H
	DB	044H
	DB	044H
	DB	044H
	DB	053H
	DB	02aH
	DB	01aH
	DB	01aH
	DB	053H
	DB	087H
	DB	042H
	DB	02aH
	DB	02aH
	DB	01aH
	DB	053H
	DB	053H
	DB	053H
	DB	01aH
	DB	01aH
	DB	01aH
	DB	02aH
	DB	02aH
	DB	01aH
	DB	053H
	DB	02aH
	DB	02aH
	DB	01aH
	DB	04H
	DB	072H
	DB	059H
	DB	059H
	DB	050H
	DB	015H
	DB	015H
	DB	010H
	DB	010H
	DB	010H
	DB	03bH
	DB	045H
	DB	01dH
	DB	045H
	DB	040H
	DB	095H
	DB	018H
	DB	01dH
	DB	018H
	DB	018H
	DB	061H
	DB	040H
	DB	0d9H
	DB	0a7H
	DB	040H
	DB	040H
	DB	045H
	DB	01dH
	DB	078H
	DB	050H
	DB	061H
	DB	018H
	DB	061H
	DB	050H
	DB	08dH
	DB	061H
	DB	050H
	DB	098H
	DB	069H
	DB	0baH
	DB	058H
	DB	069H
	DB	035H
	DB	051H
	DB	051H
	DB	051H
	DB	035H
	DB	0feH
	DB	035H
	DB	035H
	DB	0f6H
	DB	010H
	DB	04bH
	DB	04bH
	DB	04dH
	DB	025H
	DB	015H
	DB	015H
	DB	015H
	DB	015H
	DB	010H
	DB	011H
	DB	02H
	DB	07H
	DB	07H
	DB	07H
	DB	07H
	DB	07H
	DB	07H
	DB	07H
	DB	07H
	DB	07H
	DB	07H
	DB	07H
	DB	07H
	DB	07H
	DB	07H
	DB	07H
	DB	07H
	DB	07H
	DB	07H
	DB	07H
	DB	07H
	DB	07H
	DB	07H
	DB	07H
	DB	07H
	DB	07H
	DB	07H
	DB	07H
	DB	07H
	DB	07H
	DB	07H
	DB	07H
	DB	07H
	DB	07H
	DB	07H
	DB	07H
	DB	07H
	DB	07H
	DB	07H
	DB	07H
	DB	07H
	DB	07H
	DB	07H
	DB	07H
	DB	07H
	DB	07H
	DB	01H
	DB	01H
	DB	01H
	DB	01H
	DB	03H
	DB	02cH
	DB	049H
	DB	08H
	DB	07H
	DB	07H
	DB	07H
	DB	07H
	DB	07H
	DB	07H
	DB	07H
	DB	07H
	DB	08H
	DB	07H
	DB	01cH
	DB	086H
	DB	0e9H
	DB	0aH
	DB	0aH
	DB	0aH
	DB	0aH
	DB	0aH
	DB	0aH
	DB	0aH
	DB	0aH
	DB	086H
	DB	086H
	DB	086H
	DB	086H
	DB	086H
	DB	086H
	DB	086H
	DB	086H
	DB	05H
	DB	05H
	DB	05H
	DB	05H
	DB	05H
	DB	05H
	DB	05H
	DB	05H
	DB	05H
	DB	05H
	DB	05H
	DB	05H
	DB	05H
	DB	05H
	DB	057H
	DB	057H
	DB	057H
	DB	04H
	DB	04H
	DB	04H
	DB	04H
	DB	04H
	DB	04H
	DB	044H
	DB	044H
	DB	044H
	DB	044H
	DB	03H
	DB	03H
	DB	03H
	DB	03H
	DB	03H
	DB	03H
	DB	0c4H
	DB	0c4H
	DB	0c4H
	DB	0c4H
	DB	0c4H
	DB	0c4H
	DB	0c4H
	DB	0c4H
	DB	0c4H
	DB	0c4H
	DB	0c4H
	DB	0c4H
	DB	0c4H
	DB	0c4H
	DB	0c4H
	DB	0c4H
	DB	0c4H
	DB	0c4H
	DB	0c4H
	DB	0c4H
	DB	0c4H
	DB	0c4H
	DB	0c4H
	DB	0c4H
	DB	0c4H
	DB	0c4H
	DB	0c4H
	DB	0c4H
	DB	0c4H
	DB	0c4H
	DB	0c4H
	DB	0c4H
	DB	0c4H
	DB	0c4H
	DB	0c4H
	DB	0c4H
	DB	0c4H
	DB	0c4H
	DB	0c4H
	DB	0c4H
	DB	0c4H
	DB	0c4H
	DB	0c4H
	DB	0c4H
	DB	0c4H
	DB	0c4H
	DB	0c4H
	DB	0c4H
	DB	0c4H
	DB	0c4H
	DB	0c4H
	DB	0c4H
	DB	0c4H
	DB	0c4H
	DB	0c4H
	DB	0c4H
	DB	0c4H
	DB	0c4H
	DB	0c4H
	DB	0c4H
	DB	0c4H
	DB	0c4H
	DB	0c4H
	DB	0c4H
	DB	0c4H
	DB	0c4H
	DB	0c4H
	DB	0c4H
	DB	0c4H
	DB	0c4H
	DB	0c4H
	DB	0c4H
	DB	0c4H
	DB	0c4H
	DB	0c4H
	DB	03H
	DB	03H
	DB	044H
	DB	044H
	DB	04H
	DB	04H
	DB	04H
	DB	04H
	DB	04H
	DB	04H
	DB	044H
	DB	044H
	DB	044H
	DB	044H
	DB	044H
	DB	044H
	DB	044H
	DB	044H
	DB	044H
	DB	044H
	DB	044H
	DB	044H
	DB	044H
	DB	044H
	DB	044H
	DB	044H
	DB	044H
	DB	044H
	DB	04H
	DB	01aH
	DB	02aH
	DB	01aH
	DB	01aH
	DB	0d2H
	DB	080H
	DB	042H
	DB	02aH
	DB	02aH
	DB	01aH
	DB	053H
	DB	014H
	DB	03cH
	DB	01aH
	DB	01aH
	DB	02aH
	DB	02aH
	DB	02aH
	DB	01aH
	DB	01aH
	DB	02aH
	DB	01aH
	DB	01aH
	DB	032H
	DB	059H
	DB	059H
	DB	0afH
	DB	025H
	DB	015H
	DB	015H
	DB	010H
	DB	010H
	DB	011H
	DB	025H
	DB	0beH
	DB	096H
	DB	050H
	DB	096H
	DB	018H
	DB	01dH
	DB	018H
	DB	018H
	DB	095H
	DB	040H
	DB	0a7H
	DB	078H
	DB	040H
	DB	045H
	DB	01dH
	DB	045H
	DB	03fH
	DB	095H
	DB	018H
	DB	018H
	DB	07cH
	DB	050H
	DB	08fH
	DB	045H
	DB	050H
	DB	0d5H
	DB	03eH
	DB	03eH
	DB	068H
	DB	054H
	DB	0a0H
	DB	028H
	DB	047H
	DB	03aH
	DB	051H
	DB	051H
	DB	051H
	DB	035H
	DB	035H
	DB	063H
	DB	04bH
	DB	06dH
	DB	06cH
	DB	04dH
	DB	032H
	DB	015H
	DB	015H
	DB	015H
	DB	010H
	DB	010H
	DB	011H
	DB	02H
	DB	07H
	DB	07H
	DB	07H
	DB	07H
	DB	07H
	DB	07H
	DB	07H
	DB	07H
	DB	07H
	DB	07H
	DB	07H
	DB	07H
	DB	07H
	DB	07H
	DB	07H
	DB	07H
	DB	07H
	DB	07H
	DB	07H
	DB	07H
	DB	07H
	DB	07H
	DB	07H
	DB	07H
	DB	07H
	DB	07H
	DB	07H
	DB	07H
	DB	07H
	DB	07H
	DB	07H
	DB	07H
	DB	07H
	DB	07H
	DB	07H
	DB	07H
	DB	07H
	DB	07H
	DB	07H
	DB	07H
	DB	07H
	DB	07H
	DB	07H
	DB	07H
	DB	07H
	DB	01H
	DB	01H
	DB	01H
	DB	01H
	DB	03H
	DB	02cH
	DB	049H
	DB	08H
	DB	07H
	DB	07H
	DB	07H
	DB	07H
	DB	07H
	DB	07H
	DB	07H
	DB	07H
	DB	08H
	DB	07H
	DB	01cH
	DB	086H
	DB	0e9H
	DB	0aH
	DB	0aH
	DB	0aH
	DB	0aH
	DB	0aH
	DB	0aH
	DB	0aH
	DB	0aH
	DB	086H
	DB	086H
	DB	086H
	DB	086H
	DB	086H
	DB	086H
	DB	086H
	DB	086H
	DB	086H
	DB	086H
	DB	05H
	DB	05H
	DB	05H
	DB	05H
	DB	05H
	DB	05H
	DB	05H
	DB	05H
	DB	05H
	DB	05H
	DB	05H
	DB	05H
	DB	057H
	DB	057H
	DB	057H
	DB	057H
	DB	04H
	DB	04H
	DB	04H
	DB	04H
	DB	04H
	DB	04H
	DB	044H
	DB	044H
	DB	044H
	DB	03H
	DB	03H
	DB	03H
	DB	03H
	DB	03H
	DB	03H
	DB	0c4H
	DB	0c4H
	DB	0c4H
	DB	0c4H
	DB	0c4H
	DB	0c4H
	DB	0c4H
	DB	0c4H
	DB	0c4H
	DB	0c4H
	DB	0c4H
	DB	0c4H
	DB	0c4H
	DB	0c4H
	DB	0c4H
	DB	0c4H
	DB	0c4H
	DB	0c4H
	DB	0c4H
	DB	0c4H
	DB	0c4H
	DB	0c4H
	DB	0c4H
	DB	0c4H
	DB	0c4H
	DB	0c4H
	DB	0c4H
	DB	0c4H
	DB	0c4H
	DB	0c4H
	DB	0c4H
	DB	0c4H
	DB	0c4H
	DB	0c4H
	DB	0c4H
	DB	0c4H
	DB	0c4H
	DB	0c4H
	DB	0c4H
	DB	0c4H
	DB	0c4H
	DB	0c4H
	DB	0c4H
	DB	0c4H
	DB	0c4H
	DB	0c4H
	DB	0c4H
	DB	0c4H
	DB	0c4H
	DB	0c4H
	DB	0c4H
	DB	0c4H
	DB	0c4H
	DB	0c4H
	DB	0c4H
	DB	0c4H
	DB	0c4H
	DB	0c4H
	DB	0c4H
	DB	0c4H
	DB	0c4H
	DB	0c4H
	DB	0c4H
	DB	0c4H
	DB	0c4H
	DB	0c4H
	DB	0c4H
	DB	0c4H
	DB	0c4H
	DB	0c4H
	DB	0c4H
	DB	0c4H
	DB	0c4H
	DB	0c4H
	DB	0c4H
	DB	03H
	DB	03H
	DB	044H
	DB	044H
	DB	04H
	DB	04H
	DB	04H
	DB	04H
	DB	04H
	DB	04H
	DB	04H
	DB	04H
	DB	044H
	DB	044H
	DB	044H
	DB	044H
	DB	044H
	DB	044H
	DB	044H
	DB	044H
	DB	044H
	DB	044H
	DB	044H
	DB	044H
	DB	044H
	DB	044H
	DB	044H
	DB	044H
	DB	053H
	DB	01aH
	DB	02aH
	DB	01aH
	DB	014H
	DB	042H
	DB	07fH
	DB	02aH
	DB	02aH
	DB	02aH
	DB	01aH
	DB	053H
	DB	053H
	DB	01aH
	DB	01aH
	DB	02aH
	DB	02aH
	DB	02aH
	DB	0e6H
	DB	014H
	DB	01aH
	DB	0e6H
	DB	01aH
	DB	014H
	DB	02bH
	DB	059H
	DB	059H
	DB	064H
	DB	015H
	DB	015H
	DB	010H
	DB	010H
	DB	011H
	DB	011H
	DB	011H
	DB	010H
	DB	032H
	DB	0ceH
	DB	018H
	DB	018H
	DB	018H
	DB	075H
	DB	040H
	DB	0b0H
	DB	074H
	DB	040H
	DB	0ceH
	DB	01dH
	DB	045H
	DB	040H
	DB	050H
	DB	061H
	DB	018H
	DB	061H
	DB	040H
	DB	040H
	DB	045H
	DB	096H
	DB	050H
	DB	055H
	DB	0baH
	DB	0baH
	DB	0baH
	DB	023H
	DB	055H
	DB	048H
	DB	052H
	DB	047H
	DB	016H
	DB	03aH
	DB	03aH
	DB	047H
	DB	035H
	DB	035H
	DB	07dH
	DB	097H
	DB	04fH
	DB	04dH
	DB	032H
	DB	015H
	DB	01cH
	DB	015H
	DB	015H
	DB	010H
	DB	011H
	DB	02H
	DB	02H
	DB	07H
	DB	07H
	DB	07H
	DB	07H
	DB	07H
	DB	07H
	DB	07H
	DB	07H
	DB	07H
	DB	07H
	DB	07H
	DB	07H
	DB	07H
	DB	07H
	DB	07H
	DB	07H
	DB	07H
	DB	07H
	DB	07H
	DB	07H
	DB	07H
	DB	07H
	DB	07H
	DB	07H
	DB	07H
	DB	07H
	DB	07H
	DB	07H
	DB	07H
	DB	07H
	DB	07H
	DB	07H
	DB	07H
	DB	07H
	DB	07H
	DB	07H
	DB	07H
	DB	07H
	DB	07H
	DB	07H
	DB	07H
	DB	07H
	DB	07H
	DB	07H
	DB	07H
	DB	01H
	DB	01H
	DB	01H
	DB	01H
	DB	03H
	DB	02cH
	DB	049H
	DB	08H
	DB	07H
	DB	07H
	DB	07H
	DB	07H
	DB	07H
	DB	07H
	DB	07H
	DB	07H
	DB	08H
	DB	07H
	DB	01cH
	DB	086H
	DB	0e9H
	DB	0aH
	DB	0aH
	DB	0aH
	DB	0aH
	DB	0aH
	DB	0aH
	DB	0aH
	DB	0aH
	DB	0aH
	DB	086H
	DB	086H
	DB	086H
	DB	086H
	DB	086H
	DB	086H
	DB	086H
	DB	086H
	DB	086H
	DB	086H
	DB	05H
	DB	05H
	DB	05H
	DB	05H
	DB	05H
	DB	05H
	DB	05H
	DB	05H
	DB	05H
	DB	05H
	DB	05H
	DB	05H
	DB	057H
	DB	057H
	DB	057H
	DB	04H
	DB	04H
	DB	04H
	DB	04H
	DB	04H
	DB	04H
	DB	044H
	DB	044H
	DB	044H
	DB	03H
	DB	03H
	DB	03H
	DB	03H
	DB	03H
	DB	03H
	DB	0c4H
	DB	0c4H
	DB	0c4H
	DB	0c4H
	DB	0c4H
	DB	0c4H
	DB	0c4H
	DB	0c4H
	DB	0c4H
	DB	0c4H
	DB	0c4H
	DB	0c4H
	DB	0c4H
	DB	0c4H
	DB	0c4H
	DB	0c4H
	DB	0c4H
	DB	0c4H
	DB	0c4H
	DB	0c4H
	DB	0c4H
	DB	0c4H
	DB	0c4H
	DB	0c4H
	DB	0c4H
	DB	0c4H
	DB	0c4H
	DB	0c4H
	DB	0c4H
	DB	0c4H
	DB	0c4H
	DB	0c4H
	DB	0c4H
	DB	0c4H
	DB	0c4H
	DB	0c4H
	DB	0c4H
	DB	0c4H
	DB	0c4H
	DB	0c4H
	DB	0c4H
	DB	0c4H
	DB	0c4H
	DB	0c4H
	DB	0c4H
	DB	0c4H
	DB	0c4H
	DB	0c4H
	DB	0c4H
	DB	0c4H
	DB	0c4H
	DB	0c4H
	DB	0c4H
	DB	0c4H
	DB	0c4H
	DB	0c4H
	DB	0c4H
	DB	0c4H
	DB	0c4H
	DB	0c4H
	DB	0c4H
	DB	0c4H
	DB	0c4H
	DB	0c4H
	DB	0c4H
	DB	0c4H
	DB	0c4H
	DB	0c4H
	DB	0c4H
	DB	0c4H
	DB	0c4H
	DB	0c4H
	DB	0c4H
	DB	0c4H
	DB	0c4H
	DB	03H
	DB	03H
	DB	03H
	DB	044H
	DB	04H
	DB	04H
	DB	04H
	DB	04H
	DB	04H
	DB	04H
	DB	04H
	DB	04H
	DB	04H
	DB	044H
	DB	044H
	DB	044H
	DB	044H
	DB	044H
	DB	044H
	DB	044H
	DB	044H
	DB	044H
	DB	044H
	DB	044H
	DB	044H
	DB	044H
	DB	044H
	DB	044H
	DB	053H
	DB	02aH
	DB	02aH
	DB	01aH
	DB	053H
	DB	07fH
	DB	07fH
	DB	02aH
	DB	02aH
	DB	02aH
	DB	01aH
	DB	014H
	DB	053H
	DB	01aH
	DB	01aH
	DB	02aH
	DB	02aH
	DB	02aH
	DB	01aH
	DB	014H
	DB	01aH
	DB	02aH
	DB	01aH
	DB	053H
	DB	054H
	DB	059H
	DB	059H
	DB	050H
	DB	015H
	DB	015H
	DB	010H
	DB	010H
	DB	011H
	DB	011H
	DB	011H
	DB	025H
	DB	07cH
	DB	018H
	DB	018H
	DB	018H
	DB	0ceH
	DB	094H
	DB	074H
	DB	082H
	DB	050H
	DB	075H
	DB	018H
	DB	075H
	DB	02bH
	DB	078H
	DB	018H
	DB	018H
	DB	078H
	DB	050H
	DB	07cH
	DB	01dH
	DB	0b6H
	DB	041H
	DB	03dH
	DB	01fH
	DB	023H
	DB	021H
	DB	021H
	DB	023H
	DB	023H
	DB	04eH
	DB	032H
	DB	0d5H
	DB	051H
	DB	016H
	DB	016H
	DB	016H
	DB	016H
	DB	047H
	DB	035H
	DB	035H
	DB	090H
	DB	053H
	DB	02bH
	DB	073H
	DB	097H
	DB	03bH
	DB	03bH
	DB	025H
	DB	010H
	DB	011H
	DB	07H
	DB	07H
	DB	07H
	DB	07H
	DB	07H
	DB	07H
	DB	07H
	DB	07H
	DB	07H
	DB	07H
	DB	07H
	DB	07H
	DB	07H
	DB	07H
	DB	07H
	DB	07H
	DB	07H
	DB	07H
	DB	07H
	DB	07H
	DB	07H
	DB	07H
	DB	07H
	DB	07H
	DB	07H
	DB	07H
	DB	07H
	DB	07H
	DB	07H
	DB	07H
	DB	07H
	DB	07H
	DB	07H
	DB	07H
	DB	07H
	DB	07H
	DB	07H
	DB	07H
	DB	07H
	DB	07H
	DB	07H
	DB	07H
	DB	07H
	DB	07H
	DB	07H
	DB	07H
	DB	01H
	DB	01H
	DB	01H
	DB	01H
	DB	03H
	DB	02cH
	DB	049H
	DB	07H
	DB	07H
	DB	07H
	DB	07H
	DB	07H
	DB	07H
	DB	07H
	DB	07H
	DB	07H
	DB	08H
	DB	07H
	DB	01cH
	DB	0aH
	DB	0e9H
	DB	0aH
	DB	0aH
	DB	0aH
	DB	0aH
	DB	0aH
	DB	0aH
	DB	0aH
	DB	0aH
	DB	0aH
	DB	0aH
	DB	0aH
	DB	086H
	DB	086H
	DB	086H
	DB	086H
	DB	086H
	DB	086H
	DB	086H
	DB	086H
	DB	086H
	DB	086H
	DB	086H
	DB	05H
	DB	05H
	DB	05H
	DB	05H
	DB	05H
	DB	05H
	DB	05H
	DB	05H
	DB	05H
	DB	057H
	DB	057H
	DB	057H
	DB	04H
	DB	04H
	DB	04H
	DB	04H
	DB	04H
	DB	04H
	DB	044H
	DB	044H
	DB	044H
	DB	03H
	DB	03H
	DB	03H
	DB	03H
	DB	03H
	DB	03H
	DB	0c4H
	DB	0c4H
	DB	0c4H
	DB	0c4H
	DB	0c4H
	DB	0c4H
	DB	0c4H
	DB	0c4H
	DB	0c4H
	DB	0c4H
	DB	0c4H
	DB	0c4H
	DB	0c4H
	DB	0c4H
	DB	0c4H
	DB	0c4H
	DB	0c4H
	DB	0c4H
	DB	0c4H
	DB	0c4H
	DB	0c4H
	DB	0c4H
	DB	0c4H
	DB	0c4H
	DB	0c4H
	DB	0c4H
	DB	0c4H
	DB	0c4H
	DB	0c4H
	DB	0c4H
	DB	0c4H
	DB	0c4H
	DB	0c4H
	DB	0c4H
	DB	0c4H
	DB	0c4H
	DB	0c4H
	DB	0c4H
	DB	0c4H
	DB	0c4H
	DB	0c4H
	DB	0c4H
	DB	0c4H
	DB	0c4H
	DB	0c4H
	DB	0c4H
	DB	0c4H
	DB	0c4H
	DB	0c4H
	DB	0c4H
	DB	0c4H
	DB	0c4H
	DB	0c4H
	DB	0c4H
	DB	0c4H
	DB	0c4H
	DB	0c4H
	DB	0c4H
	DB	0c4H
	DB	0c4H
	DB	0c4H
	DB	0c4H
	DB	0c4H
	DB	0c4H
	DB	0c4H
	DB	0c4H
	DB	0c4H
	DB	0c4H
	DB	0c4H
	DB	0c4H
	DB	0c4H
	DB	0c4H
	DB	0c4H
	DB	0c4H
	DB	0c4H
	DB	0c4H
	DB	03H
	DB	03H
	DB	044H
	DB	044H
	DB	04H
	DB	04H
	DB	057H
	DB	057H
	DB	057H
	DB	04H
	DB	04H
	DB	04H
	DB	04H
	DB	044H
	DB	044H
	DB	044H
	DB	044H
	DB	044H
	DB	044H
	DB	044H
	DB	044H
	DB	044H
	DB	044H
	DB	044H
	DB	044H
	DB	044H
	DB	04H
	DB	03cH
	DB	02aH
	DB	01aH
	DB	053H
	DB	01aH
	DB	07fH
	DB	042H
	DB	02aH
	DB	02aH
	DB	01aH
	DB	01aH
	DB	053H
	DB	01aH
	DB	01aH
	DB	01aH
	DB	01aH
	DB	01aH
	DB	02aH
	DB	01aH
	DB	014H
	DB	01aH
	DB	01aH
	DB	01aH
	DB	053H
	DB	0afH
	DB	059H
	DB	059H
	DB	025H
	DB	015H
	DB	015H
	DB	010H
	DB	011H
	DB	011H
	DB	011H
	DB	04bH
	DB	08fH
	DB	018H
	DB	018H
	DB	0b9H
	DB	03fH
	DB	082H
	DB	039H
	DB	079H
	DB	050H
	DB	018H
	DB	018H
	DB	040H
	DB	054H
	DB	074H
	DB	039H
	DB	018H
	DB	040H
	DB	050H
	DB	061H
	DB	045H
	DB	050H
	DB	053H
	DB	0b3H
	DB	023H
	DB	023H
	DB	021H
	DB	028H
	DB	028H
	DB	028H
	DB	021H
	DB	023H
	DB	03dH
	DB	054H
	DB	048H
	DB	041H
	DB	070H
	DB	035H
	DB	047H
	DB	076H
	DB	028H
	DB	021H
	DB	041H
	DB	041H
	DB	03dH
	DB	021H
	DB	047H
	DB	035H
	DB	07dH
	DB	0dbH
	DB	060H
	DB	02bH
	DB	010H
	DB	07H
	DB	07H
	DB	07H
	DB	07H
	DB	07H
	DB	07H
	DB	07H
	DB	07H
	DB	07H
	DB	07H
	DB	07H
	DB	07H
	DB	07H
	DB	07H
	DB	07H
	DB	07H
	DB	07H
	DB	07H
	DB	07H
	DB	07H
	DB	07H
	DB	07H
	DB	07H
	DB	07H
	DB	07H
	DB	07H
	DB	07H
	DB	07H
	DB	07H
	DB	07H
	DB	07H
	DB	07H
	DB	07H
	DB	07H
	DB	07H
	DB	07H
	DB	07H
	DB	07H
	DB	07H
	DB	07H
	DB	07H
	DB	07H
	DB	07H
	DB	07H
	DB	07H
	DB	01H
	DB	01H
	DB	01H
	DB	01H
	DB	03H
	DB	02cH
	DB	049H
	DB	07H
	DB	07H
	DB	07H
	DB	07H
	DB	07H
	DB	07H
	DB	07H
	DB	07H
	DB	07H
	DB	08H
	DB	07H
	DB	01cH
	DB	0aH
	DB	0e9H
	DB	0aH
	DB	0aH
	DB	0aH
	DB	0aH
	DB	0aH
	DB	0aH
	DB	0aH
	DB	0aH
	DB	0aH
	DB	0aH
	DB	0aH
	DB	0aH
	DB	086H
	DB	086H
	DB	086H
	DB	086H
	DB	086H
	DB	086H
	DB	086H
	DB	086H
	DB	086H
	DB	086H
	DB	086H
	DB	086H
	DB	05H
	DB	05H
	DB	05H
	DB	05H
	DB	05H
	DB	05H
	DB	05H
	DB	057H
	DB	057H
	DB	057H
	DB	057H
	DB	04H
	DB	04H
	DB	04H
	DB	04H
	DB	04H
	DB	044H
	DB	044H
	DB	044H
	DB	03H
	DB	03H
	DB	03H
	DB	03H
	DB	03H
	DB	03H
	DB	0c4H
	DB	0c4H
	DB	0c4H
	DB	0c4H
	DB	0c4H
	DB	0c4H
	DB	0c4H
	DB	0c4H
	DB	0c4H
	DB	0c4H
	DB	0c4H
	DB	0c4H
	DB	0c4H
	DB	0c4H
	DB	0c4H
	DB	0c4H
	DB	0c4H
	DB	0c4H
	DB	0c4H
	DB	0c4H
	DB	0c4H
	DB	0c4H
	DB	0c4H
	DB	0c4H
	DB	0c4H
	DB	0c4H
	DB	0c4H
	DB	0c4H
	DB	0c4H
	DB	0c4H
	DB	0c4H
	DB	0c4H
	DB	0c4H
	DB	0c4H
	DB	0c4H
	DB	0c4H
	DB	0c4H
	DB	0c4H
	DB	0c4H
	DB	0c4H
	DB	0c4H
	DB	0c4H
	DB	0c4H
	DB	0c4H
	DB	0c4H
	DB	0c4H
	DB	0c4H
	DB	0c4H
	DB	0c4H
	DB	0c4H
	DB	0c4H
	DB	0c4H
	DB	0c4H
	DB	0c4H
	DB	0c4H
	DB	0c4H
	DB	0c4H
	DB	0c4H
	DB	0c4H
	DB	0c4H
	DB	0c4H
	DB	0c4H
	DB	0c4H
	DB	0c4H
	DB	0c4H
	DB	0c4H
	DB	0c4H
	DB	0c4H
	DB	0c4H
	DB	0c4H
	DB	0c4H
	DB	0c4H
	DB	0c4H
	DB	0c4H
	DB	0c4H
	DB	03H
	DB	03H
	DB	03H
	DB	03H
	DB	044H
	DB	04H
	DB	04H
	DB	057H
	DB	057H
	DB	057H
	DB	057H
	DB	04H
	DB	04H
	DB	04H
	DB	04H
	DB	044H
	DB	044H
	DB	044H
	DB	044H
	DB	044H
	DB	044H
	DB	044H
	DB	044H
	DB	044H
	DB	044H
	DB	044H
	DB	044H
	DB	053H
	DB	042H
	DB	02aH
	DB	01aH
	DB	014H
	DB	042H
	DB	042H
	DB	02aH
	DB	02aH
	DB	02aH
	DB	01aH
	DB	014H
	DB	014H
	DB	01aH
	DB	01aH
	DB	01aH
	DB	01aH
	DB	02aH
	DB	0e6H
	DB	01aH
	DB	01aH
	DB	0e6H
	DB	01aH
	DB	014H
	DB	048H
	DB	064H
	DB	059H
	DB	064H
	DB	015H
	DB	015H
	DB	010H
	DB	010H
	DB	011H
	DB	02H
	DB	011H
	DB	08fH
	DB	018H
	DB	018H
	DB	089H
	DB	072H
	DB	039H
	DB	039H
	DB	040H
	DB	08dH
	DB	018H
	DB	018H
	DB	040H
	DB	059H
	DB	039H
	DB	039H
	DB	082H
	DB	02bH
	DB	0d9H
	DB	018H
	DB	075H
	DB	03bH
	DB	0afH
	DB	098H
	DB	023H
	DB	0baH
	DB	0a6H
	DB	028H
	DB	016H
	DB	016H
	DB	012H
	DB	016H
	DB	028H
	DB	0a6H
	DB	0a6H
	DB	03dH
	DB	02bH
	DB	032H
	DB	048H
	DB	02bH
	DB	0acH
	DB	054H
	DB	02bH
	DB	02bH
	DB	068H
	DB	058H
	DB	069H
	DB	021H
	DB	047H
	DB	051H
	DB	051H
	DB	03aH
	DB	035H
	DB	0c9H
	DB	010H
	DB	07H
	DB	07H
	DB	07H
	DB	07H
	DB	07H
	DB	07H
	DB	07H
	DB	07H
	DB	07H
	DB	07H
	DB	07H
	DB	07H
	DB	07H
	DB	07H
	DB	07H
	DB	07H
	DB	07H
	DB	07H
	DB	07H
	DB	07H
	DB	07H
	DB	07H
	DB	07H
	DB	07H
	DB	07H
	DB	07H
	DB	07H
	DB	07H
	DB	07H
	DB	07H
	DB	07H
	DB	07H
	DB	07H
	DB	07H
	DB	07H
	DB	07H
	DB	07H
	DB	07H
	DB	07H
	DB	07H
	DB	07H
	DB	07H
	DB	07H
	DB	07H
	DB	01H
	DB	01H
	DB	01H
	DB	01H
	DB	03H
	DB	02cH
	DB	049H
	DB	07H
	DB	07H
	DB	07H
	DB	07H
	DB	07H
	DB	07H
	DB	07H
	DB	07H
	DB	07H
	DB	08H
	DB	07H
	DB	01cH
	DB	0aH
	DB	0e9H
	DB	0aH
	DB	0aH
	DB	0aH
	DB	0aH
	DB	0aH
	DB	0aH
	DB	0aH
	DB	0aH
	DB	0aH
	DB	0aH
	DB	0aH
	DB	0aH
	DB	0aH
	DB	0aH
	DB	086H
	DB	086H
	DB	086H
	DB	086H
	DB	086H
	DB	086H
	DB	086H
	DB	086H
	DB	086H
	DB	086H
	DB	086H
	DB	05H
	DB	05H
	DB	05H
	DB	05H
	DB	05H
	DB	05H
	DB	057H
	DB	057H
	DB	057H
	DB	057H
	DB	04H
	DB	04H
	DB	04H
	DB	04H
	DB	04H
	DB	044H
	DB	044H
	DB	044H
	DB	03H
	DB	03H
	DB	03H
	DB	03H
	DB	03H
	DB	0c4H
	DB	0c4H
	DB	0c4H
	DB	0c4H
	DB	0c4H
	DB	0c4H
	DB	0c4H
	DB	0c4H
	DB	0c4H
	DB	0c4H
	DB	0c4H
	DB	0c4H
	DB	0c4H
	DB	0c4H
	DB	0c4H
	DB	0c4H
	DB	0c4H
	DB	0c4H
	DB	0c4H
	DB	0c4H
	DB	0c4H
	DB	0c4H
	DB	0c4H
	DB	0c4H
	DB	0c4H
	DB	0c4H
	DB	0c4H
	DB	0c4H
	DB	0c4H
	DB	0c4H
	DB	0c4H
	DB	0c4H
	DB	0c4H
	DB	0c4H
	DB	0c4H
	DB	0c4H
	DB	0c4H
	DB	0c4H
	DB	0c4H
	DB	0c4H
	DB	0c4H
	DB	0c4H
	DB	0c4H
	DB	0c4H
	DB	0c4H
	DB	0c4H
	DB	0c4H
	DB	0c4H
	DB	0c4H
	DB	0c4H
	DB	0c4H
	DB	0c4H
	DB	0c4H
	DB	0c4H
	DB	0c4H
	DB	0c4H
	DB	0c4H
	DB	0c4H
	DB	0c4H
	DB	0c4H
	DB	0c4H
	DB	0c4H
	DB	0c4H
	DB	0c4H
	DB	0c4H
	DB	0c4H
	DB	0c4H
	DB	0c4H
	DB	0c4H
	DB	0c4H
	DB	0c4H
	DB	0c4H
	DB	0c4H
	DB	0c4H
	DB	0c4H
	DB	0c4H
	DB	03H
	DB	03H
	DB	03H
	DB	03H
	DB	044H
	DB	04H
	DB	04H
	DB	057H
	DB	057H
	DB	057H
	DB	057H
	DB	057H
	DB	057H
	DB	04H
	DB	04H
	DB	04H
	DB	044H
	DB	044H
	DB	044H
	DB	044H
	DB	044H
	DB	044H
	DB	044H
	DB	044H
	DB	044H
	DB	044H
	DB	044H
	DB	053H
	DB	0e6H
	DB	02aH
	DB	01aH
	DB	053H
	DB	042H
	DB	02aH
	DB	02aH
	DB	02aH
	DB	02aH
	DB	01aH
	DB	014H
	DB	014H
	DB	01aH
	DB	01aH
	DB	01aH
	DB	01aH
	DB	02aH
	DB	02aH
	DB	014H
	DB	01aH
	DB	0e6H
	DB	01aH
	DB	053H
	DB	02bH
	DB	064H
	DB	064H
	DB	03bH
	DB	015H
	DB	015H
	DB	010H
	DB	011H
	DB	011H
	DB	011H
	DB	096H
	DB	018H
	DB	061H
	DB	040H
	DB	059H
	DB	039H
	DB	039H
	DB	02bH
	DB	0ceH
	DB	018H
	DB	018H
	DB	064H
	DB	082H
	DB	039H
	DB	039H
	DB	074H
	DB	03cH
	DB	095H
	DB	018H
	DB	018H
	DB	03bH
	DB	074H
	DB	082H
	DB	041H
	DB	023H
	DB	023H
	DB	028H
	DB	016H
	DB	012H
	DB	012H
	DB	012H
	DB	012H
	DB	016H
	DB	028H
	DB	0a6H
	DB	0a6H
	DB	054H
	DB	025H
	DB	025H
	DB	03bH
	DB	04eH
	DB	0fcH
	DB	0fcH
	DB	068H
	DB	03eH
	DB	03eH
	DB	023H
	DB	076H
	DB	016H
	DB	03aH
	DB	03aH
	DB	047H
	DB	047H
	DB	047H
	DB	098H
	DB	04fH
	DB	07H
	DB	07H
	DB	07H
	DB	07H
	DB	07H
	DB	07H
	DB	07H
	DB	07H
	DB	07H
	DB	07H
	DB	07H
	DB	07H
	DB	07H
	DB	07H
	DB	07H
	DB	07H
	DB	07H
	DB	07H
	DB	07H
	DB	07H
	DB	07H
	DB	07H
	DB	07H
	DB	07H
	DB	07H
	DB	07H
	DB	07H
	DB	07H
	DB	07H
	DB	07H
	DB	07H
	DB	07H
	DB	07H
	DB	07H
	DB	07H
	DB	07H
	DB	07H
	DB	07H
	DB	07H
	DB	07H
	DB	07H
	DB	07H
	DB	07H
	DB	01H
	DB	01H
	DB	01H
	DB	01H
	DB	03H
	DB	02cH
	DB	049H
	DB	07H
	DB	07H
	DB	07H
	DB	07H
	DB	07H
	DB	07H
	DB	07H
	DB	07H
	DB	07H
	DB	08H
	DB	07H
	DB	01cH
	DB	0aH
	DB	0e9H
	DB	0aH
	DB	0aH
	DB	0aH
	DB	0aH
	DB	0aH
	DB	0aH
	DB	0aH
	DB	0aH
	DB	0aH
	DB	0aH
	DB	0aH
	DB	0aH
	DB	0aH
	DB	0aH
	DB	0aH
	DB	0aH
	DB	086H
	DB	086H
	DB	086H
	DB	086H
	DB	086H
	DB	086H
	DB	086H
	DB	086H
	DB	086H
	DB	086H
	DB	086H
	DB	05H
	DB	05H
	DB	05H
	DB	05H
	DB	05H
	DB	057H
	DB	057H
	DB	057H
	DB	04H
	DB	04H
	DB	04H
	DB	04H
	DB	04H
	DB	044H
	DB	044H
	DB	044H
	DB	03H
	DB	03H
	DB	03H
	DB	03H
	DB	03H
	DB	0c4H
	DB	0c4H
	DB	0c4H
	DB	0c4H
	DB	0c4H
	DB	0c4H
	DB	0c4H
	DB	0c4H
	DB	0c4H
	DB	0c4H
	DB	0c4H
	DB	0c4H
	DB	0c4H
	DB	0c4H
	DB	0c4H
	DB	0c4H
	DB	0c4H
	DB	0c4H
	DB	0c4H
	DB	0c4H
	DB	0c4H
	DB	0c4H
	DB	0c4H
	DB	0c4H
	DB	0c4H
	DB	0c4H
	DB	0c4H
	DB	0c4H
	DB	0c4H
	DB	0c4H
	DB	0c4H
	DB	0c4H
	DB	0c4H
	DB	0c4H
	DB	0c4H
	DB	0c4H
	DB	0c4H
	DB	0c4H
	DB	0c4H
	DB	0c4H
	DB	0c4H
	DB	0c4H
	DB	0c4H
	DB	0c4H
	DB	0c4H
	DB	0c4H
	DB	0c4H
	DB	0c4H
	DB	0c4H
	DB	0c4H
	DB	0c4H
	DB	0c4H
	DB	0c4H
	DB	0c4H
	DB	0c4H
	DB	0c4H
	DB	0c4H
	DB	0c4H
	DB	0c4H
	DB	0c4H
	DB	0c4H
	DB	0c4H
	DB	0c4H
	DB	0c4H
	DB	0c4H
	DB	0c4H
	DB	0c4H
	DB	0c4H
	DB	0c4H
	DB	0c4H
	DB	0c4H
	DB	0c4H
	DB	0c4H
	DB	0c4H
	DB	03H
	DB	03H
	DB	03H
	DB	03H
	DB	03H
	DB	044H
	DB	044H
	DB	04H
	DB	04H
	DB	04H
	DB	057H
	DB	05H
	DB	05H
	DB	05H
	DB	057H
	DB	057H
	DB	04H
	DB	04H
	DB	04H
	DB	044H
	DB	044H
	DB	044H
	DB	044H
	DB	044H
	DB	044H
	DB	044H
	DB	044H
	DB	044H
	DB	04H
	DB	03cH
	DB	02aH
	DB	01aH
	DB	014H
	DB	03cH
	DB	042H
	DB	02aH
	DB	02aH
	DB	02aH
	DB	01aH
	DB	01aH
	DB	014H
	DB	01aH
	DB	01aH
	DB	01aH
	DB	01aH
	DB	02aH
	DB	02aH
	DB	01aH
	DB	014H
	DB	01aH
	DB	01aH
	DB	014H
	DB	048H
	DB	03fH
	DB	07eH
	DB	03fH
	DB	015H
	DB	015H
	DB	010H
	DB	010H
	DB	011H
	DB	011H
	DB	05bH
	DB	039H
	DB	039H
	DB	072H
	DB	0afH
	DB	039H
	DB	074H
	DB	040H
	DB	08eH
	DB	018H
	DB	018H
	DB	075H
	DB	072H
	DB	039H
	DB	039H
	DB	039H
	DB	07aH
	DB	089H
	DB	018H
	DB	018H
	DB	040H
	DB	0afH
	DB	039H
	DB	097H
	DB	063H
	DB	023H
	DB	028H
	DB	016H
	DB	012H
	DB	012H
	DB	012H
	DB	012H
	DB	012H
	DB	016H
	DB	028H
	DB	0a6H
	DB	068H
	DB	072H
	DB	0afH
	DB	025H
	DB	025H
	DB	04cH
	DB	0baH
	DB	0baH
	DB	0baH
	DB	03eH
	DB	0baH
	DB	021H
	DB	016H
	DB	016H
	DB	09aH
	DB	016H
	DB	076H
	DB	076H
	DB	035H
	DB	07dH
	DB	048H
	DB	04bH
	DB	07H
	DB	07H
	DB	07H
	DB	07H
	DB	07H
	DB	07H
	DB	07H
	DB	07H
	DB	07H
	DB	07H
	DB	07H
	DB	07H
	DB	07H
	DB	07H
	DB	07H
	DB	07H
	DB	07H
	DB	07H
	DB	07H
	DB	07H
	DB	07H
	DB	07H
	DB	07H
	DB	07H
	DB	07H
	DB	07H
	DB	07H
	DB	07H
	DB	07H
	DB	07H
	DB	07H
	DB	07H
	DB	07H
	DB	07H
	DB	07H
	DB	07H
	DB	07H
	DB	07H
	DB	07H
	DB	07H
	DB	07H
	DB	07H
	DB	01H
	DB	01H
	DB	01H
	DB	01H
	DB	03H
	DB	02cH
	DB	049H
	DB	07H
	DB	07H
	DB	07H
	DB	07H
	DB	07H
	DB	07H
	DB	07H
	DB	07H
	DB	07H
	DB	08H
	DB	07H
	DB	01cH
	DB	0aH
	DB	0e9H
	DB	0e9H
	DB	0e9H
	DB	0aH
	DB	0aH
	DB	0aH
	DB	0aH
	DB	0aH
	DB	0aH
	DB	0aH
	DB	0aH
	DB	0aH
	DB	0aH
	DB	0aH
	DB	0aH
	DB	0aH
	DB	0aH
	DB	0aH
	DB	0aH
	DB	086H
	DB	086H
	DB	086H
	DB	086H
	DB	086H
	DB	086H
	DB	086H
	DB	086H
	DB	086H
	DB	05H
	DB	05H
	DB	05H
	DB	05H
	DB	05H
	DB	057H
	DB	057H
	DB	057H
	DB	04H
	DB	04H
	DB	04H
	DB	04H
	DB	04H
	DB	044H
	DB	044H
	DB	044H
	DB	03H
	DB	03H
	DB	03H
	DB	03H
	DB	03H
	DB	0c4H
	DB	0c4H
	DB	0c4H
	DB	0c4H
	DB	0c4H
	DB	0c4H
	DB	0c4H
	DB	0c4H
	DB	0c4H
	DB	0c4H
	DB	0c4H
	DB	0c4H
	DB	0c4H
	DB	0c4H
	DB	0c4H
	DB	0c4H
	DB	0c4H
	DB	0c4H
	DB	0c4H
	DB	0c4H
	DB	0c4H
	DB	0c4H
	DB	0c4H
	DB	0c4H
	DB	0c4H
	DB	0c4H
	DB	0c4H
	DB	0c4H
	DB	0c4H
	DB	0c4H
	DB	0c4H
	DB	0c4H
	DB	0c4H
	DB	0c4H
	DB	0c4H
	DB	0c4H
	DB	0c4H
	DB	0c4H
	DB	0c4H
	DB	0c4H
	DB	0c4H
	DB	0c4H
	DB	0c4H
	DB	0c4H
	DB	0c4H
	DB	0c4H
	DB	0c4H
	DB	0c4H
	DB	0c4H
	DB	0c4H
	DB	0c4H
	DB	0c4H
	DB	0c4H
	DB	0c4H
	DB	0c4H
	DB	0c4H
	DB	0c4H
	DB	0c4H
	DB	0c4H
	DB	0c4H
	DB	0c4H
	DB	0c4H
	DB	0c4H
	DB	0c4H
	DB	0c4H
	DB	0c4H
	DB	0c4H
	DB	0c4H
	DB	0c4H
	DB	0c4H
	DB	0c4H
	DB	0c4H
	DB	0c4H
	DB	03H
	DB	03H
	DB	03H
	DB	03H
	DB	03H
	DB	03H
	DB	044H
	DB	044H
	DB	04H
	DB	04H
	DB	04H
	DB	057H
	DB	05H
	DB	05H
	DB	05H
	DB	05H
	DB	057H
	DB	057H
	DB	04H
	DB	04H
	DB	04H
	DB	044H
	DB	044H
	DB	044H
	DB	044H
	DB	044H
	DB	044H
	DB	044H
	DB	044H
	DB	053H
	DB	01aH
	DB	01aH
	DB	01aH
	DB	053H
	DB	03cH
	DB	042H
	DB	02aH
	DB	02aH
	DB	02aH
	DB	01aH
	DB	014H
	DB	014H
	DB	01aH
	DB	01aH
	DB	01aH
	DB	01aH
	DB	02aH
	DB	0e6H
	DB	01aH
	DB	01aH
	DB	01aH
	DB	01aH
	DB	053H
	DB	03bH
	DB	07eH
	DB	07eH
	DB	03bH
	DB	015H
	DB	015H
	DB	010H
	DB	010H
	DB	011H
	DB	04bH
	DB	061H
	DB	039H
	DB	0b0H
	DB	02bH
	DB	039H
	DB	039H
	DB	02bH
	DB	08eH
	DB	018H
	DB	018H
	DB	018H
	DB	050H
	DB	074H
	DB	039H
	DB	039H
	DB	082H
	DB	02bH
	DB	018H
	DB	018H
	DB	061H
	DB	073H
	DB	039H
	DB	082H
	DB	0c9H
	DB	01fH
	DB	021H
	DB	028H
	DB	016H
	DB	012H
	DB	012H
	DB	012H
	DB	01bH
	DB	012H
	DB	012H
	DB	016H
	DB	028H
	DB	0a0H
	DB	073H
	DB	083H
	DB	025H
	DB	04dH
	DB	025H
	DB	04eH
	DB	01fH
	DB	01fH
	DB	0baH
	DB	023H
	DB	021H
	DB	076H
	DB	016H
	DB	012H
	DB	012H
	DB	016H
	DB	076H
	DB	076H
	DB	016H
	DB	090H
	DB	025H
	DB	02H
	DB	02H
	DB	07H
	DB	07H
	DB	07H
	DB	07H
	DB	07H
	DB	07H
	DB	07H
	DB	07H
	DB	07H
	DB	07H
	DB	07H
	DB	07H
	DB	07H
	DB	07H
	DB	07H
	DB	07H
	DB	07H
	DB	07H
	DB	07H
	DB	07H
	DB	07H
	DB	07H
	DB	07H
	DB	07H
	DB	07H
	DB	07H
	DB	07H
	DB	07H
	DB	07H
	DB	07H
	DB	07H
	DB	07H
	DB	07H
	DB	07H
	DB	07H
	DB	07H
	DB	07H
	DB	07H
	DB	07H
	DB	07H
	DB	01H
	DB	01H
	DB	01H
	DB	01H
	DB	03H
	DB	02cH
	DB	049H
	DB	07H
	DB	07H
	DB	07H
	DB	07H
	DB	07H
	DB	07H
	DB	07H
	DB	07H
	DB	07H
	DB	07H
	DB	07H
	DB	01cH
	DB	0aH
	DB	0e9H
	DB	0e9H
	DB	0e9H
	DB	0aH
	DB	0aH
	DB	0aH
	DB	0aH
	DB	0aH
	DB	0aH
	DB	0aH
	DB	0aH
	DB	0aH
	DB	0aH
	DB	0aH
	DB	0aH
	DB	0aH
	DB	0aH
	DB	0aH
	DB	0aH
	DB	0aH
	DB	0aH
	DB	0aH
	DB	086H
	DB	086H
	DB	086H
	DB	086H
	DB	086H
	DB	086H
	DB	05H
	DB	05H
	DB	05H
	DB	05H
	DB	05H
	DB	05H
	DB	057H
	DB	057H
	DB	057H
	DB	04H
	DB	04H
	DB	04H
	DB	04H
	DB	044H
	DB	044H
	DB	044H
	DB	03H
	DB	03H
	DB	03H
	DB	03H
	DB	03H
	DB	0c4H
	DB	0c4H
	DB	0c4H
	DB	0c4H
	DB	0c4H
	DB	0c4H
	DB	0c4H
	DB	0c4H
	DB	0c4H
	DB	0c4H
	DB	0c4H
	DB	0c4H
	DB	0c4H
	DB	0c4H
	DB	0c4H
	DB	0c4H
	DB	0c4H
	DB	0c4H
	DB	0c4H
	DB	0c4H
	DB	0c4H
	DB	0c4H
	DB	0c4H
	DB	0c4H
	DB	0c4H
	DB	0c4H
	DB	0c4H
	DB	0c4H
	DB	0c4H
	DB	0c4H
	DB	0c4H
	DB	0c4H
	DB	0c4H
	DB	0c4H
	DB	0c4H
	DB	0c4H
	DB	0c4H
	DB	0c4H
	DB	0c4H
	DB	0c4H
	DB	0c4H
	DB	0c4H
	DB	0c4H
	DB	0c4H
	DB	0c4H
	DB	0c4H
	DB	0c4H
	DB	0c4H
	DB	0c4H
	DB	0c4H
	DB	0c4H
	DB	0c4H
	DB	0c4H
	DB	0c4H
	DB	0c4H
	DB	0c4H
	DB	0c4H
	DB	0c4H
	DB	0c4H
	DB	0c4H
	DB	0c4H
	DB	0c4H
	DB	0c4H
	DB	0c4H
	DB	0c4H
	DB	0c4H
	DB	0c4H
	DB	0c4H
	DB	0c4H
	DB	0c4H
	DB	0c4H
	DB	0c4H
	DB	03H
	DB	03H
	DB	03H
	DB	03H
	DB	03H
	DB	03H
	DB	044H
	DB	044H
	DB	044H
	DB	04H
	DB	04H
	DB	04H
	DB	057H
	DB	057H
	DB	05H
	DB	05H
	DB	05H
	DB	05H
	DB	057H
	DB	057H
	DB	04H
	DB	04H
	DB	04H
	DB	044H
	DB	044H
	DB	044H
	DB	044H
	DB	044H
	DB	044H
	DB	04H
	DB	053H
	DB	01aH
	DB	01aH
	DB	014H
	DB	03cH
	DB	042H
	DB	02aH
	DB	02aH
	DB	01aH
	DB	01aH
	DB	01aH
	DB	014H
	DB	014H
	DB	01aH
	DB	01aH
	DB	01aH
	DB	01aH
	DB	02aH
	DB	0e6H
	DB	014H
	DB	01aH
	DB	01aH
	DB	01aH
	DB	053H
	DB	02bH
	DB	07eH
	DB	03fH
	DB	025H
	DB	015H
	DB	015H
	DB	010H
	DB	011H
	DB	011H
	DB	0f7H
	DB	039H
	DB	039H
	DB	02bH
	DB	082H
	DB	039H
	DB	0afH
	DB	07aH
	DB	018H
	DB	018H
	DB	018H
	DB	08eH
	DB	07aH
	DB	039H
	DB	039H
	DB	039H
	DB	072H
	DB	075H
	DB	018H
	DB	018H
	DB	078H
	DB	059H
	DB	039H
	DB	097H
	DB	063H
	DB	01fH
	DB	028H
	DB	016H
	DB	012H
	DB	012H
	DB	012H
	DB	012H
	DB	01bH
	DB	01bH
	DB	012H
	DB	016H
	DB	028H
	DB	0b3H
	DB	073H
	DB	058H
	DB	03fH
	DB	04dH
	DB	04dH
	DB	03bH
	DB	058H
	DB	0baH
	DB	0baH
	DB	023H
	DB	021H
	DB	028H
	DB	016H
	DB	012H
	DB	012H
	DB	012H
	DB	016H
	DB	076H
	DB	076H
	DB	076H
	DB	073H
	DB	011H
	DB	02H
	DB	07H
	DB	07H
	DB	07H
	DB	07H
	DB	07H
	DB	07H
	DB	07H
	DB	07H
	DB	07H
	DB	07H
	DB	07H
	DB	07H
	DB	07H
	DB	07H
	DB	07H
	DB	07H
	DB	07H
	DB	07H
	DB	07H
	DB	07H
	DB	07H
	DB	07H
	DB	07H
	DB	07H
	DB	07H
	DB	07H
	DB	07H
	DB	07H
	DB	07H
	DB	07H
	DB	07H
	DB	07H
	DB	07H
	DB	07H
	DB	07H
	DB	07H
	DB	07H
	DB	07H
	DB	07H
	DB	07H
	DB	01H
	DB	01H
	DB	01H
	DB	01H
	DB	03H
	DB	02cH
	DB	049H
	DB	07H
	DB	07H
	DB	07H
	DB	07H
	DB	07H
	DB	07H
	DB	07H
	DB	07H
	DB	07H
	DB	07H
	DB	07H
	DB	01cH
	DB	0aH
	DB	0e9H
	DB	0e9H
	DB	0e9H
	DB	0e9H
	DB	0e9H
	DB	0aH
	DB	0aH
	DB	0aH
	DB	0aH
	DB	0aH
	DB	0aH
	DB	0aH
	DB	0aH
	DB	0aH
	DB	0aH
	DB	0aH
	DB	0aH
	DB	0aH
	DB	0aH
	DB	0aH
	DB	0aH
	DB	0aH
	DB	0aH
	DB	0aH
	DB	086H
	DB	086H
	DB	086H
	DB	086H
	DB	05H
	DB	05H
	DB	05H
	DB	05H
	DB	05H
	DB	05H
	DB	057H
	DB	057H
	DB	057H
	DB	04H
	DB	04H
	DB	04H
	DB	04H
	DB	044H
	DB	044H
	DB	044H
	DB	03H
	DB	03H
	DB	03H
	DB	03H
	DB	03H
	DB	0c4H
	DB	0c4H
	DB	0c4H
	DB	0c4H
	DB	0c4H
	DB	0c4H
	DB	0c4H
	DB	0c4H
	DB	0c4H
	DB	0c4H
	DB	0c4H
	DB	0c4H
	DB	0c4H
	DB	0c4H
	DB	0c4H
	DB	0c4H
	DB	0c4H
	DB	0c4H
	DB	0c4H
	DB	0c4H
	DB	0c4H
	DB	0c4H
	DB	0c4H
	DB	0c4H
	DB	0c4H
	DB	0c4H
	DB	0c4H
	DB	0c4H
	DB	0c4H
	DB	0c4H
	DB	0c4H
	DB	0c4H
	DB	0c4H
	DB	0c4H
	DB	0c4H
	DB	0c4H
	DB	0c4H
	DB	0c4H
	DB	0c4H
	DB	0c4H
	DB	0c4H
	DB	0c4H
	DB	0c4H
	DB	0c4H
	DB	0c4H
	DB	0c4H
	DB	0c4H
	DB	0c4H
	DB	0c4H
	DB	0c4H
	DB	0c4H
	DB	0c4H
	DB	0c4H
	DB	0c4H
	DB	0c4H
	DB	0c4H
	DB	0c4H
	DB	0c4H
	DB	0c4H
	DB	0c4H
	DB	0c4H
	DB	0c4H
	DB	0c4H
	DB	0c4H
	DB	0c4H
	DB	0c4H
	DB	0c4H
	DB	0c4H
	DB	0c4H
	DB	0c4H
	DB	03H
	DB	03H
	DB	03H
	DB	03H
	DB	03H
	DB	03H
	DB	044H
	DB	044H
	DB	044H
	DB	044H
	DB	04H
	DB	04H
	DB	04H
	DB	04H
	DB	057H
	DB	057H
	DB	05H
	DB	05H
	DB	05H
	DB	05H
	DB	05H
	DB	05H
	DB	057H
	DB	04H
	DB	04H
	DB	04H
	DB	04H
	DB	044H
	DB	044H
	DB	044H
	DB	044H
	DB	04H
	DB	03cH
	DB	01aH
	DB	01aH
	DB	053H
	DB	03cH
	DB	042H
	DB	02aH
	DB	01aH
	DB	01aH
	DB	01aH
	DB	01aH
	DB	053H
	DB	01aH
	DB	01aH
	DB	01aH
	DB	01aH
	DB	01aH
	DB	02aH
	DB	01aH
	DB	053H
	DB	03cH
	DB	01aH
	DB	01aH
	DB	048H
	DB	03fH
	DB	03fH
	DB	050H
	DB	015H
	DB	015H
	DB	010H
	DB	010H
	DB	011H
	DB	0d3H
	DB	039H
	DB	039H
	DB	082H
	DB	03fH
	DB	039H
	DB	082H
	DB	02bH
	DB	039H
	DB	018H
	DB	018H
	DB	018H
	DB	064H
	DB	059H
	DB	039H
	DB	039H
	DB	074H
	DB	03fH
	DB	01dH
	DB	01dH
	DB	018H
	DB	078H
	DB	074H
	DB	0afH
	DB	0d5H
	DB	01fH
	DB	01fH
	DB	028H
	DB	012H
	DB	012H
	DB	01bH
	DB	01bH
	DB	01bH
	DB	01bH
	DB	01bH
	DB	01bH
	DB	012H
	DB	016H
	DB	016H
	DB	041H
	DB	058H
	DB	0caH
	DB	025H
	DB	027H
	DB	025H
	DB	085H
	DB	058H
	DB	0baH
	DB	023H
	DB	023H
	DB	028H
	DB	016H
	DB	012H
	DB	012H
	DB	012H
	DB	012H
	DB	016H
	DB	016H
	DB	016H
	DB	090H
	DB	010H
	DB	011H
	DB	02H
	DB	07H
	DB	07H
	DB	07H
	DB	07H
	DB	07H
	DB	07H
	DB	07H
	DB	07H
	DB	07H
	DB	07H
	DB	07H
	DB	07H
	DB	07H
	DB	07H
	DB	07H
	DB	07H
	DB	07H
	DB	07H
	DB	07H
	DB	07H
	DB	07H
	DB	07H
	DB	07H
	DB	07H
	DB	07H
	DB	07H
	DB	07H
	DB	07H
	DB	07H
	DB	07H
	DB	07H
	DB	07H
	DB	07H
	DB	07H
	DB	07H
	DB	07H
	DB	07H
	DB	07H
	DB	07H
	DB	01H
	DB	01H
	DB	01H
	DB	01H
	DB	03H
	DB	02cH
	DB	049H
	DB	07H
	DB	07H
	DB	07H
	DB	07H
	DB	07H
	DB	07H
	DB	07H
	DB	07H
	DB	07H
	DB	07H
	DB	02H
	DB	01cH
	DB	0aH
	DB	0a2H
	DB	0e9H
	DB	0e9H
	DB	0e9H
	DB	0e9H
	DB	0e9H
	DB	0e9H
	DB	0aH
	DB	0aH
	DB	0aH
	DB	0aH
	DB	0aH
	DB	0aH
	DB	0aH
	DB	0aH
	DB	0aH
	DB	0aH
	DB	0aH
	DB	0aH
	DB	0aH
	DB	0aH
	DB	0aH
	DB	0aH
	DB	0aH
	DB	0aH
	DB	086H
	DB	086H
	DB	086H
	DB	05H
	DB	05H
	DB	05H
	DB	05H
	DB	05H
	DB	05H
	DB	057H
	DB	057H
	DB	057H
	DB	04H
	DB	04H
	DB	04H
	DB	04H
	DB	044H
	DB	044H
	DB	044H
	DB	03H
	DB	03H
	DB	03H
	DB	03H
	DB	0c4H
	DB	0c4H
	DB	0c4H
	DB	0c4H
	DB	0c4H
	DB	0c4H
	DB	0c4H
	DB	0c4H
	DB	0c4H
	DB	0c4H
	DB	0c4H
	DB	0c4H
	DB	0c4H
	DB	0c4H
	DB	0c4H
	DB	0c4H
	DB	0c4H
	DB	0c4H
	DB	0c4H
	DB	0c4H
	DB	0c4H
	DB	0c4H
	DB	0c4H
	DB	0c4H
	DB	0c4H
	DB	0c4H
	DB	0c4H
	DB	0c4H
	DB	0c4H
	DB	0c4H
	DB	0c4H
	DB	0c4H
	DB	0c4H
	DB	0c4H
	DB	0c4H
	DB	0c4H
	DB	0c4H
	DB	0c4H
	DB	0c4H
	DB	0c4H
	DB	0c4H
	DB	0c4H
	DB	0c4H
	DB	0c4H
	DB	0c4H
	DB	0c4H
	DB	0c4H
	DB	0c4H
	DB	0c4H
	DB	0c4H
	DB	0c4H
	DB	0c4H
	DB	0c4H
	DB	0c4H
	DB	0c4H
	DB	0c4H
	DB	0c4H
	DB	0c4H
	DB	0c4H
	DB	0c4H
	DB	0c4H
	DB	0c4H
	DB	0c4H
	DB	0c4H
	DB	0c4H
	DB	0c4H
	DB	0c4H
	DB	0c4H
	DB	0c4H
	DB	0c4H
	DB	0c4H
	DB	03H
	DB	03H
	DB	03H
	DB	03H
	DB	03H
	DB	044H
	DB	044H
	DB	044H
	DB	04H
	DB	04H
	DB	04H
	DB	04H
	DB	04H
	DB	04H
	DB	057H
	DB	057H
	DB	05H
	DB	05H
	DB	05H
	DB	086H
	DB	05H
	DB	05H
	DB	05H
	DB	057H
	DB	04H
	DB	04H
	DB	04H
	DB	04H
	DB	04H
	DB	044H
	DB	04H
	DB	053H
	DB	03cH
	DB	01aH
	DB	014H
	DB	053H
	DB	042H
	DB	042H
	DB	02aH
	DB	01aH
	DB	02aH
	DB	01aH
	DB	014H
	DB	053H
	DB	01aH
	DB	01aH
	DB	01aH
	DB	01aH
	DB	02aH
	DB	0e6H
	DB	03cH
	DB	014H
	DB	01aH
	DB	01aH
	DB	053H
	DB	03bH
	DB	03fH
	DB	03fH
	DB	03bH
	DB	015H
	DB	015H
	DB	010H
	DB	010H
	DB	04bH
	DB	061H
	DB	018H
	DB	039H
	DB	03fH
	DB	082H
	DB	039H
	DB	03fH
	DB	08eH
	DB	018H
	DB	018H
	DB	018H
	DB	018H
	DB	072H
	DB	074H
	DB	039H
	DB	039H
	DB	082H
	DB	089H
	DB	01dH
	DB	01dH
	DB	01dH
	DB	078H
	DB	0c0H
	DB	098H
	DB	021H
	DB	03eH
	DB	023H
	DB	016H
	DB	012H
	DB	01bH
	DB	01bH
	DB	01bH
	DB	01bH
	DB	01bH
	DB	01bH
	DB	01bH
	DB	012H
	DB	016H
	DB	012H
	DB	090H
	DB	059H
	DB	055H
	DB	04dH
	DB	08cH
	DB	08cH
	DB	04dH
	DB	097H
	DB	066H
	DB	023H
	DB	023H
	DB	028H
	DB	016H
	DB	012H
	DB	012H
	DB	012H
	DB	012H
	DB	016H
	DB	016H
	DB	016H
	DB	047H
	DB	03bH
	DB	011H
	DB	02H
	DB	02H
	DB	07H
	DB	07H
	DB	07H
	DB	07H
	DB	07H
	DB	07H
	DB	07H
	DB	07H
	DB	07H
	DB	07H
	DB	07H
	DB	07H
	DB	07H
	DB	07H
	DB	07H
	DB	07H
	DB	07H
	DB	07H
	DB	07H
	DB	07H
	DB	07H
	DB	07H
	DB	07H
	DB	07H
	DB	07H
	DB	07H
	DB	07H
	DB	07H
	DB	07H
	DB	07H
	DB	07H
	DB	07H
	DB	07H
	DB	07H
	DB	07H
	DB	07H
	DB	07H
	DB	07H
	DB	01H
	DB	01H
	DB	01H
	DB	01H
	DB	03H
	DB	02cH
	DB	049H
	DB	07H
	DB	07H
	DB	07H
	DB	07H
	DB	07H
	DB	07H
	DB	07H
	DB	07H
	DB	07H
	DB	07H
	DB	02H
	DB	01cH
	DB	0aH
	DB	0a2H
	DB	0e9H
	DB	0e9H
	DB	0e9H
	DB	0e9H
	DB	0e9H
	DB	0e9H
	DB	0e9H
	DB	0e9H
	DB	0aH
	DB	0aH
	DB	0aH
	DB	0aH
	DB	0aH
	DB	0aH
	DB	0aH
	DB	0aH
	DB	0aH
	DB	0aH
	DB	0aH
	DB	0aH
	DB	0aH
	DB	0aH
	DB	0aH
	DB	0aH
	DB	086H
	DB	086H
	DB	086H
	DB	086H
	DB	05H
	DB	05H
	DB	05H
	DB	05H
	DB	05H
	DB	057H
	DB	057H
	DB	057H
	DB	04H
	DB	04H
	DB	04H
	DB	04H
	DB	044H
	DB	044H
	DB	044H
	DB	03H
	DB	03H
	DB	03H
	DB	03H
	DB	0c4H
	DB	0c4H
	DB	0c4H
	DB	0c4H
	DB	0c4H
	DB	0c4H
	DB	0c4H
	DB	0c4H
	DB	0c4H
	DB	0c4H
	DB	0c4H
	DB	0c4H
	DB	0c4H
	DB	0c4H
	DB	0c4H
	DB	0c4H
	DB	0c4H
	DB	0c4H
	DB	0c4H
	DB	0c4H
	DB	0c4H
	DB	0c4H
	DB	0c4H
	DB	0c4H
	DB	0c4H
	DB	0c4H
	DB	0c4H
	DB	0c4H
	DB	0c4H
	DB	0c4H
	DB	0c4H
	DB	0c4H
	DB	0c4H
	DB	0c4H
	DB	0c4H
	DB	0c4H
	DB	0c4H
	DB	0c4H
	DB	0c4H
	DB	0c4H
	DB	0c4H
	DB	0c4H
	DB	0c4H
	DB	0c4H
	DB	0c4H
	DB	0c4H
	DB	0c4H
	DB	0c4H
	DB	0c4H
	DB	0c4H
	DB	0c4H
	DB	0c4H
	DB	0c4H
	DB	0c4H
	DB	0c4H
	DB	0c4H
	DB	0c4H
	DB	0c4H
	DB	0c4H
	DB	0c4H
	DB	0c4H
	DB	0c4H
	DB	0c4H
	DB	0c4H
	DB	0c4H
	DB	0c4H
	DB	0c4H
	DB	0c4H
	DB	0c4H
	DB	0c4H
	DB	03H
	DB	03H
	DB	03H
	DB	03H
	DB	044H
	DB	044H
	DB	044H
	DB	044H
	DB	04H
	DB	04H
	DB	04H
	DB	04H
	DB	04H
	DB	057H
	DB	057H
	DB	057H
	DB	05H
	DB	05H
	DB	05H
	DB	086H
	DB	086H
	DB	086H
	DB	05H
	DB	05H
	DB	05H
	DB	057H
	DB	057H
	DB	04H
	DB	04H
	DB	04H
	DB	04H
	DB	04H
	DB	053H
	DB	053H
	DB	03cH
	DB	014H
	DB	01aH
	DB	042H
	DB	02aH
	DB	02aH
	DB	02aH
	DB	02aH
	DB	01aH
	DB	014H
	DB	014H
	DB	01aH
	DB	01aH
	DB	01aH
	DB	02aH
	DB	02aH
	DB	042H
	DB	053H
	DB	01aH
	DB	01aH
	DB	01aH
	DB	032H
	DB	03fH
	DB	03fH
	DB	03fH
	DB	032H
	DB	015H
	DB	015H
	DB	010H
	DB	010H
	DB	0d3H
	DB	018H
	DB	018H
	DB	061H
	DB	03fH
	DB	039H
	DB	074H
	DB	050H
	DB	018H
	DB	018H
	DB	018H
	DB	018H
	DB	018H
	DB	064H
	DB	074H
	DB	039H
	DB	039H
	DB	0b0H
	DB	095H
	DB	01dH
	DB	01dH
	DB	045H
	DB	050H
	DB	0c9H
	DB	01fH
	DB	023H
	DB	023H
	DB	021H
	DB	016H
	DB	012H
	DB	01bH
	DB	01bH
	DB	01bH
	DB	01bH
	DB	01bH
	DB	01bH
	DB	01bH
	DB	012H
	DB	012H
	DB	012H
	DB	012H
	DB	021H
	DB	03dH
	DB	0c0H
	DB	0a5H
	DB	024H
	DB	09cH
	DB	01eH
	DB	0c0H
	DB	03eH
	DB	023H
	DB	028H
	DB	028H
	DB	012H
	DB	012H
	DB	012H
	DB	012H
	DB	012H
	DB	016H
	DB	016H
	DB	016H
	DB	0d5H
	DB	010H
	DB	011H
	DB	02H
	DB	07H
	DB	07H
	DB	07H
	DB	07H
	DB	07H
	DB	07H
	DB	07H
	DB	07H
	DB	07H
	DB	07H
	DB	07H
	DB	07H
	DB	07H
	DB	07H
	DB	07H
	DB	07H
	DB	07H
	DB	07H
	DB	07H
	DB	07H
	DB	07H
	DB	07H
	DB	07H
	DB	07H
	DB	07H
	DB	07H
	DB	07H
	DB	07H
	DB	07H
	DB	07H
	DB	07H
	DB	07H
	DB	07H
	DB	07H
	DB	07H
	DB	07H
	DB	07H
	DB	07H
	DB	01H
	DB	01H
	DB	01H
	DB	01H
	DB	03H
	DB	02cH
	DB	049H
	DB	07H
	DB	07H
	DB	07H
	DB	07H
	DB	07H
	DB	07H
	DB	07H
	DB	07H
	DB	07H
	DB	07H
	DB	02H
	DB	01cH
	DB	0aH
	DB	0dH
	DB	0e9H
	DB	0e9H
	DB	0e9H
	DB	0e9H
	DB	0e9H
	DB	0e9H
	DB	0e9H
	DB	0e9H
	DB	0e9H
	DB	0e9H
	DB	0e9H
	DB	0aH
	DB	0aH
	DB	0aH
	DB	0aH
	DB	0aH
	DB	0aH
	DB	0aH
	DB	0aH
	DB	0aH
	DB	0aH
	DB	0aH
	DB	0aH
	DB	0aH
	DB	086H
	DB	086H
	DB	086H
	DB	086H
	DB	05H
	DB	05H
	DB	05H
	DB	05H
	DB	05H
	DB	057H
	DB	057H
	DB	057H
	DB	04H
	DB	04H
	DB	04H
	DB	04H
	DB	044H
	DB	044H
	DB	03H
	DB	03H
	DB	03H
	DB	03H
	DB	0c4H
	DB	0c4H
	DB	0c4H
	DB	0c4H
	DB	0c4H
	DB	0c4H
	DB	0c4H
	DB	0c4H
	DB	0c4H
	DB	0c4H
	DB	0c4H
	DB	0c4H
	DB	0c4H
	DB	0c4H
	DB	0c4H
	DB	0c4H
	DB	0c4H
	DB	0c4H
	DB	0c4H
	DB	0c4H
	DB	0c4H
	DB	0c4H
	DB	0c4H
	DB	0c4H
	DB	0c4H
	DB	0c4H
	DB	0c4H
	DB	0c4H
	DB	0c4H
	DB	0c4H
	DB	0c4H
	DB	0c4H
	DB	0c4H
	DB	0c4H
	DB	0c4H
	DB	0c4H
	DB	0c4H
	DB	0c4H
	DB	0c4H
	DB	0c4H
	DB	0c4H
	DB	0c4H
	DB	0c4H
	DB	0c4H
	DB	0c4H
	DB	0c4H
	DB	0c4H
	DB	0c4H
	DB	0c4H
	DB	0c4H
	DB	0c4H
	DB	0c4H
	DB	0c4H
	DB	0c4H
	DB	0c4H
	DB	0c4H
	DB	0c4H
	DB	0c4H
	DB	0c4H
	DB	0c4H
	DB	0c4H
	DB	0c4H
	DB	0c4H
	DB	0c4H
	DB	0c4H
	DB	0c4H
	DB	0c4H
	DB	0c4H
	DB	0c4H
	DB	03H
	DB	03H
	DB	03H
	DB	03H
	DB	03H
	DB	044H
	DB	044H
	DB	044H
	DB	044H
	DB	04H
	DB	04H
	DB	04H
	DB	04H
	DB	04H
	DB	057H
	DB	057H
	DB	05H
	DB	05H
	DB	05H
	DB	05H
	DB	05H
	DB	086H
	DB	086H
	DB	086H
	DB	086H
	DB	05H
	DB	05H
	DB	05H
	DB	05H
	DB	057H
	DB	057H
	DB	057H
	DB	04H
	DB	04H
	DB	04H
	DB	053H
	DB	053H
	DB	014H
	DB	03cH
	DB	042H
	DB	02aH
	DB	02aH
	DB	02aH
	DB	02aH
	DB	01aH
	DB	053H
	DB	01aH
	DB	01aH
	DB	01aH
	DB	01aH
	DB	02aH
	DB	02aH
	DB	042H
	DB	053H
	DB	01aH
	DB	03cH
	DB	053H
	DB	03bH
	DB	03fH
	DB	03fH
	DB	03bH
	DB	015H
	DB	015H
	DB	010H
	DB	010H
	DB	010H
	DB	0f8H
	DB	018H
	DB	018H
	DB	078H
	DB	0b0H
	DB	039H
	DB	0b0H
	DB	0ceH
	DB	018H
	DB	018H
	DB	018H
	DB	018H
	DB	018H
	DB	079H
	DB	074H
	DB	018H
	DB	018H
	DB	059H
	DB	07cH
	DB	01dH
	DB	01dH
	DB	08eH
	DB	03bH
	DB	04cH
	DB	01fH
	DB	01fH
	DB	028H
	DB	016H
	DB	016H
	DB	012H
	DB	01bH
	DB	01bH
	DB	01bH
	DB	01bH
	DB	01bH
	DB	012H
	DB	012H
	DB	012H
	DB	012H
	DB	012H
	DB	01bH
	DB	016H
	DB	028H
	DB	0caH
	DB	0a5H
	DB	024H
	DB	024H
	DB	031H
	DB	0a5H
	DB	0d7H
	DB	068H
	DB	023H
	DB	028H
	DB	016H
	DB	012H
	DB	012H
	DB	01bH
	DB	012H
	DB	012H
	DB	012H
	DB	016H
	DB	07dH
	DB	025H
	DB	011H
	DB	02H
	DB	02H
	DB	07H
	DB	07H
	DB	07H
	DB	07H
	DB	07H
	DB	07H
	DB	07H
	DB	07H
	DB	07H
	DB	07H
	DB	07H
	DB	07H
	DB	07H
	DB	07H
	DB	07H
	DB	07H
	DB	07H
	DB	07H
	DB	07H
	DB	07H
	DB	07H
	DB	07H
	DB	07H
	DB	07H
	DB	07H
	DB	07H
	DB	07H
	DB	07H
	DB	07H
	DB	07H
	DB	07H
	DB	07H
	DB	07H
	DB	07H
	DB	07H
	DB	07H
	DB	07H
	DB	01H
	DB	01H
	DB	01H
	DB	01H
	DB	03H
	DB	02cH
	DB	049H
	DB	07H
	DB	07H
	DB	07H
	DB	07H
	DB	07H
	DB	07H
	DB	07H
	DB	07H
	DB	07H
	DB	07H
	DB	02H
	DB	01cH
	DB	0aH
	DB	0dH
	DB	0e9H
	DB	0e9H
	DB	0e9H
	DB	0e9H
	DB	0e9H
	DB	0e9H
	DB	0e9H
	DB	0e9H
	DB	0e9H
	DB	0e9H
	DB	0e9H
	DB	0e9H
	DB	0e9H
	DB	0e9H
	DB	0e9H
	DB	0aH
	DB	0aH
	DB	0aH
	DB	0aH
	DB	0aH
	DB	0aH
	DB	0aH
	DB	0aH
	DB	0aH
	DB	086H
	DB	086H
	DB	086H
	DB	086H
	DB	05H
	DB	05H
	DB	05H
	DB	05H
	DB	05H
	DB	057H
	DB	057H
	DB	057H
	DB	04H
	DB	04H
	DB	04H
	DB	04H
	DB	044H
	DB	044H
	DB	03H
	DB	03H
	DB	03H
	DB	03H
	DB	0c4H
	DB	0c4H
	DB	0c4H
	DB	0c4H
	DB	0c4H
	DB	0c4H
	DB	0c4H
	DB	0c4H
	DB	0c4H
	DB	0c4H
	DB	0c4H
	DB	0c4H
	DB	0c4H
	DB	0c4H
	DB	0c4H
	DB	0c4H
	DB	0c4H
	DB	0c4H
	DB	0c4H
	DB	0c4H
	DB	0c4H
	DB	0c4H
	DB	0c4H
	DB	0c4H
	DB	0c4H
	DB	0c4H
	DB	0c4H
	DB	0c4H
	DB	0c4H
	DB	0c4H
	DB	0c4H
	DB	0c4H
	DB	0c4H
	DB	0c4H
	DB	0c4H
	DB	0c4H
	DB	0c4H
	DB	0c4H
	DB	0c4H
	DB	0c4H
	DB	0c4H
	DB	0c4H
	DB	0c4H
	DB	0c4H
	DB	0c4H
	DB	0c4H
	DB	0c4H
	DB	0c4H
	DB	0c4H
	DB	0c4H
	DB	0c4H
	DB	0c4H
	DB	0c4H
	DB	0c4H
	DB	0c4H
	DB	0c4H
	DB	0c4H
	DB	0c4H
	DB	0c4H
	DB	0c4H
	DB	0c4H
	DB	0c4H
	DB	0c4H
	DB	0c4H
	DB	0c4H
	DB	0c4H
	DB	0c4H
	DB	0c4H
	DB	03H
	DB	03H
	DB	03H
	DB	03H
	DB	03H
	DB	044H
	DB	044H
	DB	044H
	DB	044H
	DB	04H
	DB	04H
	DB	04H
	DB	04H
	DB	04H
	DB	057H
	DB	057H
	DB	05H
	DB	05H
	DB	05H
	DB	05H
	DB	05H
	DB	086H
	DB	086H
	DB	086H
	DB	0aH
	DB	086H
	DB	086H
	DB	086H
	DB	05H
	DB	05H
	DB	05H
	DB	05H
	DB	057H
	DB	057H
	DB	04H
	DB	04H
	DB	04H
	DB	04H
	DB	053H
	DB	042H
	DB	042H
	DB	02aH
	DB	02aH
	DB	02aH
	DB	01aH
	DB	01aH
	DB	014H
	DB	01aH
	DB	01aH
	DB	01aH
	DB	02aH
	DB	02aH
	DB	042H
	DB	03cH
	DB	014H
	DB	053H
	DB	04H
	DB	048H
	DB	02bH
	DB	03fH
	DB	03fH
	DB	025H
	DB	015H
	DB	015H
	DB	010H
	DB	010H
	DB	04bH
	DB	061H
	DB	018H
	DB	018H
	DB	040H
	DB	074H
	DB	039H
	DB	0afH
	DB	095H
	DB	018H
	DB	018H
	DB	018H
	DB	018H
	DB	018H
	DB	078H
	DB	0a7H
	DB	018H
	DB	018H
	DB	0d9H
	DB	07cH
	DB	01dH
	DB	018H
	DB	040H
	DB	03bH
	DB	03bH
	DB	066H
	DB	03eH
	DB	023H
	DB	028H
	DB	016H
	DB	012H
	DB	012H
	DB	01bH
	DB	01bH
	DB	01bH
	DB	012H
	DB	012H
	DB	012H
	DB	012H
	DB	012H
	DB	012H
	DB	012H
	DB	016H
	DB	016H
	DB	060H
	DB	08cH
	DB	031H
	DB	024H
	DB	031H
	DB	031H
	DB	0cdH
	DB	07aH
	DB	068H
	DB	023H
	DB	076H
	DB	012H
	DB	012H
	DB	01bH
	DB	012H
	DB	012H
	DB	012H
	DB	012H
	DB	016H
	DB	0c9H
	DB	010H
	DB	011H
	DB	02H
	DB	07H
	DB	07H
	DB	07H
	DB	07H
	DB	07H
	DB	07H
	DB	07H
	DB	07H
	DB	07H
	DB	07H
	DB	07H
	DB	07H
	DB	07H
	DB	07H
	DB	07H
	DB	07H
	DB	07H
	DB	07H
	DB	07H
	DB	07H
	DB	07H
	DB	07H
	DB	07H
	DB	07H
	DB	07H
	DB	07H
	DB	07H
	DB	07H
	DB	07H
	DB	07H
	DB	07H
	DB	07H
	DB	07H
	DB	07H
	DB	07H
	DB	07H
	DB	07H
	DB	01H
	DB	01H
	DB	01H
	DB	01H
	DB	03H
	DB	02cH
	DB	049H
	DB	07H
	DB	07H
	DB	07H
	DB	07H
	DB	07H
	DB	07H
	DB	07H
	DB	07H
	DB	07H
	DB	07H
	DB	02H
	DB	01cH
	DB	0aH
	DB	0dH
	DB	0e9H
	DB	0e9H
	DB	0e9H
	DB	0e9H
	DB	0e9H
	DB	0e9H
	DB	0e9H
	DB	0e9H
	DB	0e9H
	DB	0e9H
	DB	0e9H
	DB	0e9H
	DB	0e9H
	DB	0e9H
	DB	0e9H
	DB	0e9H
	DB	0e9H
	DB	0e9H
	DB	0aH
	DB	0aH
	DB	0aH
	DB	0aH
	DB	0aH
	DB	0aH
	DB	086H
	DB	086H
	DB	086H
	DB	086H
	DB	05H
	DB	05H
	DB	05H
	DB	05H
	DB	05H
	DB	057H
	DB	057H
	DB	04H
	DB	04H
	DB	04H
	DB	04H
	DB	04H
	DB	044H
	DB	044H
	DB	03H
	DB	03H
	DB	03H
	DB	03H
	DB	0c4H
	DB	0c4H
	DB	0c4H
	DB	0c4H
	DB	0c4H
	DB	0c4H
	DB	0c4H
	DB	0c4H
	DB	0c4H
	DB	0c4H
	DB	0c4H
	DB	0c4H
	DB	0c4H
	DB	0c4H
	DB	0c4H
	DB	0c4H
	DB	0c4H
	DB	0c4H
	DB	0c4H
	DB	0c4H
	DB	0c4H
	DB	0c4H
	DB	0c4H
	DB	0c4H
	DB	0c4H
	DB	0c4H
	DB	0c4H
	DB	0c4H
	DB	0c4H
	DB	0c4H
	DB	0c4H
	DB	0c4H
	DB	0c4H
	DB	0c4H
	DB	0c4H
	DB	0c4H
	DB	0c4H
	DB	0c4H
	DB	0c4H
	DB	0c4H
	DB	0c4H
	DB	0c4H
	DB	0c4H
	DB	0c4H
	DB	0c4H
	DB	0c4H
	DB	0c4H
	DB	0c4H
	DB	0c4H
	DB	0c4H
	DB	0c4H
	DB	0c4H
	DB	0c4H
	DB	0c4H
	DB	0c4H
	DB	0c4H
	DB	0c4H
	DB	0c4H
	DB	0c4H
	DB	0c4H
	DB	0c4H
	DB	0c4H
	DB	0c4H
	DB	0c4H
	DB	0c4H
	DB	0c4H
	DB	03H
	DB	03H
	DB	03H
	DB	03H
	DB	03H
	DB	03H
	DB	044H
	DB	044H
	DB	044H
	DB	04H
	DB	04H
	DB	04H
	DB	04H
	DB	04H
	DB	057H
	DB	057H
	DB	057H
	DB	05H
	DB	05H
	DB	05H
	DB	05H
	DB	05H
	DB	086H
	DB	086H
	DB	086H
	DB	0aH
	DB	0aH
	DB	0aH
	DB	0aH
	DB	0aH
	DB	086H
	DB	086H
	DB	05H
	DB	05H
	DB	05H
	DB	05H
	DB	057H
	DB	04H
	DB	04H
	DB	03H
	DB	03cH
	DB	042H
	DB	02aH
	DB	02aH
	DB	02aH
	DB	02aH
	DB	01aH
	DB	014H
	DB	014H
	DB	01aH
	DB	01aH
	DB	01aH
	DB	02aH
	DB	02aH
	DB	042H
	DB	053H
	DB	071H
	DB	071H
	DB	0c5H
	DB	03bH
	DB	03fH
	DB	03fH
	DB	03fH
	DB	032H
	DB	015H
	DB	015H
	DB	010H
	DB	010H
	DB	05bH
	DB	018H
	DB	018H
	DB	061H
	DB	03fH
	DB	039H
	DB	039H
	DB	0bdH
	DB	075H
	DB	01dH
	DB	018H
	DB	018H
	DB	018H
	DB	018H
	DB	061H
	DB	059H
	DB	018H
	DB	018H
	DB	0a7H
	DB	094H
	DB	01dH
	DB	089H
	DB	098H
	DB	03bH
	DB	03bH
	DB	054H
	DB	01fH
	DB	04aH
	DB	023H
	DB	016H
	DB	012H
	DB	012H
	DB	01bH
	DB	01bH
	DB	01bH
	DB	012H
	DB	012H
	DB	012H
	DB	012H
	DB	012H
	DB	012H
	DB	012H
	DB	012H
	DB	012H
	DB	07dH
	DB	08bH
	DB	031H
	DB	031H
	DB	031H
	DB	031H
	DB	0b1H
	DB	0cdH
	DB	0c0H
	DB	068H
	DB	021H
	DB	016H
	DB	012H
	DB	012H
	DB	012H
	DB	012H
	DB	012H
	DB	012H
	DB	016H
	DB	0dbH
	DB	025H
	DB	011H
	DB	02H
	DB	07H
	DB	07H
	DB	07H
	DB	07H
	DB	07H
	DB	07H
	DB	07H
	DB	07H
	DB	07H
	DB	07H
	DB	07H
	DB	07H
	DB	07H
	DB	07H
	DB	07H
	DB	07H
	DB	07H
	DB	07H
	DB	07H
	DB	07H
	DB	07H
	DB	07H
	DB	07H
	DB	07H
	DB	07H
	DB	07H
	DB	07H
	DB	07H
	DB	07H
	DB	07H
	DB	07H
	DB	07H
	DB	07H
	DB	07H
	DB	07H
	DB	07H
	DB	07H
	DB	01H
	DB	01H
	DB	01H
	DB	01H
	DB	03H
	DB	02cH
	DB	099H
	DB	07H
	DB	07H
	DB	07H
	DB	07H
	DB	07H
	DB	07H
	DB	07H
	DB	07H
	DB	07H
	DB	07H
	DB	02H
	DB	01cH
	DB	0e9H
	DB	0dH
	DB	0e9H
	DB	0e9H
	DB	0e9H
	DB	0e9H
	DB	0e9H
	DB	0e9H
	DB	0e9H
	DB	0e9H
	DB	0e9H
	DB	0e9H
	DB	0e9H
	DB	0e9H
	DB	0e9H
	DB	0e9H
	DB	0e9H
	DB	0e9H
	DB	0e9H
	DB	0e9H
	DB	0e9H
	DB	0aH
	DB	0aH
	DB	0aH
	DB	0aH
	DB	0aH
	DB	0aH
	DB	086H
	DB	086H
	DB	086H
	DB	05H
	DB	05H
	DB	05H
	DB	05H
	DB	05H
	DB	057H
	DB	057H
	DB	04H
	DB	04H
	DB	04H
	DB	04H
	DB	044H
	DB	044H
	DB	044H
	DB	03H
	DB	03H
	DB	03H
	DB	03H
	DB	03H
	DB	03H
	DB	03H
	DB	03H
	DB	03H
	DB	03H
	DB	03H
	DB	03H
	DB	03H
	DB	03H
	DB	03H
	DB	03H
	DB	03H
	DB	03H
	DB	03H
	DB	03H
	DB	03H
	DB	03H
	DB	03H
	DB	03H
	DB	03H
	DB	03H
	DB	03H
	DB	03H
	DB	03H
	DB	03H
	DB	03H
	DB	03H
	DB	03H
	DB	03H
	DB	03H
	DB	03H
	DB	03H
	DB	03H
	DB	03H
	DB	03H
	DB	03H
	DB	03H
	DB	03H
	DB	03H
	DB	03H
	DB	03H
	DB	03H
	DB	03H
	DB	03H
	DB	03H
	DB	03H
	DB	03H
	DB	03H
	DB	03H
	DB	03H
	DB	03H
	DB	03H
	DB	03H
	DB	03H
	DB	03H
	DB	03H
	DB	03H
	DB	03H
	DB	03H
	DB	03H
	DB	03H
	DB	03H
	DB	03H
	DB	03H
	DB	03H
	DB	03H
	DB	03H
	DB	03H
	DB	03H
	DB	03H
	DB	044H
	DB	044H
	DB	044H
	DB	04H
	DB	04H
	DB	04H
	DB	04H
	DB	04H
	DB	057H
	DB	057H
	DB	05H
	DB	05H
	DB	05H
	DB	05H
	DB	05H
	DB	086H
	DB	086H
	DB	086H
	DB	0aH
	DB	0aH
	DB	0aH
	DB	0aH
	DB	0aH
	DB	0aH
	DB	0aH
	DB	0aH
	DB	0aH
	DB	086H
	DB	086H
	DB	05H
	DB	05H
	DB	05H
	DB	057H
	DB	04H
	DB	053H
	DB	042H
	DB	042H
	DB	042H
	DB	0e6H
	DB	02aH
	DB	02aH
	DB	01aH
	DB	053H
	DB	053H
	DB	01aH
	DB	01aH
	DB	02aH
	DB	02aH
	DB	0e6H
	DB	042H
	DB	03H
	DB	0c4H
	DB	01H
	DB	0c5H
	DB	03bH
	DB	03fH
	DB	03fH
	DB	03bH
	DB	015H
	DB	015H
	DB	010H
	DB	010H
	DB	010H
	DB	08fH
	DB	018H
	DB	018H
	DB	061H
	DB	064H
	DB	039H
	DB	039H
	DB	079H
	DB	075H
	DB	018H
	DB	018H
	DB	018H
	DB	018H
	DB	018H
	DB	01dH
	DB	064H
	DB	074H
	DB	018H
	DB	039H
	DB	07eH
	DB	02bH
	DB	07dH
	DB	051H
	DB	03bH
	DB	08bH
	DB	025H
	DB	04eH
	DB	01fH
	DB	03eH
	DB	023H
	DB	076H
	DB	012H
	DB	01bH
	DB	01bH
	DB	01bH
	DB	01bH
	DB	012H
	DB	012H
	DB	012H
	DB	012H
	DB	012H
	DB	012H
	DB	012H
	DB	012H
	DB	016H
	DB	0c0H
	DB	0a5H
	DB	031H
	DB	024H
	DB	031H
	DB	037H
	DB	0b1H
	DB	0cdH
	DB	097H
	DB	058H
	DB	0a6H
	DB	016H
	DB	012H
	DB	01bH
	DB	01bH
	DB	012H
	DB	012H
	DB	012H
	DB	016H
	DB	097H
	DB	010H
	DB	011H
	DB	02H
	DB	07H
	DB	07H
	DB	07H
	DB	07H
	DB	07H
	DB	07H
	DB	07H
	DB	07H
	DB	07H
	DB	07H
	DB	07H
	DB	07H
	DB	07H
	DB	07H
	DB	07H
	DB	07H
	DB	07H
	DB	07H
	DB	07H
	DB	07H
	DB	07H
	DB	07H
	DB	07H
	DB	07H
	DB	07H
	DB	07H
	DB	07H
	DB	07H
	DB	07H
	DB	07H
	DB	07H
	DB	07H
	DB	07H
	DB	07H
	DB	07H
	DB	07H
	DB	01H
	DB	01H
	DB	01H
	DB	01H
	DB	03H
	DB	02cH
	DB	099H
	DB	07H
	DB	07H
	DB	07H
	DB	07H
	DB	07H
	DB	07H
	DB	07H
	DB	07H
	DB	07H
	DB	07H
	DB	02H
	DB	01cH
	DB	0e9H
	DB	0dH
	DB	0e9H
	DB	0e9H
	DB	0e9H
	DB	0e9H
	DB	0e9H
	DB	0e9H
	DB	0e9H
	DB	0e9H
	DB	0e9H
	DB	0e9H
	DB	0e9H
	DB	0e9H
	DB	0e9H
	DB	0e9H
	DB	0e9H
	DB	0e9H
	DB	0e9H
	DB	0e9H
	DB	0e9H
	DB	0aH
	DB	0aH
	DB	0aH
	DB	0aH
	DB	0aH
	DB	0aH
	DB	086H
	DB	086H
	DB	086H
	DB	05H
	DB	05H
	DB	05H
	DB	05H
	DB	05H
	DB	057H
	DB	057H
	DB	04H
	DB	04H
	DB	04H
	DB	04H
	DB	044H
	DB	044H
	DB	03H
	DB	03H
	DB	03H
	DB	03H
	DB	03H
	DB	03H
	DB	03H
	DB	03H
	DB	03H
	DB	03H
	DB	03H
	DB	03H
	DB	03H
	DB	03H
	DB	03H
	DB	03H
	DB	03H
	DB	03H
	DB	03H
	DB	03H
	DB	03H
	DB	03H
	DB	03H
	DB	03H
	DB	03H
	DB	03H
	DB	03H
	DB	03H
	DB	03H
	DB	03H
	DB	03H
	DB	03H
	DB	03H
	DB	03H
	DB	03H
	DB	03H
	DB	03H
	DB	03H
	DB	03H
	DB	03H
	DB	03H
	DB	03H
	DB	03H
	DB	03H
	DB	03H
	DB	03H
	DB	03H
	DB	03H
	DB	03H
	DB	03H
	DB	03H
	DB	03H
	DB	03H
	DB	03H
	DB	03H
	DB	03H
	DB	03H
	DB	03H
	DB	03H
	DB	03H
	DB	03H
	DB	03H
	DB	03H
	DB	03H
	DB	03H
	DB	03H
	DB	03H
	DB	03H
	DB	03H
	DB	03H
	DB	03H
	DB	03H
	DB	03H
	DB	03H
	DB	03H
	DB	044H
	DB	044H
	DB	044H
	DB	04H
	DB	04H
	DB	04H
	DB	04H
	DB	04H
	DB	057H
	DB	057H
	DB	05H
	DB	05H
	DB	05H
	DB	05H
	DB	05H
	DB	086H
	DB	086H
	DB	086H
	DB	0aH
	DB	0aH
	DB	0aH
	DB	0aH
	DB	0aH
	DB	0aH
	DB	0e9H
	DB	0aH
	DB	0aH
	DB	0aH
	DB	0aH
	DB	0aH
	DB	086H
	DB	086H
	DB	05H
	DB	05H
	DB	04H
	DB	0d2H
	DB	080H
	DB	07fH
	DB	042H
	DB	0e6H
	DB	02aH
	DB	01aH
	DB	01aH
	DB	053H
	DB	053H
	DB	01aH
	DB	02aH
	DB	02aH
	DB	02aH
	DB	042H
	DB	053H
	DB	0c4H
	DB	0c4H
	DB	0c4H
	DB	032H
	DB	03fH
	DB	03fH
	DB	03fH
	DB	025H
	DB	015H
	DB	015H
	DB	010H
	DB	010H
	DB	04bH
	DB	045H
	DB	018H
	DB	018H
	DB	045H
	DB	079H
	DB	039H
	DB	039H
	DB	059H
	DB	075H
	DB	018H
	DB	018H
	DB	018H
	DB	018H
	DB	018H
	DB	01dH
	DB	07cH
	DB	064H
	DB	074H
	DB	079H
	DB	0d5H
	DB	035H
	DB	028H
	DB	028H
	DB	0c9H
	DB	0a5H
	DB	0ccH
	DB	0b5H
	DB	0a0H
	DB	01fH
	DB	03eH
	DB	023H
	DB	016H
	DB	012H
	DB	01bH
	DB	01bH
	DB	01bH
	DB	012H
	DB	012H
	DB	012H
	DB	012H
	DB	012H
	DB	012H
	DB	012H
	DB	012H
	DB	012H
	DB	04eH
	DB	05bH
	DB	0b1H
	DB	0b1H
	DB	031H
	DB	037H
	DB	031H
	DB	0b1H
	DB	0ccH
	DB	03fH
	DB	058H
	DB	0a6H
	DB	028H
	DB	012H
	DB	01bH
	DB	01bH
	DB	01bH
	DB	012H
	DB	012H
	DB	090H
	DB	010H
	DB	011H
	DB	02H
	DB	07H
	DB	07H
	DB	07H
	DB	07H
	DB	07H
	DB	07H
	DB	07H
	DB	07H
	DB	07H
	DB	07H
	DB	07H
	DB	07H
	DB	07H
	DB	07H
	DB	07H
	DB	07H
	DB	07H
	DB	07H
	DB	07H
	DB	07H
	DB	07H
	DB	07H
	DB	07H
	DB	07H
	DB	07H
	DB	07H
	DB	07H
	DB	07H
	DB	07H
	DB	07H
	DB	07H
	DB	07H
	DB	07H
	DB	07H
	DB	07H
	DB	07H
	DB	01H
	DB	01H
	DB	01H
	DB	01H
	DB	03H
	DB	02cH
	DB	099H
	DB	07H
	DB	07H
	DB	07H
	DB	07H
	DB	07H
	DB	07H
	DB	07H
	DB	07H
	DB	07H
	DB	07H
	DB	02H
	DB	01cH
	DB	0e9H
	DB	0dH
	DB	0e9H
	DB	0e9H
	DB	0e9H
	DB	0e9H
	DB	0e9H
	DB	0e9H
	DB	0e9H
	DB	0e9H
	DB	0e9H
	DB	0e9H
	DB	0e9H
	DB	0e9H
	DB	0e9H
	DB	0e9H
	DB	0e9H
	DB	0e9H
	DB	0e9H
	DB	0e9H
	DB	0e9H
	DB	0aH
	DB	0aH
	DB	0aH
	DB	0aH
	DB	0aH
	DB	0aH
	DB	086H
	DB	086H
	DB	086H
	DB	05H
	DB	05H
	DB	05H
	DB	05H
	DB	05H
	DB	057H
	DB	057H
	DB	04H
	DB	04H
	DB	04H
	DB	04H
	DB	044H
	DB	044H
	DB	044H
	DB	03H
	DB	03H
	DB	03H
	DB	03H
	DB	03H
	DB	03H
	DB	03H
	DB	03H
	DB	03H
	DB	03H
	DB	03H
	DB	03H
	DB	03H
	DB	03H
	DB	03H
	DB	03H
	DB	03H
	DB	03H
	DB	03H
	DB	03H
	DB	03H
	DB	03H
	DB	03H
	DB	03H
	DB	03H
	DB	03H
	DB	03H
	DB	03H
	DB	03H
	DB	03H
	DB	03H
	DB	03H
	DB	03H
	DB	03H
	DB	03H
	DB	03H
	DB	03H
	DB	03H
	DB	03H
	DB	03H
	DB	03H
	DB	03H
	DB	03H
	DB	03H
	DB	03H
	DB	03H
	DB	03H
	DB	03H
	DB	03H
	DB	03H
	DB	03H
	DB	03H
	DB	03H
	DB	03H
	DB	03H
	DB	03H
	DB	03H
	DB	03H
	DB	03H
	DB	03H
	DB	03H
	DB	03H
	DB	03H
	DB	03H
	DB	03H
	DB	03H
	DB	03H
	DB	03H
	DB	03H
	DB	03H
	DB	03H
	DB	03H
	DB	03H
	DB	044H
	DB	044H
	DB	044H
	DB	04H
	DB	04H
	DB	04H
	DB	04H
	DB	057H
	DB	057H
	DB	057H
	DB	05H
	DB	05H
	DB	05H
	DB	05H
	DB	05H
	DB	086H
	DB	086H
	DB	086H
	DB	0aH
	DB	0aH
	DB	0aH
	DB	0aH
	DB	0e9H
	DB	0e9H
	DB	0e9H
	DB	0e9H
	DB	0e9H
	DB	0e9H
	DB	0e9H
	DB	0aH
	DB	0aH
	DB	0aH
	DB	0aH
	DB	086H
	DB	05H
	DB	057H
	DB	0d2H
	DB	080H
	DB	07fH
	DB	042H
	DB	042H
	DB	02aH
	DB	01aH
	DB	014H
	DB	014H
	DB	053H
	DB	01aH
	DB	042H
	DB	042H
	DB	042H
	DB	042H
	DB	03H
	DB	0c4H
	DB	03H
	DB	0c4H
	DB	03bH
	DB	03fH
	DB	03fH
	DB	03bH
	DB	015H
	DB	015H
	DB	010H
	DB	010H
	DB	010H
	DB	0b6H
	DB	018H
	DB	018H
	DB	018H
	DB	045H
	DB	064H
	DB	039H
	DB	039H
	DB	082H
	DB	095H
	DB	01dH
	DB	018H
	DB	018H
	DB	018H
	DB	01dH
	DB	01dH
	DB	01dH
	DB	050H
	DB	098H
	DB	07dH
	DB	016H
	DB	028H
	DB	023H
	DB	0a6H
	DB	04eH
	DB	08cH
	DB	0b1H
	DB	0ccH
	DB	085H
	DB	055H
	DB	01fH
	DB	03eH
	DB	06aH
	DB	016H
	DB	012H
	DB	01bH
	DB	01bH
	DB	01bH
	DB	012H
	DB	012H
	DB	012H
	DB	012H
	DB	012H
	DB	012H
	DB	012H
	DB	012H
	DB	070H
	DB	0ddH
	DB	0b1H
	DB	0b1H
	DB	0b1H
	DB	031H
	DB	031H
	DB	06fH
	DB	06fH
	DB	088H
	DB	03fH
	DB	055H
	DB	0a6H
	DB	016H
	DB	012H
	DB	01bH
	DB	01bH
	DB	012H
	DB	012H
	DB	03aH
	DB	085H
	DB	011H
	DB	02H
	DB	02H
	DB	07H
	DB	07H
	DB	07H
	DB	07H
	DB	07H
	DB	07H
	DB	07H
	DB	07H
	DB	07H
	DB	07H
	DB	07H
	DB	07H
	DB	07H
	DB	07H
	DB	07H
	DB	07H
	DB	07H
	DB	07H
	DB	07H
	DB	07H
	DB	07H
	DB	07H
	DB	07H
	DB	07H
	DB	07H
	DB	07H
	DB	07H
	DB	07H
	DB	07H
	DB	07H
	DB	07H
	DB	07H
	DB	07H
	DB	07H
	DB	07H
	DB	01H
	DB	01H
	DB	01H
	DB	01H
	DB	03H
	DB	02cH
	DB	099H
	DB	07H
	DB	07H
	DB	07H
	DB	07H
	DB	07H
	DB	07H
	DB	07H
	DB	07H
	DB	07H
	DB	07H
	DB	02H
	DB	01cH
	DB	0e9H
	DB	0dH
	DB	0a2H
	DB	0a2H
	DB	0a2H
	DB	0a2H
	DB	0a2H
	DB	0a2H
	DB	0e9H
	DB	0e9H
	DB	0e9H
	DB	0e9H
	DB	0e9H
	DB	0e9H
	DB	0e9H
	DB	0e9H
	DB	0e9H
	DB	0e9H
	DB	0e9H
	DB	0e9H
	DB	0e9H
	DB	0e9H
	DB	0aH
	DB	0aH
	DB	0aH
	DB	0aH
	DB	0aH
	DB	086H
	DB	086H
	DB	086H
	DB	05H
	DB	05H
	DB	05H
	DB	05H
	DB	057H
	DB	04H
	DB	04H
	DB	04H
	DB	044H
	DB	044H
	DB	044H
	DB	03H
	DB	03H
	DB	03H
	DB	03H
	DB	03H
	DB	03H
	DB	03H
	DB	03H
	DB	03H
	DB	03H
	DB	03H
	DB	03H
	DB	03H
	DB	03H
	DB	03H
	DB	03H
	DB	03H
	DB	03H
	DB	03H
	DB	03H
	DB	03H
	DB	03H
	DB	03H
	DB	03H
	DB	03H
	DB	03H
	DB	03H
	DB	03H
	DB	03H
	DB	03H
	DB	03H
	DB	03H
	DB	03H
	DB	03H
	DB	03H
	DB	03H
	DB	03H
	DB	03H
	DB	03H
	DB	03H
	DB	03H
	DB	03H
	DB	03H
	DB	03H
	DB	03H
	DB	03H
	DB	03H
	DB	03H
	DB	03H
	DB	03H
	DB	03H
	DB	03H
	DB	03H
	DB	03H
	DB	03H
	DB	03H
	DB	03H
	DB	03H
	DB	03H
	DB	03H
	DB	03H
	DB	03H
	DB	03H
	DB	03H
	DB	03H
	DB	03H
	DB	03H
	DB	03H
	DB	03H
	DB	03H
	DB	03H
	DB	03H
	DB	03H
	DB	03H
	DB	03H
	DB	044H
	DB	044H
	DB	04H
	DB	04H
	DB	04H
	DB	04H
	DB	04H
	DB	057H
	DB	057H
	DB	057H
	DB	05H
	DB	05H
	DB	05H
	DB	05H
	DB	086H
	DB	086H
	DB	086H
	DB	0aH
	DB	0aH
	DB	0aH
	DB	0aH
	DB	0e9H
	DB	0e9H
	DB	0e9H
	DB	0e9H
	DB	0e9H
	DB	0e9H
	DB	0e9H
	DB	0e9H
	DB	0e9H
	DB	0e9H
	DB	0e9H
	DB	0e9H
	DB	0aH
	DB	0aH
	DB	086H
	DB	05H
	DB	0d2H
	DB	087H
	DB	07fH
	DB	07fH
	DB	042H
	DB	042H
	DB	01aH
	DB	014H
	DB	053H
	DB	053H
	DB	053H
	DB	053H
	DB	053H
	DB	03cH
	DB	03cH
	DB	03H
	DB	03H
	DB	03H
	DB	03H
	DB	03bH
	DB	03fH
	DB	03fH
	DB	025H
	DB	015H
	DB	015H
	DB	010H
	DB	010H
	DB	010H
	DB	08dH
	DB	018H
	DB	018H
	DB	018H
	DB	045H
	DB	072H
	DB	039H
	DB	039H
	DB	082H
	DB	094H
	DB	01dH
	DB	01dH
	DB	01dH
	DB	01dH
	DB	01dH
	DB	08fH
	DB	059H
	DB	070H
	DB	012H
	DB	012H
	DB	016H
	DB	028H
	DB	0a6H
	DB	0a6H
	DB	03dH
	DB	0ccH
	DB	0b1H
	DB	0b1H
	DB	01eH
	DB	03bH
	DB	055H
	DB	023H
	DB	05fH
	DB	06aH
	DB	076H
	DB	012H
	DB	01bH
	DB	01bH
	DB	012H
	DB	012H
	DB	012H
	DB	012H
	DB	012H
	DB	012H
	DB	012H
	DB	012H
	DB	047H
	DB	0deH
	DB	09dH
	DB	037H
	DB	037H
	DB	037H
	DB	037H
	DB	037H
	DB	06fH
	DB	06fH
	DB	088H
	DB	085H
	DB	055H
	DB	0a6H
	DB	016H
	DB	01bH
	DB	01bH
	DB	012H
	DB	012H
	DB	016H
	DB	060H
	DB	010H
	DB	011H
	DB	02H
	DB	07H
	DB	07H
	DB	07H
	DB	07H
	DB	07H
	DB	07H
	DB	07H
	DB	07H
	DB	07H
	DB	07H
	DB	07H
	DB	07H
	DB	07H
	DB	07H
	DB	07H
	DB	07H
	DB	07H
	DB	07H
	DB	07H
	DB	07H
	DB	07H
	DB	07H
	DB	07H
	DB	07H
	DB	07H
	DB	07H
	DB	07H
	DB	07H
	DB	07H
	DB	07H
	DB	07H
	DB	07H
	DB	07H
	DB	07H
	DB	07H
	DB	01H
	DB	01H
	DB	01H
	DB	01H
	DB	03H
	DB	02cH
	DB	099H
	DB	07H
	DB	07H
	DB	07H
	DB	07H
	DB	07H
	DB	07H
	DB	07H
	DB	07H
	DB	07H
	DB	07H
	DB	02H
	DB	01cH
	DB	0a2H
	DB	0dH
	DB	0a2H
	DB	0a2H
	DB	0dH
	DB	0dH
	DB	0dH
	DB	0a2H
	DB	0a2H
	DB	0a2H
	DB	0a2H
	DB	0a2H
	DB	0a2H
	DB	0a2H
	DB	0a2H
	DB	0a2H
	DB	0e9H
	DB	0e9H
	DB	0e9H
	DB	0e9H
	DB	0e9H
	DB	0e9H
	DB	0aH
	DB	0aH
	DB	0aH
	DB	0aH
	DB	0aH
	DB	086H
	DB	086H
	DB	086H
	DB	05H
	DB	05H
	DB	05H
	DB	04H
	DB	01H
	DB	01H
	DB	01H
	DB	01H
	DB	01H
	DB	01H
	DB	01H
	DB	01H
	DB	01H
	DB	01H
	DB	01H
	DB	01H
	DB	01H
	DB	01H
	DB	01H
	DB	02eH
	DB	03H
	DB	03H
	DB	03H
	DB	03H
	DB	03H
	DB	03H
	DB	03H
	DB	03H
	DB	03H
	DB	03H
	DB	03H
	DB	03H
	DB	03H
	DB	03H
	DB	03H
	DB	03H
	DB	03H
	DB	03H
	DB	03H
	DB	03H
	DB	03H
	DB	03H
	DB	03H
	DB	03H
	DB	03H
	DB	03H
	DB	03H
	DB	03H
	DB	03H
	DB	03H
	DB	03H
	DB	03H
	DB	03H
	DB	03H
	DB	03H
	DB	03H
	DB	03H
	DB	03H
	DB	03H
	DB	03H
	DB	03H
	DB	03H
	DB	03H
	DB	03H
	DB	03H
	DB	03H
	DB	03H
	DB	03H
	DB	03H
	DB	03H
	DB	03H
	DB	03H
	DB	03H
	DB	03H
	DB	03H
	DB	03H
	DB	03H
	DB	03H
	DB	03H
	DB	03H
	DB	03H
	DB	03H
	DB	03H
	DB	03H
	DB	044H
	DB	044H
	DB	044H
	DB	04H
	DB	04H
	DB	04H
	DB	04H
	DB	04H
	DB	057H
	DB	057H
	DB	05H
	DB	05H
	DB	05H
	DB	05H
	DB	05H
	DB	086H
	DB	086H
	DB	086H
	DB	0aH
	DB	0aH
	DB	0aH
	DB	0aH
	DB	0e9H
	DB	0e9H
	DB	0e9H
	DB	0e9H
	DB	0e9H
	DB	0e9H
	DB	0e9H
	DB	0e9H
	DB	0e9H
	DB	0e9H
	DB	0e9H
	DB	0e9H
	DB	0e9H
	DB	0e9H
	DB	0aH
	DB	0aH
	DB	086H
	DB	053H
	DB	03cH
	DB	080H
	DB	080H
	DB	07fH
	DB	07fH
	DB	03cH
	DB	03H
	DB	071H
	DB	0c4H
	DB	0c4H
	DB	0c4H
	DB	0c4H
	DB	0c4H
	DB	03H
	DB	03H
	DB	03H
	DB	03H
	DB	032H
	DB	02bH
	DB	03fH
	DB	02bH
	DB	032H
	DB	015H
	DB	010H
	DB	010H
	DB	011H
	DB	010H
	DB	08aH
	DB	018H
	DB	018H
	DB	018H
	DB	061H
	DB	072H
	DB	018H
	DB	018H
	DB	018H
	DB	064H
	DB	01dH
	DB	01dH
	DB	01dH
	DB	045H
	DB	0bdH
	DB	090H
	DB	016H
	DB	012H
	DB	012H
	DB	012H
	DB	012H
	DB	028H
	DB	023H
	DB	0a6H
	DB	023H
	DB	0ccH
	DB	0b1H
	DB	0b1H
	DB	09dH
	DB	05bH
	DB	03bH
	DB	052H
	DB	023H
	DB	05fH
	DB	06aH
	DB	016H
	DB	012H
	DB	01bH
	DB	01bH
	DB	012H
	DB	012H
	DB	012H
	DB	012H
	DB	012H
	DB	012H
	DB	012H
	DB	028H
	DB	0caH
	DB	0a5H
	DB	037H
	DB	037H
	DB	037H
	DB	037H
	DB	037H
	DB	037H
	DB	06fH
	DB	06fH
	DB	029H
	DB	0deH
	DB	04cH
	DB	0a6H
	DB	016H
	DB	012H
	DB	012H
	DB	016H
	DB	016H
	DB	051H
	DB	025H
	DB	011H
	DB	02H
	DB	02H
	DB	07H
	DB	07H
	DB	07H
	DB	07H
	DB	07H
	DB	07H
	DB	07H
	DB	07H
	DB	07H
	DB	07H
	DB	07H
	DB	07H
	DB	07H
	DB	07H
	DB	07H
	DB	07H
	DB	07H
	DB	07H
	DB	07H
	DB	07H
	DB	07H
	DB	07H
	DB	07H
	DB	07H
	DB	07H
	DB	07H
	DB	07H
	DB	07H
	DB	07H
	DB	07H
	DB	07H
	DB	07H
	DB	07H
	DB	07H
	DB	01H
	DB	01H
	DB	01H
	DB	01H
	DB	03H
	DB	02cH
	DB	099H
	DB	07H
	DB	07H
	DB	07H
	DB	07H
	DB	07H
	DB	07H
	DB	07H
	DB	07H
	DB	07H
	DB	07H
	DB	02H
	DB	01cH
	DB	0a2H
	DB	0dH
	DB	0dH
	DB	0dH
	DB	0dH
	DB	0dH
	DB	0dH
	DB	0dH
	DB	0dH
	DB	0dH
	DB	0dH
	DB	0dH
	DB	0dH
	DB	0dH
	DB	0dH
	DB	0a2H
	DB	0a2H
	DB	0e9H
	DB	0e9H
	DB	0e9H
	DB	0e9H
	DB	0e9H
	DB	0aH
	DB	0aH
	DB	0aH
	DB	0aH
	DB	0aH
	DB	086H
	DB	086H
	DB	086H
	DB	05H
	DB	05H
	DB	05H
	DB	02eH
	DB	02dH
	DB	09H
	DB	026H
	DB	026H
	DB	026H
	DB	026H
	DB	026H
	DB	026H
	DB	026H
	DB	026H
	DB	026H
	DB	026H
	DB	02fH
	DB	033H
	DB	030H
	DB	036H
	DB	01H
	DB	0c4H
	DB	03H
	DB	03H
	DB	03H
	DB	03H
	DB	03H
	DB	03H
	DB	03H
	DB	03H
	DB	03H
	DB	03H
	DB	03H
	DB	03H
	DB	03H
	DB	03H
	DB	03H
	DB	03H
	DB	03H
	DB	03H
	DB	03H
	DB	03H
	DB	03H
	DB	03H
	DB	03H
	DB	03H
	DB	03H
	DB	03H
	DB	03H
	DB	03H
	DB	03H
	DB	03H
	DB	03H
	DB	03H
	DB	03H
	DB	03H
	DB	03H
	DB	03H
	DB	03H
	DB	03H
	DB	03H
	DB	03H
	DB	03H
	DB	03H
	DB	03H
	DB	03H
	DB	03H
	DB	03H
	DB	03H
	DB	03H
	DB	03H
	DB	03H
	DB	03H
	DB	03H
	DB	03H
	DB	03H
	DB	03H
	DB	03H
	DB	03H
	DB	03H
	DB	03H
	DB	03H
	DB	03H
	DB	03H
	DB	044H
	DB	044H
	DB	04H
	DB	04H
	DB	04H
	DB	04H
	DB	04H
	DB	057H
	DB	057H
	DB	05H
	DB	05H
	DB	05H
	DB	05H
	DB	05H
	DB	086H
	DB	086H
	DB	086H
	DB	0aH
	DB	0aH
	DB	0aH
	DB	0e9H
	DB	0e9H
	DB	0e9H
	DB	0e9H
	DB	0a2H
	DB	0a2H
	DB	0a2H
	DB	0a2H
	DB	0a2H
	DB	0a2H
	DB	0a2H
	DB	0a2H
	DB	0a2H
	DB	0a2H
	DB	0a2H
	DB	0e9H
	DB	0e9H
	DB	0aH
	DB	0aH
	DB	05H
	DB	053H
	DB	042H
	DB	080H
	DB	080H
	DB	080H
	DB	053H
	DB	0c4H
	DB	0c4H
	DB	0c4H
	DB	0c4H
	DB	0c4H
	DB	0c4H
	DB	0c4H
	DB	03H
	DB	03H
	DB	03H
	DB	044H
	DB	048H
	DB	02bH
	DB	02bH
	DB	03bH
	DB	015H
	DB	010H
	DB	010H
	DB	010H
	DB	011H
	DB	010H
	DB	096H
	DB	018H
	DB	018H
	DB	018H
	DB	018H
	DB	040H
	DB	018H
	DB	018H
	DB	018H
	DB	089H
	DB	075H
	DB	01dH
	DB	08aH
	DB	041H
	DB	051H
	DB	012H
	DB	012H
	DB	012H
	DB	01bH
	DB	01bH
	DB	012H
	DB	028H
	DB	0a6H
	DB	023H
	DB	023H
	DB	0cdH
	DB	024H
	DB	031H
	DB	0b1H
	DB	088H
	DB	01eH
	DB	03bH
	DB	052H
	DB	021H
	DB	05fH
	DB	06aH
	DB	076H
	DB	012H
	DB	01bH
	DB	01bH
	DB	01bH
	DB	012H
	DB	012H
	DB	012H
	DB	01bH
	DB	012H
	DB	016H
	DB	04eH
	DB	08cH
	DB	031H
	DB	031H
	DB	037H
	DB	037H
	DB	037H
	DB	037H
	DB	06fH
	DB	06fH
	DB	06fH
	DB	019H
	DB	0ddH
	DB	07aH
	DB	069H
	DB	028H
	DB	016H
	DB	012H
	DB	016H
	DB	012H
	DB	0f0H
	DB	010H
	DB	011H
	DB	02H
	DB	07H
	DB	07H
	DB	07H
	DB	07H
	DB	07H
	DB	07H
	DB	07H
	DB	07H
	DB	07H
	DB	07H
	DB	07H
	DB	07H
	DB	07H
	DB	07H
	DB	07H
	DB	07H
	DB	07H
	DB	07H
	DB	07H
	DB	07H
	DB	07H
	DB	07H
	DB	07H
	DB	07H
	DB	07H
	DB	07H
	DB	07H
	DB	07H
	DB	07H
	DB	07H
	DB	07H
	DB	07H
	DB	07H
	DB	07H
	DB	01H
	DB	01H
	DB	01H
	DB	01H
	DB	03H
	DB	02cH
	DB	099H
	DB	07H
	DB	07H
	DB	07H
	DB	07H
	DB	07H
	DB	07H
	DB	07H
	DB	07H
	DB	07H
	DB	07H
	DB	02H
	DB	01cH
	DB	0e9H
	DB	0dH
	DB	0dH
	DB	0dH
	DB	0dH
	DB	0dH
	DB	0dH
	DB	0dH
	DB	0dH
	DB	0dH
	DB	0dH
	DB	0dH
	DB	0dH
	DB	0dH
	DB	0dH
	DB	0dH
	DB	0dH
	DB	0a2H
	DB	0e9H
	DB	0e9H
	DB	0e9H
	DB	0e9H
	DB	0aH
	DB	0aH
	DB	0aH
	DB	0aH
	DB	0aH
	DB	086H
	DB	086H
	DB	086H
	DB	05H
	DB	05H
	DB	05H
	DB	02eH
	DB	02dH
	DB	09H
	DB	09H
	DB	09H
	DB	09H
	DB	09H
	DB	09H
	DB	09H
	DB	09H
	DB	09H
	DB	09H
	DB	09H
	DB	09H
	DB	09H
	DB	09H
	DB	09H
	DB	033H
	DB	036H
	DB	01H
	DB	03H
	DB	03H
	DB	03H
	DB	03H
	DB	03H
	DB	03H
	DB	03H
	DB	03H
	DB	03H
	DB	03H
	DB	03H
	DB	03H
	DB	03H
	DB	03H
	DB	03H
	DB	03H
	DB	03H
	DB	03H
	DB	03H
	DB	03H
	DB	03H
	DB	03H
	DB	03H
	DB	03H
	DB	03H
	DB	03H
	DB	03H
	DB	03H
	DB	03H
	DB	03H
	DB	03H
	DB	03H
	DB	03H
	DB	03H
	DB	03H
	DB	03H
	DB	03H
	DB	03H
	DB	03H
	DB	03H
	DB	03H
	DB	03H
	DB	03H
	DB	03H
	DB	03H
	DB	03H
	DB	03H
	DB	03H
	DB	03H
	DB	03H
	DB	03H
	DB	03H
	DB	03H
	DB	03H
	DB	03H
	DB	03H
	DB	03H
	DB	03H
	DB	03H
	DB	03H
	DB	044H
	DB	044H
	DB	04H
	DB	04H
	DB	04H
	DB	04H
	DB	057H
	DB	057H
	DB	057H
	DB	05H
	DB	05H
	DB	05H
	DB	05H
	DB	086H
	DB	086H
	DB	086H
	DB	0aH
	DB	0aH
	DB	0aH
	DB	0aH
	DB	0e9H
	DB	0e9H
	DB	0e9H
	DB	0dH
	DB	0dH
	DB	0dH
	DB	0dH
	DB	0dH
	DB	0dH
	DB	0dH
	DB	0dH
	DB	0dH
	DB	0dH
	DB	0dH
	DB	0dH
	DB	0dH
	DB	0dH
	DB	0a2H
	DB	0e9H
	DB	0aH
	DB	086H
	DB	05H
	DB	04H
	DB	0d2H
	DB	087H
	DB	087H
	DB	03H
	DB	0c4H
	DB	03H
	DB	03H
	DB	03H
	DB	03H
	DB	03H
	DB	03H
	DB	03H
	DB	05H
	DB	0c7H
	DB	053H
	DB	048H
	DB	02bH
	DB	02bH
	DB	025H
	DB	010H
	DB	010H
	DB	010H
	DB	010H
	DB	011H
	DB	011H
	DB	096H
	DB	018H
	DB	018H
	DB	018H
	DB	018H
	DB	040H
	DB	061H
	DB	018H
	DB	018H
	DB	07cH
	DB	040H
	DB	08dH
	DB	0b7H
	DB	012H
	DB	016H
	DB	016H
	DB	012H
	DB	01bH
	DB	01bH
	DB	012H
	DB	012H
	DB	016H
	DB	021H
	DB	023H
	DB	021H
	DB	0f6H
	DB	024H
	DB	0b1H
	DB	0b1H
	DB	0b1H
	DB	0b1H
	DB	05bH
	DB	03bH
	DB	063H
	DB	021H
	DB	01fH
	DB	01fH
	DB	076H
	DB	012H
	DB	01bH
	DB	01bH
	DB	012H
	DB	012H
	DB	012H
	DB	01bH
	DB	012H
	DB	016H
	DB	0b3H
	DB	04dH
	DB	0b1H
	DB	037H
	DB	037H
	DB	06fH
	DB	06fH
	DB	06fH
	DB	06fH
	DB	06fH
	DB	06fH
	DB	06fH
	DB	019H
	DB	0cdH
	DB	03fH
	DB	0a0H
	DB	028H
	DB	016H
	DB	016H
	DB	012H
	DB	07dH
	DB	025H
	DB	011H
	DB	02H
	DB	02H
	DB	07H
	DB	07H
	DB	07H
	DB	07H
	DB	07H
	DB	07H
	DB	07H
	DB	07H
	DB	07H
	DB	07H
	DB	07H
	DB	07H
	DB	07H
	DB	07H
	DB	07H
	DB	07H
	DB	07H
	DB	07H
	DB	07H
	DB	07H
	DB	07H
	DB	07H
	DB	07H
	DB	07H
	DB	07H
	DB	07H
	DB	07H
	DB	07H
	DB	07H
	DB	07H
	DB	07H
	DB	07H
	DB	07H
	DB	01H
	DB	01H
	DB	01H
	DB	01H
	DB	03H
	DB	02cH
	DB	099H
	DB	07H
	DB	07H
	DB	07H
	DB	07H
	DB	07H
	DB	07H
	DB	07H
	DB	07H
	DB	07H
	DB	07H
	DB	02H
	DB	01cH
	DB	0e9H
	DB	0dH
	DB	0dH
	DB	0dH
	DB	0dH
	DB	0dH
	DB	0dH
	DB	0dH
	DB	0dH
	DB	0dH
	DB	0dH
	DB	0dH
	DB	0dH
	DB	0dH
	DB	0dH
	DB	0dH
	DB	0dH
	DB	0a2H
	DB	0e9H
	DB	0e9H
	DB	0e9H
	DB	0e9H
	DB	0aH
	DB	0aH
	DB	0aH
	DB	0aH
	DB	086H
	DB	086H
	DB	086H
	DB	086H
	DB	05H
	DB	05H
	DB	05H
	DB	02eH
	DB	02dH
	DB	09H
	DB	09H
	DB	09H
	DB	09H
	DB	09H
	DB	09H
	DB	09H
	DB	09H
	DB	09H
	DB	09H
	DB	09H
	DB	09H
	DB	09H
	DB	09H
	DB	09H
	DB	09H
	DB	026H
	DB	036H
	DB	01H
	DB	03H
	DB	03H
	DB	03H
	DB	03H
	DB	03H
	DB	03H
	DB	03H
	DB	03H
	DB	03H
	DB	03H
	DB	03H
	DB	03H
	DB	03H
	DB	03H
	DB	03H
	DB	03H
	DB	03H
	DB	03H
	DB	03H
	DB	03H
	DB	03H
	DB	03H
	DB	03H
	DB	03H
	DB	03H
	DB	03H
	DB	03H
	DB	03H
	DB	03H
	DB	03H
	DB	03H
	DB	03H
	DB	03H
	DB	03H
	DB	03H
	DB	03H
	DB	03H
	DB	03H
	DB	03H
	DB	03H
	DB	03H
	DB	03H
	DB	03H
	DB	03H
	DB	03H
	DB	03H
	DB	03H
	DB	03H
	DB	03H
	DB	03H
	DB	03H
	DB	03H
	DB	03H
	DB	03H
	DB	03H
	DB	03H
	DB	03H
	DB	03H
	DB	044H
	DB	044H
	DB	04H
	DB	04H
	DB	04H
	DB	04H
	DB	057H
	DB	057H
	DB	057H
	DB	05H
	DB	05H
	DB	05H
	DB	05H
	DB	086H
	DB	086H
	DB	086H
	DB	0aH
	DB	0aH
	DB	0aH
	DB	0e9H
	DB	0e9H
	DB	0e9H
	DB	0a2H
	DB	0dH
	DB	0dH
	DB	0dH
	DB	0dH
	DB	0dH
	DB	0dH
	DB	0dH
	DB	0dH
	DB	0dH
	DB	0dH
	DB	0dH
	DB	0dH
	DB	0dH
	DB	0dH
	DB	0dH
	DB	0dH
	DB	0a2H
	DB	0e9H
	DB	0aH
	DB	05H
	DB	05H
	DB	053H
	DB	053H
	DB	053H
	DB	03H
	DB	03H
	DB	03H
	DB	03H
	DB	044H
	DB	044H
	DB	044H
	DB	03H
	DB	048H
	DB	035H
	DB	090H
	DB	032H
	DB	048H
	DB	048H
	DB	048H
	DB	010H
	DB	010H
	DB	010H
	DB	010H
	DB	011H
	DB	011H
	DB	011H
	DB	096H
	DB	018H
	DB	018H
	DB	018H
	DB	018H
	DB	089H
	DB	0a7H
	DB	018H
	DB	018H
	DB	018H
	DB	048H
	DB	0d5H
	DB	012H
	DB	012H
	DB	012H
	DB	012H
	DB	012H
	DB	01bH
	DB	01bH
	DB	012H
	DB	012H
	DB	016H
	DB	021H
	DB	023H
	DB	021H
	DB	083H
	DB	024H
	DB	09dH
	DB	09dH
	DB	09dH
	DB	031H
	DB	09dH
	DB	01eH
	DB	03bH
	DB	060H
	DB	021H
	DB	01fH
	DB	01fH
	DB	076H
	DB	012H
	DB	012H
	DB	012H
	DB	012H
	DB	012H
	DB	012H
	DB	012H
	DB	028H
	DB	021H
	DB	03fH
	DB	09dH
	DB	037H
	DB	06fH
	DB	06fH
	DB	06fH
	DB	06fH
	DB	06fH
	DB	06fH
	DB	06fH
	DB	06fH
	DB	06fH
	DB	06fH
	DB	029H
	DB	085H
	DB	055H
	DB	028H
	DB	016H
	DB	016H
	DB	016H
	DB	073H
	DB	010H
	DB	011H
	DB	02H
	DB	07H
	DB	07H
	DB	07H
	DB	07H
	DB	07H
	DB	07H
	DB	07H
	DB	07H
	DB	07H
	DB	07H
	DB	07H
	DB	07H
	DB	07H
	DB	07H
	DB	07H
	DB	07H
	DB	07H
	DB	07H
	DB	07H
	DB	07H
	DB	07H
	DB	07H
	DB	07H
	DB	07H
	DB	07H
	DB	07H
	DB	07H
	DB	07H
	DB	07H
	DB	07H
	DB	07H
	DB	07H
	DB	07H
	DB	01H
	DB	01H
	DB	01H
	DB	01H
	DB	03H
	DB	02cH
	DB	099H
	DB	07H
	DB	07H
	DB	07H
	DB	07H
	DB	07H
	DB	07H
	DB	07H
	DB	07H
	DB	07H
	DB	07H
	DB	02H
	DB	01cH
	DB	0aH
	DB	0dH
	DB	0dH
	DB	0dH
	DB	0dH
	DB	0dH
	DB	0dH
	DB	0dH
	DB	0dH
	DB	0dH
	DB	0dH
	DB	0dH
	DB	0dH
	DB	0dH
	DB	0dH
	DB	0dH
	DB	0dH
	DB	0a2H
	DB	0e9H
	DB	0e9H
	DB	0e9H
	DB	0e9H
	DB	0aH
	DB	0aH
	DB	0aH
	DB	0aH
	DB	086H
	DB	086H
	DB	086H
	DB	05H
	DB	05H
	DB	05H
	DB	05H
	DB	02eH
	DB	02dH
	DB	09H
	DB	09H
	DB	09H
	DB	09H
	DB	09H
	DB	09H
	DB	09H
	DB	09H
	DB	09H
	DB	09H
	DB	09H
	DB	09H
	DB	09H
	DB	09H
	DB	09H
	DB	09H
	DB	09H
	DB	026H
	DB	036H
	DB	02eH
	DB	03H
	DB	03H
	DB	03H
	DB	03H
	DB	03H
	DB	03H
	DB	03H
	DB	03H
	DB	03H
	DB	03H
	DB	03H
	DB	03H
	DB	03H
	DB	03H
	DB	03H
	DB	03H
	DB	03H
	DB	03H
	DB	03H
	DB	03H
	DB	03H
	DB	03H
	DB	03H
	DB	03H
	DB	03H
	DB	03H
	DB	03H
	DB	03H
	DB	03H
	DB	03H
	DB	03H
	DB	03H
	DB	03H
	DB	03H
	DB	03H
	DB	03H
	DB	03H
	DB	03H
	DB	03H
	DB	03H
	DB	03H
	DB	03H
	DB	03H
	DB	03H
	DB	03H
	DB	03H
	DB	03H
	DB	03H
	DB	03H
	DB	03H
	DB	03H
	DB	03H
	DB	03H
	DB	03H
	DB	03H
	DB	03H
	DB	044H
	DB	044H
	DB	04H
	DB	04H
	DB	04H
	DB	04H
	DB	057H
	DB	057H
	DB	057H
	DB	05H
	DB	05H
	DB	05H
	DB	086H
	DB	086H
	DB	086H
	DB	0aH
	DB	0aH
	DB	0aH
	DB	0aH
	DB	0e9H
	DB	0e9H
	DB	0e9H
	DB	0dH
	DB	0dH
	DB	0dH
	DB	0dH
	DB	0dH
	DB	0dH
	DB	0dH
	DB	0dH
	DB	0dH
	DB	0dH
	DB	0dH
	DB	0dH
	DB	0dH
	DB	0dH
	DB	0dH
	DB	0dH
	DB	0dH
	DB	0dH
	DB	0dH
	DB	0e9H
	DB	0aH
	DB	086H
	DB	05H
	DB	057H
	DB	04H
	DB	044H
	DB	044H
	DB	044H
	DB	044H
	DB	04H
	DB	04H
	DB	04H
	DB	04H
	DB	048H
	DB	0a0H
	DB	0a6H
	DB	055H
	DB	032H
	DB	032H
	DB	048H
	DB	032H
	DB	010H
	DB	010H
	DB	010H
	DB	010H
	DB	011H
	DB	011H
	DB	011H
	DB	08aH
	DB	018H
	DB	018H
	DB	018H
	DB	018H
	DB	07cH
	DB	089H
	DB	018H
	DB	018H
	DB	061H
	DB	02bH
	DB	03aH
	DB	012H
	DB	012H
	DB	012H
	DB	01bH
	DB	01bH
	DB	01bH
	DB	012H
	DB	012H
	DB	012H
	DB	012H
	DB	028H
	DB	023H
	DB	021H
	DB	083H
	DB	024H
	DB	09dH
	DB	024H
	DB	024H
	DB	024H
	DB	031H
	DB	09dH
	DB	08bH
	DB	03bH
	DB	060H
	DB	021H
	DB	01fH
	DB	06aH
	DB	016H
	DB	012H
	DB	012H
	DB	012H
	DB	012H
	DB	012H
	DB	012H
	DB	028H
	DB	021H
	DB	0caH
	DB	08cH
	DB	037H
	DB	06fH
	DB	06fH
	DB	06fH
	DB	037H
	DB	06fH
	DB	06fH
	DB	06fH
	DB	06fH
	DB	06fH
	DB	037H
	DB	06fH
	DB	088H
	DB	085H
	DB	04eH
	DB	028H
	DB	016H
	DB	016H
	DB	060H
	DB	010H
	DB	011H
	DB	02H
	DB	02H
	DB	07H
	DB	07H
	DB	07H
	DB	07H
	DB	07H
	DB	07H
	DB	07H
	DB	07H
	DB	07H
	DB	07H
	DB	07H
	DB	07H
	DB	07H
	DB	07H
	DB	07H
	DB	07H
	DB	07H
	DB	07H
	DB	07H
	DB	07H
	DB	07H
	DB	07H
	DB	07H
	DB	07H
	DB	07H
	DB	07H
	DB	07H
	DB	07H
	DB	07H
	DB	07H
	DB	07H
	DB	07H
	DB	01H
	DB	01H
	DB	01H
	DB	01H
	DB	03H
	DB	02cH
	DB	099H
	DB	07H
	DB	07H
	DB	07H
	DB	07H
	DB	07H
	DB	07H
	DB	07H
	DB	07H
	DB	07H
	DB	07H
	DB	02H
	DB	01cH
	DB	0aH
	DB	0dH
	DB	0e9H
	DB	0dH
	DB	0dH
	DB	0dH
	DB	0dH
	DB	0dH
	DB	0dH
	DB	0dH
	DB	0dH
	DB	0dH
	DB	0dH
	DB	0dH
	DB	0dH
	DB	0dH
	DB	0dH
	DB	0a2H
	DB	0e9H
	DB	0e9H
	DB	0e9H
	DB	0e9H
	DB	0aH
	DB	0aH
	DB	0aH
	DB	0aH
	DB	086H
	DB	086H
	DB	086H
	DB	05H
	DB	05H
	DB	05H
	DB	05H
	DB	02eH
	DB	02dH
	DB	09H
	DB	09H
	DB	09H
	DB	09H
	DB	09H
	DB	09H
	DB	030H
	DB	020H
	DB	020H
	DB	030H
	DB	02fH
	DB	09H
	DB	09H
	DB	09H
	DB	09H
	DB	09H
	DB	09H
	DB	09H
	DB	02dH
	DB	01H
	DB	03H
	DB	03H
	DB	03H
	DB	03H
	DB	03H
	DB	03H
	DB	03H
	DB	03H
	DB	03H
	DB	03H
	DB	03H
	DB	03H
	DB	03H
	DB	03H
	DB	03H
	DB	03H
	DB	03H
	DB	03H
	DB	03H
	DB	03H
	DB	03H
	DB	03H
	DB	03H
	DB	03H
	DB	03H
	DB	03H
	DB	03H
	DB	03H
	DB	03H
	DB	03H
	DB	03H
	DB	03H
	DB	03H
	DB	03H
	DB	03H
	DB	03H
	DB	03H
	DB	03H
	DB	03H
	DB	03H
	DB	03H
	DB	03H
	DB	03H
	DB	03H
	DB	03H
	DB	03H
	DB	03H
	DB	03H
	DB	03H
	DB	03H
	DB	03H
	DB	03H
	DB	03H
	DB	03H
	DB	03H
	DB	044H
	DB	044H
	DB	04H
	DB	04H
	DB	04H
	DB	04H
	DB	057H
	DB	057H
	DB	05H
	DB	05H
	DB	05H
	DB	05H
	DB	086H
	DB	086H
	DB	0aH
	DB	0aH
	DB	0aH
	DB	0aH
	DB	0e9H
	DB	0e9H
	DB	0e9H
	DB	0dH
	DB	0dH
	DB	0dH
	DB	0dH
	DB	0dH
	DB	0dH
	DB	0dH
	DB	0dH
	DB	0dH
	DB	0dH
	DB	0dH
	DB	0dH
	DB	0dH
	DB	0dH
	DB	0dH
	DB	0dH
	DB	0dH
	DB	0dH
	DB	0dH
	DB	0dH
	DB	0dH
	DB	0dH
	DB	0e9H
	DB	0aH
	DB	086H
	DB	05H
	DB	04H
	DB	04H
	DB	04H
	DB	04H
	DB	04H
	DB	04H
	DB	057H
	DB	053H
	DB	048H
	DB	052H
	DB	0a6H
	DB	023H
	DB	03dH
	DB	03bH
	DB	032H
	DB	073H
	DB	073H
	DB	015H
	DB	010H
	DB	010H
	DB	011H
	DB	011H
	DB	02H
	DB	011H
	DB	05bH
	DB	018H
	DB	018H
	DB	018H
	DB	018H
	DB	018H
	DB	050H
	DB	061H
	DB	039H
	DB	0d8H
	DB	060H
	DB	012H
	DB	012H
	DB	012H
	DB	012H
	DB	01bH
	DB	01bH
	DB	01bH
	DB	012H
	DB	012H
	DB	012H
	DB	012H
	DB	028H
	DB	023H
	DB	023H
	DB	083H
	DB	024H
	DB	024H
	DB	024H
	DB	024H
	DB	024H
	DB	024H
	DB	024H
	DB	024H
	DB	05bH
	DB	025H
	DB	04cH
	DB	023H
	DB	01fH
	DB	06aH
	DB	012H
	DB	012H
	DB	012H
	DB	012H
	DB	012H
	DB	012H
	DB	028H
	DB	0a6H
	DB	04eH
	DB	06eH
	DB	031H
	DB	037H
	DB	037H
	DB	06fH
	DB	037H
	DB	037H
	DB	037H
	DB	037H
	DB	037H
	DB	037H
	DB	037H
	DB	031H
	DB	0b1H
	DB	0ccH
	DB	097H
	DB	021H
	DB	016H
	DB	016H
	DB	03aH
	DB	03bH
	DB	011H
	DB	011H
	DB	02H
	DB	07H
	DB	07H
	DB	07H
	DB	07H
	DB	07H
	DB	07H
	DB	07H
	DB	07H
	DB	07H
	DB	07H
	DB	07H
	DB	07H
	DB	07H
	DB	07H
	DB	07H
	DB	07H
	DB	07H
	DB	07H
	DB	07H
	DB	07H
	DB	07H
	DB	07H
	DB	07H
	DB	07H
	DB	07H
	DB	07H
	DB	07H
	DB	07H
	DB	07H
	DB	07H
	DB	07H
	DB	07H
	DB	01H
	DB	01H
	DB	01H
	DB	01H
	DB	03H
	DB	02cH
	DB	099H
	DB	07H
	DB	07H
	DB	07H
	DB	07H
	DB	07H
	DB	07H
	DB	07H
	DB	07H
	DB	07H
	DB	07H
	DB	02H
	DB	01cH
	DB	0aH
	DB	0dH
	DB	0e9H
	DB	0e9H
	DB	0dH
	DB	0dH
	DB	0dH
	DB	0dH
	DB	0dH
	DB	0dH
	DB	0dH
	DB	0dH
	DB	0dH
	DB	0dH
	DB	0dH
	DB	0dH
	DB	0dH
	DB	0a2H
	DB	0e9H
	DB	0e9H
	DB	0e9H
	DB	0e9H
	DB	0aH
	DB	0aH
	DB	0aH
	DB	0aH
	DB	086H
	DB	086H
	DB	086H
	DB	05H
	DB	05H
	DB	05H
	DB	05H
	DB	02eH
	DB	02dH
	DB	09H
	DB	09H
	DB	09H
	DB	09H
	DB	09H
	DB	09H
	DB	020H
	DB	01H
	DB	01H
	DB	01H
	DB	01H
	DB	02dH
	DB	09H
	DB	09H
	DB	09H
	DB	09H
	DB	09H
	DB	09H
	DB	026H
	DB	01H
	DB	03H
	DB	03H
	DB	03H
	DB	03H
	DB	03H
	DB	03H
	DB	03H
	DB	03H
	DB	03H
	DB	03H
	DB	03H
	DB	03H
	DB	03H
	DB	03H
	DB	02eH
	DB	02eH
	DB	03H
	DB	03H
	DB	03H
	DB	03H
	DB	03H
	DB	03H
	DB	03H
	DB	03H
	DB	03H
	DB	03H
	DB	03H
	DB	02eH
	DB	02eH
	DB	02eH
	DB	02eH
	DB	02eH
	DB	02eH
	DB	03H
	DB	03H
	DB	03H
	DB	03H
	DB	03H
	DB	03H
	DB	03H
	DB	03H
	DB	03H
	DB	03H
	DB	03H
	DB	03H
	DB	03H
	DB	03H
	DB	03H
	DB	03H
	DB	03H
	DB	03H
	DB	03H
	DB	03H
	DB	03H
	DB	044H
	DB	044H
	DB	04H
	DB	04H
	DB	04H
	DB	04H
	DB	057H
	DB	057H
	DB	05H
	DB	05H
	DB	05H
	DB	086H
	DB	086H
	DB	086H
	DB	086H
	DB	05H
	DB	086H
	DB	086H
	DB	0e9H
	DB	0e9H
	DB	0dH
	DB	0dH
	DB	0dH
	DB	0dH
	DB	0dH
	DB	02cH
	DB	02cH
	DB	02cH
	DB	02cH
	DB	02cH
	DB	02cH
	DB	02cH
	DB	02cH
	DB	02cH
	DB	02cH
	DB	02cH
	DB	02cH
	DB	02cH
	DB	02cH
	DB	02cH
	DB	02cH
	DB	0dH
	DB	0dH
	DB	0dH
	DB	0a2H
	DB	0e9H
	DB	0aH
	DB	086H
	DB	05H
	DB	057H
	DB	057H
	DB	057H
	DB	05H
	DB	05H
	DB	05H
	DB	073H
	DB	03dH
	DB	0a6H
	DB	021H
	DB	023H
	DB	021H
	DB	0aH
	DB	054H
	DB	023H
	DB	023H
	DB	04eH
	DB	025H
	DB	010H
	DB	011H
	DB	011H
	DB	02H
	DB	011H
	DB	0bfH
	DB	018H
	DB	018H
	DB	018H
	DB	018H
	DB	018H
	DB	0ceH
	DB	0b0H
	DB	039H
	DB	097H
	DB	051H
	DB	012H
	DB	012H
	DB	012H
	DB	012H
	DB	012H
	DB	012H
	DB	012H
	DB	012H
	DB	012H
	DB	012H
	DB	012H
	DB	028H
	DB	023H
	DB	023H
	DB	083H
	DB	024H
	DB	024H
	DB	031H
	DB	031H
	DB	031H
	DB	031H
	DB	031H
	DB	031H
	DB	031H
	DB	0ccH
	DB	025H
	DB	041H
	DB	021H
	DB	01fH
	DB	076H
	DB	012H
	DB	012H
	DB	012H
	DB	012H
	DB	016H
	DB	021H
	DB	023H
	DB	055H
	DB	04dH
	DB	024H
	DB	031H
	DB	037H
	DB	037H
	DB	037H
	DB	031H
	DB	031H
	DB	037H
	DB	031H
	DB	031H
	DB	031H
	DB	031H
	DB	031H
	DB	0a5H
	DB	0b5H
	DB	035H
	DB	016H
	DB	016H
	DB	012H
	DB	041H
	DB	010H
	DB	011H
	DB	02H
	DB	07H
	DB	07H
	DB	07H
	DB	07H
	DB	07H
	DB	07H
	DB	07H
	DB	07H
	DB	07H
	DB	07H
	DB	07H
	DB	07H
	DB	07H
	DB	07H
	DB	07H
	DB	07H
	DB	07H
	DB	07H
	DB	07H
	DB	07H
	DB	07H
	DB	07H
	DB	07H
	DB	07H
	DB	07H
	DB	07H
	DB	07H
	DB	07H
	DB	07H
	DB	07H
	DB	07H
	DB	07H
	DB	01H
	DB	01H
	DB	01H
	DB	01H
	DB	03H
	DB	02cH
	DB	099H
	DB	07H
	DB	07H
	DB	07H
	DB	07H
	DB	07H
	DB	07H
	DB	07H
	DB	07H
	DB	07H
	DB	07H
	DB	02H
	DB	01cH
	DB	0aH
	DB	0a2H
	DB	0e9H
	DB	0e9H
	DB	0e9H
	DB	0dH
	DB	0dH
	DB	0dH
	DB	0dH
	DB	0dH
	DB	0dH
	DB	0dH
	DB	0dH
	DB	0dH
	DB	0dH
	DB	0dH
	DB	0dH
	DB	0a2H
	DB	0e9H
	DB	0e9H
	DB	0e9H
	DB	0e9H
	DB	0aH
	DB	0aH
	DB	0aH
	DB	0aH
	DB	086H
	DB	086H
	DB	086H
	DB	05H
	DB	05H
	DB	05H
	DB	05H
	DB	02eH
	DB	02dH
	DB	09H
	DB	09H
	DB	09H
	DB	09H
	DB	09H
	DB	09H
	DB	020H
	DB	01H
	DB	0c4H
	DB	0c4H
	DB	01H
	DB	01H
	DB	026H
	DB	09H
	DB	09H
	DB	09H
	DB	09H
	DB	09H
	DB	09H
	DB	020H
	DB	02eH
	DB	03H
	DB	03H
	DB	01H
	DB	01H
	DB	01H
	DB	01H
	DB	01H
	DB	01H
	DB	01H
	DB	03H
	DB	03H
	DB	01H
	DB	01H
	DB	036H
	DB	020H
	DB	01H
	DB	03H
	DB	03H
	DB	03H
	DB	03H
	DB	03H
	DB	03H
	DB	03H
	DB	02eH
	DB	01H
	DB	01H
	DB	036H
	DB	020H
	DB	020H
	DB	020H
	DB	020H
	DB	036H
	DB	01H
	DB	01H
	DB	02eH
	DB	03H
	DB	03H
	DB	03H
	DB	03H
	DB	03H
	DB	03H
	DB	03H
	DB	03H
	DB	03H
	DB	03H
	DB	02eH
	DB	02eH
	DB	01H
	DB	01H
	DB	01H
	DB	01H
	DB	01H
	DB	01H
	DB	01H
	DB	02eH
	DB	03H
	DB	044H
	DB	057H
	DB	057H
	DB	057H
	DB	05H
	DB	05H
	DB	05H
	DB	05H
	DB	04H
	DB	03H
	DB	02eH
	DB	01H
	DB	01H
	DB	01H
	DB	01H
	DB	01H
	DB	02eH
	DB	044H
	DB	086H
	DB	0dH
	DB	02cH
	DB	02cH
	DB	02cH
	DB	02cH
	DB	02cH
	DB	02cH
	DB	02cH
	DB	02cH
	DB	02cH
	DB	02cH
	DB	02cH
	DB	02cH
	DB	02cH
	DB	02cH
	DB	02cH
	DB	02cH
	DB	02cH
	DB	02cH
	DB	02cH
	DB	02cH
	DB	0dH
	DB	0dH
	DB	0a2H
	DB	0e9H
	DB	0aH
	DB	086H
	DB	05H
	DB	05H
	DB	05H
	DB	086H
	DB	086H
	DB	05H
	DB	04eH
	DB	023H
	DB	023H
	DB	028H
	DB	021H
	DB	041H
	DB	04eH
	DB	023H
	DB	023H
	DB	0baH
	DB	023H
	DB	054H
	DB	010H
	DB	011H
	DB	011H
	DB	02H
	DB	02H
	DB	0bfH
	DB	018H
	DB	018H
	DB	018H
	DB	018H
	DB	018H
	DB	045H
	DB	03fH
	DB	082H
	DB	098H
	DB	016H
	DB	016H
	DB	012H
	DB	012H
	DB	012H
	DB	012H
	DB	012H
	DB	012H
	DB	012H
	DB	012H
	DB	012H
	DB	012H
	DB	028H
	DB	023H
	DB	01fH
	DB	0f6H
	DB	09dH
	DB	0b1H
	DB	031H
	DB	031H
	DB	031H
	DB	031H
	DB	031H
	DB	031H
	DB	031H
	DB	031H
	DB	0ccH
	DB	025H
	DB	04eH
	DB	023H
	DB	06aH
	DB	012H
	DB	012H
	DB	012H
	DB	012H
	DB	012H
	DB	021H
	DB	023H
	DB	052H
	DB	025H
	DB	0a5H
	DB	031H
	DB	031H
	DB	031H
	DB	031H
	DB	031H
	DB	031H
	DB	031H
	DB	031H
	DB	024H
	DB	031H
	DB	031H
	DB	031H
	DB	09dH
	DB	0b5H
	DB	035H
	DB	012H
	DB	016H
	DB	012H
	DB	0fdH
	DB	010H
	DB	011H
	DB	02H
	DB	02H
	DB	07H
	DB	07H
	DB	07H
	DB	07H
	DB	07H
	DB	07H
	DB	07H
	DB	07H
	DB	07H
	DB	07H
	DB	07H
	DB	07H
	DB	07H
	DB	07H
	DB	07H
	DB	07H
	DB	07H
	DB	07H
	DB	07H
	DB	07H
	DB	07H
	DB	07H
	DB	07H
	DB	07H
	DB	07H
	DB	07H
	DB	07H
	DB	07H
	DB	07H
	DB	07H
	DB	07H
	DB	01H
	DB	01H
	DB	01H
	DB	01H
	DB	03H
	DB	02cH
	DB	099H
	DB	07H
	DB	07H
	DB	07H
	DB	07H
	DB	07H
	DB	07H
	DB	07H
	DB	07H
	DB	07H
	DB	07H
	DB	02H
	DB	01cH
	DB	0aH
	DB	0e9H
	DB	0e9H
	DB	0e9H
	DB	0e9H
	DB	0e9H
	DB	0dH
	DB	0dH
	DB	0dH
	DB	0dH
	DB	0dH
	DB	0dH
	DB	0dH
	DB	0dH
	DB	0dH
	DB	0dH
	DB	0dH
	DB	0a2H
	DB	0e9H
	DB	0e9H
	DB	0e9H
	DB	0e9H
	DB	0aH
	DB	0aH
	DB	0aH
	DB	0aH
	DB	086H
	DB	086H
	DB	086H
	DB	05H
	DB	05H
	DB	05H
	DB	057H
	DB	02eH
	DB	02dH
	DB	09H
	DB	09H
	DB	09H
	DB	09H
	DB	09H
	DB	09H
	DB	020H
	DB	01H
	DB	0c4H
	DB	03H
	DB	0c4H
	DB	01H
	DB	02dH
	DB	09H
	DB	09H
	DB	09H
	DB	09H
	DB	09H
	DB	09H
	DB	030H
	DB	01H
	DB	03H
	DB	01H
	DB	02dH
	DB	033H
	DB	033H
	DB	033H
	DB	033H
	DB	033H
	DB	030H
	DB	01H
	DB	01H
	DB	020H
	DB	02fH
	DB	026H
	DB	09H
	DB	030H
	DB	02eH
	DB	03H
	DB	03H
	DB	03H
	DB	03H
	DB	03H
	DB	01H
	DB	036H
	DB	02dH
	DB	026H
	DB	026H
	DB	09H
	DB	09H
	DB	09H
	DB	09H
	DB	026H
	DB	02fH
	DB	02dH
	DB	036H
	DB	01H
	DB	03H
	DB	03H
	DB	03H
	DB	03H
	DB	03H
	DB	03H
	DB	03H
	DB	03H
	DB	01H
	DB	01H
	DB	030H
	DB	033H
	DB	02fH
	DB	026H
	DB	026H
	DB	026H
	DB	026H
	DB	02fH
	DB	02dH
	DB	020H
	DB	01H
	DB	03H
	DB	05H
	DB	05H
	DB	05H
	DB	05H
	DB	04H
	DB	01H
	DB	036H
	DB	02dH
	DB	02fH
	DB	026H
	DB	026H
	DB	026H
	DB	026H
	DB	02fH
	DB	033H
	DB	030H
	DB	036H
	DB	0c4H
	DB	0e9H
	DB	0bH
	DB	02cH
	DB	02cH
	DB	02cH
	DB	02cH
	DB	02cH
	DB	02cH
	DB	02cH
	DB	02cH
	DB	02cH
	DB	02cH
	DB	02cH
	DB	02cH
	DB	02cH
	DB	02cH
	DB	02cH
	DB	02cH
	DB	02cH
	DB	02cH
	DB	02cH
	DB	0dH
	DB	0dH
	DB	0dH
	DB	0e9H
	DB	0aH
	DB	0aH
	DB	0aH
	DB	0aH
	DB	0aH
	DB	0aH
	DB	0aH
	DB	03dH
	DB	023H
	DB	076H
	DB	076H
	DB	0d5H
	DB	060H
	DB	0a6H
	DB	023H
	DB	04cH
	DB	0a0H
	DB	028H
	DB	04cH
	DB	010H
	DB	011H
	DB	011H
	DB	02H
	DB	02H
	DB	011H
	DB	045H
	DB	018H
	DB	018H
	DB	018H
	DB	018H
	DB	01dH
	DB	095H
	DB	040H
	DB	090H
	DB	016H
	DB	016H
	DB	012H
	DB	012H
	DB	012H
	DB	012H
	DB	012H
	DB	012H
	DB	012H
	DB	012H
	DB	012H
	DB	012H
	DB	028H
	DB	01fH
	DB	01fH
	DB	05eH
	DB	031H
	DB	031H
	DB	037H
	DB	037H
	DB	037H
	DB	037H
	DB	031H
	DB	031H
	DB	031H
	DB	037H
	DB	037H
	DB	0a5H
	DB	025H
	DB	055H
	DB	01fH
	DB	076H
	DB	09aH
	DB	03aH
	DB	012H
	DB	012H
	DB	021H
	DB	01fH
	DB	069H
	DB	02bH
	DB	08cH
	DB	024H
	DB	024H
	DB	024H
	DB	024H
	DB	024H
	DB	024H
	DB	024H
	DB	024H
	DB	024H
	DB	031H
	DB	024H
	DB	024H
	DB	0a5H
	DB	085H
	DB	047H
	DB	012H
	DB	012H
	DB	012H
	DB	03aH
	DB	03bH
	DB	010H
	DB	011H
	DB	02H
	DB	07H
	DB	07H
	DB	07H
	DB	07H
	DB	07H
	DB	07H
	DB	07H
	DB	07H
	DB	07H
	DB	07H
	DB	07H
	DB	07H
	DB	07H
	DB	07H
	DB	07H
	DB	07H
	DB	07H
	DB	07H
	DB	07H
	DB	07H
	DB	07H
	DB	07H
	DB	07H
	DB	07H
	DB	07H
	DB	07H
	DB	07H
	DB	07H
	DB	07H
	DB	07H
	DB	07H
	DB	01H
	DB	01H
	DB	01H
	DB	01H
	DB	03H
	DB	02cH
	DB	099H
	DB	07H
	DB	07H
	DB	07H
	DB	07H
	DB	07H
	DB	07H
	DB	07H
	DB	07H
	DB	07H
	DB	07H
	DB	02H
	DB	01cH
	DB	086H
	DB	0e9H
	DB	0aH
	DB	0e9H
	DB	0e9H
	DB	0e9H
	DB	0e9H
	DB	0dH
	DB	0dH
	DB	0dH
	DB	0dH
	DB	0dH
	DB	0dH
	DB	0dH
	DB	0dH
	DB	0dH
	DB	0dH
	DB	0a2H
	DB	0e9H
	DB	0e9H
	DB	0e9H
	DB	0aH
	DB	0aH
	DB	0aH
	DB	0aH
	DB	086H
	DB	086H
	DB	086H
	DB	05H
	DB	05H
	DB	05H
	DB	05H
	DB	057H
	DB	02eH
	DB	02dH
	DB	09H
	DB	09H
	DB	09H
	DB	09H
	DB	09H
	DB	09H
	DB	020H
	DB	01H
	DB	03H
	DB	03H
	DB	03H
	DB	01H
	DB	030H
	DB	09H
	DB	09H
	DB	09H
	DB	09H
	DB	09H
	DB	09H
	DB	02dH
	DB	01H
	DB	03H
	DB	01H
	DB	02fH
	DB	09H
	DB	09H
	DB	09H
	DB	09H
	DB	09H
	DB	033H
	DB	01H
	DB	02dH
	DB	09H
	DB	09H
	DB	09H
	DB	09H
	DB	030H
	DB	01H
	DB	03H
	DB	03H
	DB	03H
	DB	02eH
	DB	01H
	DB	030H
	DB	026H
	DB	09H
	DB	09H
	DB	09H
	DB	09H
	DB	09H
	DB	09H
	DB	09H
	DB	09H
	DB	09H
	DB	09H
	DB	026H
	DB	030H
	DB	01H
	DB	03H
	DB	03H
	DB	03H
	DB	03H
	DB	03H
	DB	03H
	DB	01H
	DB	020H
	DB	026H
	DB	09H
	DB	09H
	DB	09H
	DB	09H
	DB	09H
	DB	09H
	DB	09H
	DB	09H
	DB	09H
	DB	09H
	DB	033H
	DB	01H
	DB	057H
	DB	05H
	DB	086H
	DB	04H
	DB	01H
	DB	02dH
	DB	09H
	DB	09H
	DB	09H
	DB	09H
	DB	09H
	DB	09H
	DB	09H
	DB	09H
	DB	09H
	DB	09H
	DB	09H
	DB	030H
	DB	057H
	DB	0bH
	DB	0bH
	DB	0bH
	DB	0bH
	DB	0bH
	DB	0bH
	DB	0bH
	DB	0aeH
	DB	0aeH
	DB	0aeH
	DB	0aeH
	DB	0aeH
	DB	02cH
	DB	02cH
	DB	02cH
	DB	02cH
	DB	02cH
	DB	02cH
	DB	02cH
	DB	02cH
	DB	02cH
	DB	02cH
	DB	0dH
	DB	0dH
	DB	0a2H
	DB	0e9H
	DB	0e9H
	DB	0e9H
	DB	0e9H
	DB	0aH
	DB	04eH
	DB	023H
	DB	021H
	DB	076H
	DB	04eH
	DB	0b7H
	DB	016H
	DB	0a0H
	DB	02bH
	DB	048H
	DB	069H
	DB	021H
	DB	04cH
	DB	010H
	DB	011H
	DB	011H
	DB	02H
	DB	02H
	DB	011H
	DB	08fH
	DB	018H
	DB	018H
	DB	018H
	DB	018H
	DB	01dH
	DB	01dH
	DB	094H
	DB	0dbH
	DB	028H
	DB	016H
	DB	012H
	DB	012H
	DB	012H
	DB	012H
	DB	012H
	DB	012H
	DB	012H
	DB	012H
	DB	012H
	DB	012H
	DB	028H
	DB	03eH
	DB	03dH
	DB	088H
	DB	037H
	DB	031H
	DB	037H
	DB	037H
	DB	037H
	DB	037H
	DB	037H
	DB	031H
	DB	037H
	DB	037H
	DB	037H
	DB	0b1H
	DB	05bH
	DB	03bH
	DB	063H
	DB	021H
	DB	012H
	DB	09aH
	DB	012H
	DB	016H
	DB	021H
	DB	01fH
	DB	021H
	DB	0c9H
	DB	04fH
	DB	09cH
	DB	08H
	DB	08H
	DB	024H
	DB	024H
	DB	024H
	DB	024H
	DB	024H
	DB	024H
	DB	024H
	DB	024H
	DB	024H
	DB	08cH
	DB	0c0H
	DB	028H
	DB	016H
	DB	012H
	DB	012H
	DB	012H
	DB	0f0H
	DB	010H
	DB	011H
	DB	02H
	DB	02H
	DB	07H
	DB	07H
	DB	07H
	DB	07H
	DB	07H
	DB	07H
	DB	07H
	DB	07H
	DB	07H
	DB	07H
	DB	07H
	DB	07H
	DB	07H
	DB	07H
	DB	07H
	DB	07H
	DB	07H
	DB	07H
	DB	07H
	DB	07H
	DB	07H
	DB	07H
	DB	07H
	DB	07H
	DB	07H
	DB	07H
	DB	07H
	DB	07H
	DB	07H
	DB	07H
	DB	01H
	DB	01H
	DB	01H
	DB	01H
	DB	03H
	DB	02cH
	DB	099H
	DB	07H
	DB	07H
	DB	07H
	DB	07H
	DB	07H
	DB	07H
	DB	07H
	DB	07H
	DB	07H
	DB	07H
	DB	02H
	DB	01cH
	DB	086H
	DB	0e9H
	DB	0aH
	DB	0aH
	DB	0e9H
	DB	0e9H
	DB	0e9H
	DB	0e9H
	DB	0a2H
	DB	0dH
	DB	0dH
	DB	0dH
	DB	0dH
	DB	0dH
	DB	0dH
	DB	0dH
	DB	0dH
	DB	0a2H
	DB	0e9H
	DB	0e9H
	DB	0e9H
	DB	0aH
	DB	0aH
	DB	0aH
	DB	0aH
	DB	086H
	DB	086H
	DB	086H
	DB	05H
	DB	05H
	DB	05H
	DB	05H
	DB	057H
	DB	02eH
	DB	02dH
	DB	09H
	DB	09H
	DB	09H
	DB	09H
	DB	09H
	DB	09H
	DB	020H
	DB	01H
	DB	03H
	DB	03H
	DB	044H
	DB	01H
	DB	030H
	DB	09H
	DB	09H
	DB	09H
	DB	09H
	DB	09H
	DB	09H
	DB	02dH
	DB	01H
	DB	03H
	DB	01H
	DB	02fH
	DB	09H
	DB	09H
	DB	09H
	DB	09H
	DB	09H
	DB	033H
	DB	020H
	DB	09H
	DB	09H
	DB	09H
	DB	09H
	DB	09H
	DB	030H
	DB	01H
	DB	03H
	DB	03H
	DB	03H
	DB	01H
	DB	033H
	DB	09H
	DB	09H
	DB	09H
	DB	09H
	DB	09H
	DB	09H
	DB	09H
	DB	09H
	DB	09H
	DB	09H
	DB	09H
	DB	09H
	DB	09H
	DB	09H
	DB	030H
	DB	01H
	DB	03H
	DB	03H
	DB	03H
	DB	03H
	DB	01H
	DB	030H
	DB	09H
	DB	09H
	DB	09H
	DB	09H
	DB	09H
	DB	09H
	DB	09H
	DB	09H
	DB	09H
	DB	09H
	DB	09H
	DB	09H
	DB	02fH
	DB	01H
	DB	057H
	DB	086H
	DB	057H
	DB	01H
	DB	02fH
	DB	09H
	DB	09H
	DB	09H
	DB	09H
	DB	09H
	DB	09H
	DB	09H
	DB	09H
	DB	09H
	DB	09H
	DB	09H
	DB	09H
	DB	030H
	DB	057H
	DB	0bH
	DB	0bH
	DB	0bH
	DB	0bH
	DB	0bH
	DB	0bH
	DB	0bH
	DB	0bH
	DB	0bH
	DB	0bH
	DB	0bH
	DB	0bH
	DB	0bH
	DB	0aeH
	DB	0aeH
	DB	0aeH
	DB	0aeH
	DB	02cH
	DB	02cH
	DB	02cH
	DB	02cH
	DB	02cH
	DB	02cH
	DB	02cH
	DB	0dH
	DB	0dH
	DB	0dH
	DB	0dH
	DB	0dH
	DB	0aH
	DB	055H
	DB	05fH
	DB	01fH
	DB	021H
	DB	0c9H
	DB	02bH
	DB	02bH
	DB	02bH
	DB	041H
	DB	04cH
	DB	023H
	DB	069H
	DB	054H
	DB	010H
	DB	010H
	DB	011H
	DB	02H
	DB	02H
	DB	011H
	DB	08aH
	DB	018H
	DB	018H
	DB	018H
	DB	018H
	DB	01dH
	DB	01dH
	DB	089H
	DB	047H
	DB	028H
	DB	016H
	DB	012H
	DB	012H
	DB	012H
	DB	012H
	DB	012H
	DB	012H
	DB	012H
	DB	012H
	DB	012H
	DB	016H
	DB	023H
	DB	03eH
	DB	0a0H
	DB	09dH
	DB	037H
	DB	037H
	DB	037H
	DB	031H
	DB	037H
	DB	037H
	DB	037H
	DB	037H
	DB	037H
	DB	037H
	DB	06fH
	DB	0b1H
	DB	0b1H
	DB	01eH
	DB	097H
	DB	03dH
	DB	076H
	DB	016H
	DB	09aH
	DB	09aH
	DB	021H
	DB	01fH
	DB	023H
	DB	054H
	DB	04dH
	DB	06cH
	DB	09cH
	DB	08H
	DB	024H
	DB	024H
	DB	08H
	DB	024H
	DB	024H
	DB	08H
	DB	024H
	DB	024H
	DB	024H
	DB	04fH
	DB	04cH
	DB	028H
	DB	016H
	DB	012H
	DB	012H
	DB	012H
	DB	07dH
	DB	010H
	DB	011H
	DB	011H
	DB	02H
	DB	07H
	DB	07H
	DB	07H
	DB	07H
	DB	07H
	DB	07H
	DB	07H
	DB	07H
	DB	07H
	DB	07H
	DB	07H
	DB	07H
	DB	07H
	DB	07H
	DB	07H
	DB	07H
	DB	07H
	DB	07H
	DB	07H
	DB	07H
	DB	07H
	DB	07H
	DB	07H
	DB	07H
	DB	07H
	DB	07H
	DB	07H
	DB	07H
	DB	07H
	DB	07H
	DB	01H
	DB	01H
	DB	01H
	DB	01H
	DB	03H
	DB	02cH
	DB	099H
	DB	07H
	DB	07H
	DB	07H
	DB	07H
	DB	07H
	DB	07H
	DB	07H
	DB	07H
	DB	07H
	DB	07H
	DB	02H
	DB	01cH
	DB	086H
	DB	0e9H
	DB	0aH
	DB	0aH
	DB	0aH
	DB	0aH
	DB	0e9H
	DB	0e9H
	DB	0e9H
	DB	0a2H
	DB	0dH
	DB	0dH
	DB	0dH
	DB	0dH
	DB	0dH
	DB	0dH
	DB	0dH
	DB	0a2H
	DB	0e9H
	DB	0e9H
	DB	0e9H
	DB	0aH
	DB	0aH
	DB	0aH
	DB	0aH
	DB	086H
	DB	086H
	DB	086H
	DB	05H
	DB	05H
	DB	05H
	DB	057H
	DB	057H
	DB	02eH
	DB	02dH
	DB	09H
	DB	09H
	DB	09H
	DB	09H
	DB	09H
	DB	09H
	DB	020H
	DB	01H
	DB	03H
	DB	044H
	DB	044H
	DB	01H
	DB	02dH
	DB	09H
	DB	09H
	DB	09H
	DB	09H
	DB	09H
	DB	09H
	DB	030H
	DB	01H
	DB	03H
	DB	01H
	DB	02fH
	DB	09H
	DB	09H
	DB	09H
	DB	09H
	DB	09H
	DB	033H
	DB	02fH
	DB	09H
	DB	09H
	DB	09H
	DB	09H
	DB	09H
	DB	030H
	DB	01H
	DB	03H
	DB	03H
	DB	01H
	DB	02dH
	DB	09H
	DB	09H
	DB	09H
	DB	09H
	DB	09H
	DB	09H
	DB	02fH
	DB	02dH
	DB	02dH
	DB	02fH
	DB	09H
	DB	09H
	DB	09H
	DB	09H
	DB	09H
	DB	09H
	DB	020H
	DB	01H
	DB	03H
	DB	044H
	DB	02eH
	DB	036H
	DB	09H
	DB	09H
	DB	09H
	DB	09H
	DB	09H
	DB	09H
	DB	026H
	DB	02fH
	DB	02fH
	DB	026H
	DB	026H
	DB	09H
	DB	09H
	DB	033H
	DB	02eH
	DB	05H
	DB	05H
	DB	02eH
	DB	02dH
	DB	09H
	DB	09H
	DB	09H
	DB	09H
	DB	09H
	DB	026H
	DB	026H
	DB	02fH
	DB	02fH
	DB	026H
	DB	026H
	DB	09H
	DB	09H
	DB	036H
	DB	086H
	DB	0bH
	DB	0bH
	DB	0bH
	DB	0bH
	DB	0bH
	DB	0bH
	DB	0bH
	DB	0bH
	DB	0bH
	DB	0bH
	DB	0bH
	DB	0bH
	DB	0bH
	DB	0bH
	DB	0bH
	DB	0bH
	DB	0bH
	DB	0bH
	DB	0bH
	DB	0bH
	DB	0aeH
	DB	02cH
	DB	02cH
	DB	02cH
	DB	02cH
	DB	02cH
	DB	02cH
	DB	02cH
	DB	02cH
	DB	0e9H
	DB	02bH
	DB	058H
	DB	05fH
	DB	01fH
	DB	023H
	DB	068H
	DB	0fcH
	DB	068H
	DB	052H
	DB	04cH
	DB	023H
	DB	03dH
	DB	03bH
	DB	010H
	DB	010H
	DB	011H
	DB	011H
	DB	02H
	DB	011H
	DB	06dH
	DB	018H
	DB	018H
	DB	018H
	DB	01dH
	DB	01dH
	DB	01dH
	DB	0afH
	DB	028H
	DB	028H
	DB	016H
	DB	012H
	DB	012H
	DB	012H
	DB	012H
	DB	012H
	DB	012H
	DB	012H
	DB	012H
	DB	012H
	DB	016H
	DB	01fH
	DB	03eH
	DB	04eH
	DB	024H
	DB	037H
	DB	037H
	DB	037H
	DB	037H
	DB	037H
	DB	037H
	DB	06fH
	DB	037H
	DB	037H
	DB	037H
	DB	031H
	DB	031H
	DB	037H
	DB	031H
	DB	04fH
	DB	04cH
	DB	06aH
	DB	076H
	DB	016H
	DB	016H
	DB	021H
	DB	03eH
	DB	023H
	DB	041H
	DB	025H
	DB	04fH
	DB	06eH
	DB	06cH
	DB	09cH
	DB	09cH
	DB	09cH
	DB	09cH
	DB	08H
	DB	08H
	DB	08H
	DB	08H
	DB	06cH
	DB	025H
	DB	058H
	DB	0a6H
	DB	016H
	DB	012H
	DB	012H
	DB	012H
	DB	09aH
	DB	03bH
	DB	010H
	DB	011H
	DB	02H
	DB	02H
	DB	07H
	DB	07H
	DB	07H
	DB	07H
	DB	07H
	DB	07H
	DB	07H
	DB	07H
	DB	07H
	DB	07H
	DB	07H
	DB	07H
	DB	07H
	DB	07H
	DB	07H
	DB	07H
	DB	07H
	DB	07H
	DB	07H
	DB	07H
	DB	07H
	DB	07H
	DB	07H
	DB	07H
	DB	07H
	DB	07H
	DB	07H
	DB	07H
	DB	07H
	DB	01H
	DB	01H
	DB	01H
	DB	01H
	DB	03H
	DB	02cH
	DB	099H
	DB	07H
	DB	07H
	DB	07H
	DB	07H
	DB	07H
	DB	07H
	DB	07H
	DB	07H
	DB	07H
	DB	07H
	DB	02H
	DB	01cH
	DB	05H
	DB	0aH
	DB	0aH
	DB	0aH
	DB	0aH
	DB	0aH
	DB	0aH
	DB	0e9H
	DB	0e9H
	DB	0e9H
	DB	0dH
	DB	0dH
	DB	0dH
	DB	02cH
	DB	0dH
	DB	0dH
	DB	0dH
	DB	0e9H
	DB	0e9H
	DB	0e9H
	DB	0e9H
	DB	0aH
	DB	0aH
	DB	0aH
	DB	0aH
	DB	086H
	DB	086H
	DB	05H
	DB	05H
	DB	05H
	DB	05H
	DB	057H
	DB	057H
	DB	02eH
	DB	02dH
	DB	09H
	DB	09H
	DB	09H
	DB	09H
	DB	09H
	DB	09H
	DB	020H
	DB	02eH
	DB	044H
	DB	044H
	DB	03H
	DB	01H
	DB	026H
	DB	09H
	DB	09H
	DB	09H
	DB	09H
	DB	09H
	DB	09H
	DB	020H
	DB	01H
	DB	03H
	DB	01H
	DB	02fH
	DB	09H
	DB	09H
	DB	09H
	DB	09H
	DB	09H
	DB	026H
	DB	09H
	DB	09H
	DB	09H
	DB	09H
	DB	09H
	DB	09H
	DB	030H
	DB	01H
	DB	03H
	DB	02eH
	DB	020H
	DB	09H
	DB	09H
	DB	09H
	DB	09H
	DB	09H
	DB	09H
	DB	030H
	DB	01H
	DB	01H
	DB	01H
	DB	01H
	DB	02dH
	DB	09H
	DB	09H
	DB	09H
	DB	09H
	DB	09H
	DB	026H
	DB	01H
	DB	03H
	DB	044H
	DB	01H
	DB	033H
	DB	09H
	DB	09H
	DB	09H
	DB	09H
	DB	02fH
	DB	020H
	DB	01H
	DB	01H
	DB	01H
	DB	01H
	DB	01H
	DB	020H
	DB	02dH
	DB	030H
	DB	02eH
	DB	05H
	DB	057H
	DB	036H
	DB	026H
	DB	09H
	DB	09H
	DB	09H
	DB	09H
	DB	02dH
	DB	036H
	DB	01H
	DB	01H
	DB	01H
	DB	01H
	DB	01H
	DB	030H
	DB	02dH
	DB	036H
	DB	086H
	DB	02cH
	DB	0bH
	DB	0bH
	DB	0bH
	DB	0bH
	DB	0bH
	DB	0bH
	DB	0bH
	DB	0bH
	DB	0bH
	DB	0bH
	DB	0bH
	DB	0bH
	DB	0bH
	DB	0bH
	DB	0bH
	DB	0bH
	DB	0bH
	DB	0bH
	DB	0bH
	DB	0bH
	DB	0bH
	DB	0bH
	DB	0bH
	DB	0aeH
	DB	0aeH
	DB	02cH
	DB	02cH
	DB	02cH
	DB	0dH
	DB	086H
	DB	0c0H
	DB	05fH
	DB	03eH
	DB	01fH
	DB	023H
	DB	01fH
	DB	023H
	DB	054H
	DB	04eH
	DB	06aH
	DB	063H
	DB	032H
	DB	010H
	DB	010H
	DB	011H
	DB	011H
	DB	02H
	DB	02H
	DB	010H
	DB	045H
	DB	018H
	DB	018H
	DB	01dH
	DB	01dH
	DB	045H
	DB	054H
	DB	021H
	DB	028H
	DB	016H
	DB	012H
	DB	012H
	DB	012H
	DB	012H
	DB	012H
	DB	012H
	DB	012H
	DB	012H
	DB	012H
	DB	028H
	DB	03eH
	DB	01fH
	DB	0caH
	DB	031H
	DB	037H
	DB	06fH
	DB	037H
	DB	037H
	DB	06fH
	DB	037H
	DB	037H
	DB	037H
	DB	037H
	DB	037H
	DB	037H
	DB	037H
	DB	037H
	DB	037H
	DB	024H
	DB	085H
	DB	03dH
	DB	021H
	DB	021H
	DB	06aH
	DB	01fH
	DB	01fH
	DB	023H
	DB	04cH
	DB	015H
	DB	04fH
	DB	04dH
	DB	06eH
	DB	06eH
	DB	06dH
	DB	06cH
	DB	09cH
	DB	08H
	DB	08H
	DB	06cH
	DB	06cH
	DB	04dH
	DB	03fH
	DB	0baH
	DB	023H
	DB	021H
	DB	016H
	DB	012H
	DB	012H
	DB	012H
	DB	041H
	DB	010H
	DB	011H
	DB	02H
	DB	02H
	DB	07H
	DB	07H
	DB	07H
	DB	07H
	DB	07H
	DB	07H
	DB	07H
	DB	07H
	DB	07H
	DB	07H
	DB	07H
	DB	07H
	DB	07H
	DB	07H
	DB	07H
	DB	07H
	DB	07H
	DB	07H
	DB	07H
	DB	07H
	DB	07H
	DB	07H
	DB	07H
	DB	07H
	DB	07H
	DB	07H
	DB	07H
	DB	07H
	DB	07H
	DB	01H
	DB	01H
	DB	01H
	DB	01H
	DB	03H
	DB	02cH
	DB	099H
	DB	07H
	DB	07H
	DB	07H
	DB	07H
	DB	07H
	DB	07H
	DB	07H
	DB	07H
	DB	07H
	DB	07H
	DB	02H
	DB	01cH
	DB	05H
	DB	0aH
	DB	0aH
	DB	0aH
	DB	0aH
	DB	0aH
	DB	0aH
	DB	0aH
	DB	0e9H
	DB	0e9H
	DB	0e9H
	DB	0dH
	DB	0dH
	DB	02cH
	DB	02cH
	DB	0dH
	DB	0dH
	DB	0a2H
	DB	0e9H
	DB	0e9H
	DB	0e9H
	DB	0aH
	DB	0aH
	DB	0aH
	DB	0aH
	DB	086H
	DB	086H
	DB	05H
	DB	05H
	DB	05H
	DB	05H
	DB	057H
	DB	057H
	DB	02eH
	DB	02dH
	DB	09H
	DB	09H
	DB	09H
	DB	09H
	DB	09H
	DB	09H
	DB	020H
	DB	01H
	DB	02eH
	DB	02eH
	DB	01H
	DB	02dH
	DB	09H
	DB	09H
	DB	09H
	DB	09H
	DB	09H
	DB	09H
	DB	026H
	DB	036H
	DB	0c4H
	DB	03H
	DB	01H
	DB	02fH
	DB	09H
	DB	09H
	DB	09H
	DB	09H
	DB	09H
	DB	09H
	DB	09H
	DB	09H
	DB	09H
	DB	09H
	DB	09H
	DB	09H
	DB	030H
	DB	01H
	DB	03H
	DB	01H
	DB	02fH
	DB	09H
	DB	09H
	DB	09H
	DB	09H
	DB	09H
	DB	02dH
	DB	01H
	DB	01H
	DB	0c4H
	DB	0c4H
	DB	01H
	DB	01H
	DB	02fH
	DB	09H
	DB	09H
	DB	09H
	DB	09H
	DB	09H
	DB	030H
	DB	02eH
	DB	03H
	DB	01H
	DB	026H
	DB	09H
	DB	09H
	DB	09H
	DB	09H
	DB	036H
	DB	01H
	DB	0c4H
	DB	0c4H
	DB	0c4H
	DB	0c4H
	DB	0c4H
	DB	02eH
	DB	01H
	DB	01H
	DB	04H
	DB	05H
	DB	044H
	DB	020H
	DB	09H
	DB	09H
	DB	09H
	DB	09H
	DB	033H
	DB	01H
	DB	03H
	DB	044H
	DB	04H
	DB	04H
	DB	04H
	DB	044H
	DB	02eH
	DB	01H
	DB	044H
	DB	0e9H
	DB	02cH
	DB	0bH
	DB	0bH
	DB	0bH
	DB	0bH
	DB	0bH
	DB	0bH
	DB	0bH
	DB	0bH
	DB	0bH
	DB	0bH
	DB	0bH
	DB	0bH
	DB	0bH
	DB	0bH
	DB	0bH
	DB	0bH
	DB	0bH
	DB	0bH
	DB	0bH
	DB	0bH
	DB	0bH
	DB	0bH
	DB	0bH
	DB	0bH
	DB	0bH
	DB	0bH
	DB	02cH
	DB	02cH
	DB	0dH
	DB	0e9H
	DB	03bH
	DB	083H
	DB	022H
	DB	03eH
	DB	03eH
	DB	01fH
	DB	04cH
	DB	072H
	DB	03dH
	DB	01fH
	DB	04eH
	DB	032H
	DB	015H
	DB	010H
	DB	011H
	DB	011H
	DB	02H
	DB	02H
	DB	011H
	DB	05bH
	DB	01dH
	DB	018H
	DB	01dH
	DB	01dH
	DB	045H
	DB	041H
	DB	028H
	DB	028H
	DB	016H
	DB	012H
	DB	016H
	DB	016H
	DB	012H
	DB	012H
	DB	012H
	DB	012H
	DB	012H
	DB	016H
	DB	06aH
	DB	03eH
	DB	03dH
	DB	03fH
	DB	0b1H
	DB	06fH
	DB	06fH
	DB	06fH
	DB	037H
	DB	037H
	DB	037H
	DB	037H
	DB	031H
	DB	031H
	DB	037H
	DB	037H
	DB	031H
	DB	037H
	DB	037H
	DB	031H
	DB	06cH
	DB	04cH
	DB	023H
	DB	01fH
	DB	05fH
	DB	022H
	DB	03eH
	DB	023H
	DB	04cH
	DB	015H
	DB	04fH
	DB	04dH
	DB	04fH
	DB	04fH
	DB	04fH
	DB	06eH
	DB	06cH
	DB	06cH
	DB	06dH
	DB	06dH
	DB	04fH
	DB	025H
	DB	083H
	DB	0baH
	DB	0baH
	DB	023H
	DB	028H
	DB	012H
	DB	012H
	DB	012H
	DB	070H
	DB	010H
	DB	011H
	DB	011H
	DB	02H
	DB	07H
	DB	07H
	DB	07H
	DB	07H
	DB	07H
	DB	07H
	DB	07H
	DB	07H
	DB	07H
	DB	07H
	DB	07H
	DB	07H
	DB	07H
	DB	07H
	DB	07H
	DB	07H
	DB	07H
	DB	07H
	DB	07H
	DB	07H
	DB	07H
	DB	07H
	DB	07H
	DB	07H
	DB	07H
	DB	07H
	DB	07H
	DB	07H
	DB	07H
	DB	01H
	DB	01H
	DB	01H
	DB	01H
	DB	03H
	DB	02cH
	DB	099H
	DB	07H
	DB	07H
	DB	07H
	DB	07H
	DB	07H
	DB	07H
	DB	07H
	DB	07H
	DB	07H
	DB	07H
	DB	02H
	DB	01cH
	DB	05H
	DB	0aH
	DB	0aH
	DB	086H
	DB	0aH
	DB	0aH
	DB	0aH
	DB	0aH
	DB	0aH
	DB	0e9H
	DB	0e9H
	DB	0dH
	DB	0dH
	DB	02cH
	DB	02cH
	DB	02cH
	DB	0dH
	DB	0dH
	DB	0e9H
	DB	0e9H
	DB	0aH
	DB	0aH
	DB	0aH
	DB	0aH
	DB	086H
	DB	086H
	DB	086H
	DB	05H
	DB	05H
	DB	05H
	DB	057H
	DB	057H
	DB	04H
	DB	01H
	DB	02dH
	DB	09H
	DB	09H
	DB	09H
	DB	09H
	DB	09H
	DB	09H
	DB	030H
	DB	036H
	DB	036H
	DB	020H
	DB	033H
	DB	09H
	DB	09H
	DB	09H
	DB	09H
	DB	09H
	DB	09H
	DB	09H
	DB	033H
	DB	01H
	DB	0c4H
	DB	03H
	DB	01H
	DB	02fH
	DB	09H
	DB	09H
	DB	09H
	DB	09H
	DB	09H
	DB	09H
	DB	09H
	DB	09H
	DB	09H
	DB	02dH
	DB	020H
	DB	036H
	DB	01H
	DB	0c4H
	DB	02eH
	DB	020H
	DB	09H
	DB	09H
	DB	09H
	DB	09H
	DB	09H
	DB	026H
	DB	036H
	DB	01H
	DB	0c4H
	DB	0c4H
	DB	0c4H
	DB	03H
	DB	01H
	DB	030H
	DB	09H
	DB	09H
	DB	09H
	DB	09H
	DB	09H
	DB	033H
	DB	01H
	DB	03H
	DB	01H
	DB	026H
	DB	09H
	DB	09H
	DB	09H
	DB	09H
	DB	036H
	DB	01H
	DB	0c4H
	DB	03H
	DB	044H
	DB	044H
	DB	044H
	DB	044H
	DB	044H
	DB	04H
	DB	057H
	DB	086H
	DB	044H
	DB	030H
	DB	09H
	DB	09H
	DB	09H
	DB	09H
	DB	033H
	DB	01H
	DB	044H
	DB	057H
	DB	086H
	DB	086H
	DB	086H
	DB	086H
	DB	05H
	DB	05H
	DB	086H
	DB	0e9H
	DB	0aeH
	DB	0dfH
	DB	0dfH
	DB	0dfH
	DB	0dfH
	DB	0dfH
	DB	0dfH
	DB	0dfH
	DB	0dfH
	DB	0bH
	DB	0bH
	DB	0bH
	DB	0bH
	DB	0bH
	DB	0bH
	DB	0bH
	DB	0bH
	DB	0bH
	DB	0bH
	DB	0bH
	DB	0bH
	DB	0bH
	DB	0bH
	DB	0bH
	DB	0bH
	DB	0bH
	DB	0bH
	DB	0bH
	DB	02cH
	DB	0dH
	DB	0e9H
	DB	0aH
	DB	02bH
	DB	0d1H
	DB	022H
	DB	04aH
	DB	083H
	DB	0c9H
	DB	068H
	DB	058H
	DB	06aH
	DB	0c9H
	DB	015H
	DB	015H
	DB	010H
	DB	011H
	DB	011H
	DB	02H
	DB	02H
	DB	011H
	DB	06dH
	DB	01dH
	DB	018H
	DB	01dH
	DB	01dH
	DB	045H
	DB	0d5H
	DB	028H
	DB	028H
	DB	016H
	DB	012H
	DB	012H
	DB	012H
	DB	016H
	DB	012H
	DB	012H
	DB	012H
	DB	016H
	DB	021H
	DB	01fH
	DB	01fH
	DB	04eH
	DB	025H
	DB	031H
	DB	037H
	DB	037H
	DB	037H
	DB	037H
	DB	031H
	DB	031H
	DB	031H
	DB	031H
	DB	024H
	DB	031H
	DB	031H
	DB	031H
	DB	031H
	DB	031H
	DB	031H
	DB	031H
	DB	0b5H
	DB	066H
	DB	05fH
	DB	05fH
	DB	01fH
	DB	023H
	DB	021H
	DB	04eH
	DB	010H
	DB	04fH
	DB	04fH
	DB	04fH
	DB	04fH
	DB	06eH
	DB	06eH
	DB	04fH
	DB	06eH
	DB	04fH
	DB	04fH
	DB	025H
	DB	097H
	DB	05fH
	DB	04aH
	DB	03eH
	DB	023H
	DB	028H
	DB	012H
	DB	012H
	DB	012H
	DB	051H
	DB	025H
	DB	010H
	DB	011H
	DB	02H
	DB	02H
	DB	07H
	DB	07H
	DB	07H
	DB	07H
	DB	07H
	DB	07H
	DB	07H
	DB	07H
	DB	07H
	DB	07H
	DB	07H
	DB	07H
	DB	07H
	DB	07H
	DB	07H
	DB	07H
	DB	07H
	DB	07H
	DB	07H
	DB	07H
	DB	07H
	DB	07H
	DB	07H
	DB	07H
	DB	07H
	DB	07H
	DB	07H
	DB	07H
	DB	01H
	DB	01H
	DB	01H
	DB	01H
	DB	03H
	DB	02cH
	DB	099H
	DB	07H
	DB	07H
	DB	07H
	DB	07H
	DB	07H
	DB	07H
	DB	07H
	DB	07H
	DB	07H
	DB	07H
	DB	02H
	DB	01cH
	DB	05H
	DB	0aH
	DB	0aH
	DB	086H
	DB	086H
	DB	086H
	DB	086H
	DB	0aH
	DB	0aH
	DB	0aH
	DB	0e9H
	DB	0e9H
	DB	0dH
	DB	0dH
	DB	02cH
	DB	02cH
	DB	02cH
	DB	0dH
	DB	0a2H
	DB	0e9H
	DB	0aH
	DB	0aH
	DB	0aH
	DB	0aH
	DB	086H
	DB	086H
	DB	05H
	DB	05H
	DB	05H
	DB	05H
	DB	057H
	DB	057H
	DB	04H
	DB	01H
	DB	02dH
	DB	09H
	DB	09H
	DB	09H
	DB	09H
	DB	09H
	DB	09H
	DB	09H
	DB	026H
	DB	09H
	DB	09H
	DB	09H
	DB	09H
	DB	09H
	DB	09H
	DB	09H
	DB	09H
	DB	09H
	DB	026H
	DB	036H
	DB	01H
	DB	03H
	DB	03H
	DB	01H
	DB	02fH
	DB	09H
	DB	09H
	DB	09H
	DB	09H
	DB	09H
	DB	09H
	DB	09H
	DB	026H
	DB	036H
	DB	01H
	DB	01H
	DB	01H
	DB	0c4H
	DB	03H
	DB	01H
	DB	02dH
	DB	09H
	DB	09H
	DB	09H
	DB	09H
	DB	09H
	DB	02fH
	DB	01H
	DB	0c4H
	DB	03H
	DB	03H
	DB	03H
	DB	03H
	DB	02eH
	DB	036H
	DB	026H
	DB	09H
	DB	09H
	DB	09H
	DB	09H
	DB	026H
	DB	036H
	DB	02eH
	DB	01H
	DB	026H
	DB	09H
	DB	09H
	DB	09H
	DB	09H
	DB	02fH
	DB	036H
	DB	01H
	DB	02eH
	DB	03H
	DB	04H
	DB	057H
	DB	057H
	DB	057H
	DB	057H
	DB	05H
	DB	0aH
	DB	044H
	DB	030H
	DB	09H
	DB	09H
	DB	09H
	DB	09H
	DB	09H
	DB	02dH
	DB	01H
	DB	02eH
	DB	044H
	DB	086H
	DB	0dH
	DB	0dH
	DB	0dH
	DB	0e9H
	DB	0dH
	DB	02cH
	DB	0bH
	DB	0dfH
	DB	0dfH
	DB	0dfH
	DB	0dfH
	DB	0dfH
	DB	0dfH
	DB	0dfH
	DB	0dfH
	DB	0dfH
	DB	0dfH
	DB	0dfH
	DB	0dfH
	DB	0dfH
	DB	0dfH
	DB	0bH
	DB	0bH
	DB	0bH
	DB	0bH
	DB	0bH
	DB	0bH
	DB	0bH
	DB	0bH
	DB	0bH
	DB	0bH
	DB	0bH
	DB	0bH
	DB	0bH
	DB	02cH
	DB	0dH
	DB	0e9H
	DB	0aH
	DB	05H
	DB	02bH
	DB	083H
	DB	0d1H
	DB	05H
	DB	04eH
	DB	05fH
	DB	058H
	DB	01fH
	DB	04cH
	DB	032H
	DB	015H
	DB	010H
	DB	011H
	DB	011H
	DB	02H
	DB	02H
	DB	011H
	DB	010H
	DB	08fH
	DB	01dH
	DB	01dH
	DB	01dH
	DB	045H
	DB	0d5H
	DB	028H
	DB	028H
	DB	016H
	DB	012H
	DB	016H
	DB	016H
	DB	016H
	DB	012H
	DB	012H
	DB	012H
	DB	076H
	DB	01fH
	DB	03dH
	DB	021H
	DB	02bH
	DB	025H
	DB	031H
	DB	037H
	DB	037H
	DB	031H
	DB	031H
	DB	031H
	DB	024H
	DB	024H
	DB	024H
	DB	024H
	DB	024H
	DB	024H
	DB	024H
	DB	024H
	DB	031H
	DB	031H
	DB	031H
	DB	02H
	DB	083H
	DB	066H
	DB	04eH
	DB	04cH
	DB	0caH
	DB	097H
	DB	097H
	DB	025H
	DB	04fH
	DB	04bH
	DB	04bH
	DB	04fH
	DB	06eH
	DB	04fH
	DB	04dH
	DB	04fH
	DB	04fH
	DB	04dH
	DB	025H
	DB	048H
	DB	055H
	DB	04aH
	DB	03eH
	DB	0baH
	DB	023H
	DB	016H
	DB	012H
	DB	012H
	DB	012H
	DB	097H
	DB	010H
	DB	011H
	DB	02H
	DB	02H
	DB	07H
	DB	07H
	DB	07H
	DB	07H
	DB	07H
	DB	07H
	DB	07H
	DB	07H
	DB	07H
	DB	07H
	DB	07H
	DB	07H
	DB	07H
	DB	07H
	DB	07H
	DB	07H
	DB	07H
	DB	07H
	DB	07H
	DB	07H
	DB	07H
	DB	07H
	DB	07H
	DB	07H
	DB	07H
	DB	07H
	DB	07H
	DB	07H
	DB	01H
	DB	01H
	DB	01H
	DB	01H
	DB	03H
	DB	02cH
	DB	099H
	DB	07H
	DB	07H
	DB	07H
	DB	07H
	DB	07H
	DB	07H
	DB	07H
	DB	07H
	DB	07H
	DB	07H
	DB	02H
	DB	01cH
	DB	05H
	DB	0aH
	DB	0aH
	DB	086H
	DB	086H
	DB	086H
	DB	086H
	DB	0aH
	DB	0aH
	DB	0aH
	DB	0e9H
	DB	0e9H
	DB	0dH
	DB	0dH
	DB	02cH
	DB	02cH
	DB	02cH
	DB	02cH
	DB	0dH
	DB	0e9H
	DB	0e9H
	DB	0aH
	DB	0aH
	DB	0aH
	DB	086H
	DB	086H
	DB	05H
	DB	05H
	DB	05H
	DB	05H
	DB	057H
	DB	057H
	DB	04H
	DB	01H
	DB	02dH
	DB	09H
	DB	09H
	DB	09H
	DB	09H
	DB	09H
	DB	09H
	DB	09H
	DB	09H
	DB	09H
	DB	09H
	DB	09H
	DB	09H
	DB	09H
	DB	09H
	DB	09H
	DB	09H
	DB	09H
	DB	030H
	DB	01H
	DB	0c4H
	DB	03H
	DB	03H
	DB	01H
	DB	02fH
	DB	09H
	DB	09H
	DB	09H
	DB	09H
	DB	09H
	DB	09H
	DB	026H
	DB	036H
	DB	01H
	DB	0c4H
	DB	0c4H
	DB	0c4H
	DB	0c4H
	DB	03H
	DB	01H
	DB	02fH
	DB	09H
	DB	09H
	DB	09H
	DB	09H
	DB	09H
	DB	033H
	DB	01H
	DB	01H
	DB	01H
	DB	02eH
	DB	02eH
	DB	02eH
	DB	01H
	DB	01H
	DB	026H
	DB	09H
	DB	09H
	DB	09H
	DB	09H
	DB	09H
	DB	036H
	DB	02eH
	DB	01H
	DB	02fH
	DB	09H
	DB	09H
	DB	09H
	DB	09H
	DB	09H
	DB	09H
	DB	02fH
	DB	030H
	DB	020H
	DB	01H
	DB	02eH
	DB	04H
	DB	086H
	DB	086H
	DB	086H
	DB	0e9H
	DB	057H
	DB	020H
	DB	09H
	DB	09H
	DB	09H
	DB	09H
	DB	09H
	DB	09H
	DB	026H
	DB	033H
	DB	030H
	DB	036H
	DB	02eH
	DB	057H
	DB	02cH
	DB	0dfH
	DB	0bH
	DB	0bH
	DB	0dfH
	DB	0efH
	DB	0efH
	DB	0efH
	DB	0dfH
	DB	0dfH
	DB	0dfH
	DB	0dfH
	DB	0dfH
	DB	0dfH
	DB	0dfH
	DB	0dfH
	DB	0dfH
	DB	0dfH
	DB	0dfH
	DB	0dfH
	DB	0dfH
	DB	0dfH
	DB	0bH
	DB	0bH
	DB	0bH
	DB	0bH
	DB	0bH
	DB	0bH
	DB	0bH
	DB	0bH
	DB	0bH
	DB	0bH
	DB	0aeH
	DB	02cH
	DB	0dH
	DB	0aH
	DB	086H
	DB	048H
	DB	03bH
	DB	03bH
	DB	053H
	DB	04cH
	DB	04aH
	DB	04aH
	DB	068H
	DB	03dH
	DB	02bH
	DB	015H
	DB	010H
	DB	011H
	DB	011H
	DB	02H
	DB	02H
	DB	02H
	DB	011H
	DB	0c6H
	DB	01dH
	DB	01dH
	DB	01dH
	DB	045H
	DB	054H
	DB	028H
	DB	021H
	DB	016H
	DB	012H
	DB	09aH
	DB	016H
	DB	012H
	DB	012H
	DB	012H
	DB	016H
	DB	06aH
	DB	05fH
	DB	041H
	DB	060H
	DB	05cH
	DB	04dH
	DB	024H
	DB	031H
	DB	031H
	DB	031H
	DB	031H
	DB	031H
	DB	024H
	DB	024H
	DB	024H
	DB	024H
	DB	024H
	DB	024H
	DB	024H
	DB	024H
	DB	024H
	DB	024H
	DB	031H
	DB	024H
	DB	03fH
	DB	03fH
	DB	01eH
	DB	09cH
	DB	024H
	DB	09dH
	DB	04dH
	DB	025H
	DB	025H
	DB	04fH
	DB	04bH
	DB	04fH
	DB	04fH
	DB	04fH
	DB	04fH
	DB	04bH
	DB	04fH
	DB	025H
	DB	015H
	DB	03H
	DB	0c9H
	DB	05fH
	DB	04aH
	DB	0baH
	DB	01fH
	DB	028H
	DB	012H
	DB	012H
	DB	012H
	DB	090H
	DB	010H
	DB	011H
	DB	011H
	DB	02H
	DB	07H
	DB	07H
	DB	07H
	DB	07H
	DB	07H
	DB	07H
	DB	07H
	DB	07H
	DB	07H
	DB	07H
	DB	07H
	DB	07H
	DB	07H
	DB	07H
	DB	07H
	DB	07H
	DB	07H
	DB	07H
	DB	07H
	DB	07H
	DB	07H
	DB	07H
	DB	07H
	DB	07H
	DB	07H
	DB	07H
	DB	07H
	DB	07H
	DB	01H
	DB	01H
	DB	01H
	DB	01H
	DB	03H
	DB	02cH
	DB	099H
	DB	07H
	DB	07H
	DB	07H
	DB	07H
	DB	07H
	DB	07H
	DB	07H
	DB	07H
	DB	07H
	DB	07H
	DB	02H
	DB	01cH
	DB	086H
	DB	0aH
	DB	0aH
	DB	086H
	DB	086H
	DB	086H
	DB	086H
	DB	086H
	DB	0aH
	DB	0aH
	DB	0aH
	DB	0e9H
	DB	0e9H
	DB	0dH
	DB	0dH
	DB	02cH
	DB	0aeH
	DB	02cH
	DB	02cH
	DB	0dH
	DB	0e9H
	DB	0aH
	DB	0aH
	DB	086H
	DB	086H
	DB	086H
	DB	05H
	DB	05H
	DB	05H
	DB	057H
	DB	057H
	DB	04H
	DB	04H
	DB	01H
	DB	02dH
	DB	09H
	DB	09H
	DB	09H
	DB	09H
	DB	09H
	DB	09H
	DB	09H
	DB	09H
	DB	09H
	DB	09H
	DB	09H
	DB	09H
	DB	09H
	DB	09H
	DB	09H
	DB	026H
	DB	020H
	DB	01H
	DB	0c4H
	DB	0c4H
	DB	03H
	DB	03H
	DB	01H
	DB	02fH
	DB	09H
	DB	09H
	DB	09H
	DB	09H
	DB	09H
	DB	09H
	DB	030H
	DB	01H
	DB	0c4H
	DB	0c4H
	DB	0c4H
	DB	03H
	DB	03H
	DB	03H
	DB	01H
	DB	026H
	DB	09H
	DB	09H
	DB	09H
	DB	09H
	DB	09H
	DB	02fH
	DB	030H
	DB	030H
	DB	030H
	DB	030H
	DB	030H
	DB	030H
	DB	030H
	DB	030H
	DB	026H
	DB	09H
	DB	09H
	DB	09H
	DB	09H
	DB	09H
	DB	020H
	DB	02eH
	DB	01H
	DB	02dH
	DB	09H
	DB	09H
	DB	09H
	DB	09H
	DB	09H
	DB	09H
	DB	09H
	DB	09H
	DB	09H
	DB	02fH
	DB	030H
	DB	036H
	DB	02eH
	DB	05H
	DB	0e9H
	DB	0e9H
	DB	086H
	DB	01H
	DB	026H
	DB	09H
	DB	09H
	DB	09H
	DB	09H
	DB	09H
	DB	09H
	DB	09H
	DB	09H
	DB	026H
	DB	033H
	DB	020H
	DB	01H
	DB	05H
	DB	0dfH
	DB	0eH
	DB	0efH
	DB	0efH
	DB	0efH
	DB	0efH
	DB	0efH
	DB	0efH
	DB	0efH
	DB	0efH
	DB	0efH
	DB	0efH
	DB	0dfH
	DB	0dfH
	DB	0dfH
	DB	0dfH
	DB	0dfH
	DB	0dfH
	DB	0dfH
	DB	0dfH
	DB	0dfH
	DB	0dfH
	DB	0dfH
	DB	0bH
	DB	0bH
	DB	0bH
	DB	0bH
	DB	0bH
	DB	0bH
	DB	0bH
	DB	0bH
	DB	02cH
	DB	0dH
	DB	0e9H
	DB	0aH
	DB	048H
	DB	048H
	DB	048H
	DB	048H
	DB	066H
	DB	058H
	DB	04aH
	DB	01fH
	DB	023H
	DB	04eH
	DB	032H
	DB	010H
	DB	011H
	DB	011H
	DB	02H
	DB	02H
	DB	02H
	DB	011H
	DB	010H
	DB	08fH
	DB	01dH
	DB	01dH
	DB	045H
	DB	073H
	DB	021H
	DB	028H
	DB	016H
	DB	012H
	DB	09aH
	DB	012H
	DB	012H
	DB	09aH
	DB	012H
	DB	076H
	DB	01fH
	DB	066H
	DB	03cH
	DB	032H
	DB	025H
	DB	04dH
	DB	024H
	DB	031H
	DB	031H
	DB	024H
	DB	024H
	DB	024H
	DB	024H
	DB	024H
	DB	024H
	DB	024H
	DB	024H
	DB	024H
	DB	024H
	DB	024H
	DB	024H
	DB	024H
	DB	031H
	DB	09cH
	DB	0b5H
	DB	09dH
	DB	031H
	DB	037H
	DB	031H
	DB	031H
	DB	01eH
	DB	025H
	DB	04bH
	DB	04fH
	DB	025H
	DB	04dH
	DB	04dH
	DB	04fH
	DB	04fH
	DB	04fH
	DB	04dH
	DB	015H
	DB	01cH
	DB	01cH
	DB	032H
	DB	0daH
	DB	04aH
	DB	03eH
	DB	023H
	DB	028H
	DB	012H
	DB	012H
	DB	012H
	DB	051H
	DB	03bH
	DB	010H
	DB	011H
	DB	02H
	DB	02H
	DB	07H
	DB	07H
	DB	07H
	DB	07H
	DB	07H
	DB	07H
	DB	07H
	DB	07H
	DB	07H
	DB	07H
	DB	07H
	DB	07H
	DB	07H
	DB	07H
	DB	07H
	DB	07H
	DB	07H
	DB	07H
	DB	07H
	DB	07H
	DB	07H
	DB	07H
	DB	07H
	DB	07H
	DB	07H
	DB	07H
	DB	07H
	DB	01H
	DB	01H
	DB	01H
	DB	01H
	DB	03H
	DB	02cH
	DB	099H
	DB	07H
	DB	07H
	DB	07H
	DB	07H
	DB	07H
	DB	07H
	DB	07H
	DB	07H
	DB	07H
	DB	07H
	DB	02H
	DB	01cH
	DB	086H
	DB	0aH
	DB	0aH
	DB	0aH
	DB	086H
	DB	086H
	DB	086H
	DB	0aH
	DB	0aH
	DB	0aH
	DB	0aH
	DB	0aH
	DB	0e9H
	DB	0dH
	DB	0dH
	DB	02cH
	DB	0aeH
	DB	0bH
	DB	02cH
	DB	02cH
	DB	0dH
	DB	0e9H
	DB	0aH
	DB	0aH
	DB	086H
	DB	086H
	DB	05H
	DB	05H
	DB	057H
	DB	057H
	DB	057H
	DB	04H
	DB	04H
	DB	01H
	DB	02dH
	DB	09H
	DB	09H
	DB	09H
	DB	09H
	DB	09H
	DB	09H
	DB	09H
	DB	09H
	DB	09H
	DB	09H
	DB	09H
	DB	09H
	DB	09H
	DB	026H
	DB	02dH
	DB	036H
	DB	01H
	DB	0c4H
	DB	0c4H
	DB	03H
	DB	03H
	DB	03H
	DB	01H
	DB	02fH
	DB	09H
	DB	09H
	DB	09H
	DB	09H
	DB	09H
	DB	026H
	DB	036H
	DB	01H
	DB	0c4H
	DB	03H
	DB	03H
	DB	03H
	DB	044H
	DB	03H
	DB	036H
	DB	026H
	DB	09H
	DB	09H
	DB	09H
	DB	09H
	DB	09H
	DB	09H
	DB	09H
	DB	09H
	DB	09H
	DB	09H
	DB	09H
	DB	09H
	DB	09H
	DB	09H
	DB	09H
	DB	09H
	DB	09H
	DB	09H
	DB	09H
	DB	09H
	DB	020H
	DB	02eH
	DB	02eH
	DB	036H
	DB	026H
	DB	09H
	DB	09H
	DB	09H
	DB	09H
	DB	09H
	DB	09H
	DB	09H
	DB	09H
	DB	09H
	DB	09H
	DB	026H
	DB	030H
	DB	01H
	DB	086H
	DB	0dH
	DB	0dH
	DB	02eH
	DB	02dH
	DB	09H
	DB	09H
	DB	09H
	DB	09H
	DB	09H
	DB	09H
	DB	09H
	DB	09H
	DB	09H
	DB	09H
	DB	09H
	DB	02fH
	DB	036H
	DB	04H
	DB	0efH
	DB	0eH
	DB	0eH
	DB	0eH
	DB	0eH
	DB	0eH
	DB	0efH
	DB	0efH
	DB	0efH
	DB	0efH
	DB	0efH
	DB	0efH
	DB	0efH
	DB	0efH
	DB	0efH
	DB	0dfH
	DB	0dfH
	DB	0dfH
	DB	0dfH
	DB	0dfH
	DB	0dfH
	DB	0dfH
	DB	0dfH
	DB	0dfH
	DB	0dfH
	DB	0bH
	DB	0bH
	DB	0bH
	DB	0bH
	DB	0bH
	DB	0aeH
	DB	02cH
	DB	0dH
	DB	048H
	DB	032H
	DB	048H
	DB	048H
	DB	048H
	DB	0caH
	DB	058H
	DB	03eH
	DB	023H
	DB	023H
	DB	023H
	DB	073H
	DB	010H
	DB	011H
	DB	011H
	DB	02H
	DB	02H
	DB	02H
	DB	011H
	DB	010H
	DB	0c6H
	DB	01dH
	DB	01dH
	DB	045H
	DB	072H
	DB	069H
	DB	021H
	DB	016H
	DB	09aH
	DB	09aH
	DB	09aH
	DB	09aH
	DB	09aH
	DB	09aH
	DB	021H
	DB	05fH
	DB	063H
	DB	072H
	DB	050H
	DB	025H
	DB	04dH
	DB	024H
	DB	031H
	DB	024H
	DB	024H
	DB	024H
	DB	024H
	DB	024H
	DB	024H
	DB	024H
	DB	024H
	DB	024H
	DB	024H
	DB	024H
	DB	024H
	DB	024H
	DB	024H
	DB	06dH
	DB	025H
	DB	08bH
	DB	09cH
	DB	08H
	DB	024H
	DB	08H
	DB	0a5H
	DB	0b5H
	DB	025H
	DB	06cH
	DB	09cH
	DB	06eH
	DB	025H
	DB	04dH
	DB	04dH
	DB	04fH
	DB	025H
	DB	025H
	DB	015H
	DB	01cH
	DB	015H
	DB	015H
	DB	097H
	DB	05fH
	DB	03eH
	DB	0baH
	DB	023H
	DB	016H
	DB	012H
	DB	012H
	DB	09aH
	DB	041H
	DB	010H
	DB	011H
	DB	02H
	DB	02H
	DB	07H
	DB	07H
	DB	07H
	DB	07H
	DB	07H
	DB	07H
	DB	07H
	DB	07H
	DB	07H
	DB	07H
	DB	07H
	DB	07H
	DB	07H
	DB	07H
	DB	07H
	DB	07H
	DB	07H
	DB	07H
	DB	07H
	DB	07H
	DB	07H
	DB	07H
	DB	07H
	DB	07H
	DB	07H
	DB	07H
	DB	07H
	DB	01H
	DB	01H
	DB	01H
	DB	01H
	DB	03H
	DB	02cH
	DB	099H
	DB	07H
	DB	07H
	DB	07H
	DB	07H
	DB	07H
	DB	07H
	DB	07H
	DB	07H
	DB	07H
	DB	07H
	DB	02H
	DB	01cH
	DB	086H
	DB	0aH
	DB	0aH
	DB	0aH
	DB	0aH
	DB	086H
	DB	086H
	DB	0aH
	DB	0aH
	DB	0aH
	DB	0aH
	DB	0aH
	DB	0e9H
	DB	0e9H
	DB	0dH
	DB	0dH
	DB	02cH
	DB	0bH
	DB	0bH
	DB	02cH
	DB	0dH
	DB	0dH
	DB	0e9H
	DB	0aH
	DB	086H
	DB	086H
	DB	05H
	DB	05H
	DB	057H
	DB	057H
	DB	04H
	DB	04H
	DB	04H
	DB	01H
	DB	02dH
	DB	09H
	DB	09H
	DB	09H
	DB	09H
	DB	09H
	DB	09H
	DB	033H
	DB	02dH
	DB	033H
	DB	033H
	DB	02dH
	DB	030H
	DB	020H
	DB	01H
	DB	01H
	DB	01H
	DB	0c4H
	DB	0c4H
	DB	03H
	DB	03H
	DB	044H
	DB	044H
	DB	01H
	DB	02fH
	DB	09H
	DB	09H
	DB	09H
	DB	09H
	DB	09H
	DB	02fH
	DB	01H
	DB	0c4H
	DB	03H
	DB	03H
	DB	044H
	DB	044H
	DB	044H
	DB	03H
	DB	036H
	DB	026H
	DB	09H
	DB	09H
	DB	09H
	DB	09H
	DB	09H
	DB	09H
	DB	09H
	DB	09H
	DB	09H
	DB	09H
	DB	09H
	DB	09H
	DB	09H
	DB	09H
	DB	09H
	DB	09H
	DB	09H
	DB	09H
	DB	09H
	DB	09H
	DB	020H
	DB	02eH
	DB	044H
	DB	01H
	DB	030H
	DB	09H
	DB	09H
	DB	09H
	DB	09H
	DB	09H
	DB	09H
	DB	09H
	DB	09H
	DB	09H
	DB	09H
	DB	09H
	DB	09H
	DB	02dH
	DB	01H
	DB	0e9H
	DB	02cH
	DB	086H
	DB	01H
	DB	02fH
	DB	09H
	DB	09H
	DB	09H
	DB	09H
	DB	09H
	DB	09H
	DB	09H
	DB	09H
	DB	09H
	DB	09H
	DB	09H
	DB	026H
	DB	020H
	DB	057H
	DB	0e0H
	DB	0eH
	DB	0eH
	DB	0eH
	DB	0eH
	DB	0eH
	DB	0eH
	DB	0eH
	DB	0efH
	DB	0efH
	DB	0efH
	DB	0efH
	DB	0efH
	DB	0efH
	DB	0efH
	DB	0efH
	DB	0efH
	DB	0dfH
	DB	0dfH
	DB	0dfH
	DB	0dfH
	DB	0dfH
	DB	0dfH
	DB	0dfH
	DB	0dfH
	DB	0dfH
	DB	0bH
	DB	0bH
	DB	0bH
	DB	0bH
	DB	02cH
	DB	0dH
	DB	048H
	DB	048H
	DB	048H
	DB	048H
	DB	053H
	DB	02bH
	DB	066H
	DB	04aH
	DB	023H
	DB	021H
	DB	023H
	DB	069H
	DB	03bH
	DB	010H
	DB	011H
	DB	02H
	DB	02H
	DB	02H
	DB	02H
	DB	011H
	DB	010H
	DB	096H
	DB	01dH
	DB	045H
	DB	073H
	DB	021H
	DB	021H
	DB	016H
	DB	03aH
	DB	09aH
	DB	09aH
	DB	09aH
	DB	09aH
	DB	016H
	DB	06aH
	DB	05fH
	DB	04cH
	DB	08aH
	DB	045H
	DB	025H
	DB	025H
	DB	09cH
	DB	031H
	DB	024H
	DB	024H
	DB	024H
	DB	024H
	DB	024H
	DB	024H
	DB	024H
	DB	024H
	DB	024H
	DB	024H
	DB	024H
	DB	024H
	DB	024H
	DB	04fH
	DB	04dH
	DB	04dH
	DB	025H
	DB	04bH
	DB	02H
	DB	02H
	DB	06dH
	DB	04dH
	DB	025H
	DB	025H
	DB	04bH
	DB	08H
	DB	024H
	DB	08bH
	DB	025H
	DB	04dH
	DB	025H
	DB	02bH
	DB	02bH
	DB	01cH
	DB	015H
	DB	015H
	DB	015H
	DB	032H
	DB	083H
	DB	04aH
	DB	03eH
	DB	023H
	DB	016H
	DB	012H
	DB	09aH
	DB	012H
	DB	090H
	DB	010H
	DB	011H
	DB	011H
	DB	02H
	DB	07H
	DB	07H
	DB	07H
	DB	07H
	DB	07H
	DB	07H
	DB	07H
	DB	07H
	DB	07H
	DB	07H
	DB	07H
	DB	07H
	DB	07H
	DB	07H
	DB	07H
	DB	07H
	DB	07H
	DB	07H
	DB	07H
	DB	07H
	DB	07H
	DB	07H
	DB	07H
	DB	07H
	DB	07H
	DB	07H
	DB	07H
	DB	01H
	DB	01H
	DB	01H
	DB	01H
	DB	03H
	DB	02cH
	DB	099H
	DB	07H
	DB	07H
	DB	07H
	DB	07H
	DB	07H
	DB	07H
	DB	07H
	DB	07H
	DB	07H
	DB	07H
	DB	02H
	DB	01cH
	DB	086H
	DB	0aH
	DB	0aH
	DB	0aH
	DB	0aH
	DB	0aH
	DB	0aH
	DB	0aH
	DB	0aH
	DB	0aH
	DB	0aH
	DB	0aH
	DB	0e9H
	DB	0e9H
	DB	0a2H
	DB	0dH
	DB	02cH
	DB	0bH
	DB	0bH
	DB	0bH
	DB	02cH
	DB	0dH
	DB	0e9H
	DB	0e9H
	DB	0aH
	DB	086H
	DB	05H
	DB	05H
	DB	057H
	DB	057H
	DB	04H
	DB	04H
	DB	04H
	DB	01H
	DB	02dH
	DB	09H
	DB	09H
	DB	09H
	DB	09H
	DB	09H
	DB	09H
	DB	020H
	DB	01H
	DB	01H
	DB	01H
	DB	01H
	DB	01H
	DB	01H
	DB	01H
	DB	0c4H
	DB	0c4H
	DB	0c4H
	DB	03H
	DB	03H
	DB	044H
	DB	044H
	DB	044H
	DB	01H
	DB	02fH
	DB	09H
	DB	09H
	DB	09H
	DB	09H
	DB	09H
	DB	033H
	DB	01H
	DB	03H
	DB	03H
	DB	044H
	DB	044H
	DB	044H
	DB	044H
	DB	03H
	DB	036H
	DB	026H
	DB	09H
	DB	09H
	DB	09H
	DB	09H
	DB	09H
	DB	09H
	DB	026H
	DB	026H
	DB	026H
	DB	026H
	DB	026H
	DB	026H
	DB	026H
	DB	026H
	DB	026H
	DB	026H
	DB	026H
	DB	026H
	DB	026H
	DB	09H
	DB	020H
	DB	02eH
	DB	044H
	DB	03H
	DB	01H
	DB	020H
	DB	026H
	DB	09H
	DB	09H
	DB	09H
	DB	09H
	DB	09H
	DB	09H
	DB	09H
	DB	09H
	DB	09H
	DB	09H
	DB	09H
	DB	030H
	DB	044H
	DB	02cH
	DB	02cH
	DB	057H
	DB	01H
	DB	02dH
	DB	09H
	DB	09H
	DB	09H
	DB	09H
	DB	09H
	DB	09H
	DB	09H
	DB	09H
	DB	09H
	DB	09H
	DB	09H
	DB	026H
	DB	01H
	DB	0aeH
	DB	0e0H
	DB	0eH
	DB	0eH
	DB	0eH
	DB	0eH
	DB	0eH
	DB	0eH
	DB	0eH
	DB	0eH
	DB	0eH
	DB	0eH
	DB	0efH
	DB	0efH
	DB	0efH
	DB	0efH
	DB	0efH
	DB	0efH
	DB	0efH
	DB	0efH
	DB	0dfH
	DB	0dfH
	DB	0dfH
	DB	0dfH
	DB	0dfH
	DB	0dfH
	DB	0dfH
	DB	0dfH
	DB	0bH
	DB	0bH
	DB	0bH
	DB	0aH
	DB	048H
	DB	02bH
	DB	03bH
	DB	048H
	DB	04H
	DB	02bH
	DB	066H
	DB	058H
	DB	023H
	DB	028H
	DB	021H
	DB	0a6H
	DB	04eH
	DB	025H
	DB	011H
	DB	02H
	DB	02H
	DB	02H
	DB	02H
	DB	011H
	DB	010H
	DB	0c6H
	DB	01dH
	DB	08fH
	DB	0c9H
	DB	021H
	DB	021H
	DB	016H
	DB	09aH
	DB	09aH
	DB	09aH
	DB	09aH
	DB	012H
	DB	028H
	DB	01fH
	DB	05fH
	DB	073H
	DB	045H
	DB	01dH
	DB	0b6H
	DB	025H
	DB	06eH
	DB	024H
	DB	024H
	DB	024H
	DB	024H
	DB	024H
	DB	024H
	DB	024H
	DB	024H
	DB	024H
	DB	024H
	DB	024H
	DB	024H
	DB	024H
	DB	04fH
	DB	04fH
	DB	04fH
	DB	025H
	DB	04bH
	DB	04bH
	DB	04bH
	DB	04bH
	DB	04bH
	DB	025H
	DB	02bH
	DB	025H
	DB	02H
	DB	08H
	DB	031H
	DB	031H
	DB	04dH
	DB	025H
	DB	03fH
	DB	069H
	DB	073H
	DB	015H
	DB	015H
	DB	015H
	DB	015H
	DB	015H
	DB	02bH
	DB	058H
	DB	03eH
	DB	023H
	DB	028H
	DB	016H
	DB	012H
	DB	012H
	DB	051H
	DB	025H
	DB	010H
	DB	011H
	DB	02H
	DB	02H
	DB	07H
	DB	07H
	DB	07H
	DB	07H
	DB	07H
	DB	07H
	DB	07H
	DB	07H
	DB	07H
	DB	07H
	DB	07H
	DB	07H
	DB	07H
	DB	07H
	DB	07H
	DB	07H
	DB	07H
	DB	07H
	DB	07H
	DB	07H
	DB	07H
	DB	07H
	DB	07H
	DB	07H
	DB	07H
	DB	07H
	DB	01H
	DB	01H
	DB	01H
	DB	01H
	DB	03H
	DB	02cH
	DB	099H
	DB	07H
	DB	07H
	DB	07H
	DB	07H
	DB	07H
	DB	07H
	DB	07H
	DB	07H
	DB	07H
	DB	07H
	DB	02H
	DB	01cH
	DB	086H
	DB	0aH
	DB	0aH
	DB	0aH
	DB	0aH
	DB	0aH
	DB	0aH
	DB	0aH
	DB	0aH
	DB	0aH
	DB	0aH
	DB	0aH
	DB	0e9H
	DB	0e9H
	DB	0e9H
	DB	0dH
	DB	02cH
	DB	02cH
	DB	0bH
	DB	0bH
	DB	0bH
	DB	02cH
	DB	0dH
	DB	0e9H
	DB	0aH
	DB	0aH
	DB	05H
	DB	05H
	DB	057H
	DB	057H
	DB	04H
	DB	04H
	DB	04H
	DB	01H
	DB	02dH
	DB	09H
	DB	09H
	DB	09H
	DB	09H
	DB	09H
	DB	09H
	DB	020H
	DB	01H
	DB	0c4H
	DB	0c4H
	DB	0c4H
	DB	0c4H
	DB	0c4H
	DB	0c4H
	DB	0c4H
	DB	03H
	DB	03H
	DB	03H
	DB	044H
	DB	044H
	DB	044H
	DB	044H
	DB	01H
	DB	02fH
	DB	09H
	DB	09H
	DB	09H
	DB	09H
	DB	09H
	DB	033H
	DB	01H
	DB	03H
	DB	044H
	DB	044H
	DB	044H
	DB	044H
	DB	044H
	DB	03H
	DB	01H
	DB	026H
	DB	09H
	DB	09H
	DB	09H
	DB	09H
	DB	09H
	DB	02dH
	DB	01H
	DB	036H
	DB	036H
	DB	036H
	DB	036H
	DB	036H
	DB	036H
	DB	036H
	DB	036H
	DB	036H
	DB	036H
	DB	036H
	DB	036H
	DB	036H
	DB	01H
	DB	03H
	DB	044H
	DB	04H
	DB	044H
	DB	01H
	DB	01H
	DB	030H
	DB	02fH
	DB	09H
	DB	09H
	DB	09H
	DB	09H
	DB	09H
	DB	09H
	DB	09H
	DB	09H
	DB	09H
	DB	02fH
	DB	01H
	DB	0dH
	DB	0bH
	DB	02cH
	DB	05H
	DB	01H
	DB	036H
	DB	02dH
	DB	026H
	DB	09H
	DB	09H
	DB	09H
	DB	09H
	DB	09H
	DB	09H
	DB	09H
	DB	09H
	DB	09H
	DB	030H
	DB	057H
	DB	0e0H
	DB	0eH
	DB	0eH
	DB	0eH
	DB	0eH
	DB	0eH
	DB	0eH
	DB	0eH
	DB	0eH
	DB	0eH
	DB	0eH
	DB	0eH
	DB	0eH
	DB	0eH
	DB	0eH
	DB	0efH
	DB	0efH
	DB	0efH
	DB	0efH
	DB	0efH
	DB	0efH
	DB	0efH
	DB	0dfH
	DB	0dfH
	DB	0dfH
	DB	0dfH
	DB	0dfH
	DB	0dfH
	DB	0bH
	DB	02cH
	DB	02bH
	DB	02bH
	DB	02bH
	DB	02bH
	DB	05H
	DB	04H
	DB	048H
	DB	03dH
	DB	03eH
	DB	023H
	DB	016H
	DB	016H
	DB	0a6H
	DB	021H
	DB	0c9H
	DB	025H
	DB	011H
	DB	02H
	DB	02H
	DB	02H
	DB	011H
	DB	011H
	DB	010H
	DB	08fH
	DB	08fH
	DB	0c9H
	DB	028H
	DB	021H
	DB	03aH
	DB	09aH
	DB	09aH
	DB	012H
	DB	012H
	DB	09aH
	DB	021H
	DB	01fH
	DB	066H
	DB	050H
	DB	01dH
	DB	01dH
	DB	045H
	DB	025H
	DB	025H
	DB	024H
	DB	024H
	DB	024H
	DB	024H
	DB	024H
	DB	024H
	DB	024H
	DB	024H
	DB	024H
	DB	031H
	DB	024H
	DB	024H
	DB	09cH
	DB	04fH
	DB	04bH
	DB	04bH
	DB	02H
	DB	09cH
	DB	04fH
	DB	025H
	DB	010H
	DB	025H
	DB	0f0H
	DB	041H
	DB	025H
	DB	07H
	DB	08H
	DB	024H
	DB	031H
	DB	09dH
	DB	025H
	DB	04eH
	DB	03aH
	DB	02bH
	DB	015H
	DB	015H
	DB	015H
	DB	010H
	DB	010H
	DB	032H
	DB	083H
	DB	04aH
	DB	01fH
	DB	023H
	DB	016H
	DB	012H
	DB	012H
	DB	012H
	DB	0caH
	DB	010H
	DB	011H
	DB	02H
	DB	02H
	DB	07H
	DB	07H
	DB	07H
	DB	07H
	DB	07H
	DB	07H
	DB	07H
	DB	07H
	DB	07H
	DB	07H
	DB	07H
	DB	07H
	DB	07H
	DB	07H
	DB	07H
	DB	07H
	DB	07H
	DB	07H
	DB	07H
	DB	07H
	DB	07H
	DB	07H
	DB	07H
	DB	07H
	DB	07H
	DB	07H
	DB	01H
	DB	01H
	DB	01H
	DB	01H
	DB	03H
	DB	02cH
	DB	099H
	DB	07H
	DB	07H
	DB	07H
	DB	07H
	DB	07H
	DB	07H
	DB	07H
	DB	07H
	DB	07H
	DB	07H
	DB	02H
	DB	01cH
	DB	086H
	DB	0aH
	DB	0aH
	DB	0aH
	DB	0aH
	DB	0aH
	DB	0aH
	DB	0aH
	DB	0aH
	DB	0aH
	DB	0aH
	DB	0e9H
	DB	0e9H
	DB	0e9H
	DB	0e9H
	DB	0dH
	DB	0dH
	DB	02cH
	DB	0bH
	DB	0bH
	DB	0bH
	DB	0bH
	DB	02cH
	DB	0dH
	DB	0e9H
	DB	0aH
	DB	086H
	DB	05H
	DB	05H
	DB	057H
	DB	04H
	DB	04H
	DB	04H
	DB	01H
	DB	02dH
	DB	09H
	DB	09H
	DB	09H
	DB	09H
	DB	09H
	DB	09H
	DB	020H
	DB	01H
	DB	03H
	DB	03H
	DB	03H
	DB	03H
	DB	03H
	DB	03H
	DB	03H
	DB	03H
	DB	044H
	DB	044H
	DB	044H
	DB	044H
	DB	04H
	DB	044H
	DB	01H
	DB	02fH
	DB	09H
	DB	09H
	DB	09H
	DB	09H
	DB	09H
	DB	033H
	DB	01H
	DB	03H
	DB	044H
	DB	044H
	DB	044H
	DB	044H
	DB	04H
	DB	044H
	DB	01H
	DB	026H
	DB	09H
	DB	09H
	DB	09H
	DB	09H
	DB	09H
	DB	02dH
	DB	01H
	DB	01H
	DB	01H
	DB	01H
	DB	01H
	DB	01H
	DB	01H
	DB	01H
	DB	01H
	DB	01H
	DB	01H
	DB	01H
	DB	01H
	DB	01H
	DB	0c4H
	DB	03H
	DB	044H
	DB	04H
	DB	04H
	DB	04H
	DB	03H
	DB	01H
	DB	01H
	DB	036H
	DB	030H
	DB	02fH
	DB	09H
	DB	09H
	DB	09H
	DB	09H
	DB	09H
	DB	09H
	DB	026H
	DB	036H
	DB	086H
	DB	0bH
	DB	0bH
	DB	02cH
	DB	0aH
	DB	044H
	DB	02eH
	DB	01H
	DB	020H
	DB	02dH
	DB	026H
	DB	09H
	DB	09H
	DB	09H
	DB	09H
	DB	09H
	DB	09H
	DB	033H
	DB	03H
	DB	0efH
	DB	0e0H
	DB	0e0H
	DB	0eH
	DB	0eH
	DB	0eH
	DB	0eH
	DB	0eH
	DB	0eH
	DB	0eH
	DB	0eH
	DB	0eH
	DB	0eH
	DB	0eH
	DB	0eH
	DB	0eH
	DB	0efH
	DB	0efH
	DB	0efH
	DB	0efH
	DB	0efH
	DB	0efH
	DB	0efH
	DB	0dfH
	DB	0dfH
	DB	0dfH
	DB	0dfH
	DB	0dfH
	DB	0dfH
	DB	0acH
	DB	02bH
	DB	03fH
	DB	03fH
	DB	03bH
	DB	05H
	DB	04H
	DB	053H
	DB	04eH
	DB	01fH
	DB	0baH
	DB	016H
	DB	012H
	DB	016H
	DB	0a6H
	DB	069H
	DB	02bH
	DB	04bH
	DB	02H
	DB	02H
	DB	02H
	DB	02H
	DB	011H
	DB	010H
	DB	025H
	DB	08eH
	DB	054H
	DB	047H
	DB	035H
	DB	016H
	DB	09aH
	DB	09aH
	DB	09aH
	DB	012H
	DB	09aH
	DB	021H
	DB	01fH
	DB	04eH
	DB	08dH
	DB	01dH
	DB	01dH
	DB	01dH
	DB	0b6H
	DB	032H
	DB	06dH
	DB	024H
	DB	024H
	DB	024H
	DB	024H
	DB	024H
	DB	024H
	DB	024H
	DB	024H
	DB	024H
	DB	024H
	DB	024H
	DB	06eH
	DB	08H
	DB	06dH
	DB	02H
	DB	08H
	DB	06cH
	DB	025H
	DB	048H
	DB	02bH
	DB	0caH
	DB	069H
	DB	04cH
	DB	032H
	DB	010H
	DB	02H
	DB	06cH
	DB	0a5H
	DB	0a5H
	DB	025H
	DB	048H
	DB	090H
	DB	02bH
	DB	015H
	DB	015H
	DB	010H
	DB	010H
	DB	010H
	DB	015H
	DB	073H
	DB	058H
	DB	03eH
	DB	023H
	DB	016H
	DB	012H
	DB	012H
	DB	012H
	DB	07dH
	DB	010H
	DB	011H
	DB	011H
	DB	02H
	DB	02H
	DB	07H
	DB	07H
	DB	07H
	DB	07H
	DB	07H
	DB	07H
	DB	07H
	DB	07H
	DB	07H
	DB	07H
	DB	07H
	DB	07H
	DB	07H
	DB	07H
	DB	07H
	DB	07H
	DB	07H
	DB	07H
	DB	07H
	DB	07H
	DB	07H
	DB	07H
	DB	07H
	DB	07H
	DB	07H
	DB	01H
	DB	01H
	DB	01H
	DB	01H
	DB	03H
	DB	02cH
	DB	099H
	DB	07H
	DB	07H
	DB	07H
	DB	07H
	DB	07H
	DB	07H
	DB	07H
	DB	07H
	DB	07H
	DB	07H
	DB	02H
	DB	01cH
	DB	086H
	DB	0aH
	DB	0aH
	DB	0aH
	DB	0aH
	DB	0aH
	DB	0aH
	DB	0aH
	DB	0aH
	DB	0aH
	DB	0e9H
	DB	0e9H
	DB	0e9H
	DB	0e9H
	DB	0e9H
	DB	0dH
	DB	0dH
	DB	02cH
	DB	0aeH
	DB	0bH
	DB	0bH
	DB	0bH
	DB	0bH
	DB	02cH
	DB	0dH
	DB	0e9H
	DB	0aH
	DB	086H
	DB	05H
	DB	05H
	DB	057H
	DB	057H
	DB	04H
	DB	01H
	DB	02dH
	DB	09H
	DB	09H
	DB	09H
	DB	09H
	DB	09H
	DB	09H
	DB	020H
	DB	02eH
	DB	03H
	DB	044H
	DB	044H
	DB	044H
	DB	044H
	DB	044H
	DB	044H
	DB	044H
	DB	044H
	DB	044H
	DB	044H
	DB	044H
	DB	04H
	DB	044H
	DB	01H
	DB	02fH
	DB	09H
	DB	09H
	DB	09H
	DB	09H
	DB	09H
	DB	033H
	DB	01H
	DB	03H
	DB	044H
	DB	044H
	DB	044H
	DB	044H
	DB	044H
	DB	044H
	DB	01H
	DB	02fH
	DB	09H
	DB	09H
	DB	09H
	DB	09H
	DB	09H
	DB	033H
	DB	01H
	DB	0c4H
	DB	0c4H
	DB	0c4H
	DB	0c4H
	DB	0c4H
	DB	0c4H
	DB	0c4H
	DB	0c4H
	DB	0c4H
	DB	0c4H
	DB	0c4H
	DB	0c4H
	DB	03H
	DB	03H
	DB	044H
	DB	04H
	DB	04H
	DB	057H
	DB	057H
	DB	04H
	DB	04H
	DB	044H
	DB	03H
	DB	01H
	DB	01H
	DB	030H
	DB	09H
	DB	09H
	DB	09H
	DB	09H
	DB	09H
	DB	09H
	DB	020H
	DB	057H
	DB	0dfH
	DB	0dfH
	DB	0dfH
	DB	0aeH
	DB	0dH
	DB	0aH
	DB	05H
	DB	044H
	DB	01H
	DB	01H
	DB	02fH
	DB	09H
	DB	09H
	DB	09H
	DB	09H
	DB	09H
	DB	02fH
	DB	0c4H
	DB	0bH
	DB	0e0H
	DB	0e0H
	DB	0e0H
	DB	0e0H
	DB	0e0H
	DB	0e0H
	DB	0eH
	DB	0eH
	DB	0eH
	DB	0eH
	DB	0eH
	DB	0eH
	DB	0eH
	DB	0eH
	DB	0eH
	DB	0eH
	DB	0eH
	DB	0eH
	DB	0efH
	DB	0efH
	DB	0efH
	DB	0efH
	DB	0efH
	DB	0efH
	DB	0dfH
	DB	0dfH
	DB	0dfH
	DB	0bH
	DB	02bH
	DB	03fH
	DB	07eH
	DB	050H
	DB	086H
	DB	05H
	DB	057H
	DB	04H
	DB	073H
	DB	01fH
	DB	01fH
	DB	028H
	DB	012H
	DB	012H
	DB	028H
	DB	0a6H
	DB	052H
	DB	025H
	DB	011H
	DB	02H
	DB	02H
	DB	02H
	DB	011H
	DB	011H
	DB	010H
	DB	03bH
	DB	0c9H
	DB	021H
	DB	021H
	DB	016H
	DB	09aH
	DB	09aH
	DB	012H
	DB	012H
	DB	016H
	DB	06aH
	DB	01fH
	DB	041H
	DB	08aH
	DB	01dH
	DB	01dH
	DB	01dH
	DB	01dH
	DB	0b5H
	DB	03bH
	DB	06cH
	DB	024H
	DB	024H
	DB	024H
	DB	031H
	DB	024H
	DB	024H
	DB	024H
	DB	031H
	DB	024H
	DB	06cH
	DB	08cH
	DB	024H
	DB	024H
	DB	024H
	DB	09cH
	DB	04fH
	DB	03bH
	DB	063H
	DB	03dH
	DB	03eH
	DB	03eH
	DB	03dH
	DB	04eH
	DB	03bH
	DB	025H
	DB	03bH
	DB	03bH
	DB	03fH
	DB	041H
	DB	0c9H
	DB	098H
	DB	03bH
	DB	015H
	DB	010H
	DB	010H
	DB	010H
	DB	010H
	DB	010H
	DB	025H
	DB	083H
	DB	03eH
	DB	023H
	DB	021H
	DB	016H
	DB	012H
	DB	012H
	DB	012H
	DB	0c9H
	DB	010H
	DB	011H
	DB	02H
	DB	02H
	DB	07H
	DB	07H
	DB	07H
	DB	07H
	DB	07H
	DB	07H
	DB	07H
	DB	07H
	DB	07H
	DB	07H
	DB	07H
	DB	07H
	DB	07H
	DB	07H
	DB	07H
	DB	07H
	DB	07H
	DB	07H
	DB	07H
	DB	07H
	DB	07H
	DB	07H
	DB	07H
	DB	07H
	DB	07H
	DB	01H
	DB	01H
	DB	01H
	DB	01H
	DB	03H
	DB	02cH
	DB	099H
	DB	07H
	DB	07H
	DB	07H
	DB	07H
	DB	07H
	DB	07H
	DB	07H
	DB	07H
	DB	07H
	DB	07H
	DB	02H
	DB	01cH
	DB	086H
	DB	0e9H
	DB	0aH
	DB	0aH
	DB	0aH
	DB	0aH
	DB	0aH
	DB	0aH
	DB	0e9H
	DB	0e9H
	DB	0e9H
	DB	0e9H
	DB	0e9H
	DB	0a2H
	DB	0dH
	DB	0dH
	DB	0dH
	DB	02cH
	DB	02cH
	DB	0bH
	DB	0bH
	DB	0dfH
	DB	0bH
	DB	0bH
	DB	0dH
	DB	0a2H
	DB	0e9H
	DB	0aH
	DB	086H
	DB	05H
	DB	05H
	DB	057H
	DB	057H
	DB	02eH
	DB	02dH
	DB	09H
	DB	09H
	DB	09H
	DB	09H
	DB	09H
	DB	09H
	DB	020H
	DB	02eH
	DB	044H
	DB	044H
	DB	04H
	DB	044H
	DB	044H
	DB	044H
	DB	044H
	DB	04H
	DB	04H
	DB	04H
	DB	04H
	DB	04H
	DB	04H
	DB	044H
	DB	01H
	DB	02fH
	DB	09H
	DB	09H
	DB	09H
	DB	09H
	DB	09H
	DB	033H
	DB	01H
	DB	044H
	DB	044H
	DB	04H
	DB	04H
	DB	04H
	DB	04H
	DB	04H
	DB	02eH
	DB	030H
	DB	09H
	DB	09H
	DB	09H
	DB	09H
	DB	09H
	DB	026H
	DB	01H
	DB	0c4H
	DB	03H
	DB	03H
	DB	03H
	DB	03H
	DB	03H
	DB	03H
	DB	03H
	DB	03H
	DB	03H
	DB	03H
	DB	03H
	DB	03H
	DB	044H
	DB	04H
	DB	04H
	DB	05H
	DB	05H
	DB	05H
	DB	05H
	DB	05H
	DB	057H
	DB	04H
	DB	04H
	DB	044H
	DB	01H
	DB	02fH
	DB	09H
	DB	09H
	DB	09H
	DB	09H
	DB	09H
	DB	020H
	DB	057H
	DB	0efH
	DB	0eH
	DB	0eH
	DB	0efH
	DB	0dfH
	DB	02cH
	DB	0dH
	DB	0e9H
	DB	086H
	DB	044H
	DB	036H
	DB	09H
	DB	09H
	DB	09H
	DB	09H
	DB	09H
	DB	02fH
	DB	01H
	DB	0bH
	DB	0e0H
	DB	0e0H
	DB	0e0H
	DB	0e0H
	DB	0e0H
	DB	0e0H
	DB	0e0H
	DB	0e0H
	DB	0e0H
	DB	0eH
	DB	0eH
	DB	0eH
	DB	0eH
	DB	0eH
	DB	0eH
	DB	0eH
	DB	0eH
	DB	0eH
	DB	0eH
	DB	0eH
	DB	0eH
	DB	0efH
	DB	0efH
	DB	0efH
	DB	0efH
	DB	0efH
	DB	0dfH
	DB	0acH
	DB	050H
	DB	079H
	DB	0c0H
	DB	02bH
	DB	086H
	DB	05H
	DB	057H
	DB	057H
	DB	048H
	DB	063H
	DB	01fH
	DB	0a6H
	DB	012H
	DB	012H
	DB	016H
	DB	023H
	DB	028H
	DB	041H
	DB	010H
	DB	011H
	DB	02H
	DB	02H
	DB	02H
	DB	011H
	DB	010H
	DB	015H
	DB	098H
	DB	021H
	DB	047H
	DB	016H
	DB	09aH
	DB	09aH
	DB	09aH
	DB	012H
	DB	076H
	DB	01fH
	DB	03dH
	DB	073H
	DB	050H
	DB	045H
	DB	01dH
	DB	01dH
	DB	01dH
	DB	075H
	DB	03bH
	DB	025H
	DB	06cH
	DB	08H
	DB	08H
	DB	024H
	DB	024H
	DB	08H
	DB	024H
	DB	024H
	DB	08H
	DB	06eH
	DB	09cH
	DB	024H
	DB	024H
	DB	09cH
	DB	04dH
	DB	03fH
	DB	066H
	DB	03eH
	DB	04aH
	DB	03eH
	DB	03eH
	DB	068H
	DB	069H
	DB	069H
	DB	069H
	DB	069H
	DB	068H
	DB	0baH
	DB	023H
	DB	021H
	DB	0dbH
	DB	048H
	DB	015H
	DB	010H
	DB	010H
	DB	011H
	DB	011H
	DB	010H
	DB	010H
	DB	0caH
	DB	05fH
	DB	03eH
	DB	023H
	DB	016H
	DB	012H
	DB	012H
	DB	012H
	DB	090H
	DB	010H
	DB	011H
	DB	02H
	DB	02H
	DB	02H
	DB	07H
	DB	07H
	DB	07H
	DB	07H
	DB	07H
	DB	07H
	DB	07H
	DB	07H
	DB	07H
	DB	07H
	DB	07H
	DB	07H
	DB	07H
	DB	07H
	DB	07H
	DB	07H
	DB	07H
	DB	07H
	DB	07H
	DB	07H
	DB	07H
	DB	07H
	DB	07H
	DB	07H
	DB	01H
	DB	01H
	DB	01H
	DB	01H
	DB	03H
	DB	02cH
	DB	099H
	DB	07H
	DB	07H
	DB	07H
	DB	07H
	DB	07H
	DB	07H
	DB	07H
	DB	07H
	DB	07H
	DB	07H
	DB	02H
	DB	01cH
	DB	086H
	DB	0e9H
	DB	0aH
	DB	0aH
	DB	0aH
	DB	0aH
	DB	0aH
	DB	0aH
	DB	0e9H
	DB	0e9H
	DB	0e9H
	DB	0e9H
	DB	0a2H
	DB	0dH
	DB	0dH
	DB	0dH
	DB	0dH
	DB	02cH
	DB	02cH
	DB	0bH
	DB	0bH
	DB	0dfH
	DB	0dfH
	DB	0bH
	DB	02cH
	DB	0dH
	DB	0a2H
	DB	0e9H
	DB	0aH
	DB	086H
	DB	05H
	DB	05H
	DB	057H
	DB	02eH
	DB	02dH
	DB	09H
	DB	09H
	DB	09H
	DB	09H
	DB	09H
	DB	09H
	DB	020H
	DB	02eH
	DB	044H
	DB	04H
	DB	04H
	DB	04H
	DB	04H
	DB	04H
	DB	04H
	DB	04H
	DB	04H
	DB	04H
	DB	04H
	DB	04H
	DB	04H
	DB	044H
	DB	01H
	DB	02fH
	DB	09H
	DB	09H
	DB	09H
	DB	09H
	DB	09H
	DB	033H
	DB	01H
	DB	044H
	DB	044H
	DB	04H
	DB	04H
	DB	04H
	DB	04H
	DB	04H
	DB	02eH
	DB	036H
	DB	09H
	DB	09H
	DB	09H
	DB	09H
	DB	09H
	DB	09H
	DB	02dH
	DB	01H
	DB	03H
	DB	044H
	DB	044H
	DB	044H
	DB	044H
	DB	044H
	DB	044H
	DB	03H
	DB	02eH
	DB	01H
	DB	01H
	DB	044H
	DB	04H
	DB	04H
	DB	04H
	DB	03H
	DB	04H
	DB	05H
	DB	086H
	DB	086H
	DB	086H
	DB	086H
	DB	086H
	DB	05H
	DB	01H
	DB	033H
	DB	09H
	DB	09H
	DB	09H
	DB	09H
	DB	09H
	DB	020H
	DB	05H
	DB	0e9H
	DB	086H
	DB	0bH
	DB	0f4H
	DB	0faH
	DB	0e0H
	DB	0eH
	DB	0dfH
	DB	0bH
	DB	086H
	DB	036H
	DB	026H
	DB	09H
	DB	09H
	DB	09H
	DB	09H
	DB	02fH
	DB	0c4H
	DB	02cH
	DB	0e0H
	DB	0faH
	DB	0e0H
	DB	0e0H
	DB	0e0H
	DB	0e0H
	DB	0e0H
	DB	0e0H
	DB	0e0H
	DB	0e0H
	DB	0e0H
	DB	0eH
	DB	0eH
	DB	0eH
	DB	0eH
	DB	0eH
	DB	0eH
	DB	0eH
	DB	0eH
	DB	0eH
	DB	0eH
	DB	0efH
	DB	0efH
	DB	0efH
	DB	0efH
	DB	0efH
	DB	0bH
	DB	02bH
	DB	064H
	DB	0afH
	DB	03fH
	DB	05H
	DB	05H
	DB	05H
	DB	05H
	DB	05H
	DB	053H
	DB	04cH
	DB	01fH
	DB	023H
	DB	016H
	DB	012H
	DB	012H
	DB	028H
	DB	023H
	DB	069H
	DB	02bH
	DB	010H
	DB	02H
	DB	02H
	DB	02H
	DB	011H
	DB	011H
	DB	010H
	DB	097H
	DB	021H
	DB	047H
	DB	016H
	DB	09aH
	DB	09aH
	DB	09aH
	DB	016H
	DB	021H
	DB	01fH
	DB	063H
	DB	072H
	DB	0b9H
	DB	050H
	DB	045H
	DB	01dH
	DB	01dH
	DB	018H
	DB	094H
	DB	025H
	DB	025H
	DB	04fH
	DB	06eH
	DB	06dH
	DB	06cH
	DB	06cH
	DB	06cH
	DB	06cH
	DB	04dH
	DB	04dH
	DB	09cH
	DB	06cH
	DB	04dH
	DB	03fH
	DB	04cH
	DB	05fH
	DB	04aH
	DB	03eH
	DB	01fH
	DB	01fH
	DB	023H
	DB	023H
	DB	021H
	DB	069H
	DB	069H
	DB	069H
	DB	023H
	DB	023H
	DB	023H
	DB	023H
	DB	052H
	DB	048H
	DB	015H
	DB	010H
	DB	010H
	DB	011H
	DB	011H
	DB	011H
	DB	010H
	DB	025H
	DB	063H
	DB	01fH
	DB	023H
	DB	076H
	DB	012H
	DB	012H
	DB	012H
	DB	03aH
	DB	02bH
	DB	010H
	DB	011H
	DB	02H
	DB	02H
	DB	07H
	DB	07H
	DB	07H
	DB	07H
	DB	07H
	DB	07H
	DB	07H
	DB	07H
	DB	07H
	DB	07H
	DB	07H
	DB	07H
	DB	07H
	DB	07H
	DB	07H
	DB	07H
	DB	07H
	DB	07H
	DB	07H
	DB	07H
	DB	07H
	DB	07H
	DB	07H
	DB	07H
	DB	01H
	DB	01H
	DB	01H
	DB	01H
	DB	03H
	DB	02cH
	DB	099H
	DB	07H
	DB	07H
	DB	07H
	DB	07H
	DB	07H
	DB	07H
	DB	07H
	DB	07H
	DB	07H
	DB	07H
	DB	02H
	DB	01cH
	DB	086H
	DB	0e9H
	DB	0aH
	DB	0aH
	DB	0aH
	DB	0aH
	DB	0e9H
	DB	0e9H
	DB	0e9H
	DB	0e9H
	DB	0e9H
	DB	0a2H
	DB	0dH
	DB	0dH
	DB	0dH
	DB	0dH
	DB	02cH
	DB	02cH
	DB	0aeH
	DB	0bH
	DB	0bH
	DB	0dfH
	DB	0dfH
	DB	0dfH
	DB	0bH
	DB	02cH
	DB	0dH
	DB	0dH
	DB	0e9H
	DB	0aH
	DB	0aH
	DB	086H
	DB	05H
	DB	02eH
	DB	02dH
	DB	09H
	DB	09H
	DB	09H
	DB	09H
	DB	09H
	DB	09H
	DB	020H
	DB	02eH
	DB	044H
	DB	04H
	DB	04H
	DB	04H
	DB	04H
	DB	04H
	DB	04H
	DB	04H
	DB	04H
	DB	04H
	DB	04H
	DB	04H
	DB	04H
	DB	044H
	DB	01H
	DB	02fH
	DB	09H
	DB	09H
	DB	09H
	DB	09H
	DB	09H
	DB	033H
	DB	01H
	DB	044H
	DB	044H
	DB	04H
	DB	04H
	DB	04H
	DB	04H
	DB	04H
	DB	044H
	DB	01H
	DB	033H
	DB	09H
	DB	09H
	DB	09H
	DB	09H
	DB	09H
	DB	09H
	DB	02dH
	DB	01H
	DB	01H
	DB	02eH
	DB	02eH
	DB	02eH
	DB	01H
	DB	01H
	DB	036H
	DB	030H
	DB	02fH
	DB	020H
	DB	02eH
	DB	057H
	DB	057H
	DB	0c4H
	DB	020H
	DB	036H
	DB	02eH
	DB	044H
	DB	057H
	DB	05H
	DB	05H
	DB	057H
	DB	02eH
	DB	036H
	DB	026H
	DB	09H
	DB	09H
	DB	09H
	DB	09H
	DB	026H
	DB	036H
	DB	057H
	DB	036H
	DB	020H
	DB	01H
	DB	044H
	DB	0abH
	DB	0bH
	DB	0bH
	DB	0aeH
	DB	05H
	DB	02eH
	DB	02dH
	DB	09H
	DB	09H
	DB	09H
	DB	09H
	DB	09H
	DB	02dH
	DB	03H
	DB	0bH
	DB	0eH
	DB	0faH
	DB	0faH
	DB	0faH
	DB	0faH
	DB	0faH
	DB	0e0H
	DB	0e0H
	DB	0e0H
	DB	0e0H
	DB	0e0H
	DB	0e0H
	DB	0e0H
	DB	0eH
	DB	0eH
	DB	0eH
	DB	0eH
	DB	0eH
	DB	0eH
	DB	0eH
	DB	0eH
	DB	0eH
	DB	0eH
	DB	0efH
	DB	0efH
	DB	0efH
	DB	0dH
	DB	03fH
	DB	059H
	DB	079H
	DB	02bH
	DB	086H
	DB	05H
	DB	05H
	DB	05H
	DB	086H
	DB	057H
	DB	02bH
	DB	01fH
	DB	01fH
	DB	0a6H
	DB	012H
	DB	012H
	DB	012H
	DB	0a6H
	DB	0a6H
	DB	0a0H
	DB	025H
	DB	011H
	DB	02H
	DB	02H
	DB	011H
	DB	011H
	DB	010H
	DB	085H
	DB	021H
	DB	028H
	DB	016H
	DB	09aH
	DB	09aH
	DB	09aH
	DB	016H
	DB	023H
	DB	01fH
	DB	063H
	DB	048H
	DB	078H
	DB	061H
	DB	050H
	DB	075H
	DB	018H
	DB	018H
	DB	061H
	DB	03bH
	DB	025H
	DB	025H
	DB	025H
	DB	025H
	DB	04dH
	DB	04dH
	DB	04dH
	DB	025H
	DB	032H
	DB	03bH
	DB	07eH
	DB	07aH
	DB	055H
	DB	068H
	DB	04aH
	DB	03eH
	DB	01fH
	DB	023H
	DB	06aH
	DB	021H
	DB	047H
	DB	016H
	DB	016H
	DB	016H
	DB	047H
	DB	028H
	DB	028H
	DB	028H
	DB	028H
	DB	0a6H
	DB	0a0H
	DB	032H
	DB	015H
	DB	010H
	DB	011H
	DB	011H
	DB	011H
	DB	011H
	DB	011H
	DB	010H
	DB	073H
	DB	06aH
	DB	0a6H
	DB	028H
	DB	012H
	DB	09aH
	DB	09aH
	DB	012H
	DB	060H
	DB	010H
	DB	011H
	DB	02H
	DB	02H
	DB	07H
	DB	07H
	DB	07H
	DB	07H
	DB	07H
	DB	07H
	DB	07H
	DB	07H
	DB	07H
	DB	07H
	DB	07H
	DB	07H
	DB	07H
	DB	07H
	DB	07H
	DB	07H
	DB	07H
	DB	07H
	DB	07H
	DB	07H
	DB	07H
	DB	07H
	DB	07H
	DB	07H
	DB	01H
	DB	01H
	DB	01H
	DB	01H
	DB	03H
	DB	02cH
	DB	099H
	DB	07H
	DB	07H
	DB	07H
	DB	07H
	DB	07H
	DB	07H
	DB	07H
	DB	07H
	DB	07H
	DB	07H
	DB	02H
	DB	01cH
	DB	086H
	DB	0e9H
	DB	0aH
	DB	0aH
	DB	0e9H
	DB	0e9H
	DB	0e9H
	DB	0e9H
	DB	0e9H
	DB	0e9H
	DB	0a2H
	DB	0dH
	DB	0dH
	DB	0dH
	DB	0dH
	DB	02cH
	DB	02cH
	DB	02cH
	DB	0bH
	DB	0bH
	DB	0bH
	DB	0dfH
	DB	0efH
	DB	0efH
	DB	0dfH
	DB	0bH
	DB	0aeH
	DB	02cH
	DB	0dH
	DB	0a2H
	DB	0e9H
	DB	0aH
	DB	086H
	DB	02eH
	DB	02dH
	DB	09H
	DB	09H
	DB	09H
	DB	09H
	DB	09H
	DB	09H
	DB	020H
	DB	02eH
	DB	044H
	DB	04H
	DB	04H
	DB	04H
	DB	04H
	DB	04H
	DB	04H
	DB	04H
	DB	04H
	DB	04H
	DB	04H
	DB	04H
	DB	04H
	DB	044H
	DB	01H
	DB	02fH
	DB	09H
	DB	09H
	DB	09H
	DB	09H
	DB	09H
	DB	033H
	DB	01H
	DB	044H
	DB	044H
	DB	04H
	DB	04H
	DB	04H
	DB	04H
	DB	04H
	DB	04H
	DB	02eH
	DB	036H
	DB	026H
	DB	09H
	DB	09H
	DB	09H
	DB	09H
	DB	09H
	DB	09H
	DB	026H
	DB	02dH
	DB	030H
	DB	030H
	DB	030H
	DB	02dH
	DB	02fH
	DB	026H
	DB	09H
	DB	09H
	DB	02dH
	DB	02eH
	DB	057H
	DB	057H
	DB	01H
	DB	026H
	DB	09H
	DB	033H
	DB	030H
	DB	036H
	DB	01H
	DB	01H
	DB	020H
	DB	02dH
	DB	026H
	DB	09H
	DB	09H
	DB	09H
	DB	09H
	DB	09H
	DB	033H
	DB	02eH
	DB	04H
	DB	020H
	DB	09H
	DB	02fH
	DB	02dH
	DB	020H
	DB	036H
	DB	01H
	DB	036H
	DB	030H
	DB	033H
	DB	09H
	DB	09H
	DB	09H
	DB	09H
	DB	09H
	DB	09H
	DB	020H
	DB	04H
	DB	0bH
	DB	0eH
	DB	0f4H
	DB	0f4H
	DB	0f4H
	DB	0f4H
	DB	0f4H
	DB	0faH
	DB	0faH
	DB	0faH
	DB	0e0H
	DB	0e0H
	DB	0e0H
	DB	0e0H
	DB	0e0H
	DB	0e0H
	DB	0e0H
	DB	0eH
	DB	0eH
	DB	0eH
	DB	0eH
	DB	0eH
	DB	0eH
	DB	0eH
	DB	0eH
	DB	0eH
	DB	0edH
	DB	02bH
	DB	0afH
