; Listing generated by Microsoft (R) Optimizing Compiler Version 16.00.40219.01 

	TITLE	C:\DUII\DUII\Graphics\DriveMode.c
	.686P
	.XMM
	include listing.inc
	.model	flat

INCLUDELIB LIBCMT
INCLUDELIB OLDNAMES

PUBLIC	_bmDriveMode
CONST	SEGMENT
_ColorsDriveMode DD 00H
	DD	0414142H
	DD	0fcfcfcH
	DD	0363637H
	DD	0292829H
	DD	0959595H
	DD	0b7b7b7H
	DD	0e8e8e8H
	DD	0595959H
	DD	0e8f6f9H
	DD	0d7d7d7H
	DD	041fefeH
	DD	0c7c7c7H
	DD	0171717H
	DD	0b0e9f2H
	DD	0a7a8a8H
	DD	0777777H
	DD	0868686H
	DD	0666666H
	DD	0c7e6f0H
	DD	03e3e40H
	DD	02e2e30H
	DD	0d9f6faH
	DD	02f3defH
	DD	02532ccH
	DD	03cf8fcH
	DD	03241f8H
	DD	073ced3H
	DD	098ebf3H
	DD	01a4849H
	DD	0241b1bH
	DD	091aeadH
	DD	0c9f7fbH
	DD	0c7d5daH
	DD	02ab7baH
	DD	088ecf4H
	DD	01c27a9H
	DD	0b7c5c7H
	DD	0c7e3eaH
	DD	0413b3cH
	DD	036e4e8H
	DD	051d3eaH
	DD	0b1315H
	DD	0183839H
	DD	0352a2aH
	DD	0141950H
	DD	01a2290H
	DD	06fb0b0H
	DD	079eaf6H
	DD	088d4d7H
	DD	097d6d8H
	DD	0b4d8e5H
	DD	0d7e8ebH
	DD	01a1b23H
	DD	0233334H
	DD	024979aH
	DD	026a4a7H
	DD	02ec5c8H
	DD	0c3dbe4H
	DD	01c2425H
	DD	088c7c9H
	DD	0a8c4c8H
	DD	032d6d9H
	DD	097c5c8H
	DD	0c6cdd2H
	DD	033332cH
	DD	0161c6cH
	DD	028aeb2H
	DD	079f3fbH
	DD	0a7b6b8H
	DD	036ebf5H
	DD	076d7e5H
	DD	041413dH
	DD	0218688H
	DD	0d0e13H
	DD	01a5759H
	DD	0141da4H
	DD	0324dcfH
	DD	04c6dd5H
	DD	0c2bcbcH
	DD	095cbd5H
	DD	0b5d7d9H
	DD	08cd9e2H
	DD	01a6567H
	DD	04c4e50H
	DD	0232eb4H
	DD	035dbe2H
	DD	069dbe5H
	DD	067f2f9H
	DD	0a3d5d9H
	DD	083f3fcH
	DD	0140a0aH
	DD	076e4e9H
	DD	068e7f6H
	DD	0879497H
	DD	08ebbc6H
	DD	0a6bdc5H
	DD	0e2dbd8H
	DD	0d9ebf4H
	DD	026251dH
	DD	0171935H
	DD	0e2728H
	DD	04655d6H
	DD	057e4ebH
	DD	08f97a8H
	DD	0b2acacH
	DD	089cbd2H
	DD	0b3cbd4H
	DD	098f6faH
	DD	01c7779H
	DD	04a5657H
	DD	05a6568H
	DD	02cbec1H
	DD	030ced1H
	DD	057e8f7H
	DD	069e5ecH
	DD	0a8aeb0H
	DD	0a5ccd2H
	DD	086e4ecH
	DD	0403f40H
	DD	06a77d4H
	DD	05468e5H
	DD	01e8587H
	DD	0798ab1H
	DD	04eb0d2H
	DD	0d2cbcbH
	DD	0231f20H
	DD	01e2537H
	DD	03b4042H
	DD	05a5f61H
	DD	01d27c4H
	DD	06978e5H
	DD	0269da0H
	DD	049a5a5H
	DD	06987d0H
	DD	07abadbH
	DD	06f8be4H
	DD	030c8cbH
	DD	02fcdd1H
	DD	05bcbcbH
	DD	04ae2ebH
	DD	092aaebH
	DD	0a6e2ddH
	DD	0d5dee3H
	DD	0f7eceaH
	DD	0e6eef3H
	DD	0f3435H
	DD	0362f30H
	DD	0224749H
	DD	06f6f70H
	DD	06a7475H
	DD	053758fH
	DD	04758e3H
	DD	07c8683H
	DD	06e9195H
	DD	06bbdc3H
	DD	07dbcc1H
	DD	05d8ee1H
	DD	02dd3dbH
	DD	03ad5f2H
	DD	02fe9f9H
	DD	04ac7c7H
	DD	047d9ddH
	DD	071cde1H
	DD	041e8f5H
	DD	055f8feH
	DD	0918b8bH
	DD	0c5c0bfH
	DD	0babfc2H
	DD	0abb6f2H
	DD	086e1d7H
	DD	09be3eaH
	DD	0e5e1dbH
	DD	0c9c5f4H
	DD	0f6eff1H
	DD	019180fH
	DD	0200f10H
	DD	0d0e20H
	DD	0c0f34H
	DD	0d1038H
	DD	0f2f30H
	DD	02f302dH
	DD	01c3f40H
	DD	02e3c41H
	DD	02e3158H
	DD	018207cH
	DD	0f4446H
	DD	01c4e50H
	DD	0284d50H
	DD	0315b5eH
	DD	0365f62H
	DD	021696cH
	DD	0207778H
	DD	0514c4aH
	DD	04b5146H
	DD	059675fH
	DD	0424761H
	DD	0454b7bH
	DD	04e6267H
	DD	0586c71H
	DD	046767aH
	DD	0557175H
	DD	0716666H
	DD	0637269H
	DD	080807fH
	DD	0161f87H
	DD	0171f8aH
	DD	01d7f82H
	DD	03241b7H
	DD	04e5a96H
	DD	07f7f80H
	DD	04e59a2H
	DD	0707cb7H
	DD	01f77c1H
	DD	03c7fd3H
	DD	01f9094H
	DD	03eb4b4H
	DD	05d9298H
	DD	06d8081H
	DD	07f9298H
	DD	04caa9fH
	DD	0499aa0H
	DD	05badadH
	DD	05dadb3H
	DD	04eb6bbH
	DD	05ab3baH
	DD	02a9cc1H
	DD	031b8cfH
	DD	0358febH
	DD	02fbbf2H
	DD	060a2cbH
	DD	05ba2e1H
	DD	03eccedH
	DD	02ad7e3H
	DD	04ad0c7H
	DD	05dc8dbH
	DD	05ad1d8H
	DD	06ce0d5H
	DD	061c7e0H
	DD	077dff2H
	DD	090908fH
	DD	0878f90H
	DD	0a3b3abH
	DD	0b8b0afH
	DD	0acc5b8H
	DD	08f8ed8H
	DD	0a0a7daH
	DD	0969fe3H
	DD	0929cf4H
	DD	095d3cbH
	DD	0a8d7ceH
	DD	0d0d0cfH
	DD	0d5cfd1H
	DD	0c8d6f7H
	DD	0d5dcf7H
	DD	0f0f0efH
_PalDriveMode DD 0100H
	DB	00H
	ORG $+3
	DD	FLAT:_ColorsDriveMode
_bmDriveMode DW	07fH
	DW	073H
	DW	07fH
	DW	08H
	DD	FLAT:_acDriveMode
	DD	FLAT:_PalDriveMode
	ORG $+4
_acDriveMode DB	00H
	DB	00H
	DB	00H
	DB	00H
	DB	00H
	DB	00H
	DB	00H
	DB	00H
	DB	00H
	DB	00H
	DB	00H
	DB	00H
	DB	00H
	DB	00H
	DB	00H
	DB	00H
	DB	00H
	DB	00H
	DB	00H
	DB	00H
	DB	00H
	DB	00H
	DB	00H
	DB	00H
	DB	00H
	DB	00H
	DB	00H
	DB	00H
	DB	00H
	DB	00H
	DB	00H
	DB	00H
	DB	00H
	DB	00H
	DB	00H
	DB	00H
	DB	00H
	DB	00H
	DB	00H
	DB	00H
	DB	00H
	DB	00H
	DB	00H
	DB	00H
	DB	00H
	DB	00H
	DB	00H
	DB	00H
	DB	00H
	DB	00H
	DB	00H
	DB	00H
	DB	00H
	DB	00H
	DB	00H
	DB	00H
	DB	00H
	DB	00H
	DB	00H
	DB	00H
	DB	00H
	DB	00H
	DB	00H
	DB	00H
	DB	00H
	DB	00H
	DB	00H
	DB	00H
	DB	00H
	DB	00H
	DB	00H
	DB	00H
	DB	00H
	DB	00H
	DB	00H
	DB	00H
	DB	00H
	DB	00H
	DB	00H
	DB	00H
	DB	00H
	DB	00H
	DB	00H
	DB	00H
	DB	00H
	DB	00H
	DB	00H
	DB	00H
	DB	00H
	DB	00H
	DB	00H
	DB	00H
	DB	00H
	DB	00H
	DB	00H
	DB	00H
	DB	00H
	DB	00H
	DB	00H
	DB	00H
	DB	00H
	DB	00H
	DB	00H
	DB	00H
	DB	00H
	DB	00H
	DB	00H
	DB	00H
	DB	00H
	DB	00H
	DB	00H
	DB	00H
	DB	00H
	DB	00H
	DB	00H
	DB	00H
	DB	00H
	DB	00H
	DB	00H
	DB	00H
	DB	00H
	DB	00H
	DB	00H
	DB	00H
	DB	00H
	DB	00H
	DB	00H
	DB	00H
	DB	00H
	DB	00H
	DB	00H
	DB	00H
	DB	00H
	DB	00H
	DB	00H
	DB	00H
	DB	00H
	DB	00H
	DB	00H
	DB	00H
	DB	00H
	DB	00H
	DB	00H
	DB	00H
	DB	00H
	DB	00H
	DB	00H
	DB	00H
	DB	00H
	DB	00H
	DB	00H
	DB	00H
	DB	00H
	DB	00H
	DB	00H
	DB	00H
	DB	00H
	DB	00H
	DB	00H
	DB	00H
	DB	00H
	DB	00H
	DB	00H
	DB	00H
	DB	00H
	DB	00H
	DB	00H
	DB	00H
	DB	00H
	DB	00H
	DB	00H
	DB	00H
	DB	00H
	DB	00H
	DB	00H
	DB	00H
	DB	00H
	DB	00H
	DB	00H
	DB	00H
	DB	00H
	DB	00H
	DB	00H
	DB	00H
	DB	00H
	DB	00H
	DB	00H
	DB	00H
	DB	00H
	DB	00H
	DB	00H
	DB	00H
	DB	00H
	DB	00H
	DB	00H
	DB	00H
	DB	00H
	DB	00H
	DB	00H
	DB	00H
	DB	00H
	DB	00H
	DB	00H
	DB	00H
	DB	00H
	DB	00H
	DB	00H
	DB	00H
	DB	00H
	DB	00H
	DB	00H
	DB	00H
	DB	00H
	DB	00H
	DB	00H
	DB	00H
	DB	00H
	DB	00H
	DB	00H
	DB	00H
	DB	00H
	DB	00H
	DB	00H
	DB	00H
	DB	00H
	DB	00H
	DB	00H
	DB	00H
	DB	00H
	DB	00H
	DB	00H
	DB	00H
	DB	00H
	DB	00H
	DB	00H
	DB	00H
	DB	00H
	DB	00H
	DB	00H
	DB	00H
	DB	00H
	DB	00H
	DB	00H
	DB	00H
	DB	00H
	DB	00H
	DB	00H
	DB	00H
	DB	00H
	DB	00H
	DB	00H
	DB	00H
	DB	00H
	DB	00H
	DB	00H
	DB	00H
	DB	00H
	DB	00H
	DB	00H
	DB	00H
	DB	00H
	DB	00H
	DB	00H
	DB	00H
	DB	00H
	DB	00H
	DB	00H
	DB	00H
	DB	00H
	DB	00H
	DB	00H
	DB	00H
	DB	00H
	DB	00H
	DB	00H
	DB	00H
	DB	00H
	DB	00H
	DB	00H
	DB	00H
	DB	00H
	DB	00H
	DB	00H
	DB	00H
	DB	00H
	DB	00H
	DB	00H
	DB	00H
	DB	00H
	DB	00H
	DB	00H
	DB	00H
	DB	00H
	DB	00H
	DB	00H
	DB	00H
	DB	00H
	DB	00H
	DB	00H
	DB	00H
	DB	00H
	DB	00H
	DB	00H
	DB	00H
	DB	00H
	DB	00H
	DB	00H
	DB	00H
	DB	00H
	DB	00H
	DB	00H
	DB	00H
	DB	00H
	DB	00H
	DB	00H
	DB	00H
	DB	00H
	DB	00H
	DB	00H
	DB	00H
	DB	00H
	DB	00H
	DB	00H
	DB	00H
	DB	00H
	DB	00H
	DB	00H
	DB	00H
	DB	00H
	DB	00H
	DB	00H
	DB	00H
	DB	00H
	DB	00H
	DB	00H
	DB	00H
	DB	00H
	DB	00H
	DB	00H
	DB	00H
	DB	00H
	DB	0dH
	DB	04aH
	DB	00H
	DB	00H
	DB	00H
	DB	00H
	DB	00H
	DB	00H
	DB	00H
	DB	00H
	DB	00H
	DB	00H
	DB	00H
	DB	00H
	DB	00H
	DB	00H
	DB	00H
	DB	00H
	DB	00H
	DB	00H
	DB	00H
	DB	00H
	DB	00H
	DB	00H
	DB	00H
	DB	00H
	DB	00H
	DB	00H
	DB	00H
	DB	00H
	DB	00H
	DB	00H
	DB	00H
	DB	00H
	DB	00H
	DB	00H
	DB	00H
	DB	00H
	DB	00H
	DB	00H
	DB	00H
	DB	00H
	DB	00H
	DB	00H
	DB	00H
	DB	00H
	DB	00H
	DB	00H
	DB	00H
	DB	00H
	DB	00H
	DB	00H
	DB	00H
	DB	00H
	DB	00H
	DB	00H
	DB	00H
	DB	00H
	DB	00H
	DB	00H
	DB	00H
	DB	00H
	DB	00H
	DB	00H
	DB	00H
	DB	00H
	DB	00H
	DB	00H
	DB	00H
	DB	00H
	DB	00H
	DB	00H
	DB	00H
	DB	00H
	DB	00H
	DB	00H
	DB	00H
	DB	00H
	DB	00H
	DB	00H
	DB	00H
	DB	00H
	DB	00H
	DB	00H
	DB	00H
	DB	00H
	DB	00H
	DB	00H
	DB	00H
	DB	00H
	DB	00H
	DB	00H
	DB	00H
	DB	00H
	DB	00H
	DB	00H
	DB	00H
	DB	00H
	DB	00H
	DB	00H
	DB	00H
	DB	00H
	DB	00H
	DB	00H
	DB	00H
	DB	00H
	DB	00H
	DB	00H
	DB	00H
	DB	00H
	DB	00H
	DB	00H
	DB	00H
	DB	00H
	DB	00H
	DB	00H
	DB	00H
	DB	00H
	DB	00H
	DB	00H
	DB	00H
	DB	00H
	DB	00H
	DB	00H
	DB	00H
	DB	03H
	DB	011H
	DB	06H
	DB	06H
	DB	0d2H
	DB	0dH
	DB	00H
	DB	00H
	DB	00H
	DB	00H
	DB	00H
	DB	00H
	DB	00H
	DB	00H
	DB	00H
	DB	00H
	DB	00H
	DB	00H
	DB	00H
	DB	00H
	DB	00H
	DB	00H
	DB	00H
	DB	00H
	DB	00H
	DB	00H
	DB	00H
	DB	00H
	DB	00H
	DB	00H
	DB	00H
	DB	00H
	DB	00H
	DB	00H
	DB	00H
	DB	00H
	DB	00H
	DB	00H
	DB	00H
	DB	00H
	DB	00H
	DB	00H
	DB	00H
	DB	00H
	DB	00H
	DB	00H
	DB	00H
	DB	00H
	DB	00H
	DB	00H
	DB	00H
	DB	00H
	DB	00H
	DB	00H
	DB	00H
	DB	00H
	DB	00H
	DB	00H
	DB	00H
	DB	00H
	DB	00H
	DB	00H
	DB	00H
	DB	00H
	DB	00H
	DB	00H
	DB	00H
	DB	00H
	DB	00H
	DB	00H
	DB	00H
	DB	00H
	DB	00H
	DB	00H
	DB	00H
	DB	00H
	DB	00H
	DB	00H
	DB	00H
	DB	00H
	DB	00H
	DB	00H
	DB	00H
	DB	00H
	DB	00H
	DB	00H
	DB	00H
	DB	00H
	DB	00H
	DB	00H
	DB	00H
	DB	00H
	DB	00H
	DB	00H
	DB	00H
	DB	00H
	DB	00H
	DB	00H
	DB	00H
	DB	00H
	DB	00H
	DB	00H
	DB	00H
	DB	00H
	DB	00H
	DB	00H
	DB	00H
	DB	00H
	DB	00H
	DB	00H
	DB	00H
	DB	00H
	DB	00H
	DB	00H
	DB	00H
	DB	00H
	DB	00H
	DB	00H
	DB	00H
	DB	00H
	DB	00H
	DB	00H
	DB	00H
	DB	00H
	DB	00H
	DB	00H
	DB	081H
	DB	0a7H
	DB	06H
	DB	0fH
	DB	06H
	DB	0cH
	DB	011H
	DB	0dH
	DB	00H
	DB	00H
	DB	00H
	DB	00H
	DB	00H
	DB	00H
	DB	00H
	DB	00H
	DB	00H
	DB	00H
	DB	00H
	DB	00H
	DB	00H
	DB	00H
	DB	00H
	DB	00H
	DB	00H
	DB	00H
	DB	00H
	DB	00H
	DB	00H
	DB	00H
	DB	00H
	DB	00H
	DB	00H
	DB	00H
	DB	00H
	DB	00H
	DB	00H
	DB	00H
	DB	00H
	DB	00H
	DB	00H
	DB	00H
	DB	00H
	DB	00H
	DB	00H
	DB	00H
	DB	00H
	DB	00H
	DB	05bH
	DB	015H
	DB	015H
	DB	015H
	DB	015H
	DB	015H
	DB	015H
	DB	015H
	DB	015H
	DB	015H
	DB	015H
	DB	015H
	DB	015H
	DB	015H
	DB	015H
	DB	015H
	DB	015H
	DB	015H
	DB	015H
	DB	015H
	DB	015H
	DB	015H
	DB	015H
	DB	015H
	DB	015H
	DB	015H
	DB	015H
	DB	015H
	DB	015H
	DB	015H
	DB	015H
	DB	015H
	DB	015H
	DB	015H
	DB	015H
	DB	015H
	DB	015H
	DB	015H
	DB	015H
	DB	015H
	DB	015H
	DB	015H
	DB	015H
	DB	015H
	DB	015H
	DB	015H
	DB	015H
	DB	015H
	DB	015H
	DB	015H
	DB	015H
	DB	015H
	DB	015H
	DB	015H
	DB	015H
	DB	015H
	DB	015H
	DB	015H
	DB	015H
	DB	015H
	DB	015H
	DB	015H
	DB	015H
	DB	015H
	DB	015H
	DB	015H
	DB	015H
	DB	015H
	DB	015H
	DB	015H
	DB	015H
	DB	015H
	DB	015H
	DB	015H
	DB	015H
	DB	015H
	DB	015H
	DB	015H
	DB	095H
	DB	06H
	DB	0d2H
	DB	08H
	DB	0c1H
	DB	081H
	DB	0fH
	DB	0fH
	DB	010H
	DB	014H
	DB	015H
	DB	015H
	DB	015H
	DB	015H
	DB	015H
	DB	015H
	DB	015H
	DB	015H
	DB	015H
	DB	015H
	DB	015H
	DB	015H
	DB	015H
	DB	015H
	DB	015H
	DB	015H
	DB	015H
	DB	015H
	DB	015H
	DB	015H
	DB	015H
	DB	015H
	DB	015H
	DB	015H
	DB	015H
	DB	015H
	DB	015H
	DB	015H
	DB	015H
	DB	04aH
	DB	00H
	DB	00H
	DB	00H
	DB	00H
	DB	00H
	DB	00H
	DB	00H
	DB	00H
	DB	07eH
	DB	0f0H
	DB	0fH
	DB	05H
	DB	05H
	DB	05H
	DB	05H
	DB	05H
	DB	05H
	DB	05H
	DB	05H
	DB	05H
	DB	05H
	DB	05H
	DB	05H
	DB	05H
	DB	05H
	DB	05H
	DB	05H
	DB	05H
	DB	05H
	DB	05H
	DB	05H
	DB	05H
	DB	05H
	DB	05H
	DB	05H
	DB	05H
	DB	05H
	DB	05H
	DB	05H
	DB	05H
	DB	05H
	DB	05H
	DB	05H
	DB	05H
	DB	05H
	DB	05H
	DB	05H
	DB	05H
	DB	05H
	DB	05H
	DB	05H
	DB	05H
	DB	05H
	DB	05H
	DB	05H
	DB	05H
	DB	05H
	DB	05H
	DB	05H
	DB	05H
	DB	05H
	DB	05H
	DB	05H
	DB	05H
	DB	05H
	DB	05H
	DB	05H
	DB	05H
	DB	05H
	DB	05H
	DB	05H
	DB	05H
	DB	05H
	DB	05H
	DB	05H
	DB	05H
	DB	05H
	DB	05H
	DB	05H
	DB	05H
	DB	05H
	DB	05H
	DB	05H
	DB	05H
	DB	05H
	DB	0f0H
	DB	0fH
	DB	06H
	DB	08H
	DB	081H
	DB	0a6H
	DB	0f0H
	DB	0a6H
	DB	011H
	DB	05H
	DB	05H
	DB	04fH
	DB	05H
	DB	0f0H
	DB	05H
	DB	05H
	DB	05H
	DB	05H
	DB	05H
	DB	05H
	DB	05H
	DB	05H
	DB	05H
	DB	05H
	DB	05H
	DB	05H
	DB	05H
	DB	05H
	DB	05H
	DB	05H
	DB	05H
	DB	05H
	DB	05H
	DB	05H
	DB	05H
	DB	05H
	DB	05H
	DB	05H
	DB	05H
	DB	05H
	DB	05H
	DB	010H
	DB	07eH
	DB	00H
	DB	00H
	DB	00H
	DB	00H
	DB	00H
	DB	00H
	DB	00H
	DB	010H
	DB	011H
	DB	054H
	DB	01H
	DB	01H
	DB	01H
	DB	01H
	DB	01H
	DB	01H
	DB	01H
	DB	01H
	DB	01H
	DB	01H
	DB	01H
	DB	01H
	DB	01H
	DB	01H
	DB	01H
	DB	01H
	DB	01H
	DB	01H
	DB	01H
	DB	01H
	DB	01H
	DB	01H
	DB	01H
	DB	01H
	DB	01H
	DB	01H
	DB	01H
	DB	01H
	DB	01H
	DB	01H
	DB	01H
	DB	01H
	DB	01H
	DB	01H
	DB	01H
	DB	01H
	DB	01H
	DB	01H
	DB	01H
	DB	01H
	DB	01H
	DB	01H
	DB	01H
	DB	01H
	DB	01H
	DB	01H
	DB	01H
	DB	01H
	DB	01H
	DB	01H
	DB	01H
	DB	01H
	DB	01H
	DB	01H
	DB	01H
	DB	01H
	DB	01H
	DB	01H
	DB	01H
	DB	01H
	DB	01H
	DB	01H
	DB	01H
	DB	01H
	DB	01H
	DB	01H
	DB	01H
	DB	01H
	DB	01H
	DB	01H
	DB	01H
	DB	01H
	DB	01H
	DB	01H
	DB	01H
	DB	0a6H
	DB	095H
	DB	093H
	DB	0c1H
	DB	01H
	DB	01H
	DB	01H
	DB	01H
	DB	054H
	DB	095H
	DB	04fH
	DB	08H
	DB	01H
	DB	01H
	DB	01H
	DB	01H
	DB	01H
	DB	01H
	DB	01H
	DB	01H
	DB	01H
	DB	01H
	DB	01H
	DB	01H
	DB	01H
	DB	01H
	DB	01H
	DB	01H
	DB	01H
	DB	01H
	DB	01H
	DB	01H
	DB	01H
	DB	01H
	DB	01H
	DB	01H
	DB	01H
	DB	01H
	DB	01H
	DB	054H
	DB	08H
	DB	014H
	DB	00H
	DB	00H
	DB	00H
	DB	00H
	DB	00H
	DB	00H
	DB	04aH
	DB	010H
	DB	054H
	DB	014H
	DB	077H
	DB	01H
	DB	027H
	DB	027H
	DB	027H
	DB	027H
	DB	027H
	DB	027H
	DB	077H
	DB	01H
	DB	01H
	DB	077H
	DB	077H
	DB	077H
	DB	077H
	DB	077H
	DB	077H
	DB	077H
	DB	077H
	DB	077H
	DB	077H
	DB	077H
	DB	077H
	DB	077H
	DB	077H
	DB	01H
	DB	077H
	DB	027H
	DB	027H
	DB	077H
	DB	01H
	DB	077H
	DB	077H
	DB	077H
	DB	077H
	DB	077H
	DB	077H
	DB	077H
	DB	077H
	DB	077H
	DB	077H
	DB	077H
	DB	077H
	DB	077H
	DB	077H
	DB	077H
	DB	077H
	DB	077H
	DB	077H
	DB	077H
	DB	077H
	DB	077H
	DB	077H
	DB	077H
	DB	077H
	DB	077H
	DB	077H
	DB	077H
	DB	077H
	DB	077H
	DB	077H
	DB	077H
	DB	077H
	DB	077H
	DB	077H
	DB	077H
	DB	077H
	DB	077H
	DB	077H
	DB	077H
	DB	077H
	DB	077H
	DB	077H
	DB	014H
	DB	01H
	DB	0ccH
	DB	0c1H
	DB	077H
	DB	014H
	DB	03H
	DB	03H
	DB	03H
	DB	014H
	DB	014H
	DB	08H
	DB	06H
	DB	012H
	DB	014H
	DB	077H
	DB	077H
	DB	077H
	DB	077H
	DB	077H
	DB	077H
	DB	077H
	DB	077H
	DB	077H
	DB	077H
	DB	077H
	DB	077H
	DB	077H
	DB	077H
	DB	077H
	DB	077H
	DB	077H
	DB	077H
	DB	077H
	DB	077H
	DB	077H
	DB	077H
	DB	077H
	DB	077H
	DB	077H
	DB	077H
	DB	077H
	DB	01H
	DB	03H
	DB	04aH
	DB	00H
	DB	00H
	DB	00H
	DB	00H
	DB	00H
	DB	04aH
	DB	081H
	DB	01H
	DB	077H
	DB	01H
	DB	03H
	DB	036H
	DB	036H
	DB	036H
	DB	036H
	DB	036H
	DB	036H
	DB	036H
	DB	015H
	DB	093H
	DB	01H
	DB	01H
	DB	01H
	DB	01H
	DB	01H
	DB	01H
	DB	01H
	DB	01H
	DB	01H
	DB	01H
	DB	01H
	DB	01H
	DB	01H
	DB	01H
	DB	027H
	DB	036H
	DB	036H
	DB	036H
	DB	036H
	DB	014H
	DB	01H
	DB	01H
	DB	01H
	DB	01H
	DB	01H
	DB	01H
	DB	01H
	DB	01H
	DB	01H
	DB	01H
	DB	01H
	DB	01H
	DB	01H
	DB	01H
	DB	01H
	DB	01H
	DB	01H
	DB	01H
	DB	01H
	DB	01H
	DB	01H
	DB	01H
	DB	01H
	DB	01H
	DB	01H
	DB	01H
	DB	01H
	DB	01H
	DB	01H
	DB	01H
	DB	01H
	DB	01H
	DB	01H
	DB	01H
	DB	01H
	DB	01H
	DB	01H
	DB	01H
	DB	01H
	DB	01H
	DB	01H
	DB	01H
	DB	077H
	DB	054H
	DB	012H
	DB	054H
	DB	054H
	DB	012H
	DB	0a6H
	DB	05H
	DB	05H
	DB	095H
	DB	077H
	DB	08H
	DB	069H
	DB	012H
	DB	014H
	DB	01H
	DB	01H
	DB	01H
	DB	01H
	DB	01H
	DB	01H
	DB	01H
	DB	01H
	DB	01H
	DB	01H
	DB	01H
	DB	01H
	DB	01H
	DB	01H
	DB	01H
	DB	01H
	DB	01H
	DB	01H
	DB	01H
	DB	01H
	DB	01H
	DB	01H
	DB	01H
	DB	01H
	DB	01H
	DB	01H
	DB	01H
	DB	01H
	DB	03H
	DB	05bH
	DB	00H
	DB	00H
	DB	00H
	DB	00H
	DB	00H
	DB	04aH
	DB	081H
	DB	01H
	DB	01H
	DB	027H
	DB	094H
	DB	056H
	DB	028H
	DB	028H
	DB	028H
	DB	028H
	DB	028H
	DB	03eH
	DB	043H
	DB	053H
	DB	04H
	DB	027H
	DB	01H
	DB	01H
	DB	01H
	DB	01H
	DB	01H
	DB	01H
	DB	01H
	DB	01H
	DB	01H
	DB	01H
	DB	01H
	DB	01H
	DB	07eH
	DB	038H
	DB	046H
	DB	046H
	DB	084H
	DB	04H
	DB	01H
	DB	01H
	DB	01H
	DB	01H
	DB	01H
	DB	01H
	DB	01H
	DB	01H
	DB	01H
	DB	01H
	DB	01H
	DB	01H
	DB	01H
	DB	01H
	DB	01H
	DB	01H
	DB	01H
	DB	01H
	DB	01H
	DB	01H
	DB	01H
	DB	01H
	DB	01H
	DB	01H
	DB	01H
	DB	01H
	DB	01H
	DB	01H
	DB	01H
	DB	01H
	DB	01H
	DB	01H
	DB	01H
	DB	01H
	DB	01H
	DB	01H
	DB	01H
	DB	01H
	DB	01H
	DB	01H
	DB	01H
	DB	01H
	DB	077H
	DB	01H
	DB	08H
	DB	08H
	DB	012H
	DB	011H
	DB	06H
	DB	02H
	DB	02H
	DB	06H
	DB	0c1H
	DB	012H
	DB	069H
	DB	08H
	DB	014H
	DB	01H
	DB	01H
	DB	01H
	DB	01H
	DB	01H
	DB	01H
	DB	01H
	DB	01H
	DB	01H
	DB	01H
	DB	01H
	DB	01H
	DB	01H
	DB	01H
	DB	01H
	DB	01H
	DB	01H
	DB	01H
	DB	01H
	DB	01H
	DB	01H
	DB	01H
	DB	01H
	DB	01H
	DB	01H
	DB	01H
	DB	01H
	DB	01H
	DB	03H
	DB	05bH
	DB	00H
	DB	00H
	DB	00H
	DB	00H
	DB	00H
	DB	04aH
	DB	081H
	DB	01H
	DB	01H
	DB	027H
	DB	01dH
	DB	019H
	DB	0bH
	DB	0bH
	DB	0bH
	DB	0bH
	DB	0bH
	DB	0bH
	DB	0bH
	DB	0bH
	DB	043H
	DB	036H
	DB	027H
	DB	01H
	DB	01H
	DB	01H
	DB	01H
	DB	01H
	DB	01H
	DB	01H
	DB	01H
	DB	01H
	DB	01H
	DB	01H
	DB	01eH
	DB	070H
	DB	0bH
	DB	0bH
	DB	022H
	DB	07eH
	DB	01H
	DB	01H
	DB	01H
	DB	01H
	DB	01H
	DB	01H
	DB	01H
	DB	01H
	DB	01H
	DB	01H
	DB	01H
	DB	01H
	DB	01H
	DB	01H
	DB	01H
	DB	01H
	DB	01H
	DB	01H
	DB	01H
	DB	01H
	DB	01H
	DB	01H
	DB	01H
	DB	01H
	DB	01H
	DB	01H
	DB	01H
	DB	01H
	DB	01H
	DB	01H
	DB	01H
	DB	01H
	DB	01H
	DB	01H
	DB	01H
	DB	01H
	DB	01H
	DB	01H
	DB	01H
	DB	01H
	DB	01H
	DB	01H
	DB	01H
	DB	01H
	DB	054H
	DB	08H
	DB	081H
	DB	054H
	DB	05H
	DB	02H
	DB	02H
	DB	05H
	DB	014H
	DB	011H
	DB	0fH
	DB	054H
	DB	077H
	DB	01H
	DB	01H
	DB	01H
	DB	01H
	DB	01H
	DB	01H
	DB	01H
	DB	01H
	DB	01H
	DB	01H
	DB	01H
	DB	01H
	DB	01H
	DB	01H
	DB	01H
	DB	01H
	DB	01H
	DB	01H
	DB	01H
	DB	01H
	DB	01H
	DB	01H
	DB	01H
	DB	01H
	DB	01H
	DB	01H
	DB	01H
	DB	01H
	DB	03H
	DB	05bH
	DB	00H
	DB	00H
	DB	00H
	DB	00H
	DB	00H
	DB	04aH
	DB	081H
	DB	01H
	DB	01H
	DB	027H
	DB	01dH
	DB	019H
	DB	0bH
	DB	0bH
	DB	039H
	DB	053H
	DB	0cfH
	DB	071H
	DB	0bH
	DB	0bH
	DB	0bH
	DB	038H
	DB	04H
	DB	01H
	DB	01H
	DB	01H
	DB	01H
	DB	01H
	DB	01H
	DB	01H
	DB	01H
	DB	01H
	DB	027H
	DB	01H
	DB	04H
	DB	0d7H
	DB	070H
	DB	070H
	DB	07aH
	DB	07eH
	DB	01H
	DB	01H
	DB	01H
	DB	01H
	DB	01H
	DB	01H
	DB	01H
	DB	01H
	DB	01H
	DB	01H
	DB	01H
	DB	01H
	DB	01H
	DB	01H
	DB	01H
	DB	01H
	DB	01H
	DB	01H
	DB	01H
	DB	027H
	DB	027H
	DB	01H
	DB	01H
	DB	01H
	DB	01H
	DB	01H
	DB	01H
	DB	01H
	DB	01H
	DB	01H
	DB	01H
	DB	01H
	DB	01H
	DB	01H
	DB	01H
	DB	01H
	DB	01H
	DB	01H
	DB	01H
	DB	01H
	DB	01H
	DB	01H
	DB	01H
	DB	077H
	DB	054H
	DB	012H
	DB	08H
	DB	03H
	DB	095H
	DB	06H
	DB	06H
	DB	081H
	DB	054H
	DB	069H
	DB	0d2H
	DB	077H
	DB	077H
	DB	01H
	DB	01H
	DB	01H
	DB	01H
	DB	01H
	DB	01H
	DB	01H
	DB	01H
	DB	01H
	DB	01H
	DB	01H
	DB	01H
	DB	01H
	DB	01H
	DB	01H
	DB	01H
	DB	01H
	DB	01H
	DB	01H
	DB	01H
	DB	01H
	DB	01H
	DB	01H
	DB	01H
	DB	01H
	DB	01H
	DB	01H
	DB	01H
	DB	03H
	DB	05bH
	DB	00H
	DB	00H
	DB	00H
	DB	00H
	DB	00H
	DB	04aH
	DB	081H
	DB	01H
	DB	01H
	DB	027H
	DB	01dH
	DB	019H
	DB	0bH
	DB	0bH
	DB	037H
	DB	00H
	DB	05bH
	DB	02aH
	DB	070H
	DB	0bH
	DB	0bH
	DB	0bH
	DB	04bH
	DB	03H
	DB	01H
	DB	03H
	DB	03bH
	DB	07eH
	DB	07eH
	DB	015H
	DB	093H
	DB	036H
	DB	0b6H
	DB	03H
	DB	03H
	DB	00H
	DB	00H
	DB	00H
	DB	00H
	DB	015H
	DB	04H
	DB	03bH
	DB	07eH
	DB	07eH
	DB	04H
	DB	01H
	DB	01H
	DB	01H
	DB	01H
	DB	01H
	DB	015H
	DB	035H
	DB	07eH
	DB	015H
	DB	01H
	DB	01H
	DB	027H
	DB	04H
	DB	03bH
	DB	0b6H
	DB	094H
	DB	036H
	DB	04H
	DB	03H
	DB	01H
	DB	01H
	DB	01H
	DB	01H
	DB	01H
	DB	01H
	DB	01H
	DB	01H
	DB	01H
	DB	01H
	DB	01H
	DB	01H
	DB	01H
	DB	01H
	DB	01H
	DB	01H
	DB	01H
	DB	01H
	DB	01H
	DB	077H
	DB	01H
	DB	011H
	DB	0ccH
	DB	054H
	DB	03H
	DB	069H
	DB	011H
	DB	01H
	DB	0fH
	DB	0fH
	DB	054H
	DB	077H
	DB	01H
	DB	01H
	DB	01H
	DB	01H
	DB	01H
	DB	01H
	DB	01H
	DB	01H
	DB	01H
	DB	01H
	DB	01H
	DB	01H
	DB	01H
	DB	01H
	DB	01H
	DB	01H
	DB	01H
	DB	01H
	DB	01H
	DB	01H
	DB	01H
	DB	01H
	DB	01H
	DB	01H
	DB	01H
	DB	01H
	DB	01H
	DB	01H
	DB	01H
	DB	03H
	DB	05bH
	DB	00H
	DB	00H
	DB	00H
	DB	00H
	DB	00H
	DB	04aH
	DB	081H
	DB	01H
	DB	01H
	DB	027H
	DB	01dH
	DB	019H
	DB	0bH
	DB	0bH
	DB	037H
	DB	0dH
	DB	015H
	DB	01eH
	DB	0bbH
	DB	019H
	DB	0bH
	DB	0bH
	DB	038H
	DB	063H
	DB	027H
	DB	01dH
	DB	056H
	DB	056H
	DB	028H
	DB	092H
	DB	04bH
	DB	056H
	DB	09eH
	DB	0b6H
	DB	01eH
	DB	038H
	DB	046H
	DB	028H
	DB	084H
	DB	0b0H
	DB	04bH
	DB	028H
	DB	056H
	DB	028H
	DB	0c0H
	DB	093H
	DB	01H
	DB	01H
	DB	01H
	DB	02cH
	DB	0c0H
	DB	028H
	DB	028H
	DB	04bH
	DB	027H
	DB	093H
	DB	0b6H
	DB	037H
	DB	03eH
	DB	046H
	DB	046H
	DB	028H
	DB	022H
	DB	04bH
	DB	02cH
	DB	01H
	DB	01H
	DB	01H
	DB	01H
	DB	01H
	DB	01H
	DB	01H
	DB	01H
	DB	01H
	DB	01H
	DB	01H
	DB	01H
	DB	01H
	DB	01H
	DB	01H
	DB	01H
	DB	01H
	DB	01H
	DB	01H
	DB	014H
	DB	012H
	DB	04fH
	DB	06H
	DB	010H
	DB	05H
	DB	05H
	DB	069H
	DB	0fH
	DB	081H
	DB	077H
	DB	01H
	DB	01H
	DB	01H
	DB	01H
	DB	01H
	DB	01H
	DB	01H
	DB	01H
	DB	01H
	DB	01H
	DB	01H
	DB	01H
	DB	01H
	DB	01H
	DB	01H
	DB	01H
	DB	01H
	DB	01H
	DB	01H
	DB	01H
	DB	01H
	DB	01H
	DB	01H
	DB	01H
	DB	01H
	DB	01H
	DB	01H
	DB	01H
	DB	01H
	DB	01H
	DB	03H
	DB	05bH
	DB	00H
	DB	00H
	DB	00H
	DB	00H
	DB	00H
	DB	04aH
	DB	081H
	DB	01H
	DB	01H
	DB	027H
	DB	01dH
	DB	019H
	DB	0bH
	DB	0bH
	DB	037H
	DB	07eH
	DB	077H
	DB	077H
	DB	035H
	DB	03eH
	DB	0bH
	DB	0bH
	DB	089H
	DB	036H
	DB	093H
	DB	0bbH
	DB	0bH
	DB	0bH
	DB	0bH
	DB	049H
	DB	028H
	DB	0bH
	DB	028H
	DB	0b6H
	DB	01eH
	DB	070H
	DB	0bH
	DB	0bH
	DB	022H
	DB	01eH
	DB	036H
	DB	056H
	DB	0bH
	DB	0bH
	DB	039H
	DB	07eH
	DB	01H
	DB	01H
	DB	01H
	DB	04H
	DB	089H
	DB	0bH
	DB	03eH
	DB	036H
	DB	093H
	DB	094H
	DB	028H
	DB	0bH
	DB	0bH
	DB	028H
	DB	056H
	DB	0bH
	DB	0bH
	DB	019H
	DB	0bfH
	DB	093H
	DB	01H
	DB	01H
	DB	01H
	DB	01H
	DB	01H
	DB	01H
	DB	01H
	DB	01H
	DB	01H
	DB	01H
	DB	01H
	DB	01H
	DB	01H
	DB	01H
	DB	01H
	DB	01H
	DB	01H
	DB	01H
	DB	01H
	DB	014H
	DB	012H
	DB	0a6H
	DB	012H
	DB	05H
	DB	06H
	DB	011H
	DB	08H
	DB	077H
	DB	01H
	DB	01H
	DB	01H
	DB	01H
	DB	01H
	DB	01H
	DB	01H
	DB	01H
	DB	01H
	DB	01H
	DB	01H
	DB	01H
	DB	01H
	DB	01H
	DB	01H
	DB	01H
	DB	01H
	DB	01H
	DB	01H
	DB	01H
	DB	01H
	DB	01H
	DB	01H
	DB	01H
	DB	01H
	DB	01H
	DB	01H
	DB	01H
	DB	01H
	DB	01H
	DB	01H
	DB	03H
	DB	05bH
	DB	00H
	DB	00H
	DB	00H
	DB	00H
	DB	00H
	DB	04aH
	DB	081H
	DB	01H
	DB	01H
	DB	027H
	DB	01dH
	DB	019H
	DB	0bH
	DB	0bH
	DB	037H
	DB	07eH
	DB	01H
	DB	01H
	DB	07eH
	DB	022H
	DB	0bH
	DB	0bH
	DB	028H
	DB	02bH
	DB	02cH
	DB	0bbH
	DB	019H
	DB	0bH
	DB	0bH
	DB	046H
	DB	0bH
	DB	0bH
	DB	028H
	DB	02bH
	DB	0b0H
	DB	022H
	DB	0bH
	DB	0bH
	DB	043H
	DB	07eH
	DB	04H
	DB	0d7H
	DB	0bH
	DB	0bH
	DB	019H
	DB	01dH
	DB	03H
	DB	01H
	DB	03H
	DB	0bbH
	DB	0bH
	DB	0bH
	DB	07aH
	DB	0b0H
	DB	03bH
	DB	071H
	DB	0bH
	DB	0bH
	DB	037H
	DB	02aH
	DB	04aH
	DB	0cfH
	DB	0bH
	DB	0bH
	DB	046H
	DB	0b6H
	DB	027H
	DB	01H
	DB	01H
	DB	01H
	DB	01H
	DB	01H
	DB	01H
	DB	01H
	DB	01H
	DB	01H
	DB	01H
	DB	01H
	DB	01H
	DB	01H
	DB	01H
	DB	01H
	DB	01H
	DB	01H
	DB	01H
	DB	01H
	DB	03H
	DB	081H
	DB	0a6H
	DB	0a7H
	DB	0fbH
	DB	012H
	DB	03H
	DB	077H
	DB	01H
	DB	01H
	DB	01H
	DB	01H
	DB	01H
	DB	01H
	DB	01H
	DB	01H
	DB	01H
	DB	01H
	DB	01H
	DB	01H
	DB	01H
	DB	01H
	DB	01H
	DB	01H
	DB	01H
	DB	01H
	DB	01H
	DB	01H
	DB	01H
	DB	01H
	DB	01H
	DB	01H
	DB	01H
	DB	01H
	DB	01H
	DB	01H
	DB	01H
	DB	01H
	DB	01H
	DB	03H
	DB	05bH
	DB	00H
	DB	00H
	DB	00H
	DB	00H
	DB	00H
	DB	04aH
	DB	081H
	DB	01H
	DB	01H
	DB	027H
	DB	01dH
	DB	019H
	DB	0bH
	DB	0bH
	DB	037H
	DB	07eH
	DB	01H
	DB	01H
	DB	04H
	DB	038H
	DB	0bH
	DB	0bH
	DB	019H
	DB	0b6H
	DB	02cH
	DB	0bbH
	DB	019H
	DB	0bH
	DB	0bH
	DB	0bH
	DB	028H
	DB	049H
	DB	0baH
	DB	03bH
	DB	01eH
	DB	022H
	DB	0bH
	DB	0bH
	DB	043H
	DB	0dH
	DB	03H
	DB	0b6H
	DB	019H
	DB	0bH
	DB	0bH
	DB	049H
	DB	04H
	DB	01H
	DB	04H
	DB	038H
	DB	0bH
	DB	046H
	DB	0b4H
	DB	0b0H
	DB	0c0H
	DB	0bH
	DB	0bH
	DB	028H
	DB	02aH
	DB	0dH
	DB	07eH
	DB	04aH
	DB	089H
	DB	0bH
	DB	0bH
	DB	0cfH
	DB	02cH
	DB	01H
	DB	01H
	DB	01H
	DB	01H
	DB	01H
	DB	01H
	DB	01H
	DB	01H
	DB	01H
	DB	01H
	DB	01H
	DB	01H
	DB	01H
	DB	01H
	DB	01H
	DB	01H
	DB	01H
	DB	01H
	DB	01H
	DB	014H
	DB	081H
	DB	010H
	DB	0aH
	DB	0aH
	DB	095H
	DB	01H
	DB	077H
	DB	01H
	DB	01H
	DB	01H
	DB	01H
	DB	01H
	DB	01H
	DB	01H
	DB	01H
	DB	01H
	DB	01H
	DB	01H
	DB	01H
	DB	01H
	DB	01H
	DB	01H
	DB	01H
	DB	01H
	DB	01H
	DB	01H
	DB	01H
	DB	01H
	DB	01H
	DB	01H
	DB	01H
	DB	01H
	DB	01H
	DB	01H
	DB	01H
	DB	01H
	DB	01H
	DB	01H
	DB	03H
	DB	05bH
	DB	00H
	DB	00H
	DB	00H
	DB	00H
	DB	00H
	DB	04aH
	DB	081H
	DB	01H
	DB	01H
	DB	027H
	DB	01dH
	DB	019H
	DB	0bH
	DB	0bH
	DB	037H
	DB	07eH
	DB	01H
	DB	01H
	DB	04H
	DB	038H
	DB	0bH
	DB	0bH
	DB	019H
	DB	02bH
	DB	02cH
	DB	0bbH
	DB	019H
	DB	0bH
	DB	0bH
	DB	046H
	DB	0baH
	DB	00H
	DB	0afH
	DB	093H
	DB	01eH
	DB	022H
	DB	0bH
	DB	0bH
	DB	043H
	DB	0dH
	DB	01H
	DB	04H
	DB	022H
	DB	0bH
	DB	0bH
	DB	03eH
	DB	03bH
	DB	027H
	DB	0b6H
	DB	046H
	DB	0bH
	DB	084H
	DB	0afH
	DB	07eH
	DB	043H
	DB	0bH
	DB	0bH
	DB	022H
	DB	04aH
	DB	07eH
	DB	04H
	DB	05bH
	DB	037H
	DB	0bH
	DB	0bH
	DB	043H
	DB	01eH
	DB	01H
	DB	01H
	DB	01H
	DB	01H
	DB	01H
	DB	01H
	DB	01H
	DB	01H
	DB	01H
	DB	01H
	DB	01H
	DB	01H
	DB	01H
	DB	01H
	DB	01H
	DB	077H
	DB	014H
	DB	014H
	DB	03H
	DB	095H
	DB	05H
	DB	010H
	DB	06H
	DB	06H
	DB	04fH
	DB	010H
	DB	014H
	DB	077H
	DB	01H
	DB	01H
	DB	01H
	DB	01H
	DB	01H
	DB	01H
	DB	01H
	DB	01H
	DB	01H
	DB	01H
	DB	01H
	DB	01H
	DB	01H
	DB	01H
	DB	01H
	DB	01H
	DB	01H
	DB	01H
	DB	01H
	DB	01H
	DB	01H
	DB	01H
	DB	01H
	DB	01H
	DB	01H
	DB	01H
	DB	01H
	DB	01H
	DB	01H
	DB	01H
	DB	03H
	DB	05bH
	DB	00H
	DB	00H
	DB	00H
	DB	00H
	DB	00H
	DB	04aH
	DB	081H
	DB	01H
	DB	01H
	DB	027H
	DB	01dH
	DB	019H
	DB	0bH
	DB	0bH
	DB	037H
	DB	07eH
	DB	01H
	DB	01H
	DB	04H
	DB	038H
	DB	0bH
	DB	0bH
	DB	019H
	DB	02bH
	DB	02cH
	DB	0bbH
	DB	019H
	DB	0bH
	DB	0bH
	DB	0d7H
	DB	05bH
	DB	04H
	DB	093H
	DB	077H
	DB	01eH
	DB	022H
	DB	0bH
	DB	0bH
	DB	043H
	DB	0dH
	DB	01H
	DB	02cH
	DB	053H
	DB	0bH
	DB	0bH
	DB	0bH
	DB	053H
	DB	01eH
	DB	049H
	DB	0bH
	DB	019H
	DB	0baH
	DB	01eH
	DB	036H
	DB	071H
	DB	0bH
	DB	0bH
	DB	028H
	DB	043H
	DB	043H
	DB	043H
	DB	043H
	DB	03eH
	DB	0bH
	DB	0bH
	DB	039H
	DB	01eH
	DB	01H
	DB	01H
	DB	01H
	DB	01H
	DB	01H
	DB	01H
	DB	01H
	DB	01H
	DB	01H
	DB	01H
	DB	01H
	DB	077H
	DB	014H
	DB	014H
	DB	014H
	DB	01H
	DB	08H
	DB	012H
	DB	095H
	DB	0d2H
	DB	081H
	DB	069H
	DB	02H
	DB	02H
	DB	0aH
	DB	0ccH
	DB	054H
	DB	014H
	DB	014H
	DB	014H
	DB	077H
	DB	01H
	DB	01H
	DB	01H
	DB	01H
	DB	01H
	DB	01H
	DB	01H
	DB	01H
	DB	01H
	DB	01H
	DB	01H
	DB	01H
	DB	01H
	DB	01H
	DB	01H
	DB	01H
	DB	01H
	DB	01H
	DB	01H
	DB	01H
	DB	01H
	DB	01H
	DB	01H
	DB	01H
	DB	01H
	DB	01H
	DB	01H
	DB	03H
	DB	05bH
	DB	00H
	DB	00H
	DB	00H
	DB	00H
	DB	00H
	DB	04aH
	DB	081H
	DB	01H
	DB	01H
	DB	027H
	DB	01dH
	DB	019H
	DB	0bH
	DB	0bH
	DB	037H
	DB	07eH
	DB	01H
	DB	01H
	DB	04H
	DB	043H
	DB	0bH
	DB	0bH
	DB	028H
	DB	02bH
	DB	02cH
	DB	0bbH
	DB	019H
	DB	0bH
	DB	0bH
	DB	01dH
	DB	01eH
	DB	03H
	DB	077H
	DB	01H
	DB	01eH
	DB	022H
	DB	0bH
	DB	0bH
	DB	043H
	DB	0dH
	DB	01H
	DB	077H
	DB	03bH
	DB	056H
	DB	0bH
	DB	0bH
	DB	038H
	DB	02aH
	DB	03eH
	DB	0bH
	DB	039H
	DB	04aH
	DB	093H
	DB	036H
	DB	03eH
	DB	0bH
	DB	0bH
	DB	019H
	DB	0bH
	DB	0bH
	DB	0bH
	DB	0bH
	DB	019H
	DB	019H
	DB	0bH
	DB	070H
	DB	0dH
	DB	01H
	DB	01H
	DB	01H
	DB	01H
	DB	01H
	DB	01H
	DB	01H
	DB	01H
	DB	01H
	DB	014H
	DB	03H
	DB	014H
	DB	08H
	DB	010H
	DB	05H
	DB	074H
	DB	06H
	DB	0a7H
	DB	0cH
	DB	011H
	DB	01H
	DB	069H
	DB	02H
	DB	02H
	DB	0cH
	DB	011H
	DB	069H
	DB	0fH
	DB	011H
	DB	081H
	DB	01H
	DB	03H
	DB	014H
	DB	01H
	DB	01H
	DB	01H
	DB	01H
	DB	01H
	DB	01H
	DB	01H
	DB	01H
	DB	01H
	DB	01H
	DB	01H
	DB	01H
	DB	01H
	DB	01H
	DB	01H
	DB	01H
	DB	01H
	DB	01H
	DB	01H
	DB	01H
	DB	01H
	DB	01H
	DB	01H
	DB	01H
	DB	01H
	DB	03H
	DB	05bH
	DB	00H
	DB	00H
	DB	00H
	DB	00H
	DB	00H
	DB	04aH
	DB	081H
	DB	01H
	DB	01H
	DB	027H
	DB	01dH
	DB	019H
	DB	0bH
	DB	0bH
	DB	037H
	DB	07eH
	DB	01H
	DB	01H
	DB	07eH
	DB	089H
	DB	0bH
	DB	0bH
	DB	071H
	DB	03bH
	DB	02cH
	DB	0bbH
	DB	019H
	DB	0bH
	DB	0bH
	DB	01dH
	DB	04H
	DB	077H
	DB	01H
	DB	01H
	DB	01eH
	DB	022H
	DB	0bH
	DB	0bH
	DB	043H
	DB	0dH
	DB	01H
	DB	01H
	DB	04H
	DB	049H
	DB	0bH
	DB	0bH
	DB	028H
	DB	0cfH
	DB	0bH
	DB	0bH
	DB	053H
	DB	0dH
	DB	027H
	DB	036H
	DB	08aH
	DB	0bH
	DB	0bH
	DB	038H
	DB	0b4H
	DB	092H
	DB	092H
	DB	092H
	DB	092H
	DB	092H
	DB	092H
	DB	065H
	DB	04H
	DB	077H
	DB	01H
	DB	01H
	DB	01H
	DB	01H
	DB	01H
	DB	01H
	DB	077H
	DB	03H
	DB	01H
	DB	095H
	DB	0fH
	DB	0cH
	DB	0cH
	DB	04fH
	DB	0f3H
	DB	069H
	DB	0f3H
	DB	04fH
	DB	05H
	DB	054H
	DB	0ccH
	DB	06H
	DB	06H
	DB	0f0H
	DB	0f0H
	DB	0cH
	DB	0fbH
	DB	0fbH
	DB	0cH
	DB	0f3H
	DB	011H
	DB	054H
	DB	014H
	DB	014H
	DB	01H
	DB	01H
	DB	01H
	DB	01H
	DB	01H
	DB	01H
	DB	01H
	DB	01H
	DB	01H
	DB	01H
	DB	01H
	DB	01H
	DB	01H
	DB	01H
	DB	01H
	DB	01H
	DB	01H
	DB	01H
	DB	01H
	DB	01H
	DB	01H
	DB	01H
	DB	01H
	DB	03H
	DB	05bH
	DB	00H
	DB	00H
	DB	00H
	DB	00H
	DB	00H
	DB	04aH
	DB	081H
	DB	01H
	DB	01H
	DB	027H
	DB	01dH
	DB	019H
	DB	0bH
	DB	0bH
	DB	037H
	DB	07eH
	DB	01H
	DB	027H
	DB	0b6H
	DB	046H
	DB	0bH
	DB	0bH
	DB	038H
	DB	0dH
	DB	093H
	DB	0bbH
	DB	019H
	DB	0bH
	DB	0bH
	DB	01dH
	DB	02cH
	DB	01H
	DB	01H
	DB	01H
	DB	01eH
	DB	022H
	DB	0bH
	DB	0bH
	DB	043H
	DB	0dH
	DB	01H
	DB	01H
	DB	03H
	DB	0b6H
	DB	019H
	DB	0bH
	DB	0bH
	DB	019H
	DB	0bH
	DB	056H
	DB	065H
	DB	04H
	DB	01H
	DB	04H
	DB	038H
	DB	0bH
	DB	0bH
	DB	022H
	DB	05bH
	DB	01eH
	DB	01eH
	DB	01eH
	DB	01eH
	DB	01eH
	DB	0b0H
	DB	01eH
	DB	03H
	DB	077H
	DB	01H
	DB	01H
	DB	01H
	DB	01H
	DB	01H
	DB	014H
	DB	077H
	DB	010H
	DB	04fH
	DB	0cH
	DB	0fH
	DB	0d2H
	DB	095H
	DB	0caH
	DB	096H
	DB	0daH
	DB	0d2H
	DB	0a6H
	DB	0fH
	DB	074H
	DB	0f3H
	DB	06H
	DB	06H
	DB	06H
	DB	0cH
	DB	0cH
	DB	0cH
	DB	07dH
	DB	0fbH
	DB	0aH
	DB	061H
	DB	0cH
	DB	0f0H
	DB	08H
	DB	03H
	DB	014H
	DB	01H
	DB	01H
	DB	01H
	DB	01H
	DB	01H
	DB	01H
	DB	01H
	DB	01H
	DB	01H
	DB	01H
	DB	01H
	DB	01H
	DB	01H
	DB	01H
	DB	01H
	DB	01H
	DB	01H
	DB	01H
	DB	01H
	DB	01H
	DB	01H
	DB	03H
	DB	05bH
	DB	00H
	DB	00H
	DB	00H
	DB	00H
	DB	00H
	DB	04aH
	DB	081H
	DB	01H
	DB	01H
	DB	027H
	DB	01dH
	DB	019H
	DB	0bH
	DB	0bH
	DB	0d7H
	DB	05bH
	DB	063H
	DB	03bH
	DB	038H
	DB	0bH
	DB	0bH
	DB	0bH
	DB	04bH
	DB	01eH
	DB	03H
	DB	0bbH
	DB	019H
	DB	0bH
	DB	0bH
	DB	01dH
	DB	02cH
	DB	01H
	DB	01H
	DB	01H
	DB	01eH
	DB	022H
	DB	0bH
	DB	0bH
	DB	043H
	DB	0dH
	DB	01H
	DB	01H
	DB	01H
	DB	07eH
	DB	022H
	DB	0bH
	DB	0bH
	DB	0bH
	DB	0bH
	DB	049H
	DB	05bH
	DB	03H
	DB	01H
	DB	02cH
	DB	053H
	DB	0bH
	DB	0bH
	DB	019H
	DB	04bH
	DB	0b0H
	DB	063H
	DB	063H
	DB	01eH
	DB	03bH
	DB	036H
	DB	093H
	DB	014H
	DB	077H
	DB	01H
	DB	01H
	DB	01H
	DB	077H
	DB	03H
	DB	08H
	DB	069H
	DB	0a7H
	DB	0ccH
	DB	081H
	DB	095H
	DB	0a6H
	DB	05H
	DB	09cH
	DB	057H
	DB	073H
	DB	0ecH
	DB	0e1H
	DB	09aH
	DB	0ccH
	DB	011H
	DB	05H
	DB	06H
	DB	0fbH
	DB	0fbH
	DB	0fbH
	DB	0fbH
	DB	0fbH
	DB	0fcH
	DB	0aH
	DB	0aH
	DB	061H
	DB	0acH
	DB	07dH
	DB	011H
	DB	01H
	DB	03H
	DB	077H
	DB	01H
	DB	01H
	DB	01H
	DB	01H
	DB	01H
	DB	01H
	DB	01H
	DB	01H
	DB	01H
	DB	01H
	DB	01H
	DB	01H
	DB	01H
	DB	01H
	DB	01H
	DB	01H
	DB	01H
	DB	01H
	DB	01H
	DB	03H
	DB	05bH
	DB	00H
	DB	00H
	DB	00H
	DB	00H
	DB	00H
	DB	04aH
	DB	081H
	DB	01H
	DB	01H
	DB	027H
	DB	01dH
	DB	019H
	DB	0bH
	DB	0bH
	DB	03eH
	DB	037H
	DB	084H
	DB	071H
	DB	0bH
	DB	0bH
	DB	0bH
	DB	022H
	DB	04aH
	DB	093H
	DB	03H
	DB	0bbH
	DB	019H
	DB	0bH
	DB	0bH
	DB	01dH
	DB	02cH
	DB	01H
	DB	01H
	DB	01H
	DB	01eH
	DB	022H
	DB	0bH
	DB	0bH
	DB	043H
	DB	0dH
	DB	01H
	DB	01H
	DB	01H
	DB	093H
	DB	053H
	DB	0bH
	DB	0bH
	DB	0bH
	DB	046H
	DB	0b4H
	DB	04H
	DB	014H
	DB	01H
	DB	01H
	DB	03bH
	DB	022H
	DB	0bH
	DB	0bH
	DB	046H
	DB	038H
	DB	049H
	DB	049H
	DB	084H
	DB	071H
	DB	022H
	DB	036H
	DB	01H
	DB	01H
	DB	01H
	DB	01H
	DB	077H
	DB	014H
	DB	0d2H
	DB	0cH
	DB	0a6H
	DB	054H
	DB	095H
	DB	0fH
	DB	0f3H
	DB	060H
	DB	076H
	DB	044H
	DB	044H
	DB	023H
	DB	059H
	DB	051H
	DB	040H
	DB	040H
	DB	025H
	DB	045H
	DB	05H
	DB	05H
	DB	06H
	DB	0aH
	DB	0aH
	DB	0aH
	DB	0aH
	DB	0aH
	DB	0aH
	DB	061H
	DB	0acH
	DB	07H
	DB	07H
	DB	0a7H
	DB	095H
	DB	03H
	DB	077H
	DB	01H
	DB	01H
	DB	01H
	DB	01H
	DB	01H
	DB	01H
	DB	01H
	DB	01H
	DB	01H
	DB	01H
	DB	01H
	DB	01H
	DB	01H
	DB	01H
	DB	01H
	DB	01H
	DB	01H
	DB	01H
	DB	03H
	DB	05bH
	DB	00H
	DB	00H
	DB	00H
	DB	00H
	DB	00H
	DB	04aH
	DB	081H
	DB	01H
	DB	01H
	DB	027H
	DB	01dH
	DB	0bH
	DB	0bH
	DB	0bH
	DB	0bH
	DB	0bH
	DB	0bH
	DB	0bH
	DB	0bH
	DB	0bH
	DB	089H
	DB	065H
	DB	01eH
	DB	03H
	DB	03H
	DB	0bbH
	DB	0bH
	DB	0bH
	DB	0bH
	DB	01dH
	DB	02cH
	DB	01H
	DB	01H
	DB	01H
	DB	01eH
	DB	070H
	DB	0bH
	DB	0bH
	DB	022H
	DB	0dH
	DB	01H
	DB	01H
	DB	01H
	DB	027H
	DB	03bH
	DB	056H
	DB	0bH
	DB	0bH
	DB	038H
	DB	04aH
	DB	03H
	DB	077H
	DB	01H
	DB	01H
	DB	093H
	DB	065H
	DB	070H
	DB	0bH
	DB	0bH
	DB	0bH
	DB	0bH
	DB	0bH
	DB	0bH
	DB	0bH
	DB	03eH
	DB	036H
	DB	027H
	DB	01H
	DB	01H
	DB	077H
	DB	014H
	DB	05H
	DB	04fH
	DB	08H
	DB	08H
	DB	0fH
	DB	04fH
	DB	069H
	DB	06aH
	DB	044H
	DB	044H
	DB	076H
	DB	075H
	DB	0a8H
	DB	040H
	DB	08fH
	DB	062H
	DB	09H
	DB	09H
	DB	09H
	DB	09H
	DB	0f6H
	DB	06fH
	DB	0a6H
	DB	04fH
	DB	061H
	DB	0acH
	DB	061H
	DB	0acH
	DB	0acH
	DB	07H
	DB	07H
	DB	07H
	DB	0aeH
	DB	07H
	DB	0f0H
	DB	01H
	DB	014H
	DB	01H
	DB	01H
	DB	01H
	DB	01H
	DB	01H
	DB	01H
	DB	01H
	DB	01H
	DB	01H
	DB	01H
	DB	01H
	DB	01H
	DB	01H
	DB	01H
	DB	01H
	DB	01H
	DB	01H
	DB	03H
	DB	05bH
	DB	00H
	DB	00H
	DB	00H
	DB	00H
	DB	00H
	DB	04aH
	DB	081H
	DB	01H
	DB	01H
	DB	027H
	DB	0b6H
	DB	070H
	DB	039H
	DB	039H
	DB	039H
	DB	039H
	DB	039H
	DB	039H
	DB	022H
	DB	0cfH
	DB	02aH
	DB	0afH
	DB	015H
	DB	077H
	DB	027H
	DB	0b6H
	DB	070H
	DB	039H
	DB	071H
	DB	02bH
	DB	093H
	DB	01H
	DB	01H
	DB	01H
	DB	063H
	DB	0d7H
	DB	08aH
	DB	08aH
	DB	049H
	DB	01eH
	DB	077H
	DB	01H
	DB	01H
	DB	01H
	DB	04H
	DB	06dH
	DB	071H
	DB	089H
	DB	0baH
	DB	01eH
	DB	014H
	DB	01H
	DB	01H
	DB	01H
	DB	01H
	DB	02cH
	DB	0dH
	DB	04bH
	DB	084H
	DB	039H
	DB	089H
	DB	022H
	DB	037H
	DB	053H
	DB	065H
	DB	04H
	DB	077H
	DB	01H
	DB	077H
	DB	014H
	DB	05H
	DB	0fH
	DB	01H
	DB	010H
	DB	06H
	DB	06H
	DB	069H
	DB	06aH
	DB	05aH
	DB	05aH
	DB	052H
	DB	0a8H
	DB	040H
	DB	026H
	DB	091H
	DB	09H
	DB	09H
	DB	09H
	DB	09H
	DB	09H
	DB	09H
	DB	0f8H
	DB	0c4H
	DB	045H
	DB	0a8H
	DB	0fH
	DB	0aH
	DB	07H
	DB	07H
	DB	07H
	DB	07H
	DB	0ffH
	DB	0ffH
	DB	0ffH
	DB	0aeH
	DB	02H
	DB	06H
	DB	054H
	DB	03H
	DB	01H
	DB	01H
	DB	01H
	DB	01H
	DB	01H
	DB	01H
	DB	01H
	DB	01H
	DB	01H
	DB	01H
	DB	01H
	DB	01H
	DB	01H
	DB	01H
	DB	01H
	DB	01H
	DB	03H
	DB	05bH
	DB	00H
	DB	00H
	DB	00H
	DB	00H
	DB	00H
	DB	04aH
	DB	081H
	DB	01H
	DB	077H
	DB	01H
	DB	03H
	DB	035H
	DB	02aH
	DB	02aH
	DB	02aH
	DB	02aH
	DB	02aH
	DB	02aH
	DB	05bH
	DB	05bH
	DB	01eH
	DB	015H
	DB	014H
	DB	01H
	DB	01H
	DB	03H
	DB	035H
	DB	02aH
	DB	02aH
	DB	035H
	DB	03H
	DB	01H
	DB	01H
	DB	01H
	DB	014H
	DB	04H
	DB	0dH
	DB	02aH
	DB	0dH
	DB	015H
	DB	077H
	DB	01H
	DB	01H
	DB	01H
	DB	014H
	DB	07eH
	DB	02aH
	DB	02aH
	DB	0dH
	DB	093H
	DB	077H
	DB	01H
	DB	01H
	DB	01H
	DB	01H
	DB	077H
	DB	093H
	DB	0dH
	DB	05bH
	DB	02aH
	DB	02aH
	DB	04aH
	DB	00H
	DB	05bH
	DB	07eH
	DB	093H
	DB	014H
	DB	077H
	DB	014H
	DB	05H
	DB	0fH
	DB	014H
	DB	011H
	DB	0a8H
	DB	06H
	DB	069H
	DB	06aH
	DB	05aH
	DB	030H
	DB	059H
	DB	0fbH
	DB	021H
	DB	062H
	DB	09H
	DB	09H
	DB	09H
	DB	09H
	DB	09H
	DB	09H
	DB	09H
	DB	09H
	DB	083H
	DB	0b8H
	DB	0cH
	DB	02H
	DB	08fH
	DB	0fH
	DB	0cH
	DB	0ffH
	DB	0ffH
	DB	0ffH
	DB	0ffH
	DB	0aeH
	DB	0aeH
	DB	02H
	DB	02H
	DB	02H
	DB	0fbH
	DB	08H
	DB	014H
	DB	01H
	DB	01H
	DB	01H
	DB	01H
	DB	01H
	DB	01H
	DB	01H
	DB	01H
	DB	01H
	DB	01H
	DB	01H
	DB	01H
	DB	01H
	DB	01H
	DB	01H
	DB	03H
	DB	05bH
	DB	00H
	DB	00H
	DB	00H
	DB	00H
	DB	00H
	DB	04aH
	DB	081H
	DB	01H
	DB	077H
	DB	01H
	DB	077H
	DB	093H
	DB	04H
	DB	04H
	DB	04H
	DB	04H
	DB	04H
	DB	04H
	DB	04H
	DB	015H
	DB	03H
	DB	014H
	DB	01H
	DB	01H
	DB	01H
	DB	077H
	DB	093H
	DB	04H
	DB	04H
	DB	015H
	DB	014H
	DB	01H
	DB	01H
	DB	01H
	DB	01H
	DB	03H
	DB	04H
	DB	07eH
	DB	04H
	DB	03H
	DB	077H
	DB	01H
	DB	01H
	DB	01H
	DB	01H
	DB	027H
	DB	04H
	DB	04H
	DB	015H
	DB	014H
	DB	01H
	DB	01H
	DB	01H
	DB	01H
	DB	01H
	DB	01H
	DB	077H
	DB	03H
	DB	093H
	DB	04H
	DB	04H
	DB	04H
	DB	04H
	DB	015H
	DB	03H
	DB	014H
	DB	01H
	DB	03H
	DB	0d2H
	DB	069H
	DB	03H
	DB	011H
	DB	04fH
	DB	06H
	DB	0f3H
	DB	03fH
	DB	05aH
	DB	05aH
	DB	059H
	DB	05H
	DB	068H
	DB	02H
	DB	09H
	DB	09H
	DB	09H
	DB	09H
	DB	09H
	DB	09H
	DB	09H
	DB	09H
	DB	09H
	DB	079H
	DB	07bH
	DB	07H
	DB	02H
	DB	09H
	DB	09H
	DB	0a8H
	DB	0a8H
	DB	0aeH
	DB	0aeH
	DB	0aeH
	DB	02H
	DB	02H
	DB	02H
	DB	02H
	DB	02H
	DB	02H
	DB	0aH
	DB	081H
	DB	014H
	DB	01H
	DB	01H
	DB	01H
	DB	01H
	DB	01H
	DB	01H
	DB	01H
	DB	01H
	DB	01H
	DB	01H
	DB	01H
	DB	01H
	DB	01H
	DB	01H
	DB	03H
	DB	05bH
	DB	00H
	DB	00H
	DB	00H
	DB	00H
	DB	00H
	DB	04aH
	DB	081H
	DB	01H
	DB	077H
	DB	01H
	DB	01H
	DB	014H
	DB	014H
	DB	014H
	DB	014H
	DB	014H
	DB	014H
	DB	014H
	DB	014H
	DB	014H
	DB	077H
	DB	01H
	DB	01H
	DB	01H
	DB	01H
	DB	01H
	DB	014H
	DB	014H
	DB	014H
	DB	014H
	DB	077H
	DB	01H
	DB	01H
	DB	01H
	DB	01H
	DB	077H
	DB	014H
	DB	014H
	DB	014H
	DB	077H
	DB	01H
	DB	01H
	DB	01H
	DB	01H
	DB	01H
	DB	077H
	DB	014H
	DB	014H
	DB	014H
	DB	077H
	DB	01H
	DB	01H
	DB	01H
	DB	01H
	DB	01H
	DB	01H
	DB	01H
	DB	01H
	DB	077H
	DB	014H
	DB	014H
	DB	014H
	DB	014H
	DB	077H
	DB	077H
	DB	01H
	DB	014H
	DB	08H
	DB	06H
	DB	0c1H
	DB	010H
	DB	04fH
	DB	06H
	DB	06H
	DB	045H
	DB	023H
	DB	05aH
	DB	032H
	DB	0fbH
	DB	025H
	DB	054H
	DB	0aH
	DB	02H
	DB	09H
	DB	09H
	DB	09H
	DB	09H
	DB	09H
	DB	09H
	DB	09H
	DB	091H
	DB	066H
	DB	0c5H
	DB	0aH
	DB	025H
	DB	09H
	DB	09H
	DB	09H
	DB	040H
	DB	0a7H
	DB	02H
	DB	02H
	DB	02H
	DB	02H
	DB	02H
	DB	02H
	DB	02H
	DB	02H
	DB	02H
	DB	0fbH
	DB	08H
	DB	014H
	DB	01H
	DB	01H
	DB	01H
	DB	01H
	DB	01H
	DB	01H
	DB	01H
	DB	01H
	DB	01H
	DB	01H
	DB	01H
	DB	01H
	DB	01H
	DB	03H
	DB	05bH
	DB	00H
	DB	00H
	DB	00H
	DB	00H
	DB	00H
	DB	04aH
	DB	081H
	DB	01H
	DB	077H
	DB	01H
	DB	01H
	DB	01H
	DB	01H
	DB	01H
	DB	01H
	DB	01H
	DB	01H
	DB	01H
	DB	01H
	DB	01H
	DB	01H
	DB	01H
	DB	01H
	DB	01H
	DB	01H
	DB	01H
	DB	01H
	DB	01H
	DB	01H
	DB	01H
	DB	01H
	DB	01H
	DB	01H
	DB	01H
	DB	01H
	DB	01H
	DB	01H
	DB	01H
	DB	01H
	DB	01H
	DB	01H
	DB	01H
	DB	01H
	DB	01H
	DB	01H
	DB	01H
	DB	01H
	DB	01H
	DB	01H
	DB	01H
	DB	01H
	DB	01H
	DB	01H
	DB	01H
	DB	01H
	DB	01H
	DB	01H
	DB	01H
	DB	01H
	DB	01H
	DB	01H
	DB	01H
	DB	01H
	DB	01H
	DB	01H
	DB	077H
	DB	077H
	DB	0fH
	DB	095H
	DB	08H
	DB	06H
	DB	06H
	DB	06H
	DB	06H
	DB	052H
	DB	05aH
	DB	076H
	DB	0a8H
	DB	03aH
	DB	02H
	DB	0fH
	DB	08H
	DB	02H
	DB	09H
	DB	09H
	DB	09H
	DB	09H
	DB	09H
	DB	09H
	DB	09H
	DB	0feH
	DB	04dH
	DB	02dH
	DB	012H
	DB	010H
	DB	091H
	DB	09H
	DB	09H
	DB	09H
	DB	021H
	DB	0cH
	DB	02H
	DB	02H
	DB	02H
	DB	02H
	DB	02H
	DB	02H
	DB	02H
	DB	0ffH
	DB	07H
	DB	0fH
	DB	01H
	DB	014H
	DB	01H
	DB	01H
	DB	01H
	DB	01H
	DB	01H
	DB	01H
	DB	01H
	DB	01H
	DB	01H
	DB	01H
	DB	01H
	DB	01H
	DB	03H
	DB	05bH
	DB	00H
	DB	00H
	DB	00H
	DB	00H
	DB	00H
	DB	04aH
	DB	081H
	DB	01H
	DB	077H
	DB	01H
	DB	01H
	DB	01H
	DB	01H
	DB	01H
	DB	01H
	DB	01H
	DB	01H
	DB	01H
	DB	01H
	DB	01H
	DB	01H
	DB	01H
	DB	01H
	DB	01H
	DB	01H
	DB	01H
	DB	01H
	DB	01H
	DB	01H
	DB	01H
	DB	01H
	DB	01H
	DB	01H
	DB	01H
	DB	01H
	DB	01H
	DB	01H
	DB	01H
	DB	01H
	DB	01H
	DB	01H
	DB	01H
	DB	01H
	DB	01H
	DB	01H
	DB	01H
	DB	01H
	DB	01H
	DB	01H
	DB	01H
	DB	01H
	DB	01H
	DB	01H
	DB	01H
	DB	01H
	DB	01H
	DB	01H
	DB	01H
	DB	01H
	DB	01H
	DB	01H
	DB	01H
	DB	01H
	DB	01H
	DB	01H
	DB	014H
	DB	095H
	DB	0fH
	DB	01H
	DB	0fH
	DB	04fH
	DB	06H
	DB	04fH
	DB	03fH
	DB	05aH
	DB	030H
	DB	06bH
	DB	021H
	DB	091H
	DB	09H
	DB	02H
	DB	06fH
	DB	05H
	DB	02H
	DB	09H
	DB	09H
	DB	09H
	DB	09H
	DB	09H
	DB	09H
	DB	0fdH
	DB	082H
	DB	0d3H
	DB	0c2H
	DB	06eH
	DB	09H
	DB	09H
	DB	09H
	DB	09H
	DB	09H
	DB	021H
	DB	0a8H
	DB	02H
	DB	02H
	DB	02H
	DB	0aeH
	DB	07H
	DB	0aH
	DB	0cH
	DB	06H
	DB	0fH
	DB	095H
	DB	077H
	DB	077H
	DB	01H
	DB	01H
	DB	01H
	DB	01H
	DB	01H
	DB	01H
	DB	01H
	DB	01H
	DB	01H
	DB	01H
	DB	01H
	DB	03H
	DB	05bH
	DB	00H
	DB	00H
	DB	00H
	DB	00H
	DB	00H
	DB	04aH
	DB	081H
	DB	01H
	DB	077H
	DB	01H
	DB	01H
	DB	01H
	DB	01H
	DB	01H
	DB	01H
	DB	01H
	DB	01H
	DB	01H
	DB	01H
	DB	01H
	DB	01H
	DB	01H
	DB	01H
	DB	01H
	DB	01H
	DB	01H
	DB	01H
	DB	01H
	DB	01H
	DB	01H
	DB	01H
	DB	01H
	DB	01H
	DB	01H
	DB	01H
	DB	01H
	DB	01H
	DB	01H
	DB	01H
	DB	01H
	DB	01H
	DB	01H
	DB	01H
	DB	01H
	DB	01H
	DB	01H
	DB	01H
	DB	01H
	DB	01H
	DB	01H
	DB	01H
	DB	01H
	DB	01H
	DB	01H
	DB	01H
	DB	01H
	DB	01H
	DB	01H
	DB	01H
	DB	01H
	DB	01H
	DB	01H
	DB	01H
	DB	01H
	DB	077H
	DB	01H
	DB	0fH
	DB	012H
	DB	010H
	DB	0a7H
	DB	06H
	DB	04fH
	DB	06H
	DB	052H
	DB	044H
	DB	032H
	DB	0cH
	DB	034H
	DB	09H
	DB	09H
	DB	09H
	DB	034H
	DB	040H
	DB	09H
	DB	09H
	DB	09H
	DB	09H
	DB	09H
	DB	09H
	DB	09H
	DB	0adH
	DB	055H
	DB	078H
	DB	0f2H
	DB	06eH
	DB	016H
	DB	09H
	DB	016H
	DB	020H
	DB	013H
	DB	013H
	DB	06bH
	DB	0cH
	DB	0aeH
	DB	07H
	DB	0aH
	DB	0a7H
	DB	069H
	DB	0fH
	DB	05H
	DB	05H
	DB	05H
	DB	081H
	DB	014H
	DB	01H
	DB	01H
	DB	01H
	DB	01H
	DB	01H
	DB	01H
	DB	01H
	DB	01H
	DB	01H
	DB	01H
	DB	01H
	DB	03H
	DB	05bH
	DB	00H
	DB	00H
	DB	00H
	DB	00H
	DB	00H
	DB	04aH
	DB	081H
	DB	01H
	DB	077H
	DB	01H
	DB	01H
	DB	01H
	DB	01H
	DB	01H
	DB	01H
	DB	01H
	DB	01H
	DB	01H
	DB	01H
	DB	01H
	DB	01H
	DB	01H
	DB	01H
	DB	01H
	DB	01H
	DB	01H
	DB	01H
	DB	01H
	DB	01H
	DB	01H
	DB	01H
	DB	01H
	DB	01H
	DB	01H
	DB	01H
	DB	01H
	DB	01H
	DB	01H
	DB	01H
	DB	01H
	DB	01H
	DB	01H
	DB	01H
	DB	01H
	DB	01H
	DB	01H
	DB	01H
	DB	01H
	DB	01H
	DB	01H
	DB	01H
	DB	01H
	DB	01H
	DB	01H
	DB	01H
	DB	01H
	DB	01H
	DB	01H
	DB	01H
	DB	01H
	DB	01H
	DB	01H
	DB	01H
	DB	01H
	DB	014H
	DB	012H
	DB	05H
	DB	08H
	DB	069H
	DB	0a7H
	DB	04fH
	DB	0a7H
	DB	03dH
	DB	030H
	DB	030H
	DB	03dH
	DB	021H
	DB	09H
	DB	09H
	DB	09H
	DB	09H
	DB	09H
	DB	02H
	DB	09H
	DB	09H
	DB	09H
	DB	09H
	DB	09H
	DB	016H
	DB	09H
	DB	0a9H
	DB	024H
	DB	083H
	DB	09H
	DB	021H
	DB	026H
	DB	013H
	DB	0eH
	DB	0eH
	DB	0eH
	DB	0eH
	DB	0eH
	DB	075H
	DB	069H
	DB	04fH
	DB	0fH
	DB	05H
	DB	05H
	DB	05H
	DB	05H
	DB	05H
	DB	05H
	DB	0f0H
	DB	054H
	DB	014H
	DB	01H
	DB	01H
	DB	01H
	DB	01H
	DB	01H
	DB	01H
	DB	01H
	DB	01H
	DB	01H
	DB	01H
	DB	03H
	DB	05bH
	DB	00H
	DB	00H
	DB	00H
	DB	00H
	DB	00H
	DB	04aH
	DB	081H
	DB	01H
	DB	077H
	DB	01H
	DB	01H
	DB	01H
	DB	01H
	DB	01H
	DB	01H
	DB	01H
	DB	01H
	DB	01H
	DB	01H
	DB	01H
	DB	01H
	DB	01H
	DB	01H
	DB	01H
	DB	01H
	DB	01H
	DB	01H
	DB	01H
	DB	01H
	DB	01H
	DB	01H
	DB	01H
	DB	01H
	DB	01H
	DB	01H
	DB	01H
	DB	01H
	DB	01H
	DB	01H
	DB	01H
	DB	01H
	DB	01H
	DB	01H
	DB	01H
	DB	01H
	DB	01H
	DB	01H
	DB	01H
	DB	01H
	DB	01H
	DB	01H
	DB	01H
	DB	01H
	DB	01H
	DB	01H
	DB	01H
	DB	01H
	DB	01H
	DB	01H
	DB	01H
	DB	01H
	DB	01H
	DB	01H
	DB	01H
	DB	014H
	DB	05H
	DB	010H
	DB	010H
	DB	0a7H
	DB	0a7H
	DB	0cH
	DB	0a7H
	DB	050H
	DB	044H
	DB	052H
	DB	0cH
	DB	034H
	DB	09H
	DB	09H
	DB	09H
	DB	09H
	DB	09H
	DB	09H
	DB	09H
	DB	09H
	DB	09H
	DB	09H
	DB	016H
	DB	016H
	DB	09H
	DB	08dH
	DB	04cH
	DB	079H
	DB	016H
	DB	033H
	DB	052H
	DB	01cH
	DB	01cH
	DB	01cH
	DB	0eH
	DB	0eH
	DB	0eH
	DB	0eH
	DB	01fH
	DB	011H
	DB	05H
	DB	05H
	DB	05H
	DB	05H
	DB	05H
	DB	05H
	DB	05H
	DB	0fH
	DB	0ccH
	DB	01H
	DB	077H
	DB	01H
	DB	01H
	DB	01H
	DB	01H
	DB	01H
	DB	01H
	DB	01H
	DB	01H
	DB	01H
	DB	03H
	DB	05bH
	DB	00H
	DB	00H
	DB	00H
	DB	00H
	DB	00H
	DB	04aH
	DB	081H
	DB	01H
	DB	077H
	DB	01H
	DB	01H
	DB	01H
	DB	01H
	DB	01H
	DB	01H
	DB	01H
	DB	01H
	DB	01H
	DB	01H
	DB	01H
	DB	01H
	DB	01H
	DB	01H
	DB	01H
	DB	01H
	DB	01H
	DB	01H
	DB	01H
	DB	01H
	DB	01H
	DB	01H
	DB	01H
	DB	01H
	DB	01H
	DB	01H
	DB	01H
	DB	01H
	DB	01H
	DB	01H
	DB	01H
	DB	01H
	DB	01H
	DB	01H
	DB	01H
	DB	01H
	DB	01H
	DB	01H
	DB	01H
	DB	01H
	DB	01H
	DB	01H
	DB	01H
	DB	01H
	DB	01H
	DB	01H
	DB	01H
	DB	01H
	DB	01H
	DB	01H
	DB	01H
	DB	01H
	DB	01H
	DB	01H
	DB	077H
	DB	054H
	DB	0fH
	DB	012H
	DB	0fH
	DB	0cH
	DB	0cH
	DB	0cH
	DB	0cH
	DB	047H
	DB	030H
	DB	075H
	DB	021H
	DB	09H
	DB	09H
	DB	09H
	DB	09H
	DB	09H
	DB	09H
	DB	09H
	DB	09H
	DB	09H
	DB	016H
	DB	016H
	DB	016H
	DB	016H
	DB	09H
	DB	088H
	DB	04cH
	DB	066H
	DB	01cH
	DB	031H
	DB	031H
	DB	01cH
	DB	01cH
	DB	01cH
	DB	01cH
	DB	01cH
	DB	01cH
	DB	0eH
	DB	0eH
	DB	068H
	DB	0a6H
	DB	05H
	DB	05H
	DB	05H
	DB	05H
	DB	0fH
	DB	0fH
	DB	0fH
	DB	0fH
	DB	012H
	DB	014H
	DB	01H
	DB	01H
	DB	01H
	DB	01H
	DB	01H
	DB	01H
	DB	01H
	DB	01H
	DB	01H
	DB	03H
	DB	05bH
	DB	00H
	DB	00H
	DB	00H
	DB	00H
	DB	00H
	DB	04aH
	DB	081H
	DB	01H
	DB	077H
	DB	01H
	DB	01H
	DB	01H
	DB	01H
	DB	01H
	DB	01H
	DB	01H
	DB	01H
	DB	01H
	DB	01H
	DB	01H
	DB	01H
	DB	01H
	DB	01H
	DB	01H
	DB	01H
	DB	01H
	DB	01H
	DB	01H
	DB	01H
	DB	01H
	DB	01H
	DB	01H
	DB	01H
	DB	01H
	DB	01H
	DB	01H
	DB	01H
	DB	01H
	DB	01H
	DB	01H
	DB	01H
	DB	01H
	DB	01H
	DB	01H
	DB	01H
	DB	01H
	DB	01H
	DB	01H
	DB	01H
	DB	01H
	DB	01H
	DB	01H
	DB	01H
	DB	01H
	DB	01H
	DB	01H
	DB	01H
	DB	01H
	DB	01H
	DB	01H
	DB	01H
	DB	01H
	DB	01H
	DB	03H
	DB	095H
	DB	05H
	DB	095H
	DB	0a7H
	DB	0cH
	DB	0cH
	DB	07dH
	DB	025H
	DB	0efH
	DB	0efH
	DB	025H
	DB	08fH
	DB	09H
	DB	09H
	DB	09H
	DB	09H
	DB	09H
	DB	09H
	DB	09H
	DB	09H
	DB	016H
	DB	016H
	DB	016H
	DB	016H
	DB	016H
	DB	016H
	DB	083H
	DB	04cH
	DB	04dH
	DB	0efH
	DB	01bH
	DB	01bH
	DB	023H
	DB	023H
	DB	023H
	DB	023H
	DB	01cH
	DB	01cH
	DB	01cH
	DB	0eH
	DB	059H
	DB	012H
	DB	05H
	DB	0fH
	DB	0fH
	DB	0fH
	DB	0fH
	DB	0fH
	DB	0fH
	DB	06H
	DB	05H
	DB	054H
	DB	077H
	DB	01H
	DB	01H
	DB	01H
	DB	01H
	DB	01H
	DB	01H
	DB	01H
	DB	01H
	DB	03H
	DB	05bH
	DB	00H
	DB	00H
	DB	00H
	DB	00H
	DB	00H
	DB	04aH
	DB	081H
	DB	01H
	DB	077H
	DB	01H
	DB	01H
	DB	01H
	DB	01H
	DB	01H
	DB	01H
	DB	01H
	DB	01H
	DB	01H
	DB	01H
	DB	01H
	DB	01H
	DB	01H
	DB	01H
	DB	01H
	DB	01H
	DB	01H
	DB	01H
	DB	01H
	DB	01H
	DB	01H
	DB	01H
	DB	01H
	DB	01H
	DB	01H
	DB	01H
	DB	01H
	DB	01H
	DB	01H
	DB	01H
	DB	01H
	DB	01H
	DB	01H
	DB	01H
	DB	01H
	DB	01H
	DB	01H
	DB	01H
	DB	01H
	DB	01H
	DB	01H
	DB	01H
	DB	01H
	DB	01H
	DB	01H
	DB	01H
	DB	01H
	DB	01H
	DB	01H
	DB	01H
	DB	01H
	DB	01H
	DB	01H
	DB	01H
	DB	014H
	DB	011H
	DB	011H
	DB	0f0H
	DB	0fbH
	DB	0fbH
	DB	0fbH
	DB	0fcH
	DB	075H
	DB	05dH
	DB	031H
	DB	06H
	DB	062H
	DB	09H
	DB	09H
	DB	09H
	DB	09H
	DB	09H
	DB	09H
	DB	09H
	DB	016H
	DB	016H
	DB	016H
	DB	016H
	DB	016H
	DB	0eH
	DB	0abH
	DB	066H
	DB	04cH
	DB	018H
	DB	0eeH
	DB	08bH
	DB	0ecH
	DB	030H
	DB	044H
	DB	030H
	DB	023H
	DB	023H
	DB	023H
	DB	01cH
	DB	01cH
	DB	0abH
	DB	09aH
	DB	0f1H
	DB	0fH
	DB	0fH
	DB	0fH
	DB	0fH
	DB	069H
	DB	069H
	DB	06H
	DB	06H
	DB	010H
	DB	014H
	DB	01H
	DB	01H
	DB	01H
	DB	01H
	DB	01H
	DB	01H
	DB	01H
	DB	01H
	DB	03H
	DB	05bH
	DB	00H
	DB	00H
	DB	00H
	DB	00H
	DB	00H
	DB	04aH
	DB	081H
	DB	01H
	DB	077H
	DB	01H
	DB	01H
	DB	01H
	DB	01H
	DB	01H
	DB	01H
	DB	01H
	DB	01H
	DB	01H
	DB	01H
	DB	01H
	DB	01H
	DB	01H
	DB	01H
	DB	01H
	DB	01H
	DB	01H
	DB	01H
	DB	01H
	DB	01H
	DB	01H
	DB	01H
	DB	01H
	DB	01H
	DB	01H
	DB	01H
	DB	01H
	DB	01H
	DB	01H
	DB	01H
	DB	01H
	DB	01H
	DB	01H
	DB	01H
	DB	01H
	DB	01H
	DB	01H
	DB	01H
	DB	01H
	DB	01H
	DB	01H
	DB	01H
	DB	01H
	DB	01H
	DB	01H
	DB	01H
	DB	01H
	DB	01H
	DB	01H
	DB	01H
	DB	01H
	DB	01H
	DB	01H
	DB	077H
	DB	01H
	DB	0f0H
	DB	0ccH
	DB	0fH
	DB	0fbH
	DB	0fbH
	DB	0aH
	DB	0aH
	DB	050H
	DB	05dH
	DB	050H
	DB	0cH
	DB	091H
	DB	09H
	DB	09H
	DB	09H
	DB	09H
	DB	09H
	DB	09H
	DB	016H
	DB	016H
	DB	016H
	DB	016H
	DB	013H
	DB	052H
	DB	032H
	DB	033H
	DB	066H
	DB	04cH
	DB	018H
	DB	050H
	DB	09cH
	DB	0e0H
	DB	067H
	DB	058H
	DB	044H
	DB	030H
	DB	030H
	DB	023H
	DB	023H
	DB	01cH
	DB	01cH
	DB	0eH
	DB	05fH
	DB	05H
	DB	069H
	DB	069H
	DB	0f3H
	DB	06H
	DB	06H
	DB	04fH
	DB	0cH
	DB	0fH
	DB	054H
	DB	014H
	DB	01H
	DB	01H
	DB	01H
	DB	01H
	DB	01H
	DB	01H
	DB	01H
	DB	03H
	DB	05bH
	DB	00H
	DB	00H
	DB	00H
	DB	00H
	DB	00H
	DB	04aH
	DB	081H
	DB	01H
	DB	077H
	DB	01H
	DB	01H
	DB	01H
	DB	01H
	DB	01H
	DB	01H
	DB	01H
	DB	01H
	DB	01H
	DB	01H
	DB	01H
	DB	01H
	DB	01H
	DB	01H
	DB	01H
	DB	01H
	DB	01H
	DB	01H
	DB	01H
	DB	01H
	DB	01H
	DB	01H
	DB	01H
	DB	01H
	DB	01H
	DB	01H
	DB	01H
	DB	01H
	DB	01H
	DB	01H
	DB	01H
	DB	01H
	DB	01H
	DB	01H
	DB	01H
	DB	01H
	DB	01H
	DB	01H
	DB	01H
	DB	01H
	DB	01H
	DB	01H
	DB	01H
	DB	01H
	DB	01H
	DB	01H
	DB	01H
	DB	01H
	DB	01H
	DB	01H
	DB	01H
	DB	01H
	DB	01H
	DB	014H
	DB	054H
	DB	05H
	DB	011H
	DB	0a7H
	DB	0aH
	DB	0aH
	DB	0aH
	DB	061H
	DB	052H
	DB	072H
	DB	050H
	DB	021H
	DB	09H
	DB	09H
	DB	09H
	DB	09H
	DB	09H
	DB	09H
	DB	016H
	DB	016H
	DB	016H
	DB	016H
	DB	0eH
	DB	031H
	DB	026H
	DB	02H
	DB	02H
	DB	066H
	DB	04cH
	DB	018H
	DB	0adH
	DB	0acH
	DB	025H
	DB	01bH
	DB	0a2H
	DB	058H
	DB	058H
	DB	044H
	DB	030H
	DB	023H
	DB	023H
	DB	01cH
	DB	01cH
	DB	01cH
	DB	01fH
	DB	069H
	DB	06H
	DB	06H
	DB	04fH
	DB	0a7H
	DB	0cH
	DB	0cH
	DB	0fbH
	DB	010H
	DB	014H
	DB	01H
	DB	01H
	DB	01H
	DB	01H
	DB	01H
	DB	01H
	DB	01H
	DB	03H
	DB	05bH
	DB	00H
	DB	00H
	DB	00H
	DB	00H
	DB	00H
	DB	04aH
	DB	081H
	DB	01H
	DB	077H
	DB	01H
	DB	01H
	DB	01H
	DB	01H
	DB	01H
	DB	01H
	DB	01H
	DB	01H
	DB	01H
	DB	01H
	DB	01H
	DB	01H
	DB	01H
	DB	01H
	DB	01H
	DB	01H
	DB	01H
	DB	01H
	DB	01H
	DB	01H
	DB	01H
	DB	01H
	DB	01H
	DB	01H
	DB	01H
	DB	01H
	DB	01H
	DB	01H
	DB	01H
	DB	01H
	DB	01H
	DB	01H
	DB	01H
	DB	01H
	DB	01H
	DB	01H
	DB	01H
	DB	01H
	DB	01H
	DB	01H
	DB	01H
	DB	01H
	DB	01H
	DB	01H
	DB	01H
	DB	01H
	DB	01H
	DB	01H
	DB	01H
	DB	01H
	DB	01H
	DB	01H
	DB	01H
	DB	014H
	DB	012H
	DB	0fH
	DB	0f0H
	DB	0fbH
	DB	0aH
	DB	0aH
	DB	061H
	DB	0aH
	DB	047H
	DB	067H
	DB	060H
	DB	021H
	DB	09H
	DB	09H
	DB	09H
	DB	09H
	DB	09H
	DB	09H
	DB	016H
	DB	016H
	DB	016H
	DB	013H
	DB	031H
	DB	062H
	DB	02H
	DB	02H
	DB	0feH
	DB	04dH
	DB	024H
	DB	018H
	DB	0f7H
	DB	061H
	DB	061H
	DB	0aeH
	DB	08eH
	DB	0a2H
	DB	072H
	DB	058H
	DB	058H
	DB	030H
	DB	023H
	DB	01cH
	DB	0eH
	DB	020H
	DB	03aH
	DB	0fH
	DB	04fH
	DB	0a7H
	DB	0cH
	DB	0cH
	DB	07dH
	DB	0fbH
	DB	0aH
	DB	0fH
	DB	01H
	DB	077H
	DB	01H
	DB	01H
	DB	01H
	DB	01H
	DB	01H
	DB	01H
	DB	03H
	DB	05bH
	DB	00H
	DB	00H
	DB	00H
	DB	00H
	DB	00H
	DB	04aH
	DB	081H
	DB	01H
	DB	077H
	DB	01H
	DB	01H
	DB	01H
	DB	01H
	DB	01H
	DB	01H
	DB	01H
	DB	01H
	DB	01H
	DB	01H
	DB	01H
	DB	01H
	DB	01H
	DB	01H
	DB	01H
	DB	01H
	DB	01H
	DB	01H
	DB	01H
	DB	01H
	DB	01H
	DB	01H
	DB	01H
	DB	01H
	DB	01H
	DB	01H
	DB	01H
	DB	01H
	DB	01H
	DB	01H
	DB	01H
	DB	01H
	DB	01H
	DB	01H
	DB	01H
	DB	01H
	DB	01H
	DB	01H
	DB	01H
	DB	01H
	DB	01H
	DB	01H
	DB	01H
	DB	01H
	DB	01H
	DB	01H
	DB	01H
	DB	01H
	DB	01H
	DB	01H
	DB	01H
	DB	01H
	DB	01H
	DB	014H
	DB	010H
	DB	0fH
	DB	05H
	DB	0aH
	DB	0aH
	DB	061H
	DB	0acH
	DB	061H
	DB	0a3H
	DB	029H
	DB	060H
	DB	021H
	DB	02H
	DB	02H
	DB	09H
	DB	09H
	DB	09H
	DB	09H
	DB	016H
	DB	016H
	DB	016H
	DB	052H
	DB	026H
	DB	02H
	DB	02H
	DB	08eH
	DB	07cH
	DB	018H
	DB	024H
	DB	018H
	DB	0d6H
	DB	02fH
	DB	045H
	DB	0aeH
	DB	02H
	DB	08eH
	DB	0a2H
	DB	044H
	DB	06cH
	DB	020H
	DB	020H
	DB	016H
	DB	016H
	DB	016H
	DB	016H
	DB	0a8H
	DB	04fH
	DB	0cH
	DB	07dH
	DB	0fbH
	DB	0fcH
	DB	0aH
	DB	0acH
	DB	0aH
	DB	081H
	DB	014H
	DB	01H
	DB	01H
	DB	01H
	DB	01H
	DB	077H
	DB	01H
	DB	03H
	DB	05bH
	DB	00H
	DB	00H
	DB	00H
	DB	00H
	DB	00H
	DB	04aH
	DB	081H
	DB	01H
	DB	077H
	DB	01H
	DB	01H
	DB	01H
	DB	01H
	DB	01H
	DB	01H
	DB	01H
	DB	01H
	DB	01H
	DB	01H
	DB	01H
	DB	01H
	DB	01H
	DB	01H
	DB	01H
	DB	01H
	DB	01H
	DB	01H
	DB	01H
	DB	01H
	DB	01H
	DB	01H
	DB	01H
	DB	01H
	DB	01H
	DB	01H
	DB	01H
	DB	01H
	DB	01H
	DB	01H
	DB	01H
	DB	01H
	DB	01H
	DB	01H
	DB	01H
	DB	01H
	DB	01H
	DB	01H
	DB	01H
	DB	01H
	DB	01H
	DB	01H
	DB	01H
	DB	01H
	DB	01H
	DB	01H
	DB	01H
	DB	01H
	DB	01H
	DB	01H
	DB	01H
	DB	01H
	DB	01H
	DB	03H
	DB	0ccH
	DB	069H
	DB	0fH
	DB	061H
	DB	061H
	DB	0acH
	DB	07H
	DB	0acH
	DB	0a3H
	DB	029H
	DB	025H
	DB	010H
	DB	06eH
	DB	011H
	DB	021H
	DB	021H
	DB	081H
	DB	0dbH
	DB	016H
	DB	016H
	DB	0eH
	DB	032H
	DB	02H
	DB	02H
	DB	032H
	DB	0eaH
	DB	07cH
	DB	018H
	DB	024H
	DB	018H
	DB	04eH
	DB	02fH
	DB	0deH
	DB	03dH
	DB	02H
	DB	02H
	DB	032H
	DB	05cH
	DB	020H
	DB	020H
	DB	020H
	DB	020H
	DB	020H
	DB	016H
	DB	016H
	DB	026H
	DB	04fH
	DB	0fbH
	DB	0aH
	DB	0aH
	DB	0aH
	DB	0acH
	DB	0acH
	DB	0ffH
	DB	011H
	DB	03H
	DB	01H
	DB	077H
	DB	077H
	DB	077H
	DB	077H
	DB	077H
	DB	03H
	DB	05bH
	DB	00H
	DB	00H
	DB	00H
	DB	00H
	DB	00H
	DB	04aH
	DB	081H
	DB	01H
	DB	077H
	DB	01H
	DB	01H
	DB	014H
	DB	015H
	DB	015H
	DB	015H
	DB	015H
	DB	015H
	DB	015H
	DB	015H
	DB	093H
	DB	01H
	DB	01H
	DB	01H
	DB	01H
	DB	01H
	DB	03H
	DB	015H
	DB	015H
	DB	015H
	DB	03H
	DB	01H
	DB	01H
	DB	01H
	DB	01H
	DB	01H
	DB	01H
	DB	01H
	DB	01H
	DB	01H
	DB	01H
	DB	01H
	DB	01H
	DB	01H
	DB	01H
	DB	01H
	DB	01H
	DB	01H
	DB	01H
	DB	01H
	DB	01H
	DB	01H
	DB	01H
	DB	01H
	DB	01H
	DB	01H
	DB	01H
	DB	01H
	DB	01H
	DB	01H
	DB	01H
	DB	01H
	DB	01H
	DB	03H
	DB	011H
	DB	069H
	DB	0f3H
	DB	0acH
	DB	0acH
	DB	07H
	DB	07H
	DB	061H
	DB	0eeH
	DB	029H
	DB	025H
	DB	040H
	DB	0fH
	DB	08H
	DB	068H
	DB	011H
	DB	0f1H
	DB	0f1H
	DB	05eH
	DB	09H
	DB	052H
	DB	03aH
	DB	02H
	DB	026H
	DB	0a1H
	DB	0edH
	DB	0e7H
	DB	082H
	DB	024H
	DB	018H
	DB	04eH
	DB	01fH
	DB	02fH
	DB	09cH
	DB	051H
	DB	02H
	DB	02H
	DB	0edH
	DB	01cH
	DB	020H
	DB	020H
	DB	020H
	DB	020H
	DB	016H
	DB	016H
	DB	016H
	DB	040H
	DB	0aH
	DB	061H
	DB	0acH
	DB	0acH
	DB	07H
	DB	07H
	DB	0aeH
	DB	04fH
	DB	01H
	DB	077H
	DB	077H
	DB	077H
	DB	014H
	DB	014H
	DB	014H
	DB	03H
	DB	05bH
	DB	00H
	DB	00H
	DB	00H
	DB	00H
	DB	00H
	DB	04aH
	DB	081H
	DB	01H
	DB	077H
	DB	01H
	DB	01H
	DB	04H
	DB	081H
	DB	012H
	DB	012H
	DB	012H
	DB	012H
	DB	012H
	DB	012H
	DB	054H
	DB	03H
	DB	01H
	DB	01H
	DB	014H
	DB	04H
	DB	01H
	DB	081H
	DB	012H
	DB	081H
	DB	0c1H
	DB	03H
	DB	077H
	DB	01H
	DB	01H
	DB	01H
	DB	01H
	DB	01H
	DB	01H
	DB	01H
	DB	01H
	DB	01H
	DB	01H
	DB	01H
	DB	01H
	DB	01H
	DB	01H
	DB	01H
	DB	01H
	DB	01H
	DB	01H
	DB	01H
	DB	01H
	DB	01H
	DB	01H
	DB	01H
	DB	01H
	DB	01H
	DB	01H
	DB	01H
	DB	01H
	DB	01H
	DB	01H
	DB	03H
	DB	011H
	DB	06H
	DB	06H
	DB	07H
	DB	07H
	DB	07H
	DB	07H
	DB	0fcH
	DB	0a3H
	DB	029H
	DB	03dH
	DB	08fH
	DB	02H
	DB	02H
	DB	02H
	DB	05eH
	DB	05H
	DB	025H
	DB	0cbH
	DB	020H
	DB	047H
	DB	091H
	DB	02H
	DB	06aH
	DB	08bH
	DB	0aaH
	DB	09dH
	DB	082H
	DB	024H
	DB	018H
	DB	066H
	DB	01fH
	DB	01fH
	DB	03fH
	DB	03cH
	DB	03aH
	DB	02H
	DB	013H
	DB	057H
	DB	020H
	DB	020H
	DB	020H
	DB	020H
	DB	016H
	DB	016H
	DB	016H
	DB	08fH
	DB	0aH
	DB	07H
	DB	07H
	DB	07H
	DB	0ffH
	DB	0ffH
	DB	02H
	DB	0acH
	DB	08H
	DB	014H
	DB	014H
	DB	014H
	DB	014H
	DB	014H
	DB	014H
	DB	093H
	DB	05bH
	DB	00H
	DB	00H
	DB	00H
	DB	00H
	DB	00H
	DB	04aH
	DB	081H
	DB	01H
	DB	077H
	DB	01H
	DB	014H
	DB	03H
	DB	02H
	DB	02H
	DB	02H
	DB	02H
	DB	02H
	DB	02H
	DB	02H
	DB	07dH
	DB	015H
	DB	077H
	DB	014H
	DB	015H
	DB	05H
	DB	0aeH
	DB	02H
	DB	02H
	DB	02H
	DB	02H
	DB	08H
	DB	03H
	DB	01H
	DB	01H
	DB	01H
	DB	01H
	DB	01H
	DB	01H
	DB	01H
	DB	01H
	DB	01H
	DB	01H
	DB	01H
	DB	01H
	DB	01H
	DB	01H
	DB	01H
	DB	01H
	DB	01H
	DB	01H
	DB	01H
	DB	01H
	DB	01H
	DB	01H
	DB	01H
	DB	01H
	DB	01H
	DB	01H
	DB	01H
	DB	01H
	DB	01H
	DB	01H
	DB	03H
	DB	0ccH
	DB	06H
	DB	0a7H
	DB	07H
	DB	07H
	DB	0ffH
	DB	061H
	DB	061H
	DB	06aH
	DB	029H
	DB	03dH
	DB	021H
	DB	09H
	DB	09H
	DB	09H
	DB	034H
	DB	096H
	DB	054H
	DB	068H
	DB	06cH
	DB	01bH
	DB	0ffH
	DB	09H
	DB	09bH
	DB	01bH
	DB	0aaH
	DB	09dH
	DB	082H
	DB	024H
	DB	018H
	DB	066H
	DB	01fH
	DB	01fH
	DB	03fH
	DB	032H
	DB	03cH
	DB	091H
	DB	02H
	DB	047H
	DB	01cH
	DB	020H
	DB	020H
	DB	020H
	DB	020H
	DB	016H
	DB	016H
	DB	016H
	DB	0aH
	DB	07H
	DB	0ffH
	DB	0ffH
	DB	0ffH
	DB	0aeH
	DB	02H
	DB	02H
	DB	010H
	DB	03H
	DB	014H
	DB	014H
	DB	014H
	DB	03H
	DB	014H
	DB	015H
	DB	05bH
	DB	00H
	DB	00H
	DB	00H
	DB	00H
	DB	00H
	DB	04aH
	DB	081H
	DB	01H
	DB	077H
	DB	01H
	DB	014H
	DB	03H
	DB	02H
	DB	02H
	DB	0acH
	DB	05H
	DB	05H
	DB	05H
	DB	05H
	DB	095H
	DB	04H
	DB	077H
	DB	04H
	DB	069H
	DB	02H
	DB	02H
	DB	0fH
	DB	012H
	DB	0ccH
	DB	0cH
	DB	054H
	DB	03H
	DB	01H
	DB	01H
	DB	01H
	DB	01H
	DB	01H
	DB	01H
	DB	01H
	DB	01H
	DB	01H
	DB	01H
	DB	01H
	DB	01H
	DB	01H
	DB	01H
	DB	01H
	DB	01H
	DB	01H
	DB	01H
	DB	01H
	DB	01H
	DB	01H
	DB	01H
	DB	01H
	DB	01H
	DB	01H
	DB	01H
	DB	01H
	DB	01H
	DB	01H
	DB	01H
	DB	014H
	DB	010H
	DB	06H
	DB	0a7H
	DB	07H
	DB	0ffH
	DB	07H
	DB	061H
	DB	07H
	DB	050H
	DB	0e8H
	DB	03fH
	DB	021H
	DB	09H
	DB	09H
	DB	09H
	DB	09H
	DB	016H
	DB	03aH
	DB	06cH
	DB	030H
	DB	031H
	DB	0aeH
	DB	062H
	DB	09bH
	DB	01bH
	DB	032H
	DB	079H
	DB	082H
	DB	024H
	DB	018H
	DB	017H
	DB	01fH
	DB	0f2H
	DB	060H
	DB	059H
	DB	03cH
	DB	051H
	DB	02H
	DB	026H
	DB	057H
	DB	020H
	DB	020H
	DB	020H
	DB	020H
	DB	016H
	DB	016H
	DB	016H
	DB	08fH
	DB	07H
	DB	0ffH
	DB	0aeH
	DB	0aeH
	DB	02H
	DB	02H
	DB	02H
	DB	05H
	DB	03H
	DB	03H
	DB	03H
	DB	03H
	DB	03H
	DB	03H
	DB	015H
	DB	05bH
	DB	00H
	DB	00H
	DB	00H
	DB	00H
	DB	00H
	DB	04aH
	DB	081H
	DB	01H
	DB	077H
	DB	01H
	DB	014H
	DB	03H
	DB	02H
	DB	02H
	DB	05H
	DB	00H
	DB	04aH
	DB	04aH
	DB	04aH
	DB	0dH
	DB	015H
	DB	015H
	DB	081H
	DB	02H
	DB	02H
	DB	011H
	DB	00H
	DB	04aH
	DB	04aH
	DB	0dH
	DB	04H
	DB	014H
	DB	01H
	DB	01H
	DB	01H
	DB	01H
	DB	01H
	DB	01H
	DB	01H
	DB	01H
	DB	01H
	DB	01H
	DB	01H
	DB	01H
	DB	01H
	DB	01H
	DB	01H
	DB	01H
	DB	01H
	DB	01H
	DB	01H
	DB	01H
	DB	01H
	DB	01H
	DB	01H
	DB	01H
	DB	01H
	DB	01H
	DB	01H
	DB	01H
	DB	01H
	DB	01H
	DB	014H
	DB	012H
	DB	069H
	DB	0cH
	DB	0ffH
	DB	0ffH
	DB	0acH
	DB	07H
	DB	090H
	DB	033H
	DB	0e8H
	DB	050H
	DB	040H
	DB	09H
	DB	09H
	DB	09H
	DB	09H
	DB	09H
	DB	020H
	DB	01cH
	DB	023H
	DB	01bH
	DB	09H
	DB	091H
	DB	09bH
	DB	031H
	DB	059H
	DB	098H
	DB	082H
	DB	024H
	DB	018H
	DB	017H
	DB	068H
	DB	0f2H
	DB	045H
	DB	059H
	DB	031H
	DB	03cH
	DB	0aeH
	DB	09H
	DB	0edH
	DB	020H
	DB	020H
	DB	020H
	DB	016H
	DB	016H
	DB	016H
	DB	09H
	DB	062H
	DB	07H
	DB	02H
	DB	02H
	DB	02H
	DB	02H
	DB	02H
	DB	02H
	DB	06H
	DB	014H
	DB	03H
	DB	03H
	DB	03H
	DB	03H
	DB	03H
	DB	015H
	DB	05bH
	DB	00H
	DB	00H
	DB	00H
	DB	00H
	DB	00H
	DB	04aH
	DB	081H
	DB	01H
	DB	077H
	DB	01H
	DB	03H
	DB	08H
	DB	02H
	DB	02H
	DB	05H
	DB	00H
	DB	035H
	DB	04H
	DB	015H
	DB	015H
	DB	014H
	DB	04H
	DB	06H
	DB	02H
	DB	07H
	DB	0dH
	DB	00H
	DB	0dH
	DB	04H
	DB	015H
	DB	015H
	DB	014H
	DB	01H
	DB	01H
	DB	01H
	DB	01H
	DB	01H
	DB	01H
	DB	01H
	DB	01H
	DB	01H
	DB	01H
	DB	01H
	DB	01H
	DB	01H
	DB	01H
	DB	01H
	DB	01H
	DB	01H
	DB	01H
	DB	01H
	DB	03H
	DB	015H
	DB	015H
	DB	077H
	DB	01H
	DB	01H
	DB	01H
	DB	01H
	DB	01H
	DB	01H
	DB	01H
	DB	014H
	DB	054H
	DB	0fH
	DB	0fbH
	DB	0ffH
	DB	07H
	DB	07H
	DB	0ffH
	DB	0aeH
	DB	08fH
	DB	0e8H
	DB	087H
	DB	0a8H
	DB	062H
	DB	09H
	DB	09H
	DB	09H
	DB	020H
	DB	01cH
	DB	01cH
	DB	023H
	DB	0a3H
	DB	091H
	DB	0ffH
	DB	03cH
	DB	031H
	DB	075H
	DB	0d6H
	DB	0d5H
	DB	024H
	DB	018H
	DB	017H
	DB	068H
	DB	0f2H
	DB	01fH
	DB	075H
	DB	032H
	DB	09cH
	DB	034H
	DB	02H
	DB	031H
	DB	01cH
	DB	0eH
	DB	06cH
	DB	0eH
	DB	0eH
	DB	0eH
	DB	013H
	DB	013H
	DB	07H
	DB	02H
	DB	02H
	DB	02H
	DB	02H
	DB	02H
	DB	02H
	DB	0fbH
	DB	01H
	DB	03H
	DB	03H
	DB	03H
	DB	03H
	DB	03H
	DB	015H
	DB	05bH
	DB	00H
	DB	00H
	DB	00H
	DB	00H
	DB	00H
	DB	04aH
	DB	081H
	DB	01H
	DB	077H
	DB	01H
	DB	03H
	DB	081H
	DB	02H
	DB	02H
	DB	04fH
	DB	095H
	DB	095H
	DB	077H
	DB	04H
	DB	014H
	DB	077H
	DB	015H
	DB	07H
	DB	02H
	DB	0fH
	DB	03H
	DB	0d2H
	DB	0ccH
	DB	054H
	DB	04H
	DB	014H
	DB	077H
	DB	01H
	DB	01H
	DB	01H
	DB	01H
	DB	01H
	DB	01H
	DB	01H
	DB	01H
	DB	01H
	DB	01H
	DB	01H
	DB	01H
	DB	01H
	DB	01H
	DB	01H
	DB	01H
	DB	01H
	DB	01H
	DB	014H
	DB	014H
	DB	06H
	DB	05H
	DB	07eH
	DB	01H
	DB	01H
	DB	01H
	DB	01H
	DB	01H
	DB	01H
	DB	01H
	DB	077H
	DB	01H
	DB	05H
	DB	0fbH
	DB	0ffH
	DB	07H
	DB	0ffH
	DB	0ffH
	DB	02H
	DB	0ffH
	DB	0eeH
	DB	0eeH
	DB	025H
	DB	034H
	DB	09H
	DB	09H
	DB	016H
	DB	0eH
	DB	01cH
	DB	01cH
	DB	023H
	DB	057H
	DB	033H
	DB	02H
	DB	0f9H
	DB	06aH
	DB	05fH
	DB	08eH
	DB	06cH
	DB	0e3H
	DB	018H
	DB	017H
	DB	0d4H
	DB	0f2H
	DB	01fH
	DB	0f9H
	DB	032H
	DB	01bH
	DB	03aH
	DB	02H
	DB	032H
	DB	08cH
	DB	05dH
	DB	0ddH
	DB	0dfH
	DB	052H
	DB	01cH
	DB	0eH
	DB	0eH
	DB	034H
	DB	02H
	DB	02H
	DB	02H
	DB	02H
	DB	02H
	DB	02H
	DB	061H
	DB	01H
	DB	03H
	DB	03H
	DB	03H
	DB	03H
	DB	03H
	DB	04H
	DB	00H
	DB	00H
	DB	00H
	DB	00H
	DB	00H
	DB	00H
	DB	04aH
	DB	081H
	DB	01H
	DB	077H
	DB	01H
	DB	03H
	DB	081H
	DB	02H
	DB	02H
	DB	02H
	DB	02H
	DB	02H
	DB	02H
	DB	0a6H
	DB	07eH
	DB	03H
	DB	054H
	DB	0aeH
	DB	02H
	DB	07H
	DB	0aeH
	DB	02H
	DB	02H
	DB	02H
	DB	0fH
	DB	015H
	DB	01H
	DB	03H
	DB	07eH
	DB	03H
	DB	015H
	DB	07eH
	DB	015H
	DB	077H
	DB	015H
	DB	07eH
	DB	015H
	DB	01H
	DB	01H
	DB	015H
	DB	07eH
	DB	03H
	DB	04H
	DB	07eH
	DB	03H
	DB	014H
	DB	054H
	DB	02H
	DB	0fbH
	DB	04aH
	DB	04H
	DB	04H
	DB	014H
	DB	01H
	DB	01H
	DB	01H
	DB	01H
	DB	077H
	DB	077H
	DB	010H
	DB	04fH
	DB	0ffH
	DB	0ffH
	DB	0aeH
	DB	02H
	DB	02H
	DB	02H
	DB	047H
	DB	029H
	DB	025H
	DB	08fH
	DB	09H
	DB	09H
	DB	013H
	DB	0eH
	DB	01cH
	DB	01cH
	DB	023H
	DB	073H
	DB	031H
	DB	02H
	DB	051H
	DB	03cH
	DB	03fH
	DB	0aH
	DB	09H
	DB	019H
	DB	04dH
	DB	017H
	DB	0d4H
	DB	01fH
	DB	01fH
	DB	03fH
	DB	031H
	DB	01bH
	DB	051H
	DB	02H
	DB	08eH
	DB	067H
	DB	073H
	DB	094H
	DB	0beH
	DB	02fH
	DB	0eH
	DB	0eH
	DB	0eH
	DB	026H
	DB	0aeH
	DB	02H
	DB	02H
	DB	0aeH
	DB	0aeH
	DB	0aeH
	DB	061H
	DB	054H
	DB	015H
	DB	03H
	DB	03H
	DB	03H
	DB	03H
	DB	04H
	DB	00H
	DB	00H
	DB	00H
	DB	00H
	DB	00H
	DB	00H
	DB	04aH
	DB	081H
	DB	01H
	DB	077H
	DB	01H
	DB	03H
	DB	08H
	DB	0cH
	DB	069H
	DB	069H
	DB	0cH
	DB	02H
	DB	02H
	DB	02H
	DB	010H
	DB	035H
	DB	012H
	DB	02H
	DB	02H
	DB	02H
	DB	0fH
	DB	012H
	DB	0aH
	DB	02H
	DB	02H
	DB	010H
	DB	07eH
	DB	012H
	DB	069H
	DB	08H
	DB	0d2H
	DB	06H
	DB	010H
	DB	04H
	DB	0d2H
	DB	06H
	DB	0ccH
	DB	03H
	DB	015H
	DB	010H
	DB	069H
	DB	054H
	DB	05H
	DB	069H
	DB	081H
	DB	04H
	DB	054H
	DB	02H
	DB	0fbH
	DB	077H
	DB	0fH
	DB	0fH
	DB	01H
	DB	03H
	DB	01H
	DB	01H
	DB	01H
	DB	01H
	DB	014H
	DB	08H
	DB	05H
	DB	0ffH
	DB	02H
	DB	02H
	DB	02H
	DB	02H
	DB	02H
	DB	033H
	DB	0e8H
	DB	03fH
	DB	040H
	DB	09H
	DB	016H
	DB	0eH
	DB	0eH
	DB	0eH
	DB	01cH
	DB	023H
	DB	023H
	DB	047H
	DB	062H
	DB	0ffH
	DB	03cH
	DB	032H
	DB	04eH
	DB	07cH
	DB	0e2H
	DB	018H
	DB	017H
	DB	07bH
	DB	01fH
	DB	01fH
	DB	03cH
	DB	031H
	DB	08bH
	DB	033H
	DB	02H
	DB	08eH
	DB	067H
	DB	05cH
	DB	0bcH
	DB	0c8H
	DB	03cH
	DB	0eH
	DB	0eH
	DB	020H
	DB	020H
	DB	0ffH
	DB	0aeH
	DB	0ffH
	DB	0ffH
	DB	0ffH
	DB	0ffH
	DB	061H
	DB	054H
	DB	015H
	DB	093H
	DB	015H
	DB	093H
	DB	03H
	DB	04H
	DB	00H
	DB	00H
	DB	00H
	DB	00H
	DB	00H
	DB	00H
	DB	04aH
	DB	081H
	DB	01H
	DB	077H
	DB	01H
	DB	01H
	DB	015H
	DB	0dH
	DB	00H
	DB	00H
	DB	00H
	DB	0ccH
	DB	02H
	DB	02H
	DB	0cH
	DB	035H
	DB	081H
	DB	02H
	DB	02H
	DB	0fbH
	DB	04aH
	DB	00H
	DB	01H
	DB	02H
	DB	02H
	DB	0cH
	DB	0dH
	DB	011H
	DB	02H
	DB	07H
	DB	0acH
	DB	02H
	DB	02H
	DB	0fbH
	DB	07H
	DB	02H
	DB	02H
	DB	095H
	DB	04aH
	DB	0fH
	DB	02H
	DB	07H
	DB	0cH
	DB	0aeH
	DB	02H
	DB	01H
	DB	01H
	DB	02H
	DB	0aeH
	DB	0aH
	DB	0ffH
	DB	02H
	DB	06H
	DB	015H
	DB	01H
	DB	01H
	DB	01H
	DB	01H
	DB	077H
	DB	054H
	DB	0d2H
	DB	07H
	DB	02H
	DB	02H
	DB	02H
	DB	02H
	DB	02H
	DB	034H
	DB	029H
	DB	0a3H
	DB	0cH
	DB	034H
	DB	013H
	DB	0eH
	DB	0eH
	DB	0eH
	DB	01cH
	DB	01cH
	DB	020H
	DB	0abH
	DB	032H
	DB	02H
	DB	051H
	DB	0f9H
	DB	079H
	DB	082H
	DB	04cH
	DB	018H
	DB	017H
	DB	07bH
	DB	01fH
	DB	02fH
	DB	03cH
	DB	01bH
	DB	08bH
	DB	026H
	DB	02H
	DB	059H
	DB	067H
	DB	030H
	DB	0bdH
	DB	0c8H
	DB	06aH
	DB	0eH
	DB	0c9H
	DB	0c6H
	DB	01fH
	DB	07H
	DB	0aeH
	DB	0ffH
	DB	07H
	DB	07H
	DB	07H
	DB	0aH
	DB	054H
	DB	015H
	DB	015H
	DB	015H
	DB	015H
	DB	093H
	DB	04H
	DB	00H
	DB	00H
	DB	00H
	DB	00H
	DB	00H
	DB	00H
	DB	04aH
	DB	081H
	DB	01H
	DB	077H
	DB	01H
	DB	01H
	DB	014H
	DB	093H
	DB	04H
	DB	04H
	DB	07eH
	DB	07eH
	DB	0aH
	DB	02H
	DB	07H
	DB	015H
	DB	054H
	DB	02H
	DB	02H
	DB	05H
	DB	04aH
	DB	015H
	DB	0dH
	DB	07H
	DB	02H
	DB	0acH
	DB	0dH
	DB	011H
	DB	02H
	DB	0fH
	DB	00H
	DB	011H
	DB	02H
	DB	04fH
	DB	04aH
	DB	010H
	DB	02H
	DB	05H
	DB	04aH
	DB	0fH
	DB	02H
	DB	0f0H
	DB	00H
	DB	0ccH
	DB	02H
	DB	0f0H
	DB	03H
	DB	02H
	DB	07H
	DB	07eH
	DB	077H
	DB	02H
	DB	0aH
	DB	04H
	DB	01H
	DB	01H
	DB	01H
	DB	01H
	DB	077H
	DB	01H
	DB	095H
	DB	0fbH
	DB	02H
	DB	02H
	DB	02H
	DB	02H
	DB	02H
	DB	02H
	DB	047H
	DB	0e8H
	DB	060H
	DB	021H
	DB	013H
	DB	013H
	DB	0eH
	DB	0eH
	DB	0eH
	DB	020H
	DB	016H
	DB	020H
	DB	047H
	DB	034H
	DB	02H
	DB	0faH
	DB	09dH
	DB	082H
	DB	024H
	DB	018H
	DB	017H
	DB	02fH
	DB	02fH
	DB	02fH
	DB	09bH
	DB	0ecH
	DB	08bH
	DB	09H
	DB	02H
	DB	031H
	DB	073H
	DB	05aH
	DB	031H
	DB	0d9H
	DB	02fH
	DB	0eH
	DB	05fH
	DB	0c7H
	DB	0b7H
	DB	06H
	DB	0aeH
	DB	07H
	DB	0acH
	DB	061H
	DB	061H
	DB	0fbH
	DB	054H
	DB	015H
	DB	015H
	DB	015H
	DB	015H
	DB	093H
	DB	04H
	DB	00H
	DB	00H
	DB	00H
	DB	00H
	DB	00H
	DB	00H
	DB	04aH
	DB	081H
	DB	01H
	DB	077H
	DB	01H
	DB	01H
	DB	01H
	DB	077H
	DB	014H
	DB	014H
	DB	03H
	DB	015H
	DB	0aH
	DB	02H
	DB	0acH
	DB	015H
	DB	015H
	DB	07H
	DB	02H
	DB	0fH
	DB	035H
	DB	014H
	DB	07eH
	DB	0acH
	DB	02H
	DB	0aH
	DB	04aH
	DB	011H
	DB	02H
	DB	011H
	DB	00H
	DB	095H
	DB	02H
	DB	0f0H
	DB	00H
	DB	081H
	DB	02H
	DB	05H
	DB	05bH
	DB	0fH
	DB	02H
	DB	012H
	DB	00H
	DB	081H
	DB	02H
	DB	069H
	DB	015H
	DB	02H
	DB	0fbH
	DB	00H
	DB	014H
	DB	0aeH
	DB	0aH
	DB	07eH
	DB	014H
	DB	01H
	DB	01H
	DB	01H
	DB	01H
	DB	014H
	DB	081H
	DB	0f3H
	DB	02H
	DB	02H
	DB	02H
	DB	02H
	DB	02H
	DB	02H
	DB	033H
	DB	0e8H
	DB	06aH
	DB	040H
	DB	026H
	DB	013H
	DB	0eH
	DB	0eH
	DB	016H
	DB	016H
	DB	016H
	DB	016H
	DB	0eH
	DB	031H
	DB	02H
	DB	0ffH
	DB	086H
	DB	082H
	DB	024H
	DB	018H
	DB	04dH
	DB	02fH
	DB	02fH
	DB	0dfH
	DB	09bH
	DB	0a1H
	DB	059H
	DB	02H
	DB	09H
	DB	01bH
	DB	030H
	DB	023H
	DB	06cH
	DB	06cH
	DB	0eH
	DB	0eH
	DB	020H
	DB	020H
	DB	013H
	DB	021H
	DB	0acH
	DB	061H
	DB	0aH
	DB	0aH
	DB	0fcH
	DB	0a7H
	DB	0c1H
	DB	015H
	DB	015H
	DB	015H
	DB	015H
	DB	015H
	DB	04H
	DB	00H
	DB	00H
	DB	00H
	DB	00H
	DB	00H
	DB	00H
	DB	04aH
	DB	081H
	DB	01H
	DB	077H
	DB	01H
	DB	01H
	DB	03H
	DB	04H
	DB	015H
	DB	015H
	DB	07eH
	DB	0d2H
	DB	02H
	DB	02H
	DB	069H
	DB	0dH
	DB	07eH
	DB	0a7H
	DB	02H
	DB	0fcH
	DB	07eH
	DB	035H
	DB	08H
	DB	02H
	DB	02H
	DB	0fH
	DB	04aH
	DB	011H
	DB	02H
	DB	0a6H
	DB	00H
	DB	010H
	DB	02H
	DB	05H
	DB	05bH
	DB	081H
	DB	02H
	DB	05H
	DB	00H
	DB	0fH
	DB	02H
	DB	012H
	DB	04aH
	DB	081H
	DB	02H
	DB	0fH
	DB	015H
	DB	02H
	DB	0fbH
	DB	00H
	DB	01H
	DB	0aeH
	DB	0aH
	DB	07eH
	DB	014H
	DB	01H
	DB	01H
	DB	01H
	DB	01H
	DB	014H
	DB	054H
	DB	0f0H
	DB	0ffH
	DB	02H
	DB	0aeH
	DB	02H
	DB	02H
	DB	02H
	DB	0ffH
	DB	029H
	DB	029H
	DB	0cH
	DB	03aH
	DB	013H
	DB	013H
	DB	016H
	DB	09H
	DB	016H
	DB	016H
	DB	016H
	DB	016H
	DB	0abH
	DB	032H
	DB	02H
	DB	0a9H
	DB	082H
	DB	024H
	DB	018H
	DB	066H
	DB	0deH
	DB	0deH
	DB	085H
	DB	0d8H
	DB	01bH
	DB	02H
	DB	02H
	DB	033H
	DB	057H
	DB	023H
	DB	023H
	DB	01cH
	DB	01cH
	DB	0eH
	DB	0eH
	DB	0eH
	DB	013H
	DB	013H
	DB	08fH
	DB	0aH
	DB	0fbH
	DB	0fbH
	DB	0cH
	DB	0cH
	DB	06H
	DB	01H
	DB	015H
	DB	015H
	DB	015H
	DB	015H
	DB	015H
	DB	04H
	DB	00H
	DB	00H
	DB	00H
	DB	00H
	DB	00H
	DB	00H
	DB	04aH
	DB	081H
	DB	01H
	DB	077H
	DB	01H
	DB	015H
	DB	0d2H
	DB	061H
	DB	0fH
	DB	0f0H
	DB	04fH
	DB	02H
	DB	02H
	DB	0aeH
	DB	077H
	DB	07eH
	DB	015H
	DB	081H
	DB	02H
	DB	02H
	DB	0fH
	DB	012H
	DB	0aH
	DB	02H
	DB	02H
	DB	01H
	DB	04aH
	DB	011H
	DB	02H
	DB	0a6H
	DB	00H
	DB	010H
	DB	02H
	DB	05H
	DB	04aH
	DB	081H
	DB	02H
	DB	05H
	DB	00H
	DB	0fH
	DB	02H
	DB	0fH
	DB	00H
	DB	0a6H
	DB	02H
	DB	010H
	DB	03H
	DB	02H
	DB	0fbH
	DB	04aH
	DB	0c2H
	DB	0aeH
	DB	0aH
	DB	07eH
	DB	014H
	DB	01H
	DB	01H
	DB	01H
	DB	01H
	DB	077H
	DB	01H
	DB	010H
	DB	0aH
	DB	02H
	DB	02H
	DB	02H
	DB	0aeH
	DB	0aeH
	DB	0aeH
	DB	059H
	DB	09fH
	DB	050H
	DB	040H
	DB	026H
	DB	062H
	DB	09H
	DB	09H
	DB	09H
	DB	016H
	DB	016H
	DB	016H
	DB	020H
	DB	047H
	DB	08eH
	DB	0adH
	DB	018H
	DB	024H
	DB	018H
	DB	04dH
	DB	0dcH
	DB	085H
	DB	085H
	DB	03cH
	DB	0ffH
	DB	02H
	DB	091H
	DB	01bH
	DB	030H
	DB	023H
	DB	01cH
	DB	01cH
	DB	0eH
	DB	0eH
	DB	0eH
	DB	013H
	DB	013H
	DB	013H
	DB	021H
	DB	07dH
	DB	0cH
	DB	0cH
	DB	0a7H
	DB	0a7H
	DB	0fH
	DB	03H
	DB	015H
	DB	015H
	DB	015H
	DB	015H
	DB	015H
	DB	04H
	DB	00H
	DB	00H
	DB	00H
	DB	00H
	DB	00H
	DB	00H
	DB	04aH
	DB	081H
	DB	01H
	DB	077H
	DB	01H
	DB	07eH
	DB	05H
	DB	02H
	DB	02H
	DB	02H
	DB	02H
	DB	02H
	DB	0cH
	DB	01H
	DB	04aH
	DB	03H
	DB	014H
	DB	07eH
	DB	0d2H
	DB	0ffH
	DB	02H
	DB	02H
	DB	02H
	DB	0ffH
	DB	081H
	DB	04aH
	DB	035H
	DB	011H
	DB	02H
	DB	05H
	DB	00H
	DB	0d2H
	DB	02H
	DB	05H
	DB	04aH
	DB	081H
	DB	02H
	DB	05H
	DB	00H
	DB	0fH
	DB	02H
	DB	0fbH
	DB	0fbH
	DB	02H
	DB	0aH
	DB	07eH
	DB	077H
	DB	02H
	DB	0fbH
	DB	04aH
	DB	054H
	DB	02H
	DB	0acH
	DB	07eH
	DB	014H
	DB	01H
	DB	01H
	DB	01H
	DB	01H
	DB	01H
	DB	014H
	DB	012H
	DB	069H
	DB	0aeH
	DB	02H
	DB	0aeH
	DB	0aeH
	DB	0ffH
	DB	0aeH
	DB	07H
	DB	029H
	DB	029H
	DB	025H
	DB	03aH
	DB	09H
	DB	02H
	DB	0f2H
	DB	045H
	DB	09H
	DB	016H
	DB	020H
	DB	01cH
	DB	023H
	DB	05cH
	DB	087H
	DB	018H
	DB	024H
	DB	018H
	DB	078H
	DB	0f4H
	DB	045H
	DB	025H
	DB	07H
	DB	02H
	DB	091H
	DB	031H
	DB	05cH
	DB	023H
	DB	01cH
	DB	01cH
	DB	0eH
	DB	0eH
	DB	0eH
	DB	013H
	DB	013H
	DB	013H
	DB	013H
	DB	021H
	DB	0a7H
	DB	04fH
	DB	06H
	DB	06H
	DB	06H
	DB	0f0H
	DB	015H
	DB	015H
	DB	015H
	DB	015H
	DB	015H
	DB	015H
	DB	04H
	DB	00H
	DB	00H
	DB	00H
	DB	00H
	DB	00H
	DB	00H
	DB	04aH
	DB	081H
	DB	01H
	DB	077H
	DB	01H
	DB	014H
	DB	03H
	DB	0c1H
	DB	08H
	DB	012H
	DB	081H
	DB	01H
	DB	04aH
	DB	04aH
	DB	04H
	DB	014H
	DB	01H
	DB	03H
	DB	0dH
	DB	015H
	DB	081H
	DB	012H
	DB	08H
	DB	04H
	DB	00H
	DB	04H
	DB	03H
	DB	01H
	DB	012H
	DB	014H
	DB	07eH
	DB	077H
	DB	012H
	DB	01H
	DB	07eH
	DB	03H
	DB	095H
	DB	01H
	DB	04aH
	DB	0fH
	DB	02H
	DB	095H
	DB	054H
	DB	095H
	DB	04H
	DB	0dH
	DB	015H
	DB	012H
	DB	054H
	DB	0dH
	DB	03H
	DB	012H
	DB	08H
	DB	07eH
	DB	014H
	DB	01H
	DB	01H
	DB	01H
	DB	01H
	DB	01H
	DB	014H
	DB	054H
	DB	05H
	DB	0aH
	DB	02H
	DB	0aeH
	DB	0ffH
	DB	0ffH
	DB	0ffH
	DB	090H
	DB	059H
	DB	09fH
	DB	06aH
	DB	040H
	DB	016H
	DB	0fH
	DB	035H
	DB	045H
	DB	09H
	DB	020H
	DB	01cH
	DB	01cH
	DB	01cH
	DB	023H
	DB	047H
	DB	04dH
	DB	024H
	DB	018H
	DB	0f5H
	DB	061H
	DB	07dH
	DB	0fcH
	DB	07H
	DB	026H
	DB	031H
	DB	05cH
	DB	01cH
	DB	01cH
	DB	01cH
	DB	0eH
	DB	0eH
	DB	0eH
	DB	0eH
	DB	013H
	DB	013H
	DB	013H
	DB	013H
	DB	021H
	DB	06H
	DB	06H
	DB	069H
	DB	069H
	DB	069H
	DB	095H
	DB	04H
	DB	015H
	DB	015H
	DB	015H
	DB	015H
	DB	015H
	DB	04H
	DB	00H
	DB	00H
	DB	00H
	DB	00H
	DB	00H
	DB	00H
	DB	04aH
	DB	081H
	DB	01H
	DB	077H
	DB	01H
	DB	01H
	DB	03H
	DB	07eH
	DB	04aH
	DB	05bH
	DB	04aH
	DB	04aH
	DB	07eH
	DB	015H
	DB	03H
	DB	01H
	DB	01H
	DB	01H
	DB	03H
	DB	07eH
	DB	04aH
	DB	04aH
	DB	04aH
	DB	0dH
	DB	04H
	DB	03H
	DB	01H
	DB	015H
	DB	0dH
	DB	0dH
	DB	03H
	DB	015H
	DB	0dH
	DB	0dH
	DB	03H
	DB	03H
	DB	0dH
	DB	0dH
	DB	0dH
	DB	0fH
	DB	02H
	DB	012H
	DB	00H
	DB	04aH
	DB	035H
	DB	015H
	DB	03H
	DB	0dH
	DB	04aH
	DB	015H
	DB	03H
	DB	035H
	DB	04aH
	DB	015H
	DB	014H
	DB	01H
	DB	01H
	DB	01H
	DB	01H
	DB	01H
	DB	077H
	DB	077H
	DB	0d2H
	DB	04fH
	DB	0ffH
	DB	0ffH
	DB	0ffH
	DB	0ffH
	DB	0ffH
	DB	0ffH
	DB	0fcH
	DB	0ebH
	DB	08cH
	DB	06bH
	DB	05H
	DB	04H
	DB	0a8H
	DB	02H
	DB	016H
	DB	0eH
	DB	0eH
	DB	01cH
	DB	01cH
	DB	01cH
	DB	023H
	DB	04dH
	DB	04cH
	DB	018H
	DB	086H
	DB	01fH
	DB	01fH
	DB	01fH
	DB	03cH
	DB	047H
	DB	076H
	DB	01cH
	DB	01cH
	DB	01cH
	DB	0eH
	DB	0eH
	DB	0eH
	DB	0eH
	DB	013H
	DB	013H
	DB	013H
	DB	013H
	DB	013H
	DB	021H
	DB	0f3H
	DB	0fH
	DB	0fH
	DB	0fH
	DB	05H
	DB	08H
	DB	04H
	DB	015H
	DB	015H
	DB	015H
	DB	015H
	DB	015H
	DB	04H
	DB	00H
	DB	00H
	DB	00H
	DB	00H
	DB	00H
	DB	00H
	DB	04aH
	DB	081H
	DB	01H
	DB	077H
	DB	01H
	DB	01H
	DB	01H
	DB	027H
	DB	03H
	DB	03H
	DB	03H
	DB	03H
	DB	03H
	DB	014H
	DB	077H
	DB	01H
	DB	01H
	DB	01H
	DB	01H
	DB	014H
	DB	03H
	DB	015H
	DB	093H
	DB	03H
	DB	014H
	DB	01H
	DB	01H
	DB	01H
	DB	03H
	DB	03H
	DB	014H
	DB	077H
	DB	03H
	DB	03H
	DB	014H
	DB	014H
	DB	03H
	DB	03H
	DB	015H
	DB	054H
	DB	012H
	DB	03H
	DB	04H
	DB	03H
	DB	03H
	DB	014H
	DB	077H
	DB	03H
	DB	03H
	DB	03H
	DB	077H
	DB	03H
	DB	03H
	DB	03H
	DB	077H
	DB	01H
	DB	01H
	DB	01H
	DB	01H
	DB	01H
	DB	01H
	DB	014H
	DB	08H
	DB	0fH
	DB	0aH
	DB	0ffH
	DB	0ffH
	DB	0ffH
	DB	07H
	DB	0fbH
	DB	04fH
	DB	045H
	DB	08cH
	DB	057H
	DB	074H
	DB	060H
	DB	02H
	DB	016H
	DB	013H
	DB	0eH
	DB	0eH
	DB	0eH
	DB	0eH
	DB	01cH
	DB	01cH
	DB	066H
	DB	04cH
	DB	018H
	DB	0e6H
	DB	09bH
	DB	0dfH
	DB	09bH
	DB	052H
	DB	01cH
	DB	01cH
	DB	01cH
	DB	01cH
	DB	0eH
	DB	0eH
	DB	0eH
	DB	013H
	DB	013H
	DB	013H
	DB	013H
	DB	013H
	DB	013H
	DB	013H
	DB	040H
	DB	0fH
	DB	05H
	DB	05H
	DB	0f0H
	DB	011H
	DB	014H
	DB	015H
	DB	015H
	DB	015H
	DB	015H
	DB	015H
	DB	015H
	DB	04H
	DB	00H
	DB	00H
	DB	00H
	DB	00H
	DB	00H
	DB	00H
	DB	04aH
	DB	081H
	DB	01H
	DB	077H
	DB	01H
	DB	014H
	DB	04H
	DB	03bH
	DB	03bH
	DB	03bH
	DB	03H
	DB	01H
	DB	01H
	DB	01H
	DB	01H
	DB	014H
	DB	04H
	DB	03bH
	DB	04H
	DB	03H
	DB	01H
	DB	077H
	DB	077H
	DB	01H
	DB	03H
	DB	03bH
	DB	03bH
	DB	015H
	DB	077H
	DB	01H
	DB	01H
	DB	01H
	DB	01H
	DB	077H
	DB	01H
	DB	01H
	DB	01H
	DB	01H
	DB	01H
	DB	015H
	DB	0dH
	DB	07eH
	DB	03H
	DB	077H
	DB	01H
	DB	01H
	DB	01H
	DB	01H
	DB	077H
	DB	01H
	DB	01H
	DB	01H
	DB	077H
	DB	01H
	DB	01H
	DB	014H
	DB	014H
	DB	01H
	DB	01H
	DB	01H
	DB	01H
	DB	077H
	DB	077H
	DB	0f0H
	DB	04fH
	DB	0acH
	DB	0ffH
	DB	0acH
	DB	0cH
	DB	06H
	DB	06H
	DB	0f3H
	DB	09cH
	DB	072H
	DB	052H
	DB	0fbH
	DB	026H
	DB	013H
	DB	013H
	DB	013H
	DB	0eH
	DB	0eH
	DB	0eH
	DB	0eH
	DB	0eH
	DB	04eH
	DB	04cH
	DB	018H
	DB	087H
	DB	03cH
	DB	09cH
	DB	06aH
	DB	0abH
	DB	01cH
	DB	0eH
	DB	0eH
	DB	0eH
	DB	0eH
	DB	0eH
	DB	013H
	DB	013H
	DB	013H
	DB	013H
	DB	013H
	DB	013H
	DB	013H
	DB	013H
	DB	025H
	DB	05H
	DB	0a6H
	DB	011H
	DB	0ccH
	DB	012H
	DB	04H
	DB	015H
	DB	015H
	DB	015H
	DB	015H
	DB	015H
	DB	015H
	DB	04H
	DB	00H
	DB	00H
	DB	00H
	DB	00H
	DB	00H
	DB	00H
	DB	04aH
	DB	081H
	DB	01H
	DB	077H
	DB	01H
	DB	041H
	DB	0b9H
	DB	018H
	DB	018H
	DB	018H
	DB	02dH
	DB	03H
	DB	01H
	DB	01H
	DB	01H
	DB	07fH
	DB	055H
	DB	018H
	DB	055H
	DB	07fH
	DB	048H
	DB	01H
	DB	01H
	DB	03H
	DB	042H
	DB	018H
	DB	018H
	DB	0b9H
	DB	041H
	DB	01H
	DB	01H
	DB	01H
	DB	01H
	DB	01H
	DB	01H
	DB	01H
	DB	01H
	DB	01H
	DB	01H
	DB	014H
	DB	03H
	DB	03H
	DB	014H
	DB	01H
	DB	01H
	DB	01H
	DB	01H
	DB	01H
	DB	01H
	DB	01H
	DB	01H
	DB	01H
	DB	01H
	DB	01H
	DB	04H
	DB	03H
	DB	01H
	DB	014H
	DB	01H
	DB	01H
	DB	01H
	DB	01H
	DB	014H
	DB	081H
	DB	06H
	DB	0cH
	DB	0aH
	DB	0a7H
	DB	06H
	DB	06H
	DB	06H
	DB	06H
	DB	069H
	DB	0a3H
	DB	072H
	DB	050H
	DB	0cH
	DB	03aH
	DB	013H
	DB	013H
	DB	013H
	DB	0eH
	DB	0eH
	DB	0eH
	DB	0eH
	DB	083H
	DB	04cH
	DB	04dH
	DB	09cH
	DB	05fH
	DB	05fH
	DB	06aH
	DB	0abH
	DB	0eH
	DB	0eH
	DB	0eH
	DB	0eH
	DB	0eH
	DB	013H
	DB	013H
	DB	013H
	DB	013H
	DB	013H
	DB	013H
	DB	013H
	DB	013H
	DB	013H
	DB	045H
	DB	0ccH
	DB	010H
	DB	095H
	DB	095H
	DB	01H
	DB	04H
	DB	015H
	DB	015H
	DB	015H
	DB	015H
	DB	015H
	DB	015H
	DB	04H
	DB	00H
	DB	00H
	DB	00H
	DB	00H
	DB	00H
	DB	00H
	DB	04aH
	DB	081H
	DB	01H
	DB	077H
	DB	01H
	DB	03H
	DB	042H
	DB	01aH
	DB	01aH
	DB	01aH
	DB	02eH
	DB	0b5H
	DB	01H
	DB	01H
	DB	027H
	DB	02dH
	DB	01aH
	DB	01aH
	DB	01aH
	DB	042H
	DB	041H
	DB	01H
	DB	01H
	DB	04H
	DB	024H
	DB	01aH
	DB	01aH
	DB	042H
	DB	041H
	DB	01H
	DB	01H
	DB	01H
	DB	01H
	DB	01H
	DB	01H
	DB	01H
	DB	01H
	DB	01H
	DB	01H
	DB	01H
	DB	077H
	DB	077H
	DB	01H
	DB	01H
	DB	01H
	DB	01H
	DB	01H
	DB	01H
	DB	01H
	DB	01H
	DB	01H
	DB	01H
	DB	03H
	DB	04H
	DB	095H
	DB	0acH
	DB	095H
	DB	015H
	DB	01H
	DB	01H
	DB	01H
	DB	01H
	DB	077H
	DB	014H
	DB	0f0H
	DB	0a7H
	DB	06H
	DB	06H
	DB	06H
	DB	06H
	DB	06H
	DB	0f3H
	DB	0f3H
	DB	074H
	DB	057H
	DB	05dH
	DB	03dH
	DB	0cH
	DB	026H
	DB	013H
	DB	013H
	DB	013H
	DB	013H
	DB	0eH
	DB	020H
	DB	088H
	DB	024H
	DB	024H
	DB	0b7H
	DB	0c7H
	DB	05fH
	DB	050H
	DB	0eH
	DB	0eH
	DB	0eH
	DB	0eH
	DB	013H
	DB	013H
	DB	013H
	DB	013H
	DB	013H
	DB	013H
	DB	013H
	DB	013H
	DB	013H
	DB	013H
	DB	026H
	DB	0fH
	DB	095H
	DB	012H
	DB	012H
	DB	08H
	DB	015H
	DB	015H
	DB	015H
	DB	015H
	DB	015H
	DB	015H
	DB	015H
	DB	015H
	DB	04H
	DB	00H
	DB	00H
	DB	00H
	DB	00H
	DB	00H
	DB	00H
	DB	04aH
	DB	081H
	DB	01H
	DB	077H
	DB	01H
	DB	048H
	DB	064H
	DB	017H
	DB	017H
	DB	017H
	DB	018H
	DB	035H
	DB	01H
	DB	01H
	DB	0b5H
	DB	02eH
	DB	01aH
	DB	017H
	DB	01aH
	DB	024H
	DB	04H
	DB	01H
	DB	01H
	DB	04H
	DB	018H
	DB	01aH
	DB	017H
	DB	064H
	DB	041H
	DB	077H
	DB	01H
	DB	01H
	DB	01H
	DB	077H
	DB	014H
	DB	01H
	DB	01H
	DB	01H
	DB	01H
	DB	01H
	DB	01H
	DB	01H
	DB	01H
	DB	01H
	DB	01H
	DB	077H
	DB	014H
	DB	01H
	DB	01H
	DB	01H
	DB	01H
	DB	01H
	DB	03H
	DB	069H
	DB	02H
	DB	02H
	DB	012H
	DB	015H
	DB	01H
	DB	01H
	DB	01H
	DB	01H
	DB	01H
	DB	014H
	DB	054H
	DB	04fH
	DB	06H
	DB	06H
	DB	06H
	DB	06H
	DB	0f3H
	DB	0f3H
	DB	06H
	DB	04fH
	DB	03dH
	DB	030H
	DB	030H
	DB	03dH
	DB	040H
	DB	03aH
	DB	013H
	DB	013H
	DB	013H
	DB	013H
	DB	020H
	DB	08dH
	DB	055H
	DB	0d0H
	DB	06eH
	DB	0c6H
	DB	05fH
	DB	075H
	DB	0eH
	DB	013H
	DB	013H
	DB	013H
	DB	013H
	DB	013H
	DB	013H
	DB	03aH
	DB	026H
	DB	013H
	DB	013H
	DB	013H
	DB	013H
	DB	013H
	DB	03aH
	DB	0ccH
	DB	08H
	DB	08H
	DB	08H
	DB	01H
	DB	07eH
	DB	015H
	DB	015H
	DB	015H
	DB	015H
	DB	015H
	DB	015H
	DB	015H
	DB	04H
	DB	00H
	DB	00H
	DB	00H
	DB	00H
	DB	00H
	DB	00H
	DB	04aH
	DB	081H
	DB	01H
	DB	077H
	DB	01H
	DB	01H
	DB	04H
	DB	055H
	DB	01aH
	DB	017H
	DB	017H
	DB	02dH
	DB	027H
	DB	01H
	DB	07fH
	DB	018H
	DB	01aH
	DB	017H
	DB	017H
	DB	018H
	DB	064H
	DB	048H
	DB	048H
	DB	02dH
	DB	017H
	DB	01aH
	DB	055H
	DB	0dH
	DB	03H
	DB	01H
	DB	077H
	DB	015H
	DB	07eH
	DB	093H
	DB	014H
	DB	04H
	DB	07eH
	DB	03H
	DB	01H
	DB	01H
	DB	01H
	DB	01H
	DB	01H
	DB	015H
	DB	07eH
	DB	03H
	DB	027H
	DB	04H
	DB	07eH
	DB	03H
	DB	077H
	DB	0dH
	DB	014H
	DB	02H
	DB	02H
	DB	02H
	DB	081H
	DB	05bH
	DB	07eH
	DB	03H
	DB	01H
	DB	01H
	DB	01H
	DB	01H
	DB	03H
	DB	010H
	DB	0fbH
	DB	069H
	DB	0f3H
	DB	069H
	DB	0f3H
	DB	06H
	DB	0a7H
	DB	0fbH
	DB	0acH
	DB	03aH
	DB	030H
	DB	030H
	DB	03dH
	DB	0fbH
	DB	03aH
	DB	013H
	DB	013H
	DB	013H
	DB	013H
	DB	0a9H
	DB	082H
	DB	0d0H
	DB	0cbH
	DB	080H
	DB	068H
	DB	033H
	DB	013H
	DB	013H
	DB	013H
	DB	013H
	DB	013H
	DB	013H
	DB	016H
	DB	01fH
	DB	0c6H
	DB	016H
	DB	013H
	DB	013H
	DB	013H
	DB	013H
	DB	025H
	DB	012H
	DB	054H
	DB	0c1H
	DB	01H
	DB	04H
	DB	04H
	DB	015H
	DB	015H
	DB	015H
	DB	015H
	DB	015H
	DB	015H
	DB	015H
	DB	04H
	DB	00H
	DB	00H
	DB	00H
	DB	00H
	DB	00H
	DB	00H
	DB	04aH
	DB	081H
	DB	01H
	DB	077H
	DB	01H
	DB	01H
	DB	0b5H
	DB	0cdH
	DB	01aH
	DB	017H
	DB	01aH
	DB	0b9H
	DB	041H
	DB	048H
	DB	02dH
	DB	017H
	DB	017H
	DB	017H
	DB	017H
	DB	017H
	DB	042H
	DB	041H
	DB	03H
	DB	042H
	DB	01aH
	DB	01aH
	DB	0cdH
	DB	0afH
	DB	014H
	DB	014H
	DB	015H
	DB	095H
	DB	04fH
	DB	0acH
	DB	07H
	DB	0aH
	DB	069H
	DB	08H
	DB	07eH
	DB	01H
	DB	01H
	DB	014H
	DB	04H
	DB	010H
	DB	0cH
	DB	0acH
	DB	07H
	DB	061H
	DB	06H
	DB	08H
	DB	0dH
	DB	05H
	DB	0acH
	DB	02H
	DB	02H
	DB	02H
	DB	0acH
	DB	07dH
	DB	04fH
	DB	04H
	DB	01H
	DB	01H
	DB	01H
	DB	01H
	DB	077H
	DB	014H
	DB	0fH
	DB	0cH
	DB	074H
	DB	06H
	DB	04fH
	DB	0cH
	DB	0aH
	DB	07H
	DB	0aeH
	DB	02H
	DB	026H
	DB	05dH
	DB	05dH
	DB	075H
	DB	0fbH
	DB	03aH
	DB	026H
	DB	013H
	DB	013H
	DB	0a9H
	DB	082H
	DB	086H
	DB	099H
	DB	054H
	DB	01fH
	DB	033H
	DB	013H
	DB	013H
	DB	013H
	DB	013H
	DB	013H
	DB	013H
	DB	013H
	DB	013H
	DB	054H
	DB	0dbH
	DB	016H
	DB	013H
	DB	013H
	DB	03aH
	DB	0fH
	DB	01H
	DB	01H
	DB	01H
	DB	03H
	DB	07eH
	DB	015H
	DB	015H
	DB	015H
	DB	015H
	DB	015H
	DB	015H
	DB	015H
	DB	015H
	DB	04H
	DB	00H
	DB	00H
	DB	00H
	DB	00H
	DB	00H
	DB	00H
	DB	04aH
	DB	081H
	DB	01H
	DB	077H
	DB	01H
	DB	01H
	DB	03H
	DB	02dH
	DB	017H
	DB	017H
	DB	01aH
	DB	024H
	DB	04H
	DB	041H
	DB	0cdH
	DB	01aH
	DB	017H
	DB	017H
	DB	017H
	DB	01aH
	DB	024H
	DB	04H
	DB	0b5H
	DB	024H
	DB	01aH
	DB	017H
	DB	02dH
	DB	04H
	DB	014H
	DB	015H
	DB	04fH
	DB	02H
	DB	02H
	DB	02H
	DB	0aeH
	DB	02H
	DB	02H
	DB	02H
	DB	095H
	DB	04H
	DB	01H
	DB	04H
	DB	05H
	DB	02H
	DB	02H
	DB	02H
	DB	0ffH
	DB	02H
	DB	02H
	DB	05H
	DB	05bH
	DB	0cH
	DB	02H
	DB	02H
	DB	02H
	DB	02H
	DB	02H
	DB	02H
	DB	0ffH
	DB	04H
	DB	077H
	DB	01H
	DB	01H
	DB	01H
	DB	01H
	DB	014H
	DB	054H
	DB	0cH
	DB	0a7H
	DB	0a7H
	DB	0fbH
	DB	0acH
	DB	0ffH
	DB	02H
	DB	02H
	DB	02H
	DB	02H
	DB	0eH
	DB	05dH
	DB	072H
	DB	031H
	DB	0cH
	DB	021H
	DB	026H
	DB	013H
	DB	033H
	DB	018H
	DB	086H
	DB	06bH
	DB	03dH
	DB	060H
	DB	051H
	DB	013H
	DB	013H
	DB	013H
	DB	013H
	DB	013H
	DB	013H
	DB	013H
	DB	016H
	DB	06bH
	DB	03H
	DB	06bH
	DB	020H
	DB	03aH
	DB	0cH
	DB	010H
	DB	03H
	DB	014H
	DB	014H
	DB	07eH
	DB	04H
	DB	015H
	DB	015H
	DB	015H
	DB	015H
	DB	015H
	DB	015H
	DB	015H
	DB	015H
	DB	04H
	DB	00H
	DB	00H
	DB	00H
	DB	00H
	DB	00H
	DB	00H
	DB	04aH
	DB	081H
	DB	01H
	DB	077H
	DB	01H
	DB	01H
	DB	048H
	DB	064H
	DB	018H
	DB	017H
	DB	01aH
	DB	018H
	DB	07fH
	DB	07eH
	DB	055H
	DB	01aH
	DB	018H
	DB	018H
	DB	017H
	DB	01aH
	DB	018H
	DB	07fH
	DB	07eH
	DB	018H
	DB	01aH
	DB	018H
	DB	0b1H
	DB	03H
	DB	07eH
	DB	0fH
	DB	02H
	DB	02H
	DB	07dH
	DB	093H
	DB	04aH
	DB	010H
	DB	02H
	DB	02H
	DB	02H
	DB	054H
	DB	04H
	DB	054H
	DB	02H
	DB	02H
	DB	06H
	DB	03H
	DB	04aH
	DB	07eH
	DB	012H
	DB	01H
	DB	0dH
	DB	081H
	DB	05H
	DB	02H
	DB	02H
	DB	02H
	DB	0fH
	DB	010H
	DB	095H
	DB	07eH
	DB	014H
	DB	01H
	DB	01H
	DB	01H
	DB	01H
	DB	077H
	DB	03H
	DB	012H
	DB	0fcH
	DB	0aH
	DB	07H
	DB	0ffH
	DB	02H
	DB	02H
	DB	02H
	DB	02H
	DB	02H
	DB	02H
	DB	026H
	DB	072H
	DB	0a4H
	DB	057H
	DB	025H
	DB	0cH
	DB	03aH
	DB	033H
	DB	098H
	DB	0d1H
	DB	0cbH
	DB	06bH
	DB	060H
	DB	03aH
	DB	013H
	DB	013H
	DB	013H
	DB	013H
	DB	013H
	DB	013H
	DB	013H
	DB	013H
	DB	016H
	DB	0dbH
	DB	06eH
	DB	03aH
	DB	040H
	DB	06H
	DB	0c1H
	DB	03H
	DB	014H
	DB	015H
	DB	07eH
	DB	015H
	DB	015H
	DB	015H
	DB	015H
	DB	015H
	DB	015H
	DB	015H
	DB	015H
	DB	015H
	DB	04H
	DB	00H
	DB	00H
	DB	00H
	DB	00H
	DB	00H
	DB	00H
	DB	04aH
	DB	081H
	DB	01H
	DB	077H
	DB	01H
	DB	01H
	DB	01H
	DB	063H
	DB	055H
	DB	01aH
	DB	017H
	DB	01aH
	DB	02dH
	DB	064H
	DB	017H
	DB	01aH
	DB	0b9H
	DB	042H
	DB	01aH
	DB	017H
	DB	01aH
	DB	02dH
	DB	064H
	DB	017H
	DB	01aH
	DB	024H
	DB	0dH
	DB	0b5H
	DB	054H
	DB	0aeH
	DB	02H
	DB	02H
	DB	01H
	DB	00H
	DB	07eH
	DB	00H
	DB	06H
	DB	02H
	DB	02H
	DB	0fH
	DB	04aH
	DB	012H
	DB	02H
	DB	02H
	DB	010H
	DB	00H
	DB	04aH
	DB	07eH
	DB	04aH
	DB	035H
	DB	03H
	DB	0dH
	DB	03H
	DB	02H
	DB	02H
	DB	02H
	DB	081H
	DB	00H
	DB	05bH
	DB	04H
	DB	014H
	DB	01H
	DB	01H
	DB	01H
	DB	01H
	DB	01H
	DB	077H
	DB	03H
	DB	010H
	DB	0aH
	DB	0ffH
	DB	02H
	DB	02H
	DB	02H
	DB	02H
	DB	02H
	DB	02H
	DB	02H
	DB	02H
	DB	034H
	DB	073H
	DB	0a0H
	DB	08cH
	DB	031H
	DB	0cH
	DB	040H
	DB	079H
	DB	097H
	DB	0c3H
	DB	06bH
	DB	060H
	DB	03aH
	DB	013H
	DB	013H
	DB	013H
	DB	013H
	DB	013H
	DB	013H
	DB	013H
	DB	013H
	DB	013H
	DB	03aH
	DB	05eH
	DB	0a8H
	DB	08eH
	DB	0f1H
	DB	03H
	DB	014H
	DB	03H
	DB	07eH
	DB	015H
	DB	015H
	DB	015H
	DB	015H
	DB	015H
	DB	015H
	DB	015H
	DB	015H
	DB	015H
	DB	015H
	DB	04H
	DB	00H
	DB	00H
	DB	00H
	DB	00H
	DB	00H
	DB	00H
	DB	04aH
	DB	081H
	DB	01H
	DB	077H
	DB	01H
	DB	01H
	DB	01H
	DB	041H
	DB	042H
	DB	01aH
	DB	017H
	DB	01aH
	DB	0b9H
	DB	042H
	DB	01aH
	DB	017H
	DB	0b3H
	DB	0b2H
	DB	017H
	DB	017H
	DB	01aH
	DB	0ceH
	DB	042H
	DB	01aH
	DB	01aH
	DB	042H
	DB	063H
	DB	07eH
	DB	011H
	DB	02H
	DB	02H
	DB	0acH
	DB	0dH
	DB	0dH
	DB	04H
	DB	04aH
	DB	010H
	DB	02H
	DB	02H
	DB	0fbH
	DB	04aH
	DB	08H
	DB	02H
	DB	02H
	DB	0ffH
	DB	05H
	DB	081H
	DB	04H
	DB	07eH
	DB	03H
	DB	014H
	DB	03H
	DB	0c1H
	DB	02H
	DB	02H
	DB	02H
	DB	012H
	DB	0dH
	DB	03H
	DB	03H
	DB	077H
	DB	01H
	DB	01H
	DB	01H
	DB	01H
	DB	01H
	DB	077H
	DB	077H
	DB	03H
	DB	0d2H
	DB	0aH
	DB	0aeH
	DB	02H
	DB	02H
	DB	02H
	DB	02H
	DB	02H
	DB	02H
	DB	02H
	DB	02H
	DB	0ffH
	DB	076H
	DB	046H
	DB	0a0H
	DB	067H
	DB	050H
	DB	083H
	DB	07bH
	DB	011H
	DB	060H
	DB	060H
	DB	03aH
	DB	013H
	DB	013H
	DB	013H
	DB	013H
	DB	013H
	DB	013H
	DB	026H
	DB	03aH
	DB	021H
	DB	0fbH
	DB	051H
	DB	076H
	DB	059H
	DB	0c1H
	DB	03H
	DB	014H
	DB	07eH
	DB	04H
	DB	015H
	DB	015H
	DB	015H
	DB	015H
	DB	015H
	DB	015H
	DB	015H
	DB	015H
	DB	015H
	DB	015H
	DB	04H
	DB	00H
	DB	00H
	DB	00H
	DB	00H
	DB	00H
	DB	00H
	DB	04aH
	DB	081H
	DB	01H
	DB	077H
	DB	01H
	DB	01H
	DB	01H
	DB	027H
	DB	02dH
	DB	017H
	DB	017H
	DB	017H
	DB	018H
	DB	055H
	DB	01aH
	DB	018H
	DB	04aH
	DB	035H
	DB	018H
	DB	01aH
	DB	01aH
	DB	018H
	DB	024H
	DB	01aH
	DB	017H
	DB	0b3H
	DB	04H
	DB	04H
	DB	0fH
	DB	02H
	DB	02H
	DB	0ffH
	DB	05H
	DB	05H
	DB	05H
	DB	05H
	DB	04fH
	DB	02H
	DB	02H
	DB	0acH
	DB	015H
	DB	015H
	DB	061H
	DB	02H
	DB	02H
	DB	02H
	DB	02H
	DB	07H
	DB	011H
	DB	015H
	DB	03H
	DB	03H
	DB	054H
	DB	0aeH
	DB	02H
	DB	02H
	DB	012H
	DB	04H
	DB	01H
	DB	01H
	DB	01H
	DB	01H
	DB	01H
	DB	01H
	DB	01H
	DB	01H
	DB	077H
	DB	077H
	DB	014H
	DB	014H
	DB	0d2H
	DB	0fbH
	DB	0aeH
	DB	02H
	DB	02H
	DB	02H
	DB	02H
	DB	02H
	DB	02H
	DB	02H
	DB	02H
	DB	02H
	DB	0eH
	DB	067H
	DB	0a0H
	DB	046H
	DB	0e4H
	DB	087H
	DB	025H
	DB	0fH
	DB	074H
	DB	040H
	DB	021H
	DB	021H
	DB	021H
	DB	021H
	DB	021H
	DB	040H
	DB	040H
	DB	0cH
	DB	03dH
	DB	052H
	DB	044H
	DB	06cH
	DB	0ccH
	DB	093H
	DB	014H
	DB	04H
	DB	07eH
	DB	015H
	DB	015H
	DB	015H
	DB	015H
	DB	015H
	DB	015H
	DB	015H
	DB	015H
	DB	015H
	DB	015H
	DB	015H
	DB	04H
	DB	00H
	DB	00H
	DB	00H
	DB	00H
	DB	00H
	DB	00H
	DB	04aH
	DB	081H
	DB	01H
	DB	077H
	DB	01H
	DB	01H
	DB	01H
	DB	048H
	DB	07fH
	DB	018H
	DB	01aH
	DB	017H
	DB	017H
	DB	017H
	DB	01aH
	DB	02eH
	DB	0dH
	DB	063H
	DB	02eH
	DB	01aH
	DB	017H
	DB	017H
	DB	017H
	DB	01aH
	DB	018H
	DB	04aH
	DB	03H
	DB	015H
	DB	06H
	DB	02H
	DB	02H
	DB	02H
	DB	02H
	DB	02H
	DB	02H
	DB	02H
	DB	02H
	DB	02H
	DB	02H
	DB	0acH
	DB	03H
	DB	07eH
	DB	054H
	DB	0acH
	DB	02H
	DB	02H
	DB	02H
	DB	02H
	DB	02H
	DB	06H
	DB	015H
	DB	03H
	DB	054H
	DB	0aeH
	DB	02H
	DB	02H
	DB	012H
	DB	04H
	DB	01H
	DB	01H
	DB	01H
	DB	01H
	DB	01H
	DB	01H
	DB	01H
	DB	01H
	DB	01H
	DB	077H
	DB	077H
	DB	014H
	DB	03H
	DB	095H
	DB	0cH
	DB	0ffH
	DB	02H
	DB	02H
	DB	02H
	DB	02H
	DB	02H
	DB	02H
	DB	02H
	DB	02H
	DB	02H
	DB	0ffH
	DB	0abH
	DB	067H
	DB	0e5H
	DB	0a0H
	DB	0a4H
	DB	0a1H
	DB	0e1H
	DB	03cH
	DB	03fH
	DB	060H
	DB	03dH
	DB	03dH
	DB	03dH
	DB	03fH
	DB	031H
	DB	05cH
	DB	058H
	DB	058H
	DB	05aH
	DB	045H
	DB	027H
	DB	03H
	DB	015H
	DB	07eH
	DB	015H
	DB	015H
	DB	015H
	DB	015H
	DB	015H
	DB	015H
	DB	015H
	DB	015H
	DB	015H
	DB	015H
	DB	015H
	DB	015H
	DB	04H
	DB	00H
	DB	00H
	DB	00H
	DB	00H
	DB	00H
	DB	00H
	DB	04aH
	DB	081H
	DB	01H
	DB	077H
	DB	01H
	DB	01H
	DB	01H
	DB	01H
	DB	063H
	DB	024H
	DB	01aH
	DB	017H
	DB	017H
	DB	017H
	DB	01aH
	DB	02dH
	DB	063H
	DB	03H
	DB	02dH
	DB	017H
	DB	017H
	DB	017H
	DB	017H
	DB	01aH
	DB	02eH
	DB	0afH
	DB	014H
	DB	015H
	DB	0fH
	DB	02H
	DB	02H
	DB	0fbH
	DB	054H
	DB	0c1H
	DB	054H
	DB	054H
	DB	0c1H
	DB	0c1H
	DB	0c1H
	DB	01H
	DB	04H
	DB	014H
	DB	07eH
	DB	07eH
	DB	081H
	DB	0f3H
	DB	0aeH
	DB	02H
	DB	02H
	DB	02H
	DB	081H
	DB	04H
	DB	054H
	DB	0aeH
	DB	02H
	DB	02H
	DB	012H
	DB	04H
	DB	01H
	DB	01H
	DB	01H
	DB	01H
	DB	01H
	DB	01H
	DB	01H
	DB	01H
	DB	01H
	DB	01H
	DB	077H
	DB	077H
	DB	014H
	DB	03H
	DB	081H
	DB	06H
	DB	07H
	DB	02H
	DB	02H
	DB	02H
	DB	02H
	DB	02H
	DB	02H
	DB	02H
	DB	02H
	DB	02H
	DB	02H
	DB	07H
	DB	08eH
	DB	057H
	DB	0a4H
	DB	09eH
	DB	0e9H
	DB	0a0H
	DB	019H
	DB	019H
	DB	0a4H
	DB	0a5H
	DB	0a5H
	DB	0a5H
	DB	0a5H
	DB	058H
	DB	05cH
	DB	06aH
	DB	0a8H
	DB	08H
	DB	03H
	DB	015H
	DB	07eH
	DB	015H
	DB	015H
	DB	015H
	DB	015H
	DB	015H
	DB	015H
	DB	015H
	DB	015H
	DB	015H
	DB	015H
	DB	015H
	DB	015H
	DB	015H
	DB	04H
	DB	00H
	DB	00H
	DB	00H
	DB	00H
	DB	00H
	DB	00H
	DB	04aH
	DB	081H
	DB	01H
	DB	077H
	DB	01H
	DB	01H
	DB	01H
	DB	01H
	DB	041H
	DB	042H
	DB	01aH
	DB	017H
	DB	017H
	DB	01aH
	DB	018H
	DB	0b1H
	DB	041H
	DB	048H
	DB	064H
	DB	018H
	DB	01aH
	DB	017H
	DB	017H
	DB	01aH
	DB	02dH
	DB	063H
	DB	077H
	DB	04H
	DB	011H
	DB	02H
	DB	02H
	DB	061H
	DB	04aH
	DB	04aH
	DB	0dH
	DB	0dH
	DB	0dH
	DB	04aH
	DB	04aH
	DB	0dH
	DB	015H
	DB	077H
	DB	077H
	DB	04H
	DB	04aH
	DB	05bH
	DB	027H
	DB	0acH
	DB	02H
	DB	02H
	DB	011H
	DB	035H
	DB	054H
	DB	02H
	DB	02H
	DB	02H
	DB	012H
	DB	04H
	DB	01H
	DB	01H
	DB	01H
	DB	01H
	DB	01H
	DB	01H
	DB	01H
	DB	01H
	DB	01H
	DB	01H
	DB	01H
	DB	077H
	DB	077H
	DB	014H
	DB	03H
	DB	054H
	DB	05H
	DB	0aH
	DB	02H
	DB	02H
	DB	02H
	DB	02H
	DB	02H
	DB	02H
	DB	02H
	DB	02H
	DB	0aeH
	DB	0aeH
	DB	090H
	DB	0acH
	DB	040H
	DB	05fH
	DB	09bH
	DB	057H
	DB	067H
	DB	08cH
	DB	08cH
	DB	067H
	DB	057H
	DB	01bH
	DB	03cH
	DB	045H
	DB	069H
	DB	07dH
	DB	010H
	DB	015H
	DB	04H
	DB	07eH
	DB	015H
	DB	015H
	DB	015H
	DB	015H
	DB	015H
	DB	015H
	DB	015H
	DB	015H
	DB	015H
	DB	015H
	DB	015H
	DB	015H
	DB	015H
	DB	015H
	DB	04H
	DB	00H
	DB	00H
	DB	00H
	DB	00H
	DB	00H
	DB	00H
	DB	04aH
	DB	081H
	DB	01H
	DB	077H
	DB	01H
	DB	01H
	DB	01H
	DB	01H
	DB	048H
	DB	064H
	DB	017H
	DB	017H
	DB	017H
	DB	01aH
	DB	02eH
	DB	0afH
	DB	03H
	DB	01H
	DB	04H
	DB	02eH
	DB	01aH
	DB	017H
	DB	017H
	DB	017H
	DB	0b2H
	DB	0b5H
	DB	01H
	DB	03H
	DB	054H
	DB	02H
	DB	02H
	DB	02H
	DB	095H
	DB	04aH
	DB	07eH
	DB	07eH
	DB	035H
	DB	035H
	DB	015H
	DB	03H
	DB	014H
	DB	015H
	DB	07eH
	DB	015H
	DB	015H
	DB	07eH
	DB	05bH
	DB	06H
	DB	02H
	DB	02H
	DB	0d2H
	DB	035H
	DB	077H
	DB	0ffH
	DB	02H
	DB	02H
	DB	095H
	DB	04aH
	DB	015H
	DB	014H
	DB	01H
	DB	01H
	DB	01H
	DB	01H
	DB	01H
	DB	01H
	DB	01H
	DB	01H
	DB	01H
	DB	01H
	DB	077H
	DB	077H
	DB	077H
	DB	03H
	DB	014H
	DB	095H
	DB	06H
	DB	07H
	DB	02H
	DB	02H
	DB	02H
	DB	02H
	DB	0aeH
	DB	0ffH
	DB	0ffH
	DB	07H
	DB	061H
	DB	0aH
	DB	0fcH
	DB	0a7H
	DB	04fH
	DB	0cH
	DB	0a7H
	DB	06H
	DB	045H
	DB	06H
	DB	06H
	DB	0f3H
	DB	0f3H
	DB	06H
	DB	0fbH
	DB	0ccH
	DB	015H
	DB	07eH
	DB	07eH
	DB	015H
	DB	015H
	DB	015H
	DB	015H
	DB	015H
	DB	015H
	DB	015H
	DB	015H
	DB	015H
	DB	015H
	DB	015H
	DB	015H
	DB	015H
	DB	015H
	DB	015H
	DB	04H
	DB	00H
	DB	00H
	DB	00H
	DB	00H
	DB	00H
	DB	00H
	DB	04aH
	DB	081H
	DB	01H
	DB	077H
	DB	01H
	DB	01H
	DB	01H
	DB	01H
	DB	01H
	DB	04H
	DB	082H
	DB	01aH
	DB	017H
	DB	01aH
	DB	02dH
	DB	063H
	DB	014H
	DB	01H
	DB	041H
	DB	02dH
	DB	017H
	DB	017H
	DB	01aH
	DB	055H
	DB	0dH
	DB	03H
	DB	01H
	DB	01H
	DB	07eH
	DB	0fH
	DB	02H
	DB	02H
	DB	0aeH
	DB	0fH
	DB	095H
	DB	095H
	DB	011H
	DB	069H
	DB	0a7H
	DB	014H
	DB	015H
	DB	0c1H
	DB	05H
	DB	012H
	DB	054H
	DB	08H
	DB	05H
	DB	02H
	DB	02H
	DB	02H
	DB	077H
	DB	015H
	DB	04H
	DB	0fbH
	DB	02H
	DB	02H
	DB	0aH
	DB	010H
	DB	095H
	DB	01H
	DB	014H
	DB	01H
	DB	01H
	DB	01H
	DB	01H
	DB	01H
	DB	01H
	DB	01H
	DB	01H
	DB	01H
	DB	01H
	DB	077H
	DB	077H
	DB	077H
	DB	014H
	DB	03H
	DB	01H
	DB	010H
	DB	04fH
	DB	0ffH
	DB	02H
	DB	02H
	DB	0ffH
	DB	07H
	DB	0acH
	DB	0aH
	DB	0aH
	DB	0fbH
	DB	0fbH
	DB	0a7H
	DB	0a8H
	DB	0cH
	DB	0cH
	DB	0a7H
	DB	0a7H
	DB	04fH
	DB	06H
	DB	069H
	DB	0a7H
	DB	07dH
	DB	095H
	DB	07eH
	DB	07eH
	DB	04H
	DB	015H
	DB	015H
	DB	015H
	DB	015H
	DB	015H
	DB	015H
	DB	015H
	DB	015H
	DB	015H
	DB	015H
	DB	015H
	DB	015H
	DB	015H
	DB	015H
	DB	015H
	DB	015H
	DB	04H
	DB	00H
	DB	00H
	DB	00H
	DB	00H
	DB	00H
	DB	00H
	DB	04aH
	DB	081H
	DB	01H
	DB	077H
	DB	01H
	DB	01H
	DB	01H
	DB	01H
	DB	01H
	DB	0b5H
	DB	0ceH
	DB	01aH
	DB	01aH
	DB	018H
	DB	0b1H
	DB	041H
	DB	077H
	DB	01H
	DB	01H
	DB	064H
	DB	018H
	DB	01aH
	DB	01aH
	DB	0cdH
	DB	0afH
	DB	014H
	DB	01H
	DB	01H
	DB	03H
	DB	04H
	DB	04fH
	DB	02H
	DB	02H
	DB	02H
	DB	02H
	DB	02H
	DB	02H
	DB	02H
	DB	02H
	DB	077H
	DB	07eH
	DB	0f0H
	DB	02H
	DB	02H
	DB	02H
	DB	02H
	DB	02H
	DB	02H
	DB	02H
	DB	010H
	DB	04aH
	DB	03H
	DB	015H
	DB	012H
	DB	02H
	DB	02H
	DB	02H
	DB	02H
	DB	02H
	DB	011H
	DB	04H
	DB	01H
	DB	01H
	DB	01H
	DB	01H
	DB	01H
	DB	01H
	DB	01H
	DB	01H
	DB	01H
	DB	01H
	DB	01H
	DB	077H
	DB	077H
	DB	077H
	DB	077H
	DB	03H
	DB	093H
	DB	077H
	DB	095H
	DB	0fH
	DB	0aH
	DB	07H
	DB	07H
	DB	0aH
	DB	0aH
	DB	0fbH
	DB	0fbH
	DB	07dH
	DB	0a7H
	DB	0a7H
	DB	0a7H
	DB	0a7H
	DB	04fH
	DB	06H
	DB	06H
	DB	06H
	DB	0cH
	DB	069H
	DB	0c1H
	DB	0dH
	DB	07eH
	DB	015H
	DB	015H
	DB	015H
	DB	015H
	DB	015H
	DB	015H
	DB	015H
	DB	015H
	DB	015H
	DB	015H
	DB	015H
	DB	015H
	DB	015H
	DB	015H
	DB	015H
	DB	015H
	DB	015H
	DB	015H
	DB	04H
	DB	00H
	DB	00H
	DB	00H
	DB	00H
	DB	00H
	DB	00H
	DB	04aH
	DB	081H
	DB	01H
	DB	077H
	DB	01H
	DB	01H
	DB	01H
	DB	01H
	DB	01H
	DB	03H
	DB	02dH
	DB	018H
	DB	018H
	DB	0cdH
	DB	0dH
	DB	03H
	DB	01H
	DB	01H
	DB	01H
	DB	04H
	DB	0ceH
	DB	018H
	DB	018H
	DB	02dH
	DB	04H
	DB	077H
	DB	01H
	DB	01H
	DB	01H
	DB	015H
	DB	0dH
	DB	081H
	DB	069H
	DB	0aH
	DB	061H
	DB	0aH
	DB	04fH
	DB	0a6H
	DB	077H
	DB	04H
	DB	03H
	DB	0c1H
	DB	0fH
	DB	0fbH
	DB	061H
	DB	061H
	DB	07dH
	DB	0fH
	DB	014H
	DB	04aH
	DB	04H
	DB	014H
	DB	01H
	DB	07eH
	DB	012H
	DB	0cH
	DB	061H
	DB	0aH
	DB	04fH
	DB	08H
	DB	04H
	DB	01H
	DB	01H
	DB	01H
	DB	01H
	DB	01H
	DB	01H
	DB	01H
	DB	01H
	DB	01H
	DB	01H
	DB	01H
	DB	01H
	DB	077H
	DB	077H
	DB	077H
	DB	077H
	DB	077H
	DB	03H
	DB	015H
	DB	015H
	DB	054H
	DB	0d2H
	DB	0fH
	DB	0cH
	DB	0fbH
	DB	0fbH
	DB	07dH
	DB	0cH
	DB	0a7H
	DB	04fH
	DB	04fH
	DB	06H
	DB	06H
	DB	06H
	DB	06H
	DB	05H
	DB	081H
	DB	07eH
	DB	035H
	DB	015H
	DB	015H
	DB	015H
	DB	015H
	DB	015H
	DB	015H
	DB	015H
	DB	015H
	DB	015H
	DB	015H
	DB	015H
	DB	015H
	DB	015H
	DB	015H
	DB	015H
	DB	015H
	DB	093H
	DB	093H
	DB	093H
	DB	03H
	DB	04H
	DB	00H
	DB	00H
	DB	00H
	DB	00H
	DB	00H
	DB	00H
	DB	04aH
	DB	081H
	DB	01H
	DB	077H
	DB	01H
	DB	01H
	DB	01H
	DB	01H
	DB	01H
	DB	01H
	DB	04H
	DB	0b1H
	DB	0b1H
	DB	04aH
	DB	04H
	DB	014H
	DB	01H
	DB	01H
	DB	01H
	DB	014H
	DB	035H
	DB	0b1H
	DB	04aH
	DB	0dH
	DB	03H
	DB	01H
	DB	01H
	DB	01H
	DB	01H
	DB	077H
	DB	015H
	DB	0dH
	DB	00H
	DB	0dH
	DB	07eH
	DB	0dH
	DB	00H
	DB	00H
	DB	0dH
	DB	015H
	DB	014H
	DB	093H
	DB	04aH
	DB	04aH
	DB	07eH
	DB	07eH
	DB	05bH
	DB	00H
	DB	04aH
	DB	04H
	DB	03H
	DB	077H
	DB	01H
	DB	014H
	DB	0dH
	DB	04aH
	DB	07eH
	DB	0dH
	DB	00H
	DB	0dH
	DB	03H
	DB	01H
	DB	01H
	DB	01H
	DB	01H
	DB	01H
	DB	01H
	DB	01H
	DB	01H
	DB	01H
	DB	01H
	DB	01H
	DB	01H
	DB	01H
	DB	01H
	DB	01H
	DB	077H
	DB	077H
	DB	077H
	DB	077H
	DB	03H
	DB	015H
	DB	04H
	DB	015H
	DB	01H
	DB	012H
	DB	0ccH
	DB	0f0H
	DB	05H
	DB	05H
	DB	05H
	DB	0f0H
	DB	011H
	DB	0d2H
	DB	081H
	DB	077H
	DB	07eH
	DB	07eH
	DB	015H
	DB	03H
	DB	03H
	DB	093H
	DB	093H
	DB	093H
	DB	093H
	DB	093H
	DB	093H
	DB	093H
	DB	093H
	DB	093H
	DB	093H
	DB	03H
	DB	03H
	DB	03H
	DB	03H
	DB	03H
	DB	03H
	DB	03H
	DB	03H
	DB	03H
	DB	015H
	DB	05bH
	DB	00H
	DB	00H
	DB	00H
	DB	00H
	DB	00H
	DB	04aH
	DB	08H
	DB	01H
	DB	01H
	DB	01H
	DB	01H
	DB	01H
	DB	01H
	DB	01H
	DB	01H
	DB	014H
	DB	0b5H
	DB	063H
	DB	04H
	DB	03H
	DB	077H
	DB	01H
	DB	01H
	DB	01H
	DB	01H
	DB	03H
	DB	04H
	DB	063H
	DB	015H
	DB	03H
	DB	01H
	DB	01H
	DB	01H
	DB	01H
	DB	01H
	DB	014H
	DB	03H
	DB	015H
	DB	04H
	DB	07eH
	DB	07eH
	DB	04H
	DB	015H
	DB	015H
	DB	03H
	DB	077H
	DB	014H
	DB	03H
	DB	04H
	DB	07eH
	DB	07eH
	DB	04H
	DB	04H
	DB	015H
	DB	03H
	DB	077H
	DB	01H
	DB	01H
	DB	01H
	DB	014H
	DB	015H
	DB	07eH
	DB	07eH
	DB	04H
	DB	015H
	DB	03H
	DB	01H
	DB	01H
	DB	01H
	DB	01H
	DB	01H
	DB	01H
	DB	01H
	DB	01H
	DB	01H
	DB	01H
	DB	01H
	DB	01H
	DB	01H
	DB	01H
	DB	01H
	DB	01H
	DB	01H
	DB	077H
	DB	077H
	DB	077H
	DB	077H
	DB	077H
	DB	03H
	DB	015H
	DB	015H
	DB	04H
	DB	07eH
	DB	04H
	DB	04H
	DB	04H
	DB	04H
	DB	04H
	DB	04H
	DB	04H
	DB	015H
	DB	03H
	DB	03H
	DB	03H
	DB	03H
	DB	03H
	DB	03H
	DB	03H
	DB	03H
	DB	03H
	DB	03H
	DB	03H
	DB	03H
	DB	03H
	DB	03H
	DB	03H
	DB	03H
	DB	03H
	DB	03H
	DB	03H
	DB	03H
	DB	03H
	DB	03H
	DB	03H
	DB	03H
	DB	015H
	DB	00H
	DB	00H
	DB	00H
	DB	00H
	DB	00H
	DB	00H
	DB	00H
	DB	03H
	DB	01H
	DB	01H
	DB	01H
	DB	01H
	DB	01H
	DB	01H
	DB	01H
	DB	01H
	DB	01H
	DB	077H
	DB	014H
	DB	014H
	DB	01H
	DB	01H
	DB	01H
	DB	01H
	DB	01H
	DB	01H
	DB	01H
	DB	014H
	DB	014H
	DB	014H
	DB	01H
	DB	01H
	DB	01H
	DB	01H
	DB	01H
	DB	01H
	DB	01H
	DB	01H
	DB	01H
	DB	077H
	DB	014H
	DB	014H
	DB	014H
	DB	077H
	DB	01H
	DB	01H
	DB	01H
	DB	01H
	DB	01H
	DB	077H
	DB	014H
	DB	014H
	DB	014H
	DB	077H
	DB	01H
	DB	01H
	DB	01H
	DB	01H
	DB	01H
	DB	01H
	DB	01H
	DB	077H
	DB	014H
	DB	014H
	DB	014H
	DB	077H
	DB	01H
	DB	01H
	DB	01H
	DB	01H
	DB	01H
	DB	01H
	DB	01H
	DB	01H
	DB	01H
	DB	01H
	DB	01H
	DB	01H
	DB	01H
	DB	01H
	DB	01H
	DB	01H
	DB	01H
	DB	01H
	DB	01H
	DB	01H
	DB	01H
	DB	01H
	DB	01H
	DB	01H
	DB	01H
	DB	01H
	DB	01H
	DB	077H
	DB	014H
	DB	014H
	DB	014H
	DB	014H
	DB	014H
	DB	014H
	DB	014H
	DB	014H
	DB	014H
	DB	03H
	DB	03H
	DB	03H
	DB	03H
	DB	03H
	DB	03H
	DB	03H
	DB	03H
	DB	03H
	DB	03H
	DB	03H
	DB	03H
	DB	03H
	DB	03H
	DB	03H
	DB	014H
	DB	014H
	DB	014H
	DB	014H
	DB	014H
	DB	014H
	DB	014H
	DB	03H
	DB	035H
	DB	00H
	DB	00H
	DB	00H
	DB	00H
	DB	00H
	DB	00H
	DB	00H
	DB	04aH
	DB	04H
	DB	015H
	DB	03H
	DB	03H
	DB	03H
	DB	03H
	DB	03H
	DB	03H
	DB	03H
	DB	03H
	DB	03H
	DB	03H
	DB	03H
	DB	03H
	DB	03H
	DB	03H
	DB	03H
	DB	03H
	DB	03H
	DB	03H
	DB	03H
	DB	03H
	DB	03H
	DB	03H
	DB	03H
	DB	03H
	DB	03H
	DB	03H
	DB	03H
	DB	03H
	DB	03H
	DB	03H
	DB	03H
	DB	03H
	DB	03H
	DB	03H
	DB	03H
	DB	03H
	DB	03H
	DB	03H
	DB	03H
	DB	03H
	DB	03H
	DB	03H
	DB	03H
	DB	03H
	DB	03H
	DB	03H
	DB	03H
	DB	03H
	DB	03H
	DB	03H
	DB	03H
	DB	03H
	DB	03H
	DB	03H
	DB	03H
	DB	03H
	DB	03H
	DB	03H
	DB	03H
	DB	03H
	DB	03H
	DB	03H
	DB	03H
	DB	03H
	DB	03H
	DB	03H
	DB	03H
	DB	03H
	DB	03H
	DB	03H
	DB	03H
	DB	03H
	DB	03H
	DB	03H
	DB	03H
	DB	03H
	DB	03H
	DB	093H
	DB	093H
	DB	093H
	DB	093H
	DB	093H
	DB	093H
	DB	015H
	DB	015H
	DB	015H
	DB	015H
	DB	015H
	DB	015H
	DB	015H
	DB	015H
	DB	015H
	DB	015H
	DB	015H
	DB	015H
	DB	015H
	DB	015H
	DB	015H
	DB	015H
	DB	015H
	DB	015H
	DB	015H
	DB	015H
	DB	015H
	DB	015H
	DB	015H
	DB	015H
	DB	015H
	DB	015H
	DB	015H
	DB	015H
	DB	015H
	DB	015H
	DB	015H
	DB	04H
	DB	0dH
	DB	00H
	DB	00H
	DB	00H
	DB	00H
	DB	00H
	DB	00H
	DB	00H
	DB	00H
	DB	00H
	DB	00H
	DB	00H
	DB	05bH
	DB	05bH
	DB	05bH
	DB	05bH
	DB	05bH
	DB	05bH
	DB	05bH
	DB	05bH
	DB	05bH
	DB	05bH
	DB	05bH
	DB	05bH
	DB	05bH
	DB	05bH
	DB	05bH
	DB	05bH
	DB	05bH
	DB	05bH
	DB	05bH
	DB	05bH
	DB	05bH
	DB	05bH
	DB	05bH
	DB	05bH
	DB	05bH
	DB	05bH
	DB	05bH
	DB	05bH
	DB	05bH
	DB	05bH
	DB	05bH
	DB	05bH
	DB	05bH
	DB	05bH
	DB	05bH
	DB	05bH
	DB	05bH
	DB	05bH
	DB	05bH
	DB	05bH
	DB	05bH
	DB	05bH
	DB	05bH
	DB	05bH
	DB	05bH
	DB	05bH
	DB	05bH
	DB	05bH
	DB	05bH
	DB	05bH
	DB	05bH
	DB	05bH
	DB	05bH
	DB	05bH
	DB	05bH
	DB	05bH
	DB	05bH
	DB	05bH
	DB	05bH
	DB	05bH
	DB	05bH
	DB	05bH
	DB	05bH
	DB	05bH
	DB	05bH
	DB	05bH
	DB	05bH
	DB	05bH
	DB	05bH
	DB	05bH
	DB	05bH
	DB	05bH
	DB	05bH
	DB	05bH
	DB	05bH
	DB	05bH
	DB	05bH
	DB	05bH
	DB	05bH
	DB	05bH
	DB	05bH
	DB	05bH
	DB	05bH
	DB	05bH
	DB	00H
	DB	00H
	DB	00H
	DB	00H
	DB	00H
	DB	00H
	DB	00H
	DB	00H
	DB	00H
	DB	00H
	DB	00H
	DB	00H
	DB	00H
	DB	00H
	DB	00H
	DB	00H
	DB	00H
	DB	00H
	DB	00H
	DB	00H
	DB	00H
	DB	00H
	DB	00H
	DB	00H
	DB	00H
	DB	00H
	DB	00H
	DB	00H
	DB	00H
	DB	00H
	DB	00H
	DB	00H
	DB	00H
	DB	00H
	DB	00H
	DB	00H
	DB	00H
	DB	00H
	DB	00H
	DB	00H
	DB	00H
	DB	00H
	DB	00H
	DB	00H
	DB	00H
	DB	00H
	DB	00H
	DB	00H
	DB	00H
	DB	00H
	DB	00H
	DB	00H
	DB	00H
	DB	00H
	DB	00H
	DB	00H
	DB	00H
	DB	00H
	DB	00H
	DB	00H
	DB	00H
	DB	00H
	DB	00H
	DB	00H
	DB	00H
	DB	00H
	DB	00H
	DB	00H
	DB	00H
	DB	00H
	DB	00H
	DB	00H
	DB	00H
	DB	00H
	DB	00H
	DB	00H
	DB	00H
	DB	00H
	DB	00H
	DB	00H
	DB	00H
	DB	00H
	DB	00H
	DB	00H
	DB	00H
	DB	00H
	DB	00H
	DB	00H
	DB	00H
	DB	00H
	DB	00H
	DB	00H
	DB	00H
	DB	00H
	DB	00H
	DB	00H
	DB	00H
	DB	00H
	DB	00H
	DB	00H
	DB	00H
	DB	00H
	DB	00H
	DB	00H
	DB	00H
	DB	00H
	DB	00H
	DB	00H
	DB	00H
	DB	00H
	DB	00H
	DB	00H
	DB	00H
	DB	00H
	DB	00H
	DB	00H
	DB	00H
	DB	00H
	DB	00H
	DB	00H
	DB	00H
	DB	00H
	DB	00H
	DB	00H
	DB	00H
	DB	00H
	DB	00H
	DB	00H
	DB	00H
	DB	00H
	DB	00H
	DB	00H
	DB	00H
	DB	00H
	DB	00H
	DB	00H
	DB	00H
	DB	00H
	DB	00H
	DB	00H
	DB	00H
	DB	00H
	DB	00H
	DB	00H
	DB	00H
	DB	00H
	DB	00H
	DB	00H
	DB	00H
	DB	00H
	DB	00H
	DB	00H
	DB	00H
	DB	00H
	DB	00H
	DB	00H
	DB	00H
	DB	00H
	DB	00H
	DB	00H
	DB	00H
	DB	00H
	DB	00H
	DB	00H
	DB	00H
	DB	00H
	DB	00H
	DB	00H
	DB	00H
	DB	00H
	DB	00H
	DB	00H
	DB	00H
	DB	00H
	DB	00H
	DB	00H
	DB	00H
	DB	00H
	DB	00H
	DB	00H
	DB	00H
	DB	00H
	DB	00H
	DB	00H
	DB	00H
	DB	00H
	DB	00H
	DB	00H
	DB	00H
	DB	00H
	DB	00H
	DB	00H
	DB	00H
	DB	00H
	DB	00H
	DB	00H
	DB	00H
	DB	00H
	DB	00H
	DB	00H
	DB	00H
	DB	00H
	DB	00H
	DB	00H
	DB	00H
	DB	00H
	DB	00H
	DB	00H
	DB	00H
	DB	00H
	DB	00H
	DB	00H
	DB	00H
	DB	00H
	DB	00H
	DB	00H
	DB	00H
	DB	00H
	DB	00H
	DB	00H
	DB	00H
	DB	00H
	DB	00H
	DB	00H
	DB	00H
	DB	00H
	DB	00H
	DB	00H
	DB	00H
	DB	00H
	DB	00H
	DB	00H
	DB	00H
	DB	00H
	DB	00H
	DB	00H
	DB	00H
	DB	00H
	DB	00H
	DB	00H
	DB	00H
	DB	00H
	DB	00H
	DB	00H
	DB	00H
	DB	00H
	DB	00H
	DB	00H
	DB	00H
	DB	00H
	DB	00H
	DB	00H
	DB	00H
	DB	00H
	DB	00H
	DB	00H
	DB	00H
	DB	00H
	DB	00H
	DB	00H
	DB	00H
	DB	00H
	DB	00H
	DB	00H
	DB	00H
	DB	00H
	DB	00H
	DB	00H
	DB	00H
	DB	00H
	DB	00H
	DB	00H
	DB	00H
	DB	00H
	DB	00H
	DB	00H
	DB	00H
	DB	00H
	DB	00H
	DB	00H
	DB	00H
	DB	00H
	DB	00H
	DB	00H
	DB	00H
	DB	00H
	DB	00H
	DB	00H
	DB	00H
	DB	00H
	DB	00H
	DB	00H
	DB	00H
	DB	00H
	DB	00H
	DB	00H
	DB	00H
	DB	00H
	DB	00H
	DB	00H
	DB	00H
	DB	00H
	DB	00H
	DB	00H
	DB	00H
	DB	00H
	DB	00H
	DB	00H
	DB	00H
	DB	00H
	DB	00H
	DB	00H
	DB	00H
	DB	00H
	DB	00H
	DB	00H
	DB	00H
	DB	00H
	DB	00H
	DB	00H
	DB	00H
	DB	00H
	DB	00H
	DB	00H
	DB	00H
	DB	00H
	DB	00H
	DB	00H
	DB	00H
	DB	00H
	DB	00H
	DB	00H
	DB	00H
	DB	00H
	DB	00H
	DB	00H
	DB	00H
	DB	00H
	DB	00H
	DB	00H
	DB	00H
	DB	00H
	DB	00H
	DB	00H
	DB	00H
	DB	00H
	DB	00H
	DB	00H
	DB	00H
	DB	00H
	DB	00H
	DB	00H
	DB	00H
	DB	00H
	DB	00H
	DB	00H
	DB	00H
	DB	00H
	DB	00H
	DB	00H
	DB	00H
	DB	00H
	DB	00H
	DB	00H
	DB	00H
	DB	00H
	DB	00H
	DB	00H
	DB	00H
	DB	00H
	DB	00H
	DB	00H
	DB	00H
	DB	00H
	DB	00H
	DB	00H
	DB	00H
	DB	00H
	DB	00H
	DB	00H
	DB	00H
	DB	00H
	DB	00H
	DB	00H
	DB	00H
	DB	00H
	DB	00H
	DB	00H
	DB	00H
	DB	00H
	DB	00H
	DB	00H
	DB	00H
	DB	00H
	DB	00H
	DB	00H
	DB	00H
	DB	00H
	DB	00H
	DB	00H
	DB	00H
	DB	00H
	DB	00H
	DB	00H
	DB	00H
	DB	00H
	DB	00H
	DB	00H
	DB	00H
	DB	00H
	DB	00H
	DB	00H
	DB	00H
	DB	00H
	DB	00H
	DB	00H
	DB	00H
	DB	00H
	DB	00H
	DB	00H
	DB	00H
	DB	00H
	DB	00H
	DB	00H
	DB	00H
	DB	00H
	DB	00H
	DB	00H
	DB	00H
	DB	00H
	DB	00H
	DB	00H
	DB	00H
	DB	00H
	DB	00H
	DB	00H
	DB	00H
	DB	00H
	DB	00H
	DB	00H
	DB	00H
	DB	00H
	DB	00H
	DB	00H
	DB	00H
	DB	00H
	DB	00H
	DB	00H
	DB	00H
	DB	00H
	DB	00H
	DB	00H
	DB	00H
	DB	00H
	DB	00H
	DB	00H
	DB	00H
	DB	00H
	DB	00H
	DB	00H
	DB	00H
	DB	00H
	DB	00H
	DB	00H
	DB	00H
	DB	00H
	DB	00H
	DB	00H
	DB	00H
	DB	00H
	DB	00H
	DB	00H
	DB	00H
	DB	00H
	DB	00H
	DB	00H
	DB	00H
	DB	00H
	DB	00H
	DB	00H
	DB	00H
	DB	00H
	DB	00H
	DB	00H
	DB	00H
	DB	00H
	DB	00H
	DB	00H
	DB	00H
	DB	00H
	DB	00H
	DB	00H
	DB	00H
	DB	00H
	DB	00H
	DB	00H
	DB	00H
	DB	00H
	DB	00H
	DB	00H
	DB	00H
	DB	00H
	DB	00H
	DB	00H
	DB	00H
	DB	00H
	DB	00H
	DB	00H
	DB	00H
	DB	00H
	DB	00H
	DB	00H
	DB	00H
	DB	00H
	DB	00H
	DB	00H
	DB	00H
	DB	00H
	DB	00H
	DB	00H
	DB	00H
	DB	00H
	DB	00H
	DB	00H
	DB	00H
	DB	00H
	DB	00H
	DB	00H
	DB	00H
	DB	00H
	DB	00H
	DB	00H
	DB	00H
	DB	00H
	DB	00H
	DB	00H
	DB	00H
	DB	00H
	DB	00H
	DB	00H
	DB	00H
	DB	00H
	DB	00H
	DB	00H
	DB	00H
	DB	00H
	DB	00H
	DB	00H
	DB	00H
	DB	00H
	DB	00H
	DB	00H
	DB	00H
	DB	00H
	DB	00H
	DB	00H
	DB	00H
	DB	00H
	DB	00H
	DB	00H
	DB	00H
	DB	00H
	DB	00H
	DB	00H
	DB	00H
	DB	00H
	DB	00H
	DB	00H
	DB	00H
	DB	00H
	DB	00H
	DB	00H
	DB	00H
	DB	00H
	DB	00H
	DB	00H
	DB	00H
	DB	00H
	DB	00H
	DB	00H
	DB	00H
	DB	00H
	DB	00H
	DB	00H
	DB	00H
	DB	00H
	DB	00H
	DB	00H
	DB	00H
	DB	00H
	DB	00H
	DB	00H
	DB	00H
	DB	00H
	DB	00H
	DB	00H
	DB	00H
	DB	00H
	DB	00H
	DB	00H
	DB	00H
	DB	00H
	DB	00H
	DB	00H
	DB	00H
	DB	00H
	DB	00H
	DB	00H
	DB	00H
	DB	00H
	DB	00H
	DB	00H
	DB	00H
	DB	00H
	DB	00H
	DB	00H
	DB	00H
	DB	00H
	DB	00H
	DB	00H
	DB	00H
	DB	00H
	DB	00H
	DB	00H
	DB	00H
	DB	00H
	DB	00H
	DB	00H
	DB	00H
	DB	00H
	DB	00H
	DB	00H
	DB	00H
	DB	00H
	DB	00H
	DB	00H
	DB	00H
	DB	00H
	DB	00H
	DB	00H
	DB	00H
	DB	00H
	DB	00H
	DB	00H
	DB	00H
	DB	00H
	DB	00H
	DB	00H
	DB	00H
	DB	00H
	DB	00H
	DB	00H
	DB	00H
	DB	00H
	DB	00H
	DB	00H
	DB	00H
	DB	00H
	DB	00H
	DB	00H
	DB	00H
	DB	00H
	DB	00H
	DB	00H
	DB	00H
	DB	00H
	DB	00H
	DB	00H
	DB	00H
	DB	00H
	DB	00H
	DB	00H
	DB	00H
	DB	00H
	DB	00H
	DB	00H
	DB	00H
	DB	00H
	DB	00H
	DB	00H
	DB	00H
	DB	00H
	DB	00H
	DB	00H
	DB	00H
	DB	00H
	DB	00H
	DB	00H
	DB	00H
	DB	00H
	DB	00H
	DB	00H
	DB	00H
	DB	00H
	DB	00H
	DB	00H
	DB	00H
	DB	00H
	DB	00H
	DB	00H
	DB	00H
	DB	00H
	DB	00H
	DB	00H
	DB	00H
	DB	00H
	DB	00H
	DB	00H
	DB	00H
	DB	00H
	DB	00H
	DB	00H
	DB	00H
	DB	00H
	DB	00H
	DB	00H
	DB	00H
	DB	00H
	DB	00H
	DB	00H
	DB	00H
	DB	00H
	DB	00H
	DB	00H
	DB	00H
	DB	00H
	DB	00H
	DB	00H
	DB	00H
	DB	00H
	DB	00H
	DB	00H
	DB	00H
	DB	00H
	DB	00H
	DB	00H
	DB	00H
	DB	00H
	DB	00H
	DB	00H
	DB	00H
	DB	00H
	DB	00H
	DB	00H
	DB	00H
	DB	00H
	DB	00H
	DB	00H
	DB	00H
	DB	00H
	DB	00H
	DB	00H
	DB	00H
	DB	00H
	DB	00H
	DB	00H
	DB	00H
	DB	00H
	DB	00H
	DB	00H
	DB	00H
	DB	00H
	DB	00H
	DB	00H
	DB	00H
	DB	00H
	DB	00H
	DB	00H
	DB	00H
	DB	00H
	DB	00H
	DB	00H
	DB	00H
	DB	00H
	DB	00H
	DB	00H
	DB	00H
	DB	00H
	DB	00H
	DB	00H
	DB	00H
	DB	00H
	DB	00H
	DB	00H
	DB	00H
	DB	00H
	DB	00H
	DB	00H
	DB	00H
	DB	00H
	DB	00H
	DB	00H
	DB	00H
	DB	00H
	DB	00H
	DB	00H
	DB	00H
	DB	00H
	DB	00H
	DB	00H
	DB	00H
	DB	095H
	DB	0fH
	DB	05H
	DB	05H
	DB	05H
	DB	05H
	DB	05H
	DB	012H
	DB	015H
	DB	00H
	DB	00H
	DB	00H
	DB	00H
	DB	00H
	DB	00H
	DB	00H
	DB	00H
	DB	00H
	DB	00H
	DB	00H
	DB	00H
	DB	00H
	DB	00H
	DB	00H
	DB	0c1H
	DB	05H
	DB	05H
	DB	011H
	DB	04aH
	DB	00H
	DB	00H
	DB	00H
	DB	00H
	DB	00H
	DB	00H
	DB	00H
	DB	00H
	DB	00H
	DB	00H
	DB	00H
	DB	00H
	DB	00H
	DB	00H
	DB	00H
	DB	00H
	DB	00H
	DB	00H
	DB	00H
	DB	00H
	DB	00H
	DB	00H
	DB	00H
	DB	00H
	DB	00H
	DB	00H
	DB	00H
	DB	00H
	DB	00H
	DB	00H
	DB	00H
	DB	00H
	DB	00H
	DB	07eH
	DB	0f0H
	DB	0fH
	DB	010H
	DB	00H
	DB	00H
	DB	00H
	DB	00H
	DB	00H
	DB	00H
	DB	00H
	DB	00H
	DB	00H
	DB	00H
	DB	00H
	DB	0dH
	DB	0a6H
	DB	0fH
	DB	08H
	DB	00H
	DB	00H
	DB	00H
	DB	00H
	DB	00H
	DB	00H
	DB	00H
	DB	00H
	DB	00H
	DB	00H
	DB	00H
	DB	00H
	DB	00H
	DB	00H
	DB	00H
	DB	00H
	DB	00H
	DB	00H
	DB	00H
	DB	00H
	DB	00H
	DB	00H
	DB	00H
	DB	00H
	DB	095H
	DB	05H
	DB	0fH
	DB	095H
	DB	00H
	DB	00H
	DB	00H
	DB	00H
	DB	00H
	DB	00H
	DB	00H
	DB	00H
	DB	00H
	DB	00H
	DB	00H
	DB	00H
	DB	00H
	DB	00H
	DB	00H
	DB	00H
	DB	00H
	DB	00H
	DB	06H
	DB	02H
	DB	02H
	DB	02H
	DB	02H
	DB	02H
	DB	02H
	DB	02H
	DB	02H
	DB	0fH
	DB	0dH
	DB	00H
	DB	00H
	DB	00H
	DB	00H
	DB	00H
	DB	00H
	DB	00H
	DB	00H
	DB	00H
	DB	00H
	DB	00H
	DB	00H
	DB	00H
	DB	011H
	DB	02H
	DB	02H
	DB	07H
	DB	07eH
	DB	00H
	DB	00H
	DB	00H
	DB	00H
	DB	00H
	DB	00H
	DB	00H
	DB	00H
	DB	00H
	DB	00H
	DB	00H
	DB	00H
	DB	00H
	DB	00H
	DB	00H
	DB	00H
	DB	00H
	DB	00H
	DB	00H
	DB	00H
	DB	00H
	DB	00H
	DB	00H
	DB	00H
	DB	00H
	DB	00H
	DB	00H
	DB	00H
	DB	00H
	DB	00H
	DB	00H
	DB	00H
	DB	00H
	DB	03H
	DB	0aeH
	DB	02H
	DB	02H
	DB	01H
	DB	00H
	DB	00H
	DB	00H
	DB	00H
	DB	00H
	DB	00H
	DB	00H
	DB	00H
	DB	00H
	DB	00H
	DB	010H
	DB	02H
	DB	02H
	DB	05H
	DB	00H
	DB	00H
	DB	00H
	DB	00H
	DB	00H
	DB	00H
	DB	00H
	DB	00H
	DB	00H
	DB	00H
	DB	00H
	DB	00H
	DB	00H
	DB	00H
	DB	00H
	DB	00H
	DB	00H
	DB	00H
	DB	00H
	DB	00H
	DB	00H
	DB	00H
	DB	00H
	DB	00H
	DB	0a7H
	DB	02H
	DB	02H
	DB	06H
	DB	00H
	DB	00H
	DB	00H
	DB	00H
	DB	00H
	DB	00H
	DB	00H
	DB	00H
	DB	00H
	DB	00H
	DB	00H
	DB	00H
	DB	00H
	DB	00H
	DB	00H
	DB	00H
	DB	00H
	DB	00H
	DB	06H
	DB	02H
	DB	02H
	DB	02H
	DB	0aH
	DB	0fbH
	DB	0ffH
	DB	02H
	DB	02H
	DB	02H
	DB	0a7H
	DB	05bH
	DB	00H
	DB	00H
	DB	00H
	DB	00H
	DB	00H
	DB	00H
	DB	00H
	DB	00H
	DB	00H
	DB	00H
	DB	00H
	DB	00H
	DB	0ccH
	DB	02H
	DB	02H
	DB	07H
	DB	07eH
	DB	00H
	DB	00H
	DB	00H
	DB	00H
	DB	00H
	DB	00H
	DB	00H
	DB	00H
	DB	00H
	DB	00H
	DB	00H
	DB	00H
	DB	00H
	DB	00H
	DB	00H
	DB	00H
	DB	00H
	DB	00H
	DB	00H
	DB	00H
	DB	00H
	DB	00H
	DB	00H
	DB	00H
	DB	00H
	DB	00H
	DB	00H
	DB	00H
	DB	00H
	DB	00H
	DB	00H
	DB	00H
	DB	00H
	DB	03H
	DB	0aeH
	DB	02H
	DB	02H
	DB	06H
	DB	00H
	DB	00H
	DB	00H
	DB	00H
	DB	00H
	DB	00H
	DB	00H
	DB	00H
	DB	00H
	DB	0dH
	DB	0acH
	DB	02H
	DB	02H
	DB	05H
	DB	00H
	DB	00H
	DB	00H
	DB	00H
	DB	00H
	DB	00H
	DB	00H
	DB	00H
	DB	00H
	DB	00H
	DB	00H
	DB	00H
	DB	00H
	DB	00H
	DB	00H
	DB	00H
	DB	00H
	DB	00H
	DB	00H
	DB	00H
	DB	00H
	DB	00H
	DB	00H
	DB	00H
	DB	06H
	DB	02H
	DB	02H
	DB	06H
	DB	00H
	DB	00H
	DB	00H
	DB	00H
	DB	00H
	DB	00H
	DB	00H
	DB	00H
	DB	00H
	DB	00H
	DB	00H
	DB	00H
	DB	00H
	DB	00H
	DB	00H
	DB	00H
	DB	00H
	DB	00H
	DB	06H
	DB	02H
	DB	02H
	DB	0ffH
	DB	093H
	DB	00H
	DB	07eH
	DB	06H
	DB	02H
	DB	02H
	DB	02H
	DB	0ccH
	DB	00H
	DB	00H
	DB	00H
	DB	00H
	DB	00H
	DB	00H
	DB	00H
	DB	00H
	DB	00H
	DB	00H
	DB	00H
	DB	00H
	DB	04aH
	DB	0dH
	DB	0dH
	DB	0dH
	DB	00H
	DB	00H
	DB	00H
	DB	00H
	DB	00H
	DB	00H
	DB	00H
	DB	00H
	DB	00H
	DB	00H
	DB	00H
	DB	00H
	DB	00H
	DB	00H
	DB	00H
	DB	00H
	DB	00H
	DB	00H
	DB	00H
	DB	00H
	DB	00H
	DB	00H
	DB	00H
	DB	00H
	DB	00H
	DB	00H
	DB	00H
	DB	00H
	DB	00H
	DB	00H
	DB	00H
	DB	00H
	DB	00H
	DB	00H
	DB	03H
	DB	0aeH
	DB	02H
	DB	02H
	DB	02H
	DB	077H
	DB	00H
	DB	00H
	DB	00H
	DB	00H
	DB	00H
	DB	00H
	DB	00H
	DB	00H
	DB	010H
	DB	02H
	DB	02H
	DB	02H
	DB	05H
	DB	00H
	DB	00H
	DB	00H
	DB	00H
	DB	00H
	DB	00H
	DB	00H
	DB	00H
	DB	00H
	DB	00H
	DB	00H
	DB	00H
	DB	00H
	DB	00H
	DB	00H
	DB	00H
	DB	00H
	DB	00H
	DB	00H
	DB	00H
	DB	00H
	DB	00H
	DB	00H
	DB	00H
	DB	06H
	DB	02H
	DB	02H
	DB	06H
	DB	00H
	DB	00H
	DB	00H
	DB	00H
	DB	00H
	DB	00H
	DB	00H
	DB	00H
	DB	00H
	DB	00H
	DB	00H
	DB	00H
	DB	00H
	DB	00H
	DB	00H
	DB	00H
	DB	00H
	DB	00H
	DB	06H
	DB	02H
	DB	02H
	DB	0ffH
	DB	04H
	DB	00H
	DB	00H
	DB	0dH
	DB	0acH
	DB	02H
	DB	02H
	DB	0acH
	DB	0dH
	DB	00H
	DB	05bH
	DB	010H
	DB	05H
	DB	05H
	DB	054H
	DB	00H
	DB	012H
	DB	06H
	DB	014H
	DB	00H
	DB	01H
	DB	0a6H
	DB	011H
	DB	010H
	DB	04aH
	DB	0dH
	DB	011H
	DB	0f0H
	DB	05H
	DB	012H
	DB	00H
	DB	00H
	DB	00H
	DB	00H
	DB	00H
	DB	0dH
	DB	0a6H
	DB	05H
	DB	012H
	DB	00H
	DB	00H
	DB	00H
	DB	0dH
	DB	095H
	DB	05H
	DB	069H
	DB	0fH
	DB	0d2H
	DB	04H
	DB	00H
	DB	00H
	DB	00H
	DB	00H
	DB	00H
	DB	00H
	DB	00H
	DB	00H
	DB	00H
	DB	03H
	DB	0aeH
	DB	02H
	DB	02H
	DB	02H
	DB	069H
	DB	00H
	DB	00H
	DB	00H
	DB	00H
	DB	00H
	DB	00H
	DB	00H
	DB	07eH
	DB	07H
	DB	02H
	DB	02H
	DB	02H
	DB	05H
	DB	00H
	DB	00H
	DB	00H
	DB	00H
	DB	04aH
	DB	081H
	DB	05H
	DB	069H
	DB	069H
	DB	05H
	DB	08H
	DB	05bH
	DB	00H
	DB	00H
	DB	00H
	DB	00H
	DB	00H
	DB	00H
	DB	07eH
	DB	011H
	DB	069H
	DB	0fH
	DB	095H
	DB	05bH
	DB	06H
	DB	02H
	DB	02H
	DB	06H
	DB	00H
	DB	00H
	DB	00H
	DB	00H
	DB	00H
	DB	054H
	DB	0f0H
	DB	069H
	DB	069H
	DB	05H
	DB	054H
	DB	00H
	DB	00H
	DB	00H
	DB	00H
	DB	00H
	DB	00H
	DB	00H
	DB	06H
	DB	02H
	DB	02H
	DB	0ffH
	DB	04H
	DB	00H
	DB	00H
	DB	00H
	DB	05H
	DB	02H
	DB	02H
	DB	02H
	DB	077H
	DB	00H
	DB	04aH
	DB	0aH
	DB	02H
	DB	02H
	DB	05H
	DB	0a6H
	DB	02H
	DB	02H
	DB	081H
	DB	00H
	DB	0ccH
	DB	02H
	DB	02H
	DB	07H
	DB	07eH
	DB	00H
	DB	0fbH
	DB	02H
	DB	02H
	DB	0acH
	DB	0dH
	DB	00H
	DB	00H
	DB	00H
	DB	00H
	DB	012H
	DB	02H
	DB	02H
	DB	010H
	DB	00H
	DB	00H
	DB	054H
	DB	07H
	DB	02H
	DB	02H
	DB	02H
	DB	02H
	DB	02H
	DB	0aeH
	DB	012H
	DB	00H
	DB	00H
	DB	00H
	DB	00H
	DB	00H
	DB	00H
	DB	00H
	DB	00H
	DB	03H
	DB	0aeH
	DB	02H
	DB	02H
	DB	02H
	DB	02H
	DB	01H
	DB	00H
	DB	00H
	DB	00H
	DB	00H
	DB	00H
	DB	00H
	DB	011H
	DB	02H
	DB	02H
	DB	02H
	DB	02H
	DB	05H
	DB	00H
	DB	00H
	DB	00H
	DB	014H
	DB	0aH
	DB	02H
	DB	02H
	DB	02H
	DB	02H
	DB	02H
	DB	02H
	DB	0fbH
	DB	093H
	DB	00H
	DB	00H
	DB	00H
	DB	00H
	DB	015H
	DB	0acH
	DB	02H
	DB	02H
	DB	02H
	DB	02H
	DB	0a7H
	DB	07dH
	DB	02H
	DB	02H
	DB	06H
	DB	00H
	DB	00H
	DB	00H
	DB	0dH
	DB	06H
	DB	02H
	DB	02H
	DB	02H
	DB	02H
	DB	02H
	DB	02H
	DB	069H
	DB	04aH
	DB	00H
	DB	00H
	DB	00H
	DB	00H
	DB	00H
	DB	06H
	DB	02H
	DB	02H
	DB	0ffH
	DB	04H
	DB	00H
	DB	00H
	DB	00H
	DB	054H
	DB	02H
	DB	02H
	DB	02H
	DB	095H
	DB	00H
	DB	04aH
	DB	0aH
	DB	02H
	DB	02H
	DB	0aH
	DB	02H
	DB	02H
	DB	02H
	DB	081H
	DB	00H
	DB	0d2H
	DB	02H
	DB	02H
	DB	07H
	DB	07eH
	DB	00H
	DB	095H
	DB	02H
	DB	02H
	DB	02H
	DB	08H
	DB	00H
	DB	00H
	DB	00H
	DB	00H
	DB	0a7H
	DB	02H
	DB	07H
	DB	07eH
	DB	00H
	DB	014H
	DB	0aeH
	DB	02H
	DB	02H
	DB	05H
	DB	054H
	DB	0f0H
	DB	02H
	DB	02H
	DB	02H
	DB	054H
	DB	00H
	DB	00H
	DB	00H
	DB	00H
	DB	00H
	DB	00H
	DB	00H
	DB	03H
	DB	0aeH
	DB	02H
	DB	02H
	DB	02H
	DB	02H
	DB	0a7H
	DB	00H
	DB	00H
	DB	00H
	DB	00H
	DB	00H
	DB	07eH
	DB	07H
	DB	02H
	DB	02H
	DB	02H
	DB	02H
	DB	05H
	DB	00H
	DB	00H
	DB	03H
	DB	07H
	DB	02H
	DB	02H
	DB	061H
	DB	011H
	DB	011H
	DB	0acH
	DB	02H
	DB	02H
	DB	0acH
	DB	04H
	DB	00H
	DB	00H
	DB	04aH
	DB	07dH
	DB	02H
	DB	02H
	DB	02H
	DB	0cH
	DB	0cH
	DB	02H
	DB	02H
	DB	02H
	DB	02H
	DB	06H
	DB	00H
	DB	00H
	DB	05bH
	DB	06H
	DB	02H
	DB	02H
	DB	0cH
	DB	081H
	DB	012H
	DB	061H
	DB	02H
	DB	02H
	DB	0fH
	DB	00H
	DB	00H
	DB	00H
	DB	00H
	DB	00H
	DB	06H
	DB	02H
	DB	02H
	DB	0ffH
	DB	04H
	DB	00H
	DB	00H
	DB	00H
	DB	077H
	DB	02H
	DB	02H
	DB	02H
	DB	05H
	DB	00H
	DB	04aH
	DB	0aH
	DB	02H
	DB	02H
	DB	02H
	DB	02H
	DB	0ffH
	DB	06H
	DB	03H
	DB	00H
	DB	0d2H
	DB	02H
	DB	02H
	DB	07H
	DB	07eH
	DB	00H
	DB	035H
	DB	07H
	DB	02H
	DB	02H
	DB	069H
	DB	00H
	DB	00H
	DB	00H
	DB	077H
	DB	02H
	DB	02H
	DB	05H
	DB	00H
	DB	00H
	DB	04fH
	DB	02H
	DB	02H
	DB	0fH
	DB	00H
	DB	00H
	DB	00H
	DB	05H
	DB	02H
	DB	02H
	DB	0cH
	DB	00H
	DB	00H
	DB	00H
	DB	00H
	DB	00H
	DB	00H
	DB	00H
	DB	03H
	DB	0aeH
	DB	02H
	DB	02H
	DB	02H
	DB	02H
	DB	02H
	DB	08H
	DB	00H
	DB	00H
	DB	00H
	DB	00H
	DB	011H
	DB	02H
	DB	02H
	DB	02H
	DB	02H
	DB	02H
	DB	05H
	DB	00H
	DB	00H
	DB	0fH
	DB	02H
	DB	02H
	DB	0acH
	DB	04H
	DB	00H
	DB	00H
	DB	03H
	DB	07H
	DB	02H
	DB	02H
	DB	05H
	DB	00H
	DB	00H
	DB	08H
	DB	02H
	DB	02H
	DB	02H
	DB	010H
	DB	00H
	DB	00H
	DB	010H
	DB	02H
	DB	02H
	DB	02H
	DB	06H
	DB	00H
	DB	00H
	DB	012H
	DB	02H
	DB	02H
	DB	07H
	DB	07eH
	DB	00H
	DB	00H
	DB	01H
	DB	02H
	DB	02H
	DB	02H
	DB	01H
	DB	00H
	DB	00H
	DB	00H
	DB	00H
	DB	06H
	DB	02H
	DB	02H
	DB	0ffH
	DB	04H
	DB	00H
	DB	00H
	DB	00H
	DB	027H
	DB	02H
	DB	02H
	DB	02H
	DB	05H
	DB	00H
	DB	04aH
	DB	0aH
	DB	02H
	DB	02H
	DB	02H
	DB	07dH
	DB	07eH
	DB	00H
	DB	00H
	DB	00H
	DB	0d2H
	DB	02H
	DB	02H
	DB	07H
	DB	07eH
	DB	00H
	DB	00H
	DB	0fH
	DB	02H
	DB	02H
	DB	0aeH
	DB	04H
	DB	00H
	DB	00H
	DB	05H
	DB	02H
	DB	02H
	DB	03H
	DB	00H
	DB	015H
	DB	02H
	DB	02H
	DB	02H
	DB	054H
	DB	00H
	DB	00H
	DB	00H
	DB	015H
	DB	02H
	DB	02H
	DB	0ffH
	DB	015H
	DB	00H
	DB	00H
	DB	00H
	DB	00H
	DB	00H
	DB	00H
	DB	03H
	DB	0aeH
	DB	02H
	DB	06H
	DB	07H
	DB	02H
	DB	02H
	DB	0cH
	DB	00H
	DB	00H
	DB	00H
	DB	04H
	DB	0ffH
	DB	02H
	DB	06H
	DB	0aH
	DB	02H
	DB	02H
	DB	05H
	DB	00H
	DB	07eH
	DB	0aeH
	DB	02H
	DB	02H
	DB	011H
	DB	00H
	DB	00H
	DB	00H
	DB	00H
	DB	05H
	DB	02H
	DB	02H
	DB	0ffH
	DB	0dH
	DB	00H
	DB	05H
	DB	02H
	DB	02H
	DB	07H
	DB	04aH
	DB	00H
	DB	00H
	DB	04aH
	DB	0acH
	DB	02H
	DB	02H
	DB	06H
	DB	00H
	DB	00H
	DB	04fH
	DB	02H
	DB	02H
	DB	0fH
	DB	00H
	DB	00H
	DB	00H
	DB	05bH
	DB	0cH
	DB	02H
	DB	02H
	DB	0d2H
	DB	00H
	DB	00H
	DB	00H
	DB	00H
	DB	06H
	DB	02H
	DB	02H
	DB	0ffH
	DB	04H
	DB	00H
	DB	00H
	DB	00H
	DB	027H
	DB	02H
	DB	02H
	DB	02H
	DB	05H
	DB	00H
	DB	04aH
	DB	0aH
	DB	02H
	DB	02H
	DB	0ffH
	DB	015H
	DB	00H
	DB	00H
	DB	00H
	DB	00H
	DB	0d2H
	DB	02H
	DB	02H
	DB	07H
	DB	07eH
	DB	00H
	DB	00H
	DB	01H
	DB	02H
	DB	02H
	DB	02H
	DB	0d2H
	DB	00H
	DB	0dH
	DB	07H
	DB	02H
	DB	069H
	DB	00H
	DB	00H
	DB	012H
	DB	02H
	DB	02H
	DB	02H
	DB	095H
	DB	014H
	DB	01H
	DB	014H
	DB	081H
	DB	02H
	DB	02H
	DB	02H
	DB	054H
	DB	00H
	DB	00H
	DB	00H
	DB	00H
	DB	00H
	DB	00H
	DB	03H
	DB	0aeH
	DB	02H
	DB	095H
	DB	05H
	DB	02H
	DB	02H
	DB	02H
	DB	054H
	DB	00H
	DB	00H
	DB	05H
	DB	02H
	DB	0ffH
	DB	014H
	DB	0fbH
	DB	02H
	DB	02H
	DB	05H
	DB	00H
	DB	054H
	DB	02H
	DB	02H
	DB	02H
	DB	012H
	DB	00H
	DB	00H
	DB	00H
	DB	00H
	DB	010H
	DB	02H
	DB	02H
	DB	02H
	DB	014H
	DB	00H
	DB	04fH
	DB	02H
	DB	02H
	DB	07dH
	DB	00H
	DB	00H
	DB	00H
	DB	00H
	DB	0a7H
	DB	02H
	DB	02H
	DB	06H
	DB	00H
	DB	04aH
	DB	0acH
	DB	02H
	DB	02H
	DB	0f3H
	DB	03H
	DB	01H
	DB	01H
	DB	01H
	DB	0a7H
	DB	02H
	DB	02H
	DB	0fH
	DB	00H
	DB	00H
	DB	00H
	DB	00H
	DB	06H
	DB	02H
	DB	02H
	DB	0ffH
	DB	04H
	DB	00H
	DB	00H
	DB	00H
	DB	014H
	DB	02H
	DB	02H
	DB	02H
	DB	0f0H
	DB	00H
	DB	04aH
	DB	0aH
	DB	02H
	DB	02H
	DB	069H
	DB	00H
	DB	00H
	DB	00H
	DB	00H
	DB	00H
	DB	0d2H
	DB	02H
	DB	02H
	DB	07H
	DB	07eH
	DB	00H
	DB	00H
	DB	00H
	DB	0cH
	DB	02H
	DB	02H
	DB	0cH
	DB	00H
	DB	095H
	DB	02H
	DB	02H
	DB	054H
	DB	00H
	DB	00H
	DB	010H
	DB	02H
	DB	02H
	DB	02H
	DB	02H
	DB	02H
	DB	02H
	DB	02H
	DB	02H
	DB	02H
	DB	02H
	DB	02H
	DB	08H
	DB	00H
	DB	00H
	DB	00H
	DB	00H
	DB	00H
	DB	00H
	DB	03H
	DB	0aeH
	DB	02H
	DB	095H
	DB	07eH
	DB	02H
	DB	02H
	DB	02H
	DB	0a7H
	DB	00H
	DB	04H
	DB	0aeH
	DB	02H
	DB	05H
	DB	00H
	DB	0aH
	DB	02H
	DB	02H
	DB	05H
	DB	00H
	DB	012H
	DB	02H
	DB	02H
	DB	02H
	DB	08H
	DB	00H
	DB	00H
	DB	00H
	DB	00H
	DB	012H
	DB	02H
	DB	02H
	DB	02H
	DB	054H
	DB	00H
	DB	07dH
	DB	02H
	DB	02H
	DB	0cH
	DB	00H
	DB	00H
	DB	00H
	DB	00H
	DB	06H
	DB	02H
	DB	02H
	DB	06H
	DB	00H
	DB	04H
	DB	0ffH
	DB	02H
	DB	02H
	DB	02H
	DB	02H
	DB	02H
	DB	02H
	DB	02H
	DB	02H
	DB	02H
	DB	02H
	DB	069H
	DB	00H
	DB	00H
	DB	00H
	DB	00H
	DB	06H
	DB	02H
	DB	02H
	DB	0ffH
	DB	04H
	DB	00H
	DB	00H
	DB	00H
	DB	054H
	DB	02H
	DB	02H
	DB	02H
	DB	012H
	DB	00H
	DB	04aH
	DB	0aH
	DB	02H
	DB	02H
	DB	05H
	DB	00H
	DB	00H
	DB	00H
	DB	00H
	DB	00H
	DB	0d2H
	DB	02H
	DB	02H
	DB	07H
	DB	07eH
	DB	00H
	DB	00H
	DB	00H
	DB	095H
	DB	02H
	DB	02H
	DB	02H
	DB	0c1H
	DB	04fH
	DB	02H
	DB	0aH
	DB	05bH
	DB	00H
	DB	00H
	DB	010H
	DB	02H
	DB	02H
	DB	02H
	DB	0a6H
	DB	011H
	DB	011H
	DB	011H
	DB	011H
	DB	011H
	DB	011H
	DB	011H
	DB	04H
	DB	00H
	DB	00H
	DB	00H
	DB	00H
	DB	00H
	DB	00H
	DB	03H
	DB	0aeH
	DB	02H
	DB	010H
	DB	00H
	DB	0fH
	DB	02H
	DB	02H
	DB	02H
	DB	054H
	DB	0f0H
	DB	02H
	DB	0ffH
	DB	04H
	DB	00H
	DB	0aH
	DB	02H
	DB	02H
	DB	05H
	DB	00H
	DB	012H
	DB	02H
	DB	02H
	DB	02H
	DB	08H
	DB	00H
	DB	00H
	DB	00H
	DB	00H
	DB	095H
	DB	02H
	DB	02H
	DB	02H
	DB	054H
	DB	00H
	DB	0cH
	DB	02H
	DB	02H
	DB	0cH
	DB	00H
	DB	00H
	DB	00H
	DB	00H
	DB	06H
	DB	02H
	DB	02H
	DB	06H
	DB	00H
	DB	04H
	DB	0ffH
	DB	02H
	DB	02H
	DB	04fH
	DB	0ccH
	DB	011H
	DB	011H
	DB	011H
	DB	011H
	DB	011H
	DB	0f0H
	DB	08H
	DB	00H
	DB	00H
	DB	00H
	DB	00H
	DB	06H
	DB	02H
	DB	02H
	DB	0ffH
	DB	04H
	DB	00H
	DB	00H
	DB	00H
	DB	011H
	DB	02H
	DB	02H
	DB	02H
	DB	077H
	DB	00H
	DB	04aH
	DB	0aH
	DB	02H
	DB	02H
	DB	05H
	DB	00H
	DB	00H
	DB	00H
	DB	00H
	DB	00H
	DB	0d2H
	DB	02H
	DB	02H
	DB	07H
	DB	07eH
	DB	00H
	DB	00H
	DB	00H
	DB	07eH
	DB	07H
	DB	02H
	DB	02H
	DB	0fbH
	DB	02H
	DB	02H
	DB	095H
	DB	00H
	DB	00H
	DB	00H
	DB	08H
	DB	02H
	DB	02H
	DB	02H
	DB	07eH
	DB	00H
	DB	00H
	DB	00H
	DB	00H
	DB	00H
	DB	00H
	DB	00H
	DB	00H
	DB	00H
	DB	00H
	DB	00H
	DB	00H
	DB	00H
	DB	00H
	DB	03H
	DB	0aeH
	DB	02H
	DB	0d2H
	DB	00H
	DB	03H
	DB	02H
	DB	02H
	DB	02H
	DB	0aH
	DB	07H
	DB	02H
	DB	0f0H
	DB	00H
	DB	05bH
	DB	0aH
	DB	02H
	DB	02H
	DB	05H
	DB	00H
	DB	014H
	DB	02H
	DB	02H
	DB	02H
	DB	010H
	DB	00H
	DB	00H
	DB	00H
	DB	00H
	DB	0f0H
	DB	02H
	DB	02H
	DB	0aeH
	DB	04H
	DB	00H
	DB	06H
	DB	02H
	DB	02H
	DB	061H
	DB	00H
	DB	00H
	DB	00H
	DB	00H
	DB	0fbH
	DB	02H
	DB	02H
	DB	06H
	DB	00H
	DB	00H
	DB	0aH
	DB	02H
	DB	02H
	DB	011H
	DB	00H
	DB	00H
	DB	00H
	DB	00H
	DB	00H
	DB	00H
	DB	00H
	DB	00H
	DB	00H
	DB	00H
	DB	00H
	DB	00H
	DB	06H
	DB	02H
	DB	02H
	DB	0ffH
	DB	07eH
	DB	00H
	DB	00H
	DB	0dH
	DB	0acH
	DB	02H
	DB	02H
	DB	061H
	DB	0dH
	DB	00H
	DB	04aH
	DB	0aH
	DB	02H
	DB	02H
	DB	05H
	DB	00H
	DB	00H
	DB	00H
	DB	00H
	DB	00H
	DB	0d2H
	DB	02H
	DB	02H
	DB	07H
	DB	07eH
	DB	00H
	DB	00H
	DB	00H
	DB	00H
	DB	0fH
	DB	02H
	DB	02H
	DB	02H
	DB	02H
	DB	07H
	DB	07eH
	DB	00H
	DB	00H
	DB	00H
	DB	07eH
	DB	0ffH
	DB	02H
	DB	02H
	DB	0ccH
	DB	00H
	DB	00H
	DB	00H
	DB	00H
	DB	00H
	DB	00H
	DB	00H
	DB	00H
	DB	00H
	DB	00H
	DB	00H
	DB	00H
	DB	00H
	DB	00H
	DB	03H
	DB	0aeH
	DB	02H
	DB	0d2H
	DB	00H
	DB	00H
	DB	069H
	DB	02H
	DB	02H
	DB	02H
	DB	02H
	DB	0ffH
	DB	04H
	DB	00H
	DB	04aH
	DB	0aH
	DB	02H
	DB	02H
	DB	05H
	DB	00H
	DB	04aH
	DB	0aH
	DB	02H
	DB	02H
	DB	06H
	DB	00H
	DB	00H
	DB	00H
	DB	04aH
	DB	0fbH
	DB	02H
	DB	02H
	DB	0aH
	DB	00H
	DB	00H
	DB	05H
	DB	02H
	DB	02H
	DB	02H
	DB	014H
	DB	00H
	DB	00H
	DB	03H
	DB	0aeH
	DB	02H
	DB	02H
	DB	06H
	DB	00H
	DB	00H
	DB	0fH
	DB	02H
	DB	02H
	DB	0fbH
	DB	04aH
	DB	00H
	DB	00H
	DB	00H
	DB	00H
	DB	00H
	DB	00H
	DB	00H
	DB	00H
	DB	00H
	DB	00H
	DB	00H
	DB	06H
	DB	02H
	DB	02H
	DB	0ffH
	DB	081H
	DB	014H
	DB	08H
	DB	0cH
	DB	02H
	DB	02H
	DB	02H
	DB	0d2H
	DB	00H
	DB	00H
	DB	04aH
	DB	0aH
	DB	02H
	DB	02H
	DB	05H
	DB	00H
	DB	00H
	DB	00H
	DB	00H
	DB	00H
	DB	0d2H
	DB	02H
	DB	02H
	DB	07H
	DB	07eH
	DB	00H
	DB	00H
	DB	00H
	DB	00H
	DB	077H
	DB	02H
	DB	02H
	DB	02H
	DB	02H
	DB	05H
	DB	00H
	DB	00H
	DB	00H
	DB	00H
	DB	00H
	DB	05H
	DB	02H
	DB	02H
	DB	0aeH
	DB	0d2H
	DB	015H
	DB	07eH
	DB	03H
	DB	08H
	DB	05H
	DB	04H
	DB	00H
	DB	00H
	DB	00H
	DB	00H
	DB	00H
	DB	00H
	DB	00H
	DB	03H
	DB	0aeH
	DB	02H
	DB	0d2H
	DB	00H
	DB	00H
	DB	01H
	DB	02H
	DB	02H
	DB	02H
	DB	02H
	DB	011H
	DB	00H
	DB	00H
	DB	04aH
	DB	0aH
	DB	02H
	DB	02H
	DB	05H
	DB	00H
	DB	00H
	DB	010H
	DB	02H
	DB	02H
	DB	02H
	DB	05H
	DB	04H
	DB	015H
	DB	0fH
	DB	02H
	DB	02H
	DB	02H
	DB	095H
	DB	00H
	DB	00H
	DB	01H
	DB	02H
	DB	02H
	DB	02H
	DB	0aH
	DB	012H
	DB	012H
	DB	0fcH
	DB	02H
	DB	02H
	DB	02H
	DB	06H
	DB	00H
	DB	00H
	DB	077H
	DB	02H
	DB	02H
	DB	02H
	DB	0f3H
	DB	077H
	DB	07eH
	DB	04H
	DB	0c1H
	DB	0d2H
	DB	012H
	DB	00H
	DB	00H
	DB	00H
	DB	00H
	DB	00H
	DB	06H
	DB	02H
	DB	02H
	DB	02H
	DB	02H
	DB	02H
	DB	02H
	DB	02H
	DB	02H
	DB	02H
	DB	04fH
	DB	05bH
	DB	00H
	DB	00H
	DB	04aH
	DB	0aH
	DB	02H
	DB	02H
	DB	05H
	DB	00H
	DB	00H
	DB	00H
	DB	00H
	DB	00H
	DB	0ccH
	DB	02H
	DB	02H
	DB	07H
	DB	07eH
	DB	00H
	DB	00H
	DB	00H
	DB	00H
	DB	05bH
	DB	0cH
	DB	02H
	DB	02H
	DB	02H
	DB	03H
	DB	00H
	DB	00H
	DB	00H
	DB	00H
	DB	00H
	DB	0dH
	DB	0cH
	DB	02H
	DB	02H
	DB	02H
	DB	0aeH
	DB	0ffH
	DB	02H
	DB	02H
	DB	02H
	DB	095H
	DB	00H
	DB	00H
	DB	00H
	DB	00H
	DB	00H
	DB	00H
	DB	00H
	DB	03H
	DB	0aeH
	DB	02H
	DB	0d2H
	DB	00H
	DB	00H
	DB	00H
	DB	06H
	DB	02H
	DB	02H
	DB	0acH
	DB	035H
	DB	00H
	DB	00H
	DB	04aH
	DB	0aH
	DB	02H
	DB	02H
	DB	05H
	DB	00H
	DB	00H
	DB	00H
	DB	0fH
	DB	02H
	DB	02H
	DB	02H
	DB	0aeH
	DB	0aeH
	DB	02H
	DB	02H
	DB	02H
	DB	0fH
	DB	00H
	DB	00H
	DB	00H
	DB	00H
	DB	069H
	DB	02H
	DB	02H
	DB	02H
	DB	02H
	DB	02H
	DB	0ffH
	DB	07H
	DB	02H
	DB	02H
	DB	06H
	DB	00H
	DB	00H
	DB	00H
	DB	0d2H
	DB	02H
	DB	02H
	DB	02H
	DB	02H
	DB	0ffH
	DB	0ffH
	DB	02H
	DB	02H
	DB	0fcH
	DB	00H
	DB	00H
	DB	00H
	DB	00H
	DB	00H
	DB	06H
	DB	02H
	DB	02H
	DB	02H
	DB	02H
	DB	02H
	DB	02H
	DB	02H
	DB	0ffH
	DB	05H
	DB	04aH
	DB	00H
	DB	00H
	DB	00H
	DB	04aH
	DB	0aH
	DB	02H
	DB	02H
	DB	05H
	DB	00H
	DB	00H
	DB	00H
	DB	00H
	DB	00H
	DB	0d2H
	DB	02H
	DB	02H
	DB	07H
	DB	07eH
	DB	00H
	DB	00H
	DB	00H
	DB	00H
	DB	00H
	DB	095H
	DB	02H
	DB	02H
	DB	06H
	DB	00H
	DB	00H
	DB	00H
	DB	00H
	DB	00H
	DB	00H
	DB	00H
	DB	04aH
	DB	011H
	DB	061H
	DB	02H
	DB	02H
	DB	02H
	DB	02H
	DB	0acH
	DB	05H
	DB	04H
	DB	00H
	DB	00H
	DB	00H
	DB	00H
	DB	00H
	DB	00H
	DB	00H
	DB	03H
	DB	0ffH
	DB	02H
	DB	010H
	DB	00H
	DB	00H
	DB	00H
	DB	077H
	DB	02H
	DB	02H
	DB	0ccH
	DB	00H
	DB	00H
	DB	00H
	DB	04aH
	DB	0aH
	DB	02H
	DB	02H
	DB	0f0H
	DB	00H
	DB	00H
	DB	00H
	DB	00H
	DB	095H
	DB	0aH
	DB	0aeH
	DB	02H
	DB	02H
	DB	0aeH
	DB	0aH
	DB	095H
	DB	00H
	DB	00H
	DB	00H
	DB	00H
	DB	00H
	DB	04aH
	DB	0fH
	DB	0ffH
	DB	02H
	DB	02H
	DB	0fbH
	DB	01H
	DB	0f0H
	DB	02H
	DB	02H
	DB	06H
	DB	00H
	DB	00H
	DB	00H
	DB	00H
	DB	054H
	DB	0a7H
	DB	0aeH
	DB	02H
	DB	02H
	DB	02H
	DB	0ffH
	DB	06H
	DB	054H
	DB	00H
	DB	00H
	DB	00H
	DB	00H
	DB	00H
	DB	03H
	DB	054H
	DB	054H
	DB	054H
	DB	054H
	DB	054H
	DB	054H
	DB	0c1H
	DB	07eH
	DB	00H
	DB	00H
	DB	00H
	DB	00H
	DB	00H
	DB	00H
	DB	077H
	DB	054H
	DB	054H
	DB	015H
	DB	00H
	DB	00H
	DB	00H
	DB	00H
	DB	00H
	DB	04H
	DB	054H
	DB	054H
	DB	01H
	DB	05bH
	DB	00H
	DB	00H
	DB	00H
	DB	00H
	DB	00H
	DB	04aH
	DB	0c1H
	DB	054H
	DB	07eH
	DB	00H
	DB	00H
	DB	00H
	DB	00H
	DB	00H
	DB	00H
	DB	00H
	DB	00H
	DB	00H
	DB	05bH
	DB	027H
	DB	054H
	DB	054H
	DB	015H
	DB	00H
	DB	00H
	DB	00H
	DB	00H
	DB	00H
	DB	00H
	DB	00H
	DB	00H
	DB	00H
	DB	00H
	DB	04aH
	DB	0c2H
	DB	054H
	DB	04H
	DB	00H
	DB	00H
	DB	00H
	DB	00H
	DB	01H
	DB	054H
	DB	04aH
	DB	00H
	DB	00H
	DB	00H
	DB	00H
	DB	077H
	DB	054H
	DB	054H
	DB	015H
	DB	00H
	DB	00H
	DB	00H
	DB	00H
	DB	00H
	DB	00H
	DB	015H
	DB	054H
	DB	054H
	DB	015H
	DB	00H
	DB	00H
	DB	00H
	DB	00H
	DB	00H
	DB	00H
	DB	00H
	DB	00H
	DB	00H
	DB	07eH
	DB	054H
	DB	077H
	DB	05bH
	DB	00H
	DB	04H
	DB	054H
	DB	054H
	DB	03H
	DB	00H
	DB	00H
	DB	00H
	DB	00H
	DB	00H
	DB	00H
	DB	04H
	DB	054H
	DB	054H
	DB	014H
	DB	0dH
	DB	00H
	DB	00H
	DB	00H
	DB	00H
	DB	00H
	DB	00H
	DB	00H
	DB	00H
	DB	00H
	DB	00H
	DB	00H
	DB	00H
	DB	00H
	DB	00H
	DB	00H
	DB	00H
	DB	00H
	DB	00H
	DB	00H
	DB	00H
	DB	00H
	DB	00H
	DB	00H
	DB	00H
	DB	00H
	DB	00H
	DB	00H
	DB	00H
	DB	00H
	DB	00H
	DB	00H
	DB	00H
	DB	00H
	DB	00H
	DB	00H
	DB	00H
	DB	00H
	DB	00H
	DB	00H
	DB	00H
	DB	00H
	DB	00H
	DB	00H
	DB	00H
	DB	00H
	DB	00H
	DB	00H
	DB	00H
	DB	00H
	DB	00H
	DB	00H
	DB	00H
	DB	00H
	DB	00H
	DB	00H
	DB	00H
	DB	00H
	DB	00H
	DB	00H
	DB	00H
	DB	00H
	DB	00H
	DB	00H
	DB	00H
	DB	00H
	DB	00H
	DB	00H
	DB	00H
	DB	00H
	DB	00H
	DB	00H
	DB	00H
	DB	00H
	DB	00H
	DB	00H
	DB	00H
	DB	00H
	DB	00H
	DB	00H
	DB	00H
	DB	00H
	DB	00H
	DB	00H
	DB	00H
	DB	00H
	DB	00H
	DB	00H
	DB	00H
	DB	00H
	DB	00H
	DB	00H
	DB	00H
	DB	00H
	DB	00H
	DB	00H
	DB	00H
	DB	00H
	DB	00H
	DB	00H
	DB	00H
	DB	00H
	DB	00H
	DB	00H
	DB	00H
	DB	00H
	DB	00H
	DB	00H
	DB	00H
	DB	00H
	DB	00H
	DB	00H
	DB	00H
	DB	00H
	DB	00H
	DB	00H
	DB	00H
	DB	00H
	DB	00H
	DB	00H
	DB	00H
	DB	00H
	DB	00H
	DB	00H
	DB	00H
	DB	00H
	DB	00H
	DB	00H
	DB	00H
	DB	00H
	DB	00H
	DB	00H
	DB	00H
	DB	00H
	DB	00H
	DB	00H
	DB	00H
	DB	00H
	DB	00H
	DB	00H
	DB	00H
	DB	00H
	DB	00H
	DB	00H
	DB	00H
	DB	00H
	DB	00H
	DB	00H
	DB	00H
	DB	00H
	DB	00H
	DB	00H
	DB	00H
	DB	00H
	DB	00H
	DB	00H
	DB	00H
	DB	00H
	DB	00H
	DB	00H
	DB	00H
	DB	00H
	DB	00H
	DB	00H
	DB	00H
	DB	00H
	DB	00H
	DB	00H
	DB	00H
	DB	00H
	DB	00H
	DB	00H
	DB	00H
	DB	00H
	DB	00H
	DB	00H
	DB	00H
	DB	00H
	DB	00H
	DB	00H
	DB	00H
	DB	00H
	DB	00H
	DB	00H
	DB	00H
	DB	00H
	DB	00H
	DB	00H
	DB	00H
	DB	00H
	DB	00H
	DB	00H
	DB	00H
	DB	00H
	DB	00H
	DB	00H
	DB	00H
	DB	00H
	DB	00H
	DB	00H
	DB	00H
	DB	00H
	DB	00H
	DB	00H
	DB	00H
	DB	00H
	DB	00H
	DB	00H
	DB	00H
	DB	00H
	DB	00H
	DB	00H
	DB	00H
	DB	00H
	DB	00H
	DB	00H
	DB	00H
	DB	00H
	DB	00H
	DB	00H
	DB	00H
	DB	00H
	DB	00H
	DB	00H
	DB	00H
	DB	00H
	DB	00H
	DB	00H
	DB	00H
	DB	00H
	DB	00H
	DB	00H
	DB	00H
	DB	00H
	DB	00H
	DB	00H
	DB	00H
	DB	00H
	DB	00H
	DB	00H
	DB	00H
	DB	00H
	DB	00H
	DB	00H
	DB	00H
	DB	00H
	DB	00H
	DB	00H
	DB	00H
	DB	00H
	DB	00H
	DB	00H
	DB	00H
	DB	00H
	DB	00H
	DB	00H
	DB	00H
	DB	00H
	DB	00H
	DB	00H
	DB	00H
	DB	00H
	DB	00H
	DB	00H
	DB	00H
	DB	00H
	DB	00H
	DB	00H
	DB	00H
	DB	00H
	DB	00H
	DB	00H
	DB	00H
	DB	00H
	DB	00H
	DB	00H
	DB	00H
	DB	00H
	DB	00H
	DB	00H
	DB	00H
	DB	00H
	DB	00H
	DB	00H
	DB	00H
	DB	00H
	DB	00H
	DB	00H
	DB	00H
	DB	00H
	DB	00H
	DB	00H
	DB	00H
	DB	00H
	DB	00H
	DB	00H
	DB	00H
	DB	00H
	DB	00H
	DB	00H
	DB	00H
	DB	00H
	DB	00H
	DB	00H
	DB	00H
	DB	00H
	DB	00H
	DB	00H
	DB	00H
	DB	00H
	DB	00H
	DB	00H
	DB	00H
	DB	00H
	DB	00H
	DB	00H
	DB	00H
	DB	00H
	DB	00H
	DB	00H
	DB	00H
	DB	00H
	DB	00H
	DB	00H
	DB	00H
	DB	00H
	DB	00H
	DB	00H
	DB	00H
	DB	00H
	DB	00H
	DB	00H
	DB	00H
	DB	00H
	DB	00H
	DB	00H
	DB	00H
	DB	00H
	DB	00H
	DB	00H
	DB	00H
	DB	00H
	DB	00H
	DB	00H
	DB	00H
	DB	00H
	DB	00H
	DB	00H
	DB	00H
	DB	00H
	DB	00H
	DB	00H
	DB	00H
	DB	00H
	DB	00H
	DB	00H
	DB	00H
	DB	00H
	DB	00H
	DB	00H
	DB	00H
	DB	00H
	DB	00H
	DB	00H
	DB	00H
	DB	00H
	DB	00H
	DB	00H
	DB	00H
	DB	00H
	DB	00H
	DB	00H
	DB	00H
	DB	00H
	DB	00H
	DB	00H
	DB	00H
	DB	00H
	DB	00H
	DB	00H
	DB	00H
	DB	00H
	DB	00H
	DB	00H
	DB	00H
	DB	00H
	DB	00H
	DB	00H
	DB	00H
	DB	00H
	DB	00H
	DB	00H
	DB	00H
	DB	00H
	DB	00H
	DB	00H
	DB	00H
	DB	00H
	DB	00H
	DB	00H
	DB	00H
	DB	00H
	DB	00H
	DB	00H
	DB	00H
	DB	00H
	DB	00H
	DB	00H
	DB	00H
	DB	00H
	DB	00H
	DB	00H
	DB	00H
	DB	00H
	DB	00H
	DB	00H
	DB	00H
	DB	00H
	DB	00H
	DB	00H
	DB	00H
	DB	00H
	DB	00H
	DB	00H
	DB	00H
	DB	00H
	DB	00H
	DB	00H
	DB	00H
	DB	00H
	DB	00H
	DB	00H
	DB	00H
	DB	00H
	DB	00H
	DB	00H
	DB	00H
	DB	00H
	DB	00H
	DB	00H
	DB	00H
	DB	00H
	DB	00H
	DB	00H
	DB	00H
	DB	00H
	DB	00H
	DB	00H
	DB	00H
	DB	00H
	DB	00H
	DB	00H
	DB	00H
	DB	00H
	DB	00H
	DB	00H
	DB	00H
	DB	00H
	DB	00H
	DB	00H
	DB	00H
	DB	00H
	DB	00H
	DB	00H
	DB	00H
	DB	00H
	DB	00H
	DB	00H
	DB	00H
	DB	00H
	DB	00H
	DB	00H
	DB	00H
	DB	00H
	DB	00H
	DB	00H
	DB	00H
	DB	00H
	DB	00H
	DB	00H
	DB	00H
	DB	00H
	DB	00H
	DB	00H
	DB	00H
	DB	00H
	DB	00H
	DB	00H
	DB	00H
	DB	00H
	DB	00H
	DB	00H
	DB	00H
	DB	00H
	DB	00H
	DB	00H
	DB	00H
	DB	00H
	DB	00H
	DB	00H
	DB	00H
	DB	00H
	DB	00H
	DB	00H
	DB	00H
	DB	00H
	DB	00H
	DB	00H
	DB	00H
	DB	00H
	DB	00H
	DB	00H
	DB	00H
	DB	00H
	DB	00H
	DB	00H
	DB	00H
	DB	00H
	DB	00H
	DB	00H
	DB	00H
	DB	00H
	DB	00H
	DB	00H
	DB	00H
	DB	00H
	DB	00H
	DB	00H
	DB	00H
	DB	00H
	DB	00H
	DB	00H
	DB	00H
	DB	00H
	DB	00H
	DB	00H
	DB	00H
	DB	00H
	DB	00H
	DB	00H
	DB	00H
	DB	00H
	DB	00H
	DB	00H
	DB	00H
	DB	00H
	DB	00H
	DB	00H
	DB	00H
	DB	00H
	DB	00H
	DB	00H
	DB	00H
	DB	00H
	DB	00H
	DB	00H
	DB	00H
	DB	00H
	DB	00H
	DB	00H
	DB	00H
	DB	00H
	DB	00H
	DB	00H
	DB	00H
	DB	00H
	DB	00H
	DB	00H
	DB	00H
	DB	00H
	DB	00H
	DB	00H
	DB	00H
	DB	00H
	DB	00H
	DB	00H
	DB	00H
	DB	00H
	DB	00H
	DB	00H
	DB	00H
	DB	00H
	DB	00H
	DB	00H
	DB	00H
	DB	00H
	DB	00H
	DB	00H
	DB	00H
	DB	00H
	DB	00H
	DB	00H
	DB	00H
	DB	00H
	DB	00H
	DB	00H
	DB	00H
	DB	00H
	DB	00H
	DB	00H
	DB	00H
	DB	00H
	DB	00H
	DB	00H
	DB	00H
	DB	00H
	DB	00H
	DB	00H
	DB	00H
	DB	00H
	DB	00H
	DB	00H
	DB	00H
	DB	00H
	DB	00H
	DB	00H
	DB	00H
	DB	00H
	DB	00H
	DB	00H
	DB	00H
	DB	00H
	DB	00H
	DB	00H
	DB	00H
	DB	00H
	DB	00H
	DB	00H
	DB	00H
	DB	00H
	DB	00H
	DB	00H
	DB	00H
	DB	00H
	DB	00H
	DB	00H
	DB	00H
	DB	00H
	DB	00H
	DB	00H
	DB	00H
	DB	00H
	DB	00H
	DB	00H
	DB	00H
	DB	00H
	DB	00H
	DB	00H
	DB	00H
	DB	00H
	DB	00H
	DB	00H
	DB	00H
	DB	00H
	DB	00H
	DB	00H
	DB	00H
	DB	00H
	DB	00H
	DB	00H
	DB	00H
	DB	00H
	DB	00H
	DB	00H
	DB	00H
	DB	00H
	DB	00H
	DB	00H
	DB	00H
	DB	00H
	DB	00H
	DB	00H
	DB	00H
	DB	00H
	DB	00H
	DB	00H
	DB	00H
	DB	00H
	DB	00H
	DB	00H
	DB	00H
	DB	00H
	DB	00H
	DB	00H
	DB	00H
	DB	00H
	DB	00H
	DB	00H
	DB	00H
	DB	00H
	DB	00H
	DB	00H
	DB	00H
	DB	00H
	DB	00H
	DB	00H
	DB	00H
	DB	00H
	DB	00H
	DB	00H
	DB	00H
	DB	00H
	DB	00H
	DB	00H
	DB	00H
	DB	00H
	DB	00H
	DB	00H
	DB	00H
	DB	00H
	DB	00H
	DB	00H
	DB	00H
	DB	00H
	DB	00H
	DB	00H
	DB	00H
	DB	00H
	DB	00H
	DB	00H
	DB	00H
	DB	00H
	DB	00H
	DB	00H
	DB	00H
	DB	00H
	DB	00H
	DB	00H
	DB	00H
	DB	00H
	DB	00H
	DB	00H
	DB	00H
	DB	00H
	DB	00H
	DB	00H
	DB	00H
	DB	00H
	DB	00H
	DB	00H
	DB	00H
	DB	00H
	DB	00H
	DB	00H
	DB	00H
	DB	00H
	DB	00H
	DB	00H
	DB	00H
	DB	00H
	DB	00H
	DB	00H
	DB	00H
	DB	00H
	DB	00H
	DB	00H
	DB	00H
	DB	00H
	DB	00H
	DB	00H
	DB	00H
	DB	00H
	DB	00H
	DB	00H
	DB	00H
	DB	00H
	DB	00H
	DB	00H
	DB	00H
	DB	00H
	DB	00H
	DB	00H
	DB	00H
	DB	00H
	DB	00H
	DB	00H
	DB	00H
	DB	00H
	DB	00H
	DB	00H
	DB	00H
	DB	00H
	DB	00H
	DB	00H
	DB	00H
	DB	00H
	DB	00H
	DB	00H
	DB	00H
	DB	00H
	DB	00H
	DB	00H
	DB	00H
	DB	00H
	DB	00H
	DB	00H
	DB	00H
	DB	00H
	DB	00H
	DB	00H
	DB	00H
	DB	00H
	DB	00H
	DB	00H
	DB	00H
	DB	00H
	DB	00H
	DB	00H
	DB	00H
	DB	00H
	DB	00H
	DB	00H
	DB	00H
	DB	00H
	DB	00H
	DB	00H
	DB	00H
	DB	00H
	DB	00H
	DB	00H
	DB	00H
	DB	00H
	DB	00H
	DB	00H
	DB	00H
	DB	00H
	DB	00H
	DB	00H
	DB	00H
	DB	00H
	DB	00H
	DB	00H
	DB	00H
	DB	00H
	DB	00H
	DB	00H
	DB	00H
	DB	00H
	DB	00H
	DB	00H
	DB	00H
	DB	00H
	DB	00H
	DB	00H
	DB	00H
	DB	00H
	DB	00H
	DB	00H
	DB	00H
	DB	00H
	DB	00H
	DB	00H
	DB	00H
	DB	00H
	DB	00H
	DB	00H
	DB	00H
	DB	00H
	DB	00H
	DB	00H
	DB	00H
	DB	00H
	DB	00H
	DB	00H
	DB	00H
	DB	00H
	DB	00H
	DB	00H
	DB	00H
	DB	00H
	DB	00H
	DB	00H
	DB	00H
	DB	00H
	DB	00H
	DB	00H
	DB	00H
	DB	00H
	DB	00H
	DB	00H
	DB	00H
	DB	00H
	DB	00H
	DB	00H
	DB	00H
	DB	00H
	DB	00H
	DB	00H
	DB	00H
	DB	00H
	DB	00H
	DB	00H
	DB	00H
	DB	00H
CONST	ENDS
END
