; Listing generated by Microsoft (R) Optimizing Compiler Version 16.00.40219.01 

	TITLE	C:\DUII\DUII\Graphics\DriveModeBackground.c
	.686P
	.XMM
	include listing.inc
	.model	flat

INCLUDELIB LIBCMT
INCLUDELIB OLDNAMES

PUBLIC	_bmDriveModeBackground
CONST	SEGMENT
_ColorsDriveModeBackground DD 020101H
	DD	0c0b0aH
	DD	0131312H
	DD	0a0403H
	DD	0b0905H
	DD	012110dH
	DD	01b1b1aH
	DD	0110d0bH
	DD	01a1a14H
	DD	0b4b4b6H
	DD	0191513H
	DD	0d110cH
	DD	0d1213H
	DD	0e7e7e7H
	DD	0d6d6d6H
	DD	0444444H
	DD	050904H
	DD	0a7a7a9H
	DD	0393939H
	DD	0f6f6f6H
	DD	0151914H
	DD	0c7c7c7H
	DD	0232322H
	DD	023221cH
	DD	0211c1bH
	DD	050a0aH
	DD	0110b04H
	DD	0565656H
	DD	0868686H
	DD	0c0d11H
	DD	0979798H
	DD	0151a1aH
	DD	0a0509H
	DD	0120e11H
	DD	02b2b2aH
	DD	0141519H
	DD	0787878H
	DD	040509H
	DD	019130cH
	DD	0676767H
	DD	01c211bH
	DD	0aeaeb0H
	DD	01a1519H
	DD	0ffffH
	DD	0292523H
	DD	0211b14H
	DD	02a2a24H
	DD	01c2222H
	DD	0110503H
	DD	01b1c21H
	DD	0121104H
	DD	0ff00H
	DD	0ffH
	DD	0252924H
	DD	03039aH
	DD	073938H
	DD	0190d0cH
	DD	01a190dH
	DD	0221d21H
	DD	03c303H
	DD	01ab01H
	DD	0242a2aH
	DD	029231cH
	DD	040b12H
	DD	0303d1H
	DD	0312b28H
	DD	03b704H
	DD	011050aH
	DD	0131c21H
	DD	0a1825H
	DD	034332bH
	DD	0d1005H
	DD	014190dH
	DD	0222115H
	DD	0282b32H
	DD	01c2115H
	DD	0232429H
	DD	01b242aH
	DD	0b4444H
	DD	0ceH
	DD	0211513H
	DD	02c3232H
	DD	02c312cH
	DD	0190d12H
	DD	0192a34H
	DD	09e9ea0H
	DD	0134646H
	DD	0142223H
	DD	05292bH
	DD	0120313H
	DD	0384444H
	DD	01c2a2bH
	DD	0807e7eH
	DD	014211bH
	DD	02a2629H
	DD	024291dH
	DD	029291dH
	DD	0a2636H
	DD	080807eH
	DD	020412H
	DD	030c1aH
	DD	0b0311H
	DD	020180dH
	DD	08e8e90H
	DD	021151aH
	DD	07e7e80H
	DD	039423aH
	DD	0191206H
	DD	05110bH
	DD	01c2924H
	DD	0180c05H
	DD	0281d1cH
	DD	013232bH
	DD	0233232H
	DD	0373c43H
	DD	090aa2H
	DD	0807e80H
	DD	0afb0b2H
	DD	0a0c19H
	DD	02c343aH
	DD	0293a43H
	DD	01a0b1bH
	DD	024312cH
	DD	0153942H
	DD	0504e4dH
	DD	04b4c50H
	DD	0bdbec0H
	DD	0322e31H
	DD	02c3933H
	DD	040c24H
	DD	0403c3bH
	DD	0504e50H
	DD	0141b29H
	DD	04302eH
	DD	0a403dH
	DD	05e5e60H
	DD	06e6e70H
	DD	0120c19H
	DD	0131522H
	DD	061733H
	DD	0b0afb1H
	DD	043443bH
	DD	0908f91H
	DD	0152014H
	DD	0322719H
	DD	01b333bH
	DD	07f8080H
	DD	01a040bH
	DD	0292115H
	DD	02b3225H
	DD	04a524cH
	DD	04a5252H
	DD	0d180cH
	DD	0132a2cH
	DD	0103e3dH
	DD	02b3b3cH
	DD	011423eH
	DD	051504eH
	DD	0605f60H
	DD	0190404H
	DD	01c3135H
	DD	013313cH
	DD	024333aH
	DD	0403e41H
	DD	0cfcfd0H
	DD	0121906H
	DD	0140618H
	DD	0c2019H
	DD	01d291cH
	DD	01b1321H
	DD	0142824H
	DD	0c3842H
	DD	0706e70H
	DD	0a09fa1H
	DD	051005H
	DD	061dH
	DD	0281c14H
	DD	0170d23H
	DD	01c342dH
	DD	0274442H
	DD	0615e5eH
	DD	05e6061H
	DD	09fa0a1H
	DD	0180614H
	DD	0253326H
	DD	076408H
	DD	02a423aH
	DD	0a2846H
	DD	0182e42H
	DD	0195252H
	DD	0235a5aH
	DD	08f9091H
	DD	0dfdfe0H
	DD	0efeff0H
	DD	0c1a05H
	DD	0200a0aH
	DD	0200d11H
	DD	073602H
	DD	022210eH
	DD	02c321eH
	DD	039311dH
	DD	0191d28H
	DD	0153235H
	DD	02c3923H
	DD	024392cH
	DD	0243b35H
	DD	0253839H
	DD	0433e2eH
	DD	060347H
	DD	060653H
	DD	0b0a72H
	DD	01e4f51H
	DD	06d7070H
	DD	015d819H
	DD	07f807fH
	DD	08383H
	DD	04190dH
	DD	0181806H
	DD	0190618H
	DD	0180719H
	DD	0341719H
	DD	01b230fH
	DD	0232912H
	DD	02b2c15H
	DD	010162fH
	DD	0181934H
	DD	0220a21H
	DD	0351f26H
	DD	0211f34H
	DD	01b3a3aH
	DD	0243927H
	DD	0a5705H
	DD	0166b15H
	DD	035442eH
	DD	04504eH
	DD	01a524fH
	DD	0275149H
	DD	0344751H
	DD	05b605dH
	DD	062605fH
	DD	0706e6fH
	DD	06e706eH
	DD	09990bH
	DD	0f990fH
	DD	0dd114H
	DD	03058eH
	DD	0a10a5H
	DD	0a928fH
	DD	0c9291H
	DD	0908e8fH
	DD	090908fH
	DD	0b0afafH
	DD	0c0bfc0H
	DD	0cfd0cfH
	DD	0d0cfd0H
	DD	0e0dfe0H
_PalDriveModeBackground DD 0100H
	DB	00H
	ORG $+3
	DD	FLAT:_ColorsDriveModeBackground
_bmDriveModeBackground DW 01e0H
	DW	0e8H
	DW	01e0H
	DW	08H
	DD	FLAT:_acDriveModeBackground
	DD	FLAT:_PalDriveModeBackground
	ORG $+4
_acDriveModeBackground DB 00H
	DB	00H
	DB	00H
	DB	00H
	DB	00H
	DB	00H
	DB	00H
	DB	00H
	DB	00H
	DB	00H
	DB	00H
	DB	00H
	DB	00H
	DB	00H
	DB	00H
	DB	00H
	DB	00H
	DB	00H
	DB	00H
	DB	00H
	DB	00H
	DB	00H
	DB	00H
	DB	00H
	DB	00H
	DB	00H
	DB	00H
	DB	00H
	DB	00H
	DB	00H
	DB	00H
	DB	00H
	DB	00H
	DB	00H
	DB	00H
	DB	00H
	DB	00H
	DB	00H
	DB	00H
	DB	00H
	DB	00H
	DB	00H
	DB	00H
	DB	00H
	DB	00H
	DB	00H
	DB	03H
	DB	00H
	DB	00H
	DB	00H
	DB	00H
	DB	00H
	DB	00H
	DB	00H
	DB	00H
	DB	00H
	DB	03H
	DB	00H
	DB	00H
	DB	00H
	DB	00H
	DB	00H
	DB	00H
	DB	00H
	DB	00H
	DB	00H
	DB	00H
	DB	00H
	DB	00H
	DB	00H
	DB	00H
	DB	00H
	DB	00H
	DB	00H
	DB	00H
	DB	03H
	DB	03H
	DB	00H
	DB	00H
	DB	030H
	DB	03H
	DB	00H
	DB	00H
	DB	00H
	DB	00H
	DB	00H
	DB	00H
	DB	00H
	DB	00H
	DB	00H
	DB	00H
	DB	00H
	DB	00H
	DB	00H
	DB	00H
	DB	07H
	DB	014H
	DB	00H
	DB	00H
	DB	00H
	DB	00H
	DB	00H
	DB	00H
	DB	00H
	DB	00H
	DB	00H
	DB	00H
	DB	00H
	DB	00H
	DB	03H
	DB	00H
	DB	00H
	DB	00H
	DB	00H
	DB	00H
	DB	00H
	DB	00H
	DB	025H
	DB	01H
	DB	03H
	DB	03H
	DB	03H
	DB	03H
	DB	03H
	DB	010H
	DB	00H
	DB	03H
	DB	03H
	DB	03H
	DB	07H
	DB	07H
	DB	07H
	DB	04H
	DB	00H
	DB	00H
	DB	00H
	DB	00H
	DB	00H
	DB	047H
	DB	047H
	DB	03H
	DB	01aH
	DB	021H
	DB	025H
	DB	00H
	DB	01aH
	DB	04H
	DB	00H
	DB	030H
	DB	03H
	DB	00H
	DB	03H
	DB	03H
	DB	00H
	DB	00H
	DB	07H
	DB	04H
	DB	03H
	DB	03H
	DB	00H
	DB	03H
	DB	03H
	DB	00H
	DB	00H
	DB	03H
	DB	03H
	DB	03H
	DB	01aH
	DB	05H
	DB	030H
	DB	00H
	DB	00H
	DB	00H
	DB	00H
	DB	00H
	DB	00H
	DB	00H
	DB	00H
	DB	00H
	DB	04H
	DB	01aH
	DB	043H
	DB	00H
	DB	01aH
	DB	026H
	DB	038H
	DB	07H
	DB	026H
	DB	050H
	DB	0aH
	DB	05H
	DB	05H
	DB	07H
	DB	020H
	DB	07H
	DB	04H
	DB	010H
	DB	010H
	DB	047H
	DB	08H
	DB	05H
	DB	00H
	DB	03H
	DB	02H
	DB	0aH
	DB	02dH
	DB	02dH
	DB	050H
	DB	08H
	DB	0aH
	DB	021H
	DB	05H
	DB	039H
	DB	049H
	DB	016H
	DB	018H
	DB	07H
	DB	01aH
	DB	026H
	DB	08H
	DB	07H
	DB	06bH
	DB	02dH
	DB	049H
	DB	017H
	DB	018H
	DB	02aH
	DB	02aH
	DB	0aH
	DB	07H
	DB	030H
	DB	026H
	DB	026H
	DB	01aH
	DB	05H
	DB	028H
	DB	06H
	DB	02dH
	DB	06H
	DB	0aH
	DB	026H
	DB	026H
	DB	026H
	DB	05H
	DB	00H
	DB	01H
	DB	0aH
	DB	021H
	DB	041H
	DB	035H
	DB	048H
	DB	048H
	DB	08H
	DB	023H
	DB	05H
	DB	048H
	DB	08H
	DB	01dH
	DB	07H
	DB	026H
	DB	01aH
	DB	047H
	DB	05H
	DB	07H
	DB	05H
	DB	026H
	DB	02dH
	DB	0aH
	DB	026H
	DB	038H
	DB	026H
	DB	02dH
	DB	08H
	DB	08H
	DB	04bH
	DB	08H
	DB	0aH
	DB	08H
	DB	05H
	DB	05H
	DB	02H
	DB	0aH
	DB	038H
	DB	050H
	DB	06H
	DB	06H
	DB	06H
	DB	0aH
	DB	0aH
	DB	08H
	DB	06H
	DB	08H
	DB	02dH
	DB	06bH
	DB	03H
	DB	01fH
	DB	023H
	DB	014H
	DB	08H
	DB	0aH
	DB	016H
	DB	06H
	DB	01H
	DB	02H
	DB	02H
	DB	07H
	DB	07H
	DB	07H
	DB	05H
	DB	02dH
	DB	026H
	DB	02dH
	DB	07H
	DB	01aH
	DB	02dH
	DB	068H
	DB	0aH
	DB	0aH
	DB	0aH
	DB	05H
	DB	05H
	DB	038H
	DB	038H
	DB	05H
	DB	0aH
	DB	0aH
	DB	021H
	DB	00H
	DB	01H
	DB	04H
	DB	010H
	DB	0aH
	DB	018H
	DB	06H
	DB	0aH
	DB	014H
	DB	02fH
	DB	016H
	DB	017H
	DB	08H
	DB	02H
	DB	021H
	DB	053H
	DB	05H
	DB	010H
	DB	014H
	DB	0aH
	DB	07H
	DB	01H
	DB	01dH
	DB	07H
	DB	01H
	DB	02H
	DB	0aH
	DB	026H
	DB	026H
	DB	04H
	DB	05H
	DB	08H
	DB	07H
	DB	0bH
	DB	0bH
	DB	0aH
	DB	050H
	DB	06H
	DB	0aH
	DB	0bH
	DB	021H
	DB	07H
	DB	01H
	DB	00H
	DB	00H
	DB	019H
	DB	014H
	DB	0aH
	DB	0aH
	DB	02H
	DB	02H
	DB	05H
	DB	01H
	DB	05H
	DB	021H
	DB	04H
	DB	07H
	DB	0aH
	DB	0aH
	DB	02H
	DB	05H
	DB	08H
	DB	08H
	DB	02H
	DB	07H
	DB	053H
	DB	0aH
	DB	0aH
	DB	0aH
	DB	02aH
	DB	0aH
	DB	02H
	DB	05H
	DB	02H
	DB	02H
	DB	02H
	DB	07H
	DB	05H
	DB	039H
	DB	06dH
	DB	0a0H
	DB	01fH
	DB	0bH
	DB	0bH
	DB	0bH
	DB	02H
	DB	0aH
	DB	016H
	DB	051H
	DB	051H
	DB	031H
	DB	020H
	DB	03H
	DB	04H
	DB	021H
	DB	07H
	DB	04H
	DB	020H
	DB	04H
	DB	01H
	DB	05H
	DB	07H
	DB	07H
	DB	07H
	DB	03H
	DB	03H
	DB	043H
	DB	03H
	DB	010H
	DB	04H
	DB	03H
	DB	04H
	DB	047H
	DB	04H
	DB	010H
	DB	020H
	DB	04H
	DB	020H
	DB	00H
	DB	00H
	DB	04H
	DB	04H
	DB	03H
	DB	00H
	DB	00H
	DB	00H
	DB	00H
	DB	00H
	DB	00H
	DB	00H
	DB	00H
	DB	00H
	DB	010H
	DB	06cH
	DB	010H
	DB	03H
	DB	04H
	DB	00H
	DB	00H
	DB	00H
	DB	00H
	DB	00H
	DB	00H
	DB	00H
	DB	00H
	DB	00H
	DB	00H
	DB	00H
	DB	00H
	DB	00H
	DB	00H
	DB	00H
	DB	00H
	DB	00H
	DB	00H
	DB	00H
	DB	00H
	DB	00H
	DB	00H
	DB	00H
	DB	00H
	DB	00H
	DB	00H
	DB	00H
	DB	00H
	DB	00H
	DB	00H
	DB	03H
	DB	030H
	DB	00H
	DB	00H
	DB	00H
	DB	00H
	DB	00H
	DB	00H
	DB	00H
	DB	00H
	DB	00H
	DB	00H
	DB	00H
	DB	00H
	DB	00H
	DB	00H
	DB	00H
	DB	00H
	DB	00H
	DB	00H
	DB	00H
	DB	00H
	DB	00H
	DB	00H
	DB	00H
	DB	00H
	DB	00H
	DB	00H
	DB	00H
	DB	00H
	DB	00H
	DB	00H
	DB	03H
	DB	03H
	DB	00H
	DB	00H
	DB	03H
	DB	00H
	DB	00H
	DB	03H
	DB	03H
	DB	03H
	DB	03H
	DB	03H
	DB	03H
	DB	03H
	DB	00H
	DB	00H
	DB	00H
	DB	00H
	DB	00H
	DB	03H
	DB	00H
	DB	00H
	DB	03H
	DB	03H
	DB	00H
	DB	00H
	DB	00H
	DB	00H
	DB	00H
	DB	03H
	DB	03H
	DB	03H
	DB	00H
	DB	01aH
	DB	01aH
	DB	03H
	DB	00H
	DB	00H
	DB	00H
	DB	00H
	DB	00H
	DB	00H
	DB	00H
	DB	00H
	DB	00H
	DB	00H
	DB	00H
	DB	00H
	DB	00H
	DB	07H
	DB	0bH
	DB	00H
	DB	00H
	DB	00H
	DB	00H
	DB	03H
	DB	03H
	DB	03H
	DB	00H
	DB	03H
	DB	032H
	DB	04H
	DB	03H
	DB	038H
	DB	043H
	DB	03H
	DB	03H
	DB	04H
	DB	00H
	DB	00H
	DB	03H
	DB	020H
	DB	07H
	DB	04H
	DB	010H
	DB	03H
	DB	04H
	DB	03H
	DB	00H
	DB	00H
	DB	01aH
	DB	030H
	DB	030H
	DB	06H
	DB	014H
	DB	04H
	DB	03H
	DB	00H
	DB	00H
	DB	00H
	DB	00H
	DB	00H
	DB	03H
	DB	04H
	DB	01aH
	DB	01aH
	DB	07H
	DB	043H
	DB	030H
	DB	026H
	DB	038H
	DB	03H
	DB	01aH
	DB	01aH
	DB	03H
	DB	01H
	DB	07H
	DB	04H
	DB	030H
	DB	026H
	DB	032H
	DB	026H
	DB	05H
	DB	043H
	DB	07H
	DB	043H
	DB	020H
	DB	00H
	DB	00H
	DB	03H
	DB	04H
	DB	026H
	DB	0aH
	DB	026H
	DB	04H
	DB	00H
	DB	00H
	DB	00H
	DB	00H
	DB	03H
	DB	010H
	DB	00H
	DB	00H
	DB	032H
	DB	026H
	DB	053H
	DB	030H
	DB	026H
	DB	08H
	DB	050H
	DB	050H
	DB	02dH
	DB	018H
	DB	08H
	DB	0aH
	DB	026H
	DB	08H
	DB	02aH
	DB	068H
	DB	07H
	DB	00H
	DB	00H
	DB	03H
	DB	048H
	DB	01aH
	DB	03H
	DB	01H
	DB	06H
	DB	018H
	DB	04bH
	DB	02dH
	DB	02dH
	DB	039H
	DB	039H
	DB	0aH
	DB	038H
	DB	05H
	DB	017H
	DB	022H
	DB	05eH
	DB	068H
	DB	026H
	DB	02dH
	DB	049H
	DB	0aH
	DB	066H
	DB	03eH
	DB	05fH
	DB	017H
	DB	06H
	DB	023H
	DB	02H
	DB	06H
	DB	02dH
	DB	02dH
	DB	049H
	DB	08H
	DB	08H
	DB	08H
	DB	02H
	DB	08H
	DB	02dH
	DB	02dH
	DB	017H
	DB	08H
	DB	032H
	DB	0aH
	DB	0aH
	DB	03H
	DB	07H
	DB	07H
	DB	018H
	DB	012H
	DB	052H
	DB	014H
	DB	05H
	DB	0aH
	DB	06H
	DB	05H
	DB	010H
	DB	048H
	DB	01H
	DB	07H
	DB	08H
	DB	07H
	DB	05H
	DB	06H
	DB	06H
	DB	0aH
	DB	050H
	DB	017H
	DB	018H
	DB	02dH
	DB	08H
	DB	02dH
	DB	049H
	DB	08H
	DB	08H
	DB	08H
	DB	08H
	DB	02dH
	DB	049H
	DB	02H
	DB	07H
	DB	05H
	DB	0aH
	DB	08H
	DB	017H
	DB	018H
	DB	018H
	DB	02aH
	DB	0aH
	DB	08H
	DB	08H
	DB	018H
	DB	018H
	DB	02dH
	DB	02dH
	DB	08H
	DB	0cH
	DB	01dH
	DB	0aH
	DB	08H
	DB	028H
	DB	035H
	DB	06H
	DB	01H
	DB	08H
	DB	06H
	DB	0aH
	DB	06H
	DB	08H
	DB	049H
	DB	05fH
	DB	02dH
	DB	017H
	DB	0aH
	DB	050H
	DB	02eH
	DB	02cH
	DB	017H
	DB	06H
	DB	08H
	DB	0aH
	DB	08H
	DB	06H
	DB	018H
	DB	018H
	DB	02dH
	DB	0aH
	DB	023H
	DB	01dH
	DB	02H
	DB	01aH
	DB	07H
	DB	018H
	DB	017H
	DB	018H
	DB	018H
	DB	018H
	DB	018H
	DB	05fH
	DB	017H
	DB	08H
	DB	06H
	DB	0aH
	DB	018H
	DB	08H
	DB	05H
	DB	02H
	DB	06H
	DB	0aH
	DB	01H
	DB	021H
	DB	02H
	DB	0aH
	DB	06H
	DB	018H
	DB	02dH
	DB	018H
	DB	053H
	DB	0aH
	DB	06H
	DB	0aH
	DB	0bH
	DB	0bH
	DB	02dH
	DB	017H
	DB	06H
	DB	0aH
	DB	02H
	DB	02H
	DB	02H
	DB	07H
	DB	00H
	DB	00H
	DB	0bH
	DB	08H
	DB	0aH
	DB	018H
	DB	04bH
	DB	08H
	DB	021H
	DB	07H
	DB	0aH
	DB	0aH
	DB	07H
	DB	0aH
	DB	0aH
	DB	0aH
	DB	08H
	DB	06H
	DB	08H
	DB	014H
	DB	048H
	DB	05H
	DB	021H
	DB	0aH
	DB	06H
	DB	06H
	DB	018H
	DB	018H
	DB	08H
	DB	0aH
	DB	014H
	DB	02H
	DB	02H
	DB	05H
	DB	039H
	DB	026H
	DB	0a8H
	DB	0aaH
	DB	0cH
	DB	07H
	DB	047H
	DB	048H
	DB	0aH
	DB	08H
	DB	03dH
	DB	051H
	DB	080H
	DB	02fH
	DB	0bH
	DB	05H
	DB	0aH
	DB	0aH
	DB	053H
	DB	038H
	DB	021H
	DB	07H
	DB	05H
	DB	02H
	DB	05H
	DB	07H
	DB	01H
	DB	01H
	DB	021H
	DB	053H
	DB	020H
	DB	04H
	DB	05H
	DB	07H
	DB	01H
	DB	0bH
	DB	01H
	DB	04H
	DB	07H
	DB	01H
	DB	020H
	DB	04H
	DB	01H
	DB	07H
	DB	047H
	DB	04H
	DB	03H
	DB	03H
	DB	03H
	DB	03H
	DB	03H
	DB	04H
	DB	01dH
	DB	019H
	DB	00H
	DB	010H
	DB	010H
	DB	010H
	DB	04H
	DB	010H
	DB	00H
	DB	00H
	DB	00H
	DB	00H
	DB	00H
	DB	00H
	DB	00H
	DB	00H
	DB	00H
	DB	00H
	DB	00H
	DB	00H
	DB	00H
	DB	00H
	DB	00H
	DB	00H
	DB	00H
	DB	00H
	DB	00H
	DB	00H
	DB	00H
	DB	00H
	DB	00H
	DB	00H
	DB	00H
	DB	00H
	DB	00H
	DB	00H
	DB	00H
	DB	00H
	DB	030H
	DB	028H
	DB	098H
	DB	00H
	DB	00H
	DB	00H
	DB	00H
	DB	00H
	DB	00H
	DB	00H
	DB	00H
	DB	00H
	DB	00H
	DB	00H
	DB	00H
	DB	00H
	DB	00H
	DB	00H
	DB	00H
	DB	00H
	DB	00H
	DB	00H
	DB	00H
	DB	00H
	DB	00H
	DB	00H
	DB	00H
	DB	00H
	DB	03H
	DB	03H
	DB	00H
	DB	00H
	DB	00H
	DB	00H
	DB	00H
	DB	00H
	DB	03H
	DB	00H
	DB	00H
	DB	03H
	DB	03H
	DB	03H
	DB	03H
	DB	03H
	DB	03H
	DB	010H
	DB	00H
	DB	00H
	DB	00H
	DB	00H
	DB	03H
	DB	030H
	DB	03H
	DB	00H
	DB	03H
	DB	00H
	DB	00H
	DB	00H
	DB	00H
	DB	00H
	DB	00H
	DB	03H
	DB	01aH
	DB	03H
	DB	00H
	DB	03H
	DB	01aH
	DB	03H
	DB	00H
	DB	00H
	DB	00H
	DB	00H
	DB	00H
	DB	00H
	DB	00H
	DB	00H
	DB	00H
	DB	00H
	DB	00H
	DB	00H
	DB	00H
	DB	00H
	DB	00H
	DB	03H
	DB	00H
	DB	00H
	DB	03H
	DB	01aH
	DB	030H
	DB	03H
	DB	00H
	DB	04H
	DB	047H
	DB	03H
	DB	04H
	DB	026H
	DB	038H
	DB	04H
	DB	01H
	DB	020H
	DB	03H
	DB	030H
	DB	04H
	DB	04H
	DB	04H
	DB	030H
	DB	03H
	DB	04H
	DB	01aH
	DB	01aH
	DB	03H
	DB	04H
	DB	01aH
	DB	01aH
	DB	01aH
	DB	02H
	DB	02H
	DB	03H
	DB	03H
	DB	01H
	DB	010H
	DB	00H
	DB	00H
	DB	00H
	DB	00H
	DB	01aH
	DB	07H
	DB	03H
	DB	01aH
	DB	026H
	DB	01aH
	DB	07H
	DB	038H
	DB	05H
	DB	032H
	DB	04H
	DB	010H
	DB	04H
	DB	01H
	DB	07H
	DB	0aH
	DB	0aH
	DB	06bH
	DB	026H
	DB	05H
	DB	038H
	DB	02dH
	DB	018H
	DB	02H
	DB	00H
	DB	00H
	DB	03H
	DB	01aH
	DB	0aH
	DB	06H
	DB	02H
	DB	04H
	DB	00H
	DB	03H
	DB	038H
	DB	018H
	DB	08fH
	DB	010H
	DB	00H
	DB	03H
	DB	066H
	DB	049H
	DB	08H
	DB	026H
	DB	01aH
	DB	07H
	DB	02dH
	DB	08H
	DB	018H
	DB	02fH
	DB	02H
	DB	0bH
	DB	0bH
	DB	014H
	DB	028H
	DB	08H
	DB	0aH
	DB	07H
	DB	04H
	DB	03H
	DB	010H
	DB	010H
	DB	01H
	DB	00H
	DB	021H
	DB	08H
	DB	039H
	DB	02dH
	DB	049H
	DB	026H
	DB	0aH
	DB	02dH
	DB	050H
	DB	043H
	DB	0aH
	DB	022H
	DB	02eH
	DB	03eH
	DB	018H
	DB	0aH
	DB	02dH
	DB	03eH
	DB	018H
	DB	02dH
	DB	08H
	DB	08H
	DB	08H
	DB	02H
	DB	021H
	DB	0aH
	DB	018H
	DB	017H
	DB	08H
	DB	048H
	DB	039H
	DB	0aH
	DB	026H
	DB	07H
	DB	039H
	DB	02dH
	DB	017H
	DB	08H
	DB	06eH
	DB	050H
	DB	050H
	DB	026H
	DB	01H
	DB	04H
	DB	060H
	DB	052H
	DB	016H
	DB	01H
	DB	03H
	DB	0aH
	DB	02dH
	DB	026H
	DB	07H
	DB	05H
	DB	01H
	DB	07H
	DB	0aH
	DB	021H
	DB	021H
	DB	08H
	DB	06H
	DB	068H
	DB	03eH
	DB	02dH
	DB	02dH
	DB	08H
	DB	01H
	DB	026H
	DB	02dH
	DB	0aH
	DB	02H
	DB	0aH
	DB	0aH
	DB	02dH
	DB	017H
	DB	07H
	DB	03H
	DB	07H
	DB	05H
	DB	014H
	DB	06H
	DB	08H
	DB	0aH
	DB	021H
	DB	0aH
	DB	07H
	DB	05H
	DB	02dH
	DB	0aH
	DB	02dH
	DB	05fH
	DB	014H
	DB	020H
	DB	0aH
	DB	06H
	DB	026H
	DB	047H
	DB	049H
	DB	018H
	DB	026H
	DB	06H
	DB	018H
	DB	06H
	DB	08H
	DB	08H
	DB	017H
	DB	08H
	DB	05H
	DB	018H
	DB	03aH
	DB	02cH
	DB	02eH
	DB	060H
	DB	02cH
	DB	06H
	DB	0aH
	DB	050H
	DB	07H
	DB	07H
	DB	018H
	DB	018H
	DB	068H
	DB	050H
	DB	023H
	DB	01dH
	DB	0aH
	DB	0aH
	DB	02aH
	DB	068H
	DB	0aH
	DB	02aH
	DB	03aH
	DB	06fH
	DB	03eH
	DB	05fH
	DB	031H
	DB	06H
	DB	018H
	DB	02dH
	DB	014H
	DB	02H
	DB	02H
	DB	0aH
	DB	08H
	DB	02aH
	DB	021H
	DB	07H
	DB	0aH
	DB	06H
	DB	03aH
	DB	017H
	DB	05fH
	DB	017H
	DB	06H
	DB	06H
	DB	018H
	DB	018H
	DB	07H
	DB	01H
	DB	08H
	DB	06H
	DB	0aH
	DB	0aH
	DB	0aH
	DB	07H
	DB	03H
	DB	01H
	DB	00H
	DB	00H
	DB	098H
	DB	048H
	DB	039H
	DB	06H
	DB	08H
	DB	0aH
	DB	0aH
	DB	026H
	DB	07H
	DB	02H
	DB	06H
	DB	018H
	DB	0aH
	DB	05H
	DB	0aH
	DB	06H
	DB	05H
	DB	04H
	DB	047H
	DB	038H
	DB	026H
	DB	02dH
	DB	018H
	DB	06H
	DB	02aH
	DB	018H
	DB	06H
	DB	08H
	DB	014H
	DB	05H
	DB	04H
	DB	047H
	DB	05H
	DB	08H
	DB	02H
	DB	010H
	DB	04H
	DB	05H
	DB	07H
	DB	05H
	DB	05H
	DB	014H
	DB	04aH
	DB	077H
	DB	04aH
	DB	014H
	DB	0aeH
	DB	048H
	DB	018H
	DB	02aH
	DB	03eH
	DB	03eH
	DB	026H
	DB	05H
	DB	02H
	DB	0aH
	DB	07H
	DB	03H
	DB	01H
	DB	021H
	DB	02H
	DB	021H
	DB	07H
	DB	04H
	DB	047H
	DB	04H
	DB	01H
	DB	01H
	DB	020H
	DB	01H
	DB	01dH
	DB	01H
	DB	020H
	DB	01H
	DB	01H
	DB	04H
	DB	0aeH
	DB	019H
	DB	020H
	DB	03H
	DB	03H
	DB	03H
	DB	020H
	DB	01H
	DB	019H
	DB	010H
	DB	04H
	DB	03H
	DB	00H
	DB	010H
	DB	010H
	DB	00H
	DB	00H
	DB	00H
	DB	00H
	DB	00H
	DB	010H
	DB	010H
	DB	010H
	DB	010H
	DB	00H
	DB	00H
	DB	00H
	DB	00H
	DB	00H
	DB	00H
	DB	00H
	DB	00H
	DB	00H
	DB	00H
	DB	00H
	DB	00H
	DB	00H
	DB	00H
	DB	00H
	DB	00H
	DB	00H
	DB	00H
	DB	00H
	DB	00H
	DB	00H
	DB	00H
	DB	00H
	DB	06cH
	DB	010H
	DB	00H
	DB	00H
	DB	00H
	DB	00H
	DB	00H
	DB	00H
	DB	00H
	DB	00H
	DB	00H
	DB	00H
	DB	00H
	DB	00H
	DB	00H
	DB	00H
	DB	00H
	DB	00H
	DB	00H
	DB	00H
	DB	00H
	DB	03H
	DB	03H
	DB	00H
	DB	00H
	DB	00H
	DB	00H
	DB	00H
	DB	03H
	DB	00H
	DB	00H
	DB	00H
	DB	00H
	DB	00H
	DB	00H
	DB	00H
	DB	00H
	DB	00H
	DB	00H
	DB	03H
	DB	03H
	DB	03H
	DB	00H
	DB	00H
	DB	00H
	DB	00H
	DB	00H
	DB	00H
	DB	00H
	DB	00H
	DB	03H
	DB	03H
	DB	00H
	DB	00H
	DB	03H
	DB	00H
	DB	00H
	DB	00H
	DB	00H
	DB	00H
	DB	00H
	DB	00H
	DB	00H
	DB	03H
	DB	03H
	DB	00H
	DB	00H
	DB	00H
	DB	00H
	DB	00H
	DB	00H
	DB	00H
	DB	00H
	DB	00H
	DB	00H
	DB	00H
	DB	00H
	DB	00H
	DB	00H
	DB	00H
	DB	00H
	DB	03H
	DB	01aH
	DB	03H
	DB	00H
	DB	00H
	DB	030H
	DB	030H
	DB	03H
	DB	00H
	DB	00H
	DB	00H
	DB	00H
	DB	03H
	DB	032H
	DB	0a5H
	DB	07H
	DB	03H
	DB	020H
	DB	053H
	DB	0aH
	DB	01aH
	DB	01aH
	DB	01aH
	DB	04H
	DB	019H
	DB	020H
	DB	01aH
	DB	01aH
	DB	07H
	DB	053H
	DB	07H
	DB	03H
	DB	030H
	DB	030H
	DB	04H
	DB	03H
	DB	030H
	DB	03H
	DB	03H
	DB	04H
	DB	03H
	DB	00H
	DB	00H
	DB	04H
	DB	04H
	DB	03H
	DB	01aH
	DB	026H
	DB	05H
	DB	01H
	DB	04H
	DB	07H
	DB	047H
	DB	00H
	DB	00H
	DB	01aH
	DB	01aH
	DB	01aH
	DB	02H
	DB	02H
	DB	047H
	DB	030H
	DB	01aH
	DB	032H
	DB	026H
	DB	026H
	DB	026H
	DB	030H
	DB	043H
	DB	068H
	DB	02dH
	DB	05H
	DB	01H
	DB	010H
	DB	00H
	DB	043H
	DB	03aH
	DB	077H
	DB	09bH
	DB	057H
	DB	00H
	DB	00H
	DB	00H
	DB	07H
	DB	08H
	DB	05H
	DB	026H
	DB	026H
	DB	026H
	DB	02H
	DB	05H
	DB	014H
	DB	02H
	DB	07H
	DB	01H
	DB	019H
	DB	04H
	DB	04H
	DB	05H
	DB	02H
	DB	023H
	DB	02H
	DB	01H
	DB	00H
	DB	00H
	DB	020H
	DB	038H
	DB	0aH
	DB	02H
	DB	05H
	DB	0aH
	DB	08H
	DB	018H
	DB	018H
	DB	02dH
	DB	06fH
	DB	068H
	DB	03aH
	DB	02cH
	DB	05fH
	DB	049H
	DB	0aH
	DB	0aH
	DB	017H
	DB	02cH
	DB	017H
	DB	02dH
	DB	050H
	DB	0aH
	DB	018H
	DB	018H
	DB	02dH
	DB	049H
	DB	049H
	DB	08H
	DB	01H
	DB	04H
	DB	0aH
	DB	02dH
	DB	08H
	DB	05H
	DB	07H
	DB	039H
	DB	0aH
	DB	06H
	DB	050H
	DB	049H
	DB	04bH
	DB	05H
	DB	01H
	DB	026H
	DB	0ddH
	DB	05H
	DB	053H
	DB	07H
	DB	07H
	DB	08H
	DB	039H
	DB	02dH
	DB	06fH
	DB	0aH
	DB	026H
	DB	018H
	DB	018H
	DB	02aH
	DB	02aH
	DB	08H
	DB	0aH
	DB	06fH
	DB	02cH
	DB	049H
	DB	02dH
	DB	039H
	DB	01aH
	DB	026H
	DB	017H
	DB	018H
	DB	06H
	DB	018H
	DB	018H
	DB	018H
	DB	018H
	DB	0aH
	DB	053H
	DB	0aH
	DB	05H
	DB	02H
	DB	06H
	DB	08H
	DB	0aH
	DB	0aH
	DB	018H
	DB	06H
	DB	08H
	DB	048H
	DB	07H
	DB	018H
	DB	014H
	DB	00H
	DB	07H
	DB	017H
	DB	018H
	DB	050H
	DB	01aH
	DB	08H
	DB	028H
	DB	049H
	DB	017H
	DB	018H
	DB	08H
	DB	0aH
	DB	02dH
	DB	018H
	DB	05H
	DB	08H
	DB	02cH
	DB	02cH
	DB	018H
	DB	04bH
	DB	017H
	DB	017H
	DB	06H
	DB	02dH
	DB	06fH
	DB	0aH
	DB	0aH
	DB	018H
	DB	068H
	DB	03aH
	DB	068H
	DB	053H
	DB	07H
	DB	01H
	DB	023H
	DB	068H
	DB	068H
	DB	021H
	DB	08H
	DB	06H
	DB	018H
	DB	05fH
	DB	017H
	DB	03aH
	DB	06H
	DB	018H
	DB	018H
	DB	0aH
	DB	021H
	DB	06H
	DB	03aH
	DB	018H
	DB	02cH
	DB	06fH
	DB	08H
	DB	06H
	DB	06H
	DB	017H
	DB	018H
	DB	08H
	DB	08H
	DB	018H
	DB	018H
	DB	018H
	DB	06H
	DB	07H
	DB	07H
	DB	08H
	DB	0aH
	DB	026H
	DB	039H
	DB	026H
	DB	01aH
	DB	03H
	DB	020H
	DB	00H
	DB	00H
	DB	00H
	DB	0bH
	DB	04bH
	DB	02dH
	DB	06H
	DB	06H
	DB	06H
	DB	0aH
	DB	026H
	DB	08H
	DB	017H
	DB	018H
	DB	02aH
	DB	08H
	DB	014H
	DB	02H
	DB	02H
	DB	05H
	DB	02H
	DB	018H
	DB	02cH
	DB	018H
	DB	06H
	DB	0aH
	DB	0aH
	DB	06H
	DB	06H
	DB	0aH
	DB	02H
	DB	0aH
	DB	07H
	DB	04H
	DB	02H
	DB	031H
	DB	02aH
	DB	03H
	DB	03H
	DB	02H
	DB	05H
	DB	047H
	DB	047H
	DB	08H
	DB	07aH
	DB	04aH
	DB	02fH
	DB	07H
	DB	01aH
	DB	02dH
	DB	08H
	DB	08H
	DB	052H
	DB	022H
	DB	0aH
	DB	02H
	DB	08H
	DB	02aH
	DB	021H
	DB	05H
	DB	0aH
	DB	02H
	DB	07H
	DB	07H
	DB	07H
	DB	01aH
	DB	00H
	DB	00H
	DB	04H
	DB	020H
	DB	010H
	DB	01H
	DB	07H
	DB	01H
	DB	01H
	DB	01H
	DB	03H
	DB	00H
	DB	00H
	DB	025H
	DB	01dH
	DB	07H
	DB	03H
	DB	03H
	DB	020H
	DB	020H
	DB	00H
	DB	047H
	DB	04H
	DB	00H
	DB	00H
	DB	00H
	DB	00H
	DB	00H
	DB	01H
	DB	04H
	DB	00H
	DB	04H
	DB	04H
	DB	010H
	DB	00H
	DB	00H
	DB	00H
	DB	00H
	DB	00H
	DB	00H
	DB	00H
	DB	00H
	DB	00H
	DB	00H
	DB	00H
	DB	00H
	DB	00H
	DB	00H
	DB	00H
	DB	00H
	DB	00H
	DB	00H
	DB	00H
	DB	00H
	DB	00H
	DB	00H
	DB	00H
	DB	00H
	DB	00H
	DB	00H
	DB	00H
	DB	00H
	DB	00H
	DB	00H
	DB	00H
	DB	00H
	DB	00H
	DB	00H
	DB	00H
	DB	00H
	DB	00H
	DB	00H
	DB	00H
	DB	00H
	DB	00H
	DB	00H
	DB	00H
	DB	00H
	DB	00H
	DB	00H
	DB	00H
	DB	00H
	DB	00H
	DB	00H
	DB	00H
	DB	00H
	DB	00H
	DB	00H
	DB	00H
	DB	00H
	DB	00H
	DB	00H
	DB	00H
	DB	00H
	DB	00H
	DB	03H
	DB	03H
	DB	00H
	DB	00H
	DB	00H
	DB	03H
	DB	00H
	DB	00H
	DB	03H
	DB	03H
	DB	00H
	DB	00H
	DB	00H
	DB	00H
	DB	00H
	DB	00H
	DB	00H
	DB	00H
	DB	03H
	DB	04H
	DB	00H
	DB	00H
	DB	00H
	DB	00H
	DB	00H
	DB	00H
	DB	03H
	DB	03H
	DB	04H
	DB	00H
	DB	025H
	DB	025H
	DB	00H
	DB	03H
	DB	04H
	DB	03H
	DB	00H
	DB	03H
	DB	03H
	DB	00H
	DB	03H
	DB	03H
	DB	00H
	DB	03H
	DB	03H
	DB	00H
	DB	00H
	DB	03H
	DB	03H
	DB	00H
	DB	03H
	DB	03H
	DB	03H
	DB	00H
	DB	03H
	DB	01aH
	DB	03H
	DB	00H
	DB	010H
	DB	010H
	DB	03H
	DB	043H
	DB	021H
	DB	0aH
	DB	0aH
	DB	01aH
	DB	04H
	DB	01aH
	DB	04H
	DB	025H
	DB	00H
	DB	03H
	DB	030H
	DB	038H
	DB	0aH
	DB	04H
	DB	00H
	DB	03H
	DB	01aH
	DB	030H
	DB	03H
	DB	01aH
	DB	01aH
	DB	030H
	DB	01aH
	DB	04H
	DB	03H
	DB	03H
	DB	03H
	DB	01aH
	DB	026H
	DB	026H
	DB	01aH
	DB	01H
	DB	04H
	DB	04H
	DB	030H
	DB	030H
	DB	030H
	DB	03H
	DB	03H
	DB	07H
	DB	07H
	DB	06eH
	DB	039H
	DB	047H
	DB	030H
	DB	07H
	DB	026H
	DB	06H
	DB	02aH
	DB	026H
	DB	038H
	DB	0aH
	DB	017H
	DB	04bH
	DB	032H
	DB	047H
	DB	00H
	DB	03H
	DB	03eH
	DB	0a2H
	DB	054H
	DB	054H
	DB	03fH
	DB	00H
	DB	00H
	DB	00H
	DB	07H
	DB	05H
	DB	030H
	DB	0aH
	DB	04bH
	DB	039H
	DB	0aH
	DB	021H
	DB	01H
	DB	03H
	DB	01aH
	DB	07H
	DB	07H
	DB	01aH
	DB	03H
	DB	04H
	DB	020H
	DB	01dH
	DB	01dH
	DB	043H
	DB	07H
	DB	00H
	DB	04H
	DB	03eH
	DB	06H
	DB	032H
	DB	07H
	DB	0aH
	DB	02dH
	DB	017H
	DB	039H
	DB	06bH
	DB	02dH
	DB	03eH
	DB	03eH
	DB	049H
	DB	08H
	DB	08H
	DB	068H
	DB	018H
	DB	017H
	DB	017H
	DB	018H
	DB	02dH
	DB	06fH
	DB	06fH
	DB	017H
	DB	08H
	DB	08H
	DB	049H
	DB	0d9H
	DB	05H
	DB	03H
	DB	04H
	DB	02aH
	DB	02H
	DB	0bH
	DB	0bH
	DB	04H
	DB	04H
	DB	04H
	DB	07H
	DB	01H
	DB	01H
	DB	047H
	DB	020H
	DB	020H
	DB	01H
	DB	00H
	DB	00H
	DB	07H
	DB	038H
	DB	05H
	DB	047H
	DB	07H
	DB	02H
	DB	017H
	DB	017H
	DB	018H
	DB	016H
	DB	02cH
	DB	022H
	DB	018H
	DB	02dH
	DB	06fH
	DB	018H
	DB	017H
	DB	02eH
	DB	017H
	DB	039H
	DB	039H
	DB	018H
	DB	017H
	DB	018H
	DB	03aH
	DB	017H
	DB	02dH
	DB	0aH
	DB	02aH
	DB	06H
	DB	02aH
	DB	02aH
	DB	0aH
	DB	0aH
	DB	014H
	DB	0aH
	DB	050H
	DB	018H
	DB	017H
	DB	017H
	DB	053H
	DB	07H
	DB	05H
	DB	018H
	DB	02H
	DB	07H
	DB	017H
	DB	03aH
	DB	08H
	DB	06H
	DB	0aH
	DB	06H
	DB	02H
	DB	08H
	DB	018H
	DB	0aH
	DB	02H
	DB	08H
	DB	018H
	DB	08H
	DB	02aH
	DB	08H
	DB	028H
	DB	049H
	DB	066H
	DB	039H
	DB	08H
	DB	06H
	DB	02dH
	DB	017H
	DB	017H
	DB	017H
	DB	02eH
	DB	03eH
	DB	018H
	DB	018H
	DB	02aH
	DB	021H
	DB	0aH
	DB	021H
	DB	0bH
	DB	08H
	DB	06fH
	DB	018H
	DB	0aH
	DB	06H
	DB	06H
	DB	014H
	DB	02dH
	DB	018H
	DB	02aH
	DB	02aH
	DB	018H
	DB	018H
	DB	03aH
	DB	02cH
	DB	016H
	DB	016H
	DB	05eH
	DB	06fH
	DB	018H
	DB	03aH
	DB	018H
	DB	017H
	DB	018H
	DB	0aH
	DB	06H
	DB	017H
	DB	06fH
	DB	017H
	DB	08H
	DB	026H
	DB	08H
	DB	018H
	DB	08H
	DB	026H
	DB	026H
	DB	026H
	DB	07H
	DB	05H
	DB	010H
	DB	00H
	DB	00H
	DB	00H
	DB	048H
	DB	017H
	DB	017H
	DB	018H
	DB	028H
	DB	02H
	DB	02H
	DB	06H
	DB	018H
	DB	04bH
	DB	08H
	DB	06H
	DB	028H
	DB	0aH
	DB	021H
	DB	08H
	DB	08H
	DB	08H
	DB	028H
	DB	016H
	DB	06H
	DB	02H
	DB	014H
	DB	032H
	DB	0bH
	DB	014H
	DB	0aH
	DB	02aH
	DB	06H
	DB	02H
	DB	02H
	DB	014H
	DB	028H
	DB	018H
	DB	043H
	DB	03H
	DB	04H
	DB	010H
	DB	010H
	DB	07H
	DB	028H
	DB	06dH
	DB	02fH
	DB	02aH
	DB	02H
	DB	018H
	DB	018H
	DB	07H
	DB	05H
	DB	028H
	DB	017H
	DB	06H
	DB	01fH
	DB	014H
	DB	0aH
	DB	0aH
	DB	0aH
	DB	0aH
	DB	04H
	DB	010H
	DB	05H
	DB	02H
	DB	07H
	DB	04H
	DB	04H
	DB	01H
	DB	010H
	DB	07H
	DB	05H
	DB	05H
	DB	07H
	DB	04H
	DB	00H
	DB	00H
	DB	00H
	DB	00H
	DB	00H
	DB	0bH
	DB	021H
	DB	043H
	DB	02H
	DB	07H
	DB	03H
	DB	01H
	DB	04H
	DB	00H
	DB	00H
	DB	00H
	DB	00H
	DB	00H
	DB	010H
	DB	02H
	DB	021H
	DB	020H
	DB	010H
	DB	010H
	DB	00H
	DB	00H
	DB	00H
	DB	00H
	DB	00H
	DB	00H
	DB	00H
	DB	00H
	DB	00H
	DB	00H
	DB	00H
	DB	00H
	DB	00H
	DB	00H
	DB	00H
	DB	00H
	DB	00H
	DB	00H
	DB	00H
	DB	00H
	DB	00H
	DB	00H
	DB	00H
	DB	00H
	DB	00H
	DB	00H
	DB	00H
	DB	00H
	DB	00H
	DB	00H
	DB	00H
	DB	00H
	DB	00H
	DB	00H
	DB	00H
	DB	00H
	DB	00H
	DB	00H
	DB	00H
	DB	00H
	DB	00H
	DB	00H
	DB	00H
	DB	00H
	DB	00H
	DB	00H
	DB	00H
	DB	00H
	DB	00H
	DB	00H
	DB	00H
	DB	00H
	DB	00H
	DB	00H
	DB	00H
	DB	00H
	DB	00H
	DB	00H
	DB	00H
	DB	00H
	DB	00H
	DB	00H
	DB	00H
	DB	03H
	DB	00H
	DB	00H
	DB	00H
	DB	00H
	DB	00H
	DB	00H
	DB	030H
	DB	038H
	DB	04H
	DB	00H
	DB	00H
	DB	00H
	DB	00H
	DB	00H
	DB	00H
	DB	00H
	DB	03H
	DB	01aH
	DB	03H
	DB	00H
	DB	00H
	DB	00H
	DB	00H
	DB	03H
	DB	03H
	DB	03H
	DB	010H
	DB	00H
	DB	00H
	DB	00H
	DB	00H
	DB	03H
	DB	04H
	DB	03H
	DB	03H
	DB	03H
	DB	03H
	DB	00H
	DB	03H
	DB	00H
	DB	00H
	DB	03H
	DB	03H
	DB	00H
	DB	00H
	DB	00H
	DB	03H
	DB	00H
	DB	00H
	DB	03H
	DB	03H
	DB	00H
	DB	03H
	DB	0a5H
	DB	01aH
	DB	030H
	DB	00H
	DB	00H
	DB	03H
	DB	04H
	DB	00H
	DB	03H
	DB	030H
	DB	01aH
	DB	043H
	DB	06eH
	DB	047H
	DB	00H
	DB	00H
	DB	03H
	DB	030H
	DB	026H
	DB	05H
	DB	03H
	DB	00H
	DB	04H
	DB	06eH
	DB	038H
	DB	026H
	DB	05H
	DB	02dH
	DB	0aH
	DB	01H
	DB	03H
	DB	00H
	DB	03H
	DB	01aH
	DB	0aH
	DB	017H
	DB	08H
	DB	01aH
	DB	01aH
	DB	01aH
	DB	01aH
	DB	030H
	DB	030H
	DB	026H
	DB	026H
	DB	01aH
	DB	07H
	DB	043H
	DB	06bH
	DB	039H
	DB	04H
	DB	04H
	DB	05H
	DB	08H
	DB	04dH
	DB	0e4H
	DB	04cH
	DB	05H
	DB	06bH
	DB	039H
	DB	05H
	DB	026H
	DB	098H
	DB	00H
	DB	06eH
	DB	046H
	DB	05bH
	DB	044H
	DB	023H
	DB	04H
	DB	00H
	DB	00H
	DB	03H
	DB	039H
	DB	05H
	DB	043H
	DB	02aH
	DB	05H
	DB	026H
	DB	02dH
	DB	0b0H
	DB	050H
	DB	026H
	DB	01aH
	DB	05H
	DB	07H
	DB	01aH
	DB	038H
	DB	0aH
	DB	02aH
	DB	079H
	DB	021H
	DB	0aH
	DB	018H
	DB	01H
	DB	03H
	DB	08H
	DB	017H
	DB	0aH
	DB	0aH
	DB	016H
	DB	016H
	DB	049H
	DB	026H
	DB	026H
	DB	02dH
	DB	049H
	DB	05fH
	DB	017H
	DB	050H
	DB	0aH
	DB	018H
	DB	018H
	DB	06H
	DB	018H
	DB	02aH
	DB	026H
	DB	02dH
	DB	017H
	DB	018H
	DB	039H
	DB	07H
	DB	01aH
	DB	04H
	DB	010H
	DB	00H
	DB	07H
	DB	03aH
	DB	05eH
	DB	07fH
	DB	0fH
	DB	01bH
	DB	0efH
	DB	0f1H
	DB	05cH
	DB	01cH
	DB	01cH
	DB	01cH
	DB	01cH
	DB	01cH
	DB	01cH
	DB	01cH
	DB	024H
	DB	0f1H
	DB	0efH
	DB	01bH
	DB	082H
	DB	07fH
	DB	02cH
	DB	018H
	DB	05H
	DB	047H
	DB	04H
	DB	039H
	DB	05fH
	DB	07H
	DB	032H
	DB	049H
	DB	08H
	DB	0aH
	DB	02dH
	DB	02dH
	DB	08H
	DB	08H
	DB	08H
	DB	0aH
	DB	050H
	DB	06fH
	DB	017H
	DB	026H
	DB	05H
	DB	0aH
	DB	08H
	DB	0aH
	DB	0aH
	DB	0aH
	DB	068H
	DB	0aH
	DB	026H
	DB	018H
	DB	018H
	DB	018H
	DB	018H
	DB	0aH
	DB	0aH
	DB	06H
	DB	017H
	DB	06H
	DB	03aH
	DB	017H
	DB	06H
	DB	06H
	DB	06H
	DB	06H
	DB	02cH
	DB	026H
	DB	02H
	DB	0cH
	DB	01H
	DB	053H
	DB	02dH
	DB	0aH
	DB	06H
	DB	03aH
	DB	039H
	DB	026H
	DB	08H
	DB	08H
	DB	050H
	DB	068H
	DB	02dH
	DB	02dH
	DB	017H
	DB	017H
	DB	06fH
	DB	02cH
	DB	017H
	DB	018H
	DB	068H
	DB	053H
	DB	053H
	DB	06H
	DB	06H
	DB	01H
	DB	014H
	DB	017H
	DB	06fH
	DB	06H
	DB	03aH
	DB	02aH
	DB	0aH
	DB	03eH
	DB	03eH
	DB	018H
	DB	018H
	DB	06H
	DB	08H
	DB	028H
	DB	016H
	DB	03aH
	DB	016H
	DB	02cH
	DB	017H
	DB	016H
	DB	02cH
	DB	017H
	DB	017H
	DB	018H
	DB	018H
	DB	06H
	DB	02aH
	DB	03eH
	DB	03eH
	DB	04bH
	DB	0aH
	DB	06H
	DB	0aH
	DB	08H
	DB	039H
	DB	048H
	DB	026H
	DB	053H
	DB	01H
	DB	00H
	DB	00H
	DB	00H
	DB	00H
	DB	04bH
	DB	03eH
	DB	017H
	DB	017H
	DB	028H
	DB	021H
	DB	02H
	DB	0aH
	DB	08H
	DB	039H
	DB	014H
	DB	08H
	DB	06H
	DB	0aH
	DB	0aH
	DB	02dH
	DB	08H
	DB	08H
	DB	014H
	DB	06H
	DB	06H
	DB	04H
	DB	047H
	DB	05H
	DB	02H
	DB	08H
	DB	08H
	DB	06H
	DB	08H
	DB	014H
	DB	08H
	DB	02H
	DB	06H
	DB	06H
	DB	021H
	DB	07H
	DB	01H
	DB	00H
	DB	00H
	DB	01H
	DB	098H
	DB	014H
	DB	0aH
	DB	02H
	DB	02aH
	DB	06H
	DB	0aH
	DB	01aH
	DB	047H
	DB	098H
	DB	08H
	DB	0aH
	DB	010H
	DB	019H
	DB	014H
	DB	08H
	DB	0aH
	DB	05H
	DB	00H
	DB	04H
	DB	05H
	DB	02H
	DB	0bH
	DB	01H
	DB	07H
	DB	01H
	DB	07H
	DB	02H
	DB	01H
	DB	01H
	DB	07H
	DB	03H
	DB	00H
	DB	00H
	DB	00H
	DB	00H
	DB	00H
	DB	01H
	DB	021H
	DB	02H
	DB	06H
	DB	020H
	DB	04H
	DB	07H
	DB	03H
	DB	00H
	DB	019H
	DB	019H
	DB	03H
	DB	01H
	DB	02H
	DB	02H
	DB	01H
	DB	00H
	DB	00H
	DB	00H
	DB	00H
	DB	00H
	DB	00H
	DB	00H
	DB	00H
	DB	00H
	DB	00H
	DB	00H
	DB	00H
	DB	03H
	DB	00H
	DB	00H
	DB	00H
	DB	00H
	DB	00H
	DB	00H
	DB	00H
	DB	00H
	DB	00H
	DB	00H
	DB	00H
	DB	00H
	DB	00H
	DB	00H
	DB	00H
	DB	00H
	DB	00H
	DB	00H
	DB	00H
	DB	00H
	DB	00H
	DB	00H
	DB	00H
	DB	00H
	DB	00H
	DB	00H
	DB	00H
	DB	00H
	DB	00H
	DB	00H
	DB	00H
	DB	00H
	DB	00H
	DB	00H
	DB	00H
	DB	00H
	DB	00H
	DB	00H
	DB	00H
	DB	00H
	DB	00H
	DB	00H
	DB	00H
	DB	00H
	DB	00H
	DB	00H
	DB	00H
	DB	00H
	DB	00H
	DB	00H
	DB	03H
	DB	00H
	DB	00H
	DB	00H
	DB	03H
	DB	03H
	DB	00H
	DB	00H
	DB	03H
	DB	03H
	DB	03H
	DB	01aH
	DB	01aH
	DB	03H
	DB	00H
	DB	00H
	DB	00H
	DB	03H
	DB	03H
	DB	00H
	DB	03H
	DB	03H
	DB	00H
	DB	00H
	DB	00H
	DB	00H
	DB	00H
	DB	00H
	DB	03H
	DB	03H
	DB	00H
	DB	00H
	DB	00H
	DB	00H
	DB	00H
	DB	00H
	DB	00H
	DB	00H
	DB	00H
	DB	00H
	DB	03H
	DB	00H
	DB	00H
	DB	00H
	DB	03H
	DB	03H
	DB	03H
	DB	03H
	DB	030H
	DB	03H
	DB	030H
	DB	03H
	DB	00H
	DB	03H
	DB	03H
	DB	00H
	DB	00H
	DB	03H
	DB	030H
	DB	043H
	DB	03H
	DB	03H
	DB	03H
	DB	03H
	DB	00H
	DB	030H
	DB	06eH
	DB	026H
	DB	06H
	DB	0aH
	DB	07H
	DB	030H
	DB	07H
	DB	01aH
	DB	01aH
	DB	05H
	DB	019H
	DB	00H
	DB	03H
	DB	03H
	DB	05H
	DB	06H
	DB	05H
	DB	01H
	DB	05H
	DB	047H
	DB	010H
	DB	01aH
	DB	07H
	DB	04H
	DB	01aH
	DB	053H
	DB	018H
	DB	02dH
	DB	026H
	DB	07H
	DB	07H
	DB	01aH
	DB	026H
	DB	026H
	DB	0aH
	DB	05H
	DB	01aH
	DB	026H
	DB	0aH
	DB	026H
	DB	01aH
	DB	03H
	DB	00H
	DB	03H
	DB	08H
	DB	017H
	DB	031H
	DB	04aH
	DB	02aH
	DB	026H
	DB	026H
	DB	038H
	DB	039H
	DB	010H
	DB	00H
	DB	06bH
	DB	028H
	DB	019H
	DB	07H
	DB	02aH
	DB	0bH
	DB	00H
	DB	00H
	DB	03H
	DB	06bH
	DB	026H
	DB	05H
	DB	08H
	DB	0aH
	DB	08H
	DB	014H
	DB	017H
	DB	05fH
	DB	08H
	DB	026H
	DB	0aH
	DB	026H
	DB	038H
	DB	06fH
	DB	02cH
	DB	03aH
	DB	03aH
	DB	018H
	DB	08H
	DB	08H
	DB	0aH
	DB	020H
	DB	01H
	DB	018H
	DB	06fH
	DB	02aH
	DB	01fH
	DB	017H
	DB	06fH
	DB	066H
	DB	02dH
	DB	022H
	DB	06H
	DB	048H
	DB	08H
	DB	049H
	DB	049H
	DB	06H
	DB	014H
	DB	05H
	DB	08H
	DB	018H
	DB	0aH
	DB	02H
	DB	05H
	DB	047H
	DB	032H
	DB	05H
	DB	06H
	DB	012H
	DB	01bH
	DB	0acH
	DB	01cH
	DB	01eH
	DB	0adH
	DB	08cH
	DB	09H
	DB	09H
	DB	09H
	DB	075H
	DB	075H
	DB	09H
	DB	09H
	DB	09H
	DB	09H
	DB	09H
	DB	09H
	DB	07eH
	DB	07eH
	DB	0fcH
	DB	0fcH
	DB	0fcH
	DB	015H
	DB	07eH
	DB	029H
	DB	055H
	DB	067H
	DB	0acH
	DB	09dH
	DB	022H
	DB	014H
	DB	04H
	DB	00H
	DB	032H
	DB	018H
	DB	0aH
	DB	05H
	DB	039H
	DB	02dH
	DB	06H
	DB	014H
	DB	050H
	DB	02dH
	DB	03eH
	DB	017H
	DB	02dH
	DB	08H
	DB	08H
	DB	02aH
	DB	0aH
	DB	0aH
	DB	018H
	DB	028H
	DB	08H
	DB	02dH
	DB	02dH
	DB	02dH
	DB	018H
	DB	018H
	DB	018H
	DB	018H
	DB	06H
	DB	0a8H
	DB	04cH
	DB	031H
	DB	0bH
	DB	05H
	DB	018H
	DB	017H
	DB	018H
	DB	03eH
	DB	02cH
	DB	031H
	DB	00H
	DB	04H
	DB	017H
	DB	06H
	DB	0aH
	DB	018H
	DB	028H
	DB	02dH
	DB	066H
	DB	08H
	DB	0aH
	DB	06H
	DB	03aH
	DB	017H
	DB	06H
	DB	08H
	DB	017H
	DB	02cH
	DB	017H
	DB	02H
	DB	02H
	DB	018H
	DB	068H
	DB	0aH
	DB	0aH
	DB	02aH
	DB	01H
	DB	010H
	DB	016H
	DB	041H
	DB	018H
	DB	018H
	DB	03aH
	DB	018H
	DB	03eH
	DB	03eH
	DB	017H
	DB	016H
	DB	03aH
	DB	0aH
	DB	05H
	DB	08H
	DB	018H
	DB	03aH
	DB	016H
	DB	018H
	DB	017H
	DB	02cH
	DB	017H
	DB	049H
	DB	02dH
	DB	02aH
	DB	0a9H
	DB	050H
	DB	02dH
	DB	049H
	DB	08H
	DB	0aH
	DB	02aH
	DB	02aH
	DB	08H
	DB	048H
	DB	0aH
	DB	02dH
	DB	08H
	DB	00H
	DB	00H
	DB	00H
	DB	00H
	DB	03H
	DB	02dH
	DB	03eH
	DB	016H
	DB	028H
	DB	08H
	DB	02H
	DB	02aH
	DB	02aH
	DB	08H
	DB	039H
	DB	0aH
	DB	02aH
	DB	06H
	DB	06H
	DB	06H
	DB	06H
	DB	06H
	DB	08H
	DB	0aH
	DB	014H
	DB	08H
	DB	07H
	DB	04H
	DB	048H
	DB	018H
	DB	018H
	DB	02dH
	DB	08H
	DB	08H
	DB	08H
	DB	05H
	DB	01H
	DB	02H
	DB	02aH
	DB	023H
	DB	014H
	DB	02H
	DB	04H
	DB	01H
	DB	04H
	DB	047H
	DB	05H
	DB	02H
	DB	02H
	DB	08H
	DB	0aH
	DB	0aH
	DB	01H
	DB	04H
	DB	05H
	DB	0aH
	DB	04H
	DB	00H
	DB	010H
	DB	05H
	DB	0aH
	DB	0aH
	DB	02H
	DB	03H
	DB	07H
	DB	08H
	DB	014H
	DB	02H
	DB	07H
	DB	021H
	DB	07H
	DB	02H
	DB	01dH
	DB	010H
	DB	04H
	DB	04H
	DB	020H
	DB	03H
	DB	00H
	DB	00H
	DB	00H
	DB	00H
	DB	04H
	DB	02H
	DB	02H
	DB	021H
	DB	021H
	DB	021H
	DB	021H
	DB	07H
	DB	01H
	DB	01dH
	DB	019H
	DB	07H
	DB	02H
	DB	05H
	DB	010H
	DB	00H
	DB	00H
	DB	00H
	DB	00H
	DB	00H
	DB	00H
	DB	00H
	DB	00H
	DB	03H
	DB	00H
	DB	010H
	DB	00H
	DB	00H
	DB	03H
	DB	00H
	DB	00H
	DB	00H
	DB	00H
	DB	00H
	DB	00H
	DB	00H
	DB	00H
	DB	00H
	DB	00H
	DB	00H
	DB	00H
	DB	00H
	DB	00H
	DB	00H
	DB	00H
	DB	00H
	DB	00H
	DB	00H
	DB	00H
	DB	00H
	DB	00H
	DB	00H
	DB	00H
	DB	00H
	DB	00H
	DB	00H
	DB	00H
	DB	00H
	DB	00H
	DB	00H
	DB	00H
	DB	00H
	DB	00H
	DB	00H
	DB	00H
	DB	00H
	DB	00H
	DB	00H
	DB	00H
	DB	00H
	DB	00H
	DB	00H
	DB	00H
	DB	00H
	DB	00H
	DB	00H
	DB	00H
	DB	00H
	DB	00H
	DB	00H
	DB	00H
	DB	03H
	DB	03H
	DB	03H
	DB	00H
	DB	00H
	DB	00H
	DB	03H
	DB	03H
	DB	03H
	DB	00H
	DB	03H
	DB	03H
	DB	00H
	DB	03H
	DB	00H
	DB	03H
	DB	03H
	DB	00H
	DB	00H
	DB	03H
	DB	00H
	DB	00H
	DB	00H
	DB	00H
	DB	00H
	DB	00H
	DB	03H
	DB	03H
	DB	03H
	DB	00H
	DB	00H
	DB	00H
	DB	00H
	DB	00H
	DB	00H
	DB	00H
	DB	00H
	DB	00H
	DB	00H
	DB	00H
	DB	00H
	DB	00H
	DB	030H
	DB	01H
	DB	03H
	DB	00H
	DB	01aH
	DB	07H
	DB	01aH
	DB	01aH
	DB	03H
	DB	03H
	DB	03H
	DB	030H
	DB	01aH
	DB	030H
	DB	01aH
	DB	01aH
	DB	04H
	DB	01aH
	DB	038H
	DB	02H
	DB	07H
	DB	020H
	DB	043H
	DB	026H
	DB	0aH
	DB	05H
	DB	07H
	DB	038H
	DB	05H
	DB	047H
	DB	07H
	DB	0bH
	DB	00H
	DB	00H
	DB	03H
	DB	07H
	DB	04H
	DB	07H
	DB	07H
	DB	04H
	DB	03H
	DB	00H
	DB	00H
	DB	04H
	DB	048H
	DB	05H
	DB	026H
	DB	026H
	DB	0aH
	DB	026H
	DB	07H
	DB	00H
	DB	043H
	DB	050H
	DB	0b0H
	DB	018H
	DB	08H
	DB	03H
	DB	04H
	DB	08H
	DB	08fH
	DB	010H
	DB	00H
	DB	03H
	DB	00H
	DB	00H
	DB	00H
	DB	026H
	DB	039H
	DB	02H
	DB	0aH
	DB	050H
	DB	0aH
	DB	039H
	DB	048H
	DB	00H
	DB	00H
	DB	03H
	DB	026H
	DB	04H
	DB	047H
	DB	01fH
	DB	0aeH
	DB	00H
	DB	00H
	DB	04H
	DB	06bH
	DB	05H
	DB	050H
	DB	06H
	DB	039H
	DB	026H
	DB	02H
	DB	03fH
	DB	01dH
	DB	07H
	DB	02dH
	DB	017H
	DB	018H
	DB	02dH
	DB	018H
	DB	016H
	DB	06fH
	DB	06fH
	DB	03eH
	DB	02dH
	DB	0aH
	DB	048H
	DB	07H
	DB	03H
	DB	0aH
	DB	05eH
	DB	031H
	DB	01H
	DB	039H
	DB	05fH
	DB	04bH
	DB	0aH
	DB	03aH
	DB	0bH
	DB	04H
	DB	0aH
	DB	02dH
	DB	049H
	DB	02H
	DB	043H
	DB	018H
	DB	017H
	DB	05H
	DB	04H
	DB	010H
	DB	02aH
	DB	012H
	DB	01bH
	DB	024H
	DB	01eH
	DB	0adH
	DB	011H
	DB	011H
	DB	011H
	DB	0adH
	DB	055H
	DB	01eH
	DB	0f9H
	DB	01cH
	DB	092H
	DB	05cH
	DB	024H
	DB	0acH
	DB	0acH
	DB	0acH
	DB	0acH
	DB	0acH
	DB	024H
	DB	024H
	DB	092H
	DB	01cH
	DB	0f9H
	DB	01eH
	DB	0adH
	DB	011H
	DB	09H
	DB	07eH
	DB	015H
	DB	015H
	DB	015H
	DB	0fcH
	DB	0adH
	DB	024H
	DB	083H
	DB	022H
	DB	05H
	DB	01H
	DB	07H
	DB	039H
	DB	049H
	DB	07H
	DB	05H
	DB	049H
	DB	017H
	DB	049H
	DB	06H
	DB	08H
	DB	018H
	DB	018H
	DB	068H
	DB	08H
	DB	08H
	DB	018H
	DB	06H
	DB	02dH
	DB	018H
	DB	018H
	DB	08H
	DB	018H
	DB	018H
	DB	017H
	DB	018H
	DB	08H
	DB	014H
	DB	01fH
	DB	06H
	DB	021H
	DB	05H
	DB	06H
	DB	018H
	DB	050H
	DB	050H
	DB	02eH
	DB	06H
	DB	07H
	DB	016H
	DB	017H
	DB	02H
	DB	03aH
	DB	016H
	DB	08H
	DB	02dH
	DB	02dH
	DB	02dH
	DB	06H
	DB	02aH
	DB	018H
	DB	018H
	DB	018H
	DB	0aH
	DB	017H
	DB	02eH
	DB	016H
	DB	0aH
	DB	02H
	DB	017H
	DB	02cH
	DB	038H
	DB	07H
	DB	068H
	DB	038H
	DB	00H
	DB	08fH
	DB	052H
	DB	016H
	DB	017H
	DB	05eH
	DB	017H
	DB	049H
	DB	02cH
	DB	016H
	DB	06H
	DB	04aH
	DB	05eH
	DB	02H
	DB	05H
	DB	018H
	DB	02cH
	DB	017H
	DB	018H
	DB	017H
	DB	017H
	DB	028H
	DB	049H
	DB	014H
	DB	01fH
	DB	03aH
	DB	018H
	DB	02dH
	DB	0aH
	DB	0aH
	DB	04bH
	DB	016H
	DB	035H
	DB	018H
	DB	050H
	DB	018H
	DB	028H
	DB	06cH
	DB	00H
	DB	00H
	DB	00H
	DB	03H
	DB	039H
	DB	060H
	DB	02cH
	DB	018H
	DB	0aH
	DB	05H
	DB	039H
	DB	06H
	DB	02aH
	DB	021H
	DB	02H
	DB	08H
	DB	06H
	DB	018H
	DB	018H
	DB	02aH
	DB	08H
	DB	0aH
	DB	0aH
	DB	014H
	DB	08H
	DB	06H
	DB	0aH
	DB	010H
	DB	08H
	DB	017H
	DB	018H
	DB	08H
	DB	08H
	DB	06H
	DB	06H
	DB	05H
	DB	01H
	DB	02H
	DB	02aH
	DB	02aH
	DB	08H
	DB	06H
	DB	05H
	DB	07H
	DB	02H
	DB	02H
	DB	01H
	DB	01H
	DB	05H
	DB	08H
	DB	08H
	DB	0aH
	DB	01H
	DB	01H
	DB	02H
	DB	05H
	DB	03H
	DB	03H
	DB	04H
	DB	02H
	DB	02aH
	DB	0aH
	DB	02H
	DB	05H
	DB	0aH
	DB	0aH
	DB	05H
	DB	02H
	DB	053H
	DB	053H
	DB	021H
	DB	02H
	DB	019H
	DB	01dH
	DB	019H
	DB	01H
	DB	07H
	DB	04H
	DB	00H
	DB	03H
	DB	03H
	DB	03H
	DB	04H
	DB	0bH
	DB	01H
	DB	047H
	DB	05H
	DB	0bH
	DB	0bH
	DB	01H
	DB	010H
	DB	00H
	DB	010H
	DB	04H
	DB	020H
	DB	020H
	DB	00H
	DB	010H
	DB	00H
	DB	00H
	DB	00H
	DB	00H
	DB	00H
	DB	00H
	DB	010H
	DB	03H
	DB	010H
	DB	00H
	DB	00H
	DB	00H
	DB	00H
	DB	04H
	DB	00H
	DB	00H
	DB	00H
	DB	00H
	DB	00H
	DB	00H
	DB	00H
	DB	00H
	DB	00H
	DB	00H
	DB	00H
	DB	00H
	DB	00H
	DB	00H
	DB	00H
	DB	00H
	DB	00H
	DB	00H
	DB	00H
	DB	00H
	DB	00H
	DB	00H
	DB	00H
	DB	00H
	DB	00H
	DB	00H
	DB	00H
	DB	00H
	DB	00H
	DB	00H
	DB	00H
	DB	00H
	DB	00H
	DB	00H
	DB	00H
	DB	00H
	DB	00H
	DB	00H
	DB	00H
	DB	00H
	DB	00H
	DB	00H
	DB	03H
	DB	00H
	DB	00H
	DB	00H
	DB	00H
	DB	00H
	DB	00H
	DB	00H
	DB	00H
	DB	03H
	DB	03H
	DB	00H
	DB	00H
	DB	00H
	DB	00H
	DB	00H
	DB	00H
	DB	00H
	DB	00H
	DB	00H
	DB	03H
	DB	00H
	DB	00H
	DB	00H
	DB	00H
	DB	00H
	DB	03H
	DB	03H
	DB	03H
	DB	03H
	DB	00H
	DB	03H
	DB	03H
	DB	00H
	DB	00H
	DB	03H
	DB	00H
	DB	03H
	DB	03H
	DB	00H
	DB	00H
	DB	00H
	DB	00H
	DB	03H
	DB	03H
	DB	03H
	DB	00H
	DB	00H
	DB	00H
	DB	00H
	DB	03H
	DB	03H
	DB	020H
	DB	00H
	DB	00H
	DB	03H
	DB	01aH
	DB	01aH
	DB	047H
	DB	01aH
	DB	030H
	DB	030H
	DB	030H
	DB	07H
	DB	07H
	DB	05H
	DB	01aH
	DB	03H
	DB	07H
	DB	053H
	DB	02H
	DB	01H
	DB	03H
	DB	043H
	DB	026H
	DB	026H
	DB	04H
	DB	01aH
	DB	032H
	DB	047H
	DB	04H
	DB	01aH
	DB	07H
	DB	00H
	DB	00H
	DB	03H
	DB	038H
	DB	03H
	DB	03H
	DB	038H
	DB	038H
	DB	043H
	DB	020H
	DB	03H
	DB	01aH
	DB	026H
	DB	0aH
	DB	08H
	DB	039H
	DB	026H
	DB	07H
	DB	01aH
	DB	038H
	DB	026H
	DB	02dH
	DB	049H
	DB	066H
	DB	08H
	DB	04H
	DB	04H
	DB	048H
	DB	0bH
	DB	00H
	DB	03H
	DB	03H
	DB	00H
	DB	00H
	DB	00H
	DB	07H
	DB	039H
	DB	01aH
	DB	026H
	DB	0aH
	DB	0aH
	DB	08H
	DB	05H
	DB	00H
	DB	03H
	DB	09fH
	DB	026H
	DB	01aH
	DB	010H
	DB	010H
	DB	00H
	DB	00H
	DB	00H
	DB	0aeH
	DB	010H
	DB	06bH
	DB	02dH
	DB	026H
	DB	01aH
	DB	066H
	DB	0b0H
	DB	01H
	DB	00H
	DB	021H
	DB	017H
	DB	06H
	DB	08H
	DB	02aH
	DB	06H
	DB	06H
	DB	06H
	DB	028H
	DB	02dH
	DB	018H
	DB	06H
	DB	048H
	DB	032H
	DB	047H
	DB	02H
	DB	02fH
	DB	031H
	DB	021H
	DB	026H
	DB	039H
	DB	05H
	DB	068H
	DB	041H
	DB	050H
	DB	038H
	DB	026H
	DB	018H
	DB	06H
	DB	053H
	DB	068H
	DB	01fH
	DB	02H
	DB	016H
	DB	07dH
	DB	0acH
	DB	067H
	DB	01eH
	DB	0adH
	DB	01eH
	DB	08eH
	DB	067H
	DB	092H
	DB	0acH
	DB	027H
	DB	01bH
	DB	0fH
	DB	012H
	DB	022H
	DB	016H
	DB	06H
	DB	014H
	DB	02H
	DB	021H
	DB	01H
	DB	01H
	DB	01H
	DB	01H
	DB	0bH
	DB	02H
	DB	014H
	DB	06H
	DB	016H
	DB	022H
	DB	012H
	DB	0fH
	DB	01bH
	DB	027H
	DB	05cH
	DB	0faH
	DB	0adH
	DB	08cH
	DB	07eH
	DB	015H
	DB	015H
	DB	09H
	DB	0adH
	DB	024H
	DB	0fH
	DB	018H
	DB	04H
	DB	03H
	DB	02dH
	DB	02dH
	DB	039H
	DB	039H
	DB	021H
	DB	02H
	DB	08H
	DB	018H
	DB	018H
	DB	08H
	DB	039H
	DB	06H
	DB	017H
	DB	02dH
	DB	066H
	DB	0aH
	DB	06H
	DB	018H
	DB	018H
	DB	02dH
	DB	049H
	DB	018H
	DB	021H
	DB	01aH
	DB	018H
	DB	03aH
	DB	06H
	DB	08H
	DB	014H
	DB	08H
	DB	02dH
	DB	08H
	DB	03H
	DB	028H
	DB	06dH
	DB	02H
	DB	021H
	DB	06H
	DB	022H
	DB	02cH
	DB	06H
	DB	02H
	DB	017H
	DB	03eH
	DB	018H
	DB	03aH
	DB	03aH
	DB	016H
	DB	028H
	DB	017H
	DB	035H
	DB	02cH
	DB	08H
	DB	039H
	DB	03eH
	DB	02cH
	DB	018H
	DB	08H
	DB	02eH
	DB	03aH
	DB	03H
	DB	00H
	DB	0bH
	DB	028H
	DB	02cH
	DB	02cH
	DB	017H
	DB	017H
	DB	016H
	DB	06H
	DB	014H
	DB	03dH
	DB	022H
	DB	018H
	DB	0aH
	DB	018H
	DB	017H
	DB	018H
	DB	018H
	DB	017H
	DB	017H
	DB	018H
	DB	08H
	DB	021H
	DB	05dH
	DB	06dH
	DB	06H
	DB	06H
	DB	02dH
	DB	02dH
	DB	017H
	DB	028H
	DB	028H
	DB	028H
	DB	018H
	DB	04bH
	DB	06cH
	DB	00H
	DB	00H
	DB	00H
	DB	03H
	DB	038H
	DB	049H
	DB	017H
	DB	017H
	DB	018H
	DB	02aH
	DB	0aH
	DB	06H
	DB	018H
	DB	053H
	DB	07H
	DB	08H
	DB	02dH
	DB	02dH
	DB	018H
	DB	018H
	DB	018H
	DB	02aH
	DB	0aH
	DB	0aH
	DB	08H
	DB	026H
	DB	08H
	DB	06H
	DB	07H
	DB	08H
	DB	06H
	DB	06H
	DB	06H
	DB	08H
	DB	06H
	DB	06H
	DB	023H
	DB	07H
	DB	02H
	DB	06H
	DB	06H
	DB	05H
	DB	08H
	DB	02H
	DB	01H
	DB	05H
	DB	0bH
	DB	03H
	DB	03H
	DB	01aH
	DB	026H
	DB	02H
	DB	06H
	DB	08H
	DB	0aH
	DB	014H
	DB	05H
	DB	07H
	DB	021H
	DB	02H
	DB	06H
	DB	02aH
	DB	02H
	DB	02H
	DB	0aH
	DB	02H
	DB	07H
	DB	047H
	DB	048H
	DB	02H
	DB	02H
	DB	0aH
	DB	020H
	DB	01H
	DB	021H
	DB	04H
	DB	01H
	DB	07H
	DB	04H
	DB	03H
	DB	04H
	DB	010H
	DB	00H
	DB	04H
	DB	04H
	DB	03H
	DB	04H
	DB	010H
	DB	010H
	DB	010H
	DB	00H
	DB	00H
	DB	00H
	DB	010H
	DB	03H
	DB	00H
	DB	00H
	DB	00H
	DB	00H
	DB	00H
	DB	03H
	DB	03H
	DB	00H
	DB	00H
	DB	00H
	DB	03H
	DB	03H
	DB	00H
	DB	00H
	DB	00H
	DB	00H
	DB	00H
	DB	010H
	DB	00H
	DB	00H
	DB	00H
	DB	00H
	DB	00H
	DB	00H
	DB	00H
	DB	00H
	DB	00H
	DB	00H
	DB	00H
	DB	00H
	DB	00H
	DB	00H
	DB	00H
	DB	00H
	DB	00H
	DB	00H
	DB	00H
	DB	00H
	DB	00H
	DB	00H
	DB	00H
	DB	00H
	DB	00H
	DB	00H
	DB	00H
	DB	00H
	DB	00H
	DB	00H
	DB	00H
	DB	00H
	DB	00H
	DB	00H
	DB	00H
	DB	00H
	DB	00H
	DB	00H
	DB	00H
	DB	00H
	DB	00H
	DB	00H
	DB	00H
	DB	03H
	DB	030H
	DB	00H
	DB	00H
	DB	00H
	DB	00H
	DB	00H
	DB	00H
	DB	00H
	DB	00H
	DB	00H
	DB	00H
	DB	00H
	DB	00H
	DB	00H
	DB	00H
	DB	00H
	DB	00H
	DB	00H
	DB	00H
	DB	03H
	DB	00H
	DB	00H
	DB	00H
	DB	00H
	DB	00H
	DB	00H
	DB	03H
	DB	00H
	DB	00H
	DB	03H
	DB	00H
	DB	00H
	DB	00H
	DB	00H
	DB	00H
	DB	03H
	DB	02H
	DB	019H
	DB	00H
	DB	00H
	DB	03H
	DB	038H
	DB	07H
	DB	03H
	DB	00H
	DB	00H
	DB	03H
	DB	03H
	DB	03H
	DB	03H
	DB	020H
	DB	00H
	DB	00H
	DB	03H
	DB	030H
	DB	03H
	DB	00H
	DB	00H
	DB	01aH
	DB	05H
	DB	03H
	DB	030H
	DB	06eH
	DB	06bH
	DB	032H
	DB	01aH
	DB	07H
	DB	021H
	DB	020H
	DB	020H
	DB	020H
	DB	020H
	DB	021H
	DB	038H
	DB	01aH
	DB	04H
	DB	00H
	DB	00H
	DB	03H
	DB	030H
	DB	01aH
	DB	03H
	DB	00H
	DB	00H
	DB	030H
	DB	043H
	DB	043H
	DB	0aH
	DB	02dH
	DB	02H
	DB	01H
	DB	05H
	DB	026H
	DB	026H
	DB	05H
	DB	038H
	DB	08H
	DB	08H
	DB	026H
	DB	06bH
	DB	026H
	DB	02dH
	DB	014H
	DB	0bH
	DB	05H
	DB	039H
	DB	05H
	DB	01aH
	DB	04H
	DB	07H
	DB	01aH
	DB	07H
	DB	021H
	DB	04H
	DB	03H
	DB	01H
	DB	05H
	DB	07H
	DB	047H
	DB	032H
	DB	030H
	DB	038H
	DB	018H
	DB	05H
	DB	00H
	DB	0c4H
	DB	03eH
	DB	06H
	DB	01H
	DB	03H
	DB	03H
	DB	03H
	DB	00H
	DB	00H
	DB	00H
	DB	00H
	DB	066H
	DB	0c6H
	DB	0d9H
	DB	026H
	DB	018H
	DB	03eH
	DB	02dH
	DB	038H
	DB	08H
	DB	06H
	DB	021H
	DB	02dH
	DB	0b0H
	DB	050H
	DB	026H
	DB	05H
	DB	05H
	DB	032H
	DB	049H
	DB	017H
	DB	0aH
	DB	047H
	DB	01H
	DB	04H
	DB	05H
	DB	03aH
	DB	068H
	DB	039H
	DB	026H
	DB	07H
	DB	041H
	DB	07cH
	DB	012H
	DB	08H
	DB	0aH
	DB	03aH
	DB	02H
	DB	021H
	DB	016H
	DB	07dH
	DB	0f0H
	DB	067H
	DB	01eH
	DB	01eH
	DB	08eH
	DB	01cH
	DB	024H
	DB	027H
	DB	07dH
	DB	012H
	DB	016H
	DB	02H
	DB	020H
	DB	00H
	DB	00H
	DB	00H
	DB	00H
	DB	00H
	DB	00H
	DB	00H
	DB	00H
	DB	00H
	DB	00H
	DB	00H
	DB	00H
	DB	00H
	DB	00H
	DB	00H
	DB	00H
	DB	00H
	DB	00H
	DB	00H
	DB	00H
	DB	00H
	DB	00H
	DB	010H
	DB	021H
	DB	03aH
	DB	012H
	DB	083H
	DB	088H
	DB	01cH
	DB	0adH
	DB	075H
	DB	07eH
	DB	015H
	DB	015H
	DB	011H
	DB	05cH
	DB	082H
	DB	08H
	DB	04H
	DB	02dH
	DB	02eH
	DB	0aH
	DB	0aH
	DB	039H
	DB	08H
	DB	0aH
	DB	05H
	DB	026H
	DB	0aH
	DB	06H
	DB	017H
	DB	0aH
	DB	03H
	DB	05H
	DB	017H
	DB	018H
	DB	02dH
	DB	06fH
	DB	03aH
	DB	0aH
	DB	01aH
	DB	049H
	DB	02cH
	DB	0aH
	DB	02H
	DB	0aH
	DB	039H
	DB	049H
	DB	018H
	DB	02H
	DB	028H
	DB	0bH
	DB	021H
	DB	079H
	DB	02aH
	DB	02eH
	DB	035H
	DB	031H
	DB	023H
	DB	018H
	DB	017H
	DB	018H
	DB	018H
	DB	018H
	DB	06H
	DB	08H
	DB	08H
	DB	08H
	DB	08H
	DB	05H
	DB	026H
	DB	06fH
	DB	017H
	DB	039H
	DB	048H
	DB	02eH
	DB	022H
	DB	021H
	DB	00H
	DB	00H
	DB	048H
	DB	05fH
	DB	035H
	DB	02cH
	DB	017H
	DB	06H
	DB	02aH
	DB	03aH
	DB	02cH
	DB	02cH
	DB	060H
	DB	02cH
	DB	018H
	DB	08H
	DB	08H
	DB	06H
	DB	018H
	DB	03eH
	DB	017H
	DB	018H
	DB	02H
	DB	02H
	DB	0bH
	DB	05H
	DB	05H
	DB	08H
	DB	049H
	DB	0aH
	DB	02H
	DB	05H
	DB	08H
	DB	014H
	DB	010H
	DB	00H
	DB	00H
	DB	00H
	DB	07H
	DB	02dH
	DB	039H
	DB	039H
	DB	02dH
	DB	017H
	DB	016H
	DB	06H
	DB	06H
	DB	017H
	DB	018H
	DB	02H
	DB	08H
	DB	017H
	DB	018H
	DB	08H
	DB	08H
	DB	018H
	DB	018H
	DB	06H
	DB	018H
	DB	018H
	DB	0aH
	DB	026H
	DB	06H
	DB	06H
	DB	02H
	DB	028H
	DB	028H
	DB	08H
	DB	02aH
	DB	06H
	DB	018H
	DB	06H
	DB	02aH
	DB	07H
	DB	048H
	DB	028H
	DB	06H
	DB	0aH
	DB	0aH
	DB	04H
	DB	00H
	DB	01H
	DB	01H
	DB	00H
	DB	03H
	DB	06eH
	DB	032H
	DB	0bH
	DB	08H
	DB	018H
	DB	06H
	DB	0aH
	DB	05H
	DB	02H
	DB	0aH
	DB	021H
	DB	021H
	DB	02H
	DB	0aH
	DB	0aH
	DB	014H
	DB	02H
	DB	01dH
	DB	07H
	DB	02H
	DB	0aH
	DB	02aH
	DB	023H
	DB	07H
	DB	0aH
	DB	0aH
	DB	07H
	DB	05H
	DB	05H
	DB	01aH
	DB	04H
	DB	04H
	DB	03H
	DB	010H
	DB	07H
	DB	01H
	DB	04H
	DB	07H
	DB	01H
	DB	04H
	DB	04H
	DB	020H
	DB	00H
	DB	00H
	DB	04H
	DB	03H
	DB	00H
	DB	03H
	DB	03H
	DB	00H
	DB	00H
	DB	0bH
	DB	01H
	DB	020H
	DB	00H
	DB	00H
	DB	03H
	DB	03H
	DB	00H
	DB	00H
	DB	00H
	DB	00H
	DB	00H
	DB	00H
	DB	00H
	DB	00H
	DB	00H
	DB	00H
	DB	00H
	DB	00H
	DB	00H
	DB	00H
	DB	00H
	DB	00H
	DB	00H
	DB	00H
	DB	00H
	DB	00H
	DB	00H
	DB	00H
	DB	00H
	DB	00H
	DB	00H
	DB	00H
	DB	00H
	DB	00H
	DB	00H
	DB	00H
	DB	00H
	DB	00H
	DB	00H
	DB	00H
	DB	00H
	DB	00H
	DB	00H
	DB	00H
	DB	00H
	DB	00H
	DB	00H
	DB	03H
	DB	03H
	DB	00H
	DB	00H
	DB	00H
	DB	010H
	DB	00H
	DB	00H
	DB	03H
	DB	043H
	DB	03H
	DB	00H
	DB	00H
	DB	00H
	DB	00H
	DB	00H
	DB	03H
	DB	00H
	DB	00H
	DB	00H
	DB	03H
	DB	03H
	DB	00H
	DB	00H
	DB	00H
	DB	00H
	DB	00H
	DB	00H
	DB	03H
	DB	00H
	DB	00H
	DB	00H
	DB	00H
	DB	03H
	DB	00H
	DB	00H
	DB	00H
	DB	03H
	DB	03H
	DB	00H
	DB	03H
	DB	01H
	DB	04H
	DB	00H
	DB	00H
	DB	03fH
	DB	025H
	DB	00H
	DB	00H
	DB	00H
	DB	03H
	DB	01aH
	DB	03H
	DB	00H
	DB	00H
	DB	00H
	DB	00H
	DB	03H
	DB	01H
	DB	01dH
	DB	010H
	DB	00H
	DB	03H
	DB	00H
	DB	00H
	DB	00H
	DB	00H
	DB	04H
	DB	01aH
	DB	03H
	DB	01aH
	DB	02H
	DB	05H
	DB	06bH
	DB	06bH
	DB	07H
	DB	04H
	DB	03H
	DB	020H
	DB	03H
	DB	03H
	DB	020H
	DB	021H
	DB	026H
	DB	01aH
	DB	03H
	DB	030H
	DB	04H
	DB	04H
	DB	03H
	DB	04H
	DB	043H
	DB	043H
	DB	05H
	DB	05H
	DB	021H
	DB	0aH
	DB	08H
	DB	05H
	DB	043H
	DB	026H
	DB	08H
	DB	05H
	DB	00H
	DB	030H
	DB	026H
	DB	02dH
	DB	02dH
	DB	05H
	DB	038H
	DB	02dH
	DB	05H
	DB	00H
	DB	010H
	DB	032H
	DB	02dH
	DB	068H
	DB	07H
	DB	026H
	DB	0bH
	DB	010H
	DB	03H
	DB	053H
	DB	017H
	DB	08fH
	DB	010H
	DB	04H
	DB	04H
	DB	04H
	DB	01aH
	DB	026H
	DB	05H
	DB	010H
	DB	00H
	DB	07H
	DB	04bH
	DB	014H
	DB	04H
	DB	07H
	DB	06fH
	DB	05eH
	DB	06H
	DB	03H
	DB	03H
	DB	038H
	DB	06fH
	DB	04bH
	DB	039H
	DB	08H
	DB	018H
	DB	02dH
	DB	018H
	DB	017H
	DB	04bH
	DB	048H
	DB	05H
	DB	094H
	DB	090H
	DB	090H
	DB	090H
	DB	0b0H
	DB	026H
	DB	032H
	DB	039H
	DB	0ddH
	DB	08fH
	DB	05H
	DB	020H
	DB	00H
	DB	04H
	DB	02cH
	DB	03aH
	DB	02dH
	DB	06H
	DB	0aH
	DB	02dH
	DB	046H
	DB	035H
	DB	019H
	DB	00H
	DB	05H
	DB	07fH
	DB	0eeH
	DB	092H
	DB	0f9H
	DB	0faH
	DB	01cH
	DB	024H
	DB	027H
	DB	07cH
	DB	012H
	DB	018H
	DB	01H
	DB	00H
	DB	00H
	DB	00H
	DB	00H
	DB	00H
	DB	00H
	DB	00H
	DB	00H
	DB	00H
	DB	00H
	DB	00H
	DB	00H
	DB	00H
	DB	00H
	DB	00H
	DB	00H
	DB	00H
	DB	00H
	DB	00H
	DB	00H
	DB	00H
	DB	00H
	DB	00H
	DB	00H
	DB	00H
	DB	00H
	DB	00H
	DB	00H
	DB	00H
	DB	00H
	DB	00H
	DB	00H
	DB	01H
	DB	06H
	DB	012H
	DB	01bH
	DB	024H
	DB	08eH
	DB	011H
	DB	07eH
	DB	015H
	DB	015H
	DB	055H
	DB	09eH
	DB	022H
	DB	08H
	DB	06H
	DB	018H
	DB	02dH
	DB	05H
	DB	053H
	DB	068H
	DB	02dH
	DB	07H
	DB	02H
	DB	017H
	DB	068H
	DB	07H
	DB	0aH
	DB	02cH
	DB	016H
	DB	018H
	DB	018H
	DB	016H
	DB	06H
	DB	05H
	DB	06H
	DB	017H
	DB	018H
	DB	02dH
	DB	02dH
	DB	02dH
	DB	017H
	DB	018H
	DB	06H
	DB	0aH
	DB	03H
	DB	0aH
	DB	07fH
	DB	022H
	DB	016H
	DB	06H
	DB	02fH
	DB	018H
	DB	018H
	DB	02cH
	DB	03aH
	DB	068H
	DB	02dH
	DB	017H
	DB	06H
	DB	08H
	DB	02dH
	DB	068H
	DB	018H
	DB	017H
	DB	02cH
	DB	02dH
	DB	01aH
	DB	032H
	DB	03eH
	DB	02cH
	DB	02cH
	DB	053H
	DB	00H
	DB	00H
	DB	098H
	DB	05dH
	DB	016H
	DB	018H
	DB	02dH
	DB	018H
	DB	017H
	DB	017H
	DB	017H
	DB	016H
	DB	02cH
	DB	017H
	DB	0aH
	DB	0aH
	DB	02aH
	DB	08H
	DB	03eH
	DB	02cH
	DB	017H
	DB	06H
	DB	0aH
	DB	07H
	DB	02H
	DB	01H
	DB	05H
	DB	08H
	DB	0aH
	DB	08H
	DB	0bH
	DB	01H
	DB	07H
	DB	03H
	DB	00H
	DB	00H
	DB	026H
	DB	050H
	DB	05H
	DB	014H
	DB	017H
	DB	03eH
	DB	014H
	DB	06H
	DB	08H
	DB	08H
	DB	018H
	DB	06H
	DB	0aH
	DB	08H
	DB	028H
	DB	08H
	DB	05H
	DB	08H
	DB	018H
	DB	02dH
	DB	08H
	DB	018H
	DB	018H
	DB	018H
	DB	0aH
	DB	014H
	DB	01dH
	DB	0bH
	DB	0a8H
	DB	028H
	DB	0bH
	DB	0bH
	DB	08H
	DB	018H
	DB	0aH
	DB	06H
	DB	0aH
	DB	026H
	DB	08H
	DB	08H
	DB	06H
	DB	021H
	DB	03H
	DB	010H
	DB	021H
	DB	07H
	DB	01aH
	DB	07H
	DB	032H
	DB	01aH
	DB	04H
	DB	047H
	DB	014H
	DB	06H
	DB	023H
	DB	02H
	DB	02H
	DB	0aH
	DB	0aH
	DB	05H
	DB	02H
	DB	08H
	DB	02H
	DB	02H
	DB	02H
	DB	021H
	DB	021H
	DB	02H
	DB	0aH
	DB	06H
	DB	021H
	DB	07H
	DB	06H
	DB	02aH
	DB	05H
	DB	01H
	DB	0bH
	DB	04H
	DB	04H
	DB	021H
	DB	07H
	DB	01H
	DB	07H
	DB	07H
	DB	0bH
	DB	0cH
	DB	0c9H
	DB	04cH
	DB	053H
	DB	01H
	DB	010H
	DB	010H
	DB	01H
	DB	01H
	DB	020H
	DB	04H
	DB	010H
	DB	010H
	DB	019H
	DB	019H
	DB	010H
	DB	025H
	DB	03H
	DB	03H
	DB	03H
	DB	03H
	DB	00H
	DB	00H
	DB	00H
	DB	00H
	DB	00H
	DB	00H
	DB	00H
	DB	00H
	DB	00H
	DB	00H
	DB	00H
	DB	00H
	DB	00H
	DB	00H
	DB	00H
	DB	00H
	DB	00H
	DB	019H
	DB	00H
	DB	00H
	DB	00H
	DB	00H
	DB	00H
	DB	00H
	DB	00H
	DB	00H
	DB	00H
	DB	00H
	DB	00H
	DB	00H
	DB	00H
	DB	00H
	DB	00H
	DB	00H
	DB	00H
	DB	00H
	DB	00H
	DB	00H
	DB	00H
	DB	00H
	DB	00H
	DB	00H
	DB	03H
	DB	00H
	DB	00H
	DB	00H
	DB	00H
	DB	00H
	DB	00H
	DB	00H
	DB	03H
	DB	03H
	DB	03H
	DB	00H
	DB	00H
	DB	00H
	DB	00H
	DB	030H
	DB	03H
	DB	03H
	DB	03H
	DB	03H
	DB	020H
	DB	03H
	DB	00H
	DB	00H
	DB	00H
	DB	00H
	DB	00H
	DB	00H
	DB	03H
	DB	00H
	DB	00H
	DB	043H
	DB	068H
	DB	0bH
	DB	00H
	DB	03H
	DB	01aH
	DB	01H
	DB	03H
	DB	030H
	DB	01H
	DB	010H
	DB	00H
	DB	00H
	DB	00H
	DB	00H
	DB	00H
	DB	00H
	DB	00H
	DB	00H
	DB	03H
	DB	00H
	DB	00H
	DB	03H
	DB	03H
	DB	00H
	DB	03H
	DB	03H
	DB	00H
	DB	010H
	DB	03H
	DB	03H
	DB	00H
	DB	00H
	DB	03H
	DB	03H
	DB	030H
	DB	03H
	DB	030H
	DB	07H
	DB	01H
	DB	043H
	DB	038H
	DB	05H
	DB	01H
	DB	03H
	DB	030H
	DB	01H
	DB	07H
	DB	043H
	DB	03H
	DB	01H
	DB	05H
	DB	07H
	DB	01H
	DB	07H
	DB	07H
	DB	04H
	DB	03H
	DB	01aH
	DB	038H
	DB	0aH
	DB	026H
	DB	05H
	DB	05H
	DB	048H
	DB	04H
	DB	03H
	DB	026H
	DB	050H
	DB	08H
	DB	02H
	DB	043H
	DB	01aH
	DB	032H
	DB	0aH
	DB	02H
	DB	032H
	DB	050H
	DB	018H
	DB	039H
	DB	03H
	DB	00H
	DB	01aH
	DB	02dH
	DB	08H
	DB	05H
	DB	0bH
	DB	01H
	DB	03H
	DB	030H
	DB	05H
	DB	048H
	DB	010H
	DB	00H
	DB	030H
	DB	03H
	DB	01aH
	DB	06bH
	DB	0d9H
	DB	04H
	DB	00H
	DB	00H
	DB	00H
	DB	010H
	DB	00H
	DB	00H
	DB	038H
	DB	04dH
	DB	084H
	DB	0cH
	DB	010H
	DB	030H
	DB	0e3H
	DB	02cH
	DB	014H
	DB	08H
	DB	0aH
	DB	06fH
	DB	05eH
	DB	017H
	DB	02dH
	DB	014H
	DB	07H
	DB	047H
	DB	066H
	DB	0c8H
	DB	0c8H
	DB	0cfH
	DB	0cfH
	DB	049H
	DB	047H
	DB	047H
	DB	010H
	DB	010H
	DB	032H
	DB	0aH
	DB	03H
	DB	03H
	DB	02dH
	DB	02dH
	DB	02dH
	DB	018H
	DB	02dH
	DB	017H
	DB	014H
	DB	00H
	DB	01H
	DB	07fH
	DB	027H
	DB	01cH
	DB	01cH
	DB	092H
	DB	024H
	DB	09eH
	DB	0fH
	DB	016H
	DB	02H
	DB	00H
	DB	00H
	DB	00H
	DB	00H
	DB	00H
	DB	00H
	DB	00H
	DB	00H
	DB	00H
	DB	00H
	DB	00H
	DB	00H
	DB	00H
	DB	00H
	DB	00H
	DB	00H
	DB	00H
	DB	00H
	DB	00H
	DB	00H
	DB	00H
	DB	00H
	DB	00H
	DB	00H
	DB	00H
	DB	00H
	DB	00H
	DB	00H
	DB	00H
	DB	00H
	DB	00H
	DB	00H
	DB	00H
	DB	00H
	DB	00H
	DB	00H
	DB	00H
	DB	00H
	DB	00H
	DB	00H
	DB	021H
	DB	016H
	DB	0fH
	DB	088H
	DB	08eH
	DB	029H
	DB	0fcH
	DB	015H
	DB	075H
	DB	0acH
	DB	022H
	DB	05H
	DB	028H
	DB	0aH
	DB	0aH
	DB	02dH
	DB	02dH
	DB	07H
	DB	0aH
	DB	03aH
	DB	017H
	DB	017H
	DB	017H
	DB	02cH
	DB	022H
	DB	06H
	DB	02H
	DB	08H
	DB	0aH
	DB	0aH
	DB	028H
	DB	017H
	DB	017H
	DB	017H
	DB	018H
	DB	017H
	DB	018H
	DB	0aH
	DB	021H
	DB	0aH
	DB	038H
	DB	017H
	DB	012H
	DB	012H
	DB	018H
	DB	07H
	DB	08H
	DB	017H
	DB	03eH
	DB	02cH
	DB	06fH
	DB	03eH
	DB	03aH
	DB	018H
	DB	018H
	DB	08H
	DB	018H
	DB	02cH
	DB	022H
	DB	017H
	DB	028H
	DB	018H
	DB	068H
	DB	018H
	DB	017H
	DB	02cH
	DB	041H
	DB	03aH
	DB	01H
	DB	03H
	DB	00H
	DB	010H
	DB	014H
	DB	018H
	DB	018H
	DB	08H
	DB	08H
	DB	017H
	DB	016H
	DB	016H
	DB	017H
	DB	017H
	DB	08H
	DB	08H
	DB	06H
	DB	02dH
	DB	049H
	DB	017H
	DB	018H
	DB	06H
	DB	06H
	DB	08H
	DB	018H
	DB	02aH
	DB	014H
	DB	06H
	DB	0aH
	DB	01H
	DB	020H
	DB	026H
	DB	017H
	DB	01H
	DB	00H
	DB	07H
	DB	02cH
	DB	068H
	DB	05H
	DB	04bH
	DB	05fH
	DB	05fH
	DB	06H
	DB	0aH
	DB	0aH
	DB	02dH
	DB	018H
	DB	06H
	DB	02aH
	DB	0aH
	DB	05H
	DB	014H
	DB	05H
	DB	047H
	DB	039H
	DB	049H
	DB	08H
	DB	026H
	DB	0aH
	DB	018H
	DB	0aH
	DB	021H
	DB	021H
	DB	026H
	DB	02H
	DB	0bH
	DB	05H
	DB	039H
	DB	08H
	DB	08H
	DB	08H
	DB	018H
	DB	018H
	DB	08H
	DB	02H
	DB	08H
	DB	02aH
	DB	021H
	DB	04H
	DB	07H
	DB	02H
	DB	01fH
	DB	05dH
	DB	0bH
	DB	01H
	DB	01H
	DB	00H
	DB	03H
	DB	05H
	DB	01fH
	DB	023H
	DB	021H
	DB	02H
	DB	06H
	DB	028H
	DB	06H
	DB	0aH
	DB	02H
	DB	02H
	DB	05H
	DB	02H
	DB	0aH
	DB	05H
	DB	05H
	DB	07H
	DB	021H
	DB	020H
	DB	01aH
	DB	014H
	DB	023H
	DB	01H
	DB	010H
	DB	04H
	DB	010H
	DB	047H
	DB	02H
	DB	021H
	DB	01aH
	DB	04H
	DB	07H
	DB	01H
	DB	098H
	DB	06dH
	DB	04aH
	DB	023H
	DB	020H
	DB	00H
	DB	00H
	DB	07H
	DB	07H
	DB	043H
	DB	010H
	DB	010H
	DB	010H
	DB	010H
	DB	00H
	DB	00H
	DB	00H
	DB	00H
	DB	03H
	DB	03H
	DB	00H
	DB	00H
	DB	00H
	DB	00H
	DB	00H
	DB	00H
	DB	00H
	DB	00H
	DB	00H
	DB	00H
	DB	00H
	DB	00H
	DB	00H
	DB	00H
	DB	00H
	DB	00H
	DB	00H
	DB	00H
	DB	025H
	DB	00H
	DB	00H
	DB	00H
	DB	00H
	DB	00H
	DB	00H
	DB	00H
	DB	00H
	DB	00H
	DB	00H
	DB	00H
	DB	00H
	DB	00H
	DB	00H
	DB	00H
	DB	00H
	DB	00H
	DB	00H
	DB	00H
	DB	00H
	DB	00H
	DB	00H
	DB	00H
	DB	00H
	DB	00H
	DB	00H
	DB	00H
	DB	00H
	DB	00H
	DB	00H
	DB	00H
	DB	00H
	DB	03H
	DB	03H
	DB	03H
	DB	00H
	DB	00H
	DB	00H
	DB	00H
	DB	03H
	DB	03H
	DB	03H
	DB	03H
	DB	03H
	DB	03H
	DB	03H
	DB	03H
	DB	00H
	DB	00H
	DB	03H
	DB	03H
	DB	03H
	DB	03H
	DB	00H
	DB	00H
	DB	043H
	DB	03aH
	DB	01fH
	DB	03H
	DB	03H
	DB	01aH
	DB	04H
	DB	03H
	DB	03H
	DB	03H
	DB	00H
	DB	00H
	DB	00H
	DB	00H
	DB	00H
	DB	00H
	DB	03H
	DB	03H
	DB	03H
	DB	00H
	DB	00H
	DB	03H
	DB	03H
	DB	03H
	DB	03H
	DB	03H
	DB	00H
	DB	00H
	DB	03H
	DB	03H
	DB	03H
	DB	03H
	DB	00H
	DB	020H
	DB	01H
	DB	01H
	DB	07H
	DB	038H
	DB	01aH
	DB	03H
	DB	03H
	DB	07H
	DB	04H
	DB	00H
	DB	00H
	DB	03H
	DB	01aH
	DB	05H
	DB	04H
	DB	03H
	DB	07H
	DB	07H
	DB	07H
	DB	047H
	DB	047H
	DB	04H
	DB	03H
	DB	030H
	DB	05H
	DB	0aH
	DB	05H
	DB	01aH
	DB	01aH
	DB	05H
	DB	04H
	DB	00H
	DB	03H
	DB	05H
	DB	026H
	DB	048H
	DB	02H
	DB	021H
	DB	04H
	DB	01aH
	DB	026H
	DB	05H
	DB	05H
	DB	08H
	DB	0aH
	DB	047H
	DB	030H
	DB	020H
	DB	02H
	DB	026H
	DB	01aH
	DB	03H
	DB	00H
	DB	01H
	DB	038H
	DB	026H
	DB	043H
	DB	00H
	DB	00H
	DB	030H
	DB	01aH
	DB	01aH
	DB	032H
	DB	047H
	DB	04H
	DB	010H
	DB	00H
	DB	00H
	DB	00H
	DB	00H
	DB	00H
	DB	030H
	DB	0aH
	DB	0cH
	DB	00H
	DB	00H
	DB	00H
	DB	03H
	DB	041H
	DB	02cH
	DB	02H
	DB	0aH
	DB	039H
	DB	052H
	DB	05aH
	DB	035H
	DB	066H
	DB	048H
	DB	05H
	DB	07H
	DB	04H
	DB	0d9H
	DB	0c6H
	DB	0deH
	DB	0dfH
	DB	039H
	DB	030H
	DB	01aH
	DB	01aH
	DB	04H
	DB	026H
	DB	018H
	DB	068H
	DB	038H
	DB	01aH
	DB	0aH
	DB	018H
	DB	02dH
	DB	039H
	DB	014H
	DB	02H
	DB	012H
	DB	027H
	DB	0d6H
	DB	05cH
	DB	024H
	DB	0efH
	DB	0fH
	DB	05eH
	DB	01H
	DB	00H
	DB	00H
	DB	00H
	DB	00H
	DB	00H
	DB	00H
	DB	00H
	DB	00H
	DB	00H
	DB	00H
	DB	00H
	DB	00H
	DB	00H
	DB	00H
	DB	00H
	DB	00H
	DB	00H
	DB	010H
	DB	01H
	DB	02H
	DB	02H
	DB	02H
	DB	02H
	DB	02H
	DB	02H
	DB	02H
	DB	021H
	DB	01H
	DB	010H
	DB	00H
	DB	00H
	DB	00H
	DB	00H
	DB	00H
	DB	00H
	DB	00H
	DB	00H
	DB	00H
	DB	00H
	DB	00H
	DB	00H
	DB	00H
	DB	00H
	DB	00H
	DB	00H
	DB	00H
	DB	01H
	DB	05eH
	DB	07cH
	DB	024H
	DB	055H
	DB	09H
	DB	015H
	DB	09H
	DB	024H
	DB	07fH
	DB	02H
	DB	039H
	DB	08H
	DB	08H
	DB	08H
	DB	08H
	DB	03aH
	DB	016H
	DB	08H
	DB	08H
	DB	017H
	DB	016H
	DB	014H
	DB	047H
	DB	08H
	DB	018H
	DB	039H
	DB	08H
	DB	028H
	DB	08H
	DB	018H
	DB	018H
	DB	02fH
	DB	031H
	DB	053H
	DB	038H
	DB	0aH
	DB	018H
	DB	03eH
	DB	012H
	DB	07fH
	DB	068H
	DB	07H
	DB	0aH
	DB	049H
	DB	03eH
	DB	018H
	DB	017H
	DB	041H
	DB	03aH
	DB	021H
	DB	02H
	DB	0aH
	DB	017H
	DB	035H
	DB	016H
	DB	014H
	DB	0aH
	DB	017H
	DB	017H
	DB	02cH
	DB	06H
	DB	018H
	DB	016H
	DB	06H
	DB	06H
	DB	018H
	DB	07H
	DB	00H
	DB	04H
	DB	02H
	DB	018H
	DB	0aH
	DB	014H
	DB	06H
	DB	06H
	DB	018H
	DB	017H
	DB	08H
	DB	048H
	DB	039H
	DB	018H
	DB	018H
	DB	08H
	DB	048H
	DB	0aH
	DB	0aH
	DB	08H
	DB	017H
	DB	017H
	DB	06H
	DB	01fH
	DB	06H
	DB	02aH
	DB	053H
	DB	018H
	DB	02cH
	DB	016H
	DB	00H
	DB	00H
	DB	039H
	DB	041H
	DB	02cH
	DB	02dH
	DB	02dH
	DB	06H
	DB	017H
	DB	017H
	DB	08H
	DB	018H
	DB	018H
	DB	06H
	DB	06H
	DB	017H
	DB	068H
	DB	053H
	DB	06H
	DB	0aH
	DB	05H
	DB	08H
	DB	08H
	DB	08H
	DB	026H
	DB	0aH
	DB	02aH
	DB	02H
	DB	0aH
	DB	08H
	DB	08H
	DB	05H
	DB	026H
	DB	08H
	DB	06H
	DB	014H
	DB	018H
	DB	016H
	DB	018H
	DB	06H
	DB	02H
	DB	014H
	DB	06H
	DB	02aH
	DB	021H
	DB	01H
	DB	01H
	DB	05H
	DB	0bH
	DB	0cH
	DB	04H
	DB	010H
	DB	04H
	DB	07H
	DB	05H
	DB	05H
	DB	02H
	DB	0cH
	DB	07H
	DB	07H
	DB	08H
	DB	018H
	DB	018H
	DB	02aH
	DB	08H
	DB	06H
	DB	0aH
	DB	0aH
	DB	0aH
	DB	06eH
	DB	03H
	DB	04H
	DB	01H
	DB	01H
	DB	01aH
	DB	06cH
	DB	0cH
	DB	01H
	DB	03H
	DB	03H
	DB	010H
	DB	047H
	DB	0cH
	DB	01H
	DB	03H
	DB	04H
	DB	07H
	DB	01H
	DB	047H
	DB	014H
	DB	023H
	DB	01H
	DB	00H
	DB	00H
	DB	04H
	DB	021H
	DB	01H
	DB	04H
	DB	04H
	DB	00H
	DB	00H
	DB	00H
	DB	00H
	DB	00H
	DB	00H
	DB	00H
	DB	00H
	DB	00H
	DB	00H
	DB	00H
	DB	00H
	DB	00H
	DB	010H
	DB	010H
	DB	00H
	DB	00H
	DB	00H
	DB	00H
	DB	00H
	DB	00H
	DB	00H
	DB	00H
	DB	00H
	DB	00H
	DB	00H
	DB	00H
	DB	00H
	DB	00H
	DB	00H
	DB	00H
	DB	00H
	DB	00H
	DB	00H
	DB	00H
	DB	00H
	DB	00H
	DB	00H
	DB	00H
	DB	00H
	DB	00H
	DB	00H
	DB	00H
	DB	00H
	DB	00H
	DB	00H
	DB	03H
	DB	03H
	DB	00H
	DB	00H
	DB	00H
	DB	00H
	DB	00H
	DB	00H
	DB	00H
	DB	00H
	DB	00H
	DB	00H
	DB	00H
	DB	00H
	DB	00H
	DB	03H
	DB	03H
	DB	00H
	DB	00H
	DB	00H
	DB	00H
	DB	00H
	DB	00H
	DB	03H
	DB	03H
	DB	03H
	DB	03H
	DB	03H
	DB	03H
	DB	03H
	DB	03H
	DB	03H
	DB	030H
	DB	030H
	DB	03H
	DB	03H
	DB	00H
	DB	00H
	DB	0cH
	DB	0cH
	DB	03H
	DB	030H
	DB	01aH
	DB	03H
	DB	00H
	DB	030H
	DB	06eH
	DB	03H
	DB	00H
	DB	00H
	DB	00H
	DB	00H
	DB	03H
	DB	043H
	DB	043H
	DB	03H
	DB	00H
	DB	00H
	DB	04H
	DB	03H
	DB	03H
	DB	03H
	DB	03H
	DB	025H
	DB	03H
	DB	03H
	DB	00H
	DB	03H
	DB	01aH
	DB	03H
	DB	04H
	DB	03H
	DB	03H
	DB	07H
	DB	038H
	DB	01aH
	DB	04H
	DB	00H
	DB	00H
	DB	03H
	DB	00H
	DB	00H
	DB	00H
	DB	01aH
	DB	010H
	DB	00H
	DB	00H
	DB	043H
	DB	053H
	DB	038H
	DB	047H
	DB	03H
	DB	03H
	DB	01aH
	DB	020H
	DB	020H
	DB	07H
	DB	01aH
	DB	01aH
	DB	038H
	DB	038H
	DB	07H
	DB	021H
	DB	07H
	DB	04H
	DB	04H
	DB	00H
	DB	05H
	DB	05H
	DB	00H
	DB	01aH
	DB	032H
	DB	01H
	DB	01dH
	DB	026H
	DB	04H
	DB	03H
	DB	01aH
	DB	07H
	DB	07H
	DB	0c4H
	DB	026H
	DB	00H
	DB	03H
	DB	04H
	DB	07H
	DB	02aH
	DB	01dH
	DB	03H
	DB	030H
	DB	01aH
	DB	026H
	DB	026H
	DB	047H
	DB	00H
	DB	00H
	DB	00H
	DB	00H
	DB	00H
	DB	03H
	DB	03H
	DB	03H
	DB	07H
	DB	026H
	DB	032H
	DB	04H
	DB	03H
	DB	00H
	DB	00H
	DB	026H
	DB	0c6H
	DB	0aH
	DB	02H
	DB	026H
	DB	05fH
	DB	0ccH
	DB	017H
	DB	026H
	DB	07H
	DB	032H
	DB	032H
	DB	01aH
	DB	030H
	DB	032H
	DB	032H
	DB	01aH
	DB	01aH
	DB	026H
	DB	08H
	DB	0aH
	DB	026H
	DB	0aH
	DB	06H
	DB	03aH
	DB	06H
	DB	01H
	DB	07H
	DB	0aH
	DB	07H
	DB	02H
	DB	012H
	DB	027H
	DB	05cH
	DB	05cH
	DB	088H
	DB	01bH
	DB	012H
	DB	014H
	DB	010H
	DB	00H
	DB	00H
	DB	00H
	DB	00H
	DB	00H
	DB	00H
	DB	00H
	DB	00H
	DB	00H
	DB	00H
	DB	00H
	DB	00H
	DB	020H
	DB	016H
	DB	082H
	DB	083H
	DB	027H
	DB	024H
	DB	01cH
	DB	01eH
	DB	0adH
	DB	0fbH
	DB	09H
	DB	075H
	DB	075H
	DB	075H
	DB	075H
	DB	09H
	DB	029H
	DB	0adH
	DB	01eH
	DB	01cH
	DB	024H
	DB	027H
	DB	083H
	DB	012H
	DB	016H
	DB	010H
	DB	00H
	DB	00H
	DB	00H
	DB	00H
	DB	00H
	DB	00H
	DB	00H
	DB	00H
	DB	00H
	DB	00H
	DB	00H
	DB	00H
	DB	00H
	DB	02H
	DB	012H
	DB	088H
	DB	01eH
	DB	09H
	DB	015H
	DB	07eH
	DB	0d6H
	DB	012H
	DB	01aH
	DB	05H
	DB	048H
	DB	032H
	DB	08H
	DB	016H
	DB	06H
	DB	017H
	DB	03eH
	DB	0aH
	DB	05H
	DB	039H
	DB	06H
	DB	028H
	DB	048H
	DB	08H
	DB	039H
	DB	032H
	DB	039H
	DB	08H
	DB	023H
	DB	044H
	DB	031H
	DB	08H
	DB	04bH
	DB	041H
	DB	017H
	DB	035H
	DB	051H
	DB	02cH
	DB	041H
	DB	03eH
	DB	06bH
	DB	08H
	DB	04bH
	DB	028H
	DB	05fH
	DB	02fH
	DB	01dH
	DB	021H
	DB	0aH
	DB	014H
	DB	08H
	DB	0aH
	DB	05H
	DB	047H
	DB	08H
	DB	06H
	DB	018H
	DB	018H
	DB	018H
	DB	0aH
	DB	018H
	DB	028H
	DB	08H
	DB	018H
	DB	0aH
	DB	01H
	DB	07H
	DB	0aH
	DB	02dH
	DB	014H
	DB	01H
	DB	05H
	DB	03eH
	DB	03eH
	DB	02dH
	DB	0aH
	DB	08H
	DB	02dH
	DB	018H
	DB	0aH
	DB	0aH
	DB	02aH
	DB	0aH
	DB	017H
	DB	02cH
	DB	017H
	DB	08H
	DB	014H
	DB	0aH
	DB	0aH
	DB	018H
	DB	060H
	DB	07aH
	DB	057H
	DB	00H
	DB	07H
	DB	03eH
	DB	046H
	DB	016H
	DB	08H
	DB	0aH
	DB	02aH
	DB	017H
	DB	028H
	DB	06H
	DB	017H
	DB	08H
	DB	0aH
	DB	06H
	DB	016H
	DB	016H
	DB	03aH
	DB	017H
	DB	06H
	DB	06H
	DB	06H
	DB	0aH
	DB	0aH
	DB	02dH
	DB	018H
	DB	02aH
	DB	0aH
	DB	0aH
	DB	014H
	DB	06H
	DB	08H
	DB	08H
	DB	08H
	DB	0aH
	DB	08H
	DB	018H
	DB	018H
	DB	08H
	DB	0aH
	DB	02H
	DB	02H
	DB	08H
	DB	0aH
	DB	021H
	DB	043H
	DB	07H
	DB	010H
	DB	01H
	DB	053H
	DB	043H
	DB	00H
	DB	04H
	DB	0aH
	DB	02H
	DB	07H
	DB	03H
	DB	04H
	DB	07H
	DB	07H
	DB	08H
	DB	028H
	DB	06H
	DB	08H
	DB	08H
	DB	06H
	DB	02aH
	DB	0aH
	DB	021H
	DB	01aH
	DB	01aH
	DB	01aH
	DB	01H
	DB	07H
	DB	03H
	DB	019H
	DB	076H
	DB	021H
	DB	01aH
	DB	04H
	DB	03H
	DB	010H
	DB	0cH
	DB	01dH
	DB	04H
	DB	0bH
	DB	01dH
	DB	043H
	DB	04H
	DB	01H
	DB	00H
	DB	00H
	DB	00H
	DB	010H
	DB	01H
	DB	01H
	DB	01H
	DB	010H
	DB	00H
	DB	00H
	DB	03H
	DB	03H
	DB	03H
	DB	00H
	DB	00H
	DB	00H
	DB	00H
	DB	00H
	DB	00H
	DB	00H
	DB	00H
	DB	010H
	DB	025H
	DB	00H
	DB	00H
	DB	00H
	DB	00H
	DB	00H
	DB	00H
	DB	00H
	DB	00H
	DB	00H
	DB	00H
	DB	00H
	DB	00H
	DB	00H
	DB	00H
	DB	00H
	DB	00H
	DB	00H
	DB	00H
	DB	00H
	DB	00H
	DB	00H
	DB	00H
	DB	00H
	DB	00H
	DB	00H
	DB	00H
	DB	00H
	DB	00H
	DB	00H
	DB	00H
	DB	00H
	DB	00H
	DB	00H
	DB	03H
	DB	03H
	DB	00H
	DB	00H
	DB	00H
	DB	00H
	DB	00H
	DB	00H
	DB	00H
	DB	00H
	DB	00H
	DB	00H
	DB	03H
	DB	03H
	DB	00H
	DB	03H
	DB	03H
	DB	03H
	DB	03H
	DB	00H
	DB	00H
	DB	00H
	DB	00H
	DB	03H
	DB	04H
	DB	03H
	DB	03H
	DB	03H
	DB	03H
	DB	03H
	DB	03H
	DB	030H
	DB	030H
	DB	03H
	DB	03H
	DB	00H
	DB	00H
	DB	00H
	DB	00H
	DB	03H
	DB	01aH
	DB	01aH
	DB	03H
	DB	00H
	DB	01aH
	DB	01aH
	DB	04H
	DB	00H
	DB	00H
	DB	00H
	DB	00H
	DB	030H
	DB	07H
	DB	07H
	DB	04H
	DB	00H
	DB	00H
	DB	03H
	DB	03H
	DB	03H
	DB	03H
	DB	03H
	DB	00H
	DB	03H
	DB	01aH
	DB	04H
	DB	030H
	DB	01aH
	DB	04H
	DB	04H
	DB	03H
	DB	03H
	DB	03H
	DB	038H
	DB	07H
	DB	03H
	DB	03H
	DB	00H
	DB	030H
	DB	06bH
	DB	038H
	DB	07H
	DB	00H
	DB	00H
	DB	03H
	DB	00H
	DB	030H
	DB	050H
	DB	02aH
	DB	01aH
	DB	03H
	DB	03H
	DB	01aH
	DB	04H
	DB	04H
	DB	01aH
	DB	032H
	DB	01aH
	DB	07H
	DB	07H
	DB	02aH
	DB	06H
	DB	05H
	DB	03H
	DB	00H
	DB	03H
	DB	043H
	DB	07H
	DB	01aH
	DB	01aH
	DB	03H
	DB	03H
	DB	043H
	DB	07H
	DB	04H
	DB	01aH
	DB	05H
	DB	05H
	DB	043H
	DB	06fH
	DB	06H
	DB	03H
	DB	020H
	DB	04H
	DB	00H
	DB	01H
	DB	01H
	DB	03H
	DB	01aH
	DB	047H
	DB	04H
	DB	032H
	DB	0bH
	DB	00H
	DB	00H
	DB	00H
	DB	00H
	DB	0c4H
	DB	0b0H
	DB	050H
	DB	068H
	DB	018H
	DB	02fH
	DB	05H
	DB	04H
	DB	030H
	DB	01aH
	DB	00H
	DB	030H
	DB	094H
	DB	017H
	DB	07H
	DB	026H
	DB	0a5H
	DB	048H
	DB	039H
	DB	02dH
	DB	0bH
	DB	00H
	DB	01aH
	DB	026H
	DB	026H
	DB	026H
	DB	032H
	DB	03H
	DB	04H
	DB	07H
	DB	08H
	DB	018H
	DB	018H
	DB	02dH
	DB	018H
	DB	03aH
	DB	068H
	DB	068H
	DB	021H
	DB	01H
	DB	022H
	DB	09eH
	DB	024H
	DB	024H
	DB	088H
	DB	01bH
	DB	07fH
	DB	02H
	DB	00H
	DB	00H
	DB	00H
	DB	00H
	DB	00H
	DB	00H
	DB	00H
	DB	00H
	DB	00H
	DB	00H
	DB	00H
	DB	06H
	DB	0a3H
	DB	027H
	DB	067H
	DB	011H
	DB	09H
	DB	0fcH
	DB	015H
	DB	0a4H
	DB	015H
	DB	015H
	DB	015H
	DB	015H
	DB	0fcH
	DB	0fcH
	DB	0fcH
	DB	0fcH
	DB	0fcH
	DB	0fcH
	DB	0fcH
	DB	0fcH
	DB	015H
	DB	015H
	DB	015H
	DB	015H
	DB	0a4H
	DB	015H
	DB	0fcH
	DB	09H
	DB	011H
	DB	067H
	DB	027H
	DB	012H
	DB	06H
	DB	00H
	DB	00H
	DB	00H
	DB	00H
	DB	00H
	DB	00H
	DB	00H
	DB	00H
	DB	00H
	DB	00H
	DB	00H
	DB	021H
	DB	07fH
	DB	027H
	DB	08eH
	DB	075H
	DB	015H
	DB	07eH
	DB	024H
	DB	018H
	DB	03H
	DB	07H
	DB	02dH
	DB	017H
	DB	02cH
	DB	046H
	DB	02eH
	DB	08H
	DB	06H
	DB	017H
	DB	028H
	DB	047H
	DB	039H
	DB	017H
	DB	0aH
	DB	026H
	DB	0aH
	DB	0aH
	DB	0aH
	DB	02fH
	DB	031H
	DB	08H
	DB	05fH
	DB	046H
	DB	06H
	DB	02H
	DB	016H
	DB	022H
	DB	012H
	DB	05eH
	DB	07H
	DB	07H
	DB	0aH
	DB	018H
	DB	018H
	DB	02H
	DB	021H
	DB	018H
	DB	02aH
	DB	0aH
	DB	06H
	DB	018H
	DB	07H
	DB	04H
	DB	08H
	DB	018H
	DB	06fH
	DB	03aH
	DB	017H
	DB	08H
	DB	018H
	DB	018H
	DB	02dH
	DB	017H
	DB	02cH
	DB	021H
	DB	01H
	DB	0aH
	DB	028H
	DB	06H
	DB	0aH
	DB	018H
	DB	03eH
	DB	017H
	DB	049H
	DB	018H
	DB	017H
	DB	016H
	DB	06H
	DB	06H
	DB	03aH
	DB	018H
	DB	06H
	DB	017H
	DB	017H
	DB	06H
	DB	023H
	DB	014H
	DB	026H
	DB	026H
	DB	08H
	DB	06cH
	DB	06cH
	DB	025H
	DB	07H
	DB	041H
	DB	07fH
	DB	022H
	DB	016H
	DB	08H
	DB	06H
	DB	018H
	DB	02cH
	DB	018H
	DB	06H
	DB	06H
	DB	06H
	DB	06H
	DB	018H
	DB	08H
	DB	04bH
	DB	028H
	DB	048H
	DB	06H
	DB	06H
	DB	0aH
	DB	0aH
	DB	08H
	DB	08H
	DB	0aH
	DB	0aH
	DB	02aH
	DB	014H
	DB	023H
	DB	06H
	DB	0aH
	DB	02H
	DB	0aH
	DB	08H
	DB	018H
	DB	018H
	DB	0aH
	DB	02H
	DB	026H
	DB	021H
	DB	02H
	DB	08H
	DB	02H
	DB	02H
	DB	023H
	DB	0bH
	DB	00H
	DB	023H
	DB	04cH
	DB	02aH
	DB	03H
	DB	04H
	DB	02H
	DB	05H
	DB	07H
	DB	01aH
	DB	05H
	DB	08H
	DB	017H
	DB	08H
	DB	0bH
	DB	02H
	DB	014H
	DB	0aH
	DB	0aH
	DB	0aH
	DB	0aH
	DB	0aH
	DB	0aH
	DB	0aH
	DB	02H
	DB	038H
	DB	021H
	DB	07H
	DB	05H
	DB	02H
	DB	02H
	DB	014H
	DB	021H
	DB	020H
	DB	021H
	DB	01H
	DB	021H
	DB	02H
	DB	01H
	DB	04H
	DB	04H
	DB	04H
	DB	01H
	DB	020H
	DB	010H
	DB	00H
	DB	010H
	DB	01H
	DB	04H
	DB	020H
	DB	00H
	DB	00H
	DB	03H
	DB	01aH
	DB	03H
	DB	00H
	DB	00H
	DB	00H
	DB	00H
	DB	00H
	DB	00H
	DB	04H
	DB	01H
	DB	010H
	DB	00H
	DB	00H
	DB	00H
	DB	00H
	DB	00H
	DB	00H
	DB	00H
	DB	00H
	DB	00H
	DB	00H
	DB	00H
	DB	00H
	DB	00H
	DB	00H
	DB	00H
	DB	00H
	DB	00H
	DB	00H
	DB	00H
	DB	00H
	DB	00H
	DB	00H
	DB	00H
	DB	00H
	DB	00H
	DB	00H
	DB	00H
	DB	00H
	DB	00H
	DB	00H
	DB	00H
	DB	00H
	DB	00H
	DB	00H
	DB	00H
	DB	00H
	DB	00H
	DB	00H
	DB	03H
	DB	00H
	DB	00H
	DB	00H
	DB	00H
	DB	00H
	DB	00H
	DB	00H
	DB	00H
	DB	03H
	DB	03H
	DB	00H
	DB	00H
	DB	00H
	DB	03H
	DB	03H
	DB	03H
	DB	03H
	DB	03H
	DB	00H
	DB	03H
	DB	03H
	DB	03H
	DB	00H
	DB	03H
	DB	03H
	DB	03H
	DB	00H
	DB	00H
	DB	03H
	DB	03H
	DB	00H
	DB	03H
	DB	00H
	DB	00H
	DB	00H
	DB	03H
	DB	030H
	DB	04H
	DB	00H
	DB	03H
	DB	030H
	DB	01aH
	DB	04H
	DB	03H
	DB	00H
	DB	00H
	DB	00H
	DB	01dH
	DB	07H
	DB	01aH
	DB	03H
	DB	00H
	DB	030H
	DB	06eH
	DB	03H
	DB	00H
	DB	00H
	DB	03H
	DB	03H
	DB	03H
	DB	030H
	DB	01aH
	DB	030H
	DB	010H
	DB	00H
	DB	03H
	DB	03H
	DB	030H
	DB	043H
	DB	038H
	DB	04H
	DB	03H
	DB	02H
	DB	07H
	DB	03H
	DB	032H
	DB	039H
	DB	05H
	DB	03H
	DB	03H
	DB	07H
	DB	038H
	DB	026H
	DB	050H
	DB	0aH
	DB	06eH
	DB	03H
	DB	00H
	DB	030H
	DB	01aH
	DB	01aH
	DB	07H
	DB	038H
	DB	06eH
	DB	07H
	DB	038H
	DB	02dH
	DB	018H
	DB	0aH
	DB	03H
	DB	030H
	DB	068H
	DB	068H
	DB	05H
	DB	06eH
	DB	01aH
	DB	03H
	DB	06eH
	DB	050H
	DB	038H
	DB	043H
	DB	07H
	DB	02H
	DB	02aH
	DB	0aH
	DB	0aH
	DB	0bH
	DB	04H
	DB	043H
	DB	04H
	DB	03H
	DB	030H
	DB	04H
	DB	04H
	DB	047H
	DB	01H
	DB	07H
	DB	026H
	DB	07H
	DB	00H
	DB	00H
	DB	00H
	DB	038H
	DB	046H
	DB	06aH
	DB	09bH
	DB	051H
	DB	07aH
	DB	014H
	DB	04H
	DB	07H
	DB	01aH
	DB	047H
	DB	03H
	DB	050H
	DB	046H
	DB	016H
	DB	02H
	DB	05H
	DB	01aH
	DB	030H
	DB	0aH
	DB	018H
	DB	07H
	DB	07H
	DB	05H
	DB	05H
	DB	038H
	DB	050H
	DB	014H
	DB	03H
	DB	01aH
	DB	01aH
	DB	0aH
	DB	018H
	DB	02dH
	DB	0aH
	DB	02H
	DB	022H
	DB	07fH
	DB	031H
	DB	02fH
	DB	07dH
	DB	027H
	DB	0f0H
	DB	027H
	DB	083H
	DB	022H
	DB	01H
	DB	00H
	DB	00H
	DB	00H
	DB	00H
	DB	00H
	DB	00H
	DB	00H
	DB	00H
	DB	00H
	DB	02H
	DB	012H
	DB	027H
	DB	08eH
	DB	08cH
	DB	015H
	DB	015H
	DB	015H
	DB	015H
	DB	015H
	DB	0fcH
	DB	0fcH
	DB	0fcH
	DB	0fcH
	DB	0fcH
	DB	0fcH
	DB	0fcH
	DB	0fcH
	DB	0fcH
	DB	0fcH
	DB	0fcH
	DB	0fcH
	DB	0fcH
	DB	0fcH
	DB	0fcH
	DB	0fcH
	DB	0fcH
	DB	0fcH
	DB	0fcH
	DB	0fcH
	DB	0fcH
	DB	0fcH
	DB	015H
	DB	015H
	DB	015H
	DB	015H
	DB	015H
	DB	0fbH
	DB	08eH
	DB	027H
	DB	012H
	DB	02H
	DB	00H
	DB	00H
	DB	00H
	DB	00H
	DB	00H
	DB	00H
	DB	00H
	DB	00H
	DB	00H
	DB	01H
	DB	052H
	DB	09eH
	DB	08eH
	DB	08cH
	DB	0fcH
	DB	011H
	DB	01bH
	DB	05H
	DB	05H
	DB	018H
	DB	02cH
	DB	052H
	DB	02eH
	DB	06H
	DB	06H
	DB	017H
	DB	018H
	DB	07H
	DB	08H
	DB	05fH
	DB	018H
	DB	017H
	DB	02cH
	DB	017H
	DB	049H
	DB	02eH
	DB	041H
	DB	017H
	DB	06H
	DB	018H
	DB	07H
	DB	04H
	DB	014H
	DB	016H
	DB	022H
	DB	022H
	DB	016H
	DB	02aH
	DB	018H
	DB	041H
	DB	02cH
	DB	02aH
	DB	018H
	DB	017H
	DB	017H
	DB	016H
	DB	05eH
	DB	03aH
	DB	0aH
	DB	018H
	DB	03aH
	DB	016H
	DB	02eH
	DB	06H
	DB	0aH
	DB	018H
	DB	08H
	DB	049H
	DB	03eH
	DB	02cH
	DB	018H
	DB	021H
	DB	021H
	DB	021H
	DB	07H
	DB	014H
	DB	017H
	DB	016H
	DB	03aH
	DB	018H
	DB	017H
	DB	017H
	DB	017H
	DB	017H
	DB	02aH
	DB	018H
	DB	02cH
	DB	018H
	DB	06H
	DB	017H
	DB	018H
	DB	02H
	DB	021H
	DB	07H
	DB	06H
	DB	016H
	DB	01H
	DB	00H
	DB	00H
	DB	04H
	DB	017H
	DB	07fH
	DB	022H
	DB	05eH
	DB	016H
	DB	016H
	DB	02cH
	DB	017H
	DB	017H
	DB	03aH
	DB	03aH
	DB	018H
	DB	018H
	DB	06H
	DB	018H
	DB	02dH
	DB	08H
	DB	02H
	DB	07H
	DB	02H
	DB	06H
	DB	018H
	DB	08H
	DB	08H
	DB	08H
	DB	0aH
	DB	018H
	DB	031H
	DB	023H
	DB	014H
	DB	014H
	DB	053H
	DB	021H
	DB	014H
	DB	06H
	DB	018H
	DB	06H
	DB	02aH
	DB	02aH
	DB	02H
	DB	021H
	DB	02aH
	DB	02aH
	DB	016H
	DB	06H
	DB	0cH
	DB	020H
	DB	04H
	DB	05bH
	DB	078H
	DB	04dH
	DB	01H
	DB	04H
	DB	04H
	DB	07H
	DB	021H
	DB	05H
	DB	0aH
	DB	02H
	DB	014H
	DB	05H
	DB	03H
	DB	01H
	DB	014H
	DB	02H
	DB	02H
	DB	053H
	DB	0aH
	DB	0aH
	DB	08H
	DB	08H
	DB	02H
	DB	05H
	DB	02H
	DB	02H
	DB	05H
	DB	05H
	DB	02H
	DB	014H
	DB	01dH
	DB	02H
	DB	021H
	DB	010H
	DB	05H
	DB	02H
	DB	03H
	DB	03H
	DB	00H
	DB	0aeH
	DB	044H
	DB	031H
	DB	021H
	DB	00H
	DB	010H
	DB	06cH
	DB	01H
	DB	01H
	DB	010H
	DB	03H
	DB	01H
	DB	01H
	DB	010H
	DB	010H
	DB	010H
	DB	03H
	DB	04H
	DB	03H
	DB	03H
	DB	010H
	DB	010H
	DB	00H
	DB	00H
	DB	00H
	DB	00H
	DB	00H
	DB	00H
	DB	00H
	DB	00H
	DB	00H
	DB	00H
	DB	00H
	DB	00H
	DB	00H
	DB	00H
	DB	00H
	DB	00H
	DB	00H
	DB	00H
	DB	00H
	DB	00H
	DB	00H
	DB	00H
	DB	00H
	DB	00H
	DB	00H
	DB	00H
	DB	00H
	DB	00H
	DB	00H
	DB	00H
	DB	00H
	DB	00H
	DB	00H
	DB	00H
	DB	00H
	DB	00H
	DB	00H
	DB	00H
	DB	00H
	DB	00H
	DB	00H
	DB	00H
	DB	00H
	DB	00H
	DB	00H
	DB	00H
	DB	00H
	DB	00H
	DB	00H
	DB	00H
	DB	03H
	DB	00H
	DB	03H
	DB	03H
	DB	00H
	DB	00H
	DB	00H
	DB	03H
	DB	03H
	DB	00H
	DB	03H
	DB	00H
	DB	00H
	DB	03H
	DB	03H
	DB	00H
	DB	00H
	DB	00H
	DB	03H
	DB	03H
	DB	03H
	DB	03H
	DB	03H
	DB	01aH
	DB	03H
	DB	00H
	DB	03H
	DB	030H
	DB	03H
	DB	030H
	DB	030H
	DB	01aH
	DB	01aH
	DB	00H
	DB	00H
	DB	00H
	DB	00H
	DB	025H
	DB	04H
	DB	04H
	DB	00H
	DB	03H
	DB	06eH
	DB	03eH
	DB	02fH
	DB	019H
	DB	089H
	DB	05H
	DB	04H
	DB	03H
	DB	053H
	DB	08H
	DB	01aH
	DB	00H
	DB	00H
	DB	03H
	DB	01aH
	DB	06eH
	DB	0aH
	DB	07H
	DB	03H
	DB	03H
	DB	01H
	DB	010H
	DB	00H
	DB	03H
	DB	01aH
	DB	01aH
	DB	06bH
	DB	032H
	DB	01aH
	DB	026H
	DB	066H
	DB	066H
	DB	026H
	DB	01aH
	DB	030H
	DB	01aH
	DB	01aH
	DB	038H
	DB	02H
	DB	07H
	DB	030H
	DB	06eH
	DB	066H
	DB	02dH
	DB	06bH
	DB	066H
	DB	08H
	DB	00H
	DB	01aH
	DB	016H
	DB	04cH
	DB	021H
	DB	07H
	DB	026H
	DB	026H
	DB	0aH
	DB	02dH
	DB	026H
	DB	01aH
	DB	032H
	DB	026H
	DB	018H
	DB	08H
	DB	01H
	DB	04H
	DB	01aH
	DB	06bH
	DB	01aH
	DB	043H
	DB	0aH
	DB	05H
	DB	010H
	DB	03H
	DB	038H
	DB	03aH
	DB	05H
	DB	07H
	DB	01H
	DB	00H
	DB	038H
	DB	02cH
	DB	080H
	DB	0b2H
	DB	05dH
	DB	0cH
	DB	019H
	DB	00H
	DB	030H
	DB	0aH
	DB	039H
	DB	032H
	DB	03H
	DB	041H
	DB	080H
	DB	02dH
	DB	0aH
	DB	05H
	DB	047H
	DB	047H
	DB	08H
	DB	02dH
	DB	066H
	DB	02aH
	DB	023H
	DB	04H
	DB	026H
	DB	02dH
	DB	0aH
	DB	01aH
	DB	03H
	DB	07H
	DB	08H
	DB	02dH
	DB	018H
	DB	05H
	DB	04H
	DB	031H
	DB	02fH
	DB	012H
	DB	09eH
	DB	088H
	DB	0efH
	DB	07cH
	DB	022H
	DB	01H
	DB	00H
	DB	00H
	DB	00H
	DB	00H
	DB	00H
	DB	00H
	DB	00H
	DB	00H
	DB	02H
	DB	09dH
	DB	01cH
	DB	075H
	DB	015H
	DB	015H
	DB	015H
	DB	015H
	DB	0fcH
	DB	0fcH
	DB	0fcH
	DB	0fcH
	DB	0fcH
	DB	0fcH
	DB	015H
	DB	015H
	DB	015H
	DB	015H
	DB	015H
	DB	015H
	DB	015H
	DB	015H
	DB	015H
	DB	015H
	DB	015H
	DB	015H
	DB	015H
	DB	015H
	DB	015H
	DB	015H
	DB	015H
	DB	015H
	DB	0fcH
	DB	0fcH
	DB	0fcH
	DB	0fcH
	DB	0fcH
	DB	0fcH
	DB	0fcH
	DB	0fcH
	DB	015H
	DB	015H
	DB	015H
	DB	015H
	DB	0fbH
	DB	01cH
	DB	0fH
	DB	02aH
	DB	00H
	DB	00H
	DB	00H
	DB	00H
	DB	00H
	DB	00H
	DB	00H
	DB	00H
	DB	01H
	DB	052H
	DB	027H
	DB	01eH
	DB	09H
	DB	0fcH
	DB	067H
	DB	07fH
	DB	04H
	DB	02dH
	DB	02cH
	DB	016H
	DB	02H
	DB	0aH
	DB	018H
	DB	017H
	DB	02H
	DB	04H
	DB	039H
	DB	017H
	DB	06fH
	DB	02cH
	DB	016H
	DB	017H
	DB	060H
	DB	035H
	DB	016H
	DB	018H
	DB	02aH
	DB	0aH
	DB	02H
	DB	05H
	DB	08H
	DB	03eH
	DB	02eH
	DB	016H
	DB	018H
	DB	016H
	DB	046H
	DB	07fH
	DB	03aH
	DB	017H
	DB	018H
	DB	018H
	DB	028H
	DB	02cH
	DB	018H
	DB	018H
	DB	016H
	DB	028H
	DB	04bH
	DB	017H
	DB	03aH
	DB	03aH
	DB	03aH
	DB	017H
	DB	017H
	DB	018H
	DB	016H
	DB	02aH
	DB	07H
	DB	023H
	DB	02aH
	DB	0aH
	DB	01H
	DB	0bH
	DB	04bH
	DB	06H
	DB	04bH
	DB	028H
	DB	04bH
	DB	049H
	DB	017H
	DB	018H
	DB	016H
	DB	018H
	DB	02dH
	DB	049H
	DB	03eH
	DB	018H
	DB	07H
	DB	02H
	DB	05H
	DB	028H
	DB	0a7H
	DB	00H
	DB	00H
	DB	03H
	DB	039H
	DB	02eH
	DB	035H
	DB	028H
	DB	017H
	DB	035H
	DB	02fH
	DB	028H
	DB	06H
	DB	02dH
	DB	017H
	DB	06fH
	DB	03aH
	DB	018H
	DB	018H
	DB	017H
	DB	017H
	DB	028H
	DB	06H
	DB	02H
	DB	05H
	DB	08H
	DB	06H
	DB	0aH
	DB	05H
	DB	026H
	DB	06H
	DB	028H
	DB	06H
	DB	02H
	DB	04H
	DB	047H
	DB	02aH
	DB	02aH
	DB	0aH
	DB	06H
	DB	0aH
	DB	02H
	DB	014H
	DB	014H
	DB	05H
	DB	02H
	DB	026H
	DB	02H
	DB	06H
	DB	014H
	DB	07H
	DB	020H
	DB	06cH
	DB	0a0H
	DB	078H
	DB	054H
	DB	02H
	DB	07H
	DB	047H
	DB	0bH
	DB	021H
	DB	021H
	DB	0aH
	DB	0aH
	DB	07H
	DB	01H
	DB	07H
	DB	05H
	DB	05H
	DB	02H
	DB	0aH
	DB	0aH
	DB	02H
	DB	02aH
	DB	08H
	DB	0aH
	DB	07H
	DB	032H
	DB	02H
	DB	01H
	DB	01H
	DB	0bH
	DB	02H
	DB	07H
	DB	047H
	DB	05H
	DB	01H
	DB	04H
	DB	07H
	DB	0bH
	DB	04H
	DB	00H
	DB	00H
	DB	0bH
	DB	05bH
	DB	04dH
	DB	089H
	DB	00H
	DB	00H
	DB	010H
	DB	01H
	DB	0bH
	DB	04H
	DB	04H
	DB	0bH
	DB	04H
	DB	00H
	DB	010H
	DB	010H
	DB	04H
	DB	04H
	DB	03H
	DB	00H
	DB	00H
	DB	00H
	DB	00H
	DB	00H
	DB	00H
	DB	010H
	DB	00H
	DB	00H
	DB	00H
	DB	00H
	DB	00H
	DB	00H
	DB	00H
	DB	00H
	DB	00H
	DB	00H
	DB	00H
	DB	00H
	DB	00H
	DB	00H
	DB	00H
	DB	00H
	DB	00H
	DB	00H
	DB	00H
	DB	00H
	DB	00H
	DB	00H
	DB	00H
	DB	00H
	DB	00H
	DB	00H
	DB	00H
	DB	00H
	DB	00H
	DB	025H
	DB	00H
	DB	00H
	DB	00H
	DB	00H
	DB	00H
	DB	00H
	DB	00H
	DB	00H
	DB	00H
	DB	00H
	DB	00H
	DB	00H
	DB	00H
	DB	00H
	DB	020H
	DB	03H
	DB	03H
	DB	03H
	DB	03H
	DB	03H
	DB	00H
	DB	03H
	DB	04H
	DB	03H
	DB	00H
	DB	03H
	DB	030H
	DB	03H
	DB	00H
	DB	00H
	DB	03H
	DB	03H
	DB	00H
	DB	00H
	DB	00H
	DB	03H
	DB	03H
	DB	03H
	DB	03H
	DB	03H
	DB	03H
	DB	00H
	DB	00H
	DB	03H
	DB	030H
	DB	03H
	DB	03H
	DB	043H
	DB	03H
	DB	03H
	DB	03H
	DB	00H
	DB	00H
	DB	00H
	DB	00H
	DB	03H
	DB	07H
	DB	01H
	DB	030H
	DB	028H
	DB	057H
	DB	0cH
	DB	02H
	DB	05H
	DB	03H
	DB	030H
	DB	08H
	DB	08H
	DB	06eH
	DB	01aH
	DB	01aH
	DB	07H
	DB	026H
	DB	06eH
	DB	05H
	DB	07H
	DB	01aH
	DB	03H
	DB	00H
	DB	00H
	DB	00H
	DB	03H
	DB	030H
	DB	05H
	DB	02H
	DB	01dH
	DB	020H
	DB	05H
	DB	06bH
	DB	06bH
	DB	06bH
	DB	030H
	DB	030H
	DB	068H
	DB	0aH
	DB	05H
	DB	026H
	DB	07H
	DB	01aH
	DB	026H
	DB	049H
	DB	02dH
	DB	01aH
	DB	06eH
	DB	02dH
	DB	01H
	DB	00H
	DB	047H
	DB	01H
	DB	03H
	DB	07H
	DB	026H
	DB	02H
	DB	05H
	DB	01aH
	DB	026H
	DB	01aH
	DB	032H
	DB	07H
	DB	01H
	DB	047H
	DB	01H
	DB	07H
	DB	038H
	DB	08H
	DB	048H
	DB	05H
	DB	05H
	DB	04H
	DB	00H
	DB	030H
	DB	02cH
	DB	0a2H
	DB	076H
	DB	04H
	DB	04H
	DB	03H
	DB	06bH
	DB	014H
	DB	06cH
	DB	010H
	DB	03H
	DB	03H
	DB	03H
	DB	030H
	DB	026H
	DB	049H
	DB	0a5H
	DB	04H
	DB	050H
	DB	02eH
	DB	017H
	DB	066H
	DB	026H
	DB	026H
	DB	047H
	DB	010H
	DB	032H
	DB	039H
	DB	02dH
	DB	08H
	DB	02H
	DB	026H
	DB	066H
	DB	049H
	DB	03aH
	DB	023H
	DB	00H
	DB	07H
	DB	0aH
	DB	018H
	DB	017H
	DB	05H
	DB	03H
	DB	016H
	DB	09dH
	DB	027H
	DB	027H
	DB	01bH
	DB	07fH
	DB	021H
	DB	00H
	DB	00H
	DB	00H
	DB	00H
	DB	00H
	DB	00H
	DB	00H
	DB	021H
	DB	012H
	DB	01cH
	DB	08cH
	DB	015H
	DB	015H
	DB	015H
	DB	0fcH
	DB	0fcH
	DB	0fcH
	DB	0fcH
	DB	015H
	DB	015H
	DB	015H
	DB	015H
	DB	015H
	DB	015H
	DB	015H
	DB	015H
	DB	015H
	DB	015H
	DB	015H
	DB	015H
	DB	015H
	DB	015H
	DB	015H
	DB	015H
	DB	015H
	DB	015H
	DB	015H
	DB	015H
	DB	015H
	DB	015H
	DB	015H
	DB	015H
	DB	015H
	DB	015H
	DB	015H
	DB	015H
	DB	015H
	DB	015H
	DB	0fcH
	DB	0fcH
	DB	0fcH
	DB	0fcH
	DB	0fcH
	DB	0fcH
	DB	015H
	DB	015H
	DB	015H
	DB	08cH
	DB	05cH
	DB	07fH
	DB	01H
	DB	00H
	DB	00H
	DB	00H
	DB	00H
	DB	00H
	DB	00H
	DB	00H
	DB	01H
	DB	082H
	DB	024H
	DB	011H
	DB	07eH
	DB	09H
	DB	088H
	DB	0aH
	DB	05H
	DB	06H
	DB	0aH
	DB	018H
	DB	017H
	DB	049H
	DB	01H
	DB	05H
	DB	018H
	DB	06fH
	DB	03aH
	DB	018H
	DB	06H
	DB	048H
	DB	039H
	DB	02H
	DB	0aH
	DB	017H
	DB	021H
	DB	06H
	DB	06H
	DB	053H
	DB	02dH
	DB	060H
	DB	02cH
	DB	016H
	DB	017H
	DB	06H
	DB	060H
	DB	02cH
	DB	018H
	DB	018H
	DB	018H
	DB	018H
	DB	049H
	DB	028H
	DB	02cH
	DB	02cH
	DB	016H
	DB	031H
	DB	06H
	DB	018H
	DB	016H
	DB	016H
	DB	016H
	DB	016H
	DB	018H
	DB	018H
	DB	06H
	DB	02H
	DB	05H
	DB	01H
	DB	0cH
	DB	06H
	DB	02H
	DB	03H
	DB	047H
	DB	026H
	DB	0aH
	DB	026H
	DB	08H
	DB	017H
	DB	05fH
	DB	08H
	DB	08H
	DB	02dH
	DB	018H
	DB	017H
	DB	017H
	DB	014H
	DB	05H
	DB	02H
	DB	05H
	DB	010H
	DB	00H
	DB	00H
	DB	026H
	DB	02cH
	DB	06fH
	DB	03eH
	DB	08fH
	DB	0cH
	DB	0a7H
	DB	06dH
	DB	023H
	DB	019H
	DB	0bH
	DB	05H
	DB	08H
	DB	018H
	DB	06H
	DB	08H
	DB	014H
	DB	014H
	DB	08H
	DB	028H
	DB	031H
	DB	014H
	DB	014H
	DB	08H
	DB	0aH
	DB	07H
	DB	07H
	DB	0aH
	DB	06H
	DB	02H
	DB	02H
	DB	0aH
	DB	00H
	DB	047H
	DB	028H
	DB	018H
	DB	06H
	DB	02H
	DB	021H
	DB	021H
	DB	02H
	DB	05H
	DB	0bH
	DB	05H
	DB	0bH
	DB	0bH
	DB	04H
	DB	01H
	DB	01aH
	DB	04H
	DB	0aeH
	DB	0aaH
	DB	0a0H
	DB	04dH
	DB	02aH
	DB	02H
	DB	05H
	DB	0bH
	DB	021H
	DB	02H
	DB	048H
	DB	08H
	DB	07H
	DB	020H
	DB	02H
	DB	02H
	DB	02aH
	DB	0aH
	DB	05H
	DB	047H
	DB	032H
	DB	06H
	DB	031H
	DB	023H
	DB	05H
	DB	026H
	DB	01H
	DB	020H
	DB	010H
	DB	0bH
	DB	02H
	DB	02H
	DB	014H
	DB	05H
	DB	07H
	DB	07H
	DB	07H
	DB	01H
	DB	020H
	DB	00H
	DB	010H
	DB	0bH
	DB	023H
	DB	0cH
	DB	010H
	DB	00H
	DB	00H
	DB	04H
	DB	01H
	DB	0bH
	DB	01dH
	DB	020H
	DB	019H
	DB	010H
	DB	03H
	DB	03H
	DB	020H
	DB	01H
	DB	03H
	DB	00H
	DB	00H
	DB	00H
	DB	00H
	DB	00H
	DB	00H
	DB	00H
	DB	00H
	DB	010H
	DB	00H
	DB	00H
	DB	00H
	DB	00H
	DB	00H
	DB	00H
	DB	00H
	DB	00H
	DB	00H
	DB	00H
	DB	00H
	DB	00H
	DB	00H
	DB	00H
	DB	00H
	DB	00H
	DB	00H
	DB	00H
	DB	00H
	DB	00H
	DB	00H
	DB	00H
	DB	00H
	DB	00H
	DB	00H
	DB	00H
	DB	00H
	DB	00H
	DB	00H
	DB	00H
	DB	00H
	DB	00H
	DB	00H
	DB	00H
	DB	00H
	DB	00H
	DB	03H
	DB	00H
	DB	00H
	DB	00H
	DB	00H
	DB	00H
	DB	00H
	DB	01H
	DB	021H
	DB	03H
	DB	03H
	DB	00H
	DB	00H
	DB	00H
	DB	03H
	DB	01H
	DB	010H
	DB	00H
	DB	00H
	DB	043H
	DB	04H
	DB	00H
	DB	00H
	DB	03H
	DB	03H
	DB	03H
	DB	030H
	DB	030H
	DB	030H
	DB	03H
	DB	00H
	DB	00H
	DB	00H
	DB	03H
	DB	030H
	DB	01aH
	DB	03H
	DB	030H
	DB	01aH
	DB	01H
	DB	03H
	DB	00H
	DB	03H
	DB	00H
	DB	00H
	DB	00H
	DB	00H
	DB	00H
	DB	00H
	DB	0cH
	DB	019H
	DB	00H
	DB	04H
	DB	03H
	DB	03H
	DB	04H
	DB	03H
	DB	03H
	DB	04H
	DB	032H
	DB	06bH
	DB	026H
	DB	026H
	DB	06bH
	DB	032H
	DB	02H
	DB	038H
	DB	038H
	DB	01dH
	DB	025H
	DB	00H
	DB	03H
	DB	038H
	DB	07H
	DB	030H
	DB	030H
	DB	023H
	DB	064H
	DB	025H
	DB	025H
	DB	043H
	DB	01aH
	DB	06eH
	DB	032H
	DB	06eH
	DB	038H
	DB	02aH
	DB	02H
	DB	01aH
	DB	026H
	DB	05H
	DB	07H
	DB	0bH
	DB	05H
	DB	026H
	DB	0aH
	DB	0aH
	DB	02dH
	DB	018H
	DB	01H
	DB	043H
	DB	050H
	DB	0b0H
	DB	066H
	DB	026H
	DB	01aH
	DB	01aH
	DB	038H
	DB	066H
	DB	026H
	DB	01aH
	DB	03H
	DB	00H
	DB	04H
	DB	05H
	DB	02aH
	DB	016H
	DB	028H
	DB	0bH
	DB	04H
	DB	03H
	DB	03H
	DB	06eH
	DB	050H
	DB	03dH
	DB	070H
	DB	063H
	DB	00H
	DB	00H
	DB	00H
	DB	01aH
	DB	047H
	DB	04H
	DB	093H
	DB	050H
	DB	05H
	DB	05H
	DB	026H
	DB	066H
	DB	039H
	DB	00H
	DB	030H
	DB	02eH
	DB	02dH
	DB	06eH
	DB	066H
	DB	066H
	DB	039H
	DB	010H
	DB	00H
	DB	01aH
	DB	032H
	DB	03H
	DB	07H
	DB	026H
	DB	0aH
	DB	094H
	DB	03eH
	DB	05eH
	DB	03aH
	DB	00H
	DB	00H
	DB	026H
	DB	018H
	DB	08H
	DB	0bH
	DB	012H
	DB	0eeH
	DB	027H
	DB	0eeH
	DB	0a3H
	DB	06H
	DB	00H
	DB	00H
	DB	00H
	DB	00H
	DB	00H
	DB	00H
	DB	00H
	DB	06H
	DB	027H
	DB	011H
	DB	015H
	DB	015H
	DB	015H
	DB	0fcH
	DB	0fcH
	DB	015H
	DB	015H
	DB	015H
	DB	015H
	DB	015H
	DB	015H
	DB	015H
	DB	015H
	DB	0a4H
	DB	0a4H
	DB	0a4H
	DB	0a4H
	DB	0a4H
	DB	0a4H
	DB	0a4H
	DB	0feH
	DB	0a4H
	DB	0feH
	DB	0feH
	DB	0feH
	DB	0feH
	DB	0feH
	DB	0feH
	DB	0feH
	DB	0feH
	DB	0a4H
	DB	0a4H
	DB	0a4H
	DB	0fdH
	DB	0a4H
	DB	0a4H
	DB	015H
	DB	015H
	DB	015H
	DB	015H
	DB	015H
	DB	015H
	DB	015H
	DB	015H
	DB	015H
	DB	0fcH
	DB	0fcH
	DB	0fcH
	DB	0fcH
	DB	015H
	DB	015H
	DB	015H
	DB	0adH
	DB	09eH
	DB	02H
	DB	00H
	DB	00H
	DB	00H
	DB	00H
	DB	00H
	DB	00H
	DB	00H
	DB	014H
	DB	083H
	DB	067H
	DB	029H
	DB	07eH
	DB	01eH
	DB	07fH
	DB	010H
	DB	05H
	DB	018H
	DB	016H
	DB	018H
	DB	05H
	DB	017H
	DB	02eH
	DB	02cH
	DB	031H
	DB	014H
	DB	048H
	DB	04H
	DB	047H
	DB	08H
	DB	017H
	DB	06H
	DB	021H
	DB	06H
	DB	02aH
	DB	068H
	DB	02cH
	DB	02eH
	DB	02cH
	DB	016H
	DB	018H
	DB	0aH
	DB	02dH
	DB	03aH
	DB	018H
	DB	018H
	DB	02cH
	DB	016H
	DB	08H
	DB	06H
	DB	017H
	DB	06H
	DB	0aH
	DB	018H
	DB	03aH
	DB	016H
	DB	028H
	DB	049H
	DB	049H
	DB	04bH
	DB	028H
	DB	017H
	DB	0aH
	DB	07H
	DB	05H
	DB	01H
	DB	05H
	DB	08H
	DB	02aH
	DB	07H
	DB	00H
	DB	0aH
	DB	018H
	DB	0aH
	DB	08H
	DB	018H
	DB	048H
	DB	05H
	DB	014H
	DB	018H
	DB	018H
	DB	08H
	DB	06H
	DB	06H
	DB	05H
	DB	05H
	DB	047H
	DB	00H
	DB	00H
	DB	026H
	DB	022H
	DB	051H
	DB	07fH
	DB	06H
	DB	010H
	DB	00H
	DB	0aeH
	DB	0cH
	DB	023H
	DB	07H
	DB	05H
	DB	0aH
	DB	06H
	DB	02H
	DB	02H
	DB	05H
	DB	04H
	DB	0bH
	DB	08H
	DB	018H
	DB	06H
	DB	0aH
	DB	08H
	DB	018H
	DB	026H
	DB	026H
	DB	018H
	DB	018H
	DB	018H
	DB	06H
	DB	0aH
	DB	053H
	DB	07H
	DB	039H
	DB	08H
	DB	0aH
	DB	02aH
	DB	02H
	DB	0aH
	DB	02aH
	DB	02H
	DB	0cH
	DB	0cH
	DB	01H
	DB	04H
	DB	0bH
	DB	07H
	DB	021H
	DB	01H
	DB	04H
	DB	04H
	DB	02H
	DB	014H
	DB	02H
	DB	0aH
	DB	0aH
	DB	021H
	DB	047H
	DB	05H
	DB	04H
	DB	04H
	DB	05H
	DB	01H
	DB	0bH
	DB	01fH
	DB	08H
	DB	06H
	DB	02H
	DB	0bH
	DB	032H
	DB	048H
	DB	028H
	DB	01fH
	DB	0cH
	DB	021H
	DB	021H
	DB	0bH
	DB	04H
	DB	025H
	DB	02H
	DB	08H
	DB	014H
	DB	02H
	DB	0bH
	DB	04H
	DB	01H
	DB	04H
	DB	00H
	DB	020H
	DB	01H
	DB	04H
	DB	03H
	DB	010H
	DB	00H
	DB	00H
	DB	00H
	DB	010H
	DB	01H
	DB	01H
	DB	010H
	DB	025H
	DB	025H
	DB	010H
	DB	010H
	DB	03H
	DB	00H
	DB	010H
	DB	06cH
	DB	01H
	DB	00H
	DB	00H
	DB	00H
	DB	00H
	DB	00H
	DB	00H
	DB	00H
	DB	00H
	DB	019H
	DB	00H
	DB	00H
	DB	00H
	DB	00H
	DB	00H
	DB	00H
	DB	00H
	DB	00H
	DB	00H
	DB	00H
	DB	00H
	DB	00H
	DB	00H
	DB	00H
	DB	00H
	DB	00H
	DB	00H
	DB	00H
	DB	00H
	DB	00H
	DB	00H
	DB	00H
	DB	00H
	DB	00H
	DB	00H
	DB	00H
	DB	00H
	DB	00H
	DB	00H
	DB	00H
	DB	00H
	DB	00H
	DB	00H
	DB	00H
	DB	00H
	DB	03H
	DB	00H
	DB	00H
	DB	00H
	DB	00H
	DB	00H
	DB	03H
	DB	03H
	DB	03H
	DB	030H
	DB	030H
	DB	030H
	DB	00H
	DB	00H
	DB	00H
	DB	03H
	DB	00H
	DB	00H
	DB	00H
	DB	00H
	DB	03H
	DB	03H
	DB	00H
	DB	03H
	DB	03H
	DB	00H
	DB	030H
	DB	07H
	DB	01aH
	DB	032H
	DB	01aH
	DB	04H
	DB	03H
	DB	03H
	DB	03H
	DB	030H
	DB	07H
	DB	03H
	DB	03H
	DB	01aH
	DB	04H
	DB	03H
	DB	00H
	DB	00H
	DB	00H
	DB	03H
	DB	03H
	DB	00H
	DB	00H
	DB	00H
	DB	00H
	DB	00H
	DB	00H
	DB	00H
	DB	03H
	DB	030H
	DB	03H
	DB	03H
	DB	01aH
	DB	01H
	DB	03H
	DB	032H
	DB	026H
	DB	06eH
	DB	06eH
	DB	026H
	DB	0aH
	DB	08H
	DB	0a5H
	DB	010H
	DB	00H
	DB	00H
	DB	053H
	DB	044H
	DB	023H
	DB	01aH
	DB	01aH
	DB	0cH
	DB	063H
	DB	00H
	DB	03H
	DB	030H
	DB	01aH
	DB	04H
	DB	01aH
	DB	050H
	DB	02dH
	DB	014H
	DB	05H
	DB	05H
	DB	038H
	DB	01aH
	DB	01H
	DB	07H
	DB	038H
	DB	050H
	DB	018H
	DB	014H
	DB	06H
	DB	06H
	DB	02aH
	DB	0e3H
	DB	082H
	DB	012H
	DB	02cH
	DB	02H
	DB	032H
	DB	06eH
	DB	066H
	DB	049H
	DB	018H
	DB	021H
	DB	030H
	DB	03H
	DB	030H
	DB	0aH
	DB	014H
	DB	057H
	DB	014H
	DB	047H
	DB	03H
	DB	01aH
	DB	032H
	DB	026H
	DB	039H
	DB	019H
	DB	00H
	DB	00H
	DB	00H
	DB	03H
	DB	0c4H
	DB	068H
	DB	05H
	DB	026H
	DB	02dH
	DB	049H
	DB	08H
	DB	02H
	DB	02aH
	DB	08H
	DB	047H
	DB	00H
	DB	026H
	DB	03eH
	DB	0aH
	DB	026H
	DB	050H
	DB	06fH
	DB	050H
	DB	030H
	DB	03H
	DB	03H
	DB	01aH
	DB	03H
	DB	02H
	DB	0aH
	DB	07H
	DB	03eH
	DB	041H
	DB	051H
	DB	04aH
	DB	021H
	DB	00H
	DB	026H
	DB	05H
	DB	06H
	DB	0fH
	DB	0eeH
	DB	0eeH
	DB	07dH
	DB	035H
	DB	010H
	DB	00H
	DB	00H
	DB	00H
	DB	00H
	DB	00H
	DB	00H
	DB	018H
	DB	027H
	DB	08cH
	DB	015H
	DB	015H
	DB	015H
	DB	0fcH
	DB	015H
	DB	015H
	DB	015H
	DB	015H
	DB	015H
	DB	015H
	DB	015H
	DB	015H
	DB	0a4H
	DB	0a4H
	DB	0a4H
	DB	0feH
	DB	0feH
	DB	0feH
	DB	0feH
	DB	0eH
	DB	0eH
	DB	0eH
	DB	0eH
	DB	0eH
	DB	0eH
	DB	0eH
	DB	0eH
	DB	0eH
	DB	0eH
	DB	0eH
	DB	0eH
	DB	0eH
	DB	0eH
	DB	0eH
	DB	0eH
	DB	0feH
	DB	0feH
	DB	0feH
	DB	0feH
	DB	0a4H
	DB	0a4H
	DB	0a4H
	DB	015H
	DB	015H
	DB	015H
	DB	015H
	DB	015H
	DB	015H
	DB	015H
	DB	015H
	DB	0fcH
	DB	0fcH
	DB	0fcH
	DB	0fcH
	DB	015H
	DB	015H
	DB	0fbH
	DB	09eH
	DB	014H
	DB	00H
	DB	00H
	DB	00H
	DB	00H
	DB	00H
	DB	00H
	DB	00H
	DB	022H
	DB	027H
	DB	055H
	DB	09H
	DB	08cH
	DB	0eeH
	DB	04H
	DB	026H
	DB	016H
	DB	028H
	DB	0aH
	DB	02dH
	DB	049H
	DB	05fH
	DB	02H
	DB	07H
	DB	032H
	DB	00H
	DB	03H
	DB	04bH
	DB	017H
	DB	0aH
	DB	02aH
	DB	02dH
	DB	026H
	DB	017H
	DB	02eH
	DB	02eH
	DB	017H
	DB	02H
	DB	08H
	DB	08H
	DB	018H
	DB	08H
	DB	048H
	DB	04bH
	DB	016H
	DB	017H
	DB	06H
	DB	08H
	DB	047H
	DB	010H
	DB	0aH
	DB	03eH
	DB	017H
	DB	018H
	DB	0aH
	DB	08H
	DB	08H
	DB	039H
	DB	08H
	DB	06H
	DB	053H
	DB	0aH
	DB	0aH
	DB	038H
	DB	053H
	DB	07H
	DB	021H
	DB	0aH
	DB	0aH
	DB	0aH
	DB	031H
	DB	016H
	DB	031H
	DB	06H
	DB	0aH
	DB	02dH
	DB	06H
	DB	028H
	DB	028H
	DB	06H
	DB	06H
	DB	031H
	DB	023H
	DB	047H
	DB	00H
	DB	00H
	DB	00H
	DB	04bH
	DB	05bH
	DB	05bH
	DB	071H
	DB	08aH
	DB	00H
	DB	00H
	DB	00H
	DB	01H
	DB	06H
	DB	02aH
	DB	02aH
	DB	018H
	DB	018H
	DB	021H
	DB	0aH
	DB	026H
	DB	03H
	DB	048H
	DB	028H
	DB	018H
	DB	018H
	DB	018H
	DB	017H
	DB	06H
	DB	02H
	DB	08H
	DB	016H
	DB	03aH
	DB	016H
	DB	02cH
	DB	018H
	DB	02aH
	DB	08H
	DB	021H
	DB	02H
	DB	014H
	DB	08H
	DB	08H
	DB	06H
	DB	06H
	DB	023H
	DB	08aH
	DB	08aH
	DB	021H
	DB	07H
	DB	02H
	DB	0aH
	DB	021H
	DB	01H
	DB	032H
	DB	07H
	DB	05H
	DB	05H
	DB	05H
	DB	0aH
	DB	0aH
	DB	07H
	DB	07H
	DB	032H
	DB	07H
	DB	026H
	DB	07H
	DB	00H
	DB	0bH
	DB	028H
	DB	06H
	DB	02H
	DB	02H
	DB	023H
	DB	02H
	DB	014H
	DB	098H
	DB	0bH
	DB	021H
	DB	021H
	DB	021H
	DB	0bH
	DB	04H
	DB	07H
	DB	02H
	DB	02H
	DB	05H
	DB	01H
	DB	01H
	DB	04H
	DB	04H
	DB	00H
	DB	00H
	DB	0bH
	DB	021H
	DB	04H
	DB	00H
	DB	010H
	DB	019H
	DB	025H
	DB	010H
	DB	019H
	DB	01H
	DB	00H
	DB	00H
	DB	00H
	DB	00H
	DB	03H
	DB	010H
	DB	03H
	DB	00H
	DB	00H
	DB	0aeH
	DB	01H
	DB	00H
	DB	00H
	DB	010H
	DB	010H
	DB	00H
	DB	00H
	DB	00H
	DB	010H
	DB	00H
	DB	00H
	DB	00H
	DB	00H
	DB	00H
	DB	00H
	DB	00H
	DB	00H
	DB	00H
	DB	00H
	DB	00H
	DB	00H
	DB	00H
	DB	00H
	DB	00H
	DB	00H
	DB	00H
	DB	00H
	DB	00H
	DB	00H
	DB	00H
	DB	00H
	DB	00H
	DB	00H
	DB	00H
	DB	00H
	DB	00H
	DB	00H
	DB	00H
	DB	00H
	DB	00H
	DB	00H
	DB	00H
	DB	00H
	DB	00H
	DB	00H
	DB	03H
	DB	03H
	DB	00H
	DB	00H
	DB	00H
	DB	00H
	DB	00H
	DB	03H
	DB	04H
	DB	03H
	DB	03H
	DB	04H
	DB	03H
	DB	010H
	DB	00H
	DB	00H
	DB	00H
	DB	00H
	DB	07H
	DB	0bH
	DB	03H
	DB	030H
	DB	043H
	DB	03H
	DB	00H
	DB	03H
	DB	03H
	DB	00H
	DB	00H
	DB	00H
	DB	03H
	DB	03H
	DB	030H
	DB	06eH
	DB	043H
	DB	043H
	DB	04H
	DB	03H
	DB	00H
	DB	00H
	DB	03H
	DB	03H
	DB	03H
	DB	00H
	DB	00H
	DB	03H
	DB	03H
	DB	020H
	DB	03H
	DB	00H
	DB	00H
	DB	00H
	DB	00H
	DB	00H
	DB	04H
	DB	020H
	DB	03H
	DB	03H
	DB	03H
	DB	030H
	DB	030H
	DB	03H
	DB	04H
	DB	04H
	DB	01aH
	DB	01H
	DB	07H
	DB	0bH
	DB	010H
	DB	00H
	DB	00H
	DB	0c4H
	DB	0e4H
	DB	045H
	DB	025H
	DB	03H
	DB	01aH
	DB	04H
	DB	04H
	DB	01aH
	DB	030H
	DB	03H
	DB	01aH
	DB	04H
	DB	01aH
	DB	050H
	DB	02dH
	DB	05H
	DB	032H
	DB	032H
	DB	01aH
	DB	07H
	DB	07H
	DB	026H
	DB	08H
	DB	0aH
	DB	01H
	DB	00H
	DB	025H
	DB	01H
	DB	02aH
	DB	077H
	DB	05aH
	DB	05aH
	DB	07aH
	DB	0bH
	DB	03H
	DB	032H
	DB	0c6H
	DB	02dH
	DB	039H
	DB	0aH
	DB	026H
	DB	06bH
	DB	032H
	DB	047H
	DB	03H
	DB	01H
	DB	04H
	DB	03H
	DB	01aH
	DB	039H
	DB	0d9H
	DB	047H
	DB	01aH
	DB	00H
	DB	00H
	DB	03H
	DB	0c4H
	DB	04aH
	DB	0edH
	DB	0a2H
	DB	02fH
	DB	05H
	DB	0aH
	DB	0aH
	DB	026H
	DB	038H
	DB	023H
	DB	070H
	DB	06cH
	DB	00H
	DB	06fH
	DB	02eH
	DB	026H
	DB	06bH
	DB	050H
	DB	06fH
	DB	02dH
	DB	035H
	DB	0cH
	DB	00H
	DB	01aH
	DB	04H
	DB	05H
	DB	05H
	DB	030H
	DB	03eH
	DB	051H
	DB	077H
	DB	012H
	DB	05eH
	DB	021H
	DB	04H
	DB	016H
	DB	07dH
	DB	01bH
	DB	01bH
	DB	012H
	DB	02H
	DB	00H
	DB	00H
	DB	00H
	DB	00H
	DB	00H
	DB	00H
	DB	03aH
	DB	088H
	DB	09H
	DB	015H
	DB	015H
	DB	0fcH
	DB	015H
	DB	015H
	DB	015H
	DB	015H
	DB	015H
	DB	015H
	DB	0a4H
	DB	0a4H
	DB	0a4H
	DB	0feH
	DB	0feH
	DB	0feH
	DB	0eH
	DB	0eH
	DB	0eH
	DB	0eH
	DB	0eH
	DB	0eH
	DB	0eH
	DB	0eH
	DB	0eH
	DB	0eH
	DB	0eH
	DB	0c0H
	DB	0c0H
	DB	0c0H
	DB	0c0H
	DB	0c0H
	DB	0c0H
	DB	0c0H
	DB	0eH
	DB	0eH
	DB	0eH
	DB	0eH
	DB	0eH
	DB	0eH
	DB	0eH
	DB	0eH
	DB	0eH
	DB	0eH
	DB	0feH
	DB	0feH
	DB	0feH
	DB	0a4H
	DB	0a4H
	DB	0a4H
	DB	015H
	DB	015H
	DB	015H
	DB	015H
	DB	015H
	DB	015H
	DB	0fcH
	DB	0fcH
	DB	0fcH
	DB	015H
	DB	0a4H
	DB	08cH
	DB	027H
	DB	06H
	DB	00H
	DB	00H
	DB	00H
	DB	00H
	DB	00H
	DB	00H
	DB	021H
	DB	0fH
	DB	01cH
	DB	029H
	DB	09H
	DB	024H
	DB	0aH
	DB	03H
	DB	026H
	DB	017H
	DB	039H
	DB	04H
	DB	047H
	DB	026H
	DB	018H
	DB	08H
	DB	020H
	DB	07H
	DB	02dH
	DB	049H
	DB	08H
	DB	068H
	DB	017H
	DB	094H
	DB	03eH
	DB	049H
	DB	08fH
	DB	014H
	DB	026H
	DB	016H
	DB	03aH
	DB	08H
	DB	01aH
	DB	032H
	DB	05H
	DB	02H
	DB	08H
	DB	02aH
	DB	07H
	DB	00H
	DB	01aH
	DB	017H
	DB	02cH
	DB	017H
	DB	018H
	DB	06H
	DB	02H
	DB	02H
	DB	0aH
	DB	02dH
	DB	08H
	DB	08H
	DB	017H
	DB	03aH
	DB	02aH
	DB	0aH
	DB	05H
	DB	01H
	DB	02aH
	DB	016H
	DB	0bH
	DB	0a7H
	DB	05bH
	DB	01fH
	DB	023H
	DB	018H
	DB	02cH
	DB	02eH
	DB	049H
	DB	04bH
	DB	06H
	DB	06H
	DB	0cH
	DB	010H
	DB	010H
	DB	00H
	DB	00H
	DB	010H
	DB	039H
	DB	01fH
	DB	028H
	DB	0aaH
	DB	044H
	DB	076H
	DB	065H
	DB	03H
	DB	05H
	DB	018H
	DB	018H
	DB	018H
	DB	018H
	DB	018H
	DB	017H
	DB	049H
	DB	0aH
	DB	01aH
	DB	07H
	DB	08H
	DB	018H
	DB	018H
	DB	018H
	DB	02H
	DB	00H
	DB	05H
	DB	018H
	DB	018H
	DB	06H
	DB	018H
	DB	017H
	DB	018H
	DB	06H
	DB	0aH
	DB	02H
	DB	02H
	DB	08H
	DB	08H
	DB	08H
	DB	08H
	DB	06H
	DB	017H
	DB	01fH
	DB	0cH
	DB	06H
	DB	08H
	DB	0aH
	DB	0aH
	DB	021H
	DB	021H
	DB	0aH
	DB	08H
	DB	0aH
	DB	026H
	DB	026H
	DB	021H
	DB	021H
	DB	021H
	DB	02H
	DB	05H
	DB	014H
	DB	06H
	DB	07H
	DB	03H
	DB	0bH
	DB	06H
	DB	02aH
	DB	021H
	DB	0aH
	DB	0aH
	DB	01H
	DB	010H
	DB	04H
	DB	07H
	DB	02H
	DB	0aH
	DB	02H
	DB	01dH
	DB	05H
	DB	02H
	DB	02H
	DB	0bH
	DB	01H
	DB	01H
	DB	01H
	DB	01H
	DB	07H
	DB	04H
	DB	04H
	DB	05H
	DB	021H
	DB	01H
	DB	03H
	DB	00H
	DB	019H
	DB	019H
	DB	010H
	DB	047H
	DB	01H
	DB	00H
	DB	00H
	DB	00H
	DB	04H
	DB	04H
	DB	047H
	DB	01H
	DB	010H
	DB	04H
	DB	04H
	DB	00H
	DB	00H
	DB	010H
	DB	010H
	DB	00H
	DB	00H
	DB	00H
	DB	00H
	DB	00H
	DB	00H
	DB	00H
	DB	00H
	DB	00H
	DB	00H
	DB	00H
	DB	00H
	DB	00H
	DB	00H
	DB	00H
	DB	00H
	DB	00H
	DB	00H
	DB	00H
	DB	00H
	DB	00H
	DB	00H
	DB	00H
	DB	00H
	DB	00H
	DB	00H
	DB	00H
	DB	00H
	DB	00H
	DB	00H
	DB	00H
	DB	00H
	DB	00H
	DB	00H
	DB	00H
	DB	020H
	DB	00H
	DB	00H
	DB	00H
	DB	03H
	DB	03H
	DB	03H
	DB	03H
	DB	03H
	DB	00H
	DB	00H
	DB	00H
	DB	00H
	DB	025H
	DB	03fH
	DB	04H
	DB	010H
	DB	00H
	DB	00H
	DB	03H
	DB	03H
	DB	00H
	DB	00H
	DB	00H
	DB	010H
	DB	0bH
	DB	03H
	DB	03H
	DB	038H
	DB	01aH
	DB	03H
	DB	030H
	DB	03H
	DB	00H
	DB	00H
	DB	00H
	DB	00H
	DB	00H
	DB	03H
	DB	01aH
	DB	043H
	DB	01aH
	DB	03H
	DB	00H
	DB	00H
	DB	00H
	DB	03H
	DB	00H
	DB	00H
	DB	00H
	DB	00H
	DB	00H
	DB	03H
	DB	03H
	DB	03H
	DB	00H
	DB	00H
	DB	00H
	DB	03H
	DB	06eH
	DB	032H
	DB	00H
	DB	00H
	DB	030H
	DB	09fH
	DB	038H
	DB	05H
	DB	03H
	DB	03H
	DB	03H
	DB	00H
	DB	00H
	DB	00H
	DB	00H
	DB	00H
	DB	00H
	DB	053H
	DB	04cH
	DB	061H
	DB	064H
	DB	00H
	DB	03H
	DB	03H
	DB	03H
	DB	04H
	DB	01aH
	DB	04H
	DB	00H
	DB	030H
	DB	06bH
	DB	026H
	DB	050H
	DB	039H
	DB	01aH
	DB	03H
	DB	03H
	DB	030H
	DB	01aH
	DB	06eH
	DB	032H
	DB	010H
	DB	01H
	DB	04H
	DB	00H
	DB	00H
	DB	00H
	DB	00H
	DB	019H
	DB	0a7H
	DB	0aaH
	DB	098H
	DB	00H
	DB	00H
	DB	04H
	DB	0c6H
	DB	039H
	DB	026H
	DB	039H
	DB	039H
	DB	02dH
	DB	05H
	DB	00H
	DB	01aH
	DB	06eH
	DB	03H
	DB	03H
	DB	030H
	DB	05H
	DB	032H
	DB	03H
	DB	018H
	DB	05dH
	DB	04H
	DB	07H
	DB	05eH
	DB	072H
	DB	0e5H
	DB	04dH
	DB	02fH
	DB	02H
	DB	014H
	DB	0aH
	DB	03eH
	DB	0c7H
	DB	06H
	DB	045H
	DB	025H
	DB	03H
	DB	0e3H
	DB	041H
	DB	0aH
	DB	026H
	DB	0b0H
	DB	050H
	DB	018H
	DB	0b3H
	DB	045H
	DB	00H
	DB	01aH
	DB	04H
	DB	03H
	DB	01aH
	DB	06eH
	DB	035H
	DB	051H
	DB	077H
	DB	05aH
	DB	077H
	DB	023H
	DB	022H
	DB	07dH
	DB	09dH
	DB	0fH
	DB	016H
	DB	00H
	DB	00H
	DB	00H
	DB	00H
	DB	00H
	DB	00H
	DB	06H
	DB	024H
	DB	09H
	DB	015H
	DB	015H
	DB	015H
	DB	015H
	DB	015H
	DB	015H
	DB	015H
	DB	015H
	DB	0a4H
	DB	0a4H
	DB	0feH
	DB	0feH
	DB	0eH
	DB	0eH
	DB	0eH
	DB	0eH
	DB	0eH
	DB	0eH
	DB	0eH
	DB	0c0H
	DB	0c0H
	DB	0c0H
	DB	0c0H
	DB	0c0H
	DB	0c0H
	DB	0ffH
	DB	0ffH
	DB	0ffH
	DB	0ffH
	DB	0ffH
	DB	0ffH
	DB	0ffH
	DB	0ffH
	DB	0ffH
	DB	0ffH
	DB	0ffH
	DB	0ffH
	DB	0c0H
	DB	0c0H
	DB	0c0H
	DB	0c0H
	DB	0c0H
	DB	0c0H
	DB	0eH
	DB	0eH
	DB	0eH
	DB	0eH
	DB	0eH
	DB	0eH
	DB	0eH
	DB	0feH
	DB	0feH
	DB	0a4H
	DB	0a4H
	DB	015H
	DB	015H
	DB	015H
	DB	015H
	DB	015H
	DB	0fcH
	DB	0fcH
	DB	0fcH
	DB	015H
	DB	0a4H
	DB	09H
	DB	088H
	DB	02H
	DB	00H
	DB	00H
	DB	00H
	DB	00H
	DB	00H
	DB	00H
	DB	022H
	DB	0f0H
	DB	055H
	DB	09H
	DB	01eH
	DB	022H
	DB	01aH
	DB	02cH
	DB	02aH
	DB	00H
	DB	00H
	DB	02dH
	DB	022H
	DB	028H
	DB	02aH
	DB	018H
	DB	02dH
	DB	017H
	DB	03eH
	DB	03eH
	DB	035H
	DB	04bH
	DB	08H
	DB	014H
	DB	010H
	DB	00H
	DB	02dH
	DB	052H
	DB	016H
	DB	0aH
	DB	0aH
	DB	018H
	DB	06H
	DB	02H
	DB	02H
	DB	018H
	DB	050H
	DB	050H
	DB	017H
	DB	02cH
	DB	017H
	DB	018H
	DB	017H
	DB	03eH
	DB	02dH
	DB	0aH
	DB	06H
	DB	018H
	DB	02dH
	DB	08H
	DB	018H
	DB	06H
	DB	023H
	DB	0aH
	DB	0aH
	DB	053H
	DB	02aH
	DB	02H
	DB	010H
	DB	047H
	DB	01fH
	DB	01dH
	DB	010H
	DB	032H
	DB	04bH
	DB	02eH
	DB	02dH
	DB	05H
	DB	02H
	DB	01fH
	DB	07H
	DB	00H
	DB	00H
	DB	00H
	DB	00H
	DB	010H
	DB	032H
	DB	08H
	DB	08H
	DB	047H
	DB	028H
	DB	05eH
	DB	02aH
	DB	08H
	DB	08H
	DB	02aH
	DB	06H
	DB	04bH
	DB	08H
	DB	017H
	DB	02cH
	DB	017H
	DB	06H
	DB	02aH
	DB	050H
	DB	06fH
	DB	017H
	DB	018H
	DB	017H
	DB	0aH
	DB	01H
	DB	02aH
	DB	017H
	DB	06H
	DB	01fH
	DB	018H
	DB	018H
	DB	06H
	DB	0aH
	DB	06H
	DB	02aH
	DB	02aH
	DB	068H
	DB	0aH
	DB	0aH
	DB	014H
	DB	04bH
	DB	060H
	DB	018H
	DB	02aH
	DB	018H
	DB	018H
	DB	018H
	DB	02aH
	DB	07H
	DB	02H
	DB	0aH
	DB	0aH
	DB	06H
	DB	014H
	DB	07H
	DB	02H
	DB	053H
	DB	021H
	DB	0cH
	DB	06cH
	DB	048H
	DB	08H
	DB	0aH
	DB	048H
	DB	048H
	DB	0aH
	DB	0aH
	DB	02H
	DB	02H
	DB	05H
	DB	01H
	DB	00H
	DB	01H
	DB	05H
	DB	098H
	DB	048H
	DB	05H
	DB	0bH
	DB	0bH
	DB	047H
	DB	07H
	DB	01dH
	DB	01H
	DB	07H
	DB	05H
	DB	07H
	DB	07H
	DB	07H
	DB	01H
	DB	0bH
	DB	014H
	DB	023H
	DB	01H
	DB	00H
	DB	025H
	DB	010H
	DB	010H
	DB	03H
	DB	010H
	DB	010H
	DB	04H
	DB	07H
	DB	01H
	DB	010H
	DB	01H
	DB	04H
	DB	0aeH
	DB	05H
	DB	020H
	DB	00H
	DB	00H
	DB	010H
	DB	00H
	DB	00H
	DB	00H
	DB	00H
	DB	00H
	DB	00H
	DB	00H
	DB	00H
	DB	00H
	DB	00H
	DB	00H
	DB	00H
	DB	00H
	DB	00H
	DB	00H
	DB	00H
	DB	00H
	DB	00H
	DB	00H
	DB	00H
	DB	00H
	DB	00H
	DB	00H
	DB	00H
	DB	00H
	DB	00H
	DB	00H
	DB	00H
	DB	00H
	DB	00H
	DB	00H
	DB	00H
	DB	00H
	DB	00H
	DB	00H
	DB	00H
	DB	025H
	DB	00H
	DB	00H
	DB	00H
	DB	03H
	DB	03H
	DB	03H
	DB	03H
	DB	03H
	DB	030H
	DB	00H
	DB	00H
	DB	00H
	DB	00H
	DB	025H
	DB	03H
	DB	00H
	DB	00H
	DB	00H
	DB	03H
	DB	03H
	DB	00H
	DB	00H
	DB	00H
	DB	00H
	DB	03H
	DB	03H
	DB	00H
	DB	030H
	DB	01aH
	DB	01aH
	DB	01H
	DB	04H
	DB	03H
	DB	00H
	DB	00H
	DB	00H
	DB	03H
	DB	00H
	DB	03H
	DB	030H
	DB	04H
	DB	03H
	DB	00H
	DB	00H
	DB	07H
	DB	023H
	DB	025H
	DB	00H
	DB	00H
	DB	00H
	DB	03H
	DB	03H
	DB	03H
	DB	00H
	DB	00H
	DB	00H
	DB	03H
	DB	030H
	DB	026H
	DB	032H
	DB	03H
	DB	03H
	DB	01aH
	DB	038H
	DB	05H
	DB	047H
	DB	00H
	DB	03H
	DB	030H
	DB	00H
	DB	00H
	DB	00H
	DB	00H
	DB	00H
	DB	043H
	DB	016H
	DB	070H
	DB	063H
	DB	00H
	DB	00H
	DB	06eH
	DB	01aH
	DB	00H
	DB	00H
	DB	00H
	DB	00H
	DB	00H
	DB	06bH
	DB	06eH
	DB	06bH
	DB	02dH
	DB	039H
	DB	032H
	DB	00H
	DB	030H
	DB	06bH
	DB	038H
	DB	026H
	DB	010H
	DB	00H
	DB	01aH
	DB	05H
	DB	00H
	DB	01aH
	DB	01aH
	DB	00H
	DB	00H
	DB	00H
	DB	00H
	DB	00H
	DB	00H
	DB	020H
	DB	06eH
	DB	032H
	DB	0aH
	DB	08H
	DB	048H
	DB	047H
	DB	030H
	DB	038H
	DB	026H
	DB	066H
	DB	026H
	DB	0aH
	DB	02aH
	DB	06H
	DB	01H
	DB	03H
	DB	07H
	DB	06dH
	DB	0cH
	DB	00H
	DB	03H
	DB	017H
	DB	035H
	DB	06H
	DB	02aH
	DB	07H
	DB	05H
	DB	039H
	DB	026H
	DB	060H
	DB	0c7H
	DB	0deH
	DB	0bH
	DB	00H
	DB	038H
	DB	090H
	DB	017H
	DB	02dH
	DB	026H
	DB	02dH
	DB	02dH
	DB	04bH
	DB	0aaH
	DB	0cH
	DB	00H
	DB	03H
	DB	05H
	DB	07H
	DB	01aH
	DB	026H
	DB	028H
	DB	057H
	DB	05bH
	DB	03dH
	DB	01fH
	DB	052H
	DB	07dH
	DB	07cH
	DB	082H
	DB	02H
	DB	00H
	DB	00H
	DB	00H
	DB	00H
	DB	00H
	DB	00H
	DB	07dH
	DB	011H
	DB	0a4H
	DB	015H
	DB	0fcH
	DB	015H
	DB	015H
	DB	015H
	DB	015H
	DB	015H
	DB	0a4H
	DB	0a4H
	DB	0feH
	DB	0feH
	DB	0eH
	DB	0eH
	DB	0eH
	DB	0eH
	DB	0c0H
	DB	0c0H
	DB	0c0H
	DB	0c0H
	DB	0c0H
	DB	0ffH
	DB	0ffH
	DB	0ffH
	DB	0ffH
	DB	0dH
	DB	0dH
	DB	0dH
	DB	0dH
	DB	0dH
	DB	0dH
	DB	0dH
	DB	0dH
	DB	0dH
	DB	0dH
	DB	0dH
	DB	0dH
	DB	0dH
	DB	0dH
	DB	0dH
	DB	0dH
	DB	0ffH
	DB	0ffH
	DB	0ffH
	DB	0ffH
	DB	0ffH
	DB	0c0H
	DB	0c0H
	DB	0c0H
	DB	0c0H
	DB	0eH
	DB	0eH
	DB	0eH
	DB	0eH
	DB	0feH
	DB	0feH
	DB	0a4H
	DB	0a4H
	DB	0a4H
	DB	015H
	DB	015H
	DB	015H
	DB	015H
	DB	0fcH
	DB	0fcH
	DB	0fcH
	DB	015H
	DB	0a4H
	DB	08cH
	DB	07cH
	DB	00H
	DB	00H
	DB	00H
	DB	00H
	DB	00H
	DB	00H
	DB	02H
	DB	01bH
	DB	01eH
	DB	075H
	DB	0adH
	DB	082H
	DB	01H
	DB	08H
	DB	038H
	DB	02aH
	DB	016H
	DB	02cH
	DB	018H
	DB	0aH
	DB	0aH
	DB	018H
	DB	02cH
	DB	046H
	DB	046H
	DB	016H
	DB	0cH
	DB	019H
	DB	02H
	DB	00H
	DB	00H
	DB	08H
	DB	02eH
	DB	06H
	DB	0aH
	DB	018H
	DB	035H
	DB	06H
	DB	08H
	DB	018H
	DB	02eH
	DB	046H
	DB	02eH
	DB	018H
	DB	017H
	DB	017H
	DB	06H
	DB	017H
	DB	060H
	DB	017H
	DB	06H
	DB	014H
	DB	017H
	DB	017H
	DB	049H
	DB	02cH
	DB	06H
	DB	08H
	DB	02dH
	DB	02aH
	DB	08H
	DB	068H
	DB	053H
	DB	04H
	DB	00H
	DB	04H
	DB	03H
	DB	00H
	DB	03H
	DB	04H
	DB	02H
	DB	08H
	DB	02H
	DB	01H
	DB	01fH
	DB	0cH
	DB	00H
	DB	00H
	DB	00H
	DB	00H
	DB	00H
	DB	026H
	DB	017H
	DB	08H
	DB	026H
	DB	060H
	DB	022H
	DB	016H
	DB	017H
	DB	017H
	DB	03aH
	DB	018H
	DB	0aH
	DB	014H
	DB	017H
	DB	017H
	DB	018H
	DB	06H
	DB	017H
	DB	041H
	DB	02eH
	DB	018H
	DB	018H
	DB	017H
	DB	017H
	DB	03aH
	DB	03aH
	DB	018H
	DB	06H
	DB	08H
	DB	06H
	DB	028H
	DB	06H
	DB	014H
	DB	06H
	DB	02aH
	DB	06H
	DB	018H
	DB	06H
	DB	06H
	DB	0aH
	DB	04bH
	DB	06H
	DB	068H
	DB	02dH
	DB	08H
	DB	06H
	DB	06H
	DB	02aH
	DB	02H
	DB	07H
	DB	07H
	DB	02H
	DB	014H
	DB	05H
	DB	05H
	DB	016H
	DB	04aH
	DB	02aH
	DB	019H
	DB	06cH
	DB	014H
	DB	08H
	DB	0aH
	DB	014H
	DB	02H
	DB	032H
	DB	05H
	DB	0bH
	DB	0bH
	DB	05H
	DB	07H
	DB	01H
	DB	05H
	DB	05H
	DB	010H
	DB	010H
	DB	0bH
	DB	05H
	DB	01H
	DB	04H
	DB	01H
	DB	05H
	DB	05H
	DB	047H
	DB	07H
	DB	02H
	DB	05H
	DB	04H
	DB	04H
	DB	098H
	DB	05dH
	DB	02fH
	DB	021H
	DB	03H
	DB	04H
	DB	010H
	DB	04H
	DB	03H
	DB	010H
	DB	010H
	DB	0bH
	DB	01H
	DB	00H
	DB	010H
	DB	01H
	DB	04H
	DB	019H
	DB	019H
	DB	03H
	DB	00H
	DB	00H
	DB	010H
	DB	01H
	DB	03H
	DB	00H
	DB	00H
	DB	00H
	DB	00H
	DB	00H
	DB	00H
	DB	00H
	DB	00H
	DB	00H
	DB	00H
	DB	00H
	DB	00H
	DB	00H
	DB	00H
	DB	00H
	DB	00H
	DB	00H
	DB	00H
	DB	00H
	DB	00H
	DB	00H
	DB	00H
	DB	00H
	DB	00H
	DB	00H
	DB	00H
	DB	00H
	DB	00H
	DB	00H
	DB	00H
	DB	00H
	DB	00H
	DB	00H
	DB	00H
	DB	00H
	DB	00H
	DB	00H
	DB	00H
	DB	00H
	DB	00H
	DB	00H
	DB	03H
	DB	030H
	DB	03H
	DB	03H
	DB	00H
	DB	00H
	DB	00H
	DB	03H
	DB	00H
	DB	00H
	DB	00H
	DB	03H
	DB	01aH
	DB	03H
	DB	00H
	DB	00H
	DB	03H
	DB	03H
	DB	03H
	DB	03H
	DB	03H
	DB	030H
	DB	01aH
	DB	01H
	DB	047H
	DB	01aH
	DB	03H
	DB	03H
	DB	030H
	DB	01aH
	DB	03H
	DB	00H
	DB	00H
	DB	00H
	DB	00H
	DB	00H
	DB	00H
	DB	00H
	DB	07H
	DB	0cH
	DB	020H
	DB	03H
	DB	030H
	DB	03H
	DB	03H
	DB	04H
	DB	043H
	DB	03H
	DB	00H
	DB	00H
	DB	03H
	DB	03H
	DB	030H
	DB	030H
	DB	01aH
	DB	01aH
	DB	01aH
	DB	010H
	DB	03H
	DB	00H
	DB	00H
	DB	00H
	DB	043H
	DB	043H
	DB	00H
	DB	00H
	DB	00H
	DB	00H
	DB	043H
	DB	02H
	DB	019H
	DB	00H
	DB	00H
	DB	00H
	DB	01aH
	DB	039H
	DB	04H
	DB	00H
	DB	00H
	DB	00H
	DB	00H
	DB	06bH
	DB	050H
	DB	050H
	DB	039H
	DB	05H
	DB	032H
	DB	01aH
	DB	032H
	DB	038H
	DB	0aH
	DB	026H
	DB	00H
	DB	00H
	DB	01aH
	DB	04H
	DB	03H
	DB	01aH
	DB	07H
	DB	03H
	DB	00H
	DB	00H
	DB	01H
	DB	00H
	DB	043H
	DB	05eH
	DB	04aH
	DB	0aH
	DB	03H
	DB	04H
	DB	032H
	DB	03H
	DB	09fH
	DB	026H
	DB	026H
	DB	0aH
	DB	03aH
	DB	077H
	DB	0b3H
	DB	0a7H
	DB	00H
	DB	030H
	DB	02H
	DB	0aeH
	DB	00H
	DB	00H
	DB	030H
	DB	066H
	DB	02dH
	DB	03eH
	DB	07fH
	DB	06H
	DB	06bH
	DB	026H
	DB	05H
	DB	032H
	DB	04H
	DB	047H
	DB	047H
	DB	03H
	DB	02dH
	DB	049H
	DB	05H
	DB	026H
	DB	026H
	DB	02cH
	DB	022H
	DB	023H
	DB	025H
	DB	043H
	DB	020H
	DB	030H
	DB	026H
	DB	0aH
	DB	0aH
	DB	02dH
	DB	0aH
	DB	07H
	DB	01H
	DB	0bH
	DB	07fH
	DB	0fH
	DB	07dH
	DB	07fH
	DB	01H
	DB	00H
	DB	00H
	DB	00H
	DB	00H
	DB	00H
	DB	07fH
	DB	01eH
	DB	015H
	DB	015H
	DB	015H
	DB	015H
	DB	015H
	DB	015H
	DB	015H
	DB	015H
	DB	0a4H
	DB	0feH
	DB	0feH
	DB	0eH
	DB	0eH
	DB	0eH
	DB	0eH
	DB	0c0H
	DB	0c0H
	DB	0c0H
	DB	0ffH
	DB	0ffH
	DB	0ffH
	DB	0dH
	DB	0dH
	DB	0dH
	DB	0dH
	DB	0dH
	DB	0dH
	DB	0dH
	DB	0dH
	DB	0dH
	DB	0dH
	DB	0dH
	DB	0c1H
	DB	0c1H
	DB	0dH
	DB	0dH
	DB	0dH
	DB	0c1H
	DB	0c1H
	DB	0dH
	DB	0dH
	DB	0dH
	DB	0dH
	DB	0dH
	DB	0dH
	DB	0dH
	DB	0dH
	DB	0dH
	DB	0dH
	DB	0dH
	DB	0ffH
	DB	0ffH
	DB	0c0H
	DB	0c0H
	DB	0c0H
	DB	0eH
	DB	0eH
	DB	0eH
	DB	0eH
	DB	0feH
	DB	0feH
	DB	0a4H
	DB	0a4H
	DB	015H
	DB	015H
	DB	015H
	DB	015H
	DB	015H
	DB	0fcH
	DB	0fcH
	DB	015H
	DB	015H
	DB	0faH
	DB	016H
	DB	00H
	DB	00H
	DB	00H
	DB	00H
	DB	00H
	DB	020H
	DB	0fH
	DB	01cH
	DB	011H
	DB	011H
	DB	0fH
	DB	04H
	DB	049H
	DB	02cH
	DB	016H
	DB	017H
	DB	02eH
	DB	023H
	DB	07H
	DB	03eH
	DB	02eH
	DB	046H
	DB	046H
	DB	04cH
	DB	021H
	DB	020H
	DB	07H
	DB	04H
	DB	0aH
	DB	018H
	DB	06fH
	DB	018H
	DB	03eH
	DB	02cH
	DB	016H
	DB	08H
	DB	08H
	DB	018H
	DB	02cH
	DB	022H
	DB	018H
	DB	08H
	DB	017H
	DB	017H
	DB	017H
	DB	02cH
	DB	016H
	DB	031H
	DB	0aH
	DB	0aH
	DB	02dH
	DB	060H
	DB	017H
	DB	06H
	DB	08H
	DB	028H
	DB	060H
	DB	017H
	DB	08H
	DB	08H
	DB	017H
	DB	02aH
	DB	00H
	DB	04H
	DB	050H
	DB	053H
	DB	026H
	DB	026H
	DB	0aH
	DB	05H
	DB	019H
	DB	021H
	DB	06H
	DB	01H
	DB	025H
	DB	00H
	DB	00H
	DB	00H
	DB	00H
	DB	04bH
	DB	028H
	DB	0aH
	DB	02dH
	DB	05fH
	DB	02fH
	DB	028H
	DB	017H
	DB	018H
	DB	016H
	DB	017H
	DB	08H
	DB	08H
	DB	04bH
	DB	02dH
	DB	08H
	DB	01fH
	DB	018H
	DB	017H
	DB	06H
	DB	014H
	DB	018H
	DB	017H
	DB	017H
	DB	016H
	DB	018H
	DB	08H
	DB	018H
	DB	018H
	DB	06H
	DB	0aH
	DB	06H
	DB	08H
	DB	0aH
	DB	0aH
	DB	06H
	DB	018H
	DB	018H
	DB	018H
	DB	0aH
	DB	014H
	DB	0aH
	DB	02aH
	DB	08H
	DB	08H
	DB	02aH
	DB	0aH
	DB	0aH
	DB	0bH
	DB	04H
	DB	04H
	DB	01H
	DB	04H
	DB	01H
	DB	014H
	DB	080H
	DB	072H
	DB	031H
	DB	03H
	DB	07H
	DB	02H
	DB	02H
	DB	02aH
	DB	021H
	DB	04H
	DB	010H
	DB	047H
	DB	021H
	DB	02H
	DB	021H
	DB	01H
	DB	04H
	DB	0aeH
	DB	010H
	DB	00H
	DB	00H
	DB	0aeH
	DB	0bH
	DB	0bH
	DB	04H
	DB	01H
	DB	05H
	DB	01H
	DB	04H
	DB	07H
	DB	0aH
	DB	02H
	DB	07H
	DB	047H
	DB	048H
	DB	05dH
	DB	01fH
	DB	04H
	DB	00H
	DB	04H
	DB	01H
	DB	07H
	DB	01H
	DB	04H
	DB	010H
	DB	010H
	DB	00H
	DB	00H
	DB	04H
	DB	01H
	DB	01H
	DB	03H
	DB	020H
	DB	04H
	DB	04H
	DB	01H
	DB	05H
	DB	07H
	DB	03H
	DB	00H
	DB	00H
	DB	00H
	DB	00H
	DB	00H
	DB	00H
	DB	00H
	DB	00H
	DB	00H
	DB	00H
	DB	00H
	DB	00H
	DB	00H
	DB	00H
	DB	00H
	DB	00H
	DB	00H
	DB	00H
	DB	00H
	DB	00H
	DB	00H
	DB	00H
	DB	00H
	DB	00H
	DB	00H
	DB	00H
	DB	00H
	DB	00H
	DB	00H
	DB	00H
	DB	00H
	DB	00H
	DB	00H
	DB	00H
	DB	00H
	DB	00H
	DB	00H
	DB	00H
	DB	00H
	DB	00H
	DB	00H
	DB	03H
	DB	03H
	DB	00H
	DB	00H
	DB	025H
	DB	025H
	DB	00H
	DB	03H
	DB	03H
	DB	00H
	DB	03H
	DB	03H
	DB	030H
	DB	03H
	DB	00H
	DB	03H
	DB	020H
	DB	03H
	DB	03H
	DB	03H
	DB	03H
	DB	030H
	DB	03H
	DB	03H
	DB	01aH
	DB	01aH
	DB	03H
	DB	04H
	DB	030H
	DB	043H
	DB	020H
	DB	03H
	DB	00H
	DB	00H
	DB	00H
	DB	00H
	DB	00H
	DB	03H
	DB	00H
	DB	03H
	DB	03H
	DB	030H
	DB	030H
	DB	030H
	DB	01aH
	DB	01aH
	DB	093H
	DB	038H
	DB	07H
	DB	03H
	DB	03H
	DB	03H
	DB	03H
	DB	03H
	DB	03H
	DB	03H
	DB	03H
	DB	03H
	DB	030H
	DB	03H
	DB	00H
	DB	00H
	DB	01aH
	DB	04H
	DB	03H
	DB	00H
	DB	00H
	DB	00H
	DB	00H
	DB	00H
	DB	00H
	DB	00H
	DB	03H
	DB	030H
	DB	030H
	DB	026H
	DB	047H
	DB	00H
	DB	00H
	DB	03H
	DB	03H
	DB	01aH
	DB	049H
	DB	01fH
	DB	019H
	DB	00H
	DB	00H
	DB	03H
	DB	030H
	DB	01aH
	DB	0aH
	DB	039H
	DB	06eH
	DB	06eH
	DB	032H
	DB	01aH
	DB	038H
	DB	01aH
	DB	01aH
	DB	047H
	DB	03H
	DB	043H
	DB	01H
	DB	00H
	DB	068H
	DB	012H
	DB	051H
	DB	05eH
	DB	02aH
	DB	020H
	DB	00H
	DB	07H
	DB	022H
	DB	02fH
	DB	026H
	DB	066H
	DB	022H
	DB	0b3H
	DB	085H
	DB	00H
	DB	09fH
	DB	0c8H
	DB	028H
	DB	00H
	DB	03H
	DB	03H
	DB	01aH
	DB	02dH
	DB	049H
	DB	022H
	DB	04aH
	DB	02fH
	DB	06H
	DB	06fH
	DB	050H
	DB	038H
	DB	043H
	DB	043H
	DB	010H
	DB	03H
	DB	039H
	DB	0a8H
	DB	05H
	DB	038H
	DB	0b0H
	DB	035H
	DB	071H
	DB	0cH
	DB	03H
	DB	026H
	DB	02H
	DB	030H
	DB	038H
	DB	018H
	DB	017H
	DB	08H
	DB	08H
	DB	07H
	DB	07H
	DB	07fH
	DB	0fH
	DB	0fH
	DB	016H
	DB	00H
	DB	00H
	DB	00H
	DB	00H
	DB	00H
	DB	0bH
	DB	088H
	DB	07eH
	DB	0a4H
	DB	015H
	DB	015H
	DB	015H
	DB	015H
	DB	015H
	DB	0a4H
	DB	0a4H
	DB	0feH
	DB	0eH
	DB	0eH
	DB	0eH
	DB	0eH
	DB	0c0H
	DB	0c0H
	DB	0c0H
	DB	0ffH
	DB	0ffH
	DB	0dH
	DB	0dH
	DB	0dH
	DB	0dH
	DB	0dH
	DB	0dH
	DB	0dH
	DB	0c1H
	DB	0c1H
	DB	0c1H
	DB	0c1H
	DB	0c1H
	DB	0c1H
	DB	0c1H
	DB	0c1H
	DB	0c1H
	DB	0c1H
	DB	0c1H
	DB	0c1H
	DB	0c1H
	DB	0c1H
	DB	0c1H
	DB	0c1H
	DB	0c1H
	DB	0c1H
	DB	0c1H
	DB	0c1H
	DB	0c1H
	DB	0c1H
	DB	0c1H
	DB	0dH
	DB	0dH
	DB	0dH
	DB	0dH
	DB	0dH
	DB	0dH
	DB	0ffH
	DB	0ffH
	DB	0ffH
	DB	0c0H
	DB	0c0H
	DB	0eH
	DB	0eH
	DB	0eH
	DB	0eH
	DB	0feH
	DB	0a4H
	DB	0a4H
	DB	015H
	DB	015H
	DB	015H
	DB	015H
	DB	015H
	DB	0fcH
	DB	015H
	DB	0a4H
	DB	09H
	DB	027H
	DB	00H
	DB	00H
	DB	00H
	DB	00H
	DB	00H
	DB	00H
	DB	07fH
	DB	024H
	DB	011H
	DB	011H
	DB	01bH
	DB	05H
	DB	017H
	DB	014H
	DB	08H
	DB	02eH
	DB	023H
	DB	05H
	DB	094H
	DB	094H
	DB	094H
	DB	017H
	DB	031H
	DB	068H
	DB	02dH
	DB	08H
	DB	017H
	DB	035H
	DB	02cH
	DB	041H
	DB	05eH
	DB	02cH
	DB	02cH
	DB	017H
	DB	018H
	DB	06H
	DB	02dH
	DB	017H
	DB	03aH
	DB	08H
	DB	02cH
	DB	05eH
	DB	02cH
	DB	02eH
	DB	02eH
	DB	06H
	DB	053H
	DB	041H
	DB	02cH
	DB	0aH
	DB	017H
	DB	06H
	DB	026H
	DB	08H
	DB	018H
	DB	02cH
	DB	016H
	DB	018H
	DB	018H
	DB	018H
	DB	02aH
	DB	03H
	DB	047H
	DB	0e9H
	DB	06aH
	DB	04bH
	DB	048H
	DB	017H
	DB	02aH
	DB	07H
	DB	02dH
	DB	02dH
	DB	01dH
	DB	019H
	DB	053H
	DB	079H
	DB	020H
	DB	00H
	DB	08H
	DB	017H
	DB	018H
	DB	03eH
	DB	017H
	DB	02H
	DB	014H
	DB	018H
	DB	017H
	DB	016H
	DB	018H
	DB	02aH
	DB	0aH
	DB	014H
	DB	048H
	DB	08H
	DB	0aH
	DB	08H
	DB	02H
	DB	04H
	DB	05H
	DB	028H
	DB	028H
	DB	06H
	DB	028H
	DB	01fH
	DB	047H
	DB	08H
	DB	018H
	DB	053H
	DB	05H
	DB	08H
	DB	02H
	DB	05H
	DB	0aH
	DB	08H
	DB	08H
	DB	018H
	DB	0aH
	DB	07H
	DB	05H
	DB	06dH
	DB	07aH
	DB	06H
	DB	0aH
	DB	0aH
	DB	02aH
	DB	0aH
	DB	01H
	DB	047H
	DB	04H
	DB	01H
	DB	07H
	DB	04H
	DB	048H
	DB	080H
	DB	09bH
	DB	031H
	DB	05H
	DB	05H
	DB	020H
	DB	023H
	DB	0a9H
	DB	07H
	DB	03H
	DB	010H
	DB	02H
	DB	02aH
	DB	02H
	DB	021H
	DB	07H
	DB	020H
	DB	00H
	DB	010H
	DB	010H
	DB	010H
	DB	04H
	DB	010H
	DB	010H
	DB	010H
	DB	04H
	DB	07H
	DB	01aH
	DB	04H
	DB	0bH
	DB	0aH
	DB	0aH
	DB	05H
	DB	047H
	DB	0bH
	DB	0bH
	DB	01H
	DB	00H
	DB	010H
	DB	047H
	DB	01H
	DB	0bH
	DB	05H
	DB	01H
	DB	04H
	DB	010H
	DB	03H
	DB	04H
	DB	047H
	DB	05H
	DB	0bH
	DB	07H
	DB	07H
	DB	0bH
	DB	0bH
	DB	014H
	DB	02H
	DB	01H
	DB	020H
	DB	03H
	DB	00H
	DB	00H
	DB	00H
	DB	03H
	DB	00H
	DB	00H
	DB	00H
	DB	00H
	DB	00H
	DB	00H
	DB	00H
	DB	00H
	DB	00H
	DB	00H
	DB	00H
	DB	00H
	DB	00H
	DB	00H
	DB	00H
	DB	00H
	DB	00H
	DB	00H
	DB	00H
	DB	00H
	DB	00H
	DB	00H
	DB	00H
	DB	00H
	DB	00H
	DB	00H
	DB	00H
	DB	00H
	DB	00H
	DB	00H
	DB	00H
	DB	00H
	DB	00H
	DB	00H
	DB	03H
	DB	03H
	DB	00H
	DB	00H
	DB	00H
	DB	00H
	DB	03fH
	DB	063H
	DB	00H
	DB	00H
	DB	00H
	DB	025H
	DB	03H
	DB	03H
	DB	03H
	DB	03H
	DB	03H
	DB	00H
	DB	00H
	DB	00H
	DB	03H
	DB	03H
	DB	030H
	DB	030H
	DB	00H
	DB	00H
	DB	03H
	DB	03H
	DB	03H
	DB	03H
	DB	03H
	DB	03H
	DB	03H
	DB	00H
	DB	00H
	DB	00H
	DB	01H
	DB	019H
	DB	03H
	DB	030H
	DB	020H
	DB	00H
	DB	00H
	DB	03H
	DB	03H
	DB	030H
	DB	01aH
	DB	04H
	DB	030H
	DB	038H
	DB	032H
	DB	03H
	DB	00H
	DB	03H
	DB	03H
	DB	03H
	DB	00H
	DB	00H
	DB	03H
	DB	043H
	DB	026H
	DB	0aH
	DB	05H
	DB	03H
	DB	03H
	DB	03H
	DB	00H
	DB	00H
	DB	00H
	DB	03H
	DB	00H
	DB	00H
	DB	00H
	DB	03H
	DB	00H
	DB	03H
	DB	01aH
	DB	01H
	DB	04H
	DB	03H
	DB	03H
	DB	07H
	DB	01aH
	DB	00H
	DB	032H
	DB	02H
	DB	025H
	DB	03H
	DB	00H
	DB	00H
	DB	06eH
	DB	06bH
	DB	07H
	DB	08H
	DB	039H
	DB	066H
	DB	06bH
	DB	07H
	DB	026H
	DB	026H
	DB	04H
	DB	01aH
	DB	032H
	DB	07H
	DB	00H
	DB	03H
	DB	02eH
	DB	080H
	DB	035H
	DB	052H
	DB	012H
	DB	07fH
	DB	053H
	DB	04H
	DB	06dH
	DB	06dH
	DB	02H
	DB	0aH
	DB	06dH
	DB	0a7H
	DB	00H
	DB	00H
	DB	066H
	DB	0cbH
	DB	0a7H
	DB	00H
	DB	01aH
	DB	047H
	DB	026H
	DB	049H
	DB	08H
	DB	0aH
	DB	05H
	DB	02H
	DB	06H
	DB	07fH
	DB	041H
	DB	08H
	DB	03aH
	DB	06dH
	DB	010H
	DB	00H
	DB	0bH
	DB	0a7H
	DB	021H
	DB	090H
	DB	02cH
	DB	01fH
	DB	0a7H
	DB	01H
	DB	030H
	DB	017H
	DB	04dH
	DB	019H
	DB	0c4H
	DB	03eH
	DB	05fH
	DB	039H
	DB	0bH
	DB	021H
	DB	022H
	DB	0a3H
	DB	0a3H
	DB	018H
	DB	00H
	DB	00H
	DB	00H
	DB	00H
	DB	00H
	DB	012H
	DB	055H
	DB	0feH
	DB	015H
	DB	015H
	DB	015H
	DB	015H
	DB	015H
	DB	0a4H
	DB	0a4H
	DB	0feH
	DB	0eH
	DB	0eH
	DB	0eH
	DB	0eH
	DB	0c0H
	DB	0c0H
	DB	0ffH
	DB	0ffH
	DB	0dH
	DB	0dH
	DB	0dH
	DB	0dH
	DB	0dH
	DB	0dH
	DB	0c1H
	DB	0c1H
	DB	0c1H
	DB	0c1H
	DB	0c1H
	DB	0c1H
	DB	0c1H
	DB	0c1H
	DB	0c1H
	DB	013H
	DB	013H
	DB	013H
	DB	013H
	DB	013H
	DB	013H
	DB	013H
	DB	013H
	DB	013H
	DB	013H
	DB	013H
	DB	013H
	DB	013H
	DB	013H
	DB	0c1H
	DB	0c1H
	DB	0c1H
	DB	0c1H
	DB	0c1H
	DB	0c1H
	DB	0c1H
	DB	0c1H
	DB	0dH
	DB	0dH
	DB	0dH
	DB	0dH
	DB	0dH
	DB	0ffH
	DB	0ffH
	DB	0c0H
	DB	0c0H
	DB	0c0H
	DB	0eH
	DB	0eH
	DB	0eH
	DB	0feH
	DB	0a4H
	DB	0a4H
	DB	015H
	DB	015H
	DB	015H
	DB	015H
	DB	0fcH
	DB	0fcH
	DB	015H
	DB	0feH
	DB	067H
	DB	07fH
	DB	00H
	DB	00H
	DB	00H
	DB	00H
	DB	00H
	DB	016H
	DB	024H
	DB	0adH
	DB	011H
	DB	0eeH
	DB	04H
	DB	05H
	DB	06H
	DB	018H
	DB	06H
	DB	018H
	DB	016H
	DB	017H
	DB	02dH
	DB	02aH
	DB	0a9H
	DB	017H
	DB	03eH
	DB	02cH
	DB	035H
	DB	08H
	DB	022H
	DB	05aH
	DB	07fH
	DB	017H
	DB	06H
	DB	06H
	DB	06H
	DB	03aH
	DB	018H
	DB	017H
	DB	06H
	DB	08H
	DB	016H
	DB	016H
	DB	017H
	DB	016H
	DB	017H
	DB	018H
	DB	03eH
	DB	0e9H
	DB	052H
	DB	08H
	DB	06H
	DB	018H
	DB	018H
	DB	018H
	DB	017H
	DB	02cH
	DB	017H
	DB	02cH
	DB	03eH
	DB	06fH
	DB	03aH
	DB	053H
	DB	032H
	DB	08fH
	DB	0a7H
	DB	019H
	DB	0bH
	DB	028H
	DB	018H
	DB	018H
	DB	018H
	DB	0aH
	DB	019H
	DB	00H
	DB	04aH
	DB	07dH
	DB	089H
	DB	00H
	DB	0d9H
	DB	017H
	DB	016H
	DB	017H
	DB	017H
	DB	018H
	DB	028H
	DB	017H
	DB	08H
	DB	08H
	DB	06H
	DB	01fH
	DB	02H
	DB	07H
	DB	05H
	DB	06H
	DB	039H
	DB	039H
	DB	021H
	DB	043H
	DB	021H
	DB	014H
	DB	014H
	DB	014H
	DB	06H
	DB	02H
	DB	048H
	DB	04bH
	DB	04bH
	DB	0aH
	DB	02aH
	DB	02H
	DB	02H
	DB	08H
	DB	017H
	DB	02dH
	DB	07H
	DB	014H
	DB	018H
	DB	0aH
	DB	047H
	DB	05dH
	DB	06dH
	DB	06H
	DB	0aH
	DB	02aH
	DB	018H
	DB	02aH
	DB	07H
	DB	01H
	DB	07H
	DB	05H
	DB	021H
	DB	04H
	DB	014H
	DB	07aH
	DB	05bH
	DB	01fH
	DB	02aH
	DB	021H
	DB	04H
	DB	02H
	DB	06H
	DB	0aH
	DB	04H
	DB	047H
	DB	014H
	DB	0aH
	DB	0aH
	DB	02H
	DB	01H
	DB	04H
	DB	01H
	DB	07H
	DB	01H
	DB	04H
	DB	04H
	DB	04H
	DB	010H
	DB	04H
	DB	07H
	DB	0aH
	DB	066H
	DB	032H
	DB	04H
	DB	02H
	DB	0aH
	DB	01H
	DB	010H
	DB	010H
	DB	010H
	DB	010H
	DB	00H
	DB	0a7H
	DB	06H
	DB	04H
	DB	010H
	DB	047H
	DB	01H
	DB	0bH
	DB	0bH
	DB	010H
	DB	0bH
	DB	02H
	DB	07H
	DB	047H
	DB	05H
	DB	021H
	DB	0bH
	DB	0cH
	DB	02H
	DB	0bH
	DB	01H
	DB	010H
	DB	00H
	DB	00H
	DB	00H
	DB	00H
	DB	00H
	DB	00H
	DB	00H
	DB	00H
	DB	00H
	DB	00H
	DB	00H
	DB	00H
	DB	00H
	DB	00H
	DB	00H
	DB	00H
	DB	00H
	DB	00H
	DB	00H
	DB	00H
	DB	00H
	DB	00H
	DB	00H
	DB	00H
	DB	00H
	DB	00H
	DB	00H
	DB	00H
	DB	00H
	DB	00H
	DB	00H
	DB	00H
	DB	00H
	DB	00H
	DB	00H
	DB	00H
	DB	00H
	DB	03H
	DB	03H
	DB	03H
	DB	00H
	DB	00H
	DB	00H
	DB	00H
	DB	00H
	DB	025H
	DB	00H
	DB	00H
	DB	00H
	DB	00H
	DB	00H
	DB	00H
	DB	00H
	DB	00H
	DB	03H
	DB	03H
	DB	00H
	DB	00H
	DB	00H
	DB	00H
	DB	03H
	DB	03H
	DB	04H
	DB	00H
	DB	00H
	DB	00H
	DB	03H
	DB	03H
	DB	03H
	DB	03H
	DB	00H
	DB	03H
	DB	00H
	DB	03H
	DB	030H
	DB	047H
	DB	04H
	DB	03H
	DB	01dH
	DB	020H
	DB	00H
	DB	00H
	DB	03H
	DB	03H
	DB	03H
	DB	01aH
	DB	07H
	DB	03H
	DB	03H
	DB	00H
	DB	03H
	DB	030H
	DB	01aH
	DB	01aH
	DB	030H
	DB	04H
	DB	04H
	DB	03H
	DB	038H
	DB	08H
	DB	014H
	DB	02H
	DB	07H
	DB	03H
	DB	03H
	DB	03H
	DB	03H
	DB	07H
	DB	039H
	DB	032H
	DB	06eH
	DB	038H
	DB	032H
	DB	03H
	DB	00H
	DB	03H
	DB	03H
	DB	00H
	DB	03H
	DB	03H
	DB	03H
	DB	00H
	DB	00H
	DB	030H
	DB	038H
	DB	03H
	DB	030H
	DB	04H
	DB	03H
	DB	05H
	DB	05H
	DB	026H
	DB	0aH
	DB	026H
	DB	039H
	DB	01aH
	DB	06eH
	DB	039H
	DB	026H
	DB	043H
	DB	03H
	DB	01aH
	DB	01aH
	DB	00H
	DB	038H
	DB	052H
	DB	052H
	DB	07fH
	DB	07fH
	DB	012H
	DB	012H
	DB	012H
	DB	05H
	DB	010H
	DB	06cH
	DB	010H
	DB	010H
	DB	0bH
	DB	03H
	DB	00H
	DB	030H
	DB	032H
	DB	0bH
	DB	04H
	DB	030H
	DB	01aH
	DB	032H
	DB	0aH
	DB	08H
	DB	06bH
	DB	026H
	DB	01aH
	DB	06eH
	DB	018H
	DB	022H
	DB	095H
	DB	02dH
	DB	04bH
	DB	08fH
	DB	00H
	DB	00H
	DB	010H
	DB	010H
	DB	04H
	DB	04bH
	DB	014H
	DB	04H
	DB	010H
	DB	03H
	DB	01aH
	DB	098H
	DB	03fH
	DB	00H
	DB	050H
	DB	02cH
	DB	017H
	DB	05H
	DB	01H
	DB	022H
	DB	012H
	DB	012H
	DB	014H
	DB	00H
	DB	00H
	DB	00H
	DB	00H
	DB	00H
	DB	087H
	DB	0fcH
	DB	015H
	DB	015H
	DB	015H
	DB	015H
	DB	015H
	DB	015H
	DB	0a4H
	DB	0feH
	DB	0eH
	DB	0eH
	DB	0eH
	DB	0eH
	DB	0c0H
	DB	0c0H
	DB	0ffH
	DB	0ffH
	DB	0dH
	DB	0dH
	DB	0dH
	DB	0dH
	DB	0dH
	DB	0c1H
	DB	0c1H
	DB	0c1H
	DB	0c1H
	DB	0c1H
	DB	0c1H
	DB	013H
	DB	013H
	DB	013H
	DB	013H
	DB	013H
	DB	013H
	DB	013H
	DB	013H
	DB	013H
	DB	013H
	DB	013H
	DB	013H
	DB	013H
	DB	013H
	DB	013H
	DB	013H
	DB	013H
	DB	013H
	DB	013H
	DB	013H
	DB	013H
	DB	013H
	DB	013H
	DB	013H
	DB	013H
	DB	0c1H
	DB	0c1H
	DB	0c1H
	DB	0c1H
	DB	0c1H
	DB	0c1H
	DB	0c1H
	DB	0dH
	DB	0dH
	DB	0dH
	DB	0dH
	DB	0ffH
	DB	0ffH
	DB	0c0H
	DB	0c0H
	DB	0eH
	DB	0eH
	DB	0eH
	DB	0feH
	DB	0a4H
	DB	0a4H
	DB	015H
	DB	015H
	DB	015H
	DB	015H
	DB	015H
	DB	0fcH
	DB	0a4H
	DB	0fcH
	DB	0fH
	DB	00H
	DB	00H
	DB	00H
	DB	00H
	DB	00H
	DB	06H
	DB	027H
	DB	055H
	DB	011H
	DB	087H
	DB	07H
	DB	06H
	DB	06H
	DB	017H
	DB	016H
	DB	016H
	DB	017H
	DB	02dH
	DB	02cH
	DB	02cH
	DB	017H
	DB	060H
	DB	017H
	DB	02H
	DB	026H
	DB	02eH
	DB	051H
	DB	03dH
	DB	018H
	DB	08H
	DB	0aH
	DB	08H
	DB	018H
	DB	018H
	DB	018H
	DB	01fH
	DB	08aH
	DB	031H
	DB	017H
	DB	017H
	DB	049H
	DB	02dH
	DB	017H
	DB	028H
	DB	04bH
	DB	06H
	DB	06H
	DB	014H
	DB	014H
	DB	018H
	DB	016H
	DB	016H
	DB	02cH
	DB	016H
	DB	016H
	DB	018H
	DB	017H
	DB	016H
	DB	018H
	DB	018H
	DB	07H
	DB	00H
	DB	00H
	DB	0aeH
	DB	048H
	DB	039H
	DB	02dH
	DB	06H
	DB	05H
	DB	00H
	DB	00H
	DB	0a7H
	DB	04aH
	DB	025H
	DB	00H
	DB	0a5H
	DB	049H
	DB	02cH
	DB	02cH
	DB	02eH
	DB	035H
	DB	016H
	DB	02cH
	DB	018H
	DB	02dH
	DB	018H
	DB	01fH
	DB	02H
	DB	0aH
	DB	0aH
	DB	08H
	DB	08H
	DB	08H
	DB	053H
	DB	0aH
	DB	02H
	DB	05H
	DB	0aH
	DB	08H
	DB	08H
	DB	08H
	DB	06H
	DB	08H
	DB	08H
	DB	017H
	DB	018H
	DB	07H
	DB	021H
	DB	018H
	DB	017H
	DB	018H
	DB	07H
	DB	048H
	DB	016H
	DB	018H
	DB	07H
	DB	0bH
	DB	014H
	DB	017H
	DB	06fH
	DB	068H
	DB	02aH
	DB	08H
	DB	02aH
	DB	02H
	DB	05H
	DB	05H
	DB	02H
	DB	021H
	DB	08H
	DB	01fH
	DB	0cH
	DB	02H
	DB	08H
	DB	01H
	DB	00H
	DB	0bH
	DB	028H
	DB	06H
	DB	02H
	DB	0aH
	DB	06H
	DB	014H
	DB	02aH
	DB	020H
	DB	00H
	DB	0bH
	DB	0aH
	DB	021H
	DB	01H
	DB	01aH
	DB	05H
	DB	02H
	DB	0cH
	DB	02H
	DB	02H
	DB	08H
	DB	0aH
	DB	01H
	DB	07H
	DB	05H
	DB	01H
	DB	010H
	DB	010H
	DB	00H
	DB	00H
	DB	00H
	DB	00H
	DB	0a7H
	DB	0a2H
	DB	053H
	DB	00H
	DB	00H
	DB	010H
	DB	0aeH
	DB	010H
	DB	010H
	DB	01H
	DB	021H
	DB	03H
	DB	01aH
	DB	05H
	DB	07H
	DB	047H
	DB	04H
	DB	010H
	DB	04H
	DB	020H
	DB	00H
	DB	00H
	DB	03H
	DB	03H
	DB	00H
	DB	00H
	DB	00H
	DB	00H
	DB	00H
	DB	00H
	DB	00H
	DB	00H
	DB	00H
	DB	00H
	DB	00H
	DB	00H
	DB	00H
	DB	00H
	DB	00H
	DB	00H
	DB	00H
	DB	00H
	DB	00H
	DB	00H
	DB	00H
	DB	00H
	DB	00H
	DB	00H
	DB	00H
	DB	00H
	DB	00H
	DB	00H
	DB	00H
	DB	00H
	DB	00H
	DB	00H
	DB	00H
	DB	00H
	DB	00H
	DB	03H
	DB	00H
	DB	00H
	DB	00H
	DB	00H
	DB	00H
	DB	00H
	DB	03H
	DB	00H
	DB	00H
	DB	00H
	DB	00H
	DB	00H
	DB	00H
	DB	03H
	DB	03H
	DB	00H
	DB	00H
	DB	03H
	DB	03H
	DB	00H
	DB	00H
	DB	043H
	DB	021H
	DB	04H
	DB	03H
	DB	00H
	DB	00H
	DB	00H
	DB	00H
	DB	00H
	DB	03H
	DB	03H
	DB	030H
	DB	03H
	DB	00H
	DB	03H
	DB	03H
	DB	00H
	DB	03H
	DB	020H
	DB	00H
	DB	00H
	DB	03H
	DB	030H
	DB	01aH
	DB	04H
	DB	043H
	DB	038H
	DB	07H
	DB	03H
	DB	07H
	DB	07H
	DB	038H
	DB	038H
	DB	07H
	DB	01H
	DB	04H
	DB	01aH
	DB	01aH
	DB	039H
	DB	0aH
	DB	020H
	DB	020H
	DB	021H
	DB	01H
	DB	00H
	DB	030H
	DB	026H
	DB	02H
	DB	050H
	DB	094H
	DB	0b0H
	DB	02dH
	DB	066H
	DB	026H
	DB	04H
	DB	03H
	DB	03H
	DB	03H
	DB	00H
	DB	03H
	DB	01aH
	DB	03H
	DB	00H
	DB	030H
	DB	032H
	DB	03H
	DB	03H
	DB	03H
	DB	01aH
	DB	07H
	DB	01aH
	DB	032H
	DB	038H
	DB	066H
	DB	039H
	DB	01aH
	DB	050H
	DB	02dH
	DB	026H
	DB	038H
	DB	038H
	DB	038H
	DB	026H
	DB	04H
	DB	02dH
	DB	02eH
	DB	07fH
	DB	012H
	DB	012H
	DB	0a3H
	DB	012H
	DB	06aH
	DB	022H
	DB	00H
	DB	00H
	DB	00H
	DB	03H
	DB	03H
	DB	07H
	DB	026H
	DB	06bH
	DB	01aH
	DB	01aH
	DB	026H
	DB	026H
	DB	026H
	DB	08H
	DB	07H
	DB	032H
	DB	02dH
	DB	02dH
	DB	039H
	DB	039H
	DB	08fH
	DB	02H
	DB	039H
	DB	02dH
	DB	08H
	DB	04H
	DB	00H
	DB	00H
	DB	00H
	DB	00H
	DB	04H
	DB	010H
	DB	03H
	DB	043H
	DB	01H
	DB	010H
	DB	00H
	DB	00H
	DB	00H
	DB	030H
	DB	06fH
	DB	07fH
	DB	06H
	DB	01H
	DB	016H
	DB	012H
	DB	012H
	DB	021H
	DB	00H
	DB	00H
	DB	00H
	DB	00H
	DB	06H
	DB	01cH
	DB	0a4H
	DB	015H
	DB	015H
	DB	015H
	DB	015H
	DB	015H
	DB	0a4H
	DB	0a4H
	DB	0eH
	DB	0eH
	DB	0eH
	DB	0c0H
	DB	0c0H
	DB	0ffH
	DB	0ffH
	DB	0dH
	DB	0dH
	DB	0dH
	DB	0dH
	DB	0dH
	DB	0c1H
	DB	0c1H
	DB	0c1H
	DB	0c1H
	DB	0c1H
	DB	013H
	DB	013H
	DB	013H
	DB	013H
	DB	013H
	DB	013H
	DB	013H
	DB	013H
	DB	013H
	DB	013H
	DB	013H
	DB	013H
	DB	013H
	DB	013H
	DB	013H
	DB	013H
	DB	013H
	DB	013H
	DB	013H
	DB	013H
	DB	013H
	DB	013H
	DB	013H
	DB	013H
	DB	013H
	DB	013H
	DB	013H
	DB	013H
	DB	013H
	DB	013H
	DB	013H
	DB	013H
	DB	013H
	DB	013H
	DB	0c1H
	DB	0c1H
	DB	0c1H
	DB	0c1H
	DB	0c1H
	DB	0dH
	DB	0dH
	DB	0dH
	DB	0dH
	DB	0ffH
	DB	0c0H
	DB	0c0H
	DB	0eH
	DB	0eH
	DB	0eH
	DB	0feH
	DB	0a4H
	DB	0a4H
	DB	015H
	DB	015H
	DB	015H
	DB	015H
	DB	0fcH
	DB	015H
	DB	015H
	DB	024H
	DB	021H
	DB	00H
	DB	00H
	DB	00H
	DB	00H
	DB	02H
	DB	0efH
	DB	01eH
	DB	011H
	DB	0eeH
	DB	04H
	DB	04bH
	DB	04bH
	DB	08H
	DB	03aH
	DB	03eH
	DB	094H
	DB	02eH
	DB	06H
	DB	05H
	DB	049H
	DB	02dH
	DB	026H
	DB	02dH
	DB	08H
	DB	08H
	DB	08H
	DB	08H
	DB	06H
	DB	02H
	DB	07H
	DB	08H
	DB	018H
	DB	0aH
	DB	089H
	DB	076H
	DB	023H
	DB	018H
	DB	018H
	DB	017H
	DB	017H
	DB	05H
	DB	03H
	DB	05H
	DB	049H
	DB	06H
	DB	021H
	DB	02H
	DB	017H
	DB	03eH
	DB	08H
	DB	08H
	DB	017H
	DB	02aH
	DB	02H
	DB	039H
	DB	049H
	DB	017H
	DB	017H
	DB	02dH
	DB	020H
	DB	00H
	DB	00H
	DB	00H
	DB	047H
	DB	047H
	DB	0bH
	DB	07H
	DB	00H
	DB	00H
	DB	03H
	DB	00H
	DB	030H
	DB	053H
	DB	026H
	DB	05fH
	DB	046H
	DB	080H
	DB	02eH
	DB	016H
	DB	035H
	DB	02eH
	DB	02cH
	DB	016H
	DB	016H
	DB	06H
	DB	018H
	DB	018H
	DB	08H
	DB	08H
	DB	028H
	DB	08H
	DB	0aH
	DB	08H
	DB	0aH
	DB	02H
	DB	0aH
	DB	0aH
	DB	02aH
	DB	02fH
	DB	02fH
	DB	018H
	DB	018H
	DB	028H
	DB	06H
	DB	026H
	DB	018H
	DB	02cH
	DB	06H
	DB	06H
	DB	0aH
	DB	0aH
	DB	03aH
	DB	018H
	DB	08H
	DB	08H
	DB	04bH
	DB	017H
	DB	018H
	DB	06H
	DB	026H
	DB	0aH
	DB	06H
	DB	06H
	DB	026H
	DB	026H
	DB	0aH
	DB	02H
	DB	048H
	DB	02H
	DB	07H
	DB	07H
	DB	032H
	DB	01aH
	DB	01H
	DB	05dH
	DB	028H
	DB	06H
	DB	06H
	DB	0aH
	DB	0aH
	DB	02H
	DB	02H
	DB	020H
	DB	01H
	DB	014H
	DB	02aH
	DB	021H
	DB	01aH
	DB	047H
	DB	04bH
	DB	028H
	DB	01H
	DB	010H
	DB	0bH
	DB	02H
	DB	05H
	DB	02H
	DB	06H
	DB	021H
	DB	03H
	DB	03H
	DB	04H
	DB	03H
	DB	00H
	DB	00H
	DB	00H
	DB	0d8H
	DB	0ceH
	DB	04aH
	DB	043H
	DB	00H
	DB	00H
	DB	00H
	DB	00H
	DB	010H
	DB	01H
	DB	01H
	DB	01dH
	DB	02H
	DB	023H
	DB	021H
	DB	01H
	DB	010H
	DB	00H
	DB	03H
	DB	03H
	DB	03H
	DB	010H
	DB	03H
	DB	00H
	DB	00H
	DB	00H
	DB	00H
	DB	00H
	DB	00H
	DB	00H
	DB	00H
	DB	00H
	DB	00H
	DB	00H
	DB	00H
	DB	00H
	DB	00H
	DB	00H
	DB	00H
	DB	00H
	DB	00H
	DB	00H
	DB	00H
	DB	00H
	DB	00H
	DB	00H
	DB	00H
	DB	00H
	DB	00H
	DB	00H
	DB	00H
	DB	00H
	DB	00H
	DB	00H
	DB	03H
	DB	00H
	DB	00H
	DB	00H
	DB	00H
	DB	00H
	DB	00H
	DB	00H
	DB	00H
	DB	00H
	DB	00H
	DB	00H
	DB	00H
	DB	00H
	DB	00H
	DB	00H
	DB	03H
	DB	01H
	DB	00H
	DB	03H
	DB	03H
	DB	03H
	DB	010H
	DB	00H
	DB	03H
	DB	00H
	DB	00H
	DB	020H
	DB	07H
	DB	03H
	DB	00H
	DB	00H
	DB	00H
	DB	020H
	DB	084H
	DB	0cH
	DB	03H
	DB	06eH
	DB	07H
	DB	030H
	DB	03H
	DB	00H
	DB	00H
	DB	00H
	DB	00H
	DB	03H
	DB	00H
	DB	00H
	DB	00H
	DB	06eH
	DB	01aH
	DB	03H
	DB	03H
	DB	030H
	DB	03H
	DB	04H
	DB	0aH
	DB	07H
	DB	043H
	DB	043H
	DB	01aH
	DB	03H
	DB	03H
	DB	030H
	DB	07H
	DB	02H
	DB	026H
	DB	07H
	DB	010H
	DB	025H
	DB	00H
	DB	00H
	DB	030H
	DB	026H
	DB	047H
	DB	04H
	DB	066H
	DB	049H
	DB	08H
	DB	050H
	DB	06fH
	DB	050H
	DB	026H
	DB	01aH
	DB	00H
	DB	03H
	DB	03H
	DB	01aH
	DB	04H
	DB	00H
	DB	043H
	DB	026H
	DB	06eH
	DB	030H
	DB	0c4H
	DB	06fH
	DB	0aH
	DB	038H
	DB	01aH
	DB	06bH
	DB	039H
	DB	01aH
	DB	07H
	DB	08H
	DB	05H
	DB	026H
	DB	08H
	DB	06H
	DB	026H
	DB	026H
	DB	07H
	DB	04H
	DB	039H
	DB	012H
	DB	0a3H
	DB	06aH
	DB	0fH
	DB	0a3H
	DB	012H
	DB	0fH
	DB	05eH
	DB	00H
	DB	00H
	DB	030H
	DB	0c9H
	DB	070H
	DB	0cH
	DB	03H
	DB	03H
	DB	026H
	DB	02dH
	DB	02dH
	DB	026H
	DB	0aH
	DB	0aH
	DB	07H
	DB	07H
	DB	02H
	DB	02dH
	DB	08H
	DB	010H
	DB	01aH
	DB	050H
	DB	039H
	DB	01aH
	DB	03H
	DB	00H
	DB	00H
	DB	00H
	DB	00H
	DB	010H
	DB	03H
	DB	089H
	DB	0e1H
	DB	08aH
	DB	010H
	DB	00H
	DB	03H
	DB	03H
	DB	018H
	DB	012H
	DB	04aH
	DB	01H
	DB	06H
	DB	07fH
	DB	07fH
	DB	021H
	DB	00H
	DB	00H
	DB	00H
	DB	00H
	DB	016H
	DB	011H
	DB	0feH
	DB	015H
	DB	015H
	DB	015H
	DB	015H
	DB	0a4H
	DB	0a4H
	DB	0feH
	DB	0eH
	DB	0eH
	DB	0eH
	DB	0c0H
	DB	0c0H
	DB	0ffH
	DB	0dH
	DB	0dH
	DB	0dH
	DB	0dH
	DB	0c1H
	DB	0c1H
	DB	0c1H
	DB	0c1H
	DB	0c1H
	DB	013H
	DB	013H
	DB	013H
	DB	013H
	DB	013H
	DB	013H
	DB	013H
	DB	013H
	DB	013H
	DB	013H
	DB	013H
	DB	013H
	DB	013H
	DB	013H
	DB	013H
	DB	013H
	DB	013H
	DB	013H
	DB	013H
	DB	013H
	DB	013H
	DB	013H
	DB	013H
	DB	013H
	DB	013H
	DB	013H
	DB	013H
	DB	013H
	DB	013H
	DB	013H
	DB	013H
	DB	013H
	DB	013H
	DB	013H
	DB	013H
	DB	013H
	DB	013H
	DB	013H
	DB	013H
	DB	0c1H
	DB	0c1H
	DB	0c1H
	DB	0c1H
	DB	0c1H
	DB	0dH
	DB	0dH
	DB	0dH
	DB	0ffH
	DB	0ffH
	DB	0c0H
	DB	0c0H
	DB	0eH
	DB	0eH
	DB	0eH
	DB	0feH
	DB	0a4H
	DB	015H
	DB	015H
	DB	015H
	DB	015H
	DB	015H
	DB	015H
	DB	0eH
	DB	0adH
	DB	014H
	DB	00H
	DB	00H
	DB	00H
	DB	00H
	DB	021H
	DB	09eH
	DB	01eH
	DB	0adH
	DB	09dH
	DB	047H
	DB	026H
	DB	0aH
	DB	017H
	DB	02cH
	DB	02cH
	DB	03eH
	DB	050H
	DB	02aH
	DB	018H
	DB	03eH
	DB	03eH
	DB	018H
	DB	08H
	DB	06H
	DB	018H
	DB	018H
	DB	02aH
	DB	02H
	DB	0aH
	DB	018H
	DB	03aH
	DB	02dH
	DB	018H
	DB	06H
	DB	018H
	DB	05eH
	DB	02cH
	DB	035H
	DB	031H
	DB	01H
	DB	03H
	DB	026H
	DB	05fH
	DB	08H
	DB	0aH
	DB	016H
	DB	02eH
	DB	03eH
	DB	08H
	DB	0aH
	DB	018H
	DB	02dH
	DB	08H
	DB	017H
	DB	041H
	DB	017H
	DB	08H
	DB	049H
	DB	07H
	DB	00H
	DB	00H
	DB	04H
	DB	01aH
	DB	00H
	DB	00H
	DB	010H
	DB	043H
	DB	06fH
	DB	06fH
	DB	0b0H
	DB	090H
	DB	046H
	DB	041H
	DB	02eH
	DB	095H
	DB	052H
	DB	02eH
	DB	017H
	DB	02dH
	DB	017H
	DB	018H
	DB	017H
	DB	016H
	DB	03aH
	DB	017H
	DB	06H
	DB	06H
	DB	06H
	DB	06H
	DB	08H
	DB	0aH
	DB	08H
	DB	06H
	DB	06H
	DB	06H
	DB	08H
	DB	08H
	DB	06dH
	DB	071H
	DB	022H
	DB	018H
	DB	08H
	DB	0aH
	DB	0aH
	DB	026H
	DB	08H
	DB	06H
	DB	01fH
	DB	02H
	DB	0aH
	DB	02cH
	DB	035H
	DB	02H
	DB	08H
	DB	049H
	DB	017H
	DB	035H
	DB	06H
	DB	0aH
	DB	0aH
	DB	02aH
	DB	06H
	DB	0aH
	DB	026H
	DB	08H
	DB	0aH
	DB	02H
	DB	014H
	DB	07H
	DB	01H
	DB	01aH
	DB	032H
	DB	0aH
	DB	014H
	DB	014H
	DB	0aH
	DB	08H
	DB	02aH
	DB	0aH
	DB	0aH
	DB	02H
	DB	014H
	DB	02aH
	DB	05H
	DB	05H
	DB	02H
	DB	07H
	DB	047H
	DB	048H
	DB	02H
	DB	00H
	DB	010H
	DB	047H
	DB	047H
	DB	0bH
	DB	02H
	DB	0aH
	DB	02H
	DB	021H
	DB	01dH
	DB	01dH
	DB	01H
	DB	04H
	DB	00H
	DB	00H
	DB	0aeH
	DB	0b2H
	DB	077H
	DB	023H
	DB	020H
	DB	00H
	DB	00H
	DB	00H
	DB	00H
	DB	00H
	DB	00H
	DB	025H
	DB	06cH
	DB	0cH
	DB	023H
	DB	01dH
	DB	010H
	DB	04H
	DB	04H
	DB	010H
	DB	03H
	DB	03H
	DB	00H
	DB	00H
	DB	03H
	DB	03H
	DB	00H
	DB	00H
	DB	00H
	DB	00H
	DB	00H
	DB	00H
	DB	00H
	DB	00H
	DB	00H
	DB	00H
	DB	00H
	DB	00H
	DB	00H
	DB	00H
	DB	00H
	DB	00H
	DB	00H
	DB	00H
	DB	00H
	DB	00H
	DB	00H
	DB	00H
	DB	00H
	DB	00H
	DB	00H
	DB	00H
	DB	00H
	DB	00H
	DB	00H
	DB	03H
	DB	00H
	DB	00H
	DB	00H
	DB	00H
	DB	00H
	DB	00H
	DB	00H
	DB	00H
	DB	00H
	DB	025H
	DB	00H
	DB	00H
	DB	00H
	DB	00H
	DB	043H
	DB	014H
	DB	00H
	DB	00H
	DB	030H
	DB	03H
	DB	025H
	DB	03H
	DB	038H
	DB	07H
	DB	00H
	DB	03H
	DB	01aH
	DB	04H
	DB	00H
	DB	00H
	DB	00H
	DB	01dH
	DB	070H
	DB	0a7H
	DB	03H
	DB	01aH
	DB	01aH
	DB	06eH
	DB	06eH
	DB	03H
	DB	03H
	DB	025H
	DB	03H
	DB	03H
	DB	03H
	DB	043H
	DB	010H
	DB	010H
	DB	04H
	DB	03H
	DB	00H
	DB	00H
	DB	03H
	DB	00H
	DB	010H
	DB	03H
	DB	030H
	DB	01aH
	DB	01aH
	DB	026H
	DB	06eH
	DB	01aH
	DB	04H
	DB	03H
	DB	01aH
	DB	039H
	DB	01H
	DB	00H
	DB	00H
	DB	03H
	DB	030H
	DB	06bH
	DB	01aH
	DB	03H
	DB	032H
	DB	048H
	DB	05H
	DB	0aH
	DB	018H
	DB	018H
	DB	018H
	DB	0aH
	DB	043H
	DB	01H
	DB	04H
	DB	03H
	DB	00H
	DB	03H
	DB	038H
	DB	0aH
	DB	026H
	DB	050H
	DB	06fH
	DB	041H
	DB	022H
	DB	06H
	DB	026H
	DB	066H
	DB	039H
	DB	01dH
	DB	021H
	DB	0aH
	DB	05H
	DB	07H
	DB	05H
	DB	026H
	DB	039H
	DB	026H
	DB	05H
	DB	00H
	DB	03H
	DB	060H
	DB	012H
	DB	012H
	DB	0fH
	DB	096H
	DB	0fH
	DB	0fH
	DB	05aH
	DB	0cH
	DB	00H
	DB	038H
	DB	04dH
	DB	064H
	DB	03H
	DB	030H
	DB	01aH
	DB	066H
	DB	017H
	DB	018H
	DB	0aH
	DB	0aH
	DB	018H
	DB	0aH
	DB	030H
	DB	038H
	DB	018H
	DB	06H
	DB	021H
	DB	0aH
	DB	06H
	DB	07H
	DB	030H
	DB	038H
	DB	07H
	DB	043H
	DB	06H
	DB	07H
	DB	03H
	DB	047H
	DB	05H
	DB	076H
	DB	063H
	DB	00H
	DB	030H
	DB	02aH
	DB	05H
	DB	04bH
	DB	0b8H
	DB	01dH
	DB	014H
	DB	022H
	DB	07fH
	DB	0bH
	DB	00H
	DB	00H
	DB	00H
	DB	00H
	DB	052H
	DB	07eH
	DB	015H
	DB	015H
	DB	015H
	DB	015H
	DB	015H
	DB	0a4H
	DB	0feH
	DB	0eH
	DB	0eH
	DB	0eH
	DB	0c0H
	DB	0c0H
	DB	0ffH
	DB	0dH
	DB	0dH
	DB	0dH
	DB	0dH
	DB	0dH
	DB	0c1H
	DB	0c1H
	DB	0c1H
	DB	0c1H
	DB	013H
	DB	013H
	DB	013H
	DB	013H
	DB	013H
	DB	013H
	DB	013H
	DB	013H
	DB	013H
	DB	013H
	DB	013H
	DB	013H
	DB	013H
	DB	013H
	DB	0dH
	DB	09H
	DB	067H
	DB	024H
	DB	088H
	DB	027H
	DB	027H
	DB	0f0H
	DB	0d6H
	DB	01eH
	DB	07eH
	DB	0c1H
	DB	013H
	DB	013H
	DB	013H
	DB	013H
	DB	013H
	DB	013H
	DB	013H
	DB	013H
	DB	013H
	DB	013H
	DB	013H
	DB	013H
	DB	013H
	DB	013H
	DB	013H
	DB	013H
	DB	013H
	DB	013H
	DB	0c1H
	DB	0c1H
	DB	0c1H
	DB	0c1H
	DB	0dH
	DB	0dH
	DB	0dH
	DB	0ffH
	DB	0ffH
	DB	0c0H
	DB	0eH
	DB	0eH
	DB	0eH
	DB	0feH
	DB	0a4H
	DB	0a4H
	DB	015H
	DB	015H
	DB	015H
	DB	015H
	DB	015H
	DB	0a4H
	DB	011H
	DB	02H
	DB	00H
	DB	00H
	DB	00H
	DB	00H
	DB	02H
	DB	09eH
	DB	01eH
	DB	055H
	DB	0fH
	DB	03H
	DB	039H
	DB	049H
	DB	06H
	DB	02aH
	DB	016H
	DB	02cH
	DB	05eH
	DB	05eH
	DB	041H
	DB	02eH
	DB	017H
	DB	02H
	DB	017H
	DB	02eH
	DB	02aH
	DB	021H
	DB	018H
	DB	02cH
	DB	02cH
	DB	06H
	DB	05H
	DB	04bH
	DB	03eH
	DB	02cH
	DB	041H
	DB	035H
	DB	017H
	DB	0aH
	DB	0aH
	DB	08H
	DB	049H
	DB	05fH
	DB	018H
	DB	018H
	DB	02cH
	DB	05eH
	DB	017H
	DB	018H
	DB	018H
	DB	03eH
	DB	017H
	DB	018H
	DB	035H
	DB	022H
	DB	031H
	DB	014H
	DB	04bH
	DB	0aH
	DB	00H
	DB	00H
	DB	010H
	DB	04H
	DB	00H
	DB	00H
	DB	00H
	DB	0aH
	DB	02eH
	DB	052H
	DB	07fH
	DB	012H
	DB	046H
	DB	02eH
	DB	017H
	DB	04bH
	DB	017H
	DB	05fH
	DB	017H
	DB	018H
	DB	018H
	DB	06H
	DB	018H
	DB	03aH
	DB	03aH
	DB	017H
	DB	04bH
	DB	017H
	DB	06H
	DB	014H
	DB	02dH
	DB	03eH
	DB	06fH
	DB	018H
	DB	06H
	DB	018H
	DB	02dH
	DB	08H
	DB	028H
	DB	0a8H
	DB	06H
	DB	0aH
	DB	0aH
	DB	023H
	DB	02aH
	DB	043H
	DB	05H
	DB	02aH
	DB	02H
	DB	0aH
	DB	018H
	DB	017H
	DB	06H
	DB	0aH
	DB	017H
	DB	017H
	DB	016H
	DB	03dH
	DB	028H
	DB	08H
	DB	038H
	DB	0aH
	DB	06H
	DB	026H
	DB	01aH
	DB	032H
	DB	014H
	DB	02H
	DB	02H
	DB	05H
	DB	048H
	DB	08H
	DB	014H
	DB	0aH
	DB	021H
	DB	07H
	DB	05H
	DB	014H
	DB	02aH
	DB	018H
	DB	02cH
	DB	03aH
	DB	06H
	DB	08H
	DB	021H
	DB	07H
	DB	05H
	DB	01H
	DB	010H
	DB	047H
	DB	04H
	DB	010H
	DB	019H
	DB	00H
	DB	04H
	DB	01aH
	DB	01H
	DB	0aH
	DB	08H
	DB	023H
	DB	0cH
	DB	0cH
	DB	01dH
	DB	01H
	DB	00H
	DB	03H
	DB	047H
	DB	05dH
	DB	044H
	DB	01dH
	DB	0cH
	DB	01dH
	DB	025H
	DB	025H
	DB	00H
	DB	00H
	DB	00H
	DB	00H
	DB	00H
	DB	010H
	DB	0bH
	DB	010H
	DB	00H
	DB	03H
	DB	00H
	DB	00H
	DB	03H
	DB	03H
	DB	03H
	DB	04H
	DB	04H
	DB	04H
	DB	00H
	DB	00H
	DB	00H
	DB	00H
	DB	00H
	DB	00H
	DB	00H
	DB	00H
	DB	00H
	DB	00H
	DB	00H
	DB	00H
	DB	00H
	DB	00H
	DB	00H
	DB	00H
	DB	00H
	DB	00H
	DB	00H
	DB	00H
	DB	00H
	DB	00H
	DB	00H
	DB	00H
	DB	00H
	DB	00H
	DB	00H
	DB	00H
	DB	00H
	DB	00H
	DB	00H
	DB	00H
	DB	00H
	DB	025H
	DB	025H
	DB	00H
	DB	00H
	DB	00H
	DB	00H
	DB	025H
	DB	043H
	DB	023H
	DB	025H
	DB	00H
	DB	043H
	DB	08fH
	DB	010H
	DB	00H
	DB	01aH
	DB	030H
	DB	03H
	DB	043H
	DB	06H
	DB	048H
	DB	03H
	DB	03H
	DB	010H
	DB	00H
	DB	00H
	DB	00H
	DB	00H
	DB	010H
	DB	010H
	DB	010H
	DB	04H
	DB	04H
	DB	030H
	DB	06eH
	DB	05H
	DB	01aH
	DB	04H
	DB	076H
	DB	021H
	DB	03H
	DB	043H
	DB	04aH
	DB	0aaH
	DB	00H
	DB	03H
	DB	01aH
	DB	020H
	DB	03H
	DB	038H
	DB	032H
	DB	00H
	DB	03H
	DB	04H
	DB	030H
	DB	01aH
	DB	026H
	DB	026H
	DB	05H
	DB	07H
	DB	03H
	DB	03H
	DB	032H
	DB	04H
	DB	00H
	DB	03H
	DB	032H
	DB	01aH
	DB	047H
	DB	032H
	DB	01aH
	DB	047H
	DB	03H
	DB	03H
	DB	038H
	DB	018H
	DB	02aH
	DB	0aH
	DB	02dH
	DB	08H
	DB	0aH
	DB	05H
	DB	047H
	DB	00H
	DB	043H
	DB	050H
	DB	0aH
	DB	038H
	DB	02dH
	DB	08H
	DB	017H
	DB	02eH
	DB	08H
	DB	038H
	DB	02dH
	DB	039H
	DB	010H
	DB	025H
	DB	02H
	DB	02aH
	DB	04H
	DB	04H
	DB	039H
	DB	066H
	DB	066H
	DB	039H
	DB	05H
	DB	06bH
	DB	06bH
	DB	066H
	DB	02eH
	DB	06aH
	DB	096H
	DB	096H
	DB	0ccH
	DB	05dH
	DB	01H
	DB	03H
	DB	0aH
	DB	02H
	DB	00H
	DB	030H
	DB	06bH
	DB	066H
	DB	049H
	DB	049H
	DB	02dH
	DB	03eH
	DB	017H
	DB	02H
	DB	026H
	DB	0b0H
	DB	06fH
	DB	049H
	DB	014H
	DB	02H
	DB	06H
	DB	018H
	DB	018H
	DB	050H
	DB	017H
	DB	02aH
	DB	0bH
	DB	048H
	DB	0d9H
	DB	032H
	DB	01aH
	DB	04H
	DB	010H
	DB	00H
	DB	00H
	DB	020H
	DB	06H
	DB	0aH
	DB	026H
	DB	04H
	DB	021H
	DB	016H
	DB	022H
	DB	0bH
	DB	00H
	DB	00H
	DB	00H
	DB	00H
	DB	012H
	DB	0fcH
	DB	0a4H
	DB	015H
	DB	015H
	DB	015H
	DB	0a4H
	DB	0a4H
	DB	0feH
	DB	0eH
	DB	0eH
	DB	0c0H
	DB	0c0H
	DB	0ffH
	DB	0ffH
	DB	0dH
	DB	0dH
	DB	0dH
	DB	0c1H
	DB	0c1H
	DB	0c1H
	DB	0c1H
	DB	0c1H
	DB	013H
	DB	013H
	DB	013H
	DB	013H
	DB	013H
	DB	013H
	DB	013H
	DB	013H
	DB	013H
	DB	013H
	DB	013H
	DB	013H
	DB	013H
	DB	013H
	DB	029H
	DB	0acH
	DB	012H
	DB	01H
	DB	00H
	DB	00H
	DB	010H
	DB	01H
	DB	01H
	DB	00H
	DB	00H
	DB	00H
	DB	02H
	DB	0fH
	DB	01cH
	DB	0a4H
	DB	013H
	DB	013H
	DB	013H
	DB	013H
	DB	013H
	DB	013H
	DB	013H
	DB	013H
	DB	013H
	DB	013H
	DB	013H
	DB	013H
	DB	013H
	DB	013H
	DB	013H
	DB	013H
	DB	013H
	DB	013H
	DB	013H
	DB	0c1H
	DB	0c1H
	DB	0c1H
	DB	0dH
	DB	0dH
	DB	0dH
	DB	0ffH
	DB	0ffH
	DB	0c0H
	DB	0c0H
	DB	0eH
	DB	0eH
	DB	0feH
	DB	0a4H
	DB	015H
	DB	015H
	DB	015H
	DB	015H
	DB	015H
	DB	0a4H
	DB	08cH
	DB	083H
	DB	00H
	DB	00H
	DB	00H
	DB	00H
	DB	021H
	DB	0efH
	DB	01eH
	DB	01eH
	DB	012H
	DB	05H
	DB	028H
	DB	05H
	DB	053H
	DB	02cH
	DB	022H
	DB	035H
	DB	02eH
	DB	041H
	DB	02eH
	DB	03eH
	DB	0aH
	DB	049H
	DB	05fH
	DB	02H
	DB	0aH
	DB	016H
	DB	02cH
	DB	02cH
	DB	0aH
	DB	03H
	DB	0aH
	DB	016H
	DB	017H
	DB	02cH
	DB	028H
	DB	08H
	DB	02dH
	DB	017H
	DB	02cH
	DB	016H
	DB	017H
	DB	017H
	DB	03eH
	DB	02cH
	DB	05eH
	DB	03aH
	DB	018H
	DB	017H
	DB	017H
	DB	018H
	DB	018H
	DB	06H
	DB	017H
	DB	0aH
	DB	04H
	DB	05H
	DB	048H
	DB	00H
	DB	00H
	DB	00H
	DB	00H
	DB	00H
	DB	00H
	DB	00H
	DB	0bH
	DB	016H
	DB	04cH
	DB	052H
	DB	077H
	DB	04cH
	DB	017H
	DB	016H
	DB	03aH
	DB	03aH
	DB	018H
	DB	016H
	DB	031H
	DB	08H
	DB	06H
	DB	018H
	DB	018H
	DB	016H
	DB	017H
	DB	08H
	DB	049H
	DB	018H
	DB	08H
	DB	017H
	DB	02eH
	DB	017H
	DB	02dH
	DB	018H
	DB	02dH
	DB	08H
	DB	0aH
	DB	026H
	DB	0aH
	DB	0aH
	DB	026H
	DB	026H
	DB	023H
	DB	04cH
	DB	03aH
	DB	018H
	DB	08H
	DB	021H
	DB	028H
	DB	02cH
	DB	018H
	DB	02aH
	DB	05H
	DB	08H
	DB	018H
	DB	023H
	DB	02fH
	DB	017H
	DB	08H
	DB	026H
	DB	08H
	DB	06H
	DB	07H
	DB	03H
	DB	010H
	DB	098H
	DB	048H
	DB	05H
	DB	02H
	DB	08H
	DB	0aH
	DB	0aH
	DB	0aH
	DB	02H
	DB	05H
	DB	02H
	DB	014H
	DB	016H
	DB	022H
	DB	046H
	DB	022H
	DB	02aH
	DB	02H
	DB	021H
	DB	01H
	DB	047H
	DB	04H
	DB	03H
	DB	00H
	DB	00H
	DB	010H
	DB	025H
	DB	020H
	DB	07H
	DB	01H
	DB	0bH
	DB	08H
	DB	06H
	DB	02H
	DB	01dH
	DB	01dH
	DB	01dH
	DB	01H
	DB	025H
	DB	07H
	DB	08H
	DB	014H
	DB	01H
	DB	01H
	DB	019H
	DB	04H
	DB	01H
	DB	00H
	DB	00H
	DB	00H
	DB	00H
	DB	00H
	DB	00H
	DB	010H
	DB	010H
	DB	025H
	DB	020H
	DB	04H
	DB	010H
	DB	04H
	DB	04H
	DB	03H
	DB	00H
	DB	010H
	DB	03H
	DB	03H
	DB	00H
	DB	00H
	DB	00H
	DB	00H
	DB	00H
	DB	00H
	DB	00H
	DB	00H
	DB	00H
	DB	00H
	DB	00H
	DB	00H
	DB	00H
	DB	00H
	DB	00H
	DB	00H
	DB	00H
	DB	00H
	DB	00H
	DB	00H
	DB	00H
	DB	00H
	DB	00H
	DB	00H
	DB	00H
	DB	00H
	DB	00H
	DB	00H
	DB	00H
	DB	00H
	DB	00H
	DB	00H
	DB	00H
	DB	063H
	DB	063H
	DB	020H
	DB	03H
	DB	00H
	DB	00H
	DB	00H
	DB	021H
	DB	054H
	DB	0d8H
	DB	00H
	DB	00H
	DB	04H
	DB	00H
	DB	00H
	DB	03H
	DB	030H
	DB	030H
	DB	030H
	DB	07H
	DB	047H
	DB	03H
	DB	00H
	DB	00H
	DB	00H
	DB	00H
	DB	00H
	DB	00H
	DB	00H
	DB	00H
	DB	03H
	DB	04H
	DB	00H
	DB	00H
	DB	03H
	DB	04H
	DB	03H
	DB	00H
	DB	020H
	DB	07H
	DB	03H
	DB	010H
	DB	070H
	DB	070H
	DB	00H
	DB	03H
	DB	01aH
	DB	010H
	DB	00H
	DB	030H
	DB	01aH
	DB	00H
	DB	00H
	DB	03H
	DB	00H
	DB	00H
	DB	03H
	DB	03H
	DB	04H
	DB	04H
	DB	03H
	DB	03H
	DB	01aH
	DB	00H
	DB	00H
	DB	03H
	DB	032H
	DB	07H
	DB	0cH
	DB	0bH
	DB	00H
	DB	03H
	DB	03H
	DB	03H
	DB	021H
	DB	02H
	DB	021H
	DB	0aH
	DB	0aH
	DB	050H
	DB	018H
	DB	08H
	DB	0a5H
	DB	03H
	DB	053H
	DB	02dH
	DB	039H
	DB	0aH
	DB	02dH
	DB	026H
	DB	01aH
	DB	026H
	DB	0aH
	DB	050H
	DB	0aH
	DB	07H
	DB	03H
	DB	00H
	DB	020H
	DB	026H
	DB	07H
	DB	01aH
	DB	07H
	DB	01aH
	DB	050H
	DB	08H
	DB	05H
	DB	01aH
	DB	06bH
	DB	032H
	DB	04H
	DB	04bH
	DB	080H
	DB	0ccH
	DB	06cH
	DB	00H
	DB	030H
	DB	02dH
	DB	02dH
	DB	0aH
	DB	06bH
	DB	06bH
	DB	066H
	DB	049H
	DB	049H
	DB	039H
	DB	02dH
	DB	060H
	DB	06fH
	DB	01aH
	DB	066H
	DB	0c8H
	DB	0c7H
	DB	014H
	DB	047H
	DB	047H
	DB	0aH
	DB	02dH
	DB	02cH
	DB	035H
	DB	017H
	DB	08H
	DB	010H
	DB	00H
	DB	01aH
	DB	0aH
	DB	05H
	DB	032H
	DB	01aH
	DB	03H
	DB	00H
	DB	00H
	DB	053H
	DB	08H
	DB	04H
	DB	01H
	DB	06H
	DB	022H
	DB	021H
	DB	00H
	DB	00H
	DB	00H
	DB	00H
	DB	027H
	DB	015H
	DB	015H
	DB	015H
	DB	015H
	DB	015H
	DB	0a4H
	DB	0a4H
	DB	0eH
	DB	0eH
	DB	0eH
	DB	0c0H
	DB	0c0H
	DB	0ffH
	DB	0dH
	DB	0dH
	DB	0dH
	DB	0dH
	DB	0c1H
	DB	0c1H
	DB	0c1H
	DB	0c1H
	DB	013H
	DB	013H
	DB	013H
	DB	013H
	DB	013H
	DB	013H
	DB	013H
	DB	013H
	DB	013H
	DB	013H
	DB	013H
	DB	013H
	DB	013H
	DB	013H
	DB	07eH
	DB	0eeH
	DB	00H
	DB	010H
	DB	06H
	DB	022H
	DB	012H
	DB	0fH
	DB	0fH
	DB	0fH
	DB	0fH
	DB	0fH
	DB	082H
	DB	07fH
	DB	016H
	DB	02H
	DB	00H
	DB	018H
	DB	0acH
	DB	0eH
	DB	013H
	DB	013H
	DB	013H
	DB	013H
	DB	013H
	DB	013H
	DB	013H
	DB	013H
	DB	013H
	DB	013H
	DB	013H
	DB	013H
	DB	013H
	DB	013H
	DB	013H
	DB	013H
	DB	013H
	DB	013H
	DB	0c1H
	DB	0c1H
	DB	0c1H
	DB	0c1H
	DB	0dH
	DB	0dH
	DB	0dH
	DB	0ffH
	DB	0c0H
	DB	0c0H
	DB	0eH
	DB	0eH
	DB	0feH
	DB	0a4H
	DB	0a4H
	DB	015H
	DB	015H
	DB	015H
	DB	015H
	DB	0a4H
	DB	015H
	DB	0eeH
	DB	00H
	DB	00H
	DB	00H
	DB	00H
	DB	02H
	DB	088H
	DB	01eH
	DB	067H
	DB	05eH
	DB	05H
	DB	02aH
	DB	017H
	DB	0c7H
	DB	016H
	DB	06H
	DB	017H
	DB	02eH
	DB	02cH
	DB	05eH
	DB	02cH
	DB	018H
	DB	06H
	DB	05H
	DB	08H
	DB	02eH
	DB	0c7H
	DB	060H
	DB	02cH
	DB	050H
	DB	018H
	DB	016H
	DB	017H
	DB	017H
	DB	018H
	DB	08H
	DB	017H
	DB	05eH
	DB	035H
	DB	016H
	DB	017H
	DB	017H
	DB	041H
	DB	046H
	DB	05eH
	DB	018H
	DB	018H
	DB	018H
	DB	018H
	DB	017H
	DB	017H
	DB	050H
	DB	0aH
	DB	02aH
	DB	021H
	DB	020H
	DB	00H
	DB	00H
	DB	00H
	DB	03H
	DB	07H
	DB	02H
	DB	08H
	DB	01dH
	DB	00H
	DB	0bH
	DB	08H
	DB	05fH
	DB	04dH
	DB	076H
	DB	06H
	DB	03aH
	DB	023H
	DB	04cH
	DB	05eH
	DB	03aH
	DB	02aH
	DB	06H
	DB	06H
	DB	08H
	DB	017H
	DB	02cH
	DB	018H
	DB	06H
	DB	017H
	DB	017H
	DB	017H
	DB	035H
	DB	035H
	DB	018H
	DB	017H
	DB	017H
	DB	018H
	DB	06H
	DB	03eH
	DB	041H
	DB	018H
	DB	08H
	DB	06H
	DB	08H
	DB	028H
	DB	0ceH
	DB	072H
	DB	05eH
	DB	018H
	DB	017H
	DB	017H
	DB	049H
	DB	041H
	DB	06fH
	DB	01H
	DB	0aH
	DB	0aH
	DB	01H
	DB	014H
	DB	06H
	DB	0aH
	DB	08H
	DB	06H
	DB	02aH
	DB	053H
	DB	01dH
	DB	020H
	DB	047H
	DB	08H
	DB	0aH
	DB	02aH
	DB	06H
	DB	0aH
	DB	02H
	DB	08H
	DB	014H
	DB	014H
	DB	02H
	DB	02H
	DB	06dH
	DB	0b8H
	DB	095H
	DB	05eH
	DB	023H
	DB	01dH
	DB	0bH
	DB	05H
	DB	05H
	DB	07H
	DB	07H
	DB	00H
	DB	00H
	DB	010H
	DB	07H
	DB	021H
	DB	05H
	DB	04H
	DB	0bH
	DB	014H
	DB	02H
	DB	07H
	DB	04H
	DB	04H
	DB	01H
	DB	00H
	DB	00H
	DB	0cH
	DB	03aH
	DB	02aH
	DB	04H
	DB	00H
	DB	00H
	DB	03H
	DB	01dH
	DB	00H
	DB	00H
	DB	00H
	DB	00H
	DB	00H
	DB	00H
	DB	00H
	DB	019H
	DB	02H
	DB	01dH
	DB	04H
	DB	03H
	DB	03H
	DB	03H
	DB	03H
	DB	03H
	DB	00H
	DB	00H
	DB	00H
	DB	00H
	DB	00H
	DB	00H
	DB	00H
	DB	00H
	DB	00H
	DB	00H
	DB	00H
	DB	00H
	DB	00H
	DB	00H
	DB	00H
	DB	00H
	DB	00H
	DB	00H
	DB	00H
	DB	00H
	DB	00H
	DB	00H
	DB	00H
	DB	00H
	DB	00H
	DB	00H
	DB	00H
	DB	00H
	DB	00H
	DB	00H
	DB	00H
	DB	00H
	DB	00H
	DB	00H
	DB	00H
	DB	00H
	DB	00H
	DB	00H
	DB	03H
	DB	01H
	DB	020H
	DB	00H
	DB	00H
	DB	00H
	DB	06cH
	DB	010H
	DB	00H
	DB	00H
	DB	00H
	DB	00H
	DB	00H
	DB	03H
	DB	030H
	DB	03H
	DB	03H
	DB	03H
	DB	00H
	DB	03H
	DB	00H
	DB	00H
	DB	00H
	DB	00H
	DB	00H
	DB	00H
	DB	00H
	DB	00H
	DB	03H
	DB	030H
	DB	00H
	DB	00H
	DB	00H
	DB	00H
	DB	00H
	DB	00H
	DB	030H
	DB	030H
	DB	03H
	DB	00H
	DB	00H
	DB	019H
	DB	020H
	DB	00H
	DB	03H
	DB	03H
	DB	00H
	DB	020H
	DB	01H
	DB	00H
	DB	00H
	DB	03H
	DB	03H
	DB	03H
	DB	030H
	DB	03H
	DB	03H
	DB	00H
	DB	00H
	DB	030H
	DB	04H
	DB	00H
	DB	00H
	DB	03H
	DB	03H
	DB	02H
	DB	01fH
	DB	0cH
	DB	043H
	DB	026H
	DB	05H
	DB	02H
	DB	02H
	DB	00H
	DB	030H
	DB	018H
	DB	018H
	DB	08H
	DB	08H
	DB	0bH
	DB	04H
	DB	07H
	DB	01aH
	DB	032H
	DB	06bH
	DB	039H
	DB	08H
	DB	026H
	DB	038H
	DB	07H
	DB	07H
	DB	026H
	DB	026H
	DB	07H
	DB	0c4H
	DB	0c4H
	DB	06eH
	DB	06bH
	DB	066H
	DB	026H
	DB	07H
	DB	07H
	DB	02dH
	DB	0aH
	DB	053H
	DB	0aH
	DB	06H
	DB	01H
	DB	00H
	DB	00H
	DB	02H
	DB	0aeH
	DB	00H
	DB	06eH
	DB	049H
	DB	017H
	DB	02dH
	DB	018H
	DB	02dH
	DB	066H
	DB	03eH
	DB	017H
	DB	066H
	DB	066H
	DB	049H
	DB	049H
	DB	050H
	DB	066H
	DB	039H
	DB	049H
	DB	060H
	DB	0aH
	DB	07H
	DB	030H
	DB	07H
	DB	066H
	DB	02dH
	DB	026H
	DB	026H
	DB	026H
	DB	01aH
	DB	03H
	DB	03H
	DB	053H
	DB	06H
	DB	028H
	DB	06H
	DB	07H
	DB	00H
	DB	03H
	DB	017H
	DB	05H
	DB	00H
	DB	02H
	DB	016H
	DB	021H
	DB	00H
	DB	00H
	DB	00H
	DB	00H
	DB	0f0H
	DB	015H
	DB	015H
	DB	015H
	DB	015H
	DB	015H
	DB	0a4H
	DB	0feH
	DB	0eH
	DB	0eH
	DB	0eH
	DB	0c0H
	DB	0ffH
	DB	0ffH
	DB	0dH
	DB	0dH
	DB	0dH
	DB	0c1H
	DB	0c1H
	DB	0c1H
	DB	0c1H
	DB	0c1H
	DB	013H
	DB	013H
	DB	013H
	DB	013H
	DB	013H
	DB	013H
	DB	013H
	DB	013H
	DB	013H
	DB	013H
	DB	013H
	DB	013H
	DB	013H
	DB	013H
	DB	024H
	DB	020H
	DB	00H
	DB	022H
	DB	0fH
	DB	09dH
	DB	01bH
	DB	07cH
	DB	07dH
	DB	0fH
	DB	0fH
	DB	0fH
	DB	0fH
	DB	0fH
	DB	0fH
	DB	0fH
	DB	0fH
	DB	07fH
	DB	02H
	DB	00H
	DB	022H
	DB	01eH
	DB	013H
	DB	013H
	DB	013H
	DB	013H
	DB	013H
	DB	013H
	DB	013H
	DB	013H
	DB	013H
	DB	013H
	DB	013H
	DB	013H
	DB	013H
	DB	013H
	DB	013H
	DB	013H
	DB	013H
	DB	013H
	DB	013H
	DB	0c1H
	DB	0c1H
	DB	0c1H
	DB	0c1H
	DB	0dH
	DB	0dH
	DB	0dH
	DB	0ffH
	DB	0c0H
	DB	0eH
	DB	0eH
	DB	0eH
	DB	0feH
	DB	0a4H
	DB	015H
	DB	015H
	DB	015H
	DB	015H
	DB	015H
	DB	015H
	DB	024H
	DB	0bH
	DB	00H
	DB	00H
	DB	00H
	DB	06H
	DB	0acH
	DB	01eH
	DB	024H
	DB	0aH
	DB	02dH
	DB	02eH
	DB	060H
	DB	018H
	DB	017H
	DB	018H
	DB	06H
	DB	02dH
	DB	02eH
	DB	046H
	DB	04cH
	DB	06H
	DB	0aH
	DB	049H
	DB	05fH
	DB	0deH
	DB	049H
	DB	060H
	DB	03eH
	DB	017H
	DB	028H
	DB	03aH
	DB	03aH
	DB	0aH
	DB	048H
	DB	049H
	DB	06H
	DB	0bH
	DB	08H
	DB	049H
	DB	017H
	DB	02cH
	DB	05eH
	DB	017H
	DB	0aH
	DB	08H
	DB	06H
	DB	018H
	DB	03eH
	DB	060H
	DB	02eH
	DB	018H
	DB	016H
	DB	04dH
	DB	025H
	DB	00H
	DB	00H
	DB	00H
	DB	05H
	DB	05fH
	DB	02H
	DB	04H
	DB	048H
	DB	047H
	DB	00H
	DB	032H
	DB	018H
	DB	02aH
	DB	01H
	DB	0aH
	DB	02aH
	DB	0aH
	DB	022H
	DB	07fH
	DB	03aH
	DB	018H
	DB	028H
	DB	06H
	DB	06H
	DB	03eH
	DB	03eH
	DB	017H
	DB	018H
	DB	06H
	DB	017H
	DB	018H
	DB	028H
	DB	018H
	DB	06H
	DB	018H
	DB	017H
	DB	017H
	DB	08H
	DB	095H
	DB	082H
	DB	03aH
	DB	0aH
	DB	018H
	DB	02dH
	DB	039H
	DB	03dH
	DB	078H
	DB	03dH
	DB	04bH
	DB	017H
	DB	05H
	DB	032H
	DB	049H
	DB	08H
	DB	0aH
	DB	018H
	DB	05H
	DB	047H
	DB	01fH
	DB	02aH
	DB	06H
	DB	06H
	DB	014H
	DB	0aH
	DB	02aH
	DB	02aH
	DB	02H
	DB	02H
	DB	014H
	DB	06H
	DB	06H
	DB	02aH
	DB	0aH
	DB	07H
	DB	05H
	DB	014H
	DB	0cH
	DB	0bH
	DB	0bH
	DB	08H
	DB	028H
	DB	028H
	DB	06H
	DB	023H
	DB	076H
	DB	0cH
	DB	02H
	DB	0aH
	DB	01fH
	DB	016H
	DB	07H
	DB	00H
	DB	02H
	DB	08H
	DB	021H
	DB	021H
	DB	04H
	DB	01H
	DB	0bH
	DB	0bH
	DB	02H
	DB	02H
	DB	07H
	DB	03H
	DB	00H
	DB	010H
	DB	014H
	DB	06H
	DB	021H
	DB	03H
	DB	00H
	DB	04H
	DB	05H
	DB	023H
	DB	02H
	DB	020H
	DB	03H
	DB	00H
	DB	00H
	DB	00H
	DB	010H
	DB	014H
	DB	02H
	DB	04H
	DB	03H
	DB	03H
	DB	00H
	DB	00H
	DB	03H
	DB	020H
	DB	010H
	DB	00H
	DB	00H
	DB	00H
	DB	00H
	DB	00H
	DB	00H
	DB	00H
	DB	00H
	DB	00H
	DB	00H
	DB	00H
	DB	00H
	DB	00H
	DB	00H
	DB	00H
	DB	00H
	DB	00H
	DB	00H
	DB	00H
	DB	00H
	DB	00H
	DB	00H
	DB	00H
	DB	00H
	DB	00H
	DB	00H
	DB	00H
	DB	00H
	DB	00H
	DB	00H
	DB	00H
	DB	00H
	DB	03H
	DB	03H
	DB	00H
	DB	03H
	DB	043H
	DB	020H
	DB	01dH
	DB	01dH
	DB	00H
	DB	03H
	DB	03H
	DB	00H
	DB	00H
	DB	00H
	DB	00H
	DB	00H
	DB	00H
	DB	00H
	DB	03H
	DB	021H
	DB	010H
	DB	00H
	DB	00H
	DB	00H
	DB	03H
	DB	03H
	DB	00H
	DB	00H
	DB	00H
	DB	00H
	DB	00H
	DB	00H
	DB	00H
	DB	03H
	DB	03H
	DB	00H
	DB	00H
	DB	00H
	DB	03H
	DB	030H
	DB	030H
	DB	03H
	DB	030H
	DB	030H
	DB	04H
	DB	00H
	DB	03H
	DB	038H
	DB	04H
	DB	03H
	DB	06eH
	DB	038H
	DB	021H
	DB	0bH
	DB	00H
	DB	00H
	DB	06eH
	DB	038H
	DB	050H
	DB	0aH
	DB	05H
	DB	01aH
	DB	03H
	DB	030H
	DB	07H
	DB	020H
	DB	00H
	DB	043H
	DB	07H
	DB	00H
	DB	068H
	DB	035H
	DB	0aH
	DB	018H
	DB	018H
	DB	05H
	DB	0aH
	DB	0aH
	DB	03H
	DB	03H
	DB	02H
	DB	01fH
	DB	02H
	DB	05H
	DB	03H
	DB	01aH
	DB	038H
	DB	06eH
	DB	06eH
	DB	066H
	DB	02dH
	DB	026H
	DB	026H
	DB	02dH
	DB	06bH
	DB	01aH
	DB	026H
	DB	026H
	DB	0aH
	DB	017H
	DB	017H
	DB	050H
	DB	066H
	DB	039H
	DB	06bH
	DB	032H
	DB	0d9H
	DB	0aH
	DB	0aH
	DB	02dH
	DB	04bH
	DB	02H
	DB	04H
	DB	00H
	DB	03H
	DB	00H
	DB	00H
	DB	0c4H
	DB	03eH
	DB	02dH
	DB	06fH
	DB	02eH
	DB	028H
	DB	06H
	DB	017H
	DB	049H
	DB	02dH
	DB	06eH
	DB	06bH
	DB	049H
	DB	02dH
	DB	039H
	DB	026H
	DB	032H
	DB	06eH
	DB	0b0H
	DB	094H
	DB	039H
	DB	07H
	DB	038H
	DB	066H
	DB	066H
	DB	01aH
	DB	039H
	DB	05dH
	DB	02H
	DB	047H
	DB	00H
	DB	038H
	DB	035H
	DB	02fH
	DB	031H
	DB	028H
	DB	019H
	DB	032H
	DB	048H
	DB	00H
	DB	01H
	DB	03aH
	DB	02H
	DB	00H
	DB	00H
	DB	00H
	DB	00H
	DB	024H
	DB	0a4H
	DB	015H
	DB	015H
	DB	015H
	DB	015H
	DB	0a4H
	DB	0feH
	DB	0eH
	DB	0eH
	DB	0c0H
	DB	0c0H
	DB	0ffH
	DB	0dH
	DB	0dH
	DB	0dH
	DB	0c1H
	DB	0c1H
	DB	0c1H
	DB	0c1H
	DB	0c1H
	DB	0c1H
	DB	013H
	DB	013H
	DB	013H
	DB	013H
	DB	013H
	DB	013H
	DB	013H
	DB	013H
	DB	013H
	DB	013H
	DB	013H
	DB	013H
	DB	013H
	DB	0feH
	DB	082H
	DB	00H
	DB	016H
	DB	07dH
	DB	01bH
	DB	07dH
	DB	0fH
	DB	082H
	DB	012H
	DB	012H
	DB	07fH
	DB	07fH
	DB	07fH
	DB	07fH
	DB	07fH
	DB	07fH
	DB	07fH
	DB	012H
	DB	0a3H
	DB	0fH
	DB	07fH
	DB	021H
	DB	00H
	DB	027H
	DB	0c1H
	DB	013H
	DB	013H
	DB	013H
	DB	013H
	DB	013H
	DB	013H
	DB	013H
	DB	013H
	DB	013H
	DB	013H
	DB	013H
	DB	013H
	DB	013H
	DB	013H
	DB	013H
	DB	013H
	DB	013H
	DB	013H
	DB	013H
	DB	0c1H
	DB	0c1H
	DB	0c1H
	DB	0dH
	DB	0dH
	DB	0dH
	DB	0ffH
	DB	0c0H
	DB	0c0H
	DB	0eH
	DB	0eH
	DB	0feH
	DB	0a4H
	DB	015H
	DB	015H
	DB	015H
	DB	015H
	DB	015H
	DB	0a4H
	DB	01cH
	DB	02H
	DB	00H
	DB	00H
	DB	00H
	DB	016H
	DB	024H
	DB	01eH
	DB	027H
	DB	014H
	DB	017H
	DB	018H
	DB	049H
	DB	04bH
	DB	06H
	DB	08H
	DB	0c6H
	DB	04bH
	DB	06H
	DB	018H
	DB	018H
	DB	017H
	DB	06H
	DB	08H
	DB	039H
	DB	049H
	DB	049H
	DB	017H
	DB	05fH
	DB	028H
	DB	017H
	DB	02aH
	DB	0aH
	DB	02dH
	DB	017H
	DB	05H
	DB	03H
	DB	07H
	DB	02dH
	DB	02dH
	DB	08H
	DB	08H
	DB	018H
	DB	017H
	DB	017H
	DB	08H
	DB	08H
	DB	016H
	DB	02eH
	DB	052H
	DB	022H
	DB	035H
	DB	0cH
	DB	00H
	DB	00H
	DB	00H
	DB	03H
	DB	02aH
	DB	028H
	DB	05H
	DB	00H
	DB	00H
	DB	04H
	DB	00H
	DB	04H
	DB	06H
	DB	018H
	DB	026H
	DB	018H
	DB	06H
	DB	06H
	DB	02eH
	DB	02cH
	DB	016H
	DB	02dH
	DB	048H
	DB	02fH
	DB	016H
	DB	017H
	DB	017H
	DB	018H
	DB	018H
	DB	018H
	DB	017H
	DB	016H
	DB	018H
	DB	026H
	DB	05H
	DB	018H
	DB	06H
	DB	039H
	DB	0c6H
	DB	02eH
	DB	052H
	DB	031H
	DB	0aH
	DB	018H
	DB	018H
	DB	08H
	DB	028H
	DB	057H
	DB	031H
	DB	06H
	DB	018H
	DB	0aH
	DB	0aH
	DB	014H
	DB	08H
	DB	04bH
	DB	021H
	DB	03H
	DB	039H
	DB	03aH
	DB	068H
	DB	016H
	DB	018H
	DB	0aH
	DB	06H
	DB	017H
	DB	018H
	DB	08H
	DB	06H
	DB	02H
	DB	06H
	DB	06H
	DB	02H
	DB	02H
	DB	05H
	DB	026H
	DB	02H
	DB	01H
	DB	04H
	DB	07H
	DB	0aH
	DB	018H
	DB	0aH
	DB	0aH
	DB	023H
	DB	045H
	DB	076H
	DB	025H
	DB	019H
	DB	06H
	DB	06H
	DB	0bH
	DB	05H
	DB	06H
	DB	0aH
	DB	01H
	DB	01H
	DB	04H
	DB	04H
	DB	0cH
	DB	02H
	DB	023H
	DB	023H
	DB	0bH
	DB	04H
	DB	047H
	DB	0bH
	DB	0bH
	DB	01dH
	DB	01H
	DB	07H
	DB	05H
	DB	06H
	DB	06H
	DB	014H
	DB	0cH
	DB	01H
	DB	019H
	DB	03H
	DB	03H
	DB	00H
	DB	0bH
	DB	014H
	DB	021H
	DB	01H
	DB	07H
	DB	07H
	DB	04H
	DB	04H
	DB	04H
	DB	04H
	DB	019H
	DB	00H
	DB	010H
	DB	00H
	DB	00H
	DB	00H
	DB	00H
	DB	00H
	DB	00H
	DB	00H
	DB	00H
	DB	00H
	DB	00H
	DB	00H
	DB	00H
	DB	00H
	DB	00H
	DB	00H
	DB	00H
	DB	00H
	DB	00H
	DB	00H
	DB	00H
	DB	00H
	DB	00H
	DB	00H
	DB	00H
	DB	00H
	DB	03H
	DB	03H
	DB	01H
	DB	019H
	DB	03H
	DB	03H
	DB	03H
	DB	00H
	DB	0c4H
	DB	052H
	DB	02H
	DB	010H
	DB	04H
	DB	00H
	DB	03H
	DB	04H
	DB	00H
	DB	00H
	DB	00H
	DB	00H
	DB	030H
	DB	030H
	DB	03H
	DB	020H
	DB	020H
	DB	00H
	DB	00H
	DB	00H
	DB	03H
	DB	030H
	DB	04H
	DB	00H
	DB	03H
	DB	03H
	DB	00H
	DB	00H
	DB	00H
	DB	030H
	DB	043H
	DB	03H
	DB	03H
	DB	00H
	DB	00H
	DB	03H
	DB	026H
	DB	026H
	DB	03H
	DB	043H
	DB	038H
	DB	038H
	DB	030H
	DB	030H
	DB	038H
	DB	07H
	DB	03H
	DB	038H
	DB	050H
	DB	05H
	DB	04H
	DB	00H
	DB	030H
	DB	030H
	DB	038H
	DB	02dH
	DB	039H
	DB	047H
	DB	00H
	DB	03H
	DB	066H
	DB	08H
	DB	053H
	DB	043H
	DB	053H
	DB	014H
	DB	010H
	DB	043H
	DB	02aH
	DB	0aH
	DB	08H
	DB	021H
	DB	030H
	DB	07H
	DB	038H
	DB	053H
	DB	03H
	DB	03H
	DB	01H
	DB	01H
	DB	05H
	DB	032H
	DB	01aH
	DB	05H
	DB	018H
	DB	02dH
	DB	066H
	DB	02dH
	DB	026H
	DB	039H
	DB	06bH
	DB	06bH
	DB	066H
	DB	026H
	DB	050H
	DB	026H
	DB	026H
	DB	048H
	DB	066H
	DB	066H
	DB	032H
	DB	047H
	DB	032H
	DB	01aH
	DB	038H
	DB	03aH
	DB	048H
	DB	010H
	DB	00H
	DB	00H
	DB	04H
	DB	05H
	DB	03H
	DB	038H
	DB	02cH
	DB	02aH
	DB	038H
	DB	041H
	DB	080H
	DB	06H
	DB	06H
	DB	023H
	DB	0aH
	DB	066H
	DB	032H
	DB	01aH
	DB	026H
	DB	02dH
	DB	02dH
	DB	048H
	DB	01aH
	DB	090H
	DB	0cfH
	DB	041H
	DB	049H
	DB	08H
	DB	017H
	DB	022H
	DB	014H
	DB	032H
	DB	028H
	DB	0a7H
	DB	019H
	DB	00H
	DB	03H
	DB	02dH
	DB	028H
	DB	02H
	DB	08H
	DB	028H
	DB	019H
	DB	03H
	DB	00H
	DB	00H
	DB	02aH
	DB	06H
	DB	00H
	DB	00H
	DB	00H
	DB	00H
	DB	0acH
	DB	0a4H
	DB	015H
	DB	015H
	DB	015H
	DB	0a4H
	DB	0a4H
	DB	0feH
	DB	0eH
	DB	0eH
	DB	0c0H
	DB	0c0H
	DB	0ffH
	DB	0dH
	DB	0dH
	DB	0dH
	DB	0dH
	DB	0c1H
	DB	0c1H
	DB	0c1H
	DB	0c1H
	DB	013H
	DB	013H
	DB	013H
	DB	013H
	DB	013H
	DB	013H
	DB	013H
	DB	013H
	DB	013H
	DB	013H
	DB	013H
	DB	013H
	DB	013H
	DB	013H
	DB	015H
	DB	016H
	DB	00H
	DB	07fH
	DB	01bH
	DB	07dH
	DB	082H
	DB	012H
	DB	012H
	DB	07fH
	DB	07fH
	DB	07fH
	DB	07fH
	DB	052H
	DB	052H
	DB	052H
	DB	07fH
	DB	07fH
	DB	07fH
	DB	052H
	DB	022H
	DB	052H
	DB	012H
	DB	0a3H
	DB	06H
	DB	00H
	DB	09dH
	DB	0dH
	DB	013H
	DB	013H
	DB	013H
	DB	013H
	DB	013H
	DB	013H
	DB	013H
	DB	013H
	DB	013H
	DB	013H
	DB	013H
	DB	013H
	DB	013H
	DB	013H
	DB	013H
	DB	013H
	DB	013H
	DB	013H
	DB	013H
	DB	0c1H
	DB	0c1H
	DB	0c1H
	DB	0c1H
	DB	0dH
	DB	0dH
	DB	0ffH
	DB	0c0H
	DB	0c0H
	DB	0eH
	DB	0eH
	DB	0feH
	DB	0a4H
	DB	015H
	DB	015H
	DB	015H
	DB	015H
	DB	015H
	DB	0a4H
	DB	01cH
	DB	0bH
	DB	00H
	DB	00H
	DB	00H
	DB	07fH
	DB	01cH
	DB	08eH
	DB	07dH
	DB	07H
	DB	017H
	DB	049H
	DB	032H
	DB	018H
	DB	02eH
	DB	060H
	DB	026H
	DB	07H
	DB	02cH
	DB	02cH
	DB	08H
	DB	039H
	DB	049H
	DB	017H
	DB	03eH
	DB	03eH
	DB	02eH
	DB	016H
	DB	017H
	DB	049H
	DB	08H
	DB	017H
	DB	02eH
	DB	035H
	DB	0aH
	DB	026H
	DB	02dH
	DB	02cH
	DB	017H
	DB	04bH
	DB	02dH
	DB	060H
	DB	060H
	DB	02eH
	DB	016H
	DB	06H
	DB	02cH
	DB	02cH
	DB	016H
	DB	03dH
	DB	023H
	DB	00H
	DB	00H
	DB	04H
	DB	01aH
	DB	032H
	DB	048H
	DB	014H
	DB	0bH
	DB	03H
	DB	0aH
	DB	03aH
	DB	021H
	DB	04H
	DB	08H
	DB	049H
	DB	049H
	DB	02cH
	DB	031H
	DB	018H
	DB	02eH
	DB	02cH
	DB	018H
	DB	08H
	DB	049H
	DB	06H
	DB	02H
	DB	098H
	DB	04bH
	DB	018H
	DB	017H
	DB	035H
	DB	02cH
	DB	05fH
	DB	041H
	DB	02dH
	DB	0aH
	DB	016H
	DB	018H
	DB	049H
	DB	03eH
	DB	018H
	DB	0aH
	DB	06H
	DB	06H
	DB	018H
	DB	018H
	DB	06H
	DB	05H
	DB	07H
	DB	06H
	DB	016H
	DB	03aH
	DB	016H
	DB	03aH
	DB	06H
	DB	06H
	DB	08H
	DB	02H
	DB	02eH
	DB	046H
	DB	02cH
	DB	018H
	DB	018H
	DB	06H
	DB	018H
	DB	017H
	DB	016H
	DB	018H
	DB	08H
	DB	014H
	DB	05H
	DB	05H
	DB	014H
	DB	08H
	DB	08H
	DB	018H
	DB	018H
	DB	0aH
	DB	01H
	DB	01H
	DB	08H
	DB	017H
	DB	06H
	DB	02aH
	DB	02aH
	DB	023H
	DB	023H
	DB	021H
	DB	020H
	DB	01H
	DB	08H
	DB	02H
	DB	0bH
	DB	014H
	DB	014H
	DB	05H
	DB	01aH
	DB	04H
	DB	01H
	DB	02H
	DB	014H
	DB	02H
	DB	021H
	DB	021H
	DB	07H
	DB	05H
	DB	02H
	DB	07H
	DB	01H
	DB	020H
	DB	01H
	DB	047H
	DB	098H
	DB	06H
	DB	031H
	DB	01H
	DB	025H
	DB	01H
	DB	01H
	DB	07H
	DB	07H
	DB	07H
	DB	02H
	DB	021H
	DB	01H
	DB	01H
	DB	0bH
	DB	01H
	DB	07H
	DB	01aH
	DB	04H
	DB	00H
	DB	00H
	DB	010H
	DB	010H
	DB	00H
	DB	00H
	DB	00H
	DB	00H
	DB	00H
	DB	00H
	DB	00H
	DB	00H
	DB	00H
	DB	00H
	DB	00H
	DB	00H
	DB	00H
	DB	00H
	DB	00H
	DB	00H
	DB	00H
	DB	00H
	DB	00H
	DB	00H
	DB	00H
	DB	00H
	DB	00H
	DB	00H
	DB	00H
	DB	03H
	DB	03H
	DB	020H
	DB	0aeH
	DB	03H
	DB	03H
	DB	00H
	DB	00H
	DB	04H
	DB	04bH
	DB	0a5H
	DB	00H
	DB	03H
	DB	03H
	DB	03H
	DB	00H
	DB	00H
	DB	00H
	DB	043H
	DB	053H
	DB	038H
	DB	05H
	DB	05H
	DB	05H
	DB	03H
	DB	00H
	DB	025H
	DB	025H
	DB	03H
	DB	04H
	DB	03H
	DB	03H
	DB	03H
	DB	03H
	DB	00H
	DB	00H
	DB	043H
	DB	07H
	DB	04H
	DB	03H
	DB	03H
	DB	03H
	DB	00H
	DB	03H
	DB	01aH
	DB	01aH
	DB	03H
	DB	07H
	DB	07H
	DB	04H
	DB	03H
	DB	030H
	DB	01aH
	DB	07H
	DB	07H
	DB	01aH
	DB	047H
	DB	04H
	DB	03H
	DB	00H
	DB	06eH
	DB	02dH
	DB	06bH
	DB	030H
	DB	01aH
	DB	03H
	DB	00H
	DB	03H
	DB	02dH
	DB	08H
	DB	053H
	DB	02H
	DB	01H
	DB	01aH
	DB	07H
	DB	021H
	DB	043H
	DB	038H
	DB	06bH
	DB	030H
	DB	030H
	DB	030H
	DB	038H
	DB	0aH
	DB	047H
	DB	03H
	DB	032H
	DB	07H
	DB	047H
	DB	047H
	DB	06bH
	DB	0aH
	DB	08H
	DB	08H
	DB	08H
	DB	066H
	DB	066H
	DB	066H
	DB	06bH
	DB	07H
	DB	026H
	DB	026H
	DB	06bH
	DB	032H
	DB	01aH
	DB	01aH
	DB	026H
	DB	039H
	DB	06bH
	DB	04H
	DB	04H
	DB	043H
	DB	018H
	DB	0aaH
	DB	019H
	DB	00H
	DB	00H
	DB	00H
	DB	00H
	DB	04H
	DB	0aH
	DB	049H
	DB	018H
	DB	053H
	DB	06fH
	DB	02eH
	DB	028H
	DB	068H
	DB	018H
	DB	089H
	DB	0b7H
	DB	026H
	DB	026H
	DB	01aH
	DB	066H
	DB	049H
	DB	08H
	DB	04H
	DB	030H
	DB	046H
	DB	012H
	DB	017H
	DB	039H
	DB	032H
	DB	017H
	DB	0cdH
	DB	0a7H
	DB	05H
	DB	0aH
	DB	01H
	DB	04H
	DB	00H
	DB	00H
	DB	098H
	DB	048H
	DB	0a5H
	DB	047H
	DB	01H
	DB	00H
	DB	00H
	DB	00H
	DB	021H
	DB	06H
	DB	00H
	DB	00H
	DB	00H
	DB	00H
	DB	088H
	DB	015H
	DB	015H
	DB	015H
	DB	015H
	DB	015H
	DB	0a4H
	DB	0feH
	DB	0eH
	DB	0eH
	DB	0c0H
	DB	0c0H
	DB	0ffH
	DB	0dH
	DB	0dH
	DB	0dH
	DB	0c1H
	DB	0c1H
	DB	0c1H
	DB	0c1H
	DB	0c1H
	DB	0c1H
	DB	013H
	DB	013H
	DB	013H
	DB	013H
	DB	013H
	DB	013H
	DB	013H
	DB	013H
	DB	013H
	DB	013H
	DB	013H
	DB	013H
	DB	013H
	DB	0eH
	DB	03aH
	DB	00H
	DB	022H
	DB	09dH
	DB	0fH
	DB	012H
	DB	07fH
	DB	07fH
	DB	022H
	DB	022H
	DB	022H
	DB	022H
	DB	022H
	DB	022H
	DB	022H
	DB	022H
	DB	022H
	DB	022H
	DB	022H
	DB	022H
	DB	052H
	DB	022H
	DB	022H
	DB	07fH
	DB	012H
	DB	02H
	DB	00H
	DB	01bH
	DB	0c1H
	DB	013H
	DB	013H
	DB	013H
	DB	013H
	DB	013H
	DB	013H
	DB	013H
	DB	013H
	DB	013H
	DB	013H
	DB	013H
	DB	013H
	DB	013H
	DB	013H
	DB	013H
	DB	013H
	DB	013H
	DB	013H
	DB	013H
	DB	0c1H
	DB	0c1H
	DB	0c1H
	DB	0c1H
	DB	0dH
	DB	0dH
	DB	0ffH
	DB	0ffH
	DB	0c0H
	DB	0eH
	DB	0eH
	DB	0feH
	DB	0a4H
	DB	015H
	DB	015H
	DB	015H
	DB	015H
	DB	015H
	DB	015H
	DB	024H
	DB	00H
	DB	00H
	DB	00H
	DB	00H
	DB	0fH
	DB	01cH
	DB	01cH
	DB	022H
	DB	02dH
	DB	03eH
	DB	066H
	DB	02cH
	DB	046H
	DB	03eH
	DB	053H
	DB	068H
	DB	046H
	DB	041H
	DB	0aH
	DB	066H
	DB	03eH
	DB	060H
	DB	02cH
	DB	041H
	DB	041H
	DB	018H
	DB	018H
	DB	02dH
	DB	0aH
	DB	017H
	DB	017H
	DB	018H
	DB	018H
	DB	06H
	DB	08H
	DB	049H
	DB	08H
	DB	028H
	DB	049H
	DB	02dH
	DB	017H
	DB	02cH
	DB	016H
	DB	02fH
	DB	05eH
	DB	02cH
	DB	02fH
	DB	031H
	DB	020H
	DB	00H
	DB	03H
	DB	032H
	DB	010H
	DB	00H
	DB	00H
	DB	010H
	DB	04H
	DB	014H
	DB	046H
	DB	072H
	DB	0e4H
	DB	021H
	DB	047H
	DB	0ddH
	DB	060H
	DB	02cH
	DB	016H
	DB	05fH
	DB	02eH
	DB	022H
	DB	016H
	DB	016H
	DB	035H
	DB	06H
	DB	04H
	DB	0aeH
	DB	08H
	DB	018H
	DB	06H
	DB	02fH
	DB	03eH
	DB	03eH
	DB	02cH
	DB	018H
	DB	016H
	DB	02cH
	DB	016H
	DB	02fH
	DB	031H
	DB	03aH
	DB	06H
	DB	017H
	DB	03aH
	DB	06H
	DB	08H
	DB	02dH
	DB	068H
	DB	018H
	DB	017H
	DB	017H
	DB	016H
	DB	031H
	DB	06H
	DB	028H
	DB	03aH
	DB	02aH
	DB	048H
	DB	0e6H
	DB	051H
	DB	03aH
	DB	018H
	DB	018H
	DB	018H
	DB	018H
	DB	028H
	DB	018H
	DB	018H
	DB	06H
	DB	08H
	DB	07H
	DB	01aH
	DB	05H
	DB	0aH
	DB	08H
	DB	028H
	DB	018H
	DB	06H
	DB	02H
	DB	047H
	DB	05H
	DB	0aH
	DB	02H
	DB	08H
	DB	08H
	DB	0aH
	DB	06H
	DB	018H
	DB	017H
	DB	017H
	DB	06H
	DB	0aH
	DB	0bH
	DB	05H
	DB	05H
	DB	028H
	DB	018H
	DB	07H
	DB	0bH
	DB	0cH
	DB	0cH
	DB	02H
	DB	0aH
	DB	05H
	DB	05H
	DB	014H
	DB	01fH
	DB	07H
	DB	01H
	DB	01H
	DB	01H
	DB	047H
	DB	05H
	DB	014H
	DB	0aH
	DB	01H
	DB	020H
	DB	01H
	DB	0bH
	DB	0bH
	DB	05H
	DB	02H
	DB	02H
	DB	0bH
	DB	01H
	DB	010H
	DB	010H
	DB	010H
	DB	03H
	DB	01H
	DB	010H
	DB	00H
	DB	00H
	DB	00H
	DB	00H
	DB	00H
	DB	00H
	DB	00H
	DB	00H
	DB	00H
	DB	00H
	DB	00H
	DB	00H
	DB	00H
	DB	00H
	DB	00H
	DB	00H
	DB	00H
	DB	00H
	DB	00H
	DB	00H
	DB	00H
	DB	00H
	DB	00H
	DB	00H
	DB	00H
	DB	00H
	DB	00H
	DB	00H
	DB	00H
	DB	00H
	DB	00H
	DB	00H
	DB	00H
	DB	00H
	DB	00H
	DB	00H
	DB	00H
	DB	00H
	DB	00H
	DB	03H
	DB	03H
	DB	03H
	DB	01aH
	DB	01aH
	DB	00H
	DB	00H
	DB	03H
	DB	03aH
	DB	03aH
	DB	05H
	DB	047H
	DB	047H
	DB	01aH
	DB	03H
	DB	00H
	DB	063H
	DB	025H
	DB	00H
	DB	00H
	DB	00H
	DB	03H
	DB	03H
	DB	03H
	DB	01aH
	DB	01aH
	DB	026H
	DB	01aH
	DB	00H
	DB	03H
	DB	01aH
	DB	01aH
	DB	030H
	DB	03H
	DB	030H
	DB	03H
	DB	03H
	DB	050H
	DB	02H
	DB	00H
	DB	03H
	DB	01aH
	DB	01aH
	DB	07H
	DB	01H
	DB	00H
	DB	00H
	DB	00H
	DB	00H
	DB	00H
	DB	04H
	DB	05dH
	DB	04H
	DB	00H
	DB	03H
	DB	03H
	DB	01aH
	DB	053H
	DB	068H
	DB	02aH
	DB	031H
	DB	044H
	DB	0bH
	DB	026H
	DB	026H
	DB	021H
	DB	053H
	DB	038H
	DB	066H
	DB	050H
	DB	06eH
	DB	01aH
	DB	06bH
	DB	026H
	DB	04H
	DB	01aH
	DB	02dH
	DB	05H
	DB	03H
	DB	06eH
	DB	026H
	DB	066H
	DB	0aH
	DB	02H
	DB	01aH
	DB	01aH
	DB	026H
	DB	039H
	DB	026H
	DB	03H
	DB	03H
	DB	066H
	DB	026H
	DB	030H
	DB	06eH
	DB	06eH
	DB	026H
	DB	05H
	DB	01aH
	DB	05H
	DB	04H
	DB	05H
	DB	0bH
	DB	010H
	DB	00H
	DB	00H
	DB	03H
	DB	053H
	DB	053H
	DB	038H
	DB	06fH
	DB	017H
	DB	0aH
	DB	018H
	DB	017H
	DB	026H
	DB	026H
	DB	018H
	DB	06H
	DB	0aH
	DB	053H
	DB	026H
	DB	066H
	DB	066H
	DB	066H
	DB	02dH
	DB	0aH
	DB	01H
	DB	04H
	DB	039H
	DB	06H
	DB	0cH
	DB	04H
	DB	06eH
	DB	048H
	DB	0a7H
	DB	01dH
	DB	0aH
	DB	026H
	DB	038H
	DB	01aH
	DB	00H
	DB	00H
	DB	00H
	DB	010H
	DB	032H
	DB	010H
	DB	00H
	DB	00H
	DB	00H
	DB	010H
	DB	014H
	DB	010H
	DB	00H
	DB	00H
	DB	00H
	DB	0efH
	DB	015H
	DB	015H
	DB	015H
	DB	015H
	DB	0a4H
	DB	0a4H
	DB	0eH
	DB	0eH
	DB	0eH
	DB	0c0H
	DB	0ffH
	DB	0ffH
	DB	0dH
	DB	0dH
	DB	0dH
	DB	0c1H
	DB	0c1H
	DB	0c1H
	DB	0c1H
	DB	0c1H
	DB	0c1H
	DB	0c1H
	DB	013H
	DB	013H
	DB	013H
	DB	013H
	DB	013H
	DB	013H
	DB	013H
	DB	013H
	DB	013H
	DB	013H
	DB	013H
	DB	013H
	DB	0dH
	DB	022H
	DB	00H
	DB	03aH
	DB	0a3H
	DB	0fH
	DB	012H
	DB	07fH
	DB	022H
	DB	05eH
	DB	05eH
	DB	05eH
	DB	05eH
	DB	05eH
	DB	05eH
	DB	05eH
	DB	05eH
	DB	05eH
	DB	05eH
	DB	05eH
	DB	05eH
	DB	05eH
	DB	05eH
	DB	022H
	DB	022H
	DB	05eH
	DB	022H
	DB	022H
	DB	020H
	DB	00H
	DB	088H
	DB	013H
	DB	013H
	DB	013H
	DB	013H
	DB	013H
	DB	013H
	DB	013H
	DB	013H
	DB	013H
	DB	013H
	DB	013H
	DB	013H
	DB	013H
	DB	013H
	DB	013H
	DB	013H
	DB	013H
	DB	013H
	DB	013H
	DB	013H
	DB	013H
	DB	0c1H
	DB	0c1H
	DB	0c1H
	DB	0dH
	DB	0dH
	DB	0dH
	DB	0ffH
	DB	0c0H
	DB	0eH
	DB	0eH
	DB	0feH
	DB	0a4H
	DB	0a4H
	DB	015H
	DB	015H
	DB	015H
	DB	015H
	DB	015H
	DB	01bH
	DB	00H
	DB	00H
	DB	00H
	DB	020H
	DB	0eeH
	DB	067H
	DB	0acH
	DB	06H
	DB	03aH
	DB	05fH
	DB	02eH
	DB	041H
	DB	041H
	DB	02cH
	DB	041H
	DB	02eH
	DB	046H
	DB	02cH
	DB	03eH
	DB	02eH
	DB	02eH
	DB	041H
	DB	046H
	DB	041H
	DB	02cH
	DB	017H
	DB	03eH
	DB	02cH
	DB	041H
	DB	02eH
	DB	02cH
	DB	041H
	DB	02cH
	DB	08H
	DB	02dH
	DB	026H
	DB	08H
	DB	017H
	DB	0aH
	DB	018H
	DB	016H
	DB	049H
	DB	05dH
	DB	0a8H
	DB	014H
	DB	019H
	DB	010H
	DB	00H
	DB	00H
	DB	03H
	DB	00H
	DB	03H
	DB	038H
	DB	03H
	DB	00H
	DB	07H
	DB	04bH
	DB	051H
	DB	0e4H
	DB	08aH
	DB	0bH
	DB	00H
	DB	0aeH
	DB	0ddH
	DB	017H
	DB	03eH
	DB	02cH
	DB	018H
	DB	018H
	DB	035H
	DB	016H
	DB	02cH
	DB	028H
	DB	04H
	DB	05H
	DB	017H
	DB	016H
	DB	016H
	DB	017H
	DB	02cH
	DB	02cH
	DB	017H
	DB	03aH
	DB	02cH
	DB	018H
	DB	018H
	DB	06H
	DB	031H
	DB	02fH
	DB	01fH
	DB	08H
	DB	018H
	DB	018H
	DB	02dH
	DB	017H
	DB	017H
	DB	017H
	DB	017H
	DB	03eH
	DB	018H
	DB	023H
	DB	031H
	DB	016H
	DB	02cH
	DB	068H
	DB	0aH
	DB	02H
	DB	028H
	DB	016H
	DB	03aH
	DB	018H
	DB	06H
	DB	018H
	DB	017H
	DB	03aH
	DB	02aH
	DB	06H
	DB	06H
	DB	0aH
	DB	02H
	DB	05H
	DB	0aH
	DB	018H
	DB	06H
	DB	06H
	DB	018H
	DB	06H
	DB	08H
	DB	02H
	DB	07H
	DB	028H
	DB	05dH
	DB	019H
	DB	0bH
	DB	08H
	DB	017H
	DB	06H
	DB	028H
	DB	06H
	DB	05H
	DB	0bH
	DB	014H
	DB	018H
	DB	017H
	DB	08H
	DB	01H
	DB	01H
	DB	04H
	DB	04H
	DB	07H
	DB	0bH
	DB	0bH
	DB	05H
	DB	05H
	DB	0bH
	DB	04H
	DB	01H
	DB	02H
	DB	02H
	DB	014H
	DB	0aH
	DB	014H
	DB	02H
	DB	02H
	DB	05H
	DB	05H
	DB	01H
	DB	047H
	DB	032H
	DB	014H
	DB	02H
	DB	0bH
	DB	019H
	DB	00H
	DB	010H
	DB	04H
	DB	020H
	DB	00H
	DB	00H
	DB	00H
	DB	00H
	DB	00H
	DB	00H
	DB	00H
	DB	00H
	DB	00H
	DB	00H
	DB	00H
	DB	00H
	DB	00H
	DB	00H
	DB	00H
	DB	00H
	DB	00H
	DB	00H
	DB	00H
	DB	00H
	DB	00H
	DB	00H
	DB	00H
	DB	00H
	DB	00H
	DB	00H
	DB	00H
	DB	00H
	DB	00H
	DB	00H
	DB	00H
	DB	00H
	DB	00H
	DB	00H
	DB	00H
	DB	00H
	DB	00H
	DB	03H
	DB	03H
	DB	00H
	DB	00H
	DB	00H
	DB	03H
	DB	03H
	DB	030H
	DB	01aH
	DB	03H
	DB	00H
	DB	030H
	DB	0aH
	DB	08H
	DB	07H
	DB	010H
	DB	00H
	DB	03H
	DB	01aH
	DB	03H
	DB	025H
	DB	025H
	DB	00H
	DB	00H
	DB	00H
	DB	00H
	DB	03H
	DB	026H
	DB	026H
	DB	026H
	DB	066H
	DB	038H
	DB	03H
	DB	030H
	DB	06eH
	DB	06bH
	DB	07H
	DB	03H
	DB	06eH
	DB	050H
	DB	038H
	DB	06fH
	DB	016H
	DB	07H
	DB	06eH
	DB	026H
	DB	026H
	DB	01aH
	DB	04H
	DB	019H
	DB	00H
	DB	00H
	DB	00H
	DB	00H
	DB	00H
	DB	00H
	DB	00H
	DB	03H
	DB	03H
	DB	03H
	DB	03H
	DB	043H
	DB	0aH
	DB	02aH
	DB	057H
	DB	045H
	DB	021H
	DB	026H
	DB	032H
	DB	07H
	DB	023H
	DB	02H
	DB	0aH
	DB	0aH
	DB	026H
	DB	026H
	DB	026H
	DB	04H
	DB	00H
	DB	038H
	DB	068H
	DB	053H
	DB	026H
	DB	049H
	DB	049H
	DB	026H
	DB	026H
	DB	026H
	DB	06eH
	DB	06eH
	DB	038H
	DB	01aH
	DB	032H
	DB	06eH
	DB	07H
	DB	08H
	DB	02dH
	DB	026H
	DB	07H
	DB	01H
	DB	047H
	DB	03H
	DB	03H
	DB	01aH
	DB	01aH
	DB	047H
	DB	00H
	DB	00H
	DB	00H
	DB	093H
	DB	041H
	DB	0fH
	DB	0a3H
	DB	07fH
	DB	022H
	DB	017H
	DB	053H
	DB	02dH
	DB	08H
	DB	026H
	DB	0aH
	DB	08H
	DB	0aH
	DB	050H
	DB	08H
	DB	017H
	DB	017H
	DB	08H
	DB	08H
	DB	04bH
	DB	048H
	DB	05H
	DB	01aH
	DB	03H
	DB	02H
	DB	01dH
	DB	043H
	DB	026H
	DB	05H
	DB	07H
	DB	02dH
	DB	08H
	DB	026H
	DB	050H
	DB	026H
	DB	01aH
	DB	01aH
	DB	03H
	DB	03H
	DB	026H
	DB	026H
	DB	03H
	DB	00H
	DB	00H
	DB	021H
	DB	01H
	DB	00H
	DB	00H
	DB	00H
	DB	0eeH
	DB	015H
	DB	015H
	DB	015H
	DB	015H
	DB	0a4H
	DB	0a4H
	DB	0feH
	DB	0eH
	DB	0eH
	DB	0c0H
	DB	0ffH
	DB	0ffH
	DB	0dH
	DB	0dH
	DB	0dH
	DB	0c1H
	DB	0c1H
	DB	0c1H
	DB	0c1H
	DB	0c1H
	DB	0c1H
	DB	0c1H
	DB	0c1H
	DB	013H
	DB	013H
	DB	013H
	DB	013H
	DB	013H
	DB	013H
	DB	013H
	DB	013H
	DB	013H
	DB	013H
	DB	013H
	DB	013H
	DB	09eH
	DB	00H
	DB	06H
	DB	07fH
	DB	012H
	DB	012H
	DB	022H
	DB	05eH
	DB	016H
	DB	016H
	DB	035H
	DB	035H
	DB	035H
	DB	035H
	DB	035H
	DB	035H
	DB	035H
	DB	035H
	DB	035H
	DB	035H
	DB	035H
	DB	035H
	DB	016H
	DB	016H
	DB	016H
	DB	035H
	DB	022H
	DB	06H
	DB	014H
	DB	01H
	DB	020H
	DB	01eH
	DB	013H
	DB	013H
	DB	013H
	DB	013H
	DB	013H
	DB	013H
	DB	013H
	DB	013H
	DB	013H
	DB	013H
	DB	013H
	DB	013H
	DB	013H
	DB	013H
	DB	013H
	DB	013H
	DB	013H
	DB	013H
	DB	013H
	DB	013H
	DB	013H
	DB	0c1H
	DB	0c1H
	DB	0c1H
	DB	0dH
	DB	0dH
	DB	0dH
	DB	0ffH
	DB	0c0H
	DB	0eH
	DB	0eH
	DB	0eH
	DB	0feH
	DB	0a4H
	DB	015H
	DB	015H
	DB	015H
	DB	015H
	DB	015H
	DB	07dH
	DB	00H
	DB	00H
	DB	00H
	DB	02H
	DB	0f0H
	DB	067H
	DB	083H
	DB	021H
	DB	02cH
	DB	041H
	DB	041H
	DB	046H
	DB	041H
	DB	02cH
	DB	03eH
	DB	02eH
	DB	022H
	DB	02eH
	DB	060H
	DB	02eH
	DB	041H
	DB	02cH
	DB	022H
	DB	05eH
	DB	03eH
	DB	02eH
	DB	041H
	DB	046H
	DB	060H
	DB	02cH
	DB	041H
	DB	02eH
	DB	02cH
	DB	02eH
	DB	03eH
	DB	02cH
	DB	02cH
	DB	016H
	DB	01fH
	DB	0bH
	DB	05H
	DB	047H
	DB	010H
	DB	00H
	DB	00H
	DB	00H
	DB	00H
	DB	06eH
	DB	02dH
	DB	0aH
	DB	017H
	DB	041H
	DB	02aH
	DB	02aH
	DB	017H
	DB	047H
	DB	08fH
	DB	0cH
	DB	00H
	DB	00H
	DB	00H
	DB	00H
	DB	010H
	DB	048H
	DB	05fH
	DB	016H
	DB	068H
	DB	038H
	DB	0bH
	DB	02H
	DB	018H
	DB	08H
	DB	05H
	DB	018H
	DB	035H
	DB	035H
	DB	016H
	DB	017H
	DB	02cH
	DB	02cH
	DB	017H
	DB	017H
	DB	08H
	DB	08H
	DB	018H
	DB	016H
	DB	06H
	DB	0aH
	DB	05H
	DB	07H
	DB	08H
	DB	06H
	DB	028H
	DB	016H
	DB	06H
	DB	017H
	DB	035H
	DB	016H
	DB	08H
	DB	0aH
	DB	018H
	DB	02cH
	DB	02eH
	DB	016H
	DB	02cH
	DB	018H
	DB	028H
	DB	017H
	DB	02cH
	DB	017H
	DB	06H
	DB	017H
	DB	016H
	DB	06H
	DB	014H
	DB	06H
	DB	018H
	DB	018H
	DB	08H
	DB	08H
	DB	017H
	DB	016H
	DB	0aH
	DB	08H
	DB	049H
	DB	04bH
	DB	028H
	DB	01dH
	DB	047H
	DB	0a8H
	DB	0bH
	DB	00H
	DB	010H
	DB	048H
	DB	08H
	DB	0aH
	DB	08H
	DB	02aH
	DB	0bH
	DB	014H
	DB	028H
	DB	03aH
	DB	018H
	DB	02H
	DB	021H
	DB	02H
	DB	07H
	DB	038H
	DB	07H
	DB	04H
	DB	01dH
	DB	05H
	DB	04H
	DB	03H
	DB	047H
	DB	0bH
	DB	07H
	DB	0bH
	DB	014H
	DB	0aH
	DB	05H
	DB	0bH
	DB	019H
	DB	01H
	DB	07H
	DB	01H
	DB	07H
	DB	032H
	DB	0bH
	DB	0bH
	DB	0bH
	DB	020H
	DB	00H
	DB	04H
	DB	01dH
	DB	020H
	DB	00H
	DB	00H
	DB	00H
	DB	00H
	DB	00H
	DB	00H
	DB	00H
	DB	00H
	DB	00H
	DB	00H
	DB	00H
	DB	00H
	DB	00H
	DB	00H
	DB	00H
	DB	00H
	DB	00H
	DB	00H
	DB	00H
	DB	00H
	DB	00H
	DB	00H
	DB	00H
	DB	00H
	DB	00H
	DB	00H
	DB	00H
	DB	00H
	DB	00H
	DB	00H
	DB	00H
	DB	00H
	DB	00H
	DB	00H
	DB	00H
	DB	00H
	DB	00H
	DB	03H
	DB	030H
	DB	04H
	DB	00H
	DB	00H
	DB	00H
	DB	00H
	DB	00H
	DB	03H
	DB	03H
	DB	03H
	DB	01aH
	DB	053H
	DB	053H
	DB	07H
	DB	03H
	DB	00H
	DB	03H
	DB	0bH
	DB	010H
	DB	00H
	DB	00H
	DB	00H
	DB	00H
	DB	00H
	DB	00H
	DB	043H
	DB	0aH
	DB	026H
	DB	06bH
	DB	06bH
	DB	038H
	DB	01aH
	DB	030H
	DB	06eH
	DB	026H
	DB	07H
	DB	030H
	DB	026H
	DB	018H
	DB	038H
	DB	0aH
	DB	05dH
	DB	0aH
	DB	026H
	DB	038H
	DB	07H
	DB	01aH
	DB	032H
	DB	01H
	DB	020H
	DB	07H
	DB	03H
	DB	00H
	DB	00H
	DB	00H
	DB	00H
	DB	03H
	DB	03H
	DB	03H
	DB	030H
	DB	053H
	DB	0aH
	DB	02H
	DB	05H
	DB	07H
	DB	07H
	DB	032H
	DB	04H
	DB	043H
	DB	021H
	DB	05H
	DB	047H
	DB	04H
	DB	032H
	DB	0aH
	DB	0aH
	DB	03H
	DB	03H
	DB	050H
	DB	06fH
	DB	02dH
	DB	05H
	DB	048H
	DB	08H
	DB	0aH
	DB	02dH
	DB	0c6H
	DB	039H
	DB	026H
	DB	038H
	DB	0aH
	DB	06bH
	DB	06bH
	DB	06H
	DB	05dH
	DB	0bH
	DB	01aH
	DB	01aH
	DB	01aH
	DB	01aH
	DB	01aH
	DB	01aH
	DB	01aH
	DB	04H
	DB	010H
	DB	00H
	DB	030H
	DB	0e3H
	DB	0fH
	DB	05aH
	DB	05aH
	DB	0edH
	DB	09bH
	DB	022H
	DB	017H
	DB	018H
	DB	017H
	DB	08H
	DB	068H
	DB	0aH
	DB	02H
	DB	053H
	DB	026H
	DB	026H
	DB	07fH
	DB	051H
	DB	039H
	DB	0d9H
	DB	0c6H
	DB	026H
	DB	05H
	DB	07H
	DB	03H
	DB	0aH
	DB	068H
	DB	068H
	DB	026H
	DB	038H
	DB	053H
	DB	021H
	DB	05H
	DB	026H
	DB	02dH
	DB	06bH
	DB	032H
	DB	026H
	DB	06bH
	DB	032H
	DB	05H
	DB	0aH
	DB	04H
	DB	00H
	DB	010H
	DB	01H
	DB	00H
	DB	00H
	DB	00H
	DB	022H
	DB	015H
	DB	015H
	DB	015H
	DB	015H
	DB	015H
	DB	0a4H
	DB	0feH
	DB	0eH
	DB	0eH
	DB	0c0H
	DB	0c0H
	DB	0ffH
	DB	0dH
	DB	0dH
	DB	0dH
	DB	0c1H
	DB	0c1H
	DB	0c1H
	DB	0c1H
	DB	0c1H
	DB	0c1H
	DB	0c1H
	DB	0c1H
	DB	0c1H
	DB	0c1H
	DB	013H
	DB	013H
	DB	013H
	DB	013H
	DB	013H
	DB	013H
	DB	013H
	DB	013H
	DB	013H
	DB	013H
	DB	011H
	DB	00H
	DB	02H
	DB	07fH
	DB	022H
	DB	016H
	DB	022H
	DB	05eH
	DB	016H
	DB	016H
	DB	016H
	DB	016H
	DB	016H
	DB	016H
	DB	016H
	DB	016H
	DB	016H
	DB	016H
	DB	016H
	DB	016H
	DB	016H
	DB	016H
	DB	016H
	DB	016H
	DB	016H
	DB	016H
	DB	022H
	DB	016H
	DB	02H
	DB	02H
	DB	02aH
	DB	00H
	DB	016H
	DB	0fcH
	DB	013H
	DB	013H
	DB	013H
	DB	013H
	DB	013H
	DB	013H
	DB	013H
	DB	013H
	DB	013H
	DB	013H
	DB	013H
	DB	013H
	DB	013H
	DB	013H
	DB	013H
	DB	013H
	DB	013H
	DB	013H
	DB	013H
	DB	013H
	DB	013H
	DB	0c1H
	DB	0c1H
	DB	0c1H
	DB	0dH
	DB	0dH
	DB	0dH
	DB	0ffH
	DB	0c0H
	DB	0eH
	DB	0eH
	DB	0eH
	DB	0a4H
	DB	0a4H
	DB	015H
	DB	015H
	DB	015H
	DB	015H
	DB	0fcH
	DB	0a3H
	DB	00H
	DB	00H
	DB	00H
	DB	052H
	DB	05cH
	DB	092H
	DB	022H
	DB	018H
	DB	07fH
	DB	060H
	DB	03eH
	DB	02eH
	DB	05eH
	DB	02eH
	DB	041H
	DB	041H
	DB	02cH
	DB	017H
	DB	060H
	DB	02cH
	DB	017H
	DB	017H
	DB	017H
	DB	02cH
	DB	02eH
	DB	041H
	DB	05eH
	DB	0aH
	DB	018H
	DB	041H
	DB	041H
	DB	022H
	DB	035H
	DB	02eH
	DB	041H
	DB	02cH
	DB	02fH
	DB	0cH
	DB	010H
	DB	00H
	DB	00H
	DB	03H
	DB	03H
	DB	00H
	DB	00H
	DB	026H
	DB	02eH
	DB	012H
	DB	07fH
	DB	02cH
	DB	035H
	DB	06H
	DB	0cH
	DB	02H
	DB	010H
	DB	00H
	DB	00H
	DB	00H
	DB	00H
	DB	00H
	DB	00H
	DB	00H
	DB	010H
	DB	048H
	DB	017H
	DB	03eH
	DB	02aH
	DB	043H
	DB	0aH
	DB	03aH
	DB	06H
	DB	018H
	DB	017H
	DB	035H
	DB	014H
	DB	01H
	DB	08H
	DB	060H
	DB	02cH
	DB	017H
	DB	028H
	DB	08H
	DB	0aH
	DB	08H
	DB	028H
	DB	018H
	DB	049H
	DB	08H
	DB	068H
	DB	02dH
	DB	05H
	DB	021H
	DB	0aH
	DB	08H
	DB	05fH
	DB	016H
	DB	03aH
	DB	018H
	DB	017H
	DB	017H
	DB	035H
	DB	022H
	DB	02cH
	DB	02cH
	DB	035H
	DB	017H
	DB	02H
	DB	048H
	DB	049H
	DB	02dH
	DB	08H
	DB	08H
	DB	02fH
	DB	02fH
	DB	031H
	DB	018H
	DB	06H
	DB	08H
	DB	04bH
	DB	06H
	DB	02H
	DB	07H
	DB	05H
	DB	0bH
	DB	098H
	DB	02H
	DB	01H
	DB	0bH
	DB	098H
	DB	00H
	DB	00H
	DB	0bH
	DB	08H
	DB	0aH
	DB	08H
	DB	06H
	DB	0aH
	DB	02H
	DB	06H
	DB	06H
	DB	014H
	DB	023H
	DB	021H
	DB	0bH
	DB	01fH
	DB	02aH
	DB	0aH
	DB	02H
	DB	07H
	DB	01dH
	DB	02H
	DB	07H
	DB	04H
	DB	04H
	DB	01H
	DB	01H
	DB	047H
	DB	048H
	DB	02H
	DB	05H
	DB	01H
	DB	04H
	DB	07H
	DB	01aH
	DB	05H
	DB	023H
	DB	07H
	DB	03H
	DB	0bH
	DB	0bH
	DB	020H
	DB	04H
	DB	047H
	DB	04H
	DB	010H
	DB	00H
	DB	00H
	DB	00H
	DB	00H
	DB	00H
	DB	00H
	DB	00H
	DB	00H
	DB	00H
	DB	00H
	DB	00H
	DB	00H
	DB	00H
	DB	00H
	DB	00H
	DB	00H
	DB	00H
	DB	00H
	DB	00H
	DB	00H
	DB	00H
	DB	00H
	DB	00H
	DB	00H
	DB	00H
	DB	00H
	DB	00H
	DB	00H
	DB	00H
	DB	00H
	DB	03H
	DB	03H
	DB	03H
	DB	00H
	DB	00H
	DB	00H
	DB	00H
	DB	00H
	DB	03H
	DB	03H
	DB	03H
	DB	03H
	DB	00H
	DB	00H
	DB	03H
	DB	06eH
	DB	04H
	DB	03H
	DB	07H
	DB	08H
	DB	02H
	DB	01aH
	DB	030H
	DB	020H
	DB	025H
	DB	00H
	DB	00H
	DB	00H
	DB	00H
	DB	00H
	DB	00H
	DB	043H
	DB	023H
	DB	06H
	DB	0aH
	DB	026H
	DB	066H
	DB	026H
	DB	04H
	DB	04H
	DB	03H
	DB	030H
	DB	032H
	DB	06eH
	DB	06bH
	DB	026H
	DB	01aH
	DB	01aH
	DB	04H
	DB	025H
	DB	07H
	DB	05H
	DB	01aH
	DB	04H
	DB	01aH
	DB	032H
	DB	01aH
	DB	053H
	DB	068H
	DB	026H
	DB	03H
	DB	03H
	DB	00H
	DB	03H
	DB	047H
	DB	010H
	DB	03H
	DB	04H
	DB	021H
	DB	0aH
	DB	01aH
	DB	01aH
	DB	01aH
	DB	03H
	DB	01aH
	DB	06eH
	DB	01aH
	DB	030H
	DB	06eH
	DB	07H
	DB	026H
	DB	04H
	DB	04H
	DB	026H
	DB	026H
	DB	050H
	DB	0b0H
	DB	094H
	DB	08H
	DB	03H
	DB	030H
	DB	050H
	DB	06fH
	DB	049H
	DB	05H
	DB	03H
	DB	01aH
	DB	07H
	DB	039H
	DB	032H
	DB	01aH
	DB	048H
	DB	0bH
	DB	00H
	DB	03H
	DB	01aH
	DB	01aH
	DB	032H
	DB	05H
	DB	07H
	DB	07H
	DB	00H
	DB	00H
	DB	00H
	DB	068H
	DB	07dH
	DB	097H
	DB	097H
	DB	09bH
	DB	05bH
	DB	04cH
	DB	02cH
	DB	017H
	DB	08H
	DB	039H
	DB	06eH
	DB	0aH
	DB	02dH
	DB	050H
	DB	026H
	DB	07H
	DB	07H
	DB	052H
	DB	080H
	DB	05H
	DB	06bH
	DB	026H
	DB	039H
	DB	04bH
	DB	01H
	DB	00H
	DB	026H
	DB	017H
	DB	014H
	DB	047H
	DB	066H
	DB	03eH
	DB	01dH
	DB	03H
	DB	07H
	DB	039H
	DB	047H
	DB	03H
	DB	026H
	DB	048H
	DB	0bH
	DB	047H
	DB	01H
	DB	00H
	DB	00H
	DB	01H
	DB	00H
	DB	00H
	DB	00H
	DB	06H
	DB	029H
	DB	015H
	DB	015H
	DB	015H
	DB	015H
	DB	0a4H
	DB	0feH
	DB	0eH
	DB	0eH
	DB	0c0H
	DB	0ffH
	DB	0ffH
	DB	0dH
	DB	0dH
	DB	0dH
	DB	0dH
	DB	0c1H
	DB	0c1H
	DB	0c1H
	DB	0c1H
	DB	0c1H
	DB	0c1H
	DB	0c1H
	DB	0c1H
	DB	0c1H
	DB	0c1H
	DB	0c1H
	DB	0c1H
	DB	0c1H
	DB	013H
	DB	013H
	DB	013H
	DB	013H
	DB	0c1H
	DB	013H
	DB	0c1H
	DB	05eH
	DB	00H
	DB	07fH
	DB	07fH
	DB	035H
	DB	014H
	DB	014H
	DB	016H
	DB	035H
	DB	016H
	DB	016H
	DB	016H
	DB	016H
	DB	016H
	DB	016H
	DB	016H
	DB	016H
	DB	016H
	DB	016H
	DB	016H
	DB	016H
	DB	016H
	DB	016H
	DB	016H
	DB	016H
	DB	035H
	DB	016H
	DB	02H
	DB	021H
	DB	02H
	DB	014H
	DB	02H
	DB	00H
	DB	09eH
	DB	013H
	DB	013H
	DB	013H
	DB	013H
	DB	013H
	DB	013H
	DB	013H
	DB	013H
	DB	013H
	DB	013H
	DB	013H
	DB	013H
	DB	013H
	DB	013H
	DB	013H
	DB	013H
	DB	013H
	DB	013H
	DB	013H
	DB	013H
	DB	013H
	DB	013H
	DB	0c1H
	DB	0c1H
	DB	0c1H
	DB	0c1H
	DB	0dH
	DB	0dH
	DB	0ffH
	DB	0c0H
	DB	0c0H
	DB	0eH
	DB	0eH
	DB	0a4H
	DB	0a4H
	DB	015H
	DB	015H
	DB	015H
	DB	0a4H
	DB	09H
	DB	02H
	DB	00H
	DB	00H
	DB	00H
	DB	07dH
	DB	01cH
	DB	027H
	DB	06H
	DB	02eH
	DB	018H
	DB	018H
	DB	02eH
	DB	052H
	DB	02eH
	DB	02cH
	DB	02cH
	DB	05eH
	DB	016H
	DB	049H
	DB	018H
	DB	018H
	DB	017H
	DB	02eH
	DB	05eH
	DB	02cH
	DB	05eH
	DB	05eH
	DB	02cH
	DB	02cH
	DB	041H
	DB	046H
	DB	022H
	DB	022H
	DB	02cH
	DB	018H
	DB	01fH
	DB	0cH
	DB	047H
	DB	00H
	DB	00H
	DB	05H
	DB	046H
	DB	082H
	DB	03aH
	DB	010H
	DB	098H
	DB	028H
	DB	02fH
	DB	06H
	DB	05H
	DB	098H
	DB	019H
	DB	00H
	DB	00H
	DB	00H
	DB	00H
	DB	00H
	DB	00H
	DB	00H
	DB	01aH
	DB	03H
	DB	010H
	DB	00H
	DB	04H
	DB	02eH
	DB	035H
	DB	018H
	DB	017H
	DB	035H
	DB	016H
	DB	060H
	DB	05fH
	DB	017H
	DB	018H
	DB	0aH
	DB	07H
	DB	04bH
	DB	05fH
	DB	017H
	DB	018H
	DB	08H
	DB	02aH
	DB	07H
	DB	047H
	DB	049H
	DB	017H
	DB	049H
	DB	018H
	DB	02cH
	DB	02dH
	DB	0aH
	DB	02aH
	DB	02H
	DB	048H
	DB	028H
	DB	017H
	DB	06H
	DB	016H
	DB	022H
	DB	02cH
	DB	017H
	DB	016H
	DB	02cH
	DB	016H
	DB	017H
	DB	03aH
	DB	02H
	DB	032H
	DB	049H
	DB	06fH
	DB	0aH
	DB	06H
	DB	016H
	DB	03dH
	DB	02fH
	DB	08H
	DB	08H
	DB	06H
	DB	0aH
	DB	08H
	DB	05H
	DB	05H
	DB	0aH
	DB	021H
	DB	04H
	DB	010H
	DB	098H
	DB	014H
	DB	020H
	DB	00H
	DB	01H
	DB	08H
	DB	02aH
	DB	05H
	DB	048H
	DB	08H
	DB	021H
	DB	05H
	DB	014H
	DB	02H
	DB	07H
	DB	01dH
	DB	05H
	DB	047H
	DB	02H
	DB	02H
	DB	021H
	DB	021H
	DB	021H
	DB	07H
	DB	02H
	DB	02H
	DB	01H
	DB	010H
	DB	01H
	DB	07H
	DB	047H
	DB	05H
	DB	05H
	DB	07H
	DB	010H
	DB	098H
	DB	02fH
	DB	053H
	DB	047H
	DB	0cH
	DB	01H
	DB	04H
	DB	047H
	DB	01H
	DB	04H
	DB	04H
	DB	04H
	DB	03H
	DB	00H
	DB	00H
	DB	00H
	DB	00H
	DB	00H
	DB	00H
	DB	00H
	DB	00H
	DB	00H
	DB	00H
	DB	00H
	DB	00H
	DB	00H
	DB	00H
	DB	00H
	DB	00H
	DB	00H
	DB	00H
	DB	00H
	DB	00H
	DB	00H
	DB	00H
	DB	00H
	DB	00H
	DB	00H
	DB	00H
	DB	00H
	DB	00H
	DB	03H
	DB	03H
	DB	00H
	DB	00H
	DB	03H
	DB	00H
	DB	00H
	DB	00H
	DB	00H
	DB	00H
	DB	03H
	DB	03H
	DB	00H
	DB	03H
	DB	030H
	DB	038H
	DB	026H
	DB	038H
	DB	049H
	DB	05H
	DB	03H
	DB	01aH
	DB	05H
	DB	032H
	DB	01aH
	DB	043H
	DB	065H
	DB	00H
	DB	00H
	DB	00H
	DB	00H
	DB	00H
	DB	00H
	DB	00H
	DB	07H
	DB	023H
	DB	0cH
	DB	01H
	DB	038H
	DB	02dH
	DB	026H
	DB	03H
	DB	03H
	DB	030H
	DB	00H
	DB	00H
	DB	03H
	DB	038H
	DB	05H
	DB	07H
	DB	0aH
	DB	026H
	DB	043H
	DB	021H
	DB	05H
	DB	032H
	DB	03H
	DB	03H
	DB	07H
	DB	0aH
	DB	02dH
	DB	068H
	DB	053H
	DB	03H
	DB	00H
	DB	04H
	DB	047H
	DB	010H
	DB	00H
	DB	00H
	DB	04H
	DB	04H
	DB	01aH
	DB	03H
	DB	03H
	DB	01H
	DB	043H
	DB	026H
	DB	026H
	DB	039H
	DB	01aH
	DB	038H
	DB	068H
	DB	02aH
	DB	07H
	DB	03H
	DB	06eH
	DB	094H
	DB	017H
	DB	050H
	DB	0b0H
	DB	04bH
	DB	01aH
	DB	038H
	DB	041H
	DB	095H
	DB	047H
	DB	00H
	DB	093H
	DB	038H
	DB	01aH
	DB	04H
	DB	030H
	DB	01aH
	DB	06eH
	DB	038H
	DB	030H
	DB	03H
	DB	03H
	DB	03H
	DB	032H
	DB	047H
	DB	03H
	DB	01aH
	DB	03H
	DB	00H
	DB	00H
	DB	05eH
	DB	07dH
	DB	0edH
	DB	05aH
	DB	0b8H
	DB	053H
	DB	068H
	DB	03eH
	DB	049H
	DB	0aH
	DB	050H
	DB	066H
	DB	0b0H
	DB	06fH
	DB	03eH
	DB	018H
	DB	021H
	DB	07H
	DB	035H
	DB	035H
	DB	0aH
	DB	02aH
	DB	026H
	DB	014H
	DB	014H
	DB	03H
	DB	04H
	DB	032H
	DB	026H
	DB	048H
	DB	047H
	DB	039H
	DB	060H
	DB	0bH
	DB	03H
	DB	0aH
	DB	048H
	DB	00H
	DB	00H
	DB	026H
	DB	026H
	DB	04H
	DB	03H
	DB	00H
	DB	00H
	DB	010H
	DB	010H
	DB	00H
	DB	00H
	DB	00H
	DB	0faH
	DB	0a4H
	DB	015H
	DB	015H
	DB	015H
	DB	0a4H
	DB	0feH
	DB	0eH
	DB	0eH
	DB	0c0H
	DB	0c0H
	DB	0ffH
	DB	0dH
	DB	0dH
	DB	0dH
	DB	0dH
	DB	0c1H
	DB	0c1H
	DB	0c1H
	DB	0c1H
	DB	0c1H
	DB	0c1H
	DB	0c1H
	DB	0c1H
	DB	0c1H
	DB	0c1H
	DB	0c1H
	DB	0c1H
	DB	0c1H
	DB	0c1H
	DB	0c1H
	DB	0c1H
	DB	013H
	DB	013H
	DB	013H
	DB	013H
	DB	011H
	DB	00H
	DB	06H
	DB	012H
	DB	022H
	DB	06H
	DB	014H
	DB	021H
	DB	02H
	DB	06H
	DB	016H
	DB	016H
	DB	016H
	DB	016H
	DB	016H
	DB	016H
	DB	016H
	DB	016H
	DB	016H
	DB	016H
	DB	016H
	DB	016H
	DB	016H
	DB	016H
	DB	016H
	DB	03aH
	DB	06H
	DB	02H
	DB	02H
	DB	02H
	DB	02H
	DB	02H
	DB	02aH
	DB	00H
	DB	016H
	DB	0fbH
	DB	0c1H
	DB	013H
	DB	013H
	DB	013H
	DB	013H
	DB	013H
	DB	013H
	DB	013H
	DB	013H
	DB	013H
	DB	013H
	DB	013H
	DB	013H
	DB	013H
	DB	013H
	DB	013H
	DB	013H
	DB	013H
	DB	013H
	DB	013H
	DB	013H
	DB	013H
	DB	0c1H
	DB	0c1H
	DB	0c1H
	DB	0dH
	DB	0dH
	DB	0dH
	DB	0ffH
	DB	0c0H
	DB	0eH
	DB	0eH
	DB	0feH
	DB	0a4H
	DB	015H
	DB	015H
	DB	015H
	DB	015H
	DB	0a4H
	DB	067H
	DB	020H
	DB	00H
	DB	00H
	DB	021H
	DB	027H
	DB	092H
	DB	0fH
	DB	07H
	DB	017H
	DB	022H
	DB	02eH
	DB	028H
	DB	018H
	DB	0aH
	DB	017H
	DB	052H
	DB	052H
	DB	02fH
	DB	018H
	DB	016H
	DB	02cH
	DB	041H
	DB	022H
	DB	016H
	DB	022H
	DB	07fH
	DB	07fH
	DB	041H
	DB	041H
	DB	060H
	DB	02cH
	DB	016H
	DB	031H
	DB	023H
	DB	01dH
	DB	00H
	DB	00H
	DB	00H
	DB	05H
	DB	046H
	DB	0fH
	DB	097H
	DB	051H
	DB	00H
	DB	00H
	DB	010H
	DB	014H
	DB	02H
	DB	010H
	DB	00H
	DB	00H
	DB	00H
	DB	00H
	DB	043H
	DB	03eH
	DB	041H
	DB	018H
	DB	02aH
	DB	06fH
	DB	06eH
	DB	01aH
	DB	07H
	DB	048H
	DB	0b8H
	DB	03aH
	DB	0aH
	DB	028H
	DB	017H
	DB	028H
	DB	017H
	DB	017H
	DB	017H
	DB	06H
	DB	017H
	DB	017H
	DB	028H
	DB	08H
	DB	06H
	DB	06H
	DB	0aH
	DB	08H
	DB	0aH
	DB	07H
	DB	028H
	DB	017H
	DB	04bH
	DB	03eH
	DB	022H
	DB	03eH
	DB	03eH
	DB	02cH
	DB	06H
	DB	05H
	DB	08H
	DB	028H
	DB	018H
	DB	017H
	DB	016H
	DB	03aH
	DB	018H
	DB	017H
	DB	02cH
	DB	016H
	DB	018H
	DB	017H
	DB	017H
	DB	0aH
	DB	08H
	DB	016H
	DB	016H
	DB	035H
	DB	028H
	DB	014H
	DB	0cH
	DB	05H
	DB	08H
	DB	06H
	DB	06H
	DB	018H
	DB	02dH
	DB	018H
	DB	018H
	DB	0aH
	DB	07H
	DB	07H
	DB	08H
	DB	02aH
	DB	053H
	DB	05H
	DB	014H
	DB	06H
	DB	06H
	DB	02H
	DB	0bH
	DB	0bH
	DB	01H
	DB	03H
	DB	010H
	DB	01H
	DB	07H
	DB	05H
	DB	0aH
	DB	032H
	DB	04H
	DB	01H
	DB	01dH
	DB	021H
	DB	0aH
	DB	02H
	DB	0aH
	DB	02H
	DB	07H
	DB	00H
	DB	00H
	DB	07H
	DB	01aH
	DB	047H
	DB	021H
	DB	01H
	DB	010H
	DB	098H
	DB	02fH
	DB	02aH
	DB	04H
	DB	010H
	DB	01H
	DB	03H
	DB	03H
	DB	04H
	DB	04H
	DB	04H
	DB	00H
	DB	00H
	DB	00H
	DB	00H
	DB	010H
	DB	00H
	DB	00H
	DB	00H
	DB	00H
	DB	00H
	DB	00H
	DB	00H
	DB	00H
	DB	00H
	DB	00H
	DB	00H
	DB	00H
	DB	03H
	DB	00H
	DB	00H
	DB	00H
	DB	00H
	DB	00H
	DB	00H
	DB	00H
	DB	00H
	DB	00H
	DB	00H
	DB	03H
	DB	03H
	DB	03H
	DB	03H
	DB	00H
	DB	00H
	DB	00H
	DB	00H
	DB	00H
	DB	00H
	DB	03H
	DB	03H
	DB	00H
	DB	00H
	DB	00H
	DB	00H
	DB	00H
	DB	06eH
	DB	049H
	DB	039H
	DB	026H
	DB	01aH
	DB	01aH
	DB	07H
	DB	04H
	DB	03H
	DB	030H
	DB	01H
	DB	020H
	DB	00H
	DB	00H
	DB	00H
	DB	03H
	DB	06eH
	DB	03H
	DB	00H
	DB	030H
	DB	07H
	DB	043H
	DB	043H
	DB	02aH
	DB	08H
	DB	032H
	DB	030H
	DB	030H
	DB	01aH
	DB	00H
	DB	00H
	DB	03H
	DB	01aH
	DB	04H
	DB	0cH
	DB	01dH
	DB	07H
	DB	07H
	DB	07H
	DB	07H
	DB	06eH
	DB	030H
	DB	043H
	DB	053H
	DB	02aH
	DB	02dH
	DB	039H
	DB	07H
	DB	01aH
	DB	03H
	DB	01aH
	DB	01aH
	DB	00H
	DB	00H
	DB	00H
	DB	03H
	DB	021H
	DB	020H
	DB	030H
	DB	038H
	DB	053H
	DB	02aH
	DB	01fH
	DB	04H
	DB	01aH
	DB	07H
	DB	0aH
	DB	03eH
	DB	0aH
	DB	053H
	DB	030H
	DB	0c4H
	DB	017H
	DB	018H
	DB	0b0H
	DB	049H
	DB	02dH
	DB	026H
	DB	026H
	DB	04bH
	DB	0bH
	DB	00H
	DB	038H
	DB	02dH
	DB	039H
	DB	01aH
	DB	030H
	DB	01aH
	DB	01aH
	DB	01aH
	DB	026H
	DB	05H
	DB	01aH
	DB	01aH
	DB	04H
	DB	03H
	DB	03H
	DB	03H
	DB	030H
	DB	04H
	DB	03H
	DB	00H
	DB	039H
	DB	052H
	DB	07aH
	DB	04cH
	DB	018H
	DB	050H
	DB	050H
	DB	039H
	DB	026H
	DB	02dH
	DB	090H
	DB	041H
	DB	041H
	DB	041H
	DB	041H
	DB	035H
	DB	06H
	DB	021H
	DB	02dH
	DB	02dH
	DB	068H
	DB	018H
	DB	018H
	DB	0aH
	DB	07H
	DB	06bH
	DB	039H
	DB	032H
	DB	032H
	DB	026H
	DB	04H
	DB	01H
	DB	048H
	DB	04H
	DB	07H
	DB	06H
	DB	0bH
	DB	00H
	DB	00H
	DB	026H
	DB	049H
	DB	04H
	DB	00H
	DB	00H
	DB	00H
	DB	010H
	DB	00H
	DB	00H
	DB	00H
	DB	09eH
	DB	015H
	DB	015H
	DB	015H
	DB	015H
	DB	0a4H
	DB	0feH
	DB	0eH
	DB	0eH
	DB	0c0H
	DB	0c0H
	DB	0ffH
	DB	0dH
	DB	0dH
	DB	0dH
	DB	0dH
	DB	0dH
	DB	0c1H
	DB	0c1H
	DB	0c1H
	DB	0c1H
	DB	0c1H
	DB	0c1H
	DB	0c1H
	DB	0c1H
	DB	0c1H
	DB	0c1H
	DB	0c1H
	DB	0c1H
	DB	0c1H
	DB	0c1H
	DB	0c1H
	DB	0c1H
	DB	0c1H
	DB	0c1H
	DB	013H
	DB	0c1H
	DB	012H
	DB	00H
	DB	07fH
	DB	07fH
	DB	016H
	DB	014H
	DB	02H
	DB	02H
	DB	02H
	DB	02H
	DB	02H
	DB	06H
	DB	06H
	DB	06H
	DB	03aH
	DB	03aH
	DB	03aH
	DB	03aH
	DB	03aH
	DB	018H
	DB	018H
	DB	018H
	DB	06H
	DB	06H
	DB	06H
	DB	02H
	DB	02H
	DB	02H
	DB	02H
	DB	02H
	DB	02H
	DB	02H
	DB	02H
	DB	021H
	DB	00H
	DB	09eH
	DB	013H
	DB	013H
	DB	013H
	DB	013H
	DB	013H
	DB	013H
	DB	013H
	DB	013H
	DB	013H
	DB	013H
	DB	013H
	DB	013H
	DB	013H
	DB	013H
	DB	013H
	DB	013H
	DB	013H
	DB	013H
	DB	013H
	DB	013H
	DB	013H
	DB	013H
	DB	013H
	DB	0c1H
	DB	0c1H
	DB	0c1H
	DB	0dH
	DB	0dH
	DB	0dH
	DB	0ffH
	DB	0c0H
	DB	0eH
	DB	0eH
	DB	0feH
	DB	0a4H
	DB	015H
	DB	015H
	DB	015H
	DB	015H
	DB	0feH
	DB	0f0H
	DB	00H
	DB	00H
	DB	00H
	DB	05eH
	DB	024H
	DB	0d4H
	DB	06H
	DB	08H
	DB	035H
	DB	02cH
	DB	018H
	DB	06H
	DB	026H
	DB	02dH
	DB	016H
	DB	035H
	DB	016H
	DB	02cH
	DB	016H
	DB	017H
	DB	02cH
	DB	016H
	DB	016H
	DB	052H
	DB	052H
	DB	02cH
	DB	02eH
	DB	02eH
	DB	03eH
	DB	018H
	DB	023H
	DB	023H
	DB	019H
	DB	00H
	DB	00H
	DB	00H
	DB	04H
	DB	046H
	DB	0fH
	DB	096H
	DB	0ceH
	DB	019H
	DB	00H
	DB	00H
	DB	00H
	DB	010H
	DB	098H
	DB	00H
	DB	00H
	DB	00H
	DB	00H
	DB	0aH
	DB	046H
	DB	08dH
	DB	0fH
	DB	06aH
	DB	06aH
	DB	012H
	DB	041H
	DB	0cfH
	DB	02cH
	DB	0bH
	DB	0bH
	DB	031H
	DB	028H
	DB	018H
	DB	0aH
	DB	0aH
	DB	018H
	DB	02dH
	DB	049H
	DB	035H
	DB	05fH
	DB	017H
	DB	028H
	DB	08H
	DB	018H
	DB	018H
	DB	02dH
	DB	017H
	DB	02cH
	DB	018H
	DB	03aH
	DB	017H
	DB	017H
	DB	03eH
	DB	02cH
	DB	02cH
	DB	02eH
	DB	03aH
	DB	02H
	DB	0aH
	DB	06H
	DB	014H
	DB	028H
	DB	017H
	DB	023H
	DB	02aH
	DB	03aH
	DB	02cH
	DB	016H
	DB	017H
	DB	06fH
	DB	016H
	DB	017H
	DB	06H
	DB	06H
	DB	017H
	DB	016H
	DB	018H
	DB	039H
	DB	026H
	DB	0aH
	DB	02aH
	DB	06H
	DB	06H
	DB	018H
	DB	06H
	DB	018H
	DB	03aH
	DB	017H
	DB	018H
	DB	02aH
	DB	06H
	DB	018H
	DB	06H
	DB	017H
	DB	017H
	DB	06H
	DB	08H
	DB	06H
	DB	023H
	DB	01dH
	DB	01dH
	DB	05H
	DB	010H
	DB	00H
	DB	00H
	DB	0bH
	DB	014H
	DB	053H
	DB	07H
	DB	047H
	DB	010H
	DB	01H
	DB	02H
	DB	02H
	DB	02H
	DB	0aH
	DB	02H
	DB	0bH
	DB	04H
	DB	04H
	DB	05H
	DB	05H
	DB	04H
	DB	01H
	DB	01H
	DB	04H
	DB	010H
	DB	0cH
	DB	023H
	DB	0bH
	DB	01H
	DB	01H
	DB	03H
	DB	010H
	DB	04H
	DB	010H
	DB	010H
	DB	00H
	DB	00H
	DB	00H
	DB	00H
	DB	010H
	DB	00H
	DB	00H
	DB	00H
	DB	00H
	DB	00H
	DB	00H
	DB	00H
	DB	00H
	DB	00H
	DB	00H
	DB	00H
	DB	00H
	DB	00H
	DB	00H
	DB	00H
	DB	00H
	DB	00H
	DB	00H
	DB	00H
	DB	00H
	DB	00H
	DB	00H
	DB	00H
	DB	00H
	DB	00H
	DB	00H
	DB	00H
	DB	03H
	DB	03H
	DB	00H
	DB	00H
	DB	00H
	DB	00H
	DB	03H
	DB	00H
	DB	00H
	DB	00H
	DB	00H
	DB	00H
	DB	00H
	DB	03H
	DB	01aH
	DB	04H
	DB	01aH
	DB	032H
	DB	07H
	DB	043H
	DB	03H
	DB	03H
	DB	03H
	DB	01aH
	DB	01H
	DB	03H
	DB	00H
	DB	00H
	DB	03H
	DB	026H
	DB	01aH
	DB	00H
	DB	00H
	DB	03H
	DB	01aH
	DB	053H
	DB	02aH
	DB	01dH
	DB	00H
	DB	03H
	DB	06eH
	DB	026H
	DB	038H
	DB	038H
	DB	032H
	DB	010H
	DB	00H
	DB	00H
	DB	00H
	DB	00H
	DB	00H
	DB	00H
	DB	01aH
	DB	038H
	DB	06eH
	DB	03H
	DB	043H
	DB	050H
	DB	0aH
	DB	026H
	DB	032H
	DB	032H
	DB	01aH
	DB	030H
	DB	038H
	DB	04H
	DB	00H
	DB	038H
	DB	018H
	DB	021H
	DB	00H
	DB	038H
	DB	018H
	DB	018H
	DB	02cH
	DB	02aH
	DB	01H
	DB	07H
	DB	0aH
	DB	0aH
	DB	018H
	DB	018H
	DB	026H
	DB	01aH
	DB	050H
	DB	017H
	DB	018H
	DB	018H
	DB	017H
	DB	050H
	DB	06H
	DB	02H
	DB	00H
	DB	00H
	DB	06eH
	DB	066H
	DB	039H
	DB	026H
	DB	06bH
	DB	01aH
	DB	01aH
	DB	01aH
	DB	04H
	DB	032H
	DB	05H
	DB	047H
	DB	04H
	DB	03H
	DB	03H
	DB	00H
	DB	030H
	DB	068H
	DB	026H
	DB	04H
	DB	032H
	DB	032H
	DB	032H
	DB	026H
	DB	068H
	DB	06fH
	DB	06fH
	DB	08H
	DB	048H
	DB	01H
	DB	050H
	DB	041H
	DB	02eH
	DB	05fH
	DB	02eH
	DB	016H
	DB	023H
	DB	02H
	DB	0aH
	DB	02dH
	DB	050H
	DB	0aH
	DB	06H
	DB	06H
	DB	017H
	DB	026H
	DB	026H
	DB	026H
	DB	01aH
	DB	01aH
	DB	01aH
	DB	04H
	DB	00H
	DB	00H
	DB	04H
	DB	02dH
	DB	016H
	DB	02aH
	DB	03H
	DB	07H
	DB	049H
	DB	04bH
	DB	01H
	DB	00H
	DB	00H
	DB	00H
	DB	00H
	DB	00H
	DB	00H
	DB	0fH
	DB	015H
	DB	015H
	DB	015H
	DB	015H
	DB	0fdH
	DB	0feH
	DB	0eH
	DB	0eH
	DB	0eH
	DB	0c0H
	DB	0ffH
	DB	0ffH
	DB	0dH
	DB	0dH
	DB	0dH
	DB	0dH
	DB	0dH
	DB	0c1H
	DB	0c1H
	DB	0c1H
	DB	0c1H
	DB	0c1H
	DB	0c1H
	DB	0c1H
	DB	0c1H
	DB	0c1H
	DB	0c1H
	DB	0c1H
	DB	0c1H
	DB	0c1H
	DB	0c1H
	DB	0c1H
	DB	0c1H
	DB	0c1H
	DB	0c1H
	DB	013H
	DB	0feH
	DB	010H
	DB	01H
	DB	012H
	DB	07fH
	DB	016H
	DB	06H
	DB	014H
	DB	06H
	DB	06H
	DB	014H
	DB	02H
	DB	014H
	DB	02aH
	DB	06H
	DB	06H
	DB	06H
	DB	018H
	DB	018H
	DB	018H
	DB	06H
	DB	06H
	DB	06H
	DB	06H
	DB	02aH
	DB	014H
	DB	014H
	DB	02aH
	DB	06H
	DB	06H
	DB	02aH
	DB	06H
	DB	02aH
	DB	02H
	DB	014H
	DB	00H
	DB	012H
	DB	0feH
	DB	0c1H
	DB	013H
	DB	013H
	DB	013H
	DB	013H
	DB	013H
	DB	013H
	DB	013H
	DB	013H
	DB	013H
	DB	013H
	DB	013H
	DB	013H
	DB	013H
	DB	013H
	DB	013H
	DB	013H
	DB	013H
	DB	013H
	DB	013H
	DB	013H
	DB	013H
	DB	013H
	DB	0c1H
	DB	0c1H
	DB	0c1H
	DB	0dH
	DB	0dH
	DB	0dH
	DB	0ffH
	DB	0c0H
	DB	0eH
	DB	0eH
	DB	0feH
	DB	0a4H
	DB	0a4H
	DB	015H
	DB	015H
	DB	015H
	DB	0fcH
	DB	07fH
	DB	00H
	DB	00H
	DB	00H
	DB	07dH
	DB	024H
	DB	07cH
	DB	0aH
	DB	016H
	DB	02cH
	DB	05eH
	DB	06H
	DB	02dH
	DB	02eH
	DB	016H
	DB	017H
	DB	035H
	DB	022H
	DB	02cH
	DB	017H
	DB	018H
	DB	016H
	DB	022H
	DB	016H
	DB	06H
	DB	06H
	DB	017H
	DB	05fH
	DB	049H
	DB	0aH
	DB	08H
	DB	06cH
	DB	00H
	DB	00H
	DB	00H
	DB	04H
	DB	046H
	DB	0fH
	DB	0fH
	DB	07aH
	DB	025H
	DB	00H
	DB	03H
	DB	03H
	DB	030H
	DB	03H
	DB	00H
	DB	00H
	DB	03H
	DB	03H
	DB	0aH
	DB	041H
	DB	046H
	DB	046H
	DB	046H
	DB	012H
	DB	06aH
	DB	080H
	DB	06aH
	DB	08dH
	DB	07fH
	DB	043H
	DB	00H
	DB	0bH
	DB	0cH
	DB	02fH
	DB	02cH
	DB	03eH
	DB	060H
	DB	05fH
	DB	03eH
	DB	016H
	DB	018H
	DB	049H
	DB	02dH
	DB	049H
	DB	03eH
	DB	06fH
	DB	03eH
	DB	060H
	DB	060H
	DB	02eH
	DB	02cH
	DB	016H
	DB	017H
	DB	016H
	DB	016H
	DB	02cH
	DB	035H
	DB	018H
	DB	06H
	DB	018H
	DB	08H
	DB	014H
	DB	02H
	DB	010H
	DB	05H
	DB	06H
	DB	028H
	DB	03aH
	DB	08H
	DB	049H
	DB	02cH
	DB	02aH
	DB	0aH
	DB	017H
	DB	016H
	DB	017H
	DB	03eH
	DB	06fH
	DB	02dH
	DB	02dH
	DB	017H
	DB	017H
	DB	06H
	DB	06H
	DB	06H
	DB	06H
	DB	018H
	DB	018H
	DB	017H
	DB	017H
	DB	03aH
	DB	03aH
	DB	0aH
	DB	047H
	DB	08fH
	DB	035H
	DB	03aH
	DB	02aH
	DB	02aH
	DB	02H
	DB	02H
	DB	02H
	DB	02H
	DB	01H
	DB	00H
	DB	07H
	DB	02H
	DB	0cH
	DB	02H
	DB	0aH
	DB	04H
	DB	03H
	DB	047H
	DB	0bH
	DB	01dH
	DB	0bH
	DB	02H
	DB	05H
	DB	05H
	DB	05H
	DB	048H
	DB	02H
	DB	026H
	DB	01H
	DB	010H
	DB	03H
	DB	04H
	DB	00H
	DB	010H
	DB	0bH
	DB	0bH
	DB	021H
	DB	04H
	DB	00H
	DB	00H
	DB	00H
	DB	00H
	DB	00H
	DB	00H
	DB	00H
	DB	00H
	DB	00H
	DB	00H
	DB	00H
	DB	010H
	DB	010H
	DB	00H
	DB	00H
	DB	00H
	DB	00H
	DB	00H
	DB	00H
	DB	00H
	DB	00H
	DB	00H
	DB	00H
	DB	00H
	DB	00H
	DB	00H
	DB	00H
	DB	00H
	DB	00H
	DB	00H
	DB	00H
	DB	03H
	DB	03H
	DB	00H
	DB	00H
	DB	00H
	DB	00H
	DB	00H
	DB	03H
	DB	00H
	DB	00H
	DB	00H
	DB	00H
	DB	00H
	DB	00H
	DB	00H
	DB	00H
	DB	00H
	DB	00H
	DB	00H
	DB	030H
	DB	06eH
	DB	03H
	DB	030H
	DB	07H
	DB	01aH
	DB	04H
	DB	00H
	DB	00H
	DB	00H
	DB	04H
	DB	07H
	DB	020H
	DB	00H
	DB	00H
	DB	00H
	DB	03H
	DB	032H
	DB	01aH
	DB	00H
	DB	00H
	DB	043H
	DB	043H
	DB	01aH
	DB	03H
	DB	00H
	DB	00H
	DB	03H
	DB	07H
	DB	018H
	DB	0c7H
	DB	0a5H
	DB	00H
	DB	00H
	DB	00H
	DB	00H
	DB	00H
	DB	00H
	DB	00H
	DB	03H
	DB	01aH
	DB	01aH
	DB	03H
	DB	03H
	DB	01aH
	DB	05H
	DB	07H
	DB	05H
	DB	06eH
	DB	030H
	DB	02aH
	DB	0a2H
	DB	057H
	DB	00H
	DB	026H
	DB	028H
	DB	07H
	DB	06eH
	DB	017H
	DB	08H
	DB	06bH
	DB	049H
	DB	0aH
	DB	02H
	DB	021H
	DB	02aH
	DB	0aH
	DB	026H
	DB	02dH
	DB	050H
	DB	050H
	DB	0aH
	DB	0aH
	DB	0aH
	DB	026H
	DB	018H
	DB	03aH
	DB	06H
	DB	02H
	DB	04H
	DB	01aH
	DB	02dH
	DB	039H
	DB	06eH
	DB	050H
	DB	02dH
	DB	032H
	DB	03H
	DB	032H
	DB	010H
	DB	03H
	DB	04H
	DB	010H
	DB	00H
	DB	03H
	DB	010H
	DB	00H
	DB	0aH
	DB	05aH
	DB	072H
	DB	028H
	DB	05H
	DB	032H
	DB	026H
	DB	026H
	DB	050H
	DB	03eH
	DB	03eH
	DB	039H
	DB	04H
	DB	03H
	DB	038H
	DB	02dH
	DB	017H
	DB	028H
	DB	08fH
	DB	02H
	DB	00H
	DB	03H
	DB	02dH
	DB	02cH
	DB	02cH
	DB	02aH
	DB	07H
	DB	00H
	DB	01H
	DB	07H
	DB	07H
	DB	01aH
	DB	06eH
	DB	0d9H
	DB	04H
	DB	07H
	DB	07H
	DB	03H
	DB	038H
	DB	02eH
	DB	02cH
	DB	018H
	DB	0aH
	DB	018H
	DB	017H
	DB	018H
	DB	020H
	DB	00H
	DB	00H
	DB	00H
	DB	00H
	DB	00H
	DB	02H
	DB	011H
	DB	015H
	DB	015H
	DB	015H
	DB	015H
	DB	0a4H
	DB	0feH
	DB	0eH
	DB	0eH
	DB	0c0H
	DB	0ffH
	DB	0ffH
	DB	0dH
	DB	0dH
	DB	0dH
	DB	0dH
	DB	0dH
	DB	0dH
	DB	0c1H
	DB	0c1H
	DB	0c1H
	DB	0c1H
	DB	0c1H
	DB	0c1H
	DB	0c1H
	DB	0c1H
	DB	0c1H
	DB	0c1H
	DB	0c1H
	DB	0c1H
	DB	0c1H
	DB	0c1H
	DB	0c1H
	DB	0c1H
	DB	0c1H
	DB	013H
	DB	013H
	DB	055H
	DB	00H
	DB	03aH
	DB	07fH
	DB	06H
	DB	01H
	DB	020H
	DB	020H
	DB	020H
	DB	020H
	DB	020H
	DB	01H
	DB	010H
	DB	010H
	DB	010H
	DB	010H
	DB	010H
	DB	010H
	DB	010H
	DB	010H
	DB	010H
	DB	010H
	DB	010H
	DB	010H
	DB	010H
	DB	020H
	DB	020H
	DB	020H
	DB	020H
	DB	020H
	DB	01H
	DB	020H
	DB	010H
	DB	010H
	DB	014H
	DB	010H
	DB	02aH
	DB	08eH
	DB	0dH
	DB	013H
	DB	013H
	DB	013H
	DB	013H
	DB	013H
	DB	013H
	DB	013H
	DB	013H
	DB	013H
	DB	013H
	DB	013H
	DB	013H
	DB	013H
	DB	013H
	DB	013H
	DB	013H
	DB	013H
	DB	013H
	DB	013H
	DB	013H
	DB	013H
	DB	013H
	DB	0c1H
	DB	0c1H
	DB	0c1H
	DB	0c1H
	DB	0dH
	DB	0dH
	DB	0dH
	DB	0ffH
	DB	0c0H
	DB	0eH
	DB	0eH
	DB	0feH
	DB	0a4H
	DB	015H
	DB	015H
	DB	015H
	DB	0a4H
	DB	029H
	DB	01H
	DB	00H
	DB	00H
	DB	02H
	DB	027H
	DB	0acH
	DB	035H
	DB	017H
	DB	02eH
	DB	014H
	DB	08H
	DB	022H
	DB	051H
	DB	016H
	DB	0aH
	DB	018H
	DB	017H
	DB	095H
	DB	046H
	DB	041H
	DB	07fH
	DB	02cH
	DB	01fH
	DB	0bH
	DB	01H
	DB	01fH
	DB	028H
	DB	02H
	DB	04H
	DB	010H
	DB	00H
	DB	00H
	DB	03H
	DB	00H
	DB	049H
	DB	0e9H
	DB	080H
	DB	05dH
	DB	00H
	DB	01aH
	DB	03eH
	DB	041H
	DB	05eH
	DB	02cH
	DB	06fH
	DB	06fH
	DB	041H
	DB	02cH
	DB	016H
	DB	046H
	DB	041H
	DB	02cH
	DB	02eH
	DB	05fH
	DB	02eH
	DB	022H
	DB	022H
	DB	022H
	DB	05fH
	DB	052H
	DB	06fH
	DB	00H
	DB	00H
	DB	02H
	DB	03aH
	DB	041H
	DB	02eH
	DB	05fH
	DB	016H
	DB	02cH
	DB	017H
	DB	017H
	DB	03eH
	DB	03eH
	DB	060H
	DB	017H
	DB	03eH
	DB	041H
	DB	02eH
	DB	02eH
	DB	052H
	DB	02cH
	DB	018H
	DB	017H
	DB	016H
	DB	016H
	DB	017H
	DB	06H
	DB	018H
	DB	017H
	DB	02dH
	DB	0aH
	DB	06H
	DB	043H
	DB	03H
	DB	0ddH
	DB	05fH
	DB	06H
	DB	0aH
	DB	02dH
	DB	04bH
	DB	08H
	DB	0aH
	DB	053H
	DB	06H
	DB	016H
	DB	06H
	DB	035H
	DB	082H
	DB	041H
	DB	02aH
	DB	08H
	DB	08H
	DB	02H
	DB	02H
	DB	039H
	DB	028H
	DB	028H
	DB	018H
	DB	017H
	DB	06H
	DB	02aH
	DB	021H
	DB	01H
	DB	04H
	DB	098H
	DB	028H
	DB	06H
	DB	06H
	DB	01fH
	DB	014H
	DB	0bH
	DB	047H
	DB	04H
	DB	019H
	DB	0cH
	DB	06H
	DB	02H
	DB	01H
	DB	014H
	DB	023H
	DB	053H
	DB	07H
	DB	047H
	DB	0bH
	DB	01H
	DB	01H
	DB	0bH
	DB	01H
	DB	07H
	DB	02H
	DB	0cH
	DB	0bH
	DB	05H
	DB	07H
	DB	010H
	DB	01H
	DB	07H
	DB	01H
	DB	04H
	DB	01H
	DB	01H
	DB	01H
	DB	010H
	DB	010H
	DB	00H
	DB	00H
	DB	00H
	DB	00H
	DB	00H
	DB	00H
	DB	00H
	DB	00H
	DB	00H
	DB	00H
	DB	010H
	DB	00H
	DB	00H
	DB	00H
	DB	00H
	DB	00H
	DB	00H
	DB	00H
	DB	00H
	DB	00H
	DB	00H
	DB	00H
	DB	00H
	DB	00H
	DB	00H
	DB	00H
	DB	00H
	DB	00H
	DB	00H
	DB	00H
	DB	00H
	DB	03H
	DB	00H
	DB	00H
	DB	00H
	DB	00H
	DB	00H
	DB	00H
	DB	00H
	DB	00H
	DB	00H
	DB	03H
	DB	03H
	DB	00H
	DB	00H
	DB	00H
	DB	00H
	DB	00H
	DB	00H
	DB	00H
	DB	03H
	DB	030H
	DB	03H
	DB	030H
	DB	01aH
	DB	04H
	DB	00H
	DB	00H
	DB	03H
	DB	01aH
	DB	04H
	DB	04H
	DB	03H
	DB	00H
	DB	00H
	DB	00H
	DB	030H
	DB	06eH
	DB	03H
	DB	00H
	DB	030H
	DB	030H
	DB	04H
	DB	03H
	DB	00H
	DB	03H
	DB	030H
	DB	020H
	DB	05H
	DB	098H
	DB	00H
	DB	00H
	DB	00H
	DB	030H
	DB	050H
	DB	03eH
	DB	066H
	DB	03H
	DB	00H
	DB	030H
	DB	01aH
	DB	03H
	DB	03H
	DB	00H
	DB	03H
	DB	07H
	DB	07H
	DB	0aH
	DB	03dH
	DB	0caH
	DB	0a7H
	DB	019H
	DB	00H
	DB	04H
	DB	00H
	DB	030H
	DB	066H
	DB	08H
	DB	05H
	DB	03H
	DB	00H
	DB	030H
	DB	0aH
	DB	02H
	DB	08H
	DB	039H
	DB	01H
	DB	050H
	DB	06fH
	DB	08H
	DB	05H
	DB	01aH
	DB	01aH
	DB	06bH
	DB	05H
	DB	02H
	DB	07H
	DB	05H
	DB	048H
	DB	048H
	DB	0aH
	DB	021H
	DB	01aH
	DB	06bH
	DB	039H
	DB	032H
	DB	04H
	DB	010H
	DB	03H
	DB	03H
	DB	01aH
	DB	01aH
	DB	01aH
	DB	04H
	DB	03H
	DB	00H
	DB	04H
	DB	07aH
	DB	0baH
	DB	07aH
	DB	07H
	DB	043H
	DB	03aH
	DB	03dH
	DB	03dH
	DB	04bH
	DB	0c7H
	DB	049H
	DB	03H
	DB	01aH
	DB	07H
	DB	026H
	DB	0aH
	DB	08H
	DB	0bH
	DB	0bH
	DB	0aH
	DB	038H
	DB	01fH
	DB	0c9H
	DB	05eH
	DB	07fH
	DB	05H
	DB	00H
	DB	00H
	DB	07H
	DB	050H
	DB	02dH
	DB	018H
	DB	04bH
	DB	05H
	DB	0aH
	DB	02dH
	DB	0b0H
	DB	094H
	DB	03eH
	DB	03eH
	DB	02dH
	DB	049H
	DB	018H
	DB	018H
	DB	023H
	DB	00H
	DB	00H
	DB	00H
	DB	00H
	DB	00H
	DB	00H
	DB	024H
	DB	015H
	DB	0fcH
	DB	015H
	DB	015H
	DB	0a4H
	DB	0feH
	DB	0eH
	DB	0eH
	DB	0eH
	DB	0c0H
	DB	0ffH
	DB	0ffH
	DB	0dH
	DB	0dH
	DB	0dH
	DB	0dH
	DB	0dH
	DB	0dH
	DB	0dH
	DB	0c1H
	DB	0c1H
	DB	0c1H
	DB	0c1H
	DB	0c1H
	DB	0c1H
	DB	0c1H
	DB	0c1H
	DB	0c1H
	DB	0c1H
	DB	0c1H
	DB	0c1H
	DB	0c1H
	DB	0c1H
	DB	0c1H
	DB	0c1H
	DB	013H
	DB	013H
	DB	0eeH
	DB	00H
	DB	07fH
	DB	052H
	DB	021H
	DB	010H
	DB	00H
	DB	00H
	DB	00H
	DB	00H
	DB	00H
	DB	00H
	DB	00H
	DB	00H
	DB	00H
	DB	00H
	DB	00H
	DB	00H
	DB	00H
	DB	00H
	DB	00H
	DB	00H
	DB	00H
	DB	00H
	DB	00H
	DB	00H
	DB	00H
	DB	00H
	DB	00H
	DB	00H
	DB	00H
	DB	00H
	DB	00H
	DB	010H
	DB	02H
	DB	01H
	DB	010H
	DB	088H
	DB	0dH
	DB	013H
	DB	013H
	DB	013H
	DB	013H
	DB	013H
	DB	013H
	DB	013H
	DB	013H
	DB	013H
	DB	013H
	DB	013H
	DB	013H
	DB	013H
	DB	013H
	DB	013H
	DB	013H
	DB	013H
	DB	013H
	DB	013H
	DB	013H
	DB	013H
	DB	013H
	DB	013H
	DB	0c1H
	DB	0c1H
	DB	0c1H
	DB	0c1H
	DB	0dH
	DB	0dH
	DB	0ffH
	DB	0c0H
	DB	0c0H
	DB	0eH
	DB	0eH
	DB	0feH
	DB	0a4H
	DB	015H
	DB	015H
	DB	015H
	DB	0feH
	DB	0acH
	DB	00H
	DB	00H
	DB	00H
	DB	012H
	DB	024H
	DB	07cH
	DB	02H
	DB	028H
	DB	05H
	DB	028H
	DB	052H
	DB	051H
	DB	016H
	DB	02dH
	DB	02dH
	DB	08H
	DB	022H
	DB	07fH
	DB	07fH
	DB	012H
	DB	041H
	DB	014H
	DB	010H
	DB	00H
	DB	01dH
	DB	031H
	DB	01H
	DB	00H
	DB	00H
	DB	03H
	DB	0b0H
	DB	06fH
	DB	050H
	DB	049H
	DB	0bH
	DB	00H
	DB	00H
	DB	026H
	DB	046H
	DB	082H
	DB	082H
	DB	072H
	DB	09bH
	DB	07fH
	DB	012H
	DB	0fH
	DB	05aH
	DB	071H
	DB	095H
	DB	041H
	DB	02cH
	DB	02cH
	DB	02cH
	DB	02eH
	DB	02cH
	DB	041H
	DB	02cH
	DB	017H
	DB	052H
	DB	022H
	DB	03H
	DB	00H
	DB	08H
	DB	05eH
	DB	02cH
	DB	02cH
	DB	02cH
	DB	02cH
	DB	017H
	DB	049H
	DB	049H
	DB	049H
	DB	02cH
	DB	018H
	DB	02dH
	DB	060H
	DB	02eH
	DB	06H
	DB	06H
	DB	016H
	DB	053H
	DB	026H
	DB	017H
	DB	017H
	DB	017H
	DB	018H
	DB	050H
	DB	0aH
	DB	049H
	DB	049H
	DB	018H
	DB	018H
	DB	0aH
	DB	05H
	DB	08H
	DB	05fH
	DB	017H
	DB	016H
	DB	022H
	DB	016H
	DB	014H
	DB	048H
	DB	02H
	DB	06H
	DB	018H
	DB	08H
	DB	052H
	DB	096H
	DB	0a3H
	DB	068H
	DB	0aH
	DB	08H
	DB	02dH
	DB	017H
	DB	02dH
	DB	08H
	DB	01fH
	DB	06H
	DB	018H
	DB	0aH
	DB	05H
	DB	01H
	DB	04H
	DB	06cH
	DB	014H
	DB	0aH
	DB	06H
	DB	02aH
	DB	0cH
	DB	0cH
	DB	019H
	DB	03H
	DB	04H
	DB	0cH
	DB	04dH
	DB	04dH
	DB	0aH
	DB	021H
	DB	07H
	DB	048H
	DB	0aH
	DB	01H
	DB	04H
	DB	047H
	DB	04H
	DB	04H
	DB	07H
	DB	07H
	DB	01H
	DB	01H
	DB	01H
	DB	04H
	DB	04H
	DB	00H
	DB	010H
	DB	0bH
	DB	021H
	DB	021H
	DB	07H
	DB	047H
	DB	04H
	DB	00H
	DB	00H
	DB	010H
	DB	00H
	DB	00H
	DB	010H
	DB	010H
	DB	00H
	DB	00H
	DB	00H
	DB	00H
	DB	00H
	DB	00H
	DB	00H
	DB	00H
	DB	00H
	DB	00H
	DB	00H
	DB	00H
	DB	00H
	DB	00H
	DB	00H
	DB	00H
	DB	00H
	DB	00H
	DB	00H
	DB	00H
	DB	00H
	DB	00H
	DB	00H
	DB	00H
	DB	00H
	DB	00H
	DB	00H
	DB	00H
	DB	00H
	DB	00H
	DB	00H
	DB	00H
	DB	00H
	DB	00H
	DB	00H
	DB	00H
	DB	00H
	DB	03H
	DB	00H
	DB	00H
	DB	00H
	DB	00H
	DB	00H
	DB	00H
	DB	03H
	DB	03H
	DB	00H
	DB	020H
	DB	030H
	DB	030H
	DB	01aH
	DB	04H
	DB	00H
	DB	03H
	DB	043H
	DB	07H
	DB	00H
	DB	00H
	DB	03H
	DB	00H
	DB	00H
	DB	03H
	DB	01aH
	DB	07H
	DB	00H
	DB	00H
	DB	00H
	DB	00H
	DB	00H
	DB	00H
	DB	00H
	DB	043H
	DB	03aH
	DB	0aH
	DB	03H
	DB	00H
	DB	00H
	DB	03H
	DB	09fH
	DB	094H
	DB	0c7H
	DB	0a8H
	DB	048H
	DB	03H
	DB	030H
	DB	02aH
	DB	084H
	DB	023H
	DB	04H
	DB	00H
	DB	00H
	DB	00H
	DB	030H
	DB	016H
	DB	0caH
	DB	03fH
	DB	00H
	DB	00H
	DB	00H
	DB	00H
	DB	03H
	DB	06eH
	DB	06bH
	DB	07H
	DB	032H
	DB	032H
	DB	03H
	DB	03H
	DB	03H
	DB	04H
	DB	048H
	DB	01aH
	DB	038H
	DB	0aH
	DB	07H
	DB	03H
	DB	038H
	DB	06fH
	DB	08H
	DB	04H
	DB	00H
	DB	00H
	DB	03H
	DB	04H
	DB	03H
	DB	03H
	DB	01aH
	DB	04H
	DB	03H
	DB	01aH
	DB	06eH
	DB	066H
	DB	032H
	DB	00H
	DB	03H
	DB	06H
	DB	02H
	DB	01aH
	DB	01aH
	DB	03H
	DB	03H
	DB	03H
	DB	03H
	DB	010H
	DB	0bH
	DB	04bH
	DB	04H
	DB	06eH
	DB	02cH
	DB	022H
	DB	09bH
	DB	05bH
	DB	039H
	DB	06bH
	DB	05H
	DB	05H
	DB	01aH
	DB	026H
	DB	021H
	DB	010H
	DB	00H
	DB	03H
	DB	049H
	DB	04bH
	DB	01dH
	DB	059H
	DB	041H
	DB	096H
	DB	044H
	DB	00H
	DB	0c4H
	DB	018H
	DB	018H
	DB	017H
	DB	035H
	DB	05fH
	DB	02dH
	DB	049H
	DB	02eH
	DB	041H
	DB	060H
	DB	017H
	DB	016H
	DB	017H
	DB	018H
	DB	0aH
	DB	048H
	DB	04H
	DB	00H
	DB	00H
	DB	00H
	DB	00H
	DB	00H
	DB	07fH
	DB	07eH
	DB	0fcH
	DB	0fcH
	DB	015H
	DB	015H
	DB	0a4H
	DB	0feH
	DB	0eH
	DB	0eH
	DB	0c0H
	DB	0ffH
	DB	0ffH
	DB	0dH
	DB	0dH
	DB	0dH
	DB	0dH
	DB	0dH
	DB	0dH
	DB	0dH
	DB	0dH
	DB	0dH
	DB	0dH
	DB	0c1H
	DB	0c1H
	DB	0c1H
	DB	0c1H
	DB	0c1H
	DB	0c1H
	DB	0c1H
	DB	0c1H
	DB	0c1H
	DB	0c1H
	DB	0c1H
	DB	0c1H
	DB	0c1H
	DB	0c1H
	DB	013H
	DB	0c1H
	DB	07fH
	DB	00H
	DB	018H
	DB	09dH
	DB	0fcH
	DB	07eH
	DB	09H
	DB	09H
	DB	09H
	DB	09H
	DB	09H
	DB	09H
	DB	09H
	DB	09H
	DB	09H
	DB	09H
	DB	09H
	DB	09H
	DB	09H
	DB	09H
	DB	09H
	DB	09H
	DB	09H
	DB	09H
	DB	09H
	DB	09H
	DB	09H
	DB	09H
	DB	09H
	DB	09H
	DB	09H
	DB	08cH
	DB	015H
	DB	01eH
	DB	0bH
	DB	010H
	DB	00H
	DB	087H
	DB	0c0H
	DB	013H
	DB	013H
	DB	013H
	DB	013H
	DB	013H
	DB	013H
	DB	013H
	DB	013H
	DB	013H
	DB	013H
	DB	013H
	DB	013H
	DB	013H
	DB	013H
	DB	013H
	DB	013H
	DB	013H
	DB	013H
	DB	013H
	DB	013H
	DB	013H
	DB	013H
	DB	013H
	DB	0c1H
	DB	0c1H
	DB	0c1H
	DB	0c1H
	DB	0c1H
	DB	0dH
	DB	0dH
	DB	0ffH
	DB	0c0H
	DB	0c0H
	DB	0eH
	DB	0feH
	DB	0a4H
	DB	0a4H
	DB	015H
	DB	015H
	DB	015H
	DB	0a4H
	DB	07fH
	DB	00H
	DB	00H
	DB	01H
	DB	087H
	DB	088H
	DB	016H
	DB	04H
	DB	05H
	DB	08H
	DB	02fH
	DB	02fH
	DB	028H
	DB	028H
	DB	0aH
	DB	0aH
	DB	017H
	DB	035H
	DB	052H
	DB	052H
	DB	028H
	DB	0bH
	DB	03H
	DB	01aH
	DB	026H
	DB	019H
	DB	00H
	DB	00H
	DB	03H
	DB	049H
	DB	02eH
	DB	02eH
	DB	02eH
	DB	08H
	DB	00H
	DB	00H
	DB	0c6H
	DB	08dH
	DB	0a3H
	DB	012H
	DB	012H
	DB	077H
	DB	03dH
	DB	04cH
	DB	022H
	DB	077H
	DB	078H
	DB	091H
	DB	05fH
	DB	02eH
	DB	016H
	DB	02cH
	DB	07fH
	DB	041H
	DB	02eH
	DB	041H
	DB	02eH
	DB	060H
	DB	02eH
	DB	04cH
	DB	043H
	DB	00H
	DB	0ddH
	DB	046H
	DB	05eH
	DB	041H
	DB	041H
	DB	02eH
	DB	0c6H
	DB	0deH
	DB	03eH
	DB	03eH
	DB	03eH
	DB	02dH
	DB	018H
	DB	02cH
	DB	02cH
	DB	0aH
	DB	018H
	DB	02cH
	DB	068H
	DB	06fH
	DB	017H
	DB	017H
	DB	017H
	DB	017H
	DB	02cH
	DB	016H
	DB	02eH
	DB	02cH
	DB	06H
	DB	0aH
	DB	014H
	DB	031H
	DB	028H
	DB	05fH
	DB	02eH
	DB	022H
	DB	035H
	DB	02fH
	DB	02H
	DB	01H
	DB	098H
	DB	02fH
	DB	031H
	DB	017H
	DB	095H
	DB	080H
	DB	012H
	DB	02cH
	DB	018H
	DB	017H
	DB	060H
	DB	02cH
	DB	08H
	DB	05H
	DB	048H
	DB	06H
	DB	028H
	DB	06H
	DB	0aH
	DB	02H
	DB	01H
	DB	0aeH
	DB	08H
	DB	02aH
	DB	02aH
	DB	06H
	DB	014H
	DB	02H
	DB	021H
	DB	02H
	DB	02H
	DB	01fH
	DB	02fH
	DB	031H
	DB	06H
	DB	02aH
	DB	02H
	DB	048H
	DB	047H
	DB	01H
	DB	0bH
	DB	05H
	DB	01H
	DB	05H
	DB	014H
	DB	02H
	DB	05H
	DB	05H
	DB	07H
	DB	03H
	DB	00H
	DB	00H
	DB	00H
	DB	010H
	DB	047H
	DB	05H
	DB	05H
	DB	04H
	DB	020H
	DB	020H
	DB	010H
	DB	00H
	DB	00H
	DB	00H
	DB	010H
	DB	010H
	DB	00H
	DB	00H
	DB	00H
	DB	00H
	DB	00H
	DB	00H
	DB	00H
	DB	010H
	DB	010H
	DB	00H
	DB	00H
	DB	00H
	DB	00H
	DB	00H
	DB	00H
	DB	00H
	DB	00H
	DB	00H
	DB	00H
	DB	00H
	DB	00H
	DB	00H
	DB	00H
	DB	00H
	DB	00H
	DB	00H
	DB	00H
	DB	00H
	DB	00H
	DB	00H
	DB	00H
	DB	00H
	DB	00H
	DB	00H
	DB	00H
	DB	00H
	DB	025H
	DB	010H
	DB	00H
	DB	00H
	DB	00H
	DB	00H
	DB	00H
	DB	00H
	DB	03H
	DB	01aH
	DB	04H
	DB	00H
	DB	030H
	DB	038H
	DB	030H
	DB	03H
	DB	020H
	DB	01aH
	DB	01aH
	DB	04H
	DB	00H
	DB	00H
	DB	00H
	DB	00H
	DB	00H
	DB	03H
	DB	04H
	DB	04H
	DB	00H
	DB	00H
	DB	00H
	DB	00H
	DB	00H
	DB	00H
	DB	00H
	DB	02H
	DB	077H
	DB	071H
	DB	0bH
	DB	00H
	DB	030H
	DB	038H
	DB	050H
	DB	017H
	DB	08H
	DB	03H
	DB	00H
	DB	01aH
	DB	038H
	DB	031H
	DB	0a2H
	DB	078H
	DB	057H
	DB	010H
	DB	00H
	DB	00H
	DB	026H
	DB	05dH
	DB	025H
	DB	00H
	DB	03H
	DB	030H
	DB	030H
	DB	043H
	DB	0c4H
	DB	06fH
	DB	02dH
	DB	026H
	DB	06bH
	DB	066H
	DB	08H
	DB	04H
	DB	03H
	DB	03H
	DB	0aH
	DB	06fH
	DB	017H
	DB	07H
	DB	03H
	DB	030H
	DB	02dH
	DB	016H
	DB	01fH
	DB	010H
	DB	00H
	DB	00H
	DB	00H
	DB	00H
	DB	00H
	DB	00H
	DB	030H
	DB	03H
	DB	030H
	DB	038H
	DB	018H
	DB	080H
	DB	099H
	DB	00H
	DB	0aH
	DB	057H
	DB	025H
	DB	00H
	DB	03H
	DB	03H
	DB	03H
	DB	030H
	DB	032H
	DB	01aH
	DB	01H
	DB	010H
	DB	03H
	DB	066H
	DB	090H
	DB	03eH
	DB	02fH
	DB	0a7H
	DB	03H
	DB	03H
	DB	02H
	DB	02H
	DB	04H
	DB	07H
	DB	01H
	DB	03H
	DB	00H
	DB	07H
	DB	02dH
	DB	0aH
	DB	053H
	DB	07H
	DB	017H
	DB	080H
	DB	044H
	DB	021H
	DB	03eH
	DB	041H
	DB	028H
	DB	021H
	DB	014H
	DB	014H
	DB	06fH
	DB	052H
	DB	0a8H
	DB	018H
	DB	060H
	DB	016H
	DB	031H
	DB	02cH
	DB	016H
	DB	048H
	DB	010H
	DB	00H
	DB	00H
	DB	00H
	DB	00H
	DB	00H
	DB	010H
	DB	01cH
	DB	0fcH
	DB	07eH
	DB	0fcH
	DB	015H
	DB	015H
	DB	0feH
	DB	0eH
	DB	0eH
	DB	0c0H
	DB	0c0H
	DB	0ffH
	DB	0ffH
	DB	0dH
	DB	0dH
	DB	0dH
	DB	0dH
	DB	0dH
	DB	0dH
	DB	0dH
	DB	0dH
	DB	0dH
	DB	0dH
	DB	0dH
	DB	0dH
	DB	0c1H
	DB	0c1H
	DB	0c1H
	DB	0c1H
	DB	0c1H
	DB	0c1H
	DB	0c1H
	DB	0c1H
	DB	0c1H
	DB	0c1H
	DB	0c1H
	DB	0c1H
	DB	013H
	DB	0dH
	DB	03aH
	DB	010H
	DB	02H
	DB	09eH
	DB	013H
	DB	013H
	DB	013H
	DB	013H
	DB	013H
	DB	013H
	DB	013H
	DB	013H
	DB	013H
	DB	013H
	DB	013H
	DB	013H
	DB	013H
	DB	013H
	DB	013H
	DB	013H
	DB	013H
	DB	013H
	DB	013H
	DB	013H
	DB	013H
	DB	013H
	DB	013H
	DB	013H
	DB	013H
	DB	013H
	DB	013H
	DB	013H
	DB	013H
	DB	0feH
	DB	01H
	DB	00H
	DB	010H
	DB	083H
	DB	0feH
	DB	013H
	DB	013H
	DB	013H
	DB	013H
	DB	013H
	DB	013H
	DB	013H
	DB	013H
	DB	013H
	DB	013H
	DB	013H
	DB	013H
	DB	013H
	DB	013H
	DB	013H
	DB	013H
	DB	013H
	DB	013H
	DB	013H
	DB	013H
	DB	013H
	DB	013H
	DB	013H
	DB	0c1H
	DB	0c1H
	DB	0c1H
	DB	0c1H
	DB	0c1H
	DB	0dH
	DB	0dH
	DB	0dH
	DB	0ffH
	DB	0c0H
	DB	0eH
	DB	0eH
	DB	0feH
	DB	0a4H
	DB	015H
	DB	015H
	DB	015H
	DB	0feH
	DB	01eH
	DB	00H
	DB	00H
	DB	00H
	DB	052H
	DB	088H
	DB	07dH
	DB	04H
	DB	08H
	DB	06H
	DB	06H
	DB	023H
	DB	02H
	DB	018H
	DB	0aH
	DB	0aH
	DB	028H
	DB	028H
	DB	028H
	DB	01fH
	DB	010H
	DB	010H
	DB	039H
	DB	0deH
	DB	047H
	DB	00H
	DB	00H
	DB	030H
	DB	03eH
	DB	035H
	DB	028H
	DB	028H
	DB	02fH
	DB	02H
	DB	03H
	DB	039H
	DB	0cfH
	DB	06aH
	DB	052H
	DB	035H
	DB	03dH
	DB	016H
	DB	018H
	DB	08H
	DB	02eH
	DB	012H
	DB	09bH
	DB	04aH
	DB	039H
	DB	039H
	DB	02cH
	DB	02eH
	DB	052H
	DB	012H
	DB	05eH
	DB	02eH
	DB	041H
	DB	02eH
	DB	016H
	DB	05eH
	DB	03aH
	DB	03H
	DB	047H
	DB	05fH
	DB	022H
	DB	041H
	DB	046H
	DB	041H
	DB	017H
	DB	060H
	DB	022H
	DB	02eH
	DB	02eH
	DB	02eH
	DB	02eH
	DB	02cH
	DB	06fH
	DB	06fH
	DB	041H
	DB	046H
	DB	041H
	DB	041H
	DB	049H
	DB	049H
	DB	018H
	DB	017H
	DB	02eH
	DB	02eH
	DB	016H
	DB	06H
	DB	08H
	DB	0aH
	DB	04bH
	DB	05fH
	DB	04bH
	DB	04bH
	DB	035H
	DB	016H
	DB	08H
	DB	05H
	DB	05H
	DB	02H
	DB	05H
	DB	02fH
	DB	04aH
	DB	028H
	DB	02H
	DB	02dH
	DB	05fH
	DB	02cH
	DB	02cH
	DB	018H
	DB	06H
	DB	02fH
	DB	01dH
	DB	0aeH
	DB	098H
	DB	0cH
	DB	02H
	DB	06H
	DB	06H
	DB	02H
	DB	02H
	DB	048H
	DB	017H
	DB	018H
	DB	06H
	DB	01fH
	DB	08H
	DB	06H
	DB	06H
	DB	06H
	DB	0aH
	DB	02H
	DB	06H
	DB	06H
	DB	0aH
	DB	02H
	DB	06H
	DB	08H
	DB	05H
	DB	021H
	DB	02H
	DB	01fH
	DB	02H
	DB	098H
	DB	014H
	DB	02H
	DB	02H
	DB	014H
	DB	0aH
	DB	05H
	DB	04H
	DB	04H
	DB	01aH
	DB	047H
	DB	05H
	DB	06H
	DB	08H
	DB	02H
	DB	01H
	DB	01H
	DB	019H
	DB	010H
	DB	00H
	DB	010H
	DB	010H
	DB	00H
	DB	00H
	DB	00H
	DB	00H
	DB	00H
	DB	03H
	DB	010H
	DB	01H
	DB	0cH
	DB	01H
	DB	00H
	DB	00H
	DB	00H
	DB	00H
	DB	00H
	DB	00H
	DB	00H
	DB	00H
	DB	00H
	DB	00H
	DB	00H
	DB	00H
	DB	00H
	DB	00H
	DB	03H
	DB	03H
	DB	03H
	DB	00H
	DB	00H
	DB	00H
	DB	00H
	DB	00H
	DB	00H
	DB	00H
	DB	00H
	DB	00H
	DB	00H
	DB	00H
	DB	00H
	DB	00H
	DB	00H
	DB	00H
	DB	00H
	DB	00H
	DB	00H
	DB	00H
	DB	03H
	DB	04H
	DB	03H
	DB	03H
	DB	043H
	DB	030H
	DB	06eH
	DB	06eH
	DB	01aH
	DB	03H
	DB	00H
	DB	00H
	DB	00H
	DB	00H
	DB	00H
	DB	00H
	DB	00H
	DB	00H
	DB	00H
	DB	00H
	DB	00H
	DB	03H
	DB	030H
	DB	02aH
	DB	044H
	DB	00H
	DB	03H
	DB	05bH
	DB	05bH
	DB	02H
	DB	00H
	DB	03H
	DB	0aH
	DB	018H
	DB	050H
	DB	0aH
	DB	038H
	DB	07H
	DB	038H
	DB	053H
	DB	050H
	DB	04aH
	DB	078H
	DB	0aaH
	DB	010H
	DB	00H
	DB	02H
	DB	057H
	DB	010H
	DB	00H
	DB	03H
	DB	03H
	DB	03H
	DB	038H
	DB	018H
	DB	02dH
	DB	017H
	DB	04bH
	DB	06bH
	DB	021H
	DB	01fH
	DB	098H
	DB	03H
	DB	06eH
	DB	0aH
	DB	08H
	DB	039H
	DB	039H
	DB	06bH
	DB	01aH
	DB	01aH
	DB	05H
	DB	04H
	DB	00H
	DB	03H
	DB	01aH
	DB	07H
	DB	03H
	DB	00H
	DB	03H
	DB	00H
	DB	03H
	DB	04H
	DB	026H
	DB	0aH
	DB	098H
	DB	0a7H
	DB	03fH
	DB	00H
	DB	028H
	DB	06cH
	DB	00H
	DB	00H
	DB	00H
	DB	03H
	DB	03H
	DB	01aH
	DB	026H
	DB	07H
	DB	0bH
	DB	010H
	DB	06eH
	DB	094H
	DB	060H
	DB	017H
	DB	07H
	DB	00H
	DB	03H
	DB	01aH
	DB	07H
	DB	010H
	DB	00H
	DB	01H
	DB	01H
	DB	043H
	DB	0aH
	DB	06H
	DB	068H
	DB	06fH
	DB	016H
	DB	0aH
	DB	06H
	DB	03aH
	DB	018H
	DB	018H
	DB	016H
	DB	05eH
	DB	03aH
	DB	0aH
	DB	0aH
	DB	02H
	DB	016H
	DB	016H
	DB	010H
	DB	043H
	DB	017H
	DB	03aH
	DB	018H
	DB	04cH
	DB	044H
	DB	010H
	DB	00H
	DB	00H
	DB	00H
	DB	00H
	DB	00H
	DB	00H
	DB	0eeH
	DB	0fcH
	DB	09H
	DB	07eH
	DB	0fcH
	DB	015H
	DB	015H
	DB	0feH
	DB	0eH
	DB	0eH
	DB	0c0H
	DB	0c0H
	DB	0ffH
	DB	0ffH
	DB	0dH
	DB	0dH
	DB	0dH
	DB	0dH
	DB	0dH
	DB	0dH
	DB	0dH
	DB	0dH
	DB	0dH
	DB	0dH
	DB	0dH
	DB	0dH
	DB	0dH
	DB	0dH
	DB	0dH
	DB	0dH
	DB	0c1H
	DB	0c1H
	DB	0c1H
	DB	0c1H
	DB	0c1H
	DB	0c1H
	DB	0c1H
	DB	0c1H
	DB	013H
	DB	0ffH
	DB	06H
	DB	01H
	DB	014H
	DB	01bH
	DB	013H
	DB	013H
	DB	013H
	DB	013H
	DB	013H
	DB	013H
	DB	013H
	DB	013H
	DB	013H
	DB	013H
	DB	013H
	DB	013H
	DB	013H
	DB	013H
	DB	013H
	DB	013H
	DB	013H
	DB	013H
	DB	013H
	DB	013H
	DB	013H
	DB	013H
	DB	013H
	DB	013H
	DB	013H
	DB	013H
	DB	013H
	DB	013H
	DB	013H
	DB	0fcH
	DB	01H
	DB	00H
	DB	010H
	DB	07dH
	DB	015H
	DB	013H
	DB	013H
	DB	013H
	DB	013H
	DB	013H
	DB	013H
	DB	013H
	DB	013H
	DB	013H
	DB	013H
	DB	013H
	DB	013H
	DB	013H
	DB	013H
	DB	013H
	DB	013H
	DB	013H
	DB	013H
	DB	013H
	DB	013H
	DB	013H
	DB	013H
	DB	013H
	DB	0c1H
	DB	0c1H
	DB	0c1H
	DB	0c1H
	DB	0c1H
	DB	0c1H
	DB	0dH
	DB	0dH
	DB	0ffH
	DB	0c0H
	DB	0c0H
	DB	0eH
	DB	0eH
	DB	0feH
	DB	0a4H
	DB	015H
	DB	015H
	DB	015H
	DB	0a4H
	DB	0fH
	DB	00H
	DB	00H
	DB	010H
	DB	01bH
	DB	027H
	DB	03aH
	DB	01fH
	DB	03dH
	DB	016H
	DB	06H
	DB	02dH
	DB	018H
	DB	02dH
	DB	06H
	DB	014H
	DB	0bH
	DB	00H
	DB	00H
	DB	00H
	DB	00H
	DB	010H
	DB	047H
	DB	00H
	DB	03H
	DB	0b0H
	DB	046H
	DB	07fH
	DB	04cH
	DB	04cH
	DB	01fH
	DB	01H
	DB	05H
	DB	02cH
	DB	06aH
	DB	012H
	DB	035H
	DB	02H
	DB	039H
	DB	017H
	DB	018H
	DB	017H
	DB	049H
	DB	095H
	DB	080H
	DB	022H
	DB	02cH
	DB	06fH
	DB	02dH
	DB	060H
	DB	095H
	DB	022H
	DB	012H
	DB	046H
	DB	046H
	DB	046H
	DB	041H
	DB	022H
	DB	022H
	DB	05eH
	DB	0aH
	DB	00H
	DB	098H
	DB	028H
	DB	035H
	DB	022H
	DB	022H
	DB	05eH
	DB	03aH
	DB	035H
	DB	02eH
	DB	017H
	DB	060H
	DB	041H
	DB	02eH
	DB	017H
	DB	03eH
	DB	041H
	DB	049H
	DB	08fH
	DB	04bH
	DB	04bH
	DB	039H
	DB	06H
	DB	018H
	DB	017H
	DB	049H
	DB	026H
	DB	05H
	DB	08H
	DB	017H
	DB	060H
	DB	03eH
	DB	026H
	DB	0aH
	DB	028H
	DB	0aH
	DB	026H
	DB	026H
	DB	06H
	DB	014H
	DB	04H
	DB	014H
	DB	071H
	DB	0c9H
	DB	021H
	DB	02dH
	DB	049H
	DB	049H
	DB	017H
	DB	068H
	DB	08H
	DB	06H
	DB	025H
	DB	064H
	DB	08bH
	DB	081H
	DB	01dH
	DB	0aH
	DB	06H
	DB	06H
	DB	06H
	DB	026H
	DB	05H
	DB	014H
	DB	01fH
	DB	02H
	DB	014H
	DB	08H
	DB	023H
	DB	06H
	DB	0aH
	DB	05H
	DB	0aH
	DB	02aH
	DB	0aH
	DB	0aH
	DB	014H
	DB	014H
	DB	02H
	DB	02H
	DB	01H
	DB	06cH
	DB	098H
	DB	010H
	DB	010H
	DB	0bH
	DB	014H
	DB	0bH
	DB	05H
	DB	05H
	DB	04H
	DB	047H
	DB	05H
	DB	032H
	DB	048H
	DB	06H
	DB	023H
	DB	0bH
	DB	0bH
	DB	01H
	DB	04H
	DB	03H
	DB	010H
	DB	010H
	DB	00H
	DB	00H
	DB	00H
	DB	00H
	DB	01H
	DB	04H
	DB	01H
	DB	0bH
	DB	0bH
	DB	0cH
	DB	021H
	DB	00H
	DB	00H
	DB	00H
	DB	00H
	DB	00H
	DB	00H
	DB	00H
	DB	00H
	DB	00H
	DB	00H
	DB	00H
	DB	00H
	DB	00H
	DB	00H
	DB	00H
	DB	03H
	DB	00H
	DB	00H
	DB	00H
	DB	00H
	DB	00H
	DB	00H
	DB	00H
	DB	00H
	DB	00H
	DB	00H
	DB	00H
	DB	03H
	DB	020H
	DB	00H
	DB	00H
	DB	020H
	DB	021H
	DB	03H
	DB	00H
	DB	020H
	DB	04H
	DB	04H
	DB	04H
	DB	03H
	DB	03H
	DB	03H
	DB	01aH
	DB	06eH
	DB	01aH
	DB	07H
	DB	010H
	DB	00H
	DB	00H
	DB	00H
	DB	00H
	DB	03H
	DB	030H
	DB	043H
	DB	01H
	DB	00H
	DB	00H
	DB	030H
	DB	050H
	DB	02fH
	DB	08aH
	DB	021H
	DB	043H
	DB	02H
	DB	0aH
	DB	0aH
	DB	03H
	DB	00H
	DB	020H
	DB	023H
	DB	031H
	DB	018H
	DB	018H
	DB	0aH
	DB	07H
	DB	053H
	DB	0c4H
	DB	026H
	DB	0bH
	DB	019H
	DB	00H
	DB	03H
	DB	023H
	DB	019H
	DB	00H
	DB	00H
	DB	00H
	DB	03H
	DB	038H
	DB	04cH
	DB	0aaH
	DB	0bH
	DB	01aH
	DB	01aH
	DB	04H
	DB	07H
	DB	0bH
	DB	04H
	DB	01aH
	DB	026H
	DB	02aH
	DB	0bH
	DB	00H
	DB	03H
	DB	06bH
	DB	01aH
	DB	01aH
	DB	038H
	DB	038H
	DB	03H
	DB	00H
	DB	030H
	DB	05H
	DB	04H
	DB	03H
	DB	06bH
	DB	026H
	DB	021H
	DB	089H
	DB	02H
	DB	06bH
	DB	010H
	DB	00H
	DB	00H
	DB	01H
	DB	039H
	DB	00H
	DB	00H
	DB	00H
	DB	00H
	DB	00H
	DB	047H
	DB	02dH
	DB	08H
	DB	026H
	DB	05H
	DB	07H
	DB	026H
	DB	039H
	DB	047H
	DB	05H
	DB	02dH
	DB	026H
	DB	032H
	DB	066H
	DB	053H
	DB	053H
	DB	01H
	DB	03H
	DB	03H
	DB	0aH
	DB	03aH
	DB	08H
	DB	06fH
	DB	02eH
	DB	017H
	DB	06fH
	DB	02cH
	DB	02cH
	DB	017H
	DB	018H
	DB	018H
	DB	018H
	DB	03aH
	DB	06fH
	DB	02dH
	DB	018H
	DB	028H
	DB	010H
	DB	00H
	DB	0aH
	DB	017H
	DB	02dH
	DB	0aH
	DB	045H
	DB	063H
	DB	00H
	DB	00H
	DB	00H
	DB	00H
	DB	00H
	DB	00H
	DB	02H
	DB	0adH
	DB	09H
	DB	09H
	DB	07eH
	DB	0fcH
	DB	015H
	DB	015H
	DB	0a4H
	DB	0eH
	DB	0eH
	DB	0c0H
	DB	0ffH
	DB	0ffH
	DB	0dH
	DB	0dH
	DB	0dH
	DB	0dH
	DB	0dH
	DB	0dH
	DB	0dH
	DB	0dH
	DB	0dH
	DB	0dH
	DB	0dH
	DB	0dH
	DB	0dH
	DB	0dH
	DB	0dH
	DB	0dH
	DB	0dH
	DB	0dH
	DB	0dH
	DB	0dH
	DB	0dH
	DB	0c1H
	DB	0c1H
	DB	0c1H
	DB	0c1H
	DB	013H
	DB	0c0H
	DB	014H
	DB	01H
	DB	014H
	DB	0eeH
	DB	013H
	DB	013H
	DB	013H
	DB	013H
	DB	013H
	DB	013H
	DB	013H
	DB	013H
	DB	013H
	DB	013H
	DB	013H
	DB	013H
	DB	013H
	DB	013H
	DB	013H
	DB	013H
	DB	013H
	DB	013H
	DB	013H
	DB	013H
	DB	013H
	DB	013H
	DB	013H
	DB	013H
	DB	013H
	DB	013H
	DB	013H
	DB	013H
	DB	013H
	DB	0fcH
	DB	01H
	DB	00H
	DB	010H
	DB	0fH
	DB	0fcH
	DB	0c1H
	DB	013H
	DB	013H
	DB	013H
	DB	013H
	DB	013H
	DB	013H
	DB	013H
	DB	013H
	DB	013H
	DB	013H
	DB	013H
	DB	013H
	DB	013H
	DB	013H
	DB	013H
	DB	013H
	DB	013H
	DB	013H
	DB	013H
	DB	013H
	DB	013H
	DB	0c1H
	DB	0c1H
	DB	0c1H
	DB	0c1H
	DB	0c1H
	DB	0c1H
	DB	0c1H
	DB	0dH
	DB	0dH
	DB	0dH
	DB	0ffH
	DB	0c0H
	DB	0eH
	DB	0eH
	DB	0eH
	DB	0feH
	DB	0a4H
	DB	015H
	DB	015H
	DB	0a4H
	DB	011H
	DB	010H
	DB	00H
	DB	00H
	DB	05eH
	DB	027H
	DB	0a3H
	DB	045H
	DB	054H
	DB	06H
	DB	06H
	DB	04cH
	DB	0c9H
	DB	016H
	DB	0a8H
	DB	06cH
	DB	00H
	DB	00H
	DB	00H
	DB	00H
	DB	00H
	DB	01aH
	DB	08H
	DB	02aH
	DB	041H
	DB	082H
	DB	012H
	DB	041H
	DB	012H
	DB	051H
	DB	019H
	DB	00H
	DB	028H
	DB	05aH
	DB	0edH
	DB	05bH
	DB	031H
	DB	02H
	DB	0d9H
	DB	017H
	DB	041H
	DB	041H
	DB	03eH
	DB	05fH
	DB	016H
	DB	018H
	DB	017H
	DB	022H
	DB	017H
	DB	014H
	DB	028H
	DB	02cH
	DB	052H
	DB	022H
	DB	02eH
	DB	02eH
	DB	016H
	DB	016H
	DB	016H
	DB	016H
	DB	028H
	DB	010H
	DB	00H
	DB	047H
	DB	016H
	DB	022H
	DB	016H
	DB	016H
	DB	03aH
	DB	03aH
	DB	018H
	DB	026H
	DB	018H
	DB	02eH
	DB	060H
	DB	02dH
	DB	017H
	DB	016H
	DB	05H
	DB	04H
	DB	05H
	DB	02H
	DB	01aH
	DB	014H
	DB	028H
	DB	016H
	DB	017H
	DB	06H
	DB	04bH
	DB	017H
	DB	017H
	DB	060H
	DB	02eH
	DB	017H
	DB	018H
	DB	06H
	DB	018H
	DB	03eH
	DB	03eH
	DB	016H
	DB	05H
	DB	03H
	DB	047H
	DB	0aaH
	DB	05bH
	DB	01fH
	DB	02dH
	DB	018H
	DB	018H
	DB	016H
	DB	016H
	DB	016H
	DB	018H
	DB	03H
	DB	064H
	DB	08bH
	DB	08bH
	DB	064H
	DB	08H
	DB	017H
	DB	016H
	DB	06H
	DB	07H
	DB	04H
	DB	048H
	DB	0bH
	DB	02H
	DB	0aH
	DB	07H
	DB	02H
	DB	028H
	DB	017H
	DB	0aH
	DB	02H
	DB	06H
	DB	02aH
	DB	05H
	DB	01H
	DB	0cH
	DB	0aH
	DB	06H
	DB	043H
	DB	03H
	DB	0bH
	DB	04H
	DB	00H
	DB	03H
	DB	01H
	DB	019H
	DB	04H
	DB	010H
	DB	047H
	DB	04H
	DB	04H
	DB	04H
	DB	0aeH
	DB	04H
	DB	010H
	DB	010H
	DB	01H
	DB	0bH
	DB	05H
	DB	04H
	DB	03H
	DB	00H
	DB	00H
	DB	00H
	DB	00H
	DB	08fH
	DB	04cH
	DB	021H
	DB	0bH
	DB	05H
	DB	01H
	DB	019H
	DB	010H
	DB	00H
	DB	00H
	DB	00H
	DB	00H
	DB	00H
	DB	00H
	DB	00H
	DB	00H
	DB	00H
	DB	00H
	DB	00H
	DB	00H
	DB	00H
	DB	00H
	DB	00H
	DB	00H
	DB	00H
	DB	00H
	DB	00H
	DB	00H
	DB	00H
	DB	00H
	DB	00H
	DB	00H
	DB	00H
	DB	00H
	DB	00H
	DB	043H
	DB	01H
	DB	00H
	DB	00H
	DB	065H
	DB	0a6H
	DB	04H
	DB	03H
	DB	07H
	DB	026H
	DB	01aH
	DB	04H
	DB	03H
	DB	00H
	DB	00H
	DB	00H
	DB	030H
	DB	06bH
	DB	0cH
	DB	010H
	DB	00H
	DB	00H
	DB	00H
	DB	00H
	DB	06eH
	DB	053H
	DB	050H
	DB	05H
	DB	03H
	DB	03H
	DB	030H
	DB	01H
	DB	010H
	DB	03H
	DB	07H
	DB	03H
	DB	030H
	DB	07H
	DB	07H
	DB	07H
	DB	030H
	DB	03H
	DB	0bH
	DB	044H
	DB	023H
	DB	019H
	DB	04H
	DB	00H
	DB	03H
	DB	030H
	DB	06eH
	DB	04H
	DB	00H
	DB	00H
	DB	03H
	DB	00H
	DB	00H
	DB	03H
	DB	03H
	DB	00H
	DB	00H
	DB	04aH
	DB	0d3H
	DB	0a7H
	DB	030H
	DB	0c3H
	DB	06eH
	DB	03H
	DB	01aH
	DB	01aH
	DB	030H
	DB	026H
	DB	039H
	DB	026H
	DB	07H
	DB	030H
	DB	06eH
	DB	01aH
	DB	03H
	DB	07H
	DB	021H
	DB	02H
	DB	07H
	DB	093H
	DB	026H
	DB	026H
	DB	00H
	DB	00H
	DB	026H
	DB	03eH
	DB	06H
	DB	05H
	DB	04H
	DB	04H
	DB	010H
	DB	00H
	DB	00H
	DB	00H
	DB	00H
	DB	00H
	DB	03H
	DB	03H
	DB	03H
	DB	00H
	DB	01H
	DB	02H
	DB	0aH
	DB	08H
	DB	048H
	DB	05H
	DB	048H
	DB	010H
	DB	00H
	DB	03H
	DB	08H
	DB	08H
	DB	026H
	DB	02dH
	DB	06fH
	DB	03aH
	DB	01H
	DB	03H
	DB	07H
	DB	016H
	DB	016H
	DB	02dH
	DB	06fH
	DB	02cH
	DB	02cH
	DB	02cH
	DB	06fH
	DB	02dH
	DB	049H
	DB	017H
	DB	017H
	DB	0aH
	DB	08H
	DB	03eH
	DB	060H
	DB	06fH
	DB	018H
	DB	019H
	DB	03H
	DB	02aH
	DB	03eH
	DB	03eH
	DB	06H
	DB	03fH
	DB	025H
	DB	00H
	DB	00H
	DB	00H
	DB	00H
	DB	00H
	DB	00H
	DB	0eeH
	DB	07eH
	DB	08cH
	DB	09H
	DB	07eH
	DB	0fcH
	DB	015H
	DB	015H
	DB	0a4H
	DB	0eH
	DB	0eH
	DB	0c0H
	DB	0c0H
	DB	0ffH
	DB	0ffH
	DB	0dH
	DB	0dH
	DB	0dH
	DB	0dH
	DB	0dH
	DB	0dH
	DB	0dH
	DB	0dH
	DB	0dH
	DB	0dH
	DB	0dH
	DB	0dH
	DB	0dH
	DB	0dH
	DB	0dH
	DB	0dH
	DB	0dH
	DB	0dH
	DB	0dH
	DB	0dH
	DB	0dH
	DB	0dH
	DB	0c1H
	DB	0dH
	DB	013H
	DB	0c0H
	DB	06H
	DB	020H
	DB	014H
	DB	01bH
	DB	013H
	DB	013H
	DB	013H
	DB	013H
	DB	013H
	DB	013H
	DB	013H
	DB	013H
	DB	013H
	DB	013H
	DB	013H
	DB	013H
	DB	013H
	DB	013H
	DB	013H
	DB	013H
	DB	013H
	DB	013H
	DB	013H
	DB	013H
	DB	013H
	DB	013H
	DB	013H
	DB	013H
	DB	013H
	DB	013H
	DB	013H
	DB	013H
	DB	013H
	DB	0fcH
	DB	01H
	DB	00H
	DB	010H
	DB	07dH
	DB	07eH
	DB	0dH
	DB	013H
	DB	013H
	DB	013H
	DB	013H
	DB	013H
	DB	013H
	DB	013H
	DB	013H
	DB	013H
	DB	013H
	DB	013H
	DB	013H
	DB	013H
	DB	013H
	DB	013H
	DB	013H
	DB	013H
	DB	013H
	DB	013H
	DB	013H
	DB	013H
	DB	0c1H
	DB	0c1H
	DB	0c1H
	DB	0c1H
	DB	0c1H
	DB	0c1H
	DB	0c1H
	DB	0c1H
	DB	0dH
	DB	0dH
	DB	0dH
	DB	0ffH
	DB	0c0H
	DB	0eH
	DB	0eH
	DB	0feH
	DB	0a4H
	DB	015H
	DB	015H
	DB	015H
	DB	0feH
	DB	0fH
	DB	00H
	DB	00H
	DB	010H
	DB	09dH
	DB	0eeH
	DB	031H
	DB	061H
	DB	06H
	DB	023H
	DB	084H
	DB	0bcH
	DB	071H
	DB	098H
	DB	00H
	DB	00H
	DB	00H
	DB	025H
	DB	028H
	DB	046H
	DB	046H
	DB	052H
	DB	080H
	DB	012H
	DB	07fH
	DB	03aH
	DB	017H
	DB	022H
	DB	023H
	DB	010H
	DB	02H
	DB	035H
	DB	07aH
	DB	07aH
	DB	02fH
	DB	02H
	DB	07H
	DB	039H
	DB	05fH
	DB	02eH
	DB	02cH
	DB	017H
	DB	049H
	DB	03eH
	DB	06H
	DB	014H
	DB	028H
	DB	08H
	DB	014H
	DB	08H
	DB	0aH
	DB	08H
	DB	028H
	DB	017H
	DB	02dH
	DB	039H
	DB	049H
	DB	017H
	DB	018H
	DB	018H
	DB	07H
	DB	00H
	DB	01aH
	DB	017H
	DB	017H
	DB	02dH
	DB	017H
	DB	02cH
	DB	016H
	DB	06fH
	DB	06fH
	DB	06fH
	DB	03eH
	DB	060H
	DB	03eH
	DB	05fH
	DB	04bH
	DB	03aH
	DB	017H
	DB	049H
	DB	0aH
	DB	0aH
	DB	06H
	DB	014H
	DB	017H
	DB	035H
	DB	017H
	DB	017H
	DB	017H
	DB	050H
	DB	02dH
	DB	05fH
	DB	02cH
	DB	049H
	DB	02dH
	DB	02cH
	DB	046H
	DB	041H
	DB	016H
	DB	023H
	DB	0aH
	DB	0aH
	DB	023H
	DB	044H
	DB	06H
	DB	017H
	DB	06fH
	DB	06fH
	DB	017H
	DB	016H
	DB	016H
	DB	018H
	DB	038H
	DB	01dH
	DB	081H
	DB	08bH
	DB	0c9H
	DB	02dH
	DB	049H
	DB	018H
	DB	02H
	DB	0cH
	DB	06H
	DB	018H
	DB	026H
	DB	0aH
	DB	0aH
	DB	05H
	DB	08H
	DB	017H
	DB	017H
	DB	03aH
	DB	017H
	DB	018H
	DB	02aH
	DB	021H
	DB	021H
	DB	08H
	DB	08H
	DB	014H
	DB	02H
	DB	021H
	DB	02H
	DB	038H
	DB	06eH
	DB	026H
	DB	021H
	DB	01dH
	DB	07H
	DB	04H
	DB	04H
	DB	04H
	DB	020H
	DB	03H
	DB	010H
	DB	00H
	DB	010H
	DB	01H
	DB	04H
	DB	047H
	DB	02H
	DB	01H
	DB	00H
	DB	00H
	DB	00H
	DB	00H
	DB	0aeH
	DB	05bH
	DB	04dH
	DB	021H
	DB	01H
	DB	01H
	DB	010H
	DB	00H
	DB	00H
	DB	00H
	DB	00H
	DB	00H
	DB	00H
	DB	00H
	DB	00H
	DB	00H
	DB	00H
	DB	00H
	DB	00H
	DB	00H
	DB	00H
	DB	00H
	DB	00H
	DB	00H
	DB	00H
	DB	00H
	DB	00H
	DB	00H
	DB	00H
	DB	00H
	DB	00H
	DB	00H
	DB	00H
	DB	03H
	DB	03H
	DB	00H
	DB	00H
	DB	00H
	DB	00H
	DB	00H
	DB	065H
	DB	01H
	DB	04H
	DB	00H
	DB	03H
	DB	05H
	DB	01H
	DB	03H
	DB	04H
	DB	03H
	DB	03H
	DB	00H
	DB	00H
	DB	01aH
	DB	047H
	DB	00H
	DB	00H
	DB	065H
	DB	020H
	DB	030H
	DB	038H
	DB	053H
	DB	05H
	DB	04H
	DB	03H
	DB	03H
	DB	07H
	DB	03H
	DB	00H
	DB	03H
	DB	03H
	DB	00H
	DB	00H
	DB	03H
	DB	01H
	DB	038H
	DB	038H
	DB	01aH
	DB	03H
	DB	01H
	DB	01H
	DB	00H
	DB	03H
	DB	020H
	DB	025H
	DB	025H
	DB	043H
	DB	01H
	DB	00H
	DB	00H
	DB	00H
	DB	00H
	DB	03H
	DB	043H
	DB	038H
	DB	0c4H
	DB	03H
	DB	044H
	DB	099H
	DB	00H
	DB	0dcH
	DB	07cH
	DB	0fH
	DB	03aH
	DB	01H
	DB	01aH
	DB	06eH
	DB	026H
	DB	06bH
	DB	06bH
	DB	07H
	DB	026H
	DB	0aH
	DB	01aH
	DB	03H
	DB	03H
	DB	03H
	DB	04H
	DB	07H
	DB	02aH
	DB	068H
	DB	02dH
	DB	050H
	DB	07H
	DB	03H
	DB	068H
	DB	0aH
	DB	01aH
	DB	047H
	DB	010H
	DB	03H
	DB	04H
	DB	03H
	DB	00H
	DB	00H
	DB	03H
	DB	03H
	DB	03H
	DB	04H
	DB	010H
	DB	025H
	DB	00H
	DB	07H
	DB	08H
	DB	02H
	DB	057H
	DB	057H
	DB	020H
	DB	020H
	DB	01H
	DB	020H
	DB	089H
	DB	068H
	DB	03eH
	DB	03eH
	DB	03aH
	DB	023H
	DB	021H
	DB	03eH
	DB	022H
	DB	06H
	DB	02dH
	DB	06fH
	DB	049H
	DB	03eH
	DB	017H
	DB	02dH
	DB	026H
	DB	039H
	DB	02dH
	DB	02dH
	DB	0aH
	DB	05H
	DB	039H
	DB	02dH
	DB	018H
	DB	016H
	DB	018H
	DB	0aH
	DB	02aH
	DB	02cH
	DB	052H
	DB	06dH
	DB	05H
	DB	07H
	DB	00H
	DB	00H
	DB	00H
	DB	00H
	DB	00H
	DB	02H
	DB	0adH
	DB	08cH
	DB	08cH
	DB	09H
	DB	07eH
	DB	0fcH
	DB	0fcH
	DB	015H
	DB	0a4H
	DB	0feH
	DB	0eH
	DB	0eH
	DB	0c0H
	DB	0ffH
	DB	0ffH
	DB	0ffH
	DB	0dH
	DB	0dH
	DB	0dH
	DB	0dH
	DB	0dH
	DB	0dH
	DB	0dH
	DB	0dH
	DB	0dH
	DB	0dH
	DB	0dH
	DB	0dH
	DB	0dH
	DB	0dH
	DB	0dH
	DB	0dH
	DB	0dH
	DB	0dH
	DB	0dH
	DB	0dH
	DB	0dH
	DB	0dH
	DB	0dH
	DB	013H
	DB	0ffH
	DB	05eH
	DB	00H
	DB	02H
	DB	0eeH
	DB	013H
	DB	013H
	DB	013H
	DB	013H
	DB	013H
	DB	013H
	DB	013H
	DB	013H
	DB	013H
	DB	013H
	DB	013H
	DB	013H
	DB	013H
	DB	013H
	DB	013H
	DB	013H
	DB	013H
	DB	013H
	DB	013H
	DB	013H
	DB	013H
	DB	013H
	DB	013H
	DB	013H
	DB	013H
	DB	013H
	DB	013H
	DB	013H
	DB	013H
	DB	015H
	DB	01H
	DB	00H
	DB	010H
	DB	01bH
	DB	07eH
	DB	0ffH
	DB	013H
	DB	013H
	DB	013H
	DB	013H
	DB	013H
	DB	013H
	DB	013H
	DB	013H
	DB	013H
	DB	013H
	DB	013H
	DB	013H
	DB	013H
	DB	013H
	DB	013H
	DB	0c1H
	DB	0c1H
	DB	0c1H
	DB	0c1H
	DB	0c1H
	DB	0c1H
	DB	0c1H
	DB	0c1H
	DB	0c1H
	DB	0c1H
	DB	0c1H
	DB	0c1H
	DB	0c1H
	DB	0c1H
	DB	0dH
	DB	0dH
	DB	0dH
	DB	0ffH
	DB	0c0H
	DB	0eH
	DB	0eH
	DB	0eH
	DB	0a4H
	DB	0a4H
	DB	015H
	DB	015H
	DB	0feH
	DB	0adH
	DB	01H
	DB	00H
	DB	00H
	DB	022H
	DB	09eH
	DB	07fH
	DB	0cH
	DB	028H
	DB	0cH
	DB	03fH
	DB	045H
	DB	08aH
	DB	00H
	DB	00H
	DB	03H
	DB	0e0H
	DB	0bbH
	DB	0bcH
	DB	09bH
	DB	095H
	DB	014H
	DB	028H
	DB	035H
	DB	035H
	DB	08H
	DB	06H
	DB	0aH
	DB	00H
	DB	04H
	DB	028H
	DB	06H
	DB	0aH
	DB	06H
	DB	06H
	DB	014H
	DB	026H
	DB	06fH
	DB	016H
	DB	028H
	DB	017H
	DB	017H
	DB	02dH
	DB	060H
	DB	049H
	DB	0aH
	DB	05H
	DB	0aH
	DB	06H
	DB	017H
	DB	050H
	DB	04H
	DB	032H
	DB	017H
	DB	02cH
	DB	018H
	DB	017H
	DB	02cH
	DB	02cH
	DB	02cH
	DB	02H
	DB	039H
	DB	0d9H
	DB	039H
	DB	04bH
	DB	035H
	DB	02eH
	DB	016H
	DB	035H
	DB	02eH
	DB	05fH
	DB	02cH
	DB	02cH
	DB	017H
	DB	028H
	DB	017H
	DB	017H
	DB	016H
	DB	02eH
	DB	03eH
	DB	018H
	DB	02cH
	DB	02cH
	DB	02dH
	DB	049H
	DB	02cH
	DB	018H
	DB	014H
	DB	06H
	DB	06H
	DB	017H
	DB	016H
	DB	017H
	DB	018H
	DB	017H
	DB	012H
	DB	0fH
	DB	07fH
	DB	06H
	DB	02H
	DB	02aH
	DB	01fH
	DB	0bH
	DB	08H
	DB	017H
	DB	017H
	DB	02cH
	DB	03eH
	DB	049H
	DB	016H
	DB	06H
	DB	014H
	DB	014H
	DB	01H
	DB	0cH
	DB	070H
	DB	05bH
	DB	08H
	DB	08H
	DB	06H
	DB	01fH
	DB	0a7H
	DB	028H
	DB	018H
	DB	017H
	DB	06H
	DB	05H
	DB	048H
	DB	018H
	DB	02dH
	DB	018H
	DB	017H
	DB	018H
	DB	068H
	DB	02aH
	DB	06H
	DB	02dH
	DB	0aH
	DB	048H
	DB	0bH
	DB	014H
	DB	08fH
	DB	031H
	DB	02aH
	DB	02dH
	DB	017H
	DB	023H
	DB	02H
	DB	0aH
	DB	02H
	DB	01H
	DB	07H
	DB	05H
	DB	032H
	DB	01aH
	DB	01aH
	DB	04H
	DB	010H
	DB	010H
	DB	047H
	DB	04H
	DB	00H
	DB	00H
	DB	00H
	DB	00H
	DB	00H
	DB	098H
	DB	05bH
	DB	044H
	DB	02H
	DB	01H
	DB	025H
	DB	00H
	DB	00H
	DB	00H
	DB	00H
	DB	00H
	DB	00H
	DB	00H
	DB	00H
	DB	00H
	DB	00H
	DB	00H
	DB	00H
	DB	00H
	DB	00H
	DB	00H
	DB	03H
	DB	030H
	DB	04H
	DB	03H
	DB	03H
	DB	00H
	DB	00H
	DB	00H
	DB	00H
	DB	00H
	DB	00H
	DB	00H
	DB	00H
	DB	00H
	DB	00H
	DB	00H
	DB	00H
	DB	00H
	DB	00H
	DB	03H
	DB	03H
	DB	03H
	DB	00H
	DB	00H
	DB	03H
	DB	043H
	DB	03H
	DB	00H
	DB	00H
	DB	030H
	DB	038H
	DB	04H
	DB	03H
	DB	03H
	DB	01aH
	DB	038H
	DB	02aH
	DB	021H
	DB	07H
	DB	02H
	DB	02H
	DB	01aH
	DB	03H
	DB	03H
	DB	03H
	DB	01aH
	DB	030H
	DB	030H
	DB	01aH
	DB	03H
	DB	03H
	DB	00H
	DB	00H
	DB	03H
	DB	026H
	DB	06bH
	DB	03H
	DB	03H
	DB	043H
	DB	03H
	DB	03H
	DB	01aH
	DB	01H
	DB	063H
	DB	025H
	DB	07H
	DB	01H
	DB	00H
	DB	00H
	DB	03H
	DB	07H
	DB	07H
	DB	0aH
	DB	08H
	DB	02dH
	DB	026H
	DB	00H
	DB	0bH
	DB	010H
	DB	02dH
	DB	08dH
	DB	096H
	DB	06aH
	DB	018H
	DB	068H
	DB	02dH
	DB	026H
	DB	01aH
	DB	06eH
	DB	032H
	DB	07H
	DB	020H
	DB	030H
	DB	032H
	DB	03H
	DB	00H
	DB	030H
	DB	06eH
	DB	02aH
	DB	0aH
	DB	06fH
	DB	041H
	DB	05fH
	DB	05H
	DB	038H
	DB	01aH
	DB	03H
	DB	04H
	DB	03H
	DB	00H
	DB	03H
	DB	03H
	DB	00H
	DB	03H
	DB	07H
	DB	01H
	DB	07H
	DB	0aH
	DB	0aH
	DB	021H
	DB	01aH
	DB	050H
	DB	0aH
	DB	06H
	DB	071H
	DB	0c9H
	DB	02H
	DB	038H
	DB	038H
	DB	0b7H
	DB	0b1H
	DB	04cH
	DB	02eH
	DB	017H
	DB	018H
	DB	031H
	DB	03aH
	DB	041H
	DB	02eH
	DB	018H
	DB	02dH
	DB	094H
	DB	02dH
	DB	02dH
	DB	02dH
	DB	026H
	DB	026H
	DB	02dH
	DB	026H
	DB	0aH
	DB	08H
	DB	02H
	DB	032H
	DB	01aH
	DB	0aH
	DB	018H
	DB	018H
	DB	03aH
	DB	03aH
	DB	02cH
	DB	051H
	DB	06dH
	DB	048H
	DB	010H
	DB	00H
	DB	00H
	DB	00H
	DB	00H
	DB	00H
	DB	0eeH
	DB	09H
	DB	029H
	DB	0fbH
	DB	09H
	DB	09H
	DB	07eH
	DB	0fcH
	DB	015H
	DB	015H
	DB	0a4H
	DB	0eH
	DB	0eH
	DB	0eH
	DB	0c0H
	DB	0ffH
	DB	0ffH
	DB	0ffH
	DB	0ffH
	DB	0dH
	DB	0dH
	DB	0dH
	DB	0dH
	DB	0dH
	DB	0dH
	DB	0dH
	DB	0dH
	DB	0dH
	DB	0dH
	DB	0dH
	DB	0dH
	DB	0dH
	DB	0dH
	DB	0dH
	DB	0dH
	DB	0dH
	DB	0dH
	DB	0dH
	DB	0dH
	DB	0dH
	DB	013H
	DB	0dH
	DB	0fH
	DB	00H
	DB	021H
	DB	027H
	DB	013H
	DB	013H
	DB	013H
	DB	013H
	DB	013H
	DB	013H
	DB	013H
	DB	013H
	DB	013H
	DB	013H
	DB	013H
	DB	013H
	DB	013H
	DB	013H
	DB	013H
	DB	013H
	DB	013H
	DB	013H
	DB	013H
	DB	013H
	DB	013H
	DB	013H
	DB	013H
	DB	013H
	DB	013H
	DB	013H
	DB	013H
	DB	013H
	DB	013H
	DB	0feH
	DB	02H
	DB	00H
	DB	010H
	DB	0efH
	DB	07eH
	DB	0ffH
	DB	013H
	DB	013H
	DB	013H
	DB	013H
	DB	013H
	DB	013H
	DB	013H
	DB	013H
	DB	013H
	DB	0c1H
	DB	0c1H
	DB	0c1H
	DB	0c1H
	DB	0c1H
	DB	0c1H
	DB	0c1H
	DB	0c1H
	DB	0c1H
	DB	0c1H
	DB	0c1H
	DB	0c1H
	DB	0c1H
	DB	0c1H
	DB	0c1H
	DB	0c1H
	DB	0c1H
	DB	0c1H
	DB	0c1H
	DB	0c1H
	DB	0c1H
	DB	0dH
	DB	0dH
	DB	0dH
	DB	0ffH
	DB	0c0H
	DB	0eH
	DB	0eH
	DB	0feH
	DB	0a4H
	DB	015H
	DB	015H
	DB	015H
	DB	0eH
	DB	0fH
	DB	00H
	DB	00H
	DB	01H
	DB	01bH
	DB	07dH
	DB	01H
	DB	04H
	DB	010H
	DB	00H
	DB	065H
	DB	020H
	DB	00H
	DB	04H
	DB	017H
	DB	0bcH
	DB	0bbH
	DB	0bbH
	DB	061H
	DB	044H
	DB	07H
	DB	026H
	DB	03eH
	DB	017H
	DB	048H
	DB	02H
	DB	020H
	DB	047H
	DB	05H
	DB	02H
	DB	02H
	DB	06H
	DB	05H
	DB	07H
	DB	028H
	DB	02eH
	DB	041H
	DB	02cH
	DB	017H
	DB	03eH
	DB	017H
	DB	049H
	DB	060H
	DB	05fH
	DB	039H
	DB	05H
	DB	028H
	DB	016H
	DB	060H
	DB	017H
	DB	01aH
	DB	039H
	DB	05fH
	DB	06H
	DB	0aH
	DB	017H
	DB	05fH
	DB	02eH
	DB	02eH
	DB	02H
	DB	047H
	DB	00H
	DB	047H
	DB	08H
	DB	028H
	DB	018H
	DB	02H
	DB	014H
	DB	028H
	DB	017H
	DB	02cH
	DB	016H
	DB	018H
	DB	08H
	DB	017H
	DB	02cH
	DB	028H
	DB	016H
	DB	02cH
	DB	018H
	DB	049H
	DB	03eH
	DB	02dH
	DB	06H
	DB	017H
	DB	02aH
	DB	021H
	DB	02aH
	DB	017H
	DB	017H
	DB	018H
	DB	06H
	DB	04bH
	DB	035H
	DB	06aH
	DB	06aH
	DB	02eH
	DB	018H
	DB	06H
	DB	06H
	DB	02H
	DB	05H
	DB	039H
	DB	04bH
	DB	049H
	DB	016H
	DB	017H
	DB	04bH
	DB	028H
	DB	0bH
	DB	0aeH
	DB	06cH
	DB	00H
	DB	06cH
	DB	045H
	DB	084H
	DB	02aH
	DB	0aH
	DB	02H
	DB	02H
	DB	023H
	DB	02aH
	DB	08H
	DB	028H
	DB	06H
	DB	07H
	DB	048H
	DB	06H
	DB	02aH
	DB	018H
	DB	08H
	DB	014H
	DB	01fH
	DB	06H
	DB	04bH
	DB	08H
	DB	026H
	DB	02H
	DB	05H
	DB	098H
	DB	098H
	DB	02H
	DB	08H
	DB	018H
	DB	018H
	DB	023H
	DB	023H
	DB	014H
	DB	02H
	DB	07H
	DB	05H
	DB	048H
	DB	032H
	DB	05H
	DB	02H
	DB	010H
	DB	00H
	DB	010H
	DB	04H
	DB	019H
	DB	03H
	DB	00H
	DB	00H
	DB	00H
	DB	00H
	DB	048H
	DB	031H
	DB	02H
	DB	05H
	DB	020H
	DB	00H
	DB	00H
	DB	010H
	DB	03H
	DB	00H
	DB	00H
	DB	00H
	DB	00H
	DB	00H
	DB	00H
	DB	00H
	DB	00H
	DB	00H
	DB	00H
	DB	00H
	DB	00H
	DB	00H
	DB	03H
	DB	0bH
	DB	03H
	DB	00H
	DB	03H
	DB	03H
	DB	03H
	DB	00H
	DB	00H
	DB	03H
	DB	00H
	DB	00H
	DB	00H
	DB	00H
	DB	03H
	DB	00H
	DB	00H
	DB	00H
	DB	00H
	DB	00H
	DB	00H
	DB	03H
	DB	00H
	DB	00H
	DB	030H
	DB	03H
	DB	00H
	DB	00H
	DB	03H
	DB	0aH
	DB	05H
	DB	03H
	DB	03H
	DB	043H
	DB	026H
	DB	0a5H
	DB	010H
	DB	01aH
	DB	01H
	DB	04H
	DB	06eH
	DB	01aH
	DB	03H
	DB	03H
	DB	030H
	DB	07H
	DB	01aH
	DB	030H
	DB	07H
	DB	010H
	DB	00H
	DB	00H
	DB	00H
	DB	06eH
	DB	026H
	DB	01aH
	DB	04H
	DB	03H
	DB	030H
	DB	01aH
	DB	01aH
	DB	00H
	DB	065H
	DB	023H
	DB	02H
	DB	032H
	DB	05H
	DB	038H
	DB	026H
	DB	0bH
	DB	025H
	DB	01H
	DB	04H
	DB	01aH
	DB	05H
	DB	03H
	DB	02fH
	DB	057H
	DB	00H
	DB	047H
	DB	048H
	DB	028H
	DB	02fH
	DB	02fH
	DB	01fH
	DB	01aH
	DB	01aH
	DB	07H
	DB	01aH
	DB	01aH
	DB	01aH
	DB	01aH
	DB	026H
	DB	08H
	DB	07H
	DB	030H
	DB	050H
	DB	0aH
	DB	0aH
	DB	050H
	DB	018H
	DB	018H
	DB	08H
	DB	07H
	DB	01aH
	DB	00H
	DB	03H
	DB	030H
	DB	043H
	DB	021H
	DB	023H
	DB	023H
	DB	089H
	DB	044H
	DB	045H
	DB	045H
	DB	070H
	DB	054H
	DB	05bH
	DB	02fH
	DB	049H
	DB	066H
	DB	018H
	DB	014H
	DB	0bH
	DB	02H
	DB	03H
	DB	026H
	DB	06fH
	DB	0a9H
	DB	03aH
	DB	035H
	DB	04bH
	DB	050H
	DB	02cH
	DB	06H
	DB	02H
	DB	02dH
	DB	03eH
	DB	018H
	DB	017H
	DB	02dH
	DB	026H
	DB	0aH
	DB	0aH
	DB	0aH
	DB	08H
	DB	08H
	DB	02dH
	DB	0aH
	DB	08H
	DB	02dH
	DB	026H
	DB	026H
	DB	08H
	DB	02cH
	DB	02cH
	DB	017H
	DB	08H
	DB	08H
	DB	08H
	DB	047H
	DB	00H
	DB	00H
	DB	00H
	DB	00H
	DB	00H
	DB	05eH
	DB	0adH
	DB	011H
	DB	011H
	DB	029H
	DB	09H
	DB	09H
	DB	07eH
	DB	0fcH
	DB	015H
	DB	015H
	DB	0a4H
	DB	0feH
	DB	0eH
	DB	0eH
	DB	0eH
	DB	0c0H
	DB	0c0H
	DB	0ffH
	DB	0ffH
	DB	0ffH
	DB	0ffH
	DB	0dH
	DB	0dH
	DB	0dH
	DB	0dH
	DB	0dH
	DB	0dH
	DB	0dH
	DB	0dH
	DB	0dH
	DB	0dH
	DB	0dH
	DB	0dH
	DB	0dH
	DB	0dH
	DB	0dH
	DB	0dH
	DB	0dH
	DB	0dH
	DB	0dH
	DB	0c1H
	DB	0c1H
	DB	01cH
	DB	00H
	DB	06H
	DB	0fH
	DB	05cH
	DB	088H
	DB	09eH
	DB	0efH
	DB	0efH
	DB	0efH
	DB	0efH
	DB	0efH
	DB	0efH
	DB	0efH
	DB	0efH
	DB	0efH
	DB	0efH
	DB	0efH
	DB	0efH
	DB	0efH
	DB	0efH
	DB	0efH
	DB	0efH
	DB	0efH
	DB	0efH
	DB	0efH
	DB	0efH
	DB	0efH
	DB	0efH
	DB	0efH
	DB	0efH
	DB	09eH
	DB	024H
	DB	01bH
	DB	021H
	DB	00H
	DB	02H
	DB	024H
	DB	09H
	DB	0dH
	DB	013H
	DB	013H
	DB	013H
	DB	013H
	DB	0c1H
	DB	0c1H
	DB	0c1H
	DB	0c1H
	DB	0c1H
	DB	0c1H
	DB	0c1H
	DB	0c1H
	DB	0c1H
	DB	0c1H
	DB	0c1H
	DB	0c1H
	DB	0c1H
	DB	0c1H
	DB	0c1H
	DB	0c1H
	DB	0c1H
	DB	0c1H
	DB	0c1H
	DB	0c1H
	DB	0c1H
	DB	0c1H
	DB	0c1H
	DB	0c1H
	DB	0c1H
	DB	0c1H
	DB	0dH
	DB	0dH
	DB	0dH
	DB	0ffH
	DB	0c0H
	DB	0eH
	DB	0eH
	DB	0feH
	DB	0a4H
	DB	0a4H
	DB	015H
	DB	015H
	DB	015H
	DB	09H
	DB	06H
	DB	00H
	DB	00H
	DB	07fH
	DB	01bH
	DB	06H
	DB	00H
	DB	00H
	DB	03H
	DB	04H
	DB	03H
	DB	04H
	DB	06H
	DB	022H
	DB	04cH
	DB	0e0H
	DB	045H
	DB	045H
	DB	01fH
	DB	018H
	DB	07fH
	DB	052H
	DB	014H
	DB	04H
	DB	03H
	DB	04H
	DB	05H
	DB	05H
	DB	068H
	DB	02cH
	DB	035H
	DB	08H
	DB	017H
	DB	051H
	DB	07aH
	DB	06dH
	DB	035H
	DB	060H
	DB	060H
	DB	016H
	DB	05fH
	DB	017H
	DB	04bH
	DB	048H
	DB	02H
	DB	0a8H
	DB	017H
	DB	06H
	DB	049H
	DB	08H
	DB	02cH
	DB	02cH
	DB	06H
	DB	018H
	DB	017H
	DB	06H
	DB	06H
	DB	016H
	DB	06H
	DB	05H
	DB	03H
	DB	00H
	DB	010H
	DB	07H
	DB	06H
	DB	06fH
	DB	0aH
	DB	02H
	DB	02dH
	DB	06fH
	DB	049H
	DB	017H
	DB	018H
	DB	018H
	DB	03aH
	DB	03aH
	DB	03aH
	DB	03aH
	DB	08H
	DB	039H
	DB	08H
	DB	08H
	DB	017H
	DB	03aH
	DB	02aH
	DB	08H
	DB	017H
	DB	028H
	DB	06H
	DB	08H
	DB	048H
	DB	05H
	DB	018H
	DB	016H
	DB	028H
	DB	017H
	DB	02cH
	DB	03aH
	DB	06H
	DB	014H
	DB	02H
	DB	05H
	DB	048H
	DB	08fH
	DB	016H
	DB	018H
	DB	05H
	DB	010H
	DB	00H
	DB	00H
	DB	00H
	DB	00H
	DB	00H
	DB	064H
	DB	0e0H
	DB	0c9H
	DB	0aH
	DB	038H
	DB	02H
	DB	02aH
	DB	06H
	DB	014H
	DB	02H
	DB	02H
	DB	05H
	DB	08H
	DB	01fH
	DB	06H
	DB	02H
	DB	00H
	DB	010H
	DB	048H
	DB	06H
	DB	08H
	DB	014H
	DB	026H
	DB	05H
	DB	02H
	DB	02H
	DB	05H
	DB	05H
	DB	048H
	DB	08H
	DB	02aH
	DB	01fH
	DB	05dH
	DB	0cH
	DB	01H
	DB	021H
	DB	08H
	DB	048H
	DB	01aH
	DB	047H
	DB	0bH
	DB	020H
	DB	03H
	DB	01H
	DB	020H
	DB	025H
	DB	010H
	DB	00H
	DB	00H
	DB	00H
	DB	00H
	DB	02H
	DB	02H
	DB	05H
	DB	05H
	DB	01H
	DB	03H
	DB	019H
	DB	020H
	DB	010H
	DB	00H
	DB	00H
	DB	00H
	DB	00H
	DB	03H
	DB	01H
	DB	03H
	DB	00H
	DB	00H
	DB	00H
	DB	03H
	DB	00H
	DB	00H
	DB	00H
	DB	03H
	DB	03H
	DB	00H
	DB	00H
	DB	00H
	DB	03H
	DB	03H
	DB	03H
	DB	03H
	DB	00H
	DB	00H
	DB	00H
	DB	00H
	DB	00H
	DB	00H
	DB	00H
	DB	03H
	DB	00H
	DB	00H
	DB	00H
	DB	00H
	DB	00H
	DB	00H
	DB	00H
	DB	00H
	DB	00H
	DB	00H
	DB	03H
	DB	010H
	DB	03H
	DB	06eH
	DB	026H
	DB	01aH
	DB	01aH
	DB	03H
	DB	03H
	DB	04H
	DB	010H
	DB	00H
	DB	030H
	DB	04H
	DB	00H
	DB	03H
	DB	03H
	DB	04H
	DB	01H
	DB	01dH
	DB	021H
	DB	07H
	DB	01aH
	DB	03H
	DB	030H
	DB	038H
	DB	0aH
	DB	0aH
	DB	04H
	DB	03H
	DB	030H
	DB	07H
	DB	047H
	DB	03H
	DB	038H
	DB	02aH
	DB	05H
	DB	032H
	DB	0aH
	DB	02aH
	DB	08H
	DB	014H
	DB	00H
	DB	00H
	DB	030H
	DB	018H
	DB	05dH
	DB	00H
	DB	04dH
	DB	0aaH
	DB	03H
	DB	00H
	DB	03H
	DB	00H
	DB	010H
	DB	025H
	DB	025H
	DB	030H
	DB	026H
	DB	05H
	DB	03H
	DB	03H
	DB	06eH
	DB	039H
	DB	02dH
	DB	08H
	DB	08H
	DB	026H
	DB	0aH
	DB	05H
	DB	01aH
	DB	026H
	DB	05H
	DB	01H
	DB	07H
	DB	032H
	DB	00H
	DB	03H
	DB	050H
	DB	03aH
	DB	04dH
	DB	054H
	DB	04aH
	DB	054H
	DB	04dH
	DB	070H
	DB	045H
	DB	081H
	DB	081H
	DB	045H
	DB	045H
	DB	064H
	DB	05H
	DB	066H
	DB	049H
	DB	048H
	DB	010H
	DB	00H
	DB	0b0H
	DB	017H
	DB	06H
	DB	02dH
	DB	017H
	DB	028H
	DB	05H
	DB	0e3H
	DB	012H
	DB	02H
	DB	03H
	DB	06bH
	DB	03eH
	DB	04bH
	DB	08H
	DB	026H
	DB	032H
	DB	07H
	DB	021H
	DB	038H
	DB	0aH
	DB	08H
	DB	0aH
	DB	028H
	DB	017H
	DB	02dH
	DB	02dH
	DB	039H
	DB	032H
	DB	04bH
	DB	02eH
	DB	03aH
	DB	01H
	DB	03H
	DB	01aH
	DB	00H
	DB	00H
	DB	00H
	DB	00H
	DB	00H
	DB	00H
	DB	088H
	DB	011H
	DB	011H
	DB	011H
	DB	029H
	DB	08cH
	DB	09H
	DB	07eH
	DB	0fcH
	DB	0fcH
	DB	015H
	DB	015H
	DB	0a4H
	DB	0feH
	DB	0eH
	DB	0eH
	DB	0eH
	DB	0c0H
	DB	0c0H
	DB	0ffH
	DB	0ffH
	DB	0ffH
	DB	0ffH
	DB	0ffH
	DB	0ffH
	DB	0ffH
	DB	0ffH
	DB	0dH
	DB	0dH
	DB	0dH
	DB	0dH
	DB	0dH
	DB	0dH
	DB	0dH
	DB	0dH
	DB	0dH
	DB	0dH
	DB	0dH
	DB	0dH
	DB	0dH
	DB	0dH
	DB	0dH
	DB	013H
	DB	07eH
	DB	00H
	DB	06H
	DB	07fH
	DB	01H
	DB	00H
	DB	00H
	DB	00H
	DB	00H
	DB	00H
	DB	00H
	DB	00H
	DB	00H
	DB	00H
	DB	00H
	DB	00H
	DB	00H
	DB	00H
	DB	00H
	DB	00H
	DB	00H
	DB	00H
	DB	00H
	DB	00H
	DB	00H
	DB	00H
	DB	00H
	DB	00H
	DB	00H
	DB	00H
	DB	00H
	DB	00H
	DB	00H
	DB	00H
	DB	02H
	DB	00H
	DB	07fH
	DB	01cH
	DB	0adH
	DB	013H
	DB	013H
	DB	0c1H
	DB	0c1H
	DB	0c1H
	DB	0c1H
	DB	0c1H
	DB	0c1H
	DB	0c1H
	DB	0c1H
	DB	0c1H
	DB	0c1H
	DB	0c1H
	DB	0c1H
	DB	0c1H
	DB	0c1H
	DB	0c1H
	DB	0c1H
	DB	0c1H
	DB	0c1H
	DB	0c1H
	DB	0c1H
	DB	0c1H
	DB	0c1H
	DB	0c1H
	DB	0c1H
	DB	0c1H
	DB	0c1H
	DB	0c1H
	DB	0c1H
	DB	0c1H
	DB	0dH
	DB	0dH
	DB	0dH
	DB	0ffH
	DB	0c0H
	DB	0c0H
	DB	0eH
	DB	0eH
	DB	0feH
	DB	0a4H
	DB	015H
	DB	015H
	DB	015H
	DB	0feH
	DB	0acH
	DB	00H
	DB	00H
	DB	02H
	DB	09dH
	DB	012H
	DB	020H
	DB	01H
	DB	01aH
	DB	01aH
	DB	026H
	DB	08H
	DB	06H
	DB	02cH
	DB	02eH
	DB	018H
	DB	06H
	DB	017H
	DB	03dH
	DB	051H
	DB	080H
	DB	031H
	DB	02H
	DB	05H
	DB	01aH
	DB	02H
	DB	05H
	DB	06H
	DB	052H
	DB	07fH
	DB	016H
	DB	017H
	DB	02eH
	DB	051H
	DB	0c9H
	DB	01fH
	DB	035H
	DB	02cH
	DB	03eH
	DB	02eH
	DB	035H
	DB	018H
	DB	026H
	DB	05H
	DB	014H
	DB	08H
	DB	049H
	DB	08H
	DB	02dH
	DB	017H
	DB	016H
	DB	016H
	DB	016H
	DB	03eH
	DB	02cH
	DB	068H
	DB	02aH
	DB	02dH
	DB	049H
	DB	02cH
	DB	018H
	DB	00H
	DB	00H
	DB	047H
	DB	017H
	DB	02eH
	DB	0aH
	DB	07H
	DB	08H
	DB	017H
	DB	05fH
	DB	035H
	DB	016H
	DB	016H
	DB	02cH
	DB	017H
	DB	03aH
	DB	018H
	DB	02dH
	DB	018H
	DB	06H
	DB	018H
	DB	02cH
	DB	02cH
	DB	018H
	DB	02dH
	DB	018H
	DB	031H
	DB	06H
	DB	018H
	DB	02dH
	DB	08H
	DB	018H
	DB	02aH
	DB	02aH
	DB	018H
	DB	017H
	DB	018H
	DB	0aH
	DB	048H
	DB	05fH
	DB	02cH
	DB	050H
	DB	0aH
	DB	028H
	DB	018H
	DB	02H
	DB	03H
	DB	00H
	DB	04H
	DB	04H
	DB	03H
	DB	00H
	DB	019H
	DB	045H
	DB	070H
	DB	018H
	DB	018H
	DB	0aH
	DB	01fH
	DB	06H
	DB	02H
	DB	01H
	DB	047H
	DB	048H
	DB	08H
	DB	01fH
	DB	014H
	DB	020H
	DB	00H
	DB	00H
	DB	048H
	DB	03aH
	DB	02H
	DB	0bH
	DB	02H
	DB	02H
	DB	0aH
	DB	0aH
	DB	08H
	DB	014H
	DB	05H
	DB	0aH
	DB	0aH
	DB	05H
	DB	02H
	DB	0bH
	DB	032H
	DB	02H
	DB	05H
	DB	05H
	DB	04H
	DB	010H
	DB	0aeH
	DB	07H
	DB	07H
	DB	07H
	DB	020H
	DB	00H
	DB	00H
	DB	010H
	DB	00H
	DB	00H
	DB	01H
	DB	02H
	DB	01H
	DB	01H
	DB	0cH
	DB	0cH
	DB	01dH
	DB	020H
	DB	03H
	DB	00H
	DB	00H
	DB	00H
	DB	00H
	DB	00H
	DB	03H
	DB	01dH
	DB	03H
	DB	00H
	DB	00H
	DB	00H
	DB	00H
	DB	00H
	DB	00H
	DB	00H
	DB	00H
	DB	03H
	DB	03H
	DB	00H
	DB	00H
	DB	020H
	DB	020H
	DB	03H
	DB	00H
	DB	03H
	DB	030H
	DB	030H
	DB	00H
	DB	00H
	DB	03H
	DB	03H
	DB	00H
	DB	00H
	DB	00H
	DB	03H
	DB	00H
	DB	00H
	DB	03H
	DB	010H
	DB	00H
	DB	00H
	DB	03H
	DB	04H
	DB	00H
	DB	00H
	DB	03H
	DB	047H
	DB	01aH
	DB	03H
	DB	03H
	DB	030H
	DB	03H
	DB	00H
	DB	03H
	DB	0cH
	DB	010H
	DB	00H
	DB	03H
	DB	03H
	DB	025H
	DB	025H
	DB	063H
	DB	01dH
	DB	0aH
	DB	05H
	DB	04H
	DB	06eH
	DB	07H
	DB	07H
	DB	026H
	DB	0d9H
	DB	01aH
	DB	07H
	DB	04H
	DB	010H
	DB	030H
	DB	0aH
	DB	023H
	DB	07H
	DB	03H
	DB	030H
	DB	01aH
	DB	0aH
	DB	0aH
	DB	020H
	DB	03H
	DB	038H
	DB	06dH
	DB	0d8H
	DB	00H
	DB	025H
	DB	010H
	DB	00H
	DB	03H
	DB	00H
	DB	00H
	DB	00H
	DB	03H
	DB	03H
	DB	020H
	DB	05H
	DB	032H
	DB	03H
	DB	00H
	DB	030H
	DB	026H
	DB	06bH
	DB	01aH
	DB	01aH
	DB	043H
	DB	07H
	DB	04H
	DB	030H
	DB	026H
	DB	048H
	DB	01aH
	DB	04H
	DB	010H
	DB	00H
	DB	050H
	DB	022H
	DB	071H
	DB	0a0H
	DB	0a2H
	DB	054H
	DB	0a0H
	DB	0a0H
	DB	05bH
	DB	057H
	DB	044H
	DB	023H
	DB	05dH
	DB	0d8H
	DB	00H
	DB	03H
	DB	032H
	DB	049H
	DB	028H
	DB	010H
	DB	030H
	DB	0cfH
	DB	0e9H
	DB	02H
	DB	08H
	DB	06H
	DB	020H
	DB	03H
	DB	041H
	DB	080H
	DB	08H
	DB	01aH
	DB	0aH
	DB	0aH
	DB	0aH
	DB	026H
	DB	066H
	DB	026H
	DB	05H
	DB	07H
	DB	05H
	DB	049H
	DB	08H
	DB	06H
	DB	028H
	DB	02aH
	DB	050H
	DB	049H
	DB	08H
	DB	00H
	DB	010H
	DB	08H
	DB	017H
	DB	0aH
	DB	01H
	DB	00H
	DB	00H
	DB	00H
	DB	00H
	DB	00H
	DB	00H
	DB	016H
	DB	01eH
	DB	0adH
	DB	0adH
	DB	011H
	DB	011H
	DB	08cH
	DB	09H
	DB	09H
	DB	07eH
	DB	0fcH
	DB	015H
	DB	015H
	DB	015H
	DB	0a4H
	DB	0feH
	DB	0eH
	DB	0eH
	DB	0eH
	DB	0eH
	DB	0c0H
	DB	0c0H
	DB	0ffH
	DB	0ffH
	DB	0ffH
	DB	0ffH
	DB	0ffH
	DB	0ffH
	DB	0ffH
	DB	0ffH
	DB	0ffH
	DB	0ffH
	DB	0dH
	DB	0dH
	DB	0dH
	DB	0dH
	DB	0dH
	DB	0dH
	DB	0dH
	DB	0dH
	DB	0dH
	DB	0dH
	DB	0dH
	DB	013H
	DB	0eH
	DB	06H
	DB	00H
	DB	012H
	DB	022H
	DB	06H
	DB	02H
	DB	021H
	DB	021H
	DB	02H
	DB	02H
	DB	02H
	DB	02H
	DB	02H
	DB	02H
	DB	02H
	DB	02H
	DB	02H
	DB	02H
	DB	02H
	DB	02H
	DB	02H
	DB	02H
	DB	02H
	DB	02H
	DB	02H
	DB	02H
	DB	02H
	DB	02H
	DB	021H
	DB	02H
	DB	02H
	DB	021H
	DB	021H
	DB	02H
	DB	00H
	DB	01bH
	DB	055H
	DB	055H
	DB	013H
	DB	0c1H
	DB	0c1H
	DB	0c1H
	DB	0c1H
	DB	0c1H
	DB	0c1H
	DB	0c1H
	DB	0c1H
	DB	0c1H
	DB	0c1H
	DB	0c1H
	DB	0c1H
	DB	0c1H
	DB	0c1H
	DB	0c1H
	DB	0c1H
	DB	0c1H
	DB	0c1H
	DB	0c1H
	DB	0c1H
	DB	0c1H
	DB	0c1H
	DB	0c1H
	DB	0c1H
	DB	0c1H
	DB	0c1H
	DB	0c1H
	DB	0c1H
	DB	0c1H
	DB	0c1H
	DB	0dH
	DB	0dH
	DB	0dH
	DB	0dH
	DB	0ffH
	DB	0c0H
	DB	0eH
	DB	0eH
	DB	0eH
	DB	0feH
	DB	0a4H
	DB	015H
	DB	015H
	DB	015H
	DB	07eH
	DB	02aH
	DB	00H
	DB	00H
	DB	082H
	DB	0fH
	DB	021H
	DB	02aH
	DB	07fH
	DB	016H
	DB	018H
	DB	028H
	DB	018H
	DB	02cH
	DB	041H
	DB	017H
	DB	04bH
	DB	028H
	DB	0aaH
	DB	05dH
	DB	019H
	DB	019H
	DB	03dH
	DB	028H
	DB	014H
	DB	028H
	DB	014H
	DB	028H
	DB	07aH
	DB	080H
	DB	02eH
	DB	018H
	DB	018H
	DB	017H
	DB	017H
	DB	03aH
	DB	035H
	DB	016H
	DB	017H
	DB	017H
	DB	016H
	DB	016H
	DB	049H
	DB	04bH
	DB	028H
	DB	028H
	DB	028H
	DB	02dH
	DB	018H
	DB	016H
	DB	03aH
	DB	016H
	DB	02cH
	DB	017H
	DB	03eH
	DB	02cH
	DB	018H
	DB	017H
	DB	018H
	DB	02aH
	DB	02aH
	DB	021H
	DB	00H
	DB	010H
	DB	04bH
	DB	02eH
	DB	0aH
	DB	026H
	DB	08H
	DB	06H
	DB	017H
	DB	02cH
	DB	02cH
	DB	02cH
	DB	02cH
	DB	017H
	DB	017H
	DB	017H
	DB	017H
	DB	03eH
	DB	018H
	DB	06H
	DB	017H
	DB	017H
	DB	049H
	DB	08H
	DB	06H
	DB	02aH
	DB	08H
	DB	08H
	DB	08H
	DB	06H
	DB	06H
	DB	06H
	DB	018H
	DB	018H
	DB	018H
	DB	018H
	DB	017H
	DB	048H
	DB	0a8H
	DB	06aH
	DB	012H
	DB	041H
	DB	08H
	DB	098H
	DB	028H
	DB	031H
	DB	01fH
	DB	017H
	DB	03aH
	DB	031H
	DB	023H
	DB	00H
	DB	06cH
	DB	057H
	DB	02fH
	DB	06H
	DB	0aH
	DB	06H
	DB	02H
	DB	0aH
	DB	02H
	DB	07H
	DB	0bH
	DB	014H
	DB	0aH
	DB	02H
	DB	021H
	DB	00H
	DB	04H
	DB	017H
	DB	03aH
	DB	021H
	DB	0bH
	DB	0bH
	DB	05H
	DB	02H
	DB	05H
	DB	0aH
	DB	02H
	DB	07H
	DB	0ddH
	DB	02dH
	DB	026H
	DB	05H
	DB	05H
	DB	02H
	DB	02H
	DB	032H
	DB	0bH
	DB	04H
	DB	00H
	DB	04H
	DB	047H
	DB	01H
	DB	01H
	DB	020H
	DB	00H
	DB	00H
	DB	00H
	DB	010H
	DB	0cH
	DB	02H
	DB	0bH
	DB	01H
	DB	04H
	DB	01H
	DB	019H
	DB	019H
	DB	04H
	DB	04H
	DB	03H
	DB	00H
	DB	00H
	DB	00H
	DB	00H
	DB	00H
	DB	00H
	DB	00H
	DB	00H
	DB	00H
	DB	00H
	DB	00H
	DB	00H
	DB	00H
	DB	00H
	DB	00H
	DB	00H
	DB	03H
	DB	03H
	DB	00H
	DB	03H
	DB	03H
	DB	00H
	DB	00H
	DB	03H
	DB	03H
	DB	07H
	DB	04H
	DB	03H
	DB	03H
	DB	00H
	DB	00H
	DB	00H
	DB	00H
	DB	03H
	DB	03H
	DB	03H
	DB	010H
	DB	010H
	DB	00H
	DB	00H
	DB	00H
	DB	03H
	DB	025H
	DB	00H
	DB	00H
	DB	00H
	DB	00H
	DB	03H
	DB	030H
	DB	030H
	DB	03H
	DB	03H
	DB	089H
	DB	023H
	DB	04H
	DB	03H
	DB	03H
	DB	00H
	DB	03H
	DB	00H
	DB	03H
	DB	03H
	DB	043H
	DB	04H
	DB	03H
	DB	03H
	DB	030H
	DB	043H
	DB	026H
	DB	026H
	DB	038H
	DB	020H
	DB	00H
	DB	00H
	DB	030H
	DB	06H
	DB	01fH
	DB	07H
	DB	043H
	DB	01H
	DB	01aH
	DB	06bH
	DB	04H
	DB	00H
	DB	030H
	DB	02dH
	DB	098H
	DB	00H
	DB	03H
	DB	023H
	DB	0cH
	DB	00H
	DB	00H
	DB	00H
	DB	00H
	DB	03H
	DB	038H
	DB	053H
	DB	07H
	DB	04H
	DB	030H
	DB	030H
	DB	030H
	DB	07H
	DB	053H
	DB	038H
	DB	03H
	DB	03H
	DB	038H
	DB	0aH
	DB	043H
	DB	038H
	DB	0aH
	DB	047H
	DB	047H
	DB	04H
	DB	00H
	DB	00H
	DB	06fH
	DB	077H
	DB	091H
	DB	091H
	DB	0a1H
	DB	0a1H
	DB	0a1H
	DB	07bH
	DB	091H
	DB	0a0H
	DB	0a0H
	DB	054H
	DB	057H
	DB	010H
	DB	03H
	DB	01aH
	DB	01aH
	DB	017H
	DB	05fH
	DB	04H
	DB	07H
	DB	0e9H
	DB	05fH
	DB	07H
	DB	0bH
	DB	04H
	DB	04H
	DB	01aH
	DB	026H
	DB	0aH
	DB	0aH
	DB	06H
	DB	02H
	DB	043H
	DB	026H
	DB	026H
	DB	0aH
	DB	08H
	DB	039H
	DB	05H
	DB	04H
	DB	07H
	DB	0aH
	DB	014H
	DB	05H
	DB	021H
	DB	018H
	DB	049H
	DB	02aH
	DB	021H
	DB	01aH
	DB	06bH
	DB	08H
	DB	06H
	DB	0bH
	DB	00H
	DB	00H
	DB	00H
	DB	00H
	DB	00H
	DB	00H
	DB	09eH
	DB	0adH
	DB	055H
	DB	0adH
	DB	011H
	DB	011H
	DB	029H
	DB	075H
	DB	09H
	DB	07eH
	DB	0fcH
	DB	0fcH
	DB	015H
	DB	015H
	DB	015H
	DB	0a4H
	DB	0feH
	DB	0feH
	DB	0eH
	DB	0eH
	DB	0eH
	DB	0c0H
	DB	0c0H
	DB	0ffH
	DB	0ffH
	DB	0ffH
	DB	0ffH
	DB	0ffH
	DB	0ffH
	DB	0ffH
	DB	0ffH
	DB	0ffH
	DB	0ffH
	DB	0ffH
	DB	0dH
	DB	0dH
	DB	0dH
	DB	0dH
	DB	0dH
	DB	0dH
	DB	0dH
	DB	0dH
	DB	0dH
	DB	0dH
	DB	0c1H
	DB	05cH
	DB	00H
	DB	022H
	DB	012H
	DB	022H
	DB	06H
	DB	014H
	DB	014H
	DB	014H
	DB	014H
	DB	014H
	DB	014H
	DB	014H
	DB	014H
	DB	014H
	DB	014H
	DB	014H
	DB	014H
	DB	014H
	DB	014H
	DB	014H
	DB	014H
	DB	014H
	DB	014H
	DB	014H
	DB	014H
	DB	014H
	DB	014H
	DB	014H
	DB	014H
	DB	014H
	DB	02H
	DB	06H
	DB	01H
	DB	021H
	DB	024H
	DB	055H
	DB	015H
	DB	013H
	DB	0c1H
	DB	0c1H
	DB	0c1H
	DB	0c1H
	DB	0c1H
	DB	0c1H
	DB	0c1H
	DB	0c1H
	DB	0c1H
	DB	0c1H
	DB	0c1H
	DB	0c1H
	DB	0c1H
	DB	0c1H
	DB	0c1H
	DB	0c1H
	DB	0c1H
	DB	0c1H
	DB	0c1H
	DB	0c1H
	DB	0c1H
	DB	0c1H
	DB	0c1H
	DB	0c1H
	DB	0c1H
	DB	0c1H
	DB	0c1H
	DB	0c1H
	DB	0c1H
	DB	0c1H
	DB	0dH
	DB	0dH
	DB	0dH
	DB	0dH
	DB	0ffH
	DB	0c0H
	DB	0c0H
	DB	0eH
	DB	0eH
	DB	0feH
	DB	0a4H
	DB	015H
	DB	015H
	DB	015H
	DB	0a4H
	DB	027H
	DB	00H
	DB	00H
	DB	03aH
	DB	07cH
	DB	06H
	DB	041H
	DB	096H
	DB	080H
	DB	028H
	DB	018H
	DB	018H
	DB	02eH
	DB	046H
	DB	060H
	DB	098H
	DB	01H
	DB	02H
	DB	01H
	DB	00H
	DB	0cH
	DB	023H
	DB	019H
	DB	02H
	DB	028H
	DB	018H
	DB	06H
	DB	023H
	DB	06H
	DB	017H
	DB	018H
	DB	018H
	DB	08H
	DB	08H
	DB	017H
	DB	049H
	DB	04bH
	DB	08H
	DB	017H
	DB	018H
	DB	02dH
	DB	04bH
	DB	028H
	DB	0aH
	DB	014H
	DB	06H
	DB	08H
	DB	018H
	DB	016H
	DB	016H
	DB	05fH
	DB	016H
	DB	03eH
	DB	03eH
	DB	060H
	DB	060H
	DB	017H
	DB	018H
	DB	026H
	DB	039H
	DB	06H
	DB	043H
	DB	00H
	DB	010H
	DB	0ddH
	DB	017H
	DB	02cH
	DB	017H
	DB	018H
	DB	06H
	DB	06H
	DB	017H
	DB	017H
	DB	018H
	DB	018H
	DB	028H
	DB	018H
	DB	016H
	DB	02cH
	DB	018H
	DB	08H
	DB	08H
	DB	014H
	DB	08H
	DB	02dH
	DB	08H
	DB	08H
	DB	06H
	DB	06H
	DB	01H
	DB	05H
	DB	08H
	DB	06H
	DB	06H
	DB	06H
	DB	06H
	DB	017H
	DB	06H
	DB	01H
	DB	048H
	DB	080H
	DB	05aH
	DB	012H
	DB	031H
	DB	04H
	DB	0bH
	DB	02H
	DB	0aH
	DB	028H
	DB	016H
	DB	02fH
	DB	031H
	DB	025H
	DB	00H
	DB	044H
	DB	031H
	DB	01H
	DB	0bH
	DB	08H
	DB	08H
	DB	08H
	DB	08H
	DB	07H
	DB	019H
	DB	014H
	DB	0aH
	DB	0aH
	DB	02aH
	DB	0aH
	DB	06H
	DB	03aH
	DB	02H
	DB	0bH
	DB	0cH
	DB	076H
	DB	01dH
	DB	07H
	DB	05H
	DB	02H
	DB	01H
	DB	03H
	DB	0a5H
	DB	048H
	DB	07H
	DB	047H
	DB	05H
	DB	02H
	DB	02H
	DB	048H
	DB	01H
	DB	04H
	DB	04H
	DB	03H
	DB	04H
	DB	07H
	DB	04H
	DB	010H
	DB	010H
	DB	00H
	DB	00H
	DB	010H
	DB	098H
	DB	01H
	DB	010H
	DB	010H
	DB	04H
	DB	010H
	DB	00H
	DB	010H
	DB	047H
	DB	01H
	DB	010H
	DB	00H
	DB	00H
	DB	00H
	DB	00H
	DB	00H
	DB	00H
	DB	00H
	DB	00H
	DB	00H
	DB	00H
	DB	00H
	DB	00H
	DB	00H
	DB	00H
	DB	00H
	DB	00H
	DB	00H
	DB	00H
	DB	00H
	DB	00H
	DB	03H
	DB	03H
	DB	03H
	DB	03H
	DB	03H
	DB	030H
	DB	01aH
	DB	03H
	DB	00H
	DB	00H
	DB	00H
	DB	00H
	DB	00H
	DB	03H
	DB	03H
	DB	03H
	DB	00H
	DB	00H
	DB	00H
	DB	00H
	DB	00H
	DB	03H
	DB	01dH
	DB	076H
	DB	063H
	DB	00H
	DB	00H
	DB	00H
	DB	00H
	DB	00H
	DB	03H
	DB	01aH
	DB	0cH
	DB	01H
	DB	043H
	DB	01aH
	DB	030H
	DB	04H
	DB	05H
	DB	07H
	DB	03H
	DB	030H
	DB	03H
	DB	03H
	DB	01aH
	DB	043H
	DB	01aH
	DB	06bH
	DB	039H
	DB	0aH
	DB	07H
	DB	03H
	DB	03H
	DB	043H
	DB	053H
	DB	0aH
	DB	02H
	DB	021H
	DB	07H
	DB	05H
	DB	05H
	DB	010H
	DB	00H
	DB	03H
	DB	03H
	DB	05H
	DB	010H
	DB	00H
	DB	010H
	DB	0cH
	DB	01fH
	DB	023H
	DB	025H
	DB	00H
	DB	030H
	DB	053H
	DB	05H
	DB	07H
	DB	01aH
	DB	01aH
	DB	04H
	DB	01aH
	DB	06eH
	DB	026H
	DB	026H
	DB	026H
	DB	038H
	DB	038H
	DB	02aH
	DB	023H
	DB	053H
	DB	0aH
	DB	02H
	DB	04H
	DB	03H
	DB	01aH
	DB	03H
	DB	00H
	DB	02dH
	DB	077H
	DB	07bH
	DB	0a1H
	DB	0a1H
	DB	061H
	DB	061H
	DB	0a1H
	DB	0a1H
	DB	0a1H
	DB	091H
	DB	091H
	DB	057H
	DB	00H
	DB	03H
	DB	06eH
	DB	07H
	DB	04bH
	DB	048H
	DB	00H
	DB	010H
	DB	06cH
	DB	01H
	DB	031H
	DB	044H
	DB	01H
	DB	01aH
	DB	04H
	DB	03H
	DB	01aH
	DB	026H
	DB	06H
	DB	02H
	DB	07H
	DB	07H
	DB	07H
	DB	0aH
	DB	08H
	DB	02dH
	DB	05H
	DB	04H
	DB	03H
	DB	05H
	DB	07H
	DB	0bH
	DB	014H
	DB	0aH
	DB	06H
	DB	05bH
	DB	028H
	DB	026H
	DB	0d9H
	DB	05H
	DB	019H
	DB	010H
	DB	00H
	DB	00H
	DB	00H
	DB	00H
	DB	00H
	DB	014H
	DB	067H
	DB	055H
	DB	055H
	DB	0adH
	DB	011H
	DB	011H
	DB	029H
	DB	08cH
	DB	09H
	DB	09H
	DB	07eH
	DB	0fcH
	DB	0fcH
	DB	015H
	DB	015H
	DB	015H
	DB	0a4H
	DB	0a4H
	DB	0feH
	DB	0eH
	DB	0eH
	DB	0eH
	DB	0eH
	DB	0c0H
	DB	0c0H
	DB	0c0H
	DB	0ffH
	DB	0ffH
	DB	0ffH
	DB	0ffH
	DB	0ffH
	DB	0ffH
	DB	0ffH
	DB	0ffH
	DB	0ffH
	DB	0ffH
	DB	0ffH
	DB	0dH
	DB	0dH
	DB	0dH
	DB	0dH
	DB	0dH
	DB	0dH
	DB	0dH
	DB	013H
	DB	0feH
	DB	021H
	DB	01H
	DB	012H
	DB	07fH
	DB	03aH
	DB	014H
	DB	02H
	DB	02H
	DB	02H
	DB	02H
	DB	02H
	DB	02H
	DB	02H
	DB	02H
	DB	02H
	DB	02H
	DB	02H
	DB	02H
	DB	02H
	DB	02H
	DB	02H
	DB	02H
	DB	02H
	DB	02H
	DB	02H
	DB	02H
	DB	02H
	DB	02H
	DB	02H
	DB	02H
	DB	02H
	DB	02H
	DB	00H
	DB	087H
	DB	01eH
	DB	05cH
	DB	013H
	DB	0c1H
	DB	0c1H
	DB	0c1H
	DB	0c1H
	DB	0c1H
	DB	0c1H
	DB	0c1H
	DB	0c1H
	DB	0c1H
	DB	0c1H
	DB	0c1H
	DB	0c1H
	DB	0c1H
	DB	0c1H
	DB	0c1H
	DB	0c1H
	DB	0c1H
	DB	0c1H
	DB	0c1H
	DB	0c1H
	DB	0c1H
	DB	0c1H
	DB	0c1H
	DB	0c1H
	DB	0c1H
	DB	0c1H
	DB	0c1H
	DB	0c1H
	DB	0c1H
	DB	0c1H
	DB	0dH
	DB	0dH
	DB	0dH
	DB	0dH
	DB	0dH
	DB	0ffH
	DB	0ffH
	DB	0c0H
	DB	0eH
	DB	0eH
	DB	0feH
	DB	0a4H
	DB	015H
	DB	015H
	DB	015H
	DB	0a4H
	DB	01eH
	DB	020H
	DB	00H
	DB	01H
	DB	0fH
	DB	022H
	DB	035H
	DB	0e9H
	DB	02fH
	DB	01fH
	DB	06H
	DB	023H
	DB	060H
	DB	046H
	DB	0a8H
	DB	01H
	DB	04H
	DB	06H
	DB	017H
	DB	014H
	DB	014H
	DB	019H
	DB	03H
	DB	07H
	DB	06H
	DB	016H
	DB	06H
	DB	07H
	DB	05H
	DB	06H
	DB	017H
	DB	017H
	DB	06H
	DB	06H
	DB	018H
	DB	08H
	DB	048H
	DB	08H
	DB	049H
	DB	049H
	DB	02dH
	DB	05H
	DB	0aH
	DB	08H
	DB	021H
	DB	0aH
	DB	06H
	DB	018H
	DB	017H
	DB	05fH
	DB	017H
	DB	018H
	DB	049H
	DB	049H
	DB	017H
	DB	017H
	DB	02dH
	DB	08H
	DB	08H
	DB	039H
	DB	0aH
	DB	02H
	DB	020H
	DB	00H
	DB	00H
	DB	04bH
	DB	095H
	DB	028H
	DB	014H
	DB	014H
	DB	06H
	DB	018H
	DB	06H
	DB	06H
	DB	018H
	DB	018H
	DB	018H
	DB	017H
	DB	017H
	DB	018H
	DB	0aH
	DB	03H
	DB	020H
	DB	06H
	DB	017H
	DB	018H
	DB	08H
	DB	0aH
	DB	08H
	DB	0aH
	DB	08H
	DB	018H
	DB	06H
	DB	06H
	DB	06H
	DB	06H
	DB	014H
	DB	02H
	DB	07H
	DB	032H
	DB	0a8H
	DB	080H
	DB	077H
	DB	03dH
	DB	02H
	DB	021H
	DB	07H
	DB	05H
	DB	06H
	DB	0aH
	DB	021H
	DB	089H
	DB	020H
	DB	00H
	DB	06cH
	DB	044H
	DB	0cH
	DB	014H
	DB	06H
	DB	01fH
	DB	014H
	DB	08H
	DB	05H
	DB	0bH
	DB	08H
	DB	08H
	DB	08H
	DB	06H
	DB	06H
	DB	06H
	DB	023H
	DB	021H
	DB	01H
	DB	03fH
	DB	076H
	DB	0cH
	DB	04H
	DB	04H
	DB	07H
	DB	04H
	DB	047H
	DB	07H
	DB	04H
	DB	04H
	DB	04H
	DB	05H
	DB	05H
	DB	05H
	DB	02H
	DB	04H
	DB	01aH
	DB	01H
	DB	03H
	DB	04H
	DB	07H
	DB	04H
	DB	010H
	DB	00H
	DB	00H
	DB	00H
	DB	0bH
	DB	04H
	DB	00H
	DB	00H
	DB	010H
	DB	010H
	DB	00H
	DB	010H
	DB	04H
	DB	047H
	DB	01H
	DB	019H
	DB	00H
	DB	00H
	DB	00H
	DB	00H
	DB	00H
	DB	00H
	DB	00H
	DB	00H
	DB	00H
	DB	00H
	DB	00H
	DB	00H
	DB	00H
	DB	00H
	DB	00H
	DB	00H
	DB	00H
	DB	00H
	DB	00H
	DB	03H
	DB	00H
	DB	00H
	DB	00H
	DB	03H
	DB	00H
	DB	030H
	DB	04H
	DB	03H
	DB	00H
	DB	00H
	DB	00H
	DB	03H
	DB	03H
	DB	00H
	DB	00H
	DB	03H
	DB	03H
	DB	03H
	DB	043H
	DB	07H
	DB	03H
	DB	03H
	DB	03H
	DB	03fH
	DB	01H
	DB	03H
	DB	03H
	DB	03H
	DB	04H
	DB	010H
	DB	00H
	DB	01aH
	DB	07H
	DB	030H
	DB	07H
	DB	07H
	DB	043H
	DB	05H
	DB	02H
	DB	021H
	DB	03H
	DB	03H
	DB	030H
	DB	03H
	DB	01aH
	DB	07H
	DB	01aH
	DB	047H
	DB	047H
	DB	01H
	DB	07H
	DB	026H
	DB	026H
	DB	05H
	DB	01H
	DB	030H
	DB	04H
	DB	01H
	DB	021H
	DB	0aH
	DB	01H
	DB	00H
	DB	03H
	DB	06eH
	DB	03H
	DB	03H
	DB	00H
	DB	00H
	DB	03H
	DB	00H
	DB	00H
	DB	01H
	DB	00H
	DB	03H
	DB	021H
	DB	02H
	DB	04H
	DB	03H
	DB	01aH
	DB	06bH
	DB	01aH
	DB	03H
	DB	03H
	DB	01aH
	DB	01aH
	DB	026H
	DB	02dH
	DB	02dH
	DB	06H
	DB	021H
	DB	0aH
	DB	08H
	DB	01H
	DB	01H
	DB	01aH
	DB	05H
	DB	05H
	DB	01aH
	DB	026H
	DB	04dH
	DB	091H
	DB	0bcH
	DB	061H
	DB	061H
	DB	061H
	DB	061H
	DB	061H
	DB	0a1H
	DB	0a1H
	DB	099H
	DB	044H
	DB	025H
	DB	03H
	DB	06bH
	DB	026H
	DB	047H
	DB	00H
	DB	03H
	DB	04H
	DB	00H
	DB	07H
	DB	05bH
	DB	044H
	DB	02H
	DB	07H
	DB	00H
	DB	01H
	DB	07H
	DB	05H
	DB	08H
	DB	07H
	DB	01H
	DB	01aH
	DB	01aH
	DB	07H
	DB	0aH
	DB	018H
	DB	0aH
	DB	02H
	DB	026H
	DB	026H
	DB	07H
	DB	01H
	DB	05H
	DB	05H
	DB	014H
	DB	044H
	DB	014H
	DB	047H
	DB	05H
	DB	014H
	DB	00H
	DB	00H
	DB	00H
	DB	00H
	DB	00H
	DB	00H
	DB	00H
	DB	082H
	DB	01eH
	DB	01eH
	DB	01eH
	DB	055H
	DB	0adH
	DB	011H
	DB	011H
	DB	029H
	DB	075H
	DB	09H
	DB	09H
	DB	07eH
	DB	07eH
	DB	0fcH
	DB	015H
	DB	015H
	DB	015H
	DB	015H
	DB	0a4H
	DB	0a4H
	DB	0feH
	DB	0eH
	DB	0eH
	DB	0eH
	DB	0eH
	DB	0c0H
	DB	0c0H
	DB	0c0H
	DB	0c0H
	DB	0c0H
	DB	0c0H
	DB	0ffH
	DB	0ffH
	DB	0ffH
	DB	0ffH
	DB	0ffH
	DB	0ffH
	DB	0ffH
	DB	0ffH
	DB	0ffH
	DB	0ffH
	DB	0dH
	DB	0dH
	DB	0dH
	DB	0c1H
	DB	0dH
	DB	05cH
	DB	00H
	DB	05eH
	DB	07fH
	DB	022H
	DB	06H
	DB	014H
	DB	02H
	DB	02H
	DB	02H
	DB	02H
	DB	02H
	DB	02H
	DB	02H
	DB	02H
	DB	02H
	DB	02H
	DB	02H
	DB	02H
	DB	02H
	DB	02H
	DB	02H
	DB	02H
	DB	02H
	DB	02H
	DB	02H
	DB	02H
	DB	02H
	DB	02H
	DB	02H
	DB	06H
	DB	01H
	DB	01H
	DB	01cH
	DB	067H
	DB	0adH
	DB	013H
	DB	0c1H
	DB	0c1H
	DB	0c1H
	DB	0c1H
	DB	0c1H
	DB	0c1H
	DB	0c1H
	DB	0c1H
	DB	0c1H
	DB	0c1H
	DB	0c1H
	DB	0c1H
	DB	0c1H
	DB	0c1H
	DB	0c1H
	DB	0c1H
	DB	0c1H
	DB	0c1H
	DB	0c1H
	DB	0c1H
	DB	0c1H
	DB	0c1H
	DB	0c1H
	DB	0c1H
	DB	0c1H
	DB	0c1H
	DB	0c1H
	DB	0c1H
	DB	0dH
	DB	0dH
	DB	0dH
	DB	0dH
	DB	0dH
	DB	0dH
	DB	0dH
	DB	0dH
	DB	0ffH
	DB	0c0H
	DB	0eH
	DB	0eH
	DB	0eH
	DB	0feH
	DB	0a4H
	DB	015H
	DB	015H
	DB	015H
	DB	0a4H
	DB	012H
	DB	00H
	DB	00H
	DB	07fH
	DB	082H
	DB	05H
	DB	014H
	DB	021H
	DB	06H
	DB	01fH
	DB	02aH
	DB	017H
	DB	06H
	DB	02H
	DB	0bH
	DB	048H
	DB	028H
	DB	017H
	DB	0bH
	DB	0bH
	DB	02H
	DB	021H
	DB	05H
	DB	014H
	DB	014H
	DB	048H
	DB	08H
	DB	028H
	DB	016H
	DB	028H
	DB	04bH
	DB	08H
	DB	06H
	DB	06H
	DB	08H
	DB	08H
	DB	08H
	DB	08H
	DB	08H
	DB	01fH
	DB	02aH
	DB	03aH
	DB	016H
	DB	018H
	DB	018H
	DB	08H
	DB	02H
	DB	039H
	DB	08H
	DB	02dH
	DB	02dH
	DB	08H
	DB	06H
	DB	018H
	DB	02dH
	DB	02dH
	DB	026H
	DB	07H
	DB	05H
	DB	048H
	DB	05H
	DB	01H
	DB	00H
	DB	00H
	DB	0aeH
	DB	014H
	DB	04H
	DB	00H
	DB	0bH
	DB	017H
	DB	0aH
	DB	01H
	DB	014H
	DB	03aH
	DB	018H
	DB	016H
	DB	06H
	DB	014H
	DB	08H
	DB	018H
	DB	02H
	DB	0aH
	DB	03aH
	DB	02cH
	DB	017H
	DB	08H
	DB	026H
	DB	0aH
	DB	06H
	DB	028H
	DB	017H
	DB	028H
	DB	06H
	DB	06H
	DB	06H
	DB	07H
	DB	05H
	DB	08H
	DB	0aH
	DB	08fH
	DB	02fH
	DB	02fH
	DB	06H
	DB	01fH
	DB	02aH
	DB	0aH
	DB	0aH
	DB	06H
	DB	02H
	DB	02aH
	DB	068H
	DB	053H
	DB	020H
	DB	00H
	DB	06cH
	DB	057H
	DB	02fH
	DB	031H
	DB	023H
	DB	0aH
	DB	02H
	DB	0aH
	DB	08H
	DB	02H
	DB	02H
	DB	014H
	DB	05H
	DB	02H
	DB	08H
	DB	014H
	DB	021H
	DB	01H
	DB	01H
	DB	01dH
	DB	0bH
	DB	0bH
	DB	07H
	DB	0bH
	DB	05H
	DB	02H
	DB	02H
	DB	07H
	DB	04H
	DB	047H
	DB	05H
	DB	05H
	DB	01H
	DB	01H
	DB	01H
	DB	04H
	DB	010H
	DB	01H
	DB	01H
	DB	019H
	DB	010H
	DB	010H
	DB	00H
	DB	00H
	DB	0bH
	DB	0bH
	DB	03H
	DB	00H
	DB	04H
	DB	04H
	DB	00H
	DB	010H
	DB	01H
	DB	01H
	DB	04H
	DB	04H
	DB	01H
	DB	00H
	DB	00H
	DB	00H
	DB	00H
	DB	00H
	DB	00H
	DB	00H
	DB	00H
	DB	00H
	DB	00H
	DB	00H
	DB	00H
	DB	00H
	DB	00H
	DB	00H
	DB	00H
	DB	00H
	DB	03H
	DB	00H
	DB	00H
	DB	03H
	DB	00H
	DB	00H
	DB	00H
	DB	03H
	DB	04H
	DB	010H
	DB	00H
	DB	00H
	DB	00H
	DB	03H
	DB	00H
	DB	00H
	DB	03H
	DB	00H
	DB	03H
	DB	030H
	DB	043H
	DB	04H
	DB	04H
	DB	03H
	DB	030H
	DB	03H
	DB	00H
	DB	00H
	DB	00H
	DB	00H
	DB	04H
	DB	047H
	DB	00H
	DB	00H
	DB	01aH
	DB	038H
	DB	07H
	DB	07H
	DB	07H
	DB	07H
	DB	01aH
	DB	043H
	DB	021H
	DB	020H
	DB	01aH
	DB	032H
	DB	04H
	DB	020H
	DB	026H
	DB	05H
	DB	01aH
	DB	03H
	DB	00H
	DB	03H
	DB	04H
	DB	01aH
	DB	010H
	DB	00H
	DB	03H
	DB	00H
	DB	00H
	DB	020H
	DB	023H
	DB	019H
	DB	00H
	DB	04H
	DB	01aH
	DB	01aH
	DB	03H
	DB	00H
	DB	00H
	DB	00H
	DB	00H
	DB	00H
	DB	03H
	DB	00H
	DB	020H
	DB	0aH
	DB	04H
	DB	00H
	DB	00H
	DB	00H
	DB	01aH
	DB	01aH
	DB	00H
	DB	00H
	DB	04H
	DB	04H
	DB	03H
	DB	010H
	DB	05H
	DB	05H
	DB	020H
	DB	04H
	DB	05H
	DB	04H
	DB	01H
	DB	01H
	DB	0cH
	DB	010H
	DB	01aH
	DB	032H
	DB	04H
	DB	06H
	DB	04aH
	DB	054H
	DB	054H
	DB	070H
	DB	045H
	DB	045H
	DB	099H
	DB	099H
	DB	070H
	DB	0cH
	DB	00H
	DB	04H
	DB	01aH
	DB	07H
	DB	026H
	DB	00H
	DB	00H
	DB	038H
	DB	07H
	DB	05H
	DB	02H
	DB	01H
	DB	043H
	DB	07H
	DB	05H
	DB	0aH
	DB	02H
	DB	05H
	DB	02H
	DB	01H
	DB	05H
	DB	0aH
	DB	07H
	DB	020H
	DB	05H
	DB	014H
	DB	02H
	DB	018H
	DB	018H
	DB	0aH
	DB	026H
	DB	026H
	DB	039H
	DB	026H
	DB	05H
	DB	07H
	DB	021H
	DB	04H
	DB	08H
	DB	028H
	DB	00H
	DB	00H
	DB	00H
	DB	00H
	DB	00H
	DB	00H
	DB	00H
	DB	0acH
	DB	01eH
	DB	01eH
	DB	01eH
	DB	055H
	DB	0adH
	DB	011H
	DB	011H
	DB	011H
	DB	0fbH
	DB	075H
	DB	09H
	DB	09H
	DB	07eH
	DB	07eH
	DB	0fcH
	DB	0fcH
	DB	015H
	DB	015H
	DB	015H
	DB	0a4H
	DB	0a4H
	DB	0a4H
	DB	0feH
	DB	0eH
	DB	0eH
	DB	0eH
	DB	0c0H
	DB	0c0H
	DB	0c0H
	DB	0c0H
	DB	0c0H
	DB	0c0H
	DB	0ffH
	DB	0ffH
	DB	0ffH
	DB	0ffH
	DB	0ffH
	DB	0ffH
	DB	0ffH
	DB	0ffH
	DB	0ffH
	DB	0ffH
	DB	0ffH
	DB	0dH
	DB	0dH
	DB	0c1H
	DB	0feH
	DB	022H
	DB	00H
	DB	052H
	DB	07fH
	DB	05eH
	DB	06H
	DB	02H
	DB	02H
	DB	02H
	DB	02H
	DB	02H
	DB	02H
	DB	02H
	DB	02H
	DB	02H
	DB	02H
	DB	02H
	DB	02H
	DB	02H
	DB	02H
	DB	02H
	DB	02H
	DB	02H
	DB	02H
	DB	02H
	DB	02H
	DB	02H
	DB	02H
	DB	014H
	DB	02H
	DB	00H
	DB	088H
	DB	055H
	DB	087H
	DB	0dH
	DB	0c1H
	DB	0c1H
	DB	0c1H
	DB	0c1H
	DB	0c1H
	DB	0c1H
	DB	0c1H
	DB	0c1H
	DB	0c1H
	DB	0c1H
	DB	0c1H
	DB	0c1H
	DB	0c1H
	DB	0c1H
	DB	0c1H
	DB	0c1H
	DB	0c1H
	DB	0c1H
	DB	0c1H
	DB	0c1H
	DB	0c1H
	DB	0c1H
	DB	0c1H
	DB	0c1H
	DB	0c1H
	DB	0c1H
	DB	0dH
	DB	0dH
	DB	0dH
	DB	0dH
	DB	0dH
	DB	0dH
	DB	0dH
	DB	0dH
	DB	0dH
	DB	0dH
	DB	0dH
	DB	0ffH
	DB	0c0H
	DB	0eH
	DB	0eH
	DB	0eH
	DB	0feH
	DB	0a4H
	DB	015H
	DB	015H
	DB	015H
	DB	0fdH
	DB	01cH
	DB	00H
	DB	00H
	DB	06H
	DB	0a3H
	DB	014H
	DB	02H
	DB	02aH
	DB	016H
	DB	018H
	DB	018H
	DB	018H
	DB	02H
	DB	0cH
	DB	023H
	DB	01fH
	DB	02H
	DB	07H
	DB	0bH
	DB	023H
	DB	0cH
	DB	021H
	DB	0aH
	DB	026H
	DB	047H
	DB	05H
	DB	06H
	DB	02fH
	DB	028H
	DB	06H
	DB	06H
	DB	014H
	DB	08H
	DB	06H
	DB	08H
	DB	04bH
	DB	02dH
	DB	018H
	DB	0aH
	DB	0bH
	DB	028H
	DB	02cH
	DB	016H
	DB	018H
	DB	028H
	DB	018H
	DB	0aH
	DB	05H
	DB	048H
	DB	08H
	DB	018H
	DB	018H
	DB	06H
	DB	06H
	DB	06H
	DB	06H
	DB	0aH
	DB	0aH
	DB	02H
	DB	047H
	DB	05H
	DB	05H
	DB	05H
	DB	03H
	DB	00H
	DB	010H
	DB	07H
	DB	010H
	DB	010H
	DB	014H
	DB	02H
	DB	01dH
	DB	014H
	DB	06H
	DB	018H
	DB	0aH
	DB	02H
	DB	08H
	DB	028H
	DB	028H
	DB	017H
	DB	017H
	DB	017H
	DB	016H
	DB	03aH
	DB	08H
	DB	08H
	DB	06H
	DB	08H
	DB	06H
	DB	018H
	DB	04bH
	DB	08H
	DB	06H
	DB	03aH
	DB	0aH
	DB	05H
	DB	014H
	DB	08H
	DB	08H
	DB	014H
	DB	014H
	DB	02H
	DB	014H
	DB	06H
	DB	06H
	DB	06H
	DB	08H
	DB	0aH
	DB	06H
	DB	06H
	DB	02H
	DB	07H
	DB	00H
	DB	00H
	DB	0a7H
	DB	0c9H
	DB	02aH
	DB	06H
	DB	02aH
	DB	02H
	DB	02aH
	DB	06H
	DB	02H
	DB	02H
	DB	02H
	DB	04H
	DB	07H
	DB	05H
	DB	02H
	DB	021H
	DB	07H
	DB	05H
	DB	0bH
	DB	0bH
	DB	021H
	DB	0bH
	DB	01H
	DB	0bH
	DB	02H
	DB	021H
	DB	019H
	DB	010H
	DB	010H
	DB	0bH
	DB	02H
	DB	07H
	DB	07H
	DB	021H
	DB	010H
	DB	0aeH
	DB	0bH
	DB	019H
	DB	01H
	DB	01H
	DB	00H
	DB	00H
	DB	04H
	DB	01H
	DB	020H
	DB	020H
	DB	04H
	DB	04H
	DB	03H
	DB	00H
	DB	00H
	DB	010H
	DB	01H
	DB	04H
	DB	019H
	DB	04H
	DB	00H
	DB	00H
	DB	00H
	DB	00H
	DB	00H
	DB	00H
	DB	00H
	DB	00H
	DB	00H
	DB	00H
	DB	00H
	DB	00H
	DB	00H
	DB	00H
	DB	00H
	DB	00H
	DB	00H
	DB	00H
	DB	00H
	DB	00H
	DB	00H
	DB	03H
	DB	00H
	DB	00H
	DB	00H
	DB	03H
	DB	00H
	DB	00H
	DB	00H
	DB	00H
	DB	03H
	DB	03H
	DB	00H
	DB	03H
	DB	03H
	DB	03H
	DB	03H
	DB	03H
	DB	03H
	DB	03H
	DB	03H
	DB	04H
	DB	03H
	DB	03H
	DB	00H
	DB	00H
	DB	00H
	DB	00H
	DB	03H
	DB	03H
	DB	043H
	DB	02H
	DB	01H
	DB	03H
	DB	04H
	DB	01H
	DB	010H
	DB	00H
	DB	03H
	DB	04H
	DB	03H
	DB	03H
	DB	04H
	DB	01H
	DB	043H
	DB	05H
	DB	032H
	DB	01aH
	DB	04H
	DB	00H
	DB	03H
	DB	00H
	DB	03H
	DB	04H
	DB	04H
	DB	03H
	DB	03H
	DB	00H
	DB	00H
	DB	020H
	DB	03H
	DB	03H
	DB	03H
	DB	04H
	DB	03H
	DB	03H
	DB	00H
	DB	00H
	DB	03H
	DB	03H
	DB	020H
	DB	019H
	DB	01dH
	DB	02H
	DB	08H
	DB	05H
	DB	01aH
	DB	03H
	DB	00H
	DB	03H
	DB	04H
	DB	00H
	DB	00H
	DB	04H
	DB	04H
	DB	00H
	DB	00H
	DB	00H
	DB	01H
	DB	03H
	DB	00H
	DB	021H
	DB	07H
	DB	03H
	DB	00H
	DB	00H
	DB	00H
	DB	02dH
	DB	048H
	DB	03H
	DB	030H
	DB	014H
	DB	04dH
	DB	05bH
	DB	04dH
	DB	084H
	DB	01fH
	DB	044H
	DB	057H
	DB	057H
	DB	06cH
	DB	00H
	DB	043H
	DB	02H
	DB	021H
	DB	0aH
	DB	01H
	DB	04H
	DB	05H
	DB	0aH
	DB	026H
	DB	032H
	DB	01aH
	DB	07H
	DB	0aH
	DB	017H
	DB	017H
	DB	0aH
	DB	05H
	DB	07H
	DB	05H
	DB	05H
	DB	02H
	DB	01dH
	DB	020H
	DB	07H
	DB	043H
	DB	07H
	DB	08H
	DB	018H
	DB	0aH
	DB	08H
	DB	018H
	DB	08H
	DB	05H
	DB	0aH
	DB	08H
	DB	0aH
	DB	02H
	DB	08H
	DB	0bH
	DB	00H
	DB	00H
	DB	00H
	DB	00H
	DB	00H
	DB	00H
	DB	02aH
	DB	067H
	DB	0faH
	DB	08eH
	DB	01eH
	DB	01eH
	DB	055H
	DB	0adH
	DB	011H
	DB	011H
	DB	029H
	DB	0fbH
	DB	09H
	DB	09H
	DB	09H
	DB	07eH
	DB	07eH
	DB	0fcH
	DB	0fcH
	DB	0fcH
	DB	015H
	DB	015H
	DB	015H
	DB	0a4H
	DB	0a4H
	DB	0feH
	DB	0feH
	DB	0eH
	DB	0eH
	DB	0eH
	DB	0c0H
	DB	0c0H
	DB	0c0H
	DB	0c0H
	DB	0c0H
	DB	0c0H
	DB	0c0H
	DB	0c0H
	DB	0c0H
	DB	0ffH
	DB	0ffH
	DB	0ffH
	DB	0ffH
	DB	0ffH
	DB	0ffH
	DB	0ffH
	DB	0ffH
	DB	0dH
	DB	0dH
	DB	09H
	DB	00H
	DB	01H
	DB	07fH
	DB	052H
	DB	016H
	DB	06H
	DB	014H
	DB	02H
	DB	02H
	DB	02H
	DB	02H
	DB	02H
	DB	02H
	DB	02H
	DB	02H
	DB	02H
	DB	02H
	DB	02H
	DB	02H
	DB	02H
	DB	02H
	DB	02H
	DB	02H
	DB	02H
	DB	02H
	DB	02H
	DB	014H
	DB	02aH
	DB	00H
	DB	0fH
	DB	075H
	DB	01bH
	DB	0adH
	DB	013H
	DB	0c1H
	DB	0c1H
	DB	0c1H
	DB	0c1H
	DB	0c1H
	DB	0c1H
	DB	0c1H
	DB	0c1H
	DB	0c1H
	DB	0c1H
	DB	0c1H
	DB	0c1H
	DB	0c1H
	DB	0c1H
	DB	0c1H
	DB	0c1H
	DB	0c1H
	DB	0c1H
	DB	0c1H
	DB	0c1H
	DB	0dH
	DB	0dH
	DB	0dH
	DB	0dH
	DB	0dH
	DB	0dH
	DB	0dH
	DB	0dH
	DB	0dH
	DB	0dH
	DB	0dH
	DB	0dH
	DB	0dH
	DB	0dH
	DB	0dH
	DB	0dH
	DB	0dH
	DB	0ffH
	DB	0c0H
	DB	0c0H
	DB	0eH
	DB	0eH
	DB	0feH
	DB	0a4H
	DB	0a4H
	DB	015H
	DB	015H
	DB	015H
	DB	0fbH
	DB	0bH
	DB	00H
	DB	010H
	DB	082H
	DB	016H
	DB	05H
	DB	016H
	DB	035H
	DB	017H
	DB	018H
	DB	028H
	DB	01fH
	DB	0bH
	DB	023H
	DB	070H
	DB	0cH
	DB	020H
	DB	01H
	DB	0cH
	DB	02H
	DB	02H
	DB	08H
	DB	06H
	DB	0aH
	DB	014H
	DB	06H
	DB	08H
	DB	08H
	DB	06H
	DB	028H
	DB	06H
	DB	06H
	DB	06H
	DB	08H
	DB	04bH
	DB	018H
	DB	06H
	DB	06H
	DB	05H
	DB	014H
	DB	03aH
	DB	03aH
	DB	02aH
	DB	06H
	DB	08H
	DB	026H
	DB	05H
	DB	06bH
	DB	05H
	DB	026H
	DB	06H
	DB	048H
	DB	0bH
	DB	02H
	DB	0aH
	DB	018H
	DB	016H
	DB	023H
	DB	05H
	DB	08H
	DB	0aH
	DB	06H
	DB	0aH
	DB	03H
	DB	00H
	DB	0bH
	DB	010H
	DB	00H
	DB	0bH
	DB	02H
	DB	021H
	DB	021H
	DB	08H
	DB	018H
	DB	0aH
	DB	039H
	DB	08H
	DB	08H
	DB	08H
	DB	08H
	DB	018H
	DB	06H
	DB	02aH
	DB	02aH
	DB	0aH
	DB	014H
	DB	014H
	DB	0aH
	DB	08H
	DB	0aH
	DB	08H
	DB	08H
	DB	06H
	DB	02fH
	DB	06H
	DB	0aH
	DB	05H
	DB	0aH
	DB	0aH
	DB	02H
	DB	014H
	DB	02H
	DB	014H
	DB	08H
	DB	0aH
	DB	0aH
	DB	08H
	DB	0aH
	DB	02H
	DB	0bH
	DB	01H
	DB	021H
	DB	01H
	DB	00H
	DB	0aeH
	DB	023H
	DB	014H
	DB	08H
	DB	08H
	DB	02H
	DB	02H
	DB	019H
	DB	010H
	DB	02H
	DB	02H
	DB	05H
	DB	05H
	DB	07H
	DB	05H
	DB	02H
	DB	0aH
	DB	02H
	DB	05H
	DB	05H
	DB	02H
	DB	07H
	DB	01H
	DB	01H
	DB	05H
	DB	021H
	DB	020H
	DB	00H
	DB	010H
	DB	01H
	DB	0bH
	DB	0bH
	DB	0bH
	DB	021H
	DB	01H
	DB	04H
	DB	04H
	DB	04H
	DB	04H
	DB	010H
	DB	00H
	DB	00H
	DB	010H
	DB	010H
	DB	01H
	DB	01H
	DB	04H
	DB	03H
	DB	03H
	DB	00H
	DB	00H
	DB	00H
	DB	010H
	DB	010H
	DB	010H
	DB	00H
	DB	00H
	DB	00H
	DB	00H
	DB	00H
	DB	00H
	DB	00H
	DB	00H
	DB	00H
	DB	00H
	DB	00H
	DB	00H
	DB	00H
	DB	00H
	DB	00H
	DB	00H
	DB	00H
	DB	00H
	DB	00H
	DB	00H
	DB	00H
	DB	00H
	DB	00H
	DB	00H
	DB	00H
	DB	00H
	DB	00H
	DB	00H
	DB	00H
	DB	00H
	DB	00H
	DB	00H
	DB	03H
	DB	00H
	DB	00H
	DB	03H
	DB	03H
	DB	00H
	DB	00H
	DB	03H
	DB	03H
	DB	00H
	DB	00H
	DB	00H
	DB	00H
	DB	03H
	DB	00H
	DB	00H
	DB	00H
	DB	03H
	DB	01aH
	DB	07H
	DB	010H
	DB	00H
	DB	00H
	DB	03H
	DB	04H
	DB	03H
	DB	00H
	DB	03H
	DB	03H
	DB	03H
	DB	03H
	DB	03H
	DB	030H
	DB	07H
	DB	01aH
	DB	04H
	DB	04H
	DB	01aH
	DB	03H
	DB	00H
	DB	03H
	DB	07H
	DB	05H
	DB	030H
	DB	07H
	DB	023H
	DB	019H
	DB	00H
	DB	00H
	DB	043H
	DB	07H
	DB	07H
	DB	01H
	DB	03H
	DB	03H
	DB	03H
	DB	03H
	DB	01aH
	DB	0aH
	DB	0cH
	DB	00H
	DB	025H
	DB	0bH
	DB	01dH
	DB	07H
	DB	07H
	DB	01aH
	DB	01aH
	DB	01aH
	DB	01aH
	DB	03H
	DB	00H
	DB	03H
	DB	03H
	DB	03H
	DB	00H
	DB	03H
	DB	07H
	DB	010H
	DB	00H
	DB	01H
	DB	0bH
	DB	00H
	DB	00H
	DB	04H
	DB	026H
	DB	02dH
	DB	07H
	DB	01aH
	DB	01H
	DB	04H
	DB	01H
	DB	021H
	DB	021H
	DB	044H
	DB	044H
	DB	023H
	DB	01fH
	DB	01fH
	DB	010H
	DB	00H
	DB	07H
	DB	08H
	DB	02H
	DB	07H
	DB	07H
	DB	07H
	DB	026H
	DB	08H
	DB	05H
	DB	04H
	DB	04H
	DB	03H
	DB	05H
	DB	06H
	DB	0aH
	DB	0aH
	DB	01H
	DB	010H
	DB	04H
	DB	07H
	DB	05H
	DB	019H
	DB	03H
	DB	053H
	DB	06fH
	DB	018H
	DB	0aH
	DB	0aH
	DB	02H
	DB	01H
	DB	05H
	DB	0aH
	DB	05H
	DB	06H
	DB	014H
	DB	048H
	DB	0aH
	DB	01dH
	DB	00H
	DB	00H
	DB	00H
	DB	00H
	DB	00H
	DB	00H
	DB	00H
	DB	07dH
	DB	08eH
	DB	067H
	DB	08eH
	DB	01eH
	DB	01eH
	DB	01eH
	DB	055H
