; Listing generated by Microsoft (R) Optimizing Compiler Version 16.00.40219.01 

	TITLE	C:\DUII\DUII\Graphics\DriverName.c
	.686P
	.XMM
	include listing.inc
	.model	flat

INCLUDELIB LIBCMT
INCLUDELIB OLDNAMES

PUBLIC	_bmDriverName
CONST	SEGMENT
_ColorsDriverName DD 00H
	DD	02f2e31H
	DD	0514f50H
	DD	017171aH
	DD	0526ef3H
	DD	0706e6dH
	DD	0130fadH
	DD	08f8d8cH
	DD	0ce5102H
	DD	0419ceH
	DD	0302ab1H
	DD	0591f7H
	DD	02d35caH
	DD	05aef9H
	DD	04b51d0H
	DD	0c0d2bH
	DD	0140894H
	DD	08c3012H
	DD	0f1ac4fH
	DD	092feaH
	DD	03748d4H
	DD	0cd722cH
	DD	05cdfaH
	DD	0b1aeaaH
	DD	0304eecH
	DD	0451ebH
	DD	0112cd0H
	DD	0af470dH
	DD	046cefH
	DD	02516a8H
	DD	0e78602H
	DD	0db7402H
	DD	0ab5427H
	DD	0e97004H
	DD	0514ab6H
	DD	0475ae5H
	DD	0d1cfcbH
	DD	0f3b46cH
	DD	06e70d2H
	DD	06a1410H
	DD	0e48d3H
	DD	0530d12H
	DD	0ab3b04H
	DD	0708af3H
	DD	010216H
	DD	09094fH
	DD	0d56400H
	DD	0e79649H
	DD	0f69801H
	DD	0a6ac98H
	DD	0615b5dH
	DD	0d58a32H
	DD	02f2c94H
	DD	0c6cab9H
	DD	0110d6fH
	DD	06679efH
	DD	045383aH
	DD	0723027H
	DD	0e85a00H
	DD	0b46e50H
	DD	085887aH
	DD	0924730H
	DD	0102ab5H
	DD	04536b5H
	DD	0971d0H
	DD	0373649H
	DD	0251890H
	DD	02e6cedH
	DD	08b96ecH
	DD	0924919H
	DD	0ba682cH
	DD	0e28d28H
	DD	0e59835H
	DD	087b46eH
	DD	0d48b4dH
	DD	0152a93H
	DD	0e48b13H
	DD	0ea9715H
	DD	0676cadH
	DD	04f92f9H
	DD	0a9cb92H
	DD	0bad0aeH
	DD	0bce8aaH
	DD	096a7f3H
	DD	0d7eccdH
	DD	0130600H
	DD	0792317H
	DD	0112c6bH
	DD	0893626H
	DD	071b556H
	DD	0f9c372H
	DD	03448b4H
	DD	06db0feH
	DD	08f8fd5H
	DD	0aab1ebH
	DD	0473146H
	DD	0676b58H
	DD	0504e6aH
	DD	06e934fH
	DD	0708770H
	DD	0f8a405H
	DD	0665cc6H
	DD	0328bf5H
	DD	0a69b99H
	DD	098b484H
	DD	0f8cd8aH
	DD	0e1ead9H
	DD	0230805H
	DD	0361d00H
	DD	0291770H
	DD	02f2e6cH
	DD	0915247H
	DD	0817e7cH
	DD	0ec970aH
	DD	0e79725H
	DD	02d70abH
	DD	06e6a94H
	DD	05267a8H
	DD	0556dd1H
	DD	0138cd2H
	DD	034a3d3H
	DD	02daaf5H
	DD	02ccdfbH
	DD	0ccb8b2H
	DD	0261728H
	DD	02749H
	DD	06b566bH
	DD	0c77847H
	DD	0b98c33H
	DD	0f3a517H
	DD	0eba12bH
	DD	0fab528H
	DD	0eca53aH
	DD	0f2ab33H
	DD	090d175H
	DD	01255aeH
	DD	0837ad2H
	DD	019d0d6H
	DD	04cd0eaH
	DD	0eeb784H
	DD	0afe996H
	DD	0673804H
	DD	0557930H
	DD	02b0747H
	DD	0c8671cH
	DD	0d16614H
	DD	0d8791cH
	DD	0e47925H
	DD	0926c4aH
	DD	0ac756cH
	DD	05ab143H
	DD	0dc8317H
	DD	0f6aa26H
	DD	08b874dH
	DD	044591H
	DD	01264b3H
	DD	056508fH
	DD	05bc896H
	DD	0548ecbH
	DD	07984c5H
	DD	0cefe6H
	DD	02ee2feH
	DD	074caf5H
	DD	054e5f8H
	DD	09192aeH
	DD	09ba3cdH
	DD	0e1d6cfH
	DD	0ebece8H
	DD	0281700H
	DD	0392000H
	DD	0482906H
	DD	07c210aH
	DD	05b7575H
	DD	0b6621fH
	DD	06fd34fH
	DD	0f48600H
	DD	0fd8d29H
	DD	0e28333H
	DD	0c7ac33H
	DD	09ca158H
	DD	0aaad47H
	DD	0655ca2H
	DD	0243ee6H
	DD	0366cdcH
	DD	0807e80H
	DD	03aa4bcH
	DD	054ab8dH
	DD	069b285H
	DD	042a9a8H
	DD	071a7c2H
	DD	04ea6f9H
	DD	028e1c7H
	DD	09ca7acH
	DD	0c19b96H
	DD	092c483H
	DD	0d1f0bdH
	DD	0c8bcc8H
	DD	081cddbH
	DD	0ced2e3H
	DD	0100f13H
	DD	034080aH
	DD	030081dH
	DD	0202819H
	DD	0203aH
	DD	0473006H
	DD	0563c12H
	DD	07b3f05H
	DD	0672919H
	DD	07c3016H
	DD	045132fH
	DD	0584212H
	DD	0744133H
	DD	06c3f43H
	DD	0523d6aH
	DD	0394668H
	DD	05e6353H
	DD	0ad6009H
	DD	0b8791dH
	DD	0997a3fH
	DD	0cd7c11H
	DD	0a65e47H
	DD	0589735H
	DD	04aaf2dH
	DD	027d01aH
	DD	0f39e13H
	DD	0e8a01cH
	DD	0fcb71eH
	DD	0f2923fH
	DD	0f6b239H
	DD	0b9884dH
	DD	0b0827eH
	DD	0aaab64H
	DD	080d25aH
	DD	083e55aH
	DD	0224b80H
	DD	0376e96H
	DD	0605e8eH
	DD	0506e81H
	DD	01be0H
	DD	01ee2H
	DD	01ee3H
	DD	01fe6H
	DD	04239c7H
	DD	03186aaH
	DD	0489494H
	DD	0719184H
	DD	0558fb5H
	DD	07981bcH
	DD	043ceacH
	DD	02a82c6H
	DD	0fb0dfH
	DD	053b6d6H
	DD	021d9d8H
	DD	0c7a29fH
	DD	0a2a9d1H
	DD	0e6dfe5H
_PalDriverName DD 0100H
	DB	00H
	ORG $+3
	DD	FLAT:_ColorsDriverName
_bmDriverName DW 050H
	DW	050H
	DW	050H
	DW	08H
	DD	FLAT:_acDriverName
	DD	FLAT:_PalDriverName
	ORG $+4
_acDriverName DB 00H
	DB	00H
	DB	00H
	DB	00H
	DB	00H
	DB	00H
	DB	00H
	DB	00H
	DB	00H
	DB	00H
	DB	00H
	DB	00H
	DB	00H
	DB	00H
	DB	00H
	DB	00H
	DB	00H
	DB	00H
	DB	00H
	DB	00H
	DB	00H
	DB	00H
	DB	00H
	DB	00H
	DB	00H
	DB	00H
	DB	00H
	DB	00H
	DB	00H
	DB	00H
	DB	00H
	DB	00H
	DB	00H
	DB	00H
	DB	00H
	DB	00H
	DB	00H
	DB	00H
	DB	00H
	DB	00H
	DB	00H
	DB	00H
	DB	00H
	DB	00H
	DB	00H
	DB	00H
	DB	00H
	DB	00H
	DB	00H
	DB	00H
	DB	00H
	DB	00H
	DB	00H
	DB	00H
	DB	00H
	DB	00H
	DB	00H
	DB	00H
	DB	00H
	DB	00H
	DB	00H
	DB	00H
	DB	00H
	DB	00H
	DB	00H
	DB	00H
	DB	00H
	DB	00H
	DB	00H
	DB	00H
	DB	00H
	DB	00H
	DB	00H
	DB	00H
	DB	00H
	DB	00H
	DB	00H
	DB	00H
	DB	00H
	DB	00H
	DB	00H
	DB	00H
	DB	00H
	DB	00H
	DB	00H
	DB	00H
	DB	00H
	DB	00H
	DB	00H
	DB	00H
	DB	00H
	DB	00H
	DB	00H
	DB	00H
	DB	00H
	DB	00H
	DB	00H
	DB	00H
	DB	00H
	DB	00H
	DB	00H
	DB	00H
	DB	00H
	DB	00H
	DB	00H
	DB	00H
	DB	00H
	DB	00H
	DB	00H
	DB	00H
	DB	00H
	DB	00H
	DB	00H
	DB	00H
	DB	00H
	DB	00H
	DB	00H
	DB	00H
	DB	00H
	DB	00H
	DB	00H
	DB	00H
	DB	00H
	DB	00H
	DB	00H
	DB	00H
	DB	00H
	DB	00H
	DB	00H
	DB	00H
	DB	00H
	DB	00H
	DB	00H
	DB	00H
	DB	00H
	DB	00H
	DB	00H
	DB	00H
	DB	00H
	DB	00H
	DB	00H
	DB	00H
	DB	00H
	DB	00H
	DB	00H
	DB	00H
	DB	00H
	DB	00H
	DB	00H
	DB	00H
	DB	00H
	DB	00H
	DB	00H
	DB	00H
	DB	00H
	DB	00H
	DB	00H
	DB	00H
	DB	00H
	DB	00H
	DB	00H
	DB	00H
	DB	00H
	DB	00H
	DB	00H
	DB	00H
	DB	00H
	DB	00H
	DB	00H
	DB	00H
	DB	00H
	DB	00H
	DB	00H
	DB	00H
	DB	00H
	DB	00H
	DB	00H
	DB	00H
	DB	00H
	DB	00H
	DB	00H
	DB	00H
	DB	00H
	DB	00H
	DB	00H
	DB	00H
	DB	00H
	DB	00H
	DB	00H
	DB	00H
	DB	00H
	DB	00H
	DB	00H
	DB	00H
	DB	00H
	DB	00H
	DB	00H
	DB	00H
	DB	00H
	DB	00H
	DB	00H
	DB	00H
	DB	00H
	DB	00H
	DB	00H
	DB	00H
	DB	00H
	DB	00H
	DB	00H
	DB	00H
	DB	00H
	DB	00H
	DB	00H
	DB	00H
	DB	00H
	DB	00H
	DB	00H
	DB	00H
	DB	00H
	DB	00H
	DB	00H
	DB	00H
	DB	00H
	DB	00H
	DB	00H
	DB	00H
	DB	00H
	DB	00H
	DB	00H
	DB	00H
	DB	00H
	DB	00H
	DB	00H
	DB	00H
	DB	00H
	DB	00H
	DB	00H
	DB	00H
	DB	00H
	DB	00H
	DB	00H
	DB	00H
	DB	00H
	DB	00H
	DB	00H
	DB	00H
	DB	00H
	DB	00H
	DB	00H
	DB	00H
	DB	00H
	DB	00H
	DB	00H
	DB	00H
	DB	00H
	DB	00H
	DB	00H
	DB	00H
	DB	00H
	DB	00H
	DB	00H
	DB	00H
	DB	00H
	DB	00H
	DB	00H
	DB	00H
	DB	00H
	DB	00H
	DB	00H
	DB	00H
	DB	00H
	DB	00H
	DB	00H
	DB	00H
	DB	00H
	DB	00H
	DB	00H
	DB	00H
	DB	00H
	DB	00H
	DB	00H
	DB	00H
	DB	00H
	DB	00H
	DB	00H
	DB	00H
	DB	00H
	DB	00H
	DB	00H
	DB	00H
	DB	00H
	DB	00H
	DB	00H
	DB	00H
	DB	00H
	DB	00H
	DB	00H
	DB	00H
	DB	00H
	DB	00H
	DB	00H
	DB	00H
	DB	00H
	DB	00H
	DB	00H
	DB	00H
	DB	00H
	DB	00H
	DB	00H
	DB	00H
	DB	00H
	DB	00H
	DB	00H
	DB	00H
	DB	00H
	DB	00H
	DB	00H
	DB	00H
	DB	00H
	DB	00H
	DB	00H
	DB	00H
	DB	00H
	DB	00H
	DB	00H
	DB	00H
	DB	00H
	DB	00H
	DB	00H
	DB	00H
	DB	00H
	DB	00H
	DB	00H
	DB	00H
	DB	00H
	DB	00H
	DB	00H
	DB	00H
	DB	00H
	DB	00H
	DB	00H
	DB	00H
	DB	00H
	DB	00H
	DB	00H
	DB	00H
	DB	00H
	DB	00H
	DB	00H
	DB	00H
	DB	00H
	DB	00H
	DB	00H
	DB	00H
	DB	00H
	DB	00H
	DB	00H
	DB	00H
	DB	00H
	DB	00H
	DB	00H
	DB	00H
	DB	00H
	DB	00H
	DB	00H
	DB	00H
	DB	00H
	DB	00H
	DB	00H
	DB	00H
	DB	00H
	DB	00H
	DB	00H
	DB	00H
	DB	00H
	DB	00H
	DB	00H
	DB	00H
	DB	00H
	DB	00H
	DB	00H
	DB	00H
	DB	00H
	DB	00H
	DB	00H
	DB	00H
	DB	00H
	DB	00H
	DB	00H
	DB	00H
	DB	00H
	DB	00H
	DB	00H
	DB	00H
	DB	00H
	DB	00H
	DB	00H
	DB	00H
	DB	00H
	DB	00H
	DB	00H
	DB	00H
	DB	00H
	DB	00H
	DB	00H
	DB	00H
	DB	00H
	DB	00H
	DB	00H
	DB	00H
	DB	00H
	DB	00H
	DB	00H
	DB	00H
	DB	00H
	DB	00H
	DB	00H
	DB	00H
	DB	00H
	DB	00H
	DB	00H
	DB	00H
	DB	00H
	DB	00H
	DB	00H
	DB	00H
	DB	00H
	DB	00H
	DB	00H
	DB	00H
	DB	00H
	DB	00H
	DB	00H
	DB	00H
	DB	00H
	DB	00H
	DB	00H
	DB	00H
	DB	00H
	DB	00H
	DB	00H
	DB	00H
	DB	00H
	DB	00H
	DB	00H
	DB	00H
	DB	00H
	DB	00H
	DB	00H
	DB	00H
	DB	00H
	DB	00H
	DB	00H
	DB	00H
	DB	00H
	DB	00H
	DB	00H
	DB	00H
	DB	00H
	DB	00H
	DB	00H
	DB	00H
	DB	00H
	DB	00H
	DB	00H
	DB	00H
	DB	00H
	DB	00H
	DB	00H
	DB	00H
	DB	00H
	DB	00H
	DB	00H
	DB	00H
	DB	00H
	DB	00H
	DB	00H
	DB	00H
	DB	00H
	DB	00H
	DB	00H
	DB	00H
	DB	00H
	DB	00H
	DB	00H
	DB	00H
	DB	00H
	DB	00H
	DB	00H
	DB	00H
	DB	00H
	DB	00H
	DB	00H
	DB	00H
	DB	00H
	DB	00H
	DB	00H
	DB	00H
	DB	00H
	DB	00H
	DB	00H
	DB	00H
	DB	00H
	DB	00H
	DB	00H
	DB	00H
	DB	00H
	DB	00H
	DB	00H
	DB	00H
	DB	00H
	DB	00H
	DB	00H
	DB	00H
	DB	00H
	DB	00H
	DB	00H
	DB	00H
	DB	00H
	DB	00H
	DB	00H
	DB	00H
	DB	00H
	DB	00H
	DB	00H
	DB	00H
	DB	00H
	DB	00H
	DB	00H
	DB	00H
	DB	00H
	DB	00H
	DB	00H
	DB	00H
	DB	00H
	DB	00H
	DB	00H
	DB	00H
	DB	00H
	DB	00H
	DB	00H
	DB	00H
	DB	00H
	DB	00H
	DB	00H
	DB	00H
	DB	00H
	DB	00H
	DB	00H
	DB	00H
	DB	00H
	DB	00H
	DB	00H
	DB	00H
	DB	00H
	DB	00H
	DB	00H
	DB	00H
	DB	00H
	DB	00H
	DB	00H
	DB	00H
	DB	00H
	DB	00H
	DB	00H
	DB	00H
	DB	00H
	DB	00H
	DB	00H
	DB	00H
	DB	00H
	DB	00H
	DB	00H
	DB	00H
	DB	00H
	DB	00H
	DB	00H
	DB	00H
	DB	00H
	DB	00H
	DB	00H
	DB	00H
	DB	00H
	DB	00H
	DB	00H
	DB	00H
	DB	00H
	DB	00H
	DB	00H
	DB	00H
	DB	00H
	DB	00H
	DB	00H
	DB	00H
	DB	00H
	DB	00H
	DB	00H
	DB	00H
	DB	00H
	DB	00H
	DB	00H
	DB	00H
	DB	00H
	DB	00H
	DB	00H
	DB	00H
	DB	00H
	DB	00H
	DB	00H
	DB	00H
	DB	00H
	DB	00H
	DB	00H
	DB	00H
	DB	00H
	DB	00H
	DB	00H
	DB	00H
	DB	00H
	DB	00H
	DB	00H
	DB	00H
	DB	00H
	DB	00H
	DB	00H
	DB	00H
	DB	00H
	DB	00H
	DB	00H
	DB	00H
	DB	00H
	DB	00H
	DB	00H
	DB	00H
	DB	00H
	DB	00H
	DB	00H
	DB	00H
	DB	00H
	DB	00H
	DB	00H
	DB	00H
	DB	00H
	DB	00H
	DB	00H
	DB	00H
	DB	00H
	DB	00H
	DB	00H
	DB	00H
	DB	00H
	DB	00H
	DB	00H
	DB	00H
	DB	00H
	DB	00H
	DB	00H
	DB	00H
	DB	00H
	DB	00H
	DB	00H
	DB	00H
	DB	00H
	DB	00H
	DB	00H
	DB	00H
	DB	00H
	DB	00H
	DB	00H
	DB	00H
	DB	00H
	DB	055H
	DB	0a8H
	DB	0a9H
	DB	06cH
	DB	0a9H
	DB	0a9H
	DB	0a8H
	DB	055H
	DB	00H
	DB	00H
	DB	00H
	DB	00H
	DB	00H
	DB	00H
	DB	00H
	DB	00H
	DB	00H
	DB	00H
	DB	00H
	DB	00H
	DB	00H
	DB	00H
	DB	00H
	DB	00H
	DB	00H
	DB	00H
	DB	00H
	DB	00H
	DB	00H
	DB	00H
	DB	00H
	DB	00H
	DB	00H
	DB	00H
	DB	00H
	DB	00H
	DB	00H
	DB	00H
	DB	00H
	DB	00H
	DB	00H
	DB	00H
	DB	00H
	DB	00H
	DB	00H
	DB	00H
	DB	00H
	DB	00H
	DB	00H
	DB	00H
	DB	00H
	DB	00H
	DB	00H
	DB	00H
	DB	00H
	DB	00H
	DB	00H
	DB	00H
	DB	00H
	DB	00H
	DB	00H
	DB	00H
	DB	00H
	DB	00H
	DB	00H
	DB	00H
	DB	00H
	DB	00H
	DB	00H
	DB	00H
	DB	00H
	DB	00H
	DB	00H
	DB	00H
	DB	00H
	DB	02cH
	DB	06bH
	DB	0aaH
	DB	0ceH
	DB	0d8H
	DB	0dbH
	DB	04cH
	DB	0e1H
	DB	082H
	DB	082H
	DB	047H
	DB	015H
	DB	0adH
	DB	0d8H
	DB	045H
	DB	08dH
	DB	06cH
	DB	055H
	DB	00H
	DB	00H
	DB	00H
	DB	00H
	DB	00H
	DB	00H
	DB	00H
	DB	00H
	DB	00H
	DB	00H
	DB	00H
	DB	00H
	DB	00H
	DB	00H
	DB	00H
	DB	00H
	DB	00H
	DB	00H
	DB	00H
	DB	00H
	DB	00H
	DB	00H
	DB	00H
	DB	00H
	DB	00H
	DB	00H
	DB	00H
	DB	00H
	DB	00H
	DB	00H
	DB	00H
	DB	00H
	DB	00H
	DB	00H
	DB	00H
	DB	00H
	DB	00H
	DB	00H
	DB	00H
	DB	00H
	DB	00H
	DB	00H
	DB	00H
	DB	00H
	DB	00H
	DB	00H
	DB	00H
	DB	00H
	DB	00H
	DB	00H
	DB	00H
	DB	00H
	DB	00H
	DB	00H
	DB	00H
	DB	00H
	DB	00H
	DB	00H
	DB	00H
	DB	00H
	DB	055H
	DB	057H
	DB	02H
	DB	090H
	DB	01fH
	DB	04cH
	DB	04cH
	DB	04dH
	DB	04cH
	DB	092H
	DB	092H
	DB	047H
	DB	048H
	DB	084H
	DB	012H
	DB	025H
	DB	025H
	DB	012H
	DB	084H
	DB	080H
	DB	045H
	DB	0a9H
	DB	055H
	DB	00H
	DB	00H
	DB	00H
	DB	00H
	DB	00H
	DB	00H
	DB	00H
	DB	00H
	DB	00H
	DB	00H
	DB	00H
	DB	00H
	DB	00H
	DB	00H
	DB	00H
	DB	00H
	DB	00H
	DB	00H
	DB	00H
	DB	00H
	DB	00H
	DB	00H
	DB	00H
	DB	00H
	DB	00H
	DB	00H
	DB	00H
	DB	00H
	DB	00H
	DB	00H
	DB	00H
	DB	00H
	DB	00H
	DB	00H
	DB	00H
	DB	00H
	DB	00H
	DB	00H
	DB	00H
	DB	00H
	DB	00H
	DB	00H
	DB	00H
	DB	00H
	DB	00H
	DB	00H
	DB	00H
	DB	00H
	DB	00H
	DB	00H
	DB	00H
	DB	00H
	DB	00H
	DB	00H
	DB	00H
	DB	055H
	DB	029H
	DB	0d6H
	DB	077H
	DB	046H
	DB	097H
	DB	04cH
	DB	071H
	DB	071H
	DB	01eH
	DB	01eH
	DB	01fH
	DB	01fH
	DB	01fH
	DB	01fH
	DB	01eH
	DB	030H
	DB	0e0H
	DB	0e1H
	DB	082H
	DB	012H
	DB	025H
	DB	08bH
	DB	025H
	DB	046H
	DB	08dH
	DB	06bH
	DB	00H
	DB	00H
	DB	00H
	DB	00H
	DB	00H
	DB	00H
	DB	00H
	DB	00H
	DB	00H
	DB	00H
	DB	00H
	DB	00H
	DB	00H
	DB	00H
	DB	00H
	DB	00H
	DB	00H
	DB	00H
	DB	00H
	DB	00H
	DB	00H
	DB	00H
	DB	00H
	DB	00H
	DB	00H
	DB	00H
	DB	00H
	DB	00H
	DB	00H
	DB	00H
	DB	00H
	DB	00H
	DB	00H
	DB	00H
	DB	00H
	DB	00H
	DB	00H
	DB	00H
	DB	00H
	DB	00H
	DB	00H
	DB	00H
	DB	00H
	DB	00H
	DB	00H
	DB	00H
	DB	00H
	DB	00H
	DB	00H
	DB	00H
	DB	00H
	DB	00H
	DB	06bH
	DB	0d3H
	DB	058H
	DB	073H
	DB	077H
	DB	0adH
	DB	092H
	DB	047H
	DB	047H
	DB	047H
	DB	072H
	DB	0e1H
	DB	081H
	DB	081H
	DB	081H
	DB	071H
	DB	04cH
	DB	01fH
	DB	01fH
	DB	01fH
	DB	01eH
	DB	01eH
	DB	04cH
	DB	047H
	DB	012H
	DB	069H
	DB	069H
	DB	0e5H
	DB	08dH
	DB	055H
	DB	00H
	DB	00H
	DB	00H
	DB	00H
	DB	00H
	DB	00H
	DB	00H
	DB	00H
	DB	00H
	DB	00H
	DB	00H
	DB	00H
	DB	00H
	DB	00H
	DB	00H
	DB	00H
	DB	00H
	DB	00H
	DB	00H
	DB	00H
	DB	00H
	DB	00H
	DB	00H
	DB	00H
	DB	00H
	DB	00H
	DB	00H
	DB	00H
	DB	00H
	DB	00H
	DB	00H
	DB	00H
	DB	00H
	DB	00H
	DB	00H
	DB	00H
	DB	00H
	DB	00H
	DB	00H
	DB	00H
	DB	00H
	DB	00H
	DB	00H
	DB	00H
	DB	00H
	DB	00H
	DB	00H
	DB	00H
	DB	00H
	DB	029H
	DB	0e6H
	DB	03bH
	DB	0abH
	DB	073H
	DB	0bH
	DB	03dH
	DB	08H
	DB	08H
	DB	091H
	DB	097H
	DB	072H
	DB	082H
	DB	085H
	DB	083H
	DB	083H
	DB	098H
	DB	047H
	DB	015H
	DB	092H
	DB	097H
	DB	04cH
	DB	04dH
	DB	064H
	DB	064H
	DB	071H
	DB	04dH
	DB	0e4H
	DB	069H
	DB	069H
	DB	080H
	DB	0ccH
	DB	00H
	DB	00H
	DB	00H
	DB	00H
	DB	00H
	DB	00H
	DB	00H
	DB	00H
	DB	00H
	DB	00H
	DB	00H
	DB	00H
	DB	00H
	DB	00H
	DB	00H
	DB	00H
	DB	00H
	DB	00H
	DB	00H
	DB	00H
	DB	00H
	DB	00H
	DB	00H
	DB	00H
	DB	00H
	DB	00H
	DB	00H
	DB	00H
	DB	00H
	DB	00H
	DB	00H
	DB	00H
	DB	00H
	DB	00H
	DB	00H
	DB	00H
	DB	00H
	DB	00H
	DB	00H
	DB	00H
	DB	00H
	DB	00H
	DB	00H
	DB	00H
	DB	00H
	DB	00H
	DB	055H
	DB	029H
	DB	0fdH
	DB	0c1H
	DB	056H
	DB	011H
	DB	02H
	DB	0bH
	DB	0edH
	DB	02aH
	DB	08H
	DB	08H
	DB	02eH
	DB	01fH
	DB	01eH
	DB	04dH
	DB	072H
	DB	047H
	DB	048H
	DB	085H
	DB	084H
	DB	048H
	DB	033H
	DB	048H
	DB	082H
	DB	098H
	DB	083H
	DB	0e2H
	DB	081H
	DB	04cH
	DB	04cH
	DB	012H
	DB	069H
	DB	025H
	DB	045H
	DB	055H
	DB	00H
	DB	00H
	DB	00H
	DB	00H
	DB	00H
	DB	00H
	DB	00H
	DB	00H
	DB	00H
	DB	00H
	DB	00H
	DB	00H
	DB	00H
	DB	00H
	DB	00H
	DB	00H
	DB	00H
	DB	00H
	DB	00H
	DB	00H
	DB	00H
	DB	00H
	DB	00H
	DB	00H
	DB	00H
	DB	00H
	DB	00H
	DB	00H
	DB	00H
	DB	00H
	DB	00H
	DB	00H
	DB	00H
	DB	00H
	DB	00H
	DB	00H
	DB	00H
	DB	00H
	DB	00H
	DB	00H
	DB	00H
	DB	00H
	DB	00H
	DB	055H
	DB	039H
	DB	07bH
	DB	0c1H
	DB	056H
	DB	011H
	DB	011H
	DB	011H
	DB	0ebH
	DB	0dH
	DB	0acH
	DB	08H
	DB	02eH
	DB	02eH
	DB	01fH
	DB	01fH
	DB	08H
	DB	08H
	DB	02eH
	DB	01fH
	DB	04cH
	DB	081H
	DB	083H
	DB	085H
	DB	084H
	DB	084H
	DB	084H
	DB	048H
	DB	048H
	DB	084H
	DB	048H
	DB	015H
	DB	092H
	DB	047H
	DB	012H
	DB	08bH
	DB	0e5H
	DB	06cH
	DB	00H
	DB	00H
	DB	00H
	DB	00H
	DB	00H
	DB	00H
	DB	00H
	DB	00H
	DB	00H
	DB	00H
	DB	00H
	DB	00H
	DB	00H
	DB	00H
	DB	00H
	DB	00H
	DB	00H
	DB	00H
	DB	00H
	DB	00H
	DB	00H
	DB	00H
	DB	00H
	DB	00H
	DB	00H
	DB	00H
	DB	00H
	DB	00H
	DB	00H
	DB	00H
	DB	00H
	DB	00H
	DB	00H
	DB	00H
	DB	00H
	DB	00H
	DB	00H
	DB	00H
	DB	00H
	DB	00H
	DB	00H
	DB	00H
	DB	029H
	DB	07bH
	DB	07bH
	DB	0d0H
	DB	056H
	DB	011H
	DB	045H
	DB	02aH
	DB	011H
	DB	0f9H
	DB	0dH
	DB	063H
	DB	01eH
	DB	030H
	DB	01fH
	DB	08H
	DB	01bH
	DB	08H
	DB	02eH
	DB	01fH
	DB	01eH
	DB	0afH
	DB	030H
	DB	064H
	DB	071H
	DB	090H
	DB	015H
	DB	033H
	DB	02fH
	DB	012H
	DB	012H
	DB	012H
	DB	02fH
	DB	048H
	DB	082H
	DB	012H
	DB	05aH
	DB	04aH
	DB	0ccH
	DB	00H
	DB	00H
	DB	00H
	DB	00H
	DB	00H
	DB	00H
	DB	00H
	DB	00H
	DB	00H
	DB	00H
	DB	00H
	DB	00H
	DB	00H
	DB	00H
	DB	00H
	DB	00H
	DB	00H
	DB	00H
	DB	00H
	DB	00H
	DB	00H
	DB	00H
	DB	00H
	DB	00H
	DB	00H
	DB	00H
	DB	00H
	DB	00H
	DB	00H
	DB	00H
	DB	00H
	DB	00H
	DB	00H
	DB	00H
	DB	00H
	DB	00H
	DB	00H
	DB	00H
	DB	00H
	DB	02cH
	DB	08fH
	DB	0e6H
	DB	024H
	DB	06fH
	DB	0abH
	DB	011H
	DB	011H
	DB	045H
	DB	045H
	DB	01bH
	DB	045H
	DB	0f3H
	DB	0dH
	DB	0bcH
	DB	0d9H
	DB	08H
	DB	08H
	DB	08H
	DB	08H
	DB	02eH
	DB	01fH
	DB	01eH
	DB	030H
	DB	030H
	DB	01eH
	DB	01fH
	DB	02eH
	DB	08H
	DB	08H
	DB	01fH
	DB	097H
	DB	072H
	DB	0e4H
	DB	0e4H
	DB	02fH
	DB	012H
	DB	012H
	DB	012H
	DB	05aH
	DB	025H
	DB	0cdH
	DB	00H
	DB	00H
	DB	00H
	DB	00H
	DB	00H
	DB	00H
	DB	00H
	DB	00H
	DB	00H
	DB	00H
	DB	00H
	DB	00H
	DB	00H
	DB	00H
	DB	00H
	DB	00H
	DB	00H
	DB	00H
	DB	00H
	DB	00H
	DB	00H
	DB	00H
	DB	00H
	DB	00H
	DB	00H
	DB	00H
	DB	00H
	DB	00H
	DB	00H
	DB	00H
	DB	00H
	DB	00H
	DB	00H
	DB	00H
	DB	00H
	DB	00H
	DB	00H
	DB	00H
	DB	04bH
	DB	0b5H
	DB	0a6H
	DB	095H
	DB	027H
	DB	056H
	DB	011H
	DB	011H
	DB	045H
	DB	020H
	DB	020H
	DB	01bH
	DB	01bH
	DB	0acH
	DB	0faH
	DB	0faH
	DB	063H
	DB	090H
	DB	021H
	DB	02eH
	DB	02eH
	DB	01fH
	DB	01eH
	DB	01fH
	DB	02eH
	DB	02eH
	DB	01fH
	DB	01eH
	DB	01fH
	DB	08H
	DB	02eH
	DB	01fH
	DB	01eH
	DB	0afH
	DB	064H
	DB	04dH
	DB	047H
	DB	085H
	DB	0e4H
	DB	012H
	DB	05aH
	DB	05aH
	DB	0d2H
	DB	00H
	DB	00H
	DB	00H
	DB	00H
	DB	00H
	DB	00H
	DB	00H
	DB	00H
	DB	00H
	DB	00H
	DB	00H
	DB	00H
	DB	00H
	DB	00H
	DB	00H
	DB	00H
	DB	00H
	DB	00H
	DB	00H
	DB	00H
	DB	00H
	DB	00H
	DB	00H
	DB	00H
	DB	00H
	DB	00H
	DB	00H
	DB	00H
	DB	00H
	DB	00H
	DB	00H
	DB	00H
	DB	00H
	DB	00H
	DB	00H
	DB	00H
	DB	02dH
	DB	0b7H
	DB	05eH
	DB	0fdH
	DB	056H
	DB	027H
	DB	0d0H
	DB	011H
	DB	045H
	DB	045H
	DB	020H
	DB	020H
	DB	046H
	DB	090H
	DB	091H
	DB	020H
	DB	0f4H
	DB	016H
	DB	089H
	DB	0bbH
	DB	033H
	DB	0afH
	DB	021H
	DB	02eH
	DB	08H
	DB	08H
	DB	02eH
	DB	01fH
	DB	01eH
	DB	030H
	DB	01eH
	DB	02eH
	DB	01fH
	DB	01eH
	DB	0afH
	DB	030H
	DB	064H
	DB	01eH
	DB	01fH
	DB	01eH
	DB	0e0H
	DB	0e0H
	DB	098H
	DB	0e7H
	DB	07dH
	DB	00H
	DB	00H
	DB	00H
	DB	00H
	DB	00H
	DB	00H
	DB	00H
	DB	00H
	DB	00H
	DB	00H
	DB	00H
	DB	00H
	DB	00H
	DB	00H
	DB	00H
	DB	00H
	DB	00H
	DB	00H
	DB	00H
	DB	00H
	DB	00H
	DB	00H
	DB	00H
	DB	00H
	DB	00H
	DB	00H
	DB	00H
	DB	00H
	DB	00H
	DB	00H
	DB	00H
	DB	00H
	DB	00H
	DB	00H
	DB	02cH
	DB	010H
	DB	044H
	DB	05eH
	DB	05H
	DB	027H
	DB	056H
	DB	0d0H
	DB	011H
	DB	045H
	DB	045H
	DB	020H
	DB	020H
	DB	0adH
	DB	015H
	DB	015H
	DB	092H
	DB	091H
	DB	0daH
	DB	0bcH
	DB	016H
	DB	0fcH
	DB	09dH
	DB	099H
	DB	01bH
	DB	08H
	DB	08H
	DB	02eH
	DB	01fH
	DB	01eH
	DB	030H
	DB	030H
	DB	01eH
	DB	01fH
	DB	01eH
	DB	01eH
	DB	01eH
	DB	030H
	DB	01eH
	DB	08H
	DB	02eH
	DB	01eH
	DB	030H
	DB	04cH
	DB	0b9H
	DB	0eaH
	DB	055H
	DB	00H
	DB	00H
	DB	00H
	DB	00H
	DB	00H
	DB	00H
	DB	00H
	DB	00H
	DB	00H
	DB	00H
	DB	00H
	DB	00H
	DB	00H
	DB	00H
	DB	00H
	DB	00H
	DB	00H
	DB	00H
	DB	00H
	DB	00H
	DB	00H
	DB	00H
	DB	00H
	DB	00H
	DB	00H
	DB	00H
	DB	00H
	DB	00H
	DB	00H
	DB	00H
	DB	00H
	DB	00H
	DB	00H
	DB	0fH
	DB	022H
	DB	05eH
	DB	053H
	DB	034H
	DB	029H
	DB	0abH
	DB	011H
	DB	011H
	DB	045H
	DB	045H
	DB	020H
	DB	0adH
	DB	046H
	DB	015H
	DB	015H
	DB	033H
	DB	0b1H
	DB	0b1H
	DB	093H
	DB	080H
	DB	0baH
	DB	089H
	DB	0a0H
	DB	089H
	DB	0baH
	DB	099H
	DB	0d9H
	DB	01fH
	DB	01eH
	DB	0afH
	DB	030H
	DB	064H
	DB	021H
	DB	02eH
	DB	02eH
	DB	021H
	DB	0afH
	DB	030H
	DB	021H
	DB	02eH
	DB	04cH
	DB	0b2H
	DB	0b9H
	DB	0bH
	DB	05fH
	DB	029H
	DB	00H
	DB	00H
	DB	00H
	DB	00H
	DB	00H
	DB	00H
	DB	00H
	DB	00H
	DB	00H
	DB	00H
	DB	00H
	DB	00H
	DB	00H
	DB	00H
	DB	00H
	DB	00H
	DB	00H
	DB	00H
	DB	00H
	DB	00H
	DB	00H
	DB	00H
	DB	00H
	DB	00H
	DB	00H
	DB	00H
	DB	00H
	DB	00H
	DB	00H
	DB	00H
	DB	00H
	DB	00H
	DB	00H
	DB	036H
	DB	088H
	DB	0feH
	DB	02bH
	DB	01aH
	DB	06dH
	DB	029H
	DB	0abH
	DB	058H
	DB	045H
	DB	020H
	DB	020H
	DB	0adH
	DB	046H
	DB	015H
	DB	015H
	DB	0b1H
	DB	0b1H
	DB	02fH
	DB	02fH
	DB	0e3H
	DB	0b0H
	DB	033H
	DB	0b3H
	DB	09dH
	DB	0bfH
	DB	0a0H
	DB	0a0H
	DB	0bfH
	DB	09dH
	DB	049H
	DB	0b4H
	DB	0b2H
	DB	080H
	DB	020H
	DB	0adH
	DB	0d9H
	DB	033H
	DB	0b2H
	DB	0b4H
	DB	063H
	DB	0b9H
	DB	0dH
	DB	077H
	DB	061H
	DB	0abH
	DB	027H
	DB	0c8H
	DB	00H
	DB	00H
	DB	00H
	DB	00H
	DB	00H
	DB	00H
	DB	00H
	DB	00H
	DB	00H
	DB	00H
	DB	00H
	DB	00H
	DB	00H
	DB	00H
	DB	00H
	DB	00H
	DB	00H
	DB	00H
	DB	00H
	DB	00H
	DB	00H
	DB	00H
	DB	00H
	DB	00H
	DB	00H
	DB	00H
	DB	00H
	DB	00H
	DB	00H
	DB	00H
	DB	00H
	DB	0fH
	DB	03fH
	DB	05dH
	DB	05dH
	DB	0f2H
	DB	019H
	DB	028H
	DB	042H
	DB	0d1H
	DB	0abH
	DB	045H
	DB	020H
	DB	020H
	DB	0adH
	DB	046H
	DB	015H
	DB	015H
	DB	033H
	DB	0b1H
	DB	02fH
	DB	02fH
	DB	012H
	DB	012H
	DB	025H
	DB	012H
	DB	012H
	DB	012H
	DB	0b2H
	DB	0b3H
	DB	0bbH
	DB	0f8H
	DB	0fcH
	DB	0a0H
	DB	016H
	DB	016H
	DB	016H
	DB	089H
	DB	0faH
	DB	0faH
	DB	0dH
	DB	0dH
	DB	077H
	DB	073H
	DB	032H
	DB	06fH
	DB	03dH
	DB	027H
	DB	027H
	DB	027H
	DB	06bH
	DB	00H
	DB	00H
	DB	00H
	DB	00H
	DB	00H
	DB	00H
	DB	00H
	DB	00H
	DB	00H
	DB	00H
	DB	00H
	DB	00H
	DB	00H
	DB	00H
	DB	00H
	DB	00H
	DB	00H
	DB	00H
	DB	00H
	DB	00H
	DB	00H
	DB	00H
	DB	00H
	DB	00H
	DB	00H
	DB	00H
	DB	00H
	DB	00H
	DB	00H
	DB	00H
	DB	036H
	DB	065H
	DB	05dH
	DB	088H
	DB	01dH
	DB	03eH
	DB	01cH
	DB	028H
	DB	01dH
	DB	05fH
	DB	0abH
	DB	01bH
	DB	020H
	DB	046H
	DB	046H
	DB	015H
	DB	015H
	DB	033H
	DB	0b1H
	DB	02fH
	DB	02fH
	DB	012H
	DB	012H
	DB	025H
	DB	025H
	DB	05aH
	DB	05aH
	DB	0b0H
	DB	03aH
	DB	03aH
	DB	021H
	DB	090H
	DB	046H
	DB	0daH
	DB	099H
	DB	063H
	DB	063H
	DB	0f5H
	DB	05H
	DB	060H
	DB	094H
	DB	094H
	DB	0dcH
	DB	03bH
	DB	03bH
	DB	095H
	DB	0d0H
	DB	027H
	DB	027H
	DB	029H
	DB	00H
	DB	00H
	DB	00H
	DB	00H
	DB	00H
	DB	00H
	DB	00H
	DB	00H
	DB	00H
	DB	00H
	DB	00H
	DB	00H
	DB	00H
	DB	00H
	DB	00H
	DB	00H
	DB	00H
	DB	00H
	DB	00H
	DB	00H
	DB	00H
	DB	00H
	DB	00H
	DB	00H
	DB	00H
	DB	00H
	DB	00H
	DB	00H
	DB	00H
	DB	02cH
	DB	042H
	DB	088H
	DB	05dH
	DB	065H
	DB	06H
	DB	01dH
	DB	0aH
	DB	01cH
	DB	01cH
	DB	0cH
	DB	06eH
	DB	0cfH
	DB	02aH
	DB	020H
	DB	046H
	DB	015H
	DB	07fH
	DB	033H
	DB	04aH
	DB	02fH
	DB	02fH
	DB	012H
	DB	012H
	DB	025H
	DB	025H
	DB	05aH
	DB	05aH
	DB	0b0H
	DB	03aH
	DB	03aH
	DB	03aH
	DB	03aH
	DB	03aH
	DB	03aH
	DB	08H
	DB	08H
	DB	015H
	DB	08bH
	DB	090H
	DB	01bH
	DB	04aH
	DB	04aH
	DB	0e5H
	DB	03bH
	DB	03bH
	DB	03bH
	DB	03dH
	DB	027H
	DB	027H
	DB	029H
	DB	06bH
	DB	00H
	DB	00H
	DB	00H
	DB	00H
	DB	00H
	DB	00H
	DB	00H
	DB	00H
	DB	00H
	DB	00H
	DB	00H
	DB	00H
	DB	00H
	DB	00H
	DB	00H
	DB	00H
	DB	00H
	DB	00H
	DB	00H
	DB	00H
	DB	00H
	DB	00H
	DB	00H
	DB	00H
	DB	00H
	DB	00H
	DB	00H
	DB	00H
	DB	0fH
	DB	03fH
	DB	088H
	DB	088H
	DB	03fH
	DB	06H
	DB	06H
	DB	01dH
	DB	0aH
	DB	028H
	DB	01cH
	DB	028H
	DB	05bH
	DB	05fH
	DB	0d0H
	DB	01bH
	DB	090H
	DB	015H
	DB	04aH
	DB	04aH
	DB	02fH
	DB	02fH
	DB	012H
	DB	012H
	DB	025H
	DB	025H
	DB	05aH
	DB	012H
	DB	021H
	DB	03aH
	DB	03aH
	DB	03aH
	DB	03aH
	DB	03aH
	DB	08H
	DB	08H
	DB	08H
	DB	090H
	DB	08bH
	DB	07fH
	DB	02aH
	DB	07fH
	DB	07fH
	DB	03bH
	DB	0dcH
	DB	0dcH
	DB	0dcH
	DB	06fH
	DB	056H
	DB	029H
	DB	029H
	DB	029H
	DB	055H
	DB	00H
	DB	00H
	DB	00H
	DB	00H
	DB	00H
	DB	00H
	DB	00H
	DB	00H
	DB	00H
	DB	00H
	DB	00H
	DB	00H
	DB	00H
	DB	00H
	DB	00H
	DB	00H
	DB	00H
	DB	00H
	DB	00H
	DB	00H
	DB	00H
	DB	00H
	DB	00H
	DB	00H
	DB	00H
	DB	00H
	DB	00H
	DB	02dH
	DB	022H
	DB	026H
	DB	026H
	DB	0aH
	DB	010H
	DB	06H
	DB	06H
	DB	03eH
	DB	0cH
	DB	014H
	DB	043H
	DB	066H
	DB	043H
	DB	05bH
	DB	0d5H
	DB	039H
	DB	02aH
	DB	091H
	DB	0b1H
	DB	02fH
	DB	02fH
	DB	012H
	DB	025H
	DB	025H
	DB	025H
	DB	08bH
	DB	0e3H
	DB	03aH
	DB	03aH
	DB	03aH
	DB	03aH
	DB	03aH
	DB	08H
	DB	08H
	DB	08H
	DB	08H
	DB	08H
	DB	04aH
	DB	07fH
	DB	02aH
	DB	020H
	DB	03bH
	DB	0dcH
	DB	0dcH
	DB	03dH
	DB	03dH
	DB	03dH
	DB	039H
	DB	027H
	DB	029H
	DB	029H
	DB	0c9H
	DB	00H
	DB	00H
	DB	00H
	DB	00H
	DB	00H
	DB	00H
	DB	00H
	DB	00H
	DB	00H
	DB	00H
	DB	00H
	DB	00H
	DB	00H
	DB	00H
	DB	00H
	DB	00H
	DB	00H
	DB	00H
	DB	00H
	DB	00H
	DB	00H
	DB	00H
	DB	00H
	DB	00H
	DB	00H
	DB	00H
	DB	00H
	DB	036H
	DB	065H
	DB	026H
	DB	065H
	DB	01dH
	DB	010H
	DB	06H
	DB	06H
	DB	06H
	DB	03eH
	DB	0cH
	DB	014H
	DB	0b7H
	DB	066H
	DB	066H
	DB	043H
	DB	0eH
	DB	09cH
	DB	0d3H
	DB	02aH
	DB	08H
	DB	093H
	DB	02fH
	DB	025H
	DB	025H
	DB	08bH
	DB	08bH
	DB	093H
	DB	03aH
	DB	03aH
	DB	03aH
	DB	08H
	DB	08H
	DB	08H
	DB	08H
	DB	08H
	DB	01bH
	DB	01bH
	DB	07fH
	DB	07fH
	DB	02aH
	DB	02aH
	DB	020H
	DB	020H
	DB	03dH
	DB	03dH
	DB	058H
	DB	058H
	DB	039H
	DB	027H
	DB	029H
	DB	029H
	DB	06dH
	DB	041H
	DB	0c7H
	DB	00H
	DB	00H
	DB	00H
	DB	00H
	DB	00H
	DB	00H
	DB	00H
	DB	00H
	DB	00H
	DB	00H
	DB	00H
	DB	00H
	DB	00H
	DB	00H
	DB	00H
	DB	00H
	DB	00H
	DB	00H
	DB	00H
	DB	00H
	DB	00H
	DB	00H
	DB	00H
	DB	00H
	DB	02cH
	DB	042H
	DB	065H
	DB	065H
	DB	065H
	DB	01dH
	DB	010H
	DB	010H
	DB	06H
	DB	06H
	DB	09H
	DB	09H
	DB	01aH
	DB	014H
	DB	023H
	DB	04H
	DB	04fH
	DB	079H
	DB	066H
	DB	0b7H
	DB	075H
	DB	07eH
	DB	045H
	DB	01bH
	DB	091H
	DB	0b1H
	DB	012H
	DB	025H
	DB	091H
	DB	08H
	DB	03aH
	DB	08H
	DB	08H
	DB	08H
	DB	08H
	DB	08H
	DB	08H
	DB	02aH
	DB	02aH
	DB	046H
	DB	046H
	DB	02aH
	DB	011H
	DB	020H
	DB	03dH
	DB	058H
	DB	058H
	DB	0d0H
	DB	056H
	DB	056H
	DB	027H
	DB	029H
	DB	08fH
	DB	03eH
	DB	05bH
	DB	02H
	DB	00H
	DB	00H
	DB	00H
	DB	00H
	DB	00H
	DB	00H
	DB	00H
	DB	00H
	DB	00H
	DB	00H
	DB	00H
	DB	00H
	DB	00H
	DB	00H
	DB	00H
	DB	00H
	DB	00H
	DB	00H
	DB	00H
	DB	00H
	DB	00H
	DB	00H
	DB	00H
	DB	00H
	DB	02cH
	DB	034H
	DB	065H
	DB	065H
	DB	022H
	DB	01dH
	DB	010H
	DB	010H
	DB	01dH
	DB	034H
	DB	06dH
	DB	04bH
	DB	06H
	DB	09H
	DB	0b6H
	DB	014H
	DB	023H
	DB	037H
	DB	0beH
	DB	0beH
	DB	04fH
	DB	04fH
	DB	037H
	DB	04eH
	DB	07eH
	DB	03dH
	DB	01bH
	DB	08H
	DB	08H
	DB	08H
	DB	08H
	DB	08H
	DB	08H
	DB	08H
	DB	08H
	DB	08H
	DB	01bH
	DB	02aH
	DB	02aH
	DB	01bH
	DB	020H
	DB	02aH
	DB	011H
	DB	011H
	DB	058H
	DB	011H
	DB	0d0H
	DB	056H
	DB	027H
	DB	027H
	DB	029H
	DB	08fH
	DB	06H
	DB	019H
	DB	01dH
	DB	070H
	DB	0caH
	DB	00H
	DB	00H
	DB	00H
	DB	00H
	DB	00H
	DB	00H
	DB	00H
	DB	00H
	DB	00H
	DB	00H
	DB	00H
	DB	00H
	DB	00H
	DB	00H
	DB	00H
	DB	00H
	DB	00H
	DB	00H
	DB	00H
	DB	00H
	DB	00H
	DB	00H
	DB	00H
	DB	02cH
	DB	034H
	DB	065H
	DB	065H
	DB	022H
	DB	01dH
	DB	010H
	DB	0aH
	DB	061H
	DB	02H
	DB	060H
	DB	038H
	DB	041H
	DB	06eH
	DB	06H
	DB	09H
	DB	0b6H
	DB	018H
	DB	04H
	DB	037H
	DB	02bH
	DB	05cH
	DB	05cH
	DB	05cH
	DB	05cH
	DB	04fH
	DB	09eH
	DB	04eH
	DB	07eH
	DB	06fH
	DB	03dH
	DB	045H
	DB	02aH
	DB	02aH
	DB	02aH
	DB	02aH
	DB	02aH
	DB	02aH
	DB	02aH
	DB	02aH
	DB	02aH
	DB	02aH
	DB	011H
	DB	011H
	DB	011H
	DB	0abH
	DB	027H
	DB	029H
	DB	0d1H
	DB	08fH
	DB	010H
	DB	01aH
	DB	019H
	DB	03eH
	DB	0ecH
	DB	059H
	DB	02H
	DB	00H
	DB	00H
	DB	00H
	DB	00H
	DB	00H
	DB	00H
	DB	00H
	DB	00H
	DB	00H
	DB	00H
	DB	00H
	DB	00H
	DB	00H
	DB	00H
	DB	00H
	DB	00H
	DB	00H
	DB	00H
	DB	00H
	DB	00H
	DB	00H
	DB	00H
	DB	00H
	DB	0cbH
	DB	04bH
	DB	022H
	DB	022H
	DB	022H
	DB	01dH
	DB	06H
	DB	022H
	DB	02H
	DB	03cH
	DB	067H
	DB	02H
	DB	01H
	DB	038H
	DB	041H
	DB	057H
	DB	06H
	DB	0eeH
	DB	013H
	DB	018H
	DB	04H
	DB	02bH
	DB	044H
	DB	05cH
	DB	0a2H
	DB	0a2H
	DB	0a2H
	DB	079H
	DB	0bH
	DB	066H
	DB	0b7H
	DB	076H
	DB	075H
	DB	09cH
	DB	07eH
	DB	032H
	DB	0d4H
	DB	0d3H
	DB	039H
	DB	039H
	DB	039H
	DB	039H
	DB	0cfH
	DB	038H
	DB	05fH
	DB	041H
	DB	06dH
	DB	042H
	DB	03eH
	DB	028H
	DB	019H
	DB	028H
	DB	03eH
	DB	0b5H
	DB	049H
	DB	049H
	DB	07H
	DB	0caH
	DB	00H
	DB	00H
	DB	00H
	DB	00H
	DB	00H
	DB	00H
	DB	00H
	DB	00H
	DB	00H
	DB	00H
	DB	00H
	DB	00H
	DB	00H
	DB	00H
	DB	00H
	DB	00H
	DB	00H
	DB	00H
	DB	00H
	DB	00H
	DB	00H
	DB	00H
	DB	07dH
	DB	09aH
	DB	0aH
	DB	022H
	DB	022H
	DB	01dH
	DB	06H
	DB	0b5H
	DB	02H
	DB	067H
	DB	017H
	DB	032H
	DB	03H
	DB	07cH
	DB	01H
	DB	038H
	DB	041H
	DB	06eH
	DB	04bH
	DB	09H
	DB	013H
	DB	0b6H
	DB	018H
	DB	037H
	DB	02bH
	DB	053H
	DB	05cH
	DB	019H
	DB	01cH
	DB	0bH
	DB	0bH
	DB	0bH
	DB	0bH
	DB	0bH
	DB	01cH
	DB	01cH
	DB	043H
	DB	018H
	DB	028H
	DB	028H
	DB	028H
	DB	028H
	DB	028H
	DB	028H
	DB	028H
	DB	028H
	DB	019H
	DB	019H
	DB	019H
	DB	028H
	DB	03eH
	DB	022H
	DB	0c0H
	DB	0e8H
	DB	068H
	DB	068H
	DB	067H
	DB	02H
	DB	00H
	DB	00H
	DB	00H
	DB	00H
	DB	00H
	DB	00H
	DB	00H
	DB	00H
	DB	00H
	DB	00H
	DB	00H
	DB	00H
	DB	00H
	DB	00H
	DB	00H
	DB	00H
	DB	00H
	DB	00H
	DB	00H
	DB	00H
	DB	00H
	DB	00H
	DB	0cbH
	DB	040H
	DB	04bH
	DB	03fH
	DB	022H
	DB	01dH
	DB	06H
	DB	022H
	DB	02H
	DB	05H
	DB	07H
	DB	032H
	DB	03H
	DB	07cH
	DB	07cH
	DB	07cH
	DB	01H
	DB	01H
	DB	038H
	DB	041H
	DB	057H
	DB	04bH
	DB	014H
	DB	014H
	DB	023H
	DB	04H
	DB	04H
	DB	013H
	DB	013H
	DB	0f1H
	DB	013H
	DB	013H
	DB	019H
	DB	019H
	DB	01cH
	DB	01cH
	DB	01cH
	DB	01cH
	DB	01cH
	DB	01cH
	DB	01cH
	DB	01cH
	DB	019H
	DB	019H
	DB	019H
	DB	028H
	DB	028H
	DB	0cH
	DB	0eH
	DB	0f7H
	DB	0c0H
	DB	035H
	DB	035H
	DB	059H
	DB	049H
	DB	049H
	DB	07H
	DB	02H
	DB	00H
	DB	00H
	DB	00H
	DB	00H
	DB	00H
	DB	00H
	DB	00H
	DB	00H
	DB	00H
	DB	00H
	DB	00H
	DB	00H
	DB	00H
	DB	00H
	DB	00H
	DB	00H
	DB	00H
	DB	00H
	DB	00H
	DB	00H
	DB	00H
	DB	00H
	DB	0fH
	DB	077H
	DB	09bH
	DB	042H
	DB	03fH
	DB	01dH
	DB	010H
	DB	03fH
	DB	02H
	DB	0d7H
	DB	05H
	DB	01H
	DB	07cH
	DB	01H
	DB	01H
	DB	01H
	DB	07cH
	DB	07cH
	DB	01H
	DB	01H
	DB	01H
	DB	02H
	DB	07bH
	DB	017H
	DB	017H
	DB	0a5H
	DB	0a5H
	DB	05dH
	DB	02bH
	DB	037H
	DB	037H
	DB	04H
	DB	023H
	DB	023H
	DB	018H
	DB	018H
	DB	018H
	DB	018H
	DB	018H
	DB	018H
	DB	014H
	DB	023H
	DB	023H
	DB	076H
	DB	026H
	DB	05dH
	DB	0a5H
	DB	0c4H
	DB	052H
	DB	052H
	DB	086H
	DB	0e8H
	DB	0c4H
	DB	068H
	DB	049H
	DB	017H
	DB	062H
	DB	0caH
	DB	00H
	DB	00H
	DB	00H
	DB	00H
	DB	00H
	DB	00H
	DB	00H
	DB	00H
	DB	00H
	DB	00H
	DB	00H
	DB	00H
	DB	00H
	DB	00H
	DB	00H
	DB	00H
	DB	00H
	DB	00H
	DB	00H
	DB	00H
	DB	00H
	DB	00H
	DB	02cH
	DB	040H
	DB	0dH
	DB	087H
	DB	01dH
	DB	0aH
	DB	010H
	DB	0aH
	DB	061H
	DB	01H
	DB	038H
	DB	01H
	DB	01H
	DB	01H
	DB	01H
	DB	01H
	DB	01H
	DB	01H
	DB	07cH
	DB	07cH
	DB	03H
	DB	070H
	DB	017H
	DB	067H
	DB	017H
	DB	017H
	DB	07bH
	DB	035H
	DB	024H
	DB	024H
	DB	0a6H
	DB	0a6H
	DB	06aH
	DB	052H
	DB	052H
	DB	0c3H
	DB	052H
	DB	054H
	DB	06aH
	DB	08cH
	DB	052H
	DB	052H
	DB	06aH
	DB	06aH
	DB	052H
	DB	054H
	DB	0c3H
	DB	054H
	DB	086H
	DB	051H
	DB	035H
	DB	0c2H
	DB	024H
	DB	035H
	DB	062H
	DB	03cH
	DB	02H
	DB	00H
	DB	00H
	DB	00H
	DB	00H
	DB	00H
	DB	00H
	DB	00H
	DB	00H
	DB	00H
	DB	00H
	DB	00H
	DB	00H
	DB	00H
	DB	00H
	DB	00H
	DB	00H
	DB	00H
	DB	00H
	DB	00H
	DB	00H
	DB	00H
	DB	00H
	DB	00H
	DB	00H
	DB	09bH
	DB	0dH
	DB	079H
	DB	04bH
	DB	01dH
	DB	010H
	DB	01dH
	DB	09cH
	DB	0caH
	DB	01H
	DB	01H
	DB	01H
	DB	01H
	DB	01H
	DB	01H
	DB	01H
	DB	01H
	DB	01H
	DB	01H
	DB	01H
	DB	0b8H
	DB	07H
	DB	07H
	DB	07H
	DB	07H
	DB	067H
	DB	067H
	DB	031H
	DB	017H
	DB	017H
	DB	07bH
	DB	0aeH
	DB	0e9H
	DB	024H
	DB	024H
	DB	052H
	DB	052H
	DB	054H
	DB	0e9H
	DB	054H
	DB	0c3H
	DB	08cH
	DB	054H
	DB	08cH
	DB	0a7H
	DB	06aH
	DB	0a7H
	DB	051H
	DB	050H
	DB	050H
	DB	051H
	DB	0c4H
	DB	017H
	DB	08eH
	DB	060H
	DB	01H
	DB	00H
	DB	00H
	DB	00H
	DB	00H
	DB	00H
	DB	00H
	DB	00H
	DB	00H
	DB	00H
	DB	00H
	DB	00H
	DB	00H
	DB	00H
	DB	00H
	DB	00H
	DB	00H
	DB	00H
	DB	00H
	DB	00H
	DB	00H
	DB	00H
	DB	00H
	DB	00H
	DB	00H
	DB	057H
	DB	0bH
	DB	0dH
	DB	078H
	DB	04bH
	DB	010H
	DB	010H
	DB	03fH
	DB	01H
	DB	03H
	DB	01H
	DB	01H
	DB	01H
	DB	01H
	DB	01H
	DB	01H
	DB	01H
	DB	01H
	DB	01H
	DB	01H
	DB	05H
	DB	070H
	DB	03cH
	DB	07H
	DB	07H
	DB	067H
	DB	067H
	DB	067H
	DB	067H
	DB	017H
	DB	017H
	DB	0dfH
	DB	0c2H
	DB	0c4H
	DB	035H
	DB	0c2H
	DB	0c2H
	DB	035H
	DB	096H
	DB	035H
	DB	0a7H
	DB	059H
	DB	050H
	DB	049H
	DB	050H
	DB	050H
	DB	06aH
	DB	051H
	DB	062H
	DB	031H
	DB	08eH
	DB	062H
	DB	03cH
	DB	05H
	DB	038H
	DB	03H
	DB	00H
	DB	00H
	DB	00H
	DB	00H
	DB	00H
	DB	00H
	DB	00H
	DB	00H
	DB	00H
	DB	00H
	DB	00H
	DB	00H
	DB	00H
	DB	00H
	DB	00H
	DB	00H
	DB	00H
	DB	00H
	DB	00H
	DB	00H
	DB	00H
	DB	00H
	DB	00H
	DB	00H
	DB	0fH
	DB	01cH
	DB	0dH
	DB	0dH
	DB	078H
	DB	04bH
	DB	010H
	DB	0aH
	DB	0d6H
	DB	0c7H
	DB	03H
	DB	01H
	DB	038H
	DB	01H
	DB	01H
	DB	01H
	DB	01H
	DB	01H
	DB	01H
	DB	01H
	DB	01H
	DB	038H
	DB	02H
	DB	032H
	DB	070H
	DB	07H
	DB	07H
	DB	067H
	DB	017H
	DB	017H
	DB	017H
	DB	059H
	DB	059H
	DB	017H
	DB	0c4H
	DB	096H
	DB	0deH
	DB	035H
	DB	096H
	DB	035H
	DB	0ffH
	DB	0ddH
	DB	050H
	DB	062H
	DB	024H
	DB	06aH
	DB	035H
	DB	017H
	DB	08eH
	DB	017H
	DB	031H
	DB	060H
	DB	0d7H
	DB	01H
	DB	03H
	DB	03H
	DB	00H
	DB	00H
	DB	00H
	DB	00H
	DB	00H
	DB	00H
	DB	00H
	DB	00H
	DB	00H
	DB	00H
	DB	00H
	DB	00H
	DB	00H
	DB	00H
	DB	00H
	DB	00H
	DB	00H
	DB	00H
	DB	00H
	DB	00H
	DB	00H
	DB	00H
	DB	00H
	DB	00H
	DB	02cH
	DB	06H
	DB	0bH
	DB	0dH
	DB	016H
	DB	078H
	DB	010H
	DB	06H
	DB	034H
	DB	07cH
	DB	03H
	DB	03H
	DB	01H
	DB	038H
	DB	038H
	DB	01H
	DB	01H
	DB	01H
	DB	01H
	DB	01H
	DB	01H
	DB	01H
	DB	01H
	DB	01H
	DB	01H
	DB	01H
	DB	038H
	DB	02H
	DB	032H
	DB	05H
	DB	07H
	DB	067H
	DB	068H
	DB	049H
	DB	068H
	DB	059H
	DB	0c2H
	DB	035H
	DB	0ddH
	DB	068H
	DB	068H
	DB	068H
	DB	024H
	DB	062H
	DB	050H
	DB	035H
	DB	050H
	DB	031H
	DB	03cH
	DB	063H
	DB	032H
	DB	01H
	DB	07cH
	DB	03H
	DB	03H
	DB	03H
	DB	0c7H
	DB	00H
	DB	00H
	DB	00H
	DB	00H
	DB	00H
	DB	00H
	DB	00H
	DB	00H
	DB	00H
	DB	00H
	DB	00H
	DB	00H
	DB	00H
	DB	00H
	DB	00H
	DB	00H
	DB	00H
	DB	00H
	DB	00H
	DB	00H
	DB	00H
	DB	00H
	DB	00H
	DB	00H
	DB	042H
	DB	0cH
	DB	0dH
	DB	0dH
	DB	07aH
	DB	073H
	DB	010H
	DB	01dH
	DB	06eH
	DB	03H
	DB	03H
	DB	03H
	DB	07cH
	DB	038H
	DB	038H
	DB	038H
	DB	038H
	DB	038H
	DB	01H
	DB	01H
	DB	01H
	DB	01H
	DB	038H
	DB	01H
	DB	01H
	DB	01H
	DB	01H
	DB	0caH
	DB	0caH
	DB	0caH
	DB	01H
	DB	038H
	DB	038H
	DB	02H
	DB	060H
	DB	070H
	DB	063H
	DB	063H
	DB	03cH
	DB	03cH
	DB	067H
	DB	067H
	DB	03cH
	DB	03cH
	DB	05H
	DB	032H
	DB	02H
	DB	01H
	DB	01H
	DB	01H
	DB	01H
	DB	03H
	DB	03H
	DB	03H
	DB	03H
	DB	0c7H
	DB	00H
	DB	00H
	DB	00H
	DB	00H
	DB	00H
	DB	00H
	DB	00H
	DB	00H
	DB	00H
	DB	00H
	DB	00H
	DB	00H
	DB	00H
	DB	00H
	DB	00H
	DB	00H
	DB	00H
	DB	00H
	DB	00H
	DB	00H
	DB	00H
	DB	00H
	DB	00H
	DB	00H
	DB	06dH
	DB	065H
	DB	028H
	DB	0dH
	DB	016H
	DB	08aH
	DB	034H
	DB	010H
	DB	01dH
	DB	01H
	DB	03H
	DB	03H
	DB	03H
	DB	03H
	DB	01H
	DB	038H
	DB	038H
	DB	038H
	DB	038H
	DB	038H
	DB	038H
	DB	038H
	DB	038H
	DB	038H
	DB	038H
	DB	038H
	DB	02H
	DB	038H
	DB	038H
	DB	038H
	DB	01H
	DB	01H
	DB	01H
	DB	07cH
	DB	0caH
	DB	03H
	DB	03H
	DB	03H
	DB	0caH
	DB	0caH
	DB	03H
	DB	03H
	DB	03H
	DB	03H
	DB	0caH
	DB	01H
	DB	038H
	DB	02H
	DB	05H
	DB	070H
	DB	032H
	DB	07cH
	DB	03H
	DB	03H
	DB	03H
	DB	0c7H
	DB	00H
	DB	00H
	DB	00H
	DB	00H
	DB	00H
	DB	00H
	DB	00H
	DB	00H
	DB	00H
	DB	00H
	DB	00H
	DB	00H
	DB	00H
	DB	00H
	DB	00H
	DB	00H
	DB	00H
	DB	00H
	DB	00H
	DB	00H
	DB	00H
	DB	00H
	DB	00H
	DB	00H
	DB	02dH
	DB	088H
	DB	022H
	DB	040H
	DB	016H
	DB	07aH
	DB	073H
	DB	010H
	DB	06H
	DB	042H
	DB	03H
	DB	03H
	DB	03H
	DB	03H
	DB	03H
	DB	07cH
	DB	01H
	DB	038H
	DB	038H
	DB	038H
	DB	038H
	DB	038H
	DB	038H
	DB	038H
	DB	038H
	DB	02H
	DB	02H
	DB	02H
	DB	02H
	DB	02H
	DB	02H
	DB	02H
	DB	032H
	DB	070H
	DB	05H
	DB	032H
	DB	032H
	DB	02H
	DB	038H
	DB	038H
	DB	038H
	DB	032H
	DB	05H
	DB	05H
	DB	070H
	DB	0b8H
	DB	07H
	DB	07H
	DB	0b8H
	DB	070H
	DB	032H
	DB	01H
	DB	03H
	DB	03H
	DB	03H
	DB	03H
	DB	00H
	DB	00H
	DB	00H
	DB	00H
	DB	00H
	DB	00H
	DB	00H
	DB	00H
	DB	00H
	DB	00H
	DB	00H
	DB	00H
	DB	00H
	DB	00H
	DB	00H
	DB	00H
	DB	00H
	DB	00H
	DB	00H
	DB	00H
	DB	00H
	DB	00H
	DB	00H
	DB	00H
	DB	0fH
	DB	065H
	DB	088H
	DB	05bH
	DB	0dH
	DB	016H
	DB	08aH
	DB	034H
	DB	010H
	DB	06H
	DB	06dH
	DB	03H
	DB	03H
	DB	03H
	DB	03H
	DB	03H
	DB	03H
	DB	07cH
	DB	01H
	DB	038H
	DB	038H
	DB	038H
	DB	038H
	DB	038H
	DB	02H
	DB	02H
	DB	02H
	DB	02H
	DB	02H
	DB	02H
	DB	02H
	DB	032H
	DB	05H
	DB	067H
	DB	067H
	DB	067H
	DB	067H
	DB	07H
	DB	05H
	DB	05H
	DB	05H
	DB	067H
	DB	067H
	DB	067H
	DB	07H
	DB	07H
	DB	0b8H
	DB	070H
	DB	05H
	DB	05H
	DB	032H
	DB	01H
	DB	07cH
	DB	03H
	DB	03H
	DB	03H
	DB	00H
	DB	00H
	DB	00H
	DB	00H
	DB	00H
	DB	00H
	DB	00H
	DB	00H
	DB	00H
	DB	00H
	DB	00H
	DB	00H
	DB	00H
	DB	00H
	DB	00H
	DB	00H
	DB	00H
	DB	00H
	DB	00H
	DB	00H
	DB	00H
	DB	00H
	DB	00H
	DB	00H
	DB	02cH
	DB	03fH
	DB	088H
	DB	03fH
	DB	040H
	DB	016H
	DB	0a1H
	DB	0f6H
	DB	010H
	DB	010H
	DB	06H
	DB	036H
	DB	07cH
	DB	03H
	DB	03H
	DB	03H
	DB	03H
	DB	03H
	DB	03H
	DB	03H
	DB	01H
	DB	038H
	DB	02H
	DB	02H
	DB	02H
	DB	02H
	DB	02H
	DB	02H
	DB	02H
	DB	02H
	DB	032H
	DB	032H
	DB	032H
	DB	07H
	DB	07H
	DB	07H
	DB	07H
	DB	07H
	DB	05H
	DB	05H
	DB	05H
	DB	07H
	DB	067H
	DB	07H
	DB	07H
	DB	0b8H
	DB	0b8H
	DB	070H
	DB	05H
	DB	05H
	DB	032H
	DB	038H
	DB	07cH
	DB	07cH
	DB	03H
	DB	03H
	DB	00H
	DB	00H
	DB	00H
	DB	00H
	DB	00H
	DB	00H
	DB	00H
	DB	00H
	DB	00H
	DB	00H
	DB	00H
	DB	00H
	DB	00H
	DB	00H
	DB	00H
	DB	00H
	DB	00H
	DB	00H
	DB	00H
	DB	00H
	DB	00H
	DB	00H
	DB	00H
	DB	00H
	DB	00H
	DB	06dH
	DB	026H
	DB	022H
	DB	03eH
	DB	016H
	DB	016H
	DB	0a3H
	DB	034H
	DB	010H
	DB	06H
	DB	06H
	DB	034H
	DB	038H
	DB	0c7H
	DB	0c7H
	DB	03H
	DB	03H
	DB	03H
	DB	03H
	DB	03H
	DB	03H
	DB	01H
	DB	038H
	DB	02H
	DB	02H
	DB	02H
	DB	02H
	DB	032H
	DB	032H
	DB	032H
	DB	032H
	DB	032H
	DB	07H
	DB	07H
	DB	07H
	DB	07H
	DB	07H
	DB	05H
	DB	05H
	DB	05H
	DB	070H
	DB	07H
	DB	07H
	DB	07H
	DB	0b8H
	DB	070H
	DB	05H
	DB	05H
	DB	032H
	DB	032H
	DB	038H
	DB	07cH
	DB	03H
	DB	03H
	DB	03H
	DB	0c7H
	DB	00H
	DB	00H
	DB	00H
	DB	00H
	DB	00H
	DB	00H
	DB	00H
	DB	00H
	DB	00H
	DB	00H
	DB	00H
	DB	00H
	DB	00H
	DB	00H
	DB	00H
	DB	00H
	DB	00H
	DB	00H
	DB	00H
	DB	00H
	DB	00H
	DB	00H
	DB	00H
	DB	00H
	DB	02dH
	DB	065H
	DB	022H
	DB	06H
	DB	0dH
	DB	016H
	DB	0a1H
	DB	0bdH
	DB	010H
	DB	06H
	DB	06H
	DB	01dH
	DB	09cH
	DB	02H
	DB	03H
	DB	0c7H
	DB	03H
	DB	03H
	DB	03H
	DB	03H
	DB	03H
	DB	03H
	DB	03H
	DB	07cH
	DB	01H
	DB	038H
	DB	02H
	DB	02H
	DB	032H
	DB	032H
	DB	032H
	DB	05H
	DB	0b8H
	DB	07H
	DB	07H
	DB	07H
	DB	07H
	DB	05H
	DB	05H
	DB	05H
	DB	070H
	DB	07H
	DB	07H
	DB	0b8H
	DB	070H
	DB	070H
	DB	05H
	DB	05H
	DB	032H
	DB	032H
	DB	038H
	DB	07cH
	DB	03H
	DB	03H
	DB	03H
	DB	0c7H
	DB	00H
	DB	00H
	DB	00H
	DB	00H
	DB	00H
	DB	00H
	DB	00H
	DB	00H
	DB	00H
	DB	00H
	DB	00H
	DB	00H
	DB	00H
	DB	00H
	DB	00H
	DB	00H
	DB	00H
	DB	00H
	DB	00H
	DB	00H
	DB	00H
	DB	00H
	DB	00H
	DB	00H
	DB	0fH
	DB	03fH
	DB	022H
	DB	01dH
	DB	028H
	DB	016H
	DB	016H
	DB	0a3H
	DB	075H
	DB	010H
	DB	06H
	DB	0aH
	DB	0cH
	DB	0b5H
	DB	03cH
	DB	02H
	DB	03H
	DB	0c7H
	DB	03H
	DB	03H
	DB	03H
	DB	03H
	DB	03H
	DB	07cH
	DB	07cH
	DB	01H
	DB	01H
	DB	01H
	DB	038H
	DB	02H
	DB	032H
	DB	032H
	DB	0b8H
	DB	07H
	DB	07H
	DB	07H
	DB	07H
	DB	070H
	DB	05H
	DB	05H
	DB	05H
	DB	07H
	DB	07H
	DB	0b8H
	DB	070H
	DB	05H
	DB	05H
	DB	05H
	DB	032H
	DB	02H
	DB	038H
	DB	07cH
	DB	03H
	DB	03H
	DB	03H
	DB	0c7H
	DB	00H
	DB	00H
	DB	00H
	DB	00H
	DB	00H
	DB	00H
	DB	00H
	DB	00H
	DB	00H
	DB	00H
	DB	00H
	DB	00H
	DB	00H
	DB	00H
	DB	00H
	DB	00H
	DB	00H
	DB	00H
	DB	00H
	DB	00H
	DB	00H
	DB	00H
	DB	00H
	DB	00H
	DB	02cH
	DB	034H
	DB	022H
	DB	0aH
	DB	06H
	DB	0dH
	DB	016H
	DB	016H
	DB	0c5H
	DB	042H
	DB	06H
	DB	06H
	DB	0f2H
	DB	0cH
	DB	022H
	DB	067H
	DB	070H
	DB	01H
	DB	03H
	DB	0c7H
	DB	03H
	DB	03H
	DB	03H
	DB	07cH
	DB	07cH
	DB	01H
	DB	01H
	DB	01H
	DB	01H
	DB	038H
	DB	038H
	DB	038H
	DB	032H
	DB	05H
	DB	070H
	DB	070H
	DB	0b8H
	DB	070H
	DB	05H
	DB	05H
	DB	05H
	DB	0b8H
	DB	0b8H
	DB	070H
	DB	05H
	DB	05H
	DB	032H
	DB	02H
	DB	02H
	DB	038H
	DB	038H
	DB	07cH
	DB	03H
	DB	03H
	DB	03H
	DB	0c7H
	DB	00H
	DB	00H
	DB	00H
	DB	00H
	DB	00H
	DB	00H
	DB	00H
	DB	00H
	DB	00H
	DB	00H
	DB	00H
	DB	00H
	DB	00H
	DB	00H
	DB	00H
	DB	00H
	DB	00H
	DB	00H
	DB	00H
	DB	00H
	DB	00H
	DB	00H
	DB	00H
	DB	00H
	DB	00H
	DB	036H
	DB	03fH
	DB	0aH
	DB	010H
	DB	040H
	DB	016H
	DB	016H
	DB	0a3H
	DB	04eH
	DB	010H
	DB	06H
	DB	0cH
	DB	014H
	DB	0cH
	DB	05bH
	DB	0f7H
	DB	031H
	DB	070H
	DB	038H
	DB	03H
	DB	0c7H
	DB	03H
	DB	07cH
	DB	07cH
	DB	01H
	DB	01H
	DB	01H
	DB	01H
	DB	038H
	DB	038H
	DB	038H
	DB	02H
	DB	032H
	DB	032H
	DB	032H
	DB	032H
	DB	032H
	DB	032H
	DB	032H
	DB	032H
	DB	05H
	DB	05H
	DB	032H
	DB	032H
	DB	032H
	DB	02H
	DB	02H
	DB	038H
	DB	038H
	DB	01H
	DB	07cH
	DB	03H
	DB	03H
	DB	03H
	DB	00H
	DB	00H
	DB	00H
	DB	00H
	DB	00H
	DB	00H
	DB	00H
	DB	00H
	DB	00H
	DB	00H
	DB	00H
	DB	00H
	DB	00H
	DB	00H
	DB	00H
	DB	00H
	DB	00H
	DB	00H
	DB	00H
	DB	00H
	DB	00H
	DB	00H
	DB	00H
	DB	00H
	DB	00H
	DB	00H
	DB	02dH
	DB	0aH
	DB	03fH
	DB	010H
	DB	06H
	DB	0dH
	DB	016H
	DB	016H
	DB	0c5H
	DB	034H
	DB	06H
	DB	022H
	DB	05bH
	DB	014H
	DB	014H
	DB	0cH
	DB	04eH
	DB	0c0H
	DB	017H
	DB	070H
	DB	038H
	DB	07cH
	DB	03H
	DB	03H
	DB	07cH
	DB	01H
	DB	01H
	DB	01H
	DB	038H
	DB	038H
	DB	038H
	DB	02H
	DB	032H
	DB	032H
	DB	032H
	DB	032H
	DB	032H
	DB	02H
	DB	032H
	DB	032H
	DB	032H
	DB	032H
	DB	032H
	DB	032H
	DB	02H
	DB	02H
	DB	02H
	DB	038H
	DB	038H
	DB	01H
	DB	01H
	DB	03H
	DB	03H
	DB	0c7H
	DB	00H
	DB	00H
	DB	00H
	DB	00H
	DB	00H
	DB	00H
	DB	00H
	DB	00H
	DB	00H
	DB	00H
	DB	00H
	DB	00H
	DB	00H
	DB	00H
	DB	00H
	DB	00H
	DB	00H
	DB	00H
	DB	00H
	DB	00H
	DB	00H
	DB	00H
	DB	00H
	DB	00H
	DB	00H
	DB	00H
	DB	02cH
	DB	042H
	DB	0aH
	DB	01dH
	DB	010H
	DB	028H
	DB	016H
	DB	016H
	DB	0a1H
	DB	0bdH
	DB	034H
	DB	067H
	DB	0b8H
	DB	05bH
	DB	014H
	DB	014H
	DB	0b6H
	DB	0cH
	DB	0eH
	DB	0a5H
	DB	035H
	DB	017H
	DB	070H
	DB	02H
	DB	01H
	DB	07cH
	DB	01H
	DB	01H
	DB	038H
	DB	038H
	DB	038H
	DB	02H
	DB	02H
	DB	02H
	DB	02H
	DB	032H
	DB	032H
	DB	032H
	DB	032H
	DB	032H
	DB	032H
	DB	032H
	DB	032H
	DB	02H
	DB	02H
	DB	02H
	DB	038H
	DB	038H
	DB	01H
	DB	01H
	DB	07cH
	DB	03H
	DB	01H
	DB	01H
	DB	00H
	DB	00H
	DB	00H
	DB	00H
	DB	00H
	DB	00H
	DB	00H
	DB	00H
	DB	00H
	DB	00H
	DB	00H
	DB	00H
	DB	00H
	DB	00H
	DB	00H
	DB	00H
	DB	00H
	DB	00H
	DB	00H
	DB	00H
	DB	00H
	DB	00H
	DB	00H
	DB	00H
	DB	00H
	DB	00H
	DB	00H
	DB	02dH
	DB	0aH
	DB	01dH
	DB	010H
	DB	06H
	DB	0bH
	DB	016H
	DB	016H
	DB	0a3H
	DB	075H
	DB	0ecH
	DB	0b8H
	DB	022H
	DB	0eH
	DB	0eH
	DB	023H
	DB	014H
	DB	0b6H
	DB	0b6H
	DB	0eH
	DB	05dH
	DB	0c4H
	DB	035H
	DB	017H
	DB	070H
	DB	02H
	DB	038H
	DB	01H
	DB	01H
	DB	038H
	DB	038H
	DB	02H
	DB	02H
	DB	02H
	DB	02H
	DB	02H
	DB	02H
	DB	032H
	DB	032H
	DB	032H
	DB	032H
	DB	032H
	DB	02H
	DB	02H
	DB	038H
	DB	038H
	DB	038H
	DB	01H
	DB	01H
	DB	07cH
	DB	01H
	DB	03cH
	DB	0d6H
	DB	00H
	DB	00H
	DB	00H
	DB	00H
	DB	00H
	DB	00H
	DB	00H
	DB	00H
	DB	00H
	DB	00H
	DB	00H
	DB	00H
	DB	00H
	DB	00H
	DB	00H
	DB	00H
	DB	00H
	DB	00H
	DB	00H
	DB	00H
	DB	00H
	DB	00H
	DB	00H
	DB	00H
	DB	00H
	DB	00H
	DB	00H
	DB	02cH
	DB	042H
	DB	0aH
	DB	010H
	DB	010H
	DB	03eH
	DB	016H
	DB	016H
	DB	016H
	DB	0c5H
	DB	034H
	DB	01dH
	DB	0cH
	DB	023H
	DB	023H
	DB	023H
	DB	023H
	DB	023H
	DB	023H
	DB	0b6H
	DB	0b6H
	DB	014H
	DB	076H
	DB	0feH
	DB	024H
	DB	0a6H
	DB	035H
	DB	067H
	DB	070H
	DB	060H
	DB	02H
	DB	02H
	DB	02H
	DB	02H
	DB	02H
	DB	02H
	DB	02H
	DB	02H
	DB	02H
	DB	02H
	DB	02H
	DB	02H
	DB	02H
	DB	038H
	DB	038H
	DB	038H
	DB	01H
	DB	01H
	DB	038H
	DB	060H
	DB	07H
	DB	074H
	DB	036H
	DB	00H
	DB	00H
	DB	00H
	DB	00H
	DB	00H
	DB	00H
	DB	00H
	DB	00H
	DB	00H
	DB	00H
	DB	00H
	DB	00H
	DB	00H
	DB	00H
	DB	00H
	DB	00H
	DB	00H
	DB	00H
	DB	00H
	DB	00H
	DB	00H
	DB	00H
	DB	00H
	DB	00H
	DB	00H
	DB	00H
	DB	00H
	DB	00H
	DB	0fH
	DB	01dH
	DB	01dH
	DB	010H
	DB	06H
	DB	040H
	DB	016H
	DB	016H
	DB	07aH
	DB	09eH
	DB	06H
	DB	09H
	DB	014H
	DB	023H
	DB	023H
	DB	023H
	DB	023H
	DB	023H
	DB	023H
	DB	023H
	DB	018H
	DB	0b6H
	DB	0b6H
	DB	018H
	DB	026H
	DB	044H
	DB	0c6H
	DB	0ffH
	DB	06aH
	DB	024H
	DB	07bH
	DB	031H
	DB	07H
	DB	070H
	DB	05H
	DB	05H
	DB	05H
	DB	032H
	DB	032H
	DB	032H
	DB	032H
	DB	032H
	DB	032H
	DB	032H
	DB	032H
	DB	05H
	DB	070H
	DB	067H
	DB	067H
	DB	074H
	DB	01dH
	DB	036H
	DB	00H
	DB	00H
	DB	00H
	DB	00H
	DB	00H
	DB	00H
	DB	00H
	DB	00H
	DB	00H
	DB	00H
	DB	00H
	DB	00H
	DB	00H
	DB	00H
	DB	00H
	DB	00H
	DB	00H
	DB	00H
	DB	00H
	DB	00H
	DB	00H
	DB	00H
	DB	00H
	DB	00H
	DB	00H
	DB	00H
	DB	00H
	DB	00H
	DB	00H
	DB	0fH
	DB	0aH
	DB	0aH
	DB	010H
	DB	03eH
	DB	0dH
	DB	016H
	DB	0dH
	DB	08aH
	DB	05bH
	DB	06H
	DB	09H
	DB	014H
	DB	04H
	DB	023H
	DB	023H
	DB	023H
	DB	023H
	DB	023H
	DB	04H
	DB	04H
	DB	023H
	DB	018H
	DB	018H
	DB	0b6H
	DB	018H
	DB	018H
	DB	04H
	DB	02bH
	DB	053H
	DB	05eH
	DB	0c6H
	DB	0c6H
	DB	0a6H
	DB	024H
	DB	024H
	DB	035H
	DB	035H
	DB	07bH
	DB	017H
	DB	017H
	DB	017H
	DB	017H
	DB	017H
	DB	017H
	DB	0a4H
	DB	04eH
	DB	0aH
	DB	06H
	DB	010H
	DB	02dH
	DB	00H
	DB	00H
	DB	00H
	DB	00H
	DB	00H
	DB	00H
	DB	00H
	DB	00H
	DB	00H
	DB	00H
	DB	00H
	DB	00H
	DB	00H
	DB	00H
	DB	00H
	DB	00H
	DB	00H
	DB	00H
	DB	00H
	DB	00H
	DB	00H
	DB	00H
	DB	00H
	DB	00H
	DB	00H
	DB	00H
	DB	00H
	DB	00H
	DB	00H
	DB	00H
	DB	02dH
	DB	0aH
	DB	0aH
	DB	010H
	DB	028H
	DB	0dH
	DB	0dH
	DB	016H
	DB	0fbH
	DB	04bH
	DB	09H
	DB	09H
	DB	023H
	DB	037H
	DB	04H
	DB	04H
	DB	04H
	DB	04H
	DB	04H
	DB	04H
	DB	04H
	DB	04H
	DB	04H
	DB	04H
	DB	043H
	DB	043H
	DB	018H
	DB	018H
	DB	018H
	DB	018H
	DB	018H
	DB	023H
	DB	023H
	DB	076H
	DB	026H
	DB	026H
	DB	09fH
	DB	09fH
	DB	09fH
	DB	0f7H
	DB	0f7H
	DB	04eH
	DB	022H
	DB	05bH
	DB	0aH
	DB	03eH
	DB	03eH
	DB	0cH
	DB	03fH
	DB	0fH
	DB	00H
	DB	00H
	DB	00H
	DB	00H
	DB	00H
	DB	00H
	DB	00H
	DB	00H
	DB	00H
	DB	00H
	DB	00H
	DB	00H
	DB	00H
	DB	00H
	DB	00H
	DB	00H
	DB	00H
	DB	00H
	DB	00H
	DB	00H
	DB	00H
	DB	00H
	DB	00H
	DB	00H
	DB	00H
	DB	00H
	DB	00H
	DB	00H
	DB	00H
	DB	00H
	DB	00H
	DB	02dH
	DB	0aH
	DB	03fH
	DB	01dH
	DB	01cH
	DB	0dH
	DB	0dH
	DB	07aH
	DB	09eH
	DB	03eH
	DB	09H
	DB	01aH
	DB	023H
	DB	037H
	DB	04H
	DB	04H
	DB	04H
	DB	04H
	DB	04H
	DB	04H
	DB	04H
	DB	04H
	DB	04H
	DB	04H
	DB	04H
	DB	0cH
	DB	01dH
	DB	0cH
	DB	0cH
	DB	0cH
	DB	0b6H
	DB	0b6H
	DB	0b6H
	DB	0b6H
	DB	0b6H
	DB	0b6H
	DB	0b6H
	DB	0b6H
	DB	01aH
	DB	01aH
	DB	01aH
	DB	01aH
	DB	0cH
	DB	0cH
	DB	0cH
	DB	0cH
	DB	0cH
	DB	01dH
	DB	02cH
	DB	00H
	DB	00H
	DB	00H
	DB	00H
	DB	00H
	DB	00H
	DB	00H
	DB	00H
	DB	00H
	DB	00H
	DB	00H
	DB	00H
	DB	00H
	DB	00H
	DB	00H
	DB	00H
	DB	00H
	DB	00H
	DB	00H
	DB	00H
	DB	00H
	DB	00H
	DB	00H
	DB	00H
	DB	00H
	DB	00H
	DB	00H
	DB	00H
	DB	00H
	DB	00H
	DB	00H
	DB	00H
	DB	02dH
	DB	0aH
	DB	03fH
	DB	0cH
	DB	0bH
	DB	0dH
	DB	0dH
	DB	07aH
	DB	073H
	DB	028H
	DB	019H
	DB	01aH
	DB	023H
	DB	037H
	DB	037H
	DB	037H
	DB	04H
	DB	04H
	DB	04H
	DB	04H
	DB	04H
	DB	04H
	DB	04H
	DB	04H
	DB	023H
	DB	0f2H
	DB	0aH
	DB	0aH
	DB	01dH
	DB	01dH
	DB	01dH
	DB	06H
	DB	06H
	DB	01dH
	DB	01dH
	DB	01dH
	DB	01dH
	DB	01dH
	DB	014H
	DB	014H
	DB	014H
	DB	0cH
	DB	0cH
	DB	0cH
	DB	0cH
	DB	0cH
	DB	042H
	DB	02cH
	DB	00H
	DB	00H
	DB	00H
	DB	00H
	DB	00H
	DB	00H
	DB	00H
	DB	00H
	DB	00H
	DB	00H
	DB	00H
	DB	00H
	DB	00H
	DB	00H
	DB	00H
	DB	00H
	DB	00H
	DB	00H
	DB	00H
	DB	00H
	DB	00H
	DB	00H
	DB	00H
	DB	00H
	DB	00H
	DB	00H
	DB	00H
	DB	00H
	DB	00H
	DB	00H
	DB	00H
	DB	00H
	DB	00H
	DB	0fH
	DB	01dH
	DB	0f2H
	DB	043H
	DB	0dH
	DB	0dH
	DB	0dH
	DB	079H
	DB	087H
	DB	01cH
	DB	0bH
	DB	019H
	DB	018H
	DB	04H
	DB	037H
	DB	037H
	DB	037H
	DB	037H
	DB	04H
	DB	04H
	DB	04H
	DB	04H
	DB	04H
	DB	04H
	DB	04H
	DB	037H
	DB	02bH
	DB	02bH
	DB	02bH
	DB	088H
	DB	026H
	DB	065H
	DB	0eH
	DB	0eH
	DB	0f2H
	DB	0f2H
	DB	0cH
	DB	014H
	DB	014H
	DB	014H
	DB	014H
	DB	014H
	DB	0cH
	DB	0cH
	DB	0cH
	DB	036H
	DB	00H
	DB	00H
	DB	00H
	DB	00H
	DB	00H
	DB	00H
	DB	00H
	DB	00H
	DB	00H
	DB	00H
	DB	00H
	DB	00H
	DB	00H
	DB	00H
	DB	00H
	DB	00H
	DB	00H
	DB	00H
	DB	00H
	DB	00H
	DB	00H
	DB	00H
	DB	00H
	DB	00H
	DB	00H
	DB	00H
	DB	00H
	DB	00H
	DB	00H
	DB	00H
	DB	00H
	DB	00H
	DB	00H
	DB	00H
	DB	00H
	DB	02cH
	DB	036H
	DB	028H
	DB	0bH
	DB	0bH
	DB	0bH
	DB	0dH
	DB	078H
	DB	03eH
	DB	013H
	DB	019H
	DB	0bH
	DB	0bH
	DB	066H
	DB	037H
	DB	037H
	DB	04fH
	DB	04fH
	DB	037H
	DB	037H
	DB	04H
	DB	04H
	DB	04H
	DB	04H
	DB	04H
	DB	04H
	DB	04H
	DB	04H
	DB	04H
	DB	04H
	DB	04H
	DB	04H
	DB	04H
	DB	023H
	DB	023H
	DB	023H
	DB	023H
	DB	014H
	DB	014H
	DB	014H
	DB	014H
	DB	014H
	DB	0f2H
	DB	0cH
	DB	0fH
	DB	00H
	DB	00H
	DB	00H
	DB	00H
	DB	00H
	DB	00H
	DB	00H
	DB	00H
	DB	00H
	DB	00H
	DB	00H
	DB	00H
	DB	00H
	DB	00H
	DB	00H
	DB	00H
	DB	00H
	DB	00H
	DB	00H
	DB	00H
	DB	00H
	DB	00H
	DB	00H
	DB	00H
	DB	00H
	DB	00H
	DB	00H
	DB	00H
	DB	00H
	DB	00H
	DB	00H
	DB	00H
	DB	00H
	DB	00H
	DB	00H
	DB	00H
	DB	00H
	DB	036H
	DB	01cH
	DB	0bH
	DB	0bH
	DB	0bH
	DB	0dH
	DB	0f9H
	DB	03eH
	DB	0eeH
	DB	013H
	DB	01cH
	DB	0bH
	DB	0bH
	DB	066H
	DB	079H
	DB	016H
	DB	04fH
	DB	04fH
	DB	037H
	DB	037H
	DB	037H
	DB	037H
	DB	037H
	DB	04H
	DB	04H
	DB	04H
	DB	04H
	DB	04H
	DB	04H
	DB	04H
	DB	04H
	DB	023H
	DB	023H
	DB	023H
	DB	023H
	DB	023H
	DB	0eH
	DB	0eH
	DB	0eH
	DB	014H
	DB	014H
	DB	0aH
	DB	02cH
	DB	00H
	DB	00H
	DB	00H
	DB	00H
	DB	00H
	DB	00H
	DB	00H
	DB	00H
	DB	00H
	DB	00H
	DB	00H
	DB	00H
	DB	00H
	DB	00H
	DB	00H
	DB	00H
	DB	00H
	DB	00H
	DB	00H
	DB	00H
	DB	00H
	DB	00H
	DB	00H
	DB	00H
	DB	00H
	DB	00H
	DB	00H
	DB	00H
	DB	00H
	DB	00H
	DB	00H
	DB	00H
	DB	00H
	DB	00H
	DB	00H
	DB	00H
	DB	00H
	DB	00H
	DB	07dH
	DB	0bH
	DB	0bH
	DB	0bH
	DB	0bH
	DB	079H
	DB	0f9H
	DB	03eH
	DB	0eeH
	DB	0eeH
	DB	013H
	DB	019H
	DB	01cH
	DB	0bH
	DB	016H
	DB	0dH
	DB	016H
	DB	079H
	DB	04H
	DB	04H
	DB	04H
	DB	04H
	DB	04H
	DB	04H
	DB	04H
	DB	04H
	DB	04H
	DB	04H
	DB	023H
	DB	023H
	DB	023H
	DB	023H
	DB	014H
	DB	014H
	DB	0cH
	DB	0cH
	DB	0cH
	DB	014H
	DB	0eH
	DB	0eH
	DB	036H
	DB	00H
	DB	00H
	DB	00H
	DB	00H
	DB	00H
	DB	00H
	DB	00H
	DB	00H
	DB	00H
	DB	00H
	DB	00H
	DB	00H
	DB	00H
	DB	00H
	DB	00H
	DB	00H
	DB	00H
	DB	00H
	DB	00H
	DB	00H
	DB	00H
	DB	00H
	DB	00H
	DB	00H
	DB	00H
	DB	00H
	DB	00H
	DB	00H
	DB	00H
	DB	00H
	DB	00H
	DB	00H
	DB	00H
	DB	00H
	DB	00H
	DB	00H
	DB	00H
	DB	00H
	DB	00H
	DB	00H
	DB	0cbH
	DB	087H
	DB	0bH
	DB	0bH
	DB	0bH
	DB	079H
	DB	040H
	DB	06H
	DB	09H
	DB	0efH
	DB	0f0H
	DB	0f1H
	DB	013H
	DB	019H
	DB	01cH
	DB	0dH
	DB	0dH
	DB	019H
	DB	019H
	DB	01cH
	DB	01cH
	DB	019H
	DB	0b6H
	DB	0b6H
	DB	013H
	DB	013H
	DB	0bH
	DB	0bH
	DB	019H
	DB	09H
	DB	09H
	DB	09H
	DB	09H
	DB	09H
	DB	09H
	DB	09H
	DB	03eH
	DB	0f2H
	DB	0f2H
	DB	02dH
	DB	00H
	DB	00H
	DB	00H
	DB	00H
	DB	00H
	DB	00H
	DB	00H
	DB	00H
	DB	00H
	DB	00H
	DB	00H
	DB	00H
	DB	00H
	DB	00H
	DB	00H
	DB	00H
	DB	00H
	DB	00H
	DB	00H
	DB	00H
	DB	00H
	DB	00H
	DB	00H
	DB	00H
	DB	00H
	DB	00H
	DB	00H
	DB	00H
	DB	00H
	DB	00H
	DB	00H
	DB	00H
	DB	00H
	DB	00H
	DB	00H
	DB	00H
	DB	00H
	DB	00H
	DB	00H
	DB	00H
	DB	00H
	DB	02cH
	DB	057H
	DB	040H
	DB	0bH
	DB	0bH
	DB	0bH
	DB	09bH
	DB	0aH
	DB	03eH
	DB	09H
	DB	0eeH
	DB	0f1H
	DB	0f1H
	DB	0f1H
	DB	013H
	DB	019H
	DB	01cH
	DB	01cH
	DB	0dH
	DB	01cH
	DB	01cH
	DB	0bH
	DB	01cH
	DB	01cH
	DB	0bH
	DB	016H
	DB	0bH
	DB	019H
	DB	09H
	DB	09H
	DB	09H
	DB	09H
	DB	09H
	DB	09H
	DB	09H
	DB	06H
	DB	06H
	DB	042H
	DB	02cH
	DB	00H
	DB	00H
	DB	00H
	DB	00H
	DB	00H
	DB	00H
	DB	00H
	DB	00H
	DB	00H
	DB	00H
	DB	00H
	DB	00H
	DB	00H
	DB	00H
	DB	00H
	DB	00H
	DB	00H
	DB	00H
	DB	00H
	DB	00H
	DB	00H
	DB	00H
	DB	00H
	DB	00H
	DB	00H
	DB	00H
	DB	00H
	DB	00H
	DB	00H
	DB	00H
	DB	00H
	DB	00H
	DB	00H
	DB	00H
	DB	00H
	DB	00H
	DB	00H
	DB	00H
	DB	00H
	DB	00H
	DB	00H
	DB	00H
	DB	00H
	DB	02cH
	DB	09aH
	DB	040H
	DB	0bH
	DB	0bH
	DB	076H
	DB	037H
	DB	0eH
	DB	0cH
	DB	09H
	DB	09H
	DB	0eeH
	DB	0f1H
	DB	0f1H
	DB	013H
	DB	019H
	DB	01cH
	DB	013H
	DB	013H
	DB	019H
	DB	019H
	DB	01cH
	DB	0bH
	DB	0bH
	DB	0bH
	DB	019H
	DB	09H
	DB	09H
	DB	09H
	DB	09H
	DB	09H
	DB	09H
	DB	06H
	DB	06H
	DB	01dH
	DB	02dH
	DB	00H
	DB	00H
	DB	00H
	DB	00H
	DB	00H
	DB	00H
	DB	00H
	DB	00H
	DB	00H
	DB	00H
	DB	00H
	DB	00H
	DB	00H
	DB	00H
	DB	00H
	DB	00H
	DB	00H
	DB	00H
	DB	00H
	DB	00H
	DB	00H
	DB	00H
	DB	00H
	DB	00H
	DB	00H
	DB	00H
	DB	00H
	DB	00H
	DB	00H
	DB	00H
	DB	00H
	DB	00H
	DB	00H
	DB	00H
	DB	00H
	DB	00H
	DB	00H
	DB	00H
	DB	00H
	DB	00H
	DB	00H
	DB	00H
	DB	00H
	DB	00H
	DB	00H
	DB	00H
	DB	0cbH
	DB	09aH
	DB	040H
	DB	09bH
	DB	014H
	DB	037H
	DB	02bH
	DB	026H
	DB	0eH
	DB	0cH
	DB	09H
	DB	09H
	DB	0eeH
	DB	0eeH
	DB	0f1H
	DB	0f1H
	DB	0f1H
	DB	0efH
	DB	0efH
	DB	0efH
	DB	0eeH
	DB	0eeH
	DB	0eeH
	DB	09H
	DB	09H
	DB	09H
	DB	09H
	DB	09H
	DB	09H
	DB	06H
	DB	06H
	DB	0aH
	DB	01dH
	DB	02cH
	DB	00H
	DB	00H
	DB	00H
	DB	00H
	DB	00H
	DB	00H
	DB	00H
	DB	00H
	DB	00H
	DB	00H
	DB	00H
	DB	00H
	DB	00H
	DB	00H
	DB	00H
	DB	00H
	DB	00H
	DB	00H
	DB	00H
	DB	00H
	DB	00H
	DB	00H
	DB	00H
	DB	00H
	DB	00H
	DB	00H
	DB	00H
	DB	00H
	DB	00H
	DB	00H
	DB	00H
	DB	00H
	DB	00H
	DB	00H
	DB	00H
	DB	00H
	DB	00H
	DB	00H
	DB	00H
	DB	00H
	DB	00H
	DB	00H
	DB	00H
	DB	00H
	DB	00H
	DB	00H
	DB	00H
	DB	00H
	DB	02cH
	DB	0cbH
	DB	02dH
	DB	06H
	DB	0b6H
	DB	04H
	DB	02bH
	DB	044H
	DB	044H
	DB	026H
	DB	0eH
	DB	0aH
	DB	06H
	DB	09H
	DB	09H
	DB	09H
	DB	0eeH
	DB	0eeH
	DB	0eeH
	DB	0eeH
	DB	09H
	DB	09H
	DB	09H
	DB	09H
	DB	06H
	DB	06H
	DB	06H
	DB	0aH
	DB	0f2H
	DB	01dH
	DB	0fH
	DB	00H
	DB	00H
	DB	00H
	DB	00H
	DB	00H
	DB	00H
	DB	00H
	DB	00H
	DB	00H
	DB	00H
	DB	00H
	DB	00H
	DB	00H
	DB	00H
	DB	00H
	DB	00H
	DB	00H
	DB	00H
	DB	00H
	DB	00H
	DB	00H
	DB	00H
	DB	00H
	DB	00H
	DB	00H
	DB	00H
	DB	00H
	DB	00H
	DB	00H
	DB	00H
	DB	00H
	DB	00H
	DB	00H
	DB	00H
	DB	00H
	DB	00H
	DB	00H
	DB	00H
	DB	00H
	DB	00H
	DB	00H
	DB	00H
	DB	00H
	DB	00H
	DB	00H
	DB	00H
	DB	00H
	DB	00H
	DB	00H
	DB	00H
	DB	00H
	DB	00H
	DB	02cH
	DB	02dH
	DB	010H
	DB	01aH
	DB	014H
	DB	04H
	DB	02bH
	DB	044H
	DB	044H
	DB	044H
	DB	026H
	DB	0eH
	DB	0cH
	DB	0aH
	DB	06H
	DB	06H
	DB	06H
	DB	06H
	DB	06H
	DB	01dH
	DB	01dH
	DB	0aH
	DB	0f2H
	DB	0f2H
	DB	0cH
	DB	01dH
	DB	0fH
	DB	00H
	DB	00H
	DB	00H
	DB	00H
	DB	00H
	DB	00H
	DB	00H
	DB	00H
	DB	00H
	DB	00H
	DB	00H
	DB	00H
	DB	00H
	DB	00H
	DB	00H
	DB	00H
	DB	00H
	DB	00H
	DB	00H
	DB	00H
	DB	00H
	DB	00H
	DB	00H
	DB	00H
	DB	00H
	DB	00H
	DB	00H
	DB	00H
	DB	00H
	DB	00H
	DB	00H
	DB	00H
	DB	00H
	DB	00H
	DB	00H
	DB	00H
	DB	00H
	DB	00H
	DB	00H
	DB	00H
	DB	00H
	DB	00H
	DB	00H
	DB	00H
	DB	00H
	DB	00H
	DB	00H
	DB	00H
	DB	00H
	DB	00H
	DB	00H
	DB	00H
	DB	00H
	DB	00H
	DB	00H
	DB	00H
	DB	02cH
	DB	02dH
	DB	04bH
	DB	03eH
	DB	014H
	DB	04H
	DB	02bH
	DB	053H
	DB	053H
	DB	053H
	DB	053H
	DB	044H
	DB	044H
	DB	044H
	DB	026H
	DB	0eH
	DB	0eH
	DB	0eH
	DB	014H
	DB	0cH
	DB	01dH
	DB	036H
	DB	02cH
	DB	00H
	DB	00H
	DB	00H
	DB	00H
	DB	00H
	DB	00H
	DB	00H
	DB	00H
	DB	00H
	DB	00H
	DB	00H
	DB	00H
	DB	00H
	DB	00H
	DB	00H
	DB	00H
	DB	00H
	DB	00H
	DB	00H
	DB	00H
	DB	00H
	DB	00H
	DB	00H
	DB	00H
	DB	00H
	DB	00H
	DB	00H
	DB	00H
	DB	00H
	DB	00H
	DB	00H
	DB	00H
	DB	00H
	DB	00H
	DB	00H
	DB	00H
	DB	00H
	DB	00H
	DB	00H
	DB	00H
	DB	00H
	DB	00H
	DB	00H
	DB	00H
	DB	00H
	DB	00H
	DB	00H
	DB	00H
	DB	00H
	DB	00H
	DB	00H
	DB	00H
	DB	00H
	DB	00H
	DB	00H
	DB	00H
	DB	00H
	DB	00H
	DB	00H
	DB	00H
	DB	02cH
	DB	02dH
	DB	036H
	DB	04bH
	DB	05bH
	DB	0eH
	DB	037H
	DB	02bH
	DB	044H
	DB	053H
	DB	053H
	DB	023H
	DB	01aH
	DB	01aH
	DB	03eH
	DB	010H
	DB	036H
	DB	0fH
	DB	00H
	DB	00H
	DB	00H
	DB	00H
	DB	00H
	DB	00H
	DB	00H
	DB	00H
	DB	00H
	DB	00H
	DB	00H
	DB	00H
	DB	00H
	DB	00H
	DB	00H
	DB	00H
	DB	00H
	DB	00H
	DB	00H
	DB	00H
	DB	00H
	DB	00H
	DB	00H
	DB	00H
	DB	00H
	DB	00H
	DB	00H
	DB	00H
	DB	00H
	DB	00H
	DB	00H
	DB	00H
	DB	00H
	DB	00H
	DB	00H
	DB	00H
	DB	00H
	DB	00H
	DB	00H
	DB	00H
	DB	00H
	DB	00H
	DB	00H
	DB	00H
	DB	00H
	DB	00H
	DB	00H
	DB	00H
	DB	00H
	DB	00H
	DB	00H
	DB	00H
	DB	00H
	DB	00H
	DB	00H
	DB	00H
	DB	00H
	DB	00H
	DB	00H
	DB	00H
	DB	00H
	DB	00H
	DB	00H
	DB	00H
	DB	00H
	DB	00H
	DB	02cH
	DB	0fH
	DB	02dH
	DB	02dH
	DB	057H
	DB	057H
	DB	057H
	DB	02dH
	DB	02dH
	DB	0fH
	DB	02cH
	DB	02cH
	DB	00H
	DB	00H
	DB	00H
	DB	00H
	DB	00H
	DB	00H
	DB	00H
	DB	00H
	DB	00H
	DB	00H
	DB	00H
	DB	00H
	DB	00H
	DB	00H
	DB	00H
	DB	00H
	DB	00H
	DB	00H
	DB	00H
	DB	00H
	DB	00H
	DB	00H
	DB	00H
	DB	00H
	DB	00H
	DB	00H
	DB	00H
	DB	00H
	DB	00H
	DB	00H
	DB	00H
	DB	00H
	DB	00H
	DB	00H
	DB	00H
	DB	00H
	DB	00H
	DB	00H
	DB	00H
	DB	00H
	DB	00H
	DB	00H
	DB	00H
	DB	00H
	DB	00H
	DB	00H
	DB	00H
	DB	00H
	DB	00H
	DB	00H
	DB	00H
	DB	00H
	DB	00H
	DB	00H
	DB	00H
	DB	00H
	DB	00H
	DB	00H
	DB	00H
	DB	00H
	DB	00H
	DB	00H
	DB	00H
	DB	00H
	DB	00H
	DB	00H
	DB	00H
	DB	00H
	DB	00H
	DB	00H
	DB	00H
	DB	00H
	DB	00H
	DB	00H
	DB	00H
	DB	00H
	DB	00H
	DB	00H
	DB	00H
	DB	00H
	DB	00H
	DB	00H
	DB	00H
	DB	00H
	DB	00H
	DB	00H
	DB	00H
	DB	00H
	DB	00H
	DB	00H
	DB	00H
	DB	00H
	DB	00H
	DB	00H
	DB	00H
	DB	00H
	DB	00H
	DB	00H
	DB	00H
	DB	00H
	DB	00H
	DB	00H
	DB	00H
	DB	00H
	DB	00H
	DB	00H
	DB	00H
	DB	00H
	DB	00H
	DB	00H
	DB	00H
	DB	00H
	DB	00H
	DB	00H
	DB	00H
	DB	00H
	DB	00H
	DB	00H
	DB	00H
	DB	00H
	DB	00H
	DB	00H
	DB	00H
	DB	00H
	DB	00H
	DB	00H
	DB	00H
	DB	00H
	DB	00H
	DB	00H
	DB	00H
	DB	00H
	DB	00H
	DB	00H
	DB	00H
	DB	00H
	DB	00H
	DB	00H
	DB	00H
	DB	00H
	DB	00H
	DB	00H
	DB	00H
	DB	00H
	DB	00H
	DB	00H
	DB	00H
	DB	00H
	DB	00H
	DB	00H
	DB	00H
	DB	00H
	DB	00H
	DB	00H
	DB	00H
	DB	00H
	DB	00H
	DB	00H
	DB	00H
	DB	00H
	DB	00H
	DB	00H
	DB	00H
	DB	00H
	DB	00H
	DB	00H
	DB	00H
	DB	00H
	DB	00H
	DB	00H
	DB	00H
	DB	00H
	DB	00H
	DB	00H
	DB	00H
	DB	00H
	DB	00H
	DB	00H
	DB	00H
	DB	00H
	DB	00H
	DB	00H
	DB	00H
	DB	00H
	DB	00H
	DB	00H
	DB	00H
	DB	00H
	DB	00H
	DB	00H
	DB	00H
	DB	00H
	DB	00H
	DB	00H
	DB	00H
	DB	00H
	DB	00H
	DB	00H
	DB	00H
	DB	00H
	DB	00H
	DB	00H
	DB	00H
	DB	00H
	DB	00H
	DB	00H
	DB	00H
	DB	00H
	DB	00H
	DB	00H
	DB	00H
	DB	00H
	DB	00H
	DB	00H
	DB	00H
	DB	00H
	DB	00H
	DB	00H
	DB	00H
	DB	00H
	DB	00H
	DB	00H
	DB	00H
	DB	00H
	DB	00H
	DB	00H
	DB	00H
	DB	00H
	DB	00H
	DB	00H
	DB	00H
	DB	00H
	DB	00H
	DB	00H
	DB	00H
	DB	00H
	DB	00H
	DB	00H
	DB	00H
	DB	00H
	DB	00H
	DB	00H
	DB	00H
	DB	00H
	DB	00H
	DB	00H
	DB	00H
	DB	00H
	DB	00H
	DB	00H
	DB	00H
	DB	00H
	DB	00H
	DB	00H
	DB	00H
	DB	00H
	DB	00H
	DB	00H
	DB	00H
	DB	00H
	DB	00H
	DB	00H
	DB	00H
	DB	00H
	DB	00H
	DB	00H
	DB	00H
	DB	00H
	DB	00H
	DB	00H
	DB	00H
	DB	00H
	DB	00H
	DB	00H
	DB	00H
	DB	00H
	DB	00H
	DB	00H
	DB	00H
	DB	00H
	DB	00H
	DB	00H
	DB	00H
	DB	00H
	DB	00H
	DB	00H
	DB	00H
	DB	00H
	DB	00H
	DB	00H
	DB	00H
	DB	00H
	DB	00H
	DB	00H
	DB	00H
	DB	00H
	DB	00H
	DB	00H
	DB	00H
	DB	00H
	DB	00H
	DB	00H
	DB	00H
	DB	00H
	DB	00H
	DB	00H
	DB	00H
	DB	00H
	DB	00H
	DB	00H
	DB	00H
	DB	00H
	DB	00H
	DB	00H
	DB	00H
	DB	00H
	DB	00H
	DB	00H
	DB	00H
	DB	00H
	DB	00H
	DB	00H
	DB	00H
	DB	00H
	DB	00H
	DB	00H
	DB	00H
	DB	00H
	DB	00H
	DB	00H
	DB	00H
	DB	00H
	DB	00H
	DB	00H
	DB	00H
	DB	00H
	DB	00H
	DB	00H
	DB	00H
	DB	00H
	DB	00H
	DB	00H
	DB	00H
	DB	00H
	DB	00H
	DB	00H
	DB	00H
	DB	00H
	DB	00H
	DB	00H
	DB	00H
	DB	00H
	DB	00H
	DB	00H
	DB	00H
	DB	00H
	DB	00H
	DB	00H
	DB	00H
	DB	00H
	DB	00H
	DB	00H
	DB	00H
	DB	00H
	DB	00H
	DB	00H
	DB	00H
	DB	00H
	DB	00H
	DB	00H
	DB	00H
	DB	00H
	DB	00H
	DB	00H
	DB	00H
	DB	00H
	DB	00H
	DB	00H
	DB	00H
	DB	00H
	DB	00H
	DB	00H
	DB	00H
	DB	00H
	DB	00H
	DB	00H
	DB	00H
	DB	00H
	DB	00H
	DB	00H
	DB	00H
	DB	00H
	DB	00H
	DB	00H
	DB	00H
	DB	00H
	DB	00H
	DB	00H
	DB	00H
	DB	00H
	DB	00H
	DB	00H
	DB	00H
	DB	00H
	DB	00H
	DB	00H
	DB	00H
	DB	00H
	DB	00H
	DB	00H
	DB	00H
	DB	00H
	DB	00H
	DB	00H
	DB	00H
	DB	00H
	DB	00H
	DB	00H
	DB	00H
	DB	00H
	DB	00H
	DB	00H
	DB	00H
	DB	00H
	DB	00H
	DB	00H
	DB	00H
	DB	00H
	DB	00H
	DB	00H
	DB	00H
	DB	00H
	DB	00H
	DB	00H
	DB	00H
	DB	00H
	DB	00H
	DB	00H
	DB	00H
	DB	00H
	DB	00H
	DB	00H
	DB	00H
	DB	00H
	DB	00H
	DB	00H
	DB	00H
	DB	00H
	DB	00H
	DB	00H
	DB	00H
	DB	00H
	DB	00H
	DB	00H
	DB	00H
	DB	00H
	DB	00H
	DB	00H
	DB	00H
	DB	00H
	DB	00H
	DB	00H
	DB	00H
	DB	00H
	DB	00H
	DB	00H
	DB	00H
	DB	00H
	DB	00H
	DB	00H
	DB	00H
	DB	00H
	DB	00H
	DB	00H
	DB	00H
	DB	00H
	DB	00H
	DB	00H
	DB	00H
	DB	00H
	DB	00H
	DB	00H
	DB	00H
	DB	00H
	DB	00H
	DB	00H
	DB	00H
	DB	00H
	DB	00H
	DB	00H
	DB	00H
	DB	00H
	DB	00H
	DB	00H
	DB	00H
	DB	00H
	DB	00H
	DB	00H
	DB	00H
	DB	00H
	DB	00H
	DB	00H
	DB	00H
	DB	00H
	DB	00H
	DB	00H
	DB	00H
	DB	00H
	DB	00H
	DB	00H
	DB	00H
	DB	00H
	DB	00H
	DB	00H
	DB	00H
	DB	00H
	DB	00H
	DB	00H
	DB	00H
	DB	00H
	DB	00H
	DB	00H
	DB	00H
	DB	00H
	DB	00H
	DB	00H
	DB	00H
	DB	00H
	DB	00H
	DB	00H
	DB	00H
	DB	00H
	DB	00H
	DB	00H
	DB	00H
	DB	00H
	DB	00H
	DB	00H
	DB	00H
	DB	00H
	DB	00H
	DB	00H
	DB	00H
	DB	00H
	DB	00H
	DB	00H
	DB	00H
	DB	00H
	DB	00H
	DB	00H
	DB	00H
	DB	00H
	DB	00H
	DB	00H
	DB	00H
	DB	00H
	DB	00H
	DB	00H
	DB	00H
	DB	00H
	DB	00H
	DB	00H
	DB	00H
	DB	00H
	DB	00H
	DB	00H
	DB	00H
	DB	00H
	DB	00H
	DB	00H
	DB	00H
	DB	00H
	DB	00H
	DB	00H
	DB	00H
	DB	00H
	DB	00H
	DB	00H
	DB	00H
	DB	00H
	DB	00H
	DB	00H
CONST	ENDS
END
