; Listing generated by Microsoft (R) Optimizing Compiler Version 16.00.40219.01 

	TITLE	C:\DUII\Simulation\GUI\Widget\DROPDOWN_Skin.c
	.686P
	.XMM
	include listing.inc
	.model	flat

INCLUDELIB LIBCMT
INCLUDELIB OLDNAMES

EXTRN	_DROPDOWN__DefaultProps:BYTE
_DATA	SEGMENT
__Skin	DD	FLAT:__Paint
	DD	FLAT:__Create
	DD	FLAT:_DROPDOWN__DefaultProps+48
_DATA	ENDS
EXTRN	_DROPDOWN__GetpItemLocked:PROC
EXTRN	_WM_GetClientRectEx:PROC
EXTRN	_GUI_ALLOC_UnlockH:PROC
EXTRN	_DROPDOWN_LockH:PROC
EXTRN	@_RTC_CheckStackVars@8:PROC
EXTRN	__RTC_CheckEsp:PROC
EXTRN	__RTC_Shutdown:PROC
EXTRN	__RTC_InitBase:PROC
;	COMDAT rtc$TMZ
; File c:\duii\simulation\gui\widget\dropdown_skin.c
rtc$TMZ	SEGMENT
__RTC_Shutdown.rtc$TMZ DD FLAT:__RTC_Shutdown
rtc$TMZ	ENDS
;	COMDAT rtc$IMZ
rtc$IMZ	SEGMENT
__RTC_InitBase.rtc$IMZ DD FLAT:__RTC_InitBase
; Function compile flags: /Odtp /RTCsu /ZI
rtc$IMZ	ENDS
;	COMDAT __Paint
_TEXT	SEGMENT
_s$ = -100						; size = 4
_Sel$ = -88						; size = 4
_RectClient$ = -76					; size = 8
_ItemInfo$ = -60					; size = 32
_pfDrawSkin$ = -20					; size = 4
_pObj$ = -8						; size = 4
_hObj$ = 8						; size = 4
__Paint	PROC						; COMDAT
; Line 39
	push	ebp
	mov	ebp, esp
	sub	esp, 296				; 00000128H
	push	ebx
	push	esi
	push	edi
	lea	edi, DWORD PTR [ebp-296]
	mov	ecx, 74					; 0000004aH
	mov	eax, -858993460				; ccccccccH
	rep stosd
; Line 50
	mov	eax, DWORD PTR _hObj$[ebp]
	push	eax
	call	_DROPDOWN_LockH
	add	esp, 4
	mov	DWORD PTR _pObj$[ebp], eax
; Line 51
	mov	eax, DWORD PTR _pObj$[ebp]
	mov	ecx, DWORD PTR [eax+128]
	mov	DWORD PTR _pfDrawSkin$[ebp], ecx
; Line 52
	mov	eax, DWORD PTR _pObj$[ebp]
	movsx	ecx, WORD PTR [eax+56]
	mov	DWORD PTR _Sel$[ebp], ecx
; Line 53
	call	_GUI_ALLOC_UnlockH
	mov	DWORD PTR _pObj$[ebp], 0
; Line 54
	lea	eax, DWORD PTR _RectClient$[ebp]
	push	eax
	mov	ecx, DWORD PTR _hObj$[ebp]
	push	ecx
	call	_WM_GetClientRectEx
	add	esp, 8
; Line 58
	mov	DWORD PTR _ItemInfo$[ebp+4], 3
; Line 59
	mov	eax, DWORD PTR _hObj$[ebp]
	mov	DWORD PTR _ItemInfo$[ebp], eax
; Line 60
	movsx	eax, WORD PTR _RectClient$[ebp]
	mov	DWORD PTR _ItemInfo$[ebp+12], eax
; Line 61
	movsx	eax, WORD PTR _RectClient$[ebp+2]
	mov	DWORD PTR _ItemInfo$[ebp+16], eax
; Line 62
	movsx	eax, WORD PTR _RectClient$[ebp+4]
	mov	DWORD PTR _ItemInfo$[ebp+20], eax
; Line 63
	movsx	eax, WORD PTR _RectClient$[ebp+6]
	mov	DWORD PTR _ItemInfo$[ebp+24], eax
; Line 64
	mov	esi, esp
	lea	eax, DWORD PTR _ItemInfo$[ebp]
	push	eax
	call	DWORD PTR _pfDrawSkin$[ebp]
	add	esp, 4
	cmp	esi, esp
	call	__RTC_CheckEsp
; Line 68
	mov	eax, DWORD PTR _Sel$[ebp]
	push	eax
	mov	ecx, DWORD PTR _hObj$[ebp]
	push	ecx
	call	_DROPDOWN__GetpItemLocked
	add	esp, 8
	mov	DWORD PTR _s$[ebp], eax
; Line 69
	cmp	DWORD PTR _s$[ebp], 0
	je	SHORT $LN1@Paint
; Line 70
	mov	DWORD PTR _ItemInfo$[ebp+4], 16		; 00000010H
; Line 71
	mov	eax, DWORD PTR _s$[ebp]
	mov	DWORD PTR _ItemInfo$[ebp+28], eax
; Line 72
	mov	esi, esp
	lea	eax, DWORD PTR _ItemInfo$[ebp]
	push	eax
	call	DWORD PTR _pfDrawSkin$[ebp]
	add	esp, 4
	cmp	esi, esp
	call	__RTC_CheckEsp
; Line 73
	call	_GUI_ALLOC_UnlockH
	mov	DWORD PTR _s$[ebp], 0
$LN1@Paint:
; Line 78
	mov	DWORD PTR _ItemInfo$[ebp+4], 2
; Line 79
	mov	esi, esp
	lea	eax, DWORD PTR _ItemInfo$[ebp]
	push	eax
	call	DWORD PTR _pfDrawSkin$[ebp]
	add	esp, 4
	cmp	esi, esp
	call	__RTC_CheckEsp
; Line 80
	push	edx
	mov	ecx, ebp
	push	eax
	lea	edx, DWORD PTR $LN7@Paint
	call	@_RTC_CheckStackVars@8
	pop	eax
	pop	edx
	pop	edi
	pop	esi
	pop	ebx
	add	esp, 296				; 00000128H
	cmp	ebp, esp
	call	__RTC_CheckEsp
	mov	esp, ebp
	pop	ebp
	ret	0
	npad	1
$LN7@Paint:
	DD	2
	DD	$LN6@Paint
$LN6@Paint:
	DD	-60					; ffffffc4H
	DD	32					; 00000020H
	DD	$LN4@Paint
	DD	-76					; ffffffb4H
	DD	8
	DD	$LN5@Paint
$LN5@Paint:
	DB	82					; 00000052H
	DB	101					; 00000065H
	DB	99					; 00000063H
	DB	116					; 00000074H
	DB	67					; 00000043H
	DB	108					; 0000006cH
	DB	105					; 00000069H
	DB	101					; 00000065H
	DB	110					; 0000006eH
	DB	116					; 00000074H
	DB	0
$LN4@Paint:
	DB	73					; 00000049H
	DB	116					; 00000074H
	DB	101					; 00000065H
	DB	109					; 0000006dH
	DB	73					; 00000049H
	DB	110					; 0000006eH
	DB	102					; 00000066H
	DB	111					; 0000006fH
	DB	0
__Paint	ENDP
; Function compile flags: /Odtp /RTCsu /ZI
_TEXT	ENDS
;	COMDAT __Create
_TEXT	SEGMENT
_ItemInfo$ = -60					; size = 32
_pSkinPrivate$ = -20					; size = 4
_pObj$ = -8						; size = 4
_hObj$ = 8						; size = 4
__Create PROC						; COMDAT
; Line 86
	push	ebp
	mov	ebp, esp
	sub	esp, 256				; 00000100H
	push	ebx
	push	esi
	push	edi
	lea	edi, DWORD PTR [ebp-256]
	mov	ecx, 64					; 00000040H
	mov	eax, -858993460				; ccccccccH
	rep stosd
; Line 94
	mov	eax, DWORD PTR _hObj$[ebp]
	push	eax
	call	_DROPDOWN_LockH
	add	esp, 4
	mov	DWORD PTR _pObj$[ebp], eax
; Line 95
	mov	eax, DWORD PTR _pObj$[ebp]
	mov	ecx, DWORD PTR [eax+136]
	mov	edx, DWORD PTR [ecx+8]
	mov	DWORD PTR _pSkinPrivate$[ebp], edx
; Line 96
	call	_GUI_ALLOC_UnlockH
	mov	DWORD PTR _pObj$[ebp], 0
; Line 100
	mov	DWORD PTR _ItemInfo$[ebp+4], 0
; Line 101
	mov	eax, DWORD PTR _hObj$[ebp]
	mov	DWORD PTR _ItemInfo$[ebp], eax
; Line 102
	mov	esi, esp
	lea	eax, DWORD PTR _ItemInfo$[ebp]
	push	eax
	mov	ecx, DWORD PTR _pSkinPrivate$[ebp]
	mov	edx, DWORD PTR [ecx]
	call	edx
	add	esp, 4
	cmp	esi, esp
	call	__RTC_CheckEsp
; Line 103
	push	edx
	mov	ecx, ebp
	push	eax
	lea	edx, DWORD PTR $LN5@Create
	call	@_RTC_CheckStackVars@8
	pop	eax
	pop	edx
	pop	edi
	pop	esi
	pop	ebx
	add	esp, 256				; 00000100H
	cmp	ebp, esp
	call	__RTC_CheckEsp
	mov	esp, ebp
	pop	ebp
	ret	0
	npad	3
$LN5@Create:
	DD	1
	DD	$LN4@Create
$LN4@Create:
	DD	-60					; ffffffc4H
	DD	32					; 00000020H
	DD	$LN3@Create
$LN3@Create:
	DB	73					; 00000049H
	DB	116					; 00000074H
	DB	101					; 00000065H
	DB	109					; 0000006dH
	DB	73					; 00000049H
	DB	110					; 0000006eH
	DB	102					; 00000066H
	DB	111					; 0000006fH
	DB	0
__Create ENDP
_TEXT	ENDS
PUBLIC	_DROPDOWN_SetSkin
EXTRN	_WM_InvalidateWindow:PROC
EXTRN	_WM_SetHasTrans:PROC
; Function compile flags: /Odtp /RTCsu /ZI
;	COMDAT _DROPDOWN_SetSkin
_TEXT	SEGMENT
_pObj$ = -8						; size = 4
_hObj$ = 8						; size = 4
_pfDrawSkin$ = 12					; size = 4
_DROPDOWN_SetSkin PROC					; COMDAT
; Line 131
	push	ebp
	mov	ebp, esp
	sub	esp, 204				; 000000ccH
	push	ebx
	push	esi
	push	edi
	lea	edi, DWORD PTR [ebp-204]
	mov	ecx, 51					; 00000033H
	mov	eax, -858993460				; ccccccccH
	rep stosd
; Line 135
	mov	eax, DWORD PTR _hObj$[ebp]
	push	eax
	call	_DROPDOWN_LockH
	add	esp, 4
	mov	DWORD PTR _pObj$[ebp], eax
; Line 139
	mov	eax, DWORD PTR _pObj$[ebp]
	mov	DWORD PTR [eax+136], OFFSET __Skin
; Line 143
	mov	eax, DWORD PTR _pObj$[ebp]
	mov	ecx, DWORD PTR _pfDrawSkin$[ebp]
	mov	DWORD PTR [eax+128], ecx
; Line 144
	call	_GUI_ALLOC_UnlockH
	mov	DWORD PTR _pObj$[ebp], 0
; Line 148
	mov	eax, DWORD PTR _hObj$[ebp]
	push	eax
	call	_WM_SetHasTrans
	add	esp, 4
; Line 149
	mov	eax, DWORD PTR _hObj$[ebp]
	push	eax
	call	_WM_InvalidateWindow
	add	esp, 4
; Line 151
	pop	edi
	pop	esi
	pop	ebx
	add	esp, 204				; 000000ccH
	cmp	ebp, esp
	call	__RTC_CheckEsp
	mov	esp, ebp
	pop	ebp
	ret	0
_DROPDOWN_SetSkin ENDP
_TEXT	ENDS
PUBLIC	_DROPDOWN_SetDefaultSkin
EXTRN	_DROPDOWN__pSkinDefault:DWORD
; Function compile flags: /Odtp /RTCsu /ZI
;	COMDAT _DROPDOWN_SetDefaultSkin
_TEXT	SEGMENT
_pfDrawSkin$ = 8					; size = 4
_DROPDOWN_SetDefaultSkin PROC				; COMDAT
; Line 157
	push	ebp
	mov	ebp, esp
	sub	esp, 192				; 000000c0H
	push	ebx
	push	esi
	push	edi
	lea	edi, DWORD PTR [ebp-192]
	mov	ecx, 48					; 00000030H
	mov	eax, -858993460				; ccccccccH
	rep stosd
; Line 158
	mov	DWORD PTR _DROPDOWN__pSkinDefault, OFFSET __Skin
; Line 159
	mov	eax, DWORD PTR _pfDrawSkin$[ebp]
	mov	DWORD PTR _DROPDOWN__DefaultProps+48, eax
; Line 160
	pop	edi
	pop	esi
	pop	ebx
	mov	esp, ebp
	pop	ebp
	ret	0
_DROPDOWN_SetDefaultSkin ENDP
_TEXT	ENDS
END
