; Listing generated by Microsoft (R) Optimizing Compiler Version 16.00.40219.01 

	TITLE	C:\DUII\Simulation\GUI\Widget\DROPDOWN.c
	.686P
	.XMM
	include listing.inc
	.model	flat

INCLUDELIB LIBCMT
INCLUDELIB OLDNAMES

PUBLIC	_DROPDOWN__DefaultProps
PUBLIC	_DROPDOWN__pSkinDefault
EXTRN	_DROPDOWN__SkinClassic:BYTE
EXTRN	_GUI_Font13_1:BYTE
_DATA	SEGMENT
_DROPDOWN__DefaultProps DD FLAT:_GUI_Font13_1
	DD	0ffffffH
	DD	0808080H
	DD	0ff0000H
	DD	00H
	DD	0ffffffH
	DD	0ffffffH
	DD	00H
	DD	0c0c0c0H
	DD	0fffffffH
	DD	0fffffffH
	DD	0fffffffH
	DD	00H
	DW	02H
	DW	00H
_DROPDOWN__pSkinDefault DD FLAT:_DROPDOWN__SkinClassic
$SG13057 DB	'DROPDOWN.c: Wrong handle type or Object not init''ed', 00H
_DATA	ENDS
PUBLIC	_DROPDOWN__GetNumItems
EXTRN	_GUI_ARRAY_GetNumItems:PROC
EXTRN	__RTC_CheckEsp:PROC
EXTRN	__RTC_Shutdown:PROC
EXTRN	__RTC_InitBase:PROC
;	COMDAT rtc$TMZ
; File c:\duii\simulation\gui\widget\dropdown.c
rtc$TMZ	SEGMENT
__RTC_Shutdown.rtc$TMZ DD FLAT:__RTC_Shutdown
rtc$TMZ	ENDS
;	COMDAT rtc$IMZ
rtc$IMZ	SEGMENT
__RTC_InitBase.rtc$IMZ DD FLAT:__RTC_InitBase
; Function compile flags: /Odtp /RTCsu /ZI
rtc$IMZ	ENDS
;	COMDAT _DROPDOWN__GetNumItems
_TEXT	SEGMENT
_NumItems$ = -8						; size = 4
_pObj$ = 8						; size = 4
_DROPDOWN__GetNumItems PROC				; COMDAT
; Line 159
	push	ebp
	mov	ebp, esp
	sub	esp, 204				; 000000ccH
	push	ebx
	push	esi
	push	edi
	lea	edi, DWORD PTR [ebp-204]
	mov	ecx, 51					; 00000033H
	mov	eax, -858993460				; ccccccccH
	rep stosd
; Line 161
	mov	eax, DWORD PTR _pObj$[ebp]
	mov	ecx, DWORD PTR [eax+64]
	push	ecx
	call	_GUI_ARRAY_GetNumItems
	add	esp, 4
	mov	DWORD PTR _NumItems$[ebp], eax
; Line 162
	mov	eax, DWORD PTR _NumItems$[ebp]
; Line 163
	pop	edi
	pop	esi
	pop	ebx
	add	esp, 204				; 000000ccH
	cmp	ebp, esp
	call	__RTC_CheckEsp
	mov	esp, ebp
	pop	ebp
	ret	0
_DROPDOWN__GetNumItems ENDP
_TEXT	ENDS
PUBLIC	_DROPDOWN_LockH
PUBLIC	_DROPDOWN__GetpItemLocked
EXTRN	_GUI_ALLOC_LockH:PROC
EXTRN	_GUI_ALLOC_UnlockH:PROC
EXTRN	_GUI_ARRAY_GethItem:PROC
; Function compile flags: /Odtp /RTCsu /ZI
;	COMDAT _DROPDOWN__GetpItemLocked
_TEXT	SEGMENT
_h$ = -32						; size = 4
_s$ = -20						; size = 4
_pObj$ = -8						; size = 4
_hObj$ = 8						; size = 4
_Index$ = 12						; size = 4
_DROPDOWN__GetpItemLocked PROC				; COMDAT
; Line 263
	push	ebp
	mov	ebp, esp
	sub	esp, 228				; 000000e4H
	push	ebx
	push	esi
	push	edi
	lea	edi, DWORD PTR [ebp-228]
	mov	ecx, 57					; 00000039H
	mov	eax, -858993460				; ccccccccH
	rep stosd
; Line 268
	mov	DWORD PTR _s$[ebp], 0
; Line 269
	mov	eax, DWORD PTR _hObj$[ebp]
	push	eax
	call	_DROPDOWN_LockH
	add	esp, 4
	mov	DWORD PTR _pObj$[ebp], eax
; Line 270
	mov	eax, DWORD PTR _Index$[ebp]
	push	eax
	mov	ecx, DWORD PTR _pObj$[ebp]
	mov	edx, DWORD PTR [ecx+64]
	push	edx
	call	_GUI_ARRAY_GethItem
	add	esp, 8
	mov	DWORD PTR _h$[ebp], eax
; Line 271
	call	_GUI_ALLOC_UnlockH
	mov	DWORD PTR _pObj$[ebp], 0
; Line 272
	cmp	DWORD PTR _h$[ebp], 0
	je	SHORT $LN1@DROPDOWN__
; Line 273
	mov	eax, DWORD PTR _h$[ebp]
	push	eax
	call	_GUI_ALLOC_LockH
	add	esp, 4
	mov	DWORD PTR _s$[ebp], eax
$LN1@DROPDOWN__:
; Line 275
	mov	eax, DWORD PTR _s$[ebp]
; Line 276
	pop	edi
	pop	esi
	pop	ebx
	add	esp, 228				; 000000e4H
	cmp	ebp, esp
	call	__RTC_CheckEsp
	mov	esp, ebp
	pop	ebp
	ret	0
_DROPDOWN__GetpItemLocked ENDP
_TEXT	ENDS
EXTRN	_GUI_ErrorOut:PROC
; Function compile flags: /Odtp /RTCsu /ZI
;	COMDAT _DROPDOWN_LockH
_TEXT	SEGMENT
_p$ = -8						; size = 4
_h$ = 8							; size = 4
_DROPDOWN_LockH PROC					; COMDAT
; Line 283
	push	ebp
	mov	ebp, esp
	sub	esp, 204				; 000000ccH
	push	ebx
	push	esi
	push	edi
	lea	edi, DWORD PTR [ebp-204]
	mov	ecx, 51					; 00000033H
	mov	eax, -858993460				; ccccccccH
	rep stosd
; Line 284
	mov	eax, DWORD PTR _h$[ebp]
	push	eax
	call	_GUI_ALLOC_LockH
	add	esp, 4
	mov	DWORD PTR _p$[ebp], eax
; Line 285
	cmp	DWORD PTR _p$[ebp], 0
	je	SHORT $LN2@DROPDOWN_L
; Line 286
	mov	eax, DWORD PTR _p$[ebp]
	cmp	DWORD PTR [eax+156], 1146244944		; 44524f50H
	je	SHORT $LN2@DROPDOWN_L
; Line 287
	push	OFFSET $SG13057
	call	_GUI_ErrorOut
	add	esp, 4
; Line 288
	xor	eax, eax
	jmp	SHORT $LN3@DROPDOWN_L
$LN2@DROPDOWN_L:
; Line 291
	mov	eax, DWORD PTR _p$[ebp]
$LN3@DROPDOWN_L:
; Line 292
	pop	edi
	pop	esi
	pop	ebx
	add	esp, 204				; 000000ccH
	cmp	ebp, esp
	call	__RTC_CheckEsp
	mov	esp, ebp
	pop	ebp
	ret	0
_DROPDOWN_LockH ENDP
_TEXT	ENDS
PUBLIC	_DROPDOWN__AdjustHeight
EXTRN	_WM_SetSize:PROC
EXTRN	_WM__GetWindowSizeX:PROC
EXTRN	_GUI_GetYDistOfFont:PROC
; Function compile flags: /Odtp /RTCsu /ZI
;	COMDAT _DROPDOWN__AdjustHeight
_TEXT	SEGMENT
_pObj$ = -32						; size = 4
_xSize$ = -20						; size = 4
_Height$ = -8						; size = 4
_hObj$ = 8						; size = 4
_DROPDOWN__AdjustHeight PROC				; COMDAT
; Line 299
	push	ebp
	mov	ebp, esp
	sub	esp, 228				; 000000e4H
	push	ebx
	push	esi
	push	edi
	lea	edi, DWORD PTR [ebp-228]
	mov	ecx, 57					; 00000039H
	mov	eax, -858993460				; ccccccccH
	rep stosd
; Line 303
	mov	eax, DWORD PTR _hObj$[ebp]
	push	eax
	call	_DROPDOWN_LockH
	add	esp, 4
	mov	DWORD PTR _pObj$[ebp], eax
; Line 304
	mov	eax, DWORD PTR _pObj$[ebp]
	movsx	ecx, WORD PTR [eax+60]
	mov	DWORD PTR _Height$[ebp], ecx
; Line 305
	cmp	DWORD PTR _Height$[ebp], 0
	jne	SHORT $LN1@DROPDOWN__@2
; Line 306
	mov	eax, DWORD PTR _pObj$[ebp]
	mov	ecx, DWORD PTR [eax+80]
	push	ecx
	call	_GUI_GetYDistOfFont
	add	esp, 4
	mov	DWORD PTR _Height$[ebp], eax
$LN1@DROPDOWN__@2:
; Line 308
	mov	eax, DWORD PTR _pObj$[ebp]
	mov	ecx, DWORD PTR [eax+48]
	mov	edx, DWORD PTR _pObj$[ebp]
	movsx	eax, WORD PTR [edx+132]
	mov	ecx, DWORD PTR [ecx]
	lea	edx, DWORD PTR [ecx+eax*2]
	add	edx, DWORD PTR _Height$[ebp]
	mov	DWORD PTR _Height$[ebp], edx
; Line 309
	mov	eax, DWORD PTR _pObj$[ebp]
	push	eax
	call	_WM__GetWindowSizeX
	add	esp, 4
	mov	DWORD PTR _xSize$[ebp], eax
; Line 310
	call	_GUI_ALLOC_UnlockH
	mov	DWORD PTR _pObj$[ebp], 0
; Line 311
	mov	eax, DWORD PTR _Height$[ebp]
	push	eax
	mov	ecx, DWORD PTR _xSize$[ebp]
	push	ecx
	mov	edx, DWORD PTR _hObj$[ebp]
	push	edx
	call	_WM_SetSize
	add	esp, 12					; 0000000cH
; Line 312
	pop	edi
	pop	esi
	pop	ebx
	add	esp, 228				; 000000e4H
	cmp	ebp, esp
	call	__RTC_CheckEsp
	mov	esp, ebp
	pop	ebp
	ret	0
_DROPDOWN__AdjustHeight ENDP
_TEXT	ENDS
PUBLIC	_DROPDOWN_AddKey
PUBLIC	_DROPDOWN_Expand
PUBLIC	_DROPDOWN_Collapse
PUBLIC	_DROPDOWN_SetSel
PUBLIC	_DROPDOWN_Callback
EXTRN	_WM_DefaultProc:PROC
EXTRN	_WM_GetFocussedWindow:PROC
EXTRN	_WM_NotifyParent:PROC
EXTRN	_WM_SetFocus:PROC
EXTRN	_LISTBOX_GetSel:PROC
EXTRN	_WIDGET_HandleActive:PROC
; Function compile flags: /Odtp /RTCsu /ZI
;	COMDAT _DROPDOWN_Callback
_TEXT	SEGMENT
tv157 = -304						; size = 4
tv92 = -304						; size = 4
tv75 = -304						; size = 4
_Key$13110 = -104					; size = 4
_pInfo$13100 = -92					; size = 4
_Sel$13095 = -80					; size = 4
_Sel$13086 = -68					; size = 4
_Key$13083 = -56					; size = 4
_hListWin$ = -44					; size = 4
_IsExpandedBeforeMsg$ = -29				; size = 1
_pObj$ = -20						; size = 4
_hObj$ = -8						; size = 4
_pMsg$ = 8						; size = 4
_DROPDOWN_Callback PROC					; COMDAT
; Line 324
	push	ebp
	mov	ebp, esp
	sub	esp, 304				; 00000130H
	push	ebx
	push	esi
	push	edi
	lea	edi, DWORD PTR [ebp-304]
	mov	ecx, 76					; 0000004cH
	mov	eax, -858993460				; ccccccccH
	rep stosd
; Line 330
	mov	eax, DWORD PTR _pMsg$[ebp]
	mov	ecx, DWORD PTR [eax+4]
	mov	DWORD PTR _hObj$[ebp], ecx
; Line 331
	mov	eax, DWORD PTR _hObj$[ebp]
	push	eax
	call	_GUI_ALLOC_LockH
	add	esp, 4
	mov	DWORD PTR _pObj$[ebp], eax
; Line 332
	mov	eax, DWORD PTR _pObj$[ebp]
	mov	ecx, DWORD PTR [eax+140]
	mov	DWORD PTR _hListWin$[ebp], ecx
; Line 333
	call	_GUI_ALLOC_UnlockH
	mov	DWORD PTR _pObj$[ebp], 0
; Line 334
	xor	eax, eax
	cmp	DWORD PTR _hListWin$[ebp], 0
	setne	al
	mov	BYTE PTR _IsExpandedBeforeMsg$[ebp], al
; Line 336
	mov	eax, DWORD PTR _pMsg$[ebp]
	push	eax
	mov	ecx, DWORD PTR _hObj$[ebp]
	push	ecx
	call	_WIDGET_HandleActive
	add	esp, 8
	test	eax, eax
	jne	SHORT $LN30@DROPDOWN_C
; Line 337
	jmp	$LN31@DROPDOWN_C
$LN30@DROPDOWN_C:
; Line 339
	mov	eax, DWORD PTR _pMsg$[ebp]
	mov	ecx, DWORD PTR [eax]
	mov	DWORD PTR tv75[ebp], ecx
	mov	edx, DWORD PTR tv75[ebp]
	sub	edx, 11					; 0000000bH
	mov	DWORD PTR tv75[ebp], edx
	cmp	DWORD PTR tv75[ebp], 27			; 0000001bH
	ja	$LN28@DROPDOWN_C
	mov	eax, DWORD PTR tv75[ebp]
	movzx	ecx, BYTE PTR $LN33@DROPDOWN_C[eax]
	jmp	DWORD PTR $LN34@DROPDOWN_C[ecx*4]
$LN27@DROPDOWN_C:
; Line 342
	mov	eax, DWORD PTR _pMsg$[ebp]
	mov	ecx, DWORD PTR [eax+12]
	cmp	DWORD PTR [ecx+4], 0
	jle	SHORT $LN26@DROPDOWN_C
; Line 344
	mov	eax, DWORD PTR _pMsg$[ebp]
	mov	ecx, DWORD PTR [eax+12]
	mov	edx, DWORD PTR [ecx]
	mov	DWORD PTR _Key$13083[ebp], edx
; Line 345
	cmp	DWORD PTR _Key$13083[ebp], 13		; 0000000dH
	jne	SHORT $LN26@DROPDOWN_C
; Line 347
	mov	eax, DWORD PTR _hListWin$[ebp]
	push	eax
	call	_LISTBOX_GetSel
	add	esp, 4
	mov	DWORD PTR _Sel$13086[ebp], eax
; Line 348
	cmp	DWORD PTR _Sel$13086[ebp], 0
	jle	SHORT $LN24@DROPDOWN_C
; Line 349
	mov	eax, DWORD PTR _hListWin$[ebp]
	push	eax
	call	_LISTBOX_GetSel
	add	esp, 4
	push	eax
	mov	ecx, DWORD PTR _hObj$[ebp]
	push	ecx
	call	_DROPDOWN_SetSel
	add	esp, 8
$LN24@DROPDOWN_C:
; Line 351
	mov	eax, DWORD PTR _hObj$[ebp]
	push	eax
	call	_DROPDOWN_Collapse
	add	esp, 4
; Line 352
	mov	eax, DWORD PTR _hObj$[ebp]
	push	eax
	call	_WM_SetFocus
	add	esp, 4
$LN26@DROPDOWN_C:
; Line 355
	jmp	$LN28@DROPDOWN_C
$LN23@DROPDOWN_C:
; Line 357
	mov	eax, DWORD PTR _pMsg$[ebp]
	mov	ecx, DWORD PTR [eax+12]
	mov	DWORD PTR tv92[ebp], ecx
	cmp	DWORD PTR tv92[ebp], 1
	je	SHORT $LN19@DROPDOWN_C
	cmp	DWORD PTR tv92[ebp], 10			; 0000000aH
	je	SHORT $LN20@DROPDOWN_C
	cmp	DWORD PTR tv92[ebp], 11			; 0000000bH
	je	SHORT $LN17@DROPDOWN_C
	jmp	SHORT $LN21@DROPDOWN_C
$LN20@DROPDOWN_C:
; Line 359
	push	10					; 0000000aH
	mov	eax, DWORD PTR _hObj$[ebp]
	push	eax
	call	_WM_NotifyParent
	add	esp, 8
; Line 360
	jmp	SHORT $LN21@DROPDOWN_C
$LN19@DROPDOWN_C:
; Line 364
	mov	eax, DWORD PTR _hListWin$[ebp]
	push	eax
	call	_LISTBOX_GetSel
	add	esp, 4
	mov	DWORD PTR _Sel$13095[ebp], eax
; Line 365
	cmp	DWORD PTR _Sel$13095[ebp], 0
	jl	SHORT $LN18@DROPDOWN_C
; Line 366
	mov	eax, DWORD PTR _hListWin$[ebp]
	push	eax
	call	_LISTBOX_GetSel
	add	esp, 4
	push	eax
	mov	ecx, DWORD PTR _hObj$[ebp]
	push	ecx
	call	_DROPDOWN_SetSel
	add	esp, 8
; Line 367
	mov	eax, DWORD PTR _hObj$[ebp]
	push	eax
	call	_WM_SetFocus
	add	esp, 4
$LN18@DROPDOWN_C:
; Line 370
	jmp	SHORT $LN21@DROPDOWN_C
$LN17@DROPDOWN_C:
; Line 372
	mov	eax, DWORD PTR _hObj$[ebp]
	push	eax
	call	_DROPDOWN_Collapse
	add	esp, 4
$LN21@DROPDOWN_C:
; Line 375
	jmp	$LN28@DROPDOWN_C
$LN16@DROPDOWN_C:
; Line 377
	movzx	eax, BYTE PTR _IsExpandedBeforeMsg$[ebp]
	test	eax, eax
	jne	SHORT $LN15@DROPDOWN_C
; Line 378
	mov	eax, DWORD PTR _pMsg$[ebp]
	mov	ecx, DWORD PTR [eax+12]
	mov	DWORD PTR _pInfo$13100[ebp], ecx
; Line 379
	mov	eax, DWORD PTR _pInfo$13100[ebp]
	movzx	ecx, BYTE PTR [eax+8]
	test	ecx, ecx
	je	SHORT $LN15@DROPDOWN_C
; Line 380
	mov	eax, DWORD PTR _hObj$[ebp]
	push	eax
	call	_DROPDOWN_Expand
	add	esp, 4
$LN15@DROPDOWN_C:
; Line 383
	jmp	$LN28@DROPDOWN_C
$LN13@DROPDOWN_C:
; Line 385
	mov	eax, DWORD PTR _pMsg$[ebp]
	push	eax
	mov	ecx, DWORD PTR _hObj$[ebp]
	push	ecx
	call	__OnTouch
	add	esp, 8
	test	eax, eax
	jne	SHORT $LN12@DROPDOWN_C
; Line 386
	jmp	$LN31@DROPDOWN_C
$LN12@DROPDOWN_C:
; Line 388
	jmp	$LN28@DROPDOWN_C
$LN11@DROPDOWN_C:
; Line 390
	mov	eax, DWORD PTR _hObj$[ebp]
	push	eax
	call	__Paint
	add	esp, 4
; Line 391
	jmp	$LN28@DROPDOWN_C
$LN10@DROPDOWN_C:
; Line 393
	mov	eax, DWORD PTR _hObj$[ebp]
	push	eax
	call	__FreeAttached
	add	esp, 4
; Line 394
	jmp	SHORT $LN28@DROPDOWN_C
$LN9@DROPDOWN_C:
; Line 396
	mov	eax, DWORD PTR _pMsg$[ebp]
	mov	ecx, DWORD PTR [eax+12]
	cmp	DWORD PTR [ecx+4], 0
	jle	SHORT $LN28@DROPDOWN_C
; Line 397
	mov	eax, DWORD PTR _pMsg$[ebp]
	mov	ecx, DWORD PTR [eax+12]
	mov	edx, DWORD PTR [ecx]
	mov	DWORD PTR _Key$13110[ebp], edx
; Line 398
	mov	eax, DWORD PTR _Key$13110[ebp]
	mov	DWORD PTR tv157[ebp], eax
	cmp	DWORD PTR tv157[ebp], 9
	je	SHORT $LN3@DROPDOWN_C
	cmp	DWORD PTR tv157[ebp], 10		; 0000000aH
	je	SHORT $LN4@DROPDOWN_C
	cmp	DWORD PTR tv157[ebp], 32		; 00000020H
	je	SHORT $LN5@DROPDOWN_C
	jmp	SHORT $LN1@DROPDOWN_C
$LN5@DROPDOWN_C:
; Line 400
	mov	eax, DWORD PTR _hObj$[ebp]
	push	eax
	call	_DROPDOWN_Expand
	add	esp, 4
; Line 401
	jmp	SHORT $LN28@DROPDOWN_C
$LN4@DROPDOWN_C:
; Line 403
	jmp	SHORT $LN28@DROPDOWN_C
$LN3@DROPDOWN_C:
; Line 405
	call	_WM_GetFocussedWindow
	cmp	eax, DWORD PTR _hListWin$[ebp]
	jne	SHORT $LN2@DROPDOWN_C
; Line 406
	mov	eax, DWORD PTR _hObj$[ebp]
	push	eax
	call	_WM_SetFocus
	add	esp, 4
$LN2@DROPDOWN_C:
; Line 408
	jmp	SHORT $LN28@DROPDOWN_C
$LN1@DROPDOWN_C:
; Line 410
	mov	eax, DWORD PTR _Key$13110[ebp]
	push	eax
	mov	ecx, DWORD PTR _hObj$[ebp]
	push	ecx
	call	_DROPDOWN_AddKey
	add	esp, 8
; Line 411
	jmp	SHORT $LN31@DROPDOWN_C
$LN28@DROPDOWN_C:
; Line 416
	mov	eax, DWORD PTR _pMsg$[ebp]
	push	eax
	call	_WM_DefaultProc
	add	esp, 4
$LN31@DROPDOWN_C:
; Line 417
	pop	edi
	pop	esi
	pop	ebx
	add	esp, 304				; 00000130H
	cmp	ebp, esp
	call	__RTC_CheckEsp
	mov	esp, ebp
	pop	ebp
	ret	0
	npad	3
$LN34@DROPDOWN_C:
	DD	$LN10@DROPDOWN_C
	DD	$LN13@DROPDOWN_C
	DD	$LN9@DROPDOWN_C
	DD	$LN11@DROPDOWN_C
	DD	$LN16@DROPDOWN_C
	DD	$LN27@DROPDOWN_C
	DD	$LN23@DROPDOWN_C
	DD	$LN28@DROPDOWN_C
$LN33@DROPDOWN_C:
	DB	0
	DB	1
	DB	7
	DB	2
	DB	3
	DB	7
	DB	4
	DB	7
	DB	7
	DB	7
	DB	7
	DB	7
	DB	7
	DB	7
	DB	7
	DB	7
	DB	7
	DB	7
	DB	7
	DB	7
	DB	7
	DB	7
	DB	5
	DB	7
	DB	7
	DB	7
	DB	7
	DB	6
_DROPDOWN_Callback ENDP
_TEXT	ENDS
EXTRN	_GUI_ALLOC_Free:PROC
EXTRN	_WM_DeleteWindow:PROC
EXTRN	_GUI_ARRAY_Delete:PROC
; Function compile flags: /Odtp /RTCsu /ZI
;	COMDAT __FreeAttached
_TEXT	SEGMENT
_pObj$ = -8						; size = 4
_hObj$ = 8						; size = 4
__FreeAttached PROC					; COMDAT
; Line 206
	push	ebp
	mov	ebp, esp
	sub	esp, 204				; 000000ccH
	push	ebx
	push	esi
	push	edi
	lea	edi, DWORD PTR [ebp-204]
	mov	ecx, 51					; 00000033H
	mov	eax, -858993460				; ccccccccH
	rep stosd
; Line 208
	mov	eax, DWORD PTR _hObj$[ebp]
	push	eax
	call	_DROPDOWN_LockH
	add	esp, 4
	mov	DWORD PTR _pObj$[ebp], eax
; Line 209
	mov	eax, DWORD PTR _pObj$[ebp]
	mov	ecx, DWORD PTR [eax+64]
	push	ecx
	call	_GUI_ARRAY_Delete
	add	esp, 4
; Line 210
	mov	eax, DWORD PTR _pObj$[ebp]
	mov	ecx, DWORD PTR [eax+140]
	push	ecx
	call	_WM_DeleteWindow
	add	esp, 4
; Line 211
	mov	eax, DWORD PTR _pObj$[ebp]
	mov	ecx, DWORD PTR [eax+152]
	push	ecx
	call	_GUI_ALLOC_Free
	add	esp, 4
; Line 212
	call	_GUI_ALLOC_UnlockH
	mov	DWORD PTR _pObj$[ebp], 0
; Line 213
	pop	edi
	pop	esi
	pop	ebx
	add	esp, 204				; 000000ccH
	cmp	ebp, esp
	call	__RTC_CheckEsp
	mov	esp, ebp
	pop	ebp
	ret	0
__FreeAttached ENDP
; Function compile flags: /Odtp /RTCsu /ZI
_TEXT	ENDS
;	COMDAT __Paint
_TEXT	SEGMENT
_pfPaint$ = -20						; size = 4
_pObj$ = -8						; size = 4
_hObj$ = 8						; size = 4
__Paint	PROC						; COMDAT
; Line 219
	push	ebp
	mov	ebp, esp
	sub	esp, 216				; 000000d8H
	push	ebx
	push	esi
	push	edi
	lea	edi, DWORD PTR [ebp-216]
	mov	ecx, 54					; 00000036H
	mov	eax, -858993460				; ccccccccH
	rep stosd
; Line 223
	mov	eax, DWORD PTR _hObj$[ebp]
	push	eax
	call	_DROPDOWN_LockH
	add	esp, 4
	mov	DWORD PTR _pObj$[ebp], eax
; Line 224
	mov	eax, DWORD PTR _pObj$[ebp]
	mov	ecx, DWORD PTR [eax+136]
	mov	edx, DWORD PTR [ecx]
	mov	DWORD PTR _pfPaint$[ebp], edx
; Line 225
	call	_GUI_ALLOC_UnlockH
	mov	DWORD PTR _pObj$[ebp], 0
; Line 226
	cmp	DWORD PTR _pfPaint$[ebp], 0
	je	SHORT $LN2@Paint
; Line 227
	mov	esi, esp
	mov	eax, DWORD PTR _hObj$[ebp]
	push	eax
	call	DWORD PTR _pfPaint$[ebp]
	add	esp, 4
	cmp	esi, esp
	call	__RTC_CheckEsp
$LN2@Paint:
; Line 229
	pop	edi
	pop	esi
	pop	ebx
	add	esp, 216				; 000000d8H
	cmp	ebp, esp
	call	__RTC_CheckEsp
	mov	esp, ebp
	pop	ebp
	ret	0
__Paint	ENDP
; Function compile flags: /Odtp /RTCsu /ZI
_TEXT	ENDS
;	COMDAT __OnTouch
_TEXT	SEGMENT
_pState$ = -8						; size = 4
_hObj$ = 8						; size = 4
_pMsg$ = 12						; size = 4
__OnTouch PROC						; COMDAT
; Line 235
	push	ebp
	mov	ebp, esp
	sub	esp, 204				; 000000ccH
	push	ebx
	push	esi
	push	edi
	lea	edi, DWORD PTR [ebp-204]
	mov	ecx, 51					; 00000033H
	mov	eax, -858993460				; ccccccccH
	rep stosd
; Line 236
	mov	eax, DWORD PTR _pMsg$[ebp]
	mov	ecx, DWORD PTR [eax+12]
	mov	DWORD PTR _pState$[ebp], ecx
; Line 237
	mov	eax, DWORD PTR _pMsg$[ebp]
	cmp	DWORD PTR [eax+12], 0
	je	SHORT $LN4@OnTouch
; Line 238
	mov	eax, DWORD PTR _pState$[ebp]
	movzx	ecx, BYTE PTR [eax+8]
	test	ecx, ecx
	je	SHORT $LN3@OnTouch
; Line 239
	push	1
	mov	eax, DWORD PTR _hObj$[ebp]
	push	eax
	call	_WM_NotifyParent
	add	esp, 8
; Line 240
	jmp	SHORT $LN2@OnTouch
$LN3@OnTouch:
; Line 241
	push	2
	mov	eax, DWORD PTR _hObj$[ebp]
	push	eax
	call	_WM_NotifyParent
	add	esp, 8
$LN2@OnTouch:
; Line 243
	jmp	SHORT $LN1@OnTouch
$LN4@OnTouch:
; Line 244
	push	3
	mov	eax, DWORD PTR _hObj$[ebp]
	push	eax
	call	_WM_NotifyParent
	add	esp, 8
$LN1@OnTouch:
; Line 246
	xor	eax, eax
; Line 247
	pop	edi
	pop	esi
	pop	ebx
	add	esp, 204				; 000000ccH
	cmp	ebp, esp
	call	__RTC_CheckEsp
	mov	esp, ebp
	pop	ebp
	ret	0
__OnTouch ENDP
_TEXT	ENDS
PUBLIC	_DROPDOWN_CreateEx
EXTRN	_GUI_ARRAY_Create:PROC
EXTRN	_WIDGET__Init:PROC
EXTRN	_WM_CreateWindowAsChild:PROC
; Function compile flags: /Odtp /RTCsu /ZI
;	COMDAT _DROPDOWN_CreateEx
_TEXT	SEGMENT
_pObj$13143 = -32					; size = 4
_Handles$ = -20						; size = 4
_hObj$ = -8						; size = 4
_x0$ = 8						; size = 4
_y0$ = 12						; size = 4
_xsize$ = 16						; size = 4
_ysize$ = 20						; size = 4
_hParent$ = 24						; size = 4
_WinFlags$ = 28						; size = 4
_ExFlags$ = 32						; size = 4
_Id$ = 36						; size = 4
_DROPDOWN_CreateEx PROC					; COMDAT
; Line 431
	push	ebp
	mov	ebp, esp
	sub	esp, 228				; 000000e4H
	push	ebx
	push	esi
	push	edi
	lea	edi, DWORD PTR [ebp-228]
	mov	ecx, 57					; 00000039H
	mov	eax, -858993460				; ccccccccH
	rep stosd
; Line 436
	push	112					; 00000070H
	push	OFFSET _DROPDOWN_Callback
	mov	eax, DWORD PTR _WinFlags$[ebp]
	push	eax
	mov	ecx, DWORD PTR _hParent$[ebp]
	push	ecx
	push	-1
	mov	edx, DWORD PTR _xsize$[ebp]
	push	edx
	mov	eax, DWORD PTR _y0$[ebp]
	push	eax
	mov	ecx, DWORD PTR _x0$[ebp]
	push	ecx
	call	_WM_CreateWindowAsChild
	add	esp, 32					; 00000020H
	mov	DWORD PTR _hObj$[ebp], eax
; Line 437
	cmp	DWORD PTR _hObj$[ebp], 0
	je	$LN1@DROPDOWN_C@2
; Line 439
	mov	eax, DWORD PTR _hObj$[ebp]
	push	eax
	call	_GUI_ALLOC_LockH
	add	esp, 4
	mov	DWORD PTR _pObj$13143[ebp], eax
; Line 441
	push	16					; 00000010H
	mov	eax, DWORD PTR _Id$[ebp]
	push	eax
	mov	ecx, DWORD PTR _pObj$13143[ebp]
	push	ecx
	call	_WIDGET__Init
	add	esp, 12					; 0000000cH
; Line 442
	mov	eax, DWORD PTR _pObj$13143[ebp]
	mov	cl, BYTE PTR _ExFlags$[ebp]
	mov	BYTE PTR [eax+144], cl
; Line 443
	mov	edi, DWORD PTR _pObj$13143[ebp]
	add	edi, 80					; 00000050H
	mov	ecx, 14					; 0000000eH
	mov	esi, OFFSET _DROPDOWN__DefaultProps
	rep movsd
; Line 444
	mov	eax, DWORD PTR _pObj$13143[ebp]
	mov	ecx, DWORD PTR _DROPDOWN__pSkinDefault
	mov	DWORD PTR [eax+136], ecx
; Line 445
	mov	eax, DWORD PTR _pObj$13143[ebp]
	mov	BYTE PTR [eax+148], 0
; Line 446
	mov	eax, DWORD PTR _pObj$13143[ebp]
	mov	DWORD PTR [eax+156], 1146244944		; 44524f50H
; Line 447
	mov	eax, DWORD PTR _pObj$13143[ebp]
	mov	cx, WORD PTR _ysize$[ebp]
	mov	WORD PTR [eax+58], cx
; Line 448
	mov	eax, DWORD PTR _hObj$[ebp]
	push	eax
	call	_DROPDOWN__AdjustHeight
	add	esp, 4
; Line 450
	call	_GUI_ALLOC_UnlockH
	mov	DWORD PTR _pObj$13143[ebp], 0
; Line 451
	call	_GUI_ARRAY_Create
	mov	DWORD PTR _Handles$[ebp], eax
; Line 452
	mov	eax, DWORD PTR _hObj$[ebp]
	push	eax
	call	_DROPDOWN_LockH
	add	esp, 4
	mov	DWORD PTR _pObj$13143[ebp], eax
; Line 453
	mov	eax, DWORD PTR _pObj$13143[ebp]
	mov	ecx, DWORD PTR _Handles$[ebp]
	mov	DWORD PTR [eax+64], ecx
; Line 454
	call	_GUI_ALLOC_UnlockH
	mov	DWORD PTR _pObj$13143[ebp], 0
; Line 455
	mov	esi, esp
	mov	eax, DWORD PTR _hObj$[ebp]
	push	eax
	mov	ecx, DWORD PTR _DROPDOWN__pSkinDefault
	mov	edx, DWORD PTR [ecx+4]
	call	edx
	add	esp, 4
	cmp	esi, esp
	call	__RTC_CheckEsp
$LN1@DROPDOWN_C@2:
; Line 458
	mov	eax, DWORD PTR _hObj$[ebp]
; Line 459
	pop	edi
	pop	esi
	pop	ebx
	add	esp, 228				; 000000e4H
	cmp	ebp, esp
	call	__RTC_CheckEsp
	mov	esp, ebp
	pop	ebp
	ret	0
_DROPDOWN_CreateEx ENDP
_TEXT	ENDS
EXTRN	_WM_InvalidateWindow:PROC
; Function compile flags: /Odtp /RTCsu /ZI
;	COMDAT _DROPDOWN_Collapse
_TEXT	SEGMENT
_pObj$ = -8						; size = 4
_hObj$ = 8						; size = 4
_DROPDOWN_Collapse PROC					; COMDAT
; Line 471
	push	ebp
	mov	ebp, esp
	sub	esp, 204				; 000000ccH
	push	ebx
	push	esi
	push	edi
	lea	edi, DWORD PTR [ebp-204]
	mov	ecx, 51					; 00000033H
	mov	eax, -858993460				; ccccccccH
	rep stosd
; Line 473
	cmp	DWORD PTR _hObj$[ebp], 0
	je	SHORT $LN3@DROPDOWN_C@3
; Line 475
	mov	eax, DWORD PTR _hObj$[ebp]
	push	eax
	call	_DROPDOWN_LockH
	add	esp, 4
	mov	DWORD PTR _pObj$[ebp], eax
; Line 476
	mov	eax, DWORD PTR _pObj$[ebp]
	cmp	DWORD PTR [eax+140], 0
	je	SHORT $LN1@DROPDOWN_C@3
; Line 477
	mov	eax, DWORD PTR _pObj$[ebp]
	mov	ecx, DWORD PTR [eax+140]
	push	ecx
	call	_WM_DeleteWindow
	add	esp, 4
; Line 478
	mov	eax, DWORD PTR _pObj$[ebp]
	mov	DWORD PTR [eax+140], 0
; Line 479
	mov	eax, DWORD PTR _hObj$[ebp]
	push	eax
	call	_WM_InvalidateWindow
	add	esp, 4
$LN1@DROPDOWN_C@3:
; Line 481
	call	_GUI_ALLOC_UnlockH
	mov	DWORD PTR _pObj$[ebp], 0
$LN3@DROPDOWN_C@3:
; Line 484
	pop	edi
	pop	esi
	pop	ebx
	add	esp, 204				; 000000ccH
	cmp	ebp, esp
	call	__RTC_CheckEsp
	mov	esp, ebp
	pop	ebp
	ret	0
_DROPDOWN_Collapse ENDP
_TEXT	ENDS
PUBLIC	__$ArrayPad$
EXTRN	_LISTBOX_SetSel:PROC
EXTRN	_LISTBOX_SetOwner:PROC
EXTRN	_LISTBOX_SetTextAlign:PROC
EXTRN	_LISTBOX_SetFont:PROC
EXTRN	_LISTBOX_SetItemSpacing:PROC
EXTRN	_LISTBOX_SetItemDisabled:PROC
EXTRN	_LISTBOX_SetScrollbarColor:PROC
EXTRN	_LISTBOX_SetTextColor:PROC
EXTRN	_LISTBOX_SetBkColor:PROC
EXTRN	_LISTBOX_AddStringH:PROC
EXTRN	_LISTBOX_SetAutoScrollV:PROC
EXTRN	_LISTBOX_SetScrollbarWidth:PROC
EXTRN	_LISTBOX_CreateAsChild:PROC
EXTRN	_GUI_MoveRect:PROC
EXTRN	_WM_GetParent:PROC
EXTRN	_WM_GetWindowSizeX:PROC
EXTRN	___security_cookie:DWORD
EXTRN	@__security_check_cookie@4:PROC
EXTRN	@_RTC_CheckStackVars@8:PROC
; Function compile flags: /Odtp /RTCsu /ZI
;	COMDAT _DROPDOWN_Expand
_TEXT	SEGMENT
_hDisabled$ = -308					; size = 4
_aScrollbarColor$ = -296				; size = 12
_aTextColor$ = -276					; size = 12
_aBackColor$ = -256					; size = 12
_hString$ = -236					; size = 4
_pFont$ = -224						; size = 4
_Align$ = -212						; size = 2
_ItemSpacing$ = -200					; size = 2
_nDisabled$ = -188					; size = 2
_pDisabled$ = -176					; size = 4
_Handles$ = -164					; size = 4
_Sel$ = -152						; size = 2
_Flags$ = -137						; size = 1
_ScrollbarWidth$ = -125					; size = 1
_pObj$ = -116						; size = 4
_pParent$ = -104					; size = 4
_RectParent$ = -92					; size = 8
_r$ = -76						; size = 8
_hListWin$ = -60					; size = 4
_NumItems$ = -48					; size = 4
_i$ = -36						; size = 4
_ySize$ = -24						; size = 4
_xSize$ = -12						; size = 4
__$ArrayPad$ = -4					; size = 4
_hObj$ = 8						; size = 4
_DROPDOWN_Expand PROC					; COMDAT
; Line 490
	push	ebp
	mov	ebp, esp
	sub	esp, 504				; 000001f8H
	push	ebx
	push	esi
	push	edi
	lea	edi, DWORD PTR [ebp-504]
	mov	ecx, 126				; 0000007eH
	mov	eax, -858993460				; ccccccccH
	rep stosd
	mov	eax, DWORD PTR ___security_cookie
	xor	eax, ebp
	mov	DWORD PTR __$ArrayPad$[ebp], eax
; Line 515
	cmp	DWORD PTR _hObj$[ebp], 0
	jne	SHORT $LN29@DROPDOWN_E
; Line 516
	jmp	$LN30@DROPDOWN_E
$LN29@DROPDOWN_E:
; Line 522
	mov	eax, DWORD PTR _hObj$[ebp]
	push	eax
	call	_DROPDOWN_LockH
	add	esp, 4
	mov	DWORD PTR _pObj$[ebp], eax
; Line 523
	mov	eax, DWORD PTR _hObj$[ebp]
	push	eax
	call	_WM_GetWindowSizeX
	add	esp, 4
	mov	DWORD PTR _xSize$[ebp], eax
; Line 524
	mov	eax, DWORD PTR _pObj$[ebp]
	movsx	ecx, WORD PTR [eax+58]
	mov	DWORD PTR _ySize$[ebp], ecx
; Line 525
	mov	eax, DWORD PTR _pObj$[ebp]
	mov	cl, BYTE PTR [eax+148]
	mov	BYTE PTR _ScrollbarWidth$[ebp], cl
; Line 526
	mov	eax, DWORD PTR _pObj$[ebp]
	mov	ecx, DWORD PTR [eax+64]
	mov	DWORD PTR _Handles$[ebp], ecx
; Line 527
	mov	eax, DWORD PTR _pObj$[ebp]
	mov	cl, BYTE PTR [eax+144]
	mov	BYTE PTR _Flags$[ebp], cl
; Line 528
	mov	eax, DWORD PTR _pObj$[ebp]
	mov	cx, WORD PTR [eax+56]
	mov	WORD PTR _Sel$[ebp], cx
; Line 529
	mov	eax, DWORD PTR _pObj$[ebp]
	push	eax
	call	_DROPDOWN__GetNumItems
	add	esp, 4
	mov	DWORD PTR _NumItems$[ebp], eax
; Line 530
	mov	eax, DWORD PTR _pObj$[ebp]
	mov	cx, WORD PTR [eax+146]
	mov	WORD PTR _ItemSpacing$[ebp], cx
; Line 531
	mov	eax, DWORD PTR _pObj$[ebp]
	mov	cx, WORD PTR [eax+134]
	mov	WORD PTR _Align$[ebp], cx
; Line 532
	mov	eax, DWORD PTR _pObj$[ebp]
	mov	ecx, DWORD PTR [eax+80]
	mov	DWORD PTR _pFont$[ebp], ecx
; Line 533
	mov	eax, DWORD PTR _pObj$[ebp]
	mov	ecx, DWORD PTR [eax]
	mov	edx, DWORD PTR [eax+4]
	mov	DWORD PTR _r$[ebp], ecx
	mov	DWORD PTR _r$[ebp+4], edx
; Line 534
	mov	eax, DWORD PTR _pObj$[ebp]
	mov	ecx, DWORD PTR [eax+152]
	mov	DWORD PTR _hDisabled$[ebp], ecx
; Line 538
	mov	DWORD PTR _i$[ebp], 0
	jmp	SHORT $LN28@DROPDOWN_E
$LN27@DROPDOWN_E:
	mov	eax, DWORD PTR _i$[ebp]
	add	eax, 1
	mov	DWORD PTR _i$[ebp], eax
$LN28@DROPDOWN_E:
	cmp	DWORD PTR _i$[ebp], 3
	jae	SHORT $LN26@DROPDOWN_E
; Line 539
	mov	eax, DWORD PTR _i$[ebp]
	mov	ecx, DWORD PTR _i$[ebp]
	mov	edx, DWORD PTR _pObj$[ebp]
	mov	ecx, DWORD PTR [edx+ecx*4+84]
	mov	DWORD PTR _aBackColor$[ebp+eax*4], ecx
; Line 540
	jmp	SHORT $LN27@DROPDOWN_E
$LN26@DROPDOWN_E:
; Line 541
	mov	DWORD PTR _i$[ebp], 0
	jmp	SHORT $LN25@DROPDOWN_E
$LN24@DROPDOWN_E:
	mov	eax, DWORD PTR _i$[ebp]
	add	eax, 1
	mov	DWORD PTR _i$[ebp], eax
$LN25@DROPDOWN_E:
	cmp	DWORD PTR _i$[ebp], 3
	jae	SHORT $LN23@DROPDOWN_E
; Line 542
	mov	eax, DWORD PTR _i$[ebp]
	mov	ecx, DWORD PTR _i$[ebp]
	mov	edx, DWORD PTR _pObj$[ebp]
	mov	ecx, DWORD PTR [edx+ecx*4+96]
	mov	DWORD PTR _aTextColor$[ebp+eax*4], ecx
; Line 543
	jmp	SHORT $LN24@DROPDOWN_E
$LN23@DROPDOWN_E:
; Line 544
	mov	DWORD PTR _i$[ebp], 0
	jmp	SHORT $LN22@DROPDOWN_E
$LN21@DROPDOWN_E:
	mov	eax, DWORD PTR _i$[ebp]
	add	eax, 1
	mov	DWORD PTR _i$[ebp], eax
$LN22@DROPDOWN_E:
	cmp	DWORD PTR _i$[ebp], 3
	jae	SHORT $LN20@DROPDOWN_E
; Line 545
	mov	eax, DWORD PTR _i$[ebp]
	mov	ecx, DWORD PTR _i$[ebp]
	mov	edx, DWORD PTR _pObj$[ebp]
	mov	ecx, DWORD PTR [edx+ecx*4+116]
	mov	DWORD PTR _aScrollbarColor$[ebp+eax*4], ecx
; Line 546
	jmp	SHORT $LN21@DROPDOWN_E
$LN20@DROPDOWN_E:
; Line 547
	call	_GUI_ALLOC_UnlockH
	mov	DWORD PTR _pObj$[ebp], 0
; Line 551
	mov	eax, DWORD PTR _hObj$[ebp]
	push	eax
	call	_WM_GetParent
	add	esp, 4
	push	eax
	call	_GUI_ALLOC_LockH
	add	esp, 4
	mov	DWORD PTR _pParent$[ebp], eax
; Line 552
	mov	eax, DWORD PTR _pParent$[ebp]
	mov	ecx, DWORD PTR [eax]
	mov	edx, DWORD PTR [eax+4]
	mov	DWORD PTR _RectParent$[ebp], ecx
	mov	DWORD PTR _RectParent$[ebp+4], edx
; Line 553
	call	_GUI_ALLOC_UnlockH
	mov	DWORD PTR _pParent$[ebp], 0
; Line 557
	movsx	eax, WORD PTR _RectParent$[ebp+2]
	neg	eax
	push	eax
	movsx	ecx, WORD PTR _RectParent$[ebp]
	neg	ecx
	push	ecx
	lea	edx, DWORD PTR _r$[ebp]
	push	edx
	call	_GUI_MoveRect
	add	esp, 12					; 0000000cH
; Line 558
	movzx	eax, BYTE PTR _Flags$[ebp]
	and	eax, 2
	je	SHORT $LN19@DROPDOWN_E
; Line 559
	movsx	eax, WORD PTR _r$[ebp+2]
	sub	eax, DWORD PTR _ySize$[ebp]
	mov	WORD PTR _r$[ebp+2], ax
; Line 560
	jmp	SHORT $LN18@DROPDOWN_E
$LN19@DROPDOWN_E:
; Line 561
	mov	ax, WORD PTR _r$[ebp+6]
	mov	WORD PTR _r$[ebp+2], ax
$LN18@DROPDOWN_E:
; Line 566
	push	2
	mov	eax, DWORD PTR _ySize$[ebp]
	push	eax
	mov	ecx, DWORD PTR _xSize$[ebp]
	push	ecx
	movsx	edx, WORD PTR _r$[ebp+2]
	push	edx
	movsx	eax, WORD PTR _r$[ebp]
	push	eax
	mov	ecx, DWORD PTR _hObj$[ebp]
	push	ecx
	call	_WM_GetParent
	add	esp, 4
	push	eax
	push	0
	call	_LISTBOX_CreateAsChild
	add	esp, 28					; 0000001cH
	mov	DWORD PTR _hListWin$[ebp], eax
; Line 573
	movzx	eax, BYTE PTR _Flags$[ebp]
	and	eax, 1
	je	SHORT $LN17@DROPDOWN_E
; Line 574
	movzx	eax, BYTE PTR _ScrollbarWidth$[ebp]
	push	eax
	mov	ecx, DWORD PTR _hListWin$[ebp]
	push	ecx
	call	_LISTBOX_SetScrollbarWidth
	add	esp, 8
; Line 575
	push	1
	mov	eax, DWORD PTR _hListWin$[ebp]
	push	eax
	call	_LISTBOX_SetAutoScrollV
	add	esp, 8
$LN17@DROPDOWN_E:
; Line 580
	mov	DWORD PTR _i$[ebp], 0
	jmp	SHORT $LN16@DROPDOWN_E
$LN15@DROPDOWN_E:
	mov	eax, DWORD PTR _i$[ebp]
	add	eax, 1
	mov	DWORD PTR _i$[ebp], eax
$LN16@DROPDOWN_E:
	mov	eax, DWORD PTR _i$[ebp]
	cmp	eax, DWORD PTR _NumItems$[ebp]
	jge	SHORT $LN14@DROPDOWN_E
; Line 581
	mov	eax, DWORD PTR _i$[ebp]
	push	eax
	mov	ecx, DWORD PTR _Handles$[ebp]
	push	ecx
	call	_GUI_ARRAY_GethItem
	add	esp, 8
	mov	DWORD PTR _hString$[ebp], eax
; Line 582
	mov	eax, DWORD PTR _hString$[ebp]
	push	eax
	mov	ecx, DWORD PTR _hListWin$[ebp]
	push	ecx
	call	_LISTBOX_AddStringH
	add	esp, 8
; Line 583
	jmp	SHORT $LN15@DROPDOWN_E
$LN14@DROPDOWN_E:
; Line 587
	mov	DWORD PTR _i$[ebp], 0
	jmp	SHORT $LN13@DROPDOWN_E
$LN12@DROPDOWN_E:
	mov	eax, DWORD PTR _i$[ebp]
	add	eax, 1
	mov	DWORD PTR _i$[ebp], eax
$LN13@DROPDOWN_E:
	cmp	DWORD PTR _i$[ebp], 3
	jae	SHORT $LN11@DROPDOWN_E
; Line 588
	mov	eax, DWORD PTR _i$[ebp]
	mov	ecx, DWORD PTR _aBackColor$[ebp+eax*4]
	push	ecx
	mov	edx, DWORD PTR _i$[ebp]
	push	edx
	mov	eax, DWORD PTR _hListWin$[ebp]
	push	eax
	call	_LISTBOX_SetBkColor
	add	esp, 12					; 0000000cH
; Line 589
	jmp	SHORT $LN12@DROPDOWN_E
$LN11@DROPDOWN_E:
; Line 590
	mov	DWORD PTR _i$[ebp], 0
	jmp	SHORT $LN10@DROPDOWN_E
$LN9@DROPDOWN_E:
	mov	eax, DWORD PTR _i$[ebp]
	add	eax, 1
	mov	DWORD PTR _i$[ebp], eax
$LN10@DROPDOWN_E:
	cmp	DWORD PTR _i$[ebp], 3
	jae	SHORT $LN8@DROPDOWN_E
; Line 591
	mov	eax, DWORD PTR _i$[ebp]
	mov	ecx, DWORD PTR _aTextColor$[ebp+eax*4]
	push	ecx
	mov	edx, DWORD PTR _i$[ebp]
	push	edx
	mov	eax, DWORD PTR _hListWin$[ebp]
	push	eax
	call	_LISTBOX_SetTextColor
	add	esp, 12					; 0000000cH
; Line 592
	jmp	SHORT $LN9@DROPDOWN_E
$LN8@DROPDOWN_E:
; Line 593
	mov	DWORD PTR _i$[ebp], 0
	jmp	SHORT $LN7@DROPDOWN_E
$LN6@DROPDOWN_E:
	mov	eax, DWORD PTR _i$[ebp]
	add	eax, 1
	mov	DWORD PTR _i$[ebp], eax
$LN7@DROPDOWN_E:
	cmp	DWORD PTR _i$[ebp], 3
	jae	SHORT $LN5@DROPDOWN_E
; Line 594
	mov	eax, DWORD PTR _i$[ebp]
	mov	ecx, DWORD PTR _aScrollbarColor$[ebp+eax*4]
	push	ecx
	mov	edx, DWORD PTR _i$[ebp]
	push	edx
	mov	eax, DWORD PTR _hListWin$[ebp]
	push	eax
	call	_LISTBOX_SetScrollbarColor
	add	esp, 12					; 0000000cH
; Line 595
	jmp	SHORT $LN6@DROPDOWN_E
$LN5@DROPDOWN_E:
; Line 599
	cmp	DWORD PTR _hDisabled$[ebp], 0
	je	$LN4@DROPDOWN_E
; Line 600
	mov	eax, DWORD PTR _hDisabled$[ebp]
	push	eax
	call	_GUI_ALLOC_LockH
	add	esp, 4
	mov	DWORD PTR _pDisabled$[ebp], eax
; Line 601
	mov	eax, DWORD PTR _pDisabled$[ebp]
	mov	cx, WORD PTR [eax]
	mov	WORD PTR _nDisabled$[ebp], cx
; Line 602
	mov	eax, DWORD PTR _pDisabled$[ebp]
	add	eax, 2
	mov	DWORD PTR _pDisabled$[ebp], eax
; Line 603
	mov	DWORD PTR _i$[ebp], 0
	jmp	SHORT $LN3@DROPDOWN_E
$LN2@DROPDOWN_E:
	mov	eax, DWORD PTR _i$[ebp]
	add	eax, 1
	mov	DWORD PTR _i$[ebp], eax
$LN3@DROPDOWN_E:
	movzx	eax, WORD PTR _nDisabled$[ebp]
	cmp	DWORD PTR _i$[ebp], eax
	jge	SHORT $LN1@DROPDOWN_E
; Line 604
	mov	eax, DWORD PTR _i$[ebp]
	sar	eax, 3
	mov	ecx, DWORD PTR _pDisabled$[ebp]
	movzx	edx, BYTE PTR [ecx+eax]
	mov	ecx, DWORD PTR _i$[ebp]
	and	ecx, 7
	mov	eax, 1
	shl	eax, cl
	and	edx, eax
	neg	edx
	sbb	edx, edx
	neg	edx
	push	edx
	mov	ecx, DWORD PTR _i$[ebp]
	push	ecx
	mov	edx, DWORD PTR _hListWin$[ebp]
	push	edx
	call	_LISTBOX_SetItemDisabled
	add	esp, 12					; 0000000cH
; Line 605
	jmp	SHORT $LN2@DROPDOWN_E
$LN1@DROPDOWN_E:
; Line 606
	call	_GUI_ALLOC_UnlockH
	mov	DWORD PTR _pDisabled$[ebp], 0
$LN4@DROPDOWN_E:
; Line 611
	movzx	eax, WORD PTR _ItemSpacing$[ebp]
	push	eax
	mov	ecx, DWORD PTR _hListWin$[ebp]
	push	ecx
	call	_LISTBOX_SetItemSpacing
	add	esp, 8
; Line 612
	mov	eax, DWORD PTR _pFont$[ebp]
	push	eax
	mov	ecx, DWORD PTR _hListWin$[ebp]
	push	ecx
	call	_LISTBOX_SetFont
	add	esp, 8
; Line 613
	movsx	eax, WORD PTR _Align$[ebp]
	push	eax
	mov	ecx, DWORD PTR _hListWin$[ebp]
	push	ecx
	call	_LISTBOX_SetTextAlign
	add	esp, 8
; Line 614
	mov	eax, DWORD PTR _hListWin$[ebp]
	push	eax
	call	_WM_SetFocus
	add	esp, 4
; Line 615
	mov	eax, DWORD PTR _hObj$[ebp]
	push	eax
	mov	ecx, DWORD PTR _hListWin$[ebp]
	push	ecx
	call	_LISTBOX_SetOwner
	add	esp, 8
; Line 616
	movsx	eax, WORD PTR _Sel$[ebp]
	push	eax
	mov	ecx, DWORD PTR _hListWin$[ebp]
	push	ecx
	call	_LISTBOX_SetSel
	add	esp, 8
; Line 617
	push	1
	mov	eax, DWORD PTR _hObj$[ebp]
	push	eax
	call	_WM_NotifyParent
	add	esp, 8
; Line 621
	mov	eax, DWORD PTR _hObj$[ebp]
	push	eax
	call	_DROPDOWN_LockH
	add	esp, 4
	mov	DWORD PTR _pObj$[ebp], eax
; Line 622
	mov	eax, DWORD PTR _pObj$[ebp]
	mov	ecx, DWORD PTR _hListWin$[ebp]
	mov	DWORD PTR [eax+140], ecx
; Line 623
	call	_GUI_ALLOC_UnlockH
	mov	DWORD PTR _pObj$[ebp], 0
$LN30@DROPDOWN_E:
; Line 628
	push	edx
	mov	ecx, ebp
	push	eax
	lea	edx, DWORD PTR $LN38@DROPDOWN_E
	call	@_RTC_CheckStackVars@8
	pop	eax
	pop	edx
	pop	edi
	pop	esi
	pop	ebx
	mov	ecx, DWORD PTR __$ArrayPad$[ebp]
	xor	ecx, ebp
	call	@__security_check_cookie@4
	add	esp, 504				; 000001f8H
	cmp	ebp, esp
	call	__RTC_CheckEsp
	mov	esp, ebp
	pop	ebp
	ret	0
	npad	2
$LN38@DROPDOWN_E:
	DD	5
	DD	$LN37@DROPDOWN_E
$LN37@DROPDOWN_E:
	DD	-76					; ffffffb4H
	DD	8
	DD	$LN32@DROPDOWN_E
	DD	-92					; ffffffa4H
	DD	8
	DD	$LN33@DROPDOWN_E
	DD	-256					; ffffff00H
	DD	12					; 0000000cH
	DD	$LN34@DROPDOWN_E
	DD	-276					; fffffeecH
	DD	12					; 0000000cH
	DD	$LN35@DROPDOWN_E
	DD	-296					; fffffed8H
	DD	12					; 0000000cH
	DD	$LN36@DROPDOWN_E
$LN36@DROPDOWN_E:
	DB	97					; 00000061H
	DB	83					; 00000053H
	DB	99					; 00000063H
	DB	114					; 00000072H
	DB	111					; 0000006fH
	DB	108					; 0000006cH
	DB	108					; 0000006cH
	DB	98					; 00000062H
	DB	97					; 00000061H
	DB	114					; 00000072H
	DB	67					; 00000043H
	DB	111					; 0000006fH
	DB	108					; 0000006cH
	DB	111					; 0000006fH
	DB	114					; 00000072H
	DB	0
$LN35@DROPDOWN_E:
	DB	97					; 00000061H
	DB	84					; 00000054H
	DB	101					; 00000065H
	DB	120					; 00000078H
	DB	116					; 00000074H
	DB	67					; 00000043H
	DB	111					; 0000006fH
	DB	108					; 0000006cH
	DB	111					; 0000006fH
	DB	114					; 00000072H
	DB	0
$LN34@DROPDOWN_E:
	DB	97					; 00000061H
	DB	66					; 00000042H
	DB	97					; 00000061H
	DB	99					; 00000063H
	DB	107					; 0000006bH
	DB	67					; 00000043H
	DB	111					; 0000006fH
	DB	108					; 0000006cH
	DB	111					; 0000006fH
	DB	114					; 00000072H
	DB	0
$LN33@DROPDOWN_E:
	DB	82					; 00000052H
	DB	101					; 00000065H
	DB	99					; 00000063H
	DB	116					; 00000074H
	DB	80					; 00000050H
	DB	97					; 00000061H
	DB	114					; 00000072H
	DB	101					; 00000065H
	DB	110					; 0000006eH
	DB	116					; 00000074H
	DB	0
$LN32@DROPDOWN_E:
	DB	114					; 00000072H
	DB	0
_DROPDOWN_Expand ENDP
_TEXT	ENDS
PUBLIC	_DROPDOWN_DecSel
PUBLIC	_DROPDOWN_IncSel
; Function compile flags: /Odtp /RTCsu /ZI
;	COMDAT _DROPDOWN_AddKey
_TEXT	SEGMENT
tv65 = -196						; size = 4
_hObj$ = 8						; size = 4
_Key$ = 12						; size = 4
_DROPDOWN_AddKey PROC					; COMDAT
; Line 634
	push	ebp
	mov	ebp, esp
	sub	esp, 196				; 000000c4H
	push	ebx
	push	esi
	push	edi
	lea	edi, DWORD PTR [ebp-196]
	mov	ecx, 49					; 00000031H
	mov	eax, -858993460				; ccccccccH
	rep stosd
; Line 635
	cmp	DWORD PTR _hObj$[ebp], 0
	je	SHORT $LN7@DROPDOWN_A
; Line 637
	mov	eax, DWORD PTR _Key$[ebp]
	mov	DWORD PTR tv65[ebp], eax
	cmp	DWORD PTR tv65[ebp], 17			; 00000011H
	je	SHORT $LN2@DROPDOWN_A
	cmp	DWORD PTR tv65[ebp], 19			; 00000013H
	je	SHORT $LN3@DROPDOWN_A
	jmp	SHORT $LN1@DROPDOWN_A
$LN3@DROPDOWN_A:
; Line 639
	mov	eax, DWORD PTR _hObj$[ebp]
	push	eax
	call	_DROPDOWN_IncSel
	add	esp, 4
; Line 640
	jmp	SHORT $LN7@DROPDOWN_A
$LN2@DROPDOWN_A:
; Line 642
	mov	eax, DWORD PTR _hObj$[ebp]
	push	eax
	call	_DROPDOWN_DecSel
	add	esp, 4
; Line 643
	jmp	SHORT $LN7@DROPDOWN_A
$LN1@DROPDOWN_A:
; Line 645
	mov	eax, DWORD PTR _Key$[ebp]
	push	eax
	mov	ecx, DWORD PTR _hObj$[ebp]
	push	ecx
	call	__SelectByKey
	add	esp, 8
$LN7@DROPDOWN_A:
; Line 650
	pop	edi
	pop	esi
	pop	ebx
	add	esp, 196				; 000000c4H
	cmp	ebp, esp
	call	__RTC_CheckEsp
	mov	esp, ebp
	pop	ebp
	ret	0
_DROPDOWN_AddKey ENDP
; Function compile flags: /Odtp /RTCsu /ZI
_TEXT	ENDS
;	COMDAT __SelectByKey
_TEXT	SEGMENT
_c$13009 = -53						; size = 1
_s$13008 = -44						; size = 4
_NumItems$ = -32					; size = 4
_pObj$ = -20						; size = 4
_i$ = -8						; size = 4
_hObj$ = 8						; size = 4
_Key$ = 12						; size = 4
__SelectByKey PROC					; COMDAT
; Line 180
	push	ebp
	mov	ebp, esp
	sub	esp, 252				; 000000fcH
	push	ebx
	push	esi
	push	edi
	lea	edi, DWORD PTR [ebp-252]
	mov	ecx, 63					; 0000003fH
	mov	eax, -858993460				; ccccccccH
	rep stosd
; Line 185
	mov	eax, DWORD PTR _hObj$[ebp]
	push	eax
	call	_DROPDOWN_LockH
	add	esp, 4
	mov	DWORD PTR _pObj$[ebp], eax
; Line 186
	mov	eax, DWORD PTR _pObj$[ebp]
	push	eax
	call	_DROPDOWN__GetNumItems
	add	esp, 4
	mov	DWORD PTR _NumItems$[ebp], eax
; Line 187
	call	_GUI_ALLOC_UnlockH
	mov	DWORD PTR _pObj$[ebp], 0
; Line 188
	mov	eax, DWORD PTR _Key$[ebp]
	push	eax
	call	__Tolower
	add	esp, 4
	mov	DWORD PTR _Key$[ebp], eax
; Line 189
	mov	DWORD PTR _i$[ebp], 0
	jmp	SHORT $LN4@SelectByKe
$LN3@SelectByKe:
	mov	eax, DWORD PTR _i$[ebp]
	add	eax, 1
	mov	DWORD PTR _i$[ebp], eax
$LN4@SelectByKe:
	mov	eax, DWORD PTR _i$[ebp]
	cmp	eax, DWORD PTR _NumItems$[ebp]
	jge	SHORT $LN5@SelectByKe
; Line 192
	mov	eax, DWORD PTR _i$[ebp]
	push	eax
	mov	ecx, DWORD PTR _hObj$[ebp]
	push	ecx
	call	_DROPDOWN__GetpItemLocked
	add	esp, 8
	mov	DWORD PTR _s$13008[ebp], eax
; Line 193
	mov	eax, DWORD PTR _s$13008[ebp]
	movzx	ecx, BYTE PTR [eax]
	push	ecx
	call	__Tolower
	add	esp, 4
	mov	BYTE PTR _c$13009[ebp], al
; Line 194
	call	_GUI_ALLOC_UnlockH
	mov	DWORD PTR _s$13008[ebp], 0
; Line 195
	movzx	eax, BYTE PTR _c$13009[ebp]
	cmp	eax, DWORD PTR _Key$[ebp]
	jne	SHORT $LN1@SelectByKe
; Line 196
	mov	eax, DWORD PTR _i$[ebp]
	push	eax
	mov	ecx, DWORD PTR _hObj$[ebp]
	push	ecx
	call	_DROPDOWN_SetSel
	add	esp, 8
; Line 197
	jmp	SHORT $LN5@SelectByKe
$LN1@SelectByKe:
; Line 199
	jmp	SHORT $LN3@SelectByKe
$LN5@SelectByKe:
; Line 200
	pop	edi
	pop	esi
	pop	ebx
	add	esp, 252				; 000000fcH
	cmp	ebp, esp
	call	__RTC_CheckEsp
	mov	esp, ebp
	pop	ebp
	ret	0
__SelectByKey ENDP
; Function compile flags: /Odtp /RTCsu /ZI
_TEXT	ENDS
;	COMDAT __Tolower
_TEXT	SEGMENT
_Key$ = 8						; size = 4
__Tolower PROC						; COMDAT
; Line 169
	push	ebp
	mov	ebp, esp
	sub	esp, 192				; 000000c0H
	push	ebx
	push	esi
	push	edi
	lea	edi, DWORD PTR [ebp-192]
	mov	ecx, 48					; 00000030H
	mov	eax, -858993460				; ccccccccH
	rep stosd
; Line 170
	cmp	DWORD PTR _Key$[ebp], 65		; 00000041H
	jl	SHORT $LN1@Tolower
	cmp	DWORD PTR _Key$[ebp], 90		; 0000005aH
	jg	SHORT $LN1@Tolower
; Line 171
	mov	eax, DWORD PTR _Key$[ebp]
	add	eax, 32					; 00000020H
	mov	DWORD PTR _Key$[ebp], eax
$LN1@Tolower:
; Line 173
	mov	eax, DWORD PTR _Key$[ebp]
; Line 174
	pop	edi
	pop	esi
	pop	ebx
	mov	esp, ebp
	pop	ebp
	ret	0
__Tolower ENDP
; Function compile flags: /Odtp /RTCsu /ZI
_TEXT	ENDS
;	COMDAT _DROPDOWN_SetSel
_TEXT	SEGMENT
tv71 = -232						; size = 4
_pObj$ = -32						; size = 4
_MaxSel$ = -20						; size = 4
_NumItems$ = -8						; size = 4
_hObj$ = 8						; size = 4
_Sel$ = 12						; size = 4
_DROPDOWN_SetSel PROC					; COMDAT
; Line 656
	push	ebp
	mov	ebp, esp
	sub	esp, 232				; 000000e8H
	push	ebx
	push	esi
	push	edi
	lea	edi, DWORD PTR [ebp-232]
	mov	ecx, 58					; 0000003aH
	mov	eax, -858993460				; ccccccccH
	rep stosd
; Line 659
	cmp	DWORD PTR _hObj$[ebp], 0
	je	$LN5@DROPDOWN_S
; Line 661
	mov	eax, DWORD PTR _hObj$[ebp]
	push	eax
	call	_DROPDOWN_LockH
	add	esp, 4
	mov	DWORD PTR _pObj$[ebp], eax
; Line 662
	mov	eax, DWORD PTR _pObj$[ebp]
	push	eax
	call	_DROPDOWN__GetNumItems
	add	esp, 4
	mov	DWORD PTR _NumItems$[ebp], eax
; Line 663
	cmp	DWORD PTR _NumItems$[ebp], 0
	je	SHORT $LN7@DROPDOWN_S
	mov	eax, DWORD PTR _NumItems$[ebp]
	sub	eax, 1
	mov	DWORD PTR tv71[ebp], eax
	jmp	SHORT $LN8@DROPDOWN_S
$LN7@DROPDOWN_S:
	mov	DWORD PTR tv71[ebp], 0
$LN8@DROPDOWN_S:
	mov	ecx, DWORD PTR tv71[ebp]
	mov	DWORD PTR _MaxSel$[ebp], ecx
; Line 664
	mov	eax, DWORD PTR _Sel$[ebp]
	cmp	eax, DWORD PTR _MaxSel$[ebp]
	jle	SHORT $LN3@DROPDOWN_S
; Line 665
	mov	eax, DWORD PTR _MaxSel$[ebp]
	mov	DWORD PTR _Sel$[ebp], eax
$LN3@DROPDOWN_S:
; Line 667
	mov	eax, DWORD PTR _pObj$[ebp]
	movsx	ecx, WORD PTR [eax+56]
	cmp	DWORD PTR _Sel$[ebp], ecx
	je	SHORT $LN2@DROPDOWN_S
; Line 668
	mov	eax, DWORD PTR _pObj$[ebp]
	mov	cx, WORD PTR _Sel$[ebp]
	mov	WORD PTR [eax+56], cx
; Line 669
	call	_GUI_ALLOC_UnlockH
	mov	DWORD PTR _pObj$[ebp], 0
; Line 670
	mov	eax, DWORD PTR _hObj$[ebp]
	push	eax
	call	_WM_InvalidateWindow
	add	esp, 4
; Line 671
	push	4
	mov	eax, DWORD PTR _hObj$[ebp]
	push	eax
	call	_WM_NotifyParent
	add	esp, 8
; Line 672
	jmp	SHORT $LN5@DROPDOWN_S
$LN2@DROPDOWN_S:
; Line 673
	call	_GUI_ALLOC_UnlockH
	mov	DWORD PTR _pObj$[ebp], 0
$LN5@DROPDOWN_S:
; Line 677
	pop	edi
	pop	esi
	pop	ebx
	add	esp, 232				; 000000e8H
	cmp	ebp, esp
	call	__RTC_CheckEsp
	mov	esp, ebp
	pop	ebp
	ret	0
_DROPDOWN_SetSel ENDP
_TEXT	ENDS
PUBLIC	_DROPDOWN_GetSel
; Function compile flags: /Odtp /RTCsu /ZI
;	COMDAT _DROPDOWN_IncSel
_TEXT	SEGMENT
_Sel$ = -8						; size = 4
_hObj$ = 8						; size = 4
_DROPDOWN_IncSel PROC					; COMDAT
; Line 683
	push	ebp
	mov	ebp, esp
	sub	esp, 204				; 000000ccH
	push	ebx
	push	esi
	push	edi
	lea	edi, DWORD PTR [ebp-204]
	mov	ecx, 51					; 00000033H
	mov	eax, -858993460				; ccccccccH
	rep stosd
; Line 685
	mov	eax, DWORD PTR _hObj$[ebp]
	push	eax
	call	_DROPDOWN_GetSel
	add	esp, 4
	mov	DWORD PTR _Sel$[ebp], eax
; Line 686
	mov	eax, DWORD PTR _Sel$[ebp]
	add	eax, 1
	push	eax
	mov	ecx, DWORD PTR _hObj$[ebp]
	push	ecx
	call	_DROPDOWN_SetSel
	add	esp, 8
; Line 687
	pop	edi
	pop	esi
	pop	ebx
	add	esp, 204				; 000000ccH
	cmp	ebp, esp
	call	__RTC_CheckEsp
	mov	esp, ebp
	pop	ebp
	ret	0
_DROPDOWN_IncSel ENDP
; Function compile flags: /Odtp /RTCsu /ZI
_TEXT	ENDS
;	COMDAT _DROPDOWN_DecSel
_TEXT	SEGMENT
_Sel$ = -8						; size = 4
_hObj$ = 8						; size = 4
_DROPDOWN_DecSel PROC					; COMDAT
; Line 693
	push	ebp
	mov	ebp, esp
	sub	esp, 204				; 000000ccH
	push	ebx
	push	esi
	push	edi
	lea	edi, DWORD PTR [ebp-204]
	mov	ecx, 51					; 00000033H
	mov	eax, -858993460				; ccccccccH
	rep stosd
; Line 695
	mov	eax, DWORD PTR _hObj$[ebp]
	push	eax
	call	_DROPDOWN_GetSel
	add	esp, 4
	mov	DWORD PTR _Sel$[ebp], eax
; Line 696
	cmp	DWORD PTR _Sel$[ebp], 0
	je	SHORT $LN1@DROPDOWN_D
; Line 697
	mov	eax, DWORD PTR _Sel$[ebp]
	sub	eax, 1
	mov	DWORD PTR _Sel$[ebp], eax
$LN1@DROPDOWN_D:
; Line 699
	mov	eax, DWORD PTR _Sel$[ebp]
	push	eax
	mov	ecx, DWORD PTR _hObj$[ebp]
	push	ecx
	call	_DROPDOWN_SetSel
	add	esp, 8
; Line 700
	pop	edi
	pop	esi
	pop	ebx
	add	esp, 204				; 000000ccH
	cmp	ebp, esp
	call	__RTC_CheckEsp
	mov	esp, ebp
	pop	ebp
	ret	0
_DROPDOWN_DecSel ENDP
; Function compile flags: /Odtp /RTCsu /ZI
_TEXT	ENDS
;	COMDAT _DROPDOWN_GetSel
_TEXT	SEGMENT
_pObj$ = -20						; size = 4
_r$ = -8						; size = 4
_hObj$ = 8						; size = 4
_DROPDOWN_GetSel PROC					; COMDAT
; Line 706
	push	ebp
	mov	ebp, esp
	sub	esp, 216				; 000000d8H
	push	ebx
	push	esi
	push	edi
	lea	edi, DWORD PTR [ebp-216]
	mov	ecx, 54					; 00000036H
	mov	eax, -858993460				; ccccccccH
	rep stosd
; Line 707
	mov	DWORD PTR _r$[ebp], 0
; Line 709
	cmp	DWORD PTR _hObj$[ebp], 0
	je	SHORT $LN1@DROPDOWN_G
; Line 711
	mov	eax, DWORD PTR _hObj$[ebp]
	push	eax
	call	_DROPDOWN_LockH
	add	esp, 4
	mov	DWORD PTR _pObj$[ebp], eax
; Line 712
	mov	eax, DWORD PTR _pObj$[ebp]
	movsx	ecx, WORD PTR [eax+56]
	mov	DWORD PTR _r$[ebp], ecx
; Line 713
	call	_GUI_ALLOC_UnlockH
	mov	DWORD PTR _pObj$[ebp], 0
$LN1@DROPDOWN_G:
; Line 716
	mov	eax, DWORD PTR _r$[ebp]
; Line 717
	pop	edi
	pop	esi
	pop	ebx
	add	esp, 216				; 000000d8H
	cmp	ebp, esp
	call	__RTC_CheckEsp
	mov	esp, ebp
	pop	ebp
	ret	0
_DROPDOWN_GetSel ENDP
_TEXT	ENDS
END
