; Listing generated by Microsoft (R) Optimizing Compiler Version 16.00.40219.01 

	TITLE	C:\DUII\Simulation\GUI\Widget\DROPDOWN_Expanded.c
	.686P
	.XMM
	include listing.inc
	.model	flat

INCLUDELIB LIBCMT
INCLUDELIB OLDNAMES

PUBLIC	_DROPDOWN_IncSelExp
EXTRN	_LISTBOX_IncSel:PROC
EXTRN	_GUI_ALLOC_UnlockH:PROC
EXTRN	_DROPDOWN_LockH:PROC
EXTRN	__RTC_CheckEsp:PROC
EXTRN	__RTC_Shutdown:PROC
EXTRN	__RTC_InitBase:PROC
;	COMDAT rtc$TMZ
; File c:\duii\simulation\gui\widget\dropdown_expanded.c
rtc$TMZ	SEGMENT
__RTC_Shutdown.rtc$TMZ DD FLAT:__RTC_Shutdown
rtc$TMZ	ENDS
;	COMDAT rtc$IMZ
rtc$IMZ	SEGMENT
__RTC_InitBase.rtc$IMZ DD FLAT:__RTC_InitBase
; Function compile flags: /Odtp /RTCsu /ZI
rtc$IMZ	ENDS
;	COMDAT _DROPDOWN_IncSelExp
_TEXT	SEGMENT
_pObj$11655 = -20					; size = 4
_hListWin$11654 = -8					; size = 4
_hObj$ = 8						; size = 4
_DROPDOWN_IncSelExp PROC				; COMDAT
; Line 39
	push	ebp
	mov	ebp, esp
	sub	esp, 216				; 000000d8H
	push	ebx
	push	esi
	push	edi
	lea	edi, DWORD PTR [ebp-216]
	mov	ecx, 54					; 00000036H
	mov	eax, -858993460				; ccccccccH
	rep stosd
; Line 40
	cmp	DWORD PTR _hObj$[ebp], 0
	je	SHORT $LN3@DROPDOWN_I
; Line 44
	mov	eax, DWORD PTR _hObj$[ebp]
	push	eax
	call	_DROPDOWN_LockH
	add	esp, 4
	mov	DWORD PTR _pObj$11655[ebp], eax
; Line 45
	mov	eax, DWORD PTR _pObj$11655[ebp]
	mov	ecx, DWORD PTR [eax+140]
	mov	DWORD PTR _hListWin$11654[ebp], ecx
; Line 46
	call	_GUI_ALLOC_UnlockH
	mov	DWORD PTR _pObj$11655[ebp], 0
; Line 47
	cmp	DWORD PTR _hListWin$11654[ebp], 0
	je	SHORT $LN3@DROPDOWN_I
; Line 48
	mov	eax, DWORD PTR _hListWin$11654[ebp]
	push	eax
	call	_LISTBOX_IncSel
	add	esp, 4
$LN3@DROPDOWN_I:
; Line 52
	pop	edi
	pop	esi
	pop	ebx
	add	esp, 216				; 000000d8H
	cmp	ebp, esp
	call	__RTC_CheckEsp
	mov	esp, ebp
	pop	ebp
	ret	0
_DROPDOWN_IncSelExp ENDP
_TEXT	ENDS
PUBLIC	_DROPDOWN_DecSelExp
EXTRN	_LISTBOX_DecSel:PROC
; Function compile flags: /Odtp /RTCsu /ZI
;	COMDAT _DROPDOWN_DecSelExp
_TEXT	SEGMENT
_pObj$11663 = -20					; size = 4
_hListWin$11662 = -8					; size = 4
_hObj$ = 8						; size = 4
_DROPDOWN_DecSelExp PROC				; COMDAT
; Line 58
	push	ebp
	mov	ebp, esp
	sub	esp, 216				; 000000d8H
	push	ebx
	push	esi
	push	edi
	lea	edi, DWORD PTR [ebp-216]
	mov	ecx, 54					; 00000036H
	mov	eax, -858993460				; ccccccccH
	rep stosd
; Line 59
	cmp	DWORD PTR _hObj$[ebp], 0
	je	SHORT $LN3@DROPDOWN_D
; Line 63
	mov	eax, DWORD PTR _hObj$[ebp]
	push	eax
	call	_DROPDOWN_LockH
	add	esp, 4
	mov	DWORD PTR _pObj$11663[ebp], eax
; Line 64
	mov	eax, DWORD PTR _pObj$11663[ebp]
	mov	ecx, DWORD PTR [eax+140]
	mov	DWORD PTR _hListWin$11662[ebp], ecx
; Line 65
	call	_GUI_ALLOC_UnlockH
	mov	DWORD PTR _pObj$11663[ebp], 0
; Line 66
	cmp	DWORD PTR _hListWin$11662[ebp], 0
	je	SHORT $LN3@DROPDOWN_D
; Line 67
	mov	eax, DWORD PTR _hListWin$11662[ebp]
	push	eax
	call	_LISTBOX_DecSel
	add	esp, 4
$LN3@DROPDOWN_D:
; Line 71
	pop	edi
	pop	esi
	pop	ebx
	add	esp, 216				; 000000d8H
	cmp	ebp, esp
	call	__RTC_CheckEsp
	mov	esp, ebp
	pop	ebp
	ret	0
_DROPDOWN_DecSelExp ENDP
_TEXT	ENDS
PUBLIC	_DROPDOWN_GetSelExp
EXTRN	_LISTBOX_GetSel:PROC
; Function compile flags: /Odtp /RTCsu /ZI
;	COMDAT _DROPDOWN_GetSelExp
_TEXT	SEGMENT
_pObj$11672 = -32					; size = 4
_hListWin$11671 = -20					; size = 4
_r$ = -8						; size = 4
_hObj$ = 8						; size = 4
_DROPDOWN_GetSelExp PROC				; COMDAT
; Line 77
	push	ebp
	mov	ebp, esp
	sub	esp, 228				; 000000e4H
	push	ebx
	push	esi
	push	edi
	lea	edi, DWORD PTR [ebp-228]
	mov	ecx, 57					; 00000039H
	mov	eax, -858993460				; ccccccccH
	rep stosd
; Line 78
	mov	DWORD PTR _r$[ebp], 0
; Line 79
	cmp	DWORD PTR _hObj$[ebp], 0
	je	SHORT $LN2@DROPDOWN_G
; Line 83
	mov	eax, DWORD PTR _hObj$[ebp]
	push	eax
	call	_DROPDOWN_LockH
	add	esp, 4
	mov	DWORD PTR _pObj$11672[ebp], eax
; Line 84
	mov	eax, DWORD PTR _pObj$11672[ebp]
	mov	ecx, DWORD PTR [eax+140]
	mov	DWORD PTR _hListWin$11671[ebp], ecx
; Line 85
	call	_GUI_ALLOC_UnlockH
	mov	DWORD PTR _pObj$11672[ebp], 0
; Line 86
	cmp	DWORD PTR _hListWin$11671[ebp], 0
	je	SHORT $LN2@DROPDOWN_G
; Line 87
	mov	eax, DWORD PTR _hListWin$11671[ebp]
	push	eax
	call	_LISTBOX_GetSel
	add	esp, 4
	mov	DWORD PTR _r$[ebp], eax
$LN2@DROPDOWN_G:
; Line 91
	mov	eax, DWORD PTR _r$[ebp]
; Line 92
	pop	edi
	pop	esi
	pop	ebx
	add	esp, 228				; 000000e4H
	cmp	ebp, esp
	call	__RTC_CheckEsp
	mov	esp, ebp
	pop	ebp
	ret	0
_DROPDOWN_GetSelExp ENDP
_TEXT	ENDS
PUBLIC	_DROPDOWN_SetSelExp
EXTRN	_LISTBOX_SetSel:PROC
; Function compile flags: /Odtp /RTCsu /ZI
;	COMDAT _DROPDOWN_SetSelExp
_TEXT	SEGMENT
_pObj$11682 = -20					; size = 4
_hListWin$11681 = -8					; size = 4
_hObj$ = 8						; size = 4
_Sel$ = 12						; size = 4
_DROPDOWN_SetSelExp PROC				; COMDAT
; Line 98
	push	ebp
	mov	ebp, esp
	sub	esp, 216				; 000000d8H
	push	ebx
	push	esi
	push	edi
	lea	edi, DWORD PTR [ebp-216]
	mov	ecx, 54					; 00000036H
	mov	eax, -858993460				; ccccccccH
	rep stosd
; Line 99
	cmp	DWORD PTR _hObj$[ebp], 0
	je	SHORT $LN3@DROPDOWN_S
; Line 103
	mov	eax, DWORD PTR _hObj$[ebp]
	push	eax
	call	_DROPDOWN_LockH
	add	esp, 4
	mov	DWORD PTR _pObj$11682[ebp], eax
; Line 104
	mov	eax, DWORD PTR _pObj$11682[ebp]
	mov	ecx, DWORD PTR [eax+140]
	mov	DWORD PTR _hListWin$11681[ebp], ecx
; Line 105
	call	_GUI_ALLOC_UnlockH
	mov	DWORD PTR _pObj$11682[ebp], 0
; Line 106
	cmp	DWORD PTR _hListWin$11681[ebp], 0
	je	SHORT $LN3@DROPDOWN_S
; Line 107
	mov	eax, DWORD PTR _Sel$[ebp]
	push	eax
	mov	ecx, DWORD PTR _hListWin$11681[ebp]
	push	ecx
	call	_LISTBOX_SetSel
	add	esp, 8
$LN3@DROPDOWN_S:
; Line 111
	pop	edi
	pop	esi
	pop	ebx
	add	esp, 216				; 000000d8H
	cmp	ebp, esp
	call	__RTC_CheckEsp
	mov	esp, ebp
	pop	ebp
	ret	0
_DROPDOWN_SetSelExp ENDP
_TEXT	ENDS
PUBLIC	_DROPDOWN_GetListbox
; Function compile flags: /Odtp /RTCsu /ZI
;	COMDAT _DROPDOWN_GetListbox
_TEXT	SEGMENT
_pObj$11690 = -20					; size = 4
_hListWin$ = -8						; size = 4
_hObj$ = 8						; size = 4
_DROPDOWN_GetListbox PROC				; COMDAT
; Line 117
	push	ebp
	mov	ebp, esp
	sub	esp, 216				; 000000d8H
	push	ebx
	push	esi
	push	edi
	lea	edi, DWORD PTR [ebp-216]
	mov	ecx, 54					; 00000036H
	mov	eax, -858993460				; ccccccccH
	rep stosd
; Line 118
	mov	DWORD PTR _hListWin$[ebp], 0
; Line 119
	cmp	DWORD PTR _hObj$[ebp], 0
	je	SHORT $LN1@DROPDOWN_G@2
; Line 122
	mov	eax, DWORD PTR _hObj$[ebp]
	push	eax
	call	_DROPDOWN_LockH
	add	esp, 4
	mov	DWORD PTR _pObj$11690[ebp], eax
; Line 123
	mov	eax, DWORD PTR _pObj$11690[ebp]
	mov	ecx, DWORD PTR [eax+140]
	mov	DWORD PTR _hListWin$[ebp], ecx
; Line 124
	call	_GUI_ALLOC_UnlockH
	mov	DWORD PTR _pObj$11690[ebp], 0
$LN1@DROPDOWN_G@2:
; Line 127
	mov	eax, DWORD PTR _hListWin$[ebp]
; Line 128
	pop	edi
	pop	esi
	pop	ebx
	add	esp, 216				; 000000d8H
	cmp	ebp, esp
	call	__RTC_CheckEsp
	mov	esp, ebp
	pop	ebp
	ret	0
_DROPDOWN_GetListbox ENDP
_TEXT	ENDS
END
