; Listing generated by Microsoft (R) Optimizing Compiler Version 16.00.40219.01 

	TITLE	C:\DUII\DUII\Graphics\DummyAnalog.c
	.686P
	.XMM
	include listing.inc
	.model	flat

INCLUDELIB LIBCMT
INCLUDELIB OLDNAMES

PUBLIC	_bmDummyAnalog
CONST	SEGMENT
_ColorsDummyAnalog DD 0eff0f0H
	DD	010101H
	DD	0303deaH
	DD	0171717H
	DD	028f569H
	DD	0fefdfdH
	DD	03037d6H
	DD	0999899H
	DD	0676666H
	DD	0272727H
	DD	03135cbH
	DD	02d3be6H
	DD	0a4a4a5H
	DD	02a33c9H
	DD	0373737H
	DD	02a37d7H
	DD	0787676H
	DD	0474747H
	DD	0565656H
	DD	0878787H
	DD	025e863H
	DD	021d65bH
	DD	060718H
	DD	03241f8H
	DD	01dc453H
	DD	0303ef1H
	DD	01c27a8H
	DD	0e124bH
	DD	01dbb50H
	DD	0babab9H
	DD	0dad9d9H
	DD	0202aa7H
	DD	0e9e8e6H
	DD	055568cH
	DD	01c2595H
	DD	041a0bH
	DD	01ab84dH
	DD	05256c9H
	DD	020ca56H
	DD	0c9c8c6H
	DD	01b2389H
	DD	01aaa49H
	DD	0d5725H
	DD	0e1352H
	DD	04a4b71H
	DD	02e3371H
	DD	06c6d71H
	DD	05a5bbeH
	DD	048b86cH
	DD	04d8660H
	DD	05e60c2H
	DD	0605e5eH
	DD	0706e6eH
	DD	060827H
	DD	0111b8bH
	DD	02d3cf4H
	DD	0161935H
	DD	050736H
	DD	0f3f2ebH
	DD	0151c76H
	DD	02530b9H
	DD	02bff71H
	DD	083717H
	DD	0222db5H
	DD	0727383H
	DD	01d29c6H
	DD	040846H
	DD	0121756H
	DD	0d4d4cbH
	DD	0158539H
	DD	0147734H
	DD	0908e8eH
	DD	0141a68H
	DD	0e6e5dbH
	DD	0b1268H
	DD	0151947H
	DD	064319H
	DD	0173822H
	DD	04a4b54H
	DD	0585967H
	DD	0212dc9H
	DD	0373848H
	DD	0565876H
	DD	040a57H
	DD	0232a83H
	DD	01b217bH
	DD	0c5c4bbH
	DD	0199942H
	DD	08b8b92H
	DD	0d6ccd3H
	DD	0272945H
	DD	024dd60H
	DD	0464865H
	DD	0c1478H
	DD	072912H
	DD	0242639H
	DD	0212999H
	DD	0b3b3acH
	DD	016923eH
	DD	018da56H
	DD	010682cH
	DD	0238442H
	DD	011110dH
	DD	03d4172H
	DD	0a3a29cH
	DD	0161829H
	DD	096928H
	DD	0d1038H
	DD	046d975H
	DD	0363857H
	DD	0c4c20H
	DD	01b4929H
	DD	0212ed3H
	DD	050c65H
	DD	0e1027H
	DD	02240cH
	DD	0e7dbe3H
	DD	01b231dH
	DD	02b332dH
	DD	05b6b61H
	DD	0807e7eH
	DD	0da13cH
	DD	0f4ecf2H
	DD	01d2052H
	DD	01d236aH
	DD	04d5176H
	DD	01de25cH
	DD	0f0eaecH
	DD	02561cH
	DD	05a655dH
	DD	0b8733H
	DD	093938cH
	DD	04e5357H
	DD	0d0cccbH
	DD	0272a58H
	DD	0b9838H
	DD	015c54dH
	DD	0928c90H
	DD	0e0dadaH
	DD	02e3333H
	DD	06762aH
	DD	0347649H
	DD	0504e4fH
	DD	0497858H
	DD	0121ea7H
	DD	066766bH
	DD	083837eH
	DD	02e304bH
	DD	06d7771H
	DD	02831abH
	DD	06a6cb3H
	DD	01e2220H
	DD	079847cH
	DD	06f71cfH
	DD	0a09e9bH
	DD	0100d0dH
	DD	01e2039H
	DD	0265836H
	DD	0176b32H
	DD	0507b5dH
	DD	05e6078H
	DD	0fb844H
	DD	021bc52H
	DD	025673aH
	DD	0366746H
	DD	0435549H
	DD	02c3395H
	DD	0110e10H
	DD	0360bH
	DD	0302e2fH
	DD	016542aH
	DD	03e4246H
	DD	0297742H
	DD	02b3285H
	DD	07e8085H
	DD	09e9ea0H
	DD	0b0aeacH
	DD	020201eH
	DD	0403e3fH
	DD	02b4734H
	DD	02d315aH
	DD	03e4055H
	DD	03e7750H
	DD	0476952H
	DD	020e25eH
	DD	03e45c8H
	DD	0b5acb2H
	DD	014331dH
	DD	037443bH
	DD	033543dH
	DD	023753dH
	DD	04e5066H
	DD	05a7964H
	DD	071716dH
	DD	042c66cH
	DD	0c4bcc1H
	DD	0d1a11H
	DD	0201f1fH
	DD	0211e20H
	DD	0312f30H
	DD	01e5830H
	DD	0e7730H
	DD	0504f50H
	DD	053b372H
	DD	0807f80H
	DD	08f9192H
	DD	0aeaeb0H
	DD	010977H
	DD	0403f40H
	DD	03b5b45H
	DD	063635eH
	DD	01e8840H
	DD	021a14aH
	DD	03eb765H
	DD	0ec649H
	DD	09ca09dH
	DD	0a49fa2H
	DD	09fa0a0H
	DD	030302fH
	DD	0490fH
	DD	024452fH
	DD	030603fH
	DD	040403fH
	DD	0605f60H
	DD	0706f71H
	DD	03842dH
	DD	010a43fH
	DD	0209144H
	DD	0fa740H
	DD	033b35cH
	DD	0548764H
	DD	04b9e66H
	DD	060816aH
	DD	06c8072H
	DD	070a17fH
	DD	061b87dH
	DD	02ec960H
	DD	03ad86dH
	DD	01ff563H
	DD	044ce70H
	DD	030368aH
	DD	0353c93H
	DD	03e4281H
	DD	05e62b8H
	DD	03040eeH
	DD	072b688H
	DD	05fd183H
	DD	063d086H
	DD	07e80d7H
	DD	08d918eH
	DD	0c0bfbcH
	DD	0bfc0bfH
	DD	0bfc0c0H
	DD	0f0ddeaH
	DD	0eff0efH
	DD	0eff0f0H
_PalDummyAnalog DD 0100H
	DB	00H
	ORG $+3
	DD	FLAT:_ColorsDummyAnalog
_bmDummyAnalog DW 01d6H
	DW	0e8H
	DW	01d6H
	DW	08H
	DD	FLAT:_acDummyAnalog
	DD	FLAT:_PalDummyAnalog
	ORG $+4
_acDummyAnalog DB 01H
	DB	01H
	DB	01H
	DB	01H
	DB	01H
	DB	01H
	DB	01H
	DB	03H
	DB	011H
	DB	010H
	DB	0cdH
	DB	0afH
	DB	07H
	DB	0d7H
	DB	0d7H
	DB	0d7H
	DB	0d7H
	DB	07H
	DB	07H
	DB	0d7H
	DB	0d7H
	DB	0d7H
	DB	07H
	DB	07H
	DB	07H
	DB	0d7H
	DB	0d7H
	DB	0d7H
	DB	07H
	DB	07H
	DB	0d7H
	DB	0d7H
	DB	0d7H
	DB	07H
	DB	07H
	DB	07H
	DB	0d7H
	DB	0d7H
	DB	0d7H
	DB	07H
	DB	07H
	DB	07H
	DB	0d7H
	DB	0d7H
	DB	0d7H
	DB	07H
	DB	07H
	DB	0d7H
	DB	0d7H
	DB	0d7H
	DB	07H
	DB	07H
	DB	0d7H
	DB	0d7H
	DB	0d7H
	DB	07H
	DB	07H
	DB	07H
	DB	0d7H
	DB	0d7H
	DB	0d7H
	DB	07H
	DB	07H
	DB	07H
	DB	0d7H
	DB	0d7H
	DB	0d7H
	DB	07H
	DB	07H
	DB	07H
	DB	0d7H
	DB	0d7H
	DB	0d7H
	DB	07H
	DB	07H
	DB	0d7H
	DB	0d7H
	DB	0d7H
	DB	07H
	DB	07H
	DB	07H
	DB	0d7H
	DB	0d7H
	DB	0d7H
	DB	07H
	DB	07H
	DB	07H
	DB	0d7H
	DB	0d7H
	DB	0d7H
	DB	07H
	DB	07H
	DB	0d7H
	DB	0d7H
	DB	0d7H
	DB	07H
	DB	07H
	DB	0d7H
	DB	0d7H
	DB	0d7H
	DB	07H
	DB	07H
	DB	07H
	DB	0d7H
	DB	0d7H
	DB	0d7H
	DB	07H
	DB	07H
	DB	07H
	DB	0d7H
	DB	0d7H
	DB	0d7H
	DB	07H
	DB	07H
	DB	0d7H
	DB	0d7H
	DB	0d7H
	DB	07H
	DB	07H
	DB	07H
	DB	0d7H
	DB	0d7H
	DB	0d7H
	DB	07H
	DB	07H
	DB	07H
	DB	0d7H
	DB	0d7H
	DB	0d7H
	DB	07H
	DB	07H
	DB	0d7H
	DB	0d7H
	DB	0d7H
	DB	0d7H
	DB	07H
	DB	07H
	DB	0d7H
	DB	0d7H
	DB	0d7H
	DB	07H
	DB	07H
	DB	0d7H
	DB	0d7H
	DB	0d7H
	DB	07H
	DB	07H
	DB	07H
	DB	0d7H
	DB	0d7H
	DB	0d7H
	DB	07H
	DB	07H
	DB	07H
	DB	0d7H
	DB	0d7H
	DB	0d7H
	DB	07H
	DB	07H
	DB	0d7H
	DB	0d7H
	DB	0d7H
	DB	07H
	DB	07H
	DB	07H
	DB	0d7H
	DB	0d7H
	DB	0d7H
	DB	07H
	DB	07H
	DB	07H
	DB	0d7H
	DB	0d7H
	DB	0d7H
	DB	07H
	DB	07H
	DB	0d7H
	DB	0d7H
	DB	0d7H
	DB	07H
	DB	07H
	DB	07H
	DB	0d7H
	DB	0d7H
	DB	0d7H
	DB	07H
	DB	07H
	DB	0d7H
	DB	0d7H
	DB	0d7H
	DB	07H
	DB	07H
	DB	07H
	DB	0d7H
	DB	0d7H
	DB	0d7H
	DB	07H
	DB	07H
	DB	07H
	DB	0d7H
	DB	0d7H
	DB	0d7H
	DB	07H
	DB	07H
	DB	0d7H
	DB	0d7H
	DB	0d7H
	DB	07H
	DB	07H
	DB	07H
	DB	0d7H
	DB	0d7H
	DB	0d7H
	DB	07H
	DB	07H
	DB	0d7H
	DB	0d7H
	DB	0d7H
	DB	0d7H
	DB	07H
	DB	07H
	DB	0d7H
	DB	0d7H
	DB	0d7H
	DB	07H
	DB	07H
	DB	07H
	DB	0d7H
	DB	0d7H
	DB	0d7H
	DB	07H
	DB	07H
	DB	0d7H
	DB	0d7H
	DB	0d7H
	DB	07H
	DB	07H
	DB	07H
	DB	0d7H
	DB	0d7H
	DB	0d7H
	DB	07H
	DB	07H
	DB	07H
	DB	0d7H
	DB	0d7H
	DB	0d7H
	DB	07H
	DB	07H
	DB	0d7H
	DB	0d7H
	DB	0d7H
	DB	07H
	DB	07H
	DB	0d7H
	DB	0d7H
	DB	0d7H
	DB	07H
	DB	07H
	DB	07H
	DB	0d7H
	DB	0d7H
	DB	0d7H
	DB	07H
	DB	07H
	DB	07H
	DB	0d7H
	DB	0d7H
	DB	0d7H
	DB	07H
	DB	07H
	DB	0d7H
	DB	0d7H
	DB	0d7H
	DB	0d7H
	DB	07H
	DB	07H
	DB	0d7H
	DB	0d7H
	DB	0d7H
	DB	07H
	DB	07H
	DB	07H
	DB	0d7H
	DB	0d7H
	DB	0d7H
	DB	07H
	DB	07H
	DB	07H
	DB	0d7H
	DB	0d7H
	DB	0d7H
	DB	07H
	DB	07H
	DB	0d7H
	DB	0d7H
	DB	0d7H
	DB	07H
	DB	07H
	DB	0d7H
	DB	0d7H
	DB	0d7H
	DB	07H
	DB	07H
	DB	07H
	DB	0d7H
	DB	0d7H
	DB	0d7H
	DB	07H
	DB	07H
	DB	07H
	DB	0d7H
	DB	0d7H
	DB	0d7H
	DB	07H
	DB	07H
	DB	0d7H
	DB	0d7H
	DB	0d7H
	DB	07H
	DB	07H
	DB	07H
	DB	0d7H
	DB	0d7H
	DB	0d7H
	DB	07H
	DB	07H
	DB	07H
	DB	0d7H
	DB	0d7H
	DB	0d7H
	DB	07H
	DB	07H
	DB	0d7H
	DB	0d7H
	DB	0d7H
	DB	07H
	DB	07H
	DB	07H
	DB	0d7H
	DB	0d7H
	DB	0d7H
	DB	07H
	DB	07H
	DB	0d7H
	DB	0d7H
	DB	0d7H
	DB	07H
	DB	07H
	DB	07H
	DB	0d7H
	DB	0d7H
	DB	0d7H
	DB	07H
	DB	07H
	DB	07H
	DB	0d7H
	DB	0d7H
	DB	0d7H
	DB	07H
	DB	07H
	DB	0d7H
	DB	0d7H
	DB	0d7H
	DB	07H
	DB	07H
	DB	07H
	DB	0d7H
	DB	0d7H
	DB	0d7H
	DB	07H
	DB	07H
	DB	07H
	DB	0d7H
	DB	0d7H
	DB	0d7H
	DB	07H
	DB	07H
	DB	0d7H
	DB	0d7H
	DB	0d7H
	DB	07H
	DB	07H
	DB	07H
	DB	0d7H
	DB	0d7H
	DB	0d7H
	DB	07H
	DB	07H
	DB	0d7H
	DB	0d7H
	DB	0d7H
	DB	07H
	DB	07H
	DB	07H
	DB	0d7H
	DB	0d7H
	DB	0d7H
	DB	07H
	DB	07H
	DB	07H
	DB	0d7H
	DB	0d7H
	DB	0d7H
	DB	07H
	DB	07H
	DB	0d7H
	DB	0d7H
	DB	0d7H
	DB	07H
	DB	07H
	DB	07H
	DB	0d7H
	DB	0d7H
	DB	0d7H
	DB	07H
	DB	07H
	DB	07H
	DB	0d7H
	DB	0d7H
	DB	0d7H
	DB	07H
	DB	07H
	DB	0d7H
	DB	0d7H
	DB	0d7H
	DB	07H
	DB	07H
	DB	07H
	DB	0d7H
	DB	0d7H
	DB	0d7H
	DB	07H
	DB	07H
	DB	0d7H
	DB	0d7H
	DB	0d7H
	DB	07H
	DB	07H
	DB	07H
	DB	0d7H
	DB	0d7H
	DB	0d7H
	DB	07H
	DB	07H
	DB	07H
	DB	0d7H
	DB	0d7H
	DB	0d7H
	DB	07H
	DB	07H
	DB	0d7H
	DB	0d7H
	DB	0d7H
	DB	07H
	DB	07H
	DB	07H
	DB	0d7H
	DB	0afH
	DB	0cdH
	DB	010H
	DB	011H
	DB	03H
	DB	01H
	DB	01H
	DB	01H
	DB	01H
	DB	01H
	DB	01H
	DB	01H
	DB	01H
	DB	01H
	DB	01H
	DB	01H
	DB	01H
	DB	0c5H
	DB	033H
	DB	0cdH
	DB	0d7H
	DB	07H
	DB	07H
	DB	07H
	DB	07H
	DB	07H
	DB	0d7H
	DB	0d7H
	DB	07H
	DB	07H
	DB	07H
	DB	0d7H
	DB	0d7H
	DB	0d7H
	DB	07H
	DB	07H
	DB	07H
	DB	0d7H
	DB	0d7H
	DB	07H
	DB	07H
	DB	07H
	DB	07H
	DB	0d7H
	DB	0d7H
	DB	07H
	DB	07H
	DB	07H
	DB	0d7H
	DB	0d7H
	DB	0d7H
	DB	07H
	DB	07H
	DB	07H
	DB	0d7H
	DB	0d7H
	DB	07H
	DB	07H
	DB	07H
	DB	07H
	DB	0d7H
	DB	0d7H
	DB	07H
	DB	07H
	DB	07H
	DB	0d7H
	DB	0d7H
	DB	07H
	DB	07H
	DB	07H
	DB	0d7H
	DB	0d7H
	DB	0d7H
	DB	07H
	DB	07H
	DB	07H
	DB	0d7H
	DB	0d7H
	DB	0d7H
	DB	07H
	DB	07H
	DB	07H
	DB	0d7H
	DB	0d7H
	DB	07H
	DB	07H
	DB	07H
	DB	07H
	DB	0d7H
	DB	0d7H
	DB	07H
	DB	07H
	DB	07H
	DB	0d7H
	DB	0d7H
	DB	0d7H
	DB	07H
	DB	07H
	DB	07H
	DB	0d7H
	DB	0d7H
	DB	07H
	DB	07H
	DB	07H
	DB	07H
	DB	0d7H
	DB	07H
	DB	07H
	DB	07H
	DB	07H
	DB	0d7H
	DB	0d7H
	DB	07H
	DB	07H
	DB	07H
	DB	0d7H
	DB	0d7H
	DB	0d7H
	DB	07H
	DB	07H
	DB	07H
	DB	0d7H
	DB	0d7H
	DB	07H
	DB	07H
	DB	07H
	DB	07H
	DB	0d7H
	DB	0d7H
	DB	07H
	DB	07H
	DB	07H
	DB	0d7H
	DB	0d7H
	DB	0d7H
	DB	07H
	DB	07H
	DB	07H
	DB	0d7H
	DB	0d7H
	DB	07H
	DB	07H
	DB	07H
	DB	07H
	DB	0d7H
	DB	0d7H
	DB	07H
	DB	07H
	DB	07H
	DB	07H
	DB	0d7H
	DB	07H
	DB	07H
	DB	07H
	DB	07H
	DB	0d7H
	DB	0d7H
	DB	07H
	DB	07H
	DB	07H
	DB	0d7H
	DB	0d7H
	DB	0d7H
	DB	07H
	DB	07H
	DB	07H
	DB	0d7H
	DB	0d7H
	DB	07H
	DB	07H
	DB	07H
	DB	07H
	DB	0d7H
	DB	0d7H
	DB	07H
	DB	07H
	DB	07H
	DB	0d7H
	DB	0d7H
	DB	0d7H
	DB	07H
	DB	07H
	DB	07H
	DB	0d7H
	DB	0d7H
	DB	07H
	DB	07H
	DB	07H
	DB	0d7H
	DB	0d7H
	DB	0d7H
	DB	07H
	DB	07H
	DB	07H
	DB	0d7H
	DB	0d7H
	DB	07H
	DB	07H
	DB	07H
	DB	07H
	DB	0d7H
	DB	0d7H
	DB	07H
	DB	07H
	DB	07H
	DB	0d7H
	DB	0d7H
	DB	0d7H
	DB	07H
	DB	07H
	DB	07H
	DB	0d7H
	DB	0d7H
	DB	07H
	DB	07H
	DB	07H
	DB	07H
	DB	0d7H
	DB	0d7H
	DB	07H
	DB	07H
	DB	07H
	DB	0d7H
	DB	0d7H
	DB	0d7H
	DB	07H
	DB	07H
	DB	07H
	DB	0d7H
	DB	0d7H
	DB	07H
	DB	07H
	DB	07H
	DB	0d7H
	DB	0d7H
	DB	0d7H
	DB	07H
	DB	07H
	DB	07H
	DB	0d7H
	DB	0d7H
	DB	07H
	DB	07H
	DB	07H
	DB	07H
	DB	0d7H
	DB	0d7H
	DB	07H
	DB	07H
	DB	07H
	DB	0d7H
	DB	0d7H
	DB	0d7H
	DB	07H
	DB	07H
	DB	07H
	DB	0d7H
	DB	0d7H
	DB	07H
	DB	07H
	DB	07H
	DB	07H
	DB	0d7H
	DB	0d7H
	DB	07H
	DB	07H
	DB	07H
	DB	0d7H
	DB	0d7H
	DB	07H
	DB	07H
	DB	07H
	DB	0d7H
	DB	0d7H
	DB	0d7H
	DB	07H
	DB	07H
	DB	07H
	DB	0d7H
	DB	0d7H
	DB	07H
	DB	07H
	DB	07H
	DB	07H
	DB	0d7H
	DB	0d7H
	DB	07H
	DB	07H
	DB	07H
	DB	07H
	DB	0d7H
	DB	0d7H
	DB	07H
	DB	07H
	DB	07H
	DB	0d7H
	DB	0d7H
	DB	0d7H
	DB	07H
	DB	07H
	DB	07H
	DB	0d7H
	DB	0d7H
	DB	07H
	DB	07H
	DB	07H
	DB	07H
	DB	0d7H
	DB	0d7H
	DB	07H
	DB	07H
	DB	07H
	DB	0d7H
	DB	0d7H
	DB	07H
	DB	07H
	DB	07H
	DB	0d7H
	DB	0d7H
	DB	0d7H
	DB	07H
	DB	07H
	DB	07H
	DB	0d7H
	DB	0d7H
	DB	07H
	DB	07H
	DB	07H
	DB	07H
	DB	0d7H
	DB	0d7H
	DB	07H
	DB	07H
	DB	07H
	DB	0d7H
	DB	0d7H
	DB	0d7H
	DB	07H
	DB	07H
	DB	07H
	DB	0d7H
	DB	0d7H
	DB	07H
	DB	07H
	DB	07H
	DB	07H
	DB	0d7H
	DB	0d7H
	DB	07H
	DB	07H
	DB	07H
	DB	0d7H
	DB	0d7H
	DB	07H
	DB	07H
	DB	07H
	DB	07H
	DB	0d7H
	DB	0d7H
	DB	07H
	DB	07H
	DB	07H
	DB	0d7H
	DB	0d7H
	DB	0d7H
	DB	07H
	DB	07H
	DB	07H
	DB	0d7H
	DB	0d7H
	DB	07H
	DB	07H
	DB	07H
	DB	07H
	DB	0d7H
	DB	0d7H
	DB	07H
	DB	07H
	DB	07H
	DB	0d7H
	DB	0d7H
	DB	0d7H
	DB	07H
	DB	07H
	DB	07H
	DB	0d7H
	DB	0d7H
	DB	07H
	DB	07H
	DB	07H
	DB	07H
	DB	0d7H
	DB	0d7H
	DB	07H
	DB	07H
	DB	07H
	DB	0d7H
	DB	0d7H
	DB	07H
	DB	07H
	DB	07H
	DB	07H
	DB	0d7H
	DB	0d7H
	DB	07H
	DB	07H
	DB	07H
	DB	0d7H
	DB	0d7H
	DB	0d7H
	DB	07H
	DB	07H
	DB	07H
	DB	0d7H
	DB	0d7H
	DB	07H
	DB	07H
	DB	07H
	DB	07H
	DB	0d7H
	DB	0d7H
	DB	07H
	DB	07H
	DB	07H
	DB	0d7H
	DB	0d7H
	DB	0d7H
	DB	07H
	DB	07H
	DB	07H
	DB	0d7H
	DB	0d7H
	DB	07H
	DB	07H
	DB	07H
	DB	0d7H
	DB	0d7H
	DB	0d7H
	DB	07H
	DB	07H
	DB	07H
	DB	0d7H
	DB	0d7H
	DB	07H
	DB	07H
	DB	07H
	DB	07H
	DB	0d7H
	DB	0d7H
	DB	07H
	DB	07H
	DB	07H
	DB	0d7H
	DB	0d7H
	DB	0d7H
	DB	07H
	DB	07H
	DB	07H
	DB	0d7H
	DB	0d7H
	DB	07H
	DB	07H
	DB	07H
	DB	07H
	DB	0d7H
	DB	0d7H
	DB	07H
	DB	07H
	DB	07H
	DB	0d7H
	DB	0d7H
	DB	07H
	DB	07H
	DB	07H
	DB	0cdH
	DB	033H
	DB	0c5H
	DB	01H
	DB	01H
	DB	01H
	DB	01H
	DB	01H
	DB	01H
	DB	01H
	DB	01H
	DB	01H
	DB	011H
	DB	07H
	DB	0cH
	DB	0cdH
	DB	02eH
	DB	0caH
	DB	0caH
	DB	033H
	DB	0dfH
	DB	012H
	DB	011H
	DB	011H
	DB	012H
	DB	0dfH
	DB	033H
	DB	08eH
	DB	011H
	DB	011H
	DB	033H
	DB	0dfH
	DB	012H
	DB	011H
	DB	011H
	DB	0caH
	DB	0dfH
	DB	0dfH
	DB	0caH
	DB	011H
	DB	011H
	DB	012H
	DB	0dfH
	DB	033H
	DB	011H
	DB	011H
	DB	08eH
	DB	033H
	DB	0dfH
	DB	012H
	DB	011H
	DB	011H
	DB	012H
	DB	0dfH
	DB	033H
	DB	08eH
	DB	0d0H
	DB	011H
	DB	012H
	DB	0d2H
	DB	012H
	DB	011H
	DB	011H
	DB	0caH
	DB	0dfH
	DB	0dfH
	DB	0caH
	DB	011H
	DB	011H
	DB	012H
	DB	0dfH
	DB	033H
	DB	011H
	DB	0d0H
	DB	08eH
	DB	033H
	DB	0dfH
	DB	012H
	DB	011H
	DB	011H
	DB	012H
	DB	0dfH
	DB	033H
	DB	08eH
	DB	011H
	DB	011H
	DB	012H
	DB	0dfH
	DB	012H
	DB	011H
	DB	011H
	DB	08eH
	DB	0dfH
	DB	0dfH
	DB	0caH
	DB	011H
	DB	011H
	DB	012H
	DB	0dfH
	DB	033H
	DB	011H
	DB	0d0H
	DB	011H
	DB	033H
	DB	0dfH
	DB	012H
	DB	011H
	DB	011H
	DB	0caH
	DB	0dfH
	DB	0dfH
	DB	08eH
	DB	011H
	DB	011H
	DB	012H
	DB	0dfH
	DB	012H
	DB	011H
	DB	0d0H
	DB	08eH
	DB	033H
	DB	0dfH
	DB	012H
	DB	011H
	DB	011H
	DB	012H
	DB	0dfH
	DB	033H
	DB	08eH
	DB	0d0H
	DB	011H
	DB	033H
	DB	0dfH
	DB	012H
	DB	011H
	DB	011H
	DB	0caH
	DB	0dfH
	DB	0dfH
	DB	0caH
	DB	011H
	DB	011H
	DB	012H
	DB	0dfH
	DB	033H
	DB	011H
	DB	0d0H
	DB	08eH
	DB	033H
	DB	0dfH
	DB	012H
	DB	011H
	DB	011H
	DB	012H
	DB	0dfH
	DB	0dfH
	DB	08eH
	DB	011H
	DB	011H
	DB	033H
	DB	0dfH
	DB	012H
	DB	011H
	DB	011H
	DB	0caH
	DB	0dfH
	DB	0dfH
	DB	0caH
	DB	011H
	DB	011H
	DB	012H
	DB	0dfH
	DB	033H
	DB	011H
	DB	011H
	DB	011H
	DB	033H
	DB	0dfH
	DB	012H
	DB	011H
	DB	011H
	DB	012H
	DB	0dfH
	DB	0dfH
	DB	08eH
	DB	011H
	DB	011H
	DB	012H
	DB	0dfH
	DB	012H
	DB	011H
	DB	011H
	DB	08eH
	DB	0dfH
	DB	0dfH
	DB	0caH
	DB	011H
	DB	011H
	DB	012H
	DB	0dfH
	DB	033H
	DB	011H
	DB	011H
	DB	011H
	DB	033H
	DB	0dfH
	DB	012H
	DB	011H
	DB	011H
	DB	0caH
	DB	0dfH
	DB	0dfH
	DB	08eH
	DB	0d0H
	DB	011H
	DB	012H
	DB	0dfH
	DB	033H
	DB	011H
	DB	011H
	DB	08eH
	DB	0dfH
	DB	0dfH
	DB	012H
	DB	011H
	DB	011H
	DB	012H
	DB	0dfH
	DB	033H
	DB	011H
	DB	0d0H
	DB	011H
	DB	033H
	DB	0dfH
	DB	012H
	DB	011H
	DB	011H
	DB	0caH
	DB	0dfH
	DB	0dfH
	DB	0caH
	DB	011H
	DB	011H
	DB	012H
	DB	0dfH
	DB	033H
	DB	011H
	DB	011H
	DB	08eH
	DB	033H
	DB	0dfH
	DB	012H
	DB	011H
	DB	011H
	DB	012H
	DB	0dfH
	DB	033H
	DB	08eH
	DB	0d0H
	DB	011H
	DB	033H
	DB	0dfH
	DB	012H
	DB	011H
	DB	011H
	DB	0caH
	DB	0dfH
	DB	0dfH
	DB	0caH
	DB	011H
	DB	011H
	DB	012H
	DB	0dfH
	DB	033H
	DB	011H
	DB	0d0H
	DB	08eH
	DB	033H
	DB	0dfH
	DB	012H
	DB	011H
	DB	011H
	DB	012H
	DB	0dfH
	DB	033H
	DB	08eH
	DB	011H
	DB	011H
	DB	012H
	DB	0dfH
	DB	012H
	DB	011H
	DB	011H
	DB	08eH
	DB	0dfH
	DB	0dfH
	DB	0caH
	DB	011H
	DB	011H
	DB	012H
	DB	0dfH
	DB	033H
	DB	011H
	DB	0d0H
	DB	011H
	DB	033H
	DB	0dfH
	DB	012H
	DB	011H
	DB	011H
	DB	0caH
	DB	0dfH
	DB	0dfH
	DB	08eH
	DB	011H
	DB	011H
	DB	012H
	DB	0dfH
	DB	012H
	DB	011H
	DB	0d0H
	DB	08eH
	DB	033H
	DB	0dfH
	DB	012H
	DB	011H
	DB	011H
	DB	012H
	DB	0d2H
	DB	033H
	DB	08eH
	DB	011H
	DB	011H
	DB	033H
	DB	0dfH
	DB	012H
	DB	011H
	DB	011H
	DB	0caH
	DB	0dfH
	DB	0dfH
	DB	0caH
	DB	011H
	DB	011H
	DB	012H
	DB	0dfH
	DB	033H
	DB	011H
	DB	0d0H
	DB	08eH
	DB	033H
	DB	0dfH
	DB	012H
	DB	011H
	DB	011H
	DB	012H
	DB	0dfH
	DB	0dfH
	DB	08eH
	DB	011H
	DB	011H
	DB	033H
	DB	0d2H
	DB	012H
	DB	011H
	DB	011H
	DB	08eH
	DB	0dfH
	DB	0dfH
	DB	0caH
	DB	011H
	DB	011H
	DB	012H
	DB	0dfH
	DB	033H
	DB	011H
	DB	011H
	DB	08eH
	DB	033H
	DB	0dfH
	DB	012H
	DB	011H
	DB	011H
	DB	012H
	DB	0dfH
	DB	033H
	DB	08eH
	DB	011H
	DB	011H
	DB	012H
	DB	0dfH
	DB	012H
	DB	011H
	DB	011H
	DB	08eH
	DB	0dfH
	DB	0dfH
	DB	0caH
	DB	011H
	DB	011H
	DB	012H
	DB	0dfH
	DB	033H
	DB	011H
	DB	011H
	DB	011H
	DB	033H
	DB	0dfH
	DB	012H
	DB	011H
	DB	011H
	DB	0caH
	DB	0dfH
	DB	0dfH
	DB	08eH
	DB	0d0H
	DB	011H
	DB	012H
	DB	0dfH
	DB	033H
	DB	011H
	DB	011H
	DB	08eH
	DB	0dfH
	DB	0dfH
	DB	012H
	DB	011H
	DB	011H
	DB	012H
	DB	0dfH
	DB	033H
	DB	08eH
	DB	0abH
	DB	011H
	DB	033H
	DB	0dfH
	DB	012H
	DB	011H
	DB	011H
	DB	0caH
	DB	0dfH
	DB	0dfH
	DB	0caH
	DB	011H
	DB	011H
	DB	012H
	DB	0dfH
	DB	033H
	DB	011H
	DB	011H
	DB	08eH
	DB	033H
	DB	0dfH
	DB	012H
	DB	011H
	DB	011H
	DB	012H
	DB	0dfH
	DB	033H
	DB	08eH
	DB	0d0H
	DB	011H
	DB	033H
	DB	0dfH
	DB	012H
	DB	011H
	DB	011H
	DB	012H
	DB	02eH
	DB	078H
	DB	047H
	DB	0cH
	DB	07H
	DB	011H
	DB	01H
	DB	01H
	DB	01H
	DB	01H
	DB	01H
	DB	01H
	DB	01H
	DB	08H
	DB	0cH
	DB	07H
	DB	0e0H
	DB	08eH
	DB	097H
	DB	03H
	DB	0c7H
	DB	012H
	DB	012H
	DB	0b2H
	DB	0c5H
	DB	0c5H
	DB	0d0H
	DB	012H
	DB	0caH
	DB	0a9H
	DB	03H
	DB	09H
	DB	08eH
	DB	033H
	DB	011H
	DB	097H
	DB	0c5H
	DB	0eH
	DB	012H
	DB	012H
	DB	0eH
	DB	03H
	DB	097H
	DB	011H
	DB	033H
	DB	08eH
	DB	09H
	DB	03H
	DB	0a9H
	DB	012H
	DB	012H
	DB	0d0H
	DB	0c5H
	DB	0c5H
	DB	0b2H
	DB	012H
	DB	012H
	DB	0a9H
	DB	03H
	DB	09H
	DB	08eH
	DB	033H
	DB	011H
	DB	097H
	DB	0c5H
	DB	0eH
	DB	012H
	DB	012H
	DB	0eH
	DB	0c5H
	DB	0c5H
	DB	011H
	DB	012H
	DB	08eH
	DB	09H
	DB	03H
	DB	0a9H
	DB	0caH
	DB	033H
	DB	0d0H
	DB	0c5H
	DB	0c5H
	DB	0b2H
	DB	012H
	DB	012H
	DB	0c7H
	DB	03H
	DB	09H
	DB	08eH
	DB	033H
	DB	011H
	DB	097H
	DB	0c5H
	DB	08bH
	DB	012H
	DB	012H
	DB	0eH
	DB	0c5H
	DB	0c5H
	DB	0d0H
	DB	033H
	DB	0caH
	DB	09H
	DB	03H
	DB	09H
	DB	0caH
	DB	012H
	DB	011H
	DB	0c5H
	DB	0c5H
	DB	0eH
	DB	012H
	DB	012H
	DB	0eH
	DB	0c5H
	DB	097H
	DB	011H
	DB	033H
	DB	011H
	DB	09H
	DB	03H
	DB	0c7H
	DB	012H
	DB	012H
	DB	0b2H
	DB	0c5H
	DB	0c5H
	DB	0d0H
	DB	033H
	DB	012H
	DB	0a9H
	DB	03H
	DB	09H
	DB	08eH
	DB	012H
	DB	011H
	DB	0c5H
	DB	0c5H
	DB	0eH
	DB	012H
	DB	012H
	DB	0eH
	DB	0c5H
	DB	097H
	DB	011H
	DB	033H
	DB	08eH
	DB	09H
	DB	03H
	DB	0a9H
	DB	012H
	DB	012H
	DB	0b2H
	DB	0c5H
	DB	0c5H
	DB	0b2H
	DB	012H
	DB	012H
	DB	0a9H
	DB	03H
	DB	09H
	DB	08eH
	DB	033H
	DB	011H
	DB	097H
	DB	03H
	DB	0eH
	DB	012H
	DB	012H
	DB	0eH
	DB	0c5H
	DB	097H
	DB	011H
	DB	033H
	DB	0caH
	DB	09H
	DB	03H
	DB	0a9H
	DB	0caH
	DB	012H
	DB	0d0H
	DB	0c5H
	DB	0c5H
	DB	0b2H
	DB	012H
	DB	012H
	DB	0c7H
	DB	0c5H
	DB	09H
	DB	08eH
	DB	033H
	DB	011H
	DB	09H
	DB	03H
	DB	08bH
	DB	012H
	DB	012H
	DB	0eH
	DB	0c5H
	DB	0c5H
	DB	0d0H
	DB	033H
	DB	0caH
	DB	09H
	DB	03H
	DB	09H
	DB	0caH
	DB	033H
	DB	011H
	DB	0c5H
	DB	03H
	DB	0eH
	DB	012H
	DB	012H
	DB	08bH
	DB	03H
	DB	09H
	DB	011H
	DB	033H
	DB	08eH
	DB	09H
	DB	0c5H
	DB	0c7H
	DB	012H
	DB	012H
	DB	0b2H
	DB	0c5H
	DB	0c5H
	DB	0d0H
	DB	012H
	DB	012H
	DB	0a9H
	DB	03H
	DB	09H
	DB	08eH
	DB	033H
	DB	011H
	DB	097H
	DB	0c5H
	DB	0eH
	DB	012H
	DB	012H
	DB	0eH
	DB	03H
	DB	097H
	DB	011H
	DB	033H
	DB	08eH
	DB	09H
	DB	03H
	DB	0a9H
	DB	012H
	DB	033H
	DB	0d0H
	DB	0c5H
	DB	0c5H
	DB	0b2H
	DB	012H
	DB	012H
	DB	0a9H
	DB	03H
	DB	09H
	DB	08eH
	DB	033H
	DB	011H
	DB	097H
	DB	0c5H
	DB	0eH
	DB	012H
	DB	012H
	DB	0eH
	DB	0c5H
	DB	0c5H
	DB	011H
	DB	012H
	DB	08eH
	DB	09H
	DB	03H
	DB	0a9H
	DB	0caH
	DB	033H
	DB	0d0H
	DB	0c5H
	DB	0c5H
	DB	0b2H
	DB	033H
	DB	012H
	DB	0c7H
	DB	03H
	DB	09H
	DB	011H
	DB	033H
	DB	011H
	DB	097H
	DB	03H
	DB	08bH
	DB	012H
	DB	012H
	DB	0eH
	DB	0c5H
	DB	0c5H
	DB	0d0H
	DB	033H
	DB	0caH
	DB	0a9H
	DB	03H
	DB	09H
	DB	0caH
	DB	012H
	DB	011H
	DB	0c5H
	DB	0c5H
	DB	0eH
	DB	012H
	DB	012H
	DB	0eH
	DB	0c5H
	DB	097H
	DB	011H
	DB	033H
	DB	011H
	DB	09H
	DB	03H
	DB	0c7H
	DB	012H
	DB	012H
	DB	0b2H
	DB	0c5H
	DB	0c5H
	DB	0d0H
	DB	033H
	DB	012H
	DB	0a9H
	DB	03H
	DB	09H
	DB	0caH
	DB	012H
	DB	011H
	DB	0c5H
	DB	0c5H
	DB	0eH
	DB	012H
	DB	012H
	DB	0eH
	DB	0c5H
	DB	097H
	DB	011H
	DB	033H
	DB	08eH
	DB	09H
	DB	03H
	DB	0a9H
	DB	012H
	DB	012H
	DB	0b2H
	DB	0c5H
	DB	0c5H
	DB	0b2H
	DB	012H
	DB	012H
	DB	0a9H
	DB	03H
	DB	09H
	DB	08eH
	DB	033H
	DB	011H
	DB	097H
	DB	03H
	DB	0eH
	DB	012H
	DB	012H
	DB	0eH
	DB	0c5H
	DB	097H
	DB	011H
	DB	033H
	DB	0caH
	DB	09H
	DB	03H
	DB	0a9H
	DB	0caH
	DB	012H
	DB	0d0H
	DB	0c5H
	DB	0c5H
	DB	0b2H
	DB	012H
	DB	012H
	DB	0c7H
	DB	03H
	DB	09H
	DB	08eH
	DB	033H
	DB	011H
	DB	09H
	DB	03H
	DB	08bH
	DB	012H
	DB	012H
	DB	0eH
	DB	0c5H
	DB	0c5H
	DB	0d0H
	DB	012H
	DB	0caH
	DB	09H
	DB	03H
	DB	09H
	DB	0caH
	DB	033H
	DB	011H
	DB	0c5H
	DB	0c5H
	DB	0eH
	DB	012H
	DB	012H
	DB	08bH
	DB	03H
	DB	09H
	DB	011H
	DB	033H
	DB	08eH
	DB	09H
	DB	0c5H
	DB	0c7H
	DB	012H
	DB	012H
	DB	0b2H
	DB	0c5H
	DB	0c5H
	DB	0d0H
	DB	012H
	DB	0caH
	DB	0a9H
	DB	03H
	DB	09H
	DB	08eH
	DB	033H
	DB	011H
	DB	097H
	DB	0c5H
	DB	0eH
	DB	012H
	DB	012H
	DB	0eH
	DB	0c5H
	DB	097H
	DB	011H
	DB	033H
	DB	08eH
	DB	09H
	DB	03H
	DB	0a9H
	DB	012H
	DB	033H
	DB	0deH
	DB	0c5H
	DB	0c5H
	DB	0b2H
	DB	012H
	DB	012H
	DB	0a9H
	DB	03H
	DB	09H
	DB	08eH
	DB	033H
	DB	011H
	DB	097H
	DB	0c5H
	DB	0eH
	DB	012H
	DB	012H
	DB	0eH
	DB	011H
	DB	047H
	DB	0cH
	DB	08H
	DB	01H
	DB	01H
	DB	01H
	DB	01H
	DB	01H
	DB	012H
	DB	0b0H
	DB	013H
	DB	08eH
	DB	011H
	DB	0d0H
	DB	0a9H
	DB	09H
	DB	08bH
	DB	011H
	DB	011H
	DB	0eH
	DB	09H
	DB	09H
	DB	0b2H
	DB	011H
	DB	011H
	DB	0daH
	DB	09H
	DB	0a9H
	DB	0d0H
	DB	011H
	DB	0b2H
	DB	09H
	DB	09H
	DB	0eH
	DB	011H
	DB	011H
	DB	0eH
	DB	09H
	DB	09H
	DB	0b2H
	DB	011H
	DB	011H
	DB	0a9H
	DB	09H
	DB	0c7H
	DB	011H
	DB	011H
	DB	0eH
	DB	09H
	DB	09H
	DB	0eH
	DB	011H
	DB	011H
	DB	0c7H
	DB	09H
	DB	0a9H
	DB	0d0H
	DB	011H
	DB	0d0H
	DB	09H
	DB	09H
	DB	0eH
	DB	011H
	DB	011H
	DB	0eH
	DB	09H
	DB	09H
	DB	0b2H
	DB	011H
	DB	011H
	DB	0a9H
	DB	09H
	DB	0c7H
	DB	011H
	DB	011H
	DB	0b2H
	DB	09H
	DB	09H
	DB	0eH
	DB	011H
	DB	011H
	DB	0eH
	DB	09H
	DB	0a9H
	DB	0d0H
	DB	011H
	DB	0d0H
	DB	09H
	DB	09H
	DB	0eH
	DB	011H
	DB	011H
	DB	0eH
	DB	09H
	DB	09H
	DB	0b2H
	DB	011H
	DB	011H
	DB	0a9H
	DB	09H
	DB	0daH
	DB	011H
	DB	011H
	DB	0b2H
	DB	09H
	DB	09H
	DB	0eH
	DB	011H
	DB	011H
	DB	0eH
	DB	09H
	DB	09H
	DB	0d0H
	DB	011H
	DB	0d0H
	DB	0a9H
	DB	09H
	DB	08bH
	DB	011H
	DB	011H
	DB	0eH
	DB	09H
	DB	09H
	DB	0b2H
	DB	011H
	DB	011H
	DB	0c7H
	DB	09H
	DB	0a9H
	DB	011H
	DB	011H
	DB	0b2H
	DB	09H
	DB	09H
	DB	0eH
	DB	011H
	DB	011H
	DB	0eH
	DB	09H
	DB	09H
	DB	0b2H
	DB	011H
	DB	0d0H
	DB	0a9H
	DB	09H
	DB	0c7H
	DB	011H
	DB	011H
	DB	0eH
	DB	09H
	DB	09H
	DB	0eH
	DB	011H
	DB	011H
	DB	0c7H
	DB	09H
	DB	0a9H
	DB	0d0H
	DB	011H
	DB	0b2H
	DB	09H
	DB	09H
	DB	0eH
	DB	011H
	DB	011H
	DB	0eH
	DB	09H
	DB	09H
	DB	0b2H
	DB	011H
	DB	011H
	DB	0a9H
	DB	09H
	DB	0c7H
	DB	011H
	DB	011H
	DB	0b2H
	DB	09H
	DB	09H
	DB	0eH
	DB	011H
	DB	011H
	DB	08bH
	DB	09H
	DB	0a9H
	DB	0d0H
	DB	011H
	DB	0d0H
	DB	0a9H
	DB	09H
	DB	0eH
	DB	011H
	DB	011H
	DB	0eH
	DB	09H
	DB	09H
	DB	0b2H
	DB	011H
	DB	011H
	DB	0a9H
	DB	09H
	DB	0daH
	DB	011H
	DB	011H
	DB	0b2H
	DB	09H
	DB	09H
	DB	0eH
	DB	011H
	DB	011H
	DB	0eH
	DB	09H
	DB	0a9H
	DB	0d0H
	DB	011H
	DB	0d0H
	DB	0a9H
	DB	09H
	DB	08bH
	DB	011H
	DB	011H
	DB	0eH
	DB	09H
	DB	09H
	DB	0b2H
	DB	011H
	DB	011H
	DB	0c7H
	DB	09H
	DB	0a9H
	DB	0d0H
	DB	011H
	DB	0b2H
	DB	09H
	DB	09H
	DB	0eH
	DB	011H
	DB	011H
	DB	0eH
	DB	09H
	DB	09H
	DB	0d0H
	DB	011H
	DB	0d0H
	DB	0a9H
	DB	09H
	DB	0c7H
	DB	011H
	DB	011H
	DB	0eH
	DB	09H
	DB	09H
	DB	0eH
	DB	011H
	DB	011H
	DB	0c7H
	DB	09H
	DB	0a9H
	DB	0d0H
	DB	011H
	DB	0d0H
	DB	09H
	DB	09H
	DB	0eH
	DB	011H
	DB	011H
	DB	0eH
	DB	09H
	DB	09H
	DB	0b2H
	DB	011H
	DB	011H
	DB	0a9H
	DB	09H
	DB	0c7H
	DB	011H
	DB	011H
	DB	0b2H
	DB	09H
	DB	09H
	DB	0eH
	DB	011H
	DB	011H
	DB	0eH
	DB	09H
	DB	0a9H
	DB	0d0H
	DB	011H
	DB	0d0H
	DB	09H
	DB	09H
	DB	0eH
	DB	011H
	DB	011H
	DB	0eH
	DB	09H
	DB	09H
	DB	0b2H
	DB	011H
	DB	011H
	DB	0daH
	DB	09H
	DB	0a9H
	DB	011H
	DB	011H
	DB	0b2H
	DB	09H
	DB	09H
	DB	0eH
	DB	011H
	DB	011H
	DB	0eH
	DB	09H
	DB	0a9H
	DB	0d0H
	DB	011H
	DB	0d0H
	DB	0a9H
	DB	09H
	DB	08bH
	DB	011H
	DB	011H
	DB	0eH
	DB	09H
	DB	09H
	DB	0b2H
	DB	011H
	DB	011H
	DB	0c7H
	DB	09H
	DB	0a9H
	DB	0d0H
	DB	011H
	DB	0b2H
	DB	09H
	DB	09H
	DB	0eH
	DB	011H
	DB	011H
	DB	0eH
	DB	09H
	DB	09H
	DB	0b2H
	DB	011H
	DB	0d0H
	DB	0a9H
	DB	09H
	DB	0c7H
	DB	011H
	DB	011H
	DB	0eH
	DB	09H
	DB	09H
	DB	0eH
	DB	011H
	DB	011H
	DB	0c7H
	DB	09H
	DB	0a9H
	DB	0d0H
	DB	011H
	DB	0d0H
	DB	09H
	DB	09H
	DB	0eH
	DB	011H
	DB	011H
	DB	0eH
	DB	09H
	DB	09H
	DB	0b2H
	DB	011H
	DB	011H
	DB	0a9H
	DB	09H
	DB	0daH
	DB	011H
	DB	011H
	DB	0b2H
	DB	09H
	DB	09H
	DB	0eH
	DB	011H
	DB	011H
	DB	08bH
	DB	09H
	DB	0a9H
	DB	0d0H
	DB	011H
	DB	0d0H
	DB	0a9H
	DB	09H
	DB	0eH
	DB	011H
	DB	011H
	DB	0eH
	DB	09H
	DB	09H
	DB	0b2H
	DB	011H
	DB	011H
	DB	0a9H
	DB	09H
	DB	0a9H
	DB	011H
	DB	011H
	DB	0b2H
	DB	09H
	DB	09H
	DB	0eH
	DB	011H
	DB	011H
	DB	0eH
	DB	09H
	DB	0a9H
	DB	0d0H
	DB	011H
	DB	0d0H
	DB	0a9H
	DB	09H
	DB	0c7H
	DB	011H
	DB	011H
	DB	0eH
	DB	09H
	DB	09H
	DB	0b2H
	DB	011H
	DB	011H
	DB	0c7H
	DB	09H
	DB	0a9H
	DB	0d0H
	DB	011H
	DB	0b2H
	DB	09H
	DB	09H
	DB	0eH
	DB	011H
	DB	011H
	DB	0eH
	DB	09H
	DB	09H
	DB	0b2H
	DB	011H
	DB	0d0H
	DB	0a9H
	DB	09H
	DB	0c7H
	DB	011H
	DB	011H
	DB	0eH
	DB	09H
	DB	09H
	DB	0eH
	DB	011H
	DB	011H
	DB	0c7H
	DB	09H
	DB	0a9H
	DB	0d0H
	DB	011H
	DB	0d0H
	DB	09H
	DB	09H
	DB	0eH
	DB	011H
	DB	011H
	DB	0eH
	DB	0c5H
	DB	0eH
	DB	013H
	DB	0cH
	DB	012H
	DB	01H
	DB	01H
	DB	01H
	DB	0c5H
	DB	07H
	DB	07H
	DB	012H
	DB	0eH
	DB	0c7H
	DB	0eH
	DB	012H
	DB	012H
	DB	08eH
	DB	0eH
	DB	08bH
	DB	011H
	DB	012H
	DB	012H
	DB	0d0H
	DB	0c7H
	DB	0eH
	DB	08eH
	DB	012H
	DB	0caH
	DB	0eH
	DB	0c7H
	DB	0b2H
	DB	012H
	DB	012H
	DB	011H
	DB	08bH
	DB	0eH
	DB	011H
	DB	012H
	DB	012H
	DB	0b2H
	DB	0c7H
	DB	0eH
	DB	0caH
	DB	012H
	DB	08eH
	DB	0eH
	DB	0c7H
	DB	0d0H
	DB	012H
	DB	012H
	DB	011H
	DB	0c7H
	DB	0eH
	DB	08eH
	DB	012H
	DB	0caH
	DB	0eH
	DB	0c7H
	DB	0b2H
	DB	012H
	DB	012H
	DB	011H
	DB	08bH
	DB	08bH
	DB	011H
	DB	012H
	DB	012H
	DB	0b2H
	DB	0c7H
	DB	0eH
	DB	0caH
	DB	012H
	DB	08eH
	DB	0eH
	DB	0c7H
	DB	0d0H
	DB	012H
	DB	012H
	DB	011H
	DB	0c7H
	DB	0eH
	DB	08eH
	DB	012H
	DB	012H
	DB	0eH
	DB	0c7H
	DB	0b2H
	DB	012H
	DB	012H
	DB	08eH
	DB	0eH
	DB	0c7H
	DB	011H
	DB	012H
	DB	012H
	DB	0d0H
	DB	0c7H
	DB	0eH
	DB	0caH
	DB	012H
	DB	0caH
	DB	0eH
	DB	0c7H
	DB	0d0H
	DB	012H
	DB	012H
	DB	011H
	DB	0c7H
	DB	0eH
	DB	011H
	DB	012H
	DB	012H
	DB	0b2H
	DB	0c7H
	DB	0eH
	DB	012H
	DB	012H
	DB	08eH
	DB	0eH
	DB	0c7H
	DB	011H
	DB	012H
	DB	012H
	DB	0d0H
	DB	0c7H
	DB	0eH
	DB	08eH
	DB	012H
	DB	012H
	DB	0eH
	DB	0c7H
	DB	0b2H
	DB	012H
	DB	012H
	DB	011H
	DB	0eH
	DB	08bH
	DB	011H
	DB	012H
	DB	012H
	DB	0b2H
	DB	0c7H
	DB	0eH
	DB	0caH
	DB	012H
	DB	08eH
	DB	0eH
	DB	0c7H
	DB	0d0H
	DB	012H
	DB	012H
	DB	011H
	DB	0c7H
	DB	0eH
	DB	08eH
	DB	012H
	DB	0caH
	DB	0eH
	DB	0c7H
	DB	0b2H
	DB	012H
	DB	012H
	DB	011H
	DB	0eH
	DB	08bH
	DB	011H
	DB	012H
	DB	012H
	DB	0b2H
	DB	0c7H
	DB	0eH
	DB	0caH
	DB	012H
	DB	0caH
	DB	0eH
	DB	0c7H
	DB	0d0H
	DB	012H
	DB	012H
	DB	011H
	DB	08bH
	DB	0eH
	DB	08eH
	DB	012H
	DB	012H
	DB	0eH
	DB	0c7H
	DB	0b2H
	DB	012H
	DB	012H
	DB	011H
	DB	0eH
	DB	08bH
	DB	011H
	DB	012H
	DB	012H
	DB	0d0H
	DB	0c7H
	DB	0eH
	DB	0caH
	DB	012H
	DB	0caH
	DB	0eH
	DB	0c7H
	DB	0d0H
	DB	012H
	DB	012H
	DB	011H
	DB	08bH
	DB	0eH
	DB	011H
	DB	012H
	DB	012H
	DB	0b2H
	DB	0c7H
	DB	0eH
	DB	012H
	DB	012H
	DB	08eH
	DB	0eH
	DB	0c7H
	DB	011H
	DB	012H
	DB	012H
	DB	0d0H
	DB	0c7H
	DB	0eH
	DB	08eH
	DB	012H
	DB	0caH
	DB	0eH
	DB	0c7H
	DB	0b2H
	DB	012H
	DB	012H
	DB	011H
	DB	08bH
	DB	0eH
	DB	011H
	DB	012H
	DB	012H
	DB	0b2H
	DB	0c7H
	DB	0eH
	DB	012H
	DB	012H
	DB	08eH
	DB	0eH
	DB	0c7H
	DB	0d0H
	DB	012H
	DB	012H
	DB	011H
	DB	0c7H
	DB	0eH
	DB	08eH
	DB	012H
	DB	0caH
	DB	0eH
	DB	0c7H
	DB	0b2H
	DB	012H
	DB	012H
	DB	011H
	DB	08bH
	DB	08bH
	DB	011H
	DB	012H
	DB	012H
	DB	0b2H
	DB	0c7H
	DB	0eH
	DB	0caH
	DB	012H
	DB	08eH
	DB	0eH
	DB	0c7H
	DB	0d0H
	DB	012H
	DB	012H
	DB	011H
	DB	0c7H
	DB	0eH
	DB	08eH
	DB	012H
	DB	012H
	DB	0eH
	DB	0c7H
	DB	0b2H
	DB	012H
	DB	012H
	DB	011H
	DB	0eH
	DB	0c7H
	DB	011H
	DB	012H
	DB	012H
	DB	0d0H
	DB	0c7H
	DB	0eH
	DB	08eH
	DB	012H
	DB	0caH
	DB	0eH
	DB	0c7H
	DB	0d0H
	DB	012H
	DB	012H
	DB	011H
	DB	08bH
	DB	0eH
	DB	011H
	DB	012H
	DB	012H
	DB	0b2H
	DB	0c7H
	DB	0eH
	DB	012H
	DB	012H
	DB	08eH
	DB	0eH
	DB	0c7H
	DB	011H
	DB	012H
	DB	012H
	DB	0d0H
	DB	0c7H
	DB	0eH
	DB	08eH
	DB	012H
	DB	0caH
	DB	0eH
	DB	0c7H
	DB	0b2H
	DB	012H
	DB	012H
	DB	011H
	DB	0eH
	DB	08bH
	DB	011H
	DB	012H
	DB	012H
	DB	0b2H
	DB	0c7H
	DB	0eH
	DB	0caH
	DB	012H
	DB	08eH
	DB	0eH
	DB	0c7H
	DB	0d0H
	DB	012H
	DB	012H
	DB	0d0H
	DB	0c7H
	DB	0eH
	DB	08eH
	DB	012H
	DB	012H
	DB	0eH
	DB	0c7H
	DB	0b2H
	DB	012H
	DB	012H
	DB	011H
	DB	0eH
	DB	08bH
	DB	011H
	DB	012H
	DB	012H
	DB	0d0H
	DB	0c7H
	DB	0eH
	DB	0caH
	DB	012H
	DB	08eH
	DB	0eH
	DB	0c7H
	DB	0d0H
	DB	012H
	DB	012H
	DB	011H
	DB	08bH
	DB	0eH
	DB	08eH
	DB	012H
	DB	012H
	DB	0eH
	DB	0c7H
	DB	0b2H
	DB	012H
	DB	012H
	DB	011H
	DB	0eH
	DB	08bH
	DB	011H
	DB	012H
	DB	012H
	DB	0d0H
	DB	0c7H
	DB	0eH
	DB	0caH
	DB	012H
	DB	0caH
	DB	0eH
	DB	0c7H
	DB	0d0H
	DB	012H
	DB	012H
	DB	011H
	DB	08bH
	DB	0eH
	DB	011H
	DB	012H
	DB	012H
	DB	0b2H
	DB	0c7H
	DB	0eH
	DB	012H
	DB	012H
	DB	08eH
	DB	0eH
	DB	0c7H
	DB	011H
	DB	012H
	DB	012H
	DB	0d0H
	DB	0c7H
	DB	0eH
	DB	08eH
	DB	012H
	DB	0caH
	DB	0eH
	DB	0c7H
	DB	0b2H
	DB	012H
	DB	012H
	DB	011H
	DB	08bH
	DB	0eH
	DB	011H
	DB	012H
	DB	012H
	DB	0b2H
	DB	0c7H
	DB	0eH
	DB	0caH
	DB	012H
	DB	08eH
	DB	0eH
	DB	0c7H
	DB	0d0H
	DB	012H
	DB	012H
	DB	011H
	DB	0c7H
	DB	0eH
	DB	08eH
	DB	012H
	DB	0caH
	DB	0eH
	DB	0c7H
	DB	0b2H
	DB	012H
	DB	012H
	DB	011H
	DB	08bH
	DB	08bH
	DB	011H
	DB	012H
	DB	0caH
	DB	011H
	DB	047H
	DB	07H
	DB	097H
	DB	01H
	DB	01H
	DB	08H
	DB	0cH
	DB	08H
	DB	011H
	DB	09H
	DB	03H
	DB	09H
	DB	08eH
	DB	012H
	DB	0d0H
	DB	0c5H
	DB	03H
	DB	0eH
	DB	012H
	DB	012H
	DB	0c7H
	DB	03H
	DB	097H
	DB	011H
	DB	012H
	DB	011H
	DB	09H
	DB	03H
	DB	0a9H
	DB	0caH
	DB	012H
	DB	0eH
	DB	0c5H
	DB	0c5H
	DB	0b2H
	DB	012H
	DB	0caH
	DB	0a9H
	DB	03H
	DB	09H
	DB	011H
	DB	012H
	DB	011H
	DB	0c5H
	DB	03H
	DB	0eH
	DB	012H
	DB	012H
	DB	0eH
	DB	03H
	DB	0c5H
	DB	011H
	DB	012H
	DB	011H
	DB	09H
	DB	03H
	DB	09H
	DB	08eH
	DB	012H
	DB	0b2H
	DB	0c5H
	DB	0c5H
	DB	0eH
	DB	012H
	DB	0caH
	DB	0a9H
	DB	03H
	DB	09H
	DB	011H
	DB	012H
	DB	011H
	DB	097H
	DB	03H
	DB	0c7H
	DB	012H
	DB	012H
	DB	0eH
	DB	03H
	DB	0c5H
	DB	0d0H
	DB	012H
	DB	08eH
	DB	09H
	DB	03H
	DB	09H
	DB	08eH
	DB	012H
	DB	0d0H
	DB	0c5H
	DB	03H
	DB	0eH
	DB	012H
	DB	0caH
	DB	0daH
	DB	03H
	DB	09H
	DB	011H
	DB	012H
	DB	011H
	DB	09H
	DB	03H
	DB	0a9H
	DB	0caH
	DB	012H
	DB	0eH
	DB	03H
	DB	0c5H
	DB	0b2H
	DB	012H
	DB	08eH
	DB	09H
	DB	03H
	DB	09H
	DB	08eH
	DB	012H
	DB	0d0H
	DB	0c5H
	DB	03H
	DB	0eH
	DB	012H
	DB	012H
	DB	08bH
	DB	03H
	DB	0c5H
	DB	011H
	DB	012H
	DB	011H
	DB	09H
	DB	03H
	DB	0a9H
	DB	0caH
	DB	012H
	DB	0eH
	DB	0c5H
	DB	0c5H
	DB	0b2H
	DB	012H
	DB	0caH
	DB	09H
	DB	03H
	DB	09H
	DB	011H
	DB	012H
	DB	011H
	DB	0c5H
	DB	03H
	DB	0eH
	DB	012H
	DB	012H
	DB	0eH
	DB	03H
	DB	0c5H
	DB	011H
	DB	012H
	DB	011H
	DB	09H
	DB	03H
	DB	0a9H
	DB	08eH
	DB	012H
	DB	0b2H
	DB	0c5H
	DB	0c5H
	DB	0eH
	DB	012H
	DB	0caH
	DB	0a9H
	DB	03H
	DB	09H
	DB	011H
	DB	012H
	DB	011H
	DB	0c5H
	DB	03H
	DB	0c7H
	DB	012H
	DB	012H
	DB	0eH
	DB	0c5H
	DB	0c5H
	DB	0d0H
	DB	012H
	DB	08eH
	DB	09H
	DB	03H
	DB	09H
	DB	08eH
	DB	012H
	DB	0d0H
	DB	0c5H
	DB	0c5H
	DB	0eH
	DB	012H
	DB	0caH
	DB	0daH
	DB	03H
	DB	097H
	DB	011H
	DB	012H
	DB	011H
	DB	097H
	DB	03H
	DB	0daH
	DB	0caH
	DB	012H
	DB	0eH
	DB	0c5H
	DB	0c5H
	DB	0d0H
	DB	012H
	DB	08eH
	DB	09H
	DB	03H
	DB	09H
	DB	08eH
	DB	012H
	DB	0d0H
	DB	0c5H
	DB	03H
	DB	0eH
	DB	012H
	DB	012H
	DB	08bH
	DB	03H
	DB	0c5H
	DB	011H
	DB	012H
	DB	011H
	DB	09H
	DB	03H
	DB	0a9H
	DB	0caH
	DB	012H
	DB	0eH
	DB	0c5H
	DB	0c5H
	DB	0b2H
	DB	012H
	DB	0caH
	DB	0a9H
	DB	03H
	DB	09H
	DB	011H
	DB	012H
	DB	011H
	DB	0c5H
	DB	03H
	DB	0eH
	DB	012H
	DB	012H
	DB	0eH
	DB	03H
	DB	0c5H
	DB	011H
	DB	012H
	DB	011H
	DB	09H
	DB	03H
	DB	09H
	DB	08eH
	DB	012H
	DB	0b2H
	DB	0c5H
	DB	0c5H
	DB	0eH
	DB	012H
	DB	0caH
	DB	0a9H
	DB	03H
	DB	09H
	DB	011H
	DB	012H
	DB	011H
	DB	097H
	DB	03H
	DB	0c7H
	DB	0caH
	DB	012H
	DB	0eH
	DB	03H
	DB	0c5H
	DB	0d0H
	DB	012H
	DB	08eH
	DB	09H
	DB	03H
	DB	09H
	DB	08eH
	DB	012H
	DB	0d0H
	DB	0c5H
	DB	03H
	DB	0eH
	DB	012H
	DB	0caH
	DB	0daH
	DB	03H
	DB	097H
	DB	011H
	DB	012H
	DB	011H
	DB	09H
	DB	03H
	DB	0daH
	DB	0caH
	DB	012H
	DB	0eH
	DB	03H
	DB	0c5H
	DB	0b2H
	DB	012H
	DB	08eH
	DB	09H
	DB	03H
	DB	09H
	DB	08eH
	DB	012H
	DB	0d0H
	DB	0c5H
	DB	03H
	DB	0eH
	DB	012H
	DB	0caH
	DB	0c7H
	DB	03H
	DB	0c5H
	DB	011H
	DB	012H
	DB	011H
	DB	09H
	DB	03H
	DB	0a9H
	DB	0caH
	DB	012H
	DB	0b2H
	DB	0c5H
	DB	0c5H
	DB	0b2H
	DB	012H
	DB	08eH
	DB	0a9H
	DB	03H
	DB	09H
	DB	011H
	DB	012H
	DB	011H
	DB	0c5H
	DB	03H
	DB	0eH
	DB	012H
	DB	012H
	DB	0eH
	DB	03H
	DB	0c5H
	DB	011H
	DB	012H
	DB	011H
	DB	09H
	DB	03H
	DB	0a9H
	DB	08eH
	DB	012H
	DB	0b2H
	DB	0c5H
	DB	0c5H
	DB	0eH
	DB	012H
	DB	0caH
	DB	0a9H
	DB	03H
	DB	097H
	DB	011H
	DB	012H
	DB	011H
	DB	097H
	DB	03H
	DB	0c7H
	DB	012H
	DB	012H
	DB	0eH
	DB	0c5H
	DB	0c5H
	DB	0d0H
	DB	012H
	DB	08eH
	DB	09H
	DB	03H
	DB	09H
	DB	08eH
	DB	012H
	DB	0d0H
	DB	0c5H
	DB	0c5H
	DB	0eH
	DB	012H
	DB	0caH
	DB	0daH
	DB	03H
	DB	097H
	DB	011H
	DB	012H
	DB	011H
	DB	097H
	DB	03H
	DB	0daH
	DB	0caH
	DB	012H
	DB	0eH
	DB	0c5H
	DB	0c5H
	DB	0b2H
	DB	012H
	DB	08eH
	DB	09H
	DB	03H
	DB	09H
	DB	08eH
	DB	012H
	DB	0d0H
	DB	0c5H
	DB	03H
	DB	0eH
	DB	012H
	DB	012H
	DB	08bH
	DB	03H
	DB	097H
	DB	011H
	DB	012H
	DB	011H
	DB	09H
	DB	03H
	DB	0a9H
	DB	0caH
	DB	012H
	DB	0eH
	DB	0c5H
	DB	0c5H
	DB	0b2H
	DB	012H
	DB	0caH
	DB	0a9H
	DB	03H
	DB	09H
	DB	011H
	DB	012H
	DB	011H
	DB	0c5H
	DB	03H
	DB	08bH
	DB	012H
	DB	012H
	DB	0eH
	DB	03H
	DB	0c5H
	DB	0d0H
	DB	012H
	DB	011H
	DB	09H
	DB	03H
	DB	09H
	DB	08eH
	DB	012H
	DB	0b2H
	DB	0c5H
	DB	0c5H
	DB	0eH
	DB	012H
	DB	0caH
	DB	09H
	DB	0d0H
	DB	0cH
	DB	034H
	DB	01H
	DB	097H
	DB	07H
	DB	013H
	DB	0d0H
	DB	0b2H
	DB	0eH
	DB	0daH
	DB	0eH
	DB	0d0H
	DB	0d0H
	DB	0b2H
	DB	0c7H
	DB	0c7H
	DB	0eH
	DB	0d0H
	DB	0d0H
	DB	0eH
	DB	0c7H
	DB	08bH
	DB	0b2H
	DB	0d0H
	DB	0b2H
	DB	0eH
	DB	0daH
	DB	0eH
	DB	0d0H
	DB	0d0H
	DB	0eH
	DB	0c7H
	DB	0c7H
	DB	0eH
	DB	0d0H
	DB	0d0H
	DB	0eH
	DB	0daH
	DB	0eH
	DB	0b2H
	DB	0d0H
	DB	0b2H
	DB	0c7H
	DB	0daH
	DB	0eH
	DB	0d0H
	DB	0d0H
	DB	0eH
	DB	0c7H
	DB	08bH
	DB	0b2H
	DB	0d0H
	DB	0b2H
	DB	0eH
	DB	0daH
	DB	0eH
	DB	0d0H
	DB	0d0H
	DB	0eH
	DB	0c7H
	DB	0c7H
	DB	0eH
	DB	0d0H
	DB	0d0H
	DB	0eH
	DB	0daH
	DB	0eH
	DB	0b2H
	DB	0d0H
	DB	0b2H
	DB	08bH
	DB	0daH
	DB	0eH
	DB	0d0H
	DB	0d0H
	DB	0eH
	DB	0c7H
	DB	0c7H
	DB	0b2H
	DB	0d0H
	DB	0d0H
	DB	0eH
	DB	0daH
	DB	0eH
	DB	0d0H
	DB	0d0H
	DB	0b2H
	DB	0c7H
	DB	0c7H
	DB	0eH
	DB	0d0H
	DB	0d0H
	DB	0eH
	DB	0daH
	DB	0eH
	DB	0b2H
	DB	0d0H
	DB	0b2H
	DB	0eH
	DB	0daH
	DB	0eH
	DB	0d0H
	DB	0d0H
	DB	0eH
	DB	0c7H
	DB	0c7H
	DB	0b2H
	DB	0d0H
	DB	0d0H
	DB	0eH
	DB	0daH
	DB	0eH
	DB	0d0H
	DB	0d0H
	DB	0b2H
	DB	0c7H
	DB	0c7H
	DB	0eH
	DB	0d0H
	DB	0d0H
	DB	0eH
	DB	0daH
	DB	0c7H
	DB	0b2H
	DB	0d0H
	DB	0b2H
	DB	0eH
	DB	0daH
	DB	0eH
	DB	0d0H
	DB	0d0H
	DB	0eH
	DB	0c7H
	DB	0c7H
	DB	0eH
	DB	0d0H
	DB	0d0H
	DB	0eH
	DB	0daH
	DB	0eH
	DB	0b2H
	DB	0d0H
	DB	0b2H
	DB	08bH
	DB	0daH
	DB	0eH
	DB	0d0H
	DB	0d0H
	DB	0eH
	DB	0daH
	DB	0c7H
	DB	0b2H
	DB	0d0H
	DB	0d0H
	DB	0eH
	DB	0daH
	DB	0eH
	DB	0d0H
	DB	0d0H
	DB	0b2H
	DB	0c7H
	DB	0c7H
	DB	0eH
	DB	0d0H
	DB	0d0H
	DB	0eH
	DB	0daH
	DB	0eH
	DB	0b2H
	DB	0d0H
	DB	0b2H
	DB	08bH
	DB	0c7H
	DB	0eH
	DB	0d0H
	DB	0d0H
	DB	0eH
	DB	0c7H
	DB	0c7H
	DB	0b2H
	DB	0d0H
	DB	0d0H
	DB	0eH
	DB	0daH
	DB	0eH
	DB	0d0H
	DB	0d0H
	DB	0b2H
	DB	0c7H
	DB	0c7H
	DB	0eH
	DB	0d0H
	DB	0d0H
	DB	0eH
	DB	0daH
	DB	08bH
	DB	0b2H
	DB	0d0H
	DB	0b2H
	DB	08bH
	DB	0daH
	DB	0eH
	DB	0d0H
	DB	0d0H
	DB	0eH
	DB	0c7H
	DB	0c7H
	DB	0b2H
	DB	0d0H
	DB	0d0H
	DB	0eH
	DB	0daH
	DB	0eH
	DB	0d0H
	DB	0d0H
	DB	0b2H
	DB	0c7H
	DB	0c7H
	DB	0eH
	DB	0d0H
	DB	0d0H
	DB	0eH
	DB	0c7H
	DB	08bH
	DB	0b2H
	DB	0d0H
	DB	0b2H
	DB	0eH
	DB	0daH
	DB	0eH
	DB	0d0H
	DB	0d0H
	DB	0eH
	DB	0c7H
	DB	0c7H
	DB	0b2H
	DB	0d0H
	DB	0d0H
	DB	0eH
	DB	0daH
	DB	0eH
	DB	0d0H
	DB	0d0H
	DB	0b2H
	DB	0c7H
	DB	0daH
	DB	0eH
	DB	0d0H
	DB	0d0H
	DB	0eH
	DB	0c7H
	DB	08bH
	DB	0b2H
	DB	0d0H
	DB	0b2H
	DB	0eH
	DB	0daH
	DB	0eH
	DB	0d0H
	DB	0d0H
	DB	0eH
	DB	0c7H
	DB	0c7H
	DB	0eH
	DB	0d0H
	DB	0d0H
	DB	0eH
	DB	0daH
	DB	0eH
	DB	0b2H
	DB	0d0H
	DB	0b2H
	DB	08bH
	DB	0daH
	DB	0eH
	DB	0d0H
	DB	0d0H
	DB	0eH
	DB	0daH
	DB	0c7H
	DB	0b2H
	DB	0d0H
	DB	0d0H
	DB	0eH
	DB	0daH
	DB	0eH
	DB	0d0H
	DB	0d0H
	DB	0b2H
	DB	0c7H
	DB	0daH
	DB	0eH
	DB	0d0H
	DB	0d0H
	DB	0eH
	DB	0daH
	DB	0eH
	DB	0b2H
	DB	0d0H
	DB	0b2H
	DB	0eH
	DB	0daH
	DB	0eH
	DB	0d0H
	DB	0d0H
	DB	0eH
	DB	0c7H
	DB	0c7H
	DB	0b2H
	DB	0d0H
	DB	0d0H
	DB	0eH
	DB	0daH
	DB	0eH
	DB	0d0H
	DB	0d0H
	DB	0b2H
	DB	0c7H
	DB	0c7H
	DB	0eH
	DB	0d0H
	DB	0d0H
	DB	0eH
	DB	0daH
	DB	08bH
	DB	0b2H
	DB	0d0H
	DB	0b2H
	DB	0eH
	DB	0daH
	DB	0eH
	DB	0d0H
	DB	0d0H
	DB	0eH
	DB	0c7H
	DB	0c7H
	DB	0eH
	DB	0d0H
	DB	0d0H
	DB	0eH
	DB	0daH
	DB	0eH
	DB	0b2H
	DB	0d0H
	DB	0b2H
	DB	08bH
	DB	0c7H
	DB	0eH
	DB	0d0H
	DB	0d0H
	DB	0eH
	DB	0daH
	DB	0c7H
	DB	0b2H
	DB	0d0H
	DB	0d0H
	DB	0eH
	DB	0daH
	DB	0eH
	DB	0d0H
	DB	0d0H
	DB	0b2H
	DB	0c7H
	DB	0c7H
	DB	0eH
	DB	0d0H
	DB	0d0H
	DB	0eH
	DB	0daH
	DB	08bH
	DB	0b2H
	DB	0d0H
	DB	0b2H
	DB	08bH
	DB	0c7H
	DB	0eH
	DB	0d0H
	DB	0d0H
	DB	0eH
	DB	0c7H
	DB	0c7H
	DB	0b2H
	DB	0d0H
	DB	0d0H
	DB	0eH
	DB	0daH
	DB	0eH
	DB	0d0H
	DB	0d0H
	DB	0b2H
	DB	0c7H
	DB	0c7H
	DB	0eH
	DB	0d0H
	DB	0d0H
	DB	0eH
	DB	0daH
	DB	08bH
	DB	0b2H
	DB	0d0H
	DB	0b2H
	DB	08bH
	DB	0daH
	DB	0eH
	DB	0d0H
	DB	0d0H
	DB	0eH
	DB	0c7H
	DB	0c7H
	DB	0b2H
	DB	0d0H
	DB	0d0H
	DB	0eH
	DB	0daH
	DB	0eH
	DB	0b2H
	DB	0d0H
	DB	0b2H
	DB	0c7H
	DB	0c7H
	DB	0eH
	DB	0d0H
	DB	0d0H
	DB	0eH
	DB	0c7H
	DB	08bH
	DB	0b2H
	DB	0d0H
	DB	0b2H
	DB	0eH
	DB	0daH
	DB	0eH
	DB	0d0H
	DB	0d0H
	DB	0eH
	DB	0c7H
	DB	0c7H
	DB	0eH
	DB	0d0H
	DB	0d0H
	DB	0eH
	DB	0daH
	DB	0eH
	DB	0b2H
	DB	0d0H
	DB	0b2H
	DB	0c7H
	DB	0daH
	DB	0eH
	DB	0d0H
	DB	0d0H
	DB	0eH
	DB	0c7H
	DB	0c7H
	DB	0b2H
	DB	0d0H
	DB	0b2H
	DB	0eH
	DB	0daH
	DB	0eH
	DB	0d0H
	DB	0d0H
	DB	0b2H
	DB	0c7H
	DB	0c7H
	DB	0eH
	DB	0d0H
	DB	0d0H
	DB	0eH
	DB	0c7H
	DB	0ccH
	DB	0d9H
	DB	03H
	DB	033H
	DB	0d7H
	DB	0d2H
	DB	09H
	DB	0c7H
	DB	08eH
	DB	033H
	DB	0caH
	DB	08bH
	DB	09H
	DB	0eH
	DB	012H
	DB	012H
	DB	011H
	DB	0a9H
	DB	0a9H
	DB	011H
	DB	012H
	DB	012H
	DB	0eH
	DB	09H
	DB	0eH
	DB	0caH
	DB	012H
	DB	011H
	DB	09H
	DB	09H
	DB	0eH
	DB	012H
	DB	012H
	DB	0eH
	DB	09H
	DB	09H
	DB	011H
	DB	012H
	DB	08eH
	DB	0a9H
	DB	09H
	DB	0eH
	DB	0caH
	DB	012H
	DB	0d0H
	DB	09H
	DB	09H
	DB	0d0H
	DB	012H
	DB	0caH
	DB	0eH
	DB	09H
	DB	0a9H
	DB	011H
	DB	012H
	DB	011H
	DB	09H
	DB	09H
	DB	0eH
	DB	012H
	DB	012H
	DB	0eH
	DB	09H
	DB	09H
	DB	011H
	DB	012H
	DB	08eH
	DB	0a9H
	DB	09H
	DB	0c7H
	DB	08eH
	DB	012H
	DB	0d0H
	DB	09H
	DB	09H
	DB	0b2H
	DB	012H
	DB	0caH
	DB	0eH
	DB	09H
	DB	0a9H
	DB	011H
	DB	012H
	DB	011H
	DB	09H
	DB	09H
	DB	0eH
	DB	0caH
	DB	012H
	DB	0b2H
	DB	09H
	DB	09H
	DB	011H
	DB	012H
	DB	08eH
	DB	0c7H
	DB	09H
	DB	0c7H
	DB	08eH
	DB	012H
	DB	011H
	DB	09H
	DB	09H
	DB	0b2H
	DB	012H
	DB	012H
	DB	0eH
	DB	09H
	DB	09H
	DB	011H
	DB	012H
	DB	011H
	DB	0a9H
	DB	09H
	DB	0eH
	DB	0caH
	DB	012H
	DB	0b2H
	DB	09H
	DB	09H
	DB	0d0H
	DB	012H
	DB	08eH
	DB	0c7H
	DB	09H
	DB	0a9H
	DB	08eH
	DB	012H
	DB	011H
	DB	09H
	DB	09H
	DB	0eH
	DB	012H
	DB	012H
	DB	0eH
	DB	09H
	DB	09H
	DB	011H
	DB	012H
	DB	011H
	DB	0a9H
	DB	09H
	DB	08bH
	DB	0caH
	DB	012H
	DB	0d0H
	DB	09H
	DB	09H
	DB	0d0H
	DB	012H
	DB	0caH
	DB	0eH
	DB	09H
	DB	0a9H
	DB	08eH
	DB	012H
	DB	011H
	DB	09H
	DB	09H
	DB	0eH
	DB	012H
	DB	012H
	DB	0eH
	DB	09H
	DB	09H
	DB	011H
	DB	012H
	DB	08eH
	DB	0daH
	DB	09H
	DB	0c7H
	DB	08eH
	DB	012H
	DB	0d0H
	DB	09H
	DB	09H
	DB	0b2H
	DB	012H
	DB	0caH
	DB	0eH
	DB	09H
	DB	0a9H
	DB	011H
	DB	012H
	DB	011H
	DB	0a9H
	DB	09H
	DB	0eH
	DB	0caH
	DB	012H
	DB	0b2H
	DB	09H
	DB	09H
	DB	0d0H
	DB	012H
	DB	0caH
	DB	0daH
	DB	09H
	DB	0c7H
	DB	08eH
	DB	012H
	DB	011H
	DB	09H
	DB	09H
	DB	0b2H
	DB	012H
	DB	0caH
	DB	0eH
	DB	09H
	DB	0a9H
	DB	011H
	DB	012H
	DB	0caH
	DB	08bH
	DB	09H
	DB	0eH
	DB	012H
	DB	012H
	DB	011H
	DB	0a9H
	DB	0a9H
	DB	011H
	DB	012H
	DB	012H
	DB	0eH
	DB	09H
	DB	0eH
	DB	0caH
	DB	033H
	DB	011H
	DB	0daH
	DB	0a9H
	DB	0d0H
	DB	012H
	DB	012H
	DB	0b2H
	DB	09H
	DB	0daH
	DB	08eH
	DB	033H
	DB	0caH
	DB	08bH
	DB	09H
	DB	0eH
	DB	012H
	DB	033H
	DB	011H
	DB	0a9H
	DB	0a9H
	DB	011H
	DB	012H
	DB	012H
	DB	0eH
	DB	09H
	DB	0eH
	DB	0caH
	DB	033H
	DB	08eH
	DB	0c7H
	DB	0a9H
	DB	0b2H
	DB	012H
	DB	012H
	DB	0d0H
	DB	0a9H
	DB	0a9H
	DB	011H
	DB	033H
	DB	0caH
	DB	0eH
	DB	09H
	DB	0eH
	DB	012H
	DB	033H
	DB	011H
	DB	0a9H
	DB	0a9H
	DB	011H
	DB	033H
	DB	012H
	DB	0b2H
	DB	09H
	DB	0c7H
	DB	08eH
	DB	033H
	DB	08eH
	DB	0c7H
	DB	09H
	DB	0b2H
	DB	012H
	DB	033H
	DB	0d0H
	DB	0a9H
	DB	0a9H
	DB	011H
	DB	033H
	DB	012H
	DB	0eH
	DB	09H
	DB	0eH
	DB	012H
	DB	033H
	DB	011H
	DB	0a9H
	DB	0a9H
	DB	0d0H
	DB	012H
	DB	012H
	DB	0b2H
	DB	0a9H
	DB	0c7H
	DB	08eH
	DB	033H
	DB	08eH
	DB	0c7H
	DB	09H
	DB	0eH
	DB	012H
	DB	012H
	DB	011H
	DB	0a9H
	DB	0a9H
	DB	011H
	DB	033H
	DB	012H
	DB	0eH
	DB	09H
	DB	0eH
	DB	0caH
	DB	033H
	DB	011H
	DB	0a9H
	DB	0a9H
	DB	0d0H
	DB	012H
	DB	012H
	DB	0b2H
	DB	0a9H
	DB	0c7H
	DB	08eH
	DB	033H
	DB	0caH
	DB	0eH
	DB	09H
	DB	0eH
	DB	012H
	DB	012H
	DB	011H
	DB	0a9H
	DB	0a9H
	DB	011H
	DB	012H
	DB	012H
	DB	0eH
	DB	09H
	DB	08bH
	DB	0caH
	DB	033H
	DB	08eH
	DB	0c7H
	DB	09H
	DB	0b2H
	DB	012H
	DB	012H
	DB	0d0H
	DB	09H
	DB	0daH
	DB	011H
	DB	033H
	DB	012H
	DB	0eH
	DB	09H
	DB	0eH
	DB	012H
	DB	012H
	DB	011H
	DB	0a9H
	DB	0a9H
	DB	0d0H
	DB	012H
	DB	012H
	DB	0eH
	DB	09H
	DB	08bH
	DB	08eH
	DB	033H
	DB	08eH
	DB	0c7H
	DB	09H
	DB	0b2H
	DB	012H
	DB	012H
	DB	0d0H
	DB	0a9H
	DB	0a9H
	DB	011H
	DB	033H
	DB	012H
	DB	0eH
	DB	09H
	DB	0eH
	DB	012H
	DB	033H
	DB	011H
	DB	0a9H
	DB	09H
	DB	0d0H
	DB	012H
	DB	012H
	DB	0b2H
	DB	09H
	DB	0c7H
	DB	08eH
	DB	033H
	DB	0caH
	DB	08bH
	DB	09H
	DB	0eH
	DB	012H
	DB	012H
	DB	011H
	DB	0a9H
	DB	0a9H
	DB	011H
	DB	012H
	DB	012H
	DB	0eH
	DB	09H
	DB	0eH
	DB	0caH
	DB	033H
	DB	011H
	DB	0daH
	DB	0a9H
	DB	0d0H
	DB	012H
	DB	012H
	DB	0b2H
	DB	09H
	DB	0daH
	DB	08eH
	DB	033H
	DB	0caH
	DB	08bH
	DB	09H
	DB	0eH
	DB	012H
	DB	033H
	DB	011H
	DB	0a9H
	DB	0a9H
	DB	011H
	DB	012H
	DB	012H
	DB	0eH
	DB	09H
	DB	08bH
	DB	0caH
	DB	033H
	DB	08eH
	DB	0c7H
	DB	0a9H
	DB	0b2H
	DB	012H
	DB	012H
	DB	0d0H
	DB	0a9H
	DB	0a9H
	DB	011H
	DB	012H
	DB	0e0H
	DB	0cH
	DB	0d0H
	DB	047H
	DB	0d7H
	DB	0b2H
	DB	0a7H
	DB	0c5H
	DB	0d0H
	DB	0caH
	DB	0d0H
	DB	0c5H
	DB	03H
	DB	09H
	DB	011H
	DB	08eH
	DB	0eH
	DB	03H
	DB	03H
	DB	0eH
	DB	08eH
	DB	011H
	DB	09H
	DB	0a7H
	DB	0c5H
	DB	011H
	DB	0dfH
	DB	033H
	DB	012H
	DB	012H
	DB	08H
	DB	010H
	DB	010H
	DB	08H
	DB	012H
	DB	033H
	DB	0e0H
	DB	078H
	DB	010H
	DB	033H
	DB	012H
	DB	0dfH
	DB	010H
	DB	078H
	DB	034H
	DB	012H
	DB	012H
	DB	02eH
	DB	078H
	DB	010H
	DB	0dfH
	DB	012H
	DB	033H
	DB	0e0H
	DB	078H
	DB	0e0H
	DB	033H
	DB	012H
	DB	08H
	DB	010H
	DB	010H
	DB	08H
	DB	012H
	DB	012H
	DB	0e0H
	DB	078H
	DB	010H
	DB	033H
	DB	012H
	DB	0dfH
	DB	010H
	DB	078H
	DB	02eH
	DB	012H
	DB	012H
	DB	08H
	DB	078H
	DB	010H
	DB	08H
	DB	012H
	DB	033H
	DB	0e0H
	DB	078H
	DB	0e0H
	DB	033H
	DB	012H
	DB	08H
	DB	010H
	DB	078H
	DB	08H
	DB	012H
	DB	012H
	DB	034H
	DB	078H
	DB	010H
	DB	0dfH
	DB	012H
	DB	0dfH
	DB	010H
	DB	078H
	DB	034H
	DB	012H
	DB	012H
	DB	08H
	DB	078H
	DB	010H
	DB	08H
	DB	012H
	DB	033H
	DB	0e0H
	DB	078H
	DB	0e0H
	DB	033H
	DB	012H
	DB	08H
	DB	010H
	DB	078H
	DB	02eH
	DB	012H
	DB	012H
	DB	034H
	DB	078H
	DB	010H
	DB	0dfH
	DB	012H
	DB	033H
	DB	010H
	DB	078H
	DB	0e0H
	DB	012H
	DB	012H
	DB	08H
	DB	010H
	DB	010H
	DB	08H
	DB	012H
	DB	033H
	DB	0e0H
	DB	078H
	DB	0e0H
	DB	033H
	DB	012H
	DB	0dfH
	DB	010H
	DB	078H
	DB	02eH
	DB	012H
	DB	012H
	DB	034H
	DB	078H
	DB	010H
	DB	0dfH
	DB	012H
	DB	033H
	DB	010H
	DB	078H
	DB	0e0H
	DB	033H
	DB	012H
	DB	08H
	DB	010H
	DB	010H
	DB	08H
	DB	012H
	DB	012H
	DB	0e0H
	DB	078H
	DB	010H
	DB	0dfH
	DB	012H
	DB	0dfH
	DB	010H
	DB	078H
	DB	034H
	DB	012H
	DB	012H
	DB	08H
	DB	010H
	DB	010H
	DB	08H
	DB	012H
	DB	033H
	DB	0e0H
	DB	078H
	DB	0e0H
	DB	033H
	DB	012H
	DB	08H
	DB	010H
	DB	010H
	DB	08H
	DB	012H
	DB	012H
	DB	034H
	DB	078H
	DB	010H
	DB	0dfH
	DB	012H
	DB	0dfH
	DB	010H
	DB	078H
	DB	034H
	DB	012H
	DB	012H
	DB	08H
	DB	010H
	DB	010H
	DB	08H
	DB	011H
	DB	0b2H
	DB	011H
	DB	08eH
	DB	0b2H
	DB	0c5H
	DB	03H
	DB	09H
	DB	011H
	DB	08eH
	DB	0eH
	DB	03H
	DB	03H
	DB	0eH
	DB	08eH
	DB	011H
	DB	09H
	DB	03H
	DB	097H
	DB	011H
	DB	0caH
	DB	0b2H
	DB	0c5H
	DB	03H
	DB	0daH
	DB	08eH
	DB	08eH
	DB	0a9H
	DB	03H
	DB	0c5H
	DB	0b2H
	DB	0caH
	DB	011H
	DB	0c5H
	DB	03H
	DB	09H
	DB	011H
	DB	08eH
	DB	0eH
	DB	03H
	DB	03H
	DB	0eH
	DB	08eH
	DB	011H
	DB	09H
	DB	03H
	DB	097H
	DB	0d0H
	DB	0caH
	DB	0b2H
	DB	0c5H
	DB	03H
	DB	0a9H
	DB	08eH
	DB	08eH
	DB	0c7H
	DB	03H
	DB	03H
	DB	0b2H
	DB	08eH
	DB	011H
	DB	097H
	DB	03H
	DB	09H
	DB	011H
	DB	0caH
	DB	0eH
	DB	03H
	DB	03H
	DB	0eH
	DB	08eH
	DB	011H
	DB	09H
	DB	03H
	DB	0c5H
	DB	0d0H
	DB	0caH
	DB	0d0H
	DB	0c5H
	DB	03H
	DB	0a9H
	DB	011H
	DB	08eH
	DB	08bH
	DB	03H
	DB	03H
	DB	0eH
	DB	0caH
	DB	011H
	DB	09H
	DB	03H
	DB	09H
	DB	011H
	DB	08eH
	DB	0eH
	DB	03H
	DB	03H
	DB	0c7H
	DB	08eH
	DB	08eH
	DB	0a9H
	DB	03H
	DB	0c5H
	DB	0d0H
	DB	0caH
	DB	0d0H
	DB	0c5H
	DB	03H
	DB	09H
	DB	011H
	DB	08eH
	DB	0eH
	DB	03H
	DB	03H
	DB	0eH
	DB	0caH
	DB	011H
	DB	09H
	DB	03H
	DB	097H
	DB	011H
	DB	08eH
	DB	0b2H
	DB	0c5H
	DB	03H
	DB	0daH
	DB	08eH
	DB	08eH
	DB	0a9H
	DB	03H
	DB	0c5H
	DB	0b2H
	DB	0caH
	DB	0d0H
	DB	097H
	DB	03H
	DB	09H
	DB	011H
	DB	08eH
	DB	0eH
	DB	03H
	DB	03H
	DB	0eH
	DB	08eH
	DB	011H
	DB	09H
	DB	03H
	DB	0c5H
	DB	011H
	DB	0caH
	DB	0b2H
	DB	0c5H
	DB	03H
	DB	0a9H
	DB	08eH
	DB	08eH
	DB	0daH
	DB	03H
	DB	0c5H
	DB	0b2H
	DB	0caH
	DB	011H
	DB	09H
	DB	03H
	DB	09H
	DB	011H
	DB	08eH
	DB	0eH
	DB	03H
	DB	03H
	DB	0eH
	DB	08eH
	DB	011H
	DB	09H
	DB	03H
	DB	0c5H
	DB	0d0H
	DB	0caH
	DB	0d0H
	DB	0c5H
	DB	03H
	DB	0a9H
	DB	011H
	DB	08eH
	DB	08bH
	DB	03H
	DB	03H
	DB	0eH
	DB	08eH
	DB	011H
	DB	09H
	DB	03H
	DB	09H
	DB	011H
	DB	0caH
	DB	0eH
	DB	0c5H
	DB	03H
	DB	0c7H
	DB	08eH
	DB	08eH
	DB	0a9H
	DB	03H
	DB	0c5H
	DB	0b2H
	DB	0caH
	DB	011H
	DB	0c5H
	DB	03H
	DB	09H
	DB	011H
	DB	08eH
	DB	0eH
	DB	03H
	DB	03H
	DB	0eH
	DB	08eH
	DB	011H
	DB	09H
	DB	03H
	DB	097H
	DB	011H
	DB	0caH
	DB	0b2H
	DB	0c5H
	DB	03H
	DB	0daH
	DB	08eH
	DB	08eH
	DB	0a9H
	DB	03H
	DB	0c5H
	DB	0b2H
	DB	08eH
	DB	011H
	DB	0c5H
	DB	03H
	DB	09H
	DB	011H
	DB	0caH
	DB	0eH
	DB	03H
	DB	03H
	DB	0eH
	DB	08eH
	DB	011H
	DB	09H
	DB	03H
	DB	0c5H
	DB	0d0H
	DB	0caH
	DB	0d0H
	DB	0c5H
	DB	03H
	DB	0a9H
	DB	08eH
	DB	08eH
	DB	0c7H
	DB	03H
	DB	03H
	DB	0b2H
	DB	08eH
	DB	012H
	DB	0cH
	DB	033H
	DB	0afH
	DB	07H
	DB	011H
	DB	0eH
	DB	0eH
	DB	0eH
	DB	0eH
	DB	0eH
	DB	0eH
	DB	0eH
	DB	0eH
	DB	0eH
	DB	0eH
	DB	0eH
	DB	0eH
	DB	0eH
	DB	0eH
	DB	0eH
	DB	0eH
	DB	08bH
	DB	011H
	DB	078H
	DB	0cH
	DB	0ceH
	DB	0cH
	DB	07H
	DB	0cdH
	DB	0cdH
	DB	0cdH
	DB	0cdH
	DB	0cdH
	DB	0cdH
	DB	0cdH
	DB	0cdH
	DB	0cdH
	DB	0cdH
	DB	0cdH
	DB	0cdH
	DB	0cdH
	DB	0cdH
	DB	0cdH
	DB	0cdH
	DB	0cdH
	DB	0cdH
	DB	0cdH
	DB	0cdH
	DB	0cdH
	DB	0cdH
	DB	0cdH
	DB	0cdH
	DB	0cdH
	DB	0cdH
	DB	0cdH
	DB	0cdH
	DB	0cdH
	DB	0cdH
	DB	0cdH
	DB	0cdH
	DB	0cdH
	DB	0cdH
	DB	0cdH
	DB	0cdH
	DB	0cdH
	DB	0cdH
	DB	0cdH
	DB	0cdH
	DB	0cdH
	DB	0cdH
	DB	0cdH
	DB	0cdH
	DB	0cdH
	DB	0cdH
	DB	0cdH
	DB	0cdH
	DB	0cdH
	DB	0cdH
	DB	0cdH
	DB	0cdH
	DB	0cdH
	DB	0cdH
	DB	0cdH
	DB	0cdH
	DB	0cdH
	DB	0cdH
	DB	0cdH
	DB	0cdH
	DB	0cdH
	DB	0cdH
	DB	0cdH
	DB	0cdH
	DB	0cdH
	DB	0cdH
	DB	0cdH
	DB	0cdH
	DB	0cdH
	DB	0cdH
	DB	0cdH
	DB	0cdH
	DB	0cdH
	DB	0cdH
	DB	0cdH
	DB	0cdH
	DB	0cdH
	DB	0cdH
	DB	0cdH
	DB	0cdH
	DB	0cdH
	DB	0cdH
	DB	0cdH
	DB	0cdH
	DB	0cdH
	DB	0cdH
	DB	0cdH
	DB	0cdH
	DB	0cdH
	DB	0cdH
	DB	0cdH
	DB	0cdH
	DB	0cdH
	DB	0cdH
	DB	0cdH
	DB	0cdH
	DB	0cdH
	DB	0cdH
	DB	0cdH
	DB	0cdH
	DB	0cdH
	DB	0cdH
	DB	0cdH
	DB	0cdH
	DB	0cdH
	DB	0cdH
	DB	0cdH
	DB	0cdH
	DB	0cdH
	DB	0cdH
	DB	0cdH
	DB	0cdH
	DB	0cdH
	DB	0cdH
	DB	0cdH
	DB	0cdH
	DB	0cdH
	DB	0cdH
	DB	0cdH
	DB	0cdH
	DB	0cdH
	DB	0cdH
	DB	0cdH
	DB	0cdH
	DB	0cdH
	DB	0cdH
	DB	0cdH
	DB	0cdH
	DB	0cdH
	DB	0cdH
	DB	0cdH
	DB	0cdH
	DB	0cdH
	DB	0cdH
	DB	0cdH
	DB	0cdH
	DB	0cdH
	DB	0cdH
	DB	0cdH
	DB	0cdH
	DB	0cdH
	DB	0cdH
	DB	0cdH
	DB	0cdH
	DB	0cdH
	DB	0cdH
	DB	0cdH
	DB	0cdH
	DB	0cdH
	DB	0cdH
	DB	0cdH
	DB	0cdH
	DB	0cdH
	DB	0cdH
	DB	0cdH
	DB	0cdH
	DB	0cdH
	DB	0cdH
	DB	0cdH
	DB	0cdH
	DB	0cdH
	DB	0cdH
	DB	0cdH
	DB	0cdH
	DB	0cdH
	DB	0cdH
	DB	0cdH
	DB	0cdH
	DB	0cdH
	DB	0cdH
	DB	0cdH
	DB	0cdH
	DB	0cdH
	DB	0cdH
	DB	0cdH
	DB	0cdH
	DB	0cdH
	DB	0cdH
	DB	0cdH
	DB	0afH
	DB	0ceH
	DB	0ceH
	DB	07H
	DB	08H
	DB	0eH
	DB	0eH
	DB	0eH
	DB	0eH
	DB	0eH
	DB	0eH
	DB	0eH
	DB	0eH
	DB	0eH
	DB	0eH
	DB	0eH
	DB	0eH
	DB	0eH
	DB	0eH
	DB	0eH
	DB	0eH
	DB	0eH
	DB	0eH
	DB	0eH
	DB	0eH
	DB	0eH
	DB	0eH
	DB	0eH
	DB	0eH
	DB	0eH
	DB	0eH
	DB	0eH
	DB	0eH
	DB	0eH
	DB	0eH
	DB	0eH
	DB	0eH
	DB	0eH
	DB	0eH
	DB	0eH
	DB	0eH
	DB	0eH
	DB	0eH
	DB	0eH
	DB	0eH
	DB	0eH
	DB	0eH
	DB	0eH
	DB	0eH
	DB	0eH
	DB	0eH
	DB	0eH
	DB	0eH
	DB	0eH
	DB	0eH
	DB	0eH
	DB	0eH
	DB	0eH
	DB	0eH
	DB	0eH
	DB	0eH
	DB	0eH
	DB	0eH
	DB	0eH
	DB	0eH
	DB	0eH
	DB	0eH
	DB	0eH
	DB	0eH
	DB	0eH
	DB	0eH
	DB	0eH
	DB	0eH
	DB	0eH
	DB	0eH
	DB	0eH
	DB	0eH
	DB	0eH
	DB	0eH
	DB	0eH
	DB	0eH
	DB	0eH
	DB	0eH
	DB	0eH
	DB	0eH
	DB	0eH
	DB	0eH
	DB	0eH
	DB	0eH
	DB	0eH
	DB	0eH
	DB	0eH
	DB	0eH
	DB	0eH
	DB	0eH
	DB	0eH
	DB	0eH
	DB	0eH
	DB	0eH
	DB	0eH
	DB	0eH
	DB	0eH
	DB	0eH
	DB	0eH
	DB	0eH
	DB	0eH
	DB	0eH
	DB	0eH
	DB	0eH
	DB	0eH
	DB	0eH
	DB	0eH
	DB	0eH
	DB	0eH
	DB	0eH
	DB	0eH
	DB	0eH
	DB	0eH
	DB	0eH
	DB	0eH
	DB	0eH
	DB	0eH
	DB	0eH
	DB	0eH
	DB	0eH
	DB	0eH
	DB	0eH
	DB	0eH
	DB	0eH
	DB	0eH
	DB	0eH
	DB	0eH
	DB	0eH
	DB	0eH
	DB	0eH
	DB	0eH
	DB	0eH
	DB	0eH
	DB	0eH
	DB	0eH
	DB	0eH
	DB	0eH
	DB	0eH
	DB	0eH
	DB	0eH
	DB	0eH
	DB	0eH
	DB	0eH
	DB	0eH
	DB	0eH
	DB	0eH
	DB	0eH
	DB	0eH
	DB	0eH
	DB	0eH
	DB	0eH
	DB	0eH
	DB	0eH
	DB	0eH
	DB	0eH
	DB	0eH
	DB	0eH
	DB	0eH
	DB	0eH
	DB	0eH
	DB	0eH
	DB	0eH
	DB	0eH
	DB	0eH
	DB	0eH
	DB	0eH
	DB	0eH
	DB	0eH
	DB	0eH
	DB	0eH
	DB	0eH
	DB	0eH
	DB	0eH
	DB	0eH
	DB	0eH
	DB	0eH
	DB	0eH
	DB	0eH
	DB	0eH
	DB	0eH
	DB	0eH
	DB	0eH
	DB	0eH
	DB	0eH
	DB	0eH
	DB	0eH
	DB	0eH
	DB	0eH
	DB	0eH
	DB	0eH
	DB	0eH
	DB	0eH
	DB	0eH
	DB	0eH
	DB	0eH
	DB	0eH
	DB	0eH
	DB	0eH
	DB	0eH
	DB	0eH
	DB	0eH
	DB	0eH
	DB	0eH
	DB	0eH
	DB	0eH
	DB	0eH
	DB	0eH
	DB	0eH
	DB	0eH
	DB	0eH
	DB	0eH
	DB	0eH
	DB	0eH
	DB	0eH
	DB	0eH
	DB	0eH
	DB	0eH
	DB	0eH
	DB	0eH
	DB	0eH
	DB	0eH
	DB	0eH
	DB	0eH
	DB	0eH
	DB	0eH
	DB	0eH
	DB	0eH
	DB	0eH
	DB	0eH
	DB	0eH
	DB	0eH
	DB	0eH
	DB	0eH
	DB	0eH
	DB	0eH
	DB	0eH
	DB	0eH
	DB	0eH
	DB	0eH
	DB	0eH
	DB	0eH
	DB	0eH
	DB	0eH
	DB	0eH
	DB	0eH
	DB	0eH
	DB	0eH
	DB	0eH
	DB	0eH
	DB	0eH
	DB	0eH
	DB	0eH
	DB	0eH
	DB	0eH
	DB	0eH
	DB	0eH
	DB	0eH
	DB	011H
	DB	0d9H
	DB	02eH
	DB	0afH
	DB	0cdH
	DB	08eH
	DB	012H
	DB	08eH
	DB	0c7H
	DB	097H
	DB	0a9H
	DB	08eH
	DB	012H
	DB	011H
	DB	09H
	DB	09H
	DB	0eH
	DB	012H
	DB	012H
	DB	0eH
	DB	097H
	DB	09H
	DB	010H
	DB	01dH
	DB	0cdH
	DB	08eH
	DB	03H
	DB	09bH
	DB	09bH
	DB	09bH
	DB	09bH
	DB	09bH
	DB	09bH
	DB	09bH
	DB	09bH
	DB	09bH
	DB	09bH
	DB	09bH
	DB	09bH
	DB	09bH
	DB	09bH
	DB	09bH
	DB	09bH
	DB	09bH
	DB	09bH
	DB	09bH
	DB	09bH
	DB	09bH
	DB	09bH
	DB	09bH
	DB	09bH
	DB	09bH
	DB	09bH
	DB	09bH
	DB	09bH
	DB	09bH
	DB	09bH
	DB	09bH
	DB	09bH
	DB	09bH
	DB	09bH
	DB	09bH
	DB	09bH
	DB	09bH
	DB	09bH
	DB	09bH
	DB	09bH
	DB	09bH
	DB	09bH
	DB	09bH
	DB	09bH
	DB	09bH
	DB	09bH
	DB	09bH
	DB	09bH
	DB	09bH
	DB	09bH
	DB	09bH
	DB	09bH
	DB	09bH
	DB	09bH
	DB	09bH
	DB	09bH
	DB	09bH
	DB	09bH
	DB	09bH
	DB	09bH
	DB	09bH
	DB	09bH
	DB	09bH
	DB	09bH
	DB	09bH
	DB	09bH
	DB	09bH
	DB	09bH
	DB	09bH
	DB	09bH
	DB	09bH
	DB	09bH
	DB	09bH
	DB	09bH
	DB	09bH
	DB	09bH
	DB	09bH
	DB	09bH
	DB	09bH
	DB	09bH
	DB	09bH
	DB	09bH
	DB	09bH
	DB	09bH
	DB	09bH
	DB	09bH
	DB	09bH
	DB	09bH
	DB	09bH
	DB	09bH
	DB	09bH
	DB	09bH
	DB	09bH
	DB	09bH
	DB	09bH
	DB	09bH
	DB	09bH
	DB	09bH
	DB	09bH
	DB	09bH
	DB	09bH
	DB	09bH
	DB	09bH
	DB	09bH
	DB	09bH
	DB	09bH
	DB	09bH
	DB	09bH
	DB	09bH
	DB	09bH
	DB	09bH
	DB	09bH
	DB	09bH
	DB	09bH
	DB	09bH
	DB	09bH
	DB	09bH
	DB	09bH
	DB	09bH
	DB	09bH
	DB	09bH
	DB	09bH
	DB	09bH
	DB	09bH
	DB	09bH
	DB	09bH
	DB	09bH
	DB	09bH
	DB	09bH
	DB	09bH
	DB	09bH
	DB	09bH
	DB	09bH
	DB	09bH
	DB	09bH
	DB	09bH
	DB	09bH
	DB	09bH
	DB	09bH
	DB	09bH
	DB	09bH
	DB	09bH
	DB	09bH
	DB	09bH
	DB	09bH
	DB	09bH
	DB	09bH
	DB	09bH
	DB	09bH
	DB	09bH
	DB	09bH
	DB	09bH
	DB	09bH
	DB	09bH
	DB	09bH
	DB	09bH
	DB	09bH
	DB	09bH
	DB	09bH
	DB	09bH
	DB	09bH
	DB	09bH
	DB	09bH
	DB	09bH
	DB	09bH
	DB	09bH
	DB	09bH
	DB	09bH
	DB	09bH
	DB	09bH
	DB	09bH
	DB	09bH
	DB	09bH
	DB	09bH
	DB	09bH
	DB	09bH
	DB	09bH
	DB	09bH
	DB	09bH
	DB	09bH
	DB	09bH
	DB	09bH
	DB	066H
	DB	0a9H
	DB	02eH
	DB	0cH
	DB	0cH
	DB	08H
	DB	0b2H
	DB	09H
	DB	09H
	DB	0eH
	DB	012H
	DB	012H
	DB	0eH
	DB	09H
	DB	09H
	DB	011H
	DB	012H
	DB	011H
	DB	0a9H
	DB	097H
	DB	0eH
	DB	0caH
	DB	012H
	DB	0b2H
	DB	09H
	DB	09H
	DB	0d0H
	DB	012H
	DB	0caH
	DB	0eH
	DB	09H
	DB	0a9H
	DB	08eH
	DB	012H
	DB	011H
	DB	09H
	DB	0c6H
	DB	0eH
	DB	0caH
	DB	012H
	DB	0eH
	DB	09H
	DB	09H
	DB	011H
	DB	012H
	DB	08eH
	DB	0a9H
	DB	0c6H
	DB	0c7H
	DB	08eH
	DB	012H
	DB	0d0H
	DB	09H
	DB	09H
	DB	0b2H
	DB	012H
	DB	0caH
	DB	0eH
	DB	0c6H
	DB	0a9H
	DB	011H
	DB	012H
	DB	011H
	DB	09H
	DB	0c6H
	DB	0eH
	DB	0caH
	DB	012H
	DB	0eH
	DB	0c6H
	DB	09H
	DB	0d0H
	DB	012H
	DB	08eH
	DB	0a9H
	DB	0c6H
	DB	0a9H
	DB	08eH
	DB	012H
	DB	0d0H
	DB	09H
	DB	0c6H
	DB	0b2H
	DB	012H
	DB	0caH
	DB	0eH
	DB	0c6H
	DB	0a9H
	DB	011H
	DB	012H
	DB	011H
	DB	0a9H
	DB	0c6H
	DB	0eH
	DB	0caH
	DB	012H
	DB	0b2H
	DB	09H
	DB	09H
	DB	0d0H
	DB	012H
	DB	08eH
	DB	0a9H
	DB	0c6H
	DB	0a9H
	DB	08eH
	DB	012H
	DB	011H
	DB	09H
	DB	09H
	DB	0eH
	DB	012H
	DB	0caH
	DB	0eH
	DB	0c6H
	DB	09H
	DB	011H
	DB	012H
	DB	011H
	DB	0a9H
	DB	0c6H
	DB	0c7H
	DB	0caH
	DB	012H
	DB	0b2H
	DB	09H
	DB	09H
	DB	0b2H
	DB	012H
	DB	08eH
	DB	0c7H
	DB	0c6H
	DB	0a9H
	DB	08eH
	DB	012H
	DB	011H
	DB	09H
	DB	09H
	DB	0eH
	DB	012H
	DB	0caH
	DB	0eH
	DB	09H
	DB	09H
	DB	011H
	DB	012H
	DB	08eH
	DB	0a9H
	DB	0c6H
	DB	0c7H
	DB	08eH
	DB	012H
	DB	0d0H
	DB	09H
	DB	09H
	DB	0b2H
	DB	012H
	DB	0caH
	DB	0eH
	DB	0c6H
	DB	0a9H
	DB	011H
	DB	012H
	DB	011H
	DB	09H
	DB	0c6H
	DB	0eH
	DB	0caH
	DB	012H
	DB	0eH
	DB	09H
	DB	09H
	DB	011H
	DB	012H
	DB	08eH
	DB	0a9H
	DB	0c6H
	DB	0c7H
	DB	08eH
	DB	012H
	DB	0d0H
	DB	09H
	DB	09H
	DB	0b2H
	DB	012H
	DB	0caH
	DB	0eH
	DB	0c6H
	DB	09H
	DB	011H
	DB	012H
	DB	011H
	DB	09H
	DB	0c6H
	DB	0eH
	DB	0caH
	DB	012H
	DB	0b2H
	DB	09H
	DB	09H
	DB	0d0H
	DB	012H
	DB	08eH
	DB	0c7H
	DB	0c6H
	DB	0a9H
	DB	08eH
	DB	012H
	DB	011H
	DB	09H
	DB	09H
	DB	0eH
	DB	012H
	DB	012H
	DB	0eH
	DB	09H
	DB	09H
	DB	011H
	DB	012H
	DB	011H
	DB	0a9H
	DB	0c6H
	DB	0c7H
	DB	0caH
	DB	012H
	DB	0b2H
	DB	09H
	DB	09H
	DB	0d0H
	DB	012H
	DB	0caH
	DB	0c7H
	DB	0c6H
	DB	0a9H
	DB	08eH
	DB	012H
	DB	011H
	DB	09H
	DB	0c6H
	DB	0eH
	DB	0caH
	DB	012H
	DB	0eH
	DB	0c6H
	DB	09H
	DB	011H
	DB	012H
	DB	08eH
	DB	0a9H
	DB	0c6H
	DB	0c7H
	DB	0caH
	DB	012H
	DB	0d0H
	DB	09H
	DB	09H
	DB	0b2H
	DB	012H
	DB	0caH
	DB	0eH
	DB	097H
	DB	0eH
	DB	0afH
	DB	034H
	DB	0afH
	DB	0cdH
	DB	0d0H
	DB	011H
	DB	0d0H
	DB	09H
	DB	03H
	DB	0c5H
	DB	0b2H
	DB	011H
	DB	0eH
	DB	03H
	DB	03H
	DB	0a9H
	DB	011H
	DB	011H
	DB	09H
	DB	03H
	DB	010H
	DB	0b0H
	DB	0abH
	DB	01H
	DB	01H
	DB	01H
	DB	01H
	DB	01H
	DB	01H
	DB	01H
	DB	01H
	DB	01H
	DB	01H
	DB	01H
	DB	01H
	DB	01H
	DB	01H
	DB	01H
	DB	01H
	DB	01H
	DB	01H
	DB	01H
	DB	01H
	DB	01H
	DB	01H
	DB	01H
	DB	01H
	DB	01H
	DB	01H
	DB	01H
	DB	01H
	DB	01H
	DB	01H
	DB	01H
	DB	01H
	DB	01H
	DB	01H
	DB	01H
	DB	01H
	DB	01H
	DB	01H
	DB	01H
	DB	01H
	DB	01H
	DB	01H
	DB	01H
	DB	01H
	DB	01H
	DB	01H
	DB	01H
	DB	01H
	DB	01H
	DB	01H
	DB	01H
	DB	01H
	DB	01H
	DB	01H
	DB	01H
	DB	01H
	DB	01H
	DB	01H
	DB	01H
	DB	01H
	DB	01H
	DB	01H
	DB	01H
	DB	01H
	DB	01H
	DB	01H
	DB	01H
	DB	01H
	DB	01H
	DB	01H
	DB	01H
	DB	01H
	DB	01H
	DB	01H
	DB	01H
	DB	01H
	DB	01H
	DB	01H
	DB	01H
	DB	01H
	DB	01H
	DB	01H
	DB	01H
	DB	01H
	DB	01H
	DB	01H
	DB	01H
	DB	01H
	DB	01H
	DB	01H
	DB	01H
	DB	01H
	DB	01H
	DB	01H
	DB	01H
	DB	01H
	DB	01H
	DB	01H
	DB	01H
	DB	01H
	DB	01H
	DB	01H
	DB	01H
	DB	01H
	DB	01H
	DB	01H
	DB	01H
	DB	01H
	DB	01H
	DB	01H
	DB	01H
	DB	01H
	DB	01H
	DB	01H
	DB	01H
	DB	01H
	DB	01H
	DB	01H
	DB	01H
	DB	01H
	DB	01H
	DB	01H
	DB	01H
	DB	01H
	DB	01H
	DB	01H
	DB	01H
	DB	01H
	DB	01H
	DB	01H
	DB	01H
	DB	01H
	DB	01H
	DB	01H
	DB	01H
	DB	01H
	DB	01H
	DB	01H
	DB	01H
	DB	01H
	DB	01H
	DB	01H
	DB	01H
	DB	01H
	DB	01H
	DB	01H
	DB	01H
	DB	01H
	DB	01H
	DB	01H
	DB	01H
	DB	01H
	DB	01H
	DB	01H
	DB	01H
	DB	01H
	DB	01H
	DB	01H
	DB	01H
	DB	01H
	DB	01H
	DB	01H
	DB	01H
	DB	01H
	DB	01H
	DB	01H
	DB	01H
	DB	01H
	DB	01H
	DB	01H
	DB	01H
	DB	01H
	DB	01H
	DB	01H
	DB	01H
	DB	01H
	DB	01H
	DB	01H
	DB	01H
	DB	01H
	DB	01H
	DB	01H
	DB	01H
	DB	01H
	DB	01H
	DB	01H
	DB	01H
	DB	01H
	DB	0a7H
	DB	0e0H
	DB	01dH
	DB	033H
	DB	03H
	DB	03H
	DB	0a9H
	DB	011H
	DB	011H
	DB	09H
	DB	03H
	DB	0c5H
	DB	0eH
	DB	011H
	DB	0b2H
	DB	0c5H
	DB	03H
	DB	09H
	DB	0d0H
	DB	011H
	DB	0c7H
	DB	03H
	DB	03H
	DB	08bH
	DB	011H
	DB	0d0H
	DB	075H
	DB	03H
	DB	075H
	DB	0daH
	DB	08bH
	DB	076H
	DB	075H
	DB	03H
	DB	09H
	DB	08bH
	DB	08bH
	DB	09H
	DB	03H
	DB	075H
	DB	076H
	DB	0eH
	DB	0daH
	DB	097H
	DB	03H
	DB	097H
	DB	08bH
	DB	08bH
	DB	09H
	DB	03H
	DB	03H
	DB	09H
	DB	08bH
	DB	08bH
	DB	097H
	DB	03H
	DB	075H
	DB	076H
	DB	0eH
	DB	076H
	DB	075H
	DB	03H
	DB	097H
	DB	08bH
	DB	08bH
	DB	09H
	DB	03H
	DB	075H
	DB	076H
	DB	08bH
	DB	08bH
	DB	097H
	DB	03H
	DB	097H
	DB	08bH
	DB	08bH
	DB	09H
	DB	03H
	DB	03H
	DB	09H
	DB	08bH
	DB	08bH
	DB	097H
	DB	03H
	DB	075H
	DB	076H
	DB	0eH
	DB	076H
	DB	075H
	DB	03H
	DB	097H
	DB	08bH
	DB	08bH
	DB	09H
	DB	03H
	DB	03H
	DB	09H
	DB	08bH
	DB	08bH
	DB	097H
	DB	03H
	DB	097H
	DB	0daH
	DB	08bH
	DB	076H
	DB	075H
	DB	03H
	DB	09H
	DB	08bH
	DB	08bH
	DB	097H
	DB	03H
	DB	075H
	DB	076H
	DB	08bH
	DB	0daH
	DB	075H
	DB	03H
	DB	097H
	DB	08bH
	DB	08bH
	DB	09H
	DB	03H
	DB	03H
	DB	09H
	DB	08bH
	DB	08bH
	DB	097H
	DB	03H
	DB	097H
	DB	076H
	DB	0eH
	DB	076H
	DB	075H
	DB	03H
	DB	09H
	DB	08bH
	DB	08bH
	DB	09H
	DB	03H
	DB	03H
	DB	076H
	DB	08bH
	DB	0daH
	DB	097H
	DB	03H
	DB	097H
	DB	08bH
	DB	08bH
	DB	09H
	DB	03H
	DB	03H
	DB	09H
	DB	08bH
	DB	08bH
	DB	097H
	DB	03H
	DB	075H
	DB	076H
	DB	08bH
	DB	076H
	DB	075H
	DB	03H
	DB	097H
	DB	08bH
	DB	08bH
	DB	09H
	DB	03H
	DB	075H
	DB	076H
	DB	08bH
	DB	0daH
	DB	097H
	DB	03H
	DB	097H
	DB	0daH
	DB	08bH
	DB	09H
	DB	03H
	DB	03H
	DB	09H
	DB	08bH
	DB	08bH
	DB	097H
	DB	03H
	DB	075H
	DB	076H
	DB	08bH
	DB	076H
	DB	075H
	DB	03H
	DB	097H
	DB	08bH
	DB	08bH
	DB	09H
	DB	03H
	DB	03H
	DB	09H
	DB	08bH
	DB	08bH
	DB	097H
	DB	03H
	DB	075H
	DB	0daH
	DB	08bH
	DB	09H
	DB	03H
	DB	03H
	DB	09H
	DB	08bH
	DB	08bH
	DB	097H
	DB	03H
	DB	075H
	DB	076H
	DB	0eH
	DB	076H
	DB	075H
	DB	03H
	DB	097H
	DB	08bH
	DB	08bH
	DB	09H
	DB	03H
	DB	03H
	DB	09H
	DB	08bH
	DB	08bH
	DB	097H
	DB	03H
	DB	097H
	DB	0daH
	DB	08bH
	DB	076H
	DB	075H
	DB	03H
	DB	09H
	DB	08bH
	DB	08bH
	DB	09H
	DB	03H
	DB	075H
	DB	076H
	DB	0eH
	DB	0daH
	DB	097H
	DB	03H
	DB	075H
	DB	0eH
	DB	011H
	DB	0eH
	DB	03H
	DB	03H
	DB	0c7H
	DB	011H
	DB	011H
	DB	09H
	DB	03H
	DB	09H
	DB	0afH
	DB	034H
	DB	0afH
	DB	07H
	DB	0d0H
	DB	0c7H
	DB	0eH
	DB	0b2H
	DB	0d0H
	DB	0b2H
	DB	0eH
	DB	0eH
	DB	0eH
	DB	0b2H
	DB	0b2H
	DB	0eH
	DB	0eH
	DB	0eH
	DB	0eH
	DB	078H
	DB	0cH
	DB	0c5H
	DB	01H
	DB	01H
	DB	01H
	DB	01H
	DB	01H
	DB	01H
	DB	01H
	DB	01H
	DB	01H
	DB	01H
	DB	01H
	DB	01H
	DB	01H
	DB	01H
	DB	01H
	DB	01H
	DB	01H
	DB	01H
	DB	01H
	DB	01H
	DB	01H
	DB	01H
	DB	01H
	DB	01H
	DB	01H
	DB	01H
	DB	01H
	DB	01H
	DB	01H
	DB	01H
	DB	01H
	DB	01H
	DB	01H
	DB	01H
	DB	01H
	DB	01H
	DB	01H
	DB	01H
	DB	01H
	DB	01H
	DB	01H
	DB	01H
	DB	01H
	DB	01H
	DB	01H
	DB	01H
	DB	01H
	DB	01H
	DB	01H
	DB	01H
	DB	01H
	DB	01H
	DB	01H
	DB	01H
	DB	01H
	DB	01H
	DB	01H
	DB	01H
	DB	01H
	DB	01H
	DB	01H
	DB	01H
	DB	01H
	DB	01H
	DB	01H
	DB	01H
	DB	01H
	DB	01H
	DB	01H
	DB	01H
	DB	01H
	DB	01H
	DB	01H
	DB	01H
	DB	01H
	DB	01H
	DB	01H
	DB	01H
	DB	01H
	DB	01H
	DB	01H
	DB	01H
	DB	01H
	DB	01H
	DB	01H
	DB	01H
	DB	01H
	DB	01H
	DB	01H
	DB	01H
	DB	01H
	DB	01H
	DB	01H
	DB	01H
	DB	01H
	DB	01H
	DB	01H
	DB	01H
	DB	01H
	DB	01H
	DB	01H
	DB	01H
	DB	01H
	DB	01H
	DB	01H
	DB	01H
	DB	01H
	DB	01H
	DB	01H
	DB	01H
	DB	01H
	DB	01H
	DB	01H
	DB	01H
	DB	01H
	DB	01H
	DB	01H
	DB	01H
	DB	01H
	DB	01H
	DB	01H
	DB	01H
	DB	01H
	DB	01H
	DB	01H
	DB	01H
	DB	01H
	DB	01H
	DB	01H
	DB	01H
	DB	01H
	DB	01H
	DB	01H
	DB	01H
	DB	01H
	DB	01H
	DB	01H
	DB	01H
	DB	01H
	DB	01H
	DB	01H
	DB	01H
	DB	01H
	DB	01H
	DB	01H
	DB	01H
	DB	01H
	DB	01H
	DB	01H
	DB	01H
	DB	01H
	DB	01H
	DB	01H
	DB	01H
	DB	01H
	DB	01H
	DB	01H
	DB	01H
	DB	01H
	DB	01H
	DB	01H
	DB	01H
	DB	01H
	DB	01H
	DB	01H
	DB	01H
	DB	01H
	DB	01H
	DB	01H
	DB	01H
	DB	01H
	DB	01H
	DB	01H
	DB	01H
	DB	01H
	DB	01H
	DB	01H
	DB	01H
	DB	01H
	DB	01H
	DB	01H
	DB	01H
	DB	01H
	DB	01H
	DB	01H
	DB	01H
	DB	01H
	DB	01H
	DB	01H
	DB	01H
	DB	01H
	DB	033H
	DB	01dH
	DB	012H
	DB	0eH
	DB	0eH
	DB	0eH
	DB	0eH
	DB	0eH
	DB	0b2H
	DB	0b2H
	DB	0eH
	DB	0eH
	DB	0eH
	DB	0b2H
	DB	0d0H
	DB	0eH
	DB	0eH
	DB	0eH
	DB	0eH
	DB	0b2H
	DB	0b2H
	DB	0b2H
	DB	09H
	DB	03H
	DB	076H
	DB	0b7H
	DB	0e6H
	DB	031H
	DB	031H
	DB	031H
	DB	031H
	DB	031H
	DB	031H
	DB	031H
	DB	031H
	DB	031H
	DB	031H
	DB	031H
	DB	031H
	DB	031H
	DB	031H
	DB	031H
	DB	031H
	DB	031H
	DB	031H
	DB	031H
	DB	031H
	DB	031H
	DB	031H
	DB	031H
	DB	031H
	DB	031H
	DB	031H
	DB	031H
	DB	031H
	DB	031H
	DB	031H
	DB	031H
	DB	031H
	DB	031H
	DB	031H
	DB	031H
	DB	031H
	DB	031H
	DB	031H
	DB	031H
	DB	031H
	DB	031H
	DB	031H
	DB	031H
	DB	031H
	DB	031H
	DB	031H
	DB	031H
	DB	031H
	DB	031H
	DB	031H
	DB	031H
	DB	031H
	DB	031H
	DB	031H
	DB	031H
	DB	031H
	DB	031H
	DB	031H
	DB	031H
	DB	031H
	DB	031H
	DB	031H
	DB	031H
	DB	031H
	DB	031H
	DB	031H
	DB	031H
	DB	031H
	DB	031H
	DB	031H
	DB	031H
	DB	031H
	DB	031H
	DB	031H
	DB	031H
	DB	031H
	DB	031H
	DB	031H
	DB	031H
	DB	031H
	DB	031H
	DB	031H
	DB	031H
	DB	031H
	DB	031H
	DB	031H
	DB	031H
	DB	031H
	DB	031H
	DB	031H
	DB	031H
	DB	031H
	DB	031H
	DB	031H
	DB	031H
	DB	031H
	DB	031H
	DB	031H
	DB	031H
	DB	031H
	DB	031H
	DB	031H
	DB	031H
	DB	031H
	DB	031H
	DB	031H
	DB	031H
	DB	031H
	DB	031H
	DB	031H
	DB	031H
	DB	031H
	DB	031H
	DB	031H
	DB	031H
	DB	031H
	DB	031H
	DB	031H
	DB	031H
	DB	031H
	DB	031H
	DB	031H
	DB	031H
	DB	031H
	DB	031H
	DB	031H
	DB	031H
	DB	031H
	DB	031H
	DB	031H
	DB	031H
	DB	031H
	DB	031H
	DB	031H
	DB	031H
	DB	031H
	DB	031H
	DB	031H
	DB	031H
	DB	031H
	DB	031H
	DB	031H
	DB	031H
	DB	031H
	DB	031H
	DB	031H
	DB	031H
	DB	031H
	DB	031H
	DB	031H
	DB	031H
	DB	031H
	DB	031H
	DB	031H
	DB	031H
	DB	031H
	DB	031H
	DB	031H
	DB	031H
	DB	031H
	DB	031H
	DB	031H
	DB	031H
	DB	031H
	DB	031H
	DB	031H
	DB	031H
	DB	031H
	DB	031H
	DB	031H
	DB	031H
	DB	031H
	DB	031H
	DB	031H
	DB	031H
	DB	031H
	DB	031H
	DB	031H
	DB	031H
	DB	031H
	DB	031H
	DB	031H
	DB	031H
	DB	031H
	DB	031H
	DB	031H
	DB	031H
	DB	031H
	DB	031H
	DB	031H
	DB	031H
	DB	031H
	DB	031H
	DB	031H
	DB	031H
	DB	031H
	DB	031H
	DB	031H
	DB	031H
	DB	031H
	DB	031H
	DB	031H
	DB	031H
	DB	031H
	DB	031H
	DB	031H
	DB	031H
	DB	031H
	DB	031H
	DB	031H
	DB	031H
	DB	031H
	DB	031H
	DB	031H
	DB	031H
	DB	031H
	DB	031H
	DB	0b6H
	DB	0dcH
	DB	0c4H
	DB	0a7H
	DB	0a9H
	DB	0d0H
	DB	0b2H
	DB	0eH
	DB	0eH
	DB	0eH
	DB	0eH
	DB	0b2H
	DB	011H
	DB	0afH
	DB	034H
	DB	0afH
	DB	07H
	DB	0eH
	DB	03H
	DB	09H
	DB	0d0H
	DB	0caH
	DB	011H
	DB	09H
	DB	0c5H
	DB	0a9H
	DB	011H
	DB	08eH
	DB	0eH
	DB	0c5H
	DB	03H
	DB	0dfH
	DB	01dH
	DB	0c7H
	DB	01H
	DB	01H
	DB	01H
	DB	01H
	DB	01H
	DB	01H
	DB	01H
	DB	01H
	DB	01H
	DB	01H
	DB	01H
	DB	01H
	DB	01H
	DB	01H
	DB	01H
	DB	01H
	DB	01H
	DB	01H
	DB	01H
	DB	01H
	DB	01H
	DB	01H
	DB	01H
	DB	01H
	DB	01H
	DB	01H
	DB	01H
	DB	01H
	DB	01H
	DB	01H
	DB	01H
	DB	01H
	DB	01H
	DB	01H
	DB	01H
	DB	01H
	DB	01H
	DB	01H
	DB	01H
	DB	01H
	DB	01H
	DB	01H
	DB	01H
	DB	01H
	DB	01H
	DB	01H
	DB	01H
	DB	01H
	DB	01H
	DB	01H
	DB	01H
	DB	01H
	DB	01H
	DB	01H
	DB	01H
	DB	01H
	DB	01H
	DB	01H
	DB	01H
	DB	01H
	DB	01H
	DB	01H
	DB	01H
	DB	01H
	DB	01H
	DB	01H
	DB	01H
	DB	01H
	DB	01H
	DB	01H
	DB	01H
	DB	01H
	DB	01H
	DB	01H
	DB	01H
	DB	01H
	DB	01H
	DB	01H
	DB	01H
	DB	01H
	DB	01H
	DB	01H
	DB	01H
	DB	01H
	DB	01H
	DB	01H
	DB	01H
	DB	01H
	DB	01H
	DB	01H
	DB	01H
	DB	01H
	DB	01H
	DB	01H
	DB	01H
	DB	01H
	DB	01H
	DB	01H
	DB	01H
	DB	01H
	DB	01H
	DB	01H
	DB	01H
	DB	01H
	DB	01H
	DB	01H
	DB	01H
	DB	01H
	DB	01H
	DB	01H
	DB	01H
	DB	01H
	DB	01H
	DB	01H
	DB	01H
	DB	01H
	DB	01H
	DB	01H
	DB	01H
	DB	01H
	DB	01H
	DB	01H
	DB	01H
	DB	01H
	DB	01H
	DB	01H
	DB	01H
	DB	01H
	DB	01H
	DB	01H
	DB	01H
	DB	01H
	DB	01H
	DB	01H
	DB	01H
	DB	01H
	DB	01H
	DB	01H
	DB	01H
	DB	01H
	DB	01H
	DB	01H
	DB	01H
	DB	01H
	DB	01H
	DB	01H
	DB	01H
	DB	01H
	DB	01H
	DB	01H
	DB	01H
	DB	01H
	DB	01H
	DB	01H
	DB	01H
	DB	01H
	DB	01H
	DB	01H
	DB	01H
	DB	01H
	DB	01H
	DB	01H
	DB	01H
	DB	01H
	DB	01H
	DB	01H
	DB	01H
	DB	01H
	DB	01H
	DB	01H
	DB	01H
	DB	01H
	DB	01H
	DB	01H
	DB	01H
	DB	01H
	DB	01H
	DB	01H
	DB	01H
	DB	01H
	DB	01H
	DB	01H
	DB	01H
	DB	01H
	DB	01H
	DB	01H
	DB	01H
	DB	01H
	DB	01H
	DB	01H
	DB	01H
	DB	01H
	DB	01H
	DB	010H
	DB	0cH
	DB	08eH
	DB	0eH
	DB	0c5H
	DB	0c5H
	DB	0eH
	DB	08eH
	DB	011H
	DB	09H
	DB	0c5H
	DB	09H
	DB	011H
	DB	0caH
	DB	0b2H
	DB	097H
	DB	0c5H
	DB	0eH
	DB	08eH
	DB	08eH
	DB	09H
	DB	097H
	DB	0e8H
	DB	0f5H
	DB	0ebH
	DB	0cbH
	DB	030H
	DB	030H
	DB	030H
	DB	030H
	DB	030H
	DB	030H
	DB	030H
	DB	030H
	DB	030H
	DB	030H
	DB	030H
	DB	030H
	DB	030H
	DB	030H
	DB	030H
	DB	030H
	DB	030H
	DB	030H
	DB	030H
	DB	030H
	DB	030H
	DB	030H
	DB	030H
	DB	030H
	DB	030H
	DB	030H
	DB	030H
	DB	030H
	DB	030H
	DB	030H
	DB	030H
	DB	030H
	DB	030H
	DB	030H
	DB	030H
	DB	030H
	DB	030H
	DB	030H
	DB	030H
	DB	030H
	DB	030H
	DB	030H
	DB	030H
	DB	030H
	DB	030H
	DB	030H
	DB	030H
	DB	030H
	DB	030H
	DB	030H
	DB	030H
	DB	030H
	DB	030H
	DB	030H
	DB	030H
	DB	030H
	DB	030H
	DB	030H
	DB	030H
	DB	030H
	DB	030H
	DB	030H
	DB	030H
	DB	030H
	DB	030H
	DB	030H
	DB	030H
	DB	030H
	DB	030H
	DB	030H
	DB	030H
	DB	030H
	DB	030H
	DB	030H
	DB	030H
	DB	030H
	DB	030H
	DB	030H
	DB	030H
	DB	030H
	DB	030H
	DB	030H
	DB	030H
	DB	030H
	DB	030H
	DB	030H
	DB	030H
	DB	030H
	DB	030H
	DB	030H
	DB	030H
	DB	030H
	DB	030H
	DB	030H
	DB	030H
	DB	030H
	DB	030H
	DB	030H
	DB	030H
	DB	030H
	DB	030H
	DB	030H
	DB	030H
	DB	030H
	DB	030H
	DB	030H
	DB	030H
	DB	030H
	DB	030H
	DB	030H
	DB	030H
	DB	030H
	DB	030H
	DB	030H
	DB	030H
	DB	030H
	DB	030H
	DB	030H
	DB	030H
	DB	030H
	DB	030H
	DB	030H
	DB	030H
	DB	030H
	DB	030H
	DB	030H
	DB	030H
	DB	030H
	DB	030H
	DB	030H
	DB	030H
	DB	030H
	DB	030H
	DB	030H
	DB	030H
	DB	030H
	DB	030H
	DB	030H
	DB	030H
	DB	030H
	DB	030H
	DB	030H
	DB	030H
	DB	030H
	DB	030H
	DB	030H
	DB	030H
	DB	030H
	DB	030H
	DB	030H
	DB	030H
	DB	030H
	DB	030H
	DB	030H
	DB	030H
	DB	030H
	DB	030H
	DB	030H
	DB	030H
	DB	030H
	DB	030H
	DB	030H
	DB	030H
	DB	030H
	DB	030H
	DB	030H
	DB	030H
	DB	030H
	DB	030H
	DB	030H
	DB	030H
	DB	030H
	DB	030H
	DB	030H
	DB	030H
	DB	030H
	DB	030H
	DB	030H
	DB	030H
	DB	030H
	DB	030H
	DB	030H
	DB	030H
	DB	030H
	DB	030H
	DB	030H
	DB	030H
	DB	030H
	DB	030H
	DB	030H
	DB	030H
	DB	030H
	DB	030H
	DB	030H
	DB	030H
	DB	030H
	DB	030H
	DB	030H
	DB	030H
	DB	030H
	DB	030H
	DB	030H
	DB	030H
	DB	030H
	DB	030H
	DB	030H
	DB	030H
	DB	030H
	DB	030H
	DB	030H
	DB	030H
	DB	030H
	DB	030H
	DB	030H
	DB	030H
	DB	030H
	DB	030H
	DB	030H
	DB	0cbH
	DB	0e7H
	DB	04dH
	DB	03H
	DB	011H
	DB	08eH
	DB	0eH
	DB	0c5H
	DB	0c5H
	DB	0b2H
	DB	08eH
	DB	0caH
	DB	0d7H
	DB	034H
	DB	0afH
	DB	07H
	DB	0c7H
	DB	03H
	DB	0c5H
	DB	0eH
	DB	0b2H
	DB	0eH
	DB	0c5H
	DB	03H
	DB	09H
	DB	0b2H
	DB	0b2H
	DB	0a9H
	DB	03H
	DB	0c6H
	DB	0d9H
	DB	08H
	DB	01H
	DB	01H
	DB	01H
	DB	01H
	DB	01H
	DB	01H
	DB	01H
	DB	01H
	DB	01H
	DB	01H
	DB	01H
	DB	01H
	DB	01H
	DB	01H
	DB	01H
	DB	01H
	DB	01H
	DB	01H
	DB	01H
	DB	01H
	DB	01H
	DB	01H
	DB	01H
	DB	01H
	DB	01H
	DB	01H
	DB	01H
	DB	01H
	DB	01H
	DB	01H
	DB	01H
	DB	01H
	DB	01H
	DB	01H
	DB	01H
	DB	01H
	DB	01H
	DB	01H
	DB	01H
	DB	01H
	DB	01H
	DB	01H
	DB	01H
	DB	01H
	DB	01H
	DB	01H
	DB	01H
	DB	01H
	DB	01H
	DB	01H
	DB	01H
	DB	01H
	DB	01H
	DB	01H
	DB	01H
	DB	01H
	DB	01H
	DB	01H
	DB	01H
	DB	01H
	DB	01H
	DB	01H
	DB	01H
	DB	01H
	DB	01H
	DB	01H
	DB	01H
	DB	01H
	DB	01H
	DB	01H
	DB	01H
	DB	01H
	DB	01H
	DB	01H
	DB	01H
	DB	01H
	DB	01H
	DB	01H
	DB	01H
	DB	01H
	DB	01H
	DB	01H
	DB	01H
	DB	01H
	DB	01H
	DB	01H
	DB	01H
	DB	01H
	DB	01H
	DB	01H
	DB	01H
	DB	01H
	DB	01H
	DB	01H
	DB	01H
	DB	01H
	DB	01H
	DB	01H
	DB	01H
	DB	01H
	DB	01H
	DB	01H
	DB	01H
	DB	01H
	DB	01H
	DB	01H
	DB	01H
	DB	01H
	DB	01H
	DB	01H
	DB	01H
	DB	01H
	DB	01H
	DB	01H
	DB	01H
	DB	01H
	DB	01H
	DB	01H
	DB	01H
	DB	01H
	DB	01H
	DB	01H
	DB	01H
	DB	01H
	DB	01H
	DB	01H
	DB	01H
	DB	01H
	DB	01H
	DB	01H
	DB	01H
	DB	01H
	DB	01H
	DB	01H
	DB	01H
	DB	01H
	DB	01H
	DB	01H
	DB	01H
	DB	01H
	DB	01H
	DB	01H
	DB	01H
	DB	01H
	DB	01H
	DB	01H
	DB	01H
	DB	01H
	DB	01H
	DB	01H
	DB	01H
	DB	01H
	DB	01H
	DB	01H
	DB	01H
	DB	01H
	DB	01H
	DB	01H
	DB	01H
	DB	01H
	DB	01H
	DB	01H
	DB	01H
	DB	01H
	DB	01H
	DB	01H
	DB	01H
	DB	01H
	DB	01H
	DB	01H
	DB	01H
	DB	01H
	DB	01H
	DB	01H
	DB	01H
	DB	01H
	DB	01H
	DB	01H
	DB	01H
	DB	01H
	DB	01H
	DB	01H
	DB	01H
	DB	01H
	DB	01H
	DB	01H
	DB	01H
	DB	01H
	DB	01H
	DB	01H
	DB	01H
	DB	01H
	DB	01H
	DB	01H
	DB	0a7H
	DB	0cH
	DB	0e0H
	DB	09H
	DB	0c5H
	DB	0c5H
	DB	0daH
	DB	0b2H
	DB	0eH
	DB	09H
	DB	03H
	DB	097H
	DB	0eH
	DB	0b2H
	DB	08bH
	DB	0c5H
	DB	03H
	DB	09H
	DB	0d0H
	DB	0a9H
	DB	03H
	DB	0eaH
	DB	0f7H
	DB	0ecH
	DB	0a2H
	DB	01cH
	DB	01cH
	DB	01cH
	DB	01cH
	DB	01cH
	DB	01cH
	DB	01cH
	DB	01cH
	DB	01cH
	DB	01cH
	DB	01cH
	DB	01cH
	DB	01cH
	DB	01cH
	DB	01cH
	DB	01cH
	DB	01cH
	DB	01cH
	DB	01cH
	DB	01cH
	DB	01cH
	DB	01cH
	DB	01cH
	DB	01cH
	DB	01cH
	DB	01cH
	DB	01cH
	DB	01cH
	DB	01cH
	DB	01cH
	DB	01cH
	DB	01cH
	DB	01cH
	DB	01cH
	DB	01cH
	DB	01cH
	DB	01cH
	DB	01cH
	DB	01cH
	DB	01cH
	DB	01cH
	DB	01cH
	DB	01cH
	DB	01cH
	DB	01cH
	DB	01cH
	DB	01cH
	DB	01cH
	DB	01cH
	DB	01cH
	DB	01cH
	DB	01cH
	DB	01cH
	DB	01cH
	DB	01cH
	DB	01cH
	DB	01cH
	DB	01cH
	DB	01cH
	DB	01cH
	DB	01cH
	DB	01cH
	DB	01cH
	DB	01cH
	DB	01cH
	DB	01cH
	DB	01cH
	DB	01cH
	DB	01cH
	DB	01cH
	DB	01cH
	DB	01cH
	DB	01cH
	DB	01cH
	DB	01cH
	DB	01cH
	DB	01cH
	DB	01cH
	DB	01cH
	DB	01cH
	DB	01cH
	DB	01cH
	DB	01cH
	DB	01cH
	DB	01cH
	DB	01cH
	DB	01cH
	DB	01cH
	DB	01cH
	DB	01cH
	DB	01cH
	DB	01cH
	DB	01cH
	DB	01cH
	DB	01cH
	DB	01cH
	DB	01cH
	DB	01cH
	DB	01cH
	DB	01cH
	DB	01cH
	DB	01cH
	DB	01cH
	DB	01cH
	DB	01cH
	DB	01cH
	DB	01cH
	DB	01cH
	DB	01cH
	DB	01cH
	DB	01cH
	DB	01cH
	DB	01cH
	DB	01cH
	DB	01cH
	DB	01cH
	DB	01cH
	DB	01cH
	DB	01cH
	DB	01cH
	DB	01cH
	DB	01cH
	DB	01cH
	DB	01cH
	DB	01cH
	DB	01cH
	DB	01cH
	DB	01cH
	DB	01cH
	DB	01cH
	DB	01cH
	DB	01cH
	DB	01cH
	DB	01cH
	DB	01cH
	DB	01cH
	DB	01cH
	DB	01cH
	DB	01cH
	DB	01cH
	DB	01cH
	DB	01cH
	DB	01cH
	DB	01cH
	DB	01cH
	DB	01cH
	DB	01cH
	DB	01cH
	DB	01cH
	DB	01cH
	DB	01cH
	DB	01cH
	DB	01cH
	DB	01cH
	DB	01cH
	DB	01cH
	DB	01cH
	DB	01cH
	DB	01cH
	DB	01cH
	DB	01cH
	DB	01cH
	DB	01cH
	DB	01cH
	DB	01cH
	DB	01cH
	DB	01cH
	DB	01cH
	DB	01cH
	DB	01cH
	DB	01cH
	DB	01cH
	DB	01cH
	DB	01cH
	DB	01cH
	DB	01cH
	DB	01cH
	DB	01cH
	DB	01cH
	DB	01cH
	DB	01cH
	DB	01cH
	DB	01cH
	DB	01cH
	DB	01cH
	DB	01cH
	DB	01cH
	DB	01cH
	DB	01cH
	DB	01cH
	DB	01cH
	DB	01cH
	DB	01cH
	DB	01cH
	DB	01cH
	DB	01cH
	DB	01cH
	DB	01cH
	DB	01cH
	DB	01cH
	DB	01cH
	DB	01cH
	DB	01cH
	DB	01cH
	DB	01cH
	DB	01cH
	DB	01cH
	DB	01cH
	DB	01cH
	DB	01cH
	DB	01cH
	DB	01cH
	DB	01cH
	DB	01cH
	DB	01cH
	DB	01cH
	DB	01cH
	DB	01cH
	DB	0a2H
	DB	0a2H
	DB	0ecH
	DB	0e5H
	DB	0aaH
	DB	097H
	DB	0eH
	DB	0a9H
	DB	03H
	DB	0c5H
	DB	08bH
	DB	0b2H
	DB	0d0H
	DB	0d7H
	DB	034H
	DB	0afH
	DB	07H
	DB	011H
	DB	0d0H
	DB	0b2H
	DB	0c7H
	DB	0a9H
	DB	0c7H
	DB	0b2H
	DB	0d0H
	DB	0eH
	DB	0a9H
	DB	0a9H
	DB	0eH
	DB	0b2H
	DB	0dfH
	DB	0ceH
	DB	03H
	DB	01H
	DB	01H
	DB	01H
	DB	01H
	DB	01H
	DB	01H
	DB	01H
	DB	01H
	DB	01H
	DB	01H
	DB	01H
	DB	01H
	DB	01H
	DB	01H
	DB	01H
	DB	01H
	DB	01H
	DB	01H
	DB	01H
	DB	01H
	DB	01H
	DB	01H
	DB	01H
	DB	01H
	DB	01H
	DB	01H
	DB	01H
	DB	01H
	DB	01H
	DB	01H
	DB	01H
	DB	01H
	DB	01H
	DB	01H
	DB	01H
	DB	01H
	DB	01H
	DB	01H
	DB	01H
	DB	01H
	DB	01H
	DB	01H
	DB	01H
	DB	01H
	DB	01H
	DB	01H
	DB	01H
	DB	01H
	DB	01H
	DB	01H
	DB	01H
	DB	01H
	DB	01H
	DB	01H
	DB	01H
	DB	01H
	DB	01H
	DB	01H
	DB	01H
	DB	01H
	DB	01H
	DB	01H
	DB	01H
	DB	01H
	DB	01H
	DB	01H
	DB	01H
	DB	01H
	DB	01H
	DB	01H
	DB	01H
	DB	01H
	DB	01H
	DB	01H
	DB	01H
	DB	01H
	DB	01H
	DB	01H
	DB	01H
	DB	01H
	DB	01H
	DB	01H
	DB	01H
	DB	01H
	DB	01H
	DB	01H
	DB	01H
	DB	01H
	DB	01H
	DB	01H
	DB	01H
	DB	01H
	DB	01H
	DB	01H
	DB	01H
	DB	01H
	DB	01H
	DB	01H
	DB	01H
	DB	01H
	DB	01H
	DB	01H
	DB	01H
	DB	01H
	DB	01H
	DB	01H
	DB	01H
	DB	01H
	DB	01H
	DB	01H
	DB	01H
	DB	01H
	DB	01H
	DB	01H
	DB	01H
	DB	01H
	DB	01H
	DB	01H
	DB	01H
	DB	01H
	DB	01H
	DB	01H
	DB	01H
	DB	01H
	DB	01H
	DB	01H
	DB	01H
	DB	01H
	DB	01H
	DB	01H
	DB	01H
	DB	01H
	DB	01H
	DB	01H
	DB	01H
	DB	01H
	DB	01H
	DB	01H
	DB	01H
	DB	01H
	DB	01H
	DB	01H
	DB	01H
	DB	01H
	DB	01H
	DB	01H
	DB	01H
	DB	01H
	DB	01H
	DB	01H
	DB	01H
	DB	01H
	DB	01H
	DB	01H
	DB	01H
	DB	01H
	DB	01H
	DB	01H
	DB	01H
	DB	01H
	DB	01H
	DB	01H
	DB	01H
	DB	01H
	DB	01H
	DB	01H
	DB	01H
	DB	01H
	DB	01H
	DB	01H
	DB	01H
	DB	01H
	DB	01H
	DB	01H
	DB	01H
	DB	01H
	DB	01H
	DB	01H
	DB	01H
	DB	01H
	DB	01H
	DB	01H
	DB	01H
	DB	01H
	DB	01H
	DB	01H
	DB	01H
	DB	01H
	DB	01H
	DB	01H
	DB	01H
	DB	01H
	DB	01H
	DB	01H
	DB	01H
	DB	033H
	DB	0afH
	DB	0eH
	DB	0d0H
	DB	0d0H
	DB	0eH
	DB	0a9H
	DB	0a9H
	DB	0b2H
	DB	0d0H
	DB	0b2H
	DB	0daH
	DB	0a9H
	DB	08bH
	DB	0d0H
	DB	0d0H
	DB	0eH
	DB	0a9H
	DB	03H
	DB	09fH
	DB	0f6H
	DB	01cH
	DB	024H
	DB	024H
	DB	024H
	DB	024H
	DB	024H
	DB	024H
	DB	024H
	DB	024H
	DB	024H
	DB	024H
	DB	024H
	DB	024H
	DB	024H
	DB	024H
	DB	024H
	DB	024H
	DB	024H
	DB	024H
	DB	024H
	DB	024H
	DB	024H
	DB	024H
	DB	024H
	DB	024H
	DB	024H
	DB	024H
	DB	024H
	DB	024H
	DB	024H
	DB	024H
	DB	024H
	DB	024H
	DB	024H
	DB	024H
	DB	024H
	DB	024H
	DB	024H
	DB	024H
	DB	024H
	DB	024H
	DB	024H
	DB	024H
	DB	024H
	DB	024H
	DB	024H
	DB	024H
	DB	024H
	DB	024H
	DB	024H
	DB	024H
	DB	024H
	DB	024H
	DB	024H
	DB	024H
	DB	024H
	DB	024H
	DB	024H
	DB	024H
	DB	024H
	DB	024H
	DB	024H
	DB	024H
	DB	024H
	DB	024H
	DB	024H
	DB	024H
	DB	024H
	DB	024H
	DB	024H
	DB	024H
	DB	024H
	DB	024H
	DB	024H
	DB	024H
	DB	024H
	DB	024H
	DB	024H
	DB	024H
	DB	024H
	DB	024H
	DB	024H
	DB	024H
	DB	024H
	DB	024H
	DB	024H
	DB	024H
	DB	024H
	DB	024H
	DB	024H
	DB	024H
	DB	024H
	DB	024H
	DB	024H
	DB	024H
	DB	024H
	DB	024H
	DB	024H
	DB	024H
	DB	024H
	DB	024H
	DB	024H
	DB	024H
	DB	024H
	DB	024H
	DB	024H
	DB	024H
	DB	024H
	DB	024H
	DB	024H
	DB	024H
	DB	024H
	DB	024H
	DB	024H
	DB	024H
	DB	024H
	DB	024H
	DB	024H
	DB	024H
	DB	024H
	DB	024H
	DB	024H
	DB	024H
	DB	024H
	DB	024H
	DB	024H
	DB	024H
	DB	024H
	DB	024H
	DB	024H
	DB	024H
	DB	024H
	DB	024H
	DB	024H
	DB	024H
	DB	024H
	DB	024H
	DB	024H
	DB	024H
	DB	024H
	DB	024H
	DB	024H
	DB	024H
	DB	024H
	DB	024H
	DB	024H
	DB	024H
	DB	024H
	DB	024H
	DB	024H
	DB	024H
	DB	024H
	DB	024H
	DB	024H
	DB	024H
	DB	024H
	DB	024H
	DB	024H
	DB	024H
	DB	024H
	DB	024H
	DB	024H
	DB	024H
	DB	024H
	DB	024H
	DB	024H
	DB	024H
	DB	024H
	DB	024H
	DB	024H
	DB	024H
	DB	024H
	DB	024H
	DB	024H
	DB	024H
	DB	024H
	DB	024H
	DB	024H
	DB	024H
	DB	024H
	DB	024H
	DB	024H
	DB	024H
	DB	024H
	DB	024H
	DB	024H
	DB	024H
	DB	024H
	DB	024H
	DB	024H
	DB	024H
	DB	024H
	DB	024H
	DB	024H
	DB	024H
	DB	024H
	DB	024H
	DB	024H
	DB	024H
	DB	024H
	DB	024H
	DB	024H
	DB	024H
	DB	024H
	DB	024H
	DB	024H
	DB	024H
	DB	024H
	DB	024H
	DB	024H
	DB	024H
	DB	024H
	DB	024H
	DB	024H
	DB	024H
	DB	024H
	DB	024H
	DB	024H
	DB	024H
	DB	024H
	DB	024H
	DB	024H
	DB	024H
	DB	024H
	DB	018H
	DB	062H
	DB	05eH
	DB	075H
	DB	0eH
	DB	0d0H
	DB	0d0H
	DB	08bH
	DB	09H
	DB	0eH
	DB	0afH
	DB	034H
	DB	0afH
	DB	0cdH
	DB	0d0H
	DB	011H
	DB	0d0H
	DB	09H
	DB	03H
	DB	097H
	DB	0d0H
	DB	011H
	DB	0eH
	DB	03H
	DB	03H
	DB	0a9H
	DB	0d0H
	DB	013H
	DB	0ccH
	DB	01H
	DB	01H
	DB	01H
	DB	01H
	DB	01H
	DB	01H
	DB	01H
	DB	01H
	DB	01H
	DB	01H
	DB	01H
	DB	01H
	DB	01H
	DB	01H
	DB	01H
	DB	01H
	DB	01H
	DB	01H
	DB	01H
	DB	01H
	DB	01H
	DB	01H
	DB	01H
	DB	01H
	DB	01H
	DB	01H
	DB	01H
	DB	01H
	DB	01H
	DB	01H
	DB	01H
	DB	01H
	DB	01H
	DB	01H
	DB	01H
	DB	01H
	DB	01H
	DB	01H
	DB	01H
	DB	01H
	DB	01H
	DB	01H
	DB	01H
	DB	01H
	DB	01H
	DB	01H
	DB	01H
	DB	01H
	DB	01H
	DB	01H
	DB	01H
	DB	01H
	DB	01H
	DB	01H
	DB	01H
	DB	01H
	DB	01H
	DB	01H
	DB	01H
	DB	01H
	DB	01H
	DB	01H
	DB	01H
	DB	01H
	DB	01H
	DB	01H
	DB	01H
	DB	01H
	DB	01H
	DB	01H
	DB	01H
	DB	01H
	DB	01H
	DB	01H
	DB	01H
	DB	01H
	DB	01H
	DB	01H
	DB	01H
	DB	01H
	DB	01H
	DB	01H
	DB	01H
	DB	01H
	DB	01H
	DB	01H
	DB	01H
	DB	01H
	DB	01H
	DB	01H
	DB	01H
	DB	01H
	DB	01H
	DB	01H
	DB	01H
	DB	01H
	DB	01H
	DB	01H
	DB	01H
	DB	01H
	DB	01H
	DB	01H
	DB	01H
	DB	01H
	DB	01H
	DB	01H
	DB	01H
	DB	01H
	DB	01H
	DB	01H
	DB	01H
	DB	01H
	DB	01H
	DB	01H
	DB	01H
	DB	01H
	DB	01H
	DB	01H
	DB	01H
	DB	01H
	DB	01H
	DB	01H
	DB	01H
	DB	01H
	DB	01H
	DB	01H
	DB	01H
	DB	01H
	DB	01H
	DB	01H
	DB	01H
	DB	01H
	DB	01H
	DB	01H
	DB	01H
	DB	01H
	DB	01H
	DB	01H
	DB	01H
	DB	01H
	DB	01H
	DB	01H
	DB	01H
	DB	01H
	DB	01H
	DB	01H
	DB	01H
	DB	01H
	DB	01H
	DB	01H
	DB	01H
	DB	01H
	DB	01H
	DB	01H
	DB	01H
	DB	01H
	DB	01H
	DB	01H
	DB	01H
	DB	01H
	DB	01H
	DB	01H
	DB	01H
	DB	01H
	DB	01H
	DB	01H
	DB	01H
	DB	01H
	DB	01H
	DB	01H
	DB	01H
	DB	01H
	DB	01H
	DB	01H
	DB	01H
	DB	01H
	DB	01H
	DB	01H
	DB	01H
	DB	01H
	DB	01H
	DB	01H
	DB	01H
	DB	01H
	DB	01H
	DB	01H
	DB	01H
	DB	01H
	DB	01H
	DB	01H
	DB	01H
	DB	01H
	DB	01H
	DB	01H
	DB	01H
	DB	01H
	DB	09H
	DB	0cH
	DB	0d0H
	DB	0d0H
	DB	011H
	DB	09H
	DB	03H
	DB	0c5H
	DB	0eH
	DB	011H
	DB	0b2H
	DB	0c5H
	DB	03H
	DB	09H
	DB	0d0H
	DB	011H
	DB	0c7H
	DB	03H
	DB	0c4H
	DB	0cbH
	DB	0ecH
	DB	01cH
	DB	01cH
	DB	01cH
	DB	01cH
	DB	01cH
	DB	01cH
	DB	01cH
	DB	01cH
	DB	01cH
	DB	01cH
	DB	01cH
	DB	01cH
	DB	01cH
	DB	01cH
	DB	01cH
	DB	01cH
	DB	01cH
	DB	01cH
	DB	01cH
	DB	01cH
	DB	01cH
	DB	01cH
	DB	01cH
	DB	01cH
	DB	01cH
	DB	01cH
	DB	01cH
	DB	01cH
	DB	01cH
	DB	01cH
	DB	01cH
	DB	01cH
	DB	01cH
	DB	01cH
	DB	01cH
	DB	01cH
	DB	01cH
	DB	01cH
	DB	01cH
	DB	01cH
	DB	01cH
	DB	01cH
	DB	01cH
	DB	01cH
	DB	01cH
	DB	01cH
	DB	01cH
	DB	01cH
	DB	01cH
	DB	01cH
	DB	01cH
	DB	01cH
	DB	01cH
	DB	01cH
	DB	01cH
	DB	01cH
	DB	01cH
	DB	01cH
	DB	01cH
	DB	01cH
	DB	01cH
	DB	01cH
	DB	01cH
	DB	01cH
	DB	01cH
	DB	01cH
	DB	01cH
	DB	01cH
	DB	01cH
	DB	01cH
	DB	01cH
	DB	01cH
	DB	01cH
	DB	01cH
	DB	01cH
	DB	01cH
	DB	01cH
	DB	01cH
	DB	01cH
	DB	01cH
	DB	01cH
	DB	01cH
	DB	01cH
	DB	01cH
	DB	01cH
	DB	01cH
	DB	01cH
	DB	01cH
	DB	01cH
	DB	01cH
	DB	01cH
	DB	01cH
	DB	01cH
	DB	01cH
	DB	01cH
	DB	01cH
	DB	01cH
	DB	01cH
	DB	01cH
	DB	01cH
	DB	01cH
	DB	01cH
	DB	01cH
	DB	01cH
	DB	01cH
	DB	01cH
	DB	01cH
	DB	01cH
	DB	01cH
	DB	01cH
	DB	01cH
	DB	01cH
	DB	01cH
	DB	01cH
	DB	01cH
	DB	01cH
	DB	01cH
	DB	01cH
	DB	01cH
	DB	01cH
	DB	01cH
	DB	01cH
	DB	01cH
	DB	01cH
	DB	01cH
	DB	01cH
	DB	01cH
	DB	01cH
	DB	01cH
	DB	01cH
	DB	01cH
	DB	01cH
	DB	01cH
	DB	01cH
	DB	01cH
	DB	01cH
	DB	01cH
	DB	01cH
	DB	01cH
	DB	01cH
	DB	01cH
	DB	01cH
	DB	01cH
	DB	01cH
	DB	01cH
	DB	01cH
	DB	01cH
	DB	01cH
	DB	01cH
	DB	01cH
	DB	01cH
	DB	01cH
	DB	01cH
	DB	01cH
	DB	01cH
	DB	01cH
	DB	01cH
	DB	01cH
	DB	01cH
	DB	01cH
	DB	01cH
	DB	01cH
	DB	01cH
	DB	01cH
	DB	01cH
	DB	01cH
	DB	01cH
	DB	01cH
	DB	01cH
	DB	01cH
	DB	01cH
	DB	01cH
	DB	01cH
	DB	01cH
	DB	01cH
	DB	01cH
	DB	01cH
	DB	01cH
	DB	01cH
	DB	01cH
	DB	01cH
	DB	01cH
	DB	01cH
	DB	01cH
	DB	01cH
	DB	01cH
	DB	01cH
	DB	01cH
	DB	01cH
	DB	01cH
	DB	01cH
	DB	01cH
	DB	01cH
	DB	01cH
	DB	01cH
	DB	01cH
	DB	01cH
	DB	01cH
	DB	01cH
	DB	01cH
	DB	01cH
	DB	01cH
	DB	01cH
	DB	01cH
	DB	01cH
	DB	01cH
	DB	01cH
	DB	01cH
	DB	01cH
	DB	01cH
	DB	01cH
	DB	01cH
	DB	01cH
	DB	01cH
	DB	01cH
	DB	01cH
	DB	01cH
	DB	01cH
	DB	01cH
	DB	01cH
	DB	01cH
	DB	01cH
	DB	01cH
	DB	01cH
	DB	01cH
	DB	029H
	DB	064H
	DB	0c4H
	DB	0a9H
	DB	011H
	DB	011H
	DB	09H
	DB	03H
	DB	09H
	DB	0afH
	DB	034H
	DB	0afH
	DB	0cdH
	DB	0eH
	DB	0eH
	DB	08bH
	DB	09H
	DB	0c5H
	DB	097H
	DB	08bH
	DB	0eH
	DB	0a9H
	DB	0c5H
	DB	0c5H
	DB	09H
	DB	0daH
	DB	0afH
	DB	0dfH
	DB	01H
	DB	01H
	DB	01H
	DB	01H
	DB	01H
	DB	01H
	DB	01H
	DB	01H
	DB	01H
	DB	01H
	DB	01H
	DB	01H
	DB	016H
	DB	035H
	DB	035H
	DB	016H
	DB	01H
	DB	01H
	DB	01H
	DB	01H
	DB	01H
	DB	01H
	DB	01H
	DB	016H
	DB	035H
	DB	035H
	DB	016H
	DB	01H
	DB	01H
	DB	01H
	DB	01H
	DB	01H
	DB	01H
	DB	01H
	DB	01H
	DB	01H
	DB	01H
	DB	01H
	DB	01H
	DB	01H
	DB	01H
	DB	01H
	DB	01H
	DB	01H
	DB	01H
	DB	01H
	DB	01H
	DB	01H
	DB	01H
	DB	01H
	DB	01H
	DB	01H
	DB	01H
	DB	01H
	DB	01H
	DB	01H
	DB	01H
	DB	01H
	DB	01H
	DB	01H
	DB	01H
	DB	01H
	DB	01H
	DB	01H
	DB	01H
	DB	01H
	DB	01H
	DB	01H
	DB	01H
	DB	01H
	DB	01H
	DB	01H
	DB	01H
	DB	01H
	DB	01H
	DB	01H
	DB	01H
	DB	01H
	DB	01H
	DB	01H
	DB	01H
	DB	01H
	DB	01H
	DB	01H
	DB	035H
	DB	035H
	DB	035H
	DB	01H
	DB	01H
	DB	01H
	DB	01H
	DB	01H
	DB	01H
	DB	01H
	DB	01H
	DB	035H
	DB	035H
	DB	016H
	DB	01H
	DB	01H
	DB	01H
	DB	01H
	DB	01H
	DB	01H
	DB	01H
	DB	01H
	DB	01H
	DB	01H
	DB	01H
	DB	01H
	DB	01H
	DB	01H
	DB	01H
	DB	01H
	DB	01H
	DB	01H
	DB	01H
	DB	01H
	DB	01H
	DB	01H
	DB	01H
	DB	01H
	DB	01H
	DB	01H
	DB	01H
	DB	01H
	DB	01H
	DB	01H
	DB	01H
	DB	01H
	DB	01H
	DB	01H
	DB	01H
	DB	01H
	DB	01H
	DB	01H
	DB	01H
	DB	01H
	DB	01H
	DB	01H
	DB	01H
	DB	01H
	DB	01H
	DB	01H
	DB	01H
	DB	01H
	DB	01H
	DB	01H
	DB	01H
	DB	01H
	DB	01H
	DB	01H
	DB	01H
	DB	01H
	DB	01H
	DB	01H
	DB	01H
	DB	016H
	DB	035H
	DB	035H
	DB	016H
	DB	01H
	DB	01H
	DB	01H
	DB	01H
	DB	01H
	DB	01H
	DB	01H
	DB	01H
	DB	01H
	DB	016H
	DB	035H
	DB	035H
	DB	016H
	DB	01H
	DB	01H
	DB	01H
	DB	01H
	DB	01H
	DB	01H
	DB	01H
	DB	01H
	DB	01H
	DB	01H
	DB	016H
	DB	035H
	DB	016H
	DB	016H
	DB	01H
	DB	01H
	DB	01H
	DB	01H
	DB	01H
	DB	01H
	DB	01H
	DB	01H
	DB	0a7H
	DB	07H
	DB	033H
	DB	0daH
	DB	0eH
	DB	09H
	DB	0c5H
	DB	0c5H
	DB	0daH
	DB	0eH
	DB	0c7H
	DB	097H
	DB	0c5H
	DB	09H
	DB	0eH
	DB	0eH
	DB	0a9H
	DB	03H
	DB	0bbH
	DB	0d5H
	DB	018H
	DB	018H
	DB	018H
	DB	018H
	DB	018H
	DB	018H
	DB	018H
	DB	018H
	DB	018H
	DB	018H
	DB	018H
	DB	018H
	DB	018H
	DB	018H
	DB	018H
	DB	018H
	DB	018H
	DB	018H
	DB	018H
	DB	018H
	DB	018H
	DB	018H
	DB	018H
	DB	018H
	DB	018H
	DB	018H
	DB	018H
	DB	018H
	DB	018H
	DB	018H
	DB	018H
	DB	018H
	DB	018H
	DB	018H
	DB	018H
	DB	018H
	DB	018H
	DB	018H
	DB	018H
	DB	018H
	DB	018H
	DB	018H
	DB	018H
	DB	018H
	DB	018H
	DB	018H
	DB	018H
	DB	018H
	DB	018H
	DB	018H
	DB	018H
	DB	018H
	DB	018H
	DB	018H
	DB	018H
	DB	018H
	DB	018H
	DB	018H
	DB	018H
	DB	018H
	DB	018H
	DB	018H
	DB	018H
	DB	018H
	DB	018H
	DB	018H
	DB	018H
	DB	018H
	DB	018H
	DB	018H
	DB	018H
	DB	018H
	DB	018H
	DB	018H
	DB	018H
	DB	018H
	DB	018H
	DB	018H
	DB	018H
	DB	018H
	DB	018H
	DB	018H
	DB	018H
	DB	018H
	DB	018H
	DB	018H
	DB	018H
	DB	018H
	DB	018H
	DB	018H
	DB	018H
	DB	018H
	DB	018H
	DB	018H
	DB	018H
	DB	018H
	DB	018H
	DB	018H
	DB	018H
	DB	018H
	DB	018H
	DB	018H
	DB	018H
	DB	018H
	DB	018H
	DB	018H
	DB	018H
	DB	018H
	DB	018H
	DB	018H
	DB	018H
	DB	018H
	DB	018H
	DB	018H
	DB	018H
	DB	018H
	DB	018H
	DB	018H
	DB	018H
	DB	018H
	DB	018H
	DB	018H
	DB	018H
	DB	018H
	DB	018H
	DB	018H
	DB	018H
	DB	018H
	DB	018H
	DB	018H
	DB	018H
	DB	018H
	DB	018H
	DB	018H
	DB	018H
	DB	018H
	DB	018H
	DB	018H
	DB	018H
	DB	018H
	DB	018H
	DB	018H
	DB	018H
	DB	018H
	DB	018H
	DB	018H
	DB	018H
	DB	018H
	DB	018H
	DB	018H
	DB	018H
	DB	018H
	DB	018H
	DB	018H
	DB	018H
	DB	018H
	DB	018H
	DB	018H
	DB	018H
	DB	018H
	DB	018H
	DB	018H
	DB	018H
	DB	018H
	DB	018H
	DB	018H
	DB	018H
	DB	018H
	DB	018H
	DB	018H
	DB	018H
	DB	018H
	DB	018H
	DB	018H
	DB	018H
	DB	018H
	DB	018H
	DB	018H
	DB	018H
	DB	018H
	DB	018H
	DB	018H
	DB	018H
	DB	018H
	DB	018H
	DB	018H
	DB	018H
	DB	018H
	DB	018H
	DB	018H
	DB	018H
	DB	018H
	DB	018H
	DB	018H
	DB	018H
	DB	018H
	DB	018H
	DB	018H
	DB	018H
	DB	018H
	DB	018H
	DB	018H
	DB	018H
	DB	018H
	DB	018H
	DB	018H
	DB	018H
	DB	018H
	DB	018H
	DB	018H
	DB	018H
	DB	018H
	DB	018H
	DB	018H
	DB	018H
	DB	018H
	DB	018H
	DB	018H
	DB	018H
	DB	018H
	DB	018H
	DB	018H
	DB	018H
	DB	018H
	DB	018H
	DB	018H
	DB	024H
	DB	046H
	DB	023H
	DB	0c6H
	DB	0eH
	DB	0eH
	DB	09H
	DB	03H
	DB	0a9H
	DB	0afH
	DB	034H
	DB	0afH
	DB	07H
	DB	0eH
	DB	097H
	DB	09H
	DB	0eH
	DB	0d0H
	DB	0eH
	DB	09H
	DB	09H
	DB	0a9H
	DB	0b2H
	DB	0d0H
	DB	08bH
	DB	09H
	DB	0d7H
	DB	0caH
	DB	01H
	DB	01H
	DB	01H
	DB	01H
	DB	01H
	DB	01H
	DB	01H
	DB	01H
	DB	01H
	DB	01H
	DB	01H
	DB	016H
	DB	0fH
	DB	017H
	DB	017H
	DB	0dH
	DB	016H
	DB	01H
	DB	01H
	DB	01H
	DB	01H
	DB	01H
	DB	01H
	DB	03cH
	DB	017H
	DB	017H
	DB	022H
	DB	01H
	DB	01H
	DB	01H
	DB	01H
	DB	01H
	DB	01H
	DB	01H
	DB	01H
	DB	01H
	DB	01H
	DB	01H
	DB	01H
	DB	01H
	DB	01H
	DB	01H
	DB	01H
	DB	01H
	DB	01H
	DB	01H
	DB	01H
	DB	01H
	DB	01H
	DB	01H
	DB	01H
	DB	01H
	DB	01H
	DB	01H
	DB	01H
	DB	01H
	DB	01H
	DB	01H
	DB	01H
	DB	01H
	DB	01H
	DB	01H
	DB	01H
	DB	01H
	DB	01H
	DB	01H
	DB	01H
	DB	01H
	DB	01H
	DB	01H
	DB	01H
	DB	01H
	DB	01H
	DB	01H
	DB	01H
	DB	01H
	DB	01H
	DB	01H
	DB	01H
	DB	01H
	DB	01H
	DB	01H
	DB	01H
	DB	055H
	DB	017H
	DB	019H
	DB	017H
	DB	048H
	DB	01H
	DB	01H
	DB	01H
	DB	01H
	DB	01H
	DB	01H
	DB	043H
	DB	017H
	DB	017H
	DB	0bH
	DB	035H
	DB	01H
	DB	01H
	DB	01H
	DB	01H
	DB	01H
	DB	01H
	DB	01H
	DB	01H
	DB	01H
	DB	01H
	DB	01H
	DB	01H
	DB	01H
	DB	01H
	DB	01H
	DB	01H
	DB	01H
	DB	01H
	DB	01H
	DB	01H
	DB	01H
	DB	01H
	DB	01H
	DB	01H
	DB	01H
	DB	01H
	DB	01H
	DB	01H
	DB	01H
	DB	01H
	DB	01H
	DB	01H
	DB	01H
	DB	01H
	DB	01H
	DB	01H
	DB	01H
	DB	01H
	DB	01H
	DB	01H
	DB	01H
	DB	01H
	DB	01H
	DB	01H
	DB	01H
	DB	01H
	DB	01H
	DB	01H
	DB	01H
	DB	01H
	DB	01H
	DB	01H
	DB	01H
	DB	01H
	DB	01H
	DB	06bH
	DB	028H
	DB	03fH
	DB	0fH
	DB	017H
	DB	019H
	DB	0fH
	DB	01fH
	DB	06bH
	DB	01H
	DB	01H
	DB	01H
	DB	01H
	DB	035H
	DB	03bH
	DB	01fH
	DB	0fH
	DB	017H
	DB	019H
	DB	0bH
	DB	03fH
	DB	02bH
	DB	01H
	DB	01H
	DB	01H
	DB	01H
	DB	01H
	DB	01H
	DB	035H
	DB	022H
	DB	0fH
	DB	017H
	DB	0f4H
	DB	0dH
	DB	03bH
	DB	01H
	DB	01H
	DB	01H
	DB	01H
	DB	01H
	DB	01H
	DB	01H
	DB	01H
	DB	0cdH
	DB	034H
	DB	0c5H
	DB	09H
	DB	0eH
	DB	0d0H
	DB	0b2H
	DB	0a9H
	DB	09H
	DB	0a9H
	DB	0b2H
	DB	0d0H
	DB	0eH
	DB	09H
	DB	09H
	DB	0c7H
	DB	0eH
	DB	04dH
	DB	0d5H
	DB	026H
	DB	018H
	DB	018H
	DB	018H
	DB	018H
	DB	018H
	DB	018H
	DB	018H
	DB	018H
	DB	018H
	DB	018H
	DB	018H
	DB	018H
	DB	018H
	DB	018H
	DB	018H
	DB	018H
	DB	018H
	DB	018H
	DB	018H
	DB	018H
	DB	018H
	DB	018H
	DB	018H
	DB	018H
	DB	018H
	DB	018H
	DB	018H
	DB	018H
	DB	018H
	DB	018H
	DB	018H
	DB	018H
	DB	018H
	DB	018H
	DB	018H
	DB	018H
	DB	018H
	DB	018H
	DB	018H
	DB	018H
	DB	018H
	DB	018H
	DB	018H
	DB	018H
	DB	018H
	DB	018H
	DB	018H
	DB	018H
	DB	018H
	DB	018H
	DB	018H
	DB	018H
	DB	018H
	DB	018H
	DB	018H
	DB	018H
	DB	018H
	DB	018H
	DB	018H
	DB	018H
	DB	018H
	DB	018H
	DB	018H
	DB	018H
	DB	018H
	DB	018H
	DB	018H
	DB	018H
	DB	018H
	DB	018H
	DB	018H
	DB	018H
	DB	018H
	DB	018H
	DB	018H
	DB	018H
	DB	018H
	DB	018H
	DB	018H
	DB	018H
	DB	018H
	DB	018H
	DB	018H
	DB	018H
	DB	018H
	DB	018H
	DB	018H
	DB	018H
	DB	018H
	DB	018H
	DB	018H
	DB	018H
	DB	018H
	DB	018H
	DB	018H
	DB	018H
	DB	018H
	DB	018H
	DB	018H
	DB	018H
	DB	018H
	DB	018H
	DB	018H
	DB	018H
	DB	018H
	DB	018H
	DB	018H
	DB	018H
	DB	018H
	DB	018H
	DB	018H
	DB	018H
	DB	018H
	DB	018H
	DB	018H
	DB	018H
	DB	018H
	DB	018H
	DB	018H
	DB	018H
	DB	018H
	DB	018H
	DB	018H
	DB	018H
	DB	018H
	DB	018H
	DB	018H
	DB	018H
	DB	018H
	DB	018H
	DB	018H
	DB	018H
	DB	018H
	DB	018H
	DB	018H
	DB	018H
	DB	018H
	DB	018H
	DB	018H
	DB	018H
	DB	018H
	DB	018H
	DB	018H
	DB	018H
	DB	018H
	DB	018H
	DB	018H
	DB	018H
	DB	018H
	DB	018H
	DB	018H
	DB	018H
	DB	018H
	DB	018H
	DB	018H
	DB	018H
	DB	018H
	DB	018H
	DB	018H
	DB	018H
	DB	018H
	DB	018H
	DB	018H
	DB	018H
	DB	018H
	DB	018H
	DB	018H
	DB	018H
	DB	018H
	DB	018H
	DB	018H
	DB	018H
	DB	018H
	DB	018H
	DB	018H
	DB	018H
	DB	018H
	DB	018H
	DB	018H
	DB	018H
	DB	018H
	DB	018H
	DB	018H
	DB	018H
	DB	018H
	DB	018H
	DB	018H
	DB	018H
	DB	018H
	DB	018H
	DB	018H
	DB	018H
	DB	018H
	DB	018H
	DB	018H
	DB	018H
	DB	018H
	DB	018H
	DB	018H
	DB	018H
	DB	018H
	DB	018H
	DB	018H
	DB	018H
	DB	018H
	DB	018H
	DB	018H
	DB	018H
	DB	018H
	DB	018H
	DB	018H
	DB	018H
	DB	018H
	DB	018H
	DB	018H
	DB	018H
	DB	018H
	DB	018H
	DB	018H
	DB	018H
	DB	018H
	DB	018H
	DB	018H
	DB	018H
	DB	018H
	DB	024H
	DB	0c9H
	DB	0c4H
	DB	09H
	DB	09H
	DB	09H
	DB	0eH
	DB	0b2H
	DB	011H
	DB	0d7H
	DB	034H
	DB	0afH
	DB	07H
	DB	0a9H
	DB	0a7H
	DB	03H
	DB	08bH
	DB	0d0H
	DB	0eH
	DB	03H
	DB	0a7H
	DB	097H
	DB	0b2H
	DB	0b2H
	DB	09H
	DB	03H
	DB	07H
	DB	08eH
	DB	01H
	DB	01H
	DB	01H
	DB	01H
	DB	01H
	DB	01H
	DB	01H
	DB	01H
	DB	01H
	DB	01H
	DB	01H
	DB	043H
	DB	019H
	DB	019H
	DB	019H
	DB	019H
	DB	06bH
	DB	01H
	DB	01H
	DB	01H
	DB	01H
	DB	01H
	DB	01H
	DB	03cH
	DB	017H
	DB	017H
	DB	028H
	DB	01H
	DB	01H
	DB	01H
	DB	01H
	DB	01H
	DB	01H
	DB	01H
	DB	01H
	DB	01H
	DB	01H
	DB	01H
	DB	01H
	DB	01H
	DB	01H
	DB	01H
	DB	01H
	DB	01H
	DB	01H
	DB	01H
	DB	01H
	DB	01H
	DB	01H
	DB	01H
	DB	01H
	DB	01H
	DB	01H
	DB	01H
	DB	01H
	DB	01H
	DB	01H
	DB	01H
	DB	01H
	DB	01H
	DB	01H
	DB	01H
	DB	01H
	DB	01H
	DB	01H
	DB	01H
	DB	01H
	DB	01H
	DB	01H
	DB	01H
	DB	01H
	DB	01H
	DB	01H
	DB	01H
	DB	01H
	DB	01H
	DB	01H
	DB	01H
	DB	01H
	DB	01H
	DB	01H
	DB	01H
	DB	01H
	DB	03cH
	DB	017H
	DB	019H
	DB	017H
	DB	01fH
	DB	01H
	DB	01H
	DB	01H
	DB	01H
	DB	01H
	DB	01H
	DB	043H
	DB	017H
	DB	019H
	DB	0bH
	DB	035H
	DB	01H
	DB	01H
	DB	01H
	DB	01H
	DB	01H
	DB	01H
	DB	01H
	DB	01H
	DB	01H
	DB	01H
	DB	01H
	DB	01H
	DB	01H
	DB	01H
	DB	01H
	DB	01H
	DB	01H
	DB	01H
	DB	01H
	DB	01H
	DB	01H
	DB	01H
	DB	01H
	DB	01H
	DB	01H
	DB	01H
	DB	01H
	DB	01H
	DB	01H
	DB	01H
	DB	01H
	DB	01H
	DB	01H
	DB	01H
	DB	01H
	DB	01H
	DB	01H
	DB	01H
	DB	01H
	DB	01H
	DB	01H
	DB	01H
	DB	01H
	DB	01H
	DB	01H
	DB	01H
	DB	01H
	DB	01H
	DB	01H
	DB	01H
	DB	01H
	DB	01H
	DB	01H
	DB	01H
	DB	016H
	DB	0fH
	DB	017H
	DB	017H
	DB	019H
	DB	02H
	DB	017H
	DB	017H
	DB	017H
	DB	0f4H
	DB	043H
	DB	01H
	DB	01H
	DB	01H
	DB	03fH
	DB	017H
	DB	017H
	DB	017H
	DB	0bH
	DB	017H
	DB	017H
	DB	017H
	DB	017H
	DB	03bH
	DB	01H
	DB	01H
	DB	01H
	DB	01H
	DB	035H
	DB	0fH
	DB	017H
	DB	017H
	DB	0f4H
	DB	019H
	DB	017H
	DB	017H
	DB	060H
	DB	01H
	DB	01H
	DB	01H
	DB	01H
	DB	01H
	DB	01H
	DB	01H
	DB	0cdH
	DB	08H
	DB	09bH
	DB	03H
	DB	0a9H
	DB	0b2H
	DB	0eH
	DB	0c5H
	DB	0a7H
	DB	0c5H
	DB	0eH
	DB	0d0H
	DB	0c7H
	DB	03H
	DB	0a7H
	DB	09H
	DB	0eH
	DB	04dH
	DB	0d5H
	DB	026H
	DB	026H
	DB	026H
	DB	026H
	DB	026H
	DB	026H
	DB	026H
	DB	026H
	DB	026H
	DB	026H
	DB	026H
	DB	026H
	DB	026H
	DB	026H
	DB	026H
	DB	026H
	DB	026H
	DB	026H
	DB	026H
	DB	026H
	DB	026H
	DB	026H
	DB	026H
	DB	026H
	DB	026H
	DB	026H
	DB	026H
	DB	026H
	DB	026H
	DB	026H
	DB	026H
	DB	026H
	DB	026H
	DB	026H
	DB	026H
	DB	026H
	DB	026H
	DB	026H
	DB	026H
	DB	026H
	DB	026H
	DB	026H
	DB	026H
	DB	026H
	DB	026H
	DB	026H
	DB	026H
	DB	026H
	DB	026H
	DB	026H
	DB	026H
	DB	026H
	DB	026H
	DB	026H
	DB	026H
	DB	026H
	DB	026H
	DB	026H
	DB	026H
	DB	026H
	DB	026H
	DB	026H
	DB	026H
	DB	026H
	DB	026H
	DB	026H
	DB	026H
	DB	026H
	DB	026H
	DB	026H
	DB	026H
	DB	026H
	DB	026H
	DB	026H
	DB	026H
	DB	026H
	DB	026H
	DB	026H
	DB	026H
	DB	026H
	DB	026H
	DB	026H
	DB	026H
	DB	026H
	DB	026H
	DB	026H
	DB	026H
	DB	026H
	DB	026H
	DB	026H
	DB	026H
	DB	026H
	DB	026H
	DB	026H
	DB	026H
	DB	026H
	DB	026H
	DB	026H
	DB	026H
	DB	026H
	DB	026H
	DB	026H
	DB	026H
	DB	026H
	DB	026H
	DB	026H
	DB	026H
	DB	026H
	DB	026H
	DB	026H
	DB	026H
	DB	026H
	DB	026H
	DB	026H
	DB	026H
	DB	026H
	DB	026H
	DB	026H
	DB	026H
	DB	026H
	DB	026H
	DB	026H
	DB	026H
	DB	026H
	DB	026H
	DB	026H
	DB	026H
	DB	026H
	DB	026H
	DB	026H
	DB	026H
	DB	026H
	DB	026H
	DB	026H
	DB	026H
	DB	026H
	DB	026H
	DB	026H
	DB	026H
	DB	026H
	DB	026H
	DB	026H
	DB	026H
	DB	026H
	DB	026H
	DB	026H
	DB	026H
	DB	026H
	DB	026H
	DB	026H
	DB	026H
	DB	026H
	DB	026H
	DB	026H
	DB	026H
	DB	026H
	DB	026H
	DB	026H
	DB	026H
	DB	026H
	DB	026H
	DB	026H
	DB	026H
	DB	026H
	DB	026H
	DB	026H
	DB	026H
	DB	026H
	DB	026H
	DB	026H
	DB	026H
	DB	026H
	DB	026H
	DB	026H
	DB	026H
	DB	026H
	DB	026H
	DB	026H
	DB	026H
	DB	026H
	DB	026H
	DB	026H
	DB	026H
	DB	026H
	DB	026H
	DB	026H
	DB	026H
	DB	026H
	DB	026H
	DB	026H
	DB	026H
	DB	026H
	DB	026H
	DB	026H
	DB	026H
	DB	026H
	DB	026H
	DB	026H
	DB	026H
	DB	026H
	DB	026H
	DB	026H
	DB	026H
	DB	026H
	DB	026H
	DB	026H
	DB	026H
	DB	026H
	DB	026H
	DB	026H
	DB	026H
	DB	026H
	DB	026H
	DB	026H
	DB	026H
	DB	026H
	DB	026H
	DB	026H
	DB	026H
	DB	026H
	DB	026H
	DB	026H
	DB	026H
	DB	026H
	DB	026H
	DB	026H
	DB	024H
	DB	046H
	DB	0c4H
	DB	03H
	DB	0a7H
	DB	03H
	DB	0daH
	DB	0b2H
	DB	0d0H
	DB	0d7H
	DB	034H
	DB	0afH
	DB	07H
	DB	0c7H
	DB	0c5H
	DB	097H
	DB	0a9H
	DB	0daH
	DB	0a9H
	DB	097H
	DB	0c5H
	DB	09H
	DB	0a9H
	DB	0a9H
	DB	09H
	DB	097H
	DB	07H
	DB	08eH
	DB	01H
	DB	01H
	DB	01H
	DB	01H
	DB	01H
	DB	01H
	DB	01H
	DB	01H
	DB	01H
	DB	01H
	DB	01H
	DB	060H
	DB	017H
	DB	0f4H
	DB	0f4H
	DB	017H
	DB	028H
	DB	01H
	DB	01H
	DB	01H
	DB	01H
	DB	01H
	DB	01H
	DB	03cH
	DB	017H
	DB	017H
	DB	028H
	DB	01H
	DB	01H
	DB	01H
	DB	01H
	DB	01H
	DB	01H
	DB	01H
	DB	01H
	DB	01H
	DB	01H
	DB	01H
	DB	01H
	DB	01H
	DB	01H
	DB	01H
	DB	01H
	DB	01H
	DB	01H
	DB	01H
	DB	01H
	DB	01H
	DB	01H
	DB	01H
	DB	01H
	DB	01H
	DB	01H
	DB	01H
	DB	01H
	DB	01H
	DB	01H
	DB	01H
	DB	01H
	DB	01H
	DB	01H
	DB	01H
	DB	01H
	DB	01H
	DB	01H
	DB	01H
	DB	01H
	DB	01H
	DB	01H
	DB	01H
	DB	01H
	DB	01H
	DB	01H
	DB	01H
	DB	01H
	DB	01H
	DB	01H
	DB	01H
	DB	01H
	DB	01H
	DB	01H
	DB	01H
	DB	06bH
	DB	019H
	DB	019H
	DB	0f4H
	DB	019H
	DB	0bH
	DB	035H
	DB	01H
	DB	01H
	DB	01H
	DB	01H
	DB	01H
	DB	043H
	DB	017H
	DB	019H
	DB	0bH
	DB	035H
	DB	01H
	DB	01H
	DB	01H
	DB	01H
	DB	01H
	DB	01H
	DB	01H
	DB	01H
	DB	01H
	DB	01H
	DB	01H
	DB	01H
	DB	01H
	DB	01H
	DB	01H
	DB	01H
	DB	01H
	DB	01H
	DB	01H
	DB	01H
	DB	01H
	DB	01H
	DB	01H
	DB	01H
	DB	01H
	DB	01H
	DB	01H
	DB	01H
	DB	01H
	DB	01H
	DB	01H
	DB	01H
	DB	01H
	DB	01H
	DB	01H
	DB	01H
	DB	01H
	DB	01H
	DB	01H
	DB	01H
	DB	01H
	DB	01H
	DB	01H
	DB	01H
	DB	01H
	DB	01H
	DB	01H
	DB	01H
	DB	01H
	DB	01H
	DB	01H
	DB	01H
	DB	01H
	DB	01H
	DB	01H
	DB	03cH
	DB	095H
	DB	043H
	DB	06bH
	DB	035H
	DB	048H
	DB	0bH
	DB	019H
	DB	017H
	DB	0dH
	DB	016H
	DB	01H
	DB	01H
	DB	060H
	DB	0dH
	DB	048H
	DB	06bH
	DB	035H
	DB	043H
	DB	0fH
	DB	019H
	DB	017H
	DB	0bH
	DB	035H
	DB	01H
	DB	01H
	DB	01H
	DB	03fH
	DB	017H
	DB	017H
	DB	095H
	DB	035H
	DB	01bH
	DB	0fH
	DB	019H
	DB	017H
	DB	048H
	DB	01H
	DB	01H
	DB	01H
	DB	01H
	DB	01H
	DB	01H
	DB	0cdH
	DB	08H
	DB	03H
	DB	0c5H
	DB	09H
	DB	0a9H
	DB	0a9H
	DB	09H
	DB	0c5H
	DB	09H
	DB	0a9H
	DB	0daH
	DB	09H
	DB	097H
	DB	0c5H
	DB	09H
	DB	09H
	DB	04dH
	DB	0d5H
	DB	015H
	DB	026H
	DB	026H
	DB	026H
	DB	026H
	DB	026H
	DB	026H
	DB	026H
	DB	026H
	DB	026H
	DB	026H
	DB	026H
	DB	026H
	DB	026H
	DB	026H
	DB	026H
	DB	026H
	DB	026H
	DB	026H
	DB	026H
	DB	026H
	DB	026H
	DB	026H
	DB	026H
	DB	026H
	DB	026H
	DB	026H
	DB	026H
	DB	026H
	DB	026H
	DB	026H
	DB	026H
	DB	026H
	DB	026H
	DB	026H
	DB	026H
	DB	026H
	DB	026H
	DB	026H
	DB	026H
	DB	026H
	DB	026H
	DB	026H
	DB	026H
	DB	026H
	DB	026H
	DB	026H
	DB	026H
	DB	026H
	DB	026H
	DB	026H
	DB	026H
	DB	026H
	DB	026H
	DB	026H
	DB	026H
	DB	026H
	DB	026H
	DB	026H
	DB	026H
	DB	026H
	DB	026H
	DB	026H
	DB	026H
	DB	026H
	DB	026H
	DB	026H
	DB	026H
	DB	026H
	DB	026H
	DB	026H
	DB	026H
	DB	026H
	DB	026H
	DB	026H
	DB	026H
	DB	026H
	DB	026H
	DB	026H
	DB	026H
	DB	026H
	DB	026H
	DB	026H
	DB	026H
	DB	026H
	DB	026H
	DB	026H
	DB	026H
	DB	026H
	DB	026H
	DB	026H
	DB	026H
	DB	026H
	DB	026H
	DB	026H
	DB	026H
	DB	026H
	DB	026H
	DB	026H
	DB	026H
	DB	026H
	DB	026H
	DB	026H
	DB	026H
	DB	026H
	DB	026H
	DB	026H
	DB	026H
	DB	026H
	DB	026H
	DB	026H
	DB	026H
	DB	026H
	DB	026H
	DB	026H
	DB	026H
	DB	026H
	DB	026H
	DB	026H
	DB	026H
	DB	026H
	DB	026H
	DB	026H
	DB	026H
	DB	026H
	DB	026H
	DB	026H
	DB	026H
	DB	026H
	DB	026H
	DB	026H
	DB	026H
	DB	026H
	DB	026H
	DB	026H
	DB	026H
	DB	026H
	DB	026H
	DB	026H
	DB	026H
	DB	026H
	DB	026H
	DB	026H
	DB	026H
	DB	026H
	DB	026H
	DB	026H
	DB	026H
	DB	026H
	DB	026H
	DB	026H
	DB	026H
	DB	026H
	DB	026H
	DB	026H
	DB	026H
	DB	026H
	DB	026H
	DB	026H
	DB	026H
	DB	026H
	DB	026H
	DB	026H
	DB	026H
	DB	026H
	DB	026H
	DB	026H
	DB	026H
	DB	026H
	DB	026H
	DB	026H
	DB	026H
	DB	026H
	DB	026H
	DB	026H
	DB	026H
	DB	026H
	DB	026H
	DB	026H
	DB	026H
	DB	026H
	DB	026H
	DB	026H
	DB	026H
	DB	026H
	DB	026H
	DB	026H
	DB	026H
	DB	026H
	DB	026H
	DB	026H
	DB	026H
	DB	026H
	DB	026H
	DB	026H
	DB	026H
	DB	026H
	DB	026H
	DB	026H
	DB	026H
	DB	026H
	DB	026H
	DB	026H
	DB	026H
	DB	026H
	DB	026H
	DB	026H
	DB	026H
	DB	026H
	DB	026H
	DB	026H
	DB	026H
	DB	026H
	DB	026H
	DB	026H
	DB	026H
	DB	026H
	DB	026H
	DB	026H
	DB	026H
	DB	026H
	DB	026H
	DB	026H
	DB	026H
	DB	026H
	DB	026H
	DB	01cH
	DB	046H
	DB	023H
	DB	03H
	DB	0c5H
	DB	097H
	DB	09H
	DB	0a9H
	DB	0eH
	DB	0d7H
	DB	034H
	DB	0afH
	DB	0cdH
	DB	0b2H
	DB	0b2H
	DB	0eH
	DB	09H
	DB	0c5H
	DB	09H
	DB	0eH
	DB	0b2H
	DB	08bH
	DB	0c5H
	DB	0c5H
	DB	0a9H
	DB	0b2H
	DB	0d9H
	DB	08eH
	DB	01H
	DB	01H
	DB	01H
	DB	01H
	DB	01H
	DB	01H
	DB	01H
	DB	01H
	DB	01H
	DB	01H
	DB	016H
	DB	0fH
	DB	019H
	DB	019H
	DB	0f4H
	DB	017H
	DB	0dH
	DB	01H
	DB	01H
	DB	01H
	DB	01H
	DB	01H
	DB	01H
	DB	03cH
	DB	017H
	DB	017H
	DB	028H
	DB	01H
	DB	01H
	DB	01H
	DB	01H
	DB	01H
	DB	01H
	DB	016H
	DB	06bH
	DB	01bH
	DB	06bH
	DB	016H
	DB	01H
	DB	01H
	DB	01H
	DB	01H
	DB	01H
	DB	016H
	DB	035H
	DB	035H
	DB	016H
	DB	01H
	DB	01H
	DB	06bH
	DB	035H
	DB	01H
	DB	01H
	DB	035H
	DB	035H
	DB	016H
	DB	01H
	DB	01H
	DB	016H
	DB	06bH
	DB	06bH
	DB	016H
	DB	01H
	DB	01H
	DB	01H
	DB	01H
	DB	06bH
	DB	01bH
	DB	035H
	DB	01H
	DB	01H
	DB	01H
	DB	01H
	DB	01H
	DB	01H
	DB	01H
	DB	01H
	DB	01H
	DB	01H
	DB	01H
	DB	01H
	DB	01H
	DB	055H
	DB	017H
	DB	019H
	DB	019H
	DB	0f4H
	DB	017H
	DB	043H
	DB	01H
	DB	01H
	DB	01H
	DB	01H
	DB	01H
	DB	043H
	DB	017H
	DB	019H
	DB	0bH
	DB	035H
	DB	01H
	DB	035H
	DB	01bH
	DB	06bH
	DB	01H
	DB	01H
	DB	01H
	DB	01H
	DB	01H
	DB	01H
	DB	01H
	DB	01H
	DB	01H
	DB	035H
	DB	01bH
	DB	06bH
	DB	035H
	DB	01H
	DB	01H
	DB	01H
	DB	01H
	DB	01H
	DB	035H
	DB	035H
	DB	035H
	DB	016H
	DB	01H
	DB	01H
	DB	01H
	DB	01H
	DB	01H
	DB	01H
	DB	016H
	DB	035H
	DB	035H
	DB	01H
	DB	01H
	DB	01H
	DB	01H
	DB	01H
	DB	035H
	DB	01bH
	DB	06bH
	DB	016H
	DB	01H
	DB	01H
	DB	01H
	DB	01H
	DB	01H
	DB	01H
	DB	01H
	DB	01H
	DB	01H
	DB	01H
	DB	01H
	DB	016H
	DB	01H
	DB	01H
	DB	01H
	DB	01H
	DB	01H
	DB	03bH
	DB	017H
	DB	019H
	DB	019H
	DB	06bH
	DB	01H
	DB	01H
	DB	016H
	DB	01H
	DB	01H
	DB	01H
	DB	01H
	DB	01H
	DB	02bH
	DB	019H
	DB	019H
	DB	017H
	DB	048H
	DB	01H
	DB	01H
	DB	01bH
	DB	017H
	DB	019H
	DB	02H
	DB	035H
	DB	01H
	DB	01H
	DB	048H
	DB	017H
	DB	017H
	DB	0dH
	DB	01H
	DB	01H
	DB	01H
	DB	01H
	DB	01H
	DB	01H
	DB	0cdH
	DB	034H
	DB	0eH
	DB	0b2H
	DB	09H
	DB	0c5H
	DB	097H
	DB	0eH
	DB	0b2H
	DB	0eH
	DB	09H
	DB	0c5H
	DB	09H
	DB	0eH
	DB	0b2H
	DB	0daH
	DB	03H
	DB	0bbH
	DB	0c2H
	DB	015H
	DB	015H
	DB	015H
	DB	015H
	DB	015H
	DB	015H
	DB	015H
	DB	015H
	DB	015H
	DB	015H
	DB	015H
	DB	015H
	DB	015H
	DB	015H
	DB	015H
	DB	015H
	DB	015H
	DB	015H
	DB	015H
	DB	015H
	DB	015H
	DB	015H
	DB	015H
	DB	015H
	DB	015H
	DB	015H
	DB	015H
	DB	015H
	DB	015H
	DB	015H
	DB	015H
	DB	015H
	DB	015H
	DB	015H
	DB	015H
	DB	015H
	DB	015H
	DB	015H
	DB	015H
	DB	015H
	DB	015H
	DB	015H
	DB	015H
	DB	015H
	DB	015H
	DB	015H
	DB	015H
	DB	015H
	DB	015H
	DB	015H
	DB	015H
	DB	015H
	DB	015H
	DB	015H
	DB	015H
	DB	015H
	DB	015H
	DB	015H
	DB	015H
	DB	015H
	DB	015H
	DB	015H
	DB	015H
	DB	015H
	DB	015H
	DB	015H
	DB	015H
	DB	015H
	DB	015H
	DB	015H
	DB	015H
	DB	015H
	DB	015H
	DB	015H
	DB	015H
	DB	015H
	DB	015H
	DB	015H
	DB	015H
	DB	015H
	DB	015H
	DB	015H
	DB	015H
	DB	015H
	DB	015H
	DB	015H
	DB	015H
	DB	015H
	DB	015H
	DB	015H
	DB	015H
	DB	015H
	DB	015H
	DB	015H
	DB	015H
	DB	015H
	DB	015H
	DB	015H
	DB	015H
	DB	015H
	DB	015H
	DB	015H
	DB	015H
	DB	015H
	DB	015H
	DB	015H
	DB	015H
	DB	015H
	DB	015H
	DB	015H
	DB	015H
	DB	015H
	DB	015H
	DB	015H
	DB	015H
	DB	015H
	DB	015H
	DB	015H
	DB	015H
	DB	015H
	DB	015H
	DB	015H
	DB	015H
	DB	015H
	DB	015H
	DB	015H
	DB	015H
	DB	015H
	DB	015H
	DB	015H
	DB	015H
	DB	015H
	DB	015H
	DB	015H
	DB	015H
	DB	015H
	DB	015H
	DB	015H
	DB	015H
	DB	015H
	DB	015H
	DB	015H
	DB	015H
	DB	015H
	DB	015H
	DB	015H
	DB	015H
	DB	015H
	DB	015H
	DB	015H
	DB	015H
	DB	015H
	DB	015H
	DB	015H
	DB	015H
	DB	015H
	DB	015H
	DB	015H
	DB	015H
	DB	015H
	DB	015H
	DB	015H
	DB	015H
	DB	015H
	DB	015H
	DB	015H
	DB	015H
	DB	015H
	DB	015H
	DB	015H
	DB	015H
	DB	015H
	DB	015H
	DB	015H
	DB	015H
	DB	015H
	DB	015H
	DB	015H
	DB	015H
	DB	015H
	DB	015H
	DB	015H
	DB	015H
	DB	015H
	DB	015H
	DB	015H
	DB	015H
	DB	015H
	DB	015H
	DB	015H
	DB	015H
	DB	015H
	DB	015H
	DB	015H
	DB	015H
	DB	015H
	DB	015H
	DB	015H
	DB	015H
	DB	015H
	DB	015H
	DB	015H
	DB	015H
	DB	015H
	DB	015H
	DB	015H
	DB	015H
	DB	015H
	DB	015H
	DB	015H
	DB	015H
	DB	015H
	DB	015H
	DB	015H
	DB	015H
	DB	015H
	DB	015H
	DB	015H
	DB	015H
	DB	015H
	DB	015H
	DB	015H
	DB	015H
	DB	015H
	DB	015H
	DB	015H
	DB	01cH
	DB	046H
	DB	023H
	DB	0c6H
	DB	0eH
	DB	0b2H
	DB	09H
	DB	0c5H
	DB	0daH
	DB	0afH
	DB	034H
	DB	0afH
	DB	0cdH
	DB	0eH
	DB	0eH
	DB	0c7H
	DB	03H
	DB	0a7H
	DB	03H
	DB	0daH
	DB	0eH
	DB	09H
	DB	0a7H
	DB	0a7H
	DB	0c5H
	DB	0eH
	DB	0d9H
	DB	08eH
	DB	01H
	DB	01H
	DB	01H
	DB	01H
	DB	01H
	DB	01H
	DB	01H
	DB	01H
	DB	01H
	DB	01H
	DB	02bH
	DB	017H
	DB	019H
	DB	03cH
	DB	0f4H
	DB	019H
	DB	0f4H
	DB	01bH
	DB	01H
	DB	01H
	DB	01H
	DB	01H
	DB	01H
	DB	03cH
	DB	017H
	DB	017H
	DB	028H
	DB	01H
	DB	01H
	DB	01H
	DB	01H
	DB	048H
	DB	03cH
	DB	0bH
	DB	02H
	DB	019H
	DB	02H
	DB	0fH
	DB	060H
	DB	016H
	DB	01H
	DB	01H
	DB	01H
	DB	028H
	DB	02H
	DB	0bH
	DB	03fH
	DB	016H
	DB	01fH
	DB	017H
	DB	028H
	DB	01H
	DB	01bH
	DB	0bH
	DB	0bH
	DB	03cH
	DB	01H
	DB	028H
	DB	0bH
	DB	02H
	DB	02H
	DB	0fH
	DB	043H
	DB	01H
	DB	043H
	DB	0dH
	DB	0bH
	DB	02H
	DB	0bH
	DB	028H
	DB	01H
	DB	01H
	DB	01H
	DB	01H
	DB	01H
	DB	01H
	DB	01H
	DB	01H
	DB	01H
	DB	01H
	DB	01H
	DB	01H
	DB	03cH
	DB	017H
	DB	0dH
	DB	0fH
	DB	019H
	DB	017H
	DB	01fH
	DB	01H
	DB	01H
	DB	01H
	DB	01H
	DB	01H
	DB	043H
	DB	017H
	DB	019H
	DB	0fH
	DB	06bH
	DB	028H
	DB	0bH
	DB	02H
	DB	02H
	DB	03cH
	DB	035H
	DB	01H
	DB	01H
	DB	01H
	DB	01H
	DB	01H
	DB	03bH
	DB	0dH
	DB	0bH
	DB	019H
	DB	019H
	DB	0bH
	DB	03cH
	DB	02bH
	DB	01H
	DB	01H
	DB	01H
	DB	01fH
	DB	02H
	DB	0bH
	DB	0dH
	DB	016H
	DB	01H
	DB	01H
	DB	01H
	DB	01H
	DB	016H
	DB	0dH
	DB	0f4H
	DB	03fH
	DB	01H
	DB	01H
	DB	01H
	DB	043H
	DB	0dH
	DB	0bH
	DB	019H
	DB	019H
	DB	0bH
	DB	01fH
	DB	035H
	DB	01H
	DB	01H
	DB	01H
	DB	01H
	DB	01H
	DB	01H
	DB	01H
	DB	01H
	DB	01H
	DB	01H
	DB	01H
	DB	01H
	DB	01H
	DB	01H
	DB	01H
	DB	06bH
	DB	017H
	DB	0f4H
	DB	017H
	DB	02bH
	DB	01H
	DB	01H
	DB	01H
	DB	01H
	DB	01H
	DB	01H
	DB	01H
	DB	01H
	DB	016H
	DB	02H
	DB	019H
	DB	017H
	DB	028H
	DB	01H
	DB	01H
	DB	028H
	DB	017H
	DB	017H
	DB	03cH
	DB	01H
	DB	01H
	DB	01H
	DB	06bH
	DB	019H
	DB	019H
	DB	019H
	DB	06bH
	DB	01H
	DB	01H
	DB	01H
	DB	01H
	DB	01H
	DB	0cdH
	DB	08H
	DB	0a9H
	DB	0eH
	DB	0c5H
	DB	0a7H
	DB	03H
	DB	0a9H
	DB	0eH
	DB	0a9H
	DB	03H
	DB	0a7H
	DB	0c5H
	DB	08bH
	DB	0eH
	DB	09H
	DB	09bH
	DB	0bbH
	DB	0c2H
	DB	05bH
	DB	015H
	DB	015H
	DB	015H
	DB	015H
	DB	015H
	DB	015H
	DB	015H
	DB	015H
	DB	015H
	DB	015H
	DB	015H
	DB	015H
	DB	015H
	DB	015H
	DB	015H
	DB	015H
	DB	015H
	DB	015H
	DB	015H
	DB	015H
	DB	015H
	DB	015H
	DB	015H
	DB	015H
	DB	015H
	DB	015H
	DB	015H
	DB	015H
	DB	015H
	DB	015H
	DB	015H
	DB	015H
	DB	015H
	DB	015H
	DB	015H
	DB	015H
	DB	015H
	DB	015H
	DB	015H
	DB	015H
	DB	015H
	DB	015H
	DB	015H
	DB	015H
	DB	015H
	DB	015H
	DB	015H
	DB	015H
	DB	015H
	DB	015H
	DB	015H
	DB	015H
	DB	015H
	DB	015H
	DB	015H
	DB	015H
	DB	015H
	DB	015H
	DB	015H
	DB	015H
	DB	015H
	DB	015H
	DB	015H
	DB	015H
	DB	015H
	DB	015H
	DB	015H
	DB	015H
	DB	015H
	DB	015H
	DB	015H
	DB	015H
	DB	015H
	DB	015H
	DB	015H
	DB	015H
	DB	015H
	DB	015H
	DB	015H
	DB	015H
	DB	015H
	DB	015H
	DB	015H
	DB	015H
	DB	015H
	DB	015H
	DB	015H
	DB	015H
	DB	015H
	DB	015H
	DB	015H
	DB	015H
	DB	015H
	DB	015H
	DB	015H
	DB	015H
	DB	015H
	DB	015H
	DB	015H
	DB	015H
	DB	015H
	DB	015H
	DB	015H
	DB	015H
	DB	015H
	DB	015H
	DB	015H
	DB	015H
	DB	015H
	DB	015H
	DB	015H
	DB	015H
	DB	015H
	DB	015H
	DB	015H
	DB	015H
	DB	015H
	DB	015H
	DB	015H
	DB	015H
	DB	015H
	DB	015H
	DB	015H
	DB	015H
	DB	015H
	DB	015H
	DB	015H
	DB	015H
	DB	015H
	DB	015H
	DB	015H
	DB	015H
	DB	015H
	DB	015H
	DB	015H
	DB	015H
	DB	015H
	DB	015H
	DB	015H
	DB	015H
	DB	015H
	DB	015H
	DB	015H
	DB	015H
	DB	015H
	DB	015H
	DB	015H
	DB	015H
	DB	015H
	DB	015H
	DB	015H
	DB	015H
	DB	015H
	DB	015H
	DB	015H
	DB	015H
	DB	015H
	DB	015H
	DB	015H
	DB	015H
	DB	015H
	DB	015H
	DB	015H
	DB	015H
	DB	015H
	DB	015H
	DB	015H
	DB	015H
	DB	015H
	DB	015H
	DB	015H
	DB	015H
	DB	015H
	DB	015H
	DB	015H
	DB	015H
	DB	015H
	DB	015H
	DB	015H
	DB	015H
	DB	015H
	DB	015H
	DB	015H
	DB	015H
	DB	015H
	DB	015H
	DB	015H
	DB	015H
	DB	015H
	DB	015H
	DB	015H
	DB	015H
	DB	015H
	DB	015H
	DB	015H
	DB	015H
	DB	015H
	DB	015H
	DB	015H
	DB	015H
	DB	015H
	DB	015H
	DB	015H
	DB	015H
	DB	015H
	DB	015H
	DB	015H
	DB	015H
	DB	015H
	DB	015H
	DB	015H
	DB	015H
	DB	015H
	DB	015H
	DB	015H
	DB	015H
	DB	015H
	DB	015H
	DB	015H
	DB	015H
	DB	015H
	DB	015H
	DB	015H
	DB	015H
	DB	015H
	DB	018H
	DB	045H
	DB	023H
	DB	03H
	DB	08bH
	DB	0eH
	DB	0c5H
	DB	09bH
	DB	09H
	DB	0d7H
	DB	034H
	DB	0afH
	DB	07H
	DB	08bH
	DB	09H
	DB	09H
	DB	09H
	DB	09H
	DB	09H
	DB	09H
	DB	09H
	DB	09H
	DB	09H
	DB	09H
	DB	09H
	DB	09H
	DB	0d7H
	DB	08eH
	DB	01H
	DB	01H
	DB	01H
	DB	01H
	DB	01H
	DB	01H
	DB	01H
	DB	01H
	DB	01H
	DB	01H
	DB	022H
	DB	017H
	DB	0bH
	DB	01bH
	DB	0dH
	DB	019H
	DB	017H
	DB	028H
	DB	01H
	DB	01H
	DB	01H
	DB	01H
	DB	01H
	DB	03cH
	DB	017H
	DB	017H
	DB	028H
	DB	01H
	DB	01H
	DB	01H
	DB	01H
	DB	0fH
	DB	017H
	DB	0bH
	DB	0fH
	DB	0bH
	DB	017H
	DB	017H
	DB	017H
	DB	03fH
	DB	01H
	DB	01H
	DB	01H
	DB	022H
	DB	017H
	DB	017H
	DB	0dH
	DB	060H
	DB	017H
	DB	017H
	DB	028H
	DB	01H
	DB	01bH
	DB	017H
	DB	017H
	DB	0fH
	DB	01fH
	DB	017H
	DB	017H
	DB	017H
	DB	019H
	DB	017H
	DB	0bH
	DB	055H
	DB	019H
	DB	017H
	DB	017H
	DB	019H
	DB	019H
	DB	017H
	DB	048H
	DB	01H
	DB	01H
	DB	01H
	DB	01H
	DB	01H
	DB	01H
	DB	01H
	DB	01H
	DB	01H
	DB	01H
	DB	06bH
	DB	0bH
	DB	017H
	DB	022H
	DB	048H
	DB	017H
	DB	019H
	DB	0fH
	DB	035H
	DB	01H
	DB	01H
	DB	01H
	DB	01H
	DB	043H
	DB	017H
	DB	019H
	DB	0bH
	DB	0dH
	DB	017H
	DB	02H
	DB	017H
	DB	019H
	DB	017H
	DB	0dH
	DB	016H
	DB	01H
	DB	01H
	DB	016H
	DB	095H
	DB	017H
	DB	017H
	DB	019H
	DB	0fH
	DB	0fH
	DB	017H
	DB	017H
	DB	017H
	DB	03bH
	DB	01H
	DB	01H
	DB	043H
	DB	017H
	DB	019H
	DB	017H
	DB	043H
	DB	01H
	DB	01H
	DB	01H
	DB	01H
	DB	043H
	DB	017H
	DB	017H
	DB	048H
	DB	01H
	DB	01H
	DB	055H
	DB	017H
	DB	017H
	DB	0bH
	DB	03fH
	DB	0dH
	DB	017H
	DB	017H
	DB	0bH
	DB	06bH
	DB	01H
	DB	01H
	DB	01H
	DB	01H
	DB	01H
	DB	01H
	DB	01H
	DB	01H
	DB	01H
	DB	01H
	DB	01H
	DB	01H
	DB	01H
	DB	01H
	DB	043H
	DB	017H
	DB	019H
	DB	017H
	DB	01bH
	DB	01H
	DB	01H
	DB	01H
	DB	01H
	DB	01H
	DB	01H
	DB	01H
	DB	01H
	DB	06bH
	DB	0f4H
	DB	019H
	DB	017H
	DB	03bH
	DB	01H
	DB	01H
	DB	03cH
	DB	017H
	DB	017H
	DB	01fH
	DB	01H
	DB	01H
	DB	01H
	DB	035H
	DB	0fH
	DB	019H
	DB	017H
	DB	048H
	DB	01H
	DB	01H
	DB	01H
	DB	01H
	DB	01H
	DB	0cdH
	DB	08H
	DB	0c5H
	DB	09H
	DB	09H
	DB	09H
	DB	09H
	DB	09H
	DB	09H
	DB	09H
	DB	09H
	DB	09H
	DB	09H
	DB	09H
	DB	09H
	DB	09H
	DB	0c6H
	DB	04dH
	DB	0c2H
	DB	05bH
	DB	015H
	DB	015H
	DB	015H
	DB	015H
	DB	015H
	DB	015H
	DB	015H
	DB	015H
	DB	015H
	DB	015H
	DB	015H
	DB	015H
	DB	015H
	DB	015H
	DB	015H
	DB	015H
	DB	015H
	DB	015H
	DB	015H
	DB	015H
	DB	015H
	DB	015H
	DB	015H
	DB	015H
	DB	015H
	DB	015H
	DB	015H
	DB	015H
	DB	015H
	DB	015H
	DB	015H
	DB	015H
	DB	015H
	DB	015H
	DB	015H
	DB	015H
	DB	015H
	DB	015H
	DB	015H
	DB	015H
	DB	015H
	DB	015H
	DB	015H
	DB	015H
	DB	015H
	DB	015H
	DB	015H
	DB	015H
	DB	015H
	DB	015H
	DB	015H
	DB	015H
	DB	015H
	DB	015H
	DB	015H
	DB	015H
	DB	015H
	DB	015H
	DB	015H
	DB	015H
	DB	015H
	DB	015H
	DB	015H
	DB	015H
	DB	015H
	DB	015H
	DB	015H
	DB	015H
	DB	015H
	DB	015H
	DB	015H
	DB	015H
	DB	015H
	DB	015H
	DB	015H
	DB	015H
	DB	015H
	DB	015H
	DB	015H
	DB	015H
	DB	015H
	DB	015H
	DB	015H
	DB	015H
	DB	015H
	DB	015H
	DB	015H
	DB	015H
	DB	015H
	DB	015H
	DB	015H
	DB	015H
	DB	015H
	DB	015H
	DB	015H
	DB	015H
	DB	015H
	DB	015H
	DB	015H
	DB	015H
	DB	015H
	DB	015H
	DB	015H
	DB	015H
	DB	015H
	DB	015H
	DB	015H
	DB	015H
	DB	015H
	DB	015H
	DB	015H
	DB	015H
	DB	015H
	DB	015H
	DB	015H
	DB	015H
	DB	015H
	DB	015H
	DB	015H
	DB	015H
	DB	015H
	DB	015H
	DB	015H
	DB	015H
	DB	015H
	DB	015H
	DB	015H
	DB	015H
	DB	015H
	DB	015H
	DB	015H
	DB	015H
	DB	015H
	DB	015H
	DB	015H
	DB	015H
	DB	015H
	DB	015H
	DB	015H
	DB	015H
	DB	015H
	DB	015H
	DB	015H
	DB	015H
	DB	015H
	DB	015H
	DB	015H
	DB	015H
	DB	015H
	DB	015H
	DB	015H
	DB	015H
	DB	015H
	DB	015H
	DB	015H
	DB	015H
	DB	015H
	DB	015H
	DB	015H
	DB	015H
	DB	015H
	DB	015H
	DB	015H
	DB	015H
	DB	015H
	DB	015H
	DB	015H
	DB	015H
	DB	015H
	DB	015H
	DB	015H
	DB	015H
	DB	015H
	DB	015H
	DB	015H
	DB	015H
	DB	015H
	DB	015H
	DB	015H
	DB	015H
	DB	015H
	DB	015H
	DB	015H
	DB	015H
	DB	015H
	DB	015H
	DB	015H
	DB	015H
	DB	015H
	DB	015H
	DB	015H
	DB	015H
	DB	015H
	DB	015H
	DB	015H
	DB	015H
	DB	015H
	DB	015H
	DB	015H
	DB	015H
	DB	015H
	DB	015H
	DB	015H
	DB	015H
	DB	015H
	DB	015H
	DB	015H
	DB	015H
	DB	015H
	DB	015H
	DB	015H
	DB	015H
	DB	015H
	DB	015H
	DB	015H
	DB	015H
	DB	015H
	DB	015H
	DB	015H
	DB	015H
	DB	015H
	DB	015H
	DB	015H
	DB	015H
	DB	05bH
	DB	018H
	DB	045H
	DB	023H
	DB	03H
	DB	09H
	DB	09H
	DB	09H
	DB	097H
	DB	0c7H
	DB	0d7H
	DB	034H
	DB	0afH
	DB	07H
	DB	0a9H
	DB	03H
	DB	0c5H
	DB	0c7H
	DB	0eH
	DB	0c7H
	DB	0c5H
	DB	03H
	DB	09H
	DB	0eH
	DB	0eH
	DB	09H
	DB	03H
	DB	07H
	DB	08eH
	DB	01H
	DB	01H
	DB	01H
	DB	01H
	DB	01H
	DB	01H
	DB	01H
	DB	01H
	DB	01H
	DB	016H
	DB	0dH
	DB	017H
	DB	03cH
	DB	01H
	DB	022H
	DB	017H
	DB	019H
	DB	0dH
	DB	016H
	DB	01H
	DB	01H
	DB	01H
	DB	01H
	DB	03cH
	DB	017H
	DB	017H
	DB	028H
	DB	01H
	DB	01H
	DB	01H
	DB	01H
	DB	043H
	DB	01bH
	DB	035H
	DB	016H
	DB	016H
	DB	048H
	DB	0bH
	DB	019H
	DB	017H
	DB	01bH
	DB	01H
	DB	01H
	DB	022H
	DB	017H
	DB	019H
	DB	02H
	DB	02H
	DB	017H
	DB	017H
	DB	028H
	DB	01H
	DB	01bH
	DB	017H
	DB	0f4H
	DB	019H
	DB	0f4H
	DB	022H
	DB	048H
	DB	01fH
	DB	019H
	DB	0f4H
	DB	019H
	DB	017H
	DB	0dH
	DB	03bH
	DB	028H
	DB	0bH
	DB	019H
	DB	017H
	DB	0dH
	DB	01H
	DB	01H
	DB	01H
	DB	01H
	DB	01H
	DB	01H
	DB	01H
	DB	01H
	DB	01H
	DB	01H
	DB	048H
	DB	017H
	DB	019H
	DB	02bH
	DB	035H
	DB	019H
	DB	019H
	DB	017H
	DB	043H
	DB	01H
	DB	01H
	DB	01H
	DB	01H
	DB	043H
	DB	017H
	DB	0f4H
	DB	019H
	DB	0fH
	DB	043H
	DB	06bH
	DB	028H
	DB	019H
	DB	019H
	DB	017H
	DB	03bH
	DB	01H
	DB	01H
	DB	028H
	DB	017H
	DB	019H
	DB	0bH
	DB	043H
	DB	01H
	DB	01H
	DB	028H
	DB	017H
	DB	019H
	DB	019H
	DB	01bH
	DB	01H
	DB	016H
	DB	0dH
	DB	017H
	DB	017H
	DB	03fH
	DB	01H
	DB	01H
	DB	01H
	DB	01H
	DB	03fH
	DB	017H
	DB	0fH
	DB	016H
	DB	01H
	DB	01bH
	DB	019H
	DB	017H
	DB	0bH
	DB	06bH
	DB	01H
	DB	01H
	DB	022H
	DB	017H
	DB	017H
	DB	03cH
	DB	01H
	DB	01H
	DB	01H
	DB	01H
	DB	01H
	DB	01H
	DB	01H
	DB	01H
	DB	01H
	DB	01H
	DB	01H
	DB	01H
	DB	01H
	DB	01H
	DB	03fH
	DB	017H
	DB	019H
	DB	0bH
	DB	035H
	DB	01H
	DB	01H
	DB	01H
	DB	01H
	DB	01H
	DB	01H
	DB	01H
	DB	01H
	DB	022H
	DB	017H
	DB	019H
	DB	019H
	DB	01bH
	DB	01H
	DB	016H
	DB	0fH
	DB	019H
	DB	017H
	DB	060H
	DB	01H
	DB	01H
	DB	01H
	DB	016H
	DB	0dH
	DB	017H
	DB	017H
	DB	055H
	DB	01H
	DB	01H
	DB	01H
	DB	01H
	DB	01H
	DB	0cdH
	DB	08H
	DB	0a7H
	DB	03H
	DB	0a9H
	DB	0eH
	DB	0eH
	DB	0c5H
	DB	03H
	DB	0c5H
	DB	08bH
	DB	0eH
	DB	0a9H
	DB	03H
	DB	03H
	DB	09H
	DB	0c7H
	DB	04dH
	DB	0c2H
	DB	014H
	DB	05bH
	DB	05bH
	DB	05bH
	DB	05bH
	DB	05bH
	DB	05bH
	DB	05bH
	DB	05bH
	DB	05bH
	DB	05bH
	DB	05bH
	DB	05bH
	DB	05bH
	DB	05bH
	DB	05bH
	DB	05bH
	DB	05bH
	DB	05bH
	DB	05bH
	DB	05bH
	DB	05bH
	DB	05bH
	DB	05bH
	DB	05bH
	DB	05bH
	DB	05bH
	DB	05bH
	DB	05bH
	DB	05bH
	DB	05bH
	DB	05bH
	DB	05bH
	DB	05bH
	DB	05bH
	DB	05bH
	DB	05bH
	DB	05bH
	DB	05bH
	DB	05bH
	DB	05bH
	DB	05bH
	DB	05bH
	DB	05bH
	DB	05bH
	DB	05bH
	DB	05bH
	DB	05bH
	DB	05bH
	DB	05bH
	DB	05bH
	DB	05bH
	DB	05bH
	DB	05bH
	DB	05bH
	DB	05bH
	DB	05bH
	DB	05bH
	DB	05bH
	DB	05bH
	DB	05bH
	DB	05bH
	DB	05bH
	DB	05bH
	DB	014H
	DB	014H
	DB	014H
	DB	014H
	DB	014H
	DB	014H
	DB	014H
	DB	014H
	DB	014H
	DB	014H
	DB	014H
	DB	014H
	DB	05bH
	DB	05bH
	DB	05bH
	DB	05bH
	DB	05bH
	DB	05bH
	DB	05bH
	DB	05bH
	DB	05bH
	DB	05bH
	DB	05bH
	DB	05bH
	DB	05bH
	DB	05bH
	DB	05bH
	DB	05bH
	DB	05bH
	DB	05bH
	DB	05bH
	DB	05bH
	DB	05bH
	DB	05bH
	DB	05bH
	DB	05bH
	DB	05bH
	DB	05bH
	DB	05bH
	DB	05bH
	DB	05bH
	DB	05bH
	DB	05bH
	DB	05bH
	DB	05bH
	DB	05bH
	DB	014H
	DB	014H
	DB	014H
	DB	014H
	DB	05bH
	DB	05bH
	DB	05bH
	DB	05bH
	DB	05bH
	DB	05bH
	DB	05bH
	DB	05bH
	DB	05bH
	DB	05bH
	DB	05bH
	DB	05bH
	DB	014H
	DB	014H
	DB	014H
	DB	014H
	DB	05bH
	DB	05bH
	DB	05bH
	DB	05bH
	DB	05bH
	DB	05bH
	DB	05bH
	DB	05bH
	DB	05bH
	DB	05bH
	DB	05bH
	DB	05bH
	DB	05bH
	DB	05bH
	DB	05bH
	DB	05bH
	DB	05bH
	DB	05bH
	DB	05bH
	DB	05bH
	DB	05bH
	DB	05bH
	DB	05bH
	DB	05bH
	DB	05bH
	DB	05bH
	DB	05bH
	DB	014H
	DB	014H
	DB	014H
	DB	014H
	DB	0b8H
	DB	05bH
	DB	05bH
	DB	05bH
	DB	05bH
	DB	05bH
	DB	05bH
	DB	05bH
	DB	05bH
	DB	05bH
	DB	05bH
	DB	05bH
	DB	05bH
	DB	05bH
	DB	05bH
	DB	05bH
	DB	05bH
	DB	05bH
	DB	05bH
	DB	05bH
	DB	05bH
	DB	05bH
	DB	05bH
	DB	05bH
	DB	05bH
	DB	05bH
	DB	05bH
	DB	05bH
	DB	05bH
	DB	05bH
	DB	05bH
	DB	05bH
	DB	05bH
	DB	05bH
	DB	05bH
	DB	05bH
	DB	05bH
	DB	05bH
	DB	05bH
	DB	05bH
	DB	05bH
	DB	05bH
	DB	05bH
	DB	05bH
	DB	05bH
	DB	05bH
	DB	05bH
	DB	05bH
	DB	05bH
	DB	05bH
	DB	05bH
	DB	05bH
	DB	05bH
	DB	05bH
	DB	05bH
	DB	05bH
	DB	05bH
	DB	05bH
	DB	05bH
	DB	05bH
	DB	05bH
	DB	05bH
	DB	05bH
	DB	05bH
	DB	05bH
	DB	026H
	DB	045H
	DB	0c4H
	DB	03H
	DB	03H
	DB	03H
	DB	0a9H
	DB	0eH
	DB	0b2H
	DB	0d7H
	DB	034H
	DB	0afH
	DB	07H
	DB	09H
	DB	09bH
	DB	0a7H
	DB	09H
	DB	0daH
	DB	09H
	DB	03H
	DB	0a7H
	DB	03H
	DB	0a9H
	DB	0a9H
	DB	0c5H
	DB	0a7H
	DB	07H
	DB	0caH
	DB	01H
	DB	01H
	DB	01H
	DB	01H
	DB	01H
	DB	01H
	DB	01H
	DB	01H
	DB	01H
	DB	01bH
	DB	017H
	DB	017H
	DB	028H
	DB	01H
	DB	043H
	DB	019H
	DB	019H
	DB	019H
	DB	06bH
	DB	01H
	DB	01H
	DB	01H
	DB	01H
	DB	03cH
	DB	017H
	DB	017H
	DB	028H
	DB	01H
	DB	01H
	DB	01H
	DB	01H
	DB	01H
	DB	01H
	DB	016H
	DB	016H
	DB	01H
	DB	01H
	DB	0dH
	DB	017H
	DB	017H
	DB	03bH
	DB	01H
	DB	01H
	DB	022H
	DB	017H
	DB	0f4H
	DB	019H
	DB	017H
	DB	060H
	DB	06bH
	DB	01H
	DB	01H
	DB	01bH
	DB	017H
	DB	019H
	DB	0f4H
	DB	043H
	DB	01H
	DB	01H
	DB	01H
	DB	0dH
	DB	019H
	DB	017H
	DB	0dH
	DB	016H
	DB	01H
	DB	01H
	DB	028H
	DB	017H
	DB	017H
	DB	0fH
	DB	016H
	DB	01H
	DB	01H
	DB	01H
	DB	01H
	DB	01H
	DB	01H
	DB	01H
	DB	01H
	DB	01H
	DB	03cH
	DB	017H
	DB	0bH
	DB	016H
	DB	01H
	DB	03cH
	DB	017H
	DB	017H
	DB	01fH
	DB	01H
	DB	01H
	DB	01H
	DB	01H
	DB	043H
	DB	017H
	DB	0f4H
	DB	017H
	DB	048H
	DB	01H
	DB	01H
	DB	01H
	DB	03cH
	DB	017H
	DB	017H
	DB	01fH
	DB	01H
	DB	016H
	DB	0fH
	DB	019H
	DB	017H
	DB	028H
	DB	01H
	DB	01H
	DB	01H
	DB	01H
	DB	03cH
	DB	017H
	DB	017H
	DB	01fH
	DB	01H
	DB	01H
	DB	028H
	DB	017H
	DB	019H
	DB	0bH
	DB	035H
	DB	01H
	DB	01H
	DB	06bH
	DB	02H
	DB	017H
	DB	028H
	DB	01H
	DB	01H
	DB	01fH
	DB	017H
	DB	017H
	DB	022H
	DB	01H
	DB	01H
	DB	01H
	DB	035H
	DB	0bH
	DB	017H
	DB	019H
	DB	06bH
	DB	01H
	DB	01H
	DB	01H
	DB	01H
	DB	01H
	DB	01H
	DB	01H
	DB	01H
	DB	01H
	DB	01H
	DB	01H
	DB	01H
	DB	043H
	DB	019H
	DB	019H
	DB	017H
	DB	022H
	DB	01H
	DB	01H
	DB	01H
	DB	01H
	DB	01H
	DB	01H
	DB	01H
	DB	01H
	DB	06bH
	DB	0bH
	DB	019H
	DB	017H
	DB	03cH
	DB	01H
	DB	01H
	DB	016H
	DB	02H
	DB	019H
	DB	017H
	DB	060H
	DB	01H
	DB	01H
	DB	01H
	DB	016H
	DB	0fH
	DB	017H
	DB	017H
	DB	022H
	DB	01H
	DB	01H
	DB	01H
	DB	01H
	DB	01H
	DB	0cdH
	DB	0dfH
	DB	09bH
	DB	0a7H
	DB	097H
	DB	0a9H
	DB	09H
	DB	03H
	DB	09bH
	DB	03H
	DB	09H
	DB	0daH
	DB	09H
	DB	0a7H
	DB	0a7H
	DB	0c5H
	DB	09H
	DB	04dH
	DB	0efH
	DB	014H
	DB	05bH
	DB	05bH
	DB	05bH
	DB	05bH
	DB	05bH
	DB	05bH
	DB	05bH
	DB	05bH
	DB	05bH
	DB	05bH
	DB	05bH
	DB	05bH
	DB	05bH
	DB	05bH
	DB	05bH
	DB	05bH
	DB	05bH
	DB	05bH
	DB	05bH
	DB	05bH
	DB	05bH
	DB	05bH
	DB	05bH
	DB	05bH
	DB	05bH
	DB	05bH
	DB	05bH
	DB	05bH
	DB	05bH
	DB	05bH
	DB	05bH
	DB	05bH
	DB	05bH
	DB	05bH
	DB	05bH
	DB	05bH
	DB	05bH
	DB	05bH
	DB	05bH
	DB	05bH
	DB	05bH
	DB	05bH
	DB	05bH
	DB	05bH
	DB	05bH
	DB	05bH
	DB	05bH
	DB	05bH
	DB	05bH
	DB	05bH
	DB	05bH
	DB	05bH
	DB	05bH
	DB	05bH
	DB	05bH
	DB	05bH
	DB	05bH
	DB	05bH
	DB	05bH
	DB	05bH
	DB	05bH
	DB	05bH
	DB	05bH
	DB	018H
	DB	079H
	DB	079H
	DB	079H
	DB	079H
	DB	079H
	DB	079H
	DB	079H
	DB	079H
	DB	079H
	DB	079H
	DB	079H
	DB	015H
	DB	014H
	DB	05bH
	DB	05bH
	DB	05bH
	DB	05bH
	DB	05bH
	DB	05bH
	DB	05bH
	DB	05bH
	DB	05bH
	DB	05bH
	DB	05bH
	DB	05bH
	DB	05bH
	DB	05bH
	DB	05bH
	DB	05bH
	DB	05bH
	DB	05bH
	DB	05bH
	DB	05bH
	DB	05bH
	DB	05bH
	DB	05bH
	DB	05bH
	DB	05bH
	DB	05bH
	DB	05bH
	DB	05bH
	DB	05bH
	DB	05bH
	DB	0b8H
	DB	05bH
	DB	0e4H
	DB	079H
	DB	079H
	DB	0e4H
	DB	05bH
	DB	0b8H
	DB	05bH
	DB	05bH
	DB	05bH
	DB	05bH
	DB	05bH
	DB	05bH
	DB	05bH
	DB	05bH
	DB	05bH
	DB	0b8H
	DB	0a1H
	DB	079H
	DB	079H
	DB	0e2H
	DB	015H
	DB	0b8H
	DB	05bH
	DB	05bH
	DB	05bH
	DB	05bH
	DB	05bH
	DB	05bH
	DB	05bH
	DB	05bH
	DB	05bH
	DB	05bH
	DB	05bH
	DB	05bH
	DB	05bH
	DB	05bH
	DB	05bH
	DB	05bH
	DB	05bH
	DB	05bH
	DB	05bH
	DB	05bH
	DB	05bH
	DB	05bH
	DB	05bH
	DB	05bH
	DB	05bH
	DB	024H
	DB	079H
	DB	079H
	DB	079H
	DB	018H
	DB	014H
	DB	05bH
	DB	05bH
	DB	05bH
	DB	05bH
	DB	05bH
	DB	05bH
	DB	05bH
	DB	05bH
	DB	05bH
	DB	05bH
	DB	05bH
	DB	05bH
	DB	05bH
	DB	05bH
	DB	05bH
	DB	05bH
	DB	05bH
	DB	05bH
	DB	05bH
	DB	05bH
	DB	05bH
	DB	05bH
	DB	05bH
	DB	05bH
	DB	05bH
	DB	05bH
	DB	05bH
	DB	05bH
	DB	05bH
	DB	05bH
	DB	05bH
	DB	05bH
	DB	05bH
	DB	05bH
	DB	05bH
	DB	05bH
	DB	05bH
	DB	05bH
	DB	05bH
	DB	05bH
	DB	05bH
	DB	05bH
	DB	05bH
	DB	05bH
	DB	05bH
	DB	05bH
	DB	05bH
	DB	05bH
	DB	05bH
	DB	05bH
	DB	05bH
	DB	05bH
	DB	05bH
	DB	05bH
	DB	05bH
	DB	05bH
	DB	05bH
	DB	05bH
	DB	05bH
	DB	05bH
	DB	05bH
	DB	05bH
	DB	0b8H
	DB	026H
	DB	045H
	DB	023H
	DB	0a7H
	DB	0a7H
	DB	0a7H
	DB	097H
	DB	0a9H
	DB	0eH
	DB	07H
	DB	034H
	DB	0afH
	DB	0cdH
	DB	0daH
	DB	09H
	DB	09H
	DB	097H
	DB	0c5H
	DB	097H
	DB	09H
	DB	09H
	DB	09H
	DB	097H
	DB	0c5H
	DB	097H
	DB	09H
	DB	0d7H
	DB	08eH
	DB	01H
	DB	01H
	DB	01H
	DB	01H
	DB	01H
	DB	01H
	DB	01H
	DB	01H
	DB	01H
	DB	022H
	DB	017H
	DB	019H
	DB	06bH
	DB	01H
	DB	016H
	DB	0fH
	DB	019H
	DB	017H
	DB	022H
	DB	01H
	DB	01H
	DB	01H
	DB	01H
	DB	03cH
	DB	017H
	DB	017H
	DB	028H
	DB	01H
	DB	01H
	DB	01H
	DB	01H
	DB	048H
	DB	03cH
	DB	0fH
	DB	0bH
	DB	0dH
	DB	03bH
	DB	0dH
	DB	017H
	DB	017H
	DB	028H
	DB	01H
	DB	01H
	DB	022H
	DB	017H
	DB	0f4H
	DB	017H
	DB	022H
	DB	01H
	DB	01H
	DB	01H
	DB	01H
	DB	01bH
	DB	017H
	DB	019H
	DB	0bH
	DB	035H
	DB	01H
	DB	01H
	DB	01H
	DB	03cH
	DB	017H
	DB	017H
	DB	060H
	DB	01H
	DB	01H
	DB	01H
	DB	03bH
	DB	017H
	DB	017H
	DB	0fH
	DB	016H
	DB	01H
	DB	01H
	DB	01H
	DB	01H
	DB	01H
	DB	01H
	DB	01H
	DB	01H
	DB	035H
	DB	02H
	DB	017H
	DB	01fH
	DB	01H
	DB	01H
	DB	03bH
	DB	017H
	DB	019H
	DB	0bH
	DB	035H
	DB	01H
	DB	01H
	DB	01H
	DB	043H
	DB	017H
	DB	019H
	DB	02H
	DB	06bH
	DB	01H
	DB	01H
	DB	01H
	DB	028H
	DB	017H
	DB	017H
	DB	0dH
	DB	01H
	DB	01bH
	DB	019H
	DB	019H
	DB	0f4H
	DB	01bH
	DB	01H
	DB	01H
	DB	01H
	DB	01H
	DB	022H
	DB	017H
	DB	019H
	DB	0fH
	DB	016H
	DB	01H
	DB	035H
	DB	02H
	DB	019H
	DB	017H
	DB	055H
	DB	01H
	DB	01H
	DB	028H
	DB	017H
	DB	0bH
	DB	035H
	DB	01H
	DB	016H
	DB	0bH
	DB	019H
	DB	017H
	DB	03bH
	DB	01H
	DB	01H
	DB	01H
	DB	016H
	DB	03cH
	DB	017H
	DB	017H
	DB	048H
	DB	01H
	DB	01H
	DB	01H
	DB	01H
	DB	01H
	DB	01H
	DB	01H
	DB	01H
	DB	01H
	DB	01H
	DB	01H
	DB	06bH
	DB	0bH
	DB	019H
	DB	019H
	DB	0bH
	DB	035H
	DB	01H
	DB	01H
	DB	01H
	DB	01H
	DB	01H
	DB	01H
	DB	01H
	DB	016H
	DB	0dH
	DB	017H
	DB	019H
	DB	019H
	DB	01bH
	DB	01H
	DB	01H
	DB	016H
	DB	02H
	DB	019H
	DB	017H
	DB	060H
	DB	01H
	DB	01H
	DB	01H
	DB	016H
	DB	0fH
	DB	017H
	DB	017H
	DB	022H
	DB	01H
	DB	01H
	DB	01H
	DB	01H
	DB	01H
	DB	0cdH
	DB	08H
	DB	0c5H
	DB	09H
	DB	09H
	DB	0c5H
	DB	097H
	DB	09H
	DB	09H
	DB	09H
	DB	097H
	DB	0c5H
	DB	097H
	DB	09H
	DB	09H
	DB	09H
	DB	0c5H
	DB	04dH
	DB	0efH
	DB	014H
	DB	014H
	DB	014H
	DB	014H
	DB	014H
	DB	014H
	DB	014H
	DB	014H
	DB	014H
	DB	014H
	DB	014H
	DB	014H
	DB	014H
	DB	014H
	DB	014H
	DB	014H
	DB	014H
	DB	014H
	DB	014H
	DB	014H
	DB	014H
	DB	014H
	DB	014H
	DB	014H
	DB	014H
	DB	014H
	DB	014H
	DB	014H
	DB	014H
	DB	014H
	DB	014H
	DB	014H
	DB	014H
	DB	014H
	DB	014H
	DB	014H
	DB	014H
	DB	014H
	DB	014H
	DB	014H
	DB	014H
	DB	014H
	DB	014H
	DB	014H
	DB	014H
	DB	014H
	DB	014H
	DB	014H
	DB	014H
	DB	014H
	DB	014H
	DB	014H
	DB	014H
	DB	014H
	DB	014H
	DB	014H
	DB	014H
	DB	014H
	DB	014H
	DB	014H
	DB	014H
	DB	014H
	DB	014H
	DB	063H
	DB	0b6H
	DB	0afH
	DB	07H
	DB	07H
	DB	07H
	DB	07H
	DB	07H
	DB	07H
	DB	07H
	DB	07H
	DB	07H
	DB	047H
	DB	0d3H
	DB	014H
	DB	014H
	DB	014H
	DB	014H
	DB	014H
	DB	014H
	DB	014H
	DB	014H
	DB	014H
	DB	014H
	DB	014H
	DB	014H
	DB	014H
	DB	014H
	DB	014H
	DB	014H
	DB	014H
	DB	014H
	DB	014H
	DB	014H
	DB	014H
	DB	014H
	DB	014H
	DB	014H
	DB	014H
	DB	014H
	DB	014H
	DB	014H
	DB	014H
	DB	014H
	DB	014H
	DB	014H
	DB	0e3H
	DB	0ccH
	DB	0d7H
	DB	0d7H
	DB	0ccH
	DB	0e3H
	DB	014H
	DB	014H
	DB	014H
	DB	014H
	DB	014H
	DB	014H
	DB	014H
	DB	014H
	DB	014H
	DB	014H
	DB	0d4H
	DB	0ccH
	DB	0d7H
	DB	07H
	DB	013H
	DB	0d3H
	DB	014H
	DB	014H
	DB	014H
	DB	014H
	DB	014H
	DB	014H
	DB	014H
	DB	014H
	DB	014H
	DB	014H
	DB	014H
	DB	014H
	DB	014H
	DB	014H
	DB	014H
	DB	014H
	DB	014H
	DB	014H
	DB	014H
	DB	014H
	DB	014H
	DB	014H
	DB	014H
	DB	014H
	DB	014H
	DB	063H
	DB	0b7H
	DB	0afH
	DB	07H
	DB	07H
	DB	09fH
	DB	026H
	DB	014H
	DB	014H
	DB	014H
	DB	014H
	DB	014H
	DB	014H
	DB	014H
	DB	014H
	DB	014H
	DB	014H
	DB	014H
	DB	014H
	DB	014H
	DB	014H
	DB	014H
	DB	014H
	DB	014H
	DB	014H
	DB	014H
	DB	014H
	DB	014H
	DB	014H
	DB	014H
	DB	014H
	DB	014H
	DB	014H
	DB	014H
	DB	014H
	DB	014H
	DB	014H
	DB	014H
	DB	014H
	DB	014H
	DB	014H
	DB	014H
	DB	014H
	DB	014H
	DB	014H
	DB	014H
	DB	014H
	DB	014H
	DB	014H
	DB	014H
	DB	014H
	DB	014H
	DB	014H
	DB	014H
	DB	014H
	DB	014H
	DB	014H
	DB	014H
	DB	014H
	DB	014H
	DB	014H
	DB	014H
	DB	014H
	DB	014H
	DB	014H
	DB	014H
	DB	014H
	DB	014H
	DB	014H
	DB	014H
	DB	015H
	DB	045H
	DB	023H
	DB	03H
	DB	09H
	DB	09H
	DB	097H
	DB	0c5H
	DB	0a9H
	DB	0d7H
	DB	034H
	DB	0afH
	DB	0cdH
	DB	08bH
	DB	0a9H
	DB	0a9H
	DB	03H
	DB	0a7H
	DB	03H
	DB	0a9H
	DB	0c7H
	DB	09H
	DB	03H
	DB	03H
	DB	0c5H
	DB	0c7H
	DB	0d9H
	DB	08eH
	DB	01H
	DB	01H
	DB	01H
	DB	01H
	DB	01H
	DB	01H
	DB	01H
	DB	01H
	DB	01H
	DB	0fH
	DB	017H
	DB	0dH
	DB	016H
	DB	01H
	DB	01H
	DB	022H
	DB	017H
	DB	017H
	DB	0fH
	DB	016H
	DB	01H
	DB	01H
	DB	01H
	DB	03cH
	DB	017H
	DB	017H
	DB	028H
	DB	01H
	DB	01H
	DB	01H
	DB	060H
	DB	017H
	DB	017H
	DB	0bH
	DB	060H
	DB	01fH
	DB	02H
	DB	019H
	DB	0f4H
	DB	017H
	DB	055H
	DB	01H
	DB	01H
	DB	022H
	DB	017H
	DB	019H
	DB	0bH
	DB	035H
	DB	01H
	DB	01H
	DB	01H
	DB	01H
	DB	01bH
	DB	017H
	DB	019H
	DB	0bH
	DB	039H
	DB	01H
	DB	01H
	DB	01H
	DB	03cH
	DB	017H
	DB	017H
	DB	060H
	DB	01H
	DB	01H
	DB	01H
	DB	03bH
	DB	017H
	DB	017H
	DB	0fH
	DB	016H
	DB	01H
	DB	01H
	DB	01H
	DB	01H
	DB	01H
	DB	01H
	DB	01H
	DB	01H
	DB	03bH
	DB	017H
	DB	017H
	DB	043H
	DB	01H
	DB	01H
	DB	035H
	DB	0bH
	DB	019H
	DB	017H
	DB	03bH
	DB	01H
	DB	01H
	DB	01H
	DB	043H
	DB	017H
	DB	019H
	DB	0bH
	DB	035H
	DB	01H
	DB	01H
	DB	01H
	DB	055H
	DB	017H
	DB	019H
	DB	0bH
	DB	016H
	DB	048H
	DB	017H
	DB	019H
	DB	0bH
	DB	035H
	DB	01H
	DB	01H
	DB	01H
	DB	01H
	DB	03bH
	DB	017H
	DB	019H
	DB	0bH
	DB	035H
	DB	01H
	DB	01H
	DB	01fH
	DB	017H
	DB	017H
	DB	0dH
	DB	01H
	DB	016H
	DB	0fH
	DB	017H
	DB	01fH
	DB	01H
	DB	01H
	DB	06bH
	DB	02H
	DB	019H
	DB	019H
	DB	0fH
	DB	03cH
	DB	03cH
	DB	03cH
	DB	03cH
	DB	0bH
	DB	017H
	DB	017H
	DB	055H
	DB	01H
	DB	01H
	DB	01H
	DB	01H
	DB	01H
	DB	01H
	DB	01H
	DB	01H
	DB	01H
	DB	01H
	DB	035H
	DB	0fH
	DB	017H
	DB	019H
	DB	017H
	DB	048H
	DB	01H
	DB	01H
	DB	01H
	DB	01H
	DB	01H
	DB	01H
	DB	01H
	DB	016H
	DB	03cH
	DB	017H
	DB	0f4H
	DB	017H
	DB	028H
	DB	01H
	DB	01H
	DB	01H
	DB	016H
	DB	02H
	DB	019H
	DB	017H
	DB	060H
	DB	01H
	DB	01H
	DB	01H
	DB	016H
	DB	0dH
	DB	017H
	DB	017H
	DB	022H
	DB	01H
	DB	01H
	DB	01H
	DB	01H
	DB	01H
	DB	0cdH
	DB	08H
	DB	09H
	DB	0c7H
	DB	0c5H
	DB	0a7H
	DB	03H
	DB	09H
	DB	08bH
	DB	09H
	DB	03H
	DB	0a7H
	DB	0c5H
	DB	0a9H
	DB	0c7H
	DB	09H
	DB	0a7H
	DB	04dH
	DB	0efH
	DB	04H
	DB	014H
	DB	014H
	DB	014H
	DB	014H
	DB	014H
	DB	014H
	DB	014H
	DB	014H
	DB	014H
	DB	014H
	DB	014H
	DB	014H
	DB	014H
	DB	014H
	DB	014H
	DB	014H
	DB	014H
	DB	014H
	DB	014H
	DB	014H
	DB	014H
	DB	014H
	DB	014H
	DB	014H
	DB	014H
	DB	014H
	DB	014H
	DB	014H
	DB	014H
	DB	014H
	DB	014H
	DB	014H
	DB	014H
	DB	014H
	DB	014H
	DB	014H
	DB	014H
	DB	014H
	DB	014H
	DB	014H
	DB	014H
	DB	014H
	DB	014H
	DB	014H
	DB	014H
	DB	014H
	DB	014H
	DB	014H
	DB	014H
	DB	014H
	DB	014H
	DB	014H
	DB	014H
	DB	014H
	DB	014H
	DB	014H
	DB	014H
	DB	014H
	DB	014H
	DB	014H
	DB	014H
	DB	014H
	DB	063H
	DB	077H
	DB	05H
	DB	05H
	DB	05H
	DB	05H
	DB	05H
	DB	05H
	DB	05H
	DB	05H
	DB	05H
	DB	05H
	DB	07aH
	DB	0c8H
	DB	0b8H
	DB	014H
	DB	014H
	DB	014H
	DB	014H
	DB	014H
	DB	014H
	DB	014H
	DB	014H
	DB	014H
	DB	014H
	DB	014H
	DB	014H
	DB	014H
	DB	014H
	DB	014H
	DB	014H
	DB	014H
	DB	014H
	DB	014H
	DB	014H
	DB	014H
	DB	014H
	DB	014H
	DB	014H
	DB	014H
	DB	014H
	DB	014H
	DB	014H
	DB	014H
	DB	014H
	DB	014H
	DB	0beH
	DB	059H
	DB	05H
	DB	05H
	DB	059H
	DB	0beH
	DB	0b8H
	DB	014H
	DB	014H
	DB	014H
	DB	014H
	DB	014H
	DB	014H
	DB	014H
	DB	014H
	DB	014H
	DB	065H
	DB	059H
	DB	05H
	DB	05H
	DB	0fdH
	DB	0c8H
	DB	014H
	DB	014H
	DB	014H
	DB	014H
	DB	014H
	DB	014H
	DB	014H
	DB	014H
	DB	014H
	DB	014H
	DB	014H
	DB	014H
	DB	014H
	DB	014H
	DB	014H
	DB	014H
	DB	014H
	DB	014H
	DB	014H
	DB	014H
	DB	014H
	DB	014H
	DB	014H
	DB	014H
	DB	014H
	DB	088H
	DB	094H
	DB	05H
	DB	05H
	DB	05H
	DB	098H
	DB	0e4H
	DB	014H
	DB	014H
	DB	014H
	DB	014H
	DB	014H
	DB	014H
	DB	014H
	DB	014H
	DB	014H
	DB	014H
	DB	014H
	DB	014H
	DB	014H
	DB	014H
	DB	014H
	DB	014H
	DB	014H
	DB	014H
	DB	014H
	DB	014H
	DB	014H
	DB	014H
	DB	014H
	DB	014H
	DB	014H
	DB	014H
	DB	014H
	DB	014H
	DB	014H
	DB	014H
	DB	014H
	DB	014H
	DB	014H
	DB	014H
	DB	014H
	DB	014H
	DB	014H
	DB	014H
	DB	014H
	DB	014H
	DB	014H
	DB	014H
	DB	014H
	DB	014H
	DB	014H
	DB	014H
	DB	014H
	DB	014H
	DB	014H
	DB	014H
	DB	014H
	DB	014H
	DB	014H
	DB	014H
	DB	014H
	DB	014H
	DB	014H
	DB	014H
	DB	014H
	DB	014H
	DB	014H
	DB	014H
	DB	014H
	DB	015H
	DB	045H
	DB	023H
	DB	03H
	DB	0a9H
	DB	0daH
	DB	0c5H
	DB	0a7H
	DB	09H
	DB	0d7H
	DB	034H
	DB	0afH
	DB	0cdH
	DB	0a9H
	DB	09H
	DB	09H
	DB	03H
	DB	09bH
	DB	0a7H
	DB	09H
	DB	09H
	DB	0c5H
	DB	0a7H
	DB	0a7H
	DB	03H
	DB	09H
	DB	0d7H
	DB	08eH
	DB	01H
	DB	01H
	DB	01H
	DB	01H
	DB	01H
	DB	01H
	DB	01H
	DB	01H
	DB	02bH
	DB	019H
	DB	019H
	DB	0fH
	DB	022H
	DB	022H
	DB	028H
	DB	03cH
	DB	019H
	DB	019H
	DB	017H
	DB	01bH
	DB	01H
	DB	01H
	DB	01H
	DB	03cH
	DB	017H
	DB	017H
	DB	028H
	DB	01H
	DB	01H
	DB	02bH
	DB	017H
	DB	019H
	DB	02H
	DB	06bH
	DB	01H
	DB	01H
	DB	02bH
	DB	019H
	DB	019H
	DB	017H
	DB	055H
	DB	01H
	DB	01H
	DB	022H
	DB	017H
	DB	017H
	DB	0dH
	DB	01H
	DB	01H
	DB	01H
	DB	01H
	DB	01H
	DB	01bH
	DB	017H
	DB	019H
	DB	0bH
	DB	039H
	DB	01H
	DB	01H
	DB	01H
	DB	03cH
	DB	017H
	DB	017H
	DB	060H
	DB	01H
	DB	01H
	DB	01H
	DB	03bH
	DB	017H
	DB	017H
	DB	0fH
	DB	016H
	DB	01H
	DB	01H
	DB	01H
	DB	01H
	DB	01H
	DB	01H
	DB	01H
	DB	01H
	DB	03fH
	DB	017H
	DB	0f4H
	DB	01fH
	DB	028H
	DB	022H
	DB	022H
	DB	02H
	DB	019H
	DB	017H
	DB	03fH
	DB	01H
	DB	01H
	DB	01H
	DB	043H
	DB	017H
	DB	019H
	DB	0bH
	DB	035H
	DB	01H
	DB	01H
	DB	01H
	DB	055H
	DB	017H
	DB	019H
	DB	0bH
	DB	016H
	DB	048H
	DB	017H
	DB	019H
	DB	0bH
	DB	035H
	DB	01H
	DB	01H
	DB	01H
	DB	01H
	DB	03bH
	DB	017H
	DB	019H
	DB	0bH
	DB	035H
	DB	01H
	DB	01H
	DB	043H
	DB	017H
	DB	019H
	DB	017H
	DB	06bH
	DB	043H
	DB	017H
	DB	017H
	DB	01bH
	DB	01H
	DB	01H
	DB	06bH
	DB	02H
	DB	019H
	DB	0f4H
	DB	0fH
	DB	0fH
	DB	0fH
	DB	0fH
	DB	0fH
	DB	0fH
	DB	0fH
	DB	0fH
	DB	048H
	DB	01H
	DB	01H
	DB	01H
	DB	01H
	DB	01H
	DB	01H
	DB	01H
	DB	01H
	DB	01H
	DB	016H
	DB	03cH
	DB	017H
	DB	019H
	DB	017H
	DB	028H
	DB	01H
	DB	01H
	DB	01H
	DB	01H
	DB	01H
	DB	01H
	DB	01H
	DB	01H
	DB	01fH
	DB	017H
	DB	019H
	DB	017H
	DB	03fH
	DB	01H
	DB	01H
	DB	01H
	DB	01H
	DB	016H
	DB	0fH
	DB	019H
	DB	017H
	DB	01fH
	DB	01H
	DB	01H
	DB	01H
	DB	016H
	DB	0fH
	DB	019H
	DB	017H
	DB	03bH
	DB	01H
	DB	01H
	DB	01H
	DB	01H
	DB	01H
	DB	0cdH
	DB	0dfH
	DB	0c5H
	DB	09H
	DB	03H
	DB	09bH
	DB	0a7H
	DB	0c5H
	DB	09H
	DB	097H
	DB	0a7H
	DB	09bH
	DB	03H
	DB	09H
	DB	09H
	DB	0c5H
	DB	09bH
	DB	04dH
	DB	0efH
	DB	04H
	DB	014H
	DB	014H
	DB	014H
	DB	014H
	DB	014H
	DB	014H
	DB	014H
	DB	014H
	DB	014H
	DB	014H
	DB	014H
	DB	014H
	DB	014H
	DB	014H
	DB	014H
	DB	014H
	DB	014H
	DB	014H
	DB	014H
	DB	014H
	DB	014H
	DB	014H
	DB	014H
	DB	014H
	DB	014H
	DB	014H
	DB	014H
	DB	014H
	DB	014H
	DB	014H
	DB	014H
	DB	014H
	DB	014H
	DB	014H
	DB	014H
	DB	014H
	DB	014H
	DB	014H
	DB	014H
	DB	014H
	DB	014H
	DB	014H
	DB	014H
	DB	014H
	DB	014H
	DB	014H
	DB	014H
	DB	014H
	DB	014H
	DB	014H
	DB	014H
	DB	014H
	DB	014H
	DB	014H
	DB	014H
	DB	014H
	DB	014H
	DB	014H
	DB	014H
	DB	014H
	DB	014H
	DB	014H
	DB	063H
	DB	077H
	DB	05H
	DB	05H
	DB	05H
	DB	05H
	DB	05H
	DB	05H
	DB	05H
	DB	05H
	DB	05H
	DB	05H
	DB	07aH
	DB	06fH
	DB	018H
	DB	014H
	DB	014H
	DB	014H
	DB	014H
	DB	014H
	DB	014H
	DB	014H
	DB	014H
	DB	04H
	DB	04H
	DB	04H
	DB	014H
	DB	014H
	DB	014H
	DB	014H
	DB	014H
	DB	014H
	DB	014H
	DB	014H
	DB	014H
	DB	014H
	DB	014H
	DB	04H
	DB	04H
	DB	04H
	DB	014H
	DB	014H
	DB	014H
	DB	014H
	DB	014H
	DB	0eeH
	DB	065H
	DB	059H
	DB	05H
	DB	05H
	DB	01eH
	DB	0c8H
	DB	018H
	DB	014H
	DB	04H
	DB	04H
	DB	014H
	DB	014H
	DB	014H
	DB	014H
	DB	014H
	DB	0eeH
	DB	065H
	DB	059H
	DB	05H
	DB	05H
	DB	07fH
	DB	06fH
	DB	026H
	DB	014H
	DB	014H
	DB	014H
	DB	014H
	DB	014H
	DB	014H
	DB	04H
	DB	04H
	DB	04H
	DB	04H
	DB	014H
	DB	014H
	DB	014H
	DB	014H
	DB	014H
	DB	014H
	DB	014H
	DB	014H
	DB	014H
	DB	014H
	DB	014H
	DB	04H
	DB	04H
	DB	04H
	DB	088H
	DB	094H
	DB	05H
	DB	05H
	DB	05H
	DB	098H
	DB	082H
	DB	05bH
	DB	014H
	DB	014H
	DB	014H
	DB	014H
	DB	014H
	DB	014H
	DB	014H
	DB	014H
	DB	014H
	DB	014H
	DB	014H
	DB	014H
	DB	014H
	DB	014H
	DB	014H
	DB	014H
	DB	014H
	DB	014H
	DB	014H
	DB	014H
	DB	014H
	DB	014H
	DB	014H
	DB	014H
	DB	014H
	DB	014H
	DB	014H
	DB	014H
	DB	014H
	DB	014H
	DB	014H
	DB	014H
	DB	014H
	DB	014H
	DB	014H
	DB	014H
	DB	014H
	DB	014H
	DB	014H
	DB	014H
	DB	014H
	DB	014H
	DB	014H
	DB	014H
	DB	014H
	DB	014H
	DB	014H
	DB	014H
	DB	014H
	DB	014H
	DB	014H
	DB	014H
	DB	014H
	DB	014H
	DB	014H
	DB	014H
	DB	014H
	DB	014H
	DB	014H
	DB	014H
	DB	014H
	DB	014H
	DB	015H
	DB	062H
	DB	023H
	DB	0a7H
	DB	09H
	DB	09H
	DB	03H
	DB	09bH
	DB	0c5H
	DB	0d7H
	DB	0e0H
	DB	0afH
	DB	07H
	DB	0a9H
	DB	03H
	DB	0c5H
	DB	09H
	DB	09H
	DB	09H
	DB	0c5H
	DB	03H
	DB	0c5H
	DB	09H
	DB	09H
	DB	0c5H
	DB	0c5H
	DB	07H
	DB	08eH
	DB	01H
	DB	01H
	DB	01H
	DB	01H
	DB	01H
	DB	01H
	DB	01H
	DB	01H
	DB	022H
	DB	017H
	DB	019H
	DB	017H
	DB	017H
	DB	017H
	DB	017H
	DB	017H
	DB	019H
	DB	0f4H
	DB	017H
	DB	022H
	DB	01H
	DB	01H
	DB	01H
	DB	03cH
	DB	017H
	DB	017H
	DB	028H
	DB	01H
	DB	01H
	DB	022H
	DB	017H
	DB	017H
	DB	03fH
	DB	01H
	DB	01H
	DB	01H
	DB	016H
	DB	0dH
	DB	017H
	DB	017H
	DB	055H
	DB	01H
	DB	01H
	DB	022H
	DB	017H
	DB	017H
	DB	0dH
	DB	01H
	DB	01H
	DB	01H
	DB	01H
	DB	01H
	DB	01bH
	DB	017H
	DB	019H
	DB	0bH
	DB	039H
	DB	01H
	DB	01H
	DB	01H
	DB	03cH
	DB	017H
	DB	017H
	DB	060H
	DB	01H
	DB	01H
	DB	01H
	DB	03bH
	DB	017H
	DB	017H
	DB	0fH
	DB	016H
	DB	01H
	DB	01H
	DB	01H
	DB	01H
	DB	01H
	DB	01H
	DB	01H
	DB	035H
	DB	02H
	DB	019H
	DB	017H
	DB	017H
	DB	017H
	DB	017H
	DB	017H
	DB	017H
	DB	019H
	DB	019H
	DB	02H
	DB	035H
	DB	01H
	DB	01H
	DB	043H
	DB	017H
	DB	019H
	DB	0bH
	DB	072H
	DB	01H
	DB	01H
	DB	01H
	DB	055H
	DB	017H
	DB	019H
	DB	0fH
	DB	016H
	DB	043H
	DB	019H
	DB	019H
	DB	02H
	DB	06bH
	DB	01H
	DB	01H
	DB	01H
	DB	01H
	DB	028H
	DB	017H
	DB	019H
	DB	0bH
	DB	016H
	DB	01H
	DB	01H
	DB	01H
	DB	0dH
	DB	017H
	DB	017H
	DB	060H
	DB	03fH
	DB	017H
	DB	03cH
	DB	01H
	DB	01H
	DB	01H
	DB	035H
	DB	02H
	DB	019H
	DB	0f4H
	DB	043H
	DB	016H
	DB	016H
	DB	016H
	DB	016H
	DB	016H
	DB	016H
	DB	016H
	DB	01H
	DB	01H
	DB	01H
	DB	01H
	DB	01H
	DB	01H
	DB	01H
	DB	01H
	DB	01H
	DB	035H
	DB	0dH
	DB	017H
	DB	019H
	DB	017H
	DB	01fH
	DB	01H
	DB	01H
	DB	01H
	DB	01H
	DB	01H
	DB	01H
	DB	01H
	DB	016H
	DB	01fH
	DB	017H
	DB	019H
	DB	017H
	DB	03cH
	DB	016H
	DB	01H
	DB	01H
	DB	01H
	DB	01H
	DB	01H
	DB	03fH
	DB	017H
	DB	017H
	DB	03cH
	DB	01H
	DB	01H
	DB	01H
	DB	035H
	DB	02H
	DB	019H
	DB	017H
	DB	02bH
	DB	01H
	DB	01H
	DB	01H
	DB	01H
	DB	01H
	DB	0cdH
	DB	08H
	DB	0a7H
	DB	03H
	DB	097H
	DB	09H
	DB	09H
	DB	0c5H
	DB	03H
	DB	0c5H
	DB	09H
	DB	09H
	DB	09H
	DB	0c5H
	DB	03H
	DB	0c5H
	DB	0c6H
	DB	04dH
	DB	06cH
	DB	04H
	DB	04H
	DB	04H
	DB	04H
	DB	04H
	DB	04H
	DB	04H
	DB	04H
	DB	04H
	DB	04H
	DB	04H
	DB	04H
	DB	04H
	DB	04H
	DB	04H
	DB	04H
	DB	04H
	DB	04H
	DB	04H
	DB	04H
	DB	04H
	DB	04H
	DB	04H
	DB	04H
	DB	04H
	DB	04H
	DB	04H
	DB	04H
	DB	04H
	DB	04H
	DB	04H
	DB	04H
	DB	04H
	DB	04H
	DB	04H
	DB	04H
	DB	04H
	DB	04H
	DB	04H
	DB	04H
	DB	04H
	DB	04H
	DB	04H
	DB	04H
	DB	04H
	DB	04H
	DB	04H
	DB	04H
	DB	04H
	DB	04H
	DB	04H
	DB	04H
	DB	04H
	DB	04H
	DB	04H
	DB	04H
	DB	04H
	DB	04H
	DB	04H
	DB	04H
	DB	04H
	DB	04H
	DB	04H
	DB	063H
	DB	077H
	DB	05H
	DB	05H
	DB	05H
	DB	08aH
	DB	0deH
	DB	011H
	DB	011H
	DB	011H
	DB	011H
	DB	011H
	DB	0abH
	DB	04cH
	DB	024H
	DB	04H
	DB	0eeH
	DB	014H
	DB	014H
	DB	04H
	DB	04H
	DB	04H
	DB	04H
	DB	0b8H
	DB	063H
	DB	0b8H
	DB	04H
	DB	04H
	DB	04H
	DB	04H
	DB	04H
	DB	04H
	DB	04H
	DB	04H
	DB	04H
	DB	04H
	DB	014H
	DB	07eH
	DB	063H
	DB	07eH
	DB	04H
	DB	04H
	DB	04H
	DB	04H
	DB	04H
	DB	04H
	DB	065H
	DB	059H
	DB	05H
	DB	05H
	DB	01eH
	DB	06fH
	DB	024H
	DB	04H
	DB	07eH
	DB	063H
	DB	0eeH
	DB	04H
	DB	04H
	DB	04H
	DB	04H
	DB	0eeH
	DB	065H
	DB	059H
	DB	05H
	DB	05H
	DB	07fH
	DB	04dH
	DB	024H
	DB	014H
	DB	04H
	DB	04H
	DB	04H
	DB	04H
	DB	014H
	DB	063H
	DB	088H
	DB	088H
	DB	07eH
	DB	04H
	DB	04H
	DB	04H
	DB	04H
	DB	04H
	DB	04H
	DB	04H
	DB	04H
	DB	04H
	DB	04H
	DB	014H
	DB	063H
	DB	07eH
	DB	04H
	DB	063H
	DB	094H
	DB	05H
	DB	05H
	DB	05H
	DB	010H
	DB	06aH
	DB	015H
	DB	04H
	DB	04H
	DB	04H
	DB	04H
	DB	04H
	DB	04H
	DB	04H
	DB	04H
	DB	04H
	DB	04H
	DB	04H
	DB	04H
	DB	04H
	DB	04H
	DB	04H
	DB	04H
	DB	04H
	DB	04H
	DB	04H
	DB	04H
	DB	04H
	DB	04H
	DB	04H
	DB	04H
	DB	04H
	DB	04H
	DB	04H
	DB	04H
	DB	04H
	DB	04H
	DB	04H
	DB	04H
	DB	04H
	DB	04H
	DB	04H
	DB	04H
	DB	04H
	DB	04H
	DB	04H
	DB	04H
	DB	04H
	DB	04H
	DB	04H
	DB	04H
	DB	04H
	DB	04H
	DB	04H
	DB	04H
	DB	04H
	DB	04H
	DB	04H
	DB	04H
	DB	04H
	DB	04H
	DB	04H
	DB	04H
	DB	04H
	DB	04H
	DB	04H
	DB	04H
	DB	04H
	DB	04H
	DB	015H
	DB	062H
	DB	023H
	DB	03H
	DB	03H
	DB	0c5H
	DB	097H
	DB	09H
	DB	0c7H
	DB	07H
	DB	034H
	DB	0afH
	DB	07H
	DB	09H
	DB	09bH
	DB	0a7H
	DB	097H
	DB	09H
	DB	09H
	DB	0a7H
	DB	09bH
	DB	03H
	DB	09H
	DB	09H
	DB	0c5H
	DB	0a7H
	DB	07H
	DB	0caH
	DB	01H
	DB	01H
	DB	01H
	DB	01H
	DB	01H
	DB	01H
	DB	01H
	DB	016H
	DB	0fH
	DB	017H
	DB	0bH
	DB	028H
	DB	022H
	DB	022H
	DB	022H
	DB	028H
	DB	0dH
	DB	019H
	DB	017H
	DB	0fH
	DB	016H
	DB	01H
	DB	01H
	DB	03cH
	DB	017H
	DB	017H
	DB	028H
	DB	01H
	DB	01H
	DB	01fH
	DB	017H
	DB	017H
	DB	095H
	DB	01H
	DB	01H
	DB	01H
	DB	01H
	DB	0dH
	DB	017H
	DB	017H
	DB	055H
	DB	01H
	DB	01H
	DB	022H
	DB	017H
	DB	017H
	DB	0dH
	DB	01H
	DB	01H
	DB	01H
	DB	01H
	DB	01H
	DB	01bH
	DB	017H
	DB	019H
	DB	0bH
	DB	039H
	DB	01H
	DB	01H
	DB	01H
	DB	03cH
	DB	017H
	DB	017H
	DB	060H
	DB	01H
	DB	01H
	DB	01H
	DB	03bH
	DB	017H
	DB	017H
	DB	0fH
	DB	016H
	DB	01H
	DB	01H
	DB	01H
	DB	01H
	DB	01H
	DB	01H
	DB	01H
	DB	03bH
	DB	017H
	DB	019H
	DB	03fH
	DB	028H
	DB	022H
	DB	022H
	DB	028H
	DB	01fH
	DB	02H
	DB	019H
	DB	017H
	DB	048H
	DB	01H
	DB	01H
	DB	043H
	DB	017H
	DB	019H
	DB	017H
	DB	043H
	DB	01H
	DB	01H
	DB	01H
	DB	03fH
	DB	017H
	DB	017H
	DB	03cH
	DB	01H
	DB	035H
	DB	02H
	DB	019H
	DB	017H
	DB	048H
	DB	01H
	DB	01H
	DB	01H
	DB	01H
	DB	095H
	DB	017H
	DB	017H
	DB	0dH
	DB	01H
	DB	01H
	DB	01H
	DB	01H
	DB	028H
	DB	017H
	DB	0f4H
	DB	019H
	DB	02H
	DB	017H
	DB	048H
	DB	01H
	DB	01H
	DB	01H
	DB	01H
	DB	0fH
	DB	019H
	DB	017H
	DB	055H
	DB	01H
	DB	01H
	DB	01H
	DB	01H
	DB	01H
	DB	01H
	DB	01H
	DB	01H
	DB	01H
	DB	01H
	DB	01H
	DB	01H
	DB	01H
	DB	01H
	DB	01H
	DB	035H
	DB	0fH
	DB	017H
	DB	019H
	DB	017H
	DB	022H
	DB	01H
	DB	01H
	DB	01H
	DB	01H
	DB	01H
	DB	01H
	DB	01H
	DB	016H
	DB	03cH
	DB	017H
	DB	019H
	DB	017H
	DB	03fH
	DB	016H
	DB	01H
	DB	01H
	DB	01H
	DB	01H
	DB	01H
	DB	01H
	DB	028H
	DB	017H
	DB	019H
	DB	0bH
	DB	016H
	DB	01H
	DB	01H
	DB	01bH
	DB	017H
	DB	019H
	DB	0bH
	DB	035H
	DB	01H
	DB	01H
	DB	01H
	DB	01H
	DB	01H
	DB	0cdH
	DB	0dfH
	DB	01H
	DB	0a7H
	DB	0c5H
	DB	09H
	DB	09H
	DB	03H
	DB	09bH
	DB	03H
	DB	09H
	DB	09H
	DB	097H
	DB	0a7H
	DB	09bH
	DB	0c5H
	DB	0c6H
	DB	04dH
	DB	06cH
	DB	04H
	DB	04H
	DB	04H
	DB	04H
	DB	04H
	DB	04H
	DB	04H
	DB	04H
	DB	04H
	DB	04H
	DB	04H
	DB	04H
	DB	04H
	DB	04H
	DB	04H
	DB	04H
	DB	04H
	DB	04H
	DB	04H
	DB	04H
	DB	04H
	DB	04H
	DB	04H
	DB	04H
	DB	04H
	DB	04H
	DB	04H
	DB	04H
	DB	04H
	DB	04H
	DB	04H
	DB	04H
	DB	04H
	DB	04H
	DB	04H
	DB	04H
	DB	04H
	DB	04H
	DB	04H
	DB	04H
	DB	04H
	DB	04H
	DB	04H
	DB	04H
	DB	04H
	DB	04H
	DB	04H
	DB	04H
	DB	04H
	DB	04H
	DB	04H
	DB	04H
	DB	04H
	DB	04H
	DB	04H
	DB	04H
	DB	04H
	DB	04H
	DB	04H
	DB	04H
	DB	04H
	DB	04H
	DB	04H
	DB	063H
	DB	077H
	DB	05H
	DB	05H
	DB	05H
	DB	059H
	DB	023H
	DB	080H
	DB	080H
	DB	080H
	DB	080H
	DB	080H
	DB	080H
	DB	046H
	DB	018H
	DB	0a2H
	DB	08dH
	DB	08dH
	DB	08dH
	DB	065H
	DB	014H
	DB	088H
	DB	045H
	DB	0b6H
	DB	09fH
	DB	0b6H
	DB	062H
	DB	07eH
	DB	04H
	DB	04H
	DB	04H
	DB	04H
	DB	04H
	DB	07eH
	DB	0e2H
	DB	046H
	DB	08dH
	DB	09fH
	DB	09fH
	DB	08fH
	DB	0beH
	DB	0e4H
	DB	014H
	DB	04H
	DB	04H
	DB	04H
	DB	065H
	DB	059H
	DB	05H
	DB	05H
	DB	01eH
	DB	06fH
	DB	082H
	DB	0beH
	DB	08fH
	DB	09fH
	DB	0acH
	DB	0e2H
	DB	0eeH
	DB	04H
	DB	04H
	DB	04H
	DB	065H
	DB	085H
	DB	05H
	DB	05H
	DB	07fH
	DB	04dH
	DB	024H
	DB	014H
	DB	04H
	DB	04H
	DB	07eH
	DB	062H
	DB	08dH
	DB	0e8H
	DB	0e9H
	DB	0e9H
	DB	08fH
	DB	0beH
	DB	088H
	DB	04H
	DB	04H
	DB	04H
	DB	04H
	DB	04H
	DB	04H
	DB	0b8H
	DB	062H
	DB	08dH
	DB	09fH
	DB	08fH
	DB	065H
	DB	087H
	DB	094H
	DB	05H
	DB	05H
	DB	05H
	DB	010H
	DB	06aH
	DB	05bH
	DB	04H
	DB	04H
	DB	04H
	DB	04H
	DB	04H
	DB	04H
	DB	04H
	DB	04H
	DB	04H
	DB	04H
	DB	04H
	DB	04H
	DB	04H
	DB	04H
	DB	04H
	DB	04H
	DB	04H
	DB	04H
	DB	04H
	DB	04H
	DB	04H
	DB	04H
	DB	04H
	DB	04H
	DB	04H
	DB	04H
	DB	04H
	DB	04H
	DB	04H
	DB	04H
	DB	04H
	DB	04H
	DB	04H
	DB	04H
	DB	04H
	DB	04H
	DB	04H
	DB	04H
	DB	04H
	DB	04H
	DB	04H
	DB	04H
	DB	04H
	DB	04H
	DB	04H
	DB	04H
	DB	04H
	DB	04H
	DB	04H
	DB	04H
	DB	04H
	DB	04H
	DB	04H
	DB	04H
	DB	04H
	DB	04H
	DB	04H
	DB	04H
	DB	04H
	DB	04H
	DB	04H
	DB	04H
	DB	05bH
	DB	062H
	DB	023H
	DB	0a7H
	DB	0a7H
	DB	0a7H
	DB	0c5H
	DB	09H
	DB	0c7H
	DB	07H
	DB	0e0H
	DB	0afH
	DB	0cdH
	DB	097H
	DB	09bH
	DB	0a7H
	DB	0c5H
	DB	0c5H
	DB	0c5H
	DB	0a7H
	DB	0a7H
	DB	03H
	DB	0c5H
	DB	0c5H
	DB	03H
	DB	0a7H
	DB	07H
	DB	0caH
	DB	01H
	DB	01H
	DB	01H
	DB	01H
	DB	01H
	DB	01H
	DB	01H
	DB	01bH
	DB	017H
	DB	017H
	DB	060H
	DB	01H
	DB	01H
	DB	01H
	DB	01H
	DB	01H
	DB	048H
	DB	017H
	DB	019H
	DB	019H
	DB	01bH
	DB	01H
	DB	01H
	DB	03cH
	DB	017H
	DB	017H
	DB	028H
	DB	01H
	DB	01H
	DB	022H
	DB	017H
	DB	019H
	DB	0bH
	DB	035H
	DB	01H
	DB	01H
	DB	01bH
	DB	02H
	DB	019H
	DB	017H
	DB	055H
	DB	01H
	DB	01H
	DB	022H
	DB	017H
	DB	017H
	DB	0dH
	DB	01H
	DB	01H
	DB	01H
	DB	01H
	DB	01H
	DB	01bH
	DB	017H
	DB	019H
	DB	0bH
	DB	039H
	DB	01H
	DB	01H
	DB	01H
	DB	03cH
	DB	017H
	DB	017H
	DB	060H
	DB	01H
	DB	01H
	DB	01H
	DB	03bH
	DB	017H
	DB	017H
	DB	0fH
	DB	016H
	DB	01H
	DB	01H
	DB	01H
	DB	01H
	DB	01H
	DB	01H
	DB	01H
	DB	03cH
	DB	017H
	DB	02H
	DB	035H
	DB	01H
	DB	01H
	DB	01H
	DB	01H
	DB	01H
	DB	0dH
	DB	017H
	DB	017H
	DB	03fH
	DB	01H
	DB	01H
	DB	043H
	DB	017H
	DB	0f4H
	DB	017H
	DB	03cH
	DB	016H
	DB	01H
	DB	02bH
	DB	02H
	DB	019H
	DB	017H
	DB	022H
	DB	01H
	DB	01H
	DB	03cH
	DB	017H
	DB	017H
	DB	0dH
	DB	035H
	DB	01H
	DB	01H
	DB	043H
	DB	0f4H
	DB	019H
	DB	017H
	DB	055H
	DB	01H
	DB	01H
	DB	01H
	DB	01H
	DB	035H
	DB	0f4H
	DB	019H
	DB	019H
	DB	019H
	DB	0fH
	DB	016H
	DB	01H
	DB	01H
	DB	01H
	DB	01H
	DB	028H
	DB	017H
	DB	019H
	DB	0fH
	DB	06bH
	DB	01H
	DB	01H
	DB	01H
	DB	01H
	DB	035H
	DB	016H
	DB	01H
	DB	01H
	DB	01H
	DB	01H
	DB	01H
	DB	01H
	DB	01H
	DB	016H
	DB	0dH
	DB	017H
	DB	019H
	DB	019H
	DB	055H
	DB	01H
	DB	01H
	DB	01H
	DB	01H
	DB	01H
	DB	01H
	DB	01H
	DB	01H
	DB	03fH
	DB	017H
	DB	019H
	DB	019H
	DB	060H
	DB	01H
	DB	01H
	DB	01H
	DB	01H
	DB	01H
	DB	01H
	DB	01H
	DB	01H
	DB	06bH
	DB	0f4H
	DB	019H
	DB	017H
	DB	048H
	DB	01H
	DB	01H
	DB	01fH
	DB	017H
	DB	017H
	DB	095H
	DB	01H
	DB	01H
	DB	01H
	DB	01H
	DB	01H
	DB	01H
	DB	0cdH
	DB	0dfH
	DB	09bH
	DB	0a7H
	DB	03H
	DB	0c5H
	DB	0c5H
	DB	03H
	DB	0a7H
	DB	03H
	DB	0c5H
	DB	0c5H
	DB	03H
	DB	0a7H
	DB	0a7H
	DB	03H
	DB	03H
	DB	04dH
	DB	06cH
	DB	03dH
	DB	04H
	DB	04H
	DB	04H
	DB	04H
	DB	04H
	DB	04H
	DB	04H
	DB	04H
	DB	04H
	DB	04H
	DB	04H
	DB	04H
	DB	04H
	DB	04H
	DB	04H
	DB	04H
	DB	04H
	DB	04H
	DB	04H
	DB	04H
	DB	04H
	DB	04H
	DB	04H
	DB	04H
	DB	04H
	DB	04H
	DB	04H
	DB	04H
	DB	04H
	DB	04H
	DB	04H
	DB	04H
	DB	04H
	DB	04H
	DB	04H
	DB	04H
	DB	04H
	DB	04H
	DB	04H
	DB	04H
	DB	04H
	DB	04H
	DB	04H
	DB	04H
	DB	04H
	DB	04H
	DB	04H
	DB	04H
	DB	04H
	DB	04H
	DB	04H
	DB	04H
	DB	04H
	DB	04H
	DB	04H
	DB	04H
	DB	04H
	DB	04H
	DB	04H
	DB	04H
	DB	04H
	DB	04H
	DB	063H
	DB	077H
	DB	05H
	DB	05H
	DB	05H
	DB	059H
	DB	0a8H
	DB	057H
	DB	0a2H
	DB	0a2H
	DB	0a2H
	DB	0a2H
	DB	0a2H
	DB	026H
	DB	014H
	DB	09eH
	DB	059H
	DB	07fH
	DB	07aH
	DB	089H
	DB	04cH
	DB	098H
	DB	059H
	DB	07aH
	DB	05H
	DB	07aH
	DB	01dH
	DB	09dH
	DB	0b8H
	DB	04H
	DB	04H
	DB	04H
	DB	018H
	DB	09fH
	DB	0d9H
	DB	08aH
	DB	07fH
	DB	05H
	DB	05H
	DB	07aH
	DB	074H
	DB	07H
	DB	0a3H
	DB	015H
	DB	04H
	DB	04H
	DB	065H
	DB	059H
	DB	05H
	DB	05H
	DB	01eH
	DB	075H
	DB	0e9H
	DB	08aH
	DB	07aH
	DB	07aH
	DB	0fdH
	DB	07H
	DB	065H
	DB	014H
	DB	04H
	DB	04H
	DB	065H
	DB	085H
	DB	05H
	DB	05H
	DB	07fH
	DB	04dH
	DB	024H
	DB	04H
	DB	03dH
	DB	088H
	DB	0d1H
	DB	0baH
	DB	07fH
	DB	05H
	DB	05H
	DB	05H
	DB	07aH
	DB	01eH
	DB	094H
	DB	0e2H
	DB	03dH
	DB	04H
	DB	04H
	DB	03dH
	DB	018H
	DB	0ddH
	DB	0baH
	DB	07fH
	DB	05H
	DB	07aH
	DB	08aH
	DB	012H
	DB	08H
	DB	05H
	DB	05H
	DB	05H
	DB	010H
	DB	06aH
	DB	05bH
	DB	04H
	DB	04H
	DB	04H
	DB	04H
	DB	04H
	DB	04H
	DB	04H
	DB	04H
	DB	04H
	DB	04H
	DB	04H
	DB	04H
	DB	04H
	DB	04H
	DB	04H
	DB	04H
	DB	04H
	DB	04H
	DB	04H
	DB	04H
	DB	04H
	DB	04H
	DB	04H
	DB	04H
	DB	04H
	DB	04H
	DB	04H
	DB	04H
	DB	04H
	DB	04H
	DB	04H
	DB	04H
	DB	04H
	DB	04H
	DB	04H
	DB	04H
	DB	04H
	DB	04H
	DB	04H
	DB	04H
	DB	04H
	DB	04H
	DB	04H
	DB	04H
	DB	04H
	DB	04H
	DB	04H
	DB	04H
	DB	04H
	DB	04H
	DB	04H
	DB	04H
	DB	04H
	DB	04H
	DB	04H
	DB	04H
	DB	04H
	DB	04H
	DB	04H
	DB	04H
	DB	04H
	DB	04H
	DB	05bH
	DB	062H
	DB	023H
	DB	09bH
	DB	0a7H
	DB	0a7H
	DB	03H
	DB	0c5H
	DB	09H
	DB	07H
	DB	0e0H
	DB	0afH
	DB	0cdH
	DB	0a9H
	DB	097H
	DB	097H
	DB	03H
	DB	03H
	DB	03H
	DB	097H
	DB	09H
	DB	0c5H
	DB	03H
	DB	03H
	DB	0c5H
	DB	09H
	DB	0d7H
	DB	08eH
	DB	01H
	DB	01H
	DB	01H
	DB	01H
	DB	01H
	DB	01H
	DB	01H
	DB	060H
	DB	017H
	DB	017H
	DB	043H
	DB	01H
	DB	01H
	DB	01H
	DB	01H
	DB	01H
	DB	035H
	DB	0bH
	DB	019H
	DB	017H
	DB	022H
	DB	01H
	DB	01H
	DB	03cH
	DB	017H
	DB	017H
	DB	028H
	DB	01H
	DB	01H
	DB	043H
	DB	017H
	DB	019H
	DB	019H
	DB	0fH
	DB	022H
	DB	060H
	DB	0bH
	DB	019H
	DB	0f4H
	DB	017H
	DB	055H
	DB	01H
	DB	01H
	DB	022H
	DB	017H
	DB	017H
	DB	0dH
	DB	01H
	DB	01H
	DB	01H
	DB	01H
	DB	01H
	DB	01bH
	DB	017H
	DB	019H
	DB	0bH
	DB	039H
	DB	01H
	DB	01H
	DB	01H
	DB	03cH
	DB	017H
	DB	017H
	DB	060H
	DB	01H
	DB	01H
	DB	01H
	DB	03bH
	DB	017H
	DB	017H
	DB	0fH
	DB	016H
	DB	01H
	DB	01H
	DB	01H
	DB	01H
	DB	01H
	DB	01H
	DB	06bH
	DB	0bH
	DB	017H
	DB	03cH
	DB	01H
	DB	01H
	DB	01H
	DB	01H
	DB	01H
	DB	01H
	DB	028H
	DB	017H
	DB	019H
	DB	0bH
	DB	035H
	DB	01H
	DB	043H
	DB	017H
	DB	019H
	DB	02H
	DB	019H
	DB	0fH
	DB	0dH
	DB	02H
	DB	019H
	DB	019H
	DB	02H
	DB	06bH
	DB	01H
	DB	01H
	DB	06bH
	DB	0bH
	DB	017H
	DB	017H
	DB	0fH
	DB	022H
	DB	060H
	DB	02H
	DB	019H
	DB	017H
	DB	0dH
	DB	016H
	DB	01H
	DB	01H
	DB	01H
	DB	01H
	DB	01H
	DB	01fH
	DB	017H
	DB	0f4H
	DB	017H
	DB	028H
	DB	01H
	DB	01H
	DB	01H
	DB	01H
	DB	01H
	DB	016H
	DB	0dH
	DB	017H
	DB	017H
	DB	0bH
	DB	01fH
	DB	028H
	DB	022H
	DB	03cH
	DB	0bH
	DB	028H
	DB	01H
	DB	01H
	DB	01H
	DB	01H
	DB	01H
	DB	01H
	DB	01H
	DB	02bH
	DB	017H
	DB	019H
	DB	019H
	DB	02H
	DB	03fH
	DB	01fH
	DB	03fH
	DB	03fH
	DB	03fH
	DB	03fH
	DB	060H
	DB	01H
	DB	035H
	DB	02H
	DB	019H
	DB	019H
	DB	0f4H
	DB	03cH
	DB	01fH
	DB	03fH
	DB	03fH
	DB	03fH
	DB	03fH
	DB	03fH
	DB	016H
	DB	01H
	DB	01H
	DB	022H
	DB	017H
	DB	019H
	DB	02H
	DB	022H
	DB	095H
	DB	019H
	DB	017H
	DB	0f4H
	DB	06bH
	DB	01H
	DB	01H
	DB	01H
	DB	01H
	DB	01H
	DB	01H
	DB	0cdH
	DB	0d2H
	DB	0c5H
	DB	09H
	DB	0c5H
	DB	03H
	DB	03H
	DB	097H
	DB	09H
	DB	097H
	DB	03H
	DB	03H
	DB	03H
	DB	09H
	DB	09H
	DB	0c5H
	DB	0a7H
	DB	04dH
	DB	06cH
	DB	03dH
	DB	04H
	DB	04H
	DB	04H
	DB	04H
	DB	04H
	DB	04H
	DB	04H
	DB	04H
	DB	04H
	DB	04H
	DB	04H
	DB	04H
	DB	04H
	DB	04H
	DB	04H
	DB	04H
	DB	04H
	DB	04H
	DB	04H
	DB	04H
	DB	04H
	DB	04H
	DB	04H
	DB	04H
	DB	04H
	DB	04H
	DB	04H
	DB	04H
	DB	04H
	DB	04H
	DB	04H
	DB	04H
	DB	04H
	DB	04H
	DB	04H
	DB	04H
	DB	04H
	DB	04H
	DB	04H
	DB	04H
	DB	04H
	DB	04H
	DB	04H
	DB	04H
	DB	04H
	DB	04H
	DB	04H
	DB	04H
	DB	04H
	DB	04H
	DB	04H
	DB	04H
	DB	04H
	DB	04H
	DB	04H
	DB	04H
	DB	04H
	DB	04H
	DB	04H
	DB	04H
	DB	04H
	DB	04H
	DB	063H
	DB	077H
	DB	05H
	DB	05H
	DB	05H
	DB	059H
	DB	04cH
	DB	026H
	DB	03dH
	DB	03dH
	DB	03dH
	DB	04H
	DB	04H
	DB	04H
	DB	03dH
	DB	046H
	DB	074H
	DB	05H
	DB	05H
	DB	01dH
	DB	07H
	DB	05H
	DB	05H
	DB	05H
	DB	05H
	DB	05H
	DB	05H
	DB	0baH
	DB	045H
	DB	04H
	DB	04H
	DB	04H
	DB	057H
	DB	0baH
	DB	05H
	DB	05H
	DB	05H
	DB	05H
	DB	05H
	DB	05H
	DB	05H
	DB	05H
	DB	0c3H
	DB	0beH
	DB	04H
	DB	04H
	DB	065H
	DB	059H
	DB	05H
	DB	05H
	DB	08aH
	DB	0d8H
	DB	05H
	DB	05H
	DB	05H
	DB	05H
	DB	05H
	DB	05H
	DB	0baH
	DB	045H
	DB	04H
	DB	04H
	DB	065H
	DB	085H
	DB	05H
	DB	05H
	DB	07fH
	DB	04dH
	DB	024H
	DB	04H
	DB	088H
	DB	0b7H
	DB	0fdH
	DB	05H
	DB	05H
	DB	00H
	DB	01eH
	DB	020H
	DB	05H
	DB	05H
	DB	05H
	DB	013H
	DB	057H
	DB	04H
	DB	04H
	DB	0eeH
	DB	0acH
	DB	059H
	DB	05H
	DB	05H
	DB	05H
	DB	05H
	DB	05H
	DB	00H
	DB	027H
	DB	05H
	DB	05H
	DB	05H
	DB	010H
	DB	06aH
	DB	05bH
	DB	04H
	DB	04H
	DB	04H
	DB	04H
	DB	04H
	DB	04H
	DB	04H
	DB	04H
	DB	04H
	DB	04H
	DB	04H
	DB	04H
	DB	04H
	DB	04H
	DB	04H
	DB	04H
	DB	04H
	DB	04H
	DB	04H
	DB	04H
	DB	04H
	DB	04H
	DB	04H
	DB	04H
	DB	04H
	DB	04H
	DB	04H
	DB	04H
	DB	04H
	DB	04H
	DB	04H
	DB	04H
	DB	04H
	DB	04H
	DB	04H
	DB	04H
	DB	04H
	DB	04H
	DB	04H
	DB	04H
	DB	04H
	DB	04H
	DB	04H
	DB	04H
	DB	04H
	DB	04H
	DB	04H
	DB	04H
	DB	04H
	DB	04H
	DB	04H
	DB	04H
	DB	04H
	DB	04H
	DB	04H
	DB	04H
	DB	04H
	DB	04H
	DB	04H
	DB	04H
	DB	04H
	DB	04H
	DB	05bH
	DB	062H
	DB	023H
	DB	0a7H
	DB	09H
	DB	09H
	DB	03H
	DB	0a7H
	DB	09H
	DB	0d7H
	DB	0e0H
	DB	0afH
	DB	0cdH
	DB	09H
	DB	0c5H
	DB	0c5H
	DB	0a7H
	DB	09bH
	DB	0a7H
	DB	0c5H
	DB	09H
	DB	03H
	DB	09bH
	DB	09bH
	DB	03H
	DB	09H
	DB	0d7H
	DB	08eH
	DB	01H
	DB	01H
	DB	01H
	DB	01H
	DB	01H
	DB	01H
	DB	016H
	DB	0bH
	DB	017H
	DB	0bH
	DB	035H
	DB	01H
	DB	01H
	DB	01H
	DB	01H
	DB	01H
	DB	01H
	DB	03fH
	DB	017H
	DB	017H
	DB	0bH
	DB	016H
	DB	01H
	DB	0dH
	DB	017H
	DB	017H
	DB	022H
	DB	01H
	DB	01H
	DB	01H
	DB	022H
	DB	017H
	DB	017H
	DB	017H
	DB	017H
	DB	017H
	DB	028H
	DB	03cH
	DB	017H
	DB	017H
	DB	028H
	DB	01H
	DB	01H
	DB	060H
	DB	017H
	DB	017H
	DB	0fH
	DB	01H
	DB	01H
	DB	01H
	DB	01H
	DB	01H
	DB	02bH
	DB	017H
	DB	017H
	DB	0f4H
	DB	06bH
	DB	01H
	DB	01H
	DB	01H
	DB	0dH
	DB	017H
	DB	017H
	DB	01fH
	DB	01H
	DB	01H
	DB	01H
	DB	03bH
	DB	017H
	DB	017H
	DB	0bH
	DB	016H
	DB	01H
	DB	01H
	DB	01H
	DB	01H
	DB	01H
	DB	01H
	DB	055H
	DB	017H
	DB	017H
	DB	028H
	DB	01H
	DB	01H
	DB	01H
	DB	01H
	DB	01H
	DB	01H
	DB	01bH
	DB	017H
	DB	017H
	DB	017H
	DB	03bH
	DB	01H
	DB	043H
	DB	017H
	DB	017H
	DB	0fH
	DB	03bH
	DB	0f4H
	DB	017H
	DB	017H
	DB	017H
	DB	019H
	DB	03bH
	DB	01H
	DB	01H
	DB	01H
	DB	01H
	DB	01bH
	DB	0fH
	DB	017H
	DB	017H
	DB	017H
	DB	017H
	DB	017H
	DB	019H
	DB	03fH
	DB	035H
	DB	01H
	DB	01H
	DB	01H
	DB	01H
	DB	01H
	DB	01H
	DB	043H
	DB	017H
	DB	017H
	DB	019H
	DB	035H
	DB	01H
	DB	01H
	DB	01H
	DB	01H
	DB	01H
	DB	01H
	DB	035H
	DB	03cH
	DB	019H
	DB	017H
	DB	017H
	DB	017H
	DB	017H
	DB	017H
	DB	017H
	DB	055H
	DB	01H
	DB	01H
	DB	01H
	DB	01H
	DB	01H
	DB	01H
	DB	01H
	DB	02bH
	DB	017H
	DB	017H
	DB	017H
	DB	017H
	DB	017H
	DB	017H
	DB	017H
	DB	017H
	DB	017H
	DB	017H
	DB	02H
	DB	01H
	DB	035H
	DB	019H
	DB	017H
	DB	017H
	DB	017H
	DB	017H
	DB	017H
	DB	017H
	DB	017H
	DB	017H
	DB	017H
	DB	017H
	DB	035H
	DB	01H
	DB	01H
	DB	016H
	DB	01fH
	DB	017H
	DB	017H
	DB	017H
	DB	017H
	DB	017H
	DB	0bH
	DB	043H
	DB	01H
	DB	01H
	DB	01H
	DB	01H
	DB	01H
	DB	01H
	DB	01H
	DB	0cdH
	DB	0dfH
	DB	03H
	DB	097H
	DB	03H
	DB	09bH
	DB	09bH
	DB	0c5H
	DB	09H
	DB	0c5H
	DB	0a7H
	DB	09bH
	DB	0a7H
	DB	0c5H
	DB	09H
	DB	03H
	DB	09bH
	DB	04dH
	DB	06cH
	DB	03dH
	DB	04H
	DB	04H
	DB	04H
	DB	04H
	DB	04H
	DB	04H
	DB	04H
	DB	04H
	DB	04H
	DB	04H
	DB	04H
	DB	04H
	DB	04H
	DB	04H
	DB	04H
	DB	04H
	DB	04H
	DB	04H
	DB	04H
	DB	04H
	DB	04H
	DB	04H
	DB	04H
	DB	04H
	DB	04H
	DB	04H
	DB	04H
	DB	04H
	DB	04H
	DB	04H
	DB	04H
	DB	04H
	DB	04H
	DB	04H
	DB	04H
	DB	04H
	DB	04H
	DB	04H
	DB	04H
	DB	04H
	DB	04H
	DB	04H
	DB	04H
	DB	04H
	DB	04H
	DB	04H
	DB	04H
	DB	04H
	DB	04H
	DB	04H
	DB	04H
	DB	04H
	DB	04H
	DB	04H
	DB	04H
	DB	04H
	DB	04H
	DB	04H
	DB	04H
	DB	04H
	DB	04H
	DB	04H
	DB	063H
	DB	077H
	DB	05H
	DB	05H
	DB	05H
	DB	059H
	DB	073H
	DB	045H
	DB	029H
	DB	029H
	DB	029H
	DB	015H
	DB	04H
	DB	04H
	DB	03dH
	DB	09eH
	DB	074H
	DB	05H
	DB	05H
	DB	05H
	DB	05H
	DB	074H
	DB	01dH
	DB	074H
	DB	05H
	DB	05H
	DB	05H
	DB	07aH
	DB	0ddH
	DB	0b8H
	DB	04H
	DB	03dH
	DB	024H
	DB	013H
	DB	01dH
	DB	010H
	DB	081H
	DB	081H
	DB	034H
	DB	027H
	DB	05H
	DB	05H
	DB	05H
	DB	098H
	DB	0a1H
	DB	03dH
	DB	065H
	DB	059H
	DB	05H
	DB	05H
	DB	05H
	DB	05H
	DB	027H
	DB	0cdH
	DB	027H
	DB	05H
	DB	05H
	DB	05H
	DB	05H
	DB	091H
	DB	088H
	DB	03dH
	DB	065H
	DB	085H
	DB	05H
	DB	05H
	DB	07fH
	DB	04dH
	DB	01cH
	DB	0eeH
	DB	0acH
	DB	059H
	DB	05H
	DB	05H
	DB	01eH
	DB	0bcH
	DB	073H
	DB	0bbH
	DB	0ceH
	DB	05H
	DB	05H
	DB	05H
	DB	081H
	DB	026H
	DB	03dH
	DB	0e4H
	DB	07H
	DB	05H
	DB	05H
	DB	05H
	DB	07aH
	DB	0cH
	DB	07H
	DB	07fH
	DB	05H
	DB	05H
	DB	05H
	DB	05H
	DB	010H
	DB	06aH
	DB	05bH
	DB	04H
	DB	04H
	DB	04H
	DB	04H
	DB	04H
	DB	04H
	DB	04H
	DB	04H
	DB	04H
	DB	04H
	DB	04H
	DB	04H
	DB	04H
	DB	04H
	DB	04H
	DB	04H
	DB	04H
	DB	04H
	DB	04H
	DB	04H
	DB	04H
	DB	04H
	DB	04H
	DB	04H
	DB	04H
	DB	04H
	DB	04H
	DB	04H
	DB	04H
	DB	04H
	DB	04H
	DB	04H
	DB	04H
	DB	04H
	DB	04H
	DB	04H
	DB	04H
	DB	04H
	DB	04H
	DB	04H
	DB	04H
	DB	04H
	DB	04H
	DB	04H
	DB	04H
	DB	04H
	DB	04H
	DB	04H
	DB	04H
	DB	04H
	DB	04H
	DB	04H
	DB	04H
	DB	04H
	DB	04H
	DB	04H
	DB	04H
	DB	04H
	DB	04H
	DB	04H
	DB	04H
	DB	04H
	DB	05bH
	DB	062H
	DB	023H
	DB	0a7H
	DB	097H
	DB	097H
	DB	0a7H
	DB	09bH
	DB	0c5H
	DB	07H
	DB	0e0H
	DB	0afH
	DB	0cdH
	DB	09H
	DB	03H
	DB	03H
	DB	03H
	DB	0a7H
	DB	0a7H
	DB	03H
	DB	03H
	DB	03H
	DB	0a7H
	DB	0a7H
	DB	03H
	DB	03H
	DB	07H
	DB	08eH
	DB	01H
	DB	01H
	DB	01H
	DB	01H
	DB	01H
	DB	01H
	DB	035H
	DB	01fH
	DB	01fH
	DB	055H
	DB	01H
	DB	01H
	DB	01H
	DB	01H
	DB	01H
	DB	01H
	DB	01H
	DB	043H
	DB	01fH
	DB	01fH
	DB	01fH
	DB	035H
	DB	01H
	DB	055H
	DB	01fH
	DB	01fH
	DB	048H
	DB	01H
	DB	01H
	DB	01H
	DB	01H
	DB	01bH
	DB	022H
	DB	01fH
	DB	028H
	DB	01bH
	DB	01H
	DB	048H
	DB	01fH
	DB	01fH
	DB	043H
	DB	01H
	DB	01H
	DB	048H
	DB	01fH
	DB	01fH
	DB	028H
	DB	01H
	DB	01H
	DB	01H
	DB	01H
	DB	01H
	DB	06bH
	DB	01fH
	DB	01fH
	DB	060H
	DB	035H
	DB	01H
	DB	01H
	DB	01H
	DB	055H
	DB	01fH
	DB	095H
	DB	048H
	DB	01H
	DB	01H
	DB	01H
	DB	01bH
	DB	01fH
	DB	01fH
	DB	022H
	DB	016H
	DB	01H
	DB	01H
	DB	01H
	DB	01H
	DB	01H
	DB	01H
	DB	03bH
	DB	01fH
	DB	01fH
	DB	06bH
	DB	01H
	DB	01H
	DB	01H
	DB	01H
	DB	01H
	DB	01H
	DB	016H
	DB	022H
	DB	01fH
	DB	01fH
	DB	03bH
	DB	01H
	DB	06bH
	DB	01fH
	DB	01fH
	DB	028H
	DB	01H
	DB	035H
	DB	028H
	DB	01fH
	DB	022H
	DB	06bH
	DB	01H
	DB	01H
	DB	01H
	DB	01H
	DB	01H
	DB	01H
	DB	016H
	DB	043H
	DB	028H
	DB	01fH
	DB	01fH
	DB	028H
	DB	01bH
	DB	01H
	DB	01H
	DB	01H
	DB	01H
	DB	01H
	DB	01H
	DB	01H
	DB	01H
	DB	016H
	DB	060H
	DB	01fH
	DB	055H
	DB	01H
	DB	01H
	DB	01H
	DB	01H
	DB	01H
	DB	01H
	DB	01H
	DB	01H
	DB	01H
	DB	01bH
	DB	028H
	DB	01fH
	DB	01fH
	DB	028H
	DB	048H
	DB	035H
	DB	01H
	DB	01H
	DB	01H
	DB	01H
	DB	01H
	DB	01H
	DB	01H
	DB	01H
	DB	06bH
	DB	01fH
	DB	01fH
	DB	01fH
	DB	01fH
	DB	01fH
	DB	01fH
	DB	01fH
	DB	01fH
	DB	01fH
	DB	01fH
	DB	022H
	DB	01H
	DB	016H
	DB	060H
	DB	01fH
	DB	01fH
	DB	01fH
	DB	01fH
	DB	01fH
	DB	01fH
	DB	01fH
	DB	01fH
	DB	01fH
	DB	01fH
	DB	016H
	DB	01H
	DB	01H
	DB	01H
	DB	01H
	DB	01bH
	DB	028H
	DB	01fH
	DB	060H
	DB	03bH
	DB	016H
	DB	01H
	DB	01H
	DB	01H
	DB	01H
	DB	01H
	DB	01H
	DB	01H
	DB	01H
	DB	0cdH
	DB	033H
	DB	0a7H
	DB	03H
	DB	03H
	DB	0a7H
	DB	0a7H
	DB	03H
	DB	03H
	DB	03H
	DB	0a7H
	DB	0a7H
	DB	03H
	DB	03H
	DB	03H
	DB	03H
	DB	09bH
	DB	04dH
	DB	06cH
	DB	03dH
	DB	04H
	DB	04H
	DB	04H
	DB	04H
	DB	04H
	DB	04H
	DB	04H
	DB	04H
	DB	04H
	DB	04H
	DB	04H
	DB	04H
	DB	04H
	DB	04H
	DB	04H
	DB	04H
	DB	04H
	DB	04H
	DB	04H
	DB	04H
	DB	04H
	DB	04H
	DB	04H
	DB	04H
	DB	04H
	DB	04H
	DB	04H
	DB	04H
	DB	04H
	DB	04H
	DB	04H
	DB	04H
	DB	04H
	DB	04H
	DB	04H
	DB	04H
	DB	04H
	DB	04H
	DB	04H
	DB	04H
	DB	04H
	DB	04H
	DB	04H
	DB	04H
	DB	04H
	DB	04H
	DB	04H
	DB	04H
	DB	04H
	DB	04H
	DB	04H
	DB	04H
	DB	04H
	DB	04H
	DB	04H
	DB	04H
	DB	04H
	DB	04H
	DB	04H
	DB	04H
	DB	04H
	DB	04H
	DB	063H
	DB	077H
	DB	05H
	DB	05H
	DB	05H
	DB	0feH
	DB	07H
	DB	0d7H
	DB	0d7H
	DB	0d7H
	DB	0d8H
	DB	0b7H
	DB	0b8H
	DB	04H
	DB	03dH
	DB	09eH
	DB	074H
	DB	05H
	DB	05H
	DB	05H
	DB	0f9H
	DB	0bbH
	DB	03eH
	DB	04dH
	DB	085H
	DB	05H
	DB	05H
	DB	05H
	DB	077H
	DB	0e4H
	DB	04H
	DB	04H
	DB	04H
	DB	0d3H
	DB	06aH
	DB	0a8H
	DB	0a8H
	DB	0a8H
	DB	0dbH
	DB	0b3H
	DB	07aH
	DB	05H
	DB	05H
	DB	01dH
	DB	046H
	DB	0eeH
	DB	065H
	DB	059H
	DB	05H
	DB	05H
	DB	05H
	DB	0b0H
	DB	03eH
	DB	04cH
	DB	05eH
	DB	0d9H
	DB	05H
	DB	05H
	DB	05H
	DB	01dH
	DB	0c9H
	DB	04H
	DB	0e3H
	DB	085H
	DB	05H
	DB	05H
	DB	07fH
	DB	04dH
	DB	01cH
	DB	088H
	DB	098H
	DB	05H
	DB	05H
	DB	05H
	DB	012H
	DB	0a8H
	DB	046H
	DB	08cH
	DB	0dcH
	DB	07aH
	DB	05H
	DB	05H
	DB	0cH
	DB	045H
	DB	0eeH
	DB	08dH
	DB	074H
	DB	05H
	DB	05H
	DB	05H
	DB	081H
	DB	073H
	DB	0a8H
	DB	0bcH
	DB	00H
	DB	05H
	DB	05H
	DB	05H
	DB	010H
	DB	06aH
	DB	05bH
	DB	04H
	DB	04H
	DB	04H
	DB	04H
	DB	04H
	DB	04H
	DB	04H
	DB	04H
	DB	04H
	DB	04H
	DB	04H
	DB	04H
	DB	04H
	DB	04H
	DB	04H
	DB	04H
	DB	04H
	DB	04H
	DB	04H
	DB	04H
	DB	04H
	DB	04H
	DB	04H
	DB	04H
	DB	04H
	DB	04H
	DB	04H
	DB	04H
	DB	04H
	DB	04H
	DB	04H
	DB	04H
	DB	04H
	DB	04H
	DB	04H
	DB	04H
	DB	04H
	DB	04H
	DB	04H
	DB	04H
	DB	04H
	DB	04H
	DB	04H
	DB	04H
	DB	04H
	DB	04H
	DB	04H
	DB	04H
	DB	04H
	DB	04H
	DB	04H
	DB	04H
	DB	04H
	DB	04H
	DB	04H
	DB	04H
	DB	04H
	DB	04H
	DB	04H
	DB	04H
	DB	04H
	DB	04H
	DB	05bH
	DB	062H
	DB	023H
	DB	09bH
	DB	03H
	DB	03H
	DB	03H
	DB	09bH
	DB	0c5H
	DB	07H
	DB	0e0H
	DB	0afH
	DB	0cdH
	DB	09H
	DB	09bH
	DB	0a7H
	DB	0c5H
	DB	097H
	DB	0c5H
	DB	0a7H
	DB	0a7H
	DB	03H
	DB	0c5H
	DB	0c5H
	DB	03H
	DB	066H
	DB	07H
	DB	0caH
	DB	01H
	DB	01H
	DB	01H
	DB	01H
	DB	01H
	DB	01H
	DB	01H
	DB	01H
	DB	01H
	DB	01H
	DB	01H
	DB	01H
	DB	01H
	DB	01H
	DB	01H
	DB	01H
	DB	01H
	DB	01H
	DB	01H
	DB	01H
	DB	01H
	DB	01H
	DB	01H
	DB	01H
	DB	01H
	DB	01H
	DB	01H
	DB	01H
	DB	01H
	DB	01H
	DB	01H
	DB	01H
	DB	01H
	DB	01H
	DB	01H
	DB	01H
	DB	01H
	DB	01H
	DB	01H
	DB	01H
	DB	01H
	DB	01H
	DB	01H
	DB	01H
	DB	01H
	DB	01H
	DB	01H
	DB	01H
	DB	01H
	DB	01H
	DB	01H
	DB	01H
	DB	01H
	DB	01H
	DB	01H
	DB	01H
	DB	01H
	DB	01H
	DB	01H
	DB	01H
	DB	01H
	DB	01H
	DB	01H
	DB	01H
	DB	01H
	DB	01H
	DB	01H
	DB	01H
	DB	01H
	DB	01H
	DB	01H
	DB	01H
	DB	01H
	DB	01H
	DB	01H
	DB	01H
	DB	01H
	DB	01H
	DB	01H
	DB	01H
	DB	01H
	DB	01H
	DB	01H
	DB	01H
	DB	01H
	DB	01H
	DB	01H
	DB	01H
	DB	01H
	DB	01H
	DB	01H
	DB	01H
	DB	01H
	DB	01H
	DB	01H
	DB	01H
	DB	01H
	DB	01H
	DB	01H
	DB	01H
	DB	01H
	DB	01H
	DB	01H
	DB	01H
	DB	01H
	DB	01H
	DB	01H
	DB	01H
	DB	01H
	DB	01H
	DB	01H
	DB	01H
	DB	01H
	DB	01H
	DB	01H
	DB	01H
	DB	01H
	DB	01H
	DB	01H
	DB	01H
	DB	01H
	DB	01H
	DB	01H
	DB	01H
	DB	01H
	DB	01H
	DB	01H
	DB	01H
	DB	01H
	DB	01H
	DB	01H
	DB	01H
	DB	01H
	DB	01H
	DB	01H
	DB	01H
	DB	01H
	DB	01H
	DB	01H
	DB	01H
	DB	01H
	DB	01H
	DB	01H
	DB	01H
	DB	01H
	DB	01H
	DB	01H
	DB	01H
	DB	01H
	DB	01H
	DB	01H
	DB	01H
	DB	01H
	DB	01H
	DB	01H
	DB	01H
	DB	01H
	DB	01H
	DB	01H
	DB	01H
	DB	01H
	DB	01H
	DB	01H
	DB	01H
	DB	01H
	DB	01H
	DB	01H
	DB	01H
	DB	01H
	DB	01H
	DB	01H
	DB	01H
	DB	01H
	DB	01H
	DB	01H
	DB	01H
	DB	01H
	DB	01H
	DB	01H
	DB	01H
	DB	01H
	DB	01H
	DB	01H
	DB	01H
	DB	01H
	DB	01H
	DB	01H
	DB	01H
	DB	01H
	DB	01H
	DB	01H
	DB	01H
	DB	01H
	DB	01H
	DB	01H
	DB	01H
	DB	01H
	DB	0cdH
	DB	0dfH
	DB	09bH
	DB	0a7H
	DB	03H
	DB	0c5H
	DB	0c5H
	DB	03H
	DB	0a7H
	DB	03H
	DB	0c5H
	DB	097H
	DB	0c5H
	DB	0a7H
	DB	0a7H
	DB	03H
	DB	03H
	DB	04dH
	DB	06cH
	DB	03dH
	DB	04H
	DB	04H
	DB	04H
	DB	04H
	DB	04H
	DB	04H
	DB	04H
	DB	04H
	DB	04H
	DB	04H
	DB	04H
	DB	04H
	DB	04H
	DB	04H
	DB	04H
	DB	04H
	DB	04H
	DB	04H
	DB	04H
	DB	04H
	DB	04H
	DB	04H
	DB	04H
	DB	04H
	DB	04H
	DB	04H
	DB	04H
	DB	04H
	DB	04H
	DB	04H
	DB	04H
	DB	04H
	DB	04H
	DB	04H
	DB	04H
	DB	04H
	DB	04H
	DB	04H
	DB	04H
	DB	04H
	DB	04H
	DB	04H
	DB	04H
	DB	04H
	DB	04H
	DB	04H
	DB	04H
	DB	04H
	DB	04H
	DB	04H
	DB	04H
	DB	04H
	DB	04H
	DB	04H
	DB	04H
	DB	04H
	DB	04H
	DB	04H
	DB	04H
	DB	04H
	DB	04H
	DB	04H
	DB	063H
	DB	077H
	DB	05H
	DB	05H
	DB	05H
	DB	05H
	DB	05H
	DB	05H
	DB	05H
	DB	05H
	DB	05H
	DB	091H
	DB	088H
	DB	04H
	DB	03dH
	DB	046H
	DB	074H
	DB	05H
	DB	05H
	DB	01eH
	DB	0bbH
	DB	080H
	DB	045H
	DB	080H
	DB	0cdH
	DB	05H
	DB	05H
	DB	05H
	DB	077H
	DB	087H
	DB	014H
	DB	03dH
	DB	0eeH
	DB	0e4H
	DB	0ddH
	DB	091H
	DB	098H
	DB	094H
	DB	0ddH
	DB	0bbH
	DB	07fH
	DB	05H
	DB	05H
	DB	059H
	DB	0c8H
	DB	063H
	DB	065H
	DB	059H
	DB	05H
	DB	05H
	DB	05H
	DB	011H
	DB	0dbH
	DB	045H
	DB	082H
	DB	0d1H
	DB	07aH
	DB	05H
	DB	05H
	DB	074H
	DB	09dH
	DB	063H
	DB	0e3H
	DB	059H
	DB	05H
	DB	05H
	DB	07fH
	DB	04dH
	DB	018H
	DB	045H
	DB	027H
	DB	05H
	DB	05H
	DB	020H
	DB	04dH
	DB	06aH
	DB	029H
	DB	07eH
	DB	045H
	DB	0baH
	DB	05H
	DB	05H
	DB	08aH
	DB	0a3H
	DB	0d6H
	DB	0c0H
	DB	05H
	DB	05H
	DB	05H
	DB	085H
	DB	073H
	DB	064H
	DB	062H
	DB	06aH
	DB	0cH
	DB	05H
	DB	05H
	DB	05H
	DB	010H
	DB	06aH
	DB	05bH
	DB	04H
	DB	04H
	DB	04H
	DB	04H
	DB	04H
	DB	04H
	DB	04H
	DB	04H
	DB	04H
	DB	04H
	DB	04H
	DB	04H
	DB	04H
	DB	04H
	DB	04H
	DB	04H
	DB	04H
	DB	04H
	DB	04H
	DB	04H
	DB	04H
	DB	04H
	DB	04H
	DB	04H
	DB	04H
	DB	04H
	DB	04H
	DB	04H
	DB	04H
	DB	04H
	DB	04H
	DB	04H
	DB	04H
	DB	04H
	DB	04H
	DB	04H
	DB	04H
	DB	04H
	DB	04H
	DB	04H
	DB	04H
	DB	04H
	DB	04H
	DB	04H
	DB	04H
	DB	04H
	DB	04H
	DB	04H
	DB	04H
	DB	04H
	DB	04H
	DB	04H
	DB	04H
	DB	04H
	DB	04H
	DB	04H
	DB	04H
	DB	04H
	DB	04H
	DB	04H
	DB	04H
	DB	04H
	DB	05bH
	DB	062H
	DB	023H
	DB	09bH
	DB	0a7H
	DB	0a7H
	DB	0c5H
	DB	0c5H
	DB	09H
	DB	07H
	DB	0e0H
	DB	0afH
	DB	0cdH
	DB	0c5H
	DB	01H
	DB	09bH
	DB	03H
	DB	0c5H
	DB	03H
	DB	09bH
	DB	09bH
	DB	0a7H
	DB	0c5H
	DB	0c5H
	DB	0a7H
	DB	09bH
	DB	07H
	DB	0caH
	DB	01H
	DB	01H
	DB	01H
	DB	01H
	DB	01H
	DB	01H
	DB	01H
	DB	01H
	DB	01H
	DB	01H
	DB	01H
	DB	01H
	DB	01H
	DB	01H
	DB	01H
	DB	01H
	DB	01H
	DB	01H
	DB	01H
	DB	01H
	DB	01H
	DB	01H
	DB	01H
	DB	01H
	DB	01H
	DB	01H
	DB	01H
	DB	01H
	DB	01H
	DB	01H
	DB	01H
	DB	01H
	DB	01H
	DB	01H
	DB	01H
	DB	01H
	DB	01H
	DB	01H
	DB	01H
	DB	01H
	DB	01H
	DB	01H
	DB	01H
	DB	01H
	DB	01H
	DB	01H
	DB	01H
	DB	01H
	DB	01H
	DB	01H
	DB	01H
	DB	01H
	DB	01H
	DB	01H
	DB	01H
	DB	01H
	DB	01H
	DB	01H
	DB	01H
	DB	01H
	DB	01H
	DB	01H
	DB	01H
	DB	01H
	DB	01H
	DB	01H
	DB	01H
	DB	01H
	DB	01H
	DB	01H
	DB	01H
	DB	01H
	DB	01H
	DB	01H
	DB	01H
	DB	01H
	DB	01H
	DB	01H
	DB	01H
	DB	01H
	DB	01H
	DB	01H
	DB	01H
	DB	01H
	DB	01H
	DB	01H
	DB	01H
	DB	01H
	DB	01H
	DB	01H
	DB	01H
	DB	01H
	DB	01H
	DB	01H
	DB	01H
	DB	01H
	DB	01H
	DB	01H
	DB	01H
	DB	01H
	DB	01H
	DB	01H
	DB	01H
	DB	01H
	DB	01H
	DB	01H
	DB	01H
	DB	01H
	DB	01H
	DB	01H
	DB	01H
	DB	01H
	DB	01H
	DB	01H
	DB	01H
	DB	01H
	DB	01H
	DB	01H
	DB	01H
	DB	01H
	DB	01H
	DB	01H
	DB	01H
	DB	01H
	DB	01H
	DB	01H
	DB	01H
	DB	01H
	DB	01H
	DB	01H
	DB	01H
	DB	01H
	DB	01H
	DB	01H
	DB	01H
	DB	01H
	DB	01H
	DB	01H
	DB	01H
	DB	01H
	DB	01H
	DB	01H
	DB	01H
	DB	01H
	DB	01H
	DB	01H
	DB	01H
	DB	01H
	DB	01H
	DB	01H
	DB	01H
	DB	01H
	DB	01H
	DB	01H
	DB	01H
	DB	01H
	DB	01H
	DB	01H
	DB	01H
	DB	01H
	DB	01H
	DB	01H
	DB	01H
	DB	01H
	DB	01H
	DB	01H
	DB	01H
	DB	01H
	DB	01H
	DB	01H
	DB	01H
	DB	01H
	DB	01H
	DB	01H
	DB	01H
	DB	01H
	DB	01H
	DB	01H
	DB	01H
	DB	01H
	DB	01H
	DB	01H
	DB	01H
	DB	01H
	DB	01H
	DB	01H
	DB	01H
	DB	01H
	DB	01H
	DB	01H
	DB	01H
	DB	01H
	DB	01H
	DB	01H
	DB	01H
	DB	01H
	DB	01H
	DB	0cdH
	DB	033H
	DB	01H
	DB	09bH
	DB	03H
	DB	0c5H
	DB	03H
	DB	09bH
	DB	09bH
	DB	09bH
	DB	03H
	DB	0c5H
	DB	03H
	DB	09bH
	DB	09bH
	DB	0a7H
	DB	03H
	DB	04dH
	DB	06cH
	DB	03dH
	DB	04H
	DB	04H
	DB	04H
	DB	04H
	DB	04H
	DB	04H
	DB	04H
	DB	04H
	DB	04H
	DB	04H
	DB	04H
	DB	04H
	DB	04H
	DB	04H
	DB	04H
	DB	04H
	DB	04H
	DB	04H
	DB	04H
	DB	04H
	DB	04H
	DB	04H
	DB	04H
	DB	04H
	DB	04H
	DB	04H
	DB	04H
	DB	04H
	DB	04H
	DB	04H
	DB	04H
	DB	04H
	DB	04H
	DB	04H
	DB	04H
	DB	04H
	DB	04H
	DB	04H
	DB	04H
	DB	04H
	DB	04H
	DB	04H
	DB	04H
	DB	04H
	DB	04H
	DB	04H
	DB	04H
	DB	04H
	DB	04H
	DB	04H
	DB	04H
	DB	04H
	DB	04H
	DB	04H
	DB	04H
	DB	04H
	DB	04H
	DB	04H
	DB	04H
	DB	04H
	DB	04H
	DB	04H
	DB	063H
	DB	077H
	DB	05H
	DB	05H
	DB	05H
	DB	05H
	DB	05H
	DB	05H
	DB	05H
	DB	05H
	DB	05H
	DB	08H
	DB	087H
	DB	014H
	DB	03dH
	DB	046H
	DB	074H
	DB	05H
	DB	05H
	DB	059H
	DB	04dH
	DB	045H
	DB	026H
	DB	079H
	DB	089H
	DB	05H
	DB	05H
	DB	05H
	DB	081H
	DB	082H
	DB	014H
	DB	0b8H
	DB	0a3H
	DB	0afH
	DB	07aH
	DB	05H
	DB	05H
	DB	05H
	DB	05H
	DB	0d8H
	DB	00H
	DB	05H
	DB	05H
	DB	059H
	DB	0aaH
	DB	088H
	DB	065H
	DB	059H
	DB	05H
	DB	05H
	DB	074H
	DB	0dcH
	DB	0c9H
	DB	018H
	DB	0b8H
	DB	0acH
	DB	08aH
	DB	05H
	DB	05H
	DB	07aH
	DB	0a5H
	DB	0a1H
	DB	065H
	DB	059H
	DB	05H
	DB	05H
	DB	07fH
	DB	04dH
	DB	088H
	DB	0a3H
	DB	07fH
	DB	05H
	DB	05H
	DB	01eH
	DB	0bcH
	DB	09dH
	DB	08dH
	DB	08dH
	DB	0a3H
	DB	0cH
	DB	05H
	DB	05H
	DB	05H
	DB	0bdH
	DB	087H
	DB	098H
	DB	05H
	DB	05H
	DB	05H
	DB	0cH
	DB	0a8H
	DB	057H
	DB	05bH
	DB	0a1H
	DB	098H
	DB	05H
	DB	05H
	DB	05H
	DB	010H
	DB	06aH
	DB	05bH
	DB	04H
	DB	04H
	DB	04H
	DB	04H
	DB	04H
	DB	04H
	DB	04H
	DB	04H
	DB	04H
	DB	04H
	DB	04H
	DB	04H
	DB	04H
	DB	04H
	DB	04H
	DB	04H
	DB	04H
	DB	04H
	DB	04H
	DB	04H
	DB	04H
	DB	04H
	DB	04H
	DB	04H
	DB	04H
	DB	04H
	DB	04H
	DB	04H
	DB	04H
	DB	04H
	DB	04H
	DB	04H
	DB	04H
	DB	04H
	DB	04H
	DB	04H
	DB	04H
	DB	04H
	DB	04H
	DB	04H
	DB	04H
	DB	04H
	DB	04H
	DB	04H
	DB	04H
	DB	04H
	DB	04H
	DB	04H
	DB	04H
	DB	04H
	DB	04H
	DB	04H
	DB	04H
	DB	04H
	DB	04H
	DB	04H
	DB	04H
	DB	04H
	DB	04H
	DB	04H
	DB	04H
	DB	04H
	DB	05bH
	DB	062H
	DB	023H
	DB	09bH
	DB	09bH
	DB	09bH
	DB	03H
	DB	03H
	DB	09H
	DB	07H
	DB	0e0H
	DB	0afH
	DB	0cdH
	DB	0c5H
	DB	0a7H
	DB	0a7H
	DB	03H
	DB	03H
	DB	03H
	DB	0a7H
	DB	0a7H
	DB	03H
	DB	03H
	DB	03H
	DB	0a7H
	DB	03H
	DB	07H
	DB	0caH
	DB	01H
	DB	01H
	DB	01H
	DB	01H
	DB	01H
	DB	01H
	DB	01H
	DB	01H
	DB	01H
	DB	01H
	DB	01H
	DB	01H
	DB	01H
	DB	01H
	DB	01H
	DB	01H
	DB	01H
	DB	01H
	DB	01H
	DB	01H
	DB	01H
	DB	01H
	DB	01H
	DB	01H
	DB	01H
	DB	01H
	DB	01H
	DB	01H
	DB	01H
	DB	01H
	DB	01H
	DB	01H
	DB	01H
	DB	01H
	DB	01H
	DB	01H
	DB	01H
	DB	01H
	DB	01H
	DB	01H
	DB	01H
	DB	01H
	DB	01H
	DB	01H
	DB	01H
	DB	01H
	DB	01H
	DB	01H
	DB	01H
	DB	01H
	DB	01H
	DB	01H
	DB	01H
	DB	01H
	DB	01H
	DB	01H
	DB	01H
	DB	01H
	DB	01H
	DB	01H
	DB	01H
	DB	01H
	DB	01H
	DB	01H
	DB	01H
	DB	01H
	DB	01H
	DB	01H
	DB	01H
	DB	01H
	DB	01H
	DB	01H
	DB	01H
	DB	01H
	DB	01H
	DB	01H
	DB	01H
	DB	01H
	DB	01H
	DB	01H
	DB	01H
	DB	01H
	DB	01H
	DB	01H
	DB	01H
	DB	01H
	DB	01H
	DB	01H
	DB	01H
	DB	01H
	DB	01H
	DB	01H
	DB	01H
	DB	01H
	DB	01H
	DB	01H
	DB	01H
	DB	01H
	DB	01H
	DB	01H
	DB	01H
	DB	01H
	DB	01H
	DB	01H
	DB	01H
	DB	01H
	DB	01H
	DB	01H
	DB	01H
	DB	01H
	DB	01H
	DB	01H
	DB	01H
	DB	01H
	DB	01H
	DB	01H
	DB	01H
	DB	01H
	DB	01H
	DB	01H
	DB	01H
	DB	01H
	DB	01H
	DB	01H
	DB	01H
	DB	01H
	DB	01H
	DB	01H
	DB	01H
	DB	01H
	DB	01H
	DB	01H
	DB	01H
	DB	01H
	DB	01H
	DB	01H
	DB	01H
	DB	01H
	DB	01H
	DB	01H
	DB	01H
	DB	01H
	DB	01H
	DB	01H
	DB	01H
	DB	01H
	DB	01H
	DB	01H
	DB	01H
	DB	01H
	DB	01H
	DB	01H
	DB	01H
	DB	01H
	DB	01H
	DB	01H
	DB	01H
	DB	01H
	DB	01H
	DB	01H
	DB	01H
	DB	01H
	DB	01H
	DB	01H
	DB	01H
	DB	01H
	DB	01H
	DB	01H
	DB	01H
	DB	01H
	DB	01H
	DB	01H
	DB	01H
	DB	01H
	DB	01H
	DB	01H
	DB	01H
	DB	01H
	DB	01H
	DB	01H
	DB	01H
	DB	01H
	DB	01H
	DB	01H
	DB	01H
	DB	01H
	DB	01H
	DB	01H
	DB	01H
	DB	01H
	DB	01H
	DB	01H
	DB	01H
	DB	01H
	DB	01H
	DB	01H
	DB	01H
	DB	0cdH
	DB	033H
	DB	09bH
	DB	0a7H
	DB	03H
	DB	03H
	DB	03H
	DB	03H
	DB	0a7H
	DB	03H
	DB	03H
	DB	03H
	DB	03H
	DB	0a7H
	DB	0a7H
	DB	03H
	DB	0a7H
	DB	04dH
	DB	06cH
	DB	03dH
	DB	04H
	DB	04H
	DB	04H
	DB	04H
	DB	04H
	DB	04H
	DB	04H
	DB	04H
	DB	04H
	DB	04H
	DB	04H
	DB	04H
	DB	04H
	DB	04H
	DB	04H
	DB	04H
	DB	04H
	DB	04H
	DB	04H
	DB	04H
	DB	04H
	DB	04H
	DB	04H
	DB	04H
	DB	04H
	DB	04H
	DB	04H
	DB	04H
	DB	04H
	DB	04H
	DB	04H
	DB	04H
	DB	04H
	DB	04H
	DB	04H
	DB	04H
	DB	04H
	DB	04H
	DB	04H
	DB	04H
	DB	04H
	DB	04H
	DB	04H
	DB	04H
	DB	04H
	DB	04H
	DB	04H
	DB	04H
	DB	04H
	DB	04H
	DB	04H
	DB	04H
	DB	04H
	DB	04H
	DB	04H
	DB	04H
	DB	04H
	DB	04H
	DB	04H
	DB	04H
	DB	04H
	DB	04H
	DB	063H
	DB	077H
	DB	05H
	DB	05H
	DB	05H
	DB	08aH
	DB	0bcH
	DB	011H
	DB	011H
	DB	011H
	DB	011H
	DB	04dH
	DB	062H
	DB	05bH
	DB	03dH
	DB	046H
	DB	074H
	DB	05H
	DB	05H
	DB	059H
	DB	06fH
	DB	029H
	DB	04H
	DB	0a1H
	DB	089H
	DB	05H
	DB	05H
	DB	05H
	DB	081H
	DB	082H
	DB	014H
	DB	045H
	DB	0baH
	DB	05H
	DB	05H
	DB	05H
	DB	0baH
	DB	013H
	DB	0cH
	DB	05H
	DB	05H
	DB	05H
	DB	05H
	DB	059H
	DB	06fH
	DB	088H
	DB	065H
	DB	059H
	DB	05H
	DB	05H
	DB	01eH
	DB	04dH
	DB	057H
	DB	014H
	DB	04H
	DB	065H
	DB	059H
	DB	05H
	DB	05H
	DB	05H
	DB	084H
	DB	079H
	DB	065H
	DB	059H
	DB	05H
	DB	05H
	DB	07fH
	DB	04dH
	DB	0a1H
	DB	0b6H
	DB	07aH
	DB	05H
	DB	05H
	DB	05H
	DB	07aH
	DB	07aH
	DB	07aH
	DB	07aH
	DB	07aH
	DB	05H
	DB	05H
	DB	05H
	DB	05H
	DB	0bdH
	DB	08cH
	DB	0cdH
	DB	05H
	DB	05H
	DB	05H
	DB	09aH
	DB	04cH
	DB	018H
	DB	04H
	DB	063H
	DB	094H
	DB	05H
	DB	05H
	DB	05H
	DB	010H
	DB	06aH
	DB	05bH
	DB	04H
	DB	04H
	DB	04H
	DB	04H
	DB	04H
	DB	04H
	DB	04H
	DB	04H
	DB	04H
	DB	04H
	DB	04H
	DB	04H
	DB	04H
	DB	04H
	DB	04H
	DB	04H
	DB	04H
	DB	04H
	DB	04H
	DB	04H
	DB	04H
	DB	04H
	DB	04H
	DB	04H
	DB	04H
	DB	04H
	DB	04H
	DB	04H
	DB	04H
	DB	04H
	DB	04H
	DB	04H
	DB	04H
	DB	04H
	DB	04H
	DB	04H
	DB	04H
	DB	04H
	DB	04H
	DB	04H
	DB	04H
	DB	04H
	DB	04H
	DB	04H
	DB	04H
	DB	04H
	DB	04H
	DB	04H
	DB	04H
	DB	04H
	DB	04H
	DB	04H
	DB	04H
	DB	04H
	DB	04H
	DB	04H
	DB	04H
	DB	04H
	DB	04H
	DB	04H
	DB	04H
	DB	04H
	DB	05bH
	DB	062H
	DB	023H
	DB	09bH
	DB	0a7H
	DB	0a7H
	DB	03H
	DB	0a7H
	DB	097H
	DB	07H
	DB	0e0H
	DB	0afH
	DB	0cdH
	DB	09H
	DB	03H
	DB	03H
	DB	0a7H
	DB	09bH
	DB	0a7H
	DB	03H
	DB	0c5H
	DB	03H
	DB	09bH
	DB	09bH
	DB	0a7H
	DB	0c5H
	DB	07H
	DB	08eH
	DB	01H
	DB	01H
	DB	01H
	DB	01H
	DB	01H
	DB	01H
	DB	01H
	DB	01H
	DB	01H
	DB	01H
	DB	01H
	DB	01H
	DB	01H
	DB	01H
	DB	01H
	DB	01H
	DB	01H
	DB	01H
	DB	01H
	DB	01H
	DB	01H
	DB	01H
	DB	01H
	DB	01H
	DB	01H
	DB	01H
	DB	01H
	DB	01H
	DB	01H
	DB	01H
	DB	01H
	DB	01H
	DB	01H
	DB	01H
	DB	01H
	DB	01H
	DB	01H
	DB	01H
	DB	01H
	DB	01H
	DB	01H
	DB	01H
	DB	01H
	DB	01H
	DB	01H
	DB	01H
	DB	01H
	DB	01H
	DB	01H
	DB	01H
	DB	01H
	DB	01H
	DB	01H
	DB	01H
	DB	01H
	DB	01H
	DB	01H
	DB	01H
	DB	01H
	DB	01H
	DB	01H
	DB	01H
	DB	01H
	DB	01H
	DB	01H
	DB	01H
	DB	01H
	DB	01H
	DB	01H
	DB	01H
	DB	01H
	DB	01H
	DB	01H
	DB	01H
	DB	01H
	DB	01H
	DB	01H
	DB	01H
	DB	01H
	DB	01H
	DB	01H
	DB	01H
	DB	01H
	DB	01H
	DB	01H
	DB	01H
	DB	01H
	DB	01H
	DB	01H
	DB	01H
	DB	01H
	DB	01H
	DB	01H
	DB	01H
	DB	01H
	DB	01H
	DB	01H
	DB	01H
	DB	01H
	DB	01H
	DB	01H
	DB	01H
	DB	01H
	DB	01H
	DB	01H
	DB	01H
	DB	01H
	DB	01H
	DB	01H
	DB	01H
	DB	01H
	DB	01H
	DB	01H
	DB	01H
	DB	01H
	DB	01H
	DB	01H
	DB	01H
	DB	01H
	DB	01H
	DB	01H
	DB	01H
	DB	01H
	DB	01H
	DB	01H
	DB	01H
	DB	01H
	DB	01H
	DB	01H
	DB	01H
	DB	01H
	DB	01H
	DB	01H
	DB	01H
	DB	01H
	DB	01H
	DB	01H
	DB	01H
	DB	01H
	DB	01H
	DB	01H
	DB	01H
	DB	01H
	DB	01H
	DB	01H
	DB	01H
	DB	01H
	DB	01H
	DB	01H
	DB	01H
	DB	01H
	DB	01H
	DB	01H
	DB	01H
	DB	01H
	DB	01H
	DB	01H
	DB	01H
	DB	01H
	DB	01H
	DB	01H
	DB	01H
	DB	01H
	DB	01H
	DB	01H
	DB	01H
	DB	01H
	DB	01H
	DB	01H
	DB	01H
	DB	01H
	DB	01H
	DB	01H
	DB	01H
	DB	01H
	DB	01H
	DB	01H
	DB	01H
	DB	01H
	DB	01H
	DB	01H
	DB	01H
	DB	01H
	DB	01H
	DB	01H
	DB	01H
	DB	01H
	DB	01H
	DB	01H
	DB	01H
	DB	01H
	DB	01H
	DB	01H
	DB	01H
	DB	01H
	DB	01H
	DB	01H
	DB	0cdH
	DB	033H
	DB	0a7H
	DB	0c5H
	DB	0a7H
	DB	09bH
	DB	0a7H
	DB	03H
	DB	0c5H
	DB	03H
	DB	0a7H
	DB	09bH
	DB	0a7H
	DB	03H
	DB	0c5H
	DB	03H
	DB	09bH
	DB	04dH
	DB	06cH
	DB	03dH
	DB	04H
	DB	04H
	DB	04H
	DB	04H
	DB	04H
	DB	04H
	DB	04H
	DB	04H
	DB	04H
	DB	04H
	DB	04H
	DB	04H
	DB	04H
	DB	04H
	DB	04H
	DB	04H
	DB	04H
	DB	04H
	DB	04H
	DB	04H
	DB	04H
	DB	04H
	DB	04H
	DB	04H
	DB	04H
	DB	04H
	DB	04H
	DB	04H
	DB	04H
	DB	04H
	DB	04H
	DB	04H
	DB	04H
	DB	04H
	DB	04H
	DB	04H
	DB	04H
	DB	04H
	DB	04H
	DB	04H
	DB	04H
	DB	04H
	DB	04H
	DB	04H
	DB	04H
	DB	04H
	DB	04H
	DB	04H
	DB	04H
	DB	04H
	DB	04H
	DB	04H
	DB	04H
	DB	04H
	DB	04H
	DB	04H
	DB	04H
	DB	04H
	DB	04H
	DB	04H
	DB	04H
	DB	04H
	DB	063H
	DB	077H
	DB	05H
	DB	05H
	DB	05H
	DB	059H
	DB	023H
	DB	02aH
	DB	06aH
	DB	06aH
	DB	06aH
	DB	0c9H
	DB	029H
	DB	014H
	DB	03dH
	DB	046H
	DB	074H
	DB	05H
	DB	05H
	DB	059H
	DB	06fH
	DB	024H
	DB	04H
	DB	0a1H
	DB	089H
	DB	05H
	DB	05H
	DB	05H
	DB	081H
	DB	082H
	DB	088H
	DB	0e9H
	DB	05H
	DB	05H
	DB	05H
	DB	013H
	DB	073H
	DB	0a8H
	DB	0a8H
	DB	098H
	DB	05H
	DB	05H
	DB	05H
	DB	059H
	DB	06fH
	DB	024H
	DB	065H
	DB	059H
	DB	05H
	DB	05H
	DB	01eH
	DB	06fH
	DB	029H
	DB	04H
	DB	04H
	DB	065H
	DB	059H
	DB	05H
	DB	05H
	DB	05H
	DB	084H
	DB	087H
	DB	065H
	DB	059H
	DB	05H
	DB	05H
	DB	07fH
	DB	04dH
	DB	0a1H
	DB	0b6H
	DB	07aH
	DB	05H
	DB	05H
	DB	05H
	DB	020H
	DB	020H
	DB	020H
	DB	020H
	DB	020H
	DB	020H
	DB	020H
	DB	020H
	DB	07fH
	DB	0b3H
	DB	08cH
	DB	0cdH
	DB	05H
	DB	05H
	DB	05H
	DB	09aH
	DB	080H
	DB	015H
	DB	04H
	DB	063H
	DB	094H
	DB	05H
	DB	05H
	DB	05H
	DB	010H
	DB	06aH
	DB	05bH
	DB	04H
	DB	04H
	DB	04H
	DB	04H
	DB	04H
	DB	04H
	DB	04H
	DB	04H
	DB	04H
	DB	04H
	DB	04H
	DB	04H
	DB	04H
	DB	04H
	DB	04H
	DB	04H
	DB	04H
	DB	04H
	DB	04H
	DB	04H
	DB	04H
	DB	04H
	DB	04H
	DB	04H
	DB	04H
	DB	04H
	DB	04H
	DB	04H
	DB	04H
	DB	04H
	DB	04H
	DB	04H
	DB	04H
	DB	04H
	DB	04H
	DB	04H
	DB	04H
	DB	04H
	DB	04H
	DB	04H
	DB	04H
	DB	04H
	DB	04H
	DB	04H
	DB	04H
	DB	04H
	DB	04H
	DB	04H
	DB	04H
	DB	04H
	DB	04H
	DB	04H
	DB	04H
	DB	04H
	DB	04H
	DB	04H
	DB	04H
	DB	04H
	DB	04H
	DB	04H
	DB	04H
	DB	04H
	DB	05bH
	DB	062H
	DB	023H
	DB	09bH
	DB	03H
	DB	0c5H
	DB	0a7H
	DB	09bH
	DB	0c5H
	DB	07H
	DB	0e0H
	DB	0afH
	DB	0cdH
	DB	0c5H
	DB	03H
	DB	03H
	DB	09bH
	DB	01H
	DB	09bH
	DB	03H
	DB	03H
	DB	0a7H
	DB	09bH
	DB	09bH
	DB	09bH
	DB	03H
	DB	07H
	DB	0caH
	DB	01H
	DB	01H
	DB	01H
	DB	01H
	DB	01H
	DB	01H
	DB	013H
	DB	0d7H
	DB	07H
	DB	07H
	DB	07H
	DB	07H
	DB	07H
	DB	07H
	DB	07H
	DB	07H
	DB	07H
	DB	07H
	DB	07H
	DB	07H
	DB	07H
	DB	07H
	DB	07H
	DB	07H
	DB	07H
	DB	07H
	DB	07H
	DB	07H
	DB	07H
	DB	07H
	DB	07H
	DB	07H
	DB	07H
	DB	07H
	DB	07H
	DB	07H
	DB	07H
	DB	07H
	DB	07H
	DB	07H
	DB	07H
	DB	07H
	DB	07H
	DB	07H
	DB	07H
	DB	07H
	DB	07H
	DB	07H
	DB	07H
	DB	07H
	DB	07H
	DB	07H
	DB	07H
	DB	07H
	DB	07H
	DB	07H
	DB	07H
	DB	07H
	DB	07H
	DB	07H
	DB	07H
	DB	07H
	DB	07H
	DB	07H
	DB	07H
	DB	07H
	DB	07H
	DB	07H
	DB	07H
	DB	07H
	DB	07H
	DB	07H
	DB	07H
	DB	07H
	DB	07H
	DB	07H
	DB	07H
	DB	07H
	DB	07H
	DB	07H
	DB	07H
	DB	07H
	DB	07H
	DB	07H
	DB	07H
	DB	07H
	DB	07H
	DB	07H
	DB	07H
	DB	07H
	DB	07H
	DB	07H
	DB	07H
	DB	07H
	DB	07H
	DB	07H
	DB	07H
	DB	07H
	DB	07H
	DB	07H
	DB	07H
	DB	07H
	DB	07H
	DB	07H
	DB	07H
	DB	07H
	DB	07H
	DB	07H
	DB	07H
	DB	07H
	DB	07H
	DB	07H
	DB	07H
	DB	07H
	DB	07H
	DB	07H
	DB	07H
	DB	07H
	DB	07H
	DB	07H
	DB	07H
	DB	07H
	DB	07H
	DB	07H
	DB	07H
	DB	07H
	DB	07H
	DB	07H
	DB	07H
	DB	07H
	DB	07H
	DB	07H
	DB	07H
	DB	07H
	DB	07H
	DB	07H
	DB	07H
	DB	07H
	DB	07H
	DB	07H
	DB	07H
	DB	07H
	DB	07H
	DB	07H
	DB	07H
	DB	07H
	DB	07H
	DB	07H
	DB	07H
	DB	07H
	DB	07H
	DB	07H
	DB	07H
	DB	07H
	DB	07H
	DB	07H
	DB	07H
	DB	07H
	DB	07H
	DB	07H
	DB	07H
	DB	07H
	DB	07H
	DB	07H
	DB	07H
	DB	07H
	DB	07H
	DB	07H
	DB	07H
	DB	07H
	DB	07H
	DB	07H
	DB	07H
	DB	07H
	DB	07H
	DB	07H
	DB	07H
	DB	07H
	DB	07H
	DB	07H
	DB	07H
	DB	07H
	DB	07H
	DB	07H
	DB	07H
	DB	07H
	DB	07H
	DB	07H
	DB	07H
	DB	0d9H
	DB	0e0H
	DB	01H
	DB	01H
	DB	01H
	DB	01H
	DB	01H
	DB	01H
	DB	0cdH
	DB	033H
	DB	0a7H
	DB	03H
	DB	0a7H
	DB	09bH
	DB	09bH
	DB	03H
	DB	03H
	DB	03H
	DB	09bH
	DB	01H
	DB	09bH
	DB	03H
	DB	03H
	DB	0a7H
	DB	01H
	DB	04dH
	DB	06cH
	DB	03dH
	DB	04H
	DB	04H
	DB	04H
	DB	04H
	DB	04H
	DB	04H
	DB	04H
	DB	04H
	DB	04H
	DB	04H
	DB	04H
	DB	04H
	DB	04H
	DB	04H
	DB	04H
	DB	04H
	DB	04H
	DB	04H
	DB	04H
	DB	04H
	DB	04H
	DB	04H
	DB	04H
	DB	04H
	DB	04H
	DB	04H
	DB	04H
	DB	04H
	DB	04H
	DB	04H
	DB	04H
	DB	04H
	DB	04H
	DB	04H
	DB	04H
	DB	04H
	DB	04H
	DB	04H
	DB	04H
	DB	04H
	DB	04H
	DB	04H
	DB	04H
	DB	04H
	DB	04H
	DB	04H
	DB	04H
	DB	04H
	DB	04H
	DB	04H
	DB	04H
	DB	04H
	DB	04H
	DB	04H
	DB	04H
	DB	04H
	DB	04H
	DB	04H
	DB	04H
	DB	04H
	DB	04H
	DB	04H
	DB	063H
	DB	077H
	DB	05H
	DB	05H
	DB	05H
	DB	059H
	DB	0a8H
	DB	029H
	DB	018H
	DB	018H
	DB	018H
	DB	026H
	DB	05bH
	DB	04H
	DB	03dH
	DB	046H
	DB	074H
	DB	05H
	DB	05H
	DB	059H
	DB	06fH
	DB	024H
	DB	04H
	DB	0a1H
	DB	089H
	DB	05H
	DB	05H
	DB	05H
	DB	081H
	DB	082H
	DB	062H
	DB	0ceH
	DB	05H
	DB	05H
	DB	05H
	DB	08bH
	DB	080H
	DB	045H
	DB	029H
	DB	0c8H
	DB	07fH
	DB	05H
	DB	05H
	DB	059H
	DB	06fH
	DB	024H
	DB	065H
	DB	059H
	DB	05H
	DB	05H
	DB	08aH
	DB	06fH
	DB	024H
	DB	04H
	DB	04H
	DB	065H
	DB	01eH
	DB	05H
	DB	05H
	DB	05H
	DB	0a5H
	DB	087H
	DB	065H
	DB	059H
	DB	05H
	DB	05H
	DB	07fH
	DB	04dH
	DB	024H
	DB	0a4H
	DB	07aH
	DB	05H
	DB	05H
	DB	01dH
	DB	04dH
	DB	04dH
	DB	04dH
	DB	04dH
	DB	04dH
	DB	04dH
	DB	04dH
	DB	04dH
	DB	04dH
	DB	06eH
	DB	0e1H
	DB	092H
	DB	05H
	DB	05H
	DB	05H
	DB	0d8H
	DB	080H
	DB	015H
	DB	04H
	DB	088H
	DB	010H
	DB	05H
	DB	05H
	DB	05H
	DB	010H
	DB	06aH
	DB	05bH
	DB	04H
	DB	04H
	DB	04H
	DB	04H
	DB	04H
	DB	04H
	DB	04H
	DB	04H
	DB	04H
	DB	04H
	DB	04H
	DB	04H
	DB	04H
	DB	04H
	DB	04H
	DB	04H
	DB	04H
	DB	04H
	DB	04H
	DB	04H
	DB	04H
	DB	04H
	DB	04H
	DB	04H
	DB	04H
	DB	04H
	DB	04H
	DB	04H
	DB	04H
	DB	04H
	DB	04H
	DB	04H
	DB	04H
	DB	04H
	DB	04H
	DB	04H
	DB	04H
	DB	04H
	DB	04H
	DB	04H
	DB	04H
	DB	04H
	DB	04H
	DB	04H
	DB	04H
	DB	04H
	DB	04H
	DB	04H
	DB	04H
	DB	04H
	DB	04H
	DB	04H
	DB	04H
	DB	04H
	DB	04H
	DB	04H
	DB	04H
	DB	04H
	DB	04H
	DB	04H
	DB	04H
	DB	04H
	DB	05bH
	DB	062H
	DB	023H
	DB	09bH
	DB	03H
	DB	03H
	DB	09bH
	DB	01H
	DB	03H
	DB	07H
	DB	0e0H
	DB	0afH
	DB	0cdH
	DB	0c5H
	DB	09bH
	DB	0a7H
	DB	0a7H
	DB	03H
	DB	03H
	DB	0a7H
	DB	0a7H
	DB	0a7H
	DB	03H
	DB	03H
	DB	0a7H
	DB	0a7H
	DB	07H
	DB	0caH
	DB	01H
	DB	01H
	DB	01H
	DB	01H
	DB	01H
	DB	01H
	DB	0cH
	DB	0fcH
	DB	0fbH
	DB	0fbH
	DB	0fbH
	DB	0fbH
	DB	0fbH
	DB	0fbH
	DB	0fbH
	DB	0fbH
	DB	0fbH
	DB	0fbH
	DB	0fbH
	DB	0fbH
	DB	0fbH
	DB	0fbH
	DB	0fbH
	DB	0fbH
	DB	0fbH
	DB	0fbH
	DB	0fbH
	DB	0fbH
	DB	0fbH
	DB	0fbH
	DB	0fbH
	DB	0fbH
	DB	0fbH
	DB	0fbH
	DB	0fbH
	DB	0fbH
	DB	0fbH
	DB	0fbH
	DB	0fbH
	DB	0fbH
	DB	0fbH
	DB	0fbH
	DB	0fbH
	DB	0fbH
	DB	0fbH
	DB	0fbH
	DB	0fbH
	DB	0fbH
	DB	0fbH
	DB	0fbH
	DB	0fbH
	DB	0fbH
	DB	0fbH
	DB	0fbH
	DB	0fbH
	DB	0fbH
	DB	0fbH
	DB	0fbH
	DB	0fbH
	DB	0fbH
	DB	0fbH
	DB	0fbH
	DB	0fbH
	DB	0fbH
	DB	0fbH
	DB	0fbH
	DB	0fbH
	DB	0fbH
	DB	0fbH
	DB	0fbH
	DB	0fbH
	DB	0fbH
	DB	0fbH
	DB	0fbH
	DB	0fbH
	DB	0fbH
	DB	0fbH
	DB	0fbH
	DB	0fbH
	DB	0fbH
	DB	0fbH
	DB	0fbH
	DB	0fbH
	DB	0fbH
	DB	0fbH
	DB	0fbH
	DB	0fbH
	DB	0fbH
	DB	0fbH
	DB	0fbH
	DB	0fbH
	DB	0fbH
	DB	0fbH
	DB	0fbH
	DB	0fbH
	DB	0fbH
	DB	0fbH
	DB	0fbH
	DB	0fbH
	DB	0fbH
	DB	0fbH
	DB	0fbH
	DB	0fbH
	DB	0fbH
	DB	0fbH
	DB	0fbH
	DB	0fbH
	DB	0fbH
	DB	0fbH
	DB	0fbH
	DB	0fbH
	DB	0fbH
	DB	0fbH
	DB	0fbH
	DB	0fbH
	DB	0fbH
	DB	0fbH
	DB	0fbH
	DB	0fbH
	DB	0fbH
	DB	0fbH
	DB	0fbH
	DB	0fbH
	DB	0fbH
	DB	0fbH
	DB	0fbH
	DB	0fbH
	DB	0fbH
	DB	0fbH
	DB	0fbH
	DB	0fbH
	DB	0fbH
	DB	0fbH
	DB	0fbH
	DB	0fbH
	DB	0fbH
	DB	0fbH
	DB	0fbH
	DB	0fbH
	DB	0fbH
	DB	0fbH
	DB	0fbH
	DB	0fbH
	DB	0fbH
	DB	0fbH
	DB	0fbH
	DB	0fbH
	DB	0fbH
	DB	0fbH
	DB	0fbH
	DB	0fbH
	DB	0fbH
	DB	0fbH
	DB	0fbH
	DB	0fbH
	DB	0fbH
	DB	0fbH
	DB	0fbH
	DB	0fbH
	DB	0fbH
	DB	0fbH
	DB	0fbH
	DB	0fbH
	DB	0fbH
	DB	0fbH
	DB	0fbH
	DB	0fbH
	DB	0fbH
	DB	0fbH
	DB	0fbH
	DB	0fbH
	DB	0fbH
	DB	0fbH
	DB	0fbH
	DB	0fbH
	DB	0fbH
	DB	0fbH
	DB	0fbH
	DB	0fbH
	DB	0fbH
	DB	0fbH
	DB	0fbH
	DB	0fbH
	DB	0fbH
	DB	0fbH
	DB	0fbH
	DB	0fbH
	DB	0fbH
	DB	0fbH
	DB	027H
	DB	047H
	DB	01H
	DB	01H
	DB	01H
	DB	01H
	DB	01H
	DB	01H
	DB	0cdH
	DB	033H
	DB	09bH
	DB	0a7H
	DB	0a7H
	DB	03H
	DB	03H
	DB	0a7H
	DB	0a7H
	DB	0a7H
	DB	03H
	DB	03H
	DB	0a7H
	DB	0a7H
	DB	0a7H
	DB	0a7H
	DB	0a7H
	DB	04dH
	DB	06cH
	DB	03dH
	DB	04H
	DB	04H
	DB	04H
	DB	04H
	DB	04H
	DB	04H
	DB	04H
	DB	04H
	DB	04H
	DB	04H
	DB	04H
	DB	04H
	DB	04H
	DB	04H
	DB	04H
	DB	04H
	DB	04H
	DB	04H
	DB	04H
	DB	04H
	DB	04H
	DB	04H
	DB	04H
	DB	04H
	DB	04H
	DB	04H
	DB	04H
	DB	04H
	DB	04H
	DB	04H
	DB	04H
	DB	04H
	DB	04H
	DB	04H
	DB	04H
	DB	04H
	DB	04H
	DB	04H
	DB	04H
	DB	04H
	DB	04H
	DB	04H
	DB	04H
	DB	04H
	DB	04H
	DB	04H
	DB	04H
	DB	04H
	DB	04H
	DB	04H
	DB	04H
	DB	04H
	DB	04H
	DB	04H
	DB	04H
	DB	04H
	DB	04H
	DB	04H
	DB	04H
	DB	04H
	DB	04H
	DB	04H
	DB	063H
	DB	077H
	DB	05H
	DB	05H
	DB	05H
	DB	059H
	DB	04cH
	DB	026H
	DB	04H
	DB	04H
	DB	04H
	DB	04H
	DB	04H
	DB	04H
	DB	03dH
	DB	09eH
	DB	074H
	DB	05H
	DB	05H
	DB	059H
	DB	06fH
	DB	024H
	DB	04H
	DB	0a1H
	DB	089H
	DB	05H
	DB	05H
	DB	05H
	DB	081H
	DB	082H
	DB	046H
	DB	027H
	DB	05H
	DB	05H
	DB	07fH
	DB	0dcH
	DB	082H
	DB	026H
	DB	04H
	DB	09eH
	DB	0fdH
	DB	05H
	DB	05H
	DB	059H
	DB	06fH
	DB	024H
	DB	065H
	DB	059H
	DB	05H
	DB	05H
	DB	07aH
	DB	0bdH
	DB	0e4H
	DB	04H
	DB	0eeH
	DB	08dH
	DB	07fH
	DB	05H
	DB	05H
	DB	020H
	DB	0b3H
	DB	087H
	DB	065H
	DB	059H
	DB	05H
	DB	05H
	DB	07fH
	DB	04dH
	DB	018H
	DB	0beH
	DB	08aH
	DB	05H
	DB	05H
	DB	059H
	DB	0bbH
	DB	06aH
	DB	0c9H
	DB	0c9H
	DB	0c9H
	DB	0c9H
	DB	045H
	DB	082H
	DB	0c9H
	DB	062H
	DB	079H
	DB	091H
	DB	05H
	DB	05H
	DB	05H
	DB	0c3H
	DB	04cH
	DB	05bH
	DB	03dH
	DB	029H
	DB	07H
	DB	05H
	DB	05H
	DB	05H
	DB	010H
	DB	06aH
	DB	05bH
	DB	04H
	DB	04H
	DB	04H
	DB	04H
	DB	04H
	DB	04H
	DB	04H
	DB	04H
	DB	04H
	DB	04H
	DB	04H
	DB	04H
	DB	04H
	DB	04H
	DB	04H
	DB	04H
	DB	04H
	DB	04H
	DB	04H
	DB	04H
	DB	04H
	DB	04H
	DB	04H
	DB	04H
	DB	04H
	DB	04H
	DB	04H
	DB	04H
	DB	04H
	DB	04H
	DB	04H
	DB	04H
	DB	04H
	DB	04H
	DB	04H
	DB	04H
	DB	04H
	DB	04H
	DB	04H
	DB	04H
	DB	04H
	DB	04H
	DB	04H
	DB	04H
	DB	04H
	DB	04H
	DB	04H
	DB	04H
	DB	04H
	DB	04H
	DB	04H
	DB	04H
	DB	04H
	DB	04H
	DB	04H
	DB	04H
	DB	04H
	DB	04H
	DB	04H
	DB	04H
	DB	04H
	DB	04H
	DB	05bH
	DB	062H
	DB	023H
	DB	09bH
	DB	0a7H
	DB	0a7H
	DB	0a7H
	DB	0a7H
	DB	0c5H
	DB	07H
	DB	0e0H
	DB	0afH
	DB	0cdH
	DB	0c5H
	DB	01H
	DB	09bH
	DB	03H
	DB	03H
	DB	03H
	DB	09bH
	DB	09bH
	DB	0a7H
	DB	03H
	DB	03H
	DB	0a7H
	DB	09bH
	DB	07H
	DB	0caH
	DB	01H
	DB	01H
	DB	01H
	DB	01H
	DB	01H
	DB	01H
	DB	01H
	DB	01H
	DB	01H
	DB	01H
	DB	01H
	DB	01H
	DB	01H
	DB	01H
	DB	01H
	DB	01H
	DB	01H
	DB	01H
	DB	01H
	DB	01H
	DB	01H
	DB	01H
	DB	01H
	DB	01H
	DB	01H
	DB	01H
	DB	01H
	DB	01H
	DB	01H
	DB	01H
	DB	01H
	DB	01H
	DB	01H
	DB	01H
	DB	01H
	DB	01H
	DB	01H
	DB	01H
	DB	01H
	DB	01H
	DB	01H
	DB	01H
	DB	01H
	DB	01H
	DB	01H
	DB	01H
	DB	01H
	DB	01H
	DB	01H
	DB	01H
	DB	01H
	DB	01H
	DB	01H
	DB	01H
	DB	01H
	DB	01H
	DB	01H
	DB	01H
	DB	01H
	DB	01H
	DB	01H
	DB	01H
	DB	01H
	DB	01H
	DB	01H
	DB	01H
	DB	01H
	DB	01H
	DB	01H
	DB	01H
	DB	01H
	DB	01H
	DB	01H
	DB	01H
	DB	01H
	DB	01H
	DB	01H
	DB	01H
	DB	01H
	DB	01H
	DB	01H
	DB	01H
	DB	01H
	DB	01H
	DB	01H
	DB	01H
	DB	01H
	DB	01H
	DB	01H
	DB	01H
	DB	01H
	DB	01H
	DB	01H
	DB	01H
	DB	01H
	DB	01H
	DB	01H
	DB	01H
	DB	01H
	DB	01H
	DB	01H
	DB	01H
	DB	01H
	DB	01H
	DB	01H
	DB	01H
	DB	01H
	DB	01H
	DB	01H
	DB	01H
	DB	01H
	DB	01H
	DB	01H
	DB	01H
	DB	01H
	DB	01H
	DB	01H
	DB	01H
	DB	01H
	DB	01H
	DB	01H
	DB	01H
	DB	01H
	DB	01H
	DB	01H
	DB	01H
	DB	01H
	DB	01H
	DB	01H
	DB	01H
	DB	01H
	DB	01H
	DB	01H
	DB	01H
	DB	01H
	DB	01H
	DB	01H
	DB	01H
	DB	01H
	DB	01H
	DB	01H
	DB	01H
	DB	01H
	DB	01H
	DB	01H
	DB	01H
	DB	01H
	DB	01H
	DB	01H
	DB	01H
	DB	01H
	DB	01H
	DB	01H
	DB	01H
	DB	01H
	DB	01H
	DB	01H
	DB	01H
	DB	01H
	DB	01H
	DB	01H
	DB	01H
	DB	01H
	DB	01H
	DB	01H
	DB	01H
	DB	01H
	DB	01H
	DB	01H
	DB	01H
	DB	01H
	DB	01H
	DB	01H
	DB	01H
	DB	01H
	DB	01H
	DB	01H
	DB	01H
	DB	01H
	DB	01H
	DB	01H
	DB	01H
	DB	01H
	DB	01H
	DB	01H
	DB	01H
	DB	01H
	DB	01H
	DB	01H
	DB	01H
	DB	01H
	DB	01H
	DB	01H
	DB	01H
	DB	01H
	DB	01H
	DB	01H
	DB	0cdH
	DB	012H
	DB	01H
	DB	09bH
	DB	0a7H
	DB	03H
	DB	03H
	DB	09bH
	DB	09bH
	DB	09bH
	DB	03H
	DB	03H
	DB	03H
	DB	09bH
	DB	09bH
	DB	0a7H
	DB	03H
	DB	04dH
	DB	06cH
	DB	03dH
	DB	04H
	DB	04H
	DB	04H
	DB	04H
	DB	04H
	DB	04H
	DB	04H
	DB	04H
	DB	04H
	DB	04H
	DB	04H
	DB	04H
	DB	04H
	DB	04H
	DB	04H
	DB	04H
	DB	04H
	DB	04H
	DB	04H
	DB	04H
	DB	04H
	DB	04H
	DB	04H
	DB	04H
	DB	04H
	DB	04H
	DB	04H
	DB	04H
	DB	04H
	DB	04H
	DB	04H
	DB	04H
	DB	04H
	DB	04H
	DB	04H
	DB	04H
	DB	04H
	DB	04H
	DB	04H
	DB	04H
	DB	04H
	DB	04H
	DB	04H
	DB	04H
	DB	04H
	DB	04H
	DB	04H
	DB	04H
	DB	04H
	DB	04H
	DB	04H
	DB	04H
	DB	04H
	DB	04H
	DB	04H
	DB	04H
	DB	04H
	DB	04H
	DB	04H
	DB	04H
	DB	04H
	DB	04H
	DB	063H
	DB	077H
	DB	05H
	DB	05H
	DB	05H
	DB	059H
	DB	0a8H
	DB	024H
	DB	07eH
	DB	07eH
	DB	07eH
	DB	07eH
	DB	07eH
	DB	04H
	DB	03dH
	DB	09eH
	DB	074H
	DB	05H
	DB	05H
	DB	059H
	DB	06fH
	DB	024H
	DB	04H
	DB	0a1H
	DB	089H
	DB	05H
	DB	05H
	DB	05H
	DB	081H
	DB	082H
	DB	045H
	DB	0fcH
	DB	05H
	DB	05H
	DB	05H
	DB	0a5H
	DB	0e1H
	DB	014H
	DB	063H
	DB	0a4H
	DB	07aH
	DB	05H
	DB	05H
	DB	059H
	DB	06fH
	DB	024H
	DB	065H
	DB	059H
	DB	05H
	DB	05H
	DB	05H
	DB	047H
	DB	06aH
	DB	088H
	DB	087H
	DB	013H
	DB	05H
	DB	05H
	DB	05H
	DB	085H
	DB	03eH
	DB	029H
	DB	065H
	DB	059H
	DB	05H
	DB	05H
	DB	07fH
	DB	04dH
	DB	01cH
	DB	029H
	DB	0d7H
	DB	05H
	DB	05H
	DB	05H
	DB	081H
	DB	08cH
	DB	015H
	DB	014H
	DB	05bH
	DB	026H
	DB	0e4H
	DB	062H
	DB	026H
	DB	05bH
	DB	063H
	DB	08fH
	DB	07aH
	DB	05H
	DB	05H
	DB	07fH
	DB	0d1H
	DB	087H
	DB	0d6H
	DB	0a3H
	DB	074H
	DB	05H
	DB	05H
	DB	05H
	DB	010H
	DB	06aH
	DB	05bH
	DB	04H
	DB	04H
	DB	04H
	DB	04H
	DB	04H
	DB	04H
	DB	04H
	DB	04H
	DB	04H
	DB	04H
	DB	04H
	DB	04H
	DB	04H
	DB	04H
	DB	04H
	DB	04H
	DB	04H
	DB	04H
	DB	04H
	DB	04H
	DB	04H
	DB	04H
	DB	04H
	DB	04H
	DB	04H
	DB	04H
	DB	04H
	DB	04H
	DB	04H
	DB	04H
	DB	04H
	DB	04H
	DB	04H
	DB	04H
	DB	04H
	DB	04H
	DB	04H
	DB	04H
	DB	04H
	DB	04H
	DB	04H
	DB	04H
	DB	04H
	DB	04H
	DB	04H
	DB	04H
	DB	04H
	DB	04H
	DB	04H
	DB	04H
	DB	04H
	DB	04H
	DB	04H
	DB	04H
	DB	04H
	DB	04H
	DB	04H
	DB	04H
	DB	04H
	DB	04H
	DB	04H
	DB	04H
	DB	05bH
	DB	062H
	DB	023H
	DB	09bH
	DB	09bH
	DB	09bH
	DB	03H
	DB	03H
	DB	09H
	DB	07H
	DB	0e0H
	DB	0afH
	DB	0cdH
	DB	03H
	DB	01H
	DB	09bH
	DB	0a7H
	DB	03H
	DB	0a7H
	DB	09bH
	DB	01H
	DB	09bH
	DB	0a7H
	DB	0a7H
	DB	09bH
	DB	09bH
	DB	07H
	DB	0caH
	DB	01H
	DB	01H
	DB	01H
	DB	01H
	DB	01H
	DB	01H
	DB	01H
	DB	01H
	DB	01H
	DB	01H
	DB	01H
	DB	01H
	DB	01H
	DB	01H
	DB	01H
	DB	01H
	DB	01H
	DB	01H
	DB	01H
	DB	01H
	DB	01H
	DB	01H
	DB	01H
	DB	01H
	DB	01H
	DB	01H
	DB	01H
	DB	01H
	DB	01H
	DB	01H
	DB	01H
	DB	01H
	DB	01H
	DB	01H
	DB	01H
	DB	01H
	DB	01H
	DB	01H
	DB	01H
	DB	01H
	DB	01H
	DB	01H
	DB	01H
	DB	01H
	DB	01H
	DB	01H
	DB	01H
	DB	01H
	DB	01H
	DB	01H
	DB	01H
	DB	01H
	DB	01H
	DB	01H
	DB	01H
	DB	01H
	DB	01H
	DB	01H
	DB	01H
	DB	01H
	DB	01H
	DB	01H
	DB	01H
	DB	01H
	DB	01H
	DB	01H
	DB	01H
	DB	01H
	DB	01H
	DB	01H
	DB	01H
	DB	01H
	DB	01H
	DB	01H
	DB	01H
	DB	01H
	DB	01H
	DB	01H
	DB	01H
	DB	01H
	DB	01H
	DB	01H
	DB	01H
	DB	01H
	DB	01H
	DB	01H
	DB	01H
	DB	01H
	DB	01H
	DB	01H
	DB	01H
	DB	01H
	DB	01H
	DB	01H
	DB	01H
	DB	01H
	DB	01H
	DB	01H
	DB	01H
	DB	01H
	DB	01H
	DB	01H
	DB	01H
	DB	01H
	DB	01H
	DB	01H
	DB	01H
	DB	01H
	DB	01H
	DB	01H
	DB	01H
	DB	01H
	DB	01H
	DB	01H
	DB	01H
	DB	01H
	DB	01H
	DB	01H
	DB	01H
	DB	01H
	DB	01H
	DB	01H
	DB	01H
	DB	01H
	DB	01H
	DB	01H
	DB	01H
	DB	01H
	DB	01H
	DB	01H
	DB	01H
	DB	01H
	DB	01H
	DB	01H
	DB	01H
	DB	01H
	DB	01H
	DB	01H
	DB	01H
	DB	01H
	DB	01H
	DB	01H
	DB	01H
	DB	01H
	DB	01H
	DB	01H
	DB	01H
	DB	01H
	DB	01H
	DB	01H
	DB	01H
	DB	01H
	DB	01H
	DB	01H
	DB	01H
	DB	01H
	DB	01H
	DB	01H
	DB	01H
	DB	01H
	DB	01H
	DB	01H
	DB	01H
	DB	01H
	DB	01H
	DB	01H
	DB	01H
	DB	01H
	DB	01H
	DB	01H
	DB	01H
	DB	01H
	DB	01H
	DB	01H
	DB	01H
	DB	01H
	DB	01H
	DB	01H
	DB	01H
	DB	01H
	DB	01H
	DB	01H
	DB	01H
	DB	01H
	DB	01H
	DB	01H
	DB	01H
	DB	01H
	DB	01H
	DB	01H
	DB	01H
	DB	01H
	DB	01H
	DB	01H
	DB	01H
	DB	01H
	DB	01H
	DB	0cdH
	DB	012H
	DB	01H
	DB	09bH
	DB	0a7H
	DB	03H
	DB	0a7H
	DB	09bH
	DB	01H
	DB	09bH
	DB	0a7H
	DB	03H
	DB	0a7H
	DB	09bH
	DB	09bH
	DB	09bH
	DB	0a7H
	DB	04dH
	DB	06cH
	DB	03dH
	DB	04H
	DB	04H
	DB	04H
	DB	04H
	DB	04H
	DB	04H
	DB	04H
	DB	04H
	DB	04H
	DB	04H
	DB	04H
	DB	04H
	DB	04H
	DB	04H
	DB	04H
	DB	04H
	DB	04H
	DB	04H
	DB	04H
	DB	04H
	DB	04H
	DB	04H
	DB	04H
	DB	04H
	DB	04H
	DB	04H
	DB	04H
	DB	04H
	DB	04H
	DB	04H
	DB	04H
	DB	04H
	DB	04H
	DB	04H
	DB	04H
	DB	04H
	DB	04H
	DB	04H
	DB	04H
	DB	04H
	DB	04H
	DB	04H
	DB	04H
	DB	04H
	DB	04H
	DB	04H
	DB	04H
	DB	04H
	DB	04H
	DB	04H
	DB	04H
	DB	04H
	DB	04H
	DB	04H
	DB	04H
	DB	04H
	DB	04H
	DB	04H
	DB	04H
	DB	04H
	DB	04H
	DB	04H
	DB	063H
	DB	077H
	DB	05H
	DB	05H
	DB	05H
	DB	08aH
	DB	0a5H
	DB	08fH
	DB	09fH
	DB	09fH
	DB	09fH
	DB	09fH
	DB	09fH
	DB	0a2H
	DB	03dH
	DB	09eH
	DB	074H
	DB	05H
	DB	05H
	DB	059H
	DB	06fH
	DB	024H
	DB	04H
	DB	0a1H
	DB	089H
	DB	05H
	DB	05H
	DB	05H
	DB	081H
	DB	082H
	DB	029H
	DB	0f9H
	DB	05H
	DB	05H
	DB	05H
	DB	085H
	DB	0b7H
	DB	0acH
	DB	0b7H
	DB	027H
	DB	05H
	DB	05H
	DB	05H
	DB	059H
	DB	06fH
	DB	024H
	DB	065H
	DB	059H
	DB	05H
	DB	05H
	DB	05H
	DB	05H
	DB	07H
	DB	091H
	DB	07H
	DB	07aH
	DB	05H
	DB	05H
	DB	05H
	DB	092H
	DB	04cH
	DB	024H
	DB	065H
	DB	059H
	DB	05H
	DB	05H
	DB	07fH
	DB	04dH
	DB	01cH
	DB	07eH
	DB	0a4H
	DB	07aH
	DB	05H
	DB	05H
	DB	07fH
	DB	0e9H
	DB	0beH
	DB	046H
	DB	0beH
	DB	0b6H
	DB	098H
	DB	089H
	DB	057H
	DB	03dH
	DB	03dH
	DB	0d3H
	DB	027H
	DB	05H
	DB	05H
	DB	05H
	DB	01eH
	DB	098H
	DB	0e9H
	DB	0c3H
	DB	05H
	DB	05H
	DB	05H
	DB	05H
	DB	010H
	DB	06aH
	DB	05bH
	DB	04H
	DB	04H
	DB	04H
	DB	04H
	DB	04H
	DB	04H
	DB	04H
	DB	04H
	DB	04H
	DB	04H
	DB	04H
	DB	04H
	DB	04H
	DB	04H
	DB	04H
	DB	04H
	DB	04H
	DB	04H
	DB	04H
	DB	04H
	DB	04H
	DB	04H
	DB	04H
	DB	04H
	DB	04H
	DB	04H
	DB	04H
	DB	04H
	DB	04H
	DB	04H
	DB	04H
	DB	04H
	DB	04H
	DB	04H
	DB	04H
	DB	04H
	DB	04H
	DB	04H
	DB	04H
	DB	04H
	DB	04H
	DB	04H
	DB	04H
	DB	04H
	DB	04H
	DB	04H
	DB	04H
	DB	04H
	DB	04H
	DB	04H
	DB	04H
	DB	04H
	DB	04H
	DB	04H
	DB	04H
	DB	04H
	DB	04H
	DB	04H
	DB	04H
	DB	04H
	DB	04H
	DB	04H
	DB	05bH
	DB	062H
	DB	023H
	DB	01H
	DB	01H
	DB	09bH
	DB	0a7H
	DB	0a7H
	DB	0c5H
	DB	07H
	DB	0e0H
	DB	0afH
	DB	0cdH
	DB	0c5H
	DB	0a7H
	DB	0a7H
	DB	0a7H
	DB	09bH
	DB	0a7H
	DB	0a7H
	DB	0a7H
	DB	0a7H
	DB	09bH
	DB	09bH
	DB	0a7H
	DB	03H
	DB	07H
	DB	0caH
	DB	01H
	DB	01H
	DB	01H
	DB	01H
	DB	01H
	DB	01H
	DB	01H
	DB	01H
	DB	01H
	DB	01H
	DB	01H
	DB	01H
	DB	01H
	DB	01H
	DB	01H
	DB	01H
	DB	01H
	DB	01H
	DB	01H
	DB	01H
	DB	01H
	DB	01H
	DB	01H
	DB	01H
	DB	01H
	DB	01H
	DB	01H
	DB	01H
	DB	01H
	DB	01H
	DB	01H
	DB	01H
	DB	01H
	DB	01H
	DB	01H
	DB	01H
	DB	01H
	DB	01H
	DB	01H
	DB	01H
	DB	01H
	DB	01H
	DB	01H
	DB	01H
	DB	01H
	DB	01H
	DB	01H
	DB	01H
	DB	01H
	DB	01H
	DB	01H
	DB	01H
	DB	01H
	DB	01H
	DB	01H
	DB	01H
	DB	01H
	DB	01H
	DB	01H
	DB	01H
	DB	01H
	DB	01H
	DB	01H
	DB	01H
	DB	01H
	DB	01H
	DB	01H
	DB	01H
	DB	01H
	DB	01H
	DB	01H
	DB	01H
	DB	01H
	DB	01H
	DB	01H
	DB	01H
	DB	01H
	DB	01H
	DB	01H
	DB	01H
	DB	01H
	DB	01H
	DB	01H
	DB	01H
	DB	01H
	DB	01H
	DB	01H
	DB	01H
	DB	01H
	DB	01H
	DB	01H
	DB	01H
	DB	01H
	DB	01H
	DB	01H
	DB	01H
	DB	01H
	DB	01H
	DB	01H
	DB	01H
	DB	01H
	DB	01H
	DB	01H
	DB	01H
	DB	01H
	DB	01H
	DB	01H
	DB	01H
	DB	01H
	DB	01H
	DB	01H
	DB	01H
	DB	01H
	DB	01H
	DB	01H
	DB	01H
	DB	01H
	DB	01H
	DB	01H
	DB	01H
	DB	01H
	DB	01H
	DB	01H
	DB	01H
	DB	01H
	DB	01H
	DB	01H
	DB	01H
	DB	01H
	DB	01H
	DB	01H
	DB	01H
	DB	01H
	DB	01H
	DB	01H
	DB	01H
	DB	01H
	DB	01H
	DB	01H
	DB	01H
	DB	01H
	DB	01H
	DB	01H
	DB	01H
	DB	01H
	DB	01H
	DB	01H
	DB	01H
	DB	01H
	DB	01H
	DB	01H
	DB	01H
	DB	01H
	DB	01H
	DB	01H
	DB	01H
	DB	01H
	DB	01H
	DB	01H
	DB	01H
	DB	01H
	DB	01H
	DB	01H
	DB	01H
	DB	01H
	DB	01H
	DB	01H
	DB	01H
	DB	01H
	DB	01H
	DB	01H
	DB	01H
	DB	01H
	DB	01H
	DB	01H
	DB	01H
	DB	01H
	DB	01H
	DB	01H
	DB	01H
	DB	01H
	DB	01H
	DB	01H
	DB	01H
	DB	01H
	DB	01H
	DB	01H
	DB	01H
	DB	01H
	DB	01H
	DB	01H
	DB	01H
	DB	01H
	DB	01H
	DB	01H
	DB	01H
	DB	01H
	DB	0cdH
	DB	033H
	DB	09bH
	DB	0a7H
	DB	0a7H
	DB	09bH
	DB	0a7H
	DB	0a7H
	DB	0a7H
	DB	0a7H
	DB	0a7H
	DB	09bH
	DB	0a7H
	DB	0a7H
	DB	0a7H
	DB	0a7H
	DB	09bH
	DB	04dH
	DB	06cH
	DB	03dH
	DB	04H
	DB	04H
	DB	04H
	DB	04H
	DB	04H
	DB	04H
	DB	04H
	DB	04H
	DB	04H
	DB	04H
	DB	04H
	DB	04H
	DB	04H
	DB	04H
	DB	04H
	DB	04H
	DB	04H
	DB	04H
	DB	04H
	DB	04H
	DB	04H
	DB	04H
	DB	04H
	DB	04H
	DB	04H
	DB	04H
	DB	04H
	DB	04H
	DB	04H
	DB	04H
	DB	04H
	DB	04H
	DB	04H
	DB	04H
	DB	04H
	DB	04H
	DB	04H
	DB	04H
	DB	04H
	DB	04H
	DB	04H
	DB	04H
	DB	04H
	DB	04H
	DB	04H
	DB	04H
	DB	04H
	DB	04H
	DB	04H
	DB	04H
	DB	04H
	DB	04H
	DB	04H
	DB	04H
	DB	04H
	DB	04H
	DB	04H
	DB	04H
	DB	04H
	DB	04H
	DB	04H
	DB	04H
	DB	063H
	DB	077H
	DB	05H
	DB	05H
	DB	05H
	DB	05H
	DB	05H
	DB	05H
	DB	07aH
	DB	07aH
	DB	07aH
	DB	05H
	DB	0fdH
	DB	0a3H
	DB	03dH
	DB	09eH
	DB	074H
	DB	05H
	DB	05H
	DB	059H
	DB	06fH
	DB	024H
	DB	04H
	DB	0a1H
	DB	089H
	DB	05H
	DB	05H
	DB	05H
	DB	081H
	DB	082H
	DB	063H
	DB	0b6H
	DB	07fH
	DB	05H
	DB	05H
	DB	05H
	DB	05H
	DB	07fH
	DB	05H
	DB	07fH
	DB	07fH
	DB	05H
	DB	05H
	DB	059H
	DB	06fH
	DB	024H
	DB	065H
	DB	059H
	DB	05H
	DB	05H
	DB	0feH
	DB	08aH
	DB	05H
	DB	05H
	DB	05H
	DB	05H
	DB	05H
	DB	05H
	DB	08aH
	DB	04dH
	DB	06aH
	DB	026H
	DB	065H
	DB	059H
	DB	05H
	DB	05H
	DB	07fH
	DB	04dH
	DB	024H
	DB	04H
	DB	0a1H
	DB	098H
	DB	05H
	DB	05H
	DB	05H
	DB	05H
	DB	0fdH
	DB	08aH
	DB	074H
	DB	07aH
	DB	05H
	DB	07aH
	DB	0b6H
	DB	07eH
	DB	03dH
	DB	088H
	DB	0c0H
	DB	05H
	DB	05H
	DB	05H
	DB	05H
	DB	05H
	DB	05H
	DB	05H
	DB	01eH
	DB	05H
	DB	05H
	DB	05H
	DB	010H
	DB	06aH
	DB	05bH
	DB	04H
	DB	04H
	DB	04H
	DB	04H
	DB	04H
	DB	04H
	DB	04H
	DB	04H
	DB	04H
	DB	04H
	DB	04H
	DB	04H
	DB	04H
	DB	04H
	DB	04H
	DB	04H
	DB	04H
	DB	04H
	DB	04H
	DB	04H
	DB	04H
	DB	04H
	DB	04H
	DB	04H
	DB	04H
	DB	04H
	DB	04H
	DB	04H
	DB	04H
	DB	04H
	DB	04H
	DB	04H
	DB	04H
	DB	04H
	DB	04H
	DB	04H
	DB	04H
	DB	04H
	DB	04H
	DB	04H
	DB	04H
	DB	04H
	DB	04H
	DB	04H
	DB	04H
	DB	04H
	DB	04H
	DB	04H
	DB	04H
	DB	04H
	DB	04H
	DB	04H
	DB	04H
	DB	04H
	DB	04H
	DB	04H
	DB	04H
	DB	04H
	DB	04H
	DB	04H
	DB	04H
	DB	04H
	DB	05bH
	DB	062H
	DB	023H
	DB	09bH
	DB	0a7H
	DB	0a7H
	DB	0a7H
	DB	09bH
	DB	0c5H
	DB	07H
	DB	0e0H
	DB	0afH
	DB	0cdH
	DB	0c5H
	DB	0a7H
	DB	0a7H
	DB	09bH
	DB	01H
	DB	09bH
	DB	0a7H
	DB	03H
	DB	0a7H
	DB	09bH
	DB	01H
	DB	09bH
	DB	03H
	DB	07H
	DB	0caH
	DB	01H
	DB	01H
	DB	01H
	DB	01H
	DB	01H
	DB	01H
	DB	01H
	DB	01H
	DB	01H
	DB	01H
	DB	01H
	DB	01H
	DB	01H
	DB	01H
	DB	01H
	DB	01H
	DB	01H
	DB	01H
	DB	01H
	DB	01H
	DB	01H
	DB	01H
	DB	01H
	DB	01H
	DB	01H
	DB	01H
	DB	01H
	DB	01H
	DB	01H
	DB	01H
	DB	01H
	DB	01H
	DB	01H
	DB	01H
	DB	01H
	DB	01H
	DB	01H
	DB	01H
	DB	01H
	DB	01H
	DB	01H
	DB	01H
	DB	01H
	DB	01H
	DB	01H
	DB	01H
	DB	01H
	DB	01H
	DB	01H
	DB	01H
	DB	01H
	DB	01H
	DB	01H
	DB	01H
	DB	01H
	DB	01H
	DB	01H
	DB	01H
	DB	01H
	DB	01H
	DB	01H
	DB	01H
	DB	01H
	DB	01H
	DB	01H
	DB	01H
	DB	01H
	DB	01H
	DB	01H
	DB	01H
	DB	01H
	DB	01H
	DB	01H
	DB	01H
	DB	01H
	DB	01H
	DB	01H
	DB	01H
	DB	01H
	DB	01H
	DB	01H
	DB	01H
	DB	01H
	DB	01H
	DB	01H
	DB	01H
	DB	01H
	DB	01H
	DB	01H
	DB	01H
	DB	01H
	DB	01H
	DB	01H
	DB	01H
	DB	01H
	DB	01H
	DB	01H
	DB	01H
	DB	01H
	DB	01H
	DB	01H
	DB	01H
	DB	01H
	DB	01H
	DB	01H
	DB	01H
	DB	01H
	DB	01H
	DB	01H
	DB	01H
	DB	01H
	DB	01H
	DB	01H
	DB	01H
	DB	01H
	DB	01H
	DB	01H
	DB	01H
	DB	01H
	DB	01H
	DB	01H
	DB	01H
	DB	01H
	DB	01H
	DB	01H
	DB	01H
	DB	01H
	DB	01H
	DB	01H
	DB	01H
	DB	01H
	DB	01H
	DB	01H
	DB	01H
	DB	01H
	DB	01H
	DB	01H
	DB	01H
	DB	01H
	DB	01H
	DB	01H
	DB	01H
	DB	01H
	DB	01H
	DB	01H
	DB	01H
	DB	01H
	DB	01H
	DB	01H
	DB	01H
	DB	01H
	DB	01H
	DB	01H
	DB	01H
	DB	01H
	DB	01H
	DB	01H
	DB	01H
	DB	01H
	DB	01H
	DB	01H
	DB	01H
	DB	01H
	DB	01H
	DB	01H
	DB	01H
	DB	01H
	DB	01H
	DB	01H
	DB	01H
	DB	01H
	DB	01H
	DB	01H
	DB	01H
	DB	01H
	DB	01H
	DB	01H
	DB	01H
	DB	01H
	DB	01H
	DB	01H
	DB	01H
	DB	01H
	DB	01H
	DB	01H
	DB	01H
	DB	01H
	DB	01H
	DB	01H
	DB	01H
	DB	01H
	DB	01H
	DB	01H
	DB	01H
	DB	01H
	DB	01H
	DB	01H
	DB	0cdH
	DB	012H
	DB	09bH
	DB	03H
	DB	09bH
	DB	01H
	DB	09bH
	DB	0a7H
	DB	03H
	DB	0a7H
	DB	09bH
	DB	01H
	DB	09bH
	DB	03H
	DB	03H
	DB	0a7H
	DB	01H
	DB	04dH
	DB	06cH
	DB	03dH
	DB	04H
	DB	04H
	DB	04H
	DB	04H
	DB	04H
	DB	04H
	DB	04H
	DB	04H
	DB	04H
	DB	04H
	DB	04H
	DB	04H
	DB	04H
	DB	04H
	DB	04H
	DB	04H
	DB	04H
	DB	04H
	DB	04H
	DB	04H
	DB	04H
	DB	04H
	DB	04H
	DB	04H
	DB	04H
	DB	04H
	DB	04H
	DB	04H
	DB	04H
	DB	04H
	DB	04H
	DB	04H
	DB	04H
	DB	04H
	DB	04H
	DB	04H
	DB	04H
	DB	04H
	DB	04H
	DB	04H
	DB	04H
	DB	04H
	DB	04H
	DB	04H
	DB	04H
	DB	04H
	DB	04H
	DB	04H
	DB	04H
	DB	04H
	DB	04H
	DB	04H
	DB	04H
	DB	04H
	DB	04H
	DB	04H
	DB	04H
	DB	04H
	DB	04H
	DB	04H
	DB	04H
	DB	04H
	DB	063H
	DB	077H
	DB	05H
	DB	05H
	DB	05H
	DB	05H
	DB	05H
	DB	05H
	DB	05H
	DB	05H
	DB	05H
	DB	05H
	DB	07aH
	DB	0c8H
	DB	014H
	DB	09eH
	DB	074H
	DB	05H
	DB	05H
	DB	01eH
	DB	06fH
	DB	024H
	DB	04H
	DB	0a1H
	DB	089H
	DB	05H
	DB	05H
	DB	05H
	DB	077H
	DB	082H
	DB	014H
	DB	029H
	DB	081H
	DB	074H
	DB	05H
	DB	05H
	DB	05H
	DB	05H
	DB	085H
	DB	0a5H
	DB	0fbH
	DB	05H
	DB	05H
	DB	059H
	DB	06fH
	DB	088H
	DB	065H
	DB	059H
	DB	05H
	DB	05H
	DB	027H
	DB	0b1H
	DB	0fcH
	DB	05H
	DB	05H
	DB	05H
	DB	05H
	DB	085H
	DB	0bcH
	DB	03eH
	DB	062H
	DB	0b8H
	DB	065H
	DB	059H
	DB	05H
	DB	05H
	DB	07fH
	DB	04dH
	DB	024H
	DB	04H
	DB	04H
	DB	062H
	DB	091H
	DB	08aH
	DB	05H
	DB	05H
	DB	05H
	DB	05H
	DB	05H
	DB	05H
	DB	07fH
	DB	0d8H
	DB	09dH
	DB	018H
	DB	04H
	DB	03dH
	DB	0e2H
	DB	0e9H
	DB	0fdH
	DB	05H
	DB	05H
	DB	05H
	DB	0feH
	DB	010H
	DB	081H
	DB	05H
	DB	05H
	DB	05H
	DB	078H
	DB	06aH
	DB	05bH
	DB	04H
	DB	04H
	DB	04H
	DB	04H
	DB	04H
	DB	04H
	DB	04H
	DB	04H
	DB	04H
	DB	04H
	DB	04H
	DB	04H
	DB	04H
	DB	04H
	DB	04H
	DB	04H
	DB	04H
	DB	04H
	DB	04H
	DB	04H
	DB	04H
	DB	04H
	DB	04H
	DB	04H
	DB	04H
	DB	04H
	DB	04H
	DB	04H
	DB	04H
	DB	04H
	DB	04H
	DB	04H
	DB	04H
	DB	04H
	DB	04H
	DB	04H
	DB	04H
	DB	04H
	DB	04H
	DB	04H
	DB	04H
	DB	04H
	DB	04H
	DB	04H
	DB	04H
	DB	04H
	DB	04H
	DB	04H
	DB	04H
	DB	04H
	DB	04H
	DB	04H
	DB	04H
	DB	04H
	DB	04H
	DB	04H
	DB	04H
	DB	04H
	DB	04H
	DB	04H
	DB	04H
	DB	04H
	DB	05bH
	DB	062H
	DB	023H
	DB	09bH
	DB	03H
	DB	03H
	DB	09bH
	DB	01H
	DB	03H
	DB	07H
	DB	0e0H
	DB	0afH
	DB	0cdH
	DB	03H
	DB	09bH
	DB	0a7H
	DB	09bH
	DB	09bH
	DB	09bH
	DB	09bH
	DB	0a7H
	DB	09bH
	DB	09bH
	DB	09bH
	DB	09bH
	DB	0a7H
	DB	07H
	DB	0caH
	DB	01H
	DB	01H
	DB	01H
	DB	01H
	DB	01H
	DB	01H
	DB	01H
	DB	01H
	DB	01H
	DB	01H
	DB	01H
	DB	01H
	DB	01H
	DB	01H
	DB	01H
	DB	01H
	DB	01H
	DB	01H
	DB	01H
	DB	01H
	DB	01H
	DB	01H
	DB	01H
	DB	01H
	DB	01H
	DB	01H
	DB	01H
	DB	01H
	DB	01H
	DB	01H
	DB	01H
	DB	01H
	DB	01H
	DB	01H
	DB	01H
	DB	01H
	DB	01H
	DB	01H
	DB	01H
	DB	01H
	DB	01H
	DB	01H
	DB	01H
	DB	01H
	DB	01H
	DB	01H
	DB	01H
	DB	01H
	DB	01H
	DB	01H
	DB	01H
	DB	01H
	DB	01H
	DB	01H
	DB	01H
	DB	01H
	DB	01H
	DB	01H
	DB	01H
	DB	01H
	DB	01H
	DB	01H
	DB	01H
	DB	01H
	DB	01H
	DB	01H
	DB	01H
	DB	01H
	DB	01H
	DB	01H
	DB	01H
	DB	01H
	DB	01H
	DB	01H
	DB	01H
	DB	01H
	DB	01H
	DB	01H
	DB	01H
	DB	01H
	DB	01H
	DB	01H
	DB	01H
	DB	01H
	DB	01H
	DB	01H
	DB	01H
	DB	01H
	DB	01H
	DB	01H
	DB	01H
	DB	01H
	DB	01H
	DB	01H
	DB	01H
	DB	01H
	DB	01H
	DB	01H
	DB	01H
	DB	01H
	DB	01H
	DB	01H
	DB	01H
	DB	01H
	DB	01H
	DB	01H
	DB	01H
	DB	01H
	DB	01H
	DB	01H
	DB	01H
	DB	01H
	DB	01H
	DB	01H
	DB	01H
	DB	01H
	DB	01H
	DB	01H
	DB	01H
	DB	01H
	DB	01H
	DB	01H
	DB	01H
	DB	01H
	DB	01H
	DB	01H
	DB	01H
	DB	01H
	DB	01H
	DB	01H
	DB	01H
	DB	01H
	DB	01H
	DB	01H
	DB	01H
	DB	01H
	DB	01H
	DB	01H
	DB	01H
	DB	01H
	DB	01H
	DB	01H
	DB	01H
	DB	01H
	DB	01H
	DB	01H
	DB	01H
	DB	01H
	DB	01H
	DB	01H
	DB	01H
	DB	01H
	DB	01H
	DB	01H
	DB	01H
	DB	01H
	DB	01H
	DB	01H
	DB	01H
	DB	01H
	DB	01H
	DB	01H
	DB	01H
	DB	01H
	DB	01H
	DB	01H
	DB	01H
	DB	01H
	DB	01H
	DB	01H
	DB	01H
	DB	01H
	DB	01H
	DB	01H
	DB	01H
	DB	01H
	DB	01H
	DB	01H
	DB	01H
	DB	01H
	DB	01H
	DB	01H
	DB	01H
	DB	01H
	DB	01H
	DB	01H
	DB	01H
	DB	01H
	DB	01H
	DB	01H
	DB	01H
	DB	01H
	DB	01H
	DB	01H
	DB	01H
	DB	01H
	DB	01H
	DB	0cdH
	DB	012H
	DB	01H
	DB	0a7H
	DB	09bH
	DB	09bH
	DB	09bH
	DB	09bH
	DB	0a7H
	DB	09bH
	DB	09bH
	DB	09bH
	DB	09bH
	DB	0a7H
	DB	0a7H
	DB	09bH
	DB	01H
	DB	04dH
	DB	06cH
	DB	03dH
	DB	04H
	DB	04H
	DB	04H
	DB	04H
	DB	04H
	DB	04H
	DB	04H
	DB	04H
	DB	04H
	DB	04H
	DB	04H
	DB	04H
	DB	04H
	DB	04H
	DB	04H
	DB	04H
	DB	04H
	DB	04H
	DB	04H
	DB	04H
	DB	04H
	DB	04H
	DB	04H
	DB	04H
	DB	04H
	DB	04H
	DB	04H
	DB	04H
	DB	04H
	DB	04H
	DB	04H
	DB	04H
	DB	04H
	DB	04H
	DB	04H
	DB	04H
	DB	04H
	DB	04H
	DB	04H
	DB	04H
	DB	04H
	DB	04H
	DB	04H
	DB	04H
	DB	04H
	DB	04H
	DB	04H
	DB	04H
	DB	04H
	DB	04H
	DB	04H
	DB	04H
	DB	04H
	DB	04H
	DB	04H
	DB	04H
	DB	04H
	DB	04H
	DB	04H
	DB	04H
	DB	04H
	DB	04H
	DB	014H
	DB	0ddH
	DB	010H
	DB	010H
	DB	010H
	DB	010H
	DB	010H
	DB	010H
	DB	010H
	DB	010H
	DB	010H
	DB	010H
	DB	034H
	DB	04dH
	DB	026H
	DB	0d3H
	DB	08H
	DB	010H
	DB	010H
	DB	0dfH
	DB	0aaH
	DB	024H
	DB	04H
	DB	026H
	DB	0a5H
	DB	078H
	DB	010H
	DB	010H
	DB	0b3H
	DB	062H
	DB	014H
	DB	03dH
	DB	0e2H
	DB	0c8H
	DB	081H
	DB	0e0H
	DB	0e0H
	DB	0caH
	DB	03eH
	DB	04cH
	DB	012H
	DB	010H
	DB	010H
	DB	0dfH
	DB	0aaH
	DB	018H
	DB	0d4H
	DB	08H
	DB	010H
	DB	010H
	DB	033H
	DB	073H
	DB	06eH
	DB	0a5H
	DB	0e0H
	DB	0e0H
	DB	084H
	DB	05eH
	DB	03eH
	DB	046H
	DB	018H
	DB	04H
	DB	0a2H
	DB	091H
	DB	010H
	DB	010H
	DB	08H
	DB	04dH
	DB	01cH
	DB	04H
	DB	04H
	DB	04H
	DB	087H
	DB	06fH
	DB	081H
	DB	0ccH
	DB	07H
	DB	07H
	DB	078H
	DB	081H
	DB	076H
	DB	05eH
	DB	064H
	DB	024H
	DB	014H
	DB	04H
	DB	04H
	DB	087H
	DB	09dH
	DB	08H
	DB	010H
	DB	02eH
	DB	076H
	DB	073H
	DB	06fH
	DB	0e0H
	DB	010H
	DB	010H
	DB	0bcH
	DB	0c9H
	DB	05bH
	DB	04H
	DB	04H
	DB	04H
	DB	04H
	DB	04H
	DB	04H
	DB	04H
	DB	04H
	DB	04H
	DB	04H
	DB	04H
	DB	04H
	DB	04H
	DB	04H
	DB	04H
	DB	04H
	DB	04H
	DB	04H
	DB	04H
	DB	04H
	DB	04H
	DB	04H
	DB	04H
	DB	04H
	DB	04H
	DB	04H
	DB	04H
	DB	04H
	DB	04H
	DB	04H
	DB	04H
	DB	04H
	DB	04H
	DB	04H
	DB	04H
	DB	04H
	DB	04H
	DB	04H
	DB	04H
	DB	04H
	DB	04H
	DB	04H
	DB	04H
	DB	04H
	DB	04H
	DB	04H
	DB	04H
	DB	04H
	DB	04H
	DB	04H
	DB	04H
	DB	04H
	DB	04H
	DB	04H
	DB	04H
	DB	04H
	DB	04H
	DB	04H
	DB	04H
	DB	04H
	DB	04H
	DB	04H
	DB	05bH
	DB	062H
	DB	023H
	DB	01H
	DB	0a7H
	DB	0a7H
	DB	09bH
	DB	01H
	DB	03H
	DB	07H
	DB	0e0H
	DB	0afH
	DB	0cdH
	DB	03H
	DB	01H
	DB	09bH
	DB	0a7H
	DB	0a7H
	DB	0a7H
	DB	09bH
	DB	09bH
	DB	09bH
	DB	0a7H
	DB	0a7H
	DB	09bH
	DB	09bH
	DB	07H
	DB	0caH
	DB	01H
	DB	01H
	DB	01H
	DB	01H
	DB	01H
	DB	01H
	DB	01H
	DB	01H
	DB	01H
	DB	01H
	DB	01H
	DB	01H
	DB	01H
	DB	01H
	DB	01H
	DB	01H
	DB	01H
	DB	01H
	DB	01H
	DB	01H
	DB	01H
	DB	01H
	DB	01H
	DB	01H
	DB	01H
	DB	01H
	DB	01H
	DB	01H
	DB	01H
	DB	01H
	DB	01H
	DB	01H
	DB	01H
	DB	01H
	DB	01H
	DB	01H
	DB	01H
	DB	01H
	DB	01H
	DB	01H
	DB	01H
	DB	01H
	DB	01H
	DB	01H
	DB	01H
	DB	01H
	DB	01H
	DB	01H
	DB	01H
	DB	01H
	DB	01H
	DB	01H
	DB	01H
	DB	01H
	DB	01H
	DB	01H
	DB	01H
	DB	01H
	DB	01H
	DB	01H
	DB	01H
	DB	01H
	DB	01H
	DB	01H
	DB	01H
	DB	01H
	DB	01H
	DB	01H
	DB	01H
	DB	01H
	DB	01H
	DB	01H
	DB	01H
	DB	01H
	DB	01H
	DB	01H
	DB	01H
	DB	01H
	DB	01H
	DB	01H
	DB	01H
	DB	01H
	DB	01H
	DB	01H
	DB	01H
	DB	01H
	DB	01H
	DB	01H
	DB	01H
	DB	01H
	DB	01H
	DB	01H
	DB	01H
	DB	01H
	DB	01H
	DB	01H
	DB	01H
	DB	01H
	DB	01H
	DB	01H
	DB	01H
	DB	01H
	DB	01H
	DB	01H
	DB	01H
	DB	01H
	DB	01H
	DB	01H
	DB	01H
	DB	01H
	DB	01H
	DB	01H
	DB	01H
	DB	01H
	DB	01H
	DB	01H
	DB	01H
	DB	01H
	DB	01H
	DB	01H
	DB	01H
	DB	01H
	DB	01H
	DB	01H
	DB	01H
	DB	01H
	DB	01H
	DB	01H
	DB	01H
	DB	01H
	DB	01H
	DB	01H
	DB	01H
	DB	01H
	DB	01H
	DB	01H
	DB	01H
	DB	01H
	DB	01H
	DB	01H
	DB	01H
	DB	01H
	DB	01H
	DB	01H
	DB	01H
	DB	01H
	DB	01H
	DB	01H
	DB	01H
	DB	01H
	DB	01H
	DB	01H
	DB	01H
	DB	01H
	DB	01H
	DB	01H
	DB	01H
	DB	01H
	DB	01H
	DB	01H
	DB	01H
	DB	01H
	DB	01H
	DB	01H
	DB	01H
	DB	01H
	DB	01H
	DB	01H
	DB	01H
	DB	01H
	DB	01H
	DB	01H
	DB	01H
	DB	01H
	DB	01H
	DB	01H
	DB	01H
	DB	01H
	DB	01H
	DB	01H
	DB	01H
	DB	01H
	DB	01H
	DB	01H
	DB	01H
	DB	01H
	DB	01H
	DB	01H
	DB	01H
	DB	01H
	DB	01H
	DB	01H
	DB	01H
	DB	01H
	DB	01H
	DB	01H
	DB	01H
	DB	0cdH
	DB	012H
	DB	01H
	DB	09bH
	DB	0a7H
	DB	0a7H
	DB	0a7H
	DB	09bH
	DB	09bH
	DB	09bH
	DB	0a7H
	DB	0a7H
	DB	0a7H
	DB	09bH
	DB	09bH
	DB	0a7H
	DB	09bH
	DB	04dH
	DB	06cH
	DB	03dH
	DB	04H
	DB	04H
	DB	04H
	DB	04H
	DB	04H
	DB	04H
	DB	04H
	DB	04H
	DB	04H
	DB	04H
	DB	04H
	DB	04H
	DB	04H
	DB	04H
	DB	04H
	DB	04H
	DB	04H
	DB	04H
	DB	04H
	DB	04H
	DB	04H
	DB	04H
	DB	04H
	DB	04H
	DB	04H
	DB	04H
	DB	04H
	DB	04H
	DB	04H
	DB	04H
	DB	04H
	DB	04H
	DB	04H
	DB	04H
	DB	04H
	DB	04H
	DB	04H
	DB	04H
	DB	04H
	DB	04H
	DB	04H
	DB	04H
	DB	04H
	DB	04H
	DB	04H
	DB	04H
	DB	04H
	DB	04H
	DB	04H
	DB	04H
	DB	04H
	DB	04H
	DB	04H
	DB	04H
	DB	04H
	DB	04H
	DB	04H
	DB	04H
	DB	04H
	DB	04H
	DB	04H
	DB	04H
	DB	04H
	DB	0b8H
	DB	087H
	DB	080H
	DB	0dbH
	DB	0dbH
	DB	0dbH
	DB	0dbH
	DB	0dbH
	DB	0dbH
	DB	0dbH
	DB	0dbH
	DB	0dbH
	DB	064H
	DB	0a2H
	DB	014H
	DB	0a1H
	DB	08cH
	DB	0dbH
	DB	04cH
	DB	046H
	DB	018H
	DB	04H
	DB	04H
	DB	063H
	DB	082H
	DB	080H
	DB	0a8H
	DB	02aH
	DB	029H
	DB	014H
	DB	04H
	DB	04H
	DB	018H
	DB	0c9H
	DB	080H
	DB	0dbH
	DB	080H
	DB	064H
	DB	045H
	DB	087H
	DB	08cH
	DB	0dbH
	DB	04cH
	DB	046H
	DB	026H
	DB	04H
	DB	0a1H
	DB	08cH
	DB	0dbH
	DB	04cH
	DB	046H
	DB	029H
	DB	087H
	DB	080H
	DB	0dbH
	DB	080H
	DB	064H
	DB	045H
	DB	01cH
	DB	014H
	DB	04H
	DB	04H
	DB	088H
	DB	08cH
	DB	0dbH
	DB	04cH
	DB	046H
	DB	0a2H
	DB	04H
	DB	04H
	DB	04H
	DB	014H
	DB	018H
	DB	08cH
	DB	080H
	DB	04cH
	DB	03eH
	DB	0a8H
	DB	04cH
	DB	02aH
	DB	046H
	DB	057H
	DB	026H
	DB	04H
	DB	04H
	DB	04H
	DB	014H
	DB	024H
	DB	08cH
	DB	080H
	DB	0dbH
	DB	02aH
	DB	046H
	DB	057H
	DB	082H
	DB	080H
	DB	0dbH
	DB	02aH
	DB	057H
	DB	05bH
	DB	04H
	DB	04H
	DB	04H
	DB	04H
	DB	04H
	DB	04H
	DB	04H
	DB	04H
	DB	04H
	DB	04H
	DB	04H
	DB	04H
	DB	04H
	DB	04H
	DB	04H
	DB	04H
	DB	04H
	DB	04H
	DB	04H
	DB	04H
	DB	04H
	DB	04H
	DB	04H
	DB	04H
	DB	04H
	DB	04H
	DB	04H
	DB	04H
	DB	04H
	DB	04H
	DB	04H
	DB	04H
	DB	04H
	DB	04H
	DB	04H
	DB	04H
	DB	04H
	DB	04H
	DB	04H
	DB	04H
	DB	04H
	DB	04H
	DB	04H
	DB	04H
	DB	04H
	DB	04H
	DB	04H
	DB	04H
	DB	04H
	DB	04H
	DB	04H
	DB	04H
	DB	04H
	DB	04H
	DB	04H
	DB	04H
	DB	04H
	DB	04H
	DB	04H
	DB	04H
	DB	04H
	DB	04H
	DB	05bH
	DB	062H
	DB	023H
	DB	01H
	DB	09bH
	DB	09bH
	DB	0a7H
	DB	09bH
	DB	0c5H
	DB	07H
	DB	0e0H
	DB	0afH
	DB	0cdH
	DB	03H
	DB	01H
	DB	01H
	DB	09bH
	DB	0a7H
	DB	0a7H
	DB	09bH
	DB	01H
	DB	09bH
	DB	0a7H
	DB	0a7H
	DB	09bH
	DB	01H
	DB	07H
	DB	0caH
	DB	01H
	DB	01H
	DB	01H
	DB	01H
	DB	01H
	DB	01H
	DB	01H
	DB	01H
	DB	01H
	DB	01H
	DB	01H
	DB	01H
	DB	01H
	DB	01H
	DB	01H
	DB	01H
	DB	01H
	DB	01H
	DB	01H
	DB	01H
	DB	01H
	DB	01H
	DB	01H
	DB	01H
	DB	01H
	DB	01H
	DB	01H
	DB	01H
	DB	01H
	DB	01H
	DB	01H
	DB	01H
	DB	01H
	DB	01H
	DB	01H
	DB	01H
	DB	01H
	DB	01H
	DB	01H
	DB	01H
	DB	01H
	DB	01H
	DB	01H
	DB	01H
	DB	01H
	DB	01H
	DB	01H
	DB	01H
	DB	01H
	DB	01H
	DB	01H
	DB	01H
	DB	01H
	DB	01H
	DB	01H
	DB	01H
	DB	01H
	DB	01H
	DB	01H
	DB	01H
	DB	01H
	DB	01H
	DB	01H
	DB	01H
	DB	01H
	DB	01H
	DB	01H
	DB	01H
	DB	01H
	DB	01H
	DB	01H
	DB	01H
	DB	01H
	DB	01H
	DB	01H
	DB	01H
	DB	01H
	DB	01H
	DB	01H
	DB	01H
	DB	01H
	DB	01H
	DB	01H
	DB	01H
	DB	01H
	DB	01H
	DB	01H
	DB	01H
	DB	01H
	DB	01H
	DB	01H
	DB	01H
	DB	01H
	DB	01H
	DB	01H
	DB	01H
	DB	01H
	DB	01H
	DB	01H
	DB	01H
	DB	01H
	DB	01H
	DB	01H
	DB	01H
	DB	01H
	DB	01H
	DB	01H
	DB	01H
	DB	01H
	DB	01H
	DB	01H
	DB	01H
	DB	01H
	DB	01H
	DB	01H
	DB	01H
	DB	01H
	DB	01H
	DB	01H
	DB	01H
	DB	01H
	DB	01H
	DB	01H
	DB	01H
	DB	01H
	DB	01H
	DB	01H
	DB	01H
	DB	01H
	DB	01H
	DB	01H
	DB	01H
	DB	01H
	DB	01H
	DB	01H
	DB	01H
	DB	01H
	DB	01H
	DB	01H
	DB	01H
	DB	01H
	DB	01H
	DB	01H
	DB	01H
	DB	01H
	DB	01H
	DB	01H
	DB	01H
	DB	01H
	DB	01H
	DB	01H
	DB	01H
	DB	01H
	DB	01H
	DB	01H
	DB	01H
	DB	01H
	DB	01H
	DB	01H
	DB	01H
	DB	01H
	DB	01H
	DB	01H
	DB	01H
	DB	01H
	DB	01H
	DB	01H
	DB	01H
	DB	01H
	DB	01H
	DB	01H
	DB	01H
	DB	01H
	DB	01H
	DB	01H
	DB	01H
	DB	01H
	DB	01H
	DB	01H
	DB	01H
	DB	01H
	DB	01H
	DB	01H
	DB	01H
	DB	01H
	DB	01H
	DB	01H
	DB	01H
	DB	01H
	DB	01H
	DB	01H
	DB	01H
	DB	01H
	DB	01H
	DB	01H
	DB	01H
	DB	01H
	DB	0cdH
	DB	012H
	DB	01H
	DB	01H
	DB	09bH
	DB	0a7H
	DB	0a7H
	DB	09bH
	DB	01H
	DB	09bH
	DB	0a7H
	DB	0a7H
	DB	09bH
	DB	01H
	DB	01H
	DB	09bH
	DB	09bH
	DB	04dH
	DB	06cH
	DB	03dH
	DB	04H
	DB	04H
	DB	04H
	DB	04H
	DB	04H
	DB	04H
	DB	04H
	DB	04H
	DB	04H
	DB	04H
	DB	04H
	DB	04H
	DB	04H
	DB	04H
	DB	04H
	DB	04H
	DB	04H
	DB	04H
	DB	04H
	DB	04H
	DB	04H
	DB	04H
	DB	04H
	DB	04H
	DB	04H
	DB	04H
	DB	04H
	DB	04H
	DB	04H
	DB	04H
	DB	04H
	DB	04H
	DB	04H
	DB	04H
	DB	04H
	DB	04H
	DB	04H
	DB	04H
	DB	04H
	DB	04H
	DB	04H
	DB	04H
	DB	04H
	DB	04H
	DB	04H
	DB	04H
	DB	04H
	DB	04H
	DB	04H
	DB	04H
	DB	04H
	DB	04H
	DB	04H
	DB	04H
	DB	04H
	DB	04H
	DB	04H
	DB	04H
	DB	04H
	DB	04H
	DB	04H
	DB	04H
	DB	04H
	DB	04H
	DB	014H
	DB	0a2H
	DB	024H
	DB	024H
	DB	024H
	DB	024H
	DB	024H
	DB	024H
	DB	024H
	DB	024H
	DB	024H
	DB	0a2H
	DB	05bH
	DB	04H
	DB	04H
	DB	026H
	DB	024H
	DB	024H
	DB	0a2H
	DB	05bH
	DB	04H
	DB	04H
	DB	04H
	DB	05bH
	DB	01cH
	DB	029H
	DB	01cH
	DB	015H
	DB	04H
	DB	04H
	DB	04H
	DB	014H
	DB	05bH
	DB	018H
	DB	024H
	DB	024H
	DB	0a2H
	DB	015H
	DB	014H
	DB	015H
	DB	01cH
	DB	024H
	DB	018H
	DB	05bH
	DB	04H
	DB	04H
	DB	026H
	DB	024H
	DB	024H
	DB	018H
	DB	05bH
	DB	014H
	DB	026H
	DB	01cH
	DB	024H
	DB	0a2H
	DB	015H
	DB	014H
	DB	04H
	DB	04H
	DB	04H
	DB	04H
	DB	026H
	DB	024H
	DB	024H
	DB	0a2H
	DB	05bH
	DB	04H
	DB	04H
	DB	04H
	DB	04H
	DB	04H
	DB	05bH
	DB	018H
	DB	029H
	DB	029H
	DB	029H
	DB	029H
	DB	01cH
	DB	026H
	DB	05bH
	DB	04H
	DB	04H
	DB	04H
	DB	04H
	DB	04H
	DB	014H
	DB	015H
	DB	018H
	DB	024H
	DB	01cH
	DB	026H
	DB	014H
	DB	05bH
	DB	018H
	DB	024H
	DB	024H
	DB	026H
	DB	014H
	DB	04H
	DB	04H
	DB	04H
	DB	04H
	DB	04H
	DB	04H
	DB	04H
	DB	04H
	DB	04H
	DB	04H
	DB	04H
	DB	04H
	DB	04H
	DB	04H
	DB	04H
	DB	04H
	DB	04H
	DB	04H
	DB	04H
	DB	04H
	DB	04H
	DB	04H
	DB	04H
	DB	04H
	DB	04H
	DB	04H
	DB	04H
	DB	04H
	DB	04H
	DB	04H
	DB	04H
	DB	04H
	DB	04H
	DB	04H
	DB	04H
	DB	04H
	DB	04H
	DB	04H
	DB	04H
	DB	04H
	DB	04H
	DB	04H
	DB	04H
	DB	04H
	DB	04H
	DB	04H
	DB	04H
	DB	04H
	DB	04H
	DB	04H
	DB	04H
	DB	04H
	DB	04H
	DB	04H
	DB	04H
	DB	04H
	DB	04H
	DB	04H
	DB	04H
	DB	04H
	DB	04H
	DB	04H
	DB	05bH
	DB	062H
	DB	023H
	DB	01H
	DB	01H
	DB	01H
	DB	09bH
	DB	09bH
	DB	0c5H
	DB	07H
	DB	0e0H
	DB	0afH
	DB	0cdH
	DB	03H
	DB	01H
	DB	09bH
	DB	09bH
	DB	09bH
	DB	09bH
	DB	09bH
	DB	09bH
	DB	09bH
	DB	09bH
	DB	09bH
	DB	09bH
	DB	09bH
	DB	07H
	DB	0caH
	DB	01H
	DB	01H
	DB	01H
	DB	01H
	DB	01H
	DB	01H
	DB	01H
	DB	01H
	DB	01H
	DB	01H
	DB	01H
	DB	01H
	DB	01H
	DB	01H
	DB	01H
	DB	01H
	DB	01H
	DB	01H
	DB	01H
	DB	01H
	DB	01H
	DB	01H
	DB	01H
	DB	01H
	DB	01H
	DB	01H
	DB	01H
	DB	01H
	DB	01H
	DB	01H
	DB	01H
	DB	01H
	DB	01H
	DB	01H
	DB	01H
	DB	01H
	DB	01H
	DB	01H
	DB	01H
	DB	01H
	DB	01H
	DB	01H
	DB	01H
	DB	01H
	DB	01H
	DB	01H
	DB	01H
	DB	01H
	DB	01H
	DB	01H
	DB	01H
	DB	01H
	DB	01H
	DB	01H
	DB	01H
	DB	01H
	DB	01H
	DB	01H
	DB	01H
	DB	01H
	DB	01H
	DB	01H
	DB	01H
	DB	01H
	DB	01H
	DB	01H
	DB	01H
	DB	01H
	DB	01H
	DB	01H
	DB	01H
	DB	01H
	DB	01H
	DB	01H
	DB	01H
	DB	01H
	DB	01H
	DB	01H
	DB	01H
	DB	01H
	DB	01H
	DB	01H
	DB	01H
	DB	01H
	DB	01H
	DB	01H
	DB	01H
	DB	01H
	DB	01H
	DB	01H
	DB	01H
	DB	01H
	DB	01H
	DB	01H
	DB	01H
	DB	01H
	DB	01H
	DB	01H
	DB	01H
	DB	01H
	DB	01H
	DB	01H
	DB	01H
	DB	01H
	DB	01H
	DB	01H
	DB	01H
	DB	01H
	DB	01H
	DB	01H
	DB	01H
	DB	01H
	DB	01H
	DB	01H
	DB	01H
	DB	01H
	DB	01H
	DB	01H
	DB	01H
	DB	01H
	DB	01H
	DB	01H
	DB	01H
	DB	01H
	DB	01H
	DB	01H
	DB	01H
	DB	01H
	DB	01H
	DB	01H
	DB	01H
	DB	01H
	DB	01H
	DB	01H
	DB	01H
	DB	01H
	DB	01H
	DB	01H
	DB	01H
	DB	01H
	DB	01H
	DB	01H
	DB	01H
	DB	01H
	DB	01H
	DB	01H
	DB	01H
	DB	01H
	DB	01H
	DB	01H
	DB	01H
	DB	01H
	DB	01H
	DB	01H
	DB	01H
	DB	01H
	DB	01H
	DB	01H
	DB	01H
	DB	01H
	DB	01H
	DB	01H
	DB	01H
	DB	01H
	DB	01H
	DB	01H
	DB	01H
	DB	01H
	DB	01H
	DB	01H
	DB	01H
	DB	01H
	DB	01H
	DB	01H
	DB	01H
	DB	01H
	DB	01H
	DB	01H
	DB	01H
	DB	01H
	DB	01H
	DB	01H
	DB	01H
	DB	01H
	DB	01H
	DB	01H
	DB	01H
	DB	01H
	DB	01H
	DB	01H
	DB	01H
	DB	01H
	DB	01H
	DB	01H
	DB	01H
	DB	01H
	DB	01H
	DB	0cdH
	DB	012H
	DB	01H
	DB	09bH
	DB	09bH
	DB	09bH
	DB	09bH
	DB	09bH
	DB	09bH
	DB	09bH
	DB	09bH
	DB	09bH
	DB	09bH
	DB	09bH
	DB	09bH
	DB	09bH
	DB	09bH
	DB	04dH
	DB	06cH
	DB	03dH
	DB	04H
	DB	04H
	DB	04H
	DB	04H
	DB	04H
	DB	04H
	DB	04H
	DB	04H
	DB	04H
	DB	04H
	DB	04H
	DB	04H
	DB	04H
	DB	04H
	DB	04H
	DB	04H
	DB	04H
	DB	04H
	DB	04H
	DB	04H
	DB	04H
	DB	04H
	DB	04H
	DB	04H
	DB	04H
	DB	04H
	DB	04H
	DB	04H
	DB	04H
	DB	04H
	DB	04H
	DB	04H
	DB	04H
	DB	04H
	DB	04H
	DB	04H
	DB	04H
	DB	04H
	DB	04H
	DB	04H
	DB	04H
	DB	04H
	DB	04H
	DB	04H
	DB	04H
	DB	04H
	DB	04H
	DB	04H
	DB	04H
	DB	04H
	DB	04H
	DB	04H
	DB	04H
	DB	04H
	DB	04H
	DB	04H
	DB	04H
	DB	04H
	DB	04H
	DB	04H
	DB	04H
	DB	04H
	DB	04H
	DB	04H
	DB	04H
	DB	04H
	DB	04H
	DB	04H
	DB	04H
	DB	04H
	DB	04H
	DB	04H
	DB	04H
	DB	04H
	DB	04H
	DB	04H
	DB	04H
	DB	04H
	DB	04H
	DB	04H
	DB	04H
	DB	04H
	DB	04H
	DB	04H
	DB	04H
	DB	04H
	DB	04H
	DB	04H
	DB	04H
	DB	04H
	DB	04H
	DB	04H
	DB	04H
	DB	04H
	DB	04H
	DB	04H
	DB	04H
	DB	04H
	DB	04H
	DB	04H
	DB	04H
	DB	04H
	DB	04H
	DB	04H
	DB	04H
	DB	04H
	DB	04H
	DB	04H
	DB	04H
	DB	04H
	DB	04H
	DB	04H
	DB	04H
	DB	04H
	DB	04H
	DB	04H
	DB	04H
	DB	04H
	DB	04H
	DB	04H
	DB	04H
	DB	04H
	DB	04H
	DB	04H
	DB	04H
	DB	04H
	DB	04H
	DB	04H
	DB	04H
	DB	04H
	DB	04H
	DB	04H
	DB	04H
	DB	04H
	DB	04H
	DB	04H
	DB	04H
	DB	04H
	DB	014H
	DB	014H
	DB	014H
	DB	014H
	DB	04H
	DB	04H
	DB	04H
	DB	04H
	DB	04H
	DB	04H
	DB	04H
	DB	04H
	DB	04H
	DB	04H
	DB	04H
	DB	04H
	DB	04H
	DB	04H
	DB	04H
	DB	04H
	DB	04H
	DB	04H
	DB	04H
	DB	04H
	DB	04H
	DB	04H
	DB	04H
	DB	04H
	DB	04H
	DB	04H
	DB	04H
	DB	04H
	DB	04H
	DB	04H
	DB	04H
	DB	04H
	DB	04H
	DB	04H
	DB	04H
	DB	04H
	DB	04H
	DB	04H
	DB	04H
	DB	04H
	DB	04H
	DB	04H
	DB	04H
	DB	04H
	DB	04H
	DB	04H
	DB	04H
	DB	04H
	DB	04H
	DB	04H
	DB	04H
	DB	04H
	DB	04H
	DB	04H
	DB	04H
	DB	04H
	DB	04H
	DB	04H
	DB	04H
	DB	04H
	DB	04H
	DB	04H
	DB	04H
	DB	04H
	DB	04H
	DB	04H
	DB	04H
	DB	04H
	DB	04H
	DB	04H
	DB	04H
	DB	04H
	DB	04H
	DB	04H
	DB	04H
	DB	04H
	DB	04H
	DB	04H
	DB	04H
	DB	04H
	DB	04H
	DB	04H
	DB	04H
	DB	05bH
	DB	062H
	DB	023H
	DB	01H
	DB	09bH
	DB	09bH
	DB	09bH
	DB	09bH
	DB	03H
	DB	07H
	DB	0e0H
	DB	0afH
	DB	0cdH
	DB	0c5H
	DB	09bH
	DB	0a7H
	DB	09bH
	DB	09bH
	DB	09bH
	DB	09bH
	DB	0a7H
	DB	09bH
	DB	09bH
	DB	09bH
	DB	09bH
	DB	0a7H
	DB	07H
	DB	0caH
	DB	01H
	DB	01H
	DB	01H
	DB	01H
	DB	01H
	DB	01H
	DB	01H
	DB	01H
	DB	01H
	DB	01H
	DB	01H
	DB	01H
	DB	01H
	DB	01H
	DB	01H
	DB	01H
	DB	01H
	DB	01H
	DB	01H
	DB	01H
	DB	01H
	DB	01H
	DB	01H
	DB	01H
	DB	01H
	DB	01H
	DB	01H
	DB	01H
	DB	01H
	DB	01H
	DB	01H
	DB	01H
	DB	01H
	DB	01H
	DB	01H
	DB	01H
	DB	01H
	DB	01H
	DB	01H
	DB	01H
	DB	01H
	DB	01H
	DB	01H
	DB	01H
	DB	01H
	DB	01H
	DB	01H
	DB	01H
	DB	01H
	DB	01H
	DB	01H
	DB	01H
	DB	01H
	DB	01H
	DB	01H
	DB	01H
	DB	01H
	DB	01H
	DB	01H
	DB	01H
	DB	01H
	DB	01H
	DB	01H
	DB	01H
	DB	01H
	DB	01H
	DB	01H
	DB	01H
	DB	01H
	DB	01H
	DB	01H
	DB	01H
	DB	01H
	DB	01H
	DB	01H
	DB	01H
	DB	01H
	DB	01H
	DB	01H
	DB	01H
	DB	01H
	DB	01H
	DB	01H
	DB	01H
	DB	01H
	DB	01H
	DB	01H
	DB	01H
	DB	01H
	DB	01H
	DB	01H
	DB	01H
	DB	01H
	DB	01H
	DB	01H
	DB	01H
	DB	01H
	DB	01H
	DB	01H
	DB	01H
	DB	01H
	DB	01H
	DB	01H
	DB	01H
	DB	01H
	DB	01H
	DB	01H
	DB	01H
	DB	01H
	DB	01H
	DB	01H
	DB	01H
	DB	01H
	DB	01H
	DB	01H
	DB	01H
	DB	01H
	DB	01H
	DB	01H
	DB	01H
	DB	01H
	DB	01H
	DB	01H
	DB	01H
	DB	01H
	DB	01H
	DB	01H
	DB	01H
	DB	01H
	DB	01H
	DB	01H
	DB	01H
	DB	01H
	DB	01H
	DB	01H
	DB	01H
	DB	01H
	DB	01H
	DB	01H
	DB	01H
	DB	01H
	DB	01H
	DB	01H
	DB	01H
	DB	01H
	DB	01H
	DB	01H
	DB	01H
	DB	01H
	DB	01H
	DB	01H
	DB	01H
	DB	01H
	DB	01H
	DB	01H
	DB	01H
	DB	01H
	DB	01H
	DB	01H
	DB	01H
	DB	01H
	DB	01H
	DB	01H
	DB	01H
	DB	01H
	DB	01H
	DB	01H
	DB	01H
	DB	01H
	DB	01H
	DB	01H
	DB	01H
	DB	01H
	DB	01H
	DB	01H
	DB	01H
	DB	01H
	DB	01H
	DB	01H
	DB	01H
	DB	01H
	DB	01H
	DB	01H
	DB	01H
	DB	01H
	DB	01H
	DB	01H
	DB	01H
	DB	01H
	DB	01H
	DB	01H
	DB	01H
	DB	01H
	DB	01H
	DB	01H
	DB	01H
	DB	01H
	DB	0cdH
	DB	012H
	DB	01H
	DB	0a7H
	DB	09bH
	DB	09bH
	DB	09bH
	DB	09bH
	DB	0a7H
	DB	09bH
	DB	09bH
	DB	09bH
	DB	09bH
	DB	0a7H
	DB	0a7H
	DB	09bH
	DB	01H
	DB	04dH
	DB	06cH
	DB	03dH
	DB	04H
	DB	04H
	DB	04H
	DB	04H
	DB	04H
	DB	04H
	DB	04H
	DB	04H
	DB	04H
	DB	04H
	DB	04H
	DB	04H
	DB	04H
	DB	04H
	DB	04H
	DB	04H
	DB	04H
	DB	04H
	DB	04H
	DB	04H
	DB	04H
	DB	04H
	DB	04H
	DB	04H
	DB	04H
	DB	04H
	DB	04H
	DB	04H
	DB	04H
	DB	04H
	DB	04H
	DB	04H
	DB	04H
	DB	04H
	DB	04H
	DB	04H
	DB	04H
	DB	04H
	DB	04H
	DB	04H
	DB	04H
	DB	04H
	DB	04H
	DB	04H
	DB	04H
	DB	04H
	DB	04H
	DB	04H
	DB	04H
	DB	04H
	DB	04H
	DB	04H
	DB	04H
	DB	04H
	DB	04H
	DB	04H
	DB	04H
	DB	04H
	DB	04H
	DB	04H
	DB	04H
	DB	04H
	DB	04H
	DB	04H
	DB	04H
	DB	04H
	DB	04H
	DB	04H
	DB	04H
	DB	04H
	DB	04H
	DB	04H
	DB	04H
	DB	04H
	DB	04H
	DB	04H
	DB	04H
	DB	04H
	DB	04H
	DB	04H
	DB	04H
	DB	04H
	DB	04H
	DB	04H
	DB	04H
	DB	04H
	DB	04H
	DB	04H
	DB	04H
	DB	04H
	DB	04H
	DB	04H
	DB	04H
	DB	04H
	DB	04H
	DB	04H
	DB	04H
	DB	04H
	DB	04H
	DB	04H
	DB	04H
	DB	04H
	DB	04H
	DB	04H
	DB	04H
	DB	04H
	DB	04H
	DB	04H
	DB	04H
	DB	04H
	DB	04H
	DB	04H
	DB	04H
	DB	04H
	DB	04H
	DB	04H
	DB	04H
	DB	04H
	DB	04H
	DB	04H
	DB	04H
	DB	04H
	DB	04H
	DB	04H
	DB	04H
	DB	04H
	DB	04H
	DB	04H
	DB	04H
	DB	04H
	DB	04H
	DB	04H
	DB	04H
	DB	04H
	DB	04H
	DB	04H
	DB	04H
	DB	04H
	DB	04H
	DB	04H
	DB	04H
	DB	04H
	DB	04H
	DB	04H
	DB	04H
	DB	04H
	DB	04H
	DB	04H
	DB	04H
	DB	04H
	DB	04H
	DB	04H
	DB	04H
	DB	04H
	DB	04H
	DB	04H
	DB	04H
	DB	04H
	DB	04H
	DB	04H
	DB	04H
	DB	04H
	DB	04H
	DB	04H
	DB	04H
	DB	04H
	DB	04H
	DB	04H
	DB	04H
	DB	04H
	DB	04H
	DB	04H
	DB	04H
	DB	04H
	DB	04H
	DB	04H
	DB	04H
	DB	04H
	DB	04H
	DB	04H
	DB	04H
	DB	04H
	DB	04H
	DB	04H
	DB	04H
	DB	04H
	DB	04H
	DB	04H
	DB	04H
	DB	04H
	DB	04H
	DB	04H
	DB	04H
	DB	04H
	DB	04H
	DB	04H
	DB	04H
	DB	04H
	DB	04H
	DB	04H
	DB	04H
	DB	04H
	DB	04H
	DB	04H
	DB	04H
	DB	04H
	DB	04H
	DB	04H
	DB	04H
	DB	04H
	DB	04H
	DB	04H
	DB	04H
	DB	04H
	DB	04H
	DB	04H
	DB	04H
	DB	04H
	DB	04H
	DB	04H
	DB	04H
	DB	04H
	DB	04H
	DB	04H
	DB	04H
	DB	05bH
	DB	062H
	DB	023H
	DB	01H
	DB	0a7H
	DB	0a7H
	DB	09bH
	DB	01H
	DB	03H
	DB	07H
	DB	0e0H
	DB	0afH
	DB	0cdH
	DB	03H
	DB	09bH
	DB	09bH
	DB	01H
	DB	01H
	DB	01H
	DB	09bH
	DB	09bH
	DB	09bH
	DB	01H
	DB	01H
	DB	01H
	DB	09bH
	DB	07H
	DB	0caH
	DB	01H
	DB	01H
	DB	01H
	DB	01H
	DB	01H
	DB	01H
	DB	01H
	DB	01H
	DB	01H
	DB	01H
	DB	01H
	DB	01H
	DB	01H
	DB	01H
	DB	01H
	DB	01H
	DB	01H
	DB	01H
	DB	01H
	DB	01H
	DB	01H
	DB	01H
	DB	01H
	DB	01H
	DB	01H
	DB	01H
	DB	01H
	DB	01H
	DB	01H
	DB	01H
	DB	01H
	DB	01H
	DB	01H
	DB	01H
	DB	01H
	DB	01H
	DB	01H
	DB	01H
	DB	01H
	DB	01H
	DB	01H
	DB	01H
	DB	01H
	DB	01H
	DB	01H
	DB	01H
	DB	01H
	DB	01H
	DB	01H
	DB	01H
	DB	01H
	DB	01H
	DB	01H
	DB	01H
	DB	01H
	DB	01H
	DB	01H
	DB	01H
	DB	01H
	DB	01H
	DB	01H
	DB	01H
	DB	01H
	DB	01H
	DB	01H
	DB	01H
	DB	01H
	DB	01H
	DB	01H
	DB	01H
	DB	01H
	DB	01H
	DB	01H
	DB	01H
	DB	01H
	DB	01H
	DB	01H
	DB	01H
	DB	01H
	DB	01H
	DB	01H
	DB	01H
	DB	01H
	DB	01H
	DB	01H
	DB	01H
	DB	01H
	DB	01H
	DB	01H
	DB	01H
	DB	01H
	DB	01H
	DB	01H
	DB	01H
	DB	01H
	DB	01H
	DB	01H
	DB	01H
	DB	01H
	DB	01H
	DB	01H
	DB	01H
	DB	01H
	DB	01H
	DB	01H
	DB	01H
	DB	01H
	DB	01H
	DB	01H
	DB	01H
	DB	01H
	DB	01H
	DB	01H
	DB	01H
	DB	01H
	DB	01H
	DB	01H
	DB	01H
	DB	01H
	DB	01H
	DB	01H
	DB	01H
	DB	01H
	DB	01H
	DB	01H
	DB	01H
	DB	01H
	DB	01H
	DB	01H
	DB	01H
	DB	01H
	DB	01H
	DB	01H
	DB	01H
	DB	01H
	DB	01H
	DB	01H
	DB	01H
	DB	01H
	DB	01H
	DB	01H
	DB	01H
	DB	01H
	DB	01H
	DB	01H
	DB	01H
	DB	01H
	DB	01H
	DB	01H
	DB	01H
	DB	01H
	DB	01H
	DB	01H
	DB	01H
	DB	01H
	DB	01H
	DB	01H
	DB	01H
	DB	01H
	DB	01H
	DB	01H
	DB	01H
	DB	01H
	DB	01H
	DB	01H
	DB	01H
	DB	01H
	DB	01H
	DB	01H
	DB	01H
	DB	01H
	DB	01H
	DB	01H
	DB	01H
	DB	01H
	DB	01H
	DB	01H
	DB	01H
	DB	01H
	DB	01H
	DB	01H
	DB	01H
	DB	01H
	DB	01H
	DB	01H
	DB	01H
	DB	01H
	DB	01H
	DB	01H
	DB	01H
	DB	01H
	DB	01H
	DB	01H
	DB	01H
	DB	01H
	DB	01H
	DB	01H
	DB	0cdH
	DB	012H
	DB	01H
	DB	09bH
	DB	09bH
	DB	01H
	DB	01H
	DB	09bH
	DB	09bH
	DB	09bH
	DB	01H
	DB	01H
	DB	01H
	DB	09bH
	DB	09bH
	DB	09bH
	DB	01H
	DB	04dH
	DB	06cH
	DB	03dH
	DB	04H
	DB	04H
	DB	04H
	DB	04H
	DB	04H
	DB	04H
	DB	04H
	DB	04H
	DB	04H
	DB	04H
	DB	04H
	DB	04H
	DB	04H
	DB	04H
	DB	04H
	DB	04H
	DB	04H
	DB	04H
	DB	04H
	DB	04H
	DB	04H
	DB	04H
	DB	04H
	DB	04H
	DB	04H
	DB	04H
	DB	04H
	DB	04H
	DB	04H
	DB	04H
	DB	04H
	DB	04H
	DB	04H
	DB	04H
	DB	04H
	DB	04H
	DB	04H
	DB	04H
	DB	04H
	DB	04H
	DB	04H
	DB	04H
	DB	04H
	DB	04H
	DB	04H
	DB	04H
	DB	04H
	DB	04H
	DB	04H
	DB	04H
	DB	04H
	DB	04H
	DB	04H
	DB	04H
	DB	04H
	DB	04H
	DB	04H
	DB	04H
	DB	04H
	DB	04H
	DB	04H
	DB	04H
	DB	04H
	DB	04H
	DB	04H
	DB	04H
	DB	04H
	DB	04H
	DB	04H
	DB	04H
	DB	04H
	DB	04H
	DB	04H
	DB	04H
	DB	04H
	DB	04H
	DB	04H
	DB	04H
	DB	04H
	DB	04H
	DB	04H
	DB	04H
	DB	04H
	DB	04H
	DB	04H
	DB	04H
	DB	04H
	DB	04H
	DB	04H
	DB	04H
	DB	04H
	DB	04H
	DB	04H
	DB	04H
	DB	04H
	DB	04H
	DB	04H
	DB	04H
	DB	04H
	DB	04H
	DB	04H
	DB	04H
	DB	04H
	DB	04H
	DB	04H
	DB	04H
	DB	04H
	DB	04H
	DB	04H
	DB	04H
	DB	04H
	DB	04H
	DB	04H
	DB	04H
	DB	04H
	DB	04H
	DB	04H
	DB	04H
	DB	04H
	DB	04H
	DB	04H
	DB	04H
	DB	04H
	DB	04H
	DB	04H
	DB	04H
	DB	04H
	DB	04H
	DB	04H
	DB	04H
	DB	04H
	DB	04H
	DB	04H
	DB	04H
	DB	04H
	DB	04H
	DB	04H
	DB	04H
	DB	04H
	DB	04H
	DB	04H
	DB	04H
	DB	04H
	DB	04H
	DB	04H
	DB	04H
	DB	04H
	DB	04H
	DB	04H
	DB	04H
	DB	04H
	DB	04H
	DB	04H
	DB	04H
	DB	04H
	DB	04H
	DB	04H
	DB	04H
	DB	04H
	DB	04H
	DB	04H
	DB	04H
	DB	04H
	DB	04H
	DB	04H
	DB	04H
	DB	04H
	DB	04H
	DB	04H
	DB	04H
	DB	04H
	DB	04H
	DB	04H
	DB	04H
	DB	04H
	DB	04H
	DB	04H
	DB	04H
	DB	04H
	DB	04H
	DB	04H
	DB	04H
	DB	04H
	DB	04H
	DB	04H
	DB	04H
	DB	04H
	DB	04H
	DB	04H
	DB	04H
	DB	04H
	DB	04H
	DB	04H
	DB	04H
	DB	04H
	DB	04H
	DB	04H
	DB	04H
	DB	04H
	DB	04H
	DB	04H
	DB	04H
	DB	04H
	DB	04H
	DB	04H
	DB	04H
	DB	04H
	DB	04H
	DB	04H
	DB	04H
	DB	04H
	DB	04H
	DB	04H
	DB	04H
	DB	04H
	DB	04H
	DB	04H
	DB	04H
	DB	04H
	DB	04H
	DB	04H
	DB	04H
	DB	04H
	DB	04H
	DB	04H
	DB	05bH
	DB	062H
	DB	023H
	DB	01H
	DB	09bH
	DB	09bH
	DB	01H
	DB	01H
	DB	03H
	DB	07H
	DB	0e0H
	DB	0afH
	DB	0cdH
	DB	03H
	DB	01H
	DB	09bH
	DB	09bH
	DB	09bH
	DB	09bH
	DB	09bH
	DB	09bH
	DB	09bH
	DB	09bH
	DB	09bH
	DB	09bH
	DB	09bH
	DB	07H
	DB	0caH
	DB	01H
	DB	01H
	DB	01H
	DB	01H
	DB	01H
	DB	01H
	DB	01H
	DB	01H
	DB	01H
	DB	01H
	DB	01H
	DB	01H
	DB	01H
	DB	01H
	DB	01H
	DB	01H
	DB	01H
	DB	01H
	DB	01H
	DB	01H
	DB	01H
	DB	01H
	DB	01H
	DB	01H
	DB	01H
	DB	01H
	DB	01H
	DB	01H
	DB	01H
	DB	01H
	DB	01H
	DB	01H
	DB	01H
	DB	01H
	DB	01H
	DB	01H
	DB	01H
	DB	01H
	DB	01H
	DB	01H
	DB	01H
	DB	01H
	DB	01H
	DB	01H
	DB	01H
	DB	01H
	DB	01H
	DB	01H
	DB	01H
	DB	01H
	DB	01H
	DB	01H
	DB	01H
	DB	01H
	DB	01H
	DB	01H
	DB	01H
	DB	01H
	DB	01H
	DB	01H
	DB	01H
	DB	01H
	DB	01H
	DB	01H
	DB	01H
	DB	01H
	DB	01H
	DB	01H
	DB	01H
	DB	01H
	DB	01H
	DB	01H
	DB	01H
	DB	01H
	DB	01H
	DB	01H
	DB	01H
	DB	01H
	DB	01H
	DB	01H
	DB	01H
	DB	01H
	DB	01H
	DB	01H
	DB	01H
	DB	01H
	DB	01H
	DB	01H
	DB	01H
	DB	01H
	DB	01H
	DB	01H
	DB	01H
	DB	01H
	DB	01H
	DB	01H
	DB	01H
	DB	01H
	DB	01H
	DB	01H
	DB	01H
	DB	01H
	DB	01H
	DB	01H
	DB	01H
	DB	01H
	DB	01H
	DB	01H
	DB	01H
	DB	01H
	DB	01H
	DB	01H
	DB	01H
	DB	01H
	DB	01H
	DB	01H
	DB	01H
	DB	01H
	DB	01H
	DB	01H
	DB	01H
	DB	01H
	DB	01H
	DB	01H
	DB	01H
	DB	01H
	DB	01H
	DB	01H
	DB	01H
	DB	01H
	DB	01H
	DB	01H
	DB	01H
	DB	01H
	DB	01H
	DB	01H
	DB	01H
	DB	01H
	DB	01H
	DB	01H
	DB	01H
	DB	01H
	DB	01H
	DB	01H
	DB	01H
	DB	01H
	DB	01H
	DB	01H
	DB	01H
	DB	01H
	DB	01H
	DB	01H
	DB	01H
	DB	01H
	DB	01H
	DB	01H
	DB	01H
	DB	01H
	DB	01H
	DB	01H
	DB	01H
	DB	01H
	DB	01H
	DB	01H
	DB	01H
	DB	01H
	DB	01H
	DB	01H
	DB	01H
	DB	01H
	DB	01H
	DB	01H
	DB	01H
	DB	01H
	DB	01H
	DB	01H
	DB	01H
	DB	01H
	DB	01H
	DB	01H
	DB	01H
	DB	01H
	DB	01H
	DB	01H
	DB	01H
	DB	01H
	DB	01H
	DB	01H
	DB	01H
	DB	01H
	DB	01H
	DB	01H
	DB	01H
	DB	01H
	DB	01H
	DB	01H
	DB	01H
	DB	0cdH
	DB	012H
	DB	01H
	DB	09bH
	DB	09bH
	DB	09bH
	DB	09bH
	DB	09bH
	DB	09bH
	DB	09bH
	DB	09bH
	DB	09bH
	DB	09bH
	DB	09bH
	DB	09bH
	DB	09bH
	DB	01H
	DB	04dH
	DB	06cH
	DB	03dH
	DB	04H
	DB	04H
	DB	04H
	DB	04H
	DB	04H
	DB	04H
	DB	04H
	DB	04H
	DB	04H
	DB	04H
	DB	04H
	DB	04H
	DB	04H
	DB	04H
	DB	04H
	DB	04H
	DB	04H
	DB	04H
	DB	04H
	DB	04H
	DB	04H
	DB	04H
	DB	04H
	DB	04H
	DB	04H
	DB	04H
	DB	04H
	DB	04H
	DB	04H
	DB	04H
	DB	04H
	DB	04H
	DB	04H
	DB	04H
	DB	04H
	DB	04H
	DB	04H
	DB	04H
	DB	04H
	DB	04H
	DB	04H
	DB	04H
	DB	04H
	DB	04H
	DB	04H
	DB	04H
	DB	04H
	DB	04H
	DB	04H
	DB	04H
	DB	04H
	DB	04H
	DB	04H
	DB	04H
	DB	04H
	DB	04H
	DB	04H
	DB	04H
	DB	04H
	DB	04H
	DB	04H
	DB	04H
	DB	04H
	DB	04H
	DB	04H
	DB	04H
	DB	04H
	DB	04H
	DB	04H
	DB	04H
	DB	04H
	DB	04H
	DB	04H
	DB	04H
	DB	04H
	DB	04H
	DB	04H
	DB	04H
	DB	04H
	DB	04H
	DB	04H
	DB	04H
	DB	04H
	DB	04H
	DB	04H
	DB	04H
	DB	04H
	DB	04H
	DB	04H
	DB	04H
	DB	04H
	DB	04H
	DB	04H
	DB	04H
	DB	04H
	DB	04H
	DB	04H
	DB	04H
	DB	04H
	DB	04H
	DB	04H
	DB	04H
	DB	04H
	DB	04H
	DB	04H
	DB	04H
	DB	04H
	DB	04H
	DB	04H
	DB	04H
	DB	04H
	DB	04H
	DB	04H
	DB	04H
	DB	04H
	DB	04H
	DB	04H
	DB	04H
	DB	04H
	DB	04H
	DB	04H
	DB	04H
	DB	04H
	DB	04H
	DB	04H
	DB	04H
	DB	04H
	DB	04H
	DB	04H
	DB	04H
	DB	04H
	DB	04H
	DB	04H
	DB	04H
	DB	04H
	DB	04H
	DB	04H
	DB	04H
	DB	04H
	DB	04H
	DB	04H
	DB	04H
	DB	04H
	DB	04H
	DB	04H
	DB	04H
	DB	04H
	DB	04H
	DB	04H
	DB	04H
	DB	04H
	DB	04H
	DB	04H
	DB	04H
	DB	04H
	DB	04H
	DB	04H
	DB	04H
	DB	04H
	DB	04H
	DB	04H
	DB	04H
	DB	04H
	DB	04H
	DB	04H
	DB	04H
	DB	04H
	DB	04H
	DB	04H
	DB	04H
	DB	04H
	DB	04H
	DB	04H
	DB	04H
	DB	04H
	DB	04H
	DB	04H
	DB	04H
	DB	04H
	DB	04H
	DB	04H
	DB	04H
	DB	04H
	DB	04H
	DB	04H
	DB	04H
	DB	04H
	DB	04H
	DB	04H
	DB	04H
	DB	04H
	DB	04H
	DB	04H
	DB	04H
	DB	04H
	DB	04H
	DB	04H
	DB	04H
	DB	04H
	DB	04H
	DB	04H
	DB	04H
	DB	04H
	DB	04H
	DB	04H
	DB	04H
	DB	04H
	DB	04H
	DB	04H
	DB	04H
	DB	04H
	DB	04H
	DB	04H
	DB	04H
	DB	04H
	DB	04H
	DB	04H
	DB	04H
	DB	04H
	DB	04H
	DB	04H
	DB	04H
	DB	04H
	DB	04H
	DB	04H
	DB	05bH
	DB	062H
	DB	023H
	DB	01H
	DB	09bH
	DB	09bH
	DB	09bH
	DB	01H
	DB	03H
	DB	07H
	DB	0e0H
	DB	0afH
	DB	0cdH
	DB	03H
	DB	01H
	DB	01H
	DB	09bH
	DB	09bH
	DB	09bH
	DB	01H
	DB	01H
	DB	09bH
	DB	09bH
	DB	09bH
	DB	09bH
	DB	09bH
	DB	07H
	DB	0caH
	DB	01H
	DB	01H
	DB	01H
	DB	01H
	DB	01H
	DB	01H
	DB	01H
	DB	01H
	DB	01H
	DB	01H
	DB	01H
	DB	01H
	DB	01H
	DB	01H
	DB	01H
	DB	01H
	DB	01H
	DB	01H
	DB	01H
	DB	01H
	DB	01H
	DB	01H
	DB	01H
	DB	01H
	DB	01H
	DB	01H
	DB	01H
	DB	01H
	DB	01H
	DB	01H
	DB	01H
	DB	01H
	DB	01H
	DB	01H
	DB	01H
	DB	01H
	DB	01H
	DB	01H
	DB	01H
	DB	01H
	DB	01H
	DB	01H
	DB	01H
	DB	01H
	DB	01H
	DB	01H
	DB	01H
	DB	01H
	DB	01H
	DB	01H
	DB	01H
	DB	01H
	DB	01H
	DB	01H
	DB	01H
	DB	01H
	DB	01H
	DB	01H
	DB	01H
	DB	01H
	DB	01H
	DB	01H
	DB	01H
	DB	01H
	DB	01H
	DB	01H
	DB	01H
	DB	01H
	DB	01H
	DB	01H
	DB	01H
	DB	01H
	DB	01H
	DB	01H
	DB	01H
	DB	01H
	DB	01H
	DB	01H
	DB	01H
	DB	01H
	DB	01H
	DB	01H
	DB	01H
	DB	01H
	DB	01H
	DB	01H
	DB	01H
	DB	01H
	DB	01H
	DB	01H
	DB	01H
	DB	01H
	DB	01H
	DB	01H
	DB	01H
	DB	01H
	DB	01H
	DB	01H
	DB	01H
	DB	01H
	DB	01H
	DB	01H
	DB	01H
	DB	01H
	DB	01H
	DB	01H
	DB	01H
	DB	01H
	DB	01H
	DB	01H
	DB	01H
	DB	01H
	DB	01H
	DB	01H
	DB	01H
	DB	01H
	DB	01H
	DB	01H
	DB	01H
	DB	01H
	DB	01H
	DB	01H
	DB	01H
	DB	01H
	DB	01H
	DB	01H
	DB	01H
	DB	01H
	DB	01H
	DB	01H
	DB	01H
	DB	01H
	DB	01H
	DB	01H
	DB	01H
	DB	01H
	DB	01H
	DB	01H
	DB	01H
	DB	01H
	DB	01H
	DB	01H
	DB	01H
	DB	01H
	DB	01H
	DB	01H
	DB	01H
	DB	01H
	DB	01H
	DB	01H
	DB	01H
	DB	01H
	DB	01H
	DB	01H
	DB	01H
	DB	01H
	DB	01H
	DB	01H
	DB	01H
	DB	01H
	DB	01H
	DB	01H
	DB	01H
	DB	01H
	DB	01H
	DB	01H
	DB	01H
	DB	01H
	DB	01H
	DB	01H
	DB	01H
	DB	01H
	DB	01H
	DB	01H
	DB	01H
	DB	01H
	DB	01H
	DB	01H
	DB	01H
	DB	01H
	DB	01H
	DB	01H
	DB	01H
	DB	01H
	DB	01H
	DB	01H
	DB	01H
	DB	01H
	DB	01H
	DB	01H
	DB	01H
	DB	01H
	DB	01H
	DB	01H
	DB	01H
	DB	01H
	DB	01H
	DB	0cdH
	DB	012H
	DB	01H
	DB	01H
	DB	09bH
	DB	09bH
	DB	09bH
	DB	01H
	DB	01H
	DB	09bH
	DB	09bH
	DB	09bH
	DB	09bH
	DB	01H
	DB	01H
	DB	09bH
	DB	09bH
	DB	04dH
	DB	06cH
	DB	03dH
	DB	04H
	DB	04H
	DB	04H
	DB	04H
	DB	04H
	DB	04H
	DB	04H
	DB	04H
	DB	04H
	DB	04H
	DB	04H
	DB	04H
	DB	04H
	DB	04H
	DB	04H
	DB	04H
	DB	04H
	DB	04H
	DB	04H
	DB	04H
	DB	04H
	DB	04H
	DB	04H
	DB	04H
	DB	04H
	DB	04H
	DB	04H
	DB	04H
	DB	04H
	DB	04H
	DB	04H
	DB	04H
	DB	04H
	DB	04H
	DB	04H
	DB	04H
	DB	04H
	DB	04H
	DB	04H
	DB	04H
	DB	04H
	DB	04H
	DB	04H
	DB	04H
	DB	04H
	DB	04H
	DB	04H
	DB	04H
	DB	04H
	DB	04H
	DB	04H
	DB	04H
	DB	04H
	DB	04H
	DB	04H
	DB	04H
	DB	04H
	DB	04H
	DB	04H
	DB	04H
	DB	04H
	DB	04H
	DB	04H
	DB	04H
	DB	04H
	DB	04H
	DB	04H
	DB	04H
	DB	04H
	DB	04H
	DB	04H
	DB	04H
	DB	04H
	DB	04H
	DB	04H
	DB	04H
	DB	04H
	DB	04H
	DB	04H
	DB	04H
	DB	04H
	DB	04H
	DB	04H
	DB	04H
	DB	04H
	DB	04H
	DB	04H
	DB	04H
	DB	04H
	DB	04H
	DB	04H
	DB	04H
	DB	04H
	DB	04H
	DB	04H
	DB	04H
	DB	04H
	DB	04H
	DB	04H
	DB	04H
	DB	04H
	DB	04H
	DB	04H
	DB	04H
	DB	04H
	DB	04H
	DB	04H
	DB	04H
	DB	04H
	DB	04H
	DB	04H
	DB	04H
	DB	04H
	DB	04H
	DB	04H
	DB	04H
	DB	04H
	DB	04H
	DB	04H
	DB	04H
	DB	04H
	DB	04H
	DB	04H
	DB	04H
	DB	04H
	DB	04H
	DB	04H
	DB	04H
	DB	04H
	DB	04H
	DB	04H
	DB	04H
	DB	04H
	DB	04H
	DB	04H
	DB	04H
	DB	04H
	DB	04H
	DB	04H
	DB	04H
	DB	04H
	DB	04H
	DB	04H
	DB	04H
	DB	04H
	DB	04H
	DB	04H
	DB	04H
	DB	04H
	DB	04H
	DB	04H
	DB	04H
	DB	04H
	DB	04H
	DB	04H
	DB	04H
	DB	04H
	DB	04H
	DB	04H
	DB	04H
	DB	04H
	DB	04H
	DB	04H
	DB	04H
	DB	04H
	DB	04H
	DB	04H
	DB	04H
	DB	04H
	DB	04H
	DB	04H
	DB	04H
	DB	04H
	DB	04H
	DB	04H
	DB	04H
	DB	04H
	DB	04H
	DB	04H
	DB	04H
	DB	04H
	DB	04H
	DB	04H
	DB	04H
	DB	04H
	DB	04H
	DB	04H
	DB	04H
	DB	04H
	DB	04H
	DB	04H
	DB	04H
	DB	04H
	DB	04H
	DB	04H
	DB	04H
	DB	04H
	DB	04H
	DB	04H
	DB	04H
	DB	04H
	DB	04H
	DB	04H
	DB	04H
	DB	04H
	DB	04H
	DB	04H
	DB	04H
	DB	04H
	DB	04H
	DB	04H
	DB	04H
	DB	04H
	DB	04H
	DB	04H
	DB	04H
	DB	04H
	DB	04H
	DB	04H
	DB	04H
	DB	04H
	DB	04H
	DB	04H
	DB	04H
	DB	04H
	DB	05bH
	DB	062H
	DB	023H
	DB	01H
	DB	01H
	DB	01H
	DB	09bH
	DB	09bH
	DB	03H
	DB	07H
	DB	0e0H
	DB	0afH
	DB	0cdH
	DB	03H
	DB	01H
	DB	01H
	DB	09bH
	DB	09bH
	DB	09bH
	DB	01H
	DB	01H
	DB	01H
	DB	09bH
	DB	09bH
	DB	01H
	DB	01H
	DB	07H
	DB	0caH
	DB	01H
	DB	01H
	DB	01H
	DB	01H
	DB	01H
	DB	01H
	DB	01H
	DB	01H
	DB	01H
	DB	01H
	DB	01H
	DB	01H
	DB	01H
	DB	01H
	DB	01H
	DB	01H
	DB	01H
	DB	01H
	DB	01H
	DB	01H
	DB	01H
	DB	01H
	DB	01H
	DB	01H
	DB	01H
	DB	01H
	DB	01H
	DB	01H
	DB	01H
	DB	01H
	DB	01H
	DB	01H
	DB	01H
	DB	01H
	DB	01H
	DB	01H
	DB	01H
	DB	01H
	DB	01H
	DB	01H
	DB	01H
	DB	01H
	DB	01H
	DB	01H
	DB	01H
	DB	01H
	DB	01H
	DB	01H
	DB	01H
	DB	01H
	DB	01H
	DB	01H
	DB	01H
	DB	01H
	DB	01H
	DB	01H
	DB	01H
	DB	01H
	DB	01H
	DB	01H
	DB	01H
	DB	01H
	DB	01H
	DB	01H
	DB	01H
	DB	01H
	DB	01H
	DB	01H
	DB	01H
	DB	01H
	DB	01H
	DB	01H
	DB	01H
	DB	01H
	DB	01H
	DB	01H
	DB	01H
	DB	01H
	DB	01H
	DB	01H
	DB	01H
	DB	01H
	DB	01H
	DB	01H
	DB	01H
	DB	01H
	DB	01H
	DB	01H
	DB	01H
	DB	01H
	DB	01H
	DB	01H
	DB	01H
	DB	01H
	DB	01H
	DB	01H
	DB	01H
	DB	01H
	DB	01H
	DB	01H
	DB	01H
	DB	01H
	DB	01H
	DB	01H
	DB	01H
	DB	01H
	DB	01H
	DB	01H
	DB	01H
	DB	01H
	DB	01H
	DB	01H
	DB	01H
	DB	01H
	DB	01H
	DB	01H
	DB	01H
	DB	01H
	DB	01H
	DB	01H
	DB	01H
	DB	01H
	DB	01H
	DB	01H
	DB	01H
	DB	01H
	DB	01H
	DB	01H
	DB	01H
	DB	01H
	DB	01H
	DB	01H
	DB	01H
	DB	01H
	DB	01H
	DB	01H
	DB	01H
	DB	01H
	DB	01H
	DB	01H
	DB	01H
	DB	01H
	DB	01H
	DB	01H
	DB	01H
	DB	01H
	DB	01H
	DB	01H
	DB	01H
	DB	01H
	DB	01H
	DB	01H
	DB	01H
	DB	01H
	DB	01H
	DB	01H
	DB	01H
	DB	01H
	DB	01H
	DB	01H
	DB	01H
	DB	01H
	DB	01H
	DB	01H
	DB	01H
	DB	01H
	DB	01H
	DB	01H
	DB	01H
	DB	01H
	DB	01H
	DB	01H
	DB	01H
	DB	01H
	DB	01H
	DB	01H
	DB	01H
	DB	01H
	DB	01H
	DB	01H
	DB	01H
	DB	01H
	DB	01H
	DB	01H
	DB	01H
	DB	01H
	DB	01H
	DB	01H
	DB	01H
	DB	01H
	DB	01H
	DB	01H
	DB	01H
	DB	01H
	DB	01H
	DB	01H
	DB	01H
	DB	0cdH
	DB	012H
	DB	01H
	DB	01H
	DB	01H
	DB	09bH
	DB	09bH
	DB	01H
	DB	01H
	DB	01H
	DB	09bH
	DB	09bH
	DB	09bH
	DB	01H
	DB	01H
	DB	01H
	DB	01H
	DB	04dH
	DB	06cH
	DB	03dH
	DB	04H
	DB	04H
	DB	04H
	DB	04H
	DB	04H
	DB	04H
	DB	04H
	DB	04H
	DB	04H
	DB	04H
	DB	04H
	DB	04H
	DB	04H
	DB	04H
	DB	04H
	DB	04H
	DB	04H
	DB	04H
	DB	04H
	DB	04H
	DB	04H
	DB	04H
	DB	04H
	DB	04H
	DB	04H
	DB	04H
	DB	04H
	DB	04H
	DB	04H
	DB	04H
	DB	04H
	DB	04H
	DB	04H
	DB	04H
	DB	04H
	DB	04H
	DB	04H
	DB	04H
	DB	04H
	DB	04H
	DB	04H
	DB	04H
	DB	04H
	DB	04H
	DB	04H
	DB	04H
	DB	04H
	DB	04H
	DB	04H
	DB	04H
	DB	04H
	DB	04H
	DB	04H
	DB	04H
	DB	04H
	DB	04H
	DB	04H
	DB	04H
	DB	04H
	DB	04H
	DB	04H
	DB	04H
	DB	04H
	DB	04H
	DB	04H
	DB	04H
	DB	04H
	DB	04H
	DB	04H
	DB	04H
	DB	04H
	DB	04H
	DB	04H
	DB	04H
	DB	04H
	DB	04H
	DB	04H
	DB	04H
	DB	04H
	DB	04H
	DB	04H
	DB	04H
	DB	04H
	DB	04H
	DB	04H
	DB	04H
	DB	04H
	DB	04H
	DB	04H
	DB	04H
	DB	04H
	DB	04H
	DB	04H
	DB	04H
	DB	04H
	DB	04H
	DB	04H
	DB	04H
	DB	04H
	DB	04H
	DB	04H
	DB	04H
	DB	04H
	DB	04H
	DB	04H
	DB	04H
	DB	04H
	DB	04H
	DB	04H
	DB	04H
	DB	04H
	DB	04H
	DB	04H
	DB	04H
	DB	04H
	DB	04H
	DB	04H
	DB	04H
	DB	04H
	DB	04H
	DB	04H
	DB	04H
	DB	04H
	DB	04H
	DB	04H
	DB	04H
	DB	04H
	DB	04H
	DB	04H
	DB	04H
	DB	04H
	DB	04H
	DB	04H
	DB	04H
	DB	04H
	DB	04H
	DB	04H
	DB	04H
	DB	04H
	DB	04H
	DB	04H
	DB	04H
	DB	04H
	DB	04H
	DB	04H
	DB	04H
	DB	04H
	DB	04H
	DB	04H
	DB	04H
	DB	04H
	DB	04H
	DB	04H
	DB	04H
	DB	04H
	DB	04H
	DB	04H
	DB	04H
	DB	04H
	DB	04H
	DB	04H
	DB	04H
	DB	04H
	DB	04H
	DB	04H
	DB	04H
	DB	04H
	DB	04H
	DB	04H
	DB	04H
	DB	04H
	DB	04H
	DB	04H
	DB	04H
	DB	04H
	DB	04H
	DB	04H
	DB	04H
	DB	04H
	DB	04H
	DB	04H
	DB	04H
	DB	04H
	DB	04H
	DB	04H
	DB	04H
	DB	04H
	DB	04H
	DB	04H
	DB	04H
	DB	04H
	DB	04H
	DB	04H
	DB	04H
	DB	04H
	DB	04H
	DB	04H
	DB	04H
	DB	04H
	DB	04H
	DB	04H
	DB	04H
	DB	04H
	DB	04H
	DB	04H
	DB	04H
	DB	04H
	DB	04H
	DB	04H
	DB	04H
	DB	04H
	DB	04H
	DB	04H
	DB	04H
	DB	04H
	DB	04H
	DB	04H
	DB	04H
	DB	04H
	DB	04H
	DB	04H
	DB	04H
	DB	04H
	DB	04H
	DB	04H
	DB	05bH
	DB	062H
	DB	023H
	DB	01H
	DB	01H
	DB	01H
	DB	09bH
	DB	01H
	DB	03H
	DB	07H
	DB	0e0H
	DB	0afH
	DB	0cdH
	DB	03H
	DB	01H
	DB	09bH
	DB	09bH
	DB	09bH
	DB	09bH
	DB	09bH
	DB	09bH
	DB	09bH
	DB	01H
	DB	09bH
	DB	01H
	DB	09bH
	DB	07H
	DB	0caH
	DB	01H
	DB	01H
	DB	01H
	DB	01H
	DB	01H
	DB	01H
	DB	01H
	DB	01H
	DB	01H
	DB	01H
	DB	01H
	DB	01H
	DB	01H
	DB	01H
	DB	01H
	DB	01H
	DB	01H
	DB	01H
	DB	01H
	DB	01H
	DB	01H
	DB	01H
	DB	01H
	DB	01H
	DB	01H
	DB	01H
	DB	01H
	DB	01H
	DB	01H
	DB	01H
	DB	01H
	DB	01H
	DB	01H
	DB	01H
	DB	01H
	DB	01H
	DB	01H
	DB	01H
	DB	01H
	DB	01H
	DB	01H
	DB	01H
	DB	01H
	DB	01H
	DB	01H
	DB	01H
	DB	01H
	DB	01H
	DB	01H
	DB	01H
	DB	01H
	DB	01H
	DB	01H
	DB	01H
	DB	01H
	DB	01H
	DB	01H
	DB	01H
	DB	01H
	DB	01H
	DB	01H
	DB	01H
	DB	01H
	DB	01H
	DB	01H
	DB	01H
	DB	01H
	DB	01H
	DB	01H
	DB	01H
	DB	01H
	DB	01H
	DB	01H
	DB	01H
	DB	01H
	DB	01H
	DB	01H
	DB	01H
	DB	01H
	DB	01H
	DB	01H
	DB	01H
	DB	01H
	DB	01H
	DB	01H
	DB	01H
	DB	01H
	DB	01H
	DB	01H
	DB	01H
	DB	01H
	DB	01H
	DB	01H
	DB	01H
	DB	01H
	DB	01H
	DB	01H
	DB	01H
	DB	01H
	DB	01H
	DB	01H
	DB	01H
	DB	01H
	DB	01H
	DB	01H
	DB	01H
	DB	01H
	DB	01H
	DB	01H
	DB	01H
	DB	01H
	DB	01H
	DB	01H
	DB	01H
	DB	01H
	DB	01H
	DB	01H
	DB	01H
	DB	01H
	DB	01H
	DB	01H
	DB	01H
	DB	01H
	DB	01H
	DB	01H
	DB	01H
	DB	01H
	DB	01H
	DB	01H
	DB	01H
	DB	01H
	DB	01H
	DB	01H
	DB	01H
	DB	01H
	DB	01H
	DB	01H
	DB	01H
	DB	01H
	DB	01H
	DB	01H
	DB	01H
	DB	01H
	DB	01H
	DB	01H
	DB	01H
	DB	01H
	DB	01H
	DB	01H
	DB	01H
	DB	01H
	DB	01H
	DB	01H
	DB	01H
	DB	01H
	DB	01H
	DB	01H
	DB	01H
	DB	01H
	DB	01H
	DB	01H
	DB	01H
	DB	01H
	DB	01H
	DB	01H
	DB	01H
	DB	01H
	DB	01H
	DB	01H
	DB	01H
	DB	01H
	DB	01H
	DB	01H
	DB	01H
	DB	01H
	DB	01H
	DB	01H
	DB	01H
	DB	01H
	DB	01H
	DB	01H
	DB	01H
	DB	01H
	DB	01H
	DB	01H
	DB	01H
	DB	01H
	DB	01H
	DB	01H
	DB	01H
	DB	01H
	DB	01H
	DB	01H
	DB	01H
	DB	01H
	DB	01H
	DB	01H
	DB	0cdH
	DB	012H
	DB	01H
	DB	09bH
	DB	09bH
	DB	09bH
	DB	01H
	DB	09bH
	DB	09bH
	DB	09bH
	DB	09bH
	DB	09bH
	DB	09bH
	DB	09bH
	DB	09bH
	DB	09bH
	DB	01H
	DB	04dH
	DB	06cH
	DB	03dH
	DB	04H
	DB	04H
	DB	04H
	DB	04H
	DB	04H
	DB	04H
	DB	04H
	DB	04H
	DB	04H
	DB	04H
	DB	04H
	DB	04H
	DB	04H
	DB	04H
	DB	04H
	DB	04H
	DB	04H
	DB	04H
	DB	04H
	DB	04H
	DB	04H
	DB	04H
	DB	04H
	DB	04H
	DB	04H
	DB	04H
	DB	04H
	DB	04H
	DB	04H
	DB	04H
	DB	04H
	DB	04H
	DB	04H
	DB	04H
	DB	04H
	DB	04H
	DB	04H
	DB	04H
	DB	04H
	DB	04H
	DB	04H
	DB	04H
	DB	04H
	DB	04H
	DB	04H
	DB	04H
	DB	04H
	DB	04H
	DB	04H
	DB	04H
	DB	04H
	DB	04H
	DB	04H
	DB	04H
	DB	04H
	DB	04H
	DB	04H
	DB	04H
	DB	04H
	DB	04H
	DB	04H
	DB	04H
	DB	04H
	DB	04H
	DB	04H
	DB	04H
	DB	04H
	DB	04H
	DB	04H
	DB	04H
	DB	04H
	DB	04H
	DB	04H
	DB	04H
	DB	04H
	DB	04H
	DB	04H
	DB	04H
	DB	04H
	DB	04H
	DB	04H
	DB	04H
	DB	04H
	DB	04H
	DB	04H
	DB	04H
	DB	04H
	DB	04H
	DB	04H
	DB	04H
	DB	04H
	DB	04H
	DB	04H
	DB	04H
	DB	04H
	DB	04H
	DB	04H
	DB	04H
	DB	04H
	DB	04H
	DB	04H
	DB	04H
	DB	04H
	DB	04H
	DB	04H
	DB	04H
	DB	04H
	DB	04H
	DB	04H
	DB	04H
	DB	04H
	DB	04H
	DB	04H
	DB	04H
	DB	04H
	DB	04H
	DB	04H
	DB	04H
	DB	04H
	DB	04H
	DB	04H
	DB	04H
	DB	04H
	DB	04H
	DB	04H
	DB	04H
	DB	04H
	DB	04H
	DB	04H
	DB	04H
	DB	04H
	DB	04H
	DB	04H
	DB	04H
	DB	04H
	DB	04H
	DB	04H
	DB	04H
	DB	04H
	DB	04H
	DB	04H
	DB	04H
	DB	04H
	DB	04H
	DB	04H
	DB	04H
	DB	04H
	DB	04H
	DB	04H
	DB	04H
	DB	04H
	DB	04H
	DB	04H
	DB	04H
	DB	04H
	DB	04H
	DB	04H
	DB	04H
	DB	04H
	DB	04H
	DB	04H
	DB	04H
	DB	04H
	DB	04H
	DB	04H
	DB	04H
	DB	04H
	DB	04H
	DB	04H
	DB	04H
	DB	04H
	DB	04H
	DB	04H
	DB	04H
	DB	04H
	DB	04H
	DB	04H
	DB	04H
	DB	04H
	DB	04H
	DB	04H
	DB	04H
	DB	04H
	DB	04H
	DB	04H
	DB	04H
	DB	04H
	DB	04H
	DB	04H
	DB	04H
	DB	04H
	DB	04H
	DB	04H
	DB	04H
	DB	04H
	DB	04H
	DB	04H
	DB	04H
	DB	04H
	DB	04H
	DB	04H
	DB	04H
	DB	04H
	DB	04H
	DB	04H
	DB	04H
	DB	04H
	DB	04H
	DB	04H
	DB	04H
	DB	04H
	DB	04H
	DB	04H
	DB	04H
	DB	04H
	DB	04H
	DB	04H
	DB	04H
	DB	04H
	DB	04H
	DB	04H
	DB	04H
	DB	04H
	DB	04H
	DB	04H
	DB	05bH
	DB	062H
	DB	023H
	DB	01H
	DB	09bH
	DB	09bH
	DB	09bH
	DB	01H
	DB	03H
	DB	07H
	DB	0e0H
	DB	0afH
	DB	0cdH
	DB	03H
	DB	01H
	DB	09bH
	DB	01H
	DB	01H
	DB	01H
	DB	09bH
	DB	09bH
	DB	09bH
	DB	01H
	DB	01H
	DB	01H
	DB	09bH
	DB	07H
	DB	0caH
	DB	01H
	DB	01H
	DB	01H
	DB	01H
	DB	01H
	DB	01H
	DB	01H
	DB	01H
	DB	01H
	DB	01H
	DB	01H
	DB	01H
	DB	01H
	DB	01H
	DB	01H
	DB	01H
	DB	01H
	DB	01H
	DB	01H
	DB	01H
	DB	01H
	DB	01H
	DB	01H
	DB	01H
	DB	01H
	DB	01H
	DB	01H
	DB	01H
	DB	01H
	DB	01H
	DB	01H
	DB	01H
	DB	01H
	DB	01H
	DB	01H
	DB	01H
	DB	01H
	DB	01H
	DB	01H
	DB	01H
	DB	01H
	DB	01H
	DB	01H
	DB	01H
	DB	01H
	DB	01H
	DB	01H
	DB	01H
	DB	01H
	DB	01H
	DB	01H
	DB	01H
	DB	01H
	DB	01H
	DB	01H
	DB	01H
	DB	01H
	DB	01H
	DB	01H
	DB	01H
	DB	01H
	DB	01H
	DB	01H
	DB	01H
	DB	01H
	DB	01H
	DB	01H
	DB	01H
	DB	01H
	DB	01H
	DB	01H
	DB	01H
	DB	01H
	DB	01H
	DB	01H
	DB	01H
	DB	01H
	DB	05eH
	DB	03eH
	DB	03eH
	DB	03eH
	DB	03eH
	DB	023H
	DB	01H
	DB	01H
	DB	01H
	DB	01H
	DB	01H
	DB	01H
	DB	01H
	DB	01H
	DB	01H
	DB	01H
	DB	01H
	DB	023H
	DB	03eH
	DB	03eH
	DB	03eH
	DB	03eH
	DB	03eH
	DB	03eH
	DB	03eH
	DB	03eH
	DB	03eH
	DB	03eH
	DB	03eH
	DB	01H
	DB	01H
	DB	01H
	DB	01H
	DB	01H
	DB	01H
	DB	01H
	DB	01H
	DB	01H
	DB	01H
	DB	01H
	DB	01H
	DB	01H
	DB	01H
	DB	01H
	DB	01H
	DB	01H
	DB	01H
	DB	01H
	DB	01H
	DB	01H
	DB	01H
	DB	01H
	DB	01H
	DB	01H
	DB	01H
	DB	01H
	DB	01H
	DB	01H
	DB	01H
	DB	01H
	DB	01H
	DB	01H
	DB	01H
	DB	01H
	DB	01H
	DB	01H
	DB	01H
	DB	01H
	DB	01H
	DB	01H
	DB	01H
	DB	01H
	DB	01H
	DB	01H
	DB	01H
	DB	01H
	DB	01H
	DB	01H
	DB	01H
	DB	01H
	DB	01H
	DB	01H
	DB	01H
	DB	01H
	DB	01H
	DB	01H
	DB	01H
	DB	01H
	DB	01H
	DB	01H
	DB	01H
	DB	01H
	DB	01H
	DB	01H
	DB	01H
	DB	01H
	DB	01H
	DB	01H
	DB	01H
	DB	01H
	DB	01H
	DB	01H
	DB	01H
	DB	01H
	DB	01H
	DB	01H
	DB	01H
	DB	01H
	DB	01H
	DB	01H
	DB	01H
	DB	01H
	DB	01H
	DB	01H
	DB	01H
	DB	01H
	DB	01H
	DB	01H
	DB	01H
	DB	01H
	DB	0cdH
	DB	012H
	DB	01H
	DB	09bH
	DB	01H
	DB	01H
	DB	01H
	DB	09bH
	DB	09bH
	DB	09bH
	DB	01H
	DB	01H
	DB	01H
	DB	09bH
	DB	09bH
	DB	09bH
	DB	01H
	DB	04dH
	DB	06cH
	DB	03dH
	DB	04H
	DB	04H
	DB	04H
	DB	04H
	DB	04H
	DB	04H
	DB	04H
	DB	04H
	DB	04H
	DB	04H
	DB	04H
	DB	04H
	DB	04H
	DB	04H
	DB	04H
	DB	04H
	DB	04H
	DB	04H
	DB	04H
	DB	04H
	DB	04H
	DB	04H
	DB	04H
	DB	04H
	DB	04H
	DB	04H
	DB	04H
	DB	04H
	DB	04H
	DB	04H
	DB	04H
	DB	04H
	DB	04H
	DB	04H
	DB	04H
	DB	04H
	DB	04H
	DB	04H
	DB	04H
	DB	04H
	DB	04H
	DB	04H
	DB	04H
	DB	04H
	DB	04H
	DB	04H
	DB	04H
	DB	04H
	DB	04H
	DB	04H
	DB	04H
	DB	04H
	DB	04H
	DB	04H
	DB	04H
	DB	04H
	DB	04H
	DB	04H
	DB	04H
	DB	04H
	DB	04H
	DB	04H
	DB	04H
	DB	04H
	DB	04H
	DB	04H
	DB	04H
	DB	04H
	DB	04H
	DB	04H
	DB	04H
	DB	04H
	DB	04H
	DB	04H
	DB	04H
	DB	04H
	DB	04H
	DB	04H
	DB	04H
	DB	04H
	DB	04H
	DB	04H
	DB	04H
	DB	04H
	DB	04H
	DB	04H
	DB	04H
	DB	04H
	DB	04H
	DB	04H
	DB	04H
	DB	04H
	DB	04H
	DB	04H
	DB	04H
	DB	04H
	DB	04H
	DB	04H
	DB	04H
	DB	04H
	DB	04H
	DB	04H
	DB	04H
	DB	04H
	DB	04H
	DB	04H
	DB	04H
	DB	04H
	DB	04H
	DB	04H
	DB	04H
	DB	04H
	DB	04H
	DB	04H
	DB	04H
	DB	04H
	DB	04H
	DB	04H
	DB	04H
	DB	04H
	DB	04H
	DB	04H
	DB	04H
	DB	04H
	DB	04H
	DB	04H
	DB	04H
	DB	04H
	DB	04H
	DB	04H
	DB	04H
	DB	04H
	DB	04H
	DB	04H
	DB	04H
	DB	04H
	DB	04H
	DB	04H
	DB	04H
	DB	04H
	DB	04H
	DB	04H
	DB	04H
	DB	04H
	DB	04H
	DB	04H
	DB	04H
	DB	04H
	DB	04H
	DB	04H
	DB	04H
	DB	04H
	DB	04H
	DB	04H
	DB	04H
	DB	04H
	DB	04H
	DB	04H
	DB	04H
	DB	04H
	DB	04H
	DB	04H
	DB	04H
	DB	04H
	DB	04H
	DB	04H
	DB	04H
	DB	04H
	DB	04H
	DB	04H
	DB	04H
	DB	04H
	DB	04H
	DB	04H
	DB	04H
	DB	04H
	DB	04H
	DB	04H
	DB	04H
	DB	04H
	DB	04H
	DB	04H
	DB	04H
	DB	04H
	DB	04H
	DB	04H
	DB	04H
	DB	04H
	DB	04H
	DB	04H
	DB	04H
	DB	04H
	DB	04H
	DB	04H
	DB	04H
	DB	04H
	DB	04H
	DB	04H
	DB	04H
	DB	04H
	DB	04H
	DB	04H
	DB	04H
	DB	04H
	DB	04H
	DB	04H
	DB	04H
	DB	04H
	DB	04H
	DB	04H
	DB	04H
	DB	04H
	DB	04H
	DB	04H
	DB	04H
	DB	04H
	DB	04H
	DB	04H
	DB	04H
	DB	04H
	DB	04H
	DB	04H
	DB	04H
	DB	04H
	DB	04H
	DB	05bH
	DB	062H
	DB	023H
	DB	01H
	DB	09bH
	DB	09bH
	DB	01H
	DB	01H
	DB	03H
	DB	07H
	DB	0e0H
	DB	0afH
	DB	0cdH
	DB	03H
	DB	01H
	DB	09bH
	DB	01H
	DB	01H
	DB	01H
	DB	01H
	DB	09bH
	DB	01H
	DB	01H
	DB	01H
	DB	01H
	DB	09bH
	DB	07H
	DB	0caH
	DB	01H
	DB	01H
	DB	01H
	DB	01H
	DB	01H
	DB	01H
	DB	01H
	DB	01H
	DB	01H
	DB	01H
	DB	01H
	DB	01H
	DB	01H
	DB	01H
	DB	01H
	DB	01H
	DB	01H
	DB	01H
	DB	01H
	DB	01H
	DB	01H
	DB	01H
	DB	01H
	DB	01H
	DB	01H
	DB	01H
	DB	01H
	DB	01H
	DB	01H
	DB	01H
	DB	01H
	DB	01H
	DB	01H
	DB	01H
	DB	01H
	DB	01H
	DB	01H
	DB	01H
	DB	01H
	DB	01H
	DB	01H
	DB	01H
	DB	01H
	DB	01H
	DB	01H
	DB	01H
	DB	01H
	DB	01H
	DB	01H
	DB	01H
	DB	01H
	DB	01H
	DB	01H
	DB	01H
	DB	01H
	DB	01H
	DB	01H
	DB	01H
	DB	01H
	DB	01H
	DB	01H
	DB	01H
	DB	01H
	DB	01H
	DB	01H
	DB	01H
	DB	01H
	DB	01H
	DB	01H
	DB	01H
	DB	01H
	DB	01H
	DB	01H
	DB	01H
	DB	01H
	DB	01H
	DB	023H
	DB	015H
	DB	04H
	DB	04H
	DB	04H
	DB	03dH
	DB	02aH
	DB	01H
	DB	01H
	DB	01H
	DB	01H
	DB	01H
	DB	01H
	DB	01H
	DB	01H
	DB	01H
	DB	01H
	DB	01H
	DB	02aH
	DB	03dH
	DB	04H
	DB	04H
	DB	04H
	DB	04H
	DB	04H
	DB	04H
	DB	04H
	DB	04H
	DB	04H
	DB	026H
	DB	023H
	DB	01H
	DB	01H
	DB	01H
	DB	01H
	DB	01H
	DB	01H
	DB	01H
	DB	01H
	DB	01H
	DB	01H
	DB	01H
	DB	01H
	DB	01H
	DB	01H
	DB	01H
	DB	01H
	DB	01H
	DB	01H
	DB	01H
	DB	01H
	DB	01H
	DB	01H
	DB	01H
	DB	01H
	DB	01H
	DB	01H
	DB	01H
	DB	01H
	DB	01H
	DB	01H
	DB	01H
	DB	01H
	DB	01H
	DB	01H
	DB	01H
	DB	01H
	DB	01H
	DB	01H
	DB	01H
	DB	01H
	DB	01H
	DB	01H
	DB	01H
	DB	01H
	DB	01H
	DB	01H
	DB	01H
	DB	01H
	DB	01H
	DB	01H
	DB	01H
	DB	01H
	DB	01H
	DB	01H
	DB	01H
	DB	01H
	DB	01H
	DB	01H
	DB	01H
	DB	01H
	DB	01H
	DB	01H
	DB	01H
	DB	01H
	DB	01H
	DB	01H
	DB	01H
	DB	01H
	DB	01H
	DB	01H
	DB	01H
	DB	01H
	DB	01H
	DB	01H
	DB	01H
	DB	01H
	DB	01H
	DB	01H
	DB	01H
	DB	01H
	DB	01H
	DB	01H
	DB	01H
	DB	01H
	DB	01H
	DB	01H
	DB	01H
	DB	01H
	DB	01H
	DB	01H
	DB	0cdH
	DB	012H
	DB	01H
	DB	09bH
	DB	01H
	DB	01H
	DB	01H
	DB	01H
	DB	09bH
	DB	01H
	DB	01H
	DB	01H
	DB	01H
	DB	09bH
	DB	09bH
	DB	01H
	DB	01H
	DB	05eH
	DB	0edH
	DB	03dH
	DB	04H
	DB	04H
	DB	04H
	DB	04H
	DB	04H
	DB	04H
	DB	04H
	DB	04H
	DB	04H
	DB	04H
	DB	04H
	DB	04H
	DB	04H
	DB	04H
	DB	04H
	DB	04H
	DB	04H
	DB	04H
	DB	04H
	DB	04H
	DB	04H
	DB	04H
	DB	04H
	DB	04H
	DB	04H
	DB	04H
	DB	04H
	DB	04H
	DB	04H
	DB	04H
	DB	04H
	DB	04H
	DB	04H
	DB	04H
	DB	04H
	DB	04H
	DB	04H
	DB	04H
	DB	04H
	DB	04H
	DB	04H
	DB	04H
	DB	04H
	DB	04H
	DB	04H
	DB	04H
	DB	04H
	DB	04H
	DB	04H
	DB	04H
	DB	04H
	DB	04H
	DB	04H
	DB	04H
	DB	04H
	DB	04H
	DB	04H
	DB	04H
	DB	04H
	DB	04H
	DB	04H
	DB	04H
	DB	04H
	DB	04H
	DB	04H
	DB	04H
	DB	04H
	DB	04H
	DB	04H
	DB	04H
	DB	04H
	DB	04H
	DB	04H
	DB	04H
	DB	04H
	DB	04H
	DB	04H
	DB	04H
	DB	04H
	DB	04H
	DB	04H
	DB	04H
	DB	04H
	DB	04H
	DB	04H
	DB	04H
	DB	04H
	DB	04H
	DB	04H
	DB	04H
	DB	04H
	DB	04H
	DB	04H
	DB	04H
	DB	04H
	DB	04H
	DB	04H
	DB	04H
	DB	04H
	DB	04H
	DB	04H
	DB	04H
	DB	04H
	DB	04H
	DB	04H
	DB	04H
	DB	04H
	DB	04H
	DB	04H
	DB	04H
	DB	04H
	DB	04H
	DB	04H
	DB	04H
	DB	04H
	DB	04H
	DB	04H
	DB	04H
	DB	04H
	DB	04H
	DB	04H
	DB	04H
	DB	04H
	DB	04H
	DB	04H
	DB	04H
	DB	04H
	DB	04H
	DB	04H
	DB	04H
	DB	04H
	DB	04H
	DB	04H
	DB	04H
	DB	04H
	DB	04H
	DB	04H
	DB	04H
	DB	04H
	DB	04H
	DB	04H
	DB	04H
	DB	04H
	DB	04H
	DB	04H
	DB	04H
	DB	04H
	DB	04H
	DB	04H
	DB	04H
	DB	04H
	DB	04H
	DB	04H
	DB	04H
	DB	04H
	DB	04H
	DB	04H
	DB	04H
	DB	04H
	DB	04H
	DB	04H
	DB	04H
	DB	04H
	DB	04H
	DB	04H
	DB	04H
	DB	04H
	DB	04H
	DB	04H
	DB	04H
	DB	04H
	DB	04H
	DB	04H
	DB	04H
	DB	04H
	DB	04H
	DB	04H
	DB	04H
	DB	04H
	DB	04H
	DB	04H
	DB	04H
	DB	04H
	DB	04H
	DB	04H
	DB	04H
	DB	04H
	DB	04H
	DB	04H
	DB	04H
	DB	04H
	DB	04H
	DB	04H
	DB	04H
	DB	04H
	DB	04H
	DB	04H
	DB	04H
	DB	04H
	DB	04H
	DB	04H
	DB	04H
	DB	04H
	DB	04H
	DB	04H
	DB	04H
	DB	04H
	DB	04H
	DB	04H
	DB	04H
	DB	04H
	DB	04H
	DB	04H
	DB	04H
	DB	04H
	DB	04H
	DB	04H
	DB	04H
	DB	04H
	DB	04H
	DB	04H
	DB	04H
	DB	04H
	DB	04H
	DB	04H
	DB	01cH
	DB	064H
	DB	023H
	DB	01H
	DB	01H
	DB	09bH
	DB	01H
	DB	01H
	DB	0a7H
	DB	07H
	DB	0e0H
	DB	0afH
	DB	0cdH
	DB	03H
	DB	01H
	DB	01H
	DB	01H
	DB	09bH
	DB	09bH
	DB	01H
	DB	01H
	DB	01H
	DB	01H
	DB	09bH
	DB	01H
	DB	01H
	DB	07H
	DB	0caH
	DB	01H
	DB	01H
	DB	01H
	DB	01H
	DB	01H
	DB	01H
	DB	01H
	DB	01H
	DB	01H
	DB	01H
	DB	01H
	DB	01H
	DB	01H
	DB	01H
	DB	01H
	DB	01H
	DB	01H
	DB	01H
	DB	01H
	DB	01H
	DB	01H
	DB	01H
	DB	01H
	DB	01H
	DB	01H
	DB	01H
	DB	01H
	DB	01H
	DB	01H
	DB	01H
	DB	01H
	DB	01H
	DB	01H
	DB	01H
	DB	01H
	DB	01H
	DB	01H
	DB	01H
	DB	01H
	DB	01H
	DB	01H
	DB	01H
	DB	01H
	DB	01H
	DB	01H
	DB	01H
	DB	01H
	DB	01H
	DB	01H
	DB	01H
	DB	01H
	DB	01H
	DB	01H
	DB	01H
	DB	01H
	DB	01H
	DB	01H
	DB	01H
	DB	01H
	DB	01H
	DB	01H
	DB	01H
	DB	01H
	DB	01H
	DB	01H
	DB	01H
	DB	01H
	DB	01H
	DB	01H
	DB	01H
	DB	01H
	DB	01H
	DB	01H
	DB	01H
	DB	01H
	DB	01H
	DB	057H
	DB	03dH
	DB	04H
	DB	04H
	DB	04H
	DB	03dH
	DB	02aH
	DB	01H
	DB	01H
	DB	01H
	DB	01H
	DB	01H
	DB	01H
	DB	01H
	DB	01H
	DB	01H
	DB	01H
	DB	01H
	DB	02aH
	DB	03dH
	DB	04H
	DB	04H
	DB	03dH
	DB	03dH
	DB	03dH
	DB	03dH
	DB	03dH
	DB	03dH
	DB	03dH
	DB	015H
	DB	023H
	DB	01H
	DB	01H
	DB	01H
	DB	01H
	DB	01H
	DB	01H
	DB	01H
	DB	01H
	DB	01H
	DB	01H
	DB	01H
	DB	01H
	DB	01H
	DB	01H
	DB	01H
	DB	01H
	DB	01H
	DB	01H
	DB	01H
	DB	01H
	DB	01H
	DB	01H
	DB	01H
	DB	01H
	DB	01H
	DB	01H
	DB	01H
	DB	01H
	DB	01H
	DB	01H
	DB	01H
	DB	01H
	DB	01H
	DB	01H
	DB	01H
	DB	01H
	DB	01H
	DB	01H
	DB	01H
	DB	01H
	DB	01H
	DB	01H
	DB	01H
	DB	01H
	DB	01H
	DB	01H
	DB	01H
	DB	01H
	DB	01H
	DB	01H
	DB	01H
	DB	01H
	DB	01H
	DB	01H
	DB	01H
	DB	01H
	DB	01H
	DB	01H
	DB	01H
	DB	01H
	DB	01H
	DB	01H
	DB	01H
	DB	01H
	DB	01H
	DB	01H
	DB	01H
	DB	01H
	DB	01H
	DB	01H
	DB	01H
	DB	01H
	DB	01H
	DB	01H
	DB	01H
	DB	01H
	DB	01H
	DB	01H
	DB	01H
	DB	01H
	DB	01H
	DB	01H
	DB	01H
	DB	01H
	DB	01H
	DB	01H
	DB	01H
	DB	01H
	DB	01H
	DB	01H
	DB	0cdH
	DB	012H
	DB	01H
	DB	01H
	DB	01H
	DB	09bH
	DB	01H
	DB	01H
	DB	01H
	DB	01H
	DB	09bH
	DB	09bH
	DB	01H
	DB	01H
	DB	01H
	DB	01H
	DB	01H
	DB	023H
	DB	057H
	DB	014H
	DB	04H
	DB	04H
	DB	04H
	DB	04H
	DB	04H
	DB	04H
	DB	04H
	DB	04H
	DB	04H
	DB	04H
	DB	04H
	DB	04H
	DB	04H
	DB	04H
	DB	04H
	DB	04H
	DB	04H
	DB	04H
	DB	04H
	DB	04H
	DB	04H
	DB	04H
	DB	04H
	DB	04H
	DB	04H
	DB	04H
	DB	04H
	DB	04H
	DB	04H
	DB	04H
	DB	04H
	DB	04H
	DB	04H
	DB	04H
	DB	04H
	DB	04H
	DB	04H
	DB	04H
	DB	04H
	DB	04H
	DB	04H
	DB	04H
	DB	04H
	DB	04H
	DB	04H
	DB	04H
	DB	04H
	DB	04H
	DB	04H
	DB	04H
	DB	04H
	DB	04H
	DB	04H
	DB	04H
	DB	04H
	DB	04H
	DB	04H
	DB	04H
	DB	04H
	DB	04H
	DB	04H
	DB	04H
	DB	04H
	DB	04H
	DB	04H
	DB	04H
	DB	04H
	DB	04H
	DB	04H
	DB	04H
	DB	04H
	DB	04H
	DB	04H
	DB	04H
	DB	04H
	DB	04H
	DB	04H
	DB	04H
	DB	04H
	DB	04H
	DB	04H
	DB	04H
	DB	04H
	DB	04H
	DB	04H
	DB	04H
	DB	04H
	DB	04H
	DB	04H
	DB	04H
	DB	04H
	DB	04H
	DB	04H
	DB	04H
	DB	04H
	DB	04H
	DB	04H
	DB	04H
	DB	04H
	DB	04H
	DB	04H
	DB	04H
	DB	04H
	DB	04H
	DB	04H
	DB	04H
	DB	04H
	DB	04H
	DB	04H
	DB	04H
	DB	04H
	DB	04H
	DB	04H
	DB	04H
	DB	04H
	DB	04H
	DB	04H
	DB	04H
	DB	04H
	DB	04H
	DB	04H
	DB	04H
	DB	04H
	DB	04H
	DB	04H
	DB	04H
	DB	04H
	DB	04H
	DB	04H
	DB	04H
	DB	04H
	DB	04H
	DB	04H
	DB	04H
	DB	04H
	DB	04H
	DB	04H
	DB	04H
	DB	04H
	DB	04H
	DB	04H
	DB	04H
	DB	04H
	DB	04H
	DB	04H
	DB	04H
	DB	04H
	DB	04H
	DB	04H
	DB	04H
	DB	04H
	DB	04H
	DB	04H
	DB	04H
	DB	04H
	DB	04H
	DB	04H
	DB	04H
	DB	04H
	DB	04H
	DB	04H
	DB	04H
	DB	04H
	DB	04H
	DB	04H
	DB	04H
	DB	04H
	DB	04H
	DB	04H
	DB	04H
	DB	04H
	DB	04H
	DB	04H
	DB	04H
	DB	04H
	DB	04H
	DB	04H
	DB	04H
	DB	04H
	DB	04H
	DB	04H
	DB	04H
	DB	04H
	DB	04H
	DB	04H
	DB	04H
	DB	04H
	DB	04H
	DB	04H
	DB	04H
	DB	04H
	DB	04H
	DB	04H
	DB	04H
	DB	04H
	DB	04H
	DB	04H
	DB	04H
	DB	04H
	DB	04H
	DB	04H
	DB	04H
	DB	04H
	DB	04H
	DB	04H
	DB	04H
	DB	04H
	DB	04H
	DB	04H
	DB	04H
	DB	04H
	DB	04H
	DB	04H
	DB	04H
	DB	04H
	DB	04H
	DB	04H
	DB	04H
	DB	04H
	DB	04H
	DB	04H
	DB	04H
	DB	04H
	DB	04H
	DB	04H
	DB	046H
	DB	023H
	DB	01H
	DB	01H
	DB	01H
	DB	01H
	DB	01H
	DB	01H
	DB	03H
	DB	07H
	DB	0e0H
	DB	0afH
	DB	0cdH
	DB	03H
	DB	01H
	DB	01H
	DB	01H
	DB	09bH
	DB	01H
	DB	01H
	DB	01H
	DB	01H
	DB	09bH
	DB	09bH
	DB	01H
	DB	01H
	DB	07H
	DB	0caH
	DB	01H
	DB	01H
	DB	01H
	DB	01H
	DB	01H
	DB	01H
	DB	01H
	DB	01H
	DB	01H
	DB	01H
	DB	01H
	DB	01H
	DB	01H
	DB	01H
	DB	01H
	DB	01H
	DB	01H
	DB	01H
	DB	01H
	DB	01H
	DB	01H
	DB	01H
	DB	01H
	DB	01H
	DB	01H
	DB	01H
	DB	01H
	DB	01H
	DB	01H
	DB	01H
	DB	01H
	DB	01H
	DB	01H
	DB	01H
	DB	01H
	DB	01H
	DB	01H
	DB	01H
	DB	01H
	DB	01H
	DB	01H
	DB	01H
	DB	01H
	DB	01H
	DB	01H
	DB	01H
	DB	01H
	DB	01H
	DB	01H
	DB	01H
	DB	01H
	DB	01H
	DB	01H
	DB	01H
	DB	01H
	DB	01H
	DB	01H
	DB	01H
	DB	01H
	DB	01H
	DB	01H
	DB	01H
	DB	01H
	DB	01H
	DB	01H
	DB	01H
	DB	01H
	DB	01H
	DB	01H
	DB	01H
	DB	01H
	DB	01H
	DB	01H
	DB	01H
	DB	01H
	DB	03eH
	DB	04H
	DB	04H
	DB	04H
	DB	04H
	DB	04H
	DB	03dH
	DB	02aH
	DB	01H
	DB	01H
	DB	01H
	DB	01H
	DB	01H
	DB	01H
	DB	01H
	DB	01H
	DB	01H
	DB	01H
	DB	01H
	DB	02aH
	DB	03dH
	DB	04H
	DB	03dH
	DB	0a2H
	DB	046H
	DB	046H
	DB	046H
	DB	046H
	DB	046H
	DB	045H
	DB	064H
	DB	01H
	DB	01H
	DB	01H
	DB	01H
	DB	01H
	DB	01H
	DB	01H
	DB	01H
	DB	01H
	DB	01H
	DB	01H
	DB	01H
	DB	01H
	DB	01H
	DB	01H
	DB	01H
	DB	01H
	DB	01H
	DB	01H
	DB	01H
	DB	01H
	DB	01H
	DB	01H
	DB	01H
	DB	01H
	DB	01H
	DB	01H
	DB	01H
	DB	01H
	DB	01H
	DB	01H
	DB	01H
	DB	01H
	DB	01H
	DB	01H
	DB	01H
	DB	01H
	DB	01H
	DB	01H
	DB	01H
	DB	01H
	DB	01H
	DB	01H
	DB	01H
	DB	01H
	DB	01H
	DB	01H
	DB	01H
	DB	01H
	DB	01H
	DB	01H
	DB	01H
	DB	01H
	DB	01H
	DB	01H
	DB	01H
	DB	01H
	DB	01H
	DB	01H
	DB	01H
	DB	01H
	DB	01H
	DB	01H
	DB	01H
	DB	01H
	DB	01H
	DB	01H
	DB	01H
	DB	01H
	DB	01H
	DB	01H
	DB	01H
	DB	01H
	DB	01H
	DB	01H
	DB	01H
	DB	01H
	DB	01H
	DB	01H
	DB	01H
	DB	01H
	DB	01H
	DB	01H
	DB	01H
	DB	01H
	DB	01H
	DB	01H
	DB	01H
	DB	01H
	DB	01H
	DB	01H
	DB	0cdH
	DB	012H
	DB	01H
	DB	01H
	DB	01H
	DB	09bH
	DB	01H
	DB	01H
	DB	01H
	DB	01H
	DB	01H
	DB	09bH
	DB	01H
	DB	01H
	DB	01H
	DB	01H
	DB	09bH
	DB	01H
	DB	05eH
	DB	057H
	DB	05bH
	DB	014H
	DB	014H
	DB	014H
	DB	014H
	DB	014H
	DB	014H
	DB	014H
	DB	014H
	DB	014H
	DB	014H
	DB	014H
	DB	014H
	DB	014H
	DB	014H
	DB	014H
	DB	014H
	DB	014H
	DB	014H
	DB	014H
	DB	014H
	DB	014H
	DB	014H
	DB	014H
	DB	014H
	DB	014H
	DB	014H
	DB	014H
	DB	014H
	DB	014H
	DB	014H
	DB	014H
	DB	014H
	DB	014H
	DB	014H
	DB	014H
	DB	014H
	DB	014H
	DB	014H
	DB	014H
	DB	014H
	DB	014H
	DB	014H
	DB	014H
	DB	014H
	DB	014H
	DB	014H
	DB	014H
	DB	014H
	DB	014H
	DB	014H
	DB	014H
	DB	014H
	DB	014H
	DB	014H
	DB	014H
	DB	014H
	DB	014H
	DB	014H
	DB	014H
	DB	014H
	DB	014H
	DB	014H
	DB	014H
	DB	014H
	DB	014H
	DB	014H
	DB	014H
	DB	014H
	DB	014H
	DB	014H
	DB	014H
	DB	014H
	DB	014H
	DB	014H
	DB	014H
	DB	014H
	DB	014H
	DB	014H
	DB	014H
	DB	014H
	DB	014H
	DB	014H
	DB	014H
	DB	014H
	DB	014H
	DB	014H
	DB	014H
	DB	014H
	DB	014H
	DB	014H
	DB	014H
	DB	014H
	DB	014H
	DB	014H
	DB	014H
	DB	014H
	DB	014H
	DB	014H
	DB	014H
	DB	014H
	DB	014H
	DB	014H
	DB	014H
	DB	014H
	DB	014H
	DB	014H
	DB	014H
	DB	014H
	DB	014H
	DB	014H
	DB	014H
	DB	014H
	DB	014H
	DB	014H
	DB	014H
	DB	014H
	DB	014H
	DB	014H
	DB	014H
	DB	014H
	DB	014H
	DB	014H
	DB	014H
	DB	014H
	DB	014H
	DB	014H
	DB	014H
	DB	014H
	DB	014H
	DB	014H
	DB	014H
	DB	014H
	DB	014H
	DB	014H
	DB	014H
	DB	014H
	DB	014H
	DB	014H
	DB	014H
	DB	014H
	DB	014H
	DB	014H
	DB	014H
	DB	014H
	DB	014H
	DB	014H
	DB	014H
	DB	014H
	DB	014H
	DB	014H
	DB	014H
	DB	014H
	DB	014H
	DB	014H
	DB	014H
	DB	014H
	DB	014H
	DB	014H
	DB	014H
	DB	014H
	DB	014H
	DB	014H
	DB	014H
	DB	014H
	DB	014H
	DB	014H
	DB	014H
	DB	014H
	DB	014H
	DB	014H
	DB	014H
	DB	014H
	DB	014H
	DB	014H
	DB	014H
	DB	014H
	DB	014H
	DB	014H
	DB	014H
	DB	014H
	DB	014H
	DB	014H
	DB	014H
	DB	014H
	DB	014H
	DB	014H
	DB	014H
	DB	014H
	DB	014H
	DB	014H
	DB	014H
	DB	014H
	DB	014H
	DB	014H
	DB	014H
	DB	014H
	DB	014H
	DB	014H
	DB	014H
	DB	014H
	DB	014H
	DB	014H
	DB	014H
	DB	014H
	DB	014H
	DB	014H
	DB	014H
	DB	014H
	DB	014H
	DB	014H
	DB	014H
	DB	014H
	DB	014H
	DB	014H
	DB	014H
	DB	014H
	DB	014H
	DB	014H
	DB	014H
	DB	014H
	DB	014H
	DB	04H
	DB	014H
	DB	062H
	DB	05eH
	DB	01H
	DB	01H
	DB	01H
	DB	01H
	DB	01H
	DB	01H
	DB	01H
	DB	03H
	DB	07H
	DB	0e0H
	DB	0afH
	DB	0cdH
	DB	0a7H
	DB	01H
	DB	01H
	DB	01H
	DB	01H
	DB	01H
	DB	01H
	DB	01H
	DB	01H
	DB	01H
	DB	01H
	DB	01H
	DB	01H
	DB	0cdH
	DB	0caH
	DB	01H
	DB	01H
	DB	01H
	DB	01H
	DB	01H
	DB	01H
	DB	01H
	DB	01H
	DB	01H
	DB	01H
	DB	01H
	DB	01H
	DB	01H
	DB	01H
	DB	01H
	DB	01H
	DB	01H
	DB	01H
	DB	01H
	DB	01H
	DB	01H
	DB	01H
	DB	01H
	DB	01H
	DB	01H
	DB	01H
	DB	01H
	DB	01H
	DB	01H
	DB	01H
	DB	01H
	DB	01H
	DB	01H
	DB	01H
	DB	01H
	DB	01H
	DB	01H
	DB	01H
	DB	01H
	DB	01H
	DB	01H
	DB	01H
	DB	01H
	DB	01H
	DB	01H
	DB	01H
	DB	01H
	DB	01H
	DB	01H
	DB	01H
	DB	01H
	DB	01H
	DB	01H
	DB	01H
	DB	01H
	DB	01H
	DB	01H
	DB	01H
	DB	01H
	DB	01H
	DB	01H
	DB	01H
	DB	01H
	DB	01H
	DB	01H
	DB	01H
	DB	01H
	DB	01H
	DB	01H
	DB	01H
	DB	01H
	DB	01H
	DB	01H
	DB	01H
	DB	01H
	DB	01cH
	DB	03dH
	DB	04H
	DB	015H
	DB	04H
	DB	04H
	DB	03dH
	DB	02aH
	DB	01H
	DB	01H
	DB	01H
	DB	01H
	DB	01H
	DB	01H
	DB	01H
	DB	01H
	DB	01H
	DB	01H
	DB	01H
	DB	02aH
	DB	03dH
	DB	04H
	DB	03dH
	DB	046H
	DB	01H
	DB	01H
	DB	01H
	DB	01H
	DB	01H
	DB	01H
	DB	01H
	DB	01H
	DB	01H
	DB	01H
	DB	01H
	DB	01H
	DB	01H
	DB	01H
	DB	01H
	DB	01H
	DB	01H
	DB	01H
	DB	01H
	DB	01H
	DB	01H
	DB	01H
	DB	01H
	DB	01H
	DB	01H
	DB	01H
	DB	01H
	DB	01H
	DB	01H
	DB	01H
	DB	01H
	DB	01H
	DB	01H
	DB	01H
	DB	01H
	DB	01H
	DB	01H
	DB	01H
	DB	01H
	DB	01H
	DB	01H
	DB	01H
	DB	01H
	DB	01H
	DB	01H
	DB	01H
	DB	01H
	DB	01H
	DB	01H
	DB	01H
	DB	01H
	DB	01H
	DB	01H
	DB	01H
	DB	01H
	DB	01H
	DB	01H
	DB	01H
	DB	01H
	DB	01H
	DB	01H
	DB	01H
	DB	01H
	DB	01H
	DB	01H
	DB	01H
	DB	01H
	DB	01H
	DB	01H
	DB	01H
	DB	01H
	DB	01H
	DB	01H
	DB	01H
	DB	01H
	DB	01H
	DB	01H
	DB	01H
	DB	01H
	DB	01H
	DB	01H
	DB	01H
	DB	01H
	DB	01H
	DB	01H
	DB	01H
	DB	01H
	DB	01H
	DB	01H
	DB	01H
	DB	01H
	DB	01H
	DB	01H
	DB	01H
	DB	01H
	DB	01H
	DB	01H
	DB	01H
	DB	0cdH
	DB	012H
	DB	01H
	DB	01H
	DB	01H
	DB	01H
	DB	01H
	DB	01H
	DB	01H
	DB	01H
	DB	01H
	DB	01H
	DB	01H
	DB	01H
	DB	01H
	DB	01H
	DB	01H
	DB	01H
	DB	01H
	DB	05eH
	DB	064H
	DB	062H
	DB	029H
	DB	029H
	DB	029H
	DB	029H
	DB	029H
	DB	029H
	DB	029H
	DB	029H
	DB	029H
	DB	029H
	DB	029H
	DB	029H
	DB	029H
	DB	029H
	DB	029H
	DB	029H
	DB	029H
	DB	029H
	DB	029H
	DB	029H
	DB	029H
	DB	029H
	DB	029H
	DB	029H
	DB	029H
	DB	029H
	DB	029H
	DB	029H
	DB	029H
	DB	029H
	DB	029H
	DB	029H
	DB	029H
	DB	029H
	DB	029H
	DB	029H
	DB	029H
	DB	029H
	DB	029H
	DB	029H
	DB	029H
	DB	029H
	DB	029H
	DB	029H
	DB	029H
	DB	029H
	DB	029H
	DB	029H
	DB	029H
	DB	029H
	DB	029H
	DB	029H
	DB	029H
	DB	029H
	DB	029H
	DB	029H
	DB	029H
	DB	029H
	DB	029H
	DB	029H
	DB	029H
	DB	029H
	DB	029H
	DB	029H
	DB	029H
	DB	029H
	DB	029H
	DB	029H
	DB	029H
	DB	029H
	DB	029H
	DB	029H
	DB	029H
	DB	029H
	DB	029H
	DB	029H
	DB	029H
	DB	029H
	DB	029H
	DB	029H
	DB	029H
	DB	029H
	DB	029H
	DB	029H
	DB	029H
	DB	029H
	DB	029H
	DB	029H
	DB	029H
	DB	029H
	DB	029H
	DB	029H
	DB	029H
	DB	029H
	DB	029H
	DB	029H
	DB	029H
	DB	029H
	DB	029H
	DB	029H
	DB	029H
	DB	029H
	DB	029H
	DB	029H
	DB	029H
	DB	029H
	DB	029H
	DB	029H
	DB	029H
	DB	029H
	DB	029H
	DB	029H
	DB	029H
	DB	029H
	DB	029H
	DB	029H
	DB	029H
	DB	029H
	DB	029H
	DB	029H
	DB	029H
	DB	029H
	DB	029H
	DB	029H
	DB	029H
	DB	029H
	DB	029H
	DB	029H
	DB	029H
	DB	029H
	DB	029H
	DB	029H
	DB	029H
	DB	029H
	DB	029H
	DB	029H
	DB	029H
	DB	029H
	DB	029H
	DB	029H
	DB	029H
	DB	029H
	DB	029H
	DB	029H
	DB	029H
	DB	029H
	DB	029H
	DB	029H
	DB	029H
	DB	029H
	DB	029H
	DB	029H
	DB	029H
	DB	029H
	DB	029H
	DB	029H
	DB	029H
	DB	029H
	DB	029H
	DB	029H
	DB	029H
	DB	029H
	DB	029H
	DB	029H
	DB	029H
	DB	029H
	DB	029H
	DB	029H
	DB	029H
	DB	029H
	DB	029H
	DB	029H
	DB	029H
	DB	029H
	DB	029H
	DB	029H
	DB	029H
	DB	029H
	DB	029H
	DB	029H
	DB	029H
	DB	029H
	DB	029H
	DB	029H
	DB	029H
	DB	029H
	DB	029H
	DB	029H
	DB	029H
	DB	029H
	DB	029H
	DB	029H
	DB	029H
	DB	029H
	DB	029H
	DB	029H
	DB	029H
	DB	029H
	DB	029H
	DB	029H
	DB	029H
	DB	029H
	DB	029H
	DB	029H
	DB	029H
	DB	029H
	DB	029H
	DB	029H
	DB	029H
	DB	029H
	DB	029H
	DB	029H
	DB	029H
	DB	029H
	DB	029H
	DB	029H
	DB	029H
	DB	029H
	DB	029H
	DB	029H
	DB	062H
	DB	064H
	DB	023H
	DB	01H
	DB	01H
	DB	01H
	DB	01H
	DB	01H
	DB	01H
	DB	01H
	DB	01H
	DB	03H
	DB	07H
	DB	0e0H
	DB	0afH
	DB	0cdH
	DB	03H
	DB	01H
	DB	01H
	DB	01H
	DB	01H
	DB	01H
	DB	01H
	DB	01H
	DB	01H
	DB	01H
	DB	01H
	DB	01H
	DB	01H
	DB	07H
	DB	0caH
	DB	01H
	DB	01H
	DB	01H
	DB	01H
	DB	01H
	DB	01H
	DB	01H
	DB	01H
	DB	01H
	DB	01H
	DB	01H
	DB	01H
	DB	01H
	DB	01H
	DB	01H
	DB	01H
	DB	01H
	DB	01H
	DB	01H
	DB	01H
	DB	01H
	DB	01H
	DB	01H
	DB	01H
	DB	01H
	DB	01H
	DB	01H
	DB	01H
	DB	01H
	DB	01H
	DB	01H
	DB	01H
	DB	01H
	DB	01H
	DB	01H
	DB	01H
	DB	01H
	DB	01H
	DB	01H
	DB	01H
	DB	01H
	DB	01H
	DB	01H
	DB	01H
	DB	01H
	DB	01H
	DB	01H
	DB	01H
	DB	01H
	DB	01H
	DB	01H
	DB	01H
	DB	01H
	DB	01H
	DB	01H
	DB	01H
	DB	01H
	DB	01H
	DB	01H
	DB	01H
	DB	01H
	DB	01H
	DB	01H
	DB	01H
	DB	01H
	DB	01H
	DB	01H
	DB	01H
	DB	01H
	DB	01H
	DB	01H
	DB	01H
	DB	01H
	DB	01H
	DB	064H
	DB	03dH
	DB	03dH
	DB	029H
	DB	045H
	DB	03dH
	DB	04H
	DB	03dH
	DB	02aH
	DB	01H
	DB	01H
	DB	01H
	DB	01H
	DB	01H
	DB	01H
	DB	01H
	DB	01H
	DB	01H
	DB	01H
	DB	01H
	DB	02aH
	DB	03dH
	DB	04H
	DB	03dH
	DB	064H
	DB	01H
	DB	01H
	DB	01H
	DB	01H
	DB	01H
	DB	01H
	DB	01H
	DB	01H
	DB	06eH
	DB	029H
	DB	029H
	DB	029H
	DB	045H
	DB	01H
	DB	01H
	DB	01H
	DB	01H
	DB	01H
	DB	01H
	DB	023H
	DB	057H
	DB	029H
	DB	057H
	DB	023H
	DB	01H
	DB	01H
	DB	01H
	DB	01H
	DB	01H
	DB	01H
	DB	01H
	DB	01H
	DB	01H
	DB	01H
	DB	01H
	DB	01H
	DB	01H
	DB	01H
	DB	01H
	DB	01H
	DB	01H
	DB	01H
	DB	01H
	DB	01H
	DB	01H
	DB	01H
	DB	01H
	DB	01H
	DB	01H
	DB	01H
	DB	01H
	DB	01H
	DB	01H
	DB	01H
	DB	01H
	DB	01H
	DB	01H
	DB	01H
	DB	01H
	DB	01H
	DB	01H
	DB	01H
	DB	01H
	DB	01H
	DB	01H
	DB	01H
	DB	01H
	DB	01H
	DB	01H
	DB	01H
	DB	01H
	DB	01H
	DB	01H
	DB	01H
	DB	01H
	DB	01H
	DB	01H
	DB	01H
	DB	01H
	DB	01H
	DB	01H
	DB	01H
	DB	01H
	DB	01H
	DB	01H
	DB	01H
	DB	01H
	DB	01H
	DB	01H
	DB	01H
	DB	01H
	DB	01H
	DB	01H
	DB	01H
	DB	01H
	DB	01H
	DB	01H
	DB	01H
	DB	0cdH
	DB	012H
	DB	01H
	DB	01H
	DB	01H
	DB	01H
	DB	01H
	DB	01H
	DB	01H
	DB	01H
	DB	01H
	DB	01H
	DB	01H
	DB	01H
	DB	01H
	DB	01H
	DB	01H
	DB	01H
	DB	01H
	DB	01H
	DB	01H
	DB	03eH
	DB	02aH
	DB	02aH
	DB	02aH
	DB	02aH
	DB	02aH
	DB	02aH
	DB	02aH
	DB	02aH
	DB	02aH
	DB	02aH
	DB	02aH
	DB	02aH
	DB	02aH
	DB	02aH
	DB	02aH
	DB	02aH
	DB	02aH
	DB	02aH
	DB	02aH
	DB	02aH
	DB	02aH
	DB	02aH
	DB	02aH
	DB	02aH
	DB	02aH
	DB	02aH
	DB	02aH
	DB	02aH
	DB	02aH
	DB	02aH
	DB	02aH
	DB	02aH
	DB	02aH
	DB	02aH
	DB	02aH
	DB	02aH
	DB	02aH
	DB	02aH
	DB	02aH
	DB	02aH
	DB	02aH
	DB	02aH
	DB	02aH
	DB	02aH
	DB	02aH
	DB	02aH
	DB	02aH
	DB	02aH
	DB	02aH
	DB	02aH
	DB	02aH
	DB	02aH
	DB	02aH
	DB	02aH
	DB	02aH
	DB	02aH
	DB	02aH
	DB	02aH
	DB	02aH
	DB	02aH
	DB	02aH
	DB	02aH
	DB	02aH
	DB	02aH
	DB	02aH
	DB	02aH
	DB	02aH
	DB	02aH
	DB	02aH
	DB	02aH
	DB	02aH
	DB	02aH
	DB	02aH
	DB	02aH
	DB	02aH
	DB	02aH
	DB	02aH
	DB	02aH
	DB	02aH
	DB	02aH
	DB	02aH
	DB	02aH
	DB	02aH
	DB	02aH
	DB	02aH
	DB	02aH
	DB	02aH
	DB	02aH
	DB	02aH
	DB	02aH
	DB	02aH
	DB	02aH
	DB	02aH
	DB	02aH
	DB	02aH
	DB	02aH
	DB	02aH
	DB	02aH
	DB	02aH
	DB	02aH
	DB	02aH
	DB	02aH
	DB	02aH
	DB	02aH
	DB	02aH
	DB	02aH
	DB	02aH
	DB	02aH
	DB	02aH
	DB	02aH
	DB	02aH
	DB	02aH
	DB	02aH
	DB	02aH
	DB	02aH
	DB	02aH
	DB	02aH
	DB	02aH
	DB	02aH
	DB	02aH
	DB	02aH
	DB	02aH
	DB	02aH
	DB	02aH
	DB	02aH
	DB	02aH
	DB	02aH
	DB	02aH
	DB	02aH
	DB	02aH
	DB	02aH
	DB	02aH
	DB	02aH
	DB	02aH
	DB	02aH
	DB	02aH
	DB	02aH
	DB	02aH
	DB	02aH
	DB	02aH
	DB	02aH
	DB	02aH
	DB	02aH
	DB	02aH
	DB	02aH
	DB	02aH
	DB	02aH
	DB	02aH
	DB	02aH
	DB	02aH
	DB	02aH
	DB	02aH
	DB	02aH
	DB	02aH
	DB	02aH
	DB	02aH
	DB	02aH
	DB	02aH
	DB	02aH
	DB	02aH
	DB	02aH
	DB	02aH
	DB	02aH
	DB	02aH
	DB	02aH
	DB	02aH
	DB	02aH
	DB	02aH
	DB	02aH
	DB	02aH
	DB	02aH
	DB	02aH
	DB	02aH
	DB	02aH
	DB	02aH
	DB	02aH
	DB	02aH
	DB	02aH
	DB	02aH
	DB	02aH
	DB	02aH
	DB	02aH
	DB	02aH
	DB	02aH
	DB	02aH
	DB	02aH
	DB	02aH
	DB	02aH
	DB	02aH
	DB	02aH
	DB	02aH
	DB	02aH
	DB	02aH
	DB	02aH
	DB	02aH
	DB	02aH
	DB	02aH
	DB	02aH
	DB	02aH
	DB	02aH
	DB	02aH
	DB	02aH
	DB	02aH
	DB	02aH
	DB	02aH
	DB	02aH
	DB	02aH
	DB	02aH
	DB	02aH
	DB	02aH
	DB	02aH
	DB	02aH
	DB	02aH
	DB	02aH
	DB	02aH
	DB	02aH
	DB	02aH
	DB	02aH
	DB	02aH
	DB	06eH
	DB	05eH
	DB	023H
	DB	01H
	DB	01H
	DB	01H
	DB	01H
	DB	01H
	DB	01H
	DB	01H
	DB	01H
	DB	01H
	DB	0a7H
	DB	07H
	DB	0e0H
	DB	0afH
	DB	0cdH
	DB	03H
	DB	01H
	DB	01H
	DB	01H
	DB	01H
	DB	01H
	DB	01H
	DB	01H
	DB	01H
	DB	01H
	DB	01H
	DB	01H
	DB	01H
	DB	07H
	DB	0caH
	DB	01H
	DB	01H
