; Listing generated by Microsoft (R) Optimizing Compiler Version 16.00.40219.01 

	TITLE	C:\DUII\Simulation\GUI\Widget\EDITFloat.c
	.686P
	.XMM
	include listing.inc
	.model	flat

INCLUDELIB LIBCMT
INCLUDELIB OLDNAMES

PUBLIC	__real@3fe0000000000000
PUBLIC	_EDIT_SetFloatMode
EXTRN	_EDIT_SetDecMode:PROC
EXTRN	_floor:PROC
EXTRN	_GUI_Pow10:BYTE
EXTRN	__fltused:DWORD
EXTRN	__RTC_CheckEsp:PROC
EXTRN	__ftol2_sse:PROC
EXTRN	__RTC_Shutdown:PROC
EXTRN	__RTC_InitBase:PROC
;	COMDAT __real@3fe0000000000000
; File c:\duii\simulation\gui\widget\editfloat.c
CONST	SEGMENT
__real@3fe0000000000000 DQ 03fe0000000000000r	; 0.5
CONST	ENDS
;	COMDAT rtc$TMZ
rtc$TMZ	SEGMENT
__RTC_Shutdown.rtc$TMZ DD FLAT:__RTC_Shutdown
rtc$TMZ	ENDS
;	COMDAT rtc$IMZ
rtc$IMZ	SEGMENT
__RTC_InitBase.rtc$IMZ DD FLAT:__RTC_InitBase
; Function compile flags: /Odtp /RTCsu /ZI
rtc$IMZ	ENDS
;	COMDAT _EDIT_SetFloatMode
_TEXT	SEGMENT
tv94 = -248						; size = 8
_Scale$ = -44						; size = 4
__Max$ = -32						; size = 4
__Min$ = -20						; size = 4
__Value$ = -8						; size = 4
_hEdit$ = 8						; size = 4
_Value$ = 12						; size = 4
_Min$ = 16						; size = 4
_Max$ = 20						; size = 4
_Shift$ = 24						; size = 4
_Flags$ = 28						; size = 1
_EDIT_SetFloatMode PROC					; COMDAT
; Line 40
	push	ebp
	mov	ebp, esp
	sub	esp, 248				; 000000f8H
	push	ebx
	push	esi
	push	edi
	lea	edi, DWORD PTR [ebp-248]
	mov	ecx, 62					; 0000003eH
	mov	eax, -858993460				; ccccccccH
	rep stosd
; Line 43
	cmp	DWORD PTR _hEdit$[ebp], 0
	je	$LN1@EDIT_SetFl
; Line 45
	mov	eax, DWORD PTR _Shift$[ebp]
	mov	ecx, DWORD PTR _GUI_Pow10[eax*4]
	mov	DWORD PTR tv94[ebp], ecx
	mov	DWORD PTR tv94[ebp+4], 0
	fild	QWORD PTR tv94[ebp]
	fstp	DWORD PTR _Scale$[ebp]
; Line 46
	fld	DWORD PTR _Scale$[ebp]
	fmul	DWORD PTR _Value$[ebp]
	fadd	QWORD PTR __real@3fe0000000000000
	sub	esp, 8
	fstp	QWORD PTR [esp]
	call	_floor
	add	esp, 8
	call	__ftol2_sse
	mov	DWORD PTR __Value$[ebp], eax
; Line 47
	fld	DWORD PTR _Scale$[ebp]
	fmul	DWORD PTR _Min$[ebp]
	fadd	QWORD PTR __real@3fe0000000000000
	sub	esp, 8
	fstp	QWORD PTR [esp]
	call	_floor
	add	esp, 8
	call	__ftol2_sse
	mov	DWORD PTR __Min$[ebp], eax
; Line 48
	fld	DWORD PTR _Scale$[ebp]
	fmul	DWORD PTR _Max$[ebp]
	fadd	QWORD PTR __real@3fe0000000000000
	sub	esp, 8
	fstp	QWORD PTR [esp]
	call	_floor
	add	esp, 8
	call	__ftol2_sse
	mov	DWORD PTR __Max$[ebp], eax
; Line 49
	movzx	eax, BYTE PTR _Flags$[ebp]
	push	eax
	mov	ecx, DWORD PTR _Shift$[ebp]
	push	ecx
	mov	edx, DWORD PTR __Max$[ebp]
	push	edx
	mov	eax, DWORD PTR __Min$[ebp]
	push	eax
	mov	ecx, DWORD PTR __Value$[ebp]
	push	ecx
	mov	edx, DWORD PTR _hEdit$[ebp]
	push	edx
	call	_EDIT_SetDecMode
	add	esp, 24					; 00000018H
$LN1@EDIT_SetFl:
; Line 52
	pop	edi
	pop	esi
	pop	ebx
	add	esp, 248				; 000000f8H
	cmp	ebp, esp
	call	__RTC_CheckEsp
	mov	esp, ebp
	pop	ebp
	ret	0
_EDIT_SetFloatMode ENDP
_TEXT	ENDS
PUBLIC	__real@00000000
PUBLIC	_EDIT_GetFloatValue
EXTRN	_GUI_ALLOC_UnlockH:PROC
EXTRN	_EDIT_LockH:PROC
;	COMDAT __real@00000000
CONST	SEGMENT
__real@00000000 DD 000000000r			; 0
; Function compile flags: /Odtp /RTCsu /ZI
CONST	ENDS
;	COMDAT _EDIT_GetFloatValue
_TEXT	SEGMENT
tv80 = -236						; size = 8
_pObj$10844 = -32					; size = 4
_Scale$10843 = -20					; size = 4
_Value$ = -8						; size = 4
_hObj$ = 8						; size = 4
_EDIT_GetFloatValue PROC				; COMDAT
; Line 58
	push	ebp
	mov	ebp, esp
	sub	esp, 236				; 000000ecH
	push	ebx
	push	esi
	push	edi
	lea	edi, DWORD PTR [ebp-236]
	mov	ecx, 59					; 0000003bH
	mov	eax, -858993460				; ccccccccH
	rep stosd
; Line 59
	fldz
	fstp	DWORD PTR _Value$[ebp]
; Line 60
	cmp	DWORD PTR _hObj$[ebp], 0
	je	SHORT $LN1@EDIT_GetFl
; Line 64
	mov	eax, DWORD PTR _hObj$[ebp]
	push	eax
	call	_EDIT_LockH
	add	esp, 4
	mov	DWORD PTR _pObj$10844[ebp], eax
; Line 65
	mov	eax, DWORD PTR _pObj$10844[ebp]
	movzx	ecx, BYTE PTR [eax+72]
	mov	edx, DWORD PTR _GUI_Pow10[ecx*4]
	mov	DWORD PTR tv80[ebp], edx
	mov	DWORD PTR tv80[ebp+4], 0
	fild	QWORD PTR tv80[ebp]
	fstp	DWORD PTR _Scale$10843[ebp]
; Line 66
	mov	eax, DWORD PTR _pObj$10844[ebp]
	fild	DWORD PTR [eax+76]
	fdiv	DWORD PTR _Scale$10843[ebp]
	fstp	DWORD PTR _Value$[ebp]
; Line 67
	call	_GUI_ALLOC_UnlockH
	mov	DWORD PTR _pObj$10844[ebp], 0
$LN1@EDIT_GetFl:
; Line 70
	fld	DWORD PTR _Value$[ebp]
; Line 71
	pop	edi
	pop	esi
	pop	ebx
	add	esp, 236				; 000000ecH
	cmp	ebp, esp
	call	__RTC_CheckEsp
	mov	esp, ebp
	pop	ebp
	ret	0
_EDIT_GetFloatValue ENDP
_TEXT	ENDS
PUBLIC	__real@bfe0000000000000
PUBLIC	_EDIT_SetFloatValue
EXTRN	_EDIT_SetValue:PROC
;	COMDAT __real@bfe0000000000000
CONST	SEGMENT
__real@bfe0000000000000 DQ 0bfe0000000000000r	; -0.5
; Function compile flags: /Odtp /RTCsu /ZI
CONST	ENDS
;	COMDAT _EDIT_SetFloatValue
_TEXT	SEGMENT
tv85 = -224						; size = 8
tv75 = -224						; size = 8
_pObj$10856 = -20					; size = 4
_Scale$10855 = -8					; size = 4
_hObj$ = 8						; size = 4
_Value$ = 12						; size = 4
_EDIT_SetFloatValue PROC				; COMDAT
; Line 77
	push	ebp
	mov	ebp, esp
	sub	esp, 224				; 000000e0H
	push	ebx
	push	esi
	push	edi
	lea	edi, DWORD PTR [ebp-224]
	mov	ecx, 56					; 00000038H
	mov	eax, -858993460				; ccccccccH
	rep stosd
; Line 78
	cmp	DWORD PTR _hObj$[ebp], 0
	je	$LN1@EDIT_SetFl@2
; Line 82
	mov	eax, DWORD PTR _hObj$[ebp]
	push	eax
	call	_EDIT_LockH
	add	esp, 4
	mov	DWORD PTR _pObj$10856[ebp], eax
; Line 83
	mov	eax, DWORD PTR _pObj$10856[ebp]
	movzx	ecx, BYTE PTR [eax+72]
	mov	edx, DWORD PTR _GUI_Pow10[ecx*4]
	mov	DWORD PTR tv85[ebp], edx
	mov	DWORD PTR tv85[ebp+4], 0
	fild	QWORD PTR tv85[ebp]
	fstp	DWORD PTR _Scale$10855[ebp]
; Line 84
	fld	DWORD PTR _Value$[ebp]
	fmul	DWORD PTR _Scale$10855[ebp]
	fstp	DWORD PTR _Value$[ebp]
; Line 85
	call	_GUI_ALLOC_UnlockH
	mov	DWORD PTR _pObj$10856[ebp], 0
; Line 86
	fldz
	fcomp	DWORD PTR _Value$[ebp]
	fnstsw	ax
	test	ah, 65					; 00000041H
	jp	SHORT $LN4@EDIT_SetFl@2
	fld	QWORD PTR __real@3fe0000000000000
	fstp	QWORD PTR tv75[ebp]
	jmp	SHORT $LN5@EDIT_SetFl@2
$LN4@EDIT_SetFl@2:
	fld	QWORD PTR __real@bfe0000000000000
	fstp	QWORD PTR tv75[ebp]
$LN5@EDIT_SetFl@2:
	fld	DWORD PTR _Value$[ebp]
	fadd	QWORD PTR tv75[ebp]
	call	__ftol2_sse
	push	eax
	mov	eax, DWORD PTR _hObj$[ebp]
	push	eax
	call	_EDIT_SetValue
	add	esp, 8
$LN1@EDIT_SetFl@2:
; Line 89
	pop	edi
	pop	esi
	pop	ebx
	add	esp, 224				; 000000e0H
	cmp	ebp, esp
	call	__RTC_CheckEsp
	mov	esp, ebp
	pop	ebp
	ret	0
_EDIT_SetFloatValue ENDP
_TEXT	ENDS
END
