; Listing generated by Microsoft (R) Optimizing Compiler Version 16.00.40219.01 

	TITLE	C:\DUII\Simulation\GUI\Widget\EDITBin.c
	.686P
	.XMM
	include listing.inc
	.model	flat

INCLUDELIB LIBCMT
INCLUDELIB OLDNAMES

PUBLIC	_EDIT_SetBinMode
EXTRN	_WM_InvalidateWindow:PROC
EXTRN	_EDIT_SetMaxLen:PROC
EXTRN	_GUI_ALLOC_UnlockH:PROC
EXTRN	_EDIT_LockH:PROC
EXTRN	__RTC_CheckEsp:PROC
EXTRN	__RTC_Shutdown:PROC
EXTRN	__RTC_InitBase:PROC
;	COMDAT rtc$TMZ
; File c:\duii\simulation\gui\widget\editbin.c
rtc$TMZ	SEGMENT
__RTC_Shutdown.rtc$TMZ DD FLAT:__RTC_Shutdown
rtc$TMZ	ENDS
;	COMDAT rtc$IMZ
rtc$IMZ	SEGMENT
__RTC_InitBase.rtc$IMZ DD FLAT:__RTC_InitBase
; Function compile flags: /Odtp /RTCsu /ZI
rtc$IMZ	ENDS
;	COMDAT _EDIT_SetBinMode
_TEXT	SEGMENT
_MaxLenOld$ = -32					; size = 4
_MaxLen$ = -20						; size = 4
_pObj$ = -8						; size = 4
_hEdit$ = 8						; size = 4
_Value$ = 12						; size = 4
_Min$ = 16						; size = 4
_Max$ = 20						; size = 4
_EDIT_SetBinMode PROC					; COMDAT
; Line 158
	push	ebp
	mov	ebp, esp
	sub	esp, 228				; 000000e4H
	push	ebx
	push	esi
	push	edi
	lea	edi, DWORD PTR [ebp-228]
	mov	ecx, 57					; 00000039H
	mov	eax, -858993460				; ccccccccH
	rep stosd
; Line 162
	cmp	DWORD PTR _hEdit$[ebp], 0
	je	$LN5@EDIT_SetBi
; Line 163
	mov	eax, DWORD PTR _hEdit$[ebp]
	push	eax
	call	_EDIT_LockH
	add	esp, 4
	mov	DWORD PTR _pObj$[ebp], eax
; Line 164
	mov	eax, DWORD PTR _pObj$[ebp]
	mov	DWORD PTR [eax+92], OFFSET __AddKeyBin
; Line 165
	mov	eax, DWORD PTR _pObj$[ebp]
	mov	DWORD PTR [eax+96], OFFSET __UpdateBuffer
; Line 166
	mov	eax, DWORD PTR _pObj$[ebp]
	mov	ecx, DWORD PTR _Value$[ebp]
	mov	DWORD PTR [eax+76], ecx
; Line 167
	mov	eax, DWORD PTR _pObj$[ebp]
	mov	DWORD PTR [eax+80], 0
; Line 168
	mov	eax, DWORD PTR _pObj$[ebp]
	movsx	ecx, WORD PTR [eax+60]
	mov	DWORD PTR _MaxLen$[ebp], ecx
; Line 169
	cmp	DWORD PTR _MaxLen$[ebp], 0
	jg	SHORT $LN3@EDIT_SetBi
; Line 170
	mov	eax, DWORD PTR _Max$[ebp]
	push	eax
	call	__GetNumDigits
	add	esp, 4
	mov	DWORD PTR _MaxLen$[ebp], eax
$LN3@EDIT_SetBi:
; Line 172
	cmp	DWORD PTR _MaxLen$[ebp], 32		; 00000020H
	jle	SHORT $LN2@EDIT_SetBi
; Line 173
	mov	DWORD PTR _MaxLen$[ebp], 32		; 00000020H
$LN2@EDIT_SetBi:
; Line 175
	mov	eax, DWORD PTR _pObj$[ebp]
	mov	ecx, DWORD PTR _Min$[ebp]
	mov	DWORD PTR [eax+64], ecx
; Line 176
	mov	eax, DWORD PTR _pObj$[ebp]
	mov	ecx, DWORD PTR _Max$[ebp]
	mov	DWORD PTR [eax+68], ecx
; Line 177
	mov	eax, DWORD PTR _pObj$[ebp]
	mov	BYTE PTR [eax+88], 1
; Line 178
	mov	eax, DWORD PTR _pObj$[ebp]
	movsx	ecx, WORD PTR [eax+60]
	mov	DWORD PTR _MaxLenOld$[ebp], ecx
; Line 179
	call	_GUI_ALLOC_UnlockH
	mov	DWORD PTR _pObj$[ebp], 0
; Line 180
	mov	eax, DWORD PTR _MaxLen$[ebp]
	cmp	eax, DWORD PTR _MaxLenOld$[ebp]
	je	SHORT $LN1@EDIT_SetBi
; Line 181
	mov	eax, DWORD PTR _MaxLen$[ebp]
	push	eax
	mov	ecx, DWORD PTR _hEdit$[ebp]
	push	ecx
	call	_EDIT_SetMaxLen
	add	esp, 8
$LN1@EDIT_SetBi:
; Line 183
	mov	eax, DWORD PTR _hEdit$[ebp]
	push	eax
	call	__UpdateBuffer
	add	esp, 4
; Line 184
	mov	eax, DWORD PTR _hEdit$[ebp]
	push	eax
	call	_WM_InvalidateWindow
	add	esp, 4
$LN5@EDIT_SetBi:
; Line 187
	pop	edi
	pop	esi
	pop	ebx
	add	esp, 228				; 000000e4H
	cmp	ebp, esp
	call	__RTC_CheckEsp
	mov	esp, ebp
	pop	ebp
	ret	0
_EDIT_SetBinMode ENDP
; Function compile flags: /Odtp /RTCsu /ZI
_TEXT	ENDS
;	COMDAT __GetNumDigits
_TEXT	SEGMENT
_Ret$ = -8						; size = 4
_Value$ = 8						; size = 4
__GetNumDigits PROC					; COMDAT
; Line 50
	push	ebp
	mov	ebp, esp
	sub	esp, 204				; 000000ccH
	push	ebx
	push	esi
	push	edi
	lea	edi, DWORD PTR [ebp-204]
	mov	ecx, 51					; 00000033H
	mov	eax, -858993460				; ccccccccH
	rep stosd
; Line 52
	mov	DWORD PTR _Ret$[ebp], 0
	jmp	SHORT $LN3@GetNumDigi
$LN2@GetNumDigi:
	mov	eax, DWORD PTR _Value$[ebp]
	shr	eax, 1
	mov	DWORD PTR _Value$[ebp], eax
	mov	ecx, DWORD PTR _Ret$[ebp]
	add	ecx, 1
	mov	DWORD PTR _Ret$[ebp], ecx
$LN3@GetNumDigi:
	cmp	DWORD PTR _Value$[ebp], 0
	je	SHORT $LN1@GetNumDigi
	jmp	SHORT $LN2@GetNumDigi
$LN1@GetNumDigi:
; Line 53
	mov	eax, DWORD PTR _Ret$[ebp]
; Line 54
	pop	edi
	pop	esi
	pop	ebx
	mov	esp, ebp
	pop	ebp
	ret	0
__GetNumDigits ENDP
_TEXT	ENDS
EXTRN	_GUI_AddBin:PROC
EXTRN	_GUI_ALLOC_LockH:PROC
EXTRN	@_RTC_CheckStackVars@8:PROC
; Function compile flags: /Odtp /RTCsu /ZI
;	COMDAT __UpdateBuffer
_TEXT	SEGMENT
_pObj$ = -20						; size = 4
_s$ = -8						; size = 4
_hObj$ = 8						; size = 4
__UpdateBuffer PROC					; COMDAT
; Line 60
	push	ebp
	mov	ebp, esp
	sub	esp, 216				; 000000d8H
	push	ebx
	push	esi
	push	edi
	lea	edi, DWORD PTR [ebp-216]
	mov	ecx, 54					; 00000036H
	mov	eax, -858993460				; ccccccccH
	rep stosd
; Line 63
	mov	eax, DWORD PTR _hObj$[ebp]
	push	eax
	call	_EDIT_LockH
	add	esp, 4
	mov	DWORD PTR _pObj$[ebp], eax
; Line 64
	mov	eax, DWORD PTR _pObj$[ebp]
	mov	ecx, DWORD PTR [eax+56]
	push	ecx
	call	_GUI_ALLOC_LockH
	add	esp, 4
	mov	DWORD PTR _s$[ebp], eax
; Line 65
	lea	eax, DWORD PTR _s$[ebp]
	push	eax
	mov	ecx, DWORD PTR _pObj$[ebp]
	movzx	edx, BYTE PTR [ecx+60]
	push	edx
	mov	eax, DWORD PTR _pObj$[ebp]
	mov	ecx, DWORD PTR [eax+76]
	push	ecx
	call	_GUI_AddBin
	add	esp, 12					; 0000000cH
; Line 66
	call	_GUI_ALLOC_UnlockH
	mov	DWORD PTR _pObj$[ebp], 0
; Line 67
	call	_GUI_ALLOC_UnlockH
	mov	DWORD PTR _s$[ebp], 0
; Line 68
	push	edx
	mov	ecx, ebp
	push	eax
	lea	edx, DWORD PTR $LN5@UpdateBuff
	call	@_RTC_CheckStackVars@8
	pop	eax
	pop	edx
	pop	edi
	pop	esi
	pop	ebx
	add	esp, 216				; 000000d8H
	cmp	ebp, esp
	call	__RTC_CheckEsp
	mov	esp, ebp
	pop	ebp
	ret	0
	npad	1
$LN5@UpdateBuff:
	DD	1
	DD	$LN4@UpdateBuff
$LN4@UpdateBuff:
	DD	-8					; fffffff8H
	DD	4
	DD	$LN3@UpdateBuff
$LN3@UpdateBuff:
	DB	115					; 00000073H
	DB	0
__UpdateBuffer ENDP
_TEXT	ENDS
EXTRN	_EDIT__SetCursorPos:PROC
; Function compile flags: /Odtp /RTCsu /ZI
;	COMDAT __AddKeyBin
_TEXT	SEGMENT
tv67 = -244						; size = 4
_Bit$11437 = -44					; size = 4
_Bit$11432 = -32					; size = 4
_Bit$11429 = -20					; size = 4
_pObj$ = -8						; size = 4
_hObj$ = 8						; size = 4
_Key$ = 12						; size = 4
__AddKeyBin PROC					; COMDAT
; Line 104
	push	ebp
	mov	ebp, esp
	sub	esp, 244				; 000000f4H
	push	ebx
	push	esi
	push	edi
	lea	edi, DWORD PTR [ebp-244]
	mov	ecx, 61					; 0000003dH
	mov	eax, -858993460				; ccccccccH
	rep stosd
; Line 106
	mov	eax, DWORD PTR _hObj$[ebp]
	push	eax
	call	_EDIT_LockH
	add	esp, 4
	mov	DWORD PTR _pObj$[ebp], eax
; Line 107
	cmp	DWORD PTR _pObj$[ebp], 0
	je	$LN11@AddKeyBin
; Line 108
	mov	eax, DWORD PTR _Key$[ebp]
	mov	DWORD PTR tv67[ebp], eax
	mov	ecx, DWORD PTR tv67[ebp]
	sub	ecx, 16					; 00000010H
	mov	DWORD PTR tv67[ebp], ecx
	cmp	DWORD PTR tv67[ebp], 3
	ja	$LN2@AddKeyBin
	mov	edx, DWORD PTR tv67[ebp]
	jmp	DWORD PTR $LN14@AddKeyBin[edx*4]
$LN8@AddKeyBin:
; Line 111
	mov	eax, DWORD PTR _pObj$[ebp]
	push	eax
	call	__GetCurrentBit
	add	esp, 4
	movzx	ecx, al
	add	ecx, 1
	mov	DWORD PTR _Bit$11429[ebp], ecx
; Line 112
	cmp	DWORD PTR _Bit$11429[ebp], 1
	jle	SHORT $LN7@AddKeyBin
; Line 113
	mov	DWORD PTR _Bit$11429[ebp], 0
$LN7@AddKeyBin:
; Line 115
	mov	eax, DWORD PTR _hObj$[ebp]
	push	eax
	mov	ecx, DWORD PTR _pObj$[ebp]
	push	ecx
	movzx	edx, BYTE PTR _Bit$11429[ebp]
	push	edx
	call	__EditBin
	add	esp, 12					; 0000000cH
; Line 117
	jmp	$LN9@AddKeyBin
$LN6@AddKeyBin:
; Line 120
	mov	eax, DWORD PTR _pObj$[ebp]
	push	eax
	call	__GetCurrentBit
	add	esp, 4
	movzx	ecx, al
	sub	ecx, 1
	mov	DWORD PTR _Bit$11432[ebp], ecx
; Line 121
	jns	SHORT $LN5@AddKeyBin
; Line 122
	mov	DWORD PTR _Bit$11432[ebp], 1
$LN5@AddKeyBin:
; Line 124
	mov	eax, DWORD PTR _hObj$[ebp]
	push	eax
	mov	ecx, DWORD PTR _pObj$[ebp]
	push	ecx
	movzx	edx, BYTE PTR _Bit$11432[ebp]
	push	edx
	call	__EditBin
	add	esp, 12					; 0000000cH
; Line 126
	jmp	SHORT $LN9@AddKeyBin
$LN4@AddKeyBin:
; Line 128
	mov	eax, DWORD PTR _pObj$[ebp]
	mov	ecx, DWORD PTR [eax+80]
	add	ecx, 1
	push	ecx
	mov	edx, DWORD PTR _hObj$[ebp]
	push	edx
	call	_EDIT__SetCursorPos
	add	esp, 8
; Line 129
	jmp	SHORT $LN9@AddKeyBin
$LN3@AddKeyBin:
; Line 131
	mov	eax, DWORD PTR _pObj$[ebp]
	mov	ecx, DWORD PTR [eax+80]
	sub	ecx, 1
	push	ecx
	mov	edx, DWORD PTR _hObj$[ebp]
	push	edx
	call	_EDIT__SetCursorPos
	add	esp, 8
; Line 132
	jmp	SHORT $LN9@AddKeyBin
$LN2@AddKeyBin:
; Line 135
	mov	eax, DWORD PTR _Key$[ebp]
	push	eax
	call	__BinChar2Int
	add	esp, 4
	mov	DWORD PTR _Bit$11437[ebp], eax
; Line 136
	cmp	DWORD PTR _Bit$11437[ebp], 0
	jl	SHORT $LN9@AddKeyBin
; Line 137
	mov	eax, DWORD PTR _hObj$[ebp]
	push	eax
	mov	ecx, DWORD PTR _pObj$[ebp]
	push	ecx
	movzx	edx, BYTE PTR _Bit$11437[ebp]
	push	edx
	call	__EditBin
	add	esp, 12					; 0000000cH
; Line 138
	mov	eax, DWORD PTR _pObj$[ebp]
	mov	ecx, DWORD PTR [eax+80]
	add	ecx, 1
	push	ecx
	mov	edx, DWORD PTR _hObj$[ebp]
	push	edx
	call	_EDIT__SetCursorPos
	add	esp, 8
$LN9@AddKeyBin:
; Line 143
	mov	eax, DWORD PTR _hObj$[ebp]
	push	eax
	call	__UpdateBuffer
	add	esp, 4
$LN11@AddKeyBin:
; Line 145
	call	_GUI_ALLOC_UnlockH
	mov	DWORD PTR _pObj$[ebp], 0
; Line 146
	pop	edi
	pop	esi
	pop	ebx
	add	esp, 244				; 000000f4H
	cmp	ebp, esp
	call	__RTC_CheckEsp
	mov	esp, ebp
	pop	ebp
	ret	0
	npad	2
$LN14@AddKeyBin:
	DD	$LN3@AddKeyBin
	DD	$LN8@AddKeyBin
	DD	$LN4@AddKeyBin
	DD	$LN6@AddKeyBin
__AddKeyBin ENDP
; Function compile flags: /Odtp /RTCsu /ZI
_TEXT	ENDS
;	COMDAT __BinChar2Int
_TEXT	SEGMENT
_Char$ = 8						; size = 4
__BinChar2Int PROC					; COMDAT
; Line 40
	push	ebp
	mov	ebp, esp
	sub	esp, 192				; 000000c0H
	push	ebx
	push	esi
	push	edi
	lea	edi, DWORD PTR [ebp-192]
	mov	ecx, 48					; 00000030H
	mov	eax, -858993460				; ccccccccH
	rep stosd
; Line 41
	cmp	DWORD PTR _Char$[ebp], 48		; 00000030H
	jl	SHORT $LN1@BinChar2In
	cmp	DWORD PTR _Char$[ebp], 49		; 00000031H
	jg	SHORT $LN1@BinChar2In
; Line 42
	mov	eax, DWORD PTR _Char$[ebp]
	sub	eax, 48					; 00000030H
	jmp	SHORT $LN2@BinChar2In
$LN1@BinChar2In:
; Line 43
	or	eax, -1
$LN2@BinChar2In:
; Line 44
	pop	edi
	pop	esi
	pop	ebx
	mov	esp, ebp
	pop	ebp
	ret	0
__BinChar2Int ENDP
_TEXT	ENDS
EXTRN	_EDIT_SetValue:PROC
; Function compile flags: /Odtp /RTCsu /ZI
;	COMDAT __EditBin
_TEXT	SEGMENT
_Result$ = -44						; size = 4
_OrMask$ = -32						; size = 4
_AndMask$ = -20						; size = 4
_Pos$ = -8						; size = 4
_Bit$ = 8						; size = 1
_pObj$ = 12						; size = 4
_hObj$ = 16						; size = 4
__EditBin PROC						; COMDAT
; Line 74
	push	ebp
	mov	ebp, esp
	sub	esp, 240				; 000000f0H
	push	ebx
	push	esi
	push	edi
	lea	edi, DWORD PTR [ebp-240]
	mov	ecx, 60					; 0000003cH
	mov	eax, -858993460				; ccccccccH
	rep stosd
; Line 75
	mov	eax, DWORD PTR _pObj$[ebp]
	movsx	ecx, WORD PTR [eax+60]
	mov	edx, DWORD PTR _pObj$[ebp]
	sub	ecx, DWORD PTR [edx+80]
	sub	ecx, 1
	mov	DWORD PTR _Pos$[ebp], ecx
; Line 76
	mov	eax, 1
	mov	ecx, DWORD PTR _Pos$[ebp]
	shl	eax, cl
	not	eax
	mov	DWORD PTR _AndMask$[ebp], eax
; Line 77
	movzx	eax, BYTE PTR _Bit$[ebp]
	mov	ecx, DWORD PTR _Pos$[ebp]
	shl	eax, cl
	mov	DWORD PTR _OrMask$[ebp], eax
; Line 78
	mov	eax, DWORD PTR _pObj$[ebp]
	mov	ecx, DWORD PTR [eax+76]
	and	ecx, DWORD PTR _AndMask$[ebp]
	mov	DWORD PTR _Result$[ebp], ecx
; Line 79
	mov	eax, DWORD PTR _Result$[ebp]
	or	eax, DWORD PTR _OrMask$[ebp]
	mov	DWORD PTR _Result$[ebp], eax
; Line 80
	mov	eax, DWORD PTR _Result$[ebp]
	push	eax
	mov	ecx, DWORD PTR _hObj$[ebp]
	push	ecx
	call	_EDIT_SetValue
	add	esp, 8
; Line 81
	pop	edi
	pop	esi
	pop	ebx
	add	esp, 240				; 000000f0H
	cmp	ebp, esp
	call	__RTC_CheckEsp
	mov	esp, ebp
	pop	ebp
	ret	0
__EditBin ENDP
; Function compile flags: /Odtp /RTCsu /ZI
_TEXT	ENDS
;	COMDAT __GetCurrentBit
_TEXT	SEGMENT
_Bit$ = -29						; size = 1
_AndMask$ = -20						; size = 4
_Pos$ = -8						; size = 4
_pObj$ = 8						; size = 4
__GetCurrentBit PROC					; COMDAT
; Line 87
	push	ebp
	mov	ebp, esp
	sub	esp, 228				; 000000e4H
	push	ebx
	push	esi
	push	edi
	lea	edi, DWORD PTR [ebp-228]
	mov	ecx, 57					; 00000039H
	mov	eax, -858993460				; ccccccccH
	rep stosd
; Line 88
	mov	eax, DWORD PTR _pObj$[ebp]
	movsx	ecx, WORD PTR [eax+60]
	mov	edx, DWORD PTR _pObj$[ebp]
	sub	ecx, DWORD PTR [edx+80]
	sub	ecx, 1
	mov	DWORD PTR _Pos$[ebp], ecx
; Line 89
	mov	eax, 1
	mov	ecx, DWORD PTR _Pos$[ebp]
	shl	eax, cl
	mov	DWORD PTR _AndMask$[ebp], eax
; Line 90
	mov	eax, DWORD PTR _pObj$[ebp]
	mov	edx, DWORD PTR [eax+76]
	and	edx, DWORD PTR _AndMask$[ebp]
	mov	ecx, DWORD PTR _Pos$[ebp]
	shr	edx, cl
	mov	BYTE PTR _Bit$[ebp], dl
; Line 91
	mov	al, BYTE PTR _Bit$[ebp]
; Line 92
	pop	edi
	pop	esi
	pop	ebx
	mov	esp, ebp
	pop	ebp
	ret	0
__GetCurrentBit ENDP
_TEXT	ENDS
END
