; Listing generated by Microsoft (R) Optimizing Compiler Version 16.00.40219.01 

	TITLE	C:\DUII\Simulation\GUI\Font\F13HB_ASCII.c
	.686P
	.XMM
	include listing.inc
	.model	flat

INCLUDELIB LIBCMT
INCLUDELIB OLDNAMES

PUBLIC	_acFont13HB_ASCII_0020
PUBLIC	_acFont13HB_ASCII_0021
PUBLIC	_acFont13HB_ASCII_0022
PUBLIC	_acFont13HB_ASCII_0023
PUBLIC	_acFont13HB_ASCII_0024
PUBLIC	_acFont13HB_ASCII_0025
PUBLIC	_acFont13HB_ASCII_0026
PUBLIC	_acFont13HB_ASCII_0027
PUBLIC	_acFont13HB_ASCII_0028
PUBLIC	_acFont13HB_ASCII_0029
PUBLIC	_acFont13HB_ASCII_002A
PUBLIC	_acFont13HB_ASCII_002B
PUBLIC	_acFont13HB_ASCII_002C
PUBLIC	_acFont13HB_ASCII_002D
PUBLIC	_acFont13HB_ASCII_002E
PUBLIC	_acFont13HB_ASCII_002F
PUBLIC	_acFont13HB_ASCII_0030
PUBLIC	_acFont13HB_ASCII_0031
PUBLIC	_acFont13HB_ASCII_0032
PUBLIC	_acFont13HB_ASCII_0033
PUBLIC	_acFont13HB_ASCII_0034
PUBLIC	_acFont13HB_ASCII_0035
PUBLIC	_acFont13HB_ASCII_0036
PUBLIC	_acFont13HB_ASCII_0037
PUBLIC	_acFont13HB_ASCII_0038
PUBLIC	_acFont13HB_ASCII_0039
PUBLIC	_acFont13HB_ASCII_003A
PUBLIC	_acFont13HB_ASCII_003B
PUBLIC	_acFont13HB_ASCII_003C
PUBLIC	_acFont13HB_ASCII_003D
PUBLIC	_acFont13HB_ASCII_003E
PUBLIC	_acFont13HB_ASCII_003F
PUBLIC	_acFont13HB_ASCII_0040
PUBLIC	_acFont13HB_ASCII_0041
PUBLIC	_acFont13HB_ASCII_0042
PUBLIC	_acFont13HB_ASCII_0043
PUBLIC	_acFont13HB_ASCII_0044
PUBLIC	_acFont13HB_ASCII_0045
PUBLIC	_acFont13HB_ASCII_0046
PUBLIC	_acFont13HB_ASCII_0047
PUBLIC	_acFont13HB_ASCII_0048
PUBLIC	_acFont13HB_ASCII_0049
PUBLIC	_acFont13HB_ASCII_004A
PUBLIC	_acFont13HB_ASCII_004B
PUBLIC	_acFont13HB_ASCII_004C
PUBLIC	_acFont13HB_ASCII_004D
PUBLIC	_acFont13HB_ASCII_004E
PUBLIC	_acFont13HB_ASCII_004F
PUBLIC	_acFont13HB_ASCII_0050
PUBLIC	_acFont13HB_ASCII_0051
PUBLIC	_acFont13HB_ASCII_0052
PUBLIC	_acFont13HB_ASCII_0053
PUBLIC	_acFont13HB_ASCII_0054
PUBLIC	_acFont13HB_ASCII_0055
PUBLIC	_acFont13HB_ASCII_0056
PUBLIC	_acFont13HB_ASCII_0057
PUBLIC	_acFont13HB_ASCII_0058
PUBLIC	_acFont13HB_ASCII_0059
PUBLIC	_acFont13HB_ASCII_005A
PUBLIC	_acFont13HB_ASCII_005B
PUBLIC	_acFont13HB_ASCII_005C
PUBLIC	_acFont13HB_ASCII_005D
PUBLIC	_acFont13HB_ASCII_005E
PUBLIC	_acFont13HB_ASCII_005F
PUBLIC	_acFont13HB_ASCII_0060
PUBLIC	_acFont13HB_ASCII_0061
PUBLIC	_acFont13HB_ASCII_0062
PUBLIC	_acFont13HB_ASCII_0063
PUBLIC	_acFont13HB_ASCII_0064
PUBLIC	_acFont13HB_ASCII_0065
PUBLIC	_acFont13HB_ASCII_0066
PUBLIC	_acFont13HB_ASCII_0067
PUBLIC	_acFont13HB_ASCII_0068
PUBLIC	_acFont13HB_ASCII_0069
PUBLIC	_acFont13HB_ASCII_006A
PUBLIC	_acFont13HB_ASCII_006B
PUBLIC	_acFont13HB_ASCII_006C
PUBLIC	_acFont13HB_ASCII_006D
PUBLIC	_acFont13HB_ASCII_006E
PUBLIC	_acFont13HB_ASCII_006F
PUBLIC	_acFont13HB_ASCII_0070
PUBLIC	_acFont13HB_ASCII_0071
PUBLIC	_acFont13HB_ASCII_0072
PUBLIC	_acFont13HB_ASCII_0073
PUBLIC	_acFont13HB_ASCII_0074
PUBLIC	_acFont13HB_ASCII_0075
PUBLIC	_acFont13HB_ASCII_0076
PUBLIC	_acFont13HB_ASCII_0077
PUBLIC	_acFont13HB_ASCII_0078
PUBLIC	_acFont13HB_ASCII_0079
PUBLIC	_acFont13HB_ASCII_007A
PUBLIC	_acFont13HB_ASCII_007B
PUBLIC	_acFont13HB_ASCII_007C
PUBLIC	_acFont13HB_ASCII_007D
PUBLIC	_acFont13HB_ASCII_007E
PUBLIC	_GUI_Font13HB_ASCII_CharInfo
PUBLIC	_GUI_Font13HB_ASCII_Prop1
PUBLIC	_GUI_Font13HB_ASCII
EXTRN	_GUIPROP_IsInFont:PROC
EXTRN	_GUIPROP_GetFontInfo:PROC
EXTRN	_GUIPROP_GetCharDistX:PROC
EXTRN	_GUIPROP_DispChar:PROC
CONST	SEGMENT
_acFont13HB_ASCII_0020 DB 00H
	DB	00H
	DB	00H
	DB	00H
	DB	00H
	DB	00H
	DB	00H
	DB	00H
	DB	00H
	DB	00H
	DB	00H
	DB	00H
	DB	00H
	ORG $+3
_acFont13HB_ASCII_0021 DB 00H
	DB	00H
	DB	060H
	DB	060H
	DB	060H
	DB	060H
	DB	060H
	DB	060H
	DB	00H
	DB	060H
	DB	060H
	DB	00H
	DB	00H
	ORG $+3
_acFont13HB_ASCII_0022 DB 00H
	DB	0d8H
	DB	0d8H
	DB	0d8H
	DB	0d8H
	DB	00H
	DB	00H
	DB	00H
	DB	00H
	DB	00H
	DB	00H
	DB	00H
	DB	00H
	ORG $+3
_acFont13HB_ASCII_0023 DB 00H
	DB	00H
	DB	00H
	DB	00H
	DB	012H
	DB	00H
	DB	012H
	DB	00H
	DB	07fH
	DB	00H
	DB	07fH
	DB	00H
	DB	024H
	DB	00H
	DB	0feH
	DB	00H
	DB	0feH
	DB	00H
	DB	048H
	DB	00H
	DB	048H
	DB	00H
	DB	00H
	DB	00H
	DB	00H
	DB	00H
	ORG $+2
_acFont13HB_ASCII_0024 DB 010H
	DB	010H
	DB	07cH
	DB	0d2H
	DB	0d0H
	DB	0d0H
	DB	07cH
	DB	016H
	DB	016H
	DB	096H
	DB	07cH
	DB	010H
	DB	010H
	ORG $+3
_acFont13HB_ASCII_0025 DB 00H
	DB	00H
	DB	00H
	DB	00H
	DB	078H
	DB	00H
	DB	0ccH
	DB	040H
	DB	0ccH
	DB	080H
	DB	0cdH
	DB	00H
	DB	07aH
	DB	0f0H
	DB	05H
	DB	098H
	DB	09H
	DB	098H
	DB	011H
	DB	098H
	DB	00H
	DB	0f0H
	DB	00H
	DB	00H
	DB	00H
	DB	00H
	ORG $+2
_acFont13HB_ASCII_0026 DB 00H
	DB	00H
	DB	00H
	DB	00H
	DB	03cH
	DB	00H
	DB	066H
	DB	00H
	DB	066H
	DB	00H
	DB	066H
	DB	00H
	DB	03cH
	DB	0c0H
	DB	066H
	DB	0c0H
	DB	063H
	DB	080H
	DB	063H
	DB	00H
	DB	03dH
	DB	0c0H
	DB	00H
	DB	00H
	DB	00H
	DB	00H
	ORG $+2
_acFont13HB_ASCII_0027 DB 00H
	DB	060H
	DB	060H
	DB	060H
	DB	060H
	DB	00H
	DB	00H
	DB	00H
	DB	00H
	DB	00H
	DB	00H
	DB	00H
	DB	00H
	ORG $+3
_acFont13HB_ASCII_0028 DB 00H
	DB	018H
	DB	030H
	DB	030H
	DB	060H
	DB	060H
	DB	060H
	DB	060H
	DB	060H
	DB	060H
	DB	030H
	DB	030H
	DB	018H
	ORG $+3
_acFont13HB_ASCII_0029 DB 00H
	DB	060H
	DB	030H
	DB	030H
	DB	018H
	DB	018H
	DB	018H
	DB	018H
	DB	018H
	DB	018H
	DB	030H
	DB	030H
	DB	060H
	ORG $+3
_acFont13HB_ASCII_002A DB 00H
	DB	018H
	DB	05aH
	DB	03cH
	DB	05aH
	DB	018H
	DB	00H
	DB	00H
	DB	00H
	DB	00H
	DB	00H
	DB	00H
	DB	00H
	ORG $+3
_acFont13HB_ASCII_002B DB 00H
	DB	00H
	DB	00H
	DB	00H
	DB	00H
	DB	00H
	DB	04H
	DB	00H
	DB	04H
	DB	00H
	DB	04H
	DB	00H
	DB	03fH
	DB	080H
	DB	04H
	DB	00H
	DB	04H
	DB	00H
	DB	04H
	DB	00H
	DB	00H
	DB	00H
	DB	00H
	DB	00H
	DB	00H
	DB	00H
	ORG $+2
_acFont13HB_ASCII_002C DB 00H
	DB	00H
	DB	00H
	DB	00H
	DB	00H
	DB	00H
	DB	00H
	DB	00H
	DB	00H
	DB	060H
	DB	060H
	DB	0c0H
	DB	0c0H
	ORG $+3
_acFont13HB_ASCII_002D DB 00H
	DB	00H
	DB	00H
	DB	00H
	DB	00H
	DB	00H
	DB	0f8H
	DB	00H
	DB	00H
	DB	00H
	DB	00H
	DB	00H
	DB	00H
	ORG $+3
_acFont13HB_ASCII_002E DB 00H
	DB	00H
	DB	00H
	DB	00H
	DB	00H
	DB	00H
	DB	00H
	DB	00H
	DB	00H
	DB	060H
	DB	060H
	DB	00H
	DB	00H
	ORG $+3
_acFont13HB_ASCII_002F DB 00H
	DB	04H
	DB	04H
	DB	08H
	DB	08H
	DB	010H
	DB	010H
	DB	020H
	DB	020H
	DB	040H
	DB	040H
	DB	080H
	DB	080H
	ORG $+3
_acFont13HB_ASCII_0030 DB 00H
	DB	00H
	DB	07cH
	DB	0c6H
	DB	0c6H
	DB	0c6H
	DB	0c6H
	DB	0c6H
	DB	0c6H
	DB	0c6H
	DB	07cH
	DB	00H
	DB	00H
	ORG $+3
_acFont13HB_ASCII_0031 DB 00H
	DB	00H
	DB	018H
	DB	078H
	DB	018H
	DB	018H
	DB	018H
	DB	018H
	DB	018H
	DB	018H
	DB	07eH
	DB	00H
	DB	00H
	ORG $+3
_acFont13HB_ASCII_0032 DB 00H
	DB	00H
	DB	07cH
	DB	086H
	DB	086H
	DB	06H
	DB	0cH
	DB	018H
	DB	030H
	DB	060H
	DB	0feH
	DB	00H
	DB	00H
	ORG $+3
_acFont13HB_ASCII_0033 DB 00H
	DB	00H
	DB	07cH
	DB	086H
	DB	06H
	DB	06H
	DB	03cH
	DB	06H
	DB	06H
	DB	086H
	DB	07cH
	DB	00H
	DB	00H
	ORG $+3
_acFont13HB_ASCII_0034 DB 00H
	DB	00H
	DB	0cH
	DB	01cH
	DB	02cH
	DB	04cH
	DB	08cH
	DB	0feH
	DB	0cH
	DB	0cH
	DB	0cH
	DB	00H
	DB	00H
	ORG $+3
_acFont13HB_ASCII_0035 DB 00H
	DB	00H
	DB	07eH
	DB	060H
	DB	060H
	DB	07cH
	DB	06H
	DB	06H
	DB	06H
	DB	086H
	DB	07cH
	DB	00H
	DB	00H
	ORG $+3
_acFont13HB_ASCII_0036 DB 00H
	DB	00H
	DB	03cH
	DB	060H
	DB	0c0H
	DB	0fcH
	DB	0c6H
	DB	0c6H
	DB	0c6H
	DB	0c6H
	DB	07cH
	DB	00H
	DB	00H
	ORG $+3
_acFont13HB_ASCII_0037 DB 00H
	DB	00H
	DB	0feH
	DB	06H
	DB	0cH
	DB	0cH
	DB	018H
	DB	018H
	DB	030H
	DB	030H
	DB	030H
	DB	00H
	DB	00H
	ORG $+3
_acFont13HB_ASCII_0038 DB 00H
	DB	00H
	DB	07cH
	DB	0c6H
	DB	0c6H
	DB	0c6H
	DB	07cH
	DB	0c6H
	DB	0c6H
	DB	0c6H
	DB	07cH
	DB	00H
	DB	00H
	ORG $+3
_acFont13HB_ASCII_0039 DB 00H
	DB	00H
	DB	07cH
	DB	0c6H
	DB	0c6H
	DB	0c6H
	DB	0c6H
	DB	07eH
	DB	06H
	DB	0cH
	DB	078H
	DB	00H
	DB	00H
	ORG $+3
_acFont13HB_ASCII_003A DB 00H
	DB	00H
	DB	00H
	DB	00H
	DB	060H
	DB	060H
	DB	00H
	DB	00H
	DB	00H
	DB	060H
	DB	060H
	DB	00H
	DB	00H
	ORG $+3
_acFont13HB_ASCII_003B DB 00H
	DB	00H
	DB	00H
	DB	00H
	DB	060H
	DB	060H
	DB	00H
	DB	00H
	DB	00H
	DB	060H
	DB	060H
	DB	0c0H
	DB	0c0H
	ORG $+3
_acFont13HB_ASCII_003C DB 00H
	DB	00H
	DB	00H
	DB	00H
	DB	00H
	DB	00H
	DB	01H
	DB	080H
	DB	06H
	DB	00H
	DB	018H
	DB	00H
	DB	060H
	DB	00H
	DB	060H
	DB	00H
	DB	018H
	DB	00H
	DB	06H
	DB	00H
	DB	01H
	DB	080H
	DB	00H
	DB	00H
	DB	00H
	DB	00H
	ORG $+2
_acFont13HB_ASCII_003D DB 00H
	DB	00H
	DB	00H
	DB	00H
	DB	00H
	DB	00H
	DB	00H
	DB	00H
	DB	07fH
	DB	080H
	DB	00H
	DB	00H
	DB	00H
	DB	00H
	DB	07fH
	DB	080H
	DB	00H
	DB	00H
	DB	00H
	DB	00H
	DB	00H
	DB	00H
	DB	00H
	DB	00H
	DB	00H
	DB	00H
	ORG $+2
_acFont13HB_ASCII_003E DB 00H
	DB	00H
	DB	00H
	DB	00H
	DB	00H
	DB	00H
	DB	060H
	DB	00H
	DB	018H
	DB	00H
	DB	06H
	DB	00H
	DB	01H
	DB	080H
	DB	01H
	DB	080H
	DB	06H
	DB	00H
	DB	018H
	DB	00H
	DB	060H
	DB	00H
	DB	00H
	DB	00H
	DB	00H
	DB	00H
	ORG $+2
_acFont13HB_ASCII_003F DB 00H
	DB	00H
	DB	078H
	DB	08cH
	DB	0cH
	DB	018H
	DB	030H
	DB	030H
	DB	00H
	DB	030H
	DB	030H
	DB	00H
	DB	00H
	ORG $+3
_acFont13HB_ASCII_0040 DB 00H
	DB	00H
	DB	00H
	DB	00H
	DB	03eH
	DB	00H
	DB	041H
	DB	00H
	DB	09eH
	DB	080H
	DB	0b6H
	DB	080H
	DB	0b6H
	DB	080H
	DB	0b6H
	DB	080H
	DB	0b6H
	DB	080H
	DB	09bH
	DB	00H
	DB	040H
	DB	00H
	DB	03fH
	DB	00H
	DB	00H
	DB	00H
	ORG $+2
_acFont13HB_ASCII_0041 DB 00H
	DB	00H
	DB	00H
	DB	00H
	DB	01cH
	DB	00H
	DB	01cH
	DB	00H
	DB	036H
	DB	00H
	DB	036H
	DB	00H
	DB	063H
	DB	00H
	DB	07fH
	DB	00H
	DB	063H
	DB	00H
	DB	0c1H
	DB	080H
	DB	0c1H
	DB	080H
	DB	00H
	DB	00H
	DB	00H
	DB	00H
	ORG $+2
_acFont13HB_ASCII_0042 DB 00H
	DB	00H
	DB	0fcH
	DB	0c6H
	DB	0c6H
	DB	0c6H
	DB	0fcH
	DB	0c6H
	DB	0c6H
	DB	0c6H
	DB	0fcH
	DB	00H
	DB	00H
	ORG $+3
_acFont13HB_ASCII_0043 DB 00H
	DB	00H
	DB	07cH
	DB	0c2H
	DB	0c2H
	DB	0c0H
	DB	0c0H
	DB	0c0H
	DB	0c2H
	DB	0c2H
	DB	07cH
	DB	00H
	DB	00H
	ORG $+3
_acFont13HB_ASCII_0044 DB 00H
	DB	00H
	DB	00H
	DB	00H
	DB	0fcH
	DB	00H
	DB	0c6H
	DB	00H
	DB	0c3H
	DB	00H
	DB	0c3H
	DB	00H
	DB	0c3H
	DB	00H
	DB	0c3H
	DB	00H
	DB	0c3H
	DB	00H
	DB	0c6H
	DB	00H
	DB	0fcH
	DB	00H
	DB	00H
	DB	00H
	DB	00H
	DB	00H
	ORG $+2
_acFont13HB_ASCII_0045 DB 00H
	DB	00H
	DB	0fcH
	DB	0c0H
	DB	0c0H
	DB	0c0H
	DB	0f8H
	DB	0c0H
	DB	0c0H
	DB	0c0H
	DB	0fcH
	DB	00H
	DB	00H
	ORG $+3
_acFont13HB_ASCII_0046 DB 00H
	DB	00H
	DB	0fcH
	DB	0c0H
	DB	0c0H
	DB	0c0H
	DB	0f8H
	DB	0c0H
	DB	0c0H
	DB	0c0H
	DB	0c0H
	DB	00H
	DB	00H
	ORG $+3
_acFont13HB_ASCII_0047 DB 00H
	DB	00H
	DB	07cH
	DB	0c2H
	DB	0c2H
	DB	0c0H
	DB	0ceH
	DB	0c6H
	DB	0c6H
	DB	0c6H
	DB	07eH
	DB	00H
	DB	00H
	ORG $+3
_acFont13HB_ASCII_0048 DB 00H
	DB	00H
	DB	00H
	DB	00H
	DB	0c3H
	DB	00H
	DB	0c3H
	DB	00H
	DB	0c3H
	DB	00H
	DB	0c3H
	DB	00H
	DB	0ffH
	DB	00H
	DB	0c3H
	DB	00H
	DB	0c3H
	DB	00H
	DB	0c3H
	DB	00H
	DB	0c3H
	DB	00H
	DB	00H
	DB	00H
	DB	00H
	DB	00H
	ORG $+2
_acFont13HB_ASCII_0049 DB 00H
	DB	00H
	DB	0f0H
	DB	060H
	DB	060H
	DB	060H
	DB	060H
	DB	060H
	DB	060H
	DB	060H
	DB	0f0H
	DB	00H
	DB	00H
	ORG $+3
_acFont13HB_ASCII_004A DB 00H
	DB	00H
	DB	078H
	DB	018H
	DB	018H
	DB	018H
	DB	018H
	DB	018H
	DB	018H
	DB	018H
	DB	0f0H
	DB	00H
	DB	00H
	ORG $+3
_acFont13HB_ASCII_004B DB 00H
	DB	00H
	DB	0c6H
	DB	0ccH
	DB	0d8H
	DB	0f0H
	DB	0e0H
	DB	0f0H
	DB	0d8H
	DB	0ccH
	DB	0c6H
	DB	00H
	DB	00H
	ORG $+3
_acFont13HB_ASCII_004C DB 00H
	DB	00H
	DB	0c0H
	DB	0c0H
	DB	0c0H
	DB	0c0H
	DB	0c0H
	DB	0c0H
	DB	0c0H
	DB	0c0H
	DB	0fcH
	DB	00H
	DB	00H
	ORG $+3
_acFont13HB_ASCII_004D DB 00H
	DB	00H
	DB	00H
	DB	00H
	DB	0e1H
	DB	0c0H
	DB	0e1H
	DB	0c0H
	DB	0b2H
	DB	0c0H
	DB	0b2H
	DB	0c0H
	DB	09cH
	DB	0c0H
	DB	09cH
	DB	0c0H
	DB	088H
	DB	0c0H
	DB	088H
	DB	0c0H
	DB	080H
	DB	0c0H
	DB	00H
	DB	00H
	DB	00H
	DB	00H
	ORG $+2
_acFont13HB_ASCII_004E DB 00H
	DB	00H
	DB	0e2H
	DB	0e2H
	DB	0b2H
	DB	0b2H
	DB	09aH
	DB	09aH
	DB	08eH
	DB	08eH
	DB	086H
	DB	00H
	DB	00H
	ORG $+3
_acFont13HB_ASCII_004F DB 00H
	DB	00H
	DB	00H
	DB	00H
	DB	07eH
	DB	00H
	DB	0c3H
	DB	00H
	DB	0c3H
	DB	00H
	DB	0c3H
	DB	00H
	DB	0c3H
	DB	00H
	DB	0c3H
	DB	00H
	DB	0c3H
	DB	00H
	DB	0c3H
	DB	00H
	DB	07eH
	DB	00H
	DB	00H
	DB	00H
	DB	00H
	DB	00H
	ORG $+2
_acFont13HB_ASCII_0050 DB 00H
	DB	00H
	DB	0fcH
	DB	0c6H
	DB	0c6H
	DB	0c6H
	DB	0c6H
	DB	0fcH
	DB	0c0H
	DB	0c0H
	DB	0c0H
	DB	00H
	DB	00H
	ORG $+3
_acFont13HB_ASCII_0051 DB 00H
	DB	00H
	DB	00H
	DB	00H
	DB	07eH
	DB	00H
	DB	0c3H
	DB	00H
	DB	0c3H
	DB	00H
	DB	0c3H
	DB	00H
	DB	0c3H
	DB	00H
	DB	0c3H
	DB	00H
	DB	0c3H
	DB	00H
	DB	0c3H
	DB	00H
	DB	07eH
	DB	00H
	DB	06H
	DB	00H
	DB	03H
	DB	00H
	ORG $+2
_acFont13HB_ASCII_0052 DB 00H
	DB	00H
	DB	00H
	DB	00H
	DB	0fcH
	DB	00H
	DB	0c6H
	DB	00H
	DB	0c6H
	DB	00H
	DB	0c6H
	DB	00H
	DB	0fcH
	DB	00H
	DB	0d8H
	DB	00H
	DB	0ccH
	DB	00H
	DB	0c6H
	DB	00H
	DB	0c3H
	DB	00H
	DB	00H
	DB	00H
	DB	00H
	DB	00H
	ORG $+2
_acFont13HB_ASCII_0053 DB 00H
	DB	00H
	DB	07cH
	DB	0c2H
	DB	0c2H
	DB	0c0H
	DB	07cH
	DB	06H
	DB	086H
	DB	086H
	DB	07cH
	DB	00H
	DB	00H
	ORG $+3
_acFont13HB_ASCII_0054 DB 00H
	DB	00H
	DB	0fcH
	DB	030H
	DB	030H
	DB	030H
	DB	030H
	DB	030H
	DB	030H
	DB	030H
	DB	030H
	DB	00H
	DB	00H
	ORG $+3
_acFont13HB_ASCII_0055 DB 00H
	DB	00H
	DB	0c6H
	DB	0c6H
	DB	0c6H
	DB	0c6H
	DB	0c6H
	DB	0c6H
	DB	0c6H
	DB	0c6H
	DB	07cH
	DB	00H
	DB	00H
	ORG $+3
_acFont13HB_ASCII_0056 DB 00H
	DB	00H
	DB	00H
	DB	00H
	DB	0c3H
	DB	00H
	DB	0c3H
	DB	00H
	DB	0c3H
	DB	00H
	DB	066H
	DB	00H
	DB	066H
	DB	00H
	DB	03cH
	DB	00H
	DB	03cH
	DB	00H
	DB	018H
	DB	00H
	DB	018H
	DB	00H
	DB	00H
	DB	00H
	DB	00H
	DB	00H
	ORG $+2
_acFont13HB_ASCII_0057 DB 00H
	DB	00H
	DB	00H
	DB	00H
	DB	0c6H
	DB	030H
	DB	0c6H
	DB	030H
	DB	0c6H
	DB	030H
	DB	0cfH
	DB	030H
	DB	06fH
	DB	060H
	DB	079H
	DB	0e0H
	DB	079H
	DB	0e0H
	DB	030H
	DB	0c0H
	DB	030H
	DB	0c0H
	DB	00H
	DB	00H
	DB	00H
	DB	00H
	ORG $+2
_acFont13HB_ASCII_0058 DB 00H
	DB	00H
	DB	00H
	DB	00H
	DB	0c3H
	DB	00H
	DB	0c3H
	DB	00H
	DB	066H
	DB	00H
	DB	03cH
	DB	00H
	DB	018H
	DB	00H
	DB	03cH
	DB	00H
	DB	066H
	DB	00H
	DB	0c3H
	DB	00H
	DB	0c3H
	DB	00H
	DB	00H
	DB	00H
	DB	00H
	DB	00H
	ORG $+2
_acFont13HB_ASCII_0059 DB 00H
	DB	00H
	DB	00H
	DB	00H
	DB	0c3H
	DB	00H
	DB	0c3H
	DB	00H
	DB	066H
	DB	00H
	DB	066H
	DB	00H
	DB	03cH
	DB	00H
	DB	018H
	DB	00H
	DB	018H
	DB	00H
	DB	018H
	DB	00H
	DB	018H
	DB	00H
	DB	00H
	DB	00H
	DB	00H
	DB	00H
	ORG $+2
_acFont13HB_ASCII_005A DB 00H
	DB	00H
	DB	0fcH
	DB	0cH
	DB	0cH
	DB	018H
	DB	030H
	DB	060H
	DB	0c0H
	DB	0c0H
	DB	0fcH
	DB	00H
	DB	00H
	ORG $+3
_acFont13HB_ASCII_005B DB 00H
	DB	078H
	DB	060H
	DB	060H
	DB	060H
	DB	060H
	DB	060H
	DB	060H
	DB	060H
	DB	060H
	DB	060H
	DB	060H
	DB	078H
	ORG $+3
_acFont13HB_ASCII_005C DB 00H
	DB	080H
	DB	080H
	DB	040H
	DB	040H
	DB	020H
	DB	020H
	DB	010H
	DB	010H
	DB	08H
	DB	08H
	DB	04H
	DB	04H
	ORG $+3
_acFont13HB_ASCII_005D DB 00H
	DB	078H
	DB	018H
	DB	018H
	DB	018H
	DB	018H
	DB	018H
	DB	018H
	DB	018H
	DB	018H
	DB	018H
	DB	018H
	DB	078H
	ORG $+3
_acFont13HB_ASCII_005E DB 00H
	DB	00H
	DB	00H
	DB	00H
	DB	0cH
	DB	00H
	DB	012H
	DB	00H
	DB	021H
	DB	00H
	DB	040H
	DB	080H
	DB	00H
	DB	00H
	DB	00H
	DB	00H
	DB	00H
	DB	00H
	DB	00H
	DB	00H
	DB	00H
	DB	00H
	DB	00H
	DB	00H
	DB	00H
	DB	00H
	ORG $+2
_acFont13HB_ASCII_005F DB 00H
	DB	00H
	DB	00H
	DB	00H
	DB	00H
	DB	00H
	DB	00H
	DB	00H
	DB	00H
	DB	00H
	DB	00H
	DB	00H
	DB	0ffH
	ORG $+3
_acFont13HB_ASCII_0060 DB 00H
	DB	030H
	DB	018H
	DB	00H
	DB	00H
	DB	00H
	DB	00H
	DB	00H
	DB	00H
	DB	00H
	DB	00H
	DB	00H
	DB	00H
	ORG $+3
_acFont13HB_ASCII_0061 DB 00H
	DB	00H
	DB	00H
	DB	00H
	DB	03cH
	DB	046H
	DB	06H
	DB	07eH
	DB	0c6H
	DB	0c6H
	DB	07eH
	DB	00H
	DB	00H
	ORG $+3
_acFont13HB_ASCII_0062 DB 00H
	DB	0c0H
	DB	0c0H
	DB	0c0H
	DB	0dcH
	DB	0e6H
	DB	0c6H
	DB	0c6H
	DB	0c6H
	DB	0c6H
	DB	0fcH
	DB	00H
	DB	00H
	ORG $+3
_acFont13HB_ASCII_0063 DB 00H
	DB	00H
	DB	00H
	DB	00H
	DB	078H
	DB	0c4H
	DB	0c0H
	DB	0c0H
	DB	0c0H
	DB	0c4H
	DB	078H
	DB	00H
	DB	00H
	ORG $+3
_acFont13HB_ASCII_0064 DB 00H
	DB	06H
	DB	06H
	DB	06H
	DB	07eH
	DB	0c6H
	DB	0c6H
	DB	0c6H
	DB	0c6H
	DB	0ceH
	DB	076H
	DB	00H
	DB	00H
	ORG $+3
_acFont13HB_ASCII_0065 DB 00H
	DB	00H
	DB	00H
	DB	00H
	DB	07cH
	DB	0c6H
	DB	0c6H
	DB	0feH
	DB	0c0H
	DB	0c2H
	DB	07cH
	DB	00H
	DB	00H
	ORG $+3
_acFont13HB_ASCII_0066 DB 00H
	DB	038H
	DB	060H
	DB	060H
	DB	0f0H
	DB	060H
	DB	060H
	DB	060H
	DB	060H
	DB	060H
	DB	060H
	DB	00H
	DB	00H
	ORG $+3
_acFont13HB_ASCII_0067 DB 00H
	DB	00H
	DB	00H
	DB	00H
	DB	07eH
	DB	0c6H
	DB	0c6H
	DB	0c6H
	DB	0c6H
	DB	0ceH
	DB	076H
	DB	06H
	DB	07cH
	ORG $+3
_acFont13HB_ASCII_0068 DB 00H
	DB	0c0H
	DB	0c0H
	DB	0c0H
	DB	0dcH
	DB	0e6H
	DB	0c6H
	DB	0c6H
	DB	0c6H
	DB	0c6H
	DB	0c6H
	DB	00H
	DB	00H
	ORG $+3
_acFont13HB_ASCII_0069 DB 00H
	DB	0c0H
	DB	0c0H
	DB	00H
	DB	0c0H
	DB	0c0H
	DB	0c0H
	DB	0c0H
	DB	0c0H
	DB	0c0H
	DB	0c0H
	DB	00H
	DB	00H
	ORG $+3
_acFont13HB_ASCII_006A DB 00H
	DB	060H
	DB	060H
	DB	00H
	DB	0e0H
	DB	060H
	DB	060H
	DB	060H
	DB	060H
	DB	060H
	DB	060H
	DB	060H
	DB	0c0H
	ORG $+3
_acFont13HB_ASCII_006B DB 00H
	DB	0c0H
	DB	0c0H
	DB	0c0H
	DB	0ccH
	DB	0d8H
	DB	0f0H
	DB	0e0H
	DB	0f0H
	DB	0d8H
	DB	0ccH
	DB	00H
	DB	00H
	ORG $+3
_acFont13HB_ASCII_006C DB 00H
	DB	0c0H
	DB	0c0H
	DB	0c0H
	DB	0c0H
	DB	0c0H
	DB	0c0H
	DB	0c0H
	DB	0c0H
	DB	0c0H
	DB	0c0H
	DB	00H
	DB	00H
	ORG $+3
_acFont13HB_ASCII_006D DB 00H
	DB	00H
	DB	00H
	DB	00H
	DB	00H
	DB	00H
	DB	00H
	DB	00H
	DB	0fbH
	DB	080H
	DB	0ccH
	DB	0c0H
	DB	0ccH
	DB	0c0H
	DB	0ccH
	DB	0c0H
	DB	0ccH
	DB	0c0H
	DB	0ccH
	DB	0c0H
	DB	0ccH
	DB	0c0H
	DB	00H
	DB	00H
	DB	00H
	DB	00H
	ORG $+2
_acFont13HB_ASCII_006E DB 00H
	DB	00H
	DB	00H
	DB	00H
	DB	0dcH
	DB	0e6H
	DB	0c6H
	DB	0c6H
	DB	0c6H
	DB	0c6H
	DB	0c6H
	DB	00H
	DB	00H
	ORG $+3
_acFont13HB_ASCII_006F DB 00H
	DB	00H
	DB	00H
	DB	00H
	DB	07cH
	DB	0c6H
	DB	0c6H
	DB	0c6H
	DB	0c6H
	DB	0c6H
	DB	07cH
	DB	00H
	DB	00H
	ORG $+3
_acFont13HB_ASCII_0070 DB 00H
	DB	00H
	DB	00H
	DB	00H
	DB	0dcH
	DB	0e6H
	DB	0c6H
	DB	0c6H
	DB	0c6H
	DB	0c6H
	DB	0fcH
	DB	0c0H
	DB	0c0H
	ORG $+3
_acFont13HB_ASCII_0071 DB 00H
	DB	00H
	DB	00H
	DB	00H
	DB	07eH
	DB	0c6H
	DB	0c6H
	DB	0c6H
	DB	0c6H
	DB	0ceH
	DB	076H
	DB	06H
	DB	06H
	ORG $+3
_acFont13HB_ASCII_0072 DB 00H
	DB	00H
	DB	00H
	DB	00H
	DB	0d8H
	DB	0f8H
	DB	0c0H
	DB	0c0H
	DB	0c0H
	DB	0c0H
	DB	0c0H
	DB	00H
	DB	00H
	ORG $+3
_acFont13HB_ASCII_0073 DB 00H
	DB	00H
	DB	00H
	DB	00H
	DB	078H
	DB	0c4H
	DB	0e0H
	DB	078H
	DB	01cH
	DB	08cH
	DB	078H
	DB	00H
	DB	00H
	ORG $+3
_acFont13HB_ASCII_0074 DB 00H
	DB	00H
	DB	060H
	DB	060H
	DB	0f8H
	DB	060H
	DB	060H
	DB	060H
	DB	060H
	DB	060H
	DB	038H
	DB	00H
	DB	00H
	ORG $+3
_acFont13HB_ASCII_0075 DB 00H
	DB	00H
	DB	00H
	DB	00H
	DB	0c6H
	DB	0c6H
	DB	0c6H
	DB	0c6H
	DB	0c6H
	DB	0ceH
	DB	076H
	DB	00H
	DB	00H
	ORG $+3
_acFont13HB_ASCII_0076 DB 00H
	DB	00H
	DB	00H
	DB	00H
	DB	0c6H
	DB	0c6H
	DB	0c6H
	DB	06cH
	DB	06cH
	DB	038H
	DB	038H
	DB	00H
	DB	00H
	ORG $+3
_acFont13HB_ASCII_0077 DB 00H
	DB	00H
	DB	00H
	DB	00H
	DB	00H
	DB	00H
	DB	00H
	DB	00H
	DB	0ccH
	DB	0c0H
	DB	0ccH
	DB	0c0H
	DB	06dH
	DB	080H
	DB	06dH
	DB	080H
	DB	073H
	DB	080H
	DB	033H
	DB	00H
	DB	033H
	DB	00H
	DB	00H
	DB	00H
	DB	00H
	DB	00H
	ORG $+2
_acFont13HB_ASCII_0078 DB 00H
	DB	00H
	DB	00H
	DB	00H
	DB	0ccH
	DB	0ccH
	DB	078H
	DB	030H
	DB	078H
	DB	0ccH
	DB	0ccH
	DB	00H
	DB	00H
	ORG $+3
_acFont13HB_ASCII_0079 DB 00H
	DB	00H
	DB	00H
	DB	00H
	DB	0c6H
	DB	0c6H
	DB	0c6H
	DB	06cH
	DB	06cH
	DB	038H
	DB	038H
	DB	018H
	DB	030H
	ORG $+3
_acFont13HB_ASCII_007A DB 00H
	DB	00H
	DB	00H
	DB	00H
	DB	0fcH
	DB	0cH
	DB	018H
	DB	030H
	DB	060H
	DB	0c0H
	DB	0fcH
	DB	00H
	DB	00H
	ORG $+3
_acFont13HB_ASCII_007B DB 00H
	DB	01cH
	DB	030H
	DB	030H
	DB	030H
	DB	030H
	DB	0e0H
	DB	030H
	DB	030H
	DB	030H
	DB	030H
	DB	030H
	DB	01cH
	ORG $+3
_acFont13HB_ASCII_007C DB 00H
	DB	030H
	DB	030H
	DB	030H
	DB	030H
	DB	030H
	DB	030H
	DB	030H
	DB	030H
	DB	030H
	DB	030H
	DB	030H
	DB	030H
	ORG $+3
_acFont13HB_ASCII_007D DB 00H
	DB	0e0H
	DB	030H
	DB	030H
	DB	030H
	DB	030H
	DB	01cH
	DB	030H
	DB	030H
	DB	030H
	DB	030H
	DB	030H
	DB	0e0H
	ORG $+3
_acFont13HB_ASCII_007E DB 00H
	DB	00H
	DB	00H
	DB	00H
	DB	00H
	DB	00H
	DB	00H
	DB	00H
	DB	00H
	DB	00H
	DB	078H
	DB	040H
	DB	0fcH
	DB	040H
	DB	08fH
	DB	0c0H
	DB	087H
	DB	080H
	DB	00H
	DB	00H
	DB	00H
	DB	00H
	DB	00H
	DB	00H
	DB	00H
	DB	00H
	ORG $+6
_GUI_Font13HB_ASCII_CharInfo DB 04H
	DB	04H
	DB	01H
	ORG $+1
	DD	FLAT:_acFont13HB_ASCII_0020
	DB	05H
	DB	05H
	DB	01H
	ORG $+1
	DD	FLAT:_acFont13HB_ASCII_0021
	DB	06H
	DB	06H
	DB	01H
	ORG $+1
	DD	FLAT:_acFont13HB_ASCII_0022
	DB	09H
	DB	09H
	DB	02H
	ORG $+1
	DD	FLAT:_acFont13HB_ASCII_0023
	DB	08H
	DB	08H
	DB	01H
	ORG $+1
	DD	FLAT:_acFont13HB_ASCII_0024
	DB	0eH
	DB	0eH
	DB	02H
	ORG $+1
	DD	FLAT:_acFont13HB_ASCII_0025
	DB	0bH
	DB	0bH
	DB	02H
	ORG $+1
	DD	FLAT:_acFont13HB_ASCII_0026
	DB	04H
	DB	04H
	DB	01H
	ORG $+1
	DD	FLAT:_acFont13HB_ASCII_0027
	DB	06H
	DB	06H
	DB	01H
	ORG $+1
	DD	FLAT:_acFont13HB_ASCII_0028
	DB	06H
	DB	06H
	DB	01H
	ORG $+1
	DD	FLAT:_acFont13HB_ASCII_0029
	DB	08H
	DB	08H
	DB	01H
	ORG $+1
	DD	FLAT:_acFont13HB_ASCII_002A
	DB	0bH
	DB	0bH
	DB	02H
	ORG $+1
	DD	FLAT:_acFont13HB_ASCII_002B
	DB	04H
	DB	04H
	DB	01H
	ORG $+1
	DD	FLAT:_acFont13HB_ASCII_002C
	DB	06H
	DB	06H
	DB	01H
	ORG $+1
	DD	FLAT:_acFont13HB_ASCII_002D
	DB	04H
	DB	04H
	DB	01H
	ORG $+1
	DD	FLAT:_acFont13HB_ASCII_002E
	DB	08H
	DB	08H
	DB	01H
	ORG $+1
	DD	FLAT:_acFont13HB_ASCII_002F
	DB	08H
	DB	08H
	DB	01H
	ORG $+1
	DD	FLAT:_acFont13HB_ASCII_0030
	DB	08H
	DB	08H
	DB	01H
	ORG $+1
	DD	FLAT:_acFont13HB_ASCII_0031
	DB	08H
	DB	08H
	DB	01H
	ORG $+1
	DD	FLAT:_acFont13HB_ASCII_0032
	DB	08H
	DB	08H
	DB	01H
	ORG $+1
	DD	FLAT:_acFont13HB_ASCII_0033
	DB	08H
	DB	08H
	DB	01H
	ORG $+1
	DD	FLAT:_acFont13HB_ASCII_0034
	DB	08H
	DB	08H
	DB	01H
	ORG $+1
	DD	FLAT:_acFont13HB_ASCII_0035
	DB	08H
	DB	08H
	DB	01H
	ORG $+1
	DD	FLAT:_acFont13HB_ASCII_0036
	DB	08H
	DB	08H
	DB	01H
	ORG $+1
	DD	FLAT:_acFont13HB_ASCII_0037
	DB	08H
	DB	08H
	DB	01H
	ORG $+1
	DD	FLAT:_acFont13HB_ASCII_0038
	DB	08H
	DB	08H
	DB	01H
	ORG $+1
	DD	FLAT:_acFont13HB_ASCII_0039
	DB	05H
	DB	05H
	DB	01H
	ORG $+1
	DD	FLAT:_acFont13HB_ASCII_003A
	DB	05H
	DB	05H
	DB	01H
	ORG $+1
	DD	FLAT:_acFont13HB_ASCII_003B
	DB	0bH
	DB	0bH
	DB	02H
	ORG $+1
	DD	FLAT:_acFont13HB_ASCII_003C
	DB	0bH
	DB	0bH
	DB	02H
	ORG $+1
	DD	FLAT:_acFont13HB_ASCII_003D
	DB	0bH
	DB	0bH
	DB	02H
	ORG $+1
	DD	FLAT:_acFont13HB_ASCII_003E
	DB	07H
	DB	07H
	DB	01H
	ORG $+1
	DD	FLAT:_acFont13HB_ASCII_003F
	DB	0aH
	DB	0aH
	DB	02H
	ORG $+1
	DD	FLAT:_acFont13HB_ASCII_0040
	DB	0aH
	DB	0aH
	DB	02H
	ORG $+1
	DD	FLAT:_acFont13HB_ASCII_0041
	DB	08H
	DB	08H
	DB	01H
	ORG $+1
	DD	FLAT:_acFont13HB_ASCII_0042
	DB	08H
	DB	08H
	DB	01H
	ORG $+1
	DD	FLAT:_acFont13HB_ASCII_0043
	DB	09H
	DB	09H
	DB	02H
	ORG $+1
	DD	FLAT:_acFont13HB_ASCII_0044
	DB	07H
	DB	07H
	DB	01H
	ORG $+1
	DD	FLAT:_acFont13HB_ASCII_0045
	DB	06H
	DB	06H
	DB	01H
	ORG $+1
	DD	FLAT:_acFont13HB_ASCII_0046
	DB	08H
	DB	08H
	DB	01H
	ORG $+1
	DD	FLAT:_acFont13HB_ASCII_0047
	DB	09H
	DB	09H
	DB	02H
	ORG $+1
	DD	FLAT:_acFont13HB_ASCII_0048
	DB	05H
	DB	05H
	DB	01H
	ORG $+1
	DD	FLAT:_acFont13HB_ASCII_0049
	DB	06H
	DB	06H
	DB	01H
	ORG $+1
	DD	FLAT:_acFont13HB_ASCII_004A
	DB	08H
	DB	08H
	DB	01H
	ORG $+1
	DD	FLAT:_acFont13HB_ASCII_004B
	DB	07H
	DB	07H
	DB	01H
	ORG $+1
	DD	FLAT:_acFont13HB_ASCII_004C
	DB	0bH
	DB	0bH
	DB	02H
	ORG $+1
	DD	FLAT:_acFont13HB_ASCII_004D
	DB	08H
	DB	08H
	DB	01H
	ORG $+1
	DD	FLAT:_acFont13HB_ASCII_004E
	DB	09H
	DB	09H
	DB	02H
	ORG $+1
	DD	FLAT:_acFont13HB_ASCII_004F
	DB	08H
	DB	08H
	DB	01H
	ORG $+1
	DD	FLAT:_acFont13HB_ASCII_0050
	DB	09H
	DB	09H
	DB	02H
	ORG $+1
	DD	FLAT:_acFont13HB_ASCII_0051
	DB	09H
	DB	09H
	DB	02H
	ORG $+1
	DD	FLAT:_acFont13HB_ASCII_0052
	DB	08H
	DB	08H
	DB	01H
	ORG $+1
	DD	FLAT:_acFont13HB_ASCII_0053
	DB	07H
	DB	07H
	DB	01H
	ORG $+1
	DD	FLAT:_acFont13HB_ASCII_0054
	DB	08H
	DB	08H
	DB	01H
	ORG $+1
	DD	FLAT:_acFont13HB_ASCII_0055
	DB	09H
	DB	09H
	DB	02H
	ORG $+1
	DD	FLAT:_acFont13HB_ASCII_0056
	DB	0dH
	DB	0dH
	DB	02H
	ORG $+1
	DD	FLAT:_acFont13HB_ASCII_0057
	DB	09H
	DB	09H
	DB	02H
	ORG $+1
	DD	FLAT:_acFont13HB_ASCII_0058
	DB	09H
	DB	09H
	DB	02H
	ORG $+1
	DD	FLAT:_acFont13HB_ASCII_0059
	DB	07H
	DB	07H
	DB	01H
	ORG $+1
	DD	FLAT:_acFont13HB_ASCII_005A
	DB	06H
	DB	06H
	DB	01H
	ORG $+1
	DD	FLAT:_acFont13HB_ASCII_005B
	DB	08H
	DB	08H
	DB	01H
	ORG $+1
	DD	FLAT:_acFont13HB_ASCII_005C
	DB	06H
	DB	06H
	DB	01H
	ORG $+1
	DD	FLAT:_acFont13HB_ASCII_005D
	DB	0bH
	DB	0bH
	DB	02H
	ORG $+1
	DD	FLAT:_acFont13HB_ASCII_005E
	DB	08H
	DB	08H
	DB	01H
	ORG $+1
	DD	FLAT:_acFont13HB_ASCII_005F
	DB	07H
	DB	07H
	DB	01H
	ORG $+1
	DD	FLAT:_acFont13HB_ASCII_0060
	DB	08H
	DB	08H
	DB	01H
	ORG $+1
	DD	FLAT:_acFont13HB_ASCII_0061
	DB	08H
	DB	08H
	DB	01H
	ORG $+1
	DD	FLAT:_acFont13HB_ASCII_0062
	DB	07H
	DB	07H
	DB	01H
	ORG $+1
	DD	FLAT:_acFont13HB_ASCII_0063
	DB	08H
	DB	08H
	DB	01H
	ORG $+1
	DD	FLAT:_acFont13HB_ASCII_0064
	DB	08H
	DB	08H
	DB	01H
	ORG $+1
	DD	FLAT:_acFont13HB_ASCII_0065
	DB	05H
	DB	05H
	DB	01H
	ORG $+1
	DD	FLAT:_acFont13HB_ASCII_0066
	DB	08H
	DB	08H
	DB	01H
	ORG $+1
	DD	FLAT:_acFont13HB_ASCII_0067
	DB	08H
	DB	08H
	DB	01H
	ORG $+1
	DD	FLAT:_acFont13HB_ASCII_0068
	DB	03H
	DB	03H
	DB	01H
	ORG $+1
	DD	FLAT:_acFont13HB_ASCII_0069
	DB	04H
	DB	04H
	DB	01H
	ORG $+1
	DD	FLAT:_acFont13HB_ASCII_006A
	DB	07H
	DB	07H
	DB	01H
	ORG $+1
	DD	FLAT:_acFont13HB_ASCII_006B
	DB	03H
	DB	03H
	DB	01H
	ORG $+1
	DD	FLAT:_acFont13HB_ASCII_006C
	DB	0bH
	DB	0bH
	DB	02H
	ORG $+1
	DD	FLAT:_acFont13HB_ASCII_006D
	DB	08H
	DB	08H
	DB	01H
	ORG $+1
	DD	FLAT:_acFont13HB_ASCII_006E
	DB	08H
	DB	08H
	DB	01H
	ORG $+1
	DD	FLAT:_acFont13HB_ASCII_006F
	DB	08H
	DB	08H
	DB	01H
	ORG $+1
	DD	FLAT:_acFont13HB_ASCII_0070
	DB	08H
	DB	08H
	DB	01H
	ORG $+1
	DD	FLAT:_acFont13HB_ASCII_0071
	DB	06H
	DB	06H
	DB	01H
	ORG $+1
	DD	FLAT:_acFont13HB_ASCII_0072
	DB	07H
	DB	07H
	DB	01H
	ORG $+1
	DD	FLAT:_acFont13HB_ASCII_0073
	DB	06H
	DB	06H
	DB	01H
	ORG $+1
	DD	FLAT:_acFont13HB_ASCII_0074
	DB	08H
	DB	08H
	DB	01H
	ORG $+1
	DD	FLAT:_acFont13HB_ASCII_0075
	DB	08H
	DB	08H
	DB	01H
	ORG $+1
	DD	FLAT:_acFont13HB_ASCII_0076
	DB	0bH
	DB	0bH
	DB	02H
	ORG $+1
	DD	FLAT:_acFont13HB_ASCII_0077
	DB	07H
	DB	07H
	DB	01H
	ORG $+1
	DD	FLAT:_acFont13HB_ASCII_0078
	DB	08H
	DB	08H
	DB	01H
	ORG $+1
	DD	FLAT:_acFont13HB_ASCII_0079
	DB	07H
	DB	07H
	DB	01H
	ORG $+1
	DD	FLAT:_acFont13HB_ASCII_007A
	DB	07H
	DB	07H
	DB	01H
	ORG $+1
	DD	FLAT:_acFont13HB_ASCII_007B
	DB	07H
	DB	07H
	DB	01H
	ORG $+1
	DD	FLAT:_acFont13HB_ASCII_007C
	DB	07H
	DB	07H
	DB	01H
	ORG $+1
	DD	FLAT:_acFont13HB_ASCII_007D
	DB	0bH
	DB	0bH
	DB	02H
	ORG $+1
	DD	FLAT:_acFont13HB_ASCII_007E
_GUI_Font13HB_ASCII_Prop1 DW 020H
	DW	07eH
	DD	FLAT:_GUI_Font13HB_ASCII_CharInfo
	DD	00H
_GUI_Font13HB_ASCII DD FLAT:_GUIPROP_DispChar
	DD	FLAT:_GUIPROP_GetCharDistX
	DD	FLAT:_GUIPROP_GetFontInfo
	DD	FLAT:_GUIPROP_IsInFont
	DD	00H
	DD	00H
	DB	0dH
	DB	0dH
	DB	01H
	DB	01H
	DD	FLAT:_GUI_Font13HB_ASCII_Prop1
	DB	0bH
	DB	07H
	DB	09H
	ORG $+1
CONST	ENDS
END
