; Listing generated by Microsoft (R) Optimizing Compiler Version 16.00.40219.01 

	TITLE	C:\DUII\Simulation\GUI\Font\F20F_ASCII.c
	.686P
	.XMM
	include listing.inc
	.model	flat

INCLUDELIB LIBCMT
INCLUDELIB OLDNAMES

PUBLIC	_acGUI_Font20F_ASCII_0020
PUBLIC	_acGUI_Font20F_ASCII_0021
PUBLIC	_acGUI_Font20F_ASCII_0022
PUBLIC	_acGUI_Font20F_ASCII_0023
PUBLIC	_acGUI_Font20F_ASCII_0024
PUBLIC	_acGUI_Font20F_ASCII_0025
PUBLIC	_acGUI_Font20F_ASCII_0026
PUBLIC	_acGUI_Font20F_ASCII_0027
PUBLIC	_acGUI_Font20F_ASCII_0028
PUBLIC	_acGUI_Font20F_ASCII_0029
PUBLIC	_acGUI_Font20F_ASCII_002A
PUBLIC	_acGUI_Font20F_ASCII_002B
PUBLIC	_acGUI_Font20F_ASCII_002C
PUBLIC	_acGUI_Font20F_ASCII_002D
PUBLIC	_acGUI_Font20F_ASCII_002E
PUBLIC	_acGUI_Font20F_ASCII_002F
PUBLIC	_acGUI_Font20F_ASCII_0030
PUBLIC	_acGUI_Font20F_ASCII_0031
PUBLIC	_acGUI_Font20F_ASCII_0032
PUBLIC	_acGUI_Font20F_ASCII_0033
PUBLIC	_acGUI_Font20F_ASCII_0034
PUBLIC	_acGUI_Font20F_ASCII_0035
PUBLIC	_acGUI_Font20F_ASCII_0036
PUBLIC	_acGUI_Font20F_ASCII_0037
PUBLIC	_acGUI_Font20F_ASCII_0038
PUBLIC	_acGUI_Font20F_ASCII_0039
PUBLIC	_acGUI_Font20F_ASCII_003A
PUBLIC	_acGUI_Font20F_ASCII_003B
PUBLIC	_acGUI_Font20F_ASCII_003C
PUBLIC	_acGUI_Font20F_ASCII_003D
PUBLIC	_acGUI_Font20F_ASCII_003E
PUBLIC	_acGUI_Font20F_ASCII_003F
PUBLIC	_acGUI_Font20F_ASCII_0040
PUBLIC	_acGUI_Font20F_ASCII_0041
PUBLIC	_acGUI_Font20F_ASCII_0042
PUBLIC	_acGUI_Font20F_ASCII_0043
PUBLIC	_acGUI_Font20F_ASCII_0044
PUBLIC	_acGUI_Font20F_ASCII_0045
PUBLIC	_acGUI_Font20F_ASCII_0046
PUBLIC	_acGUI_Font20F_ASCII_0047
PUBLIC	_acGUI_Font20F_ASCII_0048
PUBLIC	_acGUI_Font20F_ASCII_0049
PUBLIC	_acGUI_Font20F_ASCII_004A
PUBLIC	_acGUI_Font20F_ASCII_004B
PUBLIC	_acGUI_Font20F_ASCII_004C
PUBLIC	_acGUI_Font20F_ASCII_004D
PUBLIC	_acGUI_Font20F_ASCII_004E
PUBLIC	_acGUI_Font20F_ASCII_004F
PUBLIC	_acGUI_Font20F_ASCII_0050
PUBLIC	_acGUI_Font20F_ASCII_0051
PUBLIC	_acGUI_Font20F_ASCII_0052
PUBLIC	_acGUI_Font20F_ASCII_0053
PUBLIC	_acGUI_Font20F_ASCII_0054
PUBLIC	_acGUI_Font20F_ASCII_0055
PUBLIC	_acGUI_Font20F_ASCII_0056
PUBLIC	_acGUI_Font20F_ASCII_0057
PUBLIC	_acGUI_Font20F_ASCII_0058
PUBLIC	_acGUI_Font20F_ASCII_0059
PUBLIC	_acGUI_Font20F_ASCII_005A
PUBLIC	_acGUI_Font20F_ASCII_005B
PUBLIC	_acGUI_Font20F_ASCII_005C
PUBLIC	_acGUI_Font20F_ASCII_005D
PUBLIC	_acGUI_Font20F_ASCII_005E
PUBLIC	_acGUI_Font20F_ASCII_005F
PUBLIC	_acGUI_Font20F_ASCII_0060
PUBLIC	_acGUI_Font20F_ASCII_0061
PUBLIC	_acGUI_Font20F_ASCII_0062
PUBLIC	_acGUI_Font20F_ASCII_0063
PUBLIC	_acGUI_Font20F_ASCII_0064
PUBLIC	_acGUI_Font20F_ASCII_0065
PUBLIC	_acGUI_Font20F_ASCII_0066
PUBLIC	_acGUI_Font20F_ASCII_0067
PUBLIC	_acGUI_Font20F_ASCII_0068
PUBLIC	_acGUI_Font20F_ASCII_0069
PUBLIC	_acGUI_Font20F_ASCII_006A
PUBLIC	_acGUI_Font20F_ASCII_006B
PUBLIC	_acGUI_Font20F_ASCII_006C
PUBLIC	_acGUI_Font20F_ASCII_006D
PUBLIC	_acGUI_Font20F_ASCII_006E
PUBLIC	_acGUI_Font20F_ASCII_006F
PUBLIC	_acGUI_Font20F_ASCII_0070
PUBLIC	_acGUI_Font20F_ASCII_0071
PUBLIC	_acGUI_Font20F_ASCII_0072
PUBLIC	_acGUI_Font20F_ASCII_0073
PUBLIC	_acGUI_Font20F_ASCII_0074
PUBLIC	_acGUI_Font20F_ASCII_0075
PUBLIC	_acGUI_Font20F_ASCII_0076
PUBLIC	_acGUI_Font20F_ASCII_0077
PUBLIC	_acGUI_Font20F_ASCII_0078
PUBLIC	_acGUI_Font20F_ASCII_0079
PUBLIC	_acGUI_Font20F_ASCII_007A
PUBLIC	_acGUI_Font20F_ASCII_007B
PUBLIC	_acGUI_Font20F_ASCII_007C
PUBLIC	_acGUI_Font20F_ASCII_007D
PUBLIC	_acGUI_Font20F_ASCII_007E
PUBLIC	_GUI_Font20F_ASCII_CharInfo
PUBLIC	_GUI_Font20F_ASCII_Prop1
PUBLIC	_GUI_Font20F_ASCII
EXTRN	_GUIPROP_FRM_IsInFont:PROC
EXTRN	_GUIPROP_FRM_GetFontInfo:PROC
EXTRN	_GUIPROP_FRM_GetCharDistX:PROC
EXTRN	_GUIPROP_FRM_DispChar:PROC
CONST	SEGMENT
_acGUI_Font20F_ASCII_0020 DB 00H
	DB	00H
	DB	00H
	DB	00H
	DB	00H
	DB	00H
	ORG $+2
_acGUI_Font20F_ASCII_0021 DB 00H
	DB	040H
	DB	040H
	DB	040H
	DB	040H
	DB	040H
	DB	040H
	DB	040H
	DB	040H
	DB	040H
	DB	040H
	DB	00H
	DB	040H
	DB	00H
	DB	040H
	DB	0a0H
	DB	0a0H
	DB	0a0H
	DB	0a0H
	DB	0a0H
	DB	0a0H
	DB	0a0H
	DB	0a0H
	DB	0a0H
	DB	0a0H
	DB	040H
	DB	0a0H
	DB	040H
_acGUI_Font20F_ASCII_0022 DB 00H
	DB	048H
	DB	048H
	DB	048H
	DB	048H
	DB	00H
	DB	048H
	DB	0b4H
	DB	0b4H
	DB	0b4H
	DB	0b4H
	DB	048H
_acGUI_Font20F_ASCII_0023 DB 00H
	DB	00H
	DB	08H
	DB	080H
	DB	08H
	DB	080H
	DB	08H
	DB	080H
	DB	011H
	DB	00H
	DB	07fH
	DB	0c0H
	DB	011H
	DB	00H
	DB	011H
	DB	00H
	DB	011H
	DB	00H
	DB	07fH
	DB	0c0H
	DB	022H
	DB	00H
	DB	022H
	DB	00H
	DB	022H
	DB	00H
	DB	00H
	DB	00H
	DB	08H
	DB	080H
	DB	015H
	DB	040H
	DB	015H
	DB	040H
	DB	015H
	DB	040H
	DB	06eH
	DB	0c0H
	DB	080H
	DB	020H
	DB	06eH
	DB	0c0H
	DB	02aH
	DB	080H
	DB	06eH
	DB	0c0H
	DB	080H
	DB	020H
	DB	05dH
	DB	0c0H
	DB	055H
	DB	00H
	DB	055H
	DB	00H
	DB	022H
	DB	00H
_acGUI_Font20F_ASCII_0024 DB 00H
	DB	00H
	DB	08H
	DB	00H
	DB	01eH
	DB	00H
	DB	029H
	DB	00H
	DB	049H
	DB	00H
	DB	048H
	DB	00H
	DB	048H
	DB	00H
	DB	038H
	DB	00H
	DB	0eH
	DB	00H
	DB	09H
	DB	00H
	DB	09H
	DB	00H
	DB	049H
	DB	00H
	DB	02aH
	DB	00H
	DB	01cH
	DB	00H
	DB	08H
	DB	00H
	DB	00H
	DB	00H
	DB	08H
	DB	00H
	DB	016H
	DB	00H
	DB	021H
	DB	00H
	DB	056H
	DB	080H
	DB	0b6H
	DB	080H
	DB	0b5H
	DB	00H
	DB	0b4H
	DB	00H
	DB	046H
	DB	00H
	DB	031H
	DB	00H
	DB	016H
	DB	080H
	DB	056H
	DB	080H
	DB	0b6H
	DB	080H
	DB	055H
	DB	00H
	DB	022H
	DB	00H
	DB	014H
	DB	00H
	DB	08H
	DB	00H
_acGUI_Font20F_ASCII_0025 DB 00H
	DB	00H
	DB	038H
	DB	040H
	DB	044H
	DB	080H
	DB	044H
	DB	080H
	DB	045H
	DB	00H
	DB	045H
	DB	00H
	DB	039H
	DB	00H
	DB	02H
	DB	070H
	DB	02H
	DB	088H
	DB	04H
	DB	088H
	DB	04H
	DB	088H
	DB	08H
	DB	088H
	DB	08H
	DB	070H
	DB	00H
	DB	00H
	DB	038H
	DB	040H
	DB	044H
	DB	0a0H
	DB	0bbH
	DB	040H
	DB	0abH
	DB	040H
	DB	0aaH
	DB	080H
	DB	0baH
	DB	080H
	DB	046H
	DB	0f0H
	DB	03dH
	DB	088H
	DB	05H
	DB	074H
	DB	0bH
	DB	054H
	DB	0bH
	DB	054H
	DB	015H
	DB	074H
	DB	014H
	DB	088H
	DB	08H
	DB	070H
_acGUI_Font20F_ASCII_0026 DB 00H
	DB	00H
	DB	01cH
	DB	00H
	DB	022H
	DB	00H
	DB	022H
	DB	00H
	DB	022H
	DB	00H
	DB	014H
	DB	00H
	DB	018H
	DB	00H
	DB	028H
	DB	00H
	DB	044H
	DB	040H
	DB	042H
	DB	080H
	DB	041H
	DB	00H
	DB	022H
	DB	080H
	DB	01cH
	DB	040H
	DB	00H
	DB	00H
	DB	01cH
	DB	00H
	DB	022H
	DB	00H
	DB	05dH
	DB	00H
	DB	055H
	DB	00H
	DB	055H
	DB	00H
	DB	02aH
	DB	00H
	DB	024H
	DB	00H
	DB	054H
	DB	040H
	DB	0aaH
	DB	0a0H
	DB	0a5H
	DB	040H
	DB	0a2H
	DB	080H
	DB	05dH
	DB	040H
	DB	022H
	DB	0a0H
	DB	01cH
	DB	040H
_acGUI_Font20F_ASCII_0027 DB 00H
	DB	040H
	DB	040H
	DB	040H
	DB	040H
	DB	00H
	DB	040H
	DB	0a0H
	DB	0a0H
	DB	0a0H
	DB	0a0H
	DB	040H
_acGUI_Font20F_ASCII_0028 DB 00H
	DB	010H
	DB	020H
	DB	020H
	DB	020H
	DB	040H
	DB	040H
	DB	040H
	DB	040H
	DB	040H
	DB	040H
	DB	040H
	DB	020H
	DB	020H
	DB	020H
	DB	010H
	DB	00H
	DB	010H
	DB	028H
	DB	050H
	DB	050H
	DB	050H
	DB	0a0H
	DB	0a0H
	DB	0a0H
	DB	0a0H
	DB	0a0H
	DB	0a0H
	DB	0a0H
	DB	050H
	DB	050H
	DB	050H
	DB	028H
	DB	010H
	ORG $+2
_acGUI_Font20F_ASCII_0029 DB 00H
	DB	040H
	DB	020H
	DB	020H
	DB	020H
	DB	010H
	DB	010H
	DB	010H
	DB	010H
	DB	010H
	DB	010H
	DB	010H
	DB	020H
	DB	020H
	DB	020H
	DB	040H
	DB	00H
	DB	040H
	DB	0a0H
	DB	050H
	DB	050H
	DB	050H
	DB	028H
	DB	028H
	DB	028H
	DB	028H
	DB	028H
	DB	028H
	DB	028H
	DB	050H
	DB	050H
	DB	050H
	DB	0a0H
	DB	040H
	ORG $+2
_acGUI_Font20F_ASCII_002A DB 00H
	DB	010H
	DB	07cH
	DB	010H
	DB	028H
	DB	028H
	DB	00H
	DB	010H
	DB	06cH
	DB	082H
	DB	06cH
	DB	054H
	DB	054H
	DB	028H
	ORG $+2
_acGUI_Font20F_ASCII_002B DB 00H
	DB	00H
	DB	08H
	DB	00H
	DB	08H
	DB	00H
	DB	08H
	DB	00H
	DB	07fH
	DB	00H
	DB	08H
	DB	00H
	DB	08H
	DB	00H
	DB	08H
	DB	00H
	DB	00H
	DB	00H
	DB	08H
	DB	00H
	DB	014H
	DB	00H
	DB	014H
	DB	00H
	DB	077H
	DB	00H
	DB	080H
	DB	080H
	DB	077H
	DB	00H
	DB	014H
	DB	00H
	DB	014H
	DB	00H
	DB	08H
	DB	00H
_acGUI_Font20F_ASCII_002C DB 00H
	DB	040H
	DB	040H
	DB	040H
	DB	00H
	DB	00H
	DB	040H
	DB	0a0H
	DB	0a0H
	DB	0a0H
	DB	040H
	DB	00H
_acGUI_Font20F_ASCII_002D DB 00H
	DB	078H
	DB	00H
	DB	078H
	DB	084H
	DB	078H
	ORG $+2
_acGUI_Font20F_ASCII_002E DB 00H
	DB	040H
	DB	00H
	DB	040H
	DB	0a0H
	DB	040H
	ORG $+2
_acGUI_Font20F_ASCII_002F DB 00H
	DB	08H
	DB	08H
	DB	010H
	DB	010H
	DB	010H
	DB	010H
	DB	020H
	DB	020H
	DB	020H
	DB	020H
	DB	040H
	DB	040H
	DB	00H
	DB	08H
	DB	014H
	DB	014H
	DB	028H
	DB	028H
	DB	028H
	DB	028H
	DB	050H
	DB	050H
	DB	050H
	DB	050H
	DB	0a0H
	DB	0a0H
	DB	040H
_acGUI_Font20F_ASCII_0030 DB 00H
	DB	00H
	DB	01cH
	DB	00H
	DB	022H
	DB	00H
	DB	041H
	DB	00H
	DB	041H
	DB	00H
	DB	041H
	DB	00H
	DB	041H
	DB	00H
	DB	041H
	DB	00H
	DB	041H
	DB	00H
	DB	041H
	DB	00H
	DB	041H
	DB	00H
	DB	022H
	DB	00H
	DB	01cH
	DB	00H
	DB	00H
	DB	00H
	DB	01cH
	DB	00H
	DB	022H
	DB	00H
	DB	05dH
	DB	00H
	DB	0a2H
	DB	080H
	DB	0a2H
	DB	080H
	DB	0a2H
	DB	080H
	DB	0a2H
	DB	080H
	DB	0a2H
	DB	080H
	DB	0a2H
	DB	080H
	DB	0a2H
	DB	080H
	DB	0a2H
	DB	080H
	DB	05dH
	DB	00H
	DB	022H
	DB	00H
	DB	01cH
	DB	00H
_acGUI_Font20F_ASCII_0031 DB 00H
	DB	08H
	DB	018H
	DB	028H
	DB	048H
	DB	08H
	DB	08H
	DB	08H
	DB	08H
	DB	08H
	DB	08H
	DB	08H
	DB	08H
	DB	00H
	DB	08H
	DB	014H
	DB	024H
	DB	054H
	DB	0b4H
	DB	054H
	DB	014H
	DB	014H
	DB	014H
	DB	014H
	DB	014H
	DB	014H
	DB	014H
	DB	08H
_acGUI_Font20F_ASCII_0032 DB 00H
	DB	00H
	DB	01eH
	DB	00H
	DB	022H
	DB	00H
	DB	041H
	DB	00H
	DB	01H
	DB	00H
	DB	01H
	DB	00H
	DB	02H
	DB	00H
	DB	02H
	DB	00H
	DB	04H
	DB	00H
	DB	08H
	DB	00H
	DB	010H
	DB	00H
	DB	020H
	DB	00H
	DB	07fH
	DB	00H
	DB	00H
	DB	00H
	DB	01eH
	DB	00H
	DB	021H
	DB	00H
	DB	05dH
	DB	00H
	DB	0a2H
	DB	080H
	DB	042H
	DB	080H
	DB	02H
	DB	080H
	DB	05H
	DB	00H
	DB	05H
	DB	00H
	DB	0aH
	DB	00H
	DB	014H
	DB	00H
	DB	028H
	DB	00H
	DB	05fH
	DB	00H
	DB	080H
	DB	080H
	DB	07fH
	DB	00H
_acGUI_Font20F_ASCII_0033 DB 00H
	DB	00H
	DB	01cH
	DB	00H
	DB	022H
	DB	00H
	DB	042H
	DB	00H
	DB	02H
	DB	00H
	DB	06H
	DB	00H
	DB	01cH
	DB	00H
	DB	02H
	DB	00H
	DB	01H
	DB	00H
	DB	01H
	DB	00H
	DB	041H
	DB	00H
	DB	062H
	DB	00H
	DB	01cH
	DB	00H
	DB	00H
	DB	00H
	DB	01cH
	DB	00H
	DB	022H
	DB	00H
	DB	05dH
	DB	00H
	DB	0a5H
	DB	00H
	DB	045H
	DB	00H
	DB	019H
	DB	00H
	DB	022H
	DB	00H
	DB	01dH
	DB	00H
	DB	02H
	DB	080H
	DB	042H
	DB	080H
	DB	0a2H
	DB	080H
	DB	09dH
	DB	00H
	DB	062H
	DB	00H
	DB	01cH
	DB	00H
_acGUI_Font20F_ASCII_0034 DB 00H
	DB	00H
	DB	01H
	DB	00H
	DB	03H
	DB	00H
	DB	05H
	DB	00H
	DB	09H
	DB	00H
	DB	09H
	DB	00H
	DB	011H
	DB	00H
	DB	021H
	DB	00H
	DB	041H
	DB	00H
	DB	07fH
	DB	080H
	DB	01H
	DB	00H
	DB	01H
	DB	00H
	DB	01H
	DB	00H
	DB	00H
	DB	00H
	DB	01H
	DB	00H
	DB	02H
	DB	080H
	DB	04H
	DB	080H
	DB	0aH
	DB	080H
	DB	016H
	DB	080H
	DB	016H
	DB	080H
	DB	02aH
	DB	080H
	DB	052H
	DB	080H
	DB	0beH
	DB	080H
	DB	080H
	DB	040H
	DB	07eH
	DB	080H
	DB	02H
	DB	080H
	DB	02H
	DB	080H
	DB	01H
	DB	00H
_acGUI_Font20F_ASCII_0035 DB 00H
	DB	00H
	DB	03fH
	DB	00H
	DB	020H
	DB	00H
	DB	020H
	DB	00H
	DB	040H
	DB	00H
	DB	07cH
	DB	00H
	DB	042H
	DB	00H
	DB	01H
	DB	00H
	DB	01H
	DB	00H
	DB	01H
	DB	00H
	DB	041H
	DB	00H
	DB	022H
	DB	00H
	DB	01cH
	DB	00H
	DB	00H
	DB	00H
	DB	03fH
	DB	00H
	DB	040H
	DB	080H
	DB	05fH
	DB	00H
	DB	050H
	DB	00H
	DB	0bcH
	DB	00H
	DB	082H
	DB	00H
	DB	0bdH
	DB	00H
	DB	042H
	DB	080H
	DB	02H
	DB	080H
	DB	042H
	DB	080H
	DB	0a2H
	DB	080H
	DB	05dH
	DB	00H
	DB	022H
	DB	00H
	DB	01cH
	DB	00H
_acGUI_Font20F_ASCII_0036 DB 00H
	DB	00H
	DB	01cH
	DB	00H
	DB	022H
	DB	00H
	DB	041H
	DB	00H
	DB	040H
	DB	00H
	DB	05cH
	DB	00H
	DB	062H
	DB	00H
	DB	041H
	DB	00H
	DB	041H
	DB	00H
	DB	041H
	DB	00H
	DB	041H
	DB	00H
	DB	022H
	DB	00H
	DB	01cH
	DB	00H
	DB	00H
	DB	00H
	DB	01cH
	DB	00H
	DB	022H
	DB	00H
	DB	05dH
	DB	00H
	DB	0a2H
	DB	080H
	DB	0bdH
	DB	00H
	DB	0a2H
	DB	00H
	DB	09dH
	DB	00H
	DB	0a2H
	DB	080H
	DB	0a2H
	DB	080H
	DB	0a2H
	DB	080H
	DB	0a2H
	DB	080H
	DB	05dH
	DB	00H
	DB	022H
	DB	00H
	DB	01cH
	DB	00H
_acGUI_Font20F_ASCII_0037 DB 00H
	DB	00H
	DB	07fH
	DB	00H
	DB	02H
	DB	00H
	DB	02H
	DB	00H
	DB	04H
	DB	00H
	DB	04H
	DB	00H
	DB	08H
	DB	00H
	DB	08H
	DB	00H
	DB	08H
	DB	00H
	DB	08H
	DB	00H
	DB	010H
	DB	00H
	DB	010H
	DB	00H
	DB	010H
	DB	00H
	DB	00H
	DB	00H
	DB	07fH
	DB	00H
	DB	080H
	DB	080H
	DB	07dH
	DB	00H
	DB	05H
	DB	00H
	DB	0aH
	DB	00H
	DB	0aH
	DB	00H
	DB	014H
	DB	00H
	DB	014H
	DB	00H
	DB	014H
	DB	00H
	DB	014H
	DB	00H
	DB	028H
	DB	00H
	DB	028H
	DB	00H
	DB	028H
	DB	00H
	DB	010H
	DB	00H
_acGUI_Font20F_ASCII_0038 DB 00H
	DB	00H
	DB	01cH
	DB	00H
	DB	022H
	DB	00H
	DB	041H
	DB	00H
	DB	041H
	DB	00H
	DB	022H
	DB	00H
	DB	01cH
	DB	00H
	DB	022H
	DB	00H
	DB	041H
	DB	00H
	DB	041H
	DB	00H
	DB	041H
	DB	00H
	DB	022H
	DB	00H
	DB	01cH
	DB	00H
	DB	00H
	DB	00H
	DB	01cH
	DB	00H
	DB	022H
	DB	00H
	DB	05dH
	DB	00H
	DB	0a2H
	DB	080H
	DB	0a2H
	DB	080H
	DB	05dH
	DB	00H
	DB	022H
	DB	00H
	DB	05dH
	DB	00H
	DB	0a2H
	DB	080H
	DB	0a2H
	DB	080H
	DB	0a2H
	DB	080H
	DB	05dH
	DB	00H
	DB	022H
	DB	00H
	DB	01cH
	DB	00H
_acGUI_Font20F_ASCII_0039 DB 00H
	DB	00H
	DB	01cH
	DB	00H
	DB	022H
	DB	00H
	DB	041H
	DB	00H
	DB	041H
	DB	00H
	DB	041H
	DB	00H
	DB	041H
	DB	00H
	DB	023H
	DB	00H
	DB	01dH
	DB	00H
	DB	01H
	DB	00H
	DB	041H
	DB	00H
	DB	022H
	DB	00H
	DB	01cH
	DB	00H
	DB	00H
	DB	00H
	DB	01cH
	DB	00H
	DB	022H
	DB	00H
	DB	05dH
	DB	00H
	DB	0a2H
	DB	080H
	DB	0a2H
	DB	080H
	DB	0a2H
	DB	080H
	DB	0a2H
	DB	080H
	DB	05cH
	DB	080H
	DB	022H
	DB	080H
	DB	05eH
	DB	080H
	DB	0a2H
	DB	080H
	DB	05dH
	DB	00H
	DB	022H
	DB	00H
	DB	01cH
	DB	00H
_acGUI_Font20F_ASCII_003A DB 00H
	DB	040H
	DB	00H
	DB	00H
	DB	00H
	DB	00H
	DB	00H
	DB	00H
	DB	00H
	DB	040H
	DB	00H
	DB	040H
	DB	0a0H
	DB	040H
	DB	00H
	DB	00H
	DB	00H
	DB	00H
	DB	00H
	DB	040H
	DB	0a0H
	DB	040H
	ORG $+2
_acGUI_Font20F_ASCII_003B DB 00H
	DB	040H
	DB	00H
	DB	00H
	DB	00H
	DB	00H
	DB	00H
	DB	00H
	DB	00H
	DB	040H
	DB	040H
	DB	040H
	DB	00H
	DB	00H
	DB	040H
	DB	0a0H
	DB	040H
	DB	00H
	DB	00H
	DB	00H
	DB	00H
	DB	00H
	DB	040H
	DB	0a0H
	DB	0a0H
	DB	0a0H
	DB	040H
	DB	00H
_acGUI_Font20F_ASCII_003C DB 00H
	DB	00H
	DB	01H
	DB	00H
	DB	0eH
	DB	00H
	DB	030H
	DB	00H
	DB	040H
	DB	00H
	DB	030H
	DB	00H
	DB	0eH
	DB	00H
	DB	01H
	DB	00H
	DB	00H
	DB	00H
	DB	01H
	DB	00H
	DB	0eH
	DB	080H
	DB	031H
	DB	00H
	DB	04eH
	DB	00H
	DB	0b0H
	DB	00H
	DB	04eH
	DB	00H
	DB	031H
	DB	00H
	DB	0eH
	DB	080H
	DB	01H
	DB	00H
_acGUI_Font20F_ASCII_003D DB 00H
	DB	00H
	DB	07fH
	DB	00H
	DB	00H
	DB	00H
	DB	00H
	DB	00H
	DB	00H
	DB	00H
	DB	07fH
	DB	00H
	DB	00H
	DB	00H
	DB	07fH
	DB	00H
	DB	080H
	DB	080H
	DB	07fH
	DB	00H
	DB	00H
	DB	00H
	DB	07fH
	DB	00H
	DB	080H
	DB	080H
	DB	07fH
	DB	00H
_acGUI_Font20F_ASCII_003E DB 00H
	DB	00H
	DB	040H
	DB	00H
	DB	038H
	DB	00H
	DB	06H
	DB	00H
	DB	01H
	DB	00H
	DB	06H
	DB	00H
	DB	038H
	DB	00H
	DB	040H
	DB	00H
	DB	00H
	DB	00H
	DB	040H
	DB	00H
	DB	0b8H
	DB	00H
	DB	046H
	DB	00H
	DB	039H
	DB	00H
	DB	06H
	DB	080H
	DB	039H
	DB	00H
	DB	046H
	DB	00H
	DB	0b8H
	DB	00H
	DB	040H
	DB	00H
_acGUI_Font20F_ASCII_003F DB 00H
	DB	00H
	DB	01cH
	DB	00H
	DB	022H
	DB	00H
	DB	041H
	DB	00H
	DB	041H
	DB	00H
	DB	01H
	DB	00H
	DB	02H
	DB	00H
	DB	04H
	DB	00H
	DB	08H
	DB	00H
	DB	08H
	DB	00H
	DB	08H
	DB	00H
	DB	00H
	DB	00H
	DB	08H
	DB	00H
	DB	00H
	DB	00H
	DB	01cH
	DB	00H
	DB	022H
	DB	00H
	DB	05dH
	DB	00H
	DB	0a2H
	DB	080H
	DB	0a2H
	DB	080H
	DB	042H
	DB	080H
	DB	05H
	DB	00H
	DB	0aH
	DB	00H
	DB	014H
	DB	00H
	DB	014H
	DB	00H
	DB	014H
	DB	00H
	DB	08H
	DB	00H
	DB	014H
	DB	00H
	DB	08H
	DB	00H
	ORG $+4
_acGUI_Font20F_ASCII_0040 DB 00H
	DB	00H
	DB	00H
	DB	03H
	DB	0f0H
	DB	00H
	DB	0cH
	DB	0cH
	DB	00H
	DB	010H
	DB	02H
	DB	00H
	DB	021H
	DB	0d2H
	DB	00H
	DB	022H
	DB	031H
	DB	00H
	DB	044H
	DB	011H
	DB	00H
	DB	048H
	DB	011H
	DB	00H
	DB	048H
	DB	021H
	DB	00H
	DB	048H
	DB	021H
	DB	00H
	DB	048H
	DB	022H
	DB	00H
	DB	044H
	DB	064H
	DB	00H
	DB	023H
	DB	0b8H
	DB	00H
	DB	010H
	DB	01H
	DB	00H
	DB	0cH
	DB	06H
	DB	00H
	DB	03H
	DB	0f8H
	DB	00H
	DB	00H
	DB	00H
	DB	00H
	DB	03H
	DB	0f0H
	DB	00H
	DB	0cH
	DB	0cH
	DB	00H
	DB	013H
	DB	0f2H
	DB	00H
	DB	02dH
	DB	0ddH
	DB	00H
	DB	052H
	DB	02dH
	DB	00H
	DB	055H
	DB	0caH
	DB	080H
	DB	0aaH
	DB	02aH
	DB	080H
	DB	0b4H
	DB	02aH
	DB	080H
	DB	0b4H
	DB	052H
	DB	080H
	DB	0b4H
	DB	052H
	DB	080H
	DB	0b4H
	DB	055H
	DB	00H
	DB	0abH
	DB	09aH
	DB	00H
	DB	054H
	DB	045H
	DB	00H
	DB	02fH
	DB	0beH
	DB	080H
	DB	013H
	DB	0f9H
	DB	00H
	DB	0cH
	DB	06H
	DB	00H
	DB	03H
	DB	0f8H
	DB	00H
	ORG $+2
_acGUI_Font20F_ASCII_0041 DB 00H
	DB	00H
	DB	04H
	DB	00H
	DB	0aH
	DB	00H
	DB	0aH
	DB	00H
	DB	0aH
	DB	00H
	DB	011H
	DB	00H
	DB	011H
	DB	00H
	DB	011H
	DB	00H
	DB	03fH
	DB	080H
	DB	020H
	DB	080H
	DB	020H
	DB	080H
	DB	040H
	DB	040H
	DB	040H
	DB	040H
	DB	00H
	DB	00H
	DB	04H
	DB	00H
	DB	0aH
	DB	00H
	DB	015H
	DB	00H
	DB	015H
	DB	00H
	DB	015H
	DB	00H
	DB	02aH
	DB	080H
	DB	02aH
	DB	080H
	DB	02eH
	DB	080H
	DB	040H
	DB	040H
	DB	05fH
	DB	040H
	DB	051H
	DB	040H
	DB	0a0H
	DB	0a0H
	DB	0a0H
	DB	0a0H
	DB	040H
	DB	040H
_acGUI_Font20F_ASCII_0042 DB 00H
	DB	00H
	DB	07fH
	DB	080H
	DB	040H
	DB	080H
	DB	040H
	DB	040H
	DB	040H
	DB	040H
	DB	040H
	DB	080H
	DB	07fH
	DB	00H
	DB	040H
	DB	080H
	DB	040H
	DB	040H
	DB	040H
	DB	040H
	DB	040H
	DB	040H
	DB	040H
	DB	080H
	DB	07fH
	DB	00H
	DB	00H
	DB	00H
	DB	07fH
	DB	080H
	DB	080H
	DB	040H
	DB	0bfH
	DB	040H
	DB	0a0H
	DB	0a0H
	DB	0a0H
	DB	0a0H
	DB	0bfH
	DB	040H
	DB	080H
	DB	080H
	DB	0bfH
	DB	040H
	DB	0a0H
	DB	0a0H
	DB	0a0H
	DB	0a0H
	DB	0a0H
	DB	0a0H
	DB	0bfH
	DB	040H
	DB	080H
	DB	080H
	DB	07fH
	DB	00H
_acGUI_Font20F_ASCII_0043 DB 00H
	DB	00H
	DB	0fH
	DB	080H
	DB	010H
	DB	040H
	DB	020H
	DB	020H
	DB	040H
	DB	00H
	DB	040H
	DB	00H
	DB	040H
	DB	00H
	DB	040H
	DB	00H
	DB	040H
	DB	00H
	DB	040H
	DB	00H
	DB	020H
	DB	020H
	DB	010H
	DB	040H
	DB	0fH
	DB	080H
	DB	00H
	DB	00H
	DB	0fH
	DB	080H
	DB	010H
	DB	040H
	DB	02fH
	DB	0a0H
	DB	050H
	DB	050H
	DB	0a0H
	DB	020H
	DB	0a0H
	DB	00H
	DB	0a0H
	DB	00H
	DB	0a0H
	DB	00H
	DB	0a0H
	DB	00H
	DB	0a0H
	DB	020H
	DB	050H
	DB	050H
	DB	02fH
	DB	0a0H
	DB	010H
	DB	040H
	DB	0fH
	DB	080H
_acGUI_Font20F_ASCII_0044 DB 00H
	DB	00H
	DB	07fH
	DB	00H
	DB	040H
	DB	080H
	DB	040H
	DB	040H
	DB	040H
	DB	020H
	DB	040H
	DB	020H
	DB	040H
	DB	020H
	DB	040H
	DB	020H
	DB	040H
	DB	020H
	DB	040H
	DB	020H
	DB	040H
	DB	040H
	DB	040H
	DB	080H
	DB	07fH
	DB	00H
	DB	00H
	DB	00H
	DB	07fH
	DB	00H
	DB	080H
	DB	080H
	DB	0bfH
	DB	040H
	DB	0a0H
	DB	0a0H
	DB	0a0H
	DB	050H
	DB	0a0H
	DB	050H
	DB	0a0H
	DB	050H
	DB	0a0H
	DB	050H
	DB	0a0H
	DB	050H
	DB	0a0H
	DB	050H
	DB	0a0H
	DB	0a0H
	DB	0bfH
	DB	040H
	DB	080H
	DB	080H
	DB	07fH
	DB	00H
_acGUI_Font20F_ASCII_0045 DB 00H
	DB	00H
	DB	07fH
	DB	0c0H
	DB	040H
	DB	00H
	DB	040H
	DB	00H
	DB	040H
	DB	00H
	DB	040H
	DB	00H
	DB	07fH
	DB	080H
	DB	040H
	DB	00H
	DB	040H
	DB	00H
	DB	040H
	DB	00H
	DB	040H
	DB	00H
	DB	040H
	DB	00H
	DB	07fH
	DB	0c0H
	DB	00H
	DB	00H
	DB	07fH
	DB	0c0H
	DB	080H
	DB	020H
	DB	0bfH
	DB	0c0H
	DB	0a0H
	DB	00H
	DB	0a0H
	DB	00H
	DB	0bfH
	DB	080H
	DB	080H
	DB	040H
	DB	0bfH
	DB	080H
	DB	0a0H
	DB	00H
	DB	0a0H
	DB	00H
	DB	0a0H
	DB	00H
	DB	0bfH
	DB	0c0H
	DB	080H
	DB	020H
	DB	07fH
	DB	0c0H
_acGUI_Font20F_ASCII_0046 DB 00H
	DB	00H
	DB	07fH
	DB	080H
	DB	040H
	DB	00H
	DB	040H
	DB	00H
	DB	040H
	DB	00H
	DB	040H
	DB	00H
	DB	040H
	DB	00H
	DB	07fH
	DB	00H
	DB	040H
	DB	00H
	DB	040H
	DB	00H
	DB	040H
	DB	00H
	DB	040H
	DB	00H
	DB	040H
	DB	00H
	DB	00H
	DB	00H
	DB	07fH
	DB	080H
	DB	080H
	DB	040H
	DB	0bfH
	DB	080H
	DB	0a0H
	DB	00H
	DB	0a0H
	DB	00H
	DB	0a0H
	DB	00H
	DB	0bfH
	DB	00H
	DB	080H
	DB	080H
	DB	0bfH
	DB	00H
	DB	0a0H
	DB	00H
	DB	0a0H
	DB	00H
	DB	0a0H
	DB	00H
	DB	0a0H
	DB	00H
	DB	040H
	DB	00H
_acGUI_Font20F_ASCII_0047 DB 00H
	DB	00H
	DB	0fH
	DB	00H
	DB	010H
	DB	080H
	DB	020H
	DB	040H
	DB	040H
	DB	00H
	DB	040H
	DB	00H
	DB	040H
	DB	00H
	DB	043H
	DB	0e0H
	DB	040H
	DB	020H
	DB	040H
	DB	020H
	DB	020H
	DB	040H
	DB	010H
	DB	080H
	DB	0fH
	DB	00H
	DB	00H
	DB	00H
	DB	0fH
	DB	00H
	DB	010H
	DB	080H
	DB	02fH
	DB	040H
	DB	050H
	DB	0a0H
	DB	0a0H
	DB	040H
	DB	0a0H
	DB	00H
	DB	0a3H
	DB	0e0H
	DB	0a4H
	DB	010H
	DB	0a3H
	DB	0d0H
	DB	0a0H
	DB	050H
	DB	050H
	DB	0a0H
	DB	02fH
	DB	040H
	DB	010H
	DB	080H
	DB	0fH
	DB	00H
_acGUI_Font20F_ASCII_0048 DB 00H
	DB	00H
	DB	040H
	DB	040H
	DB	040H
	DB	040H
	DB	040H
	DB	040H
	DB	040H
	DB	040H
	DB	040H
	DB	040H
	DB	07fH
	DB	0c0H
	DB	040H
	DB	040H
	DB	040H
	DB	040H
	DB	040H
	DB	040H
	DB	040H
	DB	040H
	DB	040H
	DB	040H
	DB	040H
	DB	040H
	DB	00H
	DB	00H
	DB	040H
	DB	040H
	DB	0a0H
	DB	0a0H
	DB	0a0H
	DB	0a0H
	DB	0a0H
	DB	0a0H
	DB	0a0H
	DB	0a0H
	DB	0bfH
	DB	0a0H
	DB	080H
	DB	020H
	DB	0bfH
	DB	0a0H
	DB	0a0H
	DB	0a0H
	DB	0a0H
	DB	0a0H
	DB	0a0H
	DB	0a0H
	DB	0a0H
	DB	0a0H
	DB	0a0H
	DB	0a0H
	DB	040H
	DB	040H
_acGUI_Font20F_ASCII_0049 DB 00H
	DB	040H
	DB	040H
	DB	040H
	DB	040H
	DB	040H
	DB	040H
	DB	040H
	DB	040H
	DB	040H
	DB	040H
	DB	040H
	DB	040H
	DB	00H
	DB	040H
	DB	0a0H
	DB	0a0H
	DB	0a0H
	DB	0a0H
	DB	0a0H
	DB	0a0H
	DB	0a0H
	DB	0a0H
	DB	0a0H
	DB	0a0H
	DB	0a0H
	DB	0a0H
	DB	040H
_acGUI_Font20F_ASCII_004A DB 00H
	DB	02H
	DB	02H
	DB	02H
	DB	02H
	DB	02H
	DB	02H
	DB	02H
	DB	02H
	DB	042H
	DB	042H
	DB	042H
	DB	03cH
	DB	00H
	DB	02H
	DB	05H
	DB	05H
	DB	05H
	DB	05H
	DB	05H
	DB	05H
	DB	05H
	DB	045H
	DB	0a5H
	DB	0a5H
	DB	0bdH
	DB	042H
	DB	03cH
_acGUI_Font20F_ASCII_004B DB 00H
	DB	00H
	DB	040H
	DB	040H
	DB	040H
	DB	080H
	DB	041H
	DB	00H
	DB	042H
	DB	00H
	DB	044H
	DB	00H
	DB	04cH
	DB	00H
	DB	054H
	DB	00H
	DB	062H
	DB	00H
	DB	041H
	DB	00H
	DB	041H
	DB	00H
	DB	040H
	DB	080H
	DB	040H
	DB	040H
	DB	00H
	DB	00H
	DB	040H
	DB	040H
	DB	0a0H
	DB	0a0H
	DB	0a1H
	DB	040H
	DB	0a2H
	DB	080H
	DB	0a5H
	DB	00H
	DB	0aaH
	DB	00H
	DB	0b2H
	DB	00H
	DB	0aaH
	DB	00H
	DB	095H
	DB	00H
	DB	0a2H
	DB	080H
	DB	0a2H
	DB	080H
	DB	0a1H
	DB	040H
	DB	0a0H
	DB	0a0H
	DB	040H
	DB	040H
_acGUI_Font20F_ASCII_004C DB 00H
	DB	00H
	DB	040H
	DB	00H
	DB	040H
	DB	00H
	DB	040H
	DB	00H
	DB	040H
	DB	00H
	DB	040H
	DB	00H
	DB	040H
	DB	00H
	DB	040H
	DB	00H
	DB	040H
	DB	00H
	DB	040H
	DB	00H
	DB	040H
	DB	00H
	DB	040H
	DB	00H
	DB	07fH
	DB	00H
	DB	00H
	DB	00H
	DB	040H
	DB	00H
	DB	0a0H
	DB	00H
	DB	0a0H
	DB	00H
	DB	0a0H
	DB	00H
	DB	0a0H
	DB	00H
	DB	0a0H
	DB	00H
	DB	0a0H
	DB	00H
	DB	0a0H
	DB	00H
	DB	0a0H
	DB	00H
	DB	0a0H
	DB	00H
	DB	0a0H
	DB	00H
	DB	0bfH
	DB	00H
	DB	080H
	DB	080H
	DB	07fH
	DB	00H
_acGUI_Font20F_ASCII_004D DB 00H
	DB	00H
	DB	040H
	DB	010H
	DB	060H
	DB	030H
	DB	060H
	DB	030H
	DB	050H
	DB	050H
	DB	050H
	DB	050H
	DB	048H
	DB	090H
	DB	048H
	DB	090H
	DB	045H
	DB	010H
	DB	045H
	DB	010H
	DB	045H
	DB	010H
	DB	042H
	DB	010H
	DB	042H
	DB	010H
	DB	00H
	DB	00H
	DB	040H
	DB	010H
	DB	0a0H
	DB	028H
	DB	090H
	DB	048H
	DB	090H
	DB	048H
	DB	0a8H
	DB	0a8H
	DB	0a8H
	DB	0a8H
	DB	0b5H
	DB	068H
	DB	0b5H
	DB	068H
	DB	0aaH
	DB	0a8H
	DB	0aaH
	DB	0a8H
	DB	0aaH
	DB	0a8H
	DB	0a5H
	DB	028H
	DB	0a5H
	DB	028H
	DB	042H
	DB	010H
_acGUI_Font20F_ASCII_004E DB 00H
	DB	00H
	DB	040H
	DB	040H
	DB	060H
	DB	040H
	DB	050H
	DB	040H
	DB	050H
	DB	040H
	DB	048H
	DB	040H
	DB	044H
	DB	040H
	DB	044H
	DB	040H
	DB	042H
	DB	040H
	DB	041H
	DB	040H
	DB	041H
	DB	040H
	DB	040H
	DB	0c0H
	DB	040H
	DB	040H
	DB	00H
	DB	00H
	DB	040H
	DB	040H
	DB	0a0H
	DB	0a0H
	DB	090H
	DB	0a0H
	DB	0a8H
	DB	0a0H
	DB	0a8H
	DB	0a0H
	DB	0b4H
	DB	0a0H
	DB	0aaH
	DB	0a0H
	DB	0aaH
	DB	0a0H
	DB	0a5H
	DB	0a0H
	DB	0a2H
	DB	0a0H
	DB	0a2H
	DB	0a0H
	DB	0a1H
	DB	020H
	DB	0a0H
	DB	0a0H
	DB	040H
	DB	040H
_acGUI_Font20F_ASCII_004F DB 00H
	DB	00H
	DB	0fH
	DB	00H
	DB	010H
	DB	080H
	DB	020H
	DB	040H
	DB	040H
	DB	020H
	DB	040H
	DB	020H
	DB	040H
	DB	020H
	DB	040H
	DB	020H
	DB	040H
	DB	020H
	DB	040H
	DB	020H
	DB	020H
	DB	040H
	DB	010H
	DB	080H
	DB	0fH
	DB	00H
	DB	00H
	DB	00H
	DB	0fH
	DB	00H
	DB	010H
	DB	080H
	DB	02fH
	DB	040H
	DB	050H
	DB	0a0H
	DB	0a0H
	DB	050H
	DB	0a0H
	DB	050H
	DB	0a0H
	DB	050H
	DB	0a0H
	DB	050H
	DB	0a0H
	DB	050H
	DB	0a0H
	DB	050H
	DB	050H
	DB	0a0H
	DB	02fH
	DB	040H
	DB	010H
	DB	080H
	DB	0fH
	DB	00H
_acGUI_Font20F_ASCII_0050 DB 00H
	DB	00H
	DB	07fH
	DB	00H
	DB	040H
	DB	080H
	DB	040H
	DB	040H
	DB	040H
	DB	040H
	DB	040H
	DB	040H
	DB	040H
	DB	080H
	DB	07fH
	DB	00H
	DB	040H
	DB	00H
	DB	040H
	DB	00H
	DB	040H
	DB	00H
	DB	040H
	DB	00H
	DB	040H
	DB	00H
	DB	00H
	DB	00H
	DB	07fH
	DB	00H
	DB	080H
	DB	080H
	DB	0bfH
	DB	040H
	DB	0a0H
	DB	0a0H
	DB	0a0H
	DB	0a0H
	DB	0a0H
	DB	0a0H
	DB	0bfH
	DB	040H
	DB	080H
	DB	080H
	DB	0bfH
	DB	00H
	DB	0a0H
	DB	00H
	DB	0a0H
	DB	00H
	DB	0a0H
	DB	00H
	DB	0a0H
	DB	00H
	DB	040H
	DB	00H
_acGUI_Font20F_ASCII_0051 DB 00H
	DB	00H
	DB	0fH
	DB	00H
	DB	010H
	DB	080H
	DB	020H
	DB	040H
	DB	040H
	DB	020H
	DB	040H
	DB	020H
	DB	040H
	DB	020H
	DB	040H
	DB	020H
	DB	040H
	DB	020H
	DB	040H
	DB	020H
	DB	023H
	DB	060H
	DB	010H
	DB	0c0H
	DB	0fH
	DB	060H
	DB	00H
	DB	00H
	DB	0fH
	DB	00H
	DB	010H
	DB	080H
	DB	02fH
	DB	040H
	DB	050H
	DB	0a0H
	DB	0a0H
	DB	050H
	DB	0a0H
	DB	050H
	DB	0a0H
	DB	050H
	DB	0a0H
	DB	050H
	DB	0a0H
	DB	050H
	DB	0a3H
	DB	050H
	DB	054H
	DB	090H
	DB	02fH
	DB	020H
	DB	010H
	DB	090H
	DB	0fH
	DB	060H
_acGUI_Font20F_ASCII_0052 DB 00H
	DB	00H
	DB	07fH
	DB	00H
	DB	040H
	DB	080H
	DB	040H
	DB	040H
	DB	040H
	DB	040H
	DB	040H
	DB	040H
	DB	040H
	DB	080H
	DB	07fH
	DB	00H
	DB	042H
	DB	00H
	DB	041H
	DB	00H
	DB	041H
	DB	00H
	DB	040H
	DB	080H
	DB	040H
	DB	040H
	DB	00H
	DB	00H
	DB	07fH
	DB	00H
	DB	080H
	DB	080H
	DB	0bfH
	DB	040H
	DB	0a0H
	DB	0a0H
	DB	0a0H
	DB	0a0H
	DB	0a0H
	DB	0a0H
	DB	0bfH
	DB	040H
	DB	080H
	DB	080H
	DB	0bdH
	DB	00H
	DB	0a2H
	DB	080H
	DB	0a2H
	DB	080H
	DB	0a1H
	DB	040H
	DB	0a0H
	DB	0a0H
	DB	040H
	DB	040H
_acGUI_Font20F_ASCII_0053 DB 00H
	DB	00H
	DB	01fH
	DB	00H
	DB	020H
	DB	080H
	DB	040H
	DB	040H
	DB	040H
	DB	00H
	DB	020H
	DB	00H
	DB	01cH
	DB	00H
	DB	03H
	DB	080H
	DB	00H
	DB	040H
	DB	00H
	DB	040H
	DB	040H
	DB	040H
	DB	020H
	DB	080H
	DB	01fH
	DB	00H
	DB	00H
	DB	00H
	DB	01fH
	DB	00H
	DB	020H
	DB	080H
	DB	05fH
	DB	040H
	DB	0a0H
	DB	0a0H
	DB	0a0H
	DB	040H
	DB	05cH
	DB	00H
	DB	023H
	DB	080H
	DB	01cH
	DB	040H
	DB	03H
	DB	0a0H
	DB	040H
	DB	0a0H
	DB	0a0H
	DB	0a0H
	DB	05fH
	DB	040H
	DB	020H
	DB	080H
	DB	01fH
	DB	00H
_acGUI_Font20F_ASCII_0054 DB 00H
	DB	00H
	DB	07fH
	DB	0c0H
	DB	04H
	DB	00H
	DB	04H
	DB	00H
	DB	04H
	DB	00H
	DB	04H
	DB	00H
	DB	04H
	DB	00H
	DB	04H
	DB	00H
	DB	04H
	DB	00H
	DB	04H
	DB	00H
	DB	04H
	DB	00H
	DB	04H
	DB	00H
	DB	04H
	DB	00H
	DB	00H
	DB	00H
	DB	07fH
	DB	0c0H
	DB	080H
	DB	020H
	DB	07bH
	DB	0c0H
	DB	0aH
	DB	00H
	DB	0aH
	DB	00H
	DB	0aH
	DB	00H
	DB	0aH
	DB	00H
	DB	0aH
	DB	00H
	DB	0aH
	DB	00H
	DB	0aH
	DB	00H
	DB	0aH
	DB	00H
	DB	0aH
	DB	00H
	DB	0aH
	DB	00H
	DB	04H
	DB	00H
_acGUI_Font20F_ASCII_0055 DB 00H
	DB	00H
	DB	040H
	DB	040H
	DB	040H
	DB	040H
	DB	040H
	DB	040H
	DB	040H
	DB	040H
	DB	040H
	DB	040H
	DB	040H
	DB	040H
	DB	040H
	DB	040H
	DB	040H
	DB	040H
	DB	040H
	DB	040H
	DB	040H
	DB	040H
	DB	020H
	DB	080H
	DB	01fH
	DB	00H
	DB	00H
	DB	00H
	DB	040H
	DB	040H
	DB	0a0H
	DB	0a0H
	DB	0a0H
	DB	0a0H
	DB	0a0H
	DB	0a0H
	DB	0a0H
	DB	0a0H
	DB	0a0H
	DB	0a0H
	DB	0a0H
	DB	0a0H
	DB	0a0H
	DB	0a0H
	DB	0a0H
	DB	0a0H
	DB	0a0H
	DB	0a0H
	DB	0a0H
	DB	0a0H
	DB	05fH
	DB	040H
	DB	020H
	DB	080H
	DB	01fH
	DB	00H
_acGUI_Font20F_ASCII_0056 DB 00H
	DB	00H
	DB	040H
	DB	040H
	DB	040H
	DB	040H
	DB	020H
	DB	080H
	DB	020H
	DB	080H
	DB	020H
	DB	080H
	DB	011H
	DB	00H
	DB	011H
	DB	00H
	DB	011H
	DB	00H
	DB	0aH
	DB	00H
	DB	0aH
	DB	00H
	DB	04H
	DB	00H
	DB	04H
	DB	00H
	DB	00H
	DB	00H
	DB	040H
	DB	040H
	DB	0a0H
	DB	0a0H
	DB	0a0H
	DB	0a0H
	DB	051H
	DB	040H
	DB	051H
	DB	040H
	DB	051H
	DB	040H
	DB	02aH
	DB	080H
	DB	02aH
	DB	080H
	DB	02aH
	DB	080H
	DB	015H
	DB	00H
	DB	015H
	DB	00H
	DB	0aH
	DB	00H
	DB	0aH
	DB	00H
	DB	04H
	DB	00H
_acGUI_Font20F_ASCII_0057 DB 00H
	DB	00H
	DB	00H
	DB	040H
	DB	081H
	DB	00H
	DB	041H
	DB	041H
	DB	00H
	DB	021H
	DB	042H
	DB	00H
	DB	021H
	DB	042H
	DB	00H
	DB	022H
	DB	022H
	DB	00H
	DB	022H
	DB	022H
	DB	00H
	DB	012H
	DB	024H
	DB	00H
	DB	014H
	DB	014H
	DB	00H
	DB	014H
	DB	014H
	DB	00H
	DB	014H
	DB	014H
	DB	00H
	DB	08H
	DB	08H
	DB	00H
	DB	08H
	DB	08H
	DB	00H
	DB	00H
	DB	00H
	DB	00H
	DB	040H
	DB	081H
	DB	00H
	DB	0a1H
	DB	042H
	DB	080H
	DB	0a2H
	DB	0a2H
	DB	080H
	DB	052H
	DB	0a5H
	DB	00H
	DB	052H
	DB	0a5H
	DB	00H
	DB	055H
	DB	055H
	DB	00H
	DB	055H
	DB	055H
	DB	00H
	DB	02dH
	DB	05aH
	DB	00H
	DB	02aH
	DB	02aH
	DB	00H
	DB	02aH
	DB	02aH
	DB	00H
	DB	02aH
	DB	02aH
	DB	00H
	DB	014H
	DB	014H
	DB	00H
	DB	014H
	DB	014H
	DB	00H
	DB	08H
	DB	08H
	DB	00H
_acGUI_Font20F_ASCII_0058 DB 00H
	DB	00H
	DB	020H
	DB	020H
	DB	010H
	DB	040H
	DB	08H
	DB	080H
	DB	08H
	DB	080H
	DB	05H
	DB	00H
	DB	02H
	DB	00H
	DB	05H
	DB	00H
	DB	08H
	DB	080H
	DB	08H
	DB	080H
	DB	010H
	DB	040H
	DB	020H
	DB	020H
	DB	040H
	DB	010H
	DB	00H
	DB	00H
	DB	020H
	DB	020H
	DB	050H
	DB	050H
	DB	028H
	DB	0a0H
	DB	015H
	DB	040H
	DB	015H
	DB	040H
	DB	0aH
	DB	080H
	DB	05H
	DB	00H
	DB	0aH
	DB	080H
	DB	015H
	DB	040H
	DB	015H
	DB	040H
	DB	028H
	DB	0a0H
	DB	050H
	DB	050H
	DB	0a0H
	DB	028H
	DB	040H
	DB	010H
_acGUI_Font20F_ASCII_0059 DB 00H
	DB	00H
	DB	040H
	DB	040H
	DB	020H
	DB	080H
	DB	020H
	DB	080H
	DB	011H
	DB	00H
	DB	0aH
	DB	00H
	DB	0aH
	DB	00H
	DB	04H
	DB	00H
	DB	04H
	DB	00H
	DB	04H
	DB	00H
	DB	04H
	DB	00H
	DB	04H
	DB	00H
	DB	04H
	DB	00H
	DB	00H
	DB	00H
	DB	040H
	DB	040H
	DB	0a0H
	DB	0a0H
	DB	051H
	DB	040H
	DB	051H
	DB	040H
	DB	02aH
	DB	080H
	DB	015H
	DB	00H
	DB	015H
	DB	00H
	DB	0aH
	DB	00H
	DB	0aH
	DB	00H
	DB	0aH
	DB	00H
	DB	0aH
	DB	00H
	DB	0aH
	DB	00H
	DB	0aH
	DB	00H
	DB	04H
	DB	00H
_acGUI_Font20F_ASCII_005A DB 00H
	DB	00H
	DB	03fH
	DB	0c0H
	DB	00H
	DB	080H
	DB	01H
	DB	00H
	DB	01H
	DB	00H
	DB	02H
	DB	00H
	DB	04H
	DB	00H
	DB	04H
	DB	00H
	DB	08H
	DB	00H
	DB	010H
	DB	00H
	DB	010H
	DB	00H
	DB	020H
	DB	00H
	DB	07fH
	DB	0c0H
	DB	00H
	DB	00H
	DB	03fH
	DB	0c0H
	DB	040H
	DB	020H
	DB	03fH
	DB	040H
	DB	02H
	DB	080H
	DB	02H
	DB	080H
	DB	05H
	DB	00H
	DB	0aH
	DB	00H
	DB	0aH
	DB	00H
	DB	014H
	DB	00H
	DB	028H
	DB	00H
	DB	028H
	DB	00H
	DB	05fH
	DB	0c0H
	DB	080H
	DB	020H
	DB	07fH
	DB	0c0H
_acGUI_Font20F_ASCII_005B DB 00H
	DB	070H
	DB	040H
	DB	040H
	DB	040H
	DB	040H
	DB	040H
	DB	040H
	DB	040H
	DB	040H
	DB	040H
	DB	040H
	DB	040H
	DB	040H
	DB	040H
	DB	070H
	DB	00H
	DB	070H
	DB	088H
	DB	0b0H
	DB	0a0H
	DB	0a0H
	DB	0a0H
	DB	0a0H
	DB	0a0H
	DB	0a0H
	DB	0a0H
	DB	0a0H
	DB	0a0H
	DB	0a0H
	DB	0a0H
	DB	0b0H
	DB	088H
	DB	070H
	ORG $+2
_acGUI_Font20F_ASCII_005C DB 00H
	DB	040H
	DB	040H
	DB	020H
	DB	020H
	DB	020H
	DB	020H
	DB	010H
	DB	010H
	DB	010H
	DB	010H
	DB	08H
	DB	08H
	DB	00H
	DB	040H
	DB	0a0H
	DB	0a0H
	DB	050H
	DB	050H
	DB	050H
	DB	050H
	DB	028H
	DB	028H
	DB	028H
	DB	028H
	DB	014H
	DB	014H
	DB	08H
_acGUI_Font20F_ASCII_005D DB 00H
	DB	070H
	DB	010H
	DB	010H
	DB	010H
	DB	010H
	DB	010H
	DB	010H
	DB	010H
	DB	010H
	DB	010H
	DB	010H
	DB	010H
	DB	010H
	DB	010H
	DB	070H
	DB	00H
	DB	070H
	DB	088H
	DB	068H
	DB	028H
	DB	028H
	DB	028H
	DB	028H
	DB	028H
	DB	028H
	DB	028H
	DB	028H
	DB	028H
	DB	028H
	DB	028H
	DB	068H
	DB	088H
	DB	070H
	ORG $+2
_acGUI_Font20F_ASCII_005E DB 00H
	DB	00H
	DB	08H
	DB	00H
	DB	014H
	DB	00H
	DB	014H
	DB	00H
	DB	022H
	DB	00H
	DB	022H
	DB	00H
	DB	041H
	DB	00H
	DB	00H
	DB	00H
	DB	08H
	DB	00H
	DB	014H
	DB	00H
	DB	02aH
	DB	00H
	DB	02aH
	DB	00H
	DB	055H
	DB	00H
	DB	055H
	DB	00H
	DB	0a2H
	DB	080H
	DB	041H
	DB	00H
_acGUI_Font20F_ASCII_005F DB 00H
	DB	00H
	DB	07fH
	DB	0c0H
	DB	00H
	DB	00H
	DB	07fH
	DB	0c0H
	DB	080H
	DB	020H
	DB	07fH
	DB	0c0H
_acGUI_Font20F_ASCII_0060 DB 00H
	DB	040H
	DB	020H
	DB	00H
	DB	040H
	DB	0a0H
	DB	050H
	DB	020H
_acGUI_Font20F_ASCII_0061 DB 00H
	DB	00H
	DB	01eH
	DB	00H
	DB	021H
	DB	00H
	DB	041H
	DB	00H
	DB	07H
	DB	00H
	DB	039H
	DB	00H
	DB	041H
	DB	00H
	DB	041H
	DB	00H
	DB	043H
	DB	00H
	DB	03dH
	DB	00H
	DB	00H
	DB	00H
	DB	01eH
	DB	00H
	DB	021H
	DB	00H
	DB	05eH
	DB	080H
	DB	0a6H
	DB	080H
	DB	078H
	DB	080H
	DB	046H
	DB	080H
	DB	0baH
	DB	080H
	DB	0a2H
	DB	080H
	DB	0bcH
	DB	080H
	DB	042H
	DB	080H
	DB	03dH
	DB	00H
_acGUI_Font20F_ASCII_0062 DB 00H
	DB	00H
	DB	040H
	DB	00H
	DB	040H
	DB	00H
	DB	040H
	DB	00H
	DB	05cH
	DB	00H
	DB	062H
	DB	00H
	DB	041H
	DB	00H
	DB	041H
	DB	00H
	DB	041H
	DB	00H
	DB	041H
	DB	00H
	DB	041H
	DB	00H
	DB	062H
	DB	00H
	DB	05cH
	DB	00H
	DB	00H
	DB	00H
	DB	040H
	DB	00H
	DB	0a0H
	DB	00H
	DB	0a0H
	DB	00H
	DB	0bcH
	DB	00H
	DB	0a2H
	DB	00H
	DB	09dH
	DB	00H
	DB	0a2H
	DB	080H
	DB	0a2H
	DB	080H
	DB	0a2H
	DB	080H
	DB	0a2H
	DB	080H
	DB	0a2H
	DB	080H
	DB	09dH
	DB	00H
	DB	0a2H
	DB	00H
	DB	05cH
	DB	00H
_acGUI_Font20F_ASCII_0063 DB 00H
	DB	01cH
	DB	022H
	DB	040H
	DB	040H
	DB	040H
	DB	040H
	DB	040H
	DB	022H
	DB	01cH
	DB	00H
	DB	01cH
	DB	022H
	DB	05dH
	DB	0a2H
	DB	0a0H
	DB	0a0H
	DB	0a0H
	DB	0a2H
	DB	05dH
	DB	022H
	DB	01cH
	ORG $+2
_acGUI_Font20F_ASCII_0064 DB 00H
	DB	00H
	DB	01H
	DB	00H
	DB	01H
	DB	00H
	DB	01H
	DB	00H
	DB	01dH
	DB	00H
	DB	023H
	DB	00H
	DB	041H
	DB	00H
	DB	041H
	DB	00H
	DB	041H
	DB	00H
	DB	041H
	DB	00H
	DB	041H
	DB	00H
	DB	023H
	DB	00H
	DB	01dH
	DB	00H
	DB	00H
	DB	00H
	DB	01H
	DB	00H
	DB	02H
	DB	080H
	DB	02H
	DB	080H
	DB	01eH
	DB	080H
	DB	022H
	DB	080H
	DB	05cH
	DB	080H
	DB	0a2H
	DB	080H
	DB	0a2H
	DB	080H
	DB	0a2H
	DB	080H
	DB	0a2H
	DB	080H
	DB	0a2H
	DB	080H
	DB	05cH
	DB	080H
	DB	022H
	DB	080H
	DB	01dH
	DB	00H
_acGUI_Font20F_ASCII_0065 DB 00H
	DB	00H
	DB	01cH
	DB	00H
	DB	022H
	DB	00H
	DB	041H
	DB	00H
	DB	041H
	DB	00H
	DB	07fH
	DB	00H
	DB	040H
	DB	00H
	DB	041H
	DB	00H
	DB	022H
	DB	00H
	DB	01cH
	DB	00H
	DB	00H
	DB	00H
	DB	01cH
	DB	00H
	DB	022H
	DB	00H
	DB	05dH
	DB	00H
	DB	0a2H
	DB	080H
	DB	0beH
	DB	080H
	DB	080H
	DB	080H
	DB	0bfH
	DB	00H
	DB	0a2H
	DB	080H
	DB	05dH
	DB	00H
	DB	022H
	DB	00H
	DB	01cH
	DB	00H
_acGUI_Font20F_ASCII_0066 DB 00H
	DB	018H
	DB	020H
	DB	020H
	DB	078H
	DB	020H
	DB	020H
	DB	020H
	DB	020H
	DB	020H
	DB	020H
	DB	020H
	DB	020H
	DB	00H
	DB	018H
	DB	024H
	DB	058H
	DB	058H
	DB	084H
	DB	058H
	DB	050H
	DB	050H
	DB	050H
	DB	050H
	DB	050H
	DB	050H
	DB	050H
	DB	020H
_acGUI_Font20F_ASCII_0067 DB 00H
	DB	00H
	DB	01dH
	DB	00H
	DB	023H
	DB	00H
	DB	041H
	DB	00H
	DB	041H
	DB	00H
	DB	041H
	DB	00H
	DB	041H
	DB	00H
	DB	041H
	DB	00H
	DB	023H
	DB	00H
	DB	01dH
	DB	00H
	DB	01H
	DB	00H
	DB	042H
	DB	00H
	DB	03cH
	DB	00H
	DB	00H
	DB	00H
	DB	01dH
	DB	00H
	DB	022H
	DB	080H
	DB	05cH
	DB	080H
	DB	0a2H
	DB	080H
	DB	0a2H
	DB	080H
	DB	0a2H
	DB	080H
	DB	0a2H
	DB	080H
	DB	0a2H
	DB	080H
	DB	05cH
	DB	080H
	DB	022H
	DB	080H
	DB	05eH
	DB	080H
	DB	0bdH
	DB	00H
	DB	042H
	DB	00H
	DB	03cH
	DB	00H
_acGUI_Font20F_ASCII_0068 DB 00H
	DB	040H
	DB	040H
	DB	040H
	DB	05cH
	DB	062H
	DB	042H
	DB	042H
	DB	042H
	DB	042H
	DB	042H
	DB	042H
	DB	042H
	DB	00H
	DB	040H
	DB	0a0H
	DB	0a0H
	DB	0bcH
	DB	0a2H
	DB	09dH
	DB	0a5H
	DB	0a5H
	DB	0a5H
	DB	0a5H
	DB	0a5H
	DB	0a5H
	DB	0a5H
	DB	042H
_acGUI_Font20F_ASCII_0069 DB 00H
	DB	040H
	DB	00H
	DB	00H
	DB	040H
	DB	040H
	DB	040H
	DB	040H
	DB	040H
	DB	040H
	DB	040H
	DB	040H
	DB	040H
	DB	00H
	DB	040H
	DB	0a0H
	DB	040H
	DB	040H
	DB	0a0H
	DB	0a0H
	DB	0a0H
	DB	0a0H
	DB	0a0H
	DB	0a0H
	DB	0a0H
	DB	0a0H
	DB	0a0H
	DB	040H
_acGUI_Font20F_ASCII_006A DB 00H
	DB	010H
	DB	00H
	DB	00H
	DB	010H
	DB	010H
	DB	010H
	DB	010H
	DB	010H
	DB	010H
	DB	010H
	DB	010H
	DB	010H
	DB	010H
	DB	010H
	DB	060H
	DB	00H
	DB	010H
	DB	028H
	DB	010H
	DB	010H
	DB	028H
	DB	028H
	DB	028H
	DB	028H
	DB	028H
	DB	028H
	DB	028H
	DB	028H
	DB	028H
	DB	028H
	DB	068H
	DB	090H
	DB	060H
	ORG $+2
_acGUI_Font20F_ASCII_006B DB 00H
	DB	00H
	DB	040H
	DB	00H
	DB	040H
	DB	00H
	DB	040H
	DB	00H
	DB	041H
	DB	00H
	DB	042H
	DB	00H
	DB	044H
	DB	00H
	DB	048H
	DB	00H
	DB	058H
	DB	00H
	DB	064H
	DB	00H
	DB	044H
	DB	00H
	DB	042H
	DB	00H
	DB	041H
	DB	00H
	DB	00H
	DB	00H
	DB	040H
	DB	00H
	DB	0a0H
	DB	00H
	DB	0a0H
	DB	00H
	DB	0a1H
	DB	00H
	DB	0a2H
	DB	080H
	DB	0a5H
	DB	00H
	DB	0aaH
	DB	00H
	DB	0b4H
	DB	00H
	DB	0a4H
	DB	00H
	DB	09aH
	DB	00H
	DB	0aaH
	DB	00H
	DB	0a5H
	DB	00H
	DB	0a2H
	DB	080H
	DB	041H
	DB	00H
_acGUI_Font20F_ASCII_006C DB 00H
	DB	040H
	DB	040H
	DB	040H
	DB	040H
	DB	040H
	DB	040H
	DB	040H
	DB	040H
	DB	040H
	DB	040H
	DB	040H
	DB	040H
	DB	00H
	DB	040H
	DB	0a0H
	DB	0a0H
	DB	0a0H
	DB	0a0H
	DB	0a0H
	DB	0a0H
	DB	0a0H
	DB	0a0H
	DB	0a0H
	DB	0a0H
	DB	0a0H
	DB	0a0H
	DB	040H
_acGUI_Font20F_ASCII_006D DB 00H
	DB	00H
	DB	05cH
	DB	0e0H
	DB	063H
	DB	010H
	DB	042H
	DB	010H
	DB	042H
	DB	010H
	DB	042H
	DB	010H
	DB	042H
	DB	010H
	DB	042H
	DB	010H
	DB	042H
	DB	010H
	DB	042H
	DB	010H
	DB	00H
	DB	00H
	DB	05cH
	DB	0e0H
	DB	0a3H
	DB	010H
	DB	09cH
	DB	0e8H
	DB	0a5H
	DB	028H
	DB	0a5H
	DB	028H
	DB	0a5H
	DB	028H
	DB	0a5H
	DB	028H
	DB	0a5H
	DB	028H
	DB	0a5H
	DB	028H
	DB	0a5H
	DB	028H
	DB	042H
	DB	010H
_acGUI_Font20F_ASCII_006E DB 00H
	DB	05cH
	DB	062H
	DB	042H
	DB	042H
	DB	042H
	DB	042H
	DB	042H
	DB	042H
	DB	042H
	DB	00H
	DB	05cH
	DB	0a2H
	DB	09dH
	DB	0a5H
	DB	0a5H
	DB	0a5H
	DB	0a5H
	DB	0a5H
	DB	0a5H
	DB	0a5H
	DB	042H
	ORG $+2
_acGUI_Font20F_ASCII_006F DB 00H
	DB	00H
	DB	01cH
	DB	00H
	DB	022H
	DB	00H
	DB	041H
	DB	00H
	DB	041H
	DB	00H
	DB	041H
	DB	00H
	DB	041H
	DB	00H
	DB	041H
	DB	00H
	DB	022H
	DB	00H
	DB	01cH
	DB	00H
	DB	00H
	DB	00H
	DB	01cH
	DB	00H
	DB	022H
	DB	00H
	DB	05dH
	DB	00H
	DB	0a2H
	DB	080H
	DB	0a2H
	DB	080H
	DB	0a2H
	DB	080H
	DB	0a2H
	DB	080H
	DB	0a2H
	DB	080H
	DB	05dH
	DB	00H
	DB	022H
	DB	00H
	DB	01cH
	DB	00H
_acGUI_Font20F_ASCII_0070 DB 00H
	DB	00H
	DB	05cH
	DB	00H
	DB	062H
	DB	00H
	DB	041H
	DB	00H
	DB	041H
	DB	00H
	DB	041H
	DB	00H
	DB	041H
	DB	00H
	DB	041H
	DB	00H
	DB	062H
	DB	00H
	DB	05cH
	DB	00H
	DB	040H
	DB	00H
	DB	040H
	DB	00H
	DB	040H
	DB	00H
	DB	00H
	DB	00H
	DB	05cH
	DB	00H
	DB	0a2H
	DB	00H
	DB	09dH
	DB	00H
	DB	0a2H
	DB	080H
	DB	0a2H
	DB	080H
	DB	0a2H
	DB	080H
	DB	0a2H
	DB	080H
	DB	0a2H
	DB	080H
	DB	09dH
	DB	00H
	DB	0a2H
	DB	00H
	DB	0bcH
	DB	00H
	DB	0a0H
	DB	00H
	DB	0a0H
	DB	00H
	DB	040H
	DB	00H
_acGUI_Font20F_ASCII_0071 DB 00H
	DB	00H
	DB	01dH
	DB	00H
	DB	023H
	DB	00H
	DB	041H
	DB	00H
	DB	041H
	DB	00H
	DB	041H
	DB	00H
	DB	041H
	DB	00H
	DB	041H
	DB	00H
	DB	023H
	DB	00H
	DB	01dH
	DB	00H
	DB	01H
	DB	00H
	DB	01H
	DB	00H
	DB	01H
	DB	00H
	DB	00H
	DB	00H
	DB	01dH
	DB	00H
	DB	022H
	DB	080H
	DB	05cH
	DB	080H
	DB	0a2H
	DB	080H
	DB	0a2H
	DB	080H
	DB	0a2H
	DB	080H
	DB	0a2H
	DB	080H
	DB	0a2H
	DB	080H
	DB	05cH
	DB	080H
	DB	022H
	DB	080H
	DB	01eH
	DB	080H
	DB	02H
	DB	080H
	DB	02H
	DB	080H
	DB	01H
	DB	00H
_acGUI_Font20F_ASCII_0072 DB 00H
	DB	058H
	DB	060H
	DB	040H
	DB	040H
	DB	040H
	DB	040H
	DB	040H
	DB	040H
	DB	040H
	DB	00H
	DB	058H
	DB	0a4H
	DB	098H
	DB	0a0H
	DB	0a0H
	DB	0a0H
	DB	0a0H
	DB	0a0H
	DB	0a0H
	DB	0a0H
	DB	040H
	ORG $+2
_acGUI_Font20F_ASCII_0073 DB 00H
	DB	03cH
	DB	042H
	DB	040H
	DB	040H
	DB	03cH
	DB	02H
	DB	02H
	DB	042H
	DB	03cH
	DB	00H
	DB	03cH
	DB	042H
	DB	0bdH
	DB	0a2H
	DB	0bcH
	DB	042H
	DB	03dH
	DB	045H
	DB	0bdH
	DB	042H
	DB	03cH
	ORG $+2
_acGUI_Font20F_ASCII_0074 DB 00H
	DB	00H
	DB	020H
	DB	020H
	DB	078H
	DB	020H
	DB	020H
	DB	020H
	DB	020H
	DB	020H
	DB	020H
	DB	020H
	DB	038H
	DB	00H
	DB	00H
	DB	020H
	DB	050H
	DB	058H
	DB	084H
	DB	058H
	DB	050H
	DB	050H
	DB	050H
	DB	050H
	DB	050H
	DB	058H
	DB	044H
	DB	038H
_acGUI_Font20F_ASCII_0075 DB 00H
	DB	042H
	DB	042H
	DB	042H
	DB	042H
	DB	042H
	DB	042H
	DB	042H
	DB	046H
	DB	03aH
	DB	00H
	DB	042H
	DB	0a5H
	DB	0a5H
	DB	0a5H
	DB	0a5H
	DB	0a5H
	DB	0a5H
	DB	0a5H
	DB	0b9H
	DB	045H
	DB	03aH
	ORG $+2
_acGUI_Font20F_ASCII_0076 DB 00H
	DB	00H
	DB	041H
	DB	00H
	DB	041H
	DB	00H
	DB	022H
	DB	00H
	DB	022H
	DB	00H
	DB	014H
	DB	00H
	DB	014H
	DB	00H
	DB	014H
	DB	00H
	DB	08H
	DB	00H
	DB	08H
	DB	00H
	DB	00H
	DB	00H
	DB	041H
	DB	00H
	DB	0a2H
	DB	080H
	DB	0a2H
	DB	080H
	DB	055H
	DB	00H
	DB	055H
	DB	00H
	DB	02aH
	DB	00H
	DB	02aH
	DB	00H
	DB	02aH
	DB	00H
	DB	014H
	DB	00H
	DB	014H
	DB	00H
	DB	08H
	DB	00H
_acGUI_Font20F_ASCII_0077 DB 00H
	DB	00H
	DB	042H
	DB	010H
	DB	042H
	DB	010H
	DB	025H
	DB	020H
	DB	025H
	DB	020H
	DB	028H
	DB	0a0H
	DB	028H
	DB	0a0H
	DB	028H
	DB	0a0H
	DB	010H
	DB	040H
	DB	010H
	DB	040H
	DB	00H
	DB	00H
	DB	042H
	DB	010H
	DB	0a5H
	DB	028H
	DB	0a5H
	DB	028H
	DB	05aH
	DB	0d0H
	DB	05aH
	DB	0d0H
	DB	055H
	DB	050H
	DB	055H
	DB	050H
	DB	055H
	DB	050H
	DB	028H
	DB	0a0H
	DB	028H
	DB	0a0H
	DB	010H
	DB	040H
_acGUI_Font20F_ASCII_0078 DB 00H
	DB	00H
	DB	041H
	DB	00H
	DB	022H
	DB	00H
	DB	014H
	DB	00H
	DB	014H
	DB	00H
	DB	08H
	DB	00H
	DB	014H
	DB	00H
	DB	014H
	DB	00H
	DB	022H
	DB	00H
	DB	041H
	DB	00H
	DB	00H
	DB	00H
	DB	041H
	DB	00H
	DB	0a2H
	DB	080H
	DB	055H
	DB	00H
	DB	02aH
	DB	00H
	DB	02aH
	DB	00H
	DB	014H
	DB	00H
	DB	02aH
	DB	00H
	DB	02aH
	DB	00H
	DB	055H
	DB	00H
	DB	0a2H
	DB	080H
	DB	041H
	DB	00H
_acGUI_Font20F_ASCII_0079 DB 00H
	DB	00H
	DB	041H
	DB	00H
	DB	041H
	DB	00H
	DB	042H
	DB	00H
	DB	022H
	DB	00H
	DB	022H
	DB	00H
	DB	014H
	DB	00H
	DB	014H
	DB	00H
	DB	014H
	DB	00H
	DB	08H
	DB	00H
	DB	08H
	DB	00H
	DB	08H
	DB	00H
	DB	030H
	DB	00H
	DB	00H
	DB	00H
	DB	041H
	DB	00H
	DB	0a2H
	DB	080H
	DB	0a2H
	DB	080H
	DB	0a5H
	DB	00H
	DB	055H
	DB	00H
	DB	055H
	DB	00H
	DB	02aH
	DB	00H
	DB	02aH
	DB	00H
	DB	02aH
	DB	00H
	DB	014H
	DB	00H
	DB	014H
	DB	00H
	DB	034H
	DB	00H
	DB	048H
	DB	00H
	DB	030H
	DB	00H
_acGUI_Font20F_ASCII_007A DB 00H
	DB	00H
	DB	07fH
	DB	00H
	DB	02H
	DB	00H
	DB	04H
	DB	00H
	DB	04H
	DB	00H
	DB	08H
	DB	00H
	DB	010H
	DB	00H
	DB	010H
	DB	00H
	DB	020H
	DB	00H
	DB	07fH
	DB	00H
	DB	00H
	DB	00H
	DB	07fH
	DB	00H
	DB	080H
	DB	080H
	DB	07dH
	DB	00H
	DB	0aH
	DB	00H
	DB	0aH
	DB	00H
	DB	014H
	DB	00H
	DB	028H
	DB	00H
	DB	028H
	DB	00H
	DB	05fH
	DB	00H
	DB	080H
	DB	080H
	DB	07fH
	DB	00H
_acGUI_Font20F_ASCII_007B DB 00H
	DB	0cH
	DB	010H
	DB	010H
	DB	010H
	DB	010H
	DB	010H
	DB	010H
	DB	060H
	DB	010H
	DB	010H
	DB	010H
	DB	010H
	DB	010H
	DB	010H
	DB	0cH
	DB	00H
	DB	0cH
	DB	012H
	DB	02cH
	DB	028H
	DB	028H
	DB	028H
	DB	028H
	DB	068H
	DB	090H
	DB	068H
	DB	028H
	DB	028H
	DB	028H
	DB	028H
	DB	02cH
	DB	012H
	DB	0cH
	ORG $+2
_acGUI_Font20F_ASCII_007C DB 00H
	DB	040H
	DB	040H
	DB	040H
	DB	040H
	DB	040H
	DB	040H
	DB	040H
	DB	040H
	DB	040H
	DB	040H
	DB	040H
	DB	040H
	DB	040H
	DB	040H
	DB	040H
	DB	00H
	DB	040H
	DB	0a0H
	DB	0a0H
	DB	0a0H
	DB	0a0H
	DB	0a0H
	DB	0a0H
	DB	0a0H
	DB	0a0H
	DB	0a0H
	DB	0a0H
	DB	0a0H
	DB	0a0H
	DB	0a0H
	DB	0a0H
	DB	0a0H
	DB	040H
	ORG $+2
_acGUI_Font20F_ASCII_007D DB 00H
	DB	060H
	DB	010H
	DB	010H
	DB	010H
	DB	010H
	DB	010H
	DB	010H
	DB	0cH
	DB	010H
	DB	010H
	DB	010H
	DB	010H
	DB	010H
	DB	010H
	DB	060H
	DB	00H
	DB	060H
	DB	090H
	DB	068H
	DB	028H
	DB	028H
	DB	028H
	DB	028H
	DB	02cH
	DB	012H
	DB	02cH
	DB	028H
	DB	028H
	DB	028H
	DB	028H
	DB	068H
	DB	090H
	DB	060H
	ORG $+2
_acGUI_Font20F_ASCII_007E DB 00H
	DB	00H
	DB	038H
	DB	080H
	DB	047H
	DB	00H
	DB	00H
	DB	00H
	DB	038H
	DB	080H
	DB	047H
	DB	040H
	DB	0b8H
	DB	080H
	DB	047H
	DB	00H
_GUI_Font20F_ASCII_CharInfo DB 03H
	DB	03H
	DB	00H
	DB	0fH
	DB	06H
	ORG $+3
	DD	FLAT:_acGUI_Font20F_ASCII_0020
	DB	03H
	DB	0eH
	DB	02H
	DB	03H
	DB	07H
	ORG $+3
	DD	FLAT:_acGUI_Font20F_ASCII_0021
	DB	06H
	DB	06H
	DB	01H
	DB	03H
	DB	08H
	ORG $+3
	DD	FLAT:_acGUI_Font20F_ASCII_0022
	DB	0bH
	DB	0eH
	DB	00H
	DB	03H
	DB	0bH
	ORG $+3
	DD	FLAT:_acGUI_Font20F_ASCII_0023
	DB	09H
	DB	010H
	DB	01H
	DB	02H
	DB	0bH
	ORG $+3
	DD	FLAT:_acGUI_Font20F_ASCII_0024
	DB	0eH
	DB	0eH
	DB	01H
	DB	03H
	DB	010H
	ORG $+3
	DD	FLAT:_acGUI_Font20F_ASCII_0025
	DB	0bH
	DB	0eH
	DB	01H
	DB	03H
	DB	0dH
	ORG $+3
	DD	FLAT:_acGUI_Font20F_ASCII_0026
	DB	03H
	DB	06H
	DB	01H
	DB	03H
	DB	05H
	ORG $+3
	DD	FLAT:_acGUI_Font20F_ASCII_0027
	DB	05H
	DB	011H
	DB	01H
	DB	03H
	DB	07H
	ORG $+3
	DD	FLAT:_acGUI_Font20F_ASCII_0028
	DB	05H
	DB	011H
	DB	01H
	DB	03H
	DB	07H
	ORG $+3
	DD	FLAT:_acGUI_Font20F_ASCII_0029
	DB	07H
	DB	07H
	DB	00H
	DB	03H
	DB	08H
	ORG $+3
	DD	FLAT:_acGUI_Font20F_ASCII_002A
	DB	09H
	DB	09H
	DB	01H
	DB	06H
	DB	0bH
	ORG $+3
	DD	FLAT:_acGUI_Font20F_ASCII_002B
	DB	03H
	DB	06H
	DB	02H
	DB	0eH
	DB	06H
	ORG $+3
	DD	FLAT:_acGUI_Font20F_ASCII_002C
	DB	06H
	DB	03H
	DB	00H
	DB	0bH
	DB	07H
	ORG $+3
	DD	FLAT:_acGUI_Font20F_ASCII_002D
	DB	03H
	DB	03H
	DB	02H
	DB	0eH
	DB	06H
	ORG $+3
	DD	FLAT:_acGUI_Font20F_ASCII_002E
	DB	06H
	DB	0eH
	DB	00H
	DB	03H
	DB	06H
	ORG $+3
	DD	FLAT:_acGUI_Font20F_ASCII_002F
	DB	09H
	DB	0eH
	DB	01H
	DB	03H
	DB	0bH
	ORG $+3
	DD	FLAT:_acGUI_Font20F_ASCII_0030
	DB	06H
	DB	0eH
	DB	02H
	DB	03H
	DB	0bH
	ORG $+3
	DD	FLAT:_acGUI_Font20F_ASCII_0031
	DB	09H
	DB	0eH
	DB	01H
	DB	03H
	DB	0bH
	ORG $+3
	DD	FLAT:_acGUI_Font20F_ASCII_0032
	DB	09H
	DB	0eH
	DB	01H
	DB	03H
	DB	0bH
	ORG $+3
	DD	FLAT:_acGUI_Font20F_ASCII_0033
	DB	0aH
	DB	0eH
	DB	00H
	DB	03H
	DB	0bH
	ORG $+3
	DD	FLAT:_acGUI_Font20F_ASCII_0034
	DB	09H
	DB	0eH
	DB	01H
	DB	03H
	DB	0bH
	ORG $+3
	DD	FLAT:_acGUI_Font20F_ASCII_0035
	DB	09H
	DB	0eH
	DB	01H
	DB	03H
	DB	0bH
	ORG $+3
	DD	FLAT:_acGUI_Font20F_ASCII_0036
	DB	09H
	DB	0eH
	DB	01H
	DB	03H
	DB	0bH
	ORG $+3
	DD	FLAT:_acGUI_Font20F_ASCII_0037
	DB	09H
	DB	0eH
	DB	01H
	DB	03H
	DB	0bH
	ORG $+3
	DD	FLAT:_acGUI_Font20F_ASCII_0038
	DB	09H
	DB	0eH
	DB	01H
	DB	03H
	DB	0bH
	ORG $+3
	DD	FLAT:_acGUI_Font20F_ASCII_0039
	DB	03H
	DB	0bH
	DB	01H
	DB	06H
	DB	06H
	ORG $+3
	DD	FLAT:_acGUI_Font20F_ASCII_003A
	DB	03H
	DB	0eH
	DB	01H
	DB	06H
	DB	06H
	ORG $+3
	DD	FLAT:_acGUI_Font20F_ASCII_003B
	DB	09H
	DB	09H
	DB	01H
	DB	06H
	DB	0bH
	ORG $+3
	DD	FLAT:_acGUI_Font20F_ASCII_003C
	DB	09H
	DB	07H
	DB	01H
	DB	07H
	DB	0bH
	ORG $+3
	DD	FLAT:_acGUI_Font20F_ASCII_003D
	DB	09H
	DB	09H
	DB	01H
	DB	06H
	DB	0bH
	ORG $+3
	DD	FLAT:_acGUI_Font20F_ASCII_003E
	DB	09H
	DB	0eH
	DB	01H
	DB	03H
	DB	0bH
	ORG $+3
	DD	FLAT:_acGUI_Font20F_ASCII_003F
	DB	011H
	DB	011H
	DB	01H
	DB	03H
	DB	012H
	ORG $+3
	DD	FLAT:_acGUI_Font20F_ASCII_0040
	DB	0bH
	DB	0eH
	DB	01H
	DB	03H
	DB	0dH
	ORG $+3
	DD	FLAT:_acGUI_Font20F_ASCII_0041
	DB	0bH
	DB	0eH
	DB	01H
	DB	03H
	DB	0dH
	ORG $+3
	DD	FLAT:_acGUI_Font20F_ASCII_0042
	DB	0cH
	DB	0eH
	DB	01H
	DB	03H
	DB	0eH
	ORG $+3
	DD	FLAT:_acGUI_Font20F_ASCII_0043
	DB	0cH
	DB	0eH
	DB	01H
	DB	03H
	DB	0eH
	ORG $+3
	DD	FLAT:_acGUI_Font20F_ASCII_0044
	DB	0bH
	DB	0eH
	DB	01H
	DB	03H
	DB	0dH
	ORG $+3
	DD	FLAT:_acGUI_Font20F_ASCII_0045
	DB	0aH
	DB	0eH
	DB	01H
	DB	03H
	DB	0cH
	ORG $+3
	DD	FLAT:_acGUI_Font20F_ASCII_0046
	DB	0cH
	DB	0eH
	DB	01H
	DB	03H
	DB	0eH
	ORG $+3
	DD	FLAT:_acGUI_Font20F_ASCII_0047
	DB	0bH
	DB	0eH
	DB	01H
	DB	03H
	DB	0dH
	ORG $+3
	DD	FLAT:_acGUI_Font20F_ASCII_0048
	DB	03H
	DB	0eH
	DB	01H
	DB	03H
	DB	05H
	ORG $+3
	DD	FLAT:_acGUI_Font20F_ASCII_0049
	DB	08H
	DB	0eH
	DB	01H
	DB	03H
	DB	0aH
	ORG $+3
	DD	FLAT:_acGUI_Font20F_ASCII_004A
	DB	0bH
	DB	0eH
	DB	01H
	DB	03H
	DB	0dH
	ORG $+3
	DD	FLAT:_acGUI_Font20F_ASCII_004B
	DB	09H
	DB	0eH
	DB	01H
	DB	03H
	DB	0bH
	ORG $+3
	DD	FLAT:_acGUI_Font20F_ASCII_004C
	DB	0dH
	DB	0eH
	DB	01H
	DB	03H
	DB	0fH
	ORG $+3
	DD	FLAT:_acGUI_Font20F_ASCII_004D
	DB	0bH
	DB	0eH
	DB	01H
	DB	03H
	DB	0dH
	ORG $+3
	DD	FLAT:_acGUI_Font20F_ASCII_004E
	DB	0cH
	DB	0eH
	DB	01H
	DB	03H
	DB	0eH
	ORG $+3
	DD	FLAT:_acGUI_Font20F_ASCII_004F
	DB	0bH
	DB	0eH
	DB	01H
	DB	03H
	DB	0dH
	ORG $+3
	DD	FLAT:_acGUI_Font20F_ASCII_0050
	DB	0cH
	DB	0eH
	DB	01H
	DB	03H
	DB	0eH
	ORG $+3
	DD	FLAT:_acGUI_Font20F_ASCII_0051
	DB	0bH
	DB	0eH
	DB	01H
	DB	03H
	DB	0dH
	ORG $+3
	DD	FLAT:_acGUI_Font20F_ASCII_0052
	DB	0bH
	DB	0eH
	DB	01H
	DB	03H
	DB	0dH
	ORG $+3
	DD	FLAT:_acGUI_Font20F_ASCII_0053
	DB	0bH
	DB	0eH
	DB	00H
	DB	03H
	DB	0bH
	ORG $+3
	DD	FLAT:_acGUI_Font20F_ASCII_0054
	DB	0bH
	DB	0eH
	DB	01H
	DB	03H
	DB	0dH
	ORG $+3
	DD	FLAT:_acGUI_Font20F_ASCII_0055
	DB	0bH
	DB	0eH
	DB	01H
	DB	03H
	DB	0dH
	ORG $+3
	DD	FLAT:_acGUI_Font20F_ASCII_0056
	DB	011H
	DB	0eH
	DB	00H
	DB	03H
	DB	011H
	ORG $+3
	DD	FLAT:_acGUI_Font20F_ASCII_0057
	DB	0dH
	DB	0eH
	DB	00H
	DB	03H
	DB	0dH
	ORG $+3
	DD	FLAT:_acGUI_Font20F_ASCII_0058
	DB	0bH
	DB	0eH
	DB	00H
	DB	03H
	DB	0bH
	ORG $+3
	DD	FLAT:_acGUI_Font20F_ASCII_0059
	DB	0bH
	DB	0eH
	DB	00H
	DB	03H
	DB	0bH
	ORG $+3
	DD	FLAT:_acGUI_Font20F_ASCII_005A
	DB	05H
	DB	011H
	DB	01H
	DB	03H
	DB	06H
	ORG $+3
	DD	FLAT:_acGUI_Font20F_ASCII_005B
	DB	06H
	DB	0eH
	DB	00H
	DB	03H
	DB	06H
	ORG $+3
	DD	FLAT:_acGUI_Font20F_ASCII_005C
	DB	05H
	DB	011H
	DB	00H
	DB	03H
	DB	06H
	ORG $+3
	DD	FLAT:_acGUI_Font20F_ASCII_005D
	DB	09H
	DB	08H
	DB	00H
	DB	03H
	DB	09H
	ORG $+3
	DD	FLAT:_acGUI_Font20F_ASCII_005E
	DB	0bH
	DB	03H
	DB	00H
	DB	011H
	DB	0bH
	ORG $+3
	DD	FLAT:_acGUI_Font20F_ASCII_005F
	DB	04H
	DB	04H
	DB	01H
	DB	03H
	DB	07H
	ORG $+3
	DD	FLAT:_acGUI_Font20F_ASCII_0060
	DB	09H
	DB	0bH
	DB	01H
	DB	06H
	DB	0bH
	ORG $+3
	DD	FLAT:_acGUI_Font20F_ASCII_0061
	DB	09H
	DB	0eH
	DB	01H
	DB	03H
	DB	0bH
	ORG $+3
	DD	FLAT:_acGUI_Font20F_ASCII_0062
	DB	08H
	DB	0bH
	DB	01H
	DB	06H
	DB	0aH
	ORG $+3
	DD	FLAT:_acGUI_Font20F_ASCII_0063
	DB	09H
	DB	0eH
	DB	01H
	DB	03H
	DB	0bH
	ORG $+3
	DD	FLAT:_acGUI_Font20F_ASCII_0064
	DB	09H
	DB	0bH
	DB	01H
	DB	06H
	DB	0bH
	ORG $+3
	DD	FLAT:_acGUI_Font20F_ASCII_0065
	DB	06H
	DB	0eH
	DB	00H
	DB	03H
	DB	06H
	ORG $+3
	DD	FLAT:_acGUI_Font20F_ASCII_0066
	DB	09H
	DB	0eH
	DB	01H
	DB	06H
	DB	0bH
	ORG $+3
	DD	FLAT:_acGUI_Font20F_ASCII_0067
	DB	08H
	DB	0eH
	DB	01H
	DB	03H
	DB	0aH
	ORG $+3
	DD	FLAT:_acGUI_Font20F_ASCII_0068
	DB	03H
	DB	0eH
	DB	01H
	DB	03H
	DB	06H
	ORG $+3
	DD	FLAT:_acGUI_Font20F_ASCII_0069
	DB	05H
	DB	011H
	DB	0ffH
	DB	03H
	DB	05H
	ORG $+3
	DD	FLAT:_acGUI_Font20F_ASCII_006A
	DB	09H
	DB	0eH
	DB	01H
	DB	03H
	DB	0aH
	ORG $+3
	DD	FLAT:_acGUI_Font20F_ASCII_006B
	DB	03H
	DB	0eH
	DB	01H
	DB	03H
	DB	05H
	ORG $+3
	DD	FLAT:_acGUI_Font20F_ASCII_006C
	DB	0dH
	DB	0bH
	DB	01H
	DB	06H
	DB	0fH
	ORG $+3
	DD	FLAT:_acGUI_Font20F_ASCII_006D
	DB	08H
	DB	0bH
	DB	01H
	DB	06H
	DB	0aH
	ORG $+3
	DD	FLAT:_acGUI_Font20F_ASCII_006E
	DB	09H
	DB	0bH
	DB	01H
	DB	06H
	DB	0bH
	ORG $+3
	DD	FLAT:_acGUI_Font20F_ASCII_006F
	DB	09H
	DB	0eH
	DB	01H
	DB	06H
	DB	0bH
	ORG $+3
	DD	FLAT:_acGUI_Font20F_ASCII_0070
	DB	09H
	DB	0eH
	DB	01H
	DB	06H
	DB	0bH
	ORG $+3
	DD	FLAT:_acGUI_Font20F_ASCII_0071
	DB	06H
	DB	0bH
	DB	01H
	DB	06H
	DB	07H
	ORG $+3
	DD	FLAT:_acGUI_Font20F_ASCII_0072
	DB	08H
	DB	0bH
	DB	01H
	DB	06H
	DB	0aH
	ORG $+3
	DD	FLAT:_acGUI_Font20F_ASCII_0073
	DB	06H
	DB	0eH
	DB	00H
	DB	03H
	DB	06H
	ORG $+3
	DD	FLAT:_acGUI_Font20F_ASCII_0074
	DB	08H
	DB	0bH
	DB	01H
	DB	06H
	DB	0aH
	ORG $+3
	DD	FLAT:_acGUI_Font20F_ASCII_0075
	DB	09H
	DB	0bH
	DB	00H
	DB	06H
	DB	09H
	ORG $+3
	DD	FLAT:_acGUI_Font20F_ASCII_0076
	DB	0dH
	DB	0bH
	DB	00H
	DB	06H
	DB	0dH
	ORG $+3
	DD	FLAT:_acGUI_Font20F_ASCII_0077
	DB	09H
	DB	0bH
	DB	00H
	DB	06H
	DB	09H
	ORG $+3
	DD	FLAT:_acGUI_Font20F_ASCII_0078
	DB	09H
	DB	0eH
	DB	00H
	DB	06H
	DB	09H
	ORG $+3
	DD	FLAT:_acGUI_Font20F_ASCII_0079
	DB	09H
	DB	0bH
	DB	00H
	DB	06H
	DB	09H
	ORG $+3
	DD	FLAT:_acGUI_Font20F_ASCII_007A
	DB	07H
	DB	011H
	DB	00H
	DB	03H
	DB	07H
	ORG $+3
	DD	FLAT:_acGUI_Font20F_ASCII_007B
	DB	03H
	DB	011H
	DB	01H
	DB	03H
	DB	05H
	ORG $+3
	DD	FLAT:_acGUI_Font20F_ASCII_007C
	DB	07H
	DB	011H
	DB	00H
	DB	03H
	DB	07H
	ORG $+3
	DD	FLAT:_acGUI_Font20F_ASCII_007D
	DB	0aH
	DB	04H
	DB	00H
	DB	08H
	DB	0bH
	ORG $+3
	DD	FLAT:_acGUI_Font20F_ASCII_007E
_GUI_Font20F_ASCII_Prop1 DW 020H
	DW	07eH
	DD	FLAT:_GUI_Font20F_ASCII_CharInfo
	DD	00H
_GUI_Font20F_ASCII DD FLAT:_GUIPROP_FRM_DispChar
	DD	FLAT:_GUIPROP_FRM_GetCharDistX
	DD	FLAT:_GUIPROP_FRM_GetFontInfo
	DD	FLAT:_GUIPROP_FRM_IsInFont
	DD	00H
	DD	00H
	DB	014H
	DB	014H
	DB	01H
	DB	01H
	DD	FLAT:_GUI_Font20F_ASCII_Prop1
	DB	0fH
	DB	0bH
	DB	0eH
	ORG $+1
CONST	ENDS
END
