; Listing generated by Microsoft (R) Optimizing Compiler Version 16.00.40219.01 

	TITLE	C:\DUII\Simulation\GUI\Font\F32B_1.c
	.686P
	.XMM
	include listing.inc
	.model	flat

INCLUDELIB LIBCMT
INCLUDELIB OLDNAMES

PUBLIC	_acFont32B_1_00A0
PUBLIC	_acFont32B_1_00A1
PUBLIC	_acFont32B_1_00A2
PUBLIC	_acFont32B_1_00A3
PUBLIC	_acFont32B_1_00A4
PUBLIC	_acFont32B_1_00A5
PUBLIC	_acFont32B_1_00A6
PUBLIC	_acFont32B_1_00A7
PUBLIC	_acFont32B_1_00A8
PUBLIC	_acFont32B_1_00A9
PUBLIC	_acFont32B_1_00AA
PUBLIC	_acFont32B_1_00AB
PUBLIC	_acFont32B_1_00AC
PUBLIC	_acFont32B_1_00AD
PUBLIC	_acFont32B_1_00AE
PUBLIC	_acFont32B_1_00AF
PUBLIC	_acFont32B_1_00B0
PUBLIC	_acFont32B_1_00B1
PUBLIC	_acFont32B_1_00B2
PUBLIC	_acFont32B_1_00B3
PUBLIC	_acFont32B_1_00B4
PUBLIC	_acFont32B_1_00B5
PUBLIC	_acFont32B_1_00B6
PUBLIC	_acFont32B_1_00B7
PUBLIC	_acFont32B_1_00B8
PUBLIC	_acFont32B_1_00B9
PUBLIC	_acFont32B_1_00BA
PUBLIC	_acFont32B_1_00BB
PUBLIC	_acFont32B_1_00BC
PUBLIC	_acFont32B_1_00BD
PUBLIC	_acFont32B_1_00BE
PUBLIC	_acFont32B_1_00BF
PUBLIC	_acFont32B_1_00C0
PUBLIC	_acFont32B_1_00C1
PUBLIC	_acFont32B_1_00C2
PUBLIC	_acFont32B_1_00C3
PUBLIC	_acFont32B_1_00C4
PUBLIC	_acFont32B_1_00C5
PUBLIC	_acFont32B_1_00C6
PUBLIC	_acFont32B_1_00C7
PUBLIC	_acFont32B_1_00C8
PUBLIC	_acFont32B_1_00C9
PUBLIC	_acFont32B_1_00CA
PUBLIC	_acFont32B_1_00CB
PUBLIC	_acFont32B_1_00CC
PUBLIC	_acFont32B_1_00CD
PUBLIC	_acFont32B_1_00CE
PUBLIC	_acFont32B_1_00CF
PUBLIC	_acFont32B_1_00D0
PUBLIC	_acFont32B_1_00D1
PUBLIC	_acFont32B_1_00D2
PUBLIC	_acFont32B_1_00D3
PUBLIC	_acFont32B_1_00D4
PUBLIC	_acFont32B_1_00D5
PUBLIC	_acFont32B_1_00D6
PUBLIC	_acFont32B_1_00D7
PUBLIC	_acFont32B_1_00D8
PUBLIC	_acFont32B_1_00D9
PUBLIC	_acFont32B_1_00DA
PUBLIC	_acFont32B_1_00DB
PUBLIC	_acFont32B_1_00DC
PUBLIC	_acFont32B_1_00DD
PUBLIC	_acFont32B_1_00DE
PUBLIC	_acFont32B_1_00DF
PUBLIC	_acFont32B_1_00E0
PUBLIC	_acFont32B_1_00E1
PUBLIC	_acFont32B_1_00E2
PUBLIC	_acFont32B_1_00E3
PUBLIC	_acFont32B_1_00E4
PUBLIC	_acFont32B_1_00E5
PUBLIC	_acFont32B_1_00E6
PUBLIC	_acFont32B_1_00E7
PUBLIC	_acFont32B_1_00E8
PUBLIC	_acFont32B_1_00E9
PUBLIC	_acFont32B_1_00EA
PUBLIC	_acFont32B_1_00EB
PUBLIC	_acFont32B_1_00EC
PUBLIC	_acFont32B_1_00ED
PUBLIC	_acFont32B_1_00EE
PUBLIC	_acFont32B_1_00EF
PUBLIC	_acFont32B_1_00F0
PUBLIC	_acFont32B_1_00F1
PUBLIC	_acFont32B_1_00F2
PUBLIC	_acFont32B_1_00F3
PUBLIC	_acFont32B_1_00F4
PUBLIC	_acFont32B_1_00F5
PUBLIC	_acFont32B_1_00F6
PUBLIC	_acFont32B_1_00F7
PUBLIC	_acFont32B_1_00F8
PUBLIC	_acFont32B_1_00F9
PUBLIC	_acFont32B_1_00FA
PUBLIC	_acFont32B_1_00FB
PUBLIC	_acFont32B_1_00FC
PUBLIC	_acFont32B_1_00FD
PUBLIC	_acFont32B_1_00FE
PUBLIC	_acFont32B_1_00FF
PUBLIC	_GUI_Font32B_1_CharInfo
PUBLIC	_GUI_Font32B_1_Prop2
PUBLIC	_GUI_Font32B_1_Prop1
PUBLIC	_GUI_Font32B_1
EXTRN	_GUIPROP_IsInFont:PROC
EXTRN	_GUIPROP_GetFontInfo:PROC
EXTRN	_GUIPROP_GetCharDistX:PROC
EXTRN	_GUIPROP_DispChar:PROC
EXTRN	_GUI_Font32B_ASCII_CharInfo:BYTE
CONST	SEGMENT
_acFont32B_1_00A0 DB 00H
	DB	00H
	DB	00H
	DB	00H
	DB	00H
	DB	00H
	DB	00H
	DB	00H
	DB	00H
	DB	00H
	DB	00H
	DB	00H
	DB	00H
	DB	00H
	DB	00H
	DB	00H
	DB	00H
	DB	00H
	DB	00H
	DB	00H
	DB	00H
	DB	00H
	DB	00H
	DB	00H
	DB	00H
	DB	00H
	DB	00H
	DB	00H
	DB	00H
	DB	00H
	DB	00H
	DB	00H
_acFont32B_1_00A1 DB 00H
	DB	00H
	DB	00H
	DB	00H
	DB	00H
	DB	00H
	DB	00H
	DB	00H
	DB	00H
	DB	00H
	DB	03cH
	DB	03cH
	DB	03cH
	DB	03cH
	DB	00H
	DB	00H
	DB	018H
	DB	018H
	DB	018H
	DB	018H
	DB	018H
	DB	03cH
	DB	03cH
	DB	03cH
	DB	03cH
	DB	03cH
	DB	03cH
	DB	03cH
	DB	03cH
	DB	03cH
	DB	00H
	DB	00H
_acFont32B_1_00A2 DB 00H
	DB	00H
	DB	00H
	DB	00H
	DB	00H
	DB	00H
	DB	00H
	DB	00H
	DB	00H
	DB	00H
	DB	00H
	DB	018H
	DB	00H
	DB	038H
	DB	00H
	DB	030H
	DB	00H
	DB	030H
	DB	00H
	DB	070H
	DB	07H
	DB	0e0H
	DB	01fH
	DB	0f0H
	DB	03fH
	DB	0f8H
	DB	03cH
	DB	0f8H
	DB	078H
	DB	0fcH
	DB	078H
	DB	0c0H
	DB	079H
	DB	080H
	DB	079H
	DB	080H
	DB	079H
	DB	080H
	DB	07bH
	DB	03cH
	DB	07bH
	DB	03cH
	DB	03fH
	DB	078H
	DB	03fH
	DB	0f8H
	DB	01fH
	DB	0f0H
	DB	0fH
	DB	0c0H
	DB	0cH
	DB	00H
	DB	0cH
	DB	00H
	DB	0cH
	DB	00H
	DB	018H
	DB	00H
	DB	018H
	DB	00H
	DB	00H
	DB	00H
	DB	00H
	DB	00H
_acFont32B_1_00A3 DB 00H
	DB	00H
	DB	00H
	DB	00H
	DB	00H
	DB	00H
	DB	00H
	DB	00H
	DB	00H
	DB	00H
	DB	0fH
	DB	0c0H
	DB	01fH
	DB	0e0H
	DB	03fH
	DB	0f0H
	DB	07cH
	DB	0f8H
	DB	078H
	DB	078H
	DB	078H
	DB	078H
	DB	078H
	DB	00H
	DB	078H
	DB	00H
	DB	0ffH
	DB	0c0H
	DB	0ffH
	DB	0c0H
	DB	0ffH
	DB	0c0H
	DB	03cH
	DB	00H
	DB	03cH
	DB	00H
	DB	03cH
	DB	00H
	DB	078H
	DB	00H
	DB	078H
	DB	00H
	DB	0ffH
	DB	08H
	DB	0ffH
	DB	0fcH
	DB	07fH
	DB	0fcH
	DB	041H
	DB	0f8H
	DB	00H
	DB	00H
	DB	00H
	DB	00H
	DB	00H
	DB	00H
	DB	00H
	DB	00H
	DB	00H
	DB	00H
	DB	00H
	DB	00H
	DB	00H
	DB	00H
_acFont32B_1_00A4 DB 00H
	DB	00H
	DB	00H
	DB	00H
	DB	00H
	DB	00H
	DB	00H
	DB	00H
	DB	00H
	DB	00H
	DB	00H
	DB	00H
	DB	00H
	DB	00H
	DB	00H
	DB	00H
	DB	00H
	DB	00H
	DB	020H
	DB	010H
	DB	077H
	DB	0b8H
	DB	0ffH
	DB	0fcH
	DB	07fH
	DB	0f8H
	DB	038H
	DB	070H
	DB	070H
	DB	038H
	DB	070H
	DB	038H
	DB	070H
	DB	038H
	DB	070H
	DB	038H
	DB	038H
	DB	070H
	DB	07fH
	DB	0f8H
	DB	0ffH
	DB	0fcH
	DB	077H
	DB	0b8H
	DB	020H
	DB	010H
	DB	00H
	DB	00H
	DB	00H
	DB	00H
	DB	00H
	DB	00H
	DB	00H
	DB	00H
	DB	00H
	DB	00H
	DB	00H
	DB	00H
	DB	00H
	DB	00H
	DB	00H
	DB	00H
	DB	00H
	DB	00H
_acFont32B_1_00A5 DB 00H
	DB	00H
	DB	00H
	DB	00H
	DB	00H
	DB	00H
	DB	00H
	DB	00H
	DB	00H
	DB	00H
	DB	0f0H
	DB	03cH
	DB	078H
	DB	078H
	DB	078H
	DB	078H
	DB	038H
	DB	070H
	DB	03cH
	DB	0f0H
	DB	01cH
	DB	0e0H
	DB	01fH
	DB	0e0H
	DB	01fH
	DB	0e0H
	DB	07fH
	DB	0f8H
	DB	07fH
	DB	0f8H
	DB	07fH
	DB	0f8H
	DB	07H
	DB	080H
	DB	07H
	DB	080H
	DB	07fH
	DB	0f8H
	DB	07fH
	DB	0f8H
	DB	07fH
	DB	0f8H
	DB	07H
	DB	080H
	DB	07H
	DB	080H
	DB	07H
	DB	080H
	DB	07H
	DB	080H
	DB	00H
	DB	00H
	DB	00H
	DB	00H
	DB	00H
	DB	00H
	DB	00H
	DB	00H
	DB	00H
	DB	00H
	DB	00H
	DB	00H
	DB	00H
	DB	00H
_acFont32B_1_00A6 DB 00H
	DB	00H
	DB	00H
	DB	00H
	DB	00H
	DB	038H
	DB	038H
	DB	038H
	DB	038H
	DB	038H
	DB	038H
	DB	038H
	DB	038H
	DB	038H
	DB	038H
	DB	038H
	DB	00H
	DB	00H
	DB	00H
	DB	00H
	DB	038H
	DB	038H
	DB	038H
	DB	038H
	DB	038H
	DB	038H
	DB	038H
	DB	038H
	DB	038H
	DB	038H
	DB	00H
	DB	00H
_acFont32B_1_00A7 DB 00H
	DB	00H
	DB	00H
	DB	00H
	DB	00H
	DB	00H
	DB	00H
	DB	00H
	DB	00H
	DB	00H
	DB	07H
	DB	0c0H
	DB	01fH
	DB	0e0H
	DB	03fH
	DB	0f0H
	DB	03cH
	DB	078H
	DB	03cH
	DB	078H
	DB	03eH
	DB	00H
	DB	01fH
	DB	00H
	DB	01fH
	DB	080H
	DB	03fH
	DB	0e0H
	DB	07bH
	DB	0f0H
	DB	071H
	DB	0f8H
	DB	070H
	DB	07cH
	DB	078H
	DB	03cH
	DB	07cH
	DB	01cH
	DB	03eH
	DB	01cH
	DB	01fH
	DB	03cH
	DB	0fH
	DB	0f8H
	DB	07H
	DB	0f0H
	DB	03H
	DB	0f0H
	DB	00H
	DB	0f8H
	DB	00H
	DB	078H
	DB	03cH
	DB	078H
	DB	03eH
	DB	078H
	DB	01fH
	DB	0f0H
	DB	0fH
	DB	0f0H
	DB	07H
	DB	0c0H
	DB	00H
	DB	00H
_acFont32B_1_00A8 DB 00H
	DB	00H
	DB	00H
	DB	00H
	DB	00H
	DB	00H
	DB	00H
	DB	00H
	DB	00H
	DB	00H
	DB	0e3H
	DB	080H
	DB	0e3H
	DB	080H
	DB	0e3H
	DB	080H
	DB	00H
	DB	00H
	DB	00H
	DB	00H
	DB	00H
	DB	00H
	DB	00H
	DB	00H
	DB	00H
	DB	00H
	DB	00H
	DB	00H
	DB	00H
	DB	00H
	DB	00H
	DB	00H
	DB	00H
	DB	00H
	DB	00H
	DB	00H
	DB	00H
	DB	00H
	DB	00H
	DB	00H
	DB	00H
	DB	00H
	DB	00H
	DB	00H
	DB	00H
	DB	00H
	DB	00H
	DB	00H
	DB	00H
	DB	00H
	DB	00H
	DB	00H
	DB	00H
	DB	00H
	DB	00H
	DB	00H
	DB	00H
	DB	00H
	DB	00H
	DB	00H
	DB	00H
	DB	00H
	DB	00H
	DB	00H
_acFont32B_1_00A9 DB 00H
	DB	00H
	DB	00H
	DB	00H
	DB	00H
	DB	00H
	DB	00H
	DB	00H
	DB	00H
	DB	00H
	DB	00H
	DB	00H
	DB	00H
	DB	00H
	DB	00H
	DB	01H
	DB	0f8H
	DB	00H
	DB	07H
	DB	0feH
	DB	00H
	DB	01eH
	DB	07H
	DB	080H
	DB	038H
	DB	01H
	DB	0c0H
	DB	030H
	DB	0f0H
	DB	0c0H
	DB	063H
	DB	0f8H
	DB	060H
	DB	063H
	DB	01cH
	DB	060H
	DB	0c6H
	DB	0cH
	DB	030H
	DB	0c6H
	DB	00H
	DB	030H
	DB	0c6H
	DB	00H
	DB	030H
	DB	0c6H
	DB	00H
	DB	030H
	DB	0c6H
	DB	00H
	DB	030H
	DB	0c6H
	DB	0cH
	DB	030H
	DB	063H
	DB	01cH
	DB	060H
	DB	063H
	DB	0f8H
	DB	060H
	DB	030H
	DB	0f0H
	DB	0c0H
	DB	038H
	DB	01H
	DB	0c0H
	DB	01eH
	DB	07H
	DB	080H
	DB	07H
	DB	0feH
	DB	00H
	DB	01H
	DB	0f8H
	DB	00H
	DB	00H
	DB	00H
	DB	00H
	DB	00H
	DB	00H
	DB	00H
	DB	00H
	DB	00H
	DB	00H
	DB	00H
	DB	00H
	DB	00H
	DB	00H
	DB	00H
	DB	00H
	DB	00H
	DB	00H
	DB	00H
	DB	00H
	DB	00H
	DB	00H
_acFont32B_1_00AA DB 00H
	DB	00H
	DB	00H
	DB	00H
	DB	00H
	DB	00H
	DB	00H
	DB	00H
	DB	00H
	DB	00H
	DB	03fH
	DB	00H
	DB	07fH
	DB	080H
	DB	0e3H
	DB	080H
	DB	03H
	DB	080H
	DB	03fH
	DB	080H
	DB	0ffH
	DB	080H
	DB	0e3H
	DB	080H
	DB	0e7H
	DB	080H
	DB	0ffH
	DB	080H
	DB	07bH
	DB	080H
	DB	00H
	DB	00H
	DB	00H
	DB	00H
	DB	00H
	DB	00H
	DB	00H
	DB	00H
	DB	00H
	DB	00H
	DB	00H
	DB	00H
	DB	00H
	DB	00H
	DB	00H
	DB	00H
	DB	00H
	DB	00H
	DB	00H
	DB	00H
	DB	00H
	DB	00H
	DB	00H
	DB	00H
	DB	00H
	DB	00H
	DB	00H
	DB	00H
	DB	00H
	DB	00H
	DB	00H
	DB	00H
	DB	00H
	DB	00H
_acFont32B_1_00AB DB 00H
	DB	00H
	DB	00H
	DB	00H
	DB	00H
	DB	00H
	DB	00H
	DB	00H
	DB	00H
	DB	00H
	DB	00H
	DB	00H
	DB	00H
	DB	00H
	DB	00H
	DB	00H
	DB	00H
	DB	00H
	DB	00H
	DB	00H
	DB	00H
	DB	00H
	DB	00H
	DB	00H
	DB	07H
	DB	01cH
	DB	0eH
	DB	038H
	DB	01eH
	DB	078H
	DB	01cH
	DB	070H
	DB	03cH
	DB	0f0H
	DB	079H
	DB	0e0H
	DB	079H
	DB	0e0H
	DB	03cH
	DB	0f0H
	DB	01cH
	DB	070H
	DB	01eH
	DB	078H
	DB	0eH
	DB	038H
	DB	07H
	DB	01cH
	DB	00H
	DB	00H
	DB	00H
	DB	00H
	DB	00H
	DB	00H
	DB	00H
	DB	00H
	DB	00H
	DB	00H
	DB	00H
	DB	00H
	DB	00H
	DB	00H
	DB	00H
	DB	00H
_acFont32B_1_00AC DB 00H
	DB	00H
	DB	00H
	DB	00H
	DB	00H
	DB	00H
	DB	00H
	DB	00H
	DB	00H
	DB	00H
	DB	00H
	DB	00H
	DB	00H
	DB	00H
	DB	00H
	DB	00H
	DB	00H
	DB	00H
	DB	00H
	DB	00H
	DB	07fH
	DB	0feH
	DB	07fH
	DB	0feH
	DB	07fH
	DB	0feH
	DB	07fH
	DB	0feH
	DB	00H
	DB	01eH
	DB	00H
	DB	01eH
	DB	00H
	DB	01eH
	DB	00H
	DB	01eH
	DB	00H
	DB	01eH
	DB	00H
	DB	01eH
	DB	00H
	DB	00H
	DB	00H
	DB	00H
	DB	00H
	DB	00H
	DB	00H
	DB	00H
	DB	00H
	DB	00H
	DB	00H
	DB	00H
	DB	00H
	DB	00H
	DB	00H
	DB	00H
	DB	00H
	DB	00H
	DB	00H
	DB	00H
	DB	00H
	DB	00H
	DB	00H
	DB	00H
_acFont32B_1_00AD DB 00H
	DB	00H
	DB	00H
	DB	00H
	DB	00H
	DB	00H
	DB	00H
	DB	00H
	DB	00H
	DB	00H
	DB	00H
	DB	00H
	DB	00H
	DB	00H
	DB	00H
	DB	00H
	DB	00H
	DB	00H
	DB	00H
	DB	00H
	DB	00H
	DB	00H
	DB	00H
	DB	00H
	DB	00H
	DB	00H
	DB	00H
	DB	00H
	DB	00H
	DB	00H
	DB	00H
	DB	00H
	DB	07fH
	DB	080H
	DB	07fH
	DB	080H
	DB	07fH
	DB	080H
	DB	07fH
	DB	080H
	DB	00H
	DB	00H
	DB	00H
	DB	00H
	DB	00H
	DB	00H
	DB	00H
	DB	00H
	DB	00H
	DB	00H
	DB	00H
	DB	00H
	DB	00H
	DB	00H
	DB	00H
	DB	00H
	DB	00H
	DB	00H
	DB	00H
	DB	00H
	DB	00H
	DB	00H
	DB	00H
	DB	00H
_acFont32B_1_00AE DB 00H
	DB	00H
	DB	00H
	DB	00H
	DB	00H
	DB	00H
	DB	00H
	DB	00H
	DB	00H
	DB	00H
	DB	00H
	DB	00H
	DB	00H
	DB	00H
	DB	00H
	DB	01H
	DB	0f8H
	DB	00H
	DB	07H
	DB	0feH
	DB	00H
	DB	01eH
	DB	07H
	DB	080H
	DB	038H
	DB	01H
	DB	0c0H
	DB	033H
	DB	0f0H
	DB	0c0H
	DB	063H
	DB	0f8H
	DB	060H
	DB	063H
	DB	018H
	DB	060H
	DB	0c3H
	DB	018H
	DB	030H
	DB	0c3H
	DB	018H
	DB	030H
	DB	0c3H
	DB	0f8H
	DB	030H
	DB	0c3H
	DB	0f0H
	DB	030H
	DB	0c3H
	DB	030H
	DB	030H
	DB	0c3H
	DB	038H
	DB	030H
	DB	063H
	DB	018H
	DB	060H
	DB	063H
	DB	01cH
	DB	060H
	DB	033H
	DB	0cH
	DB	0c0H
	DB	038H
	DB	01H
	DB	0c0H
	DB	01eH
	DB	07H
	DB	080H
	DB	07H
	DB	0feH
	DB	00H
	DB	01H
	DB	0f8H
	DB	00H
	DB	00H
	DB	00H
	DB	00H
	DB	00H
	DB	00H
	DB	00H
	DB	00H
	DB	00H
	DB	00H
	DB	00H
	DB	00H
	DB	00H
	DB	00H
	DB	00H
	DB	00H
	DB	00H
	DB	00H
	DB	00H
	DB	00H
	DB	00H
	DB	00H
_acFont32B_1_00AF DB 00H
	DB	00H
	DB	00H
	DB	00H
	DB	0ffH
	DB	0feH
	DB	0ffH
	DB	0feH
	DB	0ffH
	DB	0feH
	DB	00H
	DB	00H
	DB	00H
	DB	00H
	DB	00H
	DB	00H
	DB	00H
	DB	00H
	DB	00H
	DB	00H
	DB	00H
	DB	00H
	DB	00H
	DB	00H
	DB	00H
	DB	00H
	DB	00H
	DB	00H
	DB	00H
	DB	00H
	DB	00H
	DB	00H
	DB	00H
	DB	00H
	DB	00H
	DB	00H
	DB	00H
	DB	00H
	DB	00H
	DB	00H
	DB	00H
	DB	00H
	DB	00H
	DB	00H
	DB	00H
	DB	00H
	DB	00H
	DB	00H
	DB	00H
	DB	00H
	DB	00H
	DB	00H
	DB	00H
	DB	00H
	DB	00H
	DB	00H
	DB	00H
	DB	00H
	DB	00H
	DB	00H
	DB	00H
	DB	00H
	DB	00H
	DB	00H
_acFont32B_1_00B0 DB 00H
	DB	00H
	DB	00H
	DB	00H
	DB	00H
	DB	00H
	DB	00H
	DB	00H
	DB	00H
	DB	00H
	DB	01eH
	DB	00H
	DB	03fH
	DB	00H
	DB	073H
	DB	080H
	DB	061H
	DB	080H
	DB	061H
	DB	080H
	DB	073H
	DB	080H
	DB	03fH
	DB	00H
	DB	01eH
	DB	00H
	DB	00H
	DB	00H
	DB	00H
	DB	00H
	DB	00H
	DB	00H
	DB	00H
	DB	00H
	DB	00H
	DB	00H
	DB	00H
	DB	00H
	DB	00H
	DB	00H
	DB	00H
	DB	00H
	DB	00H
	DB	00H
	DB	00H
	DB	00H
	DB	00H
	DB	00H
	DB	00H
	DB	00H
	DB	00H
	DB	00H
	DB	00H
	DB	00H
	DB	00H
	DB	00H
	DB	00H
	DB	00H
	DB	00H
	DB	00H
	DB	00H
	DB	00H
	DB	00H
	DB	00H
_acFont32B_1_00B1 DB 00H
	DB	00H
	DB	00H
	DB	00H
	DB	00H
	DB	00H
	DB	00H
	DB	00H
	DB	00H
	DB	00H
	DB	00H
	DB	00H
	DB	03H
	DB	0c0H
	DB	03H
	DB	0c0H
	DB	03H
	DB	0c0H
	DB	03H
	DB	0c0H
	DB	03H
	DB	0c0H
	DB	07fH
	DB	0feH
	DB	07fH
	DB	0feH
	DB	07fH
	DB	0feH
	DB	07fH
	DB	0feH
	DB	03H
	DB	0c0H
	DB	03H
	DB	0c0H
	DB	03H
	DB	0c0H
	DB	03H
	DB	0c0H
	DB	03H
	DB	0c0H
	DB	00H
	DB	00H
	DB	07fH
	DB	0feH
	DB	07fH
	DB	0feH
	DB	07fH
	DB	0feH
	DB	07fH
	DB	0feH
	DB	00H
	DB	00H
	DB	00H
	DB	00H
	DB	00H
	DB	00H
	DB	00H
	DB	00H
	DB	00H
	DB	00H
	DB	00H
	DB	00H
	DB	00H
	DB	00H
_acFont32B_1_00B2 DB 00H
	DB	00H
	DB	00H
	DB	00H
	DB	00H
	DB	00H
	DB	00H
	DB	00H
	DB	00H
	DB	00H
	DB	03cH
	DB	00H
	DB	0ffH
	DB	00H
	DB	0e7H
	DB	00H
	DB	07H
	DB	00H
	DB	0eH
	DB	00H
	DB	01eH
	DB	00H
	DB	038H
	DB	00H
	DB	070H
	DB	00H
	DB	0ffH
	DB	00H
	DB	0ffH
	DB	00H
	DB	00H
	DB	00H
	DB	00H
	DB	00H
	DB	00H
	DB	00H
	DB	00H
	DB	00H
	DB	00H
	DB	00H
	DB	00H
	DB	00H
	DB	00H
	DB	00H
	DB	00H
	DB	00H
	DB	00H
	DB	00H
	DB	00H
	DB	00H
	DB	00H
	DB	00H
	DB	00H
	DB	00H
	DB	00H
	DB	00H
	DB	00H
	DB	00H
	DB	00H
	DB	00H
	DB	00H
	DB	00H
	DB	00H
	DB	00H
_acFont32B_1_00B3 DB 00H
	DB	00H
	DB	00H
	DB	00H
	DB	00H
	DB	00H
	DB	00H
	DB	00H
	DB	00H
	DB	00H
	DB	01fH
	DB	00H
	DB	03fH
	DB	080H
	DB	073H
	DB	080H
	DB	0fH
	DB	00H
	DB	0fH
	DB	00H
	DB	03H
	DB	080H
	DB	03H
	DB	080H
	DB	073H
	DB	080H
	DB	03fH
	DB	00H
	DB	01eH
	DB	00H
	DB	00H
	DB	00H
	DB	00H
	DB	00H
	DB	00H
	DB	00H
	DB	00H
	DB	00H
	DB	00H
	DB	00H
	DB	00H
	DB	00H
	DB	00H
	DB	00H
	DB	00H
	DB	00H
	DB	00H
	DB	00H
	DB	00H
	DB	00H
	DB	00H
	DB	00H
	DB	00H
	DB	00H
	DB	00H
	DB	00H
	DB	00H
	DB	00H
	DB	00H
	DB	00H
	DB	00H
	DB	00H
	DB	00H
	DB	00H
_acFont32B_1_00B4 DB 00H
	DB	00H
	DB	00H
	DB	00H
	DB	00H
	DB	00H
	DB	00H
	DB	00H
	DB	00H
	DB	00H
	DB	0fH
	DB	00H
	DB	01eH
	DB	00H
	DB	01cH
	DB	00H
	DB	038H
	DB	00H
	DB	00H
	DB	00H
	DB	00H
	DB	00H
	DB	00H
	DB	00H
	DB	00H
	DB	00H
	DB	00H
	DB	00H
	DB	00H
	DB	00H
	DB	00H
	DB	00H
	DB	00H
	DB	00H
	DB	00H
	DB	00H
	DB	00H
	DB	00H
	DB	00H
	DB	00H
	DB	00H
	DB	00H
	DB	00H
	DB	00H
	DB	00H
	DB	00H
	DB	00H
	DB	00H
	DB	00H
	DB	00H
	DB	00H
	DB	00H
	DB	00H
	DB	00H
	DB	00H
	DB	00H
	DB	00H
	DB	00H
	DB	00H
	DB	00H
	DB	00H
	DB	00H
	DB	00H
	DB	00H
_acFont32B_1_00B5 DB 00H
	DB	00H
	DB	00H
	DB	00H
	DB	00H
	DB	00H
	DB	00H
	DB	00H
	DB	00H
	DB	00H
	DB	00H
	DB	00H
	DB	00H
	DB	00H
	DB	00H
	DB	00H
	DB	00H
	DB	00H
	DB	00H
	DB	00H
	DB	03cH
	DB	01eH
	DB	03cH
	DB	01eH
	DB	03cH
	DB	01eH
	DB	03cH
	DB	01eH
	DB	03cH
	DB	01eH
	DB	03cH
	DB	01eH
	DB	03cH
	DB	01eH
	DB	03cH
	DB	01eH
	DB	03cH
	DB	01eH
	DB	03cH
	DB	01eH
	DB	03cH
	DB	01eH
	DB	03eH
	DB	03eH
	DB	03fH
	DB	0feH
	DB	03fH
	DB	0feH
	DB	03dH
	DB	0deH
	DB	03cH
	DB	00H
	DB	03cH
	DB	00H
	DB	03cH
	DB	00H
	DB	03cH
	DB	00H
	DB	03cH
	DB	00H
	DB	00H
	DB	00H
	DB	00H
	DB	00H
_acFont32B_1_00B6 DB 00H
	DB	00H
	DB	00H
	DB	00H
	DB	00H
	DB	00H
	DB	00H
	DB	00H
	DB	00H
	DB	00H
	DB	01fH
	DB	0fcH
	DB	07fH
	DB	0fcH
	DB	07fH
	DB	0fcH
	DB	0ffH
	DB	038H
	DB	0ffH
	DB	038H
	DB	0ffH
	DB	038H
	DB	0ffH
	DB	038H
	DB	0ffH
	DB	038H
	DB	07fH
	DB	038H
	DB	07fH
	DB	038H
	DB	01fH
	DB	038H
	DB	07H
	DB	038H
	DB	07H
	DB	038H
	DB	07H
	DB	038H
	DB	07H
	DB	038H
	DB	07H
	DB	038H
	DB	07H
	DB	038H
	DB	07H
	DB	038H
	DB	07H
	DB	038H
	DB	07H
	DB	038H
	DB	07H
	DB	038H
	DB	07H
	DB	038H
	DB	07H
	DB	038H
	DB	07H
	DB	038H
	DB	07H
	DB	038H
	DB	00H
	DB	00H
	DB	00H
	DB	00H
_acFont32B_1_00B7 DB 00H
	DB	00H
	DB	00H
	DB	00H
	DB	00H
	DB	00H
	DB	00H
	DB	00H
	DB	00H
	DB	00H
	DB	00H
	DB	00H
	DB	00H
	DB	03cH
	DB	03cH
	DB	03cH
	DB	03cH
	DB	00H
	DB	00H
	DB	00H
	DB	00H
	DB	00H
	DB	00H
	DB	00H
	DB	00H
	DB	00H
	DB	00H
	DB	00H
	DB	00H
	DB	00H
	DB	00H
	DB	00H
_acFont32B_1_00B8 DB 00H
	DB	00H
	DB	00H
	DB	00H
	DB	00H
	DB	00H
	DB	00H
	DB	00H
	DB	00H
	DB	00H
	DB	00H
	DB	00H
	DB	00H
	DB	00H
	DB	00H
	DB	00H
	DB	00H
	DB	00H
	DB	00H
	DB	00H
	DB	00H
	DB	00H
	DB	00H
	DB	00H
	DB	00H
	DB	00H
	DB	00H
	DB	00H
	DB	00H
	DB	00H
	DB	00H
	DB	00H
	DB	00H
	DB	00H
	DB	00H
	DB	00H
	DB	00H
	DB	00H
	DB	00H
	DB	00H
	DB	00H
	DB	00H
	DB	00H
	DB	00H
	DB	00H
	DB	00H
	DB	00H
	DB	00H
	DB	00H
	DB	00H
	DB	03eH
	DB	00H
	DB	07H
	DB	00H
	DB	07H
	DB	00H
	DB	07H
	DB	00H
	DB	07cH
	DB	00H
	DB	00H
	DB	00H
	DB	00H
	DB	00H
_acFont32B_1_00B9 DB 00H
	DB	00H
	DB	00H
	DB	00H
	DB	00H
	DB	00H
	DB	00H
	DB	00H
	DB	00H
	DB	00H
	DB	01cH
	DB	00H
	DB	03cH
	DB	00H
	DB	07cH
	DB	00H
	DB	05cH
	DB	00H
	DB	01cH
	DB	00H
	DB	01cH
	DB	00H
	DB	01cH
	DB	00H
	DB	01cH
	DB	00H
	DB	01cH
	DB	00H
	DB	01cH
	DB	00H
	DB	00H
	DB	00H
	DB	00H
	DB	00H
	DB	00H
	DB	00H
	DB	00H
	DB	00H
	DB	00H
	DB	00H
	DB	00H
	DB	00H
	DB	00H
	DB	00H
	DB	00H
	DB	00H
	DB	00H
	DB	00H
	DB	00H
	DB	00H
	DB	00H
	DB	00H
	DB	00H
	DB	00H
	DB	00H
	DB	00H
	DB	00H
	DB	00H
	DB	00H
	DB	00H
	DB	00H
	DB	00H
	DB	00H
	DB	00H
_acFont32B_1_00BA DB 00H
	DB	00H
	DB	00H
	DB	00H
	DB	00H
	DB	00H
	DB	00H
	DB	00H
	DB	00H
	DB	00H
	DB	01fH
	DB	00H
	DB	03fH
	DB	080H
	DB	07bH
	DB	0c0H
	DB	071H
	DB	0c0H
	DB	071H
	DB	0c0H
	DB	071H
	DB	0c0H
	DB	071H
	DB	0c0H
	DB	07bH
	DB	0c0H
	DB	03fH
	DB	080H
	DB	01fH
	DB	00H
	DB	00H
	DB	00H
	DB	00H
	DB	00H
	DB	00H
	DB	00H
	DB	00H
	DB	00H
	DB	00H
	DB	00H
	DB	00H
	DB	00H
	DB	00H
	DB	00H
	DB	00H
	DB	00H
	DB	00H
	DB	00H
	DB	00H
	DB	00H
	DB	00H
	DB	00H
	DB	00H
	DB	00H
	DB	00H
	DB	00H
	DB	00H
	DB	00H
	DB	00H
	DB	00H
	DB	00H
	DB	00H
	DB	00H
	DB	00H
_acFont32B_1_00BB DB 00H
	DB	00H
	DB	00H
	DB	00H
	DB	00H
	DB	00H
	DB	00H
	DB	00H
	DB	00H
	DB	00H
	DB	00H
	DB	00H
	DB	00H
	DB	00H
	DB	00H
	DB	00H
	DB	00H
	DB	00H
	DB	00H
	DB	00H
	DB	00H
	DB	00H
	DB	00H
	DB	00H
	DB	071H
	DB	0c0H
	DB	038H
	DB	0e0H
	DB	03cH
	DB	0f0H
	DB	01cH
	DB	070H
	DB	01eH
	DB	078H
	DB	0fH
	DB	03cH
	DB	0fH
	DB	03cH
	DB	01eH
	DB	078H
	DB	01cH
	DB	070H
	DB	03cH
	DB	0f0H
	DB	038H
	DB	0e0H
	DB	071H
	DB	0c0H
	DB	00H
	DB	00H
	DB	00H
	DB	00H
	DB	00H
	DB	00H
	DB	00H
	DB	00H
	DB	00H
	DB	00H
	DB	00H
	DB	00H
	DB	00H
	DB	00H
	DB	00H
	DB	00H
_acFont32B_1_00BC DB 00H
	DB	00H
	DB	00H
	DB	00H
	DB	00H
	DB	00H
	DB	00H
	DB	00H
	DB	00H
	DB	00H
	DB	00H
	DB	00H
	DB	00H
	DB	00H
	DB	00H
	DB	0eH
	DB	01H
	DB	0c0H
	DB	01eH
	DB	01H
	DB	0c0H
	DB	07eH
	DB	03H
	DB	080H
	DB	06eH
	DB	07H
	DB	080H
	DB	0eH
	DB	07H
	DB	00H
	DB	0eH
	DB	0eH
	DB	00H
	DB	0eH
	DB	0eH
	DB	00H
	DB	0eH
	DB	01cH
	DB	00H
	DB	0eH
	DB	01cH
	DB	00H
	DB	0eH
	DB	038H
	DB	00H
	DB	00H
	DB	070H
	DB	01cH
	DB	00H
	DB	070H
	DB	03cH
	DB	00H
	DB	0e0H
	DB	07cH
	DB	00H
	DB	0e0H
	DB	0dcH
	DB	01H
	DB	0c1H
	DB	09cH
	DB	01H
	DB	0c3H
	DB	01cH
	DB	03H
	DB	083H
	DB	0feH
	DB	07H
	DB	03H
	DB	0feH
	DB	07H
	DB	00H
	DB	01cH
	DB	0eH
	DB	00H
	DB	01cH
	DB	00H
	DB	00H
	DB	00H
	DB	00H
	DB	00H
	DB	00H
	DB	00H
	DB	00H
	DB	00H
	DB	00H
	DB	00H
	DB	00H
	DB	00H
	DB	00H
	DB	00H
	DB	00H
	DB	00H
	DB	00H
	DB	00H
	DB	00H
	DB	00H
_acFont32B_1_00BD DB 00H
	DB	00H
	DB	00H
	DB	00H
	DB	00H
	DB	00H
	DB	00H
	DB	00H
	DB	00H
	DB	00H
	DB	00H
	DB	00H
	DB	00H
	DB	00H
	DB	00H
	DB	0eH
	DB	01H
	DB	0c0H
	DB	01eH
	DB	03H
	DB	080H
	DB	07eH
	DB	03H
	DB	080H
	DB	06eH
	DB	07H
	DB	00H
	DB	0eH
	DB	07H
	DB	00H
	DB	0eH
	DB	0eH
	DB	00H
	DB	0eH
	DB	01cH
	DB	00H
	DB	0eH
	DB	01cH
	DB	00H
	DB	0eH
	DB	038H
	DB	00H
	DB	0eH
	DB	038H
	DB	00H
	DB	00H
	DB	070H
	DB	0f0H
	DB	00H
	DB	073H
	DB	0fcH
	DB	00H
	DB	0e3H
	DB	09cH
	DB	00H
	DB	0e0H
	DB	01cH
	DB	01H
	DB	0c0H
	DB	038H
	DB	03H
	DB	0c0H
	DB	078H
	DB	03H
	DB	080H
	DB	0e0H
	DB	07H
	DB	01H
	DB	0c0H
	DB	07H
	DB	03H
	DB	0fcH
	DB	0eH
	DB	03H
	DB	0fcH
	DB	00H
	DB	00H
	DB	00H
	DB	00H
	DB	00H
	DB	00H
	DB	00H
	DB	00H
	DB	00H
	DB	00H
	DB	00H
	DB	00H
	DB	00H
	DB	00H
	DB	00H
	DB	00H
	DB	00H
	DB	00H
	DB	00H
	DB	00H
	DB	00H
_acFont32B_1_00BE DB 00H
	DB	00H
	DB	00H
	DB	00H
	DB	00H
	DB	00H
	DB	00H
	DB	00H
	DB	00H
	DB	00H
	DB	00H
	DB	00H
	DB	00H
	DB	00H
	DB	00H
	DB	03eH
	DB	00H
	DB	0e0H
	DB	07fH
	DB	01H
	DB	0c0H
	DB	0e7H
	DB	03H
	DB	080H
	DB	01eH
	DB	03H
	DB	080H
	DB	01eH
	DB	07H
	DB	00H
	DB	07H
	DB	07H
	DB	00H
	DB	07H
	DB	0eH
	DB	00H
	DB	0e7H
	DB	01cH
	DB	00H
	DB	07eH
	DB	01cH
	DB	00H
	DB	03cH
	DB	038H
	DB	00H
	DB	00H
	DB	038H
	DB	01cH
	DB	00H
	DB	070H
	DB	03cH
	DB	00H
	DB	0e0H
	DB	07cH
	DB	00H
	DB	0e0H
	DB	0dcH
	DB	01H
	DB	0c1H
	DB	09cH
	DB	01H
	DB	0c3H
	DB	01cH
	DB	03H
	DB	083H
	DB	0feH
	DB	07H
	DB	03H
	DB	0feH
	DB	07H
	DB	00H
	DB	01cH
	DB	0eH
	DB	00H
	DB	01cH
	DB	00H
	DB	00H
	DB	00H
	DB	00H
	DB	00H
	DB	00H
	DB	00H
	DB	00H
	DB	00H
	DB	00H
	DB	00H
	DB	00H
	DB	00H
	DB	00H
	DB	00H
	DB	00H
	DB	00H
	DB	00H
	DB	00H
	DB	00H
	DB	00H
_acFont32B_1_00BF DB 00H
	DB	00H
	DB	00H
	DB	00H
	DB	00H
	DB	00H
	DB	00H
	DB	00H
	DB	00H
	DB	00H
	DB	00H
	DB	00H
	DB	00H
	DB	00H
	DB	00H
	DB	00H
	DB	00H
	DB	00H
	DB	00H
	DB	00H
	DB	00H
	DB	00H
	DB	00H
	DB	00H
	DB	00H
	DB	00H
	DB	00H
	DB	00H
	DB	00H
	DB	00H
	DB	01H
	DB	0e0H
	DB	00H
	DB	01H
	DB	0e0H
	DB	00H
	DB	01H
	DB	0e0H
	DB	00H
	DB	01H
	DB	0e0H
	DB	00H
	DB	00H
	DB	00H
	DB	00H
	DB	00H
	DB	00H
	DB	00H
	DB	01H
	DB	0e0H
	DB	00H
	DB	01H
	DB	0e0H
	DB	00H
	DB	03H
	DB	0e0H
	DB	00H
	DB	07H
	DB	0c0H
	DB	00H
	DB	0fH
	DB	080H
	DB	00H
	DB	01fH
	DB	00H
	DB	00H
	DB	03eH
	DB	00H
	DB	00H
	DB	03cH
	DB	00H
	DB	00H
	DB	03cH
	DB	0fH
	DB	00H
	DB	03cH
	DB	01fH
	DB	00H
	DB	01eH
	DB	01eH
	DB	00H
	DB	01fH
	DB	0feH
	DB	00H
	DB	0fH
	DB	0fcH
	DB	00H
	DB	03H
	DB	0f0H
	DB	00H
	DB	00H
	DB	00H
	DB	00H
	DB	00H
	DB	00H
	DB	00H
_acFont32B_1_00C0 DB 03H
	DB	0c0H
	DB	00H
	DB	01H
	DB	0e0H
	DB	00H
	DB	00H
	DB	0e0H
	DB	00H
	DB	00H
	DB	070H
	DB	00H
	DB	00H
	DB	00H
	DB	00H
	DB	01H
	DB	0f0H
	DB	00H
	DB	03H
	DB	0f8H
	DB	00H
	DB	03H
	DB	0f8H
	DB	00H
	DB	03H
	DB	0f8H
	DB	00H
	DB	07H
	DB	0bcH
	DB	00H
	DB	07H
	DB	0bcH
	DB	00H
	DB	07H
	DB	0bcH
	DB	00H
	DB	0fH
	DB	01eH
	DB	00H
	DB	0fH
	DB	01eH
	DB	00H
	DB	0fH
	DB	01eH
	DB	00H
	DB	01eH
	DB	0fH
	DB	00H
	DB	01eH
	DB	0fH
	DB	00H
	DB	01fH
	DB	0ffH
	DB	00H
	DB	03fH
	DB	0ffH
	DB	080H
	DB	03fH
	DB	0ffH
	DB	080H
	DB	03cH
	DB	07H
	DB	080H
	DB	078H
	DB	03H
	DB	0c0H
	DB	078H
	DB	03H
	DB	0c0H
	DB	078H
	DB	03H
	DB	0c0H
	DB	0f0H
	DB	01H
	DB	0e0H
	DB	00H
	DB	00H
	DB	00H
	DB	00H
	DB	00H
	DB	00H
	DB	00H
	DB	00H
	DB	00H
	DB	00H
	DB	00H
	DB	00H
	DB	00H
	DB	00H
	DB	00H
	DB	00H
	DB	00H
	DB	00H
	DB	00H
	DB	00H
	DB	00H
_acFont32B_1_00C1 DB 00H
	DB	078H
	DB	00H
	DB	00H
	DB	0f0H
	DB	00H
	DB	00H
	DB	0e0H
	DB	00H
	DB	01H
	DB	0c0H
	DB	00H
	DB	00H
	DB	00H
	DB	00H
	DB	01H
	DB	0f0H
	DB	00H
	DB	03H
	DB	0f8H
	DB	00H
	DB	03H
	DB	0f8H
	DB	00H
	DB	03H
	DB	0f8H
	DB	00H
	DB	07H
	DB	0bcH
	DB	00H
	DB	07H
	DB	0bcH
	DB	00H
	DB	07H
	DB	0bcH
	DB	00H
	DB	0fH
	DB	01eH
	DB	00H
	DB	0fH
	DB	01eH
	DB	00H
	DB	0fH
	DB	01eH
	DB	00H
	DB	01eH
	DB	0fH
	DB	00H
	DB	01eH
	DB	0fH
	DB	00H
	DB	01fH
	DB	0ffH
	DB	00H
	DB	03fH
	DB	0ffH
	DB	080H
	DB	03fH
	DB	0ffH
	DB	080H
	DB	03cH
	DB	07H
	DB	080H
	DB	078H
	DB	03H
	DB	0c0H
	DB	078H
	DB	03H
	DB	0c0H
	DB	078H
	DB	03H
	DB	0c0H
	DB	0f0H
	DB	01H
	DB	0e0H
	DB	00H
	DB	00H
	DB	00H
	DB	00H
	DB	00H
	DB	00H
	DB	00H
	DB	00H
	DB	00H
	DB	00H
	DB	00H
	DB	00H
	DB	00H
	DB	00H
	DB	00H
	DB	00H
	DB	00H
	DB	00H
	DB	00H
	DB	00H
	DB	00H
_acFont32B_1_00C2 DB 00H
	DB	0e0H
	DB	00H
	DB	01H
	DB	0f0H
	DB	00H
	DB	03H
	DB	0b8H
	DB	00H
	DB	07H
	DB	01cH
	DB	00H
	DB	00H
	DB	00H
	DB	00H
	DB	01H
	DB	0f0H
	DB	00H
	DB	03H
	DB	0f8H
	DB	00H
	DB	03H
	DB	0f8H
	DB	00H
	DB	03H
	DB	0f8H
	DB	00H
	DB	07H
	DB	0bcH
	DB	00H
	DB	07H
	DB	0bcH
	DB	00H
	DB	07H
	DB	0bcH
	DB	00H
	DB	0fH
	DB	01eH
	DB	00H
	DB	0fH
	DB	01eH
	DB	00H
	DB	0fH
	DB	01eH
	DB	00H
	DB	01eH
	DB	0fH
	DB	00H
	DB	01eH
	DB	0fH
	DB	00H
	DB	01fH
	DB	0ffH
	DB	00H
	DB	03fH
	DB	0ffH
	DB	080H
	DB	03fH
	DB	0ffH
	DB	080H
	DB	03cH
	DB	07H
	DB	080H
	DB	078H
	DB	03H
	DB	0c0H
	DB	078H
	DB	03H
	DB	0c0H
	DB	078H
	DB	03H
	DB	0c0H
	DB	0f0H
	DB	01H
	DB	0e0H
	DB	00H
	DB	00H
	DB	00H
	DB	00H
	DB	00H
	DB	00H
	DB	00H
	DB	00H
	DB	00H
	DB	00H
	DB	00H
	DB	00H
	DB	00H
	DB	00H
	DB	00H
	DB	00H
	DB	00H
	DB	00H
	DB	00H
	DB	00H
	DB	00H
_acFont32B_1_00C3 DB 00H
	DB	00H
	DB	00H
	DB	03H
	DB	08cH
	DB	00H
	DB	07H
	DB	0fcH
	DB	00H
	DB	06H
	DB	038H
	DB	00H
	DB	00H
	DB	00H
	DB	00H
	DB	01H
	DB	0f0H
	DB	00H
	DB	03H
	DB	0f8H
	DB	00H
	DB	03H
	DB	0f8H
	DB	00H
	DB	03H
	DB	0f8H
	DB	00H
	DB	07H
	DB	0bcH
	DB	00H
	DB	07H
	DB	0bcH
	DB	00H
	DB	07H
	DB	0bcH
	DB	00H
	DB	0fH
	DB	01eH
	DB	00H
	DB	0fH
	DB	01eH
	DB	00H
	DB	0fH
	DB	01eH
	DB	00H
	DB	01eH
	DB	0fH
	DB	00H
	DB	01eH
	DB	0fH
	DB	00H
	DB	01fH
	DB	0ffH
	DB	00H
	DB	03fH
	DB	0ffH
	DB	080H
	DB	03fH
	DB	0ffH
	DB	080H
	DB	03cH
	DB	07H
	DB	080H
	DB	078H
	DB	03H
	DB	0c0H
	DB	078H
	DB	03H
	DB	0c0H
	DB	078H
	DB	03H
	DB	0c0H
	DB	0f0H
	DB	01H
	DB	0e0H
	DB	00H
	DB	00H
	DB	00H
	DB	00H
	DB	00H
	DB	00H
	DB	00H
	DB	00H
	DB	00H
	DB	00H
	DB	00H
	DB	00H
	DB	00H
	DB	00H
	DB	00H
	DB	00H
	DB	00H
	DB	00H
	DB	00H
	DB	00H
	DB	00H
_acFont32B_1_00C4 DB 00H
	DB	00H
	DB	00H
	DB	07H
	DB	01cH
	DB	00H
	DB	07H
	DB	01cH
	DB	00H
	DB	07H
	DB	01cH
	DB	00H
	DB	00H
	DB	00H
	DB	00H
	DB	01H
	DB	0f0H
	DB	00H
	DB	03H
	DB	0f8H
	DB	00H
	DB	03H
	DB	0f8H
	DB	00H
	DB	03H
	DB	0f8H
	DB	00H
	DB	07H
	DB	0bcH
	DB	00H
	DB	07H
	DB	0bcH
	DB	00H
	DB	07H
	DB	0bcH
	DB	00H
	DB	0fH
	DB	01eH
	DB	00H
	DB	0fH
	DB	01eH
	DB	00H
	DB	0fH
	DB	01eH
	DB	00H
	DB	01eH
	DB	0fH
	DB	00H
	DB	01eH
	DB	0fH
	DB	00H
	DB	01fH
	DB	0ffH
	DB	00H
	DB	03fH
	DB	0ffH
	DB	080H
	DB	03fH
	DB	0ffH
	DB	080H
	DB	03cH
	DB	07H
	DB	080H
	DB	078H
	DB	03H
	DB	0c0H
	DB	078H
	DB	03H
	DB	0c0H
	DB	078H
	DB	03H
	DB	0c0H
	DB	0f0H
	DB	01H
	DB	0e0H
	DB	00H
	DB	00H
	DB	00H
	DB	00H
	DB	00H
	DB	00H
	DB	00H
	DB	00H
	DB	00H
	DB	00H
	DB	00H
	DB	00H
	DB	00H
	DB	00H
	DB	00H
	DB	00H
	DB	00H
	DB	00H
	DB	00H
	DB	00H
	DB	00H
_acFont32B_1_00C5 DB 00H
	DB	00H
	DB	00H
	DB	00H
	DB	00H
	DB	00H
	DB	00H
	DB	060H
	DB	00H
	DB	00H
	DB	090H
	DB	00H
	DB	00H
	DB	090H
	DB	00H
	DB	01H
	DB	0f0H
	DB	00H
	DB	03H
	DB	0f8H
	DB	00H
	DB	03H
	DB	0f8H
	DB	00H
	DB	03H
	DB	0f8H
	DB	00H
	DB	07H
	DB	0bcH
	DB	00H
	DB	07H
	DB	0bcH
	DB	00H
	DB	07H
	DB	0bcH
	DB	00H
	DB	0fH
	DB	01eH
	DB	00H
	DB	0fH
	DB	01eH
	DB	00H
	DB	0fH
	DB	01eH
	DB	00H
	DB	01eH
	DB	0fH
	DB	00H
	DB	01eH
	DB	0fH
	DB	00H
	DB	01fH
	DB	0ffH
	DB	00H
	DB	03fH
	DB	0ffH
	DB	080H
	DB	03fH
	DB	0ffH
	DB	080H
	DB	03cH
	DB	07H
	DB	080H
	DB	078H
	DB	03H
	DB	0c0H
	DB	078H
	DB	03H
	DB	0c0H
	DB	078H
	DB	03H
	DB	0c0H
	DB	0f0H
	DB	01H
	DB	0e0H
	DB	00H
	DB	00H
	DB	00H
	DB	00H
	DB	00H
	DB	00H
	DB	00H
	DB	00H
	DB	00H
	DB	00H
	DB	00H
	DB	00H
	DB	00H
	DB	00H
	DB	00H
	DB	00H
	DB	00H
	DB	00H
	DB	00H
	DB	00H
	DB	00H
_acFont32B_1_00C6 DB 00H
	DB	00H
	DB	00H
	DB	00H
	DB	00H
	DB	00H
	DB	00H
	DB	00H
	DB	00H
	DB	00H
	DB	00H
	DB	00H
	DB	00H
	DB	00H
	DB	00H
	DB	00H
	DB	00H
	DB	00H
	DB	00H
	DB	00H
	DB	00H
	DB	0ffH
	DB	0ffH
	DB	0c0H
	DB	01H
	DB	0ffH
	DB	0ffH
	DB	0c0H
	DB	01H
	DB	0ffH
	DB	0ffH
	DB	0c0H
	DB	03H
	DB	0ffH
	DB	0ffH
	DB	0c0H
	DB	03H
	DB	0deH
	DB	00H
	DB	00H
	DB	03H
	DB	0deH
	DB	00H
	DB	00H
	DB	07H
	DB	09eH
	DB	00H
	DB	00H
	DB	07H
	DB	09fH
	DB	0ffH
	DB	080H
	DB	0fH
	DB	01fH
	DB	0ffH
	DB	080H
	DB	0fH
	DB	01fH
	DB	0ffH
	DB	080H
	DB	01fH
	DB	01fH
	DB	0ffH
	DB	080H
	DB	01fH
	DB	0feH
	DB	00H
	DB	00H
	DB	03fH
	DB	0feH
	DB	00H
	DB	00H
	DB	03fH
	DB	0feH
	DB	00H
	DB	00H
	DB	07fH
	DB	0feH
	DB	00H
	DB	00H
	DB	078H
	DB	01eH
	DB	00H
	DB	00H
	DB	078H
	DB	01fH
	DB	0ffH
	DB	0c0H
	DB	0f0H
	DB	01fH
	DB	0ffH
	DB	0c0H
	DB	0f0H
	DB	01fH
	DB	0ffH
	DB	0c0H
	DB	0f0H
	DB	01fH
	DB	0ffH
	DB	0c0H
	DB	00H
	DB	00H
	DB	00H
	DB	00H
	DB	00H
	DB	00H
	DB	00H
	DB	00H
	DB	00H
	DB	00H
	DB	00H
	DB	00H
	DB	00H
	DB	00H
	DB	00H
	DB	00H
	DB	00H
	DB	00H
	DB	00H
	DB	00H
	DB	00H
	DB	00H
	DB	00H
	DB	00H
	DB	00H
	DB	00H
	DB	00H
	DB	00H
_acFont32B_1_00C7 DB 00H
	DB	00H
	DB	00H
	DB	00H
	DB	00H
	DB	00H
	DB	00H
	DB	00H
	DB	00H
	DB	00H
	DB	00H
	DB	00H
	DB	00H
	DB	00H
	DB	00H
	DB	01H
	DB	0fcH
	DB	00H
	DB	07H
	DB	0ffH
	DB	00H
	DB	0fH
	DB	0ffH
	DB	080H
	DB	01fH
	DB	0ffH
	DB	0c0H
	DB	03fH
	DB	07H
	DB	0c0H
	DB	03cH
	DB	03H
	DB	0e0H
	DB	07cH
	DB	01H
	DB	080H
	DB	078H
	DB	00H
	DB	00H
	DB	078H
	DB	00H
	DB	00H
	DB	078H
	DB	00H
	DB	00H
	DB	078H
	DB	00H
	DB	00H
	DB	078H
	DB	00H
	DB	00H
	DB	078H
	DB	01H
	DB	080H
	DB	07cH
	DB	03H
	DB	0e0H
	DB	03cH
	DB	03H
	DB	0e0H
	DB	03fH
	DB	0fH
	DB	0c0H
	DB	01fH
	DB	0ffH
	DB	0c0H
	DB	0fH
	DB	0ffH
	DB	080H
	DB	07H
	DB	0ffH
	DB	00H
	DB	01H
	DB	0fcH
	DB	00H
	DB	00H
	DB	0f8H
	DB	00H
	DB	00H
	DB	01cH
	DB	00H
	DB	00H
	DB	01cH
	DB	00H
	DB	00H
	DB	01cH
	DB	00H
	DB	01H
	DB	0f0H
	DB	00H
	DB	00H
	DB	00H
	DB	00H
	DB	00H
	DB	00H
	DB	00H
_acFont32B_1_00C8 DB 03H
	DB	0c0H
	DB	00H
	DB	01H
	DB	0e0H
	DB	00H
	DB	00H
	DB	0e0H
	DB	00H
	DB	00H
	DB	070H
	DB	00H
	DB	00H
	DB	00H
	DB	00H
	DB	03fH
	DB	0ffH
	DB	080H
	DB	03fH
	DB	0ffH
	DB	080H
	DB	03fH
	DB	0ffH
	DB	080H
	DB	03fH
	DB	0ffH
	DB	080H
	DB	03cH
	DB	00H
	DB	00H
	DB	03cH
	DB	00H
	DB	00H
	DB	03cH
	DB	00H
	DB	00H
	DB	03cH
	DB	00H
	DB	00H
	DB	03fH
	DB	0ffH
	DB	00H
	DB	03fH
	DB	0ffH
	DB	00H
	DB	03fH
	DB	0ffH
	DB	00H
	DB	03fH
	DB	0ffH
	DB	00H
	DB	03cH
	DB	00H
	DB	00H
	DB	03cH
	DB	00H
	DB	00H
	DB	03cH
	DB	00H
	DB	00H
	DB	03cH
	DB	00H
	DB	00H
	DB	03fH
	DB	0ffH
	DB	080H
	DB	03fH
	DB	0ffH
	DB	080H
	DB	03fH
	DB	0ffH
	DB	080H
	DB	03fH
	DB	0ffH
	DB	080H
	DB	00H
	DB	00H
	DB	00H
	DB	00H
	DB	00H
	DB	00H
	DB	00H
	DB	00H
	DB	00H
	DB	00H
	DB	00H
	DB	00H
	DB	00H
	DB	00H
	DB	00H
	DB	00H
	DB	00H
	DB	00H
	DB	00H
	DB	00H
	DB	00H
_acFont32B_1_00C9 DB 00H
	DB	078H
	DB	00H
	DB	00H
	DB	0f0H
	DB	00H
	DB	00H
	DB	0e0H
	DB	00H
	DB	01H
	DB	0c0H
	DB	00H
	DB	00H
	DB	00H
	DB	00H
	DB	03fH
	DB	0ffH
	DB	080H
	DB	03fH
	DB	0ffH
	DB	080H
	DB	03fH
	DB	0ffH
	DB	080H
	DB	03fH
	DB	0ffH
	DB	080H
	DB	03cH
	DB	00H
	DB	00H
	DB	03cH
	DB	00H
	DB	00H
	DB	03cH
	DB	00H
	DB	00H
	DB	03cH
	DB	00H
	DB	00H
	DB	03fH
	DB	0ffH
	DB	00H
	DB	03fH
	DB	0ffH
	DB	00H
	DB	03fH
	DB	0ffH
	DB	00H
	DB	03fH
	DB	0ffH
	DB	00H
	DB	03cH
	DB	00H
	DB	00H
	DB	03cH
	DB	00H
	DB	00H
	DB	03cH
	DB	00H
	DB	00H
	DB	03cH
	DB	00H
	DB	00H
	DB	03fH
	DB	0ffH
	DB	080H
	DB	03fH
	DB	0ffH
	DB	080H
	DB	03fH
	DB	0ffH
	DB	080H
	DB	03fH
	DB	0ffH
	DB	080H
	DB	00H
	DB	00H
	DB	00H
	DB	00H
	DB	00H
	DB	00H
	DB	00H
	DB	00H
	DB	00H
	DB	00H
	DB	00H
	DB	00H
	DB	00H
	DB	00H
	DB	00H
	DB	00H
	DB	00H
	DB	00H
	DB	00H
	DB	00H
	DB	00H
_acFont32B_1_00CA DB 00H
	DB	0e0H
	DB	00H
	DB	01H
	DB	0f0H
	DB	00H
	DB	03H
	DB	0b8H
	DB	00H
	DB	07H
	DB	01cH
	DB	00H
	DB	00H
	DB	00H
	DB	00H
	DB	03fH
	DB	0ffH
	DB	080H
	DB	03fH
	DB	0ffH
	DB	080H
	DB	03fH
	DB	0ffH
	DB	080H
	DB	03fH
	DB	0ffH
	DB	080H
	DB	03cH
	DB	00H
	DB	00H
	DB	03cH
	DB	00H
	DB	00H
	DB	03cH
	DB	00H
	DB	00H
	DB	03cH
	DB	00H
	DB	00H
	DB	03fH
	DB	0ffH
	DB	00H
	DB	03fH
	DB	0ffH
	DB	00H
	DB	03fH
	DB	0ffH
	DB	00H
	DB	03fH
	DB	0ffH
	DB	00H
	DB	03cH
	DB	00H
	DB	00H
	DB	03cH
	DB	00H
	DB	00H
	DB	03cH
	DB	00H
	DB	00H
	DB	03cH
	DB	00H
	DB	00H
	DB	03fH
	DB	0ffH
	DB	080H
	DB	03fH
	DB	0ffH
	DB	080H
	DB	03fH
	DB	0ffH
	DB	080H
	DB	03fH
	DB	0ffH
	DB	080H
	DB	00H
	DB	00H
	DB	00H
	DB	00H
	DB	00H
	DB	00H
	DB	00H
	DB	00H
	DB	00H
	DB	00H
	DB	00H
	DB	00H
	DB	00H
	DB	00H
	DB	00H
	DB	00H
	DB	00H
	DB	00H
	DB	00H
	DB	00H
	DB	00H
_acFont32B_1_00CB DB 00H
	DB	00H
	DB	00H
	DB	07H
	DB	01cH
	DB	00H
	DB	07H
	DB	01cH
	DB	00H
	DB	07H
	DB	01cH
	DB	00H
	DB	00H
	DB	00H
	DB	00H
	DB	03fH
	DB	0ffH
	DB	080H
	DB	03fH
	DB	0ffH
	DB	080H
	DB	03fH
	DB	0ffH
	DB	080H
	DB	03fH
	DB	0ffH
	DB	080H
	DB	03cH
	DB	00H
	DB	00H
	DB	03cH
	DB	00H
	DB	00H
	DB	03cH
	DB	00H
	DB	00H
	DB	03cH
	DB	00H
	DB	00H
	DB	03fH
	DB	0ffH
	DB	00H
	DB	03fH
	DB	0ffH
	DB	00H
	DB	03fH
	DB	0ffH
	DB	00H
	DB	03fH
	DB	0ffH
	DB	00H
	DB	03cH
	DB	00H
	DB	00H
	DB	03cH
	DB	00H
	DB	00H
	DB	03cH
	DB	00H
	DB	00H
	DB	03cH
	DB	00H
	DB	00H
	DB	03fH
	DB	0ffH
	DB	080H
	DB	03fH
	DB	0ffH
	DB	080H
	DB	03fH
	DB	0ffH
	DB	080H
	DB	03fH
	DB	0ffH
	DB	080H
	DB	00H
	DB	00H
	DB	00H
	DB	00H
	DB	00H
	DB	00H
	DB	00H
	DB	00H
	DB	00H
	DB	00H
	DB	00H
	DB	00H
	DB	00H
	DB	00H
	DB	00H
	DB	00H
	DB	00H
	DB	00H
	DB	00H
	DB	00H
	DB	00H
_acFont32B_1_00CC DB 078H
	DB	03cH
	DB	01cH
	DB	0eH
	DB	00H
	DB	03cH
	DB	03cH
	DB	03cH
	DB	03cH
	DB	03cH
	DB	03cH
	DB	03cH
	DB	03cH
	DB	03cH
	DB	03cH
	DB	03cH
	DB	03cH
	DB	03cH
	DB	03cH
	DB	03cH
	DB	03cH
	DB	03cH
	DB	03cH
	DB	03cH
	DB	03cH
	DB	00H
	DB	00H
	DB	00H
	DB	00H
	DB	00H
	DB	00H
	DB	00H
_acFont32B_1_00CD DB 01eH
	DB	03cH
	DB	038H
	DB	070H
	DB	00H
	DB	03cH
	DB	03cH
	DB	03cH
	DB	03cH
	DB	03cH
	DB	03cH
	DB	03cH
	DB	03cH
	DB	03cH
	DB	03cH
	DB	03cH
	DB	03cH
	DB	03cH
	DB	03cH
	DB	03cH
	DB	03cH
	DB	03cH
	DB	03cH
	DB	03cH
	DB	03cH
	DB	00H
	DB	00H
	DB	00H
	DB	00H
	DB	00H
	DB	00H
	DB	00H
_acFont32B_1_00CE DB 01cH
	DB	03eH
	DB	077H
	DB	0e3H
	DB	00H
	DB	03cH
	DB	03cH
	DB	03cH
	DB	03cH
	DB	03cH
	DB	03cH
	DB	03cH
	DB	03cH
	DB	03cH
	DB	03cH
	DB	03cH
	DB	03cH
	DB	03cH
	DB	03cH
	DB	03cH
	DB	03cH
	DB	03cH
	DB	03cH
	DB	03cH
	DB	03cH
	DB	00H
	DB	00H
	DB	00H
	DB	00H
	DB	00H
	DB	00H
	DB	00H
_acFont32B_1_00CF DB 00H
	DB	0e3H
	DB	0e3H
	DB	0e3H
	DB	00H
	DB	03cH
	DB	03cH
	DB	03cH
	DB	03cH
	DB	03cH
	DB	03cH
	DB	03cH
	DB	03cH
	DB	03cH
	DB	03cH
	DB	03cH
	DB	03cH
	DB	03cH
	DB	03cH
	DB	03cH
	DB	03cH
	DB	03cH
	DB	03cH
	DB	03cH
	DB	03cH
	DB	00H
	DB	00H
	DB	00H
	DB	00H
	DB	00H
	DB	00H
	DB	00H
_acFont32B_1_00D0 DB 00H
	DB	00H
	DB	00H
	DB	00H
	DB	00H
	DB	00H
	DB	00H
	DB	00H
	DB	00H
	DB	00H
	DB	00H
	DB	00H
	DB	00H
	DB	00H
	DB	00H
	DB	03fH
	DB	0fcH
	DB	00H
	DB	03fH
	DB	0ffH
	DB	00H
	DB	03fH
	DB	0ffH
	DB	080H
	DB	03fH
	DB	0ffH
	DB	080H
	DB	03cH
	DB	07H
	DB	0c0H
	DB	03cH
	DB	03H
	DB	0c0H
	DB	03cH
	DB	03H
	DB	0e0H
	DB	03cH
	DB	01H
	DB	0e0H
	DB	03cH
	DB	01H
	DB	0e0H
	DB	0ffH
	DB	0e1H
	DB	0e0H
	DB	0ffH
	DB	0e1H
	DB	0e0H
	DB	03cH
	DB	01H
	DB	0e0H
	DB	03cH
	DB	01H
	DB	0e0H
	DB	03cH
	DB	01H
	DB	0e0H
	DB	03cH
	DB	03H
	DB	0c0H
	DB	03cH
	DB	07H
	DB	0c0H
	DB	03fH
	DB	0ffH
	DB	080H
	DB	03fH
	DB	0ffH
	DB	080H
	DB	03fH
	DB	0ffH
	DB	00H
	DB	03fH
	DB	0fcH
	DB	00H
	DB	00H
	DB	00H
	DB	00H
	DB	00H
	DB	00H
	DB	00H
	DB	00H
	DB	00H
	DB	00H
	DB	00H
	DB	00H
	DB	00H
	DB	00H
	DB	00H
	DB	00H
	DB	00H
	DB	00H
	DB	00H
	DB	00H
	DB	00H
	DB	00H
_acFont32B_1_00D1 DB 00H
	DB	00H
	DB	00H
	DB	01H
	DB	0c6H
	DB	00H
	DB	03H
	DB	0feH
	DB	00H
	DB	03H
	DB	01cH
	DB	00H
	DB	00H
	DB	00H
	DB	00H
	DB	03cH
	DB	03H
	DB	0c0H
	DB	03eH
	DB	03H
	DB	0c0H
	DB	03fH
	DB	03H
	DB	0c0H
	DB	03fH
	DB	03H
	DB	0c0H
	DB	03fH
	DB	083H
	DB	0c0H
	DB	03fH
	DB	083H
	DB	0c0H
	DB	03fH
	DB	0c3H
	DB	0c0H
	DB	03dH
	DB	0c3H
	DB	0c0H
	DB	03dH
	DB	0e3H
	DB	0c0H
	DB	03cH
	DB	0f3H
	DB	0c0H
	DB	03cH
	DB	0f3H
	DB	0c0H
	DB	03cH
	DB	07bH
	DB	0c0H
	DB	03cH
	DB	03bH
	DB	0c0H
	DB	03cH
	DB	03fH
	DB	0c0H
	DB	03cH
	DB	01fH
	DB	0c0H
	DB	03cH
	DB	01fH
	DB	0c0H
	DB	03cH
	DB	0fH
	DB	0c0H
	DB	03cH
	DB	0fH
	DB	0c0H
	DB	03cH
	DB	07H
	DB	0c0H
	DB	03cH
	DB	07H
	DB	0c0H
	DB	00H
	DB	00H
	DB	00H
	DB	00H
	DB	00H
	DB	00H
	DB	00H
	DB	00H
	DB	00H
	DB	00H
	DB	00H
	DB	00H
	DB	00H
	DB	00H
	DB	00H
	DB	00H
	DB	00H
	DB	00H
	DB	00H
	DB	00H
	DB	00H
_acFont32B_1_00D2 DB 01H
	DB	0e0H
	DB	00H
	DB	00H
	DB	0f0H
	DB	00H
	DB	00H
	DB	070H
	DB	00H
	DB	00H
	DB	038H
	DB	00H
	DB	00H
	DB	00H
	DB	00H
	DB	01H
	DB	0fcH
	DB	00H
	DB	07H
	DB	0ffH
	DB	00H
	DB	0fH
	DB	0ffH
	DB	080H
	DB	01fH
	DB	0ffH
	DB	0c0H
	DB	03fH
	DB	07H
	DB	0e0H
	DB	03cH
	DB	03H
	DB	0e0H
	DB	07cH
	DB	01H
	DB	0f0H
	DB	078H
	DB	00H
	DB	0f0H
	DB	078H
	DB	00H
	DB	0f0H
	DB	078H
	DB	00H
	DB	0f0H
	DB	078H
	DB	00H
	DB	0f0H
	DB	078H
	DB	00H
	DB	0f0H
	DB	078H
	DB	00H
	DB	0f0H
	DB	07cH
	DB	01H
	DB	0f0H
	DB	03eH
	DB	03H
	DB	0e0H
	DB	03fH
	DB	07H
	DB	0e0H
	DB	01fH
	DB	0ffH
	DB	0c0H
	DB	0fH
	DB	0ffH
	DB	080H
	DB	07H
	DB	0ffH
	DB	00H
	DB	01H
	DB	0fcH
	DB	00H
	DB	00H
	DB	00H
	DB	00H
	DB	00H
	DB	00H
	DB	00H
	DB	00H
	DB	00H
	DB	00H
	DB	00H
	DB	00H
	DB	00H
	DB	00H
	DB	00H
	DB	00H
	DB	00H
	DB	00H
	DB	00H
	DB	00H
	DB	00H
	DB	00H
_acFont32B_1_00D3 DB 00H
	DB	03cH
	DB	00H
	DB	00H
	DB	078H
	DB	00H
	DB	00H
	DB	070H
	DB	00H
	DB	00H
	DB	0e0H
	DB	00H
	DB	00H
	DB	00H
	DB	00H
	DB	01H
	DB	0fcH
	DB	00H
	DB	07H
	DB	0ffH
	DB	00H
	DB	0fH
	DB	0ffH
	DB	080H
	DB	01fH
	DB	0ffH
	DB	0c0H
	DB	03fH
	DB	07H
	DB	0e0H
	DB	03cH
	DB	03H
	DB	0e0H
	DB	07cH
	DB	01H
	DB	0f0H
	DB	078H
	DB	00H
	DB	0f0H
	DB	078H
	DB	00H
	DB	0f0H
	DB	078H
	DB	00H
	DB	0f0H
	DB	078H
	DB	00H
	DB	0f0H
	DB	078H
	DB	00H
	DB	0f0H
	DB	078H
	DB	00H
	DB	0f0H
	DB	07cH
	DB	01H
	DB	0f0H
	DB	03eH
	DB	03H
	DB	0e0H
	DB	03fH
	DB	07H
	DB	0e0H
	DB	01fH
	DB	0ffH
	DB	0c0H
	DB	0fH
	DB	0ffH
	DB	080H
	DB	07H
	DB	0ffH
	DB	00H
	DB	01H
	DB	0fcH
	DB	00H
	DB	00H
	DB	00H
	DB	00H
	DB	00H
	DB	00H
	DB	00H
	DB	00H
	DB	00H
	DB	00H
	DB	00H
	DB	00H
	DB	00H
	DB	00H
	DB	00H
	DB	00H
	DB	00H
	DB	00H
	DB	00H
	DB	00H
	DB	00H
	DB	00H
_acFont32B_1_00D4 DB 00H
	DB	070H
	DB	00H
	DB	00H
	DB	0f8H
	DB	00H
	DB	01H
	DB	0dcH
	DB	00H
	DB	03H
	DB	08eH
	DB	00H
	DB	00H
	DB	00H
	DB	00H
	DB	01H
	DB	0fcH
	DB	00H
	DB	07H
	DB	0ffH
	DB	00H
	DB	0fH
	DB	0ffH
	DB	080H
	DB	01fH
	DB	0ffH
	DB	0c0H
	DB	03fH
	DB	07H
	DB	0e0H
	DB	03cH
	DB	03H
	DB	0e0H
	DB	07cH
	DB	01H
	DB	0f0H
	DB	078H
	DB	00H
	DB	0f0H
	DB	078H
	DB	00H
	DB	0f0H
	DB	078H
	DB	00H
	DB	0f0H
	DB	078H
	DB	00H
	DB	0f0H
	DB	078H
	DB	00H
	DB	0f0H
	DB	078H
	DB	00H
	DB	0f0H
	DB	07cH
	DB	01H
	DB	0f0H
	DB	03eH
	DB	03H
	DB	0e0H
	DB	03fH
	DB	07H
	DB	0e0H
	DB	01fH
	DB	0ffH
	DB	0c0H
	DB	0fH
	DB	0ffH
	DB	080H
	DB	07H
	DB	0ffH
	DB	00H
	DB	01H
	DB	0fcH
	DB	00H
	DB	00H
	DB	00H
	DB	00H
	DB	00H
	DB	00H
	DB	00H
	DB	00H
	DB	00H
	DB	00H
	DB	00H
	DB	00H
	DB	00H
	DB	00H
	DB	00H
	DB	00H
	DB	00H
	DB	00H
	DB	00H
	DB	00H
	DB	00H
	DB	00H
_acFont32B_1_00D5 DB 00H
	DB	00H
	DB	00H
	DB	01H
	DB	0c6H
	DB	00H
	DB	03H
	DB	0feH
	DB	00H
	DB	03H
	DB	01cH
	DB	00H
	DB	00H
	DB	00H
	DB	00H
	DB	01H
	DB	0fcH
	DB	00H
	DB	07H
	DB	0ffH
	DB	00H
	DB	0fH
	DB	0ffH
	DB	080H
	DB	01fH
	DB	0ffH
	DB	0c0H
	DB	03fH
	DB	07H
	DB	0e0H
	DB	03cH
	DB	03H
	DB	0e0H
	DB	07cH
	DB	01H
	DB	0f0H
	DB	078H
	DB	00H
	DB	0f0H
	DB	078H
	DB	00H
	DB	0f0H
	DB	078H
	DB	00H
	DB	0f0H
	DB	078H
	DB	00H
	DB	0f0H
	DB	078H
	DB	00H
	DB	0f0H
	DB	078H
	DB	00H
	DB	0f0H
	DB	07cH
	DB	01H
	DB	0f0H
	DB	03eH
	DB	03H
	DB	0e0H
	DB	03fH
	DB	07H
	DB	0e0H
	DB	01fH
	DB	0ffH
	DB	0c0H
	DB	0fH
	DB	0ffH
	DB	080H
	DB	07H
	DB	0ffH
	DB	00H
	DB	01H
	DB	0fcH
	DB	00H
	DB	00H
	DB	00H
	DB	00H
	DB	00H
	DB	00H
	DB	00H
	DB	00H
	DB	00H
	DB	00H
	DB	00H
	DB	00H
	DB	00H
	DB	00H
	DB	00H
	DB	00H
	DB	00H
	DB	00H
	DB	00H
	DB	00H
	DB	00H
	DB	00H
_acFont32B_1_00D6 DB 00H
	DB	00H
	DB	00H
	DB	03H
	DB	08eH
	DB	00H
	DB	03H
	DB	08eH
	DB	00H
	DB	03H
	DB	08eH
	DB	00H
	DB	00H
	DB	00H
	DB	00H
	DB	01H
	DB	0fcH
	DB	00H
	DB	07H
	DB	0ffH
	DB	00H
	DB	0fH
	DB	0ffH
	DB	080H
	DB	01fH
	DB	0ffH
	DB	0c0H
	DB	03fH
	DB	07H
	DB	0e0H
	DB	03cH
	DB	03H
	DB	0e0H
	DB	07cH
	DB	01H
	DB	0f0H
	DB	078H
	DB	00H
	DB	0f0H
	DB	078H
	DB	00H
	DB	0f0H
	DB	078H
	DB	00H
	DB	0f0H
	DB	078H
	DB	00H
	DB	0f0H
	DB	078H
	DB	00H
	DB	0f0H
	DB	078H
	DB	00H
	DB	0f0H
	DB	07cH
	DB	01H
	DB	0f0H
	DB	03eH
	DB	03H
	DB	0e0H
	DB	03fH
	DB	07H
	DB	0e0H
	DB	01fH
	DB	0ffH
	DB	0c0H
	DB	0fH
	DB	0ffH
	DB	080H
	DB	07H
	DB	0ffH
	DB	00H
	DB	01H
	DB	0fcH
	DB	00H
	DB	00H
	DB	00H
	DB	00H
	DB	00H
	DB	00H
	DB	00H
	DB	00H
	DB	00H
	DB	00H
	DB	00H
	DB	00H
	DB	00H
	DB	00H
	DB	00H
	DB	00H
	DB	00H
	DB	00H
	DB	00H
	DB	00H
	DB	00H
	DB	00H
_acFont32B_1_00D7 DB 00H
	DB	00H
	DB	00H
	DB	00H
	DB	00H
	DB	00H
	DB	00H
	DB	00H
	DB	00H
	DB	00H
	DB	00H
	DB	00H
	DB	00H
	DB	00H
	DB	00H
	DB	00H
	DB	00H
	DB	00H
	DB	010H
	DB	010H
	DB	038H
	DB	038H
	DB	07cH
	DB	07cH
	DB	03eH
	DB	0f8H
	DB	01fH
	DB	0f0H
	DB	0fH
	DB	0e0H
	DB	07H
	DB	0c0H
	DB	0fH
	DB	0e0H
	DB	01fH
	DB	0f0H
	DB	03eH
	DB	0f8H
	DB	07cH
	DB	07cH
	DB	038H
	DB	038H
	DB	010H
	DB	010H
	DB	00H
	DB	00H
	DB	00H
	DB	00H
	DB	00H
	DB	00H
	DB	00H
	DB	00H
	DB	00H
	DB	00H
	DB	00H
	DB	00H
	DB	00H
	DB	00H
	DB	00H
	DB	00H
	DB	00H
	DB	00H
	DB	00H
	DB	00H
_acFont32B_1_00D8 DB 00H
	DB	00H
	DB	00H
	DB	00H
	DB	00H
	DB	00H
	DB	00H
	DB	00H
	DB	00H
	DB	00H
	DB	00H
	DB	00H
	DB	00H
	DB	00H
	DB	020H
	DB	01H
	DB	0fcH
	DB	030H
	DB	07H
	DB	0ffH
	DB	078H
	DB	0fH
	DB	0ffH
	DB	0f0H
	DB	01fH
	DB	0ffH
	DB	0e0H
	DB	03fH
	DB	07H
	DB	0e0H
	DB	03cH
	DB	07H
	DB	0e0H
	DB	07cH
	DB	0fH
	DB	0e0H
	DB	078H
	DB	01eH
	DB	0f0H
	DB	078H
	DB	03cH
	DB	0f0H
	DB	078H
	DB	078H
	DB	0f0H
	DB	078H
	DB	0f0H
	DB	0f0H
	DB	079H
	DB	0e0H
	DB	0f0H
	DB	07bH
	DB	0c0H
	DB	0f0H
	DB	07fH
	DB	081H
	DB	0f0H
	DB	03fH
	DB	01H
	DB	0e0H
	DB	03fH
	DB	07H
	DB	0e0H
	DB	03fH
	DB	0ffH
	DB	0c0H
	DB	07fH
	DB	0ffH
	DB	080H
	DB	0f7H
	DB	0ffH
	DB	00H
	DB	061H
	DB	0fcH
	DB	00H
	DB	020H
	DB	00H
	DB	00H
	DB	00H
	DB	00H
	DB	00H
	DB	00H
	DB	00H
	DB	00H
	DB	00H
	DB	00H
	DB	00H
	DB	00H
	DB	00H
	DB	00H
	DB	00H
	DB	00H
	DB	00H
	DB	00H
	DB	00H
	DB	00H
_acFont32B_1_00D9 DB 01H
	DB	0e0H
	DB	00H
	DB	00H
	DB	0f0H
	DB	00H
	DB	00H
	DB	070H
	DB	00H
	DB	00H
	DB	038H
	DB	00H
	DB	00H
	DB	00H
	DB	00H
	DB	03cH
	DB	03H
	DB	0c0H
	DB	03cH
	DB	03H
	DB	0c0H
	DB	03cH
	DB	03H
	DB	0c0H
	DB	03cH
	DB	03H
	DB	0c0H
	DB	03cH
	DB	03H
	DB	0c0H
	DB	03cH
	DB	03H
	DB	0c0H
	DB	03cH
	DB	03H
	DB	0c0H
	DB	03cH
	DB	03H
	DB	0c0H
	DB	03cH
	DB	03H
	DB	0c0H
	DB	03cH
	DB	03H
	DB	0c0H
	DB	03cH
	DB	03H
	DB	0c0H
	DB	03cH
	DB	03H
	DB	0c0H
	DB	03cH
	DB	03H
	DB	0c0H
	DB	03cH
	DB	03H
	DB	0c0H
	DB	03eH
	DB	03H
	DB	0c0H
	DB	03fH
	DB	0fH
	DB	0c0H
	DB	01fH
	DB	0ffH
	DB	080H
	DB	01fH
	DB	0ffH
	DB	080H
	DB	0fH
	DB	0ffH
	DB	00H
	DB	03H
	DB	0fcH
	DB	00H
	DB	00H
	DB	00H
	DB	00H
	DB	00H
	DB	00H
	DB	00H
	DB	00H
	DB	00H
	DB	00H
	DB	00H
	DB	00H
	DB	00H
	DB	00H
	DB	00H
	DB	00H
	DB	00H
	DB	00H
	DB	00H
	DB	00H
	DB	00H
	DB	00H
_acFont32B_1_00DA DB 00H
	DB	03cH
	DB	00H
	DB	00H
	DB	078H
	DB	00H
	DB	00H
	DB	070H
	DB	00H
	DB	00H
	DB	0e0H
	DB	00H
	DB	00H
	DB	00H
	DB	00H
	DB	03cH
	DB	03H
	DB	0c0H
	DB	03cH
	DB	03H
	DB	0c0H
	DB	03cH
	DB	03H
	DB	0c0H
	DB	03cH
	DB	03H
	DB	0c0H
	DB	03cH
	DB	03H
	DB	0c0H
	DB	03cH
	DB	03H
	DB	0c0H
	DB	03cH
	DB	03H
	DB	0c0H
	DB	03cH
	DB	03H
	DB	0c0H
	DB	03cH
	DB	03H
	DB	0c0H
	DB	03cH
	DB	03H
	DB	0c0H
	DB	03cH
	DB	03H
	DB	0c0H
	DB	03cH
	DB	03H
	DB	0c0H
	DB	03cH
	DB	03H
	DB	0c0H
	DB	03cH
	DB	03H
	DB	0c0H
	DB	03eH
	DB	03H
	DB	0c0H
	DB	03fH
	DB	0fH
	DB	0c0H
	DB	01fH
	DB	0ffH
	DB	080H
	DB	01fH
	DB	0ffH
	DB	080H
	DB	0fH
	DB	0ffH
	DB	00H
	DB	03H
	DB	0fcH
	DB	00H
	DB	00H
	DB	00H
	DB	00H
	DB	00H
	DB	00H
	DB	00H
	DB	00H
	DB	00H
	DB	00H
	DB	00H
	DB	00H
	DB	00H
	DB	00H
	DB	00H
	DB	00H
	DB	00H
	DB	00H
	DB	00H
	DB	00H
	DB	00H
	DB	00H
_acFont32B_1_00DB DB 00H
	DB	070H
	DB	00H
	DB	00H
	DB	0f8H
	DB	00H
	DB	01H
	DB	0dcH
	DB	00H
	DB	03H
	DB	08eH
	DB	00H
	DB	00H
	DB	00H
	DB	00H
	DB	03cH
	DB	03H
	DB	0c0H
	DB	03cH
	DB	03H
	DB	0c0H
	DB	03cH
	DB	03H
	DB	0c0H
	DB	03cH
	DB	03H
	DB	0c0H
	DB	03cH
	DB	03H
	DB	0c0H
	DB	03cH
	DB	03H
	DB	0c0H
	DB	03cH
	DB	03H
	DB	0c0H
	DB	03cH
	DB	03H
	DB	0c0H
	DB	03cH
	DB	03H
	DB	0c0H
	DB	03cH
	DB	03H
	DB	0c0H
	DB	03cH
	DB	03H
	DB	0c0H
	DB	03cH
	DB	03H
	DB	0c0H
	DB	03cH
	DB	03H
	DB	0c0H
	DB	03cH
	DB	03H
	DB	0c0H
	DB	03eH
	DB	03H
	DB	0c0H
	DB	03fH
	DB	0fH
	DB	0c0H
	DB	01fH
	DB	0ffH
	DB	080H
	DB	01fH
	DB	0ffH
	DB	080H
	DB	0fH
	DB	0ffH
	DB	00H
	DB	03H
	DB	0fcH
	DB	00H
	DB	00H
	DB	00H
	DB	00H
	DB	00H
	DB	00H
	DB	00H
	DB	00H
	DB	00H
	DB	00H
	DB	00H
	DB	00H
	DB	00H
	DB	00H
	DB	00H
	DB	00H
	DB	00H
	DB	00H
	DB	00H
	DB	00H
	DB	00H
	DB	00H
_acFont32B_1_00DC DB 00H
	DB	00H
	DB	00H
	DB	03H
	DB	08eH
	DB	00H
	DB	03H
	DB	08eH
	DB	00H
	DB	03H
	DB	08eH
	DB	00H
	DB	00H
	DB	00H
	DB	00H
	DB	03cH
	DB	03H
	DB	0c0H
	DB	03cH
	DB	03H
	DB	0c0H
	DB	03cH
	DB	03H
	DB	0c0H
	DB	03cH
	DB	03H
	DB	0c0H
	DB	03cH
	DB	03H
	DB	0c0H
	DB	03cH
	DB	03H
	DB	0c0H
	DB	03cH
	DB	03H
	DB	0c0H
	DB	03cH
	DB	03H
	DB	0c0H
	DB	03cH
	DB	03H
	DB	0c0H
	DB	03cH
	DB	03H
	DB	0c0H
	DB	03cH
	DB	03H
	DB	0c0H
	DB	03cH
	DB	03H
	DB	0c0H
	DB	03cH
	DB	03H
	DB	0c0H
	DB	03cH
	DB	03H
	DB	0c0H
	DB	03eH
	DB	03H
	DB	0c0H
	DB	03fH
	DB	0fH
	DB	0c0H
	DB	01fH
	DB	0ffH
	DB	080H
	DB	01fH
	DB	0ffH
	DB	080H
	DB	0fH
	DB	0ffH
	DB	00H
	DB	03H
	DB	0fcH
	DB	00H
	DB	00H
	DB	00H
	DB	00H
	DB	00H
	DB	00H
	DB	00H
	DB	00H
	DB	00H
	DB	00H
	DB	00H
	DB	00H
	DB	00H
	DB	00H
	DB	00H
	DB	00H
	DB	00H
	DB	00H
	DB	00H
	DB	00H
	DB	00H
	DB	00H
_acFont32B_1_00DD DB 00H
	DB	078H
	DB	00H
	DB	00H
	DB	0f0H
	DB	00H
	DB	00H
	DB	0e0H
	DB	00H
	DB	01H
	DB	0c0H
	DB	00H
	DB	00H
	DB	00H
	DB	00H
	DB	0f0H
	DB	03H
	DB	0c0H
	DB	0f8H
	DB	07H
	DB	0c0H
	DB	07cH
	DB	0fH
	DB	080H
	DB	03cH
	DB	0fH
	DB	00H
	DB	03eH
	DB	01fH
	DB	00H
	DB	01eH
	DB	01eH
	DB	00H
	DB	0fH
	DB	03cH
	DB	00H
	DB	0fH
	DB	0fcH
	DB	00H
	DB	07H
	DB	0f8H
	DB	00H
	DB	03H
	DB	0f0H
	DB	00H
	DB	03H
	DB	0f0H
	DB	00H
	DB	01H
	DB	0e0H
	DB	00H
	DB	01H
	DB	0e0H
	DB	00H
	DB	01H
	DB	0e0H
	DB	00H
	DB	01H
	DB	0e0H
	DB	00H
	DB	01H
	DB	0e0H
	DB	00H
	DB	01H
	DB	0e0H
	DB	00H
	DB	01H
	DB	0e0H
	DB	00H
	DB	01H
	DB	0e0H
	DB	00H
	DB	01H
	DB	0e0H
	DB	00H
	DB	00H
	DB	00H
	DB	00H
	DB	00H
	DB	00H
	DB	00H
	DB	00H
	DB	00H
	DB	00H
	DB	00H
	DB	00H
	DB	00H
	DB	00H
	DB	00H
	DB	00H
	DB	00H
	DB	00H
	DB	00H
	DB	00H
	DB	00H
	DB	00H
_acFont32B_1_00DE DB 00H
	DB	00H
	DB	00H
	DB	00H
	DB	00H
	DB	00H
	DB	00H
	DB	00H
	DB	00H
	DB	00H
	DB	00H
	DB	00H
	DB	00H
	DB	00H
	DB	00H
	DB	01eH
	DB	00H
	DB	00H
	DB	01eH
	DB	00H
	DB	00H
	DB	01eH
	DB	00H
	DB	00H
	DB	01eH
	DB	00H
	DB	00H
	DB	01fH
	DB	0fcH
	DB	00H
	DB	01fH
	DB	0feH
	DB	00H
	DB	01fH
	DB	0ffH
	DB	00H
	DB	01fH
	DB	0ffH
	DB	080H
	DB	01eH
	DB	0fH
	DB	080H
	DB	01eH
	DB	07H
	DB	080H
	DB	01eH
	DB	07H
	DB	080H
	DB	01eH
	DB	0fH
	DB	080H
	DB	01fH
	DB	0ffH
	DB	080H
	DB	01fH
	DB	0ffH
	DB	00H
	DB	01fH
	DB	0feH
	DB	00H
	DB	01fH
	DB	0fcH
	DB	00H
	DB	01eH
	DB	00H
	DB	00H
	DB	01eH
	DB	00H
	DB	00H
	DB	01eH
	DB	00H
	DB	00H
	DB	01eH
	DB	00H
	DB	00H
	DB	00H
	DB	00H
	DB	00H
	DB	00H
	DB	00H
	DB	00H
	DB	00H
	DB	00H
	DB	00H
	DB	00H
	DB	00H
	DB	00H
	DB	00H
	DB	00H
	DB	00H
	DB	00H
	DB	00H
	DB	00H
	DB	00H
	DB	00H
	DB	00H
_acFont32B_1_00DF DB 00H
	DB	00H
	DB	00H
	DB	00H
	DB	00H
	DB	00H
	DB	00H
	DB	00H
	DB	00H
	DB	00H
	DB	00H
	DB	00H
	DB	00H
	DB	00H
	DB	00H
	DB	07H
	DB	0e0H
	DB	00H
	DB	01fH
	DB	0f0H
	DB	00H
	DB	01fH
	DB	0f8H
	DB	00H
	DB	03eH
	DB	078H
	DB	00H
	DB	03cH
	DB	078H
	DB	00H
	DB	03cH
	DB	078H
	DB	00H
	DB	03cH
	DB	0f0H
	DB	00H
	DB	03cH
	DB	0e0H
	DB	00H
	DB	03dH
	DB	0e0H
	DB	00H
	DB	03dH
	DB	0e0H
	DB	00H
	DB	03dH
	DB	0f0H
	DB	00H
	DB	03cH
	DB	0fcH
	DB	00H
	DB	03cH
	DB	07eH
	DB	00H
	DB	03cH
	DB	03eH
	DB	00H
	DB	03cH
	DB	0fH
	DB	00H
	DB	03cH
	DB	0fH
	DB	00H
	DB	03dH
	DB	08fH
	DB	00H
	DB	03fH
	DB	0ffH
	DB	00H
	DB	03dH
	DB	0feH
	DB	00H
	DB	03cH
	DB	078H
	DB	00H
	DB	00H
	DB	00H
	DB	00H
	DB	00H
	DB	00H
	DB	00H
	DB	00H
	DB	00H
	DB	00H
	DB	00H
	DB	00H
	DB	00H
	DB	00H
	DB	00H
	DB	00H
	DB	00H
	DB	00H
	DB	00H
	DB	00H
	DB	00H
	DB	00H
_acFont32B_1_00E0 DB 00H
	DB	00H
	DB	00H
	DB	00H
	DB	00H
	DB	00H
	DB	00H
	DB	00H
	DB	00H
	DB	00H
	DB	01eH
	DB	00H
	DB	0fH
	DB	00H
	DB	07H
	DB	00H
	DB	03H
	DB	080H
	DB	00H
	DB	00H
	DB	0fH
	DB	0e0H
	DB	01fH
	DB	0f0H
	DB	03fH
	DB	0f8H
	DB	078H
	DB	0f8H
	DB	070H
	DB	078H
	DB	00H
	DB	078H
	DB	01H
	DB	0f8H
	DB	01fH
	DB	0f8H
	DB	03eH
	DB	078H
	DB	078H
	DB	078H
	DB	078H
	DB	078H
	DB	078H
	DB	0f8H
	DB	07fH
	DB	0f8H
	DB	03fH
	DB	0b8H
	DB	01fH
	DB	03cH
	DB	00H
	DB	00H
	DB	00H
	DB	00H
	DB	00H
	DB	00H
	DB	00H
	DB	00H
	DB	00H
	DB	00H
	DB	00H
	DB	00H
	DB	00H
	DB	00H
_acFont32B_1_00E1 DB 00H
	DB	00H
	DB	00H
	DB	00H
	DB	00H
	DB	00H
	DB	00H
	DB	00H
	DB	00H
	DB	00H
	DB	01H
	DB	0e0H
	DB	03H
	DB	0c0H
	DB	03H
	DB	080H
	DB	07H
	DB	00H
	DB	00H
	DB	00H
	DB	0fH
	DB	0e0H
	DB	01fH
	DB	0f0H
	DB	03fH
	DB	0f8H
	DB	078H
	DB	0f8H
	DB	070H
	DB	078H
	DB	00H
	DB	078H
	DB	01H
	DB	0f8H
	DB	01fH
	DB	0f8H
	DB	03eH
	DB	078H
	DB	078H
	DB	078H
	DB	078H
	DB	078H
	DB	078H
	DB	0f8H
	DB	07fH
	DB	0f8H
	DB	03fH
	DB	0b8H
	DB	01fH
	DB	03cH
	DB	00H
	DB	00H
	DB	00H
	DB	00H
	DB	00H
	DB	00H
	DB	00H
	DB	00H
	DB	00H
	DB	00H
	DB	00H
	DB	00H
	DB	00H
	DB	00H
_acFont32B_1_00E2 DB 00H
	DB	00H
	DB	00H
	DB	00H
	DB	00H
	DB	00H
	DB	00H
	DB	00H
	DB	00H
	DB	00H
	DB	03H
	DB	080H
	DB	07H
	DB	0c0H
	DB	0eH
	DB	0e0H
	DB	01cH
	DB	070H
	DB	00H
	DB	00H
	DB	0fH
	DB	0e0H
	DB	01fH
	DB	0f0H
	DB	03fH
	DB	0f8H
	DB	078H
	DB	0f8H
	DB	070H
	DB	078H
	DB	00H
	DB	078H
	DB	01H
	DB	0f8H
	DB	01fH
	DB	0f8H
	DB	03eH
	DB	078H
	DB	078H
	DB	078H
	DB	078H
	DB	078H
	DB	078H
	DB	0f8H
	DB	07fH
	DB	0f8H
	DB	03fH
	DB	0b8H
	DB	01fH
	DB	03cH
	DB	00H
	DB	00H
	DB	00H
	DB	00H
	DB	00H
	DB	00H
	DB	00H
	DB	00H
	DB	00H
	DB	00H
	DB	00H
	DB	00H
	DB	00H
	DB	00H
_acFont32B_1_00E3 DB 00H
	DB	00H
	DB	00H
	DB	00H
	DB	00H
	DB	00H
	DB	00H
	DB	00H
	DB	00H
	DB	00H
	DB	00H
	DB	00H
	DB	0eH
	DB	030H
	DB	01fH
	DB	0f0H
	DB	018H
	DB	0e0H
	DB	00H
	DB	00H
	DB	0fH
	DB	0e0H
	DB	01fH
	DB	0f0H
	DB	03fH
	DB	0f8H
	DB	078H
	DB	0f8H
	DB	070H
	DB	078H
	DB	00H
	DB	078H
	DB	01H
	DB	0f8H
	DB	01fH
	DB	0f8H
	DB	03eH
	DB	078H
	DB	078H
	DB	078H
	DB	078H
	DB	078H
	DB	078H
	DB	0f8H
	DB	07fH
	DB	0f8H
	DB	03fH
	DB	0b8H
	DB	01fH
	DB	03cH
	DB	00H
	DB	00H
	DB	00H
	DB	00H
	DB	00H
	DB	00H
	DB	00H
	DB	00H
	DB	00H
	DB	00H
	DB	00H
	DB	00H
	DB	00H
	DB	00H
_acFont32B_1_00E4 DB 00H
	DB	00H
	DB	00H
	DB	00H
	DB	00H
	DB	00H
	DB	00H
	DB	00H
	DB	00H
	DB	00H
	DB	00H
	DB	00H
	DB	01cH
	DB	070H
	DB	01cH
	DB	070H
	DB	01cH
	DB	070H
	DB	00H
	DB	00H
	DB	0fH
	DB	0e0H
	DB	01fH
	DB	0f0H
	DB	03fH
	DB	0f8H
	DB	078H
	DB	0f8H
	DB	070H
	DB	078H
	DB	00H
	DB	078H
	DB	01H
	DB	0f8H
	DB	01fH
	DB	0f8H
	DB	03eH
	DB	078H
	DB	078H
	DB	078H
	DB	078H
	DB	078H
	DB	078H
	DB	0f8H
	DB	07fH
	DB	0f8H
	DB	03fH
	DB	0b8H
	DB	01fH
	DB	03cH
	DB	00H
	DB	00H
	DB	00H
	DB	00H
	DB	00H
	DB	00H
	DB	00H
	DB	00H
	DB	00H
	DB	00H
	DB	00H
	DB	00H
	DB	00H
	DB	00H
_acFont32B_1_00E5 DB 00H
	DB	00H
	DB	00H
	DB	00H
	DB	00H
	DB	00H
	DB	00H
	DB	00H
	DB	00H
	DB	00H
	DB	03H
	DB	00H
	DB	04H
	DB	080H
	DB	04H
	DB	080H
	DB	03H
	DB	00H
	DB	00H
	DB	00H
	DB	0fH
	DB	0e0H
	DB	01fH
	DB	0f0H
	DB	03fH
	DB	0f8H
	DB	078H
	DB	0f8H
	DB	070H
	DB	078H
	DB	00H
	DB	078H
	DB	01H
	DB	0f8H
	DB	01fH
	DB	0f8H
	DB	03eH
	DB	078H
	DB	078H
	DB	078H
	DB	078H
	DB	078H
	DB	078H
	DB	0f8H
	DB	07fH
	DB	0f8H
	DB	03fH
	DB	0b8H
	DB	01fH
	DB	03cH
	DB	00H
	DB	00H
	DB	00H
	DB	00H
	DB	00H
	DB	00H
	DB	00H
	DB	00H
	DB	00H
	DB	00H
	DB	00H
	DB	00H
	DB	00H
	DB	00H
_acFont32B_1_00E6 DB 00H
	DB	00H
	DB	00H
	DB	00H
	DB	00H
	DB	00H
	DB	00H
	DB	00H
	DB	00H
	DB	00H
	DB	00H
	DB	00H
	DB	00H
	DB	00H
	DB	00H
	DB	00H
	DB	00H
	DB	00H
	DB	00H
	DB	00H
	DB	00H
	DB	00H
	DB	00H
	DB	00H
	DB	00H
	DB	00H
	DB	00H
	DB	00H
	DB	00H
	DB	00H
	DB	07H
	DB	0e3H
	DB	0e0H
	DB	01fH
	DB	0ffH
	DB	0f8H
	DB	03fH
	DB	0ffH
	DB	0f8H
	DB	038H
	DB	07eH
	DB	03cH
	DB	070H
	DB	03cH
	DB	01cH
	DB	00H
	DB	03cH
	DB	01eH
	DB	00H
	DB	0ffH
	DB	0feH
	DB	0fH
	DB	0ffH
	DB	0feH
	DB	03fH
	DB	03fH
	DB	0feH
	DB	078H
	DB	03cH
	DB	00H
	DB	078H
	DB	03cH
	DB	00H
	DB	07cH
	DB	07eH
	DB	018H
	DB	07fH
	DB	0ffH
	DB	0feH
	DB	03fH
	DB	0efH
	DB	0fcH
	DB	01fH
	DB	083H
	DB	0f0H
	DB	00H
	DB	00H
	DB	00H
	DB	00H
	DB	00H
	DB	00H
	DB	00H
	DB	00H
	DB	00H
	DB	00H
	DB	00H
	DB	00H
	DB	00H
	DB	00H
	DB	00H
	DB	00H
	DB	00H
	DB	00H
	DB	00H
	DB	00H
	DB	00H
_acFont32B_1_00E7 DB 00H
	DB	00H
	DB	00H
	DB	00H
	DB	00H
	DB	00H
	DB	00H
	DB	00H
	DB	00H
	DB	00H
	DB	00H
	DB	00H
	DB	00H
	DB	00H
	DB	00H
	DB	00H
	DB	00H
	DB	00H
	DB	00H
	DB	00H
	DB	07H
	DB	0e0H
	DB	01fH
	DB	0f0H
	DB	03fH
	DB	0f8H
	DB	03cH
	DB	07cH
	DB	078H
	DB	030H
	DB	078H
	DB	00H
	DB	078H
	DB	00H
	DB	078H
	DB	00H
	DB	078H
	DB	00H
	DB	078H
	DB	00H
	DB	078H
	DB	030H
	DB	03cH
	DB	07cH
	DB	03fH
	DB	0f8H
	DB	01fH
	DB	0f8H
	DB	07H
	DB	0e0H
	DB	07H
	DB	0c0H
	DB	00H
	DB	0e0H
	DB	00H
	DB	0e0H
	DB	00H
	DB	0e0H
	DB	0fH
	DB	080H
	DB	00H
	DB	00H
	DB	00H
	DB	00H
_acFont32B_1_00E8 DB 00H
	DB	00H
	DB	00H
	DB	00H
	DB	00H
	DB	00H
	DB	00H
	DB	00H
	DB	00H
	DB	00H
	DB	0fH
	DB	00H
	DB	07H
	DB	080H
	DB	03H
	DB	080H
	DB	01H
	DB	0c0H
	DB	00H
	DB	00H
	DB	07H
	DB	0c0H
	DB	01fH
	DB	0f0H
	DB	03fH
	DB	0f8H
	DB	03cH
	DB	078H
	DB	078H
	DB	038H
	DB	078H
	DB	03cH
	DB	07fH
	DB	0fcH
	DB	07fH
	DB	0fcH
	DB	07fH
	DB	0fcH
	DB	078H
	DB	00H
	DB	078H
	DB	00H
	DB	03cH
	DB	030H
	DB	03fH
	DB	0fcH
	DB	01fH
	DB	0f8H
	DB	07H
	DB	0e0H
	DB	00H
	DB	00H
	DB	00H
	DB	00H
	DB	00H
	DB	00H
	DB	00H
	DB	00H
	DB	00H
	DB	00H
	DB	00H
	DB	00H
	DB	00H
	DB	00H
_acFont32B_1_00E9 DB 00H
	DB	00H
	DB	00H
	DB	00H
	DB	00H
	DB	00H
	DB	00H
	DB	00H
	DB	00H
	DB	00H
	DB	01H
	DB	0e0H
	DB	03H
	DB	0c0H
	DB	03H
	DB	080H
	DB	07H
	DB	00H
	DB	00H
	DB	00H
	DB	07H
	DB	0c0H
	DB	01fH
	DB	0f0H
	DB	03fH
	DB	0f8H
	DB	03cH
	DB	078H
	DB	078H
	DB	038H
	DB	078H
	DB	03cH
	DB	07fH
	DB	0fcH
	DB	07fH
	DB	0fcH
	DB	07fH
	DB	0fcH
	DB	078H
	DB	00H
	DB	078H
	DB	00H
	DB	03cH
	DB	030H
	DB	03fH
	DB	0fcH
	DB	01fH
	DB	0f8H
	DB	07H
	DB	0e0H
	DB	00H
	DB	00H
	DB	00H
	DB	00H
	DB	00H
	DB	00H
	DB	00H
	DB	00H
	DB	00H
	DB	00H
	DB	00H
	DB	00H
	DB	00H
	DB	00H
_acFont32B_1_00EA DB 00H
	DB	00H
	DB	00H
	DB	00H
	DB	00H
	DB	00H
	DB	00H
	DB	00H
	DB	00H
	DB	00H
	DB	03H
	DB	080H
	DB	07H
	DB	0c0H
	DB	0eH
	DB	0e0H
	DB	01cH
	DB	070H
	DB	00H
	DB	00H
	DB	07H
	DB	0c0H
	DB	01fH
	DB	0f0H
	DB	03fH
	DB	0f8H
	DB	03cH
	DB	078H
	DB	078H
	DB	038H
	DB	078H
	DB	03cH
	DB	07fH
	DB	0fcH
	DB	07fH
	DB	0fcH
	DB	07fH
	DB	0fcH
	DB	078H
	DB	00H
	DB	078H
	DB	00H
	DB	03cH
	DB	030H
	DB	03fH
	DB	0fcH
	DB	01fH
	DB	0f8H
	DB	07H
	DB	0e0H
	DB	00H
	DB	00H
	DB	00H
	DB	00H
	DB	00H
	DB	00H
	DB	00H
	DB	00H
	DB	00H
	DB	00H
	DB	00H
	DB	00H
	DB	00H
	DB	00H
_acFont32B_1_00EB DB 00H
	DB	00H
	DB	00H
	DB	00H
	DB	00H
	DB	00H
	DB	00H
	DB	00H
	DB	00H
	DB	00H
	DB	00H
	DB	00H
	DB	01cH
	DB	070H
	DB	01cH
	DB	070H
	DB	01cH
	DB	070H
	DB	00H
	DB	00H
	DB	07H
	DB	0c0H
	DB	01fH
	DB	0f0H
	DB	03fH
	DB	0f8H
	DB	03cH
	DB	078H
	DB	078H
	DB	038H
	DB	078H
	DB	03cH
	DB	07fH
	DB	0fcH
	DB	07fH
	DB	0fcH
	DB	07fH
	DB	0fcH
	DB	078H
	DB	00H
	DB	078H
	DB	00H
	DB	03cH
	DB	030H
	DB	03fH
	DB	0fcH
	DB	01fH
	DB	0f8H
	DB	07H
	DB	0e0H
	DB	00H
	DB	00H
	DB	00H
	DB	00H
	DB	00H
	DB	00H
	DB	00H
	DB	00H
	DB	00H
	DB	00H
	DB	00H
	DB	00H
	DB	00H
	DB	00H
_acFont32B_1_00EC DB 00H
	DB	00H
	DB	00H
	DB	00H
	DB	00H
	DB	078H
	DB	03cH
	DB	01cH
	DB	0eH
	DB	00H
	DB	03cH
	DB	03cH
	DB	03cH
	DB	03cH
	DB	03cH
	DB	03cH
	DB	03cH
	DB	03cH
	DB	03cH
	DB	03cH
	DB	03cH
	DB	03cH
	DB	03cH
	DB	03cH
	DB	03cH
	DB	00H
	DB	00H
	DB	00H
	DB	00H
	DB	00H
	DB	00H
	DB	00H
_acFont32B_1_00ED DB 00H
	DB	00H
	DB	00H
	DB	00H
	DB	00H
	DB	01eH
	DB	03cH
	DB	038H
	DB	070H
	DB	00H
	DB	03cH
	DB	03cH
	DB	03cH
	DB	03cH
	DB	03cH
	DB	03cH
	DB	03cH
	DB	03cH
	DB	03cH
	DB	03cH
	DB	03cH
	DB	03cH
	DB	03cH
	DB	03cH
	DB	03cH
	DB	00H
	DB	00H
	DB	00H
	DB	00H
	DB	00H
	DB	00H
	DB	00H
_acFont32B_1_00EE DB 00H
	DB	00H
	DB	00H
	DB	00H
	DB	00H
	DB	01cH
	DB	03eH
	DB	077H
	DB	0e3H
	DB	00H
	DB	03cH
	DB	03cH
	DB	03cH
	DB	03cH
	DB	03cH
	DB	03cH
	DB	03cH
	DB	03cH
	DB	03cH
	DB	03cH
	DB	03cH
	DB	03cH
	DB	03cH
	DB	03cH
	DB	03cH
	DB	00H
	DB	00H
	DB	00H
	DB	00H
	DB	00H
	DB	00H
	DB	00H
_acFont32B_1_00EF DB 00H
	DB	00H
	DB	00H
	DB	00H
	DB	00H
	DB	00H
	DB	0e3H
	DB	0e3H
	DB	0e3H
	DB	00H
	DB	03cH
	DB	03cH
	DB	03cH
	DB	03cH
	DB	03cH
	DB	03cH
	DB	03cH
	DB	03cH
	DB	03cH
	DB	03cH
	DB	03cH
	DB	03cH
	DB	03cH
	DB	03cH
	DB	03cH
	DB	00H
	DB	00H
	DB	00H
	DB	00H
	DB	00H
	DB	00H
	DB	00H
_acFont32B_1_00F0 DB 00H
	DB	00H
	DB	00H
	DB	00H
	DB	00H
	DB	00H
	DB	00H
	DB	00H
	DB	00H
	DB	00H
	DB	00H
	DB	00H
	DB	00H
	DB	00H
	DB	00H
	DB	07H
	DB	098H
	DB	00H
	DB	01H
	DB	0e0H
	DB	00H
	DB	01H
	DB	0f0H
	DB	00H
	DB	06H
	DB	078H
	DB	00H
	DB	00H
	DB	078H
	DB	00H
	DB	07H
	DB	0bcH
	DB	00H
	DB	01fH
	DB	0feH
	DB	00H
	DB	01fH
	DB	0feH
	DB	00H
	DB	03eH
	DB	03eH
	DB	00H
	DB	07cH
	DB	01fH
	DB	00H
	DB	078H
	DB	0fH
	DB	00H
	DB	078H
	DB	0fH
	DB	00H
	DB	078H
	DB	0fH
	DB	00H
	DB	078H
	DB	0fH
	DB	00H
	DB	078H
	DB	0fH
	DB	00H
	DB	03cH
	DB	01eH
	DB	00H
	DB	03eH
	DB	03eH
	DB	00H
	DB	01fH
	DB	0fcH
	DB	00H
	DB	0fH
	DB	0f8H
	DB	00H
	DB	03H
	DB	0e0H
	DB	00H
	DB	00H
	DB	00H
	DB	00H
	DB	00H
	DB	00H
	DB	00H
	DB	00H
	DB	00H
	DB	00H
	DB	00H
	DB	00H
	DB	00H
	DB	00H
	DB	00H
	DB	00H
	DB	00H
	DB	00H
	DB	00H
	DB	00H
	DB	00H
	DB	00H
_acFont32B_1_00F1 DB 00H
	DB	00H
	DB	00H
	DB	00H
	DB	00H
	DB	00H
	DB	00H
	DB	00H
	DB	00H
	DB	00H
	DB	00H
	DB	00H
	DB	00H
	DB	00H
	DB	00H
	DB	00H
	DB	00H
	DB	00H
	DB	07H
	DB	018H
	DB	00H
	DB	0fH
	DB	0f8H
	DB	00H
	DB	0cH
	DB	070H
	DB	00H
	DB	00H
	DB	00H
	DB	00H
	DB	03cH
	DB	0f8H
	DB	00H
	DB	03dH
	DB	0fcH
	DB	00H
	DB	03fH
	DB	0feH
	DB	00H
	DB	03eH
	DB	03eH
	DB	00H
	DB	03cH
	DB	01eH
	DB	00H
	DB	03cH
	DB	01eH
	DB	00H
	DB	03cH
	DB	01eH
	DB	00H
	DB	03cH
	DB	01eH
	DB	00H
	DB	03cH
	DB	01eH
	DB	00H
	DB	03cH
	DB	01eH
	DB	00H
	DB	03cH
	DB	01eH
	DB	00H
	DB	03cH
	DB	01eH
	DB	00H
	DB	03cH
	DB	01eH
	DB	00H
	DB	03cH
	DB	01eH
	DB	00H
	DB	03cH
	DB	01eH
	DB	00H
	DB	00H
	DB	00H
	DB	00H
	DB	00H
	DB	00H
	DB	00H
	DB	00H
	DB	00H
	DB	00H
	DB	00H
	DB	00H
	DB	00H
	DB	00H
	DB	00H
	DB	00H
	DB	00H
	DB	00H
	DB	00H
	DB	00H
	DB	00H
	DB	00H
_acFont32B_1_00F2 DB 00H
	DB	00H
	DB	00H
	DB	00H
	DB	00H
	DB	00H
	DB	00H
	DB	00H
	DB	00H
	DB	00H
	DB	00H
	DB	00H
	DB	00H
	DB	00H
	DB	00H
	DB	07H
	DB	080H
	DB	00H
	DB	03H
	DB	0c0H
	DB	00H
	DB	01H
	DB	0c0H
	DB	00H
	DB	00H
	DB	0e0H
	DB	00H
	DB	00H
	DB	00H
	DB	00H
	DB	03H
	DB	0e0H
	DB	00H
	DB	0fH
	DB	0f8H
	DB	00H
	DB	01fH
	DB	0fcH
	DB	00H
	DB	03eH
	DB	03eH
	DB	00H
	DB	03cH
	DB	01eH
	DB	00H
	DB	078H
	DB	0fH
	DB	00H
	DB	078H
	DB	0fH
	DB	00H
	DB	078H
	DB	0fH
	DB	00H
	DB	078H
	DB	0fH
	DB	00H
	DB	078H
	DB	0fH
	DB	00H
	DB	03cH
	DB	01eH
	DB	00H
	DB	03eH
	DB	03eH
	DB	00H
	DB	01fH
	DB	0fcH
	DB	00H
	DB	0fH
	DB	0f8H
	DB	00H
	DB	03H
	DB	0e0H
	DB	00H
	DB	00H
	DB	00H
	DB	00H
	DB	00H
	DB	00H
	DB	00H
	DB	00H
	DB	00H
	DB	00H
	DB	00H
	DB	00H
	DB	00H
	DB	00H
	DB	00H
	DB	00H
	DB	00H
	DB	00H
	DB	00H
	DB	00H
	DB	00H
	DB	00H
_acFont32B_1_00F3 DB 00H
	DB	00H
	DB	00H
	DB	00H
	DB	00H
	DB	00H
	DB	00H
	DB	00H
	DB	00H
	DB	00H
	DB	00H
	DB	00H
	DB	00H
	DB	00H
	DB	00H
	DB	00H
	DB	078H
	DB	00H
	DB	00H
	DB	0f0H
	DB	00H
	DB	00H
	DB	0e0H
	DB	00H
	DB	01H
	DB	0c0H
	DB	00H
	DB	00H
	DB	00H
	DB	00H
	DB	03H
	DB	0e0H
	DB	00H
	DB	0fH
	DB	0f8H
	DB	00H
	DB	01fH
	DB	0fcH
	DB	00H
	DB	03eH
	DB	03eH
	DB	00H
	DB	03cH
	DB	01eH
	DB	00H
	DB	078H
	DB	0fH
	DB	00H
	DB	078H
	DB	0fH
	DB	00H
	DB	078H
	DB	0fH
	DB	00H
	DB	078H
	DB	0fH
	DB	00H
	DB	078H
	DB	0fH
	DB	00H
	DB	03cH
	DB	01eH
	DB	00H
	DB	03eH
	DB	03eH
	DB	00H
	DB	01fH
	DB	0fcH
	DB	00H
	DB	0fH
	DB	0f8H
	DB	00H
	DB	03H
	DB	0e0H
	DB	00H
	DB	00H
	DB	00H
	DB	00H
	DB	00H
	DB	00H
	DB	00H
	DB	00H
	DB	00H
	DB	00H
	DB	00H
	DB	00H
	DB	00H
	DB	00H
	DB	00H
	DB	00H
	DB	00H
	DB	00H
	DB	00H
	DB	00H
	DB	00H
	DB	00H
_acFont32B_1_00F4 DB 00H
	DB	00H
	DB	00H
	DB	00H
	DB	00H
	DB	00H
	DB	00H
	DB	00H
	DB	00H
	DB	00H
	DB	00H
	DB	00H
	DB	00H
	DB	00H
	DB	00H
	DB	01H
	DB	0c0H
	DB	00H
	DB	03H
	DB	0e0H
	DB	00H
	DB	07H
	DB	070H
	DB	00H
	DB	0eH
	DB	038H
	DB	00H
	DB	00H
	DB	00H
	DB	00H
	DB	03H
	DB	0e0H
	DB	00H
	DB	0fH
	DB	0f8H
	DB	00H
	DB	01fH
	DB	0fcH
	DB	00H
	DB	03eH
	DB	03eH
	DB	00H
	DB	03cH
	DB	01eH
	DB	00H
	DB	078H
	DB	0fH
	DB	00H
	DB	078H
	DB	0fH
	DB	00H
	DB	078H
	DB	0fH
	DB	00H
	DB	078H
	DB	0fH
	DB	00H
	DB	078H
	DB	0fH
	DB	00H
	DB	03cH
	DB	01eH
	DB	00H
	DB	03eH
	DB	03eH
	DB	00H
	DB	01fH
	DB	0fcH
	DB	00H
	DB	0fH
	DB	0f8H
	DB	00H
	DB	03H
	DB	0e0H
	DB	00H
	DB	00H
	DB	00H
	DB	00H
	DB	00H
	DB	00H
	DB	00H
	DB	00H
	DB	00H
	DB	00H
	DB	00H
	DB	00H
	DB	00H
	DB	00H
	DB	00H
	DB	00H
	DB	00H
	DB	00H
	DB	00H
	DB	00H
	DB	00H
	DB	00H
_acFont32B_1_00F5 DB 00H
	DB	00H
	DB	00H
	DB	00H
	DB	00H
	DB	00H
	DB	00H
	DB	00H
	DB	00H
	DB	00H
	DB	00H
	DB	00H
	DB	00H
	DB	00H
	DB	00H
	DB	00H
	DB	00H
	DB	00H
	DB	07H
	DB	018H
	DB	00H
	DB	0fH
	DB	0f8H
	DB	00H
	DB	0cH
	DB	070H
	DB	00H
	DB	00H
	DB	00H
	DB	00H
	DB	03H
	DB	0e0H
	DB	00H
	DB	0fH
	DB	0f8H
	DB	00H
	DB	01fH
	DB	0fcH
	DB	00H
	DB	03eH
	DB	03eH
	DB	00H
	DB	03cH
	DB	01eH
	DB	00H
	DB	078H
	DB	0fH
	DB	00H
	DB	078H
	DB	0fH
	DB	00H
	DB	078H
	DB	0fH
	DB	00H
	DB	078H
	DB	0fH
	DB	00H
	DB	078H
	DB	0fH
	DB	00H
	DB	03cH
	DB	01eH
	DB	00H
	DB	03eH
	DB	03eH
	DB	00H
	DB	01fH
	DB	0fcH
	DB	00H
	DB	0fH
	DB	0f8H
	DB	00H
	DB	03H
	DB	0e0H
	DB	00H
	DB	00H
	DB	00H
	DB	00H
	DB	00H
	DB	00H
	DB	00H
	DB	00H
	DB	00H
	DB	00H
	DB	00H
	DB	00H
	DB	00H
	DB	00H
	DB	00H
	DB	00H
	DB	00H
	DB	00H
	DB	00H
	DB	00H
	DB	00H
	DB	00H
_acFont32B_1_00F6 DB 00H
	DB	00H
	DB	00H
	DB	00H
	DB	00H
	DB	00H
	DB	00H
	DB	00H
	DB	00H
	DB	00H
	DB	00H
	DB	00H
	DB	00H
	DB	00H
	DB	00H
	DB	00H
	DB	00H
	DB	00H
	DB	0eH
	DB	038H
	DB	00H
	DB	0eH
	DB	038H
	DB	00H
	DB	0eH
	DB	038H
	DB	00H
	DB	00H
	DB	00H
	DB	00H
	DB	03H
	DB	0e0H
	DB	00H
	DB	0fH
	DB	0f8H
	DB	00H
	DB	01fH
	DB	0fcH
	DB	00H
	DB	03eH
	DB	03eH
	DB	00H
	DB	03cH
	DB	01eH
	DB	00H
	DB	078H
	DB	0fH
	DB	00H
	DB	078H
	DB	0fH
	DB	00H
	DB	078H
	DB	0fH
	DB	00H
	DB	078H
	DB	0fH
	DB	00H
	DB	078H
	DB	0fH
	DB	00H
	DB	03cH
	DB	01eH
	DB	00H
	DB	03eH
	DB	03eH
	DB	00H
	DB	01fH
	DB	0fcH
	DB	00H
	DB	0fH
	DB	0f8H
	DB	00H
	DB	03H
	DB	0e0H
	DB	00H
	DB	00H
	DB	00H
	DB	00H
	DB	00H
	DB	00H
	DB	00H
	DB	00H
	DB	00H
	DB	00H
	DB	00H
	DB	00H
	DB	00H
	DB	00H
	DB	00H
	DB	00H
	DB	00H
	DB	00H
	DB	00H
	DB	00H
	DB	00H
	DB	00H
_acFont32B_1_00F7 DB 00H
	DB	00H
	DB	00H
	DB	00H
	DB	00H
	DB	00H
	DB	00H
	DB	00H
	DB	00H
	DB	00H
	DB	00H
	DB	00H
	DB	00H
	DB	00H
	DB	07H
	DB	080H
	DB	07H
	DB	080H
	DB	07H
	DB	080H
	DB	07H
	DB	080H
	DB	00H
	DB	00H
	DB	00H
	DB	00H
	DB	0ffH
	DB	0fcH
	DB	0ffH
	DB	0fcH
	DB	0ffH
	DB	0fcH
	DB	0ffH
	DB	0fcH
	DB	00H
	DB	00H
	DB	00H
	DB	00H
	DB	07H
	DB	080H
	DB	07H
	DB	080H
	DB	07H
	DB	080H
	DB	07H
	DB	080H
	DB	00H
	DB	00H
	DB	00H
	DB	00H
	DB	00H
	DB	00H
	DB	00H
	DB	00H
	DB	00H
	DB	00H
	DB	00H
	DB	00H
	DB	00H
	DB	00H
	DB	00H
	DB	00H
	DB	00H
	DB	00H
_acFont32B_1_00F8 DB 00H
	DB	00H
	DB	00H
	DB	00H
	DB	00H
	DB	00H
	DB	00H
	DB	00H
	DB	00H
	DB	00H
	DB	00H
	DB	00H
	DB	00H
	DB	00H
	DB	00H
	DB	00H
	DB	00H
	DB	00H
	DB	00H
	DB	00H
	DB	00H
	DB	00H
	DB	00H
	DB	00H
	DB	00H
	DB	00H
	DB	00H
	DB	00H
	DB	02H
	DB	00H
	DB	03H
	DB	0e3H
	DB	00H
	DB	0fH
	DB	0f6H
	DB	00H
	DB	01fH
	DB	0fcH
	DB	00H
	DB	03eH
	DB	03cH
	DB	00H
	DB	03cH
	DB	03eH
	DB	00H
	DB	078H
	DB	06fH
	DB	00H
	DB	078H
	DB	0cfH
	DB	00H
	DB	078H
	DB	08fH
	DB	00H
	DB	079H
	DB	08fH
	DB	00H
	DB	07bH
	DB	0fH
	DB	00H
	DB	07eH
	DB	01eH
	DB	00H
	DB	03eH
	DB	03eH
	DB	00H
	DB	01fH
	DB	0fcH
	DB	00H
	DB	03fH
	DB	0f8H
	DB	00H
	DB	067H
	DB	0e0H
	DB	00H
	DB	020H
	DB	00H
	DB	00H
	DB	00H
	DB	00H
	DB	00H
	DB	00H
	DB	00H
	DB	00H
	DB	00H
	DB	00H
	DB	00H
	DB	00H
	DB	00H
	DB	00H
	DB	00H
	DB	00H
	DB	00H
	DB	00H
	DB	00H
	DB	00H
_acFont32B_1_00F9 DB 00H
	DB	00H
	DB	00H
	DB	00H
	DB	00H
	DB	00H
	DB	00H
	DB	00H
	DB	00H
	DB	00H
	DB	00H
	DB	00H
	DB	00H
	DB	00H
	DB	00H
	DB	07H
	DB	080H
	DB	00H
	DB	03H
	DB	0c0H
	DB	00H
	DB	01H
	DB	0c0H
	DB	00H
	DB	00H
	DB	0e0H
	DB	00H
	DB	00H
	DB	00H
	DB	00H
	DB	03cH
	DB	01eH
	DB	00H
	DB	03cH
	DB	01eH
	DB	00H
	DB	03cH
	DB	01eH
	DB	00H
	DB	03cH
	DB	01eH
	DB	00H
	DB	03cH
	DB	01eH
	DB	00H
	DB	03cH
	DB	01eH
	DB	00H
	DB	03cH
	DB	01eH
	DB	00H
	DB	03cH
	DB	01eH
	DB	00H
	DB	03cH
	DB	01eH
	DB	00H
	DB	03cH
	DB	01eH
	DB	00H
	DB	03cH
	DB	01eH
	DB	00H
	DB	03eH
	DB	03eH
	DB	00H
	DB	03fH
	DB	0feH
	DB	00H
	DB	01fH
	DB	0feH
	DB	00H
	DB	0fH
	DB	09eH
	DB	00H
	DB	00H
	DB	00H
	DB	00H
	DB	00H
	DB	00H
	DB	00H
	DB	00H
	DB	00H
	DB	00H
	DB	00H
	DB	00H
	DB	00H
	DB	00H
	DB	00H
	DB	00H
	DB	00H
	DB	00H
	DB	00H
	DB	00H
	DB	00H
	DB	00H
_acFont32B_1_00FA DB 00H
	DB	00H
	DB	00H
	DB	00H
	DB	00H
	DB	00H
	DB	00H
	DB	00H
	DB	00H
	DB	00H
	DB	00H
	DB	00H
	DB	00H
	DB	00H
	DB	00H
	DB	00H
	DB	078H
	DB	00H
	DB	00H
	DB	0f0H
	DB	00H
	DB	00H
	DB	0e0H
	DB	00H
	DB	01H
	DB	0c0H
	DB	00H
	DB	00H
	DB	00H
	DB	00H
	DB	03cH
	DB	01eH
	DB	00H
	DB	03cH
	DB	01eH
	DB	00H
	DB	03cH
	DB	01eH
	DB	00H
	DB	03cH
	DB	01eH
	DB	00H
	DB	03cH
	DB	01eH
	DB	00H
	DB	03cH
	DB	01eH
	DB	00H
	DB	03cH
	DB	01eH
	DB	00H
	DB	03cH
	DB	01eH
	DB	00H
	DB	03cH
	DB	01eH
	DB	00H
	DB	03cH
	DB	01eH
	DB	00H
	DB	03cH
	DB	01eH
	DB	00H
	DB	03eH
	DB	03eH
	DB	00H
	DB	03fH
	DB	0feH
	DB	00H
	DB	01fH
	DB	0feH
	DB	00H
	DB	0fH
	DB	09eH
	DB	00H
	DB	00H
	DB	00H
	DB	00H
	DB	00H
	DB	00H
	DB	00H
	DB	00H
	DB	00H
	DB	00H
	DB	00H
	DB	00H
	DB	00H
	DB	00H
	DB	00H
	DB	00H
	DB	00H
	DB	00H
	DB	00H
	DB	00H
	DB	00H
	DB	00H
_acFont32B_1_00FB DB 00H
	DB	00H
	DB	00H
	DB	00H
	DB	00H
	DB	00H
	DB	00H
	DB	00H
	DB	00H
	DB	00H
	DB	00H
	DB	00H
	DB	00H
	DB	00H
	DB	00H
	DB	01H
	DB	0c0H
	DB	00H
	DB	03H
	DB	0e0H
	DB	00H
	DB	07H
	DB	070H
	DB	00H
	DB	0eH
	DB	038H
	DB	00H
	DB	00H
	DB	00H
	DB	00H
	DB	03cH
	DB	01eH
	DB	00H
	DB	03cH
	DB	01eH
	DB	00H
	DB	03cH
	DB	01eH
	DB	00H
	DB	03cH
	DB	01eH
	DB	00H
	DB	03cH
	DB	01eH
	DB	00H
	DB	03cH
	DB	01eH
	DB	00H
	DB	03cH
	DB	01eH
	DB	00H
	DB	03cH
	DB	01eH
	DB	00H
	DB	03cH
	DB	01eH
	DB	00H
	DB	03cH
	DB	01eH
	DB	00H
	DB	03cH
	DB	01eH
	DB	00H
	DB	03eH
	DB	03eH
	DB	00H
	DB	03fH
	DB	0feH
	DB	00H
	DB	01fH
	DB	0feH
	DB	00H
	DB	0fH
	DB	09eH
	DB	00H
	DB	00H
	DB	00H
	DB	00H
	DB	00H
	DB	00H
	DB	00H
	DB	00H
	DB	00H
	DB	00H
	DB	00H
	DB	00H
	DB	00H
	DB	00H
	DB	00H
	DB	00H
	DB	00H
	DB	00H
	DB	00H
	DB	00H
	DB	00H
	DB	00H
_acFont32B_1_00FC DB 00H
	DB	00H
	DB	00H
	DB	00H
	DB	00H
	DB	00H
	DB	00H
	DB	00H
	DB	00H
	DB	00H
	DB	00H
	DB	00H
	DB	00H
	DB	00H
	DB	00H
	DB	00H
	DB	00H
	DB	00H
	DB	0eH
	DB	038H
	DB	00H
	DB	0eH
	DB	038H
	DB	00H
	DB	0eH
	DB	038H
	DB	00H
	DB	00H
	DB	00H
	DB	00H
	DB	03cH
	DB	01eH
	DB	00H
	DB	03cH
	DB	01eH
	DB	00H
	DB	03cH
	DB	01eH
	DB	00H
	DB	03cH
	DB	01eH
	DB	00H
	DB	03cH
	DB	01eH
	DB	00H
	DB	03cH
	DB	01eH
	DB	00H
	DB	03cH
	DB	01eH
	DB	00H
	DB	03cH
	DB	01eH
	DB	00H
	DB	03cH
	DB	01eH
	DB	00H
	DB	03cH
	DB	01eH
	DB	00H
	DB	03cH
	DB	01eH
	DB	00H
	DB	03eH
	DB	03eH
	DB	00H
	DB	03fH
	DB	0feH
	DB	00H
	DB	01fH
	DB	0feH
	DB	00H
	DB	0fH
	DB	09eH
	DB	00H
	DB	00H
	DB	00H
	DB	00H
	DB	00H
	DB	00H
	DB	00H
	DB	00H
	DB	00H
	DB	00H
	DB	00H
	DB	00H
	DB	00H
	DB	00H
	DB	00H
	DB	00H
	DB	00H
	DB	00H
	DB	00H
	DB	00H
	DB	00H
	DB	00H
_acFont32B_1_00FD DB 00H
	DB	00H
	DB	00H
	DB	00H
	DB	00H
	DB	00H
	DB	00H
	DB	00H
	DB	00H
	DB	00H
	DB	00H
	DB	0f0H
	DB	01H
	DB	0e0H
	DB	01H
	DB	0c0H
	DB	03H
	DB	080H
	DB	00H
	DB	00H
	DB	0f0H
	DB	01eH
	DB	0f0H
	DB	01eH
	DB	078H
	DB	03cH
	DB	078H
	DB	03cH
	DB	078H
	DB	038H
	DB	03cH
	DB	078H
	DB	03cH
	DB	078H
	DB	01cH
	DB	070H
	DB	01cH
	DB	070H
	DB	01eH
	DB	0f0H
	DB	0eH
	DB	0e0H
	DB	0eH
	DB	0e0H
	DB	07H
	DB	0c0H
	DB	07H
	DB	0c0H
	DB	07H
	DB	0c0H
	DB	07H
	DB	080H
	DB	0fH
	DB	080H
	DB	07fH
	DB	00H
	DB	07fH
	DB	00H
	DB	07cH
	DB	00H
	DB	00H
	DB	00H
	DB	00H
	DB	00H
_acFont32B_1_00FE DB 00H
	DB	00H
	DB	00H
	DB	00H
	DB	00H
	DB	00H
	DB	00H
	DB	00H
	DB	00H
	DB	00H
	DB	00H
	DB	00H
	DB	00H
	DB	00H
	DB	00H
	DB	03cH
	DB	00H
	DB	00H
	DB	03cH
	DB	00H
	DB	00H
	DB	03cH
	DB	00H
	DB	00H
	DB	03cH
	DB	00H
	DB	00H
	DB	03cH
	DB	00H
	DB	00H
	DB	03cH
	DB	0f0H
	DB	00H
	DB	03fH
	DB	0fcH
	DB	00H
	DB	03fH
	DB	0feH
	DB	00H
	DB	03eH
	DB	01eH
	DB	00H
	DB	03eH
	DB	01fH
	DB	00H
	DB	03cH
	DB	0fH
	DB	00H
	DB	03cH
	DB	0fH
	DB	00H
	DB	03cH
	DB	0fH
	DB	00H
	DB	03cH
	DB	0fH
	DB	00H
	DB	03cH
	DB	0fH
	DB	00H
	DB	03eH
	DB	01fH
	DB	00H
	DB	03fH
	DB	01eH
	DB	00H
	DB	03fH
	DB	0feH
	DB	00H
	DB	03dH
	DB	0fcH
	DB	00H
	DB	03cH
	DB	0f0H
	DB	00H
	DB	03cH
	DB	00H
	DB	00H
	DB	03cH
	DB	00H
	DB	00H
	DB	03cH
	DB	00H
	DB	00H
	DB	03cH
	DB	00H
	DB	00H
	DB	03cH
	DB	00H
	DB	00H
	DB	00H
	DB	00H
	DB	00H
	DB	00H
	DB	00H
	DB	00H
_acFont32B_1_00FF DB 00H
	DB	00H
	DB	00H
	DB	00H
	DB	00H
	DB	00H
	DB	00H
	DB	00H
	DB	00H
	DB	00H
	DB	00H
	DB	00H
	DB	01cH
	DB	070H
	DB	01cH
	DB	070H
	DB	01cH
	DB	070H
	DB	00H
	DB	00H
	DB	0f0H
	DB	01eH
	DB	0f0H
	DB	01eH
	DB	078H
	DB	03cH
	DB	078H
	DB	03cH
	DB	078H
	DB	038H
	DB	03cH
	DB	078H
	DB	03cH
	DB	078H
	DB	01cH
	DB	070H
	DB	01cH
	DB	070H
	DB	01eH
	DB	0f0H
	DB	0eH
	DB	0e0H
	DB	0eH
	DB	0e0H
	DB	07H
	DB	0c0H
	DB	07H
	DB	0c0H
	DB	07H
	DB	0c0H
	DB	07H
	DB	080H
	DB	0fH
	DB	080H
	DB	07fH
	DB	00H
	DB	07fH
	DB	00H
	DB	07cH
	DB	00H
	DB	00H
	DB	00H
	DB	00H
	DB	00H
_GUI_Font32B_1_CharInfo DB 08H
	DB	08H
	DB	01H
	ORG $+1
	DD	FLAT:_acFont32B_1_00A0
	DB	08H
	DB	08H
	DB	01H
	ORG $+1
	DD	FLAT:_acFont32B_1_00A1
	DB	0fH
	DB	0fH
	DB	02H
	ORG $+1
	DD	FLAT:_acFont32B_1_00A2
	DB	0fH
	DB	0fH
	DB	02H
	ORG $+1
	DD	FLAT:_acFont32B_1_00A3
	DB	0fH
	DB	0fH
	DB	02H
	ORG $+1
	DD	FLAT:_acFont32B_1_00A4
	DB	0fH
	DB	0fH
	DB	02H
	ORG $+1
	DD	FLAT:_acFont32B_1_00A5
	DB	07H
	DB	07H
	DB	01H
	ORG $+1
	DD	FLAT:_acFont32B_1_00A6
	DB	0fH
	DB	0fH
	DB	02H
	ORG $+1
	DD	FLAT:_acFont32B_1_00A7
	DB	09H
	DB	09H
	DB	02H
	ORG $+1
	DD	FLAT:_acFont32B_1_00A8
	DB	014H
	DB	014H
	DB	03H
	ORG $+1
	DD	FLAT:_acFont32B_1_00A9
	DB	0aH
	DB	0aH
	DB	02H
	ORG $+1
	DD	FLAT:_acFont32B_1_00AA
	DB	0fH
	DB	0fH
	DB	02H
	ORG $+1
	DD	FLAT:_acFont32B_1_00AB
	DB	010H
	DB	010H
	DB	02H
	ORG $+1
	DD	FLAT:_acFont32B_1_00AC
	DB	09H
	DB	09H
	DB	02H
	ORG $+1
	DD	FLAT:_acFont32B_1_00AD
	DB	014H
	DB	014H
	DB	03H
	ORG $+1
	DD	FLAT:_acFont32B_1_00AE
	DB	0fH
	DB	0fH
	DB	02H
	ORG $+1
	DD	FLAT:_acFont32B_1_00AF
	DB	0bH
	DB	0bH
	DB	02H
	ORG $+1
	DD	FLAT:_acFont32B_1_00B0
	DB	0fH
	DB	0fH
	DB	02H
	ORG $+1
	DD	FLAT:_acFont32B_1_00B1
	DB	09H
	DB	09H
	DB	02H
	ORG $+1
	DD	FLAT:_acFont32B_1_00B2
	DB	09H
	DB	09H
	DB	02H
	ORG $+1
	DD	FLAT:_acFont32B_1_00B3
	DB	09H
	DB	09H
	DB	02H
	ORG $+1
	DD	FLAT:_acFont32B_1_00B4
	DB	010H
	DB	010H
	DB	02H
	ORG $+1
	DD	FLAT:_acFont32B_1_00B5
	DB	0fH
	DB	0fH
	DB	02H
	ORG $+1
	DD	FLAT:_acFont32B_1_00B6
	DB	08H
	DB	08H
	DB	01H
	ORG $+1
	DD	FLAT:_acFont32B_1_00B7
	DB	09H
	DB	09H
	DB	02H
	ORG $+1
	DD	FLAT:_acFont32B_1_00B8
	DB	09H
	DB	09H
	DB	02H
	ORG $+1
	DD	FLAT:_acFont32B_1_00B9
	DB	0aH
	DB	0aH
	DB	02H
	ORG $+1
	DD	FLAT:_acFont32B_1_00BA
	DB	0fH
	DB	0fH
	DB	02H
	ORG $+1
	DD	FLAT:_acFont32B_1_00BB
	DB	017H
	DB	017H
	DB	03H
	ORG $+1
	DD	FLAT:_acFont32B_1_00BC
	DB	017H
	DB	017H
	DB	03H
	ORG $+1
	DD	FLAT:_acFont32B_1_00BD
	DB	017H
	DB	017H
	DB	03H
	ORG $+1
	DD	FLAT:_acFont32B_1_00BE
	DB	011H
	DB	011H
	DB	03H
	ORG $+1
	DD	FLAT:_acFont32B_1_00BF
	DB	013H
	DB	013H
	DB	03H
	ORG $+1
	DD	FLAT:_acFont32B_1_00C0
	DB	013H
	DB	013H
	DB	03H
	ORG $+1
	DD	FLAT:_acFont32B_1_00C1
	DB	013H
	DB	013H
	DB	03H
	ORG $+1
	DD	FLAT:_acFont32B_1_00C2
	DB	013H
	DB	013H
	DB	03H
	ORG $+1
	DD	FLAT:_acFont32B_1_00C3
	DB	013H
	DB	013H
	DB	03H
	ORG $+1
	DD	FLAT:_acFont32B_1_00C4
	DB	013H
	DB	013H
	DB	03H
	ORG $+1
	DD	FLAT:_acFont32B_1_00C5
	DB	01bH
	DB	01bH
	DB	04H
	ORG $+1
	DD	FLAT:_acFont32B_1_00C6
	DB	014H
	DB	014H
	DB	03H
	ORG $+1
	DD	FLAT:_acFont32B_1_00C7
	DB	012H
	DB	012H
	DB	03H
	ORG $+1
	DD	FLAT:_acFont32B_1_00C8
	DB	012H
	DB	012H
	DB	03H
	ORG $+1
	DD	FLAT:_acFont32B_1_00C9
	DB	012H
	DB	012H
	DB	03H
	ORG $+1
	DD	FLAT:_acFont32B_1_00CA
	DB	012H
	DB	012H
	DB	03H
	ORG $+1
	DD	FLAT:_acFont32B_1_00CB
	DB	08H
	DB	08H
	DB	01H
	ORG $+1
	DD	FLAT:_acFont32B_1_00CC
	DB	08H
	DB	08H
	DB	01H
	ORG $+1
	DD	FLAT:_acFont32B_1_00CD
	DB	08H
	DB	08H
	DB	01H
	ORG $+1
	DD	FLAT:_acFont32B_1_00CE
	DB	08H
	DB	08H
	DB	01H
	ORG $+1
	DD	FLAT:_acFont32B_1_00CF
	DB	014H
	DB	014H
	DB	03H
	ORG $+1
	DD	FLAT:_acFont32B_1_00D0
	DB	014H
	DB	014H
	DB	03H
	ORG $+1
	DD	FLAT:_acFont32B_1_00D1
	DB	015H
	DB	015H
	DB	03H
	ORG $+1
	DD	FLAT:_acFont32B_1_00D2
	DB	015H
	DB	015H
	DB	03H
	ORG $+1
	DD	FLAT:_acFont32B_1_00D3
	DB	015H
	DB	015H
	DB	03H
	ORG $+1
	DD	FLAT:_acFont32B_1_00D4
	DB	015H
	DB	015H
	DB	03H
	ORG $+1
	DD	FLAT:_acFont32B_1_00D5
	DB	015H
	DB	015H
	DB	03H
	ORG $+1
	DD	FLAT:_acFont32B_1_00D6
	DB	010H
	DB	010H
	DB	02H
	ORG $+1
	DD	FLAT:_acFont32B_1_00D7
	DB	015H
	DB	015H
	DB	03H
	ORG $+1
	DD	FLAT:_acFont32B_1_00D8
	DB	014H
	DB	014H
	DB	03H
	ORG $+1
	DD	FLAT:_acFont32B_1_00D9
	DB	014H
	DB	014H
	DB	03H
	ORG $+1
	DD	FLAT:_acFont32B_1_00DA
	DB	014H
	DB	014H
	DB	03H
	ORG $+1
	DD	FLAT:_acFont32B_1_00DB
	DB	014H
	DB	014H
	DB	03H
	ORG $+1
	DD	FLAT:_acFont32B_1_00DC
	DB	012H
	DB	012H
	DB	03H
	ORG $+1
	DD	FLAT:_acFont32B_1_00DD
	DB	012H
	DB	012H
	DB	03H
	ORG $+1
	DD	FLAT:_acFont32B_1_00DE
	DB	011H
	DB	011H
	DB	03H
	ORG $+1
	DD	FLAT:_acFont32B_1_00DF
	DB	0fH
	DB	0fH
	DB	02H
	ORG $+1
	DD	FLAT:_acFont32B_1_00E0
	DB	0fH
	DB	0fH
	DB	02H
	ORG $+1
	DD	FLAT:_acFont32B_1_00E1
	DB	0fH
	DB	0fH
	DB	02H
	ORG $+1
	DD	FLAT:_acFont32B_1_00E2
	DB	0fH
	DB	0fH
	DB	02H
	ORG $+1
	DD	FLAT:_acFont32B_1_00E3
	DB	0fH
	DB	0fH
	DB	02H
	ORG $+1
	DD	FLAT:_acFont32B_1_00E4
	DB	0fH
	DB	0fH
	DB	02H
	ORG $+1
	DD	FLAT:_acFont32B_1_00E5
	DB	018H
	DB	018H
	DB	03H
	ORG $+1
	DD	FLAT:_acFont32B_1_00E6
	DB	0fH
	DB	0fH
	DB	02H
	ORG $+1
	DD	FLAT:_acFont32B_1_00E7
	DB	0fH
	DB	0fH
	DB	02H
	ORG $+1
	DD	FLAT:_acFont32B_1_00E8
	DB	0fH
	DB	0fH
	DB	02H
	ORG $+1
	DD	FLAT:_acFont32B_1_00E9
	DB	0fH
	DB	0fH
	DB	02H
	ORG $+1
	DD	FLAT:_acFont32B_1_00EA
	DB	0fH
	DB	0fH
	DB	02H
	ORG $+1
	DD	FLAT:_acFont32B_1_00EB
	DB	08H
	DB	08H
	DB	01H
	ORG $+1
	DD	FLAT:_acFont32B_1_00EC
	DB	08H
	DB	08H
	DB	01H
	ORG $+1
	DD	FLAT:_acFont32B_1_00ED
	DB	08H
	DB	08H
	DB	01H
	ORG $+1
	DD	FLAT:_acFont32B_1_00EE
	DB	08H
	DB	08H
	DB	01H
	ORG $+1
	DD	FLAT:_acFont32B_1_00EF
	DB	011H
	DB	011H
	DB	03H
	ORG $+1
	DD	FLAT:_acFont32B_1_00F0
	DB	011H
	DB	011H
	DB	03H
	ORG $+1
	DD	FLAT:_acFont32B_1_00F1
	DB	011H
	DB	011H
	DB	03H
	ORG $+1
	DD	FLAT:_acFont32B_1_00F2
	DB	011H
	DB	011H
	DB	03H
	ORG $+1
	DD	FLAT:_acFont32B_1_00F3
	DB	011H
	DB	011H
	DB	03H
	ORG $+1
	DD	FLAT:_acFont32B_1_00F4
	DB	011H
	DB	011H
	DB	03H
	ORG $+1
	DD	FLAT:_acFont32B_1_00F5
	DB	011H
	DB	011H
	DB	03H
	ORG $+1
	DD	FLAT:_acFont32B_1_00F6
	DB	0fH
	DB	0fH
	DB	02H
	ORG $+1
	DD	FLAT:_acFont32B_1_00F7
	DB	011H
	DB	011H
	DB	03H
	ORG $+1
	DD	FLAT:_acFont32B_1_00F8
	DB	011H
	DB	011H
	DB	03H
	ORG $+1
	DD	FLAT:_acFont32B_1_00F9
	DB	011H
	DB	011H
	DB	03H
	ORG $+1
	DD	FLAT:_acFont32B_1_00FA
	DB	011H
	DB	011H
	DB	03H
	ORG $+1
	DD	FLAT:_acFont32B_1_00FB
	DB	011H
	DB	011H
	DB	03H
	ORG $+1
	DD	FLAT:_acFont32B_1_00FC
	DB	0fH
	DB	0fH
	DB	02H
	ORG $+1
	DD	FLAT:_acFont32B_1_00FD
	DB	011H
	DB	011H
	DB	03H
	ORG $+1
	DD	FLAT:_acFont32B_1_00FE
	DB	0fH
	DB	0fH
	DB	02H
	ORG $+1
	DD	FLAT:_acFont32B_1_00FF
_GUI_Font32B_1_Prop2 DW 0a0H
	DW	0ffH
	DD	FLAT:_GUI_Font32B_1_CharInfo
	DD	00H
_GUI_Font32B_1_Prop1 DW 020H
	DW	07eH
	DD	FLAT:_GUI_Font32B_ASCII_CharInfo
	DD	FLAT:_GUI_Font32B_1_Prop2
_GUI_Font32B_1 DD FLAT:_GUIPROP_DispChar
	DD	FLAT:_GUIPROP_GetCharDistX
	DD	FLAT:_GUIPROP_GetFontInfo
	DD	FLAT:_GUIPROP_IsInFont
	DD	00H
	DD	00H
	DB	020H
	DB	020H
	DB	01H
	DB	01H
	DD	FLAT:_GUI_Font32B_1_Prop1
	DB	019H
	DB	0fH
	DB	014H
	ORG $+1
CONST	ENDS
END
