; Listing generated by Microsoft (R) Optimizing Compiler Version 16.00.40219.01 

	TITLE	C:\DUII\Simulation\GUI\Font\F6x8_ASCII.c
	.686P
	.XMM
	include listing.inc
	.model	flat

INCLUDELIB LIBCMT
INCLUDELIB OLDNAMES

PUBLIC	_acFont6x8ASCII_0020
PUBLIC	_acFont6x8ASCII_0021
PUBLIC	_acFont6x8ASCII_0022
PUBLIC	_acFont6x8ASCII_0023
PUBLIC	_acFont6x8ASCII_0024
PUBLIC	_acFont6x8ASCII_0025
PUBLIC	_acFont6x8ASCII_0026
PUBLIC	_acFont6x8ASCII_0027
PUBLIC	_acFont6x8ASCII_0028
PUBLIC	_acFont6x8ASCII_0029
PUBLIC	_acFont6x8ASCII_002A
PUBLIC	_acFont6x8ASCII_002B
PUBLIC	_acFont6x8ASCII_002C
PUBLIC	_acFont6x8ASCII_002D
PUBLIC	_acFont6x8ASCII_002E
PUBLIC	_acFont6x8ASCII_002F
PUBLIC	_acFont6x8ASCII_0030
PUBLIC	_acFont6x8ASCII_0031
PUBLIC	_acFont6x8ASCII_0032
PUBLIC	_acFont6x8ASCII_0033
PUBLIC	_acFont6x8ASCII_0034
PUBLIC	_acFont6x8ASCII_0035
PUBLIC	_acFont6x8ASCII_0036
PUBLIC	_acFont6x8ASCII_0037
PUBLIC	_acFont6x8ASCII_0038
PUBLIC	_acFont6x8ASCII_0039
PUBLIC	_acFont6x8ASCII_003A
PUBLIC	_acFont6x8ASCII_003B
PUBLIC	_acFont6x8ASCII_003C
PUBLIC	_acFont6x8ASCII_003D
PUBLIC	_acFont6x8ASCII_003E
PUBLIC	_acFont6x8ASCII_003F
PUBLIC	_acFont6x8ASCII_0040
PUBLIC	_acFont6x8ASCII_0041
PUBLIC	_acFont6x8ASCII_0042
PUBLIC	_acFont6x8ASCII_0043
PUBLIC	_acFont6x8ASCII_0044
PUBLIC	_acFont6x8ASCII_0045
PUBLIC	_acFont6x8ASCII_0046
PUBLIC	_acFont6x8ASCII_0047
PUBLIC	_acFont6x8ASCII_0048
PUBLIC	_acFont6x8ASCII_0049
PUBLIC	_acFont6x8ASCII_004A
PUBLIC	_acFont6x8ASCII_004B
PUBLIC	_acFont6x8ASCII_004C
PUBLIC	_acFont6x8ASCII_004D
PUBLIC	_acFont6x8ASCII_004E
PUBLIC	_acFont6x8ASCII_004F
PUBLIC	_acFont6x8ASCII_0050
PUBLIC	_acFont6x8ASCII_0051
PUBLIC	_acFont6x8ASCII_0052
PUBLIC	_acFont6x8ASCII_0053
PUBLIC	_acFont6x8ASCII_0054
PUBLIC	_acFont6x8ASCII_0055
PUBLIC	_acFont6x8ASCII_0056
PUBLIC	_acFont6x8ASCII_0057
PUBLIC	_acFont6x8ASCII_0058
PUBLIC	_acFont6x8ASCII_0059
PUBLIC	_acFont6x8ASCII_005A
PUBLIC	_acFont6x8ASCII_005B
PUBLIC	_acFont6x8ASCII_005C
PUBLIC	_acFont6x8ASCII_005D
PUBLIC	_acFont6x8ASCII_005E
PUBLIC	_acFont6x8ASCII_005F
PUBLIC	_acFont6x8ASCII_0060
PUBLIC	_acFont6x8ASCII_0061
PUBLIC	_acFont6x8ASCII_0062
PUBLIC	_acFont6x8ASCII_0063
PUBLIC	_acFont6x8ASCII_0064
PUBLIC	_acFont6x8ASCII_0065
PUBLIC	_acFont6x8ASCII_0066
PUBLIC	_acFont6x8ASCII_0067
PUBLIC	_acFont6x8ASCII_0068
PUBLIC	_acFont6x8ASCII_0069
PUBLIC	_acFont6x8ASCII_006A
PUBLIC	_acFont6x8ASCII_006B
PUBLIC	_acFont6x8ASCII_006C
PUBLIC	_acFont6x8ASCII_006D
PUBLIC	_acFont6x8ASCII_006E
PUBLIC	_acFont6x8ASCII_006F
PUBLIC	_acFont6x8ASCII_0070
PUBLIC	_acFont6x8ASCII_0071
PUBLIC	_acFont6x8ASCII_0072
PUBLIC	_acFont6x8ASCII_0073
PUBLIC	_acFont6x8ASCII_0074
PUBLIC	_acFont6x8ASCII_0075
PUBLIC	_acFont6x8ASCII_0076
PUBLIC	_acFont6x8ASCII_0077
PUBLIC	_acFont6x8ASCII_0078
PUBLIC	_acFont6x8ASCII_0079
PUBLIC	_acFont6x8ASCII_007A
PUBLIC	_acFont6x8ASCII_007B
PUBLIC	_acFont6x8ASCII_007C
PUBLIC	_acFont6x8ASCII_007D
PUBLIC	_acFont6x8ASCII_007E
PUBLIC	_GUI_Font6x8ASCII_CharInfo
PUBLIC	_GUI_Font6x8ASCII_Prop0
PUBLIC	_GUI_Font6x8_ASCII
EXTRN	_GUIPROP_IsInFont:PROC
EXTRN	_GUIPROP_GetFontInfo:PROC
EXTRN	_GUIPROP_GetCharDistX:PROC
EXTRN	_GUIPROP_DispChar:PROC
CONST	SEGMENT
_acFont6x8ASCII_0020 DB 00H
	DB	00H
	DB	00H
	DB	00H
	DB	00H
	DB	00H
	DB	00H
	DB	00H
_acFont6x8ASCII_0021 DB 020H
	DB	020H
	DB	020H
	DB	020H
	DB	020H
	DB	00H
	DB	020H
	DB	00H
_acFont6x8ASCII_0022 DB 048H
	DB	048H
	DB	048H
	DB	00H
	DB	00H
	DB	00H
	DB	00H
	DB	00H
_acFont6x8ASCII_0023 DB 050H
	DB	050H
	DB	0f8H
	DB	050H
	DB	0f8H
	DB	050H
	DB	050H
	DB	00H
_acFont6x8ASCII_0024 DB 020H
	DB	078H
	DB	0a0H
	DB	070H
	DB	028H
	DB	0f0H
	DB	020H
	DB	00H
_acFont6x8ASCII_0025 DB 0c0H
	DB	0c8H
	DB	010H
	DB	020H
	DB	040H
	DB	098H
	DB	018H
	DB	00H
_acFont6x8ASCII_0026 DB 060H
	DB	090H
	DB	0a0H
	DB	040H
	DB	0a8H
	DB	090H
	DB	068H
	DB	00H
_acFont6x8ASCII_0027 DB 060H
	DB	020H
	DB	040H
	DB	00H
	DB	00H
	DB	00H
	DB	00H
	DB	00H
_acFont6x8ASCII_0028 DB 010H
	DB	020H
	DB	040H
	DB	040H
	DB	040H
	DB	020H
	DB	010H
	DB	00H
_acFont6x8ASCII_0029 DB 040H
	DB	020H
	DB	010H
	DB	010H
	DB	010H
	DB	020H
	DB	040H
	DB	00H
_acFont6x8ASCII_002A DB 00H
	DB	050H
	DB	020H
	DB	0f8H
	DB	020H
	DB	050H
	DB	00H
	DB	00H
_acFont6x8ASCII_002B DB 00H
	DB	020H
	DB	020H
	DB	0f8H
	DB	020H
	DB	020H
	DB	00H
	DB	00H
_acFont6x8ASCII_002C DB 00H
	DB	00H
	DB	00H
	DB	00H
	DB	00H
	DB	060H
	DB	020H
	DB	040H
_acFont6x8ASCII_002D DB 00H
	DB	00H
	DB	00H
	DB	0f8H
	DB	00H
	DB	00H
	DB	00H
	DB	00H
_acFont6x8ASCII_002E DB 00H
	DB	00H
	DB	00H
	DB	00H
	DB	00H
	DB	060H
	DB	060H
	DB	00H
_acFont6x8ASCII_002F DB 00H
	DB	08H
	DB	010H
	DB	020H
	DB	040H
	DB	080H
	DB	00H
	DB	00H
_acFont6x8ASCII_0030 DB 070H
	DB	088H
	DB	098H
	DB	0a8H
	DB	0c8H
	DB	088H
	DB	070H
	DB	00H
_acFont6x8ASCII_0031 DB 020H
	DB	060H
	DB	020H
	DB	020H
	DB	020H
	DB	020H
	DB	070H
	DB	00H
_acFont6x8ASCII_0032 DB 070H
	DB	088H
	DB	08H
	DB	030H
	DB	040H
	DB	080H
	DB	0f8H
	DB	00H
_acFont6x8ASCII_0033 DB 070H
	DB	088H
	DB	08H
	DB	030H
	DB	08H
	DB	088H
	DB	070H
	DB	00H
_acFont6x8ASCII_0034 DB 010H
	DB	030H
	DB	050H
	DB	090H
	DB	0f8H
	DB	010H
	DB	010H
	DB	00H
_acFont6x8ASCII_0035 DB 0f8H
	DB	080H
	DB	0f0H
	DB	08H
	DB	08H
	DB	088H
	DB	070H
	DB	00H
_acFont6x8ASCII_0036 DB 030H
	DB	040H
	DB	080H
	DB	0f0H
	DB	088H
	DB	088H
	DB	070H
	DB	00H
_acFont6x8ASCII_0037 DB 0f8H
	DB	08H
	DB	010H
	DB	020H
	DB	040H
	DB	040H
	DB	040H
	DB	00H
_acFont6x8ASCII_0038 DB 070H
	DB	088H
	DB	088H
	DB	070H
	DB	088H
	DB	088H
	DB	070H
	DB	00H
_acFont6x8ASCII_0039 DB 070H
	DB	088H
	DB	088H
	DB	078H
	DB	08H
	DB	010H
	DB	060H
	DB	00H
_acFont6x8ASCII_003A DB 00H
	DB	060H
	DB	060H
	DB	00H
	DB	060H
	DB	060H
	DB	00H
	DB	00H
_acFont6x8ASCII_003B DB 00H
	DB	00H
	DB	060H
	DB	060H
	DB	00H
	DB	060H
	DB	020H
	DB	040H
_acFont6x8ASCII_003C DB 010H
	DB	020H
	DB	040H
	DB	080H
	DB	040H
	DB	020H
	DB	010H
	DB	00H
_acFont6x8ASCII_003D DB 00H
	DB	00H
	DB	0f8H
	DB	00H
	DB	0f8H
	DB	00H
	DB	00H
	DB	00H
_acFont6x8ASCII_003E DB 080H
	DB	040H
	DB	020H
	DB	010H
	DB	020H
	DB	040H
	DB	080H
	DB	00H
_acFont6x8ASCII_003F DB 070H
	DB	088H
	DB	08H
	DB	010H
	DB	020H
	DB	00H
	DB	020H
	DB	00H
_acFont6x8ASCII_0040 DB 070H
	DB	088H
	DB	08H
	DB	068H
	DB	0a8H
	DB	0a8H
	DB	070H
	DB	00H
_acFont6x8ASCII_0041 DB 070H
	DB	088H
	DB	088H
	DB	0f8H
	DB	088H
	DB	088H
	DB	088H
	DB	00H
_acFont6x8ASCII_0042 DB 0f0H
	DB	088H
	DB	088H
	DB	0f0H
	DB	088H
	DB	088H
	DB	0f0H
	DB	00H
_acFont6x8ASCII_0043 DB 070H
	DB	088H
	DB	080H
	DB	080H
	DB	080H
	DB	088H
	DB	070H
	DB	00H
_acFont6x8ASCII_0044 DB 0e0H
	DB	090H
	DB	088H
	DB	088H
	DB	088H
	DB	090H
	DB	0e0H
	DB	00H
_acFont6x8ASCII_0045 DB 0f8H
	DB	080H
	DB	080H
	DB	0f0H
	DB	080H
	DB	080H
	DB	0f8H
	DB	00H
_acFont6x8ASCII_0046 DB 0f8H
	DB	080H
	DB	080H
	DB	0f0H
	DB	080H
	DB	080H
	DB	080H
	DB	00H
_acFont6x8ASCII_0047 DB 070H
	DB	088H
	DB	080H
	DB	080H
	DB	098H
	DB	088H
	DB	078H
	DB	00H
_acFont6x8ASCII_0048 DB 088H
	DB	088H
	DB	088H
	DB	0f8H
	DB	088H
	DB	088H
	DB	088H
	DB	00H
_acFont6x8ASCII_0049 DB 070H
	DB	020H
	DB	020H
	DB	020H
	DB	020H
	DB	020H
	DB	070H
	DB	00H
_acFont6x8ASCII_004A DB 038H
	DB	010H
	DB	010H
	DB	010H
	DB	010H
	DB	090H
	DB	060H
	DB	00H
_acFont6x8ASCII_004B DB 088H
	DB	090H
	DB	0a0H
	DB	0c0H
	DB	0a0H
	DB	090H
	DB	088H
	DB	00H
_acFont6x8ASCII_004C DB 080H
	DB	080H
	DB	080H
	DB	080H
	DB	080H
	DB	080H
	DB	0f8H
	DB	00H
_acFont6x8ASCII_004D DB 088H
	DB	0d8H
	DB	0a8H
	DB	0a8H
	DB	088H
	DB	088H
	DB	088H
	DB	00H
_acFont6x8ASCII_004E DB 088H
	DB	088H
	DB	0c8H
	DB	0a8H
	DB	098H
	DB	088H
	DB	088H
	DB	00H
_acFont6x8ASCII_004F DB 070H
	DB	088H
	DB	088H
	DB	088H
	DB	088H
	DB	088H
	DB	070H
	DB	00H
_acFont6x8ASCII_0050 DB 0f0H
	DB	088H
	DB	088H
	DB	0f0H
	DB	080H
	DB	080H
	DB	080H
	DB	00H
_acFont6x8ASCII_0051 DB 070H
	DB	088H
	DB	088H
	DB	088H
	DB	0a8H
	DB	090H
	DB	068H
	DB	00H
_acFont6x8ASCII_0052 DB 0f0H
	DB	088H
	DB	088H
	DB	0f0H
	DB	0a0H
	DB	090H
	DB	088H
	DB	00H
_acFont6x8ASCII_0053 DB 070H
	DB	088H
	DB	080H
	DB	070H
	DB	08H
	DB	088H
	DB	070H
	DB	00H
_acFont6x8ASCII_0054 DB 0f8H
	DB	020H
	DB	020H
	DB	020H
	DB	020H
	DB	020H
	DB	020H
	DB	00H
_acFont6x8ASCII_0055 DB 088H
	DB	088H
	DB	088H
	DB	088H
	DB	088H
	DB	088H
	DB	070H
	DB	00H
_acFont6x8ASCII_0056 DB 088H
	DB	088H
	DB	088H
	DB	088H
	DB	088H
	DB	050H
	DB	020H
	DB	00H
_acFont6x8ASCII_0057 DB 088H
	DB	088H
	DB	088H
	DB	0a8H
	DB	0a8H
	DB	0a8H
	DB	050H
	DB	00H
_acFont6x8ASCII_0058 DB 088H
	DB	088H
	DB	050H
	DB	020H
	DB	050H
	DB	088H
	DB	088H
	DB	00H
_acFont6x8ASCII_0059 DB 088H
	DB	088H
	DB	088H
	DB	050H
	DB	020H
	DB	020H
	DB	020H
	DB	00H
_acFont6x8ASCII_005A DB 0f8H
	DB	08H
	DB	010H
	DB	020H
	DB	040H
	DB	080H
	DB	0f8H
	DB	00H
_acFont6x8ASCII_005B DB 070H
	DB	040H
	DB	040H
	DB	040H
	DB	040H
	DB	040H
	DB	070H
	DB	00H
_acFont6x8ASCII_005C DB 00H
	DB	080H
	DB	040H
	DB	020H
	DB	010H
	DB	08H
	DB	00H
	DB	00H
_acFont6x8ASCII_005D DB 070H
	DB	010H
	DB	010H
	DB	010H
	DB	010H
	DB	010H
	DB	070H
	DB	00H
_acFont6x8ASCII_005E DB 020H
	DB	050H
	DB	088H
	DB	00H
	DB	00H
	DB	00H
	DB	00H
	DB	00H
_acFont6x8ASCII_005F DB 00H
	DB	00H
	DB	00H
	DB	00H
	DB	00H
	DB	00H
	DB	00H
	DB	0f8H
_acFont6x8ASCII_0060 DB 040H
	DB	020H
	DB	010H
	DB	00H
	DB	00H
	DB	00H
	DB	00H
	DB	00H
_acFont6x8ASCII_0061 DB 00H
	DB	00H
	DB	070H
	DB	08H
	DB	078H
	DB	088H
	DB	078H
	DB	00H
_acFont6x8ASCII_0062 DB 080H
	DB	080H
	DB	0b0H
	DB	0c8H
	DB	088H
	DB	088H
	DB	0f0H
	DB	00H
_acFont6x8ASCII_0063 DB 00H
	DB	00H
	DB	070H
	DB	080H
	DB	080H
	DB	088H
	DB	070H
	DB	00H
_acFont6x8ASCII_0064 DB 08H
	DB	08H
	DB	068H
	DB	098H
	DB	088H
	DB	088H
	DB	078H
	DB	00H
_acFont6x8ASCII_0065 DB 00H
	DB	00H
	DB	070H
	DB	088H
	DB	0f8H
	DB	080H
	DB	070H
	DB	00H
_acFont6x8ASCII_0066 DB 030H
	DB	048H
	DB	040H
	DB	0e0H
	DB	040H
	DB	040H
	DB	040H
	DB	00H
_acFont6x8ASCII_0067 DB 00H
	DB	00H
	DB	078H
	DB	088H
	DB	088H
	DB	078H
	DB	08H
	DB	070H
_acFont6x8ASCII_0068 DB 080H
	DB	080H
	DB	0b0H
	DB	0c8H
	DB	088H
	DB	088H
	DB	088H
	DB	00H
_acFont6x8ASCII_0069 DB 020H
	DB	00H
	DB	060H
	DB	020H
	DB	020H
	DB	020H
	DB	070H
	DB	00H
_acFont6x8ASCII_006A DB 010H
	DB	00H
	DB	030H
	DB	010H
	DB	010H
	DB	010H
	DB	090H
	DB	060H
_acFont6x8ASCII_006B DB 080H
	DB	080H
	DB	090H
	DB	0a0H
	DB	0c0H
	DB	0a0H
	DB	090H
	DB	00H
_acFont6x8ASCII_006C DB 060H
	DB	020H
	DB	020H
	DB	020H
	DB	020H
	DB	020H
	DB	070H
	DB	00H
_acFont6x8ASCII_006D DB 00H
	DB	00H
	DB	0d0H
	DB	0a8H
	DB	088H
	DB	088H
	DB	088H
	DB	00H
_acFont6x8ASCII_006E DB 00H
	DB	00H
	DB	0b0H
	DB	0c8H
	DB	088H
	DB	088H
	DB	088H
	DB	00H
_acFont6x8ASCII_006F DB 00H
	DB	00H
	DB	070H
	DB	088H
	DB	088H
	DB	088H
	DB	070H
	DB	00H
_acFont6x8ASCII_0070 DB 00H
	DB	00H
	DB	0f0H
	DB	088H
	DB	088H
	DB	0f0H
	DB	080H
	DB	080H
_acFont6x8ASCII_0071 DB 00H
	DB	00H
	DB	078H
	DB	088H
	DB	088H
	DB	078H
	DB	08H
	DB	08H
_acFont6x8ASCII_0072 DB 00H
	DB	00H
	DB	0b0H
	DB	0c8H
	DB	080H
	DB	080H
	DB	080H
	DB	00H
_acFont6x8ASCII_0073 DB 00H
	DB	00H
	DB	078H
	DB	080H
	DB	070H
	DB	08H
	DB	0f0H
	DB	00H
_acFont6x8ASCII_0074 DB 040H
	DB	040H
	DB	0e0H
	DB	040H
	DB	040H
	DB	048H
	DB	030H
	DB	00H
_acFont6x8ASCII_0075 DB 00H
	DB	00H
	DB	088H
	DB	088H
	DB	088H
	DB	098H
	DB	068H
	DB	00H
_acFont6x8ASCII_0076 DB 00H
	DB	00H
	DB	088H
	DB	088H
	DB	088H
	DB	050H
	DB	020H
	DB	00H
_acFont6x8ASCII_0077 DB 00H
	DB	00H
	DB	088H
	DB	088H
	DB	0a8H
	DB	0a8H
	DB	050H
	DB	00H
_acFont6x8ASCII_0078 DB 00H
	DB	00H
	DB	088H
	DB	050H
	DB	020H
	DB	050H
	DB	088H
	DB	00H
_acFont6x8ASCII_0079 DB 00H
	DB	00H
	DB	088H
	DB	088H
	DB	088H
	DB	078H
	DB	08H
	DB	070H
_acFont6x8ASCII_007A DB 00H
	DB	00H
	DB	0f8H
	DB	010H
	DB	020H
	DB	040H
	DB	0f8H
	DB	00H
_acFont6x8ASCII_007B DB 010H
	DB	020H
	DB	020H
	DB	040H
	DB	020H
	DB	020H
	DB	010H
	DB	00H
_acFont6x8ASCII_007C DB 020H
	DB	020H
	DB	020H
	DB	020H
	DB	020H
	DB	020H
	DB	020H
	DB	00H
_acFont6x8ASCII_007D DB 040H
	DB	020H
	DB	020H
	DB	010H
	DB	020H
	DB	020H
	DB	040H
	DB	00H
_acFont6x8ASCII_007E DB 068H
	DB	090H
	DB	00H
	DB	00H
	DB	00H
	DB	00H
	DB	00H
	DB	00H
_GUI_Font6x8ASCII_CharInfo DB 06H
	DB	06H
	DB	01H
	ORG $+1
	DD	FLAT:_acFont6x8ASCII_0020
	DB	06H
	DB	06H
	DB	01H
	ORG $+1
	DD	FLAT:_acFont6x8ASCII_0021
	DB	06H
	DB	06H
	DB	01H
	ORG $+1
	DD	FLAT:_acFont6x8ASCII_0022
	DB	06H
	DB	06H
	DB	01H
	ORG $+1
	DD	FLAT:_acFont6x8ASCII_0023
	DB	06H
	DB	06H
	DB	01H
	ORG $+1
	DD	FLAT:_acFont6x8ASCII_0024
	DB	06H
	DB	06H
	DB	01H
	ORG $+1
	DD	FLAT:_acFont6x8ASCII_0025
	DB	06H
	DB	06H
	DB	01H
	ORG $+1
	DD	FLAT:_acFont6x8ASCII_0026
	DB	06H
	DB	06H
	DB	01H
	ORG $+1
	DD	FLAT:_acFont6x8ASCII_0027
	DB	06H
	DB	06H
	DB	01H
	ORG $+1
	DD	FLAT:_acFont6x8ASCII_0028
	DB	06H
	DB	06H
	DB	01H
	ORG $+1
	DD	FLAT:_acFont6x8ASCII_0029
	DB	06H
	DB	06H
	DB	01H
	ORG $+1
	DD	FLAT:_acFont6x8ASCII_002A
	DB	06H
	DB	06H
	DB	01H
	ORG $+1
	DD	FLAT:_acFont6x8ASCII_002B
	DB	06H
	DB	06H
	DB	01H
	ORG $+1
	DD	FLAT:_acFont6x8ASCII_002C
	DB	06H
	DB	06H
	DB	01H
	ORG $+1
	DD	FLAT:_acFont6x8ASCII_002D
	DB	06H
	DB	06H
	DB	01H
	ORG $+1
	DD	FLAT:_acFont6x8ASCII_002E
	DB	06H
	DB	06H
	DB	01H
	ORG $+1
	DD	FLAT:_acFont6x8ASCII_002F
	DB	06H
	DB	06H
	DB	01H
	ORG $+1
	DD	FLAT:_acFont6x8ASCII_0030
	DB	06H
	DB	06H
	DB	01H
	ORG $+1
	DD	FLAT:_acFont6x8ASCII_0031
	DB	06H
	DB	06H
	DB	01H
	ORG $+1
	DD	FLAT:_acFont6x8ASCII_0032
	DB	06H
	DB	06H
	DB	01H
	ORG $+1
	DD	FLAT:_acFont6x8ASCII_0033
	DB	06H
	DB	06H
	DB	01H
	ORG $+1
	DD	FLAT:_acFont6x8ASCII_0034
	DB	06H
	DB	06H
	DB	01H
	ORG $+1
	DD	FLAT:_acFont6x8ASCII_0035
	DB	06H
	DB	06H
	DB	01H
	ORG $+1
	DD	FLAT:_acFont6x8ASCII_0036
	DB	06H
	DB	06H
	DB	01H
	ORG $+1
	DD	FLAT:_acFont6x8ASCII_0037
	DB	06H
	DB	06H
	DB	01H
	ORG $+1
	DD	FLAT:_acFont6x8ASCII_0038
	DB	06H
	DB	06H
	DB	01H
	ORG $+1
	DD	FLAT:_acFont6x8ASCII_0039
	DB	06H
	DB	06H
	DB	01H
	ORG $+1
	DD	FLAT:_acFont6x8ASCII_003A
	DB	06H
	DB	06H
	DB	01H
	ORG $+1
	DD	FLAT:_acFont6x8ASCII_003B
	DB	06H
	DB	06H
	DB	01H
	ORG $+1
	DD	FLAT:_acFont6x8ASCII_003C
	DB	06H
	DB	06H
	DB	01H
	ORG $+1
	DD	FLAT:_acFont6x8ASCII_003D
	DB	06H
	DB	06H
	DB	01H
	ORG $+1
	DD	FLAT:_acFont6x8ASCII_003E
	DB	06H
	DB	06H
	DB	01H
	ORG $+1
	DD	FLAT:_acFont6x8ASCII_003F
	DB	06H
	DB	06H
	DB	01H
	ORG $+1
	DD	FLAT:_acFont6x8ASCII_0040
	DB	06H
	DB	06H
	DB	01H
	ORG $+1
	DD	FLAT:_acFont6x8ASCII_0041
	DB	06H
	DB	06H
	DB	01H
	ORG $+1
	DD	FLAT:_acFont6x8ASCII_0042
	DB	06H
	DB	06H
	DB	01H
	ORG $+1
	DD	FLAT:_acFont6x8ASCII_0043
	DB	06H
	DB	06H
	DB	01H
	ORG $+1
	DD	FLAT:_acFont6x8ASCII_0044
	DB	06H
	DB	06H
	DB	01H
	ORG $+1
	DD	FLAT:_acFont6x8ASCII_0045
	DB	06H
	DB	06H
	DB	01H
	ORG $+1
	DD	FLAT:_acFont6x8ASCII_0046
	DB	06H
	DB	06H
	DB	01H
	ORG $+1
	DD	FLAT:_acFont6x8ASCII_0047
	DB	06H
	DB	06H
	DB	01H
	ORG $+1
	DD	FLAT:_acFont6x8ASCII_0048
	DB	06H
	DB	06H
	DB	01H
	ORG $+1
	DD	FLAT:_acFont6x8ASCII_0049
	DB	06H
	DB	06H
	DB	01H
	ORG $+1
	DD	FLAT:_acFont6x8ASCII_004A
	DB	06H
	DB	06H
	DB	01H
	ORG $+1
	DD	FLAT:_acFont6x8ASCII_004B
	DB	06H
	DB	06H
	DB	01H
	ORG $+1
	DD	FLAT:_acFont6x8ASCII_004C
	DB	06H
	DB	06H
	DB	01H
	ORG $+1
	DD	FLAT:_acFont6x8ASCII_004D
	DB	06H
	DB	06H
	DB	01H
	ORG $+1
	DD	FLAT:_acFont6x8ASCII_004E
	DB	06H
	DB	06H
	DB	01H
	ORG $+1
	DD	FLAT:_acFont6x8ASCII_004F
	DB	06H
	DB	06H
	DB	01H
	ORG $+1
	DD	FLAT:_acFont6x8ASCII_0050
	DB	06H
	DB	06H
	DB	01H
	ORG $+1
	DD	FLAT:_acFont6x8ASCII_0051
	DB	06H
	DB	06H
	DB	01H
	ORG $+1
	DD	FLAT:_acFont6x8ASCII_0052
	DB	06H
	DB	06H
	DB	01H
	ORG $+1
	DD	FLAT:_acFont6x8ASCII_0053
	DB	06H
	DB	06H
	DB	01H
	ORG $+1
	DD	FLAT:_acFont6x8ASCII_0054
	DB	06H
	DB	06H
	DB	01H
	ORG $+1
	DD	FLAT:_acFont6x8ASCII_0055
	DB	06H
	DB	06H
	DB	01H
	ORG $+1
	DD	FLAT:_acFont6x8ASCII_0056
	DB	06H
	DB	06H
	DB	01H
	ORG $+1
	DD	FLAT:_acFont6x8ASCII_0057
	DB	06H
	DB	06H
	DB	01H
	ORG $+1
	DD	FLAT:_acFont6x8ASCII_0058
	DB	06H
	DB	06H
	DB	01H
	ORG $+1
	DD	FLAT:_acFont6x8ASCII_0059
	DB	06H
	DB	06H
	DB	01H
	ORG $+1
	DD	FLAT:_acFont6x8ASCII_005A
	DB	06H
	DB	06H
	DB	01H
	ORG $+1
	DD	FLAT:_acFont6x8ASCII_005B
	DB	06H
	DB	06H
	DB	01H
	ORG $+1
	DD	FLAT:_acFont6x8ASCII_005C
	DB	06H
	DB	06H
	DB	01H
	ORG $+1
	DD	FLAT:_acFont6x8ASCII_005D
	DB	06H
	DB	06H
	DB	01H
	ORG $+1
	DD	FLAT:_acFont6x8ASCII_005E
	DB	06H
	DB	06H
	DB	01H
	ORG $+1
	DD	FLAT:_acFont6x8ASCII_005F
	DB	06H
	DB	06H
	DB	01H
	ORG $+1
	DD	FLAT:_acFont6x8ASCII_0060
	DB	06H
	DB	06H
	DB	01H
	ORG $+1
	DD	FLAT:_acFont6x8ASCII_0061
	DB	06H
	DB	06H
	DB	01H
	ORG $+1
	DD	FLAT:_acFont6x8ASCII_0062
	DB	06H
	DB	06H
	DB	01H
	ORG $+1
	DD	FLAT:_acFont6x8ASCII_0063
	DB	06H
	DB	06H
	DB	01H
	ORG $+1
	DD	FLAT:_acFont6x8ASCII_0064
	DB	06H
	DB	06H
	DB	01H
	ORG $+1
	DD	FLAT:_acFont6x8ASCII_0065
	DB	06H
	DB	06H
	DB	01H
	ORG $+1
	DD	FLAT:_acFont6x8ASCII_0066
	DB	06H
	DB	06H
	DB	01H
	ORG $+1
	DD	FLAT:_acFont6x8ASCII_0067
	DB	06H
	DB	06H
	DB	01H
	ORG $+1
	DD	FLAT:_acFont6x8ASCII_0068
	DB	06H
	DB	06H
	DB	01H
	ORG $+1
	DD	FLAT:_acFont6x8ASCII_0069
	DB	06H
	DB	06H
	DB	01H
	ORG $+1
	DD	FLAT:_acFont6x8ASCII_006A
	DB	06H
	DB	06H
	DB	01H
	ORG $+1
	DD	FLAT:_acFont6x8ASCII_006B
	DB	06H
	DB	06H
	DB	01H
	ORG $+1
	DD	FLAT:_acFont6x8ASCII_006C
	DB	06H
	DB	06H
	DB	01H
	ORG $+1
	DD	FLAT:_acFont6x8ASCII_006D
	DB	06H
	DB	06H
	DB	01H
	ORG $+1
	DD	FLAT:_acFont6x8ASCII_006E
	DB	06H
	DB	06H
	DB	01H
	ORG $+1
	DD	FLAT:_acFont6x8ASCII_006F
	DB	06H
	DB	06H
	DB	01H
	ORG $+1
	DD	FLAT:_acFont6x8ASCII_0070
	DB	06H
	DB	06H
	DB	01H
	ORG $+1
	DD	FLAT:_acFont6x8ASCII_0071
	DB	06H
	DB	06H
	DB	01H
	ORG $+1
	DD	FLAT:_acFont6x8ASCII_0072
	DB	06H
	DB	06H
	DB	01H
	ORG $+1
	DD	FLAT:_acFont6x8ASCII_0073
	DB	06H
	DB	06H
	DB	01H
	ORG $+1
	DD	FLAT:_acFont6x8ASCII_0074
	DB	06H
	DB	06H
	DB	01H
	ORG $+1
	DD	FLAT:_acFont6x8ASCII_0075
	DB	06H
	DB	06H
	DB	01H
	ORG $+1
	DD	FLAT:_acFont6x8ASCII_0076
	DB	06H
	DB	06H
	DB	01H
	ORG $+1
	DD	FLAT:_acFont6x8ASCII_0077
	DB	06H
	DB	06H
	DB	01H
	ORG $+1
	DD	FLAT:_acFont6x8ASCII_0078
	DB	06H
	DB	06H
	DB	01H
	ORG $+1
	DD	FLAT:_acFont6x8ASCII_0079
	DB	06H
	DB	06H
	DB	01H
	ORG $+1
	DD	FLAT:_acFont6x8ASCII_007A
	DB	06H
	DB	06H
	DB	01H
	ORG $+1
	DD	FLAT:_acFont6x8ASCII_007B
	DB	06H
	DB	06H
	DB	01H
	ORG $+1
	DD	FLAT:_acFont6x8ASCII_007C
	DB	06H
	DB	06H
	DB	01H
	ORG $+1
	DD	FLAT:_acFont6x8ASCII_007D
	DB	06H
	DB	06H
	DB	01H
	ORG $+1
	DD	FLAT:_acFont6x8ASCII_007E
_GUI_Font6x8ASCII_Prop0 DW 020H
	DW	07eH
	DD	FLAT:_GUI_Font6x8ASCII_CharInfo
	DD	00H
_GUI_Font6x8_ASCII DD FLAT:_GUIPROP_DispChar
	DD	FLAT:_GUIPROP_GetCharDistX
	DD	FLAT:_GUIPROP_GetFontInfo
	DD	FLAT:_GUIPROP_IsInFont
	DD	00H
	DD	00H
	DB	08H
	DB	08H
	DB	01H
	DB	01H
	DD	FLAT:_GUI_Font6x8ASCII_Prop0
	DB	07H
	DB	05H
	DB	07H
	ORG $+1
CONST	ENDS
END
