; Listing generated by Microsoft (R) Optimizing Compiler Version 16.00.40219.01 

	TITLE	C:\DUII\Simulation\GUI\Font\F8x16_ASCII.c
	.686P
	.XMM
	include listing.inc
	.model	flat

INCLUDELIB LIBCMT
INCLUDELIB OLDNAMES

PUBLIC	_acFont8x16ASCII_0020
PUBLIC	_acFont8x16ASCII_0021
PUBLIC	_acFont8x16ASCII_0022
PUBLIC	_acFont8x16ASCII_0023
PUBLIC	_acFont8x16ASCII_0024
PUBLIC	_acFont8x16ASCII_0025
PUBLIC	_acFont8x16ASCII_0026
PUBLIC	_acFont8x16ASCII_0027
PUBLIC	_acFont8x16ASCII_0028
PUBLIC	_acFont8x16ASCII_0029
PUBLIC	_acFont8x16ASCII_002A
PUBLIC	_acFont8x16ASCII_002B
PUBLIC	_acFont8x16ASCII_002C
PUBLIC	_acFont8x16ASCII_002D
PUBLIC	_acFont8x16ASCII_002E
PUBLIC	_acFont8x16ASCII_002F
PUBLIC	_acFont8x16ASCII_0030
PUBLIC	_acFont8x16ASCII_0031
PUBLIC	_acFont8x16ASCII_0032
PUBLIC	_acFont8x16ASCII_0033
PUBLIC	_acFont8x16ASCII_0034
PUBLIC	_acFont8x16ASCII_0035
PUBLIC	_acFont8x16ASCII_0036
PUBLIC	_acFont8x16ASCII_0037
PUBLIC	_acFont8x16ASCII_0038
PUBLIC	_acFont8x16ASCII_0039
PUBLIC	_acFont8x16ASCII_003A
PUBLIC	_acFont8x16ASCII_003B
PUBLIC	_acFont8x16ASCII_003C
PUBLIC	_acFont8x16ASCII_003D
PUBLIC	_acFont8x16ASCII_003E
PUBLIC	_acFont8x16ASCII_003F
PUBLIC	_acFont8x16ASCII_0040
PUBLIC	_acFont8x16ASCII_0041
PUBLIC	_acFont8x16ASCII_0042
PUBLIC	_acFont8x16ASCII_0043
PUBLIC	_acFont8x16ASCII_0044
PUBLIC	_acFont8x16ASCII_0045
PUBLIC	_acFont8x16ASCII_0046
PUBLIC	_acFont8x16ASCII_0047
PUBLIC	_acFont8x16ASCII_0048
PUBLIC	_acFont8x16ASCII_0049
PUBLIC	_acFont8x16ASCII_004A
PUBLIC	_acFont8x16ASCII_004B
PUBLIC	_acFont8x16ASCII_004C
PUBLIC	_acFont8x16ASCII_004D
PUBLIC	_acFont8x16ASCII_004E
PUBLIC	_acFont8x16ASCII_004F
PUBLIC	_acFont8x16ASCII_0050
PUBLIC	_acFont8x16ASCII_0051
PUBLIC	_acFont8x16ASCII_0052
PUBLIC	_acFont8x16ASCII_0053
PUBLIC	_acFont8x16ASCII_0054
PUBLIC	_acFont8x16ASCII_0055
PUBLIC	_acFont8x16ASCII_0056
PUBLIC	_acFont8x16ASCII_0057
PUBLIC	_acFont8x16ASCII_0058
PUBLIC	_acFont8x16ASCII_0059
PUBLIC	_acFont8x16ASCII_005A
PUBLIC	_acFont8x16ASCII_005B
PUBLIC	_acFont8x16ASCII_005C
PUBLIC	_acFont8x16ASCII_005D
PUBLIC	_acFont8x16ASCII_005E
PUBLIC	_acFont8x16ASCII_005F
PUBLIC	_acFont8x16ASCII_0060
PUBLIC	_acFont8x16ASCII_0061
PUBLIC	_acFont8x16ASCII_0062
PUBLIC	_acFont8x16ASCII_0063
PUBLIC	_acFont8x16ASCII_0064
PUBLIC	_acFont8x16ASCII_0065
PUBLIC	_acFont8x16ASCII_0066
PUBLIC	_acFont8x16ASCII_0067
PUBLIC	_acFont8x16ASCII_0068
PUBLIC	_acFont8x16ASCII_0069
PUBLIC	_acFont8x16ASCII_006A
PUBLIC	_acFont8x16ASCII_006B
PUBLIC	_acFont8x16ASCII_006C
PUBLIC	_acFont8x16ASCII_006D
PUBLIC	_acFont8x16ASCII_006E
PUBLIC	_acFont8x16ASCII_006F
PUBLIC	_acFont8x16ASCII_0070
PUBLIC	_acFont8x16ASCII_0071
PUBLIC	_acFont8x16ASCII_0072
PUBLIC	_acFont8x16ASCII_0073
PUBLIC	_acFont8x16ASCII_0074
PUBLIC	_acFont8x16ASCII_0075
PUBLIC	_acFont8x16ASCII_0076
PUBLIC	_acFont8x16ASCII_0077
PUBLIC	_acFont8x16ASCII_0078
PUBLIC	_acFont8x16ASCII_0079
PUBLIC	_acFont8x16ASCII_007A
PUBLIC	_acFont8x16ASCII_007B
PUBLIC	_acFont8x16ASCII_007C
PUBLIC	_acFont8x16ASCII_007D
PUBLIC	_acFont8x16ASCII_007E
PUBLIC	_GUI_Font8x16ASCII_CharInfo
PUBLIC	_GUI_Font8x16ASCII_Prop0
PUBLIC	_GUI_Font8x16_ASCII
EXTRN	_GUIPROP_IsInFont:PROC
EXTRN	_GUIPROP_GetFontInfo:PROC
EXTRN	_GUIPROP_GetCharDistX:PROC
EXTRN	_GUIPROP_DispChar:PROC
CONST	SEGMENT
_acFont8x16ASCII_0020 DB 00H
	DB	00H
	DB	00H
	DB	00H
	DB	00H
	DB	00H
	DB	00H
	DB	00H
	DB	00H
	DB	00H
	DB	00H
	DB	00H
	DB	00H
	DB	00H
	DB	00H
	DB	00H
_acFont8x16ASCII_0021 DB 00H
	DB	00H
	DB	018H
	DB	03cH
	DB	03cH
	DB	03cH
	DB	018H
	DB	018H
	DB	018H
	DB	00H
	DB	018H
	DB	018H
	DB	00H
	DB	00H
	DB	00H
	DB	00H
_acFont8x16ASCII_0022 DB 00H
	DB	066H
	DB	066H
	DB	066H
	DB	024H
	DB	00H
	DB	00H
	DB	00H
	DB	00H
	DB	00H
	DB	00H
	DB	00H
	DB	00H
	DB	00H
	DB	00H
	DB	00H
_acFont8x16ASCII_0023 DB 00H
	DB	00H
	DB	00H
	DB	06cH
	DB	06cH
	DB	0feH
	DB	06cH
	DB	06cH
	DB	06cH
	DB	0feH
	DB	06cH
	DB	06cH
	DB	00H
	DB	00H
	DB	00H
	DB	00H
_acFont8x16ASCII_0024 DB 018H
	DB	018H
	DB	07cH
	DB	0c6H
	DB	0c2H
	DB	0c0H
	DB	07cH
	DB	06H
	DB	06H
	DB	086H
	DB	0c6H
	DB	07cH
	DB	018H
	DB	018H
	DB	00H
	DB	00H
_acFont8x16ASCII_0025 DB 00H
	DB	00H
	DB	00H
	DB	00H
	DB	0c2H
	DB	0c6H
	DB	0cH
	DB	018H
	DB	030H
	DB	060H
	DB	0c6H
	DB	086H
	DB	00H
	DB	00H
	DB	00H
	DB	00H
_acFont8x16ASCII_0026 DB 00H
	DB	00H
	DB	038H
	DB	06cH
	DB	06cH
	DB	038H
	DB	076H
	DB	0dcH
	DB	0ccH
	DB	0ccH
	DB	0ccH
	DB	076H
	DB	00H
	DB	00H
	DB	00H
	DB	00H
_acFont8x16ASCII_0027 DB 00H
	DB	030H
	DB	030H
	DB	030H
	DB	060H
	DB	00H
	DB	00H
	DB	00H
	DB	00H
	DB	00H
	DB	00H
	DB	00H
	DB	00H
	DB	00H
	DB	00H
	DB	00H
_acFont8x16ASCII_0028 DB 00H
	DB	00H
	DB	0cH
	DB	018H
	DB	030H
	DB	030H
	DB	030H
	DB	030H
	DB	030H
	DB	030H
	DB	018H
	DB	0cH
	DB	00H
	DB	00H
	DB	00H
	DB	00H
_acFont8x16ASCII_0029 DB 00H
	DB	00H
	DB	030H
	DB	018H
	DB	0cH
	DB	0cH
	DB	0cH
	DB	0cH
	DB	0cH
	DB	0cH
	DB	018H
	DB	030H
	DB	00H
	DB	00H
	DB	00H
	DB	00H
_acFont8x16ASCII_002A DB 00H
	DB	00H
	DB	00H
	DB	00H
	DB	00H
	DB	066H
	DB	03cH
	DB	0ffH
	DB	03cH
	DB	066H
	DB	00H
	DB	00H
	DB	00H
	DB	00H
	DB	00H
	DB	00H
_acFont8x16ASCII_002B DB 00H
	DB	00H
	DB	00H
	DB	00H
	DB	00H
	DB	018H
	DB	018H
	DB	07eH
	DB	018H
	DB	018H
	DB	00H
	DB	00H
	DB	00H
	DB	00H
	DB	00H
	DB	00H
_acFont8x16ASCII_002C DB 00H
	DB	00H
	DB	00H
	DB	00H
	DB	00H
	DB	00H
	DB	00H
	DB	00H
	DB	00H
	DB	018H
	DB	018H
	DB	018H
	DB	030H
	DB	00H
	DB	00H
	DB	00H
_acFont8x16ASCII_002D DB 00H
	DB	00H
	DB	00H
	DB	00H
	DB	00H
	DB	00H
	DB	00H
	DB	0feH
	DB	00H
	DB	00H
	DB	00H
	DB	00H
	DB	00H
	DB	00H
	DB	00H
	DB	00H
_acFont8x16ASCII_002E DB 00H
	DB	00H
	DB	00H
	DB	00H
	DB	00H
	DB	00H
	DB	00H
	DB	00H
	DB	00H
	DB	00H
	DB	018H
	DB	018H
	DB	00H
	DB	00H
	DB	00H
	DB	00H
_acFont8x16ASCII_002F DB 00H
	DB	00H
	DB	00H
	DB	00H
	DB	02H
	DB	06H
	DB	0cH
	DB	018H
	DB	030H
	DB	060H
	DB	0c0H
	DB	080H
	DB	00H
	DB	00H
	DB	00H
	DB	00H
_acFont8x16ASCII_0030 DB 00H
	DB	00H
	DB	038H
	DB	06cH
	DB	0c6H
	DB	0c6H
	DB	0c6H
	DB	0c6H
	DB	0c6H
	DB	0c6H
	DB	06cH
	DB	038H
	DB	00H
	DB	00H
	DB	00H
	DB	00H
_acFont8x16ASCII_0031 DB 00H
	DB	00H
	DB	018H
	DB	038H
	DB	078H
	DB	018H
	DB	018H
	DB	018H
	DB	018H
	DB	018H
	DB	018H
	DB	07eH
	DB	00H
	DB	00H
	DB	00H
	DB	00H
_acFont8x16ASCII_0032 DB 00H
	DB	00H
	DB	07cH
	DB	0c6H
	DB	06H
	DB	0cH
	DB	018H
	DB	030H
	DB	060H
	DB	0c0H
	DB	0c6H
	DB	0feH
	DB	00H
	DB	00H
	DB	00H
	DB	00H
_acFont8x16ASCII_0033 DB 00H
	DB	00H
	DB	07cH
	DB	0c6H
	DB	06H
	DB	06H
	DB	03cH
	DB	06H
	DB	06H
	DB	06H
	DB	0c6H
	DB	07cH
	DB	00H
	DB	00H
	DB	00H
	DB	00H
_acFont8x16ASCII_0034 DB 00H
	DB	00H
	DB	0cH
	DB	01cH
	DB	03cH
	DB	06cH
	DB	0ccH
	DB	0feH
	DB	0cH
	DB	0cH
	DB	0cH
	DB	01eH
	DB	00H
	DB	00H
	DB	00H
	DB	00H
_acFont8x16ASCII_0035 DB 00H
	DB	00H
	DB	0feH
	DB	0c0H
	DB	0c0H
	DB	0c0H
	DB	0fcH
	DB	06H
	DB	06H
	DB	06H
	DB	0c6H
	DB	07cH
	DB	00H
	DB	00H
	DB	00H
	DB	00H
_acFont8x16ASCII_0036 DB 00H
	DB	00H
	DB	038H
	DB	060H
	DB	0c0H
	DB	0c0H
	DB	0fcH
	DB	0c6H
	DB	0c6H
	DB	0c6H
	DB	0c6H
	DB	07cH
	DB	00H
	DB	00H
	DB	00H
	DB	00H
_acFont8x16ASCII_0037 DB 00H
	DB	00H
	DB	0feH
	DB	0c6H
	DB	06H
	DB	06H
	DB	0cH
	DB	018H
	DB	030H
	DB	030H
	DB	030H
	DB	030H
	DB	00H
	DB	00H
	DB	00H
	DB	00H
_acFont8x16ASCII_0038 DB 00H
	DB	00H
	DB	07cH
	DB	0c6H
	DB	0c6H
	DB	0c6H
	DB	07cH
	DB	0c6H
	DB	0c6H
	DB	0c6H
	DB	0c6H
	DB	07cH
	DB	00H
	DB	00H
	DB	00H
	DB	00H
_acFont8x16ASCII_0039 DB 00H
	DB	00H
	DB	07cH
	DB	0c6H
	DB	0c6H
	DB	0c6H
	DB	07eH
	DB	06H
	DB	06H
	DB	06H
	DB	0cH
	DB	078H
	DB	00H
	DB	00H
	DB	00H
	DB	00H
_acFont8x16ASCII_003A DB 00H
	DB	00H
	DB	00H
	DB	00H
	DB	018H
	DB	018H
	DB	00H
	DB	00H
	DB	00H
	DB	018H
	DB	018H
	DB	00H
	DB	00H
	DB	00H
	DB	00H
	DB	00H
_acFont8x16ASCII_003B DB 00H
	DB	00H
	DB	00H
	DB	00H
	DB	018H
	DB	018H
	DB	00H
	DB	00H
	DB	00H
	DB	018H
	DB	018H
	DB	030H
	DB	00H
	DB	00H
	DB	00H
	DB	00H
_acFont8x16ASCII_003C DB 00H
	DB	00H
	DB	00H
	DB	06H
	DB	0cH
	DB	018H
	DB	030H
	DB	060H
	DB	030H
	DB	018H
	DB	0cH
	DB	06H
	DB	00H
	DB	00H
	DB	00H
	DB	00H
_acFont8x16ASCII_003D DB 00H
	DB	00H
	DB	00H
	DB	00H
	DB	00H
	DB	07eH
	DB	00H
	DB	00H
	DB	07eH
	DB	00H
	DB	00H
	DB	00H
	DB	00H
	DB	00H
	DB	00H
	DB	00H
_acFont8x16ASCII_003E DB 00H
	DB	00H
	DB	00H
	DB	060H
	DB	030H
	DB	018H
	DB	0cH
	DB	06H
	DB	0cH
	DB	018H
	DB	030H
	DB	060H
	DB	00H
	DB	00H
	DB	00H
	DB	00H
_acFont8x16ASCII_003F DB 00H
	DB	00H
	DB	07cH
	DB	0c6H
	DB	0c6H
	DB	0cH
	DB	018H
	DB	018H
	DB	018H
	DB	00H
	DB	018H
	DB	018H
	DB	00H
	DB	00H
	DB	00H
	DB	00H
_acFont8x16ASCII_0040 DB 00H
	DB	00H
	DB	00H
	DB	07cH
	DB	0c6H
	DB	0c6H
	DB	0deH
	DB	0deH
	DB	0deH
	DB	0dcH
	DB	0c0H
	DB	07cH
	DB	00H
	DB	00H
	DB	00H
	DB	00H
_acFont8x16ASCII_0041 DB 00H
	DB	00H
	DB	010H
	DB	038H
	DB	06cH
	DB	0c6H
	DB	0c6H
	DB	0feH
	DB	0c6H
	DB	0c6H
	DB	0c6H
	DB	0c6H
	DB	00H
	DB	00H
	DB	00H
	DB	00H
_acFont8x16ASCII_0042 DB 00H
	DB	00H
	DB	0fcH
	DB	066H
	DB	066H
	DB	066H
	DB	07cH
	DB	066H
	DB	066H
	DB	066H
	DB	066H
	DB	0fcH
	DB	00H
	DB	00H
	DB	00H
	DB	00H
_acFont8x16ASCII_0043 DB 00H
	DB	00H
	DB	03cH
	DB	066H
	DB	0c2H
	DB	0c0H
	DB	0c0H
	DB	0c0H
	DB	0c0H
	DB	0c2H
	DB	066H
	DB	03cH
	DB	00H
	DB	00H
	DB	00H
	DB	00H
_acFont8x16ASCII_0044 DB 00H
	DB	00H
	DB	0f8H
	DB	06cH
	DB	066H
	DB	066H
	DB	066H
	DB	066H
	DB	066H
	DB	066H
	DB	06cH
	DB	0f8H
	DB	00H
	DB	00H
	DB	00H
	DB	00H
_acFont8x16ASCII_0045 DB 00H
	DB	00H
	DB	0feH
	DB	066H
	DB	062H
	DB	068H
	DB	078H
	DB	068H
	DB	060H
	DB	062H
	DB	066H
	DB	0feH
	DB	00H
	DB	00H
	DB	00H
	DB	00H
_acFont8x16ASCII_0046 DB 00H
	DB	00H
	DB	0feH
	DB	066H
	DB	062H
	DB	068H
	DB	078H
	DB	068H
	DB	060H
	DB	060H
	DB	060H
	DB	0f0H
	DB	00H
	DB	00H
	DB	00H
	DB	00H
_acFont8x16ASCII_0047 DB 00H
	DB	00H
	DB	03cH
	DB	066H
	DB	0c2H
	DB	0c0H
	DB	0c0H
	DB	0deH
	DB	0c6H
	DB	0c6H
	DB	066H
	DB	03aH
	DB	00H
	DB	00H
	DB	00H
	DB	00H
_acFont8x16ASCII_0048 DB 00H
	DB	00H
	DB	0c6H
	DB	0c6H
	DB	0c6H
	DB	0c6H
	DB	0feH
	DB	0c6H
	DB	0c6H
	DB	0c6H
	DB	0c6H
	DB	0c6H
	DB	00H
	DB	00H
	DB	00H
	DB	00H
_acFont8x16ASCII_0049 DB 00H
	DB	00H
	DB	03cH
	DB	018H
	DB	018H
	DB	018H
	DB	018H
	DB	018H
	DB	018H
	DB	018H
	DB	018H
	DB	03cH
	DB	00H
	DB	00H
	DB	00H
	DB	00H
_acFont8x16ASCII_004A DB 00H
	DB	00H
	DB	01eH
	DB	0cH
	DB	0cH
	DB	0cH
	DB	0cH
	DB	0cH
	DB	0ccH
	DB	0ccH
	DB	0ccH
	DB	078H
	DB	00H
	DB	00H
	DB	00H
	DB	00H
_acFont8x16ASCII_004B DB 00H
	DB	00H
	DB	0e6H
	DB	066H
	DB	066H
	DB	06cH
	DB	078H
	DB	078H
	DB	06cH
	DB	066H
	DB	066H
	DB	0e6H
	DB	00H
	DB	00H
	DB	00H
	DB	00H
_acFont8x16ASCII_004C DB 00H
	DB	00H
	DB	0f0H
	DB	060H
	DB	060H
	DB	060H
	DB	060H
	DB	060H
	DB	060H
	DB	062H
	DB	066H
	DB	0feH
	DB	00H
	DB	00H
	DB	00H
	DB	00H
_acFont8x16ASCII_004D DB 00H
	DB	00H
	DB	0c6H
	DB	0eeH
	DB	0feH
	DB	0feH
	DB	0d6H
	DB	0c6H
	DB	0c6H
	DB	0c6H
	DB	0c6H
	DB	0c6H
	DB	00H
	DB	00H
	DB	00H
	DB	00H
_acFont8x16ASCII_004E DB 00H
	DB	00H
	DB	0c6H
	DB	0e6H
	DB	0f6H
	DB	0feH
	DB	0deH
	DB	0ceH
	DB	0c6H
	DB	0c6H
	DB	0c6H
	DB	0c6H
	DB	00H
	DB	00H
	DB	00H
	DB	00H
_acFont8x16ASCII_004F DB 00H
	DB	00H
	DB	07cH
	DB	0c6H
	DB	0c6H
	DB	0c6H
	DB	0c6H
	DB	0c6H
	DB	0c6H
	DB	0c6H
	DB	0c6H
	DB	07cH
	DB	00H
	DB	00H
	DB	00H
	DB	00H
_acFont8x16ASCII_0050 DB 00H
	DB	00H
	DB	0fcH
	DB	066H
	DB	066H
	DB	066H
	DB	07cH
	DB	060H
	DB	060H
	DB	060H
	DB	060H
	DB	0f0H
	DB	00H
	DB	00H
	DB	00H
	DB	00H
_acFont8x16ASCII_0051 DB 00H
	DB	00H
	DB	07cH
	DB	0c6H
	DB	0c6H
	DB	0c6H
	DB	0c6H
	DB	0c6H
	DB	0c6H
	DB	0d6H
	DB	0deH
	DB	07cH
	DB	0cH
	DB	0eH
	DB	00H
	DB	00H
_acFont8x16ASCII_0052 DB 00H
	DB	00H
	DB	0fcH
	DB	066H
	DB	066H
	DB	066H
	DB	07cH
	DB	06cH
	DB	066H
	DB	066H
	DB	066H
	DB	0e6H
	DB	00H
	DB	00H
	DB	00H
	DB	00H
_acFont8x16ASCII_0053 DB 00H
	DB	00H
	DB	07cH
	DB	0c6H
	DB	0c6H
	DB	060H
	DB	038H
	DB	0cH
	DB	06H
	DB	0c6H
	DB	0c6H
	DB	07cH
	DB	00H
	DB	00H
	DB	00H
	DB	00H
_acFont8x16ASCII_0054 DB 00H
	DB	00H
	DB	07eH
	DB	07eH
	DB	05aH
	DB	018H
	DB	018H
	DB	018H
	DB	018H
	DB	018H
	DB	018H
	DB	03cH
	DB	00H
	DB	00H
	DB	00H
	DB	00H
_acFont8x16ASCII_0055 DB 00H
	DB	00H
	DB	0c6H
	DB	0c6H
	DB	0c6H
	DB	0c6H
	DB	0c6H
	DB	0c6H
	DB	0c6H
	DB	0c6H
	DB	0c6H
	DB	07cH
	DB	00H
	DB	00H
	DB	00H
	DB	00H
_acFont8x16ASCII_0056 DB 00H
	DB	00H
	DB	0c6H
	DB	0c6H
	DB	0c6H
	DB	0c6H
	DB	0c6H
	DB	0c6H
	DB	0c6H
	DB	06cH
	DB	038H
	DB	010H
	DB	00H
	DB	00H
	DB	00H
	DB	00H
_acFont8x16ASCII_0057 DB 00H
	DB	00H
	DB	0c6H
	DB	0c6H
	DB	0c6H
	DB	0c6H
	DB	0d6H
	DB	0d6H
	DB	0d6H
	DB	0feH
	DB	0eeH
	DB	06cH
	DB	00H
	DB	00H
	DB	00H
	DB	00H
_acFont8x16ASCII_0058 DB 00H
	DB	00H
	DB	0c6H
	DB	0c6H
	DB	06cH
	DB	07cH
	DB	038H
	DB	038H
	DB	07cH
	DB	06cH
	DB	0c6H
	DB	0c6H
	DB	00H
	DB	00H
	DB	00H
	DB	00H
_acFont8x16ASCII_0059 DB 00H
	DB	00H
	DB	066H
	DB	066H
	DB	066H
	DB	066H
	DB	03cH
	DB	018H
	DB	018H
	DB	018H
	DB	018H
	DB	03cH
	DB	00H
	DB	00H
	DB	00H
	DB	00H
_acFont8x16ASCII_005A DB 00H
	DB	00H
	DB	0feH
	DB	0c6H
	DB	086H
	DB	0cH
	DB	018H
	DB	030H
	DB	060H
	DB	0c2H
	DB	0c6H
	DB	0feH
	DB	00H
	DB	00H
	DB	00H
	DB	00H
_acFont8x16ASCII_005B DB 00H
	DB	00H
	DB	03cH
	DB	030H
	DB	030H
	DB	030H
	DB	030H
	DB	030H
	DB	030H
	DB	030H
	DB	030H
	DB	03cH
	DB	00H
	DB	00H
	DB	00H
	DB	00H
_acFont8x16ASCII_005C DB 00H
	DB	00H
	DB	00H
	DB	080H
	DB	0c0H
	DB	0e0H
	DB	070H
	DB	038H
	DB	01cH
	DB	0eH
	DB	06H
	DB	02H
	DB	00H
	DB	00H
	DB	00H
	DB	00H
_acFont8x16ASCII_005D DB 00H
	DB	00H
	DB	03cH
	DB	0cH
	DB	0cH
	DB	0cH
	DB	0cH
	DB	0cH
	DB	0cH
	DB	0cH
	DB	0cH
	DB	03cH
	DB	00H
	DB	00H
	DB	00H
	DB	00H
_acFont8x16ASCII_005E DB 010H
	DB	038H
	DB	06cH
	DB	0c6H
	DB	00H
	DB	00H
	DB	00H
	DB	00H
	DB	00H
	DB	00H
	DB	00H
	DB	00H
	DB	00H
	DB	00H
	DB	00H
	DB	00H
_acFont8x16ASCII_005F DB 00H
	DB	00H
	DB	00H
	DB	00H
	DB	00H
	DB	00H
	DB	00H
	DB	00H
	DB	00H
	DB	00H
	DB	00H
	DB	00H
	DB	00H
	DB	0ffH
	DB	00H
	DB	00H
_acFont8x16ASCII_0060 DB 00H
	DB	030H
	DB	018H
	DB	0cH
	DB	00H
	DB	00H
	DB	00H
	DB	00H
	DB	00H
	DB	00H
	DB	00H
	DB	00H
	DB	00H
	DB	00H
	DB	00H
	DB	00H
_acFont8x16ASCII_0061 DB 00H
	DB	00H
	DB	00H
	DB	00H
	DB	00H
	DB	078H
	DB	0cH
	DB	07cH
	DB	0ccH
	DB	0ccH
	DB	0ccH
	DB	076H
	DB	00H
	DB	00H
	DB	00H
	DB	00H
_acFont8x16ASCII_0062 DB 00H
	DB	00H
	DB	0e0H
	DB	060H
	DB	060H
	DB	078H
	DB	06cH
	DB	066H
	DB	066H
	DB	066H
	DB	066H
	DB	07cH
	DB	00H
	DB	00H
	DB	00H
	DB	00H
_acFont8x16ASCII_0063 DB 00H
	DB	00H
	DB	00H
	DB	00H
	DB	00H
	DB	07cH
	DB	0c6H
	DB	0c0H
	DB	0c0H
	DB	0c0H
	DB	0c6H
	DB	07cH
	DB	00H
	DB	00H
	DB	00H
	DB	00H
_acFont8x16ASCII_0064 DB 00H
	DB	00H
	DB	01cH
	DB	0cH
	DB	0cH
	DB	03cH
	DB	06cH
	DB	0ccH
	DB	0ccH
	DB	0ccH
	DB	0ccH
	DB	076H
	DB	00H
	DB	00H
	DB	00H
	DB	00H
_acFont8x16ASCII_0065 DB 00H
	DB	00H
	DB	00H
	DB	00H
	DB	00H
	DB	07cH
	DB	0c6H
	DB	0feH
	DB	0c0H
	DB	0c0H
	DB	0c6H
	DB	07cH
	DB	00H
	DB	00H
	DB	00H
	DB	00H
_acFont8x16ASCII_0066 DB 00H
	DB	00H
	DB	01cH
	DB	036H
	DB	032H
	DB	030H
	DB	078H
	DB	030H
	DB	030H
	DB	030H
	DB	030H
	DB	078H
	DB	00H
	DB	00H
	DB	00H
	DB	00H
_acFont8x16ASCII_0067 DB 00H
	DB	00H
	DB	00H
	DB	00H
	DB	00H
	DB	076H
	DB	0ccH
	DB	0ccH
	DB	0ccH
	DB	0ccH
	DB	0ccH
	DB	07cH
	DB	0cH
	DB	0ccH
	DB	078H
	DB	00H
_acFont8x16ASCII_0068 DB 00H
	DB	00H
	DB	0e0H
	DB	060H
	DB	060H
	DB	06cH
	DB	076H
	DB	066H
	DB	066H
	DB	066H
	DB	066H
	DB	0e6H
	DB	00H
	DB	00H
	DB	00H
	DB	00H
_acFont8x16ASCII_0069 DB 00H
	DB	00H
	DB	018H
	DB	018H
	DB	00H
	DB	038H
	DB	018H
	DB	018H
	DB	018H
	DB	018H
	DB	018H
	DB	03cH
	DB	00H
	DB	00H
	DB	00H
	DB	00H
_acFont8x16ASCII_006A DB 00H
	DB	00H
	DB	06H
	DB	06H
	DB	00H
	DB	0eH
	DB	06H
	DB	06H
	DB	06H
	DB	06H
	DB	06H
	DB	06H
	DB	066H
	DB	066H
	DB	03cH
	DB	00H
_acFont8x16ASCII_006B DB 00H
	DB	00H
	DB	0e0H
	DB	060H
	DB	060H
	DB	066H
	DB	06cH
	DB	078H
	DB	078H
	DB	06cH
	DB	066H
	DB	0e6H
	DB	00H
	DB	00H
	DB	00H
	DB	00H
_acFont8x16ASCII_006C DB 00H
	DB	00H
	DB	038H
	DB	018H
	DB	018H
	DB	018H
	DB	018H
	DB	018H
	DB	018H
	DB	018H
	DB	018H
	DB	03cH
	DB	00H
	DB	00H
	DB	00H
	DB	00H
_acFont8x16ASCII_006D DB 00H
	DB	00H
	DB	00H
	DB	00H
	DB	00H
	DB	0ecH
	DB	0feH
	DB	0d6H
	DB	0d6H
	DB	0d6H
	DB	0d6H
	DB	0c6H
	DB	00H
	DB	00H
	DB	00H
	DB	00H
_acFont8x16ASCII_006E DB 00H
	DB	00H
	DB	00H
	DB	00H
	DB	00H
	DB	0dcH
	DB	066H
	DB	066H
	DB	066H
	DB	066H
	DB	066H
	DB	066H
	DB	00H
	DB	00H
	DB	00H
	DB	00H
_acFont8x16ASCII_006F DB 00H
	DB	00H
	DB	00H
	DB	00H
	DB	00H
	DB	07cH
	DB	0c6H
	DB	0c6H
	DB	0c6H
	DB	0c6H
	DB	0c6H
	DB	07cH
	DB	00H
	DB	00H
	DB	00H
	DB	00H
_acFont8x16ASCII_0070 DB 00H
	DB	00H
	DB	00H
	DB	00H
	DB	00H
	DB	0dcH
	DB	066H
	DB	066H
	DB	066H
	DB	066H
	DB	066H
	DB	07cH
	DB	060H
	DB	060H
	DB	0f0H
	DB	00H
_acFont8x16ASCII_0071 DB 00H
	DB	00H
	DB	00H
	DB	00H
	DB	00H
	DB	076H
	DB	0ccH
	DB	0ccH
	DB	0ccH
	DB	0ccH
	DB	0ccH
	DB	07cH
	DB	0cH
	DB	0cH
	DB	01eH
	DB	00H
_acFont8x16ASCII_0072 DB 00H
	DB	00H
	DB	00H
	DB	00H
	DB	00H
	DB	0dcH
	DB	076H
	DB	066H
	DB	060H
	DB	060H
	DB	060H
	DB	0f0H
	DB	00H
	DB	00H
	DB	00H
	DB	00H
_acFont8x16ASCII_0073 DB 00H
	DB	00H
	DB	00H
	DB	00H
	DB	00H
	DB	07cH
	DB	0c6H
	DB	060H
	DB	038H
	DB	0cH
	DB	0c6H
	DB	07cH
	DB	00H
	DB	00H
	DB	00H
	DB	00H
_acFont8x16ASCII_0074 DB 00H
	DB	00H
	DB	010H
	DB	030H
	DB	030H
	DB	0fcH
	DB	030H
	DB	030H
	DB	030H
	DB	030H
	DB	036H
	DB	01cH
	DB	00H
	DB	00H
	DB	00H
	DB	00H
_acFont8x16ASCII_0075 DB 00H
	DB	00H
	DB	00H
	DB	00H
	DB	00H
	DB	0ccH
	DB	0ccH
	DB	0ccH
	DB	0ccH
	DB	0ccH
	DB	0ccH
	DB	076H
	DB	00H
	DB	00H
	DB	00H
	DB	00H
_acFont8x16ASCII_0076 DB 00H
	DB	00H
	DB	00H
	DB	00H
	DB	00H
	DB	0c6H
	DB	0c6H
	DB	0c6H
	DB	0c6H
	DB	0c6H
	DB	06cH
	DB	038H
	DB	00H
	DB	00H
	DB	00H
	DB	00H
_acFont8x16ASCII_0077 DB 00H
	DB	00H
	DB	00H
	DB	00H
	DB	00H
	DB	0c6H
	DB	0c6H
	DB	0d6H
	DB	0d6H
	DB	0d6H
	DB	0feH
	DB	06cH
	DB	00H
	DB	00H
	DB	00H
	DB	00H
_acFont8x16ASCII_0078 DB 00H
	DB	00H
	DB	00H
	DB	00H
	DB	00H
	DB	0c6H
	DB	06cH
	DB	038H
	DB	038H
	DB	038H
	DB	06cH
	DB	0c6H
	DB	00H
	DB	00H
	DB	00H
	DB	00H
_acFont8x16ASCII_0079 DB 00H
	DB	00H
	DB	00H
	DB	00H
	DB	00H
	DB	0c6H
	DB	0c6H
	DB	0c6H
	DB	0c6H
	DB	0c6H
	DB	0c6H
	DB	07eH
	DB	06H
	DB	0cH
	DB	0f8H
	DB	00H
_acFont8x16ASCII_007A DB 00H
	DB	00H
	DB	00H
	DB	00H
	DB	00H
	DB	0feH
	DB	0ccH
	DB	018H
	DB	030H
	DB	060H
	DB	0c6H
	DB	0feH
	DB	00H
	DB	00H
	DB	00H
	DB	00H
_acFont8x16ASCII_007B DB 00H
	DB	00H
	DB	0eH
	DB	018H
	DB	018H
	DB	018H
	DB	070H
	DB	018H
	DB	018H
	DB	018H
	DB	018H
	DB	0eH
	DB	00H
	DB	00H
	DB	00H
	DB	00H
_acFont8x16ASCII_007C DB 00H
	DB	00H
	DB	018H
	DB	018H
	DB	018H
	DB	018H
	DB	018H
	DB	018H
	DB	018H
	DB	018H
	DB	018H
	DB	018H
	DB	00H
	DB	00H
	DB	00H
	DB	00H
_acFont8x16ASCII_007D DB 00H
	DB	00H
	DB	070H
	DB	018H
	DB	018H
	DB	018H
	DB	0eH
	DB	018H
	DB	018H
	DB	018H
	DB	018H
	DB	070H
	DB	00H
	DB	00H
	DB	00H
	DB	00H
_acFont8x16ASCII_007E DB 00H
	DB	076H
	DB	0dcH
	DB	00H
	DB	00H
	DB	00H
	DB	00H
	DB	00H
	DB	00H
	DB	00H
	DB	00H
	DB	00H
	DB	00H
	DB	00H
	DB	00H
	DB	00H
_GUI_Font8x16ASCII_CharInfo DB 08H
	DB	08H
	DB	01H
	ORG $+1
	DD	FLAT:_acFont8x16ASCII_0020
	DB	08H
	DB	08H
	DB	01H
	ORG $+1
	DD	FLAT:_acFont8x16ASCII_0021
	DB	08H
	DB	08H
	DB	01H
	ORG $+1
	DD	FLAT:_acFont8x16ASCII_0022
	DB	08H
	DB	08H
	DB	01H
	ORG $+1
	DD	FLAT:_acFont8x16ASCII_0023
	DB	08H
	DB	08H
	DB	01H
	ORG $+1
	DD	FLAT:_acFont8x16ASCII_0024
	DB	08H
	DB	08H
	DB	01H
	ORG $+1
	DD	FLAT:_acFont8x16ASCII_0025
	DB	08H
	DB	08H
	DB	01H
	ORG $+1
	DD	FLAT:_acFont8x16ASCII_0026
	DB	08H
	DB	08H
	DB	01H
	ORG $+1
	DD	FLAT:_acFont8x16ASCII_0027
	DB	08H
	DB	08H
	DB	01H
	ORG $+1
	DD	FLAT:_acFont8x16ASCII_0028
	DB	08H
	DB	08H
	DB	01H
	ORG $+1
	DD	FLAT:_acFont8x16ASCII_0029
	DB	08H
	DB	08H
	DB	01H
	ORG $+1
	DD	FLAT:_acFont8x16ASCII_002A
	DB	08H
	DB	08H
	DB	01H
	ORG $+1
	DD	FLAT:_acFont8x16ASCII_002B
	DB	08H
	DB	08H
	DB	01H
	ORG $+1
	DD	FLAT:_acFont8x16ASCII_002C
	DB	08H
	DB	08H
	DB	01H
	ORG $+1
	DD	FLAT:_acFont8x16ASCII_002D
	DB	08H
	DB	08H
	DB	01H
	ORG $+1
	DD	FLAT:_acFont8x16ASCII_002E
	DB	08H
	DB	08H
	DB	01H
	ORG $+1
	DD	FLAT:_acFont8x16ASCII_002F
	DB	08H
	DB	08H
	DB	01H
	ORG $+1
	DD	FLAT:_acFont8x16ASCII_0030
	DB	08H
	DB	08H
	DB	01H
	ORG $+1
	DD	FLAT:_acFont8x16ASCII_0031
	DB	08H
	DB	08H
	DB	01H
	ORG $+1
	DD	FLAT:_acFont8x16ASCII_0032
	DB	08H
	DB	08H
	DB	01H
	ORG $+1
	DD	FLAT:_acFont8x16ASCII_0033
	DB	08H
	DB	08H
	DB	01H
	ORG $+1
	DD	FLAT:_acFont8x16ASCII_0034
	DB	08H
	DB	08H
	DB	01H
	ORG $+1
	DD	FLAT:_acFont8x16ASCII_0035
	DB	08H
	DB	08H
	DB	01H
	ORG $+1
	DD	FLAT:_acFont8x16ASCII_0036
	DB	08H
	DB	08H
	DB	01H
	ORG $+1
	DD	FLAT:_acFont8x16ASCII_0037
	DB	08H
	DB	08H
	DB	01H
	ORG $+1
	DD	FLAT:_acFont8x16ASCII_0038
	DB	08H
	DB	08H
	DB	01H
	ORG $+1
	DD	FLAT:_acFont8x16ASCII_0039
	DB	08H
	DB	08H
	DB	01H
	ORG $+1
	DD	FLAT:_acFont8x16ASCII_003A
	DB	08H
	DB	08H
	DB	01H
	ORG $+1
	DD	FLAT:_acFont8x16ASCII_003B
	DB	08H
	DB	08H
	DB	01H
	ORG $+1
	DD	FLAT:_acFont8x16ASCII_003C
	DB	08H
	DB	08H
	DB	01H
	ORG $+1
	DD	FLAT:_acFont8x16ASCII_003D
	DB	08H
	DB	08H
	DB	01H
	ORG $+1
	DD	FLAT:_acFont8x16ASCII_003E
	DB	08H
	DB	08H
	DB	01H
	ORG $+1
	DD	FLAT:_acFont8x16ASCII_003F
	DB	08H
	DB	08H
	DB	01H
	ORG $+1
	DD	FLAT:_acFont8x16ASCII_0040
	DB	08H
	DB	08H
	DB	01H
	ORG $+1
	DD	FLAT:_acFont8x16ASCII_0041
	DB	08H
	DB	08H
	DB	01H
	ORG $+1
	DD	FLAT:_acFont8x16ASCII_0042
	DB	08H
	DB	08H
	DB	01H
	ORG $+1
	DD	FLAT:_acFont8x16ASCII_0043
	DB	08H
	DB	08H
	DB	01H
	ORG $+1
	DD	FLAT:_acFont8x16ASCII_0044
	DB	08H
	DB	08H
	DB	01H
	ORG $+1
	DD	FLAT:_acFont8x16ASCII_0045
	DB	08H
	DB	08H
	DB	01H
	ORG $+1
	DD	FLAT:_acFont8x16ASCII_0046
	DB	08H
	DB	08H
	DB	01H
	ORG $+1
	DD	FLAT:_acFont8x16ASCII_0047
	DB	08H
	DB	08H
	DB	01H
	ORG $+1
	DD	FLAT:_acFont8x16ASCII_0048
	DB	08H
	DB	08H
	DB	01H
	ORG $+1
	DD	FLAT:_acFont8x16ASCII_0049
	DB	08H
	DB	08H
	DB	01H
	ORG $+1
	DD	FLAT:_acFont8x16ASCII_004A
	DB	08H
	DB	08H
	DB	01H
	ORG $+1
	DD	FLAT:_acFont8x16ASCII_004B
	DB	08H
	DB	08H
	DB	01H
	ORG $+1
	DD	FLAT:_acFont8x16ASCII_004C
	DB	08H
	DB	08H
	DB	01H
	ORG $+1
	DD	FLAT:_acFont8x16ASCII_004D
	DB	08H
	DB	08H
	DB	01H
	ORG $+1
	DD	FLAT:_acFont8x16ASCII_004E
	DB	08H
	DB	08H
	DB	01H
	ORG $+1
	DD	FLAT:_acFont8x16ASCII_004F
	DB	08H
	DB	08H
	DB	01H
	ORG $+1
	DD	FLAT:_acFont8x16ASCII_0050
	DB	08H
	DB	08H
	DB	01H
	ORG $+1
	DD	FLAT:_acFont8x16ASCII_0051
	DB	08H
	DB	08H
	DB	01H
	ORG $+1
	DD	FLAT:_acFont8x16ASCII_0052
	DB	08H
	DB	08H
	DB	01H
	ORG $+1
	DD	FLAT:_acFont8x16ASCII_0053
	DB	08H
	DB	08H
	DB	01H
	ORG $+1
	DD	FLAT:_acFont8x16ASCII_0054
	DB	08H
	DB	08H
	DB	01H
	ORG $+1
	DD	FLAT:_acFont8x16ASCII_0055
	DB	08H
	DB	08H
	DB	01H
	ORG $+1
	DD	FLAT:_acFont8x16ASCII_0056
	DB	08H
	DB	08H
	DB	01H
	ORG $+1
	DD	FLAT:_acFont8x16ASCII_0057
	DB	08H
	DB	08H
	DB	01H
	ORG $+1
	DD	FLAT:_acFont8x16ASCII_0058
	DB	08H
	DB	08H
	DB	01H
	ORG $+1
	DD	FLAT:_acFont8x16ASCII_0059
	DB	08H
	DB	08H
	DB	01H
	ORG $+1
	DD	FLAT:_acFont8x16ASCII_005A
	DB	08H
	DB	08H
	DB	01H
	ORG $+1
	DD	FLAT:_acFont8x16ASCII_005B
	DB	08H
	DB	08H
	DB	01H
	ORG $+1
	DD	FLAT:_acFont8x16ASCII_005C
	DB	08H
	DB	08H
	DB	01H
	ORG $+1
	DD	FLAT:_acFont8x16ASCII_005D
	DB	08H
	DB	08H
	DB	01H
	ORG $+1
	DD	FLAT:_acFont8x16ASCII_005E
	DB	08H
	DB	08H
	DB	01H
	ORG $+1
	DD	FLAT:_acFont8x16ASCII_005F
	DB	08H
	DB	08H
	DB	01H
	ORG $+1
	DD	FLAT:_acFont8x16ASCII_0060
	DB	08H
	DB	08H
	DB	01H
	ORG $+1
	DD	FLAT:_acFont8x16ASCII_0061
	DB	08H
	DB	08H
	DB	01H
	ORG $+1
	DD	FLAT:_acFont8x16ASCII_0062
	DB	08H
	DB	08H
	DB	01H
	ORG $+1
	DD	FLAT:_acFont8x16ASCII_0063
	DB	08H
	DB	08H
	DB	01H
	ORG $+1
	DD	FLAT:_acFont8x16ASCII_0064
	DB	08H
	DB	08H
	DB	01H
	ORG $+1
	DD	FLAT:_acFont8x16ASCII_0065
	DB	08H
	DB	08H
	DB	01H
	ORG $+1
	DD	FLAT:_acFont8x16ASCII_0066
	DB	08H
	DB	08H
	DB	01H
	ORG $+1
	DD	FLAT:_acFont8x16ASCII_0067
	DB	08H
	DB	08H
	DB	01H
	ORG $+1
	DD	FLAT:_acFont8x16ASCII_0068
	DB	08H
	DB	08H
	DB	01H
	ORG $+1
	DD	FLAT:_acFont8x16ASCII_0069
	DB	08H
	DB	08H
	DB	01H
	ORG $+1
	DD	FLAT:_acFont8x16ASCII_006A
	DB	08H
	DB	08H
	DB	01H
	ORG $+1
	DD	FLAT:_acFont8x16ASCII_006B
	DB	08H
	DB	08H
	DB	01H
	ORG $+1
	DD	FLAT:_acFont8x16ASCII_006C
	DB	08H
	DB	08H
	DB	01H
	ORG $+1
	DD	FLAT:_acFont8x16ASCII_006D
	DB	08H
	DB	08H
	DB	01H
	ORG $+1
	DD	FLAT:_acFont8x16ASCII_006E
	DB	08H
	DB	08H
	DB	01H
	ORG $+1
	DD	FLAT:_acFont8x16ASCII_006F
	DB	08H
	DB	08H
	DB	01H
	ORG $+1
	DD	FLAT:_acFont8x16ASCII_0070
	DB	08H
	DB	08H
	DB	01H
	ORG $+1
	DD	FLAT:_acFont8x16ASCII_0071
	DB	08H
	DB	08H
	DB	01H
	ORG $+1
	DD	FLAT:_acFont8x16ASCII_0072
	DB	08H
	DB	08H
	DB	01H
	ORG $+1
	DD	FLAT:_acFont8x16ASCII_0073
	DB	08H
	DB	08H
	DB	01H
	ORG $+1
	DD	FLAT:_acFont8x16ASCII_0074
	DB	08H
	DB	08H
	DB	01H
	ORG $+1
	DD	FLAT:_acFont8x16ASCII_0075
	DB	08H
	DB	08H
	DB	01H
	ORG $+1
	DD	FLAT:_acFont8x16ASCII_0076
	DB	08H
	DB	08H
	DB	01H
	ORG $+1
	DD	FLAT:_acFont8x16ASCII_0077
	DB	08H
	DB	08H
	DB	01H
	ORG $+1
	DD	FLAT:_acFont8x16ASCII_0078
	DB	08H
	DB	08H
	DB	01H
	ORG $+1
	DD	FLAT:_acFont8x16ASCII_0079
	DB	08H
	DB	08H
	DB	01H
	ORG $+1
	DD	FLAT:_acFont8x16ASCII_007A
	DB	08H
	DB	08H
	DB	01H
	ORG $+1
	DD	FLAT:_acFont8x16ASCII_007B
	DB	08H
	DB	08H
	DB	01H
	ORG $+1
	DD	FLAT:_acFont8x16ASCII_007C
	DB	08H
	DB	08H
	DB	01H
	ORG $+1
	DD	FLAT:_acFont8x16ASCII_007D
	DB	08H
	DB	08H
	DB	01H
	ORG $+1
	DD	FLAT:_acFont8x16ASCII_007E
_GUI_Font8x16ASCII_Prop0 DW 020H
	DW	07eH
	DD	FLAT:_GUI_Font8x16ASCII_CharInfo
	DD	00H
_GUI_Font8x16_ASCII DD FLAT:_GUIPROP_DispChar
	DD	FLAT:_GUIPROP_GetCharDistX
	DD	FLAT:_GUIPROP_GetFontInfo
	DD	FLAT:_GUIPROP_IsInFont
	DD	00H
	DD	00H
	DB	010H
	DB	010H
	DB	01H
	DB	01H
	DD	FLAT:_GUI_Font8x16ASCII_Prop0
	DB	0eH
	DB	07H
	DB	0eH
	ORG $+1
CONST	ENDS
END
