; Listing generated by Microsoft (R) Optimizing Compiler Version 16.00.40219.01 

	TITLE	C:\DUII\Simulation\GUI\Font\F8x13_1.c
	.686P
	.XMM
	include listing.inc
	.model	flat

INCLUDELIB LIBCMT
INCLUDELIB OLDNAMES

PUBLIC	_acF8x13_1_160
PUBLIC	_acF8x13_1_161
PUBLIC	_acF8x13_1_162
PUBLIC	_acF8x13_1_163
PUBLIC	_acF8x13_1_164
PUBLIC	_acF8x13_1_165
PUBLIC	_acF8x13_1_166
PUBLIC	_acF8x13_1_167
PUBLIC	_acF8x13_1_168
PUBLIC	_acF8x13_1_169
PUBLIC	_acF8x13_1_170
PUBLIC	_acF8x13_1_171
PUBLIC	_acF8x13_1_172
PUBLIC	_acF8x13_1_173
PUBLIC	_acF8x13_1_174
PUBLIC	_acF8x13_1_175
PUBLIC	_acF8x13_1_176
PUBLIC	_acF8x13_1_177
PUBLIC	_acF8x13_1_178
PUBLIC	_acF8x13_1_179
PUBLIC	_acF8x13_1_180
PUBLIC	_acF8x13_1_181
PUBLIC	_acF8x13_1_182
PUBLIC	_acF8x13_1_183
PUBLIC	_acF8x13_1_184
PUBLIC	_acF8x13_1_185
PUBLIC	_acF8x13_1_186
PUBLIC	_acF8x13_1_187
PUBLIC	_acF8x13_1_188
PUBLIC	_acF8x13_1_189
PUBLIC	_acF8x13_1_190
PUBLIC	_acF8x13_1_191
PUBLIC	_acF8x13_1_192
PUBLIC	_acF8x13_1_193
PUBLIC	_acF8x13_1_194
PUBLIC	_acF8x13_1_195
PUBLIC	_acF8x13_1_196
PUBLIC	_acF8x13_1_197
PUBLIC	_acF8x13_1_198
PUBLIC	_acF8x13_1_199
PUBLIC	_acF8x13_1_200
PUBLIC	_acF8x13_1_201
PUBLIC	_acF8x13_1_202
PUBLIC	_acF8x13_1_203
PUBLIC	_acF8x13_1_204
PUBLIC	_acF8x13_1_205
PUBLIC	_acF8x13_1_206
PUBLIC	_acF8x13_1_207
PUBLIC	_acF8x13_1_208
PUBLIC	_acF8x13_1_209
PUBLIC	_acF8x13_1_210
PUBLIC	_acF8x13_1_211
PUBLIC	_acF8x13_1_212
PUBLIC	_acF8x13_1_213
PUBLIC	_acF8x13_1_214
PUBLIC	_acF8x13_1_215
PUBLIC	_acF8x13_1_216
PUBLIC	_acF8x13_1_217
PUBLIC	_acF8x13_1_218
PUBLIC	_acF8x13_1_219
PUBLIC	_acF8x13_1_220
PUBLIC	_acF8x13_1_221
PUBLIC	_acF8x13_1_222
PUBLIC	_acF8x13_1_223
PUBLIC	_acF8x13_1_224
PUBLIC	_acF8x13_1_225
PUBLIC	_acF8x13_1_226
PUBLIC	_acF8x13_1_227
PUBLIC	_acF8x13_1_228
PUBLIC	_acF8x13_1_229
PUBLIC	_acF8x13_1_230
PUBLIC	_acF8x13_1_231
PUBLIC	_acF8x13_1_232
PUBLIC	_acF8x13_1_233
PUBLIC	_acF8x13_1_234
PUBLIC	_acF8x13_1_235
PUBLIC	_acF8x13_1_236
PUBLIC	_acF8x13_1_237
PUBLIC	_acF8x13_1_238
PUBLIC	_acF8x13_1_239
PUBLIC	_acF8x13_1_240
PUBLIC	_acF8x13_1_241
PUBLIC	_acF8x13_1_242
PUBLIC	_acF8x13_1_243
PUBLIC	_acF8x13_1_244
PUBLIC	_acF8x13_1_245
PUBLIC	_acF8x13_1_246
PUBLIC	_acF8x13_1_247
PUBLIC	_acF8x13_1_248
PUBLIC	_acF8x13_1_249
PUBLIC	_acF8x13_1_250
PUBLIC	_acF8x13_1_251
PUBLIC	_acF8x13_1_252
PUBLIC	_acF8x13_1_253
PUBLIC	_acF8x13_1_254
PUBLIC	_acF8x13_1_255
PUBLIC	_GUI_CharInfoF8x13_1
PUBLIC	_GUI_FontPropF8x13_1_2
PUBLIC	_GUI_FontPropF8x13_1_1
PUBLIC	_GUI_Font8x13_1
EXTRN	_GUIPROP_IsInFont:PROC
EXTRN	_GUIPROP_GetFontInfo:PROC
EXTRN	_GUIPROP_GetCharDistX:PROC
EXTRN	_GUIPROP_DispChar:PROC
EXTRN	_GUI_CharInfoF8x13_ASCII:BYTE
CONST	SEGMENT
_acF8x13_1_160 DB 00H
	DB	00H
	DB	00H
	DB	00H
	DB	00H
	DB	00H
	DB	00H
	DB	00H
	DB	00H
	DB	00H
	DB	00H
	DB	00H
	DB	00H
	ORG $+3
_acF8x13_1_161 DB 00H
	DB	00H
	DB	08H
	DB	00H
	DB	08H
	DB	08H
	DB	08H
	DB	08H
	DB	08H
	DB	08H
	DB	08H
	DB	00H
	DB	00H
	ORG $+3
_acF8x13_1_162 DB 00H
	DB	00H
	DB	00H
	DB	00H
	DB	08H
	DB	01cH
	DB	022H
	DB	020H
	DB	022H
	DB	01cH
	DB	08H
	DB	00H
	DB	00H
	ORG $+3
_acF8x13_1_163 DB 00H
	DB	00H
	DB	00H
	DB	018H
	DB	024H
	DB	020H
	DB	010H
	DB	03cH
	DB	010H
	DB	010H
	DB	03eH
	DB	00H
	DB	00H
	ORG $+3
_acF8x13_1_164 DB 00H
	DB	00H
	DB	041H
	DB	03eH
	DB	022H
	DB	022H
	DB	022H
	DB	03eH
	DB	041H
	DB	00H
	DB	00H
	DB	00H
	DB	00H
	ORG $+3
_acF8x13_1_165 DB 00H
	DB	00H
	DB	00H
	DB	077H
	DB	022H
	DB	07fH
	DB	014H
	DB	07fH
	DB	08H
	DB	08H
	DB	01cH
	DB	00H
	DB	00H
	ORG $+3
_acF8x13_1_166 DB 00H
	DB	00H
	DB	08H
	DB	08H
	DB	08H
	DB	08H
	DB	08H
	DB	00H
	DB	08H
	DB	08H
	DB	08H
	DB	08H
	DB	08H
	ORG $+3
_acF8x13_1_167 DB 00H
	DB	00H
	DB	01eH
	DB	022H
	DB	050H
	DB	048H
	DB	024H
	DB	012H
	DB	0aH
	DB	044H
	DB	078H
	DB	00H
	DB	00H
	ORG $+3
_acF8x13_1_168 DB 00H
	DB	00H
	DB	022H
	DB	00H
	DB	00H
	DB	00H
	DB	00H
	DB	00H
	DB	00H
	DB	00H
	DB	00H
	DB	00H
	DB	00H
	ORG $+3
_acF8x13_1_169 DB 00H
	DB	00H
	DB	01cH
	DB	022H
	DB	04dH
	DB	051H
	DB	051H
	DB	04dH
	DB	022H
	DB	01cH
	DB	00H
	DB	00H
	DB	00H
	ORG $+3
_acF8x13_1_170 DB 00H
	DB	00H
	DB	018H
	DB	04H
	DB	01cH
	DB	024H
	DB	01cH
	DB	00H
	DB	03cH
	DB	00H
	DB	00H
	DB	00H
	DB	00H
	ORG $+3
_acF8x13_1_171 DB 00H
	DB	00H
	DB	00H
	DB	00H
	DB	00H
	DB	00H
	DB	011H
	DB	022H
	DB	044H
	DB	022H
	DB	011H
	DB	00H
	DB	00H
	ORG $+3
_acF8x13_1_172 DB 00H
	DB	00H
	DB	00H
	DB	00H
	DB	00H
	DB	03eH
	DB	02H
	DB	00H
	DB	00H
	DB	00H
	DB	00H
	DB	00H
	DB	00H
	ORG $+3
_acF8x13_1_173 DB 00H
	DB	00H
	DB	00H
	DB	00H
	DB	00H
	DB	00H
	DB	00H
	DB	07fH
	DB	00H
	DB	00H
	DB	00H
	DB	00H
	DB	00H
	ORG $+3
_acF8x13_1_174 DB 00H
	DB	00H
	DB	01cH
	DB	022H
	DB	059H
	DB	055H
	DB	059H
	DB	055H
	DB	022H
	DB	01cH
	DB	00H
	DB	00H
	DB	00H
	ORG $+3
_acF8x13_1_175 DB 00H
	DB	0ffH
	DB	00H
	DB	00H
	DB	00H
	DB	00H
	DB	00H
	DB	00H
	DB	00H
	DB	00H
	DB	00H
	DB	00H
	DB	00H
	ORG $+3
_acF8x13_1_176 DB 00H
	DB	00H
	DB	08H
	DB	014H
	DB	08H
	DB	00H
	DB	00H
	DB	00H
	DB	00H
	DB	00H
	DB	00H
	DB	00H
	DB	00H
	ORG $+3
_acF8x13_1_177 DB 00H
	DB	00H
	DB	08H
	DB	08H
	DB	08H
	DB	07fH
	DB	08H
	DB	08H
	DB	08H
	DB	00H
	DB	07fH
	DB	00H
	DB	00H
	ORG $+3
_acF8x13_1_178 DB 00H
	DB	00H
	DB	08H
	DB	014H
	DB	04H
	DB	08H
	DB	01cH
	DB	00H
	DB	00H
	DB	00H
	DB	00H
	DB	00H
	DB	00H
	ORG $+3
_acF8x13_1_179 DB 00H
	DB	00H
	DB	018H
	DB	04H
	DB	08H
	DB	04H
	DB	018H
	DB	00H
	DB	00H
	DB	00H
	DB	00H
	DB	00H
	DB	00H
	ORG $+3
_acF8x13_1_180 DB 00H
	DB	00H
	DB	04H
	DB	08H
	DB	00H
	DB	00H
	DB	00H
	DB	00H
	DB	00H
	DB	00H
	DB	00H
	DB	00H
	DB	00H
	ORG $+3
_acF8x13_1_181 DB 00H
	DB	00H
	DB	00H
	DB	00H
	DB	00H
	DB	022H
	DB	022H
	DB	022H
	DB	022H
	DB	022H
	DB	03cH
	DB	020H
	DB	040H
	ORG $+3
_acF8x13_1_182 DB 00H
	DB	00H
	DB	03fH
	DB	07aH
	DB	07aH
	DB	07aH
	DB	03aH
	DB	0aH
	DB	0aH
	DB	0aH
	DB	01bH
	DB	00H
	DB	00H
	ORG $+3
_acF8x13_1_183 DB 00H
	DB	00H
	DB	00H
	DB	00H
	DB	00H
	DB	00H
	DB	00H
	DB	08H
	DB	00H
	DB	00H
	DB	00H
	DB	00H
	DB	00H
	ORG $+3
_acF8x13_1_184 DB 00H
	DB	00H
	DB	00H
	DB	00H
	DB	00H
	DB	00H
	DB	00H
	DB	00H
	DB	00H
	DB	00H
	DB	08H
	DB	04H
	DB	018H
	ORG $+3
_acF8x13_1_185 DB 00H
	DB	00H
	DB	018H
	DB	08H
	DB	08H
	DB	08H
	DB	01cH
	DB	00H
	DB	00H
	DB	00H
	DB	00H
	DB	00H
	DB	00H
	ORG $+3
_acF8x13_1_186 DB 00H
	DB	00H
	DB	018H
	DB	024H
	DB	024H
	DB	024H
	DB	018H
	DB	00H
	DB	03cH
	DB	00H
	DB	00H
	DB	00H
	DB	00H
	ORG $+3
_acF8x13_1_187 DB 00H
	DB	00H
	DB	00H
	DB	00H
	DB	00H
	DB	00H
	DB	044H
	DB	022H
	DB	011H
	DB	022H
	DB	044H
	DB	00H
	DB	00H
	ORG $+3
_acF8x13_1_188 DB 00H
	DB	00H
	DB	060H
	DB	021H
	DB	022H
	DB	024H
	DB	079H
	DB	013H
	DB	025H
	DB	04fH
	DB	01H
	DB	00H
	DB	00H
	ORG $+3
_acF8x13_1_189 DB 00H
	DB	00H
	DB	060H
	DB	021H
	DB	022H
	DB	024H
	DB	07aH
	DB	015H
	DB	021H
	DB	042H
	DB	07H
	DB	00H
	DB	00H
	ORG $+3
_acF8x13_1_190 DB 00H
	DB	00H
	DB	060H
	DB	011H
	DB	022H
	DB	014H
	DB	069H
	DB	013H
	DB	025H
	DB	04fH
	DB	01H
	DB	00H
	DB	00H
	ORG $+3
_acF8x13_1_191 DB 00H
	DB	00H
	DB	08H
	DB	00H
	DB	08H
	DB	08H
	DB	010H
	DB	020H
	DB	020H
	DB	022H
	DB	01cH
	DB	00H
	DB	00H
	ORG $+3
_acF8x13_1_192 DB 010H
	DB	08H
	DB	018H
	DB	08H
	DB	08H
	DB	014H
	DB	014H
	DB	022H
	DB	03eH
	DB	022H
	DB	077H
	DB	00H
	DB	00H
	ORG $+3
_acF8x13_1_193 DB 04H
	DB	08H
	DB	018H
	DB	08H
	DB	08H
	DB	014H
	DB	014H
	DB	022H
	DB	03eH
	DB	022H
	DB	077H
	DB	00H
	DB	00H
	ORG $+3
_acF8x13_1_194 DB 08H
	DB	014H
	DB	018H
	DB	08H
	DB	08H
	DB	014H
	DB	014H
	DB	022H
	DB	03eH
	DB	022H
	DB	077H
	DB	00H
	DB	00H
	ORG $+3
_acF8x13_1_195 DB 039H
	DB	04eH
	DB	018H
	DB	08H
	DB	08H
	DB	014H
	DB	014H
	DB	022H
	DB	03eH
	DB	022H
	DB	077H
	DB	00H
	DB	00H
	ORG $+3
_acF8x13_1_196 DB 022H
	DB	00H
	DB	018H
	DB	08H
	DB	08H
	DB	014H
	DB	014H
	DB	022H
	DB	03eH
	DB	022H
	DB	077H
	DB	00H
	DB	00H
	ORG $+3
_acF8x13_1_197 DB 08H
	DB	014H
	DB	08H
	DB	08H
	DB	08H
	DB	014H
	DB	014H
	DB	022H
	DB	03eH
	DB	022H
	DB	077H
	DB	00H
	DB	00H
	ORG $+3
_acF8x13_1_198 DB 00H
	DB	00H
	DB	03fH
	DB	019H
	DB	018H
	DB	02aH
	DB	02eH
	DB	02aH
	DB	078H
	DB	049H
	DB	04fH
	DB	00H
	DB	00H
	ORG $+3
_acF8x13_1_199 DB 00H
	DB	00H
	DB	00H
	DB	01eH
	DB	021H
	DB	040H
	DB	040H
	DB	040H
	DB	040H
	DB	021H
	DB	01eH
	DB	04H
	DB	0cH
	ORG $+3
_acF8x13_1_200 DB 010H
	DB	08H
	DB	07fH
	DB	021H
	DB	020H
	DB	024H
	DB	03cH
	DB	024H
	DB	020H
	DB	021H
	DB	07fH
	DB	00H
	DB	00H
	ORG $+3
_acF8x13_1_201 DB 04H
	DB	08H
	DB	07fH
	DB	021H
	DB	020H
	DB	024H
	DB	03cH
	DB	024H
	DB	020H
	DB	021H
	DB	07fH
	DB	00H
	DB	00H
	ORG $+3
_acF8x13_1_202 DB 08H
	DB	014H
	DB	07fH
	DB	021H
	DB	020H
	DB	024H
	DB	03cH
	DB	024H
	DB	020H
	DB	021H
	DB	07fH
	DB	00H
	DB	00H
	ORG $+3
_acF8x13_1_203 DB 022H
	DB	00H
	DB	07fH
	DB	021H
	DB	020H
	DB	024H
	DB	03cH
	DB	024H
	DB	020H
	DB	021H
	DB	07fH
	DB	00H
	DB	00H
	ORG $+3
_acF8x13_1_204 DB 010H
	DB	08H
	DB	03eH
	DB	08H
	DB	08H
	DB	08H
	DB	08H
	DB	08H
	DB	08H
	DB	08H
	DB	03eH
	DB	00H
	DB	00H
	ORG $+3
_acF8x13_1_205 DB 04H
	DB	08H
	DB	03eH
	DB	08H
	DB	08H
	DB	08H
	DB	08H
	DB	08H
	DB	08H
	DB	08H
	DB	03eH
	DB	00H
	DB	00H
	ORG $+3
_acF8x13_1_206 DB 08H
	DB	014H
	DB	03eH
	DB	08H
	DB	08H
	DB	08H
	DB	08H
	DB	08H
	DB	08H
	DB	08H
	DB	03eH
	DB	00H
	DB	00H
	ORG $+3
_acF8x13_1_207 DB 022H
	DB	00H
	DB	03eH
	DB	08H
	DB	08H
	DB	08H
	DB	08H
	DB	08H
	DB	08H
	DB	08H
	DB	03eH
	DB	00H
	DB	00H
	ORG $+3
_acF8x13_1_208 DB 00H
	DB	00H
	DB	07cH
	DB	022H
	DB	021H
	DB	021H
	DB	079H
	DB	021H
	DB	021H
	DB	022H
	DB	07cH
	DB	00H
	DB	00H
	ORG $+3
_acF8x13_1_209 DB 039H
	DB	04eH
	DB	067H
	DB	022H
	DB	032H
	DB	032H
	DB	02aH
	DB	026H
	DB	026H
	DB	022H
	DB	072H
	DB	00H
	DB	00H
	ORG $+3
_acF8x13_1_210 DB 010H
	DB	08H
	DB	01cH
	DB	022H
	DB	041H
	DB	041H
	DB	041H
	DB	041H
	DB	041H
	DB	022H
	DB	01cH
	DB	00H
	DB	00H
	ORG $+3
_acF8x13_1_211 DB 04H
	DB	08H
	DB	01cH
	DB	022H
	DB	041H
	DB	041H
	DB	041H
	DB	041H
	DB	041H
	DB	022H
	DB	01cH
	DB	00H
	DB	00H
	ORG $+3
_acF8x13_1_212 DB 08H
	DB	014H
	DB	01cH
	DB	022H
	DB	041H
	DB	041H
	DB	041H
	DB	041H
	DB	041H
	DB	022H
	DB	01cH
	DB	00H
	DB	00H
	ORG $+3
_acF8x13_1_213 DB 039H
	DB	04eH
	DB	01cH
	DB	022H
	DB	041H
	DB	041H
	DB	041H
	DB	041H
	DB	041H
	DB	022H
	DB	01cH
	DB	00H
	DB	00H
	ORG $+3
_acF8x13_1_214 DB 022H
	DB	00H
	DB	01cH
	DB	022H
	DB	041H
	DB	041H
	DB	041H
	DB	041H
	DB	041H
	DB	022H
	DB	01cH
	DB	00H
	DB	00H
	ORG $+3
_acF8x13_1_215 DB 00H
	DB	00H
	DB	00H
	DB	00H
	DB	041H
	DB	022H
	DB	014H
	DB	08H
	DB	014H
	DB	022H
	DB	041H
	DB	00H
	DB	00H
	ORG $+3
_acF8x13_1_216 DB 00H
	DB	00H
	DB	01dH
	DB	022H
	DB	045H
	DB	045H
	DB	049H
	DB	051H
	DB	051H
	DB	022H
	DB	05cH
	DB	00H
	DB	00H
	ORG $+3
_acF8x13_1_217 DB 010H
	DB	08H
	DB	077H
	DB	022H
	DB	022H
	DB	022H
	DB	022H
	DB	022H
	DB	022H
	DB	022H
	DB	01cH
	DB	00H
	DB	00H
	ORG $+3
_acF8x13_1_218 DB 04H
	DB	08H
	DB	077H
	DB	022H
	DB	022H
	DB	022H
	DB	022H
	DB	022H
	DB	022H
	DB	022H
	DB	01cH
	DB	00H
	DB	00H
	ORG $+3
_acF8x13_1_219 DB 08H
	DB	014H
	DB	077H
	DB	022H
	DB	022H
	DB	022H
	DB	022H
	DB	022H
	DB	022H
	DB	022H
	DB	01cH
	DB	00H
	DB	00H
	ORG $+3
_acF8x13_1_220 DB 022H
	DB	00H
	DB	077H
	DB	022H
	DB	022H
	DB	022H
	DB	022H
	DB	022H
	DB	022H
	DB	022H
	DB	01cH
	DB	00H
	DB	00H
	ORG $+3
_acF8x13_1_221 DB 04H
	DB	08H
	DB	077H
	DB	022H
	DB	022H
	DB	014H
	DB	014H
	DB	08H
	DB	08H
	DB	08H
	DB	01cH
	DB	00H
	DB	00H
	ORG $+3
_acF8x13_1_222 DB 00H
	DB	00H
	DB	060H
	DB	020H
	DB	03eH
	DB	021H
	DB	021H
	DB	021H
	DB	03eH
	DB	020H
	DB	070H
	DB	00H
	DB	00H
	ORG $+3
_acF8x13_1_223 DB 00H
	DB	00H
	DB	01cH
	DB	022H
	DB	022H
	DB	022H
	DB	02eH
	DB	021H
	DB	021H
	DB	021H
	DB	06eH
	DB	00H
	DB	00H
	ORG $+3
_acF8x13_1_224 DB 00H
	DB	00H
	DB	010H
	DB	08H
	DB	00H
	DB	03cH
	DB	02H
	DB	03eH
	DB	042H
	DB	042H
	DB	03dH
	DB	00H
	DB	00H
	ORG $+3
_acF8x13_1_225 DB 00H
	DB	00H
	DB	04H
	DB	08H
	DB	00H
	DB	03cH
	DB	02H
	DB	03eH
	DB	042H
	DB	042H
	DB	03dH
	DB	00H
	DB	00H
	ORG $+3
_acF8x13_1_226 DB 00H
	DB	00H
	DB	08H
	DB	014H
	DB	00H
	DB	03cH
	DB	02H
	DB	03eH
	DB	042H
	DB	042H
	DB	03dH
	DB	00H
	DB	00H
	ORG $+3
_acF8x13_1_227 DB 00H
	DB	00H
	DB	039H
	DB	04eH
	DB	00H
	DB	03cH
	DB	02H
	DB	03eH
	DB	042H
	DB	042H
	DB	03dH
	DB	00H
	DB	00H
	ORG $+3
_acF8x13_1_228 DB 00H
	DB	00H
	DB	022H
	DB	00H
	DB	00H
	DB	03cH
	DB	02H
	DB	03eH
	DB	042H
	DB	042H
	DB	03dH
	DB	00H
	DB	00H
	ORG $+3
_acF8x13_1_229 DB 00H
	DB	08H
	DB	014H
	DB	08H
	DB	00H
	DB	03cH
	DB	02H
	DB	03eH
	DB	042H
	DB	042H
	DB	03dH
	DB	00H
	DB	00H
	ORG $+3
_acF8x13_1_230 DB 00H
	DB	00H
	DB	00H
	DB	00H
	DB	00H
	DB	036H
	DB	09H
	DB	03fH
	DB	048H
	DB	049H
	DB	036H
	DB	00H
	DB	00H
	ORG $+3
_acF8x13_1_231 DB 00H
	DB	00H
	DB	00H
	DB	00H
	DB	00H
	DB	03eH
	DB	041H
	DB	040H
	DB	040H
	DB	041H
	DB	03eH
	DB	04H
	DB	0cH
	ORG $+3
_acF8x13_1_232 DB 00H
	DB	00H
	DB	010H
	DB	08H
	DB	00H
	DB	03eH
	DB	041H
	DB	07fH
	DB	040H
	DB	041H
	DB	03eH
	DB	00H
	DB	00H
	ORG $+3
_acF8x13_1_233 DB 00H
	DB	00H
	DB	04H
	DB	08H
	DB	00H
	DB	03eH
	DB	041H
	DB	07fH
	DB	040H
	DB	041H
	DB	03eH
	DB	00H
	DB	00H
	ORG $+3
_acF8x13_1_234 DB 00H
	DB	00H
	DB	08H
	DB	014H
	DB	00H
	DB	03eH
	DB	041H
	DB	07fH
	DB	040H
	DB	041H
	DB	03eH
	DB	00H
	DB	00H
	ORG $+3
_acF8x13_1_235 DB 00H
	DB	00H
	DB	022H
	DB	00H
	DB	00H
	DB	03eH
	DB	041H
	DB	07fH
	DB	040H
	DB	041H
	DB	03eH
	DB	00H
	DB	00H
	ORG $+3
_acF8x13_1_236 DB 00H
	DB	00H
	DB	010H
	DB	08H
	DB	00H
	DB	038H
	DB	08H
	DB	08H
	DB	08H
	DB	08H
	DB	03eH
	DB	00H
	DB	00H
	ORG $+3
_acF8x13_1_237 DB 00H
	DB	00H
	DB	08H
	DB	010H
	DB	00H
	DB	038H
	DB	08H
	DB	08H
	DB	08H
	DB	08H
	DB	03eH
	DB	00H
	DB	00H
	ORG $+3
_acF8x13_1_238 DB 00H
	DB	00H
	DB	08H
	DB	014H
	DB	00H
	DB	038H
	DB	08H
	DB	08H
	DB	08H
	DB	08H
	DB	03eH
	DB	00H
	DB	00H
	ORG $+3
_acF8x13_1_239 DB 00H
	DB	00H
	DB	024H
	DB	00H
	DB	00H
	DB	038H
	DB	08H
	DB	08H
	DB	08H
	DB	08H
	DB	03eH
	DB	00H
	DB	00H
	ORG $+3
_acF8x13_1_240 DB 00H
	DB	00H
	DB	036H
	DB	08H
	DB	034H
	DB	02H
	DB	03eH
	DB	041H
	DB	041H
	DB	041H
	DB	03eH
	DB	00H
	DB	00H
	ORG $+3
_acF8x13_1_241 DB 00H
	DB	00H
	DB	039H
	DB	04eH
	DB	00H
	DB	06cH
	DB	032H
	DB	022H
	DB	022H
	DB	022H
	DB	077H
	DB	00H
	DB	00H
	ORG $+3
_acF8x13_1_242 DB 00H
	DB	00H
	DB	010H
	DB	08H
	DB	00H
	DB	03eH
	DB	041H
	DB	041H
	DB	041H
	DB	041H
	DB	03eH
	DB	00H
	DB	00H
	ORG $+3
_acF8x13_1_243 DB 00H
	DB	00H
	DB	04H
	DB	08H
	DB	00H
	DB	03eH
	DB	041H
	DB	041H
	DB	041H
	DB	041H
	DB	03eH
	DB	00H
	DB	00H
	ORG $+3
_acF8x13_1_244 DB 00H
	DB	00H
	DB	08H
	DB	014H
	DB	00H
	DB	03eH
	DB	041H
	DB	041H
	DB	041H
	DB	041H
	DB	03eH
	DB	00H
	DB	00H
	ORG $+3
_acF8x13_1_245 DB 00H
	DB	00H
	DB	039H
	DB	04eH
	DB	00H
	DB	03eH
	DB	041H
	DB	041H
	DB	041H
	DB	041H
	DB	03eH
	DB	00H
	DB	00H
	ORG $+3
_acF8x13_1_246 DB 00H
	DB	00H
	DB	022H
	DB	00H
	DB	00H
	DB	03eH
	DB	041H
	DB	041H
	DB	041H
	DB	041H
	DB	03eH
	DB	00H
	DB	00H
	ORG $+3
_acF8x13_1_247 DB 00H
	DB	00H
	DB	00H
	DB	00H
	DB	08H
	DB	00H
	DB	00H
	DB	07fH
	DB	00H
	DB	00H
	DB	08H
	DB	00H
	DB	00H
	ORG $+3
_acF8x13_1_248 DB 00H
	DB	00H
	DB	00H
	DB	00H
	DB	00H
	DB	03fH
	DB	043H
	DB	04dH
	DB	059H
	DB	061H
	DB	07eH
	DB	00H
	DB	00H
	ORG $+3
_acF8x13_1_249 DB 00H
	DB	00H
	DB	010H
	DB	08H
	DB	00H
	DB	066H
	DB	022H
	DB	022H
	DB	022H
	DB	026H
	DB	01bH
	DB	00H
	DB	00H
	ORG $+3
_acF8x13_1_250 DB 00H
	DB	00H
	DB	04H
	DB	08H
	DB	00H
	DB	066H
	DB	022H
	DB	022H
	DB	022H
	DB	026H
	DB	01bH
	DB	00H
	DB	00H
	ORG $+3
_acF8x13_1_251 DB 00H
	DB	00H
	DB	08H
	DB	014H
	DB	00H
	DB	066H
	DB	022H
	DB	022H
	DB	022H
	DB	026H
	DB	01bH
	DB	00H
	DB	00H
	ORG $+3
_acF8x13_1_252 DB 00H
	DB	00H
	DB	022H
	DB	00H
	DB	00H
	DB	066H
	DB	022H
	DB	022H
	DB	022H
	DB	026H
	DB	01bH
	DB	00H
	DB	00H
	ORG $+3
_acF8x13_1_253 DB 00H
	DB	00H
	DB	04H
	DB	08H
	DB	00H
	DB	077H
	DB	022H
	DB	022H
	DB	014H
	DB	014H
	DB	08H
	DB	08H
	DB	030H
	ORG $+3
_acF8x13_1_254 DB 00H
	DB	00H
	DB	060H
	DB	020H
	DB	020H
	DB	03eH
	DB	021H
	DB	021H
	DB	021H
	DB	021H
	DB	03eH
	DB	020H
	DB	070H
	ORG $+3
_acF8x13_1_255 DB 00H
	DB	00H
	DB	022H
	DB	00H
	DB	00H
	DB	077H
	DB	022H
	DB	022H
	DB	014H
	DB	014H
	DB	08H
	DB	08H
	DB	030H
	ORG $+3
_GUI_CharInfoF8x13_1 DB 08H
	DB	08H
	DB	01H
	ORG $+1
	DD	FLAT:_acF8x13_1_160
	DB	08H
	DB	08H
	DB	01H
	ORG $+1
	DD	FLAT:_acF8x13_1_161
	DB	08H
	DB	08H
	DB	01H
	ORG $+1
	DD	FLAT:_acF8x13_1_162
	DB	08H
	DB	08H
	DB	01H
	ORG $+1
	DD	FLAT:_acF8x13_1_163
	DB	08H
	DB	08H
	DB	01H
	ORG $+1
	DD	FLAT:_acF8x13_1_164
	DB	08H
	DB	08H
	DB	01H
	ORG $+1
	DD	FLAT:_acF8x13_1_165
	DB	08H
	DB	08H
	DB	01H
	ORG $+1
	DD	FLAT:_acF8x13_1_166
	DB	08H
	DB	08H
	DB	01H
	ORG $+1
	DD	FLAT:_acF8x13_1_167
	DB	08H
	DB	08H
	DB	01H
	ORG $+1
	DD	FLAT:_acF8x13_1_168
	DB	08H
	DB	08H
	DB	01H
	ORG $+1
	DD	FLAT:_acF8x13_1_169
	DB	08H
	DB	08H
	DB	01H
	ORG $+1
	DD	FLAT:_acF8x13_1_170
	DB	08H
	DB	08H
	DB	01H
	ORG $+1
	DD	FLAT:_acF8x13_1_171
	DB	08H
	DB	08H
	DB	01H
	ORG $+1
	DD	FLAT:_acF8x13_1_172
	DB	08H
	DB	08H
	DB	01H
	ORG $+1
	DD	FLAT:_acF8x13_1_173
	DB	08H
	DB	08H
	DB	01H
	ORG $+1
	DD	FLAT:_acF8x13_1_174
	DB	08H
	DB	08H
	DB	01H
	ORG $+1
	DD	FLAT:_acF8x13_1_175
	DB	08H
	DB	08H
	DB	01H
	ORG $+1
	DD	FLAT:_acF8x13_1_176
	DB	08H
	DB	08H
	DB	01H
	ORG $+1
	DD	FLAT:_acF8x13_1_177
	DB	08H
	DB	08H
	DB	01H
	ORG $+1
	DD	FLAT:_acF8x13_1_178
	DB	08H
	DB	08H
	DB	01H
	ORG $+1
	DD	FLAT:_acF8x13_1_179
	DB	08H
	DB	08H
	DB	01H
	ORG $+1
	DD	FLAT:_acF8x13_1_180
	DB	08H
	DB	08H
	DB	01H
	ORG $+1
	DD	FLAT:_acF8x13_1_181
	DB	08H
	DB	08H
	DB	01H
	ORG $+1
	DD	FLAT:_acF8x13_1_182
	DB	08H
	DB	08H
	DB	01H
	ORG $+1
	DD	FLAT:_acF8x13_1_183
	DB	08H
	DB	08H
	DB	01H
	ORG $+1
	DD	FLAT:_acF8x13_1_184
	DB	08H
	DB	08H
	DB	01H
	ORG $+1
	DD	FLAT:_acF8x13_1_185
	DB	08H
	DB	08H
	DB	01H
	ORG $+1
	DD	FLAT:_acF8x13_1_186
	DB	08H
	DB	08H
	DB	01H
	ORG $+1
	DD	FLAT:_acF8x13_1_187
	DB	08H
	DB	08H
	DB	01H
	ORG $+1
	DD	FLAT:_acF8x13_1_188
	DB	08H
	DB	08H
	DB	01H
	ORG $+1
	DD	FLAT:_acF8x13_1_189
	DB	08H
	DB	08H
	DB	01H
	ORG $+1
	DD	FLAT:_acF8x13_1_190
	DB	08H
	DB	08H
	DB	01H
	ORG $+1
	DD	FLAT:_acF8x13_1_191
	DB	08H
	DB	08H
	DB	01H
	ORG $+1
	DD	FLAT:_acF8x13_1_192
	DB	08H
	DB	08H
	DB	01H
	ORG $+1
	DD	FLAT:_acF8x13_1_193
	DB	08H
	DB	08H
	DB	01H
	ORG $+1
	DD	FLAT:_acF8x13_1_194
	DB	08H
	DB	08H
	DB	01H
	ORG $+1
	DD	FLAT:_acF8x13_1_195
	DB	08H
	DB	08H
	DB	01H
	ORG $+1
	DD	FLAT:_acF8x13_1_196
	DB	08H
	DB	08H
	DB	01H
	ORG $+1
	DD	FLAT:_acF8x13_1_197
	DB	08H
	DB	08H
	DB	01H
	ORG $+1
	DD	FLAT:_acF8x13_1_198
	DB	08H
	DB	08H
	DB	01H
	ORG $+1
	DD	FLAT:_acF8x13_1_199
	DB	08H
	DB	08H
	DB	01H
	ORG $+1
	DD	FLAT:_acF8x13_1_200
	DB	08H
	DB	08H
	DB	01H
	ORG $+1
	DD	FLAT:_acF8x13_1_201
	DB	08H
	DB	08H
	DB	01H
	ORG $+1
	DD	FLAT:_acF8x13_1_202
	DB	08H
	DB	08H
	DB	01H
	ORG $+1
	DD	FLAT:_acF8x13_1_203
	DB	08H
	DB	08H
	DB	01H
	ORG $+1
	DD	FLAT:_acF8x13_1_204
	DB	08H
	DB	08H
	DB	01H
	ORG $+1
	DD	FLAT:_acF8x13_1_205
	DB	08H
	DB	08H
	DB	01H
	ORG $+1
	DD	FLAT:_acF8x13_1_206
	DB	08H
	DB	08H
	DB	01H
	ORG $+1
	DD	FLAT:_acF8x13_1_207
	DB	08H
	DB	08H
	DB	01H
	ORG $+1
	DD	FLAT:_acF8x13_1_208
	DB	08H
	DB	08H
	DB	01H
	ORG $+1
	DD	FLAT:_acF8x13_1_209
	DB	08H
	DB	08H
	DB	01H
	ORG $+1
	DD	FLAT:_acF8x13_1_210
	DB	08H
	DB	08H
	DB	01H
	ORG $+1
	DD	FLAT:_acF8x13_1_211
	DB	08H
	DB	08H
	DB	01H
	ORG $+1
	DD	FLAT:_acF8x13_1_212
	DB	08H
	DB	08H
	DB	01H
	ORG $+1
	DD	FLAT:_acF8x13_1_213
	DB	08H
	DB	08H
	DB	01H
	ORG $+1
	DD	FLAT:_acF8x13_1_214
	DB	08H
	DB	08H
	DB	01H
	ORG $+1
	DD	FLAT:_acF8x13_1_215
	DB	08H
	DB	08H
	DB	01H
	ORG $+1
	DD	FLAT:_acF8x13_1_216
	DB	08H
	DB	08H
	DB	01H
	ORG $+1
	DD	FLAT:_acF8x13_1_217
	DB	08H
	DB	08H
	DB	01H
	ORG $+1
	DD	FLAT:_acF8x13_1_218
	DB	08H
	DB	08H
	DB	01H
	ORG $+1
	DD	FLAT:_acF8x13_1_219
	DB	08H
	DB	08H
	DB	01H
	ORG $+1
	DD	FLAT:_acF8x13_1_220
	DB	08H
	DB	08H
	DB	01H
	ORG $+1
	DD	FLAT:_acF8x13_1_221
	DB	08H
	DB	08H
	DB	01H
	ORG $+1
	DD	FLAT:_acF8x13_1_222
	DB	08H
	DB	08H
	DB	01H
	ORG $+1
	DD	FLAT:_acF8x13_1_223
	DB	08H
	DB	08H
	DB	01H
	ORG $+1
	DD	FLAT:_acF8x13_1_224
	DB	08H
	DB	08H
	DB	01H
	ORG $+1
	DD	FLAT:_acF8x13_1_225
	DB	08H
	DB	08H
	DB	01H
	ORG $+1
	DD	FLAT:_acF8x13_1_226
	DB	08H
	DB	08H
	DB	01H
	ORG $+1
	DD	FLAT:_acF8x13_1_227
	DB	08H
	DB	08H
	DB	01H
	ORG $+1
	DD	FLAT:_acF8x13_1_228
	DB	08H
	DB	08H
	DB	01H
	ORG $+1
	DD	FLAT:_acF8x13_1_229
	DB	08H
	DB	08H
	DB	01H
	ORG $+1
	DD	FLAT:_acF8x13_1_230
	DB	08H
	DB	08H
	DB	01H
	ORG $+1
	DD	FLAT:_acF8x13_1_231
	DB	08H
	DB	08H
	DB	01H
	ORG $+1
	DD	FLAT:_acF8x13_1_232
	DB	08H
	DB	08H
	DB	01H
	ORG $+1
	DD	FLAT:_acF8x13_1_233
	DB	08H
	DB	08H
	DB	01H
	ORG $+1
	DD	FLAT:_acF8x13_1_234
	DB	08H
	DB	08H
	DB	01H
	ORG $+1
	DD	FLAT:_acF8x13_1_235
	DB	08H
	DB	08H
	DB	01H
	ORG $+1
	DD	FLAT:_acF8x13_1_236
	DB	08H
	DB	08H
	DB	01H
	ORG $+1
	DD	FLAT:_acF8x13_1_237
	DB	08H
	DB	08H
	DB	01H
	ORG $+1
	DD	FLAT:_acF8x13_1_238
	DB	08H
	DB	08H
	DB	01H
	ORG $+1
	DD	FLAT:_acF8x13_1_239
	DB	08H
	DB	08H
	DB	01H
	ORG $+1
	DD	FLAT:_acF8x13_1_240
	DB	08H
	DB	08H
	DB	01H
	ORG $+1
	DD	FLAT:_acF8x13_1_241
	DB	08H
	DB	08H
	DB	01H
	ORG $+1
	DD	FLAT:_acF8x13_1_242
	DB	08H
	DB	08H
	DB	01H
	ORG $+1
	DD	FLAT:_acF8x13_1_243
	DB	08H
	DB	08H
	DB	01H
	ORG $+1
	DD	FLAT:_acF8x13_1_244
	DB	08H
	DB	08H
	DB	01H
	ORG $+1
	DD	FLAT:_acF8x13_1_245
	DB	08H
	DB	08H
	DB	01H
	ORG $+1
	DD	FLAT:_acF8x13_1_246
	DB	08H
	DB	08H
	DB	01H
	ORG $+1
	DD	FLAT:_acF8x13_1_247
	DB	08H
	DB	08H
	DB	01H
	ORG $+1
	DD	FLAT:_acF8x13_1_248
	DB	08H
	DB	08H
	DB	01H
	ORG $+1
	DD	FLAT:_acF8x13_1_249
	DB	08H
	DB	08H
	DB	01H
	ORG $+1
	DD	FLAT:_acF8x13_1_250
	DB	08H
	DB	08H
	DB	01H
	ORG $+1
	DD	FLAT:_acF8x13_1_251
	DB	08H
	DB	08H
	DB	01H
	ORG $+1
	DD	FLAT:_acF8x13_1_252
	DB	08H
	DB	08H
	DB	01H
	ORG $+1
	DD	FLAT:_acF8x13_1_253
	DB	08H
	DB	08H
	DB	01H
	ORG $+1
	DD	FLAT:_acF8x13_1_254
	DB	08H
	DB	08H
	DB	01H
	ORG $+1
	DD	FLAT:_acF8x13_1_255
_GUI_FontPropF8x13_1_2 DW 0a0H
	DW	0ffH
	DD	FLAT:_GUI_CharInfoF8x13_1
	DD	00H
_GUI_FontPropF8x13_1_1 DW 020H
	DW	07fH
	DD	FLAT:_GUI_CharInfoF8x13_ASCII
	DD	FLAT:_GUI_FontPropF8x13_1_2
_GUI_Font8x13_1 DD FLAT:_GUIPROP_DispChar
	DD	FLAT:_GUIPROP_GetCharDistX
	DD	FLAT:_GUIPROP_GetFontInfo
	DD	FLAT:_GUIPROP_IsInFont
	DD	00H
	DD	00H
	DB	0dH
	DB	0dH
	DB	01H
	DB	01H
	DD	FLAT:_GUI_FontPropF8x13_1_1
	DB	0bH
	DB	06H
	DB	09H
	ORG $+1
CONST	ENDS
END
