; Listing generated by Microsoft (R) Optimizing Compiler Version 16.00.40219.01 

	TITLE	C:\DUII\Simulation\GUI\Font\F8x8.c
	.686P
	.XMM
	include listing.inc
	.model	flat

INCLUDELIB LIBCMT
INCLUDELIB OLDNAMES

PUBLIC	_GUI_F8x8_acFont
PUBLIC	_GUI_F8x8_TransList
PUBLIC	_GUI_F8x8_TransInfo
PUBLIC	_GUI_F8x8_Mono
PUBLIC	_GUI_Font8x8
PUBLIC	_GUI_Font8x9
EXTRN	_GUIMONO_IsInFont:PROC
EXTRN	_GUIMONO_GetFontInfo:PROC
EXTRN	_GUIMONO_GetCharDistX:PROC
EXTRN	_GUIMONO_DispChar:PROC
CONST	SEGMENT
_GUI_F8x8_acFont DB 00H
	DB	00H
	DB	00H
	DB	00H
	DB	00H
	DB	00H
	DB	00H
	DB	00H
	DB	018H
	DB	03cH
	DB	03cH
	DB	018H
	DB	018H
	DB	00H
	DB	018H
	DB	00H
	DB	066H
	DB	066H
	DB	024H
	DB	00H
	DB	00H
	DB	00H
	DB	00H
	DB	00H
	DB	06cH
	DB	06cH
	DB	0feH
	DB	06cH
	DB	0feH
	DB	06cH
	DB	06cH
	DB	00H
	DB	018H
	DB	03eH
	DB	060H
	DB	03cH
	DB	06H
	DB	07cH
	DB	018H
	DB	00H
	DB	00H
	DB	0c6H
	DB	0ccH
	DB	018H
	DB	030H
	DB	066H
	DB	0c6H
	DB	00H
	DB	038H
	DB	06cH
	DB	038H
	DB	076H
	DB	0dcH
	DB	0ccH
	DB	076H
	DB	00H
	DB	018H
	DB	018H
	DB	030H
	DB	00H
	DB	00H
	DB	00H
	DB	00H
	DB	00H
	DB	0cH
	DB	018H
	DB	030H
	DB	030H
	DB	030H
	DB	018H
	DB	0cH
	DB	00H
	DB	030H
	DB	018H
	DB	0cH
	DB	0cH
	DB	0cH
	DB	018H
	DB	030H
	DB	00H
	DB	00H
	DB	066H
	DB	03cH
	DB	0ffH
	DB	03cH
	DB	066H
	DB	00H
	DB	00H
	DB	00H
	DB	018H
	DB	018H
	DB	07eH
	DB	018H
	DB	018H
	DB	00H
	DB	00H
	DB	00H
	DB	00H
	DB	00H
	DB	00H
	DB	00H
	DB	018H
	DB	018H
	DB	030H
	DB	00H
	DB	00H
	DB	00H
	DB	07eH
	DB	00H
	DB	00H
	DB	00H
	DB	00H
	DB	00H
	DB	00H
	DB	00H
	DB	00H
	DB	00H
	DB	018H
	DB	018H
	DB	00H
	DB	06H
	DB	0cH
	DB	018H
	DB	030H
	DB	060H
	DB	0c0H
	DB	080H
	DB	00H
	DB	038H
	DB	06cH
	DB	0c6H
	DB	0c6H
	DB	0c6H
	DB	06cH
	DB	038H
	DB	00H
	DB	018H
	DB	038H
	DB	018H
	DB	018H
	DB	018H
	DB	018H
	DB	07eH
	DB	00H
	DB	07cH
	DB	0c6H
	DB	06H
	DB	01cH
	DB	030H
	DB	066H
	DB	0feH
	DB	00H
	DB	07cH
	DB	0c6H
	DB	06H
	DB	03cH
	DB	06H
	DB	0c6H
	DB	07cH
	DB	00H
	DB	01cH
	DB	03cH
	DB	06cH
	DB	0ccH
	DB	0feH
	DB	0cH
	DB	01eH
	DB	00H
	DB	0feH
	DB	0c0H
	DB	0c0H
	DB	0fcH
	DB	06H
	DB	0c6H
	DB	07cH
	DB	00H
	DB	038H
	DB	060H
	DB	0c0H
	DB	0fcH
	DB	0c6H
	DB	0c6H
	DB	07cH
	DB	00H
	DB	0feH
	DB	0c6H
	DB	0cH
	DB	018H
	DB	030H
	DB	030H
	DB	030H
	DB	00H
	DB	07cH
	DB	0c6H
	DB	0c6H
	DB	07cH
	DB	0c6H
	DB	0c6H
	DB	07cH
	DB	00H
	DB	07cH
	DB	0c6H
	DB	0c6H
	DB	07eH
	DB	06H
	DB	0cH
	DB	078H
	DB	00H
	DB	00H
	DB	018H
	DB	018H
	DB	00H
	DB	00H
	DB	018H
	DB	018H
	DB	00H
	DB	00H
	DB	018H
	DB	018H
	DB	00H
	DB	00H
	DB	018H
	DB	018H
	DB	030H
	DB	06H
	DB	0cH
	DB	018H
	DB	030H
	DB	018H
	DB	0cH
	DB	06H
	DB	00H
	DB	00H
	DB	00H
	DB	07eH
	DB	00H
	DB	00H
	DB	07eH
	DB	00H
	DB	00H
	DB	060H
	DB	030H
	DB	018H
	DB	0cH
	DB	018H
	DB	030H
	DB	060H
	DB	00H
	DB	07cH
	DB	0c6H
	DB	0cH
	DB	018H
	DB	018H
	DB	00H
	DB	018H
	DB	00H
	DB	07cH
	DB	0c6H
	DB	0deH
	DB	0deH
	DB	0deH
	DB	0c0H
	DB	078H
	DB	00H
	DB	038H
	DB	06cH
	DB	0c6H
	DB	0feH
	DB	0c6H
	DB	0c6H
	DB	0c6H
	DB	00H
	DB	0fcH
	DB	066H
	DB	066H
	DB	07cH
	DB	066H
	DB	066H
	DB	0fcH
	DB	00H
	DB	03cH
	DB	066H
	DB	0c0H
	DB	0c0H
	DB	0c0H
	DB	066H
	DB	03cH
	DB	00H
	DB	0f8H
	DB	06cH
	DB	066H
	DB	066H
	DB	066H
	DB	06cH
	DB	0f8H
	DB	00H
	DB	0feH
	DB	062H
	DB	068H
	DB	078H
	DB	068H
	DB	062H
	DB	0feH
	DB	00H
	DB	0feH
	DB	062H
	DB	068H
	DB	078H
	DB	068H
	DB	060H
	DB	0f0H
	DB	00H
	DB	03cH
	DB	066H
	DB	0c0H
	DB	0c0H
	DB	0ceH
	DB	066H
	DB	03aH
	DB	00H
	DB	0c6H
	DB	0c6H
	DB	0c6H
	DB	0feH
	DB	0c6H
	DB	0c6H
	DB	0c6H
	DB	00H
	DB	03cH
	DB	018H
	DB	018H
	DB	018H
	DB	018H
	DB	018H
	DB	03cH
	DB	00H
	DB	01eH
	DB	0cH
	DB	0cH
	DB	0cH
	DB	0ccH
	DB	0ccH
	DB	078H
	DB	00H
	DB	0e6H
	DB	066H
	DB	06cH
	DB	078H
	DB	06cH
	DB	066H
	DB	0e6H
	DB	00H
	DB	0f0H
	DB	060H
	DB	060H
	DB	060H
	DB	062H
	DB	066H
	DB	0feH
	DB	00H
	DB	0c6H
	DB	0eeH
	DB	0feH
	DB	0feH
	DB	0d6H
	DB	0c6H
	DB	0c6H
	DB	00H
	DB	0c6H
	DB	0e6H
	DB	0f6H
	DB	0deH
	DB	0ceH
	DB	0c6H
	DB	0c6H
	DB	00H
	DB	07cH
	DB	0c6H
	DB	0c6H
	DB	0c6H
	DB	0c6H
	DB	0c6H
	DB	07cH
	DB	00H
	DB	0fcH
	DB	066H
	DB	066H
	DB	07cH
	DB	060H
	DB	060H
	DB	0f0H
	DB	00H
	DB	07cH
	DB	0c6H
	DB	0c6H
	DB	0c6H
	DB	0c6H
	DB	0ceH
	DB	07cH
	DB	0eH
	DB	0fcH
	DB	066H
	DB	066H
	DB	07cH
	DB	06cH
	DB	066H
	DB	0e6H
	DB	00H
	DB	03cH
	DB	066H
	DB	030H
	DB	018H
	DB	0cH
	DB	066H
	DB	03cH
	DB	00H
	DB	07eH
	DB	07eH
	DB	05aH
	DB	018H
	DB	018H
	DB	018H
	DB	03cH
	DB	00H
	DB	0c6H
	DB	0c6H
	DB	0c6H
	DB	0c6H
	DB	0c6H
	DB	0c6H
	DB	07cH
	DB	00H
	DB	0c6H
	DB	0c6H
	DB	0c6H
	DB	0c6H
	DB	0c6H
	DB	06cH
	DB	038H
	DB	00H
	DB	0c6H
	DB	0c6H
	DB	0c6H
	DB	0d6H
	DB	0d6H
	DB	0feH
	DB	06cH
	DB	00H
	DB	0c6H
	DB	0c6H
	DB	06cH
	DB	038H
	DB	06cH
	DB	0c6H
	DB	0c6H
	DB	00H
	DB	066H
	DB	066H
	DB	066H
	DB	03cH
	DB	018H
	DB	018H
	DB	03cH
	DB	00H
	DB	0feH
	DB	0c6H
	DB	08cH
	DB	018H
	DB	032H
	DB	066H
	DB	0feH
	DB	00H
	DB	03cH
	DB	030H
	DB	030H
	DB	030H
	DB	030H
	DB	030H
	DB	03cH
	DB	00H
	DB	0c0H
	DB	060H
	DB	030H
	DB	018H
	DB	0cH
	DB	06H
	DB	02H
	DB	00H
	DB	03cH
	DB	0cH
	DB	0cH
	DB	0cH
	DB	0cH
	DB	0cH
	DB	03cH
	DB	00H
	DB	010H
	DB	038H
	DB	06cH
	DB	0c6H
	DB	00H
	DB	00H
	DB	00H
	DB	00H
	DB	00H
	DB	00H
	DB	00H
	DB	00H
	DB	00H
	DB	00H
	DB	00H
	DB	0ffH
	DB	030H
	DB	018H
	DB	0cH
	DB	00H
	DB	00H
	DB	00H
	DB	00H
	DB	00H
	DB	00H
	DB	00H
	DB	078H
	DB	0cH
	DB	07cH
	DB	0ccH
	DB	076H
	DB	00H
	DB	0e0H
	DB	060H
	DB	07cH
	DB	066H
	DB	066H
	DB	066H
	DB	0dcH
	DB	00H
	DB	00H
	DB	00H
	DB	07cH
	DB	0c6H
	DB	0c0H
	DB	0c6H
	DB	07cH
	DB	00H
	DB	01cH
	DB	0cH
	DB	07cH
	DB	0ccH
	DB	0ccH
	DB	0ccH
	DB	076H
	DB	00H
	DB	00H
	DB	00H
	DB	07cH
	DB	0c6H
	DB	0feH
	DB	0c0H
	DB	07cH
	DB	00H
	DB	03cH
	DB	066H
	DB	060H
	DB	0f8H
	DB	060H
	DB	060H
	DB	0f0H
	DB	00H
	DB	00H
	DB	00H
	DB	076H
	DB	0ccH
	DB	0ccH
	DB	07cH
	DB	0cH
	DB	0f8H
	DB	0e0H
	DB	060H
	DB	06cH
	DB	076H
	DB	066H
	DB	066H
	DB	0e6H
	DB	00H
	DB	018H
	DB	00H
	DB	038H
	DB	018H
	DB	018H
	DB	018H
	DB	03cH
	DB	00H
	DB	06H
	DB	00H
	DB	06H
	DB	06H
	DB	06H
	DB	066H
	DB	066H
	DB	03cH
	DB	0e0H
	DB	060H
	DB	066H
	DB	06cH
	DB	078H
	DB	06cH
	DB	0e6H
	DB	00H
	DB	038H
	DB	018H
	DB	018H
	DB	018H
	DB	018H
	DB	018H
	DB	03cH
	DB	00H
	DB	00H
	DB	00H
	DB	0ecH
	DB	0feH
	DB	0d6H
	DB	0d6H
	DB	0d6H
	DB	00H
	DB	00H
	DB	00H
	DB	0dcH
	DB	066H
	DB	066H
	DB	066H
	DB	066H
	DB	00H
	DB	00H
	DB	00H
	DB	07cH
	DB	0c6H
	DB	0c6H
	DB	0c6H
	DB	07cH
	DB	00H
	DB	00H
	DB	00H
	DB	0dcH
	DB	066H
	DB	066H
	DB	07cH
	DB	060H
	DB	0f0H
	DB	00H
	DB	00H
	DB	076H
	DB	0ccH
	DB	0ccH
	DB	07cH
	DB	0cH
	DB	01eH
	DB	00H
	DB	00H
	DB	0dcH
	DB	076H
	DB	060H
	DB	060H
	DB	0f0H
	DB	00H
	DB	00H
	DB	00H
	DB	07eH
	DB	0c0H
	DB	07cH
	DB	06H
	DB	0fcH
	DB	00H
	DB	030H
	DB	030H
	DB	0fcH
	DB	030H
	DB	030H
	DB	036H
	DB	01cH
	DB	00H
	DB	00H
	DB	00H
	DB	0ccH
	DB	0ccH
	DB	0ccH
	DB	0ccH
	DB	076H
	DB	00H
	DB	00H
	DB	00H
	DB	0c6H
	DB	0c6H
	DB	0c6H
	DB	06cH
	DB	038H
	DB	00H
	DB	00H
	DB	00H
	DB	0c6H
	DB	0d6H
	DB	0d6H
	DB	0feH
	DB	06cH
	DB	00H
	DB	00H
	DB	00H
	DB	0c6H
	DB	06cH
	DB	038H
	DB	06cH
	DB	0c6H
	DB	00H
	DB	00H
	DB	00H
	DB	0c6H
	DB	0c6H
	DB	0c6H
	DB	07eH
	DB	06H
	DB	0fcH
	DB	00H
	DB	00H
	DB	07eH
	DB	04cH
	DB	018H
	DB	032H
	DB	07eH
	DB	00H
	DB	0eH
	DB	018H
	DB	018H
	DB	070H
	DB	018H
	DB	018H
	DB	0eH
	DB	00H
	DB	018H
	DB	018H
	DB	018H
	DB	018H
	DB	018H
	DB	018H
	DB	018H
	DB	00H
	DB	070H
	DB	018H
	DB	018H
	DB	0eH
	DB	018H
	DB	018H
	DB	070H
	DB	00H
	DB	076H
	DB	0dcH
	DB	00H
	DB	00H
	DB	00H
	DB	00H
	DB	00H
	DB	00H
	DB	0cH
	DB	010H
	DB	00H
	DB	00H
	DB	00H
	DB	00H
	DB	00H
	DB	00H
	DB	060H
	DB	010H
	DB	00H
	DB	00H
	DB	00H
	DB	00H
	DB	00H
	DB	00H
	DB	07cH
	DB	082H
	DB	00H
	DB	00H
	DB	00H
	DB	00H
	DB	00H
	DB	00H
	DB	0c6H
	DB	00H
	DB	00H
	DB	00H
	DB	00H
	DB	00H
	DB	00H
	DB	00H
	DB	072H
	DB	08cH
	DB	00H
	DB	00H
	DB	00H
	DB	00H
	DB	00H
	DB	00H
	DB	00H
	DB	00H
	DB	038H
	DB	018H
	DB	018H
	DB	018H
	DB	03cH
	DB	00H
	DB	038H
	DB	06cH
	DB	06cH
	DB	078H
	DB	066H
	DB	066H
	DB	06cH
	DB	0c0H
	DB	018H
	DB	00H
	DB	03cH
	DB	066H
	DB	07eH
	DB	066H
	DB	066H
	DB	00H
	DB	030H
	DB	00H
	DB	078H
	DB	0cH
	DB	07cH
	DB	0ccH
	DB	076H
	DB	00H
	DB	01eH
	DB	078H
	DB	098H
	DB	09eH
	DB	0f8H
	DB	098H
	DB	09eH
	DB	00H
	DB	07cH
	DB	066H
	DB	066H
	DB	0f6H
	DB	066H
	DB	066H
	DB	07cH
	DB	00H
	DB	0f0H
	DB	060H
	DB	07cH
	DB	066H
	DB	066H
	DB	07cH
	DB	060H
	DB	0f0H
	DB	00H
	DB	00H
	DB	0ccH
	DB	032H
	DB	07eH
	DB	0b0H
	DB	0ecH
	DB	00H
	DB	068H
	DB	030H
	DB	058H
	DB	0cH
	DB	07eH
	DB	0c6H
	DB	07cH
	DB	00H
	DB	070H
	DB	030H
	DB	03cH
	DB	036H
	DB	03cH
	DB	030H
	DB	078H
	DB	00H
	DB	03aH
	DB	06cH
	DB	0ceH
	DB	0d6H
	DB	0e6H
	DB	06cH
	DB	0b8H
	DB	00H
	DB	00H
	DB	02H
	DB	07cH
	DB	0ceH
	DB	0d6H
	DB	0e6H
	DB	07cH
	DB	080H
	DB	00H
	DB	00H
	DB	07cH
	DB	0c6H
	DB	0feH
	DB	0c6H
	DB	0c6H
	DB	00H
	DB	00H
	DB	00H
	DB	0feH
	DB	060H
	DB	07cH
	DB	060H
	DB	0feH
	DB	00H
	DB	00H
	DB	00H
	DB	03cH
	DB	018H
	DB	018H
	DB	018H
	DB	03cH
	DB	00H
	DB	00H
	DB	00H
	DB	07cH
	DB	0c6H
	DB	0c6H
	DB	0c6H
	DB	07cH
	DB	00H
	DB	00H
	DB	00H
	DB	0c6H
	DB	0c6H
	DB	0c6H
	DB	0c6H
	DB	07cH
	DB	00H
	DB	00H
	DB	00H
	DB	0e6H
	DB	0f6H
	DB	0deH
	DB	0ceH
	DB	0c6H
	DB	00H
	DB	018H
	DB	00H
	DB	018H
	DB	018H
	DB	03cH
	DB	03cH
	DB	018H
	DB	00H
	DB	030H
	DB	00H
	DB	030H
	DB	030H
	DB	060H
	DB	0c6H
	DB	07cH
	DB	00H
	DB	0cH
	DB	010H
	DB	00H
	DB	00H
	DB	00H
	DB	00H
	DB	00H
	DB	00H
	DB	060H
	DB	010H
	DB	00H
	DB	00H
	DB	00H
	DB	00H
	DB	00H
	DB	00H
	DB	038H
	DB	044H
	DB	00H
	DB	00H
	DB	00H
	DB	00H
	DB	00H
	DB	00H
	DB	0c6H
	DB	00H
	DB	00H
	DB	00H
	DB	00H
	DB	00H
	DB	00H
	DB	00H
	DB	072H
	DB	08cH
	DB	00H
	DB	00H
	DB	00H
	DB	00H
	DB	00H
	DB	00H
	DB	00H
	DB	00H
	DB	00H
	DB	00H
	DB	00H
	DB	00H
	DB	00H
	DB	010H
	DB	00H
	DB	00H
	DB	00H
	DB	00H
	DB	00H
	DB	00H
	DB	00H
	DB	00H
	DB	00H
	DB	010H
	DB	07cH
	DB	0d0H
	DB	0d0H
	DB	0d6H
	DB	07cH
	DB	010H
	DB	01cH
	DB	030H
	DB	030H
	DB	078H
	DB	030H
	DB	032H
	DB	05cH
	DB	00H
	DB	00H
	DB	00H
	DB	044H
	DB	038H
	DB	028H
	DB	038H
	DB	044H
	DB	00H
	DB	044H
	DB	028H
	DB	07cH
	DB	010H
	DB	07cH
	DB	010H
	DB	010H
	DB	00H
	DB	030H
	DB	030H
	DB	030H
	DB	00H
	DB	030H
	DB	030H
	DB	030H
	DB	00H
	DB	038H
	DB	040H
	DB	030H
	DB	048H
	DB	030H
	DB	08H
	DB	070H
	DB	00H
	DB	0c6H
	DB	00H
	DB	00H
	DB	00H
	DB	00H
	DB	00H
	DB	00H
	DB	00H
	DB	07eH
	DB	042H
	DB	05aH
	DB	05eH
	DB	05aH
	DB	042H
	DB	07eH
	DB	00H
	DB	038H
	DB	04H
	DB	03cH
	DB	044H
	DB	038H
	DB	00H
	DB	00H
	DB	00H
	DB	00H
	DB	036H
	DB	06cH
	DB	0d8H
	DB	06cH
	DB	036H
	DB	00H
	DB	00H
	DB	00H
	DB	00H
	DB	00H
	DB	07cH
	DB	04H
	DB	04H
	DB	00H
	DB	00H
	DB	00H
	DB	00H
	DB	00H
	DB	07cH
	DB	00H
	DB	00H
	DB	00H
	DB	00H
	DB	07cH
	DB	044H
	DB	054H
	DB	044H
	DB	04cH
	DB	054H
	DB	07cH
	DB	00H
	DB	07cH
	DB	00H
	DB	00H
	DB	00H
	DB	00H
	DB	00H
	DB	00H
	DB	00H
	DB	030H
	DB	048H
	DB	030H
	DB	00H
	DB	00H
	DB	00H
	DB	00H
	DB	00H
	DB	010H
	DB	010H
	DB	07cH
	DB	010H
	DB	010H
	DB	00H
	DB	07cH
	DB	00H
	DB	060H
	DB	090H
	DB	020H
	DB	040H
	DB	0f0H
	DB	00H
	DB	00H
	DB	00H
	DB	0e0H
	DB	010H
	DB	060H
	DB	010H
	DB	0e0H
	DB	00H
	DB	00H
	DB	00H
	DB	0eH
	DB	018H
	DB	020H
	DB	00H
	DB	00H
	DB	00H
	DB	00H
	DB	00H
	DB	00H
	DB	00H
	DB	066H
	DB	066H
	DB	066H
	DB	066H
	DB	07cH
	DB	0c0H
	DB	07eH
	DB	0d4H
	DB	0d4H
	DB	074H
	DB	014H
	DB	014H
	DB	03eH
	DB	00H
	DB	00H
	DB	00H
	DB	00H
	DB	018H
	DB	018H
	DB	00H
	DB	00H
	DB	00H
	DB	040H
	DB	0c0H
	DB	040H
	DB	040H
	DB	0e0H
	DB	00H
	DB	00H
	DB	00H
	DB	03cH
	DB	066H
	DB	066H
	DB	066H
	DB	03cH
	DB	00H
	DB	00H
	DB	00H
	DB	00H
	DB	0d8H
	DB	06cH
	DB	036H
	DB	06cH
	DB	0d8H
	DB	00H
	DB	00H
	DB	084H
	DB	088H
	DB	090H
	DB	0a4H
	DB	04cH
	DB	094H
	DB	01eH
	DB	04H
	DB	084H
	DB	088H
	DB	090H
	DB	0acH
	DB	052H
	DB	084H
	DB	08H
	DB	01eH
	DB	0c0H
	DB	020H
	DB	040H
	DB	024H
	DB	0ccH
	DB	014H
	DB	01eH
	DB	04H
	DB	00H
	DB	066H
	DB	03cH
	DB	018H
	DB	03cH
	DB	066H
	DB	00H
	DB	00H
	DB	00H
	DB	018H
	DB	00H
	DB	07eH
	DB	00H
	DB	018H
	DB	00H
	DB	00H
	DB	010H
	DB	030H
	DB	070H
	DB	0fcH
	DB	070H
	DB	030H
	DB	010H
	DB	00H
	DB	020H
	DB	030H
	DB	038H
	DB	0fcH
	DB	038H
	DB	030H
	DB	020H
	DB	00H
	DB	00H
	DB	020H
	DB	070H
	DB	0f8H
	DB	020H
	DB	020H
	DB	00H
	DB	00H
	DB	00H
	DB	020H
	DB	020H
	DB	0f8H
	DB	070H
	DB	020H
	DB	00H
	DB	00H
	DB	00H
	DB	08H
	DB	028H
	DB	068H
	DB	0f8H
	DB	060H
	DB	020H
	DB	00H
	DB	06H
	DB	06H
	DB	06H
	DB	0cH
	DB	08cH
	DB	0d8H
	DB	078H
	DB	030H
_GUI_F8x8_TransList DW 09dH
	DW	0ffffH
	DW	09eH
	DW	0ffffH
	DW	09fH
	DW	0ffffH
	DW	0a0H
	DW	0ffffH
	DW	0a1H
	DW	0ffffH
	DW	0a2H
	DW	0ffffH
	DW	0ffffH
	DW	0ffffH
	DW	0ffffH
	DW	0ffffH
	DW	0ffffH
	DW	0ffffH
	DW	0ffffH
	DW	0ffffH
	DW	0ffffH
	DW	0ffffH
	DW	0ffffH
	DW	0ffffH
	DW	0ffffH
	DW	0ffffH
	DW	0ffffH
	DW	0ffffH
	DW	0ffffH
	DW	0ffffH
	DW	0ffffH
	DW	0ffffH
	DW	07eH
	DW	0ffffH
	DW	076H
	DW	0ffffH
	DW	07fH
	DW	0ffffH
	DW	080H
	DW	0ffffH
	DW	081H
	DW	0ffffH
	DW	082H
	DW	0ffffH
	DW	083H
	DW	0ffffH
	DW	084H
	DW	0ffffH
	DW	085H
	DW	0ffffH
	DW	086H
	DW	0ffffH
	DW	087H
	DW	0ffffH
	DW	088H
	DW	0ffffH
	DW	089H
	DW	0ffffH
	DW	08aH
	DW	0ffffH
	DW	08bH
	DW	0ffffH
	DW	08cH
	DW	0ffffH
	DW	08dH
	DW	0ffffH
	DW	08eH
	DW	0ffffH
	DW	08fH
	DW	0ffffH
	DW	090H
	DW	0ffffH
	DW	091H
	DW	0ffffH
	DW	092H
	DW	0ffffH
	DW	093H
	DW	0ffffH
	DW	094H
	DW	0ffffH
	DW	07dH
	DW	0ffffH
	DW	095H
	DW	0ffffH
	DW	096H
	DW	0ffffH
	DW	097H
	DW	0ffffH
	DW	098H
	DW	0ffffH
	DW	099H
	DW	0ffffH
	DW	09aH
	DW	0ffffH
	DW	077H
	DW	0ffffH
	DW	070H
	DW	079H
	DW	070H
	DW	078H
	DW	070H
	DW	07aH
	DW	070H
	DW	07cH
	DW	070H
	DW	07bH
	DW	066H
	DW	0ffffH
	DW	068H
	DW	0ffffH
	DW	023H
	DW	07dH
	DW	071H
	DW	079H
	DW	071H
	DW	078H
	DW	071H
	DW	07aH
	DW	071H
	DW	07bH
	DW	072H
	DW	079H
	DW	072H
	DW	078H
	DW	072H
	DW	07aH
	DW	072H
	DW	07bH
	DW	069H
	DW	0ffffH
	DW	075H
	DW	07cH
	DW	073H
	DW	079H
	DW	073H
	DW	078H
	DW	073H
	DW	07aH
	DW	073H
	DW	07cH
	DW	073H
	DW	07bH
	DW	09bH
	DW	0ffffH
	DW	06eH
	DW	0ffffH
	DW	074H
	DW	079H
	DW	074H
	DW	078H
	DW	074H
	DW	07aH
	DW	074H
	DW	07bH
	DW	039H
	DW	078H
	DW	06aH
	DW	0ffffH
	DW	065H
	DW	0ffffH
	DW	041H
	DW	060H
	DW	041H
	DW	05fH
	DW	041H
	DW	061H
	DW	041H
	DW	063H
	DW	041H
	DW	062H
	DW	067H
	DW	0ffffH
	DW	06bH
	DW	0ffffH
	DW	043H
	DW	07dH
	DW	045H
	DW	060H
	DW	045H
	DW	05fH
	DW	045H
	DW	061H
	DW	045H
	DW	062H
	DW	064H
	DW	060H
	DW	064H
	DW	05fH
	DW	064H
	DW	061H
	DW	064H
	DW	062H
	DW	06cH
	DW	0ffffH
	DW	04eH
	DW	063H
	DW	04fH
	DW	060H
	DW	04fH
	DW	05fH
	DW	04fH
	DW	061H
	DW	04fH
	DW	063H
	DW	04fH
	DW	062H
	DW	09cH
	DW	0ffffH
	DW	06fH
	DW	0ffffH
	DW	055H
	DW	05fH
	DW	055H
	DW	060H
	DW	055H
	DW	061H
	DW	055H
	DW	062H
	DW	059H
	DW	05fH
	DW	06dH
	DW	0ffffH
	DW	059H
	DW	062H
_GUI_F8x8_TransInfo DW 090H
	DW	0ffH
	DD	FLAT:_GUI_F8x8_TransList
_GUI_F8x8_Mono DD FLAT:_GUI_F8x8_acFont
	DD	FLAT:_GUI_F8x8_acFont
	DD	FLAT:_GUI_F8x8_TransInfo
	DW	020H
	DW	07eH
	DB	08H
	DB	08H
	DB	01H
	ORG $+1
_GUI_Font8x8 DD	FLAT:_GUIMONO_DispChar
	DD	FLAT:_GUIMONO_GetCharDistX
	DD	FLAT:_GUIMONO_GetFontInfo
	DD	FLAT:_GUIMONO_IsInFont
	DD	00H
	DD	00H
	DB	08H
	DB	08H
	DB	01H
	DB	01H
	DD	FLAT:_GUI_F8x8_Mono
	DB	07H
	DB	05H
	DB	07H
	ORG $+1
_GUI_Font8x9 DD	FLAT:_GUIMONO_DispChar
	DD	FLAT:_GUIMONO_GetCharDistX
	DD	FLAT:_GUIMONO_GetFontInfo
	DD	FLAT:_GUIMONO_IsInFont
	DD	00H
	DD	00H
	DB	08H
	DB	09H
	DB	01H
	DB	01H
	DD	FLAT:_GUI_F8x8_Mono
	DB	07H
	DB	05H
	DB	07H
	ORG $+1
CONST	ENDS
END
