; Listing generated by Microsoft (R) Optimizing Compiler Version 16.00.40219.01 

	TITLE	C:\DUII\Simulation\GUI\Font\F8x8_1.c
	.686P
	.XMM
	include listing.inc
	.model	flat

INCLUDELIB LIBCMT
INCLUDELIB OLDNAMES

PUBLIC	_acF8x8_1_160
PUBLIC	_acF8x8_1_161
PUBLIC	_acF8x8_1_162
PUBLIC	_acF8x8_1_163
PUBLIC	_acF8x8_1_164
PUBLIC	_acF8x8_1_165
PUBLIC	_acF8x8_1_166
PUBLIC	_acF8x8_1_167
PUBLIC	_acF8x8_1_168
PUBLIC	_acF8x8_1_169
PUBLIC	_acF8x8_1_170
PUBLIC	_acF8x8_1_171
PUBLIC	_acF8x8_1_172
PUBLIC	_acF8x8_1_173
PUBLIC	_acF8x8_1_174
PUBLIC	_acF8x8_1_175
PUBLIC	_acF8x8_1_176
PUBLIC	_acF8x8_1_177
PUBLIC	_acF8x8_1_178
PUBLIC	_acF8x8_1_179
PUBLIC	_acF8x8_1_180
PUBLIC	_acF8x8_1_181
PUBLIC	_acF8x8_1_182
PUBLIC	_acF8x8_1_183
PUBLIC	_acF8x8_1_184
PUBLIC	_acF8x8_1_185
PUBLIC	_acF8x8_1_186
PUBLIC	_acF8x8_1_187
PUBLIC	_acF8x8_1_188
PUBLIC	_acF8x8_1_189
PUBLIC	_acF8x8_1_190
PUBLIC	_acF8x8_1_191
PUBLIC	_acF8x8_1_192
PUBLIC	_acF8x8_1_193
PUBLIC	_acF8x8_1_194
PUBLIC	_acF8x8_1_195
PUBLIC	_acF8x8_1_196
PUBLIC	_acF8x8_1_197
PUBLIC	_acF8x8_1_198
PUBLIC	_acF8x8_1_199
PUBLIC	_acF8x8_1_200
PUBLIC	_acF8x8_1_201
PUBLIC	_acF8x8_1_202
PUBLIC	_acF8x8_1_203
PUBLIC	_acF8x8_1_204
PUBLIC	_acF8x8_1_205
PUBLIC	_acF8x8_1_206
PUBLIC	_acF8x8_1_207
PUBLIC	_acF8x8_1_208
PUBLIC	_acF8x8_1_209
PUBLIC	_acF8x8_1_210
PUBLIC	_acF8x8_1_211
PUBLIC	_acF8x8_1_212
PUBLIC	_acF8x8_1_213
PUBLIC	_acF8x8_1_214
PUBLIC	_acF8x8_1_215
PUBLIC	_acF8x8_1_216
PUBLIC	_acF8x8_1_217
PUBLIC	_acF8x8_1_218
PUBLIC	_acF8x8_1_219
PUBLIC	_acF8x8_1_220
PUBLIC	_acF8x8_1_221
PUBLIC	_acF8x8_1_222
PUBLIC	_acF8x8_1_223
PUBLIC	_acF8x8_1_224
PUBLIC	_acF8x8_1_225
PUBLIC	_acF8x8_1_226
PUBLIC	_acF8x8_1_227
PUBLIC	_acF8x8_1_228
PUBLIC	_acF8x8_1_229
PUBLIC	_acF8x8_1_230
PUBLIC	_acF8x8_1_231
PUBLIC	_acF8x8_1_232
PUBLIC	_acF8x8_1_233
PUBLIC	_acF8x8_1_234
PUBLIC	_acF8x8_1_235
PUBLIC	_acF8x8_1_236
PUBLIC	_acF8x8_1_237
PUBLIC	_acF8x8_1_238
PUBLIC	_acF8x8_1_239
PUBLIC	_acF8x8_1_240
PUBLIC	_acF8x8_1_241
PUBLIC	_acF8x8_1_242
PUBLIC	_acF8x8_1_243
PUBLIC	_acF8x8_1_244
PUBLIC	_acF8x8_1_245
PUBLIC	_acF8x8_1_246
PUBLIC	_acF8x8_1_247
PUBLIC	_acF8x8_1_248
PUBLIC	_acF8x8_1_249
PUBLIC	_acF8x8_1_250
PUBLIC	_acF8x8_1_251
PUBLIC	_acF8x8_1_252
PUBLIC	_acF8x8_1_253
PUBLIC	_acF8x8_1_254
PUBLIC	_acF8x8_1_255
PUBLIC	_GUI_CharInfoF8x8_1
PUBLIC	_GUI_FontPropF8x8_1
PUBLIC	_GUI_Font8x8_1
EXTRN	_GUIPROP_IsInFont:PROC
EXTRN	_GUIPROP_GetFontInfo:PROC
EXTRN	_GUIPROP_GetCharDistX:PROC
EXTRN	_GUIPROP_DispChar:PROC
EXTRN	_GUI_Font8x8ASCII_Prop0:BYTE
CONST	SEGMENT
_acF8x8_1_160 DB 00H
	DB	00H
	DB	00H
	DB	00H
	DB	00H
	DB	00H
	DB	00H
	DB	00H
_acF8x8_1_161 DB 018H
	DB	00H
	DB	018H
	DB	018H
	DB	03cH
	DB	03cH
	DB	018H
	DB	00H
_acF8x8_1_162 DB 00H
	DB	010H
	DB	07cH
	DB	0c6H
	DB	0c0H
	DB	0c6H
	DB	07cH
	DB	010H
_acF8x8_1_163 DB 03cH
	DB	042H
	DB	040H
	DB	0f8H
	DB	040H
	DB	062H
	DB	09cH
	DB	00H
_acF8x8_1_164 DB 00H
	DB	00H
	DB	0baH
	DB	044H
	DB	0c6H
	DB	044H
	DB	0baH
	DB	00H
_acF8x8_1_165 DB 082H
	DB	044H
	DB	028H
	DB	07cH
	DB	010H
	DB	07cH
	DB	010H
	DB	010H
_acF8x8_1_166 DB 010H
	DB	010H
	DB	010H
	DB	00H
	DB	010H
	DB	010H
	DB	010H
	DB	00H
_acF8x8_1_167 DB 03cH
	DB	042H
	DB	038H
	DB	044H
	DB	022H
	DB	01cH
	DB	042H
	DB	03cH
_acF8x8_1_168 DB 044H
	DB	00H
	DB	00H
	DB	00H
	DB	00H
	DB	00H
	DB	00H
	DB	00H
_acF8x8_1_169 DB 07cH
	DB	044H
	DB	05cH
	DB	05cH
	DB	05cH
	DB	044H
	DB	07cH
	DB	00H
_acF8x8_1_170 DB 0c0H
	DB	020H
	DB	0e0H
	DB	0a0H
	DB	0e0H
	DB	00H
	DB	00H
	DB	00H
_acF8x8_1_171 DB 012H
	DB	024H
	DB	048H
	DB	090H
	DB	048H
	DB	024H
	DB	012H
	DB	00H
_acF8x8_1_172 DB 00H
	DB	00H
	DB	0feH
	DB	02H
	DB	02H
	DB	00H
	DB	00H
	DB	00H
_acF8x8_1_173 DB 00H
	DB	00H
	DB	00H
	DB	00H
	DB	07eH
	DB	00H
	DB	00H
	DB	00H
_acF8x8_1_174 DB 07cH
	DB	044H
	DB	054H
	DB	04cH
	DB	054H
	DB	054H
	DB	07cH
	DB	00H
_acF8x8_1_175 DB 0feH
	DB	00H
	DB	00H
	DB	00H
	DB	00H
	DB	00H
	DB	00H
	DB	00H
_acF8x8_1_176 DB 020H
	DB	050H
	DB	020H
	DB	00H
	DB	00H
	DB	00H
	DB	00H
	DB	00H
_acF8x8_1_177 DB 018H
	DB	018H
	DB	07eH
	DB	018H
	DB	018H
	DB	00H
	DB	07eH
	DB	00H
_acF8x8_1_178 DB 040H
	DB	0a0H
	DB	020H
	DB	040H
	DB	0e0H
	DB	00H
	DB	00H
	DB	00H
_acF8x8_1_179 DB 0c0H
	DB	020H
	DB	040H
	DB	020H
	DB	0c0H
	DB	00H
	DB	00H
	DB	00H
_acF8x8_1_180 DB 08H
	DB	010H
	DB	00H
	DB	00H
	DB	00H
	DB	00H
	DB	00H
	DB	00H
_acF8x8_1_181 DB 00H
	DB	00H
	DB	0ccH
	DB	0ccH
	DB	0ccH
	DB	0ccH
	DB	0f6H
	DB	0c0H
_acF8x8_1_182 DB 07eH
	DB	0f4H
	DB	0f4H
	DB	074H
	DB	014H
	DB	014H
	DB	014H
	DB	014H
_acF8x8_1_183 DB 00H
	DB	00H
	DB	00H
	DB	010H
	DB	00H
	DB	00H
	DB	00H
	DB	00H
_acF8x8_1_184 DB 00H
	DB	00H
	DB	00H
	DB	00H
	DB	00H
	DB	00H
	DB	00H
	DB	060H
_acF8x8_1_185 DB 060H
	DB	0e0H
	DB	020H
	DB	020H
	DB	020H
	DB	00H
	DB	00H
	DB	00H
_acF8x8_1_186 DB 040H
	DB	0a0H
	DB	0a0H
	DB	0a0H
	DB	040H
	DB	00H
	DB	00H
	DB	00H
_acF8x8_1_187 DB 090H
	DB	048H
	DB	024H
	DB	012H
	DB	024H
	DB	048H
	DB	090H
	DB	00H
_acF8x8_1_188 DB 042H
	DB	0c4H
	DB	048H
	DB	054H
	DB	02cH
	DB	054H
	DB	09eH
	DB	04H
_acF8x8_1_189 DB 042H
	DB	0c4H
	DB	048H
	DB	056H
	DB	022H
	DB	046H
	DB	084H
	DB	06H
_acF8x8_1_190 DB 0c2H
	DB	044H
	DB	0c8H
	DB	054H
	DB	0ecH
	DB	054H
	DB	09eH
	DB	04H
_acF8x8_1_191 DB 030H
	DB	00H
	DB	030H
	DB	030H
	DB	060H
	DB	0c6H
	DB	07cH
	DB	00H
_acF8x8_1_192 DB 020H
	DB	010H
	DB	038H
	DB	06cH
	DB	0c6H
	DB	0feH
	DB	0c6H
	DB	00H
_acF8x8_1_193 DB 08H
	DB	010H
	DB	038H
	DB	06cH
	DB	0c6H
	DB	0feH
	DB	0c6H
	DB	00H
_acF8x8_1_194 DB 010H
	DB	028H
	DB	038H
	DB	06cH
	DB	0c6H
	DB	0feH
	DB	0c6H
	DB	00H
_acF8x8_1_195 DB 076H
	DB	0dcH
	DB	038H
	DB	06cH
	DB	0c6H
	DB	0feH
	DB	0c6H
	DB	00H
_acF8x8_1_196 DB 044H
	DB	00H
	DB	038H
	DB	06cH
	DB	0c6H
	DB	0feH
	DB	0c6H
	DB	00H
_acF8x8_1_197 DB 038H
	DB	028H
	DB	038H
	DB	06cH
	DB	0c6H
	DB	0feH
	DB	0c6H
	DB	00H
_acF8x8_1_198 DB 03eH
	DB	028H
	DB	048H
	DB	07eH
	DB	048H
	DB	088H
	DB	08eH
	DB	00H
_acF8x8_1_199 DB 03cH
	DB	066H
	DB	0c0H
	DB	0c0H
	DB	0c0H
	DB	066H
	DB	03cH
	DB	060H
_acF8x8_1_200 DB 020H
	DB	010H
	DB	07eH
	DB	060H
	DB	078H
	DB	060H
	DB	07eH
	DB	00H
_acF8x8_1_201 DB 08H
	DB	010H
	DB	07eH
	DB	060H
	DB	078H
	DB	060H
	DB	07eH
	DB	00H
_acF8x8_1_202 DB 010H
	DB	028H
	DB	07eH
	DB	060H
	DB	078H
	DB	060H
	DB	07eH
	DB	00H
_acF8x8_1_203 DB 024H
	DB	00H
	DB	07eH
	DB	060H
	DB	078H
	DB	060H
	DB	07eH
	DB	00H
_acF8x8_1_204 DB 020H
	DB	010H
	DB	03cH
	DB	018H
	DB	018H
	DB	018H
	DB	03cH
	DB	00H
_acF8x8_1_205 DB 04H
	DB	08H
	DB	03cH
	DB	018H
	DB	018H
	DB	018H
	DB	03cH
	DB	00H
_acF8x8_1_206 DB 018H
	DB	024H
	DB	03cH
	DB	018H
	DB	018H
	DB	018H
	DB	03cH
	DB	00H
_acF8x8_1_207 DB 024H
	DB	00H
	DB	03cH
	DB	018H
	DB	018H
	DB	018H
	DB	03cH
	DB	00H
_acF8x8_1_208 DB 0f8H
	DB	06cH
	DB	066H
	DB	0f6H
	DB	066H
	DB	06cH
	DB	0f8H
	DB	00H
_acF8x8_1_209 DB 076H
	DB	0dcH
	DB	0c6H
	DB	0e6H
	DB	0f6H
	DB	0deH
	DB	0ceH
	DB	00H
_acF8x8_1_210 DB 020H
	DB	010H
	DB	07cH
	DB	0c6H
	DB	0c6H
	DB	0c6H
	DB	07cH
	DB	00H
_acF8x8_1_211 DB 08H
	DB	010H
	DB	07cH
	DB	0c6H
	DB	0c6H
	DB	0c6H
	DB	07cH
	DB	00H
_acF8x8_1_212 DB 010H
	DB	028H
	DB	07cH
	DB	0c6H
	DB	0c6H
	DB	0c6H
	DB	07cH
	DB	00H
_acF8x8_1_213 DB 076H
	DB	0dcH
	DB	07cH
	DB	0c6H
	DB	0c6H
	DB	0c6H
	DB	07cH
	DB	00H
_acF8x8_1_214 DB 044H
	DB	00H
	DB	07cH
	DB	0c6H
	DB	0c6H
	DB	0c6H
	DB	07cH
	DB	00H
_acF8x8_1_215 DB 00H
	DB	00H
	DB	044H
	DB	028H
	DB	010H
	DB	028H
	DB	044H
	DB	00H
_acF8x8_1_216 DB 07eH
	DB	0c6H
	DB	0ceH
	DB	0d6H
	DB	0e6H
	DB	0c6H
	DB	0fcH
	DB	00H
_acF8x8_1_217 DB 020H
	DB	010H
	DB	0c6H
	DB	0c6H
	DB	0c6H
	DB	0c6H
	DB	07cH
	DB	00H
_acF8x8_1_218 DB 08H
	DB	010H
	DB	0c6H
	DB	0c6H
	DB	0c6H
	DB	0c6H
	DB	07cH
	DB	00H
_acF8x8_1_219 DB 010H
	DB	028H
	DB	0c6H
	DB	0c6H
	DB	0c6H
	DB	0c6H
	DB	07cH
	DB	00H
_acF8x8_1_220 DB 044H
	DB	00H
	DB	0c6H
	DB	0c6H
	DB	0c6H
	DB	0c6H
	DB	07cH
	DB	00H
_acF8x8_1_221 DB 08H
	DB	010H
	DB	066H
	DB	066H
	DB	03cH
	DB	018H
	DB	03cH
	DB	00H
_acF8x8_1_222 DB 040H
	DB	07cH
	DB	042H
	DB	042H
	DB	042H
	DB	07cH
	DB	040H
	DB	00H
_acF8x8_1_223 DB 00H
	DB	038H
	DB	044H
	DB	044H
	DB	05cH
	DB	042H
	DB	052H
	DB	04cH
_acF8x8_1_224 DB 020H
	DB	010H
	DB	078H
	DB	0cH
	DB	07cH
	DB	0ccH
	DB	076H
	DB	00H
_acF8x8_1_225 DB 010H
	DB	020H
	DB	078H
	DB	0cH
	DB	07cH
	DB	0ccH
	DB	076H
	DB	00H
_acF8x8_1_226 DB 010H
	DB	028H
	DB	078H
	DB	0cH
	DB	07cH
	DB	0ccH
	DB	076H
	DB	00H
_acF8x8_1_227 DB 076H
	DB	0dcH
	DB	078H
	DB	0cH
	DB	07cH
	DB	0ccH
	DB	076H
	DB	00H
_acF8x8_1_228 DB 044H
	DB	00H
	DB	078H
	DB	0cH
	DB	07cH
	DB	0ccH
	DB	076H
	DB	00H
_acF8x8_1_229 DB 038H
	DB	028H
	DB	078H
	DB	0cH
	DB	07cH
	DB	0ccH
	DB	076H
	DB	00H
_acF8x8_1_230 DB 00H
	DB	00H
	DB	076H
	DB	01aH
	DB	07eH
	DB	0d8H
	DB	06eH
	DB	00H
_acF8x8_1_231 DB 00H
	DB	00H
	DB	07cH
	DB	0c6H
	DB	0c0H
	DB	0c6H
	DB	07cH
	DB	060H
_acF8x8_1_232 DB 020H
	DB	010H
	DB	07cH
	DB	0c6H
	DB	0feH
	DB	0c0H
	DB	07cH
	DB	00H
_acF8x8_1_233 DB 08H
	DB	010H
	DB	07cH
	DB	0c6H
	DB	0feH
	DB	0c0H
	DB	07cH
	DB	00H
_acF8x8_1_234 DB 010H
	DB	028H
	DB	07cH
	DB	0c6H
	DB	0feH
	DB	0c0H
	DB	07cH
	DB	00H
_acF8x8_1_235 DB 044H
	DB	00H
	DB	07cH
	DB	0c6H
	DB	0feH
	DB	0c0H
	DB	07cH
	DB	00H
_acF8x8_1_236 DB 020H
	DB	010H
	DB	038H
	DB	018H
	DB	018H
	DB	018H
	DB	03cH
	DB	00H
_acF8x8_1_237 DB 04H
	DB	08H
	DB	038H
	DB	018H
	DB	018H
	DB	018H
	DB	03cH
	DB	00H
_acF8x8_1_238 DB 018H
	DB	024H
	DB	038H
	DB	018H
	DB	018H
	DB	018H
	DB	03cH
	DB	00H
_acF8x8_1_239 DB 024H
	DB	00H
	DB	038H
	DB	018H
	DB	018H
	DB	018H
	DB	03cH
	DB	00H
_acF8x8_1_240 DB 038H
	DB	0cH
	DB	07eH
	DB	0c6H
	DB	0c6H
	DB	0c6H
	DB	07cH
	DB	00H
_acF8x8_1_241 DB 076H
	DB	0dcH
	DB	0dcH
	DB	066H
	DB	066H
	DB	066H
	DB	066H
	DB	00H
_acF8x8_1_242 DB 020H
	DB	010H
	DB	07cH
	DB	0c6H
	DB	0c6H
	DB	0c6H
	DB	07cH
	DB	00H
_acF8x8_1_243 DB 08H
	DB	010H
	DB	07cH
	DB	0c6H
	DB	0c6H
	DB	0c6H
	DB	07cH
	DB	00H
_acF8x8_1_244 DB 010H
	DB	028H
	DB	07cH
	DB	0c6H
	DB	0c6H
	DB	0c6H
	DB	07cH
	DB	00H
_acF8x8_1_245 DB 076H
	DB	0dcH
	DB	07cH
	DB	0c6H
	DB	0c6H
	DB	0c6H
	DB	07cH
	DB	00H
_acF8x8_1_246 DB 044H
	DB	00H
	DB	07cH
	DB	0c6H
	DB	0c6H
	DB	0c6H
	DB	07cH
	DB	00H
_acF8x8_1_247 DB 00H
	DB	00H
	DB	010H
	DB	00H
	DB	07cH
	DB	00H
	DB	010H
	DB	00H
_acF8x8_1_248 DB 00H
	DB	02H
	DB	07cH
	DB	0ceH
	DB	0d6H
	DB	0e6H
	DB	07cH
	DB	080H
_acF8x8_1_249 DB 020H
	DB	010H
	DB	0ccH
	DB	0ccH
	DB	0ccH
	DB	0ccH
	DB	076H
	DB	00H
_acF8x8_1_250 DB 010H
	DB	020H
	DB	0ccH
	DB	0ccH
	DB	0ccH
	DB	0ccH
	DB	076H
	DB	00H
_acF8x8_1_251 DB 030H
	DB	048H
	DB	0ccH
	DB	0ccH
	DB	0ccH
	DB	0ccH
	DB	076H
	DB	00H
_acF8x8_1_252 DB 048H
	DB	00H
	DB	0ccH
	DB	0ccH
	DB	0ccH
	DB	0ccH
	DB	076H
	DB	00H
_acF8x8_1_253 DB 08H
	DB	010H
	DB	0c6H
	DB	0c6H
	DB	0c6H
	DB	07eH
	DB	06H
	DB	0fcH
_acF8x8_1_254 DB 00H
	DB	040H
	DB	078H
	DB	044H
	DB	044H
	DB	078H
	DB	040H
	DB	00H
_acF8x8_1_255 DB 044H
	DB	00H
	DB	0c6H
	DB	0c6H
	DB	0c6H
	DB	07eH
	DB	06H
	DB	0fcH
_GUI_CharInfoF8x8_1 DB 08H
	DB	08H
	DB	01H
	ORG $+1
	DD	FLAT:_acF8x8_1_160
	DB	08H
	DB	08H
	DB	01H
	ORG $+1
	DD	FLAT:_acF8x8_1_161
	DB	08H
	DB	08H
	DB	01H
	ORG $+1
	DD	FLAT:_acF8x8_1_162
	DB	08H
	DB	08H
	DB	01H
	ORG $+1
	DD	FLAT:_acF8x8_1_163
	DB	08H
	DB	08H
	DB	01H
	ORG $+1
	DD	FLAT:_acF8x8_1_164
	DB	08H
	DB	08H
	DB	01H
	ORG $+1
	DD	FLAT:_acF8x8_1_165
	DB	08H
	DB	08H
	DB	01H
	ORG $+1
	DD	FLAT:_acF8x8_1_166
	DB	08H
	DB	08H
	DB	01H
	ORG $+1
	DD	FLAT:_acF8x8_1_167
	DB	08H
	DB	08H
	DB	01H
	ORG $+1
	DD	FLAT:_acF8x8_1_168
	DB	08H
	DB	08H
	DB	01H
	ORG $+1
	DD	FLAT:_acF8x8_1_169
	DB	08H
	DB	08H
	DB	01H
	ORG $+1
	DD	FLAT:_acF8x8_1_170
	DB	08H
	DB	08H
	DB	01H
	ORG $+1
	DD	FLAT:_acF8x8_1_171
	DB	08H
	DB	08H
	DB	01H
	ORG $+1
	DD	FLAT:_acF8x8_1_172
	DB	08H
	DB	08H
	DB	01H
	ORG $+1
	DD	FLAT:_acF8x8_1_173
	DB	08H
	DB	08H
	DB	01H
	ORG $+1
	DD	FLAT:_acF8x8_1_174
	DB	08H
	DB	08H
	DB	01H
	ORG $+1
	DD	FLAT:_acF8x8_1_175
	DB	08H
	DB	08H
	DB	01H
	ORG $+1
	DD	FLAT:_acF8x8_1_176
	DB	08H
	DB	08H
	DB	01H
	ORG $+1
	DD	FLAT:_acF8x8_1_177
	DB	08H
	DB	08H
	DB	01H
	ORG $+1
	DD	FLAT:_acF8x8_1_178
	DB	08H
	DB	08H
	DB	01H
	ORG $+1
	DD	FLAT:_acF8x8_1_179
	DB	08H
	DB	08H
	DB	01H
	ORG $+1
	DD	FLAT:_acF8x8_1_180
	DB	08H
	DB	08H
	DB	01H
	ORG $+1
	DD	FLAT:_acF8x8_1_181
	DB	08H
	DB	08H
	DB	01H
	ORG $+1
	DD	FLAT:_acF8x8_1_182
	DB	08H
	DB	08H
	DB	01H
	ORG $+1
	DD	FLAT:_acF8x8_1_183
	DB	08H
	DB	08H
	DB	01H
	ORG $+1
	DD	FLAT:_acF8x8_1_184
	DB	08H
	DB	08H
	DB	01H
	ORG $+1
	DD	FLAT:_acF8x8_1_185
	DB	08H
	DB	08H
	DB	01H
	ORG $+1
	DD	FLAT:_acF8x8_1_186
	DB	08H
	DB	08H
	DB	01H
	ORG $+1
	DD	FLAT:_acF8x8_1_187
	DB	08H
	DB	08H
	DB	01H
	ORG $+1
	DD	FLAT:_acF8x8_1_188
	DB	08H
	DB	08H
	DB	01H
	ORG $+1
	DD	FLAT:_acF8x8_1_189
	DB	08H
	DB	08H
	DB	01H
	ORG $+1
	DD	FLAT:_acF8x8_1_190
	DB	08H
	DB	08H
	DB	01H
	ORG $+1
	DD	FLAT:_acF8x8_1_191
	DB	08H
	DB	08H
	DB	01H
	ORG $+1
	DD	FLAT:_acF8x8_1_192
	DB	08H
	DB	08H
	DB	01H
	ORG $+1
	DD	FLAT:_acF8x8_1_193
	DB	08H
	DB	08H
	DB	01H
	ORG $+1
	DD	FLAT:_acF8x8_1_194
	DB	08H
	DB	08H
	DB	01H
	ORG $+1
	DD	FLAT:_acF8x8_1_195
	DB	08H
	DB	08H
	DB	01H
	ORG $+1
	DD	FLAT:_acF8x8_1_196
	DB	08H
	DB	08H
	DB	01H
	ORG $+1
	DD	FLAT:_acF8x8_1_197
	DB	08H
	DB	08H
	DB	01H
	ORG $+1
	DD	FLAT:_acF8x8_1_198
	DB	08H
	DB	08H
	DB	01H
	ORG $+1
	DD	FLAT:_acF8x8_1_199
	DB	08H
	DB	08H
	DB	01H
	ORG $+1
	DD	FLAT:_acF8x8_1_200
	DB	08H
	DB	08H
	DB	01H
	ORG $+1
	DD	FLAT:_acF8x8_1_201
	DB	08H
	DB	08H
	DB	01H
	ORG $+1
	DD	FLAT:_acF8x8_1_202
	DB	08H
	DB	08H
	DB	01H
	ORG $+1
	DD	FLAT:_acF8x8_1_203
	DB	08H
	DB	08H
	DB	01H
	ORG $+1
	DD	FLAT:_acF8x8_1_204
	DB	08H
	DB	08H
	DB	01H
	ORG $+1
	DD	FLAT:_acF8x8_1_205
	DB	08H
	DB	08H
	DB	01H
	ORG $+1
	DD	FLAT:_acF8x8_1_206
	DB	08H
	DB	08H
	DB	01H
	ORG $+1
	DD	FLAT:_acF8x8_1_207
	DB	08H
	DB	08H
	DB	01H
	ORG $+1
	DD	FLAT:_acF8x8_1_208
	DB	08H
	DB	08H
	DB	01H
	ORG $+1
	DD	FLAT:_acF8x8_1_209
	DB	08H
	DB	08H
	DB	01H
	ORG $+1
	DD	FLAT:_acF8x8_1_210
	DB	08H
	DB	08H
	DB	01H
	ORG $+1
	DD	FLAT:_acF8x8_1_211
	DB	08H
	DB	08H
	DB	01H
	ORG $+1
	DD	FLAT:_acF8x8_1_212
	DB	08H
	DB	08H
	DB	01H
	ORG $+1
	DD	FLAT:_acF8x8_1_213
	DB	08H
	DB	08H
	DB	01H
	ORG $+1
	DD	FLAT:_acF8x8_1_214
	DB	08H
	DB	08H
	DB	01H
	ORG $+1
	DD	FLAT:_acF8x8_1_215
	DB	08H
	DB	08H
	DB	01H
	ORG $+1
	DD	FLAT:_acF8x8_1_216
	DB	08H
	DB	08H
	DB	01H
	ORG $+1
	DD	FLAT:_acF8x8_1_217
	DB	08H
	DB	08H
	DB	01H
	ORG $+1
	DD	FLAT:_acF8x8_1_218
	DB	08H
	DB	08H
	DB	01H
	ORG $+1
	DD	FLAT:_acF8x8_1_219
	DB	08H
	DB	08H
	DB	01H
	ORG $+1
	DD	FLAT:_acF8x8_1_220
	DB	08H
	DB	08H
	DB	01H
	ORG $+1
	DD	FLAT:_acF8x8_1_221
	DB	08H
	DB	08H
	DB	01H
	ORG $+1
	DD	FLAT:_acF8x8_1_222
	DB	08H
	DB	08H
	DB	01H
	ORG $+1
	DD	FLAT:_acF8x8_1_223
	DB	08H
	DB	08H
	DB	01H
	ORG $+1
	DD	FLAT:_acF8x8_1_224
	DB	08H
	DB	08H
	DB	01H
	ORG $+1
	DD	FLAT:_acF8x8_1_225
	DB	08H
	DB	08H
	DB	01H
	ORG $+1
	DD	FLAT:_acF8x8_1_226
	DB	08H
	DB	08H
	DB	01H
	ORG $+1
	DD	FLAT:_acF8x8_1_227
	DB	08H
	DB	08H
	DB	01H
	ORG $+1
	DD	FLAT:_acF8x8_1_228
	DB	08H
	DB	08H
	DB	01H
	ORG $+1
	DD	FLAT:_acF8x8_1_229
	DB	08H
	DB	08H
	DB	01H
	ORG $+1
	DD	FLAT:_acF8x8_1_230
	DB	08H
	DB	08H
	DB	01H
	ORG $+1
	DD	FLAT:_acF8x8_1_231
	DB	08H
	DB	08H
	DB	01H
	ORG $+1
	DD	FLAT:_acF8x8_1_232
	DB	08H
	DB	08H
	DB	01H
	ORG $+1
	DD	FLAT:_acF8x8_1_233
	DB	08H
	DB	08H
	DB	01H
	ORG $+1
	DD	FLAT:_acF8x8_1_234
	DB	08H
	DB	08H
	DB	01H
	ORG $+1
	DD	FLAT:_acF8x8_1_235
	DB	08H
	DB	08H
	DB	01H
	ORG $+1
	DD	FLAT:_acF8x8_1_236
	DB	08H
	DB	08H
	DB	01H
	ORG $+1
	DD	FLAT:_acF8x8_1_237
	DB	08H
	DB	08H
	DB	01H
	ORG $+1
	DD	FLAT:_acF8x8_1_238
	DB	08H
	DB	08H
	DB	01H
	ORG $+1
	DD	FLAT:_acF8x8_1_239
	DB	08H
	DB	08H
	DB	01H
	ORG $+1
	DD	FLAT:_acF8x8_1_240
	DB	08H
	DB	08H
	DB	01H
	ORG $+1
	DD	FLAT:_acF8x8_1_241
	DB	08H
	DB	08H
	DB	01H
	ORG $+1
	DD	FLAT:_acF8x8_1_242
	DB	08H
	DB	08H
	DB	01H
	ORG $+1
	DD	FLAT:_acF8x8_1_243
	DB	08H
	DB	08H
	DB	01H
	ORG $+1
	DD	FLAT:_acF8x8_1_244
	DB	08H
	DB	08H
	DB	01H
	ORG $+1
	DD	FLAT:_acF8x8_1_245
	DB	08H
	DB	08H
	DB	01H
	ORG $+1
	DD	FLAT:_acF8x8_1_246
	DB	08H
	DB	08H
	DB	01H
	ORG $+1
	DD	FLAT:_acF8x8_1_247
	DB	08H
	DB	08H
	DB	01H
	ORG $+1
	DD	FLAT:_acF8x8_1_248
	DB	08H
	DB	08H
	DB	01H
	ORG $+1
	DD	FLAT:_acF8x8_1_249
	DB	08H
	DB	08H
	DB	01H
	ORG $+1
	DD	FLAT:_acF8x8_1_250
	DB	08H
	DB	08H
	DB	01H
	ORG $+1
	DD	FLAT:_acF8x8_1_251
	DB	08H
	DB	08H
	DB	01H
	ORG $+1
	DD	FLAT:_acF8x8_1_252
	DB	08H
	DB	08H
	DB	01H
	ORG $+1
	DD	FLAT:_acF8x8_1_253
	DB	08H
	DB	08H
	DB	01H
	ORG $+1
	DD	FLAT:_acF8x8_1_254
	DB	08H
	DB	08H
	DB	01H
	ORG $+1
	DD	FLAT:_acF8x8_1_255
_GUI_FontPropF8x8_1 DW 0a0H
	DW	0ffH
	DD	FLAT:_GUI_CharInfoF8x8_1
	DD	FLAT:_GUI_Font8x8ASCII_Prop0
_GUI_Font8x8_1 DD FLAT:_GUIPROP_DispChar
	DD	FLAT:_GUIPROP_GetCharDistX
	DD	FLAT:_GUIPROP_GetFontInfo
	DD	FLAT:_GUIPROP_IsInFont
	DD	00H
	DD	00H
	DB	08H
	DB	08H
	DB	01H
	DB	01H
	DD	FLAT:_GUI_FontPropF8x8_1
	DB	07H
	DB	05H
	DB	07H
	ORG $+1
CONST	ENDS
END
