; Listing generated by Microsoft (R) Optimizing Compiler Version 16.00.40219.01 

	TITLE	C:\DUII\Simulation\GUI\Font\FD80.c
	.686P
	.XMM
	include listing.inc
	.model	flat

INCLUDELIB LIBCMT
INCLUDELIB OLDNAMES

PUBLIC	_acFontD80_Space
PUBLIC	_acFontD80_Add
PUBLIC	_acFontD80_Sub
PUBLIC	_acFontD80_DP
PUBLIC	_acFontD80
PUBLIC	_acFontD80_Colon
PUBLIC	_GUI_FontD80_CharInfo
PUBLIC	_GUI_FontD80_Prop4
PUBLIC	_GUI_FontD80_Prop3
PUBLIC	_GUI_FontD80_Prop2
PUBLIC	_GUI_FontD80_Prop1
PUBLIC	_GUI_FontD80
EXTRN	_GUIPROP_IsInFont:PROC
EXTRN	_GUIPROP_GetFontInfo:PROC
EXTRN	_GUIPROP_GetCharDistX:PROC
EXTRN	_GUIPROP_DispChar:PROC
CONST	SEGMENT
_acFontD80_Space DB 00H
	DB	00H
	DB	00H
	DB	00H
	DB	00H
	DB	00H
	DB	00H
	DB	00H
	DB	00H
	DB	00H
	DB	00H
	DB	00H
	DB	00H
	DB	00H
	DB	00H
	DB	00H
	DB	00H
	DB	00H
	DB	00H
	DB	00H
	DB	00H
	DB	00H
	DB	00H
	DB	00H
	DB	00H
	DB	00H
	DB	00H
	DB	00H
	DB	00H
	DB	00H
	DB	00H
	DB	00H
	DB	00H
	DB	00H
	DB	00H
	DB	00H
	DB	00H
	DB	00H
	DB	00H
	DB	00H
	DB	00H
	DB	00H
	DB	00H
	DB	00H
	DB	00H
	DB	00H
	DB	00H
	DB	00H
	DB	00H
	DB	00H
	DB	00H
	DB	00H
	DB	00H
	DB	00H
	DB	00H
	DB	00H
	DB	00H
	DB	00H
	DB	00H
	DB	00H
	DB	00H
	DB	00H
	DB	00H
	DB	00H
	DB	00H
	DB	00H
	DB	00H
	DB	00H
	DB	00H
	DB	00H
	DB	00H
	DB	00H
	DB	00H
	DB	00H
	DB	00H
	DB	00H
	DB	00H
	DB	00H
	DB	00H
	DB	00H
	DB	00H
	DB	00H
	DB	00H
	DB	00H
	DB	00H
	DB	00H
	DB	00H
	DB	00H
	DB	00H
	DB	00H
	DB	00H
	DB	00H
	DB	00H
	DB	00H
	DB	00H
	DB	00H
	DB	00H
	DB	00H
	DB	00H
	DB	00H
	DB	00H
	DB	00H
	DB	00H
	DB	00H
	DB	00H
	DB	00H
	DB	00H
	DB	00H
	DB	00H
	DB	00H
	DB	00H
	DB	00H
	DB	00H
	DB	00H
	DB	00H
	DB	00H
	DB	00H
	DB	00H
	DB	00H
	DB	00H
	DB	00H
	DB	00H
	DB	00H
	DB	00H
	DB	00H
	DB	00H
	DB	00H
	DB	00H
	DB	00H
	DB	00H
	DB	00H
	DB	00H
	DB	00H
	DB	00H
	DB	00H
	DB	00H
	DB	00H
	DB	00H
	DB	00H
	DB	00H
	DB	00H
	DB	00H
	DB	00H
	DB	00H
	DB	00H
	DB	00H
	DB	00H
	DB	00H
	DB	00H
	DB	00H
	DB	00H
	DB	00H
	DB	00H
	DB	00H
	DB	00H
	DB	00H
	DB	00H
	DB	00H
	DB	00H
	DB	00H
	DB	00H
	DB	00H
	DB	00H
	DB	00H
	DB	00H
	DB	00H
	DB	00H
	DB	00H
	DB	00H
	DB	00H
	DB	00H
	DB	00H
	DB	00H
	DB	00H
	DB	00H
	DB	00H
	DB	00H
	DB	00H
	DB	00H
	DB	00H
	DB	00H
	DB	00H
	DB	00H
	DB	00H
	DB	00H
	DB	00H
	DB	00H
	DB	00H
	DB	00H
	DB	00H
	DB	00H
	DB	00H
	DB	00H
	DB	00H
	DB	00H
	DB	00H
	DB	00H
	DB	00H
	DB	00H
	DB	00H
	DB	00H
	DB	00H
	DB	00H
	DB	00H
	DB	00H
	DB	00H
	DB	00H
	DB	00H
	DB	00H
	DB	00H
	DB	00H
	DB	00H
	DB	00H
	DB	00H
	DB	00H
	DB	00H
	DB	00H
	DB	00H
	DB	00H
	DB	00H
	DB	00H
	DB	00H
	DB	00H
	DB	00H
	DB	00H
	DB	00H
	DB	00H
	DB	00H
	DB	00H
	DB	00H
	DB	00H
	DB	00H
	DB	00H
	DB	00H
	DB	00H
	DB	00H
	DB	00H
	DB	00H
	DB	00H
	DB	00H
	DB	00H
	DB	00H
	DB	00H
	DB	00H
	DB	00H
	DB	00H
	DB	00H
	DB	00H
	DB	00H
	DB	00H
	DB	00H
	DB	00H
	DB	00H
	DB	00H
	DB	00H
	DB	00H
	DB	00H
	DB	00H
	DB	00H
	DB	00H
	DB	00H
	DB	00H
	DB	00H
	DB	00H
	DB	00H
	DB	00H
	DB	00H
	DB	00H
	DB	00H
	DB	00H
	DB	00H
	DB	00H
	DB	00H
	DB	00H
	DB	00H
	DB	00H
	DB	00H
	DB	00H
	DB	00H
	DB	00H
	DB	00H
	DB	00H
	DB	00H
	DB	00H
	DB	00H
	DB	00H
	DB	00H
	DB	00H
	DB	00H
	DB	00H
	DB	00H
	DB	00H
	DB	00H
	DB	00H
	DB	00H
	DB	00H
	DB	00H
	DB	00H
	DB	00H
	DB	00H
	DB	00H
	DB	00H
	DB	00H
	DB	00H
	DB	00H
	DB	00H
	DB	00H
	DB	00H
	DB	00H
	DB	00H
	DB	00H
	DB	00H
	DB	00H
	DB	00H
	DB	00H
	DB	00H
	DB	00H
	DB	00H
	DB	00H
	DB	00H
_acFontD80_Add DB 00H
	DB	00H
	DB	00H
	DB	00H
	DB	00H
	DB	00H
	DB	00H
	DB	00H
	DB	00H
	DB	00H
	DB	00H
	DB	00H
	DB	00H
	DB	00H
	DB	00H
	DB	00H
	DB	00H
	DB	00H
	DB	00H
	DB	00H
	DB	00H
	DB	00H
	DB	00H
	DB	00H
	DB	00H
	DB	00H
	DB	00H
	DB	00H
	DB	00H
	DB	00H
	DB	00H
	DB	00H
	DB	00H
	DB	00H
	DB	00H
	DB	00H
	DB	00H
	DB	00H
	DB	00H
	DB	00H
	DB	00H
	DB	00H
	DB	00H
	DB	00H
	DB	00H
	DB	00H
	DB	00H
	DB	00H
	DB	00H
	DB	00H
	DB	00H
	DB	00H
	DB	00H
	DB	00H
	DB	00H
	DB	00H
	DB	00H
	DB	00H
	DB	00H
	DB	00H
	DB	00H
	DB	00H
	DB	00H
	DB	00H
	DB	00H
	DB	00H
	DB	00H
	DB	00H
	DB	00H
	DB	00H
	DB	00H
	DB	00H
	DB	00H
	DB	00H
	DB	00H
	DB	00H
	DB	00H
	DB	00H
	DB	00H
	DB	00H
	DB	00H
	DB	00H
	DB	00H
	DB	00H
	DB	00H
	DB	00H
	DB	00H
	DB	00H
	DB	00H
	DB	00H
	DB	00H
	DB	00H
	DB	00H
	DB	00H
	DB	00H
	DB	00H
	DB	00H
	DB	00H
	DB	00H
	DB	00H
	DB	00H
	DB	00H
	DB	00H
	DB	00H
	DB	00H
	DB	00H
	DB	00H
	DB	00H
	DB	00H
	DB	00H
	DB	00H
	DB	00H
	DB	00H
	DB	00H
	DB	00H
	DB	00H
	DB	00H
	DB	00H
	DB	00H
	DB	00H
	DB	00H
	DB	00H
	DB	00H
	DB	00H
	DB	00H
	DB	00H
	DB	00H
	DB	00H
	DB	00H
	DB	00H
	DB	00H
	DB	00H
	DB	00H
	DB	00H
	DB	00H
	DB	00H
	DB	00H
	DB	00H
	DB	00H
	DB	00H
	DB	00H
	DB	00H
	DB	00H
	DB	00H
	DB	00H
	DB	00H
	DB	00H
	DB	00H
	DB	00H
	DB	00H
	DB	00H
	DB	00H
	DB	00H
	DB	00H
	DB	00H
	DB	00H
	DB	00H
	DB	00H
	DB	00H
	DB	00H
	DB	00H
	DB	00H
	DB	00H
	DB	00H
	DB	00H
	DB	00H
	DB	00H
	DB	00H
	DB	00H
	DB	00H
	DB	00H
	DB	00H
	DB	00H
	DB	00H
	DB	00H
	DB	00H
	DB	00H
	DB	00H
	DB	00H
	DB	00H
	DB	00H
	DB	00H
	DB	00H
	DB	00H
	DB	00H
	DB	00H
	DB	00H
	DB	07fH
	DB	0f0H
	DB	00H
	DB	00H
	DB	00H
	DB	00H
	DB	00H
	DB	00H
	DB	07fH
	DB	0f0H
	DB	00H
	DB	00H
	DB	00H
	DB	00H
	DB	00H
	DB	00H
	DB	07fH
	DB	0f0H
	DB	00H
	DB	00H
	DB	00H
	DB	00H
	DB	00H
	DB	00H
	DB	07fH
	DB	0f0H
	DB	00H
	DB	00H
	DB	00H
	DB	00H
	DB	00H
	DB	00H
	DB	07fH
	DB	0f0H
	DB	00H
	DB	00H
	DB	00H
	DB	00H
	DB	00H
	DB	00H
	DB	07fH
	DB	0f0H
	DB	00H
	DB	00H
	DB	00H
	DB	00H
	DB	00H
	DB	00H
	DB	07fH
	DB	0f0H
	DB	00H
	DB	00H
	DB	00H
	DB	00H
	DB	00H
	DB	00H
	DB	07fH
	DB	0f0H
	DB	00H
	DB	00H
	DB	00H
	DB	00H
	DB	00H
	DB	00H
	DB	07fH
	DB	0f0H
	DB	00H
	DB	00H
	DB	00H
	DB	00H
	DB	00H
	DB	00H
	DB	07fH
	DB	0f0H
	DB	00H
	DB	00H
	DB	00H
	DB	00H
	DB	00H
	DB	00H
	DB	07fH
	DB	0f0H
	DB	00H
	DB	00H
	DB	00H
	DB	00H
	DB	00H
	DB	00H
	DB	07fH
	DB	0f0H
	DB	00H
	DB	00H
	DB	00H
	DB	00H
	DB	00H
	DB	00H
	DB	07fH
	DB	0f0H
	DB	00H
	DB	00H
	DB	00H
	DB	00H
	DB	00H
	DB	00H
	DB	07fH
	DB	0f0H
	DB	00H
	DB	00H
	DB	00H
	DB	00H
	DB	00H
	DB	00H
	DB	07fH
	DB	0f0H
	DB	00H
	DB	00H
	DB	00H
	DB	00H
	DB	00H
	DB	00H
	DB	07fH
	DB	0f0H
	DB	00H
	DB	00H
	DB	00H
	DB	00H
	DB	00H
	DB	00H
	DB	07fH
	DB	0f0H
	DB	00H
	DB	00H
	DB	00H
	DB	00H
	DB	00H
	DB	00H
	DB	07fH
	DB	0f0H
	DB	00H
	DB	00H
	DB	00H
	DB	00H
	DB	00H
	DB	00H
	DB	07fH
	DB	0f0H
	DB	00H
	DB	00H
	DB	00H
	DB	00H
	DB	00H
	DB	00H
	DB	07fH
	DB	0f0H
	DB	00H
	DB	00H
	DB	00H
	DB	00H
	DB	00H
	DB	00H
	DB	07fH
	DB	0f0H
	DB	00H
	DB	00H
	DB	00H
	DB	00H
	DB	00H
	DB	00H
	DB	07fH
	DB	0f0H
	DB	00H
	DB	00H
	DB	00H
	DB	0fH
	DB	0ffH
	DB	0ffH
	DB	0ffH
	DB	0ffH
	DB	0ffH
	DB	0ffH
	DB	080H
	DB	0fH
	DB	0ffH
	DB	0ffH
	DB	0ffH
	DB	0ffH
	DB	0ffH
	DB	0ffH
	DB	080H
	DB	0fH
	DB	0ffH
	DB	0ffH
	DB	0ffH
	DB	0ffH
	DB	0ffH
	DB	0ffH
	DB	080H
	DB	0fH
	DB	0ffH
	DB	0ffH
	DB	0ffH
	DB	0ffH
	DB	0ffH
	DB	0ffH
	DB	080H
	DB	0fH
	DB	0ffH
	DB	0ffH
	DB	0ffH
	DB	0ffH
	DB	0ffH
	DB	0ffH
	DB	080H
	DB	0fH
	DB	0ffH
	DB	0ffH
	DB	0ffH
	DB	0ffH
	DB	0ffH
	DB	0ffH
	DB	080H
	DB	0fH
	DB	0ffH
	DB	0ffH
	DB	0ffH
	DB	0ffH
	DB	0ffH
	DB	0ffH
	DB	080H
	DB	0fH
	DB	0ffH
	DB	0ffH
	DB	0ffH
	DB	0ffH
	DB	0ffH
	DB	0ffH
	DB	080H
	DB	0fH
	DB	0ffH
	DB	0ffH
	DB	0ffH
	DB	0ffH
	DB	0ffH
	DB	0ffH
	DB	080H
	DB	0fH
	DB	0ffH
	DB	0ffH
	DB	0ffH
	DB	0ffH
	DB	0ffH
	DB	0ffH
	DB	080H
	DB	0fH
	DB	0ffH
	DB	0ffH
	DB	0ffH
	DB	0ffH
	DB	0ffH
	DB	0ffH
	DB	080H
	DB	00H
	DB	00H
	DB	00H
	DB	07fH
	DB	0f0H
	DB	00H
	DB	00H
	DB	00H
	DB	00H
	DB	00H
	DB	00H
	DB	07fH
	DB	0f0H
	DB	00H
	DB	00H
	DB	00H
	DB	00H
	DB	00H
	DB	00H
	DB	07fH
	DB	0f0H
	DB	00H
	DB	00H
	DB	00H
	DB	00H
	DB	00H
	DB	00H
	DB	07fH
	DB	0f0H
	DB	00H
	DB	00H
	DB	00H
	DB	00H
	DB	00H
	DB	00H
	DB	07fH
	DB	0f0H
	DB	00H
	DB	00H
	DB	00H
	DB	00H
	DB	00H
	DB	00H
	DB	07fH
	DB	0f0H
	DB	00H
	DB	00H
	DB	00H
	DB	00H
	DB	00H
	DB	00H
	DB	07fH
	DB	0f0H
	DB	00H
	DB	00H
	DB	00H
	DB	00H
	DB	00H
	DB	00H
	DB	07fH
	DB	0f0H
	DB	00H
	DB	00H
	DB	00H
	DB	00H
	DB	00H
	DB	00H
	DB	07fH
	DB	0f0H
	DB	00H
	DB	00H
	DB	00H
	DB	00H
	DB	00H
	DB	00H
	DB	07fH
	DB	0f0H
	DB	00H
	DB	00H
	DB	00H
	DB	00H
	DB	00H
	DB	00H
	DB	07fH
	DB	0f0H
	DB	00H
	DB	00H
	DB	00H
	DB	00H
	DB	00H
	DB	00H
	DB	07fH
	DB	0f0H
	DB	00H
	DB	00H
	DB	00H
	DB	00H
	DB	00H
	DB	00H
	DB	07fH
	DB	0f0H
	DB	00H
	DB	00H
	DB	00H
	DB	00H
	DB	00H
	DB	00H
	DB	07fH
	DB	0f0H
	DB	00H
	DB	00H
	DB	00H
	DB	00H
	DB	00H
	DB	00H
	DB	07fH
	DB	0f0H
	DB	00H
	DB	00H
	DB	00H
	DB	00H
	DB	00H
	DB	00H
	DB	07fH
	DB	0f0H
	DB	00H
	DB	00H
	DB	00H
	DB	00H
	DB	00H
	DB	00H
	DB	07fH
	DB	0f0H
	DB	00H
	DB	00H
	DB	00H
	DB	00H
	DB	00H
	DB	00H
	DB	07fH
	DB	0f0H
	DB	00H
	DB	00H
	DB	00H
	DB	00H
	DB	00H
	DB	00H
	DB	07fH
	DB	0f0H
	DB	00H
	DB	00H
	DB	00H
	DB	00H
	DB	00H
	DB	00H
	DB	07fH
	DB	0f0H
	DB	00H
	DB	00H
	DB	00H
	DB	00H
	DB	00H
	DB	00H
	DB	07fH
	DB	0f0H
	DB	00H
	DB	00H
	DB	00H
	DB	00H
	DB	00H
	DB	00H
	DB	07fH
	DB	0f0H
	DB	00H
	DB	00H
	DB	00H
	DB	00H
	DB	00H
	DB	00H
	DB	00H
	DB	00H
	DB	00H
	DB	00H
	DB	00H
	DB	00H
	DB	00H
	DB	00H
	DB	00H
	DB	00H
	DB	00H
	DB	00H
	DB	00H
_acFontD80_Sub DB 00H
	DB	00H
	DB	00H
	DB	00H
	DB	00H
	DB	00H
	DB	00H
	DB	00H
	DB	00H
	DB	00H
	DB	00H
	DB	00H
	DB	00H
	DB	00H
	DB	00H
	DB	00H
	DB	00H
	DB	00H
	DB	00H
	DB	00H
	DB	00H
	DB	00H
	DB	00H
	DB	00H
	DB	00H
	DB	00H
	DB	00H
	DB	00H
	DB	00H
	DB	00H
	DB	00H
	DB	00H
	DB	00H
	DB	00H
	DB	00H
	DB	00H
	DB	00H
	DB	00H
	DB	00H
	DB	00H
	DB	00H
	DB	00H
	DB	00H
	DB	00H
	DB	00H
	DB	00H
	DB	00H
	DB	00H
	DB	00H
	DB	00H
	DB	00H
	DB	00H
	DB	00H
	DB	00H
	DB	00H
	DB	00H
	DB	00H
	DB	00H
	DB	00H
	DB	00H
	DB	00H
	DB	00H
	DB	00H
	DB	00H
	DB	00H
	DB	00H
	DB	00H
	DB	00H
	DB	00H
	DB	00H
	DB	00H
	DB	00H
	DB	00H
	DB	00H
	DB	00H
	DB	00H
	DB	00H
	DB	00H
	DB	00H
	DB	00H
	DB	00H
	DB	00H
	DB	00H
	DB	00H
	DB	00H
	DB	00H
	DB	00H
	DB	00H
	DB	00H
	DB	00H
	DB	00H
	DB	00H
	DB	00H
	DB	00H
	DB	00H
	DB	00H
	DB	00H
	DB	00H
	DB	00H
	DB	00H
	DB	00H
	DB	00H
	DB	00H
	DB	00H
	DB	00H
	DB	00H
	DB	00H
	DB	00H
	DB	00H
	DB	00H
	DB	00H
	DB	00H
	DB	00H
	DB	00H
	DB	00H
	DB	00H
	DB	00H
	DB	00H
	DB	00H
	DB	00H
	DB	00H
	DB	00H
	DB	00H
	DB	00H
	DB	00H
	DB	00H
	DB	00H
	DB	00H
	DB	00H
	DB	00H
	DB	00H
	DB	00H
	DB	00H
	DB	00H
	DB	00H
	DB	00H
	DB	00H
	DB	00H
	DB	00H
	DB	00H
	DB	00H
	DB	00H
	DB	00H
	DB	00H
	DB	00H
	DB	00H
	DB	00H
	DB	00H
	DB	00H
	DB	00H
	DB	00H
	DB	00H
	DB	00H
	DB	00H
	DB	00H
	DB	00H
	DB	00H
	DB	00H
	DB	00H
	DB	00H
	DB	00H
	DB	00H
	DB	00H
	DB	00H
	DB	00H
	DB	00H
	DB	00H
	DB	00H
	DB	00H
	DB	00H
	DB	00H
	DB	00H
	DB	00H
	DB	00H
	DB	00H
	DB	00H
	DB	00H
	DB	00H
	DB	00H
	DB	00H
	DB	00H
	DB	00H
	DB	00H
	DB	00H
	DB	00H
	DB	00H
	DB	00H
	DB	00H
	DB	00H
	DB	00H
	DB	00H
	DB	00H
	DB	00H
	DB	00H
	DB	00H
	DB	00H
	DB	00H
	DB	00H
	DB	00H
	DB	00H
	DB	00H
	DB	00H
	DB	00H
	DB	00H
	DB	00H
	DB	00H
	DB	00H
	DB	00H
	DB	00H
	DB	00H
	DB	00H
	DB	00H
	DB	00H
	DB	00H
	DB	00H
	DB	00H
	DB	00H
	DB	00H
	DB	00H
	DB	00H
	DB	00H
	DB	00H
	DB	00H
	DB	00H
	DB	00H
	DB	00H
	DB	00H
	DB	00H
	DB	00H
	DB	00H
	DB	00H
	DB	00H
	DB	00H
	DB	00H
	DB	00H
	DB	00H
	DB	00H
	DB	00H
	DB	00H
	DB	00H
	DB	00H
	DB	00H
	DB	00H
	DB	00H
	DB	00H
	DB	00H
	DB	00H
	DB	00H
	DB	00H
	DB	00H
	DB	00H
	DB	00H
	DB	00H
	DB	00H
	DB	00H
	DB	00H
	DB	00H
	DB	00H
	DB	00H
	DB	00H
	DB	00H
	DB	00H
	DB	00H
	DB	00H
	DB	00H
	DB	00H
	DB	00H
	DB	00H
	DB	00H
	DB	00H
	DB	00H
	DB	00H
	DB	00H
	DB	00H
	DB	00H
	DB	00H
	DB	00H
	DB	00H
	DB	00H
	DB	00H
	DB	00H
	DB	00H
	DB	00H
	DB	00H
	DB	00H
	DB	00H
	DB	00H
	DB	00H
	DB	00H
	DB	00H
	DB	00H
	DB	00H
	DB	00H
	DB	00H
	DB	00H
	DB	00H
	DB	00H
	DB	00H
	DB	00H
	DB	00H
	DB	00H
	DB	00H
	DB	00H
	DB	00H
	DB	00H
	DB	00H
	DB	00H
	DB	00H
	DB	00H
	DB	00H
	DB	00H
	DB	00H
	DB	00H
	DB	00H
	DB	00H
	DB	00H
	DB	00H
	DB	00H
	DB	00H
	DB	00H
	DB	00H
	DB	00H
	DB	00H
	DB	00H
	DB	00H
	DB	00H
	DB	00H
	DB	00H
	DB	00H
	DB	00H
	DB	00H
	DB	00H
	DB	00H
	DB	00H
	DB	00H
	DB	00H
	DB	00H
	DB	00H
	DB	00H
	DB	00H
	DB	00H
	DB	00H
	DB	00H
	DB	00H
	DB	00H
	DB	00H
	DB	00H
	DB	00H
	DB	00H
	DB	00H
	DB	00H
	DB	00H
	DB	00H
	DB	00H
	DB	00H
	DB	00H
	DB	00H
	DB	00H
	DB	00H
	DB	00H
	DB	0fH
	DB	0ffH
	DB	0ffH
	DB	0ffH
	DB	0ffH
	DB	0ffH
	DB	0ffH
	DB	080H
	DB	0fH
	DB	0ffH
	DB	0ffH
	DB	0ffH
	DB	0ffH
	DB	0ffH
	DB	0ffH
	DB	080H
	DB	0fH
	DB	0ffH
	DB	0ffH
	DB	0ffH
	DB	0ffH
	DB	0ffH
	DB	0ffH
	DB	080H
	DB	0fH
	DB	0ffH
	DB	0ffH
	DB	0ffH
	DB	0ffH
	DB	0ffH
	DB	0ffH
	DB	080H
	DB	0fH
	DB	0ffH
	DB	0ffH
	DB	0ffH
	DB	0ffH
	DB	0ffH
	DB	0ffH
	DB	080H
	DB	0fH
	DB	0ffH
	DB	0ffH
	DB	0ffH
	DB	0ffH
	DB	0ffH
	DB	0ffH
	DB	080H
	DB	0fH
	DB	0ffH
	DB	0ffH
	DB	0ffH
	DB	0ffH
	DB	0ffH
	DB	0ffH
	DB	080H
	DB	0fH
	DB	0ffH
	DB	0ffH
	DB	0ffH
	DB	0ffH
	DB	0ffH
	DB	0ffH
	DB	080H
	DB	0fH
	DB	0ffH
	DB	0ffH
	DB	0ffH
	DB	0ffH
	DB	0ffH
	DB	0ffH
	DB	080H
	DB	0fH
	DB	0ffH
	DB	0ffH
	DB	0ffH
	DB	0ffH
	DB	0ffH
	DB	0ffH
	DB	080H
	DB	0fH
	DB	0ffH
	DB	0ffH
	DB	0ffH
	DB	0ffH
	DB	0ffH
	DB	0ffH
	DB	080H
	DB	00H
	DB	00H
	DB	00H
	DB	00H
	DB	00H
	DB	00H
	DB	00H
	DB	00H
	DB	00H
	DB	00H
	DB	00H
	DB	00H
	DB	00H
	DB	00H
	DB	00H
	DB	00H
	DB	00H
	DB	00H
	DB	00H
	DB	00H
	DB	00H
	DB	00H
	DB	00H
	DB	00H
	DB	00H
	DB	00H
	DB	00H
	DB	00H
	DB	00H
	DB	00H
	DB	00H
	DB	00H
	DB	00H
	DB	00H
	DB	00H
	DB	00H
	DB	00H
	DB	00H
	DB	00H
	DB	00H
	DB	00H
	DB	00H
	DB	00H
	DB	00H
	DB	00H
	DB	00H
	DB	00H
	DB	00H
	DB	00H
	DB	00H
	DB	00H
	DB	00H
	DB	00H
	DB	00H
	DB	00H
	DB	00H
	DB	00H
	DB	00H
	DB	00H
	DB	00H
	DB	00H
	DB	00H
	DB	00H
	DB	00H
	DB	00H
	DB	00H
	DB	00H
	DB	00H
	DB	00H
	DB	00H
	DB	00H
	DB	00H
	DB	00H
	DB	00H
	DB	00H
	DB	00H
	DB	00H
	DB	00H
	DB	00H
	DB	00H
	DB	00H
	DB	00H
	DB	00H
	DB	00H
	DB	00H
	DB	00H
	DB	00H
	DB	00H
	DB	00H
	DB	00H
	DB	00H
	DB	00H
	DB	00H
	DB	00H
	DB	00H
	DB	00H
	DB	00H
	DB	00H
	DB	00H
	DB	00H
	DB	00H
	DB	00H
	DB	00H
	DB	00H
	DB	00H
	DB	00H
	DB	00H
	DB	00H
	DB	00H
	DB	00H
	DB	00H
	DB	00H
	DB	00H
	DB	00H
	DB	00H
	DB	00H
	DB	00H
	DB	00H
	DB	00H
	DB	00H
	DB	00H
	DB	00H
	DB	00H
	DB	00H
	DB	00H
	DB	00H
	DB	00H
	DB	00H
	DB	00H
	DB	00H
	DB	00H
	DB	00H
	DB	00H
	DB	00H
	DB	00H
	DB	00H
	DB	00H
	DB	00H
	DB	00H
	DB	00H
	DB	00H
	DB	00H
	DB	00H
	DB	00H
	DB	00H
	DB	00H
	DB	00H
	DB	00H
	DB	00H
	DB	00H
	DB	00H
	DB	00H
	DB	00H
	DB	00H
	DB	00H
	DB	00H
	DB	00H
	DB	00H
	DB	00H
	DB	00H
	DB	00H
	DB	00H
	DB	00H
	DB	00H
	DB	00H
	DB	00H
	DB	00H
	DB	00H
	DB	00H
	DB	00H
	DB	00H
	DB	00H
	DB	00H
	DB	00H
	DB	00H
	DB	00H
	DB	00H
	DB	00H
	DB	00H
	DB	00H
	DB	00H
	DB	00H
	DB	00H
	DB	00H
	DB	00H
	DB	00H
	DB	00H
	DB	00H
	DB	00H
	DB	00H
	DB	00H
	DB	00H
_acFontD80_DP DB 00H
	DB	00H
	DB	00H
	DB	00H
	DB	00H
	DB	00H
	DB	00H
	DB	00H
	DB	00H
	DB	00H
	DB	00H
	DB	00H
	DB	00H
	DB	00H
	DB	00H
	DB	00H
	DB	00H
	DB	00H
	DB	00H
	DB	00H
	DB	00H
	DB	00H
	DB	00H
	DB	00H
	DB	00H
	DB	00H
	DB	00H
	DB	00H
	DB	00H
	DB	00H
	DB	00H
	DB	00H
	DB	00H
	DB	00H
	DB	00H
	DB	00H
	DB	00H
	DB	00H
	DB	00H
	DB	00H
	DB	00H
	DB	00H
	DB	00H
	DB	00H
	DB	00H
	DB	00H
	DB	00H
	DB	00H
	DB	00H
	DB	00H
	DB	00H
	DB	00H
	DB	00H
	DB	00H
	DB	00H
	DB	00H
	DB	00H
	DB	00H
	DB	00H
	DB	00H
	DB	00H
	DB	00H
	DB	00H
	DB	00H
	DB	00H
	DB	00H
	DB	00H
	DB	00H
	DB	00H
	DB	00H
	DB	00H
	DB	00H
	DB	00H
	DB	00H
	DB	00H
	DB	00H
	DB	00H
	DB	00H
	DB	00H
	DB	00H
	DB	00H
	DB	00H
	DB	00H
	DB	00H
	DB	00H
	DB	00H
	DB	00H
	DB	00H
	DB	00H
	DB	00H
	DB	00H
	DB	00H
	DB	00H
	DB	00H
	DB	00H
	DB	00H
	DB	00H
	DB	00H
	DB	00H
	DB	00H
	DB	00H
	DB	00H
	DB	00H
	DB	00H
	DB	00H
	DB	00H
	DB	00H
	DB	00H
	DB	00H
	DB	00H
	DB	00H
	DB	00H
	DB	00H
	DB	00H
	DB	00H
	DB	00H
	DB	00H
	DB	00H
	DB	00H
	DB	00H
	DB	00H
	DB	00H
	DB	00H
	DB	00H
	DB	00H
	DB	00H
	DB	00H
	DB	00H
	DB	00H
	DB	00H
	DB	00H
	DB	00H
	DB	00H
	DB	00H
	DB	00H
	DB	00H
	DB	00H
	DB	00H
	DB	00H
	DB	00H
	DB	00H
	DB	00H
	DB	00H
	DB	00H
	DB	00H
	DB	00H
	DB	00H
	DB	00H
	DB	00H
	DB	00H
	DB	00H
	DB	00H
	DB	00H
	DB	00H
	DB	00H
	DB	00H
	DB	00H
	DB	00H
	DB	00H
	DB	00H
	DB	00H
	DB	00H
	DB	00H
	DB	00H
	DB	00H
	DB	00H
	DB	00H
	DB	00H
	DB	00H
	DB	00H
	DB	00H
	DB	00H
	DB	00H
	DB	00H
	DB	00H
	DB	00H
	DB	00H
	DB	00H
	DB	00H
	DB	00H
	DB	00H
	DB	00H
	DB	00H
	DB	00H
	DB	00H
	DB	00H
	DB	00H
	DB	00H
	DB	00H
	DB	00H
	DB	00H
	DB	00H
	DB	00H
	DB	00H
	DB	00H
	DB	00H
	DB	00H
	DB	00H
	DB	00H
	DB	00H
	DB	00H
	DB	00H
	DB	00H
	DB	00H
	DB	00H
	DB	00H
	DB	00H
	DB	00H
	DB	00H
	DB	00H
	DB	00H
	DB	00H
	DB	00H
	DB	00H
	DB	00H
	DB	00H
	DB	00H
	DB	00H
	DB	00H
	DB	00H
	DB	00H
	DB	00H
	DB	00H
	DB	00H
	DB	00H
	DB	00H
	DB	00H
	DB	00H
	DB	00H
	DB	00H
	DB	00H
	DB	00H
	DB	00H
	DB	00H
	DB	00H
	DB	00H
	DB	00H
	DB	00H
	DB	00H
	DB	00H
	DB	00H
	DB	00H
	DB	00H
	DB	00H
	DB	00H
	DB	00H
	DB	00H
	DB	00H
	DB	00H
	DB	00H
	DB	00H
	DB	00H
	DB	00H
	DB	00H
	DB	00H
	DB	00H
	DB	00H
	DB	0ffH
	DB	0feH
	DB	00H
	DB	00H
	DB	0ffH
	DB	0feH
	DB	00H
	DB	00H
	DB	0ffH
	DB	0feH
	DB	00H
	DB	00H
	DB	0ffH
	DB	0feH
	DB	00H
	DB	00H
	DB	0ffH
	DB	0feH
	DB	00H
	DB	00H
	DB	0ffH
	DB	0feH
	DB	00H
	DB	00H
	DB	0ffH
	DB	0feH
	DB	00H
	DB	00H
	DB	0ffH
	DB	0feH
	DB	00H
	DB	00H
	DB	0ffH
	DB	0feH
	DB	00H
	DB	00H
	DB	0ffH
	DB	0feH
	DB	00H
	DB	00H
	DB	0ffH
	DB	0feH
	DB	00H
	DB	00H
	DB	0ffH
	DB	0feH
	DB	00H
	DB	00H
	DB	0ffH
	DB	0feH
	DB	00H
	DB	00H
	DB	0ffH
	DB	0feH
	DB	00H
	DB	00H
	DB	0ffH
	DB	0feH
	DB	00H
	DB	00H
	DB	00H
	DB	00H
	DB	00H
_acFontD80 DB	00H
	DB	00H
	DB	00H
	DB	03fH
	DB	0e0H
	DB	00H
	DB	00H
	DB	00H
	DB	00H
	DB	00H
	DB	03H
	DB	0ffH
	DB	0feH
	DB	00H
	DB	00H
	DB	00H
	DB	00H
	DB	00H
	DB	01fH
	DB	0ffH
	DB	0ffH
	DB	080H
	DB	00H
	DB	00H
	DB	00H
	DB	00H
	DB	03fH
	DB	0ffH
	DB	0ffH
	DB	0e0H
	DB	00H
	DB	00H
	DB	00H
	DB	00H
	DB	0ffH
	DB	0ffH
	DB	0ffH
	DB	0f8H
	DB	00H
	DB	00H
	DB	00H
	DB	01H
	DB	0ffH
	DB	0ffH
	DB	0ffH
	DB	0fcH
	DB	00H
	DB	00H
	DB	00H
	DB	03H
	DB	0ffH
	DB	0ffH
	DB	0ffH
	DB	0feH
	DB	00H
	DB	00H
	DB	00H
	DB	07H
	DB	0ffH
	DB	0ffH
	DB	0ffH
	DB	0ffH
	DB	00H
	DB	00H
	DB	00H
	DB	0fH
	DB	0ffH
	DB	0ffH
	DB	0ffH
	DB	0ffH
	DB	080H
	DB	00H
	DB	00H
	DB	0fH
	DB	0ffH
	DB	0ffH
	DB	0ffH
	DB	0ffH
	DB	080H
	DB	00H
	DB	00H
	DB	01fH
	DB	0ffH
	DB	0e0H
	DB	03fH
	DB	0ffH
	DB	0c0H
	DB	00H
	DB	00H
	DB	03fH
	DB	0ffH
	DB	080H
	DB	0fH
	DB	0ffH
	DB	0e0H
	DB	00H
	DB	00H
	DB	03fH
	DB	0ffH
	DB	00H
	DB	07H
	DB	0ffH
	DB	0e0H
	DB	00H
	DB	00H
	DB	07fH
	DB	0feH
	DB	00H
	DB	03H
	DB	0ffH
	DB	0f0H
	DB	00H
	DB	00H
	DB	07fH
	DB	0fcH
	DB	00H
	DB	01H
	DB	0ffH
	DB	0f0H
	DB	00H
	DB	00H
	DB	0ffH
	DB	0f8H
	DB	00H
	DB	00H
	DB	0ffH
	DB	0f8H
	DB	00H
	DB	00H
	DB	0ffH
	DB	0f8H
	DB	00H
	DB	00H
	DB	0ffH
	DB	0f8H
	DB	00H
	DB	00H
	DB	0ffH
	DB	0f0H
	DB	00H
	DB	00H
	DB	07fH
	DB	0f8H
	DB	00H
	DB	01H
	DB	0ffH
	DB	0f0H
	DB	00H
	DB	00H
	DB	07fH
	DB	0fcH
	DB	00H
	DB	01H
	DB	0ffH
	DB	0e0H
	DB	00H
	DB	00H
	DB	03fH
	DB	0fcH
	DB	00H
	DB	01H
	DB	0ffH
	DB	0e0H
	DB	00H
	DB	00H
	DB	03fH
	DB	0fcH
	DB	00H
	DB	03H
	DB	0ffH
	DB	0e0H
	DB	00H
	DB	00H
	DB	03fH
	DB	0feH
	DB	00H
	DB	03H
	DB	0ffH
	DB	0e0H
	DB	00H
	DB	00H
	DB	03fH
	DB	0feH
	DB	00H
	DB	03H
	DB	0ffH
	DB	0c0H
	DB	00H
	DB	00H
	DB	01fH
	DB	0feH
	DB	00H
	DB	03H
	DB	0ffH
	DB	0c0H
	DB	00H
	DB	00H
	DB	01fH
	DB	0feH
	DB	00H
	DB	07H
	DB	0ffH
	DB	0c0H
	DB	00H
	DB	00H
	DB	01fH
	DB	0ffH
	DB	00H
	DB	07H
	DB	0ffH
	DB	0c0H
	DB	00H
	DB	00H
	DB	01fH
	DB	0ffH
	DB	00H
	DB	07H
	DB	0ffH
	DB	0c0H
	DB	00H
	DB	00H
	DB	01fH
	DB	0ffH
	DB	00H
	DB	07H
	DB	0ffH
	DB	080H
	DB	00H
	DB	00H
	DB	0fH
	DB	0ffH
	DB	00H
	DB	07H
	DB	0ffH
	DB	080H
	DB	00H
	DB	00H
	DB	0fH
	DB	0ffH
	DB	00H
	DB	07H
	DB	0ffH
	DB	080H
	DB	00H
	DB	00H
	DB	0fH
	DB	0ffH
	DB	00H
	DB	07H
	DB	0ffH
	DB	080H
	DB	00H
	DB	00H
	DB	0fH
	DB	0ffH
	DB	00H
	DB	0fH
	DB	0ffH
	DB	080H
	DB	00H
	DB	00H
	DB	0fH
	DB	0ffH
	DB	080H
	DB	0fH
	DB	0ffH
	DB	080H
	DB	00H
	DB	00H
	DB	0fH
	DB	0ffH
	DB	080H
	DB	0fH
	DB	0ffH
	DB	080H
	DB	00H
	DB	00H
	DB	0fH
	DB	0ffH
	DB	080H
	DB	0fH
	DB	0ffH
	DB	080H
	DB	00H
	DB	00H
	DB	0fH
	DB	0ffH
	DB	080H
	DB	0fH
	DB	0ffH
	DB	080H
	DB	00H
	DB	00H
	DB	0fH
	DB	0ffH
	DB	080H
	DB	0fH
	DB	0ffH
	DB	080H
	DB	00H
	DB	00H
	DB	0fH
	DB	0ffH
	DB	080H
	DB	0fH
	DB	0ffH
	DB	080H
	DB	00H
	DB	00H
	DB	0fH
	DB	0ffH
	DB	080H
	DB	0fH
	DB	0ffH
	DB	080H
	DB	00H
	DB	00H
	DB	0fH
	DB	0ffH
	DB	080H
	DB	0fH
	DB	0ffH
	DB	080H
	DB	00H
	DB	00H
	DB	0fH
	DB	0ffH
	DB	080H
	DB	0fH
	DB	0ffH
	DB	080H
	DB	00H
	DB	00H
	DB	0fH
	DB	0ffH
	DB	080H
	DB	0fH
	DB	0ffH
	DB	080H
	DB	00H
	DB	00H
	DB	0fH
	DB	0ffH
	DB	080H
	DB	0fH
	DB	0ffH
	DB	080H
	DB	00H
	DB	00H
	DB	0fH
	DB	0ffH
	DB	080H
	DB	0fH
	DB	0ffH
	DB	080H
	DB	00H
	DB	00H
	DB	0fH
	DB	0ffH
	DB	080H
	DB	0fH
	DB	0ffH
	DB	080H
	DB	00H
	DB	00H
	DB	0fH
	DB	0ffH
	DB	080H
	DB	0fH
	DB	0ffH
	DB	080H
	DB	00H
	DB	00H
	DB	0fH
	DB	0ffH
	DB	080H
	DB	0fH
	DB	0ffH
	DB	080H
	DB	00H
	DB	00H
	DB	0fH
	DB	0ffH
	DB	080H
	DB	07H
	DB	0ffH
	DB	080H
	DB	00H
	DB	00H
	DB	0fH
	DB	0ffH
	DB	00H
	DB	07H
	DB	0ffH
	DB	080H
	DB	00H
	DB	00H
	DB	0fH
	DB	0ffH
	DB	00H
	DB	07H
	DB	0ffH
	DB	080H
	DB	00H
	DB	00H
	DB	0fH
	DB	0ffH
	DB	00H
	DB	07H
	DB	0ffH
	DB	080H
	DB	00H
	DB	00H
	DB	0fH
	DB	0ffH
	DB	00H
	DB	07H
	DB	0ffH
	DB	0c0H
	DB	00H
	DB	00H
	DB	01fH
	DB	0ffH
	DB	00H
	DB	07H
	DB	0ffH
	DB	0c0H
	DB	00H
	DB	00H
	DB	01fH
	DB	0ffH
	DB	00H
	DB	07H
	DB	0ffH
	DB	0c0H
	DB	00H
	DB	00H
	DB	01fH
	DB	0ffH
	DB	00H
	DB	03H
	DB	0ffH
	DB	0c0H
	DB	00H
	DB	00H
	DB	01fH
	DB	0feH
	DB	00H
	DB	03H
	DB	0ffH
	DB	0c0H
	DB	00H
	DB	00H
	DB	01fH
	DB	0feH
	DB	00H
	DB	03H
	DB	0ffH
	DB	0e0H
	DB	00H
	DB	00H
	DB	03fH
	DB	0feH
	DB	00H
	DB	03H
	DB	0ffH
	DB	0e0H
	DB	00H
	DB	00H
	DB	03fH
	DB	0feH
	DB	00H
	DB	01H
	DB	0ffH
	DB	0e0H
	DB	00H
	DB	00H
	DB	03fH
	DB	0fcH
	DB	00H
	DB	01H
	DB	0ffH
	DB	0e0H
	DB	00H
	DB	00H
	DB	03fH
	DB	0fcH
	DB	00H
	DB	01H
	DB	0ffH
	DB	0f0H
	DB	00H
	DB	00H
	DB	07fH
	DB	0fcH
	DB	00H
	DB	00H
	DB	0ffH
	DB	0f0H
	DB	00H
	DB	00H
	DB	07fH
	DB	0f8H
	DB	00H
	DB	00H
	DB	0ffH
	DB	0f8H
	DB	00H
	DB	00H
	DB	0ffH
	DB	0f8H
	DB	00H
	DB	00H
	DB	0ffH
	DB	0f8H
	DB	00H
	DB	00H
	DB	0ffH
	DB	0f8H
	DB	00H
	DB	00H
	DB	07fH
	DB	0fcH
	DB	00H
	DB	01H
	DB	0ffH
	DB	0f0H
	DB	00H
	DB	00H
	DB	07fH
	DB	0feH
	DB	00H
	DB	03H
	DB	0ffH
	DB	0f0H
	DB	00H
	DB	00H
	DB	03fH
	DB	0ffH
	DB	00H
	DB	07H
	DB	0ffH
	DB	0e0H
	DB	00H
	DB	00H
	DB	03fH
	DB	0ffH
	DB	080H
	DB	0fH
	DB	0ffH
	DB	0e0H
	DB	00H
	DB	00H
	DB	01fH
	DB	0ffH
	DB	0e0H
	DB	03fH
	DB	0ffH
	DB	0c0H
	DB	00H
	DB	00H
	DB	0fH
	DB	0ffH
	DB	0ffH
	DB	0ffH
	DB	0ffH
	DB	080H
	DB	00H
	DB	00H
	DB	0fH
	DB	0ffH
	DB	0ffH
	DB	0ffH
	DB	0ffH
	DB	080H
	DB	00H
	DB	00H
	DB	07H
	DB	0ffH
	DB	0ffH
	DB	0ffH
	DB	0ffH
	DB	00H
	DB	00H
	DB	00H
	DB	03H
	DB	0ffH
	DB	0ffH
	DB	0ffH
	DB	0feH
	DB	00H
	DB	00H
	DB	00H
	DB	01H
	DB	0ffH
	DB	0ffH
	DB	0ffH
	DB	0fcH
	DB	00H
	DB	00H
	DB	00H
	DB	00H
	DB	0ffH
	DB	0ffH
	DB	0ffH
	DB	0f8H
	DB	00H
	DB	00H
	DB	00H
	DB	00H
	DB	03fH
	DB	0ffH
	DB	0ffH
	DB	0e0H
	DB	00H
	DB	00H
	DB	00H
	DB	00H
	DB	01fH
	DB	0ffH
	DB	0ffH
	DB	0c0H
	DB	00H
	DB	00H
	DB	00H
	DB	00H
	DB	03H
	DB	0ffH
	DB	0feH
	DB	00H
	DB	00H
	DB	00H
	DB	00H
	DB	00H
	DB	00H
	DB	03fH
	DB	0e0H
	DB	00H
	DB	00H
	DB	00H
	DB	00H
	DB	00H
	DB	00H
	DB	07H
	DB	0feH
	DB	00H
	DB	00H
	DB	00H
	DB	00H
	DB	00H
	DB	00H
	DB	07H
	DB	0feH
	DB	00H
	DB	00H
	DB	00H
	DB	00H
	DB	00H
	DB	00H
	DB	07H
	DB	0feH
	DB	00H
	DB	00H
	DB	00H
	DB	00H
	DB	00H
	DB	00H
	DB	0fH
	DB	0feH
	DB	00H
	DB	00H
	DB	00H
	DB	00H
	DB	00H
	DB	00H
	DB	0fH
	DB	0feH
	DB	00H
	DB	00H
	DB	00H
	DB	00H
	DB	00H
	DB	00H
	DB	01fH
	DB	0feH
	DB	00H
	DB	00H
	DB	00H
	DB	00H
	DB	00H
	DB	00H
	DB	01fH
	DB	0feH
	DB	00H
	DB	00H
	DB	00H
	DB	00H
	DB	00H
	DB	00H
	DB	03fH
	DB	0feH
	DB	00H
	DB	00H
	DB	00H
	DB	00H
	DB	00H
	DB	00H
	DB	07fH
	DB	0feH
	DB	00H
	DB	00H
	DB	00H
	DB	00H
	DB	00H
	DB	00H
	DB	0ffH
	DB	0feH
	DB	00H
	DB	00H
	DB	00H
	DB	00H
	DB	00H
	DB	01H
	DB	0ffH
	DB	0feH
	DB	00H
	DB	00H
	DB	00H
	DB	00H
	DB	00H
	DB	03H
	DB	0ffH
	DB	0feH
	DB	00H
	DB	00H
	DB	00H
	DB	00H
	DB	00H
	DB	0fH
	DB	0ffH
	DB	0feH
	DB	00H
	DB	00H
	DB	00H
	DB	00H
	DB	00H
	DB	07fH
	DB	0ffH
	DB	0feH
	DB	00H
	DB	00H
	DB	00H
	DB	00H
	DB	07H
	DB	0ffH
	DB	0ffH
	DB	0feH
	DB	00H
	DB	00H
	DB	00H
	DB	03H
	DB	0ffH
	DB	0ffH
	DB	0ffH
	DB	0feH
	DB	00H
	DB	00H
	DB	00H
	DB	03H
	DB	0ffH
	DB	0ffH
	DB	0ffH
	DB	0feH
	DB	00H
	DB	00H
	DB	00H
	DB	03H
	DB	0ffH
	DB	0ffH
	DB	0ffH
	DB	0feH
	DB	00H
	DB	00H
	DB	00H
	DB	03H
	DB	0ffH
	DB	0ffH
	DB	0ffH
	DB	0feH
	DB	00H
	DB	00H
	DB	00H
	DB	03H
	DB	0ffH
	DB	0ffH
	DB	0ffH
	DB	0feH
	DB	00H
	DB	00H
	DB	00H
	DB	03H
	DB	0ffH
	DB	0ffH
	DB	0ffH
	DB	0feH
	DB	00H
	DB	00H
	DB	00H
	DB	03H
	DB	0ffH
	DB	0ffH
	DB	0ffH
	DB	0feH
	DB	00H
	DB	00H
	DB	00H
	DB	03H
	DB	0ffH
	DB	0ffH
	DB	0ffH
	DB	0feH
	DB	00H
	DB	00H
	DB	00H
	DB	03H
	DB	0ffH
	DB	0ffH
	DB	0ffH
	DB	0feH
	DB	00H
	DB	00H
	DB	00H
	DB	03H
	DB	0ffH
	DB	0ffH
	DB	0ffH
	DB	0feH
	DB	00H
	DB	00H
	DB	00H
	DB	00H
	DB	00H
	DB	00H
	DB	07fH
	DB	0feH
	DB	00H
	DB	00H
	DB	00H
	DB	00H
	DB	00H
	DB	00H
	DB	07fH
	DB	0feH
	DB	00H
	DB	00H
	DB	00H
	DB	00H
	DB	00H
	DB	00H
	DB	07fH
	DB	0feH
	DB	00H
	DB	00H
	DB	00H
	DB	00H
	DB	00H
	DB	00H
	DB	07fH
	DB	0feH
	DB	00H
	DB	00H
	DB	00H
	DB	00H
	DB	00H
	DB	00H
	DB	07fH
	DB	0feH
	DB	00H
	DB	00H
	DB	00H
	DB	00H
	DB	00H
	DB	00H
	DB	07fH
	DB	0feH
	DB	00H
	DB	00H
	DB	00H
	DB	00H
	DB	00H
	DB	00H
	DB	07fH
	DB	0feH
	DB	00H
	DB	00H
	DB	00H
	DB	00H
	DB	00H
	DB	00H
	DB	07fH
	DB	0feH
	DB	00H
	DB	00H
	DB	00H
	DB	00H
	DB	00H
	DB	00H
	DB	07fH
	DB	0feH
	DB	00H
	DB	00H
	DB	00H
	DB	00H
	DB	00H
	DB	00H
	DB	07fH
	DB	0feH
	DB	00H
	DB	00H
	DB	00H
	DB	00H
	DB	00H
	DB	00H
	DB	07fH
	DB	0feH
	DB	00H
	DB	00H
	DB	00H
	DB	00H
	DB	00H
	DB	00H
	DB	07fH
	DB	0feH
	DB	00H
	DB	00H
	DB	00H
	DB	00H
	DB	00H
	DB	00H
	DB	07fH
	DB	0feH
	DB	00H
	DB	00H
	DB	00H
	DB	00H
	DB	00H
	DB	00H
	DB	07fH
	DB	0feH
	DB	00H
	DB	00H
	DB	00H
	DB	00H
	DB	00H
	DB	00H
	DB	07fH
	DB	0feH
	DB	00H
	DB	00H
	DB	00H
	DB	00H
	DB	00H
	DB	00H
	DB	07fH
	DB	0feH
	DB	00H
	DB	00H
	DB	00H
	DB	00H
	DB	00H
	DB	00H
	DB	07fH
	DB	0feH
	DB	00H
	DB	00H
	DB	00H
	DB	00H
	DB	00H
	DB	00H
	DB	07fH
	DB	0feH
	DB	00H
	DB	00H
	DB	00H
	DB	00H
	DB	00H
	DB	00H
	DB	07fH
	DB	0feH
	DB	00H
	DB	00H
	DB	00H
	DB	00H
	DB	00H
	DB	00H
	DB	07fH
	DB	0feH
	DB	00H
	DB	00H
	DB	00H
	DB	00H
	DB	00H
	DB	00H
	DB	07fH
	DB	0feH
	DB	00H
	DB	00H
	DB	00H
	DB	00H
	DB	00H
	DB	00H
	DB	07fH
	DB	0feH
	DB	00H
	DB	00H
	DB	00H
	DB	00H
	DB	00H
	DB	00H
	DB	07fH
	DB	0feH
	DB	00H
	DB	00H
	DB	00H
	DB	00H
	DB	00H
	DB	00H
	DB	07fH
	DB	0feH
	DB	00H
	DB	00H
	DB	00H
	DB	00H
	DB	00H
	DB	00H
	DB	07fH
	DB	0feH
	DB	00H
	DB	00H
	DB	00H
	DB	00H
	DB	00H
	DB	00H
	DB	07fH
	DB	0feH
	DB	00H
	DB	00H
	DB	00H
	DB	00H
	DB	00H
	DB	00H
	DB	07fH
	DB	0feH
	DB	00H
	DB	00H
	DB	00H
	DB	00H
	DB	00H
	DB	00H
	DB	07fH
	DB	0feH
	DB	00H
	DB	00H
	DB	00H
	DB	00H
	DB	00H
	DB	00H
	DB	07fH
	DB	0feH
	DB	00H
	DB	00H
	DB	00H
	DB	00H
	DB	00H
	DB	00H
	DB	07fH
	DB	0feH
	DB	00H
	DB	00H
	DB	00H
	DB	00H
	DB	00H
	DB	00H
	DB	07fH
	DB	0feH
	DB	00H
	DB	00H
	DB	00H
	DB	00H
	DB	00H
	DB	00H
	DB	07fH
	DB	0feH
	DB	00H
	DB	00H
	DB	00H
	DB	00H
	DB	00H
	DB	00H
	DB	07fH
	DB	0feH
	DB	00H
	DB	00H
	DB	00H
	DB	00H
	DB	00H
	DB	00H
	DB	07fH
	DB	0feH
	DB	00H
	DB	00H
	DB	00H
	DB	00H
	DB	00H
	DB	00H
	DB	07fH
	DB	0feH
	DB	00H
	DB	00H
	DB	00H
	DB	00H
	DB	00H
	DB	00H
	DB	07fH
	DB	0feH
	DB	00H
	DB	00H
	DB	00H
	DB	00H
	DB	00H
	DB	00H
	DB	07fH
	DB	0feH
	DB	00H
	DB	00H
	DB	00H
	DB	00H
	DB	00H
	DB	00H
	DB	07fH
	DB	0feH
	DB	00H
	DB	00H
	DB	00H
	DB	00H
	DB	00H
	DB	00H
	DB	07fH
	DB	0feH
	DB	00H
	DB	00H
	DB	00H
	DB	00H
	DB	00H
	DB	00H
	DB	07fH
	DB	0feH
	DB	00H
	DB	00H
	DB	00H
	DB	00H
	DB	00H
	DB	00H
	DB	07fH
	DB	0feH
	DB	00H
	DB	00H
	DB	00H
	DB	00H
	DB	00H
	DB	00H
	DB	07fH
	DB	0feH
	DB	00H
	DB	00H
	DB	00H
	DB	00H
	DB	00H
	DB	00H
	DB	07fH
	DB	0feH
	DB	00H
	DB	00H
	DB	00H
	DB	00H
	DB	00H
	DB	00H
	DB	07fH
	DB	0feH
	DB	00H
	DB	00H
	DB	00H
	DB	00H
	DB	00H
	DB	00H
	DB	07fH
	DB	0feH
	DB	00H
	DB	00H
	DB	00H
	DB	00H
	DB	00H
	DB	00H
	DB	07fH
	DB	0feH
	DB	00H
	DB	00H
	DB	00H
	DB	00H
	DB	00H
	DB	00H
	DB	07fH
	DB	0feH
	DB	00H
	DB	00H
	DB	00H
	DB	00H
	DB	00H
	DB	00H
	DB	07fH
	DB	0feH
	DB	00H
	DB	00H
	DB	00H
	DB	00H
	DB	00H
	DB	00H
	DB	07fH
	DB	0feH
	DB	00H
	DB	00H
	DB	00H
	DB	00H
	DB	00H
	DB	00H
	DB	07fH
	DB	0feH
	DB	00H
	DB	00H
	DB	00H
	DB	00H
	DB	00H
	DB	00H
	DB	07fH
	DB	0feH
	DB	00H
	DB	00H
	DB	00H
	DB	00H
	DB	00H
	DB	00H
	DB	07fH
	DB	0feH
	DB	00H
	DB	00H
	DB	00H
	DB	00H
	DB	00H
	DB	00H
	DB	07fH
	DB	0feH
	DB	00H
	DB	00H
	DB	00H
	DB	00H
	DB	00H
	DB	00H
	DB	07fH
	DB	0feH
	DB	00H
	DB	00H
	DB	00H
	DB	00H
	DB	00H
	DB	00H
	DB	07fH
	DB	0feH
	DB	00H
	DB	00H
	DB	00H
	DB	00H
	DB	00H
	DB	00H
	DB	01fH
	DB	0f8H
	DB	00H
	DB	00H
	DB	00H
	DB	00H
	DB	00H
	DB	01H
	DB	0ffH
	DB	0ffH
	DB	080H
	DB	00H
	DB	00H
	DB	00H
	DB	00H
	DB	0fH
	DB	0ffH
	DB	0ffH
	DB	0f0H
	DB	00H
	DB	00H
	DB	00H
	DB	00H
	DB	03fH
	DB	0ffH
	DB	0ffH
	DB	0fcH
	DB	00H
	DB	00H
	DB	00H
	DB	00H
	DB	0ffH
	DB	0ffH
	DB	0ffH
	DB	0ffH
	DB	00H
	DB	00H
	DB	00H
	DB	01H
	DB	0ffH
	DB	0ffH
	DB	0ffH
	DB	0ffH
	DB	080H
	DB	00H
	DB	00H
	DB	03H
	DB	0ffH
	DB	0ffH
	DB	0ffH
	DB	0ffH
	DB	0c0H
	DB	00H
	DB	00H
	DB	07H
	DB	0ffH
	DB	0ffH
	DB	0ffH
	DB	0ffH
	DB	0e0H
	DB	00H
	DB	00H
	DB	0fH
	DB	0ffH
	DB	0ffH
	DB	0ffH
	DB	0ffH
	DB	0f0H
	DB	00H
	DB	00H
	DB	01fH
	DB	0ffH
	DB	0ffH
	DB	0ffH
	DB	0ffH
	DB	0f8H
	DB	00H
	DB	00H
	DB	01fH
	DB	0ffH
	DB	0e0H
	DB	01fH
	DB	0ffH
	DB	0f8H
	DB	00H
	DB	00H
	DB	03fH
	DB	0ffH
	DB	080H
	DB	03H
	DB	0ffH
	DB	0fcH
	DB	00H
	DB	00H
	DB	07fH
	DB	0ffH
	DB	00H
	DB	01H
	DB	0ffH
	DB	0fcH
	DB	00H
	DB	00H
	DB	07fH
	DB	0fcH
	DB	00H
	DB	00H
	DB	07fH
	DB	0feH
	DB	00H
	DB	00H
	DB	0ffH
	DB	0fcH
	DB	00H
	DB	00H
	DB	07fH
	DB	0feH
	DB	00H
	DB	00H
	DB	0ffH
	DB	0f8H
	DB	00H
	DB	00H
	DB	03fH
	DB	0ffH
	DB	00H
	DB	01H
	DB	0ffH
	DB	0f0H
	DB	00H
	DB	00H
	DB	01fH
	DB	0ffH
	DB	00H
	DB	01H
	DB	0ffH
	DB	0f0H
	DB	00H
	DB	00H
	DB	01fH
	DB	0ffH
	DB	00H
	DB	01H
	DB	0ffH
	DB	0f0H
	DB	00H
	DB	00H
	DB	01fH
	DB	0ffH
	DB	00H
	DB	03H
	DB	0ffH
	DB	0e0H
	DB	00H
	DB	00H
	DB	0fH
	DB	0ffH
	DB	080H
	DB	03H
	DB	0ffH
	DB	0e0H
	DB	00H
	DB	00H
	DB	0fH
	DB	0ffH
	DB	080H
	DB	03H
	DB	0ffH
	DB	0e0H
	DB	00H
	DB	00H
	DB	0fH
	DB	0ffH
	DB	080H
	DB	03H
	DB	0ffH
	DB	0e0H
	DB	00H
	DB	00H
	DB	0fH
	DB	0ffH
	DB	080H
	DB	03H
	DB	0ffH
	DB	0c0H
	DB	00H
	DB	00H
	DB	0fH
	DB	0ffH
	DB	080H
	DB	03H
	DB	0ffH
	DB	0c0H
	DB	00H
	DB	00H
	DB	0fH
	DB	0ffH
	DB	080H
	DB	07H
	DB	0ffH
	DB	0c0H
	DB	00H
	DB	00H
	DB	0fH
	DB	0ffH
	DB	080H
	DB	07H
	DB	0ffH
	DB	0c0H
	DB	00H
	DB	00H
	DB	0fH
	DB	0ffH
	DB	080H
	DB	07H
	DB	0ffH
	DB	0c0H
	DB	00H
	DB	00H
	DB	0fH
	DB	0ffH
	DB	00H
	DB	07H
	DB	0ffH
	DB	0c0H
	DB	00H
	DB	00H
	DB	01fH
	DB	0ffH
	DB	00H
	DB	07H
	DB	0ffH
	DB	0c0H
	DB	00H
	DB	00H
	DB	01fH
	DB	0ffH
	DB	00H
	DB	00H
	DB	00H
	DB	00H
	DB	00H
	DB	00H
	DB	03fH
	DB	0ffH
	DB	00H
	DB	00H
	DB	00H
	DB	00H
	DB	00H
	DB	00H
	DB	03fH
	DB	0ffH
	DB	00H
	DB	00H
	DB	00H
	DB	00H
	DB	00H
	DB	00H
	DB	03fH
	DB	0feH
	DB	00H
	DB	00H
	DB	00H
	DB	00H
	DB	00H
	DB	00H
	DB	07fH
	DB	0feH
	DB	00H
	DB	00H
	DB	00H
	DB	00H
	DB	00H
	DB	00H
	DB	0ffH
	DB	0fcH
	DB	00H
	DB	00H
	DB	00H
	DB	00H
	DB	00H
	DB	01H
	DB	0ffH
	DB	0fcH
	DB	00H
	DB	00H
	DB	00H
	DB	00H
	DB	00H
	DB	03H
	DB	0ffH
	DB	0f8H
	DB	00H
	DB	00H
	DB	00H
	DB	00H
	DB	00H
	DB	07H
	DB	0ffH
	DB	0f0H
	DB	00H
	DB	00H
	DB	00H
	DB	00H
	DB	00H
	DB	0fH
	DB	0ffH
	DB	0f0H
	DB	00H
	DB	00H
	DB	00H
	DB	00H
	DB	00H
	DB	01fH
	DB	0ffH
	DB	0e0H
	DB	00H
	DB	00H
	DB	00H
	DB	00H
	DB	00H
	DB	03fH
	DB	0ffH
	DB	0c0H
	DB	00H
	DB	00H
	DB	00H
	DB	00H
	DB	00H
	DB	07fH
	DB	0ffH
	DB	080H
	DB	00H
	DB	00H
	DB	00H
	DB	00H
	DB	01H
	DB	0ffH
	DB	0ffH
	DB	00H
	DB	00H
	DB	00H
	DB	00H
	DB	00H
	DB	03H
	DB	0ffH
	DB	0feH
	DB	00H
	DB	00H
	DB	00H
	DB	00H
	DB	00H
	DB	0fH
	DB	0ffH
	DB	0fcH
	DB	00H
	DB	00H
	DB	00H
	DB	00H
	DB	00H
	DB	01fH
	DB	0ffH
	DB	0f8H
	DB	00H
	DB	00H
	DB	00H
	DB	00H
	DB	00H
	DB	07fH
	DB	0ffH
	DB	0f0H
	DB	00H
	DB	00H
	DB	00H
	DB	00H
	DB	00H
	DB	0ffH
	DB	0ffH
	DB	0e0H
	DB	00H
	DB	00H
	DB	00H
	DB	00H
	DB	01H
	DB	0ffH
	DB	0ffH
	DB	080H
	DB	00H
	DB	00H
	DB	00H
	DB	00H
	DB	07H
	DB	0ffH
	DB	0ffH
	DB	00H
	DB	00H
	DB	00H
	DB	00H
	DB	00H
	DB	0fH
	DB	0ffH
	DB	0feH
	DB	00H
	DB	00H
	DB	00H
	DB	00H
	DB	00H
	DB	03fH
	DB	0ffH
	DB	0f8H
	DB	00H
	DB	00H
	DB	00H
	DB	00H
	DB	00H
	DB	07fH
	DB	0ffH
	DB	0f0H
	DB	00H
	DB	00H
	DB	00H
	DB	00H
	DB	00H
	DB	0ffH
	DB	0ffH
	DB	0c0H
	DB	00H
	DB	00H
	DB	00H
	DB	00H
	DB	01H
	DB	0ffH
	DB	0ffH
	DB	080H
	DB	00H
	DB	00H
	DB	00H
	DB	00H
	DB	03H
	DB	0ffH
	DB	0feH
	DB	00H
	DB	00H
	DB	00H
	DB	00H
	DB	00H
	DB	07H
	DB	0ffH
	DB	0fcH
	DB	00H
	DB	00H
	DB	00H
	DB	00H
	DB	00H
	DB	0fH
	DB	0ffH
	DB	0f0H
	DB	00H
	DB	00H
	DB	00H
	DB	00H
	DB	00H
	DB	01fH
	DB	0ffH
	DB	0e0H
	DB	00H
	DB	00H
	DB	00H
	DB	00H
	DB	00H
	DB	03fH
	DB	0ffH
	DB	0c0H
	DB	00H
	DB	00H
	DB	00H
	DB	00H
	DB	00H
	DB	03fH
	DB	0ffH
	DB	080H
	DB	00H
	DB	00H
	DB	00H
	DB	00H
	DB	00H
	DB	07fH
	DB	0ffH
	DB	00H
	DB	00H
	DB	00H
	DB	00H
	DB	00H
	DB	00H
	DB	0ffH
	DB	0feH
	DB	00H
	DB	00H
	DB	00H
	DB	00H
	DB	00H
	DB	00H
	DB	0ffH
	DB	0fcH
	DB	00H
	DB	00H
	DB	00H
	DB	00H
	DB	00H
	DB	01H
	DB	0ffH
	DB	0f8H
	DB	00H
	DB	00H
	DB	00H
	DB	00H
	DB	00H
	DB	01H
	DB	0ffH
	DB	0f0H
	DB	00H
	DB	00H
	DB	00H
	DB	00H
	DB	00H
	DB	03H
	DB	0ffH
	DB	0f0H
	DB	00H
	DB	00H
	DB	00H
	DB	00H
	DB	00H
	DB	03H
	DB	0ffH
	DB	0e0H
	DB	00H
	DB	00H
	DB	00H
	DB	00H
	DB	00H
	DB	03H
	DB	0ffH
	DB	0e0H
	DB	00H
	DB	00H
	DB	00H
	DB	00H
	DB	00H
	DB	07H
	DB	0ffH
	DB	0ffH
	DB	0ffH
	DB	0ffH
	DB	0ffH
	DB	0ffH
	DB	080H
	DB	07H
	DB	0ffH
	DB	0ffH
	DB	0ffH
	DB	0ffH
	DB	0ffH
	DB	0ffH
	DB	080H
	DB	07H
	DB	0ffH
	DB	0ffH
	DB	0ffH
	DB	0ffH
	DB	0ffH
	DB	0ffH
	DB	080H
	DB	0fH
	DB	0ffH
	DB	0ffH
	DB	0ffH
	DB	0ffH
	DB	0ffH
	DB	0ffH
	DB	080H
	DB	0fH
	DB	0ffH
	DB	0ffH
	DB	0ffH
	DB	0ffH
	DB	0ffH
	DB	0ffH
	DB	080H
	DB	0fH
	DB	0ffH
	DB	0ffH
	DB	0ffH
	DB	0ffH
	DB	0ffH
	DB	0ffH
	DB	080H
	DB	0fH
	DB	0ffH
	DB	0ffH
	DB	0ffH
	DB	0ffH
	DB	0ffH
	DB	0ffH
	DB	080H
	DB	0fH
	DB	0ffH
	DB	0ffH
	DB	0ffH
	DB	0ffH
	DB	0ffH
	DB	0ffH
	DB	080H
	DB	0fH
	DB	0ffH
	DB	0ffH
	DB	0ffH
	DB	0ffH
	DB	0ffH
	DB	0ffH
	DB	080H
	DB	0fH
	DB	0ffH
	DB	0ffH
	DB	0ffH
	DB	0ffH
	DB	0ffH
	DB	0ffH
	DB	080H
	DB	0fH
	DB	0ffH
	DB	0ffH
	DB	0ffH
	DB	0ffH
	DB	0ffH
	DB	0ffH
	DB	080H
	DB	00H
	DB	00H
	DB	00H
	DB	03fH
	DB	0f0H
	DB	00H
	DB	00H
	DB	00H
	DB	00H
	DB	00H
	DB	03H
	DB	0ffH
	DB	0ffH
	DB	00H
	DB	00H
	DB	00H
	DB	00H
	DB	00H
	DB	01fH
	DB	0ffH
	DB	0ffH
	DB	0c0H
	DB	00H
	DB	00H
	DB	00H
	DB	00H
	DB	07fH
	DB	0ffH
	DB	0ffH
	DB	0f8H
	DB	00H
	DB	00H
	DB	00H
	DB	00H
	DB	0ffH
	DB	0ffH
	DB	0ffH
	DB	0fcH
	DB	00H
	DB	00H
	DB	00H
	DB	03H
	DB	0ffH
	DB	0ffH
	DB	0ffH
	DB	0ffH
	DB	00H
	DB	00H
	DB	00H
	DB	07H
	DB	0ffH
	DB	0ffH
	DB	0ffH
	DB	0ffH
	DB	080H
	DB	00H
	DB	00H
	DB	0fH
	DB	0ffH
	DB	0ffH
	DB	0ffH
	DB	0ffH
	DB	0c0H
	DB	00H
	DB	00H
	DB	01fH
	DB	0ffH
	DB	0ffH
	DB	0ffH
	DB	0ffH
	DB	0e0H
	DB	00H
	DB	00H
	DB	01fH
	DB	0ffH
	DB	0ffH
	DB	0ffH
	DB	0ffH
	DB	0e0H
	DB	00H
	DB	00H
	DB	03fH
	DB	0ffH
	DB	0e0H
	DB	03fH
	DB	0ffH
	DB	0f0H
	DB	00H
	DB	00H
	DB	07fH
	DB	0ffH
	DB	080H
	DB	07H
	DB	0ffH
	DB	0f8H
	DB	00H
	DB	00H
	DB	07fH
	DB	0feH
	DB	00H
	DB	03H
	DB	0ffH
	DB	0f8H
	DB	00H
	DB	00H
	DB	0ffH
	DB	0fcH
	DB	00H
	DB	01H
	DB	0ffH
	DB	0fcH
	DB	00H
	DB	00H
	DB	0ffH
	DB	0f8H
	DB	00H
	DB	00H
	DB	0ffH
	DB	0fcH
	DB	00H
	DB	01H
	DB	0ffH
	DB	0f0H
	DB	00H
	DB	00H
	DB	07fH
	DB	0fcH
	DB	00H
	DB	01H
	DB	0ffH
	DB	0f0H
	DB	00H
	DB	00H
	DB	07fH
	DB	0fcH
	DB	00H
	DB	01H
	DB	0ffH
	DB	0e0H
	DB	00H
	DB	00H
	DB	03fH
	DB	0feH
	DB	00H
	DB	03H
	DB	0ffH
	DB	0e0H
	DB	00H
	DB	00H
	DB	03fH
	DB	0feH
	DB	00H
	DB	03H
	DB	0ffH
	DB	0e0H
	DB	00H
	DB	00H
	DB	03fH
	DB	0feH
	DB	00H
	DB	03H
	DB	0ffH
	DB	0c0H
	DB	00H
	DB	00H
	DB	03fH
	DB	0feH
	DB	00H
	DB	03H
	DB	0ffH
	DB	0c0H
	DB	00H
	DB	00H
	DB	03fH
	DB	0feH
	DB	00H
	DB	03H
	DB	0ffH
	DB	0c0H
	DB	00H
	DB	00H
	DB	03fH
	DB	0feH
	DB	00H
	DB	07H
	DB	0ffH
	DB	0c0H
	DB	00H
	DB	00H
	DB	03fH
	DB	0feH
	DB	00H
	DB	07H
	DB	0ffH
	DB	0c0H
	DB	00H
	DB	00H
	DB	03fH
	DB	0fcH
	DB	00H
	DB	07H
	DB	0ffH
	DB	0c0H
	DB	00H
	DB	00H
	DB	07fH
	DB	0fcH
	DB	00H
	DB	00H
	DB	00H
	DB	00H
	DB	00H
	DB	00H
	DB	07fH
	DB	0fcH
	DB	00H
	DB	00H
	DB	00H
	DB	00H
	DB	00H
	DB	00H
	DB	07fH
	DB	0fcH
	DB	00H
	DB	00H
	DB	00H
	DB	00H
	DB	00H
	DB	00H
	DB	0ffH
	DB	0f8H
	DB	00H
	DB	00H
	DB	00H
	DB	00H
	DB	00H
	DB	01H
	DB	0ffH
	DB	0f8H
	DB	00H
	DB	00H
	DB	00H
	DB	00H
	DB	00H
	DB	03H
	DB	0ffH
	DB	0f0H
	DB	00H
	DB	00H
	DB	00H
	DB	00H
	DB	00H
	DB	07H
	DB	0ffH
	DB	0e0H
	DB	00H
	DB	00H
	DB	00H
	DB	00H
	DB	00H
	DB	01fH
	DB	0ffH
	DB	0e0H
	DB	00H
	DB	00H
	DB	00H
	DB	00H
	DB	00H
	DB	0ffH
	DB	0ffH
	DB	0c0H
	DB	00H
	DB	00H
	DB	00H
	DB	00H
	DB	07fH
	DB	0ffH
	DB	0ffH
	DB	00H
	DB	00H
	DB	00H
	DB	00H
	DB	00H
	DB	07fH
	DB	0ffH
	DB	0feH
	DB	00H
	DB	00H
	DB	00H
	DB	00H
	DB	00H
	DB	07fH
	DB	0ffH
	DB	0f8H
	DB	00H
	DB	00H
	DB	00H
	DB	00H
	DB	00H
	DB	07fH
	DB	0ffH
	DB	0f8H
	DB	00H
	DB	00H
	DB	00H
	DB	00H
	DB	00H
	DB	07fH
	DB	0ffH
	DB	0ffH
	DB	00H
	DB	00H
	DB	00H
	DB	00H
	DB	00H
	DB	07fH
	DB	0ffH
	DB	0ffH
	DB	0c0H
	DB	00H
	DB	00H
	DB	00H
	DB	00H
	DB	07fH
	DB	0ffH
	DB	0ffH
	DB	0e0H
	DB	00H
	DB	00H
	DB	00H
	DB	00H
	DB	07fH
	DB	0ffH
	DB	0ffH
	DB	0f0H
	DB	00H
	DB	00H
	DB	00H
	DB	00H
	DB	07fH
	DB	0ffH
	DB	0ffH
	DB	0f8H
	DB	00H
	DB	00H
	DB	00H
	DB	00H
	DB	00H
	DB	03fH
	DB	0ffH
	DB	0fcH
	DB	00H
	DB	00H
	DB	00H
	DB	00H
	DB	00H
	DB	03H
	DB	0ffH
	DB	0fcH
	DB	00H
	DB	00H
	DB	00H
	DB	00H
	DB	00H
	DB	00H
	DB	0ffH
	DB	0feH
	DB	00H
	DB	00H
	DB	00H
	DB	00H
	DB	00H
	DB	00H
	DB	07fH
	DB	0ffH
	DB	00H
	DB	00H
	DB	00H
	DB	00H
	DB	00H
	DB	00H
	DB	03fH
	DB	0ffH
	DB	00H
	DB	00H
	DB	00H
	DB	00H
	DB	00H
	DB	00H
	DB	01fH
	DB	0ffH
	DB	00H
	DB	00H
	DB	00H
	DB	00H
	DB	00H
	DB	00H
	DB	0fH
	DB	0ffH
	DB	080H
	DB	00H
	DB	00H
	DB	00H
	DB	00H
	DB	00H
	DB	0fH
	DB	0ffH
	DB	080H
	DB	00H
	DB	00H
	DB	00H
	DB	00H
	DB	00H
	DB	0fH
	DB	0ffH
	DB	080H
	DB	00H
	DB	00H
	DB	00H
	DB	00H
	DB	00H
	DB	07H
	DB	0ffH
	DB	080H
	DB	01fH
	DB	0ffH
	DB	00H
	DB	00H
	DB	00H
	DB	07H
	DB	0ffH
	DB	0c0H
	DB	01fH
	DB	0ffH
	DB	00H
	DB	00H
	DB	00H
	DB	07H
	DB	0ffH
	DB	0c0H
	DB	01fH
	DB	0ffH
	DB	00H
	DB	00H
	DB	00H
	DB	07H
	DB	0ffH
	DB	0c0H
	DB	01fH
	DB	0ffH
	DB	00H
	DB	00H
	DB	00H
	DB	07H
	DB	0ffH
	DB	0c0H
	DB	0fH
	DB	0ffH
	DB	00H
	DB	00H
	DB	00H
	DB	07H
	DB	0ffH
	DB	0c0H
	DB	0fH
	DB	0ffH
	DB	00H
	DB	00H
	DB	00H
	DB	07H
	DB	0ffH
	DB	0c0H
	DB	0fH
	DB	0ffH
	DB	00H
	DB	00H
	DB	00H
	DB	07H
	DB	0ffH
	DB	0c0H
	DB	0fH
	DB	0ffH
	DB	080H
	DB	00H
	DB	00H
	DB	07H
	DB	0ffH
	DB	080H
	DB	0fH
	DB	0ffH
	DB	080H
	DB	00H
	DB	00H
	DB	0fH
	DB	0ffH
	DB	080H
	DB	07H
	DB	0ffH
	DB	0c0H
	DB	00H
	DB	00H
	DB	0fH
	DB	0ffH
	DB	080H
	DB	07H
	DB	0ffH
	DB	0c0H
	DB	00H
	DB	00H
	DB	01fH
	DB	0ffH
	DB	080H
	DB	07H
	DB	0ffH
	DB	0e0H
	DB	00H
	DB	00H
	DB	01fH
	DB	0ffH
	DB	00H
	DB	03H
	DB	0ffH
	DB	0e0H
	DB	00H
	DB	00H
	DB	03fH
	DB	0ffH
	DB	00H
	DB	03H
	DB	0ffH
	DB	0f8H
	DB	00H
	DB	00H
	DB	07fH
	DB	0ffH
	DB	00H
	DB	03H
	DB	0ffH
	DB	0fcH
	DB	00H
	DB	01H
	DB	0ffH
	DB	0feH
	DB	00H
	DB	01H
	DB	0ffH
	DB	0feH
	DB	00H
	DB	03H
	DB	0ffH
	DB	0fcH
	DB	00H
	DB	00H
	DB	0ffH
	DB	0ffH
	DB	0c0H
	DB	01fH
	DB	0ffH
	DB	0fcH
	DB	00H
	DB	00H
	DB	0ffH
	DB	0ffH
	DB	0ffH
	DB	0ffH
	DB	0ffH
	DB	0f8H
	DB	00H
	DB	00H
	DB	07fH
	DB	0ffH
	DB	0ffH
	DB	0ffH
	DB	0ffH
	DB	0f0H
	DB	00H
	DB	00H
	DB	03fH
	DB	0ffH
	DB	0ffH
	DB	0ffH
	DB	0ffH
	DB	0e0H
	DB	00H
	DB	00H
	DB	01fH
	DB	0ffH
	DB	0ffH
	DB	0ffH
	DB	0ffH
	DB	0c0H
	DB	00H
	DB	00H
	DB	0fH
	DB	0ffH
	DB	0ffH
	DB	0ffH
	DB	0ffH
	DB	080H
	DB	00H
	DB	00H
	DB	03H
	DB	0ffH
	DB	0ffH
	DB	0ffH
	DB	0feH
	DB	00H
	DB	00H
	DB	00H
	DB	01H
	DB	0ffH
	DB	0ffH
	DB	0ffH
	DB	0fcH
	DB	00H
	DB	00H
	DB	00H
	DB	00H
	DB	07fH
	DB	0ffH
	DB	0ffH
	DB	0e0H
	DB	00H
	DB	00H
	DB	00H
	DB	00H
	DB	0fH
	DB	0ffH
	DB	0ffH
	DB	00H
	DB	00H
	DB	00H
	DB	00H
	DB	00H
	DB	00H
	DB	0ffH
	DB	0f0H
	DB	00H
	DB	00H
	DB	00H
	DB	00H
	DB	00H
	DB	00H
	DB	00H
	DB	07H
	DB	0ffH
	DB	00H
	DB	00H
	DB	00H
	DB	00H
	DB	00H
	DB	00H
	DB	0fH
	DB	0ffH
	DB	00H
	DB	00H
	DB	00H
	DB	00H
	DB	00H
	DB	00H
	DB	0fH
	DB	0ffH
	DB	00H
	DB	00H
	DB	00H
	DB	00H
	DB	00H
	DB	00H
	DB	01fH
	DB	0ffH
	DB	00H
	DB	00H
	DB	00H
	DB	00H
	DB	00H
	DB	00H
	DB	03fH
	DB	0ffH
	DB	00H
	DB	00H
	DB	00H
	DB	00H
	DB	00H
	DB	00H
	DB	03fH
	DB	0ffH
	DB	00H
	DB	00H
	DB	00H
	DB	00H
	DB	00H
	DB	00H
	DB	07fH
	DB	0ffH
	DB	00H
	DB	00H
	DB	00H
	DB	00H
	DB	00H
	DB	00H
	DB	0ffH
	DB	0ffH
	DB	00H
	DB	00H
	DB	00H
	DB	00H
	DB	00H
	DB	01H
	DB	0ffH
	DB	0ffH
	DB	00H
	DB	00H
	DB	00H
	DB	00H
	DB	00H
	DB	01H
	DB	0ffH
	DB	0ffH
	DB	00H
	DB	00H
	DB	00H
	DB	00H
	DB	00H
	DB	03H
	DB	0ffH
	DB	0ffH
	DB	00H
	DB	00H
	DB	00H
	DB	00H
	DB	00H
	DB	07H
	DB	0ffH
	DB	0ffH
	DB	00H
	DB	00H
	DB	00H
	DB	00H
	DB	00H
	DB	07H
	DB	0ffH
	DB	0ffH
	DB	00H
	DB	00H
	DB	00H
	DB	00H
	DB	00H
	DB	0fH
	DB	0ffH
	DB	0ffH
	DB	00H
	DB	00H
	DB	00H
	DB	00H
	DB	00H
	DB	01fH
	DB	0ffH
	DB	0ffH
	DB	00H
	DB	00H
	DB	00H
	DB	00H
	DB	00H
	DB	01fH
	DB	0ffH
	DB	0ffH
	DB	00H
	DB	00H
	DB	00H
	DB	00H
	DB	00H
	DB	03fH
	DB	0ffH
	DB	0ffH
	DB	00H
	DB	00H
	DB	00H
	DB	00H
	DB	00H
	DB	07fH
	DB	0ffH
	DB	0ffH
	DB	00H
	DB	00H
	DB	00H
	DB	00H
	DB	00H
	DB	0ffH
	DB	0efH
	DB	0ffH
	DB	00H
	DB	00H
	DB	00H
	DB	00H
	DB	00H
	DB	0ffH
	DB	0cfH
	DB	0ffH
	DB	00H
	DB	00H
	DB	00H
	DB	00H
	DB	01H
	DB	0ffH
	DB	0cfH
	DB	0ffH
	DB	00H
	DB	00H
	DB	00H
	DB	00H
	DB	03H
	DB	0ffH
	DB	08fH
	DB	0ffH
	DB	00H
	DB	00H
	DB	00H
	DB	00H
	DB	03H
	DB	0ffH
	DB	0fH
	DB	0ffH
	DB	00H
	DB	00H
	DB	00H
	DB	00H
	DB	07H
	DB	0feH
	DB	0fH
	DB	0ffH
	DB	00H
	DB	00H
	DB	00H
	DB	00H
	DB	0fH
	DB	0feH
	DB	0fH
	DB	0ffH
	DB	00H
	DB	00H
	DB	00H
	DB	00H
	DB	01fH
	DB	0fcH
	DB	0fH
	DB	0ffH
	DB	00H
	DB	00H
	DB	00H
	DB	00H
	DB	01fH
	DB	0f8H
	DB	0fH
	DB	0ffH
	DB	00H
	DB	00H
	DB	00H
	DB	00H
	DB	03fH
	DB	0f8H
	DB	0fH
	DB	0ffH
	DB	00H
	DB	00H
	DB	00H
	DB	00H
	DB	07fH
	DB	0f0H
	DB	0fH
	DB	0ffH
	DB	00H
	DB	00H
	DB	00H
	DB	00H
	DB	07fH
	DB	0e0H
	DB	0fH
	DB	0ffH
	DB	00H
	DB	00H
	DB	00H
	DB	00H
	DB	0ffH
	DB	0e0H
	DB	0fH
	DB	0ffH
	DB	00H
	DB	00H
	DB	00H
	DB	01H
	DB	0ffH
	DB	0c0H
	DB	0fH
	DB	0ffH
	DB	00H
	DB	00H
	DB	00H
	DB	03H
	DB	0ffH
	DB	080H
	DB	0fH
	DB	0ffH
	DB	00H
	DB	00H
	DB	00H
	DB	03H
	DB	0ffH
	DB	080H
	DB	0fH
	DB	0ffH
	DB	00H
	DB	00H
	DB	00H
	DB	07H
	DB	0ffH
	DB	00H
	DB	0fH
	DB	0ffH
	DB	00H
	DB	00H
	DB	00H
	DB	0fH
	DB	0feH
	DB	00H
	DB	0fH
	DB	0ffH
	DB	00H
	DB	00H
	DB	00H
	DB	0fH
	DB	0feH
	DB	00H
	DB	0fH
	DB	0ffH
	DB	00H
	DB	00H
	DB	00H
	DB	01fH
	DB	0fcH
	DB	00H
	DB	0fH
	DB	0ffH
	DB	00H
	DB	00H
	DB	00H
	DB	03fH
	DB	0f8H
	DB	00H
	DB	0fH
	DB	0ffH
	DB	00H
	DB	00H
	DB	00H
	DB	07fH
	DB	0f8H
	DB	00H
	DB	0fH
	DB	0ffH
	DB	00H
	DB	00H
	DB	00H
	DB	07fH
	DB	0f0H
	DB	00H
	DB	0fH
	DB	0ffH
	DB	00H
	DB	00H
	DB	00H
	DB	0ffH
	DB	0e0H
	DB	00H
	DB	0fH
	DB	0ffH
	DB	00H
	DB	00H
	DB	01H
	DB	0ffH
	DB	0e0H
	DB	00H
	DB	0fH
	DB	0ffH
	DB	00H
	DB	00H
	DB	01H
	DB	0ffH
	DB	0c0H
	DB	00H
	DB	0fH
	DB	0ffH
	DB	00H
	DB	00H
	DB	03H
	DB	0ffH
	DB	080H
	DB	00H
	DB	0fH
	DB	0ffH
	DB	00H
	DB	00H
	DB	07H
	DB	0ffH
	DB	080H
	DB	00H
	DB	0fH
	DB	0ffH
	DB	00H
	DB	00H
	DB	07H
	DB	0ffH
	DB	00H
	DB	00H
	DB	0fH
	DB	0ffH
	DB	00H
	DB	00H
	DB	0fH
	DB	0feH
	DB	00H
	DB	00H
	DB	0fH
	DB	0ffH
	DB	00H
	DB	00H
	DB	01fH
	DB	0fcH
	DB	00H
	DB	00H
	DB	0fH
	DB	0ffH
	DB	00H
	DB	00H
	DB	01fH
	DB	0fcH
	DB	00H
	DB	00H
	DB	0fH
	DB	0ffH
	DB	00H
	DB	00H
	DB	01fH
	DB	0f8H
	DB	00H
	DB	00H
	DB	0fH
	DB	0ffH
	DB	00H
	DB	00H
	DB	01fH
	DB	0ffH
	DB	0ffH
	DB	0ffH
	DB	0ffH
	DB	0ffH
	DB	0ffH
	DB	0c0H
	DB	01fH
	DB	0ffH
	DB	0ffH
	DB	0ffH
	DB	0ffH
	DB	0ffH
	DB	0ffH
	DB	0c0H
	DB	01fH
	DB	0ffH
	DB	0ffH
	DB	0ffH
	DB	0ffH
	DB	0ffH
	DB	0ffH
	DB	0c0H
	DB	01fH
	DB	0ffH
	DB	0ffH
	DB	0ffH
	DB	0ffH
	DB	0ffH
	DB	0ffH
	DB	0c0H
	DB	01fH
	DB	0ffH
	DB	0ffH
	DB	0ffH
	DB	0ffH
	DB	0ffH
	DB	0ffH
	DB	0c0H
	DB	01fH
	DB	0ffH
	DB	0ffH
	DB	0ffH
	DB	0ffH
	DB	0ffH
	DB	0ffH
	DB	0c0H
	DB	01fH
	DB	0ffH
	DB	0ffH
	DB	0ffH
	DB	0ffH
	DB	0ffH
	DB	0ffH
	DB	0c0H
	DB	01fH
	DB	0ffH
	DB	0ffH
	DB	0ffH
	DB	0ffH
	DB	0ffH
	DB	0ffH
	DB	0c0H
	DB	01fH
	DB	0ffH
	DB	0ffH
	DB	0ffH
	DB	0ffH
	DB	0ffH
	DB	0ffH
	DB	0c0H
	DB	01fH
	DB	0ffH
	DB	0ffH
	DB	0ffH
	DB	0ffH
	DB	0ffH
	DB	0ffH
	DB	0c0H
	DB	00H
	DB	00H
	DB	00H
	DB	00H
	DB	0fH
	DB	0ffH
	DB	00H
	DB	00H
	DB	00H
	DB	00H
	DB	00H
	DB	00H
	DB	0fH
	DB	0ffH
	DB	00H
	DB	00H
	DB	00H
	DB	00H
	DB	00H
	DB	00H
	DB	0fH
	DB	0ffH
	DB	00H
	DB	00H
	DB	00H
	DB	00H
	DB	00H
	DB	00H
	DB	0fH
	DB	0ffH
	DB	00H
	DB	00H
	DB	00H
	DB	00H
	DB	00H
	DB	00H
	DB	0fH
	DB	0ffH
	DB	00H
	DB	00H
	DB	00H
	DB	00H
	DB	00H
	DB	00H
	DB	0fH
	DB	0ffH
	DB	00H
	DB	00H
	DB	00H
	DB	00H
	DB	00H
	DB	00H
	DB	0fH
	DB	0ffH
	DB	00H
	DB	00H
	DB	00H
	DB	00H
	DB	00H
	DB	00H
	DB	0fH
	DB	0ffH
	DB	00H
	DB	00H
	DB	00H
	DB	00H
	DB	00H
	DB	00H
	DB	0fH
	DB	0ffH
	DB	00H
	DB	00H
	DB	00H
	DB	00H
	DB	00H
	DB	00H
	DB	0fH
	DB	0ffH
	DB	00H
	DB	00H
	DB	00H
	DB	00H
	DB	00H
	DB	00H
	DB	0fH
	DB	0ffH
	DB	00H
	DB	00H
	DB	00H
	DB	00H
	DB	00H
	DB	00H
	DB	0fH
	DB	0ffH
	DB	00H
	DB	00H
	DB	00H
	DB	00H
	DB	00H
	DB	00H
	DB	0fH
	DB	0ffH
	DB	00H
	DB	00H
	DB	00H
	DB	00H
	DB	00H
	DB	00H
	DB	0fH
	DB	0ffH
	DB	00H
	DB	00H
	DB	00H
	DB	00H
	DB	00H
	DB	00H
	DB	0fH
	DB	0ffH
	DB	00H
	DB	00H
	DB	00H
	DB	00H
	DB	00H
	DB	00H
	DB	0fH
	DB	0ffH
	DB	00H
	DB	00H
	DB	00H
	DB	00H
	DB	00H
	DB	00H
	DB	0fH
	DB	0ffH
	DB	00H
	DB	00H
	DB	00H
	DB	00H
	DB	00H
	DB	00H
	DB	0fH
	DB	0ffH
	DB	00H
	DB	00H
	DB	00H
	DB	00H
	DB	00H
	DB	00H
	DB	0fH
	DB	0ffH
	DB	00H
	DB	00H
	DB	00H
	DB	03H
	DB	0ffH
	DB	0ffH
	DB	0ffH
	DB	0ffH
	DB	0fcH
	DB	00H
	DB	00H
	DB	03H
	DB	0ffH
	DB	0ffH
	DB	0ffH
	DB	0ffH
	DB	0fcH
	DB	00H
	DB	00H
	DB	03H
	DB	0ffH
	DB	0ffH
	DB	0ffH
	DB	0ffH
	DB	0fcH
	DB	00H
	DB	00H
	DB	03H
	DB	0ffH
	DB	0ffH
	DB	0ffH
	DB	0ffH
	DB	0fcH
	DB	00H
	DB	00H
	DB	07H
	DB	0ffH
	DB	0ffH
	DB	0ffH
	DB	0ffH
	DB	0fcH
	DB	00H
	DB	00H
	DB	07H
	DB	0ffH
	DB	0ffH
	DB	0ffH
	DB	0ffH
	DB	0fcH
	DB	00H
	DB	00H
	DB	07H
	DB	0ffH
	DB	0ffH
	DB	0ffH
	DB	0ffH
	DB	0fcH
	DB	00H
	DB	00H
	DB	07H
	DB	0ffH
	DB	0ffH
	DB	0ffH
	DB	0ffH
	DB	0fcH
	DB	00H
	DB	00H
	DB	07H
	DB	0ffH
	DB	0ffH
	DB	0ffH
	DB	0ffH
	DB	0fcH
	DB	00H
	DB	00H
	DB	0fH
	DB	0ffH
	DB	0ffH
	DB	0ffH
	DB	0ffH
	DB	0fcH
	DB	00H
	DB	00H
	DB	0fH
	DB	0ffH
	DB	0ffH
	DB	0ffH
	DB	0ffH
	DB	0fcH
	DB	00H
	DB	00H
	DB	0fH
	DB	0ffH
	DB	00H
	DB	00H
	DB	00H
	DB	00H
	DB	00H
	DB	00H
	DB	0fH
	DB	0feH
	DB	00H
	DB	00H
	DB	00H
	DB	00H
	DB	00H
	DB	00H
	DB	0fH
	DB	0feH
	DB	00H
	DB	00H
	DB	00H
	DB	00H
	DB	00H
	DB	00H
	DB	01fH
	DB	0feH
	DB	00H
	DB	00H
	DB	00H
	DB	00H
	DB	00H
	DB	00H
	DB	01fH
	DB	0feH
	DB	00H
	DB	00H
	DB	00H
	DB	00H
	DB	00H
	DB	00H
	DB	01fH
	DB	0feH
	DB	00H
	DB	00H
	DB	00H
	DB	00H
	DB	00H
	DB	00H
	DB	01fH
	DB	0fcH
	DB	00H
	DB	00H
	DB	00H
	DB	00H
	DB	00H
	DB	00H
	DB	01fH
	DB	0fcH
	DB	00H
	DB	00H
	DB	00H
	DB	00H
	DB	00H
	DB	00H
	DB	03fH
	DB	0fcH
	DB	00H
	DB	00H
	DB	00H
	DB	00H
	DB	00H
	DB	00H
	DB	03fH
	DB	0fcH
	DB	00H
	DB	00H
	DB	00H
	DB	00H
	DB	00H
	DB	00H
	DB	03fH
	DB	0f8H
	DB	00H
	DB	00H
	DB	00H
	DB	00H
	DB	00H
	DB	00H
	DB	03fH
	DB	0f8H
	DB	00H
	DB	00H
	DB	00H
	DB	00H
	DB	00H
	DB	00H
	DB	03fH
	DB	0f8H
	DB	00H
	DB	00H
	DB	00H
	DB	00H
	DB	00H
	DB	00H
	DB	07fH
	DB	0f8H
	DB	00H
	DB	00H
	DB	00H
	DB	00H
	DB	00H
	DB	00H
	DB	07fH
	DB	0f8H
	DB	00H
	DB	00H
	DB	00H
	DB	00H
	DB	00H
	DB	00H
	DB	07fH
	DB	0f0H
	DB	03H
	DB	0fcH
	DB	00H
	DB	00H
	DB	00H
	DB	00H
	DB	07fH
	DB	0f0H
	DB	03fH
	DB	0ffH
	DB	0c0H
	DB	00H
	DB	00H
	DB	00H
	DB	07fH
	DB	0f0H
	DB	0ffH
	DB	0ffH
	DB	0f8H
	DB	00H
	DB	00H
	DB	00H
	DB	0ffH
	DB	0f3H
	DB	0ffH
	DB	0ffH
	DB	0fcH
	DB	00H
	DB	00H
	DB	00H
	DB	0ffH
	DB	0f7H
	DB	0ffH
	DB	0ffH
	DB	0ffH
	DB	00H
	DB	00H
	DB	00H
	DB	0ffH
	DB	0efH
	DB	0ffH
	DB	0ffH
	DB	0ffH
	DB	080H
	DB	00H
	DB	00H
	DB	0ffH
	DB	0ffH
	DB	0ffH
	DB	0ffH
	DB	0ffH
	DB	0c0H
	DB	00H
	DB	00H
	DB	0ffH
	DB	0ffH
	DB	0ffH
	DB	0ffH
	DB	0ffH
	DB	0e0H
	DB	00H
	DB	01H
	DB	0ffH
	DB	0ffH
	DB	0ffH
	DB	0ffH
	DB	0ffH
	DB	0f0H
	DB	00H
	DB	01H
	DB	0ffH
	DB	0ffH
	DB	0ffH
	DB	0ffH
	DB	0ffH
	DB	0f8H
	DB	00H
	DB	01H
	DB	0ffH
	DB	0ffH
	DB	0c0H
	DB	01fH
	DB	0ffH
	DB	0fcH
	DB	00H
	DB	01H
	DB	0ffH
	DB	0feH
	DB	00H
	DB	07H
	DB	0ffH
	DB	0fcH
	DB	00H
	DB	01H
	DB	0ffH
	DB	0fcH
	DB	00H
	DB	01H
	DB	0ffH
	DB	0feH
	DB	00H
	DB	03H
	DB	0ffH
	DB	0f8H
	DB	00H
	DB	00H
	DB	0ffH
	DB	0feH
	DB	00H
	DB	03H
	DB	0ffH
	DB	0f0H
	DB	00H
	DB	00H
	DB	07fH
	DB	0ffH
	DB	00H
	DB	03H
	DB	0ffH
	DB	0e0H
	DB	00H
	DB	00H
	DB	03fH
	DB	0ffH
	DB	00H
	DB	03H
	DB	0ffH
	DB	0e0H
	DB	00H
	DB	00H
	DB	01fH
	DB	0ffH
	DB	00H
	DB	00H
	DB	00H
	DB	00H
	DB	00H
	DB	00H
	DB	01fH
	DB	0ffH
	DB	080H
	DB	00H
	DB	00H
	DB	00H
	DB	00H
	DB	00H
	DB	0fH
	DB	0ffH
	DB	080H
	DB	00H
	DB	00H
	DB	00H
	DB	00H
	DB	00H
	DB	0fH
	DB	0ffH
	DB	080H
	DB	00H
	DB	00H
	DB	00H
	DB	00H
	DB	00H
	DB	0fH
	DB	0ffH
	DB	080H
	DB	00H
	DB	00H
	DB	00H
	DB	00H
	DB	00H
	DB	07H
	DB	0ffH
	DB	080H
	DB	00H
	DB	00H
	DB	00H
	DB	00H
	DB	00H
	DB	07H
	DB	0ffH
	DB	0c0H
	DB	00H
	DB	00H
	DB	00H
	DB	00H
	DB	00H
	DB	07H
	DB	0ffH
	DB	0c0H
	DB	00H
	DB	00H
	DB	00H
	DB	00H
	DB	00H
	DB	07H
	DB	0ffH
	DB	0c0H
	DB	00H
	DB	00H
	DB	00H
	DB	00H
	DB	00H
	DB	07H
	DB	0ffH
	DB	0c0H
	DB	00H
	DB	00H
	DB	00H
	DB	00H
	DB	00H
	DB	07H
	DB	0ffH
	DB	0c0H
	DB	00H
	DB	00H
	DB	00H
	DB	00H
	DB	00H
	DB	07H
	DB	0ffH
	DB	0c0H
	DB	00H
	DB	00H
	DB	00H
	DB	00H
	DB	00H
	DB	07H
	DB	0ffH
	DB	0c0H
	DB	00H
	DB	00H
	DB	00H
	DB	00H
	DB	00H
	DB	07H
	DB	0ffH
	DB	0c0H
	DB	00H
	DB	00H
	DB	00H
	DB	00H
	DB	00H
	DB	07H
	DB	0ffH
	DB	0c0H
	DB	0fH
	DB	0ffH
	DB	080H
	DB	00H
	DB	00H
	DB	07H
	DB	0ffH
	DB	080H
	DB	0fH
	DB	0ffH
	DB	080H
	DB	00H
	DB	00H
	DB	07H
	DB	0ffH
	DB	080H
	DB	07H
	DB	0ffH
	DB	080H
	DB	00H
	DB	00H
	DB	0fH
	DB	0ffH
	DB	080H
	DB	07H
	DB	0ffH
	DB	0c0H
	DB	00H
	DB	00H
	DB	0fH
	DB	0ffH
	DB	080H
	DB	07H
	DB	0ffH
	DB	0c0H
	DB	00H
	DB	00H
	DB	0fH
	DB	0ffH
	DB	00H
	DB	07H
	DB	0ffH
	DB	0c0H
	DB	00H
	DB	00H
	DB	01fH
	DB	0ffH
	DB	00H
	DB	07H
	DB	0ffH
	DB	0e0H
	DB	00H
	DB	00H
	DB	01fH
	DB	0ffH
	DB	00H
	DB	03H
	DB	0ffH
	DB	0e0H
	DB	00H
	DB	00H
	DB	03fH
	DB	0feH
	DB	00H
	DB	03H
	DB	0ffH
	DB	0f0H
	DB	00H
	DB	00H
	DB	03fH
	DB	0feH
	DB	00H
	DB	03H
	DB	0ffH
	DB	0f8H
	DB	00H
	DB	00H
	DB	07fH
	DB	0fcH
	DB	00H
	DB	01H
	DB	0ffH
	DB	0fcH
	DB	00H
	DB	01H
	DB	0ffH
	DB	0fcH
	DB	00H
	DB	00H
	DB	0ffH
	DB	0ffH
	DB	00H
	DB	03H
	DB	0ffH
	DB	0f8H
	DB	00H
	DB	00H
	DB	0ffH
	DB	0ffH
	DB	0e0H
	DB	01fH
	DB	0ffH
	DB	0f8H
	DB	00H
	DB	00H
	DB	07fH
	DB	0ffH
	DB	0ffH
	DB	0ffH
	DB	0ffH
	DB	0f0H
	DB	00H
	DB	00H
	DB	03fH
	DB	0ffH
	DB	0ffH
	DB	0ffH
	DB	0ffH
	DB	0e0H
	DB	00H
	DB	00H
	DB	01fH
	DB	0ffH
	DB	0ffH
	DB	0ffH
	DB	0ffH
	DB	0c0H
	DB	00H
	DB	00H
	DB	0fH
	DB	0ffH
	DB	0ffH
	DB	0ffH
	DB	0ffH
	DB	080H
	DB	00H
	DB	00H
	DB	07H
	DB	0ffH
	DB	0ffH
	DB	0ffH
	DB	0ffH
	DB	00H
	DB	00H
	DB	00H
	DB	03H
	DB	0ffH
	DB	0ffH
	DB	0ffH
	DB	0fcH
	DB	00H
	DB	00H
	DB	00H
	DB	00H
	DB	0ffH
	DB	0ffH
	DB	0ffH
	DB	0f8H
	DB	00H
	DB	00H
	DB	00H
	DB	00H
	DB	03fH
	DB	0ffH
	DB	0ffH
	DB	0e0H
	DB	00H
	DB	00H
	DB	00H
	DB	00H
	DB	07H
	DB	0ffH
	DB	0ffH
	DB	00H
	DB	00H
	DB	00H
	DB	00H
	DB	00H
	DB	00H
	DB	07fH
	DB	0f0H
	DB	00H
	DB	00H
	DB	00H
	DB	00H
	DB	00H
	DB	00H
	DB	0fH
	DB	0f8H
	DB	00H
	DB	00H
	DB	00H
	DB	00H
	DB	00H
	DB	00H
	DB	0ffH
	DB	0ffH
	DB	080H
	DB	00H
	DB	00H
	DB	00H
	DB	00H
	DB	07H
	DB	0ffH
	DB	0ffH
	DB	0e0H
	DB	00H
	DB	00H
	DB	00H
	DB	00H
	DB	0fH
	DB	0ffH
	DB	0ffH
	DB	0f8H
	DB	00H
	DB	00H
	DB	00H
	DB	00H
	DB	03fH
	DB	0ffH
	DB	0ffH
	DB	0feH
	DB	00H
	DB	00H
	DB	00H
	DB	00H
	DB	07fH
	DB	0ffH
	DB	0ffH
	DB	0ffH
	DB	00H
	DB	00H
	DB	00H
	DB	00H
	DB	0ffH
	DB	0ffH
	DB	0ffH
	DB	0ffH
	DB	080H
	DB	00H
	DB	00H
	DB	01H
	DB	0ffH
	DB	0ffH
	DB	0ffH
	DB	0ffH
	DB	0c0H
	DB	00H
	DB	00H
	DB	03H
	DB	0ffH
	DB	0ffH
	DB	0ffH
	DB	0ffH
	DB	0e0H
	DB	00H
	DB	00H
	DB	07H
	DB	0ffH
	DB	0ffH
	DB	0ffH
	DB	0ffH
	DB	0f0H
	DB	00H
	DB	00H
	DB	0fH
	DB	0ffH
	DB	0f8H
	DB	0fH
	DB	0ffH
	DB	0f8H
	DB	00H
	DB	00H
	DB	01fH
	DB	0ffH
	DB	0c0H
	DB	03H
	DB	0ffH
	DB	0f8H
	DB	00H
	DB	00H
	DB	01fH
	DB	0ffH
	DB	080H
	DB	01H
	DB	0ffH
	DB	0fcH
	DB	00H
	DB	00H
	DB	03fH
	DB	0ffH
	DB	00H
	DB	00H
	DB	0ffH
	DB	0fcH
	DB	00H
	DB	00H
	DB	03fH
	DB	0feH
	DB	00H
	DB	00H
	DB	07fH
	DB	0feH
	DB	00H
	DB	00H
	DB	07fH
	DB	0fcH
	DB	00H
	DB	00H
	DB	03fH
	DB	0feH
	DB	00H
	DB	00H
	DB	07fH
	DB	0f8H
	DB	00H
	DB	00H
	DB	03fH
	DB	0feH
	DB	00H
	DB	00H
	DB	0ffH
	DB	0f8H
	DB	00H
	DB	00H
	DB	01fH
	DB	0feH
	DB	00H
	DB	00H
	DB	0ffH
	DB	0f0H
	DB	00H
	DB	00H
	DB	01fH
	DB	0ffH
	DB	00H
	DB	01H
	DB	0ffH
	DB	0f0H
	DB	00H
	DB	00H
	DB	01fH
	DB	0ffH
	DB	00H
	DB	01H
	DB	0ffH
	DB	0f0H
	DB	00H
	DB	00H
	DB	0fH
	DB	0ffH
	DB	00H
	DB	01H
	DB	0ffH
	DB	0e0H
	DB	00H
	DB	00H
	DB	00H
	DB	00H
	DB	00H
	DB	01H
	DB	0ffH
	DB	0e0H
	DB	00H
	DB	00H
	DB	00H
	DB	00H
	DB	00H
	DB	03H
	DB	0ffH
	DB	0e0H
	DB	00H
	DB	00H
	DB	00H
	DB	00H
	DB	00H
	DB	03H
	DB	0ffH
	DB	0c0H
	DB	00H
	DB	00H
	DB	00H
	DB	00H
	DB	00H
	DB	03H
	DB	0ffH
	DB	0c0H
	DB	00H
	DB	00H
	DB	00H
	DB	00H
	DB	00H
	DB	07H
	DB	0ffH
	DB	0c0H
	DB	00H
	DB	00H
	DB	00H
	DB	00H
	DB	00H
	DB	07H
	DB	0ffH
	DB	0c0H
	DB	00H
	DB	00H
	DB	00H
	DB	00H
	DB	00H
	DB	07H
	DB	0ffH
	DB	0c0H
	DB	03H
	DB	0fcH
	DB	00H
	DB	00H
	DB	00H
	DB	07H
	DB	0ffH
	DB	080H
	DB	03fH
	DB	0ffH
	DB	0c0H
	DB	00H
	DB	00H
	DB	07H
	DB	0ffH
	DB	080H
	DB	0ffH
	DB	0ffH
	DB	0f8H
	DB	00H
	DB	00H
	DB	07H
	DB	0ffH
	DB	083H
	DB	0ffH
	DB	0ffH
	DB	0fcH
	DB	00H
	DB	00H
	DB	07H
	DB	0ffH
	DB	087H
	DB	0ffH
	DB	0ffH
	DB	0ffH
	DB	00H
	DB	00H
	DB	0fH
	DB	0ffH
	DB	08fH
	DB	0ffH
	DB	0ffH
	DB	0ffH
	DB	080H
	DB	00H
	DB	0fH
	DB	0ffH
	DB	09fH
	DB	0ffH
	DB	0ffH
	DB	0ffH
	DB	0c0H
	DB	00H
	DB	0fH
	DB	0ffH
	DB	0bfH
	DB	0ffH
	DB	0ffH
	DB	0ffH
	DB	0e0H
	DB	00H
	DB	0fH
	DB	0ffH
	DB	0ffH
	DB	0ffH
	DB	0ffH
	DB	0ffH
	DB	0f0H
	DB	00H
	DB	0fH
	DB	0ffH
	DB	0ffH
	DB	0ffH
	DB	0ffH
	DB	0ffH
	DB	0f8H
	DB	00H
	DB	0fH
	DB	0ffH
	DB	0ffH
	DB	0f0H
	DB	01fH
	DB	0ffH
	DB	0fcH
	DB	00H
	DB	0fH
	DB	0ffH
	DB	0ffH
	DB	080H
	DB	03H
	DB	0ffH
	DB	0fcH
	DB	00H
	DB	0fH
	DB	0ffH
	DB	0ffH
	DB	00H
	DB	01H
	DB	0ffH
	DB	0feH
	DB	00H
	DB	0fH
	DB	0ffH
	DB	0feH
	DB	00H
	DB	00H
	DB	07fH
	DB	0feH
	DB	00H
	DB	0fH
	DB	0ffH
	DB	0fcH
	DB	00H
	DB	00H
	DB	03fH
	DB	0ffH
	DB	00H
	DB	0fH
	DB	0ffH
	DB	0f8H
	DB	00H
	DB	00H
	DB	03fH
	DB	0ffH
	DB	00H
	DB	0fH
	DB	0ffH
	DB	0f0H
	DB	00H
	DB	00H
	DB	01fH
	DB	0ffH
	DB	00H
	DB	0fH
	DB	0ffH
	DB	0f0H
	DB	00H
	DB	00H
	DB	01fH
	DB	0ffH
	DB	080H
	DB	0fH
	DB	0ffH
	DB	0e0H
	DB	00H
	DB	00H
	DB	0fH
	DB	0ffH
	DB	080H
	DB	0fH
	DB	0ffH
	DB	0e0H
	DB	00H
	DB	00H
	DB	0fH
	DB	0ffH
	DB	080H
	DB	0fH
	DB	0ffH
	DB	0e0H
	DB	00H
	DB	00H
	DB	0fH
	DB	0ffH
	DB	080H
	DB	07H
	DB	0ffH
	DB	0c0H
	DB	00H
	DB	00H
	DB	07H
	DB	0ffH
	DB	080H
	DB	07H
	DB	0ffH
	DB	0c0H
	DB	00H
	DB	00H
	DB	07H
	DB	0ffH
	DB	0c0H
	DB	07H
	DB	0ffH
	DB	0c0H
	DB	00H
	DB	00H
	DB	07H
	DB	0ffH
	DB	0c0H
	DB	07H
	DB	0ffH
	DB	0c0H
	DB	00H
	DB	00H
	DB	07H
	DB	0ffH
	DB	0c0H
	DB	07H
	DB	0ffH
	DB	0c0H
	DB	00H
	DB	00H
	DB	07H
	DB	0ffH
	DB	0c0H
	DB	07H
	DB	0ffH
	DB	0c0H
	DB	00H
	DB	00H
	DB	07H
	DB	0ffH
	DB	0c0H
	DB	07H
	DB	0ffH
	DB	0c0H
	DB	00H
	DB	00H
	DB	07H
	DB	0ffH
	DB	0c0H
	DB	03H
	DB	0ffH
	DB	0c0H
	DB	00H
	DB	00H
	DB	07H
	DB	0ffH
	DB	0c0H
	DB	03H
	DB	0ffH
	DB	0c0H
	DB	00H
	DB	00H
	DB	07H
	DB	0ffH
	DB	0c0H
	DB	03H
	DB	0ffH
	DB	0c0H
	DB	00H
	DB	00H
	DB	07H
	DB	0ffH
	DB	080H
	DB	03H
	DB	0ffH
	DB	0e0H
	DB	00H
	DB	00H
	DB	0fH
	DB	0ffH
	DB	080H
	DB	01H
	DB	0ffH
	DB	0e0H
	DB	00H
	DB	00H
	DB	0fH
	DB	0ffH
	DB	080H
	DB	01H
	DB	0ffH
	DB	0e0H
	DB	00H
	DB	00H
	DB	0fH
	DB	0ffH
	DB	080H
	DB	01H
	DB	0ffH
	DB	0f0H
	DB	00H
	DB	00H
	DB	01fH
	DB	0ffH
	DB	080H
	DB	01H
	DB	0ffH
	DB	0f0H
	DB	00H
	DB	00H
	DB	01fH
	DB	0ffH
	DB	00H
	DB	00H
	DB	0ffH
	DB	0f8H
	DB	00H
	DB	00H
	DB	03fH
	DB	0ffH
	DB	00H
	DB	00H
	DB	0ffH
	DB	0fcH
	DB	00H
	DB	00H
	DB	07fH
	DB	0feH
	DB	00H
	DB	00H
	DB	07fH
	DB	0feH
	DB	00H
	DB	00H
	DB	0ffH
	DB	0feH
	DB	00H
	DB	00H
	DB	07fH
	DB	0ffH
	DB	00H
	DB	01H
	DB	0ffH
	DB	0fcH
	DB	00H
	DB	00H
	DB	03fH
	DB	0ffH
	DB	080H
	DB	03H
	DB	0ffH
	DB	0fcH
	DB	00H
	DB	00H
	DB	03fH
	DB	0ffH
	DB	0f0H
	DB	01fH
	DB	0ffH
	DB	0f8H
	DB	00H
	DB	00H
	DB	01fH
	DB	0ffH
	DB	0ffH
	DB	0ffH
	DB	0ffH
	DB	0f0H
	DB	00H
	DB	00H
	DB	0fH
	DB	0ffH
	DB	0ffH
	DB	0ffH
	DB	0ffH
	DB	0f0H
	DB	00H
	DB	00H
	DB	07H
	DB	0ffH
	DB	0ffH
	DB	0ffH
	DB	0ffH
	DB	0e0H
	DB	00H
	DB	00H
	DB	03H
	DB	0ffH
	DB	0ffH
	DB	0ffH
	DB	0ffH
	DB	0c0H
	DB	00H
	DB	00H
	DB	01H
	DB	0ffH
	DB	0ffH
	DB	0ffH
	DB	0ffH
	DB	00H
	DB	00H
	DB	00H
	DB	00H
	DB	0ffH
	DB	0ffH
	DB	0ffH
	DB	0feH
	DB	00H
	DB	00H
	DB	00H
	DB	00H
	DB	07fH
	DB	0ffH
	DB	0ffH
	DB	0f8H
	DB	00H
	DB	00H
	DB	00H
	DB	00H
	DB	01fH
	DB	0ffH
	DB	0ffH
	DB	0f0H
	DB	00H
	DB	00H
	DB	00H
	DB	00H
	DB	03H
	DB	0ffH
	DB	0ffH
	DB	080H
	DB	00H
	DB	00H
	DB	00H
	DB	00H
	DB	00H
	DB	03fH
	DB	0f8H
	DB	00H
	DB	00H
	DB	00H
	DB	0fH
	DB	0ffH
	DB	0ffH
	DB	0ffH
	DB	0ffH
	DB	0ffH
	DB	0ffH
	DB	080H
	DB	0fH
	DB	0ffH
	DB	0ffH
	DB	0ffH
	DB	0ffH
	DB	0ffH
	DB	0ffH
	DB	080H
	DB	0fH
	DB	0ffH
	DB	0ffH
	DB	0ffH
	DB	0ffH
	DB	0ffH
	DB	0ffH
	DB	080H
	DB	0fH
	DB	0ffH
	DB	0ffH
	DB	0ffH
	DB	0ffH
	DB	0ffH
	DB	0ffH
	DB	080H
	DB	0fH
	DB	0ffH
	DB	0ffH
	DB	0ffH
	DB	0ffH
	DB	0ffH
	DB	0ffH
	DB	080H
	DB	0fH
	DB	0ffH
	DB	0ffH
	DB	0ffH
	DB	0ffH
	DB	0ffH
	DB	0ffH
	DB	080H
	DB	0fH
	DB	0ffH
	DB	0ffH
	DB	0ffH
	DB	0ffH
	DB	0ffH
	DB	0ffH
	DB	080H
	DB	0fH
	DB	0ffH
	DB	0ffH
	DB	0ffH
	DB	0ffH
	DB	0ffH
	DB	0ffH
	DB	080H
	DB	0fH
	DB	0ffH
	DB	0ffH
	DB	0ffH
	DB	0ffH
	DB	0ffH
	DB	0ffH
	DB	080H
	DB	0fH
	DB	0ffH
	DB	0ffH
	DB	0ffH
	DB	0ffH
	DB	0ffH
	DB	0ffH
	DB	080H
	DB	0fH
	DB	0ffH
	DB	0ffH
	DB	0ffH
	DB	0ffH
	DB	0ffH
	DB	0ffH
	DB	080H
	DB	00H
	DB	00H
	DB	00H
	DB	00H
	DB	00H
	DB	0fH
	DB	0ffH
	DB	080H
	DB	00H
	DB	00H
	DB	00H
	DB	00H
	DB	00H
	DB	0fH
	DB	0ffH
	DB	00H
	DB	00H
	DB	00H
	DB	00H
	DB	00H
	DB	00H
	DB	01fH
	DB	0feH
	DB	00H
	DB	00H
	DB	00H
	DB	00H
	DB	00H
	DB	00H
	DB	01fH
	DB	0fcH
	DB	00H
	DB	00H
	DB	00H
	DB	00H
	DB	00H
	DB	00H
	DB	03fH
	DB	0fcH
	DB	00H
	DB	00H
	DB	00H
	DB	00H
	DB	00H
	DB	00H
	DB	07fH
	DB	0f8H
	DB	00H
	DB	00H
	DB	00H
	DB	00H
	DB	00H
	DB	00H
	DB	0ffH
	DB	0f0H
	DB	00H
	DB	00H
	DB	00H
	DB	00H
	DB	00H
	DB	01H
	DB	0ffH
	DB	0e0H
	DB	00H
	DB	00H
	DB	00H
	DB	00H
	DB	00H
	DB	03H
	DB	0ffH
	DB	0c0H
	DB	00H
	DB	00H
	DB	00H
	DB	00H
	DB	00H
	DB	03H
	DB	0ffH
	DB	0c0H
	DB	00H
	DB	00H
	DB	00H
	DB	00H
	DB	00H
	DB	07H
	DB	0ffH
	DB	080H
	DB	00H
	DB	00H
	DB	00H
	DB	00H
	DB	00H
	DB	0fH
	DB	0ffH
	DB	00H
	DB	00H
	DB	00H
	DB	00H
	DB	00H
	DB	00H
	DB	01fH
	DB	0feH
	DB	00H
	DB	00H
	DB	00H
	DB	00H
	DB	00H
	DB	00H
	DB	01fH
	DB	0feH
	DB	00H
	DB	00H
	DB	00H
	DB	00H
	DB	00H
	DB	00H
	DB	03fH
	DB	0fcH
	DB	00H
	DB	00H
	DB	00H
	DB	00H
	DB	00H
	DB	00H
	DB	07fH
	DB	0f8H
	DB	00H
	DB	00H
	DB	00H
	DB	00H
	DB	00H
	DB	00H
	DB	07fH
	DB	0f8H
	DB	00H
	DB	00H
	DB	00H
	DB	00H
	DB	00H
	DB	00H
	DB	0ffH
	DB	0f0H
	DB	00H
	DB	00H
	DB	00H
	DB	00H
	DB	00H
	DB	01H
	DB	0ffH
	DB	0e0H
	DB	00H
	DB	00H
	DB	00H
	DB	00H
	DB	00H
	DB	01H
	DB	0ffH
	DB	0e0H
	DB	00H
	DB	00H
	DB	00H
	DB	00H
	DB	00H
	DB	03H
	DB	0ffH
	DB	0c0H
	DB	00H
	DB	00H
	DB	00H
	DB	00H
	DB	00H
	DB	03H
	DB	0ffH
	DB	0c0H
	DB	00H
	DB	00H
	DB	00H
	DB	00H
	DB	00H
	DB	07H
	DB	0ffH
	DB	080H
	DB	00H
	DB	00H
	DB	00H
	DB	00H
	DB	00H
	DB	0fH
	DB	0ffH
	DB	080H
	DB	00H
	DB	00H
	DB	00H
	DB	00H
	DB	00H
	DB	0fH
	DB	0ffH
	DB	00H
	DB	00H
	DB	00H
	DB	00H
	DB	00H
	DB	00H
	DB	01fH
	DB	0ffH
	DB	00H
	DB	00H
	DB	00H
	DB	00H
	DB	00H
	DB	00H
	DB	01fH
	DB	0feH
	DB	00H
	DB	00H
	DB	00H
	DB	00H
	DB	00H
	DB	00H
	DB	03fH
	DB	0feH
	DB	00H
	DB	00H
	DB	00H
	DB	00H
	DB	00H
	DB	00H
	DB	03fH
	DB	0fcH
	DB	00H
	DB	00H
	DB	00H
	DB	00H
	DB	00H
	DB	00H
	DB	07fH
	DB	0fcH
	DB	00H
	DB	00H
	DB	00H
	DB	00H
	DB	00H
	DB	00H
	DB	07fH
	DB	0f8H
	DB	00H
	DB	00H
	DB	00H
	DB	00H
	DB	00H
	DB	00H
	DB	0ffH
	DB	0f8H
	DB	00H
	DB	00H
	DB	00H
	DB	00H
	DB	00H
	DB	00H
	DB	0ffH
	DB	0f0H
	DB	00H
	DB	00H
	DB	00H
	DB	00H
	DB	00H
	DB	01H
	DB	0ffH
	DB	0f0H
	DB	00H
	DB	00H
	DB	00H
	DB	00H
	DB	00H
	DB	01H
	DB	0ffH
	DB	0e0H
	DB	00H
	DB	00H
	DB	00H
	DB	00H
	DB	00H
	DB	03H
	DB	0ffH
	DB	0e0H
	DB	00H
	DB	00H
	DB	00H
	DB	00H
	DB	00H
	DB	03H
	DB	0ffH
	DB	0e0H
	DB	00H
	DB	00H
	DB	00H
	DB	00H
	DB	00H
	DB	03H
	DB	0ffH
	DB	0c0H
	DB	00H
	DB	00H
	DB	00H
	DB	00H
	DB	00H
	DB	07H
	DB	0ffH
	DB	0c0H
	DB	00H
	DB	00H
	DB	00H
	DB	00H
	DB	00H
	DB	07H
	DB	0ffH
	DB	080H
	DB	00H
	DB	00H
	DB	00H
	DB	00H
	DB	00H
	DB	0fH
	DB	0ffH
	DB	080H
	DB	00H
	DB	00H
	DB	00H
	DB	00H
	DB	00H
	DB	0fH
	DB	0ffH
	DB	080H
	DB	00H
	DB	00H
	DB	00H
	DB	00H
	DB	00H
	DB	0fH
	DB	0ffH
	DB	080H
	DB	00H
	DB	00H
	DB	00H
	DB	00H
	DB	00H
	DB	01fH
	DB	0ffH
	DB	00H
	DB	00H
	DB	00H
	DB	00H
	DB	00H
	DB	00H
	DB	01fH
	DB	0ffH
	DB	00H
	DB	00H
	DB	00H
	DB	00H
	DB	00H
	DB	00H
	DB	01fH
	DB	0ffH
	DB	00H
	DB	00H
	DB	00H
	DB	00H
	DB	00H
	DB	00H
	DB	03fH
	DB	0feH
	DB	00H
	DB	00H
	DB	00H
	DB	00H
	DB	00H
	DB	00H
	DB	03fH
	DB	0feH
	DB	00H
	DB	00H
	DB	00H
	DB	00H
	DB	00H
	DB	00H
	DB	03fH
	DB	0feH
	DB	00H
	DB	00H
	DB	00H
	DB	00H
	DB	00H
	DB	00H
	DB	07fH
	DB	0feH
	DB	00H
	DB	00H
	DB	00H
	DB	00H
	DB	00H
	DB	00H
	DB	07fH
	DB	0fcH
	DB	00H
	DB	00H
	DB	00H
	DB	00H
	DB	00H
	DB	00H
	DB	07fH
	DB	0fcH
	DB	00H
	DB	00H
	DB	00H
	DB	00H
	DB	00H
	DB	00H
	DB	07fH
	DB	0fcH
	DB	00H
	DB	00H
	DB	00H
	DB	00H
	DB	00H
	DB	00H
	DB	0ffH
	DB	0fcH
	DB	00H
	DB	00H
	DB	00H
	DB	00H
	DB	00H
	DB	00H
	DB	0ffH
	DB	0fcH
	DB	00H
	DB	00H
	DB	00H
	DB	00H
	DB	00H
	DB	00H
	DB	0ffH
	DB	0f8H
	DB	00H
	DB	00H
	DB	00H
	DB	00H
	DB	00H
	DB	00H
	DB	0ffH
	DB	0f8H
	DB	00H
	DB	00H
	DB	00H
	DB	00H
	DB	00H
	DB	00H
	DB	0ffH
	DB	0f8H
	DB	00H
	DB	00H
	DB	00H
	DB	00H
	DB	00H
	DB	01H
	DB	0ffH
	DB	0f8H
	DB	00H
	DB	00H
	DB	00H
	DB	00H
	DB	00H
	DB	01H
	DB	0ffH
	DB	0f8H
	DB	00H
	DB	00H
	DB	00H
	DB	00H
	DB	00H
	DB	01H
	DB	0ffH
	DB	0f8H
	DB	00H
	DB	00H
	DB	00H
	DB	00H
	DB	00H
	DB	01H
	DB	0ffH
	DB	0f8H
	DB	00H
	DB	00H
	DB	00H
	DB	00H
	DB	00H
	DB	01H
	DB	0ffH
	DB	0f0H
	DB	00H
	DB	00H
	DB	00H
	DB	00H
	DB	00H
	DB	01H
	DB	0ffH
	DB	0f0H
	DB	00H
	DB	00H
	DB	00H
	DB	00H
	DB	00H
	DB	01H
	DB	0ffH
	DB	0f0H
	DB	00H
	DB	00H
	DB	00H
	DB	00H
	DB	00H
	DB	03H
	DB	0ffH
	DB	0f0H
	DB	00H
	DB	00H
	DB	00H
	DB	00H
	DB	00H
	DB	03H
	DB	0ffH
	DB	0f0H
	DB	00H
	DB	00H
	DB	00H
	DB	00H
	DB	00H
	DB	03H
	DB	0ffH
	DB	0f0H
	DB	00H
	DB	00H
	DB	00H
	DB	00H
	DB	00H
	DB	03H
	DB	0ffH
	DB	0f0H
	DB	00H
	DB	00H
	DB	00H
	DB	00H
	DB	00H
	DB	00H
	DB	00H
	DB	07fH
	DB	0f8H
	DB	00H
	DB	00H
	DB	00H
	DB	00H
	DB	00H
	DB	07H
	DB	0ffH
	DB	0ffH
	DB	080H
	DB	00H
	DB	00H
	DB	00H
	DB	00H
	DB	03fH
	DB	0ffH
	DB	0ffH
	DB	0f0H
	DB	00H
	DB	00H
	DB	00H
	DB	00H
	DB	0ffH
	DB	0ffH
	DB	0ffH
	DB	0fcH
	DB	00H
	DB	00H
	DB	00H
	DB	01H
	DB	0ffH
	DB	0ffH
	DB	0ffH
	DB	0feH
	DB	00H
	DB	00H
	DB	00H
	DB	07H
	DB	0ffH
	DB	0ffH
	DB	0ffH
	DB	0ffH
	DB	080H
	DB	00H
	DB	00H
	DB	0fH
	DB	0ffH
	DB	0ffH
	DB	0ffH
	DB	0ffH
	DB	080H
	DB	00H
	DB	00H
	DB	0fH
	DB	0ffH
	DB	0ffH
	DB	0ffH
	DB	0ffH
	DB	0c0H
	DB	00H
	DB	00H
	DB	01fH
	DB	0ffH
	DB	0ffH
	DB	0ffH
	DB	0ffH
	DB	0e0H
	DB	00H
	DB	00H
	DB	03fH
	DB	0ffH
	DB	0ffH
	DB	0ffH
	DB	0ffH
	DB	0f0H
	DB	00H
	DB	00H
	DB	03fH
	DB	0ffH
	DB	0e0H
	DB	01fH
	DB	0ffH
	DB	0f0H
	DB	00H
	DB	00H
	DB	07fH
	DB	0ffH
	DB	080H
	DB	07H
	DB	0ffH
	DB	0f8H
	DB	00H
	DB	00H
	DB	07fH
	DB	0feH
	DB	00H
	DB	01H
	DB	0ffH
	DB	0f8H
	DB	00H
	DB	00H
	DB	0ffH
	DB	0fcH
	DB	00H
	DB	00H
	DB	0ffH
	DB	0fcH
	DB	00H
	DB	00H
	DB	0ffH
	DB	0f8H
	DB	00H
	DB	00H
	DB	07fH
	DB	0fcH
	DB	00H
	DB	00H
	DB	0ffH
	DB	0f8H
	DB	00H
	DB	00H
	DB	07fH
	DB	0fcH
	DB	00H
	DB	01H
	DB	0ffH
	DB	0f0H
	DB	00H
	DB	00H
	DB	03fH
	DB	0feH
	DB	00H
	DB	01H
	DB	0ffH
	DB	0f0H
	DB	00H
	DB	00H
	DB	03fH
	DB	0feH
	DB	00H
	DB	01H
	DB	0ffH
	DB	0e0H
	DB	00H
	DB	00H
	DB	01fH
	DB	0feH
	DB	00H
	DB	01H
	DB	0ffH
	DB	0e0H
	DB	00H
	DB	00H
	DB	01fH
	DB	0feH
	DB	00H
	DB	01H
	DB	0ffH
	DB	0e0H
	DB	00H
	DB	00H
	DB	01fH
	DB	0feH
	DB	00H
	DB	01H
	DB	0ffH
	DB	0e0H
	DB	00H
	DB	00H
	DB	01fH
	DB	0feH
	DB	00H
	DB	01H
	DB	0ffH
	DB	0e0H
	DB	00H
	DB	00H
	DB	01fH
	DB	0feH
	DB	00H
	DB	01H
	DB	0ffH
	DB	0e0H
	DB	00H
	DB	00H
	DB	01fH
	DB	0feH
	DB	00H
	DB	00H
	DB	0ffH
	DB	0e0H
	DB	00H
	DB	00H
	DB	01fH
	DB	0fcH
	DB	00H
	DB	00H
	DB	0ffH
	DB	0e0H
	DB	00H
	DB	00H
	DB	01fH
	DB	0fcH
	DB	00H
	DB	00H
	DB	0ffH
	DB	0f0H
	DB	00H
	DB	00H
	DB	03fH
	DB	0fcH
	DB	00H
	DB	00H
	DB	0ffH
	DB	0f0H
	DB	00H
	DB	00H
	DB	03fH
	DB	0f8H
	DB	00H
	DB	00H
	DB	07fH
	DB	0f0H
	DB	00H
	DB	00H
	DB	07fH
	DB	0f8H
	DB	00H
	DB	00H
	DB	03fH
	DB	0f8H
	DB	00H
	DB	00H
	DB	07fH
	DB	0f0H
	DB	00H
	DB	00H
	DB	03fH
	DB	0fcH
	DB	00H
	DB	00H
	DB	0ffH
	DB	0f0H
	DB	00H
	DB	00H
	DB	01fH
	DB	0feH
	DB	00H
	DB	01H
	DB	0ffH
	DB	0e0H
	DB	00H
	DB	00H
	DB	0fH
	DB	0ffH
	DB	080H
	DB	07H
	DB	0ffH
	DB	0c0H
	DB	00H
	DB	00H
	DB	07H
	DB	0ffH
	DB	0e0H
	DB	01fH
	DB	0ffH
	DB	00H
	DB	00H
	DB	00H
	DB	01H
	DB	0ffH
	DB	0ffH
	DB	0ffH
	DB	0feH
	DB	00H
	DB	00H
	DB	00H
	DB	00H
	DB	07fH
	DB	0ffH
	DB	0ffH
	DB	0f8H
	DB	00H
	DB	00H
	DB	00H
	DB	00H
	DB	07fH
	DB	0ffH
	DB	0ffH
	DB	0f8H
	DB	00H
	DB	00H
	DB	00H
	DB	03H
	DB	0ffH
	DB	0ffH
	DB	0ffH
	DB	0feH
	DB	00H
	DB	00H
	DB	00H
	DB	0fH
	DB	0ffH
	DB	0ffH
	DB	0ffH
	DB	0ffH
	DB	080H
	DB	00H
	DB	00H
	DB	01fH
	DB	0ffH
	DB	0ffH
	DB	0ffH
	DB	0ffH
	DB	0c0H
	DB	00H
	DB	00H
	DB	07fH
	DB	0ffH
	DB	0ffH
	DB	0ffH
	DB	0ffH
	DB	0f0H
	DB	00H
	DB	00H
	DB	0ffH
	DB	0ffH
	DB	0ffH
	DB	0ffH
	DB	0ffH
	DB	0f8H
	DB	00H
	DB	01H
	DB	0ffH
	DB	0ffH
	DB	0ffH
	DB	0ffH
	DB	0ffH
	DB	0fcH
	DB	00H
	DB	01H
	DB	0ffH
	DB	0ffH
	DB	0c0H
	DB	01fH
	DB	0ffH
	DB	0fcH
	DB	00H
	DB	03H
	DB	0ffH
	DB	0feH
	DB	00H
	DB	03H
	DB	0ffH
	DB	0feH
	DB	00H
	DB	07H
	DB	0ffH
	DB	0f8H
	DB	00H
	DB	00H
	DB	0ffH
	DB	0ffH
	DB	00H
	DB	07H
	DB	0ffH
	DB	0f0H
	DB	00H
	DB	00H
	DB	07fH
	DB	0ffH
	DB	00H
	DB	07H
	DB	0ffH
	DB	0e0H
	DB	00H
	DB	00H
	DB	03fH
	DB	0ffH
	DB	00H
	DB	0fH
	DB	0ffH
	DB	0c0H
	DB	00H
	DB	00H
	DB	01fH
	DB	0ffH
	DB	080H
	DB	0fH
	DB	0ffH
	DB	080H
	DB	00H
	DB	00H
	DB	01fH
	DB	0ffH
	DB	080H
	DB	0fH
	DB	0ffH
	DB	080H
	DB	00H
	DB	00H
	DB	0fH
	DB	0ffH
	DB	080H
	DB	01fH
	DB	0ffH
	DB	080H
	DB	00H
	DB	00H
	DB	0fH
	DB	0ffH
	DB	0c0H
	DB	01fH
	DB	0ffH
	DB	00H
	DB	00H
	DB	00H
	DB	07H
	DB	0ffH
	DB	0c0H
	DB	01fH
	DB	0ffH
	DB	00H
	DB	00H
	DB	00H
	DB	07H
	DB	0ffH
	DB	0c0H
	DB	01fH
	DB	0ffH
	DB	00H
	DB	00H
	DB	00H
	DB	07H
	DB	0ffH
	DB	0c0H
	DB	01fH
	DB	0ffH
	DB	00H
	DB	00H
	DB	00H
	DB	07H
	DB	0ffH
	DB	0c0H
	DB	01fH
	DB	0ffH
	DB	00H
	DB	00H
	DB	00H
	DB	07H
	DB	0ffH
	DB	0c0H
	DB	01fH
	DB	0ffH
	DB	00H
	DB	00H
	DB	00H
	DB	07H
	DB	0ffH
	DB	0c0H
	DB	01fH
	DB	0ffH
	DB	00H
	DB	00H
	DB	00H
	DB	07H
	DB	0ffH
	DB	0c0H
	DB	0fH
	DB	0ffH
	DB	00H
	DB	00H
	DB	00H
	DB	07H
	DB	0ffH
	DB	080H
	DB	0fH
	DB	0ffH
	DB	080H
	DB	00H
	DB	00H
	DB	0fH
	DB	0ffH
	DB	080H
	DB	0fH
	DB	0ffH
	DB	080H
	DB	00H
	DB	00H
	DB	0fH
	DB	0ffH
	DB	080H
	DB	0fH
	DB	0ffH
	DB	080H
	DB	00H
	DB	00H
	DB	0fH
	DB	0ffH
	DB	080H
	DB	07H
	DB	0ffH
	DB	0c0H
	DB	00H
	DB	00H
	DB	01fH
	DB	0ffH
	DB	00H
	DB	07H
	DB	0ffH
	DB	0e0H
	DB	00H
	DB	00H
	DB	01fH
	DB	0ffH
	DB	00H
	DB	07H
	DB	0ffH
	DB	0e0H
	DB	00H
	DB	00H
	DB	03fH
	DB	0ffH
	DB	00H
	DB	03H
	DB	0ffH
	DB	0f0H
	DB	00H
	DB	00H
	DB	07fH
	DB	0feH
	DB	00H
	DB	03H
	DB	0ffH
	DB	0fcH
	DB	00H
	DB	01H
	DB	0ffH
	DB	0feH
	DB	00H
	DB	01H
	DB	0ffH
	DB	0feH
	DB	00H
	DB	03H
	DB	0ffH
	DB	0fcH
	DB	00H
	DB	01H
	DB	0ffH
	DB	0ffH
	DB	0c0H
	DB	01fH
	DB	0ffH
	DB	0fcH
	DB	00H
	DB	00H
	DB	0ffH
	DB	0ffH
	DB	0ffH
	DB	0ffH
	DB	0ffH
	DB	0f8H
	DB	00H
	DB	00H
	DB	07fH
	DB	0ffH
	DB	0ffH
	DB	0ffH
	DB	0ffH
	DB	0f0H
	DB	00H
	DB	00H
	DB	03fH
	DB	0ffH
	DB	0ffH
	DB	0ffH
	DB	0ffH
	DB	0e0H
	DB	00H
	DB	00H
	DB	01fH
	DB	0ffH
	DB	0ffH
	DB	0ffH
	DB	0ffH
	DB	0c0H
	DB	00H
	DB	00H
	DB	0fH
	DB	0ffH
	DB	0ffH
	DB	0ffH
	DB	0ffH
	DB	080H
	DB	00H
	DB	00H
	DB	03H
	DB	0ffH
	DB	0ffH
	DB	0ffH
	DB	0feH
	DB	00H
	DB	00H
	DB	00H
	DB	00H
	DB	0ffH
	DB	0ffH
	DB	0ffH
	DB	0f8H
	DB	00H
	DB	00H
	DB	00H
	DB	00H
	DB	03fH
	DB	0ffH
	DB	0ffH
	DB	0e0H
	DB	00H
	DB	00H
	DB	00H
	DB	00H
	DB	07H
	DB	0ffH
	DB	0ffH
	DB	00H
	DB	00H
	DB	00H
	DB	00H
	DB	00H
	DB	00H
	DB	07fH
	DB	0f0H
	DB	00H
	DB	00H
	DB	00H
	DB	00H
	DB	00H
	DB	00H
	DB	07fH
	DB	0f0H
	DB	00H
	DB	00H
	DB	00H
	DB	00H
	DB	00H
	DB	07H
	DB	0ffH
	DB	0ffH
	DB	00H
	DB	00H
	DB	00H
	DB	00H
	DB	00H
	DB	03fH
	DB	0ffH
	DB	0ffH
	DB	0e0H
	DB	00H
	DB	00H
	DB	00H
	DB	00H
	DB	0ffH
	DB	0ffH
	DB	0ffH
	DB	0f8H
	DB	00H
	DB	00H
	DB	00H
	DB	01H
	DB	0ffH
	DB	0ffH
	DB	0ffH
	DB	0fcH
	DB	00H
	DB	00H
	DB	00H
	DB	07H
	DB	0ffH
	DB	0ffH
	DB	0ffH
	DB	0feH
	DB	00H
	DB	00H
	DB	00H
	DB	0fH
	DB	0ffH
	DB	0ffH
	DB	0ffH
	DB	0ffH
	DB	080H
	DB	00H
	DB	00H
	DB	01fH
	DB	0ffH
	DB	0ffH
	DB	0ffH
	DB	0ffH
	DB	080H
	DB	00H
	DB	00H
	DB	03fH
	DB	0ffH
	DB	0ffH
	DB	0ffH
	DB	0ffH
	DB	0c0H
	DB	00H
	DB	00H
	DB	07fH
	DB	0ffH
	DB	0ffH
	DB	0ffH
	DB	0ffH
	DB	0e0H
	DB	00H
	DB	00H
	DB	07fH
	DB	0ffH
	DB	0c0H
	DB	03fH
	DB	0ffH
	DB	0f0H
	DB	00H
	DB	00H
	DB	0ffH
	DB	0ffH
	DB	00H
	DB	07H
	DB	0ffH
	DB	0f0H
	DB	00H
	DB	00H
	DB	0ffH
	DB	0fcH
	DB	00H
	DB	03H
	DB	0ffH
	DB	0f8H
	DB	00H
	DB	01H
	DB	0ffH
	DB	0f8H
	DB	00H
	DB	01H
	DB	0ffH
	DB	0f8H
	DB	00H
	DB	01H
	DB	0ffH
	DB	0f0H
	DB	00H
	DB	00H
	DB	0ffH
	DB	0fcH
	DB	00H
	DB	03H
	DB	0ffH
	DB	0f0H
	DB	00H
	DB	00H
	DB	07fH
	DB	0fcH
	DB	00H
	DB	03H
	DB	0ffH
	DB	0e0H
	DB	00H
	DB	00H
	DB	03fH
	DB	0feH
	DB	00H
	DB	07H
	DB	0ffH
	DB	0e0H
	DB	00H
	DB	00H
	DB	03fH
	DB	0feH
	DB	00H
	DB	07H
	DB	0ffH
	DB	0c0H
	DB	00H
	DB	00H
	DB	01fH
	DB	0feH
	DB	00H
	DB	07H
	DB	0ffH
	DB	0c0H
	DB	00H
	DB	00H
	DB	01fH
	DB	0feH
	DB	00H
	DB	07H
	DB	0ffH
	DB	0c0H
	DB	00H
	DB	00H
	DB	01fH
	DB	0ffH
	DB	00H
	DB	07H
	DB	0ffH
	DB	080H
	DB	00H
	DB	00H
	DB	0fH
	DB	0ffH
	DB	00H
	DB	0fH
	DB	0ffH
	DB	080H
	DB	00H
	DB	00H
	DB	0fH
	DB	0ffH
	DB	00H
	DB	0fH
	DB	0ffH
	DB	080H
	DB	00H
	DB	00H
	DB	0fH
	DB	0ffH
	DB	00H
	DB	0fH
	DB	0ffH
	DB	080H
	DB	00H
	DB	00H
	DB	0fH
	DB	0ffH
	DB	080H
	DB	0fH
	DB	0ffH
	DB	080H
	DB	00H
	DB	00H
	DB	0fH
	DB	0ffH
	DB	080H
	DB	0fH
	DB	0ffH
	DB	080H
	DB	00H
	DB	00H
	DB	0fH
	DB	0ffH
	DB	080H
	DB	0fH
	DB	0ffH
	DB	080H
	DB	00H
	DB	00H
	DB	0fH
	DB	0ffH
	DB	080H
	DB	0fH
	DB	0ffH
	DB	080H
	DB	00H
	DB	00H
	DB	0fH
	DB	0ffH
	DB	080H
	DB	0fH
	DB	0ffH
	DB	080H
	DB	00H
	DB	00H
	DB	0fH
	DB	0ffH
	DB	080H
	DB	0fH
	DB	0ffH
	DB	080H
	DB	00H
	DB	00H
	DB	0fH
	DB	0ffH
	DB	080H
	DB	07H
	DB	0ffH
	DB	080H
	DB	00H
	DB	00H
	DB	01fH
	DB	0ffH
	DB	0c0H
	DB	07H
	DB	0ffH
	DB	0c0H
	DB	00H
	DB	00H
	DB	01fH
	DB	0ffH
	DB	0c0H
	DB	07H
	DB	0ffH
	DB	0c0H
	DB	00H
	DB	00H
	DB	01fH
	DB	0ffH
	DB	0c0H
	DB	07H
	DB	0ffH
	DB	0c0H
	DB	00H
	DB	00H
	DB	01fH
	DB	0ffH
	DB	0c0H
	DB	07H
	DB	0ffH
	DB	0e0H
	DB	00H
	DB	00H
	DB	03fH
	DB	0ffH
	DB	0c0H
	DB	03H
	DB	0ffH
	DB	0e0H
	DB	00H
	DB	00H
	DB	03fH
	DB	0ffH
	DB	0c0H
	DB	03H
	DB	0ffH
	DB	0f0H
	DB	00H
	DB	00H
	DB	07fH
	DB	0ffH
	DB	0c0H
	DB	03H
	DB	0ffH
	DB	0f8H
	DB	00H
	DB	00H
	DB	0ffH
	DB	0ffH
	DB	0c0H
	DB	01H
	DB	0ffH
	DB	0f8H
	DB	00H
	DB	01H
	DB	0ffH
	DB	0ffH
	DB	0c0H
	DB	01H
	DB	0ffH
	DB	0feH
	DB	00H
	DB	03H
	DB	0ffH
	DB	0ffH
	DB	0c0H
	DB	00H
	DB	0ffH
	DB	0ffH
	DB	00H
	DB	07H
	DB	0ffH
	DB	0ffH
	DB	0c0H
	DB	00H
	DB	0ffH
	DB	0ffH
	DB	0c0H
	DB	03fH
	DB	0ffH
	DB	0ffH
	DB	0c0H
	DB	00H
	DB	07fH
	DB	0ffH
	DB	0ffH
	DB	0ffH
	DB	0ffH
	DB	0ffH
	DB	0c0H
	DB	00H
	DB	03fH
	DB	0ffH
	DB	0ffH
	DB	0ffH
	DB	0ffH
	DB	0ffH
	DB	0c0H
	DB	00H
	DB	01fH
	DB	0ffH
	DB	0ffH
	DB	0ffH
	DB	0f7H
	DB	0ffH
	DB	0c0H
	DB	00H
	DB	0fH
	DB	0ffH
	DB	0ffH
	DB	0ffH
	DB	0e7H
	DB	0ffH
	DB	0c0H
	DB	00H
	DB	07H
	DB	0ffH
	DB	0ffH
	DB	0ffH
	DB	0c7H
	DB	0ffH
	DB	080H
	DB	00H
	DB	03H
	DB	0ffH
	DB	0ffH
	DB	0ffH
	DB	087H
	DB	0ffH
	DB	080H
	DB	00H
	DB	00H
	DB	0ffH
	DB	0ffH
	DB	0ffH
	DB	07H
	DB	0ffH
	DB	080H
	DB	00H
	DB	00H
	DB	03fH
	DB	0ffH
	DB	0fcH
	DB	07H
	DB	0ffH
	DB	080H
	DB	00H
	DB	00H
	DB	0fH
	DB	0ffH
	DB	0f0H
	DB	07H
	DB	0ffH
	DB	080H
	DB	00H
	DB	00H
	DB	00H
	DB	0ffH
	DB	080H
	DB	0fH
	DB	0ffH
	DB	080H
	DB	00H
	DB	00H
	DB	00H
	DB	00H
	DB	00H
	DB	0fH
	DB	0ffH
	DB	080H
	DB	00H
	DB	00H
	DB	00H
	DB	00H
	DB	00H
	DB	0fH
	DB	0ffH
	DB	00H
	DB	00H
	DB	00H
	DB	00H
	DB	00H
	DB	00H
	DB	0fH
	DB	0ffH
	DB	00H
	DB	00H
	DB	00H
	DB	00H
	DB	00H
	DB	00H
	DB	0fH
	DB	0ffH
	DB	00H
	DB	00H
	DB	00H
	DB	00H
	DB	00H
	DB	00H
	DB	01fH
	DB	0feH
	DB	00H
	DB	00H
	DB	00H
	DB	00H
	DB	00H
	DB	00H
	DB	01fH
	DB	0feH
	DB	00H
	DB	07H
	DB	0ffH
	DB	080H
	DB	00H
	DB	00H
	DB	01fH
	DB	0feH
	DB	00H
	DB	07H
	DB	0ffH
	DB	0c0H
	DB	00H
	DB	00H
	DB	03fH
	DB	0feH
	DB	00H
	DB	07H
	DB	0ffH
	DB	0c0H
	DB	00H
	DB	00H
	DB	03fH
	DB	0fcH
	DB	00H
	DB	03H
	DB	0ffH
	DB	0c0H
	DB	00H
	DB	00H
	DB	07fH
	DB	0fcH
	DB	00H
	DB	03H
	DB	0ffH
	DB	0e0H
	DB	00H
	DB	00H
	DB	07fH
	DB	0f8H
	DB	00H
	DB	03H
	DB	0ffH
	DB	0e0H
	DB	00H
	DB	00H
	DB	0ffH
	DB	0f8H
	DB	00H
	DB	03H
	DB	0ffH
	DB	0f0H
	DB	00H
	DB	01H
	DB	0ffH
	DB	0f0H
	DB	00H
	DB	01H
	DB	0ffH
	DB	0f8H
	DB	00H
	DB	03H
	DB	0ffH
	DB	0f0H
	DB	00H
	DB	01H
	DB	0ffH
	DB	0fcH
	DB	00H
	DB	07H
	DB	0ffH
	DB	0e0H
	DB	00H
	DB	00H
	DB	0ffH
	DB	0feH
	DB	00H
	DB	0fH
	DB	0ffH
	DB	0c0H
	DB	00H
	DB	00H
	DB	0ffH
	DB	0ffH
	DB	0c0H
	DB	07fH
	DB	0ffH
	DB	0c0H
	DB	00H
	DB	00H
	DB	07fH
	DB	0ffH
	DB	0ffH
	DB	0ffH
	DB	0ffH
	DB	080H
	DB	00H
	DB	00H
	DB	03fH
	DB	0ffH
	DB	0ffH
	DB	0ffH
	DB	0ffH
	DB	00H
	DB	00H
	DB	00H
	DB	01fH
	DB	0ffH
	DB	0ffH
	DB	0ffH
	DB	0feH
	DB	00H
	DB	00H
	DB	00H
	DB	0fH
	DB	0ffH
	DB	0ffH
	DB	0ffH
	DB	0fcH
	DB	00H
	DB	00H
	DB	00H
	DB	07H
	DB	0ffH
	DB	0ffH
	DB	0ffH
	DB	0f8H
	DB	00H
	DB	00H
	DB	00H
	DB	03H
	DB	0ffH
	DB	0ffH
	DB	0ffH
	DB	0f0H
	DB	00H
	DB	00H
	DB	00H
	DB	00H
	DB	0ffH
	DB	0ffH
	DB	0ffH
	DB	0c0H
	DB	00H
	DB	00H
	DB	00H
	DB	00H
	DB	03fH
	DB	0ffH
	DB	0ffH
	DB	00H
	DB	00H
	DB	00H
	DB	00H
	DB	00H
	DB	0fH
	DB	0ffH
	DB	0fcH
	DB	00H
	DB	00H
	DB	00H
	DB	00H
	DB	00H
	DB	00H
	DB	0ffH
	DB	0c0H
	DB	00H
	DB	00H
	DB	00H
_acFontD80_Colon DB 00H
	DB	00H
	DB	00H
	DB	00H
	DB	00H
	DB	00H
	DB	00H
	DB	00H
	DB	00H
	DB	00H
	DB	00H
	DB	00H
	DB	00H
	DB	00H
	DB	00H
	DB	00H
	DB	00H
	DB	00H
	DB	00H
	DB	00H
	DB	00H
	DB	00H
	DB	00H
	DB	00H
	DB	00H
	DB	00H
	DB	00H
	DB	00H
	DB	00H
	DB	00H
	DB	00H
	DB	00H
	DB	00H
	DB	00H
	DB	00H
	DB	00H
	DB	00H
	DB	00H
	DB	00H
	DB	00H
	DB	00H
	DB	00H
	DB	00H
	DB	00H
	DB	00H
	DB	00H
	DB	00H
	DB	00H
	DB	00H
	DB	00H
	DB	00H
	DB	00H
	DB	00H
	DB	00H
	DB	00H
	DB	00H
	DB	00H
	DB	00H
	DB	00H
	DB	00H
	DB	00H
	DB	00H
	DB	00H
	DB	00H
	DB	00H
	DB	00H
	DB	00H
	DB	00H
	DB	00H
	DB	00H
	DB	00H
	DB	00H
	DB	00H
	DB	00H
	DB	00H
	DB	00H
	DB	00H
	DB	00H
	DB	00H
	DB	00H
	DB	00H
	DB	00H
	DB	00H
	DB	00H
	DB	00H
	DB	00H
	DB	00H
	DB	00H
	DB	00H
	DB	00H
	DB	00H
	DB	00H
	DB	00H
	DB	0ffH
	DB	0feH
	DB	00H
	DB	00H
	DB	0ffH
	DB	0feH
	DB	00H
	DB	00H
	DB	0ffH
	DB	0feH
	DB	00H
	DB	00H
	DB	0ffH
	DB	0feH
	DB	00H
	DB	00H
	DB	0ffH
	DB	0feH
	DB	00H
	DB	00H
	DB	0ffH
	DB	0feH
	DB	00H
	DB	00H
	DB	0ffH
	DB	0feH
	DB	00H
	DB	00H
	DB	0ffH
	DB	0feH
	DB	00H
	DB	00H
	DB	0ffH
	DB	0feH
	DB	00H
	DB	00H
	DB	0ffH
	DB	0feH
	DB	00H
	DB	00H
	DB	0ffH
	DB	0feH
	DB	00H
	DB	00H
	DB	0ffH
	DB	0feH
	DB	00H
	DB	00H
	DB	0ffH
	DB	0feH
	DB	00H
	DB	00H
	DB	0ffH
	DB	0feH
	DB	00H
	DB	00H
	DB	0ffH
	DB	0feH
	DB	00H
	DB	00H
	DB	00H
	DB	00H
	DB	00H
	DB	00H
	DB	00H
	DB	00H
	DB	00H
	DB	00H
	DB	00H
	DB	00H
	DB	00H
	DB	00H
	DB	00H
	DB	00H
	DB	00H
	DB	00H
	DB	00H
	DB	00H
	DB	00H
	DB	00H
	DB	00H
	DB	00H
	DB	00H
	DB	00H
	DB	00H
	DB	00H
	DB	00H
	DB	00H
	DB	00H
	DB	00H
	DB	00H
	DB	00H
	DB	00H
	DB	00H
	DB	00H
	DB	00H
	DB	00H
	DB	00H
	DB	00H
	DB	00H
	DB	00H
	DB	00H
	DB	00H
	DB	00H
	DB	00H
	DB	00H
	DB	00H
	DB	00H
	DB	00H
	DB	00H
	DB	00H
	DB	00H
	DB	00H
	DB	00H
	DB	00H
	DB	00H
	DB	00H
	DB	00H
	DB	00H
	DB	00H
	DB	00H
	DB	00H
	DB	00H
	DB	00H
	DB	00H
	DB	00H
	DB	00H
	DB	00H
	DB	00H
	DB	00H
	DB	00H
	DB	00H
	DB	00H
	DB	00H
	DB	00H
	DB	00H
	DB	00H
	DB	00H
	DB	00H
	DB	00H
	DB	00H
	DB	00H
	DB	00H
	DB	00H
	DB	00H
	DB	00H
	DB	00H
	DB	00H
	DB	00H
	DB	00H
	DB	00H
	DB	00H
	DB	00H
	DB	00H
	DB	00H
	DB	00H
	DB	00H
	DB	00H
	DB	00H
	DB	00H
	DB	00H
	DB	00H
	DB	00H
	DB	00H
	DB	0ffH
	DB	0feH
	DB	00H
	DB	00H
	DB	0ffH
	DB	0feH
	DB	00H
	DB	00H
	DB	0ffH
	DB	0feH
	DB	00H
	DB	00H
	DB	0ffH
	DB	0feH
	DB	00H
	DB	00H
	DB	0ffH
	DB	0feH
	DB	00H
	DB	00H
	DB	0ffH
	DB	0feH
	DB	00H
	DB	00H
	DB	0ffH
	DB	0feH
	DB	00H
	DB	00H
	DB	0ffH
	DB	0feH
	DB	00H
	DB	00H
	DB	0ffH
	DB	0feH
	DB	00H
	DB	00H
	DB	0ffH
	DB	0feH
	DB	00H
	DB	00H
	DB	0ffH
	DB	0feH
	DB	00H
	DB	00H
	DB	0ffH
	DB	0feH
	DB	00H
	DB	00H
	DB	0ffH
	DB	0feH
	DB	00H
	DB	00H
	DB	0ffH
	DB	0feH
	DB	00H
	DB	00H
	DB	0ffH
	DB	0feH
	DB	00H
	DB	00H
	DB	00H
	DB	00H
	DB	00H
_GUI_FontD80_CharInfo DB 01fH
	DB	01fH
	DB	04H
	ORG $+1
	DD	FLAT:_acFontD80_Space
	DB	03dH
	DB	03dH
	DB	08H
	ORG $+1
	DD	FLAT:_acFontD80_Add
	DB	03dH
	DB	03dH
	DB	08H
	ORG $+1
	DD	FLAT:_acFontD80_Sub
	DB	01fH
	DB	01fH
	DB	04H
	ORG $+1
	DD	FLAT:_acFontD80_DP
	DB	03dH
	DB	03dH
	DB	08H
	ORG $+1
	DD	FLAT:_acFontD80
	DB	03dH
	DB	03dH
	DB	08H
	ORG $+1
	DD	FLAT:_acFontD80+640
	DB	03dH
	DB	03dH
	DB	08H
	ORG $+1
	DD	FLAT:_acFontD80+1280
	DB	03dH
	DB	03dH
	DB	08H
	ORG $+1
	DD	FLAT:_acFontD80+1920
	DB	03dH
	DB	03dH
	DB	08H
	ORG $+1
	DD	FLAT:_acFontD80+2560
	DB	03dH
	DB	03dH
	DB	08H
	ORG $+1
	DD	FLAT:_acFontD80+3200
	DB	03dH
	DB	03dH
	DB	08H
	ORG $+1
	DD	FLAT:_acFontD80+3840
	DB	03dH
	DB	03dH
	DB	08H
	ORG $+1
	DD	FLAT:_acFontD80+4480
	DB	03dH
	DB	03dH
	DB	08H
	ORG $+1
	DD	FLAT:_acFontD80+5120
	DB	03dH
	DB	03dH
	DB	08H
	ORG $+1
	DD	FLAT:_acFontD80+5760
	DB	01fH
	DB	01fH
	DB	04H
	ORG $+1
	DD	FLAT:_acFontD80_Colon
_GUI_FontD80_Prop4 DW 030H
	DW	03aH
	DD	FLAT:_GUI_FontD80_CharInfo+32
	DD	00H
_GUI_FontD80_Prop3 DW 02dH
	DW	02eH
	DD	FLAT:_GUI_FontD80_CharInfo+16
	DD	FLAT:_GUI_FontD80_Prop4
_GUI_FontD80_Prop2 DW 02bH
	DW	02bH
	DD	FLAT:_GUI_FontD80_CharInfo+8
	DD	FLAT:_GUI_FontD80_Prop3
_GUI_FontD80_Prop1 DW 020H
	DW	020H
	DD	FLAT:_GUI_FontD80_CharInfo
	DD	FLAT:_GUI_FontD80_Prop2
_GUI_FontD80 DD	FLAT:_GUIPROP_DispChar
	DD	FLAT:_GUIPROP_GetCharDistX
	DD	FLAT:_GUIPROP_GetFontInfo
	DD	FLAT:_GUIPROP_IsInFont
	DD	00H
	DD	00H
	DB	050H
	DB	050H
	DB	01H
	DB	01H
	DD	FLAT:_GUI_FontD80_Prop1
	DB	050H
	DB	00H
	DB	050H
	ORG $+1
CONST	ENDS
END
