; Listing generated by Microsoft (R) Optimizing Compiler Version 16.00.40219.01 

	TITLE	C:\DUII\DUII\Graphics\FormatSD.c
	.686P
	.XMM
	include listing.inc
	.model	flat

INCLUDELIB LIBCMT
INCLUDELIB OLDNAMES

PUBLIC	_bmFormatSD
CONST	SEGMENT
_ColorsFormatSD DD 00H
	DD	0fefefeH
	DD	0cdcdcdH
	DD	09b9b9bH
	DD	0939393H
	DD	07a7a7bH
	DD	0bcbcbdH
	DD	0747475H
	DD	0b9b9b9H
	DD	0c5c5c5H
	DD	0fe00H
	DD	0838383H
	DD	0c9c9c9H
	DD	02b2b2bH
	DD	0d0d0dH
	DD	0b1b1b1H
	DD	08c8c8dH
	DD	0898989H
	DD	0151515H
	DD	0a5a5a5H
	DD	0b5b5b5H
	DD	0c1c1c1H
	DD	0a9a9a9H
	DD	0323232H
	DD	0a1a1a1H
	DD	0191919H
	DD	0acacadH
	DD	0ddddddH
	DD	0111111H
	DD	0252525H
	DD	0d0d0d0H
	DD	01d1d1dH
	DD	090909H
	DD	0212121H
	DD	0d4d4d4H
	DD	03b3b3bH
	DD	08f8f90H
	DD	0979798H
	DD	09f9fa0H
	DD	0a7a7a8H
	DD	0b7b7b8H
	DD	0afafb0H
	DD	0f1f1f1H
	DD	050505H
	DD	0737374H
	DD	07f7f80H
	DD	0434343H
	DD	0e1e1e1H
	DD	05c5b5cH
	DD	0535353H
	DD	090009H
	DD	0f900H
	DD	0da00H
	DD	0a900H
	DD	0dd00H
	DD	0e9e9e9H
	DD	0626462H
	DD	0ecececH
	DD	014b01H
	DD	0e600H
	DD	0656565H
	DD	06d6d6dH
	DD	0203520H
	DD	0717171H
	DD	0e6e6e6H
	DD	04d4d4dH
	DD	0b1b0bH
	DD	0221c22H
	DD	0494949H
	DD	0616161H
	DD	0be00H
	DD	0d9d9d9H
	DD	0132213H
	DD	01a141aH
	DD	0120b12H
	DD	02a242aH
	DD	0125912H
	DD	0696969H
	DD	052305H
	DD	055205H
	DD	0e900H
	DD	092609H
	DD	0b290bH
	DD	0534a53H
	DD	01d191dH
	DD	04b434bH
	DD	05b525bH
	DD	0f500H
	DD	0141d14H
	DD	03a2d3aH
	DD	018301H
	DD	0151115H
	DD	0252125H
	DD	0105410H
	DD	0483e48H
	DD	0797079H
	DD	0b500H
	DD	0b900H
	DD	0c500H
	DD	0c900H
	DD	0ee00H
	DD	0f100H
	DD	0878688H
	DD	070007H
	DD	043504H
	DD	0211521H
	DD	0312a31H
	DD	03b313bH
	DD	0433c43H
	DD	06e656eH
	DD	0766976H
	DD	0777778H
	DD	09a00H
	DD	0d500H
	DD	08b8b8cH
	DD	051405H
	DD	021902H
	DD	0b3c0bH
	DD	0223b22H
	DD	015a01H
	DD	06400H
	DD	016c01H
	DD	08e00H
	DD	019101H
	DD	0a200H
	DD	0c000H
	DD	08a868aH
	DD	0a19ca1H
	DD	0a3a3a4H
	DD	0aea3aeH
	DD	0b9b4b9H
	DD	0c160cH
	DD	06a00H
	DD	017101H
	DD	07600H
	DD	0236323H
	DD	0435043H
	DD	0524652H
	DD	0696069H
	DD	06e6a6eH
	DD	0726672H
	DD	0797679H
	DD	07e757eH
	DD	0a500H
	DD	0b100H
	DD	0cd00H
	DD	0d100H
	DD	0817681H
	DD	0827882H
	DD	0827e82H
	DD	08c828cH
	DD	0908d90H
	DD	0999699H
	DD	0ac9eacH
	DD	0ababacH
	DD	0c3c3c4H
	DD	0600H
	DD	0800H
	DD	080708H
	DD	0e010eH
	DD	0c090cH
	DD	071807H
	DD	071d07H
	DD	0110511H
	DD	01c061dH
	DD	0190d19H
	DD	0131314H
	DD	01b1c1bH
	DD	02f00H
	DD	052a05H
	DD	072c07H
	DD	013a01H
	DD	0102910H
	DD	0172c17H
	DD	01b2b1bH
	DD	0193019H
	DD	0281b28H
	DD	0232c24H
	DD	02f3d2fH
	DD	0332733H
	DD	0382438H
	DD	0a4d0aH
	DD	0f580fH
	DD	01b411bH
	DD	0f5710H
	DD	016001H
	DD	066006H
	DD	056905H
	DD	0a650aH
	DD	057305H
	DD	067506H
	DD	047c04H
	DD	097409H
	DD	0d730dH
	DD	01a601aH
	DD	0205f20H
	DD	0245a24H
	DD	02d512dH
	DD	0324a32H
	DD	0305530H
	DD	0257325H
	DD	0413240H
	DD	03f4d40H
	DD	0464648H
	DD	04a5a4aH
	DD	0584c58H
	DD	0575758H
	DD	0575858H
	DD	0436b43H
	DD	05f5f60H
	DD	0615461H
	DD	0675a67H
	DD	0695f69H
	DD	0676768H
	DD	06a666bH
	DD	06c626cH
	DD	06b6b6cH
	DD	06f6570H
	DD	0736a73H
	DD	0706e70H
	DD	0746c74H
	DD	0776e78H
	DD	0767076H
	DD	07c727cH
	DD	048c04H
	DD	099309H
	DD	0318131H
	DD	0e000H
	DD	0807380H
	DD	0847884H
	DD	0857c86H
	DD	0887e89H
	DD	08d8a8dH
	DD	0908190H
	DD	0918891H
	DD	0978e97H
	DD	09a8e9aH
	DD	0a0a09fH
	DD	0a092a0H
	DD	0a497a4H
	DD	0a5a1a5H
	DD	0b6a8b6H
	DD	0b6afb7H
	DD	0b3b3b4H
	DD	0b7b0b7H
	DD	0b7b8b7H
	DD	0bbbbbcH
	DD	0bcb8bcH
	DD	0bfbfc0H
	DD	0c0b9c0H
	DD	0cbcbccH
	DD	0d3d3d4H
	DD	0d8d6d8H
	DD	0dddbddH
	DD	0e0dce0H
	DD	0e4e1e4H
_PalFormatSD DD	0100H
	DB	00H
	ORG $+3
	DD	FLAT:_ColorsFormatSD
_bmFormatSD DW	0b2H
	DW	073H
	DW	0b2H
	DW	08H
	DD	FLAT:_acFormatSD
	DD	FLAT:_PalFormatSD
	ORG $+4
_acFormatSD DB	00H
	DB	00H
	DB	00H
	DB	00H
	DB	00H
	DB	00H
	DB	00H
	DB	00H
	DB	00H
	DB	00H
	DB	00H
	DB	00H
	DB	00H
	DB	00H
	DB	00H
	DB	00H
	DB	00H
	DB	00H
	DB	00H
	DB	00H
	DB	00H
	DB	00H
	DB	00H
	DB	00H
	DB	00H
	DB	00H
	DB	00H
	DB	00H
	DB	00H
	DB	00H
	DB	00H
	DB	00H
	DB	00H
	DB	00H
	DB	00H
	DB	00H
	DB	00H
	DB	00H
	DB	00H
	DB	00H
	DB	00H
	DB	00H
	DB	00H
	DB	00H
	DB	00H
	DB	00H
	DB	00H
	DB	00H
	DB	00H
	DB	00H
	DB	00H
	DB	00H
	DB	00H
	DB	00H
	DB	00H
	DB	00H
	DB	00H
	DB	00H
	DB	00H
	DB	00H
	DB	00H
	DB	00H
	DB	00H
	DB	00H
	DB	00H
	DB	00H
	DB	00H
	DB	00H
	DB	00H
	DB	00H
	DB	00H
	DB	00H
	DB	00H
	DB	00H
	DB	00H
	DB	00H
	DB	00H
	DB	00H
	DB	00H
	DB	00H
	DB	00H
	DB	00H
	DB	00H
	DB	00H
	DB	00H
	DB	00H
	DB	00H
	DB	00H
	DB	00H
	DB	00H
	DB	00H
	DB	00H
	DB	00H
	DB	00H
	DB	00H
	DB	00H
	DB	00H
	DB	00H
	DB	00H
	DB	00H
	DB	00H
	DB	00H
	DB	00H
	DB	00H
	DB	00H
	DB	00H
	DB	00H
	DB	00H
	DB	00H
	DB	00H
	DB	00H
	DB	00H
	DB	00H
	DB	00H
	DB	00H
	DB	00H
	DB	00H
	DB	00H
	DB	00H
	DB	00H
	DB	00H
	DB	00H
	DB	00H
	DB	00H
	DB	00H
	DB	00H
	DB	00H
	DB	00H
	DB	00H
	DB	00H
	DB	00H
	DB	00H
	DB	00H
	DB	00H
	DB	00H
	DB	00H
	DB	00H
	DB	00H
	DB	00H
	DB	00H
	DB	00H
	DB	00H
	DB	00H
	DB	00H
	DB	00H
	DB	00H
	DB	00H
	DB	00H
	DB	00H
	DB	00H
	DB	00H
	DB	00H
	DB	00H
	DB	00H
	DB	00H
	DB	00H
	DB	00H
	DB	00H
	DB	00H
	DB	00H
	DB	00H
	DB	00H
	DB	00H
	DB	00H
	DB	00H
	DB	00H
	DB	00H
	DB	00H
	DB	00H
	DB	00H
	DB	00H
	DB	00H
	DB	00H
	DB	00H
	DB	00H
	DB	00H
	DB	00H
	DB	00H
	DB	00H
	DB	00H
	DB	00H
	DB	00H
	DB	00H
	DB	00H
	DB	00H
	DB	00H
	DB	00H
	DB	00H
	DB	00H
	DB	00H
	DB	00H
	DB	00H
	DB	00H
	DB	00H
	DB	00H
	DB	00H
	DB	00H
	DB	00H
	DB	00H
	DB	00H
	DB	00H
	DB	00H
	DB	00H
	DB	00H
	DB	00H
	DB	00H
	DB	00H
	DB	00H
	DB	00H
	DB	00H
	DB	00H
	DB	00H
	DB	00H
	DB	00H
	DB	00H
	DB	00H
	DB	00H
	DB	00H
	DB	00H
	DB	00H
	DB	00H
	DB	00H
	DB	00H
	DB	00H
	DB	00H
	DB	00H
	DB	00H
	DB	00H
	DB	00H
	DB	00H
	DB	00H
	DB	00H
	DB	00H
	DB	00H
	DB	00H
	DB	00H
	DB	00H
	DB	00H
	DB	00H
	DB	00H
	DB	00H
	DB	00H
	DB	00H
	DB	00H
	DB	00H
	DB	00H
	DB	00H
	DB	00H
	DB	00H
	DB	00H
	DB	00H
	DB	00H
	DB	00H
	DB	00H
	DB	00H
	DB	00H
	DB	00H
	DB	00H
	DB	00H
	DB	00H
	DB	00H
	DB	00H
	DB	00H
	DB	00H
	DB	00H
	DB	00H
	DB	00H
	DB	00H
	DB	00H
	DB	00H
	DB	00H
	DB	00H
	DB	00H
	DB	00H
	DB	00H
	DB	00H
	DB	00H
	DB	00H
	DB	00H
	DB	00H
	DB	00H
	DB	00H
	DB	00H
	DB	00H
	DB	00H
	DB	00H
	DB	00H
	DB	00H
	DB	00H
	DB	00H
	DB	00H
	DB	00H
	DB	00H
	DB	00H
	DB	00H
	DB	00H
	DB	00H
	DB	00H
	DB	00H
	DB	00H
	DB	00H
	DB	00H
	DB	00H
	DB	00H
	DB	00H
	DB	00H
	DB	00H
	DB	00H
	DB	00H
	DB	00H
	DB	00H
	DB	00H
	DB	00H
	DB	00H
	DB	00H
	DB	00H
	DB	00H
	DB	00H
	DB	00H
	DB	00H
	DB	00H
	DB	00H
	DB	00H
	DB	00H
	DB	00H
	DB	00H
	DB	00H
	DB	00H
	DB	00H
	DB	00H
	DB	00H
	DB	00H
	DB	00H
	DB	00H
	DB	00H
	DB	00H
	DB	00H
	DB	00H
	DB	00H
	DB	00H
	DB	00H
	DB	00H
	DB	00H
	DB	00H
	DB	00H
	DB	00H
	DB	00H
	DB	00H
	DB	00H
	DB	00H
	DB	00H
	DB	00H
	DB	00H
	DB	00H
	DB	00H
	DB	00H
	DB	00H
	DB	00H
	DB	00H
	DB	00H
	DB	00H
	DB	00H
	DB	00H
	DB	00H
	DB	00H
	DB	00H
	DB	00H
	DB	00H
	DB	00H
	DB	00H
	DB	00H
	DB	00H
	DB	00H
	DB	00H
	DB	00H
	DB	00H
	DB	00H
	DB	00H
	DB	00H
	DB	00H
	DB	00H
	DB	00H
	DB	00H
	DB	00H
	DB	00H
	DB	00H
	DB	00H
	DB	00H
	DB	00H
	DB	00H
	DB	00H
	DB	00H
	DB	00H
	DB	00H
	DB	00H
	DB	00H
	DB	00H
	DB	00H
	DB	00H
	DB	00H
	DB	00H
	DB	00H
	DB	00H
	DB	00H
	DB	00H
	DB	00H
	DB	00H
	DB	00H
	DB	00H
	DB	00H
	DB	00H
	DB	00H
	DB	00H
	DB	00H
	DB	00H
	DB	00H
	DB	00H
	DB	00H
	DB	00H
	DB	00H
	DB	00H
	DB	00H
	DB	00H
	DB	00H
	DB	00H
	DB	00H
	DB	00H
	DB	00H
	DB	00H
	DB	00H
	DB	00H
	DB	00H
	DB	00H
	DB	00H
	DB	00H
	DB	00H
	DB	00H
	DB	00H
	DB	00H
	DB	00H
	DB	00H
	DB	00H
	DB	00H
	DB	00H
	DB	00H
	DB	00H
	DB	00H
	DB	00H
	DB	00H
	DB	00H
	DB	00H
	DB	00H
	DB	00H
	DB	00H
	DB	00H
	DB	00H
	DB	00H
	DB	00H
	DB	00H
	DB	00H
	DB	00H
	DB	00H
	DB	00H
	DB	00H
	DB	00H
	DB	00H
	DB	00H
	DB	00H
	DB	00H
	DB	00H
	DB	00H
	DB	00H
	DB	00H
	DB	00H
	DB	00H
	DB	00H
	DB	00H
	DB	00H
	DB	00H
	DB	00H
	DB	00H
	DB	00H
	DB	00H
	DB	00H
	DB	00H
	DB	00H
	DB	00H
	DB	00H
	DB	00H
	DB	00H
	DB	00H
	DB	00H
	DB	00H
	DB	00H
	DB	00H
	DB	00H
	DB	00H
	DB	00H
	DB	00H
	DB	00H
	DB	00H
	DB	00H
	DB	00H
	DB	00H
	DB	00H
	DB	00H
	DB	00H
	DB	00H
	DB	00H
	DB	00H
	DB	00H
	DB	00H
	DB	00H
	DB	00H
	DB	00H
	DB	00H
	DB	00H
	DB	00H
	DB	00H
	DB	00H
	DB	00H
	DB	00H
	DB	00H
	DB	00H
	DB	00H
	DB	00H
	DB	00H
	DB	00H
	DB	00H
	DB	00H
	DB	00H
	DB	00H
	DB	00H
	DB	00H
	DB	00H
	DB	00H
	DB	00H
	DB	00H
	DB	00H
	DB	00H
	DB	00H
	DB	00H
	DB	00H
	DB	00H
	DB	00H
	DB	00H
	DB	00H
	DB	00H
	DB	00H
	DB	00H
	DB	00H
	DB	00H
	DB	00H
	DB	00H
	DB	00H
	DB	00H
	DB	00H
	DB	00H
	DB	00H
	DB	00H
	DB	00H
	DB	00H
	DB	00H
	DB	00H
	DB	00H
	DB	00H
	DB	00H
	DB	00H
	DB	00H
	DB	00H
	DB	00H
	DB	00H
	DB	00H
	DB	00H
	DB	00H
	DB	00H
	DB	00H
	DB	00H
	DB	00H
	DB	00H
	DB	00H
	DB	00H
	DB	00H
	DB	00H
	DB	00H
	DB	00H
	DB	00H
	DB	00H
	DB	00H
	DB	00H
	DB	00H
	DB	00H
	DB	00H
	DB	00H
	DB	00H
	DB	00H
	DB	00H
	DB	00H
	DB	00H
	DB	00H
	DB	00H
	DB	00H
	DB	00H
	DB	00H
	DB	00H
	DB	00H
	DB	00H
	DB	00H
	DB	00H
	DB	00H
	DB	00H
	DB	00H
	DB	00H
	DB	00H
	DB	00H
	DB	00H
	DB	00H
	DB	00H
	DB	00H
	DB	00H
	DB	00H
	DB	00H
	DB	00H
	DB	00H
	DB	00H
	DB	00H
	DB	00H
	DB	00H
	DB	00H
	DB	00H
	DB	00H
	DB	00H
	DB	00H
	DB	00H
	DB	00H
	DB	00H
	DB	00H
	DB	00H
	DB	00H
	DB	00H
	DB	00H
	DB	00H
	DB	00H
	DB	00H
	DB	00H
	DB	00H
	DB	00H
	DB	00H
	DB	00H
	DB	00H
	DB	00H
	DB	00H
	DB	00H
	DB	00H
	DB	00H
	DB	00H
	DB	00H
	DB	00H
	DB	00H
	DB	00H
	DB	00H
	DB	00H
	DB	00H
	DB	00H
	DB	00H
	DB	00H
	DB	00H
	DB	00H
	DB	00H
	DB	00H
	DB	00H
	DB	00H
	DB	00H
	DB	00H
	DB	00H
	DB	00H
	DB	00H
	DB	00H
	DB	00H
	DB	00H
	DB	00H
	DB	00H
	DB	00H
	DB	00H
	DB	00H
	DB	00H
	DB	00H
	DB	00H
	DB	00H
	DB	00H
	DB	00H
	DB	00H
	DB	00H
	DB	00H
	DB	00H
	DB	00H
	DB	00H
	DB	00H
	DB	00H
	DB	00H
	DB	00H
	DB	00H
	DB	00H
	DB	00H
	DB	00H
	DB	00H
	DB	00H
	DB	00H
	DB	00H
	DB	00H
	DB	00H
	DB	00H
	DB	00H
	DB	00H
	DB	00H
	DB	00H
	DB	00H
	DB	00H
	DB	00H
	DB	00H
	DB	00H
	DB	00H
	DB	00H
	DB	00H
	DB	00H
	DB	00H
	DB	00H
	DB	00H
	DB	00H
	DB	00H
	DB	00H
	DB	00H
	DB	00H
	DB	00H
	DB	00H
	DB	00H
	DB	00H
	DB	00H
	DB	00H
	DB	00H
	DB	00H
	DB	00H
	DB	00H
	DB	00H
	DB	00H
	DB	00H
	DB	00H
	DB	00H
	DB	00H
	DB	00H
	DB	00H
	DB	00H
	DB	00H
	DB	00H
	DB	00H
	DB	00H
	DB	00H
	DB	00H
	DB	00H
	DB	00H
	DB	00H
	DB	00H
	DB	00H
	DB	00H
	DB	00H
	DB	00H
	DB	00H
	DB	00H
	DB	00H
	DB	00H
	DB	00H
	DB	00H
	DB	00H
	DB	00H
	DB	00H
	DB	00H
	DB	00H
	DB	00H
	DB	00H
	DB	00H
	DB	00H
	DB	00H
	DB	00H
	DB	00H
	DB	00H
	DB	00H
	DB	00H
	DB	00H
	DB	00H
	DB	00H
	DB	00H
	DB	00H
	DB	00H
	DB	00H
	DB	00H
	DB	00H
	DB	00H
	DB	00H
	DB	00H
	DB	00H
	DB	00H
	DB	00H
	DB	00H
	DB	00H
	DB	00H
	DB	00H
	DB	00H
	DB	00H
	DB	00H
	DB	00H
	DB	00H
	DB	00H
	DB	00H
	DB	00H
	DB	00H
	DB	00H
	DB	00H
	DB	00H
	DB	00H
	DB	00H
	DB	00H
	DB	00H
	DB	00H
	DB	00H
	DB	00H
	DB	00H
	DB	00H
	DB	00H
	DB	00H
	DB	00H
	DB	00H
	DB	00H
	DB	00H
	DB	00H
	DB	00H
	DB	00H
	DB	00H
	DB	00H
	DB	00H
	DB	00H
	DB	00H
	DB	00H
	DB	00H
	DB	00H
	DB	00H
	DB	00H
	DB	00H
	DB	00H
	DB	00H
	DB	00H
	DB	09dH
	DB	085H
	DB	060H
	DB	060H
	DB	078H
	DB	00H
	DB	00H
	DB	00H
	DB	00H
	DB	00H
	DB	00H
	DB	00H
	DB	00H
	DB	00H
	DB	00H
	DB	00H
	DB	00H
	DB	00H
	DB	00H
	DB	00H
	DB	00H
	DB	00H
	DB	00H
	DB	00H
	DB	00H
	DB	00H
	DB	00H
	DB	00H
	DB	00H
	DB	00H
	DB	00H
	DB	00H
	DB	00H
	DB	00H
	DB	00H
	DB	00H
	DB	00H
	DB	00H
	DB	00H
	DB	00H
	DB	00H
	DB	00H
	DB	00H
	DB	00H
	DB	00H
	DB	00H
	DB	00H
	DB	00H
	DB	00H
	DB	00H
	DB	00H
	DB	00H
	DB	00H
	DB	00H
	DB	00H
	DB	00H
	DB	00H
	DB	00H
	DB	00H
	DB	00H
	DB	00H
	DB	00H
	DB	00H
	DB	00H
	DB	00H
	DB	00H
	DB	00H
	DB	00H
	DB	00H
	DB	00H
	DB	00H
	DB	00H
	DB	00H
	DB	00H
	DB	00H
	DB	00H
	DB	00H
	DB	00H
	DB	00H
	DB	00H
	DB	00H
	DB	00H
	DB	00H
	DB	00H
	DB	00H
	DB	00H
	DB	00H
	DB	00H
	DB	00H
	DB	00H
	DB	00H
	DB	00H
	DB	00H
	DB	00H
	DB	00H
	DB	00H
	DB	00H
	DB	00H
	DB	00H
	DB	00H
	DB	00H
	DB	00H
	DB	00H
	DB	00H
	DB	00H
	DB	00H
	DB	00H
	DB	00H
	DB	00H
	DB	00H
	DB	00H
	DB	00H
	DB	00H
	DB	00H
	DB	00H
	DB	00H
	DB	00H
	DB	00H
	DB	00H
	DB	00H
	DB	00H
	DB	00H
	DB	00H
	DB	00H
	DB	00H
	DB	00H
	DB	00H
	DB	00H
	DB	00H
	DB	00H
	DB	00H
	DB	00H
	DB	00H
	DB	00H
	DB	00H
	DB	00H
	DB	00H
	DB	00H
	DB	00H
	DB	00H
	DB	00H
	DB	00H
	DB	00H
	DB	00H
	DB	00H
	DB	00H
	DB	00H
	DB	00H
	DB	00H
	DB	00H
	DB	00H
	DB	00H
	DB	00H
	DB	00H
	DB	00H
	DB	00H
	DB	00H
	DB	00H
	DB	00H
	DB	00H
	DB	00H
	DB	00H
	DB	00H
	DB	00H
	DB	00H
	DB	00H
	DB	00H
	DB	00H
	DB	00H
	DB	00H
	DB	00H
	DB	00H
	DB	00H
	DB	00H
	DB	00H
	DB	00H
	DB	00H
	DB	074H
	DB	046H
	DB	0aH
	DB	0aH
	DB	0aH
	DB	0aH
	DB	07cH
	DB	09cH
	DB	00H
	DB	00H
	DB	00H
	DB	00H
	DB	00H
	DB	00H
	DB	00H
	DB	00H
	DB	00H
	DB	00H
	DB	00H
	DB	00H
	DB	00H
	DB	00H
	DB	00H
	DB	00H
	DB	00H
	DB	00H
	DB	00H
	DB	00H
	DB	00H
	DB	00H
	DB	00H
	DB	00H
	DB	00H
	DB	00H
	DB	00H
	DB	00H
	DB	00H
	DB	00H
	DB	00H
	DB	00H
	DB	00H
	DB	00H
	DB	00H
	DB	00H
	DB	00H
	DB	00H
	DB	00H
	DB	00H
	DB	00H
	DB	00H
	DB	00H
	DB	02bH
	DB	0eH
	DB	0eH
	DB	0eH
	DB	0eH
	DB	0eH
	DB	0eH
	DB	0eH
	DB	0eH
	DB	0eH
	DB	0eH
	DB	0eH
	DB	0eH
	DB	0eH
	DB	0eH
	DB	0eH
	DB	0eH
	DB	0eH
	DB	0eH
	DB	0eH
	DB	0eH
	DB	0eH
	DB	0eH
	DB	0eH
	DB	0eH
	DB	0eH
	DB	0eH
	DB	0eH
	DB	0eH
	DB	0eH
	DB	0eH
	DB	0eH
	DB	0eH
	DB	0eH
	DB	0eH
	DB	0eH
	DB	0eH
	DB	0eH
	DB	0eH
	DB	0eH
	DB	0eH
	DB	0eH
	DB	0eH
	DB	0eH
	DB	0eH
	DB	0eH
	DB	0eH
	DB	0eH
	DB	0eH
	DB	0eH
	DB	0eH
	DB	0eH
	DB	0eH
	DB	0eH
	DB	0eH
	DB	0eH
	DB	0eH
	DB	0eH
	DB	0eH
	DB	0eH
	DB	0eH
	DB	0eH
	DB	0eH
	DB	0eH
	DB	0eH
	DB	0eH
	DB	0eH
	DB	0eH
	DB	0eH
	DB	0eH
	DB	0eH
	DB	0eH
	DB	0eH
	DB	0eH
	DB	0eH
	DB	0eH
	DB	0eH
	DB	0eH
	DB	0eH
	DB	0eH
	DB	0eH
	DB	0eH
	DB	0eH
	DB	0eH
	DB	0eH
	DB	0eH
	DB	0eH
	DB	0eH
	DB	0eH
	DB	0eH
	DB	0eH
	DB	0eH
	DB	0eH
	DB	0eH
	DB	0eH
	DB	0eH
	DB	0eH
	DB	0eH
	DB	0eH
	DB	0eH
	DB	0eH
	DB	0eH
	DB	0eH
	DB	0eH
	DB	0eH
	DB	0eH
	DB	0eH
	DB	0eH
	DB	0eH
	DB	0eH
	DB	0eH
	DB	0eH
	DB	0eH
	DB	0eH
	DB	0eH
	DB	0eH
	DB	0eH
	DB	0eH
	DB	0eH
	DB	0eH
	DB	0eH
	DB	0eH
	DB	0eH
	DB	0eH
	DB	0a6H
	DB	032H
	DB	0a8H
	DB	071H
	DB	0aH
	DB	0aH
	DB	0aH
	DB	0aH
	DB	0aH
	DB	0aH
	DB	079H
	DB	032H
	DB	0eH
	DB	0eH
	DB	0eH
	DB	0eH
	DB	0eH
	DB	0eH
	DB	0eH
	DB	0eH
	DB	0eH
	DB	0eH
	DB	0eH
	DB	0eH
	DB	0eH
	DB	0eH
	DB	0eH
	DB	0eH
	DB	0eH
	DB	0eH
	DB	0eH
	DB	0eH
	DB	0eH
	DB	0eH
	DB	0eH
	DB	09eH
	DB	00H
	DB	00H
	DB	00H
	DB	00H
	DB	00H
	DB	00H
	DB	00H
	DB	00H
	DB	00H
	DB	00H
	DB	00H
	DB	00H
	DB	00H
	DB	00H
	DB	00H
	DB	00H
	DB	00H
	DB	041H
	DB	013H
	DB	06H
	DB	06H
	DB	06H
	DB	06H
	DB	06H
	DB	06H
	DB	06H
	DB	06H
	DB	06H
	DB	06H
	DB	06H
	DB	06H
	DB	06H
	DB	06H
	DB	06H
	DB	06H
	DB	06H
	DB	06H
	DB	06H
	DB	06H
	DB	06H
	DB	06H
	DB	06H
	DB	06H
	DB	06H
	DB	06H
	DB	06H
	DB	06H
	DB	06H
	DB	06H
	DB	06H
	DB	06H
	DB	06H
	DB	06H
	DB	06H
	DB	06H
	DB	06H
	DB	06H
	DB	06H
	DB	06H
	DB	06H
	DB	06H
	DB	06H
	DB	06H
	DB	06H
	DB	06H
	DB	06H
	DB	06H
	DB	06H
	DB	06H
	DB	06H
	DB	06H
	DB	06H
	DB	06H
	DB	06H
	DB	06H
	DB	06H
	DB	06H
	DB	06H
	DB	06H
	DB	06H
	DB	06H
	DB	06H
	DB	06H
	DB	06H
	DB	06H
	DB	06H
	DB	06H
	DB	06H
	DB	06H
	DB	06H
	DB	06H
	DB	06H
	DB	06H
	DB	06H
	DB	06H
	DB	06H
	DB	06H
	DB	06H
	DB	06H
	DB	06H
	DB	06H
	DB	06H
	DB	06H
	DB	06H
	DB	06H
	DB	06H
	DB	06H
	DB	06H
	DB	06H
	DB	06H
	DB	06H
	DB	06H
	DB	06H
	DB	06H
	DB	06H
	DB	06H
	DB	06H
	DB	06H
	DB	06H
	DB	06H
	DB	06H
	DB	06H
	DB	06H
	DB	06H
	DB	06H
	DB	06H
	DB	06H
	DB	06H
	DB	06H
	DB	06H
	DB	06H
	DB	06H
	DB	06H
	DB	06H
	DB	06H
	DB	06H
	DB	06H
	DB	06H
	DB	06H
	DB	06H
	DB	06H
	DB	09H
	DB	0eeH
	DB	0c3H
	DB	03bH
	DB	0aH
	DB	0aH
	DB	0aH
	DB	0aH
	DB	0aH
	DB	0aH
	DB	0aH
	DB	061H
	DB	06dH
	DB	09H
	DB	06H
	DB	06H
	DB	06H
	DB	06H
	DB	06H
	DB	06H
	DB	06H
	DB	06H
	DB	06H
	DB	06H
	DB	06H
	DB	06H
	DB	06H
	DB	06H
	DB	06H
	DB	06H
	DB	06H
	DB	06H
	DB	06H
	DB	06H
	DB	06H
	DB	0f8H
	DB	029H
	DB	07H
	DB	01cH
	DB	00H
	DB	00H
	DB	00H
	DB	00H
	DB	00H
	DB	00H
	DB	00H
	DB	00H
	DB	00H
	DB	00H
	DB	00H
	DB	00H
	DB	00H
	DB	00H
	DB	041H
	DB	039H
	DB	037H
	DB	01bH
	DB	01bH
	DB	01bH
	DB	01bH
	DB	01bH
	DB	01bH
	DB	01bH
	DB	01bH
	DB	01bH
	DB	01bH
	DB	01bH
	DB	01bH
	DB	01bH
	DB	01bH
	DB	01bH
	DB	01bH
	DB	01bH
	DB	01bH
	DB	01bH
	DB	01bH
	DB	01bH
	DB	01bH
	DB	01bH
	DB	01bH
	DB	01bH
	DB	01bH
	DB	01bH
	DB	01bH
	DB	01bH
	DB	01bH
	DB	01bH
	DB	01bH
	DB	01bH
	DB	01bH
	DB	01bH
	DB	01bH
	DB	01bH
	DB	01bH
	DB	01bH
	DB	01bH
	DB	01bH
	DB	01bH
	DB	01bH
	DB	01bH
	DB	01bH
	DB	01bH
	DB	01bH
	DB	01bH
	DB	01bH
	DB	01bH
	DB	01bH
	DB	01bH
	DB	01bH
	DB	01bH
	DB	01bH
	DB	01bH
	DB	01bH
	DB	01bH
	DB	01bH
	DB	01bH
	DB	01bH
	DB	01bH
	DB	01bH
	DB	01bH
	DB	01bH
	DB	01bH
	DB	01bH
	DB	01bH
	DB	01bH
	DB	01bH
	DB	01bH
	DB	01bH
	DB	01bH
	DB	01bH
	DB	01bH
	DB	01bH
	DB	01bH
	DB	01bH
	DB	01bH
	DB	01bH
	DB	01bH
	DB	01bH
	DB	01bH
	DB	01bH
	DB	01bH
	DB	01bH
	DB	01bH
	DB	01bH
	DB	01bH
	DB	01bH
	DB	01bH
	DB	01bH
	DB	01bH
	DB	01bH
	DB	01bH
	DB	01bH
	DB	01bH
	DB	01bH
	DB	01bH
	DB	01bH
	DB	01bH
	DB	01bH
	DB	01bH
	DB	01bH
	DB	01bH
	DB	01bH
	DB	01bH
	DB	01bH
	DB	01bH
	DB	01bH
	DB	01bH
	DB	01bH
	DB	01bH
	DB	01bH
	DB	01bH
	DB	01bH
	DB	01bH
	DB	01bH
	DB	01bH
	DB	01bH
	DB	01bH
	DB	040H
	DB	0f1H
	DB	0e2H
	DB	050H
	DB	0aH
	DB	0aH
	DB	0aH
	DB	0aH
	DB	0aH
	DB	0aH
	DB	0aH
	DB	0aH
	DB	046H
	DB	0d8H
	DB	0ffH
	DB	01bH
	DB	01bH
	DB	01bH
	DB	01bH
	DB	01bH
	DB	01bH
	DB	01bH
	DB	01bH
	DB	01bH
	DB	01bH
	DB	01bH
	DB	01bH
	DB	01bH
	DB	01bH
	DB	01bH
	DB	01bH
	DB	01bH
	DB	01bH
	DB	01bH
	DB	01bH
	DB	01bH
	DB	01bH
	DB	02fH
	DB	039H
	DB	024H
	DB	00H
	DB	00H
	DB	00H
	DB	00H
	DB	00H
	DB	00H
	DB	00H
	DB	00H
	DB	00H
	DB	00H
	DB	00H
	DB	00H
	DB	00H
	DB	00H
	DB	0fH
	DB	02fH
	DB	01eH
	DB	01eH
	DB	01eH
	DB	01eH
	DB	01eH
	DB	01eH
	DB	01eH
	DB	01eH
	DB	01eH
	DB	01eH
	DB	01eH
	DB	01eH
	DB	01eH
	DB	01eH
	DB	01eH
	DB	01eH
	DB	01eH
	DB	01eH
	DB	01eH
	DB	01eH
	DB	01eH
	DB	01eH
	DB	01eH
	DB	01eH
	DB	01eH
	DB	01eH
	DB	01eH
	DB	01eH
	DB	01eH
	DB	01eH
	DB	01eH
	DB	01eH
	DB	01eH
	DB	01eH
	DB	01eH
	DB	01eH
	DB	01eH
	DB	01eH
	DB	01eH
	DB	01eH
	DB	01eH
	DB	01eH
	DB	01eH
	DB	01eH
	DB	01eH
	DB	01eH
	DB	01eH
	DB	01eH
	DB	01eH
	DB	01eH
	DB	01eH
	DB	01eH
	DB	01eH
	DB	01eH
	DB	01eH
	DB	01eH
	DB	01eH
	DB	01eH
	DB	01eH
	DB	01eH
	DB	01eH
	DB	01eH
	DB	01eH
	DB	01eH
	DB	01eH
	DB	01eH
	DB	01eH
	DB	01eH
	DB	01eH
	DB	01eH
	DB	01eH
	DB	01eH
	DB	01eH
	DB	01eH
	DB	01eH
	DB	01eH
	DB	01eH
	DB	01eH
	DB	01eH
	DB	01eH
	DB	01eH
	DB	01eH
	DB	01eH
	DB	0fbH
	DB	0fdH
	DB	01bH
	DB	01bH
	DB	01bH
	DB	01bH
	DB	01bH
	DB	01bH
	DB	01bH
	DB	01bH
	DB	01bH
	DB	01bH
	DB	01bH
	DB	01bH
	DB	01bH
	DB	01bH
	DB	01bH
	DB	01bH
	DB	01bH
	DB	01bH
	DB	01bH
	DB	01bH
	DB	01bH
	DB	01bH
	DB	01bH
	DB	01bH
	DB	01bH
	DB	01bH
	DB	01bH
	DB	01bH
	DB	01bH
	DB	01bH
	DB	01bH
	DB	01bH
	DB	0fcH
	DB	01eH
	DB	01eH
	DB	01eH
	DB	047H
	DB	0e5H
	DB	0c1H
	DB	065H
	DB	0aH
	DB	0aH
	DB	0aH
	DB	0aH
	DB	0aH
	DB	0aH
	DB	0aH
	DB	0aH
	DB	0aH
	DB	07aH
	DB	06eH
	DB	022H
	DB	01eH
	DB	01eH
	DB	01eH
	DB	01eH
	DB	01eH
	DB	01eH
	DB	01eH
	DB	01eH
	DB	01eH
	DB	01eH
	DB	01eH
	DB	01eH
	DB	01eH
	DB	01eH
	DB	01eH
	DB	01eH
	DB	01eH
	DB	01eH
	DB	01eH
	DB	01eH
	DB	01eH
	DB	01eH
	DB	01eH
	DB	0fcH
	DB	0f6H
	DB	021H
	DB	00H
	DB	00H
	DB	00H
	DB	00H
	DB	00H
	DB	00H
	DB	00H
	DB	00H
	DB	00H
	DB	00H
	DB	00H
	DB	00H
	DB	00H
	DB	0f8H
	DB	0fcH
	DB	02H
	DB	02H
	DB	02H
	DB	02H
	DB	02H
	DB	02H
	DB	02H
	DB	02H
	DB	02H
	DB	02H
	DB	02H
	DB	02H
	DB	02H
	DB	02H
	DB	02H
	DB	02H
	DB	02H
	DB	02H
	DB	02H
	DB	02H
	DB	02H
	DB	02H
	DB	02H
	DB	02H
	DB	02H
	DB	02H
	DB	02H
	DB	02H
	DB	02H
	DB	02H
	DB	02H
	DB	02H
	DB	02H
	DB	02H
	DB	02H
	DB	02H
	DB	02H
	DB	02H
	DB	02H
	DB	02H
	DB	02H
	DB	02H
	DB	02H
	DB	02H
	DB	02H
	DB	02H
	DB	02H
	DB	01eH
	DB	0fbH
	DB	0fcH
	DB	022H
	DB	022H
	DB	022H
	DB	022H
	DB	022H
	DB	022H
	DB	022H
	DB	022H
	DB	022H
	DB	022H
	DB	022H
	DB	022H
	DB	022H
	DB	022H
	DB	022H
	DB	022H
	DB	022H
	DB	022H
	DB	022H
	DB	022H
	DB	022H
	DB	022H
	DB	022H
	DB	022H
	DB	022H
	DB	022H
	DB	022H
	DB	022H
	DB	022H
	DB	022H
	DB	022H
	DB	022H
	DB	047H
	DB	0f2H
	DB	03fH
	DB	038H
	DB	038H
	DB	038H
	DB	038H
	DB	038H
	DB	038H
	DB	038H
	DB	038H
	DB	038H
	DB	038H
	DB	038H
	DB	038H
	DB	038H
	DB	038H
	DB	038H
	DB	038H
	DB	038H
	DB	038H
	DB	038H
	DB	038H
	DB	038H
	DB	038H
	DB	038H
	DB	038H
	DB	038H
	DB	038H
	DB	038H
	DB	038H
	DB	038H
	DB	038H
	DB	038H
	DB	0d5H
	DB	07fH
	DB	0fbH
	DB	01eH
	DB	0fcH
	DB	0e4H
	DB	079H
	DB	033H
	DB	0aH
	DB	0aH
	DB	0aH
	DB	0aH
	DB	0aH
	DB	0aH
	DB	0aH
	DB	0aH
	DB	0aH
	DB	063H
	DB	0afH
	DB	098H
	DB	0fbH
	DB	02H
	DB	02H
	DB	02H
	DB	02H
	DB	02H
	DB	02H
	DB	02H
	DB	02H
	DB	02H
	DB	02H
	DB	02H
	DB	02H
	DB	02H
	DB	02H
	DB	02H
	DB	02H
	DB	02H
	DB	02H
	DB	02H
	DB	02H
	DB	02H
	DB	02H
	DB	02H
	DB	0fbH
	DB	029H
	DB	021H
	DB	00H
	DB	00H
	DB	00H
	DB	00H
	DB	00H
	DB	00H
	DB	00H
	DB	00H
	DB	00H
	DB	00H
	DB	00H
	DB	00H
	DB	00H
	DB	0f6H
	DB	022H
	DB	02H
	DB	02H
	DB	02H
	DB	02H
	DB	02H
	DB	02H
	DB	02H
	DB	02H
	DB	02H
	DB	02H
	DB	02H
	DB	02H
	DB	02H
	DB	02H
	DB	02H
	DB	02H
	DB	02H
	DB	02H
	DB	02H
	DB	02H
	DB	02H
	DB	02H
	DB	02H
	DB	02H
	DB	02H
	DB	02H
	DB	02H
	DB	02H
	DB	02H
	DB	02H
	DB	02H
	DB	02H
	DB	02H
	DB	02H
	DB	02H
	DB	02H
	DB	02H
	DB	02H
	DB	02H
	DB	02H
	DB	02H
	DB	02H
	DB	02H
	DB	02H
	DB	02H
	DB	02H
	DB	01eH
	DB	0cH
	DB	0f3H
	DB	016H
	DB	016H
	DB	016H
	DB	016H
	DB	016H
	DB	016H
	DB	016H
	DB	016H
	DB	016H
	DB	016H
	DB	016H
	DB	016H
	DB	016H
	DB	016H
	DB	016H
	DB	016H
	DB	016H
	DB	016H
	DB	016H
	DB	016H
	DB	016H
	DB	016H
	DB	016H
	DB	016H
	DB	016H
	DB	016H
	DB	016H
	DB	016H
	DB	016H
	DB	016H
	DB	016H
	DB	016H
	DB	029H
	DB	0ebH
	DB	0c2H
	DB	062H
	DB	036H
	DB	034H
	DB	034H
	DB	034H
	DB	034H
	DB	034H
	DB	034H
	DB	034H
	DB	034H
	DB	034H
	DB	034H
	DB	034H
	DB	034H
	DB	034H
	DB	034H
	DB	034H
	DB	034H
	DB	034H
	DB	034H
	DB	034H
	DB	034H
	DB	034H
	DB	034H
	DB	034H
	DB	034H
	DB	034H
	DB	034H
	DB	034H
	DB	034H
	DB	034H
	DB	036H
	DB	071H
	DB	0beH
	DB	07eH
	DB	0feH
	DB	05fH
	DB	085H
	DB	033H
	DB	0aH
	DB	0aH
	DB	0aH
	DB	0aH
	DB	0aH
	DB	0aH
	DB	0aH
	DB	0aH
	DB	0aH
	DB	046H
	DB	0acH
	DB	06dH
	DB	015H
	DB	01eH
	DB	02H
	DB	02H
	DB	02H
	DB	02H
	DB	02H
	DB	02H
	DB	02H
	DB	02H
	DB	02H
	DB	02H
	DB	02H
	DB	02H
	DB	02H
	DB	02H
	DB	02H
	DB	02H
	DB	02H
	DB	02H
	DB	02H
	DB	02H
	DB	02H
	DB	02H
	DB	02H
	DB	01eH
	DB	016H
	DB	01fH
	DB	00H
	DB	00H
	DB	00H
	DB	00H
	DB	00H
	DB	00H
	DB	00H
	DB	00H
	DB	00H
	DB	00H
	DB	00H
	DB	00H
	DB	00H
	DB	08H
	DB	0fbH
	DB	0faH
	DB	0faH
	DB	0faH
	DB	0faH
	DB	0faH
	DB	0faH
	DB	0faH
	DB	0faH
	DB	0faH
	DB	0faH
	DB	0faH
	DB	0faH
	DB	0faH
	DB	0faH
	DB	0faH
	DB	0faH
	DB	0faH
	DB	0faH
	DB	0faH
	DB	0faH
	DB	0faH
	DB	0faH
	DB	0faH
	DB	0faH
	DB	0faH
	DB	0faH
	DB	0faH
	DB	0faH
	DB	0faH
	DB	0faH
	DB	0faH
	DB	0faH
	DB	0faH
	DB	0faH
	DB	0faH
	DB	0faH
	DB	0faH
	DB	0faH
	DB	0faH
	DB	0faH
	DB	0faH
	DB	0faH
	DB	0faH
	DB	0faH
	DB	0faH
	DB	0faH
	DB	02H
	DB	080H
	DB	0d1H
	DB	06cH
	DB	023H
	DB	023H
	DB	023H
	DB	023H
	DB	023H
	DB	023H
	DB	023H
	DB	023H
	DB	023H
	DB	023H
	DB	023H
	DB	023H
	DB	023H
	DB	023H
	DB	023H
	DB	023H
	DB	023H
	DB	023H
	DB	023H
	DB	023H
	DB	023H
	DB	023H
	DB	023H
	DB	023H
	DB	023H
	DB	023H
	DB	023H
	DB	023H
	DB	023H
	DB	023H
	DB	023H
	DB	06cH
	DB	021H
	DB	063H
	DB	0aH
	DB	064H
	DB	050H
	DB	050H
	DB	050H
	DB	050H
	DB	050H
	DB	050H
	DB	050H
	DB	050H
	DB	03bH
	DB	03bH
	DB	03bH
	DB	03bH
	DB	03bH
	DB	03bH
	DB	03bH
	DB	03bH
	DB	03bH
	DB	03bH
	DB	03bH
	DB	03bH
	DB	03bH
	DB	03bH
	DB	03bH
	DB	03bH
	DB	03bH
	DB	03bH
	DB	03bH
	DB	03bH
	DB	03bH
	DB	050H
	DB	0aH
	DB	050H
	DB	0d0H
	DB	06eH
	DB	0bfH
	DB	0aH
	DB	0aH
	DB	0aH
	DB	0aH
	DB	0aH
	DB	0aH
	DB	0aH
	DB	0aH
	DB	0aH
	DB	0aH
	DB	08fH
	DB	058H
	DB	0d9H
	DB	028H
	DB	02H
	DB	0faH
	DB	0faH
	DB	0faH
	DB	0faH
	DB	0faH
	DB	0faH
	DB	0faH
	DB	0faH
	DB	0faH
	DB	0faH
	DB	0faH
	DB	0faH
	DB	0faH
	DB	0faH
	DB	0faH
	DB	0faH
	DB	0faH
	DB	0faH
	DB	0faH
	DB	0faH
	DB	0faH
	DB	0faH
	DB	0faH
	DB	0faH
	DB	01eH
	DB	027H
	DB	0a7H
	DB	00H
	DB	00H
	DB	00H
	DB	00H
	DB	00H
	DB	00H
	DB	00H
	DB	00H
	DB	00H
	DB	00H
	DB	00H
	DB	00H
	DB	00H
	DB	028H
	DB	01eH
	DB	0cH
	DB	0cH
	DB	0cH
	DB	0cH
	DB	0cH
	DB	0cH
	DB	0cH
	DB	0cH
	DB	0cH
	DB	0cH
	DB	0cH
	DB	0cH
	DB	0cH
	DB	0cH
	DB	0cH
	DB	0cH
	DB	0cH
	DB	0cH
	DB	0cH
	DB	0cH
	DB	0cH
	DB	0cH
	DB	0cH
	DB	0cH
	DB	0cH
	DB	0cH
	DB	0cH
	DB	0cH
	DB	0cH
	DB	0cH
	DB	0cH
	DB	0cH
	DB	0cH
	DB	0cH
	DB	0cH
	DB	0cH
	DB	0cH
	DB	0cH
	DB	0cH
	DB	0cH
	DB	0cH
	DB	0cH
	DB	0cH
	DB	0cH
	DB	0cH
	DB	0cH
	DB	04H
	DB	06cH
	DB	0dH
	DB	017H
	DB	023H
	DB	023H
	DB	023H
	DB	023H
	DB	023H
	DB	023H
	DB	023H
	DB	023H
	DB	023H
	DB	023H
	DB	023H
	DB	023H
	DB	023H
	DB	023H
	DB	023H
	DB	023H
	DB	023H
	DB	023H
	DB	023H
	DB	023H
	DB	023H
	DB	023H
	DB	023H
	DB	023H
	DB	023H
	DB	023H
	DB	023H
	DB	023H
	DB	023H
	DB	023H
	DB	023H
	DB	023H
	DB	0aeH
	DB	036H
	DB	0aH
	DB	068H
	DB	042H
	DB	042H
	DB	0a2H
	DB	074H
	DB	074H
	DB	0a2H
	DB	0adH
	DB	03eH
	DB	076H
	DB	03eH
	DB	03eH
	DB	03eH
	DB	03eH
	DB	03eH
	DB	03eH
	DB	03eH
	DB	03eH
	DB	03eH
	DB	03eH
	DB	03eH
	DB	03eH
	DB	03eH
	DB	03eH
	DB	03eH
	DB	03eH
	DB	03eH
	DB	03eH
	DB	03eH
	DB	03eH
	DB	048H
	DB	063H
	DB	0aH
	DB	05dH
	DB	0c0H
	DB	0aH
	DB	0aH
	DB	0aH
	DB	0aH
	DB	0aH
	DB	0aH
	DB	0aH
	DB	0aH
	DB	0aH
	DB	0aH
	DB	07aH
	DB	01fH
	DB	05fH
	DB	06H
	DB	0faH
	DB	0cH
	DB	0cH
	DB	0cH
	DB	0cH
	DB	0cH
	DB	0cH
	DB	0cH
	DB	0cH
	DB	0cH
	DB	0cH
	DB	0cH
	DB	0cH
	DB	0cH
	DB	0cH
	DB	0cH
	DB	0cH
	DB	0cH
	DB	0cH
	DB	0cH
	DB	0cH
	DB	0cH
	DB	0cH
	DB	0cH
	DB	0cH
	DB	0cH
	DB	02H
	DB	013H
	DB	0a7H
	DB	00H
	DB	00H
	DB	00H
	DB	00H
	DB	00H
	DB	00H
	DB	00H
	DB	00H
	DB	00H
	DB	00H
	DB	00H
	DB	00H
	DB	00H
	DB	028H
	DB	02H
	DB	09H
	DB	09H
	DB	09H
	DB	09H
	DB	09H
	DB	09H
	DB	09H
	DB	09H
	DB	09H
	DB	09H
	DB	09H
	DB	09H
	DB	09H
	DB	09H
	DB	09H
	DB	09H
	DB	09H
	DB	09H
	DB	09H
	DB	09H
	DB	09H
	DB	09H
	DB	09H
	DB	09H
	DB	09H
	DB	09H
	DB	09H
	DB	09H
	DB	09H
	DB	09H
	DB	09H
	DB	09H
	DB	09H
	DB	09H
	DB	09H
	DB	09H
	DB	09H
	DB	09H
	DB	09H
	DB	09H
	DB	09H
	DB	09H
	DB	09H
	DB	09H
	DB	0cH
	DB	0fH
	DB	02eH
	DB	01dH
	DB	041H
	DB	04H
	DB	018H
	DB	03H
	DB	03H
	DB	03H
	DB	03H
	DB	03H
	DB	03H
	DB	03H
	DB	03H
	DB	03H
	DB	03H
	DB	03H
	DB	03H
	DB	03H
	DB	03H
	DB	03H
	DB	03H
	DB	03H
	DB	03H
	DB	03H
	DB	03H
	DB	03H
	DB	03H
	DB	03H
	DB	03H
	DB	03H
	DB	03H
	DB	03H
	DB	03H
	DB	03H
	DB	03H
	DB	07fH
	DB	0ccH
	DB	071H
	DB	057H
	DB	076H
	DB	05fH
	DB	095H
	DB	08dH
	DB	030H
	DB	06bH
	DB	043H
	DB	05cH
	DB	041H
	DB	07eH
	DB	07fH
	DB	03H
	DB	03H
	DB	03H
	DB	03H
	DB	03H
	DB	03H
	DB	03H
	DB	03H
	DB	03H
	DB	03H
	DB	03H
	DB	03H
	DB	03H
	DB	03H
	DB	03H
	DB	03H
	DB	03H
	DB	03H
	DB	0f0H
	DB	0d2H
	DB	046H
	DB	0aH
	DB	090H
	DB	057H
	DB	0aH
	DB	0aH
	DB	0aH
	DB	0aH
	DB	0aH
	DB	0aH
	DB	0aH
	DB	0aH
	DB	033H
	DB	086H
	DB	06aH
	DB	095H
	DB	0f8H
	DB	0cH
	DB	09H
	DB	09H
	DB	09H
	DB	09H
	DB	09H
	DB	09H
	DB	09H
	DB	09H
	DB	09H
	DB	09H
	DB	09H
	DB	09H
	DB	09H
	DB	09H
	DB	09H
	DB	09H
	DB	09H
	DB	09H
	DB	09H
	DB	09H
	DB	09H
	DB	09H
	DB	09H
	DB	09H
	DB	09H
	DB	09H
	DB	0faH
	DB	080H
	DB	0a7H
	DB	00H
	DB	00H
	DB	00H
	DB	00H
	DB	00H
	DB	00H
	DB	00H
	DB	00H
	DB	00H
	DB	00H
	DB	00H
	DB	00H
	DB	00H
	DB	0f3H
	DB	0faH
	DB	09bH
	DB	09bH
	DB	09bH
	DB	09bH
	DB	09bH
	DB	09bH
	DB	09bH
	DB	09bH
	DB	09bH
	DB	09bH
	DB	09bH
	DB	09bH
	DB	09bH
	DB	09bH
	DB	09bH
	DB	09bH
	DB	09bH
	DB	09bH
	DB	09bH
	DB	09bH
	DB	09bH
	DB	09bH
	DB	09bH
	DB	09bH
	DB	09bH
	DB	09bH
	DB	09bH
	DB	09bH
	DB	09bH
	DB	09bH
	DB	09bH
	DB	09bH
	DB	09bH
	DB	09bH
	DB	09bH
	DB	09bH
	DB	09bH
	DB	09bH
	DB	09bH
	DB	09bH
	DB	09bH
	DB	09bH
	DB	09bH
	DB	09H
	DB	09bH
	DB	05H
	DB	04bH
	DB	0cbH
	DB	029H
	DB	06H
	DB	010H
	DB	0bH
	DB	066H
	DB	066H
	DB	066H
	DB	066H
	DB	066H
	DB	066H
	DB	066H
	DB	066H
	DB	066H
	DB	066H
	DB	066H
	DB	066H
	DB	066H
	DB	066H
	DB	066H
	DB	066H
	DB	066H
	DB	066H
	DB	066H
	DB	066H
	DB	066H
	DB	066H
	DB	066H
	DB	066H
	DB	066H
	DB	066H
	DB	066H
	DB	066H
	DB	066H
	DB	07eH
	DB	0caH
	DB	034H
	DB	057H
	DB	076H
	DB	0bH
	DB	0edH
	DB	0fH
	DB	09H
	DB	08H
	DB	05H
	DB	023H
	DB	01dH
	DB	041H
	DB	080H
	DB	0cH
	DB	0cH
	DB	09H
	DB	09H
	DB	09H
	DB	09H
	DB	09H
	DB	09H
	DB	09H
	DB	09H
	DB	09H
	DB	09H
	DB	09H
	DB	09H
	DB	09H
	DB	09H
	DB	09H
	DB	09H
	DB	0fbH
	DB	08eH
	DB	061H
	DB	0aH
	DB	0aH
	DB	0aH
	DB	0aH
	DB	0aH
	DB	0aH
	DB	0aH
	DB	0aH
	DB	0aH
	DB	0aH
	DB	033H
	DB	084H
	DB	06bH
	DB	097H
	DB	0f8H
	DB	09H
	DB	09H
	DB	09bH
	DB	09bH
	DB	09bH
	DB	09bH
	DB	09bH
	DB	09bH
	DB	09bH
	DB	09bH
	DB	09bH
	DB	09bH
	DB	09bH
	DB	09bH
	DB	09bH
	DB	09bH
	DB	09bH
	DB	09bH
	DB	09bH
	DB	09bH
	DB	09bH
	DB	09bH
	DB	09bH
	DB	09bH
	DB	09bH
	DB	09bH
	DB	09bH
	DB	09bH
	DB	0cH
	DB	018H
	DB	0a7H
	DB	00H
	DB	00H
	DB	00H
	DB	00H
	DB	00H
	DB	00H
	DB	00H
	DB	00H
	DB	00H
	DB	00H
	DB	00H
	DB	00H
	DB	00H
	DB	0fH
	DB	0cH
	DB	015H
	DB	015H
	DB	015H
	DB	015H
	DB	015H
	DB	015H
	DB	015H
	DB	015H
	DB	015H
	DB	015H
	DB	015H
	DB	015H
	DB	015H
	DB	015H
	DB	015H
	DB	015H
	DB	015H
	DB	015H
	DB	015H
	DB	015H
	DB	015H
	DB	015H
	DB	015H
	DB	015H
	DB	015H
	DB	015H
	DB	015H
	DB	015H
	DB	015H
	DB	015H
	DB	015H
	DB	015H
	DB	015H
	DB	015H
	DB	015H
	DB	015H
	DB	015H
	DB	015H
	DB	015H
	DB	015H
	DB	015H
	DB	015H
	DB	015H
	DB	09bH
	DB	0f8H
	DB	031H
	DB	01dH
	DB	0bH
	DB	024H
	DB	023H
	DB	01dH
	DB	01dH
	DB	01dH
	DB	01dH
	DB	01dH
	DB	01dH
	DB	01dH
	DB	01dH
	DB	01dH
	DB	01dH
	DB	01dH
	DB	01dH
	DB	01dH
	DB	01dH
	DB	01dH
	DB	01dH
	DB	01dH
	DB	01dH
	DB	01dH
	DB	01dH
	DB	01dH
	DB	01dH
	DB	01dH
	DB	01dH
	DB	01dH
	DB	01dH
	DB	01dH
	DB	01dH
	DB	01dH
	DB	01dH
	DB	01dH
	DB	04bH
	DB	048H
	DB	036H
	DB	033H
	DB	051H
	DB	05cH
	DB	0dH
	DB	017H
	DB	041H
	DB	024H
	DB	0cH
	DB	080H
	DB	0cbH
	DB	0a7H
	DB	023H
	DB	024H
	DB	09H
	DB	09H
	DB	09bH
	DB	09bH
	DB	09bH
	DB	09bH
	DB	09bH
	DB	09bH
	DB	09bH
	DB	09bH
	DB	09bH
	DB	09bH
	DB	09bH
	DB	09bH
	DB	09bH
	DB	09bH
	DB	09bH
	DB	01eH
	DB	08cH
	DB	061H
	DB	0aH
	DB	0aH
	DB	0aH
	DB	0aH
	DB	0aH
	DB	0aH
	DB	0aH
	DB	0aH
	DB	0aH
	DB	033H
	DB	0b9H
	DB	06bH
	DB	04H
	DB	015H
	DB	09H
	DB	015H
	DB	015H
	DB	015H
	DB	015H
	DB	015H
	DB	015H
	DB	015H
	DB	015H
	DB	015H
	DB	015H
	DB	015H
	DB	015H
	DB	015H
	DB	015H
	DB	015H
	DB	015H
	DB	015H
	DB	015H
	DB	015H
	DB	015H
	DB	015H
	DB	015H
	DB	015H
	DB	015H
	DB	015H
	DB	015H
	DB	015H
	DB	015H
	DB	09H
	DB	0edH
	DB	0a7H
	DB	00H
	DB	00H
	DB	00H
	DB	00H
	DB	00H
	DB	00H
	DB	00H
	DB	00H
	DB	00H
	DB	00H
	DB	00H
	DB	00H
	DB	00H
	DB	0fH
	DB	09H
	DB	0f8H
	DB	0f8H
	DB	0f8H
	DB	0f8H
	DB	0f8H
	DB	0f8H
	DB	0f8H
	DB	0f8H
	DB	0f8H
	DB	0f8H
	DB	0f8H
	DB	0f8H
	DB	0f8H
	DB	0f8H
	DB	0f8H
	DB	0f8H
	DB	0f8H
	DB	0f8H
	DB	0f8H
	DB	0f8H
	DB	0f8H
	DB	0f8H
	DB	0f8H
	DB	0f8H
	DB	0f8H
	DB	0f8H
	DB	0f8H
	DB	0f8H
	DB	0f8H
	DB	0f8H
	DB	0f8H
	DB	0f8H
	DB	0f8H
	DB	0f8H
	DB	0f8H
	DB	0f8H
	DB	0f8H
	DB	0f8H
	DB	0f8H
	DB	0f8H
	DB	0f8H
	DB	0f8H
	DB	0f8H
	DB	015H
	DB	0f6H
	DB	031H
	DB	017H
	DB	02dH
	DB	02eH
	DB	021H
	DB	0dH
	DB	0dH
	DB	0dH
	DB	0dH
	DB	0dH
	DB	0dH
	DB	0dH
	DB	0dH
	DB	0dH
	DB	0dH
	DB	0dH
	DB	0dH
	DB	0dH
	DB	0dH
	DB	0dH
	DB	0dH
	DB	0dH
	DB	0dH
	DB	0dH
	DB	0dH
	DB	0dH
	DB	0dH
	DB	0dH
	DB	0dH
	DB	0dH
	DB	0dH
	DB	0dH
	DB	0dH
	DB	0dH
	DB	0dH
	DB	0dH
	DB	06aH
	DB	048H
	DB	036H
	DB	033H
	DB	052H
	DB	04bH
	DB	0dH
	DB	0dH
	DB	01dH
	DB	01dH
	DB	041H
	DB	01aH
	DB	028H
	DB	031H
	DB	021H
	DB	017H
	DB	02dH
	DB	0f6H
	DB	09bH
	DB	0f8H
	DB	0f8H
	DB	0f8H
	DB	0f8H
	DB	0f8H
	DB	0f8H
	DB	0f8H
	DB	0f8H
	DB	0f8H
	DB	0f8H
	DB	0f8H
	DB	0f8H
	DB	0f8H
	DB	0cH
	DB	099H
	DB	0c8H
	DB	057H
	DB	0aH
	DB	0aH
	DB	0aH
	DB	0aH
	DB	0aH
	DB	0aH
	DB	0aH
	DB	0aH
	DB	057H
	DB	077H
	DB	06bH
	DB	04H
	DB	0f8H
	DB	015H
	DB	0f8H
	DB	0f8H
	DB	0f8H
	DB	0f8H
	DB	0f8H
	DB	0f8H
	DB	0f8H
	DB	0f8H
	DB	0f8H
	DB	0f8H
	DB	0f8H
	DB	0f8H
	DB	0f8H
	DB	0f8H
	DB	0f8H
	DB	0f8H
	DB	0f8H
	DB	0f8H
	DB	0f8H
	DB	0f8H
	DB	0f8H
	DB	0f8H
	DB	0f8H
	DB	0f8H
	DB	0f8H
	DB	0f8H
	DB	0f8H
	DB	0f8H
	DB	0f8H
	DB	09bH
	DB	026H
	DB	0a7H
	DB	00H
	DB	00H
	DB	00H
	DB	00H
	DB	00H
	DB	00H
	DB	00H
	DB	00H
	DB	00H
	DB	00H
	DB	00H
	DB	00H
	DB	00H
	DB	029H
	DB	09bH
	DB	06H
	DB	06H
	DB	06H
	DB	06H
	DB	06H
	DB	06H
	DB	06H
	DB	06H
	DB	06H
	DB	06H
	DB	06H
	DB	06H
	DB	06H
	DB	06H
	DB	06H
	DB	06H
	DB	06H
	DB	06H
	DB	06H
	DB	06H
	DB	06H
	DB	06H
	DB	06H
	DB	06H
	DB	06H
	DB	06H
	DB	06H
	DB	06H
	DB	06H
	DB	06H
	DB	06H
	DB	06H
	DB	06H
	DB	06H
	DB	06H
	DB	06H
	DB	06H
	DB	06H
	DB	06H
	DB	06H
	DB	06H
	DB	06H
	DB	06H
	DB	0f8H
	DB	028H
	DB	0cfH
	DB	017H
	DB	041H
	DB	017H
	DB	0dH
	DB	017H
	DB	017H
	DB	017H
	DB	017H
	DB	017H
	DB	017H
	DB	017H
	DB	017H
	DB	017H
	DB	017H
	DB	017H
	DB	017H
	DB	017H
	DB	017H
	DB	017H
	DB	017H
	DB	017H
	DB	017H
	DB	017H
	DB	017H
	DB	017H
	DB	017H
	DB	017H
	DB	017H
	DB	017H
	DB	017H
	DB	017H
	DB	017H
	DB	017H
	DB	017H
	DB	017H
	DB	017H
	DB	0adH
	DB	036H
	DB	033H
	DB	052H
	DB	06aH
	DB	017H
	DB	017H
	DB	0dH
	DB	0dH
	DB	01fH
	DB	017H
	DB	04H
	DB	09bH
	DB	04dH
	DB	01fH
	DB	01dH
	DB	0d8H
	DB	014H
	DB	015H
	DB	0f8H
	DB	06H
	DB	06H
	DB	06H
	DB	06H
	DB	06H
	DB	06H
	DB	06H
	DB	06H
	DB	06H
	DB	06H
	DB	09H
	DB	099H
	DB	087H
	DB	03bH
	DB	0aH
	DB	0aH
	DB	0aH
	DB	0aH
	DB	0aH
	DB	0aH
	DB	0aH
	DB	0aH
	DB	057H
	DB	04fH
	DB	0c9H
	DB	025H
	DB	06H
	DB	0f8H
	DB	0f8H
	DB	06H
	DB	06H
	DB	06H
	DB	06H
	DB	06H
	DB	06H
	DB	06H
	DB	06H
	DB	06H
	DB	06H
	DB	06H
	DB	06H
	DB	06H
	DB	06H
	DB	06H
	DB	06H
	DB	06H
	DB	06H
	DB	06H
	DB	06H
	DB	06H
	DB	06H
	DB	06H
	DB	06H
	DB	06H
	DB	06H
	DB	06H
	DB	06H
	DB	06H
	DB	0f8H
	DB	03H
	DB	019H
	DB	00H
	DB	00H
	DB	00H
	DB	00H
	DB	00H
	DB	00H
	DB	00H
	DB	00H
	DB	00H
	DB	00H
	DB	00H
	DB	00H
	DB	00H
	DB	01aH
	DB	015H
	DB	0f6H
	DB	0f6H
	DB	0f6H
	DB	0f6H
	DB	0f6H
	DB	0f6H
	DB	0f6H
	DB	0f6H
	DB	0f6H
	DB	0f6H
	DB	0f6H
	DB	0f6H
	DB	0f6H
	DB	0f6H
	DB	0f6H
	DB	0f6H
	DB	0f6H
	DB	0f6H
	DB	0f6H
	DB	0f6H
	DB	0f6H
	DB	0f6H
	DB	0f6H
	DB	0f6H
	DB	0f6H
	DB	0f6H
	DB	0f6H
	DB	0f6H
	DB	0f6H
	DB	0f6H
	DB	0f6H
	DB	0f6H
	DB	0f6H
	DB	0f6H
	DB	0f6H
	DB	0f6H
	DB	0f6H
	DB	0f6H
	DB	0f6H
	DB	0f6H
	DB	0f6H
	DB	0f6H
	DB	0f6H
	DB	06H
	DB	014H
	DB	0cfH
	DB	0dH
	DB	017H
	DB	0dH
	DB	0dH
	DB	0dH
	DB	0dH
	DB	0dH
	DB	0dH
	DB	0dH
	DB	0dH
	DB	0dH
	DB	0dH
	DB	0dH
	DB	0dH
	DB	0dH
	DB	0dH
	DB	0dH
	DB	0dH
	DB	0dH
	DB	0dH
	DB	0dH
	DB	0dH
	DB	0dH
	DB	0dH
	DB	0dH
	DB	0dH
	DB	0dH
	DB	0dH
	DB	0dH
	DB	0dH
	DB	0dH
	DB	0dH
	DB	0dH
	DB	0dH
	DB	0dH
	DB	06aH
	DB	048H
	DB	036H
	DB	033H
	DB	052H
	DB	0dH
	DB	017H
	DB	0dH
	DB	017H
	DB	017H
	DB	017H
	DB	021H
	DB	0dH
	DB	0bH
	DB	0f8H
	DB	06fH
	DB	04bH
	DB	0a7H
	DB	0ceH
	DB	027H
	DB	0f8H
	DB	0f6H
	DB	0f6H
	DB	0f6H
	DB	0f6H
	DB	0f6H
	DB	0f6H
	DB	0f6H
	DB	0f6H
	DB	0f6H
	DB	015H
	DB	081H
	DB	0c5H
	DB	034H
	DB	0aH
	DB	0aH
	DB	0aH
	DB	0aH
	DB	0aH
	DB	0aH
	DB	0aH
	DB	0aH
	DB	057H
	DB	077H
	DB	0c9H
	DB	025H
	DB	0f6H
	DB	06H
	DB	0f6H
	DB	0f6H
	DB	0f6H
	DB	0f6H
	DB	0f6H
	DB	0f6H
	DB	0f6H
	DB	0f6H
	DB	0f6H
	DB	0f6H
	DB	0f6H
	DB	0f6H
	DB	0f6H
	DB	0f6H
	DB	0f6H
	DB	0f6H
	DB	0f6H
	DB	0f6H
	DB	0f6H
	DB	0f6H
	DB	0f6H
	DB	0f6H
	DB	0f6H
	DB	0f6H
	DB	0f6H
	DB	0f6H
	DB	0f6H
	DB	0f6H
	DB	0f6H
	DB	0f6H
	DB	0f6H
	DB	0f8H
	DB	03H
	DB	019H
	DB	00H
	DB	00H
	DB	00H
	DB	00H
	DB	00H
	DB	00H
	DB	00H
	DB	00H
	DB	00H
	DB	00H
	DB	00H
	DB	00H
	DB	00H
	DB	09aH
	DB	0f8H
	DB	028H
	DB	028H
	DB	028H
	DB	028H
	DB	028H
	DB	028H
	DB	028H
	DB	028H
	DB	028H
	DB	028H
	DB	028H
	DB	028H
	DB	028H
	DB	028H
	DB	028H
	DB	028H
	DB	028H
	DB	028H
	DB	028H
	DB	028H
	DB	028H
	DB	028H
	DB	028H
	DB	028H
	DB	028H
	DB	028H
	DB	028H
	DB	028H
	DB	028H
	DB	028H
	DB	028H
	DB	028H
	DB	028H
	DB	028H
	DB	028H
	DB	028H
	DB	028H
	DB	028H
	DB	028H
	DB	028H
	DB	028H
	DB	028H
	DB	028H
	DB	08H
	DB	0f3H
	DB	0ceH
	DB	0dH
	DB	0dH
	DB	0dH
	DB	0dH
	DB	0dH
	DB	0dH
	DB	0dH
	DB	0dH
	DB	0dH
	DB	0dH
	DB	0dH
	DB	0dH
	DB	0dH
	DB	0dH
	DB	0dH
	DB	0dH
	DB	0dH
	DB	0dH
	DB	0dH
	DB	0dH
	DB	0dH
	DB	0dH
	DB	0dH
	DB	0dH
	DB	0dH
	DB	0dH
	DB	0dH
	DB	0dH
	DB	0dH
	DB	0dH
	DB	0dH
	DB	0dH
	DB	0dH
	DB	0dH
	DB	0dH
	DB	06aH
	DB	048H
	DB	036H
	DB	033H
	DB	052H
	DB	04bH
	DB	0dH
	DB	06aH
	DB	04bH
	DB	069H
	DB	069H
	DB	0b0H
	DB	069H
	DB	069H
	DB	08bH
	DB	09H
	DB	011H
	DB	0dH
	DB	019H
	DB	041H
	DB	03H
	DB	06H
	DB	08H
	DB	028H
	DB	028H
	DB	028H
	DB	028H
	DB	028H
	DB	028H
	DB	06H
	DB	081H
	DB	0c6H
	DB	062H
	DB	0aH
	DB	0aH
	DB	0aH
	DB	0aH
	DB	0aH
	DB	0aH
	DB	0aH
	DB	0aH
	DB	033H
	DB	077H
	DB	06bH
	DB	04H
	DB	08H
	DB	08H
	DB	028H
	DB	028H
	DB	028H
	DB	028H
	DB	028H
	DB	028H
	DB	028H
	DB	028H
	DB	028H
	DB	028H
	DB	028H
	DB	028H
	DB	028H
	DB	028H
	DB	028H
	DB	028H
	DB	028H
	DB	028H
	DB	028H
	DB	028H
	DB	028H
	DB	028H
	DB	028H
	DB	028H
	DB	028H
	DB	028H
	DB	028H
	DB	028H
	DB	028H
	DB	028H
	DB	028H
	DB	028H
	DB	0f6H
	DB	025H
	DB	019H
	DB	00H
	DB	00H
	DB	00H
	DB	00H
	DB	00H
	DB	00H
	DB	00H
	DB	00H
	DB	00H
	DB	00H
	DB	00H
	DB	00H
	DB	00H
	DB	016H
	DB	06H
	DB	014H
	DB	014H
	DB	014H
	DB	014H
	DB	014H
	DB	014H
	DB	014H
	DB	014H
	DB	014H
	DB	014H
	DB	014H
	DB	014H
	DB	014H
	DB	014H
	DB	014H
	DB	014H
	DB	014H
	DB	014H
	DB	014H
	DB	014H
	DB	014H
	DB	014H
	DB	014H
	DB	014H
	DB	014H
	DB	014H
	DB	014H
	DB	014H
	DB	014H
	DB	014H
	DB	014H
	DB	014H
	DB	014H
	DB	014H
	DB	014H
	DB	014H
	DB	014H
	DB	014H
	DB	014H
	DB	014H
	DB	014H
	DB	014H
	DB	014H
	DB	028H
	DB	029H
	DB	031H
	DB	04bH
	DB	0dH
	DB	0dH
	DB	0dH
	DB	0dH
	DB	0dH
	DB	0dH
	DB	0dH
	DB	0dH
	DB	0dH
	DB	0dH
	DB	0dH
	DB	0dH
	DB	0dH
	DB	0dH
	DB	0dH
	DB	0dH
	DB	0dH
	DB	0dH
	DB	0dH
	DB	0dH
	DB	0dH
	DB	0dH
	DB	0dH
	DB	0dH
	DB	0dH
	DB	0dH
	DB	0dH
	DB	0dH
	DB	0dH
	DB	0dH
	DB	0dH
	DB	0dH
	DB	0dH
	DB	0dH
	DB	06aH
	DB	048H
	DB	036H
	DB	033H
	DB	052H
	DB	04bH
	DB	0dH
	DB	043H
	DB	075H
	DB	07bH
	DB	07cH
	DB	07bH
	DB	0bdH
	DB	068H
	DB	083H
	DB	089H
	DB	082H
	DB	013H
	DB	023H
	DB	0a6H
	DB	023H
	DB	072H
	DB	028H
	DB	028H
	DB	014H
	DB	014H
	DB	014H
	DB	014H
	DB	0f5H
	DB	0f4H
	DB	0caH
	DB	061H
	DB	0aH
	DB	0aH
	DB	0aH
	DB	0aH
	DB	0aH
	DB	0aH
	DB	0aH
	DB	0aH
	DB	033H
	DB	078H
	DB	059H
	DB	097H
	DB	014H
	DB	028H
	DB	014H
	DB	014H
	DB	014H
	DB	014H
	DB	014H
	DB	014H
	DB	014H
	DB	014H
	DB	014H
	DB	014H
	DB	014H
	DB	014H
	DB	014H
	DB	014H
	DB	014H
	DB	014H
	DB	014H
	DB	014H
	DB	014H
	DB	014H
	DB	014H
	DB	014H
	DB	014H
	DB	014H
	DB	014H
	DB	014H
	DB	014H
	DB	014H
	DB	014H
	DB	014H
	DB	014H
	DB	014H
	DB	014H
	DB	028H
	DB	04H
	DB	019H
	DB	00H
	DB	00H
	DB	00H
	DB	00H
	DB	00H
	DB	00H
	DB	00H
	DB	00H
	DB	00H
	DB	00H
	DB	00H
	DB	00H
	DB	00H
	DB	027H
	DB	08H
	DB	0fH
	DB	0fH
	DB	0fH
	DB	0fH
	DB	0fH
	DB	0fH
	DB	0fH
	DB	0fH
	DB	0fH
	DB	0fH
	DB	0fH
	DB	0fH
	DB	0fH
	DB	0fH
	DB	0fH
	DB	0fH
	DB	0fH
	DB	0fH
	DB	0fH
	DB	0fH
	DB	0fH
	DB	0fH
	DB	0fH
	DB	0fH
	DB	0fH
	DB	0fH
	DB	0fH
	DB	0fH
	DB	0fH
	DB	0fH
	DB	0fH
	DB	0fH
	DB	0fH
	DB	0fH
	DB	0fH
	DB	0fH
	DB	0fH
	DB	0fH
	DB	0fH
	DB	0fH
	DB	0fH
	DB	0fH
	DB	0fH
	DB	0f3H
	DB	01aH
	DB	031H
	DB	01dH
	DB	0dH
	DB	0dH
	DB	0dH
	DB	0dH
	DB	0dH
	DB	0dH
	DB	0dH
	DB	0dH
	DB	0dH
	DB	0dH
	DB	0dH
	DB	0dH
	DB	0dH
	DB	0dH
	DB	0dH
	DB	0dH
	DB	0dH
	DB	0dH
	DB	0dH
	DB	0dH
	DB	0dH
	DB	0dH
	DB	0dH
	DB	0dH
	DB	0dH
	DB	0dH
	DB	0dH
	DB	0dH
	DB	0dH
	DB	0dH
	DB	0dH
	DB	0dH
	DB	0dH
	DB	0dH
	DB	0dH
	DB	048H
	DB	036H
	DB	033H
	DB	052H
	DB	04bH
	DB	05cH
	DB	0b5H
	DB	064H
	DB	0aH
	DB	0aH
	DB	0aH
	DB	0aH
	DB	0aH
	DB	063H
	DB	078H
	DB	0b2H
	DB	0efH
	DB	0fH
	DB	041H
	DB	0a6H
	DB	0dH
	DB	05H
	DB	0fH
	DB	014H
	DB	0fH
	DB	0fH
	DB	0f3H
	DB	0f7H
	DB	04dH
	DB	035H
	DB	0aH
	DB	0aH
	DB	0aH
	DB	0aH
	DB	0aH
	DB	0aH
	DB	0aH
	DB	0aH
	DB	0aH
	DB	079H
	DB	059H
	DB	0e8H
	DB	0fH
	DB	0f3H
	DB	0fH
	DB	0fH
	DB	0fH
	DB	0fH
	DB	0fH
	DB	0fH
	DB	0fH
	DB	0fH
	DB	0fH
	DB	0fH
	DB	0fH
	DB	0fH
	DB	0fH
	DB	0fH
	DB	0fH
	DB	0fH
	DB	0fH
	DB	0fH
	DB	0fH
	DB	0fH
	DB	0fH
	DB	0fH
	DB	0fH
	DB	0fH
	DB	0fH
	DB	0fH
	DB	0fH
	DB	0fH
	DB	0fH
	DB	0fH
	DB	0fH
	DB	0fH
	DB	0fH
	DB	0fH
	DB	014H
	DB	04H
	DB	019H
	DB	00H
	DB	00H
	DB	00H
	DB	00H
	DB	00H
	DB	00H
	DB	00H
	DB	00H
	DB	00H
	DB	00H
	DB	00H
	DB	00H
	DB	00H
	DB	013H
	DB	028H
	DB	029H
	DB	029H
	DB	029H
	DB	029H
	DB	029H
	DB	029H
	DB	029H
	DB	029H
	DB	029H
	DB	029H
	DB	029H
	DB	029H
	DB	029H
	DB	029H
	DB	029H
	DB	029H
	DB	029H
	DB	029H
	DB	029H
	DB	029H
	DB	029H
	DB	029H
	DB	029H
	DB	029H
	DB	029H
	DB	029H
	DB	029H
	DB	029H
	DB	029H
	DB	029H
	DB	029H
	DB	029H
	DB	029H
	DB	029H
	DB	029H
	DB	029H
	DB	029H
	DB	029H
	DB	029H
	DB	029H
	DB	029H
	DB	029H
	DB	029H
	DB	0fH
	DB	09aH
	DB	031H
	DB	01dH
	DB	0dH
	DB	0dH
	DB	0dH
	DB	0dH
	DB	0dH
	DB	0dH
	DB	0dH
	DB	0dH
	DB	0dH
	DB	0dH
	DB	0dH
	DB	0dH
	DB	0dH
	DB	0dH
	DB	0dH
	DB	0dH
	DB	0dH
	DB	0dH
	DB	0dH
	DB	0dH
	DB	0dH
	DB	0dH
	DB	0dH
	DB	0dH
	DB	0dH
	DB	0dH
	DB	0dH
	DB	0dH
	DB	0dH
	DB	0dH
	DB	0dH
	DB	0dH
	DB	0dH
	DB	0dH
	DB	0dH
	DB	048H
	DB	036H
	DB	033H
	DB	052H
	DB	04bH
	DB	058H
	DB	091H
	DB	0aH
	DB	0aH
	DB	0aH
	DB	0aH
	DB	0aH
	DB	0aH
	DB	0aH
	DB	0aH
	DB	092H
	DB	04fH
	DB	094H
	DB	0f9H
	DB	0d1H
	DB	019H
	DB	01dH
	DB	0d5H
	DB	016H
	DB	0f3H
	DB	029H
	DB	08H
	DB	06eH
	DB	0e0H
	DB	0aH
	DB	0aH
	DB	0aH
	DB	0aH
	DB	0aH
	DB	0aH
	DB	0aH
	DB	0aH
	DB	0aH
	DB	05aH
	DB	0b3H
	DB	0bH
	DB	029H
	DB	0fH
	DB	029H
	DB	029H
	DB	029H
	DB	029H
	DB	029H
	DB	029H
	DB	029H
	DB	029H
	DB	029H
	DB	029H
	DB	029H
	DB	029H
	DB	029H
	DB	029H
	DB	029H
	DB	029H
	DB	029H
	DB	029H
	DB	029H
	DB	029H
	DB	029H
	DB	029H
	DB	029H
	DB	029H
	DB	029H
	DB	029H
	DB	029H
	DB	029H
	DB	029H
	DB	029H
	DB	029H
	DB	029H
	DB	029H
	DB	029H
	DB	029H
	DB	0f3H
	DB	024H
	DB	019H
	DB	00H
	DB	00H
	DB	00H
	DB	00H
	DB	00H
	DB	00H
	DB	00H
	DB	00H
	DB	00H
	DB	00H
	DB	00H
	DB	00H
	DB	00H
	DB	018H
	DB	0f3H
	DB	01aH
	DB	01aH
	DB	01aH
	DB	01aH
	DB	01aH
	DB	01aH
	DB	01aH
	DB	01aH
	DB	01aH
	DB	01aH
	DB	01aH
	DB	01aH
	DB	01aH
	DB	01aH
	DB	01aH
	DB	01aH
	DB	01aH
	DB	01aH
	DB	01aH
	DB	01aH
	DB	01aH
	DB	01aH
	DB	01aH
	DB	01aH
	DB	01aH
	DB	01aH
	DB	01aH
	DB	01aH
	DB	01aH
	DB	01aH
	DB	01aH
	DB	01aH
	DB	01aH
	DB	01aH
	DB	01aH
	DB	01aH
	DB	01aH
	DB	01aH
	DB	01aH
	DB	01aH
	DB	01aH
	DB	01aH
	DB	01aH
	DB	029H
	DB	027H
	DB	031H
	DB	01dH
	DB	0dH
	DB	04bH
	DB	0dH
	DB	0dH
	DB	0dH
	DB	0dH
	DB	0dH
	DB	0dH
	DB	0dH
	DB	0dH
	DB	0dH
	DB	0dH
	DB	0dH
	DB	0dH
	DB	0dH
	DB	0dH
	DB	0dH
	DB	0dH
	DB	0dH
	DB	0dH
	DB	0dH
	DB	0dH
	DB	0dH
	DB	0dH
	DB	0dH
	DB	0dH
	DB	0dH
	DB	0dH
	DB	0dH
	DB	0dH
	DB	0dH
	DB	0dH
	DB	0dH
	DB	0dH
	DB	04bH
	DB	048H
	DB	036H
	DB	033H
	DB	052H
	DB	0b0H
	DB	075H
	DB	033H
	DB	0aH
	DB	0aH
	DB	0aH
	DB	0aH
	DB	0aH
	DB	0aH
	DB	0aH
	DB	0aH
	DB	0aH
	DB	0aH
	DB	07bH
	DB	088H
	DB	082H
	DB	06fH
	DB	019H
	DB	019H
	DB	030H
	DB	013H
	DB	028H
	DB	093H
	DB	0bcH
	DB	033H
	DB	0aH
	DB	0aH
	DB	0aH
	DB	0aH
	DB	0aH
	DB	0aH
	DB	0aH
	DB	0aH
	DB	07aH
	DB	04bH
	DB	05H
	DB	09aH
	DB	029H
	DB	01aH
	DB	01aH
	DB	01aH
	DB	01aH
	DB	01aH
	DB	01aH
	DB	01aH
	DB	01aH
	DB	01aH
	DB	01aH
	DB	01aH
	DB	01aH
	DB	01aH
	DB	01aH
	DB	01aH
	DB	01aH
	DB	01aH
	DB	01aH
	DB	01aH
	DB	01aH
	DB	01aH
	DB	01aH
	DB	01aH
	DB	01aH
	DB	01aH
	DB	01aH
	DB	01aH
	DB	01aH
	DB	01aH
	DB	01aH
	DB	01aH
	DB	01aH
	DB	01aH
	DB	01aH
	DB	01aH
	DB	01aH
	DB	029H
	DB	024H
	DB	019H
	DB	00H
	DB	00H
	DB	00H
	DB	00H
	DB	00H
	DB	00H
	DB	00H
	DB	00H
	DB	00H
	DB	00H
	DB	00H
	DB	00H
	DB	00H
	DB	0edH
	DB	0fH
	DB	016H
	DB	016H
	DB	016H
	DB	016H
	DB	016H
	DB	016H
	DB	016H
	DB	016H
	DB	016H
	DB	016H
	DB	016H
	DB	016H
	DB	016H
	DB	016H
	DB	016H
	DB	016H
	DB	016H
	DB	016H
	DB	016H
	DB	016H
	DB	016H
	DB	016H
	DB	016H
	DB	016H
	DB	016H
	DB	016H
	DB	016H
	DB	016H
	DB	016H
	DB	016H
	DB	016H
	DB	016H
	DB	016H
	DB	016H
	DB	016H
	DB	016H
	DB	016H
	DB	016H
	DB	016H
	DB	016H
	DB	016H
	DB	016H
	DB	016H
	DB	01aH
	DB	013H
	DB	041H
	DB	01dH
	DB	0dH
	DB	01dH
	DB	04bH
	DB	04bH
	DB	04bH
	DB	04bH
	DB	04bH
	DB	04bH
	DB	04bH
	DB	04bH
	DB	04bH
	DB	04bH
	DB	04bH
	DB	04bH
	DB	04bH
	DB	04bH
	DB	04bH
	DB	04bH
	DB	04bH
	DB	04bH
	DB	04bH
	DB	04bH
	DB	04bH
	DB	04bH
	DB	04bH
	DB	04bH
	DB	04bH
	DB	04bH
	DB	04bH
	DB	04bH
	DB	04bH
	DB	04bH
	DB	04bH
	DB	04bH
	DB	04bH
	DB	048H
	DB	036H
	DB	033H
	DB	052H
	DB	0b0H
	DB	075H
	DB	033H
	DB	0aH
	DB	0aH
	DB	0aH
	DB	0aH
	DB	0aH
	DB	0aH
	DB	0aH
	DB	0aH
	DB	0aH
	DB	0aH
	DB	0aH
	DB	061H
	DB	0c7H
	DB	099H
	DB	010H
	DB	0dH
	DB	012H
	DB	0cfH
	DB	0ecH
	DB	0c4H
	DB	03bH
	DB	0aH
	DB	0aH
	DB	0aH
	DB	0aH
	DB	0aH
	DB	0aH
	DB	0aH
	DB	0aH
	DB	07cH
	DB	054H
	DB	0deH
	DB	027H
	DB	01aH
	DB	016H
	DB	016H
	DB	016H
	DB	016H
	DB	016H
	DB	016H
	DB	016H
	DB	016H
	DB	016H
	DB	016H
	DB	016H
	DB	016H
	DB	016H
	DB	016H
	DB	016H
	DB	016H
	DB	016H
	DB	016H
	DB	016H
	DB	016H
	DB	016H
	DB	016H
	DB	016H
	DB	016H
	DB	016H
	DB	016H
	DB	016H
	DB	016H
	DB	016H
	DB	016H
	DB	016H
	DB	016H
	DB	016H
	DB	016H
	DB	016H
	DB	016H
	DB	016H
	DB	01aH
	DB	010H
	DB	019H
	DB	00H
	DB	00H
	DB	00H
	DB	00H
	DB	00H
	DB	00H
	DB	00H
	DB	00H
	DB	00H
	DB	00H
	DB	00H
	DB	00H
	DB	00H
	DB	026H
	DB	029H
	DB	027H
	DB	027H
	DB	027H
	DB	027H
	DB	027H
	DB	027H
	DB	027H
	DB	027H
	DB	027H
	DB	027H
	DB	027H
	DB	027H
	DB	027H
	DB	027H
	DB	027H
	DB	027H
	DB	027H
	DB	027H
	DB	027H
	DB	027H
	DB	027H
	DB	027H
	DB	027H
	DB	027H
	DB	027H
	DB	027H
	DB	027H
	DB	027H
	DB	027H
	DB	027H
	DB	027H
	DB	027H
	DB	027H
	DB	027H
	DB	027H
	DB	027H
	DB	027H
	DB	027H
	DB	027H
	DB	027H
	DB	027H
	DB	027H
	DB	027H
	DB	016H
	DB	080H
	DB	041H
	DB	01dH
	DB	04bH
	DB	01dH
	DB	01dH
	DB	01dH
	DB	01dH
	DB	01dH
	DB	01dH
	DB	01dH
	DB	01dH
	DB	01dH
	DB	01dH
	DB	01dH
	DB	01dH
	DB	01dH
	DB	01dH
	DB	01dH
	DB	01dH
	DB	01dH
	DB	01dH
	DB	01dH
	DB	01dH
	DB	01dH
	DB	01dH
	DB	01dH
	DB	01dH
	DB	01dH
	DB	01dH
	DB	01dH
	DB	01dH
	DB	01dH
	DB	01dH
	DB	01dH
	DB	01dH
	DB	01dH
	DB	04bH
	DB	048H
	DB	036H
	DB	033H
	DB	051H
	DB	05cH
	DB	058H
	DB	062H
	DB	0aH
	DB	0aH
	DB	0aH
	DB	0aH
	DB	0aH
	DB	0aH
	DB	0aH
	DB	0aH
	DB	0aH
	DB	0aH
	DB	0aH
	DB	0aH
	DB	034H
	DB	087H
	DB	0e9H
	DB	025H
	DB	0dH
	DB	049H
	DB	03eH
	DB	034H
	DB	0aH
	DB	0aH
	DB	0aH
	DB	0aH
	DB	0aH
	DB	0aH
	DB	0aH
	DB	0aH
	DB	033H
	DB	0b5H
	DB	0d3H
	DB	080H
	DB	016H
	DB	027H
	DB	027H
	DB	027H
	DB	027H
	DB	027H
	DB	027H
	DB	027H
	DB	027H
	DB	027H
	DB	027H
	DB	027H
	DB	027H
	DB	027H
	DB	027H
	DB	027H
	DB	027H
	DB	027H
	DB	027H
	DB	027H
	DB	027H
	DB	027H
	DB	027H
	DB	027H
	DB	027H
	DB	027H
	DB	027H
	DB	027H
	DB	027H
	DB	027H
	DB	027H
	DB	027H
	DB	027H
	DB	027H
	DB	027H
	DB	027H
	DB	027H
	DB	027H
	DB	027H
	DB	016H
	DB	011H
	DB	012H
	DB	00H
	DB	00H
	DB	00H
	DB	00H
	DB	00H
	DB	00H
	DB	00H
	DB	00H
	DB	00H
	DB	00H
	DB	00H
	DB	00H
	DB	00H
	DB	03H
	DB	09aH
	DB	080H
	DB	080H
	DB	080H
	DB	080H
	DB	080H
	DB	080H
	DB	080H
	DB	080H
	DB	080H
	DB	080H
	DB	080H
	DB	080H
	DB	080H
	DB	080H
	DB	080H
	DB	080H
	DB	080H
	DB	080H
	DB	080H
	DB	080H
	DB	080H
	DB	080H
	DB	080H
	DB	080H
	DB	080H
	DB	080H
	DB	080H
	DB	080H
	DB	080H
	DB	080H
	DB	080H
	DB	080H
	DB	080H
	DB	080H
	DB	080H
	DB	080H
	DB	080H
	DB	080H
	DB	080H
	DB	080H
	DB	080H
	DB	080H
	DB	080H
	DB	013H
	DB	0edH
	DB	041H
	DB	021H
	DB	01dH
	DB	01dH
	DB	01dH
	DB	01dH
	DB	01dH
	DB	01dH
	DB	01dH
	DB	01dH
	DB	01dH
	DB	01dH
	DB	01dH
	DB	01dH
	DB	01dH
	DB	01dH
	DB	01dH
	DB	01dH
	DB	01dH
	DB	01dH
	DB	01dH
	DB	01dH
	DB	01dH
	DB	01dH
	DB	01dH
	DB	01dH
	DB	01dH
	DB	01dH
	DB	01dH
	DB	01dH
	DB	01dH
	DB	01dH
	DB	01dH
	DB	01dH
	DB	01dH
	DB	01dH
	DB	01dH
	DB	048H
	DB	036H
	DB	033H
	DB	051H
	DB	05cH
	DB	043H
	DB	0aaH
	DB	060H
	DB	03bH
	DB	065H
	DB	0aH
	DB	0aH
	DB	0aH
	DB	0aH
	DB	0aH
	DB	0aH
	DB	0aH
	DB	0aH
	DB	0aH
	DB	0aH
	DB	064H
	DB	0bbH
	DB	0dcH
	DB	0eaH
	DB	012H
	DB	035H
	DB	0aH
	DB	0aH
	DB	0aH
	DB	0aH
	DB	0aH
	DB	0aH
	DB	0aH
	DB	0aH
	DB	0aH
	DB	033H
	DB	04cH
	DB	096H
	DB	016H
	DB	080H
	DB	080H
	DB	080H
	DB	080H
	DB	080H
	DB	080H
	DB	080H
	DB	080H
	DB	080H
	DB	080H
	DB	080H
	DB	080H
	DB	080H
	DB	080H
	DB	080H
	DB	080H
	DB	080H
	DB	080H
	DB	080H
	DB	080H
	DB	080H
	DB	080H
	DB	080H
	DB	080H
	DB	080H
	DB	080H
	DB	080H
	DB	080H
	DB	080H
	DB	080H
	DB	080H
	DB	080H
	DB	080H
	DB	080H
	DB	080H
	DB	080H
	DB	080H
	DB	080H
	DB	080H
	DB	027H
	DB	066H
	DB	012H
	DB	00H
	DB	00H
	DB	00H
	DB	00H
	DB	00H
	DB	00H
	DB	00H
	DB	00H
	DB	00H
	DB	00H
	DB	00H
	DB	00H
	DB	00H
	DB	03H
	DB	027H
	DB	018H
	DB	018H
	DB	018H
	DB	018H
	DB	018H
	DB	018H
	DB	018H
	DB	018H
	DB	018H
	DB	018H
	DB	018H
	DB	018H
	DB	018H
	DB	018H
	DB	018H
	DB	018H
	DB	018H
	DB	018H
	DB	018H
	DB	018H
	DB	018H
	DB	018H
	DB	018H
	DB	018H
	DB	018H
	DB	018H
	DB	018H
	DB	018H
	DB	018H
	DB	018H
	DB	018H
	DB	018H
	DB	018H
	DB	018H
	DB	018H
	DB	018H
	DB	018H
	DB	018H
	DB	018H
	DB	018H
	DB	018H
	DB	018H
	DB	018H
	DB	080H
	DB	03H
	DB	044H
	DB	021H
	DB	01dH
	DB	01dH
	DB	01dH
	DB	01dH
	DB	01dH
	DB	01dH
	DB	01dH
	DB	01dH
	DB	01dH
	DB	01dH
	DB	01dH
	DB	01dH
	DB	01dH
	DB	01dH
	DB	01dH
	DB	01dH
	DB	01dH
	DB	01dH
	DB	01dH
	DB	01dH
	DB	01dH
	DB	01dH
	DB	01dH
	DB	01dH
	DB	01dH
	DB	01dH
	DB	01dH
	DB	01dH
	DB	01dH
	DB	01dH
	DB	01dH
	DB	01dH
	DB	01dH
	DB	01dH
	DB	05cH
	DB	048H
	DB	036H
	DB	033H
	DB	051H
	DB	043H
	DB	01dH
	DB	043H
	DB	0a3H
	DB	0a1H
	DB	068H
	DB	04fH
	DB	070H
	DB	064H
	DB	0aH
	DB	0aH
	DB	0aH
	DB	0aH
	DB	0aH
	DB	0aH
	DB	0aH
	DB	0aH
	DB	0aH
	DB	0e0H
	DB	041H
	DB	0e1H
	DB	0aH
	DB	0aH
	DB	0aH
	DB	0aH
	DB	0aH
	DB	0aH
	DB	0aH
	DB	0aH
	DB	071H
	DB	036H
	DB	0aH
	DB	04cH
	DB	096H
	DB	013H
	DB	018H
	DB	018H
	DB	018H
	DB	018H
	DB	018H
	DB	018H
	DB	018H
	DB	018H
	DB	018H
	DB	018H
	DB	018H
	DB	018H
	DB	018H
	DB	018H
	DB	018H
	DB	018H
	DB	018H
	DB	018H
	DB	018H
	DB	018H
	DB	018H
	DB	018H
	DB	018H
	DB	018H
	DB	018H
	DB	018H
	DB	018H
	DB	018H
	DB	018H
	DB	018H
	DB	018H
	DB	018H
	DB	018H
	DB	018H
	DB	018H
	DB	018H
	DB	018H
	DB	018H
	DB	018H
	DB	080H
	DB	0bH
	DB	012H
	DB	00H
	DB	00H
	DB	00H
	DB	00H
	DB	00H
	DB	00H
	DB	00H
	DB	00H
	DB	00H
	DB	00H
	DB	00H
	DB	00H
	DB	00H
	DB	025H
	DB	013H
	DB	026H
	DB	026H
	DB	026H
	DB	026H
	DB	026H
	DB	026H
	DB	026H
	DB	026H
	DB	026H
	DB	026H
	DB	026H
	DB	026H
	DB	026H
	DB	026H
	DB	026H
	DB	026H
	DB	026H
	DB	026H
	DB	026H
	DB	026H
	DB	026H
	DB	026H
	DB	026H
	DB	026H
	DB	026H
	DB	026H
	DB	026H
	DB	026H
	DB	026H
	DB	026H
	DB	026H
	DB	026H
	DB	026H
	DB	026H
	DB	026H
	DB	026H
	DB	026H
	DB	026H
	DB	026H
	DB	026H
	DB	026H
	DB	026H
	DB	026H
	DB	018H
	DB	03H
	DB	044H
	DB	021H
	DB	01dH
	DB	01dH
	DB	01dH
	DB	01dH
	DB	01dH
	DB	01dH
	DB	01dH
	DB	01dH
	DB	01dH
	DB	01dH
	DB	01dH
	DB	01dH
	DB	01dH
	DB	01dH
	DB	01dH
	DB	01dH
	DB	01dH
	DB	01dH
	DB	01dH
	DB	01dH
	DB	01dH
	DB	01dH
	DB	01dH
	DB	01dH
	DB	01dH
	DB	01dH
	DB	01dH
	DB	01dH
	DB	01dH
	DB	01dH
	DB	01dH
	DB	01dH
	DB	01dH
	DB	01dH
	DB	05cH
	DB	048H
	DB	036H
	DB	033H
	DB	051H
	DB	043H
	DB	01dH
	DB	01dH
	DB	021H
	DB	01fH
	DB	049H
	DB	0a5H
	DB	0a3H
	DB	04eH
	DB	070H
	DB	033H
	DB	0aH
	DB	0aH
	DB	0aH
	DB	0aH
	DB	0aH
	DB	0aH
	DB	0aH
	DB	0aH
	DB	063H
	DB	033H
	DB	0aH
	DB	0aH
	DB	0aH
	DB	0aH
	DB	0aH
	DB	0aH
	DB	0aH
	DB	064H
	DB	068H
	DB	046H
	DB	0aH
	DB	04cH
	DB	0e7H
	DB	080H
	DB	026H
	DB	026H
	DB	026H
	DB	026H
	DB	026H
	DB	026H
	DB	026H
	DB	026H
	DB	026H
	DB	026H
	DB	026H
	DB	026H
	DB	026H
	DB	026H
	DB	026H
	DB	026H
	DB	026H
	DB	026H
	DB	026H
	DB	026H
	DB	026H
	DB	026H
	DB	026H
	DB	026H
	DB	026H
	DB	026H
	DB	026H
	DB	026H
	DB	026H
	DB	026H
	DB	026H
	DB	026H
	DB	026H
	DB	026H
	DB	026H
	DB	026H
	DB	026H
	DB	026H
	DB	026H
	DB	018H
	DB	0bH
	DB	012H
	DB	00H
	DB	00H
	DB	00H
	DB	00H
	DB	00H
	DB	00H
	DB	00H
	DB	00H
	DB	00H
	DB	00H
	DB	00H
	DB	00H
	DB	00H
	DB	025H
	DB	018H
	DB	03H
	DB	03H
	DB	03H
	DB	03H
	DB	03H
	DB	03H
	DB	03H
	DB	03H
	DB	03H
	DB	03H
	DB	03H
	DB	03H
	DB	03H
	DB	03H
	DB	03H
	DB	03H
	DB	03H
	DB	03H
	DB	03H
	DB	03H
	DB	03H
	DB	03H
	DB	03H
	DB	03H
	DB	03H
	DB	03H
	DB	03H
	DB	03H
	DB	03H
	DB	03H
	DB	03H
	DB	03H
	DB	03H
	DB	03H
	DB	03H
	DB	03H
	DB	03H
	DB	03H
	DB	03H
	DB	03H
	DB	03H
	DB	03H
	DB	03H
	DB	03H
	DB	025H
	DB	0cbH
	DB	01fH
	DB	01dH
	DB	021H
	DB	021H
	DB	021H
	DB	021H
	DB	021H
	DB	021H
	DB	021H
	DB	021H
	DB	021H
	DB	021H
	DB	021H
	DB	021H
	DB	021H
	DB	021H
	DB	021H
	DB	021H
	DB	021H
	DB	021H
	DB	021H
	DB	021H
	DB	021H
	DB	021H
	DB	021H
	DB	021H
	DB	021H
	DB	021H
	DB	021H
	DB	021H
	DB	021H
	DB	021H
	DB	021H
	DB	021H
	DB	021H
	DB	043H
	DB	048H
	DB	036H
	DB	033H
	DB	051H
	DB	043H
	DB	021H
	DB	021H
	DB	021H
	DB	01dH
	DB	01dH
	DB	021H
	DB	021H
	DB	054H
	DB	0a3H
	DB	04fH
	DB	03bH
	DB	0aH
	DB	0aH
	DB	0aH
	DB	0aH
	DB	0aH
	DB	0aH
	DB	0aH
	DB	0aH
	DB	0aH
	DB	0aH
	DB	0aH
	DB	0aH
	DB	0aH
	DB	0aH
	DB	0aH
	DB	057H
	DB	04fH
	DB	0a4H
	DB	062H
	DB	0aH
	DB	04cH
	DB	0e6H
	DB	026H
	DB	03H
	DB	03H
	DB	03H
	DB	03H
	DB	03H
	DB	03H
	DB	03H
	DB	03H
	DB	03H
	DB	03H
	DB	03H
	DB	03H
	DB	03H
	DB	03H
	DB	03H
	DB	03H
	DB	03H
	DB	03H
	DB	03H
	DB	03H
	DB	03H
	DB	03H
	DB	03H
	DB	03H
	DB	03H
	DB	03H
	DB	03H
	DB	03H
	DB	03H
	DB	03H
	DB	03H
	DB	03H
	DB	03H
	DB	03H
	DB	03H
	DB	03H
	DB	03H
	DB	03H
	DB	03H
	DB	026H
	DB	02dH
	DB	012H
	DB	00H
	DB	00H
	DB	00H
	DB	00H
	DB	00H
	DB	00H
	DB	00H
	DB	00H
	DB	00H
	DB	00H
	DB	00H
	DB	00H
	DB	00H
	DB	04H
	DB	026H
	DB	025H
	DB	025H
	DB	025H
	DB	025H
	DB	025H
	DB	025H
	DB	025H
	DB	025H
	DB	025H
	DB	025H
	DB	025H
	DB	025H
	DB	025H
	DB	025H
	DB	025H
	DB	025H
	DB	025H
	DB	025H
	DB	025H
	DB	025H
	DB	025H
	DB	025H
	DB	025H
	DB	025H
	DB	025H
	DB	025H
	DB	025H
	DB	025H
	DB	025H
	DB	025H
	DB	025H
	DB	025H
	DB	025H
	DB	025H
	DB	025H
	DB	025H
	DB	025H
	DB	025H
	DB	025H
	DB	025H
	DB	025H
	DB	025H
	DB	025H
	DB	03H
	DB	04H
	DB	0cbH
	DB	01fH
	DB	021H
	DB	021H
	DB	021H
	DB	021H
	DB	021H
	DB	021H
	DB	021H
	DB	021H
	DB	021H
	DB	021H
	DB	021H
	DB	021H
	DB	021H
	DB	021H
	DB	021H
	DB	021H
	DB	021H
	DB	021H
	DB	021H
	DB	021H
	DB	021H
	DB	021H
	DB	021H
	DB	021H
	DB	021H
	DB	021H
	DB	021H
	DB	021H
	DB	021H
	DB	021H
	DB	021H
	DB	021H
	DB	021H
	DB	021H
	DB	043H
	DB	048H
	DB	036H
	DB	033H
	DB	051H
	DB	054H
	DB	021H
	DB	021H
	DB	021H
	DB	021H
	DB	021H
	DB	021H
	DB	021H
	DB	021H
	DB	021H
	DB	0a5H
	DB	0a9H
	DB	091H
	DB	0aH
	DB	0aH
	DB	0aH
	DB	0aH
	DB	0aH
	DB	0aH
	DB	0aH
	DB	0aH
	DB	0aH
	DB	0aH
	DB	0aH
	DB	0aH
	DB	0aH
	DB	0aH
	DB	084H
	DB	059H
	DB	05eH
	DB	07dH
	DB	0aH
	DB	04cH
	DB	094H
	DB	03H
	DB	025H
	DB	025H
	DB	025H
	DB	025H
	DB	025H
	DB	025H
	DB	025H
	DB	025H
	DB	025H
	DB	025H
	DB	025H
	DB	025H
	DB	025H
	DB	025H
	DB	025H
	DB	025H
	DB	025H
	DB	025H
	DB	025H
	DB	025H
	DB	025H
	DB	025H
	DB	025H
	DB	025H
	DB	025H
	DB	025H
	DB	025H
	DB	025H
	DB	025H
	DB	025H
	DB	025H
	DB	025H
	DB	025H
	DB	025H
	DB	025H
	DB	025H
	DB	025H
	DB	025H
	DB	025H
	DB	03H
	DB	02dH
	DB	012H
	DB	00H
	DB	00H
	DB	00H
	DB	00H
	DB	00H
	DB	00H
	DB	00H
	DB	00H
	DB	00H
	DB	00H
	DB	00H
	DB	00H
	DB	00H
	DB	024H
	DB	03H
	DB	04H
	DB	025H
	DB	025H
	DB	025H
	DB	025H
	DB	025H
	DB	025H
	DB	025H
	DB	025H
	DB	025H
	DB	025H
	DB	025H
	DB	025H
	DB	025H
	DB	025H
	DB	025H
	DB	025H
	DB	025H
	DB	025H
	DB	025H
	DB	025H
	DB	025H
	DB	025H
	DB	025H
	DB	025H
	DB	025H
	DB	025H
	DB	025H
	DB	025H
	DB	025H
	DB	025H
	DB	025H
	DB	025H
	DB	025H
	DB	025H
	DB	025H
	DB	025H
	DB	025H
	DB	025H
	DB	025H
	DB	025H
	DB	025H
	DB	025H
	DB	025H
	DB	04H
	DB	0cbH
	DB	0a7H
	DB	021H
	DB	01fH
	DB	01fH
	DB	01fH
	DB	01fH
	DB	01fH
	DB	01fH
	DB	01fH
	DB	01fH
	DB	01fH
	DB	01fH
	DB	01fH
	DB	01fH
	DB	01fH
	DB	01fH
	DB	01fH
	DB	01fH
	DB	01fH
	DB	01fH
	DB	01fH
	DB	01fH
	DB	01fH
	DB	01fH
	DB	01fH
	DB	01fH
	DB	01fH
	DB	01fH
	DB	01fH
	DB	01fH
	DB	01fH
	DB	01fH
	DB	01fH
	DB	01fH
	DB	01fH
	DB	043H
	DB	042H
	DB	036H
	DB	033H
	DB	051H
	DB	054H
	DB	01fH
	DB	01fH
	DB	01fH
	DB	01fH
	DB	01fH
	DB	01fH
	DB	01fH
	DB	01fH
	DB	01fH
	DB	021H
	DB	0a5H
	DB	0a2H
	DB	046H
	DB	0aH
	DB	0aH
	DB	0aH
	DB	0aH
	DB	0aH
	DB	0aH
	DB	0aH
	DB	0aH
	DB	0aH
	DB	0aH
	DB	0aH
	DB	0aH
	DB	05aH
	DB	05cH
	DB	05H
	DB	056H
	DB	046H
	DB	0aH
	DB	04cH
	DB	093H
	DB	03H
	DB	025H
	DB	025H
	DB	025H
	DB	025H
	DB	025H
	DB	025H
	DB	025H
	DB	025H
	DB	025H
	DB	025H
	DB	025H
	DB	025H
	DB	025H
	DB	025H
	DB	025H
	DB	025H
	DB	025H
	DB	025H
	DB	025H
	DB	025H
	DB	025H
	DB	025H
	DB	025H
	DB	025H
	DB	025H
	DB	025H
	DB	025H
	DB	025H
	DB	025H
	DB	025H
	DB	025H
	DB	025H
	DB	025H
	DB	025H
	DB	025H
	DB	025H
	DB	025H
	DB	025H
	DB	025H
	DB	025H
	DB	05H
	DB	012H
	DB	00H
	DB	00H
	DB	00H
	DB	00H
	DB	00H
	DB	00H
	DB	00H
	DB	00H
	DB	00H
	DB	00H
	DB	00H
	DB	00H
	DB	00H
	DB	024H
	DB	03H
	DB	04H
	DB	04H
	DB	04H
	DB	04H
	DB	04H
	DB	04H
	DB	04H
	DB	04H
	DB	04H
	DB	04H
	DB	04H
	DB	04H
	DB	04H
	DB	04H
	DB	04H
	DB	04H
	DB	04H
	DB	04H
	DB	04H
	DB	04H
	DB	04H
	DB	04H
	DB	04H
	DB	04H
	DB	04H
	DB	04H
	DB	04H
	DB	04H
	DB	04H
	DB	04H
	DB	04H
	DB	04H
	DB	04H
	DB	04H
	DB	04H
	DB	04H
	DB	04H
	DB	04H
	DB	04H
	DB	04H
	DB	04H
	DB	04H
	DB	04H
	DB	04H
	DB	024H
	DB	02eH
	DB	019H
	DB	01fH
	DB	01fH
	DB	01fH
	DB	01fH
	DB	01fH
	DB	01fH
	DB	01fH
	DB	01fH
	DB	01fH
	DB	01fH
	DB	01fH
	DB	01fH
	DB	01fH
	DB	01fH
	DB	01fH
	DB	01fH
	DB	01fH
	DB	01fH
	DB	01fH
	DB	01fH
	DB	01fH
	DB	01fH
	DB	01fH
	DB	01fH
	DB	01fH
	DB	01fH
	DB	01fH
	DB	01fH
	DB	01fH
	DB	01fH
	DB	01fH
	DB	01fH
	DB	01fH
	DB	01fH
	DB	01fH
	DB	042H
	DB	036H
	DB	033H
	DB	051H
	DB	054H
	DB	01fH
	DB	01fH
	DB	01fH
	DB	01fH
	DB	01fH
	DB	01fH
	DB	01fH
	DB	01fH
	DB	01fH
	DB	01fH
	DB	01fH
	DB	049H
	DB	083H
	DB	035H
	DB	0aH
	DB	0aH
	DB	0aH
	DB	0aH
	DB	0aH
	DB	0aH
	DB	0aH
	DB	0aH
	DB	0aH
	DB	0aH
	DB	07cH
	DB	043H
	DB	0d6H
	DB	03H
	DB	056H
	DB	046H
	DB	0aH
	DB	04cH
	DB	08eH
	DB	025H
	DB	04H
	DB	04H
	DB	04H
	DB	04H
	DB	04H
	DB	04H
	DB	04H
	DB	04H
	DB	04H
	DB	04H
	DB	04H
	DB	04H
	DB	04H
	DB	04H
	DB	04H
	DB	04H
	DB	04H
	DB	04H
	DB	04H
	DB	04H
	DB	04H
	DB	04H
	DB	04H
	DB	04H
	DB	04H
	DB	04H
	DB	04H
	DB	04H
	DB	04H
	DB	04H
	DB	04H
	DB	04H
	DB	04H
	DB	04H
	DB	04H
	DB	04H
	DB	04H
	DB	04H
	DB	04H
	DB	025H
	DB	05H
	DB	012H
	DB	00H
	DB	00H
	DB	00H
	DB	00H
	DB	00H
	DB	00H
	DB	00H
	DB	00H
	DB	00H
	DB	00H
	DB	00H
	DB	00H
	DB	00H
	DB	010H
	DB	025H
	DB	024H
	DB	024H
	DB	024H
	DB	024H
	DB	024H
	DB	024H
	DB	024H
	DB	024H
	DB	024H
	DB	024H
	DB	024H
	DB	024H
	DB	024H
	DB	024H
	DB	024H
	DB	024H
	DB	024H
	DB	024H
	DB	024H
	DB	024H
	DB	024H
	DB	024H
	DB	024H
	DB	024H
	DB	024H
	DB	024H
	DB	024H
	DB	024H
	DB	024H
	DB	024H
	DB	024H
	DB	024H
	DB	024H
	DB	024H
	DB	024H
	DB	024H
	DB	024H
	DB	024H
	DB	024H
	DB	024H
	DB	024H
	DB	024H
	DB	024H
	DB	04H
	DB	010H
	DB	02eH
	DB	019H
	DB	01fH
	DB	0a7H
	DB	0a7H
	DB	0a7H
	DB	0a7H
	DB	0a7H
	DB	0a7H
	DB	0a7H
	DB	0a7H
	DB	0a7H
	DB	0a7H
	DB	0a7H
	DB	0a7H
	DB	0a7H
	DB	0a7H
	DB	0a7H
	DB	0a7H
	DB	0a7H
	DB	0a7H
	DB	0a7H
	DB	0a7H
	DB	0a7H
	DB	0a7H
	DB	0a7H
	DB	0a7H
	DB	0a7H
	DB	0a7H
	DB	0a7H
	DB	0a7H
	DB	0a7H
	DB	0a7H
	DB	0a7H
	DB	0a7H
	DB	0a7H
	DB	054H
	DB	042H
	DB	036H
	DB	033H
	DB	051H
	DB	049H
	DB	0a7H
	DB	0a7H
	DB	0a7H
	DB	0a7H
	DB	0a7H
	DB	0a7H
	DB	0a7H
	DB	0a7H
	DB	0a7H
	DB	0a7H
	DB	0a7H
	DB	01fH
	DB	049H
	DB	0eH
	DB	070H
	DB	0aH
	DB	0aH
	DB	0aH
	DB	0aH
	DB	0aH
	DB	0aH
	DB	0aH
	DB	0aH
	DB	060H
	DB	058H
	DB	0d2H
	DB	010H
	DB	03H
	DB	056H
	DB	046H
	DB	0aH
	DB	04cH
	DB	0dfH
	DB	04H
	DB	024H
	DB	024H
	DB	024H
	DB	024H
	DB	024H
	DB	024H
	DB	024H
	DB	024H
	DB	024H
	DB	024H
	DB	024H
	DB	024H
	DB	024H
	DB	024H
	DB	024H
	DB	024H
	DB	024H
	DB	024H
	DB	024H
	DB	024H
	DB	024H
	DB	024H
	DB	024H
	DB	024H
	DB	024H
	DB	024H
	DB	024H
	DB	024H
	DB	024H
	DB	024H
	DB	024H
	DB	024H
	DB	024H
	DB	024H
	DB	024H
	DB	024H
	DB	024H
	DB	024H
	DB	024H
	DB	04H
	DB	06fH
	DB	0a6H
	DB	00H
	DB	00H
	DB	00H
	DB	00H
	DB	00H
	DB	00H
	DB	00H
	DB	00H
	DB	00H
	DB	00H
	DB	00H
	DB	00H
	DB	00H
	DB	072H
	DB	04H
	DB	010H
	DB	010H
	DB	010H
	DB	010H
	DB	010H
	DB	010H
	DB	010H
	DB	010H
	DB	010H
	DB	010H
	DB	010H
	DB	010H
	DB	010H
	DB	010H
	DB	010H
	DB	010H
	DB	010H
	DB	010H
	DB	010H
	DB	010H
	DB	010H
	DB	010H
	DB	010H
	DB	010H
	DB	010H
	DB	010H
	DB	010H
	DB	010H
	DB	010H
	DB	010H
	DB	010H
	DB	010H
	DB	010H
	DB	010H
	DB	010H
	DB	010H
	DB	010H
	DB	010H
	DB	010H
	DB	010H
	DB	010H
	DB	010H
	DB	010H
	DB	024H
	DB	011H
	DB	02eH
	DB	019H
	DB	0a7H
	DB	0a7H
	DB	0a7H
	DB	0a7H
	DB	0a7H
	DB	0a7H
	DB	0a7H
	DB	0a7H
	DB	0a7H
	DB	0a7H
	DB	0a7H
	DB	0a7H
	DB	0a7H
	DB	0a7H
	DB	0a7H
	DB	0a7H
	DB	0a7H
	DB	0a7H
	DB	0a7H
	DB	0a7H
	DB	0a7H
	DB	0a7H
	DB	0a7H
	DB	0a7H
	DB	0a7H
	DB	0a7H
	DB	0a7H
	DB	0a7H
	DB	0a7H
	DB	0a7H
	DB	0a7H
	DB	0a7H
	DB	0a7H
	DB	0a7H
	DB	054H
	DB	042H
	DB	036H
	DB	033H
	DB	04eH
	DB	049H
	DB	0a7H
	DB	0a7H
	DB	0a7H
	DB	0a7H
	DB	0a7H
	DB	0a7H
	DB	0a7H
	DB	0a7H
	DB	0a7H
	DB	0a7H
	DB	0a7H
	DB	0a7H
	DB	0a7H
	DB	049H
	DB	0a0H
	DB	05aH
	DB	0aH
	DB	0aH
	DB	0aH
	DB	0aH
	DB	0aH
	DB	0aH
	DB	071H
	DB	051H
	DB	089H
	DB	066H
	DB	024H
	DB	025H
	DB	0cdH
	DB	046H
	DB	0aH
	DB	04cH
	DB	05fH
	DB	04H
	DB	010H
	DB	010H
	DB	010H
	DB	010H
	DB	010H
	DB	010H
	DB	010H
	DB	010H
	DB	010H
	DB	010H
	DB	010H
	DB	010H
	DB	010H
	DB	010H
	DB	010H
	DB	010H
	DB	010H
	DB	010H
	DB	010H
	DB	010H
	DB	010H
	DB	010H
	DB	010H
	DB	010H
	DB	010H
	DB	010H
	DB	010H
	DB	010H
	DB	010H
	DB	010H
	DB	010H
	DB	010H
	DB	010H
	DB	010H
	DB	010H
	DB	010H
	DB	010H
	DB	010H
	DB	010H
	DB	024H
	DB	07H
	DB	0a6H
	DB	00H
	DB	00H
	DB	00H
	DB	00H
	DB	00H
	DB	00H
	DB	00H
	DB	00H
	DB	00H
	DB	00H
	DB	00H
	DB	00H
	DB	00H
	DB	011H
	DB	04H
	DB	011H
	DB	072H
	DB	072H
	DB	072H
	DB	072H
	DB	072H
	DB	072H
	DB	072H
	DB	072H
	DB	072H
	DB	072H
	DB	072H
	DB	072H
	DB	072H
	DB	072H
	DB	072H
	DB	072H
	DB	072H
	DB	072H
	DB	072H
	DB	072H
	DB	072H
	DB	072H
	DB	072H
	DB	072H
	DB	072H
	DB	072H
	DB	072H
	DB	072H
	DB	072H
	DB	072H
	DB	072H
	DB	072H
	DB	072H
	DB	072H
	DB	072H
	DB	072H
	DB	072H
	DB	072H
	DB	072H
	DB	072H
	DB	072H
	DB	072H
	DB	010H
	DB	066H
	DB	023H
	DB	012H
	DB	019H
	DB	019H
	DB	019H
	DB	019H
	DB	019H
	DB	019H
	DB	019H
	DB	019H
	DB	019H
	DB	019H
	DB	019H
	DB	019H
	DB	019H
	DB	019H
	DB	019H
	DB	019H
	DB	019H
	DB	019H
	DB	019H
	DB	019H
	DB	019H
	DB	019H
	DB	019H
	DB	019H
	DB	019H
	DB	019H
	DB	019H
	DB	019H
	DB	019H
	DB	019H
	DB	019H
	DB	019H
	DB	019H
	DB	019H
	DB	049H
	DB	042H
	DB	036H
	DB	033H
	DB	04eH
	DB	049H
	DB	019H
	DB	019H
	DB	019H
	DB	019H
	DB	019H
	DB	019H
	DB	019H
	DB	019H
	DB	019H
	DB	019H
	DB	019H
	DB	019H
	DB	019H
	DB	0a7H
	DB	049H
	DB	0a5H
	DB	0baH
	DB	03bH
	DB	0aH
	DB	0aH
	DB	0aH
	DB	062H
	DB	0aaH
	DB	05eH
	DB	0bH
	DB	010H
	DB	072H
	DB	04H
	DB	0cdH
	DB	046H
	DB	0aH
	DB	04cH
	DB	0ddH
	DB	024H
	DB	072H
	DB	072H
	DB	072H
	DB	072H
	DB	072H
	DB	072H
	DB	072H
	DB	072H
	DB	072H
	DB	072H
	DB	072H
	DB	072H
	DB	072H
	DB	072H
	DB	072H
	DB	072H
	DB	072H
	DB	072H
	DB	072H
	DB	072H
	DB	072H
	DB	072H
	DB	072H
	DB	072H
	DB	072H
	DB	072H
	DB	072H
	DB	072H
	DB	072H
	DB	072H
	DB	072H
	DB	072H
	DB	072H
	DB	072H
	DB	072H
	DB	072H
	DB	072H
	DB	072H
	DB	072H
	DB	010H
	DB	02cH
	DB	0a6H
	DB	00H
	DB	00H
	DB	00H
	DB	00H
	DB	00H
	DB	00H
	DB	00H
	DB	00H
	DB	00H
	DB	00H
	DB	00H
	DB	00H
	DB	00H
	DB	066H
	DB	024H
	DB	066H
	DB	011H
	DB	011H
	DB	011H
	DB	011H
	DB	011H
	DB	011H
	DB	011H
	DB	011H
	DB	011H
	DB	011H
	DB	011H
	DB	011H
	DB	011H
	DB	011H
	DB	011H
	DB	011H
	DB	011H
	DB	011H
	DB	011H
	DB	011H
	DB	011H
	DB	011H
	DB	011H
	DB	011H
	DB	011H
	DB	011H
	DB	011H
	DB	011H
	DB	011H
	DB	011H
	DB	011H
	DB	011H
	DB	011H
	DB	011H
	DB	011H
	DB	011H
	DB	011H
	DB	011H
	DB	011H
	DB	011H
	DB	011H
	DB	011H
	DB	072H
	DB	0bH
	DB	023H
	DB	012H
	DB	019H
	DB	019H
	DB	019H
	DB	019H
	DB	019H
	DB	019H
	DB	019H
	DB	019H
	DB	019H
	DB	019H
	DB	019H
	DB	019H
	DB	019H
	DB	019H
	DB	019H
	DB	019H
	DB	019H
	DB	019H
	DB	019H
	DB	019H
	DB	019H
	DB	019H
	DB	019H
	DB	019H
	DB	019H
	DB	019H
	DB	019H
	DB	019H
	DB	019H
	DB	019H
	DB	019H
	DB	019H
	DB	019H
	DB	019H
	DB	049H
	DB	042H
	DB	0e3H
	DB	033H
	DB	04eH
	DB	049H
	DB	019H
	DB	019H
	DB	019H
	DB	019H
	DB	019H
	DB	019H
	DB	019H
	DB	019H
	DB	019H
	DB	019H
	DB	019H
	DB	019H
	DB	019H
	DB	019H
	DB	019H
	DB	06cH
	DB	056H
	DB	0b7H
	DB	05aH
	DB	08fH
	DB	086H
	DB	048H
	DB	06cH
	DB	05H
	DB	011H
	DB	011H
	DB	011H
	DB	024H
	DB	053H
	DB	046H
	DB	0aH
	DB	04cH
	DB	0dcH
	DB	010H
	DB	011H
	DB	011H
	DB	011H
	DB	011H
	DB	011H
	DB	011H
	DB	011H
	DB	011H
	DB	011H
	DB	011H
	DB	011H
	DB	011H
	DB	011H
	DB	011H
	DB	011H
	DB	011H
	DB	011H
	DB	011H
	DB	011H
	DB	011H
	DB	011H
	DB	011H
	DB	011H
	DB	011H
	DB	011H
	DB	011H
	DB	011H
	DB	011H
	DB	011H
	DB	011H
	DB	011H
	DB	011H
	DB	011H
	DB	011H
	DB	011H
	DB	011H
	DB	011H
	DB	011H
	DB	011H
	DB	072H
	DB	03fH
	DB	0a6H
	DB	00H
	DB	00H
	DB	00H
	DB	00H
	DB	00H
	DB	00H
	DB	00H
	DB	00H
	DB	00H
	DB	00H
	DB	00H
	DB	00H
	DB	00H
	DB	066H
	DB	010H
	DB	0bH
	DB	066H
	DB	066H
	DB	066H
	DB	066H
	DB	066H
	DB	066H
	DB	066H
	DB	066H
	DB	066H
	DB	066H
	DB	066H
	DB	066H
	DB	066H
	DB	066H
	DB	066H
	DB	066H
	DB	066H
	DB	066H
	DB	066H
	DB	066H
	DB	066H
	DB	066H
	DB	066H
	DB	066H
	DB	066H
	DB	066H
	DB	066H
	DB	066H
	DB	066H
	DB	066H
	DB	066H
	DB	066H
	DB	066H
	DB	066H
	DB	066H
	DB	066H
	DB	066H
	DB	066H
	DB	066H
	DB	066H
	DB	066H
	DB	066H
	DB	011H
	DB	0bH
	DB	023H
	DB	012H
	DB	019H
	DB	012H
	DB	012H
	DB	012H
	DB	012H
	DB	012H
	DB	012H
	DB	012H
	DB	012H
	DB	012H
	DB	012H
	DB	012H
	DB	012H
	DB	012H
	DB	012H
	DB	012H
	DB	012H
	DB	012H
	DB	012H
	DB	012H
	DB	012H
	DB	012H
	DB	012H
	DB	012H
	DB	012H
	DB	012H
	DB	012H
	DB	012H
	DB	012H
	DB	012H
	DB	012H
	DB	012H
	DB	012H
	DB	012H
	DB	049H
	DB	042H
	DB	0e3H
	DB	033H
	DB	04eH
	DB	05bH
	DB	012H
	DB	012H
	DB	012H
	DB	012H
	DB	012H
	DB	012H
	DB	012H
	DB	012H
	DB	012H
	DB	012H
	DB	012H
	DB	012H
	DB	012H
	DB	012H
	DB	012H
	DB	02eH
	DB	066H
	DB	05fH
	DB	055H
	DB	017H
	DB	059H
	DB	056H
	DB	05H
	DB	066H
	DB	066H
	DB	066H
	DB	066H
	DB	024H
	DB	053H
	DB	046H
	DB	0aH
	DB	04cH
	DB	0daH
	DB	011H
	DB	066H
	DB	066H
	DB	066H
	DB	066H
	DB	066H
	DB	066H
	DB	066H
	DB	066H
	DB	066H
	DB	066H
	DB	066H
	DB	066H
	DB	066H
	DB	066H
	DB	066H
	DB	066H
	DB	066H
	DB	066H
	DB	066H
	DB	066H
	DB	066H
	DB	066H
	DB	066H
	DB	066H
	DB	066H
	DB	066H
	DB	066H
	DB	066H
	DB	066H
	DB	066H
	DB	066H
	DB	066H
	DB	066H
	DB	066H
	DB	066H
	DB	066H
	DB	066H
	DB	066H
	DB	066H
	DB	011H
	DB	0dbH
	DB	0a6H
	DB	00H
	DB	00H
	DB	00H
	DB	00H
	DB	00H
	DB	00H
	DB	00H
	DB	00H
	DB	00H
	DB	00H
	DB	00H
	DB	00H
	DB	00H
	DB	0bH
	DB	072H
	DB	0bH
	DB	0bH
	DB	0bH
	DB	0bH
	DB	0bH
	DB	0bH
	DB	0bH
	DB	0bH
	DB	0bH
	DB	0bH
	DB	0bH
	DB	0bH
	DB	0bH
	DB	0bH
	DB	0bH
	DB	0bH
	DB	0bH
	DB	0bH
	DB	0bH
	DB	0bH
	DB	0bH
	DB	0bH
	DB	0bH
	DB	0bH
	DB	0bH
	DB	0bH
	DB	0bH
	DB	0bH
	DB	0bH
	DB	0bH
	DB	0bH
	DB	0bH
	DB	0bH
	DB	0bH
	DB	0bH
	DB	0bH
	DB	0bH
	DB	0bH
	DB	0bH
	DB	0bH
	DB	0bH
	DB	0bH
	DB	0bH
	DB	066H
	DB	02dH
	DB	023H
	DB	0a6H
	DB	012H
	DB	012H
	DB	012H
	DB	012H
	DB	012H
	DB	012H
	DB	012H
	DB	012H
	DB	012H
	DB	012H
	DB	012H
	DB	012H
	DB	012H
	DB	012H
	DB	012H
	DB	012H
	DB	012H
	DB	012H
	DB	012H
	DB	012H
	DB	012H
	DB	012H
	DB	012H
	DB	012H
	DB	012H
	DB	012H
	DB	012H
	DB	012H
	DB	012H
	DB	012H
	DB	012H
	DB	012H
	DB	012H
	DB	012H
	DB	012H
	DB	042H
	DB	0e3H
	DB	033H
	DB	04eH
	DB	05bH
	DB	012H
	DB	012H
	DB	012H
	DB	012H
	DB	012H
	DB	012H
	DB	012H
	DB	012H
	DB	012H
	DB	012H
	DB	012H
	DB	012H
	DB	012H
	DB	012H
	DB	012H
	DB	01dH
	DB	03cH
	DB	02dH
	DB	06fH
	DB	0dbH
	DB	03dH
	DB	06fH
	DB	02dH
	DB	0bH
	DB	0bH
	DB	0bH
	DB	0bH
	DB	072H
	DB	053H
	DB	046H
	DB	0aH
	DB	04cH
	DB	08cH
	DB	066H
	DB	0bH
	DB	0bH
	DB	0bH
	DB	0bH
	DB	0bH
	DB	0bH
	DB	0bH
	DB	0bH
	DB	0bH
	DB	0bH
	DB	0bH
	DB	0bH
	DB	0bH
	DB	0bH
	DB	0bH
	DB	0bH
	DB	0bH
	DB	0bH
	DB	0bH
	DB	0bH
	DB	0bH
	DB	0bH
	DB	0bH
	DB	0bH
	DB	0bH
	DB	0bH
	DB	0bH
	DB	0bH
	DB	0bH
	DB	0bH
	DB	0bH
	DB	0bH
	DB	0bH
	DB	0bH
	DB	0bH
	DB	0bH
	DB	0bH
	DB	0bH
	DB	0bH
	DB	066H
	DB	03dH
	DB	0a6H
	DB	00H
	DB	00H
	DB	00H
	DB	00H
	DB	00H
	DB	00H
	DB	00H
	DB	00H
	DB	00H
	DB	00H
	DB	00H
	DB	00H
	DB	00H
	DB	0bH
	DB	011H
	DB	02dH
	DB	02dH
	DB	02dH
	DB	02dH
	DB	02dH
	DB	02dH
	DB	02dH
	DB	02dH
	DB	02dH
	DB	02dH
	DB	02dH
	DB	02dH
	DB	02dH
	DB	02dH
	DB	02dH
	DB	02dH
	DB	02dH
	DB	02dH
	DB	02dH
	DB	02dH
	DB	02dH
	DB	02dH
	DB	02dH
	DB	02dH
	DB	02dH
	DB	02dH
	DB	02dH
	DB	02dH
	DB	02dH
	DB	02dH
	DB	02dH
	DB	02dH
	DB	02dH
	DB	02dH
	DB	02dH
	DB	02dH
	DB	02dH
	DB	02dH
	DB	02dH
	DB	02dH
	DB	02dH
	DB	02dH
	DB	02dH
	DB	0bH
	DB	02dH
	DB	023H
	DB	01cH
	DB	012H
	DB	0a6H
	DB	0a6H
	DB	0a6H
	DB	0a6H
	DB	0a6H
	DB	0a6H
	DB	0a6H
	DB	0a6H
	DB	0a6H
	DB	0a6H
	DB	0a6H
	DB	0a6H
	DB	0a6H
	DB	0a6H
	DB	0a6H
	DB	0a6H
	DB	0a6H
	DB	0a6H
	DB	0a6H
	DB	0a6H
	DB	0a6H
	DB	0a6H
	DB	0a6H
	DB	0a6H
	DB	0a6H
	DB	0a6H
	DB	0a6H
	DB	0a6H
	DB	0a6H
	DB	0a6H
	DB	0a6H
	DB	0a6H
	DB	0a6H
	DB	05bH
	DB	042H
	DB	0e3H
	DB	033H
	DB	04eH
	DB	05bH
	DB	0a6H
	DB	0a6H
	DB	0a6H
	DB	0a6H
	DB	0a6H
	DB	0a6H
	DB	0a6H
	DB	0a6H
	DB	0a6H
	DB	0a6H
	DB	0a6H
	DB	0a6H
	DB	0a6H
	DB	0a6H
	DB	012H
	DB	012H
	DB	01fH
	DB	04bH
	DB	0dH
	DB	0dH
	DB	01dH
	DB	04bH
	DB	0cfH
	DB	02dH
	DB	0bH
	DB	02dH
	DB	02dH
	DB	011H
	DB	089H
	DB	046H
	DB	0aH
	DB	0b8H
	DB	0d9H
	DB	0bH
	DB	02dH
	DB	02dH
	DB	02dH
	DB	02dH
	DB	02dH
	DB	02dH
	DB	02dH
	DB	02dH
	DB	02dH
	DB	02dH
	DB	02dH
	DB	02dH
	DB	02dH
	DB	02dH
	DB	02dH
	DB	02dH
	DB	02dH
	DB	02dH
	DB	02dH
	DB	02dH
	DB	02dH
	DB	02dH
	DB	02dH
	DB	02dH
	DB	02dH
	DB	02dH
	DB	02dH
	DB	02dH
	DB	02dH
	DB	02dH
	DB	02dH
	DB	02dH
	DB	02dH
	DB	02dH
	DB	02dH
	DB	02dH
	DB	02dH
	DB	02dH
	DB	02dH
	DB	0bH
	DB	0d8H
	DB	01cH
	DB	00H
	DB	00H
	DB	00H
	DB	00H
	DB	00H
	DB	00H
	DB	00H
	DB	00H
	DB	00H
	DB	00H
	DB	00H
	DB	00H
	DB	00H
	DB	02dH
	DB	066H
	DB	02dH
	DB	02dH
	DB	02dH
	DB	02dH
	DB	02dH
	DB	02dH
	DB	02dH
	DB	02dH
	DB	02dH
	DB	02dH
	DB	02dH
	DB	02dH
	DB	02dH
	DB	02dH
	DB	02dH
	DB	02dH
	DB	02dH
	DB	02dH
	DB	02dH
	DB	02dH
	DB	02dH
	DB	02dH
	DB	02dH
	DB	02dH
	DB	02dH
	DB	02dH
	DB	02dH
	DB	02dH
	DB	02dH
	DB	02dH
	DB	02dH
	DB	02dH
	DB	02dH
	DB	02dH
	DB	02dH
	DB	02dH
	DB	02dH
	DB	02dH
	DB	02dH
	DB	02dH
	DB	02dH
	DB	02dH
	DB	02dH
	DB	02dH
	DB	05H
	DB	023H
	DB	01cH
	DB	0a6H
	DB	0a6H
	DB	0a6H
	DB	0a6H
	DB	0a6H
	DB	0a6H
	DB	0a6H
	DB	0a6H
	DB	0a6H
	DB	0a6H
	DB	0a6H
	DB	0a6H
	DB	0a6H
	DB	0a6H
	DB	0a6H
	DB	0a6H
	DB	0a6H
	DB	0a6H
	DB	0a6H
	DB	0a6H
	DB	0a6H
	DB	0a6H
	DB	0a6H
	DB	0a6H
	DB	0a6H
	DB	0a6H
	DB	0a6H
	DB	0a6H
	DB	0a6H
	DB	0a6H
	DB	0a6H
	DB	0a6H
	DB	0a6H
	DB	0a6H
	DB	05bH
	DB	0a1H
	DB	0e3H
	DB	033H
	DB	04eH
	DB	04aH
	DB	0a6H
	DB	0a6H
	DB	0a6H
	DB	0a6H
	DB	0a6H
	DB	0a6H
	DB	0a6H
	DB	0a6H
	DB	0a6H
	DB	0a6H
	DB	0a6H
	DB	0a6H
	DB	0a6H
	DB	0a6H
	DB	0a6H
	DB	0a6H
	DB	0a6H
	DB	01cH
	DB	01cH
	DB	01cH
	DB	01cH
	DB	0a6H
	DB	044H
	DB	02dH
	DB	02dH
	DB	02dH
	DB	02dH
	DB	066H
	DB	089H
	DB	046H
	DB	0aH
	DB	0b8H
	DB	06dH
	DB	0bH
	DB	02dH
	DB	02dH
	DB	02dH
	DB	02dH
	DB	02dH
	DB	02dH
	DB	02dH
	DB	02dH
	DB	02dH
	DB	02dH
	DB	02dH
	DB	02dH
	DB	02dH
	DB	02dH
	DB	02dH
	DB	02dH
	DB	02dH
	DB	02dH
	DB	02dH
	DB	02dH
	DB	02dH
	DB	02dH
	DB	02dH
	DB	02dH
	DB	02dH
	DB	02dH
	DB	02dH
	DB	02dH
	DB	02dH
	DB	02dH
	DB	02dH
	DB	02dH
	DB	02dH
	DB	02dH
	DB	02dH
	DB	02dH
	DB	02dH
	DB	02dH
	DB	02dH
	DB	0bH
	DB	04dH
	DB	01cH
	DB	00H
	DB	00H
	DB	00H
	DB	00H
	DB	00H
	DB	00H
	DB	00H
	DB	00H
	DB	00H
	DB	00H
	DB	00H
	DB	00H
	DB	00H
	DB	02dH
	DB	0bH
	DB	05H
	DB	02dH
	DB	02dH
	DB	02dH
	DB	02dH
	DB	02dH
	DB	02dH
	DB	02dH
	DB	02dH
	DB	02dH
	DB	02dH
	DB	02dH
	DB	02dH
	DB	02dH
	DB	02dH
	DB	02dH
	DB	02dH
	DB	02dH
	DB	02dH
	DB	02dH
	DB	02dH
	DB	02dH
	DB	02dH
	DB	02dH
	DB	02dH
	DB	02dH
	DB	02dH
	DB	02dH
	DB	02dH
	DB	02dH
	DB	02dH
	DB	02dH
	DB	02dH
	DB	02dH
	DB	02dH
	DB	02dH
	DB	02dH
	DB	02dH
	DB	02dH
	DB	02dH
	DB	02dH
	DB	02dH
	DB	02dH
	DB	02dH
	DB	05H
	DB	023H
	DB	01cH
	DB	0a6H
	DB	01cH
	DB	01cH
	DB	01cH
	DB	01cH
	DB	01cH
	DB	01cH
	DB	01cH
	DB	01cH
	DB	01cH
	DB	01cH
	DB	01cH
	DB	01cH
	DB	01cH
	DB	01cH
	DB	01cH
	DB	01cH
	DB	01cH
	DB	01cH
	DB	01cH
	DB	01cH
	DB	01cH
	DB	01cH
	DB	01cH
	DB	01cH
	DB	01cH
	DB	01cH
	DB	01cH
	DB	01cH
	DB	01cH
	DB	01cH
	DB	01cH
	DB	01cH
	DB	01cH
	DB	01cH
	DB	0a1H
	DB	0e3H
	DB	033H
	DB	04eH
	DB	04aH
	DB	01cH
	DB	01cH
	DB	01cH
	DB	01cH
	DB	01cH
	DB	01cH
	DB	01cH
	DB	01cH
	DB	01cH
	DB	01cH
	DB	01cH
	DB	01cH
	DB	01cH
	DB	01cH
	DB	01cH
	DB	01cH
	DB	01cH
	DB	0a6H
	DB	0a6H
	DB	0a6H
	DB	01cH
	DB	012H
	DB	044H
	DB	05H
	DB	02dH
	DB	02dH
	DB	02dH
	DB	0bH
	DB	055H
	DB	07dH
	DB	0aH
	DB	0b8H
	DB	0d7H
	DB	02dH
	DB	02dH
	DB	02dH
	DB	02dH
	DB	02dH
	DB	02dH
	DB	02dH
	DB	02dH
	DB	02dH
	DB	02dH
	DB	02dH
	DB	02dH
	DB	02dH
	DB	02dH
	DB	02dH
	DB	02dH
	DB	02dH
	DB	02dH
	DB	02dH
	DB	02dH
	DB	02dH
	DB	02dH
	DB	02dH
	DB	02dH
	DB	02dH
	DB	02dH
	DB	02dH
	DB	02dH
	DB	02dH
	DB	02dH
	DB	02dH
	DB	02dH
	DB	02dH
	DB	02dH
	DB	02dH
	DB	02dH
	DB	02dH
	DB	02dH
	DB	02dH
	DB	02dH
	DB	02dH
	DB	0d5H
	DB	01cH
	DB	00H
	DB	00H
	DB	00H
	DB	00H
	DB	00H
	DB	00H
	DB	00H
	DB	00H
	DB	00H
	DB	00H
	DB	00H
	DB	00H
	DB	00H
	DB	02dH
	DB	0bH
	DB	05H
	DB	05H
	DB	05H
	DB	05H
	DB	05H
	DB	05H
	DB	05H
	DB	05H
	DB	05H
	DB	05H
	DB	05H
	DB	05H
	DB	05H
	DB	05H
	DB	05H
	DB	05H
	DB	05H
	DB	05H
	DB	05H
	DB	05H
	DB	05H
	DB	05H
	DB	05H
	DB	05H
	DB	05H
	DB	05H
	DB	05H
	DB	05H
	DB	05H
	DB	05H
	DB	05H
	DB	05H
	DB	05H
	DB	05H
	DB	05H
	DB	05H
	DB	05H
	DB	05H
	DB	05H
	DB	05H
	DB	05H
	DB	05H
	DB	05H
	DB	05H
	DB	06fH
	DB	017H
	DB	0eH
	DB	01cH
	DB	01cH
	DB	01cH
	DB	01cH
	DB	01cH
	DB	01cH
	DB	01cH
	DB	01cH
	DB	01cH
	DB	01cH
	DB	01cH
	DB	01cH
	DB	01cH
	DB	01cH
	DB	01cH
	DB	01cH
	DB	01cH
	DB	01cH
	DB	01cH
	DB	01cH
	DB	01cH
	DB	01cH
	DB	01cH
	DB	01cH
	DB	01cH
	DB	01cH
	DB	01cH
	DB	01cH
	DB	01cH
	DB	01cH
	DB	01cH
	DB	01cH
	DB	01cH
	DB	01cH
	DB	04aH
	DB	0a1H
	DB	0e3H
	DB	033H
	DB	04eH
	DB	04aH
	DB	01cH
	DB	01cH
	DB	01cH
	DB	01cH
	DB	01cH
	DB	01cH
	DB	01cH
	DB	01cH
	DB	01cH
	DB	01cH
	DB	01cH
	DB	01cH
	DB	01cH
	DB	01cH
	DB	01cH
	DB	01cH
	DB	01cH
	DB	01cH
	DB	01cH
	DB	01cH
	DB	01cH
	DB	012H
	DB	041H
	DB	02dH
	DB	0bH
	DB	0bH
	DB	0bH
	DB	011H
	DB	089H
	DB	046H
	DB	0aH
	DB	0b8H
	DB	08aH
	DB	02dH
	DB	05H
	DB	05H
	DB	05H
	DB	05H
	DB	05H
	DB	05H
	DB	05H
	DB	05H
	DB	05H
	DB	05H
	DB	05H
	DB	05H
	DB	05H
	DB	05H
	DB	05H
	DB	05H
	DB	05H
	DB	05H
	DB	05H
	DB	05H
	DB	05H
	DB	05H
	DB	05H
	DB	05H
	DB	05H
	DB	05H
	DB	05H
	DB	05H
	DB	05H
	DB	05H
	DB	05H
	DB	05H
	DB	05H
	DB	05H
	DB	05H
	DB	05H
	DB	05H
	DB	05H
	DB	05H
	DB	02dH
	DB	03cH
	DB	01cH
	DB	00H
	DB	00H
	DB	00H
	DB	00H
	DB	00H
	DB	00H
	DB	00H
	DB	00H
	DB	00H
	DB	00H
	DB	00H
	DB	00H
	DB	00H
	DB	05H
	DB	02dH
	DB	05H
	DB	05H
	DB	05H
	DB	05H
	DB	05H
	DB	05H
	DB	05H
	DB	05H
	DB	05H
	DB	05H
	DB	05H
	DB	05H
	DB	05H
	DB	05H
	DB	05H
	DB	05H
	DB	05H
	DB	05H
	DB	05H
	DB	05H
	DB	05H
	DB	05H
	DB	05H
	DB	05H
	DB	05H
	DB	05H
	DB	05H
	DB	05H
	DB	05H
	DB	05H
	DB	05H
	DB	05H
	DB	05H
	DB	05H
	DB	05H
	DB	05H
	DB	05H
	DB	05H
	DB	05H
	DB	05H
	DB	05H
	DB	05H
	DB	05H
	DB	05H
	DB	06fH
	DB	017H
	DB	0eH
	DB	01cH
	DB	01cH
	DB	01cH
	DB	01cH
	DB	01cH
	DB	01cH
	DB	01cH
	DB	01cH
	DB	01cH
	DB	01cH
	DB	01cH
	DB	01cH
	DB	01cH
	DB	01cH
	DB	01cH
	DB	01cH
	DB	01cH
	DB	01cH
	DB	01cH
	DB	01cH
	DB	01cH
	DB	01cH
	DB	01cH
	DB	01cH
	DB	01cH
	DB	01cH
	DB	01cH
	DB	01cH
	DB	01cH
	DB	01cH
	DB	01cH
	DB	01cH
	DB	01cH
	DB	01cH
	DB	04aH
	DB	0a1H
	DB	0e3H
	DB	033H
	DB	074H
	DB	032H
	DB	032H
	DB	032H
	DB	032H
	DB	032H
	DB	032H
	DB	032H
	DB	032H
	DB	032H
	DB	032H
	DB	032H
	DB	032H
	DB	032H
	DB	032H
	DB	032H
	DB	032H
	DB	032H
	DB	032H
	DB	032H
	DB	032H
	DB	032H
	DB	032H
	DB	09fH
	DB	0b3H
	DB	0cdH
	DB	0cdH
	DB	0cdH
	DB	0cdH
	DB	056H
	DB	0b4H
	DB	07dH
	DB	0aH
	DB	0b6H
	DB	0d4H
	DB	02dH
	DB	05H
	DB	05H
	DB	05H
	DB	05H
	DB	05H
	DB	05H
	DB	05H
	DB	05H
	DB	05H
	DB	05H
	DB	05H
	DB	05H
	DB	05H
	DB	05H
	DB	05H
	DB	05H
	DB	05H
	DB	05H
	DB	05H
	DB	05H
	DB	05H
	DB	05H
	DB	05H
	DB	05H
	DB	05H
	DB	05H
	DB	05H
	DB	05H
	DB	05H
	DB	05H
	DB	05H
	DB	05H
	DB	05H
	DB	05H
	DB	05H
	DB	05H
	DB	05H
	DB	05H
	DB	05H
	DB	05H
	DB	03cH
	DB	01cH
	DB	00H
	DB	00H
	DB	00H
	DB	00H
	DB	00H
	DB	00H
	DB	00H
	DB	00H
	DB	00H
	DB	00H
	DB	00H
	DB	00H
	DB	00H
	DB	05H
	DB	02dH
	DB	06fH
	DB	06fH
	DB	06fH
	DB	06fH
	DB	06fH
	DB	06fH
	DB	06fH
	DB	06fH
	DB	06fH
	DB	06fH
	DB	06fH
	DB	06fH
	DB	06fH
	DB	06fH
	DB	06fH
	DB	06fH
	DB	06fH
	DB	06fH
	DB	06fH
	DB	06fH
	DB	06fH
	DB	06fH
	DB	06fH
	DB	06fH
	DB	06fH
	DB	06fH
	DB	06fH
	DB	06fH
	DB	06fH
	DB	06fH
	DB	06fH
	DB	06fH
	DB	06fH
	DB	06fH
	DB	06fH
	DB	06fH
	DB	06fH
	DB	06fH
	DB	06fH
	DB	06fH
	DB	06fH
	DB	06fH
	DB	06fH
	DB	05H
	DB	07H
	DB	017H
	DB	0eH
	DB	0eH
	DB	0eH
	DB	0eH
	DB	0eH
	DB	0eH
	DB	0eH
	DB	0eH
	DB	0eH
	DB	0eH
	DB	0eH
	DB	0eH
	DB	0eH
	DB	0eH
	DB	0eH
	DB	0eH
	DB	0eH
	DB	0eH
	DB	0eH
	DB	0eH
	DB	0eH
	DB	0eH
	DB	0eH
	DB	0eH
	DB	0eH
	DB	0eH
	DB	0eH
	DB	0eH
	DB	0eH
	DB	0eH
	DB	0eH
	DB	0eH
	DB	0eH
	DB	0eH
	DB	0eH
	DB	04aH
	DB	073H
	DB	034H
	DB	0aH
	DB	060H
	DB	035H
	DB	035H
	DB	035H
	DB	035H
	DB	035H
	DB	035H
	DB	035H
	DB	035H
	DB	035H
	DB	035H
	DB	035H
	DB	035H
	DB	035H
	DB	035H
	DB	035H
	DB	035H
	DB	035H
	DB	035H
	DB	035H
	DB	035H
	DB	035H
	DB	035H
	DB	035H
	DB	035H
	DB	035H
	DB	035H
	DB	035H
	DB	035H
	DB	035H
	DB	035H
	DB	065H
	DB	033H
	DB	05dH
	DB	08aH
	DB	05H
	DB	06fH
	DB	06fH
	DB	06fH
	DB	06fH
	DB	06fH
	DB	06fH
	DB	06fH
	DB	06fH
	DB	06fH
	DB	06fH
	DB	06fH
	DB	06fH
	DB	06fH
	DB	06fH
	DB	06fH
	DB	06fH
	DB	06fH
	DB	06fH
	DB	06fH
	DB	06fH
	DB	06fH
	DB	06fH
	DB	06fH
	DB	06fH
	DB	06fH
	DB	06fH
	DB	06fH
	DB	06fH
	DB	06fH
	DB	06fH
	DB	06fH
	DB	06fH
	DB	06fH
	DB	06fH
	DB	06fH
	DB	06fH
	DB	06fH
	DB	06fH
	DB	06fH
	DB	05H
	DB	038H
	DB	01cH
	DB	00H
	DB	00H
	DB	00H
	DB	00H
	DB	00H
	DB	00H
	DB	00H
	DB	00H
	DB	00H
	DB	00H
	DB	00H
	DB	00H
	DB	00H
	DB	05H
	DB	02dH
	DB	07H
	DB	06fH
	DB	06fH
	DB	06fH
	DB	06fH
	DB	06fH
	DB	06fH
	DB	06fH
	DB	06fH
	DB	06fH
	DB	06fH
	DB	06fH
	DB	06fH
	DB	06fH
	DB	06fH
	DB	06fH
	DB	06fH
	DB	06fH
	DB	06fH
	DB	06fH
	DB	06fH
	DB	06fH
	DB	06fH
	DB	06fH
	DB	06fH
	DB	06fH
	DB	06fH
	DB	06fH
	DB	06fH
	DB	06fH
	DB	06fH
	DB	06fH
	DB	06fH
	DB	06fH
	DB	06fH
	DB	06fH
	DB	06fH
	DB	06fH
	DB	06fH
	DB	06fH
	DB	06fH
	DB	06fH
	DB	06fH
	DB	06fH
	DB	02cH
	DB	017H
	DB	0eH
	DB	0eH
	DB	0eH
	DB	0eH
	DB	0eH
	DB	0eH
	DB	0eH
	DB	0eH
	DB	0eH
	DB	0eH
	DB	0eH
	DB	0eH
	DB	0eH
	DB	0eH
	DB	0eH
	DB	0eH
	DB	0eH
	DB	0eH
	DB	0eH
	DB	0eH
	DB	0eH
	DB	0eH
	DB	0eH
	DB	0eH
	DB	0eH
	DB	0eH
	DB	0eH
	DB	0eH
	DB	0eH
	DB	0eH
	DB	0eH
	DB	0eH
	DB	0eH
	DB	0eH
	DB	0eH
	DB	0eH
	DB	032H
	DB	05aH
	DB	0aH
	DB	0aH
	DB	0aH
	DB	0aH
	DB	0aH
	DB	0aH
	DB	0aH
	DB	0aH
	DB	0aH
	DB	0aH
	DB	0aH
	DB	0aH
	DB	0aH
	DB	0aH
	DB	0aH
	DB	0aH
	DB	0aH
	DB	0aH
	DB	0aH
	DB	0aH
	DB	0aH
	DB	0aH
	DB	0aH
	DB	0aH
	DB	0aH
	DB	0aH
	DB	0aH
	DB	0aH
	DB	0aH
	DB	0aH
	DB	0aH
	DB	0aH
	DB	0aH
	DB	090H
	DB	0b1H
	DB	08bH
	DB	06fH
	DB	06fH
	DB	06fH
	DB	06fH
	DB	06fH
	DB	06fH
	DB	06fH
	DB	06fH
	DB	06fH
	DB	06fH
	DB	06fH
	DB	06fH
	DB	06fH
	DB	06fH
	DB	06fH
	DB	06fH
	DB	06fH
	DB	06fH
	DB	06fH
	DB	06fH
	DB	06fH
	DB	06fH
	DB	06fH
	DB	06fH
	DB	06fH
	DB	06fH
	DB	06fH
	DB	06fH
	DB	06fH
	DB	06fH
	DB	06fH
	DB	06fH
	DB	06fH
	DB	06fH
	DB	06fH
	DB	06fH
	DB	06fH
	DB	06fH
	DB	06fH
	DB	06fH
	DB	06fH
	DB	045H
	DB	01cH
	DB	00H
	DB	00H
	DB	00H
	DB	00H
	DB	00H
	DB	00H
	DB	00H
	DB	00H
	DB	00H
	DB	00H
	DB	00H
	DB	00H
	DB	00H
	DB	06fH
	DB	05H
	DB	07H
	DB	07H
	DB	07H
	DB	07H
	DB	07H
	DB	07H
	DB	07H
	DB	07H
	DB	07H
	DB	07H
	DB	07H
	DB	07H
	DB	07H
	DB	07H
	DB	07H
	DB	07H
	DB	07H
	DB	07H
	DB	07H
	DB	07H
	DB	07H
	DB	07H
	DB	07H
	DB	07H
	DB	07H
	DB	07H
	DB	07H
	DB	07H
	DB	07H
	DB	07H
	DB	07H
	DB	07H
	DB	07H
	DB	07H
	DB	07H
	DB	07H
	DB	07H
	DB	07H
	DB	07H
	DB	07H
	DB	07H
	DB	07H
	DB	07H
	DB	06fH
	DB	02cH
	DB	017H
	DB	0a0H
	DB	0eH
	DB	0eH
	DB	0eH
	DB	0eH
	DB	0eH
	DB	0eH
	DB	0eH
	DB	0eH
	DB	0eH
	DB	0eH
	DB	0eH
	DB	0eH
	DB	0eH
	DB	0eH
	DB	0eH
	DB	0eH
	DB	0eH
	DB	0eH
	DB	0eH
	DB	0eH
	DB	0eH
	DB	0eH
	DB	0eH
	DB	0eH
	DB	0eH
	DB	0eH
	DB	0eH
	DB	0eH
	DB	0eH
	DB	0eH
	DB	0eH
	DB	0eH
	DB	0eH
	DB	0eH
	DB	0eH
	DB	0eH
	DB	09eH
	DB	0abH
	DB	03aH
	DB	03aH
	DB	03aH
	DB	03aH
	DB	03aH
	DB	03aH
	DB	03aH
	DB	03aH
	DB	03aH
	DB	03aH
	DB	03aH
	DB	03aH
	DB	03aH
	DB	03aH
	DB	03aH
	DB	03aH
	DB	03aH
	DB	03aH
	DB	03aH
	DB	03aH
	DB	03aH
	DB	03aH
	DB	03aH
	DB	03aH
	DB	04fH
	DB	04fH
	DB	04fH
	DB	04fH
	DB	04fH
	DB	04fH
	DB	04fH
	DB	0b5H
	DB	058H
	DB	044H
	DB	02cH
	DB	06fH
	DB	07H
	DB	07H
	DB	07H
	DB	07H
	DB	07H
	DB	07H
	DB	07H
	DB	07H
	DB	07H
	DB	07H
	DB	07H
	DB	07H
	DB	07H
	DB	07H
	DB	07H
	DB	07H
	DB	07H
	DB	07H
	DB	07H
	DB	07H
	DB	07H
	DB	07H
	DB	07H
	DB	07H
	DB	07H
	DB	07H
	DB	07H
	DB	07H
	DB	07H
	DB	07H
	DB	07H
	DB	07H
	DB	07H
	DB	07H
	DB	07H
	DB	07H
	DB	07H
	DB	07H
	DB	07H
	DB	06fH
	DB	045H
	DB	01cH
	DB	00H
	DB	00H
	DB	00H
	DB	00H
	DB	00H
	DB	00H
	DB	00H
	DB	00H
	DB	00H
	DB	00H
	DB	00H
	DB	00H
	DB	00H
	DB	06fH
	DB	05H
	DB	02cH
	DB	07H
	DB	07H
	DB	07H
	DB	07H
	DB	07H
	DB	07H
	DB	07H
	DB	07H
	DB	07H
	DB	07H
	DB	07H
	DB	07H
	DB	07H
	DB	07H
	DB	07H
	DB	07H
	DB	07H
	DB	07H
	DB	07H
	DB	07H
	DB	07H
	DB	07H
	DB	07H
	DB	07H
	DB	07H
	DB	07H
	DB	07H
	DB	07H
	DB	07H
	DB	07H
	DB	07H
	DB	07H
	DB	07H
	DB	07H
	DB	07H
	DB	07H
	DB	07H
	DB	07H
	DB	07H
	DB	07H
	DB	07H
	DB	07H
	DB	07H
	DB	03fH
	DB	017H
	DB	020H
	DB	0eH
	DB	0eH
	DB	0eH
	DB	0eH
	DB	0eH
	DB	0eH
	DB	0eH
	DB	0eH
	DB	0eH
	DB	0eH
	DB	0eH
	DB	0eH
	DB	0eH
	DB	0eH
	DB	0eH
	DB	0eH
	DB	0eH
	DB	0eH
	DB	0eH
	DB	0eH
	DB	0eH
	DB	0eH
	DB	0eH
	DB	0eH
	DB	0eH
	DB	0eH
	DB	0eH
	DB	0eH
	DB	0eH
	DB	0eH
	DB	0eH
	DB	0eH
	DB	0eH
	DB	0eH
	DB	0eH
	DB	0eH
	DB	0eH
	DB	032H
	DB	032H
	DB	032H
	DB	032H
	DB	032H
	DB	032H
	DB	032H
	DB	032H
	DB	032H
	DB	032H
	DB	032H
	DB	032H
	DB	032H
	DB	032H
	DB	032H
	DB	032H
	DB	032H
	DB	032H
	DB	032H
	DB	032H
	DB	067H
	DB	067H
	DB	067H
	DB	067H
	DB	032H
	DB	04bH
	DB	05eH
	DB	055H
	DB	05eH
	DB	05eH
	DB	05eH
	DB	05eH
	DB	05eH
	DB	031H
	DB	0d8H
	DB	07H
	DB	07H
	DB	07H
	DB	07H
	DB	07H
	DB	07H
	DB	07H
	DB	07H
	DB	07H
	DB	07H
	DB	07H
	DB	07H
	DB	07H
	DB	07H
	DB	07H
	DB	07H
	DB	07H
	DB	07H
	DB	07H
	DB	07H
	DB	07H
	DB	07H
	DB	07H
	DB	07H
	DB	07H
	DB	07H
	DB	07H
	DB	07H
	DB	07H
	DB	07H
	DB	07H
	DB	07H
	DB	07H
	DB	07H
	DB	07H
	DB	07H
	DB	07H
	DB	07H
	DB	07H
	DB	07H
	DB	07H
	DB	06fH
	DB	0d1H
	DB	01cH
	DB	00H
	DB	00H
	DB	00H
	DB	00H
	DB	00H
	DB	00H
	DB	00H
	DB	00H
	DB	00H
	DB	00H
	DB	00H
	DB	00H
	DB	00H
	DB	06fH
	DB	05H
	DB	02cH
	DB	07H
	DB	07H
	DB	07H
	DB	07H
	DB	07H
	DB	07H
	DB	07H
	DB	07H
	DB	07H
	DB	07H
	DB	07H
	DB	07H
	DB	07H
	DB	07H
	DB	07H
	DB	07H
	DB	07H
	DB	07H
	DB	07H
	DB	07H
	DB	07H
	DB	07H
	DB	07H
	DB	07H
	DB	07H
	DB	07H
	DB	07H
	DB	07H
	DB	07H
	DB	07H
	DB	07H
	DB	07H
	DB	07H
	DB	07H
	DB	07H
	DB	07H
	DB	07H
	DB	07H
	DB	07H
	DB	07H
	DB	07H
	DB	07H
	DB	07H
	DB	03fH
	DB	017H
	DB	020H
	DB	0a0H
	DB	0a0H
	DB	0a0H
	DB	0a0H
	DB	020H
	DB	02bH
	DB	02bH
	DB	02bH
	DB	02bH
	DB	02bH
	DB	02bH
	DB	02bH
	DB	02bH
	DB	02bH
	DB	02bH
	DB	02bH
	DB	02bH
	DB	02bH
	DB	02bH
	DB	02bH
	DB	02bH
	DB	02bH
	DB	02bH
	DB	02bH
	DB	02bH
	DB	02bH
	DB	02bH
	DB	02bH
	DB	02bH
	DB	02bH
	DB	02bH
	DB	02bH
	DB	02bH
	DB	02bH
	DB	02bH
	DB	02bH
	DB	02bH
	DB	02bH
	DB	02bH
	DB	02bH
	DB	02bH
	DB	02bH
	DB	02bH
	DB	02bH
	DB	02bH
	DB	02bH
	DB	02bH
	DB	02bH
	DB	02bH
	DB	02bH
	DB	02bH
	DB	02bH
	DB	02bH
	DB	02bH
	DB	02bH
	DB	02bH
	DB	020H
	DB	0a0H
	DB	0a0H
	DB	0a0H
	DB	020H
	DB	0eH
	DB	02eH
	DB	02cH
	DB	07H
	DB	07H
	DB	07H
	DB	07H
	DB	07H
	DB	07H
	DB	07H
	DB	07H
	DB	07H
	DB	07H
	DB	07H
	DB	07H
	DB	07H
	DB	07H
	DB	07H
	DB	07H
	DB	07H
	DB	07H
	DB	07H
	DB	07H
	DB	07H
	DB	07H
	DB	07H
	DB	07H
	DB	07H
	DB	07H
	DB	07H
	DB	07H
	DB	07H
	DB	07H
	DB	07H
	DB	07H
	DB	07H
	DB	07H
	DB	07H
	DB	07H
	DB	07H
	DB	07H
	DB	07H
	DB	07H
	DB	07H
	DB	07H
	DB	07H
	DB	07H
	DB	07H
	DB	07H
	DB	07H
	DB	07H
	DB	07H
	DB	06fH
	DB	0d1H
	DB	01cH
	DB	00H
	DB	00H
	DB	00H
	DB	00H
	DB	00H
	DB	00H
	DB	00H
	DB	00H
	DB	00H
	DB	00H
	DB	00H
	DB	00H
	DB	00H
	DB	06fH
	DB	05H
	DB	02cH
	DB	02cH
	DB	02cH
	DB	02cH
	DB	02cH
	DB	02cH
	DB	02cH
	DB	02cH
	DB	02cH
	DB	02cH
	DB	02cH
	DB	02cH
	DB	02cH
	DB	02cH
	DB	02cH
	DB	02cH
	DB	02cH
	DB	02cH
	DB	02cH
	DB	02cH
	DB	02cH
	DB	02cH
	DB	02cH
	DB	02cH
	DB	02cH
	DB	02cH
	DB	02cH
	DB	02cH
	DB	02cH
	DB	02cH
	DB	02cH
	DB	02cH
	DB	02cH
	DB	02cH
	DB	02cH
	DB	02cH
	DB	02cH
	DB	02cH
	DB	02cH
	DB	02cH
	DB	02cH
	DB	02cH
	DB	02cH
	DB	07H
	DB	03fH
	DB	017H
	DB	09eH
	DB	020H
	DB	020H
	DB	020H
	DB	09eH
	DB	00H
	DB	02bH
	DB	020H
	DB	09eH
	DB	09eH
	DB	09eH
	DB	09eH
	DB	09eH
	DB	09eH
	DB	09eH
	DB	09eH
	DB	09eH
	DB	09eH
	DB	09eH
	DB	09eH
	DB	09eH
	DB	09eH
	DB	09eH
	DB	09eH
	DB	09eH
	DB	09eH
	DB	09eH
	DB	09eH
	DB	09eH
	DB	09eH
	DB	09eH
	DB	09eH
	DB	09eH
	DB	09eH
	DB	09eH
	DB	09eH
	DB	09eH
	DB	09eH
	DB	09eH
	DB	09eH
	DB	09eH
	DB	09eH
	DB	09eH
	DB	09eH
	DB	09eH
	DB	09eH
	DB	09eH
	DB	09eH
	DB	09eH
	DB	09eH
	DB	09eH
	DB	09eH
	DB	09eH
	DB	09eH
	DB	09eH
	DB	020H
	DB	02bH
	DB	00H
	DB	02bH
	DB	020H
	DB	020H
	DB	020H
	DB	0eH
	DB	02eH
	DB	02cH
	DB	07H
	DB	07H
	DB	07H
	DB	07H
	DB	07H
	DB	07H
	DB	07H
	DB	02cH
	DB	02cH
	DB	02cH
	DB	02cH
	DB	02cH
	DB	02cH
	DB	02cH
	DB	02cH
	DB	02cH
	DB	02cH
	DB	02cH
	DB	02cH
	DB	02cH
	DB	02cH
	DB	02cH
	DB	02cH
	DB	02cH
	DB	02cH
	DB	02cH
	DB	02cH
	DB	02cH
	DB	02cH
	DB	02cH
	DB	02cH
	DB	02cH
	DB	02cH
	DB	02cH
	DB	02cH
	DB	02cH
	DB	02cH
	DB	02cH
	DB	02cH
	DB	02cH
	DB	02cH
	DB	02cH
	DB	02cH
	DB	02cH
	DB	02cH
	DB	02cH
	DB	02cH
	DB	02cH
	DB	02cH
	DB	07H
	DB	0d1H
	DB	01cH
	DB	00H
	DB	00H
	DB	00H
	DB	00H
	DB	00H
	DB	00H
	DB	00H
	DB	00H
	DB	00H
	DB	00H
	DB	00H
	DB	00H
	DB	00H
	DB	02dH
	DB	0bH
	DB	05H
	DB	05H
	DB	05H
	DB	05H
	DB	05H
	DB	05H
	DB	05H
	DB	05H
	DB	05H
	DB	05H
	DB	05H
	DB	05H
	DB	05H
	DB	05H
	DB	05H
	DB	05H
	DB	05H
	DB	05H
	DB	05H
	DB	05H
	DB	05H
	DB	05H
	DB	05H
	DB	05H
	DB	05H
	DB	05H
	DB	05H
	DB	05H
	DB	05H
	DB	05H
	DB	05H
	DB	05H
	DB	05H
	DB	05H
	DB	05H
	DB	05H
	DB	05H
	DB	05H
	DB	05H
	DB	05H
	DB	05H
	DB	05H
	DB	05H
	DB	05H
	DB	06fH
	DB	017H
	DB	09eH
	DB	020H
	DB	020H
	DB	09eH
	DB	02bH
	DB	023H
	DB	05H
	DB	02dH
	DB	02dH
	DB	02dH
	DB	02dH
	DB	02dH
	DB	02dH
	DB	02dH
	DB	02dH
	DB	02dH
	DB	02dH
	DB	02dH
	DB	02dH
	DB	02dH
	DB	02dH
	DB	02dH
	DB	02dH
	DB	02dH
	DB	02dH
	DB	02dH
	DB	02dH
	DB	02dH
	DB	02dH
	DB	02dH
	DB	02dH
	DB	02dH
	DB	02dH
	DB	02dH
	DB	02dH
	DB	02dH
	DB	02dH
	DB	02dH
	DB	02dH
	DB	02dH
	DB	02dH
	DB	02dH
	DB	02dH
	DB	02dH
	DB	02dH
	DB	02dH
	DB	02dH
	DB	02dH
	DB	02dH
	DB	02dH
	DB	02dH
	DB	02dH
	DB	02dH
	DB	02dH
	DB	02dH
	DB	02dH
	DB	02dH
	DB	02eH
	DB	09eH
	DB	02bH
	DB	020H
	DB	09eH
	DB	0eH
	DB	0cbH
	DB	05H
	DB	05H
	DB	05H
	DB	05H
	DB	05H
	DB	05H
	DB	05H
	DB	05H
	DB	05H
	DB	05H
	DB	05H
	DB	05H
	DB	05H
	DB	05H
	DB	05H
	DB	05H
	DB	05H
	DB	05H
	DB	05H
	DB	05H
	DB	05H
	DB	05H
	DB	05H
	DB	05H
	DB	05H
	DB	05H
	DB	05H
	DB	05H
	DB	05H
	DB	05H
	DB	05H
	DB	05H
	DB	05H
	DB	05H
	DB	05H
	DB	05H
	DB	05H
	DB	05H
	DB	05H
	DB	05H
	DB	05H
	DB	05H
	DB	05H
	DB	05H
	DB	05H
	DB	05H
	DB	05H
	DB	05H
	DB	05H
	DB	05H
	DB	02dH
	DB	03cH
	DB	01cH
	DB	00H
	DB	00H
	DB	00H
	DB	00H
	DB	00H
	DB	00H
	DB	00H
	DB	00H
	DB	00H
	DB	00H
	DB	00H
	DB	00H
	DB	00H
	DB	066H
	DB	024H
	DB	066H
	DB	011H
	DB	011H
	DB	011H
	DB	011H
	DB	011H
	DB	011H
	DB	011H
	DB	011H
	DB	011H
	DB	011H
	DB	011H
	DB	011H
	DB	011H
	DB	011H
	DB	011H
	DB	011H
	DB	011H
	DB	011H
	DB	011H
	DB	011H
	DB	011H
	DB	011H
	DB	011H
	DB	011H
	DB	011H
	DB	011H
	DB	011H
	DB	011H
	DB	011H
	DB	011H
	DB	011H
	DB	011H
	DB	011H
	DB	011H
	DB	011H
	DB	011H
	DB	011H
	DB	011H
	DB	011H
	DB	011H
	DB	011H
	DB	011H
	DB	072H
	DB	0bH
	DB	023H
	DB	02bH
	DB	09eH
	DB	09eH
	DB	00H
	DB	01dH
	DB	014H
	DB	037H
	DB	0ffH
	DB	02fH
	DB	02fH
	DB	02fH
	DB	02fH
	DB	02fH
	DB	02fH
	DB	02fH
	DB	02fH
	DB	02fH
	DB	02fH
	DB	02fH
	DB	02fH
	DB	02fH
	DB	02fH
	DB	02fH
	DB	02fH
	DB	02fH
	DB	02fH
	DB	02fH
	DB	02fH
	DB	02fH
	DB	02fH
	DB	02fH
	DB	02fH
	DB	02fH
	DB	02fH
	DB	02fH
	DB	02fH
	DB	02fH
	DB	02fH
	DB	02fH
	DB	02fH
	DB	02fH
	DB	02fH
	DB	02fH
	DB	02fH
	DB	02fH
	DB	02fH
	DB	02fH
	DB	02fH
	DB	02fH
	DB	02fH
	DB	02fH
	DB	02fH
	DB	02fH
	DB	02fH
	DB	02fH
	DB	02fH
	DB	037H
	DB	0faH
	DB	02eH
	DB	00H
	DB	02bH
	DB	09eH
	DB	0eH
	DB	041H
	DB	066H
	DB	011H
	DB	011H
	DB	011H
	DB	011H
	DB	011H
	DB	011H
	DB	011H
	DB	011H
	DB	011H
	DB	011H
	DB	011H
	DB	011H
	DB	011H
	DB	011H
	DB	011H
	DB	011H
	DB	011H
	DB	011H
	DB	011H
	DB	011H
	DB	011H
	DB	011H
	DB	011H
	DB	011H
	DB	011H
	DB	011H
	DB	011H
	DB	011H
	DB	011H
	DB	011H
	DB	011H
	DB	011H
	DB	011H
	DB	011H
	DB	011H
	DB	011H
	DB	011H
	DB	011H
	DB	011H
	DB	011H
	DB	011H
	DB	011H
	DB	011H
	DB	011H
	DB	011H
	DB	011H
	DB	011H
	DB	011H
	DB	011H
	DB	072H
	DB	03fH
	DB	0a6H
	DB	00H
	DB	00H
	DB	00H
	DB	00H
	DB	00H
	DB	00H
	DB	00H
	DB	00H
	DB	00H
	DB	00H
	DB	00H
	DB	00H
	DB	00H
	DB	011H
	DB	04H
	DB	072H
	DB	010H
	DB	010H
	DB	010H
	DB	010H
	DB	010H
	DB	010H
	DB	010H
	DB	010H
	DB	010H
	DB	010H
	DB	010H
	DB	010H
	DB	010H
	DB	010H
	DB	010H
	DB	010H
	DB	010H
	DB	010H
	DB	010H
	DB	010H
	DB	010H
	DB	010H
	DB	010H
	DB	010H
	DB	010H
	DB	010H
	DB	010H
	DB	010H
	DB	010H
	DB	010H
	DB	010H
	DB	010H
	DB	010H
	DB	010H
	DB	010H
	DB	010H
	DB	010H
	DB	010H
	DB	010H
	DB	010H
	DB	010H
	DB	010H
	DB	024H
	DB	011H
	DB	023H
	DB	02bH
	DB	09eH
	DB	02bH
	DB	00H
	DB	0cfH
	DB	01bH
	DB	0fcH
	DB	02H
	DB	01eH
	DB	01eH
	DB	01eH
	DB	01eH
	DB	01eH
	DB	01eH
	DB	01eH
	DB	01eH
	DB	01eH
	DB	01eH
	DB	01eH
	DB	01eH
	DB	01eH
	DB	01eH
	DB	01eH
	DB	01eH
	DB	01eH
	DB	01eH
	DB	01eH
	DB	01eH
	DB	01eH
	DB	01eH
	DB	01eH
	DB	01eH
	DB	01eH
	DB	01eH
	DB	01eH
	DB	01eH
	DB	01eH
	DB	01eH
	DB	01eH
	DB	01eH
	DB	01eH
	DB	01eH
	DB	01eH
	DB	01eH
	DB	01eH
	DB	01eH
	DB	01eH
	DB	01eH
	DB	01eH
	DB	01eH
	DB	01eH
	DB	01eH
	DB	01eH
	DB	01eH
	DB	01eH
	DB	02H
	DB	01eH
	DB	037H
	DB	02dH
	DB	09eH
	DB	00H
	DB	09eH
	DB	0a0H
	DB	031H
	DB	072H
	DB	010H
	DB	010H
	DB	010H
	DB	010H
	DB	010H
	DB	010H
	DB	010H
	DB	010H
	DB	010H
	DB	010H
	DB	010H
	DB	010H
	DB	010H
	DB	010H
	DB	010H
	DB	010H
	DB	010H
	DB	010H
	DB	010H
	DB	010H
	DB	010H
	DB	010H
	DB	010H
	DB	010H
	DB	010H
	DB	010H
	DB	010H
	DB	010H
	DB	010H
	DB	010H
	DB	010H
	DB	010H
	DB	010H
	DB	010H
	DB	010H
	DB	010H
	DB	010H
	DB	010H
	DB	010H
	DB	010H
	DB	010H
	DB	010H
	DB	010H
	DB	010H
	DB	010H
	DB	010H
	DB	010H
	DB	010H
	DB	010H
	DB	024H
	DB	02cH
	DB	0a6H
	DB	00H
	DB	00H
	DB	00H
	DB	00H
	DB	00H
	DB	00H
	DB	00H
	DB	00H
	DB	00H
	DB	00H
	DB	00H
	DB	00H
	DB	00H
	DB	072H
	DB	04H
	DB	010H
	DB	010H
	DB	010H
	DB	010H
	DB	010H
	DB	010H
	DB	010H
	DB	010H
	DB	010H
	DB	010H
	DB	010H
	DB	010H
	DB	010H
	DB	010H
	DB	010H
	DB	010H
	DB	010H
	DB	010H
	DB	010H
	DB	010H
	DB	010H
	DB	010H
	DB	010H
	DB	010H
	DB	010H
	DB	010H
	DB	010H
	DB	010H
	DB	010H
	DB	010H
	DB	010H
	DB	010H
	DB	010H
	DB	010H
	DB	010H
	DB	010H
	DB	010H
	DB	010H
	DB	010H
	DB	010H
	DB	010H
	DB	010H
	DB	010H
	DB	024H
	DB	011H
	DB	023H
	DB	02bH
	DB	02bH
	DB	00H
	DB	02bH
	DB	07H
	DB	0fdH
	DB	0fbH
	DB	02H
	DB	02H
	DB	02H
	DB	02H
	DB	02H
	DB	02H
	DB	02H
	DB	02H
	DB	02H
	DB	02H
	DB	02H
	DB	02H
	DB	02H
	DB	02H
	DB	02H
	DB	02H
	DB	02H
	DB	02H
	DB	02H
	DB	02H
	DB	02H
	DB	02H
	DB	02H
	DB	02H
	DB	02H
	DB	02H
	DB	02H
	DB	02H
	DB	02H
	DB	02H
	DB	02H
	DB	02H
	DB	02H
	DB	02H
	DB	02H
	DB	02H
	DB	02H
	DB	02H
	DB	02H
	DB	02H
	DB	02H
	DB	02H
	DB	02H
	DB	02H
	DB	02H
	DB	02H
	DB	02H
	DB	02H
	DB	02H
	DB	01eH
	DB	0ffH
	DB	02dH
	DB	0a0H
	DB	00H
	DB	02bH
	DB	020H
	DB	031H
	DB	010H
	DB	024H
	DB	010H
	DB	010H
	DB	010H
	DB	010H
	DB	010H
	DB	010H
	DB	010H
	DB	010H
	DB	010H
	DB	010H
	DB	010H
	DB	010H
	DB	010H
	DB	010H
	DB	010H
	DB	010H
	DB	010H
	DB	010H
	DB	010H
	DB	010H
	DB	010H
	DB	010H
	DB	010H
	DB	010H
	DB	010H
	DB	010H
	DB	010H
	DB	010H
	DB	010H
	DB	010H
	DB	010H
	DB	010H
	DB	010H
	DB	010H
	DB	010H
	DB	010H
	DB	010H
	DB	010H
	DB	010H
	DB	010H
	DB	010H
	DB	010H
	DB	010H
	DB	010H
	DB	010H
	DB	010H
	DB	010H
	DB	010H
	DB	024H
	DB	07H
	DB	0a6H
	DB	00H
	DB	00H
	DB	00H
	DB	00H
	DB	00H
	DB	00H
	DB	00H
	DB	00H
	DB	00H
	DB	00H
	DB	00H
	DB	00H
	DB	00H
	DB	010H
	DB	025H
	DB	024H
	DB	024H
	DB	024H
	DB	024H
	DB	024H
	DB	024H
	DB	024H
	DB	024H
	DB	024H
	DB	024H
	DB	024H
	DB	024H
	DB	024H
	DB	024H
	DB	024H
	DB	024H
	DB	024H
	DB	024H
	DB	024H
	DB	024H
	DB	024H
	DB	024H
	DB	024H
	DB	024H
	DB	024H
	DB	024H
	DB	024H
	DB	024H
	DB	024H
	DB	024H
	DB	024H
	DB	024H
	DB	024H
	DB	024H
	DB	024H
	DB	024H
	DB	024H
	DB	024H
	DB	024H
	DB	024H
	DB	024H
	DB	024H
	DB	024H
	DB	04H
	DB	072H
	DB	023H
	DB	00H
	DB	02bH
	DB	00H
	DB	02bH
	DB	0dbH
	DB	047H
	DB	0fbH
	DB	02H
	DB	02H
	DB	02H
	DB	02H
	DB	02H
	DB	02H
	DB	02H
	DB	02H
	DB	02H
	DB	02H
	DB	02H
	DB	02H
	DB	02H
	DB	02H
	DB	02H
	DB	02H
	DB	02H
	DB	02H
	DB	02H
	DB	02H
	DB	02H
	DB	02H
	DB	02H
	DB	02H
	DB	02H
	DB	02H
	DB	02H
	DB	02H
	DB	02H
	DB	02H
	DB	02H
	DB	02H
	DB	02H
	DB	02H
	DB	02H
	DB	02H
	DB	02H
	DB	02H
	DB	02H
	DB	02H
	DB	02H
	DB	02H
	DB	02H
	DB	02H
	DB	02H
	DB	02H
	DB	02H
	DB	02H
	DB	02H
	DB	01eH
	DB	02fH
	DB	05H
	DB	020H
	DB	00H
	DB	02bH
	DB	020H
	DB	031H
	DB	024H
	DB	024H
	DB	024H
	DB	024H
	DB	024H
	DB	024H
	DB	024H
	DB	024H
	DB	024H
	DB	024H
	DB	024H
	DB	024H
	DB	024H
	DB	024H
	DB	024H
	DB	024H
	DB	024H
	DB	024H
	DB	024H
	DB	024H
	DB	024H
	DB	024H
	DB	024H
	DB	024H
	DB	024H
	DB	024H
	DB	024H
	DB	024H
	DB	024H
	DB	024H
	DB	024H
	DB	024H
	DB	024H
	DB	024H
	DB	024H
	DB	024H
	DB	024H
	DB	024H
	DB	024H
	DB	024H
	DB	024H
	DB	024H
	DB	024H
	DB	024H
	DB	024H
	DB	024H
	DB	024H
	DB	024H
	DB	024H
	DB	024H
	DB	04H
	DB	06fH
	DB	0a6H
	DB	00H
	DB	00H
	DB	00H
	DB	00H
	DB	00H
	DB	00H
	DB	00H
	DB	00H
	DB	00H
	DB	00H
	DB	00H
	DB	00H
	DB	00H
	DB	010H
	DB	025H
	DB	024H
	DB	04H
	DB	04H
	DB	04H
	DB	04H
	DB	04H
	DB	04H
	DB	04H
	DB	04H
	DB	04H
	DB	04H
	DB	04H
	DB	04H
	DB	04H
	DB	04H
	DB	04H
	DB	04H
	DB	04H
	DB	04H
	DB	04H
	DB	04H
	DB	04H
	DB	04H
	DB	04H
	DB	04H
	DB	04H
	DB	04H
	DB	04H
	DB	04H
	DB	04H
	DB	04H
	DB	04H
	DB	04H
	DB	04H
	DB	04H
	DB	04H
	DB	04H
	DB	04H
	DB	04H
	DB	04H
	DB	04H
	DB	04H
	DB	04H
	DB	04H
	DB	010H
	DB	023H
	DB	00H
	DB	00H
	DB	00H
	DB	02bH
	DB	0dbH
	DB	047H
	DB	0fbH
	DB	02H
	DB	02H
	DB	02H
	DB	02H
	DB	02H
	DB	02H
	DB	02H
	DB	02H
	DB	02H
	DB	02H
	DB	02H
	DB	02H
	DB	02H
	DB	02H
	DB	02H
	DB	02H
	DB	02H
	DB	02H
	DB	02H
	DB	02H
	DB	02H
	DB	02H
	DB	02H
	DB	02H
	DB	02H
	DB	02H
	DB	02H
	DB	02H
	DB	02H
	DB	02H
	DB	02H
	DB	02H
	DB	02H
	DB	02H
	DB	02H
	DB	02H
	DB	02H
	DB	02H
	DB	02H
	DB	02H
	DB	02H
	DB	02H
	DB	02H
	DB	02H
	DB	02H
	DB	02H
	DB	02H
	DB	02H
	DB	02H
	DB	01eH
	DB	02fH
	DB	05H
	DB	020H
	DB	00H
	DB	00H
	DB	09eH
	DB	031H
	DB	024H
	DB	04H
	DB	04H
	DB	04H
	DB	04H
	DB	04H
	DB	04H
	DB	04H
	DB	04H
	DB	04H
	DB	04H
	DB	04H
	DB	04H
	DB	04H
	DB	04H
	DB	04H
	DB	04H
	DB	04H
	DB	04H
	DB	04H
	DB	04H
	DB	04H
	DB	04H
	DB	04H
	DB	04H
	DB	04H
	DB	04H
	DB	04H
	DB	04H
	DB	04H
	DB	04H
	DB	04H
	DB	04H
	DB	04H
	DB	04H
	DB	04H
	DB	04H
	DB	04H
	DB	04H
	DB	04H
	DB	04H
	DB	04H
	DB	04H
	DB	04H
	DB	04H
	DB	04H
	DB	04H
	DB	04H
	DB	04H
	DB	04H
	DB	04H
	DB	06fH
	DB	0a6H
	DB	00H
	DB	00H
	DB	00H
	DB	00H
	DB	00H
	DB	00H
	DB	00H
	DB	00H
	DB	00H
	DB	00H
	DB	00H
	DB	00H
	DB	00H
	DB	024H
	DB	03H
	DB	04H
	DB	04H
	DB	04H
	DB	04H
	DB	04H
	DB	04H
	DB	04H
	DB	04H
	DB	04H
	DB	04H
	DB	04H
	DB	04H
	DB	04H
	DB	04H
	DB	04H
	DB	04H
	DB	04H
	DB	04H
	DB	04H
	DB	04H
	DB	04H
	DB	04H
	DB	04H
	DB	04H
	DB	04H
	DB	04H
	DB	04H
	DB	04H
	DB	04H
	DB	04H
	DB	04H
	DB	04H
	DB	04H
	DB	04H
	DB	04H
	DB	04H
	DB	04H
	DB	04H
	DB	04H
	DB	04H
	DB	04H
	DB	04H
	DB	04H
	DB	025H
	DB	024H
	DB	023H
	DB	00H
	DB	00H
	DB	00H
	DB	02bH
	DB	0dbH
	DB	047H
	DB	0fbH
	DB	02H
	DB	02H
	DB	02H
	DB	02H
	DB	02H
	DB	02H
	DB	02H
	DB	02H
	DB	02H
	DB	02H
	DB	02H
	DB	02H
	DB	02H
	DB	02H
	DB	02H
	DB	02H
	DB	02H
	DB	02H
	DB	02H
	DB	02H
	DB	02H
	DB	02H
	DB	02H
	DB	02H
	DB	02H
	DB	02H
	DB	02H
	DB	02H
	DB	02H
	DB	02H
	DB	02H
	DB	02H
	DB	02H
	DB	02H
	DB	02H
	DB	02H
	DB	02H
	DB	02H
	DB	02H
	DB	02H
	DB	02H
	DB	02H
	DB	02H
	DB	02H
	DB	02H
	DB	02H
	DB	02H
	DB	02H
	DB	02H
	DB	01eH
	DB	02fH
	DB	05H
	DB	020H
	DB	00H
	DB	00H
	DB	02bH
	DB	031H
	DB	04H
	DB	04H
	DB	04H
	DB	04H
	DB	04H
	DB	04H
	DB	04H
	DB	04H
	DB	04H
	DB	04H
	DB	04H
	DB	04H
	DB	04H
	DB	04H
	DB	04H
	DB	04H
	DB	04H
	DB	04H
	DB	04H
	DB	04H
	DB	04H
	DB	04H
	DB	04H
	DB	04H
	DB	04H
	DB	04H
	DB	04H
	DB	04H
	DB	04H
	DB	04H
	DB	04H
	DB	04H
	DB	04H
	DB	04H
	DB	04H
	DB	04H
	DB	04H
	DB	04H
	DB	04H
	DB	04H
	DB	04H
	DB	04H
	DB	04H
	DB	04H
	DB	04H
	DB	04H
	DB	04H
	DB	04H
	DB	04H
	DB	04H
	DB	025H
	DB	05H
	DB	012H
	DB	00H
	DB	00H
	DB	00H
	DB	00H
	DB	00H
	DB	00H
	DB	00H
	DB	00H
	DB	00H
	DB	00H
	DB	00H
	DB	00H
	DB	00H
	DB	04H
	DB	03H
	DB	04H
	DB	025H
	DB	025H
	DB	025H
	DB	025H
	DB	025H
	DB	025H
	DB	025H
	DB	025H
	DB	025H
	DB	025H
	DB	025H
	DB	025H
	DB	025H
	DB	025H
	DB	025H
	DB	025H
	DB	025H
	DB	025H
	DB	025H
	DB	025H
	DB	025H
	DB	025H
	DB	025H
	DB	025H
	DB	025H
	DB	025H
	DB	025H
	DB	025H
	DB	025H
	DB	025H
	DB	025H
	DB	025H
	DB	025H
	DB	025H
	DB	025H
	DB	025H
	DB	025H
	DB	025H
	DB	025H
	DB	025H
	DB	025H
	DB	025H
	DB	025H
	DB	04H
	DB	023H
	DB	00H
	DB	00H
	DB	00H
	DB	02bH
	DB	0dbH
	DB	047H
	DB	0fbH
	DB	02H
	DB	02H
	DB	02H
	DB	02H
	DB	02H
	DB	02H
	DB	02H
	DB	02H
	DB	02H
	DB	02H
	DB	02H
	DB	02H
	DB	02H
	DB	02H
	DB	02H
	DB	02H
	DB	02H
	DB	02H
	DB	02H
	DB	02H
	DB	02H
	DB	02H
	DB	02H
	DB	02H
	DB	02H
	DB	02H
	DB	02H
	DB	02H
	DB	02H
	DB	02H
	DB	02H
	DB	02H
	DB	02H
	DB	02H
	DB	02H
	DB	02H
	DB	02H
	DB	02H
	DB	02H
	DB	02H
	DB	02H
	DB	02H
	DB	02H
	DB	02H
	DB	02H
	DB	02H
	DB	02H
	DB	02H
	DB	02H
	DB	01eH
	DB	02fH
	DB	05H
	DB	020H
	DB	00H
	DB	00H
	DB	02bH
	DB	031H
	DB	04H
	DB	025H
	DB	025H
	DB	025H
	DB	025H
	DB	025H
	DB	025H
	DB	025H
	DB	025H
	DB	025H
	DB	025H
	DB	025H
	DB	025H
	DB	025H
	DB	025H
	DB	025H
	DB	025H
	DB	025H
	DB	025H
	DB	025H
	DB	025H
	DB	025H
	DB	025H
	DB	025H
	DB	025H
	DB	025H
	DB	025H
	DB	025H
	DB	025H
	DB	025H
	DB	025H
	DB	025H
	DB	025H
	DB	025H
	DB	025H
	DB	025H
	DB	025H
	DB	025H
	DB	025H
	DB	025H
	DB	025H
	DB	025H
	DB	025H
	DB	025H
	DB	025H
	DB	025H
	DB	025H
	DB	025H
	DB	025H
	DB	025H
	DB	025H
	DB	05H
	DB	012H
	DB	00H
	DB	00H
	DB	00H
	DB	00H
	DB	00H
	DB	00H
	DB	00H
	DB	00H
	DB	00H
	DB	00H
	DB	00H
	DB	00H
	DB	00H
	DB	04H
	DB	026H
	DB	025H
	DB	025H
	DB	025H
	DB	025H
	DB	025H
	DB	025H
	DB	025H
	DB	025H
	DB	025H
	DB	025H
	DB	025H
	DB	025H
	DB	025H
	DB	025H
	DB	025H
	DB	025H
	DB	025H
	DB	025H
	DB	025H
	DB	025H
	DB	025H
	DB	025H
	DB	025H
	DB	025H
	DB	025H
	DB	025H
	DB	025H
	DB	025H
	DB	025H
	DB	025H
	DB	025H
	DB	025H
	DB	025H
	DB	025H
	DB	025H
	DB	025H
	DB	025H
	DB	025H
	DB	025H
	DB	025H
	DB	025H
	DB	025H
	DB	025H
	DB	03H
	DB	04H
	DB	023H
	DB	00H
	DB	00H
	DB	00H
	DB	02bH
	DB	0dbH
	DB	047H
	DB	0fbH
	DB	02H
	DB	02H
	DB	02H
	DB	02H
	DB	02H
	DB	02H
	DB	02H
	DB	02H
	DB	02H
	DB	02H
	DB	02H
	DB	02H
	DB	02H
	DB	02H
	DB	02H
	DB	02H
	DB	02H
	DB	02H
	DB	02H
	DB	02H
	DB	02H
	DB	02H
	DB	02H
	DB	02H
	DB	02H
	DB	02H
	DB	02H
	DB	02H
	DB	02H
	DB	02H
	DB	02H
	DB	02H
	DB	02H
	DB	02H
	DB	02H
	DB	02H
	DB	02H
	DB	02H
	DB	02H
	DB	02H
	DB	02H
	DB	02H
	DB	02H
	DB	02H
	DB	02H
	DB	02H
	DB	02H
	DB	02H
	DB	02H
	DB	01eH
	DB	02fH
	DB	05H
	DB	020H
	DB	00H
	DB	00H
	DB	02bH
	DB	0ceH
	DB	025H
	DB	025H
	DB	025H
	DB	025H
	DB	025H
	DB	025H
	DB	025H
	DB	025H
	DB	025H
	DB	025H
	DB	025H
	DB	025H
	DB	025H
	DB	025H
	DB	025H
	DB	025H
	DB	025H
	DB	025H
	DB	025H
	DB	025H
	DB	025H
	DB	025H
	DB	025H
	DB	025H
	DB	025H
	DB	025H
	DB	025H
	DB	025H
	DB	025H
	DB	025H
	DB	025H
	DB	025H
	DB	025H
	DB	025H
	DB	025H
	DB	025H
	DB	025H
	DB	025H
	DB	025H
	DB	025H
	DB	025H
	DB	025H
	DB	025H
	DB	025H
	DB	025H
	DB	025H
	DB	025H
	DB	025H
	DB	025H
	DB	025H
	DB	03H
	DB	05H
	DB	012H
	DB	00H
	DB	00H
	DB	00H
	DB	00H
	DB	00H
	DB	00H
	DB	00H
	DB	00H
	DB	00H
	DB	00H
	DB	00H
	DB	00H
	DB	00H
	DB	04H
	DB	018H
	DB	03H
	DB	03H
	DB	03H
	DB	03H
	DB	03H
	DB	03H
	DB	03H
	DB	03H
	DB	03H
	DB	03H
	DB	03H
	DB	03H
	DB	03H
	DB	03H
	DB	03H
	DB	03H
	DB	03H
	DB	03H
	DB	03H
	DB	03H
	DB	03H
	DB	03H
	DB	03H
	DB	03H
	DB	03H
	DB	03H
	DB	03H
	DB	03H
	DB	03H
	DB	03H
	DB	03H
	DB	03H
	DB	03H
	DB	03H
	DB	03H
	DB	03H
	DB	03H
	DB	03H
	DB	03H
	DB	03H
	DB	03H
	DB	03H
	DB	03H
	DB	03H
	DB	025H
	DB	023H
	DB	00H
	DB	00H
	DB	00H
	DB	02bH
	DB	0dbH
	DB	047H
	DB	0fbH
	DB	02H
	DB	02H
	DB	02H
	DB	02H
	DB	02H
	DB	02H
	DB	02H
	DB	02H
	DB	02H
	DB	02H
	DB	02H
	DB	02H
	DB	02H
	DB	02H
	DB	02H
	DB	02H
	DB	02H
	DB	02H
	DB	02H
	DB	02H
	DB	02H
	DB	02H
	DB	02H
	DB	02H
	DB	02H
	DB	02H
	DB	02H
	DB	02H
	DB	02H
	DB	02H
	DB	02H
	DB	02H
	DB	02H
	DB	02H
	DB	02H
	DB	02H
	DB	02H
	DB	02H
	DB	02H
	DB	02H
	DB	02H
	DB	02H
	DB	02H
	DB	02H
	DB	02H
	DB	02H
	DB	02H
	DB	02H
	DB	02H
	DB	01eH
	DB	02fH
	DB	05H
	DB	020H
	DB	00H
	DB	00H
	DB	02bH
	DB	0ceH
	DB	03H
	DB	03H
	DB	03H
	DB	03H
	DB	03H
	DB	03H
	DB	03H
	DB	03H
	DB	03H
	DB	03H
	DB	03H
	DB	03H
	DB	03H
	DB	03H
	DB	03H
	DB	03H
	DB	03H
	DB	03H
	DB	03H
	DB	03H
	DB	03H
	DB	03H
	DB	03H
	DB	03H
	DB	03H
	DB	03H
	DB	03H
	DB	03H
	DB	03H
	DB	03H
	DB	03H
	DB	03H
	DB	03H
	DB	03H
	DB	03H
	DB	03H
	DB	03H
	DB	03H
	DB	03H
	DB	03H
	DB	03H
	DB	03H
	DB	03H
	DB	03H
	DB	03H
	DB	03H
	DB	03H
	DB	03H
	DB	03H
	DB	03H
	DB	026H
	DB	02dH
	DB	012H
	DB	00H
	DB	00H
	DB	00H
	DB	00H
	DB	00H
	DB	00H
	DB	00H
	DB	00H
	DB	00H
	DB	00H
	DB	00H
	DB	00H
	DB	00H
	DB	025H
	DB	080H
	DB	03H
	DB	03H
	DB	03H
	DB	03H
	DB	03H
	DB	03H
	DB	03H
	DB	03H
	DB	03H
	DB	03H
	DB	03H
	DB	03H
	DB	03H
	DB	03H
	DB	03H
	DB	03H
	DB	03H
	DB	03H
	DB	03H
	DB	03H
	DB	03H
	DB	03H
	DB	03H
	DB	03H
	DB	03H
	DB	03H
	DB	03H
	DB	03H
	DB	03H
	DB	03H
	DB	03H
	DB	03H
	DB	03H
	DB	03H
	DB	03H
	DB	03H
	DB	03H
	DB	03H
	DB	03H
	DB	03H
	DB	03H
	DB	03H
	DB	03H
	DB	026H
	DB	025H
	DB	023H
	DB	00H
	DB	00H
	DB	00H
	DB	02bH
	DB	0dbH
	DB	047H
	DB	022H
	DB	02H
	DB	02H
	DB	02H
	DB	02H
	DB	02H
	DB	02H
	DB	02H
	DB	02H
	DB	02H
	DB	02H
	DB	02H
	DB	02H
	DB	02H
	DB	02H
	DB	02H
	DB	02H
	DB	02H
	DB	02H
	DB	02H
	DB	02H
	DB	02H
	DB	02H
	DB	02H
	DB	02H
	DB	02H
	DB	02H
	DB	02H
	DB	02H
	DB	02H
	DB	02H
	DB	02H
	DB	02H
	DB	02H
	DB	02H
	DB	02H
	DB	02H
	DB	02H
	DB	02H
	DB	02H
	DB	02H
	DB	02H
	DB	02H
	DB	02H
	DB	02H
	DB	02H
	DB	02H
	DB	02H
	DB	02H
	DB	02H
	DB	01eH
	DB	02fH
	DB	05H
	DB	020H
	DB	00H
	DB	00H
	DB	02bH
	DB	0cfH
	DB	03H
	DB	026H
	DB	03H
	DB	03H
	DB	03H
	DB	03H
	DB	03H
	DB	03H
	DB	03H
	DB	03H
	DB	03H
	DB	03H
	DB	03H
	DB	03H
	DB	03H
	DB	03H
	DB	03H
	DB	03H
	DB	03H
	DB	03H
	DB	03H
	DB	03H
	DB	03H
	DB	03H
	DB	03H
	DB	03H
	DB	03H
	DB	03H
	DB	03H
	DB	03H
	DB	03H
	DB	03H
	DB	03H
	DB	03H
	DB	03H
	DB	03H
	DB	03H
	DB	03H
	DB	03H
	DB	03H
	DB	03H
	DB	03H
	DB	03H
	DB	03H
	DB	03H
	DB	03H
	DB	03H
	DB	03H
	DB	03H
	DB	03H
	DB	026H
	DB	0bH
	DB	012H
	DB	00H
	DB	00H
	DB	00H
	DB	00H
	DB	00H
	DB	00H
	DB	00H
	DB	00H
	DB	00H
	DB	00H
	DB	00H
	DB	00H
	DB	00H
	DB	025H
	DB	027H
	DB	026H
	DB	026H
	DB	026H
	DB	026H
	DB	026H
	DB	026H
	DB	026H
	DB	026H
	DB	026H
	DB	026H
	DB	026H
	DB	026H
	DB	026H
	DB	026H
	DB	026H
	DB	026H
	DB	026H
	DB	026H
	DB	026H
	DB	026H
	DB	026H
	DB	026H
	DB	026H
	DB	026H
	DB	026H
	DB	026H
	DB	026H
	DB	026H
	DB	026H
	DB	026H
	DB	026H
	DB	026H
	DB	026H
	DB	026H
	DB	026H
	DB	026H
	DB	026H
	DB	026H
	DB	026H
	DB	026H
	DB	026H
	DB	026H
	DB	026H
	DB	018H
	DB	03H
	DB	06cH
	DB	00H
	DB	00H
	DB	00H
	DB	02bH
	DB	03dH
	DB	047H
	DB	0fbH
	DB	0faH
	DB	0faH
	DB	0faH
	DB	0faH
	DB	0faH
	DB	0faH
	DB	0faH
	DB	0faH
	DB	0faH
	DB	0faH
	DB	0faH
	DB	0faH
	DB	0faH
	DB	0faH
	DB	0faH
	DB	0faH
	DB	0faH
	DB	0faH
	DB	0faH
	DB	0faH
	DB	0faH
	DB	0faH
	DB	0faH
	DB	0faH
	DB	0faH
	DB	0faH
	DB	0faH
	DB	0faH
	DB	0faH
	DB	0faH
	DB	0faH
	DB	0faH
	DB	0faH
	DB	0faH
	DB	0faH
	DB	0faH
	DB	0faH
	DB	0faH
	DB	0faH
	DB	0faH
	DB	0faH
	DB	0faH
	DB	0faH
	DB	0faH
	DB	0faH
	DB	0faH
	DB	0faH
	DB	0faH
	DB	0faH
	DB	02H
	DB	02fH
	DB	05H
	DB	020H
	DB	00H
	DB	00H
	DB	02bH
	DB	030H
	DB	026H
	DB	018H
	DB	026H
	DB	026H
	DB	026H
	DB	026H
	DB	026H
	DB	026H
	DB	026H
	DB	026H
	DB	026H
	DB	026H
	DB	026H
	DB	026H
	DB	026H
	DB	026H
	DB	026H
	DB	026H
	DB	026H
	DB	026H
	DB	026H
	DB	026H
	DB	026H
	DB	026H
	DB	026H
	DB	026H
	DB	026H
	DB	026H
	DB	026H
	DB	026H
	DB	026H
	DB	026H
	DB	026H
	DB	026H
	DB	026H
	DB	026H
	DB	026H
	DB	026H
	DB	026H
	DB	026H
	DB	026H
	DB	026H
	DB	026H
	DB	026H
	DB	026H
	DB	026H
	DB	026H
	DB	026H
	DB	026H
	DB	026H
	DB	080H
	DB	0bH
	DB	012H
	DB	00H
	DB	00H
	DB	00H
	DB	00H
	DB	00H
	DB	00H
	DB	00H
	DB	00H
	DB	00H
	DB	00H
	DB	00H
	DB	00H
	DB	00H
	DB	03H
	DB	016H
	DB	018H
	DB	018H
	DB	018H
	DB	018H
	DB	018H
	DB	018H
	DB	018H
	DB	018H
	DB	018H
	DB	018H
	DB	018H
	DB	018H
	DB	018H
	DB	018H
	DB	018H
	DB	018H
	DB	018H
	DB	018H
	DB	018H
	DB	018H
	DB	018H
	DB	018H
	DB	018H
	DB	018H
	DB	018H
	DB	018H
	DB	018H
	DB	018H
	DB	018H
	DB	018H
	DB	018H
	DB	018H
	DB	018H
	DB	018H
	DB	018H
	DB	018H
	DB	018H
	DB	018H
	DB	018H
	DB	018H
	DB	018H
	DB	018H
	DB	018H
	DB	080H
	DB	026H
	DB	02eH
	DB	00H
	DB	00H
	DB	00H
	DB	02bH
	DB	03dH
	DB	047H
	DB	0fbH
	DB	0faH
	DB	02H
	DB	02H
	DB	02H
	DB	02H
	DB	02H
	DB	02H
	DB	02H
	DB	02H
	DB	02H
	DB	02H
	DB	02H
	DB	02H
	DB	02H
	DB	02H
	DB	02H
	DB	02H
	DB	02H
	DB	02H
	DB	02H
	DB	02H
	DB	02H
	DB	02H
	DB	02H
	DB	02H
	DB	02H
	DB	02H
	DB	02H
	DB	02H
	DB	02H
	DB	02H
	DB	02H
	DB	02H
	DB	02H
	DB	02H
	DB	02H
	DB	02H
	DB	02H
	DB	02H
	DB	02H
	DB	02H
	DB	02H
	DB	02H
	DB	02H
	DB	02H
	DB	02H
	DB	02H
	DB	02H
	DB	0faH
	DB	01eH
	DB	02fH
	DB	05H
	DB	020H
	DB	00H
	DB	00H
	DB	02bH
	DB	030H
	DB	018H
	DB	080H
	DB	018H
	DB	018H
	DB	018H
	DB	018H
	DB	018H
	DB	018H
	DB	018H
	DB	018H
	DB	018H
	DB	018H
	DB	018H
	DB	018H
	DB	018H
	DB	018H
	DB	018H
	DB	018H
	DB	018H
	DB	018H
	DB	018H
	DB	018H
	DB	018H
	DB	018H
	DB	018H
	DB	018H
	DB	018H
	DB	018H
	DB	018H
	DB	018H
	DB	018H
	DB	018H
	DB	018H
	DB	018H
	DB	018H
	DB	018H
	DB	018H
	DB	018H
	DB	018H
	DB	018H
	DB	018H
	DB	018H
	DB	018H
	DB	018H
	DB	018H
	DB	018H
	DB	018H
	DB	018H
	DB	018H
	DB	018H
	DB	013H
	DB	066H
	DB	012H
	DB	00H
	DB	00H
	DB	00H
	DB	00H
	DB	00H
	DB	00H
	DB	00H
	DB	00H
	DB	00H
	DB	00H
	DB	00H
	DB	00H
	DB	00H
	DB	03H
	DB	09aH
	DB	013H
	DB	013H
	DB	013H
	DB	013H
	DB	013H
	DB	013H
	DB	013H
	DB	013H
	DB	013H
	DB	013H
	DB	013H
	DB	013H
	DB	013H
	DB	013H
	DB	013H
	DB	013H
	DB	013H
	DB	013H
	DB	013H
	DB	013H
	DB	013H
	DB	013H
	DB	013H
	DB	013H
	DB	013H
	DB	013H
	DB	013H
	DB	013H
	DB	013H
	DB	013H
	DB	013H
	DB	013H
	DB	013H
	DB	013H
	DB	013H
	DB	013H
	DB	013H
	DB	013H
	DB	013H
	DB	013H
	DB	013H
	DB	013H
	DB	013H
	DB	027H
	DB	018H
	DB	02eH
	DB	00H
	DB	00H
	DB	00H
	DB	02bH
	DB	02dH
	DB	02aH
	DB	02aH
	DB	02aH
	DB	02aH
	DB	02aH
	DB	02aH
	DB	02aH
	DB	02aH
	DB	02aH
	DB	02aH
	DB	02aH
	DB	02aH
	DB	02aH
	DB	02aH
	DB	02aH
	DB	02aH
	DB	02aH
	DB	02aH
	DB	02aH
	DB	02aH
	DB	02aH
	DB	02aH
	DB	02aH
	DB	02aH
	DB	02aH
	DB	02aH
	DB	02aH
	DB	02aH
	DB	02aH
	DB	02aH
	DB	02aH
	DB	02aH
	DB	02aH
	DB	02aH
	DB	02aH
	DB	02aH
	DB	02aH
	DB	02aH
	DB	02aH
	DB	02aH
	DB	02aH
	DB	02aH
	DB	02aH
	DB	02aH
	DB	02aH
	DB	02aH
	DB	02aH
	DB	02aH
	DB	02aH
	DB	02aH
	DB	02aH
	DB	02aH
	DB	01H
	DB	010H
	DB	0eH
	DB	00H
	DB	00H
	DB	02bH
	DB	030H
	DB	080H
	DB	013H
	DB	013H
	DB	013H
	DB	013H
	DB	013H
	DB	013H
	DB	013H
	DB	013H
	DB	013H
	DB	013H
	DB	013H
	DB	013H
	DB	013H
	DB	013H
	DB	013H
	DB	013H
	DB	013H
	DB	013H
	DB	013H
	DB	013H
	DB	013H
	DB	013H
	DB	013H
	DB	013H
	DB	013H
	DB	013H
	DB	013H
	DB	013H
	DB	013H
	DB	013H
	DB	013H
	DB	013H
	DB	013H
	DB	013H
	DB	013H
	DB	013H
	DB	013H
	DB	013H
	DB	013H
	DB	013H
	DB	013H
	DB	013H
	DB	013H
	DB	013H
	DB	013H
	DB	013H
	DB	013H
	DB	013H
	DB	013H
	DB	027H
	DB	011H
	DB	012H
	DB	00H
	DB	00H
	DB	00H
	DB	00H
	DB	00H
	DB	00H
	DB	00H
	DB	00H
	DB	00H
	DB	00H
	DB	00H
	DB	00H
	DB	00H
	DB	026H
	DB	029H
	DB	027H
	DB	027H
	DB	027H
	DB	027H
	DB	027H
	DB	027H
	DB	027H
	DB	027H
	DB	027H
	DB	027H
	DB	027H
	DB	027H
	DB	027H
	DB	027H
	DB	027H
	DB	027H
	DB	027H
	DB	027H
	DB	027H
	DB	027H
	DB	027H
	DB	027H
	DB	027H
	DB	027H
	DB	027H
	DB	027H
	DB	027H
	DB	027H
	DB	027H
	DB	027H
	DB	027H
	DB	027H
	DB	027H
	DB	027H
	DB	027H
	DB	027H
	DB	027H
	DB	027H
	DB	027H
	DB	027H
	DB	027H
	DB	027H
	DB	027H
	DB	016H
	DB	080H
	DB	02eH
	DB	00H
	DB	00H
	DB	00H
	DB	02bH
	DB	011H
	DB	01H
	DB	01H
	DB	01H
	DB	01H
	DB	01H
	DB	01H
	DB	01H
	DB	01H
	DB	01H
	DB	01H
	DB	01H
	DB	01H
	DB	01H
	DB	01H
	DB	01H
	DB	01H
	DB	01H
	DB	01H
	DB	01H
	DB	01H
	DB	01H
	DB	01H
	DB	01H
	DB	01H
	DB	01H
	DB	01H
	DB	01H
	DB	01H
	DB	01H
	DB	01H
	DB	01H
	DB	01H
	DB	01H
	DB	01H
	DB	01H
	DB	01H
	DB	01H
	DB	01H
	DB	01H
	DB	01H
	DB	01H
	DB	01H
	DB	01H
	DB	01H
	DB	01H
	DB	01H
	DB	01H
	DB	01H
	DB	01H
	DB	01H
	DB	01H
	DB	01H
	DB	01H
	DB	04H
	DB	0eH
	DB	00H
	DB	00H
	DB	02bH
	DB	0d1H
	DB	027H
	DB	016H
	DB	027H
	DB	027H
	DB	027H
	DB	027H
	DB	027H
	DB	027H
	DB	027H
	DB	027H
	DB	027H
	DB	027H
	DB	027H
	DB	027H
	DB	027H
	DB	027H
	DB	027H
	DB	027H
	DB	027H
	DB	027H
	DB	027H
	DB	027H
	DB	027H
	DB	027H
	DB	027H
	DB	027H
	DB	027H
	DB	027H
	DB	027H
	DB	027H
	DB	027H
	DB	027H
	DB	027H
	DB	027H
	DB	027H
	DB	027H
	DB	027H
	DB	027H
	DB	027H
	DB	027H
	DB	027H
	DB	027H
	DB	027H
	DB	027H
	DB	027H
	DB	027H
	DB	027H
	DB	027H
	DB	027H
	DB	027H
	DB	09aH
	DB	011H
	DB	012H
	DB	00H
	DB	00H
	DB	00H
	DB	00H
	DB	00H
	DB	00H
	DB	00H
	DB	00H
	DB	00H
	DB	00H
	DB	00H
	DB	00H
	DB	00H
	DB	018H
	DB	0fH
	DB	016H
	DB	016H
	DB	016H
	DB	016H
	DB	016H
	DB	016H
	DB	016H
	DB	016H
	DB	016H
	DB	016H
	DB	016H
	DB	016H
	DB	016H
	DB	016H
	DB	016H
	DB	016H
	DB	016H
	DB	016H
	DB	016H
	DB	016H
	DB	016H
	DB	016H
	DB	016H
	DB	016H
	DB	016H
	DB	016H
	DB	016H
	DB	016H
	DB	016H
	DB	016H
	DB	016H
	DB	016H
	DB	016H
	DB	016H
	DB	016H
	DB	016H
	DB	016H
	DB	016H
	DB	016H
	DB	016H
	DB	016H
	DB	016H
	DB	016H
	DB	01aH
	DB	013H
	DB	02eH
	DB	00H
	DB	00H
	DB	00H
	DB	02bH
	DB	011H
	DB	01H
	DB	01H
	DB	01H
	DB	01H
	DB	01H
	DB	01H
	DB	01H
	DB	01H
	DB	01H
	DB	01H
	DB	01H
	DB	01H
	DB	01H
	DB	01H
	DB	01H
	DB	01H
	DB	01H
	DB	01H
	DB	01H
	DB	01H
	DB	01H
	DB	01H
	DB	01H
	DB	01H
	DB	01H
	DB	01H
	DB	01H
	DB	01H
	DB	01H
	DB	01H
	DB	01H
	DB	01H
	DB	01H
	DB	01H
	DB	01H
	DB	01H
	DB	01H
	DB	01H
	DB	01H
	DB	01H
	DB	01H
	DB	01H
	DB	01H
	DB	01H
	DB	01H
	DB	01H
	DB	01H
	DB	01H
	DB	01H
	DB	01H
	DB	01H
	DB	01H
	DB	01H
	DB	04H
	DB	0eH
	DB	00H
	DB	00H
	DB	02bH
	DB	0d1H
	DB	016H
	DB	09aH
	DB	016H
	DB	016H
	DB	016H
	DB	016H
	DB	016H
	DB	016H
	DB	016H
	DB	016H
	DB	016H
	DB	016H
	DB	016H
	DB	016H
	DB	016H
	DB	016H
	DB	016H
	DB	016H
	DB	016H
	DB	016H
	DB	016H
	DB	016H
	DB	016H
	DB	016H
	DB	016H
	DB	016H
	DB	016H
	DB	016H
	DB	016H
	DB	016H
	DB	016H
	DB	016H
	DB	016H
	DB	016H
	DB	016H
	DB	016H
	DB	016H
	DB	016H
	DB	016H
	DB	016H
	DB	016H
	DB	016H
	DB	016H
	DB	016H
	DB	016H
	DB	016H
	DB	016H
	DB	016H
	DB	016H
	DB	016H
	DB	01aH
	DB	010H
	DB	019H
	DB	00H
	DB	00H
	DB	00H
	DB	00H
	DB	00H
	DB	00H
	DB	00H
	DB	00H
	DB	00H
	DB	00H
	DB	00H
	DB	00H
	DB	00H
	DB	080H
	DB	0f3H
	DB	01aH
	DB	01aH
	DB	01aH
	DB	01aH
	DB	01aH
	DB	01aH
	DB	01aH
	DB	01aH
	DB	01aH
	DB	01aH
	DB	01aH
	DB	01aH
	DB	01aH
	DB	01aH
	DB	01aH
	DB	01aH
	DB	01aH
	DB	01aH
	DB	01aH
	DB	01aH
	DB	01aH
	DB	01aH
	DB	01aH
	DB	01aH
	DB	01aH
	DB	01aH
	DB	01aH
	DB	01aH
	DB	01aH
	DB	01aH
	DB	01aH
	DB	01aH
	DB	01aH
	DB	01aH
	DB	01aH
	DB	01aH
	DB	01aH
	DB	01aH
	DB	01aH
	DB	01aH
	DB	01aH
	DB	01aH
	DB	01aH
	DB	029H
	DB	016H
	DB	0cbH
	DB	00H
	DB	00H
	DB	00H
	DB	02bH
	DB	011H
	DB	01H
	DB	01H
	DB	01H
	DB	01H
	DB	01H
	DB	01H
	DB	01H
	DB	01H
	DB	01H
	DB	01H
	DB	01H
	DB	01H
	DB	01H
	DB	01H
	DB	01H
	DB	01H
	DB	01H
	DB	01H
	DB	01H
	DB	01H
	DB	01H
	DB	01H
	DB	01H
	DB	01H
	DB	01H
	DB	01H
	DB	01H
	DB	01H
	DB	01H
	DB	01H
	DB	01H
	DB	01H
	DB	01H
	DB	01H
	DB	01H
	DB	01H
	DB	01H
	DB	01H
	DB	01H
	DB	01H
	DB	01H
	DB	01H
	DB	01H
	DB	01H
	DB	01H
	DB	01H
	DB	01H
	DB	01H
	DB	01H
	DB	01H
	DB	01H
	DB	01H
	DB	01H
	DB	04H
	DB	0eH
	DB	00H
	DB	00H
	DB	02bH
	DB	045H
	DB	09aH
	DB	01aH
	DB	01aH
	DB	01aH
	DB	01aH
	DB	01aH
	DB	01aH
	DB	01aH
	DB	01aH
	DB	01aH
	DB	01aH
	DB	01aH
	DB	01aH
	DB	01aH
	DB	01aH
	DB	01aH
	DB	01aH
	DB	01aH
	DB	01aH
	DB	01aH
	DB	01aH
	DB	01aH
	DB	01aH
	DB	01aH
	DB	01aH
	DB	01aH
	DB	01aH
	DB	01aH
	DB	01aH
	DB	01aH
	DB	01aH
	DB	01aH
	DB	01aH
	DB	01aH
	DB	01aH
	DB	01aH
	DB	01aH
	DB	01aH
	DB	01aH
	DB	01aH
	DB	01aH
	DB	01aH
	DB	01aH
	DB	01aH
	DB	01aH
	DB	01aH
	DB	01aH
	DB	01aH
	DB	01aH
	DB	01aH
	DB	029H
	DB	024H
	DB	019H
	DB	00H
	DB	00H
	DB	00H
	DB	00H
	DB	00H
	DB	00H
	DB	00H
	DB	00H
	DB	00H
	DB	00H
	DB	00H
	DB	00H
	DB	00H
	DB	013H
	DB	028H
	DB	029H
	DB	029H
	DB	029H
	DB	029H
	DB	029H
	DB	029H
	DB	029H
	DB	029H
	DB	029H
	DB	029H
	DB	029H
	DB	029H
	DB	029H
	DB	029H
	DB	029H
	DB	029H
	DB	029H
	DB	029H
	DB	029H
	DB	029H
	DB	029H
	DB	029H
	DB	029H
	DB	029H
	DB	029H
	DB	029H
	DB	029H
	DB	029H
	DB	029H
	DB	029H
	DB	029H
	DB	029H
	DB	029H
	DB	029H
	DB	029H
	DB	029H
	DB	029H
	DB	029H
	DB	029H
	DB	029H
	DB	029H
	DB	029H
	DB	029H
	DB	0fH
	DB	09aH
	DB	0cbH
	DB	00H
	DB	00H
	DB	00H
	DB	02bH
	DB	011H
	DB	01H
	DB	01H
	DB	01H
	DB	01H
	DB	01H
	DB	01H
	DB	01H
	DB	01H
	DB	01H
	DB	01H
	DB	01H
	DB	01H
	DB	01H
	DB	01H
	DB	01H
	DB	01H
	DB	01H
	DB	01H
	DB	01H
	DB	01H
	DB	01H
	DB	01H
	DB	01H
	DB	01H
	DB	01H
	DB	01H
	DB	01H
	DB	01H
	DB	01H
	DB	01H
	DB	01H
	DB	01H
	DB	01H
	DB	01H
	DB	01H
	DB	01H
	DB	01H
	DB	01H
	DB	01H
	DB	01H
	DB	01H
	DB	01H
	DB	01H
	DB	01H
	DB	01H
	DB	01H
	DB	01H
	DB	01H
	DB	01H
	DB	01H
	DB	01H
	DB	01H
	DB	01H
	DB	04H
	DB	0eH
	DB	00H
	DB	00H
	DB	02bH
	DB	038H
	DB	029H
	DB	0fH
	DB	029H
	DB	029H
	DB	029H
	DB	029H
	DB	029H
	DB	029H
	DB	029H
	DB	029H
	DB	029H
	DB	029H
	DB	029H
	DB	029H
	DB	029H
	DB	029H
	DB	029H
	DB	029H
	DB	029H
	DB	029H
	DB	029H
	DB	029H
	DB	029H
	DB	029H
	DB	029H
	DB	029H
	DB	029H
	DB	029H
	DB	029H
	DB	029H
	DB	029H
	DB	029H
	DB	029H
	DB	029H
	DB	029H
	DB	029H
	DB	029H
	DB	029H
	DB	029H
	DB	029H
	DB	029H
	DB	029H
	DB	029H
	DB	029H
	DB	029H
	DB	029H
	DB	029H
	DB	029H
	DB	029H
	DB	029H
	DB	0f3H
	DB	024H
	DB	019H
	DB	00H
	DB	00H
	DB	00H
	DB	00H
	DB	00H
	DB	00H
	DB	00H
	DB	00H
	DB	00H
	DB	00H
	DB	00H
	DB	00H
	DB	00H
	DB	027H
	DB	08H
	DB	0fH
	DB	0fH
	DB	0fH
	DB	0fH
	DB	0fH
	DB	0fH
	DB	0fH
	DB	0fH
	DB	0fH
	DB	0fH
	DB	0fH
	DB	0fH
	DB	0fH
	DB	0fH
	DB	0fH
	DB	0fH
	DB	0fH
	DB	0fH
	DB	0fH
	DB	0fH
	DB	0fH
	DB	0fH
	DB	0fH
	DB	0fH
	DB	0fH
	DB	0fH
	DB	0fH
	DB	0fH
	DB	0fH
	DB	0fH
	DB	0fH
	DB	0fH
	DB	0fH
	DB	0fH
	DB	0fH
	DB	0fH
	DB	0fH
	DB	0fH
	DB	0fH
	DB	0fH
	DB	0fH
	DB	0fH
	DB	0fH
	DB	0f3H
	DB	01aH
	DB	0cbH
	DB	00H
	DB	00H
	DB	00H
	DB	02bH
	DB	011H
	DB	01H
	DB	01H
	DB	01H
	DB	01H
	DB	01H
	DB	01H
	DB	01H
	DB	01H
	DB	01H
	DB	01H
	DB	01H
	DB	01H
	DB	01H
	DB	01H
	DB	01H
	DB	01H
	DB	01H
	DB	01H
	DB	01H
	DB	01H
	DB	01H
	DB	01H
	DB	01H
	DB	01H
	DB	01H
	DB	01H
	DB	01H
	DB	01H
	DB	01H
	DB	01H
	DB	01H
	DB	01H
	DB	01H
	DB	01H
	DB	01H
	DB	01H
	DB	01H
	DB	01H
	DB	01H
	DB	01H
	DB	01H
	DB	01H
	DB	01H
	DB	01H
	DB	01H
	DB	01H
	DB	01H
	DB	01H
	DB	01H
	DB	01H
	DB	01H
	DB	01H
	DB	01H
	DB	04H
	DB	0eH
	DB	00H
	DB	00H
	DB	02bH
	DB	03cH
	DB	0fH
	DB	0f3H
	DB	0fH
	DB	0fH
	DB	0fH
	DB	0fH
	DB	0fH
	DB	0fH
	DB	0fH
	DB	0fH
	DB	0fH
	DB	0fH
	DB	0fH
	DB	0fH
	DB	0fH
	DB	0fH
	DB	0fH
	DB	0fH
	DB	0fH
	DB	0fH
	DB	0fH
	DB	0fH
	DB	0fH
	DB	0fH
	DB	0fH
	DB	0fH
	DB	0fH
	DB	0fH
	DB	0fH
	DB	0fH
	DB	0fH
	DB	0fH
	DB	0fH
	DB	0fH
	DB	0fH
	DB	0fH
	DB	0fH
	DB	0fH
	DB	0fH
	DB	0fH
	DB	0fH
	DB	0fH
	DB	0fH
	DB	0fH
	DB	0fH
	DB	0fH
	DB	0fH
	DB	0fH
	DB	0fH
	DB	0fH
	DB	014H
	DB	04H
	DB	019H
	DB	00H
	DB	00H
	DB	00H
	DB	00H
	DB	00H
	DB	00H
	DB	00H
	DB	00H
	DB	00H
	DB	00H
	DB	00H
	DB	00H
	DB	00H
	DB	016H
	DB	06H
	DB	014H
	DB	014H
	DB	014H
	DB	014H
	DB	014H
	DB	014H
	DB	014H
	DB	014H
	DB	014H
	DB	014H
	DB	014H
	DB	014H
	DB	014H
	DB	014H
	DB	014H
	DB	014H
	DB	014H
	DB	014H
	DB	014H
	DB	014H
	DB	014H
	DB	014H
	DB	014H
	DB	014H
	DB	014H
	DB	014H
	DB	014H
	DB	014H
	DB	014H
	DB	014H
	DB	014H
	DB	014H
	DB	014H
	DB	014H
	DB	014H
	DB	014H
	DB	014H
	DB	014H
	DB	014H
	DB	014H
	DB	014H
	DB	014H
	DB	014H
	DB	028H
	DB	0fH
	DB	044H
	DB	00H
	DB	00H
	DB	00H
	DB	02bH
	DB	011H
	DB	01H
	DB	01H
	DB	01H
	DB	01H
	DB	01H
	DB	01H
	DB	01H
	DB	01H
	DB	01H
	DB	01H
	DB	01H
	DB	01H
	DB	01H
	DB	01H
	DB	01H
	DB	01H
	DB	01H
	DB	01H
	DB	01H
	DB	01H
	DB	01H
	DB	01H
	DB	01H
	DB	01H
	DB	01H
	DB	01H
	DB	01H
	DB	01H
	DB	01H
	DB	01H
	DB	01H
	DB	01H
	DB	01H
	DB	01H
	DB	01H
	DB	01H
	DB	01H
	DB	01H
	DB	01H
	DB	01H
	DB	01H
	DB	01H
	DB	01H
	DB	01H
	DB	01H
	DB	01H
	DB	01H
	DB	01H
	DB	01H
	DB	01H
	DB	01H
	DB	01H
	DB	01H
	DB	04H
	DB	0eH
	DB	00H
	DB	00H
	DB	02bH
	DB	0d5H
	DB	0f3H
	DB	014H
	DB	014H
	DB	014H
	DB	014H
	DB	014H
	DB	014H
	DB	014H
	DB	014H
	DB	014H
	DB	014H
	DB	014H
	DB	014H
	DB	014H
	DB	014H
	DB	014H
	DB	014H
	DB	014H
	DB	014H
	DB	014H
	DB	014H
	DB	014H
	DB	014H
	DB	014H
	DB	014H
	DB	014H
	DB	014H
	DB	014H
	DB	014H
	DB	014H
	DB	014H
	DB	014H
	DB	014H
	DB	014H
	DB	014H
	DB	014H
	DB	014H
	DB	014H
	DB	014H
	DB	014H
	DB	014H
	DB	014H
	DB	014H
	DB	014H
	DB	014H
	DB	014H
	DB	014H
	DB	014H
	DB	014H
	DB	014H
	DB	028H
	DB	04H
	DB	019H
	DB	00H
	DB	00H
	DB	00H
	DB	00H
	DB	00H
	DB	00H
	DB	00H
	DB	00H
	DB	00H
	DB	00H
	DB	00H
	DB	00H
	DB	00H
	DB	09aH
	DB	0f8H
	DB	028H
	DB	028H
	DB	028H
	DB	028H
	DB	028H
	DB	028H
	DB	028H
	DB	028H
	DB	028H
	DB	028H
	DB	028H
	DB	028H
	DB	028H
	DB	028H
	DB	028H
	DB	028H
	DB	028H
	DB	028H
	DB	028H
	DB	028H
	DB	028H
	DB	028H
	DB	028H
	DB	028H
	DB	028H
	DB	028H
	DB	028H
	DB	028H
	DB	028H
	DB	028H
	DB	028H
	DB	028H
	DB	028H
	DB	028H
	DB	028H
	DB	028H
	DB	028H
	DB	028H
	DB	028H
	DB	028H
	DB	028H
	DB	028H
	DB	028H
	DB	08H
	DB	0f3H
	DB	044H
	DB	00H
	DB	00H
	DB	00H
	DB	02bH
	DB	011H
	DB	01H
	DB	01H
	DB	01H
	DB	01H
	DB	01H
	DB	01H
	DB	01H
	DB	01H
	DB	01H
	DB	01H
	DB	01H
	DB	01H
	DB	01H
	DB	01H
	DB	01H
	DB	01H
	DB	01H
	DB	01H
	DB	01H
	DB	01H
	DB	01H
	DB	01H
	DB	01H
	DB	01H
	DB	01H
	DB	01H
	DB	01H
	DB	01H
	DB	01H
	DB	01H
	DB	01H
	DB	01H
	DB	01H
	DB	01H
	DB	01H
	DB	01H
	DB	01H
	DB	01H
	DB	01H
	DB	01H
	DB	01H
	DB	01H
	DB	01H
	DB	01H
	DB	01H
	DB	01H
	DB	01H
	DB	01H
	DB	01H
	DB	01H
	DB	01H
	DB	01H
	DB	01H
	DB	04H
	DB	0eH
	DB	00H
	DB	00H
	DB	02bH
	DB	0d5H
	DB	028H
	DB	08H
	DB	028H
	DB	028H
	DB	028H
	DB	028H
	DB	028H
	DB	028H
	DB	028H
	DB	028H
	DB	028H
	DB	028H
	DB	028H
	DB	028H
	DB	028H
	DB	028H
	DB	028H
	DB	028H
	DB	028H
	DB	028H
	DB	028H
	DB	028H
	DB	028H
	DB	028H
	DB	028H
	DB	028H
	DB	028H
	DB	028H
	DB	028H
	DB	028H
	DB	028H
	DB	028H
	DB	028H
	DB	028H
	DB	028H
	DB	028H
	DB	028H
	DB	028H
	DB	028H
	DB	028H
	DB	028H
	DB	028H
	DB	028H
	DB	028H
	DB	028H
	DB	028H
	DB	028H
	DB	028H
	DB	028H
	DB	028H
	DB	0f6H
	DB	025H
	DB	019H
	DB	00H
	DB	00H
	DB	00H
	DB	00H
	DB	00H
	DB	00H
	DB	00H
	DB	00H
	DB	00H
	DB	00H
	DB	00H
	DB	00H
	DB	00H
	DB	01aH
	DB	015H
	DB	08H
	DB	08H
	DB	08H
	DB	08H
	DB	08H
	DB	08H
	DB	08H
	DB	08H
	DB	08H
	DB	08H
	DB	08H
	DB	08H
	DB	08H
	DB	08H
	DB	08H
	DB	08H
	DB	08H
	DB	08H
	DB	08H
	DB	08H
	DB	08H
	DB	08H
	DB	08H
	DB	08H
	DB	08H
	DB	08H
	DB	08H
	DB	08H
	DB	08H
	DB	08H
	DB	08H
	DB	08H
	DB	08H
	DB	08H
	DB	08H
	DB	08H
	DB	08H
	DB	08H
	DB	08H
	DB	08H
	DB	08H
	DB	08H
	DB	08H
	DB	06H
	DB	014H
	DB	044H
	DB	00H
	DB	00H
	DB	00H
	DB	02bH
	DB	011H
	DB	01H
	DB	01H
	DB	01H
	DB	01H
	DB	01H
	DB	01H
	DB	01H
	DB	01H
	DB	01H
	DB	01H
	DB	01H
	DB	01H
	DB	01H
	DB	01H
	DB	01H
	DB	01H
	DB	01H
	DB	01H
	DB	01H
	DB	01H
	DB	01H
	DB	01H
	DB	01H
	DB	01H
	DB	01H
	DB	01H
	DB	01H
	DB	01H
	DB	01H
	DB	01H
	DB	01H
	DB	01H
	DB	01H
	DB	01H
	DB	01H
	DB	01H
	DB	01H
	DB	01H
	DB	01H
	DB	01H
	DB	01H
	DB	01H
	DB	01H
	DB	01H
	DB	01H
	DB	01H
	DB	01H
	DB	01H
	DB	01H
	DB	01H
	DB	01H
	DB	01H
	DB	01H
	DB	025H
	DB	01cH
	DB	00H
	DB	00H
	DB	02bH
	DB	04dH
	DB	08H
	DB	0f6H
	DB	08H
	DB	08H
	DB	08H
	DB	08H
	DB	08H
	DB	08H
	DB	08H
	DB	08H
	DB	08H
	DB	08H
	DB	08H
	DB	08H
	DB	08H
	DB	08H
	DB	08H
	DB	08H
	DB	08H
	DB	08H
	DB	08H
	DB	08H
	DB	08H
	DB	08H
	DB	08H
	DB	08H
	DB	08H
	DB	08H
	DB	08H
	DB	08H
	DB	08H
	DB	08H
	DB	08H
	DB	08H
	DB	08H
	DB	08H
	DB	08H
	DB	08H
	DB	08H
	DB	08H
	DB	08H
	DB	08H
	DB	08H
	DB	08H
	DB	08H
	DB	08H
	DB	08H
	DB	08H
	DB	08H
	DB	08H
	DB	06H
	DB	025H
	DB	019H
	DB	00H
	DB	00H
	DB	00H
	DB	00H
	DB	00H
	DB	00H
	DB	00H
	DB	00H
	DB	00H
	DB	00H
	DB	00H
	DB	00H
	DB	00H
	DB	029H
	DB	09bH
	DB	06H
	DB	06H
	DB	06H
	DB	06H
	DB	06H
	DB	06H
	DB	06H
	DB	06H
	DB	06H
	DB	06H
	DB	06H
	DB	06H
	DB	06H
	DB	06H
	DB	06H
	DB	06H
	DB	06H
	DB	06H
	DB	06H
	DB	06H
	DB	06H
	DB	06H
	DB	06H
	DB	06H
	DB	06H
	DB	06H
	DB	06H
	DB	06H
	DB	06H
	DB	06H
	DB	06H
	DB	06H
	DB	06H
	DB	06H
	DB	06H
	DB	06H
	DB	06H
	DB	06H
	DB	06H
	DB	06H
	DB	06H
	DB	06H
	DB	06H
	DB	0f8H
	DB	028H
	DB	041H
	DB	00H
	DB	00H
	DB	00H
	DB	00H
	DB	03cH
	DB	02aH
	DB	01H
	DB	01H
	DB	01H
	DB	01H
	DB	01H
	DB	01H
	DB	01H
	DB	01H
	DB	01H
	DB	01H
	DB	01H
	DB	01H
	DB	01H
	DB	01H
	DB	01H
	DB	01H
	DB	01H
	DB	01H
	DB	01H
	DB	01H
	DB	01H
	DB	01H
	DB	01H
	DB	01H
	DB	01H
	DB	01H
	DB	01H
	DB	01H
	DB	01H
	DB	01H
	DB	01H
	DB	01H
	DB	01H
	DB	01H
	DB	01H
	DB	01H
	DB	01H
	DB	01H
	DB	01H
	DB	01H
	DB	01H
	DB	01H
	DB	01H
	DB	01H
	DB	01H
	DB	01H
	DB	01H
	DB	01H
	DB	01H
	DB	01H
	DB	01H
	DB	01H
	DB	04H
	DB	0eH
	DB	00H
	DB	00H
	DB	02bH
	DB	0d8H
	DB	0f6H
	DB	06H
	DB	06H
	DB	06H
	DB	06H
	DB	06H
	DB	06H
	DB	06H
	DB	06H
	DB	06H
	DB	06H
	DB	06H
	DB	06H
	DB	06H
	DB	06H
	DB	06H
	DB	06H
	DB	06H
	DB	06H
	DB	06H
	DB	06H
	DB	06H
	DB	06H
	DB	06H
	DB	06H
	DB	06H
	DB	06H
	DB	06H
	DB	06H
	DB	06H
	DB	06H
	DB	06H
	DB	06H
	DB	06H
	DB	06H
	DB	06H
	DB	06H
	DB	06H
	DB	06H
	DB	06H
	DB	06H
	DB	06H
	DB	06H
	DB	06H
	DB	06H
	DB	06H
	DB	06H
	DB	06H
	DB	06H
	DB	06H
	DB	0f8H
	DB	03H
	DB	019H
	DB	00H
	DB	00H
	DB	00H
	DB	00H
	DB	00H
	DB	00H
	DB	00H
	DB	00H
	DB	00H
	DB	00H
	DB	00H
	DB	00H
	DB	00H
	DB	0fH
	DB	09H
	DB	0f8H
	DB	0f8H
	DB	0f8H
	DB	0f8H
	DB	0f8H
	DB	0f8H
	DB	0f8H
	DB	0f8H
	DB	0f8H
	DB	0f8H
	DB	0f8H
	DB	0f8H
	DB	0f8H
	DB	0f8H
	DB	0f8H
	DB	0f8H
	DB	0f8H
	DB	0f8H
	DB	0f8H
	DB	0f8H
	DB	0f8H
	DB	0f8H
	DB	0f8H
	DB	0f8H
	DB	0f8H
	DB	0f8H
	DB	0f8H
	DB	0f8H
	DB	0f8H
	DB	0f8H
	DB	0f8H
	DB	0f8H
	DB	0f8H
	DB	0f8H
	DB	0f8H
	DB	0f8H
	DB	0f8H
	DB	0f8H
	DB	0f8H
	DB	0f8H
	DB	0f8H
	DB	0f8H
	DB	0f8H
	DB	015H
	DB	08H
	DB	044H
	DB	00H
	DB	00H
	DB	00H
	DB	00H
	DB	0dH
	DB	0cH
	DB	01H
	DB	01H
	DB	01H
	DB	01H
	DB	01H
	DB	01H
	DB	01H
	DB	01H
	DB	01H
	DB	01H
	DB	01H
	DB	01H
	DB	01H
	DB	01H
	DB	01H
	DB	01H
	DB	01H
	DB	01H
	DB	01H
	DB	01H
	DB	01H
	DB	01H
	DB	01H
	DB	01H
	DB	01H
	DB	01H
	DB	01H
	DB	01H
	DB	01H
	DB	01H
	DB	01H
	DB	01H
	DB	01H
	DB	01H
	DB	01H
	DB	01H
	DB	01H
	DB	01H
	DB	01H
	DB	01H
	DB	01H
	DB	01H
	DB	01H
	DB	01H
	DB	01H
	DB	01H
	DB	01H
	DB	01H
	DB	01H
	DB	01H
	DB	01H
	DB	040H
	DB	041H
	DB	00H
	DB	00H
	DB	00H
	DB	02bH
	DB	04dH
	DB	06H
	DB	015H
	DB	0f8H
	DB	0f8H
	DB	0f8H
	DB	0f8H
	DB	0f8H
	DB	0f8H
	DB	0f8H
	DB	0f8H
	DB	0f8H
	DB	0f8H
	DB	0f8H
	DB	0f8H
	DB	0f8H
	DB	0f8H
	DB	0f8H
	DB	0f8H
	DB	0f8H
	DB	0f8H
	DB	0f8H
	DB	0f8H
	DB	0f8H
	DB	0f8H
	DB	0f8H
	DB	0f8H
	DB	0f8H
	DB	0f8H
	DB	0f8H
	DB	0f8H
	DB	0f8H
	DB	0f8H
	DB	0f8H
	DB	0f8H
	DB	0f8H
	DB	0f8H
	DB	0f8H
	DB	0f8H
	DB	0f8H
	DB	0f8H
	DB	0f8H
	DB	0f8H
	DB	0f8H
	DB	0f8H
	DB	0f8H
	DB	0f8H
	DB	0f8H
	DB	0f8H
	DB	0f8H
	DB	0f8H
	DB	015H
	DB	026H
	DB	0a7H
	DB	00H
	DB	00H
	DB	00H
	DB	00H
	DB	00H
	DB	00H
	DB	00H
	DB	00H
	DB	00H
	DB	00H
	DB	00H
	DB	00H
	DB	00H
	DB	0f3H
	DB	0cH
	DB	015H
	DB	015H
	DB	015H
	DB	015H
	DB	015H
	DB	015H
	DB	015H
	DB	015H
	DB	015H
	DB	015H
	DB	015H
	DB	015H
	DB	015H
	DB	015H
	DB	015H
	DB	015H
	DB	015H
	DB	015H
	DB	015H
	DB	015H
	DB	015H
	DB	015H
	DB	015H
	DB	015H
	DB	015H
	DB	015H
	DB	015H
	DB	015H
	DB	015H
	DB	015H
	DB	015H
	DB	015H
	DB	015H
	DB	015H
	DB	015H
	DB	015H
	DB	015H
	DB	015H
	DB	015H
	DB	015H
	DB	015H
	DB	015H
	DB	015H
	DB	09bH
	DB	06H
	DB	031H
	DB	00H
	DB	00H
	DB	00H
	DB	00H
	DB	00H
	DB	017H
	DB	026H
	DB	08H
	DB	014H
	DB	014H
	DB	014H
	DB	014H
	DB	014H
	DB	014H
	DB	014H
	DB	014H
	DB	014H
	DB	014H
	DB	014H
	DB	014H
	DB	014H
	DB	014H
	DB	014H
	DB	014H
	DB	014H
	DB	014H
	DB	014H
	DB	014H
	DB	014H
	DB	014H
	DB	014H
	DB	014H
	DB	014H
	DB	014H
	DB	014H
	DB	014H
	DB	014H
	DB	014H
	DB	014H
	DB	014H
	DB	014H
	DB	014H
	DB	014H
	DB	014H
	DB	014H
	DB	014H
	DB	014H
	DB	014H
	DB	014H
	DB	014H
	DB	014H
	DB	014H
	DB	014H
	DB	014H
	DB	014H
	DB	08H
	DB	013H
	DB	031H
	DB	02bH
	DB	00H
	DB	00H
	DB	00H
	DB	02bH
	DB	03dH
	DB	015H
	DB	09bH
	DB	015H
	DB	015H
	DB	015H
	DB	015H
	DB	015H
	DB	015H
	DB	015H
	DB	015H
	DB	015H
	DB	015H
	DB	015H
	DB	015H
	DB	015H
	DB	015H
	DB	015H
	DB	015H
	DB	015H
	DB	015H
	DB	015H
	DB	015H
	DB	015H
	DB	015H
	DB	015H
	DB	015H
	DB	015H
	DB	015H
	DB	015H
	DB	015H
	DB	015H
	DB	015H
	DB	015H
	DB	015H
	DB	015H
	DB	015H
	DB	015H
	DB	015H
	DB	015H
	DB	015H
	DB	015H
	DB	015H
	DB	015H
	DB	015H
	DB	015H
	DB	015H
	DB	015H
	DB	015H
	DB	015H
	DB	015H
	DB	09H
	DB	0edH
	DB	0a7H
	DB	00H
	DB	00H
	DB	00H
	DB	00H
	DB	00H
	DB	00H
	DB	00H
	DB	00H
	DB	00H
	DB	00H
	DB	00H
	DB	00H
	DB	00H
	DB	0f3H
	DB	0faH
	DB	09bH
	DB	09bH
	DB	09bH
	DB	09bH
	DB	09bH
	DB	09bH
	DB	09bH
	DB	09bH
	DB	09bH
	DB	09bH
	DB	09bH
	DB	09bH
	DB	09bH
	DB	09bH
	DB	09bH
	DB	09bH
	DB	09bH
	DB	09bH
	DB	09bH
	DB	09bH
	DB	09bH
	DB	09bH
	DB	09bH
	DB	09bH
	DB	09bH
	DB	09bH
	DB	09bH
	DB	09bH
	DB	09bH
	DB	09bH
	DB	09bH
	DB	09bH
	DB	09bH
	DB	09bH
	DB	09bH
	DB	09bH
	DB	09bH
	DB	09bH
	DB	09bH
	DB	09bH
	DB	09bH
	DB	09bH
	DB	09bH
	DB	09H
	DB	09H
	DB	04H
	DB	019H
	DB	00H
	DB	00H
	DB	00H
	DB	00H
	DB	00H
	DB	09eH
	DB	0eH
	DB	0a0H
	DB	0a0H
	DB	0a0H
	DB	0a0H
	DB	0a0H
	DB	0a0H
	DB	0a0H
	DB	0a0H
	DB	0a0H
	DB	0a0H
	DB	0a0H
	DB	0a0H
	DB	0a0H
	DB	0a0H
	DB	0a0H
	DB	0a0H
	DB	0a0H
	DB	0a0H
	DB	0a0H
	DB	0a0H
	DB	0a0H
	DB	0a0H
	DB	0a0H
	DB	0a0H
	DB	0a0H
	DB	0a0H
	DB	0a0H
	DB	0a0H
	DB	0a0H
	DB	0a0H
	DB	0a0H
	DB	0a0H
	DB	0a0H
	DB	0a0H
	DB	0a0H
	DB	0a0H
	DB	0a0H
	DB	0a0H
	DB	0a0H
	DB	0a0H
	DB	0a0H
	DB	0a0H
	DB	0a0H
	DB	0a0H
	DB	0a0H
	DB	0a0H
	DB	0a0H
	DB	0eH
	DB	09eH
	DB	00H
	DB	00H
	DB	00H
	DB	00H
	DB	00H
	DB	012H
	DB	03H
	DB	0cH
	DB	09bH
	DB	09bH
	DB	09bH
	DB	09bH
	DB	09bH
	DB	09bH
	DB	09bH
	DB	09bH
	DB	09bH
	DB	09bH
	DB	09bH
	DB	09bH
	DB	09bH
	DB	09bH
	DB	09bH
	DB	09bH
	DB	09bH
	DB	09bH
	DB	09bH
	DB	09bH
	DB	09bH
	DB	09bH
	DB	09bH
	DB	09bH
	DB	09bH
	DB	09bH
	DB	09bH
	DB	09bH
	DB	09bH
	DB	09bH
	DB	09bH
	DB	09bH
	DB	09bH
	DB	09bH
	DB	09bH
	DB	09bH
	DB	09bH
	DB	09bH
	DB	09bH
	DB	09bH
	DB	09bH
	DB	09bH
	DB	09bH
	DB	09bH
	DB	09bH
	DB	09bH
	DB	09bH
	DB	09bH
	DB	09bH
	DB	0cH
	DB	018H
	DB	0a7H
	DB	00H
	DB	00H
	DB	00H
	DB	00H
	DB	00H
	DB	00H
	DB	00H
	DB	00H
	DB	00H
	DB	00H
	DB	00H
	DB	00H
	DB	00H
	DB	014H
	DB	02H
	DB	09H
	DB	09H
	DB	09H
	DB	09H
	DB	09H
	DB	09H
	DB	09H
	DB	09H
	DB	09H
	DB	09H
	DB	09H
	DB	09H
	DB	09H
	DB	09H
	DB	09H
	DB	09H
	DB	09H
	DB	09H
	DB	09H
	DB	09H
	DB	09H
	DB	09H
	DB	09H
	DB	09H
	DB	09H
	DB	09H
	DB	09H
	DB	09H
	DB	09H
	DB	09H
	DB	09H
	DB	09H
	DB	09H
	DB	09H
	DB	09H
	DB	09H
	DB	09H
	DB	09H
	DB	09H
	DB	09H
	DB	09H
	DB	09H
	DB	09H
	DB	09H
	DB	0cH
	DB	09H
	DB	03cH
	DB	09eH
	DB	00H
	DB	00H
	DB	00H
	DB	00H
	DB	00H
	DB	00H
	DB	00H
	DB	00H
	DB	00H
	DB	00H
	DB	00H
	DB	00H
	DB	00H
	DB	00H
	DB	00H
	DB	00H
	DB	00H
	DB	00H
	DB	00H
	DB	00H
	DB	00H
	DB	00H
	DB	00H
	DB	00H
	DB	00H
	DB	00H
	DB	00H
	DB	00H
	DB	00H
	DB	00H
	DB	00H
	DB	00H
	DB	00H
	DB	00H
	DB	00H
	DB	00H
	DB	00H
	DB	00H
	DB	00H
	DB	00H
	DB	00H
	DB	00H
	DB	00H
	DB	00H
	DB	00H
	DB	00H
	DB	00H
	DB	00H
	DB	00H
	DB	00H
	DB	00H
	DB	00H
	DB	00H
	DB	00H
	DB	00H
	DB	00H
	DB	00H
	DB	00H
	DB	00H
	DB	0a0H
	DB	06fH
	DB	09H
	DB	0cH
	DB	09H
	DB	09H
	DB	09H
	DB	09H
	DB	09H
	DB	09H
	DB	09H
	DB	09H
	DB	09H
	DB	09H
	DB	09H
	DB	09H
	DB	09H
	DB	09H
	DB	09H
	DB	09H
	DB	09H
	DB	09H
	DB	09H
	DB	09H
	DB	09H
	DB	09H
	DB	09H
	DB	09H
	DB	09H
	DB	09H
	DB	09H
	DB	09H
	DB	09H
	DB	09H
	DB	09H
	DB	09H
	DB	09H
	DB	09H
	DB	09H
	DB	09H
	DB	09H
	DB	09H
	DB	09H
	DB	09H
	DB	09H
	DB	09H
	DB	09H
	DB	09H
	DB	09H
	DB	09H
	DB	09H
	DB	09H
	DB	09H
	DB	0cH
	DB	080H
	DB	0a7H
	DB	00H
	DB	00H
	DB	00H
	DB	00H
	DB	00H
	DB	00H
	DB	00H
	DB	00H
	DB	00H
	DB	00H
	DB	00H
	DB	00H
	DB	00H
	DB	028H
	DB	01eH
	DB	0cH
	DB	0cH
	DB	0cH
	DB	0cH
	DB	0cH
	DB	0cH
	DB	0cH
	DB	0cH
	DB	0cH
	DB	0cH
	DB	0cH
	DB	0cH
	DB	0cH
	DB	0cH
	DB	0cH
	DB	0cH
	DB	0cH
	DB	0cH
	DB	0cH
	DB	0cH
	DB	0cH
	DB	0cH
	DB	0cH
	DB	0cH
	DB	0cH
	DB	0cH
	DB	0cH
	DB	0cH
	DB	0cH
	DB	0cH
	DB	0cH
	DB	0cH
	DB	0cH
	DB	0cH
	DB	0cH
	DB	0cH
	DB	0cH
	DB	0cH
	DB	0cH
	DB	0cH
	DB	0cH
	DB	0cH
	DB	09H
	DB	09bH
	DB	0f8H
	DB	0f8H
	DB	028H
	DB	0d5H
	DB	01dH
	DB	019H
	DB	019H
	DB	019H
	DB	019H
	DB	012H
	DB	012H
	DB	012H
	DB	012H
	DB	012H
	DB	012H
	DB	012H
	DB	012H
	DB	012H
	DB	012H
	DB	012H
	DB	012H
	DB	012H
	DB	012H
	DB	012H
	DB	012H
	DB	012H
	DB	012H
	DB	012H
	DB	012H
	DB	012H
	DB	012H
	DB	012H
	DB	012H
	DB	012H
	DB	012H
	DB	012H
	DB	012H
	DB	012H
	DB	012H
	DB	012H
	DB	012H
	DB	012H
	DB	012H
	DB	012H
	DB	012H
	DB	012H
	DB	012H
	DB	012H
	DB	012H
	DB	012H
	DB	012H
	DB	012H
	DB	012H
	DB	012H
	DB	012H
	DB	012H
	DB	012H
	DB	012H
	DB	019H
	DB	019H
	DB	019H
	DB	019H
	DB	01dH
	DB	0d8H
	DB	06H
	DB	015H
	DB	0f8H
	DB	09H
	DB	0cH
	DB	0cH
	DB	0cH
	DB	0cH
	DB	0cH
	DB	0cH
	DB	0cH
	DB	0cH
	DB	0cH
	DB	0cH
	DB	0cH
	DB	0cH
	DB	0cH
	DB	0cH
	DB	0cH
	DB	0cH
	DB	0cH
	DB	0cH
	DB	0cH
	DB	0cH
	DB	0cH
	DB	0cH
	DB	0cH
	DB	0cH
	DB	0cH
	DB	0cH
	DB	0cH
	DB	0cH
	DB	0cH
	DB	0cH
	DB	0cH
	DB	0cH
	DB	0cH
	DB	0cH
	DB	0cH
	DB	0cH
	DB	0cH
	DB	0cH
	DB	0cH
	DB	0cH
	DB	0cH
	DB	0cH
	DB	0cH
	DB	0cH
	DB	0cH
	DB	0cH
	DB	0cH
	DB	0cH
	DB	0faH
	DB	013H
	DB	0a7H
	DB	00H
	DB	00H
	DB	00H
	DB	00H
	DB	00H
	DB	00H
	DB	00H
	DB	00H
	DB	00H
	DB	00H
	DB	00H
	DB	00H
	DB	00H
	DB	08H
	DB	0fbH
	DB	0faH
	DB	0faH
	DB	0faH
	DB	0faH
	DB	0faH
	DB	0faH
	DB	0faH
	DB	0faH
	DB	0faH
	DB	0faH
	DB	0faH
	DB	0faH
	DB	0faH
	DB	0faH
	DB	0faH
	DB	0faH
	DB	0faH
	DB	0faH
	DB	0faH
	DB	0faH
	DB	0faH
	DB	0faH
	DB	0faH
	DB	0faH
	DB	0faH
	DB	0faH
	DB	0faH
	DB	0faH
	DB	0faH
	DB	0faH
	DB	0faH
	DB	0faH
	DB	0faH
	DB	0faH
	DB	0faH
	DB	0faH
	DB	0faH
	DB	0faH
	DB	0faH
	DB	0faH
	DB	0faH
	DB	0cH
	DB	09bH
	DB	014H
	DB	09aH
	DB	080H
	DB	016H
	DB	016H
	DB	024H
	DB	05H
	DB	05H
	DB	05H
	DB	06fH
	DB	06fH
	DB	06fH
	DB	06fH
	DB	06fH
	DB	07H
	DB	07H
	DB	07H
	DB	07H
	DB	07H
	DB	07H
	DB	07H
	DB	07H
	DB	07H
	DB	07H
	DB	07H
	DB	07H
	DB	07H
	DB	07H
	DB	07H
	DB	07H
	DB	07H
	DB	07H
	DB	07H
	DB	07H
	DB	07H
	DB	07H
	DB	07H
	DB	07H
	DB	07H
	DB	07H
	DB	07H
	DB	07H
	DB	07H
	DB	07H
	DB	07H
	DB	07H
	DB	07H
	DB	07H
	DB	07H
	DB	07H
	DB	07H
	DB	07H
	DB	07H
	DB	07H
	DB	06fH
	DB	06fH
	DB	06fH
	DB	06fH
	DB	06fH
	DB	05H
	DB	05H
	DB	05H
	DB	05H
	DB	024H
	DB	016H
	DB	016H
	DB	013H
	DB	029H
	DB	06H
	DB	09H
	DB	0faH
	DB	0faH
	DB	0faH
	DB	0faH
	DB	0faH
	DB	0faH
	DB	0faH
	DB	0faH
	DB	0faH
	DB	0faH
	DB	0faH
	DB	0faH
	DB	0faH
	DB	0faH
	DB	0faH
	DB	0faH
	DB	0faH
	DB	0faH
	DB	0faH
	DB	0faH
	DB	0faH
	DB	0faH
	DB	0faH
	DB	0faH
	DB	0faH
	DB	0faH
	DB	0faH
	DB	0faH
	DB	0faH
	DB	0faH
	DB	0faH
	DB	0faH
	DB	0faH
	DB	0faH
	DB	0faH
	DB	0faH
	DB	0faH
	DB	0faH
	DB	0faH
	DB	0faH
	DB	0faH
	DB	0faH
	DB	0faH
	DB	0faH
	DB	0faH
	DB	0faH
	DB	0faH
	DB	01eH
	DB	027H
	DB	0a7H
	DB	00H
	DB	00H
	DB	00H
	DB	00H
	DB	00H
	DB	00H
	DB	00H
	DB	00H
	DB	00H
	DB	00H
	DB	00H
	DB	00H
	DB	00H
	DB	0f6H
	DB	022H
	DB	0faH
	DB	0faH
	DB	0faH
	DB	0faH
	DB	0faH
	DB	0faH
	DB	0faH
	DB	0faH
	DB	0faH
	DB	0faH
	DB	0faH
	DB	0faH
	DB	0faH
	DB	0faH
	DB	0faH
	DB	0faH
	DB	0faH
	DB	0faH
	DB	0faH
	DB	0faH
	DB	0faH
	DB	0faH
	DB	0faH
	DB	0faH
	DB	0faH
	DB	0faH
	DB	0faH
	DB	0faH
	DB	0faH
	DB	0faH
	DB	0faH
	DB	0faH
	DB	0faH
	DB	0faH
	DB	0faH
	DB	0faH
	DB	0faH
	DB	0faH
	DB	0faH
	DB	0faH
	DB	0faH
	DB	0faH
	DB	09bH
	DB	014H
	DB	027H
	DB	018H
	DB	03H
	DB	026H
	DB	018H
	DB	080H
	DB	018H
	DB	018H
	DB	018H
	DB	0edH
	DB	026H
	DB	026H
	DB	026H
	DB	026H
	DB	026H
	DB	026H
	DB	026H
	DB	026H
	DB	026H
	DB	026H
	DB	026H
	DB	03H
	DB	026H
	DB	03H
	DB	03H
	DB	03H
	DB	03H
	DB	03H
	DB	03H
	DB	03H
	DB	03H
	DB	03H
	DB	03H
	DB	03H
	DB	03H
	DB	03H
	DB	03H
	DB	03H
	DB	03H
	DB	03H
	DB	03H
	DB	03H
	DB	03H
	DB	03H
	DB	026H
	DB	026H
	DB	026H
	DB	026H
	DB	026H
	DB	026H
	DB	026H
	DB	026H
	DB	026H
	DB	026H
	DB	0edH
	DB	0edH
	DB	026H
	DB	0edH
	DB	018H
	DB	018H
	DB	080H
	DB	013H
	DB	080H
	DB	0edH
	DB	026H
	DB	080H
	DB	029H
	DB	0f8H
	DB	0cH
	DB	0faH
	DB	0faH
	DB	0faH
	DB	0faH
	DB	0faH
	DB	0faH
	DB	0faH
	DB	0faH
	DB	0faH
	DB	0faH
	DB	0faH
	DB	0faH
	DB	0faH
	DB	0faH
	DB	0faH
	DB	0faH
	DB	0faH
	DB	0faH
	DB	0faH
	DB	0faH
	DB	0faH
	DB	0faH
	DB	0faH
	DB	0faH
	DB	0faH
	DB	0faH
	DB	0faH
	DB	0faH
	DB	0faH
	DB	0faH
	DB	0faH
	DB	0faH
	DB	0faH
	DB	0faH
	DB	0faH
	DB	0faH
	DB	0faH
	DB	0faH
	DB	0faH
	DB	0faH
	DB	0faH
	DB	0faH
	DB	0faH
	DB	0faH
	DB	0faH
	DB	0faH
	DB	0faH
	DB	01eH
	DB	016H
	DB	01fH
	DB	00H
	DB	00H
	DB	00H
	DB	00H
	DB	00H
	DB	00H
	DB	00H
	DB	00H
	DB	00H
	DB	00H
	DB	00H
	DB	00H
	DB	00H
	DB	06H
	DB	0fcH
	DB	02H
	DB	02H
	DB	02H
	DB	02H
	DB	02H
	DB	02H
	DB	02H
	DB	02H
	DB	02H
	DB	02H
	DB	02H
	DB	02H
	DB	02H
	DB	02H
	DB	02H
	DB	02H
	DB	02H
	DB	02H
	DB	02H
	DB	02H
	DB	02H
	DB	02H
	DB	02H
	DB	02H
	DB	02H
	DB	02H
	DB	02H
	DB	02H
	DB	02H
	DB	02H
	DB	02H
	DB	02H
	DB	02H
	DB	02H
	DB	02H
	DB	02H
	DB	02H
	DB	02H
	DB	02H
	DB	02H
	DB	02H
	DB	02H
	DB	0faH
	DB	09H
	DB	0f8H
	DB	08H
	DB	014H
	DB	0f3H
	DB	029H
	DB	029H
	DB	01aH
	DB	09aH
	DB	027H
	DB	013H
	DB	013H
	DB	013H
	DB	080H
	DB	018H
	DB	026H
	DB	026H
	DB	026H
	DB	026H
	DB	026H
	DB	026H
	DB	026H
	DB	03H
	DB	03H
	DB	025H
	DB	025H
	DB	025H
	DB	025H
	DB	025H
	DB	025H
	DB	025H
	DB	025H
	DB	025H
	DB	025H
	DB	025H
	DB	025H
	DB	025H
	DB	025H
	DB	025H
	DB	025H
	DB	025H
	DB	025H
	DB	025H
	DB	025H
	DB	025H
	DB	03H
	DB	03H
	DB	026H
	DB	026H
	DB	026H
	DB	026H
	DB	026H
	DB	026H
	DB	0edH
	DB	080H
	DB	013H
	DB	013H
	DB	013H
	DB	027H
	DB	016H
	DB	09aH
	DB	01aH
	DB	029H
	DB	0fH
	DB	0f3H
	DB	028H
	DB	06H
	DB	015H
	DB	0cH
	DB	02H
	DB	02H
	DB	02H
	DB	02H
	DB	02H
	DB	02H
	DB	02H
	DB	02H
	DB	02H
	DB	02H
	DB	02H
	DB	02H
	DB	02H
	DB	02H
	DB	02H
	DB	02H
	DB	02H
	DB	02H
	DB	02H
	DB	02H
	DB	02H
	DB	02H
	DB	02H
	DB	02H
	DB	02H
	DB	02H
	DB	02H
	DB	02H
	DB	02H
	DB	02H
	DB	02H
	DB	02H
	DB	02H
	DB	02H
	DB	02H
	DB	02H
	DB	02H
	DB	02H
	DB	02H
	DB	02H
	DB	02H
	DB	02H
	DB	02H
	DB	02H
	DB	02H
	DB	02H
	DB	02H
	DB	02H
	DB	0fbH
	DB	080H
	DB	0a7H
	DB	00H
	DB	00H
	DB	00H
	DB	00H
	DB	00H
	DB	00H
	DB	00H
	DB	00H
	DB	00H
	DB	00H
	DB	00H
	DB	00H
	DB	00H
	DB	025H
	DB	01eH
	DB	0fbH
	DB	022H
	DB	022H
	DB	022H
	DB	022H
	DB	022H
	DB	022H
	DB	022H
	DB	022H
	DB	022H
	DB	022H
	DB	022H
	DB	022H
	DB	022H
	DB	022H
	DB	022H
	DB	022H
	DB	022H
	DB	022H
	DB	022H
	DB	022H
	DB	022H
	DB	022H
	DB	022H
	DB	022H
	DB	022H
	DB	022H
	DB	022H
	DB	022H
	DB	022H
	DB	022H
	DB	022H
	DB	022H
	DB	022H
	DB	022H
	DB	022H
	DB	022H
	DB	022H
	DB	022H
	DB	022H
	DB	022H
	DB	022H
	DB	022H
	DB	022H
	DB	0fbH
	DB	0fbH
	DB	01eH
	DB	01eH
	DB	02H
	DB	0faH
	DB	0faH
	DB	0cH
	DB	09H
	DB	09H
	DB	09bH
	DB	09bH
	DB	015H
	DB	0f8H
	DB	0f8H
	DB	06H
	DB	06H
	DB	06H
	DB	06H
	DB	06H
	DB	06H
	DB	028H
	DB	014H
	DB	014H
	DB	014H
	DB	014H
	DB	014H
	DB	014H
	DB	014H
	DB	014H
	DB	014H
	DB	014H
	DB	014H
	DB	014H
	DB	014H
	DB	014H
	DB	014H
	DB	014H
	DB	014H
	DB	014H
	DB	014H
	DB	014H
	DB	014H
	DB	014H
	DB	014H
	DB	08H
	DB	06H
	DB	06H
	DB	06H
	DB	06H
	DB	06H
	DB	06H
	DB	0f8H
	DB	015H
	DB	09bH
	DB	09bH
	DB	09bH
	DB	09H
	DB	0cH
	DB	0faH
	DB	0faH
	DB	02H
	DB	01eH
	DB	01eH
	DB	0fbH
	DB	0fbH
	DB	022H
	DB	022H
	DB	022H
	DB	022H
	DB	022H
	DB	022H
	DB	022H
	DB	022H
	DB	022H
	DB	022H
	DB	022H
	DB	022H
	DB	022H
	DB	022H
	DB	022H
	DB	022H
	DB	022H
	DB	022H
	DB	022H
	DB	022H
	DB	022H
	DB	022H
	DB	022H
	DB	022H
	DB	022H
	DB	022H
	DB	022H
	DB	022H
	DB	022H
	DB	022H
	DB	022H
	DB	022H
	DB	022H
	DB	022H
	DB	022H
	DB	022H
	DB	022H
	DB	022H
	DB	022H
	DB	022H
	DB	022H
	DB	022H
	DB	022H
	DB	022H
	DB	022H
	DB	022H
	DB	022H
	DB	022H
	DB	022H
	DB	0fcH
	DB	09H
	DB	03fH
	DB	0eH
	DB	00H
	DB	00H
	DB	00H
	DB	00H
	DB	00H
	DB	00H
	DB	00H
	DB	00H
	DB	00H
	DB	00H
	DB	00H
	DB	00H
	DB	00H
	DB	0dH
	DB	010H
	DB	027H
	DB	028H
	DB	08H
	DB	08H
	DB	08H
	DB	08H
	DB	08H
	DB	08H
	DB	08H
	DB	08H
	DB	08H
	DB	08H
	DB	08H
	DB	08H
	DB	08H
	DB	08H
	DB	08H
	DB	08H
	DB	08H
	DB	08H
	DB	08H
	DB	08H
	DB	08H
	DB	08H
	DB	08H
	DB	08H
	DB	08H
	DB	08H
	DB	08H
	DB	08H
	DB	08H
	DB	08H
	DB	08H
	DB	08H
	DB	08H
	DB	08H
	DB	08H
	DB	08H
	DB	08H
	DB	08H
	DB	08H
	DB	08H
	DB	08H
	DB	08H
	DB	08H
	DB	08H
	DB	0f6H
	DB	08H
	DB	08H
	DB	08H
	DB	08H
	DB	08H
	DB	08H
	DB	028H
	DB	028H
	DB	028H
	DB	028H
	DB	014H
	DB	014H
	DB	014H
	DB	014H
	DB	014H
	DB	014H
	DB	014H
	DB	014H
	DB	0f3H
	DB	0fH
	DB	0fH
	DB	0fH
	DB	0fH
	DB	0fH
	DB	0fH
	DB	0fH
	DB	0fH
	DB	0fH
	DB	0fH
	DB	0fH
	DB	0fH
	DB	0fH
	DB	0fH
	DB	0fH
	DB	0fH
	DB	0fH
	DB	0fH
	DB	0fH
	DB	0fH
	DB	0fH
	DB	0fH
	DB	0fH
	DB	0f3H
	DB	014H
	DB	014H
	DB	014H
	DB	014H
	DB	014H
	DB	014H
	DB	014H
	DB	028H
	DB	028H
	DB	028H
	DB	028H
	DB	028H
	DB	08H
	DB	08H
	DB	08H
	DB	08H
	DB	08H
	DB	08H
	DB	08H
	DB	08H
	DB	08H
	DB	08H
	DB	08H
	DB	08H
	DB	08H
	DB	08H
	DB	08H
	DB	08H
	DB	08H
	DB	08H
	DB	08H
	DB	08H
	DB	08H
	DB	08H
	DB	08H
	DB	08H
	DB	08H
	DB	08H
	DB	08H
	DB	08H
	DB	08H
	DB	08H
	DB	08H
	DB	08H
	DB	08H
	DB	08H
	DB	08H
	DB	08H
	DB	08H
	DB	08H
	DB	08H
	DB	08H
	DB	08H
	DB	08H
	DB	08H
	DB	08H
	DB	08H
	DB	08H
	DB	08H
	DB	08H
	DB	08H
	DB	08H
	DB	08H
	DB	08H
	DB	08H
	DB	08H
	DB	08H
	DB	08H
	DB	08H
	DB	027H
	DB	03fH
	DB	01dH
	DB	00H
	DB	00H
	DB	00H
	DB	00H
	DB	00H
	DB	00H
	DB	00H
	DB	00H
	DB	00H
	DB	00H
	DB	00H
	DB	00H
	DB	00H
	DB	00H
	DB	00H
	DB	0a6H
	DB	0dH
	DB	017H
	DB	017H
	DB	017H
	DB	017H
	DB	017H
	DB	017H
	DB	017H
	DB	017H
	DB	017H
	DB	017H
	DB	017H
	DB	017H
	DB	017H
	DB	017H
	DB	017H
	DB	017H
	DB	017H
	DB	017H
	DB	017H
	DB	017H
	DB	017H
	DB	017H
	DB	017H
	DB	017H
	DB	017H
	DB	017H
	DB	017H
	DB	017H
	DB	017H
	DB	017H
	DB	017H
	DB	017H
	DB	017H
	DB	017H
	DB	017H
	DB	017H
	DB	017H
	DB	017H
	DB	017H
	DB	017H
	DB	017H
	DB	017H
	DB	017H
	DB	017H
	DB	017H
	DB	017H
	DB	017H
	DB	017H
	DB	017H
	DB	017H
	DB	017H
	DB	017H
	DB	017H
	DB	017H
	DB	017H
	DB	017H
	DB	017H
	DB	017H
	DB	017H
	DB	017H
	DB	017H
	DB	017H
	DB	017H
	DB	017H
	DB	017H
	DB	017H
	DB	017H
	DB	017H
	DB	017H
	DB	017H
	DB	017H
	DB	017H
	DB	017H
	DB	017H
	DB	017H
	DB	017H
	DB	017H
	DB	017H
	DB	017H
	DB	017H
	DB	017H
	DB	017H
	DB	017H
	DB	017H
	DB	017H
	DB	017H
	DB	017H
	DB	017H
	DB	017H
	DB	017H
	DB	017H
	DB	017H
	DB	017H
	DB	017H
	DB	017H
	DB	017H
	DB	017H
	DB	017H
	DB	017H
	DB	017H
	DB	017H
	DB	017H
	DB	017H
	DB	017H
	DB	017H
	DB	017H
	DB	017H
	DB	017H
	DB	017H
	DB	017H
	DB	017H
	DB	017H
	DB	017H
	DB	017H
	DB	017H
	DB	017H
	DB	017H
	DB	017H
	DB	017H
	DB	017H
	DB	017H
	DB	017H
	DB	017H
	DB	017H
	DB	017H
	DB	017H
	DB	017H
	DB	017H
	DB	017H
	DB	017H
	DB	017H
	DB	017H
	DB	017H
	DB	017H
	DB	017H
	DB	017H
	DB	017H
	DB	017H
	DB	017H
	DB	017H
	DB	017H
	DB	017H
	DB	017H
	DB	017H
	DB	017H
	DB	017H
	DB	017H
	DB	017H
	DB	017H
	DB	017H
	DB	017H
	DB	017H
	DB	017H
	DB	017H
	DB	017H
	DB	017H
	DB	017H
	DB	017H
	DB	0dH
	DB	0a6H
	DB	00H
	DB	00H
	DB	00H
	DB	00H
	DB	00H
	DB	00H
	DB	00H
	DB	00H
	DB	00H
	DB	00H
	DB	00H
	DB	00H
	DB	00H
	DB	00H
	DB	00H
	DB	00H
	DB	00H
	DB	00H
	DB	00H
	DB	00H
	DB	00H
	DB	00H
	DB	00H
	DB	00H
	DB	00H
	DB	00H
	DB	00H
	DB	00H
	DB	00H
	DB	00H
	DB	00H
	DB	00H
	DB	00H
	DB	00H
	DB	00H
	DB	00H
	DB	00H
	DB	00H
	DB	00H
	DB	00H
	DB	00H
	DB	00H
	DB	00H
	DB	00H
	DB	00H
	DB	00H
	DB	00H
	DB	00H
	DB	00H
	DB	00H
	DB	00H
	DB	00H
	DB	00H
	DB	00H
	DB	00H
	DB	00H
	DB	00H
	DB	00H
	DB	00H
	DB	00H
	DB	00H
	DB	00H
	DB	00H
	DB	00H
	DB	00H
	DB	00H
	DB	00H
	DB	00H
	DB	00H
	DB	00H
	DB	00H
	DB	00H
	DB	00H
	DB	00H
	DB	00H
	DB	00H
	DB	00H
	DB	00H
	DB	00H
	DB	00H
	DB	00H
	DB	00H
	DB	00H
	DB	00H
	DB	00H
	DB	00H
	DB	00H
	DB	00H
	DB	00H
	DB	00H
	DB	00H
	DB	00H
	DB	00H
	DB	00H
	DB	00H
	DB	00H
	DB	00H
	DB	00H
	DB	00H
	DB	00H
	DB	00H
	DB	00H
	DB	00H
	DB	00H
	DB	00H
	DB	00H
	DB	00H
	DB	00H
	DB	00H
	DB	00H
	DB	00H
	DB	00H
	DB	00H
	DB	00H
	DB	00H
	DB	00H
	DB	00H
	DB	00H
	DB	00H
	DB	00H
	DB	00H
	DB	00H
	DB	00H
	DB	00H
	DB	00H
	DB	00H
	DB	00H
	DB	00H
	DB	00H
	DB	00H
	DB	00H
	DB	00H
	DB	00H
	DB	00H
	DB	00H
	DB	00H
	DB	00H
	DB	00H
	DB	00H
	DB	00H
	DB	00H
	DB	00H
	DB	00H
	DB	00H
	DB	00H
	DB	00H
	DB	00H
	DB	00H
	DB	00H
	DB	00H
	DB	00H
	DB	00H
	DB	00H
	DB	00H
	DB	00H
	DB	00H
	DB	00H
	DB	00H
	DB	00H
	DB	00H
	DB	00H
	DB	00H
	DB	00H
	DB	00H
	DB	00H
	DB	00H
	DB	00H
	DB	00H
	DB	00H
	DB	00H
	DB	00H
	DB	00H
	DB	00H
	DB	00H
	DB	00H
	DB	00H
	DB	00H
	DB	00H
	DB	00H
	DB	00H
	DB	00H
	DB	00H
	DB	00H
	DB	00H
	DB	00H
	DB	00H
	DB	00H
	DB	00H
	DB	00H
	DB	00H
	DB	00H
	DB	00H
	DB	00H
	DB	00H
	DB	00H
	DB	00H
	DB	00H
	DB	00H
	DB	00H
	DB	00H
	DB	00H
	DB	00H
	DB	00H
	DB	00H
	DB	00H
	DB	00H
	DB	00H
	DB	00H
	DB	00H
	DB	00H
	DB	00H
	DB	00H
	DB	00H
	DB	00H
	DB	00H
	DB	00H
	DB	00H
	DB	00H
	DB	00H
	DB	00H
	DB	00H
	DB	00H
	DB	00H
	DB	00H
	DB	00H
	DB	00H
	DB	00H
	DB	00H
	DB	00H
	DB	00H
	DB	00H
	DB	00H
	DB	00H
	DB	00H
	DB	00H
	DB	00H
	DB	00H
	DB	00H
	DB	00H
	DB	00H
	DB	00H
	DB	00H
	DB	00H
	DB	00H
	DB	00H
	DB	00H
	DB	00H
	DB	00H
	DB	00H
	DB	00H
	DB	00H
	DB	00H
	DB	00H
	DB	00H
	DB	00H
	DB	00H
	DB	00H
	DB	00H
	DB	00H
	DB	00H
	DB	00H
	DB	00H
	DB	00H
	DB	00H
	DB	00H
	DB	00H
	DB	00H
	DB	00H
	DB	00H
	DB	00H
	DB	00H
	DB	00H
	DB	00H
	DB	00H
	DB	00H
	DB	00H
	DB	00H
	DB	00H
	DB	00H
	DB	00H
	DB	00H
	DB	00H
	DB	00H
	DB	00H
	DB	00H
	DB	00H
	DB	00H
	DB	00H
	DB	00H
	DB	00H
	DB	00H
	DB	00H
	DB	00H
	DB	00H
	DB	00H
	DB	00H
	DB	00H
	DB	00H
	DB	00H
	DB	00H
	DB	00H
	DB	00H
	DB	00H
	DB	00H
	DB	00H
	DB	00H
	DB	00H
	DB	00H
	DB	00H
	DB	00H
	DB	00H
	DB	00H
	DB	00H
	DB	00H
	DB	00H
	DB	00H
	DB	00H
	DB	00H
	DB	00H
	DB	00H
	DB	00H
	DB	00H
	DB	00H
	DB	00H
	DB	00H
	DB	00H
	DB	00H
	DB	00H
	DB	00H
	DB	00H
	DB	00H
	DB	00H
	DB	00H
	DB	00H
	DB	00H
	DB	00H
	DB	00H
	DB	00H
	DB	00H
	DB	00H
	DB	00H
	DB	00H
	DB	00H
	DB	00H
	DB	00H
	DB	00H
	DB	00H
	DB	00H
	DB	00H
	DB	00H
	DB	00H
	DB	00H
	DB	00H
	DB	00H
	DB	00H
	DB	00H
	DB	00H
	DB	00H
	DB	00H
	DB	00H
	DB	00H
	DB	00H
	DB	00H
	DB	00H
	DB	00H
	DB	00H
	DB	00H
	DB	00H
	DB	00H
	DB	00H
	DB	00H
	DB	00H
	DB	00H
	DB	00H
	DB	00H
	DB	00H
	DB	00H
	DB	00H
	DB	00H
	DB	00H
	DB	00H
	DB	00H
	DB	00H
	DB	00H
	DB	00H
	DB	00H
	DB	00H
	DB	00H
	DB	00H
	DB	00H
	DB	00H
	DB	00H
	DB	00H
	DB	00H
	DB	00H
	DB	00H
	DB	00H
	DB	00H
	DB	00H
	DB	00H
	DB	00H
	DB	00H
	DB	00H
	DB	00H
	DB	00H
	DB	00H
	DB	00H
	DB	00H
	DB	00H
	DB	00H
	DB	00H
	DB	00H
	DB	00H
	DB	00H
	DB	00H
	DB	00H
	DB	00H
	DB	00H
	DB	00H
	DB	00H
	DB	00H
	DB	00H
	DB	00H
	DB	00H
	DB	00H
	DB	00H
	DB	00H
	DB	00H
	DB	00H
	DB	00H
	DB	00H
	DB	00H
	DB	00H
	DB	00H
	DB	00H
	DB	00H
	DB	00H
	DB	00H
	DB	00H
	DB	00H
	DB	00H
	DB	00H
	DB	00H
	DB	00H
	DB	00H
	DB	00H
	DB	00H
	DB	00H
	DB	00H
	DB	00H
	DB	00H
	DB	00H
	DB	00H
	DB	00H
	DB	00H
	DB	00H
	DB	00H
	DB	00H
	DB	00H
	DB	00H
	DB	00H
	DB	00H
	DB	00H
	DB	00H
	DB	00H
	DB	00H
	DB	00H
	DB	00H
	DB	00H
	DB	00H
	DB	00H
	DB	00H
	DB	00H
	DB	00H
	DB	00H
	DB	00H
	DB	00H
	DB	00H
	DB	00H
	DB	00H
	DB	00H
	DB	00H
	DB	00H
	DB	00H
	DB	00H
	DB	00H
	DB	00H
	DB	00H
	DB	00H
	DB	00H
	DB	00H
	DB	00H
	DB	00H
	DB	00H
	DB	00H
	DB	00H
	DB	00H
	DB	00H
	DB	00H
	DB	00H
	DB	00H
	DB	00H
	DB	00H
	DB	00H
	DB	00H
	DB	00H
	DB	00H
	DB	00H
	DB	00H
	DB	00H
	DB	00H
	DB	00H
	DB	00H
	DB	00H
	DB	00H
	DB	00H
	DB	00H
	DB	00H
	DB	00H
	DB	00H
	DB	00H
	DB	00H
	DB	00H
	DB	00H
	DB	00H
	DB	00H
	DB	00H
	DB	00H
	DB	00H
	DB	00H
	DB	00H
	DB	00H
	DB	00H
	DB	00H
	DB	00H
	DB	00H
	DB	00H
	DB	00H
	DB	00H
	DB	00H
	DB	00H
	DB	00H
	DB	00H
	DB	00H
	DB	00H
	DB	00H
	DB	00H
	DB	00H
	DB	00H
	DB	00H
	DB	00H
	DB	00H
	DB	00H
	DB	00H
	DB	00H
	DB	00H
	DB	00H
	DB	00H
	DB	00H
	DB	00H
	DB	00H
	DB	00H
	DB	00H
	DB	00H
	DB	00H
	DB	00H
	DB	00H
	DB	00H
	DB	00H
	DB	00H
	DB	00H
	DB	00H
	DB	00H
	DB	00H
	DB	00H
	DB	00H
	DB	00H
	DB	00H
	DB	00H
	DB	00H
	DB	00H
	DB	00H
	DB	00H
	DB	00H
	DB	00H
	DB	00H
	DB	00H
	DB	00H
	DB	00H
	DB	00H
	DB	00H
	DB	00H
	DB	00H
	DB	00H
	DB	00H
	DB	00H
	DB	00H
	DB	00H
	DB	00H
	DB	00H
	DB	00H
	DB	00H
	DB	00H
	DB	00H
	DB	00H
	DB	00H
	DB	00H
	DB	00H
	DB	00H
	DB	00H
	DB	00H
	DB	00H
	DB	00H
	DB	00H
	DB	00H
	DB	00H
	DB	00H
	DB	00H
	DB	00H
	DB	00H
	DB	00H
	DB	00H
	DB	00H
	DB	00H
	DB	00H
	DB	00H
	DB	00H
	DB	00H
	DB	00H
	DB	00H
	DB	00H
	DB	00H
	DB	00H
	DB	00H
	DB	00H
	DB	00H
	DB	00H
	DB	00H
	DB	00H
	DB	00H
	DB	00H
	DB	00H
	DB	00H
	DB	00H
	DB	00H
	DB	00H
	DB	00H
	DB	00H
	DB	00H
	DB	00H
	DB	00H
	DB	00H
	DB	00H
	DB	00H
	DB	00H
	DB	00H
	DB	00H
	DB	00H
	DB	00H
	DB	00H
	DB	00H
	DB	00H
	DB	00H
	DB	00H
	DB	00H
	DB	00H
	DB	00H
	DB	00H
	DB	00H
	DB	00H
	DB	00H
	DB	00H
	DB	00H
	DB	00H
	DB	00H
	DB	00H
	DB	00H
	DB	00H
	DB	00H
	DB	00H
	DB	00H
	DB	00H
	DB	00H
	DB	00H
	DB	00H
	DB	00H
	DB	00H
	DB	00H
	DB	00H
	DB	00H
	DB	00H
	DB	00H
	DB	00H
	DB	00H
	DB	00H
	DB	00H
	DB	00H
	DB	00H
	DB	00H
	DB	00H
	DB	00H
	DB	00H
	DB	00H
	DB	00H
	DB	00H
	DB	00H
	DB	00H
	DB	00H
	DB	00H
	DB	00H
	DB	00H
	DB	00H
	DB	00H
	DB	00H
	DB	00H
	DB	00H
	DB	00H
	DB	00H
	DB	00H
	DB	00H
	DB	00H
	DB	00H
	DB	00H
	DB	00H
	DB	00H
	DB	00H
	DB	00H
	DB	00H
	DB	00H
	DB	00H
	DB	00H
	DB	00H
	DB	00H
	DB	00H
	DB	00H
	DB	00H
	DB	00H
	DB	00H
	DB	00H
	DB	00H
	DB	00H
	DB	00H
	DB	00H
	DB	00H
	DB	00H
	DB	00H
	DB	00H
	DB	00H
	DB	00H
	DB	00H
	DB	00H
	DB	00H
	DB	00H
	DB	00H
	DB	00H
	DB	00H
	DB	00H
	DB	00H
	DB	00H
	DB	00H
	DB	00H
	DB	00H
	DB	00H
	DB	00H
	DB	00H
	DB	00H
	DB	00H
	DB	00H
	DB	00H
	DB	00H
	DB	00H
	DB	00H
	DB	00H
	DB	00H
	DB	00H
	DB	00H
	DB	00H
	DB	00H
	DB	00H
	DB	00H
	DB	00H
	DB	00H
	DB	00H
	DB	00H
	DB	00H
	DB	00H
	DB	00H
	DB	00H
	DB	00H
	DB	00H
	DB	00H
	DB	00H
	DB	00H
	DB	00H
	DB	00H
	DB	00H
	DB	00H
	DB	00H
	DB	00H
	DB	00H
	DB	00H
	DB	00H
	DB	00H
	DB	00H
	DB	00H
	DB	00H
	DB	00H
	DB	00H
	DB	00H
	DB	00H
	DB	00H
	DB	00H
	DB	00H
	DB	00H
	DB	00H
	DB	00H
	DB	00H
	DB	00H
	DB	00H
	DB	00H
	DB	00H
	DB	00H
	DB	00H
	DB	00H
	DB	00H
	DB	00H
	DB	00H
	DB	00H
	DB	00H
	DB	00H
	DB	00H
	DB	00H
	DB	00H
	DB	00H
	DB	00H
	DB	00H
	DB	00H
	DB	00H
	DB	00H
	DB	00H
	DB	00H
	DB	00H
	DB	00H
	DB	00H
	DB	00H
	DB	00H
	DB	00H
	DB	00H
	DB	00H
	DB	00H
	DB	00H
	DB	00H
	DB	00H
	DB	00H
	DB	00H
	DB	00H
	DB	00H
	DB	00H
	DB	00H
	DB	00H
	DB	00H
	DB	00H
	DB	00H
	DB	00H
	DB	00H
	DB	00H
	DB	00H
	DB	00H
	DB	00H
	DB	00H
	DB	00H
	DB	00H
	DB	00H
	DB	00H
	DB	00H
	DB	00H
	DB	00H
	DB	00H
	DB	00H
	DB	00H
	DB	00H
	DB	00H
	DB	00H
	DB	00H
	DB	00H
	DB	00H
	DB	00H
	DB	00H
	DB	00H
	DB	00H
	DB	00H
	DB	00H
	DB	00H
	DB	00H
	DB	00H
	DB	00H
	DB	00H
	DB	00H
	DB	00H
	DB	00H
	DB	00H
	DB	00H
	DB	00H
	DB	00H
	DB	00H
	DB	00H
	DB	00H
	DB	00H
	DB	00H
	DB	00H
	DB	00H
	DB	00H
	DB	00H
	DB	00H
	DB	00H
	DB	00H
	DB	00H
	DB	00H
	DB	00H
	DB	00H
	DB	00H
	DB	00H
	DB	00H
	DB	00H
	DB	00H
	DB	00H
	DB	00H
	DB	00H
	DB	00H
	DB	00H
	DB	00H
	DB	00H
	DB	00H
	DB	00H
	DB	00H
	DB	00H
	DB	00H
	DB	00H
	DB	00H
	DB	00H
	DB	00H
	DB	00H
	DB	00H
	DB	00H
	DB	00H
	DB	00H
	DB	00H
	DB	00H
	DB	00H
	DB	00H
	DB	00H
	DB	00H
	DB	00H
	DB	00H
	DB	00H
	DB	00H
	DB	00H
	DB	00H
	DB	00H
	DB	00H
	DB	00H
	DB	00H
	DB	00H
	DB	00H
	DB	00H
	DB	00H
	DB	00H
	DB	00H
	DB	00H
	DB	00H
	DB	00H
	DB	00H
	DB	00H
	DB	00H
	DB	00H
	DB	00H
	DB	00H
	DB	00H
	DB	00H
	DB	00H
	DB	00H
	DB	00H
	DB	00H
	DB	00H
	DB	00H
	DB	00H
	DB	00H
	DB	00H
	DB	00H
	DB	00H
	DB	00H
	DB	00H
	DB	00H
	DB	00H
	DB	00H
	DB	00H
	DB	00H
	DB	00H
	DB	00H
	DB	00H
	DB	00H
	DB	00H
	DB	00H
	DB	00H
	DB	00H
	DB	00H
	DB	00H
	DB	00H
	DB	00H
	DB	00H
	DB	00H
	DB	00H
	DB	00H
	DB	00H
	DB	00H
	DB	00H
	DB	00H
	DB	00H
	DB	00H
	DB	00H
	DB	00H
	DB	00H
	DB	00H
	DB	00H
	DB	00H
	DB	00H
	DB	00H
	DB	00H
	DB	00H
	DB	00H
	DB	00H
	DB	00H
	DB	00H
	DB	00H
	DB	00H
	DB	00H
	DB	00H
	DB	00H
	DB	00H
	DB	00H
	DB	00H
	DB	00H
	DB	00H
	DB	00H
	DB	00H
	DB	00H
	DB	00H
	DB	00H
	DB	00H
	DB	00H
	DB	00H
	DB	00H
	DB	00H
	DB	00H
	DB	00H
	DB	00H
	DB	00H
	DB	00H
	DB	00H
	DB	00H
	DB	00H
	DB	00H
	DB	00H
	DB	00H
	DB	00H
	DB	00H
	DB	00H
	DB	00H
	DB	00H
	DB	00H
	DB	00H
	DB	00H
	DB	00H
	DB	00H
	DB	00H
	DB	00H
	DB	00H
	DB	00H
	DB	00H
	DB	00H
	DB	00H
	DB	00H
	DB	00H
	DB	00H
	DB	00H
	DB	00H
	DB	00H
	DB	00H
	DB	00H
	DB	01cH
	DB	019H
	DB	019H
	DB	019H
	DB	019H
	DB	019H
	DB	019H
	DB	019H
	DB	019H
	DB	020H
	DB	00H
	DB	00H
	DB	00H
	DB	00H
	DB	00H
	DB	00H
	DB	00H
	DB	00H
	DB	00H
	DB	00H
	DB	00H
	DB	00H
	DB	00H
	DB	00H
	DB	00H
	DB	00H
	DB	00H
	DB	00H
	DB	00H
	DB	00H
	DB	00H
	DB	00H
	DB	00H
	DB	00H
	DB	00H
	DB	00H
	DB	00H
	DB	00H
	DB	00H
	DB	00H
	DB	00H
	DB	00H
	DB	00H
	DB	00H
	DB	00H
	DB	00H
	DB	00H
	DB	00H
	DB	00H
	DB	00H
	DB	00H
	DB	00H
	DB	00H
	DB	00H
	DB	00H
	DB	00H
	DB	00H
	DB	00H
	DB	00H
	DB	00H
	DB	00H
	DB	00H
	DB	00H
	DB	00H
	DB	00H
	DB	00H
	DB	00H
	DB	00H
	DB	00H
	DB	00H
	DB	00H
	DB	00H
	DB	00H
	DB	00H
	DB	00H
	DB	00H
	DB	00H
	DB	00H
	DB	00H
	DB	00H
	DB	0eH
	DB	019H
	DB	019H
	DB	012H
	DB	020H
	DB	00H
	DB	00H
	DB	00H
	DB	020H
	DB	019H
	DB	019H
	DB	019H
	DB	019H
	DB	019H
	DB	012H
	DB	09eH
	DB	00H
	DB	00H
	DB	00H
	DB	00H
	DB	00H
	DB	00H
	DB	00H
	DB	00H
	DB	00H
	DB	00H
	DB	00H
	DB	00H
	DB	00H
	DB	00H
	DB	00H
	DB	0eH
	DB	019H
	DB	019H
	DB	012H
	DB	020H
	DB	00H
	DB	00H
	DB	00H
	DB	00H
	DB	00H
	DB	00H
	DB	00H
	DB	00H
	DB	00H
	DB	00H
	DB	00H
	DB	00H
	DB	00H
	DB	00H
	DB	00H
	DB	00H
	DB	00H
	DB	00H
	DB	00H
	DB	00H
	DB	00H
	DB	00H
	DB	00H
	DB	00H
	DB	00H
	DB	00H
	DB	00H
	DB	00H
	DB	00H
	DB	00H
	DB	0eH
	DB	019H
	DB	019H
	DB	0eH
	DB	00H
	DB	00H
	DB	00H
	DB	00H
	DB	00H
	DB	00H
	DB	00H
	DB	00H
	DB	00H
	DB	00H
	DB	00H
	DB	00H
	DB	00H
	DB	00H
	DB	00H
	DB	00H
	DB	00H
	DB	00H
	DB	00H
	DB	00H
	DB	00H
	DB	00H
	DB	00H
	DB	00H
	DB	00H
	DB	00H
	DB	00H
	DB	00H
	DB	08H
	DB	01H
	DB	01H
	DB	01H
	DB	01H
	DB	01H
	DB	01H
	DB	01H
	DB	01H
	DB	03cH
	DB	00H
	DB	00H
	DB	00H
	DB	00H
	DB	00H
	DB	00H
	DB	00H
	DB	00H
	DB	00H
	DB	00H
	DB	00H
	DB	00H
	DB	00H
	DB	00H
	DB	00H
	DB	00H
	DB	00H
	DB	00H
	DB	00H
	DB	00H
	DB	00H
	DB	00H
	DB	00H
	DB	00H
	DB	00H
	DB	00H
	DB	00H
	DB	00H
	DB	00H
	DB	00H
	DB	00H
	DB	00H
	DB	00H
	DB	00H
	DB	00H
	DB	00H
	DB	00H
	DB	00H
	DB	00H
	DB	00H
	DB	00H
	DB	00H
	DB	00H
	DB	00H
	DB	00H
	DB	00H
	DB	00H
	DB	00H
	DB	00H
	DB	00H
	DB	00H
	DB	00H
	DB	00H
	DB	00H
	DB	00H
	DB	00H
	DB	02eH
	DB	041H
	DB	00H
	DB	00H
	DB	00H
	DB	00H
	DB	00H
	DB	00H
	DB	00H
	DB	00H
	DB	00H
	DB	00H
	DB	0cbH
	DB	027H
	DB	01bH
	DB	01H
	DB	01H
	DB	039H
	DB	0fbH
	DB	06fH
	DB	00H
	DB	00H
	DB	030H
	DB	01H
	DB	01H
	DB	01H
	DB	01H
	DB	01H
	DB	02aH
	DB	0cH
	DB	02dH
	DB	012H
	DB	00H
	DB	00H
	DB	00H
	DB	00H
	DB	00H
	DB	00H
	DB	00H
	DB	00H
	DB	00H
	DB	00H
	DB	00H
	DB	0dH
	DB	025H
	DB	022H
	DB	01H
	DB	01H
	DB	02aH
	DB	0fbH
	DB	03cH
	DB	00H
	DB	00H
	DB	00H
	DB	00H
	DB	00H
	DB	00H
	DB	00H
	DB	00H
	DB	00H
	DB	00H
	DB	00H
	DB	00H
	DB	00H
	DB	00H
	DB	00H
	DB	00H
	DB	00H
	DB	00H
	DB	00H
	DB	00H
	DB	00H
	DB	00H
	DB	00H
	DB	00H
	DB	00H
	DB	00H
	DB	00H
	DB	00H
	DB	00H
	DB	011H
	DB	01H
	DB	01H
	DB	025H
	DB	00H
	DB	00H
	DB	00H
	DB	00H
	DB	00H
	DB	00H
	DB	00H
	DB	00H
	DB	00H
	DB	00H
	DB	00H
	DB	00H
	DB	00H
	DB	00H
	DB	00H
	DB	00H
	DB	00H
	DB	00H
	DB	00H
	DB	00H
	DB	00H
	DB	00H
	DB	00H
	DB	00H
	DB	00H
	DB	00H
	DB	00H
	DB	00H
	DB	06H
	DB	01H
	DB	01H
	DB	01H
	DB	037H
	DB	037H
	DB	037H
	DB	037H
	DB	02aH
	DB	030H
	DB	00H
	DB	00H
	DB	00H
	DB	00H
	DB	00H
	DB	00H
	DB	00H
	DB	00H
	DB	00H
	DB	00H
	DB	00H
	DB	00H
	DB	00H
	DB	00H
	DB	00H
	DB	00H
	DB	00H
	DB	00H
	DB	00H
	DB	00H
	DB	00H
	DB	00H
	DB	00H
	DB	00H
	DB	00H
	DB	00H
	DB	00H
	DB	00H
	DB	00H
	DB	00H
	DB	00H
	DB	00H
	DB	00H
	DB	00H
	DB	00H
	DB	00H
	DB	00H
	DB	00H
	DB	00H
	DB	00H
	DB	00H
	DB	00H
	DB	00H
	DB	00H
	DB	00H
	DB	00H
	DB	00H
	DB	00H
	DB	00H
	DB	00H
	DB	00H
	DB	00H
	DB	00H
	DB	00H
	DB	012H
	DB	024H
	DB	01H
	DB	011H
	DB	00H
	DB	00H
	DB	00H
	DB	00H
	DB	00H
	DB	00H
	DB	00H
	DB	00H
	DB	00H
	DB	03fH
	DB	01H
	DB	01H
	DB	01H
	DB	01H
	DB	01H
	DB	01H
	DB	01H
	DB	08H
	DB	00H
	DB	00H
	DB	0d1H
	DB	01H
	DB	01H
	DB	01H
	DB	039H
	DB	037H
	DB	01H
	DB	01H
	DB	01H
	DB	0cH
	DB	019H
	DB	00H
	DB	00H
	DB	00H
	DB	00H
	DB	00H
	DB	00H
	DB	00H
	DB	00H
	DB	00H
	DB	031H
	DB	039H
	DB	01H
	DB	01H
	DB	01H
	DB	01H
	DB	01H
	DB	01H
	DB	04H
	DB	00H
	DB	00H
	DB	00H
	DB	00H
	DB	00H
	DB	00H
	DB	00H
	DB	00H
	DB	00H
	DB	00H
	DB	00H
	DB	00H
	DB	00H
	DB	00H
	DB	00H
	DB	00H
	DB	00H
	DB	00H
	DB	00H
	DB	00H
	DB	00H
	DB	00H
	DB	00H
	DB	00H
	DB	00H
	DB	00H
	DB	00H
	DB	00H
	DB	00H
	DB	010H
	DB	01H
	DB	01H
	DB	025H
	DB	00H
	DB	00H
	DB	00H
	DB	00H
	DB	00H
	DB	00H
	DB	00H
	DB	00H
	DB	00H
	DB	00H
	DB	00H
	DB	00H
	DB	00H
	DB	00H
	DB	00H
	DB	00H
	DB	00H
	DB	00H
	DB	00H
	DB	00H
	DB	00H
	DB	00H
	DB	00H
	DB	00H
	DB	00H
	DB	00H
	DB	00H
	DB	00H
	DB	06H
	DB	01H
	DB	01H
	DB	0f6H
	DB	0a6H
	DB	021H
	DB	021H
	DB	021H
	DB	01dH
	DB	0eH
	DB	00H
	DB	00H
	DB	00H
	DB	00H
	DB	00H
	DB	00H
	DB	00H
	DB	00H
	DB	00H
	DB	00H
	DB	00H
	DB	00H
	DB	00H
	DB	00H
	DB	00H
	DB	00H
	DB	00H
	DB	00H
	DB	00H
	DB	00H
	DB	00H
	DB	00H
	DB	00H
	DB	00H
	DB	00H
	DB	00H
	DB	00H
	DB	00H
	DB	00H
	DB	00H
	DB	00H
	DB	00H
	DB	00H
	DB	00H
	DB	00H
	DB	00H
	DB	00H
	DB	00H
	DB	00H
	DB	00H
	DB	00H
	DB	00H
	DB	00H
	DB	00H
	DB	00H
	DB	00H
	DB	00H
	DB	00H
	DB	00H
	DB	00H
	DB	00H
	DB	00H
	DB	00H
	DB	00H
	DB	04H
	DB	01H
	DB	01H
	DB	05H
	DB	00H
	DB	00H
	DB	00H
	DB	00H
	DB	00H
	DB	00H
	DB	00H
	DB	00H
	DB	023H
	DB	01H
	DB	01H
	DB	02aH
	DB	06fH
	DB	023H
	DB	023H
	DB	044H
	DB	05H
	DB	031H
	DB	00H
	DB	00H
	DB	030H
	DB	01H
	DB	01H
	DB	02aH
	DB	0cbH
	DB	012H
	DB	031H
	DB	037H
	DB	01H
	DB	01H
	DB	0f3H
	DB	00H
	DB	00H
	DB	00H
	DB	00H
	DB	00H
	DB	00H
	DB	00H
	DB	00H
	DB	02eH
	DB	02aH
	DB	01H
	DB	01H
	DB	02H
	DB	030H
	DB	023H
	DB	023H
	DB	03dH
	DB	023H
	DB	00H
	DB	00H
	DB	00H
	DB	00H
	DB	00H
	DB	00H
	DB	00H
	DB	00H
	DB	00H
	DB	00H
	DB	00H
	DB	00H
	DB	00H
	DB	00H
	DB	00H
	DB	00H
	DB	00H
	DB	00H
	DB	00H
	DB	00H
	DB	00H
	DB	00H
	DB	00H
	DB	00H
	DB	00H
	DB	00H
	DB	00H
	DB	00H
	DB	00H
	DB	072H
	DB	01H
	DB	01H
	DB	025H
	DB	00H
	DB	00H
	DB	00H
	DB	00H
	DB	00H
	DB	00H
	DB	00H
	DB	00H
	DB	00H
	DB	00H
	DB	00H
	DB	00H
	DB	00H
	DB	00H
	DB	00H
	DB	00H
	DB	00H
	DB	00H
	DB	00H
	DB	00H
	DB	00H
	DB	00H
	DB	00H
	DB	00H
	DB	00H
	DB	00H
	DB	00H
	DB	00H
	DB	06H
	DB	01H
	DB	01H
	DB	029H
	DB	00H
	DB	00H
	DB	00H
	DB	00H
	DB	00H
	DB	00H
	DB	00H
	DB	00H
	DB	00H
	DB	017H
	DB	06fH
	DB	025H
	DB	025H
	DB	0bH
	DB	02eH
	DB	00H
	DB	00H
	DB	00H
	DB	00H
	DB	00H
	DB	0d8H
	DB	05H
	DB	06fH
	DB	019H
	DB	01cH
	DB	03dH
	DB	031H
	DB	00H
	DB	02eH
	DB	02dH
	DB	06fH
	DB	01dH
	DB	00H
	DB	023H
	DB	03fH
	DB	05H
	DB	0cbH
	DB	00H
	DB	00H
	DB	01cH
	DB	031H
	DB	06fH
	DB	03dH
	DB	021H
	DB	00H
	DB	00H
	DB	00H
	DB	00H
	DB	00H
	DB	02bH
	DB	023H
	DB	0d1H
	DB	06fH
	DB	06fH
	DB	030H
	DB	01fH
	DB	00H
	DB	00H
	DB	012H
	DB	0d8H
	DB	0fbH
	DB	01H
	DB	01H
	DB	06H
	DB	07H
	DB	045H
	DB	09eH
	DB	00H
	DB	00H
	DB	00H
	DB	00H
	DB	00H
	DB	06fH
	DB	01H
	DB	01H
	DB	029H
	DB	00H
	DB	00H
	DB	00H
	DB	00H
	DB	00H
	DB	00H
	DB	00H
	DB	00H
	DB	030H
	DB	01H
	DB	01H
	DB	039H
	DB	01dH
	DB	00H
	DB	00H
	DB	0d1H
	DB	01H
	DB	01H
	DB	01H
	DB	02eH
	DB	00H
	DB	00H
	DB	00H
	DB	00H
	DB	00H
	DB	00H
	DB	09eH
	DB	09bH
	DB	01H
	DB	01H
	DB	02H
	DB	01cH
	DB	00H
	DB	00H
	DB	00H
	DB	00H
	DB	00H
	DB	00H
	DB	00H
	DB	00H
	DB	0eH
	DB	02eH
	DB	03cH
	DB	06fH
	DB	07H
	DB	031H
	DB	012H
	DB	00H
	DB	00H
	DB	00H
	DB	00H
	DB	030H
	DB	05H
	DB	02dH
	DB	01dH
	DB	02bH
	DB	038H
	DB	030H
	DB	00H
	DB	00H
	DB	00H
	DB	019H
	DB	03cH
	DB	05H
	DB	030H
	DB	00H
	DB	066H
	DB	01H
	DB	01H
	DB	025H
	DB	00H
	DB	00H
	DB	00H
	DB	00H
	DB	00H
	DB	00H
	DB	00H
	DB	00H
	DB	00H
	DB	00H
	DB	00H
	DB	00H
	DB	00H
	DB	00H
	DB	00H
	DB	00H
	DB	00H
	DB	00H
	DB	00H
	DB	00H
	DB	00H
	DB	00H
	DB	00H
	DB	00H
	DB	00H
	DB	00H
	DB	00H
	DB	00H
	DB	06H
	DB	01H
	DB	01H
	DB	029H
	DB	00H
	DB	00H
	DB	00H
	DB	00H
	DB	00H
	DB	00H
	DB	00H
	DB	02bH
	DB	011H
	DB	02aH
	DB	01H
	DB	01H
	DB	01H
	DB	01H
	DB	01H
	DB	0fH
	DB	012H
	DB	00H
	DB	00H
	DB	02bH
	DB	040H
	DB	01H
	DB	01H
	DB	030H
	DB	0cH
	DB	01H
	DB	016H
	DB	00H
	DB	024H
	DB	01H
	DB	01H
	DB	03fH
	DB	04H
	DB	01H
	DB	01H
	DB	01H
	DB	01H
	DB	02dH
	DB	01dH
	DB	047H
	DB	01H
	DB	01H
	DB	01H
	DB	040H
	DB	023H
	DB	00H
	DB	00H
	DB	00H
	DB	019H
	DB	01eH
	DB	01H
	DB	01H
	DB	01H
	DB	01H
	DB	01H
	DB	039H
	DB	0ceH
	DB	00H
	DB	017H
	DB	01H
	DB	01H
	DB	01H
	DB	01H
	DB	01H
	DB	01H
	DB	047H
	DB	012H
	DB	00H
	DB	00H
	DB	00H
	DB	00H
	DB	00H
	DB	02dH
	DB	01H
	DB	01H
	DB	0fcH
	DB	01cH
	DB	00H
	DB	00H
	DB	00H
	DB	00H
	DB	00H
	DB	00H
	DB	00H
	DB	030H
	DB	01H
	DB	01H
	DB	039H
	DB	0dH
	DB	00H
	DB	00H
	DB	0eH
	DB	0feH
	DB	01H
	DB	01H
	DB	010H
	DB	00H
	DB	00H
	DB	00H
	DB	00H
	DB	00H
	DB	00H
	DB	023H
	DB	01H
	DB	01H
	DB	01H
	DB	0ceH
	DB	00H
	DB	00H
	DB	00H
	DB	00H
	DB	00H
	DB	00H
	DB	00H
	DB	00H
	DB	017H
	DB	0ffH
	DB	01H
	DB	01H
	DB	01H
	DB	01H
	DB	01H
	DB	01bH
	DB	023H
	DB	00H
	DB	00H
	DB	02bH
	DB	09H
	DB	01H
	DB	01H
	DB	045H
	DB	01aH
	DB	01H
	DB	0cH
	DB	00H
	DB	00H
	DB	044H
	DB	040H
	DB	01H
	DB	01H
	DB	01H
	DB	09H
	DB	0fH
	DB	01H
	DB	01H
	DB	025H
	DB	00H
	DB	00H
	DB	00H
	DB	00H
	DB	00H
	DB	00H
	DB	00H
	DB	00H
	DB	00H
	DB	00H
	DB	00H
	DB	00H
	DB	00H
	DB	00H
	DB	00H
	DB	00H
	DB	00H
	DB	00H
	DB	00H
	DB	00H
	DB	00H
	DB	00H
	DB	00H
	DB	00H
	DB	00H
	DB	00H
	DB	00H
	DB	00H
	DB	06H
	DB	01H
	DB	01H
	DB	029H
	DB	00H
	DB	00H
	DB	00H
	DB	00H
	DB	00H
	DB	00H
	DB	00H
	DB	0bH
	DB	01H
	DB	01H
	DB	047H
	DB	03cH
	DB	031H
	DB	06H
	DB	01H
	DB	01H
	DB	0f8H
	DB	02bH
	DB	00H
	DB	02bH
	DB	040H
	DB	01H
	DB	01H
	DB	0fbH
	DB	01H
	DB	01H
	DB	016H
	DB	00H
	DB	024H
	DB	01H
	DB	01H
	DB	02aH
	DB	02aH
	DB	037H
	DB	02aH
	DB	01H
	DB	01H
	DB	02aH
	DB	01bH
	DB	01H
	DB	040H
	DB	01H
	DB	01H
	DB	01H
	DB	0f8H
	DB	02bH
	DB	00H
	DB	00H
	DB	012H
	DB	0f8H
	DB	09aH
	DB	05H
	DB	03fH
	DB	027H
	DB	01H
	DB	01H
	DB	039H
	DB	01fH
	DB	0a6H
	DB	04H
	DB	01bH
	DB	01H
	DB	01H
	DB	02H
	DB	03H
	DB	02dH
	DB	0a0H
	DB	00H
	DB	00H
	DB	00H
	DB	00H
	DB	00H
	DB	031H
	DB	01H
	DB	01H
	DB	01H
	DB	0fbH
	DB	0d8H
	DB	019H
	DB	00H
	DB	00H
	DB	00H
	DB	00H
	DB	00H
	DB	030H
	DB	01H
	DB	01H
	DB	039H
	DB	0dH
	DB	00H
	DB	00H
	DB	00H
	DB	029H
	DB	01H
	DB	01H
	DB	029H
	DB	00H
	DB	00H
	DB	00H
	DB	00H
	DB	00H
	DB	00H
	DB	02dH
	DB	01H
	DB	01H
	DB	0feH
	DB	012H
	DB	00H
	DB	00H
	DB	00H
	DB	00H
	DB	00H
	DB	00H
	DB	00H
	DB	00H
	DB	01dH
	DB	0fcH
	DB	03H
	DB	06fH
	DB	07H
	DB	028H
	DB	01H
	DB	01H
	DB	0fbH
	DB	0eH
	DB	00H
	DB	02bH
	DB	09H
	DB	01H
	DB	01H
	DB	0fbH
	DB	01H
	DB	01H
	DB	09H
	DB	00H
	DB	012H
	DB	01bH
	DB	01H
	DB	01H
	DB	09H
	DB	03H
	DB	0feH
	DB	01H
	DB	01H
	DB	01H
	DB	025H
	DB	00H
	DB	00H
	DB	00H
	DB	00H
	DB	00H
	DB	00H
	DB	00H
	DB	00H
	DB	00H
	DB	00H
	DB	00H
	DB	00H
	DB	00H
	DB	00H
	DB	00H
	DB	00H
	DB	00H
	DB	00H
	DB	00H
	DB	00H
	DB	00H
	DB	00H
	DB	00H
	DB	00H
	DB	00H
	DB	00H
	DB	00H
	DB	00H
	DB	06H
	DB	01H
	DB	01H
	DB	022H
	DB	03dH
	DB	06fH
	DB	05H
	DB	0d8H
	DB	0eH
	DB	00H
	DB	01dH
	DB	02aH
	DB	01H
	DB	02aH
	DB	017H
	DB	00H
	DB	00H
	DB	0eH
	DB	0fbH
	DB	01H
	DB	01H
	DB	0ceH
	DB	00H
	DB	02bH
	DB	040H
	DB	01H
	DB	01H
	DB	01H
	DB	01H
	DB	028H
	DB	0cfH
	DB	00H
	DB	024H
	DB	01H
	DB	01H
	DB	0feH
	DB	044H
	DB	00H
	DB	023H
	DB	037H
	DB	01H
	DB	01H
	DB	0fbH
	DB	017H
	DB	00H
	DB	0d8H
	DB	01H
	DB	01H
	DB	039H
	DB	01dH
	DB	00H
	DB	00H
	DB	00H
	DB	00H
	DB	00H
	DB	00H
	DB	00H
	DB	00H
	DB	029H
	DB	01H
	DB	01H
	DB	03cH
	DB	00H
	DB	00H
	DB	018H
	DB	01H
	DB	01H
	DB	02dH
	DB	00H
	DB	00H
	DB	00H
	DB	00H
	DB	00H
	DB	00H
	DB	00H
	DB	00H
	DB	0eH
	DB	02H
	DB	01H
	DB	01H
	DB	01H
	DB	01H
	DB	02aH
	DB	03H
	DB	01dH
	DB	00H
	DB	00H
	DB	00H
	DB	030H
	DB	01H
	DB	01H
	DB	039H
	DB	0dH
	DB	00H
	DB	00H
	DB	00H
	DB	010H
	DB	01H
	DB	01H
	DB	02H
	DB	0eH
	DB	00H
	DB	00H
	DB	00H
	DB	00H
	DB	00H
	DB	080H
	DB	01H
	DB	01H
	DB	09H
	DB	00H
	DB	00H
	DB	00H
	DB	00H
	DB	00H
	DB	00H
	DB	00H
	DB	00H
	DB	00H
	DB	00H
	DB	00H
	DB	00H
	DB	00H
	DB	00H
	DB	0eH
	DB	01eH
	DB	01H
	DB	01H
	DB	02eH
	DB	00H
	DB	02bH
	DB	09H
	DB	01H
	DB	01H
	DB	01H
	DB	01H
	DB	06H
	DB	0d5H
	DB	00H
	DB	04dH
	DB	01H
	DB	01H
	DB	08H
	DB	02bH
	DB	00H
	DB	01dH
	DB	040H
	DB	01H
	DB	01H
	DB	025H
	DB	00H
	DB	00H
	DB	00H
	DB	00H
	DB	00H
	DB	00H
	DB	00H
	DB	00H
	DB	00H
	DB	00H
	DB	00H
	DB	00H
	DB	00H
	DB	00H
	DB	00H
	DB	00H
	DB	00H
	DB	00H
	DB	00H
	DB	00H
	DB	00H
	DB	00H
	DB	00H
	DB	00H
	DB	00H
	DB	00H
	DB	00H
	DB	00H
	DB	06H
	DB	01H
	DB	01H
	DB	01H
	DB	01H
	DB	01H
	DB	01H
	DB	037H
	DB	01fH
	DB	00H
	DB	0d5H
	DB	01H
	DB	01H
	DB	0f6H
	DB	00H
	DB	00H
	DB	00H
	DB	00H
	DB	02dH
	DB	01H
	DB	01H
	DB	080H
	DB	00H
	DB	02bH
	DB	040H
	DB	01H
	DB	01H
	DB	039H
	DB	0cbH
	DB	00H
	DB	00H
	DB	00H
	DB	024H
	DB	01H
	DB	01H
	DB	024H
	DB	00H
	DB	00H
	DB	00H
	DB	09H
	DB	01H
	DB	01H
	DB	045H
	DB	00H
	DB	00H
	DB	01dH
	DB	037H
	DB	01H
	DB	02aH
	DB	04bH
	DB	00H
	DB	00H
	DB	00H
	DB	02eH
	DB	025H
	DB	06H
	DB	029H
	DB	041H
	DB	013H
	DB	01H
	DB	01H
	DB	0bH
	DB	00H
	DB	00H
	DB	080H
	DB	01H
	DB	01H
	DB	0bH
	DB	00H
	DB	00H
	DB	00H
	DB	00H
	DB	00H
	DB	00H
	DB	00H
	DB	00H
	DB	00H
	DB	0dH
	DB	0cH
	DB	01H
	DB	01H
	DB	01H
	DB	01H
	DB	01H
	DB	0ffH
	DB	023H
	DB	00H
	DB	00H
	DB	030H
	DB	01H
	DB	01H
	DB	039H
	DB	0dH
	DB	00H
	DB	00H
	DB	00H
	DB	010H
	DB	01H
	DB	01H
	DB	02H
	DB	0eH
	DB	00H
	DB	00H
	DB	00H
	DB	00H
	DB	00H
	DB	029H
	DB	01H
	DB	01H
	DB	09bH
	DB	00H
	DB	00H
	DB	00H
	DB	00H
	DB	00H
	DB	00H
	DB	00H
	DB	00H
	DB	00H
	DB	02bH
	DB	031H
	DB	0edH
	DB	0f8H
	DB	080H
	DB	0cbH
	DB	015H
	DB	01H
	DB	01H
	DB	031H
	DB	00H
	DB	02bH
	DB	09H
	DB	01H
	DB	01H
	DB	01H
	DB	0d1H
	DB	00H
	DB	00H
	DB	00H
	DB	014H
	DB	01H
	DB	01H
	DB	03cH
	DB	00H
	DB	00H
	DB	00H
	DB	013H
	DB	01H
	DB	01H
	DB	025H
	DB	00H
	DB	00H
	DB	00H
	DB	00H
	DB	00H
	DB	00H
	DB	00H
	DB	00H
	DB	00H
	DB	00H
	DB	00H
	DB	00H
	DB	00H
	DB	00H
	DB	00H
	DB	00H
	DB	00H
	DB	00H
	DB	00H
	DB	00H
	DB	00H
	DB	00H
	DB	00H
	DB	00H
	DB	00H
	DB	00H
	DB	00H
	DB	00H
	DB	06H
	DB	01H
	DB	01H
	DB	02fH
	DB	04H
	DB	03H
	DB	026H
	DB	010H
	DB	01cH
	DB	00H
	DB	04H
	DB	01H
	DB	01H
	DB	024H
	DB	00H
	DB	00H
	DB	00H
	DB	00H
	DB	0ceH
	DB	01H
	DB	01H
	DB	015H
	DB	00H
	DB	00H
	DB	040H
	DB	01H
	DB	01H
	DB	0bH
	DB	00H
	DB	00H
	DB	00H
	DB	00H
	DB	024H
	DB	01H
	DB	01H
	DB	024H
	DB	00H
	DB	00H
	DB	00H
	DB	09H
	DB	01H
	DB	01H
	DB	030H
	DB	00H
	DB	00H
	DB	01dH
	DB	039H
	DB	01H
	DB	02aH
	DB	01dH
	DB	00H
	DB	00H
	DB	011H
	DB	01H
	DB	01H
	DB	039H
	DB	0cH
	DB	02aH
	DB	02aH
	DB	01H
	DB	01H
	DB	0bH
	DB	00H
	DB	00H
	DB	080H
	DB	01H
	DB	01H
	DB	0bH
	DB	00H
	DB	00H
	DB	00H
	DB	00H
	DB	00H
	DB	00H
	DB	00H
	DB	00H
	DB	00H
	DB	00H
	DB	020H
	DB	0d1H
	DB	09H
	DB	01H
	DB	01H
	DB	01H
	DB	01H
	DB	02H
	DB	020H
	DB	00H
	DB	030H
	DB	01H
	DB	01H
	DB	039H
	DB	0dH
	DB	00H
	DB	00H
	DB	00H
	DB	072H
	DB	01H
	DB	01H
	DB	01eH
	DB	0eH
	DB	00H
	DB	00H
	DB	00H
	DB	00H
	DB	00H
	DB	09aH
	DB	01H
	DB	01H
	DB	09H
	DB	00H
	DB	00H
	DB	00H
	DB	00H
	DB	00H
	DB	00H
	DB	00H
	DB	00H
	DB	0a0H
	DB	01aH
	DB	01H
	DB	01H
	DB	0ffH
	DB	01eH
	DB	02aH
	DB	01H
	DB	01H
	DB	01H
	DB	031H
	DB	00H
	DB	02bH
	DB	09H
	DB	01H
	DB	01H
	DB	03H
	DB	00H
	DB	00H
	DB	00H
	DB	00H
	DB	0fcH
	DB	01H
	DB	01H
	DB	0cbH
	DB	00H
	DB	00H
	DB	00H
	DB	011H
	DB	01H
	DB	01H
	DB	025H
	DB	00H
	DB	00H
	DB	00H
	DB	00H
	DB	00H
	DB	00H
	DB	00H
	DB	00H
	DB	00H
	DB	00H
	DB	00H
	DB	00H
	DB	00H
	DB	00H
	DB	00H
	DB	00H
	DB	00H
	DB	00H
	DB	00H
	DB	00H
	DB	00H
	DB	00H
	DB	00H
	DB	00H
	DB	00H
	DB	00H
	DB	00H
	DB	00H
	DB	06H
	DB	01H
	DB	01H
	DB	029H
	DB	00H
	DB	00H
	DB	00H
	DB	00H
	DB	00H
	DB	00H
	DB	025H
	DB	01H
	DB	01H
	DB	072H
	DB	00H
	DB	00H
	DB	00H
	DB	00H
	DB	031H
	DB	01H
	DB	01H
	DB	09H
	DB	02bH
	DB	00H
	DB	040H
	DB	01H
	DB	01H
	DB	02eH
	DB	00H
	DB	00H
	DB	00H
	DB	00H
	DB	024H
	DB	01H
	DB	01H
	DB	04H
	DB	00H
	DB	00H
	DB	00H
	DB	09H
	DB	01H
	DB	01H
	DB	030H
	DB	00H
	DB	00H
	DB	01dH
	DB	039H
	DB	01H
	DB	02aH
	DB	01dH
	DB	00H
	DB	041H
	DB	01H
	DB	01H
	DB	022H
	DB	019H
	DB	00H
	DB	0dH
	DB	037H
	DB	01H
	DB	01H
	DB	0bH
	DB	00H
	DB	00H
	DB	080H
	DB	01H
	DB	01H
	DB	0bH
	DB	00H
	DB	00H
	DB	00H
	DB	00H
	DB	00H
	DB	00H
	DB	00H
	DB	00H
	DB	00H
	DB	00H
	DB	00H
	DB	00H
	DB	00H
	DB	044H
	DB	02fH
	DB	01H
	DB	01H
	DB	01H
	DB	041H
	DB	00H
	DB	030H
	DB	01H
	DB	01H
	DB	039H
	DB	0dH
	DB	00H
	DB	00H
	DB	00H
	DB	03H
	DB	01H
	DB	01H
	DB	0f8H
	DB	02bH
	DB	00H
	DB	00H
	DB	00H
	DB	00H
	DB	00H
	DB	011H
	DB	01H
	DB	01H
	DB	047H
	DB	01cH
	DB	00H
	DB	00H
	DB	00H
	DB	00H
	DB	00H
	DB	00H
	DB	00H
	DB	02cH
	DB	01H
	DB	01H
	DB	014H
	DB	09eH
	DB	00H
	DB	041H
	DB	01H
	DB	01H
	DB	01H
	DB	031H
	DB	00H
	DB	02bH
	DB	09H
	DB	01H
	DB	01H
	DB	0cfH
	DB	00H
	DB	00H
	DB	00H
	DB	00H
	DB	047H
	DB	01H
	DB	01H
	DB	044H
	DB	00H
	DB	00H
	DB	00H
	DB	011H
	DB	01H
	DB	01H
	DB	025H
	DB	00H
	DB	00H
	DB	00H
	DB	00H
	DB	00H
	DB	00H
	DB	00H
	DB	00H
	DB	00H
	DB	00H
	DB	00H
	DB	00H
	DB	00H
	DB	00H
	DB	00H
	DB	00H
	DB	00H
	DB	00H
	DB	00H
	DB	00H
	DB	00H
	DB	00H
	DB	00H
	DB	00H
	DB	00H
	DB	00H
	DB	00H
	DB	00H
	DB	06H
	DB	01H
	DB	01H
	DB	029H
	DB	00H
	DB	00H
	DB	00H
	DB	00H
	DB	00H
	DB	00H
	DB	0bH
	DB	01H
	DB	01H
	DB	03H
	DB	00H
	DB	00H
	DB	00H
	DB	00H
	DB	0d1H
	DB	01H
	DB	01H
	DB	08H
	DB	00H
	DB	02bH
	DB	040H
	DB	01H
	DB	01H
	DB	023H
	DB	00H
	DB	00H
	DB	00H
	DB	00H
	DB	024H
	DB	01H
	DB	01H
	DB	04H
	DB	00H
	DB	00H
	DB	00H
	DB	09H
	DB	01H
	DB	01H
	DB	030H
	DB	00H
	DB	00H
	DB	01dH
	DB	039H
	DB	01H
	DB	02aH
	DB	01dH
	DB	00H
	DB	04H
	DB	01H
	DB	01H
	DB	066H
	DB	00H
	DB	00H
	DB	00H
	DB	09aH
	DB	01H
	DB	01H
	DB	0bH
	DB	00H
	DB	00H
	DB	080H
	DB	01H
	DB	01H
	DB	02dH
	DB	00H
	DB	00H
	DB	00H
	DB	00H
	DB	00H
	DB	00H
	DB	00H
	DB	00H
	DB	00H
	DB	00H
	DB	00H
	DB	00H
	DB	00H
	DB	00H
	DB	02eH
	DB	01H
	DB	01H
	DB	01H
	DB	0d1H
	DB	00H
	DB	030H
	DB	01H
	DB	01H
	DB	039H
	DB	0dH
	DB	00H
	DB	00H
	DB	02bH
	DB	06H
	DB	01H
	DB	01H
	DB	026H
	DB	00H
	DB	00H
	DB	00H
	DB	00H
	DB	00H
	DB	00H
	DB	031H
	DB	01H
	DB	01H
	DB	01H
	DB	023H
	DB	00H
	DB	00H
	DB	00H
	DB	00H
	DB	00H
	DB	00H
	DB	00H
	DB	0cH
	DB	01H
	DB	01H
	DB	0ceH
	DB	00H
	DB	00H
	DB	09eH
	DB	0cH
	DB	01H
	DB	01H
	DB	031H
	DB	00H
	DB	02bH
	DB	09H
	DB	01H
	DB	01H
	DB	031H
	DB	00H
	DB	00H
	DB	00H
	DB	00H
	DB	0fbH
	DB	01H
	DB	01H
	DB	031H
	DB	00H
	DB	00H
	DB	00H
	DB	04H
	DB	01H
	DB	01H
	DB	025H
	DB	00H
	DB	00H
	DB	00H
	DB	00H
	DB	00H
	DB	00H
	DB	00H
	DB	00H
	DB	00H
	DB	00H
	DB	00H
	DB	00H
	DB	00H
	DB	00H
	DB	00H
	DB	00H
	DB	00H
	DB	00H
	DB	00H
	DB	00H
	DB	00H
	DB	00H
	DB	00H
	DB	00H
	DB	00H
	DB	00H
	DB	00H
	DB	00H
	DB	06H
	DB	01H
	DB	01H
	DB	029H
	DB	00H
	DB	00H
	DB	00H
	DB	00H
	DB	00H
	DB	00H
	DB	041H
	DB	01H
	DB	01H
	DB	0fbH
	DB	00H
	DB	00H
	DB	00H
	DB	00H
	DB	026H
	DB	01H
	DB	01H
	DB	024H
	DB	00H
	DB	02bH
	DB	040H
	DB	01H
	DB	01H
	DB	023H
	DB	00H
	DB	00H
	DB	00H
	DB	00H
	DB	024H
	DB	01H
	DB	01H
	DB	04H
	DB	00H
	DB	00H
	DB	00H
	DB	09H
	DB	01H
	DB	01H
	DB	030H
	DB	00H
	DB	00H
	DB	01dH
	DB	039H
	DB	01H
	DB	02aH
	DB	01dH
	DB	00H
	DB	016H
	DB	01H
	DB	01H
	DB	0bH
	DB	00H
	DB	00H
	DB	00H
	DB	016H
	DB	01H
	DB	01H
	DB	0bH
	DB	00H
	DB	00H
	DB	080H
	DB	01H
	DB	01H
	DB	02dH
	DB	00H
	DB	00H
	DB	00H
	DB	00H
	DB	00H
	DB	00H
	DB	00H
	DB	00H
	DB	00H
	DB	00H
	DB	00H
	DB	00H
	DB	00H
	DB	00H
	DB	01dH
	DB	02aH
	DB	01H
	DB	01H
	DB	0ceH
	DB	00H
	DB	030H
	DB	01H
	DB	01H
	DB	039H
	DB	0dH
	DB	00H
	DB	00H
	DB	01dH
	DB	02aH
	DB	01H
	DB	01H
	DB	04dH
	DB	00H
	DB	00H
	DB	00H
	DB	00H
	DB	00H
	DB	00H
	DB	019H
	DB	02fH
	DB	01H
	DB	01H
	DB	027H
	DB	02bH
	DB	00H
	DB	00H
	DB	00H
	DB	00H
	DB	00H
	DB	00H
	DB	022H
	DB	01H
	DB	01H
	DB	031H
	DB	00H
	DB	00H
	DB	02bH
	DB	09H
	DB	01H
	DB	01H
	DB	031H
	DB	00H
	DB	02bH
	DB	09H
	DB	01H
	DB	01H
	DB	031H
	DB	00H
	DB	00H
	DB	00H
	DB	00H
	DB	016H
	DB	01H
	DB	01H
	DB	011H
	DB	00H
	DB	00H
	DB	00H
	DB	09H
	DB	01H
	DB	01H
	DB	025H
	DB	00H
	DB	00H
	DB	00H
	DB	00H
	DB	00H
	DB	00H
	DB	00H
	DB	00H
	DB	00H
	DB	00H
	DB	00H
	DB	00H
	DB	00H
	DB	00H
	DB	00H
	DB	00H
	DB	00H
	DB	00H
	DB	00H
	DB	00H
	DB	00H
	DB	00H
	DB	00H
	DB	00H
	DB	00H
	DB	00H
	DB	00H
	DB	00H
	DB	06H
	DB	01H
	DB	01H
	DB	029H
	DB	00H
	DB	00H
	DB	00H
	DB	00H
	DB	00H
	DB	00H
	DB	01cH
	DB	0fbH
	DB	01H
	DB	01H
	DB	03fH
	DB	00H
	DB	00H
	DB	02eH
	DB	02aH
	DB	01H
	DB	01H
	DB	017H
	DB	00H
	DB	02bH
	DB	040H
	DB	01H
	DB	01H
	DB	023H
	DB	00H
	DB	00H
	DB	00H
	DB	00H
	DB	024H
	DB	01H
	DB	01H
	DB	04H
	DB	00H
	DB	00H
	DB	00H
	DB	09H
	DB	01H
	DB	01H
	DB	030H
	DB	00H
	DB	00H
	DB	01dH
	DB	039H
	DB	01H
	DB	02aH
	DB	01dH
	DB	00H
	DB	072H
	DB	01H
	DB	01H
	DB	01eH
	DB	01dH
	DB	00H
	DB	017H
	DB	037H
	DB	01H
	DB	01H
	DB	0bH
	DB	00H
	DB	00H
	DB	0bH
	DB	01H
	DB	01H
	DB	0f6H
	DB	020H
	DB	00H
	DB	00H
	DB	00H
	DB	00H
	DB	00H
	DB	00H
	DB	00H
	DB	023H
	DB	024H
	DB	02eH
	DB	01fH
	DB	0a7H
	DB	017H
	DB	080H
	DB	01H
	DB	01H
	DB	037H
	DB	01dH
	DB	00H
	DB	030H
	DB	01H
	DB	01H
	DB	039H
	DB	0dH
	DB	00H
	DB	012H
	DB	029H
	DB	01H
	DB	01H
	DB	02fH
	DB	012H
	DB	00H
	DB	00H
	DB	00H
	DB	00H
	DB	00H
	DB	00H
	DB	00H
	DB	02cH
	DB	01H
	DB	01H
	DB	01H
	DB	01aH
	DB	041H
	DB	023H
	DB	044H
	DB	05H
	DB	02eH
	DB	00H
	DB	06H
	DB	01H
	DB	01H
	DB	014H
	DB	01cH
	DB	00H
	DB	0ceH
	DB	01H
	DB	01H
	DB	01H
	DB	031H
	DB	00H
	DB	02bH
	DB	09H
	DB	01H
	DB	01H
	DB	031H
	DB	00H
	DB	00H
	DB	00H
	DB	00H
	DB	03cH
	DB	01H
	DB	01H
	DB	02aH
	DB	0d5H
	DB	017H
	DB	010H
	DB	01H
	DB	01H
	DB	01H
	DB	025H
	DB	00H
	DB	00H
	DB	00H
	DB	00H
	DB	00H
	DB	00H
	DB	00H
	DB	00H
	DB	00H
	DB	00H
	DB	00H
	DB	00H
	DB	00H
	DB	00H
	DB	00H
	DB	00H
	DB	00H
	DB	00H
	DB	00H
	DB	00H
	DB	00H
	DB	00H
	DB	00H
	DB	00H
	DB	00H
	DB	00H
	DB	00H
	DB	00H
	DB	0f8H
	DB	01H
	DB	01H
	DB	029H
	DB	00H
	DB	00H
	DB	00H
	DB	00H
	DB	00H
	DB	00H
	DB	00H
	DB	0cbH
	DB	02aH
	DB	01H
	DB	01H
	DB	02H
	DB	015H
	DB	02aH
	DB	01H
	DB	01H
	DB	02dH
	DB	00H
	DB	00H
	DB	02bH
	DB	040H
	DB	01H
	DB	01H
	DB	023H
	DB	00H
	DB	00H
	DB	00H
	DB	00H
	DB	024H
	DB	01H
	DB	01H
	DB	04H
	DB	00H
	DB	00H
	DB	00H
	DB	09H
	DB	01H
	DB	01H
	DB	0d1H
	DB	00H
	DB	00H
	DB	04bH
	DB	039H
	DB	01H
	DB	02aH
	DB	04bH
	DB	00H
	DB	02eH
	DB	01H
	DB	01H
	DB	01H
	DB	02aH
	DB	02fH
	DB	02aH
	DB	039H
	DB	01H
	DB	01H
	DB	0bH
	DB	00H
	DB	00H
	DB	017H
	DB	02aH
	DB	01H
	DB	01H
	DB	040H
	DB	037H
	DB	023H
	DB	00H
	DB	00H
	DB	00H
	DB	00H
	DB	00H
	DB	02dH
	DB	01H
	DB	01H
	DB	02aH
	DB	039H
	DB	02aH
	DB	01H
	DB	01H
	DB	01H
	DB	05H
	DB	00H
	DB	00H
	DB	0d1H
	DB	01H
	DB	01H
	DB	01H
	DB	040H
	DB	01bH
	DB	039H
	DB	01H
	DB	01H
	DB	01H
	DB	030H
	DB	00H
	DB	00H
	DB	00H
	DB	00H
	DB	00H
	DB	00H
	DB	00H
	DB	00H
	DB	00H
	DB	024H
	DB	01H
	DB	01H
	DB	01H
	DB	01H
	DB	01H
	DB	01H
	DB	01H
	DB	018H
	DB	00H
	DB	0d5H
	DB	01H
	DB	01H
	DB	01H
	DB	039H
	DB	0ffH
	DB	02aH
	DB	02aH
	DB	01H
	DB	01H
	DB	031H
	DB	00H
	DB	02bH
	DB	09H
	DB	01H
	DB	01H
	DB	031H
	DB	00H
	DB	00H
	DB	00H
	DB	00H
	DB	019H
	DB	01bH
	DB	01H
	DB	01H
	DB	01H
	DB	01H
	DB	01H
	DB	037H
	DB	01H
	DB	01H
	DB	025H
	DB	00H
	DB	00H
	DB	00H
	DB	00H
	DB	00H
	DB	00H
	DB	00H
	DB	00H
	DB	00H
	DB	00H
	DB	00H
	DB	00H
	DB	00H
	DB	00H
	DB	00H
	DB	00H
	DB	00H
	DB	00H
	DB	00H
	DB	00H
	DB	00H
	DB	00H
	DB	00H
	DB	00H
	DB	00H
	DB	00H
	DB	00H
	DB	00H
	DB	08H
	DB	01H
	DB	01H
	DB	01aH
	DB	00H
	DB	00H
	DB	00H
	DB	00H
	DB	00H
	DB	00H
	DB	00H
	DB	00H
	DB	023H
	DB	014H
	DB	02aH
	DB	01H
	DB	01H
	DB	01H
	DB	0fbH
	DB	0d1H
	DB	00H
	DB	00H
	DB	00H
	DB	02bH
	DB	02fH
	DB	01H
	DB	01H
	DB	023H
	DB	00H
	DB	00H
	DB	00H
	DB	00H
	DB	072H
	DB	01H
	DB	01H
	DB	024H
	DB	00H
	DB	00H
	DB	00H
	DB	015H
	DB	01H
	DB	01H
	DB	030H
	DB	00H
	DB	00H
	DB	01dH
	DB	040H
	DB	01H
	DB	039H
	DB	01dH
	DB	00H
	DB	00H
	DB	038H
	DB	037H
	DB	01H
	DB	01H
	DB	02aH
	DB	02dH
	DB	06fH
	DB	01H
	DB	01H
	DB	02dH
	DB	00H
	DB	00H
	DB	00H
	DB	038H
	DB	040H
	DB	01H
	DB	01H
	DB	01H
	DB	038H
	DB	00H
	DB	00H
	DB	00H
	DB	00H
	DB	00H
	DB	030H
	DB	0fbH
	DB	02aH
	DB	01H
	DB	01H
	DB	01H
	DB	02aH
	DB	0faH
	DB	0cfH
	DB	00H
	DB	00H
	DB	00H
	DB	030H
	DB	01H
	DB	01H
	DB	01H
	DB	01H
	DB	01H
	DB	01H
	DB	01H
	DB	0feH
	DB	030H
	DB	00H
	DB	00H
	DB	00H
	DB	00H
	DB	00H
	DB	00H
	DB	00H
	DB	00H
	DB	00H
	DB	00H
	DB	02bH
	DB	031H
	DB	0cH
	DB	02aH
	DB	01H
	DB	01H
	DB	02aH
	DB	037H
	DB	05H
	DB	00H
	DB	00H
	DB	0bH
	DB	02aH
	DB	01H
	DB	01H
	DB	039H
	DB	030H
	DB	03H
	DB	01H
	DB	01H
	DB	031H
	DB	00H
	DB	02bH
	DB	0f8H
	DB	01H
	DB	01H
	DB	031H
	DB	00H
	DB	00H
	DB	00H
	DB	00H
	DB	00H
	DB	017H
	DB	0cH
	DB	01H
	DB	01H
	DB	02aH
	DB	05H
	DB	0d5H
	DB	01H
	DB	01H
	DB	04H
	DB	00H
	DB	00H
	DB	00H
	DB	00H
	DB	00H
	DB	00H
	DB	00H
	DB	00H
	DB	00H
	DB	00H
	DB	00H
	DB	00H
	DB	00H
	DB	00H
	DB	00H
	DB	00H
	DB	00H
	DB	00H
	DB	00H
	DB	00H
	DB	00H
	DB	00H
	DB	00H
	DB	00H
	DB	00H
	DB	00H
	DB	00H
	DB	00H
	DB	017H
	DB	02eH
	DB	0cbH
	DB	0dH
	DB	00H
	DB	00H
	DB	00H
	DB	00H
	DB	00H
	DB	00H
	DB	00H
	DB	00H
	DB	00H
	DB	00H
	DB	0a7H
	DB	02eH
	DB	02eH
	DB	0dH
	DB	00H
	DB	00H
	DB	00H
	DB	00H
	DB	00H
	DB	00H
	DB	023H
	DB	02eH
	DB	02eH
	DB	01cH
	DB	00H
	DB	00H
	DB	00H
	DB	00H
	DB	01dH
	DB	0cbH
	DB	0cbH
	DB	01dH
	DB	00H
	DB	00H
	DB	00H
	DB	017H
	DB	02eH
	DB	02eH
	DB	019H
	DB	00H
	DB	00H
	DB	020H
	DB	023H
	DB	0cbH
	DB	06cH
	DB	020H
	DB	00H
	DB	00H
	DB	00H
	DB	01cH
	DB	023H
	DB	02eH
	DB	012H
	DB	00H
	DB	012H
	DB	0cbH
	DB	0cbH
	DB	021H
	DB	00H
	DB	00H
	DB	00H
	DB	00H
	DB	012H
	DB	02eH
	DB	02eH
	DB	0a7H
	DB	00H
	DB	00H
	DB	00H
	DB	00H
	DB	00H
	DB	00H
	DB	00H
	DB	00H
	DB	019H
	DB	023H
	DB	02eH
	DB	02eH
	DB	021H
	DB	00H
	DB	00H
	DB	00H
	DB	00H
	DB	00H
	DB	019H
	DB	0cbH
	DB	02eH
	DB	02eH
	DB	02eH
	DB	02eH
	DB	02eH
	DB	023H
	DB	0eH
	DB	00H
	DB	00H
	DB	00H
	DB	00H
	DB	00H
	DB	00H
	DB	00H
	DB	00H
	DB	00H
	DB	00H
	DB	00H
	DB	00H
	DB	00H
	DB	00H
	DB	01dH
	DB	02eH
	DB	02eH
	DB	017H
	DB	020H
	DB	00H
	DB	00H
	DB	00H
	DB	00H
	DB	012H
	DB	02eH
	DB	023H
	DB	0eH
	DB	00H
	DB	021H
	DB	0cbH
	DB	0cbH
	DB	012H
	DB	00H
	DB	00H
	DB	017H
	DB	0cbH
	DB	0cbH
	DB	012H
	DB	00H
	DB	00H
	DB	00H
	DB	00H
	DB	00H
	DB	00H
	DB	09eH
	DB	017H
	DB	02eH
	DB	019H
	DB	00H
	DB	019H
	DB	02eH
	DB	0cbH
	DB	01dH
	DB	00H
	DB	00H
	DB	00H
	DB	00H
	DB	00H
	DB	00H
	DB	00H
	DB	00H
	DB	00H
	DB	00H
	DB	00H
	DB	00H
	DB	00H
	DB	00H
	DB	00H
	DB	00H
	DB	00H
	DB	00H
	DB	00H
	DB	00H
	DB	00H
	DB	00H
	DB	00H
	DB	00H
	DB	00H
	DB	00H
	DB	00H
	DB	00H
	DB	00H
	DB	00H
	DB	00H
	DB	00H
	DB	00H
	DB	00H
	DB	00H
	DB	00H
	DB	00H
	DB	00H
	DB	00H
	DB	00H
	DB	00H
	DB	00H
	DB	00H
	DB	00H
	DB	00H
	DB	00H
	DB	00H
	DB	00H
	DB	00H
	DB	00H
	DB	00H
	DB	00H
	DB	00H
	DB	00H
	DB	00H
	DB	00H
	DB	00H
	DB	00H
	DB	00H
	DB	00H
	DB	00H
	DB	00H
	DB	00H
	DB	00H
	DB	00H
	DB	00H
	DB	00H
	DB	00H
	DB	00H
	DB	00H
	DB	00H
	DB	00H
	DB	00H
	DB	00H
	DB	00H
	DB	00H
	DB	00H
	DB	00H
	DB	00H
	DB	00H
	DB	00H
	DB	00H
	DB	00H
	DB	00H
	DB	00H
	DB	00H
	DB	00H
	DB	00H
	DB	00H
	DB	00H
	DB	00H
	DB	00H
	DB	00H
	DB	00H
	DB	00H
	DB	00H
	DB	00H
	DB	00H
	DB	00H
	DB	00H
	DB	00H
	DB	00H
	DB	00H
	DB	00H
	DB	00H
	DB	00H
	DB	00H
	DB	00H
	DB	00H
	DB	00H
	DB	00H
	DB	00H
	DB	00H
	DB	00H
	DB	00H
	DB	00H
	DB	00H
	DB	00H
	DB	00H
	DB	00H
	DB	00H
	DB	00H
	DB	00H
	DB	00H
	DB	00H
	DB	00H
	DB	00H
	DB	00H
	DB	00H
	DB	00H
	DB	00H
	DB	00H
	DB	00H
	DB	00H
	DB	00H
	DB	00H
	DB	00H
	DB	00H
	DB	00H
	DB	00H
	DB	00H
	DB	00H
	DB	00H
	DB	00H
	DB	00H
	DB	00H
	DB	00H
	DB	00H
	DB	00H
	DB	00H
	DB	00H
	DB	00H
	DB	00H
	DB	00H
	DB	00H
	DB	00H
	DB	00H
	DB	00H
	DB	00H
	DB	00H
	DB	00H
	DB	00H
	DB	00H
	DB	00H
	DB	00H
	DB	00H
	DB	00H
	DB	00H
	DB	00H
	DB	00H
	DB	00H
	DB	00H
	DB	00H
	DB	00H
	DB	00H
	DB	00H
	DB	00H
	DB	00H
	DB	00H
	DB	00H
	DB	00H
	DB	00H
	DB	00H
	DB	00H
	DB	00H
	DB	00H
	DB	00H
	DB	00H
	DB	00H
	DB	00H
	DB	00H
	DB	00H
	DB	00H
	DB	00H
	DB	00H
	DB	00H
	DB	00H
	DB	00H
	DB	00H
	DB	00H
	DB	00H
	DB	00H
	DB	00H
	DB	00H
	DB	00H
	DB	00H
	DB	00H
	DB	00H
	DB	00H
	DB	00H
	DB	00H
	DB	00H
	DB	00H
	DB	00H
	DB	00H
	DB	00H
	DB	00H
	DB	00H
	DB	00H
	DB	00H
	DB	00H
	DB	00H
	DB	00H
	DB	00H
	DB	00H
	DB	00H
	DB	00H
	DB	00H
	DB	00H
	DB	00H
	DB	00H
	DB	00H
	DB	00H
	DB	00H
	DB	00H
	DB	00H
	DB	00H
	DB	00H
	DB	00H
	DB	00H
	DB	00H
	DB	00H
	DB	00H
	DB	00H
	DB	00H
	DB	00H
	DB	00H
	DB	00H
	DB	00H
	DB	00H
	DB	00H
	DB	00H
	DB	00H
	DB	00H
	DB	00H
	DB	00H
	DB	00H
	DB	00H
	DB	00H
	DB	00H
	DB	00H
	DB	00H
	DB	00H
	DB	00H
	DB	00H
	DB	00H
	DB	00H
	DB	00H
	DB	00H
	DB	00H
	DB	00H
	DB	00H
	DB	00H
	DB	00H
	DB	00H
	DB	00H
	DB	00H
	DB	00H
	DB	00H
	DB	00H
	DB	00H
	DB	00H
	DB	00H
	DB	00H
	DB	00H
	DB	00H
	DB	00H
	DB	00H
	DB	00H
	DB	00H
	DB	00H
	DB	00H
	DB	00H
	DB	00H
	DB	00H
	DB	00H
	DB	00H
	DB	00H
	DB	00H
	DB	00H
	DB	00H
	DB	00H
	DB	00H
	DB	00H
	DB	00H
	DB	00H
	DB	00H
	DB	00H
	DB	00H
	DB	00H
	DB	00H
	DB	00H
	DB	00H
	DB	00H
	DB	00H
	DB	00H
	DB	00H
	DB	00H
	DB	00H
	DB	00H
	DB	00H
	DB	00H
	DB	00H
	DB	00H
	DB	00H
	DB	00H
	DB	00H
	DB	00H
	DB	00H
	DB	00H
	DB	00H
	DB	00H
	DB	00H
	DB	00H
	DB	00H
	DB	00H
	DB	00H
	DB	00H
	DB	00H
	DB	00H
	DB	00H
	DB	00H
	DB	00H
	DB	00H
	DB	00H
	DB	00H
	DB	00H
	DB	00H
	DB	00H
	DB	00H
	DB	00H
	DB	00H
	DB	00H
	DB	00H
	DB	00H
	DB	00H
	DB	00H
	DB	00H
	DB	00H
	DB	00H
	DB	00H
	DB	00H
	DB	00H
	DB	00H
	DB	00H
	DB	00H
	DB	00H
	DB	00H
	DB	00H
	DB	00H
	DB	00H
	DB	00H
	DB	00H
	DB	00H
	DB	00H
	DB	00H
	DB	00H
	DB	00H
	DB	00H
	DB	00H
	DB	00H
	DB	00H
	DB	00H
	DB	00H
	DB	00H
	DB	00H
	DB	00H
	DB	00H
	DB	00H
	DB	00H
	DB	00H
	DB	00H
	DB	00H
	DB	00H
	DB	00H
	DB	00H
	DB	00H
	DB	00H
	DB	00H
	DB	00H
	DB	00H
	DB	00H
	DB	00H
	DB	00H
	DB	00H
	DB	00H
	DB	00H
	DB	00H
	DB	00H
	DB	00H
	DB	00H
	DB	00H
	DB	00H
	DB	00H
	DB	00H
	DB	00H
	DB	00H
	DB	00H
	DB	00H
	DB	00H
	DB	00H
	DB	00H
	DB	00H
	DB	00H
	DB	00H
	DB	00H
	DB	00H
	DB	00H
	DB	00H
	DB	00H
	DB	00H
	DB	00H
	DB	00H
	DB	00H
	DB	00H
	DB	00H
	DB	00H
	DB	00H
	DB	00H
	DB	00H
	DB	00H
	DB	00H
	DB	00H
	DB	00H
	DB	00H
	DB	00H
	DB	00H
	DB	00H
	DB	00H
	DB	00H
	DB	00H
	DB	00H
	DB	00H
	DB	00H
	DB	00H
	DB	00H
	DB	00H
	DB	00H
	DB	00H
	DB	00H
	DB	00H
	DB	00H
	DB	00H
	DB	00H
	DB	00H
	DB	00H
	DB	00H
	DB	00H
	DB	00H
	DB	00H
	DB	00H
	DB	00H
	DB	00H
	DB	00H
	DB	00H
	DB	00H
	DB	00H
	DB	00H
	DB	00H
	DB	00H
	DB	00H
	DB	00H
	DB	00H
	DB	00H
	DB	00H
	DB	00H
	DB	00H
	DB	00H
	DB	00H
	DB	00H
	DB	00H
	DB	00H
	DB	00H
	DB	00H
	DB	00H
	DB	00H
	DB	00H
	DB	00H
	DB	00H
	DB	00H
	DB	00H
	DB	00H
	DB	00H
	DB	00H
	DB	00H
	DB	00H
	DB	00H
	DB	00H
	DB	00H
	DB	00H
	DB	00H
	DB	00H
	DB	00H
	DB	00H
	DB	00H
	DB	00H
	DB	00H
	DB	00H
	DB	00H
	DB	00H
	DB	00H
	DB	00H
	DB	00H
	DB	00H
	DB	00H
	DB	00H
	DB	00H
	DB	00H
	DB	00H
	DB	00H
	DB	00H
	DB	00H
	DB	00H
	DB	00H
	DB	00H
	DB	00H
	DB	00H
	DB	00H
	DB	00H
	DB	00H
	DB	00H
	DB	00H
	DB	00H
	DB	00H
	DB	00H
	DB	00H
	DB	00H
	DB	00H
	DB	00H
	DB	00H
	DB	00H
	DB	00H
	DB	00H
	DB	00H
	DB	00H
	DB	00H
	DB	00H
	DB	00H
	DB	00H
	DB	00H
	DB	00H
	DB	00H
	DB	00H
	DB	00H
	DB	00H
	DB	00H
	DB	00H
	DB	00H
	DB	00H
	DB	00H
	DB	00H
	DB	00H
	DB	00H
	DB	00H
	DB	00H
	DB	00H
	DB	00H
	DB	00H
	DB	00H
	DB	00H
	DB	00H
	DB	00H
	DB	00H
	DB	00H
	DB	00H
	DB	00H
	DB	00H
	DB	00H
	DB	00H
	DB	00H
	DB	00H
	DB	00H
	DB	00H
	DB	00H
	DB	00H
	DB	00H
	DB	00H
	DB	00H
	DB	00H
	DB	00H
	DB	00H
	DB	00H
	DB	00H
	DB	00H
	DB	00H
	DB	00H
	DB	00H
	DB	00H
	DB	00H
	DB	00H
	DB	00H
	DB	00H
	DB	00H
	DB	00H
	DB	00H
	DB	00H
	DB	00H
	DB	00H
	DB	00H
	DB	00H
	DB	00H
	DB	00H
	DB	00H
	DB	00H
	DB	00H
	DB	00H
	DB	00H
	DB	00H
	DB	00H
	DB	00H
	DB	00H
	DB	00H
	DB	00H
	DB	00H
	DB	00H
	DB	00H
	DB	00H
	DB	00H
	DB	00H
	DB	00H
	DB	00H
	DB	00H
	DB	00H
	DB	00H
	DB	00H
	DB	00H
	DB	00H
	DB	00H
	DB	00H
	DB	00H
	DB	00H
	DB	00H
	DB	00H
	DB	00H
	DB	00H
	DB	00H
	DB	00H
	DB	00H
	DB	00H
	DB	00H
	DB	00H
	DB	00H
	DB	00H
	DB	00H
	DB	00H
	DB	00H
	DB	00H
	DB	00H
	DB	00H
	DB	00H
	DB	00H
	DB	00H
	DB	00H
	DB	00H
	DB	00H
	DB	00H
	DB	00H
	DB	00H
	DB	00H
	DB	00H
	DB	00H
	DB	00H
	DB	00H
	DB	00H
	DB	00H
	DB	00H
	DB	00H
	DB	00H
	DB	00H
	DB	00H
	DB	00H
	DB	00H
	DB	00H
	DB	00H
	DB	00H
	DB	00H
	DB	00H
	DB	00H
	DB	00H
	DB	00H
	DB	00H
	DB	00H
	DB	00H
	DB	00H
	DB	00H
	DB	00H
	DB	00H
	DB	00H
	DB	00H
	DB	00H
	DB	00H
	DB	00H
	DB	00H
	DB	00H
	DB	00H
	DB	00H
	DB	00H
	DB	00H
	DB	00H
	DB	00H
	DB	00H
	DB	00H
	DB	00H
	DB	00H
	DB	00H
	DB	00H
	DB	00H
	DB	00H
	DB	00H
	DB	00H
	DB	00H
	DB	00H
	DB	00H
	DB	00H
	DB	00H
	DB	00H
	DB	00H
	DB	00H
	DB	00H
	DB	00H
	DB	00H
	DB	00H
	DB	00H
	DB	00H
	DB	00H
	DB	00H
	DB	00H
	DB	00H
	DB	00H
	DB	00H
	DB	00H
	DB	00H
	DB	00H
	DB	00H
	DB	00H
	DB	00H
	DB	00H
	DB	00H
	DB	00H
	DB	00H
	DB	00H
	DB	00H
	DB	00H
	DB	00H
	DB	00H
	DB	00H
	DB	00H
	DB	00H
	DB	00H
	DB	00H
	DB	00H
	DB	00H
	DB	00H
	DB	00H
	DB	00H
	DB	00H
	DB	00H
	DB	00H
	DB	00H
	DB	00H
	DB	00H
	DB	00H
	DB	00H
	DB	00H
	DB	00H
	DB	00H
	DB	00H
	DB	00H
	DB	00H
	DB	00H
	DB	00H
	DB	00H
	DB	00H
	DB	00H
	DB	00H
	DB	00H
	DB	00H
	DB	00H
	DB	00H
	DB	00H
	DB	00H
	DB	00H
	DB	00H
	DB	00H
	DB	00H
	DB	00H
	DB	00H
	DB	00H
	DB	00H
	DB	00H
	DB	00H
	DB	00H
	DB	00H
	DB	00H
	DB	00H
	DB	00H
	DB	00H
	DB	00H
	DB	00H
	DB	00H
	DB	00H
	DB	00H
	DB	00H
	DB	00H
	DB	00H
	DB	00H
	DB	00H
	DB	00H
	DB	00H
	DB	00H
	DB	00H
	DB	00H
	DB	00H
	DB	00H
	DB	00H
	DB	00H
	DB	00H
	DB	00H
	DB	00H
	DB	00H
	DB	00H
	DB	00H
	DB	00H
	DB	00H
	DB	00H
	DB	00H
	DB	00H
	DB	00H
	DB	00H
	DB	00H
	DB	00H
	DB	00H
	DB	00H
	DB	00H
	DB	00H
	DB	00H
	DB	00H
	DB	00H
	DB	00H
	DB	00H
	DB	00H
	DB	00H
	DB	00H
	DB	00H
	DB	00H
	DB	00H
	DB	00H
	DB	00H
	DB	00H
	DB	00H
	DB	00H
	DB	00H
	DB	00H
	DB	00H
	DB	00H
	DB	00H
	DB	00H
	DB	00H
	DB	00H
	DB	00H
	DB	00H
	DB	00H
	DB	00H
	DB	00H
	DB	00H
	DB	00H
	DB	00H
	DB	00H
	DB	00H
	DB	00H
	DB	00H
	DB	00H
	DB	00H
	DB	00H
	DB	00H
	DB	00H
	DB	00H
	DB	00H
	DB	00H
	DB	00H
	DB	00H
	DB	00H
	DB	00H
	DB	00H
	DB	00H
	DB	00H
	DB	00H
	DB	00H
	DB	00H
	DB	00H
	DB	00H
	DB	00H
	DB	00H
	DB	00H
	DB	00H
	DB	00H
	DB	00H
	DB	00H
	DB	00H
	DB	00H
	DB	00H
	DB	00H
	DB	00H
	DB	00H
	DB	00H
	DB	00H
	DB	00H
	DB	00H
	DB	00H
	DB	00H
	DB	00H
	DB	00H
	DB	00H
	DB	00H
	DB	00H
	DB	00H
	DB	00H
	DB	00H
	DB	00H
	DB	00H
	DB	00H
	DB	00H
	DB	00H
	DB	00H
	DB	00H
	DB	00H
	DB	00H
	DB	00H
	DB	00H
	DB	00H
	DB	00H
	DB	00H
	DB	00H
	DB	00H
	DB	00H
	DB	00H
	DB	00H
	DB	00H
	DB	00H
	DB	00H
	DB	00H
	DB	00H
	DB	00H
	DB	00H
	DB	00H
	DB	00H
	DB	00H
	DB	00H
	DB	00H
	DB	00H
	DB	00H
	DB	00H
	DB	00H
	DB	00H
	DB	00H
	DB	00H
	DB	00H
	DB	00H
	DB	00H
	DB	00H
	DB	00H
	DB	00H
	DB	00H
	DB	00H
	DB	00H
	DB	00H
	DB	00H
	DB	00H
	DB	00H
	DB	00H
	DB	00H
	DB	00H
	DB	00H
	DB	00H
	DB	00H
	DB	00H
	DB	00H
	DB	00H
	DB	00H
	DB	00H
	DB	00H
	DB	00H
	DB	00H
	DB	00H
	DB	00H
	DB	00H
	DB	00H
	DB	00H
	DB	00H
	DB	00H
	DB	00H
	DB	00H
	DB	00H
	DB	00H
	DB	00H
	DB	00H
	DB	00H
	DB	00H
	DB	00H
	DB	00H
	DB	00H
	DB	00H
	DB	00H
	DB	00H
	DB	00H
	DB	00H
	DB	00H
	DB	00H
	DB	00H
	DB	00H
	DB	00H
	DB	00H
	DB	00H
	DB	00H
	DB	00H
	DB	00H
	DB	00H
	DB	00H
	DB	00H
	DB	00H
	DB	00H
	DB	00H
	DB	00H
	DB	00H
	DB	00H
	DB	00H
	DB	00H
	DB	00H
	DB	00H
	DB	00H
	DB	00H
	DB	00H
	DB	00H
	DB	00H
	DB	00H
	DB	00H
	DB	00H
	DB	00H
	DB	00H
	DB	00H
	DB	00H
	DB	00H
	DB	00H
	DB	00H
	DB	00H
	DB	00H
	DB	00H
	DB	00H
	DB	00H
	DB	00H
	DB	00H
	DB	00H
	DB	00H
	DB	00H
	DB	00H
	DB	00H
	DB	00H
	DB	00H
	DB	00H
	DB	00H
	DB	00H
	DB	00H
	DB	00H
	DB	00H
	DB	00H
	DB	00H
	DB	00H
	DB	00H
	DB	00H
	DB	00H
	DB	00H
	DB	00H
	DB	00H
	DB	00H
	DB	00H
	DB	00H
	DB	00H
	DB	00H
	DB	00H
	DB	00H
	DB	00H
	DB	00H
	DB	00H
	DB	00H
	DB	00H
	DB	00H
	DB	00H
	DB	00H
	DB	00H
	DB	00H
	DB	00H
	DB	00H
	DB	00H
	DB	00H
	DB	00H
	DB	00H
	DB	00H
	DB	00H
	DB	00H
	DB	00H
	DB	00H
	DB	00H
	DB	00H
	DB	00H
	DB	00H
	DB	00H
	DB	00H
	DB	00H
	DB	00H
	DB	00H
	DB	00H
	DB	00H
	DB	00H
	DB	00H
	DB	00H
	DB	00H
	DB	00H
	DB	00H
	DB	00H
	DB	00H
	DB	00H
	DB	00H
	DB	00H
	DB	00H
	DB	00H
	DB	00H
	DB	00H
	DB	00H
	DB	00H
	DB	00H
	DB	00H
	DB	00H
	DB	00H
	DB	00H
	DB	00H
	DB	00H
	DB	00H
	DB	00H
	DB	00H
	DB	00H
	DB	00H
	DB	00H
	DB	00H
	DB	00H
	DB	00H
	DB	00H
	DB	00H
	DB	00H
	DB	00H
	DB	00H
	DB	00H
	DB	00H
	DB	00H
	DB	00H
	DB	00H
	DB	00H
	DB	00H
	DB	00H
	DB	00H
	DB	00H
	DB	00H
	DB	00H
	DB	00H
	DB	00H
	DB	00H
	DB	00H
	DB	00H
	DB	00H
	DB	00H
	DB	00H
	DB	00H
	DB	00H
	DB	00H
	DB	00H
	DB	00H
	DB	00H
	DB	00H
	DB	00H
	DB	00H
	DB	00H
	DB	00H
	DB	00H
	DB	00H
	DB	00H
	DB	00H
	DB	00H
	DB	00H
	DB	00H
	DB	00H
	DB	00H
	DB	00H
	DB	00H
	DB	00H
	DB	00H
	DB	00H
	DB	00H
	DB	00H
	DB	00H
	DB	00H
	DB	00H
	DB	00H
	DB	00H
	DB	00H
	DB	00H
	DB	00H
	DB	00H
	DB	00H
	DB	00H
	DB	00H
	DB	00H
	DB	00H
	DB	00H
	DB	00H
	DB	00H
	DB	00H
	DB	00H
	DB	00H
	DB	00H
	DB	00H
	DB	00H
	DB	00H
	DB	00H
	DB	00H
	DB	00H
	DB	00H
	DB	00H
	DB	00H
	DB	00H
	DB	00H
	DB	00H
	DB	00H
	DB	00H
	DB	00H
	DB	00H
	DB	00H
	DB	00H
	DB	00H
	DB	00H
	DB	00H
	DB	00H
CONST	ENDS
END
