; Listing generated by Microsoft (R) Optimizing Compiler Version 16.00.40219.01 

	TITLE	C:\DUII\Simulation\GUI\Widget\FRAMEWIN_Get.c
	.686P
	.XMM
	include listing.inc
	.model	flat

INCLUDELIB LIBCMT
INCLUDELIB OLDNAMES

PUBLIC	_FRAMEWIN_GetFont
EXTRN	_WM_InvalidateWindow:PROC
EXTRN	_GUI_ALLOC_UnlockH:PROC
EXTRN	_FRAMEWIN_LockH:PROC
EXTRN	__RTC_CheckEsp:PROC
EXTRN	__RTC_Shutdown:PROC
EXTRN	__RTC_InitBase:PROC
;	COMDAT rtc$TMZ
; File c:\duii\simulation\gui\widget\framewin_get.c
rtc$TMZ	SEGMENT
__RTC_Shutdown.rtc$TMZ DD FLAT:__RTC_Shutdown
rtc$TMZ	ENDS
;	COMDAT rtc$IMZ
rtc$IMZ	SEGMENT
__RTC_InitBase.rtc$IMZ DD FLAT:__RTC_InitBase
; Function compile flags: /Odtp /RTCsu /ZI
rtc$IMZ	ENDS
;	COMDAT _FRAMEWIN_GetFont
_TEXT	SEGMENT
_pObj$12756 = -20					; size = 4
_r$ = -8						; size = 4
_hObj$ = 8						; size = 4
_FRAMEWIN_GetFont PROC					; COMDAT
; Line 39
	push	ebp
	mov	ebp, esp
	sub	esp, 216				; 000000d8H
	push	ebx
	push	esi
	push	edi
	lea	edi, DWORD PTR [ebp-216]
	mov	ecx, 54					; 00000036H
	mov	eax, -858993460				; ccccccccH
	rep stosd
; Line 40
	mov	DWORD PTR _r$[ebp], 0
; Line 42
	cmp	DWORD PTR _hObj$[ebp], 0
	je	SHORT $LN1@FRAMEWIN_G
; Line 44
	mov	eax, DWORD PTR _hObj$[ebp]
	push	eax
	call	_FRAMEWIN_LockH
	add	esp, 4
	mov	DWORD PTR _pObj$12756[ebp], eax
; Line 45
	mov	eax, DWORD PTR _pObj$12756[ebp]
	mov	ecx, DWORD PTR [eax+56]
	mov	DWORD PTR _r$[ebp], ecx
; Line 46
	call	_GUI_ALLOC_UnlockH
	mov	DWORD PTR _pObj$12756[ebp], 0
; Line 47
	mov	eax, DWORD PTR _hObj$[ebp]
	push	eax
	call	_WM_InvalidateWindow
	add	esp, 4
$LN1@FRAMEWIN_G:
; Line 50
	mov	eax, DWORD PTR _r$[ebp]
; Line 51
	pop	edi
	pop	esi
	pop	ebx
	add	esp, 216				; 000000d8H
	cmp	ebp, esp
	call	__RTC_CheckEsp
	mov	esp, ebp
	pop	ebp
	ret	0
_FRAMEWIN_GetFont ENDP
_TEXT	ENDS
PUBLIC	__$ArrayPad$
PUBLIC	_FRAMEWIN_GetTitleHeight
EXTRN	_FRAMEWIN__CalcPositions:PROC
EXTRN	___security_cookie:DWORD
EXTRN	@__security_check_cookie@4:PROC
EXTRN	@_RTC_CheckStackVars@8:PROC
; Function compile flags: /Odtp /RTCsu /ZI
;	COMDAT _FRAMEWIN_GetTitleHeight
_TEXT	SEGMENT
_pObj$12764 = -52					; size = 4
_Pos$ = -40						; size = 20
_r$ = -12						; size = 4
__$ArrayPad$ = -4					; size = 4
_hObj$ = 8						; size = 4
_FRAMEWIN_GetTitleHeight PROC				; COMDAT
; Line 57
	push	ebp
	mov	ebp, esp
	sub	esp, 248				; 000000f8H
	push	ebx
	push	esi
	push	edi
	lea	edi, DWORD PTR [ebp-248]
	mov	ecx, 62					; 0000003eH
	mov	eax, -858993460				; ccccccccH
	rep stosd
	mov	eax, DWORD PTR ___security_cookie
	xor	eax, ebp
	mov	DWORD PTR __$ArrayPad$[ebp], eax
; Line 58
	mov	DWORD PTR _r$[ebp], 0
; Line 60
	cmp	DWORD PTR _hObj$[ebp], 0
	je	SHORT $LN2@FRAMEWIN_G@2
; Line 63
	lea	eax, DWORD PTR _Pos$[ebp]
	push	eax
	mov	ecx, DWORD PTR _hObj$[ebp]
	push	ecx
	call	_FRAMEWIN__CalcPositions
	add	esp, 8
; Line 64
	mov	eax, DWORD PTR _hObj$[ebp]
	push	eax
	call	_FRAMEWIN_LockH
	add	esp, 4
	mov	DWORD PTR _pObj$12764[ebp], eax
; Line 65
	mov	eax, DWORD PTR _pObj$12764[ebp]
	movsx	ecx, WORD PTR [eax+88]
	mov	DWORD PTR _r$[ebp], ecx
; Line 66
	call	_GUI_ALLOC_UnlockH
	mov	DWORD PTR _pObj$12764[ebp], 0
; Line 67
	cmp	DWORD PTR _r$[ebp], 0
	jne	SHORT $LN2@FRAMEWIN_G@2
; Line 68
	movsx	eax, WORD PTR _Pos$[ebp]
	mov	DWORD PTR _r$[ebp], eax
$LN2@FRAMEWIN_G@2:
; Line 72
	mov	eax, DWORD PTR _r$[ebp]
; Line 73
	push	edx
	mov	ecx, ebp
	push	eax
	lea	edx, DWORD PTR $LN7@FRAMEWIN_G@2
	call	@_RTC_CheckStackVars@8
	pop	eax
	pop	edx
	pop	edi
	pop	esi
	pop	ebx
	mov	ecx, DWORD PTR __$ArrayPad$[ebp]
	xor	ecx, ebp
	call	@__security_check_cookie@4
	add	esp, 248				; 000000f8H
	cmp	ebp, esp
	call	__RTC_CheckEsp
	mov	esp, ebp
	pop	ebp
	ret	0
	npad	3
$LN7@FRAMEWIN_G@2:
	DD	1
	DD	$LN6@FRAMEWIN_G@2
$LN6@FRAMEWIN_G@2:
	DD	-40					; ffffffd8H
	DD	20					; 00000014H
	DD	$LN5@FRAMEWIN_G@2
$LN5@FRAMEWIN_G@2:
	DB	80					; 00000050H
	DB	111					; 0000006fH
	DB	115					; 00000073H
	DB	0
_FRAMEWIN_GetTitleHeight ENDP
_TEXT	ENDS
PUBLIC	_FRAMEWIN_GetBorderSize
; Function compile flags: /Odtp /RTCsu /ZI
;	COMDAT _FRAMEWIN_GetBorderSize
_TEXT	SEGMENT
_pSkinPrivate$ = -32					; size = 4
_pObj$ = -20						; size = 4
_BorderSizeT$ = -8					; size = 4
_hObj$ = 8						; size = 4
_FRAMEWIN_GetBorderSize PROC				; COMDAT
; Line 79
	push	ebp
	mov	ebp, esp
	sub	esp, 228				; 000000e4H
	push	ebx
	push	esi
	push	edi
	lea	edi, DWORD PTR [ebp-228]
	mov	ecx, 57					; 00000039H
	mov	eax, -858993460				; ccccccccH
	rep stosd
; Line 84
	mov	DWORD PTR _BorderSizeT$[ebp], 0
; Line 85
	cmp	DWORD PTR _hObj$[ebp], 0
	je	SHORT $LN1@FRAMEWIN_G@3
; Line 87
	mov	eax, DWORD PTR _hObj$[ebp]
	push	eax
	call	_FRAMEWIN_LockH
	add	esp, 4
	mov	DWORD PTR _pObj$[ebp], eax
; Line 88
	mov	eax, DWORD PTR _pObj$[ebp]
	mov	ecx, DWORD PTR [eax+96]
	mov	edx, DWORD PTR [ecx+8]
	mov	DWORD PTR _pSkinPrivate$[ebp], edx
; Line 89
	mov	esi, esp
	push	0
	mov	eax, DWORD PTR _hObj$[ebp]
	push	eax
	mov	ecx, DWORD PTR _pSkinPrivate$[ebp]
	mov	edx, DWORD PTR [ecx]
	call	edx
	add	esp, 8
	cmp	esi, esp
	call	__RTC_CheckEsp
	mov	DWORD PTR _BorderSizeT$[ebp], eax
; Line 90
	call	_GUI_ALLOC_UnlockH
	mov	DWORD PTR _pObj$[ebp], 0
$LN1@FRAMEWIN_G@3:
; Line 93
	mov	eax, DWORD PTR _BorderSizeT$[ebp]
; Line 94
	pop	edi
	pop	esi
	pop	ebx
	add	esp, 228				; 000000e4H
	cmp	ebp, esp
	call	__RTC_CheckEsp
	mov	esp, ebp
	pop	ebp
	ret	0
_FRAMEWIN_GetBorderSize ENDP
_TEXT	ENDS
PUBLIC	_FRAMEWIN_GetTextAlign
; Function compile flags: /Odtp /RTCsu /ZI
;	COMDAT _FRAMEWIN_GetTextAlign
_TEXT	SEGMENT
_pObj$12781 = -20					; size = 4
_r$ = -8						; size = 4
_hObj$ = 8						; size = 4
_FRAMEWIN_GetTextAlign PROC				; COMDAT
; Line 100
	push	ebp
	mov	ebp, esp
	sub	esp, 216				; 000000d8H
	push	ebx
	push	esi
	push	edi
	lea	edi, DWORD PTR [ebp-216]
	mov	ecx, 54					; 00000036H
	mov	eax, -858993460				; ccccccccH
	rep stosd
; Line 101
	mov	DWORD PTR _r$[ebp], 0
; Line 102
	cmp	DWORD PTR _hObj$[ebp], 0
	je	SHORT $LN1@FRAMEWIN_G@4
; Line 105
	mov	eax, DWORD PTR _hObj$[ebp]
	push	eax
	call	_FRAMEWIN_LockH
	add	esp, 4
	mov	DWORD PTR _pObj$12781[ebp], eax
; Line 106
	mov	eax, DWORD PTR _pObj$12781[ebp]
	movsx	ecx, WORD PTR [eax+94]
	mov	DWORD PTR _r$[ebp], ecx
; Line 107
	call	_GUI_ALLOC_UnlockH
	mov	DWORD PTR _pObj$12781[ebp], 0
$LN1@FRAMEWIN_G@4:
; Line 110
	mov	eax, DWORD PTR _r$[ebp]
; Line 111
	pop	edi
	pop	esi
	pop	ebx
	add	esp, 216				; 000000d8H
	cmp	ebp, esp
	call	__RTC_CheckEsp
	mov	esp, ebp
	pop	ebp
	ret	0
_FRAMEWIN_GetTextAlign ENDP
_TEXT	ENDS
PUBLIC	_FRAMEWIN_GetText
EXTRN	_memcpy:PROC
EXTRN	_strlen:PROC
EXTRN	_GUI_ALLOC_LockH:PROC
; Function compile flags: /Odtp /RTCsu /ZI
;	COMDAT _FRAMEWIN_GetText
_TEXT	SEGMENT
_pText$12794 = -32					; size = 4
_Len$12793 = -20					; size = 4
_pObj$12791 = -8					; size = 4
_hObj$ = 8						; size = 4
_pBuffer$ = 12						; size = 4
_MaxLen$ = 16						; size = 4
_FRAMEWIN_GetText PROC					; COMDAT
; Line 117
	push	ebp
	mov	ebp, esp
	sub	esp, 228				; 000000e4H
	push	ebx
	push	esi
	push	edi
	lea	edi, DWORD PTR [ebp-228]
	mov	ecx, 57					; 00000039H
	mov	eax, -858993460				; ccccccccH
	rep stosd
; Line 118
	cmp	DWORD PTR _hObj$[ebp], 0
	je	$LN4@FRAMEWIN_G@5
; Line 121
	mov	eax, DWORD PTR _hObj$[ebp]
	push	eax
	call	_FRAMEWIN_LockH
	add	esp, 4
	mov	DWORD PTR _pObj$12791[ebp], eax
; Line 122
	mov	eax, DWORD PTR _pObj$12791[ebp]
	cmp	DWORD PTR [eax+116], 0
	je	SHORT $LN2@FRAMEWIN_G@5
; Line 125
	mov	eax, DWORD PTR _pObj$12791[ebp]
	mov	ecx, DWORD PTR [eax+116]
	push	ecx
	call	_GUI_ALLOC_LockH
	add	esp, 4
	mov	DWORD PTR _pText$12794[ebp], eax
; Line 126
	mov	eax, DWORD PTR _pText$12794[ebp]
	push	eax
	call	_strlen
	add	esp, 4
	mov	DWORD PTR _Len$12793[ebp], eax
; Line 127
	mov	eax, DWORD PTR _MaxLen$[ebp]
	sub	eax, 1
	cmp	DWORD PTR _Len$12793[ebp], eax
	jle	SHORT $LN1@FRAMEWIN_G@5
; Line 128
	mov	eax, DWORD PTR _MaxLen$[ebp]
	sub	eax, 1
	mov	DWORD PTR _Len$12793[ebp], eax
$LN1@FRAMEWIN_G@5:
; Line 130
	mov	eax, DWORD PTR _Len$12793[ebp]
	push	eax
	mov	ecx, DWORD PTR _pText$12794[ebp]
	push	ecx
	mov	edx, DWORD PTR _pBuffer$[ebp]
	push	edx
	call	_memcpy
	add	esp, 12					; 0000000cH
; Line 131
	mov	eax, DWORD PTR _pBuffer$[ebp]
	add	eax, DWORD PTR _Len$12793[ebp]
	mov	BYTE PTR [eax], 0
; Line 132
	call	_GUI_ALLOC_UnlockH
	mov	DWORD PTR _pText$12794[ebp], 0
$LN2@FRAMEWIN_G@5:
; Line 134
	call	_GUI_ALLOC_UnlockH
	mov	DWORD PTR _pObj$12791[ebp], 0
$LN4@FRAMEWIN_G@5:
; Line 137
	pop	edi
	pop	esi
	pop	ebx
	add	esp, 228				; 000000e4H
	cmp	ebp, esp
	call	__RTC_CheckEsp
	mov	esp, ebp
	pop	ebp
	ret	0
_FRAMEWIN_GetText ENDP
_TEXT	ENDS
PUBLIC	_FRAMEWIN_GetBarColor
; Function compile flags: /Odtp /RTCsu /ZI
;	COMDAT _FRAMEWIN_GetBarColor
_TEXT	SEGMENT
_pObj$12808 = -20					; size = 4
_r$ = -8						; size = 4
_hObj$ = 8						; size = 4
_Index$ = 12						; size = 4
_FRAMEWIN_GetBarColor PROC				; COMDAT
; Line 143
	push	ebp
	mov	ebp, esp
	sub	esp, 216				; 000000d8H
	push	ebx
	push	esi
	push	edi
	lea	edi, DWORD PTR [ebp-216]
	mov	ecx, 54					; 00000036H
	mov	eax, -858993460				; ccccccccH
	rep stosd
; Line 144
	mov	DWORD PTR _r$[ebp], 0
; Line 145
	cmp	DWORD PTR _hObj$[ebp], 0
	je	SHORT $LN2@FRAMEWIN_G@6
; Line 148
	mov	eax, DWORD PTR _hObj$[ebp]
	push	eax
	call	_FRAMEWIN_LockH
	add	esp, 4
	mov	DWORD PTR _pObj$12808[ebp], eax
; Line 149
	cmp	DWORD PTR _Index$[ebp], 2
	jae	SHORT $LN1@FRAMEWIN_G@6
; Line 150
	mov	eax, DWORD PTR _Index$[ebp]
	mov	ecx, DWORD PTR _pObj$12808[ebp]
	mov	edx, DWORD PTR [ecx+eax*4+60]
	mov	DWORD PTR _r$[ebp], edx
$LN1@FRAMEWIN_G@6:
; Line 152
	call	_GUI_ALLOC_UnlockH
	mov	DWORD PTR _pObj$12808[ebp], 0
$LN2@FRAMEWIN_G@6:
; Line 155
	mov	eax, DWORD PTR _r$[ebp]
; Line 156
	pop	edi
	pop	esi
	pop	ebx
	add	esp, 216				; 000000d8H
	cmp	ebp, esp
	call	__RTC_CheckEsp
	mov	esp, ebp
	pop	ebp
	ret	0
_FRAMEWIN_GetBarColor ENDP
_TEXT	ENDS
PUBLIC	_FRAMEWIN_GetActive
; Function compile flags: /Odtp /RTCsu /ZI
;	COMDAT _FRAMEWIN_GetActive
_TEXT	SEGMENT
_pObj$12816 = -20					; size = 4
_r$ = -8						; size = 4
_hObj$ = 8						; size = 4
_FRAMEWIN_GetActive PROC				; COMDAT
; Line 162
	push	ebp
	mov	ebp, esp
	sub	esp, 216				; 000000d8H
	push	ebx
	push	esi
	push	edi
	lea	edi, DWORD PTR [ebp-216]
	mov	ecx, 54					; 00000036H
	mov	eax, -858993460				; ccccccccH
	rep stosd
; Line 163
	mov	DWORD PTR _r$[ebp], 0
; Line 164
	cmp	DWORD PTR _hObj$[ebp], 0
	je	SHORT $LN2@FRAMEWIN_G@7
; Line 167
	mov	eax, DWORD PTR _hObj$[ebp]
	push	eax
	call	_FRAMEWIN_LockH
	add	esp, 4
	mov	DWORD PTR _pObj$12816[ebp], eax
; Line 168
	mov	eax, DWORD PTR _pObj$12816[ebp]
	movzx	ecx, WORD PTR [eax+128]
	and	ecx, 8
	je	SHORT $LN1@FRAMEWIN_G@7
; Line 169
	mov	DWORD PTR _r$[ebp], 1
$LN1@FRAMEWIN_G@7:
; Line 171
	call	_GUI_ALLOC_UnlockH
	mov	DWORD PTR _pObj$12816[ebp], 0
$LN2@FRAMEWIN_G@7:
; Line 174
	mov	eax, DWORD PTR _r$[ebp]
; Line 175
	pop	edi
	pop	esi
	pop	ebx
	add	esp, 216				; 000000d8H
	cmp	ebp, esp
	call	__RTC_CheckEsp
	mov	esp, ebp
	pop	ebp
	ret	0
_FRAMEWIN_GetActive ENDP
_TEXT	ENDS
END
