; Listing generated by Microsoft (R) Optimizing Compiler Version 16.00.40219.01 

	TITLE	C:\DUII\Simulation\GUI\Widget\FRAMEWIN_SkinFlex.c
	.686P
	.XMM
	include listing.inc
	.model	flat

INCLUDELIB LIBCMT
INCLUDELIB OLDNAMES

CONST	SEGMENT
__apProps DD	FLAT:__PropsActive
	DD	FLAT:__PropsInactive
CONST	ENDS
_DATA	SEGMENT
__PropsActive DD 00H
	DD	0ffffffH
	DD	0d2b69aH
	DD	0d2b69aH
	DD	0ead1b9H
	DD	05H
	DD	00H
	DD	05H
	DD	05H
	DD	02H
	DD	04H
__PropsInactive DD 04c4c4cH
	DD	0ffffffH
	DD	0dccec0H
	DD	0dccec0H
	DD	0f2e4d7H
	DD	05H
	DD	00H
	DD	05H
	DD	05H
	DD	02H
	DD	04H
_DATA	ENDS
PUBLIC	_FRAMEWIN_DrawSkinFlex
EXTRN	_WM_SetHasTrans:PROC
EXTRN	_GUI_FillRectEx:PROC
EXTRN	_GUI_ALLOC_UnlockH:PROC
EXTRN	_GUI_DispStringInRect:PROC
EXTRN	_GUI_ALLOC_LockH:PROC
EXTRN	_GUI_SetFont:PROC
EXTRN	_GUI_SetTextMode:PROC
EXTRN	_FRAMEWIN_LockH:PROC
EXTRN	_GUI_DrawGradientV:PROC
EXTRN	_GUI_DrawVLine:PROC
EXTRN	_GUI_FillRect:PROC
EXTRN	_GUI_DrawPixel:PROC
EXTRN	_GUI_DrawHLine:PROC
EXTRN	_GUI_SetColor:PROC
EXTRN	_GUI__DrawTwinArc2:PROC
EXTRN	_FRAMEWIN_GetActive:PROC
EXTRN	__RTC_CheckEsp:PROC
EXTRN	@_RTC_CheckStackVars@8:PROC
EXTRN	__RTC_Shutdown:PROC
EXTRN	__RTC_InitBase:PROC
;	COMDAT rtc$TMZ
; File c:\duii\simulation\gui\widget\framewin_skinflex.c
rtc$TMZ	SEGMENT
__RTC_Shutdown.rtc$TMZ DD FLAT:__RTC_Shutdown
rtc$TMZ	ENDS
;	COMDAT rtc$IMZ
rtc$IMZ	SEGMENT
__RTC_InitBase.rtc$IMZ DD FLAT:__RTC_InitBase
; Function compile flags: /Odtp /RTCsu /ZI
rtc$IMZ	ENDS
;	COMDAT _FRAMEWIN_DrawSkinFlex
_TEXT	SEGMENT
tv286 = -320						; size = 4
tv249 = -320						; size = 4
tv233 = -320						; size = 4
tv217 = -320						; size = 4
tv209 = -320						; size = 4
tv70 = -320						; size = 4
tv68 = -320						; size = 4
_y1$ = -120						; size = 4
_x1$ = -108						; size = 4
_y0$ = -96						; size = 4
_x0$ = -84						; size = 4
_IsActive$ = -72					; size = 4
_pText$ = -60						; size = 4
_ColorIndex$ = -48					; size = 4
_pObj$ = -36						; size = 4
_Rect$ = -24						; size = 8
_pProps$ = -8						; size = 4
_pDrawItemInfo$ = 8					; size = 4
_FRAMEWIN_DrawSkinFlex PROC				; COMDAT
; Line 103
	push	ebp
	mov	ebp, esp
	sub	esp, 320				; 00000140H
	push	ebx
	push	esi
	push	edi
	lea	edi, DWORD PTR [ebp-320]
	mov	ecx, 80					; 00000050H
	mov	eax, -858993460				; ccccccccH
	rep stosd
; Line 111
	mov	eax, DWORD PTR _pDrawItemInfo$[ebp]
	mov	ecx, DWORD PTR [eax]
	push	ecx
	call	_FRAMEWIN_GetActive
	add	esp, 4
	mov	DWORD PTR _IsActive$[ebp], eax
; Line 112
	cmp	DWORD PTR _IsActive$[ebp], 0
	je	SHORT $LN27@FRAMEWIN_D
	mov	eax, DWORD PTR __apProps
	mov	DWORD PTR tv68[ebp], eax
	jmp	SHORT $LN28@FRAMEWIN_D
$LN27@FRAMEWIN_D:
	mov	ecx, DWORD PTR __apProps+4
	mov	DWORD PTR tv68[ebp], ecx
$LN28@FRAMEWIN_D:
	mov	edx, DWORD PTR tv68[ebp]
	mov	DWORD PTR _pProps$[ebp], edx
; Line 113
	mov	eax, DWORD PTR _pDrawItemInfo$[ebp]
	mov	ecx, DWORD PTR [eax+4]
	mov	DWORD PTR tv70[ebp], ecx
	cmp	DWORD PTR tv70[ebp], 22			; 00000016H
	ja	$LN23@FRAMEWIN_D
	mov	edx, DWORD PTR tv70[ebp]
	movzx	eax, BYTE PTR $LN39@FRAMEWIN_D[edx]
	jmp	DWORD PTR $LN43@FRAMEWIN_D[eax*4]
$LN22@FRAMEWIN_D:
; Line 115
	mov	eax, DWORD PTR _pProps$[ebp]
	mov	eax, DWORD PTR [eax+28]
	jmp	$LN25@FRAMEWIN_D
$LN21@FRAMEWIN_D:
; Line 117
	mov	eax, DWORD PTR _pProps$[ebp]
	mov	eax, DWORD PTR [eax+32]
	jmp	$LN25@FRAMEWIN_D
$LN20@FRAMEWIN_D:
; Line 119
	mov	eax, DWORD PTR _pProps$[ebp]
	mov	eax, DWORD PTR [eax+36]
	jmp	$LN25@FRAMEWIN_D
$LN19@FRAMEWIN_D:
; Line 121
	mov	eax, DWORD PTR _pProps$[ebp]
	mov	eax, DWORD PTR [eax+40]
	jmp	$LN25@FRAMEWIN_D
$LN18@FRAMEWIN_D:
; Line 126
	mov	eax, DWORD PTR _pProps$[ebp]
	cmp	DWORD PTR [eax+20], 2
	jl	SHORT $LN17@FRAMEWIN_D
; Line 127
	mov	eax, DWORD PTR _pProps$[ebp]
	mov	ecx, DWORD PTR [eax+8]
	push	ecx
	mov	edx, DWORD PTR _pProps$[ebp]
	mov	eax, DWORD PTR [edx+4]
	push	eax
	mov	ecx, DWORD PTR _pProps$[ebp]
	mov	edx, DWORD PTR [ecx]
	push	edx
	mov	eax, DWORD PTR _pProps$[ebp]
	mov	ecx, DWORD PTR [eax+20]
	push	ecx
	mov	edx, DWORD PTR _pDrawItemInfo$[ebp]
	mov	eax, DWORD PTR [edx+16]
	push	eax
	mov	ecx, DWORD PTR _pDrawItemInfo$[ebp]
	mov	edx, DWORD PTR [ecx+20]
	push	edx
	mov	eax, DWORD PTR _pDrawItemInfo$[ebp]
	mov	ecx, DWORD PTR [eax+12]
	push	ecx
	call	_GUI__DrawTwinArc2
	add	esp, 28					; 0000001cH
; Line 128
	jmp	$LN16@FRAMEWIN_D
$LN17@FRAMEWIN_D:
; Line 129
	mov	eax, DWORD PTR _pProps$[ebp]
	mov	ecx, DWORD PTR [eax]
	push	ecx
	call	_GUI_SetColor
	add	esp, 4
; Line 130
	mov	eax, DWORD PTR _pDrawItemInfo$[ebp]
	mov	ecx, DWORD PTR [eax+12]
	mov	edx, DWORD PTR _pProps$[ebp]
	mov	eax, DWORD PTR [edx+28]
	lea	ecx, DWORD PTR [ecx+eax-1]
	push	ecx
	mov	edx, DWORD PTR _pDrawItemInfo$[ebp]
	mov	eax, DWORD PTR [edx+12]
	push	eax
	mov	ecx, DWORD PTR _pDrawItemInfo$[ebp]
	mov	edx, DWORD PTR [ecx+16]
	push	edx
	call	_GUI_DrawHLine
	add	esp, 12					; 0000000cH
; Line 131
	mov	eax, DWORD PTR _pDrawItemInfo$[ebp]
	mov	ecx, DWORD PTR [eax+20]
	push	ecx
	mov	edx, DWORD PTR _pDrawItemInfo$[ebp]
	mov	eax, DWORD PTR _pProps$[ebp]
	mov	ecx, DWORD PTR [edx+20]
	sub	ecx, DWORD PTR [eax+28]
	add	ecx, 1
	push	ecx
	mov	edx, DWORD PTR _pDrawItemInfo$[ebp]
	mov	eax, DWORD PTR [edx+16]
	push	eax
	call	_GUI_DrawHLine
	add	esp, 12					; 0000000cH
; Line 132
	mov	eax, DWORD PTR _pDrawItemInfo$[ebp]
	mov	ecx, DWORD PTR [eax+16]
	add	ecx, 1
	mov	DWORD PTR _y0$[ebp], ecx
; Line 133
	mov	eax, DWORD PTR _y0$[ebp]
	push	eax
	mov	ecx, DWORD PTR _pDrawItemInfo$[ebp]
	mov	edx, DWORD PTR [ecx+12]
	push	edx
	call	_GUI_DrawPixel
	add	esp, 8
; Line 134
	mov	eax, DWORD PTR _y0$[ebp]
	push	eax
	mov	ecx, DWORD PTR _pDrawItemInfo$[ebp]
	mov	edx, DWORD PTR [ecx+20]
	push	edx
	call	_GUI_DrawPixel
	add	esp, 8
; Line 135
	mov	eax, DWORD PTR _pProps$[ebp]
	mov	ecx, DWORD PTR [eax+4]
	push	ecx
	call	_GUI_SetColor
	add	esp, 4
; Line 136
	mov	eax, DWORD PTR _y0$[ebp]
	push	eax
	mov	ecx, DWORD PTR _pDrawItemInfo$[ebp]
	mov	edx, DWORD PTR [ecx+12]
	add	edx, 1
	push	edx
	call	_GUI_DrawPixel
	add	esp, 8
; Line 137
	mov	eax, DWORD PTR _y0$[ebp]
	push	eax
	mov	ecx, DWORD PTR _pDrawItemInfo$[ebp]
	mov	edx, DWORD PTR [ecx+20]
	sub	edx, 1
	push	edx
	call	_GUI_DrawPixel
	add	esp, 8
$LN16@FRAMEWIN_D:
; Line 142
	mov	eax, DWORD PTR _pProps$[ebp]
	cmp	DWORD PTR [eax+20], 2
	jl	SHORT $LN15@FRAMEWIN_D
; Line 143
	mov	eax, DWORD PTR _pDrawItemInfo$[ebp]
	mov	ecx, DWORD PTR [eax+12]
	mov	edx, DWORD PTR _pProps$[ebp]
	add	ecx, DWORD PTR [edx+20]
	mov	DWORD PTR _x0$[ebp], ecx
; Line 144
	mov	eax, DWORD PTR _pDrawItemInfo$[ebp]
	mov	ecx, DWORD PTR _pProps$[ebp]
	mov	edx, DWORD PTR [eax+20]
	sub	edx, DWORD PTR [ecx+20]
	mov	DWORD PTR _x1$[ebp], edx
; Line 145
	jmp	SHORT $LN14@FRAMEWIN_D
$LN15@FRAMEWIN_D:
; Line 146
	mov	eax, DWORD PTR _pDrawItemInfo$[ebp]
	mov	ecx, DWORD PTR [eax+12]
	add	ecx, 2
	mov	DWORD PTR _x0$[ebp], ecx
; Line 147
	mov	eax, DWORD PTR _pDrawItemInfo$[ebp]
	mov	ecx, DWORD PTR [eax+20]
	sub	ecx, 2
	mov	DWORD PTR _x1$[ebp], ecx
$LN14@FRAMEWIN_D:
; Line 149
	mov	eax, DWORD PTR _pProps$[ebp]
	mov	ecx, DWORD PTR [eax]
	push	ecx
	call	_GUI_SetColor
	add	esp, 4
; Line 150
	mov	eax, DWORD PTR _x1$[ebp]
	push	eax
	mov	ecx, DWORD PTR _x0$[ebp]
	push	ecx
	mov	edx, DWORD PTR _pDrawItemInfo$[ebp]
	mov	eax, DWORD PTR [edx+16]
	push	eax
	call	_GUI_DrawHLine
	add	esp, 12					; 0000000cH
; Line 151
	mov	eax, DWORD PTR _pProps$[ebp]
	mov	ecx, DWORD PTR [eax+4]
	push	ecx
	call	_GUI_SetColor
	add	esp, 4
; Line 152
	mov	eax, DWORD PTR _x1$[ebp]
	push	eax
	mov	ecx, DWORD PTR _x0$[ebp]
	push	ecx
	mov	edx, DWORD PTR _pDrawItemInfo$[ebp]
	mov	eax, DWORD PTR [edx+16]
	add	eax, 1
	push	eax
	call	_GUI_DrawHLine
	add	esp, 12					; 0000000cH
; Line 153
	mov	eax, DWORD PTR _pProps$[ebp]
	cmp	DWORD PTR [eax+36], 2
	jle	SHORT $LN13@FRAMEWIN_D
; Line 154
	mov	eax, DWORD PTR _pProps$[ebp]
	mov	ecx, DWORD PTR [eax+8]
	push	ecx
	call	_GUI_SetColor
	add	esp, 4
; Line 155
	mov	eax, DWORD PTR _pDrawItemInfo$[ebp]
	mov	ecx, DWORD PTR [eax+16]
	add	ecx, 2
	mov	DWORD PTR _y0$[ebp], ecx
; Line 156
	mov	eax, DWORD PTR _pDrawItemInfo$[ebp]
	mov	ecx, DWORD PTR [eax+16]
	mov	edx, DWORD PTR _pProps$[ebp]
	mov	eax, DWORD PTR [edx+36]
	lea	ecx, DWORD PTR [ecx+eax-1]
	mov	DWORD PTR _y1$[ebp], ecx
; Line 157
	mov	eax, DWORD PTR _y1$[ebp]
	push	eax
	mov	ecx, DWORD PTR _x1$[ebp]
	push	ecx
	mov	edx, DWORD PTR _y0$[ebp]
	push	edx
	mov	eax, DWORD PTR _x0$[ebp]
	push	eax
	call	_GUI_FillRect
	add	esp, 16					; 00000010H
; Line 158
	jmp	$LN12@FRAMEWIN_D
$LN13@FRAMEWIN_D:
; Line 159
	mov	eax, DWORD PTR _pProps$[ebp]
	mov	ecx, DWORD PTR _pProps$[ebp]
	mov	edx, DWORD PTR [eax+32]
	cmp	edx, DWORD PTR [ecx+20]
	jle	$LN12@FRAMEWIN_D
; Line 160
	mov	eax, DWORD PTR _pDrawItemInfo$[ebp]
	mov	ecx, DWORD PTR [eax+16]
	add	ecx, 2
	mov	DWORD PTR _y0$[ebp], ecx
; Line 161
	mov	eax, DWORD PTR _pProps$[ebp]
	cmp	DWORD PTR [eax+20], 2
	jl	SHORT $LN29@FRAMEWIN_D
	mov	ecx, DWORD PTR _pDrawItemInfo$[ebp]
	mov	edx, DWORD PTR [ecx+16]
	mov	eax, DWORD PTR _pProps$[ebp]
	add	edx, DWORD PTR [eax+20]
	mov	DWORD PTR tv209[ebp], edx
	jmp	SHORT $LN30@FRAMEWIN_D
$LN29@FRAMEWIN_D:
	mov	ecx, DWORD PTR _pDrawItemInfo$[ebp]
	mov	edx, DWORD PTR [ecx+16]
	add	edx, 2
	mov	DWORD PTR tv209[ebp], edx
$LN30@FRAMEWIN_D:
	mov	eax, DWORD PTR tv209[ebp]
	mov	DWORD PTR _y1$[ebp], eax
; Line 162
	mov	eax, DWORD PTR _pProps$[ebp]
	cmp	DWORD PTR [eax+20], 2
	jl	SHORT $LN31@FRAMEWIN_D
	mov	ecx, DWORD PTR _pDrawItemInfo$[ebp]
	mov	edx, DWORD PTR [ecx+12]
	mov	eax, DWORD PTR _pProps$[ebp]
	add	edx, DWORD PTR [eax+20]
	mov	DWORD PTR tv217[ebp], edx
	jmp	SHORT $LN32@FRAMEWIN_D
$LN31@FRAMEWIN_D:
	mov	ecx, DWORD PTR _pDrawItemInfo$[ebp]
	mov	edx, DWORD PTR [ecx+12]
	add	edx, 2
	mov	DWORD PTR tv217[ebp], edx
$LN32@FRAMEWIN_D:
	mov	eax, DWORD PTR tv217[ebp]
	mov	DWORD PTR _x0$[ebp], eax
; Line 163
	mov	eax, DWORD PTR _pDrawItemInfo$[ebp]
	mov	ecx, DWORD PTR [eax+12]
	mov	edx, DWORD PTR _pProps$[ebp]
	mov	eax, DWORD PTR [edx+32]
	lea	ecx, DWORD PTR [ecx+eax-1]
	mov	DWORD PTR _x1$[ebp], ecx
; Line 164
	mov	eax, DWORD PTR _y1$[ebp]
	push	eax
	mov	ecx, DWORD PTR _x1$[ebp]
	push	ecx
	mov	edx, DWORD PTR _y0$[ebp]
	push	edx
	mov	eax, DWORD PTR _x0$[ebp]
	push	eax
	call	_GUI_FillRect
	add	esp, 16					; 00000010H
; Line 165
	mov	eax, DWORD PTR _pProps$[ebp]
	cmp	DWORD PTR [eax+20], 2
	jl	SHORT $LN33@FRAMEWIN_D
	mov	ecx, DWORD PTR _pDrawItemInfo$[ebp]
	mov	edx, DWORD PTR _pProps$[ebp]
	mov	eax, DWORD PTR [ecx+20]
	sub	eax, DWORD PTR [edx+20]
	mov	DWORD PTR tv233[ebp], eax
	jmp	SHORT $LN34@FRAMEWIN_D
$LN33@FRAMEWIN_D:
	mov	ecx, DWORD PTR _pDrawItemInfo$[ebp]
	mov	edx, DWORD PTR [ecx+20]
	sub	edx, 2
	mov	DWORD PTR tv233[ebp], edx
$LN34@FRAMEWIN_D:
	mov	eax, DWORD PTR tv233[ebp]
	mov	DWORD PTR _x1$[ebp], eax
; Line 166
	mov	eax, DWORD PTR _pDrawItemInfo$[ebp]
	mov	ecx, DWORD PTR _pProps$[ebp]
	mov	edx, DWORD PTR [eax+20]
	sub	edx, DWORD PTR [ecx+28]
	add	edx, 1
	mov	DWORD PTR _x0$[ebp], edx
; Line 167
	mov	eax, DWORD PTR _y1$[ebp]
	push	eax
	mov	ecx, DWORD PTR _x1$[ebp]
	push	ecx
	mov	edx, DWORD PTR _y0$[ebp]
	push	edx
	mov	eax, DWORD PTR _x0$[ebp]
	push	eax
	call	_GUI_FillRect
	add	esp, 16					; 00000010H
$LN12@FRAMEWIN_D:
; Line 173
	mov	eax, DWORD PTR _pProps$[ebp]
	cmp	DWORD PTR [eax+20], 2
	jl	SHORT $LN35@FRAMEWIN_D
	mov	ecx, DWORD PTR _pDrawItemInfo$[ebp]
	mov	edx, DWORD PTR [ecx+16]
	mov	eax, DWORD PTR _pProps$[ebp]
	add	edx, DWORD PTR [eax+20]
	mov	DWORD PTR tv249[ebp], edx
	jmp	SHORT $LN36@FRAMEWIN_D
$LN35@FRAMEWIN_D:
	mov	ecx, DWORD PTR _pDrawItemInfo$[ebp]
	mov	edx, DWORD PTR [ecx+16]
	add	edx, 2
	mov	DWORD PTR tv249[ebp], edx
$LN36@FRAMEWIN_D:
	mov	eax, DWORD PTR tv249[ebp]
	mov	DWORD PTR _y0$[ebp], eax
; Line 174
	mov	eax, DWORD PTR _pDrawItemInfo$[ebp]
	mov	ecx, DWORD PTR [eax+24]
	sub	ecx, 1
	mov	DWORD PTR _y1$[ebp], ecx
; Line 175
	mov	eax, DWORD PTR _pProps$[ebp]
	mov	ecx, DWORD PTR [eax]
	push	ecx
	call	_GUI_SetColor
	add	esp, 4
; Line 176
	mov	eax, DWORD PTR _y1$[ebp]
	push	eax
	mov	ecx, DWORD PTR _y0$[ebp]
	push	ecx
	mov	edx, DWORD PTR _pDrawItemInfo$[ebp]
	mov	eax, DWORD PTR [edx+12]
	push	eax
	call	_GUI_DrawVLine
	add	esp, 12					; 0000000cH
; Line 177
	mov	eax, DWORD PTR _y1$[ebp]
	push	eax
	mov	ecx, DWORD PTR _y0$[ebp]
	push	ecx
	mov	edx, DWORD PTR _pDrawItemInfo$[ebp]
	mov	eax, DWORD PTR [edx+20]
	push	eax
	call	_GUI_DrawVLine
	add	esp, 12					; 0000000cH
; Line 178
	mov	eax, DWORD PTR _pDrawItemInfo$[ebp]
	mov	ecx, DWORD PTR [eax+24]
	sub	ecx, 2
	mov	DWORD PTR _y1$[ebp], ecx
; Line 179
	mov	eax, DWORD PTR _pProps$[ebp]
	mov	ecx, DWORD PTR [eax+4]
	push	ecx
	call	_GUI_SetColor
	add	esp, 4
; Line 180
	mov	eax, DWORD PTR _y1$[ebp]
	push	eax
	mov	ecx, DWORD PTR _y0$[ebp]
	push	ecx
	mov	edx, DWORD PTR _pDrawItemInfo$[ebp]
	mov	eax, DWORD PTR [edx+12]
	add	eax, 1
	push	eax
	call	_GUI_DrawVLine
	add	esp, 12					; 0000000cH
; Line 181
	mov	eax, DWORD PTR _y1$[ebp]
	push	eax
	mov	ecx, DWORD PTR _y0$[ebp]
	push	ecx
	mov	edx, DWORD PTR _pDrawItemInfo$[ebp]
	mov	eax, DWORD PTR [edx+20]
	sub	eax, 1
	push	eax
	call	_GUI_DrawVLine
	add	esp, 12					; 0000000cH
; Line 182
	mov	eax, DWORD PTR _pProps$[ebp]
	cmp	DWORD PTR [eax+28], 2
	jg	SHORT $LN9@FRAMEWIN_D
	mov	eax, DWORD PTR _pProps$[ebp]
	cmp	DWORD PTR [eax+32], 2
	jle	$LN10@FRAMEWIN_D
$LN9@FRAMEWIN_D:
; Line 183
	mov	eax, DWORD PTR _pProps$[ebp]
	cmp	DWORD PTR [eax+40], 2
	jle	SHORT $LN37@FRAMEWIN_D
	mov	ecx, DWORD PTR _pDrawItemInfo$[ebp]
	mov	edx, DWORD PTR _pProps$[ebp]
	mov	eax, DWORD PTR [ecx+24]
	sub	eax, DWORD PTR [edx+40]
	mov	DWORD PTR tv286[ebp], eax
	jmp	SHORT $LN38@FRAMEWIN_D
$LN37@FRAMEWIN_D:
	mov	ecx, DWORD PTR _pDrawItemInfo$[ebp]
	mov	edx, DWORD PTR [ecx+24]
	sub	edx, 2
	mov	DWORD PTR tv286[ebp], edx
$LN38@FRAMEWIN_D:
	mov	eax, DWORD PTR tv286[ebp]
	mov	DWORD PTR _y1$[ebp], eax
; Line 184
	mov	eax, DWORD PTR _pProps$[ebp]
	mov	ecx, DWORD PTR [eax+8]
	push	ecx
	call	_GUI_SetColor
	add	esp, 4
; Line 185
	mov	eax, DWORD PTR _pProps$[ebp]
	cmp	DWORD PTR [eax+28], 2
	jle	SHORT $LN8@FRAMEWIN_D
; Line 186
	mov	eax, DWORD PTR _pDrawItemInfo$[ebp]
	mov	ecx, DWORD PTR [eax+12]
	add	ecx, 2
	mov	DWORD PTR _x0$[ebp], ecx
; Line 187
	mov	eax, DWORD PTR _pDrawItemInfo$[ebp]
	mov	ecx, DWORD PTR [eax+12]
	mov	edx, DWORD PTR _pProps$[ebp]
	mov	eax, DWORD PTR [edx+28]
	lea	ecx, DWORD PTR [ecx+eax-1]
	mov	DWORD PTR _x1$[ebp], ecx
; Line 188
	mov	eax, DWORD PTR _y1$[ebp]
	push	eax
	mov	ecx, DWORD PTR _x1$[ebp]
	push	ecx
	mov	edx, DWORD PTR _y0$[ebp]
	push	edx
	mov	eax, DWORD PTR _x0$[ebp]
	push	eax
	call	_GUI_FillRect
	add	esp, 16					; 00000010H
$LN8@FRAMEWIN_D:
; Line 190
	mov	eax, DWORD PTR _pProps$[ebp]
	cmp	DWORD PTR [eax+32], 2
	jle	SHORT $LN10@FRAMEWIN_D
; Line 191
	mov	eax, DWORD PTR _pDrawItemInfo$[ebp]
	mov	ecx, DWORD PTR _pProps$[ebp]
	mov	edx, DWORD PTR [eax+20]
	sub	edx, DWORD PTR [ecx+28]
	add	edx, 1
	mov	DWORD PTR _x0$[ebp], edx
; Line 192
	mov	eax, DWORD PTR _pDrawItemInfo$[ebp]
	mov	ecx, DWORD PTR [eax+20]
	sub	ecx, 2
	mov	DWORD PTR _x1$[ebp], ecx
; Line 193
	mov	eax, DWORD PTR _y1$[ebp]
	push	eax
	mov	ecx, DWORD PTR _x1$[ebp]
	push	ecx
	mov	edx, DWORD PTR _y0$[ebp]
	push	edx
	mov	eax, DWORD PTR _x0$[ebp]
	push	eax
	call	_GUI_FillRect
	add	esp, 16					; 00000010H
$LN10@FRAMEWIN_D:
; Line 199
	mov	eax, DWORD PTR _pProps$[ebp]
	mov	ecx, DWORD PTR [eax]
	push	ecx
	call	_GUI_SetColor
	add	esp, 4
; Line 200
	mov	eax, DWORD PTR _pDrawItemInfo$[ebp]
	mov	ecx, DWORD PTR [eax+20]
	push	ecx
	mov	edx, DWORD PTR _pDrawItemInfo$[ebp]
	mov	eax, DWORD PTR [edx+12]
	push	eax
	mov	ecx, DWORD PTR _pDrawItemInfo$[ebp]
	mov	edx, DWORD PTR [ecx+24]
	push	edx
	call	_GUI_DrawHLine
	add	esp, 12					; 0000000cH
; Line 201
	mov	eax, DWORD PTR _pProps$[ebp]
	mov	ecx, DWORD PTR [eax+4]
	push	ecx
	call	_GUI_SetColor
	add	esp, 4
; Line 202
	mov	eax, DWORD PTR _pDrawItemInfo$[ebp]
	mov	ecx, DWORD PTR [eax+20]
	sub	ecx, 1
	push	ecx
	mov	edx, DWORD PTR _pDrawItemInfo$[ebp]
	mov	eax, DWORD PTR [edx+12]
	add	eax, 1
	push	eax
	mov	ecx, DWORD PTR _pDrawItemInfo$[ebp]
	mov	edx, DWORD PTR [ecx+24]
	sub	edx, 1
	push	edx
	call	_GUI_DrawHLine
	add	esp, 12					; 0000000cH
; Line 203
	mov	eax, DWORD PTR _pProps$[ebp]
	cmp	DWORD PTR [eax+40], 2
	jle	SHORT $LN6@FRAMEWIN_D
; Line 204
	mov	eax, DWORD PTR _pDrawItemInfo$[ebp]
	mov	ecx, DWORD PTR [eax+12]
	add	ecx, 2
	mov	DWORD PTR _x0$[ebp], ecx
; Line 205
	mov	eax, DWORD PTR _pDrawItemInfo$[ebp]
	mov	ecx, DWORD PTR [eax+20]
	sub	ecx, 2
	mov	DWORD PTR _x1$[ebp], ecx
; Line 206
	mov	eax, DWORD PTR _pDrawItemInfo$[ebp]
	mov	ecx, DWORD PTR _pProps$[ebp]
	mov	edx, DWORD PTR [eax+24]
	sub	edx, DWORD PTR [ecx+40]
	add	edx, 1
	mov	DWORD PTR _y0$[ebp], edx
; Line 207
	mov	eax, DWORD PTR _pDrawItemInfo$[ebp]
	mov	ecx, DWORD PTR [eax+24]
	sub	ecx, 2
	mov	DWORD PTR _y1$[ebp], ecx
; Line 208
	mov	eax, DWORD PTR _pProps$[ebp]
	mov	ecx, DWORD PTR [eax+8]
	push	ecx
	call	_GUI_SetColor
	add	esp, 4
; Line 209
	mov	eax, DWORD PTR _y1$[ebp]
	push	eax
	mov	ecx, DWORD PTR _x1$[ebp]
	push	ecx
	mov	edx, DWORD PTR _y0$[ebp]
	push	edx
	mov	eax, DWORD PTR _x0$[ebp]
	push	eax
	call	_GUI_FillRect
	add	esp, 16					; 00000010H
$LN6@FRAMEWIN_D:
; Line 211
	jmp	$LN23@FRAMEWIN_D
$LN5@FRAMEWIN_D:
; Line 213
	mov	eax, DWORD PTR _pDrawItemInfo$[ebp]
	mov	cx, WORD PTR [eax+12]
	mov	WORD PTR _Rect$[ebp], cx
; Line 214
	mov	eax, DWORD PTR _pDrawItemInfo$[ebp]
	mov	cx, WORD PTR [eax+16]
	mov	WORD PTR _Rect$[ebp+2], cx
; Line 215
	mov	eax, DWORD PTR _pDrawItemInfo$[ebp]
	mov	cx, WORD PTR [eax+20]
	mov	WORD PTR _Rect$[ebp+4], cx
; Line 216
	mov	eax, DWORD PTR _pDrawItemInfo$[ebp]
	mov	cx, WORD PTR [eax+24]
	mov	WORD PTR _Rect$[ebp+6], cx
; Line 217
	mov	eax, DWORD PTR _pProps$[ebp]
	mov	ecx, DWORD PTR [eax+16]
	push	ecx
	mov	edx, DWORD PTR _pProps$[ebp]
	mov	eax, DWORD PTR [edx+12]
	push	eax
	movsx	ecx, WORD PTR _Rect$[ebp+6]
	push	ecx
	movsx	edx, WORD PTR _Rect$[ebp+4]
	push	edx
	movsx	eax, WORD PTR _Rect$[ebp+2]
	push	eax
	movsx	ecx, WORD PTR _Rect$[ebp]
	push	ecx
	call	_GUI_DrawGradientV
	add	esp, 24					; 00000018H
; Line 218
	jmp	$LN23@FRAMEWIN_D
$LN4@FRAMEWIN_D:
; Line 220
	mov	eax, DWORD PTR _pDrawItemInfo$[ebp]
	mov	ecx, DWORD PTR [eax+12]
	mov	edx, DWORD PTR _pProps$[ebp]
	add	ecx, DWORD PTR [edx+24]
	mov	WORD PTR _Rect$[ebp], cx
; Line 221
	mov	eax, DWORD PTR _pDrawItemInfo$[ebp]
	mov	cx, WORD PTR [eax+16]
	mov	WORD PTR _Rect$[ebp+2], cx
; Line 222
	mov	eax, DWORD PTR _pDrawItemInfo$[ebp]
	mov	ecx, DWORD PTR _pProps$[ebp]
	mov	edx, DWORD PTR [eax+20]
	sub	edx, DWORD PTR [ecx+24]
	mov	WORD PTR _Rect$[ebp+4], dx
; Line 223
	mov	eax, DWORD PTR _pDrawItemInfo$[ebp]
	mov	cx, WORD PTR [eax+24]
	mov	WORD PTR _Rect$[ebp+6], cx
; Line 224
	mov	eax, DWORD PTR _pDrawItemInfo$[ebp]
	mov	ecx, DWORD PTR [eax]
	push	ecx
	call	_FRAMEWIN_LockH
	add	esp, 4
	mov	DWORD PTR _pObj$[ebp], eax
; Line 225
	mov	eax, DWORD PTR _pObj$[ebp]
	cmp	DWORD PTR [eax+116], 0
	je	SHORT $LN3@FRAMEWIN_D
; Line 226
	push	2
	call	_GUI_SetTextMode
	add	esp, 4
; Line 227
	mov	eax, DWORD PTR _pObj$[ebp]
	movzx	ecx, WORD PTR [eax+128]
	and	ecx, 8
	neg	ecx
	sbb	ecx, ecx
	neg	ecx
	mov	DWORD PTR _ColorIndex$[ebp], ecx
; Line 228
	mov	eax, DWORD PTR _ColorIndex$[ebp]
	mov	ecx, DWORD PTR _pObj$[ebp]
	mov	edx, DWORD PTR [ecx+eax*4+68]
	push	edx
	call	_GUI_SetColor
	add	esp, 4
; Line 229
	mov	eax, DWORD PTR _pObj$[ebp]
	mov	ecx, DWORD PTR [eax+56]
	push	ecx
	call	_GUI_SetFont
	add	esp, 4
; Line 230
	mov	eax, DWORD PTR _pObj$[ebp]
	mov	ecx, DWORD PTR [eax+116]
	push	ecx
	call	_GUI_ALLOC_LockH
	add	esp, 4
	mov	DWORD PTR _pText$[ebp], eax
; Line 231
	mov	eax, DWORD PTR _pObj$[ebp]
	movsx	ecx, WORD PTR [eax+94]
	push	ecx
	lea	edx, DWORD PTR _Rect$[ebp]
	push	edx
	mov	eax, DWORD PTR _pText$[ebp]
	push	eax
	call	_GUI_DispStringInRect
	add	esp, 12					; 0000000cH
; Line 232
	call	_GUI_ALLOC_UnlockH
	mov	DWORD PTR _pText$[ebp], 0
$LN3@FRAMEWIN_D:
; Line 234
	call	_GUI_ALLOC_UnlockH
	mov	DWORD PTR _pObj$[ebp], 0
; Line 235
	jmp	$LN23@FRAMEWIN_D
$LN2@FRAMEWIN_D:
; Line 237
	mov	eax, DWORD PTR _pDrawItemInfo$[ebp]
	mov	cx, WORD PTR [eax+12]
	mov	WORD PTR _Rect$[ebp], cx
; Line 238
	mov	eax, DWORD PTR _pDrawItemInfo$[ebp]
	mov	cx, WORD PTR [eax+16]
	mov	WORD PTR _Rect$[ebp+2], cx
; Line 239
	mov	eax, DWORD PTR _pDrawItemInfo$[ebp]
	mov	cx, WORD PTR [eax+20]
	mov	WORD PTR _Rect$[ebp+4], cx
; Line 240
	mov	eax, DWORD PTR _pDrawItemInfo$[ebp]
	mov	cx, WORD PTR [eax+24]
	mov	WORD PTR _Rect$[ebp+6], cx
; Line 241
	mov	eax, DWORD PTR _pProps$[ebp]
	mov	ecx, DWORD PTR [eax+8]
	push	ecx
	call	_GUI_SetColor
	add	esp, 4
; Line 242
	lea	eax, DWORD PTR _Rect$[ebp]
	push	eax
	call	_GUI_FillRectEx
	add	esp, 4
; Line 243
	jmp	SHORT $LN23@FRAMEWIN_D
$LN1@FRAMEWIN_D:
; Line 245
	mov	eax, DWORD PTR _pDrawItemInfo$[ebp]
	mov	ecx, DWORD PTR [eax]
	push	ecx
	call	_FRAMEWIN_LockH
	add	esp, 4
	mov	DWORD PTR _pObj$[ebp], eax
; Line 246
	mov	eax, DWORD PTR _pObj$[ebp]
	movsx	ecx, WORD PTR [eax+94]
	or	ecx, 12					; 0000000cH
	mov	edx, DWORD PTR _pObj$[ebp]
	mov	WORD PTR [edx+94], cx
; Line 247
	call	_GUI_ALLOC_UnlockH
	mov	DWORD PTR _pObj$[ebp], 0
; Line 248
	mov	eax, DWORD PTR _pDrawItemInfo$[ebp]
	mov	ecx, DWORD PTR [eax]
	push	ecx
	call	_WM_SetHasTrans
	add	esp, 4
$LN23@FRAMEWIN_D:
; Line 251
	xor	eax, eax
$LN25@FRAMEWIN_D:
; Line 252
	push	edx
	mov	ecx, ebp
	push	eax
	lea	edx, DWORD PTR $LN42@FRAMEWIN_D
	call	@_RTC_CheckStackVars@8
	pop	eax
	pop	edx
	pop	edi
	pop	esi
	pop	ebx
	add	esp, 320				; 00000140H
	cmp	ebp, esp
	call	__RTC_CheckEsp
	mov	esp, ebp
	pop	ebp
	ret	0
	npad	1
$LN42@FRAMEWIN_D:
	DD	1
	DD	$LN41@FRAMEWIN_D
$LN41@FRAMEWIN_D:
	DD	-24					; ffffffe8H
	DD	8
	DD	$LN40@FRAMEWIN_D
$LN40@FRAMEWIN_D:
	DB	82					; 00000052H
	DB	101					; 00000065H
	DB	99					; 00000063H
	DB	116					; 00000074H
	DB	0
	npad	3
$LN43@FRAMEWIN_D:
	DD	$LN1@FRAMEWIN_D
	DD	$LN5@FRAMEWIN_D
	DD	$LN18@FRAMEWIN_D
	DD	$LN2@FRAMEWIN_D
	DD	$LN4@FRAMEWIN_D
	DD	$LN19@FRAMEWIN_D
	DD	$LN22@FRAMEWIN_D
	DD	$LN21@FRAMEWIN_D
	DD	$LN20@FRAMEWIN_D
	DD	$LN23@FRAMEWIN_D
$LN39@FRAMEWIN_D:
	DB	0
	DB	9
	DB	9
	DB	1
	DB	9
	DB	9
	DB	9
	DB	9
	DB	9
	DB	2
	DB	9
	DB	9
	DB	3
	DB	9
	DB	9
	DB	9
	DB	4
	DB	9
	DB	9
	DB	5
	DB	6
	DB	7
	DB	8
_FRAMEWIN_DrawSkinFlex ENDP
_TEXT	ENDS
PUBLIC	_FRAMEWIN_SetSkinFlexProps
; Function compile flags: /Odtp /RTCsu /ZI
;	COMDAT _FRAMEWIN_SetSkinFlexProps
_TEXT	SEGMENT
_pProps$ = 8						; size = 4
_Index$ = 12						; size = 4
_FRAMEWIN_SetSkinFlexProps PROC				; COMDAT
; Line 258
	push	ebp
	mov	ebp, esp
	sub	esp, 192				; 000000c0H
	push	ebx
	push	esi
	push	edi
	lea	edi, DWORD PTR [ebp-192]
	mov	ecx, 48					; 00000030H
	mov	eax, -858993460				; ccccccccH
	rep stosd
; Line 259
	cmp	DWORD PTR _Index$[ebp], 2
	jae	$LN6@FRAMEWIN_S
; Line 260
	mov	esi, DWORD PTR _pProps$[ebp]
	mov	eax, DWORD PTR _Index$[ebp]
	mov	edi, DWORD PTR __apProps[eax*4]
	mov	ecx, 11					; 0000000bH
	rep movsd
; Line 264
	mov	eax, DWORD PTR _Index$[ebp]
	mov	ecx, DWORD PTR __apProps[eax*4]
	cmp	DWORD PTR [ecx+28], 2
	jge	SHORT $LN4@FRAMEWIN_S
; Line 265
	mov	eax, DWORD PTR _Index$[ebp]
	mov	ecx, DWORD PTR __apProps[eax*4]
	mov	DWORD PTR [ecx+28], 2
$LN4@FRAMEWIN_S:
; Line 267
	mov	eax, DWORD PTR _Index$[ebp]
	mov	ecx, DWORD PTR __apProps[eax*4]
	cmp	DWORD PTR [ecx+32], 2
	jge	SHORT $LN3@FRAMEWIN_S
; Line 268
	mov	eax, DWORD PTR _Index$[ebp]
	mov	ecx, DWORD PTR __apProps[eax*4]
	mov	DWORD PTR [ecx+32], 2
$LN3@FRAMEWIN_S:
; Line 270
	mov	eax, DWORD PTR _Index$[ebp]
	mov	ecx, DWORD PTR __apProps[eax*4]
	cmp	DWORD PTR [ecx+36], 2
	jge	SHORT $LN2@FRAMEWIN_S
; Line 271
	mov	eax, DWORD PTR _Index$[ebp]
	mov	ecx, DWORD PTR __apProps[eax*4]
	mov	DWORD PTR [ecx+36], 2
$LN2@FRAMEWIN_S:
; Line 273
	mov	eax, DWORD PTR _Index$[ebp]
	mov	ecx, DWORD PTR __apProps[eax*4]
	cmp	DWORD PTR [ecx+40], 2
	jge	SHORT $LN6@FRAMEWIN_S
; Line 274
	mov	eax, DWORD PTR _Index$[ebp]
	mov	ecx, DWORD PTR __apProps[eax*4]
	mov	DWORD PTR [ecx+40], 2
$LN6@FRAMEWIN_S:
; Line 277
	pop	edi
	pop	esi
	pop	ebx
	mov	esp, ebp
	pop	ebp
	ret	0
_FRAMEWIN_SetSkinFlexProps ENDP
_TEXT	ENDS
PUBLIC	_FRAMEWIN_GetSkinFlexProps
; Function compile flags: /Odtp /RTCsu /ZI
;	COMDAT _FRAMEWIN_GetSkinFlexProps
_TEXT	SEGMENT
_pProps$ = 8						; size = 4
_Index$ = 12						; size = 4
_FRAMEWIN_GetSkinFlexProps PROC				; COMDAT
; Line 283
	push	ebp
	mov	ebp, esp
	sub	esp, 192				; 000000c0H
	push	ebx
	push	esi
	push	edi
	lea	edi, DWORD PTR [ebp-192]
	mov	ecx, 48					; 00000030H
	mov	eax, -858993460				; ccccccccH
	rep stosd
; Line 284
	cmp	DWORD PTR _Index$[ebp], 2
	jae	SHORT $LN2@FRAMEWIN_G
; Line 285
	mov	eax, DWORD PTR _Index$[ebp]
	mov	esi, DWORD PTR __apProps[eax*4]
	mov	ecx, 11					; 0000000bH
	mov	edi, DWORD PTR _pProps$[ebp]
	rep movsd
$LN2@FRAMEWIN_G:
; Line 287
	pop	edi
	pop	esi
	pop	ebx
	mov	esp, ebp
	pop	ebp
	ret	0
_FRAMEWIN_GetSkinFlexProps ENDP
_TEXT	ENDS
END
