; Listing generated by Microsoft (R) Optimizing Compiler Version 16.00.40219.01 

	TITLE	C:\DUII\Simulation\GUI\Widget\FRAMEWIN_Skin.c
	.686P
	.XMM
	include listing.inc
	.model	flat

INCLUDELIB LIBCMT
INCLUDELIB OLDNAMES

PUBLIC	__Skin
EXTRN	_FRAMEWIN__DefaultProps:BYTE
_DATA	SEGMENT
__Skin	DD	FLAT:__Paint
	DD	FLAT:__Create
	DD	FLAT:_FRAMEWIN__DefaultProps+24
_DATA	ENDS
EXTRN	_WM__GetNextIVR:PROC
EXTRN	_GUI_SetFont:PROC
EXTRN	_GUI_SetTextMode:PROC
EXTRN	_FRAMEWIN__GetTitleLimits:PROC
EXTRN	_WM__InitIVRSearch:PROC
EXTRN	_WM_GetWindowSizeY:PROC
EXTRN	_WM_GetWindowSizeX:PROC
EXTRN	_GUI_ALLOC_UnlockH:PROC
EXTRN	_FRAMEWIN__CalcTitleHeight:PROC
EXTRN	_FRAMEWIN_LockH:PROC
EXTRN	@_RTC_CheckStackVars@8:PROC
EXTRN	__RTC_CheckEsp:PROC
EXTRN	__RTC_Shutdown:PROC
EXTRN	__RTC_InitBase:PROC
;	COMDAT rtc$TMZ
; File c:\duii\simulation\gui\widget\framewin_skin.c
rtc$TMZ	SEGMENT
__RTC_Shutdown.rtc$TMZ DD FLAT:__RTC_Shutdown
rtc$TMZ	ENDS
;	COMDAT rtc$IMZ
rtc$IMZ	SEGMENT
__RTC_InitBase.rtc$IMZ DD FLAT:__RTC_InitBase
; Function compile flags: /Odtp /RTCsu /ZI
rtc$IMZ	ENDS
;	COMDAT __Paint
_TEXT	SEGMENT
_SepHeight$ = -168					; size = 4
_TitleHeight$ = -156					; size = 4
_ySize$ = -144						; size = 4
_xSize$ = -132						; size = 4
_BorderSizeT$ = -120					; size = 4
_BorderSizeR$ = -108					; size = 4
_BorderSizeL$ = -96					; size = 4
_ItemInfo$ = -84					; size = 32
_pFont$ = -44						; size = 4
_pSkinPrivate$ = -32					; size = 4
_pfDrawSkin$ = -20					; size = 4
_pObj$ = -8						; size = 4
_hObj$ = 8						; size = 4
__Paint	PROC						; COMDAT
; Line 46
	push	ebp
	mov	ebp, esp
	sub	esp, 364				; 0000016cH
	push	ebx
	push	esi
	push	edi
	lea	edi, DWORD PTR [ebp-364]
	mov	ecx, 91					; 0000005bH
	mov	eax, -858993460				; ccccccccH
	rep stosd
; Line 62
	mov	eax, DWORD PTR _hObj$[ebp]
	push	eax
	call	_FRAMEWIN_LockH
	add	esp, 4
	mov	DWORD PTR _pObj$[ebp], eax
; Line 63
	mov	eax, DWORD PTR _pObj$[ebp]
	mov	ecx, DWORD PTR [eax+56]
	mov	DWORD PTR _pFont$[ebp], ecx
; Line 64
	mov	eax, DWORD PTR _pObj$[ebp]
	mov	ecx, DWORD PTR [eax+84]
	mov	DWORD PTR _pfDrawSkin$[ebp], ecx
; Line 65
	mov	eax, DWORD PTR _pObj$[ebp]
	mov	ecx, DWORD PTR [eax+96]
	mov	edx, DWORD PTR [ecx+8]
	mov	DWORD PTR _pSkinPrivate$[ebp], edx
; Line 66
	mov	eax, DWORD PTR _pObj$[ebp]
	push	eax
	call	_FRAMEWIN__CalcTitleHeight
	add	esp, 4
	mov	DWORD PTR _TitleHeight$[ebp], eax
; Line 67
	mov	eax, DWORD PTR _pObj$[ebp]
	movsx	ecx, WORD PTR [eax+92]
	mov	DWORD PTR _SepHeight$[ebp], ecx
; Line 68
	call	_GUI_ALLOC_UnlockH
	mov	DWORD PTR _pObj$[ebp], 0
; Line 72
	mov	eax, DWORD PTR _hObj$[ebp]
	push	eax
	call	_WM_GetWindowSizeX
	add	esp, 4
	mov	DWORD PTR _xSize$[ebp], eax
; Line 73
	mov	eax, DWORD PTR _hObj$[ebp]
	push	eax
	call	_WM_GetWindowSizeY
	add	esp, 4
	mov	DWORD PTR _ySize$[ebp], eax
; Line 74
	mov	esi, esp
	push	1
	mov	eax, DWORD PTR _hObj$[ebp]
	push	eax
	mov	ecx, DWORD PTR _pSkinPrivate$[ebp]
	mov	edx, DWORD PTR [ecx]
	call	edx
	add	esp, 8
	cmp	esi, esp
	call	__RTC_CheckEsp
	mov	DWORD PTR _BorderSizeL$[ebp], eax
; Line 75
	mov	esi, esp
	push	3
	mov	eax, DWORD PTR _hObj$[ebp]
	push	eax
	mov	ecx, DWORD PTR _pSkinPrivate$[ebp]
	mov	edx, DWORD PTR [ecx]
	call	edx
	add	esp, 8
	cmp	esi, esp
	call	__RTC_CheckEsp
	mov	DWORD PTR _BorderSizeR$[ebp], eax
; Line 76
	mov	esi, esp
	push	0
	mov	eax, DWORD PTR _hObj$[ebp]
	push	eax
	mov	ecx, DWORD PTR _pSkinPrivate$[ebp]
	mov	edx, DWORD PTR [ecx]
	call	edx
	add	esp, 8
	cmp	esi, esp
	call	__RTC_CheckEsp
	mov	DWORD PTR _BorderSizeT$[ebp], eax
; Line 80
	mov	eax, DWORD PTR _hObj$[ebp]
	mov	DWORD PTR _ItemInfo$[ebp], eax
; Line 84
	push	0
	call	_WM__InitIVRSearch
	add	esp, 4
	test	eax, eax
	je	$LN5@Paint
$LN3@Paint:
; Line 85
	mov	DWORD PTR _ItemInfo$[ebp+16], 0
	mov	eax, DWORD PTR _ItemInfo$[ebp+16]
	mov	DWORD PTR _ItemInfo$[ebp+12], eax
; Line 86
	mov	eax, DWORD PTR _xSize$[ebp]
	sub	eax, 1
	mov	DWORD PTR _ItemInfo$[ebp+20], eax
; Line 87
	mov	eax, DWORD PTR _ySize$[ebp]
	sub	eax, 1
	mov	DWORD PTR _ItemInfo$[ebp+24], eax
; Line 91
	mov	DWORD PTR _ItemInfo$[ebp+4], 9
; Line 92
	mov	esi, esp
	lea	eax, DWORD PTR _ItemInfo$[ebp]
	push	eax
	call	DWORD PTR _pfDrawSkin$[ebp]
	add	esp, 4
	cmp	esi, esp
	call	__RTC_CheckEsp
; Line 96
	mov	eax, DWORD PTR _BorderSizeL$[ebp]
	mov	DWORD PTR _ItemInfo$[ebp+12], eax
; Line 97
	mov	eax, DWORD PTR _BorderSizeT$[ebp]
	add	eax, DWORD PTR _TitleHeight$[ebp]
	mov	DWORD PTR _ItemInfo$[ebp+16], eax
; Line 98
	mov	eax, DWORD PTR _xSize$[ebp]
	sub	eax, DWORD PTR _BorderSizeR$[ebp]
	sub	eax, 1
	mov	DWORD PTR _ItemInfo$[ebp+20], eax
; Line 99
	mov	eax, DWORD PTR _BorderSizeT$[ebp]
	add	eax, DWORD PTR _TitleHeight$[ebp]
	mov	ecx, DWORD PTR _SepHeight$[ebp]
	lea	edx, DWORD PTR [eax+ecx-1]
	mov	DWORD PTR _ItemInfo$[ebp+24], edx
; Line 100
	mov	DWORD PTR _ItemInfo$[ebp+4], 12		; 0000000cH
; Line 101
	mov	esi, esp
	lea	eax, DWORD PTR _ItemInfo$[ebp]
	push	eax
	call	DWORD PTR _pfDrawSkin$[ebp]
	add	esp, 4
	cmp	esi, esp
	call	__RTC_CheckEsp
; Line 105
	mov	eax, DWORD PTR _BorderSizeL$[ebp]
	mov	DWORD PTR _ItemInfo$[ebp+12], eax
; Line 106
	mov	eax, DWORD PTR _BorderSizeT$[ebp]
	mov	DWORD PTR _ItemInfo$[ebp+16], eax
; Line 107
	mov	eax, DWORD PTR _xSize$[ebp]
	sub	eax, DWORD PTR _BorderSizeR$[ebp]
	sub	eax, 1
	mov	DWORD PTR _ItemInfo$[ebp+20], eax
; Line 108
	mov	eax, DWORD PTR _TitleHeight$[ebp]
	mov	ecx, DWORD PTR _BorderSizeT$[ebp]
	lea	edx, DWORD PTR [ecx+eax-1]
	mov	DWORD PTR _ItemInfo$[ebp+24], edx
; Line 109
	mov	DWORD PTR _ItemInfo$[ebp+4], 3
; Line 110
	mov	esi, esp
	lea	eax, DWORD PTR _ItemInfo$[ebp]
	push	eax
	call	DWORD PTR _pfDrawSkin$[ebp]
	add	esp, 4
	cmp	esi, esp
	call	__RTC_CheckEsp
; Line 114
	lea	eax, DWORD PTR _ItemInfo$[ebp+20]
	push	eax
	lea	ecx, DWORD PTR _ItemInfo$[ebp+12]
	push	ecx
	mov	edx, DWORD PTR _hObj$[ebp]
	push	edx
	call	_FRAMEWIN__GetTitleLimits
	add	esp, 12					; 0000000cH
; Line 115
	push	2
	call	_GUI_SetTextMode
	add	esp, 4
; Line 116
	mov	eax, DWORD PTR _pFont$[ebp]
	push	eax
	call	_GUI_SetFont
	add	esp, 4
; Line 117
	mov	DWORD PTR _ItemInfo$[ebp+4], 16		; 00000010H
; Line 118
	mov	esi, esp
	lea	eax, DWORD PTR _ItemInfo$[ebp]
	push	eax
	call	DWORD PTR _pfDrawSkin$[ebp]
	add	esp, 4
	cmp	esi, esp
	call	__RTC_CheckEsp
; Line 119
	call	_WM__GetNextIVR
	test	eax, eax
	jne	$LN3@Paint
$LN5@Paint:
; Line 120
	push	edx
	mov	ecx, ebp
	push	eax
	lea	edx, DWORD PTR $LN9@Paint
	call	@_RTC_CheckStackVars@8
	pop	eax
	pop	edx
	pop	edi
	pop	esi
	pop	ebx
	add	esp, 364				; 0000016cH
	cmp	ebp, esp
	call	__RTC_CheckEsp
	mov	esp, ebp
	pop	ebp
	ret	0
	npad	3
$LN9@Paint:
	DD	1
	DD	$LN8@Paint
$LN8@Paint:
	DD	-84					; ffffffacH
	DD	32					; 00000020H
	DD	$LN7@Paint
$LN7@Paint:
	DB	73					; 00000049H
	DB	116					; 00000074H
	DB	101					; 00000065H
	DB	109					; 0000006dH
	DB	73					; 00000049H
	DB	110					; 0000006eH
	DB	102					; 00000066H
	DB	111					; 0000006fH
	DB	0
__Paint	ENDP
; Function compile flags: /Odtp /RTCsu /ZI
_TEXT	ENDS
;	COMDAT __Create
_TEXT	SEGMENT
_ItemInfo$ = -60					; size = 32
_pSkinPrivate$ = -20					; size = 4
_pObj$ = -8						; size = 4
_hObj$ = 8						; size = 4
__Create PROC						; COMDAT
; Line 126
	push	ebp
	mov	ebp, esp
	sub	esp, 256				; 00000100H
	push	ebx
	push	esi
	push	edi
	lea	edi, DWORD PTR [ebp-256]
	mov	ecx, 64					; 00000040H
	mov	eax, -858993460				; ccccccccH
	rep stosd
; Line 134
	mov	eax, DWORD PTR _hObj$[ebp]
	push	eax
	call	_FRAMEWIN_LockH
	add	esp, 4
	mov	DWORD PTR _pObj$[ebp], eax
; Line 135
	mov	eax, DWORD PTR _pObj$[ebp]
	mov	ecx, DWORD PTR [eax+96]
	mov	edx, DWORD PTR [ecx+8]
	mov	DWORD PTR _pSkinPrivate$[ebp], edx
; Line 136
	call	_GUI_ALLOC_UnlockH
	mov	DWORD PTR _pObj$[ebp], 0
; Line 140
	mov	DWORD PTR _ItemInfo$[ebp+4], 0
; Line 141
	mov	eax, DWORD PTR _hObj$[ebp]
	mov	DWORD PTR _ItemInfo$[ebp], eax
; Line 142
	mov	esi, esp
	lea	eax, DWORD PTR _ItemInfo$[ebp]
	push	eax
	mov	ecx, DWORD PTR _pSkinPrivate$[ebp]
	mov	edx, DWORD PTR [ecx+4]
	call	edx
	add	esp, 4
	cmp	esi, esp
	call	__RTC_CheckEsp
; Line 143
	push	edx
	mov	ecx, ebp
	push	eax
	lea	edx, DWORD PTR $LN5@Create
	call	@_RTC_CheckStackVars@8
	pop	eax
	pop	edx
	pop	edi
	pop	esi
	pop	ebx
	add	esp, 256				; 00000100H
	cmp	ebp, esp
	call	__RTC_CheckEsp
	mov	esp, ebp
	pop	ebp
	ret	0
	npad	1
$LN5@Create:
	DD	1
	DD	$LN4@Create
$LN4@Create:
	DD	-60					; ffffffc4H
	DD	32					; 00000020H
	DD	$LN3@Create
$LN3@Create:
	DB	73					; 00000049H
	DB	116					; 00000074H
	DB	101					; 00000065H
	DB	109					; 0000006dH
	DB	73					; 00000049H
	DB	110					; 0000006eH
	DB	102					; 00000066H
	DB	111					; 0000006fH
	DB	0
__Create ENDP
_TEXT	ENDS
PUBLIC	_FRAMEWIN_SetSkin
EXTRN	_WM_InvalidateWindow:PROC
EXTRN	_WM_SetHasTrans:PROC
EXTRN	_FRAMEWIN__UpdateButtons:PROC
EXTRN	_FRAMEWIN__UpdatePositions:PROC
; Function compile flags: /Odtp /RTCsu /ZI
;	COMDAT _FRAMEWIN_SetSkin
_TEXT	SEGMENT
_OldBorderSizeT$ = -68					; size = 4
_OldBorderSizeR$ = -56					; size = 4
_OldBorderSizeL$ = -44					; size = 4
_OldHeight$ = -32					; size = 4
_pSkinPrivate$ = -20					; size = 4
_pObj$ = -8						; size = 4
_hObj$ = 8						; size = 4
_pfDrawSkin$ = 12					; size = 4
_FRAMEWIN_SetSkin PROC					; COMDAT
; Line 171
	push	ebp
	mov	ebp, esp
	sub	esp, 264				; 00000108H
	push	ebx
	push	esi
	push	edi
	lea	edi, DWORD PTR [ebp-264]
	mov	ecx, 66					; 00000042H
	mov	eax, -858993460				; ccccccccH
	rep stosd
; Line 177
	mov	eax, DWORD PTR _hObj$[ebp]
	push	eax
	call	_FRAMEWIN_LockH
	add	esp, 4
	mov	DWORD PTR _pObj$[ebp], eax
; Line 178
	mov	eax, DWORD PTR _pObj$[ebp]
	mov	ecx, DWORD PTR [eax+96]
	mov	edx, DWORD PTR [ecx+8]
	mov	DWORD PTR _pSkinPrivate$[ebp], edx
; Line 179
	mov	eax, DWORD PTR _pObj$[ebp]
	push	eax
	call	_FRAMEWIN__CalcTitleHeight
	add	esp, 4
	mov	DWORD PTR _OldHeight$[ebp], eax
; Line 180
	call	_GUI_ALLOC_UnlockH
	mov	DWORD PTR _pObj$[ebp], 0
; Line 184
	mov	esi, esp
	push	1
	mov	eax, DWORD PTR _hObj$[ebp]
	push	eax
	mov	ecx, DWORD PTR _pSkinPrivate$[ebp]
	mov	edx, DWORD PTR [ecx]
	call	edx
	add	esp, 8
	cmp	esi, esp
	call	__RTC_CheckEsp
	mov	DWORD PTR _OldBorderSizeL$[ebp], eax
; Line 185
	mov	esi, esp
	push	3
	mov	eax, DWORD PTR _hObj$[ebp]
	push	eax
	mov	ecx, DWORD PTR _pSkinPrivate$[ebp]
	mov	edx, DWORD PTR [ecx]
	call	edx
	add	esp, 8
	cmp	esi, esp
	call	__RTC_CheckEsp
	mov	DWORD PTR _OldBorderSizeR$[ebp], eax
; Line 186
	mov	esi, esp
	push	0
	mov	eax, DWORD PTR _hObj$[ebp]
	push	eax
	mov	ecx, DWORD PTR _pSkinPrivate$[ebp]
	mov	edx, DWORD PTR [ecx]
	call	edx
	add	esp, 8
	cmp	esi, esp
	call	__RTC_CheckEsp
	mov	DWORD PTR _OldBorderSizeT$[ebp], eax
; Line 190
	mov	eax, DWORD PTR _hObj$[ebp]
	push	eax
	call	_FRAMEWIN_LockH
	add	esp, 4
	mov	DWORD PTR _pObj$[ebp], eax
; Line 191
	mov	eax, DWORD PTR _pObj$[ebp]
	mov	DWORD PTR [eax+96], OFFSET __Skin
; Line 195
	mov	eax, DWORD PTR _pObj$[ebp]
	mov	ecx, DWORD PTR _pfDrawSkin$[ebp]
	mov	DWORD PTR [eax+84], ecx
; Line 196
	call	_GUI_ALLOC_UnlockH
	mov	DWORD PTR _pObj$[ebp], 0
; Line 200
	mov	eax, DWORD PTR _hObj$[ebp]
	push	eax
	call	_FRAMEWIN__UpdatePositions
	add	esp, 4
; Line 201
	mov	eax, DWORD PTR _OldBorderSizeT$[ebp]
	push	eax
	mov	ecx, DWORD PTR _OldBorderSizeR$[ebp]
	push	ecx
	mov	edx, DWORD PTR _OldBorderSizeL$[ebp]
	push	edx
	mov	eax, DWORD PTR _OldHeight$[ebp]
	push	eax
	mov	ecx, DWORD PTR _hObj$[ebp]
	push	ecx
	call	_FRAMEWIN__UpdateButtons
	add	esp, 20					; 00000014H
; Line 202
	mov	eax, DWORD PTR _hObj$[ebp]
	push	eax
	call	_WM_SetHasTrans
	add	esp, 4
; Line 203
	mov	eax, DWORD PTR _hObj$[ebp]
	push	eax
	call	_WM_InvalidateWindow
	add	esp, 4
; Line 205
	pop	edi
	pop	esi
	pop	ebx
	add	esp, 264				; 00000108H
	cmp	ebp, esp
	call	__RTC_CheckEsp
	mov	esp, ebp
	pop	ebp
	ret	0
_FRAMEWIN_SetSkin ENDP
_TEXT	ENDS
PUBLIC	_FRAMEWIN_SetDefaultSkin
EXTRN	_FRAMEWIN__pSkinDefault:DWORD
; Function compile flags: /Odtp /RTCsu /ZI
;	COMDAT _FRAMEWIN_SetDefaultSkin
_TEXT	SEGMENT
_pfDrawSkin$ = 8					; size = 4
_FRAMEWIN_SetDefaultSkin PROC				; COMDAT
; Line 211
	push	ebp
	mov	ebp, esp
	sub	esp, 192				; 000000c0H
	push	ebx
	push	esi
	push	edi
	lea	edi, DWORD PTR [ebp-192]
	mov	ecx, 48					; 00000030H
	mov	eax, -858993460				; ccccccccH
	rep stosd
; Line 212
	mov	DWORD PTR _FRAMEWIN__pSkinDefault, OFFSET __Skin
; Line 213
	mov	eax, DWORD PTR _pfDrawSkin$[ebp]
	mov	DWORD PTR _FRAMEWIN__DefaultProps+28, eax
; Line 214
	pop	edi
	pop	esi
	pop	ebx
	mov	esp, ebp
	pop	ebp
	ret	0
_FRAMEWIN_SetDefaultSkin ENDP
_TEXT	ENDS
END
