; Listing generated by Microsoft (R) Optimizing Compiler Version 16.00.40219.01 

	TITLE	C:\DUII\Simulation\GUI\Widget\FRAMEWIN__UpdateButtons.c
	.686P
	.XMM
	include listing.inc
	.model	flat

INCLUDELIB LIBCMT
INCLUDELIB OLDNAMES

PUBLIC	_FRAMEWIN__UpdateButtons
EXTRN	_WM_GetNextSibling:PROC
EXTRN	_WM_MoveWindow:PROC
EXTRN	_WM_ResizeWindow:PROC
EXTRN	_GUI_ALLOC_LockH:PROC
EXTRN	_WM_GetFirstChild:PROC
EXTRN	_GUI_ALLOC_UnlockH:PROC
EXTRN	_FRAMEWIN__CalcTitleHeight:PROC
EXTRN	_FRAMEWIN_LockH:PROC
EXTRN	__RTC_CheckEsp:PROC
EXTRN	__RTC_Shutdown:PROC
EXTRN	__RTC_InitBase:PROC
;	COMDAT rtc$TMZ
; File c:\duii\simulation\gui\widget\framewin__updatebuttons.c
rtc$TMZ	SEGMENT
__RTC_Shutdown.rtc$TMZ DD FLAT:__RTC_Shutdown
rtc$TMZ	ENDS
;	COMDAT rtc$IMZ
rtc$IMZ	SEGMENT
__RTC_InitBase.rtc$IMZ DD FLAT:__RTC_InitBase
; Function compile flags: /Odtp /RTCsu /ZI
rtc$IMZ	ENDS
;	COMDAT _FRAMEWIN__UpdateButtons
_TEXT	SEGMENT
tv158 = -328						; size = 4
tv146 = -328						; size = 4
_pSkinPrivate$ = -128					; size = 4
_nl$ = -116						; size = 4
_nr$ = -104						; size = 4
_Diff$ = -92						; size = 4
_BorderSizeT$ = -80					; size = 4
_BorderSizeR$ = -68					; size = 4
_BorderSizeL$ = -56					; size = 4
_Height$ = -44						; size = 4
_pChild$ = -32						; size = 4
_hChild$ = -20						; size = 4
_pObj$ = -8						; size = 4
_hObj$ = 8						; size = 4
_OldHeight$ = 12					; size = 4
_OldBorderSizeL$ = 16					; size = 4
_OldBorderSizeR$ = 20					; size = 4
_OldBorderSizeT$ = 24					; size = 4
_FRAMEWIN__UpdateButtons PROC				; COMDAT
; Line 44
	push	ebp
	mov	ebp, esp
	sub	esp, 328				; 00000148H
	push	ebx
	push	esi
	push	edi
	lea	edi, DWORD PTR [ebp-328]
	mov	ecx, 82					; 00000052H
	mov	eax, -858993460				; ccccccccH
	rep stosd
; Line 51
	mov	eax, DWORD PTR _hObj$[ebp]
	push	eax
	call	_FRAMEWIN_LockH
	add	esp, 4
	mov	DWORD PTR _pObj$[ebp], eax
; Line 52
	mov	eax, DWORD PTR _pObj$[ebp]
	mov	ecx, DWORD PTR [eax+96]
	mov	edx, DWORD PTR [ecx+8]
	mov	DWORD PTR _pSkinPrivate$[ebp], edx
; Line 53
	mov	eax, DWORD PTR _pObj$[ebp]
	push	eax
	call	_FRAMEWIN__CalcTitleHeight
	add	esp, 4
	mov	DWORD PTR _Height$[ebp], eax
; Line 54
	call	_GUI_ALLOC_UnlockH
	mov	DWORD PTR _pObj$[ebp], 0
; Line 58
	mov	esi, esp
	push	1
	mov	eax, DWORD PTR _hObj$[ebp]
	push	eax
	mov	ecx, DWORD PTR _pSkinPrivate$[ebp]
	mov	edx, DWORD PTR [ecx]
	call	edx
	add	esp, 8
	cmp	esi, esp
	call	__RTC_CheckEsp
	mov	DWORD PTR _BorderSizeL$[ebp], eax
; Line 59
	mov	esi, esp
	push	3
	mov	eax, DWORD PTR _hObj$[ebp]
	push	eax
	mov	ecx, DWORD PTR _pSkinPrivate$[ebp]
	mov	edx, DWORD PTR [ecx]
	call	edx
	add	esp, 8
	cmp	esi, esp
	call	__RTC_CheckEsp
	mov	DWORD PTR _BorderSizeR$[ebp], eax
; Line 60
	mov	esi, esp
	push	0
	mov	eax, DWORD PTR _hObj$[ebp]
	push	eax
	mov	ecx, DWORD PTR _pSkinPrivate$[ebp]
	mov	edx, DWORD PTR [ecx]
	call	edx
	add	esp, 8
	cmp	esi, esp
	call	__RTC_CheckEsp
	mov	DWORD PTR _BorderSizeT$[ebp], eax
; Line 67
	mov	eax, DWORD PTR _Height$[ebp]
	cmp	eax, DWORD PTR _OldHeight$[ebp]
	jne	SHORT $LN9@FRAMEWIN__
	mov	eax, DWORD PTR _BorderSizeL$[ebp]
	cmp	eax, DWORD PTR _OldBorderSizeL$[ebp]
	jne	SHORT $LN9@FRAMEWIN__
	mov	eax, DWORD PTR _BorderSizeR$[ebp]
	cmp	eax, DWORD PTR _OldBorderSizeR$[ebp]
	jne	SHORT $LN9@FRAMEWIN__
	mov	eax, DWORD PTR _BorderSizeT$[ebp]
	cmp	eax, DWORD PTR _OldBorderSizeT$[ebp]
	je	$LN11@FRAMEWIN__
$LN9@FRAMEWIN__:
; Line 68
	mov	eax, DWORD PTR _Height$[ebp]
	sub	eax, DWORD PTR _OldHeight$[ebp]
	mov	DWORD PTR _Diff$[ebp], eax
; Line 69
	mov	DWORD PTR _nl$[ebp], 0
	mov	eax, DWORD PTR _nl$[ebp]
	mov	DWORD PTR _nr$[ebp], eax
; Line 70
	mov	eax, DWORD PTR _hObj$[ebp]
	push	eax
	call	_WM_GetFirstChild
	add	esp, 4
	mov	DWORD PTR _hChild$[ebp], eax
$LN8@FRAMEWIN__:
; Line 71
	cmp	DWORD PTR _hChild$[ebp], 0
	je	$LN11@FRAMEWIN__
; Line 72
	mov	eax, DWORD PTR _hChild$[ebp]
	push	eax
	call	_GUI_ALLOC_LockH
	add	esp, 4
	mov	DWORD PTR _pChild$[ebp], eax
; Line 74
	mov	eax, DWORD PTR _pChild$[ebp]
	mov	ecx, DWORD PTR [eax+40]
	and	ecx, 128				; 00000080H
	je	SHORT $LN4@FRAMEWIN__
	mov	eax, DWORD PTR _pChild$[ebp]
	mov	ecx, DWORD PTR [eax+40]
	and	ecx, 512				; 00000200H
	je	SHORT $LN5@FRAMEWIN__
$LN4@FRAMEWIN__:
	mov	eax, DWORD PTR _pChild$[ebp]
	mov	ecx, DWORD PTR [eax+40]
	and	ecx, 512				; 00000200H
	je	$LN6@FRAMEWIN__
	mov	eax, DWORD PTR _pChild$[ebp]
	mov	ecx, DWORD PTR [eax+40]
	and	ecx, 128				; 00000080H
	jne	$LN6@FRAMEWIN__
$LN5@FRAMEWIN__:
; Line 75
	cmp	DWORD PTR _Diff$[ebp], 0
	je	SHORT $LN3@FRAMEWIN__
; Line 76
	mov	eax, DWORD PTR _Diff$[ebp]
	push	eax
	mov	ecx, DWORD PTR _Diff$[ebp]
	push	ecx
	mov	edx, DWORD PTR _hChild$[ebp]
	push	edx
	call	_WM_ResizeWindow
	add	esp, 12					; 0000000cH
$LN3@FRAMEWIN__:
; Line 78
	mov	eax, DWORD PTR _pChild$[ebp]
	mov	ecx, DWORD PTR [eax+40]
	and	ecx, 128				; 00000080H
	je	SHORT $LN2@FRAMEWIN__
; Line 81
	mov	eax, DWORD PTR _OldBorderSizeR$[ebp]
	sub	eax, DWORD PTR _BorderSizeR$[ebp]
	mov	ecx, DWORD PTR _Diff$[ebp]
	imul	ecx, DWORD PTR _nr$[ebp]
	sub	eax, ecx
	mov	DWORD PTR tv146[ebp], eax
	mov	edx, DWORD PTR _nr$[ebp]
	add	edx, 1
	mov	DWORD PTR _nr$[ebp], edx
	mov	eax, DWORD PTR _BorderSizeT$[ebp]
	sub	eax, DWORD PTR _OldBorderSizeT$[ebp]
	push	eax
	mov	ecx, DWORD PTR tv146[ebp]
	push	ecx
	mov	edx, DWORD PTR _hChild$[ebp]
	push	edx
	call	_WM_MoveWindow
	add	esp, 12					; 0000000cH
$LN2@FRAMEWIN__:
; Line 83
	mov	eax, DWORD PTR _pChild$[ebp]
	mov	ecx, DWORD PTR [eax+40]
	and	ecx, 512				; 00000200H
	je	SHORT $LN6@FRAMEWIN__
; Line 86
	mov	eax, DWORD PTR _BorderSizeL$[ebp]
	sub	eax, DWORD PTR _OldBorderSizeL$[ebp]
	mov	ecx, DWORD PTR _Diff$[ebp]
	imul	ecx, DWORD PTR _nl$[ebp]
	add	eax, ecx
	mov	DWORD PTR tv158[ebp], eax
	mov	edx, DWORD PTR _nl$[ebp]
	add	edx, 1
	mov	DWORD PTR _nl$[ebp], edx
	mov	eax, DWORD PTR _BorderSizeT$[ebp]
	sub	eax, DWORD PTR _OldBorderSizeT$[ebp]
	push	eax
	mov	ecx, DWORD PTR tv158[ebp]
	push	ecx
	mov	edx, DWORD PTR _hChild$[ebp]
	push	edx
	call	_WM_MoveWindow
	add	esp, 12					; 0000000cH
$LN6@FRAMEWIN__:
; Line 89
	call	_GUI_ALLOC_UnlockH
	mov	DWORD PTR _pChild$[ebp], 0
; Line 90
	mov	eax, DWORD PTR _hChild$[ebp]
	push	eax
	call	_WM_GetNextSibling
	add	esp, 4
	mov	DWORD PTR _hChild$[ebp], eax
; Line 91
	jmp	$LN8@FRAMEWIN__
$LN11@FRAMEWIN__:
; Line 93
	pop	edi
	pop	esi
	pop	ebx
	add	esp, 328				; 00000148H
	cmp	ebp, esp
	call	__RTC_CheckEsp
	mov	esp, ebp
	pop	ebp
	ret	0
_FRAMEWIN__UpdateButtons ENDP
_TEXT	ENDS
END
