; Listing generated by Microsoft (R) Optimizing Compiler Version 16.00.40219.01 

	TITLE	C:\DUII\DUII\Graphics\GearRatio.c
	.686P
	.XMM
	include listing.inc
	.model	flat

INCLUDELIB LIBCMT
INCLUDELIB OLDNAMES

PUBLIC	_bmGearRatio
CONST	SEGMENT
_ColorsGearRatio DD 00H
	DD	02H
	DD	0fefefeH
	DD	0111111H
	DD	0353635H
	DD	0c0d0dH
	DD	020204H
	DD	0919191H
	DD	0a0a0aH
	DD	0656565H
	DD	0858585H
	DD	0282828H
	DD	0898989H
	DD	0494949H
	DD	01c1c1cH
	DD	02a2a2aH
	DD	0999999H
	DD	0c9c9c9H
	DD	07d7d7dH
	DD	040406H
	DD	0757575H
	DD	0959595H
	DD	06d6d6dH
	DD	080808H
	DD	08d8d8dH
	DD	05a5a5aH
	DD	0a1a1a1H
	DD	01e1e1eH
	DD	0555555H
	DD	0a5a5a5H
	DD	0141414H
	DD	0383838H
	DD	060606H
	DD	0161616H
	DD	03c3c3cH
	DD	0323232H
	DD	0a9a9a9H
	DD	0454545H
	DD	0505050H
	DD	0adadadH
	DD	01a1a1aH
	DD	0262626H
	DD	02c2c2cH
	DD	0686868H
	DD	0222221H
	DD	0b9b9b9H
	DD	0222222H
	DD	020202H
	DD	0787878H
	DD	05e5e5eH
	DD	0181818H
	DD	0828282H
	DD	040404H
	DD	0242424H
	DD	0626262H
	DD	0808080H
	DD	070708H
	DD	0707070H
	DD	07a7a7aH
	DD	09090aH
	DD	03e3e3eH
	DD	0d9d9d9H
	DD	05c5c5cH
	DD	0202020H
	DD	0a0a0cH
	DD	0606060H
	DD	06a6a6aH
	DD	0f0f10H
	DD	0727272H
	DD	0313231H
	DD	0525252H
	DD	0ddddddH
	DD	02d2e2dH
	DD	0585858H
	DD	02f302fH
	DD	04e4e4eH
	DD	06a6a69H
	DD	09e9e9eH
	DD	0c1c1c1H
	DD	04c4c4cH
	DD	0c5c5c5H
	DD	0cdcdcdH
	DD	0d1d1d1H
	DD	0646262H
	DD	0171817H
	DD	09c9c9cH
	DD	0b4b4b4H
	DD	0424242H
	DD	0b2b2b2H
	DD	03a3a3aH
	DD	0b0b0b0H
	DD	0181817H
	DD	0d5d5d5H
	DD	0e1e1e1H
	DD	0e5e5e5H
	DD	0bcbcbcH
	DD	0404040H
	DD	030302fH
	DD	0b6b6b6H
	DD	0383737H
	DD	0f9f9f9H
	DD	0f1f1f1H
	DD	0e9e9e9H
	DD	0bebebeH
	DD	0303030H
	DD	0f5f5f5H
	DD	0161618H
	DD	02e2e2eH
	DD	0edededH
	DD	0151516H
	DD	05a5656H
	DD	018181aH
	DD	02b2c2bH
	DD	0343433H
	DD	04c4c4aH
	DD	0555252H
	DD	05c5858H
	DD	0151615H
	DD	0151616H
	DD	01a1a1cH
	DD	0242423H
	DD	0252625H
	DD	0262625H
	DD	0252526H
	DD	0282827H
	DD	0292a29H
	DD	02e2e2dH
	DD	0313132H
	DD	0383837H
	DD	03f3c3cH
	DD	0494746H
	DD	04c4949H
	DD	0626060H
	DD	0626261H
	DD	0646364H
	DD	050606H
	DD	0b0c0cH
	DD	0f1010H
	DD	0141413H
	DD	0131314H
	DD	01a1a19H
	DD	01f201fH
	DD	020201fH
	DD	0212221H
	DD	0272827H
	DD	0272728H
	DD	0312f2fH
	DD	0323231H
	DD	03c3a3aH
	DD	03d3d3eH
	DD	0403d3dH
	DD	03e3e40H
	DD	0454343H
	DD	0444443H
	DD	0484847H
	DD	05a5858H
	DD	05d5d5eH
	DD	0686867H
	DD	0717172H
	DD	0787272H
	DD	08c8b8bH
	DD	09c9c9bH
	DD	092a1a1H
	DD	040403H
	DD	030405H
	DD	060506H
	DD	080807H
	DD	0a090bH
	DD	0b0c0bH
	DD	0c0c0bH
	DD	0100f0fH
	DD	010100fH
	DD	0131413H
	DD	0161615H
	DD	01c1b1bH
	DD	01c1c1bH
	DD	01d1d1eH
	DD	01f1f20H
	DD	0212122H
	DD	0232423H
	DD	0232325H
	DD	0232424H
	DD	0252626H
	DD	0292727H
	DD	0232f2fH
	DD	02a2929H
	DD	02c2c2bH
	DD	02b2c2cH
	DD	02d2d2eH
	DD	02f2f30H
	DD	0263434H
	DD	0353232H
	DD	0333433H
	DD	0343334H
	DD	0373837H
	DD	0373738H
	DD	03b3939H
	DD	03a3a39H
	DD	039393aH
	DD	03c3c3bH
	DD	03b3b3cH
	DD	03f4040H
	DD	0434344H
	DD	04d4d4eH
	DD	0524e4eH
	DD	04f4f50H
	DD	0535050H
	DD	05c5757H
	DD	0575858H
	DD	05a5a59H
	DD	0605f5fH
	DD	05f5f60H
	DD	0605f60H
	DD	0576666H
	DD	0616162H
	DD	06a6565H
	DD	06d6767H
	DD	0676768H
	DD	0606e6eH
	DD	06a6969H
	DD	0696a69H
	DD	069696aH
	DD	0696a6aH
	DD	06c6b6bH
	DD	06c6c6bH
	DD	0736d6dH
	DD	0756f6fH
	DD	06f6f70H
	DD	0727171H
	DD	0767070H
	DD	0747374H
	DD	07a7474H
	DD	0777778H
	DD	07a7979H
	DD	07b7b7cH
	DD	0838483H
	DD	0848483H
	DD	0838484H
	DD	0878887H
	DD	0808f8fH
	DD	090908fH
	DD	0839292H
	DD	0979798H
	DD	09d9d9eH
	DD	09fa0a0H
	DD	0acacabH
	DD	0b1b1b2H
	DD	0b3b3b4H
	DD	0b6b5b5H
	DD	0bdbebdH
	DD	0bdbdbeH
	DD	0bfc0bfH
	DD	0c3c4c3H
	DD	0c8c7c7H
	DD	0d8d8d7H
	DD	0fbfcfcH
_PalGearRatio DD 0100H
	DB	00H
	ORG $+3
	DD	FLAT:_ColorsGearRatio
_bmGearRatio DW	07fH
	DW	073H
	DW	07fH
	DW	08H
	DD	FLAT:_acGearRatio
	DD	FLAT:_PalGearRatio
	ORG $+4
_acGearRatio DB	00H
	DB	00H
	DB	00H
	DB	00H
	DB	00H
	DB	00H
	DB	00H
	DB	00H
	DB	00H
	DB	00H
	DB	00H
	DB	00H
	DB	00H
	DB	00H
	DB	00H
	DB	00H
	DB	00H
	DB	00H
	DB	00H
	DB	00H
	DB	00H
	DB	00H
	DB	00H
	DB	00H
	DB	00H
	DB	00H
	DB	00H
	DB	00H
	DB	00H
	DB	00H
	DB	00H
	DB	00H
	DB	00H
	DB	00H
	DB	00H
	DB	00H
	DB	00H
	DB	00H
	DB	00H
	DB	00H
	DB	00H
	DB	00H
	DB	00H
	DB	00H
	DB	00H
	DB	00H
	DB	00H
	DB	00H
	DB	00H
	DB	00H
	DB	00H
	DB	00H
	DB	00H
	DB	00H
	DB	00H
	DB	00H
	DB	00H
	DB	00H
	DB	00H
	DB	00H
	DB	00H
	DB	00H
	DB	00H
	DB	00H
	DB	00H
	DB	00H
	DB	00H
	DB	00H
	DB	00H
	DB	00H
	DB	00H
	DB	00H
	DB	00H
	DB	00H
	DB	00H
	DB	00H
	DB	00H
	DB	00H
	DB	00H
	DB	00H
	DB	00H
	DB	00H
	DB	00H
	DB	00H
	DB	00H
	DB	00H
	DB	00H
	DB	00H
	DB	00H
	DB	00H
	DB	00H
	DB	00H
	DB	00H
	DB	00H
	DB	00H
	DB	00H
	DB	00H
	DB	00H
	DB	00H
	DB	00H
	DB	00H
	DB	00H
	DB	00H
	DB	00H
	DB	00H
	DB	00H
	DB	00H
	DB	00H
	DB	00H
	DB	00H
	DB	00H
	DB	00H
	DB	00H
	DB	00H
	DB	00H
	DB	00H
	DB	00H
	DB	00H
	DB	00H
	DB	00H
	DB	00H
	DB	00H
	DB	00H
	DB	00H
	DB	00H
	DB	00H
	DB	00H
	DB	00H
	DB	00H
	DB	00H
	DB	00H
	DB	00H
	DB	00H
	DB	00H
	DB	00H
	DB	00H
	DB	00H
	DB	00H
	DB	00H
	DB	00H
	DB	00H
	DB	00H
	DB	00H
	DB	00H
	DB	00H
	DB	00H
	DB	00H
	DB	00H
	DB	00H
	DB	00H
	DB	00H
	DB	00H
	DB	00H
	DB	00H
	DB	00H
	DB	00H
	DB	00H
	DB	00H
	DB	00H
	DB	00H
	DB	00H
	DB	00H
	DB	00H
	DB	00H
	DB	00H
	DB	00H
	DB	00H
	DB	00H
	DB	00H
	DB	00H
	DB	00H
	DB	00H
	DB	00H
	DB	00H
	DB	00H
	DB	00H
	DB	00H
	DB	00H
	DB	00H
	DB	00H
	DB	00H
	DB	00H
	DB	00H
	DB	00H
	DB	00H
	DB	00H
	DB	00H
	DB	00H
	DB	00H
	DB	00H
	DB	00H
	DB	00H
	DB	00H
	DB	00H
	DB	00H
	DB	00H
	DB	00H
	DB	00H
	DB	00H
	DB	00H
	DB	00H
	DB	00H
	DB	00H
	DB	00H
	DB	00H
	DB	00H
	DB	00H
	DB	00H
	DB	00H
	DB	00H
	DB	00H
	DB	00H
	DB	00H
	DB	00H
	DB	00H
	DB	00H
	DB	00H
	DB	00H
	DB	00H
	DB	00H
	DB	00H
	DB	00H
	DB	00H
	DB	00H
	DB	00H
	DB	00H
	DB	00H
	DB	00H
	DB	00H
	DB	00H
	DB	00H
	DB	00H
	DB	00H
	DB	00H
	DB	00H
	DB	00H
	DB	00H
	DB	00H
	DB	00H
	DB	00H
	DB	00H
	DB	00H
	DB	00H
	DB	00H
	DB	00H
	DB	00H
	DB	00H
	DB	00H
	DB	00H
	DB	00H
	DB	00H
	DB	00H
	DB	00H
	DB	00H
	DB	00H
	DB	00H
	DB	00H
	DB	00H
	DB	00H
	DB	00H
	DB	00H
	DB	00H
	DB	00H
	DB	00H
	DB	00H
	DB	00H
	DB	00H
	DB	00H
	DB	00H
	DB	00H
	DB	00H
	DB	00H
	DB	00H
	DB	00H
	DB	00H
	DB	00H
	DB	00H
	DB	00H
	DB	00H
	DB	00H
	DB	00H
	DB	00H
	DB	00H
	DB	00H
	DB	00H
	DB	00H
	DB	00H
	DB	00H
	DB	00H
	DB	00H
	DB	00H
	DB	00H
	DB	00H
	DB	00H
	DB	00H
	DB	00H
	DB	00H
	DB	00H
	DB	00H
	DB	00H
	DB	00H
	DB	00H
	DB	00H
	DB	00H
	DB	00H
	DB	00H
	DB	00H
	DB	00H
	DB	00H
	DB	00H
	DB	00H
	DB	00H
	DB	00H
	DB	00H
	DB	00H
	DB	00H
	DB	00H
	DB	00H
	DB	00H
	DB	00H
	DB	00H
	DB	00H
	DB	00H
	DB	00H
	DB	00H
	DB	00H
	DB	00H
	DB	00H
	DB	00H
	DB	00H
	DB	00H
	DB	00H
	DB	00H
	DB	00H
	DB	00H
	DB	00H
	DB	00H
	DB	00H
	DB	00H
	DB	00H
	DB	00H
	DB	00H
	DB	00H
	DB	00H
	DB	00H
	DB	00H
	DB	00H
	DB	00H
	DB	00H
	DB	00H
	DB	00H
	DB	00H
	DB	00H
	DB	00H
	DB	00H
	DB	00H
	DB	00H
	DB	00H
	DB	00H
	DB	00H
	DB	00H
	DB	00H
	DB	00H
	DB	00H
	DB	00H
	DB	00H
	DB	00H
	DB	00H
	DB	00H
	DB	00H
	DB	00H
	DB	00H
	DB	00H
	DB	00H
	DB	00H
	DB	00H
	DB	00H
	DB	00H
	DB	00H
	DB	00H
	DB	00H
	DB	00H
	DB	00H
	DB	00H
	DB	00H
	DB	00H
	DB	00H
	DB	00H
	DB	00H
	DB	00H
	DB	00H
	DB	00H
	DB	00H
	DB	00H
	DB	00H
	DB	00H
	DB	00H
	DB	00H
	DB	00H
	DB	00H
	DB	00H
	DB	00H
	DB	00H
	DB	00H
	DB	00H
	DB	00H
	DB	00H
	DB	00H
	DB	00H
	DB	00H
	DB	00H
	DB	00H
	DB	00H
	DB	00H
	DB	00H
	DB	00H
	DB	00H
	DB	00H
	DB	00H
	DB	00H
	DB	00H
	DB	00H
	DB	00H
	DB	00H
	DB	00H
	DB	00H
	DB	00H
	DB	00H
	DB	00H
	DB	00H
	DB	00H
	DB	00H
	DB	00H
	DB	00H
	DB	00H
	DB	00H
	DB	00H
	DB	00H
	DB	00H
	DB	00H
	DB	00H
	DB	00H
	DB	00H
	DB	00H
	DB	00H
	DB	00H
	DB	00H
	DB	00H
	DB	00H
	DB	00H
	DB	00H
	DB	00H
	DB	00H
	DB	00H
	DB	00H
	DB	00H
	DB	00H
	DB	00H
	DB	00H
	DB	00H
	DB	00H
	DB	00H
	DB	00H
	DB	00H
	DB	00H
	DB	00H
	DB	00H
	DB	00H
	DB	00H
	DB	00H
	DB	00H
	DB	00H
	DB	00H
	DB	00H
	DB	00H
	DB	00H
	DB	00H
	DB	00H
	DB	00H
	DB	00H
	DB	00H
	DB	00H
	DB	00H
	DB	00H
	DB	00H
	DB	00H
	DB	00H
	DB	00H
	DB	00H
	DB	00H
	DB	00H
	DB	00H
	DB	00H
	DB	00H
	DB	00H
	DB	00H
	DB	00H
	DB	00H
	DB	00H
	DB	00H
	DB	00H
	DB	00H
	DB	00H
	DB	00H
	DB	00H
	DB	00H
	DB	00H
	DB	00H
	DB	00H
	DB	00H
	DB	00H
	DB	00H
	DB	00H
	DB	00H
	DB	00H
	DB	00H
	DB	00H
	DB	00H
	DB	00H
	DB	00H
	DB	00H
	DB	00H
	DB	00H
	DB	00H
	DB	02fH
	DB	020H
	DB	00H
	DB	00H
	DB	08H
	DB	060H
	DB	028H
	DB	00H
	DB	00H
	DB	00H
	DB	00H
	DB	00H
	DB	00H
	DB	00H
	DB	00H
	DB	00H
	DB	00H
	DB	00H
	DB	00H
	DB	00H
	DB	00H
	DB	00H
	DB	00H
	DB	00H
	DB	00H
	DB	00H
	DB	00H
	DB	00H
	DB	00H
	DB	00H
	DB	00H
	DB	00H
	DB	00H
	DB	00H
	DB	00H
	DB	00H
	DB	00H
	DB	00H
	DB	00H
	DB	00H
	DB	00H
	DB	00H
	DB	00H
	DB	00H
	DB	00H
	DB	00H
	DB	00H
	DB	00H
	DB	06bH
	DB	08fH
	DB	00H
	DB	087H
	DB	060H
	DB	023H
	DB	00H
	DB	00H
	DB	087H
	DB	020H
	DB	00H
	DB	00H
	DB	00H
	DB	00H
	DB	00H
	DB	00H
	DB	00H
	DB	00H
	DB	00H
	DB	00H
	DB	00H
	DB	00H
	DB	00H
	DB	00H
	DB	00H
	DB	00H
	DB	00H
	DB	00H
	DB	00H
	DB	00H
	DB	00H
	DB	00H
	DB	00H
	DB	00H
	DB	00H
	DB	00H
	DB	00H
	DB	00H
	DB	00H
	DB	00H
	DB	00H
	DB	00H
	DB	00H
	DB	00H
	DB	00H
	DB	00H
	DB	00H
	DB	00H
	DB	00H
	DB	00H
	DB	00H
	DB	00H
	DB	00H
	DB	00H
	DB	00H
	DB	00H
	DB	00H
	DB	00H
	DB	00H
	DB	00H
	DB	00H
	DB	00H
	DB	00H
	DB	00H
	DB	00H
	DB	00H
	DB	00H
	DB	00H
	DB	00H
	DB	06dH
	DB	070H
	DB	0fH
	DB	0fH
	DB	0fH
	DB	0fH
	DB	0fH
	DB	0fH
	DB	0fH
	DB	07dH
	DB	03cH
	DB	04bH
	DB	023H
	DB	01fH
	DB	044H
	DB	056H
	DB	04dH
	DB	0c8H
	DB	029H
	DB	07dH
	DB	0fH
	DB	0fH
	DB	0fH
	DB	0fH
	DB	0fH
	DB	0fH
	DB	0fH
	DB	0fH
	DB	0fH
	DB	0fH
	DB	0fH
	DB	0fH
	DB	0fH
	DB	0fH
	DB	0fH
	DB	0fH
	DB	0fH
	DB	0fH
	DB	0fH
	DB	0fH
	DB	0fH
	DB	0fH
	DB	0fH
	DB	0fH
	DB	0fH
	DB	0fH
	DB	0fH
	DB	0fH
	DB	0fH
	DB	070H
	DB	0fH
	DB	0bH
	DB	0bH
	DB	048H
	DB	039H
	DB	046H
	DB	070H
	DB	0bH
	DB	030H
	DB	0f6H
	DB	0dbH
	DB	041H
	DB	044H
	DB	05fH
	DB	049H
	DB	07dH
	DB	026H
	DB	037H
	DB	023H
	DB	070H
	DB	068H
	DB	06bH
	DB	0bH
	DB	0fH
	DB	0fH
	DB	0fH
	DB	0fH
	DB	0fH
	DB	0fH
	DB	0fH
	DB	0fH
	DB	0fH
	DB	0fH
	DB	0fH
	DB	0fH
	DB	0fH
	DB	0fH
	DB	0fH
	DB	0fH
	DB	0fH
	DB	0fH
	DB	0fH
	DB	0fH
	DB	0fH
	DB	0fH
	DB	0fH
	DB	0fH
	DB	0fH
	DB	0fH
	DB	0fH
	DB	0fH
	DB	0fH
	DB	0fH
	DB	0fH
	DB	0fH
	DB	0fH
	DB	0fH
	DB	0fH
	DB	0fH
	DB	0fH
	DB	0fH
	DB	0fH
	DB	0fH
	DB	0fH
	DB	0fH
	DB	0fH
	DB	01bH
	DB	02fH
	DB	00H
	DB	00H
	DB	00H
	DB	00H
	DB	00H
	DB	00H
	DB	00H
	DB	00H
	DB	031H
	DB	0fdH
	DB	051H
	DB	011H
	DB	011H
	DB	011H
	DB	011H
	DB	011H
	DB	011H
	DB	011H
	DB	0f9H
	DB	0e0H
	DB	01cH
	DB	037H
	DB	062H
	DB	027H
	DB	015H
	DB	0f6H
	DB	052H
	DB	051H
	DB	0fbH
	DB	0fdH
	DB	011H
	DB	011H
	DB	011H
	DB	011H
	DB	011H
	DB	011H
	DB	011H
	DB	011H
	DB	011H
	DB	011H
	DB	011H
	DB	011H
	DB	011H
	DB	011H
	DB	011H
	DB	011H
	DB	011H
	DB	011H
	DB	011H
	DB	011H
	DB	011H
	DB	011H
	DB	011H
	DB	011H
	DB	0fdH
	DB	050H
	DB	0fdH
	DB	050H
	DB	04eH
	DB	052H
	DB	047H
	DB	051H
	DB	0cH
	DB	042H
	DB	05cH
	DB	047H
	DB	0f8H
	DB	026H
	DB	07H
	DB	05eH
	DB	0fcH
	DB	019H
	DB	033H
	DB	05eH
	DB	051H
	DB	0d9H
	DB	024H
	DB	05dH
	DB	050H
	DB	015H
	DB	051H
	DB	011H
	DB	0fcH
	DB	011H
	DB	050H
	DB	0fdH
	DB	011H
	DB	011H
	DB	011H
	DB	011H
	DB	011H
	DB	011H
	DB	011H
	DB	011H
	DB	011H
	DB	011H
	DB	011H
	DB	011H
	DB	011H
	DB	011H
	DB	011H
	DB	011H
	DB	011H
	DB	011H
	DB	011H
	DB	011H
	DB	011H
	DB	011H
	DB	011H
	DB	011H
	DB	011H
	DB	011H
	DB	011H
	DB	011H
	DB	011H
	DB	011H
	DB	011H
	DB	011H
	DB	011H
	DB	011H
	DB	011H
	DB	011H
	DB	011H
	DB	011H
	DB	011H
	DB	0fcH
	DB	0eeH
	DB	043H
	DB	00H
	DB	00H
	DB	00H
	DB	00H
	DB	00H
	DB	00H
	DB	0bH
	DB	0f8H
	DB	01dH
	DB	07H
	DB	07H
	DB	07H
	DB	07H
	DB	07H
	DB	07H
	DB	07H
	DB	07H
	DB	0aH
	DB	025H
	DB	026H
	DB	0cH
	DB	0cH
	DB	015H
	DB	01dH
	DB	07H
	DB	01aH
	DB	011H
	DB	050H
	DB	07H
	DB	0a0H
	DB	07H
	DB	07H
	DB	07H
	DB	07H
	DB	07H
	DB	07H
	DB	07H
	DB	07H
	DB	07H
	DB	07H
	DB	07H
	DB	07H
	DB	07H
	DB	07H
	DB	07H
	DB	07H
	DB	07H
	DB	07H
	DB	07H
	DB	07H
	DB	07H
	DB	07H
	DB	0f0H
	DB	0f2H
	DB	024H
	DB	01aH
	DB	058H
	DB	033H
	DB	086H
	DB	050H
	DB	05dH
	DB	0f9H
	DB	0dfH
	DB	0dH
	DB	067H
	DB	011H
	DB	01dH
	DB	0caH
	DB	0a1H
	DB	050H
	DB	027H
	DB	099H
	DB	01dH
	DB	011H
	DB	0f2H
	DB	0d0H
	DB	011H
	DB	011H
	DB	0e6H
	DB	01aH
	DB	047H
	DB	062H
	DB	010H
	DB	02dH
	DB	0f2H
	DB	0a0H
	DB	0f0H
	DB	07H
	DB	07H
	DB	07H
	DB	07H
	DB	07H
	DB	07H
	DB	07H
	DB	07H
	DB	07H
	DB	07H
	DB	07H
	DB	07H
	DB	07H
	DB	07H
	DB	07H
	DB	07H
	DB	07H
	DB	07H
	DB	07H
	DB	07H
	DB	07H
	DB	07H
	DB	07H
	DB	07H
	DB	07H
	DB	07H
	DB	07H
	DB	07H
	DB	07H
	DB	07H
	DB	07H
	DB	07H
	DB	07H
	DB	07H
	DB	07H
	DB	07H
	DB	07H
	DB	0f2H
	DB	01aH
	DB	099H
	DB	00H
	DB	00H
	DB	00H
	DB	00H
	DB	00H
	DB	00H
	DB	0dH
	DB	018H
	DB	042H
	DB	0dbH
	DB	04cH
	DB	04cH
	DB	04cH
	DB	04cH
	DB	04cH
	DB	04cH
	DB	04cH
	DB	085H
	DB	01cH
	DB	030H
	DB	030H
	DB	033H
	DB	018H
	DB	018H
	DB	01dH
	DB	015H
	DB	0f2H
	DB	0fbH
	DB	05fH
	DB	0e9H
	DB	0d6H
	DB	0dbH
	DB	04cH
	DB	04cH
	DB	04cH
	DB	04cH
	DB	04cH
	DB	04cH
	DB	04cH
	DB	04cH
	DB	04cH
	DB	04cH
	DB	04cH
	DB	04cH
	DB	04cH
	DB	04cH
	DB	04cH
	DB	04cH
	DB	04cH
	DB	02bH
	DB	0d9H
	DB	086H
	DB	09H
	DB	0e4H
	DB	0edH
	DB	0fdH
	DB	0feH
	DB	0f7H
	DB	014H
	DB	057H
	DB	010H
	DB	051H
	DB	0f9H
	DB	0eaH
	DB	0dH
	DB	0f8H
	DB	0fbH
	DB	0a1H
	DB	09aH
	DB	05aH
	DB	0f9H
	DB	0a0H
	DB	019H
	DB	02dH
	DB	02dH
	DB	0d2H
	DB	0f0H
	DB	0fdH
	DB	01aH
	DB	02bH
	DB	011H
	DB	0fcH
	DB	0dfH
	DB	062H
	DB	05aH
	DB	09eH
	DB	09eH
	DB	0d9H
	DB	02bH
	DB	04cH
	DB	04cH
	DB	04cH
	DB	04cH
	DB	04cH
	DB	04cH
	DB	04cH
	DB	04cH
	DB	04cH
	DB	04cH
	DB	04cH
	DB	04cH
	DB	04cH
	DB	04cH
	DB	04cH
	DB	04cH
	DB	04cH
	DB	04cH
	DB	04cH
	DB	04cH
	DB	04cH
	DB	04cH
	DB	04cH
	DB	04cH
	DB	04cH
	DB	04cH
	DB	04cH
	DB	04cH
	DB	04cH
	DB	04cH
	DB	04cH
	DB	04cH
	DB	04cH
	DB	04cH
	DB	04cH
	DB	042H
	DB	0dfH
	DB	099H
	DB	00H
	DB	00H
	DB	00H
	DB	00H
	DB	00H
	DB	00H
	DB	060H
	DB	030H
	DB	036H
	DB	086H
	DB	086H
	DB	086H
	DB	086H
	DB	086H
	DB	086H
	DB	086H
	DB	086H
	DB	0d1H
	DB	0e0H
	DB	0f2H
	DB	044H
	DB	0e6H
	DB	03aH
	DB	0cH
	DB	0eeH
	DB	055H
	DB	015H
	DB	018H
	DB	056H
	DB	04eH
	DB	0a0H
	DB	0d4H
	DB	031H
	DB	0d2H
	DB	036H
	DB	086H
	DB	086H
	DB	086H
	DB	086H
	DB	086H
	DB	086H
	DB	086H
	DB	086H
	DB	086H
	DB	086H
	DB	086H
	DB	086H
	DB	086H
	DB	036H
	DB	09dH
	DB	0eeH
	DB	07H
	DB	024H
	DB	07H
	DB	0cbH
	DB	04fH
	DB	0f3H
	DB	051H
	DB	0fbH
	DB	010H
	DB	0dH
	DB	037H
	DB	0fdH
	DB	0f9H
	DB	0ecH
	DB	01cH
	DB	02dH
	DB	05fH
	DB	0cH
	DB	041H
	DB	02dH
	DB	02dH
	DB	09H
	DB	0cH
	DB	02dH
	DB	010H
	DB	019H
	DB	02dH
	DB	02dH
	DB	09H
	DB	024H
	DB	0fbH
	DB	0ebH
	DB	0eeH
	DB	05cH
	DB	01dH
	DB	012H
	DB	010H
	DB	085H
	DB	084H
	DB	086H
	DB	086H
	DB	086H
	DB	086H
	DB	086H
	DB	086H
	DB	086H
	DB	086H
	DB	086H
	DB	086H
	DB	086H
	DB	086H
	DB	086H
	DB	086H
	DB	086H
	DB	086H
	DB	086H
	DB	086H
	DB	086H
	DB	086H
	DB	086H
	DB	086H
	DB	086H
	DB	086H
	DB	086H
	DB	086H
	DB	086H
	DB	086H
	DB	086H
	DB	086H
	DB	086H
	DB	086H
	DB	086H
	DB	086H
	DB	09H
	DB	086H
	DB	0c6H
	DB	00H
	DB	00H
	DB	00H
	DB	00H
	DB	00H
	DB	00H
	DB	0c8H
	DB	0e3H
	DB	0d1H
	DB	019H
	DB	019H
	DB	019H
	DB	019H
	DB	019H
	DB	019H
	DB	019H
	DB	019H
	DB	046H
	DB	044H
	DB	010H
	DB	07H
	DB	012H
	DB	0e6H
	DB	0e6H
	DB	0cH
	DB	0a0H
	DB	07H
	DB	010H
	DB	0f2H
	DB	0f7H
	DB	062H
	DB	018H
	DB	016H
	DB	03aH
	DB	036H
	DB	01cH
	DB	019H
	DB	019H
	DB	019H
	DB	0d1H
	DB	0d0H
	DB	0d0H
	DB	019H
	DB	019H
	DB	019H
	DB	019H
	DB	049H
	DB	01cH
	DB	01cH
	DB	09H
	DB	09H
	DB	0f3H
	DB	052H
	DB	011H
	DB	05aH
	DB	012H
	DB	025H
	DB	02bH
	DB	0f9H
	DB	04eH
	DB	05aH
	DB	019H
	DB	014H
	DB	0fcH
	DB	0f9H
	DB	033H
	DB	086H
	DB	05fH
	DB	05fH
	DB	09eH
	DB	0ecH
	DB	02dH
	DB	024H
	DB	019H
	DB	05aH
	DB	02dH
	DB	09H
	DB	010H
	DB	062H
	DB	0ecH
	DB	0eaH
	DB	02dH
	DB	010H
	DB	09H
	DB	0f9H
	DB	0f5H
	DB	09H
	DB	04eH
	DB	0f2H
	DB	0d1H
	DB	049H
	DB	0d0H
	DB	019H
	DB	019H
	DB	019H
	DB	019H
	DB	019H
	DB	019H
	DB	019H
	DB	019H
	DB	019H
	DB	019H
	DB	019H
	DB	019H
	DB	019H
	DB	019H
	DB	019H
	DB	019H
	DB	019H
	DB	019H
	DB	019H
	DB	019H
	DB	019H
	DB	019H
	DB	019H
	DB	019H
	DB	019H
	DB	019H
	DB	019H
	DB	019H
	DB	019H
	DB	019H
	DB	019H
	DB	019H
	DB	019H
	DB	0d1H
	DB	023H
	DB	00H
	DB	00H
	DB	00H
	DB	00H
	DB	00H
	DB	00H
	DB	080H
	DB	09H
	DB	026H
	DB	026H
	DB	026H
	DB	026H
	DB	026H
	DB	026H
	DB	026H
	DB	026H
	DB	026H
	DB	04fH
	DB	03aH
	DB	0f2H
	DB	0a0H
	DB	015H
	DB	0eeH
	DB	014H
	DB	0e6H
	DB	0eeH
	DB	010H
	DB	024H
	DB	051H
	DB	011H
	DB	024H
	DB	0f6H
	DB	05aH
	DB	027H
	DB	01dH
	DB	086H
	DB	0dH
	DB	026H
	DB	04fH
	DB	04bH
	DB	085H
	DB	031H
	DB	04fH
	DB	04bH
	DB	026H
	DB	0cdH
	DB	031H
	DB	039H
	DB	037H
	DB	015H
	DB	041H
	DB	022H
	DB	0dH
	DB	0a0H
	DB	067H
	DB	05fH
	DB	027H
	DB	016H
	DB	026H
	DB	01dH
	DB	0fbH
	DB	0f8H
	DB	016H
	DB	014H
	DB	04eH
	DB	02dH
	DB	030H
	DB	033H
	DB	0f9H
	DB	05aH
	DB	086H
	DB	024H
	DB	02dH
	DB	0eaH
	DB	0a0H
	DB	0f8H
	DB	015H
	DB	0e6H
	DB	0f8H
	DB	01dH
	DB	086H
	DB	027H
	DB	01dH
	DB	0d2H
	DB	0f5H
	DB	0f7H
	DB	0e0H
	DB	024H
	DB	051H
	DB	018H
	DB	0ecH
	DB	09dH
	DB	072H
	DB	026H
	DB	026H
	DB	026H
	DB	026H
	DB	026H
	DB	026H
	DB	026H
	DB	026H
	DB	026H
	DB	026H
	DB	026H
	DB	026H
	DB	026H
	DB	026H
	DB	026H
	DB	026H
	DB	026H
	DB	026H
	DB	026H
	DB	026H
	DB	026H
	DB	026H
	DB	026H
	DB	026H
	DB	026H
	DB	026H
	DB	026H
	DB	026H
	DB	026H
	DB	026H
	DB	026H
	DB	046H
	DB	026H
	DB	048H
	DB	00H
	DB	00H
	DB	00H
	DB	00H
	DB	00H
	DB	00H
	DB	071H
	DB	09cH
	DB	09aH
	DB	09aH
	DB	09aH
	DB	09aH
	DB	09aH
	DB	09aH
	DB	09aH
	DB	09aH
	DB	09aH
	DB	025H
	DB	09aH
	DB	09eH
	DB	0f2H
	DB	018H
	DB	07H
	DB	0f0H
	DB	030H
	DB	0e9H
	DB	07H
	DB	05cH
	DB	065H
	DB	05dH
	DB	052H
	DB	047H
	DB	04eH
	DB	0f5H
	DB	058H
	DB	0f5H
	DB	0dfH
	DB	098H
	DB	019H
	DB	010H
	DB	04eH
	DB	062H
	DB	0aH
	DB	01cH
	DB	0caH
	DB	0dH
	DB	016H
	DB	0f0H
	DB	0fdH
	DB	052H
	DB	02dH
	DB	01dH
	DB	0eaH
	DB	04fH
	DB	026H
	DB	0f2H
	DB	067H
	DB	02dH
	DB	010H
	DB	01cH
	DB	0f0H
	DB	0f9H
	DB	0f8H
	DB	0e9H
	DB	033H
	DB	0fbH
	DB	062H
	DB	014H
	DB	0f4H
	DB	05fH
	DB	0f2H
	DB	037H
	DB	062H
	DB	024H
	DB	0e6H
	DB	05aH
	DB	058H
	DB	039H
	DB	024H
	DB	0f6H
	DB	016H
	DB	01aH
	DB	0f5H
	DB	0dfH
	DB	010H
	DB	056H
	DB	014H
	DB	0cH
	DB	0fbH
	DB	0cH
	DB	033H
	DB	027H
	DB	0dH
	DB	060H
	DB	082H
	DB	09aH
	DB	09aH
	DB	09aH
	DB	09aH
	DB	09aH
	DB	09aH
	DB	09aH
	DB	09aH
	DB	09aH
	DB	09aH
	DB	09aH
	DB	09aH
	DB	09aH
	DB	09aH
	DB	09aH
	DB	09aH
	DB	09aH
	DB	09aH
	DB	09aH
	DB	09aH
	DB	09aH
	DB	09aH
	DB	09aH
	DB	09aH
	DB	09aH
	DB	09aH
	DB	09aH
	DB	09aH
	DB	09aH
	DB	0dH
	DB	09aH
	DB	0bH
	DB	00H
	DB	00H
	DB	00H
	DB	00H
	DB	00H
	DB	00H
	DB	068H
	DB	01cH
	DB	095H
	DB	0c9H
	DB	0c9H
	DB	0c9H
	DB	0c9H
	DB	0c9H
	DB	0c9H
	DB	0c9H
	DB	0c9H
	DB	03cH
	DB	071H
	DB	029H
	DB	0cdH
	DB	015H
	DB	0f2H
	DB	0a0H
	DB	0f2H
	DB	0cH
	DB	015H
	DB	051H
	DB	066H
	DB	05eH
	DB	0ffH
	DB	0ffH
	DB	05eH
	DB	051H
	DB	067H
	DB	02dH
	DB	0f8H
	DB	0a1H
	DB	05fH
	DB	02dH
	DB	052H
	DB	052H
	DB	067H
	DB	0f3H
	DB	0c9H
	DB	09cH
	DB	0d2H
	DB	01fH
	DB	060H
	DB	0d6H
	DB	015H
	DB	02dH
	DB	02dH
	DB	027H
	DB	0cH
	DB	026H
	DB	0d9H
	DB	058H
	DB	02dH
	DB	027H
	DB	0d9H
	DB	0aH
	DB	067H
	DB	02dH
	DB	012H
	DB	0f0H
	DB	0f9H
	DB	027H
	DB	0e8H
	DB	0f6H
	DB	062H
	DB	037H
	DB	024H
	DB	02dH
	DB	0eeH
	DB	01aH
	DB	02dH
	DB	0eeH
	DB	010H
	DB	0f6H
	DB	0ebH
	DB	07H
	DB	027H
	DB	012H
	DB	0aH
	DB	0f7H
	DB	033H
	DB	014H
	DB	02dH
	DB	0a0H
	DB	039H
	DB	0fdH
	DB	0a1H
	DB	0d1H
	DB	057H
	DB	03cH
	DB	0c9H
	DB	0c9H
	DB	0c9H
	DB	0c9H
	DB	0c9H
	DB	0c9H
	DB	0c9H
	DB	0c9H
	DB	0c9H
	DB	0c9H
	DB	0c9H
	DB	0c9H
	DB	0c9H
	DB	0c9H
	DB	0c9H
	DB	0c9H
	DB	0c9H
	DB	0c9H
	DB	0c9H
	DB	0c9H
	DB	0c9H
	DB	0c9H
	DB	0c9H
	DB	0c9H
	DB	0c9H
	DB	0c9H
	DB	0c9H
	DB	0c9H
	DB	0c9H
	DB	0c9H
	DB	078H
	DB	00H
	DB	00H
	DB	00H
	DB	00H
	DB	00H
	DB	00H
	DB	02aH
	DB	04fH
	DB	04H
	DB	063H
	DB	063H
	DB	063H
	DB	063H
	DB	063H
	DB	063H
	DB	063H
	DB	063H
	DB	063H
	DB	071H
	DB	0fH
	DB	028H
	DB	04H
	DB	0eeH
	DB	010H
	DB	0a0H
	DB	024H
	DB	050H
	DB	056H
	DB	056H
	DB	05eH
	DB	02H
	DB	02H
	DB	0ffH
	DB	065H
	DB	05dH
	DB	0fdH
	DB	027H
	DB	0fcH
	DB	051H
	DB	03eH
	DB	0f0H
	DB	052H
	DB	027H
	DB	05aH
	DB	0f2H
	DB	067H
	DB	05fH
	DB	010H
	DB	037H
	DB	031H
	DB	057H
	DB	04fH
	DB	012H
	DB	058H
	DB	02dH
	DB	0f6H
	DB	037H
	DB	0d0H
	DB	010H
	DB	02dH
	DB	0f8H
	DB	0eaH
	DB	0aH
	DB	05fH
	DB	056H
	DB	012H
	DB	0f4H
	DB	05fH
	DB	0a1H
	DB	0a0H
	DB	02dH
	DB	01dH
	DB	0a0H
	DB	062H
	DB	01dH
	DB	018H
	DB	056H
	DB	0f4H
	DB	0cH
	DB	0f7H
	DB	0f2H
	DB	0aH
	DB	0f5H
	DB	0a0H
	DB	012H
	DB	05aH
	DB	0a0H
	DB	016H
	DB	05aH
	DB	0a0H
	DB	0d9H
	DB	02dH
	DB	01dH
	DB	014H
	DB	0f2H
	DB	0c5H
	DB	071H
	DB	063H
	DB	063H
	DB	063H
	DB	063H
	DB	063H
	DB	063H
	DB	063H
	DB	063H
	DB	063H
	DB	063H
	DB	063H
	DB	063H
	DB	063H
	DB	063H
	DB	063H
	DB	063H
	DB	063H
	DB	063H
	DB	063H
	DB	063H
	DB	063H
	DB	063H
	DB	063H
	DB	063H
	DB	063H
	DB	063H
	DB	063H
	DB	063H
	DB	063H
	DB	08dH
	DB	00H
	DB	00H
	DB	00H
	DB	00H
	DB	00H
	DB	00H
	DB	07dH
	DB	025H
	DB	07eH
	DB	061H
	DB	061H
	DB	061H
	DB	061H
	DB	061H
	DB	061H
	DB	061H
	DB	061H
	DB	04aH
	DB	04aH
	DB	02aH
	DB	07aH
	DB	05bH
	DB	078H
	DB	09eH
	DB	0f2H
	DB	0cH
	DB	05fH
	DB	0fcH
	DB	027H
	DB	0fbH
	DB	05dH
	DB	064H
	DB	02H
	DB	02H
	DB	064H
	DB	051H
	DB	07H
	DB	010H
	DB	03dH
	DB	044H
	DB	025H
	DB	062H
	DB	01aH
	DB	07H
	DB	02dH
	DB	037H
	DB	0f0H
	DB	0f5H
	DB	05aH
	DB	027H
	DB	0f4H
	DB	037H
	DB	0d0H
	DB	04fH
	DB	0ecH
	DB	056H
	DB	02dH
	DB	01dH
	DB	0dbH
	DB	0ecH
	DB	02dH
	DB	062H
	DB	0eeH
	DB	018H
	DB	0f9H
	DB	02dH
	DB	0aH
	DB	027H
	DB	062H
	DB	0f0H
	DB	01dH
	DB	067H
	DB	07H
	DB	0f5H
	DB	05fH
	DB	018H
	DB	027H
	DB	0f6H
	DB	0cH
	DB	05aH
	DB	01dH
	DB	033H
	DB	027H
	DB	015H
	DB	0eaH
	DB	024H
	DB	07H
	DB	0dfH
	DB	024H
	DB	0cH
	DB	09H
	DB	027H
	DB	0a1H
	DB	0dbH
	DB	067H
	DB	085H
	DB	0bH
	DB	0baH
	DB	061H
	DB	061H
	DB	061H
	DB	061H
	DB	061H
	DB	061H
	DB	061H
	DB	061H
	DB	061H
	DB	061H
	DB	061H
	DB	061H
	DB	061H
	DB	061H
	DB	061H
	DB	061H
	DB	061H
	DB	061H
	DB	061H
	DB	061H
	DB	061H
	DB	061H
	DB	061H
	DB	061H
	DB	061H
	DB	061H
	DB	061H
	DB	061H
	DB	028H
	DB	00H
	DB	00H
	DB	00H
	DB	00H
	DB	00H
	DB	00H
	DB	029H
	DB	03cH
	DB	029H
	DB	0bH
	DB	0bH
	DB	0bH
	DB	0bH
	DB	0bH
	DB	0bH
	DB	0bH
	DB	0bH
	DB	0bH
	DB	0bH
	DB	07cH
	DB	029H
	DB	02eH
	DB	054H
	DB	08bH
	DB	046H
	DB	033H
	DB	09eH
	DB	02dH
	DB	05dH
	DB	04eH
	DB	027H
	DB	052H
	DB	069H
	DB	02H
	DB	03dH
	DB	07H
	DB	044H
	DB	01cH
	DB	051H
	DB	0f4H
	DB	059H
	DB	018H
	DB	024H
	DB	02bH
	DB	05fH
	DB	0aH
	DB	0c9H
	DB	03cH
	DB	041H
	DB	0cH
	DB	01dH
	DB	027H
	DB	05aH
	DB	015H
	DB	086H
	DB	03eH
	DB	010H
	DB	0f8H
	DB	0f8H
	DB	0ecH
	DB	037H
	DB	056H
	DB	056H
	DB	015H
	DB	03aH
	DB	037H
	DB	0f2H
	DB	0d1H
	DB	086H
	DB	018H
	DB	09cH
	DB	042H
	DB	0a1H
	DB	012H
	DB	0f2H
	DB	01aH
	DB	01dH
	DB	02dH
	DB	07H
	DB	027H
	DB	0f5H
	DB	0cH
	DB	027H
	DB	0f4H
	DB	037H
	DB	024H
	DB	015H
	DB	016H
	DB	01dH
	DB	0a0H
	DB	09H
	DB	024H
	DB	015H
	DB	0d9H
	DB	062H
	DB	024H
	DB	041H
	DB	0c8H
	DB	07aH
	DB	0bH
	DB	0bH
	DB	0bH
	DB	0bH
	DB	0bH
	DB	0bH
	DB	0bH
	DB	0bH
	DB	0bH
	DB	0bH
	DB	0bH
	DB	0bH
	DB	0bH
	DB	0bH
	DB	0bH
	DB	0bH
	DB	0bH
	DB	0bH
	DB	0bH
	DB	0bH
	DB	0bH
	DB	0bH
	DB	0bH
	DB	0bH
	DB	0bH
	DB	0bH
	DB	0bH
	DB	021H
	DB	00H
	DB	00H
	DB	00H
	DB	00H
	DB	00H
	DB	00H
	DB	078H
	DB	080H
	DB	08eH
	DB	02cH
	DB	02cH
	DB	02cH
	DB	02cH
	DB	02cH
	DB	02cH
	DB	02cH
	DB	02cH
	DB	02cH
	DB	02cH
	DB	02eH
	DB	02eH
	DB	02cH
	DB	01bH
	DB	05bH
	DB	05H
	DB	0c9H
	DB	0e6H
	DB	024H
	DB	06cH
	DB	06cH
	DB	011H
	DB	05aH
	DB	011H
	DB	0feH
	DB	0f9H
	DB	037H
	DB	044H
	DB	09aH
	DB	024H
	DB	05fH
	DB	04fH
	DB	0dbH
	DB	0f9H
	DB	0d0H
	DB	0f4H
	DB	0fcH
	DB	010H
	DB	09cH
	DB	0dH
	DB	057H
	DB	025H
	DB	02bH
	DB	010H
	DB	05aH
	DB	0f8H
	DB	0f3H
	DB	042H
	DB	012H
	DB	0f5H
	DB	024H
	DB	015H
	DB	049H
	DB	0cdH
	DB	0dfH
	DB	0c8H
	DB	0c8H
	DB	04fH
	DB	0dH
	DB	04fH
	DB	046H
	DB	026H
	DB	0cbH
	DB	0d1H
	DB	04bH
	DB	04fH
	DB	030H
	DB	0dbH
	DB	0cH
	DB	01dH
	DB	01dH
	DB	058H
	DB	07H
	DB	027H
	DB	01aH
	DB	0aH
	DB	024H
	DB	015H
	DB	014H
	DB	01aH
	DB	0eeH
	DB	0dbH
	DB	01dH
	DB	0cH
	DB	0d9H
	DB	05aH
	DB	01aH
	DB	016H
	DB	0cH
	DB	079H
	DB	01bH
	DB	02eH
	DB	02cH
	DB	02cH
	DB	02cH
	DB	02cH
	DB	02cH
	DB	02cH
	DB	02cH
	DB	02cH
	DB	02cH
	DB	02cH
	DB	02cH
	DB	02cH
	DB	02cH
	DB	02cH
	DB	02cH
	DB	02cH
	DB	02cH
	DB	02cH
	DB	02cH
	DB	02cH
	DB	02cH
	DB	02cH
	DB	02cH
	DB	02cH
	DB	02cH
	DB	08bH
	DB	00H
	DB	00H
	DB	00H
	DB	00H
	DB	00H
	DB	00H
	DB	08fH
	DB	093H
	DB	028H
	DB	0eH
	DB	0eH
	DB	0eH
	DB	0eH
	DB	0eH
	DB	0eH
	DB	0eH
	DB	0eH
	DB	0eH
	DB	0eH
	DB	0eH
	DB	0eH
	DB	0eH
	DB	0afH
	DB	028H
	DB	021H
	DB	0a6H
	DB	09aH
	DB	0eaH
	DB	0f4H
	DB	047H
	DB	065H
	DB	0feH
	DB	0f7H
	DB	015H
	DB	01dH
	DB	012H
	DB	036H
	DB	01cH
	DB	0eeH
	DB	011H
	DB	0dfH
	DB	04bH
	DB	0fbH
	DB	016H
	DB	016H
	DB	050H
	DB	027H
	DB	055H
	DB	012H
	DB	018H
	DB	033H
	DB	09H
	DB	026H
	DB	041H
	DB	015H
	DB	0f7H
	DB	056H
	DB	07H
	DB	019H
	DB	099H
	DB	01cH
	DB	057H
	DB	09aH
	DB	046H
	DB	0d9H
	DB	044H
	DB	0e9H
	DB	033H
	DB	0aH
	DB	0cH
	DB	0cH
	DB	0f0H
	DB	07H
	DB	07H
	DB	0cH
	DB	014H
	DB	086H
	DB	019H
	DB	09eH
	DB	0e0H
	DB	0f2H
	DB	01aH
	DB	058H
	DB	0f5H
	DB	018H
	DB	0f5H
	DB	0f2H
	DB	037H
	DB	01aH
	DB	0ecH
	DB	044H
	DB	01aH
	DB	037H
	DB	0e0H
	DB	024H
	DB	015H
	DB	0d2H
	DB	056H
	DB	0cdH
	DB	03H
	DB	0aeH
	DB	0eH
	DB	0eH
	DB	0eH
	DB	0eH
	DB	0eH
	DB	0eH
	DB	0eH
	DB	0eH
	DB	0eH
	DB	0eH
	DB	0eH
	DB	0eH
	DB	0eH
	DB	0eH
	DB	0eH
	DB	0eH
	DB	0eH
	DB	0eH
	DB	0eH
	DB	0eH
	DB	0eH
	DB	0eH
	DB	0eH
	DB	0eH
	DB	0eH
	DB	089H
	DB	00H
	DB	00H
	DB	00H
	DB	00H
	DB	00H
	DB	00H
	DB	08dH
	DB	07eH
	DB	0adH
	DB	05bH
	DB	05bH
	DB	05bH
	DB	05bH
	DB	05bH
	DB	05bH
	DB	05bH
	DB	05bH
	DB	05bH
	DB	05bH
	DB	05bH
	DB	05bH
	DB	05bH
	DB	05bH
	DB	05bH
	DB	054H
	DB	05H
	DB	03cH
	DB	0f3H
	DB	03aH
	DB	0aH
	DB	0fdH
	DB	066H
	DB	0f4H
	DB	0caH
	DB	0d9H
	DB	0ecH
	DB	026H
	DB	09H
	DB	0dbH
	DB	0fcH
	DB	033H
	DB	0dH
	DB	024H
	DB	01dH
	DB	0dH
	DB	02dH
	DB	01dH
	DB	0f7H
	DB	033H
	DB	0e8H
	DB	0a1H
	DB	0f4H
	DB	0f4H
	DB	0cH
	DB	09H
	DB	044H
	DB	0d2H
	DB	0d2H
	DB	025H
	DB	099H
	DB	046H
	DB	0d9H
	DB	09eH
	DB	014H
	DB	0e9H
	DB	030H
	DB	012H
	DB	037H
	DB	033H
	DB	0aH
	DB	0eeH
	DB	0a0H
	DB	015H
	DB	010H
	DB	01aH
	DB	01dH
	DB	024H
	DB	01aH
	DB	0aH
	DB	09H
	DB	0dbH
	DB	0eaH
	DB	0f0H
	DB	027H
	DB	0a1H
	DB	05aH
	DB	010H
	DB	0a0H
	DB	01dH
	DB	037H
	DB	012H
	DB	01aH
	DB	03aH
	DB	014H
	DB	01aH
	DB	033H
	DB	086H
	DB	05aH
	DB	04dH
	DB	022H
	DB	01eH
	DB	054H
	DB	05bH
	DB	05bH
	DB	05bH
	DB	05bH
	DB	05bH
	DB	05bH
	DB	05bH
	DB	05bH
	DB	05bH
	DB	05bH
	DB	05bH
	DB	05bH
	DB	05bH
	DB	05bH
	DB	05bH
	DB	05bH
	DB	05bH
	DB	05bH
	DB	05bH
	DB	05bH
	DB	05bH
	DB	05bH
	DB	05bH
	DB	05bH
	DB	05H
	DB	00H
	DB	00H
	DB	00H
	DB	00H
	DB	00H
	DB	00H
	DB	0b0H
	DB	07cH
	DB	0abH
	DB	03H
	DB	03H
	DB	03H
	DB	03H
	DB	03H
	DB	03H
	DB	03H
	DB	03H
	DB	03H
	DB	03H
	DB	03H
	DB	03H
	DB	03H
	DB	03H
	DB	03H
	DB	03H
	DB	03H
	DB	088H
	DB	0dH
	DB	01dH
	DB	0eeH
	DB	044H
	DB	027H
	DB	037H
	DB	063H
	DB	0d0H
	DB	0ebH
	DB	0cbH
	DB	0d6H
	DB	0d0H
	DB	056H
	DB	033H
	DB	0d1H
	DB	0ebH
	DB	052H
	DB	0cdH
	DB	0f0H
	DB	0f6H
	DB	0f2H
	DB	01aH
	DB	060H
	DB	057H
	DB	086H
	DB	07H
	DB	010H
	DB	018H
	DB	019H
	DB	0c0H
	DB	0caH
	DB	03eH
	DB	02bH
	DB	0e0H
	DB	016H
	DB	016H
	DB	039H
	DB	09eH
	DB	0e6H
	DB	0eaH
	DB	037H
	DB	0ecH
	DB	0eeH
	DB	0eeH
	DB	0cH
	DB	018H
	DB	07H
	DB	015H
	DB	04dH
	DB	01dH
	DB	027H
	DB	056H
	DB	056H
	DB	0f3H
	DB	09eH
	DB	01cH
	DB	015H
	DB	0f4H
	DB	058H
	DB	04dH
	DB	0f2H
	DB	01dH
	DB	037H
	DB	0a0H
	DB	01aH
	DB	0e6H
	DB	037H
	DB	055H
	DB	016H
	DB	044H
	DB	01dH
	DB	0a0H
	DB	02bH
	DB	03eH
	DB	0a9H
	DB	03H
	DB	03H
	DB	03H
	DB	03H
	DB	03H
	DB	03H
	DB	03H
	DB	03H
	DB	03H
	DB	03H
	DB	03H
	DB	03H
	DB	03H
	DB	03H
	DB	03H
	DB	03H
	DB	03H
	DB	03H
	DB	03H
	DB	03H
	DB	03H
	DB	03H
	DB	03H
	DB	03H
	DB	08H
	DB	00H
	DB	00H
	DB	00H
	DB	00H
	DB	00H
	DB	00H
	DB	028H
	DB	02eH
	DB	08H
	DB	088H
	DB	088H
	DB	088H
	DB	088H
	DB	088H
	DB	088H
	DB	088H
	DB	088H
	DB	088H
	DB	088H
	DB	088H
	DB	088H
	DB	088H
	DB	088H
	DB	088H
	DB	088H
	DB	088H
	DB	08H
	DB	00H
	DB	071H
	DB	015H
	DB	0eeH
	DB	01dH
	DB	0ecH
	DB	01fH
	DB	01cH
	DB	0f0H
	DB	086H
	DB	0dH
	DB	0cdH
	DB	015H
	DB	03aH
	DB	0dbH
	DB	086H
	DB	047H
	DB	012H
	DB	09cH
	DB	0fcH
	DB	09eH
	DB	02dH
	DB	0f4H
	DB	0e0H
	DB	01cH
	DB	01cH
	DB	04fH
	DB	071H
	DB	099H
	DB	09cH
	DB	0dfH
	DB	016H
	DB	0e0H
	DB	042H
	DB	0dfH
	DB	014H
	DB	0aH
	DB	010H
	DB	027H
	DB	05fH
	DB	0fdH
	DB	0feH
	DB	052H
	DB	050H
	DB	04eH
	DB	02dH
	DB	0f6H
	DB	01dH
	DB	0f3H
	DB	0f3H
	DB	01dH
	DB	0f5H
	DB	0f7H
	DB	0f9H
	DB	05fH
	DB	0a1H
	DB	0e3H
	DB	0dfH
	DB	018H
	DB	027H
	DB	01dH
	DB	01dH
	DB	033H
	DB	015H
	DB	055H
	DB	016H
	DB	018H
	DB	015H
	DB	041H
	DB	0aH
	DB	04dH
	DB	042H
	DB	03aH
	DB	055H
	DB	0a8H
	DB	017H
	DB	088H
	DB	088H
	DB	088H
	DB	088H
	DB	088H
	DB	088H
	DB	088H
	DB	088H
	DB	088H
	DB	088H
	DB	088H
	DB	088H
	DB	088H
	DB	088H
	DB	088H
	DB	088H
	DB	088H
	DB	088H
	DB	088H
	DB	088H
	DB	088H
	DB	088H
	DB	088H
	DB	020H
	DB	00H
	DB	00H
	DB	00H
	DB	00H
	DB	00H
	DB	00H
	DB	032H
	DB	01bH
	DB	020H
	DB	017H
	DB	017H
	DB	017H
	DB	017H
	DB	017H
	DB	017H
	DB	017H
	DB	017H
	DB	017H
	DB	017H
	DB	017H
	DB	017H
	DB	017H
	DB	017H
	DB	017H
	DB	017H
	DB	017H
	DB	038H
	DB	020H
	DB	00H
	DB	032H
	DB	0ebH
	DB	0f7H
	DB	015H
	DB	057H
	DB	099H
	DB	0f2H
	DB	015H
	DB	060H
	DB	0cbH
	DB	039H
	DB	0e6H
	DB	086H
	DB	01cH
	DB	04eH
	DB	01dH
	DB	09aH
	DB	02dH
	DB	0f0H
	DB	037H
	DB	010H
	DB	0e9H
	DB	0e0H
	DB	036H
	DB	059H
	DB	026H
	DB	016H
	DB	014H
	DB	0e3H
	DB	0e0H
	DB	0e3H
	DB	012H
	DB	055H
	DB	05fH
	DB	052H
	DB	05dH
	DB	06cH
	DB	065H
	DB	05dH
	DB	01aH
	DB	0f9H
	DB	05eH
	DB	05dH
	DB	05dH
	DB	047H
	DB	047H
	DB	047H
	DB	011H
	DB	05aH
	DB	01dH
	DB	0f5H
	DB	0f7H
	DB	02dH
	DB	04eH
	DB	02dH
	DB	037H
	DB	0dbH
	DB	010H
	DB	0f5H
	DB	024H
	DB	0a0H
	DB	0f4H
	DB	015H
	DB	0dfH
	DB	0f2H
	DB	015H
	DB	031H
	DB	015H
	DB	010H
	DB	01cH
	DB	0f0H
	DB	0f5H
	DB	046H
	DB	00H
	DB	020H
	DB	017H
	DB	017H
	DB	017H
	DB	017H
	DB	017H
	DB	017H
	DB	017H
	DB	017H
	DB	017H
	DB	017H
	DB	017H
	DB	017H
	DB	017H
	DB	017H
	DB	017H
	DB	017H
	DB	017H
	DB	017H
	DB	017H
	DB	017H
	DB	017H
	DB	017H
	DB	034H
	DB	00H
	DB	00H
	DB	00H
	DB	00H
	DB	00H
	DB	00H
	DB	054H
	DB	028H
	DB	02fH
	DB	034H
	DB	034H
	DB	034H
	DB	034H
	DB	034H
	DB	034H
	DB	034H
	DB	034H
	DB	034H
	DB	034H
	DB	034H
	DB	034H
	DB	034H
	DB	034H
	DB	034H
	DB	034H
	DB	034H
	DB	034H
	DB	034H
	DB	02fH
	DB	08H
	DB	049H
	DB	0d2H
	DB	0f6H
	DB	086H
	DB	01fH
	DB	0eaH
	DB	050H
	DB	046H
	DB	0dH
	DB	086H
	DB	03aH
	DB	01cH
	DB	01cH
	DB	010H
	DB	05fH
	DB	019H
	DB	0aH
	DB	0f5H
	DB	0e0H
	DB	09eH
	DB	025H
	DB	0c6H
	DB	0c6H
	DB	0d9H
	DB	037H
	DB	0eaH
	DB	014H
	DB	044H
	DB	033H
	DB	01aH
	DB	011H
	DB	047H
	DB	05eH
	DB	06cH
	DB	066H
	DB	066H
	DB	065H
	DB	07H
	DB	00H
	DB	048H
	DB	051H
	DB	047H
	DB	0feH
	DB	047H
	DB	051H
	DB	0eeH
	DB	058H
	DB	05dH
	DB	052H
	DB	05fH
	DB	024H
	DB	027H
	DB	02dH
	DB	0fbH
	DB	050H
	DB	010H
	DB	086H
	DB	0eaH
	DB	027H
	DB	010H
	DB	01aH
	DB	0cH
	DB	030H
	DB	055H
	DB	0cH
	DB	02bH
	DB	0f2H
	DB	07H
	DB	026H
	DB	010H
	DB	01aH
	DB	0e8H
	DB	0dH
	DB	020H
	DB	0a3H
	DB	034H
	DB	034H
	DB	034H
	DB	034H
	DB	034H
	DB	034H
	DB	034H
	DB	034H
	DB	034H
	DB	034H
	DB	034H
	DB	034H
	DB	034H
	DB	034H
	DB	034H
	DB	034H
	DB	034H
	DB	034H
	DB	034H
	DB	034H
	DB	034H
	DB	0a3H
	DB	00H
	DB	00H
	DB	00H
	DB	00H
	DB	00H
	DB	00H
	DB	021H
	DB	032H
	DB	00H
	DB	02fH
	DB	02fH
	DB	02fH
	DB	02fH
	DB	02fH
	DB	02fH
	DB	02fH
	DB	02fH
	DB	02fH
	DB	02fH
	DB	02fH
	DB	02fH
	DB	02fH
	DB	02fH
	DB	02fH
	DB	02fH
	DB	02fH
	DB	02fH
	DB	02fH
	DB	00H
	DB	032H
	DB	0ecH
	DB	057H
	DB	0ecH
	DB	07H
	DB	01cH
	DB	057H
	DB	04eH
	DB	0a0H
	DB	0c9H
	DB	086H
	DB	0f0H
	DB	019H
	DB	04fH
	DB	016H
	DB	0f6H
	DB	016H
	DB	036H
	DB	09eH
	DB	086H
	DB	01cH
	DB	057H
	DB	025H
	DB	0eaH
	DB	0f0H
	DB	0ebH
	DB	037H
	DB	033H
	DB	0a1H
	DB	04eH
	DB	047H
	DB	051H
	DB	0cdH
	DB	01cH
	DB	0feH
	DB	06cH
	DB	05eH
	DB	066H
	DB	027H
	DB	07dH
	DB	026H
	DB	05cH
	DB	047H
	DB	03dH
	DB	066H
	DB	033H
	DB	00H
	DB	070H
	DB	052H
	DB	066H
	DB	05eH
	DB	05cH
	DB	058H
	DB	024H
	DB	02dH
	DB	0fbH
	DB	011H
	DB	024H
	DB	0dfH
	DB	07H
	DB	0f4H
	DB	01aH
	DB	0ebH
	DB	015H
	DB	0f3H
	DB	014H
	DB	012H
	DB	07H
	DB	0e8H
	DB	02bH
	DB	0f2H
	DB	07H
	DB	046H
	DB	01aH
	DB	03H
	DB	00H
	DB	02fH
	DB	02fH
	DB	02fH
	DB	02fH
	DB	02fH
	DB	02fH
	DB	02fH
	DB	02fH
	DB	02fH
	DB	02fH
	DB	02fH
	DB	02fH
	DB	02fH
	DB	02fH
	DB	02fH
	DB	02fH
	DB	02fH
	DB	02fH
	DB	02fH
	DB	02fH
	DB	02fH
	DB	00H
	DB	00H
	DB	00H
	DB	00H
	DB	00H
	DB	00H
	DB	00H
	DB	06dH
	DB	06aH
	DB	00H
	DB	01H
	DB	01H
	DB	01H
	DB	01H
	DB	01H
	DB	01H
	DB	01H
	DB	01H
	DB	01H
	DB	01H
	DB	01H
	DB	01H
	DB	01H
	DB	01H
	DB	01H
	DB	01H
	DB	01H
	DB	01H
	DB	01H
	DB	00H
	DB	032H
	DB	0cH
	DB	019H
	DB	099H
	DB	0ebH
	DB	0aH
	DB	099H
	DB	044H
	DB	04eH
	DB	026H
	DB	04fH
	DB	01aH
	DB	0cH
	DB	0caH
	DB	046H
	DB	015H
	DB	0eaH
	DB	042H
	DB	09eH
	DB	0a0H
	DB	086H
	DB	0c9H
	DB	0a0H
	DB	01aH
	DB	018H
	DB	0eeH
	DB	0a0H
	DB	027H
	DB	052H
	DB	047H
	DB	05eH
	DB	027H
	DB	00H
	DB	038H
	DB	05fH
	DB	065H
	DB	05eH
	DB	066H
	DB	066H
	DB	05cH
	DB	05dH
	DB	05eH
	DB	05eH
	DB	05eH
	DB	066H
	DB	0f5H
	DB	02aH
	DB	0d6H
	DB	03dH
	DB	047H
	DB	047H
	DB	05dH
	DB	05eH
	DB	011H
	DB	024H
	DB	02dH
	DB	0fcH
	DB	011H
	DB	027H
	DB	09H
	DB	030H
	DB	01aH
	DB	0a0H
	DB	024H
	DB	0a1H
	DB	044H
	DB	015H
	DB	07H
	DB	019H
	DB	0cH
	DB	0f0H
	DB	0e0H
	DB	02bH
	DB	024H
	DB	021H
	DB	00H
	DB	01H
	DB	01H
	DB	01H
	DB	01H
	DB	01H
	DB	01H
	DB	01H
	DB	01H
	DB	01H
	DB	01H
	DB	01H
	DB	01H
	DB	01H
	DB	01H
	DB	01H
	DB	01H
	DB	01H
	DB	01H
	DB	01H
	DB	01H
	DB	01H
	DB	00H
	DB	00H
	DB	00H
	DB	00H
	DB	00H
	DB	00H
	DB	00H
	DB	06dH
	DB	06aH
	DB	00H
	DB	01H
	DB	01H
	DB	01H
	DB	01H
	DB	01H
	DB	01H
	DB	01H
	DB	01H
	DB	01H
	DB	01H
	DB	01H
	DB	01H
	DB	01H
	DB	01H
	DB	01H
	DB	01H
	DB	01H
	DB	01H
	DB	01H
	DB	00H
	DB	0a4H
	DB	09cH
	DB	0e0H
	DB	0dH
	DB	04fH
	DB	0aH
	DB	012H
	DB	025H
	DB	0f5H
	DB	010H
	DB	059H
	DB	0e8H
	DB	050H
	DB	01cH
	DB	0dH
	DB	016H
	DB	03eH
	DB	030H
	DB	05cH
	DB	03dH
	DB	02dH
	DB	0aH
	DB	030H
	DB	015H
	DB	015H
	DB	015H
	DB	04eH
	DB	047H
	DB	03dH
	DB	03dH
	DB	047H
	DB	03dH
	DB	07H
	DB	04dH
	DB	065H
	DB	065H
	DB	052H
	DB	0f8H
	DB	0f3H
	DB	07H
	DB	0eeH
	DB	0eeH
	DB	0f2H
	DB	0f6H
	DB	011H
	DB	05eH
	DB	05dH
	DB	047H
	DB	047H
	DB	03dH
	DB	03dH
	DB	047H
	DB	0faH
	DB	051H
	DB	052H
	DB	0f5H
	DB	062H
	DB	04eH
	DB	04eH
	DB	01dH
	DB	036H
	DB	0a1H
	DB	04dH
	DB	024H
	DB	07H
	DB	0aH
	DB	010H
	DB	0cH
	DB	0d2H
	DB	0f0H
	DB	0f0H
	DB	0cbH
	DB	0f0H
	DB	04dH
	DB	049H
	DB	00H
	DB	00H
	DB	01H
	DB	01H
	DB	01H
	DB	01H
	DB	01H
	DB	01H
	DB	01H
	DB	01H
	DB	01H
	DB	01H
	DB	01H
	DB	01H
	DB	01H
	DB	01H
	DB	01H
	DB	01H
	DB	01H
	DB	01H
	DB	01H
	DB	01H
	DB	00H
	DB	00H
	DB	00H
	DB	00H
	DB	00H
	DB	00H
	DB	00H
	DB	06dH
	DB	06aH
	DB	00H
	DB	01H
	DB	01H
	DB	01H
	DB	01H
	DB	01H
	DB	01H
	DB	01H
	DB	01H
	DB	01H
	DB	01H
	DB	01H
	DB	01H
	DB	01H
	DB	01H
	DB	01H
	DB	01H
	DB	01H
	DB	01H
	DB	01H
	DB	01H
	DB	00H
	DB	032H
	DB	0cdH
	DB	0d9H
	DB	0cdH
	DB	086H
	DB	018H
	DB	03aH
	DB	0d1H
	DB	0f5H
	DB	037H
	DB	059H
	DB	058H
	DB	01aH
	DB	026H
	DB	019H
	DB	022H
	DB	033H
	DB	03dH
	DB	069H
	DB	05eH
	DB	05cH
	DB	04dH
	DB	0e6H
	DB	07H
	DB	0fbH
	DB	04eH
	DB	0fcH
	DB	047H
	DB	047H
	DB	05dH
	DB	05eH
	DB	064H
	DB	05eH
	DB	01aH
	DB	041H
	DB	068H
	DB	05H
	DB	013H
	DB	06H
	DB	00H
	DB	01H
	DB	013H
	DB	088H
	DB	029H
	DB	046H
	DB	07H
	DB	011H
	DB	05dH
	DB	03dH
	DB	047H
	DB	056H
	DB	06dH
	DB	090H
	DB	050H
	DB	05cH
	DB	024H
	DB	05aH
	DB	0f9H
	DB	067H
	DB	010H
	DB	036H
	DB	0a0H
	DB	01dH
	DB	018H
	DB	0f4H
	DB	0f2H
	DB	044H
	DB	033H
	DB	0eeH
	DB	03aH
	DB	049H
	DB	010H
	DB	015H
	DB	031H
	DB	049H
	DB	013H
	DB	00H
	DB	01H
	DB	01H
	DB	01H
	DB	01H
	DB	01H
	DB	01H
	DB	01H
	DB	01H
	DB	01H
	DB	01H
	DB	01H
	DB	01H
	DB	01H
	DB	01H
	DB	01H
	DB	01H
	DB	01H
	DB	01H
	DB	01H
	DB	00H
	DB	00H
	DB	00H
	DB	00H
	DB	00H
	DB	00H
	DB	00H
	DB	06dH
	DB	06aH
	DB	00H
	DB	01H
	DB	01H
	DB	01H
	DB	01H
	DB	01H
	DB	01H
	DB	01H
	DB	01H
	DB	01H
	DB	01H
	DB	01H
	DB	01H
	DB	01H
	DB	01H
	DB	01H
	DB	01H
	DB	01H
	DB	01H
	DB	01H
	DB	01H
	DB	01H
	DB	00H
	DB	00H
	DB	095H
	DB	0e9H
	DB	041H
	DB	044H
	DB	0eeH
	DB	09H
	DB	031H
	DB	058H
	DB	014H
	DB	026H
	DB	011H
	DB	0cH
	DB	019H
	DB	0aH
	DB	067H
	DB	01aH
	DB	0fdH
	DB	065H
	DB	069H
	DB	05eH
	DB	01aH
	DB	012H
	DB	02dH
	DB	070H
	DB	0aeH
	DB	062H
	DB	066H
	DB	066H
	DB	047H
	DB	0f0H
	DB	04H
	DB	013H
	DB	00H
	DB	00H
	DB	00H
	DB	00H
	DB	00H
	DB	00H
	DB	00H
	DB	00H
	DB	00H
	DB	00H
	DB	00H
	DB	06H
	DB	091H
	DB	03aH
	DB	011H
	DB	05eH
	DB	0f6H
	DB	05H
	DB	032H
	DB	02dH
	DB	03dH
	DB	011H
	DB	01dH
	DB	05aH
	DB	02dH
	DB	05fH
	DB	033H
	DB	036H
	DB	024H
	DB	015H
	DB	01dH
	DB	0f2H
	DB	09eH
	DB	015H
	DB	0a0H
	DB	01cH
	DB	0eeH
	DB	0a0H
	DB	0eaH
	DB	049H
	DB	024H
	DB	08bH
	DB	00H
	DB	01H
	DB	01H
	DB	01H
	DB	01H
	DB	01H
	DB	01H
	DB	01H
	DB	01H
	DB	01H
	DB	01H
	DB	01H
	DB	01H
	DB	01H
	DB	01H
	DB	01H
	DB	01H
	DB	01H
	DB	01H
	DB	01H
	DB	00H
	DB	00H
	DB	00H
	DB	00H
	DB	00H
	DB	00H
	DB	00H
	DB	06dH
	DB	06aH
	DB	00H
	DB	01H
	DB	01H
	DB	01H
	DB	01H
	DB	01H
	DB	01H
	DB	01H
	DB	01H
	DB	01H
	DB	01H
	DB	01H
	DB	01H
	DB	01H
	DB	01H
	DB	01H
	DB	01H
	DB	01H
	DB	01H
	DB	01H
	DB	01H
	DB	01H
	DB	01H
	DB	00H
	DB	043H
	DB	057H
	DB	09aH
	DB	0e0H
	DB	0e0H
	DB	0d9H
	DB	01cH
	DB	0e3H
	DB	0fbH
	DB	0cH
	DB	012H
	DB	09H
	DB	01fH
	DB	0ecH
	DB	05dH
	DB	03dH
	DB	0f5H
	DB	062H
	DB	065H
	DB	066H
	DB	09eH
	DB	0aH
	DB	027H
	DB	032H
	DB	088H
	DB	05aH
	DB	065H
	DB	02dH
	DB	0caH
	DB	06H
	DB	00H
	DB	00H
	DB	00H
	DB	00H
	DB	00H
	DB	01H
	DB	01H
	DB	01H
	DB	01H
	DB	01H
	DB	01H
	DB	01H
	DB	00H
	DB	00H
	DB	00H
	DB	00H
	DB	07fH
	DB	0f2H
	DB	03dH
	DB	058H
	DB	058H
	DB	052H
	DB	051H
	DB	052H
	DB	0fcH
	DB	0f4H
	DB	058H
	DB	062H
	DB	0f6H
	DB	044H
	DB	0eaH
	DB	01aH
	DB	04dH
	DB	033H
	DB	015H
	DB	018H
	DB	0eaH
	DB	0d2H
	DB	018H
	DB	0a0H
	DB	04fH
	DB	0a0H
	DB	0f4H
	DB	0bH
	DB	00H
	DB	01H
	DB	01H
	DB	01H
	DB	01H
	DB	01H
	DB	01H
	DB	01H
	DB	01H
	DB	01H
	DB	01H
	DB	01H
	DB	01H
	DB	01H
	DB	01H
	DB	01H
	DB	01H
	DB	01H
	DB	01H
	DB	01H
	DB	00H
	DB	00H
	DB	00H
	DB	00H
	DB	00H
	DB	00H
	DB	00H
	DB	06dH
	DB	06aH
	DB	00H
	DB	01H
	DB	01H
	DB	01H
	DB	01H
	DB	01H
	DB	01H
	DB	01H
	DB	01H
	DB	01H
	DB	01H
	DB	01H
	DB	01H
	DB	01H
	DB	01H
	DB	01H
	DB	01H
	DB	01H
	DB	01H
	DB	01H
	DB	01H
	DB	01H
	DB	01H
	DB	00H
	DB	0a8H
	DB	041H
	DB	037H
	DB	018H
	DB	0ecH
	DB	03aH
	DB	016H
	DB	031H
	DB	0e9H
	DB	0f9H
	DB	024H
	DB	0e6H
	DB	0e3H
	DB	0cbH
	DB	014H
	DB	052H
	DB	066H
	DB	062H
	DB	027H
	DB	0eeH
	DB	086H
	DB	0f0H
	DB	01dH
	DB	015H
	DB	0f4H
	DB	03dH
	DB	015H
	DB	028H
	DB	00H
	DB	00H
	DB	00H
	DB	01H
	DB	01H
	DB	01H
	DB	01H
	DB	01H
	DB	01H
	DB	01H
	DB	01H
	DB	01H
	DB	01H
	DB	01H
	DB	01H
	DB	01H
	DB	01H
	DB	00H
	DB	00H
	DB	017H
	DB	039H
	DB	05cH
	DB	052H
	DB	011H
	DB	0fdH
	DB	0fdH
	DB	052H
	DB	05fH
	DB	01aH
	DB	0f8H
	DB	02dH
	DB	04dH
	DB	019H
	DB	033H
	DB	0f4H
	DB	0eeH
	DB	0f4H
	DB	0f0H
	DB	019H
	DB	018H
	DB	0ebH
	DB	014H
	DB	049H
	DB	0f2H
	DB	015H
	DB	01cH
	DB	00H
	DB	01H
	DB	01H
	DB	01H
	DB	01H
	DB	01H
	DB	01H
	DB	01H
	DB	01H
	DB	01H
	DB	01H
	DB	01H
	DB	01H
	DB	01H
	DB	01H
	DB	01H
	DB	01H
	DB	01H
	DB	01H
	DB	01H
	DB	00H
	DB	00H
	DB	00H
	DB	00H
	DB	00H
	DB	00H
	DB	00H
	DB	06dH
	DB	06aH
	DB	00H
	DB	01H
	DB	01H
	DB	01H
	DB	01H
	DB	01H
	DB	01H
	DB	01H
	DB	01H
	DB	01H
	DB	01H
	DB	01H
	DB	01H
	DB	01H
	DB	01H
	DB	01H
	DB	01H
	DB	01H
	DB	01H
	DB	01H
	DB	01H
	DB	01H
	DB	01H
	DB	00H
	DB	07fH
	DB	05fH
	DB	0f5H
	DB	0aH
	DB	02bH
	DB	04bH
	DB	0caH
	DB	0d6H
	DB	0e8H
	DB	0d9H
	DB	0d9H
	DB	046H
	DB	016H
	DB	0d1H
	DB	0cbH
	DB	086H
	DB	05aH
	DB	066H
	DB	07H
	DB	0eeH
	DB	0e8H
	DB	044H
	DB	0a0H
	DB	01dH
	DB	04eH
	DB	0eaH
	DB	03bH
	DB	00H
	DB	00H
	DB	01H
	DB	01H
	DB	01H
	DB	01H
	DB	01H
	DB	01H
	DB	01H
	DB	01H
	DB	01H
	DB	01H
	DB	01H
	DB	01H
	DB	01H
	DB	01H
	DB	01H
	DB	01H
	DB	01H
	DB	01H
	DB	00H
	DB	00H
	DB	0d2H
	DB	011H
	DB	011H
	DB	050H
	DB	0fdH
	DB	067H
	DB	011H
	DB	027H
	DB	01dH
	DB	0f8H
	DB	02dH
	DB	014H
	DB	037H
	DB	015H
	DB	01aH
	DB	015H
	DB	0eaH
	DB	037H
	DB	0eeH
	DB	0eeH
	DB	09aH
	DB	0a0H
	DB	0aH
	DB	030H
	DB	01cH
	DB	04H
	DB	00H
	DB	01H
	DB	01H
	DB	01H
	DB	01H
	DB	01H
	DB	01H
	DB	01H
	DB	01H
	DB	01H
	DB	01H
	DB	01H
	DB	01H
	DB	01H
	DB	01H
	DB	01H
	DB	01H
	DB	01H
	DB	01H
	DB	00H
	DB	00H
	DB	00H
	DB	00H
	DB	00H
	DB	00H
	DB	00H
	DB	06dH
	DB	06aH
	DB	00H
	DB	01H
	DB	01H
	DB	01H
	DB	01H
	DB	01H
	DB	01H
	DB	01H
	DB	01H
	DB	01H
	DB	01H
	DB	01H
	DB	01H
	DB	01H
	DB	01H
	DB	01H
	DB	01H
	DB	01H
	DB	01H
	DB	01H
	DB	01H
	DB	01H
	DB	00H
	DB	07fH
	DB	0a1H
	DB	030H
	DB	09aH
	DB	022H
	DB	046H
	DB	0e3H
	DB	037H
	DB	0ebH
	DB	033H
	DB	039H
	DB	0d9H
	DB	026H
	DB	036H
	DB	0d1H
	DB	056H
	DB	0eeH
	DB	0d1H
	DB	0cH
	DB	0e8H
	DB	042H
	DB	049H
	DB	09H
	DB	030H
	DB	010H
	DB	0e8H
	DB	08H
	DB	00H
	DB	00H
	DB	01H
	DB	01H
	DB	01H
	DB	01H
	DB	01H
	DB	01H
	DB	01H
	DB	01H
	DB	01H
	DB	01H
	DB	01H
	DB	01H
	DB	01H
	DB	01H
	DB	01H
	DB	01H
	DB	01H
	DB	01H
	DB	01H
	DB	01H
	DB	00H
	DB	00H
	DB	09H
	DB	011H
	DB	011H
	DB	033H
	DB	03H
	DB	0d2H
	DB	04eH
	DB	0f4H
	DB	027H
	DB	0f7H
	DB	01aH
	DB	031H
	DB	0aH
	DB	010H
	DB	07H
	DB	0e6H
	DB	04dH
	DB	0eeH
	DB	031H
	DB	039H
	DB	037H
	DB	0aH
	DB	0caH
	DB	0f2H
	DB	03eH
	DB	00H
	DB	01H
	DB	01H
	DB	01H
	DB	01H
	DB	01H
	DB	01H
	DB	01H
	DB	01H
	DB	01H
	DB	01H
	DB	01H
	DB	01H
	DB	01H
	DB	01H
	DB	01H
	DB	01H
	DB	01H
	DB	01H
	DB	00H
	DB	00H
	DB	00H
	DB	00H
	DB	00H
	DB	00H
	DB	00H
	DB	06dH
	DB	06aH
	DB	00H
	DB	01H
	DB	01H
	DB	01H
	DB	01H
	DB	01H
	DB	01H
	DB	01H
	DB	01H
	DB	01H
	DB	01H
	DB	01H
	DB	01H
	DB	01H
	DB	01H
	DB	01H
	DB	01H
	DB	01H
	DB	01H
	DB	01H
	DB	01H
	DB	01H
	DB	00H
	DB	0bH
	DB	09aH
	DB	022H
	DB	086H
	DB	0ecH
	DB	0f2H
	DB	01aH
	DB	015H
	DB	0e9H
	DB	09H
	DB	019H
	DB	0d0H
	DB	0dfH
	DB	086H
	DB	037H
	DB	0fcH
	DB	0fbH
	DB	0aH
	DB	0dH
	DB	04fH
	DB	068H
	DB	057H
	DB	0d6H
	DB	0e8H
	DB	03aH
	DB	01eH
	DB	00H
	DB	00H
	DB	01H
	DB	01H
	DB	01H
	DB	01H
	DB	01H
	DB	01H
	DB	01H
	DB	01H
	DB	01H
	DB	01H
	DB	01H
	DB	01H
	DB	01H
	DB	01H
	DB	01H
	DB	01H
	DB	01H
	DB	01H
	DB	01H
	DB	01H
	DB	01H
	DB	01H
	DB	00H
	DB	0a3H
	DB	0eaH
	DB	011H
	DB	02bH
	DB	00H
	DB	0c0H
	DB	05fH
	DB	0f5H
	DB	04dH
	DB	027H
	DB	058H
	DB	0e6H
	DB	041H
	DB	0f3H
	DB	0e9H
	DB	01aH
	DB	0cH
	DB	03aH
	DB	09cH
	DB	0eeH
	DB	012H
	DB	0d1H
	DB	086H
	DB	024H
	DB	0cbH
	DB	00H
	DB	01H
	DB	01H
	DB	01H
	DB	01H
	DB	01H
	DB	01H
	DB	01H
	DB	01H
	DB	01H
	DB	01H
	DB	01H
	DB	01H
	DB	01H
	DB	01H
	DB	01H
	DB	01H
	DB	01H
	DB	01H
	DB	00H
	DB	00H
	DB	00H
	DB	00H
	DB	00H
	DB	00H
	DB	00H
	DB	06dH
	DB	06aH
	DB	00H
	DB	01H
	DB	01H
	DB	01H
	DB	01H
	DB	01H
	DB	01H
	DB	01H
	DB	01H
	DB	01H
	DB	01H
	DB	01H
	DB	01H
	DB	01H
	DB	01H
	DB	01H
	DB	01H
	DB	01H
	DB	01H
	DB	01H
	DB	01H
	DB	01H
	DB	00H
	DB	0a8H
	DB	0e3H
	DB	010H
	DB	01aH
	DB	055H
	DB	037H
	DB	09cH
	DB	04fH
	DB	01cH
	DB	016H
	DB	033H
	DB	0ebH
	DB	033H
	DB	0d2H
	DB	0f5H
	DB	02dH
	DB	056H
	DB	0ebH
	DB	085H
	DB	04fH
	DB	00H
	DB	021H
	DB	086H
	DB	03aH
	DB	04aH
	DB	00H
	DB	01H
	DB	01H
	DB	01H
	DB	01H
	DB	01H
	DB	01H
	DB	01H
	DB	01H
	DB	01H
	DB	01H
	DB	01H
	DB	01H
	DB	01H
	DB	01H
	DB	01H
	DB	01H
	DB	01H
	DB	01H
	DB	01H
	DB	01H
	DB	01H
	DB	01H
	DB	01H
	DB	01H
	DB	01H
	DB	00H
	DB	021H
	DB	01dH
	DB	0f6H
	DB	030H
	DB	010H
	DB	02dH
	DB	056H
	DB	0a1H
	DB	01dH
	DB	027H
	DB	07H
	DB	0dfH
	DB	018H
	DB	0f3H
	DB	015H
	DB	0a0H
	DB	09cH
	DB	0a0H
	DB	0e8H
	DB	044H
	DB	04fH
	DB	018H
	DB	0cH
	DB	09H
	DB	02fH
	DB	00H
	DB	01H
	DB	01H
	DB	01H
	DB	01H
	DB	01H
	DB	01H
	DB	01H
	DB	01H
	DB	01H
	DB	01H
	DB	01H
	DB	01H
	DB	01H
	DB	01H
	DB	01H
	DB	01H
	DB	01H
	DB	00H
	DB	00H
	DB	00H
	DB	00H
	DB	00H
	DB	00H
	DB	00H
	DB	06dH
	DB	06aH
	DB	00H
	DB	01H
	DB	01H
	DB	01H
	DB	01H
	DB	01H
	DB	01H
	DB	01H
	DB	01H
	DB	01H
	DB	01H
	DB	01H
	DB	01H
	DB	01H
	DB	01H
	DB	01H
	DB	01H
	DB	01H
	DB	01H
	DB	01H
	DB	01H
	DB	01H
	DB	00H
	DB	097H
	DB	050H
	DB	04dH
	DB	0e3H
	DB	025H
	DB	025H
	DB	042H
	DB	0eeH
	DB	010H
	DB	0f4H
	DB	07H
	DB	012H
	DB	02bH
	DB	039H
	DB	0fcH
	DB	05fH
	DB	024H
	DB	0ebH
	DB	0ebH
	DB	030H
	DB	04aH
	DB	09aH
	DB	0eaH
	DB	049H
	DB	00H
	DB	00H
	DB	01H
	DB	01H
	DB	01H
	DB	01H
	DB	01H
	DB	01H
	DB	01H
	DB	01H
	DB	01H
	DB	01H
	DB	01H
	DB	01H
	DB	01H
	DB	01H
	DB	01H
	DB	01H
	DB	01H
	DB	01H
	DB	01H
	DB	01H
	DB	01H
	DB	01H
	DB	01H
	DB	01H
	DB	01H
	DB	01H
	DB	00H
	DB	04bH
	DB	062H
	DB	056H
	DB	05aH
	DB	027H
	DB	0f7H
	DB	01aH
	DB	0a1H
	DB	01dH
	DB	01dH
	DB	031H
	DB	0e3H
	DB	0f2H
	DB	015H
	DB	0dfH
	DB	015H
	DB	030H
	DB	037H
	DB	0dH
	DB	033H
	DB	014H
	DB	0eaH
	DB	0cbH
	DB	025H
	DB	00H
	DB	01H
	DB	01H
	DB	01H
	DB	01H
	DB	01H
	DB	01H
	DB	01H
	DB	01H
	DB	01H
	DB	01H
	DB	01H
	DB	01H
	DB	01H
	DB	01H
	DB	01H
	DB	01H
	DB	01H
	DB	00H
	DB	00H
	DB	00H
	DB	00H
	DB	00H
	DB	00H
	DB	00H
	DB	021H
	DB	032H
	DB	00H
	DB	01H
	DB	01H
	DB	01H
	DB	01H
	DB	01H
	DB	01H
	DB	01H
	DB	01H
	DB	01H
	DB	01H
	DB	01H
	DB	01H
	DB	01H
	DB	01H
	DB	01H
	DB	01H
	DB	01H
	DB	01H
	DB	01H
	DB	01H
	DB	00H
	DB	0b4H
	DB	010H
	DB	014H
	DB	059H
	DB	025H
	DB	0e9H
	DB	0f2H
	DB	0f4H
	DB	0f3H
	DB	033H
	DB	086H
	DB	019H
	DB	0e6H
	DB	0d9H
	DB	015H
	DB	0fdH
	DB	0fbH
	DB	01aH
	DB	0f2H
	DB	010H
	DB	015H
	DB	015H
	DB	015H
	DB	0a0H
	DB	01bH
	DB	00H
	DB	01H
	DB	01H
	DB	01H
	DB	01H
	DB	01H
	DB	01H
	DB	01H
	DB	01H
	DB	01H
	DB	01H
	DB	01H
	DB	01H
	DB	01H
	DB	01H
	DB	01H
	DB	01H
	DB	01H
	DB	01H
	DB	01H
	DB	01H
	DB	01H
	DB	01H
	DB	01H
	DB	01H
	DB	01H
	DB	01H
	DB	01H
	DB	00H
	DB	088H
	DB	018H
	DB	05aH
	DB	01dH
	DB	024H
	DB	0f5H
	DB	01dH
	DB	015H
	DB	0f4H
	DB	024H
	DB	03aH
	DB	0d1H
	DB	055H
	DB	0e9H
	DB	0a1H
	DB	033H
	DB	033H
	DB	0cbH
	DB	012H
	DB	039H
	DB	033H
	DB	060H
	DB	0cH
	DB	012H
	DB	00H
	DB	01H
	DB	01H
	DB	01H
	DB	01H
	DB	01H
	DB	01H
	DB	01H
	DB	01H
	DB	01H
	DB	01H
	DB	01H
	DB	01H
	DB	01H
	DB	01H
	DB	01H
	DB	01H
	DB	01H
	DB	00H
	DB	00H
	DB	00H
	DB	00H
	DB	00H
	DB	00H
	DB	00H
	DB	021H
	DB	032H
	DB	00H
	DB	01H
	DB	01H
	DB	01H
	DB	01H
	DB	01H
	DB	01H
	DB	01H
	DB	01H
	DB	01H
	DB	01H
	DB	01H
	DB	01H
	DB	01H
	DB	01H
	DB	01H
	DB	01H
	DB	01H
	DB	01H
	DB	01H
	DB	01H
	DB	00H
	DB	02aH
	DB	04fH
	DB	022H
	DB	014H
	DB	055H
	DB	01dH
	DB	0f2H
	DB	0e0H
	DB	0cbH
	DB	049H
	DB	012H
	DB	015H
	DB	0cH
	DB	09H
	DB	056H
	DB	0fdH
	DB	05fH
	DB	0f4H
	DB	01aH
	DB	01aH
	DB	01aH
	DB	01dH
	DB	024H
	DB	016H
	DB	00H
	DB	01H
	DB	01H
	DB	01H
	DB	01H
	DB	01H
	DB	01H
	DB	01H
	DB	01H
	DB	01H
	DB	01H
	DB	01H
	DB	01H
	DB	01H
	DB	01H
	DB	01H
	DB	01H
	DB	01H
	DB	01H
	DB	01H
	DB	01H
	DB	01H
	DB	01H
	DB	01H
	DB	01H
	DB	01H
	DB	01H
	DB	01H
	DB	01H
	DB	01H
	DB	00H
	DB	046H
	DB	024H
	DB	01dH
	DB	024H
	DB	027H
	DB	024H
	DB	015H
	DB	0f3H
	DB	01dH
	DB	0cH
	DB	02bH
	DB	0eeH
	DB	010H
	DB	0a0H
	DB	0ecH
	DB	01cH
	DB	03aH
	DB	044H
	DB	012H
	DB	04fH
	DB	042H
	DB	04dH
	DB	0c9H
	DB	00H
	DB	01H
	DB	01H
	DB	01H
	DB	01H
	DB	01H
	DB	01H
	DB	01H
	DB	01H
	DB	01H
	DB	01H
	DB	01H
	DB	01H
	DB	01H
	DB	01H
	DB	01H
	DB	01H
	DB	01H
	DB	01H
	DB	00H
	DB	00H
	DB	00H
	DB	00H
	DB	00H
	DB	00H
	DB	021H
	DB	032H
	DB	00H
	DB	01H
	DB	01H
	DB	01H
	DB	01H
	DB	01H
	DB	01H
	DB	01H
	DB	01H
	DB	01H
	DB	01H
	DB	01H
	DB	01H
	DB	01H
	DB	01H
	DB	01H
	DB	01H
	DB	01H
	DB	01H
	DB	01H
	DB	01H
	DB	01H
	DB	087H
	DB	031H
	DB	055H
	DB	024H
	DB	0f2H
	DB	09H
	DB	057H
	DB	0d1H
	DB	0eeH
	DB	0f3H
	DB	0f4H
	DB	0cH
	DB	0dbH
	DB	042H
	DB	0fdH
	DB	0fdH
	DB	05fH
	DB	01dH
	DB	0f5H
	DB	024H
	DB	01dH
	DB	01dH
	DB	0f5H
	DB	01fH
	DB	00H
	DB	01H
	DB	01H
	DB	01H
	DB	01H
	DB	01H
	DB	01H
	DB	01H
	DB	01H
	DB	01H
	DB	01H
	DB	01H
	DB	01H
	DB	01H
	DB	01H
	DB	01H
	DB	01H
	DB	01H
	DB	01H
	DB	01H
	DB	01H
	DB	01H
	DB	01H
	DB	01H
	DB	01H
	DB	01H
	DB	01H
	DB	01H
	DB	01H
	DB	01H
	DB	00H
	DB	028H
	DB	0f2H
	DB	01dH
	DB	033H
	DB	09cH
	DB	010H
	DB	010H
	DB	0f2H
	DB	01aH
	DB	010H
	DB	0cdH
	DB	0e6H
	DB	018H
	DB	0a0H
	DB	0d2H
	DB	0ebH
	DB	014H
	DB	0e9H
	DB	01cH
	DB	0d2H
	DB	0ebH
	DB	0eeH
	DB	019H
	DB	00H
	DB	01H
	DB	01H
	DB	01H
	DB	01H
	DB	01H
	DB	01H
	DB	01H
	DB	01H
	DB	01H
	DB	01H
	DB	01H
	DB	01H
	DB	01H
	DB	01H
	DB	01H
	DB	01H
	DB	01H
	DB	01H
	DB	00H
	DB	00H
	DB	00H
	DB	00H
	DB	00H
	DB	00H
	DB	021H
	DB	06fH
	DB	01H
	DB	06H
	DB	06H
	DB	06H
	DB	06H
	DB	06H
	DB	06H
	DB	06H
	DB	06H
	DB	06H
	DB	06H
	DB	06H
	DB	06H
	DB	06H
	DB	06H
	DB	06H
	DB	06H
	DB	06H
	DB	06H
	DB	06H
	DB	06H
	DB	01H
	DB	013H
	DB	01aH
	DB	024H
	DB	039H
	DB	095H
	DB	046H
	DB	0a0H
	DB	0f3H
	DB	055H
	DB	037H
	DB	03eH
	DB	09H
	DB	039H
	DB	0eaH
	DB	052H
	DB	011H
	DB	02dH
	DB	0f5H
	DB	0f6H
	DB	024H
	DB	024H
	DB	0f5H
	DB	07H
	DB	01eH
	DB	00H
	DB	06H
	DB	06H
	DB	06H
	DB	06H
	DB	06H
	DB	06H
	DB	06H
	DB	06H
	DB	06H
	DB	06H
	DB	06H
	DB	06H
	DB	06H
	DB	06H
	DB	06H
	DB	06H
	DB	06H
	DB	06H
	DB	06H
	DB	06H
	DB	06H
	DB	06H
	DB	06H
	DB	06H
	DB	06H
	DB	06H
	DB	06H
	DB	06H
	DB	06H
	DB	01H
	DB	0a4H
	DB	0eaH
	DB	01dH
	DB	068H
	DB	00H
	DB	049H
	DB	04dH
	DB	07H
	DB	0f4H
	DB	0f4H
	DB	019H
	DB	042H
	DB	015H
	DB	0e3H
	DB	015H
	DB	012H
	DB	0e8H
	DB	01cH
	DB	0d2H
	DB	0e9H
	DB	0e8H
	DB	0e0H
	DB	04bH
	DB	02eH
	DB	00H
	DB	06H
	DB	06H
	DB	06H
	DB	06H
	DB	06H
	DB	06H
	DB	06H
	DB	06H
	DB	06H
	DB	06H
	DB	06H
	DB	06H
	DB	06H
	DB	06H
	DB	06H
	DB	06H
	DB	01H
	DB	00H
	DB	00H
	DB	00H
	DB	00H
	DB	00H
	DB	00H
	DB	021H
	DB	028H
	DB	01H
	DB	0a4H
	DB	0a4H
	DB	0a4H
	DB	0a4H
	DB	0a4H
	DB	0a4H
	DB	0a4H
	DB	0a4H
	DB	0a4H
	DB	0a4H
	DB	0a4H
	DB	0a4H
	DB	0a4H
	DB	0a4H
	DB	0a4H
	DB	0a4H
	DB	0a4H
	DB	0a4H
	DB	0a4H
	DB	01H
	DB	038H
	DB	0ddH
	DB	07H
	DB	09aH
	DB	0c8H
	DB	0eaH
	DB	01aH
	DB	01aH
	DB	0ebH
	DB	046H
	DB	046H
	DB	033H
	DB	015H
	DB	042H
	DB	0a0H
	DB	052H
	DB	0fdH
	DB	02dH
	DB	05aH
	DB	033H
	DB	048H
	DB	09eH
	DB	0f6H
	DB	03aH
	DB	00H
	DB	01H
	DB	06H
	DB	0a4H
	DB	0a4H
	DB	0a4H
	DB	0a4H
	DB	0a4H
	DB	0a4H
	DB	0a4H
	DB	0a4H
	DB	0a4H
	DB	0a4H
	DB	0a4H
	DB	0a4H
	DB	0a4H
	DB	0a4H
	DB	0a4H
	DB	0a4H
	DB	0a4H
	DB	0a4H
	DB	0a4H
	DB	0a4H
	DB	0a4H
	DB	0a4H
	DB	0a4H
	DB	0a4H
	DB	0a4H
	DB	0a4H
	DB	0a4H
	DB	0a4H
	DB	06H
	DB	00H
	DB	046H
	DB	01dH
	DB	09cH
	DB	0fH
	DB	012H
	DB	055H
	DB	07H
	DB	0a1H
	DB	0f4H
	DB	0d9H
	DB	0eaH
	DB	033H
	DB	0f2H
	DB	0aH
	DB	012H
	DB	01cH
	DB	02bH
	DB	0e9H
	DB	0e6H
	DB	042H
	DB	03cH
	DB	01dH
	DB	060H
	DB	00H
	DB	06H
	DB	0a4H
	DB	0a4H
	DB	0a4H
	DB	0a4H
	DB	0a4H
	DB	0a4H
	DB	0a4H
	DB	0a4H
	DB	0a4H
	DB	0a4H
	DB	0a4H
	DB	0a4H
	DB	0a4H
	DB	0a4H
	DB	0a4H
	DB	06H
	DB	00H
	DB	00H
	DB	00H
	DB	00H
	DB	00H
	DB	00H
	DB	054H
	DB	028H
	DB	01H
	DB	0a4H
	DB	0a4H
	DB	0a4H
	DB	0a4H
	DB	0a4H
	DB	0a4H
	DB	0a4H
	DB	0a4H
	DB	0a4H
	DB	0a4H
	DB	0a4H
	DB	0a4H
	DB	0a4H
	DB	0a4H
	DB	0a4H
	DB	0a4H
	DB	0a4H
	DB	0a4H
	DB	0a4H
	DB	01H
	DB	08bH
	DB	0d9H
	DB	04H
	DB	046H
	DB	0f2H
	DB	01dH
	DB	07H
	DB	049H
	DB	025H
	DB	03aH
	DB	010H
	DB	010H
	DB	0eaH
	DB	019H
	DB	0f3H
	DB	052H
	DB	0fdH
	DB	062H
	DB	056H
	DB	019H
	DB	00H
	DB	0c8H
	DB	024H
	DB	0d3H
	DB	00H
	DB	06H
	DB	0a4H
	DB	0a4H
	DB	0a4H
	DB	0a4H
	DB	0a4H
	DB	0a4H
	DB	0a4H
	DB	0a4H
	DB	0a4H
	DB	0a4H
	DB	0a4H
	DB	0a4H
	DB	0a4H
	DB	0a4H
	DB	0a4H
	DB	0a4H
	DB	0a4H
	DB	0a4H
	DB	0a4H
	DB	0a4H
	DB	0a4H
	DB	0a4H
	DB	0a4H
	DB	0a4H
	DB	0a4H
	DB	0a4H
	DB	0a4H
	DB	0a4H
	DB	0a4H
	DB	0a4H
	DB	00H
	DB	0c8H
	DB	01aH
	DB	0f4H
	DB	055H
	DB	055H
	DB	0f2H
	DB	015H
	DB	0a1H
	DB	01aH
	DB	09eH
	DB	04fH
	DB	0cH
	DB	0cH
	DB	033H
	DB	0d1H
	DB	0e9H
	DB	0e9H
	DB	0e6H
	DB	0d9H
	DB	099H
	DB	07H
	DB	0a1H
	DB	091H
	DB	00H
	DB	0a4H
	DB	0a4H
	DB	0a4H
	DB	0a4H
	DB	0a4H
	DB	0a4H
	DB	0a4H
	DB	0a4H
	DB	0a4H
	DB	0a4H
	DB	0a4H
	DB	0a4H
	DB	0a4H
	DB	0a4H
	DB	0a4H
	DB	0a4H
	DB	06H
	DB	00H
	DB	00H
	DB	00H
	DB	00H
	DB	00H
	DB	00H
	DB	032H
	DB	077H
	DB	06H
	DB	013H
	DB	013H
	DB	013H
	DB	013H
	DB	013H
	DB	013H
	DB	013H
	DB	013H
	DB	013H
	DB	013H
	DB	013H
	DB	013H
	DB	013H
	DB	013H
	DB	013H
	DB	013H
	DB	013H
	DB	013H
	DB	013H
	DB	013H
	DB	00H
	DB	02eH
	DB	042H
	DB	0f4H
	DB	01aH
	DB	0e8H
	DB	022H
	DB	041H
	DB	010H
	DB	0a1H
	DB	0eeH
	DB	09cH
	DB	0e0H
	DB	0e0H
	DB	01dH
	DB	052H
	DB	011H
	DB	058H
	DB	0f5H
	DB	07H
	DB	04fH
	DB	033H
	DB	01dH
	DB	0cbH
	DB	00H
	DB	013H
	DB	013H
	DB	013H
	DB	013H
	DB	013H
	DB	013H
	DB	013H
	DB	013H
	DB	013H
	DB	013H
	DB	013H
	DB	013H
	DB	013H
	DB	013H
	DB	013H
	DB	013H
	DB	013H
	DB	013H
	DB	013H
	DB	013H
	DB	013H
	DB	013H
	DB	013H
	DB	013H
	DB	013H
	DB	013H
	DB	013H
	DB	013H
	DB	013H
	DB	013H
	DB	013H
	DB	00H
	DB	0bdH
	DB	010H
	DB	04dH
	DB	0f3H
	DB	0f2H
	DB	0f2H
	DB	07H
	DB	0a1H
	DB	01dH
	DB	0e9H
	DB	01cH
	DB	07H
	DB	0ecH
	DB	042H
	DB	07H
	DB	03aH
	DB	0e6H
	DB	031H
	DB	0dH
	DB	0aH
	DB	0ecH
	DB	0a0H
	DB	02eH
	DB	00H
	DB	013H
	DB	013H
	DB	013H
	DB	013H
	DB	013H
	DB	013H
	DB	013H
	DB	013H
	DB	013H
	DB	013H
	DB	013H
	DB	013H
	DB	013H
	DB	013H
	DB	013H
	DB	013H
	DB	06H
	DB	00H
	DB	00H
	DB	00H
	DB	00H
	DB	00H
	DB	00H
	DB	032H
	DB	0eH
	DB	0a4H
	DB	087H
	DB	087H
	DB	087H
	DB	087H
	DB	087H
	DB	087H
	DB	087H
	DB	087H
	DB	087H
	DB	087H
	DB	087H
	DB	087H
	DB	087H
	DB	087H
	DB	087H
	DB	087H
	DB	087H
	DB	087H
	DB	087H
	DB	087H
	DB	00H
	DB	0c6H
	DB	058H
	DB	0f2H
	DB	01cH
	DB	059H
	DB	0ebH
	DB	01dH
	DB	0f2H
	DB	0dbH
	DB	04fH
	DB	0e9H
	DB	07H
	DB	0d9H
	DB	024H
	DB	051H
	DB	011H
	DB	05aH
	DB	0f4H
	DB	01dH
	DB	024H
	DB	01dH
	DB	0f3H
	DB	057H
	DB	00H
	DB	087H
	DB	087H
	DB	087H
	DB	087H
	DB	087H
	DB	087H
	DB	087H
	DB	087H
	DB	087H
	DB	087H
	DB	087H
	DB	087H
	DB	087H
	DB	087H
	DB	087H
	DB	087H
	DB	087H
	DB	087H
	DB	087H
	DB	087H
	DB	087H
	DB	087H
	DB	087H
	DB	087H
	DB	087H
	DB	087H
	DB	087H
	DB	087H
	DB	087H
	DB	087H
	DB	087H
	DB	00H
	DB	07bH
	DB	018H
	DB	010H
	DB	010H
	DB	0f2H
	DB	0f2H
	DB	07H
	DB	0f2H
	DB	0f4H
	DB	0e9H
	DB	039H
	DB	0cH
	DB	033H
	DB	04dH
	DB	033H
	DB	0e9H
	DB	046H
	DB	0d0H
	DB	0eaH
	DB	09eH
	DB	012H
	DB	019H
	DB	02eH
	DB	00H
	DB	087H
	DB	087H
	DB	087H
	DB	087H
	DB	087H
	DB	087H
	DB	087H
	DB	087H
	DB	087H
	DB	087H
	DB	087H
	DB	087H
	DB	087H
	DB	087H
	DB	087H
	DB	087H
	DB	06H
	DB	00H
	DB	00H
	DB	00H
	DB	00H
	DB	00H
	DB	00H
	DB	032H
	DB	0eH
	DB	013H
	DB	020H
	DB	020H
	DB	020H
	DB	020H
	DB	020H
	DB	020H
	DB	020H
	DB	020H
	DB	020H
	DB	020H
	DB	020H
	DB	020H
	DB	020H
	DB	020H
	DB	020H
	DB	020H
	DB	020H
	DB	020H
	DB	020H
	DB	020H
	DB	00H
	DB	041H
	DB	0a1H
	DB	057H
	DB	025H
	DB	0f2H
	DB	024H
	DB	0cH
	DB	04fH
	DB	0d1H
	DB	0f2H
	DB	015H
	DB	039H
	DB	019H
	DB	027H
	DB	051H
	DB	011H
	DB	027H
	DB	04dH
	DB	04dH
	DB	055H
	DB	010H
	DB	010H
	DB	0c9H
	DB	00H
	DB	087H
	DB	020H
	DB	020H
	DB	020H
	DB	020H
	DB	020H
	DB	020H
	DB	020H
	DB	020H
	DB	020H
	DB	020H
	DB	020H
	DB	020H
	DB	020H
	DB	020H
	DB	020H
	DB	020H
	DB	020H
	DB	020H
	DB	020H
	DB	020H
	DB	020H
	DB	020H
	DB	020H
	DB	020H
	DB	020H
	DB	020H
	DB	020H
	DB	020H
	DB	020H
	DB	020H
	DB	01H
	DB	07bH
	DB	018H
	DB	0a1H
	DB	0f4H
	DB	0a1H
	DB	015H
	DB	0f0H
	DB	015H
	DB	0f4H
	DB	037H
	DB	09aH
	DB	0eeH
	DB	010H
	DB	0eeH
	DB	0e6H
	DB	026H
	DB	016H
	DB	0e8H
	DB	016H
	DB	09eH
	DB	03cH
	DB	0e6H
	DB	04H
	DB	00H
	DB	087H
	DB	020H
	DB	020H
	DB	020H
	DB	020H
	DB	020H
	DB	020H
	DB	020H
	DB	020H
	DB	020H
	DB	020H
	DB	020H
	DB	020H
	DB	020H
	DB	020H
	DB	020H
	DB	06H
	DB	00H
	DB	00H
	DB	00H
	DB	00H
	DB	00H
	DB	00H
	DB	032H
	DB	0b0H
	DB	087H
	DB	038H
	DB	038H
	DB	038H
	DB	038H
	DB	038H
	DB	038H
	DB	038H
	DB	038H
	DB	038H
	DB	038H
	DB	038H
	DB	038H
	DB	038H
	DB	038H
	DB	038H
	DB	038H
	DB	038H
	DB	038H
	DB	038H
	DB	06H
	DB	01bH
	DB	03aH
	DB	063H
	DB	026H
	DB	0f4H
	DB	01dH
	DB	030H
	DB	022H
	DB	039H
	DB	01aH
	DB	07H
	DB	086H
	DB	086H
	DB	02bH
	DB	01dH
	DB	051H
	DB	0fdH
	DB	027H
	DB	0a1H
	DB	010H
	DB	010H
	DB	015H
	DB	015H
	DB	0dH
	DB	00H
	DB	020H
	DB	038H
	DB	038H
	DB	038H
	DB	038H
	DB	038H
	DB	038H
	DB	038H
	DB	038H
	DB	038H
	DB	038H
	DB	038H
	DB	038H
	DB	038H
	DB	038H
	DB	038H
	DB	038H
	DB	038H
	DB	038H
	DB	038H
	DB	038H
	DB	038H
	DB	038H
	DB	038H
	DB	038H
	DB	038H
	DB	038H
	DB	038H
	DB	038H
	DB	038H
	DB	038H
	DB	01H
	DB	0fH
	DB	07H
	DB	0f0H
	DB	09cH
	DB	0e9H
	DB	07H
	DB	018H
	DB	0f2H
	DB	0f4H
	DB	012H
	DB	01cH
	DB	07H
	DB	07H
	DB	0e0H
	DB	0d9H
	DB	0ecH
	DB	014H
	DB	0e6H
	DB	0d6H
	DB	057H
	DB	0ebH
	DB	024H
	DB	0bcH
	DB	00H
	DB	038H
	DB	038H
	DB	038H
	DB	038H
	DB	038H
	DB	038H
	DB	038H
	DB	038H
	DB	038H
	DB	038H
	DB	038H
	DB	038H
	DB	038H
	DB	038H
	DB	038H
	DB	038H
	DB	034H
	DB	00H
	DB	00H
	DB	00H
	DB	00H
	DB	00H
	DB	00H
	DB	08cH
	DB	01bH
	DB	020H
	DB	017H
	DB	017H
	DB	017H
	DB	017H
	DB	017H
	DB	017H
	DB	017H
	DB	017H
	DB	017H
	DB	017H
	DB	017H
	DB	017H
	DB	017H
	DB	017H
	DB	017H
	DB	017H
	DB	017H
	DB	017H
	DB	017H
	DB	020H
	DB	03H
	DB	059H
	DB	01cH
	DB	0f4H
	DB	01aH
	DB	0d9H
	DB	01fH
	DB	0ecH
	DB	01dH
	DB	0a0H
	DB	0cdH
	DB	09H
	DB	0f0H
	DB	036H
	DB	0f4H
	DB	051H
	DB	011H
	DB	0f6H
	DB	0f2H
	DB	010H
	DB	0a1H
	DB	015H
	DB	0f0H
	DB	01cH
	DB	00H
	DB	038H
	DB	017H
	DB	017H
	DB	017H
	DB	017H
	DB	017H
	DB	017H
	DB	017H
	DB	017H
	DB	017H
	DB	017H
	DB	017H
	DB	017H
	DB	017H
	DB	017H
	DB	017H
	DB	017H
	DB	017H
	DB	017H
	DB	017H
	DB	017H
	DB	017H
	DB	017H
	DB	017H
	DB	017H
	DB	017H
	DB	017H
	DB	017H
	DB	017H
	DB	017H
	DB	017H
	DB	01H
	DB	059H
	DB	0f3H
	DB	0d2H
	DB	00H
	DB	0bH
	DB	018H
	DB	0f0H
	DB	0f2H
	DB	0f4H
	DB	014H
	DB	0eaH
	DB	07H
	DB	044H
	DB	0aH
	DB	0cH
	DB	012H
	DB	014H
	DB	04bH
	DB	04bH
	DB	0ecH
	DB	07H
	DB	012H
	DB	021H
	DB	06H
	DB	017H
	DB	017H
	DB	017H
	DB	017H
	DB	017H
	DB	017H
	DB	017H
	DB	017H
	DB	017H
	DB	017H
	DB	017H
	DB	017H
	DB	017H
	DB	017H
	DB	017H
	DB	017H
	DB	013H
	DB	00H
	DB	00H
	DB	00H
	DB	00H
	DB	00H
	DB	00H
	DB	08cH
	DB	0b1H
	DB	038H
	DB	03bH
	DB	03bH
	DB	03bH
	DB	03bH
	DB	03bH
	DB	03bH
	DB	03bH
	DB	03bH
	DB	03bH
	DB	03bH
	DB	03bH
	DB	03bH
	DB	03bH
	DB	03bH
	DB	03bH
	DB	03bH
	DB	03bH
	DB	03bH
	DB	03bH
	DB	03bH
	DB	0a4H
	DB	0eH
	DB	0f3H
	DB	04dH
	DB	09cH
	DB	063H
	DB	018H
	DB	01dH
	DB	0ebH
	DB	0caH
	DB	016H
	DB	0f4H
	DB	014H
	DB	026H
	DB	015H
	DB	051H
	DB	011H
	DB	0f7H
	DB	0a1H
	DB	0eeH
	DB	099H
	DB	09cH
	DB	0f0H
	DB	02bH
	DB	06H
	DB	038H
	DB	03bH
	DB	03bH
	DB	03bH
	DB	03bH
	DB	03bH
	DB	03bH
	DB	03bH
	DB	03bH
	DB	03bH
	DB	03bH
	DB	03bH
	DB	03bH
	DB	03bH
	DB	03bH
	DB	03bH
	DB	03bH
	DB	03bH
	DB	03bH
	DB	03bH
	DB	03bH
	DB	03bH
	DB	03bH
	DB	03bH
	DB	03bH
	DB	03bH
	DB	03bH
	DB	03bH
	DB	03bH
	DB	03bH
	DB	03bH
	DB	06H
	DB	09aH
	DB	0f4H
	DB	014H
	DB	070H
	DB	046H
	DB	018H
	DB	07H
	DB	010H
	DB	01aH
	DB	0e3H
	DB	046H
	DB	033H
	DB	07H
	DB	0f0H
	DB	0ebH
	DB	09H
	DB	0dH
	DB	086H
	DB	012H
	DB	0e9H
	DB	012H
	DB	046H
	DB	08bH
	DB	013H
	DB	017H
	DB	03bH
	DB	03bH
	DB	03bH
	DB	03bH
	DB	03bH
	DB	03bH
	DB	03bH
	DB	03bH
	DB	03bH
	DB	03bH
	DB	03bH
	DB	03bH
	DB	03bH
	DB	03bH
	DB	03bH
	DB	087H
	DB	00H
	DB	00H
	DB	00H
	DB	00H
	DB	00H
	DB	00H
	DB	028H
	DB	03fH
	DB	017H
	DB	08H
	DB	08H
	DB	08H
	DB	08H
	DB	08H
	DB	08H
	DB	08H
	DB	08H
	DB	08H
	DB	08H
	DB	08H
	DB	08H
	DB	08H
	DB	08H
	DB	08H
	DB	08H
	DB	08H
	DB	08H
	DB	08H
	DB	08H
	DB	038H
	DB	076H
	DB	0f2H
	DB	09cH
	DB	04H
	DB	0a0H
	DB	01dH
	DB	012H
	DB	022H
	DB	0e9H
	DB	01aH
	DB	0ebH
	DB	019H
	DB	09H
	DB	0aH
	DB	051H
	DB	011H
	DB	062H
	DB	0f4H
	DB	042H
	DB	00H
	DB	08cH
	DB	0eeH
	DB	014H
	DB	03H
	DB	038H
	DB	08H
	DB	08H
	DB	08H
	DB	08H
	DB	08H
	DB	08H
	DB	08H
	DB	08H
	DB	08H
	DB	08H
	DB	08H
	DB	08H
	DB	08H
	DB	08H
	DB	08H
	DB	08H
	DB	08H
	DB	08H
	DB	08H
	DB	08H
	DB	08H
	DB	08H
	DB	08H
	DB	08H
	DB	08H
	DB	08H
	DB	08H
	DB	08H
	DB	08H
	DB	0a7H
	DB	017H
	DB	02bH
	DB	0f2H
	DB	07H
	DB	0eeH
	DB	0a0H
	DB	0aH
	DB	07H
	DB	055H
	DB	04dH
	DB	086H
	DB	0d2H
	DB	07H
	DB	0f0H
	DB	0e6H
	DB	0d0H
	DB	0d6H
	DB	0e9H
	DB	030H
	DB	0e8H
	DB	0d9H
	DB	0c8H
	DB	016H
	DB	0c3H
	DB	00H
	DB	08H
	DB	08H
	DB	08H
	DB	08H
	DB	08H
	DB	08H
	DB	08H
	DB	08H
	DB	08H
	DB	08H
	DB	08H
	DB	08H
	DB	08H
	DB	08H
	DB	08H
	DB	08H
	DB	087H
	DB	00H
	DB	00H
	DB	00H
	DB	00H
	DB	00H
	DB	00H
	DB	028H
	DB	0b2H
	DB	03bH
	DB	088H
	DB	088H
	DB	088H
	DB	088H
	DB	088H
	DB	088H
	DB	088H
	DB	088H
	DB	088H
	DB	088H
	DB	088H
	DB	088H
	DB	088H
	DB	088H
	DB	088H
	DB	088H
	DB	088H
	DB	088H
	DB	088H
	DB	08H
	DB	020H
	DB	09cH
	DB	09H
	DB	045H
	DB	0aH
	DB	01dH
	DB	0eaH
	DB	04H
	DB	0eaH
	DB	01dH
	DB	0aH
	DB	025H
	DB	033H
	DB	0e9H
	DB	0e6H
	DB	011H
	DB	011H
	DB	067H
	DB	055H
	DB	0f0H
	DB	04fH
	DB	03eH
	DB	0cH
	DB	0aH
	DB	0bbH
	DB	013H
	DB	088H
	DB	088H
	DB	088H
	DB	088H
	DB	088H
	DB	088H
	DB	088H
	DB	088H
	DB	088H
	DB	088H
	DB	088H
	DB	088H
	DB	088H
	DB	088H
	DB	088H
	DB	088H
	DB	088H
	DB	088H
	DB	088H
	DB	088H
	DB	088H
	DB	088H
	DB	088H
	DB	088H
	DB	088H
	DB	088H
	DB	088H
	DB	088H
	DB	088H
	DB	03bH
	DB	01eH
	DB	033H
	DB	07H
	DB	07H
	DB	018H
	DB	0cH
	DB	0aH
	DB	015H
	DB	04dH
	DB	010H
	DB	086H
	DB	07H
	DB	012H
	DB	09H
	DB	0dfH
	DB	012H
	DB	033H
	DB	037H
	DB	014H
	DB	04fH
	DB	09aH
	DB	0eeH
	DB	024H
	DB	0bH
	DB	06H
	DB	088H
	DB	088H
	DB	088H
	DB	088H
	DB	088H
	DB	088H
	DB	088H
	DB	088H
	DB	088H
	DB	088H
	DB	088H
	DB	088H
	DB	088H
	DB	088H
	DB	088H
	DB	088H
	DB	020H
	DB	00H
	DB	00H
	DB	00H
	DB	00H
	DB	00H
	DB	00H
	DB	028H
	DB	02eH
	DB	08H
	DB	05H
	DB	05H
	DB	05H
	DB	05H
	DB	05H
	DB	05H
	DB	05H
	DB	05H
	DB	05H
	DB	05H
	DB	05H
	DB	05H
	DB	05H
	DB	05H
	DB	05H
	DB	05H
	DB	05H
	DB	05H
	DB	05H
	DB	05H
	DB	040H
	DB	079H
	DB	068H
	DB	014H
	DB	01dH
	DB	0ebH
	DB	04H
	DB	0e8H
	DB	01dH
	DB	0cH
	DB	057H
	DB	012H
	DB	07H
	DB	031H
	DB	09H
	DB	0fbH
	DB	011H
	DB	0fcH
	DB	0f4H
	DB	07H
	DB	07H
	DB	018H
	DB	0eeH
	DB	018H
	DB	01cH
	DB	013H
	DB	05H
	DB	05H
	DB	05H
	DB	05H
	DB	05H
	DB	05H
	DB	05H
	DB	05H
	DB	05H
	DB	05H
	DB	05H
	DB	05H
	DB	05H
	DB	05H
	DB	05H
	DB	05H
	DB	05H
	DB	05H
	DB	05H
	DB	05H
	DB	05H
	DB	05H
	DB	05H
	DB	05H
	DB	05H
	DB	05H
	DB	05H
	DB	05H
	DB	05H
	DB	020H
	DB	059H
	DB	0aH
	DB	0a0H
	DB	018H
	DB	0cH
	DB	0eeH
	DB	0a0H
	DB	0a1H
	DB	0f4H
	DB	07H
	DB	046H
	DB	02bH
	DB	0e6H
	DB	033H
	DB	0cH
	DB	0eeH
	DB	03aH
	DB	0d0H
	DB	09aH
	DB	09H
	DB	07H
	DB	0f4H
	DB	031H
	DB	00H
	DB	08H
	DB	05H
	DB	05H
	DB	05H
	DB	05H
	DB	05H
	DB	05H
	DB	05H
	DB	05H
	DB	05H
	DB	05H
	DB	05H
	DB	05H
	DB	05H
	DB	05H
	DB	05H
	DB	05H
	DB	038H
	DB	00H
	DB	00H
	DB	00H
	DB	00H
	DB	00H
	DB	00H
	DB	0aeH
	DB	0b5H
	DB	088H
	DB	05H
	DB	05H
	DB	05H
	DB	05H
	DB	05H
	DB	05H
	DB	05H
	DB	05H
	DB	05H
	DB	05H
	DB	05H
	DB	05H
	DB	05H
	DB	05H
	DB	05H
	DB	05H
	DB	05H
	DB	05H
	DB	05H
	DB	05H
	DB	05H
	DB	087H
	DB	01cH
	DB	01dH
	DB	0a0H
	DB	01fH
	DB	02bH
	DB	01dH
	DB	0a0H
	DB	060H
	DB	0e9H
	DB	0f4H
	DB	014H
	DB	019H
	DB	0d9H
	DB	024H
	DB	0fdH
	DB	0fcH
	DB	0f5H
	DB	018H
	DB	018H
	DB	0a0H
	DB	0eeH
	DB	0eeH
	DB	037H
	DB	01eH
	DB	08H
	DB	05H
	DB	05H
	DB	05H
	DB	05H
	DB	05H
	DB	05H
	DB	05H
	DB	05H
	DB	05H
	DB	05H
	DB	05H
	DB	05H
	DB	05H
	DB	05H
	DB	05H
	DB	05H
	DB	05H
	DB	05H
	DB	05H
	DB	05H
	DB	05H
	DB	05H
	DB	05H
	DB	05H
	DB	05H
	DB	05H
	DB	05H
	DB	05H
	DB	05H
	DB	09H
	DB	03aH
	DB	037H
	DB	0aH
	DB	0aH
	DB	037H
	DB	0a0H
	DB	01aH
	DB	01dH
	DB	0aH
	DB	046H
	DB	03aH
	DB	0cH
	DB	0aH
	DB	09eH
	DB	01cH
	DB	026H
	DB	09H
	DB	012H
	DB	033H
	DB	0cH
	DB	0eaH
	DB	095H
	DB	06H
	DB	05H
	DB	05H
	DB	05H
	DB	05H
	DB	05H
	DB	05H
	DB	05H
	DB	05H
	DB	05H
	DB	05H
	DB	05H
	DB	05H
	DB	05H
	DB	05H
	DB	05H
	DB	05H
	DB	05H
	DB	017H
	DB	00H
	DB	00H
	DB	00H
	DB	00H
	DB	00H
	DB	00H
	DB	0eH
	DB	07bH
	DB	05H
	DB	043H
	DB	043H
	DB	043H
	DB	043H
	DB	043H
	DB	043H
	DB	043H
	DB	043H
	DB	043H
	DB	043H
	DB	043H
	DB	043H
	DB	043H
	DB	043H
	DB	043H
	DB	043H
	DB	043H
	DB	043H
	DB	043H
	DB	043H
	DB	043H
	DB	038H
	DB	042H
	DB	01dH
	DB	060H
	DB	026H
	DB	01dH
	DB	07H
	DB	057H
	DB	0d9H
	DB	01dH
	DB	0ecH
	DB	09aH
	DB	018H
	DB	0e0H
	DB	018H
	DB	051H
	DB	0fcH
	DB	02dH
	DB	015H
	DB	018H
	DB	018H
	DB	0a0H
	DB	0a0H
	DB	018H
	DB	0dH
	DB	087H
	DB	043H
	DB	043H
	DB	043H
	DB	043H
	DB	043H
	DB	043H
	DB	043H
	DB	043H
	DB	043H
	DB	043H
	DB	043H
	DB	043H
	DB	043H
	DB	043H
	DB	043H
	DB	043H
	DB	043H
	DB	043H
	DB	043H
	DB	043H
	DB	043H
	DB	043H
	DB	043H
	DB	043H
	DB	043H
	DB	043H
	DB	043H
	DB	03bH
	DB	0c1H
	DB	0eaH
	DB	036H
	DB	01fH
	DB	03eH
	DB	0aH
	DB	0ebH
	DB	0f2H
	DB	01dH
	DB	024H
	DB	016H
	DB	012H
	DB	033H
	DB	086H
	DB	0d1H
	DB	031H
	DB	09eH
	DB	037H
	DB	0ebH
	DB	0ebH
	DB	044H
	DB	0dH
	DB	057H
	DB	046H
	DB	038H
	DB	05H
	DB	043H
	DB	043H
	DB	043H
	DB	043H
	DB	043H
	DB	043H
	DB	043H
	DB	043H
	DB	043H
	DB	043H
	DB	043H
	DB	043H
	DB	043H
	DB	043H
	DB	043H
	DB	043H
	DB	017H
	DB	00H
	DB	00H
	DB	00H
	DB	00H
	DB	00H
	DB	00H
	DB	0eH
	DB	029H
	DB	05H
	DB	089H
	DB	089H
	DB	089H
	DB	089H
	DB	089H
	DB	089H
	DB	089H
	DB	089H
	DB	089H
	DB	089H
	DB	089H
	DB	089H
	DB	089H
	DB	089H
	DB	089H
	DB	089H
	DB	089H
	DB	089H
	DB	089H
	DB	089H
	DB	043H
	DB	043H
	DB	0eeH
	DB	0d6H
	DB	0c6H
	DB	0f2H
	DB	0f4H
	DB	046H
	DB	0cdH
	DB	01aH
	DB	07H
	DB	025H
	DB	03aH
	DB	0f0H
	DB	041H
	DB	039H
	DB	011H
	DB	011H
	DB	050H
	DB	01dH
	DB	018H
	DB	0f0H
	DB	0cH
	DB	014H
	DB	0ecH
	DB	033H
	DB	01bH
	DB	088H
	DB	089H
	DB	089H
	DB	089H
	DB	089H
	DB	089H
	DB	089H
	DB	089H
	DB	089H
	DB	089H
	DB	089H
	DB	089H
	DB	089H
	DB	089H
	DB	089H
	DB	089H
	DB	089H
	DB	089H
	DB	089H
	DB	089H
	DB	089H
	DB	089H
	DB	089H
	DB	089H
	DB	089H
	DB	089H
	DB	05H
	DB	03H
	DB	0e0H
	DB	0e6H
	DB	0dH
	DB	00H
	DB	02eH
	DB	0eaH
	DB	018H
	DB	01aH
	DB	01dH
	DB	01aH
	DB	01cH
	DB	086H
	DB	0e0H
	DB	0e3H
	DB	037H
	DB	0a0H
	DB	0cH
	DB	0ecH
	DB	016H
	DB	04fH
	DB	0caH
	DB	09H
	DB	0f4H
	DB	0d0H
	DB	0a5H
	DB	043H
	DB	089H
	DB	089H
	DB	089H
	DB	089H
	DB	089H
	DB	089H
	DB	089H
	DB	089H
	DB	089H
	DB	089H
	DB	089H
	DB	089H
	DB	089H
	DB	089H
	DB	089H
	DB	089H
	DB	03bH
	DB	00H
	DB	00H
	DB	00H
	DB	00H
	DB	00H
	DB	00H
	DB	0b0H
	DB	090H
	DB	089H
	DB	03H
	DB	03H
	DB	03H
	DB	03H
	DB	03H
	DB	03H
	DB	03H
	DB	03H
	DB	03H
	DB	03H
	DB	03H
	DB	03H
	DB	03H
	DB	03H
	DB	03H
	DB	03H
	DB	03H
	DB	03H
	DB	03H
	DB	03H
	DB	03H
	DB	01eH
	DB	04bH
	DB	0c0H
	DB	0eaH
	DB	024H
	DB	016H
	DB	0c6H
	DB	0f2H
	DB	0f4H
	DB	046H
	DB	086H
	DB	01aH
	DB	03aH
	DB	019H
	DB	0e0H
	DB	0f5H
	DB	051H
	DB	051H
	DB	02dH
	DB	015H
	DB	0f2H
	DB	0cbH
	DB	03bH
	DB	046H
	DB	07H
	DB	0deH
	DB	05H
	DB	043H
	DB	03H
	DB	03H
	DB	03H
	DB	03H
	DB	03H
	DB	03H
	DB	03H
	DB	03H
	DB	03H
	DB	03H
	DB	03H
	DB	03H
	DB	03H
	DB	03H
	DB	03H
	DB	03H
	DB	03H
	DB	03H
	DB	03H
	DB	03H
	DB	03H
	DB	03H
	DB	03H
	DB	03H
	DB	08H
	DB	0cbH
	DB	0e6H
	DB	02bH
	DB	036H
	DB	057H
	DB	09cH
	DB	0eaH
	DB	0f2H
	DB	0f5H
	DB	05aH
	DB	0a0H
	DB	0d0H
	DB	030H
	DB	0a0H
	DB	0cH
	DB	0aH
	DB	0e8H
	DB	031H
	DB	04fH
	DB	046H
	DB	0dbH
	DB	0aH
	DB	0f4H
	DB	039H
	DB	08H
	DB	0a8H
	DB	03H
	DB	03H
	DB	03H
	DB	03H
	DB	03H
	DB	03H
	DB	03H
	DB	03H
	DB	03H
	DB	03H
	DB	03H
	DB	03H
	DB	03H
	DB	03H
	DB	03H
	DB	03H
	DB	03H
	DB	08H
	DB	00H
	DB	00H
	DB	00H
	DB	00H
	DB	00H
	DB	00H
	DB	0b0H
	DB	07dH
	DB	03H
	DB	08bH
	DB	08bH
	DB	08bH
	DB	08bH
	DB	08bH
	DB	08bH
	DB	08bH
	DB	08bH
	DB	08bH
	DB	08bH
	DB	08bH
	DB	08bH
	DB	08bH
	DB	08bH
	DB	08bH
	DB	08bH
	DB	08bH
	DB	08bH
	DB	08bH
	DB	08bH
	DB	08bH
	DB	089H
	DB	021H
	DB	03eH
	DB	01dH
	DB	0cH
	DB	04H
	DB	03aH
	DB	01dH
	DB	0dfH
	DB	025H
	DB	0f4H
	DB	07H
	DB	0dH
	DB	0cH
	DB	042H
	DB	012H
	DB	051H
	DB	051H
	DB	051H
	DB	024H
	DB	0f2H
	DB	046H
	DB	017H
	DB	01cH
	DB	0a0H
	DB	0f0H
	DB	046H
	DB	08H
	DB	03H
	DB	08bH
	DB	08bH
	DB	08bH
	DB	08bH
	DB	08bH
	DB	08bH
	DB	08bH
	DB	08bH
	DB	08bH
	DB	08bH
	DB	08bH
	DB	08bH
	DB	08bH
	DB	08bH
	DB	08bH
	DB	08bH
	DB	08bH
	DB	08bH
	DB	08bH
	DB	08bH
	DB	08bH
	DB	08bH
	DB	0a8H
	DB	01fH
	DB	044H
	DB	036H
	DB	09H
	DB	016H
	DB	0eaH
	DB	037H
	DB	0cH
	DB	01dH
	DB	05aH
	DB	05aH
	DB	0dfH
	DB	012H
	DB	03aH
	DB	02bH
	DB	09cH
	DB	01cH
	DB	019H
	DB	0d9H
	DB	014H
	DB	033H
	DB	0a0H
	DB	0f0H
	DB	0aH
	DB	04H
	DB	06H
	DB	089H
	DB	08bH
	DB	08bH
	DB	08bH
	DB	08bH
	DB	08bH
	DB	08bH
	DB	08bH
	DB	08bH
	DB	08bH
	DB	08bH
	DB	08bH
	DB	08bH
	DB	08bH
	DB	08bH
	DB	08bH
	DB	08bH
	DB	08bH
	DB	08H
	DB	00H
	DB	00H
	DB	00H
	DB	00H
	DB	00H
	DB	00H
	DB	01bH
	DB	0fH
	DB	03H
	DB	01eH
	DB	01eH
	DB	01eH
	DB	01eH
	DB	01eH
	DB	01eH
	DB	01eH
	DB	01eH
	DB	01eH
	DB	01eH
	DB	01eH
	DB	01eH
	DB	01eH
	DB	01eH
	DB	01eH
	DB	01eH
	DB	01eH
	DB	01eH
	DB	01eH
	DB	01eH
	DB	01eH
	DB	08bH
	DB	03bH
	DB	01cH
	DB	01dH
	DB	0dH
	DB	0cdH
	DB	01dH
	DB	018H
	DB	059H
	DB	0ecH
	DB	01aH
	DB	019H
	DB	09H
	DB	0f2H
	DB	036H
	DB	049H
	DB	062H
	DB	05cH
	DB	0feH
	DB	050H
	DB	010H
	DB	0a0H
	DB	0eaH
	DB	0eeH
	DB	0a0H
	DB	0eeH
	DB	0a0H
	DB	04fH
	DB	088H
	DB	03H
	DB	01eH
	DB	01eH
	DB	01eH
	DB	01eH
	DB	01eH
	DB	01eH
	DB	01eH
	DB	01eH
	DB	01eH
	DB	01eH
	DB	01eH
	DB	01eH
	DB	01eH
	DB	01eH
	DB	01eH
	DB	01eH
	DB	01eH
	DB	01eH
	DB	01eH
	DB	01eH
	DB	088H
	DB	071H
	DB	0e6H
	DB	0d6H
	DB	086H
	DB	02bH
	DB	039H
	DB	014H
	DB	037H
	DB	0f4H
	DB	05aH
	DB	056H
	DB	07H
	DB	0cbH
	DB	016H
	DB	02bH
	DB	0d9H
	DB	0e6H
	DB	012H
	DB	0aH
	DB	0eeH
	DB	0aH
	DB	0ebH
	DB	016H
	DB	04fH
	DB	03cH
	DB	035H
	DB	08H
	DB	08bH
	DB	01eH
	DB	01eH
	DB	01eH
	DB	01eH
	DB	01eH
	DB	01eH
	DB	01eH
	DB	01eH
	DB	01eH
	DB	01eH
	DB	01eH
	DB	01eH
	DB	01eH
	DB	01eH
	DB	01eH
	DB	01eH
	DB	01eH
	DB	0a8H
	DB	00H
	DB	00H
	DB	00H
	DB	00H
	DB	00H
	DB	00H
	DB	01bH
	DB	02aH
	DB	01eH
	DB	021H
	DB	021H
	DB	021H
	DB	021H
	DB	021H
	DB	021H
	DB	021H
	DB	021H
	DB	021H
	DB	021H
	DB	021H
	DB	021H
	DB	021H
	DB	021H
	DB	021H
	DB	021H
	DB	021H
	DB	021H
	DB	021H
	DB	021H
	DB	021H
	DB	076H
	DB	05H
	DB	049H
	DB	0eaH
	DB	023H
	DB	0cH
	DB	0f4H
	DB	026H
	DB	019H
	DB	01dH
	DB	012H
	DB	025H
	DB	010H
	DB	018H
	DB	049H
	DB	09eH
	DB	037H
	DB	05cH
	DB	05cH
	DB	03dH
	DB	056H
	DB	0f0H
	DB	018H
	DB	0a0H
	DB	0cH
	DB	0eeH
	DB	0ecH
	DB	0a0H
	DB	01cH
	DB	03H
	DB	03H
	DB	021H
	DB	021H
	DB	021H
	DB	021H
	DB	021H
	DB	021H
	DB	021H
	DB	021H
	DB	021H
	DB	021H
	DB	021H
	DB	021H
	DB	021H
	DB	021H
	DB	021H
	DB	021H
	DB	021H
	DB	01eH
	DB	089H
	DB	0c8H
	DB	0e8H
	DB	09H
	DB	031H
	DB	086H
	DB	02bH
	DB	09eH
	DB	0e6H
	DB	0f0H
	DB	0f6H
	DB	0f7H
	DB	05aH
	DB	0dfH
	DB	016H
	DB	012H
	DB	0aH
	DB	0eeH
	DB	0eeH
	DB	0aH
	DB	0e9H
	DB	09H
	DB	026H
	DB	025H
	DB	026H
	DB	0dbH
	DB	07H
	DB	059H
	DB	08H
	DB	06dH
	DB	021H
	DB	021H
	DB	021H
	DB	021H
	DB	021H
	DB	021H
	DB	021H
	DB	021H
	DB	021H
	DB	021H
	DB	021H
	DB	021H
	DB	021H
	DB	021H
	DB	021H
	DB	021H
	DB	021H
	DB	088H
	DB	00H
	DB	00H
	DB	00H
	DB	00H
	DB	00H
	DB	00H
	DB	08dH
	DB	048H
	DB	075H
	DB	054H
	DB	054H
	DB	054H
	DB	054H
	DB	054H
	DB	054H
	DB	054H
	DB	054H
	DB	054H
	DB	054H
	DB	054H
	DB	054H
	DB	054H
	DB	054H
	DB	054H
	DB	054H
	DB	054H
	DB	054H
	DB	054H
	DB	054H
	DB	054H
	DB	054H
	DB	03H
	DB	01cH
	DB	0c9H
	DB	0d1H
	DB	01dH
	DB	012H
	DB	0c6H
	DB	015H
	DB	0f3H
	DB	09aH
	DB	0e6H
	DB	01dH
	DB	041H
	DB	0e0H
	DB	0aH
	DB	0d1H
	DB	0f5H
	DB	03dH
	DB	047H
	DB	05cH
	DB	024H
	DB	018H
	DB	0a0H
	DB	0a0H
	DB	0cH
	DB	0cH
	DB	0ecH
	DB	018H
	DB	02bH
	DB	035H
	DB	089H
	DB	076H
	DB	054H
	DB	054H
	DB	054H
	DB	054H
	DB	054H
	DB	054H
	DB	054H
	DB	054H
	DB	054H
	DB	054H
	DB	054H
	DB	054H
	DB	054H
	DB	021H
	DB	03H
	DB	0eH
	DB	046H
	DB	039H
	DB	036H
	DB	0c8H
	DB	028H
	DB	026H
	DB	02bH
	DB	0dfH
	DB	0ecH
	DB	0f5H
	DB	0f8H
	DB	0f9H
	DB	0cH
	DB	0d6H
	DB	0eaH
	DB	02bH
	DB	086H
	DB	03eH
	DB	01cH
	DB	046H
	DB	0d0H
	DB	0d6H
	DB	039H
	DB	0e9H
	DB	0aH
	DB	07H
	DB	0d0H
	DB	0a8H
	DB	03H
	DB	054H
	DB	054H
	DB	054H
	DB	054H
	DB	054H
	DB	054H
	DB	054H
	DB	054H
	DB	054H
	DB	054H
	DB	054H
	DB	054H
	DB	054H
	DB	054H
	DB	054H
	DB	054H
	DB	054H
	DB	054H
	DB	05H
	DB	00H
	DB	00H
	DB	00H
	DB	00H
	DB	00H
	DB	00H
	DB	08dH
	DB	06bH
	DB	021H
	DB	032H
	DB	032H
	DB	032H
	DB	032H
	DB	032H
	DB	032H
	DB	032H
	DB	032H
	DB	032H
	DB	032H
	DB	032H
	DB	032H
	DB	032H
	DB	032H
	DB	032H
	DB	032H
	DB	032H
	DB	032H
	DB	032H
	DB	032H
	DB	032H
	DB	032H
	DB	054H
	DB	01eH
	DB	048H
	DB	018H
	DB	04dH
	DB	025H
	DB	041H
	DB	024H
	DB	0e6H
	DB	099H
	DB	0f4H
	DB	018H
	DB	0dH
	DB	07H
	DB	0aH
	DB	041H
	DB	0e6H
	DB	011H
	DB	047H
	DB	05dH
	DB	052H
	DB	01aH
	DB	0a0H
	DB	0a0H
	DB	018H
	DB	04fH
	DB	068H
	DB	039H
	DB	0eeH
	DB	012H
	DB	0dH
	DB	08cH
	DB	0acH
	DB	08aH
	DB	021H
	DB	032H
	DB	032H
	DB	032H
	DB	032H
	DB	032H
	DB	032H
	DB	032H
	DB	054H
	DB	01eH
	DB	01eH
	DB	08cH
	DB	095H
	DB	09H
	DB	0dbH
	DB	031H
	DB	031H
	DB	02aH
	DB	087H
	DB	04bH
	DB	041H
	DB	0e8H
	DB	01dH
	DB	062H
	DB	02dH
	DB	0f5H
	DB	01cH
	DB	0d2H
	DB	016H
	DB	0dbH
	DB	0dbH
	DB	042H
	DB	039H
	DB	030H
	DB	012H
	DB	0ebH
	DB	0eeH
	DB	0cH
	DB	0aH
	DB	016H
	DB	028H
	DB	0a8H
	DB	06dH
	DB	032H
	DB	032H
	DB	032H
	DB	032H
	DB	032H
	DB	032H
	DB	032H
	DB	032H
	DB	032H
	DB	032H
	DB	032H
	DB	032H
	DB	032H
	DB	032H
	DB	032H
	DB	032H
	DB	032H
	DB	032H
	DB	05H
	DB	00H
	DB	00H
	DB	00H
	DB	00H
	DB	00H
	DB	00H
	DB	03fH
	DB	068H
	DB	032H
	DB	028H
	DB	028H
	DB	028H
	DB	028H
	DB	028H
	DB	028H
	DB	028H
	DB	028H
	DB	028H
	DB	028H
	DB	028H
	DB	028H
	DB	028H
	DB	028H
	DB	028H
	DB	028H
	DB	028H
	DB	028H
	DB	028H
	DB	028H
	DB	028H
	DB	028H
	DB	028H
	DB	0acH
	DB	03fH
	DB	055H
	DB	0e9H
	DB	04H
	DB	07H
	DB	0f4H
	DB	025H
	DB	044H
	DB	01dH
	DB	031H
	DB	0d2H
	DB	01aH
	DB	02bH
	DB	0e6H
	DB	0e9H
	DB	0aH
	DB	03dH
	DB	047H
	DB	047H
	DB	011H
	DB	0f4H
	DB	0cH
	DB	0cH
	DB	0b3H
	DB	00H
	DB	09cH
	DB	0ebH
	DB	037H
	DB	0aH
	DB	0e6H
	DB	026H
	DB	045H
	DB	03fH
	DB	08bH
	DB	08bH
	DB	06dH
	DB	06dH
	DB	06dH
	DB	01eH
	DB	08bH
	DB	0b0H
	DB	048H
	DB	025H
	DB	086H
	DB	0e0H
	DB	09cH
	DB	019H
	DB	09cH
	DB	0d2H
	DB	0d1H
	DB	049H
	DB	0d6H
	DB	0e6H
	DB	01aH
	DB	05fH
	DB	05fH
	DB	02dH
	DB	016H
	DB	014H
	DB	03aH
	DB	03aH
	DB	012H
	DB	037H
	DB	037H
	DB	033H
	DB	037H
	DB	0e9H
	DB	0e3H
	DB	0d2H
	DB	0cdH
	DB	057H
	DB	060H
	DB	075H
	DB	03H
	DB	032H
	DB	028H
	DB	028H
	DB	028H
	DB	028H
	DB	028H
	DB	028H
	DB	028H
	DB	028H
	DB	028H
	DB	028H
	DB	028H
	DB	028H
	DB	028H
	DB	028H
	DB	028H
	DB	028H
	DB	028H
	DB	028H
	DB	05H
	DB	00H
	DB	00H
	DB	00H
	DB	00H
	DB	00H
	DB	00H
	DB	08fH
	DB	045H
	DB	028H
	DB	0eH
	DB	0eH
	DB	0eH
	DB	0eH
	DB	0eH
	DB	0eH
	DB	0eH
	DB	0eH
	DB	0eH
	DB	0eH
	DB	0eH
	DB	0eH
	DB	0eH
	DB	0eH
	DB	0eH
	DB	0eH
	DB	0eH
	DB	0eH
	DB	0eH
	DB	0eH
	DB	0eH
	DB	0eH
	DB	0eH
	DB	032H
	DB	028H
	DB	0eeH
	DB	04fH
	DB	046H
	DB	01dH
	DB	0e9H
	DB	03cH
	DB	0a1H
	DB	0f0H
	DB	0caH
	DB	0cH
	DB	07H
	DB	0cbH
	DB	0a0H
	DB	037H
	DB	09H
	DB	010H
	DB	05dH
	DB	047H
	DB	047H
	DB	0fdH
	DB	01aH
	DB	0a0H
	DB	0e6H
	DB	09cH
	DB	0ebH
	DB	0ecH
	DB	037H
	DB	012H
	DB	0eaH
	DB	0ebH
	DB	033H
	DB	016H
	DB	031H
	DB	049H
	DB	04fH
	DB	09aH
	DB	0dH
	DB	01cH
	DB	0d1H
	DB	041H
	DB	0dfH
	DB	042H
	DB	03eH
	DB	0d0H
	DB	03eH
	DB	031H
	DB	0d6H
	DB	086H
	DB	041H
	DB	09cH
	DB	014H
	DB	01dH
	DB	04eH
	DB	0fbH
	DB	0fcH
	DB	0e8H
	DB	019H
	DB	016H
	DB	03eH
	DB	019H
	DB	019H
	DB	049H
	DB	046H
	DB	026H
	DB	0cbH
	DB	0cdH
	DB	046H
	DB	019H
	DB	036H
	DB	0e9H
	DB	02bH
	DB	03H
	DB	021H
	DB	0aeH
	DB	0eH
	DB	0eH
	DB	0eH
	DB	0eH
	DB	0eH
	DB	0eH
	DB	0eH
	DB	0eH
	DB	0eH
	DB	0eH
	DB	0eH
	DB	0eH
	DB	0eH
	DB	0eH
	DB	0eH
	DB	0eH
	DB	0eH
	DB	0eH
	DB	089H
	DB	00H
	DB	00H
	DB	00H
	DB	00H
	DB	00H
	DB	00H
	DB	08fH
	DB	023H
	DB	028H
	DB	0eH
	DB	0eH
	DB	0eH
	DB	0eH
	DB	0eH
	DB	0eH
	DB	0eH
	DB	0eH
	DB	0eH
	DB	0eH
	DB	0eH
	DB	0eH
	DB	0eH
	DB	0eH
	DB	0eH
	DB	0eH
	DB	0eH
	DB	0eH
	DB	0eH
	DB	0eH
	DB	0eH
	DB	0eH
	DB	0eH
	DB	0aeH
	DB	03fH
	DB	019H
	DB	063H
	DB	012H
	DB	01aH
	DB	0cbH
	DB	03eH
	DB	01aH
	DB	0e0H
	DB	04bH
	DB	01aH
	DB	014H
	DB	01cH
	DB	04dH
	DB	0e6H
	DB	044H
	DB	044H
	DB	01aH
	DB	05dH
	DB	03dH
	DB	03dH
	DB	051H
	DB	024H
	DB	0f0H
	DB	0a0H
	DB	0cH
	DB	0eeH
	DB	0ebH
	DB	033H
	DB	02bH
	DB	09aH
	DB	09H
	DB	014H
	DB	014H
	DB	0e6H
	DB	039H
	DB	016H
	DB	016H
	DB	0dcH
	DB	09H
	DB	0d6H
	DB	03eH
	DB	09cH
	DB	04H
	DB	06dH
	DB	046H
	DB	09H
	DB	0d9H
	DB	0d9H
	DB	02bH
	DB	033H
	DB	027H
	DB	050H
	DB	0fcH
	DB	0fdH
	DB	0cH
	DB	09H
	DB	0dbH
	DB	0dfH
	DB	016H
	DB	0dfH
	DB	0dbH
	DB	0dbH
	DB	0dfH
	DB	016H
	DB	0e6H
	DB	0e9H
	DB	0eaH
	DB	012H
	DB	037H
	DB	086H
	DB	054H
	DB	089H
	DB	08cH
	DB	0eH
	DB	0eH
	DB	0eH
	DB	0eH
	DB	0eH
	DB	0eH
	DB	0eH
	DB	0eH
	DB	0eH
	DB	0eH
	DB	0eH
	DB	0eH
	DB	0eH
	DB	0eH
	DB	0eH
	DB	0eH
	DB	0eH
	DB	0eH
	DB	0eH
	DB	089H
	DB	00H
	DB	00H
	DB	00H
	DB	00H
	DB	00H
	DB	00H
	DB	02eH
	DB	0c0H
	DB	0eH
	DB	01bH
	DB	01bH
	DB	01bH
	DB	01bH
	DB	01bH
	DB	01bH
	DB	01bH
	DB	01bH
	DB	01bH
	DB	01bH
	DB	01bH
	DB	01bH
	DB	01bH
	DB	01bH
	DB	01bH
	DB	01bH
	DB	01bH
	DB	01bH
	DB	01bH
	DB	01bH
	DB	01bH
	DB	01bH
	DB	01bH
	DB	01bH
	DB	0aeH
	DB	06dH
	DB	023H
	DB	0f4H
	DB	0a0H
	DB	01fH
	DB	033H
	DB	0f3H
	DB	0dH
	DB	0e0H
	DB	04dH
	DB	01cH
	DB	0dfH
	DB	055H
	DB	01cH
	DB	033H
	DB	0eaH
	DB	09H
	DB	01aH
	DB	05dH
	DB	047H
	DB	047H
	DB	05cH
	DB	0f8H
	DB	015H
	DB	0eeH
	DB	0aH
	DB	0aH
	DB	0ecH
	DB	022H
	DB	00H
	DB	060H
	DB	03aH
	DB	0e6H
	DB	0e3H
	DB	0e3H
	DB	0d2H
	DB	057H
	DB	0d1H
	DB	086H
	DB	041H
	DB	031H
	DB	09cH
	DB	071H
	DB	028H
	DB	019H
	DB	09H
	DB	0dbH
	DB	0e8H
	DB	015H
	DB	02dH
	DB	011H
	DB	011H
	DB	011H
	DB	0eeH
	DB	019H
	DB	0e6H
	DB	0dbH
	DB	042H
	DB	0e3H
	DB	0e6H
	DB	03aH
	DB	0eaH
	DB	0eaH
	DB	03aH
	DB	03aH
	DB	030H
	DB	0e6H
	DB	0e3H
	DB	0d6H
	DB	08fH
	DB	08H
	DB	054H
	DB	0eH
	DB	01bH
	DB	01bH
	DB	01bH
	DB	01bH
	DB	01bH
	DB	01bH
	DB	01bH
	DB	01bH
	DB	01bH
	DB	01bH
	DB	01bH
	DB	01bH
	DB	01bH
	DB	01bH
	DB	01bH
	DB	01bH
	DB	01bH
	DB	01bH
	DB	01bH
	DB	03H
	DB	00H
	DB	00H
	DB	00H
	DB	00H
	DB	00H
	DB	00H
	DB	02eH
	DB	04H
	DB	0b0H
	DB	08dH
	DB	08dH
	DB	08dH
	DB	08dH
	DB	08dH
	DB	08dH
	DB	08dH
	DB	08dH
	DB	08dH
	DB	08dH
	DB	08dH
	DB	08dH
	DB	08dH
	DB	08dH
	DB	08dH
	DB	08dH
	DB	08dH
	DB	08dH
	DB	08dH
	DB	08dH
	DB	08dH
	DB	08dH
	DB	08dH
	DB	08dH
	DB	01bH
	DB	06dH
	DB	028H
	DB	0eeH
	DB	02bH
	DB	060H
	DB	0f3H
	DB	0cH
	DB	03cH
	DB	0a0H
	DB	07H
	DB	025H
	DB	0eeH
	DB	07H
	DB	0cbH
	DB	018H
	DB	033H
	DB	09eH
	DB	044H
	DB	015H
	DB	03dH
	DB	05dH
	DB	047H
	DB	047H
	DB	050H
	DB	024H
	DB	07H
	DB	0ebH
	DB	033H
	DB	042H
	DB	060H
	DB	09H
	DB	030H
	DB	014H
	DB	0e6H
	DB	014H
	DB	060H
	DB	00H
	DB	01fH
	DB	09H
	DB	086H
	DB	0d6H
	DB	0d2H
	DB	09cH
	DB	041H
	DB	09H
	DB	039H
	DB	018H
	DB	05aH
	DB	0fdH
	DB	051H
	DB	051H
	DB	0fcH
	DB	0aH
	DB	03eH
	DB	09cH
	DB	0d6H
	DB	019H
	DB	01cH
	DB	046H
	DB	026H
	DB	046H
	DB	046H
	DB	0cdH
	DB	0cbH
	DB	0dH
	DB	025H
	DB	099H
	DB	025H
	DB	059H
	DB	05H
	DB	06dH
	DB	0eH
	DB	08dH
	DB	08dH
	DB	08dH
	DB	08dH
	DB	08dH
	DB	08dH
	DB	08dH
	DB	08dH
	DB	08dH
	DB	08dH
	DB	08dH
	DB	08dH
	DB	08dH
	DB	08dH
	DB	08dH
	DB	08dH
	DB	08dH
	DB	08dH
	DB	08dH
	DB	08dH
	DB	03H
	DB	00H
	DB	00H
	DB	00H
	DB	00H
	DB	00H
	DB	00H
	DB	0b3H
	DB	04H
	DB	01bH
	DB	03fH
	DB	03fH
	DB	03fH
	DB	03fH
	DB	03fH
	DB	03fH
	DB	03fH
	DB	03fH
	DB	03fH
	DB	03fH
	DB	03fH
	DB	03fH
	DB	03fH
	DB	03fH
	DB	03fH
	DB	03fH
	DB	03fH
	DB	03fH
	DB	03fH
	DB	03fH
	DB	03fH
	DB	03fH
	DB	03fH
	DB	03fH
	DB	03fH
	DB	0eH
	DB	0eH
	DB	0aH
	DB	0dH
	DB	0d0H
	DB	01aH
	DB	042H
	DB	09aH
	DB	0f4H
	DB	012H
	DB	09aH
	DB	010H
	DB	0eaH
	DB	046H
	DB	04dH
	DB	016H
	DB	039H
	DB	033H
	DB	0d6H
	DB	0ebH
	DB	052H
	DB	05eH
	DB	047H
	DB	047H
	DB	03dH
	DB	0fcH
	DB	01dH
	DB	07H
	DB	0aH
	DB	033H
	DB	0eaH
	DB	030H
	DB	0e8H
	DB	014H
	DB	014H
	DB	086H
	DB	059H
	DB	01cH
	DB	09H
	DB	036H
	DB	041H
	DB	0d2H
	DB	086H
	DB	0e6H
	DB	0a0H
	DB	024H
	DB	0fcH
	DB	051H
	DB	051H
	DB	052H
	DB	062H
	DB	09eH
	DB	0d2H
	DB	044H
	DB	0dbH
	DB	0e0H
	DB	016H
	DB	0dfH
	DB	02bH
	DB	09H
	DB	0d9H
	DB	0dbH
	DB	0d9H
	DB	02bH
	DB	0d9H
	DB	0d9H
	DB	0d9H
	DB	039H
	DB	03cH
	DB	043H
	DB	028H
	DB	08dH
	DB	03fH
	DB	03fH
	DB	03fH
	DB	03fH
	DB	03fH
	DB	03fH
	DB	03fH
	DB	03fH
	DB	03fH
	DB	03fH
	DB	03fH
	DB	03fH
	DB	03fH
	DB	03fH
	DB	03fH
	DB	03fH
	DB	03fH
	DB	03fH
	DB	03fH
	DB	03fH
	DB	03H
	DB	00H
	DB	00H
	DB	00H
	DB	00H
	DB	00H
	DB	00H
	DB	0b3H
	DB	0c2H
	DB	08eH
	DB	02cH
	DB	02cH
	DB	02cH
	DB	02cH
	DB	02cH
	DB	02cH
	DB	02cH
	DB	02cH
	DB	02cH
	DB	02cH
	DB	02cH
	DB	02cH
	DB	02cH
	DB	02cH
	DB	02cH
	DB	02cH
	DB	02cH
	DB	02cH
	DB	02cH
	DB	02cH
	DB	02cH
	DB	02cH
	DB	02cH
	DB	02cH
	DB	02cH
	DB	03fH
	DB	08fH
	DB	026H
	DB	0c8H
	DB	0e6H
	DB	01aH
	DB	04fH
	DB	019H
	DB	01aH
	DB	0d6H
	DB	01cH
	DB	0f4H
	DB	086H
	DB	09cH
	DB	0f4H
	DB	031H
	DB	0e3H
	DB	0cH
	DB	0dbH
	DB	014H
	DB	039H
	DB	05aH
	DB	047H
	DB	05dH
	DB	05dH
	DB	05dH
	DB	03dH
	DB	011H
	DB	062H
	DB	0f4H
	DB	0f0H
	DB	0aH
	DB	012H
	DB	03aH
	DB	0e8H
	DB	0e8H
	DB	0e8H
	DB	044H
	DB	044H
	DB	030H
	DB	012H
	DB	0f0H
	DB	01dH
	DB	05fH
	DB	0fdH
	DB	051H
	DB	051H
	DB	052H
	DB	051H
	DB	04dH
	DB	0dbH
	DB	09cH
	DB	09cH
	DB	01cH
	DB	0cdH
	DB	046H
	DB	019H
	DB	086H
	DB	0dbH
	DB	0e3H
	DB	0e3H
	DB	039H
	DB	044H
	DB	0e6H
	DB	0e6H
	DB	0e6H
	DB	0e3H
	DB	0c6H
	DB	0a8H
	DB	021H
	DB	01bH
	DB	08fH
	DB	02cH
	DB	02cH
	DB	02cH
	DB	02cH
	DB	02cH
	DB	02cH
	DB	02cH
	DB	02cH
	DB	02cH
	DB	02cH
	DB	02cH
	DB	02cH
	DB	02cH
	DB	02cH
	DB	02cH
	DB	02cH
	DB	02cH
	DB	02cH
	DB	02cH
	DB	02cH
	DB	08bH
	DB	00H
	DB	00H
	DB	00H
	DB	00H
	DB	00H
	DB	00H
	DB	035H
	DB	0c6H
	DB	08fH
	DB	0b3H
	DB	0b3H
	DB	0b3H
	DB	0b3H
	DB	0b3H
	DB	0b3H
	DB	0b3H
	DB	0b3H
	DB	0b3H
	DB	0b3H
	DB	0b3H
	DB	0b3H
	DB	0b3H
	DB	0b3H
	DB	0b3H
	DB	0b3H
	DB	0b3H
	DB	0b3H
	DB	0b3H
	DB	0b3H
	DB	0b3H
	DB	0b3H
	DB	0b3H
	DB	0b3H
	DB	0b3H
	DB	0b3H
	DB	08fH
	DB	06dH
	DB	02eH
	DB	037H
	DB	010H
	DB	0c8H
	DB	016H
	DB	010H
	DB	04fH
	DB	086H
	DB	010H
	DB	046H
	DB	0dbH
	DB	010H
	DB	046H
	DB	014H
	DB	07H
	DB	01cH
	DB	0eeH
	DB	09eH
	DB	09H
	DB	0cH
	DB	04eH
	DB	05dH
	DB	05eH
	DB	05dH
	DB	05dH
	DB	047H
	DB	05cH
	DB	011H
	DB	0fbH
	DB	056H
	DB	027H
	DB	024H
	DB	01dH
	DB	01dH
	DB	024H
	DB	058H
	DB	0f9H
	DB	050H
	DB	052H
	DB	0feH
	DB	05cH
	DB	052H
	DB	052H
	DB	052H
	DB	056H
	DB	0eaH
	DB	041H
	DB	086H
	DB	09H
	DB	086H
	DB	041H
	DB	09cH
	DB	019H
	DB	01cH
	DB	0cdH
	DB	04fH
	DB	0dH
	DB	0dH
	DB	04fH
	DB	0cbH
	DB	04bH
	DB	0cbH
	DB	04fH
	DB	04H
	DB	05H
	DB	0acH
	DB	0b0H
	DB	02eH
	DB	0b3H
	DB	0b3H
	DB	0b3H
	DB	0b3H
	DB	0b3H
	DB	0b3H
	DB	0b3H
	DB	0b3H
	DB	0b3H
	DB	0b3H
	DB	0b3H
	DB	0b3H
	DB	0b3H
	DB	0b3H
	DB	0b3H
	DB	0b3H
	DB	0b3H
	DB	0b3H
	DB	0b3H
	DB	0b3H
	DB	0b3H
	DB	01eH
	DB	00H
	DB	00H
	DB	00H
	DB	00H
	DB	00H
	DB	00H
	DB	035H
	DB	059H
	DB	02eH
	DB	035H
	DB	035H
	DB	035H
	DB	035H
	DB	035H
	DB	035H
	DB	035H
	DB	035H
	DB	035H
	DB	035H
	DB	035H
	DB	035H
	DB	035H
	DB	035H
	DB	035H
	DB	035H
	DB	035H
	DB	035H
	DB	035H
	DB	035H
	DB	035H
	DB	035H
	DB	035H
	DB	035H
	DB	035H
	DB	035H
	DB	0b3H
	DB	08dH
	DB	089H
	DB	0cbH
	DB	0cH
	DB	071H
	DB	012H
	DB	015H
	DB	057H
	DB	09eH
	DB	015H
	DB	0dH
	DB	039H
	DB	07H
	DB	04fH
	DB	0eaH
	DB	0cH
	DB	0cdH
	DB	0eeH
	DB	0e8H
	DB	0e3H
	DB	014H
	DB	02bH
	DB	0f0H
	DB	067H
	DB	03dH
	DB	05dH
	DB	05dH
	DB	05dH
	DB	047H
	DB	03dH
	DB	03dH
	DB	03dH
	DB	03dH
	DB	0feH
	DB	0feH
	DB	0feH
	DB	03dH
	DB	03dH
	DB	0feH
	DB	0feH
	DB	03dH
	DB	03dH
	DB	052H
	DB	0f7H
	DB	033H
	DB	09H
	DB	0e0H
	DB	031H
	DB	01cH
	DB	0dH
	DB	04bH
	DB	0d1H
	DB	086H
	DB	0d9H
	DB	09H
	DB	086H
	DB	036H
	DB	086H
	DB	041H
	DB	019H
	DB	0d0H
	DB	019H
	DB	019H
	DB	0d1H
	DB	07dH
	DB	089H
	DB	0eH
	DB	02eH
	DB	035H
	DB	035H
	DB	035H
	DB	035H
	DB	035H
	DB	035H
	DB	035H
	DB	035H
	DB	035H
	DB	035H
	DB	035H
	DB	035H
	DB	035H
	DB	035H
	DB	035H
	DB	035H
	DB	035H
	DB	035H
	DB	035H
	DB	035H
	DB	035H
	DB	035H
	DB	01eH
	DB	00H
	DB	00H
	DB	00H
	DB	00H
	DB	00H
	DB	00H
	DB	079H
	DB	0c7H
	DB	035H
	DB	029H
	DB	029H
	DB	029H
	DB	029H
	DB	029H
	DB	029H
	DB	029H
	DB	029H
	DB	029H
	DB	029H
	DB	029H
	DB	029H
	DB	029H
	DB	029H
	DB	029H
	DB	029H
	DB	029H
	DB	029H
	DB	029H
	DB	029H
	DB	029H
	DB	029H
	DB	029H
	DB	029H
	DB	029H
	DB	029H
	DB	079H
	DB	035H
	DB	0eH
	DB	059H
	DB	0d2H
	DB	063H
	DB	0f0H
	DB	018H
	DB	0c8H
	DB	0eaH
	DB	07H
	DB	0caH
	DB	014H
	DB	0a0H
	DB	0dH
	DB	0eaH
	DB	0eeH
	DB	04fH
	DB	0cH
	DB	0e8H
	DB	0d0H
	DB	037H
	DB	02bH
	DB	039H
	DB	0dbH
	DB	0e9H
	DB	0a1H
	DB	0fbH
	DB	05cH
	DB	03dH
	DB	03dH
	DB	03dH
	DB	03dH
	DB	03dH
	DB	047H
	DB	047H
	DB	047H
	DB	047H
	DB	047H
	DB	0feH
	DB	051H
	DB	05fH
	DB	04dH
	DB	03aH
	DB	0e3H
	DB	09cH
	DB	041H
	DB	046H
	DB	036H
	DB	09H
	DB	03eH
	DB	01cH
	DB	04bH
	DB	0dH
	DB	0cbH
	DB	01cH
	DB	031H
	DB	0d6H
	DB	09H
	DB	0dbH
	DB	02bH
	DB	09H
	DB	09H
	DB	049H
	DB	0b6H
	DB	01eH
	DB	028H
	DB	02eH
	DB	07aH
	DB	029H
	DB	029H
	DB	029H
	DB	029H
	DB	029H
	DB	029H
	DB	029H
	DB	029H
	DB	029H
	DB	029H
	DB	029H
	DB	029H
	DB	029H
	DB	029H
	DB	029H
	DB	029H
	DB	029H
	DB	029H
	DB	029H
	DB	029H
	DB	029H
	DB	029H
	DB	075H
	DB	00H
	DB	00H
	DB	00H
	DB	00H
	DB	00H
	DB	00H
	DB	029H
	DB	095H
	DB	029H
	DB	0bH
	DB	0bH
	DB	0bH
	DB	0bH
	DB	0bH
	DB	0bH
	DB	0bH
	DB	0bH
	DB	0bH
	DB	0bH
	DB	0bH
	DB	0bH
	DB	0bH
	DB	0bH
	DB	0bH
	DB	0bH
	DB	0bH
	DB	0bH
	DB	0bH
	DB	0bH
	DB	0bH
	DB	0bH
	DB	0bH
	DB	0bH
	DB	0bH
	DB	0bH
	DB	0bH
	DB	090H
	DB	029H
	DB	03fH
	DB	0b0H
	DB	057H
	DB	01dH
	DB	037H
	DB	0c6H
	DB	0ebH
	DB	018H
	DB	060H
	DB	0eaH
	DB	0eeH
	DB	025H
	DB	0eaH
	DB	0eeH
	DB	0dH
	DB	0eeH
	DB	0eaH
	DB	0cdH
	DB	0a0H
	DB	09H
	DB	0d9H
	DB	0eaH
	DB	086H
	DB	016H
	DB	09H
	DB	0e6H
	DB	0ecH
	DB	07H
	DB	01dH
	DB	01dH
	DB	05aH
	DB	062H
	DB	058H
	DB	027H
	DB	01aH
	DB	0f2H
	DB	0eeH
	DB	0e6H
	DB	0e6H
	DB	0d6H
	DB	086H
	DB	0d6H
	DB	0e0H
	DB	0d2H
	DB	01cH
	DB	0dH
	DB	026H
	DB	036H
	DB	0d9H
	DB	031H
	DB	019H
	DB	0d0H
	DB	026H
	DB	09aH
	DB	025H
	DB	025H
	DB	0dH
	DB	04bH
	DB	026H
	DB	0cbH
	DB	079H
	DB	0a8H
	DB	032H
	DB	08fH
	DB	029H
	DB	0bH
	DB	0bH
	DB	0bH
	DB	0bH
	DB	0bH
	DB	0bH
	DB	0bH
	DB	0bH
	DB	0bH
	DB	0bH
	DB	0bH
	DB	0bH
	DB	0bH
	DB	0bH
	DB	0bH
	DB	0bH
	DB	0bH
	DB	0bH
	DB	0bH
	DB	0bH
	DB	0bH
	DB	0bH
	DB	0bH
	DB	021H
	DB	00H
	DB	00H
	DB	00H
	DB	00H
	DB	00H
	DB	00H
	DB	029H
	DB	03cH
	DB	029H
	DB	0bH
	DB	0bH
	DB	0bH
	DB	0bH
	DB	0bH
	DB	0bH
	DB	0bH
	DB	0bH
	DB	0bH
	DB	0bH
	DB	0bH
	DB	0bH
	DB	0bH
	DB	0bH
	DB	0bH
	DB	0bH
	DB	0bH
	DB	0bH
	DB	0bH
	DB	0bH
	DB	0bH
	DB	0bH
	DB	0bH
	DB	0bH
	DB	0bH
	DB	0bH
	DB	0bH
	DB	0bH
	DB	0bH
	DB	079H
	DB	0aeH
	DB	08cH
	DB	012H
	DB	0e9H
	DB	01fH
	DB	0aH
	DB	0aH
	DB	03cH
	DB	0eaH
	DB	0aH
	DB	0caH
	DB	030H
	DB	0aH
	DB	09aH
	DB	033H
	DB	033H
	DB	0dH
	DB	0ecH
	DB	09eH
	DB	046H
	DB	018H
	DB	086H
	DB	0e0H
	DB	0e8H
	DB	086H
	DB	0e8H
	DB	036H
	DB	0d2H
	DB	0e3H
	DB	086H
	DB	086H
	DB	039H
	DB	086H
	DB	0d2H
	DB	0e6H
	DB	0d9H
	DB	036H
	DB	041H
	DB	0e3H
	DB	036H
	DB	026H
	DB	04fH
	DB	09H
	DB	0dbH
	DB	09cH
	DB	046H
	DB	025H
	DB	04fH
	DB	049H
	DB	0d6H
	DB	0d6H
	DB	0d2H
	DB	09cH
	DB	019H
	DB	01cH
	DB	046H
	DB	026H
	DB	026H
	DB	045H
	DB	088H
	DB	028H
	DB	02eH
	DB	029H
	DB	0bH
	DB	0bH
	DB	0bH
	DB	0bH
	DB	0bH
	DB	0bH
	DB	0bH
	DB	0bH
	DB	0bH
	DB	0bH
	DB	0bH
	DB	0bH
	DB	0bH
	DB	0bH
	DB	0bH
	DB	0bH
	DB	0bH
	DB	0bH
	DB	0bH
	DB	0bH
	DB	0bH
	DB	0bH
	DB	0bH
	DB	0bH
	DB	054H
	DB	00H
	DB	00H
	DB	00H
	DB	00H
	DB	00H
	DB	00H
	DB	090H
	DB	060H
	DB	0bH
	DB	0fH
	DB	0fH
	DB	0fH
	DB	0fH
	DB	0fH
	DB	0fH
	DB	0fH
	DB	0fH
	DB	0fH
	DB	0fH
	DB	0fH
	DB	0fH
	DB	0fH
	DB	0fH
	DB	0fH
	DB	0fH
	DB	0fH
	DB	0fH
	DB	0fH
	DB	0fH
	DB	0fH
	DB	0fH
	DB	0fH
	DB	0fH
	DB	0fH
	DB	0fH
	DB	0fH
	DB	0fH
	DB	0fH
	DB	07dH
	DB	029H
	DB	032H
	DB	0cdH
	DB	0e3H
	DB	01fH
	DB	018H
	DB	037H
	DB	0c8H
	DB	0eaH
	DB	0eeH
	DB	057H
	DB	0e6H
	DB	0eeH
	DB	099H
	DB	0e8H
	DB	0aH
	DB	025H
	DB	0eaH
	DB	0eaH
	DB	09aH
	DB	0aH
	DB	0e6H
	DB	026H
	DB	0a0H
	DB	09H
	DB	0d6H
	DB	0ecH
	DB	036H
	DB	0dfH
	DB	0e9H
	DB	086H
	DB	0d9H
	DB	014H
	DB	02bH
	DB	01cH
	DB	0e6H
	DB	0dbH
	DB	046H
	DB	0cdH
	DB	016H
	DB	0d9H
	DB	019H
	DB	025H
	DB	01cH
	DB	0d9H
	DB	09H
	DB	031H
	DB	01cH
	DB	0dH
	DB	099H
	DB	04fH
	DB	01cH
	DB	019H
	DB	041H
	DB	031H
	DB	019H
	DB	036H
	DB	0d1H
	DB	035H
	DB	054H
	DB	0b3H
	DB	0bH
	DB	0fH
	DB	0fH
	DB	0fH
	DB	0fH
	DB	0fH
	DB	0fH
	DB	0fH
	DB	0fH
	DB	0fH
	DB	0fH
	DB	0fH
	DB	0fH
	DB	0fH
	DB	0fH
	DB	0fH
	DB	0fH
	DB	0fH
	DB	0fH
	DB	0fH
	DB	0fH
	DB	0fH
	DB	0fH
	DB	0fH
	DB	0fH
	DB	0fH
	DB	032H
	DB	00H
	DB	00H
	DB	00H
	DB	00H
	DB	00H
	DB	00H
	DB	0bH
	DB	057H
	DB	0fH
	DB	02aH
	DB	02aH
	DB	02aH
	DB	02aH
	DB	02aH
	DB	02aH
	DB	02aH
	DB	02aH
	DB	02aH
	DB	02aH
	DB	02aH
	DB	02aH
	DB	02aH
	DB	02aH
	DB	02aH
	DB	02aH
	DB	02aH
	DB	02aH
	DB	02aH
	DB	02aH
	DB	02aH
	DB	02aH
	DB	02aH
	DB	02aH
	DB	02aH
	DB	02aH
	DB	02aH
	DB	02aH
	DB	02aH
	DB	02aH
	DB	070H
	DB	090H
	DB	07cH
	DB	048H
	DB	04H
	DB	015H
	DB	037H
	DB	0c6H
	DB	0e9H
	DB	0eeH
	DB	0c9H
	DB	0e3H
	DB	0cH
	DB	099H
	DB	0e0H
	DB	0cH
	DB	025H
	DB	039H
	DB	0cH
	DB	09aH
	DB	0e6H
	DB	0ebH
	DB	09aH
	DB	0eaH
	DB	012H
	DB	0dH
	DB	012H
	DB	0eaH
	DB	0dH
	DB	0e9H
	DB	03aH
	DB	04fH
	DB	042H
	DB	030H
	DB	031H
	DB	04bH
	DB	0e6H
	DB	016H
	DB	01cH
	DB	025H
	DB	09H
	DB	0dfH
	DB	086H
	DB	0cdH
	DB	099H
	DB	01cH
	DB	09H
	DB	086H
	DB	0d2H
	DB	049H
	DB	026H
	DB	025H
	DB	057H
	DB	057H
	DB	025H
	DB	04bH
	DB	0c6H
	DB	03H
	DB	01eH
	DB	02eH
	DB	07dH
	DB	02aH
	DB	02aH
	DB	02aH
	DB	02aH
	DB	02aH
	DB	02aH
	DB	02aH
	DB	02aH
	DB	02aH
	DB	02aH
	DB	02aH
	DB	02aH
	DB	02aH
	DB	02aH
	DB	02aH
	DB	02aH
	DB	02aH
	DB	02aH
	DB	02aH
	DB	02aH
	DB	02aH
	DB	02aH
	DB	02aH
	DB	02aH
	DB	02aH
	DB	02aH
	DB	08cH
	DB	00H
	DB	00H
	DB	00H
	DB	00H
	DB	00H
	DB	00H
	DB	0bH
	DB	057H
	DB	070H
	DB	048H
	DB	048H
	DB	048H
	DB	048H
	DB	048H
	DB	048H
	DB	048H
	DB	048H
	DB	048H
	DB	048H
	DB	048H
	DB	048H
	DB	048H
	DB	048H
	DB	048H
	DB	048H
	DB	048H
	DB	048H
	DB	048H
	DB	048H
	DB	048H
	DB	048H
	DB	048H
	DB	048H
	DB	048H
	DB	048H
	DB	048H
	DB	048H
	DB	048H
	DB	048H
	DB	048H
	DB	048H
	DB	029H
	DB	0aeH
	DB	08aH
	DB	0d6H
	DB	0ebH
	DB	063H
	DB	044H
	DB	0eeH
	DB	060H
	DB	0d9H
	DB	0a0H
	DB	09aH
	DB	086H
	DB	018H
	DB	0cbH
	DB	036H
	DB	0f0H
	DB	046H
	DB	041H
	DB	0f0H
	DB	01cH
	DB	041H
	DB	0a0H
	DB	0d1H
	DB	09cH
	DB	0a0H
	DB	0d6H
	DB	01cH
	DB	0ebH
	DB	039H
	DB	025H
	DB	0e6H
	DB	0e9H
	DB	019H
	DB	04fH
	DB	044H
	DB	016H
	DB	0d2H
	DB	057H
	DB	03eH
	DB	0dfH
	DB	09H
	DB	0d2H
	DB	0dH
	DB	057H
	DB	046H
	DB	031H
	DB	031H
	DB	09cH
	DB	019H
	DB	019H
	DB	019H
	DB	04fH
	DB	06bH
	DB	043H
	DB	054H
	DB	02eH
	DB	07dH
	DB	048H
	DB	048H
	DB	048H
	DB	048H
	DB	048H
	DB	048H
	DB	048H
	DB	048H
	DB	048H
	DB	048H
	DB	048H
	DB	048H
	DB	048H
	DB	048H
	DB	048H
	DB	048H
	DB	048H
	DB	048H
	DB	048H
	DB	048H
	DB	048H
	DB	048H
	DB	048H
	DB	048H
	DB	048H
	DB	048H
	DB	048H
	DB	028H
	DB	00H
	DB	00H
	DB	00H
	DB	00H
	DB	00H
	DB	00H
	DB	07dH
	DB	025H
	DB	048H
	DB	04aH
	DB	04aH
	DB	04aH
	DB	04aH
	DB	04aH
	DB	04aH
	DB	04aH
	DB	04aH
	DB	04aH
	DB	04aH
	DB	04aH
	DB	04aH
	DB	04aH
	DB	04aH
	DB	04aH
	DB	04aH
	DB	04aH
	DB	04aH
	DB	04aH
	DB	04aH
	DB	04aH
	DB	04aH
	DB	04aH
	DB	04aH
	DB	04aH
	DB	04aH
	DB	04aH
	DB	04aH
	DB	04aH
	DB	04aH
	DB	04aH
	DB	04aH
	DB	048H
	DB	0bH
	DB	01bH
	DB	07dH
	DB	09H
	DB	04H
	DB	039H
	DB	07H
	DB	057H
	DB	09cH
	DB	0f0H
	DB	026H
	DB	01cH
	DB	018H
	DB	03eH
	DB	026H
	DB	018H
	DB	02bH
	DB	0dH
	DB	0a0H
	DB	09eH
	DB	025H
	DB	0aH
	DB	0eaH
	DB	025H
	DB	03aH
	DB	0ecH
	DB	09aH
	DB	0dfH
	DB	033H
	DB	036H
	DB	09aH
	DB	014H
	DB	030H
	DB	049H
	DB	025H
	DB	016H
	DB	016H
	DB	02bH
	DB	09aH
	DB	0dH
	DB	086H
	DB	09H
	DB	09H
	DB	03eH
	DB	0dH
	DB	060H
	DB	025H
	DB	046H
	DB	019H
	DB	0d2H
	DB	019H
	DB	023H
	DB	021H
	DB	08cH
	DB	079H
	DB	070H
	DB	06bH
	DB	04aH
	DB	04aH
	DB	04aH
	DB	04aH
	DB	04aH
	DB	04aH
	DB	04aH
	DB	04aH
	DB	04aH
	DB	04aH
	DB	04aH
	DB	04aH
	DB	04aH
	DB	04aH
	DB	04aH
	DB	04aH
	DB	04aH
	DB	04aH
	DB	04aH
	DB	04aH
	DB	04aH
	DB	04aH
	DB	04aH
	DB	04aH
	DB	04aH
	DB	04aH
	DB	04aH
	DB	0aeH
	DB	00H
	DB	00H
	DB	00H
	DB	00H
	DB	00H
	DB	00H
	DB	0fH
	DB	09aH
	DB	04aH
	DB	045H
	DB	045H
	DB	045H
	DB	045H
	DB	045H
	DB	045H
	DB	045H
	DB	045H
	DB	045H
	DB	045H
	DB	045H
	DB	045H
	DB	045H
	DB	045H
	DB	045H
	DB	045H
	DB	045H
	DB	045H
	DB	045H
	DB	045H
	DB	045H
	DB	045H
	DB	045H
	DB	045H
	DB	045H
	DB	045H
	DB	045H
	DB	045H
	DB	045H
	DB	045H
	DB	045H
	DB	045H
	DB	045H
	DB	068H
	DB	02aH
	DB	079H
	DB	079H
	DB	0b3H
	DB	02bH
	DB	01aH
	DB	025H
	DB	01cH
	DB	07H
	DB	0d2H
	DB	09aH
	DB	0cH
	DB	0e6H
	DB	0c9H
	DB	012H
	DB	037H
	DB	095H
	DB	014H
	DB	0aH
	DB	0caH
	DB	0dfH
	DB	0f0H
	DB	01cH
	DB	01cH
	DB	0eeH
	DB	039H
	DB	057H
	DB	030H
	DB	037H
	DB	01cH
	DB	04fH
	DB	014H
	DB	030H
	DB	03eH
	DB	060H
	DB	09H
	DB	0e3H
	DB	0e0H
	DB	01cH
	DB	03cH
	DB	026H
	DB	086H
	DB	09H
	DB	086H
	DB	041H
	DB	0cdH
	DB	0c9H
	DB	022H
	DB	04H
	DB	054H
	DB	089H
	DB	0eH
	DB	029H
	DB	07eH
	DB	045H
	DB	045H
	DB	045H
	DB	045H
	DB	045H
	DB	045H
	DB	045H
	DB	045H
	DB	045H
	DB	045H
	DB	045H
	DB	045H
	DB	045H
	DB	045H
	DB	045H
	DB	045H
	DB	045H
	DB	045H
	DB	045H
	DB	045H
	DB	045H
	DB	045H
	DB	045H
	DB	045H
	DB	045H
	DB	045H
	DB	045H
	DB	045H
	DB	045H
	DB	0eH
	DB	00H
	DB	00H
	DB	00H
	DB	00H
	DB	00H
	DB	00H
	DB	070H
	DB	09aH
	DB	045H
	DB	023H
	DB	023H
	DB	023H
	DB	023H
	DB	023H
	DB	023H
	DB	023H
	DB	023H
	DB	023H
	DB	023H
	DB	023H
	DB	023H
	DB	023H
	DB	023H
	DB	023H
	DB	023H
	DB	023H
	DB	023H
	DB	023H
	DB	023H
	DB	023H
	DB	023H
	DB	023H
	DB	023H
	DB	023H
	DB	023H
	DB	023H
	DB	023H
	DB	023H
	DB	023H
	DB	023H
	DB	023H
	DB	023H
	DB	0c0H
	DB	023H
	DB	06bH
	DB	035H
	DB	028H
	DB	01bH
	DB	0ebH
	DB	0d0H
	DB	025H
	DB	07H
	DB	09eH
	DB	022H
	DB	03aH
	DB	0eeH
	DB	0c8H
	DB	0e0H
	DB	018H
	DB	09aH
	DB	03eH
	DB	018H
	DB	0d2H
	DB	0dH
	DB	0aH
	DB	0eaH
	DB	022H
	DB	0e3H
	DB	0aH
	DB	01cH
	DB	04fH
	DB	03aH
	DB	033H
	DB	04bH
	DB	0cbH
	DB	014H
	DB	0e9H
	DB	086H
	DB	0c8H
	DB	019H
	DB	016H
	DB	016H
	DB	0d9H
	DB	09aH
	DB	022H
	DB	04bH
	DB	031H
	DB	086H
	DB	0e6H
	DB	016H
	DB	04fH
	DB	06dH
	DB	021H
	DB	02cH
	DB	07dH
	DB	04aH
	DB	023H
	DB	023H
	DB	023H
	DB	023H
	DB	023H
	DB	023H
	DB	023H
	DB	023H
	DB	023H
	DB	023H
	DB	023H
	DB	023H
	DB	023H
	DB	023H
	DB	023H
	DB	023H
	DB	023H
	DB	023H
	DB	023H
	DB	023H
	DB	023H
	DB	023H
	DB	023H
	DB	023H
	DB	023H
	DB	023H
	DB	023H
	DB	023H
	DB	023H
	DB	023H
	DB	0eH
	DB	00H
	DB	00H
	DB	00H
	DB	00H
	DB	00H
	DB	00H
	DB	070H
	DB	0dH
	DB	023H
	DB	04H
	DB	04H
	DB	04H
	DB	04H
	DB	04H
	DB	04H
	DB	04H
	DB	04H
	DB	04H
	DB	04H
	DB	04H
	DB	04H
	DB	04H
	DB	04H
	DB	04H
	DB	04H
	DB	04H
	DB	04H
	DB	04H
	DB	04H
	DB	04H
	DB	04H
	DB	04H
	DB	04H
	DB	04H
	DB	04H
	DB	04H
	DB	04H
	DB	04H
	DB	04H
	DB	04H
	DB	04H
	DB	04H
	DB	04H
	DB	04H
	DB	0c0H
	DB	061H
	DB	0fH
	DB	0b0H
	DB	057H
	DB	046H
	DB	0c6H
	DB	015H
	DB	0a0H
	DB	063H
	DB	02bH
	DB	0f0H
	DB	0dH
	DB	046H
	DB	0f0H
	DB	02bH
	DB	0c9H
	DB	037H
	DB	033H
	DB	059H
	DB	042H
	DB	018H
	DB	019H
	DB	025H
	DB	03aH
	DB	0ecH
	DB	057H
	DB	01cH
	DB	0eaH
	DB	033H
	DB	0dH
	DB	0dH
	DB	0e6H
	DB	0e8H
	DB	016H
	DB	0c9H
	DB	09aH
	DB	09H
	DB	0dfH
	DB	09eH
	DB	086H
	DB	057H
	DB	059H
	DB	04fH
	DB	0dH
	DB	090H
	DB	028H
	DB	028H
	DB	029H
	DB	06bH
	DB	093H
	DB	071H
	DB	071H
	DB	04H
	DB	04H
	DB	04H
	DB	04H
	DB	04H
	DB	04H
	DB	04H
	DB	04H
	DB	04H
	DB	04H
	DB	04H
	DB	04H
	DB	04H
	DB	04H
	DB	04H
	DB	04H
	DB	04H
	DB	04H
	DB	04H
	DB	04H
	DB	04H
	DB	04H
	DB	04H
	DB	04H
	DB	04H
	DB	04H
	DB	04H
	DB	04H
	DB	04H
	DB	01bH
	DB	00H
	DB	00H
	DB	00H
	DB	00H
	DB	00H
	DB	00H
	DB	02aH
	DB	04fH
	DB	04H
	DB	063H
	DB	063H
	DB	063H
	DB	063H
	DB	063H
	DB	063H
	DB	063H
	DB	063H
	DB	063H
	DB	063H
	DB	063H
	DB	063H
	DB	063H
	DB	063H
	DB	063H
	DB	063H
	DB	063H
	DB	063H
	DB	063H
	DB	063H
	DB	063H
	DB	063H
	DB	063H
	DB	063H
	DB	063H
	DB	063H
	DB	063H
	DB	063H
	DB	063H
	DB	063H
	DB	063H
	DB	063H
	DB	063H
	DB	063H
	DB	063H
	DB	04H
	DB	04H
	DB	071H
	DB	068H
	DB	035H
	DB	01bH
	DB	054H
	DB	025H
	DB	0cH
	DB	060H
	DB	026H
	DB	015H
	DB	086H
	DB	095H
	DB	012H
	DB	0aH
	DB	01fH
	DB	086H
	DB	0f0H
	DB	019H
	DB	057H
	DB	012H
	DB	0aH
	DB	03cH
	DB	0d1H
	DB	012H
	DB	012H
	DB	059H
	DB	031H
	DB	0e9H
	DB	037H
	DB	04fH
	DB	057H
	DB	0e0H
	DB	014H
	DB	014H
	DB	0cbH
	DB	01fH
	DB	026H
	DB	09H
	DB	033H
	DB	0aH
	DB	0d1H
	DB	048H
	DB	03H
	DB	06dH
	DB	03fH
	DB	07dH
	DB	068H
	DB	04H
	DB	063H
	DB	04H
	DB	063H
	DB	063H
	DB	063H
	DB	063H
	DB	063H
	DB	063H
	DB	063H
	DB	063H
	DB	063H
	DB	063H
	DB	063H
	DB	063H
	DB	063H
	DB	063H
	DB	063H
	DB	063H
	DB	063H
	DB	063H
	DB	063H
	DB	063H
	DB	063H
	DB	063H
	DB	063H
	DB	063H
	DB	063H
	DB	063H
	DB	063H
	DB	063H
	DB	063H
	DB	063H
	DB	08dH
	DB	00H
	DB	00H
	DB	00H
	DB	00H
	DB	00H
	DB	00H
	DB	090H
	DB	09aH
	DB	063H
	DB	01fH
	DB	01fH
	DB	01fH
	DB	01fH
	DB	01fH
	DB	01fH
	DB	01fH
	DB	01fH
	DB	01fH
	DB	01fH
	DB	01fH
	DB	01fH
	DB	01fH
	DB	01fH
	DB	01fH
	DB	01fH
	DB	01fH
	DB	01fH
	DB	01fH
	DB	01fH
	DB	01fH
	DB	01fH
	DB	01fH
	DB	01fH
	DB	01fH
	DB	01fH
	DB	01fH
	DB	01fH
	DB	01fH
	DB	01fH
	DB	01fH
	DB	01fH
	DB	01fH
	DB	01fH
	DB	01fH
	DB	01fH
	DB	01fH
	DB	01fH
	DB	04H
	DB	023H
	DB	0fH
	DB	0b3H
	DB	06dH
	DB	09aH
	DB	046H
	DB	0caH
	DB	015H
	DB	0eeH
	DB	04H
	DB	086H
	DB	07H
	DB	046H
	DB	057H
	DB	037H
	DB	0aH
	DB	0c6H
	DB	09cH
	DB	0eeH
	DB	039H
	DB	04H
	DB	086H
	DB	0ebH
	DB	044H
	DB	04H
	DB	03eH
	DB	0e8H
	DB	033H
	DB	026H
	DB	059H
	DB	0d6H
	DB	014H
	DB	0a0H
	DB	042H
	DB	095H
	DB	057H
	DB	0cdH
	DB	045H
	DB	0b3H
	DB	054H
	DB	01bH
	DB	0bH
	DB	04aH
	DB	0c0H
	DB	04H
	DB	080H
	DB	01fH
	DB	01fH
	DB	01fH
	DB	01fH
	DB	01fH
	DB	01fH
	DB	01fH
	DB	01fH
	DB	01fH
	DB	01fH
	DB	01fH
	DB	01fH
	DB	01fH
	DB	01fH
	DB	01fH
	DB	01fH
	DB	01fH
	DB	01fH
	DB	01fH
	DB	01fH
	DB	01fH
	DB	01fH
	DB	01fH
	DB	01fH
	DB	01fH
	DB	01fH
	DB	01fH
	DB	01fH
	DB	01fH
	DB	01fH
	DB	0c6H
	DB	04H
	DB	0b0H
	DB	00H
	DB	00H
	DB	00H
	DB	00H
	DB	00H
	DB	00H
	DB	08bH
	DB	01fH
	DB	0c8H
	DB	095H
	DB	095H
	DB	095H
	DB	095H
	DB	095H
	DB	095H
	DB	095H
	DB	095H
	DB	095H
	DB	095H
	DB	095H
	DB	095H
	DB	095H
	DB	095H
	DB	095H
	DB	095H
	DB	095H
	DB	095H
	DB	095H
	DB	095H
	DB	095H
	DB	095H
	DB	095H
	DB	095H
	DB	095H
	DB	095H
	DB	095H
	DB	095H
	DB	095H
	DB	095H
	DB	095H
	DB	095H
	DB	095H
	DB	095H
	DB	095H
	DB	095H
	DB	095H
	DB	095H
	DB	022H
	DB	0c8H
	DB	0c6H
	DB	04H
	DB	04aH
	DB	029H
	DB	029H
	DB	03fH
	DB	04H
	DB	0eaH
	DB	09aH
	DB	057H
	DB	07H
	DB	037H
	DB	0c0H
	DB	036H
	DB	015H
	DB	086H
	DB	063H
	DB	016H
	DB	0a0H
	DB	0d1H
	DB	059H
	DB	0dfH
	DB	0aH
	DB	042H
	DB	0c0H
	DB	0d1H
	DB	0eaH
	DB	07H
	DB	09cH
	DB	04H
	DB	01cH
	DB	0eaH
	DB	0f0H
	DB	039H
	DB	079H
	DB	01eH
	DB	054H
	DB	08dH
	DB	090H
	DB	068H
	DB	063H
	DB	0c8H
	DB	022H
	DB	022H
	DB	095H
	DB	095H
	DB	095H
	DB	095H
	DB	095H
	DB	095H
	DB	095H
	DB	095H
	DB	095H
	DB	095H
	DB	095H
	DB	095H
	DB	095H
	DB	095H
	DB	095H
	DB	095H
	DB	095H
	DB	095H
	DB	095H
	DB	095H
	DB	095H
	DB	095H
	DB	095H
	DB	095H
	DB	095H
	DB	095H
	DB	095H
	DB	095H
	DB	095H
	DB	095H
	DB	095H
	DB	022H
	DB	048H
	DB	089H
	DB	00H
	DB	00H
	DB	00H
	DB	00H
	DB	00H
	DB	00H
	DB	00H
	DB	0b0H
	DB	06bH
	DB	071H
	DB	04H
	DB	04H
	DB	04H
	DB	04H
	DB	04H
	DB	04H
	DB	04H
	DB	04H
	DB	04H
	DB	04H
	DB	04H
	DB	04H
	DB	04H
	DB	04H
	DB	04H
	DB	04H
	DB	04H
	DB	04H
	DB	04H
	DB	04H
	DB	04H
	DB	04H
	DB	04H
	DB	04H
	DB	04H
	DB	04H
	DB	04H
	DB	04H
	DB	04H
	DB	04H
	DB	04H
	DB	04H
	DB	04H
	DB	04H
	DB	04H
	DB	04H
	DB	04H
	DB	04H
	DB	04H
	DB	04H
	DB	04H
	DB	0c1H
	DB	048H
	DB	079H
	DB	03fH
	DB	032H
	DB	0b3H
	DB	02aH
	DB	032H
	DB	0c8H
	DB	0a0H
	DB	026H
	DB	022H
	DB	0eeH
	DB	010H
	DB	057H
	DB	099H
	DB	0aH
	DB	010H
	DB	099H
	DB	022H
	DB	0e9H
	DB	01aH
	DB	09eH
	DB	063H
	DB	01cH
	DB	0aH
	DB	0f2H
	DB	09H
	DB	090H
	DB	028H
	DB	0aeH
	DB	03fH
	DB	021H
	DB	01bH
	DB	029H
	DB	070H
	DB	068H
	DB	0c0H
	DB	04H
	DB	04H
	DB	04H
	DB	04H
	DB	04H
	DB	04H
	DB	04H
	DB	04H
	DB	04H
	DB	04H
	DB	04H
	DB	04H
	DB	04H
	DB	04H
	DB	04H
	DB	04H
	DB	04H
	DB	04H
	DB	04H
	DB	04H
	DB	04H
	DB	04H
	DB	04H
	DB	04H
	DB	04H
	DB	04H
	DB	04H
	DB	04H
	DB	04H
	DB	04H
	DB	04H
	DB	04H
	DB	04H
	DB	04H
	DB	04H
	DB	070H
	DB	06dH
	DB	0a3H
	DB	00H
	DB	00H
	DB	00H
	DB	00H
	DB	00H
	DB	00H
	DB	00H
	DB	00H
	DB	017H
	DB	0a8H
	DB	0a8H
	DB	0a8H
	DB	0a8H
	DB	0a8H
	DB	0a8H
	DB	0a8H
	DB	0a8H
	DB	0a8H
	DB	0a8H
	DB	0a8H
	DB	0a8H
	DB	0a8H
	DB	0a8H
	DB	0a8H
	DB	0a8H
	DB	0a8H
	DB	0a8H
	DB	0a8H
	DB	0a8H
	DB	0a8H
	DB	0a8H
	DB	0a8H
	DB	0a8H
	DB	0a8H
	DB	0a8H
	DB	0a8H
	DB	0a8H
	DB	0a8H
	DB	0a8H
	DB	0a8H
	DB	0a8H
	DB	0a8H
	DB	0a8H
	DB	0a8H
	DB	0a8H
	DB	0a8H
	DB	0a8H
	DB	0a8H
	DB	0a8H
	DB	0a8H
	DB	0a8H
	DB	0a8H
	DB	0a8H
	DB	0a8H
	DB	08H
	DB	03bH
	DB	020H
	DB	0a3H
	DB	034H
	DB	00H
	DB	029H
	DB	02aH
	DB	05H
	DB	0aeH
	DB	09H
	DB	0dbH
	DB	0fH
	DB	09aH
	DB	012H
	DB	033H
	DB	01fH
	DB	063H
	DB	019H
	DB	0ecH
	DB	09aH
	DB	01eH
	DB	089H
	DB	028H
	DB	08fH
	DB	0a3H
	DB	02fH
	DB	0a3H
	DB	034H
	DB	017H
	DB	03bH
	DB	08H
	DB	0a8H
	DB	0a8H
	DB	0a8H
	DB	0a8H
	DB	0a8H
	DB	0a8H
	DB	0a8H
	DB	0a8H
	DB	0a8H
	DB	0a8H
	DB	0a8H
	DB	0a8H
	DB	0a8H
	DB	0a8H
	DB	0a8H
	DB	0a8H
	DB	0a8H
	DB	0a8H
	DB	0a8H
	DB	0a8H
	DB	0a8H
	DB	0a8H
	DB	0a8H
	DB	0a8H
	DB	0a8H
	DB	0a8H
	DB	0a8H
	DB	0a8H
	DB	0a8H
	DB	0a8H
	DB	0a8H
	DB	0a8H
	DB	0a8H
	DB	0a8H
	DB	0a8H
	DB	0a8H
	DB	0a8H
	DB	0a8H
	DB	03bH
	DB	02fH
	DB	00H
	DB	00H
	DB	00H
	DB	00H
	DB	00H
	DB	00H
	DB	00H
	DB	00H
	DB	00H
	DB	00H
	DB	00H
	DB	00H
	DB	00H
	DB	00H
	DB	00H
	DB	00H
	DB	00H
	DB	00H
	DB	00H
	DB	00H
	DB	00H
	DB	00H
	DB	00H
	DB	00H
	DB	00H
	DB	00H
	DB	00H
	DB	00H
	DB	00H
	DB	00H
	DB	00H
	DB	00H
	DB	00H
	DB	00H
	DB	00H
	DB	00H
	DB	00H
	DB	00H
	DB	00H
	DB	00H
	DB	00H
	DB	00H
	DB	00H
	DB	00H
	DB	00H
	DB	00H
	DB	00H
	DB	00H
	DB	00H
	DB	00H
	DB	00H
	DB	00H
	DB	00H
	DB	00H
	DB	00H
	DB	00H
	DB	00H
	DB	00H
	DB	00H
	DB	00H
	DB	00H
	DB	00H
	DB	00H
	DB	00H
	DB	00H
	DB	0a3H
	DB	03H
	DB	020H
	DB	00H
	DB	0a3H
	DB	032H
	DB	05H
	DB	00H
	DB	00H
	DB	020H
	DB	087H
	DB	00H
	DB	00H
	DB	00H
	DB	00H
	DB	00H
	DB	00H
	DB	00H
	DB	00H
	DB	00H
	DB	00H
	DB	00H
	DB	00H
	DB	00H
	DB	00H
	DB	00H
	DB	00H
	DB	00H
	DB	00H
	DB	00H
	DB	00H
	DB	00H
	DB	00H
	DB	00H
	DB	00H
	DB	00H
	DB	00H
	DB	00H
	DB	00H
	DB	00H
	DB	00H
	DB	00H
	DB	00H
	DB	00H
	DB	00H
	DB	00H
	DB	00H
	DB	00H
	DB	00H
	DB	00H
	DB	00H
	DB	00H
	DB	00H
	DB	00H
	DB	00H
	DB	00H
	DB	00H
	DB	00H
	DB	00H
	DB	00H
	DB	00H
	DB	00H
	DB	00H
	DB	00H
	DB	00H
	DB	00H
	DB	00H
	DB	00H
	DB	00H
	DB	00H
	DB	00H
	DB	00H
	DB	00H
	DB	00H
	DB	00H
	DB	00H
	DB	00H
	DB	00H
	DB	00H
	DB	00H
	DB	00H
	DB	00H
	DB	00H
	DB	00H
	DB	00H
	DB	00H
	DB	00H
	DB	00H
	DB	00H
	DB	00H
	DB	00H
	DB	00H
	DB	00H
	DB	00H
	DB	00H
	DB	00H
	DB	00H
	DB	00H
	DB	00H
	DB	00H
	DB	00H
	DB	00H
	DB	00H
	DB	00H
	DB	00H
	DB	00H
	DB	00H
	DB	00H
	DB	00H
	DB	00H
	DB	00H
	DB	00H
	DB	00H
	DB	00H
	DB	00H
	DB	00H
	DB	00H
	DB	00H
	DB	00H
	DB	00H
	DB	00H
	DB	00H
	DB	00H
	DB	00H
	DB	00H
	DB	00H
	DB	00H
	DB	00H
	DB	00H
	DB	00H
	DB	00H
	DB	00H
	DB	00H
	DB	00H
	DB	00H
	DB	00H
	DB	00H
	DB	00H
	DB	00H
	DB	00H
	DB	00H
	DB	00H
	DB	00H
	DB	00H
	DB	00H
	DB	00H
	DB	00H
	DB	00H
	DB	00H
	DB	00H
	DB	00H
	DB	00H
	DB	00H
	DB	00H
	DB	00H
	DB	00H
	DB	00H
	DB	00H
	DB	00H
	DB	00H
	DB	00H
	DB	00H
	DB	00H
	DB	00H
	DB	00H
	DB	00H
	DB	00H
	DB	00H
	DB	00H
	DB	00H
	DB	00H
	DB	00H
	DB	00H
	DB	00H
	DB	00H
	DB	00H
	DB	00H
	DB	00H
	DB	00H
	DB	00H
	DB	00H
	DB	00H
	DB	00H
	DB	00H
	DB	00H
	DB	00H
	DB	00H
	DB	00H
	DB	00H
	DB	00H
	DB	00H
	DB	00H
	DB	00H
	DB	00H
	DB	00H
	DB	00H
	DB	00H
	DB	00H
	DB	00H
	DB	00H
	DB	00H
	DB	00H
	DB	00H
	DB	00H
	DB	00H
	DB	00H
	DB	00H
	DB	00H
	DB	00H
	DB	00H
	DB	00H
	DB	00H
	DB	00H
	DB	00H
	DB	00H
	DB	00H
	DB	00H
	DB	00H
	DB	00H
	DB	00H
	DB	00H
	DB	00H
	DB	00H
	DB	00H
	DB	00H
	DB	00H
	DB	00H
	DB	00H
	DB	00H
	DB	00H
	DB	00H
	DB	00H
	DB	00H
	DB	00H
	DB	00H
	DB	00H
	DB	00H
	DB	00H
	DB	00H
	DB	00H
	DB	00H
	DB	00H
	DB	00H
	DB	00H
	DB	00H
	DB	00H
	DB	00H
	DB	00H
	DB	00H
	DB	00H
	DB	00H
	DB	00H
	DB	00H
	DB	00H
	DB	00H
	DB	00H
	DB	00H
	DB	00H
	DB	00H
	DB	00H
	DB	00H
	DB	00H
	DB	00H
	DB	00H
	DB	00H
	DB	00H
	DB	00H
	DB	00H
	DB	00H
	DB	00H
	DB	00H
	DB	00H
	DB	00H
	DB	00H
	DB	00H
	DB	00H
	DB	00H
	DB	00H
	DB	00H
	DB	00H
	DB	00H
	DB	00H
	DB	00H
	DB	00H
	DB	00H
	DB	00H
	DB	00H
	DB	00H
	DB	00H
	DB	00H
	DB	00H
	DB	00H
	DB	00H
	DB	00H
	DB	00H
	DB	00H
	DB	00H
	DB	00H
	DB	00H
	DB	00H
	DB	00H
	DB	00H
	DB	00H
	DB	00H
	DB	00H
	DB	00H
	DB	00H
	DB	00H
	DB	00H
	DB	00H
	DB	00H
	DB	00H
	DB	00H
	DB	00H
	DB	00H
	DB	00H
	DB	00H
	DB	00H
	DB	00H
	DB	00H
	DB	00H
	DB	00H
	DB	00H
	DB	00H
	DB	00H
	DB	00H
	DB	00H
	DB	00H
	DB	00H
	DB	00H
	DB	00H
	DB	00H
	DB	00H
	DB	00H
	DB	00H
	DB	00H
	DB	00H
	DB	00H
	DB	00H
	DB	00H
	DB	00H
	DB	00H
	DB	00H
	DB	00H
	DB	00H
	DB	00H
	DB	00H
	DB	00H
	DB	00H
	DB	00H
	DB	00H
	DB	00H
	DB	00H
	DB	00H
	DB	00H
	DB	00H
	DB	00H
	DB	00H
	DB	00H
	DB	00H
	DB	00H
	DB	00H
	DB	00H
	DB	00H
	DB	00H
	DB	00H
	DB	00H
	DB	00H
	DB	00H
	DB	00H
	DB	00H
	DB	00H
	DB	00H
	DB	00H
	DB	00H
	DB	00H
	DB	00H
	DB	00H
	DB	00H
	DB	00H
	DB	00H
	DB	00H
	DB	00H
	DB	00H
	DB	00H
	DB	00H
	DB	00H
	DB	00H
	DB	00H
	DB	00H
	DB	00H
	DB	00H
	DB	00H
	DB	00H
	DB	00H
	DB	00H
	DB	00H
	DB	00H
	DB	00H
	DB	00H
	DB	00H
	DB	00H
	DB	00H
	DB	00H
	DB	00H
	DB	00H
	DB	00H
	DB	00H
	DB	00H
	DB	00H
	DB	00H
	DB	00H
	DB	00H
	DB	00H
	DB	00H
	DB	00H
	DB	00H
	DB	00H
	DB	00H
	DB	00H
	DB	00H
	DB	00H
	DB	00H
	DB	00H
	DB	00H
	DB	00H
	DB	00H
	DB	00H
	DB	00H
	DB	00H
	DB	00H
	DB	00H
	DB	00H
	DB	00H
	DB	00H
	DB	00H
	DB	00H
	DB	00H
	DB	00H
	DB	00H
	DB	00H
	DB	00H
	DB	00H
	DB	00H
	DB	00H
	DB	00H
	DB	00H
	DB	00H
	DB	00H
	DB	00H
	DB	00H
	DB	00H
	DB	02aH
	DB	042H
	DB	0aH
	DB	010H
	DB	015H
	DB	0ebH
	DB	09H
	DB	0b3H
	DB	00H
	DB	00H
	DB	00H
	DB	00H
	DB	00H
	DB	00H
	DB	00H
	DB	00H
	DB	00H
	DB	00H
	DB	00H
	DB	00H
	DB	00H
	DB	00H
	DB	00H
	DB	00H
	DB	00H
	DB	00H
	DB	00H
	DB	00H
	DB	00H
	DB	00H
	DB	00H
	DB	00H
	DB	00H
	DB	00H
	DB	00H
	DB	00H
	DB	00H
	DB	00H
	DB	00H
	DB	00H
	DB	00H
	DB	00H
	DB	00H
	DB	00H
	DB	00H
	DB	00H
	DB	00H
	DB	00H
	DB	00H
	DB	00H
	DB	00H
	DB	00H
	DB	00H
	DB	00H
	DB	00H
	DB	00H
	DB	00H
	DB	00H
	DB	00H
	DB	04H
	DB	04dH
	DB	0f2H
	DB	015H
	DB	015H
	DB	015H
	DB	0f2H
	DB	07H
	DB	0e8H
	DB	09aH
	DB	03bH
	DB	00H
	DB	00H
	DB	00H
	DB	00H
	DB	00H
	DB	00H
	DB	00H
	DB	00H
	DB	00H
	DB	00H
	DB	00H
	DB	00H
	DB	00H
	DB	00H
	DB	00H
	DB	00H
	DB	00H
	DB	00H
	DB	00H
	DB	00H
	DB	00H
	DB	00H
	DB	00H
	DB	017H
	DB	0a8H
	DB	00H
	DB	00H
	DB	00H
	DB	00H
	DB	088H
	DB	033H
	DB	0a1H
	DB	0a1H
	DB	012H
	DB	05H
	DB	00H
	DB	00H
	DB	00H
	DB	00H
	DB	00H
	DB	00H
	DB	00H
	DB	00H
	DB	00H
	DB	00H
	DB	00H
	DB	00H
	DB	00H
	DB	00H
	DB	00H
	DB	00H
	DB	00H
	DB	00H
	DB	00H
	DB	00H
	DB	079H
	DB	0f4H
	DB	06cH
	DB	02H
	DB	02H
	DB	02H
	DB	02H
	DB	02H
	DB	02H
	DB	05dH
	DB	057H
	DB	00H
	DB	00H
	DB	00H
	DB	00H
	DB	00H
	DB	00H
	DB	00H
	DB	00H
	DB	00H
	DB	00H
	DB	00H
	DB	00H
	DB	00H
	DB	00H
	DB	00H
	DB	00H
	DB	00H
	DB	00H
	DB	00H
	DB	00H
	DB	00H
	DB	00H
	DB	00H
	DB	00H
	DB	00H
	DB	00H
	DB	00H
	DB	00H
	DB	00H
	DB	00H
	DB	00H
	DB	00H
	DB	00H
	DB	00H
	DB	00H
	DB	00H
	DB	00H
	DB	00H
	DB	00H
	DB	00H
	DB	00H
	DB	00H
	DB	00H
	DB	00H
	DB	00H
	DB	00H
	DB	00H
	DB	00H
	DB	00H
	DB	00H
	DB	0d6H
	DB	02H
	DB	02H
	DB	02H
	DB	02H
	DB	02H
	DB	02H
	DB	02H
	DB	02H
	DB	064H
	DB	02dH
	DB	07dH
	DB	00H
	DB	00H
	DB	00H
	DB	00H
	DB	00H
	DB	00H
	DB	00H
	DB	00H
	DB	00H
	DB	00H
	DB	00H
	DB	00H
	DB	00H
	DB	00H
	DB	00H
	DB	00H
	DB	00H
	DB	00H
	DB	00H
	DB	00H
	DB	00H
	DB	04H
	DB	062H
	DB	04fH
	DB	00H
	DB	00H
	DB	00H
	DB	00H
	DB	054H
	DB	047H
	DB	02H
	DB	02H
	DB	047H
	DB	0eH
	DB	00H
	DB	00H
	DB	00H
	DB	00H
	DB	00H
	DB	00H
	DB	00H
	DB	00H
	DB	00H
	DB	00H
	DB	00H
	DB	00H
	DB	00H
	DB	00H
	DB	00H
	DB	00H
	DB	00H
	DB	00H
	DB	00H
	DB	04fH
	DB	05eH
	DB	02H
	DB	02H
	DB	02H
	DB	02H
	DB	02H
	DB	02H
	DB	02H
	DB	02H
	DB	0ffH
	DB	03cH
	DB	00H
	DB	00H
	DB	00H
	DB	00H
	DB	00H
	DB	00H
	DB	00H
	DB	00H
	DB	00H
	DB	00H
	DB	00H
	DB	00H
	DB	00H
	DB	00H
	DB	00H
	DB	00H
	DB	00H
	DB	00H
	DB	00H
	DB	00H
	DB	00H
	DB	00H
	DB	00H
	DB	00H
	DB	00H
	DB	00H
	DB	00H
	DB	00H
	DB	00H
	DB	00H
	DB	00H
	DB	00H
	DB	00H
	DB	00H
	DB	00H
	DB	00H
	DB	00H
	DB	00H
	DB	00H
	DB	00H
	DB	00H
	DB	00H
	DB	00H
	DB	00H
	DB	00H
	DB	00H
	DB	00H
	DB	00H
	DB	00H
	DB	00H
	DB	019H
	DB	02H
	DB	02H
	DB	02H
	DB	064H
	DB	05cH
	DB	047H
	DB	02H
	DB	02H
	DB	02H
	DB	02H
	DB	051H
	DB	03H
	DB	00H
	DB	00H
	DB	00H
	DB	00H
	DB	00H
	DB	00H
	DB	00H
	DB	00H
	DB	00H
	DB	00H
	DB	00H
	DB	00H
	DB	00H
	DB	00H
	DB	00H
	DB	00H
	DB	00H
	DB	00H
	DB	06dH
	DB	0eeH
	DB	065H
	DB	02H
	DB	0cdH
	DB	00H
	DB	00H
	DB	00H
	DB	00H
	DB	054H
	DB	047H
	DB	02H
	DB	02H
	DB	047H
	DB	0b0H
	DB	00H
	DB	00H
	DB	00H
	DB	00H
	DB	00H
	DB	00H
	DB	00H
	DB	00H
	DB	00H
	DB	00H
	DB	00H
	DB	00H
	DB	00H
	DB	00H
	DB	00H
	DB	00H
	DB	00H
	DB	00H
	DB	029H
	DB	066H
	DB	02H
	DB	02H
	DB	02H
	DB	05eH
	DB	0aH
	DB	01cH
	DB	04bH
	DB	036H
	DB	07H
	DB	0fcH
	DB	06dH
	DB	00H
	DB	00H
	DB	00H
	DB	00H
	DB	00H
	DB	00H
	DB	00H
	DB	00H
	DB	00H
	DB	00H
	DB	00H
	DB	00H
	DB	00H
	DB	00H
	DB	00H
	DB	00H
	DB	00H
	DB	00H
	DB	00H
	DB	00H
	DB	00H
	DB	00H
	DB	00H
	DB	00H
	DB	00H
	DB	00H
	DB	00H
	DB	00H
	DB	00H
	DB	00H
	DB	00H
	DB	00H
	DB	00H
	DB	00H
	DB	00H
	DB	00H
	DB	00H
	DB	00H
	DB	00H
	DB	00H
	DB	00H
	DB	00H
	DB	00H
	DB	00H
	DB	00H
	DB	00H
	DB	00H
	DB	00H
	DB	00H
	DB	00H
	DB	019H
	DB	02H
	DB	02H
	DB	02H
	DB	051H
	DB	0a3H
	DB	01eH
	DB	0e3H
	DB	065H
	DB	02H
	DB	02H
	DB	02H
	DB	0e8H
	DB	00H
	DB	00H
	DB	00H
	DB	00H
	DB	00H
	DB	00H
	DB	00H
	DB	00H
	DB	00H
	DB	00H
	DB	00H
	DB	00H
	DB	00H
	DB	00H
	DB	00H
	DB	00H
	DB	00H
	DB	00H
	DB	0eeH
	DB	02H
	DB	02H
	DB	02H
	DB	025H
	DB	00H
	DB	00H
	DB	00H
	DB	00H
	DB	038H
	DB	0d0H
	DB	09H
	DB	0d9H
	DB	01cH
	DB	08H
	DB	00H
	DB	00H
	DB	00H
	DB	00H
	DB	00H
	DB	00H
	DB	00H
	DB	00H
	DB	00H
	DB	00H
	DB	00H
	DB	00H
	DB	00H
	DB	00H
	DB	00H
	DB	00H
	DB	00H
	DB	00H
	DB	01dH
	DB	02H
	DB	02H
	DB	02H
	DB	047H
	DB	0c0H
	DB	00H
	DB	00H
	DB	00H
	DB	00H
	DB	02fH
	DB	01eH
	DB	0a3H
	DB	00H
	DB	00H
	DB	00H
	DB	00H
	DB	00H
	DB	00H
	DB	08bH
	DB	0dH
	DB	09H
	DB	014H
	DB	09H
	DB	09aH
	DB	03H
	DB	00H
	DB	00H
	DB	00H
	DB	00H
	DB	00H
	DB	00H
	DB	00H
	DB	00H
	DB	02fH
	DB	090H
	DB	025H
	DB	01cH
	DB	01cH
	DB	0dH
	DB	01bH
	DB	00H
	DB	00H
	DB	00H
	DB	00H
	DB	00H
	DB	08H
	DB	0c8H
	DB	095H
	DB	060H
	DB	02aH
	DB	00H
	DB	087H
	DB	0caH
	DB	0cdH
	DB	05H
	DB	00H
	DB	00H
	DB	00H
	DB	00H
	DB	00H
	DB	00H
	DB	00H
	DB	019H
	DB	02H
	DB	02H
	DB	02H
	DB	011H
	DB	00H
	DB	00H
	DB	00H
	DB	015H
	DB	02H
	DB	02H
	DB	02H
	DB	02dH
	DB	00H
	DB	00H
	DB	00H
	DB	00H
	DB	00H
	DB	00H
	DB	08dH
	DB	0c9H
	DB	046H
	DB	01cH
	DB	0cdH
	DB	090H
	DB	00H
	DB	00H
	DB	00H
	DB	00H
	DB	01bH
	DB	059H
	DB	027H
	DB	02H
	DB	02H
	DB	02H
	DB	0e6H
	DB	04H
	DB	03cH
	DB	043H
	DB	00H
	DB	02fH
	DB	048H
	DB	071H
	DB	04H
	DB	0fH
	DB	034H
	DB	00H
	DB	00H
	DB	00H
	DB	00H
	DB	00H
	DB	043H
	DB	025H
	DB	086H
	DB	014H
	DB	016H
	DB	026H
	DB	0b3H
	DB	00H
	DB	00H
	DB	00H
	DB	00H
	DB	00H
	DB	070H
	DB	065H
	DB	02H
	DB	02H
	DB	02H
	DB	046H
	DB	00H
	DB	00H
	DB	00H
	DB	00H
	DB	00H
	DB	00H
	DB	00H
	DB	00H
	DB	00H
	DB	00H
	DB	00H
	DB	00H
	DB	00H
	DB	019H
	DB	05cH
	DB	02H
	DB	02H
	DB	02H
	DB	02H
	DB	0ffH
	DB	051H
	DB	01cH
	DB	00H
	DB	00H
	DB	00H
	DB	00H
	DB	00H
	DB	088H
	DB	0e8H
	DB	0fbH
	DB	05eH
	DB	02H
	DB	02H
	DB	02H
	DB	0ffH
	DB	047H
	DB	0aH
	DB	043H
	DB	00H
	DB	00H
	DB	00H
	DB	068H
	DB	066H
	DB	064H
	DB	02H
	DB	024H
	DB	043H
	DB	0f4H
	DB	02H
	DB	065H
	DB	02aH
	DB	00H
	DB	00H
	DB	00H
	DB	00H
	DB	00H
	DB	00H
	DB	00H
	DB	019H
	DB	02H
	DB	02H
	DB	02H
	DB	051H
	DB	00H
	DB	00H
	DB	00H
	DB	09H
	DB	02H
	DB	02H
	DB	02H
	DB	052H
	DB	03H
	DB	00H
	DB	00H
	DB	00H
	DB	041H
	DB	02dH
	DB	047H
	DB	064H
	DB	02H
	DB	02H
	DB	02H
	DB	05eH
	DB	01aH
	DB	035H
	DB	00H
	DB	00H
	DB	0eeH
	DB	02H
	DB	0ffH
	DB	02H
	DB	02H
	DB	02H
	DB	064H
	DB	064H
	DB	069H
	DB	0caH
	DB	00H
	DB	08bH
	DB	052H
	DB	0ffH
	DB	0ffH
	DB	051H
	DB	032H
	DB	00H
	DB	00H
	DB	00H
	DB	02fH
	DB	086H
	DB	052H
	DB	0ffH
	DB	02H
	DB	02H
	DB	02H
	DB	02H
	DB	05dH
	DB	015H
	DB	01eH
	DB	00H
	DB	00H
	DB	00H
	DB	016H
	DB	02H
	DB	02H
	DB	02H
	DB	011H
	DB	03bH
	DB	00H
	DB	00H
	DB	00H
	DB	00H
	DB	00H
	DB	00H
	DB	00H
	DB	00H
	DB	00H
	DB	00H
	DB	00H
	DB	00H
	DB	030H
	DB	02H
	DB	02H
	DB	02H
	DB	05eH
	DB	0fcH
	DB	066H
	DB	02H
	DB	02H
	DB	064H
	DB	036H
	DB	00H
	DB	00H
	DB	00H
	DB	00H
	DB	035H
	DB	066H
	DB	02H
	DB	02H
	DB	02H
	DB	02H
	DB	02H
	DB	02H
	DB	02H
	DB	02H
	DB	01aH
	DB	02fH
	DB	00H
	DB	00H
	DB	04H
	DB	069H
	DB	02H
	DB	02H
	DB	024H
	DB	01dH
	DB	02H
	DB	02H
	DB	06cH
	DB	02aH
	DB	00H
	DB	00H
	DB	00H
	DB	00H
	DB	00H
	DB	00H
	DB	00H
	DB	019H
	DB	02H
	DB	02H
	DB	02H
	DB	051H
	DB	00H
	DB	00H
	DB	00H
	DB	0dbH
	DB	02H
	DB	02H
	DB	02H
	DB	051H
	DB	043H
	DB	00H
	DB	00H
	DB	00H
	DB	02dH
	DB	02H
	DB	02H
	DB	02H
	DB	02H
	DB	02H
	DB	02H
	DB	02H
	DB	02H
	DB	051H
	DB	032H
	DB	00H
	DB	015H
	DB	02H
	DB	02H
	DB	02H
	DB	02H
	DB	02H
	DB	02H
	DB	02H
	DB	02H
	DB	0cbH
	DB	00H
	DB	06dH
	DB	03dH
	DB	02H
	DB	02H
	DB	0feH
	DB	0aeH
	DB	00H
	DB	00H
	DB	00H
	DB	0eeH
	DB	02H
	DB	02H
	DB	02H
	DB	064H
	DB	05eH
	DB	065H
	DB	02H
	DB	02H
	DB	02H
	DB	04eH
	DB	028H
	DB	00H
	DB	00H
	DB	015H
	DB	02H
	DB	02H
	DB	02H
	DB	055H
	DB	00H
	DB	00H
	DB	00H
	DB	00H
	DB	00H
	DB	00H
	DB	00H
	DB	00H
	DB	00H
	DB	00H
	DB	00H
	DB	00H
	DB	025H
	DB	064H
	DB	02H
	DB	02H
	DB	05aH
	DB	028H
	DB	038H
	DB	02aH
	DB	011H
	DB	02H
	DB	02H
	DB	05eH
	DB	090H
	DB	00H
	DB	00H
	DB	00H
	DB	05H
	DB	055H
	DB	0f3H
	DB	0d9H
	DB	0dH
	DB	0dH
	DB	0e9H
	DB	05dH
	DB	02H
	DB	02H
	DB	064H
	DB	025H
	DB	00H
	DB	00H
	DB	0c0H
	DB	065H
	DB	02H
	DB	02H
	DB	05dH
	DB	069H
	DB	02H
	DB	02H
	DB	065H
	DB	045H
	DB	00H
	DB	00H
	DB	00H
	DB	00H
	DB	00H
	DB	00H
	DB	00H
	DB	019H
	DB	02H
	DB	02H
	DB	02H
	DB	011H
	DB	00H
	DB	00H
	DB	00H
	DB	01aH
	DB	02H
	DB	02H
	DB	02H
	DB	027H
	DB	00H
	DB	00H
	DB	00H
	DB	00H
	DB	0ecH
	DB	0f5H
	DB	0e0H
	DB	04bH
	DB	0dH
	DB	0d9H
	DB	050H
	DB	02H
	DB	02H
	DB	02H
	DB	0e6H
	DB	00H
	DB	0c8H
	DB	0e6H
	DB	0fcH
	DB	02H
	DB	02H
	DB	02H
	DB	055H
	DB	016H
	DB	044H
	DB	08dH
	DB	00H
	DB	06dH
	DB	03dH
	DB	02H
	DB	02H
	DB	05cH
	DB	0aeH
	DB	00H
	DB	00H
	DB	0d1H
	DB	02H
	DB	02H
	DB	02H
	DB	066H
	DB	0cdH
	DB	03H
	DB	035H
	DB	0f5H
	DB	02H
	DB	02H
	DB	02H
	DB	055H
	DB	00H
	DB	0a8H
	DB	062H
	DB	02H
	DB	02H
	DB	02H
	DB	030H
	DB	00H
	DB	00H
	DB	00H
	DB	03bH
	DB	089H
	DB	043H
	DB	043H
	DB	043H
	DB	089H
	DB	08H
	DB	00H
	DB	00H
	DB	0f7H
	DB	02H
	DB	02H
	DB	065H
	DB	0c6H
	DB	00H
	DB	00H
	DB	00H
	DB	01cH
	DB	02H
	DB	02H
	DB	02H
	DB	012H
	DB	00H
	DB	00H
	DB	00H
	DB	00H
	DB	0a3H
	DB	00H
	DB	00H
	DB	00H
	DB	00H
	DB	00H
	DB	086H
	DB	02H
	DB	02H
	DB	02H
	DB	0eaH
	DB	00H
	DB	00H
	DB	0c0H
	DB	065H
	DB	02H
	DB	02H
	DB	02H
	DB	02H
	DB	069H
	DB	062H
	DB	09eH
	DB	08bH
	DB	00H
	DB	00H
	DB	00H
	DB	00H
	DB	00H
	DB	00H
	DB	00H
	DB	019H
	DB	02H
	DB	02H
	DB	02H
	DB	052H
	DB	032H
	DB	08dH
	DB	014H
	DB	064H
	DB	02H
	DB	02H
	DB	02H
	DB	0d9H
	DB	00H
	DB	00H
	DB	00H
	DB	00H
	DB	087H
	DB	00H
	DB	00H
	DB	00H
	DB	00H
	DB	00H
	DB	071H
	DB	064H
	DB	02H
	DB	02H
	DB	062H
	DB	020H
	DB	00H
	DB	00H
	DB	07H
	DB	02H
	DB	02H
	DB	02H
	DB	0dH
	DB	00H
	DB	00H
	DB	00H
	DB	00H
	DB	06dH
	DB	03dH
	DB	02H
	DB	02H
	DB	05cH
	DB	0eH
	DB	00H
	DB	03bH
	DB	04eH
	DB	02H
	DB	02H
	DB	02H
	DB	09H
	DB	00H
	DB	00H
	DB	00H
	DB	0aeH
	DB	03dH
	DB	02H
	DB	02H
	DB	069H
	DB	0b8H
	DB	089H
	DB	0fbH
	DB	02H
	DB	02H
	DB	02H
	DB	0dbH
	DB	00H
	DB	00H
	DB	00H
	DB	0ecH
	DB	052H
	DB	0fdH
	DB	0fdH
	DB	0fdH
	DB	052H
	DB	015H
	DB	00H
	DB	02eH
	DB	05eH
	DB	02H
	DB	02H
	DB	02dH
	DB	00H
	DB	00H
	DB	00H
	DB	00H
	DB	08bH
	DB	03dH
	DB	02H
	DB	02H
	DB	027H
	DB	00H
	DB	00H
	DB	00H
	DB	00H
	DB	088H
	DB	0d1H
	DB	0a0H
	DB	07H
	DB	033H
	DB	0fH
	DB	0caH
	DB	064H
	DB	02H
	DB	02H
	DB	010H
	DB	00H
	DB	00H
	DB	0c0H
	DB	065H
	DB	02H
	DB	02H
	DB	02H
	DB	066H
	DB	04fH
	DB	00H
	DB	00H
	DB	00H
	DB	00H
	DB	00H
	DB	00H
	DB	00H
	DB	00H
	DB	00H
	DB	00H
	DB	019H
	DB	02H
	DB	02H
	DB	02H
	DB	064H
	DB	05eH
	DB	066H
	DB	02H
	DB	02H
	DB	02H
	DB	02H
	DB	02dH
	DB	038H
	DB	00H
	DB	00H
	DB	00H
	DB	00H
	DB	087H
	DB	09aH
	DB	0ebH
	DB	015H
	DB	0eeH
	DB	025H
	DB	08dH
	DB	066H
	DB	02H
	DB	02H
	DB	052H
	DB	03H
	DB	00H
	DB	00H
	DB	015H
	DB	02H
	DB	02H
	DB	02H
	DB	04bH
	DB	00H
	DB	00H
	DB	00H
	DB	00H
	DB	06dH
	DB	03dH
	DB	02H
	DB	02H
	DB	05cH
	DB	0eH
	DB	00H
	DB	063H
	DB	065H
	DB	02H
	DB	02H
	DB	05eH
	DB	090H
	DB	00H
	DB	00H
	DB	00H
	DB	00H
	DB	07H
	DB	02H
	DB	02H
	DB	02H
	DB	0d5H
	DB	03H
	DB	04eH
	DB	02H
	DB	02H
	DB	02H
	DB	0dbH
	DB	00H
	DB	00H
	DB	00H
	DB	062H
	DB	02H
	DB	02H
	DB	02H
	DB	02H
	DB	02H
	DB	0fcH
	DB	00H
	DB	0dH
	DB	02H
	DB	02H
	DB	02H
	DB	0fcH
	DB	060H
	DB	09aH
	DB	09aH
	DB	025H
	DB	0dH
	DB	0feH
	DB	02H
	DB	02H
	DB	051H
	DB	08bH
	DB	00H
	DB	00H
	DB	0c9H
	DB	052H
	DB	02H
	DB	02H
	DB	02H
	DB	02H
	DB	069H
	DB	04eH
	DB	064H
	DB	02H
	DB	02H
	DB	010H
	DB	00H
	DB	00H
	DB	0c0H
	DB	065H
	DB	02H
	DB	02H
	DB	02H
	DB	0d2H
	DB	00H
	DB	00H
	DB	00H
	DB	00H
	DB	00H
	DB	00H
	DB	00H
	DB	00H
	DB	00H
	DB	00H
	DB	00H
	DB	019H
	DB	02H
	DB	02H
	DB	02H
	DB	02H
	DB	02H
	DB	02H
	DB	02H
	DB	02H
	DB	02H
	DB	0f5H
	DB	028H
	DB	00H
	DB	00H
	DB	00H
	DB	00H
	DB	0b3H
	DB	05fH
	DB	0ffH
	DB	02H
	DB	02H
	DB	02H
	DB	02H
	DB	050H
	DB	06cH
	DB	02H
	DB	02H
	DB	052H
	DB	089H
	DB	00H
	DB	00H
	DB	015H
	DB	02H
	DB	02H
	DB	02H
	DB	04bH
	DB	00H
	DB	00H
	DB	00H
	DB	00H
	DB	06dH
	DB	03dH
	DB	02H
	DB	02H
	DB	05cH
	DB	0eH
	DB	00H
	DB	031H
	DB	02H
	DB	02H
	DB	02H
	DB	04eH
	DB	08H
	DB	00H
	DB	00H
	DB	00H
	DB	00H
	DB	09H
	DB	02H
	DB	02H
	DB	02H
	DB	0efH
	DB	03bH
	DB	056H
	DB	02H
	DB	02H
	DB	02H
	DB	0e3H
	DB	00H
	DB	00H
	DB	00H
	DB	0e9H
	DB	0fbH
	DB	062H
	DB	066H
	DB	02H
	DB	02H
	DB	0fbH
	DB	00H
	DB	0d2H
	DB	02H
	DB	02H
	DB	02H
	DB	02H
	DB	02H
	DB	02H
	DB	02H
	DB	02H
	DB	02H
	DB	02H
	DB	02H
	DB	02H
	DB	0feH
	DB	028H
	DB	00H
	DB	04H
	DB	05eH
	DB	02H
	DB	02H
	DB	066H
	DB	0f0H
	DB	09H
	DB	027H
	DB	02H
	DB	02H
	DB	02H
	DB	02H
	DB	0f2H
	DB	00H
	DB	00H
	DB	0c0H
	DB	065H
	DB	02H
	DB	02H
	DB	05cH
	DB	054H
	DB	00H
	DB	00H
	DB	00H
	DB	00H
	DB	00H
	DB	00H
	DB	00H
	DB	00H
	DB	00H
	DB	00H
	DB	00H
	DB	019H
	DB	02H
	DB	02H
	DB	02H
	DB	066H
	DB	0f0H
	DB	052H
	DB	02H
	DB	02H
	DB	02H
	DB	030H
	DB	00H
	DB	00H
	DB	00H
	DB	00H
	DB	08bH
	DB	0fdH
	DB	02H
	DB	02H
	DB	064H
	DB	0f4H
	DB	09H
	DB	0f2H
	DB	069H
	DB	02H
	DB	02H
	DB	02H
	DB	052H
	DB	089H
	DB	00H
	DB	00H
	DB	015H
	DB	02H
	DB	02H
	DB	02H
	DB	04bH
	DB	00H
	DB	00H
	DB	00H
	DB	00H
	DB	06dH
	DB	03dH
	DB	02H
	DB	02H
	DB	05cH
	DB	0eH
	DB	00H
	DB	0e3H
	DB	02H
	DB	02H
	DB	02H
	DB	058H
	DB	00H
	DB	00H
	DB	00H
	DB	00H
	DB	00H
	DB	0d0H
	DB	02H
	DB	02H
	DB	02H
	DB	0a2H
	DB	00H
	DB	015H
	DB	02H
	DB	02H
	DB	02H
	DB	07H
	DB	00H
	DB	00H
	DB	00H
	DB	00H
	DB	00H
	DB	00H
	DB	05aH
	DB	02H
	DB	02H
	DB	0fbH
	DB	00H
	DB	031H
	DB	02H
	DB	02H
	DB	02H
	DB	06cH
	DB	03dH
	DB	047H
	DB	047H
	DB	047H
	DB	047H
	DB	03dH
	DB	03dH
	DB	05dH
	DB	0f8H
	DB	08bH
	DB	00H
	DB	01dH
	DB	02H
	DB	02H
	DB	064H
	DB	0cbH
	DB	00H
	DB	00H
	DB	00H
	DB	04dH
	DB	02H
	DB	02H
	DB	02H
	DB	0f2H
	DB	00H
	DB	00H
	DB	0c0H
	DB	065H
	DB	02H
	DB	02H
	DB	0f6H
	DB	087H
	DB	00H
	DB	00H
	DB	00H
	DB	00H
	DB	00H
	DB	00H
	DB	00H
	DB	00H
	DB	00H
	DB	00H
	DB	00H
	DB	019H
	DB	02H
	DB	02H
	DB	02H
	DB	011H
	DB	00H
	DB	0d6H
	DB	02H
	DB	02H
	DB	02H
	DB	05cH
	DB	05H
	DB	00H
	DB	00H
	DB	00H
	DB	0e3H
	DB	02H
	DB	02H
	DB	02H
	DB	012H
	DB	00H
	DB	00H
	DB	00H
	DB	0e0H
	DB	02H
	DB	02H
	DB	02H
	DB	052H
	DB	089H
	DB	00H
	DB	00H
	DB	015H
	DB	02H
	DB	02H
	DB	02H
	DB	04bH
	DB	00H
	DB	00H
	DB	00H
	DB	00H
	DB	06dH
	DB	03dH
	DB	02H
	DB	02H
	DB	05cH
	DB	0eH
	DB	00H
	DB	016H
	DB	02H
	DB	02H
	DB	02H
	DB	058H
	DB	02fH
	DB	00H
	DB	00H
	DB	00H
	DB	00H
	DB	0d0H
	DB	02H
	DB	02H
	DB	02H
	DB	0a2H
	DB	00H
	DB	0e6H
	DB	02H
	DB	02H
	DB	02H
	DB	056H
	DB	00H
	DB	00H
	DB	00H
	DB	00H
	DB	00H
	DB	00H
	DB	0f6H
	DB	02H
	DB	02H
	DB	0fbH
	DB	00H
	DB	026H
	DB	02H
	DB	02H
	DB	02H
	DB	055H
	DB	087H
	DB	043H
	DB	043H
	DB	043H
	DB	043H
	DB	043H
	DB	089H
	DB	03H
	DB	05H
	DB	00H
	DB	032H
	DB	047H
	DB	02H
	DB	02H
	DB	052H
	DB	021H
	DB	00H
	DB	00H
	DB	00H
	DB	01cH
	DB	02H
	DB	02H
	DB	02H
	DB	0f2H
	DB	00H
	DB	00H
	DB	0c0H
	DB	065H
	DB	02H
	DB	02H
	DB	058H
	DB	020H
	DB	00H
	DB	00H
	DB	00H
	DB	00H
	DB	00H
	DB	00H
	DB	00H
	DB	00H
	DB	00H
	DB	00H
	DB	00H
	DB	019H
	DB	02H
	DB	02H
	DB	02H
	DB	051H
	DB	00H
	DB	054H
	DB	05dH
	DB	02H
	DB	02H
	DB	02H
	DB	0d6H
	DB	00H
	DB	00H
	DB	0a3H
	DB	058H
	DB	02H
	DB	02H
	DB	064H
	DB	070H
	DB	00H
	DB	00H
	DB	00H
	DB	0bH
	DB	069H
	DB	02H
	DB	02H
	DB	052H
	DB	089H
	DB	00H
	DB	00H
	DB	015H
	DB	02H
	DB	02H
	DB	02H
	DB	04bH
	DB	00H
	DB	00H
	DB	00H
	DB	00H
	DB	06dH
	DB	03dH
	DB	02H
	DB	02H
	DB	05cH
	DB	0eH
	DB	00H
	DB	086H
	DB	02H
	DB	02H
	DB	02H
	DB	0fbH
	DB	03bH
	DB	00H
	DB	00H
	DB	00H
	DB	00H
	DB	036H
	DB	02H
	DB	02H
	DB	02H
	DB	0f1H
	DB	00H
	DB	022H
	DB	064H
	DB	02H
	DB	02H
	DB	066H
	DB	090H
	DB	00H
	DB	00H
	DB	00H
	DB	00H
	DB	00H
	DB	027H
	DB	02H
	DB	02H
	DB	0fbH
	DB	00H
	DB	0fH
	DB	066H
	DB	02H
	DB	02H
	DB	056H
	DB	00H
	DB	00H
	DB	00H
	DB	00H
	DB	00H
	DB	00H
	DB	00H
	DB	00H
	DB	00H
	DB	00H
	DB	03fH
	DB	05eH
	DB	02H
	DB	02H
	DB	011H
	DB	03H
	DB	00H
	DB	00H
	DB	00H
	DB	0dH
	DB	0ffH
	DB	02H
	DB	02H
	DB	0f2H
	DB	00H
	DB	00H
	DB	0c0H
	DB	065H
	DB	02H
	DB	02H
	DB	0f7H
	DB	020H
	DB	00H
	DB	00H
	DB	00H
	DB	00H
	DB	00H
	DB	00H
	DB	00H
	DB	00H
	DB	00H
	DB	00H
	DB	00H
	DB	019H
	DB	02H
	DB	02H
	DB	02H
	DB	051H
	DB	00H
	DB	00H
	DB	010H
	DB	02H
	DB	02H
	DB	02H
	DB	0fcH
	DB	087H
	DB	00H
	DB	0a8H
	DB	011H
	DB	02H
	DB	02H
	DB	064H
	DB	079H
	DB	00H
	DB	00H
	DB	00H
	DB	02eH
	DB	065H
	DB	02H
	DB	02H
	DB	052H
	DB	089H
	DB	00H
	DB	00H
	DB	010H
	DB	02H
	DB	02H
	DB	0ffH
	DB	0dH
	DB	00H
	DB	00H
	DB	00H
	DB	00H
	DB	06dH
	DB	03dH
	DB	02H
	DB	02H
	DB	05cH
	DB	0eH
	DB	00H
	DB	0c6H
	DB	065H
	DB	02H
	DB	02H
	DB	05eH
	DB	035H
	DB	00H
	DB	00H
	DB	00H
	DB	00H
	DB	0f0H
	DB	02H
	DB	02H
	DB	02H
	DB	0daH
	DB	00H
	DB	00H
	DB	0fcH
	DB	02H
	DB	02H
	DB	02H
	DB	05aH
	DB	043H
	DB	00H
	DB	00H
	DB	00H
	DB	03H
	DB	011H
	DB	02H
	DB	02H
	DB	050H
	DB	00H
	DB	00H
	DB	02dH
	DB	02H
	DB	02H
	DB	069H
	DB	0cdH
	DB	00H
	DB	00H
	DB	00H
	DB	00H
	DB	00H
	DB	020H
	DB	017H
	DB	00H
	DB	00H
	DB	028H
	DB	05dH
	DB	02H
	DB	02H
	DB	06cH
	DB	045H
	DB	00H
	DB	00H
	DB	00H
	DB	0ecH
	DB	02H
	DB	02H
	DB	02H
	DB	0f2H
	DB	00H
	DB	00H
	DB	0c0H
	DB	065H
	DB	02H
	DB	02H
	DB	0f7H
	DB	020H
	DB	00H
	DB	00H
	DB	00H
	DB	00H
	DB	00H
	DB	00H
	DB	00H
	DB	00H
	DB	00H
	DB	00H
	DB	00H
	DB	019H
	DB	02H
	DB	02H
	DB	02H
	DB	051H
	DB	00H
	DB	00H
	DB	0c8H
	DB	02H
	DB	02H
	DB	02H
	DB	02H
	DB	026H
	DB	00H
	DB	034H
	DB	062H
	DB	02H
	DB	02H
	DB	02H
	DB	09cH
	DB	00H
	DB	00H
	DB	00H
	DB	04bH
	DB	02H
	DB	02H
	DB	02H
	DB	052H
	DB	089H
	DB	00H
	DB	00H
	DB	0aH
	DB	02H
	DB	02H
	DB	02H
	DB	086H
	DB	00H
	DB	00H
	DB	00H
	DB	00H
	DB	06dH
	DB	03dH
	DB	02H
	DB	02H
	DB	05cH
	DB	0eH
	DB	00H
	DB	017H
	DB	0fcH
	DB	02H
	DB	02H
	DB	02H
	DB	09H
	DB	00H
	DB	00H
	DB	00H
	DB	021H
	DB	0feH
	DB	02H
	DB	02H
	DB	069H
	DB	0beH
	DB	00H
	DB	00H
	DB	04fH
	DB	0ffH
	DB	02H
	DB	02H
	DB	02H
	DB	051H
	DB	0eaH
	DB	02bH
	DB	037H
	DB	052H
	DB	02H
	DB	02H
	DB	02H
	DB	0a1H
	DB	00H
	DB	00H
	DB	04fH
	DB	0ffH
	DB	02H
	DB	02H
	DB	066H
	DB	014H
	DB	0c9H
	DB	023H
	DB	025H
	DB	02bH
	DB	062H
	DB	07H
	DB	00H
	DB	00H
	DB	034H
	DB	062H
	DB	02H
	DB	02H
	DB	02H
	DB	011H
	DB	0d2H
	DB	0cbH
	DB	0aH
	DB	069H
	DB	02H
	DB	02H
	DB	02H
	DB	0f2H
	DB	00H
	DB	00H
	DB	0c0H
	DB	065H
	DB	02H
	DB	02H
	DB	0f7H
	DB	020H
	DB	00H
	DB	00H
	DB	00H
	DB	00H
	DB	00H
	DB	00H
	DB	00H
	DB	00H
	DB	00H
	DB	00H
	DB	00H
	DB	019H
	DB	02H
	DB	02H
	DB	02H
	DB	051H
	DB	00H
	DB	00H
	DB	087H
	DB	04eH
	DB	02H
	DB	02H
	DB	02H
	DB	0f7H
	DB	00H
	DB	00H
	DB	033H
	DB	02H
	DB	02H
	DB	02H
	DB	05eH
	DB	039H
	DB	04fH
	DB	0dfH
	DB	05eH
	DB	02H
	DB	02H
	DB	02H
	DB	052H
	DB	089H
	DB	00H
	DB	00H
	DB	0d1H
	DB	02H
	DB	02H
	DB	02H
	DB	05cH
	DB	0d2H
	DB	0d0H
	DB	063H
	DB	00H
	DB	01eH
	DB	03dH
	DB	02H
	DB	02H
	DB	05cH
	DB	0eH
	DB	00H
	DB	00H
	DB	0d1H
	DB	02H
	DB	02H
	DB	02H
	DB	05eH
	DB	01cH
	DB	03H
	DB	0fH
	DB	024H
	DB	02H
	DB	02H
	DB	02H
	DB	01aH
	DB	00H
	DB	00H
	DB	00H
	DB	00H
	DB	014H
	DB	0ffH
	DB	02H
	DB	02H
	DB	02H
	DB	02H
	DB	02H
	DB	02H
	DB	02H
	DB	02H
	DB	02H
	DB	0f8H
	DB	08bH
	DB	00H
	DB	00H
	DB	00H
	DB	012H
	DB	02H
	DB	02H
	DB	02H
	DB	02H
	DB	069H
	DB	065H
	DB	064H
	DB	02H
	DB	02H
	DB	047H
	DB	08cH
	DB	00H
	DB	00H
	DB	046H
	DB	0ffH
	DB	02H
	DB	02H
	DB	02H
	DB	02H
	DB	02H
	DB	0ffH
	DB	011H
	DB	069H
	DB	02H
	DB	02H
	DB	010H
	DB	00H
	DB	00H
	DB	0c0H
	DB	065H
	DB	02H
	DB	02H
	DB	0f7H
	DB	020H
	DB	00H
	DB	00H
	DB	00H
	DB	00H
	DB	00H
	DB	00H
	DB	00H
	DB	00H
	DB	00H
	DB	00H
	DB	00H
	DB	03eH
	DB	02H
	DB	02H
	DB	02H
	DB	051H
	DB	00H
	DB	00H
	DB	00H
	DB	0e6H
	DB	02H
	DB	02H
	DB	02H
	DB	02H
	DB	063H
	DB	00H
	DB	090H
	DB	05dH
	DB	02H
	DB	02H
	DB	02H
	DB	02H
	DB	02H
	DB	02H
	DB	05dH
	DB	05dH
	DB	02H
	DB	02H
	DB	052H
	DB	089H
	DB	00H
	DB	00H
	DB	043H
	DB	04eH
	DB	02H
	DB	02H
	DB	02H
	DB	02H
	DB	02H
	DB	062H
	DB	00H
	DB	08bH
	DB	03dH
	DB	02H
	DB	02H
	DB	0feH
	DB	0b0H
	DB	00H
	DB	00H
	DB	00H
	DB	0cH
	DB	02H
	DB	02H
	DB	02H
	DB	064H
	DB	047H
	DB	06cH
	DB	02H
	DB	02H
	DB	02H
	DB	050H
	DB	0aeH
	DB	00H
	DB	00H
	DB	00H
	DB	00H
	DB	00H
	DB	04bH
	DB	011H
	DB	064H
	DB	02H
	DB	02H
	DB	02H
	DB	02H
	DB	064H
	DB	0feH
	DB	0e3H
	DB	0a8H
	DB	00H
	DB	00H
	DB	00H
	DB	00H
	DB	00H
	DB	09cH
	DB	0feH
	DB	0ffH
	DB	02H
	DB	02H
	DB	02H
	DB	02H
	DB	069H
	DB	0fdH
	DB	041H
	DB	020H
	DB	00H
	DB	00H
	DB	00H
	DB	0d1H
	DB	0feH
	DB	064H
	DB	02H
	DB	02H
	DB	06cH
	DB	0ecH
	DB	045H
	DB	05eH
	DB	02H
	DB	02H
	DB	010H
	DB	00H
	DB	00H
	DB	0c0H
	DB	065H
	DB	02H
	DB	02H
	DB	0f7H
	DB	020H
	DB	00H
	DB	00H
	DB	00H
	DB	00H
	DB	00H
	DB	00H
	DB	00H
	DB	00H
	DB	00H
	DB	00H
	DB	00H
	DB	03eH
	DB	02H
	DB	02H
	DB	02H
	DB	051H
	DB	00H
	DB	00H
	DB	00H
	DB	0b0H
	DB	06cH
	DB	02H
	DB	02H
	DB	02H
	DB	01dH
	DB	00H
	DB	00H
	DB	0c6H
	DB	0fdH
	DB	069H
	DB	02H
	DB	02H
	DB	069H
	DB	01dH
	DB	04aH
	DB	05fH
	DB	02H
	DB	02H
	DB	052H
	DB	03H
	DB	00H
	DB	00H
	DB	00H
	DB	079H
	DB	05fH
	DB	0ffH
	DB	02H
	DB	02H
	DB	0ffH
	DB	05aH
	DB	020H
	DB	03H
	DB	03dH
	DB	02H
	DB	02H
	DB	0feH
	DB	0eH
	DB	00H
	DB	00H
	DB	00H
	DB	0a3H
	DB	09cH
	DB	052H
	DB	0ffH
	DB	02H
	DB	02H
	DB	02H
	DB	02H
	DB	06cH
	DB	0f2H
	DB	054H
	DB	00H
	DB	00H
	DB	00H
	DB	00H
	DB	00H
	DB	00H
	DB	00H
	DB	06H
	DB	092H
	DB	053H
	DB	0e5H
	DB	09fH
	DB	053H
	DB	0c4H
	DB	0a8H
	DB	00H
	DB	00H
	DB	00H
	DB	00H
	DB	00H
	DB	00H
	DB	00H
	DB	00H
	DB	088H
	DB	081H
	DB	0d7H
	DB	0e7H
	DB	0e1H
	DB	074H
	DB	0b7H
	DB	02fH
	DB	00H
	DB	00H
	DB	00H
	DB	00H
	DB	00H
	DB	00H
	DB	08H
	DB	096H
	DB	0cfH
	DB	083H
	DB	028H
	DB	00H
	DB	017H
	DB	083H
	DB	06eH
	DB	074H
	DB	0bfH
	DB	00H
	DB	00H
	DB	0aaH
	DB	0ceH
	DB	01cH
	DB	074H
	DB	081H
	DB	00H
	DB	00H
	DB	00H
	DB	00H
	DB	00H
	DB	00H
	DB	00H
	DB	00H
	DB	00H
	DB	00H
	DB	00H
	DB	00H
	DB	01bH
	DB	074H
	DB	073H
	DB	0cfH
	DB	025H
	DB	00H
	DB	00H
	DB	00H
	DB	00H
	DB	096H
	DB	06eH
	DB	073H
	DB	0cfH
	DB	082H
	DB	02fH
	DB	00H
	DB	00H
	DB	020H
	DB	092H
	DB	06eH
	DB	073H
	DB	03fH
	DB	00H
	DB	00H
	DB	0c7H
	DB	074H
	DB	06eH
	DB	098H
	DB	087H
	DB	00H
	DB	00H
	DB	00H
	DB	00H
	DB	020H
	DB	094H
	DB	0cfH
	DB	073H
	DB	0b9H
	DB	017H
	DB	00H
	DB	087H
	DB	083H
	DB	06eH
	DB	06eH
	DB	082H
	DB	017H
	DB	00H
	DB	00H
	DB	00H
	DB	00H
	DB	00H
	DB	038H
	DB	096H
	DB	0d8H
	DB	09fH
	DB	0e2H
	DB	0ccH
	DB	0eH
	DB	00H
	DB	00H
	DB	00H
	DB	00H
	DB	00H
	DB	00H
	DB	00H
	DB	00H
	DB	00H
	DB	00H
	DB	00H
	DB	00H
	DB	00H
	DB	00H
	DB	00H
	DB	00H
	DB	00H
	DB	00H
	DB	00H
	DB	00H
	DB	00H
	DB	00H
	DB	00H
	DB	00H
	DB	00H
	DB	00H
	DB	00H
	DB	00H
	DB	00H
	DB	00H
	DB	00H
	DB	00H
	DB	00H
	DB	00H
	DB	00H
	DB	00H
	DB	00H
	DB	00H
	DB	00H
	DB	00H
	DB	00H
	DB	00H
	DB	00H
	DB	00H
	DB	00H
	DB	00H
	DB	00H
	DB	00H
	DB	00H
	DB	00H
	DB	00H
	DB	00H
	DB	00H
	DB	00H
	DB	00H
	DB	00H
	DB	00H
	DB	00H
	DB	00H
	DB	00H
	DB	00H
	DB	00H
	DB	00H
	DB	00H
	DB	00H
	DB	00H
	DB	00H
	DB	00H
	DB	00H
	DB	00H
	DB	00H
	DB	00H
	DB	00H
	DB	00H
	DB	00H
	DB	00H
	DB	00H
	DB	00H
	DB	00H
	DB	00H
	DB	00H
	DB	00H
	DB	00H
	DB	00H
	DB	00H
	DB	00H
	DB	00H
	DB	00H
	DB	00H
	DB	00H
	DB	00H
	DB	00H
	DB	00H
	DB	00H
	DB	00H
	DB	00H
	DB	00H
	DB	00H
	DB	00H
	DB	00H
	DB	00H
	DB	00H
	DB	00H
	DB	00H
	DB	00H
	DB	00H
	DB	00H
	DB	00H
	DB	00H
	DB	00H
	DB	00H
	DB	00H
	DB	00H
	DB	00H
	DB	00H
	DB	00H
	DB	00H
	DB	00H
	DB	00H
	DB	00H
	DB	00H
	DB	00H
	DB	00H
	DB	00H
	DB	00H
	DB	00H
	DB	00H
	DB	00H
	DB	00H
	DB	00H
	DB	00H
	DB	00H
	DB	00H
	DB	00H
	DB	00H
	DB	00H
	DB	00H
	DB	00H
	DB	00H
	DB	00H
	DB	00H
	DB	00H
	DB	00H
	DB	00H
	DB	00H
	DB	00H
	DB	00H
	DB	00H
	DB	00H
	DB	00H
	DB	00H
	DB	00H
	DB	00H
	DB	00H
	DB	00H
	DB	00H
	DB	00H
	DB	00H
	DB	00H
	DB	00H
	DB	00H
	DB	00H
	DB	00H
	DB	00H
	DB	00H
	DB	00H
	DB	00H
	DB	00H
	DB	00H
	DB	00H
	DB	00H
	DB	00H
	DB	00H
	DB	00H
	DB	00H
	DB	00H
	DB	00H
	DB	00H
	DB	00H
	DB	00H
	DB	00H
	DB	00H
	DB	00H
	DB	00H
	DB	00H
	DB	00H
	DB	00H
	DB	00H
	DB	00H
	DB	00H
	DB	00H
	DB	00H
	DB	00H
	DB	00H
	DB	00H
	DB	00H
	DB	00H
	DB	00H
	DB	00H
	DB	00H
	DB	00H
	DB	00H
	DB	00H
	DB	00H
	DB	00H
	DB	00H
	DB	00H
	DB	00H
	DB	00H
	DB	00H
	DB	00H
	DB	00H
	DB	00H
	DB	00H
	DB	00H
	DB	00H
	DB	00H
	DB	00H
	DB	00H
	DB	00H
	DB	00H
	DB	00H
	DB	00H
	DB	00H
	DB	00H
	DB	00H
	DB	00H
	DB	00H
	DB	00H
	DB	00H
	DB	00H
	DB	00H
	DB	00H
	DB	00H
	DB	00H
	DB	00H
	DB	00H
	DB	00H
	DB	00H
	DB	00H
	DB	00H
	DB	00H
	DB	00H
	DB	00H
	DB	00H
	DB	00H
	DB	00H
	DB	00H
	DB	00H
	DB	00H
	DB	00H
	DB	00H
	DB	00H
	DB	00H
	DB	00H
	DB	00H
	DB	00H
	DB	00H
	DB	00H
	DB	00H
	DB	00H
	DB	00H
	DB	00H
	DB	00H
	DB	00H
	DB	00H
	DB	00H
	DB	00H
	DB	00H
	DB	00H
	DB	00H
	DB	00H
	DB	00H
	DB	00H
	DB	00H
	DB	00H
	DB	00H
	DB	00H
	DB	00H
	DB	00H
	DB	00H
	DB	00H
	DB	00H
	DB	00H
	DB	00H
	DB	00H
	DB	00H
	DB	00H
	DB	00H
	DB	00H
	DB	00H
	DB	00H
	DB	00H
	DB	00H
	DB	00H
	DB	00H
	DB	00H
	DB	00H
	DB	00H
	DB	00H
	DB	00H
	DB	00H
	DB	00H
	DB	00H
	DB	00H
	DB	00H
	DB	00H
	DB	00H
	DB	00H
	DB	00H
	DB	00H
	DB	00H
	DB	00H
	DB	00H
	DB	00H
	DB	00H
	DB	00H
	DB	00H
	DB	00H
	DB	00H
	DB	00H
	DB	00H
	DB	00H
	DB	00H
	DB	00H
	DB	00H
	DB	00H
	DB	00H
	DB	00H
	DB	00H
	DB	00H
	DB	00H
	DB	00H
	DB	00H
	DB	00H
	DB	00H
	DB	00H
	DB	00H
	DB	00H
	DB	00H
	DB	00H
	DB	00H
	DB	00H
	DB	00H
	DB	00H
	DB	00H
	DB	00H
	DB	00H
	DB	00H
	DB	00H
	DB	00H
	DB	00H
	DB	00H
	DB	00H
	DB	00H
	DB	00H
	DB	00H
	DB	00H
	DB	00H
	DB	00H
	DB	00H
	DB	00H
	DB	00H
	DB	00H
	DB	00H
	DB	00H
	DB	00H
	DB	00H
	DB	00H
	DB	00H
	DB	00H
	DB	00H
	DB	00H
	DB	00H
	DB	00H
	DB	00H
	DB	00H
	DB	00H
	DB	00H
	DB	00H
	DB	00H
	DB	00H
	DB	00H
	DB	00H
	DB	00H
	DB	00H
	DB	00H
	DB	00H
	DB	00H
	DB	00H
	DB	00H
	DB	00H
	DB	00H
	DB	00H
	DB	00H
	DB	00H
	DB	00H
	DB	00H
	DB	00H
	DB	00H
	DB	00H
	DB	00H
	DB	00H
	DB	00H
	DB	00H
	DB	00H
	DB	00H
	DB	00H
	DB	00H
	DB	00H
	DB	00H
	DB	00H
	DB	00H
	DB	00H
	DB	00H
	DB	00H
	DB	00H
	DB	00H
	DB	00H
	DB	00H
	DB	00H
	DB	00H
	DB	00H
	DB	00H
	DB	00H
	DB	00H
	DB	00H
	DB	00H
	DB	00H
	DB	00H
	DB	00H
	DB	00H
	DB	00H
	DB	00H
	DB	00H
	DB	00H
	DB	00H
	DB	00H
	DB	00H
	DB	00H
	DB	00H
	DB	00H
	DB	00H
	DB	00H
	DB	00H
	DB	00H
	DB	00H
	DB	00H
	DB	00H
	DB	00H
	DB	00H
	DB	00H
	DB	00H
	DB	00H
	DB	00H
	DB	00H
	DB	00H
	DB	00H
	DB	00H
	DB	00H
	DB	00H
	DB	00H
	DB	00H
	DB	00H
	DB	00H
	DB	00H
	DB	00H
	DB	00H
	DB	00H
	DB	00H
	DB	00H
	DB	00H
	DB	00H
	DB	00H
	DB	00H
	DB	00H
	DB	00H
	DB	00H
	DB	00H
	DB	00H
	DB	00H
	DB	00H
	DB	00H
	DB	00H
	DB	00H
	DB	00H
	DB	00H
	DB	00H
	DB	00H
	DB	00H
	DB	00H
	DB	00H
	DB	00H
	DB	00H
	DB	00H
	DB	00H
	DB	00H
	DB	00H
	DB	00H
	DB	00H
	DB	00H
	DB	00H
	DB	00H
	DB	00H
	DB	00H
	DB	00H
	DB	00H
	DB	00H
	DB	00H
	DB	00H
	DB	00H
	DB	00H
	DB	00H
	DB	00H
	DB	00H
	DB	00H
	DB	00H
	DB	00H
	DB	00H
	DB	00H
	DB	00H
	DB	00H
	DB	00H
	DB	00H
	DB	00H
	DB	00H
	DB	00H
	DB	00H
	DB	00H
	DB	00H
	DB	00H
	DB	00H
	DB	00H
	DB	00H
	DB	00H
	DB	00H
	DB	00H
	DB	00H
	DB	00H
	DB	00H
	DB	00H
	DB	00H
	DB	00H
	DB	00H
	DB	00H
	DB	00H
	DB	00H
	DB	00H
	DB	00H
	DB	00H
	DB	00H
	DB	00H
	DB	00H
	DB	00H
	DB	00H
	DB	00H
	DB	00H
	DB	00H
	DB	00H
	DB	00H
	DB	00H
	DB	00H
	DB	00H
	DB	00H
	DB	00H
	DB	00H
	DB	00H
	DB	00H
	DB	00H
	DB	00H
	DB	00H
	DB	00H
	DB	00H
	DB	00H
	DB	00H
	DB	00H
	DB	00H
	DB	00H
	DB	00H
	DB	00H
	DB	00H
	DB	00H
	DB	00H
	DB	00H
	DB	00H
	DB	00H
	DB	00H
	DB	00H
	DB	00H
	DB	00H
	DB	00H
	DB	00H
	DB	00H
	DB	00H
	DB	00H
	DB	00H
	DB	00H
	DB	00H
	DB	00H
	DB	00H
	DB	00H
	DB	00H
	DB	00H
	DB	00H
	DB	00H
	DB	00H
	DB	00H
	DB	00H
	DB	00H
	DB	00H
	DB	00H
	DB	00H
	DB	00H
	DB	00H
	DB	00H
	DB	00H
	DB	00H
	DB	00H
	DB	00H
	DB	00H
	DB	00H
	DB	00H
	DB	00H
	DB	00H
	DB	00H
	DB	00H
	DB	00H
	DB	00H
	DB	00H
	DB	00H
	DB	00H
	DB	00H
	DB	00H
	DB	00H
	DB	00H
	DB	00H
	DB	00H
	DB	00H
	DB	00H
	DB	00H
	DB	00H
	DB	00H
	DB	00H
	DB	00H
	DB	00H
	DB	00H
	DB	00H
	DB	00H
	DB	00H
	DB	00H
	DB	00H
	DB	00H
	DB	00H
	DB	00H
	DB	00H
	DB	00H
	DB	00H
	DB	00H
	DB	00H
	DB	00H
	DB	00H
	DB	00H
	DB	00H
	DB	00H
	DB	00H
	DB	00H
	DB	00H
	DB	00H
	DB	00H
	DB	00H
	DB	00H
	DB	00H
	DB	00H
	DB	00H
	DB	00H
	DB	00H
	DB	00H
	DB	00H
	DB	00H
	DB	00H
	DB	00H
	DB	00H
	DB	00H
	DB	00H
	DB	00H
	DB	00H
	DB	00H
	DB	00H
	DB	00H
	DB	00H
	DB	00H
	DB	00H
	DB	00H
	DB	00H
	DB	00H
	DB	00H
	DB	00H
	DB	00H
	DB	00H
	DB	00H
	DB	00H
	DB	00H
	DB	00H
	DB	00H
	DB	00H
	DB	00H
	DB	00H
	DB	00H
	DB	00H
	DB	00H
	DB	00H
	DB	00H
	DB	00H
	DB	00H
	DB	00H
	DB	00H
	DB	00H
	DB	00H
	DB	00H
	DB	00H
	DB	00H
	DB	00H
	DB	00H
	DB	00H
	DB	00H
	DB	00H
	DB	00H
	DB	00H
	DB	00H
	DB	00H
	DB	00H
	DB	00H
	DB	00H
	DB	00H
	DB	00H
	DB	00H
	DB	00H
	DB	00H
	DB	00H
	DB	00H
	DB	00H
	DB	00H
	DB	00H
	DB	00H
	DB	00H
	DB	00H
	DB	00H
	DB	00H
	DB	00H
	DB	00H
	DB	00H
	DB	00H
	DB	00H
	DB	00H
	DB	00H
	DB	00H
	DB	00H
	DB	00H
	DB	00H
	DB	00H
	DB	00H
	DB	00H
	DB	00H
	DB	00H
	DB	00H
	DB	00H
	DB	00H
	DB	00H
	DB	00H
	DB	00H
	DB	00H
	DB	00H
	DB	00H
	DB	00H
	DB	00H
	DB	00H
	DB	00H
	DB	00H
	DB	00H
	DB	00H
	DB	00H
	DB	00H
	DB	00H
	DB	00H
	DB	00H
	DB	00H
	DB	00H
	DB	00H
	DB	00H
	DB	00H
	DB	00H
	DB	00H
	DB	00H
	DB	00H
	DB	00H
	DB	00H
	DB	00H
	DB	00H
	DB	00H
	DB	00H
	DB	00H
	DB	00H
	DB	00H
	DB	00H
	DB	00H
	DB	00H
	DB	00H
	DB	00H
	DB	00H
	DB	00H
	DB	00H
	DB	00H
	DB	00H
	DB	00H
	DB	00H
	DB	00H
	DB	00H
	DB	00H
	DB	00H
	DB	00H
	DB	00H
	DB	00H
	DB	00H
	DB	00H
	DB	00H
	DB	00H
	DB	00H
	DB	00H
	DB	00H
	DB	00H
	DB	00H
	DB	00H
	DB	00H
	DB	00H
	DB	00H
	DB	00H
	DB	00H
	DB	00H
	DB	00H
	DB	00H
	DB	00H
	DB	00H
	DB	00H
	DB	00H
	DB	00H
	DB	00H
	DB	00H
	DB	00H
	DB	00H
	DB	00H
	DB	00H
	DB	00H
	DB	00H
	DB	00H
	DB	00H
	DB	00H
	DB	00H
	DB	00H
	DB	00H
	DB	00H
	DB	00H
	DB	00H
	DB	00H
	DB	00H
	DB	00H
	DB	00H
	DB	00H
	DB	00H
	DB	00H
	DB	00H
	DB	00H
	DB	00H
	DB	00H
	DB	00H
	DB	00H
	DB	00H
	DB	00H
	DB	00H
	DB	00H
	DB	00H
	DB	00H
	DB	00H
	DB	00H
	DB	00H
	DB	00H
	DB	00H
	DB	00H
	DB	00H
	DB	00H
	DB	00H
	DB	00H
	DB	00H
	DB	00H
CONST	ENDS
END
