; Listing generated by Microsoft (R) Optimizing Compiler Version 16.00.40219.01 

	TITLE	C:\DUII\DUII\Graphics\GoRacingText.c
	.686P
	.XMM
	include listing.inc
	.model	flat

INCLUDELIB LIBCMT
INCLUDELIB OLDNAMES

PUBLIC	_bmGoRacingText
CONST	SEGMENT
_ColorsGoRacingText DD 00H
	DD	0222222H
	DD	028f569H
	DD	0393939H
	DD	0b0b0bH
	DD	0414141H
	DD	02c2c2cH
	DD	0141414H
	DD	029fe6dH
	DD	03e3e3eH
	DD	028f96aH
	DD	01a1a1aH
	DD	0262626H
	DD	01e1e1eH
	DD	02a2a2aH
	DD	0353535H
	DD	0313131H
	DD	0403a3eH
	DD	01d3d28H
	DD	022de5dH
	DD	019a045H
	DD	0150c12H
	DD	01ec052H
	DD	026f066H
	DD	0e4921H
	DD	026f468H
	DD	090005H
	DD	0181516H
	DD	0114120H
	DD	02aff70H
	DD	025ed65H
	DD	01b1419H
	DD	0199c43H
	DD	01ebd51H
	DD	01db64eH
	DD	024e562H
	DD	0e4620H
	DD	01aa446H
	DD	0423d40H
	DD	020c454H
	DD	0e5424H
	DD	0444444H
	DD	030b05H
	DD	092b14H
	DD	0a3518H
	DD	0a3b19H
	DD	029fb6cH
	DD	051b0cH
	DD	0168d3cH
	DD	024e160H
	DD	041309H
	DD	020c956H
	DD	022da5dH
	DD	021e05eH
	DD	025e964H
	DD	0a0508H
	DD	0d050aH
	DD	0190d15H
	DD	0147332H
	DD	0158138H
	DD	0158439H
	DD	01cb14cH
	DD	021d159H
	DD	027f268H
	DD	011090eH
	DD	0b120eH
	DD	0a2413H
	DD	012391eH
	DD	03d353aH
	DD	0c441eH
	DD	0147c35H
	DD	021d55aH
	DD	0d0209H
	DD	060c09H
	DD	011040dH
	DD	062811H
	DD	093016H
	DD	0282527H
	DD	011652cH
	DD	0147934H
	DD	0444142H
	DD	018923eH
	DD	021ce58H
	DD	022d65cH
	DD	024e963H
	DD	0131a15H
	DD	062510H
	DD	0251d22H
	DD	01c3d26H
	DD	0454244H
	DD	0189540H
	DD	01ba648H
	DD	01cae4aH
	DD	01db84eH
	DD	01eba50H
	DD	01fc554H
	DD	0f060cH
	DD	011351dH
	DD	0282126H
	DD	02c252aH
	DD	02e2a2cH
	DD	0352d32H
	DD	0104822H
	DD	0105326H
	DD	0105d29H
	DD	010612aH
	DD	0126c2fH
	DD	015893aH
	DD	017913dH
	DD	01ca948H
	DD	01aad49H
	DD	01ab14aH
	DD	01ece56H
	DD	024dd5fH
	DD	023e160H
	DD	023e661H
	DD	026f969H
	DD	02cff73H
	DD	060a08H
	DD	0161c18H
	DD	01d1a1cH
	DD	0211a1fH
	DD	06200eH
	DD	0102316H
	DD	0132418H
	DD	01a221cH
	DD	0162d1eH
	DD	0103d1eH
	DD	0251921H
	DD	0221e21H
	DD	0163c23H
	DD	0193d25H
	DD	01f3a28H
	DD	032282fH
	DD	03a3538H
	DD	0c411dH
	DD	0114e25H
	DD	0f5a26H
	DD	016562aH
	DD	011642bH
	DD	0126d30H
	DD	0137834H
	DD	0168a3cH
	DD	0189340H
	DD	01aa948H
	DD	01ec553H
	DD	01ec954H
	DD	029fc6bH
	DD	091a0eH
	DD	0e1e13H
	DD	020131cH
	DD	011301bH
	DD	01b2920H
	DD	0232a25H
	DD	0232d26H
	DD	02d222aH
	DD	02a2428H
	DD	02e262cH
	DD	030262dH
	DD	0352931H
	DD	0393036H
	DD	03a3238H
	DD	0413c3fH
	DD	0114421H
	DD	0124924H
	DD	0154a26H
	DD	0184928H
	DD	0f5d28H
	DD	0165129H
	DD	0146f31H
	DD	0423a40H
	DD	0188239H
	DD	016953fH
	DD	0169740H
	DD	01dc853H
	DD	020d85bH
	DD	024db5eH
	DD	022e861H
	DD	028f168H
	DD	027fc6bH
	DD	02cff74H
	DD	080807H
	DD	0a0208H
	DD	031107H
	DD	0150710H
	DD	0e1510H
	DD	01d181bH
	DD	0181f1aH
	DD	0f2b18H
	DD	01c201eH
	DD	01b261eH
	DD	01d241fH
	DD	0112918H
	DD	019281eH
	DD	016301fH
	DD	020201fH
	DD	0251420H
	DD	0231b20H
	DD	0271e24H
	DD	0291924H
	DD	02b1f27H
	DD	02e1d28H
	DD	01c2f22H
	DD	0183221H
	DD	01f3325H
	DD	0133b20H
	DD	01d3a27H
	DD	0242123H
	DD	0252a27H
	DD	02a2228H
	DD	0223127H
	DD	0213427H
	DD	0203728H
	DD	025342aH
	DD	02e322fH
	DD	0203b28H
	DD	027392dH
	DD	0372d34H
	DD	0392d36H
	DD	02d3730H
	DD	02c3930H
	DD	0373035H
	DD	0333634H
	DD	0383637H
	DD	03e373cH
	DD	03d383bH
	DD	03e3b3dH
	DD	0b401cH
	DD	0c481fH
	DD	010401fH
	DD	0144423H
	DD	0194126H
	DD	01f402aH
	DD	0125728H
	DD	019522bH
	DD	018592dH
	DD	03f403fH
	DD	0f622aH
	DD	012622cH
	DD	014622dH
	DD	014642eH
	DD	0166730H
	DD	0146a30H
	DD	0158036H
	DD	0188f3eH
	DD	014983eH
	DD	0169f42H
	DD	01cb04bH
	DD	01ab54bH
	DD	01bbb4eH
	DD	01bbc4fH
	DD	01fc254H
	DD	01fd358H
	DD	01ed759H
	DD	021cb58H
	DD	023ec63H
_PalGoRacingText DD 0100H
	DB	00H
	ORG $+3
	DD	FLAT:_ColorsGoRacingText
_bmGoRacingText DW 0159H
	DW	023H
	DW	0159H
	DW	08H
	DD	FLAT:_acGoRacingText
	DD	FLAT:_PalGoRacingText
	ORG $+4
_acGoRacingText DB 01H
	DB	01H
	DB	01H
	DB	01H
	DB	01H
	DB	01H
	DB	01H
	DB	01H
	DB	01H
	DB	01H
	DB	01H
	DB	01H
	DB	01H
	DB	01H
	DB	01H
	DB	01H
	DB	01H
	DB	01H
	DB	01H
	DB	01H
	DB	01H
	DB	01H
	DB	01H
	DB	01H
	DB	01H
	DB	01H
	DB	01H
	DB	01H
	DB	01H
	DB	01H
	DB	01H
	DB	01H
	DB	01H
	DB	01H
	DB	01H
	DB	01H
	DB	01H
	DB	01H
	DB	01H
	DB	01H
	DB	01H
	DB	01H
	DB	01H
	DB	01H
	DB	01H
	DB	01H
	DB	01H
	DB	01H
	DB	01H
	DB	01H
	DB	01H
	DB	01H
	DB	01H
	DB	01H
	DB	01H
	DB	01H
	DB	01H
	DB	01H
	DB	01H
	DB	01H
	DB	01H
	DB	01H
	DB	01H
	DB	01H
	DB	01H
	DB	01H
	DB	01H
	DB	01H
	DB	01H
	DB	01H
	DB	01H
	DB	01H
	DB	01H
	DB	01H
	DB	01H
	DB	01H
	DB	01H
	DB	01H
	DB	01H
	DB	01H
	DB	01H
	DB	01H
	DB	01H
	DB	01H
	DB	01H
	DB	01H
	DB	01H
	DB	01H
	DB	01H
	DB	01H
	DB	01H
	DB	01H
	DB	01H
	DB	01H
	DB	01H
	DB	01H
	DB	01H
	DB	01H
	DB	01H
	DB	01H
	DB	01H
	DB	01H
	DB	01H
	DB	01H
	DB	01H
	DB	01H
	DB	01H
	DB	01H
	DB	01H
	DB	01H
	DB	01H
	DB	01H
	DB	01H
	DB	01H
	DB	01H
	DB	01H
	DB	01H
	DB	01H
	DB	01H
	DB	01H
	DB	01H
	DB	01H
	DB	01H
	DB	01H
	DB	01H
	DB	01H
	DB	01H
	DB	01H
	DB	01H
	DB	01H
	DB	01H
	DB	01H
	DB	01H
	DB	01H
	DB	01H
	DB	01H
	DB	01H
	DB	01H
	DB	01H
	DB	01H
	DB	01H
	DB	01H
	DB	01H
	DB	01H
	DB	01H
	DB	01H
	DB	01H
	DB	01H
	DB	01H
	DB	01H
	DB	01H
	DB	01H
	DB	01H
	DB	01H
	DB	01H
	DB	01H
	DB	01H
	DB	01H
	DB	01H
	DB	01H
	DB	01H
	DB	01H
	DB	01H
	DB	01H
	DB	01H
	DB	01H
	DB	01H
	DB	01H
	DB	01H
	DB	01H
	DB	01H
	DB	01H
	DB	01H
	DB	01H
	DB	01H
	DB	01H
	DB	01H
	DB	01H
	DB	01H
	DB	01H
	DB	01H
	DB	01H
	DB	01H
	DB	01H
	DB	01H
	DB	01H
	DB	01H
	DB	01H
	DB	01H
	DB	01H
	DB	01H
	DB	01H
	DB	01H
	DB	01H
	DB	01H
	DB	01H
	DB	01H
	DB	01H
	DB	01H
	DB	01H
	DB	01H
	DB	01H
	DB	01H
	DB	01H
	DB	01H
	DB	01H
	DB	01H
	DB	01H
	DB	01H
	DB	01H
	DB	01H
	DB	01H
	DB	01H
	DB	01H
	DB	01H
	DB	01H
	DB	01H
	DB	01H
	DB	01H
	DB	01H
	DB	01H
	DB	01H
	DB	01H
	DB	01H
	DB	01H
	DB	01H
	DB	01H
	DB	01H
	DB	01H
	DB	01H
	DB	01H
	DB	01H
	DB	01H
	DB	01H
	DB	01H
	DB	01H
	DB	01H
	DB	01H
	DB	01H
	DB	01H
	DB	01H
	DB	01H
	DB	01H
	DB	01H
	DB	01H
	DB	01H
	DB	01H
	DB	01H
	DB	01H
	DB	01H
	DB	01H
	DB	01H
	DB	01H
	DB	01H
	DB	01H
	DB	01H
	DB	01H
	DB	01H
	DB	01H
	DB	01H
	DB	01H
	DB	01H
	DB	01H
	DB	01H
	DB	01H
	DB	01H
	DB	01H
	DB	01H
	DB	01H
	DB	01H
	DB	01H
	DB	01H
	DB	01H
	DB	01H
	DB	01H
	DB	01H
	DB	01H
	DB	01H
	DB	01H
	DB	01H
	DB	01H
	DB	01H
	DB	01H
	DB	01H
	DB	01H
	DB	01H
	DB	01H
	DB	01H
	DB	01H
	DB	01H
	DB	01H
	DB	01H
	DB	01H
	DB	01H
	DB	01H
	DB	01H
	DB	01H
	DB	01H
	DB	01H
	DB	01H
	DB	01H
	DB	01H
	DB	01H
	DB	01H
	DB	01H
	DB	01H
	DB	01H
	DB	01H
	DB	01H
	DB	01H
	DB	01H
	DB	01H
	DB	01H
	DB	01H
	DB	01H
	DB	01H
	DB	01H
	DB	01H
	DB	01H
	DB	01H
	DB	01H
	DB	01H
	DB	01H
	DB	01H
	DB	01H
	DB	01H
	DB	01H
	DB	01H
	DB	01H
	DB	01H
	DB	01H
	DB	01H
	DB	01H
	DB	01H
	DB	01H
	DB	01H
	DB	01H
	DB	01H
	DB	01H
	DB	01H
	DB	01H
	DB	01H
	DB	01H
	DB	01H
	DB	01H
	DB	01H
	DB	01H
	DB	01H
	DB	01H
	DB	01H
	DB	01H
	DB	01H
	DB	01H
	DB	01H
	DB	01H
	DB	01H
	DB	01H
	DB	01H
	DB	01H
	DB	01H
	DB	01H
	DB	01H
	DB	01H
	DB	01H
	DB	01H
	DB	01H
	DB	01H
	DB	01H
	DB	01H
	DB	01H
	DB	01H
	DB	01H
	DB	01H
	DB	01H
	DB	01H
	DB	01H
	DB	01H
	DB	01H
	DB	01H
	DB	01H
	DB	01H
	DB	01H
	DB	01H
	DB	01H
	DB	01H
	DB	01H
	DB	01H
	DB	01H
	DB	01H
	DB	01H
	DB	01H
	DB	01H
	DB	01H
	DB	01H
	DB	01H
	DB	01H
	DB	01H
	DB	01H
	DB	01H
	DB	01H
	DB	01H
	DB	01H
	DB	01H
	DB	01H
	DB	01H
	DB	01H
	DB	01H
	DB	01H
	DB	01H
	DB	01H
	DB	01H
	DB	01H
	DB	01H
	DB	01H
	DB	01H
	DB	01H
	DB	01H
	DB	01H
	DB	01H
	DB	01H
	DB	01H
	DB	01H
	DB	01H
	DB	01H
	DB	01H
	DB	01H
	DB	01H
	DB	01H
	DB	01H
	DB	01H
	DB	01H
	DB	01H
	DB	01H
	DB	01H
	DB	01H
	DB	01H
	DB	01H
	DB	01H
	DB	01H
	DB	01H
	DB	01H
	DB	01H
	DB	01H
	DB	01H
	DB	01H
	DB	01H
	DB	01H
	DB	01H
	DB	01H
	DB	01H
	DB	01H
	DB	01H
	DB	01H
	DB	01H
	DB	01H
	DB	01H
	DB	01H
	DB	01H
	DB	01H
	DB	01H
	DB	01H
	DB	01H
	DB	01H
	DB	01H
	DB	01H
	DB	01H
	DB	01H
	DB	01H
	DB	01H
	DB	01H
	DB	01H
	DB	01H
	DB	01H
	DB	01H
	DB	01H
	DB	01H
	DB	01H
	DB	01H
	DB	01H
	DB	01H
	DB	01H
	DB	01H
	DB	01H
	DB	01H
	DB	01H
	DB	01H
	DB	01H
	DB	01H
	DB	01H
	DB	01H
	DB	01H
	DB	01H
	DB	01H
	DB	01H
	DB	01H
	DB	01H
	DB	01H
	DB	01H
	DB	01H
	DB	01H
	DB	01H
	DB	01H
	DB	01H
	DB	01H
	DB	01H
	DB	01H
	DB	01H
	DB	01H
	DB	01H
	DB	01H
	DB	01H
	DB	01H
	DB	01H
	DB	01H
	DB	01H
	DB	01H
	DB	01H
	DB	01H
	DB	01H
	DB	01H
	DB	01H
	DB	01H
	DB	01H
	DB	01H
	DB	01H
	DB	01H
	DB	01H
	DB	01H
	DB	01H
	DB	01H
	DB	01H
	DB	01H
	DB	01H
	DB	01H
	DB	01H
	DB	01H
	DB	01H
	DB	01H
	DB	01H
	DB	01H
	DB	01H
	DB	01H
	DB	01H
	DB	01H
	DB	01H
	DB	01H
	DB	01H
	DB	01H
	DB	01H
	DB	01H
	DB	01H
	DB	01H
	DB	01H
	DB	01H
	DB	01H
	DB	01H
	DB	01H
	DB	01H
	DB	01H
	DB	01H
	DB	01H
	DB	01H
	DB	01H
	DB	01H
	DB	01H
	DB	01H
	DB	01H
	DB	01H
	DB	01H
	DB	01H
	DB	01H
	DB	01H
	DB	01H
	DB	01H
	DB	01H
	DB	01H
	DB	01H
	DB	01H
	DB	01H
	DB	01H
	DB	01H
	DB	01H
	DB	01H
	DB	01H
	DB	01H
	DB	01H
	DB	01H
	DB	01H
	DB	01H
	DB	01H
	DB	01H
	DB	01H
	DB	01H
	DB	01H
	DB	01H
	DB	01H
	DB	01H
	DB	01H
	DB	01H
	DB	01H
	DB	01H
	DB	01H
	DB	01H
	DB	01H
	DB	01H
	DB	01H
	DB	01H
	DB	01H
	DB	01H
	DB	01H
	DB	01H
	DB	01H
	DB	01H
	DB	01H
	DB	01H
	DB	01H
	DB	01H
	DB	01H
	DB	01H
	DB	01H
	DB	01H
	DB	01H
	DB	01H
	DB	01H
	DB	01H
	DB	01H
	DB	01H
	DB	01H
	DB	01H
	DB	01H
	DB	01H
	DB	01H
	DB	01H
	DB	01H
	DB	01H
	DB	01H
	DB	01H
	DB	01H
	DB	01H
	DB	01H
	DB	01H
	DB	01H
	DB	01H
	DB	01H
	DB	01H
	DB	01H
	DB	01H
	DB	01H
	DB	01H
	DB	01H
	DB	01H
	DB	01H
	DB	01H
	DB	01H
	DB	01H
	DB	01H
	DB	01H
	DB	01H
	DB	01H
	DB	01H
	DB	01H
	DB	01H
	DB	01H
	DB	01H
	DB	01H
	DB	01H
	DB	01H
	DB	01H
	DB	01H
	DB	01H
	DB	01H
	DB	01H
	DB	01H
	DB	01H
	DB	01H
	DB	01H
	DB	01H
	DB	01H
	DB	01H
	DB	01H
	DB	01H
	DB	01H
	DB	01H
	DB	01H
	DB	01H
	DB	01H
	DB	01H
	DB	01H
	DB	01H
	DB	01H
	DB	06H
	DB	06H
	DB	06H
	DB	06H
	DB	06H
	DB	06H
	DB	06H
	DB	06H
	DB	06H
	DB	06H
	DB	06H
	DB	06H
	DB	06H
	DB	06H
	DB	06H
	DB	06H
	DB	06H
	DB	06H
	DB	06H
	DB	06H
	DB	06H
	DB	06H
	DB	06H
	DB	06H
	DB	06H
	DB	06H
	DB	06H
	DB	06H
	DB	06H
	DB	06H
	DB	06H
	DB	06H
	DB	06H
	DB	06H
	DB	06H
	DB	06H
	DB	06H
	DB	06H
	DB	06H
	DB	06H
	DB	06H
	DB	06H
	DB	06H
	DB	06H
	DB	06H
	DB	06H
	DB	06H
	DB	06H
	DB	06H
	DB	06H
	DB	06H
	DB	06H
	DB	06H
	DB	06H
	DB	06H
	DB	06H
	DB	06H
	DB	06H
	DB	06H
	DB	06H
	DB	06H
	DB	06H
	DB	06H
	DB	06H
	DB	06H
	DB	06H
	DB	06H
	DB	06H
	DB	06H
	DB	06H
	DB	06H
	DB	06H
	DB	06H
	DB	06H
	DB	06H
	DB	06H
	DB	06H
	DB	06H
	DB	06H
	DB	06H
	DB	06H
	DB	06H
	DB	06H
	DB	06H
	DB	06H
	DB	06H
	DB	06H
	DB	06H
	DB	06H
	DB	06H
	DB	06H
	DB	06H
	DB	06H
	DB	06H
	DB	06H
	DB	06H
	DB	06H
	DB	06H
	DB	06H
	DB	06H
	DB	06H
	DB	06H
	DB	06H
	DB	06H
	DB	06H
	DB	06H
	DB	06H
	DB	06H
	DB	06H
	DB	06H
	DB	06H
	DB	06H
	DB	06H
	DB	06H
	DB	06H
	DB	06H
	DB	06H
	DB	06H
	DB	06H
	DB	06H
	DB	06H
	DB	06H
	DB	06H
	DB	06H
	DB	06H
	DB	06H
	DB	06H
	DB	06H
	DB	06H
	DB	06H
	DB	06H
	DB	06H
	DB	06H
	DB	06H
	DB	06H
	DB	06H
	DB	06H
	DB	06H
	DB	06H
	DB	06H
	DB	06H
	DB	06H
	DB	06H
	DB	06H
	DB	06H
	DB	06H
	DB	06H
	DB	06H
	DB	06H
	DB	06H
	DB	06H
	DB	06H
	DB	06H
	DB	06H
	DB	06H
	DB	06H
	DB	06H
	DB	06H
	DB	06H
	DB	06H
	DB	06H
	DB	06H
	DB	06H
	DB	06H
	DB	06H
	DB	06H
	DB	06H
	DB	06H
	DB	06H
	DB	06H
	DB	06H
	DB	06H
	DB	06H
	DB	06H
	DB	06H
	DB	06H
	DB	06H
	DB	06H
	DB	06H
	DB	06H
	DB	06H
	DB	06H
	DB	06H
	DB	06H
	DB	06H
	DB	06H
	DB	06H
	DB	06H
	DB	06H
	DB	06H
	DB	06H
	DB	06H
	DB	06H
	DB	06H
	DB	06H
	DB	06H
	DB	06H
	DB	06H
	DB	06H
	DB	06H
	DB	06H
	DB	06H
	DB	06H
	DB	06H
	DB	06H
	DB	06H
	DB	06H
	DB	06H
	DB	06H
	DB	06H
	DB	06H
	DB	06H
	DB	06H
	DB	06H
	DB	06H
	DB	06H
	DB	06H
	DB	06H
	DB	06H
	DB	06H
	DB	06H
	DB	06H
	DB	06H
	DB	06H
	DB	06H
	DB	06H
	DB	06H
	DB	06H
	DB	06H
	DB	06H
	DB	06H
	DB	06H
	DB	06H
	DB	06H
	DB	06H
	DB	06H
	DB	06H
	DB	06H
	DB	06H
	DB	06H
	DB	06H
	DB	06H
	DB	06H
	DB	06H
	DB	06H
	DB	06H
	DB	06H
	DB	06H
	DB	06H
	DB	06H
	DB	06H
	DB	06H
	DB	06H
	DB	06H
	DB	06H
	DB	06H
	DB	06H
	DB	06H
	DB	06H
	DB	06H
	DB	06H
	DB	06H
	DB	06H
	DB	06H
	DB	06H
	DB	06H
	DB	06H
	DB	06H
	DB	06H
	DB	06H
	DB	06H
	DB	06H
	DB	06H
	DB	06H
	DB	06H
	DB	06H
	DB	06H
	DB	06H
	DB	06H
	DB	06H
	DB	06H
	DB	06H
	DB	06H
	DB	06H
	DB	06H
	DB	06H
	DB	06H
	DB	06H
	DB	06H
	DB	06H
	DB	06H
	DB	06H
	DB	06H
	DB	06H
	DB	06H
	DB	06H
	DB	06H
	DB	06H
	DB	06H
	DB	06H
	DB	06H
	DB	06H
	DB	06H
	DB	06H
	DB	06H
	DB	06H
	DB	06H
	DB	06H
	DB	06H
	DB	06H
	DB	06H
	DB	06H
	DB	06H
	DB	06H
	DB	06H
	DB	06H
	DB	06H
	DB	06H
	DB	06H
	DB	06H
	DB	06H
	DB	06H
	DB	06H
	DB	06H
	DB	06H
	DB	06H
	DB	06H
	DB	06H
	DB	06H
	DB	06H
	DB	06H
	DB	06H
	DB	06H
	DB	06H
	DB	06H
	DB	06H
	DB	06H
	DB	06H
	DB	06H
	DB	06H
	DB	06H
	DB	06H
	DB	06H
	DB	06H
	DB	06H
	DB	03H
	DB	03H
	DB	03H
	DB	03H
	DB	03H
	DB	03H
	DB	03H
	DB	03H
	DB	03H
	DB	03H
	DB	03H
	DB	03H
	DB	03H
	DB	03H
	DB	03H
	DB	03H
	DB	03H
	DB	03H
	DB	03H
	DB	03H
	DB	03H
	DB	03H
	DB	03H
	DB	03H
	DB	03H
	DB	03H
	DB	03H
	DB	03H
	DB	03H
	DB	03H
	DB	03H
	DB	03H
	DB	03H
	DB	03H
	DB	03H
	DB	03H
	DB	03H
	DB	03H
	DB	03H
	DB	03H
	DB	03H
	DB	03H
	DB	03H
	DB	03H
	DB	03H
	DB	03H
	DB	03H
	DB	03H
	DB	03H
	DB	03H
	DB	03H
	DB	03H
	DB	03H
	DB	03H
	DB	03H
	DB	03H
	DB	03H
	DB	03H
	DB	03H
	DB	03H
	DB	03H
	DB	03H
	DB	03H
	DB	03H
	DB	03H
	DB	03H
	DB	03H
	DB	03H
	DB	03H
	DB	03H
	DB	03H
	DB	03H
	DB	03H
	DB	03H
	DB	03H
	DB	03H
	DB	03H
	DB	03H
	DB	03H
	DB	03H
	DB	03H
	DB	03H
	DB	03H
	DB	03H
	DB	03H
	DB	03H
	DB	03H
	DB	03H
	DB	03H
	DB	03H
	DB	03H
	DB	03H
	DB	03H
	DB	03H
	DB	03H
	DB	03H
	DB	03H
	DB	03H
	DB	03H
	DB	03H
	DB	03H
	DB	03H
	DB	03H
	DB	03H
	DB	03H
	DB	03H
	DB	03H
	DB	03H
	DB	03H
	DB	03H
	DB	03H
	DB	03H
	DB	03H
	DB	03H
	DB	03H
	DB	03H
	DB	03H
	DB	03H
	DB	03H
	DB	03H
	DB	03H
	DB	03H
	DB	03H
	DB	03H
	DB	03H
	DB	03H
	DB	03H
	DB	03H
	DB	03H
	DB	03H
	DB	03H
	DB	03H
	DB	03H
	DB	03H
	DB	03H
	DB	03H
	DB	03H
	DB	03H
	DB	03H
	DB	03H
	DB	03H
	DB	03H
	DB	03H
	DB	03H
	DB	03H
	DB	03H
	DB	03H
	DB	03H
	DB	03H
	DB	03H
	DB	03H
	DB	03H
	DB	03H
	DB	03H
	DB	03H
	DB	03H
	DB	03H
	DB	03H
	DB	03H
	DB	03H
	DB	03H
	DB	03H
	DB	03H
	DB	03H
	DB	03H
	DB	03H
	DB	03H
	DB	03H
	DB	03H
	DB	03H
	DB	03H
	DB	03H
	DB	03H
	DB	03H
	DB	03H
	DB	03H
	DB	03H
	DB	03H
	DB	03H
	DB	03H
	DB	03H
	DB	03H
	DB	03H
	DB	03H
	DB	03H
	DB	03H
	DB	03H
	DB	03H
	DB	03H
	DB	03H
	DB	03H
	DB	03H
	DB	03H
	DB	03H
	DB	03H
	DB	03H
	DB	03H
	DB	03H
	DB	03H
	DB	03H
	DB	03H
	DB	03H
	DB	03H
	DB	03H
	DB	03H
	DB	03H
	DB	03H
	DB	03H
	DB	03H
	DB	03H
	DB	03H
	DB	03H
	DB	03H
	DB	03H
	DB	03H
	DB	03H
	DB	03H
	DB	03H
	DB	03H
	DB	03H
	DB	03H
	DB	03H
	DB	03H
	DB	03H
	DB	03H
	DB	03H
	DB	03H
	DB	03H
	DB	03H
	DB	03H
	DB	03H
	DB	03H
	DB	03H
	DB	03H
	DB	03H
	DB	03H
	DB	03H
	DB	03H
	DB	03H
	DB	03H
	DB	03H
	DB	03H
	DB	03H
	DB	03H
	DB	03H
	DB	03H
	DB	03H
	DB	03H
	DB	03H
	DB	03H
	DB	03H
	DB	03H
	DB	03H
	DB	03H
	DB	03H
	DB	03H
	DB	03H
	DB	03H
	DB	03H
	DB	03H
	DB	03H
	DB	03H
	DB	03H
	DB	03H
	DB	03H
	DB	03H
	DB	03H
	DB	03H
	DB	03H
	DB	03H
	DB	03H
	DB	03H
	DB	03H
	DB	03H
	DB	03H
	DB	03H
	DB	03H
	DB	03H
	DB	03H
	DB	03H
	DB	03H
	DB	03H
	DB	03H
	DB	03H
	DB	03H
	DB	03H
	DB	03H
	DB	03H
	DB	03H
	DB	03H
	DB	03H
	DB	03H
	DB	03H
	DB	03H
	DB	03H
	DB	03H
	DB	03H
	DB	03H
	DB	03H
	DB	03H
	DB	03H
	DB	03H
	DB	03H
	DB	03H
	DB	03H
	DB	03H
	DB	03H
	DB	03H
	DB	03H
	DB	03H
	DB	03H
	DB	03H
	DB	03H
	DB	03H
	DB	03H
	DB	03H
	DB	03H
	DB	03H
	DB	03H
	DB	03H
	DB	03H
	DB	03H
	DB	03H
	DB	03H
	DB	03H
	DB	03H
	DB	03H
	DB	03H
	DB	03H
	DB	03H
	DB	03H
	DB	03H
	DB	03H
	DB	03H
	DB	03H
	DB	03H
	DB	03H
	DB	03H
	DB	03H
	DB	03H
	DB	03H
	DB	03H
	DB	03H
	DB	03H
	DB	03H
	DB	05H
	DB	05H
	DB	05H
	DB	05H
	DB	05H
	DB	05H
	DB	05H
	DB	05H
	DB	05H
	DB	05H
	DB	05H
	DB	05H
	DB	05H
	DB	05H
	DB	05H
	DB	05H
	DB	05H
	DB	05H
	DB	05H
	DB	05H
	DB	05H
	DB	05H
	DB	05H
	DB	05H
	DB	05H
	DB	05H
	DB	05H
	DB	05H
	DB	05H
	DB	05H
	DB	05H
	DB	05H
	DB	05H
	DB	05H
	DB	05H
	DB	05H
	DB	05H
	DB	05H
	DB	05H
	DB	05H
	DB	05H
	DB	05H
	DB	05H
	DB	05H
	DB	05H
	DB	05H
	DB	05H
	DB	05H
	DB	05H
	DB	05H
	DB	05H
	DB	05H
	DB	05H
	DB	05H
	DB	05H
	DB	05H
	DB	05H
	DB	05H
	DB	05H
	DB	05H
	DB	05H
	DB	05H
	DB	05H
	DB	05H
	DB	05H
	DB	05H
	DB	05H
	DB	05H
	DB	05H
	DB	05H
	DB	05H
	DB	05H
	DB	05H
	DB	05H
	DB	05H
	DB	05H
	DB	05H
	DB	05H
	DB	05H
	DB	05H
	DB	05H
	DB	05H
	DB	05H
	DB	05H
	DB	05H
	DB	05H
	DB	05H
	DB	05H
	DB	05H
	DB	05H
	DB	05H
	DB	029H
	DB	050H
	DB	0a2H
	DB	0a2H
	DB	0a2H
	DB	0a2H
	DB	0a2H
	DB	0a2H
	DB	0a2H
	DB	0a2H
	DB	0a2H
	DB	0a2H
	DB	0a2H
	DB	0a2H
	DB	0a2H
	DB	0a2H
	DB	0a2H
	DB	050H
	DB	05H
	DB	05H
	DB	05H
	DB	05H
	DB	05H
	DB	029H
	DB	050H
	DB	0a2H
	DB	0a2H
	DB	0a2H
	DB	0a2H
	DB	0a2H
	DB	0a2H
	DB	0a2H
	DB	0a2H
	DB	0a2H
	DB	0a2H
	DB	026H
	DB	050H
	DB	029H
	DB	05H
	DB	05H
	DB	05H
	DB	05H
	DB	05H
	DB	05H
	DB	05H
	DB	05H
	DB	05H
	DB	05H
	DB	05H
	DB	05H
	DB	05H
	DB	050H
	DB	0a2H
	DB	0a2H
	DB	0a2H
	DB	0a2H
	DB	0a2H
	DB	0a2H
	DB	0a2H
	DB	0a2H
	DB	0a2H
	DB	0a2H
	DB	0a2H
	DB	0a2H
	DB	0a2H
	DB	0a2H
	DB	0a2H
	DB	0a2H
	DB	026H
	DB	059H
	DB	029H
	DB	05H
	DB	05H
	DB	05H
	DB	05H
	DB	050H
	DB	026H
	DB	0a2H
	DB	0a2H
	DB	0a2H
	DB	0a2H
	DB	0a2H
	DB	0a2H
	DB	0a2H
	DB	0a2H
	DB	0a2H
	DB	0a2H
	DB	0a2H
	DB	0a2H
	DB	0a2H
	DB	0a2H
	DB	026H
	DB	029H
	DB	05H
	DB	05H
	DB	05H
	DB	05H
	DB	05H
	DB	05H
	DB	05H
	DB	05H
	DB	029H
	DB	050H
	DB	026H
	DB	0a2H
	DB	0a2H
	DB	0a2H
	DB	0a2H
	DB	0a2H
	DB	0a2H
	DB	0a2H
	DB	0a2H
	DB	0a2H
	DB	0a2H
	DB	0a2H
	DB	026H
	DB	029H
	DB	05H
	DB	026H
	DB	0a2H
	DB	0a2H
	DB	0a2H
	DB	0a2H
	DB	0a2H
	DB	029H
	DB	026H
	DB	0a2H
	DB	0a2H
	DB	0a2H
	DB	0a2H
	DB	0a2H
	DB	0a2H
	DB	0a2H
	DB	0a2H
	DB	0a2H
	DB	0a2H
	DB	0a2H
	DB	0a2H
	DB	0a2H
	DB	0a2H
	DB	0a2H
	DB	0a2H
	DB	050H
	DB	029H
	DB	05H
	DB	05H
	DB	05H
	DB	05H
	DB	05H
	DB	05H
	DB	05H
	DB	05H
	DB	029H
	DB	050H
	DB	0a2H
	DB	0a2H
	DB	0a2H
	DB	0a2H
	DB	0a2H
	DB	0a2H
	DB	0a2H
	DB	0a2H
	DB	0a2H
	DB	0a2H
	DB	0a2H
	DB	0a2H
	DB	0a2H
	DB	0a2H
	DB	0a2H
	DB	050H
	DB	05H
	DB	05H
	DB	05H
	DB	05H
	DB	05H
	DB	05H
	DB	05H
	DB	05H
	DB	05H
	DB	05H
	DB	05H
	DB	05H
	DB	05H
	DB	05H
	DB	05H
	DB	05H
	DB	05H
	DB	05H
	DB	05H
	DB	05H
	DB	05H
	DB	05H
	DB	05H
	DB	05H
	DB	05H
	DB	05H
	DB	05H
	DB	05H
	DB	05H
	DB	05H
	DB	05H
	DB	05H
	DB	05H
	DB	05H
	DB	05H
	DB	05H
	DB	05H
	DB	05H
	DB	05H
	DB	05H
	DB	05H
	DB	05H
	DB	05H
	DB	05H
	DB	05H
	DB	05H
	DB	05H
	DB	05H
	DB	05H
	DB	05H
	DB	05H
	DB	05H
	DB	05H
	DB	05H
	DB	05H
	DB	05H
	DB	05H
	DB	05H
	DB	05H
	DB	05H
	DB	05H
	DB	05H
	DB	05H
	DB	05H
	DB	05H
	DB	05H
	DB	05H
	DB	05H
	DB	05H
	DB	05H
	DB	05H
	DB	05H
	DB	05H
	DB	05H
	DB	05H
	DB	05H
	DB	05H
	DB	05H
	DB	05H
	DB	05H
	DB	05H
	DB	05H
	DB	05H
	DB	05H
	DB	05H
	DB	05H
	DB	05H
	DB	05H
	DB	05H
	DB	05H
	DB	05H
	DB	05H
	DB	05H
	DB	05H
	DB	05H
	DB	05H
	DB	05H
	DB	05H
	DB	05H
	DB	05H
	DB	05H
	DB	05H
	DB	05H
	DB	05H
	DB	05H
	DB	05H
	DB	05H
	DB	05H
	DB	05H
	DB	05H
	DB	05H
	DB	05H
	DB	05H
	DB	05H
	DB	05H
	DB	05H
	DB	05H
	DB	05H
	DB	05H
	DB	05H
	DB	05H
	DB	05H
	DB	05H
	DB	05H
	DB	05H
	DB	05H
	DB	05H
	DB	05H
	DB	05H
	DB	05H
	DB	05H
	DB	05H
	DB	05H
	DB	05H
	DB	05H
	DB	05H
	DB	05H
	DB	05H
	DB	05H
	DB	05H
	DB	05H
	DB	05H
	DB	05H
	DB	05H
	DB	05H
	DB	05H
	DB	05H
	DB	05H
	DB	05H
	DB	05H
	DB	05H
	DB	05H
	DB	05H
	DB	05H
	DB	05H
	DB	05H
	DB	05H
	DB	05H
	DB	05H
	DB	05H
	DB	05H
	DB	05H
	DB	05H
	DB	05H
	DB	05H
	DB	05H
	DB	05H
	DB	05H
	DB	05H
	DB	05H
	DB	05H
	DB	05H
	DB	029H
	DB	029H
	DB	011H
	DB	09eH
	DB	0d0H
	DB	084H
	DB	012H
	DB	012H
	DB	012H
	DB	012H
	DB	012H
	DB	012H
	DB	012H
	DB	012H
	DB	012H
	DB	012H
	DB	012H
	DB	012H
	DB	012H
	DB	012H
	DB	0d8H
	DB	05H
	DB	05H
	DB	029H
	DB	059H
	DB	044H
	DB	063H
	DB	09aH
	DB	012H
	DB	012H
	DB	012H
	DB	012H
	DB	012H
	DB	012H
	DB	012H
	DB	012H
	DB	012H
	DB	012H
	DB	084H
	DB	0cH
	DB	09fH
	DB	026H
	DB	029H
	DB	05H
	DB	05H
	DB	05H
	DB	05H
	DB	05H
	DB	05H
	DB	05H
	DB	05H
	DB	05H
	DB	05H
	DB	050H
	DB	0dbH
	DB	012H
	DB	012H
	DB	012H
	DB	012H
	DB	012H
	DB	012H
	DB	012H
	DB	012H
	DB	012H
	DB	012H
	DB	012H
	DB	012H
	DB	012H
	DB	012H
	DB	012H
	DB	012H
	DB	0d3H
	DB	04dH
	DB	0a0H
	DB	059H
	DB	029H
	DB	05H
	DB	029H
	DB	0deH
	DB	0ceH
	DB	012H
	DB	012H
	DB	012H
	DB	012H
	DB	012H
	DB	012H
	DB	012H
	DB	012H
	DB	012H
	DB	012H
	DB	012H
	DB	012H
	DB	012H
	DB	012H
	DB	0d2H
	DB	09cH
	DB	044H
	DB	059H
	DB	05H
	DB	05H
	DB	05H
	DB	029H
	DB	029H
	DB	0aaH
	DB	085H
	DB	0cH
	DB	084H
	DB	012H
	DB	012H
	DB	012H
	DB	012H
	DB	012H
	DB	012H
	DB	012H
	DB	012H
	DB	012H
	DB	012H
	DB	012H
	DB	0d7H
	DB	03H
	DB	05H
	DB	0d5H
	DB	012H
	DB	012H
	DB	012H
	DB	012H
	DB	0e8H
	DB	0d6H
	DB	0d4H
	DB	012H
	DB	012H
	DB	012H
	DB	012H
	DB	012H
	DB	012H
	DB	012H
	DB	012H
	DB	012H
	DB	012H
	DB	012H
	DB	012H
	DB	012H
	DB	012H
	DB	012H
	DB	012H
	DB	099H
	DB	085H
	DB	0aaH
	DB	029H
	DB	05H
	DB	05H
	DB	05H
	DB	029H
	DB	059H
	DB	044H
	DB	063H
	DB	09aH
	DB	012H
	DB	012H
	DB	012H
	DB	012H
	DB	012H
	DB	012H
	DB	012H
	DB	012H
	DB	012H
	DB	012H
	DB	012H
	DB	012H
	DB	012H
	DB	012H
	DB	012H
	DB	0dcH
	DB	050H
	DB	05H
	DB	05H
	DB	05H
	DB	05H
	DB	05H
	DB	05H
	DB	05H
	DB	05H
	DB	05H
	DB	05H
	DB	05H
	DB	05H
	DB	05H
	DB	05H
	DB	05H
	DB	05H
	DB	05H
	DB	05H
	DB	05H
	DB	05H
	DB	05H
	DB	05H
	DB	05H
	DB	05H
	DB	05H
	DB	05H
	DB	05H
	DB	05H
	DB	05H
	DB	05H
	DB	05H
	DB	05H
	DB	05H
	DB	05H
	DB	05H
	DB	05H
	DB	05H
	DB	05H
	DB	05H
	DB	05H
	DB	05H
	DB	05H
	DB	05H
	DB	05H
	DB	05H
	DB	05H
	DB	05H
	DB	05H
	DB	05H
	DB	05H
	DB	05H
	DB	05H
	DB	05H
	DB	05H
	DB	05H
	DB	05H
	DB	05H
	DB	05H
	DB	05H
	DB	05H
	DB	05H
	DB	05H
	DB	05H
	DB	05H
	DB	05H
	DB	05H
	DB	05H
	DB	05H
	DB	05H
	DB	05H
	DB	05H
	DB	05H
	DB	05H
	DB	05H
	DB	05H
	DB	05H
	DB	05H
	DB	05H
	DB	05H
	DB	05H
	DB	05H
	DB	05H
	DB	05H
	DB	05H
	DB	05H
	DB	05H
	DB	05H
	DB	05H
	DB	05H
	DB	05H
	DB	05H
	DB	05H
	DB	05H
	DB	05H
	DB	05H
	DB	05H
	DB	05H
	DB	05H
	DB	05H
	DB	05H
	DB	05H
	DB	05H
	DB	05H
	DB	05H
	DB	05H
	DB	05H
	DB	05H
	DB	05H
	DB	05H
	DB	05H
	DB	05H
	DB	05H
	DB	05H
	DB	05H
	DB	05H
	DB	05H
	DB	05H
	DB	05H
	DB	05H
	DB	05H
	DB	05H
	DB	05H
	DB	05H
	DB	05H
	DB	05H
	DB	05H
	DB	05H
	DB	05H
	DB	05H
	DB	05H
	DB	05H
	DB	05H
	DB	05H
	DB	05H
	DB	05H
	DB	05H
	DB	05H
	DB	05H
	DB	05H
	DB	05H
	DB	05H
	DB	05H
	DB	05H
	DB	05H
	DB	05H
	DB	05H
	DB	05H
	DB	05H
	DB	05H
	DB	05H
	DB	05H
	DB	05H
	DB	05H
	DB	05H
	DB	05H
	DB	05H
	DB	05H
	DB	05H
	DB	05H
	DB	05H
	DB	05H
	DB	05H
	DB	05H
	DB	05H
	DB	05H
	DB	05H
	DB	05H
	DB	05H
	DB	05H
	DB	05H
	DB	029H
	DB	0a2H
	DB	09cH
	DB	0a6H
	DB	05aH
	DB	0aeH
	DB	013H
	DB	035H
	DB	013H
	DB	013H
	DB	013H
	DB	013H
	DB	013H
	DB	013H
	DB	013H
	DB	013H
	DB	013H
	DB	013H
	DB	013H
	DB	013H
	DB	0ffH
	DB	0eeH
	DB	065H
	DB	029H
	DB	044H
	DB	0cH
	DB	08aH
	DB	025H
	DB	070H
	DB	013H
	DB	013H
	DB	013H
	DB	013H
	DB	013H
	DB	013H
	DB	013H
	DB	013H
	DB	013H
	DB	035H
	DB	034H
	DB	0aeH
	DB	0abH
	DB	0ccH
	DB	0a0H
	DB	05H
	DB	05H
	DB	05H
	DB	05H
	DB	05H
	DB	05H
	DB	05H
	DB	05H
	DB	05H
	DB	029H
	DB	0daH
	DB	0f0H
	DB	0b1H
	DB	035H
	DB	013H
	DB	013H
	DB	013H
	DB	013H
	DB	013H
	DB	013H
	DB	013H
	DB	013H
	DB	013H
	DB	013H
	DB	013H
	DB	013H
	DB	013H
	DB	035H
	DB	047H
	DB	0f9H
	DB	0f1H
	DB	01H
	DB	011H
	DB	029H
	DB	0e0H
	DB	0a6H
	DB	0fdH
	DB	072H
	DB	013H
	DB	013H
	DB	013H
	DB	013H
	DB	013H
	DB	013H
	DB	013H
	DB	013H
	DB	013H
	DB	013H
	DB	013H
	DB	013H
	DB	035H
	DB	0fcH
	DB	06eH
	DB	0a8H
	DB	062H
	DB	05H
	DB	05H
	DB	029H
	DB	026H
	DB	09dH
	DB	0e7H
	DB	0f4H
	DB	0aeH
	DB	034H
	DB	035H
	DB	013H
	DB	013H
	DB	013H
	DB	013H
	DB	013H
	DB	013H
	DB	013H
	DB	013H
	DB	013H
	DB	0ffH
	DB	0f5H
	DB	09bH
	DB	063H
	DB	0f6H
	DB	073H
	DB	013H
	DB	013H
	DB	072H
	DB	016H
	DB	0bcH
	DB	0f8H
	DB	073H
	DB	013H
	DB	013H
	DB	013H
	DB	013H
	DB	013H
	DB	013H
	DB	013H
	DB	013H
	DB	013H
	DB	013H
	DB	013H
	DB	013H
	DB	013H
	DB	013H
	DB	013H
	DB	070H
	DB	08fH
	DB	058H
	DB	065H
	DB	05H
	DB	05H
	DB	029H
	DB	044H
	DB	0cH
	DB	08aH
	DB	025H
	DB	070H
	DB	013H
	DB	013H
	DB	013H
	DB	013H
	DB	013H
	DB	013H
	DB	013H
	DB	013H
	DB	013H
	DB	013H
	DB	013H
	DB	013H
	DB	013H
	DB	013H
	DB	035H
	DB	0e6H
	DB	044H
	DB	0ecH
	DB	0ecH
	DB	05H
	DB	05H
	DB	05H
	DB	05H
	DB	05H
	DB	05H
	DB	05H
	DB	05H
	DB	05H
	DB	05H
	DB	05H
	DB	05H
	DB	05H
	DB	05H
	DB	05H
	DB	05H
	DB	05H
	DB	05H
	DB	05H
	DB	05H
	DB	05H
	DB	05H
	DB	05H
	DB	05H
	DB	05H
	DB	05H
	DB	05H
	DB	05H
	DB	05H
	DB	05H
	DB	05H
	DB	05H
	DB	05H
	DB	05H
	DB	05H
	DB	05H
	DB	05H
	DB	05H
	DB	05H
	DB	05H
	DB	05H
	DB	05H
	DB	05H
	DB	05H
	DB	05H
	DB	05H
	DB	05H
	DB	05H
	DB	05H
	DB	05H
	DB	05H
	DB	05H
	DB	05H
	DB	05H
	DB	05H
	DB	05H
	DB	05H
	DB	05H
	DB	05H
	DB	05H
	DB	05H
	DB	05H
	DB	05H
	DB	05H
	DB	05H
	DB	05H
	DB	05H
	DB	05H
	DB	05H
	DB	05H
	DB	05H
	DB	05H
	DB	05H
	DB	05H
	DB	05H
	DB	05H
	DB	05H
	DB	05H
	DB	05H
	DB	05H
	DB	05H
	DB	0ecH
	DB	0ecH
	DB	0ecH
	DB	0ecH
	DB	0ecH
	DB	0ecH
	DB	0ecH
	DB	0ecH
	DB	0ecH
	DB	0ecH
	DB	0ecH
	DB	0ecH
	DB	0ecH
	DB	0ecH
	DB	0ecH
	DB	0ecH
	DB	0ecH
	DB	0ecH
	DB	0ecH
	DB	0ecH
	DB	0ecH
	DB	0ecH
	DB	0ecH
	DB	0ecH
	DB	0ecH
	DB	0ecH
	DB	0ecH
	DB	0ecH
	DB	0ecH
	DB	0ecH
	DB	0ecH
	DB	0ecH
	DB	0ecH
	DB	0ecH
	DB	0ecH
	DB	0ecH
	DB	0ecH
	DB	0ecH
	DB	0ecH
	DB	0ecH
	DB	0ecH
	DB	0ecH
	DB	0ecH
	DB	0ecH
	DB	0ecH
	DB	0ecH
	DB	0ecH
	DB	0ecH
	DB	0ecH
	DB	0ecH
	DB	0ecH
	DB	0ecH
	DB	0ecH
	DB	0ecH
	DB	0ecH
	DB	0ecH
	DB	0ecH
	DB	0ecH
	DB	0ecH
	DB	0ecH
	DB	0ecH
	DB	0ecH
	DB	0ecH
	DB	0ecH
	DB	0ecH
	DB	0ecH
	DB	0ecH
	DB	0ecH
	DB	0ecH
	DB	0ecH
	DB	0ecH
	DB	0ecH
	DB	0ecH
	DB	0ecH
	DB	0ecH
	DB	0ecH
	DB	0ecH
	DB	0ecH
	DB	0ecH
	DB	0ecH
	DB	0ecH
	DB	0ecH
	DB	0ecH
	DB	0ecH
	DB	0ecH
	DB	0ecH
	DB	05H
	DB	0a1H
	DB	0caH
	DB	0adH
	DB	019H
	DB	08H
	DB	08H
	DB	093H
	DB	02eH
	DB	02eH
	DB	02eH
	DB	02eH
	DB	02eH
	DB	02eH
	DB	02eH
	DB	02eH
	DB	02eH
	DB	02eH
	DB	02eH
	DB	02eH
	DB	08H
	DB	08H
	DB	0a5H
	DB	0d9H
	DB	085H
	DB	082H
	DB	06fH
	DB	0b3H
	DB	08H
	DB	08H
	DB	02eH
	DB	02eH
	DB	02eH
	DB	02eH
	DB	02eH
	DB	02eH
	DB	02eH
	DB	02eH
	DB	02eH
	DB	02eH
	DB	02eH
	DB	08H
	DB	08H
	DB	03eH
	DB	0e7H
	DB	0ddH
	DB	0ecH
	DB	0ecH
	DB	0ecH
	DB	0ecH
	DB	0ecH
	DB	0ecH
	DB	0ecH
	DB	0ecH
	DB	05H
	DB	064H
	DB	0acH
	DB	01dH
	DB	02eH
	DB	02eH
	DB	02eH
	DB	02eH
	DB	02eH
	DB	02eH
	DB	02eH
	DB	02eH
	DB	02eH
	DB	02eH
	DB	02eH
	DB	02eH
	DB	02eH
	DB	02eH
	DB	02eH
	DB	08H
	DB	08H
	DB	08H
	DB	025H
	DB	07dH
	DB	0e2H
	DB	09fH
	DB	0a9H
	DB	01dH
	DB	093H
	DB	02eH
	DB	02eH
	DB	02eH
	DB	02eH
	DB	02eH
	DB	02eH
	DB	02eH
	DB	02eH
	DB	02eH
	DB	02eH
	DB	02eH
	DB	02eH
	DB	02eH
	DB	08H
	DB	08H
	DB	0b3H
	DB	03cH
	DB	081H
	DB	05H
	DB	086H
	DB	0beH
	DB	030H
	DB	01eH
	DB	08H
	DB	08H
	DB	02eH
	DB	02eH
	DB	02eH
	DB	02eH
	DB	02eH
	DB	02eH
	DB	02eH
	DB	02eH
	DB	02eH
	DB	02eH
	DB	02eH
	DB	08H
	DB	0abH
	DB	09bH
	DB	0bfH
	DB	0afH
	DB	08H
	DB	02eH
	DB	02eH
	DB	01dH
	DB	05cH
	DB	07fH
	DB	017H
	DB	08H
	DB	02eH
	DB	02eH
	DB	02eH
	DB	02eH
	DB	02eH
	DB	02eH
	DB	02eH
	DB	02eH
	DB	02eH
	DB	02eH
	DB	02eH
	DB	02eH
	DB	02eH
	DB	02eH
	DB	02eH
	DB	08H
	DB	08H
	DB	0b1H
	DB	0ebH
	DB	085H
	DB	05H
	DB	0d9H
	DB	082H
	DB	06fH
	DB	0b3H
	DB	08H
	DB	08H
	DB	02eH
	DB	02eH
	DB	02eH
	DB	02eH
	DB	02eH
	DB	02eH
	DB	02eH
	DB	02eH
	DB	02eH
	DB	02eH
	DB	02eH
	DB	02eH
	DB	02eH
	DB	08H
	DB	0ffH
	DB	07eH
	DB	086H
	DB	03H
	DB	09H
	DB	0ecH
	DB	0ecH
	DB	0ecH
	DB	0ecH
	DB	0ecH
	DB	0ecH
	DB	0ecH
	DB	0ecH
	DB	0ecH
	DB	0ecH
	DB	0ecH
	DB	0ecH
	DB	0ecH
	DB	0ecH
	DB	0ecH
	DB	0ecH
	DB	0ecH
	DB	0ecH
	DB	0ecH
	DB	0ecH
	DB	0ecH
	DB	0ecH
	DB	0ecH
	DB	0ecH
	DB	0ecH
	DB	0ecH
	DB	0ecH
	DB	0ecH
	DB	0ecH
	DB	0ecH
	DB	0ecH
	DB	0ecH
	DB	0ecH
	DB	0ecH
	DB	0ecH
	DB	0ecH
	DB	0ecH
	DB	0ecH
	DB	0ecH
	DB	0ecH
	DB	0ecH
	DB	0ecH
	DB	0ecH
	DB	0ecH
	DB	0ecH
	DB	0ecH
	DB	0ecH
	DB	0ecH
	DB	0ecH
	DB	0ecH
	DB	0ecH
	DB	0ecH
	DB	0ecH
	DB	0ecH
	DB	0ecH
	DB	0ecH
	DB	0ecH
	DB	0ecH
	DB	0ecH
	DB	0ecH
	DB	0ecH
	DB	0ecH
	DB	0ecH
	DB	0ecH
	DB	0ecH
	DB	0ecH
	DB	0ecH
	DB	0ecH
	DB	0ecH
	DB	0ecH
	DB	0ecH
	DB	0ecH
	DB	0ecH
	DB	0ecH
	DB	0ecH
	DB	0ecH
	DB	0ecH
	DB	0ecH
	DB	0ecH
	DB	0ecH
	DB	0ecH
	DB	09H
	DB	09H
	DB	09H
	DB	09H
	DB	09H
	DB	09H
	DB	09H
	DB	09H
	DB	09H
	DB	09H
	DB	09H
	DB	09H
	DB	09H
	DB	09H
	DB	09H
	DB	09H
	DB	09H
	DB	09H
	DB	09H
	DB	09H
	DB	09H
	DB	09H
	DB	09H
	DB	09H
	DB	09H
	DB	09H
	DB	09H
	DB	09H
	DB	09H
	DB	09H
	DB	09H
	DB	09H
	DB	09H
	DB	09H
	DB	09H
	DB	09H
	DB	09H
	DB	09H
	DB	09H
	DB	09H
	DB	09H
	DB	09H
	DB	09H
	DB	09H
	DB	09H
	DB	09H
	DB	09H
	DB	09H
	DB	09H
	DB	09H
	DB	09H
	DB	09H
	DB	09H
	DB	09H
	DB	09H
	DB	09H
	DB	09H
	DB	09H
	DB	09H
	DB	09H
	DB	09H
	DB	09H
	DB	09H
	DB	09H
	DB	09H
	DB	09H
	DB	09H
	DB	09H
	DB	09H
	DB	09H
	DB	09H
	DB	09H
	DB	09H
	DB	09H
	DB	09H
	DB	09H
	DB	09H
	DB	09H
	DB	09H
	DB	09H
	DB	09H
	DB	09H
	DB	09H
	DB	09H
	DB	09H
	DB	0ecH
	DB	0a1H
	DB	058H
	DB	033H
	DB	01dH
	DB	0aH
	DB	02H
	DB	02H
	DB	02H
	DB	02H
	DB	02H
	DB	02H
	DB	02H
	DB	02H
	DB	02H
	DB	02H
	DB	02H
	DB	02H
	DB	02H
	DB	02H
	DB	02H
	DB	02eH
	DB	034H
	DB	0c2H
	DB	0c4H
	DB	0a8H
	DB	072H
	DB	01dH
	DB	02H
	DB	02H
	DB	02H
	DB	02H
	DB	02H
	DB	02H
	DB	02H
	DB	02H
	DB	02H
	DB	02H
	DB	02H
	DB	02H
	DB	02H
	DB	02H
	DB	02H
	DB	02H
	DB	08H
	DB	092H
	DB	098H
	DB	086H
	DB	0e2H
	DB	09H
	DB	09H
	DB	09H
	DB	09H
	DB	09H
	DB	09H
	DB	0a2H
	DB	099H
	DB	016H
	DB	08H
	DB	02H
	DB	02H
	DB	02H
	DB	02H
	DB	02H
	DB	02H
	DB	02H
	DB	02H
	DB	02H
	DB	02H
	DB	02H
	DB	02H
	DB	02H
	DB	02H
	DB	02H
	DB	02H
	DB	02H
	DB	02H
	DB	01dH
	DB	06bH
	DB	062H
	DB	063H
	DB	051H
	DB	01dH
	DB	02H
	DB	02H
	DB	02H
	DB	02H
	DB	02H
	DB	02H
	DB	02H
	DB	02H
	DB	02H
	DB	02H
	DB	02H
	DB	02H
	DB	02H
	DB	02H
	DB	02H
	DB	02H
	DB	0aH
	DB	08H
	DB	0f0H
	DB	0c7H
	DB	07eH
	DB	0faH
	DB	08H
	DB	0aH
	DB	02H
	DB	02H
	DB	02H
	DB	02H
	DB	02H
	DB	02H
	DB	02H
	DB	02H
	DB	02H
	DB	02H
	DB	02H
	DB	02H
	DB	02H
	DB	0aH
	DB	088H
	DB	080H
	DB	082H
	DB	073H
	DB	0aH
	DB	02H
	DB	02H
	DB	01dH
	DB	046H
	DB	0e4H
	DB	01dH
	DB	02H
	DB	02H
	DB	02H
	DB	02H
	DB	02H
	DB	02H
	DB	02H
	DB	02H
	DB	02H
	DB	02H
	DB	02H
	DB	02H
	DB	02H
	DB	02H
	DB	02H
	DB	02H
	DB	02H
	DB	02H
	DB	08H
	DB	073H
	DB	083H
	DB	0c9H
	DB	0eaH
	DB	072H
	DB	01dH
	DB	02H
	DB	02H
	DB	02H
	DB	02H
	DB	02H
	DB	02H
	DB	02H
	DB	02H
	DB	02H
	DB	02H
	DB	02H
	DB	02H
	DB	02H
	DB	02H
	DB	02H
	DB	02H
	DB	08H
	DB	021H
	DB	0bbH
	DB	064H
	DB	0fH
	DB	03H
	DB	09H
	DB	09H
	DB	09H
	DB	09H
	DB	09H
	DB	09H
	DB	09H
	DB	09H
	DB	09H
	DB	09H
	DB	09H
	DB	09H
	DB	09H
	DB	09H
	DB	09H
	DB	09H
	DB	09H
	DB	09H
	DB	09H
	DB	09H
	DB	09H
	DB	09H
	DB	09H
	DB	09H
	DB	09H
	DB	09H
	DB	09H
	DB	09H
	DB	09H
	DB	09H
	DB	09H
	DB	09H
	DB	09H
	DB	09H
	DB	09H
	DB	09H
	DB	09H
	DB	09H
	DB	09H
	DB	09H
	DB	09H
	DB	09H
	DB	09H
	DB	09H
	DB	09H
	DB	09H
	DB	09H
	DB	09H
	DB	09H
	DB	09H
	DB	09H
	DB	09H
	DB	09H
	DB	09H
	DB	09H
	DB	09H
	DB	09H
	DB	09H
	DB	09H
	DB	09H
	DB	09H
	DB	09H
	DB	09H
	DB	09H
	DB	09H
	DB	09H
	DB	09H
	DB	09H
	DB	09H
	DB	09H
	DB	09H
	DB	09H
	DB	09H
	DB	09H
	DB	09H
	DB	09H
	DB	09H
	DB	09H
	DB	09H
	DB	09H
	DB	09H
	DB	03H
	DB	03H
	DB	03H
	DB	03H
	DB	03H
	DB	03H
	DB	03H
	DB	03H
	DB	03H
	DB	03H
	DB	03H
	DB	03H
	DB	03H
	DB	03H
	DB	03H
	DB	03H
	DB	03H
	DB	03H
	DB	03H
	DB	03H
	DB	03H
	DB	03H
	DB	03H
	DB	03H
	DB	03H
	DB	03H
	DB	03H
	DB	03H
	DB	03H
	DB	03H
	DB	03H
	DB	03H
	DB	03H
	DB	03H
	DB	03H
	DB	03H
	DB	03H
	DB	03H
	DB	03H
	DB	03H
	DB	03H
	DB	03H
	DB	03H
	DB	03H
	DB	03H
	DB	03H
	DB	03H
	DB	03H
	DB	03H
	DB	03H
	DB	03H
	DB	03H
	DB	03H
	DB	03H
	DB	03H
	DB	03H
	DB	03H
	DB	03H
	DB	03H
	DB	03H
	DB	03H
	DB	03H
	DB	03H
	DB	03H
	DB	03H
	DB	03H
	DB	03H
	DB	03H
	DB	03H
	DB	03H
	DB	03H
	DB	03H
	DB	03H
	DB	03H
	DB	03H
	DB	03H
	DB	03H
	DB	03H
	DB	03H
	DB	03H
	DB	03H
	DB	03H
	DB	03H
	DB	03H
	DB	03H
	DB	044H
	DB	098H
	DB	092H
	DB	08H
	DB	02H
	DB	02H
	DB	02H
	DB	0aH
	DB	02eH
	DB	08H
	DB	08H
	DB	08H
	DB	08H
	DB	08H
	DB	08H
	DB	08H
	DB	08H
	DB	08H
	DB	08H
	DB	08H
	DB	08H
	DB	01dH
	DB	0fbH
	DB	038H
	DB	061H
	DB	073H
	DB	08H
	DB	02H
	DB	02H
	DB	02H
	DB	0aH
	DB	08H
	DB	08H
	DB	08H
	DB	08H
	DB	08H
	DB	08H
	DB	08H
	DB	08H
	DB	02eH
	DB	0aH
	DB	02H
	DB	02H
	DB	02H
	DB	02H
	DB	08H
	DB	0f0H
	DB	0d1H
	DB	03H
	DB	03H
	DB	03H
	DB	03H
	DB	03H
	DB	03H
	DB	03H
	DB	0e1H
	DB	0cbH
	DB	054H
	DB	0aH
	DB	02H
	DB	02H
	DB	02H
	DB	02eH
	DB	08H
	DB	08H
	DB	08H
	DB	08H
	DB	08H
	DB	08H
	DB	08H
	DB	08H
	DB	08H
	DB	02eH
	DB	02H
	DB	02H
	DB	02H
	DB	02H
	DB	0aH
	DB	054H
	DB	07eH
	DB	0bdH
	DB	05fH
	DB	01dH
	DB	08H
	DB	08H
	DB	08H
	DB	08H
	DB	08H
	DB	08H
	DB	08H
	DB	08H
	DB	08H
	DB	08H
	DB	08H
	DB	08H
	DB	02eH
	DB	02H
	DB	02H
	DB	02H
	DB	02H
	DB	08H
	DB	0feH
	DB	049H
	DB	022H
	DB	01dH
	DB	02H
	DB	02H
	DB	02H
	DB	0aH
	DB	02eH
	DB	08H
	DB	08H
	DB	08H
	DB	08H
	DB	08H
	DB	08H
	DB	08H
	DB	08H
	DB	08H
	DB	08H
	DB	017H
	DB	07bH
	DB	039H
	DB	0efH
	DB	02eH
	DB	0aH
	DB	02H
	DB	0aH
	DB	0aH
	DB	067H
	DB	046H
	DB	08H
	DB	02H
	DB	02H
	DB	02H
	DB	0aH
	DB	08H
	DB	08H
	DB	08H
	DB	08H
	DB	08H
	DB	08H
	DB	08H
	DB	08H
	DB	08H
	DB	02eH
	DB	0aH
	DB	02H
	DB	02H
	DB	02H
	DB	02H
	DB	01dH
	DB	0abH
	DB	097H
	DB	073H
	DB	08H
	DB	02H
	DB	02H
	DB	02H
	DB	0aH
	DB	08H
	DB	08H
	DB	08H
	DB	08H
	DB	08H
	DB	08H
	DB	08H
	DB	08H
	DB	08H
	DB	08H
	DB	08H
	DB	08H
	DB	08H
	DB	075H
	DB	051H
	DB	015H
	DB	0cH
	DB	010H
	DB	03H
	DB	03H
	DB	03H
	DB	03H
	DB	03H
	DB	03H
	DB	03H
	DB	03H
	DB	03H
	DB	03H
	DB	03H
	DB	03H
	DB	03H
	DB	03H
	DB	03H
	DB	03H
	DB	03H
	DB	03H
	DB	03H
	DB	03H
	DB	03H
	DB	03H
	DB	03H
	DB	03H
	DB	03H
	DB	03H
	DB	03H
	DB	03H
	DB	03H
	DB	03H
	DB	03H
	DB	03H
	DB	03H
	DB	03H
	DB	03H
	DB	03H
	DB	03H
	DB	03H
	DB	03H
	DB	03H
	DB	03H
	DB	03H
	DB	03H
	DB	03H
	DB	03H
	DB	03H
	DB	03H
	DB	03H
	DB	03H
	DB	03H
	DB	03H
	DB	03H
	DB	03H
	DB	03H
	DB	03H
	DB	03H
	DB	03H
	DB	03H
	DB	03H
	DB	03H
	DB	03H
	DB	03H
	DB	03H
	DB	03H
	DB	03H
	DB	03H
	DB	03H
	DB	03H
	DB	03H
	DB	03H
	DB	03H
	DB	03H
	DB	03H
	DB	03H
	DB	03H
	DB	03H
	DB	03H
	DB	03H
	DB	03H
	DB	03H
	DB	03H
	DB	03H
	DB	03H
	DB	03H
	DB	03H
	DB	03H
	DB	03H
	DB	03H
	DB	03H
	DB	03H
	DB	03H
	DB	03H
	DB	03H
	DB	03H
	DB	03H
	DB	03H
	DB	03H
	DB	03H
	DB	03H
	DB	03H
	DB	03H
	DB	03H
	DB	03H
	DB	03H
	DB	03H
	DB	03H
	DB	03H
	DB	03H
	DB	03H
	DB	03H
	DB	03H
	DB	03H
	DB	03H
	DB	03H
	DB	03H
	DB	03H
	DB	03H
	DB	03H
	DB	03H
	DB	03H
	DB	03H
	DB	03H
	DB	03H
	DB	03H
	DB	03H
	DB	03H
	DB	03H
	DB	03H
	DB	03H
	DB	03H
	DB	03H
	DB	03H
	DB	03H
	DB	03H
	DB	03H
	DB	03H
	DB	03H
	DB	03H
	DB	03H
	DB	03H
	DB	03H
	DB	03H
	DB	03H
	DB	03H
	DB	03H
	DB	03H
	DB	03H
	DB	03H
	DB	03H
	DB	03H
	DB	03H
	DB	03H
	DB	03H
	DB	03H
	DB	03H
	DB	03H
	DB	03H
	DB	03H
	DB	03H
	DB	03H
	DB	03H
	DB	03H
	DB	03H
	DB	03H
	DB	03H
	DB	03H
	DB	03H
	DB	062H
	DB	03cH
	DB	01dH
	DB	02H
	DB	02H
	DB	02H
	DB	02eH
	DB	03fH
	DB	033H
	DB	021H
	DB	016H
	DB	016H
	DB	016H
	DB	016H
	DB	016H
	DB	016H
	DB	016H
	DB	016H
	DB	016H
	DB	016H
	DB	016H
	DB	033H
	DB	04fH
	DB	01aH
	DB	03dH
	DB	01dH
	DB	02H
	DB	02H
	DB	02H
	DB	02eH
	DB	01eH
	DB	0fbH
	DB	016H
	DB	016H
	DB	016H
	DB	016H
	DB	016H
	DB	016H
	DB	021H
	DB	052H
	DB	02H
	DB	02H
	DB	02H
	DB	02H
	DB	02H
	DB	08H
	DB	030H
	DB	01fH
	DB	010H
	DB	0fH
	DB	03H
	DB	03H
	DB	03H
	DB	03H
	DB	03H
	DB	065H
	DB	08aH
	DB	074H
	DB	02H
	DB	02H
	DB	02H
	DB	0aH
	DB	03eH
	DB	021H
	DB	016H
	DB	016H
	DB	016H
	DB	016H
	DB	016H
	DB	016H
	DB	016H
	DB	016H
	DB	034H
	DB	02eH
	DB	02H
	DB	02H
	DB	02H
	DB	02H
	DB	0aH
	DB	0a4H
	DB	055H
	DB	022H
	DB	016H
	DB	016H
	DB	016H
	DB	016H
	DB	016H
	DB	016H
	DB	016H
	DB	016H
	DB	016H
	DB	016H
	DB	016H
	DB	016H
	DB	021H
	DB	071H
	DB	0aH
	DB	02H
	DB	02H
	DB	02H
	DB	0aH
	DB	0b0H
	DB	06cH
	DB	08H
	DB	02H
	DB	02H
	DB	02H
	DB	0aH
	DB	02H
	DB	052H
	DB	021H
	DB	016H
	DB	016H
	DB	016H
	DB	016H
	DB	016H
	DB	016H
	DB	016H
	DB	016H
	DB	05fH
	DB	020H
	DB	0b9H
	DB	0b8H
	DB	030H
	DB	01dH
	DB	02H
	DB	02H
	DB	0aH
	DB	036H
	DB	04bH
	DB	05eH
	DB	08H
	DB	02H
	DB	02H
	DB	0aH
	DB	036H
	DB	0fbH
	DB	016H
	DB	016H
	DB	016H
	DB	016H
	DB	016H
	DB	016H
	DB	016H
	DB	021H
	DB	05fH
	DB	017H
	DB	0aH
	DB	02H
	DB	02H
	DB	02H
	DB	02eH
	DB	05dH
	DB	05cH
	DB	08H
	DB	02H
	DB	02H
	DB	02H
	DB	02eH
	DB	01eH
	DB	0fbH
	DB	016H
	DB	016H
	DB	016H
	DB	016H
	DB	016H
	DB	016H
	DB	016H
	DB	016H
	DB	016H
	DB	016H
	DB	016H
	DB	016H
	DB	033H
	DB	067H
	DB	0b8H
	DB	01H
	DB	06H
	DB	0fH
	DB	03H
	DB	03H
	DB	03H
	DB	03H
	DB	03H
	DB	03H
	DB	03H
	DB	03H
	DB	03H
	DB	03H
	DB	03H
	DB	03H
	DB	03H
	DB	03H
	DB	03H
	DB	03H
	DB	03H
	DB	03H
	DB	03H
	DB	03H
	DB	03H
	DB	03H
	DB	03H
	DB	03H
	DB	03H
	DB	03H
	DB	03H
	DB	03H
	DB	03H
	DB	03H
	DB	03H
	DB	03H
	DB	03H
	DB	03H
	DB	03H
	DB	03H
	DB	03H
	DB	03H
	DB	03H
	DB	03H
	DB	03H
	DB	03H
	DB	03H
	DB	03H
	DB	03H
	DB	03H
	DB	03H
	DB	03H
	DB	03H
	DB	03H
	DB	03H
	DB	03H
	DB	03H
	DB	03H
	DB	03H
	DB	03H
	DB	03H
	DB	03H
	DB	03H
	DB	03H
	DB	03H
	DB	03H
	DB	03H
	DB	03H
	DB	03H
	DB	03H
	DB	03H
	DB	03H
	DB	03H
	DB	03H
	DB	03H
	DB	03H
	DB	03H
	DB	03H
	DB	03H
	DB	03H
	DB	03H
	DB	03H
	DB	03H
	DB	03H
	DB	03H
	DB	0fH
	DB	0fH
	DB	0fH
	DB	0fH
	DB	0fH
	DB	0fH
	DB	0fH
	DB	0fH
	DB	0fH
	DB	0fH
	DB	0fH
	DB	0fH
	DB	0fH
	DB	0fH
	DB	0fH
	DB	0fH
	DB	0fH
	DB	0fH
	DB	0fH
	DB	0fH
	DB	0fH
	DB	0fH
	DB	0fH
	DB	0fH
	DB	0fH
	DB	0fH
	DB	0fH
	DB	0fH
	DB	0fH
	DB	0fH
	DB	0fH
	DB	0fH
	DB	0fH
	DB	0fH
	DB	0fH
	DB	0fH
	DB	0fH
	DB	0fH
	DB	0fH
	DB	0fH
	DB	0fH
	DB	0fH
	DB	0fH
	DB	0fH
	DB	0fH
	DB	0fH
	DB	0fH
	DB	0fH
	DB	0fH
	DB	0fH
	DB	0fH
	DB	0fH
	DB	0fH
	DB	0fH
	DB	0fH
	DB	0fH
	DB	0fH
	DB	0fH
	DB	0fH
	DB	0fH
	DB	0fH
	DB	0fH
	DB	0fH
	DB	0fH
	DB	0fH
	DB	0fH
	DB	0fH
	DB	0fH
	DB	0fH
	DB	0fH
	DB	0fH
	DB	0fH
	DB	0fH
	DB	0fH
	DB	0fH
	DB	0fH
	DB	0fH
	DB	0fH
	DB	0fH
	DB	0fH
	DB	0fH
	DB	0fH
	DB	0fH
	DB	0fH
	DB	0dfH
	DB	07dH
	DB	047H
	DB	02eH
	DB	02H
	DB	02H
	DB	02eH
	DB	031H
	DB	018H
	DB	0b5H
	DB	04H
	DB	04H
	DB	04H
	DB	04H
	DB	04H
	DB	04H
	DB	04H
	DB	04H
	DB	04H
	DB	04H
	DB	04H
	DB	04H
	DB	04H
	DB	038H
	DB	04cH
	DB	02H
	DB	02H
	DB	02H
	DB	02H
	DB	08H
	DB	033H
	DB	04cH
	DB	0b5H
	DB	04H
	DB	04H
	DB	04H
	DB	04H
	DB	04H
	DB	04H
	DB	04H
	DB	0b5H
	DB	03bH
	DB	08H
	DB	02H
	DB	02H
	DB	02H
	DB	08H
	DB	06bH
	DB	015H
	DB	0eH
	DB	010H
	DB	0fH
	DB	0fH
	DB	0fH
	DB	0fH
	DB	0dfH
	DB	0c8H
	DB	0abH
	DB	08H
	DB	02H
	DB	02H
	DB	0aH
	DB	0aH
	DB	087H
	DB	01aH
	DB	04H
	DB	04H
	DB	04H
	DB	04H
	DB	04H
	DB	04H
	DB	04H
	DB	04H
	DB	094H
	DB	05fH
	DB	02eH
	DB	02H
	DB	02H
	DB	02H
	DB	0aH
	DB	0a4H
	DB	01bH
	DB	077H
	DB	077H
	DB	07H
	DB	041H
	DB	04H
	DB	04H
	DB	04H
	DB	04H
	DB	04H
	DB	04H
	DB	04H
	DB	04H
	DB	04H
	DB	04H
	DB	042H
	DB	03eH
	DB	02eH
	DB	02H
	DB	02H
	DB	0aH
	DB	036H
	DB	071H
	DB	02eH
	DB	02H
	DB	02H
	DB	0aH
	DB	01eH
	DB	028H
	DB	049H
	DB	04H
	DB	04H
	DB	04H
	DB	04H
	DB	04H
	DB	04H
	DB	04H
	DB	04H
	DB	04H
	DB	04H
	DB	04H
	DB	07H
	DB	055H
	DB	05dH
	DB	08H
	DB	02H
	DB	02H
	DB	02eH
	DB	03eH
	DB	032H
	DB	071H
	DB	02eH
	DB	02H
	DB	02H
	DB	08H
	DB	06dH
	DB	076H
	DB	04H
	DB	04H
	DB	04H
	DB	04H
	DB	04H
	DB	04H
	DB	04H
	DB	04H
	DB	0b5H
	DB	068H
	DB	0aH
	DB	02H
	DB	02H
	DB	02H
	DB	0aH
	DB	0b0H
	DB	03fH
	DB	02H
	DB	02H
	DB	02H
	DB	08H
	DB	033H
	DB	04cH
	DB	0b5H
	DB	04H
	DB	04H
	DB	04H
	DB	04H
	DB	04H
	DB	04H
	DB	04H
	DB	04H
	DB	04H
	DB	04H
	DB	04H
	DB	04H
	DB	04H
	DB	041H
	DB	0bH
	DB	01H
	DB	06H
	DB	0fH
	DB	0fH
	DB	0fH
	DB	0fH
	DB	0fH
	DB	0fH
	DB	0fH
	DB	0fH
	DB	0fH
	DB	0fH
	DB	0fH
	DB	0fH
	DB	0fH
	DB	0fH
	DB	0fH
	DB	0fH
	DB	0fH
	DB	0fH
	DB	0fH
	DB	0fH
	DB	0fH
	DB	0fH
	DB	0fH
	DB	0fH
	DB	0fH
	DB	0fH
	DB	0fH
	DB	0fH
	DB	0fH
	DB	0fH
	DB	0fH
	DB	0fH
	DB	0fH
	DB	0fH
	DB	0fH
	DB	0fH
	DB	0fH
	DB	0fH
	DB	0fH
	DB	0fH
	DB	0fH
	DB	0fH
	DB	0fH
	DB	0fH
	DB	0fH
	DB	0fH
	DB	0fH
	DB	0fH
	DB	0fH
	DB	0fH
	DB	0fH
	DB	0fH
	DB	0fH
	DB	0fH
	DB	0fH
	DB	0fH
	DB	0fH
	DB	0fH
	DB	0fH
	DB	0fH
	DB	0fH
	DB	0fH
	DB	0fH
	DB	0fH
	DB	0fH
	DB	0fH
	DB	0fH
	DB	0fH
	DB	0fH
	DB	0fH
	DB	0fH
	DB	0fH
	DB	0fH
	DB	0fH
	DB	0fH
	DB	0fH
	DB	0fH
	DB	0fH
	DB	0fH
	DB	0fH
	DB	0fH
	DB	0fH
	DB	010H
	DB	010H
	DB	010H
	DB	010H
	DB	010H
	DB	010H
	DB	010H
	DB	010H
	DB	010H
	DB	010H
	DB	010H
	DB	010H
	DB	010H
	DB	010H
	DB	010H
	DB	010H
	DB	010H
	DB	010H
	DB	010H
	DB	010H
	DB	010H
	DB	010H
	DB	010H
	DB	010H
	DB	010H
	DB	010H
	DB	010H
	DB	010H
	DB	010H
	DB	010H
	DB	010H
	DB	010H
	DB	010H
	DB	010H
	DB	010H
	DB	010H
	DB	010H
	DB	010H
	DB	010H
	DB	010H
	DB	010H
	DB	010H
	DB	010H
	DB	010H
	DB	010H
	DB	010H
	DB	010H
	DB	010H
	DB	010H
	DB	010H
	DB	010H
	DB	010H
	DB	010H
	DB	010H
	DB	010H
	DB	010H
	DB	010H
	DB	010H
	DB	010H
	DB	010H
	DB	010H
	DB	010H
	DB	010H
	DB	010H
	DB	010H
	DB	010H
	DB	010H
	DB	010H
	DB	010H
	DB	010H
	DB	010H
	DB	010H
	DB	010H
	DB	010H
	DB	010H
	DB	010H
	DB	010H
	DB	010H
	DB	010H
	DB	010H
	DB	010H
	DB	010H
	DB	010H
	DB	0deH
	DB	09dH
	DB	0a5H
	DB	017H
	DB	0aH
	DB	02H
	DB	02H
	DB	01dH
	DB	046H
	DB	01aH
	DB	015H
	DB	07H
	DB	07H
	DB	01bH
	DB	039H
	DB	039H
	DB	039H
	DB	039H
	DB	039H
	DB	039H
	DB	039H
	DB	039H
	DB	039H
	DB	039H
	DB	04aH
	DB	0f2H
	DB	08H
	DB	02H
	DB	02H
	DB	02H
	DB	08H
	DB	018H
	DB	01aH
	DB	015H
	DB	07H
	DB	01bH
	DB	01bH
	DB	01bH
	DB	01bH
	DB	01bH
	DB	01bH
	DB	0b8H
	DB	018H
	DB	01dH
	DB	02H
	DB	02H
	DB	02H
	DB	093H
	DB	04eH
	DB	015H
	DB	0cfH
	DB	06H
	DB	010H
	DB	010H
	DB	010H
	DB	010H
	DB	0fH
	DB	079H
	DB	06eH
	DB	01dH
	DB	02H
	DB	02H
	DB	02eH
	DB	034H
	DB	042H
	DB	040H
	DB	07H
	DB	01bH
	DB	01bH
	DB	01bH
	DB	01bH
	DB	01bH
	DB	01bH
	DB	01bH
	DB	060H
	DB	08fH
	DB	08H
	DB	02H
	DB	02H
	DB	0aH
	DB	017H
	DB	02bH
	DB	01fH
	DB	0cH
	DB	04dH
	DB	081H
	DB	01fH
	DB	039H
	DB	039H
	DB	039H
	DB	039H
	DB	039H
	DB	039H
	DB	039H
	DB	039H
	DB	039H
	DB	039H
	DB	04H
	DB	05eH
	DB	08H
	DB	02H
	DB	02H
	DB	02H
	DB	02H
	DB	0aH
	DB	02H
	DB	02H
	DB	02H
	DB	08H
	DB	051H
	DB	01aH
	DB	015H
	DB	07H
	DB	01bH
	DB	01bH
	DB	01bH
	DB	01bH
	DB	01bH
	DB	01bH
	DB	01bH
	DB	01bH
	DB	01bH
	DB	01bH
	DB	0baH
	DB	07bH
	DB	072H
	DB	0aH
	DB	02H
	DB	02H
	DB	08H
	DB	014H
	DB	0e3H
	DB	017H
	DB	0aH
	DB	02H
	DB	02H
	DB	01dH
	DB	08dH
	DB	01aH
	DB	07H
	DB	07H
	DB	01bH
	DB	01bH
	DB	01bH
	DB	01bH
	DB	01bH
	DB	01bH
	DB	039H
	DB	042H
	DB	02H
	DB	02H
	DB	02H
	DB	02H
	DB	02H
	DB	02H
	DB	02H
	DB	02H
	DB	02H
	DB	02H
	DB	08H
	DB	018H
	DB	01aH
	DB	015H
	DB	07H
	DB	01bH
	DB	01bH
	DB	039H
	DB	039H
	DB	039H
	DB	039H
	DB	039H
	DB	039H
	DB	039H
	DB	039H
	DB	039H
	DB	039H
	DB	01bH
	DB	0dH
	DB	0cH
	DB	06H
	DB	010H
	DB	010H
	DB	010H
	DB	010H
	DB	010H
	DB	010H
	DB	010H
	DB	010H
	DB	010H
	DB	010H
	DB	010H
	DB	010H
	DB	010H
	DB	010H
	DB	010H
	DB	010H
	DB	010H
	DB	010H
	DB	010H
	DB	010H
	DB	010H
	DB	010H
	DB	010H
	DB	010H
	DB	010H
	DB	010H
	DB	010H
	DB	010H
	DB	010H
	DB	010H
	DB	010H
	DB	010H
	DB	010H
	DB	010H
	DB	010H
	DB	010H
	DB	010H
	DB	010H
	DB	010H
	DB	010H
	DB	010H
	DB	010H
	DB	010H
	DB	010H
	DB	010H
	DB	010H
	DB	010H
	DB	010H
	DB	010H
	DB	010H
	DB	010H
	DB	010H
	DB	010H
	DB	010H
	DB	010H
	DB	010H
	DB	010H
	DB	010H
	DB	010H
	DB	010H
	DB	010H
	DB	010H
	DB	010H
	DB	010H
	DB	010H
	DB	010H
	DB	010H
	DB	010H
	DB	010H
	DB	010H
	DB	010H
	DB	010H
	DB	010H
	DB	010H
	DB	010H
	DB	010H
	DB	010H
	DB	010H
	DB	010H
	DB	010H
	DB	010H
	DB	010H
	DB	06H
	DB	06H
	DB	06H
	DB	06H
	DB	06H
	DB	06H
	DB	06H
	DB	06H
	DB	06H
	DB	06H
	DB	06H
	DB	06H
	DB	06H
	DB	06H
	DB	06H
	DB	06H
	DB	06H
	DB	06H
	DB	06H
	DB	06H
	DB	06H
	DB	06H
	DB	06H
	DB	06H
	DB	06H
	DB	06H
	DB	06H
	DB	06H
	DB	06H
	DB	06H
	DB	06H
	DB	06H
	DB	06H
	DB	06H
	DB	06H
	DB	06H
	DB	06H
	DB	06H
	DB	06H
	DB	06H
	DB	06H
	DB	06H
	DB	06H
	DB	06H
	DB	06H
	DB	06H
	DB	06H
	DB	06H
	DB	06H
	DB	06H
	DB	06H
	DB	06H
	DB	06H
	DB	06H
	DB	06H
	DB	06H
	DB	06H
	DB	06H
	DB	06H
	DB	06H
	DB	06H
	DB	06H
	DB	06H
	DB	06H
	DB	06H
	DB	06H
	DB	06H
	DB	06H
	DB	06H
	DB	06H
	DB	06H
	DB	06H
	DB	06H
	DB	06H
	DB	06H
	DB	06H
	DB	06H
	DB	06H
	DB	06H
	DB	06H
	DB	06H
	DB	06H
	DB	06H
	DB	0d6H
	DB	0c7H
	DB	0a9H
	DB	08H
	DB	02H
	DB	02H
	DB	0aH
	DB	019H
	DB	018H
	DB	048H
	DB	07H
	DB	0bH
	DB	0dH
	DB	077H
	DB	0e5H
	DB	01cH
	DB	01cH
	DB	01cH
	DB	01cH
	DB	01cH
	DB	01cH
	DB	01cH
	DB	01cH
	DB	01cH
	DB	061H
	DB	03dH
	DB	08H
	DB	02H
	DB	02H
	DB	02eH
	DB	023H
	DB	02bH
	DB	060H
	DB	01bH
	DB	078H
	DB	0c3H
	DB	0c3H
	DB	01H
	DB	01H
	DB	01H
	DB	01H
	DB	01bH
	DB	03bH
	DB	08H
	DB	02H
	DB	02H
	DB	02H
	DB	02H
	DB	04cH
	DB	015H
	DB	0c3H
	DB	0eH
	DB	06H
	DB	06H
	DB	06H
	DB	06H
	DB	064H
	DB	0c1H
	DB	070H
	DB	08H
	DB	02H
	DB	02H
	DB	08H
	DB	022H
	DB	037H
	DB	07H
	DB	0bH
	DB	0dH
	DB	01H
	DB	01H
	DB	01H
	DB	01H
	DB	01H
	DB	01H
	DB	015H
	DB	091H
	DB	08H
	DB	02H
	DB	02H
	DB	02eH
	DB	05fH
	DB	041H
	DB	01bH
	DB	0baH
	DB	0bH
	DB	07bH
	DB	07fH
	DB	01cH
	DB	01cH
	DB	01cH
	DB	01cH
	DB	01cH
	DB	01cH
	DB	01cH
	DB	01cH
	DB	01cH
	DB	07fH
	DB	088H
	DB	036H
	DB	0aH
	DB	02H
	DB	02H
	DB	02H
	DB	02H
	DB	02H
	DB	02H
	DB	02H
	DB	02H
	DB	01dH
	DB	028H
	DB	048H
	DB	07H
	DB	0bH
	DB	0dH
	DB	0c3H
	DB	01H
	DB	01H
	DB	01H
	DB	01H
	DB	01H
	DB	01H
	DB	01H
	DB	01H
	DB	079H
	DB	0a3H
	DB	0aH
	DB	02H
	DB	02H
	DB	02H
	DB	01dH
	DB	068H
	DB	08bH
	DB	08H
	DB	02H
	DB	02H
	DB	0aH
	DB	03fH
	DB	018H
	DB	038H
	DB	01bH
	DB	0dH
	DB	0c3H
	DB	01H
	DB	01H
	DB	01H
	DB	01H
	DB	01H
	DB	01fH
	DB	068H
	DB	0aH
	DB	02H
	DB	02H
	DB	02H
	DB	02H
	DB	02H
	DB	02H
	DB	02H
	DB	02H
	DB	02eH
	DB	023H
	DB	02bH
	DB	060H
	DB	01bH
	DB	078H
	DB	0dH
	DB	07cH
	DB	0a3H
	DB	01cH
	DB	01cH
	DB	01cH
	DB	01cH
	DB	01cH
	DB	01cH
	DB	01cH
	DB	01cH
	DB	01cH
	DB	01cH
	DB	07dH
	DB	0eH
	DB	06H
	DB	06H
	DB	06H
	DB	06H
	DB	06H
	DB	06H
	DB	06H
	DB	06H
	DB	06H
	DB	06H
	DB	06H
	DB	06H
	DB	06H
	DB	06H
	DB	06H
	DB	06H
	DB	06H
	DB	06H
	DB	06H
	DB	06H
	DB	06H
	DB	06H
	DB	06H
	DB	06H
	DB	06H
	DB	06H
	DB	06H
	DB	06H
	DB	06H
	DB	06H
	DB	06H
	DB	06H
	DB	06H
	DB	06H
	DB	06H
	DB	06H
	DB	06H
	DB	06H
	DB	06H
	DB	06H
	DB	06H
	DB	06H
	DB	06H
	DB	06H
	DB	06H
	DB	06H
	DB	06H
	DB	06H
	DB	06H
	DB	06H
	DB	06H
	DB	06H
	DB	06H
	DB	06H
	DB	06H
	DB	06H
	DB	06H
	DB	06H
	DB	06H
	DB	06H
	DB	06H
	DB	06H
	DB	06H
	DB	06H
	DB	06H
	DB	06H
	DB	06H
	DB	06H
	DB	06H
	DB	06H
	DB	06H
	DB	06H
	DB	06H
	DB	06H
	DB	06H
	DB	06H
	DB	06H
	DB	06H
	DB	06H
	DB	06H
	DB	06H
	DB	06H
	DB	06H
	DB	06H
	DB	06H
	DB	06H
	DB	06H
	DB	06H
	DB	06H
	DB	06H
	DB	06H
	DB	06H
	DB	06H
	DB	06H
	DB	06H
	DB	06H
	DB	06H
	DB	06H
	DB	06H
	DB	06H
	DB	06H
	DB	06H
	DB	06H
	DB	06H
	DB	06H
	DB	06H
	DB	06H
	DB	06H
	DB	06H
	DB	06H
	DB	06H
	DB	06H
	DB	06H
	DB	06H
	DB	06H
	DB	06H
	DB	06H
	DB	06H
	DB	06H
	DB	06H
	DB	06H
	DB	06H
	DB	06H
	DB	06H
	DB	06H
	DB	06H
	DB	06H
	DB	06H
	DB	06H
	DB	06H
	DB	06H
	DB	06H
	DB	06H
	DB	06H
	DB	06H
	DB	06H
	DB	06H
	DB	06H
	DB	06H
	DB	06H
	DB	06H
	DB	06H
	DB	06H
	DB	06H
	DB	06H
	DB	06H
	DB	06H
	DB	06H
	DB	06H
	DB	06H
	DB	06H
	DB	06H
	DB	06H
	DB	06H
	DB	06H
	DB	06H
	DB	06H
	DB	06H
	DB	06H
	DB	06H
	DB	06H
	DB	06H
	DB	06H
	DB	06H
	DB	06H
	DB	06H
	DB	06H
	DB	078H
	DB	0adH
	DB	01dH
	DB	02H
	DB	02H
	DB	02eH
	DB	023H
	DB	042H
	DB	040H
	DB	0bH
	DB	0c3H
	DB	079H
	DB	0a4H
	DB	074H
	DB	02H
	DB	019H
	DB	019H
	DB	019H
	DB	019H
	DB	019H
	DB	019H
	DB	019H
	DB	019H
	DB	019H
	DB	0aH
	DB	02H
	DB	02H
	DB	02H
	DB	08H
	DB	05fH
	DB	049H
	DB	015H
	DB	0bH
	DB	01H
	DB	0cH
	DB	0cH
	DB	0cH
	DB	0cH
	DB	0cH
	DB	04dH
	DB	01bH
	DB	03dH
	DB	08H
	DB	02H
	DB	02H
	DB	02eH
	DB	047H
	DB	094H
	DB	07H
	DB	0dH
	DB	0cH
	DB	0eH
	DB	06H
	DB	06H
	DB	06H
	DB	0d1H
	DB	0cdH
	DB	01eH
	DB	0aH
	DB	02H
	DB	02H
	DB	08H
	DB	030H
	DB	01aH
	DB	015H
	DB	01fH
	DB	0c5H
	DB	057H
	DB	057H
	DB	057H
	DB	057H
	DB	0c6H
	DB	096H
	DB	061H
	DB	054H
	DB	0aH
	DB	02H
	DB	02H
	DB	01dH
	DB	020H
	DB	0b6H
	DB	060H
	DB	07fH
	DB	05aH
	DB	072H
	DB	02H
	DB	019H
	DB	019H
	DB	019H
	DB	019H
	DB	019H
	DB	019H
	DB	019H
	DB	019H
	DB	019H
	DB	019H
	DB	02H
	DB	0aH
	DB	02H
	DB	02H
	DB	02H
	DB	02H
	DB	017H
	DB	02H
	DB	02H
	DB	02H
	DB	0aH
	DB	03fH
	DB	02cH
	DB	060H
	DB	0bH
	DB	0c3H
	DB	0cfH
	DB	0cH
	DB	0cH
	DB	0cH
	DB	0cH
	DB	0cH
	DB	0cH
	DB	0cH
	DB	0cH
	DB	0cH
	DB	096H
	DB	03aH
	DB	08H
	DB	02H
	DB	02H
	DB	02H
	DB	08H
	DB	02dH
	DB	08eH
	DB	01dH
	DB	02H
	DB	02H
	DB	02eH
	DB	023H
	DB	042H
	DB	040H
	DB	0bH
	DB	01H
	DB	0cH
	DB	0cH
	DB	0cH
	DB	0cH
	DB	0cH
	DB	04dH
	DB	01fH
	DB	030H
	DB	08H
	DB	02H
	DB	02H
	DB	02H
	DB	03fH
	DB	03fH
	DB	02H
	DB	02H
	DB	02H
	DB	08H
	DB	05fH
	DB	049H
	DB	015H
	DB	0bH
	DB	01H
	DB	0baH
	DB	0a9H
	DB	08H
	DB	019H
	DB	019H
	DB	019H
	DB	019H
	DB	019H
	DB	019H
	DB	019H
	DB	019H
	DB	0aH
	DB	0afH
	DB	07cH
	DB	04dH
	DB	0eH
	DB	0eH
	DB	06H
	DB	06H
	DB	06H
	DB	06H
	DB	06H
	DB	06H
	DB	06H
	DB	06H
	DB	06H
	DB	06H
	DB	06H
	DB	06H
	DB	06H
	DB	06H
	DB	06H
	DB	06H
	DB	06H
	DB	06H
	DB	06H
	DB	06H
	DB	06H
	DB	06H
	DB	06H
	DB	06H
	DB	06H
	DB	06H
	DB	06H
	DB	06H
	DB	06H
	DB	06H
	DB	06H
	DB	06H
	DB	06H
	DB	06H
	DB	06H
	DB	06H
	DB	06H
	DB	06H
	DB	06H
	DB	06H
	DB	06H
	DB	06H
	DB	06H
	DB	06H
	DB	06H
	DB	06H
	DB	06H
	DB	06H
	DB	06H
	DB	06H
	DB	06H
	DB	06H
	DB	06H
	DB	06H
	DB	06H
	DB	06H
	DB	06H
	DB	06H
	DB	06H
	DB	06H
	DB	06H
	DB	06H
	DB	06H
	DB	06H
	DB	06H
	DB	06H
	DB	06H
	DB	06H
	DB	06H
	DB	06H
	DB	06H
	DB	06H
	DB	06H
	DB	06H
	DB	06H
	DB	06H
	DB	06H
	DB	06H
	DB	06H
	DB	06H
	DB	06H
	DB	0cH
	DB	0cH
	DB	0cH
	DB	0cH
	DB	0cH
	DB	0cH
	DB	0cH
	DB	0cH
	DB	0cH
	DB	0cH
	DB	0cH
	DB	0cH
	DB	0cH
	DB	0cH
	DB	0cH
	DB	0cH
	DB	0cH
	DB	0cH
	DB	0cH
	DB	0cH
	DB	0cH
	DB	0cH
	DB	0cH
	DB	0cH
	DB	0cH
	DB	0cH
	DB	0cH
	DB	0cH
	DB	0cH
	DB	0cH
	DB	0cH
	DB	0cH
	DB	0cH
	DB	0cH
	DB	0cH
	DB	0cH
	DB	0cH
	DB	0cH
	DB	0cH
	DB	0cH
	DB	0cH
	DB	0cH
	DB	0cH
	DB	0cH
	DB	0cH
	DB	0cH
	DB	0cH
	DB	0cH
	DB	0cH
	DB	0cH
	DB	0cH
	DB	0cH
	DB	0cH
	DB	0cH
	DB	0cH
	DB	0cH
	DB	0cH
	DB	0cH
	DB	0cH
	DB	0cH
	DB	0cH
	DB	0cH
	DB	0cH
	DB	0cH
	DB	0cH
	DB	0cH
	DB	0cH
	DB	0cH
	DB	0cH
	DB	0cH
	DB	0cH
	DB	0cH
	DB	0cH
	DB	0cH
	DB	0cH
	DB	0cH
	DB	0cH
	DB	0cH
	DB	0cH
	DB	0cH
	DB	0cH
	DB	0cH
	DB	0cH
	DB	04dH
	DB	077H
	DB	016H
	DB	08H
	DB	02H
	DB	02H
	DB	08H
	DB	033H
	DB	0b5H
	DB	07H
	DB	0bH
	DB	01H
	DB	096H
	DB	03aH
	DB	08H
	DB	02H
	DB	02H
	DB	02H
	DB	02H
	DB	02H
	DB	02H
	DB	02H
	DB	02H
	DB	02H
	DB	02H
	DB	02H
	DB	02H
	DB	02H
	DB	02H
	DB	08H
	DB	014H
	DB	01aH
	DB	07H
	DB	078H
	DB	01H
	DB	0cH
	DB	0cH
	DB	0cH
	DB	0cH
	DB	0cH
	DB	04dH
	DB	055H
	DB	0afH
	DB	02eH
	DB	02H
	DB	02H
	DB	08H
	DB	05cH
	DB	04H
	DB	07H
	DB	0dH
	DB	01H
	DB	0cH
	DB	0cH
	DB	0cH
	DB	0cH
	DB	080H
	DB	0e9H
	DB	08H
	DB	02H
	DB	02H
	DB	02H
	DB	02eH
	DB	046H
	DB	02bH
	DB	061H
	DB	061H
	DB	043H
	DB	043H
	DB	043H
	DB	043H
	DB	043H
	DB	061H
	DB	088H
	DB	052H
	DB	02eH
	DB	02H
	DB	02H
	DB	02H
	DB	08H
	DB	068H
	DB	00H
	DB	03bH
	DB	017H
	DB	01dH
	DB	0aH
	DB	02H
	DB	02H
	DB	02H
	DB	02H
	DB	02H
	DB	02H
	DB	02H
	DB	02H
	DB	02H
	DB	02H
	DB	02H
	DB	02H
	DB	02H
	DB	02H
	DB	02H
	DB	02H
	DB	02H
	DB	02H
	DB	02H
	DB	02H
	DB	02H
	DB	08H
	DB	03eH
	DB	094H
	DB	040H
	DB	0bH
	DB	01H
	DB	0cH
	DB	0cH
	DB	0cH
	DB	0cH
	DB	0cH
	DB	0cH
	DB	0cH
	DB	0cH
	DB	0cH
	DB	04dH
	DB	039H
	DB	014H
	DB	08H
	DB	02H
	DB	02H
	DB	02eH
	DB	071H
	DB	04cH
	DB	05eH
	DB	08H
	DB	02H
	DB	02H
	DB	08H
	DB	033H
	DB	0b5H
	DB	07H
	DB	0bH
	DB	01H
	DB	0cH
	DB	0cH
	DB	0cH
	DB	0cH
	DB	0cH
	DB	04dH
	DB	01bH
	DB	03dH
	DB	08H
	DB	02H
	DB	02H
	DB	02H
	DB	02H
	DB	02H
	DB	02H
	DB	02H
	DB	02H
	DB	08H
	DB	014H
	DB	01aH
	DB	07H
	DB	078H
	DB	0cfH
	DB	01fH
	DB	020H
	DB	08H
	DB	02H
	DB	02H
	DB	02H
	DB	02H
	DB	02H
	DB	02H
	DB	02H
	DB	02H
	DB	08H
	DB	05cH
	DB	07H
	DB	0cfH
	DB	0cH
	DB	0cH
	DB	0cH
	DB	0cH
	DB	0cH
	DB	0cH
	DB	0cH
	DB	0cH
	DB	0cH
	DB	0cH
	DB	0cH
	DB	0cH
	DB	0cH
	DB	0cH
	DB	0cH
	DB	0cH
	DB	0cH
	DB	0cH
	DB	0cH
	DB	0cH
	DB	0cH
	DB	0cH
	DB	0cH
	DB	0cH
	DB	0cH
	DB	0cH
	DB	0cH
	DB	0cH
	DB	0cH
	DB	0cH
	DB	0cH
	DB	0cH
	DB	0cH
	DB	0cH
	DB	0cH
	DB	0cH
	DB	0cH
	DB	0cH
	DB	0cH
	DB	0cH
	DB	0cH
	DB	0cH
	DB	0cH
	DB	0cH
	DB	0cH
	DB	0cH
	DB	0cH
	DB	0cH
	DB	0cH
	DB	0cH
	DB	0cH
	DB	0cH
	DB	0cH
	DB	0cH
	DB	0cH
	DB	0cH
	DB	0cH
	DB	0cH
	DB	0cH
	DB	0cH
	DB	0cH
	DB	0cH
	DB	0cH
	DB	0cH
	DB	0cH
	DB	0cH
	DB	0cH
	DB	0cH
	DB	0cH
	DB	0cH
	DB	0cH
	DB	0cH
	DB	0cH
	DB	0cH
	DB	0cH
	DB	0cH
	DB	0cH
	DB	0cH
	DB	0cH
	DB	0cH
	DB	0cH
	DB	0cH
	DB	0cH
	DB	01H
	DB	01H
	DB	01H
	DB	01H
	DB	01H
	DB	01H
	DB	01H
	DB	01H
	DB	01H
	DB	01H
	DB	01H
	DB	01H
	DB	01H
	DB	01H
	DB	01H
	DB	01H
	DB	01H
	DB	01H
	DB	01H
	DB	01H
	DB	01H
	DB	01H
	DB	01H
	DB	01H
	DB	01H
	DB	01H
	DB	01H
	DB	01H
	DB	01H
	DB	01H
	DB	01H
	DB	01H
	DB	01H
	DB	01H
	DB	01H
	DB	01H
	DB	01H
	DB	01H
	DB	01H
	DB	01H
	DB	01H
	DB	01H
	DB	01H
	DB	01H
	DB	01H
	DB	01H
	DB	01H
	DB	01H
	DB	01H
	DB	01H
	DB	01H
	DB	01H
	DB	01H
	DB	01H
	DB	01H
	DB	01H
	DB	01H
	DB	01H
	DB	01H
	DB	01H
	DB	01H
	DB	01H
	DB	01H
	DB	01H
	DB	01H
	DB	01H
	DB	01H
	DB	01H
	DB	01H
	DB	01H
	DB	01H
	DB	01H
	DB	01H
	DB	01H
	DB	01H
	DB	01H
	DB	01H
	DB	01H
	DB	01H
	DB	01H
	DB	01H
	DB	01H
	DB	01H
	DB	057H
	DB	0c0H
	DB	01eH
	DB	0aH
	DB	02H
	DB	02H
	DB	08H
	DB	05aH
	DB	01aH
	DB	07H
	DB	0bH
	DB	01H
	DB	015H
	DB	05cH
	DB	075H
	DB	08H
	DB	08H
	DB	08H
	DB	02eH
	DB	02H
	DB	02H
	DB	02H
	DB	02H
	DB	02H
	DB	02H
	DB	02H
	DB	02H
	DB	02H
	DB	02H
	DB	08H
	DB	08cH
	DB	01aH
	DB	07H
	DB	0bH
	DB	01H
	DB	01H
	DB	01H
	DB	01H
	DB	01H
	DB	01H
	DB	079H
	DB	01cH
	DB	036H
	DB	0aH
	DB	02H
	DB	02H
	DB	01dH
	DB	0f3H
	DB	01aH
	DB	07H
	DB	0bH
	DB	0c3H
	DB	01H
	DB	01H
	DB	01H
	DB	0cfH
	DB	01fH
	DB	08eH
	DB	08H
	DB	02H
	DB	02H
	DB	02H
	DB	02H
	DB	01eH
	DB	01eH
	DB	01eH
	DB	01eH
	DB	01eH
	DB	01eH
	DB	01eH
	DB	01eH
	DB	01eH
	DB	036H
	DB	0aH
	DB	08H
	DB	02H
	DB	02H
	DB	02H
	DB	08H
	DB	027H
	DB	02aH
	DB	020H
	DB	01dH
	DB	02eH
	DB	02H
	DB	02H
	DB	02eH
	DB	08H
	DB	08H
	DB	08H
	DB	08H
	DB	08H
	DB	08H
	DB	08H
	DB	08H
	DB	08H
	DB	08H
	DB	02H
	DB	02H
	DB	02H
	DB	02H
	DB	02H
	DB	02H
	DB	02H
	DB	02H
	DB	02H
	DB	02H
	DB	01dH
	DB	0f7H
	DB	01aH
	DB	07H
	DB	0bH
	DB	0c3H
	DB	01H
	DB	01H
	DB	01H
	DB	01H
	DB	01H
	DB	01H
	DB	01H
	DB	01H
	DB	01H
	DB	0cfH
	DB	077H
	DB	05fH
	DB	08H
	DB	02H
	DB	02H
	DB	08H
	DB	021H
	DB	07aH
	DB	01eH
	DB	0aH
	DB	02H
	DB	02H
	DB	08H
	DB	05aH
	DB	01aH
	DB	07H
	DB	0bH
	DB	01H
	DB	01H
	DB	01H
	DB	01H
	DB	01H
	DB	01H
	DB	081H
	DB	0c0H
	DB	047H
	DB	08H
	DB	02H
	DB	02H
	DB	02H
	DB	02H
	DB	02H
	DB	02H
	DB	02H
	DB	02H
	DB	08H
	DB	08cH
	DB	01aH
	DB	07H
	DB	0bH
	DB	01H
	DB	07H
	DB	047H
	DB	01dH
	DB	08H
	DB	08H
	DB	08H
	DB	02eH
	DB	02H
	DB	02H
	DB	02H
	DB	02H
	DB	01dH
	DB	0f3H
	DB	04aH
	DB	0bH
	DB	0c3H
	DB	01H
	DB	01H
	DB	01H
	DB	01H
	DB	01H
	DB	01H
	DB	01H
	DB	01H
	DB	01H
	DB	01H
	DB	01H
	DB	01H
	DB	01H
	DB	01H
	DB	01H
	DB	01H
	DB	01H
	DB	01H
	DB	01H
	DB	01H
	DB	01H
	DB	01H
	DB	01H
	DB	01H
	DB	01H
	DB	01H
	DB	01H
	DB	01H
	DB	01H
	DB	01H
	DB	01H
	DB	01H
	DB	01H
	DB	01H
	DB	01H
	DB	01H
	DB	01H
	DB	01H
	DB	01H
	DB	01H
	DB	01H
	DB	01H
	DB	01H
	DB	01H
	DB	01H
	DB	01H
	DB	01H
	DB	01H
	DB	01H
	DB	01H
	DB	01H
	DB	01H
	DB	01H
	DB	01H
	DB	01H
	DB	01H
	DB	01H
	DB	01H
	DB	01H
	DB	01H
	DB	01H
	DB	01H
	DB	01H
	DB	01H
	DB	01H
	DB	01H
	DB	01H
	DB	01H
	DB	01H
	DB	01H
	DB	01H
	DB	01H
	DB	01H
	DB	01H
	DB	01H
	DB	01H
	DB	01H
	DB	01H
	DB	01H
	DB	01H
	DB	01H
	DB	01H
	DB	0c3H
	DB	0c3H
	DB	0c3H
	DB	0c3H
	DB	0c3H
	DB	0c3H
	DB	0c3H
	DB	0c3H
	DB	0c3H
	DB	0c3H
	DB	0c3H
	DB	0c3H
	DB	0c3H
	DB	0c3H
	DB	0c3H
	DB	0c3H
	DB	0c3H
	DB	0c3H
	DB	0c3H
	DB	0c3H
	DB	0c3H
	DB	0c3H
	DB	0c3H
	DB	0c3H
	DB	0c3H
	DB	0c3H
	DB	0c3H
	DB	0c3H
	DB	0c3H
	DB	0c3H
	DB	0c3H
	DB	0c3H
	DB	0c3H
	DB	0c3H
	DB	0c3H
	DB	0c3H
	DB	0c3H
	DB	0c3H
	DB	0c3H
	DB	0c3H
	DB	0c3H
	DB	0c3H
	DB	0c3H
	DB	0c3H
	DB	0c3H
	DB	0c3H
	DB	0c3H
	DB	0c3H
	DB	0c3H
	DB	0c3H
	DB	0c3H
	DB	0c3H
	DB	0c3H
	DB	0c3H
	DB	0c3H
	DB	0c3H
	DB	0c3H
	DB	0c3H
	DB	0c3H
	DB	0c3H
	DB	0c3H
	DB	0c3H
	DB	0c3H
	DB	0c3H
	DB	0c3H
	DB	0c3H
	DB	0c3H
	DB	0c3H
	DB	0c3H
	DB	0c3H
	DB	0c3H
	DB	0c3H
	DB	0c3H
	DB	0c3H
	DB	0c3H
	DB	0c3H
	DB	0c3H
	DB	0c3H
	DB	0c3H
	DB	0c3H
	DB	0c3H
	DB	0c3H
	DB	0c3H
	DB	01fH
	DB	067H
	DB	02eH
	DB	02H
	DB	02H
	DB	02H
	DB	01dH
	DB	0a7H
	DB	01aH
	DB	07H
	DB	0bH
	DB	0dH
	DB	055H
	DB	0acH
	DB	016H
	DB	022H
	DB	022H
	DB	03dH
	DB	033H
	DB	0aH
	DB	02H
	DB	02H
	DB	02H
	DB	02H
	DB	02H
	DB	02H
	DB	02H
	DB	02H
	DB	02H
	DB	0aH
	DB	02cH
	DB	038H
	DB	07H
	DB	0bH
	DB	0dH
	DB	0c3H
	DB	0c3H
	DB	0c3H
	DB	0c3H
	DB	0c3H
	DB	039H
	DB	0f2H
	DB	08H
	DB	02H
	DB	02H
	DB	0aH
	DB	02H
	DB	028H
	DB	01aH
	DB	07H
	DB	0bH
	DB	0dH
	DB	0c3H
	DB	0c3H
	DB	0c3H
	DB	081H
	DB	040H
	DB	016H
	DB	08H
	DB	02H
	DB	02H
	DB	02H
	DB	02H
	DB	0aH
	DB	0aH
	DB	0aH
	DB	0aH
	DB	0aH
	DB	0aH
	DB	0aH
	DB	0aH
	DB	0aH
	DB	0aH
	DB	02H
	DB	02H
	DB	02H
	DB	02H
	DB	08H
	DB	01eH
	DB	04cH
	DB	06aH
	DB	01dH
	DB	0aH
	DB	02H
	DB	02H
	DB	02eH
	DB	0b0H
	DB	022H
	DB	022H
	DB	022H
	DB	022H
	DB	022H
	DB	022H
	DB	022H
	DB	022H
	DB	022H
	DB	021H
	DB	01eH
	DB	0aH
	DB	02H
	DB	02H
	DB	02H
	DB	02H
	DB	02H
	DB	02H
	DB	02H
	DB	02H
	DB	08H
	DB	046H
	DB	01aH
	DB	0b9H
	DB	0bH
	DB	0dH
	DB	0c3H
	DB	0c3H
	DB	0c3H
	DB	0c3H
	DB	0c3H
	DB	0c3H
	DB	0c3H
	DB	0c3H
	DB	0c3H
	DB	0baH
	DB	097H
	DB	023H
	DB	02eH
	DB	02H
	DB	02H
	DB	08H
	DB	05aH
	DB	0e3H
	DB	02eH
	DB	02H
	DB	02H
	DB	02H
	DB	01dH
	DB	0a7H
	DB	01aH
	DB	07H
	DB	0bH
	DB	0dH
	DB	0c3H
	DB	0c3H
	DB	0c3H
	DB	0c3H
	DB	0c3H
	DB	01fH
	DB	0e5H
	DB	0aH
	DB	0aH
	DB	02H
	DB	02H
	DB	02H
	DB	02H
	DB	02H
	DB	02H
	DB	02H
	DB	02H
	DB	0aH
	DB	02cH
	DB	038H
	DB	07H
	DB	0bH
	DB	078H
	DB	07bH
	DB	090H
	DB	05eH
	DB	022H
	DB	022H
	DB	03dH
	DB	053H
	DB	02eH
	DB	02H
	DB	02H
	DB	0aH
	DB	02H
	DB	067H
	DB	048H
	DB	07H
	DB	0bH
	DB	0dH
	DB	0c3H
	DB	0c3H
	DB	0c3H
	DB	0c3H
	DB	0c3H
	DB	0c3H
	DB	0c3H
	DB	0c3H
	DB	0c3H
	DB	0c3H
	DB	0c3H
	DB	0c3H
	DB	0c3H
	DB	0c3H
	DB	0c3H
	DB	0c3H
	DB	0c3H
	DB	0c3H
	DB	0c3H
	DB	0c3H
	DB	0c3H
	DB	0c3H
	DB	0c3H
	DB	0c3H
	DB	0c3H
	DB	0c3H
	DB	0c3H
	DB	0c3H
	DB	0c3H
	DB	0c3H
	DB	0c3H
	DB	0c3H
	DB	0c3H
	DB	0c3H
	DB	0c3H
	DB	0c3H
	DB	0c3H
	DB	0c3H
	DB	0c3H
	DB	0c3H
	DB	0c3H
	DB	0c3H
	DB	0c3H
	DB	0c3H
	DB	0c3H
	DB	0c3H
	DB	0c3H
	DB	0c3H
	DB	0c3H
	DB	0c3H
	DB	0c3H
	DB	0c3H
	DB	0c3H
	DB	0c3H
	DB	0c3H
	DB	0c3H
	DB	0c3H
	DB	0c3H
	DB	0c3H
	DB	0c3H
	DB	0c3H
	DB	0c3H
	DB	0c3H
	DB	0c3H
	DB	0c3H
	DB	0c3H
	DB	0c3H
	DB	0c3H
	DB	0c3H
	DB	0c3H
	DB	0c3H
	DB	0c3H
	DB	0c3H
	DB	0c3H
	DB	0c3H
	DB	0c3H
	DB	0c3H
	DB	0c3H
	DB	0c3H
	DB	0c3H
	DB	0c3H
	DB	0bH
	DB	0bH
	DB	0bH
	DB	0bH
	DB	0bH
	DB	0bH
	DB	0bH
	DB	0bH
	DB	0bH
	DB	0bH
	DB	0bH
	DB	0bH
	DB	0bH
	DB	0bH
	DB	0bH
	DB	0bH
	DB	0bH
	DB	0bH
	DB	0bH
	DB	0bH
	DB	0bH
	DB	0bH
	DB	0bH
	DB	0bH
	DB	0bH
	DB	0bH
	DB	0bH
	DB	0bH
	DB	0bH
	DB	0bH
	DB	0bH
	DB	0bH
	DB	0bH
	DB	0bH
	DB	0bH
	DB	0bH
	DB	0bH
	DB	0bH
	DB	0bH
	DB	0bH
	DB	0bH
	DB	0bH
	DB	0bH
	DB	0bH
	DB	0bH
	DB	0bH
	DB	0bH
	DB	0bH
	DB	0bH
	DB	0bH
	DB	0bH
	DB	0bH
	DB	0bH
	DB	0bH
	DB	0bH
	DB	0bH
	DB	0bH
	DB	0bH
	DB	0bH
	DB	0bH
	DB	0bH
	DB	0bH
	DB	0bH
	DB	0bH
	DB	0bH
	DB	0bH
	DB	0bH
	DB	0bH
	DB	0bH
	DB	0bH
	DB	0bH
	DB	0bH
	DB	0bH
	DB	0bH
	DB	0bH
	DB	0bH
	DB	0bH
	DB	0bH
	DB	0bH
	DB	0bH
	DB	0bH
	DB	0bH
	DB	078H
	DB	0b8H
	DB	03cH
	DB	08H
	DB	02H
	DB	02H
	DB	0aH
	DB	03fH
	DB	02cH
	DB	0b6H
	DB	0b9H
	DB	01bH
	DB	0bH
	DB	0bH
	DB	07H
	DB	0b9H
	DB	041H
	DB	049H
	DB	01aH
	DB	069H
	DB	01dH
	DB	02H
	DB	02H
	DB	02H
	DB	02H
	DB	02H
	DB	02H
	DB	02H
	DB	02H
	DB	02eH
	DB	034H
	DB	094H
	DB	04H
	DB	07H
	DB	01bH
	DB	0bH
	DB	0bH
	DB	0bH
	DB	0bH
	DB	0bH
	DB	078H
	DB	040H
	DB	030H
	DB	01dH
	DB	02H
	DB	02H
	DB	02eH
	DB	023H
	DB	02bH
	DB	037H
	DB	07H
	DB	01bH
	DB	0bH
	DB	0bH
	DB	0bH
	DB	0bH
	DB	0baH
	DB	095H
	DB	013H
	DB	02eH
	DB	02H
	DB	02H
	DB	02H
	DB	02H
	DB	02H
	DB	02H
	DB	02H
	DB	02H
	DB	02H
	DB	02H
	DB	02H
	DB	02H
	DB	02H
	DB	02H
	DB	02H
	DB	02H
	DB	02eH
	DB	01dH
	DB	031H
	DB	0e3H
	DB	02fH
	DB	036H
	DB	02eH
	DB	02H
	DB	02H
	DB	08H
	DB	05cH
	DB	094H
	DB	076H
	DB	076H
	DB	076H
	DB	049H
	DB	049H
	DB	049H
	DB	049H
	DB	049H
	DB	01aH
	DB	04cH
	DB	036H
	DB	02eH
	DB	02H
	DB	02H
	DB	02H
	DB	02H
	DB	02H
	DB	02H
	DB	02H
	DB	02H
	DB	0aH
	DB	024H
	DB	01aH
	DB	0b9H
	DB	01bH
	DB	0bH
	DB	0bH
	DB	0bH
	DB	0bH
	DB	0bH
	DB	0bH
	DB	0bH
	DB	0bH
	DB	0bH
	DB	0bH
	DB	039H
	DB	088H
	DB	01dH
	DB	02H
	DB	02H
	DB	02H
	DB	02eH
	DB	028H
	DB	08dH
	DB	08H
	DB	02H
	DB	02H
	DB	0aH
	DB	0aH
	DB	02dH
	DB	01aH
	DB	0b9H
	DB	01bH
	DB	0bH
	DB	0bH
	DB	0bH
	DB	0bH
	DB	0bH
	DB	0bH
	DB	039H
	DB	0eeH
	DB	01dH
	DB	02H
	DB	02H
	DB	02H
	DB	02H
	DB	02H
	DB	02H
	DB	02H
	DB	02H
	DB	02eH
	DB	034H
	DB	094H
	DB	04H
	DB	07H
	DB	01bH
	DB	0bH
	DB	0bH
	DB	0b9H
	DB	041H
	DB	041H
	DB	049H
	DB	00H
	DB	06cH
	DB	01dH
	DB	02H
	DB	02H
	DB	02eH
	DB	023H
	DB	02bH
	DB	038H
	DB	07H
	DB	01bH
	DB	0bH
	DB	0bH
	DB	0bH
	DB	0bH
	DB	0bH
	DB	0bH
	DB	0bH
	DB	0bH
	DB	0bH
	DB	0bH
	DB	0bH
	DB	0bH
	DB	0bH
	DB	0bH
	DB	0bH
	DB	0bH
	DB	0bH
	DB	0bH
	DB	0bH
	DB	0bH
	DB	0bH
	DB	0bH
	DB	0bH
	DB	0bH
	DB	0bH
	DB	0bH
	DB	0bH
	DB	0bH
	DB	0bH
	DB	0bH
	DB	0bH
	DB	0bH
	DB	0bH
	DB	0bH
	DB	0bH
	DB	0bH
	DB	0bH
	DB	0bH
	DB	0bH
	DB	0bH
	DB	0bH
	DB	0bH
	DB	0bH
	DB	0bH
	DB	0bH
	DB	0bH
	DB	0bH
	DB	0bH
	DB	0bH
	DB	0bH
	DB	0bH
	DB	0bH
	DB	0bH
	DB	0bH
	DB	0bH
	DB	0bH
	DB	0bH
	DB	0bH
	DB	0bH
	DB	0bH
	DB	0bH
	DB	0bH
	DB	0bH
	DB	0bH
	DB	0bH
	DB	0bH
	DB	0bH
	DB	0bH
	DB	0bH
	DB	0bH
	DB	0bH
	DB	0bH
	DB	0bH
	DB	0bH
	DB	0bH
	DB	0bH
	DB	0bH
	DB	0bH
	DB	0bH
	DB	0bH
	DB	0bH
	DB	0bH
	DB	01bH
	DB	01bH
	DB	01bH
	DB	01bH
	DB	01bH
	DB	01bH
	DB	01bH
	DB	01bH
	DB	01bH
	DB	01bH
	DB	01bH
	DB	01bH
	DB	01bH
	DB	01bH
	DB	01bH
	DB	01bH
	DB	01bH
	DB	01bH
	DB	01bH
	DB	01bH
	DB	01bH
	DB	01bH
	DB	01bH
	DB	01bH
	DB	01bH
	DB	01bH
	DB	01bH
	DB	01bH
	DB	01bH
	DB	01bH
	DB	01bH
	DB	01bH
	DB	01bH
	DB	01bH
	DB	01bH
	DB	01bH
	DB	01bH
	DB	01bH
	DB	01bH
	DB	01bH
	DB	01bH
	DB	01bH
	DB	01bH
	DB	01bH
	DB	01bH
	DB	01bH
	DB	01bH
	DB	01bH
	DB	01bH
	DB	01bH
	DB	01bH
	DB	01bH
	DB	01bH
	DB	01bH
	DB	01bH
	DB	01bH
	DB	01bH
	DB	01bH
	DB	01bH
	DB	01bH
	DB	01bH
	DB	01bH
	DB	01bH
	DB	01bH
	DB	01bH
	DB	01bH
	DB	01bH
	DB	01bH
	DB	01bH
	DB	01bH
	DB	01bH
	DB	01bH
	DB	01bH
	DB	01bH
	DB	01bH
	DB	01bH
	DB	01bH
	DB	01bH
	DB	01bH
	DB	01bH
	DB	01bH
	DB	01bH
	DB	01bH
	DB	060H
	DB	03dH
	DB	08H
	DB	02H
	DB	02H
	DB	02eH
	DB	023H
	DB	056H
	DB	01aH
	DB	038H
	DB	040H
	DB	015H
	DB	015H
	DB	0b8H
	DB	04aH
	DB	048H
	DB	0b6H
	DB	00H
	DB	08eH
	DB	08H
	DB	02H
	DB	02H
	DB	02H
	DB	0aH
	DB	02H
	DB	02H
	DB	02H
	DB	02H
	DB	02eH
	DB	05fH
	DB	02aH
	DB	01aH
	DB	060H
	DB	040H
	DB	015H
	DB	015H
	DB	015H
	DB	015H
	DB	015H
	DB	04aH
	DB	095H
	DB	03eH
	DB	02eH
	DB	02H
	DB	02H
	DB	08H
	DB	052H
	DB	0b5H
	DB	04H
	DB	0b9H
	DB	07H
	DB	01bH
	DB	01bH
	DB	01bH
	DB	01bH
	DB	015H
	DB	024H
	DB	017H
	DB	0aH
	DB	02H
	DB	02H
	DB	02H
	DB	0aH
	DB	02H
	DB	02H
	DB	02H
	DB	02H
	DB	02H
	DB	02H
	DB	02H
	DB	02eH
	DB	08H
	DB	08H
	DB	01dH
	DB	01dH
	DB	017H
	DB	014H
	DB	07aH
	DB	00H
	DB	08cH
	DB	08H
	DB	02H
	DB	02H
	DB	02H
	DB	01dH
	DB	018H
	DB	00H
	DB	01aH
	DB	01aH
	DB	01aH
	DB	01aH
	DB	01aH
	DB	01aH
	DB	01aH
	DB	01aH
	DB	01aH
	DB	045H
	DB	08H
	DB	02H
	DB	02H
	DB	02H
	DB	02H
	DB	0aH
	DB	02H
	DB	02H
	DB	02H
	DB	02H
	DB	0aH
	DB	04cH
	DB	01aH
	DB	038H
	DB	040H
	DB	015H
	DB	015H
	DB	015H
	DB	015H
	DB	015H
	DB	015H
	DB	015H
	DB	015H
	DB	015H
	DB	015H
	DB	040H
	DB	046H
	DB	08H
	DB	02H
	DB	02H
	DB	02H
	DB	02H
	DB	04bH
	DB	06dH
	DB	01dH
	DB	02H
	DB	02H
	DB	02eH
	DB	053H
	DB	094H
	DB	037H
	DB	0b9H
	DB	07H
	DB	01bH
	DB	01bH
	DB	01bH
	DB	01bH
	DB	01bH
	DB	01bH
	DB	040H
	DB	05aH
	DB	08H
	DB	02H
	DB	02H
	DB	02H
	DB	0aH
	DB	02H
	DB	02H
	DB	02H
	DB	02H
	DB	02eH
	DB	05fH
	DB	02aH
	DB	01aH
	DB	060H
	DB	040H
	DB	015H
	DB	015H
	DB	0b8H
	DB	04aH
	DB	048H
	DB	01aH
	DB	0b5H
	DB	022H
	DB	08H
	DB	02H
	DB	02H
	DB	02eH
	DB	052H
	DB	0b5H
	DB	04H
	DB	0b9H
	DB	07H
	DB	01bH
	DB	01bH
	DB	01bH
	DB	01bH
	DB	01bH
	DB	01bH
	DB	01bH
	DB	01bH
	DB	01bH
	DB	01bH
	DB	01bH
	DB	01bH
	DB	01bH
	DB	01bH
	DB	01bH
	DB	01bH
	DB	01bH
	DB	01bH
	DB	01bH
	DB	01bH
	DB	01bH
	DB	01bH
	DB	01bH
	DB	01bH
	DB	01bH
	DB	01bH
	DB	01bH
	DB	01bH
	DB	01bH
	DB	01bH
	DB	01bH
	DB	01bH
	DB	01bH
	DB	01bH
	DB	01bH
	DB	01bH
	DB	01bH
	DB	01bH
	DB	01bH
	DB	01bH
	DB	01bH
	DB	01bH
	DB	01bH
	DB	01bH
	DB	01bH
	DB	01bH
	DB	01bH
	DB	01bH
	DB	01bH
	DB	01bH
	DB	01bH
	DB	01bH
	DB	01bH
	DB	01bH
	DB	01bH
	DB	01bH
	DB	01bH
	DB	01bH
	DB	01bH
	DB	01bH
	DB	01bH
	DB	01bH
	DB	01bH
	DB	01bH
	DB	01bH
	DB	01bH
	DB	01bH
	DB	01bH
	DB	01bH
	DB	01bH
	DB	01bH
	DB	01bH
	DB	01bH
	DB	01bH
	DB	01bH
	DB	01bH
	DB	01bH
	DB	01bH
	DB	01bH
	DB	01bH
	DB	01bH
	DB	01bH
	DB	07H
	DB	07H
	DB	07H
	DB	07H
	DB	07H
	DB	07H
	DB	07H
	DB	07H
	DB	07H
	DB	07H
	DB	07H
	DB	07H
	DB	07H
	DB	07H
	DB	07H
	DB	07H
	DB	07H
	DB	07H
	DB	07H
	DB	07H
	DB	07H
	DB	07H
	DB	07H
	DB	07H
	DB	07H
	DB	07H
	DB	07H
	DB	07H
	DB	07H
	DB	07H
	DB	07H
	DB	07H
	DB	07H
	DB	07H
	DB	07H
	DB	07H
	DB	07H
	DB	07H
	DB	07H
	DB	07H
	DB	07H
	DB	07H
	DB	07H
	DB	07H
	DB	07H
	DB	07H
	DB	07H
	DB	07H
	DB	07H
	DB	07H
	DB	07H
	DB	07H
	DB	07H
	DB	07H
	DB	07H
	DB	07H
	DB	07H
	DB	07H
	DB	07H
	DB	07H
	DB	07H
	DB	07H
	DB	07H
	DB	07H
	DB	07H
	DB	07H
	DB	07H
	DB	07H
	DB	07H
	DB	07H
	DB	07H
	DB	07H
	DB	07H
	DB	07H
	DB	07H
	DB	07H
	DB	07H
	DB	07H
	DB	07H
	DB	07H
	DB	07H
	DB	07H
	DB	015H
	DB	041H
	DB	05fH
	DB	08H
	DB	02H
	DB	02H
	DB	02H
	DB	02eH
	DB	05bH
	DB	018H
	DB	024H
	DB	018H
	DB	066H
	DB	066H
	DB	066H
	DB	018H
	DB	018H
	DB	024H
	DB	045H
	DB	03eH
	DB	02eH
	DB	02H
	DB	02H
	DB	0aH
	DB	023H
	DB	017H
	DB	02H
	DB	02H
	DB	02H
	DB	02H
	DB	02H
	DB	030H
	DB	045H
	DB	024H
	DB	018H
	DB	066H
	DB	066H
	DB	066H
	DB	066H
	DB	024H
	DB	067H
	DB	05eH
	DB	08H
	DB	02H
	DB	02H
	DB	02H
	DB	01dH
	DB	03cH
	DB	00H
	DB	04H
	DB	041H
	DB	0b9H
	DB	07H
	DB	07H
	DB	07H
	DB	07H
	DB	048H
	DB	08cH
	DB	08H
	DB	02H
	DB	02H
	DB	02H
	DB	017H
	DB	036H
	DB	08H
	DB	02H
	DB	02H
	DB	02H
	DB	02H
	DB	02H
	DB	02H
	DB	021H
	DB	05bH
	DB	03dH
	DB	020H
	DB	03aH
	DB	04cH
	DB	00H
	DB	01aH
	DB	00H
	DB	030H
	DB	08H
	DB	02H
	DB	02H
	DB	02H
	DB	02eH
	DB	021H
	DB	018H
	DB	024H
	DB	024H
	DB	024H
	DB	024H
	DB	024H
	DB	024H
	DB	024H
	DB	024H
	DB	087H
	DB	020H
	DB	08H
	DB	02H
	DB	02H
	DB	02H
	DB	02H
	DB	023H
	DB	02H
	DB	02H
	DB	02H
	DB	02H
	DB	02eH
	DB	05dH
	DB	018H
	DB	024H
	DB	018H
	DB	066H
	DB	066H
	DB	066H
	DB	066H
	DB	066H
	DB	066H
	DB	066H
	DB	066H
	DB	066H
	DB	0a3H
	DB	0b5H
	DB	03dH
	DB	08H
	DB	02H
	DB	02H
	DB	02eH
	DB	053H
	DB	056H
	DB	0feH
	DB	08H
	DB	02H
	DB	02H
	DB	08H
	DB	05dH
	DB	00H
	DB	0b5H
	DB	04H
	DB	0b9H
	DB	07H
	DB	07H
	DB	07H
	DB	07H
	DB	07H
	DB	07H
	DB	037H
	DB	05fH
	DB	08H
	DB	02H
	DB	02H
	DB	0aH
	DB	023H
	DB	017H
	DB	02H
	DB	02H
	DB	02H
	DB	02H
	DB	02H
	DB	030H
	DB	045H
	DB	024H
	DB	018H
	DB	066H
	DB	066H
	DB	066H
	DB	018H
	DB	018H
	DB	045H
	DB	089H
	DB	036H
	DB	0aH
	DB	02H
	DB	02H
	DB	08H
	DB	014H
	DB	00H
	DB	04H
	DB	041H
	DB	0b9H
	DB	07H
	DB	07H
	DB	07H
	DB	07H
	DB	07H
	DB	07H
	DB	07H
	DB	07H
	DB	07H
	DB	07H
	DB	07H
	DB	07H
	DB	07H
	DB	07H
	DB	07H
	DB	07H
	DB	07H
	DB	07H
	DB	07H
	DB	07H
	DB	07H
	DB	07H
	DB	07H
	DB	07H
	DB	07H
	DB	07H
	DB	07H
	DB	07H
	DB	07H
	DB	07H
	DB	07H
	DB	07H
	DB	07H
	DB	07H
	DB	07H
	DB	07H
	DB	07H
	DB	07H
	DB	07H
	DB	07H
	DB	07H
	DB	07H
	DB	07H
	DB	07H
	DB	07H
	DB	07H
	DB	07H
	DB	07H
	DB	07H
	DB	07H
	DB	07H
	DB	07H
	DB	07H
	DB	07H
	DB	07H
	DB	07H
	DB	07H
	DB	07H
	DB	07H
	DB	07H
	DB	07H
	DB	07H
	DB	07H
	DB	07H
	DB	07H
	DB	07H
	DB	07H
	DB	07H
	DB	07H
	DB	07H
	DB	07H
	DB	07H
	DB	07H
	DB	07H
	DB	07H
	DB	07H
	DB	07H
	DB	07H
	DB	07H
	DB	07H
	DB	07H
	DB	07H
	DB	041H
	DB	041H
	DB	041H
	DB	041H
	DB	041H
	DB	041H
	DB	041H
	DB	041H
	DB	041H
	DB	041H
	DB	041H
	DB	041H
	DB	041H
	DB	041H
	DB	041H
	DB	041H
	DB	041H
	DB	041H
	DB	041H
	DB	041H
	DB	041H
	DB	041H
	DB	041H
	DB	041H
	DB	041H
	DB	041H
	DB	041H
	DB	041H
	DB	041H
	DB	041H
	DB	041H
	DB	041H
	DB	041H
	DB	041H
	DB	041H
	DB	041H
	DB	041H
	DB	041H
	DB	041H
	DB	041H
	DB	041H
	DB	041H
	DB	041H
	DB	041H
	DB	041H
	DB	041H
	DB	041H
	DB	041H
	DB	041H
	DB	041H
	DB	041H
	DB	041H
	DB	041H
	DB	041H
	DB	041H
	DB	041H
	DB	041H
	DB	041H
	DB	041H
	DB	041H
	DB	041H
	DB	041H
	DB	041H
	DB	041H
	DB	041H
	DB	041H
	DB	041H
	DB	041H
	DB	041H
	DB	041H
	DB	041H
	DB	041H
	DB	041H
	DB	041H
	DB	041H
	DB	041H
	DB	041H
	DB	041H
	DB	041H
	DB	041H
	DB	041H
	DB	041H
	DB	040H
	DB	037H
	DB	05eH
	DB	08H
	DB	02H
	DB	02H
	DB	02H
	DB	02H
	DB	02eH
	DB	02H
	DB	03fH
	DB	03fH
	DB	03fH
	DB	03fH
	DB	03fH
	DB	03fH
	DB	03fH
	DB	03fH
	DB	03fH
	DB	0aH
	DB	02H
	DB	02H
	DB	02H
	DB	08H
	DB	025H
	DB	053H
	DB	02eH
	DB	02H
	DB	02H
	DB	02H
	DB	02H
	DB	02eH
	DB	03fH
	DB	03fH
	DB	03fH
	DB	03fH
	DB	03fH
	DB	03fH
	DB	03fH
	DB	017H
	DB	0aH
	DB	08H
	DB	02H
	DB	02H
	DB	02H
	DB	08H
	DB	023H
	DB	07aH
	DB	01aH
	DB	0b5H
	DB	04H
	DB	041H
	DB	041H
	DB	041H
	DB	041H
	DB	040H
	DB	037H
	DB	020H
	DB	01dH
	DB	02H
	DB	02H
	DB	02eH
	DB	031H
	DB	02dH
	DB	06dH
	DB	01dH
	DB	0aH
	DB	02H
	DB	02H
	DB	02H
	DB	02eH
	DB	016H
	DB	04cH
	DB	00H
	DB	00H
	DB	00H
	DB	00H
	DB	0b5H
	DB	0b5H
	DB	00H
	DB	06bH
	DB	08H
	DB	02H
	DB	02H
	DB	02H
	DB	02H
	DB	02eH
	DB	02H
	DB	03fH
	DB	03fH
	DB	03fH
	DB	03fH
	DB	03fH
	DB	03fH
	DB	03fH
	DB	03fH
	DB	03fH
	DB	02H
	DB	02H
	DB	02H
	DB	02H
	DB	02eH
	DB	052H
	DB	03dH
	DB	02eH
	DB	02H
	DB	02H
	DB	02H
	DB	02H
	DB	08H
	DB	02H
	DB	017H
	DB	03fH
	DB	03fH
	DB	03fH
	DB	03fH
	DB	03fH
	DB	03fH
	DB	03fH
	DB	03fH
	DB	03fH
	DB	0aH
	DB	03eH
	DB	02aH
	DB	053H
	DB	02eH
	DB	02H
	DB	02H
	DB	08H
	DB	05bH
	DB	02dH
	DB	017H
	DB	0aH
	DB	02H
	DB	02H
	DB	08H
	DB	030H
	DB	00H
	DB	0b5H
	DB	04H
	DB	041H
	DB	041H
	DB	041H
	DB	041H
	DB	041H
	DB	041H
	DB	040H
	DB	042H
	DB	023H
	DB	02eH
	DB	02H
	DB	02H
	DB	08H
	DB	025H
	DB	053H
	DB	02eH
	DB	02H
	DB	02H
	DB	02H
	DB	02H
	DB	02eH
	DB	03fH
	DB	03fH
	DB	03fH
	DB	03fH
	DB	03fH
	DB	03fH
	DB	03fH
	DB	03fH
	DB	03fH
	DB	03fH
	DB	0aH
	DB	02H
	DB	02H
	DB	02H
	DB	01dH
	DB	04eH
	DB	00H
	DB	0b5H
	DB	04H
	DB	041H
	DB	041H
	DB	041H
	DB	041H
	DB	041H
	DB	041H
	DB	041H
	DB	041H
	DB	041H
	DB	041H
	DB	041H
	DB	041H
	DB	041H
	DB	041H
	DB	041H
	DB	041H
	DB	041H
	DB	041H
	DB	041H
	DB	041H
	DB	041H
	DB	041H
	DB	041H
	DB	041H
	DB	041H
	DB	041H
	DB	041H
	DB	041H
	DB	041H
	DB	041H
	DB	041H
	DB	041H
	DB	041H
	DB	041H
	DB	041H
	DB	041H
	DB	041H
	DB	041H
	DB	041H
	DB	041H
	DB	041H
	DB	041H
	DB	041H
	DB	041H
	DB	041H
	DB	041H
	DB	041H
	DB	041H
	DB	041H
	DB	041H
	DB	041H
	DB	041H
	DB	041H
	DB	041H
	DB	041H
	DB	041H
	DB	041H
	DB	041H
	DB	041H
	DB	041H
	DB	041H
	DB	041H
	DB	041H
	DB	041H
	DB	041H
	DB	041H
	DB	041H
	DB	041H
	DB	041H
	DB	041H
	DB	041H
	DB	041H
	DB	041H
	DB	041H
	DB	041H
	DB	041H
	DB	041H
	DB	041H
	DB	041H
	DB	041H
	DB	041H
	DB	041H
	DB	041H
	DB	04H
	DB	04H
	DB	04H
	DB	04H
	DB	04H
	DB	04H
	DB	04H
	DB	04H
	DB	04H
	DB	04H
	DB	04H
	DB	04H
	DB	04H
	DB	04H
	DB	04H
	DB	04H
	DB	04H
	DB	04H
	DB	04H
	DB	04H
	DB	04H
	DB	04H
	DB	04H
	DB	04H
	DB	04H
	DB	04H
	DB	04H
	DB	04H
	DB	04H
	DB	04H
	DB	04H
	DB	04H
	DB	04H
	DB	04H
	DB	04H
	DB	04H
	DB	04H
	DB	04H
	DB	04H
	DB	04H
	DB	04H
	DB	04H
	DB	04H
	DB	04H
	DB	04H
	DB	04H
	DB	04H
	DB	04H
	DB	04H
	DB	04H
	DB	04H
	DB	04H
	DB	04H
	DB	04H
	DB	04H
	DB	04H
	DB	04H
	DB	04H
	DB	04H
	DB	04H
	DB	04H
	DB	04H
	DB	04H
	DB	04H
	DB	04H
	DB	04H
	DB	04H
	DB	04H
	DB	04H
	DB	04H
	DB	04H
	DB	04H
	DB	04H
	DB	04H
	DB	04H
	DB	04H
	DB	04H
	DB	04H
	DB	04H
	DB	04H
	DB	04H
	DB	04H
	DB	04H
	DB	01aH
	DB	04fH
	DB	01dH
	DB	02H
	DB	02H
	DB	02H
	DB	02H
	DB	02H
	DB	0aH
	DB	0aH
	DB	0aH
	DB	0aH
	DB	0aH
	DB	0aH
	DB	0aH
	DB	0aH
	DB	0aH
	DB	0aH
	DB	02H
	DB	02H
	DB	02H
	DB	02H
	DB	08H
	DB	04eH
	DB	08fH
	DB	01dH
	DB	02H
	DB	02H
	DB	02H
	DB	02H
	DB	02H
	DB	0aH
	DB	0aH
	DB	0aH
	DB	0aH
	DB	0aH
	DB	0aH
	DB	0aH
	DB	0aH
	DB	0aH
	DB	02H
	DB	02H
	DB	02H
	DB	02eH
	DB	0aH
	DB	089H
	DB	00H
	DB	0b5H
	DB	0b5H
	DB	04H
	DB	04H
	DB	04H
	DB	04H
	DB	04H
	DB	038H
	DB	032H
	DB	05fH
	DB	02eH
	DB	02H
	DB	02H
	DB	08H
	DB	033H
	DB	00H
	DB	00H
	DB	03bH
	DB	02H
	DB	02eH
	DB	02H
	DB	02H
	DB	02H
	DB	08H
	DB	036H
	DB	04eH
	DB	00H
	DB	00H
	DB	0b5H
	DB	0b5H
	DB	0b5H
	DB	01aH
	DB	018H
	DB	02eH
	DB	02H
	DB	02H
	DB	02H
	DB	02H
	DB	02H
	DB	0aH
	DB	0aH
	DB	0aH
	DB	0aH
	DB	0aH
	DB	0aH
	DB	0aH
	DB	0aH
	DB	0aH
	DB	0aH
	DB	02H
	DB	02H
	DB	02H
	DB	02H
	DB	08H
	DB	014H
	DB	0a7H
	DB	08H
	DB	02H
	DB	02H
	DB	02H
	DB	02H
	DB	02H
	DB	0aH
	DB	0aH
	DB	0aH
	DB	0aH
	DB	0aH
	DB	0aH
	DB	0aH
	DB	0aH
	DB	0aH
	DB	0aH
	DB	0aH
	DB	08H
	DB	014H
	DB	04cH
	DB	036H
	DB	0aH
	DB	02H
	DB	02H
	DB	01dH
	DB	0a9H
	DB	0e4H
	DB	01dH
	DB	02H
	DB	02H
	DB	02H
	DB	02eH
	DB	028H
	DB	00H
	DB	0b5H
	DB	0b5H
	DB	04H
	DB	04H
	DB	04H
	DB	04H
	DB	04H
	DB	04H
	DB	01aH
	DB	088H
	DB	02H
	DB	0aH
	DB	02H
	DB	02H
	DB	08H
	DB	04eH
	DB	08fH
	DB	01dH
	DB	02H
	DB	02H
	DB	02H
	DB	02H
	DB	02H
	DB	0aH
	DB	0aH
	DB	0aH
	DB	0aH
	DB	0aH
	DB	0aH
	DB	0aH
	DB	0aH
	DB	0aH
	DB	0aH
	DB	02H
	DB	02H
	DB	02H
	DB	0aH
	DB	02eH
	DB	02dH
	DB	00H
	DB	0b5H
	DB	0b5H
	DB	04H
	DB	04H
	DB	04H
	DB	04H
	DB	04H
	DB	04H
	DB	04H
	DB	04H
	DB	04H
	DB	04H
	DB	04H
	DB	04H
	DB	04H
	DB	04H
	DB	04H
	DB	04H
	DB	04H
	DB	04H
	DB	04H
	DB	04H
	DB	04H
	DB	04H
	DB	04H
	DB	04H
	DB	04H
	DB	04H
	DB	04H
	DB	04H
	DB	04H
	DB	04H
	DB	04H
	DB	04H
	DB	04H
	DB	04H
	DB	04H
	DB	04H
	DB	04H
	DB	04H
	DB	04H
	DB	04H
	DB	04H
	DB	04H
	DB	04H
	DB	04H
	DB	04H
	DB	04H
	DB	04H
	DB	04H
	DB	04H
	DB	04H
	DB	04H
	DB	04H
	DB	04H
	DB	04H
	DB	04H
	DB	04H
	DB	04H
	DB	04H
	DB	04H
	DB	04H
	DB	04H
	DB	04H
	DB	04H
	DB	04H
	DB	04H
	DB	04H
	DB	04H
	DB	04H
	DB	04H
	DB	04H
	DB	04H
	DB	04H
	DB	04H
	DB	04H
	DB	04H
	DB	04H
	DB	04H
	DB	04H
	DB	04H
	DB	04H
	DB	04H
	DB	04H
	DB	04H
	DB	0b5H
	DB	0b5H
	DB	0b5H
	DB	0b5H
	DB	0b5H
	DB	0b5H
	DB	0b5H
	DB	0b5H
	DB	0b5H
	DB	0b5H
	DB	0b5H
	DB	0b5H
	DB	0b5H
	DB	0b5H
	DB	0b5H
	DB	0b5H
	DB	0b5H
	DB	0b5H
	DB	0b5H
	DB	0b5H
	DB	0b5H
	DB	0b5H
	DB	0b5H
	DB	0b5H
	DB	0b5H
	DB	0b5H
	DB	0b5H
	DB	0b5H
	DB	0b5H
	DB	0b5H
	DB	0b5H
	DB	0b5H
	DB	0b5H
	DB	0b5H
	DB	0b5H
	DB	0b5H
	DB	0b5H
	DB	0b5H
	DB	0b5H
	DB	0b5H
	DB	0b5H
	DB	0b5H
	DB	0b5H
	DB	0b5H
	DB	0b5H
	DB	0b5H
	DB	0b5H
	DB	0b5H
	DB	0b5H
	DB	0b5H
	DB	0b5H
	DB	0b5H
	DB	0b5H
	DB	0b5H
	DB	0b5H
	DB	0b5H
	DB	0b5H
	DB	0b5H
	DB	0b5H
	DB	0b5H
	DB	0b5H
	DB	0b5H
	DB	0b5H
	DB	0b5H
	DB	0b5H
	DB	0b5H
	DB	0b5H
	DB	0b5H
	DB	0b5H
	DB	0b5H
	DB	0b5H
	DB	0b5H
	DB	0b5H
	DB	0b5H
	DB	0b5H
	DB	0b5H
	DB	0b5H
	DB	0b5H
	DB	0b5H
	DB	0b5H
	DB	0b5H
	DB	0b5H
	DB	0b5H
	DB	037H
	DB	0b7H
	DB	016H
	DB	01dH
	DB	0aH
	DB	02H
	DB	02H
	DB	02H
	DB	02H
	DB	02H
	DB	02H
	DB	02H
	DB	02H
	DB	02H
	DB	02H
	DB	02H
	DB	02H
	DB	02H
	DB	02H
	DB	02H
	DB	02H
	DB	0aH
	DB	017H
	DB	02cH
	DB	02fH
	DB	031H
	DB	01dH
	DB	02H
	DB	02H
	DB	02H
	DB	02H
	DB	02H
	DB	02H
	DB	02H
	DB	02H
	DB	02H
	DB	02H
	DB	02H
	DB	02H
	DB	02H
	DB	02H
	DB	0aH
	DB	01dH
	DB	023H
	DB	028H
	DB	00H
	DB	00H
	DB	0b5H
	DB	0b5H
	DB	0b5H
	DB	0b5H
	DB	0b5H
	DB	0b5H
	DB	0b5H
	DB	01aH
	DB	056H
	DB	01eH
	DB	0aH
	DB	02H
	DB	02H
	DB	08H
	DB	020H
	DB	00H
	DB	00H
	DB	00H
	DB	018H
	DB	031H
	DB	08H
	DB	02H
	DB	02H
	DB	02H
	DB	02eH
	DB	08H
	DB	025H
	DB	02fH
	DB	00H
	DB	0b5H
	DB	0b5H
	DB	0b5H
	DB	0b5H
	DB	025H
	DB	01dH
	DB	0aH
	DB	02H
	DB	02H
	DB	02H
	DB	02H
	DB	02H
	DB	02H
	DB	02H
	DB	02H
	DB	02H
	DB	02H
	DB	02H
	DB	02H
	DB	02H
	DB	02H
	DB	02H
	DB	02H
	DB	02H
	DB	01dH
	DB	04fH
	DB	00H
	DB	0f7H
	DB	01dH
	DB	0aH
	DB	02H
	DB	02H
	DB	02H
	DB	02H
	DB	02H
	DB	02H
	DB	02H
	DB	02H
	DB	02H
	DB	02H
	DB	02H
	DB	02H
	DB	02H
	DB	02H
	DB	01dH
	DB	069H
	DB	089H
	DB	08H
	DB	02H
	DB	02H
	DB	0aH
	DB	0aH
	DB	088H
	DB	046H
	DB	08H
	DB	02H
	DB	02H
	DB	02H
	DB	03fH
	DB	04bH
	DB	00H
	DB	0b5H
	DB	0b5H
	DB	0b5H
	DB	0b5H
	DB	0b5H
	DB	0b5H
	DB	0b5H
	DB	0b5H
	DB	00H
	DB	04fH
	DB	01dH
	DB	02H
	DB	02H
	DB	0aH
	DB	017H
	DB	02cH
	DB	02fH
	DB	031H
	DB	01dH
	DB	02H
	DB	02H
	DB	02H
	DB	02H
	DB	02H
	DB	02H
	DB	02H
	DB	02H
	DB	02H
	DB	02H
	DB	02H
	DB	02H
	DB	02H
	DB	02H
	DB	02H
	DB	02H
	DB	02H
	DB	02eH
	DB	034H
	DB	02fH
	DB	00H
	DB	0b5H
	DB	0b5H
	DB	0b5H
	DB	0b5H
	DB	0b5H
	DB	0b5H
	DB	0b5H
	DB	0b5H
	DB	0b5H
	DB	0b5H
	DB	0b5H
	DB	0b5H
	DB	0b5H
	DB	0b5H
	DB	0b5H
	DB	0b5H
	DB	0b5H
	DB	0b5H
	DB	0b5H
	DB	0b5H
	DB	0b5H
	DB	0b5H
	DB	0b5H
	DB	0b5H
	DB	0b5H
	DB	0b5H
	DB	0b5H
	DB	0b5H
	DB	0b5H
	DB	0b5H
	DB	0b5H
	DB	0b5H
	DB	0b5H
	DB	0b5H
	DB	0b5H
	DB	0b5H
	DB	0b5H
	DB	0b5H
	DB	0b5H
	DB	0b5H
	DB	0b5H
	DB	0b5H
	DB	0b5H
	DB	0b5H
	DB	0b5H
	DB	0b5H
	DB	0b5H
	DB	0b5H
	DB	0b5H
	DB	0b5H
	DB	0b5H
	DB	0b5H
	DB	0b5H
	DB	0b5H
	DB	0b5H
	DB	0b5H
	DB	0b5H
	DB	0b5H
	DB	0b5H
	DB	0b5H
	DB	0b5H
	DB	0b5H
	DB	0b5H
	DB	0b5H
	DB	0b5H
	DB	0b5H
	DB	0b5H
	DB	0b5H
	DB	0b5H
	DB	0b5H
	DB	0b5H
	DB	0b5H
	DB	0b5H
	DB	0b5H
	DB	0b5H
	DB	0b5H
	DB	0b5H
	DB	0b5H
	DB	0b5H
	DB	0b5H
	DB	0b5H
	DB	0b5H
	DB	0b5H
	DB	0b5H
	DB	0b5H
	DB	0b5H
	DB	0b5H
	DB	0b5H
	DB	0b5H
	DB	0b5H
	DB	0b5H
	DB	0b5H
	DB	0b5H
	DB	0b5H
	DB	0b5H
	DB	0b5H
	DB	0b5H
	DB	0b5H
	DB	0b5H
	DB	0b5H
	DB	0b5H
	DB	0b5H
	DB	0b5H
	DB	0b5H
	DB	0b5H
	DB	0b5H
	DB	0b5H
	DB	0b5H
	DB	0b5H
	DB	0b5H
	DB	0b5H
	DB	0b5H
	DB	0b5H
	DB	0b5H
	DB	0b5H
	DB	0b5H
	DB	0b5H
	DB	0b5H
	DB	0b5H
	DB	0b5H
	DB	0b5H
	DB	0b5H
	DB	0b5H
	DB	0b5H
	DB	0b5H
	DB	0b5H
	DB	0b5H
	DB	0b5H
	DB	0b5H
	DB	0b5H
	DB	0b5H
	DB	0b5H
	DB	0b5H
	DB	0b5H
	DB	0b5H
	DB	0b5H
	DB	0b5H
	DB	0b5H
	DB	0b5H
	DB	0b5H
	DB	0b5H
	DB	0b5H
	DB	0b5H
	DB	0b5H
	DB	0b5H
	DB	0b5H
	DB	0b5H
	DB	0b5H
	DB	0b5H
	DB	0b5H
	DB	0b5H
	DB	0b5H
	DB	0b5H
	DB	0b5H
	DB	0b5H
	DB	0b5H
	DB	0b5H
	DB	0b5H
	DB	0b5H
	DB	0b5H
	DB	0b5H
	DB	0b5H
	DB	0b5H
	DB	0b5H
	DB	0b5H
	DB	0b5H
	DB	0b5H
	DB	0b5H
	DB	0b5H
	DB	00H
	DB	07aH
	DB	05bH
	DB	02eH
	DB	01dH
	DB	08H
	DB	08H
	DB	08H
	DB	08H
	DB	08H
	DB	08H
	DB	08H
	DB	08H
	DB	08H
	DB	08H
	DB	08H
	DB	08H
	DB	08H
	DB	08H
	DB	08H
	DB	01dH
	DB	036H
	DB	032H
	DB	00H
	DB	02cH
	DB	016H
	DB	08H
	DB	08H
	DB	08H
	DB	08H
	DB	08H
	DB	08H
	DB	08H
	DB	08H
	DB	08H
	DB	08H
	DB	08H
	DB	08H
	DB	08H
	DB	01dH
	DB	0b2H
	DB	014H
	DB	04bH
	DB	00H
	DB	00H
	DB	00H
	DB	0b5H
	DB	0b5H
	DB	0b5H
	DB	0b5H
	DB	0b5H
	DB	0b5H
	DB	0b5H
	DB	00H
	DB	028H
	DB	01dH
	DB	08H
	DB	08H
	DB	08H
	DB	0b4H
	DB	069H
	DB	00H
	DB	00H
	DB	00H
	DB	00H
	DB	04bH
	DB	0fbH
	DB	01dH
	DB	08H
	DB	08H
	DB	08H
	DB	08H
	DB	075H
	DB	023H
	DB	028H
	DB	00H
	DB	01aH
	DB	0b5H
	DB	00H
	DB	0b7H
	DB	014H
	DB	02eH
	DB	01dH
	DB	08H
	DB	08H
	DB	08H
	DB	08H
	DB	08H
	DB	08H
	DB	08H
	DB	08H
	DB	08H
	DB	08H
	DB	08H
	DB	08H
	DB	08H
	DB	08H
	DB	08H
	DB	01dH
	DB	08H
	DB	028H
	DB	00H
	DB	032H
	DB	020H
	DB	02H
	DB	01dH
	DB	08H
	DB	08H
	DB	08H
	DB	08H
	DB	08H
	DB	08H
	DB	08H
	DB	08H
	DB	08H
	DB	08H
	DB	08H
	DB	08H
	DB	01dH
	DB	01dH
	DB	02cH
	DB	06bH
	DB	0b4H
	DB	08H
	DB	08H
	DB	01dH
	DB	017H
	DB	04bH
	DB	0fbH
	DB	075H
	DB	08H
	DB	08H
	DB	01dH
	DB	053H
	DB	0b7H
	DB	00H
	DB	0b5H
	DB	0b5H
	DB	0b5H
	DB	0b5H
	DB	0b5H
	DB	0b5H
	DB	0b5H
	DB	01aH
	DB	00H
	DB	06dH
	DB	075H
	DB	08H
	DB	08H
	DB	01dH
	DB	036H
	DB	032H
	DB	00H
	DB	02cH
	DB	016H
	DB	08H
	DB	08H
	DB	08H
	DB	08H
	DB	08H
	DB	08H
	DB	08H
	DB	08H
	DB	08H
	DB	08H
	DB	08H
	DB	08H
	DB	08H
	DB	08H
	DB	08H
	DB	08H
	DB	08H
	DB	075H
	DB	027H
	DB	00H
	DB	00H
	DB	00H
	DB	0b5H
	DB	0b5H
	DB	0b5H
	DB	0b5H
	DB	0b5H
	DB	0b5H
	DB	0b5H
	DB	0b5H
	DB	0b5H
	DB	0b5H
	DB	0b5H
	DB	0b5H
	DB	0b5H
	DB	0b5H
	DB	0b5H
	DB	0b5H
	DB	0b5H
	DB	0b5H
	DB	0b5H
	DB	0b5H
	DB	0b5H
	DB	0b5H
	DB	0b5H
	DB	0b5H
	DB	0b5H
	DB	0b5H
	DB	0b5H
	DB	0b5H
	DB	0b5H
	DB	0b5H
	DB	0b5H
	DB	0b5H
	DB	0b5H
	DB	0b5H
	DB	0b5H
	DB	0b5H
	DB	0b5H
	DB	0b5H
	DB	0b5H
	DB	0b5H
	DB	0b5H
	DB	0b5H
	DB	0b5H
	DB	0b5H
	DB	0b5H
	DB	0b5H
	DB	0b5H
	DB	0b5H
	DB	0b5H
	DB	0b5H
	DB	0b5H
	DB	0b5H
	DB	0b5H
	DB	0b5H
	DB	0b5H
	DB	0b5H
	DB	0b5H
	DB	0b5H
	DB	0b5H
	DB	0b5H
	DB	0b5H
	DB	0b5H
	DB	0b5H
	DB	0b5H
	DB	0b5H
	DB	0b5H
	DB	0b5H
	DB	0b5H
	DB	0b5H
	DB	0b5H
	DB	0b5H
	DB	0b5H
	DB	0b5H
	DB	0b5H
	DB	0b5H
	DB	0b5H
	DB	0b5H
	DB	0b5H
	DB	0b5H
	DB	0b5H
	DB	0b5H
	DB	0b5H
	DB	0b5H
	DB	0b5H
	DB	00H
	DB	00H
	DB	00H
	DB	00H
	DB	00H
	DB	00H
	DB	00H
	DB	00H
	DB	00H
	DB	00H
	DB	00H
	DB	00H
	DB	00H
	DB	00H
	DB	00H
	DB	00H
	DB	00H
	DB	00H
	DB	00H
	DB	00H
	DB	00H
	DB	00H
	DB	00H
	DB	00H
	DB	00H
	DB	00H
	DB	00H
	DB	00H
	DB	00H
	DB	00H
	DB	00H
	DB	00H
	DB	00H
	DB	00H
	DB	00H
	DB	00H
	DB	00H
	DB	00H
	DB	00H
	DB	00H
	DB	00H
	DB	00H
	DB	00H
	DB	00H
	DB	00H
	DB	00H
	DB	00H
	DB	00H
	DB	00H
	DB	00H
	DB	00H
	DB	00H
	DB	00H
	DB	00H
	DB	00H
	DB	00H
	DB	00H
	DB	00H
	DB	00H
	DB	00H
	DB	00H
	DB	00H
	DB	00H
	DB	00H
	DB	00H
	DB	00H
	DB	00H
	DB	00H
	DB	00H
	DB	00H
	DB	00H
	DB	00H
	DB	00H
	DB	00H
	DB	00H
	DB	00H
	DB	00H
	DB	00H
	DB	00H
	DB	00H
	DB	00H
	DB	00H
	DB	00H
	DB	00H
	DB	00H
	DB	00H
	DB	00H
	DB	02dH
	DB	04fH
	DB	014H
	DB	014H
	DB	014H
	DB	014H
	DB	014H
	DB	014H
	DB	014H
	DB	014H
	DB	014H
	DB	014H
	DB	014H
	DB	014H
	DB	014H
	DB	014H
	DB	014H
	DB	05bH
	DB	046H
	DB	00H
	DB	00H
	DB	00H
	DB	02aH
	DB	0e4H
	DB	03cH
	DB	025H
	DB	014H
	DB	014H
	DB	014H
	DB	014H
	DB	014H
	DB	014H
	DB	014H
	DB	014H
	DB	025H
	DB	08fH
	DB	04eH
	DB	04bH
	DB	00H
	DB	00H
	DB	00H
	DB	00H
	DB	00H
	DB	00H
	DB	00H
	DB	00H
	DB	00H
	DB	00H
	DB	00H
	DB	00H
	DB	00H
	DB	028H
	DB	05bH
	DB	014H
	DB	014H
	DB	014H
	DB	025H
	DB	04bH
	DB	00H
	DB	00H
	DB	00H
	DB	00H
	DB	00H
	DB	0b7H
	DB	03bH
	DB	05bH
	DB	014H
	DB	014H
	DB	014H
	DB	014H
	DB	06dH
	DB	025H
	DB	02cH
	DB	00H
	DB	00H
	DB	00H
	DB	00H
	DB	00H
	DB	0e3H
	DB	03cH
	DB	014H
	DB	014H
	DB	014H
	DB	014H
	DB	014H
	DB	014H
	DB	014H
	DB	014H
	DB	014H
	DB	014H
	DB	014H
	DB	014H
	DB	014H
	DB	014H
	DB	014H
	DB	025H
	DB	05aH
	DB	02fH
	DB	00H
	DB	00H
	DB	00H
	DB	04cH
	DB	08dH
	DB	014H
	DB	014H
	DB	014H
	DB	014H
	DB	014H
	DB	014H
	DB	014H
	DB	014H
	DB	014H
	DB	014H
	DB	014H
	DB	014H
	DB	025H
	DB	051H
	DB	02fH
	DB	0a9H
	DB	05bH
	DB	014H
	DB	014H
	DB	025H
	DB	08eH
	DB	02aH
	DB	051H
	DB	025H
	DB	014H
	DB	014H
	DB	05bH
	DB	06aH
	DB	00H
	DB	00H
	DB	00H
	DB	00H
	DB	00H
	DB	00H
	DB	00H
	DB	00H
	DB	00H
	DB	00H
	DB	02aH
	DB	03cH
	DB	025H
	DB	014H
	DB	014H
	DB	05bH
	DB	046H
	DB	00H
	DB	00H
	DB	00H
	DB	02aH
	DB	0e4H
	DB	03cH
	DB	025H
	DB	014H
	DB	014H
	DB	014H
	DB	014H
	DB	014H
	DB	014H
	DB	014H
	DB	014H
	DB	014H
	DB	014H
	DB	014H
	DB	014H
	DB	014H
	DB	014H
	DB	06dH
	DB	0edH
	DB	00H
	DB	00H
	DB	00H
	DB	00H
	DB	00H
	DB	00H
	DB	00H
	DB	00H
	DB	00H
	DB	00H
	DB	00H
	DB	00H
	DB	00H
	DB	00H
	DB	00H
	DB	00H
	DB	00H
	DB	00H
	DB	00H
	DB	00H
	DB	00H
	DB	00H
	DB	00H
	DB	00H
	DB	00H
	DB	00H
	DB	00H
	DB	00H
	DB	00H
	DB	00H
	DB	00H
	DB	00H
	DB	00H
	DB	00H
	DB	00H
	DB	00H
	DB	00H
	DB	00H
	DB	00H
	DB	00H
	DB	00H
	DB	00H
	DB	00H
	DB	00H
	DB	00H
	DB	00H
	DB	00H
	DB	00H
	DB	00H
	DB	00H
	DB	00H
	DB	00H
	DB	00H
	DB	00H
	DB	00H
	DB	00H
	DB	00H
	DB	00H
	DB	00H
	DB	00H
	DB	00H
	DB	00H
	DB	00H
	DB	00H
	DB	00H
	DB	00H
	DB	00H
	DB	00H
	DB	00H
	DB	00H
	DB	00H
	DB	00H
	DB	00H
	DB	00H
	DB	00H
	DB	00H
	DB	00H
	DB	00H
	DB	00H
	DB	00H
	DB	00H
	DB	00H
	DB	00H
	DB	00H
	DB	00H
	DB	00H
	DB	00H
	DB	00H
	DB	00H
	DB	00H
	DB	00H
	DB	00H
	DB	00H
	DB	00H
	DB	00H
	DB	00H
	DB	00H
	DB	00H
	DB	00H
	DB	00H
	DB	00H
	DB	00H
	DB	00H
	DB	00H
	DB	00H
	DB	00H
	DB	00H
	DB	00H
	DB	00H
	DB	00H
	DB	00H
	DB	00H
	DB	00H
	DB	00H
	DB	00H
	DB	00H
	DB	00H
	DB	00H
	DB	00H
	DB	00H
	DB	00H
	DB	00H
	DB	00H
	DB	00H
	DB	00H
	DB	00H
	DB	00H
	DB	00H
	DB	00H
	DB	00H
	DB	00H
	DB	00H
	DB	00H
	DB	00H
	DB	00H
	DB	00H
	DB	00H
	DB	00H
	DB	00H
	DB	00H
	DB	00H
	DB	00H
	DB	00H
	DB	00H
	DB	00H
	DB	00H
	DB	00H
	DB	00H
	DB	00H
	DB	00H
	DB	00H
	DB	00H
	DB	00H
	DB	00H
	DB	00H
	DB	00H
	DB	00H
	DB	00H
	DB	00H
	DB	00H
	DB	00H
	DB	00H
	DB	00H
	DB	00H
	DB	00H
	DB	00H
	DB	00H
	DB	00H
	DB	00H
	DB	00H
	DB	00H
	DB	00H
	DB	00H
	DB	00H
	DB	00H
	DB	00H
	DB	00H
	DB	00H
	DB	00H
	DB	00H
	DB	00H
	DB	00H
	DB	00H
	DB	00H
	DB	00H
	DB	00H
	DB	00H
	DB	00H
	DB	00H
	DB	00H
	DB	00H
	DB	00H
	DB	00H
	DB	00H
	DB	00H
	DB	00H
	DB	00H
	DB	00H
	DB	00H
	DB	00H
	DB	00H
	DB	00H
	DB	00H
	DB	00H
	DB	00H
	DB	00H
	DB	00H
	DB	00H
	DB	00H
	DB	00H
	DB	00H
	DB	00H
	DB	00H
	DB	00H
	DB	00H
	DB	00H
	DB	00H
	DB	00H
	DB	00H
	DB	00H
	DB	00H
	DB	00H
	DB	00H
	DB	00H
	DB	00H
	DB	00H
	DB	00H
	DB	00H
	DB	00H
	DB	00H
	DB	00H
	DB	00H
	DB	00H
	DB	00H
	DB	00H
	DB	00H
	DB	00H
	DB	00H
	DB	00H
	DB	00H
	DB	00H
	DB	00H
	DB	00H
	DB	00H
	DB	00H
	DB	00H
	DB	00H
	DB	00H
	DB	00H
	DB	00H
	DB	00H
	DB	00H
	DB	00H
	DB	00H
	DB	00H
	DB	00H
	DB	00H
	DB	00H
	DB	00H
	DB	00H
	DB	00H
	DB	00H
	DB	00H
	DB	00H
	DB	00H
	DB	00H
	DB	00H
	DB	00H
	DB	00H
	DB	00H
	DB	00H
	DB	00H
	DB	00H
	DB	00H
	DB	00H
	DB	00H
	DB	00H
	DB	00H
	DB	00H
	DB	00H
	DB	00H
	DB	00H
	DB	00H
	DB	00H
	DB	00H
	DB	00H
	DB	00H
	DB	00H
	DB	00H
	DB	00H
	DB	00H
	DB	00H
	DB	00H
	DB	00H
	DB	00H
	DB	00H
	DB	00H
	DB	00H
	DB	00H
	DB	00H
	DB	00H
	DB	00H
	DB	00H
	DB	00H
	DB	00H
	DB	00H
	DB	00H
	DB	00H
	DB	00H
	DB	00H
	DB	00H
	DB	00H
	DB	00H
	DB	00H
	DB	00H
	DB	00H
	DB	00H
	DB	00H
	DB	00H
	DB	00H
	DB	00H
	DB	00H
	DB	00H
	DB	00H
	DB	00H
	DB	00H
	DB	00H
	DB	00H
	DB	00H
	DB	00H
	DB	00H
	DB	00H
	DB	00H
	DB	00H
	DB	00H
	DB	00H
	DB	00H
	DB	00H
	DB	00H
	DB	00H
	DB	00H
	DB	00H
	DB	00H
	DB	00H
	DB	00H
	DB	00H
	DB	00H
	DB	00H
	DB	00H
	DB	00H
	DB	00H
	DB	00H
	DB	00H
	DB	00H
	DB	00H
	DB	00H
	DB	00H
	DB	00H
	DB	00H
	DB	00H
	DB	00H
	DB	00H
	DB	00H
	DB	00H
	DB	00H
	DB	00H
	DB	00H
	DB	00H
	DB	00H
	DB	00H
	DB	00H
	DB	00H
	DB	00H
	DB	00H
	DB	00H
	DB	00H
	DB	00H
	DB	00H
	DB	00H
	DB	00H
	DB	00H
	DB	00H
	DB	00H
	DB	00H
	DB	00H
	DB	00H
	DB	00H
	DB	00H
	DB	00H
	DB	00H
	DB	00H
	DB	00H
	DB	00H
	DB	00H
	DB	00H
	DB	00H
	DB	00H
	DB	00H
	DB	00H
	DB	00H
	DB	00H
	DB	00H
	DB	00H
	DB	00H
	DB	00H
	DB	00H
	DB	00H
	DB	00H
	DB	00H
	DB	00H
	DB	00H
	DB	00H
	DB	00H
	DB	00H
	DB	00H
	DB	00H
	DB	00H
	DB	00H
	DB	00H
	DB	00H
	DB	00H
	DB	00H
	DB	00H
	DB	00H
	DB	00H
	DB	00H
	DB	00H
	DB	00H
	DB	00H
	DB	00H
	DB	00H
	DB	00H
	DB	00H
	DB	00H
	DB	00H
	DB	00H
	DB	00H
	DB	00H
	DB	00H
	DB	00H
	DB	00H
	DB	00H
	DB	00H
	DB	00H
	DB	00H
	DB	00H
	DB	00H
	DB	00H
	DB	00H
	DB	00H
	DB	00H
	DB	00H
	DB	00H
	DB	00H
	DB	00H
	DB	00H
	DB	00H
	DB	00H
	DB	00H
	DB	00H
	DB	00H
	DB	00H
	DB	00H
	DB	00H
	DB	00H
	DB	00H
	DB	00H
	DB	00H
	DB	00H
	DB	00H
	DB	00H
	DB	00H
	DB	00H
	DB	00H
	DB	00H
	DB	00H
	DB	00H
	DB	00H
	DB	00H
	DB	00H
	DB	00H
	DB	00H
	DB	00H
	DB	00H
	DB	00H
	DB	00H
	DB	00H
	DB	00H
	DB	00H
	DB	00H
	DB	00H
	DB	00H
	DB	00H
	DB	00H
	DB	00H
	DB	00H
	DB	00H
	DB	00H
	DB	00H
	DB	00H
	DB	00H
	DB	00H
	DB	00H
	DB	00H
	DB	00H
	DB	00H
	DB	00H
	DB	00H
	DB	00H
	DB	00H
	DB	00H
	DB	00H
	DB	00H
	DB	00H
	DB	00H
	DB	00H
	DB	00H
	DB	00H
	DB	00H
	DB	00H
	DB	00H
	DB	00H
	DB	00H
	DB	00H
	DB	00H
	DB	00H
	DB	00H
	DB	00H
	DB	00H
	DB	00H
	DB	00H
	DB	00H
	DB	00H
	DB	00H
	DB	00H
	DB	00H
	DB	00H
	DB	00H
	DB	00H
	DB	00H
	DB	00H
	DB	00H
	DB	00H
	DB	00H
	DB	00H
	DB	00H
	DB	00H
	DB	00H
	DB	00H
	DB	00H
	DB	00H
	DB	00H
	DB	00H
	DB	00H
	DB	00H
	DB	00H
	DB	00H
	DB	00H
	DB	00H
	DB	00H
	DB	00H
	DB	00H
	DB	00H
	DB	00H
	DB	00H
	DB	00H
	DB	00H
	DB	00H
	DB	00H
	DB	00H
	DB	00H
	DB	00H
	DB	00H
	DB	00H
	DB	00H
	DB	00H
	DB	00H
	DB	00H
	DB	00H
	DB	00H
	DB	00H
	DB	00H
	DB	00H
	DB	00H
	DB	00H
	DB	00H
	DB	00H
	DB	00H
	DB	00H
	DB	00H
	DB	00H
	DB	00H
	DB	00H
	DB	00H
	DB	00H
	DB	00H
	DB	00H
	DB	00H
	DB	00H
	DB	00H
	DB	00H
	DB	00H
	DB	00H
	DB	00H
	DB	00H
	DB	00H
	DB	00H
	DB	00H
	DB	00H
	DB	00H
	DB	00H
	DB	00H
	DB	00H
	DB	00H
	DB	00H
	DB	00H
	DB	00H
	DB	00H
	DB	00H
	DB	00H
	DB	00H
	DB	00H
	DB	00H
	DB	00H
	DB	00H
	DB	00H
	DB	00H
	DB	00H
	DB	00H
	DB	00H
	DB	00H
	DB	00H
	DB	00H
	DB	00H
	DB	00H
	DB	00H
	DB	00H
	DB	00H
	DB	00H
	DB	00H
	DB	00H
	DB	00H
	DB	00H
	DB	00H
	DB	00H
	DB	00H
	DB	00H
	DB	00H
	DB	00H
	DB	00H
	DB	00H
	DB	00H
	DB	00H
	DB	00H
	DB	00H
	DB	00H
	DB	00H
	DB	00H
	DB	00H
	DB	00H
	DB	00H
	DB	00H
	DB	00H
	DB	00H
	DB	00H
	DB	00H
	DB	00H
	DB	00H
	DB	00H
	DB	00H
	DB	00H
	DB	00H
	DB	00H
	DB	00H
	DB	00H
	DB	00H
	DB	00H
	DB	00H
	DB	00H
	DB	00H
	DB	00H
	DB	00H
	DB	00H
	DB	00H
	DB	00H
	DB	00H
	DB	00H
	DB	00H
	DB	00H
	DB	00H
	DB	00H
	DB	00H
	DB	00H
	DB	00H
	DB	00H
	DB	00H
	DB	00H
	DB	00H
	DB	00H
	DB	00H
	DB	00H
	DB	00H
	DB	00H
	DB	00H
	DB	00H
	DB	00H
	DB	00H
	DB	00H
	DB	00H
	DB	00H
	DB	00H
	DB	00H
	DB	00H
	DB	00H
	DB	00H
	DB	00H
	DB	00H
	DB	00H
	DB	00H
	DB	00H
	DB	00H
	DB	00H
	DB	00H
	DB	00H
	DB	00H
	DB	00H
	DB	00H
	DB	00H
	DB	00H
	DB	00H
	DB	00H
	DB	00H
	DB	00H
	DB	00H
	DB	00H
	DB	00H
	DB	00H
	DB	00H
	DB	00H
	DB	00H
	DB	00H
	DB	00H
	DB	00H
	DB	00H
	DB	00H
	DB	00H
	DB	00H
	DB	00H
	DB	00H
	DB	00H
	DB	00H
	DB	00H
	DB	00H
	DB	00H
	DB	00H
	DB	00H
	DB	00H
	DB	00H
	DB	00H
	DB	00H
	DB	00H
	DB	00H
	DB	00H
	DB	00H
	DB	00H
	DB	00H
	DB	00H
	DB	00H
	DB	00H
	DB	00H
	DB	00H
	DB	00H
	DB	00H
	DB	00H
	DB	00H
	DB	00H
	DB	00H
	DB	00H
	DB	00H
	DB	00H
	DB	00H
	DB	00H
	DB	00H
	DB	00H
	DB	00H
	DB	00H
	DB	00H
	DB	00H
	DB	00H
	DB	00H
	DB	00H
	DB	00H
	DB	00H
	DB	00H
	DB	00H
	DB	00H
	DB	00H
	DB	00H
	DB	00H
	DB	00H
	DB	00H
	DB	00H
	DB	00H
	DB	00H
	DB	00H
	DB	00H
	DB	00H
	DB	00H
	DB	00H
	DB	00H
	DB	00H
	DB	00H
	DB	00H
	DB	00H
	DB	00H
	DB	00H
	DB	00H
	DB	00H
	DB	00H
	DB	00H
	DB	00H
	DB	00H
	DB	00H
	DB	00H
	DB	00H
	DB	00H
	DB	00H
	DB	00H
	DB	00H
	DB	00H
	DB	00H
	DB	00H
	DB	00H
	DB	00H
	DB	00H
	DB	00H
	DB	00H
	DB	00H
	DB	00H
	DB	00H
	DB	00H
	DB	00H
	DB	00H
	DB	00H
	DB	00H
	DB	00H
	DB	00H
	DB	00H
	DB	00H
	DB	00H
	DB	00H
	DB	00H
	DB	00H
	DB	00H
	DB	00H
	DB	00H
	DB	00H
	DB	00H
	DB	00H
	DB	00H
	DB	00H
	DB	00H
	DB	00H
	DB	00H
	DB	00H
	DB	00H
	DB	00H
	DB	00H
	DB	00H
	DB	00H
	DB	00H
	DB	00H
	DB	00H
	DB	00H
	DB	00H
	DB	00H
	DB	00H
	DB	00H
	DB	00H
	DB	00H
	DB	00H
	DB	00H
	DB	00H
	DB	00H
	DB	00H
	DB	00H
	DB	00H
	DB	00H
	DB	00H
	DB	00H
	DB	00H
	DB	00H
	DB	00H
	DB	00H
	DB	00H
	DB	00H
	DB	00H
	DB	00H
	DB	00H
	DB	00H
	DB	00H
	DB	00H
	DB	00H
	DB	00H
	DB	00H
	DB	00H
	DB	00H
	DB	00H
	DB	00H
	DB	00H
	DB	00H
	DB	00H
	DB	00H
	DB	00H
	DB	00H
	DB	00H
	DB	00H
	DB	00H
	DB	00H
	DB	00H
	DB	00H
	DB	00H
	DB	00H
	DB	00H
	DB	00H
	DB	00H
	DB	00H
	DB	00H
	DB	00H
	DB	00H
	DB	00H
	DB	00H
	DB	00H
	DB	00H
	DB	00H
	DB	00H
	DB	00H
	DB	00H
	DB	00H
	DB	00H
	DB	00H
	DB	00H
	DB	00H
	DB	00H
	DB	00H
	DB	00H
	DB	00H
	DB	00H
	DB	00H
	DB	00H
	DB	00H
	DB	00H
	DB	00H
	DB	00H
	DB	00H
	DB	00H
	DB	00H
	DB	00H
	DB	00H
	DB	00H
	DB	00H
	DB	00H
	DB	00H
	DB	00H
	DB	00H
	DB	00H
	DB	00H
	DB	00H
	DB	00H
	DB	00H
	DB	00H
	DB	00H
	DB	00H
	DB	00H
	DB	00H
	DB	00H
	DB	00H
	DB	00H
	DB	00H
	DB	00H
	DB	00H
	DB	00H
	DB	00H
	DB	00H
	DB	00H
	DB	00H
	DB	00H
	DB	00H
	DB	00H
	DB	00H
	DB	00H
	DB	00H
	DB	00H
	DB	00H
	DB	00H
	DB	00H
	DB	00H
	DB	00H
	DB	00H
	DB	00H
	DB	00H
	DB	00H
	DB	00H
	DB	00H
	DB	00H
	DB	00H
	DB	00H
	DB	00H
	DB	00H
	DB	00H
	DB	00H
	DB	00H
	DB	00H
	DB	00H
	DB	00H
	DB	00H
	DB	00H
	DB	00H
	DB	00H
	DB	00H
	DB	00H
	DB	00H
	DB	00H
	DB	00H
	DB	00H
	DB	00H
	DB	00H
	DB	00H
	DB	00H
	DB	00H
	DB	00H
	DB	00H
	DB	00H
	DB	00H
	DB	00H
	DB	00H
	DB	00H
	DB	00H
	DB	00H
	DB	00H
	DB	00H
	DB	00H
	DB	00H
	DB	00H
	DB	00H
	DB	00H
	DB	00H
	DB	00H
	DB	00H
	DB	00H
	DB	00H
	DB	00H
	DB	00H
	DB	00H
	DB	00H
	DB	00H
	DB	00H
	DB	00H
	DB	00H
	DB	00H
	DB	00H
	DB	00H
	DB	00H
	DB	00H
	DB	00H
	DB	00H
	DB	00H
	DB	00H
	DB	00H
	DB	00H
	DB	00H
	DB	00H
	DB	00H
	DB	00H
	DB	00H
	DB	00H
	DB	00H
	DB	00H
	DB	00H
	DB	00H
	DB	00H
	DB	00H
	DB	00H
	DB	00H
	DB	00H
	DB	00H
	DB	00H
	DB	00H
	DB	00H
	DB	00H
	DB	00H
	DB	00H
	DB	00H
	DB	00H
	DB	00H
	DB	00H
	DB	00H
	DB	00H
	DB	00H
	DB	00H
	DB	00H
	DB	00H
	DB	00H
	DB	00H
	DB	00H
	DB	00H
	DB	00H
	DB	00H
	DB	00H
	DB	00H
	DB	00H
	DB	00H
	DB	00H
	DB	00H
	DB	00H
	DB	00H
	DB	00H
	DB	00H
	DB	00H
	DB	00H
	DB	00H
	DB	00H
	DB	00H
	DB	00H
	DB	00H
	DB	00H
	DB	00H
	DB	00H
	DB	00H
	DB	00H
	DB	00H
	DB	00H
	DB	00H
	DB	00H
	DB	00H
	DB	00H
	DB	00H
	DB	00H
	DB	00H
	DB	00H
	DB	00H
	DB	00H
	DB	00H
	DB	00H
	DB	00H
	DB	00H
	DB	00H
	DB	00H
	DB	00H
	DB	00H
	DB	00H
	DB	00H
	DB	00H
	DB	00H
	DB	00H
	DB	00H
	DB	00H
	DB	00H
	DB	00H
	DB	00H
	DB	00H
	DB	00H
	DB	00H
	DB	00H
	DB	00H
	DB	00H
	DB	00H
	DB	00H
	DB	00H
	DB	00H
	DB	00H
	DB	00H
	DB	00H
	DB	00H
	DB	00H
	DB	00H
	DB	00H
	DB	00H
	DB	00H
	DB	00H
	DB	00H
	DB	00H
	DB	00H
	DB	00H
	DB	00H
	DB	00H
	DB	00H
	DB	00H
	DB	00H
	DB	00H
	DB	00H
	DB	00H
	DB	00H
	DB	00H
	DB	00H
	DB	00H
	DB	00H
	DB	00H
	DB	00H
	DB	00H
	DB	00H
	DB	00H
	DB	00H
	DB	00H
	DB	00H
	DB	00H
	DB	00H
	DB	00H
	DB	00H
	DB	00H
	DB	00H
	DB	00H
	DB	00H
	DB	00H
	DB	00H
	DB	00H
	DB	00H
	DB	00H
	DB	00H
	DB	00H
	DB	00H
	DB	00H
	DB	00H
	DB	00H
	DB	00H
	DB	00H
	DB	00H
	DB	00H
	DB	00H
	DB	00H
	DB	00H
	DB	00H
	DB	00H
	DB	00H
	DB	00H
	DB	00H
	DB	00H
	DB	00H
	DB	00H
	DB	00H
	DB	00H
	DB	00H
	DB	00H
	DB	00H
	DB	00H
	DB	00H
	DB	00H
	DB	00H
	DB	00H
	DB	00H
	DB	00H
	DB	00H
	DB	00H
	DB	00H
	DB	00H
	DB	00H
	DB	00H
	DB	00H
	DB	00H
	DB	00H
	DB	00H
	DB	00H
	DB	00H
	DB	00H
	DB	00H
	DB	00H
	DB	00H
	DB	00H
	DB	00H
	DB	00H
	DB	00H
	DB	00H
	DB	00H
	DB	00H
	DB	00H
	DB	00H
	DB	00H
	DB	00H
	DB	00H
	DB	00H
	DB	00H
	DB	00H
	DB	00H
	DB	00H
	DB	00H
	DB	00H
	DB	00H
	DB	00H
	DB	00H
	DB	00H
	DB	00H
	DB	00H
	DB	00H
	DB	00H
	DB	00H
	DB	00H
	DB	00H
	DB	00H
	DB	00H
	DB	00H
	DB	00H
	DB	00H
	DB	00H
	DB	00H
	DB	00H
	DB	00H
	DB	00H
	DB	00H
	DB	00H
	DB	00H
	DB	00H
	DB	00H
	DB	00H
	DB	00H
	DB	00H
	DB	00H
	DB	00H
	DB	00H
	DB	00H
	DB	00H
	DB	00H
	DB	00H
	DB	00H
	DB	00H
	DB	00H
	DB	00H
	DB	00H
	DB	00H
	DB	00H
	DB	00H
	DB	00H
	DB	00H
	DB	00H
	DB	00H
	DB	00H
	DB	00H
	DB	00H
	DB	00H
	DB	00H
	DB	00H
	DB	00H
	DB	00H
	DB	00H
	DB	00H
	DB	00H
	DB	00H
	DB	00H
	DB	00H
	DB	00H
	DB	00H
	DB	00H
	DB	00H
	DB	00H
	DB	00H
	DB	00H
	DB	00H
	DB	00H
	DB	00H
	DB	00H
	DB	00H
	DB	00H
	DB	00H
	DB	00H
	DB	00H
	DB	00H
	DB	00H
	DB	00H
	DB	00H
	DB	00H
	DB	00H
	DB	00H
	DB	00H
	DB	00H
	DB	00H
	DB	00H
	DB	00H
	DB	00H
	DB	00H
	DB	00H
	DB	00H
	DB	00H
	DB	00H
	DB	00H
	DB	00H
	DB	00H
	DB	00H
	DB	00H
	DB	00H
	DB	00H
	DB	00H
	DB	00H
	DB	00H
	DB	00H
	DB	00H
	DB	00H
	DB	00H
	DB	00H
	DB	00H
	DB	00H
	DB	00H
	DB	00H
	DB	00H
	DB	00H
	DB	00H
	DB	00H
	DB	00H
	DB	00H
	DB	00H
	DB	00H
	DB	00H
	DB	00H
	DB	00H
	DB	00H
	DB	00H
	DB	00H
	DB	00H
	DB	00H
	DB	00H
	DB	00H
	DB	00H
	DB	00H
	DB	00H
	DB	00H
	DB	00H
	DB	00H
	DB	00H
	DB	00H
	DB	00H
	DB	00H
	DB	00H
	DB	00H
	DB	00H
	DB	00H
	DB	00H
	DB	00H
	DB	00H
	DB	00H
	DB	00H
	DB	00H
	DB	00H
	DB	00H
	DB	00H
	DB	00H
	DB	00H
	DB	00H
	DB	00H
	DB	00H
	DB	00H
	DB	00H
	DB	00H
	DB	00H
	DB	00H
	DB	00H
	DB	00H
	DB	00H
	DB	00H
	DB	00H
	DB	00H
	DB	00H
	DB	00H
	DB	00H
	DB	00H
	DB	00H
	DB	00H
	DB	00H
	DB	00H
	DB	00H
	DB	00H
	DB	00H
	DB	00H
	DB	00H
	DB	00H
	DB	00H
	DB	00H
	DB	00H
	DB	00H
	DB	00H
	DB	00H
	DB	00H
	DB	00H
	DB	00H
	DB	00H
	DB	00H
	DB	00H
	DB	00H
	DB	00H
	DB	00H
	DB	00H
	DB	00H
	DB	00H
	DB	00H
	DB	00H
	DB	00H
	DB	00H
	DB	00H
	DB	00H
	DB	00H
	DB	00H
	DB	00H
	DB	00H
	DB	00H
	DB	00H
	DB	00H
	DB	00H
	DB	00H
	DB	00H
	DB	00H
	DB	00H
	DB	00H
	DB	00H
	DB	00H
	DB	00H
	DB	00H
	DB	00H
	DB	00H
	DB	00H
	DB	00H
	DB	00H
	DB	00H
	DB	00H
	DB	00H
	DB	00H
	DB	00H
	DB	00H
	DB	00H
	DB	00H
	DB	00H
	DB	00H
	DB	00H
	DB	00H
	DB	00H
	DB	00H
	DB	00H
	DB	00H
	DB	00H
	DB	00H
	DB	00H
	DB	00H
	DB	00H
	DB	00H
	DB	00H
	DB	00H
	DB	00H
	DB	00H
	DB	00H
	DB	00H
	DB	00H
	DB	00H
	DB	00H
	DB	00H
	DB	00H
	DB	00H
	DB	00H
	DB	00H
	DB	00H
	DB	00H
	DB	00H
	DB	00H
	DB	00H
	DB	00H
	DB	00H
	DB	00H
	DB	00H
	DB	00H
	DB	00H
	DB	00H
	DB	00H
	DB	00H
	DB	00H
	DB	00H
	DB	00H
	DB	00H
	DB	00H
	DB	00H
	DB	00H
	DB	00H
	DB	00H
	DB	00H
	DB	00H
	DB	00H
	DB	00H
	DB	00H
	DB	00H
	DB	00H
	DB	00H
	DB	00H
	DB	00H
	DB	00H
	DB	00H
	DB	00H
	DB	00H
	DB	00H
	DB	00H
	DB	00H
	DB	00H
	DB	00H
	DB	00H
	DB	00H
	DB	00H
	DB	00H
	DB	00H
	DB	00H
	DB	00H
	DB	00H
	DB	00H
	DB	00H
	DB	00H
	DB	00H
	DB	00H
	DB	00H
	DB	00H
	DB	00H
	DB	00H
	DB	00H
	DB	00H
	DB	00H
	DB	00H
	DB	00H
	DB	00H
	DB	00H
	DB	00H
	DB	00H
	DB	00H
	DB	00H
	DB	00H
	DB	00H
	DB	00H
	DB	00H
	DB	00H
	DB	00H
	DB	00H
	DB	00H
	DB	00H
	DB	00H
	DB	00H
	DB	00H
	DB	00H
	DB	00H
	DB	00H
	DB	00H
	DB	00H
	DB	00H
	DB	00H
	DB	00H
	DB	00H
	DB	00H
	DB	00H
	DB	00H
	DB	00H
	DB	00H
	DB	00H
	DB	00H
	DB	00H
	DB	00H
	DB	00H
	DB	00H
	DB	00H
	DB	00H
	DB	00H
	DB	00H
	DB	00H
	DB	00H
	DB	00H
	DB	00H
	DB	00H
	DB	00H
	DB	00H
	DB	00H
	DB	00H
	DB	00H
	DB	00H
	DB	00H
	DB	00H
	DB	00H
	DB	00H
	DB	00H
	DB	00H
	DB	00H
	DB	00H
	DB	00H
	DB	00H
	DB	00H
	DB	00H
	DB	00H
	DB	00H
	DB	00H
	DB	00H
	DB	00H
	DB	00H
	DB	00H
	DB	00H
	DB	00H
	DB	00H
	DB	00H
	DB	00H
	DB	00H
	DB	00H
	DB	00H
	DB	00H
	DB	00H
	DB	00H
	DB	00H
	DB	00H
	DB	00H
	DB	00H
	DB	00H
	DB	00H
	DB	00H
	DB	00H
	DB	00H
	DB	00H
	DB	00H
	DB	00H
	DB	00H
	DB	00H
	DB	00H
	DB	00H
	DB	00H
	DB	00H
	DB	00H
	DB	00H
	DB	00H
	DB	00H
	DB	00H
	DB	00H
	DB	00H
	DB	00H
	DB	00H
	DB	00H
	DB	00H
	DB	00H
	DB	00H
	DB	00H
	DB	00H
	DB	00H
	DB	00H
	DB	00H
	DB	00H
	DB	00H
	DB	00H
	DB	00H
	DB	00H
	DB	00H
	DB	00H
	DB	00H
	DB	00H
	DB	00H
	DB	00H
	DB	00H
	DB	00H
	DB	00H
	DB	00H
	DB	00H
	DB	00H
	DB	00H
	DB	00H
	DB	00H
	DB	00H
	DB	00H
	DB	00H
	DB	00H
	DB	00H
	DB	00H
	DB	00H
	DB	00H
	DB	00H
	DB	00H
	DB	00H
	DB	00H
	DB	00H
	DB	00H
	DB	00H
	DB	00H
	DB	00H
	DB	00H
	DB	00H
	DB	00H
	DB	00H
	DB	00H
	DB	00H
	DB	00H
	DB	00H
	DB	00H
	DB	00H
	DB	00H
	DB	00H
	DB	00H
	DB	00H
	DB	00H
	DB	00H
	DB	00H
	DB	00H
	DB	00H
	DB	00H
	DB	00H
	DB	00H
	DB	00H
	DB	00H
	DB	00H
	DB	00H
	DB	00H
	DB	00H
	DB	00H
	DB	00H
	DB	00H
	DB	00H
	DB	00H
	DB	00H
	DB	00H
	DB	00H
	DB	00H
	DB	00H
	DB	00H
	DB	00H
	DB	00H
	DB	00H
	DB	00H
	DB	00H
	DB	00H
	DB	00H
	DB	00H
	DB	00H
	DB	00H
	DB	00H
	DB	00H
	DB	00H
	DB	00H
	DB	00H
	DB	00H
	DB	00H
	DB	00H
	DB	00H
	DB	00H
	DB	00H
	DB	00H
	DB	00H
	DB	00H
	DB	00H
	DB	00H
	DB	00H
	DB	00H
	DB	00H
	DB	00H
	DB	00H
	DB	00H
	DB	00H
	DB	00H
	DB	00H
	DB	00H
	DB	00H
	DB	00H
	DB	00H
	DB	00H
	DB	00H
	DB	00H
	DB	00H
	DB	00H
	DB	00H
	DB	00H
	DB	00H
	DB	00H
	DB	00H
	DB	00H
	DB	00H
	DB	00H
	DB	00H
	DB	00H
	DB	00H
	DB	00H
	DB	00H
	DB	00H
	DB	00H
	DB	00H
	DB	00H
	DB	00H
	DB	00H
	DB	00H
	DB	00H
	DB	00H
	DB	00H
	DB	00H
	DB	00H
	DB	00H
	DB	00H
	DB	00H
	DB	00H
	DB	00H
	DB	00H
	DB	00H
	DB	00H
	DB	00H
	DB	00H
	DB	00H
	DB	00H
	DB	00H
	DB	00H
	DB	00H
	DB	00H
	DB	00H
	DB	00H
	DB	00H
	DB	00H
	DB	00H
	DB	00H
	DB	00H
	DB	00H
	DB	00H
	DB	00H
	DB	00H
	DB	00H
	DB	00H
	DB	00H
	DB	00H
	DB	00H
	DB	00H
	DB	00H
	DB	00H
	DB	00H
	DB	00H
	DB	00H
	DB	00H
	DB	00H
	DB	00H
	DB	00H
	DB	00H
	DB	00H
	DB	00H
	DB	00H
	DB	00H
	DB	00H
	DB	00H
	DB	00H
	DB	00H
	DB	00H
	DB	00H
	DB	00H
	DB	00H
	DB	00H
	DB	00H
	DB	00H
	DB	00H
	DB	00H
	DB	00H
	DB	00H
	DB	00H
	DB	00H
	DB	00H
	DB	00H
	DB	00H
	DB	00H
	DB	00H
	DB	00H
	DB	00H
	DB	00H
	DB	00H
	DB	00H
	DB	00H
	DB	00H
	DB	00H
	DB	00H
	DB	00H
	DB	00H
	DB	00H
	DB	00H
	DB	00H
	DB	00H
	DB	00H
	DB	00H
	DB	00H
	DB	00H
	DB	00H
	DB	00H
	DB	00H
	DB	00H
	DB	00H
	DB	00H
	DB	00H
	DB	00H
	DB	00H
	DB	00H
	DB	00H
	DB	00H
	DB	00H
	DB	00H
	DB	00H
	DB	00H
	DB	00H
	DB	00H
	DB	00H
	DB	00H
	DB	00H
	DB	00H
	DB	00H
	DB	00H
	DB	00H
	DB	00H
	DB	00H
	DB	00H
	DB	00H
	DB	00H
	DB	00H
	DB	00H
	DB	00H
	DB	00H
	DB	00H
	DB	00H
	DB	00H
	DB	00H
	DB	00H
	DB	00H
	DB	00H
	DB	00H
	DB	00H
	DB	00H
	DB	00H
	DB	00H
	DB	00H
	DB	00H
	DB	00H
	DB	00H
	DB	00H
	DB	00H
	DB	00H
	DB	00H
	DB	00H
	DB	00H
	DB	00H
	DB	00H
	DB	00H
	DB	00H
	DB	00H
	DB	00H
	DB	00H
	DB	00H
	DB	00H
	DB	00H
	DB	00H
	DB	00H
	DB	00H
	DB	00H
	DB	00H
	DB	00H
	DB	00H
	DB	00H
	DB	00H
	DB	00H
	DB	00H
	DB	00H
	DB	00H
	DB	00H
	DB	00H
	DB	00H
	DB	00H
	DB	00H
	DB	00H
	DB	00H
	DB	00H
	DB	00H
	DB	00H
	DB	00H
	DB	00H
	DB	00H
	DB	00H
	DB	00H
	DB	00H
	DB	00H
	DB	00H
	DB	00H
	DB	00H
	DB	00H
	DB	00H
	DB	00H
	DB	00H
	DB	00H
	DB	00H
	DB	00H
	DB	00H
	DB	00H
	DB	00H
	DB	00H
	DB	00H
	DB	00H
	DB	00H
	DB	00H
	DB	00H
	DB	00H
	DB	00H
	DB	00H
	DB	00H
	DB	00H
	DB	00H
	DB	00H
	DB	00H
	DB	00H
	DB	00H
	DB	00H
	DB	00H
	DB	00H
	DB	00H
	DB	00H
	DB	00H
	DB	00H
	DB	00H
	DB	00H
	DB	00H
	DB	00H
	DB	00H
	DB	00H
	DB	00H
	DB	00H
	DB	00H
	DB	00H
	DB	00H
	DB	00H
	DB	00H
	DB	00H
	DB	00H
	DB	00H
	DB	00H
	DB	00H
	DB	00H
	DB	00H
	DB	00H
	DB	00H
	DB	00H
	DB	00H
	DB	00H
	DB	00H
	DB	00H
	DB	00H
	DB	00H
	DB	00H
	DB	00H
	DB	00H
	DB	00H
	DB	00H
	DB	00H
	DB	00H
	DB	00H
	DB	00H
	DB	00H
	DB	00H
	DB	00H
	DB	00H
	DB	00H
	DB	00H
	DB	00H
	DB	00H
	DB	00H
	DB	00H
	DB	00H
	DB	00H
	DB	00H
	DB	00H
	DB	00H
	DB	00H
	DB	00H
	DB	00H
	DB	00H
	DB	00H
	DB	00H
	DB	00H
	DB	00H
	DB	00H
	DB	00H
	DB	00H
	DB	00H
	DB	00H
	DB	00H
	DB	00H
	DB	00H
	DB	00H
	DB	00H
	DB	00H
	DB	00H
	DB	00H
	DB	00H
	DB	00H
	DB	00H
	DB	00H
	DB	00H
	DB	00H
	DB	00H
	DB	00H
	DB	00H
	DB	00H
	DB	00H
	DB	00H
	DB	00H
	DB	00H
	DB	00H
	DB	00H
	DB	00H
	DB	00H
	DB	00H
	DB	00H
	DB	00H
	DB	00H
	DB	00H
	DB	00H
	DB	00H
	DB	00H
	DB	00H
	DB	00H
	DB	00H
	DB	00H
	DB	00H
	DB	00H
	DB	00H
	DB	00H
	DB	00H
	DB	00H
	DB	00H
	DB	00H
	DB	00H
	DB	00H
	DB	00H
	DB	00H
	DB	00H
	DB	00H
	DB	00H
	DB	00H
	DB	00H
	DB	00H
	DB	00H
	DB	00H
	DB	00H
	DB	00H
	DB	00H
	DB	00H
	DB	00H
	DB	00H
	DB	00H
	DB	00H
	DB	00H
	DB	00H
	DB	00H
	DB	00H
	DB	00H
	DB	00H
	DB	00H
	DB	00H
	DB	00H
	DB	00H
	DB	00H
	DB	00H
	DB	00H
	DB	00H
	DB	00H
	DB	00H
	DB	00H
	DB	00H
	DB	00H
	DB	00H
	DB	00H
	DB	00H
	DB	00H
	DB	00H
	DB	00H
	DB	00H
	DB	00H
	DB	00H
	DB	00H
	DB	00H
	DB	00H
	DB	00H
	DB	00H
	DB	00H
	DB	00H
	DB	00H
	DB	00H
	DB	00H
	DB	00H
	DB	00H
	DB	00H
	DB	00H
	DB	00H
	DB	00H
	DB	00H
	DB	00H
	DB	00H
	DB	00H
	DB	00H
	DB	00H
	DB	00H
	DB	00H
	DB	00H
	DB	00H
	DB	00H
	DB	00H
	DB	00H
	DB	00H
	DB	00H
	DB	00H
	DB	00H
	DB	00H
	DB	00H
	DB	00H
	DB	00H
	DB	00H
	DB	00H
	DB	00H
	DB	00H
	DB	00H
	DB	00H
	DB	00H
	DB	00H
	DB	00H
	DB	00H
	DB	00H
	DB	00H
	DB	00H
	DB	00H
	DB	00H
	DB	00H
	DB	00H
	DB	00H
	DB	00H
	DB	00H
	DB	00H
	DB	00H
	DB	00H
	DB	00H
	DB	00H
	DB	00H
	DB	00H
	DB	00H
	DB	00H
	DB	00H
	DB	00H
	DB	00H
	DB	00H
	DB	00H
	DB	00H
	DB	00H
	DB	00H
	DB	00H
	DB	00H
	DB	00H
	DB	00H
	DB	00H
	DB	00H
	DB	00H
	DB	00H
	DB	00H
	DB	00H
	DB	00H
	DB	00H
	DB	00H
	DB	00H
	DB	00H
	DB	00H
	DB	00H
	DB	00H
	DB	00H
	DB	00H
	DB	00H
	DB	00H
	DB	00H
	DB	00H
	DB	00H
	DB	00H
	DB	00H
	DB	00H
	DB	00H
	DB	00H
	DB	00H
	DB	00H
	DB	00H
	DB	00H
	DB	00H
	DB	00H
	DB	00H
	DB	00H
	DB	00H
	DB	00H
	DB	00H
	DB	00H
	DB	00H
	DB	00H
	DB	00H
	DB	00H
	DB	00H
	DB	00H
	DB	00H
	DB	00H
	DB	00H
	DB	00H
	DB	00H
	DB	00H
	DB	00H
	DB	00H
	DB	00H
	DB	00H
	DB	00H
	DB	00H
	DB	00H
	DB	00H
	DB	00H
	DB	00H
	DB	00H
	DB	00H
	DB	00H
	DB	00H
	DB	00H
	DB	00H
	DB	00H
	DB	00H
	DB	00H
	DB	00H
	DB	00H
	DB	00H
	DB	00H
	DB	00H
	DB	00H
	DB	00H
	DB	00H
	DB	00H
	DB	00H
	DB	00H
	DB	00H
	DB	00H
	DB	00H
	DB	00H
	DB	00H
	DB	00H
	DB	00H
	DB	00H
	DB	00H
	DB	00H
	DB	00H
	DB	00H
	DB	00H
	DB	00H
	DB	00H
	DB	00H
	DB	00H
	DB	00H
	DB	00H
	DB	00H
	DB	00H
	DB	00H
	DB	00H
	DB	00H
	DB	00H
	DB	00H
	DB	00H
	DB	00H
	DB	00H
	DB	00H
	DB	00H
	DB	00H
	DB	00H
	DB	00H
	DB	00H
	DB	00H
	DB	00H
	DB	00H
	DB	00H
	DB	00H
	DB	00H
	DB	00H
	DB	00H
	DB	00H
	DB	00H
	DB	00H
	DB	00H
	DB	00H
	DB	00H
	DB	00H
	DB	00H
	DB	00H
	DB	00H
	DB	00H
	DB	00H
	DB	00H
	DB	00H
	DB	00H
	DB	00H
	DB	00H
	DB	00H
	DB	00H
	DB	00H
	DB	00H
	DB	00H
	DB	00H
	DB	00H
	DB	00H
	DB	00H
	DB	00H
	DB	00H
	DB	00H
	DB	00H
	DB	00H
	DB	00H
	DB	00H
	DB	00H
	DB	00H
	DB	00H
	DB	00H
	DB	00H
	DB	00H
	DB	00H
	DB	00H
	DB	00H
	DB	00H
	DB	00H
	DB	00H
	DB	00H
	DB	00H
	DB	00H
	DB	00H
	DB	00H
	DB	00H
	DB	00H
	DB	00H
	DB	00H
	DB	00H
	DB	00H
	DB	00H
	DB	00H
	DB	00H
	DB	00H
	DB	00H
	DB	00H
	DB	00H
	DB	00H
	DB	00H
	DB	00H
	DB	00H
	DB	00H
	DB	00H
	DB	00H
	DB	00H
	DB	00H
	DB	00H
	DB	00H
	DB	00H
	DB	00H
	DB	00H
	DB	00H
	DB	00H
	DB	00H
	DB	00H
	DB	00H
	DB	00H
	DB	00H
	DB	00H
	DB	00H
	DB	00H
	DB	00H
	DB	00H
	DB	00H
	DB	00H
	DB	00H
	DB	00H
	DB	00H
	DB	00H
	DB	00H
	DB	00H
	DB	00H
	DB	00H
	DB	00H
	DB	00H
	DB	00H
	DB	00H
	DB	00H
	DB	00H
	DB	00H
	DB	00H
	DB	00H
	DB	00H
	DB	00H
	DB	00H
	DB	00H
	DB	00H
	DB	00H
	DB	00H
	DB	00H
	DB	00H
	DB	00H
	DB	00H
	DB	00H
	DB	00H
	DB	00H
	DB	00H
	DB	00H
	DB	00H
	DB	00H
	DB	00H
	DB	00H
	DB	00H
	DB	00H
	DB	00H
	DB	00H
	DB	00H
	DB	00H
	DB	00H
	DB	00H
	DB	00H
	DB	00H
	DB	00H
	DB	00H
	DB	00H
	DB	00H
	DB	00H
	DB	00H
	DB	00H
	DB	00H
	DB	00H
	DB	00H
	DB	00H
	DB	00H
	DB	00H
	DB	00H
	DB	00H
	DB	00H
	DB	00H
	DB	00H
	DB	00H
	DB	00H
	DB	00H
	DB	00H
	DB	00H
	DB	00H
	DB	00H
	DB	00H
	DB	00H
	DB	00H
	DB	00H
	DB	00H
	DB	00H
	DB	00H
	DB	00H
	DB	00H
	DB	00H
	DB	00H
	DB	00H
	DB	00H
	DB	00H
	DB	00H
	DB	00H
	DB	00H
	DB	00H
	DB	00H
	DB	00H
	DB	00H
	DB	00H
	DB	00H
	DB	00H
	DB	00H
	DB	00H
	DB	00H
	DB	00H
	DB	00H
	DB	00H
	DB	00H
	DB	00H
	DB	00H
	DB	00H
	DB	00H
	DB	00H
	DB	00H
	DB	00H
	DB	00H
	DB	00H
	DB	00H
	DB	00H
	DB	00H
	DB	00H
	DB	00H
	DB	00H
	DB	00H
	DB	00H
	DB	00H
	DB	00H
	DB	00H
	DB	00H
	DB	00H
	DB	00H
	DB	00H
	DB	00H
	DB	00H
	DB	00H
	DB	00H
	DB	00H
	DB	00H
	DB	00H
	DB	00H
	DB	00H
	DB	00H
	DB	00H
	DB	00H
	DB	00H
	DB	00H
	DB	00H
	DB	00H
	DB	00H
	DB	00H
	DB	00H
	DB	00H
	DB	00H
	DB	00H
	DB	00H
	DB	00H
	DB	00H
	DB	00H
	DB	00H
	DB	00H
	DB	00H
	DB	00H
	DB	00H
	DB	00H
	DB	00H
	DB	00H
	DB	00H
	DB	00H
	DB	00H
	DB	00H
	DB	00H
	DB	00H
	DB	00H
	DB	00H
	DB	00H
	DB	00H
	DB	00H
	DB	00H
	DB	00H
	DB	00H
	DB	00H
	DB	00H
	DB	00H
	DB	00H
	DB	00H
	DB	00H
	DB	00H
	DB	00H
	DB	00H
	DB	00H
	DB	00H
	DB	00H
	DB	00H
	DB	00H
	DB	00H
	DB	00H
	DB	00H
	DB	00H
	DB	00H
	DB	00H
	DB	00H
	DB	00H
	DB	00H
	DB	00H
	DB	00H
	DB	00H
	DB	00H
	DB	00H
	DB	00H
	DB	00H
	DB	00H
	DB	00H
	DB	00H
	DB	00H
	DB	00H
	DB	00H
	DB	00H
	DB	00H
	DB	00H
	DB	00H
	DB	00H
	DB	00H
	DB	00H
	DB	00H
	DB	00H
	DB	00H
	DB	00H
	DB	00H
	DB	00H
	DB	00H
	DB	00H
	DB	00H
	DB	00H
	DB	00H
	DB	00H
	DB	00H
	DB	00H
	DB	00H
	DB	00H
	DB	00H
	DB	00H
	DB	00H
	DB	00H
	DB	00H
	DB	00H
	DB	00H
	DB	00H
	DB	00H
	DB	00H
	DB	00H
	DB	00H
	DB	00H
	DB	00H
	DB	00H
	DB	00H
	DB	00H
	DB	00H
	DB	00H
	DB	00H
	DB	00H
	DB	00H
	DB	00H
	DB	00H
	DB	00H
	DB	00H
	DB	00H
	DB	00H
	DB	00H
	DB	00H
	DB	00H
	DB	00H
	DB	00H
	DB	00H
	DB	00H
	DB	00H
	DB	00H
	DB	00H
	DB	00H
	DB	00H
	DB	00H
	DB	00H
	DB	00H
	DB	00H
	DB	00H
	DB	00H
	DB	00H
	DB	00H
	DB	00H
	DB	00H
	DB	00H
	DB	00H
	DB	00H
	DB	00H
	DB	00H
	DB	00H
	DB	00H
	DB	00H
	DB	00H
	DB	00H
	DB	00H
	DB	00H
	DB	00H
	DB	00H
	DB	00H
	DB	00H
	DB	00H
	DB	00H
	DB	00H
	DB	00H
	DB	00H
	DB	00H
	DB	00H
	DB	00H
	DB	00H
	DB	00H
	DB	00H
	DB	00H
	DB	00H
	DB	00H
	DB	00H
	DB	00H
	DB	00H
	DB	00H
	DB	00H
	DB	00H
	DB	00H
	DB	00H
	DB	00H
	DB	00H
	DB	00H
	DB	00H
	DB	00H
	DB	00H
	DB	00H
	DB	00H
	DB	00H
	DB	00H
	DB	00H
	DB	00H
	DB	00H
	DB	00H
	DB	00H
	DB	00H
	DB	00H
	DB	00H
	DB	00H
	DB	00H
	DB	00H
	DB	00H
	DB	00H
	DB	00H
	DB	00H
	DB	00H
	DB	00H
	DB	00H
	DB	00H
	DB	00H
	DB	00H
	DB	00H
	DB	00H
	DB	00H
	DB	00H
	DB	00H
	DB	00H
	DB	00H
	DB	00H
	DB	00H
	DB	00H
	DB	00H
	DB	00H
	DB	00H
	DB	00H
	DB	00H
	DB	00H
	DB	00H
	DB	00H
	DB	00H
	DB	00H
	DB	00H
	DB	00H
	DB	00H
	DB	00H
	DB	00H
	DB	00H
	DB	00H
	DB	00H
	DB	00H
	DB	00H
	DB	00H
	DB	00H
	DB	00H
	DB	00H
	DB	00H
	DB	00H
	DB	00H
	DB	00H
	DB	00H
	DB	00H
	DB	00H
	DB	00H
	DB	00H
	DB	00H
	DB	00H
	DB	00H
	DB	00H
	DB	00H
	DB	00H
	DB	00H
	DB	00H
	DB	00H
	DB	00H
	DB	00H
	DB	00H
	DB	00H
	DB	00H
	DB	00H
	DB	00H
	DB	00H
	DB	00H
	DB	00H
	DB	00H
	DB	00H
	DB	00H
	DB	00H
	DB	00H
	DB	00H
	DB	00H
	DB	00H
	DB	00H
	DB	00H
	DB	00H
	DB	00H
	DB	00H
	DB	00H
	DB	00H
	DB	00H
	DB	00H
	DB	00H
	DB	00H
	DB	00H
	DB	00H
	DB	00H
	DB	00H
	DB	00H
	DB	00H
	DB	00H
	DB	00H
	DB	00H
	DB	00H
	DB	00H
	DB	00H
	DB	00H
	DB	00H
	DB	00H
	DB	00H
	DB	00H
	DB	00H
	DB	00H
	DB	00H
	DB	00H
	DB	00H
	DB	00H
	DB	00H
	DB	00H
	DB	00H
	DB	00H
	DB	00H
	DB	00H
	DB	00H
	DB	00H
	DB	00H
	DB	00H
	DB	00H
	DB	00H
	DB	00H
	DB	00H
	DB	00H
	DB	00H
	DB	00H
	DB	00H
	DB	00H
	DB	00H
	DB	00H
	DB	00H
	DB	00H
	DB	00H
	DB	00H
	DB	00H
	DB	00H
	DB	00H
	DB	00H
	DB	00H
	DB	00H
	DB	00H
	DB	00H
	DB	00H
	DB	00H
	DB	00H
	DB	00H
	DB	00H
	DB	00H
	DB	00H
	DB	00H
	DB	00H
	DB	00H
	DB	00H
	DB	00H
	DB	00H
	DB	00H
	DB	00H
	DB	00H
	DB	00H
	DB	00H
	DB	00H
	DB	00H
	DB	00H
	DB	00H
	DB	00H
	DB	00H
	DB	00H
	DB	00H
	DB	00H
	DB	00H
	DB	00H
	DB	00H
	DB	00H
	DB	00H
	DB	00H
	DB	00H
	DB	00H
	DB	00H
	DB	00H
	DB	00H
	DB	00H
	DB	00H
	DB	00H
	DB	00H
	DB	00H
	DB	00H
	DB	00H
	DB	00H
	DB	00H
	DB	00H
	DB	00H
	DB	00H
	DB	00H
	DB	00H
	DB	00H
	DB	00H
	DB	00H
	DB	00H
	DB	00H
	DB	00H
	DB	00H
	DB	00H
	DB	00H
	DB	00H
	DB	00H
	DB	00H
	DB	00H
	DB	00H
	DB	00H
	DB	00H
	DB	00H
	DB	00H
	DB	00H
	DB	00H
	DB	00H
	DB	00H
	DB	00H
	DB	00H
	DB	00H
	DB	00H
	DB	00H
	DB	00H
	DB	00H
	DB	00H
	DB	00H
	DB	00H
	DB	00H
	DB	00H
	DB	00H
	DB	00H
	DB	00H
	DB	00H
	DB	00H
	DB	00H
	DB	00H
	DB	00H
	DB	00H
	DB	00H
	DB	00H
	DB	00H
	DB	00H
	DB	00H
	DB	00H
	DB	00H
	DB	00H
	DB	00H
	DB	00H
	DB	00H
	DB	00H
	DB	00H
	DB	00H
	DB	00H
	DB	00H
	DB	00H
	DB	00H
	DB	00H
	DB	00H
	DB	00H
	DB	00H
	DB	00H
	DB	00H
	DB	00H
	DB	00H
	DB	00H
	DB	00H
	DB	00H
	DB	00H
	DB	00H
	DB	00H
	DB	00H
	DB	00H
	DB	00H
	DB	00H
	DB	00H
	DB	00H
	DB	00H
	DB	00H
	DB	00H
	DB	00H
	DB	00H
	DB	00H
	DB	00H
	DB	00H
	DB	00H
	DB	00H
	DB	00H
	DB	00H
	DB	00H
	DB	00H
	DB	00H
CONST	ENDS
END
