; Listing generated by Microsoft (R) Optimizing Compiler Version 16.00.40219.01 

	TITLE	C:\DUII\DUII\Graphics\GreenSD.c
	.686P
	.XMM
	include listing.inc
	.model	flat

INCLUDELIB LIBCMT
INCLUDELIB OLDNAMES

PUBLIC	_bmGreenSD
CONST	SEGMENT
_ColorsGreenSD DD 00H
	DD	0222222H
	DD	0121212H
	DD	0caa0dH
	DD	010de11H
	DD	0120412H
	DD	056c06H
	DD	0c9e0dH
	DD	0db90eH
	DD	0b960cH
	DD	0db40eH
	DD	0fd410H
	DD	012f714H
	DD	0ec10fH
	DD	0fc810H
	DD	0fce10H
	DD	0232023H
	DD	010da11H
	DD	0fffefeH
	DD	040604H
	DD	0414141H
	DD	0a890aH
	DD	0dbe0eH
	DD	012f013H
	DD	0b8e0bH
	DD	02c2c2cH
	DD	015101H
	DD	07500H
	DD	0252125H
	DD	0a910cH
	DD	0ca50dH
	DD	0393939H
	DD	09820aH
	DD	0211e21H
	DD	0313131H
	DD	03d3d3dH
	DD	07100H
	DD	08a509H
	DD	01e1a1dH
	DD	0353535H
	DD	060006H
	DD	090909H
	DD	0191519H
	DD	01a1a1aH
	DD	01e1e1eH
	DD	083d09H
	DD	06800H
	DD	08000H
	DD	0b9a0cH
	DD	040004H
	DD	040404H
	DD	0f0f0fH
	DD	011a01H
	DD	0161616H
	DD	0181818H
	DD	0242424H
	DD	02e2e2eH
	DD	03b3b3bH
	DD	015501H
	DD	057206H
	DD	07c00H
	DD	0454545H
	DD	058106H
	DD	0a8e0cH
	DD	0c960cH
	DD	0109d11H
	DD	0ba60cH
	DD	0ec610H
	DD	010d510H
	DD	011ee12H
	DD	013ff15H
	DD	0d00H
	DD	080108H
	DD	0e020dH
	DD	0d040cH
	DD	0120a12H
	DD	0161116H
	DD	0181218H
	DD	01a181aH
	DD	02d00H
	DD	083308H
	DD	0241e24H
	DD	0272727H
	DD	02a2a2aH
	DD	0a410aH
	DD	025a02H
	DD	0c500cH
	DD	0115d10H
	DD	06e00H
	DD	057606H
	DD	07800H
	DD	04d4d4dH
	DD	0495c52H
	DD	0515151H
	DD	018401H
	DD	09860aH
	DD	0a8a0cH
	DD	019602H
	DD	059306H
	DD	059806H
	DD	0c920cH
	DD	0c9b0dH
	DD	0b9d0dH
	DD	0db20eH
	DD	0ec40fH
	DD	010e111H
	DD	011e812H
	DD	0daf1daH
	DD	0ebf9eaH
	DD	0fffafeH
	DD	060606H
	DD	0d030cH
	DD	011701H
	DD	011c01H
	DD	0120312H
	DD	0160f16H
	DD	01c171bH
	DD	062b05H
	DD	072f07H
	DD	0103316H
	DD	0262526H
	DD	0282428H
	DD	0213925H
	DD	0302d30H
	DD	039393aH
	DD	04000H
	DD	0c470bH
	DD	074b08H
	DD	084f09H
	DD	0c4b0dH
	DD	055604H
	DD	05e00H
	DD	035f04H
	DD	0c550cH
	DD	0f580eH
	DD	0e4a12H
	DD	026102H
	DD	036505H
	DD	0b600cH
	DD	0e620fH
	DD	0f650fH
	DD	027d04H
	DD	057f07H
	DD	077f08H
	DD	0106410H
	DD	0116a11H
	DD	0106f11H
	DD	0137413H
	DD	0137e1bH
	DD	02a4133H
	DD	031623cH
	DD	02b7034H
	DD	0454f4eH
	DD	04b4b4bH
	DD	041584bH
	DD	0494550H
	DD	04e5650H
	DD	0485951H
	DD	0575656H
	DD	04c6e56H
	DD	053645cH
	DD	05d665eH
	DD	0526a5aH
	DD	0666d65H
	DD	06a726aH
	DD	077747bH
	DD	0797a7aH
	DD	038204H
	DD	078607H
	DD	058b03H
	DD	08c00H
	DD	068807H
	DD	088c08H
	DD	0a8d09H
	DD	0a8c0bH
	DD	098e0aH
	DD	0c8d0cH
	DD	0118a0dH
	DD	059706H
	DD	079008H
	DD	0b920bH
	DD	089a09H
	DD	089d08H
	DD	0188918H
	DD	0e9512H
	DD	0159f16H
	DD	0159f18H
	DD	0248d1eH
	DD	0209c1cH
	DD	0ba00dH
	DD	0ca20dH
	DD	0ebf0fH
	DD	0269e2dH
	DD	0299a29H
	DD	03b8739H
	DD	0318c3aH
	DD	0369830H
	DD	0dc40fH
	DD	0eca0fH
	DD	0fd310H
	DD	012f914H
	DD	0589454H
	DD	04db24eH
	DD	054a752H
	DD	058a153H
	DD	052aa51H
	DD	05aaf59H
	DD	05ab75aH
	DD	05db25dH
	DD	05fb45eH
	DD	05cb85bH
	DD	061ac57H
	DD	06db25dH
	DD	0668266H
	DD	0778474H
	DD	05fa862H
	DD	067b267H
	DD	074b66bH
	DD	083887fH
	DD	082bd70H
	DD	083bf7aH
	DD	0827b82H
	DD	08a8989H
	DD	09bb48dH
	DD	09b92a5H
	DD	0b1afb6H
	DD	0b9b5b5H
	DD	084c98bH
	DD	090c883H
	DD	094c09dH
	DD	0afd3a3H
	DD	0a6dba2H
	DD	0b0dca6H
	DD	0b2ddb6H
	DD	0b4dabbH
	DD	0b1e1b6H
	DD	0c2c0bfH
	DD	0ccc8d4H
	DD	0d8cfdfH
	DD	0c6ddd1H
	DD	0cdd6d8H
	DD	0dbefceH
	DD	0d3f0d6H
	DD	0dbf3d5H
	DD	0ddf5deH
	DD	0ebfceaH
	DD	0f8fcedH
	DD	0eee6f0H
	DD	0f3e5f1H
	DD	0f4eef6H
	DD	0f8edfdH
	DD	0f1fbf1H
	DD	0f1faf4H
	DD	0f1fff4H
	DD	0fff5ffH
	DD	0f8f8f8H
_PalGreenSD DD	0100H
	DB	00H
	ORG $+3
	DD	FLAT:_ColorsGreenSD
_bmGreenSD DW	01bH
	DW	023H
	DW	01bH
	DW	08H
	DD	FLAT:_acGreenSD
	DD	FLAT:_PalGreenSD
	ORG $+4
_acGreenSD DB	01H
	DB	01H
	DB	01H
	DB	01H
	DB	01H
	DB	01H
	DB	01H
	DB	01H
	DB	01H
	DB	01H
	DB	01H
	DB	01H
	DB	01H
	DB	01H
	DB	01H
	DB	01H
	DB	01H
	DB	01H
	DB	01H
	DB	01H
	DB	01H
	DB	01H
	DB	01H
	DB	01H
	DB	01H
	DB	01H
	DB	01H
	DB	01H
	DB	01H
	DB	078H
	DB	01H
	DB	010H
	DB	010H
	DB	010H
	DB	010H
	DB	010H
	DB	010H
	DB	010H
	DB	010H
	DB	010H
	DB	010H
	DB	010H
	DB	010H
	DB	010H
	DB	010H
	DB	010H
	DB	01H
	DB	078H
	DB	037H
	DB	01H
	DB	01H
	DB	01H
	DB	01H
	DB	01H
	DB	019H
	DB	019H
	DB	02bH
	DB	032H
	DB	013H
	DB	013H
	DB	013H
	DB	013H
	DB	013H
	DB	013H
	DB	013H
	DB	013H
	DB	013H
	DB	013H
	DB	013H
	DB	013H
	DB	013H
	DB	013H
	DB	013H
	DB	031H
	DB	04cH
	DB	019H
	DB	038H
	DB	019H
	DB	019H
	DB	019H
	DB	019H
	DB	01fH
	DB	01fH
	DB	06fH
	DB	085H
	DB	0c6H
	DB	016H
	DB	016H
	DB	016H
	DB	016H
	DB	016H
	DB	016H
	DB	016H
	DB	016H
	DB	016H
	DB	016H
	DB	016H
	DB	016H
	DB	016H
	DB	0c5H
	DB	0afH
	DB	047H
	DB	04bH
	DB	022H
	DB	039H
	DB	01fH
	DB	01fH
	DB	01fH
	DB	014H
	DB	014H
	DB	049H
	DB	092H
	DB	046H
	DB	017H
	DB	017H
	DB	017H
	DB	017H
	DB	017H
	DB	017H
	DB	017H
	DB	017H
	DB	017H
	DB	017H
	DB	017H
	DB	017H
	DB	017H
	DB	017H
	DB	0c8H
	DB	0bfH
	DB	04fH
	DB	048H
	DB	07bH
	DB	03dH
	DB	014H
	DB	014H
	DB	014H
	DB	014H
	DB	049H
	DB	08cH
	DB	06aH
	DB	011H
	DB	011H
	DB	011H
	DB	011H
	DB	011H
	DB	011H
	DB	011H
	DB	011H
	DB	011H
	DB	011H
	DB	011H
	DB	011H
	DB	011H
	DB	011H
	DB	011H
	DB	06aH
	DB	044H
	DB	082H
	DB	00H
	DB	051H
	DB	014H
	DB	014H
	DB	014H
	DB	014H
	DB	04aH
	DB	08bH
	DB	04H
	DB	0fH
	DB	0fH
	DB	0fH
	DB	0fH
	DB	0fH
	DB	0fH
	DB	0fH
	DB	0fH
	DB	0fH
	DB	0fH
	DB	0fH
	DB	0fH
	DB	0fH
	DB	0fH
	DB	0fH
	DB	0fH
	DB	0bH
	DB	04H
	DB	05fH
	DB	047H
	DB	021H
	DB	014H
	DB	014H
	DB	014H
	DB	04aH
	DB	056H
	DB	0fH
	DB	068H
	DB	0dH
	DB	0dH
	DB	0dH
	DB	0dH
	DB	0dH
	DB	0dH
	DB	0dH
	DB	0dH
	DB	0dH
	DB	0dH
	DB	0dH
	DB	0dH
	DB	0dH
	DB	0dH
	DB	0dH
	DB	0dH
	DB	068H
	DB	011H
	DB	03bH
	DB	051H
	DB	05bH
	DB	023H
	DB	014H
	DB	026H
	DB	00H
	DB	080H
	DB	08H
	DB	0aH
	DB	0aH
	DB	0aH
	DB	0aH
	DB	0aH
	DB	0aH
	DB	0aH
	DB	0aH
	DB	0aH
	DB	0aH
	DB	0aH
	DB	0aH
	DB	0aH
	DB	0aH
	DB	0aH
	DB	0aH
	DB	0aH
	DB	0dH
	DB	03bH
	DB	079H
	DB	09eH
	DB	039H
	DB	039H
	DB	023H
	DB	026H
	DB	034H
	DB	0beH
	DB	03H
	DB	042H
	DB	042H
	DB	025H
	DB	025H
	DB	042H
	DB	01eH
	DB	01eH
	DB	042H
	DB	025H
	DB	025H
	DB	025H
	DB	042H
	DB	01eH
	DB	01eH
	DB	01eH
	DB	01eH
	DB	067H
	DB	02eH
	DB	078H
	DB	05dH
	DB	01fH
	DB	01fH
	DB	023H
	DB	079H
	DB	071H
	DB	09H
	DB	07H
	DB	063H
	DB	061H
	DB	0b9H
	DB	0baH
	DB	0b2H
	DB	063H
	DB	065H
	DB	065H
	DB	041H
	DB	041H
	DB	041H
	DB	065H
	DB	061H
	DB	0b5H
	DB	065H
	DB	030H
	DB	01eH
	DB	088H
	DB	01cH
	DB	05dH
	DB	027H
	DB	027H
	DB	01fH
	DB	010H
	DB	034H
	DB	01dH
	DB	062H
	DB	0bcH
	DB	0e7H
	DB	0f5H
	DB	06cH
	DB	0e9H
	DB	0c0H
	DB	0aaH
	DB	0caH
	DB	06bH
	DB	06bH
	DB	0f4H
	DB	0f2H
	DB	0e3H
	DB	0b8H
	DB	062H
	DB	01dH
	DB	066H
	DB	055H
	DB	01cH
	DB	05bH
	DB	022H
	DB	022H
	DB	027H
	DB	021H
	DB	034H
	DB	015H
	DB	0a9H
	DB	0e8H
	DB	0f9H
	DB	0a5H
	DB	0daH
	DB	012H
	DB	0efH
	DB	01bH
	DB	0d2H
	DB	012H
	DB	0e1H
	DB	0deH
	DB	0e2H
	DB	012H
	DB	0e5H
	DB	02fH
	DB	0adH
	DB	040H
	DB	03aH
	DB	01cH
	DB	099H
	DB	038H
	DB	038H
	DB	022H
	DB	04eH
	DB	070H
	DB	03eH
	DB	0b1H
	DB	0f1H
	DB	0edH
	DB	087H
	DB	02eH
	DB	0ccH
	DB	0ddH
	DB	07fH
	DB	0cfH
	DB	012H
	DB	098H
	DB	01aH
	DB	02eH
	DB	0e6H
	DB	0faH
	DB	097H
	DB	05eH
	DB	018H
	DB	01aH
	DB	01cH
	DB	03dH
	DB	019H
	DB	019H
	DB	02bH
	DB	00H
	DB	075H
	DB	020H
	DB	02fH
	DB	0dcH
	DB	012H
	DB	0fdH
	DB	0ebH
	DB	0d7H
	DB	08aH
	DB	058H
	DB	0d0H
	DB	012H
	DB	05cH
	DB	05aH
	DB	02fH
	DB	0d4H
	DB	012H
	DB	09fH
	DB	05aH
	DB	060H
	DB	01aH
	DB	01cH
	DB	03dH
	DB	052H
	DB	052H
	DB	048H
	DB	076H
	DB	020H
	DB	020H
	DB	08fH
	DB	05aH
	DB	0c9H
	DB	0ecH
	DB	0f8H
	DB	012H
	DB	0eaH
	DB	05aH
	DB	0ceH
	DB	012H
	DB	05cH
	DB	024H
	DB	03cH
	DB	0d3H
	DB	012H
	DB	0a2H
	DB	024H
	DB	060H
	DB	01aH
	DB	010H
	DB	014H
	DB	01H
	DB	01H
	DB	048H
	DB	02dH
	DB	0aeH
	DB	08eH
	DB	0b7H
	DB	0d8H
	DB	0c3H
	DB	083H
	DB	057H
	DB	0dfH
	DB	06dH
	DB	096H
	DB	0cdH
	DB	012H
	DB	09dH
	DB	058H
	DB	05aH
	DB	0dbH
	DB	012H
	DB	09aH
	DB	01bH
	DB	060H
	DB	01aH
	DB	010H
	DB	023H
	DB	02cH
	DB	02cH
	DB	028H
	DB	02dH
	DB	060H
	DB	08dH
	DB	0bbH
	DB	0f6H
	DB	0f0H
	DB	094H
	DB	02fH
	DB	0e4H
	DB	0feH
	DB	095H
	DB	0cbH
	DB	012H
	DB	0a0H
	DB	059H
	DB	0c4H
	DB	0f3H
	DB	0eeH
	DB	077H
	DB	0a7H
	DB	015H
	DB	01aH
	DB	010H
	DB	07cH
	DB	02bH
	DB	02bH
	DB	028H
	DB	02dH
	DB	015H
	DB	020H
	DB	03cH
	DB	0d9H
	DB	06dH
	DB	0fcH
	DB	06cH
	DB	012H
	DB	0e0H
	DB	04fH
	DB	0d1H
	DB	012H
	DB	0ffH
	DB	0fbH
	DB	012H
	DB	0f7H
	DB	09bH
	DB	03aH
	DB	05fH
	DB	015H
	DB	01aH
	DB	021H
	DB	027H
	DB	035H
	DB	035H
	DB	028H
	DB	02dH
	DB	0aeH
	DB	020H
	DB	020H
	DB	02fH
	DB	0c2H
	DB	0d6H
	DB	0a6H
	DB	09cH
	DB	050H
	DB	01bH
	DB	0c1H
	DB	0d5H
	DB	0a3H
	DB	0a4H
	DB	0a1H
	DB	07aH
	DB	01aH
	DB	015H
	DB	020H
	DB	060H
	DB	01aH
	DB	021H
	DB	022H
	DB	02H
	DB	02H
	DB	031H
	DB	054H
	DB	064H
	DB	015H
	DB	015H
	DB	015H
	DB	05eH
	DB	01bH
	DB	02eH
	DB	024H
	DB	0acH
	DB	0b0H
	DB	0a8H
	DB	01bH
	DB	024H
	DB	024H
	DB	024H
	DB	0a7H
	DB	018H
	DB	015H
	DB	015H
	DB	064H
	DB	03aH
	DB	026H
	DB	019H
	DB	033H
	DB	033H
	DB	031H
	DB	054H
	DB	040H
	DB	018H
	DB	018H
	DB	018H
	DB	018H
	DB	01dH
	DB	064H
	DB	064H
	DB	018H
	DB	018H
	DB	018H
	DB	01dH
	DB	064H
	DB	064H
	DB	0b4H
	DB	018H
	DB	018H
	DB	018H
	DB	018H
	DB	040H
	DB	055H
	DB	026H
	DB	053H
	DB	029H
	DB	029H
	DB	00H
	DB	07eH
	DB	0bdH
	DB	09H
	DB	09H
	DB	09H
	DB	09H
	DB	09H
	DB	09H
	DB	09H
	DB	09H
	DB	09H
	DB	09H
	DB	09H
	DB	09H
	DB	09H
	DB	09H
	DB	09H
	DB	09H
	DB	09H
	DB	09H
	DB	0bdH
	DB	084H
	DB	074H
	DB	078H
	DB	029H
	DB	029H
	DB	00H
	DB	081H
	DB	03H
	DB	07H
	DB	07H
	DB	07H
	DB	07H
	DB	07H
	DB	07H
	DB	07H
	DB	07H
	DB	07H
	DB	07H
	DB	07H
	DB	07H
	DB	07H
	DB	07H
	DB	07H
	DB	07H
	DB	07H
	DB	07H
	DB	03H
	DB	089H
	DB	074H
	DB	01H
	DB	013H
	DB	013H
	DB	00H
	DB	056H
	DB	0aH
	DB	03H
	DB	03H
	DB	03H
	DB	03H
	DB	03H
	DB	03H
	DB	03H
	DB	03H
	DB	03H
	DB	03H
	DB	03H
	DB	03H
	DB	03H
	DB	03H
	DB	03H
	DB	03H
	DB	03H
	DB	03H
	DB	0aH
	DB	06H
	DB	074H
	DB	02cH
	DB	00H
	DB	00H
	DB	00H
	DB	086H
	DB	043H
	DB	08H
	DB	08H
	DB	08H
	DB	08H
	DB	08H
	DB	08H
	DB	08H
	DB	08H
	DB	08H
	DB	08H
	DB	08H
	DB	08H
	DB	08H
	DB	08H
	DB	08H
	DB	08H
	DB	08H
	DB	08H
	DB	043H
	DB	059H
	DB	02aH
	DB	026H
	DB	00H
	DB	00H
	DB	00H
	DB	057H
	DB	044H
	DB	0eH
	DB	0eH
	DB	0eH
	DB	0eH
	DB	0eH
	DB	0eH
	DB	0eH
	DB	0eH
	DB	0eH
	DB	0eH
	DB	0eH
	DB	0eH
	DB	0eH
	DB	0eH
	DB	0eH
	DB	0eH
	DB	0eH
	DB	0eH
	DB	044H
	DB	08eH
	DB	04dH
	DB	02bH
	DB	00H
	DB	00H
	DB	00H
	DB	090H
	DB	069H
	DB	0bH
	DB	0bH
	DB	0bH
	DB	0bH
	DB	0bH
	DB	0bH
	DB	0bH
	DB	0bH
	DB	0bH
	DB	0bH
	DB	0bH
	DB	0bH
	DB	0bH
	DB	0bH
	DB	0bH
	DB	0bH
	DB	0bH
	DB	0c7H
	DB	069H
	DB	0abH
	DB	04dH
	DB	02bH
	DB	00H
	DB	00H
	DB	00H
	DB	091H
	DB	045H
	DB	04H
	DB	04H
	DB	04H
	DB	04H
	DB	04H
	DB	04H
	DB	04H
	DB	04H
	DB	04H
	DB	04H
	DB	04H
	DB	04H
	DB	04H
	DB	04H
	DB	04H
	DB	04H
	DB	04H
	DB	04H
	DB	045H
	DB	0b3H
	DB	04cH
	DB	036H
	DB	00H
	DB	00H
	DB	00H
	DB	093H
	DB	046H
	DB	0cH
	DB	0cH
	DB	0cH
	DB	0cH
	DB	0cH
	DB	0cH
	DB	0cH
	DB	0cH
	DB	0cH
	DB	0cH
	DB	0cH
	DB	0cH
	DB	0cH
	DB	0cH
	DB	0cH
	DB	0cH
	DB	0cH
	DB	0cH
	DB	046H
	DB	0b6H
	DB	073H
	DB	036H
	DB	00H
	DB	00H
	DB	00H
	DB	050H
	DB	03bH
	DB	06H
	DB	06H
	DB	06H
	DB	06H
	DB	06H
	DB	06H
	DB	06H
	DB	06H
	DB	06H
	DB	06H
	DB	06H
	DB	06H
	DB	06H
	DB	06H
	DB	06H
	DB	06H
	DB	06H
	DB	06H
	DB	03bH
	DB	07dH
	DB	02aH
	DB	02bH
	DB	00H
	DB	00H
	DB	00H
	DB	048H
	DB	05H
	DB	05H
	DB	05H
	DB	05H
	DB	05H
	DB	05H
	DB	05H
	DB	05H
	DB	05H
	DB	05H
	DB	05H
	DB	05H
	DB	05H
	DB	05H
	DB	05H
	DB	05H
	DB	05H
	DB	05H
	DB	05H
	DB	072H
	DB	04bH
	DB	022H
	DB	02H
	DB	00H
	DB	00H
	DB	00H
	DB	06eH
	DB	02H
	DB	02H
	DB	02H
	DB	02H
	DB	02H
	DB	02H
	DB	02H
	DB	02H
	DB	02H
	DB	02H
	DB	02H
	DB	02H
	DB	02H
	DB	02H
	DB	02H
	DB	02H
	DB	02H
	DB	02H
	DB	02H
	DB	02H
	DB	02H
	DB	033H
	DB	00H
	DB	00H
	DB	00H
	DB	00H
	DB	00H
	DB	00H
	DB	00H
	DB	00H
	DB	00H
	DB	00H
	DB	00H
	DB	00H
	DB	00H
	DB	00H
	DB	00H
	DB	00H
	DB	00H
	DB	00H
	DB	00H
	DB	00H
	DB	00H
	DB	00H
	DB	00H
	DB	00H
	DB	00H
	DB	00H
	DB	00H
	DB	00H
	DB	00H
	DB	00H
	DB	00H
	DB	00H
	DB	00H
	DB	00H
	DB	00H
	DB	00H
	DB	00H
	DB	00H
	DB	00H
	DB	00H
	DB	00H
	DB	00H
	DB	00H
	DB	00H
	DB	00H
	DB	00H
	DB	00H
	DB	00H
	DB	00H
	DB	00H
	DB	00H
	DB	00H
	DB	00H
	DB	00H
	DB	00H
CONST	ENDS
END
