; Listing generated by Microsoft (R) Optimizing Compiler Version 16.00.40219.01 

	TITLE	C:\DUII\Simulation\GUI\Core\GUI_UC_EnableBIDI.c
	.686P
	.XMM
	include listing.inc
	.model	flat

INCLUDELIB LIBCMT
INCLUDELIB OLDNAMES

PUBLIC	_GUI__BIDI_Log2VisBuffered
EXTRN	_GUI__BIDI_Log2Vis:PROC
EXTRN	__RTC_CheckEsp:PROC
EXTRN	__RTC_Shutdown:PROC
EXTRN	__RTC_InitBase:PROC
_BSS	SEGMENT
?acBuffer@?1??GUI__BIDI_Log2VisBuffered@@9@9 DB 0f0H DUP (?) ; `GUI__BIDI_Log2VisBuffered'::`2'::acBuffer
_BSS	ENDS
;	COMDAT rtc$TMZ
; File c:\duii\simulation\gui\core\gui_uc_enablebidi.c
rtc$TMZ	SEGMENT
__RTC_Shutdown.rtc$TMZ DD FLAT:__RTC_Shutdown
rtc$TMZ	ENDS
;	COMDAT rtc$IMZ
rtc$IMZ	SEGMENT
__RTC_InitBase.rtc$IMZ DD FLAT:__RTC_InitBase
; Function compile flags: /Odtp /RTCsu /ZI
rtc$IMZ	ENDS
;	COMDAT _GUI__BIDI_Log2VisBuffered
_TEXT	SEGMENT
_MaxNumChars$ = -8					; size = 4
_s$ = 8							; size = 4
_pMaxNumChars$ = 12					; size = 4
_GUI__BIDI_Log2VisBuffered PROC				; COMDAT
; Line 50
	push	ebp
	mov	ebp, esp
	sub	esp, 204				; 000000ccH
	push	ebx
	push	esi
	push	edi
	lea	edi, DWORD PTR [ebp-204]
	mov	ecx, 51					; 00000033H
	mov	eax, -858993460				; ccccccccH
	rep stosd
; Line 54
	mov	eax, DWORD PTR _pMaxNumChars$[ebp]
	mov	ecx, DWORD PTR [eax]
	mov	DWORD PTR _MaxNumChars$[ebp], ecx
; Line 55
	push	240					; 000000f0H
	push	OFFSET ?acBuffer@?1??GUI__BIDI_Log2VisBuffered@@9@9
	mov	eax, DWORD PTR _MaxNumChars$[ebp]
	push	eax
	mov	ecx, DWORD PTR _s$[ebp]
	push	ecx
	call	_GUI__BIDI_Log2Vis
	add	esp, 16					; 00000010H
	mov	DWORD PTR _MaxNumChars$[ebp], eax
; Line 56
	mov	DWORD PTR _s$[ebp], OFFSET ?acBuffer@?1??GUI__BIDI_Log2VisBuffered@@9@9
; Line 57
	mov	eax, DWORD PTR _pMaxNumChars$[ebp]
	mov	ecx, DWORD PTR _MaxNumChars$[ebp]
	mov	DWORD PTR [eax], ecx
; Line 58
	mov	eax, DWORD PTR _s$[ebp]
; Line 59
	pop	edi
	pop	esi
	pop	ebx
	add	esp, 204				; 000000ccH
	cmp	ebp, esp
	call	__RTC_CheckEsp
	mov	esp, ebp
	pop	ebp
	ret	0
_GUI__BIDI_Log2VisBuffered ENDP
_TEXT	ENDS
PUBLIC	_GUI_UC_EnableBIDI
EXTRN	_GUI__BIDI_GetCharWrap:PROC
EXTRN	_GUI__BIDI_GetWordWrap:PROC
EXTRN	_GUI__BIDI_GetCursorCharacter:PROC
EXTRN	_GUI__BIDI_IsNSM:PROC
EXTRN	__pfGUI__BIDI_IsNSM:DWORD
EXTRN	_GUI__BIDI_GetCharDir:PROC
EXTRN	__pfGUI__BIDI_GetCharDir:DWORD
EXTRN	_GUI__BIDI_GetLogChar:PROC
EXTRN	__pfGUI__BIDI_GetLogChar:DWORD
EXTRN	_GUI__BIDI_GetCursorPosChar:PROC
EXTRN	__pfGUI__BIDI_GetCursorPosChar:DWORD
EXTRN	_GUI__BIDI_GetCursorPosX:PROC
EXTRN	__pfGUI__BIDI_GetCursorPosX:DWORD
EXTRN	__pfGUI__BIDI_Log2Vis:DWORD
EXTRN	_GUI__Wrap_pfGetCharWrap:DWORD
EXTRN	_GUI__Wrap_pfGetWordWrap:DWORD
EXTRN	_GUI__GetCursorPos_pfGetCharacter:DWORD
EXTRN	_GUI__GetCursorPos_pfGetPosChar:DWORD
EXTRN	_GUI__GetCursorPos_pfGetPosX:DWORD
EXTRN	_GUI_CharLine_pfLog2Vis:DWORD
EXTRN	_GUI__BIDI_Enabled:DWORD
_BSS	SEGMENT
__GUI__Wrap_pfGetCharWrap DD 01H DUP (?)
__GUI__Wrap_pfGetWordWrap DD 01H DUP (?)
__GUI__GetCursorPos_pfGetCharacter DD 01H DUP (?)
__GUI__GetCursorPos_pfGetPosChar DD 01H DUP (?)
__GUI__GetCursorPos_pfGetPosX DD 01H DUP (?)
__GUI_CharLine_pfLog2Vis DD 01H DUP (?)
; Function compile flags: /Odtp /RTCsu /ZI
_BSS	ENDS
;	COMDAT _GUI_UC_EnableBIDI
_TEXT	SEGMENT
_PreviousState$ = -8					; size = 4
_OnOff$ = 8						; size = 4
_GUI_UC_EnableBIDI PROC					; COMDAT
; Line 71
	push	ebp
	mov	ebp, esp
	sub	esp, 204				; 000000ccH
	push	ebx
	push	esi
	push	edi
	lea	edi, DWORD PTR [ebp-204]
	mov	ecx, 51					; 00000033H
	mov	eax, -858993460				; ccccccccH
	rep stosd
; Line 75
	mov	eax, DWORD PTR _GUI__BIDI_Enabled
	mov	DWORD PTR _PreviousState$[ebp], eax
; Line 76
	cmp	DWORD PTR _OnOff$[ebp], 0
	jle	$LN4@GUI_UC_Ena
	cmp	DWORD PTR _GUI__BIDI_Enabled, 0
	jne	$LN4@GUI_UC_Ena
; Line 80
	mov	eax, DWORD PTR _GUI_CharLine_pfLog2Vis
	mov	DWORD PTR __GUI_CharLine_pfLog2Vis, eax
; Line 81
	mov	eax, DWORD PTR _GUI__GetCursorPos_pfGetPosX
	mov	DWORD PTR __GUI__GetCursorPos_pfGetPosX, eax
; Line 82
	mov	eax, DWORD PTR _GUI__GetCursorPos_pfGetPosChar
	mov	DWORD PTR __GUI__GetCursorPos_pfGetPosChar, eax
; Line 83
	mov	eax, DWORD PTR _GUI__GetCursorPos_pfGetCharacter
	mov	DWORD PTR __GUI__GetCursorPos_pfGetCharacter, eax
; Line 84
	mov	eax, DWORD PTR _GUI__Wrap_pfGetWordWrap
	mov	DWORD PTR __GUI__Wrap_pfGetWordWrap, eax
; Line 85
	mov	eax, DWORD PTR _GUI__Wrap_pfGetCharWrap
	mov	DWORD PTR __GUI__Wrap_pfGetCharWrap, eax
; Line 89
	mov	DWORD PTR __pfGUI__BIDI_Log2Vis, OFFSET _GUI__BIDI_Log2Vis
; Line 90
	mov	DWORD PTR __pfGUI__BIDI_GetCursorPosX, OFFSET _GUI__BIDI_GetCursorPosX
; Line 91
	mov	DWORD PTR __pfGUI__BIDI_GetCursorPosChar, OFFSET _GUI__BIDI_GetCursorPosChar
; Line 92
	mov	DWORD PTR __pfGUI__BIDI_GetLogChar, OFFSET _GUI__BIDI_GetLogChar
; Line 93
	mov	DWORD PTR __pfGUI__BIDI_GetCharDir, OFFSET _GUI__BIDI_GetCharDir
; Line 94
	mov	DWORD PTR __pfGUI__BIDI_IsNSM, OFFSET _GUI__BIDI_IsNSM
; Line 98
	mov	DWORD PTR _GUI_CharLine_pfLog2Vis, OFFSET _GUI__BIDI_Log2VisBuffered
; Line 102
	mov	DWORD PTR _GUI__GetCursorPos_pfGetPosX, OFFSET _GUI__BIDI_GetCursorPosX
; Line 103
	mov	DWORD PTR _GUI__GetCursorPos_pfGetPosChar, OFFSET _GUI__BIDI_GetCursorPosChar
; Line 104
	mov	DWORD PTR _GUI__GetCursorPos_pfGetCharacter, OFFSET _GUI__BIDI_GetCursorCharacter
; Line 108
	mov	DWORD PTR _GUI__Wrap_pfGetWordWrap, OFFSET _GUI__BIDI_GetWordWrap
; Line 109
	mov	DWORD PTR _GUI__Wrap_pfGetCharWrap, OFFSET _GUI__BIDI_GetCharWrap
; Line 113
	mov	DWORD PTR _GUI__BIDI_Enabled, 1
	jmp	$LN3@GUI_UC_Ena
$LN4@GUI_UC_Ena:
; Line 114
	cmp	DWORD PTR _OnOff$[ebp], 0
	jne	$LN3@GUI_UC_Ena
	cmp	DWORD PTR _GUI__BIDI_Enabled, 0
	jle	SHORT $LN3@GUI_UC_Ena
; Line 120
	cmp	DWORD PTR __GUI_CharLine_pfLog2Vis, 0
	je	SHORT $LN3@GUI_UC_Ena
	cmp	DWORD PTR __GUI__GetCursorPos_pfGetPosX, 0
	je	SHORT $LN3@GUI_UC_Ena
	cmp	DWORD PTR __GUI__GetCursorPos_pfGetPosChar, 0
	je	SHORT $LN3@GUI_UC_Ena
	cmp	DWORD PTR __GUI__GetCursorPos_pfGetCharacter, 0
	je	SHORT $LN3@GUI_UC_Ena
	cmp	DWORD PTR __GUI__Wrap_pfGetWordWrap, 0
	je	SHORT $LN3@GUI_UC_Ena
	cmp	DWORD PTR __GUI__Wrap_pfGetCharWrap, 0
	je	SHORT $LN3@GUI_UC_Ena
; Line 124
	mov	eax, DWORD PTR __GUI_CharLine_pfLog2Vis
	mov	DWORD PTR _GUI_CharLine_pfLog2Vis, eax
; Line 128
	mov	eax, DWORD PTR __GUI__GetCursorPos_pfGetPosX
	mov	DWORD PTR _GUI__GetCursorPos_pfGetPosX, eax
; Line 129
	mov	eax, DWORD PTR __GUI__GetCursorPos_pfGetPosChar
	mov	DWORD PTR _GUI__GetCursorPos_pfGetPosChar, eax
; Line 130
	mov	eax, DWORD PTR __GUI__GetCursorPos_pfGetCharacter
	mov	DWORD PTR _GUI__GetCursorPos_pfGetCharacter, eax
; Line 134
	mov	eax, DWORD PTR __GUI__Wrap_pfGetWordWrap
	mov	DWORD PTR _GUI__Wrap_pfGetWordWrap, eax
; Line 135
	mov	eax, DWORD PTR __GUI__Wrap_pfGetCharWrap
	mov	DWORD PTR _GUI__Wrap_pfGetCharWrap, eax
; Line 139
	mov	DWORD PTR _GUI__BIDI_Enabled, 0
$LN3@GUI_UC_Ena:
; Line 143
	mov	eax, DWORD PTR _PreviousState$[ebp]
; Line 144
	pop	edi
	pop	esi
	pop	ebx
	mov	esp, ebp
	pop	ebp
	ret	0
_GUI_UC_EnableBIDI ENDP
_TEXT	ENDS
END
