; Listing generated by Microsoft (R) Optimizing Compiler Version 16.00.40219.01 

	TITLE	C:\DUII\Simulation\GUI\Core\GUI__memset16.c
	.686P
	.XMM
	include listing.inc
	.model	flat

INCLUDELIB LIBCMT
INCLUDELIB OLDNAMES

PUBLIC	_GUI__memset16
EXTRN	__RTC_Shutdown:PROC
EXTRN	__RTC_InitBase:PROC
;	COMDAT rtc$TMZ
; File c:\duii\simulation\gui\core\gui__memset16.c
rtc$TMZ	SEGMENT
__RTC_Shutdown.rtc$TMZ DD FLAT:__RTC_Shutdown
rtc$TMZ	ENDS
;	COMDAT rtc$IMZ
rtc$IMZ	SEGMENT
__RTC_InitBase.rtc$IMZ DD FLAT:__RTC_InitBase
; Function compile flags: /Odtp /RTCsu /ZI
rtc$IMZ	ENDS
;	COMDAT _GUI__memset16
_TEXT	SEGMENT
_pInt$8356 = -32					; size = 4
_FillInt$8355 = -20					; size = 4
_NumInts$8349 = -8					; size = 4
_p$ = 8							; size = 4
_Fill$ = 12						; size = 2
_NumWords$ = 16						; size = 4
_GUI__memset16 PROC					; COMDAT
; Line 38
	push	ebp
	mov	ebp, esp
	sub	esp, 228				; 000000e4H
	push	ebx
	push	esi
	push	edi
	lea	edi, DWORD PTR [ebp-228]
	mov	ecx, 57					; 00000039H
	mov	eax, -858993460				; ccccccccH
	rep stosd
; Line 40
	xor	eax, eax
	je	$LN14@GUI__memse
; Line 41
	cmp	DWORD PTR _NumWords$[ebp], 8
	jl	$LN12@GUI__memse
; Line 42
	mov	eax, DWORD PTR _p$[ebp]
	mov	cx, WORD PTR _Fill$[ebp]
	mov	WORD PTR [eax], cx
	mov	edx, DWORD PTR _p$[ebp]
	add	edx, 2
	mov	DWORD PTR _p$[ebp], edx
; Line 43
	mov	eax, DWORD PTR _p$[ebp]
	mov	cx, WORD PTR _Fill$[ebp]
	mov	WORD PTR [eax], cx
	mov	edx, DWORD PTR _p$[ebp]
	add	edx, 2
	mov	DWORD PTR _p$[ebp], edx
; Line 44
	mov	eax, DWORD PTR _p$[ebp]
	mov	cx, WORD PTR _Fill$[ebp]
	mov	WORD PTR [eax], cx
	mov	edx, DWORD PTR _p$[ebp]
	add	edx, 2
	mov	DWORD PTR _p$[ebp], edx
; Line 45
	mov	eax, DWORD PTR _p$[ebp]
	mov	cx, WORD PTR _Fill$[ebp]
	mov	WORD PTR [eax], cx
	mov	edx, DWORD PTR _p$[ebp]
	add	edx, 2
	mov	DWORD PTR _p$[ebp], edx
; Line 46
	mov	eax, DWORD PTR _p$[ebp]
	mov	cx, WORD PTR _Fill$[ebp]
	mov	WORD PTR [eax], cx
	mov	edx, DWORD PTR _p$[ebp]
	add	edx, 2
	mov	DWORD PTR _p$[ebp], edx
; Line 47
	mov	eax, DWORD PTR _p$[ebp]
	mov	cx, WORD PTR _Fill$[ebp]
	mov	WORD PTR [eax], cx
	mov	edx, DWORD PTR _p$[ebp]
	add	edx, 2
	mov	DWORD PTR _p$[ebp], edx
; Line 48
	mov	eax, DWORD PTR _p$[ebp]
	mov	cx, WORD PTR _Fill$[ebp]
	mov	WORD PTR [eax], cx
	mov	edx, DWORD PTR _p$[ebp]
	add	edx, 2
	mov	DWORD PTR _p$[ebp], edx
; Line 49
	mov	eax, DWORD PTR _p$[ebp]
	mov	cx, WORD PTR _Fill$[ebp]
	mov	WORD PTR [eax], cx
	mov	edx, DWORD PTR _p$[ebp]
	add	edx, 2
	mov	DWORD PTR _p$[ebp], edx
; Line 50
	mov	eax, DWORD PTR _NumWords$[ebp]
	sub	eax, 8
	mov	DWORD PTR _NumWords$[ebp], eax
$LN12@GUI__memse:
; Line 52
	cmp	DWORD PTR _NumWords$[ebp], 0
	je	SHORT $LN11@GUI__memse
; Line 53
	mov	eax, DWORD PTR _p$[ebp]
	mov	cx, WORD PTR _Fill$[ebp]
	mov	WORD PTR [eax], cx
	mov	edx, DWORD PTR _p$[ebp]
	add	edx, 2
	mov	DWORD PTR _p$[ebp], edx
; Line 54
	mov	eax, DWORD PTR _NumWords$[ebp]
	sub	eax, 1
	mov	DWORD PTR _NumWords$[ebp], eax
; Line 55
	jmp	SHORT $LN12@GUI__memse
$LN11@GUI__memse:
; Line 56
	jmp	$LN15@GUI__memse
$LN14@GUI__memse:
; Line 59
	mov	eax, DWORD PTR _p$[ebp]
	and	eax, 2
	je	SHORT $LN9@GUI__memse
; Line 60
	mov	eax, DWORD PTR _p$[ebp]
	mov	cx, WORD PTR _Fill$[ebp]
	mov	WORD PTR [eax], cx
	mov	edx, DWORD PTR _p$[ebp]
	add	edx, 2
	mov	DWORD PTR _p$[ebp], edx
; Line 61
	mov	eax, DWORD PTR _NumWords$[ebp]
	sub	eax, 1
	mov	DWORD PTR _NumWords$[ebp], eax
$LN9@GUI__memse:
; Line 64
	mov	eax, DWORD PTR _NumWords$[ebp]
	shr	eax, 1
	mov	DWORD PTR _NumInts$8349[ebp], eax
; Line 65
	je	SHORT $LN8@GUI__memse
; Line 68
	movzx	eax, WORD PTR _Fill$[ebp]
	imul	eax, 65537				; 00010001H
	mov	DWORD PTR _FillInt$8355[ebp], eax
; Line 70
	mov	eax, DWORD PTR _p$[ebp]
	mov	DWORD PTR _pInt$8356[ebp], eax
; Line 72
	cmp	DWORD PTR _NumInts$8349[ebp], 4
	jl	SHORT $LN3@GUI__memse
$LN6@GUI__memse:
; Line 74
	mov	eax, DWORD PTR _pInt$8356[ebp]
	mov	ecx, DWORD PTR _FillInt$8355[ebp]
	mov	DWORD PTR [eax], ecx
; Line 75
	mov	eax, DWORD PTR _pInt$8356[ebp]
	mov	ecx, DWORD PTR _FillInt$8355[ebp]
	mov	DWORD PTR [eax+4], ecx
; Line 76
	mov	eax, DWORD PTR _pInt$8356[ebp]
	mov	ecx, DWORD PTR _FillInt$8355[ebp]
	mov	DWORD PTR [eax+8], ecx
; Line 77
	mov	eax, DWORD PTR _pInt$8356[ebp]
	mov	ecx, DWORD PTR _FillInt$8355[ebp]
	mov	DWORD PTR [eax+12], ecx
; Line 78
	mov	eax, DWORD PTR _pInt$8356[ebp]
	add	eax, 16					; 00000010H
	mov	DWORD PTR _pInt$8356[ebp], eax
; Line 79
	mov	eax, DWORD PTR _NumInts$8349[ebp]
	sub	eax, 4
	mov	DWORD PTR _NumInts$8349[ebp], eax
	cmp	DWORD PTR _NumInts$8349[ebp], 4
	jge	SHORT $LN6@GUI__memse
$LN3@GUI__memse:
; Line 82
	cmp	DWORD PTR _NumInts$8349[ebp], 0
	je	SHORT $LN2@GUI__memse
; Line 83
	mov	eax, DWORD PTR _pInt$8356[ebp]
	mov	ecx, DWORD PTR _FillInt$8355[ebp]
	mov	DWORD PTR [eax], ecx
	mov	edx, DWORD PTR _pInt$8356[ebp]
	add	edx, 4
	mov	DWORD PTR _pInt$8356[ebp], edx
; Line 84
	mov	eax, DWORD PTR _NumInts$8349[ebp]
	sub	eax, 1
	mov	DWORD PTR _NumInts$8349[ebp], eax
; Line 85
	jmp	SHORT $LN3@GUI__memse
$LN2@GUI__memse:
; Line 86
	mov	eax, DWORD PTR _pInt$8356[ebp]
	mov	DWORD PTR _p$[ebp], eax
$LN8@GUI__memse:
; Line 89
	mov	eax, DWORD PTR _NumWords$[ebp]
	and	eax, 1
	je	SHORT $LN15@GUI__memse
; Line 90
	mov	eax, DWORD PTR _p$[ebp]
	mov	cx, WORD PTR _Fill$[ebp]
	mov	WORD PTR [eax], cx
$LN15@GUI__memse:
; Line 93
	pop	edi
	pop	esi
	pop	ebx
	mov	esp, ebp
	pop	ebp
	ret	0
_GUI__memset16 ENDP
_TEXT	ENDS
END
