; Listing generated by Microsoft (R) Optimizing Compiler Version 16.00.40219.01 

	TITLE	C:\DUII\Simulation\GUI\Core\GUI_DrawBitmapMag.c
	.686P
	.XMM
	include listing.inc
	.model	flat

INCLUDELIB LIBCMT
INCLUDELIB OLDNAMES

PUBLIC	_GUI_DrawBitmapMag
EXTRN	_WM__GetNextIVR:PROC
EXTRN	_LCD_DrawBitmap:PROC
EXTRN	_WM__InitIVRSearch:PROC
EXTRN	_GUI_Context:BYTE
EXTRN	_GUI_SetDrawMode:PROC
EXTRN	_LCD_pBkColorIndex:DWORD
EXTRN	_LCD_GetpPalConvTable:PROC
EXTRN	@_RTC_CheckStackVars@8:PROC
EXTRN	__RTC_CheckEsp:PROC
EXTRN	__RTC_Shutdown:PROC
EXTRN	__RTC_InitBase:PROC
;	COMDAT rtc$TMZ
; File c:\duii\simulation\gui\core\gui_drawbitmapmag.c
rtc$TMZ	SEGMENT
__RTC_Shutdown.rtc$TMZ DD FLAT:__RTC_Shutdown
rtc$TMZ	ENDS
;	COMDAT rtc$IMZ
rtc$IMZ	SEGMENT
__RTC_InitBase.rtc$IMZ DD FLAT:__RTC_InitBase
; Function compile flags: /Odtp /RTCsu /ZI
rtc$IMZ	ENDS
;	COMDAT _GUI_DrawBitmapMag
_TEXT	SEGMENT
tv80 = -272						; size = 4
_r$8353 = -72						; size = 8
_pTrans$ = -56						; size = 4
_pPal$ = -44						; size = 4
_ySize$ = -32						; size = 4
_xSize$ = -20						; size = 4
_PrevDraw$ = -8						; size = 4
_pBitmap$ = 8						; size = 4
_x0$ = 12						; size = 4
_y0$ = 16						; size = 4
_xMul$ = 20						; size = 4
_yMul$ = 24						; size = 4
_GUI_DrawBitmapMag PROC					; COMDAT
; Line 37
	push	ebp
	mov	ebp, esp
	sub	esp, 272				; 00000110H
	push	ebx
	push	esi
	push	edi
	lea	edi, DWORD PTR [ebp-272]
	mov	ecx, 68					; 00000044H
	mov	eax, -858993460				; ccccccccH
	rep stosd
; Line 43
	mov	eax, DWORD PTR _pBitmap$[ebp]
	mov	ecx, DWORD PTR [eax+12]
	mov	DWORD PTR _pPal$[ebp], ecx
; Line 44
	mov	eax, DWORD PTR _pBitmap$[ebp]
	movzx	ecx, WORD PTR [eax]
	mov	DWORD PTR _xSize$[ebp], ecx
; Line 45
	mov	eax, DWORD PTR _pBitmap$[ebp]
	movzx	ecx, WORD PTR [eax+2]
	mov	DWORD PTR _ySize$[ebp], ecx
; Line 46
	mov	eax, DWORD PTR _pPal$[ebp]
	push	eax
	call	_LCD_GetpPalConvTable
	add	esp, 4
	mov	DWORD PTR _pTrans$[ebp], eax
; Line 47
	cmp	DWORD PTR _pTrans$[ebp], 0
	jne	SHORT $LN7@GUI_DrawBi
; Line 48
	mov	eax, DWORD PTR _pBitmap$[ebp]
	movzx	ecx, WORD PTR [eax+6]
	sub	ecx, 1
	neg	ecx
	sbb	ecx, ecx
	not	ecx
	and	ecx, DWORD PTR _LCD_pBkColorIndex
	mov	DWORD PTR _pTrans$[ebp], ecx
$LN7@GUI_DrawBi:
; Line 50
	cmp	DWORD PTR _pPal$[ebp], 0
	je	SHORT $LN10@GUI_DrawBi
	mov	eax, DWORD PTR _pPal$[ebp]
	movzx	ecx, BYTE PTR [eax+4]
	test	ecx, ecx
	je	SHORT $LN10@GUI_DrawBi
	mov	DWORD PTR tv80[ebp], 2
	jmp	SHORT $LN11@GUI_DrawBi
$LN10@GUI_DrawBi:
	mov	DWORD PTR tv80[ebp], 0
$LN11@GUI_DrawBi:
	mov	edx, DWORD PTR tv80[ebp]
	push	edx
	call	_GUI_SetDrawMode
	add	esp, 4
	mov	DWORD PTR _PrevDraw$[ebp], eax
; Line 52
	mov	eax, DWORD PTR _x0$[ebp]
	add	eax, DWORD PTR _GUI_Context+64
	mov	DWORD PTR _x0$[ebp], eax
	mov	eax, DWORD PTR _y0$[ebp]
	add	eax, DWORD PTR _GUI_Context+68
	mov	DWORD PTR _y0$[ebp], eax
; Line 55
	mov	ax, WORD PTR _x0$[ebp]
	mov	WORD PTR _r$8353[ebp], ax
; Line 56
	mov	eax, DWORD PTR _xSize$[ebp]
	imul	eax, DWORD PTR _xMul$[ebp]
	mov	ecx, DWORD PTR _x0$[ebp]
	lea	edx, DWORD PTR [ecx+eax-1]
	mov	WORD PTR _r$8353[ebp+4], dx
; Line 57
	mov	ax, WORD PTR _y0$[ebp]
	mov	WORD PTR _r$8353[ebp+2], ax
; Line 58
	mov	eax, DWORD PTR _ySize$[ebp]
	imul	eax, DWORD PTR _yMul$[ebp]
	mov	ecx, DWORD PTR _y0$[ebp]
	lea	edx, DWORD PTR [ecx+eax-1]
	mov	WORD PTR _r$8353[ebp+6], dx
; Line 59
	lea	eax, DWORD PTR _r$8353[ebp]
	push	eax
	call	_WM__InitIVRSearch
	add	esp, 4
	test	eax, eax
	je	$LN6@GUI_DrawBi
$LN5@GUI_DrawBi:
; Line 61
	mov	eax, DWORD PTR _pBitmap$[ebp]
	cmp	DWORD PTR [eax+16], 0
	je	SHORT $LN2@GUI_DrawBi
; Line 62
	mov	esi, esp
	mov	eax, DWORD PTR _yMul$[ebp]
	push	eax
	mov	ecx, DWORD PTR _xMul$[ebp]
	push	ecx
	mov	edx, DWORD PTR _pBitmap$[ebp]
	mov	eax, DWORD PTR [edx+12]
	push	eax
	mov	ecx, DWORD PTR _pBitmap$[ebp]
	mov	edx, DWORD PTR [ecx+8]
	push	edx
	mov	eax, DWORD PTR _pBitmap$[ebp]
	movzx	ecx, WORD PTR [eax+2]
	push	ecx
	mov	edx, DWORD PTR _pBitmap$[ebp]
	movzx	eax, WORD PTR [edx]
	push	eax
	mov	ecx, DWORD PTR _y0$[ebp]
	push	ecx
	mov	edx, DWORD PTR _x0$[ebp]
	push	edx
	mov	eax, DWORD PTR _pBitmap$[ebp]
	mov	ecx, DWORD PTR [eax+16]
	mov	edx, DWORD PTR [ecx]
	call	edx
	add	esp, 32					; 00000020H
	cmp	esi, esp
	call	__RTC_CheckEsp
; Line 63
	jmp	SHORT $LN4@GUI_DrawBi
$LN2@GUI_DrawBi:
; Line 66
	mov	eax, DWORD PTR _pTrans$[ebp]
	push	eax
	mov	ecx, DWORD PTR _pBitmap$[ebp]
	mov	edx, DWORD PTR [ecx+8]
	push	edx
	mov	eax, DWORD PTR _pBitmap$[ebp]
	movzx	ecx, WORD PTR [eax+4]
	push	ecx
	mov	edx, DWORD PTR _pBitmap$[ebp]
	movzx	eax, WORD PTR [edx+6]
	push	eax
	mov	ecx, DWORD PTR _yMul$[ebp]
	push	ecx
	mov	edx, DWORD PTR _xMul$[ebp]
	push	edx
	mov	eax, DWORD PTR _ySize$[ebp]
	push	eax
	mov	ecx, DWORD PTR _xSize$[ebp]
	push	ecx
	mov	edx, DWORD PTR _y0$[ebp]
	push	edx
	mov	eax, DWORD PTR _x0$[ebp]
	push	eax
	call	_LCD_DrawBitmap
	add	esp, 40					; 00000028H
$LN4@GUI_DrawBi:
; Line 69
	call	_WM__GetNextIVR
	test	eax, eax
	jne	$LN5@GUI_DrawBi
$LN6@GUI_DrawBi:
; Line 72
	mov	eax, DWORD PTR _PrevDraw$[ebp]
	push	eax
	call	_GUI_SetDrawMode
	add	esp, 4
; Line 74
	push	edx
	mov	ecx, ebp
	push	eax
	lea	edx, DWORD PTR $LN14@GUI_DrawBi
	call	@_RTC_CheckStackVars@8
	pop	eax
	pop	edx
	pop	edi
	pop	esi
	pop	ebx
	add	esp, 272				; 00000110H
	cmp	ebp, esp
	call	__RTC_CheckEsp
	mov	esp, ebp
	pop	ebp
	ret	0
$LN14@GUI_DrawBi:
	DD	1
	DD	$LN13@GUI_DrawBi
$LN13@GUI_DrawBi:
	DD	-72					; ffffffb8H
	DD	8
	DD	$LN12@GUI_DrawBi
$LN12@GUI_DrawBi:
	DB	114					; 00000072H
	DB	0
_GUI_DrawBitmapMag ENDP
_TEXT	ENDS
END
