; Listing generated by Microsoft (R) Optimizing Compiler Version 16.00.40219.01 

	TITLE	C:\DUII\Simulation\GUI\Core\GUI_StreamCreate.c
	.686P
	.XMM
	include listing.inc
	.model	flat

INCLUDELIB LIBCMT
INCLUDELIB OLDNAMES

_DATA	SEGMENT
$SG8354	DB	'c:\duii\simulation\gui\core\gui_streamcreate.c: Format o'
	DB	'f streamed bitmap does not match!', 00H
	ORG $+6
$SG8382	DB	'c:\duii\simulation\gui\core\gui_streamcreate.c: Format o'
	DB	'f streamed bitmap not supported!', 00H
_DATA	ENDS
PUBLIC	__$ArrayPad$
PUBLIC	_GUI_CreateBitmapFromStream
EXTRN	_GUI__CreateBitmapFromStream:PROC
EXTRN	_GUI_ErrorOut:PROC
EXTRN	_GUI_BitmapMethods8888:BYTE
EXTRN	_GUI_BitmapMethods24:BYTE
EXTRN	_GUI_BitmapMethodsRLEM16:BYTE
EXTRN	_GUI_BitmapMethodsRLE16:BYTE
EXTRN	_GUI_BitmapMethodsM555:BYTE
EXTRN	_GUI_BitmapMethods555:BYTE
EXTRN	_GUI_BitmapMethodsM565:BYTE
EXTRN	_GUI_BitmapMethods565:BYTE
EXTRN	_GUI_BitmapMethodsRLE8:BYTE
EXTRN	_GUI_BitmapMethodsRLE4:BYTE
EXTRN	_GUI__ReadHeaderFromStream:PROC
EXTRN	___security_cookie:DWORD
EXTRN	__RTC_CheckEsp:PROC
EXTRN	@__security_check_cookie@4:PROC
EXTRN	@_RTC_CheckStackVars@8:PROC
EXTRN	__RTC_Shutdown:PROC
EXTRN	__RTC_InitBase:PROC
;	COMDAT rtc$TMZ
; File c:\duii\simulation\gui\core\gui_streamcreate.c
rtc$TMZ	SEGMENT
__RTC_Shutdown.rtc$TMZ DD FLAT:__RTC_Shutdown
rtc$TMZ	ENDS
;	COMDAT rtc$IMZ
rtc$IMZ	SEGMENT
__RTC_InitBase.rtc$IMZ DD FLAT:__RTC_InitBase
; Function compile flags: /Odtp /RTCsu /ZI
rtc$IMZ	ENDS
;	COMDAT _GUI_CreateBitmapFromStream
_TEXT	SEGMENT
tv67 = -236						; size = 4
_pMethods$ = -36					; size = 4
_BitmapHeader$ = -24					; size = 16
__$ArrayPad$ = -4					; size = 4
_pBMP$ = 8						; size = 4
_pPAL$ = 12						; size = 4
_p$ = 16						; size = 4
_GUI_CreateBitmapFromStream PROC			; COMDAT
; Line 79
	push	ebp
	mov	ebp, esp
	sub	esp, 236				; 000000ecH
	push	ebx
	push	esi
	push	edi
	lea	edi, DWORD PTR [ebp-236]
	mov	ecx, 59					; 0000003bH
	mov	eax, -858993460				; ccccccccH
	rep stosd
	mov	eax, DWORD PTR ___security_cookie
	xor	eax, ebp
	mov	DWORD PTR __$ArrayPad$[ebp], eax
; Line 86
	mov	eax, DWORD PTR _p$[ebp]
	push	eax
	lea	ecx, DWORD PTR _BitmapHeader$[ebp]
	push	ecx
	call	_GUI__ReadHeaderFromStream
	add	esp, 8
; Line 90
	movzx	eax, WORD PTR _BitmapHeader$[ebp+2]
	mov	DWORD PTR tv67[ebp], eax
	mov	ecx, DWORD PTR tv67[ebp]
	sub	ecx, 6
	mov	DWORD PTR tv67[ebp], ecx
	cmp	DWORD PTR tv67[ebp], 94			; 0000005eH
	ja	SHORT $LN1@GUI_Create
	mov	edx, DWORD PTR tv67[ebp]
	movzx	eax, BYTE PTR $LN17@GUI_Create[edx]
	jmp	DWORD PTR $LN21@GUI_Create[eax*4]
$LN12@GUI_Create:
; Line 92
	mov	DWORD PTR _pMethods$[ebp], 0
; Line 93
	jmp	SHORT $LN13@GUI_Create
$LN11@GUI_Create:
; Line 95
	mov	DWORD PTR _pMethods$[ebp], OFFSET _GUI_BitmapMethodsRLE4
; Line 96
	jmp	SHORT $LN13@GUI_Create
$LN10@GUI_Create:
; Line 98
	mov	DWORD PTR _pMethods$[ebp], OFFSET _GUI_BitmapMethodsRLE8
; Line 99
	jmp	SHORT $LN13@GUI_Create
$LN9@GUI_Create:
; Line 101
	mov	DWORD PTR _pMethods$[ebp], OFFSET _GUI_BitmapMethods565
; Line 102
	jmp	SHORT $LN13@GUI_Create
$LN8@GUI_Create:
; Line 104
	mov	DWORD PTR _pMethods$[ebp], OFFSET _GUI_BitmapMethodsM565
; Line 105
	jmp	SHORT $LN13@GUI_Create
$LN7@GUI_Create:
; Line 107
	mov	DWORD PTR _pMethods$[ebp], OFFSET _GUI_BitmapMethods555
; Line 108
	jmp	SHORT $LN13@GUI_Create
$LN6@GUI_Create:
; Line 110
	mov	DWORD PTR _pMethods$[ebp], OFFSET _GUI_BitmapMethodsM555
; Line 111
	jmp	SHORT $LN13@GUI_Create
$LN5@GUI_Create:
; Line 113
	mov	DWORD PTR _pMethods$[ebp], OFFSET _GUI_BitmapMethodsRLE16
; Line 114
	jmp	SHORT $LN13@GUI_Create
$LN4@GUI_Create:
; Line 116
	mov	DWORD PTR _pMethods$[ebp], OFFSET _GUI_BitmapMethodsRLEM16
; Line 117
	jmp	SHORT $LN13@GUI_Create
$LN3@GUI_Create:
; Line 119
	mov	DWORD PTR _pMethods$[ebp], OFFSET _GUI_BitmapMethods24
; Line 120
	jmp	SHORT $LN13@GUI_Create
$LN2@GUI_Create:
; Line 122
	mov	DWORD PTR _pMethods$[ebp], OFFSET _GUI_BitmapMethods8888
; Line 123
	jmp	SHORT $LN13@GUI_Create
$LN1@GUI_Create:
; Line 125
	push	OFFSET $SG8382
	call	_GUI_ErrorOut
	add	esp, 4
; Line 126
	mov	eax, 1
	jmp	SHORT $LN15@GUI_Create
$LN13@GUI_Create:
; Line 128
	mov	eax, DWORD PTR _pMethods$[ebp]
	push	eax
	mov	ecx, DWORD PTR _pPAL$[ebp]
	push	ecx
	mov	edx, DWORD PTR _pBMP$[ebp]
	push	edx
	mov	eax, DWORD PTR _p$[ebp]
	push	eax
	lea	ecx, DWORD PTR _BitmapHeader$[ebp]
	push	ecx
	call	_GUI__CreateBitmapFromStream
	add	esp, 20					; 00000014H
; Line 129
	xor	eax, eax
$LN15@GUI_Create:
; Line 130
	push	edx
	mov	ecx, ebp
	push	eax
	lea	edx, DWORD PTR $LN20@GUI_Create
	call	@_RTC_CheckStackVars@8
	pop	eax
	pop	edx
	pop	edi
	pop	esi
	pop	ebx
	mov	ecx, DWORD PTR __$ArrayPad$[ebp]
	xor	ecx, ebp
	call	@__security_check_cookie@4
	add	esp, 236				; 000000ecH
	cmp	ebp, esp
	call	__RTC_CheckEsp
	mov	esp, ebp
	pop	ebp
	ret	0
	npad	2
$LN20@GUI_Create:
	DD	1
	DD	$LN19@GUI_Create
$LN19@GUI_Create:
	DD	-24					; ffffffe8H
	DD	16					; 00000010H
	DD	$LN18@GUI_Create
$LN18@GUI_Create:
	DB	66					; 00000042H
	DB	105					; 00000069H
	DB	116					; 00000074H
	DB	109					; 0000006dH
	DB	97					; 00000061H
	DB	112					; 00000070H
	DB	72					; 00000048H
	DB	101					; 00000065H
	DB	97					; 00000061H
	DB	100					; 00000064H
	DB	101					; 00000065H
	DB	114					; 00000072H
	DB	0
	npad	3
$LN21@GUI_Create:
	DD	$LN11@GUI_Create
	DD	$LN10@GUI_Create
	DD	$LN9@GUI_Create
	DD	$LN8@GUI_Create
	DD	$LN7@GUI_Create
	DD	$LN6@GUI_Create
	DD	$LN5@GUI_Create
	DD	$LN4@GUI_Create
	DD	$LN2@GUI_Create
	DD	$LN3@GUI_Create
	DD	$LN12@GUI_Create
	DD	$LN1@GUI_Create
$LN17@GUI_Create:
	DB	0
	DB	1
	DB	2
	DB	3
	DB	4
	DB	5
	DB	6
	DB	7
	DB	11					; 0000000bH
	DB	11					; 0000000bH
	DB	8
	DB	9
	DB	11					; 0000000bH
	DB	11					; 0000000bH
	DB	11					; 0000000bH
	DB	11					; 0000000bH
	DB	11					; 0000000bH
	DB	11					; 0000000bH
	DB	11					; 0000000bH
	DB	11					; 0000000bH
	DB	11					; 0000000bH
	DB	11					; 0000000bH
	DB	11					; 0000000bH
	DB	11					; 0000000bH
	DB	11					; 0000000bH
	DB	11					; 0000000bH
	DB	11					; 0000000bH
	DB	11					; 0000000bH
	DB	11					; 0000000bH
	DB	11					; 0000000bH
	DB	11					; 0000000bH
	DB	11					; 0000000bH
	DB	11					; 0000000bH
	DB	11					; 0000000bH
	DB	11					; 0000000bH
	DB	11					; 0000000bH
	DB	11					; 0000000bH
	DB	11					; 0000000bH
	DB	11					; 0000000bH
	DB	11					; 0000000bH
	DB	11					; 0000000bH
	DB	11					; 0000000bH
	DB	11					; 0000000bH
	DB	11					; 0000000bH
	DB	11					; 0000000bH
	DB	11					; 0000000bH
	DB	11					; 0000000bH
	DB	11					; 0000000bH
	DB	11					; 0000000bH
	DB	11					; 0000000bH
	DB	11					; 0000000bH
	DB	11					; 0000000bH
	DB	11					; 0000000bH
	DB	11					; 0000000bH
	DB	11					; 0000000bH
	DB	11					; 0000000bH
	DB	11					; 0000000bH
	DB	11					; 0000000bH
	DB	11					; 0000000bH
	DB	11					; 0000000bH
	DB	11					; 0000000bH
	DB	11					; 0000000bH
	DB	11					; 0000000bH
	DB	11					; 0000000bH
	DB	11					; 0000000bH
	DB	11					; 0000000bH
	DB	11					; 0000000bH
	DB	11					; 0000000bH
	DB	11					; 0000000bH
	DB	11					; 0000000bH
	DB	11					; 0000000bH
	DB	11					; 0000000bH
	DB	11					; 0000000bH
	DB	11					; 0000000bH
	DB	11					; 0000000bH
	DB	11					; 0000000bH
	DB	11					; 0000000bH
	DB	11					; 0000000bH
	DB	11					; 0000000bH
	DB	11					; 0000000bH
	DB	11					; 0000000bH
	DB	11					; 0000000bH
	DB	11					; 0000000bH
	DB	11					; 0000000bH
	DB	11					; 0000000bH
	DB	11					; 0000000bH
	DB	11					; 0000000bH
	DB	11					; 0000000bH
	DB	11					; 0000000bH
	DB	11					; 0000000bH
	DB	11					; 0000000bH
	DB	11					; 0000000bH
	DB	11					; 0000000bH
	DB	11					; 0000000bH
	DB	10					; 0000000aH
_GUI_CreateBitmapFromStream ENDP
_TEXT	ENDS
PUBLIC	_GUI_CreateBitmapFromStreamIDX
; Function compile flags: /Odtp /RTCsu /ZI
;	COMDAT _GUI_CreateBitmapFromStreamIDX
_TEXT	SEGMENT
_pBMP$ = 8						; size = 4
_pPAL$ = 12						; size = 4
_p$ = 16						; size = 4
_GUI_CreateBitmapFromStreamIDX PROC			; COMDAT
; Line 136
	push	ebp
	mov	ebp, esp
	sub	esp, 192				; 000000c0H
	push	ebx
	push	esi
	push	edi
	lea	edi, DWORD PTR [ebp-192]
	mov	ecx, 48					; 00000030H
	mov	eax, -858993460				; ccccccccH
	rep stosd
	push	100					; 00000064H
	push	0
	mov	eax, DWORD PTR _pPAL$[ebp]
	push	eax
	mov	ecx, DWORD PTR _pBMP$[ebp]
	push	ecx
	mov	edx, DWORD PTR _p$[ebp]
	push	edx
	call	__CreateBitmapFromStream
	add	esp, 20					; 00000014H
	pop	edi
	pop	esi
	pop	ebx
	add	esp, 192				; 000000c0H
	cmp	ebp, esp
	call	__RTC_CheckEsp
	mov	esp, ebp
	pop	ebp
	ret	0
_GUI_CreateBitmapFromStreamIDX ENDP
_TEXT	ENDS
PUBLIC	__$ArrayPad$
; Function compile flags: /Odtp /RTCsu /ZI
;	COMDAT __CreateBitmapFromStream
_TEXT	SEGMENT
_r$ = -36						; size = 4
_BitmapHeader$ = -24					; size = 16
__$ArrayPad$ = -4					; size = 4
_p$ = 8							; size = 4
_pBMP$ = 12						; size = 4
_pPAL$ = 16						; size = 4
_pMethods$ = 20						; size = 4
_Format$ = 24						; size = 4
__CreateBitmapFromStream PROC				; COMDAT
; Line 46
	push	ebp
	mov	ebp, esp
	sub	esp, 232				; 000000e8H
	push	ebx
	push	esi
	push	edi
	lea	edi, DWORD PTR [ebp-232]
	mov	ecx, 58					; 0000003aH
	mov	eax, -858993460				; ccccccccH
	rep stosd
	mov	eax, DWORD PTR ___security_cookie
	xor	eax, ebp
	mov	DWORD PTR __$ArrayPad$[ebp], eax
; Line 48
	mov	DWORD PTR _r$[ebp], 0
; Line 53
	mov	eax, DWORD PTR _p$[ebp]
	push	eax
	lea	ecx, DWORD PTR _BitmapHeader$[ebp]
	push	ecx
	call	_GUI__ReadHeaderFromStream
	add	esp, 8
; Line 54
	movzx	eax, WORD PTR _BitmapHeader$[ebp+2]
	cmp	eax, DWORD PTR _Format$[ebp]
	jne	SHORT $LN2@CreateBitm
; Line 58
	mov	eax, DWORD PTR _pMethods$[ebp]
	push	eax
	mov	ecx, DWORD PTR _pPAL$[ebp]
	push	ecx
	mov	edx, DWORD PTR _pBMP$[ebp]
	push	edx
	mov	eax, DWORD PTR _p$[ebp]
	push	eax
	lea	ecx, DWORD PTR _BitmapHeader$[ebp]
	push	ecx
	call	_GUI__CreateBitmapFromStream
	add	esp, 20					; 00000014H
; Line 59
	jmp	SHORT $LN1@CreateBitm
$LN2@CreateBitm:
; Line 63
	push	OFFSET $SG8354
	call	_GUI_ErrorOut
	add	esp, 4
; Line 64
	mov	DWORD PTR _r$[ebp], 1
$LN1@CreateBitm:
; Line 66
	mov	eax, DWORD PTR _r$[ebp]
; Line 67
	push	edx
	mov	ecx, ebp
	push	eax
	lea	edx, DWORD PTR $LN7@CreateBitm
	call	@_RTC_CheckStackVars@8
	pop	eax
	pop	edx
	pop	edi
	pop	esi
	pop	ebx
	mov	ecx, DWORD PTR __$ArrayPad$[ebp]
	xor	ecx, ebp
	call	@__security_check_cookie@4
	add	esp, 232				; 000000e8H
	cmp	ebp, esp
	call	__RTC_CheckEsp
	mov	esp, ebp
	pop	ebp
	ret	0
$LN7@CreateBitm:
	DD	1
	DD	$LN6@CreateBitm
$LN6@CreateBitm:
	DD	-24					; ffffffe8H
	DD	16					; 00000010H
	DD	$LN5@CreateBitm
$LN5@CreateBitm:
	DB	66					; 00000042H
	DB	105					; 00000069H
	DB	116					; 00000074H
	DB	109					; 0000006dH
	DB	97					; 00000061H
	DB	112					; 00000070H
	DB	72					; 00000048H
	DB	101					; 00000065H
	DB	97					; 00000061H
	DB	100					; 00000064H
	DB	101					; 00000065H
	DB	114					; 00000072H
	DB	0
__CreateBitmapFromStream ENDP
_TEXT	ENDS
PUBLIC	_GUI_CreateBitmapFromStreamRLE4
; Function compile flags: /Odtp /RTCsu /ZI
;	COMDAT _GUI_CreateBitmapFromStreamRLE4
_TEXT	SEGMENT
_pBMP$ = 8						; size = 4
_pPAL$ = 12						; size = 4
_p$ = 16						; size = 4
_GUI_CreateBitmapFromStreamRLE4 PROC			; COMDAT
; Line 137
	push	ebp
	mov	ebp, esp
	sub	esp, 192				; 000000c0H
	push	ebx
	push	esi
	push	edi
	lea	edi, DWORD PTR [ebp-192]
	mov	ecx, 48					; 00000030H
	mov	eax, -858993460				; ccccccccH
	rep stosd
	push	6
	push	OFFSET _GUI_BitmapMethodsRLE4
	mov	eax, DWORD PTR _pPAL$[ebp]
	push	eax
	mov	ecx, DWORD PTR _pBMP$[ebp]
	push	ecx
	mov	edx, DWORD PTR _p$[ebp]
	push	edx
	call	__CreateBitmapFromStream
	add	esp, 20					; 00000014H
	pop	edi
	pop	esi
	pop	ebx
	add	esp, 192				; 000000c0H
	cmp	ebp, esp
	call	__RTC_CheckEsp
	mov	esp, ebp
	pop	ebp
	ret	0
_GUI_CreateBitmapFromStreamRLE4 ENDP
_TEXT	ENDS
PUBLIC	_GUI_CreateBitmapFromStreamRLE8
; Function compile flags: /Odtp /RTCsu /ZI
;	COMDAT _GUI_CreateBitmapFromStreamRLE8
_TEXT	SEGMENT
_pBMP$ = 8						; size = 4
_pPAL$ = 12						; size = 4
_p$ = 16						; size = 4
_GUI_CreateBitmapFromStreamRLE8 PROC			; COMDAT
; Line 138
	push	ebp
	mov	ebp, esp
	sub	esp, 192				; 000000c0H
	push	ebx
	push	esi
	push	edi
	lea	edi, DWORD PTR [ebp-192]
	mov	ecx, 48					; 00000030H
	mov	eax, -858993460				; ccccccccH
	rep stosd
	push	7
	push	OFFSET _GUI_BitmapMethodsRLE8
	mov	eax, DWORD PTR _pPAL$[ebp]
	push	eax
	mov	ecx, DWORD PTR _pBMP$[ebp]
	push	ecx
	mov	edx, DWORD PTR _p$[ebp]
	push	edx
	call	__CreateBitmapFromStream
	add	esp, 20					; 00000014H
	pop	edi
	pop	esi
	pop	ebx
	add	esp, 192				; 000000c0H
	cmp	ebp, esp
	call	__RTC_CheckEsp
	mov	esp, ebp
	pop	ebp
	ret	0
_GUI_CreateBitmapFromStreamRLE8 ENDP
_TEXT	ENDS
PUBLIC	_GUI_CreateBitmapFromStream565
; Function compile flags: /Odtp /RTCsu /ZI
;	COMDAT _GUI_CreateBitmapFromStream565
_TEXT	SEGMENT
_pBMP$ = 8						; size = 4
_pPAL$ = 12						; size = 4
_p$ = 16						; size = 4
_GUI_CreateBitmapFromStream565 PROC			; COMDAT
; Line 139
	push	ebp
	mov	ebp, esp
	sub	esp, 192				; 000000c0H
	push	ebx
	push	esi
	push	edi
	lea	edi, DWORD PTR [ebp-192]
	mov	ecx, 48					; 00000030H
	mov	eax, -858993460				; ccccccccH
	rep stosd
	push	8
	push	OFFSET _GUI_BitmapMethods565
	mov	eax, DWORD PTR _pPAL$[ebp]
	push	eax
	mov	ecx, DWORD PTR _pBMP$[ebp]
	push	ecx
	mov	edx, DWORD PTR _p$[ebp]
	push	edx
	call	__CreateBitmapFromStream
	add	esp, 20					; 00000014H
	pop	edi
	pop	esi
	pop	ebx
	add	esp, 192				; 000000c0H
	cmp	ebp, esp
	call	__RTC_CheckEsp
	mov	esp, ebp
	pop	ebp
	ret	0
_GUI_CreateBitmapFromStream565 ENDP
_TEXT	ENDS
PUBLIC	_GUI_CreateBitmapFromStreamM565
; Function compile flags: /Odtp /RTCsu /ZI
;	COMDAT _GUI_CreateBitmapFromStreamM565
_TEXT	SEGMENT
_pBMP$ = 8						; size = 4
_pPAL$ = 12						; size = 4
_p$ = 16						; size = 4
_GUI_CreateBitmapFromStreamM565 PROC			; COMDAT
; Line 140
	push	ebp
	mov	ebp, esp
	sub	esp, 192				; 000000c0H
	push	ebx
	push	esi
	push	edi
	lea	edi, DWORD PTR [ebp-192]
	mov	ecx, 48					; 00000030H
	mov	eax, -858993460				; ccccccccH
	rep stosd
	push	9
	push	OFFSET _GUI_BitmapMethodsM565
	mov	eax, DWORD PTR _pPAL$[ebp]
	push	eax
	mov	ecx, DWORD PTR _pBMP$[ebp]
	push	ecx
	mov	edx, DWORD PTR _p$[ebp]
	push	edx
	call	__CreateBitmapFromStream
	add	esp, 20					; 00000014H
	pop	edi
	pop	esi
	pop	ebx
	add	esp, 192				; 000000c0H
	cmp	ebp, esp
	call	__RTC_CheckEsp
	mov	esp, ebp
	pop	ebp
	ret	0
_GUI_CreateBitmapFromStreamM565 ENDP
_TEXT	ENDS
PUBLIC	_GUI_CreateBitmapFromStream555
; Function compile flags: /Odtp /RTCsu /ZI
;	COMDAT _GUI_CreateBitmapFromStream555
_TEXT	SEGMENT
_pBMP$ = 8						; size = 4
_pPAL$ = 12						; size = 4
_p$ = 16						; size = 4
_GUI_CreateBitmapFromStream555 PROC			; COMDAT
; Line 141
	push	ebp
	mov	ebp, esp
	sub	esp, 192				; 000000c0H
	push	ebx
	push	esi
	push	edi
	lea	edi, DWORD PTR [ebp-192]
	mov	ecx, 48					; 00000030H
	mov	eax, -858993460				; ccccccccH
	rep stosd
	push	10					; 0000000aH
	push	OFFSET _GUI_BitmapMethods555
	mov	eax, DWORD PTR _pPAL$[ebp]
	push	eax
	mov	ecx, DWORD PTR _pBMP$[ebp]
	push	ecx
	mov	edx, DWORD PTR _p$[ebp]
	push	edx
	call	__CreateBitmapFromStream
	add	esp, 20					; 00000014H
	pop	edi
	pop	esi
	pop	ebx
	add	esp, 192				; 000000c0H
	cmp	ebp, esp
	call	__RTC_CheckEsp
	mov	esp, ebp
	pop	ebp
	ret	0
_GUI_CreateBitmapFromStream555 ENDP
_TEXT	ENDS
PUBLIC	_GUI_CreateBitmapFromStreamM555
; Function compile flags: /Odtp /RTCsu /ZI
;	COMDAT _GUI_CreateBitmapFromStreamM555
_TEXT	SEGMENT
_pBMP$ = 8						; size = 4
_pPAL$ = 12						; size = 4
_p$ = 16						; size = 4
_GUI_CreateBitmapFromStreamM555 PROC			; COMDAT
; Line 142
	push	ebp
	mov	ebp, esp
	sub	esp, 192				; 000000c0H
	push	ebx
	push	esi
	push	edi
	lea	edi, DWORD PTR [ebp-192]
	mov	ecx, 48					; 00000030H
	mov	eax, -858993460				; ccccccccH
	rep stosd
	push	11					; 0000000bH
	push	OFFSET _GUI_BitmapMethodsM555
	mov	eax, DWORD PTR _pPAL$[ebp]
	push	eax
	mov	ecx, DWORD PTR _pBMP$[ebp]
	push	ecx
	mov	edx, DWORD PTR _p$[ebp]
	push	edx
	call	__CreateBitmapFromStream
	add	esp, 20					; 00000014H
	pop	edi
	pop	esi
	pop	ebx
	add	esp, 192				; 000000c0H
	cmp	ebp, esp
	call	__RTC_CheckEsp
	mov	esp, ebp
	pop	ebp
	ret	0
_GUI_CreateBitmapFromStreamM555 ENDP
_TEXT	ENDS
PUBLIC	_GUI_CreateBitmapFromStreamRLE16
; Function compile flags: /Odtp /RTCsu /ZI
;	COMDAT _GUI_CreateBitmapFromStreamRLE16
_TEXT	SEGMENT
_pBMP$ = 8						; size = 4
_pPAL$ = 12						; size = 4
_p$ = 16						; size = 4
_GUI_CreateBitmapFromStreamRLE16 PROC			; COMDAT
; Line 143
	push	ebp
	mov	ebp, esp
	sub	esp, 192				; 000000c0H
	push	ebx
	push	esi
	push	edi
	lea	edi, DWORD PTR [ebp-192]
	mov	ecx, 48					; 00000030H
	mov	eax, -858993460				; ccccccccH
	rep stosd
	push	12					; 0000000cH
	push	OFFSET _GUI_BitmapMethodsRLE16
	mov	eax, DWORD PTR _pPAL$[ebp]
	push	eax
	mov	ecx, DWORD PTR _pBMP$[ebp]
	push	ecx
	mov	edx, DWORD PTR _p$[ebp]
	push	edx
	call	__CreateBitmapFromStream
	add	esp, 20					; 00000014H
	pop	edi
	pop	esi
	pop	ebx
	add	esp, 192				; 000000c0H
	cmp	ebp, esp
	call	__RTC_CheckEsp
	mov	esp, ebp
	pop	ebp
	ret	0
_GUI_CreateBitmapFromStreamRLE16 ENDP
_TEXT	ENDS
PUBLIC	_GUI_CreateBitmapFromStreamRLEM16
; Function compile flags: /Odtp /RTCsu /ZI
;	COMDAT _GUI_CreateBitmapFromStreamRLEM16
_TEXT	SEGMENT
_pBMP$ = 8						; size = 4
_pPAL$ = 12						; size = 4
_p$ = 16						; size = 4
_GUI_CreateBitmapFromStreamRLEM16 PROC			; COMDAT
; Line 144
	push	ebp
	mov	ebp, esp
	sub	esp, 192				; 000000c0H
	push	ebx
	push	esi
	push	edi
	lea	edi, DWORD PTR [ebp-192]
	mov	ecx, 48					; 00000030H
	mov	eax, -858993460				; ccccccccH
	rep stosd
	push	13					; 0000000dH
	push	OFFSET _GUI_BitmapMethodsRLEM16
	mov	eax, DWORD PTR _pPAL$[ebp]
	push	eax
	mov	ecx, DWORD PTR _pBMP$[ebp]
	push	ecx
	mov	edx, DWORD PTR _p$[ebp]
	push	edx
	call	__CreateBitmapFromStream
	add	esp, 20					; 00000014H
	pop	edi
	pop	esi
	pop	ebx
	add	esp, 192				; 000000c0H
	cmp	ebp, esp
	call	__RTC_CheckEsp
	mov	esp, ebp
	pop	ebp
	ret	0
_GUI_CreateBitmapFromStreamRLEM16 ENDP
_TEXT	ENDS
PUBLIC	_GUI_CreateBitmapFromStream24
; Function compile flags: /Odtp /RTCsu /ZI
;	COMDAT _GUI_CreateBitmapFromStream24
_TEXT	SEGMENT
_pBMP$ = 8						; size = 4
_pPAL$ = 12						; size = 4
_p$ = 16						; size = 4
_GUI_CreateBitmapFromStream24 PROC			; COMDAT
; Line 145
	push	ebp
	mov	ebp, esp
	sub	esp, 192				; 000000c0H
	push	ebx
	push	esi
	push	edi
	lea	edi, DWORD PTR [ebp-192]
	mov	ecx, 48					; 00000030H
	mov	eax, -858993460				; ccccccccH
	rep stosd
	push	17					; 00000011H
	push	OFFSET _GUI_BitmapMethods24
	mov	eax, DWORD PTR _pPAL$[ebp]
	push	eax
	mov	ecx, DWORD PTR _pBMP$[ebp]
	push	ecx
	mov	edx, DWORD PTR _p$[ebp]
	push	edx
	call	__CreateBitmapFromStream
	add	esp, 20					; 00000014H
	pop	edi
	pop	esi
	pop	ebx
	add	esp, 192				; 000000c0H
	cmp	ebp, esp
	call	__RTC_CheckEsp
	mov	esp, ebp
	pop	ebp
	ret	0
_GUI_CreateBitmapFromStream24 ENDP
_TEXT	ENDS
PUBLIC	_GUI_CreateBitmapFromStreamAlpha
; Function compile flags: /Odtp /RTCsu /ZI
;	COMDAT _GUI_CreateBitmapFromStreamAlpha
_TEXT	SEGMENT
_pBMP$ = 8						; size = 4
_pPAL$ = 12						; size = 4
_p$ = 16						; size = 4
_GUI_CreateBitmapFromStreamAlpha PROC			; COMDAT
; Line 146
	push	ebp
	mov	ebp, esp
	sub	esp, 192				; 000000c0H
	push	ebx
	push	esi
	push	edi
	lea	edi, DWORD PTR [ebp-192]
	mov	ecx, 48					; 00000030H
	mov	eax, -858993460				; ccccccccH
	rep stosd
	push	16					; 00000010H
	push	OFFSET _GUI_BitmapMethods8888
	mov	eax, DWORD PTR _pPAL$[ebp]
	push	eax
	mov	ecx, DWORD PTR _pBMP$[ebp]
	push	ecx
	mov	edx, DWORD PTR _p$[ebp]
	push	edx
	call	__CreateBitmapFromStream
	add	esp, 20					; 00000014H
	pop	edi
	pop	esi
	pop	ebx
	add	esp, 192				; 000000c0H
	cmp	ebp, esp
	call	__RTC_CheckEsp
	mov	esp, ebp
	pop	ebp
	ret	0
_GUI_CreateBitmapFromStreamAlpha ENDP
_TEXT	ENDS
END
