; Listing generated by Microsoft (R) Optimizing Compiler Version 16.00.40219.01 

	TITLE	C:\DUII\Simulation\GUI\Widget\HEADER_Default.c
	.686P
	.XMM
	include listing.inc
	.model	flat

INCLUDELIB LIBCMT
INCLUDELIB OLDNAMES

PUBLIC	_HEADER_SetDefaultCursor
EXTRN	_HEADER__pDefaultCursor:DWORD
EXTRN	__RTC_Shutdown:PROC
EXTRN	__RTC_InitBase:PROC
;	COMDAT rtc$TMZ
; File c:\duii\simulation\gui\widget\header_default.c
rtc$TMZ	SEGMENT
__RTC_Shutdown.rtc$TMZ DD FLAT:__RTC_Shutdown
rtc$TMZ	ENDS
;	COMDAT rtc$IMZ
rtc$IMZ	SEGMENT
__RTC_InitBase.rtc$IMZ DD FLAT:__RTC_InitBase
; Function compile flags: /Odtp /RTCsu /ZI
rtc$IMZ	ENDS
;	COMDAT _HEADER_SetDefaultCursor
_TEXT	SEGMENT
_pOldCursor$ = -8					; size = 4
_pCursor$ = 8						; size = 4
_HEADER_SetDefaultCursor PROC				; COMDAT
; Line 37
	push	ebp
	mov	ebp, esp
	sub	esp, 204				; 000000ccH
	push	ebx
	push	esi
	push	edi
	lea	edi, DWORD PTR [ebp-204]
	mov	ecx, 51					; 00000033H
	mov	eax, -858993460				; ccccccccH
	rep stosd
; Line 38
	mov	eax, DWORD PTR _HEADER__pDefaultCursor
	mov	DWORD PTR _pOldCursor$[ebp], eax
; Line 39
	mov	eax, DWORD PTR _pCursor$[ebp]
	mov	DWORD PTR _HEADER__pDefaultCursor, eax
; Line 40
	mov	eax, DWORD PTR _pOldCursor$[ebp]
; Line 41
	pop	edi
	pop	esi
	pop	ebx
	mov	esp, ebp
	pop	ebp
	ret	0
_HEADER_SetDefaultCursor ENDP
_TEXT	ENDS
PUBLIC	_HEADER_SetDefaultBkColor
EXTRN	_HEADER__DefaultProps:BYTE
; Function compile flags: /Odtp /RTCsu /ZI
;	COMDAT _HEADER_SetDefaultBkColor
_TEXT	SEGMENT
_OldColor$ = -8						; size = 4
_Color$ = 8						; size = 4
_HEADER_SetDefaultBkColor PROC				; COMDAT
; Line 47
	push	ebp
	mov	ebp, esp
	sub	esp, 204				; 000000ccH
	push	ebx
	push	esi
	push	edi
	lea	edi, DWORD PTR [ebp-204]
	mov	ecx, 51					; 00000033H
	mov	eax, -858993460				; ccccccccH
	rep stosd
; Line 48
	mov	eax, DWORD PTR _HEADER__DefaultProps+4
	mov	DWORD PTR _OldColor$[ebp], eax
; Line 49
	mov	eax, DWORD PTR _Color$[ebp]
	mov	DWORD PTR _HEADER__DefaultProps+4, eax
; Line 50
	mov	eax, DWORD PTR _OldColor$[ebp]
; Line 51
	pop	edi
	pop	esi
	pop	ebx
	mov	esp, ebp
	pop	ebp
	ret	0
_HEADER_SetDefaultBkColor ENDP
_TEXT	ENDS
PUBLIC	_HEADER_SetDefaultTextColor
; Function compile flags: /Odtp /RTCsu /ZI
;	COMDAT _HEADER_SetDefaultTextColor
_TEXT	SEGMENT
_OldColor$ = -8						; size = 4
_Color$ = 8						; size = 4
_HEADER_SetDefaultTextColor PROC			; COMDAT
; Line 57
	push	ebp
	mov	ebp, esp
	sub	esp, 204				; 000000ccH
	push	ebx
	push	esi
	push	edi
	lea	edi, DWORD PTR [ebp-204]
	mov	ecx, 51					; 00000033H
	mov	eax, -858993460				; ccccccccH
	rep stosd
; Line 58
	mov	eax, DWORD PTR _HEADER__DefaultProps+8
	mov	DWORD PTR _OldColor$[ebp], eax
; Line 59
	mov	eax, DWORD PTR _Color$[ebp]
	mov	DWORD PTR _HEADER__DefaultProps+8, eax
; Line 60
	mov	eax, DWORD PTR _OldColor$[ebp]
; Line 61
	pop	edi
	pop	esi
	pop	ebx
	mov	esp, ebp
	pop	ebp
	ret	0
_HEADER_SetDefaultTextColor ENDP
_TEXT	ENDS
PUBLIC	_HEADER_SetDefaultArrowColor
; Function compile flags: /Odtp /RTCsu /ZI
;	COMDAT _HEADER_SetDefaultArrowColor
_TEXT	SEGMENT
_OldColor$ = -8						; size = 4
_Color$ = 8						; size = 4
_HEADER_SetDefaultArrowColor PROC			; COMDAT
; Line 67
	push	ebp
	mov	ebp, esp
	sub	esp, 204				; 000000ccH
	push	ebx
	push	esi
	push	edi
	lea	edi, DWORD PTR [ebp-204]
	mov	ecx, 51					; 00000033H
	mov	eax, -858993460				; ccccccccH
	rep stosd
; Line 68
	mov	eax, DWORD PTR _HEADER__DefaultProps+12
	mov	DWORD PTR _OldColor$[ebp], eax
; Line 69
	mov	eax, DWORD PTR _Color$[ebp]
	mov	DWORD PTR _HEADER__DefaultProps+12, eax
; Line 70
	mov	eax, DWORD PTR _OldColor$[ebp]
; Line 71
	pop	edi
	pop	esi
	pop	ebx
	mov	esp, ebp
	pop	ebp
	ret	0
_HEADER_SetDefaultArrowColor ENDP
_TEXT	ENDS
PUBLIC	_HEADER_SetDefaultBorderH
EXTRN	_HEADER__DefaultBorderH:DWORD
; Function compile flags: /Odtp /RTCsu /ZI
;	COMDAT _HEADER_SetDefaultBorderH
_TEXT	SEGMENT
_OldSpacing$ = -8					; size = 4
_Spacing$ = 8						; size = 4
_HEADER_SetDefaultBorderH PROC				; COMDAT
; Line 77
	push	ebp
	mov	ebp, esp
	sub	esp, 204				; 000000ccH
	push	ebx
	push	esi
	push	edi
	lea	edi, DWORD PTR [ebp-204]
	mov	ecx, 51					; 00000033H
	mov	eax, -858993460				; ccccccccH
	rep stosd
; Line 78
	mov	eax, DWORD PTR _HEADER__DefaultBorderH
	mov	DWORD PTR _OldSpacing$[ebp], eax
; Line 79
	mov	eax, DWORD PTR _Spacing$[ebp]
	mov	DWORD PTR _HEADER__DefaultBorderH, eax
; Line 80
	mov	eax, DWORD PTR _OldSpacing$[ebp]
; Line 81
	pop	edi
	pop	esi
	pop	ebx
	mov	esp, ebp
	pop	ebp
	ret	0
_HEADER_SetDefaultBorderH ENDP
_TEXT	ENDS
PUBLIC	_HEADER_SetDefaultBorderV
EXTRN	_HEADER__DefaultBorderV:DWORD
; Function compile flags: /Odtp /RTCsu /ZI
;	COMDAT _HEADER_SetDefaultBorderV
_TEXT	SEGMENT
_OldSpacing$ = -8					; size = 4
_Spacing$ = 8						; size = 4
_HEADER_SetDefaultBorderV PROC				; COMDAT
; Line 87
	push	ebp
	mov	ebp, esp
	sub	esp, 204				; 000000ccH
	push	ebx
	push	esi
	push	edi
	lea	edi, DWORD PTR [ebp-204]
	mov	ecx, 51					; 00000033H
	mov	eax, -858993460				; ccccccccH
	rep stosd
; Line 88
	mov	eax, DWORD PTR _HEADER__DefaultBorderV
	mov	DWORD PTR _OldSpacing$[ebp], eax
; Line 89
	mov	eax, DWORD PTR _Spacing$[ebp]
	mov	DWORD PTR _HEADER__DefaultBorderV, eax
; Line 90
	mov	eax, DWORD PTR _OldSpacing$[ebp]
; Line 91
	pop	edi
	pop	esi
	pop	ebx
	mov	esp, ebp
	pop	ebp
	ret	0
_HEADER_SetDefaultBorderV ENDP
_TEXT	ENDS
PUBLIC	_HEADER_SetDefaultFont
; Function compile flags: /Odtp /RTCsu /ZI
;	COMDAT _HEADER_SetDefaultFont
_TEXT	SEGMENT
_pOldFont$ = -8						; size = 4
_pFont$ = 8						; size = 4
_HEADER_SetDefaultFont PROC				; COMDAT
; Line 97
	push	ebp
	mov	ebp, esp
	sub	esp, 204				; 000000ccH
	push	ebx
	push	esi
	push	edi
	lea	edi, DWORD PTR [ebp-204]
	mov	ecx, 51					; 00000033H
	mov	eax, -858993460				; ccccccccH
	rep stosd
; Line 98
	mov	eax, DWORD PTR _HEADER__DefaultProps
	mov	DWORD PTR _pOldFont$[ebp], eax
; Line 99
	mov	eax, DWORD PTR _pFont$[ebp]
	mov	DWORD PTR _HEADER__DefaultProps, eax
; Line 100
	mov	eax, DWORD PTR _pOldFont$[ebp]
; Line 101
	pop	edi
	pop	esi
	pop	ebx
	mov	esp, ebp
	pop	ebp
	ret	0
_HEADER_SetDefaultFont ENDP
_TEXT	ENDS
PUBLIC	_HEADER_GetDefaultCursor
; Function compile flags: /Odtp /RTCsu /ZI
;	COMDAT _HEADER_GetDefaultCursor
_TEXT	SEGMENT
_HEADER_GetDefaultCursor PROC				; COMDAT
; Line 107
	push	ebp
	mov	ebp, esp
	sub	esp, 192				; 000000c0H
	push	ebx
	push	esi
	push	edi
	lea	edi, DWORD PTR [ebp-192]
	mov	ecx, 48					; 00000030H
	mov	eax, -858993460				; ccccccccH
	rep stosd
; Line 108
	mov	eax, DWORD PTR _HEADER__pDefaultCursor
; Line 109
	pop	edi
	pop	esi
	pop	ebx
	mov	esp, ebp
	pop	ebp
	ret	0
_HEADER_GetDefaultCursor ENDP
_TEXT	ENDS
PUBLIC	_HEADER_GetDefaultBkColor
; Function compile flags: /Odtp /RTCsu /ZI
;	COMDAT _HEADER_GetDefaultBkColor
_TEXT	SEGMENT
_HEADER_GetDefaultBkColor PROC				; COMDAT
; Line 115
	push	ebp
	mov	ebp, esp
	sub	esp, 192				; 000000c0H
	push	ebx
	push	esi
	push	edi
	lea	edi, DWORD PTR [ebp-192]
	mov	ecx, 48					; 00000030H
	mov	eax, -858993460				; ccccccccH
	rep stosd
; Line 116
	mov	eax, DWORD PTR _HEADER__DefaultProps+4
; Line 117
	pop	edi
	pop	esi
	pop	ebx
	mov	esp, ebp
	pop	ebp
	ret	0
_HEADER_GetDefaultBkColor ENDP
_TEXT	ENDS
PUBLIC	_HEADER_GetDefaultArrowColor
; Function compile flags: /Odtp /RTCsu /ZI
;	COMDAT _HEADER_GetDefaultArrowColor
_TEXT	SEGMENT
_HEADER_GetDefaultArrowColor PROC			; COMDAT
; Line 123
	push	ebp
	mov	ebp, esp
	sub	esp, 192				; 000000c0H
	push	ebx
	push	esi
	push	edi
	lea	edi, DWORD PTR [ebp-192]
	mov	ecx, 48					; 00000030H
	mov	eax, -858993460				; ccccccccH
	rep stosd
; Line 124
	mov	eax, DWORD PTR _HEADER__DefaultProps+12
; Line 125
	pop	edi
	pop	esi
	pop	ebx
	mov	esp, ebp
	pop	ebp
	ret	0
_HEADER_GetDefaultArrowColor ENDP
_TEXT	ENDS
PUBLIC	_HEADER_GetDefaultTextColor
; Function compile flags: /Odtp /RTCsu /ZI
;	COMDAT _HEADER_GetDefaultTextColor
_TEXT	SEGMENT
_HEADER_GetDefaultTextColor PROC			; COMDAT
; Line 131
	push	ebp
	mov	ebp, esp
	sub	esp, 192				; 000000c0H
	push	ebx
	push	esi
	push	edi
	lea	edi, DWORD PTR [ebp-192]
	mov	ecx, 48					; 00000030H
	mov	eax, -858993460				; ccccccccH
	rep stosd
; Line 132
	mov	eax, DWORD PTR _HEADER__DefaultProps+8
; Line 133
	pop	edi
	pop	esi
	pop	ebx
	mov	esp, ebp
	pop	ebp
	ret	0
_HEADER_GetDefaultTextColor ENDP
_TEXT	ENDS
PUBLIC	_HEADER_GetDefaultBorderH
; Function compile flags: /Odtp /RTCsu /ZI
;	COMDAT _HEADER_GetDefaultBorderH
_TEXT	SEGMENT
_HEADER_GetDefaultBorderH PROC				; COMDAT
; Line 139
	push	ebp
	mov	ebp, esp
	sub	esp, 192				; 000000c0H
	push	ebx
	push	esi
	push	edi
	lea	edi, DWORD PTR [ebp-192]
	mov	ecx, 48					; 00000030H
	mov	eax, -858993460				; ccccccccH
	rep stosd
; Line 140
	mov	eax, DWORD PTR _HEADER__DefaultBorderH
; Line 141
	pop	edi
	pop	esi
	pop	ebx
	mov	esp, ebp
	pop	ebp
	ret	0
_HEADER_GetDefaultBorderH ENDP
_TEXT	ENDS
PUBLIC	_HEADER_GetDefaultBorderV
; Function compile flags: /Odtp /RTCsu /ZI
;	COMDAT _HEADER_GetDefaultBorderV
_TEXT	SEGMENT
_HEADER_GetDefaultBorderV PROC				; COMDAT
; Line 147
	push	ebp
	mov	ebp, esp
	sub	esp, 192				; 000000c0H
	push	ebx
	push	esi
	push	edi
	lea	edi, DWORD PTR [ebp-192]
	mov	ecx, 48					; 00000030H
	mov	eax, -858993460				; ccccccccH
	rep stosd
; Line 148
	mov	eax, DWORD PTR _HEADER__DefaultBorderV
; Line 149
	pop	edi
	pop	esi
	pop	ebx
	mov	esp, ebp
	pop	ebp
	ret	0
_HEADER_GetDefaultBorderV ENDP
_TEXT	ENDS
PUBLIC	_HEADER_GetDefaultFont
; Function compile flags: /Odtp /RTCsu /ZI
;	COMDAT _HEADER_GetDefaultFont
_TEXT	SEGMENT
_HEADER_GetDefaultFont PROC				; COMDAT
; Line 155
	push	ebp
	mov	ebp, esp
	sub	esp, 192				; 000000c0H
	push	ebx
	push	esi
	push	edi
	lea	edi, DWORD PTR [ebp-192]
	mov	ecx, 48					; 00000030H
	mov	eax, -858993460				; ccccccccH
	rep stosd
; Line 156
	mov	eax, DWORD PTR _HEADER__DefaultProps
; Line 157
	pop	edi
	pop	esi
	pop	ebx
	mov	esp, ebp
	pop	ebp
	ret	0
_HEADER_GetDefaultFont ENDP
_TEXT	ENDS
END
