; Listing generated by Microsoft (R) Optimizing Compiler Version 16.00.40219.01 

	TITLE	C:\DUII\Simulation\GUI\Widget\HEADER_Color.c
	.686P
	.XMM
	include listing.inc
	.model	flat

INCLUDELIB LIBCMT
INCLUDELIB OLDNAMES

PUBLIC	_HEADER_SetTextColor
EXTRN	_WM_InvalidateWindow:PROC
EXTRN	_GUI_ALLOC_UnlockH:PROC
EXTRN	_HEADER_LockH:PROC
EXTRN	__RTC_CheckEsp:PROC
EXTRN	__RTC_Shutdown:PROC
EXTRN	__RTC_InitBase:PROC
;	COMDAT rtc$TMZ
; File c:\duii\simulation\gui\widget\header_color.c
rtc$TMZ	SEGMENT
__RTC_Shutdown.rtc$TMZ DD FLAT:__RTC_Shutdown
rtc$TMZ	ENDS
;	COMDAT rtc$IMZ
rtc$IMZ	SEGMENT
__RTC_InitBase.rtc$IMZ DD FLAT:__RTC_InitBase
; Function compile flags: /Odtp /RTCsu /ZI
rtc$IMZ	ENDS
;	COMDAT _HEADER_SetTextColor
_TEXT	SEGMENT
_pObj$12707 = -8					; size = 4
_hObj$ = 8						; size = 4
_Color$ = 12						; size = 4
_HEADER_SetTextColor PROC				; COMDAT
; Line 40
	push	ebp
	mov	ebp, esp
	sub	esp, 204				; 000000ccH
	push	ebx
	push	esi
	push	edi
	lea	edi, DWORD PTR [ebp-204]
	mov	ecx, 51					; 00000033H
	mov	eax, -858993460				; ccccccccH
	rep stosd
; Line 41
	cmp	DWORD PTR _hObj$[ebp], 0
	je	SHORT $LN2@HEADER_Set
; Line 44
	mov	eax, DWORD PTR _hObj$[ebp]
	push	eax
	call	_HEADER_LockH
	add	esp, 4
	mov	DWORD PTR _pObj$12707[ebp], eax
; Line 45
	mov	eax, DWORD PTR _pObj$12707[ebp]
	mov	ecx, DWORD PTR _Color$[ebp]
	mov	DWORD PTR [eax+64], ecx
; Line 46
	call	_GUI_ALLOC_UnlockH
	mov	DWORD PTR _pObj$12707[ebp], 0
; Line 47
	mov	eax, DWORD PTR _hObj$[ebp]
	push	eax
	call	_WM_InvalidateWindow
	add	esp, 4
$LN2@HEADER_Set:
; Line 50
	pop	edi
	pop	esi
	pop	ebx
	add	esp, 204				; 000000ccH
	cmp	ebp, esp
	call	__RTC_CheckEsp
	mov	esp, ebp
	pop	ebp
	ret	0
_HEADER_SetTextColor ENDP
_TEXT	ENDS
PUBLIC	_HEADER_SetBkColor
; Function compile flags: /Odtp /RTCsu /ZI
;	COMDAT _HEADER_SetBkColor
_TEXT	SEGMENT
_pObj$12715 = -8					; size = 4
_hObj$ = 8						; size = 4
_Color$ = 12						; size = 4
_HEADER_SetBkColor PROC					; COMDAT
; Line 56
	push	ebp
	mov	ebp, esp
	sub	esp, 204				; 000000ccH
	push	ebx
	push	esi
	push	edi
	lea	edi, DWORD PTR [ebp-204]
	mov	ecx, 51					; 00000033H
	mov	eax, -858993460				; ccccccccH
	rep stosd
; Line 57
	cmp	DWORD PTR _hObj$[ebp], 0
	je	SHORT $LN2@HEADER_Set@2
; Line 60
	mov	eax, DWORD PTR _hObj$[ebp]
	push	eax
	call	_HEADER_LockH
	add	esp, 4
	mov	DWORD PTR _pObj$12715[ebp], eax
; Line 61
	mov	eax, DWORD PTR _pObj$12715[ebp]
	mov	ecx, DWORD PTR _Color$[ebp]
	mov	DWORD PTR [eax+60], ecx
; Line 62
	call	_GUI_ALLOC_UnlockH
	mov	DWORD PTR _pObj$12715[ebp], 0
; Line 63
	mov	eax, DWORD PTR _hObj$[ebp]
	push	eax
	call	_WM_InvalidateWindow
	add	esp, 4
$LN2@HEADER_Set@2:
; Line 66
	pop	edi
	pop	esi
	pop	ebx
	add	esp, 204				; 000000ccH
	cmp	ebp, esp
	call	__RTC_CheckEsp
	mov	esp, ebp
	pop	ebp
	ret	0
_HEADER_SetBkColor ENDP
_TEXT	ENDS
PUBLIC	_HEADER_SetArrowColor
; Function compile flags: /Odtp /RTCsu /ZI
;	COMDAT _HEADER_SetArrowColor
_TEXT	SEGMENT
_pObj$12723 = -8					; size = 4
_hObj$ = 8						; size = 4
_Color$ = 12						; size = 4
_HEADER_SetArrowColor PROC				; COMDAT
; Line 72
	push	ebp
	mov	ebp, esp
	sub	esp, 204				; 000000ccH
	push	ebx
	push	esi
	push	edi
	lea	edi, DWORD PTR [ebp-204]
	mov	ecx, 51					; 00000033H
	mov	eax, -858993460				; ccccccccH
	rep stosd
; Line 73
	cmp	DWORD PTR _hObj$[ebp], 0
	je	SHORT $LN2@HEADER_Set@3
; Line 76
	mov	eax, DWORD PTR _hObj$[ebp]
	push	eax
	call	_HEADER_LockH
	add	esp, 4
	mov	DWORD PTR _pObj$12723[ebp], eax
; Line 77
	mov	eax, DWORD PTR _pObj$12723[ebp]
	mov	ecx, DWORD PTR _Color$[ebp]
	mov	DWORD PTR [eax+68], ecx
; Line 78
	call	_GUI_ALLOC_UnlockH
	mov	DWORD PTR _pObj$12723[ebp], 0
; Line 79
	mov	eax, DWORD PTR _hObj$[ebp]
	push	eax
	call	_WM_InvalidateWindow
	add	esp, 4
$LN2@HEADER_Set@3:
; Line 82
	pop	edi
	pop	esi
	pop	ebx
	add	esp, 204				; 000000ccH
	cmp	ebp, esp
	call	__RTC_CheckEsp
	mov	esp, ebp
	pop	ebp
	ret	0
_HEADER_SetArrowColor ENDP
_TEXT	ENDS
PUBLIC	_HEADER_GetTextColor
; Function compile flags: /Odtp /RTCsu /ZI
;	COMDAT _HEADER_GetTextColor
_TEXT	SEGMENT
_pObj$12730 = -20					; size = 4
_Color$ = -8						; size = 4
_hObj$ = 8						; size = 4
_HEADER_GetTextColor PROC				; COMDAT
; Line 88
	push	ebp
	mov	ebp, esp
	sub	esp, 216				; 000000d8H
	push	ebx
	push	esi
	push	edi
	lea	edi, DWORD PTR [ebp-216]
	mov	ecx, 54					; 00000036H
	mov	eax, -858993460				; ccccccccH
	rep stosd
; Line 90
	mov	DWORD PTR _Color$[ebp], 0
; Line 91
	cmp	DWORD PTR _hObj$[ebp], 0
	je	SHORT $LN1@HEADER_Get
; Line 94
	mov	eax, DWORD PTR _hObj$[ebp]
	push	eax
	call	_HEADER_LockH
	add	esp, 4
	mov	DWORD PTR _pObj$12730[ebp], eax
; Line 95
	mov	eax, DWORD PTR _pObj$12730[ebp]
	mov	ecx, DWORD PTR [eax+64]
	mov	DWORD PTR _Color$[ebp], ecx
; Line 96
	call	_GUI_ALLOC_UnlockH
	mov	DWORD PTR _pObj$12730[ebp], 0
$LN1@HEADER_Get:
; Line 99
	mov	eax, DWORD PTR _Color$[ebp]
; Line 100
	pop	edi
	pop	esi
	pop	ebx
	add	esp, 216				; 000000d8H
	cmp	ebp, esp
	call	__RTC_CheckEsp
	mov	esp, ebp
	pop	ebp
	ret	0
_HEADER_GetTextColor ENDP
_TEXT	ENDS
PUBLIC	_HEADER_GetBkColor
; Function compile flags: /Odtp /RTCsu /ZI
;	COMDAT _HEADER_GetBkColor
_TEXT	SEGMENT
_pObj$12737 = -20					; size = 4
_Color$ = -8						; size = 4
_hObj$ = 8						; size = 4
_HEADER_GetBkColor PROC					; COMDAT
; Line 106
	push	ebp
	mov	ebp, esp
	sub	esp, 216				; 000000d8H
	push	ebx
	push	esi
	push	edi
	lea	edi, DWORD PTR [ebp-216]
	mov	ecx, 54					; 00000036H
	mov	eax, -858993460				; ccccccccH
	rep stosd
; Line 108
	mov	DWORD PTR _Color$[ebp], 0
; Line 109
	cmp	DWORD PTR _hObj$[ebp], 0
	je	SHORT $LN1@HEADER_Get@2
; Line 112
	mov	eax, DWORD PTR _hObj$[ebp]
	push	eax
	call	_HEADER_LockH
	add	esp, 4
	mov	DWORD PTR _pObj$12737[ebp], eax
; Line 113
	mov	eax, DWORD PTR _pObj$12737[ebp]
	mov	ecx, DWORD PTR [eax+60]
	mov	DWORD PTR _Color$[ebp], ecx
; Line 114
	call	_GUI_ALLOC_UnlockH
	mov	DWORD PTR _pObj$12737[ebp], 0
$LN1@HEADER_Get@2:
; Line 117
	mov	eax, DWORD PTR _Color$[ebp]
; Line 118
	pop	edi
	pop	esi
	pop	ebx
	add	esp, 216				; 000000d8H
	cmp	ebp, esp
	call	__RTC_CheckEsp
	mov	esp, ebp
	pop	ebp
	ret	0
_HEADER_GetBkColor ENDP
_TEXT	ENDS
PUBLIC	_HEADER_GetArrowColor
; Function compile flags: /Odtp /RTCsu /ZI
;	COMDAT _HEADER_GetArrowColor
_TEXT	SEGMENT
_pObj$12744 = -20					; size = 4
_Color$ = -8						; size = 4
_hObj$ = 8						; size = 4
_HEADER_GetArrowColor PROC				; COMDAT
; Line 124
	push	ebp
	mov	ebp, esp
	sub	esp, 216				; 000000d8H
	push	ebx
	push	esi
	push	edi
	lea	edi, DWORD PTR [ebp-216]
	mov	ecx, 54					; 00000036H
	mov	eax, -858993460				; ccccccccH
	rep stosd
; Line 126
	mov	DWORD PTR _Color$[ebp], 0
; Line 127
	cmp	DWORD PTR _hObj$[ebp], 0
	je	SHORT $LN1@HEADER_Get@3
; Line 130
	mov	eax, DWORD PTR _hObj$[ebp]
	push	eax
	call	_HEADER_LockH
	add	esp, 4
	mov	DWORD PTR _pObj$12744[ebp], eax
; Line 131
	mov	eax, DWORD PTR _pObj$12744[ebp]
	mov	ecx, DWORD PTR [eax+68]
	mov	DWORD PTR _Color$[ebp], ecx
; Line 132
	call	_GUI_ALLOC_UnlockH
	mov	DWORD PTR _pObj$12744[ebp], 0
$LN1@HEADER_Get@3:
; Line 135
	mov	eax, DWORD PTR _Color$[ebp]
; Line 136
	pop	edi
	pop	esi
	pop	ebx
	add	esp, 216				; 000000d8H
	cmp	ebp, esp
	call	__RTC_CheckEsp
	mov	esp, ebp
	pop	ebp
	ret	0
_HEADER_GetArrowColor ENDP
_TEXT	ENDS
END
