; Listing generated by Microsoft (R) Optimizing Compiler Version 16.00.40219.01 

	TITLE	C:\DUII\DUII\Graphics\HelpPreviousButton.c
	.686P
	.XMM
	include listing.inc
	.model	flat

INCLUDELIB LIBCMT
INCLUDELIB OLDNAMES

PUBLIC	_bmHelpPreviousButton
CONST	SEGMENT
_ColorsHelpPreviousButton DD 00H
	DD	0102c8H
	DD	0102cdH
	DD	0202bcH
	DD	0202c0H
	DD	0102c4H
	DD	0d02d5H
	DD	0202b9H
	DD	01202cdH
	DD	01302caH
	DD	01002cfH
	DD	0e02d2H
	DD	0b02d8H
	DD	01014dH
	DD	0202b6H
	DD	01402c8H
	DD	0786ddfH
	DD	0901dbH
	DD	0102d1H
	DD	0701deH
	DD	0601e0H
	DD	0101dfH
	DD	0101e1H
	DD	0101dcH
	DD	0101e3H
	DD	0201e4H
	DD	0101d5H
	DD	0401e2H
	DD	0101e4H
	DD	0101d8H
	DD	0301e4H
	DD	01fH
	DD	0101bcH
	DD	0101d0H
	DD	01eH
	DD	036H
	DD	010092H
	DD	037H
	DD	046H
	DD	04aH
	DD	056H
	DD	090H
	DD	01019aH
	DD	0101c3H
	DD	0101ccH
	DD	0501cdH
	DD	05bH
	DD	0501d7H
	DD	0101daH
	DD	01006aH
	DD	082H
	DD	010085H
	DD	0101a8H
	DD	0101acH
	DD	0101b2H
	DD	0101baH
	DD	0101c0H
	DD	01dH
	DD	034H
	DD	078H
	DD	08aH
	DD	020090H
	DD	01019dH
	DD	0101a2H
	DD	0101b0H
	DD	0201bdH
	DD	0101c6H
	DD	0301c6H
	DD	045H
	DD	010049H
	DD	054H
	DD	05aH
	DD	066H
	DD	069H
	DD	010069H
	DD	074H
	DD	020076H
	DD	010078H
	DD	085H
	DD	08eH
	DD	092H
	DD	010195H
	DD	0101a0H
	DD	0101a4H
	DD	0101a6H
	DD	0202b1H
	DD	0102c0H
	DD	0101c5H
	DD	0201c7H
	DD	0301d1H
	DD	0201dbH
	DD	0301dbH
	DD	0401d9H
	DD	01001bH
	DD	033H
	DD	010035H
	DD	042H
	DD	01004aH
	DD	01014bH
	DD	01014eH
	DD	059H
	DD	01005aH
	DD	065H
	DD	020067H
	DD	020068H
	DD	06aH
	DD	070H
	DD	072H
	DD	010077H
	DD	07cH
	DD	07fH
	DD	080H
	DD	010287H
	DD	03008eH
	DD	03008fH
	DD	010199H
	DD	030198H
	DD	03019aH
	DD	02019bH
	DD	01019cH
	DD	02019dH
	DD	0201a8H
	DD	0101afH
	DD	0201b3H
	DD	0701b3H
	DD	0101b4H
	DD	0203b4H
	DD	0101b7H
	DD	0601b6H
	DD	0101b9H
	DD	0401baH
	DD	0301bcH
	DD	0401c4H
	DD	0902c6H
	DD	01202c2H
	DD	0201d1H
	DD	0101d6H
	DD	03737e6H
	DD	03837eaH
	DD	015H
	DD	01bH
	DD	010123H
	DD	010127H
	DD	010131H
	DD	035H
	DD	010036H
	DD	010136H
	DD	050136H
	DD	017133fH
	DD	020044H
	DD	049H
	DD	020057H
	DD	010059H
	DD	01005bH
	DD	01015bH
	DD	0211e42H
	DD	0282544H
	DD	0161H
	DD	063H
	DD	05016bH
	DD	01016eH
	DD	0140b6aH
	DD	030170H
	DD	020075H
	DD	0a0171H
	DD	04017cH
	DD	0433e74H
	DD	030080H
	DD	030082H
	DD	020083H
	DD	0185H
	DD	010185H
	DD	0a0186H
	DD	010188H
	DD	04018aH
	DD	07018aH
	DD	01018cH
	DD	06018cH
	DD	04018eH
	DD	04018fH
	DD	080188H
	DD	090188H
	DD	030190H
	DD	020191H
	DD	020290H
	DD	010192H
	DD	010197H
	DD	050194H
	DD	02029fH
	DD	090198H
	DD	0141491H
	DD	0203a0H
	DD	0501a1H
	DD	0401a3H
	DD	0301a5H
	DD	0301a6H
	DD	0203a7H
	DD	0101aaH
	DD	0601a9H
	DD	0202adH
	DD	0d01aaH
	DD	0301b1H
	DD	0c02b5H
	DD	0501b8H
	DD	0101beH
	DD	0453ca5H
	DD	04e45a3H
	DD	0645ca8H
	DD	0102c3H
	DD	0501c2H
	DD	0c02c1H
	DD	0101caH
	DD	0d02c9H
	DD	01202c4H
	DD	01503c8H
	DD	01202ccH
	DD	01806c9H
	DD	01a09caH
	DD	01a0accH
	DD	0101d3H
	DD	0601d5H
	DD	0801d2H
	DD	0f03d2H
	DD	01305d0H
	DD	01206d3H
	DD	02717cdH
	DD	02b1bcdH
	DD	02316d3H
	DD	02b2bc1H
	DD	03325d1H
	DD	03c2dd1H
	DD	03536d0H
	DD	03738d4H
	DD	03737deH
	DD	03738d8H
	DD	03738dbH
	DD	03737e1H
	DD	03737e3H
	DD	03d37e3H
	DD	03b37e7H
	DD	03c37e5H
	DD	03f38e0H
	DD	03737e9H
	DD	03737eaH
	DD	03937e8H
	DD	0483ed0H
	DD	04c3fd5H
	DD	04438d8H
	DD	0433adcH
	DD	04038deH
	DD	0685dddH
	DD	06e62d3H
	DD	0786ed5H
	DD	0766bdfH
	DD	0776cdeH
	DD	0796edfH
_PalHelpPreviousButton DD 0100H
	DB	00H
	ORG $+3
	DD	FLAT:_ColorsHelpPreviousButton
_bmHelpPreviousButton DW 064H
	DW	01eH
	DW	064H
	DW	08H
	DD	FLAT:_acHelpPreviousButton
	DD	FLAT:_PalHelpPreviousButton
	ORG $+4
_acHelpPreviousButton DB 00H
	DB	00H
	DB	09cH
	DB	0cfH
	DB	0fcH
	DB	0ffH
	DB	010H
	DB	010H
	DB	010H
	DB	010H
	DB	010H
	DB	010H
	DB	010H
	DB	010H
	DB	010H
	DB	010H
	DB	010H
	DB	010H
	DB	010H
	DB	010H
	DB	010H
	DB	010H
	DB	010H
	DB	010H
	DB	010H
	DB	010H
	DB	010H
	DB	010H
	DB	010H
	DB	010H
	DB	010H
	DB	010H
	DB	010H
	DB	010H
	DB	010H
	DB	010H
	DB	010H
	DB	010H
	DB	010H
	DB	010H
	DB	010H
	DB	010H
	DB	010H
	DB	010H
	DB	010H
	DB	010H
	DB	010H
	DB	010H
	DB	010H
	DB	010H
	DB	010H
	DB	010H
	DB	010H
	DB	010H
	DB	010H
	DB	010H
	DB	010H
	DB	010H
	DB	010H
	DB	010H
	DB	010H
	DB	010H
	DB	010H
	DB	010H
	DB	010H
	DB	010H
	DB	010H
	DB	010H
	DB	010H
	DB	010H
	DB	010H
	DB	010H
	DB	010H
	DB	010H
	DB	010H
	DB	010H
	DB	010H
	DB	010H
	DB	010H
	DB	010H
	DB	010H
	DB	010H
	DB	010H
	DB	010H
	DB	010H
	DB	010H
	DB	010H
	DB	010H
	DB	010H
	DB	010H
	DB	010H
	DB	010H
	DB	010H
	DB	0feH
	DB	0fbH
	DB	0ceH
	DB	094H
	DB	00H
	DB	00H
	DB	00H
	DB	00H
	DB	0a6H
	DB	0fdH
	DB	0f6H
	DB	0e1H
	DB	0d8H
	DB	0fH
	DB	0fH
	DB	0fH
	DB	0fH
	DB	0fH
	DB	0fH
	DB	0fH
	DB	0fH
	DB	0fH
	DB	0fH
	DB	0fH
	DB	0fH
	DB	0fH
	DB	0fH
	DB	0fH
	DB	0fH
	DB	0fH
	DB	0fH
	DB	0fH
	DB	0fH
	DB	0fH
	DB	0fH
	DB	0fH
	DB	0fH
	DB	0fH
	DB	0fH
	DB	0fH
	DB	0fH
	DB	0fH
	DB	0fH
	DB	0fH
	DB	0fH
	DB	0fH
	DB	0fH
	DB	0fH
	DB	0fH
	DB	0fH
	DB	0fH
	DB	0fH
	DB	0fH
	DB	0fH
	DB	0fH
	DB	0fH
	DB	0fH
	DB	0fH
	DB	0fH
	DB	0fH
	DB	0fH
	DB	0fH
	DB	0fH
	DB	0fH
	DB	0fH
	DB	0fH
	DB	0fH
	DB	0fH
	DB	0fH
	DB	0fH
	DB	0fH
	DB	0fH
	DB	0fH
	DB	0fH
	DB	0fH
	DB	0fH
	DB	0fH
	DB	0fH
	DB	0fH
	DB	0fH
	DB	0fH
	DB	0fH
	DB	0fH
	DB	0fH
	DB	0fH
	DB	0fH
	DB	0fH
	DB	0fH
	DB	0fH
	DB	0fH
	DB	0fH
	DB	0fH
	DB	0fH
	DB	0fH
	DB	0fH
	DB	0fH
	DB	0fH
	DB	0fH
	DB	0fH
	DB	0fH
	DB	0d6H
	DB	0d9H
	DB	0e2H
	DB	0e6H
	DB	0a1H
	DB	00H
	DB	00H
	DB	09bH
	DB	0faH
	DB	0e5H
	DB	09H
	DB	09H
	DB	09H
	DB	09H
	DB	09H
	DB	09H
	DB	09H
	DB	09H
	DB	09H
	DB	09H
	DB	09H
	DB	09H
	DB	09H
	DB	09H
	DB	09H
	DB	09H
	DB	09H
	DB	09H
	DB	09H
	DB	09H
	DB	09H
	DB	09H
	DB	09H
	DB	09H
	DB	09H
	DB	09H
	DB	09H
	DB	09H
	DB	09H
	DB	09H
	DB	09H
	DB	09H
	DB	09H
	DB	09H
	DB	09H
	DB	09H
	DB	09H
	DB	09H
	DB	09H
	DB	09H
	DB	09H
	DB	09H
	DB	09H
	DB	09H
	DB	09H
	DB	09H
	DB	09H
	DB	09H
	DB	09H
	DB	09H
	DB	09H
	DB	086H
	DB	086H
	DB	09H
	DB	09H
	DB	09H
	DB	09H
	DB	09H
	DB	09H
	DB	09H
	DB	09H
	DB	09H
	DB	09H
	DB	09H
	DB	09H
	DB	09H
	DB	09H
	DB	09H
	DB	09H
	DB	09H
	DB	09H
	DB	09H
	DB	09H
	DB	09H
	DB	09H
	DB	09H
	DB	09H
	DB	09H
	DB	09H
	DB	09H
	DB	09H
	DB	09H
	DB	09H
	DB	09H
	DB	09H
	DB	09H
	DB	09H
	DB	09H
	DB	09H
	DB	09H
	DB	09H
	DB	09H
	DB	09H
	DB	0daH
	DB	0d5H
	DB	093H
	DB	00H
	DB	0cdH
	DB	0f7H
	DB	08H
	DB	08H
	DB	08H
	DB	08H
	DB	08H
	DB	08H
	DB	08H
	DB	08H
	DB	08H
	DB	08H
	DB	08H
	DB	08H
	DB	08H
	DB	08H
	DB	08H
	DB	08H
	DB	08H
	DB	08H
	DB	08H
	DB	08H
	DB	08H
	DB	08H
	DB	08H
	DB	08H
	DB	08H
	DB	08H
	DB	08H
	DB	08H
	DB	08H
	DB	08H
	DB	08H
	DB	08H
	DB	08H
	DB	08H
	DB	08H
	DB	08H
	DB	08H
	DB	08H
	DB	08H
	DB	08H
	DB	08H
	DB	08H
	DB	08H
	DB	08H
	DB	08H
	DB	08H
	DB	08H
	DB	08H
	DB	08H
	DB	08H
	DB	08H
	DB	08H
	DB	09fH
	DB	05dH
	DB	0c8H
	DB	08H
	DB	08H
	DB	08H
	DB	08H
	DB	08H
	DB	08H
	DB	08H
	DB	08H
	DB	08H
	DB	08H
	DB	08H
	DB	08H
	DB	08H
	DB	08H
	DB	08H
	DB	08H
	DB	08H
	DB	08H
	DB	08H
	DB	08H
	DB	08H
	DB	08H
	DB	08H
	DB	08H
	DB	08H
	DB	08H
	DB	08H
	DB	08H
	DB	08H
	DB	08H
	DB	08H
	DB	08H
	DB	08H
	DB	08H
	DB	08H
	DB	08H
	DB	08H
	DB	08H
	DB	08H
	DB	08H
	DB	0d7H
	DB	0a4H
	DB	00H
	DB	0f5H
	DB	0e3H
	DB	0aH
	DB	0aH
	DB	0aH
	DB	0aH
	DB	0aH
	DB	0aH
	DB	0aH
	DB	0aH
	DB	0aH
	DB	0aH
	DB	0aH
	DB	0aH
	DB	0aH
	DB	0aH
	DB	0aH
	DB	0aH
	DB	0aH
	DB	0aH
	DB	0aH
	DB	0aH
	DB	0aH
	DB	0aH
	DB	0aH
	DB	0aH
	DB	0aH
	DB	0aH
	DB	0aH
	DB	0aH
	DB	0aH
	DB	0aH
	DB	0aH
	DB	0aH
	DB	0aH
	DB	0aH
	DB	0aH
	DB	0aH
	DB	0aH
	DB	0aH
	DB	0aH
	DB	0aH
	DB	0aH
	DB	0aH
	DB	0aH
	DB	0aH
	DB	0aH
	DB	0aH
	DB	0aH
	DB	0aH
	DB	0aH
	DB	0aH
	DB	0aH
	DB	0bdH
	DB	00H
	DB	05dH
	DB	0caH
	DB	0aH
	DB	0aH
	DB	0aH
	DB	0aH
	DB	0aH
	DB	0aH
	DB	0aH
	DB	0aH
	DB	0aH
	DB	0aH
	DB	0aH
	DB	0aH
	DB	0aH
	DB	0aH
	DB	0aH
	DB	0aH
	DB	0aH
	DB	0aH
	DB	0aH
	DB	0aH
	DB	0aH
	DB	0aH
	DB	0aH
	DB	0aH
	DB	0aH
	DB	0aH
	DB	0aH
	DB	0aH
	DB	0aH
	DB	0aH
	DB	0aH
	DB	0aH
	DB	0aH
	DB	0aH
	DB	0aH
	DB	0aH
	DB	0aH
	DB	0aH
	DB	0aH
	DB	0aH
	DB	0dfH
	DB	0acH
	DB	00H
	DB	0f8H
	DB	0e0H
	DB	0bH
	DB	0bH
	DB	0bH
	DB	0bH
	DB	0bH
	DB	0bH
	DB	0bH
	DB	0bH
	DB	0bH
	DB	0bH
	DB	0bH
	DB	0bH
	DB	0bH
	DB	0bH
	DB	0bH
	DB	0bH
	DB	0bH
	DB	0bH
	DB	0bH
	DB	0bH
	DB	0bH
	DB	0bH
	DB	0bH
	DB	0bH
	DB	0bH
	DB	0bH
	DB	0bH
	DB	0bH
	DB	0bH
	DB	0bH
	DB	0bH
	DB	0bH
	DB	0bH
	DB	0bH
	DB	0bH
	DB	0bH
	DB	0bH
	DB	0bH
	DB	0bH
	DB	0bH
	DB	0bH
	DB	0bH
	DB	0bH
	DB	0bH
	DB	0bH
	DB	0bH
	DB	0bH
	DB	0bH
	DB	0bH
	DB	0bH
	DB	0d2H
	DB	00H
	DB	095H
	DB	0d4H
	DB	0bH
	DB	0bH
	DB	0bH
	DB	0bH
	DB	0bH
	DB	0bH
	DB	0bH
	DB	0bH
	DB	0bH
	DB	0bH
	DB	0bH
	DB	0bH
	DB	0bH
	DB	0bH
	DB	0bH
	DB	0bH
	DB	0bH
	DB	0bH
	DB	0bH
	DB	0bH
	DB	0bH
	DB	0bH
	DB	0bH
	DB	0bH
	DB	0bH
	DB	0bH
	DB	0bH
	DB	0bH
	DB	0bH
	DB	0bH
	DB	0bH
	DB	0bH
	DB	0bH
	DB	0bH
	DB	0bH
	DB	0bH
	DB	0bH
	DB	0bH
	DB	0bH
	DB	0bH
	DB	0bH
	DB	0deH
	DB	0b5H
	DB	00H
	DB	0f9H
	DB	06H
	DB	06H
	DB	06H
	DB	06H
	DB	06H
	DB	06H
	DB	06H
	DB	06H
	DB	06H
	DB	06H
	DB	06H
	DB	06H
	DB	06H
	DB	06H
	DB	06H
	DB	06H
	DB	06H
	DB	06H
	DB	06H
	DB	06H
	DB	06H
	DB	06H
	DB	06H
	DB	06H
	DB	06H
	DB	06H
	DB	06H
	DB	06H
	DB	06H
	DB	06H
	DB	06H
	DB	06H
	DB	06H
	DB	06H
	DB	06H
	DB	06H
	DB	06H
	DB	06H
	DB	06H
	DB	06H
	DB	06H
	DB	06H
	DB	06H
	DB	06H
	DB	06H
	DB	06H
	DB	06H
	DB	06H
	DB	06H
	DB	06H
	DB	06H
	DB	0a5H
	DB	0a2H
	DB	06H
	DB	06H
	DB	06H
	DB	06H
	DB	06H
	DB	06H
	DB	06H
	DB	06H
	DB	06H
	DB	06H
	DB	06H
	DB	06H
	DB	06H
	DB	06H
	DB	06H
	DB	06H
	DB	06H
	DB	06H
	DB	06H
	DB	06H
	DB	06H
	DB	06H
	DB	06H
	DB	06H
	DB	06H
	DB	06H
	DB	06H
	DB	06H
	DB	06H
	DB	06H
	DB	06H
	DB	06H
	DB	06H
	DB	06H
	DB	06H
	DB	06H
	DB	06H
	DB	06H
	DB	06H
	DB	06H
	DB	06H
	DB	06H
	DB	06H
	DB	06H
	DB	0b4H
	DB	00H
	DB	0f1H
	DB	0cH
	DB	0cH
	DB	0cH
	DB	0cH
	DB	0cH
	DB	0c6H
	DB	0aeH
	DB	0bbH
	DB	07cH
	DB	07cH
	DB	085H
	DB	0cH
	DB	0cH
	DB	0cH
	DB	0cH
	DB	0cH
	DB	0cH
	DB	0cH
	DB	0cH
	DB	0cH
	DB	0cH
	DB	0cH
	DB	0cH
	DB	0cH
	DB	0cH
	DB	0cH
	DB	0cH
	DB	0cH
	DB	0cH
	DB	0cH
	DB	0cH
	DB	0cH
	DB	0cH
	DB	0cH
	DB	0cH
	DB	0cH
	DB	0cH
	DB	0cH
	DB	0cH
	DB	0cH
	DB	0cH
	DB	0cH
	DB	0cH
	DB	0cH
	DB	0cH
	DB	0cH
	DB	0cH
	DB	0cH
	DB	0cH
	DB	0cH
	DB	0cH
	DB	085H
	DB	0cH
	DB	0cH
	DB	0cH
	DB	0cH
	DB	0cH
	DB	0cH
	DB	0cH
	DB	0cH
	DB	0cH
	DB	0cH
	DB	0cH
	DB	0cH
	DB	0cH
	DB	0cH
	DB	0cH
	DB	0cH
	DB	0cH
	DB	0cH
	DB	0cH
	DB	0cH
	DB	0cH
	DB	0cH
	DB	0cH
	DB	0cH
	DB	0cH
	DB	0cH
	DB	0cH
	DB	0cH
	DB	0cH
	DB	0cH
	DB	0cH
	DB	0cH
	DB	0cH
	DB	0cH
	DB	0cH
	DB	0cH
	DB	0cH
	DB	0cH
	DB	0cH
	DB	0cH
	DB	0cH
	DB	0cH
	DB	0cH
	DB	0cH
	DB	0cH
	DB	0afH
	DB	00H
	DB	0eeH
	DB	011H
	DB	011H
	DB	011H
	DB	011H
	DB	0c0H
	DB	00H
	DB	00H
	DB	00H
	DB	00H
	DB	00H
	DB	00H
	DB	00H
	DB	097H
	DB	0a7H
	DB	080H
	DB	011H
	DB	011H
	DB	011H
	DB	011H
	DB	011H
	DB	011H
	DB	011H
	DB	011H
	DB	011H
	DB	011H
	DB	011H
	DB	011H
	DB	011H
	DB	011H
	DB	011H
	DB	011H
	DB	011H
	DB	011H
	DB	011H
	DB	011H
	DB	011H
	DB	011H
	DB	011H
	DB	011H
	DB	011H
	DB	011H
	DB	011H
	DB	011H
	DB	011H
	DB	011H
	DB	011H
	DB	011H
	DB	011H
	DB	011H
	DB	0ddH
	DB	080H
	DB	011H
	DB	011H
	DB	011H
	DB	011H
	DB	011H
	DB	011H
	DB	011H
	DB	011H
	DB	011H
	DB	011H
	DB	011H
	DB	011H
	DB	011H
	DB	011H
	DB	011H
	DB	011H
	DB	011H
	DB	011H
	DB	011H
	DB	011H
	DB	011H
	DB	011H
	DB	011H
	DB	011H
	DB	011H
	DB	011H
	DB	011H
	DB	011H
	DB	011H
	DB	011H
	DB	011H
	DB	011H
	DB	011H
	DB	011H
	DB	011H
	DB	011H
	DB	011H
	DB	011H
	DB	011H
	DB	011H
	DB	011H
	DB	011H
	DB	011H
	DB	011H
	DB	011H
	DB	011H
	DB	0b1H
	DB	00H
	DB	0f0H
	DB	013H
	DB	013H
	DB	013H
	DB	013H
	DB	0cbH
	DB	00H
	DB	067H
	DB	071H
	DB	071H
	DB	0c1H
	DB	0a8H
	DB	022H
	DB	00H
	DB	00H
	DB	00H
	DB	05fH
	DB	074H
	DB	013H
	DB	013H
	DB	013H
	DB	013H
	DB	013H
	DB	013H
	DB	013H
	DB	013H
	DB	013H
	DB	013H
	DB	013H
	DB	013H
	DB	013H
	DB	013H
	DB	013H
	DB	013H
	DB	074H
	DB	067H
	DB	0d1H
	DB	013H
	DB	013H
	DB	013H
	DB	013H
	DB	013H
	DB	013H
	DB	013H
	DB	013H
	DB	013H
	DB	013H
	DB	013H
	DB	013H
	DB	0dcH
	DB	05fH
	DB	0a3H
	DB	013H
	DB	013H
	DB	013H
	DB	013H
	DB	013H
	DB	013H
	DB	013H
	DB	013H
	DB	013H
	DB	013H
	DB	013H
	DB	013H
	DB	013H
	DB	013H
	DB	013H
	DB	013H
	DB	013H
	DB	013H
	DB	013H
	DB	013H
	DB	013H
	DB	013H
	DB	013H
	DB	013H
	DB	013H
	DB	013H
	DB	013H
	DB	013H
	DB	013H
	DB	013H
	DB	013H
	DB	013H
	DB	013H
	DB	013H
	DB	013H
	DB	013H
	DB	013H
	DB	013H
	DB	013H
	DB	013H
	DB	013H
	DB	013H
	DB	013H
	DB	013H
	DB	013H
	DB	013H
	DB	0b2H
	DB	00H
	DB	0efH
	DB	014H
	DB	014H
	DB	014H
	DB	014H
	DB	014H
	DB	02fH
	DB	014H
	DB	02fH
	DB	01fH
	DB	01fH
	DB	02dH
	DB	014H
	DB	082H
	DB	075H
	DB	04cH
	DB	00H
	DB	00H
	DB	04cH
	DB	02fH
	DB	014H
	DB	02dH
	DB	072H
	DB	014H
	DB	014H
	DB	014H
	DB	014H
	DB	014H
	DB	014H
	DB	014H
	DB	014H
	DB	014H
	DB	02fH
	DB	068H
	DB	00H
	DB	00H
	DB	00H
	DB	084H
	DB	014H
	DB	02dH
	DB	02dH
	DB	014H
	DB	014H
	DB	014H
	DB	014H
	DB	014H
	DB	014H
	DB	014H
	DB	014H
	DB	0a9H
	DB	00H
	DB	082H
	DB	02dH
	DB	098H
	DB	068H
	DB	014H
	DB	014H
	DB	014H
	DB	014H
	DB	014H
	DB	014H
	DB	014H
	DB	014H
	DB	0c2H
	DB	072H
	DB	04cH
	DB	02dH
	DB	014H
	DB	014H
	DB	014H
	DB	014H
	DB	02fH
	DB	084H
	DB	014H
	DB	014H
	DB	014H
	DB	014H
	DB	014H
	DB	014H
	DB	014H
	DB	014H
	DB	014H
	DB	014H
	DB	014H
	DB	014H
	DB	014H
	DB	014H
	DB	014H
	DB	02fH
	DB	075H
	DB	045H
	DB	00H
	DB	00H
	DB	091H
	DB	02dH
	DB	014H
	DB	014H
	DB	014H
	DB	0b3H
	DB	00H
	DB	0f4H
	DB	01bH
	DB	01bH
	DB	01bH
	DB	01bH
	DB	01bH
	DB	01bH
	DB	01bH
	DB	03dH
	DB	00H
	DB	04aH
	DB	01bH
	DB	01bH
	DB	01bH
	DB	01bH
	DB	01bH
	DB	05cH
	DB	04aH
	DB	00H
	DB	06cH
	DB	01bH
	DB	065H
	DB	00H
	DB	043H
	DB	01bH
	DB	01bH
	DB	01bH
	DB	03dH
	DB	01fH
	DB	00H
	DB	076H
	DB	01bH
	DB	06cH
	DB	00H
	DB	045H
	DB	0c9H
	DB	00H
	DB	03dH
	DB	01bH
	DB	01fH
	DB	01fH
	DB	043H
	DB	01bH
	DB	01bH
	DB	01bH
	DB	01bH
	DB	01bH
	DB	01bH
	DB	05cH
	DB	023H
	DB	023H
	DB	01bH
	DB	083H
	DB	00H
	DB	065H
	DB	01bH
	DB	01bH
	DB	01bH
	DB	01bH
	DB	01bH
	DB	01bH
	DB	01bH
	DB	076H
	DB	01fH
	DB	00H
	DB	00H
	DB	00H
	DB	0c3H
	DB	01bH
	DB	01bH
	DB	01bH
	DB	04aH
	DB	00H
	DB	043H
	DB	01bH
	DB	01bH
	DB	01bH
	DB	01bH
	DB	01bH
	DB	05cH
	DB	01fH
	DB	03dH
	DB	01bH
	DB	01bH
	DB	01bH
	DB	01bH
	DB	01bH
	DB	083H
	DB	01fH
	DB	00H
	DB	00H
	DB	045H
	DB	01fH
	DB	00H
	DB	043H
	DB	01bH
	DB	01bH
	DB	01bH
	DB	0b6H
	DB	00H
	DB	08aH
	DB	01eH
	DB	01eH
	DB	01eH
	DB	01eH
	DB	01eH
	DB	01eH
	DB	01eH
	DB	024H
	DB	00H
	DB	031H
	DB	05bH
	DB	01eH
	DB	01eH
	DB	01eH
	DB	01eH
	DB	01eH
	DB	079H
	DB	00H
	DB	025H
	DB	01eH
	DB	024H
	DB	00H
	DB	041H
	DB	01eH
	DB	058H
	DB	061H
	DB	00H
	DB	061H
	DB	033H
	DB	059H
	DB	079H
	DB	00H
	DB	025H
	DB	05bH
	DB	024H
	DB	00H
	DB	078H
	DB	01eH
	DB	031H
	DB	00H
	DB	031H
	DB	01eH
	DB	01eH
	DB	01eH
	DB	01eH
	DB	01eH
	DB	01eH
	DB	024H
	DB	00H
	DB	07bH
	DB	01eH
	DB	041H
	DB	00H
	DB	099H
	DB	01eH
	DB	01eH
	DB	01eH
	DB	01eH
	DB	01eH
	DB	01eH
	DB	058H
	DB	01fH
	DB	00H
	DB	078H
	DB	059H
	DB	025H
	DB	00H
	DB	07bH
	DB	01eH
	DB	01eH
	DB	024H
	DB	00H
	DB	041H
	DB	01eH
	DB	01eH
	DB	01eH
	DB	01eH
	DB	01eH
	DB	033H
	DB	00H
	DB	033H
	DB	01eH
	DB	01eH
	DB	01eH
	DB	01eH
	DB	05bH
	DB	01fH
	DB	00H
	DB	04dH
	DB	059H
	DB	01eH
	DB	01eH
	DB	041H
	DB	01eH
	DB	01eH
	DB	01eH
	DB	01eH
	DB	0b7H
	DB	00H
	DB	08aH
	DB	019H
	DB	019H
	DB	019H
	DB	019H
	DB	019H
	DB	019H
	DB	019H
	DB	024H
	DB	00H
	DB	03eH
	DB	019H
	DB	019H
	DB	019H
	DB	019H
	DB	058H
	DB	04dH
	DB	00H
	DB	01fH
	DB	020H
	DB	019H
	DB	036H
	DB	00H
	DB	024H
	DB	087H
	DB	01fH
	DB	01fH
	DB	020H
	DB	019H
	DB	019H
	DB	019H
	DB	00H
	DB	00H
	DB	033H
	DB	031H
	DB	00H
	DB	01fH
	DB	087H
	DB	019H
	DB	05aH
	DB	027H
	DB	00H
	DB	020H
	DB	019H
	DB	019H
	DB	019H
	DB	019H
	DB	019H
	DB	01fH
	DB	01fH
	DB	019H
	DB	019H
	DB	020H
	DB	00H
	DB	031H
	DB	019H
	DB	019H
	DB	019H
	DB	019H
	DB	019H
	DB	019H
	DB	02eH
	DB	00H
	DB	033H
	DB	019H
	DB	019H
	DB	036H
	DB	00H
	DB	02eH
	DB	019H
	DB	019H
	DB	04dH
	DB	00H
	DB	020H
	DB	019H
	DB	019H
	DB	019H
	DB	019H
	DB	05aH
	DB	01fH
	DB	00H
	DB	05aH
	DB	019H
	DB	019H
	DB	019H
	DB	019H
	DB	020H
	DB	00H
	DB	024H
	DB	019H
	DB	019H
	DB	019H
	DB	019H
	DB	019H
	DB	019H
	DB	019H
	DB	019H
	DB	019H
	DB	0b7H
	DB	00H
	DB	0f3H
	DB	01cH
	DB	01cH
	DB	01cH
	DB	01cH
	DB	01cH
	DB	01cH
	DB	01cH
	DB	03bH
	DB	00H
	DB	036H
	DB	017H
	DB	020H
	DB	04eH
	DB	01fH
	DB	00H
	DB	00H
	DB	04eH
	DB	012H
	DB	01cH
	DB	01cH
	DB	020H
	DB	00H
	DB	050H
	DB	02eH
	DB	01fH
	DB	012H
	DB	01cH
	DB	01cH
	DB	01cH
	DB	042H
	DB	00H
	DB	00H
	DB	00H
	DB	00H
	DB	01fH
	DB	034H
	DB	01cH
	DB	01cH
	DB	01cH
	DB	034H
	DB	00H
	DB	034H
	DB	01cH
	DB	01cH
	DB	01cH
	DB	01cH
	DB	050H
	DB	00H
	DB	034H
	DB	01cH
	DB	01cH
	DB	034H
	DB	00H
	DB	050H
	DB	01cH
	DB	01cH
	DB	01cH
	DB	01cH
	DB	01cH
	DB	017H
	DB	00H
	DB	025H
	DB	012H
	DB	01cH
	DB	01cH
	DB	01cH
	DB	027H
	DB	00H
	DB	01cH
	DB	01cH
	DB	02eH
	DB	01fH
	DB	017H
	DB	01cH
	DB	01cH
	DB	01cH
	DB	017H
	DB	02eH
	DB	00H
	DB	03bH
	DB	01cH
	DB	01cH
	DB	01cH
	DB	01cH
	DB	01cH
	DB	042H
	DB	00H
	DB	03bH
	DB	01cH
	DB	01cH
	DB	01cH
	DB	01cH
	DB	01cH
	DB	01cH
	DB	01cH
	DB	01cH
	DB	01cH
	DB	0b7H
	DB	00H
	DB	0f2H
	DB	018H
	DB	018H
	DB	018H
	DB	018H
	DB	018H
	DB	021H
	DB	020H
	DB	027H
	DB	00H
	DB	027H
	DB	00H
	DB	00H
	DB	00H
	DB	01fH
	DB	034H
	DB	030H
	DB	018H
	DB	018H
	DB	018H
	DB	018H
	DB	042H
	DB	00H
	DB	027H
	DB	00H
	DB	036H
	DB	018H
	DB	018H
	DB	018H
	DB	018H
	DB	020H
	DB	00H
	DB	00H
	DB	00H
	DB	03bH
	DB	021H
	DB	018H
	DB	018H
	DB	018H
	DB	018H
	DB	018H
	DB	027H
	DB	01fH
	DB	018H
	DB	018H
	DB	018H
	DB	021H
	DB	00H
	DB	025H
	DB	018H
	DB	018H
	DB	018H
	DB	077H
	DB	00H
	DB	020H
	DB	018H
	DB	018H
	DB	018H
	DB	018H
	DB	018H
	DB	036H
	DB	00H
	DB	04eH
	DB	018H
	DB	018H
	DB	018H
	DB	018H
	DB	069H
	DB	00H
	DB	018H
	DB	018H
	DB	025H
	DB	02eH
	DB	018H
	DB	018H
	DB	018H
	DB	030H
	DB	027H
	DB	00H
	DB	00H
	DB	077H
	DB	018H
	DB	018H
	DB	018H
	DB	018H
	DB	018H
	DB	018H
	DB	069H
	DB	00H
	DB	025H
	DB	034H
	DB	021H
	DB	018H
	DB	018H
	DB	018H
	DB	018H
	DB	018H
	DB	018H
	DB	0b7H
	DB	00H
	DB	089H
	DB	016H
	DB	016H
	DB	016H
	DB	016H
	DB	016H
	DB	020H
	DB	00H
	DB	00H
	DB	00H
	DB	023H
	DB	049H
	DB	02aH
	DB	057H
	DB	016H
	DB	016H
	DB	016H
	DB	016H
	DB	016H
	DB	016H
	DB	016H
	DB	020H
	DB	00H
	DB	00H
	DB	032H
	DB	016H
	DB	016H
	DB	016H
	DB	016H
	DB	016H
	DB	029H
	DB	00H
	DB	054H
	DB	016H
	DB	016H
	DB	016H
	DB	016H
	DB	016H
	DB	016H
	DB	016H
	DB	016H
	DB	029H
	DB	00H
	DB	057H
	DB	016H
	DB	016H
	DB	049H
	DB	00H
	DB	02aH
	DB	016H
	DB	016H
	DB	016H
	DB	029H
	DB	00H
	DB	020H
	DB	016H
	DB	016H
	DB	01dH
	DB	057H
	DB	016H
	DB	047H
	DB	00H
	DB	01dH
	DB	016H
	DB	016H
	DB	016H
	DB	016H
	DB	047H
	DB	023H
	DB	016H
	DB	016H
	DB	00H
	DB	032H
	DB	016H
	DB	016H
	DB	01dH
	DB	096H
	DB	00H
	DB	032H
	DB	00H
	DB	020H
	DB	016H
	DB	016H
	DB	016H
	DB	016H
	DB	016H
	DB	016H
	DB	016H
	DB	02aH
	DB	047H
	DB	00H
	DB	00H
	DB	01fH
	DB	049H
	DB	040H
	DB	016H
	DB	016H
	DB	016H
	DB	029H
	DB	00H
	DB	089H
	DB	015H
	DB	015H
	DB	015H
	DB	015H
	DB	015H
	DB	015H
	DB	02bH
	DB	023H
	DB	00H
	DB	02bH
	DB	015H
	DB	015H
	DB	015H
	DB	015H
	DB	015H
	DB	015H
	DB	015H
	DB	015H
	DB	015H
	DB	015H
	DB	02bH
	DB	00H
	DB	00H
	DB	07aH
	DB	015H
	DB	015H
	DB	015H
	DB	015H
	DB	015H
	DB	04bH
	DB	00H
	DB	088H
	DB	015H
	DB	015H
	DB	015H
	DB	015H
	DB	02H
	DB	015H
	DB	015H
	DB	015H
	DB	088H
	DB	00H
	DB	04fH
	DB	015H
	DB	053H
	DB	00H
	DB	023H
	DB	015H
	DB	015H
	DB	015H
	DB	015H
	DB	064H
	DB	00H
	DB	015H
	DB	015H
	DB	053H
	DB	022H
	DB	022H
	DB	015H
	DB	00H
	DB	023H
	DB	015H
	DB	015H
	DB	015H
	DB	015H
	DB	02bH
	DB	00H
	DB	053H
	DB	015H
	DB	015H
	DB	00H
	DB	022H
	DB	02H
	DB	02bH
	DB	023H
	DB	00H
	DB	07aH
	DB	081H
	DB	00H
	DB	073H
	DB	015H
	DB	015H
	DB	015H
	DB	015H
	DB	015H
	DB	015H
	DB	015H
	DB	015H
	DB	015H
	DB	081H
	DB	032H
	DB	064H
	DB	00H
	DB	00H
	DB	073H
	DB	015H
	DB	015H
	DB	04fH
	DB	00H
	DB	0edH
	DB	017H
	DB	017H
	DB	017H
	DB	017H
	DB	017H
	DB	017H
	DB	017H
	DB	026H
	DB	00H
	DB	07fH
	DB	017H
	DB	017H
	DB	017H
	DB	017H
	DB	017H
	DB	017H
	DB	017H
	DB	017H
	DB	017H
	DB	017H
	DB	038H
	DB	00H
	DB	022H
	DB	017H
	DB	017H
	DB	017H
	DB	017H
	DB	017H
	DB	017H
	DB	028H
	DB	00H
	DB	017H
	DB	017H
	DB	017H
	DB	017H
	DB	03fH
	DB	00H
	DB	03fH
	DB	017H
	DB	017H
	DB	017H
	DB	026H
	DB	022H
	DB	035H
	DB	00H
	DB	00H
	DB	03fH
	DB	017H
	DB	017H
	DB	017H
	DB	017H
	DB	028H
	DB	00H
	DB	035H
	DB	04bH
	DB	00H
	DB	022H
	DB	038H
	DB	017H
	DB	00H
	DB	028H
	DB	017H
	DB	017H
	DB	017H
	DB	038H
	DB	022H
	DB	026H
	DB	0dbH
	DB	017H
	DB	017H
	DB	022H
	DB	090H
	DB	0baH
	DB	00H
	DB	00H
	DB	03fH
	DB	017H
	DB	038H
	DB	00H
	DB	048H
	DB	017H
	DB	017H
	DB	07fH
	DB	0d3H
	DB	038H
	DB	04bH
	DB	035H
	DB	017H
	DB	017H
	DB	017H
	DB	017H
	DB	017H
	DB	06fH
	DB	00H
	DB	048H
	DB	017H
	DB	017H
	DB	0b0H
	DB	00H
	DB	0ecH
	DB	01dH
	DB	01dH
	DB	01dH
	DB	01dH
	DB	01dH
	DB	01dH
	DB	01dH
	DB	028H
	DB	00H
	DB	052H
	DB	01dH
	DB	01dH
	DB	01dH
	DB	01dH
	DB	01dH
	DB	01dH
	DB	01dH
	DB	01dH
	DB	01dH
	DB	01dH
	DB	021H
	DB	00H
	DB	028H
	DB	01dH
	DB	01dH
	DB	01dH
	DB	01dH
	DB	01dH
	DB	01dH
	DB	03cH
	DB	00H
	DB	051H
	DB	01dH
	DB	021H
	DB	066H
	DB	00H
	DB	039H
	DB	021H
	DB	01dH
	DB	01dH
	DB	01dH
	DB	051H
	DB	00H
	DB	00H
	DB	00H
	DB	052H
	DB	01dH
	DB	01dH
	DB	01dH
	DB	01dH
	DB	01dH
	DB	06bH
	DB	00H
	DB	00H
	DB	00H
	DB	026H
	DB	042H
	DB	01dH
	DB	01dH
	DB	026H
	DB	03aH
	DB	07dH
	DB	07dH
	DB	03cH
	DB	00H
	DB	03aH
	DB	0ccH
	DB	01dH
	DB	01dH
	DB	01dH
	DB	06bH
	DB	00H
	DB	00H
	DB	00H
	DB	052H
	DB	01dH
	DB	01dH
	DB	01dH
	DB	066H
	DB	00H
	DB	03aH
	DB	026H
	DB	00H
	DB	051H
	DB	03cH
	DB	00H
	DB	00H
	DB	06eH
	DB	06eH
	DB	028H
	DB	028H
	DB	03aH
	DB	00H
	DB	00H
	DB	0c5H
	DB	01dH
	DB	01dH
	DB	03cH
	DB	00H
	DB	0e9H
	DB	01aH
	DB	01aH
	DB	01aH
	DB	01aH
	DB	01aH
	DB	01aH
	DB	01aH
	DB	03eH
	DB	00H
	DB	039H
	DB	01aH
	DB	01aH
	DB	01aH
	DB	01aH
	DB	01aH
	DB	01aH
	DB	01aH
	DB	01aH
	DB	01aH
	DB	01aH
	DB	02cH
	DB	00H
	DB	00H
	DB	02cH
	DB	01aH
	DB	01aH
	DB	01aH
	DB	01aH
	DB	01aH
	DB	02cH
	DB	044H
	DB	00H
	DB	00H
	DB	00H
	DB	00H
	DB	05eH
	DB	036H
	DB	01aH
	DB	01aH
	DB	01aH
	DB	01aH
	DB	01aH
	DB	046H
	DB	00H
	DB	06aH
	DB	01aH
	DB	01aH
	DB	01aH
	DB	01aH
	DB	01aH
	DB	01aH
	DB	02bH
	DB	039H
	DB	044H
	DB	0b9H
	DB	01aH
	DB	01aH
	DB	01aH
	DB	01aH
	DB	03eH
	DB	00H
	DB	00H
	DB	00H
	DB	00H
	DB	06dH
	DB	02cH
	DB	01aH
	DB	01aH
	DB	01aH
	DB	01aH
	DB	037H
	DB	044H
	DB	046H
	DB	036H
	DB	01aH
	DB	01aH
	DB	01aH
	DB	01aH
	DB	02cH
	DB	046H
	DB	00H
	DB	05eH
	DB	03eH
	DB	01aH
	DB	02bH
	DB	09eH
	DB	00H
	DB	00H
	DB	00H
	DB	00H
	DB	00H
	DB	039H
	DB	06aH
	DB	036H
	DB	01aH
	DB	01aH
	DB	01aH
	DB	0adH
	DB	00H
	DB	0ebH
	DB	012H
	DB	012H
	DB	012H
	DB	012H
	DB	012H
	DB	012H
	DB	012H
	DB	012H
	DB	02aH
	DB	056H
	DB	012H
	DB	012H
	DB	012H
	DB	012H
	DB	012H
	DB	012H
	DB	012H
	DB	012H
	DB	012H
	DB	012H
	DB	012H
	DB	02aH
	DB	056H
	DB	012H
	DB	012H
	DB	012H
	DB	012H
	DB	012H
	DB	012H
	DB	012H
	DB	01H
	DB	02aH
	DB	09dH
	DB	060H
	DB	0aaH
	DB	01H
	DB	012H
	DB	012H
	DB	012H
	DB	012H
	DB	012H
	DB	012H
	DB	012H
	DB	035H
	DB	012H
	DB	012H
	DB	012H
	DB	012H
	DB	012H
	DB	012H
	DB	012H
	DB	012H
	DB	01H
	DB	012H
	DB	012H
	DB	012H
	DB	012H
	DB	012H
	DB	012H
	DB	012H
	DB	035H
	DB	029H
	DB	02aH
	DB	012H
	DB	012H
	DB	012H
	DB	012H
	DB	012H
	DB	012H
	DB	012H
	DB	012H
	DB	012H
	DB	012H
	DB	012H
	DB	012H
	DB	012H
	DB	012H
	DB	012H
	DB	012H
	DB	012H
	DB	012H
	DB	012H
	DB	012H
	DB	012H
	DB	012H
	DB	012H
	DB	012H
	DB	012H
	DB	012H
	DB	012H
	DB	012H
	DB	012H
	DB	012H
	DB	012H
	DB	012H
	DB	012H
	DB	012H
	DB	0abH
	DB	00H
	DB	0eaH
	DB	02H
	DB	02H
	DB	02H
	DB	02H
	DB	02H
	DB	02H
	DB	02H
	DB	02H
	DB	02H
	DB	02H
	DB	02H
	DB	02H
	DB	02H
	DB	02H
	DB	02H
	DB	02H
	DB	02H
	DB	02H
	DB	02H
	DB	02H
	DB	02H
	DB	02H
	DB	02H
	DB	02H
	DB	02H
	DB	02H
	DB	02H
	DB	02H
	DB	02H
	DB	02H
	DB	02H
	DB	02H
	DB	02H
	DB	02H
	DB	02H
	DB	02H
	DB	02H
	DB	02H
	DB	02H
	DB	02H
	DB	02H
	DB	02H
	DB	02H
	DB	02H
	DB	02H
	DB	02H
	DB	02H
	DB	02H
	DB	02H
	DB	02H
	DB	02H
	DB	02H
	DB	02H
	DB	02H
	DB	02H
	DB	02H
	DB	02H
	DB	02H
	DB	02H
	DB	02H
	DB	02H
	DB	02H
	DB	02H
	DB	02H
	DB	02H
	DB	02H
	DB	02H
	DB	02H
	DB	02H
	DB	02H
	DB	02H
	DB	02H
	DB	02H
	DB	02H
	DB	02H
	DB	02H
	DB	02H
	DB	02H
	DB	02H
	DB	02H
	DB	02H
	DB	02H
	DB	02H
	DB	02H
	DB	02H
	DB	02H
	DB	02H
	DB	02H
	DB	02H
	DB	02H
	DB	02H
	DB	02H
	DB	02H
	DB	02H
	DB	02H
	DB	02H
	DB	02H
	DB	0a9H
	DB	00H
	DB	0e8H
	DB	01H
	DB	01H
	DB	01H
	DB	01H
	DB	01H
	DB	01H
	DB	01H
	DB	01H
	DB	01H
	DB	01H
	DB	01H
	DB	01H
	DB	01H
	DB	01H
	DB	01H
	DB	01H
	DB	01H
	DB	01H
	DB	01H
	DB	01H
	DB	01H
	DB	01H
	DB	01H
	DB	01H
	DB	01H
	DB	01H
	DB	01H
	DB	01H
	DB	01H
	DB	01H
	DB	01H
	DB	01H
	DB	01H
	DB	01H
	DB	01H
	DB	01H
	DB	01H
	DB	01H
	DB	01H
	DB	01H
	DB	01H
	DB	01H
	DB	01H
	DB	01H
	DB	01H
	DB	01H
	DB	01H
	DB	01H
	DB	01H
	DB	01H
	DB	01H
	DB	01H
	DB	01H
	DB	01H
	DB	01H
	DB	01H
	DB	01H
	DB	01H
	DB	01H
	DB	01H
	DB	01H
	DB	01H
	DB	01H
	DB	01H
	DB	01H
	DB	01H
	DB	01H
	DB	01H
	DB	01H
	DB	01H
	DB	01H
	DB	01H
	DB	01H
	DB	01H
	DB	01H
	DB	01H
	DB	01H
	DB	01H
	DB	01H
	DB	01H
	DB	01H
	DB	01H
	DB	01H
	DB	01H
	DB	01H
	DB	01H
	DB	01H
	DB	01H
	DB	01H
	DB	01H
	DB	01H
	DB	01H
	DB	01H
	DB	01H
	DB	01H
	DB	01H
	DB	01H
	DB	06fH
	DB	00H
	DB	0e7H
	DB	0d0H
	DB	05H
	DB	05H
	DB	05H
	DB	05H
	DB	05H
	DB	05H
	DB	05H
	DB	05H
	DB	05H
	DB	05H
	DB	05H
	DB	05H
	DB	05H
	DB	05H
	DB	05H
	DB	05H
	DB	05H
	DB	05H
	DB	05H
	DB	05H
	DB	05H
	DB	05H
	DB	05H
	DB	05H
	DB	05H
	DB	05H
	DB	05H
	DB	05H
	DB	05H
	DB	05H
	DB	05H
	DB	05H
	DB	05H
	DB	05H
	DB	05H
	DB	05H
	DB	05H
	DB	05H
	DB	05H
	DB	05H
	DB	05H
	DB	05H
	DB	05H
	DB	05H
	DB	05H
	DB	05H
	DB	05H
	DB	05H
	DB	05H
	DB	05H
	DB	05H
	DB	05H
	DB	05H
	DB	05H
	DB	05H
	DB	05H
	DB	05H
	DB	05H
	DB	05H
	DB	05H
	DB	05H
	DB	05H
	DB	05H
	DB	05H
	DB	05H
	DB	05H
	DB	05H
	DB	05H
	DB	05H
	DB	05H
	DB	05H
	DB	05H
	DB	05H
	DB	05H
	DB	05H
	DB	05H
	DB	05H
	DB	05H
	DB	05H
	DB	05H
	DB	05H
	DB	05H
	DB	05H
	DB	05H
	DB	05H
	DB	05H
	DB	05H
	DB	05H
	DB	05H
	DB	05H
	DB	05H
	DB	05H
	DB	05H
	DB	05H
	DB	05H
	DB	056H
	DB	06dH
	DB	00H
	DB	0e4H
	DB	03H
	DB	04H
	DB	04H
	DB	04H
	DB	04H
	DB	04H
	DB	04H
	DB	04H
	DB	04H
	DB	04H
	DB	04H
	DB	04H
	DB	04H
	DB	04H
	DB	04H
	DB	04H
	DB	04H
	DB	04H
	DB	04H
	DB	04H
	DB	04H
	DB	04H
	DB	04H
	DB	04H
	DB	04H
	DB	04H
	DB	04H
	DB	04H
	DB	04H
	DB	04H
	DB	04H
	DB	04H
	DB	04H
	DB	04H
	DB	04H
	DB	04H
	DB	04H
	DB	04H
	DB	04H
	DB	04H
	DB	04H
	DB	04H
	DB	04H
	DB	04H
	DB	04H
	DB	04H
	DB	04H
	DB	04H
	DB	04H
	DB	04H
	DB	04H
	DB	04H
	DB	04H
	DB	04H
	DB	04H
	DB	04H
	DB	04H
	DB	04H
	DB	04H
	DB	04H
	DB	04H
	DB	04H
	DB	04H
	DB	04H
	DB	04H
	DB	04H
	DB	04H
	DB	04H
	DB	04H
	DB	04H
	DB	04H
	DB	04H
	DB	04H
	DB	04H
	DB	04H
	DB	04H
	DB	04H
	DB	04H
	DB	04H
	DB	04H
	DB	04H
	DB	04H
	DB	04H
	DB	04H
	DB	04H
	DB	04H
	DB	04H
	DB	04H
	DB	04H
	DB	04H
	DB	04H
	DB	04H
	DB	04H
	DB	04H
	DB	04H
	DB	04H
	DB	055H
	DB	0a0H
	DB	00H
	DB	0beH
	DB	0eH
	DB	03H
	DB	03H
	DB	03H
	DB	03H
	DB	03H
	DB	03H
	DB	03H
	DB	03H
	DB	03H
	DB	03H
	DB	03H
	DB	03H
	DB	03H
	DB	03H
	DB	03H
	DB	03H
	DB	03H
	DB	03H
	DB	03H
	DB	03H
	DB	03H
	DB	03H
	DB	03H
	DB	03H
	DB	03H
	DB	03H
	DB	03H
	DB	03H
	DB	03H
	DB	03H
	DB	03H
	DB	03H
	DB	03H
	DB	03H
	DB	03H
	DB	03H
	DB	03H
	DB	03H
	DB	03H
	DB	03H
	DB	03H
	DB	03H
	DB	03H
	DB	03H
	DB	03H
	DB	03H
	DB	03H
	DB	03H
	DB	03H
	DB	03H
	DB	03H
	DB	03H
	DB	03H
	DB	03H
	DB	03H
	DB	03H
	DB	03H
	DB	03H
	DB	03H
	DB	03H
	DB	03H
	DB	03H
	DB	03H
	DB	03H
	DB	03H
	DB	03H
	DB	03H
	DB	03H
	DB	03H
	DB	03H
	DB	03H
	DB	03H
	DB	03H
	DB	03H
	DB	03H
	DB	03H
	DB	03H
	DB	03H
	DB	03H
	DB	03H
	DB	03H
	DB	03H
	DB	03H
	DB	03H
	DB	03H
	DB	03H
	DB	03H
	DB	03H
	DB	03H
	DB	03H
	DB	03H
	DB	03H
	DB	03H
	DB	03H
	DB	03H
	DB	0b8H
	DB	062H
	DB	00H
	DB	092H
	DB	0c7H
	DB	055H
	DB	07H
	DB	07H
	DB	07H
	DB	07H
	DB	07H
	DB	07H
	DB	07H
	DB	07H
	DB	07H
	DB	07H
	DB	07H
	DB	07H
	DB	07H
	DB	07H
	DB	07H
	DB	07H
	DB	07H
	DB	07H
	DB	07H
	DB	07H
	DB	07H
	DB	07H
	DB	07H
	DB	07H
	DB	07H
	DB	07H
	DB	07H
	DB	07H
	DB	07H
	DB	07H
	DB	07H
	DB	07H
	DB	07H
	DB	07H
	DB	07H
	DB	07H
	DB	07H
	DB	07H
	DB	07H
	DB	07H
	DB	07H
	DB	07H
	DB	07H
	DB	07H
	DB	07H
	DB	07H
	DB	07H
	DB	07H
	DB	07H
	DB	07H
	DB	07H
	DB	07H
	DB	07H
	DB	07H
	DB	07H
	DB	07H
	DB	07H
	DB	07H
	DB	07H
	DB	07H
	DB	07H
	DB	07H
	DB	07H
	DB	07H
	DB	07H
	DB	07H
	DB	07H
	DB	07H
	DB	07H
	DB	07H
	DB	07H
	DB	07H
	DB	07H
	DB	07H
	DB	07H
	DB	07H
	DB	07H
	DB	07H
	DB	07H
	DB	07H
	DB	07H
	DB	07H
	DB	07H
	DB	07H
	DB	07H
	DB	07H
	DB	07H
	DB	07H
	DB	07H
	DB	07H
	DB	07H
	DB	07H
	DB	07H
	DB	0bcH
	DB	048H
	DB	08cH
	DB	00H
	DB	00H
	DB	062H
	DB	070H
	DB	0bfH
	DB	055H
	DB	07eH
	DB	0eH
	DB	0eH
	DB	0eH
	DB	0eH
	DB	0eH
	DB	0eH
	DB	0eH
	DB	0eH
	DB	0eH
	DB	0eH
	DB	0eH
	DB	0eH
	DB	0eH
	DB	0eH
	DB	0eH
	DB	0eH
	DB	0eH
	DB	0eH
	DB	0eH
	DB	0eH
	DB	0eH
	DB	0eH
	DB	0eH
	DB	0eH
	DB	0eH
	DB	0eH
	DB	0eH
	DB	0eH
	DB	0eH
	DB	0eH
	DB	0eH
	DB	0eH
	DB	0eH
	DB	0eH
	DB	0eH
	DB	0eH
	DB	0eH
	DB	0eH
	DB	0eH
	DB	0eH
	DB	0eH
	DB	0eH
	DB	0eH
	DB	0eH
	DB	0eH
	DB	0eH
	DB	0eH
	DB	0eH
	DB	0eH
	DB	0eH
	DB	0eH
	DB	0eH
	DB	0eH
	DB	0eH
	DB	0eH
	DB	0eH
	DB	0eH
	DB	0eH
	DB	0eH
	DB	0eH
	DB	0eH
	DB	0eH
	DB	0eH
	DB	0eH
	DB	0eH
	DB	0eH
	DB	0eH
	DB	0eH
	DB	0eH
	DB	0eH
	DB	0eH
	DB	0eH
	DB	0eH
	DB	0eH
	DB	0eH
	DB	0eH
	DB	0eH
	DB	0eH
	DB	0eH
	DB	0eH
	DB	0eH
	DB	0eH
	DB	0eH
	DB	0eH
	DB	0eH
	DB	0eH
	DB	0eH
	DB	07eH
	DB	0c4H
	DB	070H
	DB	09aH
	DB	08eH
	DB	00H
	DB	00H
	DB	00H
	DB	00H
	DB	08dH
	DB	060H
	DB	063H
	DB	063H
	DB	0dH
	DB	0dH
	DB	0dH
	DB	0dH
	DB	0dH
	DB	0dH
	DB	0dH
	DB	0dH
	DB	0dH
	DB	0dH
	DB	0dH
	DB	0dH
	DB	0dH
	DB	0dH
	DB	0dH
	DB	0dH
	DB	0dH
	DB	0dH
	DB	0dH
	DB	0dH
	DB	0dH
	DB	0dH
	DB	0dH
	DB	0dH
	DB	0dH
	DB	0dH
	DB	0dH
	DB	0dH
	DB	0dH
	DB	0dH
	DB	0dH
	DB	0dH
	DB	0dH
	DB	0dH
	DB	0dH
	DB	0dH
	DB	0dH
	DB	0dH
	DB	0dH
	DB	0dH
	DB	0dH
	DB	0dH
	DB	0dH
	DB	0dH
	DB	0dH
	DB	0dH
	DB	0dH
	DB	0dH
	DB	0dH
	DB	0dH
	DB	0dH
	DB	0dH
	DB	0dH
	DB	0dH
	DB	0dH
	DB	0dH
	DB	0dH
	DB	0dH
	DB	0dH
	DB	0dH
	DB	0dH
	DB	0dH
	DB	0dH
	DB	0dH
	DB	0dH
	DB	0dH
	DB	0dH
	DB	0dH
	DB	0dH
	DB	0dH
	DB	0dH
	DB	0dH
	DB	0dH
	DB	0dH
	DB	0dH
	DB	0dH
	DB	0dH
	DB	0dH
	DB	0dH
	DB	0dH
	DB	0dH
	DB	0dH
	DB	0dH
	DB	0dH
	DB	0dH
	DB	0dH
	DB	0dH
	DB	0dH
	DB	026H
	DB	08fH
	DB	08bH
	DB	00H
	DB	00H
	DB	00H
CONST	ENDS
END
