; Listing generated by Microsoft (R) Optimizing Compiler Version 16.00.40219.01 

	TITLE	C:\DUII\DUII\Graphics\LapHoldTimeButton.c
	.686P
	.XMM
	include listing.inc
	.model	flat

INCLUDELIB LIBCMT
INCLUDELIB OLDNAMES

PUBLIC	_bmLapHoldTimeButton
CONST	SEGMENT
_ColorsLapHoldTimeButton DD 0600f7H
	DD	00H
	DD	0c7c7c8H
	DD	0fcfdfcH
	DD	0b7b7b7H
	DD	0a8a8a8H
	DD	0767676H
	DD	0969797H
	DD	0878788H
	DD	0d3d4d3H
	DD	08498d8H
	DD	0e6e7e7H
	DD	07689c8H
	DD	0657ab6H
	DD	0556aa6H
	DD	0455787H
	DD	0263559H
	DD	0686969H
	DD	0f0H
	DD	06377aaH
	DD	0394a76H
	DD	04758a6H
	DD	0373738H
	DD	090909H
	DD	0565757H
	DD	0475997H
	DD	07c92d5H
	DD	06c82baH
	DD	05c72a6H
	DD	0788bd3H
	DD	034446aH
	DD	09d9da1H
	DD	02a3865H
	DD	0546899H
	DD	06c83c4H
	DD	0262938H
	DD	06678c4H
	DD	0181919H
	DD	02c2c2cH
	DD	0464647H
	DD	05769b6H
	DD	01a2557H
	DD	0384688H
	DD	0293577H
	DD	0394796H
	DD	0141b56H
	DD	04d6297H
	DD	040517H
	DD	094a6e7H
	DD	0131948H
	DD	05c73b5H
	DD	01b2566H
	DD	07c91cbH
	DD	0899ce2H
	DD	0d7d9e5H
	DD	0d1447H
	DD	08ca2e3H
	DD	0676a76H
	DD	040627H
	DD	07386bbH
	DD	0b7b9c3H
	DD	0e7eaf4H
	DD	045547aH
	DD	02c3685H
	DD	0151929H
	DD	0222a69H
	DD	0565a67H
	DD	0353946H
	DD	0232c75H
	DD	0777a84H
	DD	0cdd1d5H
	DD	04d64a7H
	DD	0222223H
	DD	0dce2e2H
	DD	01a264aH
	DD	03b4457H
	DD	0888b93H
	DD	0adb2b4H
	DD	0c8cbd5H
	DD	0ecf1f3H
	DD	0b123aH
	DD	0c6c7e7H
	DD	080604H
	DD	010bH
	DD	0252b46H
	DD	0161a36H
	DD	049526aH
	DD	0525c76H
	DD	04858b4H
	DD	07d8286H
	DD	0d8daf4H
	DD	0474a56H
	DD	0222d54H
	DD	0313c87H
	DD	0939bbbH
	DD	09da1a4H
	DD	0a9acb5H
	DD	0bcc1c5H
	DD	050a35H
	DD	02b3448H
	DD	03d517bH
	DD	03e5384H
	DD	08d9297H
	DD	08294ccH
	DD	08ca0dcH
	DD	0596278H
	DD	0333c93H
	DD	0596589H
	DD	0414ba7H
	DD	06986d3H
	DD	0b7b9d5H
	DD	0313c79H
	DD	0444d63H
	DD	05c6268H
	DD	05a75c4H
	DD	0b8b7e4H
	DD	02c313aH
	DD	0323956H
	DD	0333d65H
	DD	0444d6bH
	DD	06d7278H
	DD	0404c98H
	DD	04c62b6H
	DD	08789a7H
	DD	09ba3b6H
	DD	0929de5H
	DD	0d1425H
	DD	01c222aH
	DD	03a48a2H
	DD	04c608dH
	DD	05c719dH
	DD	0737a96H
	DD	05769c4H
	DD	0a5a7c3H
	DD	0edf0ecH
	DD	01d2337H
	DD	0a1a19dH
	DD	0b1b2adH
	DD	0a7a7d6H
	DD	0d1d1ceH
	DD	0e3e4ddH
	DD	023252aH
	DD	03d5196H
	DD	06d7589H
	DD	0717bc5H
	DD	08c92a5H
	DD	0a5b7e9H
	DD	0ccd3e7H
	DD	0f1f1ecH
	DD	0d121aH
	DD	0c1753H
	DD	01d2a73H
	DD	081817eH
	DD	06980adH
	DD	08995b5H
	DD	0acb1aeH
	DD	0c1c4beH
	DD	0cad2cbH
	DD	0171e62H
	DD	02e4168H
	DD	06c769bH
	DD	0616eb9H
	DD	0626bc2H
	DD	06779d5H
	DD	08b908dH
	DD	0bdc3bcH
	DD	02d4476H
	DD	04c5259H
	DD	0626b83H
	DD	0717bd4H
	DD	07a90bdH
	DD	0828ddbH
	DD	0abb1c4H
	DD	0a2b7f3H
	DD	0bdc2d7H
	DD	0b8c5e4H
	DD	0dae0dcH
	DD	0dce2f4H
	DD	0f1eef9H
	DD	025282eH
	DD	01e3055H
	DD	03e4246H
	DD	03e54a5H
	DD	0646c99H
	DD	0515da8H
	DD	0525eb1H
	DD	0777ba7H
	DD	07e96e5H
	DD	08688b5H
	DD	09cb1eaH
	DD	0c8c7f3H
	DD	0c6d3f5H
	DD	0f0eeeeH
	DD	090806H
	DD	060c42H
	DD	01d3165H
	DD	04d4e60H
	DD	06b7167H
	DD	07c817fH
	DD	02d4787H
	DD	0626284H
	DD	0626b8cH
	DD	06e7591H
	DD	0717dbbH
	DD	04e5ec4H
	DD	05e7ad2H
	DD	079819aH
	DD	07882a9H
	DD	07888e0H
	DD	0a09f9eH
	DD	0a19db7H
	DD	0b3afb5H
	DD	0969bc7H
	DD	0969ed8H
	DD	09da3c0H
	DD	094a2d5H
	DD	0c2bde6H
	DD	0d0ceccH
	DD	0d0cfd1H
	DD	0e1dee6H
	DD	060b09H
	DD	010110fH
	DD	0262827H
	DD	03d403fH
	DD	0454e71H
	DD	072776fH
	DD	02d3e96H
	DD	03e56b3H
	DD	0505f84H
	DD	0696581H
	DD	06a6e83H
	DD	0627194H
	DD	060709bH
	DD	06d7b9bH
	DD	0424eb0H
	DD	0535cc2H
	DD	04f65c1H
	DD	0807f9aH
	DD	091908eH
	DD	0908e94H
	DD	09ca09aH
	DD	0b0afadH
	DD	0c0bdbeH
	DD	0918bd1H
	DD	0a19fd6H
	DD	0b2addcH
	DD	0858ce2H
	DD	099b3f0H
	DD	0a4a4e4H
	DD	0b7aff3H
	DD	0c6bdceH
	DD	0c0bedbH
	DD	0c1bff8H
	DD	0d0cfe5H
	DD	0e2def1H
	DD	01100e0H
_PalLapHoldTimeButton DD 0100H
	DB	00H
	ORG $+3
	DD	FLAT:_ColorsLapHoldTimeButton
_bmLapHoldTimeButton DW 0b2H
	DW	073H
	DW	0b2H
	DW	08H
	DD	FLAT:_acLapHoldTimeButton
	DD	FLAT:_PalLapHoldTimeButton
	ORG $+4
_acLapHoldTimeButton DB 01H
	DB	01H
	DB	01H
	DB	01H
	DB	01H
	DB	01H
	DB	01H
	DB	01H
	DB	01H
	DB	01H
	DB	01H
	DB	01H
	DB	01H
	DB	01H
	DB	01H
	DB	01H
	DB	01H
	DB	01H
	DB	01H
	DB	01H
	DB	01H
	DB	01H
	DB	01H
	DB	01H
	DB	01H
	DB	01H
	DB	01H
	DB	01H
	DB	01H
	DB	01H
	DB	01H
	DB	01H
	DB	01H
	DB	01H
	DB	01H
	DB	01H
	DB	01H
	DB	01H
	DB	01H
	DB	01H
	DB	01H
	DB	01H
	DB	01H
	DB	01H
	DB	01H
	DB	01H
	DB	01H
	DB	01H
	DB	01H
	DB	01H
	DB	01H
	DB	01H
	DB	01H
	DB	01H
	DB	01H
	DB	01H
	DB	01H
	DB	01H
	DB	01H
	DB	01H
	DB	01H
	DB	01H
	DB	01H
	DB	01H
	DB	01H
	DB	01H
	DB	01H
	DB	01H
	DB	01H
	DB	01H
	DB	01H
	DB	01H
	DB	01H
	DB	01H
	DB	01H
	DB	01H
	DB	01H
	DB	01H
	DB	01H
	DB	01H
	DB	01H
	DB	01H
	DB	01H
	DB	01H
	DB	01H
	DB	01H
	DB	01H
	DB	01H
	DB	01H
	DB	01H
	DB	01H
	DB	01H
	DB	01H
	DB	01H
	DB	01H
	DB	01H
	DB	01H
	DB	01H
	DB	01H
	DB	01H
	DB	01H
	DB	01H
	DB	01H
	DB	01H
	DB	01H
	DB	01H
	DB	01H
	DB	01H
	DB	01H
	DB	01H
	DB	01H
	DB	01H
	DB	01H
	DB	01H
	DB	01H
	DB	01H
	DB	01H
	DB	01H
	DB	01H
	DB	01H
	DB	01H
	DB	01H
	DB	01H
	DB	01H
	DB	01H
	DB	01H
	DB	01H
	DB	01H
	DB	01H
	DB	01H
	DB	01H
	DB	01H
	DB	01H
	DB	01H
	DB	01H
	DB	01H
	DB	01H
	DB	01H
	DB	01H
	DB	01H
	DB	01H
	DB	01H
	DB	01H
	DB	01H
	DB	01H
	DB	01H
	DB	01H
	DB	01H
	DB	01H
	DB	01H
	DB	01H
	DB	01H
	DB	01H
	DB	01H
	DB	01H
	DB	01H
	DB	01H
	DB	01H
	DB	01H
	DB	01H
	DB	01H
	DB	01H
	DB	01H
	DB	01H
	DB	01H
	DB	01H
	DB	01H
	DB	01H
	DB	01H
	DB	01H
	DB	01H
	DB	01H
	DB	01H
	DB	01H
	DB	01H
	DB	01H
	DB	01H
	DB	01H
	DB	01H
	DB	01H
	DB	01H
	DB	01H
	DB	01H
	DB	01H
	DB	01H
	DB	01H
	DB	01H
	DB	01H
	DB	01H
	DB	01H
	DB	01H
	DB	01H
	DB	01H
	DB	01H
	DB	01H
	DB	01H
	DB	01H
	DB	01H
	DB	01H
	DB	01H
	DB	01H
	DB	01H
	DB	01H
	DB	01H
	DB	01H
	DB	01H
	DB	01H
	DB	01H
	DB	01H
	DB	01H
	DB	01H
	DB	01H
	DB	01H
	DB	01H
	DB	01H
	DB	01H
	DB	01H
	DB	01H
	DB	01H
	DB	01H
	DB	01H
	DB	01H
	DB	01H
	DB	01H
	DB	01H
	DB	01H
	DB	01H
	DB	01H
	DB	01H
	DB	01H
	DB	01H
	DB	01H
	DB	01H
	DB	01H
	DB	01H
	DB	01H
	DB	01H
	DB	01H
	DB	01H
	DB	01H
	DB	01H
	DB	01H
	DB	01H
	DB	01H
	DB	01H
	DB	01H
	DB	01H
	DB	01H
	DB	01H
	DB	01H
	DB	01H
	DB	01H
	DB	01H
	DB	01H
	DB	01H
	DB	01H
	DB	01H
	DB	01H
	DB	01H
	DB	01H
	DB	01H
	DB	01H
	DB	01H
	DB	01H
	DB	01H
	DB	01H
	DB	01H
	DB	01H
	DB	01H
	DB	01H
	DB	01H
	DB	01H
	DB	01H
	DB	01H
	DB	01H
	DB	01H
	DB	01H
	DB	01H
	DB	01H
	DB	01H
	DB	01H
	DB	01H
	DB	01H
	DB	01H
	DB	01H
	DB	01H
	DB	01H
	DB	01H
	DB	01H
	DB	01H
	DB	01H
	DB	01H
	DB	01H
	DB	01H
	DB	01H
	DB	01H
	DB	01H
	DB	01H
	DB	01H
	DB	01H
	DB	01H
	DB	01H
	DB	01H
	DB	01H
	DB	01H
	DB	01H
	DB	01H
	DB	01H
	DB	01H
	DB	01H
	DB	01H
	DB	01H
	DB	01H
	DB	01H
	DB	01H
	DB	01H
	DB	01H
	DB	01H
	DB	01H
	DB	01H
	DB	01H
	DB	01H
	DB	01H
	DB	01H
	DB	01H
	DB	01H
	DB	01H
	DB	01H
	DB	01H
	DB	01H
	DB	01H
	DB	01H
	DB	01H
	DB	01H
	DB	01H
	DB	01H
	DB	01H
	DB	01H
	DB	01H
	DB	01H
	DB	01H
	DB	01H
	DB	01H
	DB	01H
	DB	01H
	DB	01H
	DB	01H
	DB	01H
	DB	01H
	DB	01H
	DB	01H
	DB	01H
	DB	01H
	DB	01H
	DB	01H
	DB	01H
	DB	01H
	DB	01H
	DB	01H
	DB	01H
	DB	01H
	DB	01H
	DB	01H
	DB	01H
	DB	01H
	DB	01H
	DB	01H
	DB	01H
	DB	01H
	DB	01H
	DB	01H
	DB	01H
	DB	01H
	DB	01H
	DB	01H
	DB	01H
	DB	01H
	DB	01H
	DB	01H
	DB	01H
	DB	01H
	DB	01H
	DB	01H
	DB	01H
	DB	01H
	DB	01H
	DB	01H
	DB	01H
	DB	01H
	DB	01H
	DB	01H
	DB	01H
	DB	01H
	DB	01H
	DB	01H
	DB	01H
	DB	01H
	DB	01H
	DB	01H
	DB	01H
	DB	01H
	DB	01H
	DB	01H
	DB	01H
	DB	01H
	DB	01H
	DB	01H
	DB	01H
	DB	01H
	DB	01H
	DB	01H
	DB	01H
	DB	01H
	DB	01H
	DB	01H
	DB	01H
	DB	01H
	DB	01H
	DB	01H
	DB	01H
	DB	01H
	DB	01H
	DB	01H
	DB	01H
	DB	01H
	DB	01H
	DB	01H
	DB	01H
	DB	01H
	DB	01H
	DB	01H
	DB	01H
	DB	01H
	DB	01H
	DB	01H
	DB	01H
	DB	01H
	DB	01H
	DB	01H
	DB	01H
	DB	01H
	DB	01H
	DB	01H
	DB	01H
	DB	01H
	DB	01H
	DB	01H
	DB	01H
	DB	01H
	DB	01H
	DB	01H
	DB	01H
	DB	01H
	DB	01H
	DB	01H
	DB	01H
	DB	01H
	DB	01H
	DB	01H
	DB	01H
	DB	01H
	DB	01H
	DB	01H
	DB	01H
	DB	01H
	DB	01H
	DB	01H
	DB	01H
	DB	01H
	DB	01H
	DB	01H
	DB	01H
	DB	01H
	DB	01H
	DB	01H
	DB	01H
	DB	01H
	DB	01H
	DB	01H
	DB	01H
	DB	01H
	DB	01H
	DB	01H
	DB	01H
	DB	01H
	DB	01H
	DB	01H
	DB	01H
	DB	01H
	DB	01H
	DB	01H
	DB	01H
	DB	01H
	DB	01H
	DB	01H
	DB	01H
	DB	01H
	DB	01H
	DB	01H
	DB	01H
	DB	01H
	DB	01H
	DB	01H
	DB	01H
	DB	01H
	DB	01H
	DB	01H
	DB	01H
	DB	01H
	DB	01H
	DB	01H
	DB	01H
	DB	01H
	DB	01H
	DB	01H
	DB	01H
	DB	01H
	DB	01H
	DB	01H
	DB	01H
	DB	01H
	DB	01H
	DB	01H
	DB	01H
	DB	01H
	DB	01H
	DB	01H
	DB	01H
	DB	01H
	DB	01H
	DB	01H
	DB	01H
	DB	01H
	DB	01H
	DB	01H
	DB	01H
	DB	01H
	DB	01H
	DB	01H
	DB	01H
	DB	01H
	DB	01H
	DB	01H
	DB	01H
	DB	01H
	DB	01H
	DB	01H
	DB	01H
	DB	01H
	DB	01H
	DB	01H
	DB	01H
	DB	01H
	DB	01H
	DB	01H
	DB	01H
	DB	01H
	DB	01H
	DB	01H
	DB	01H
	DB	01H
	DB	01H
	DB	01H
	DB	01H
	DB	01H
	DB	01H
	DB	01H
	DB	01H
	DB	01H
	DB	01H
	DB	01H
	DB	01H
	DB	01H
	DB	01H
	DB	01H
	DB	01H
	DB	01H
	DB	01H
	DB	01H
	DB	01H
	DB	01H
	DB	01H
	DB	01H
	DB	01H
	DB	01H
	DB	01H
	DB	01H
	DB	01H
	DB	01H
	DB	01H
	DB	01H
	DB	01H
	DB	01H
	DB	01H
	DB	01H
	DB	01H
	DB	01H
	DB	01H
	DB	01H
	DB	01H
	DB	01H
	DB	01H
	DB	01H
	DB	01H
	DB	01H
	DB	01H
	DB	01H
	DB	01H
	DB	01H
	DB	01H
	DB	01H
	DB	01H
	DB	01H
	DB	052H
	DB	0ddH
	DB	0ddH
	DB	052H
	DB	01H
	DB	01H
	DB	01H
	DB	01H
	DB	01H
	DB	01H
	DB	01H
	DB	01H
	DB	01H
	DB	01H
	DB	01H
	DB	01H
	DB	01H
	DB	01H
	DB	01H
	DB	01H
	DB	01H
	DB	01H
	DB	01H
	DB	01H
	DB	01H
	DB	01H
	DB	01H
	DB	01H
	DB	01H
	DB	01H
	DB	01H
	DB	01H
	DB	01H
	DB	01H
	DB	01H
	DB	01H
	DB	01H
	DB	01H
	DB	01H
	DB	01H
	DB	01H
	DB	01H
	DB	01H
	DB	01H
	DB	01H
	DB	01H
	DB	01H
	DB	01H
	DB	01H
	DB	01H
	DB	01H
	DB	01H
	DB	01H
	DB	01H
	DB	01H
	DB	01H
	DB	01H
	DB	01H
	DB	01H
	DB	01H
	DB	01H
	DB	01H
	DB	01H
	DB	01H
	DB	01H
	DB	01H
	DB	01H
	DB	01H
	DB	01H
	DB	01H
	DB	01H
	DB	01H
	DB	01H
	DB	01H
	DB	01H
	DB	01H
	DB	01H
	DB	01H
	DB	01H
	DB	01H
	DB	01H
	DB	01H
	DB	01H
	DB	01H
	DB	01H
	DB	01H
	DB	01H
	DB	01H
	DB	01H
	DB	01H
	DB	01H
	DB	01H
	DB	01H
	DB	01H
	DB	01H
	DB	01H
	DB	01H
	DB	01H
	DB	01H
	DB	01H
	DB	01H
	DB	01H
	DB	01H
	DB	01H
	DB	01H
	DB	01H
	DB	01H
	DB	01H
	DB	01H
	DB	01H
	DB	01H
	DB	01H
	DB	01H
	DB	01H
	DB	01H
	DB	01H
	DB	01H
	DB	01H
	DB	01H
	DB	01H
	DB	01H
	DB	01H
	DB	01H
	DB	01H
	DB	01H
	DB	01H
	DB	01H
	DB	01H
	DB	01H
	DB	01H
	DB	01H
	DB	01H
	DB	01H
	DB	01H
	DB	01H
	DB	01H
	DB	01H
	DB	01H
	DB	01H
	DB	01H
	DB	01H
	DB	01H
	DB	01H
	DB	01H
	DB	01H
	DB	01H
	DB	01H
	DB	01H
	DB	01H
	DB	01H
	DB	01H
	DB	01H
	DB	01H
	DB	01H
	DB	01H
	DB	01H
	DB	01H
	DB	01H
	DB	01H
	DB	01H
	DB	01H
	DB	01H
	DB	01H
	DB	01H
	DB	01H
	DB	01H
	DB	01H
	DB	01H
	DB	01H
	DB	01H
	DB	01H
	DB	01H
	DB	01H
	DB	01H
	DB	01H
	DB	048H
	DB	0c4H
	DB	0c8H
	DB	0a0H
	DB	03bH
	DB	03bH
	DB	021H
	DB	076H
	DB	025H
	DB	01H
	DB	01H
	DB	01H
	DB	01H
	DB	01H
	DB	01H
	DB	01H
	DB	01H
	DB	01H
	DB	01H
	DB	01H
	DB	01H
	DB	01H
	DB	01H
	DB	01H
	DB	01H
	DB	01H
	DB	01H
	DB	01H
	DB	01H
	DB	01H
	DB	01H
	DB	01H
	DB	01H
	DB	01H
	DB	01H
	DB	01H
	DB	01H
	DB	01H
	DB	01H
	DB	01H
	DB	01H
	DB	01H
	DB	01H
	DB	01H
	DB	01H
	DB	01H
	DB	01H
	DB	01H
	DB	01H
	DB	01H
	DB	01H
	DB	01H
	DB	01H
	DB	01H
	DB	01H
	DB	01H
	DB	01H
	DB	01H
	DB	01H
	DB	01H
	DB	01H
	DB	01H
	DB	01H
	DB	01H
	DB	01H
	DB	01H
	DB	01H
	DB	01H
	DB	01H
	DB	01H
	DB	01H
	DB	01H
	DB	01H
	DB	01H
	DB	01H
	DB	01H
	DB	01H
	DB	01H
	DB	01H
	DB	01H
	DB	01H
	DB	01H
	DB	01H
	DB	01H
	DB	01H
	DB	01H
	DB	01H
	DB	01H
	DB	01H
	DB	01H
	DB	01H
	DB	01H
	DB	01H
	DB	01H
	DB	01H
	DB	01H
	DB	01H
	DB	01H
	DB	01H
	DB	01H
	DB	01H
	DB	01H
	DB	01H
	DB	01H
	DB	01H
	DB	01H
	DB	01H
	DB	01H
	DB	01H
	DB	01H
	DB	01H
	DB	01H
	DB	01H
	DB	01H
	DB	01H
	DB	01H
	DB	01H
	DB	01H
	DB	01H
	DB	01H
	DB	01H
	DB	01H
	DB	01H
	DB	01H
	DB	01H
	DB	01H
	DB	01H
	DB	01H
	DB	01H
	DB	01H
	DB	01H
	DB	01H
	DB	01H
	DB	01H
	DB	01H
	DB	01H
	DB	01H
	DB	01H
	DB	01H
	DB	01H
	DB	01H
	DB	01H
	DB	01H
	DB	01H
	DB	01H
	DB	01H
	DB	01H
	DB	01H
	DB	01H
	DB	01H
	DB	01H
	DB	01H
	DB	01H
	DB	01H
	DB	01H
	DB	01H
	DB	01H
	DB	01H
	DB	01H
	DB	01H
	DB	01H
	DB	01H
	DB	01H
	DB	01H
	DB	01H
	DB	01H
	DB	01H
	DB	01H
	DB	01H
	DB	01H
	DB	01H
	DB	01H
	DB	01H
	DB	01H
	DB	01H
	DB	0ddH
	DB	043H
	DB	0a0H
	DB	0d7H
	DB	030H
	DB	030H
	DB	07dH
	DB	0bbH
	DB	0bbH
	DB	06dH
	DB	0cdH
	DB	01cH
	DB	0b3H
	DB	01H
	DB	01H
	DB	01H
	DB	01H
	DB	01H
	DB	01H
	DB	01H
	DB	01H
	DB	01H
	DB	01H
	DB	01H
	DB	01H
	DB	01H
	DB	01H
	DB	01H
	DB	01H
	DB	01H
	DB	01H
	DB	01H
	DB	01H
	DB	01H
	DB	01H
	DB	01H
	DB	01H
	DB	01H
	DB	01H
	DB	01H
	DB	01H
	DB	01H
	DB	01H
	DB	01H
	DB	01H
	DB	01H
	DB	01H
	DB	01H
	DB	01H
	DB	01H
	DB	01H
	DB	01H
	DB	01H
	DB	01H
	DB	01H
	DB	01H
	DB	01H
	DB	01H
	DB	01H
	DB	01H
	DB	01H
	DB	01H
	DB	01H
	DB	01H
	DB	01H
	DB	01H
	DB	01H
	DB	01H
	DB	01H
	DB	01H
	DB	01H
	DB	01H
	DB	01H
	DB	01H
	DB	01H
	DB	01H
	DB	01H
	DB	01H
	DB	01H
	DB	01H
	DB	01H
	DB	01H
	DB	01H
	DB	01H
	DB	01H
	DB	01H
	DB	01H
	DB	01H
	DB	01H
	DB	01H
	DB	01H
	DB	01H
	DB	01H
	DB	01H
	DB	01H
	DB	01H
	DB	01H
	DB	01H
	DB	01H
	DB	01H
	DB	01H
	DB	01H
	DB	01H
	DB	01H
	DB	01H
	DB	01H
	DB	01H
	DB	01H
	DB	01H
	DB	01H
	DB	01H
	DB	01H
	DB	01H
	DB	01H
	DB	01H
	DB	026H
	DB	071H
	DB	06H
	DB	06H
	DB	06H
	DB	06H
	DB	06H
	DB	06H
	DB	06H
	DB	06H
	DB	06H
	DB	06H
	DB	06H
	DB	06H
	DB	06H
	DB	06H
	DB	06H
	DB	06H
	DB	06H
	DB	06H
	DB	06H
	DB	06H
	DB	06H
	DB	06H
	DB	06H
	DB	06H
	DB	06H
	DB	06H
	DB	06H
	DB	06H
	DB	06H
	DB	06H
	DB	06H
	DB	06H
	DB	06H
	DB	06H
	DB	06H
	DB	06H
	DB	06H
	DB	06H
	DB	06H
	DB	06H
	DB	06H
	DB	06H
	DB	06H
	DB	0e1H
	DB	06H
	DB	06H
	DB	06H
	DB	06H
	DB	06H
	DB	06H
	DB	06H
	DB	0e1H
	DB	0e1H
	DB	0e1H
	DB	0e1H
	DB	0e1H
	DB	06H
	DB	06H
	DB	06H
	DB	06H
	DB	078H
	DB	0cfH
	DB	0d5H
	DB	030H
	DB	030H
	DB	038H
	DB	035H
	DB	01aH
	DB	0d0H
	DB	01aH
	DB	06dH
	DB	06dH
	DB	0cdH
	DB	013H
	DB	06H
	DB	0e1H
	DB	06H
	DB	06H
	DB	06H
	DB	06H
	DB	06H
	DB	06H
	DB	06H
	DB	06H
	DB	06H
	DB	06H
	DB	06H
	DB	06H
	DB	06H
	DB	06H
	DB	06H
	DB	06H
	DB	06H
	DB	06H
	DB	06H
	DB	06H
	DB	06H
	DB	06H
	DB	06H
	DB	06H
	DB	06H
	DB	06H
	DB	06H
	DB	06H
	DB	06H
	DB	06H
	DB	06H
	DB	06H
	DB	06H
	DB	06H
	DB	06H
	DB	06H
	DB	06H
	DB	06H
	DB	06H
	DB	06H
	DB	06H
	DB	06H
	DB	06H
	DB	06H
	DB	06H
	DB	06H
	DB	06H
	DB	06H
	DB	06H
	DB	06H
	DB	06H
	DB	06H
	DB	06H
	DB	06H
	DB	06H
	DB	06H
	DB	06H
	DB	06H
	DB	06H
	DB	06H
	DB	06H
	DB	06H
	DB	06H
	DB	06H
	DB	06H
	DB	06H
	DB	06H
	DB	06H
	DB	06H
	DB	06H
	DB	06H
	DB	06H
	DB	06H
	DB	06H
	DB	06H
	DB	06H
	DB	06H
	DB	06H
	DB	06H
	DB	06H
	DB	06H
	DB	0e1H
	DB	05bH
	DB	0ddH
	DB	01H
	DB	01H
	DB	01H
	DB	01H
	DB	01H
	DB	01H
	DB	01H
	DB	01H
	DB	01H
	DB	01H
	DB	01H
	DB	01H
	DB	01H
	DB	01H
	DB	01H
	DB	071H
	DB	0bH
	DB	086H
	DB	0bH
	DB	0bH
	DB	0bH
	DB	0bH
	DB	0bH
	DB	0bH
	DB	0bH
	DB	0bH
	DB	0bH
	DB	0bH
	DB	0bH
	DB	0bH
	DB	0bH
	DB	0bH
	DB	0bH
	DB	0bH
	DB	0bH
	DB	0bH
	DB	0bH
	DB	0bH
	DB	0bH
	DB	0bH
	DB	0bH
	DB	0bH
	DB	0bH
	DB	0bH
	DB	0bH
	DB	0bH
	DB	0bH
	DB	0bH
	DB	0bH
	DB	0bH
	DB	0bH
	DB	0bH
	DB	0bH
	DB	0bH
	DB	0bH
	DB	0bH
	DB	0bH
	DB	0bH
	DB	0bH
	DB	0bH
	DB	0bH
	DB	0bH
	DB	0b1H
	DB	0bfH
	DB	0bfH
	DB	0bfH
	DB	05aH
	DB	05aH
	DB	05aH
	DB	0b1H
	DB	0b1H
	DB	03dH
	DB	03dH
	DB	0b1H
	DB	05aH
	DB	093H
	DB	051H
	DB	0f5H
	DB	0d5H
	DB	07dH
	DB	07dH
	DB	07dH
	DB	07dH
	DB	035H
	DB	035H
	DB	0bbH
	DB	0bbH
	DB	0d0H
	DB	06dH
	DB	0cdH
	DB	072H
	DB	028H
	DB	0afH
	DB	0bH
	DB	0bH
	DB	0bH
	DB	0bH
	DB	0bH
	DB	0bH
	DB	0bH
	DB	0bH
	DB	0bH
	DB	0bH
	DB	0bH
	DB	0bH
	DB	0bH
	DB	0bH
	DB	0bH
	DB	0bH
	DB	0bH
	DB	0bH
	DB	0bH
	DB	0bH
	DB	0bH
	DB	0bH
	DB	0bH
	DB	0bH
	DB	0bH
	DB	0bH
	DB	0bH
	DB	0bH
	DB	0bH
	DB	0bH
	DB	0bH
	DB	0bH
	DB	0bH
	DB	0bH
	DB	0bH
	DB	0bH
	DB	0bH
	DB	0bH
	DB	0bH
	DB	0bH
	DB	0bH
	DB	0bH
	DB	0bH
	DB	0bH
	DB	0bH
	DB	0bH
	DB	0bH
	DB	0bH
	DB	0bH
	DB	0bH
	DB	0bH
	DB	0bH
	DB	0bH
	DB	0bH
	DB	0bH
	DB	0bH
	DB	0bH
	DB	0bH
	DB	0bH
	DB	0bH
	DB	0bH
	DB	0bH
	DB	0bH
	DB	0bH
	DB	0bH
	DB	0bH
	DB	0bH
	DB	0bH
	DB	0bH
	DB	0bH
	DB	0bH
	DB	0bH
	DB	0bH
	DB	0bH
	DB	0bH
	DB	0bH
	DB	0bH
	DB	0bH
	DB	0bH
	DB	0bH
	DB	0bH
	DB	0bH
	DB	0bH
	DB	0bH
	DB	04H
	DB	025H
	DB	01H
	DB	01H
	DB	01H
	DB	01H
	DB	01H
	DB	01H
	DB	01H
	DB	01H
	DB	01H
	DB	01H
	DB	01H
	DB	01H
	DB	01H
	DB	048H
	DB	09H
	DB	049H
	DB	0daH
	DB	0daH
	DB	0daH
	DB	0daH
	DB	0daH
	DB	0daH
	DB	0daH
	DB	0daH
	DB	0daH
	DB	0daH
	DB	0daH
	DB	0daH
	DB	0daH
	DB	0daH
	DB	0daH
	DB	0daH
	DB	0daH
	DB	0daH
	DB	0daH
	DB	0daH
	DB	0daH
	DB	0daH
	DB	0daH
	DB	0daH
	DB	0daH
	DB	0daH
	DB	0daH
	DB	0daH
	DB	0daH
	DB	0daH
	DB	0daH
	DB	0daH
	DB	0daH
	DB	0daH
	DB	0daH
	DB	0daH
	DB	0daH
	DB	0daH
	DB	0daH
	DB	0daH
	DB	09H
	DB	09H
	DB	0daH
	DB	06eH
	DB	030H
	DB	035H
	DB	030H
	DB	0bdH
	DB	0bdH
	DB	0f7H
	DB	0adH
	DB	0adH
	DB	0adH
	DB	092H
	DB	092H
	DB	092H
	DB	092H
	DB	0bdH
	DB	030H
	DB	068H
	DB	035H
	DB	035H
	DB	035H
	DB	07dH
	DB	07dH
	DB	030H
	DB	07dH
	DB	035H
	DB	0bbH
	DB	0d0H
	DB	0a9H
	DB	0a3H
	DB	072H
	DB	072H
	DB	07aH
	DB	05eH
	DB	09H
	DB	0daH
	DB	0daH
	DB	0daH
	DB	0daH
	DB	0daH
	DB	0daH
	DB	0daH
	DB	0daH
	DB	0daH
	DB	0daH
	DB	0daH
	DB	0daH
	DB	0daH
	DB	0daH
	DB	0daH
	DB	0daH
	DB	0daH
	DB	0daH
	DB	0daH
	DB	0daH
	DB	0daH
	DB	0daH
	DB	0daH
	DB	0daH
	DB	0daH
	DB	0daH
	DB	0daH
	DB	0daH
	DB	0daH
	DB	0daH
	DB	0daH
	DB	0daH
	DB	0daH
	DB	0daH
	DB	0daH
	DB	0daH
	DB	0daH
	DB	0daH
	DB	0daH
	DB	0daH
	DB	0daH
	DB	0daH
	DB	0daH
	DB	0daH
	DB	0daH
	DB	0daH
	DB	0daH
	DB	0daH
	DB	0daH
	DB	0daH
	DB	0daH
	DB	0daH
	DB	0daH
	DB	0daH
	DB	0daH
	DB	0daH
	DB	0daH
	DB	0daH
	DB	0daH
	DB	0daH
	DB	0daH
	DB	0daH
	DB	0daH
	DB	0daH
	DB	0daH
	DB	0daH
	DB	0daH
	DB	0daH
	DB	0daH
	DB	0daH
	DB	0daH
	DB	0daH
	DB	0daH
	DB	0daH
	DB	0daH
	DB	0daH
	DB	0daH
	DB	0daH
	DB	0daH
	DB	0daH
	DB	0daH
	DB	0daH
	DB	09H
	DB	049H
	DB	06H
	DB	01H
	DB	01H
	DB	01H
	DB	01H
	DB	01H
	DB	01H
	DB	01H
	DB	01H
	DB	01H
	DB	01H
	DB	01H
	DB	01H
	DB	01H
	DB	0dfH
	DB	0bH
	DB	0daH
	DB	0daH
	DB	0daH
	DB	0daH
	DB	0daH
	DB	0daH
	DB	0daH
	DB	0daH
	DB	0daH
	DB	0daH
	DB	0daH
	DB	0daH
	DB	0daH
	DB	0daH
	DB	0daH
	DB	0daH
	DB	0daH
	DB	0daH
	DB	0daH
	DB	0daH
	DB	0daH
	DB	0daH
	DB	0daH
	DB	0daH
	DB	0daH
	DB	0daH
	DB	0daH
	DB	0daH
	DB	0daH
	DB	0daH
	DB	0daH
	DB	0daH
	DB	0daH
	DB	0daH
	DB	0daH
	DB	0daH
	DB	0daH
	DB	0daH
	DB	0daH
	DB	0daH
	DB	08bH
	DB	09H
	DB	0aeH
	DB	068H
	DB	0bbH
	DB	0bbH
	DB	035H
	DB	030H
	DB	030H
	DB	030H
	DB	030H
	DB	0bdH
	DB	0adH
	DB	0adH
	DB	0bdH
	DB	0bdH
	DB	030H
	DB	030H
	DB	0bdH
	DB	030H
	DB	030H
	DB	030H
	DB	030H
	DB	030H
	DB	07dH
	DB	07dH
	DB	07dH
	DB	0f6H
	DB	0d0H
	DB	0a9H
	DB	0a3H
	DB	0a3H
	DB	024H
	DB	072H
	DB	028H
	DB	058H
	DB	09aH
	DB	09H
	DB	0daH
	DB	0daH
	DB	0daH
	DB	0daH
	DB	0daH
	DB	0daH
	DB	0daH
	DB	0daH
	DB	0daH
	DB	0daH
	DB	0daH
	DB	0daH
	DB	0daH
	DB	0daH
	DB	0daH
	DB	0daH
	DB	0daH
	DB	0daH
	DB	0daH
	DB	0daH
	DB	0daH
	DB	0daH
	DB	0daH
	DB	0daH
	DB	0daH
	DB	0daH
	DB	0daH
	DB	0daH
	DB	0daH
	DB	0daH
	DB	0daH
	DB	0daH
	DB	0daH
	DB	0daH
	DB	0daH
	DB	0daH
	DB	0daH
	DB	0daH
	DB	0daH
	DB	0daH
	DB	0daH
	DB	0daH
	DB	0daH
	DB	0daH
	DB	0daH
	DB	0daH
	DB	0daH
	DB	0daH
	DB	0daH
	DB	0daH
	DB	0daH
	DB	0daH
	DB	0daH
	DB	0daH
	DB	0daH
	DB	0daH
	DB	0daH
	DB	0daH
	DB	0daH
	DB	0daH
	DB	0daH
	DB	0daH
	DB	0daH
	DB	0daH
	DB	0daH
	DB	0daH
	DB	0daH
	DB	0daH
	DB	0daH
	DB	0daH
	DB	0daH
	DB	0daH
	DB	0daH
	DB	0daH
	DB	0daH
	DB	0daH
	DB	0daH
	DB	0daH
	DB	0daH
	DB	0daH
	DB	0daH
	DB	0daH
	DB	0daH
	DB	0daH
	DB	098H
	DB	01H
	DB	01H
	DB	01H
	DB	01H
	DB	01H
	DB	01H
	DB	01H
	DB	01H
	DB	01H
	DB	01H
	DB	01H
	DB	01H
	DB	01H
	DB	0dfH
	DB	049H
	DB	0d9H
	DB	0d9H
	DB	0d9H
	DB	0d9H
	DB	0d9H
	DB	0d9H
	DB	0d9H
	DB	0d9H
	DB	0d9H
	DB	0d9H
	DB	0d9H
	DB	0d9H
	DB	0d9H
	DB	0d9H
	DB	0d9H
	DB	0d9H
	DB	0d9H
	DB	0d9H
	DB	0d9H
	DB	0d9H
	DB	0d9H
	DB	0d9H
	DB	0d9H
	DB	0d9H
	DB	0d9H
	DB	0d9H
	DB	0d9H
	DB	0d9H
	DB	0d9H
	DB	0d9H
	DB	0d9H
	DB	0d9H
	DB	0d9H
	DB	0d9H
	DB	0d9H
	DB	0d9H
	DB	0d9H
	DB	0d9H
	DB	0d9H
	DB	0d9H
	DB	0daH
	DB	085H
	DB	022H
	DB	06dH
	DB	01dH
	DB	01aH
	DB	0aH
	DB	035H
	DB	035H
	DB	038H
	DB	030H
	DB	038H
	DB	030H
	DB	030H
	DB	030H
	DB	030H
	DB	030H
	DB	0bdH
	DB	030H
	DB	07dH
	DB	07dH
	DB	030H
	DB	030H
	DB	07dH
	DB	0f6H
	DB	0abH
	DB	0abH
	DB	01dH
	DB	0a9H
	DB	024H
	DB	0a2H
	DB	084H
	DB	028H
	DB	028H
	DB	07aH
	DB	0b6H
	DB	09aH
	DB	09H
	DB	0d9H
	DB	0d9H
	DB	0d9H
	DB	0d9H
	DB	0d9H
	DB	0d9H
	DB	0d9H
	DB	0d9H
	DB	0d9H
	DB	0d9H
	DB	0d9H
	DB	0d9H
	DB	0d9H
	DB	0d9H
	DB	0d9H
	DB	0d9H
	DB	0d9H
	DB	0d9H
	DB	0d9H
	DB	0d9H
	DB	0d9H
	DB	0d9H
	DB	0d9H
	DB	0d9H
	DB	0d9H
	DB	0d9H
	DB	0d9H
	DB	0d9H
	DB	0d9H
	DB	0d9H
	DB	0d9H
	DB	0d9H
	DB	0d9H
	DB	0d9H
	DB	0d9H
	DB	0d9H
	DB	0d9H
	DB	0d9H
	DB	0d9H
	DB	0d9H
	DB	0d9H
	DB	0d9H
	DB	0d9H
	DB	0d9H
	DB	0d9H
	DB	0d9H
	DB	0d9H
	DB	0d9H
	DB	0d9H
	DB	0d9H
	DB	0d9H
	DB	0d9H
	DB	0d9H
	DB	0d9H
	DB	0d9H
	DB	0d9H
	DB	0d9H
	DB	0d9H
	DB	0d9H
	DB	0d9H
	DB	0d9H
	DB	0d9H
	DB	0d9H
	DB	0d9H
	DB	0d9H
	DB	0d9H
	DB	0d9H
	DB	0d9H
	DB	0d9H
	DB	0d9H
	DB	0d9H
	DB	0d9H
	DB	0d9H
	DB	0d9H
	DB	0d9H
	DB	0d9H
	DB	0d9H
	DB	0d9H
	DB	0d9H
	DB	0d9H
	DB	0d9H
	DB	0d9H
	DB	0daH
	DB	0d9H
	DB	06H
	DB	01H
	DB	01H
	DB	01H
	DB	01H
	DB	01H
	DB	01H
	DB	01H
	DB	01H
	DB	01H
	DB	01H
	DB	01H
	DB	01H
	DB	01H
	DB	0dfH
	DB	049H
	DB	0d9H
	DB	0d9H
	DB	0d9H
	DB	0d9H
	DB	0d9H
	DB	0d9H
	DB	0d9H
	DB	0d9H
	DB	0d9H
	DB	0d9H
	DB	0d9H
	DB	0d9H
	DB	0d9H
	DB	0d9H
	DB	0d9H
	DB	0d9H
	DB	0d9H
	DB	0d9H
	DB	0d9H
	DB	0d9H
	DB	0d9H
	DB	0d9H
	DB	0d9H
	DB	0d9H
	DB	0d9H
	DB	0d9H
	DB	0d9H
	DB	0d9H
	DB	0d9H
	DB	0d9H
	DB	0d9H
	DB	0d9H
	DB	0d9H
	DB	0d9H
	DB	0d9H
	DB	0d9H
	DB	0d9H
	DB	0d9H
	DB	0d9H
	DB	08bH
	DB	085H
	DB	072H
	DB	072H
	DB	022H
	DB	06dH
	DB	01dH
	DB	01aH
	DB	01aH
	DB	0aH
	DB	035H
	DB	07dH
	DB	038H
	DB	035H
	DB	038H
	DB	035H
	DB	038H
	DB	038H
	DB	038H
	DB	068H
	DB	035H
	DB	0abH
	DB	0abH
	DB	01aH
	DB	01dH
	DB	0a9H
	DB	0a9H
	DB	0a9H
	DB	024H
	DB	024H
	DB	0a2H
	DB	028H
	DB	058H
	DB	015H
	DB	015H
	DB	0b6H
	DB	08eH
	DB	0d6H
	DB	08bH
	DB	0d9H
	DB	0d9H
	DB	0d9H
	DB	0d9H
	DB	0d9H
	DB	0d9H
	DB	0d9H
	DB	0d9H
	DB	0d9H
	DB	0d9H
	DB	0d9H
	DB	0d9H
	DB	0d9H
	DB	0d9H
	DB	0d9H
	DB	0d9H
	DB	0d9H
	DB	0d9H
	DB	0d9H
	DB	0d9H
	DB	0d9H
	DB	0d9H
	DB	0d9H
	DB	0d9H
	DB	0d9H
	DB	0d9H
	DB	0d9H
	DB	0d9H
	DB	0d9H
	DB	0d9H
	DB	0d9H
	DB	0d9H
	DB	0d9H
	DB	0d9H
	DB	0d9H
	DB	0d9H
	DB	0d9H
	DB	0d9H
	DB	0d9H
	DB	0d9H
	DB	0d9H
	DB	0d9H
	DB	0d9H
	DB	0d9H
	DB	0d9H
	DB	0d9H
	DB	0d9H
	DB	0d9H
	DB	0d9H
	DB	0d9H
	DB	0d9H
	DB	0d9H
	DB	0d9H
	DB	0d9H
	DB	0d9H
	DB	0d9H
	DB	0d9H
	DB	0d9H
	DB	0d9H
	DB	0d9H
	DB	0d9H
	DB	0d9H
	DB	0d9H
	DB	0d9H
	DB	0d9H
	DB	0d9H
	DB	0d9H
	DB	0d9H
	DB	0d9H
	DB	0d9H
	DB	0d9H
	DB	0d9H
	DB	0d9H
	DB	0d9H
	DB	0d9H
	DB	0d9H
	DB	0d9H
	DB	0d9H
	DB	0d9H
	DB	0d9H
	DB	0d9H
	DB	0d9H
	DB	0d9H
	DB	0d9H
	DB	06H
	DB	01H
	DB	01H
	DB	01H
	DB	01H
	DB	01H
	DB	01H
	DB	01H
	DB	01H
	DB	01H
	DB	01H
	DB	01H
	DB	01H
	DB	01H
	DB	0dfH
	DB	0b0H
	DB	02H
	DB	02H
	DB	02H
	DB	02H
	DB	02H
	DB	02H
	DB	02H
	DB	02H
	DB	02H
	DB	02H
	DB	02H
	DB	02H
	DB	02H
	DB	02H
	DB	02H
	DB	02H
	DB	02H
	DB	02H
	DB	02H
	DB	02H
	DB	02H
	DB	02H
	DB	02H
	DB	02H
	DB	02H
	DB	02H
	DB	02H
	DB	02H
	DB	02H
	DB	02H
	DB	02H
	DB	02H
	DB	02H
	DB	02H
	DB	02H
	DB	02H
	DB	02H
	DB	02H
	DB	0d9H
	DB	0acH
	DB	0dH
	DB	022H
	DB	01dH
	DB	01aH
	DB	01aH
	DB	01aH
	DB	01aH
	DB	01dH
	DB	01dH
	DB	0aH
	DB	035H
	DB	035H
	DB	01aH
	DB	0abH
	DB	01aH
	DB	01dH
	DB	01dH
	DB	01dH
	DB	01dH
	DB	01dH
	DB	01dH
	DB	01dH
	DB	0cH
	DB	024H
	DB	024H
	DB	0a2H
	DB	028H
	DB	0b9H
	DB	028H
	DB	028H
	DB	0b9H
	DB	015H
	DB	08eH
	DB	079H
	DB	02cH
	DB	065H
	DB	061H
	DB	0d9H
	DB	02H
	DB	02H
	DB	02H
	DB	02H
	DB	02H
	DB	02H
	DB	02H
	DB	02H
	DB	02H
	DB	02H
	DB	02H
	DB	02H
	DB	02H
	DB	02H
	DB	02H
	DB	02H
	DB	02H
	DB	02H
	DB	02H
	DB	02H
	DB	02H
	DB	02H
	DB	02H
	DB	02H
	DB	02H
	DB	02H
	DB	02H
	DB	02H
	DB	02H
	DB	02H
	DB	02H
	DB	02H
	DB	02H
	DB	02H
	DB	02H
	DB	02H
	DB	02H
	DB	02H
	DB	02H
	DB	02H
	DB	02H
	DB	02H
	DB	02H
	DB	02H
	DB	02H
	DB	02H
	DB	02H
	DB	02H
	DB	02H
	DB	02H
	DB	02H
	DB	02H
	DB	02H
	DB	02H
	DB	02H
	DB	02H
	DB	02H
	DB	02H
	DB	02H
	DB	02H
	DB	02H
	DB	02H
	DB	02H
	DB	02H
	DB	02H
	DB	02H
	DB	02H
	DB	02H
	DB	02H
	DB	02H
	DB	02H
	DB	02H
	DB	02H
	DB	02H
	DB	02H
	DB	02H
	DB	02H
	DB	02H
	DB	02H
	DB	02H
	DB	02H
	DB	02H
	DB	0d9H
	DB	02H
	DB	0e1H
	DB	01H
	DB	01H
	DB	01H
	DB	01H
	DB	01H
	DB	01H
	DB	01H
	DB	01H
	DB	01H
	DB	01H
	DB	01H
	DB	01H
	DB	01H
	DB	0dfH
	DB	0b0H
	DB	02H
	DB	02H
	DB	02H
	DB	02H
	DB	02H
	DB	02H
	DB	02H
	DB	02H
	DB	02H
	DB	02H
	DB	02H
	DB	02H
	DB	02H
	DB	02H
	DB	02H
	DB	02H
	DB	02H
	DB	02H
	DB	02H
	DB	02H
	DB	02H
	DB	02H
	DB	02H
	DB	02H
	DB	02H
	DB	02H
	DB	02H
	DB	02H
	DB	02H
	DB	02H
	DB	02H
	DB	02H
	DB	02H
	DB	02H
	DB	02H
	DB	02H
	DB	02H
	DB	02H
	DB	061H
	DB	0aaH
	DB	022H
	DB	01dH
	DB	01aH
	DB	01aH
	DB	0aH
	DB	0aH
	DB	01aH
	DB	01aH
	DB	01aH
	DB	01aH
	DB	0aH
	DB	01dH
	DB	0cH
	DB	022H
	DB	0cH
	DB	0cH
	DB	022H
	DB	0a1H
	DB	024H
	DB	090H
	DB	01dH
	DB	0cH
	DB	090H
	DB	0a2H
	DB	0b9H
	DB	0b9H
	DB	058H
	DB	015H
	DB	015H
	DB	015H
	DB	015H
	DB	08eH
	DB	02aH
	DB	06fH
	DB	09eH
	DB	08fH
	DB	0d9H
	DB	02H
	DB	02H
	DB	02H
	DB	02H
	DB	02H
	DB	02H
	DB	02H
	DB	02H
	DB	02H
	DB	02H
	DB	02H
	DB	02H
	DB	02H
	DB	02H
	DB	02H
	DB	02H
	DB	02H
	DB	02H
	DB	02H
	DB	02H
	DB	02H
	DB	02H
	DB	02H
	DB	02H
	DB	02H
	DB	02H
	DB	02H
	DB	02H
	DB	02H
	DB	02H
	DB	02H
	DB	02H
	DB	02H
	DB	02H
	DB	02H
	DB	02H
	DB	02H
	DB	02H
	DB	02H
	DB	02H
	DB	02H
	DB	02H
	DB	02H
	DB	02H
	DB	02H
	DB	02H
	DB	02H
	DB	02H
	DB	02H
	DB	02H
	DB	02H
	DB	02H
	DB	02H
	DB	02H
	DB	02H
	DB	02H
	DB	02H
	DB	02H
	DB	02H
	DB	02H
	DB	02H
	DB	02H
	DB	02H
	DB	02H
	DB	02H
	DB	02H
	DB	02H
	DB	02H
	DB	02H
	DB	02H
	DB	02H
	DB	02H
	DB	02H
	DB	02H
	DB	02H
	DB	02H
	DB	02H
	DB	02H
	DB	02H
	DB	02H
	DB	02H
	DB	02H
	DB	02H
	DB	02H
	DB	02H
	DB	0e1H
	DB	01H
	DB	01H
	DB	01H
	DB	01H
	DB	01H
	DB	01H
	DB	01H
	DB	01H
	DB	01H
	DB	01H
	DB	01H
	DB	01H
	DB	01H
	DB	0dfH
	DB	0b0H
	DB	02H
	DB	02H
	DB	02H
	DB	02H
	DB	02H
	DB	02H
	DB	02H
	DB	02H
	DB	02H
	DB	02H
	DB	02H
	DB	02H
	DB	02H
	DB	02H
	DB	02H
	DB	02H
	DB	02H
	DB	02H
	DB	02H
	DB	02H
	DB	02H
	DB	02H
	DB	02H
	DB	02H
	DB	02H
	DB	02H
	DB	02H
	DB	02H
	DB	02H
	DB	02H
	DB	02H
	DB	02H
	DB	02H
	DB	02H
	DB	02H
	DB	02H
	DB	02H
	DB	02H
	DB	0d6H
	DB	01bH
	DB	01bH
	DB	022H
	DB	0cH
	DB	0cH
	DB	01aH
	DB	01dH
	DB	01dH
	DB	01dH
	DB	01aH
	DB	01aH
	DB	035H
	DB	01aH
	DB	024H
	DB	024H
	DB	0a1H
	DB	024H
	DB	022H
	DB	0a1H
	DB	0b8H
	DB	028H
	DB	024H
	DB	090H
	DB	0a1H
	DB	0b9H
	DB	0b8H
	DB	06cH
	DB	06cH
	DB	015H
	DB	079H
	DB	079H
	DB	08eH
	DB	02aH
	DB	029H
	DB	031H
	DB	077H
	DB	061H
	DB	08bH
	DB	02H
	DB	02H
	DB	02H
	DB	02H
	DB	02H
	DB	02H
	DB	02H
	DB	02H
	DB	02H
	DB	02H
	DB	02H
	DB	02H
	DB	02H
	DB	02H
	DB	02H
	DB	02H
	DB	02H
	DB	02H
	DB	02H
	DB	02H
	DB	02H
	DB	02H
	DB	02H
	DB	02H
	DB	02H
	DB	02H
	DB	02H
	DB	02H
	DB	02H
	DB	02H
	DB	02H
	DB	02H
	DB	02H
	DB	02H
	DB	02H
	DB	02H
	DB	02H
	DB	02H
	DB	02H
	DB	02H
	DB	02H
	DB	02H
	DB	02H
	DB	02H
	DB	02H
	DB	02H
	DB	02H
	DB	02H
	DB	02H
	DB	02H
	DB	02H
	DB	02H
	DB	02H
	DB	02H
	DB	02H
	DB	02H
	DB	02H
	DB	02H
	DB	02H
	DB	02H
	DB	02H
	DB	02H
	DB	02H
	DB	02H
	DB	02H
	DB	02H
	DB	02H
	DB	02H
	DB	02H
	DB	02H
	DB	02H
	DB	02H
	DB	02H
	DB	02H
	DB	02H
	DB	02H
	DB	02H
	DB	02H
	DB	02H
	DB	02H
	DB	02H
	DB	02H
	DB	02H
	DB	02H
	DB	02H
	DB	0e1H
	DB	01H
	DB	01H
	DB	01H
	DB	01H
	DB	01H
	DB	01H
	DB	01H
	DB	01H
	DB	01H
	DB	01H
	DB	01H
	DB	01H
	DB	01H
	DB	0dfH
	DB	09H
	DB	09cH
	DB	09cH
	DB	09cH
	DB	09cH
	DB	09cH
	DB	09cH
	DB	09cH
	DB	09cH
	DB	09cH
	DB	09cH
	DB	09cH
	DB	09cH
	DB	09cH
	DB	09cH
	DB	09cH
	DB	09cH
	DB	09cH
	DB	09cH
	DB	09cH
	DB	09cH
	DB	09cH
	DB	09cH
	DB	09cH
	DB	09cH
	DB	09cH
	DB	09cH
	DB	09cH
	DB	09cH
	DB	09cH
	DB	09cH
	DB	09cH
	DB	09cH
	DB	09cH
	DB	09cH
	DB	09cH
	DB	09cH
	DB	02H
	DB	04H
	DB	0dH
	DB	032H
	DB	0dH
	DB	022H
	DB	0cH
	DB	0cH
	DB	01aH
	DB	01aH
	DB	01dH
	DB	01aH
	DB	0cH
	DB	0cH
	DB	0aH
	DB	035H
	DB	032H
	DB	047H
	DB	0b9H
	DB	0a1H
	DB	024H
	DB	0a1H
	DB	0b8H
	DB	019H
	DB	0b9H
	DB	0a1H
	DB	028H
	DB	0b8H
	DB	015H
	DB	079H
	DB	079H
	DB	079H
	DB	02cH
	DB	02cH
	DB	02aH
	DB	05cH
	DB	023H
	DB	042H
	DB	0bH
	DB	094H
	DB	09H
	DB	09cH
	DB	09cH
	DB	09cH
	DB	09cH
	DB	09cH
	DB	09cH
	DB	09cH
	DB	09cH
	DB	09cH
	DB	09cH
	DB	09cH
	DB	09cH
	DB	09cH
	DB	09cH
	DB	09cH
	DB	09cH
	DB	09cH
	DB	09cH
	DB	09cH
	DB	09cH
	DB	09cH
	DB	09cH
	DB	09cH
	DB	09cH
	DB	09cH
	DB	09cH
	DB	09cH
	DB	09cH
	DB	09cH
	DB	09cH
	DB	09cH
	DB	09cH
	DB	09cH
	DB	09cH
	DB	09cH
	DB	09cH
	DB	09cH
	DB	09cH
	DB	09cH
	DB	09cH
	DB	09cH
	DB	09cH
	DB	09cH
	DB	09cH
	DB	09cH
	DB	09cH
	DB	09cH
	DB	09cH
	DB	09cH
	DB	09cH
	DB	09cH
	DB	09cH
	DB	09cH
	DB	09cH
	DB	09cH
	DB	09cH
	DB	09cH
	DB	09cH
	DB	09cH
	DB	09cH
	DB	09cH
	DB	09cH
	DB	09cH
	DB	09cH
	DB	09cH
	DB	09cH
	DB	09cH
	DB	09cH
	DB	09cH
	DB	09cH
	DB	09cH
	DB	09cH
	DB	09cH
	DB	09cH
	DB	09cH
	DB	09cH
	DB	09cH
	DB	09cH
	DB	09cH
	DB	09cH
	DB	09cH
	DB	09cH
	DB	09cH
	DB	02H
	DB	09cH
	DB	0c5H
	DB	01H
	DB	01H
	DB	01H
	DB	01H
	DB	01H
	DB	01H
	DB	01H
	DB	01H
	DB	01H
	DB	01H
	DB	01H
	DB	01H
	DB	01H
	DB	0dfH
	DB	09H
	DB	09cH
	DB	09cH
	DB	09cH
	DB	09cH
	DB	09cH
	DB	09cH
	DB	09cH
	DB	09cH
	DB	09cH
	DB	09cH
	DB	09cH
	DB	09cH
	DB	09cH
	DB	09cH
	DB	09cH
	DB	09cH
	DB	09cH
	DB	09cH
	DB	09cH
	DB	09cH
	DB	09cH
	DB	09cH
	DB	09cH
	DB	09cH
	DB	09cH
	DB	09cH
	DB	09cH
	DB	09cH
	DB	09cH
	DB	09cH
	DB	09cH
	DB	09cH
	DB	09cH
	DB	09cH
	DB	09cH
	DB	09cH
	DB	09cH
	DB	0cfH
	DB	0eH
	DB	0dH
	DB	022H
	DB	01dH
	DB	034H
	DB	01dH
	DB	01dH
	DB	01aH
	DB	01dH
	DB	01aH
	DB	01dH
	DB	022H
	DB	01dH
	DB	068H
	DB	022H
	DB	08eH
	DB	015H
	DB	0b8H
	DB	0a1H
	DB	0a1H
	DB	0b8H
	DB	079H
	DB	079H
	DB	015H
	DB	0b8H
	DB	015H
	DB	079H
	DB	02cH
	DB	02cH
	DB	02aH
	DB	02aH
	DB	02aH
	DB	041H
	DB	042H
	DB	078H
	DB	0c6H
	DB	089H
	DB	03H
	DB	0bH
	DB	09cH
	DB	0f2H
	DB	09cH
	DB	09cH
	DB	09cH
	DB	09cH
	DB	09cH
	DB	09cH
	DB	09cH
	DB	09cH
	DB	09cH
	DB	09cH
	DB	09cH
	DB	09cH
	DB	09cH
	DB	09cH
	DB	09cH
	DB	09cH
	DB	09cH
	DB	09cH
	DB	09cH
	DB	09cH
	DB	09cH
	DB	09cH
	DB	09cH
	DB	09cH
	DB	09cH
	DB	09cH
	DB	09cH
	DB	09cH
	DB	09cH
	DB	09cH
	DB	09cH
	DB	09cH
	DB	09cH
	DB	09cH
	DB	09cH
	DB	09cH
	DB	09cH
	DB	09cH
	DB	09cH
	DB	09cH
	DB	09cH
	DB	09cH
	DB	09cH
	DB	09cH
	DB	09cH
	DB	09cH
	DB	09cH
	DB	09cH
	DB	09cH
	DB	09cH
	DB	09cH
	DB	09cH
	DB	09cH
	DB	09cH
	DB	09cH
	DB	09cH
	DB	09cH
	DB	09cH
	DB	09cH
	DB	09cH
	DB	09cH
	DB	09cH
	DB	09cH
	DB	09cH
	DB	09cH
	DB	09cH
	DB	09cH
	DB	09cH
	DB	09cH
	DB	09cH
	DB	09cH
	DB	09cH
	DB	09cH
	DB	09cH
	DB	09cH
	DB	09cH
	DB	09cH
	DB	09cH
	DB	09cH
	DB	09cH
	DB	09cH
	DB	09cH
	DB	0f2H
	DB	0c5H
	DB	01H
	DB	01H
	DB	01H
	DB	01H
	DB	01H
	DB	01H
	DB	01H
	DB	01H
	DB	01H
	DB	01H
	DB	01H
	DB	01H
	DB	01H
	DB	0dfH
	DB	09H
	DB	0f2H
	DB	0f2H
	DB	0f2H
	DB	0f2H
	DB	0f2H
	DB	0f2H
	DB	0f2H
	DB	0f2H
	DB	0f2H
	DB	0f2H
	DB	0f2H
	DB	0f2H
	DB	0f2H
	DB	0f2H
	DB	0f2H
	DB	0f2H
	DB	0f2H
	DB	0f2H
	DB	0f2H
	DB	0f2H
	DB	0f2H
	DB	0f2H
	DB	0f2H
	DB	0f2H
	DB	0f2H
	DB	0f2H
	DB	0f2H
	DB	0f2H
	DB	0f2H
	DB	0f2H
	DB	0f2H
	DB	0f2H
	DB	0f2H
	DB	0f2H
	DB	0f2H
	DB	09cH
	DB	04dH
	DB	0eH
	DB	0dH
	DB	022H
	DB	0cH
	DB	034H
	DB	034H
	DB	034H
	DB	01dH
	DB	01dH
	DB	01dH
	DB	01aH
	DB	01dH
	DB	022H
	DB	0cH
	DB	01aH
	DB	0aH
	DB	015H
	DB	02cH
	DB	015H
	DB	0eH
	DB	028H
	DB	0b9H
	DB	079H
	DB	02aH
	DB	02cH
	DB	08eH
	DB	019H
	DB	08eH
	DB	02aH
	DB	02aH
	DB	02aH
	DB	05dH
	DB	06fH
	DB	03eH
	DB	039H
	DB	04cH
	DB	045H
	DB	098H
	DB	094H
	DB	04fH
	DB	0d9H
	DB	0f2H
	DB	0f2H
	DB	0f2H
	DB	0f2H
	DB	0f2H
	DB	0f2H
	DB	0f2H
	DB	0f2H
	DB	0f2H
	DB	0f2H
	DB	0f2H
	DB	0f2H
	DB	0f2H
	DB	0f2H
	DB	0f2H
	DB	0f2H
	DB	0f2H
	DB	0f2H
	DB	0f2H
	DB	0f2H
	DB	0f2H
	DB	0f2H
	DB	0f2H
	DB	0f2H
	DB	0f2H
	DB	0f2H
	DB	0f2H
	DB	0f2H
	DB	0f2H
	DB	0f2H
	DB	0f2H
	DB	0f2H
	DB	0f2H
	DB	0f2H
	DB	0f2H
	DB	0f2H
	DB	0f2H
	DB	0f2H
	DB	0f2H
	DB	0f2H
	DB	0f2H
	DB	0f2H
	DB	0f2H
	DB	0f2H
	DB	0f2H
	DB	0f2H
	DB	0f2H
	DB	0f2H
	DB	0f2H
	DB	0f2H
	DB	0f2H
	DB	0f2H
	DB	0f2H
	DB	0f2H
	DB	0f2H
	DB	0f2H
	DB	0f2H
	DB	0f2H
	DB	0f2H
	DB	0f2H
	DB	0f2H
	DB	0f2H
	DB	0f2H
	DB	0f2H
	DB	0f2H
	DB	0f2H
	DB	0f2H
	DB	0f2H
	DB	0f2H
	DB	0f2H
	DB	0f2H
	DB	0f2H
	DB	0f2H
	DB	0f2H
	DB	0f2H
	DB	0f2H
	DB	0f2H
	DB	0f2H
	DB	0f2H
	DB	0f2H
	DB	0f2H
	DB	0f2H
	DB	09cH
	DB	0f2H
	DB	011H
	DB	01H
	DB	01H
	DB	01H
	DB	01H
	DB	01H
	DB	01H
	DB	01H
	DB	01H
	DB	01H
	DB	01H
	DB	01H
	DB	01H
	DB	01H
	DB	0dfH
	DB	0daH
	DB	0f2H
	DB	0f2H
	DB	0f2H
	DB	0f2H
	DB	0f2H
	DB	0f2H
	DB	0f2H
	DB	0f2H
	DB	0f2H
	DB	0f2H
	DB	0f2H
	DB	0f2H
	DB	0f2H
	DB	0f2H
	DB	0f2H
	DB	0f2H
	DB	0f2H
	DB	0f2H
	DB	0f2H
	DB	0f2H
	DB	0f2H
	DB	0f2H
	DB	0f2H
	DB	0f2H
	DB	0f2H
	DB	0f2H
	DB	0f2H
	DB	0f2H
	DB	0f2H
	DB	0f2H
	DB	0f2H
	DB	0f2H
	DB	0f2H
	DB	0f2H
	DB	0f2H
	DB	09cH
	DB	07bH
	DB	01cH
	DB	01bH
	DB	0cH
	DB	0cH
	DB	034H
	DB	034H
	DB	01dH
	DB	01aH
	DB	01aH
	DB	01dH
	DB	01dH
	DB	01dH
	DB	0cH
	DB	022H
	DB	0cH
	DB	035H
	DB	022H
	DB	05dH
	DB	02aH
	DB	019H
	DB	015H
	DB	0b8H
	DB	019H
	DB	05dH
	DB	05dH
	DB	02aH
	DB	079H
	DB	02aH
	DB	02aH
	DB	05dH
	DB	06fH
	DB	06fH
	DB	020H
	DB	04bH
	DB	04cH
	DB	059H
	DB	045H
	DB	098H
	DB	04H
	DB	03H
	DB	0bH
	DB	0f2H
	DB	0f2H
	DB	0f2H
	DB	0f2H
	DB	0f2H
	DB	0f2H
	DB	0f2H
	DB	0f2H
	DB	0f2H
	DB	0f2H
	DB	0f2H
	DB	0f2H
	DB	0f2H
	DB	0f2H
	DB	0f2H
	DB	0f2H
	DB	0f2H
	DB	0f2H
	DB	0f2H
	DB	0f2H
	DB	0f2H
	DB	0f2H
	DB	0f2H
	DB	0f2H
	DB	0f2H
	DB	0f2H
	DB	0f2H
	DB	0f2H
	DB	0f2H
	DB	0f2H
	DB	0f2H
	DB	0f2H
	DB	0f2H
	DB	0f2H
	DB	0f2H
	DB	0f2H
	DB	0f2H
	DB	0f2H
	DB	0f2H
	DB	0f2H
	DB	0f2H
	DB	0f2H
	DB	0f2H
	DB	0f2H
	DB	0f2H
	DB	0f2H
	DB	0f2H
	DB	0f2H
	DB	0f2H
	DB	0f2H
	DB	0f2H
	DB	0f2H
	DB	0f2H
	DB	0f2H
	DB	0f2H
	DB	0f2H
	DB	0f2H
	DB	0f2H
	DB	0f2H
	DB	0f2H
	DB	0f2H
	DB	0f2H
	DB	0f2H
	DB	0f2H
	DB	0f2H
	DB	0f2H
	DB	0f2H
	DB	0f2H
	DB	0f2H
	DB	0f2H
	DB	0f2H
	DB	0f2H
	DB	0f2H
	DB	0f2H
	DB	0f2H
	DB	0f2H
	DB	0f2H
	DB	0f2H
	DB	0f2H
	DB	0f2H
	DB	0f2H
	DB	0f2H
	DB	0f2H
	DB	0f2H
	DB	011H
	DB	01H
	DB	01H
	DB	01H
	DB	01H
	DB	01H
	DB	01H
	DB	01H
	DB	01H
	DB	01H
	DB	01H
	DB	01H
	DB	01H
	DB	01H
	DB	016H
	DB	0d9H
	DB	04H
	DB	04H
	DB	04H
	DB	04H
	DB	04H
	DB	04H
	DB	04H
	DB	04H
	DB	04H
	DB	04H
	DB	04H
	DB	04H
	DB	04H
	DB	04H
	DB	04H
	DB	04H
	DB	04H
	DB	04H
	DB	04H
	DB	04H
	DB	04H
	DB	04H
	DB	04H
	DB	04H
	DB	04H
	DB	04H
	DB	04H
	DB	04H
	DB	04H
	DB	04H
	DB	04H
	DB	04H
	DB	04H
	DB	04H
	DB	04H
	DB	04H
	DB	099H
	DB	0dH
	DB	01bH
	DB	0cH
	DB	034H
	DB	01aH
	DB	01aH
	DB	0aH
	DB	0aH
	DB	0aH
	DB	01aH
	DB	01aH
	DB	01aH
	DB	0cH
	DB	0cH
	DB	022H
	DB	022H
	DB	01aH
	DB	0eH
	DB	044H
	DB	05dH
	DB	079H
	DB	079H
	DB	019H
	DB	02aH
	DB	06fH
	DB	05dH
	DB	02aH
	DB	02aH
	DB	02aH
	DB	02bH
	DB	02bH
	DB	020H
	DB	010H
	DB	0b5H
	DB	066H
	DB	059H
	DB	04cH
	DB	06H
	DB	059H
	DB	066H
	DB	059H
	DB	04H
	DB	04H
	DB	04H
	DB	04H
	DB	04H
	DB	04H
	DB	04H
	DB	04H
	DB	04H
	DB	04H
	DB	04H
	DB	04H
	DB	04H
	DB	04H
	DB	04H
	DB	04H
	DB	04H
	DB	04H
	DB	04H
	DB	04H
	DB	04H
	DB	04H
	DB	04H
	DB	04H
	DB	04H
	DB	04H
	DB	04H
	DB	04H
	DB	04H
	DB	04H
	DB	04H
	DB	04H
	DB	04H
	DB	04H
	DB	04H
	DB	04H
	DB	04H
	DB	04H
	DB	04H
	DB	04H
	DB	04H
	DB	04H
	DB	04H
	DB	04H
	DB	04H
	DB	04H
	DB	04H
	DB	04H
	DB	04H
	DB	04H
	DB	04H
	DB	04H
	DB	04H
	DB	04H
	DB	04H
	DB	04H
	DB	04H
	DB	04H
	DB	04H
	DB	04H
	DB	04H
	DB	04H
	DB	04H
	DB	04H
	DB	04H
	DB	04H
	DB	04H
	DB	04H
	DB	04H
	DB	04H
	DB	04H
	DB	04H
	DB	04H
	DB	04H
	DB	04H
	DB	04H
	DB	04H
	DB	04H
	DB	04H
	DB	04H
	DB	04H
	DB	04H
	DB	0f2H
	DB	04H
	DB	011H
	DB	01H
	DB	01H
	DB	01H
	DB	01H
	DB	01H
	DB	01H
	DB	01H
	DB	01H
	DB	01H
	DB	01H
	DB	01H
	DB	01H
	DB	01H
	DB	016H
	DB	02H
	DB	04H
	DB	04H
	DB	04H
	DB	04H
	DB	04H
	DB	04H
	DB	04H
	DB	04H
	DB	04H
	DB	04H
	DB	04H
	DB	04H
	DB	04H
	DB	04H
	DB	04H
	DB	04H
	DB	04H
	DB	04H
	DB	04H
	DB	04H
	DB	04H
	DB	04H
	DB	04H
	DB	04H
	DB	04H
	DB	04H
	DB	04H
	DB	04H
	DB	04H
	DB	04H
	DB	04H
	DB	04H
	DB	04H
	DB	04H
	DB	04H
	DB	060H
	DB	0eH
	DB	0dH
	DB	022H
	DB	01dH
	DB	01dH
	DB	01aH
	DB	0aH
	DB	0aH
	DB	0aH
	DB	0aH
	DB	0aH
	DB	0aH
	DB	0aH
	DB	01dH
	DB	022H
	DB	024H
	DB	0a1H
	DB	0cH
	DB	01dH
	DB	02aH
	DB	097H
	DB	05dH
	DB	02cH
	DB	079H
	DB	02cH
	DB	02bH
	DB	06fH
	DB	06fH
	DB	06fH
	DB	06fH
	DB	041H
	DB	0c3H
	DB	0c3H
	DB	055H
	DB	078H
	DB	07H
	DB	066H
	DB	045H
	DB	071H
	DB	027H
	DB	0b3H
	DB	078H
	DB	0f2H
	DB	04H
	DB	04H
	DB	04H
	DB	04H
	DB	04H
	DB	04H
	DB	04H
	DB	04H
	DB	04H
	DB	04H
	DB	04H
	DB	04H
	DB	04H
	DB	04H
	DB	04H
	DB	04H
	DB	04H
	DB	04H
	DB	04H
	DB	04H
	DB	04H
	DB	04H
	DB	04H
	DB	04H
	DB	04H
	DB	04H
	DB	04H
	DB	04H
	DB	04H
	DB	04H
	DB	04H
	DB	04H
	DB	04H
	DB	04H
	DB	04H
	DB	04H
	DB	04H
	DB	04H
	DB	04H
	DB	04H
	DB	04H
	DB	04H
	DB	04H
	DB	04H
	DB	04H
	DB	04H
	DB	04H
	DB	04H
	DB	04H
	DB	04H
	DB	04H
	DB	04H
	DB	04H
	DB	04H
	DB	04H
	DB	04H
	DB	04H
	DB	04H
	DB	04H
	DB	04H
	DB	04H
	DB	04H
	DB	04H
	DB	04H
	DB	04H
	DB	04H
	DB	04H
	DB	04H
	DB	04H
	DB	04H
	DB	04H
	DB	04H
	DB	04H
	DB	04H
	DB	04H
	DB	04H
	DB	04H
	DB	04H
	DB	04H
	DB	04H
	DB	04H
	DB	04H
	DB	04H
	DB	011H
	DB	01H
	DB	01H
	DB	01H
	DB	01H
	DB	01H
	DB	01H
	DB	01H
	DB	01H
	DB	01H
	DB	01H
	DB	01H
	DB	01H
	DB	01H
	DB	016H
	DB	02H
	DB	0d3H
	DB	0d3H
	DB	0d3H
	DB	0d3H
	DB	0d3H
	DB	0d3H
	DB	0d3H
	DB	0d3H
	DB	0d3H
	DB	0d3H
	DB	0d3H
	DB	0d3H
	DB	0d3H
	DB	0d3H
	DB	0d3H
	DB	0d3H
	DB	0d3H
	DB	0d3H
	DB	0d3H
	DB	0d3H
	DB	0d3H
	DB	0d3H
	DB	0d3H
	DB	0d3H
	DB	0d3H
	DB	0d3H
	DB	0d3H
	DB	0d3H
	DB	0d3H
	DB	0d3H
	DB	0d3H
	DB	0d3H
	DB	0d3H
	DB	0d3H
	DB	04H
	DB	091H
	DB	032H
	DB	022H
	DB	0cH
	DB	0cH
	DB	034H
	DB	067H
	DB	0aH
	DB	0aH
	DB	068H
	DB	068H
	DB	068H
	DB	0aH
	DB	0aH
	DB	0aH
	DB	0cH
	DB	024H
	DB	072H
	DB	024H
	DB	01dH
	DB	0dH
	DB	097H
	DB	097H
	DB	05dH
	DB	02cH
	DB	02aH
	DB	06fH
	DB	02bH
	DB	02bH
	DB	02bH
	DB	020H
	DB	0c3H
	DB	029H
	DB	029H
	DB	03aH
	DB	08dH
	DB	059H
	DB	0dfH
	DB	074H
	DB	011H
	DB	04dH
	DB	05H
	DB	05H
	DB	04H
	DB	0d3H
	DB	0d3H
	DB	0d3H
	DB	0d3H
	DB	0d3H
	DB	0d3H
	DB	0d3H
	DB	0d3H
	DB	0d3H
	DB	0d3H
	DB	0d3H
	DB	0d3H
	DB	0d3H
	DB	0d3H
	DB	0d3H
	DB	0d3H
	DB	0d3H
	DB	0d3H
	DB	0d3H
	DB	0d3H
	DB	0d3H
	DB	0d3H
	DB	0d3H
	DB	0d3H
	DB	0d3H
	DB	0d3H
	DB	0d3H
	DB	0d3H
	DB	0d3H
	DB	0d3H
	DB	0d3H
	DB	0d3H
	DB	0d3H
	DB	0d3H
	DB	0d3H
	DB	0d3H
	DB	0d3H
	DB	0d3H
	DB	0d3H
	DB	0d3H
	DB	0d3H
	DB	0d3H
	DB	0d3H
	DB	0d3H
	DB	0d3H
	DB	0d3H
	DB	0d3H
	DB	0d3H
	DB	0d3H
	DB	0d3H
	DB	0d3H
	DB	0d3H
	DB	0d3H
	DB	0d3H
	DB	0d3H
	DB	0d3H
	DB	0d3H
	DB	0d3H
	DB	0d3H
	DB	0d3H
	DB	0d3H
	DB	0d3H
	DB	0d3H
	DB	0d3H
	DB	0d3H
	DB	0d3H
	DB	0d3H
	DB	0d3H
	DB	0d3H
	DB	0d3H
	DB	0d3H
	DB	0d3H
	DB	0d3H
	DB	0d3H
	DB	0d3H
	DB	0d3H
	DB	0d3H
	DB	0d3H
	DB	0d3H
	DB	0d3H
	DB	0d3H
	DB	04H
	DB	0d3H
	DB	011H
	DB	01H
	DB	01H
	DB	01H
	DB	01H
	DB	01H
	DB	01H
	DB	01H
	DB	01H
	DB	01H
	DB	01H
	DB	01H
	DB	01H
	DB	01H
	DB	016H
	DB	02H
	DB	089H
	DB	089H
	DB	089H
	DB	089H
	DB	089H
	DB	089H
	DB	089H
	DB	089H
	DB	089H
	DB	089H
	DB	089H
	DB	089H
	DB	089H
	DB	089H
	DB	089H
	DB	089H
	DB	089H
	DB	089H
	DB	089H
	DB	089H
	DB	089H
	DB	089H
	DB	089H
	DB	089H
	DB	089H
	DB	089H
	DB	089H
	DB	089H
	DB	089H
	DB	089H
	DB	089H
	DB	089H
	DB	089H
	DB	089H
	DB	04H
	DB	0baH
	DB	032H
	DB	022H
	DB	0cH
	DB	0cH
	DB	034H
	DB	0aH
	DB	0aH
	DB	0aH
	DB	068H
	DB	0aH
	DB	068H
	DB	0aH
	DB	01aH
	DB	01aH
	DB	01dH
	DB	022H
	DB	072H
	DB	024H
	DB	022H
	DB	0cH
	DB	019H
	DB	09eH
	DB	02bH
	DB	02aH
	DB	06fH
	DB	02bH
	DB	041H
	DB	02bH
	DB	020H
	DB	0c3H
	DB	029H
	DB	04aH
	DB	055H
	DB	02fH
	DB	053H
	DB	017H
	DB	053H
	DB	040H
	DB	04H
	DB	03H
	DB	0b0H
	DB	0f0H
	DB	0f1H
	DB	089H
	DB	089H
	DB	089H
	DB	089H
	DB	089H
	DB	089H
	DB	089H
	DB	089H
	DB	089H
	DB	089H
	DB	089H
	DB	089H
	DB	089H
	DB	089H
	DB	089H
	DB	089H
	DB	089H
	DB	089H
	DB	089H
	DB	089H
	DB	089H
	DB	089H
	DB	089H
	DB	089H
	DB	089H
	DB	089H
	DB	089H
	DB	089H
	DB	089H
	DB	089H
	DB	089H
	DB	089H
	DB	089H
	DB	089H
	DB	089H
	DB	089H
	DB	089H
	DB	089H
	DB	089H
	DB	089H
	DB	089H
	DB	089H
	DB	089H
	DB	089H
	DB	089H
	DB	089H
	DB	089H
	DB	089H
	DB	089H
	DB	089H
	DB	089H
	DB	089H
	DB	089H
	DB	089H
	DB	089H
	DB	089H
	DB	089H
	DB	089H
	DB	089H
	DB	089H
	DB	089H
	DB	089H
	DB	089H
	DB	089H
	DB	089H
	DB	089H
	DB	089H
	DB	089H
	DB	089H
	DB	089H
	DB	089H
	DB	089H
	DB	089H
	DB	089H
	DB	089H
	DB	089H
	DB	089H
	DB	089H
	DB	089H
	DB	089H
	DB	089H
	DB	0d3H
	DB	0f1H
	DB	011H
	DB	01H
	DB	01H
	DB	01H
	DB	01H
	DB	01H
	DB	01H
	DB	01H
	DB	01H
	DB	01H
	DB	01H
	DB	01H
	DB	01H
	DB	01H
	DB	016H
	DB	09cH
	DB	0f1H
	DB	0f1H
	DB	0f1H
	DB	0f1H
	DB	0f1H
	DB	0f1H
	DB	0f1H
	DB	0f1H
	DB	0f1H
	DB	0f1H
	DB	0f1H
	DB	0f1H
	DB	0f1H
	DB	0f1H
	DB	0f1H
	DB	0f1H
	DB	0f1H
	DB	0f1H
	DB	0f1H
	DB	0f1H
	DB	0f1H
	DB	0f1H
	DB	0f1H
	DB	0f1H
	DB	0f1H
	DB	0f1H
	DB	0f1H
	DB	0f1H
	DB	0f1H
	DB	0f1H
	DB	0f1H
	DB	0f1H
	DB	0f1H
	DB	089H
	DB	05fH
	DB	0eH
	DB	032H
	DB	01bH
	DB	022H
	DB	0cH
	DB	067H
	DB	0aH
	DB	068H
	DB	068H
	DB	0aH
	DB	0aH
	DB	0aH
	DB	0aH
	DB	01aH
	DB	01aH
	DB	01aH
	DB	0cH
	DB	024H
	DB	0a2H
	DB	024H
	DB	090H
	DB	0a1H
	DB	044H
	DB	029H
	DB	02bH
	DB	02bH
	DB	041H
	DB	0c3H
	DB	041H
	DB	0c3H
	DB	05cH
	DB	029H
	DB	050H
	DB	039H
	DB	042H
	DB	023H
	DB	095H
	DB	02fH
	DB	07eH
	DB	011H
	DB	0bH
	DB	094H
	DB	089H
	DB	0d1H
	DB	0f1H
	DB	0f1H
	DB	0f1H
	DB	0f1H
	DB	0f1H
	DB	0f1H
	DB	0f1H
	DB	0f1H
	DB	0f1H
	DB	0f1H
	DB	0f1H
	DB	0f1H
	DB	0f1H
	DB	0f1H
	DB	0f1H
	DB	0f1H
	DB	0f1H
	DB	0f1H
	DB	0f1H
	DB	0f1H
	DB	0f1H
	DB	0f1H
	DB	0f1H
	DB	0f1H
	DB	0f1H
	DB	0f1H
	DB	0f1H
	DB	0f1H
	DB	0f1H
	DB	0f1H
	DB	0f1H
	DB	0f1H
	DB	0f1H
	DB	0f1H
	DB	0f1H
	DB	0f1H
	DB	0f1H
	DB	0f1H
	DB	0f1H
	DB	0f1H
	DB	0f1H
	DB	0f1H
	DB	0f1H
	DB	0f1H
	DB	0f1H
	DB	0f1H
	DB	0f1H
	DB	0f1H
	DB	0f1H
	DB	0f1H
	DB	0f1H
	DB	0f1H
	DB	0f1H
	DB	0f1H
	DB	0f1H
	DB	0f1H
	DB	0f1H
	DB	0f1H
	DB	0f1H
	DB	0f1H
	DB	0f1H
	DB	0f1H
	DB	0f1H
	DB	0f1H
	DB	0f1H
	DB	0f1H
	DB	0f1H
	DB	0f1H
	DB	0f1H
	DB	0f1H
	DB	0f1H
	DB	0f1H
	DB	0f1H
	DB	0f1H
	DB	0f1H
	DB	0f1H
	DB	0f1H
	DB	0f1H
	DB	0f1H
	DB	0f1H
	DB	0f1H
	DB	0f1H
	DB	0f1H
	DB	071H
	DB	01H
	DB	01H
	DB	01H
	DB	01H
	DB	01H
	DB	01H
	DB	01H
	DB	01H
	DB	01H
	DB	01H
	DB	01H
	DB	01H
	DB	01H
	DB	016H
	DB	0f2H
	DB	05H
	DB	05H
	DB	05H
	DB	05H
	DB	05H
	DB	05H
	DB	05H
	DB	05H
	DB	05H
	DB	05H
	DB	05H
	DB	05H
	DB	05H
	DB	05H
	DB	05H
	DB	05H
	DB	05H
	DB	05H
	DB	05H
	DB	05H
	DB	05H
	DB	05H
	DB	05H
	DB	05H
	DB	05H
	DB	05H
	DB	05H
	DB	05H
	DB	05H
	DB	05H
	DB	05H
	DB	05H
	DB	05H
	DB	0f1H
	DB	07bH
	DB	0eH
	DB	0dH
	DB	022H
	DB	0cH
	DB	034H
	DB	067H
	DB	0aH
	DB	0aH
	DB	068H
	DB	068H
	DB	035H
	DB	0aH
	DB	0aH
	DB	01aH
	DB	0aH
	DB	0aH
	DB	01dH
	DB	024H
	DB	0a1H
	DB	0a1H
	DB	024H
	DB	024H
	DB	019H
	DB	096H
	DB	029H
	DB	041H
	DB	033H
	DB	029H
	DB	029H
	DB	05cH
	DB	04aH
	DB	050H
	DB	04bH
	DB	0f1H
	DB	04H
	DB	05H
	DB	08H
	DB	07fH
	DB	02fH
	DB	0b3H
	DB	09bH
	DB	03H
	DB	09H
	DB	0eeH
	DB	05H
	DB	05H
	DB	05H
	DB	05H
	DB	05H
	DB	05H
	DB	05H
	DB	05H
	DB	05H
	DB	05H
	DB	05H
	DB	05H
	DB	05H
	DB	05H
	DB	05H
	DB	05H
	DB	05H
	DB	05H
	DB	05H
	DB	05H
	DB	05H
	DB	05H
	DB	05H
	DB	0f1H
	DB	0f1H
	DB	0f1H
	DB	0f1H
	DB	0f1H
	DB	0f1H
	DB	0f1H
	DB	0f1H
	DB	0f1H
	DB	0f1H
	DB	0f1H
	DB	0f1H
	DB	0f1H
	DB	0f1H
	DB	0f1H
	DB	0f1H
	DB	0f1H
	DB	0f1H
	DB	0f1H
	DB	05H
	DB	05H
	DB	05H
	DB	05H
	DB	05H
	DB	05H
	DB	05H
	DB	05H
	DB	05H
	DB	05H
	DB	05H
	DB	05H
	DB	05H
	DB	05H
	DB	05H
	DB	05H
	DB	05H
	DB	05H
	DB	05H
	DB	05H
	DB	05H
	DB	05H
	DB	05H
	DB	05H
	DB	05H
	DB	05H
	DB	05H
	DB	05H
	DB	05H
	DB	05H
	DB	05H
	DB	05H
	DB	05H
	DB	05H
	DB	05H
	DB	05H
	DB	05H
	DB	05H
	DB	05H
	DB	0f1H
	DB	05H
	DB	071H
	DB	01H
	DB	01H
	DB	01H
	DB	01H
	DB	01H
	DB	01H
	DB	01H
	DB	01H
	DB	01H
	DB	01H
	DB	01H
	DB	01H
	DB	01H
	DB	016H
	DB	0f2H
	DB	05H
	DB	05H
	DB	05H
	DB	05H
	DB	05H
	DB	05H
	DB	05H
	DB	05H
	DB	05H
	DB	05H
	DB	05H
	DB	05H
	DB	05H
	DB	05H
	DB	05H
	DB	05H
	DB	05H
	DB	05H
	DB	05H
	DB	05H
	DB	05H
	DB	05H
	DB	05H
	DB	05H
	DB	05H
	DB	05H
	DB	05H
	DB	05H
	DB	05H
	DB	05H
	DB	05H
	DB	05H
	DB	05H
	DB	05H
	DB	082H
	DB	01cH
	DB	0dH
	DB	022H
	DB	0cH
	DB	034H
	DB	0aH
	DB	0aH
	DB	068H
	DB	038H
	DB	038H
	DB	068H
	DB	035H
	DB	0aH
	DB	0bbH
	DB	0aH
	DB	038H
	DB	0aH
	DB	022H
	DB	024H
	DB	0a1H
	DB	0a1H
	DB	0a2H
	DB	032H
	DB	0c3H
	DB	037H
	DB	029H
	DB	029H
	DB	031H
	DB	031H
	DB	04aH
	DB	050H
	DB	054H
	DB	01fH
	DB	0f1H
	DB	05H
	DB	0f1H
	DB	0d3H
	DB	039H
	DB	02fH
	DB	095H
	DB	071H
	DB	08cH
	DB	094H
	DB	0f1H
	DB	07H
	DB	05H
	DB	05H
	DB	05H
	DB	05H
	DB	05H
	DB	05H
	DB	05H
	DB	05H
	DB	05H
	DB	05H
	DB	05H
	DB	05H
	DB	05H
	DB	05H
	DB	05H
	DB	05H
	DB	05H
	DB	05H
	DB	05H
	DB	05H
	DB	05H
	DB	05H
	DB	07cH
	DB	07cH
	DB	05eH
	DB	05eH
	DB	05eH
	DB	05eH
	DB	05eH
	DB	05eH
	DB	05eH
	DB	05eH
	DB	05eH
	DB	05eH
	DB	05eH
	DB	05eH
	DB	05eH
	DB	05eH
	DB	05eH
	DB	05H
	DB	05H
	DB	05H
	DB	05H
	DB	05H
	DB	05H
	DB	05H
	DB	05H
	DB	05H
	DB	05H
	DB	05H
	DB	05H
	DB	05H
	DB	05H
	DB	05H
	DB	05H
	DB	05H
	DB	05H
	DB	05H
	DB	05H
	DB	05H
	DB	05H
	DB	05H
	DB	05H
	DB	05H
	DB	05H
	DB	05H
	DB	05H
	DB	05H
	DB	05H
	DB	05H
	DB	05H
	DB	05H
	DB	05H
	DB	05H
	DB	05H
	DB	05H
	DB	05H
	DB	05H
	DB	05H
	DB	05H
	DB	05H
	DB	05H
	DB	071H
	DB	01H
	DB	01H
	DB	01H
	DB	01H
	DB	01H
	DB	01H
	DB	01H
	DB	01H
	DB	01H
	DB	01H
	DB	01H
	DB	01H
	DB	01H
	DB	016H
	DB	04H
	DB	05H
	DB	05H
	DB	05H
	DB	05H
	DB	05H
	DB	05H
	DB	05H
	DB	05H
	DB	05H
	DB	05H
	DB	05H
	DB	05H
	DB	05H
	DB	05H
	DB	05H
	DB	05H
	DB	05H
	DB	05H
	DB	05H
	DB	05H
	DB	05H
	DB	05H
	DB	05H
	DB	05H
	DB	05H
	DB	05H
	DB	05H
	DB	05H
	DB	05H
	DB	05H
	DB	05H
	DB	05H
	DB	05H
	DB	091H
	DB	0eH
	DB	013H
	DB	0dH
	DB	01bH
	DB	0cH
	DB	034H
	DB	067H
	DB	0aH
	DB	068H
	DB	030H
	DB	038H
	DB	035H
	DB	035H
	DB	0aH
	DB	0aH
	DB	0aH
	DB	035H
	DB	0aH
	DB	0cH
	DB	024H
	DB	024H
	DB	028H
	DB	028H
	DB	032H
	DB	08eH
	DB	037H
	DB	031H
	DB	031H
	DB	037H
	DB	037H
	DB	062H
	DB	063H
	DB	07H
	DB	05H
	DB	05H
	DB	05H
	DB	05H
	DB	05H
	DB	088H
	DB	016H
	DB	02fH
	DB	074H
	DB	09bH
	DB	03H
	DB	09H
	DB	098H
	DB	05H
	DB	05H
	DB	05H
	DB	05H
	DB	05H
	DB	05H
	DB	05H
	DB	05H
	DB	05H
	DB	05H
	DB	05H
	DB	05H
	DB	05H
	DB	05H
	DB	05H
	DB	05H
	DB	07cH
	DB	07cH
	DB	0d4H
	DB	034H
	DB	034H
	DB	01dH
	DB	01dH
	DB	01dH
	DB	01dH
	DB	01aH
	DB	01aH
	DB	01aH
	DB	01dH
	DB	06dH
	DB	06dH
	DB	022H
	DB	024H
	DB	024H
	DB	024H
	DB	024H
	DB	072H
	DB	072H
	DB	024H
	DB	022H
	DB	0dH
	DB	0aaH
	DB	09aH
	DB	05fH
	DB	05H
	DB	05H
	DB	05H
	DB	05H
	DB	05H
	DB	05H
	DB	05H
	DB	05H
	DB	05H
	DB	05H
	DB	05H
	DB	05H
	DB	05H
	DB	05H
	DB	05H
	DB	05H
	DB	05H
	DB	05H
	DB	05H
	DB	05H
	DB	05H
	DB	05H
	DB	05H
	DB	05H
	DB	05H
	DB	05H
	DB	05H
	DB	05H
	DB	05H
	DB	05H
	DB	05H
	DB	05H
	DB	05H
	DB	05H
	DB	05H
	DB	05H
	DB	05H
	DB	05H
	DB	018H
	DB	01H
	DB	01H
	DB	01H
	DB	01H
	DB	01H
	DB	01H
	DB	01H
	DB	01H
	DB	01H
	DB	01H
	DB	01H
	DB	01H
	DB	01H
	DB	016H
	DB	04H
	DB	088H
	DB	088H
	DB	088H
	DB	088H
	DB	088H
	DB	088H
	DB	088H
	DB	088H
	DB	088H
	DB	088H
	DB	088H
	DB	088H
	DB	088H
	DB	088H
	DB	088H
	DB	088H
	DB	088H
	DB	088H
	DB	088H
	DB	088H
	DB	088H
	DB	088H
	DB	088H
	DB	088H
	DB	088H
	DB	088H
	DB	088H
	DB	088H
	DB	088H
	DB	088H
	DB	088H
	DB	088H
	DB	05H
	DB	0ceH
	DB	0eH
	DB	0dH
	DB	0dH
	DB	022H
	DB	0cH
	DB	034H
	DB	0aH
	DB	0aH
	DB	068H
	DB	030H
	DB	030H
	DB	038H
	DB	035H
	DB	0aH
	DB	01aH
	DB	01aH
	DB	0aH
	DB	01aH
	DB	0cH
	DB	024H
	DB	024H
	DB	028H
	DB	047H
	DB	0eH
	DB	0b8H
	DB	02dH
	DB	062H
	DB	062H
	DB	062H
	DB	062H
	DB	0c4H
	DB	05fH
	DB	05H
	DB	088H
	DB	088H
	DB	088H
	DB	088H
	DB	088H
	DB	05H
	DB	06H
	DB	095H
	DB	040H
	DB	011H
	DB	09bH
	DB	07H
	DB	0e1H
	DB	04H
	DB	04H
	DB	05fH
	DB	0d1H
	DB	0d1H
	DB	0d1H
	DB	0f0H
	DB	088H
	DB	088H
	DB	088H
	DB	088H
	DB	088H
	DB	088H
	DB	05fH
	DB	091H
	DB	0aaH
	DB	022H
	DB	072H
	DB	0cdH
	DB	0cdH
	DB	0cdH
	DB	06dH
	DB	06dH
	DB	0cdH
	DB	06dH
	DB	06dH
	DB	06dH
	DB	06dH
	DB	024H
	DB	032H
	DB	028H
	DB	028H
	DB	028H
	DB	047H
	DB	047H
	DB	028H
	DB	028H
	DB	028H
	DB	028H
	DB	028H
	DB	028H
	DB	084H
	DB	084H
	DB	0a2H
	DB	0dH
	DB	0dH
	DB	0bcH
	DB	01fH
	DB	05fH
	DB	05H
	DB	088H
	DB	088H
	DB	088H
	DB	088H
	DB	088H
	DB	088H
	DB	088H
	DB	088H
	DB	088H
	DB	088H
	DB	088H
	DB	088H
	DB	088H
	DB	088H
	DB	088H
	DB	088H
	DB	088H
	DB	088H
	DB	088H
	DB	088H
	DB	088H
	DB	088H
	DB	088H
	DB	088H
	DB	088H
	DB	088H
	DB	088H
	DB	088H
	DB	088H
	DB	088H
	DB	05fH
	DB	0d1H
	DB	018H
	DB	01H
	DB	01H
	DB	01H
	DB	01H
	DB	01H
	DB	01H
	DB	01H
	DB	01H
	DB	01H
	DB	01H
	DB	01H
	DB	01H
	DB	01H
	DB	016H
	DB	04H
	DB	0d1H
	DB	0d1H
	DB	0d1H
	DB	0d1H
	DB	0d1H
	DB	0d1H
	DB	0d1H
	DB	0d1H
	DB	0d1H
	DB	0d1H
	DB	0d1H
	DB	0d1H
	DB	0d1H
	DB	0d1H
	DB	0d1H
	DB	0d1H
	DB	0d1H
	DB	0d1H
	DB	0d1H
	DB	0d1H
	DB	0d1H
	DB	0d1H
	DB	0d1H
	DB	0d1H
	DB	0d1H
	DB	0d1H
	DB	0d1H
	DB	0d1H
	DB	0d1H
	DB	0d1H
	DB	0d1H
	DB	0d1H
	DB	01fH
	DB	0e8H
	DB	0eH
	DB	0dH
	DB	0dH
	DB	01bH
	DB	0cH
	DB	01aH
	DB	0aH
	DB	0aH
	DB	068H
	DB	038H
	DB	038H
	DB	038H
	DB	035H
	DB	035H
	DB	035H
	DB	01dH
	DB	01dH
	DB	01aH
	DB	01dH
	DB	024H
	DB	024H
	DB	028H
	DB	07aH
	DB	047H
	DB	0b8H
	DB	0c3H
	DB	03aH
	DB	03aH
	DB	040H
	DB	078H
	DB	05H
	DB	088H
	DB	0d1H
	DB	0d1H
	DB	0d1H
	DB	0d1H
	DB	0d1H
	DB	0d1H
	DB	0d1H
	DB	05fH
	DB	016H
	DB	095H
	DB	025H
	DB	059H
	DB	049H
	DB	04dH
	DB	0f0H
	DB	07H
	DB	07H
	DB	05fH
	DB	04dH
	DB	0f2H
	DB	0a5H
	DB	04H
	DB	04H
	DB	04H
	DB	0d3H
	DB	04H
	DB	04H
	DB	089H
	DB	05H
	DB	091H
	DB	07bH
	DB	099H
	DB	0a1H
	DB	028H
	DB	028H
	DB	028H
	DB	084H
	DB	028H
	DB	072H
	DB	072H
	DB	028H
	DB	028H
	DB	015H
	DB	015H
	DB	015H
	DB	0b6H
	DB	0b6H
	DB	015H
	DB	015H
	DB	015H
	DB	015H
	DB	0b8H
	DB	0b8H
	DB	015H
	DB	0b8H
	DB	0b9H
	DB	0b9H
	DB	028H
	DB	07aH
	DB	0ecH
	DB	0ecH
	DB	084H
	DB	0cbH
	DB	09aH
	DB	05fH
	DB	088H
	DB	0d1H
	DB	0d1H
	DB	0d1H
	DB	0d1H
	DB	0d1H
	DB	0d1H
	DB	0d1H
	DB	0d1H
	DB	0d1H
	DB	0d1H
	DB	0d1H
	DB	0d1H
	DB	0d1H
	DB	0d1H
	DB	0d1H
	DB	0d1H
	DB	0d1H
	DB	0d1H
	DB	0d1H
	DB	0d1H
	DB	0d1H
	DB	0d1H
	DB	0d1H
	DB	0d1H
	DB	0d1H
	DB	0d1H
	DB	0d1H
	DB	0d1H
	DB	0d1H
	DB	01fH
	DB	018H
	DB	01H
	DB	01H
	DB	01H
	DB	01H
	DB	01H
	DB	01H
	DB	01H
	DB	01H
	DB	01H
	DB	01H
	DB	01H
	DB	01H
	DB	01H
	DB	016H
	DB	0d3H
	DB	0d1H
	DB	0d1H
	DB	0d1H
	DB	0d1H
	DB	0d1H
	DB	0d1H
	DB	0d1H
	DB	0d1H
	DB	0d1H
	DB	0d1H
	DB	0d1H
	DB	0d1H
	DB	0d1H
	DB	0d1H
	DB	0d1H
	DB	0d1H
	DB	0d1H
	DB	0d1H
	DB	0d1H
	DB	0d1H
	DB	0d1H
	DB	0d1H
	DB	0d1H
	DB	0d1H
	DB	0d1H
	DB	0d1H
	DB	0d1H
	DB	0d1H
	DB	0d1H
	DB	0d1H
	DB	0d1H
	DB	0d1H
	DB	066H
	DB	02eH
	DB	0eH
	DB	0dH
	DB	01bH
	DB	01bH
	DB	0cH
	DB	01aH
	DB	0aH
	DB	0aH
	DB	038H
	DB	030H
	DB	030H
	DB	030H
	DB	030H
	DB	035H
	DB	035H
	DB	0bbH
	DB	01dH
	DB	01aH
	DB	01dH
	DB	024H
	DB	024H
	DB	028H
	DB	047H
	DB	0eH
	DB	0b8H
	DB	020H
	DB	053H
	DB	087H
	DB	08H
	DB	05H
	DB	0d1H
	DB	0d1H
	DB	0f0H
	DB	0d1H
	DB	0d1H
	DB	0d1H
	DB	0d1H
	DB	0d1H
	DB	0d1H
	DB	05H
	DB	0b5H
	DB	095H
	DB	042H
	DB	01fH
	DB	0a4H
	DB	0c6H
	DB	0a4H
	DB	09bH
	DB	0f2H
	DB	04H
	DB	05H
	DB	01fH
	DB	0eeH
	DB	08H
	DB	098H
	DB	0c6H
	DB	059H
	DB	059H
	DB	098H
	DB	0eeH
	DB	07H
	DB	05H
	DB	089H
	DB	0d3H
	DB	091H
	DB	0e8H
	DB	015H
	DB	015H
	DB	015H
	DB	015H
	DB	015H
	DB	015H
	DB	015H
	DB	015H
	DB	02cH
	DB	02cH
	DB	02cH
	DB	079H
	DB	079H
	DB	079H
	DB	079H
	DB	079H
	DB	079H
	DB	08eH
	DB	08eH
	DB	0b6H
	DB	079H
	DB	080H
	DB	0b6H
	DB	015H
	DB	058H
	DB	058H
	DB	07aH
	DB	0ecH
	DB	084H
	DB	084H
	DB	024H
	DB	09aH
	DB	05fH
	DB	088H
	DB	0d1H
	DB	0d1H
	DB	0d1H
	DB	0d1H
	DB	0d1H
	DB	0d1H
	DB	0d1H
	DB	0d1H
	DB	0d1H
	DB	0d1H
	DB	0d1H
	DB	0d1H
	DB	0d1H
	DB	0d1H
	DB	0d1H
	DB	0d1H
	DB	0d1H
	DB	0d1H
	DB	0d1H
	DB	0d1H
	DB	0d1H
	DB	0d1H
	DB	0d1H
	DB	0d1H
	DB	0d1H
	DB	0d1H
	DB	0d1H
	DB	0f0H
	DB	018H
	DB	01H
	DB	01H
	DB	01H
	DB	01H
	DB	01H
	DB	01H
	DB	01H
	DB	01H
	DB	01H
	DB	01H
	DB	01H
	DB	01H
	DB	01H
	DB	016H
	DB	0f1H
	DB	07H
	DB	07H
	DB	07H
	DB	07H
	DB	07H
	DB	07H
	DB	07H
	DB	07H
	DB	07H
	DB	07H
	DB	07H
	DB	07H
	DB	07H
	DB	07H
	DB	07H
	DB	07H
	DB	07H
	DB	07H
	DB	07H
	DB	07H
	DB	07H
	DB	07H
	DB	07H
	DB	07H
	DB	07H
	DB	07H
	DB	07H
	DB	07H
	DB	07H
	DB	07H
	DB	07H
	DB	0d1H
	DB	083H
	DB	047H
	DB	01cH
	DB	0dH
	DB	01bH
	DB	022H
	DB	0cH
	DB	034H
	DB	0aH
	DB	0aH
	DB	038H
	DB	030H
	DB	030H
	DB	030H
	DB	030H
	DB	038H
	DB	035H
	DB	0bbH
	DB	01dH
	DB	01dH
	DB	01dH
	DB	024H
	DB	032H
	DB	028H
	DB	0eH
	DB	047H
	DB	019H
	DB	076H
	DB	071H
	DB	07H
	DB	0d1H
	DB	0f0H
	DB	0a4H
	DB	07H
	DB	05fH
	DB	07H
	DB	07H
	DB	07H
	DB	07H
	DB	07H
	DB	07H
	DB	0d1H
	DB	08H
	DB	039H
	DB	078H
	DB	071H
	DB	06H
	DB	09bH
	DB	0a5H
	DB	09bH
	DB	07H
	DB	0a4H
	DB	0c6H
	DB	06H
	DB	06H
	DB	0e1H
	DB	078H
	DB	039H
	DB	078H
	DB	06H
	DB	0c6H
	DB	06H
	DB	039H
	DB	06H
	DB	0e1H
	DB	098H
	DB	05H
	DB	089H
	DB	091H
	DB	06bH
	DB	0c7H
	DB	0c7H
	DB	02aH
	DB	02cH
	DB	02cH
	DB	05dH
	DB	03fH
	DB	05dH
	DB	02aH
	DB	02aH
	DB	02aH
	DB	05dH
	DB	05dH
	DB	05dH
	DB	02aH
	DB	02aH
	DB	02aH
	DB	02cH
	DB	02cH
	DB	02aH
	DB	06aH
	DB	02cH
	DB	06cH
	DB	06cH
	DB	0b6H
	DB	058H
	DB	0ccH
	DB	0ebH
	DB	084H
	DB	084H
	DB	0dH
	DB	07H
	DB	0f0H
	DB	07H
	DB	07H
	DB	07H
	DB	07H
	DB	07H
	DB	07H
	DB	07H
	DB	07H
	DB	07H
	DB	07H
	DB	07H
	DB	07H
	DB	07H
	DB	07H
	DB	07H
	DB	07H
	DB	07H
	DB	07H
	DB	07H
	DB	07H
	DB	07H
	DB	07H
	DB	07H
	DB	07H
	DB	07H
	DB	07H
	DB	07H
	DB	018H
	DB	01H
	DB	01H
	DB	01H
	DB	01H
	DB	01H
	DB	01H
	DB	01H
	DB	01H
	DB	01H
	DB	01H
	DB	01H
	DB	01H
	DB	01H
	DB	016H
	DB	0f1H
	DB	07H
	DB	07H
	DB	07H
	DB	07H
	DB	07H
	DB	07H
	DB	07H
	DB	07H
	DB	07H
	DB	07H
	DB	07H
	DB	07H
	DB	07H
	DB	07H
	DB	07H
	DB	07H
	DB	07H
	DB	07H
	DB	07H
	DB	07H
	DB	07H
	DB	07H
	DB	07H
	DB	07H
	DB	07H
	DB	07H
	DB	07H
	DB	07H
	DB	07H
	DB	07H
	DB	07H
	DB	07H
	DB	0e7H
	DB	021H
	DB	013H
	DB	0dH
	DB	01bH
	DB	0cH
	DB	034H
	DB	067H
	DB	0aH
	DB	068H
	DB	035H
	DB	038H
	DB	030H
	DB	0bdH
	DB	030H
	DB	038H
	DB	0aH
	DB	0abH
	DB	01dH
	DB	01dH
	DB	01dH
	DB	022H
	DB	028H
	DB	028H
	DB	0eH
	DB	047H
	DB	02cH
	DB	0a8H
	DB	088H
	DB	07H
	DB	07H
	DB	0f1H
	DB	0b0H
	DB	0c6H
	DB	06H
	DB	07H
	DB	07H
	DB	07H
	DB	07H
	DB	07H
	DB	0f0H
	DB	07H
	DB	039H
	DB	027H
	DB	027H
	DB	059H
	DB	04H
	DB	09bH
	DB	07H
	DB	098H
	DB	0c6H
	DB	06H
	DB	08H
	DB	07H
	DB	05H
	DB	09bH
	DB	04H
	DB	05fH
	DB	01fH
	DB	05H
	DB	066H
	DB	059H
	DB	039H
	DB	078H
	DB	045H
	DB	0c6H
	DB	078H
	DB	0e1H
	DB	07H
	DB	04dH
	DB	083H
	DB	06fH
	DB	041H
	DB	02bH
	DB	02bH
	DB	02bH
	DB	041H
	DB	02bH
	DB	02bH
	DB	06fH
	DB	06fH
	DB	02bH
	DB	06fH
	DB	06fH
	DB	06fH
	DB	03fH
	DB	03fH
	DB	03fH
	DB	05dH
	DB	03fH
	DB	03fH
	DB	05dH
	DB	06aH
	DB	02cH
	DB	02cH
	DB	0eaH
	DB	0eaH
	DB	058H
	DB	07aH
	DB	0ecH
	DB	0ccH
	DB	028H
	DB	066H
	DB	07H
	DB	07H
	DB	07H
	DB	07H
	DB	07H
	DB	07H
	DB	07H
	DB	07H
	DB	07H
	DB	07H
	DB	07H
	DB	07H
	DB	07H
	DB	07H
	DB	07H
	DB	07H
	DB	07H
	DB	07H
	DB	07H
	DB	07H
	DB	07H
	DB	07H
	DB	07H
	DB	07H
	DB	07H
	DB	07H
	DB	07H
	DB	018H
	DB	01H
	DB	01H
	DB	01H
	DB	01H
	DB	01H
	DB	01H
	DB	01H
	DB	01H
	DB	01H
	DB	01H
	DB	01H
	DB	01H
	DB	01H
	DB	016H
	DB	05H
	DB	07H
	DB	07H
	DB	07H
	DB	07H
	DB	07H
	DB	07H
	DB	07H
	DB	07H
	DB	07H
	DB	07H
	DB	07H
	DB	07H
	DB	07H
	DB	07H
	DB	07H
	DB	07H
	DB	07H
	DB	07H
	DB	07H
	DB	07H
	DB	07H
	DB	07H
	DB	07H
	DB	07H
	DB	07H
	DB	07H
	DB	07H
	DB	07H
	DB	07H
	DB	07H
	DB	07H
	DB	04cH
	DB	082H
	DB	01cH
	DB	01cH
	DB	0dH
	DB	01bH
	DB	03bH
	DB	034H
	DB	01aH
	DB	0aH
	DB	0aH
	DB	035H
	DB	038H
	DB	038H
	DB	030H
	DB	030H
	DB	038H
	DB	035H
	DB	0aH
	DB	01dH
	DB	01dH
	DB	0abH
	DB	06dH
	DB	032H
	DB	032H
	DB	0eH
	DB	02eH
	DB	02aH
	DB	083H
	DB	07H
	DB	07H
	DB	098H
	DB	0d9H
	DB	03H
	DB	03H
	DB	07H
	DB	08H
	DB	07H
	DB	07H
	DB	07H
	DB	07H
	DB	07H
	DB	042H
	DB	074H
	DB	0b5H
	DB	066H
	DB	03cH
	DB	05H
	DB	0a4H
	DB	06H
	DB	066H
	DB	04dH
	DB	0b0H
	DB	04fH
	DB	0dbH
	DB	0feH
	DB	03H
	DB	03H
	DB	036H
	DB	0fbH
	DB	03H
	DB	03H
	DB	036H
	DB	0d6H
	DB	03cH
	DB	07H
	DB	098H
	DB	078H
	DB	078H
	DB	011H
	DB	011H
	DB	05fH
	DB	01fH
	DB	076H
	DB	02dH
	DB	033H
	DB	029H
	DB	029H
	DB	041H
	DB	041H
	DB	044H
	DB	02bH
	DB	02bH
	DB	02bH
	DB	02bH
	DB	02bH
	DB	02bH
	DB	02bH
	DB	02bH
	DB	02bH
	DB	02bH
	DB	02bH
	DB	03fH
	DB	03fH
	DB	05dH
	DB	06aH
	DB	02cH
	DB	080H
	DB	06cH
	DB	0eaH
	DB	058H
	DB	07aH
	DB	058H
	DB	028H
	DB	066H
	DB	07H
	DB	07H
	DB	07H
	DB	07H
	DB	07H
	DB	07H
	DB	07H
	DB	07H
	DB	07H
	DB	07H
	DB	07H
	DB	07H
	DB	07H
	DB	07H
	DB	07H
	DB	07H
	DB	07H
	DB	07H
	DB	07H
	DB	07H
	DB	07H
	DB	07H
	DB	07H
	DB	07H
	DB	07H
	DB	0efH
	DB	018H
	DB	01H
	DB	01H
	DB	01H
	DB	01H
	DB	01H
	DB	01H
	DB	01H
	DB	01H
	DB	01H
	DB	01H
	DB	01H
	DB	01H
	DB	01H
	DB	026H
	DB	05H
	DB	0eeH
	DB	0eeH
	DB	0eeH
	DB	0eeH
	DB	0eeH
	DB	0eeH
	DB	0eeH
	DB	0eeH
	DB	0eeH
	DB	0eeH
	DB	0eeH
	DB	0eeH
	DB	0eeH
	DB	0eeH
	DB	0eeH
	DB	0eeH
	DB	0eeH
	DB	0eeH
	DB	0eeH
	DB	0eeH
	DB	0eeH
	DB	0eeH
	DB	0eeH
	DB	0eeH
	DB	0eeH
	DB	0eeH
	DB	0eeH
	DB	0eeH
	DB	0eeH
	DB	0eeH
	DB	0eeH
	DB	083H
	DB	0eH
	DB	01cH
	DB	01cH
	DB	0dH
	DB	022H
	DB	0cH
	DB	0cH
	DB	034H
	DB	01aH
	DB	0aH
	DB	035H
	DB	038H
	DB	038H
	DB	030H
	DB	030H
	DB	038H
	DB	035H
	DB	038H
	DB	01aH
	DB	01dH
	DB	01dH
	DB	01dH
	DB	0dH
	DB	032H
	DB	032H
	DB	019H
	DB	02aH
	DB	059H
	DB	07H
	DB	08H
	DB	048H
	DB	026H
	DB	02H
	DB	03H
	DB	03H
	DB	05fH
	DB	0eeH
	DB	0eeH
	DB	07H
	DB	0efH
	DB	05bH
	DB	023H
	DB	027H
	DB	05fH
	DB	061H
	DB	088H
	DB	0a4H
	DB	05H
	DB	046H
	DB	0f5H
	DB	073H
	DB	04fH
	DB	03H
	DB	094H
	DB	049H
	DB	0bH
	DB	08cH
	DB	0b0H
	DB	036H
	DB	0bH
	DB	094H
	DB	04fH
	DB	0fdH
	DB	0b2H
	DB	049H
	DB	046H
	DB	04dH
	DB	045H
	DB	0c6H
	DB	098H
	DB	018H
	DB	0c6H
	DB	060H
	DB	077H
	DB	050H
	DB	031H
	DB	031H
	DB	031H
	DB	029H
	DB	033H
	DB	041H
	DB	041H
	DB	041H
	DB	041H
	DB	041H
	DB	041H
	DB	041H
	DB	041H
	DB	097H
	DB	097H
	DB	097H
	DB	044H
	DB	02bH
	DB	03fH
	DB	03fH
	DB	03fH
	DB	06aH
	DB	06aH
	DB	080H
	DB	06cH
	DB	0b6H
	DB	015H
	DB	0e3H
	DB	013H
	DB	07H
	DB	0eeH
	DB	0eeH
	DB	0eeH
	DB	0eeH
	DB	0eeH
	DB	0eeH
	DB	0eeH
	DB	0eeH
	DB	0eeH
	DB	0eeH
	DB	0eeH
	DB	0eeH
	DB	0eeH
	DB	0eeH
	DB	0eeH
	DB	0eeH
	DB	0eeH
	DB	0eeH
	DB	0eeH
	DB	0eeH
	DB	0eeH
	DB	0eeH
	DB	0eeH
	DB	0eeH
	DB	0eeH
	DB	018H
	DB	01H
	DB	01H
	DB	01H
	DB	01H
	DB	01H
	DB	01H
	DB	01H
	DB	01H
	DB	01H
	DB	01H
	DB	01H
	DB	01H
	DB	01H
	DB	026H
	DB	05H
	DB	0eeH
	DB	0eeH
	DB	0eeH
	DB	0eeH
	DB	0eeH
	DB	0eeH
	DB	0eeH
	DB	0eeH
	DB	0eeH
	DB	0eeH
	DB	0eeH
	DB	0eeH
	DB	0eeH
	DB	0eeH
	DB	0eeH
	DB	0eeH
	DB	0eeH
	DB	0eeH
	DB	0eeH
	DB	0eeH
	DB	0eeH
	DB	0eeH
	DB	0eeH
	DB	0eeH
	DB	0eeH
	DB	0eeH
	DB	0eeH
	DB	0eeH
	DB	0eeH
	DB	0eeH
	DB	04cH
	DB	021H
	DB	0eH
	DB	01cH
	DB	032H
	DB	01bH
	DB	022H
	DB	0cH
	DB	0cH
	DB	0cH
	DB	01aH
	DB	0aH
	DB	068H
	DB	068H
	DB	038H
	DB	038H
	DB	030H
	DB	038H
	DB	035H
	DB	038H
	DB	035H
	DB	01dH
	DB	0cH
	DB	01dH
	DB	024H
	DB	047H
	DB	028H
	DB	019H
	DB	02aH
	DB	059H
	DB	0eeH
	DB	043H
	DB	055H
	DB	01H
	DB	0ddH
	DB	05H
	DB	03H
	DB	0c0H
	DB	09bH
	DB	0efH
	DB	07H
	DB	05bH
	DB	023H
	DB	04bH
	DB	05H
	DB	09cH
	DB	0f0H
	DB	07H
	DB	0aeH
	DB	03dH
	DB	03H
	DB	0fdH
	DB	0acH
	DB	046H
	DB	02H
	DB	0d9H
	DB	061H
	DB	0daH
	DB	0d9H
	DB	0b0H
	DB	02H
	DB	09H
	DB	0f2H
	DB	0d9H
	DB	09dH
	DB	08cH
	DB	05fH
	DB	0b0H
	DB	0fdH
	DB	04eH
	DB	04H
	DB	0c6H
	DB	098H
	DB	071H
	DB	018H
	DB	05fH
	DB	042H
	DB	03aH
	DB	062H
	DB	050H
	DB	031H
	DB	029H
	DB	029H
	DB	029H
	DB	029H
	DB	029H
	DB	033H
	DB	033H
	DB	033H
	DB	033H
	DB	033H
	DB	033H
	DB	033H
	DB	097H
	DB	044H
	DB	044H
	DB	044H
	DB	044H
	DB	03fH
	DB	03fH
	DB	03fH
	DB	06aH
	DB	080H
	DB	080H
	DB	0b6H
	DB	0b8H
	DB	0efH
	DB	0eeH
	DB	0eeH
	DB	0eeH
	DB	0eeH
	DB	0eeH
	DB	0eeH
	DB	0eeH
	DB	0eeH
	DB	0eeH
	DB	0eeH
	DB	0eeH
	DB	0eeH
	DB	0eeH
	DB	0eeH
	DB	0eeH
	DB	0eeH
	DB	0eeH
	DB	0eeH
	DB	0eeH
	DB	0eeH
	DB	0eeH
	DB	0eeH
	DB	0eeH
	DB	0eeH
	DB	0a4H
	DB	0a7H
	DB	01H
	DB	01H
	DB	01H
	DB	01H
	DB	01H
	DB	01H
	DB	01H
	DB	01H
	DB	01H
	DB	01H
	DB	01H
	DB	01H
	DB	01H
	DB	026H
	DB	088H
	DB	0a4H
	DB	0a4H
	DB	0a4H
	DB	0a4H
	DB	0a4H
	DB	0a4H
	DB	0a4H
	DB	0a4H
	DB	0a4H
	DB	0a4H
	DB	0a4H
	DB	0a4H
	DB	0a4H
	DB	0a4H
	DB	0a4H
	DB	0a4H
	DB	0a4H
	DB	0a4H
	DB	0a4H
	DB	0a4H
	DB	0a4H
	DB	0a4H
	DB	0a4H
	DB	0a4H
	DB	0a4H
	DB	0a4H
	DB	0a4H
	DB	0a4H
	DB	0a4H
	DB	0eeH
	DB	0caH
	DB	02eH
	DB	0eH
	DB	01cH
	DB	0dH
	DB	0dH
	DB	01bH
	DB	0cH
	DB	034H
	DB	034H
	DB	0aH
	DB	0aH
	DB	068H
	DB	068H
	DB	038H
	DB	030H
	DB	038H
	DB	038H
	DB	038H
	DB	038H
	DB	038H
	DB	01aH
	DB	01dH
	DB	01dH
	DB	022H
	DB	047H
	DB	047H
	DB	019H
	DB	064H
	DB	08H
	DB	06H
	DB	02fH
	DB	07eH
	DB	087H
	DB	053H
	DB	016H
	DB	049H
	DB	03H
	DB	09H
	DB	066H
	DB	042H
	DB	023H
	DB	04bH
	DB	05fH
	DB	0daH
	DB	05H
	DB	04dH
	DB	051H
	DB	0f8H
	DB	0d8H
	DB	03H
	DB	0b0H
	DB	089H
	DB	02H
	DB	08cH
	DB	0bH
	DB	0b0H
	DB	0b0H
	DB	0c0H
	DB	0c0H
	DB	09H
	DB	08cH
	DB	0bH
	DB	0bH
	DB	09dH
	DB	09dH
	DB	011H
	DB	02H
	DB	0fdH
	DB	0feH
	DB	03H
	DB	049H
	DB	05fH
	DB	039H
	DB	039H
	DB	0a7H
	DB	07H
	DB	042H
	DB	02fH
	DB	03aH
	DB	050H
	DB	031H
	DB	04aH
	DB	029H
	DB	029H
	DB	02dH
	DB	029H
	DB	029H
	DB	029H
	DB	033H
	DB	09eH
	DB	09eH
	DB	033H
	DB	033H
	DB	033H
	DB	041H
	DB	097H
	DB	097H
	DB	097H
	DB	044H
	DB	02bH
	DB	03fH
	DB	06aH
	DB	02cH
	DB	08eH
	DB	06cH
	DB	0edH
	DB	0a4H
	DB	0a4H
	DB	0a4H
	DB	0a4H
	DB	0a4H
	DB	0a4H
	DB	0a4H
	DB	0a4H
	DB	0a4H
	DB	0a4H
	DB	0a4H
	DB	0a4H
	DB	0a4H
	DB	0a4H
	DB	0a4H
	DB	0a4H
	DB	0a4H
	DB	0a4H
	DB	0a4H
	DB	0a4H
	DB	0a4H
	DB	0a4H
	DB	0a4H
	DB	0a4H
	DB	0a4H
	DB	0a7H
	DB	01H
	DB	01H
	DB	01H
	DB	01H
	DB	01H
	DB	01H
	DB	01H
	DB	01H
	DB	01H
	DB	01H
	DB	01H
	DB	01H
	DB	01H
	DB	026H
	DB	0d1H
	DB	08H
	DB	08H
	DB	08H
	DB	08H
	DB	08H
	DB	08H
	DB	08H
	DB	08H
	DB	08H
	DB	08H
	DB	08H
	DB	08H
	DB	08H
	DB	08H
	DB	08H
	DB	08H
	DB	08H
	DB	08H
	DB	08H
	DB	08H
	DB	08H
	DB	08H
	DB	08H
	DB	08H
	DB	08H
	DB	08H
	DB	08H
	DB	08H
	DB	08H
	DB	08H
	DB	06bH
	DB	047H
	DB	0eH
	DB	0eH
	DB	032H
	DB	0dH
	DB	01bH
	DB	0cH
	DB	034H
	DB	034H
	DB	01aH
	DB	0aH
	DB	0aH
	DB	038H
	DB	038H
	DB	038H
	DB	038H
	DB	038H
	DB	038H
	DB	035H
	DB	035H
	DB	0aH
	DB	01dH
	DB	0cH
	DB	0cH
	DB	032H
	DB	019H
	DB	08eH
	DB	064H
	DB	08H
	DB	08H
	DB	0a7H
	DB	053H
	DB	03aH
	DB	055H
	DB	087H
	DB	042H
	DB	04dH
	DB	02H
	DB	045H
	DB	054H
	DB	075H
	DB	04cH
	DB	09H
	DB	089H
	DB	09cH
	DB	03H
	DB	03dH
	DB	093H
	DB	093H
	DB	08bH
	DB	09H
	DB	0bH
	DB	09cH
	DB	09H
	DB	03H
	DB	036H
	DB	089H
	DB	086H
	DB	0dbH
	DB	05fH
	DB	0f2H
	DB	03H
	DB	0dbH
	DB	061H
	DB	061H
	DB	0e1H
	DB	09H
	DB	02H
	DB	0b0H
	DB	04fH
	DB	03H
	DB	051H
	DB	0acH
	DB	045H
	DB	059H
	DB	0a7H
	DB	08H
	DB	0c4H
	DB	053H
	DB	03aH
	DB	050H
	DB	031H
	DB	031H
	DB	031H
	DB	031H
	DB	02dH
	DB	02dH
	DB	029H
	DB	029H
	DB	029H
	DB	029H
	DB	029H
	DB	09eH
	DB	09eH
	DB	033H
	DB	033H
	DB	033H
	DB	033H
	DB	097H
	DB	044H
	DB	02bH
	DB	03fH
	DB	05dH
	DB	02aH
	DB	080H
	DB	0b7H
	DB	0eeH
	DB	08H
	DB	08H
	DB	08H
	DB	08H
	DB	08H
	DB	08H
	DB	08H
	DB	08H
	DB	08H
	DB	08H
	DB	08H
	DB	08H
	DB	08H
	DB	08H
	DB	08H
	DB	08H
	DB	08H
	DB	08H
	DB	08H
	DB	08H
	DB	08H
	DB	08H
	DB	08H
	DB	08H
	DB	05bH
	DB	01H
	DB	01H
	DB	01H
	DB	01H
	DB	01H
	DB	01H
	DB	01H
	DB	01H
	DB	01H
	DB	01H
	DB	01H
	DB	01H
	DB	01H
	DB	026H
	DB	0d1H
	DB	08H
	DB	08H
	DB	08H
	DB	08H
	DB	08H
	DB	08H
	DB	08H
	DB	08H
	DB	08H
	DB	08H
	DB	08H
	DB	08H
	DB	08H
	DB	08H
	DB	08H
	DB	08H
	DB	08H
	DB	08H
	DB	08H
	DB	08H
	DB	08H
	DB	08H
	DB	08H
	DB	08H
	DB	08H
	DB	08H
	DB	08H
	DB	08H
	DB	08H
	DB	045H
	DB	02eH
	DB	0eH
	DB	0eH
	DB	0eH
	DB	01cH
	DB	0dH
	DB	01bH
	DB	022H
	DB	0cH
	DB	01aH
	DB	01aH
	DB	01aH
	DB	01aH
	DB	0aH
	DB	038H
	DB	038H
	DB	068H
	DB	035H
	DB	035H
	DB	035H
	DB	0aH
	DB	01aH
	DB	01aH
	DB	0cH
	DB	022H
	DB	0dH
	DB	08eH
	DB	02aH
	DB	0e4H
	DB	0a4H
	DB	08H
	DB	0eeH
	DB	071H
	DB	095H
	DB	02fH
	DB	040H
	DB	07eH
	DB	043H
	DB	07H
	DB	043H
	DB	074H
	DB	011H
	DB	09H
	DB	0f2H
	DB	0acH
	DB	0d8H
	DB	05aH
	DB	03H
	DB	09H
	DB	09cH
	DB	0bH
	DB	03H
	DB	0b0H
	DB	066H
	DB	0f0H
	DB	09dH
	DB	0bH
	DB	061H
	DB	04fH
	DB	03H
	DB	09dH
	DB	08cH
	DB	03H
	DB	0f2H
	DB	05H
	DB	05fH
	DB	098H
	DB	08cH
	DB	0b0H
	DB	0b0H
	DB	09cH
	DB	0bH
	DB	051H
	DB	0fdH
	DB	0b0H
	DB	08H
	DB	0c6H
	DB	0a7H
	DB	08H
	DB	0dfH
	DB	01H
	DB	03aH
	DB	062H
	DB	050H
	DB	050H
	DB	031H
	DB	031H
	DB	031H
	DB	031H
	DB	02dH
	DB	02dH
	DB	02dH
	DB	02dH
	DB	02dH
	DB	029H
	DB	029H
	DB	09eH
	DB	09eH
	DB	09eH
	DB	033H
	DB	041H
	DB	044H
	DB	044H
	DB	03fH
	DB	05dH
	DB	0e2H
	DB	0b7H
	DB	0a4H
	DB	08H
	DB	08H
	DB	08H
	DB	08H
	DB	08H
	DB	08H
	DB	08H
	DB	08H
	DB	08H
	DB	08H
	DB	08H
	DB	08H
	DB	08H
	DB	08H
	DB	08H
	DB	08H
	DB	08H
	DB	08H
	DB	08H
	DB	08H
	DB	08H
	DB	08H
	DB	08H
	DB	08H
	DB	027H
	DB	01H
	DB	01H
	DB	01H
	DB	01H
	DB	01H
	DB	01H
	DB	01H
	DB	01H
	DB	01H
	DB	01H
	DB	01H
	DB	01H
	DB	01H
	DB	026H
	DB	0f0H
	DB	08H
	DB	08H
	DB	08H
	DB	08H
	DB	08H
	DB	08H
	DB	08H
	DB	08H
	DB	08H
	DB	08H
	DB	08H
	DB	08H
	DB	08H
	DB	08H
	DB	08H
	DB	08H
	DB	08H
	DB	08H
	DB	08H
	DB	08H
	DB	08H
	DB	08H
	DB	08H
	DB	08H
	DB	08H
	DB	08H
	DB	08H
	DB	08H
	DB	08H
	DB	06bH
	DB	021H
	DB	0eH
	DB	0eH
	DB	01cH
	DB	01cH
	DB	0dH
	DB	01bH
	DB	022H
	DB	0cH
	DB	01dH
	DB	01dH
	DB	01aH
	DB	01aH
	DB	01aH
	DB	0aH
	DB	068H
	DB	0aH
	DB	0aH
	DB	0aH
	DB	035H
	DB	035H
	DB	01aH
	DB	0aH
	DB	0aH
	DB	0cH
	DB	022H
	DB	019H
	DB	02aH
	DB	06bH
	DB	08H
	DB	08H
	DB	08H
	DB	08H
	DB	0c6H
	DB	0b5H
	DB	03aH
	DB	02fH
	DB	045H
	DB	042H
	DB	074H
	DB	043H
	DB	0d3H
	DB	09H
	DB	02H
	DB	051H
	DB	0f8H
	DB	0beH
	DB	09dH
	DB	09H
	DB	0bH
	DB	09cH
	DB	061H
	DB	094H
	DB	02H
	DB	04cH
	DB	0e5H
	DB	04H
	DB	07bH
	DB	085H
	DB	09H
	DB	0bH
	DB	03H
	DB	03H
	DB	0c0H
	DB	086H
	DB	09bH
	DB	06H
	DB	09bH
	DB	060H
	DB	04fH
	DB	094H
	DB	0d9H
	DB	02H
	DB	0b2H
	DB	03H
	DB	049H
	DB	04cH
	DB	039H
	DB	05bH
	DB	04cH
	DB	0deH
	DB	01H
	DB	02fH
	DB	03aH
	DB	062H
	DB	050H
	DB	050H
	DB	031H
	DB	031H
	DB	031H
	DB	031H
	DB	031H
	DB	031H
	DB	031H
	DB	02dH
	DB	02dH
	DB	02dH
	DB	02dH
	DB	02dH
	DB	09eH
	DB	033H
	DB	097H
	DB	044H
	DB	044H
	DB	03fH
	DB	0e2H
	DB	0e7H
	DB	08H
	DB	08H
	DB	08H
	DB	08H
	DB	08H
	DB	08H
	DB	08H
	DB	08H
	DB	08H
	DB	08H
	DB	08H
	DB	08H
	DB	08H
	DB	08H
	DB	08H
	DB	08H
	DB	08H
	DB	08H
	DB	08H
	DB	08H
	DB	08H
	DB	08H
	DB	08H
	DB	08H
	DB	08H
	DB	027H
	DB	01H
	DB	01H
	DB	01H
	DB	01H
	DB	01H
	DB	01H
	DB	01H
	DB	01H
	DB	01H
	DB	01H
	DB	01H
	DB	01H
	DB	01H
	DB	026H
	DB	07H
	DB	098H
	DB	098H
	DB	098H
	DB	098H
	DB	098H
	DB	098H
	DB	098H
	DB	098H
	DB	098H
	DB	098H
	DB	098H
	DB	098H
	DB	098H
	DB	098H
	DB	098H
	DB	098H
	DB	098H
	DB	098H
	DB	098H
	DB	098H
	DB	098H
	DB	098H
	DB	098H
	DB	098H
	DB	098H
	DB	098H
	DB	098H
	DB	08H
	DB	045H
	DB	02eH
	DB	0eH
	DB	01cH
	DB	0eH
	DB	01cH
	DB	01cH
	DB	032H
	DB	01bH
	DB	022H
	DB	0cH
	DB	01dH
	DB	0cH
	DB	01dH
	DB	01aH
	DB	01aH
	DB	01aH
	DB	01aH
	DB	01aH
	DB	0aH
	DB	0abH
	DB	0aH
	DB	0aH
	DB	0aH
	DB	01aH
	DB	0aH
	DB	01aH
	DB	022H
	DB	0eH
	DB	02cH
	DB	0c9H
	DB	08H
	DB	098H
	DB	098H
	DB	08H
	DB	059H
	DB	06bH
	DB	055H
	DB	074H
	DB	059H
	DB	074H
	DB	054H
	DB	078H
	DB	049H
	DB	0d9H
	DB	0b2H
	DB	04fH
	DB	04fH
	DB	02H
	DB	0b0H
	DB	0b2H
	DB	086H
	DB	05H
	DB	05H
	DB	04dH
	DB	03cH
	DB	04dH
	DB	011H
	DB	0a5H
	DB	036H
	DB	0dbH
	DB	04H
	DB	0baH
	DB	046H
	DB	03H
	DB	03H
	DB	03H
	DB	04cH
	DB	05fH
	DB	09H
	DB	0bH
	DB	03H
	DB	0b0H
	DB	09H
	DB	0b0H
	DB	02H
	DB	04fH
	DB	0b1H
	DB	0fdH
	DB	04cH
	DB	08fH
	DB	018H
	DB	0c6H
	DB	0ddH
	DB	01H
	DB	02fH
	DB	03aH
	DB	03aH
	DB	062H
	DB	050H
	DB	031H
	DB	031H
	DB	031H
	DB	031H
	DB	031H
	DB	031H
	DB	02dH
	DB	02dH
	DB	02dH
	DB	02dH
	DB	02dH
	DB	02dH
	DB	09eH
	DB	09eH
	DB	041H
	DB	044H
	DB	02bH
	DB	05dH
	DB	083H
	DB	098H
	DB	098H
	DB	098H
	DB	098H
	DB	098H
	DB	098H
	DB	098H
	DB	098H
	DB	098H
	DB	098H
	DB	098H
	DB	098H
	DB	098H
	DB	098H
	DB	098H
	DB	098H
	DB	098H
	DB	098H
	DB	098H
	DB	098H
	DB	098H
	DB	098H
	DB	098H
	DB	098H
	DB	098H
	DB	027H
	DB	01H
	DB	01H
	DB	01H
	DB	01H
	DB	01H
	DB	01H
	DB	01H
	DB	01H
	DB	01H
	DB	01H
	DB	01H
	DB	01H
	DB	01H
	DB	026H
	DB	07H
	DB	098H
	DB	098H
	DB	098H
	DB	098H
	DB	098H
	DB	098H
	DB	098H
	DB	098H
	DB	098H
	DB	098H
	DB	098H
	DB	098H
	DB	098H
	DB	098H
	DB	098H
	DB	098H
	DB	098H
	DB	098H
	DB	098H
	DB	098H
	DB	098H
	DB	098H
	DB	098H
	DB	098H
	DB	098H
	DB	098H
	DB	098H
	DB	098H
	DB	0c9H
	DB	02eH
	DB	0eH
	DB	0eH
	DB	0eH
	DB	0eH
	DB	0eH
	DB	032H
	DB	0dH
	DB	022H
	DB	0cH
	DB	0cH
	DB	01dH
	DB	01aH
	DB	01aH
	DB	01aH
	DB	01aH
	DB	0aH
	DB	01aH
	DB	0aH
	DB	0bbH
	DB	0abH
	DB	0aH
	DB	0aH
	DB	0aH
	DB	01aH
	DB	01aH
	DB	0cH
	DB	032H
	DB	08eH
	DB	0c9H
	DB	098H
	DB	098H
	DB	08H
	DB	08fH
	DB	065H
	DB	02aH
	DB	075H
	DB	08fH
	DB	0a7H
	DB	074H
	DB	075H
	DB	0acH
	DB	09H
	DB	036H
	DB	0b1H
	DB	03H
	DB	0b0H
	DB	08bH
	DB	0bH
	DB	086H
	DB	03H
	DB	094H
	DB	08cH
	DB	07bH
	DB	03cH
	DB	02H
	DB	0a4H
	DB	08H
	DB	086H
	DB	03H
	DB	04H
	DB	04eH
	DB	04eH
	DB	061H
	DB	0b2H
	DB	04fH
	DB	0c5H
	DB	0a5H
	DB	03H
	DB	03H
	DB	09H
	DB	0a4H
	DB	02H
	DB	04fH
	DB	0daH
	DB	09H
	DB	073H
	DB	0f5H
	DB	049H
	DB	0a4H
	DB	078H
	DB	071H
	DB	071H
	DB	01H
	DB	053H
	DB	02fH
	DB	02fH
	DB	03aH
	DB	062H
	DB	050H
	DB	031H
	DB	031H
	DB	031H
	DB	031H
	DB	031H
	DB	031H
	DB	031H
	DB	031H
	DB	02dH
	DB	02dH
	DB	02dH
	DB	09eH
	DB	09eH
	DB	033H
	DB	0c3H
	DB	097H
	DB	02aH
	DB	08H
	DB	098H
	DB	098H
	DB	098H
	DB	098H
	DB	098H
	DB	098H
	DB	098H
	DB	098H
	DB	098H
	DB	098H
	DB	098H
	DB	098H
	DB	098H
	DB	098H
	DB	098H
	DB	098H
	DB	098H
	DB	098H
	DB	098H
	DB	098H
	DB	098H
	DB	098H
	DB	098H
	DB	098H
	DB	098H
	DB	027H
	DB	01H
	DB	01H
	DB	01H
	DB	01H
	DB	01H
	DB	01H
	DB	01H
	DB	01H
	DB	01H
	DB	01H
	DB	01H
	DB	01H
	DB	01H
	DB	026H
	DB	07H
	DB	0c6H
	DB	0c6H
	DB	0c6H
	DB	0c6H
	DB	0c6H
	DB	0c6H
	DB	0c6H
	DB	0c6H
	DB	0c6H
	DB	0c6H
	DB	0c6H
	DB	0c6H
	DB	0c6H
	DB	0c6H
	DB	0c6H
	DB	0c6H
	DB	0c6H
	DB	0c6H
	DB	0c6H
	DB	0c6H
	DB	0c6H
	DB	0c6H
	DB	0c6H
	DB	0c6H
	DB	0c6H
	DB	0c6H
	DB	098H
	DB	045H
	DB	081H
	DB	02eH
	DB	021H
	DB	0eH
	DB	0eH
	DB	0eH
	DB	0eH
	DB	01cH
	DB	013H
	DB	0dH
	DB	022H
	DB	022H
	DB	0cH
	DB	01dH
	DB	01aH
	DB	0aH
	DB	0aH
	DB	0aH
	DB	0aH
	DB	01aH
	DB	01aH
	DB	0abH
	DB	0aH
	DB	0aH
	DB	0aH
	DB	0aH
	DB	034H
	DB	0cH
	DB	024H
	DB	015H
	DB	0caH
	DB	098H
	DB	0c6H
	DB	0a8H
	DB	0fH
	DB	08eH
	DB	064H
	DB	04bH
	DB	045H
	DB	074H
	DB	074H
	DB	039H
	DB	0dbH
	DB	036H
	DB	073H
	DB	051H
	DB	049H
	DB	02H
	DB	0b2H
	DB	09cH
	DB	07H
	DB	03cH
	DB	03H
	DB	03cH
	DB	0bH
	DB	05H
	DB	02H
	DB	094H
	DB	0a4H
	DB	0f2H
	DB	03H
	DB	0bH
	DB	086H
	DB	09cH
	DB	0edH
	DB	06eH
	DB	0bH
	DB	018H
	DB	0b0H
	DB	03H
	DB	03H
	DB	0c0H
	DB	09H
	DB	04fH
	DB	03H
	DB	0b2H
	DB	09dH
	DB	061H
	DB	03dH
	DB	03H
	DB	09dH
	DB	08H
	DB	071H
	DB	078H
	DB	016H
	DB	01H
	DB	053H
	DB	02fH
	DB	02fH
	DB	03aH
	DB	062H
	DB	050H
	DB	050H
	DB	037H
	DB	037H
	DB	037H
	DB	037H
	DB	037H
	DB	096H
	DB	096H
	DB	02dH
	DB	02dH
	DB	029H
	DB	09eH
	DB	09eH
	DB	033H
	DB	044H
	DB	0e6H
	DB	098H
	DB	0c6H
	DB	0c6H
	DB	0c6H
	DB	0c6H
	DB	0c6H
	DB	0c6H
	DB	0c6H
	DB	0c6H
	DB	0c6H
	DB	0c6H
	DB	0c6H
	DB	0c6H
	DB	0c6H
	DB	0c6H
	DB	0c6H
	DB	0c6H
	DB	0c6H
	DB	0c6H
	DB	0c6H
	DB	0c6H
	DB	0c6H
	DB	0c6H
	DB	0c6H
	DB	098H
	DB	0c6H
	DB	027H
	DB	01H
	DB	01H
	DB	01H
	DB	01H
	DB	01H
	DB	01H
	DB	01H
	DB	01H
	DB	01H
	DB	01H
	DB	01H
	DB	01H
	DB	01H
	DB	026H
	DB	0efH
	DB	0c6H
	DB	0c6H
	DB	0c6H
	DB	0c6H
	DB	0c6H
	DB	0c6H
	DB	0c6H
	DB	0c6H
	DB	0c6H
	DB	0c6H
	DB	0c6H
	DB	0c6H
	DB	0c6H
	DB	0c6H
	DB	0c6H
	DB	0c6H
	DB	0c6H
	DB	0c6H
	DB	0c6H
	DB	0c6H
	DB	0c6H
	DB	0c6H
	DB	0c6H
	DB	0c6H
	DB	0c6H
	DB	0c6H
	DB	098H
	DB	0a8H
	DB	019H
	DB	02eH
	DB	021H
	DB	021H
	DB	021H
	DB	0eH
	DB	0eH
	DB	0eH
	DB	01cH
	DB	032H
	DB	0dH
	DB	024H
	DB	022H
	DB	0cH
	DB	034H
	DB	0aH
	DB	068H
	DB	0aH
	DB	0aH
	DB	0aH
	DB	01aH
	DB	0aH
	DB	0aH
	DB	0aH
	DB	0aH
	DB	0aH
	DB	01aH
	DB	034H
	DB	022H
	DB	047H
	DB	0c9H
	DB	045H
	DB	0e4H
	DB	0a6H
	DB	0a6H
	DB	0a6H
	DB	063H
	DB	071H
	DB	042H
	DB	054H
	DB	054H
	DB	05fH
	DB	0bH
	DB	04fH
	DB	05aH
	DB	03dH
	DB	09dH
	DB	0bH
	DB	0b2H
	DB	049H
	DB	09cH
	DB	086H
	DB	046H
	DB	07bH
	DB	09H
	DB	049H
	DB	03H
	DB	03H
	DB	04H
	DB	018H
	DB	086H
	DB	03H
	DB	03H
	DB	08bH
	DB	036H
	DB	03cH
	DB	04H
	DB	071H
	DB	0b2H
	DB	03H
	DB	03H
	DB	03H
	DB	03H
	DB	03H
	DB	049H
	DB	05H
	DB	09cH
	DB	036H
	DB	046H
	DB	04fH
	DB	0b2H
	DB	04dH
	DB	078H
	DB	018H
	DB	078H
	DB	017H
	DB	01H
	DB	053H
	DB	053H
	DB	02fH
	DB	03aH
	DB	062H
	DB	062H
	DB	050H
	DB	0c2H
	DB	037H
	DB	037H
	DB	037H
	DB	037H
	DB	031H
	DB	031H
	DB	02dH
	DB	02dH
	DB	09eH
	DB	09eH
	DB	041H
	DB	0c8H
	DB	098H
	DB	0c6H
	DB	0c6H
	DB	0c6H
	DB	0c6H
	DB	0c6H
	DB	0c6H
	DB	0c6H
	DB	0c6H
	DB	0c6H
	DB	0c6H
	DB	0c6H
	DB	0c6H
	DB	0c6H
	DB	0c6H
	DB	0c6H
	DB	0c6H
	DB	0c6H
	DB	0c6H
	DB	0c6H
	DB	0c6H
	DB	0c6H
	DB	0c6H
	DB	0c6H
	DB	0c6H
	DB	0c6H
	DB	0c6H
	DB	027H
	DB	01H
	DB	01H
	DB	01H
	DB	01H
	DB	01H
	DB	01H
	DB	01H
	DB	01H
	DB	01H
	DB	01H
	DB	01H
	DB	01H
	DB	01H
	DB	026H
	DB	0eeH
	DB	06H
	DB	06H
	DB	06H
	DB	06H
	DB	06H
	DB	06H
	DB	06H
	DB	06H
	DB	06H
	DB	06H
	DB	06H
	DB	06H
	DB	06H
	DB	06H
	DB	06H
	DB	06H
	DB	06H
	DB	06H
	DB	06H
	DB	06H
	DB	06H
	DB	06H
	DB	06H
	DB	06H
	DB	06H
	DB	0c6H
	DB	0c6H
	DB	0e4H
	DB	019H
	DB	021H
	DB	02eH
	DB	02eH
	DB	02eH
	DB	02eH
	DB	02eH
	DB	0eH
	DB	0eH
	DB	01cH
	DB	032H
	DB	0dH
	DB	022H
	DB	0cH
	DB	034H
	DB	01aH
	DB	0aH
	DB	0aH
	DB	0aH
	DB	0aH
	DB	0aH
	DB	0aH
	DB	035H
	DB	035H
	DB	0aH
	DB	0aH
	DB	01aH
	DB	067H
	DB	034H
	DB	032H
	DB	065H
	DB	064H
	DB	0c7H
	DB	0a6H
	DB	020H
	DB	010H
	DB	043H
	DB	059H
	DB	0b5H
	DB	074H
	DB	04bH
	DB	04eH
	DB	086H
	DB	03H
	DB	03H
	DB	0bH
	DB	02H
	DB	0bH
	DB	0bH
	DB	0bH
	DB	03H
	DB	03H
	DB	0b0H
	DB	036H
	DB	04H
	DB	0daH
	DB	03H
	DB	03H
	DB	02H
	DB	07fH
	DB	0a7H
	DB	04eH
	DB	03H
	DB	03H
	DB	0a5H
	DB	05fH
	DB	071H
	DB	0e1H
	DB	03H
	DB	03H
	DB	03H
	DB	03H
	DB	03H
	DB	03H
	DB	0daH
	DB	07H
	DB	09H
	DB	0bH
	DB	061H
	DB	049H
	DB	0d8H
	DB	036H
	DB	07H
	DB	039H
	DB	011H
	DB	027H
	DB	01H
	DB	053H
	DB	053H
	DB	02fH
	DB	02fH
	DB	03aH
	DB	03aH
	DB	062H
	DB	062H
	DB	050H
	DB	050H
	DB	037H
	DB	037H
	DB	096H
	DB	096H
	DB	096H
	DB	096H
	DB	09eH
	DB	01eH
	DB	078H
	DB	098H
	DB	06H
	DB	06H
	DB	06H
	DB	06H
	DB	06H
	DB	06H
	DB	06H
	DB	06H
	DB	06H
	DB	06H
	DB	06H
	DB	06H
	DB	06H
	DB	06H
	DB	06H
	DB	06H
	DB	06H
	DB	06H
	DB	06H
	DB	06H
	DB	06H
	DB	06H
	DB	06H
	DB	06H
	DB	06H
	DB	0c6H
	DB	06H
	DB	027H
	DB	01H
	DB	01H
	DB	01H
	DB	01H
	DB	01H
	DB	01H
	DB	01H
	DB	01H
	DB	01H
	DB	01H
	DB	01H
	DB	01H
	DB	01H
	DB	026H
	DB	0eeH
	DB	06H
	DB	06H
	DB	06H
	DB	06H
	DB	06H
	DB	06H
	DB	06H
	DB	06H
	DB	06H
	DB	06H
	DB	06H
	DB	06H
	DB	06H
	DB	06H
	DB	06H
	DB	06H
	DB	06H
	DB	06H
	DB	06H
	DB	06H
	DB	06H
	DB	06H
	DB	06H
	DB	06H
	DB	06H
	DB	06H
	DB	078H
	DB	065H
	DB	081H
	DB	02eH
	DB	019H
	DB	019H
	DB	019H
	DB	02eH
	DB	021H
	DB	0eH
	DB	0eH
	DB	0eH
	DB	032H
	DB	032H
	DB	0dH
	DB	01bH
	DB	0cH
	DB	0cH
	DB	0cH
	DB	01aH
	DB	0aH
	DB	0aH
	DB	0aH
	DB	0aH
	DB	035H
	DB	035H
	DB	035H
	DB	035H
	DB	0aH
	DB	034H
	DB	034H
	DB	022H
	DB	019H
	DB	065H
	DB	064H
	DB	09fH
	DB	020H
	DB	010H
	DB	05bH
	DB	045H
	DB	023H
	DB	023H
	DB	071H
	DB	0bH
	DB	04fH
	DB	03H
	DB	03H
	DB	0d9H
	DB	04fH
	DB	09dH
	DB	05H
	DB	02H
	DB	03H
	DB	03H
	DB	0aeH
	DB	0d8H
	DB	08cH
	DB	094H
	DB	03H
	DB	03H
	DB	04cH
	DB	074H
	DB	040H
	DB	0a7H
	DB	0c0H
	DB	03H
	DB	02H
	DB	0d2H
	DB	043H
	DB	08H
	DB	03H
	DB	03H
	DB	03H
	DB	03H
	DB	03H
	DB	03H
	DB	03H
	DB	0b2H
	DB	03H
	DB	086H
	DB	0b0H
	DB	04H
	DB	0fdH
	DB	0bH
	DB	09dH
	DB	08H
	DB	071H
	DB	078H
	DB	017H
	DB	01H
	DB	01H
	DB	053H
	DB	053H
	DB	053H
	DB	02fH
	DB	02fH
	DB	03aH
	DB	03aH
	DB	062H
	DB	062H
	DB	0c2H
	DB	0c2H
	DB	031H
	DB	010H
	DB	076H
	DB	039H
	DB	0c6H
	DB	0c6H
	DB	06H
	DB	06H
	DB	06H
	DB	06H
	DB	06H
	DB	06H
	DB	06H
	DB	06H
	DB	06H
	DB	06H
	DB	06H
	DB	06H
	DB	06H
	DB	06H
	DB	06H
	DB	06H
	DB	06H
	DB	06H
	DB	06H
	DB	06H
	DB	06H
	DB	06H
	DB	06H
	DB	06H
	DB	06H
	DB	06H
	DB	06H
	DB	06H
	DB	027H
	DB	01H
	DB	01H
	DB	01H
	DB	01H
	DB	01H
	DB	01H
	DB	01H
	DB	01H
	DB	01H
	DB	01H
	DB	01H
	DB	01H
	DB	01H
	DB	026H
	DB	0eeH
	DB	06H
	DB	06H
	DB	06H
	DB	06H
	DB	06H
	DB	06H
	DB	06H
	DB	06H
	DB	06H
	DB	06H
	DB	06H
	DB	06H
	DB	06H
	DB	06H
	DB	06H
	DB	06H
	DB	06H
	DB	06H
	DB	06H
	DB	06H
	DB	06H
	DB	06H
	DB	06H
	DB	06H
	DB	06H
	DB	06H
	DB	069H
	DB	064H
	DB	0fH
	DB	0fH
	DB	0fH
	DB	019H
	DB	019H
	DB	081H
	DB	02eH
	DB	021H
	DB	0eH
	DB	0eH
	DB	0eH
	DB	032H
	DB	032H
	DB	0dH
	DB	024H
	DB	022H
	DB	0cH
	DB	01aH
	DB	01aH
	DB	0aH
	DB	035H
	DB	0aH
	DB	0aH
	DB	0aH
	DB	0aH
	DB	0aH
	DB	0aH
	DB	0cH
	DB	022H
	DB	0cH
	DB	013H
	DB	06fH
	DB	020H
	DB	010H
	DB	010H
	DB	063H
	DB	071H
	DB	069H
	DB	023H
	DB	023H
	DB	0edH
	DB	0b2H
	DB	0feH
	DB	0d8H
	DB	093H
	DB	09H
	DB	04fH
	DB	0c0H
	DB	0daH
	DB	04fH
	DB	03H
	DB	03H
	DB	0acH
	DB	085H
	DB	089H
	DB	0dbH
	DB	03H
	DB	03H
	DB	018H
	DB	095H
	DB	043H
	DB	05bH
	DB	0bH
	DB	03H
	DB	0b0H
	DB	061H
	DB	0b5H
	DB	05H
	DB	03H
	DB	03H
	DB	03H
	DB	03H
	DB	03H
	DB	03H
	DB	03H
	DB	03H
	DB	0b0H
	DB	05fH
	DB	04dH
	DB	02H
	DB	0daH
	DB	04fH
	DB	04fH
	DB	05H
	DB	06H
	DB	078H
	DB	0dfH
	DB	017H
	DB	0dfH
	DB	0b5H
	DB	043H
	DB	0b5H
	DB	0a7H
	DB	0a7H
	DB	05bH
	DB	0c4H
	DB	042H
	DB	042H
	DB	071H
	DB	071H
	DB	011H
	DB	06H
	DB	098H
	DB	06H
	DB	06H
	DB	06H
	DB	06H
	DB	06H
	DB	06H
	DB	06H
	DB	06H
	DB	06H
	DB	06H
	DB	06H
	DB	06H
	DB	06H
	DB	06H
	DB	06H
	DB	06H
	DB	06H
	DB	06H
	DB	06H
	DB	06H
	DB	06H
	DB	06H
	DB	06H
	DB	06H
	DB	06H
	DB	06H
	DB	06H
	DB	06H
	DB	06H
	DB	06H
	DB	06H
	DB	027H
	DB	01H
	DB	01H
	DB	01H
	DB	01H
	DB	01H
	DB	01H
	DB	01H
	DB	01H
	DB	01H
	DB	01H
	DB	01H
	DB	01H
	DB	01H
	DB	026H
	DB	0a4H
	DB	06H
	DB	06H
	DB	06H
	DB	06H
	DB	06H
	DB	06H
	DB	06H
	DB	06H
	DB	06H
	DB	06H
	DB	06H
	DB	06H
	DB	06H
	DB	06H
	DB	06H
	DB	06H
	DB	06H
	DB	06H
	DB	06H
	DB	06H
	DB	06H
	DB	06H
	DB	06H
	DB	06H
	DB	06H
	DB	06H
	DB	0e0H
	DB	014H
	DB	064H
	DB	065H
	DB	0fH
	DB	0fH
	DB	0fH
	DB	081H
	DB	081H
	DB	02eH
	DB	02eH
	DB	047H
	DB	0eH
	DB	0eH
	DB	032H
	DB	032H
	DB	0dH
	DB	022H
	DB	01dH
	DB	0aH
	DB	0aH
	DB	068H
	DB	068H
	DB	068H
	DB	0aH
	DB	0aH
	DB	0aH
	DB	01aH
	DB	034H
	DB	0cH
	DB	01bH
	DB	022H
	DB	0cH
	DB	0fH
	DB	0c3H
	DB	020H
	DB	010H
	DB	063H
	DB	039H
	DB	05bH
	DB	023H
	DB	023H
	DB	07cH
	DB	03H
	DB	093H
	DB	0f9H
	DB	06eH
	DB	09H
	DB	03H
	DB	03H
	DB	03H
	DB	03H
	DB	03H
	DB	03H
	DB	0bH
	DB	0b0H
	DB	046H
	DB	086H
	DB	03H
	DB	03H
	DB	04cH
	DB	0dcH
	DB	0ddH
	DB	04cH
	DB	03H
	DB	03H
	DB	049H
	DB	07H
	DB	074H
	DB	0f2H
	DB	03H
	DB	03H
	DB	03H
	DB	03H
	DB	03H
	DB	03H
	DB	03H
	DB	03H
	DB	0bH
	DB	04dH
	DB	0bH
	DB	0bH
	DB	04dH
	DB	0b0H
	DB	0b2H
	DB	0b0H
	DB	08H
	DB	078H
	DB	011H
	DB	027H
	DB	08H
	DB	0c6H
	DB	0c6H
	DB	0c6H
	DB	0c6H
	DB	0c6H
	DB	0c6H
	DB	0c6H
	DB	0c6H
	DB	0c6H
	DB	06H
	DB	06H
	DB	06H
	DB	06H
	DB	06H
	DB	06H
	DB	06H
	DB	06H
	DB	06H
	DB	06H
	DB	06H
	DB	06H
	DB	06H
	DB	06H
	DB	06H
	DB	06H
	DB	06H
	DB	06H
	DB	06H
	DB	06H
	DB	06H
	DB	06H
	DB	06H
	DB	06H
	DB	06H
	DB	06H
	DB	06H
	DB	06H
	DB	06H
	DB	06H
	DB	06H
	DB	06H
	DB	06H
	DB	06H
	DB	06H
	DB	06H
	DB	027H
	DB	01H
	DB	01H
	DB	01H
	DB	01H
	DB	01H
	DB	01H
	DB	01H
	DB	01H
	DB	01H
	DB	01H
	DB	01H
	DB	01H
	DB	01H
	DB	026H
	DB	0a4H
	DB	06H
	DB	06H
	DB	06H
	DB	06H
	DB	06H
	DB	06H
	DB	06H
	DB	06H
	DB	06H
	DB	06H
	DB	06H
	DB	06H
	DB	06H
	DB	06H
	DB	06H
	DB	06H
	DB	06H
	DB	06H
	DB	06H
	DB	06H
	DB	06H
	DB	06H
	DB	06H
	DB	06H
	DB	06H
	DB	039H
	DB	01eH
	DB	01eH
	DB	014H
	DB	064H
	DB	065H
	DB	0fH
	DB	0fH
	DB	0fH
	DB	081H
	DB	019H
	DB	02eH
	DB	047H
	DB	0eH
	DB	0eH
	DB	032H
	DB	032H
	DB	0dH
	DB	022H
	DB	0cH
	DB	034H
	DB	034H
	DB	01aH
	DB	0aH
	DB	0aH
	DB	0aH
	DB	0aH
	DB	0aH
	DB	01aH
	DB	0cH
	DB	0cH
	DB	022H
	DB	022H
	DB	022H
	DB	0dH
	DB	06fH
	DB	05cH
	DB	063H
	DB	063H
	DB	039H
	DB	043H
	DB	023H
	DB	054H
	DB	03cH
	DB	03H
	DB	0b2H
	DB	0b2H
	DB	0b0H
	DB	09H
	DB	0daH
	DB	04dH
	DB	09H
	DB	03H
	DB	03H
	DB	03H
	DB	03H
	DB	0d2H
	DB	036H
	DB	0dbH
	DB	03H
	DB	03H
	DB	036H
	DB	04cH
	DB	059H
	DB	0b0H
	DB	03H
	DB	094H
	DB	0d9H
	DB	04H
	DB	026H
	DB	0b0H
	DB	03H
	DB	03H
	DB	03H
	DB	03H
	DB	03H
	DB	03H
	DB	03H
	DB	03H
	DB	03H
	DB	04fH
	DB	03H
	DB	04fH
	DB	046H
	DB	09dH
	DB	073H
	DB	051H
	DB	05fH
	DB	039H
	DB	0c6H
	DB	018H
	DB	011H
	DB	06H
	DB	06H
	DB	06H
	DB	06H
	DB	06H
	DB	06H
	DB	06H
	DB	06H
	DB	06H
	DB	06H
	DB	06H
	DB	06H
	DB	06H
	DB	06H
	DB	06H
	DB	06H
	DB	06H
	DB	06H
	DB	06H
	DB	06H
	DB	06H
	DB	06H
	DB	06H
	DB	06H
	DB	06H
	DB	06H
	DB	06H
	DB	06H
	DB	06H
	DB	06H
	DB	06H
	DB	06H
	DB	06H
	DB	06H
	DB	06H
	DB	06H
	DB	06H
	DB	06H
	DB	06H
	DB	06H
	DB	06H
	DB	06H
	DB	06H
	DB	06H
	DB	06H
	DB	0b5H
	DB	01H
	DB	01H
	DB	01H
	DB	01H
	DB	01H
	DB	01H
	DB	01H
	DB	01H
	DB	01H
	DB	01H
	DB	01H
	DB	01H
	DB	01H
	DB	026H
	DB	0a4H
	DB	06H
	DB	06H
	DB	06H
	DB	06H
	DB	06H
	DB	06H
	DB	06H
	DB	06H
	DB	06H
	DB	06H
	DB	06H
	DB	06H
	DB	06H
	DB	06H
	DB	06H
	DB	06H
	DB	06H
	DB	06H
	DB	06H
	DB	06H
	DB	06H
	DB	06H
	DB	06H
	DB	06H
	DB	06H
	DB	057H
	DB	076H
	DB	076H
	DB	0a6H
	DB	014H
	DB	064H
	DB	065H
	DB	0fH
	DB	0fH
	DB	019H
	DB	019H
	DB	02eH
	DB	02eH
	DB	047H
	DB	0eH
	DB	032H
	DB	032H
	DB	0dH
	DB	0dH
	DB	022H
	DB	0cH
	DB	0cH
	DB	034H
	DB	01aH
	DB	0aH
	DB	067H
	DB	0aH
	DB	0aH
	DB	067H
	DB	034H
	DB	0cH
	DB	090H
	DB	022H
	DB	022H
	DB	022H
	DB	0a1H
	DB	020H
	DB	04aH
	DB	074H
	DB	039H
	DB	063H
	DB	023H
	DB	063H
	DB	02H
	DB	03H
	DB	03H
	DB	03H
	DB	08bH
	DB	0b2H
	DB	02H
	DB	01fH
	DB	0daH
	DB	03H
	DB	03H
	DB	03H
	DB	03H
	DB	0acH
	DB	060H
	DB	049H
	DB	086H
	DB	094H
	DB	03H
	DB	0c0H
	DB	086H
	DB	0b2H
	DB	03H
	DB	04fH
	DB	0a4H
	DB	0c5H
	DB	0dfH
	DB	0b2H
	DB	03H
	DB	03H
	DB	03H
	DB	03H
	DB	03H
	DB	03H
	DB	03H
	DB	03H
	DB	03H
	DB	03H
	DB	0b0H
	DB	09bH
	DB	03cH
	DB	04dH
	DB	0d4H
	DB	0f4H
	DB	09dH
	DB	045H
	DB	059H
	DB	039H
	DB	07eH
	DB	087H
	DB	023H
	DB	055H
	DB	087H
	DB	075H
	DB	042H
	DB	071H
	DB	039H
	DB	06H
	DB	06H
	DB	06H
	DB	06H
	DB	06H
	DB	06H
	DB	06H
	DB	06H
	DB	06H
	DB	06H
	DB	06H
	DB	06H
	DB	06H
	DB	06H
	DB	06H
	DB	06H
	DB	06H
	DB	06H
	DB	06H
	DB	06H
	DB	06H
	DB	06H
	DB	06H
	DB	06H
	DB	06H
	DB	06H
	DB	06H
	DB	06H
	DB	06H
	DB	06H
	DB	06H
	DB	06H
	DB	06H
	DB	06H
	DB	06H
	DB	06H
	DB	06H
	DB	0b5H
	DB	01H
	DB	01H
	DB	01H
	DB	01H
	DB	01H
	DB	01H
	DB	01H
	DB	01H
	DB	01H
	DB	01H
	DB	01H
	DB	01H
	DB	01H
	DB	026H
	DB	0a4H
	DB	06H
	DB	06H
	DB	06H
	DB	06H
	DB	06H
	DB	06H
	DB	06H
	DB	06H
	DB	06H
	DB	06H
	DB	06H
	DB	06H
	DB	06H
	DB	06H
	DB	06H
	DB	06H
	DB	06H
	DB	06H
	DB	06H
	DB	06H
	DB	06H
	DB	06H
	DB	06H
	DB	06H
	DB	06H
	DB	056H
	DB	020H
	DB	020H
	DB	09fH
	DB	01eH
	DB	014H
	DB	064H
	DB	064H
	DB	065H
	DB	019H
	DB	019H
	DB	02eH
	DB	047H
	DB	0eH
	DB	01cH
	DB	032H
	DB	0dH
	DB	0dH
	DB	01bH
	DB	022H
	DB	0cH
	DB	034H
	DB	034H
	DB	067H
	DB	034H
	DB	067H
	DB	067H
	DB	067H
	DB	034H
	DB	034H
	DB	0cH
	DB	034H
	DB	034H
	DB	0cH
	DB	0cH
	DB	01dH
	DB	013H
	DB	04aH
	DB	087H
	DB	078H
	DB	074H
	DB	087H
	DB	063H
	DB	046H
	DB	03H
	DB	0b2H
	DB	03dH
	DB	09H
	DB	086H
	DB	03H
	DB	03H
	DB	03H
	DB	03H
	DB	03H
	DB	03H
	DB	03H
	DB	04fH
	DB	046H
	DB	0fdH
	DB	03cH
	DB	09bH
	DB	03H
	DB	03H
	DB	03H
	DB	03H
	DB	09H
	DB	09dH
	DB	049H
	DB	016H
	DB	0e1H
	DB	03H
	DB	03H
	DB	03H
	DB	03H
	DB	03H
	DB	03H
	DB	03H
	DB	03H
	DB	03H
	DB	03H
	DB	03H
	DB	04H
	DB	078H
	DB	04dH
	DB	02H
	DB	04eH
	DB	03dH
	DB	0bH
	DB	05fH
	DB	0a4H
	DB	04cH
	DB	095H
	DB	053H
	DB	03aH
	DB	062H
	DB	062H
	DB	050H
	DB	031H
	DB	04aH
	DB	010H
	DB	042H
	DB	06H
	DB	06H
	DB	06H
	DB	06H
	DB	06H
	DB	06H
	DB	06H
	DB	06H
	DB	06H
	DB	06H
	DB	06H
	DB	06H
	DB	06H
	DB	06H
	DB	06H
	DB	06H
	DB	06H
	DB	06H
	DB	06H
	DB	06H
	DB	06H
	DB	06H
	DB	06H
	DB	06H
	DB	06H
	DB	06H
	DB	06H
	DB	06H
	DB	06H
	DB	06H
	DB	06H
	DB	06H
	DB	06H
	DB	06H
	DB	06H
	DB	06H
	DB	0b5H
	DB	01H
	DB	01H
	DB	01H
	DB	01H
	DB	01H
	DB	01H
	DB	01H
	DB	01H
	DB	01H
	DB	01H
	DB	01H
	DB	01H
	DB	01H
	DB	026H
	DB	0a4H
	DB	06H
	DB	06H
	DB	06H
	DB	06H
	DB	06H
	DB	06H
	DB	06H
	DB	06H
	DB	06H
	DB	06H
	DB	06H
	DB	06H
	DB	06H
	DB	06H
	DB	06H
	DB	06H
	DB	06H
	DB	06H
	DB	06H
	DB	06H
	DB	06H
	DB	06H
	DB	06H
	DB	06H
	DB	06H
	DB	070H
	DB	020H
	DB	020H
	DB	020H
	DB	09fH
	DB	01eH
	DB	014H
	DB	064H
	DB	0fH
	DB	0fH
	DB	019H
	DB	021H
	DB	0eH
	DB	0eH
	DB	0eH
	DB	032H
	DB	0dH
	DB	01bH
	DB	01bH
	DB	022H
	DB	0cH
	DB	034H
	DB	034H
	DB	034H
	DB	034H
	DB	034H
	DB	034H
	DB	0cH
	DB	0cH
	DB	034H
	DB	067H
	DB	0aH
	DB	0aH
	DB	0aH
	DB	0aH
	DB	01aH
	DB	0aH
	DB	082H
	DB	054H
	DB	039H
	DB	023H
	DB	023H
	DB	075H
	DB	09H
	DB	0b2H
	DB	0f9H
	DB	073H
	DB	09H
	DB	086H
	DB	0dbH
	DB	02H
	DB	0b2H
	DB	03H
	DB	03H
	DB	03H
	DB	03H
	DB	03H
	DB	086H
	DB	0bcH
	DB	07cH
	DB	0bH
	DB	089H
	DB	02H
	DB	049H
	DB	089H
	DB	086H
	DB	02H
	DB	0d3H
	DB	048H
	DB	09bH
	DB	03H
	DB	03H
	DB	03H
	DB	03H
	DB	03H
	DB	03H
	DB	03H
	DB	03H
	DB	03H
	DB	03H
	DB	03H
	DB	0bH
	DB	049H
	DB	0b2H
	DB	02H
	DB	04dH
	DB	04fH
	DB	0b2H
	DB	0d3H
	DB	066H
	DB	07H
	DB	07fH
	DB	02fH
	DB	040H
	DB	055H
	DB	04aH
	DB	010H
	DB	020H
	DB	020H
	DB	02bH
	DB	02bH
	DB	014H
	DB	039H
	DB	06H
	DB	06H
	DB	06H
	DB	06H
	DB	06H
	DB	06H
	DB	06H
	DB	06H
	DB	06H
	DB	06H
	DB	06H
	DB	06H
	DB	06H
	DB	06H
	DB	06H
	DB	06H
	DB	06H
	DB	06H
	DB	06H
	DB	06H
	DB	06H
	DB	06H
	DB	06H
	DB	06H
	DB	06H
	DB	06H
	DB	06H
	DB	06H
	DB	06H
	DB	06H
	DB	06H
	DB	06H
	DB	06H
	DB	06H
	DB	027H
	DB	01H
	DB	01H
	DB	01H
	DB	01H
	DB	01H
	DB	01H
	DB	01H
	DB	01H
	DB	01H
	DB	01H
	DB	01H
	DB	01H
	DB	01H
	DB	026H
	DB	07H
	DB	059H
	DB	059H
	DB	059H
	DB	059H
	DB	059H
	DB	059H
	DB	059H
	DB	059H
	DB	059H
	DB	059H
	DB	059H
	DB	059H
	DB	059H
	DB	059H
	DB	059H
	DB	059H
	DB	059H
	DB	059H
	DB	059H
	DB	059H
	DB	059H
	DB	059H
	DB	059H
	DB	059H
	DB	08H
	DB	04bH
	DB	010H
	DB	010H
	DB	010H
	DB	010H
	DB	09fH
	DB	014H
	DB	064H
	DB	0fH
	DB	0fH
	DB	019H
	DB	021H
	DB	0eH
	DB	0eH
	DB	0eH
	DB	01cH
	DB	032H
	DB	0dH
	DB	01bH
	DB	01bH
	DB	022H
	DB	0cH
	DB	0cH
	DB	0cH
	DB	0cH
	DB	03bH
	DB	03bH
	DB	03bH
	DB	0cH
	DB	01aH
	DB	0aH
	DB	068H
	DB	068H
	DB	035H
	DB	0aH
	DB	0aH
	DB	01aH
	DB	0aH
	DB	099H
	DB	0a8H
	DB	023H
	DB	054H
	DB	075H
	DB	09H
	DB	0b2H
	DB	05aH
	DB	0dbH
	DB	09H
	DB	049H
	DB	05H
	DB	05H
	DB	0dbH
	DB	03H
	DB	03H
	DB	03H
	DB	03H
	DB	03H
	DB	03H
	DB	049H
	DB	09dH
	DB	03cH
	DB	091H
	DB	09dH
	DB	0fdH
	DB	066H
	DB	09H
	DB	059H
	DB	05bH
	DB	048H
	DB	09cH
	DB	03H
	DB	03H
	DB	03H
	DB	03H
	DB	03H
	DB	03H
	DB	03H
	DB	03H
	DB	03H
	DB	03H
	DB	0b2H
	DB	03H
	DB	0b2H
	DB	0b0H
	DB	046H
	DB	09cH
	DB	0fdH
	DB	0b1H
	DB	09dH
	DB	066H
	DB	05fH
	DB	043H
	DB	053H
	DB	055H
	DB	010H
	DB	06fH
	DB	02aH
	DB	065H
	DB	065H
	DB	08eH
	DB	08eH
	DB	08eH
	DB	08eH
	DB	06bH
	DB	098H
	DB	08H
	DB	059H
	DB	059H
	DB	059H
	DB	059H
	DB	059H
	DB	059H
	DB	059H
	DB	059H
	DB	059H
	DB	059H
	DB	059H
	DB	059H
	DB	059H
	DB	059H
	DB	059H
	DB	059H
	DB	059H
	DB	059H
	DB	059H
	DB	059H
	DB	059H
	DB	059H
	DB	059H
	DB	059H
	DB	059H
	DB	059H
	DB	059H
	DB	059H
	DB	059H
	DB	08H
	DB	098H
	DB	027H
	DB	01H
	DB	01H
	DB	01H
	DB	01H
	DB	01H
	DB	01H
	DB	01H
	DB	01H
	DB	01H
	DB	01H
	DB	01H
	DB	01H
	DB	01H
	DB	026H
	DB	05fH
	DB	0a4H
	DB	0a4H
	DB	0a4H
	DB	0a4H
	DB	0a4H
	DB	0a4H
	DB	0a4H
	DB	0a4H
	DB	0a4H
	DB	0a4H
	DB	0a4H
	DB	0a4H
	DB	0a4H
	DB	0a4H
	DB	0a4H
	DB	0a4H
	DB	0a4H
	DB	0a4H
	DB	0a4H
	DB	0a4H
	DB	0a4H
	DB	0a4H
	DB	0a4H
	DB	0a4H
	DB	0a4H
	DB	070H
	DB	010H
	DB	010H
	DB	010H
	DB	020H
	DB	09fH
	DB	014H
	DB	064H
	DB	065H
	DB	065H
	DB	019H
	DB	02eH
	DB	02eH
	DB	0eH
	DB	0eH
	DB	0eH
	DB	01cH
	DB	032H
	DB	0dH
	DB	01bH
	DB	022H
	DB	022H
	DB	0cH
	DB	0cH
	DB	0cH
	DB	022H
	DB	0cH
	DB	0cH
	DB	067H
	DB	0aH
	DB	068H
	DB	068H
	DB	035H
	DB	035H
	DB	0aH
	DB	0aH
	DB	0aH
	DB	035H
	DB	038H
	DB	03bH
	DB	075H
	DB	023H
	DB	075H
	DB	04eH
	DB	03H
	DB	03H
	DB	094H
	DB	0b0H
	DB	094H
	DB	0bH
	DB	0c0H
	DB	03H
	DB	03H
	DB	03H
	DB	03H
	DB	03H
	DB	03H
	DB	03H
	DB	03H
	DB	03H
	DB	036H
	DB	05eH
	DB	09dH
	DB	0d2H
	DB	07bH
	DB	05fH
	DB	016H
	DB	0a7H
	DB	07fH
	DB	098H
	DB	03H
	DB	03H
	DB	03H
	DB	03H
	DB	03H
	DB	03H
	DB	03H
	DB	03H
	DB	03H
	DB	03H
	DB	03H
	DB	03H
	DB	060H
	DB	045H
	DB	05H
	DB	09bH
	DB	085H
	DB	0f3H
	DB	036H
	DB	04cH
	DB	05H
	DB	042H
	DB	053H
	DB	010H
	DB	02aH
	DB	08eH
	DB	019H
	DB	019H
	DB	019H
	DB	019H
	DB	015H
	DB	047H
	DB	047H
	DB	015H
	DB	0b7H
	DB	08H
	DB	0a4H
	DB	0a4H
	DB	0a4H
	DB	0a4H
	DB	0a4H
	DB	0a4H
	DB	0a4H
	DB	0a4H
	DB	0a4H
	DB	0a4H
	DB	0a4H
	DB	0a4H
	DB	0a4H
	DB	0a4H
	DB	0a4H
	DB	0a4H
	DB	0a4H
	DB	0a4H
	DB	0a4H
	DB	0a4H
	DB	0a4H
	DB	0a4H
	DB	0a4H
	DB	0a4H
	DB	0a4H
	DB	0a4H
	DB	0a4H
	DB	0a4H
	DB	0a4H
	DB	0a4H
	DB	08H
	DB	0a7H
	DB	01H
	DB	01H
	DB	01H
	DB	01H
	DB	01H
	DB	01H
	DB	01H
	DB	01H
	DB	01H
	DB	01H
	DB	01H
	DB	01H
	DB	01H
	DB	026H
	DB	05fH
	DB	0a4H
	DB	0a4H
	DB	0a4H
	DB	0a4H
	DB	0a4H
	DB	0a4H
	DB	0a4H
	DB	0a4H
	DB	0a4H
	DB	0a4H
	DB	0a4H
	DB	0a4H
	DB	0a4H
	DB	0a4H
	DB	0a4H
	DB	0a4H
	DB	0a4H
	DB	0a4H
	DB	0a4H
	DB	0a4H
	DB	0a4H
	DB	0a4H
	DB	0a4H
	DB	0a4H
	DB	0eeH
	DB	070H
	DB	05cH
	DB	05cH
	DB	0b4H
	DB	010H
	DB	09fH
	DB	014H
	DB	064H
	DB	064H
	DB	065H
	DB	0fH
	DB	02eH
	DB	02eH
	DB	0eH
	DB	0eH
	DB	0eH
	DB	032H
	DB	032H
	DB	0dH
	DB	0dH
	DB	01bH
	DB	01bH
	DB	01bH
	DB	01bH
	DB	01bH
	DB	022H
	DB	034H
	DB	0aH
	DB	0aH
	DB	0aH
	DB	068H
	DB	0aH
	DB	0aH
	DB	0aH
	DB	0aH
	DB	068H
	DB	068H
	DB	068H
	DB	0aH
	DB	068H
	DB	099H
	DB	063H
	DB	054H
	DB	03cH
	DB	03H
	DB	03H
	DB	04fH
	DB	046H
	DB	094H
	DB	03H
	DB	03H
	DB	03H
	DB	03H
	DB	03H
	DB	03H
	DB	03H
	DB	03H
	DB	03H
	DB	03H
	DB	03H
	DB	03H
	DB	03H
	DB	04fH
	DB	094H
	DB	094H
	DB	071H
	DB	053H
	DB	08dH
	DB	0ddH
	DB	018H
	DB	03H
	DB	03H
	DB	03H
	DB	03H
	DB	03H
	DB	03H
	DB	03H
	DB	03H
	DB	03H
	DB	03H
	DB	03H
	DB	03H
	DB	04eH
	DB	03cH
	DB	09H
	DB	061H
	DB	061H
	DB	093H
	DB	0bH
	DB	01fH
	DB	05H
	DB	011H
	DB	04aH
	DB	081H
	DB	019H
	DB	047H
	DB	047H
	DB	015H
	DB	015H
	DB	015H
	DB	015H
	DB	047H
	DB	032H
	DB	028H
	DB	015H
	DB	021H
	DB	04cH
	DB	0a4H
	DB	0a4H
	DB	0a4H
	DB	0a4H
	DB	0a4H
	DB	0a4H
	DB	0a4H
	DB	0a4H
	DB	0a4H
	DB	0a4H
	DB	0a4H
	DB	0a4H
	DB	0a4H
	DB	0a4H
	DB	0a4H
	DB	0a4H
	DB	0a4H
	DB	0a4H
	DB	0a4H
	DB	0a4H
	DB	0a4H
	DB	0a4H
	DB	0a4H
	DB	0a4H
	DB	0a4H
	DB	0a4H
	DB	0a4H
	DB	0a4H
	DB	0a4H
	DB	0a4H
	DB	0a7H
	DB	01H
	DB	01H
	DB	01H
	DB	01H
	DB	01H
	DB	01H
	DB	01H
	DB	01H
	DB	01H
	DB	01H
	DB	01H
	DB	01H
	DB	01H
	DB	026H
	DB	05H
	DB	0eeH
	DB	0eeH
	DB	0eeH
	DB	0eeH
	DB	0eeH
	DB	0eeH
	DB	0eeH
	DB	0eeH
	DB	0eeH
	DB	0eeH
	DB	0eeH
	DB	0eeH
	DB	0eeH
	DB	0eeH
	DB	0eeH
	DB	0eeH
	DB	0eeH
	DB	0eeH
	DB	0eeH
	DB	0eeH
	DB	0eeH
	DB	0eeH
	DB	0eeH
	DB	0eeH
	DB	0eeH
	DB	042H
	DB	05cH
	DB	05cH
	DB	010H
	DB	020H
	DB	09fH
	DB	01eH
	DB	014H
	DB	014H
	DB	065H
	DB	081H
	DB	02eH
	DB	02eH
	DB	02eH
	DB	021H
	DB	0eH
	DB	0eH
	DB	0eH
	DB	01cH
	DB	032H
	DB	0dH
	DB	032H
	DB	0dH
	DB	01bH
	DB	03bH
	DB	034H
	DB	0aH
	DB	0aH
	DB	0aH
	DB	0aH
	DB	0aH
	DB	0aH
	DB	01aH
	DB	0aH
	DB	068H
	DB	068H
	DB	068H
	DB	0aH
	DB	0aH
	DB	068H
	DB	068H
	DB	01cH
	DB	04aH
	DB	07cH
	DB	03H
	DB	0b1H
	DB	093H
	DB	09H
	DB	03dH
	DB	0b0H
	DB	04H
	DB	09H
	DB	03H
	DB	03H
	DB	03H
	DB	03H
	DB	03H
	DB	03H
	DB	03H
	DB	03H
	DB	03H
	DB	03H
	DB	03H
	DB	03H
	DB	03H
	DB	0c6H
	DB	01H
	DB	01H
	DB	048H
	DB	02H
	DB	03H
	DB	03H
	DB	03H
	DB	03H
	DB	03H
	DB	03H
	DB	03H
	DB	03H
	DB	03H
	DB	0b2H
	DB	0b2H
	DB	04fH
	DB	0b2H
	DB	03H
	DB	0bH
	DB	04H
	DB	03cH
	DB	04fH
	DB	04fH
	DB	0d3H
	DB	05H
	DB	07bH
	DB	081H
	DB	0b8H
	DB	015H
	DB	015H
	DB	015H
	DB	015H
	DB	06cH
	DB	015H
	DB	015H
	DB	015H
	DB	0b9H
	DB	0b9H
	DB	047H
	DB	015H
	DB	0e8H
	DB	0eeH
	DB	0eeH
	DB	0eeH
	DB	0eeH
	DB	0eeH
	DB	0eeH
	DB	0eeH
	DB	0eeH
	DB	0eeH
	DB	0eeH
	DB	0eeH
	DB	0eeH
	DB	0eeH
	DB	0eeH
	DB	0eeH
	DB	0eeH
	DB	0eeH
	DB	0eeH
	DB	0eeH
	DB	0eeH
	DB	0eeH
	DB	0eeH
	DB	0eeH
	DB	0eeH
	DB	0eeH
	DB	0eeH
	DB	0eeH
	DB	0eeH
	DB	0eeH
	DB	0a4H
	DB	0a7H
	DB	01H
	DB	01H
	DB	01H
	DB	01H
	DB	01H
	DB	01H
	DB	01H
	DB	01H
	DB	01H
	DB	01H
	DB	01H
	DB	01H
	DB	01H
	DB	026H
	DB	05H
	DB	0eeH
	DB	0eeH
	DB	0eeH
	DB	0eeH
	DB	0eeH
	DB	0eeH
	DB	0eeH
	DB	0eeH
	DB	0eeH
	DB	0eeH
	DB	0eeH
	DB	0eeH
	DB	0eeH
	DB	0eeH
	DB	0eeH
	DB	0eeH
	DB	0eeH
	DB	0eeH
	DB	0eeH
	DB	0eeH
	DB	0eeH
	DB	0eeH
	DB	0eeH
	DB	0eeH
	DB	07H
	DB	069H
	DB	05cH
	DB	010H
	DB	010H
	DB	010H
	DB	020H
	DB	01eH
	DB	01eH
	DB	014H
	DB	064H
	DB	0fH
	DB	019H
	DB	02eH
	DB	02eH
	DB	02eH
	DB	02eH
	DB	02eH
	DB	0eH
	DB	0eH
	DB	0eH
	DB	032H
	DB	0dH
	DB	01bH
	DB	0cH
	DB	034H
	DB	034H
	DB	034H
	DB	034H
	DB	01aH
	DB	0aH
	DB	0aH
	DB	0aH
	DB	0aH
	DB	0aH
	DB	068H
	DB	068H
	DB	068H
	DB	068H
	DB	068H
	DB	0aH
	DB	0aH
	DB	035H
	DB	02eH
	DB	04cH
	DB	04fH
	DB	0beH
	DB	051H
	DB	02H
	DB	0b0H
	DB	0d3H
	DB	05H
	DB	0b0H
	DB	03H
	DB	03H
	DB	03H
	DB	03H
	DB	03H
	DB	03H
	DB	03H
	DB	03H
	DB	03H
	DB	03H
	DB	03H
	DB	03H
	DB	04fH
	DB	061H
	DB	016H
	DB	01H
	DB	059H
	DB	03H
	DB	03H
	DB	03H
	DB	03H
	DB	03H
	DB	03H
	DB	03H
	DB	03H
	DB	03H
	DB	03H
	DB	03H
	DB	0b2H
	DB	04fH
	DB	03dH
	DB	061H
	DB	04eH
	DB	02H
	DB	03cH
	DB	0feH
	DB	03dH
	DB	04H
	DB	07H
	DB	0b7H
	DB	019H
	DB	015H
	DB	015H
	DB	015H
	DB	015H
	DB	06cH
	DB	0eaH
	DB	06cH
	DB	06cH
	DB	0b6H
	DB	015H
	DB	047H
	DB	015H
	DB	015H
	DB	015H
	DB	0ceH
	DB	0eeH
	DB	0eeH
	DB	0eeH
	DB	0eeH
	DB	0eeH
	DB	0eeH
	DB	0eeH
	DB	0eeH
	DB	0eeH
	DB	0eeH
	DB	0eeH
	DB	0eeH
	DB	0eeH
	DB	0eeH
	DB	0eeH
	DB	0eeH
	DB	0eeH
	DB	0eeH
	DB	0eeH
	DB	0eeH
	DB	0eeH
	DB	0eeH
	DB	0eeH
	DB	0eeH
	DB	0eeH
	DB	0eeH
	DB	0eeH
	DB	0efH
	DB	0eeH
	DB	018H
	DB	01H
	DB	01H
	DB	01H
	DB	01H
	DB	01H
	DB	01H
	DB	01H
	DB	01H
	DB	01H
	DB	01H
	DB	01H
	DB	01H
	DB	01H
	DB	026H
	DB	05H
	DB	0efH
	DB	0efH
	DB	0efH
	DB	0efH
	DB	0efH
	DB	0efH
	DB	0efH
	DB	0efH
	DB	0efH
	DB	0efH
	DB	0efH
	DB	0efH
	DB	0efH
	DB	0efH
	DB	0efH
	DB	0efH
	DB	0efH
	DB	0efH
	DB	0efH
	DB	0efH
	DB	0efH
	DB	0efH
	DB	0efH
	DB	0efH
	DB	07H
	DB	039H
	DB	04aH
	DB	010H
	DB	010H
	DB	010H
	DB	020H
	DB	020H
	DB	09fH
	DB	014H
	DB	014H
	DB	064H
	DB	0fH
	DB	019H
	DB	02eH
	DB	019H
	DB	02eH
	DB	0eH
	DB	0eH
	DB	0eH
	DB	032H
	DB	0dH
	DB	01bH
	DB	03bH
	DB	03bH
	DB	0cH
	DB	0cH
	DB	034H
	DB	034H
	DB	01aH
	DB	01aH
	DB	0aH
	DB	068H
	DB	068H
	DB	0aH
	DB	0aH
	DB	0aH
	DB	068H
	DB	068H
	DB	068H
	DB	068H
	DB	067H
	DB	0aH
	DB	01dH
	DB	09aH
	DB	04fH
	DB	03dH
	DB	03H
	DB	0dbH
	DB	086H
	DB	04fH
	DB	0b2H
	DB	03H
	DB	03H
	DB	03H
	DB	03H
	DB	03H
	DB	03H
	DB	03H
	DB	03H
	DB	03H
	DB	03H
	DB	03H
	DB	03H
	DB	03H
	DB	086H
	DB	09H
	DB	059H
	DB	025H
	DB	04H
	DB	04fH
	DB	03H
	DB	03H
	DB	03H
	DB	03H
	DB	03H
	DB	03H
	DB	03H
	DB	03H
	DB	03H
	DB	03H
	DB	0b2H
	DB	03H
	DB	04dH
	DB	078H
	DB	04H
	DB	04dH
	DB	04dH
	DB	08aH
	DB	06eH
	DB	04dH
	DB	08fH
	DB	065H
	DB	015H
	DB	015H
	DB	015H
	DB	015H
	DB	015H
	DB	0eaH
	DB	0eaH
	DB	080H
	DB	02cH
	DB	02cH
	DB	02cH
	DB	0b6H
	DB	015H
	DB	015H
	DB	0b6H
	DB	082H
	DB	07H
	DB	0efH
	DB	0efH
	DB	0efH
	DB	0efH
	DB	0efH
	DB	0efH
	DB	0efH
	DB	0efH
	DB	0efH
	DB	0efH
	DB	0efH
	DB	0efH
	DB	0efH
	DB	0efH
	DB	0efH
	DB	0efH
	DB	0efH
	DB	0efH
	DB	0efH
	DB	0efH
	DB	0efH
	DB	0efH
	DB	0efH
	DB	0efH
	DB	0efH
	DB	0efH
	DB	07H
	DB	0efH
	DB	018H
	DB	01H
	DB	01H
	DB	01H
	DB	01H
	DB	01H
	DB	01H
	DB	01H
	DB	01H
	DB	01H
	DB	01H
	DB	01H
	DB	01H
	DB	01H
	DB	016H
	DB	05H
	DB	07H
	DB	07H
	DB	07H
	DB	07H
	DB	07H
	DB	07H
	DB	07H
	DB	07H
	DB	07H
	DB	07H
	DB	07H
	DB	07H
	DB	07H
	DB	07H
	DB	07H
	DB	07H
	DB	07H
	DB	07H
	DB	07H
	DB	07H
	DB	07H
	DB	07H
	DB	07H
	DB	07H
	DB	07H
	DB	078H
	DB	05cH
	DB	010H
	DB	010H
	DB	010H
	DB	020H
	DB	020H
	DB	09fH
	DB	014H
	DB	014H
	DB	064H
	DB	0fH
	DB	0fH
	DB	019H
	DB	019H
	DB	019H
	DB	02eH
	DB	047H
	DB	0eH
	DB	032H
	DB	0dH
	DB	0dH
	DB	01bH
	DB	03bH
	DB	01bH
	DB	022H
	DB	034H
	DB	034H
	DB	01aH
	DB	01aH
	DB	0aH
	DB	0aH
	DB	068H
	DB	0aH
	DB	0aH
	DB	0aH
	DB	0aH
	DB	067H
	DB	0aH
	DB	0aH
	DB	0aH
	DB	01aH
	DB	0abH
	DB	067H
	DB	093H
	DB	03H
	DB	03H
	DB	08cH
	DB	09H
	DB	0b2H
	DB	03H
	DB	08cH
	DB	03H
	DB	03H
	DB	03H
	DB	03H
	DB	03H
	DB	03H
	DB	03H
	DB	03H
	DB	03H
	DB	03H
	DB	03H
	DB	0b2H
	DB	086H
	DB	049H
	DB	018H
	DB	048H
	DB	049H
	DB	03H
	DB	03H
	DB	03H
	DB	03H
	DB	03H
	DB	03H
	DB	03H
	DB	03H
	DB	03H
	DB	03H
	DB	03H
	DB	03H
	DB	03H
	DB	049H
	DB	036H
	DB	049H
	DB	061H
	DB	0acH
	DB	0f5H
	DB	051H
	DB	07cH
	DB	0fH
	DB	019H
	DB	015H
	DB	015H
	DB	0b8H
	DB	07aH
	DB	07aH
	DB	0b6H
	DB	080H
	DB	02cH
	DB	015H
	DB	015H
	DB	019H
	DB	02cH
	DB	02cH
	DB	015H
	DB	015H
	DB	047H
	DB	066H
	DB	07H
	DB	07H
	DB	07H
	DB	07H
	DB	07H
	DB	07H
	DB	07H
	DB	07H
	DB	07H
	DB	07H
	DB	07H
	DB	07H
	DB	07H
	DB	07H
	DB	07H
	DB	07H
	DB	07H
	DB	07H
	DB	07H
	DB	07H
	DB	07H
	DB	07H
	DB	07H
	DB	07H
	DB	07H
	DB	07H
	DB	07H
	DB	07H
	DB	018H
	DB	01H
	DB	01H
	DB	01H
	DB	01H
	DB	01H
	DB	01H
	DB	01H
	DB	01H
	DB	01H
	DB	01H
	DB	01H
	DB	01H
	DB	01H
	DB	016H
	DB	0f1H
	DB	07H
	DB	07H
	DB	07H
	DB	07H
	DB	07H
	DB	07H
	DB	07H
	DB	07H
	DB	07H
	DB	07H
	DB	07H
	DB	07H
	DB	07H
	DB	07H
	DB	07H
	DB	07H
	DB	07H
	DB	07H
	DB	07H
	DB	07H
	DB	07H
	DB	07H
	DB	07H
	DB	07H
	DB	0f0H
	DB	045H
	DB	05cH
	DB	010H
	DB	020H
	DB	010H
	DB	020H
	DB	020H
	DB	09fH
	DB	014H
	DB	014H
	DB	064H
	DB	0fH
	DB	0fH
	DB	0fH
	DB	0fH
	DB	0fH
	DB	019H
	DB	0eH
	DB	013H
	DB	013H
	DB	013H
	DB	0dH
	DB	0dH
	DB	01bH
	DB	01bH
	DB	01bH
	DB	0cH
	DB	0cH
	DB	034H
	DB	0aH
	DB	01aH
	DB	0aH
	DB	0aH
	DB	0aH
	DB	0aH
	DB	0aH
	DB	0aH
	DB	034H
	DB	034H
	DB	01aH
	DB	01aH
	DB	034H
	DB	01aH
	DB	01aH
	DB	0d5H
	DB	0b2H
	DB	03H
	DB	0feH
	DB	0dbH
	DB	049H
	DB	04H
	DB	0f1H
	DB	09H
	DB	03H
	DB	03H
	DB	03H
	DB	03H
	DB	03H
	DB	03H
	DB	03H
	DB	03H
	DB	03H
	DB	03H
	DB	03H
	DB	086H
	DB	0b0H
	DB	0a7H
	DB	0a7H
	DB	03H
	DB	03H
	DB	03H
	DB	03H
	DB	03H
	DB	03H
	DB	03H
	DB	03H
	DB	03H
	DB	03H
	DB	03H
	DB	03H
	DB	03H
	DB	03H
	DB	04fH
	DB	0dbH
	DB	049H
	DB	03cH
	DB	03cH
	DB	049H
	DB	03dH
	DB	07cH
	DB	0fH
	DB	08eH
	DB	019H
	DB	015H
	DB	0b8H
	DB	07aH
	DB	07aH
	DB	080H
	DB	06cH
	DB	0a2H
	DB	090H
	DB	090H
	DB	090H
	DB	0eH
	DB	02cH
	DB	079H
	DB	015H
	DB	015H
	DB	083H
	DB	0f0H
	DB	07H
	DB	07H
	DB	07H
	DB	07H
	DB	07H
	DB	07H
	DB	07H
	DB	07H
	DB	07H
	DB	07H
	DB	07H
	DB	07H
	DB	07H
	DB	07H
	DB	07H
	DB	07H
	DB	07H
	DB	07H
	DB	07H
	DB	07H
	DB	07H
	DB	07H
	DB	07H
	DB	07H
	DB	07H
	DB	07H
	DB	07H
	DB	018H
	DB	01H
	DB	01H
	DB	01H
	DB	01H
	DB	01H
	DB	01H
	DB	01H
	DB	01H
	DB	01H
	DB	01H
	DB	01H
	DB	01H
	DB	01H
	DB	016H
	DB	0f1H
	DB	07H
	DB	07H
	DB	07H
	DB	07H
	DB	07H
	DB	07H
	DB	07H
	DB	07H
	DB	07H
	DB	07H
	DB	07H
	DB	07H
	DB	07H
	DB	07H
	DB	07H
	DB	07H
	DB	07H
	DB	07H
	DB	07H
	DB	07H
	DB	07H
	DB	07H
	DB	07H
	DB	07H
	DB	0d1H
	DB	08H
	DB	075H
	DB	010H
	DB	010H
	DB	010H
	DB	010H
	DB	09fH
	DB	09fH
	DB	01eH
	DB	014H
	DB	064H
	DB	065H
	DB	065H
	DB	065H
	DB	0fH
	DB	019H
	DB	02eH
	DB	02eH
	DB	021H
	DB	01cH
	DB	013H
	DB	013H
	DB	0dH
	DB	01bH
	DB	01bH
	DB	01bH
	DB	022H
	DB	0cH
	DB	0cH
	DB	034H
	DB	034H
	DB	034H
	DB	01aH
	DB	01aH
	DB	01aH
	DB	0aH
	DB	068H
	DB	067H
	DB	0cH
	DB	0cH
	DB	01dH
	DB	034H
	DB	034H
	DB	01aH
	DB	01dH
	DB	092H
	DB	05aH
	DB	0beH
	DB	03cH
	DB	09H
	DB	02H
	DB	09H
	DB	0c0H
	DB	03H
	DB	03H
	DB	03H
	DB	03H
	DB	03H
	DB	03H
	DB	03H
	DB	03H
	DB	03H
	DB	03H
	DB	03H
	DB	086H
	DB	09H
	DB	04dH
	DB	02H
	DB	03H
	DB	03H
	DB	03H
	DB	03H
	DB	03H
	DB	03H
	DB	03H
	DB	03H
	DB	03H
	DB	03H
	DB	03H
	DB	03H
	DB	03H
	DB	03H
	DB	02H
	DB	08H
	DB	02H
	DB	061H
	DB	03cH
	DB	036H
	DB	036H
	DB	091H
	DB	02aH
	DB	02cH
	DB	02cH
	DB	079H
	DB	0b6H
	DB	07aH
	DB	058H
	DB	07aH
	DB	0b9H
	DB	028H
	DB	024H
	DB	01dH
	DB	0cH
	DB	0cbH
	DB	0eH
	DB	02aH
	DB	015H
	DB	015H
	DB	0a0H
	DB	0f0H
	DB	07H
	DB	07H
	DB	07H
	DB	07H
	DB	07H
	DB	07H
	DB	07H
	DB	07H
	DB	07H
	DB	07H
	DB	07H
	DB	07H
	DB	07H
	DB	07H
	DB	07H
	DB	07H
	DB	07H
	DB	07H
	DB	07H
	DB	07H
	DB	07H
	DB	07H
	DB	07H
	DB	07H
	DB	07H
	DB	07H
	DB	07H
	DB	018H
	DB	01H
	DB	01H
	DB	01H
	DB	01H
	DB	01H
	DB	01H
	DB	01H
	DB	01H
	DB	01H
	DB	01H
	DB	01H
	DB	01H
	DB	01H
	DB	016H
	DB	089H
	DB	0f0H
	DB	0f0H
	DB	0f0H
	DB	0f0H
	DB	0f0H
	DB	0f0H
	DB	0f0H
	DB	0f0H
	DB	0f0H
	DB	0f0H
	DB	0f0H
	DB	0f0H
	DB	0f0H
	DB	0f0H
	DB	0f0H
	DB	0f0H
	DB	0f0H
	DB	0f0H
	DB	0f0H
	DB	0f0H
	DB	0f0H
	DB	0f0H
	DB	0f0H
	DB	0f0H
	DB	01fH
	DB	07H
	DB	076H
	DB	0b4H
	DB	010H
	DB	010H
	DB	010H
	DB	076H
	DB	09fH
	DB	01eH
	DB	014H
	DB	064H
	DB	065H
	DB	065H
	DB	0fH
	DB	019H
	DB	019H
	DB	019H
	DB	02eH
	DB	02eH
	DB	0eH
	DB	0eH
	DB	0eH
	DB	013H
	DB	0dH
	DB	0dH
	DB	01bH
	DB	022H
	DB	0cH
	DB	0cH
	DB	0cH
	DB	0cH
	DB	01dH
	DB	01dH
	DB	01aH
	DB	01aH
	DB	01aH
	DB	0aH
	DB	067H
	DB	034H
	DB	034H
	DB	034H
	DB	034H
	DB	034H
	DB	01aH
	DB	01dH
	DB	01dH
	DB	092H
	DB	03dH
	DB	036H
	DB	03dH
	DB	0b2H
	DB	03H
	DB	03H
	DB	03H
	DB	03H
	DB	03H
	DB	03H
	DB	03H
	DB	03H
	DB	03H
	DB	03H
	DB	03H
	DB	03H
	DB	03H
	DB	086H
	DB	09H
	DB	02H
	DB	049H
	DB	03H
	DB	03H
	DB	03H
	DB	03H
	DB	03H
	DB	03H
	DB	03H
	DB	03H
	DB	03H
	DB	03H
	DB	03H
	DB	03H
	DB	03H
	DB	03H
	DB	0bH
	DB	046H
	DB	02H
	DB	05fH
	DB	06eH
	DB	0aeH
	DB	04eH
	DB	0caH
	DB	02aH
	DB	02aH
	DB	05dH
	DB	02cH
	DB	080H
	DB	0eaH
	DB	058H
	DB	058H
	DB	0ecH
	DB	0a2H
	DB	0a2H
	DB	0a9H
	DB	01dH
	DB	03bH
	DB	0cbH
	DB	019H
	DB	019H
	DB	015H
	DB	0a0H
	DB	088H
	DB	0f0H
	DB	0f0H
	DB	0f0H
	DB	0f0H
	DB	0f0H
	DB	0f0H
	DB	0f0H
	DB	0f0H
	DB	0f0H
	DB	0f0H
	DB	0f0H
	DB	0f0H
	DB	0f0H
	DB	0f0H
	DB	0f0H
	DB	0f0H
	DB	0f0H
	DB	0f0H
	DB	0f0H
	DB	0f0H
	DB	0f0H
	DB	0f0H
	DB	0f0H
	DB	0f0H
	DB	0f0H
	DB	01fH
	DB	07H
	DB	018H
	DB	01H
	DB	01H
	DB	01H
	DB	01H
	DB	01H
	DB	01H
	DB	01H
	DB	01H
	DB	01H
	DB	01H
	DB	01H
	DB	01H
	DB	01H
	DB	016H
	DB	0d3H
	DB	01fH
	DB	01fH
	DB	01fH
	DB	01fH
	DB	01fH
	DB	01fH
	DB	01fH
	DB	01fH
	DB	01fH
	DB	01fH
	DB	01fH
	DB	01fH
	DB	01fH
	DB	01fH
	DB	01fH
	DB	01fH
	DB	01fH
	DB	01fH
	DB	01fH
	DB	01fH
	DB	01fH
	DB	01fH
	DB	01fH
	DB	01fH
	DB	0d1H
	DB	01fH
	DB	04bH
	DB	0b4H
	DB	010H
	DB	010H
	DB	010H
	DB	020H
	DB	09fH
	DB	01eH
	DB	014H
	DB	064H
	DB	065H
	DB	065H
	DB	0fH
	DB	019H
	DB	02eH
	DB	02eH
	DB	02eH
	DB	021H
	DB	0eH
	DB	0eH
	DB	01cH
	DB	013H
	DB	0dH
	DB	0dH
	DB	01bH
	DB	0cbH
	DB	01bH
	DB	022H
	DB	0cH
	DB	0cH
	DB	034H
	DB	034H
	DB	034H
	DB	034H
	DB	034H
	DB	034H
	DB	034H
	DB	034H
	DB	034H
	DB	034H
	DB	0cH
	DB	01dH
	DB	01dH
	DB	01dH
	DB	01dH
	DB	0aH
	DB	0b2H
	DB	03H
	DB	0daH
	DB	03dH
	DB	04fH
	DB	09H
	DB	02H
	DB	03H
	DB	03H
	DB	03H
	DB	03H
	DB	03H
	DB	03H
	DB	03H
	DB	03H
	DB	03H
	DB	03H
	DB	04fH
	DB	0bH
	DB	0bH
	DB	04fH
	DB	03H
	DB	03H
	DB	03H
	DB	03H
	DB	03H
	DB	03H
	DB	03H
	DB	03H
	DB	03H
	DB	03H
	DB	03H
	DB	03H
	DB	03H
	DB	03H
	DB	04fH
	DB	04fH
	DB	036H
	DB	04dH
	DB	0acH
	DB	085H
	DB	0acH
	DB	057H
	DB	06fH
	DB	05dH
	DB	05dH
	DB	05dH
	DB	06aH
	DB	080H
	DB	06cH
	DB	0eaH
	DB	058H
	DB	0ecH
	DB	024H
	DB	0a2H
	DB	0cH
	DB	0cH
	DB	090H
	DB	013H
	DB	019H
	DB	047H
	DB	0a0H
	DB	088H
	DB	01fH
	DB	01fH
	DB	01fH
	DB	01fH
	DB	01fH
	DB	01fH
	DB	01fH
	DB	01fH
	DB	01fH
	DB	01fH
	DB	01fH
	DB	01fH
	DB	01fH
	DB	01fH
	DB	01fH
	DB	01fH
	DB	01fH
	DB	01fH
	DB	01fH
	DB	01fH
	DB	01fH
	DB	01fH
	DB	01fH
	DB	01fH
	DB	01fH
	DB	0d1H
	DB	01fH
	DB	018H
	DB	01H
	DB	01H
	DB	01H
	DB	01H
	DB	01H
	DB	01H
	DB	01H
	DB	01H
	DB	01H
	DB	01H
	DB	01H
	DB	01H
	DB	01H
	DB	016H
	DB	04H
	DB	0d1H
	DB	0d1H
	DB	0d1H
	DB	0d1H
	DB	0d1H
	DB	0d1H
	DB	0d1H
	DB	0d1H
	DB	0d1H
	DB	0d1H
	DB	0d1H
	DB	0d1H
	DB	0d1H
	DB	0d1H
	DB	0d1H
	DB	0d1H
	DB	0d1H
	DB	0d1H
	DB	0d1H
	DB	0d1H
	DB	0d1H
	DB	0d1H
	DB	0d1H
	DB	0d1H
	DB	088H
	DB	05fH
	DB	04bH
	DB	04aH
	DB	05cH
	DB	010H
	DB	010H
	DB	020H
	DB	020H
	DB	01eH
	DB	014H
	DB	014H
	DB	064H
	DB	065H
	DB	0fH
	DB	0fH
	DB	0fH
	DB	02eH
	DB	021H
	DB	021H
	DB	01cH
	DB	01cH
	DB	01cH
	DB	013H
	DB	0dH
	DB	0dH
	DB	0dH
	DB	01bH
	DB	022H
	DB	0cH
	DB	0cH
	DB	034H
	DB	034H
	DB	067H
	DB	067H
	DB	0aH
	DB	067H
	DB	034H
	DB	034H
	DB	067H
	DB	034H
	DB	034H
	DB	0cH
	DB	0cH
	DB	0cH
	DB	0cH
	DB	01dH
	DB	06dH
	DB	0afH
	DB	03H
	DB	08cH
	DB	0bH
	DB	046H
	DB	07H
	DB	05fH
	DB	04fH
	DB	03H
	DB	03H
	DB	03H
	DB	03H
	DB	03H
	DB	03H
	DB	03H
	DB	03H
	DB	03H
	DB	03H
	DB	03H
	DB	04fH
	DB	04fH
	DB	03H
	DB	03H
	DB	03H
	DB	03H
	DB	03H
	DB	03H
	DB	03H
	DB	03H
	DB	03H
	DB	03H
	DB	03H
	DB	03H
	DB	0c0H
	DB	061H
	DB	05fH
	DB	036H
	DB	061H
	DB	05fH
	DB	04eH
	DB	0aeH
	DB	07cH
	DB	014H
	DB	06fH
	DB	06fH
	DB	03fH
	DB	03fH
	DB	05dH
	DB	06aH
	DB	02cH
	DB	06cH
	DB	058H
	DB	0eaH
	DB	028H
	DB	0a2H
	DB	0a2H
	DB	0a9H
	DB	090H
	DB	0cbH
	DB	019H
	DB	047H
	DB	0ceH
	DB	05H
	DB	0d1H
	DB	0d1H
	DB	0d1H
	DB	0d1H
	DB	0d1H
	DB	0d1H
	DB	0d1H
	DB	0d1H
	DB	0d1H
	DB	0d1H
	DB	0d1H
	DB	0d1H
	DB	0d1H
	DB	0d1H
	DB	0d1H
	DB	0d1H
	DB	0d1H
	DB	0d1H
	DB	0d1H
	DB	0d1H
	DB	0d1H
	DB	0d1H
	DB	0d1H
	DB	0d1H
	DB	0d1H
	DB	088H
	DB	0d1H
	DB	018H
	DB	01H
	DB	01H
	DB	01H
	DB	01H
	DB	01H
	DB	01H
	DB	01H
	DB	01H
	DB	01H
	DB	01H
	DB	01H
	DB	01H
	DB	01H
	DB	016H
	DB	04H
	DB	05fH
	DB	05fH
	DB	05fH
	DB	05fH
	DB	05fH
	DB	05fH
	DB	05fH
	DB	05fH
	DB	05fH
	DB	05fH
	DB	05fH
	DB	05fH
	DB	05fH
	DB	05fH
	DB	05fH
	DB	05fH
	DB	05fH
	DB	05fH
	DB	05fH
	DB	05fH
	DB	05fH
	DB	05fH
	DB	05fH
	DB	05fH
	DB	05fH
	DB	05H
	DB	042H
	DB	04aH
	DB	010H
	DB	05cH
	DB	010H
	DB	010H
	DB	020H
	DB	09fH
	DB	01eH
	DB	014H
	DB	014H
	DB	064H
	DB	065H
	DB	0fH
	DB	0fH
	DB	081H
	DB	02eH
	DB	02eH
	DB	021H
	DB	01cH
	DB	01cH
	DB	013H
	DB	013H
	DB	01cH
	DB	0dH
	DB	01bH
	DB	01bH
	DB	01bH
	DB	03bH
	DB	0cH
	DB	034H
	DB	034H
	DB	067H
	DB	0aH
	DB	0aH
	DB	067H
	DB	034H
	DB	067H
	DB	034H
	DB	0cH
	DB	0cH
	DB	0cH
	DB	0cH
	DB	0cH
	DB	0cH
	DB	06dH
	DB	067H
	DB	05aH
	DB	05aH
	DB	03cH
	DB	0b0H
	DB	049H
	DB	04fH
	DB	03H
	DB	03H
	DB	03H
	DB	03H
	DB	03H
	DB	03H
	DB	03H
	DB	03H
	DB	03H
	DB	03H
	DB	03H
	DB	03H
	DB	03H
	DB	03H
	DB	03H
	DB	03H
	DB	03H
	DB	03H
	DB	03H
	DB	03H
	DB	03H
	DB	03H
	DB	03H
	DB	03H
	DB	03H
	DB	03H
	DB	0bH
	DB	066H
	DB	07H
	DB	061H
	DB	03cH
	DB	04dH
	DB	093H
	DB	04eH
	DB	091H
	DB	01eH
	DB	02bH
	DB	044H
	DB	02bH
	DB	044H
	DB	03fH
	DB	05dH
	DB	06aH
	DB	02cH
	DB	06cH
	DB	06cH
	DB	06cH
	DB	0a1H
	DB	028H
	DB	0a2H
	DB	0cbH
	DB	03bH
	DB	019H
	DB	02eH
	DB	091H
	DB	05H
	DB	05fH
	DB	05fH
	DB	05fH
	DB	05fH
	DB	05fH
	DB	05fH
	DB	05fH
	DB	05fH
	DB	05fH
	DB	05fH
	DB	05fH
	DB	05fH
	DB	05fH
	DB	05fH
	DB	05fH
	DB	05fH
	DB	05fH
	DB	05fH
	DB	05fH
	DB	05fH
	DB	05fH
	DB	05fH
	DB	05fH
	DB	05fH
	DB	05fH
	DB	05H
	DB	05fH
	DB	018H
	DB	01H
	DB	01H
	DB	01H
	DB	01H
	DB	01H
	DB	01H
	DB	01H
	DB	01H
	DB	01H
	DB	01H
	DB	01H
	DB	01H
	DB	01H
	DB	016H
	DB	0f2H
	DB	05H
	DB	05H
	DB	05H
	DB	05H
	DB	05H
	DB	05H
	DB	05H
	DB	05H
	DB	05H
	DB	05H
	DB	05H
	DB	05H
	DB	05H
	DB	05H
	DB	05H
	DB	05H
	DB	05H
	DB	05H
	DB	05H
	DB	05H
	DB	05H
	DB	05H
	DB	05H
	DB	05H
	DB	05H
	DB	0f1H
	DB	078H
	DB	04aH
	DB	05cH
	DB	05cH
	DB	010H
	DB	010H
	DB	010H
	DB	09fH
	DB	09fH
	DB	014H
	DB	014H
	DB	064H
	DB	064H
	DB	064H
	DB	0fH
	DB	0fH
	DB	081H
	DB	081H
	DB	02eH
	DB	021H
	DB	01cH
	DB	01cH
	DB	013H
	DB	013H
	DB	0dH
	DB	0dH
	DB	0dH
	DB	0dH
	DB	03bH
	DB	0cH
	DB	0cH
	DB	034H
	DB	034H
	DB	034H
	DB	067H
	DB	034H
	DB	034H
	DB	067H
	DB	067H
	DB	067H
	DB	0cH
	DB	0cH
	DB	0cH
	DB	0cH
	DB	0cH
	DB	01dH
	DB	022H
	DB	0aH
	DB	0fcH
	DB	0fdH
	DB	049H
	DB	04fH
	DB	03H
	DB	0daH
	DB	0b0H
	DB	03H
	DB	03H
	DB	03H
	DB	03H
	DB	03H
	DB	03H
	DB	03H
	DB	03H
	DB	03H
	DB	03H
	DB	03H
	DB	03H
	DB	03H
	DB	03H
	DB	03H
	DB	03H
	DB	03H
	DB	03H
	DB	03H
	DB	03H
	DB	03H
	DB	03H
	DB	03H
	DB	03H
	DB	086H
	DB	03dH
	DB	0bH
	DB	03cH
	DB	01fH
	DB	0aeH
	DB	0aeH
	DB	061H
	DB	045H
	DB	020H
	DB	020H
	DB	041H
	DB	041H
	DB	041H
	DB	097H
	DB	02bH
	DB	03fH
	DB	05dH
	DB	06aH
	DB	080H
	DB	02cH
	DB	079H
	DB	0b9H
	DB	0b9H
	DB	0dH
	DB	0cH
	DB	019H
	DB	01cH
	DB	05H
	DB	05H
	DB	05H
	DB	05H
	DB	05H
	DB	05H
	DB	05H
	DB	05H
	DB	05H
	DB	05H
	DB	05H
	DB	05H
	DB	05H
	DB	05H
	DB	05H
	DB	05H
	DB	05H
	DB	05H
	DB	05H
	DB	05H
	DB	05H
	DB	05H
	DB	05H
	DB	05H
	DB	05H
	DB	05H
	DB	05H
	DB	05H
	DB	05H
	DB	071H
	DB	01H
	DB	01H
	DB	01H
	DB	01H
	DB	01H
	DB	01H
	DB	01H
	DB	01H
	DB	01H
	DB	01H
	DB	01H
	DB	01H
	DB	01H
	DB	016H
	DB	0f2H
	DB	05H
	DB	05H
	DB	05H
	DB	05H
	DB	05H
	DB	05H
	DB	05H
	DB	05H
	DB	05H
	DB	05H
	DB	05H
	DB	05H
	DB	05H
	DB	05H
	DB	05H
	DB	05H
	DB	05H
	DB	05H
	DB	05H
	DB	05H
	DB	05H
	DB	05H
	DB	05H
	DB	05H
	DB	05H
	DB	0f1H
	DB	059H
	DB	04aH
	DB	010H
	DB	010H
	DB	010H
	DB	010H
	DB	010H
	DB	020H
	DB	09fH
	DB	01eH
	DB	014H
	DB	064H
	DB	064H
	DB	065H
	DB	065H
	DB	065H
	DB	0fH
	DB	081H
	DB	081H
	DB	021H
	DB	0eH
	DB	01cH
	DB	013H
	DB	099H
	DB	099H
	DB	0dH
	DB	0dH
	DB	0dH
	DB	0dH
	DB	03bH
	DB	0cH
	DB	0cH
	DB	0cH
	DB	0cH
	DB	0cH
	DB	0cH
	DB	01dH
	DB	034H
	DB	034H
	DB	034H
	DB	0cH
	DB	0cH
	DB	0cH
	DB	0cH
	DB	0cH
	DB	0cH
	DB	022H
	DB	0cH
	DB	05aH
	DB	03H
	DB	09H
	DB	0b0H
	DB	04fH
	DB	05fH
	DB	04H
	DB	0b2H
	DB	03H
	DB	03H
	DB	03H
	DB	03H
	DB	03H
	DB	03H
	DB	03H
	DB	03H
	DB	03H
	DB	03H
	DB	03H
	DB	03H
	DB	03H
	DB	03H
	DB	03H
	DB	03H
	DB	03H
	DB	03H
	DB	03H
	DB	03H
	DB	03H
	DB	03H
	DB	09H
	DB	05fH
	DB	02H
	DB	036H
	DB	03cH
	DB	04dH
	DB	05eH
	DB	0bcH
	DB	03cH
	DB	042H
	DB	041H
	DB	0c3H
	DB	033H
	DB	033H
	DB	033H
	DB	033H
	DB	097H
	DB	044H
	DB	03fH
	DB	03fH
	DB	06aH
	DB	06aH
	DB	06aH
	DB	079H
	DB	015H
	DB	0a1H
	DB	0cH
	DB	019H
	DB	0cfH
	DB	0f1H
	DB	05H
	DB	05H
	DB	05H
	DB	05H
	DB	05H
	DB	05H
	DB	05H
	DB	05H
	DB	05H
	DB	05H
	DB	05H
	DB	05H
	DB	05H
	DB	05H
	DB	05H
	DB	05H
	DB	05H
	DB	05H
	DB	05H
	DB	05H
	DB	05H
	DB	05H
	DB	05H
	DB	05H
	DB	05H
	DB	05H
	DB	05H
	DB	05H
	DB	071H
	DB	01H
	DB	01H
	DB	01H
	DB	01H
	DB	01H
	DB	01H
	DB	01H
	DB	01H
	DB	01H
	DB	01H
	DB	01H
	DB	01H
	DB	01H
	DB	016H
	DB	0f2H
	DB	05H
	DB	05H
	DB	05H
	DB	05H
	DB	05H
	DB	05H
	DB	05H
	DB	05H
	DB	05H
	DB	05H
	DB	05H
	DB	05H
	DB	05H
	DB	05H
	DB	05H
	DB	05H
	DB	05H
	DB	05H
	DB	05H
	DB	05H
	DB	05H
	DB	05H
	DB	05H
	DB	05H
	DB	05H
	DB	0f1H
	DB	066H
	DB	05cH
	DB	0b4H
	DB	0b4H
	DB	0b4H
	DB	0b4H
	DB	010H
	DB	020H
	DB	076H
	DB	01eH
	DB	01eH
	DB	014H
	DB	014H
	DB	064H
	DB	065H
	DB	065H
	DB	065H
	DB	0fH
	DB	081H
	DB	02eH
	DB	021H
	DB	021H
	DB	01cH
	DB	013H
	DB	099H
	DB	03bH
	DB	01bH
	DB	01bH
	DB	0dH
	DB	0dH
	DB	01bH
	DB	03bH
	DB	0cH
	DB	0cH
	DB	0cH
	DB	0cH
	DB	0cH
	DB	034H
	DB	0cH
	DB	0cH
	DB	0cH
	DB	0cH
	DB	0cH
	DB	0cH
	DB	0cH
	DB	0cH
	DB	022H
	DB	06dH
	DB	0afH
	DB	03H
	DB	03H
	DB	09H
	DB	046H
	DB	09H
	DB	094H
	DB	03H
	DB	03H
	DB	086H
	DB	03H
	DB	03H
	DB	03H
	DB	03H
	DB	03H
	DB	03H
	DB	03H
	DB	03H
	DB	03H
	DB	03H
	DB	03H
	DB	03H
	DB	03H
	DB	03H
	DB	03H
	DB	03H
	DB	03H
	DB	03H
	DB	03H
	DB	03H
	DB	09bH
	DB	05fH
	DB	04H
	DB	09H
	DB	05fH
	DB	046H
	DB	0d6H
	DB	05eH
	DB	04cH
	DB	070H
	DB	010H
	DB	0b4H
	DB	029H
	DB	09eH
	DB	09eH
	DB	09eH
	DB	033H
	DB	097H
	DB	044H
	DB	044H
	DB	03fH
	DB	03fH
	DB	06aH
	DB	06aH
	DB	08eH
	DB	0eH
	DB	090H
	DB	02eH
	DB	05H
	DB	0f1H
	DB	05H
	DB	05H
	DB	05H
	DB	05H
	DB	05H
	DB	05H
	DB	05H
	DB	05H
	DB	05H
	DB	05H
	DB	05H
	DB	05H
	DB	05H
	DB	05H
	DB	05H
	DB	05H
	DB	05H
	DB	05H
	DB	05H
	DB	05H
	DB	05H
	DB	05H
	DB	05H
	DB	05H
	DB	05H
	DB	05H
	DB	0f1H
	DB	05H
	DB	071H
	DB	01H
	DB	01H
	DB	01H
	DB	01H
	DB	01H
	DB	01H
	DB	01H
	DB	01H
	DB	01H
	DB	01H
	DB	01H
	DB	01H
	DB	01H
	DB	016H
	DB	09cH
	DB	0f1H
	DB	0f1H
	DB	0f1H
	DB	0f1H
	DB	0f1H
	DB	0f1H
	DB	0f1H
	DB	0f1H
	DB	0f1H
	DB	0f1H
	DB	0f1H
	DB	0f1H
	DB	0f1H
	DB	0f1H
	DB	0f1H
	DB	0f1H
	DB	0f1H
	DB	0f1H
	DB	0f1H
	DB	0f1H
	DB	0f1H
	DB	0f1H
	DB	0f1H
	DB	0f1H
	DB	0f1H
	DB	089H
	DB	05fH
	DB	076H
	DB	0b4H
	DB	010H
	DB	010H
	DB	010H
	DB	010H
	DB	010H
	DB	020H
	DB	09fH
	DB	01eH
	DB	01eH
	DB	014H
	DB	014H
	DB	064H
	DB	064H
	DB	065H
	DB	065H
	DB	0fH
	DB	081H
	DB	021H
	DB	021H
	DB	021H
	DB	01cH
	DB	013H
	DB	01bH
	DB	03bH
	DB	03bH
	DB	03bH
	DB	01bH
	DB	01bH
	DB	03bH
	DB	0cH
	DB	0cH
	DB	0cH
	DB	0cH
	DB	0cH
	DB	0cH
	DB	0cH
	DB	0cH
	DB	0cH
	DB	022H
	DB	022H
	DB	022H
	DB	022H
	DB	0cH
	DB	022H
	DB	022H
	DB	067H
	DB	0b2H
	DB	0b2H
	DB	093H
	DB	061H
	DB	086H
	DB	094H
	DB	094H
	DB	04H
	DB	05H
	DB	0dbH
	DB	03H
	DB	03H
	DB	03H
	DB	03H
	DB	03H
	DB	03H
	DB	03H
	DB	03H
	DB	03H
	DB	03H
	DB	03H
	DB	03H
	DB	03H
	DB	03H
	DB	03H
	DB	03H
	DB	03H
	DB	03H
	DB	036H
	DB	04fH
	DB	0bH
	DB	061H
	DB	05H
	DB	0aeH
	DB	0dbH
	DB	093H
	DB	0aeH
	DB	039H
	DB	042H
	DB	04aH
	DB	029H
	DB	02dH
	DB	02dH
	DB	02dH
	DB	09eH
	DB	09eH
	DB	033H
	DB	033H
	DB	044H
	DB	044H
	DB	03fH
	DB	03fH
	DB	05dH
	DB	02aH
	DB	0eH
	DB	028H
	DB	0e9H
	DB	089H
	DB	0f1H
	DB	0f1H
	DB	0f1H
	DB	0f1H
	DB	0f1H
	DB	0f1H
	DB	0f1H
	DB	0f1H
	DB	0f1H
	DB	0f1H
	DB	0f1H
	DB	0f1H
	DB	0f1H
	DB	0f1H
	DB	0f1H
	DB	0f1H
	DB	0f1H
	DB	0f1H
	DB	0f1H
	DB	0f1H
	DB	0f1H
	DB	0f1H
	DB	0f1H
	DB	0f1H
	DB	0f1H
	DB	0f1H
	DB	0f1H
	DB	0f1H
	DB	0f1H
	DB	071H
	DB	01H
	DB	01H
	DB	01H
	DB	01H
	DB	01H
	DB	01H
	DB	01H
	DB	01H
	DB	01H
	DB	01H
	DB	01H
	DB	01H
	DB	01H
	DB	016H
	DB	02H
	DB	089H
	DB	089H
	DB	089H
	DB	089H
	DB	089H
	DB	089H
	DB	089H
	DB	089H
	DB	089H
	DB	089H
	DB	089H
	DB	089H
	DB	089H
	DB	089H
	DB	089H
	DB	089H
	DB	089H
	DB	089H
	DB	089H
	DB	089H
	DB	089H
	DB	089H
	DB	089H
	DB	089H
	DB	089H
	DB	0d3H
	DB	0f1H
	DB	056H
	DB	0b4H
	DB	010H
	DB	010H
	DB	010H
	DB	010H
	DB	010H
	DB	020H
	DB	076H
	DB	01eH
	DB	01eH
	DB	014H
	DB	014H
	DB	064H
	DB	064H
	DB	064H
	DB	0fH
	DB	0fH
	DB	0fH
	DB	081H
	DB	021H
	DB	021H
	DB	082H
	DB	01cH
	DB	01cH
	DB	013H
	DB	03bH
	DB	0aaH
	DB	0aaH
	DB	0aaH
	DB	0aaH
	DB	0aaH
	DB	0aaH
	DB	0cH
	DB	0cH
	DB	0cH
	DB	0cH
	DB	0cH
	DB	0cH
	DB	0cH
	DB	022H
	DB	022H
	DB	022H
	DB	022H
	DB	022H
	DB	022H
	DB	022H
	DB	03bH
	DB	093H
	DB	05aH
	DB	0beH
	DB	04fH
	DB	046H
	DB	0b0H
	DB	086H
	DB	09bH
	DB	0f2H
	DB	0c0H
	DB	03H
	DB	0b0H
	DB	03H
	DB	03H
	DB	03H
	DB	03H
	DB	03H
	DB	03H
	DB	03H
	DB	03H
	DB	03H
	DB	03H
	DB	03H
	DB	03H
	DB	03H
	DB	03H
	DB	04fH
	DB	05H
	DB	0a4H
	DB	09H
	DB	0b0H
	DB	09cH
	DB	060H
	DB	06eH
	DB	0aeH
	DB	049H
	DB	07H
	DB	045H
	DB	074H
	DB	055H
	DB	02dH
	DB	02dH
	DB	02dH
	DB	02dH
	DB	02dH
	DB	02dH
	DB	09eH
	DB	09eH
	DB	033H
	DB	097H
	DB	044H
	DB	02bH
	DB	03fH
	DB	02aH
	DB	0b8H
	DB	021H
	DB	05H
	DB	0d3H
	DB	089H
	DB	089H
	DB	089H
	DB	089H
	DB	089H
	DB	089H
	DB	089H
	DB	089H
	DB	089H
	DB	089H
	DB	089H
	DB	089H
	DB	089H
	DB	089H
	DB	089H
	DB	089H
	DB	089H
	DB	089H
	DB	089H
	DB	089H
	DB	089H
	DB	089H
	DB	089H
	DB	089H
	DB	089H
	DB	089H
	DB	089H
	DB	0d3H
	DB	0f1H
	DB	011H
	DB	01H
	DB	01H
	DB	01H
	DB	01H
	DB	01H
	DB	01H
	DB	01H
	DB	01H
	DB	01H
	DB	01H
	DB	01H
	DB	01H
	DB	01H
	DB	016H
	DB	02H
	DB	0d3H
	DB	0d3H
	DB	0d3H
	DB	0d3H
	DB	0d3H
	DB	0d3H
	DB	0d3H
	DB	0d3H
	DB	0d3H
	DB	0d3H
	DB	0d3H
	DB	0d3H
	DB	0d3H
	DB	0d3H
	DB	0d3H
	DB	0d3H
	DB	0d3H
	DB	0d3H
	DB	0d3H
	DB	0d3H
	DB	0d3H
	DB	0d3H
	DB	0d3H
	DB	0d3H
	DB	0d3H
	DB	04H
	DB	04H
	DB	056H
	DB	0b4H
	DB	010H
	DB	010H
	DB	010H
	DB	010H
	DB	010H
	DB	020H
	DB	020H
	DB	09fH
	DB	01eH
	DB	014H
	DB	014H
	DB	064H
	DB	065H
	DB	065H
	DB	0fH
	DB	0fH
	DB	081H
	DB	081H
	DB	081H
	DB	081H
	DB	021H
	DB	021H
	DB	082H
	DB	082H
	DB	099H
	DB	03bH
	DB	03bH
	DB	0aaH
	DB	0aaH
	DB	0aaH
	DB	03bH
	DB	03bH
	DB	03bH
	DB	03bH
	DB	03bH
	DB	0cH
	DB	0cH
	DB	03bH
	DB	022H
	DB	0cH
	DB	0cH
	DB	022H
	DB	022H
	DB	022H
	DB	022H
	DB	01bH
	DB	0d7H
	DB	0b2H
	DB	0b2H
	DB	03H
	DB	094H
	DB	0b0H
	DB	09H
	DB	0b0H
	DB	03H
	DB	03H
	DB	05fH
	DB	059H
	DB	0b0H
	DB	03H
	DB	03H
	DB	03H
	DB	03H
	DB	03H
	DB	03H
	DB	03H
	DB	03H
	DB	03H
	DB	03H
	DB	03H
	DB	03H
	DB	049H
	DB	0bH
	DB	04H
	DB	02H
	DB	046H
	DB	0faH
	DB	09bH
	DB	093H
	DB	0f4H
	DB	08aH
	DB	061H
	DB	08H
	DB	0e5H
	DB	02fH
	DB	07eH
	DB	031H
	DB	031H
	DB	037H
	DB	037H
	DB	096H
	DB	096H
	DB	02dH
	DB	09eH
	DB	09eH
	DB	033H
	DB	044H
	DB	044H
	DB	02bH
	DB	05dH
	DB	019H
	DB	083H
	DB	04H
	DB	0d3H
	DB	0d3H
	DB	0d3H
	DB	0d3H
	DB	0d3H
	DB	0d3H
	DB	0d3H
	DB	0d3H
	DB	0d3H
	DB	0d3H
	DB	0d3H
	DB	0d3H
	DB	0d3H
	DB	0d3H
	DB	0d3H
	DB	0d3H
	DB	0d3H
	DB	0d3H
	DB	0d3H
	DB	0d3H
	DB	0d3H
	DB	0d3H
	DB	0d3H
	DB	0d3H
	DB	0d3H
	DB	0d3H
	DB	0d3H
	DB	0d3H
	DB	04H
	DB	0d3H
	DB	011H
	DB	01H
	DB	01H
	DB	01H
	DB	01H
	DB	01H
	DB	01H
	DB	01H
	DB	01H
	DB	01H
	DB	01H
	DB	01H
	DB	01H
	DB	01H
	DB	016H
	DB	02H
	DB	04H
	DB	04H
	DB	04H
	DB	04H
	DB	04H
	DB	04H
	DB	04H
	DB	04H
	DB	04H
	DB	04H
	DB	04H
	DB	04H
	DB	04H
	DB	04H
	DB	04H
	DB	04H
	DB	04H
	DB	04H
	DB	04H
	DB	04H
	DB	04H
	DB	04H
	DB	04H
	DB	04H
	DB	04H
	DB	04H
	DB	0f2H
	DB	069H
	DB	04aH
	DB	010H
	DB	010H
	DB	010H
	DB	010H
	DB	020H
	DB	020H
	DB	076H
	DB	09fH
	DB	01eH
	DB	014H
	DB	064H
	DB	065H
	DB	065H
	DB	065H
	DB	0fH
	DB	0fH
	DB	081H
	DB	081H
	DB	081H
	DB	081H
	DB	081H
	DB	081H
	DB	021H
	DB	021H
	DB	082H
	DB	082H
	DB	082H
	DB	013H
	DB	099H
	DB	03bH
	DB	099H
	DB	099H
	DB	099H
	DB	099H
	DB	01bH
	DB	03bH
	DB	03bH
	DB	01bH
	DB	0dH
	DB	022H
	DB	022H
	DB	022H
	DB	022H
	DB	022H
	DB	022H
	DB	022H
	DB	0dH
	DB	07cH
	DB	03H
	DB	03H
	DB	03H
	DB	0b1H
	DB	085H
	DB	09H
	DB	0bH
	DB	0bH
	DB	04H
	DB	0d9H
	DB	03H
	DB	086H
	DB	09bH
	DB	05H
	DB	03H
	DB	03H
	DB	09H
	DB	04fH
	DB	03H
	DB	086H
	DB	0b0H
	DB	03H
	DB	04H
	DB	0c6H
	DB	061H
	DB	04fH
	DB	0b0H
	DB	09bH
	DB	03cH
	DB	03dH
	DB	0bH
	DB	036H
	DB	046H
	DB	066H
	DB	066H
	DB	023H
	DB	095H
	DB	07eH
	DB	050H
	DB	037H
	DB	037H
	DB	037H
	DB	037H
	DB	037H
	DB	096H
	DB	02dH
	DB	09eH
	DB	033H
	DB	041H
	DB	044H
	DB	02bH
	DB	02aH
	DB	0fH
	DB	05fH
	DB	04H
	DB	04H
	DB	04H
	DB	04H
	DB	04H
	DB	04H
	DB	04H
	DB	04H
	DB	04H
	DB	04H
	DB	04H
	DB	04H
	DB	04H
	DB	04H
	DB	04H
	DB	04H
	DB	04H
	DB	04H
	DB	04H
	DB	04H
	DB	04H
	DB	04H
	DB	04H
	DB	04H
	DB	04H
	DB	04H
	DB	04H
	DB	04H
	DB	04H
	DB	04H
	DB	04H
	DB	011H
	DB	01H
	DB	01H
	DB	01H
	DB	01H
	DB	01H
	DB	01H
	DB	01H
	DB	01H
	DB	01H
	DB	01H
	DB	01H
	DB	01H
	DB	01H
	DB	016H
	DB	0d9H
	DB	04H
	DB	04H
	DB	04H
	DB	04H
	DB	04H
	DB	04H
	DB	04H
	DB	04H
	DB	04H
	DB	04H
	DB	04H
	DB	04H
	DB	04H
	DB	04H
	DB	04H
	DB	04H
	DB	04H
	DB	04H
	DB	04H
	DB	04H
	DB	04H
	DB	04H
	DB	04H
	DB	04H
	DB	04H
	DB	04H
	DB	09cH
	DB	0e6H
	DB	04aH
	DB	0b4H
	DB	010H
	DB	010H
	DB	010H
	DB	010H
	DB	020H
	DB	01eH
	DB	01eH
	DB	014H
	DB	014H
	DB	014H
	DB	03eH
	DB	0fH
	DB	0fH
	DB	0fH
	DB	0fH
	DB	0fH
	DB	0fH
	DB	0fH
	DB	081H
	DB	081H
	DB	081H
	DB	0fH
	DB	081H
	DB	081H
	DB	081H
	DB	02eH
	DB	021H
	DB	082H
	DB	013H
	DB	013H
	DB	013H
	DB	013H
	DB	013H
	DB	013H
	DB	099H
	DB	01bH
	DB	01bH
	DB	0dH
	DB	0dH
	DB	022H
	DB	022H
	DB	0cH
	DB	022H
	DB	022H
	DB	022H
	DB	01bH
	DB	01eH
	DB	091H
	DB	03H
	DB	03dH
	DB	073H
	DB	0beH
	DB	049H
	DB	09cH
	DB	049H
	DB	0b0H
	DB	086H
	DB	03H
	DB	0daH
	DB	0a4H
	DB	04dH
	DB	03H
	DB	09bH
	DB	05fH
	DB	0c0H
	DB	086H
	DB	08H
	DB	0a4H
	DB	0bH
	DB	02H
	DB	05fH
	DB	09dH
	DB	09dH
	DB	04H
	DB	061H
	DB	06eH
	DB	051H
	DB	03H
	DB	0bH
	DB	04dH
	DB	060H
	DB	0a7H
	DB	02fH
	DB	095H
	DB	095H
	DB	02fH
	DB	050H
	DB	037H
	DB	037H
	DB	037H
	DB	037H
	DB	096H
	DB	02dH
	DB	02dH
	DB	09eH
	DB	033H
	DB	041H
	DB	02bH
	DB	05dH
	DB	06bH
	DB	0f2H
	DB	04H
	DB	04H
	DB	04H
	DB	04H
	DB	04H
	DB	04H
	DB	04H
	DB	04H
	DB	04H
	DB	04H
	DB	04H
	DB	04H
	DB	04H
	DB	04H
	DB	04H
	DB	04H
	DB	04H
	DB	04H
	DB	04H
	DB	04H
	DB	04H
	DB	04H
	DB	04H
	DB	04H
	DB	04H
	DB	04H
	DB	04H
	DB	04H
	DB	04H
	DB	0f2H
	DB	04H
	DB	011H
	DB	01H
	DB	01H
	DB	01H
	DB	01H
	DB	01H
	DB	01H
	DB	01H
	DB	01H
	DB	01H
	DB	01H
	DB	01H
	DB	01H
	DB	01H
	DB	0dfH
	DB	0daH
	DB	0f2H
	DB	0f2H
	DB	0f2H
	DB	0f2H
	DB	0f2H
	DB	0f2H
	DB	0f2H
	DB	0f2H
	DB	0f2H
	DB	0f2H
	DB	0f2H
	DB	0f2H
	DB	0f2H
	DB	0f2H
	DB	0f2H
	DB	0f2H
	DB	0f2H
	DB	0f2H
	DB	0f2H
	DB	0f2H
	DB	0f2H
	DB	0f2H
	DB	0f2H
	DB	0f2H
	DB	0f2H
	DB	0f2H
	DB	09cH
	DB	0e6H
	DB	04aH
	DB	0b4H
	DB	0b4H
	DB	0b4H
	DB	010H
	DB	020H
	DB	020H
	DB	076H
	DB	01eH
	DB	014H
	DB	064H
	DB	064H
	DB	064H
	DB	065H
	DB	0fH
	DB	0fH
	DB	0fH
	DB	0fH
	DB	0fH
	DB	0fH
	DB	081H
	DB	081H
	DB	081H
	DB	081H
	DB	081H
	DB	0fH
	DB	0fH
	DB	081H
	DB	081H
	DB	02eH
	DB	021H
	DB	01cH
	DB	013H
	DB	013H
	DB	013H
	DB	01cH
	DB	013H
	DB	013H
	DB	0dH
	DB	0dH
	DB	0dH
	DB	024H
	DB	01bH
	DB	03bH
	DB	022H
	DB	022H
	DB	01bH
	DB	03bH
	DB	0fH
	DB	07eH
	DB	059H
	DB	03dH
	DB	03dH
	DB	0b2H
	DB	03H
	DB	03H
	DB	0b0H
	DB	061H
	DB	0b0H
	DB	09H
	DB	0bH
	DB	0b0H
	DB	0c0H
	DB	0b2H
	DB	0a5H
	DB	09H
	DB	0b2H
	DB	04fH
	DB	0a5H
	DB	09dH
	DB	049H
	DB	049H
	DB	046H
	DB	04H
	DB	02H
	DB	0b0H
	DB	03dH
	DB	08aH
	DB	051H
	DB	0c0H
	DB	09cH
	DB	02H
	DB	039H
	DB	053H
	DB	053H
	DB	053H
	DB	01H
	DB	01H
	DB	03aH
	DB	050H
	DB	037H
	DB	037H
	DB	037H
	DB	096H
	DB	02dH
	DB	02dH
	DB	02dH
	DB	029H
	DB	0c3H
	DB	02bH
	DB	05dH
	DB	07cH
	DB	09cH
	DB	0f2H
	DB	0f2H
	DB	0f2H
	DB	0f2H
	DB	0f2H
	DB	0f2H
	DB	0f2H
	DB	0f2H
	DB	0f2H
	DB	0f2H
	DB	0f2H
	DB	0f2H
	DB	0f2H
	DB	0f2H
	DB	0f2H
	DB	0f2H
	DB	0f2H
	DB	0f2H
	DB	0f2H
	DB	0f2H
	DB	0f2H
	DB	0f2H
	DB	0f2H
	DB	0f2H
	DB	0f2H
	DB	0f2H
	DB	0f2H
	DB	0f2H
	DB	0f2H
	DB	0f2H
	DB	04H
	DB	011H
	DB	01H
	DB	01H
	DB	01H
	DB	01H
	DB	01H
	DB	01H
	DB	01H
	DB	01H
	DB	01H
	DB	01H
	DB	01H
	DB	01H
	DB	01H
	DB	0dfH
	DB	09H
	DB	0f2H
	DB	0f2H
	DB	0f2H
	DB	0f2H
	DB	0f2H
	DB	0f2H
	DB	0f2H
	DB	0f2H
	DB	0f2H
	DB	0f2H
	DB	0f2H
	DB	0f2H
	DB	0f2H
	DB	0f2H
	DB	0f2H
	DB	0f2H
	DB	0f2H
	DB	0f2H
	DB	0f2H
	DB	0f2H
	DB	0f2H
	DB	0f2H
	DB	0f2H
	DB	0f2H
	DB	0f2H
	DB	0f2H
	DB	02H
	DB	059H
	DB	04aH
	DB	05cH
	DB	0b4H
	DB	0b4H
	DB	0b4H
	DB	010H
	DB	010H
	DB	020H
	DB	09fH
	DB	01eH
	DB	014H
	DB	064H
	DB	03eH
	DB	03eH
	DB	03eH
	DB	03eH
	DB	0fH
	DB	0fH
	DB	0fH
	DB	081H
	DB	02eH
	DB	021H
	DB	02eH
	DB	021H
	DB	082H
	DB	021H
	DB	02eH
	DB	081H
	DB	081H
	DB	081H
	DB	02eH
	DB	021H
	DB	01cH
	DB	01cH
	DB	01cH
	DB	01cH
	DB	01cH
	DB	01cH
	DB	01cH
	DB	013H
	DB	013H
	DB	0dH
	DB	01bH
	DB	01bH
	DB	022H
	DB	01bH
	DB	01bH
	DB	022H
	DB	01cH
	DB	087H
	DB	095H
	DB	057H
	DB	049H
	DB	03H
	DB	03H
	DB	03H
	DB	05aH
	DB	073H
	DB	0b0H
	DB	09cH
	DB	09H
	DB	0a5H
	DB	049H
	DB	09H
	DB	0bH
	DB	09H
	DB	049H
	DB	0b0H
	DB	0bH
	DB	02H
	DB	09H
	DB	04H
	DB	02H
	DB	03cH
	DB	0fbH
	DB	03H
	DB	03H
	DB	0b2H
	DB	0bH
	DB	08bH
	DB	0b0H
	DB	08fH
	DB	053H
	DB	01H
	DB	01H
	DB	01H
	DB	053H
	DB	053H
	DB	053H
	DB	03aH
	DB	050H
	DB	037H
	DB	037H
	DB	037H
	DB	031H
	DB	031H
	DB	029H
	DB	029H
	DB	0c3H
	DB	0c3H
	DB	0c9H
	DB	09cH
	DB	0f2H
	DB	0f2H
	DB	0f2H
	DB	0f2H
	DB	0f2H
	DB	0f2H
	DB	0f2H
	DB	0f2H
	DB	0f2H
	DB	0f2H
	DB	0f2H
	DB	0f2H
	DB	0f2H
	DB	0f2H
	DB	0f2H
	DB	0f2H
	DB	0f2H
	DB	0f2H
	DB	0f2H
	DB	0f2H
	DB	0f2H
	DB	0f2H
	DB	0f2H
	DB	0f2H
	DB	0f2H
	DB	0f2H
	DB	0f2H
	DB	0f2H
	DB	0f2H
	DB	0f2H
	DB	0f2H
	DB	0f2H
	DB	011H
	DB	01H
	DB	01H
	DB	01H
	DB	01H
	DB	01H
	DB	01H
	DB	01H
	DB	01H
	DB	01H
	DB	01H
	DB	01H
	DB	01H
	DB	01H
	DB	0dfH
	DB	09H
	DB	0f2H
	DB	0f2H
	DB	0f2H
	DB	0f2H
	DB	0f2H
	DB	0f2H
	DB	0f2H
	DB	0f2H
	DB	0f2H
	DB	0f2H
	DB	0f2H
	DB	0f2H
	DB	0f2H
	DB	0f2H
	DB	0f2H
	DB	0f2H
	DB	0f2H
	DB	0f2H
	DB	0f2H
	DB	0f2H
	DB	0f2H
	DB	0f2H
	DB	0f2H
	DB	0f2H
	DB	0f2H
	DB	0f2H
	DB	02H
	DB	07H
	DB	05cH
	DB	05cH
	DB	05cH
	DB	010H
	DB	010H
	DB	0b4H
	DB	0b4H
	DB	0b4H
	DB	020H
	DB	09fH
	DB	09fH
	DB	014H
	DB	064H
	DB	03eH
	DB	0fH
	DB	0fH
	DB	03eH
	DB	0fH
	DB	0fH
	DB	081H
	DB	02eH
	DB	021H
	DB	021H
	DB	021H
	DB	082H
	DB	013H
	DB	01cH
	DB	082H
	DB	021H
	DB	021H
	DB	021H
	DB	021H
	DB	082H
	DB	01cH
	DB	01cH
	DB	01cH
	DB	01cH
	DB	01cH
	DB	01cH
	DB	01cH
	DB	013H
	DB	0dH
	DB	0dH
	DB	01bH
	DB	022H
	DB	01bH
	DB	01bH
	DB	01bH
	DB	01bH
	DB	075H
	DB	040H
	DB	07eH
	DB	043H
	DB	04dH
	DB	03H
	DB	03H
	DB	05aH
	DB	051H
	DB	03H
	DB	03H
	DB	0c0H
	DB	0daH
	DB	046H
	DB	02H
	DB	09H
	DB	02H
	DB	09H
	DB	09cH
	DB	09dH
	DB	02H
	DB	046H
	DB	086H
	DB	03H
	DB	051H
	DB	08aH
	DB	04fH
	DB	03H
	DB	08cH
	DB	08cH
	DB	049H
	DB	069H
	DB	02fH
	DB	053H
	DB	01H
	DB	02fH
	DB	040H
	DB	055H
	DB	062H
	DB	03aH
	DB	03aH
	DB	03aH
	DB	050H
	DB	037H
	DB	037H
	DB	031H
	DB	031H
	DB	096H
	DB	02dH
	DB	020H
	DB	0caH
	DB	03cH
	DB	09cH
	DB	0f2H
	DB	0f2H
	DB	0f2H
	DB	0f2H
	DB	0f2H
	DB	0f2H
	DB	0f2H
	DB	0f2H
	DB	0f2H
	DB	0f2H
	DB	0f2H
	DB	0f2H
	DB	0f2H
	DB	0f2H
	DB	0f2H
	DB	0f2H
	DB	0f2H
	DB	0f2H
	DB	0f2H
	DB	0f2H
	DB	0f2H
	DB	0f2H
	DB	0f2H
	DB	0f2H
	DB	0f2H
	DB	0f2H
	DB	0f2H
	DB	0f2H
	DB	0f2H
	DB	0f2H
	DB	09cH
	DB	0f2H
	DB	0c5H
	DB	01H
	DB	01H
	DB	01H
	DB	01H
	DB	01H
	DB	01H
	DB	01H
	DB	01H
	DB	01H
	DB	01H
	DB	01H
	DB	01H
	DB	01H
	DB	0dfH
	DB	09H
	DB	09cH
	DB	09cH
	DB	09cH
	DB	09cH
	DB	09cH
	DB	09cH
	DB	09cH
	DB	09cH
	DB	09cH
	DB	09cH
	DB	09cH
	DB	09cH
	DB	09cH
	DB	09cH
	DB	09cH
	DB	09cH
	DB	09cH
	DB	09cH
	DB	09cH
	DB	09cH
	DB	09cH
	DB	09cH
	DB	09cH
	DB	09cH
	DB	09cH
	DB	09cH
	DB	02H
	DB	05fH
	DB	05cH
	DB	05cH
	DB	010H
	DB	0b4H
	DB	0b4H
	DB	010H
	DB	010H
	DB	010H
	DB	010H
	DB	020H
	DB	09fH
	DB	01eH
	DB	014H
	DB	064H
	DB	03eH
	DB	0e4H
	DB	081H
	DB	081H
	DB	081H
	DB	02eH
	DB	021H
	DB	021H
	DB	021H
	DB	082H
	DB	01cH
	DB	013H
	DB	013H
	DB	013H
	DB	013H
	DB	01cH
	DB	01cH
	DB	082H
	DB	082H
	DB	01cH
	DB	01cH
	DB	01cH
	DB	01cH
	DB	01cH
	DB	01cH
	DB	01cH
	DB	013H
	DB	0dH
	DB	0dH
	DB	01bH
	DB	01bH
	DB	03bH
	DB	01bH
	DB	01bH
	DB	03bH
	DB	014H
	DB	040H
	DB	087H
	DB	040H
	DB	040H
	DB	071H
	DB	04eH
	DB	03H
	DB	03H
	DB	03H
	DB	03H
	DB	03H
	DB	073H
	DB	073H
	DB	03H
	DB	03H
	DB	036H
	DB	051H
	DB	03H
	DB	03H
	DB	0d8H
	DB	08aH
	DB	03H
	DB	03H
	DB	0b2H
	DB	0b2H
	DB	094H
	DB	094H
	DB	0b2H
	DB	0aeH
	DB	04bH
	DB	053H
	DB	01H
	DB	02fH
	DB	054H
	DB	01eH
	DB	014H
	DB	020H
	DB	04aH
	DB	050H
	DB	062H
	DB	03aH
	DB	050H
	DB	04aH
	DB	05cH
	DB	029H
	DB	01eH
	DB	0a8H
	DB	04cH
	DB	0d3H
	DB	02H
	DB	02H
	DB	09cH
	DB	09cH
	DB	09cH
	DB	09cH
	DB	09cH
	DB	09cH
	DB	09cH
	DB	09cH
	DB	09cH
	DB	09cH
	DB	09cH
	DB	09cH
	DB	09cH
	DB	09cH
	DB	09cH
	DB	09cH
	DB	09cH
	DB	09cH
	DB	09cH
	DB	09cH
	DB	09cH
	DB	09cH
	DB	09cH
	DB	09cH
	DB	09cH
	DB	09cH
	DB	09cH
	DB	09cH
	DB	09cH
	DB	09cH
	DB	09cH
	DB	02H
	DB	09cH
	DB	0c5H
	DB	01H
	DB	01H
	DB	01H
	DB	01H
	DB	01H
	DB	01H
	DB	01H
	DB	01H
	DB	01H
	DB	01H
	DB	01H
	DB	01H
	DB	01H
	DB	0dfH
	DB	0b0H
	DB	02H
	DB	02H
	DB	02H
	DB	02H
	DB	02H
	DB	02H
	DB	02H
	DB	02H
	DB	02H
	DB	02H
	DB	02H
	DB	02H
	DB	02H
	DB	02H
	DB	02H
	DB	02H
	DB	02H
	DB	02H
	DB	02H
	DB	02H
	DB	02H
	DB	02H
	DB	02H
	DB	02H
	DB	02H
	DB	02H
	DB	02H
	DB	060H
	DB	05cH
	DB	05cH
	DB	05cH
	DB	010H
	DB	010H
	DB	010H
	DB	010H
	DB	010H
	DB	020H
	DB	020H
	DB	09fH
	DB	01eH
	DB	014H
	DB	064H
	DB	03eH
	DB	0fH
	DB	081H
	DB	081H
	DB	021H
	DB	021H
	DB	021H
	DB	082H
	DB	082H
	DB	01cH
	DB	013H
	DB	099H
	DB	099H
	DB	013H
	DB	013H
	DB	013H
	DB	099H
	DB	013H
	DB	01cH
	DB	01cH
	DB	01cH
	DB	01cH
	DB	01cH
	DB	01cH
	DB	082H
	DB	01cH
	DB	01cH
	DB	013H
	DB	013H
	DB	0dH
	DB	01bH
	DB	01bH
	DB	01bH
	DB	01bH
	DB	03bH
	DB	021H
	DB	040H
	DB	07fH
	DB	087H
	DB	055H
	DB	07eH
	DB	023H
	DB	078H
	DB	02H
	DB	03H
	DB	03H
	DB	03H
	DB	05aH
	DB	05aH
	DB	03H
	DB	03H
	DB	036H
	DB	0feH
	DB	03H
	DB	03H
	DB	05aH
	DB	0fdH
	DB	0b2H
	DB	03H
	DB	03H
	DB	03H
	DB	03H
	DB	046H
	DB	0a8H
	DB	07eH
	DB	01H
	DB	02fH
	DB	063H
	DB	0e4H
	DB	013H
	DB	01cH
	DB	02eH
	DB	014H
	DB	020H
	DB	04aH
	DB	050H
	DB	050H
	DB	055H
	DB	054H
	DB	076H
	DB	076H
	DB	0caH
	DB	09H
	DB	0d9H
	DB	02H
	DB	02H
	DB	02H
	DB	02H
	DB	02H
	DB	02H
	DB	02H
	DB	02H
	DB	02H
	DB	02H
	DB	02H
	DB	02H
	DB	02H
	DB	02H
	DB	02H
	DB	02H
	DB	02H
	DB	02H
	DB	02H
	DB	02H
	DB	02H
	DB	02H
	DB	02H
	DB	02H
	DB	02H
	DB	02H
	DB	02H
	DB	02H
	DB	02H
	DB	02H
	DB	02H
	DB	02H
	DB	02H
	DB	02H
	DB	02H
	DB	02H
	DB	0e1H
	DB	01H
	DB	01H
	DB	01H
	DB	01H
	DB	01H
	DB	01H
	DB	01H
	DB	01H
	DB	01H
	DB	01H
	DB	01H
	DB	01H
	DB	01H
	DB	0dfH
	DB	0b0H
	DB	02H
	DB	02H
	DB	02H
	DB	02H
	DB	02H
	DB	02H
	DB	02H
	DB	02H
	DB	02H
	DB	02H
	DB	02H
	DB	02H
	DB	02H
	DB	02H
	DB	02H
	DB	02H
	DB	02H
	DB	02H
	DB	02H
	DB	02H
	DB	02H
	DB	02H
	DB	02H
	DB	02H
	DB	02H
	DB	02H
	DB	02H
	DB	04dH
	DB	010H
	DB	05cH
	DB	05cH
	DB	05cH
	DB	010H
	DB	010H
	DB	010H
	DB	010H
	DB	010H
	DB	020H
	DB	09fH
	DB	09fH
	DB	01eH
	DB	014H
	DB	064H
	DB	0fH
	DB	0fH
	DB	081H
	DB	081H
	DB	021H
	DB	082H
	DB	01cH
	DB	01cH
	DB	099H
	DB	099H
	DB	099H
	DB	03bH
	DB	03bH
	DB	099H
	DB	013H
	DB	099H
	DB	013H
	DB	013H
	DB	013H
	DB	01cH
	DB	0eH
	DB	0eH
	DB	021H
	DB	0eH
	DB	01cH
	DB	01cH
	DB	01cH
	DB	013H
	DB	0dH
	DB	01bH
	DB	01bH
	DB	01bH
	DB	01bH
	DB	03bH
	DB	013H
	DB	054H
	DB	025H
	DB	07fH
	DB	087H
	DB	0b3H
	DB	07fH
	DB	040H
	DB	023H
	DB	071H
	DB	05H
	DB	09H
	DB	03H
	DB	03H
	DB	03H
	DB	03H
	DB	03H
	DB	03H
	DB	03H
	DB	03H
	DB	03H
	DB	03H
	DB	03H
	DB	03H
	DB	0bH
	DB	03cH
	DB	069H
	DB	040H
	DB	053H
	DB	02fH
	DB	054H
	DB	021H
	DB	01bH
	DB	01bH
	DB	01bH
	DB	0dH
	DB	0eH
	DB	019H
	DB	06fH
	DB	020H
	DB	04aH
	DB	031H
	DB	04aH
	DB	05cH
	DB	076H
	DB	077H
	DB	077H
	DB	060H
	DB	0d9H
	DB	02H
	DB	02H
	DB	02H
	DB	02H
	DB	02H
	DB	02H
	DB	02H
	DB	02H
	DB	02H
	DB	02H
	DB	02H
	DB	02H
	DB	02H
	DB	02H
	DB	02H
	DB	02H
	DB	02H
	DB	02H
	DB	02H
	DB	02H
	DB	02H
	DB	02H
	DB	02H
	DB	02H
	DB	02H
	DB	02H
	DB	02H
	DB	02H
	DB	02H
	DB	02H
	DB	02H
	DB	02H
	DB	02H
	DB	02H
	DB	02H
	DB	02H
	DB	0e1H
	DB	01H
	DB	01H
	DB	01H
	DB	01H
	DB	01H
	DB	01H
	DB	01H
	DB	01H
	DB	01H
	DB	01H
	DB	01H
	DB	01H
	DB	01H
	DB	0dfH
	DB	0b0H
	DB	02H
	DB	02H
	DB	02H
	DB	02H
	DB	02H
	DB	02H
	DB	02H
	DB	02H
	DB	02H
	DB	02H
	DB	02H
	DB	02H
	DB	02H
	DB	02H
	DB	02H
	DB	02H
	DB	02H
	DB	02H
	DB	02H
	DB	02H
	DB	02H
	DB	02H
	DB	02H
	DB	02H
	DB	02H
	DB	02H
	DB	0d9H
	DB	03cH
	DB	075H
	DB	05cH
	DB	010H
	DB	010H
	DB	010H
	DB	010H
	DB	010H
	DB	020H
	DB	020H
	DB	020H
	DB	020H
	DB	01eH
	DB	01eH
	DB	014H
	DB	064H
	DB	03eH
	DB	0fH
	DB	0fH
	DB	081H
	DB	02eH
	DB	021H
	DB	01cH
	DB	01cH
	DB	013H
	DB	099H
	DB	099H
	DB	01bH
	DB	0aaH
	DB	0aaH
	DB	099H
	DB	013H
	DB	013H
	DB	013H
	DB	013H
	DB	013H
	DB	01cH
	DB	0eH
	DB	0eH
	DB	01cH
	DB	01cH
	DB	01cH
	DB	013H
	DB	013H
	DB	013H
	DB	013H
	DB	0dH
	DB	0dH
	DB	01bH
	DB	01bH
	DB	0dH
	DB	01eH
	DB	048H
	DB	040H
	DB	040H
	DB	0b3H
	DB	023H
	DB	023H
	DB	0b3H
	DB	087H
	DB	087H
	DB	043H
	DB	042H
	DB	04cH
	DB	04dH
	DB	02H
	DB	036H
	DB	049H
	DB	049H
	DB	049H
	DB	046H
	DB	04H
	DB	091H
	DB	069H
	DB	063H
	DB	03aH
	DB	053H
	DB	07eH
	DB	076H
	DB	021H
	DB	01bH
	DB	022H
	DB	022H
	DB	022H
	DB	0dH
	DB	032H
	DB	0eH
	DB	047H
	DB	065H
	DB	06fH
	DB	020H
	DB	0b4H
	DB	05cH
	DB	010H
	DB	076H
	DB	077H
	DB	014H
	DB	0caH
	DB	0d9H
	DB	0d9H
	DB	02H
	DB	02H
	DB	02H
	DB	02H
	DB	02H
	DB	02H
	DB	02H
	DB	02H
	DB	02H
	DB	02H
	DB	02H
	DB	02H
	DB	02H
	DB	02H
	DB	02H
	DB	02H
	DB	02H
	DB	02H
	DB	02H
	DB	02H
	DB	02H
	DB	02H
	DB	02H
	DB	02H
	DB	02H
	DB	02H
	DB	02H
	DB	02H
	DB	02H
	DB	02H
	DB	02H
	DB	02H
	DB	02H
	DB	0d9H
	DB	02H
	DB	0e1H
	DB	01H
	DB	01H
	DB	01H
	DB	01H
	DB	01H
	DB	01H
	DB	01H
	DB	01H
	DB	01H
	DB	01H
	DB	01H
	DB	01H
	DB	01H
	DB	0dfH
	DB	049H
	DB	0d9H
	DB	0d9H
	DB	0d9H
	DB	0d9H
	DB	0d9H
	DB	0d9H
	DB	0d9H
	DB	0d9H
	DB	0d9H
	DB	0d9H
	DB	0d9H
	DB	0d9H
	DB	0d9H
	DB	0d9H
	DB	0d9H
	DB	0d9H
	DB	0d9H
	DB	0d9H
	DB	0d9H
	DB	0d9H
	DB	0d9H
	DB	0d9H
	DB	0d9H
	DB	0d9H
	DB	0d9H
	DB	0d9H
	DB	0d9H
	DB	061H
	DB	075H
	DB	0b4H
	DB	010H
	DB	010H
	DB	020H
	DB	020H
	DB	09fH
	DB	09fH
	DB	09fH
	DB	01eH
	DB	01eH
	DB	09fH
	DB	01eH
	DB	064H
	DB	064H
	DB	03eH
	DB	03eH
	DB	0fH
	DB	0fH
	DB	02eH
	DB	02eH
	DB	021H
	DB	082H
	DB	01cH
	DB	013H
	DB	099H
	DB	013H
	DB	099H
	DB	099H
	DB	03bH
	DB	099H
	DB	099H
	DB	013H
	DB	013H
	DB	013H
	DB	013H
	DB	01cH
	DB	01cH
	DB	01cH
	DB	01cH
	DB	01cH
	DB	0dH
	DB	0dH
	DB	0dH
	DB	013H
	DB	0dH
	DB	0dH
	DB	0dH
	DB	01bH
	DB	01bH
	DB	064H
	DB	02fH
	DB	07fH
	DB	023H
	DB	08dH
	DB	07fH
	DB	023H
	DB	023H
	DB	074H
	DB	074H
	DB	074H
	DB	023H
	DB	023H
	DB	074H
	DB	074H
	DB	043H
	DB	043H
	DB	043H
	DB	063H
	DB	054H
	DB	040H
	DB	07eH
	DB	02fH
	DB	02fH
	DB	03aH
	DB	054H
	DB	021H
	DB	01bH
	DB	024H
	DB	024H
	DB	024H
	DB	024H
	DB	024H
	DB	024H
	DB	032H
	DB	0eH
	DB	047H
	DB	019H
	DB	02aH
	DB	09fH
	DB	020H
	DB	020H
	DB	076H
	DB	076H
	DB	01eH
	DB	03eH
	DB	03eH
	DB	04H
	DB	08bH
	DB	0d9H
	DB	0d9H
	DB	0d9H
	DB	0d9H
	DB	0d9H
	DB	0d9H
	DB	0d9H
	DB	0d9H
	DB	0d9H
	DB	0d9H
	DB	0d9H
	DB	0d9H
	DB	0d9H
	DB	0d9H
	DB	0d9H
	DB	0d9H
	DB	0d9H
	DB	0d9H
	DB	0d9H
	DB	0d9H
	DB	0d9H
	DB	0d9H
	DB	0d9H
	DB	0d9H
	DB	0d9H
	DB	0d9H
	DB	0d9H
	DB	0d9H
	DB	0d9H
	DB	0d9H
	DB	0d9H
	DB	0d9H
	DB	0d9H
	DB	0d9H
	DB	0d9H
	DB	06H
	DB	01H
	DB	01H
	DB	01H
	DB	01H
	DB	01H
	DB	01H
	DB	01H
	DB	01H
	DB	01H
	DB	01H
	DB	01H
	DB	01H
	DB	01H
	DB	0dfH
	DB	08cH
	DB	0d9H
	DB	0d9H
	DB	0d9H
	DB	0d9H
	DB	0d9H
	DB	0d9H
	DB	0d9H
	DB	0d9H
	DB	0d9H
	DB	0d9H
	DB	0d9H
	DB	0d9H
	DB	0d9H
	DB	0d9H
	DB	0d9H
	DB	0d9H
	DB	0d9H
	DB	0d9H
	DB	0d9H
	DB	0d9H
	DB	0d9H
	DB	0d9H
	DB	0d9H
	DB	0d9H
	DB	0d9H
	DB	0d9H
	DB	0d9H
	DB	02H
	DB	070H
	DB	0b4H
	DB	010H
	DB	020H
	DB	09fH
	DB	09fH
	DB	01eH
	DB	09fH
	DB	01eH
	DB	01eH
	DB	014H
	DB	014H
	DB	014H
	DB	014H
	DB	064H
	DB	064H
	DB	064H
	DB	064H
	DB	0fH
	DB	081H
	DB	02eH
	DB	021H
	DB	021H
	DB	082H
	DB	082H
	DB	01cH
	DB	01cH
	DB	082H
	DB	082H
	DB	013H
	DB	01bH
	DB	01bH
	DB	0dH
	DB	013H
	DB	013H
	DB	0dH
	DB	013H
	DB	013H
	DB	01cH
	DB	013H
	DB	013H
	DB	0dH
	DB	0dH
	DB	0dH
	DB	0dH
	DB	0dH
	DB	013H
	DB	013H
	DB	0dH
	DB	01bH
	DB	021H
	DB	095H
	DB	01H
	DB	095H
	DB	0b3H
	DB	074H
	DB	023H
	DB	0b3H
	DB	0b3H
	DB	074H
	DB	074H
	DB	043H
	DB	043H
	DB	063H
	DB	074H
	DB	023H
	DB	023H
	DB	087H
	DB	087H
	DB	055H
	DB	040H
	DB	095H
	DB	02fH
	DB	07eH
	DB	01eH
	DB	0eH
	DB	032H
	DB	0a1H
	DB	024H
	DB	072H
	DB	032H
	DB	032H
	DB	028H
	DB	028H
	DB	032H
	DB	032H
	DB	047H
	DB	019H
	DB	065H
	DB	014H
	DB	01eH
	DB	01eH
	DB	01eH
	DB	01eH
	DB	014H
	DB	03eH
	DB	0fH
	DB	07bH
	DB	09H
	DB	0d9H
	DB	0d9H
	DB	0d9H
	DB	0d9H
	DB	0d9H
	DB	0d9H
	DB	0d9H
	DB	0d9H
	DB	0d9H
	DB	0d9H
	DB	0d9H
	DB	0d9H
	DB	0d9H
	DB	0d9H
	DB	0d9H
	DB	0d9H
	DB	0d9H
	DB	0d9H
	DB	0d9H
	DB	0d9H
	DB	0d9H
	DB	0d9H
	DB	0d9H
	DB	0d9H
	DB	0d9H
	DB	0d9H
	DB	0d9H
	DB	0d9H
	DB	0d9H
	DB	0d9H
	DB	0d9H
	DB	0d9H
	DB	0d9H
	DB	0daH
	DB	0d9H
	DB	06H
	DB	01H
	DB	01H
	DB	01H
	DB	01H
	DB	01H
	DB	01H
	DB	01H
	DB	01H
	DB	01H
	DB	01H
	DB	01H
	DB	01H
	DB	01H
	DB	016H
	DB	0b0H
	DB	0daH
	DB	09H
	DB	0daH
	DB	0daH
	DB	0daH
	DB	0daH
	DB	0daH
	DB	0daH
	DB	0daH
	DB	0daH
	DB	0daH
	DB	0daH
	DB	0daH
	DB	0daH
	DB	0daH
	DB	0daH
	DB	0daH
	DB	0daH
	DB	0daH
	DB	0daH
	DB	0daH
	DB	0daH
	DB	0daH
	DB	0daH
	DB	0daH
	DB	0daH
	DB	0daH
	DB	0daH
	DB	077H
	DB	0b4H
	DB	010H
	DB	020H
	DB	020H
	DB	09fH
	DB	09fH
	DB	01eH
	DB	09fH
	DB	01eH
	DB	01eH
	DB	01eH
	DB	014H
	DB	014H
	DB	014H
	DB	014H
	DB	064H
	DB	064H
	DB	064H
	DB	064H
	DB	065H
	DB	0fH
	DB	081H
	DB	021H
	DB	082H
	DB	082H
	DB	01cH
	DB	013H
	DB	01cH
	DB	01cH
	DB	013H
	DB	099H
	DB	01bH
	DB	0dH
	DB	0dH
	DB	013H
	DB	013H
	DB	099H
	DB	099H
	DB	013H
	DB	0dH
	DB	0dH
	DB	0dH
	DB	0dH
	DB	0dH
	DB	0dH
	DB	013H
	DB	01cH
	DB	032H
	DB	0dH
	DB	013H
	DB	054H
	DB	01H
	DB	01H
	DB	01H
	DB	0ddH
	DB	08dH
	DB	074H
	DB	074H
	DB	074H
	DB	074H
	DB	074H
	DB	074H
	DB	023H
	DB	023H
	DB	0b3H
	DB	087H
	DB	07fH
	DB	040H
	DB	07eH
	DB	02fH
	DB	02fH
	DB	054H
	DB	03eH
	DB	047H
	DB	0b9H
	DB	0eH
	DB	028H
	DB	028H
	DB	072H
	DB	028H
	DB	028H
	DB	028H
	DB	047H
	DB	032H
	DB	0eH
	DB	047H
	DB	02eH
	DB	0fH
	DB	065H
	DB	064H
	DB	014H
	DB	014H
	DB	014H
	DB	064H
	DB	03eH
	DB	081H
	DB	0e9H
	DB	0daH
	DB	0daH
	DB	0daH
	DB	0daH
	DB	0daH
	DB	0daH
	DB	0daH
	DB	0daH
	DB	0daH
	DB	0daH
	DB	0daH
	DB	0daH
	DB	0daH
	DB	0daH
	DB	0daH
	DB	0daH
	DB	0daH
	DB	0daH
	DB	0daH
	DB	0daH
	DB	0daH
	DB	0daH
	DB	0daH
	DB	0daH
	DB	0daH
	DB	0daH
	DB	0daH
	DB	0daH
	DB	0daH
	DB	0daH
	DB	0daH
	DB	0daH
	DB	0daH
	DB	0daH
	DB	09H
	DB	0f2H
	DB	018H
	DB	01H
	DB	01H
	DB	01H
	DB	01H
	DB	01H
	DB	01H
	DB	01H
	DB	01H
	DB	01H
	DB	01H
	DB	01H
	DB	01H
	DB	01H
	DB	0ddH
	DB	0a4H
	DB	0f2H
	DB	0d9H
	DB	09H
	DB	09H
	DB	09H
	DB	09H
	DB	09H
	DB	09H
	DB	09H
	DB	09H
	DB	09H
	DB	09H
	DB	09H
	DB	09H
	DB	09H
	DB	09H
	DB	09H
	DB	09H
	DB	09H
	DB	09H
	DB	09H
	DB	09H
	DB	09H
	DB	09H
	DB	09H
	DB	09H
	DB	09H
	DB	09H
	DB	057H
	DB	010H
	DB	09fH
	DB	09fH
	DB	01eH
	DB	01eH
	DB	01eH
	DB	01eH
	DB	014H
	DB	014H
	DB	014H
	DB	01eH
	DB	01eH
	DB	014H
	DB	014H
	DB	064H
	DB	064H
	DB	03eH
	DB	0fH
	DB	0fH
	DB	065H
	DB	065H
	DB	0fH
	DB	02eH
	DB	021H
	DB	082H
	DB	013H
	DB	013H
	DB	099H
	DB	013H
	DB	013H
	DB	099H
	DB	01bH
	DB	01bH
	DB	01bH
	DB	01bH
	DB	01bH
	DB	01bH
	DB	01bH
	DB	01bH
	DB	01bH
	DB	0dH
	DB	0dH
	DB	0dH
	DB	0dH
	DB	0dH
	DB	0dH
	DB	0dH
	DB	0dH
	DB	0dH
	DB	0dH
	DB	01eH
	DB	01H
	DB	01H
	DB	01H
	DB	01H
	DB	01H
	DB	052H
	DB	0ddH
	DB	048H
	DB	0b3H
	DB	074H
	DB	074H
	DB	074H
	DB	023H
	DB	023H
	DB	087H
	DB	07fH
	DB	040H
	DB	040H
	DB	054H
	DB	01eH
	DB	081H
	DB	02eH
	DB	047H
	DB	047H
	DB	0eH
	DB	028H
	DB	0a1H
	DB	032H
	DB	028H
	DB	047H
	DB	047H
	DB	047H
	DB	047H
	DB	0eH
	DB	0eH
	DB	047H
	DB	02eH
	DB	019H
	DB	0fH
	DB	065H
	DB	0fH
	DB	0fH
	DB	081H
	DB	081H
	DB	021H
	DB	0e9H
	DB	02H
	DB	09H
	DB	09H
	DB	09H
	DB	09H
	DB	09H
	DB	09H
	DB	09H
	DB	09H
	DB	09H
	DB	09H
	DB	09H
	DB	09H
	DB	09H
	DB	09H
	DB	09H
	DB	09H
	DB	09H
	DB	09H
	DB	09H
	DB	09H
	DB	09H
	DB	09H
	DB	09H
	DB	09H
	DB	09H
	DB	09H
	DB	09H
	DB	09H
	DB	09H
	DB	09H
	DB	09H
	DB	09H
	DB	0daH
	DB	0f2H
	DB	06H
	DB	025H
	DB	01H
	DB	01H
	DB	01H
	DB	01H
	DB	01H
	DB	01H
	DB	01H
	DB	01H
	DB	01H
	DB	01H
	DB	01H
	DB	01H
	DB	01H
	DB	01H
	DB	025H
	DB	027H
	DB	071H
	DB	011H
	DB	011H
	DB	011H
	DB	011H
	DB	011H
	DB	011H
	DB	011H
	DB	011H
	DB	011H
	DB	011H
	DB	011H
	DB	011H
	DB	011H
	DB	011H
	DB	011H
	DB	011H
	DB	011H
	DB	011H
	DB	011H
	DB	011H
	DB	011H
	DB	011H
	DB	011H
	DB	011H
	DB	011H
	DB	0e1H
	DB	05bH
	DB	075H
	DB	04bH
	DB	04bH
	DB	04bH
	DB	04bH
	DB	04bH
	DB	04bH
	DB	04bH
	DB	04bH
	DB	04bH
	DB	04bH
	DB	04bH
	DB	04bH
	DB	04bH
	DB	04bH
	DB	04bH
	DB	04bH
	DB	070H
	DB	070H
	DB	070H
	DB	070H
	DB	070H
	DB	070H
	DB	056H
	DB	056H
	DB	056H
	DB	042H
	DB	057H
	DB	057H
	DB	057H
	DB	057H
	DB	057H
	DB	057H
	DB	069H
	DB	069H
	DB	069H
	DB	069H
	DB	069H
	DB	069H
	DB	057H
	DB	057H
	DB	057H
	DB	057H
	DB	057H
	DB	057H
	DB	057H
	DB	057H
	DB	057H
	DB	057H
	DB	057H
	DB	070H
	DB	0deH
	DB	048H
	DB	048H
	DB	048H
	DB	048H
	DB	048H
	DB	048H
	DB	048H
	DB	048H
	DB	0deH
	DB	026H
	DB	026H
	DB	074H
	DB	074H
	DB	074H
	DB	0b3H
	DB	0b3H
	DB	043H
	DB	05bH
	DB	070H
	DB	077H
	DB	056H
	DB	077H
	DB	0e0H
	DB	0e0H
	DB	03eH
	DB	03eH
	DB	03eH
	DB	03eH
	DB	0e0H
	DB	0e0H
	DB	077H
	DB	077H
	DB	056H
	DB	056H
	DB	077H
	DB	077H
	DB	056H
	DB	077H
	DB	070H
	DB	070H
	DB	070H
	DB	056H
	DB	056H
	DB	056H
	DB	069H
	DB	078H
	DB	011H
	DB	011H
	DB	011H
	DB	011H
	DB	011H
	DB	011H
	DB	011H
	DB	011H
	DB	011H
	DB	011H
	DB	011H
	DB	011H
	DB	011H
	DB	011H
	DB	011H
	DB	011H
	DB	011H
	DB	011H
	DB	011H
	DB	011H
	DB	011H
	DB	011H
	DB	011H
	DB	011H
	DB	011H
	DB	011H
	DB	011H
	DB	011H
	DB	011H
	DB	011H
	DB	011H
	DB	011H
	DB	011H
	DB	027H
	DB	048H
	DB	01H
	DB	01H
	DB	01H
	DB	01H
	DB	01H
	DB	01H
	DB	01H
	DB	01H
	DB	01H
	DB	01H
	DB	01H
	DB	01H
	DB	01H
	DB	01H
	DB	01H
	DB	01H
	DB	01H
	DB	01H
	DB	01H
	DB	01H
	DB	01H
	DB	01H
	DB	01H
	DB	01H
	DB	01H
	DB	01H
	DB	01H
	DB	01H
	DB	01H
	DB	01H
	DB	01H
	DB	01H
	DB	01H
	DB	01H
	DB	01H
	DB	01H
	DB	01H
	DB	01H
	DB	01H
	DB	01H
	DB	01H
	DB	01H
	DB	01H
	DB	01H
	DB	052H
	DB	0c1H
	DB	052H
	DB	0c1H
	DB	052H
	DB	052H
	DB	052H
	DB	052H
	DB	052H
	DB	052H
	DB	052H
	DB	052H
	DB	052H
	DB	052H
	DB	052H
	DB	052H
	DB	052H
	DB	052H
	DB	052H
	DB	052H
	DB	052H
	DB	052H
	DB	052H
	DB	052H
	DB	052H
	DB	052H
	DB	052H
	DB	052H
	DB	052H
	DB	052H
	DB	052H
	DB	052H
	DB	052H
	DB	052H
	DB	01H
	DB	01H
	DB	01H
	DB	01H
	DB	01H
	DB	01H
	DB	052H
	DB	052H
	DB	052H
	DB	052H
	DB	052H
	DB	052H
	DB	052H
	DB	052H
	DB	052H
	DB	052H
	DB	052H
	DB	052H
	DB	017H
	DB	017H
	DB	017H
	DB	017H
	DB	017H
	DB	017H
	DB	017H
	DB	017H
	DB	017H
	DB	017H
	DB	017H
	DB	017H
	DB	017H
	DB	017H
	DB	017H
	DB	017H
	DB	017H
	DB	0c1H
	DB	052H
	DB	052H
	DB	052H
	DB	052H
	DB	052H
	DB	052H
	DB	052H
	DB	052H
	DB	052H
	DB	052H
	DB	052H
	DB	052H
	DB	052H
	DB	052H
	DB	052H
	DB	052H
	DB	052H
	DB	052H
	DB	052H
	DB	052H
	DB	052H
	DB	052H
	DB	052H
	DB	052H
	DB	052H
	DB	052H
	DB	052H
	DB	01H
	DB	01H
	DB	01H
	DB	01H
	DB	01H
	DB	01H
	DB	01H
	DB	01H
	DB	01H
	DB	01H
	DB	01H
	DB	01H
	DB	01H
	DB	01H
	DB	01H
	DB	01H
	DB	01H
	DB	01H
	DB	01H
	DB	01H
	DB	01H
	DB	01H
	DB	01H
	DB	01H
	DB	01H
	DB	01H
	DB	01H
	DB	01H
	DB	01H
	DB	01H
	DB	01H
	DB	01H
	DB	01H
	DB	01H
	DB	01H
	DB	01H
	DB	01H
	DB	01H
	DB	01H
	DB	01H
	DB	01H
	DB	01H
	DB	01H
	DB	01H
	DB	01H
	DB	01H
	DB	01H
	DB	01H
	DB	01H
	DB	01H
	DB	01H
	DB	01H
	DB	01H
	DB	01H
	DB	01H
	DB	01H
	DB	01H
	DB	01H
	DB	01H
	DB	01H
	DB	01H
	DB	01H
	DB	01H
	DB	01H
	DB	01H
	DB	01H
	DB	01H
	DB	01H
	DB	01H
	DB	01H
	DB	01H
	DB	01H
	DB	01H
	DB	01H
	DB	01H
	DB	01H
	DB	01H
	DB	01H
	DB	01H
	DB	01H
	DB	01H
	DB	01H
	DB	01H
	DB	01H
	DB	01H
	DB	01H
	DB	01H
	DB	01H
	DB	01H
	DB	01H
	DB	01H
	DB	01H
	DB	01H
	DB	01H
	DB	01H
	DB	01H
	DB	01H
	DB	01H
	DB	01H
	DB	01H
	DB	01H
	DB	01H
	DB	01H
	DB	01H
	DB	01H
	DB	01H
	DB	01H
	DB	01H
	DB	01H
	DB	01H
	DB	01H
	DB	01H
	DB	01H
	DB	01H
	DB	01H
	DB	01H
	DB	01H
	DB	01H
	DB	01H
	DB	01H
	DB	01H
	DB	01H
	DB	01H
	DB	01H
	DB	01H
	DB	01H
	DB	01H
	DB	01H
	DB	01H
	DB	01H
	DB	01H
	DB	01H
	DB	01H
	DB	01H
	DB	01H
	DB	01H
	DB	01H
	DB	01H
	DB	01H
	DB	01H
	DB	01H
	DB	01H
	DB	01H
	DB	01H
	DB	01H
	DB	01H
	DB	01H
	DB	01H
	DB	01H
	DB	01H
	DB	01H
	DB	01H
	DB	01H
	DB	01H
	DB	01H
	DB	01H
	DB	01H
	DB	01H
	DB	01H
	DB	01H
	DB	01H
	DB	01H
	DB	01H
	DB	01H
	DB	01H
	DB	01H
	DB	01H
	DB	01H
	DB	01H
	DB	01H
	DB	01H
	DB	01H
	DB	01H
	DB	01H
	DB	01H
	DB	01H
	DB	01H
	DB	01H
	DB	01H
	DB	01H
	DB	01H
	DB	01H
	DB	01H
	DB	01H
	DB	01H
	DB	01H
	DB	01H
	DB	01H
	DB	01H
	DB	01H
	DB	01H
	DB	01H
	DB	01H
	DB	01H
	DB	01H
	DB	01H
	DB	01H
	DB	01H
	DB	01H
	DB	01H
	DB	01H
	DB	01H
	DB	01H
	DB	01H
	DB	01H
	DB	01H
	DB	01H
	DB	01H
	DB	01H
	DB	01H
	DB	01H
	DB	01H
	DB	01H
	DB	01H
	DB	01H
	DB	01H
	DB	01H
	DB	01H
	DB	01H
	DB	01H
	DB	01H
	DB	01H
	DB	01H
	DB	01H
	DB	01H
	DB	01H
	DB	01H
	DB	01H
	DB	01H
	DB	01H
	DB	01H
	DB	01H
	DB	01H
	DB	01H
	DB	01H
	DB	01H
	DB	01H
	DB	01H
	DB	01H
	DB	01H
	DB	01H
	DB	01H
	DB	01H
	DB	01H
	DB	01H
	DB	01H
	DB	01H
	DB	01H
	DB	01H
	DB	01H
	DB	01H
	DB	01H
	DB	01H
	DB	01H
	DB	01H
	DB	01H
	DB	01H
	DB	01H
	DB	01H
	DB	01H
	DB	01H
	DB	01H
	DB	01H
	DB	01H
	DB	01H
	DB	01H
	DB	01H
	DB	01H
	DB	01H
	DB	01H
	DB	01H
	DB	01H
	DB	01H
	DB	01H
	DB	01H
	DB	01H
	DB	01H
	DB	01H
	DB	01H
	DB	01H
	DB	01H
	DB	01H
	DB	01H
	DB	01H
	DB	01H
	DB	01H
	DB	01H
	DB	01H
	DB	01H
	DB	01H
	DB	01H
	DB	01H
	DB	01H
	DB	01H
	DB	01H
	DB	01H
	DB	01H
	DB	01H
	DB	01H
	DB	01H
	DB	01H
	DB	01H
	DB	01H
	DB	01H
	DB	01H
	DB	01H
	DB	01H
	DB	01H
	DB	01H
	DB	01H
	DB	01H
	DB	01H
	DB	01H
	DB	01H
	DB	01H
	DB	01H
	DB	01H
	DB	01H
	DB	01H
	DB	01H
	DB	01H
	DB	01H
	DB	01H
	DB	01H
	DB	01H
	DB	01H
	DB	01H
	DB	01H
	DB	01H
	DB	01H
	DB	01H
	DB	01H
	DB	01H
	DB	01H
	DB	01H
	DB	01H
	DB	01H
	DB	01H
	DB	01H
	DB	01H
	DB	01H
	DB	01H
	DB	01H
	DB	01H
	DB	01H
	DB	01H
	DB	01H
	DB	01H
	DB	01H
	DB	01H
	DB	01H
	DB	01H
	DB	01H
	DB	01H
	DB	01H
	DB	01H
	DB	01H
	DB	01H
	DB	01H
	DB	01H
	DB	01H
	DB	01H
	DB	01H
	DB	01H
	DB	01H
	DB	01H
	DB	01H
	DB	01H
	DB	01H
	DB	01H
	DB	01H
	DB	01H
	DB	01H
	DB	01H
	DB	01H
	DB	01H
	DB	01H
	DB	01H
	DB	01H
	DB	01H
	DB	01H
	DB	01H
	DB	01H
	DB	01H
	DB	01H
	DB	01H
	DB	01H
	DB	01H
	DB	01H
	DB	01H
	DB	01H
	DB	01H
	DB	01H
	DB	01H
	DB	01H
	DB	01H
	DB	01H
	DB	01H
	DB	01H
	DB	01H
	DB	01H
	DB	01H
	DB	01H
	DB	01H
	DB	01H
	DB	01H
	DB	01H
	DB	01H
	DB	01H
	DB	01H
	DB	01H
	DB	01H
	DB	01H
	DB	01H
	DB	01H
	DB	01H
	DB	01H
	DB	01H
	DB	01H
	DB	01H
	DB	01H
	DB	01H
	DB	01H
	DB	01H
	DB	01H
	DB	01H
	DB	01H
	DB	01H
	DB	01H
	DB	01H
	DB	01H
	DB	01H
	DB	01H
	DB	01H
	DB	01H
	DB	01H
	DB	01H
	DB	01H
	DB	01H
	DB	01H
	DB	01H
	DB	01H
	DB	01H
	DB	01H
	DB	01H
	DB	01H
	DB	01H
	DB	01H
	DB	01H
	DB	01H
	DB	01H
	DB	01H
	DB	01H
	DB	01H
	DB	01H
	DB	01H
	DB	01H
	DB	01H
	DB	01H
	DB	01H
	DB	01H
	DB	01H
	DB	01H
	DB	01H
	DB	01H
	DB	01H
	DB	01H
	DB	01H
	DB	01H
	DB	01H
	DB	01H
	DB	01H
	DB	01H
	DB	01H
	DB	01H
	DB	01H
	DB	01H
	DB	01H
	DB	01H
	DB	01H
	DB	01H
	DB	01H
	DB	01H
	DB	01H
	DB	01H
	DB	01H
	DB	01H
	DB	01H
	DB	01H
	DB	01H
	DB	01H
	DB	01H
	DB	01H
	DB	01H
	DB	01H
	DB	01H
	DB	01H
	DB	01H
	DB	01H
	DB	01H
	DB	01H
	DB	01H
	DB	01H
	DB	01H
	DB	01H
	DB	01H
	DB	01H
	DB	01H
	DB	01H
	DB	01H
	DB	01H
	DB	01H
	DB	01H
	DB	01H
	DB	01H
	DB	01H
	DB	01H
	DB	01H
	DB	01H
	DB	01H
	DB	01H
	DB	01H
	DB	01H
	DB	01H
	DB	01H
	DB	01H
	DB	01H
	DB	01H
	DB	01H
	DB	01H
	DB	01H
	DB	01H
	DB	01H
	DB	01H
	DB	01H
	DB	01H
	DB	01H
	DB	01H
	DB	01H
	DB	01H
	DB	01H
	DB	01H
	DB	01H
	DB	01H
	DB	01H
	DB	01H
	DB	01H
	DB	01H
	DB	01H
	DB	01H
	DB	01H
	DB	01H
	DB	01H
	DB	01H
	DB	01H
	DB	01H
	DB	01H
	DB	01H
	DB	01H
	DB	01H
	DB	01H
	DB	01H
	DB	01H
	DB	01H
	DB	01H
	DB	01H
	DB	01H
	DB	01H
	DB	01H
	DB	01H
	DB	01H
	DB	01H
	DB	01H
	DB	01H
	DB	01H
	DB	01H
	DB	01H
	DB	01H
	DB	01H
	DB	01H
	DB	01H
	DB	01H
	DB	01H
	DB	01H
	DB	01H
	DB	01H
	DB	01H
	DB	01H
	DB	01H
	DB	01H
	DB	01H
	DB	01H
	DB	01H
	DB	01H
	DB	01H
	DB	01H
	DB	01H
	DB	01H
	DB	01H
	DB	01H
	DB	01H
	DB	01H
	DB	01H
	DB	01H
	DB	01H
	DB	01H
	DB	01H
	DB	01H
	DB	01H
	DB	01H
	DB	01H
	DB	01H
	DB	01H
	DB	01H
	DB	01H
	DB	01H
	DB	01H
	DB	01H
	DB	01H
	DB	01H
	DB	01H
	DB	01H
	DB	01H
	DB	01H
	DB	01H
	DB	01H
	DB	01H
	DB	01H
	DB	01H
	DB	01H
	DB	01H
	DB	01H
	DB	01H
	DB	01H
	DB	01H
	DB	01H
	DB	01H
	DB	01H
	DB	01H
	DB	01H
	DB	01H
	DB	01H
	DB	01H
	DB	01H
	DB	01H
	DB	01H
	DB	01H
	DB	01H
	DB	01H
	DB	01H
	DB	01H
	DB	01H
	DB	01H
	DB	01H
	DB	01H
	DB	01H
	DB	01H
	DB	01H
	DB	01H
	DB	01H
	DB	01H
	DB	01H
	DB	01H
	DB	01H
	DB	01H
	DB	01H
	DB	01H
	DB	01H
	DB	01H
	DB	01H
	DB	01H
	DB	01H
	DB	01H
	DB	01H
	DB	01H
	DB	01H
	DB	01H
	DB	01H
	DB	01H
	DB	01H
	DB	01H
	DB	01H
	DB	01H
	DB	01H
	DB	01H
	DB	01H
	DB	01H
	DB	01H
	DB	01H
	DB	01H
	DB	01H
	DB	01H
	DB	01H
	DB	01H
	DB	01H
	DB	01H
	DB	01H
	DB	01H
	DB	01H
	DB	01H
	DB	01H
	DB	01H
	DB	01H
	DB	01H
	DB	01H
	DB	01H
	DB	01H
	DB	01H
	DB	01H
	DB	01H
	DB	01H
	DB	01H
	DB	01H
	DB	01H
	DB	01H
	DB	01H
	DB	01H
	DB	01H
	DB	01H
	DB	01H
	DB	01H
	DB	01H
	DB	01H
	DB	01H
	DB	01H
	DB	01H
	DB	01H
	DB	01H
	DB	01H
	DB	01H
	DB	01H
	DB	01H
	DB	01H
	DB	01H
	DB	01H
	DB	01H
	DB	01H
	DB	01H
	DB	01H
	DB	01H
	DB	01H
	DB	01H
	DB	01H
	DB	01H
	DB	01H
	DB	01H
	DB	01H
	DB	01H
	DB	01H
	DB	01H
	DB	01H
	DB	01H
	DB	01H
	DB	01H
	DB	01H
	DB	01H
	DB	01H
	DB	01H
	DB	01H
	DB	01H
	DB	01H
	DB	01H
	DB	01H
	DB	01H
	DB	01H
	DB	01H
	DB	01H
	DB	01H
	DB	01H
	DB	01H
	DB	01H
	DB	01H
	DB	01H
	DB	01H
	DB	01H
	DB	01H
	DB	01H
	DB	01H
	DB	01H
	DB	01H
	DB	01H
	DB	01H
	DB	01H
	DB	01H
	DB	01H
	DB	01H
	DB	01H
	DB	01H
	DB	01H
	DB	01H
	DB	01H
	DB	01H
	DB	01H
	DB	01H
	DB	01H
	DB	01H
	DB	01H
	DB	01H
	DB	01H
	DB	01H
	DB	01H
	DB	01H
	DB	01H
	DB	01H
	DB	01H
	DB	01H
	DB	01H
	DB	01H
	DB	01H
	DB	01H
	DB	01H
	DB	01H
	DB	01H
	DB	01H
	DB	01H
	DB	01H
	DB	01H
	DB	01H
	DB	01H
	DB	01H
	DB	01H
	DB	01H
	DB	01H
	DB	01H
	DB	01H
	DB	01H
	DB	01H
	DB	01H
	DB	01H
	DB	01H
	DB	01H
	DB	01H
	DB	01H
	DB	01H
	DB	01H
	DB	01H
	DB	01H
	DB	01H
	DB	01H
	DB	01H
	DB	01H
	DB	01H
	DB	01H
	DB	01H
	DB	01H
	DB	01H
	DB	01H
	DB	01H
	DB	01H
	DB	01H
	DB	01H
	DB	01H
	DB	01H
	DB	01H
	DB	01H
	DB	01H
	DB	01H
	DB	01H
	DB	01H
	DB	01H
	DB	01H
	DB	01H
	DB	01H
	DB	01H
	DB	01H
	DB	01H
	DB	01H
	DB	01H
	DB	01H
	DB	01H
	DB	01H
	DB	01H
	DB	01H
	DB	01H
	DB	01H
	DB	01H
	DB	01H
	DB	01H
	DB	01H
	DB	01H
	DB	01H
	DB	01H
	DB	01H
	DB	01H
	DB	01H
	DB	01H
	DB	01H
	DB	01H
	DB	01H
	DB	01H
	DB	01H
	DB	01H
	DB	01H
	DB	01H
	DB	01H
	DB	01H
	DB	01H
	DB	01H
	DB	01H
	DB	01H
	DB	01H
	DB	01H
	DB	01H
	DB	01H
	DB	01H
	DB	01H
	DB	01H
	DB	01H
	DB	01H
	DB	01H
	DB	01H
	DB	01H
	DB	01H
	DB	01H
	DB	01H
	DB	01H
	DB	01H
	DB	01H
	DB	01H
	DB	01H
	DB	01H
	DB	01H
	DB	01H
	DB	01H
	DB	01H
	DB	01H
	DB	01H
	DB	01H
	DB	01H
	DB	01H
	DB	01H
	DB	01H
	DB	01H
	DB	01H
	DB	01H
	DB	01H
	DB	01H
	DB	01H
	DB	01H
	DB	01H
	DB	01H
	DB	01H
	DB	01H
	DB	01H
	DB	01H
	DB	052H
	DB	08H
	DB	04H
	DB	0d3H
	DB	0f1H
	DB	0ddH
	DB	01H
	DB	01H
	DB	01H
	DB	01H
	DB	01H
	DB	01H
	DB	01H
	DB	01H
	DB	01H
	DB	01H
	DB	01H
	DB	01H
	DB	01H
	DB	01H
	DB	01H
	DB	01H
	DB	01H
	DB	01H
	DB	01H
	DB	01H
	DB	01H
	DB	01H
	DB	01H
	DB	01H
	DB	01H
	DB	01H
	DB	01H
	DB	01H
	DB	01H
	DB	01H
	DB	01H
	DB	01H
	DB	01H
	DB	01H
	DB	01H
	DB	01H
	DB	01H
	DB	01H
	DB	01H
	DB	01H
	DB	01H
	DB	0dfH
	DB	0f2H
	DB	089H
	DB	04H
	DB	018H
	DB	01H
	DB	01H
	DB	01H
	DB	048H
	DB	05H
	DB	0d3H
	DB	04H
	DB	098H
	DB	01H
	DB	01H
	DB	01H
	DB	01H
	DB	01H
	DB	01H
	DB	01H
	DB	01H
	DB	01H
	DB	01H
	DB	01H
	DB	01H
	DB	01H
	DB	01H
	DB	01H
	DB	01H
	DB	01H
	DB	048H
	DB	05H
	DB	04H
	DB	04H
	DB	018H
	DB	01H
	DB	01H
	DB	01H
	DB	01H
	DB	01H
	DB	01H
	DB	01H
	DB	01H
	DB	01H
	DB	01H
	DB	016H
	DB	0d3H
	DB	0d3H
	DB	04H
	DB	016H
	DB	01H
	DB	01H
	DB	01H
	DB	01H
	DB	01H
	DB	01H
	DB	0deH
	DB	0f1H
	DB	0d3H
	DB	089H
	DB	089H
	DB	089H
	DB	089H
	DB	089H
	DB	089H
	DB	089H
	DB	089H
	DB	0f2H
	DB	0dfH
	DB	01H
	DB	07H
	DB	04H
	DB	04H
	DB	08H
	DB	01H
	DB	01H
	DB	01H
	DB	01H
	DB	01H
	DB	01H
	DB	01H
	DB	01H
	DB	01H
	DB	01H
	DB	01H
	DB	01H
	DB	01H
	DB	01H
	DB	01H
	DB	01H
	DB	01H
	DB	01H
	DB	01H
	DB	01H
	DB	01H
	DB	01H
	DB	01H
	DB	01H
	DB	01H
	DB	01H
	DB	01H
	DB	01H
	DB	01H
	DB	01H
	DB	01H
	DB	01H
	DB	01H
	DB	01H
	DB	01H
	DB	01H
	DB	01H
	DB	01H
	DB	01H
	DB	01H
	DB	01H
	DB	01H
	DB	01H
	DB	01H
	DB	01H
	DB	01H
	DB	01H
	DB	01H
	DB	01H
	DB	01H
	DB	01H
	DB	01H
	DB	01H
	DB	01H
	DB	01H
	DB	01H
	DB	01H
	DB	017H
	DB	02H
	DB	03H
	DB	03H
	DB	03H
	DB	025H
	DB	01H
	DB	01H
	DB	01H
	DB	01H
	DB	01H
	DB	01H
	DB	01H
	DB	01H
	DB	01H
	DB	01H
	DB	01H
	DB	01H
	DB	01H
	DB	01H
	DB	01H
	DB	01H
	DB	01H
	DB	01H
	DB	01H
	DB	01H
	DB	01H
	DB	01H
	DB	01H
	DB	01H
	DB	01H
	DB	01H
	DB	01H
	DB	01H
	DB	01H
	DB	01H
	DB	01H
	DB	01H
	DB	01H
	DB	01H
	DB	01H
	DB	01H
	DB	01H
	DB	01H
	DB	01H
	DB	01H
	DB	01H
	DB	018H
	DB	03H
	DB	03H
	DB	03H
	DB	08H
	DB	01H
	DB	01H
	DB	01H
	DB	026H
	DB	0b2H
	DB	03H
	DB	03H
	DB	0f2H
	DB	01H
	DB	01H
	DB	01H
	DB	01H
	DB	01H
	DB	01H
	DB	01H
	DB	01H
	DB	01H
	DB	01H
	DB	01H
	DB	01H
	DB	01H
	DB	01H
	DB	01H
	DB	01H
	DB	01H
	DB	026H
	DB	0c0H
	DB	03H
	DB	03H
	DB	098H
	DB	01H
	DB	01H
	DB	01H
	DB	01H
	DB	01H
	DB	01H
	DB	01H
	DB	01H
	DB	01H
	DB	01H
	DB	0a7H
	DB	03H
	DB	03H
	DB	03H
	DB	018H
	DB	01H
	DB	01H
	DB	01H
	DB	01H
	DB	01H
	DB	01H
	DB	016H
	DB	03H
	DB	03H
	DB	03H
	DB	03H
	DB	03H
	DB	03H
	DB	03H
	DB	03H
	DB	03H
	DB	03H
	DB	03H
	DB	018H
	DB	01H
	DB	09H
	DB	03H
	DB	03H
	DB	09cH
	DB	01H
	DB	01H
	DB	01H
	DB	01H
	DB	01H
	DB	01H
	DB	01H
	DB	01H
	DB	01H
	DB	01H
	DB	01H
	DB	01H
	DB	01H
	DB	01H
	DB	01H
	DB	01H
	DB	01H
	DB	01H
	DB	01H
	DB	01H
	DB	01H
	DB	01H
	DB	01H
	DB	01H
	DB	01H
	DB	01H
	DB	01H
	DB	01H
	DB	01H
	DB	01H
	DB	01H
	DB	01H
	DB	01H
	DB	01H
	DB	01H
	DB	01H
	DB	01H
	DB	01H
	DB	01H
	DB	01H
	DB	01H
	DB	01H
	DB	01H
	DB	01H
	DB	01H
	DB	01H
	DB	01H
	DB	01H
	DB	01H
	DB	01H
	DB	01H
	DB	01H
	DB	01H
	DB	01H
	DB	01H
	DB	01H
	DB	01H
	DB	017H
	DB	09cH
	DB	03H
	DB	03H
	DB	03H
	DB	025H
	DB	01H
	DB	01H
	DB	01H
	DB	01H
	DB	01H
	DB	01H
	DB	01H
	DB	01H
	DB	01H
	DB	01H
	DB	01H
	DB	01H
	DB	01H
	DB	01H
	DB	01H
	DB	01H
	DB	01H
	DB	01H
	DB	01H
	DB	01H
	DB	01H
	DB	01H
	DB	01H
	DB	01H
	DB	01H
	DB	01H
	DB	01H
	DB	01H
	DB	01H
	DB	01H
	DB	01H
	DB	01H
	DB	01H
	DB	01H
	DB	01H
	DB	01H
	DB	01H
	DB	01H
	DB	01H
	DB	01H
	DB	01H
	DB	018H
	DB	03H
	DB	03H
	DB	03H
	DB	08H
	DB	01H
	DB	01H
	DB	01H
	DB	026H
	DB	0b2H
	DB	03H
	DB	03H
	DB	0f2H
	DB	01H
	DB	01H
	DB	01H
	DB	01H
	DB	01H
	DB	01H
	DB	01H
	DB	01H
	DB	01H
	DB	01H
	DB	01H
	DB	01H
	DB	01H
	DB	01H
	DB	01H
	DB	01H
	DB	01H
	DB	026H
	DB	0c0H
	DB	03H
	DB	03H
	DB	098H
	DB	01H
	DB	01H
	DB	01H
	DB	01H
	DB	01H
	DB	01H
	DB	01H
	DB	01H
	DB	01H
	DB	01H
	DB	027H
	DB	03H
	DB	03H
	DB	03H
	DB	018H
	DB	01H
	DB	01H
	DB	01H
	DB	01H
	DB	01H
	DB	01H
	DB	026H
	DB	02H
	DB	02H
	DB	02H
	DB	0b0H
	DB	03H
	DB	03H
	DB	03H
	DB	0bH
	DB	02H
	DB	02H
	DB	09H
	DB	027H
	DB	01H
	DB	09H
	DB	03H
	DB	03H
	DB	09cH
	DB	01H
	DB	01H
	DB	01H
	DB	01H
	DB	01H
	DB	01H
	DB	01H
	DB	01H
	DB	01H
	DB	01H
	DB	01H
	DB	01H
	DB	01H
	DB	01H
	DB	01H
	DB	01H
	DB	01H
	DB	01H
	DB	01H
	DB	01H
	DB	01H
	DB	01H
	DB	01H
	DB	01H
	DB	01H
	DB	01H
	DB	01H
	DB	01H
	DB	01H
	DB	01H
	DB	01H
	DB	01H
	DB	01H
	DB	01H
	DB	01H
	DB	01H
	DB	01H
	DB	01H
	DB	01H
	DB	01H
	DB	01H
	DB	01H
	DB	01H
	DB	01H
	DB	01H
	DB	01H
	DB	01H
	DB	01H
	DB	01H
	DB	01H
	DB	01H
	DB	01H
	DB	01H
	DB	01H
	DB	01H
	DB	01H
	DB	01H
	DB	017H
	DB	09cH
	DB	03H
	DB	03H
	DB	03H
	DB	025H
	DB	01H
	DB	01H
	DB	01H
	DB	01H
	DB	01H
	DB	01H
	DB	01H
	DB	01H
	DB	01H
	DB	01H
	DB	01H
	DB	01H
	DB	01H
	DB	01H
	DB	01H
	DB	01H
	DB	01H
	DB	01H
	DB	01H
	DB	01H
	DB	01H
	DB	01H
	DB	01H
	DB	01H
	DB	01H
	DB	01H
	DB	01H
	DB	01H
	DB	01H
	DB	01H
	DB	01H
	DB	01H
	DB	01H
	DB	01H
	DB	01H
	DB	01H
	DB	01H
	DB	01H
	DB	01H
	DB	01H
	DB	01H
	DB	018H
	DB	03H
	DB	03H
	DB	03H
	DB	08H
	DB	01H
	DB	01H
	DB	01H
	DB	026H
	DB	0b2H
	DB	03H
	DB	03H
	DB	0f2H
	DB	01H
	DB	01H
	DB	01H
	DB	01H
	DB	01H
	DB	01H
	DB	01H
	DB	01H
	DB	01H
	DB	01H
	DB	01H
	DB	01H
	DB	01H
	DB	01H
	DB	01H
	DB	01H
	DB	01H
	DB	026H
	DB	0c0H
	DB	03H
	DB	03H
	DB	098H
	DB	01H
	DB	01H
	DB	01H
	DB	01H
	DB	01H
	DB	01H
	DB	01H
	DB	01H
	DB	01H
	DB	01H
	DB	027H
	DB	03H
	DB	03H
	DB	03H
	DB	018H
	DB	01H
	DB	01H
	DB	01H
	DB	01H
	DB	01H
	DB	01H
	DB	01H
	DB	017H
	DB	017H
	DB	01H
	DB	018H
	DB	03H
	DB	03H
	DB	03H
	DB	0d1H
	DB	01H
	DB	017H
	DB	017H
	DB	052H
	DB	01H
	DB	025H
	DB	025H
	DB	025H
	DB	0ddH
	DB	01H
	DB	01H
	DB	01H
	DB	01H
	DB	01H
	DB	01H
	DB	01H
	DB	01H
	DB	01H
	DB	01H
	DB	01H
	DB	01H
	DB	01H
	DB	01H
	DB	01H
	DB	01H
	DB	01H
	DB	01H
	DB	01H
	DB	01H
	DB	01H
	DB	01H
	DB	01H
	DB	01H
	DB	01H
	DB	01H
	DB	01H
	DB	01H
	DB	01H
	DB	01H
	DB	01H
	DB	01H
	DB	01H
	DB	01H
	DB	01H
	DB	01H
	DB	01H
	DB	01H
	DB	01H
	DB	01H
	DB	01H
	DB	01H
	DB	01H
	DB	01H
	DB	01H
	DB	01H
	DB	01H
	DB	01H
	DB	01H
	DB	01H
	DB	01H
	DB	01H
	DB	01H
	DB	01H
	DB	01H
	DB	01H
	DB	01H
	DB	017H
	DB	09cH
	DB	03H
	DB	03H
	DB	03H
	DB	025H
	DB	01H
	DB	01H
	DB	01H
	DB	01H
	DB	01H
	DB	01H
	DB	01H
	DB	01H
	DB	017H
	DB	026H
	DB	0c5H
	DB	07H
	DB	0f1H
	DB	0f1H
	DB	0eeH
	DB	0a7H
	DB	052H
	DB	01H
	DB	01H
	DB	01H
	DB	01H
	DB	011H
	DB	0eeH
	DB	0a4H
	DB	018H
	DB	01H
	DB	016H
	DB	0eeH
	DB	0f1H
	DB	07H
	DB	0dfH
	DB	01H
	DB	01H
	DB	01H
	DB	01H
	DB	01H
	DB	01H
	DB	01H
	DB	01H
	DB	01H
	DB	01H
	DB	018H
	DB	03H
	DB	03H
	DB	03H
	DB	08H
	DB	01H
	DB	01H
	DB	01H
	DB	026H
	DB	0b2H
	DB	03H
	DB	03H
	DB	0f2H
	DB	01H
	DB	01H
	DB	01H
	DB	01H
	DB	01H
	DB	025H
	DB	011H
	DB	0f0H
	DB	0f1H
	DB	05H
	DB	08H
	DB	0dfH
	DB	052H
	DB	01H
	DB	01H
	DB	01H
	DB	01H
	DB	026H
	DB	0c0H
	DB	03H
	DB	03H
	DB	098H
	DB	01H
	DB	01H
	DB	01H
	DB	01H
	DB	017H
	DB	071H
	DB	05H
	DB	0f1H
	DB	08H
	DB	025H
	DB	027H
	DB	03H
	DB	03H
	DB	03H
	DB	018H
	DB	01H
	DB	01H
	DB	01H
	DB	01H
	DB	01H
	DB	01H
	DB	01H
	DB	01H
	DB	01H
	DB	01H
	DB	0a7H
	DB	03H
	DB	03H
	DB	03H
	DB	0f0H
	DB	01H
	DB	01H
	DB	01H
	DB	01H
	DB	01H
	DB	011H
	DB	08H
	DB	08H
	DB	071H
	DB	01H
	DB	01H
	DB	01H
	DB	011H
	DB	0a4H
	DB	0eeH
	DB	0dfH
	DB	01H
	DB	026H
	DB	098H
	DB	0f1H
	DB	05H
	DB	011H
	DB	0ddH
	DB	01H
	DB	052H
	DB	027H
	DB	0eeH
	DB	0d3H
	DB	0d1H
	DB	027H
	DB	01H
	DB	01H
	DB	01H
	DB	01H
	DB	01H
	DB	01H
	DB	01H
	DB	016H
	DB	098H
	DB	05H
	DB	0f1H
	DB	07H
	DB	071H
	DB	0ddH
	DB	01H
	DB	01H
	DB	01H
	DB	01H
	DB	01H
	DB	01H
	DB	01H
	DB	01H
	DB	01H
	DB	01H
	DB	01H
	DB	01H
	DB	01H
	DB	01H
	DB	01H
	DB	01H
	DB	01H
	DB	01H
	DB	01H
	DB	01H
	DB	01H
	DB	01H
	DB	017H
	DB	09cH
	DB	03H
	DB	03H
	DB	03H
	DB	025H
	DB	01H
	DB	01H
	DB	01H
	DB	01H
	DB	01H
	DB	01H
	DB	01H
	DB	01H
	DB	07H
	DB	03H
	DB	03H
	DB	03H
	DB	03H
	DB	03H
	DB	03H
	DB	03H
	DB	0f1H
	DB	0ddH
	DB	01H
	DB	01H
	DB	01H
	DB	0f2H
	DB	03H
	DB	03H
	DB	04H
	DB	0e1H
	DB	03H
	DB	03H
	DB	03H
	DB	03H
	DB	03H
	DB	08H
	DB	01H
	DB	01H
	DB	01H
	DB	01H
	DB	01H
	DB	01H
	DB	01H
	DB	01H
	DB	01H
	DB	018H
	DB	03H
	DB	03H
	DB	03H
	DB	08H
	DB	01H
	DB	01H
	DB	01H
	DB	026H
	DB	0b2H
	DB	03H
	DB	03H
	DB	0f2H
	DB	01H
	DB	01H
	DB	01H
	DB	01H
	DB	011H
	DB	0bH
	DB	03H
	DB	03H
	DB	03H
	DB	03H
	DB	03H
	DB	03H
	DB	0f2H
	DB	048H
	DB	01H
	DB	01H
	DB	01H
	DB	026H
	DB	0c0H
	DB	03H
	DB	03H
	DB	098H
	DB	01H
	DB	01H
	DB	01H
	DB	017H
	DB	0f1H
	DB	03H
	DB	03H
	DB	03H
	DB	03H
	DB	049H
	DB	0eeH
	DB	03H
	DB	03H
	DB	03H
	DB	018H
	DB	01H
	DB	01H
	DB	01H
	DB	01H
	DB	01H
	DB	01H
	DB	01H
	DB	01H
	DB	01H
	DB	01H
	DB	0a7H
	DB	03H
	DB	03H
	DB	03H
	DB	0d1H
	DB	01H
	DB	01H
	DB	01H
	DB	01H
	DB	01H
	DB	09H
	DB	03H
	DB	03H
	DB	09cH
	DB	01H
	DB	01H
	DB	052H
	DB	02H
	DB	03H
	DB	03H
	DB	0a4H
	DB	011H
	DB	03H
	DB	03H
	DB	03H
	DB	03H
	DB	03H
	DB	05H
	DB	0ddH
	DB	0d1H
	DB	03H
	DB	03H
	DB	03H
	DB	03H
	DB	03H
	DB	018H
	DB	01H
	DB	01H
	DB	01H
	DB	01H
	DB	017H
	DB	0f0H
	DB	03H
	DB	03H
	DB	03H
	DB	03H
	DB	03H
	DB	03H
	DB	0b0H
	DB	027H
	DB	01H
	DB	01H
	DB	01H
	DB	01H
	DB	01H
	DB	01H
	DB	01H
	DB	01H
	DB	01H
	DB	01H
	DB	01H
	DB	01H
	DB	01H
	DB	01H
	DB	01H
	DB	01H
	DB	01H
	DB	01H
	DB	01H
	DB	01H
	DB	01H
	DB	017H
	DB	09cH
	DB	03H
	DB	03H
	DB	03H
	DB	025H
	DB	01H
	DB	01H
	DB	01H
	DB	01H
	DB	01H
	DB	01H
	DB	01H
	DB	01H
	DB	07H
	DB	0bH
	DB	04H
	DB	07H
	DB	07H
	DB	02H
	DB	03H
	DB	03H
	DB	03H
	DB	08H
	DB	01H
	DB	01H
	DB	01H
	DB	0f2H
	DB	03H
	DB	03H
	DB	03H
	DB	03H
	DB	04fH
	DB	0bH
	DB	03H
	DB	03H
	DB	03H
	DB	03H
	DB	018H
	DB	01H
	DB	01H
	DB	01H
	DB	01H
	DB	01H
	DB	01H
	DB	01H
	DB	01H
	DB	018H
	DB	03H
	DB	03H
	DB	03H
	DB	098H
	DB	01H
	DB	01H
	DB	01H
	DB	0deH
	DB	0b2H
	DB	03H
	DB	03H
	DB	0f2H
	DB	01H
	DB	01H
	DB	01H
	DB	0e1H
	DB	03H
	DB	03H
	DB	03H
	DB	04H
	DB	0c5H
	DB	08H
	DB	086H
	DB	03H
	DB	03H
	DB	09H
	DB	025H
	DB	01H
	DB	01H
	DB	026H
	DB	0c0H
	DB	03H
	DB	03H
	DB	098H
	DB	01H
	DB	01H
	DB	01H
	DB	0a4H
	DB	03H
	DB	03H
	DB	03H
	DB	086H
	DB	0daH
	DB	04fH
	DB	03H
	DB	03H
	DB	03H
	DB	03H
	DB	018H
	DB	01H
	DB	01H
	DB	01H
	DB	01H
	DB	01H
	DB	01H
	DB	01H
	DB	01H
	DB	01H
	DB	01H
	DB	0a7H
	DB	03H
	DB	03H
	DB	03H
	DB	0d1H
	DB	01H
	DB	01H
	DB	01H
	DB	01H
	DB	01H
	DB	09H
	DB	03H
	DB	03H
	DB	09cH
	DB	01H
	DB	01H
	DB	01H
	DB	09cH
	DB	03H
	DB	03H
	DB	049H
	DB	03H
	DB	03H
	DB	03H
	DB	03H
	DB	03H
	DB	03H
	DB	03H
	DB	09cH
	DB	03H
	DB	03H
	DB	03H
	DB	03H
	DB	03H
	DB	03H
	DB	0bH
	DB	025H
	DB	01H
	DB	01H
	DB	01H
	DB	05H
	DB	03H
	DB	03H
	DB	0c0H
	DB	0a4H
	DB	06H
	DB	02H
	DB	03H
	DB	03H
	DB	086H
	DB	026H
	DB	01H
	DB	01H
	DB	01H
	DB	01H
	DB	01H
	DB	01H
	DB	01H
	DB	01H
	DB	01H
	DB	01H
	DB	01H
	DB	01H
	DB	01H
	DB	01H
	DB	01H
	DB	01H
	DB	01H
	DB	01H
	DB	01H
	DB	01H
	DB	017H
	DB	09cH
	DB	03H
	DB	03H
	DB	03H
	DB	025H
	DB	01H
	DB	01H
	DB	01H
	DB	01H
	DB	01H
	DB	01H
	DB	01H
	DB	01H
	DB	025H
	DB	0ddH
	DB	01H
	DB	01H
	DB	01H
	DB	01H
	DB	05fH
	DB	03H
	DB	03H
	DB	09H
	DB	0ddH
	DB	01H
	DB	01H
	DB	0f2H
	DB	03H
	DB	03H
	DB	03H
	DB	0f2H
	DB	026H
	DB	025H
	DB	098H
	DB	03H
	DB	03H
	DB	03H
	DB	04H
	DB	01H
	DB	01H
	DB	01H
	DB	01H
	DB	01H
	DB	01H
	DB	01H
	DB	01H
	DB	018H
	DB	03H
	DB	03H
	DB	03H
	DB	04H
	DB	071H
	DB	011H
	DB	071H
	DB	098H
	DB	03H
	DB	03H
	DB	03H
	DB	0f2H
	DB	01H
	DB	01H
	DB	026H
	DB	086H
	DB	03H
	DB	03H
	DB	05H
	DB	01H
	DB	01H
	DB	01H
	DB	0dfH
	DB	03H
	DB	03H
	DB	03H
	DB	07H
	DB	01H
	DB	01H
	DB	026H
	DB	0c0H
	DB	03H
	DB	03H
	DB	098H
	DB	01H
	DB	01H
	DB	048H
	DB	0c0H
	DB	03H
	DB	03H
	DB	02H
	DB	0deH
	DB	01H
	DB	0dfH
	DB	0bH
	DB	03H
	DB	03H
	DB	03H
	DB	018H
	DB	01H
	DB	01H
	DB	01H
	DB	01H
	DB	01H
	DB	01H
	DB	01H
	DB	01H
	DB	01H
	DB	01H
	DB	0a7H
	DB	03H
	DB	03H
	DB	03H
	DB	0d1H
	DB	01H
	DB	01H
	DB	01H
	DB	01H
	DB	01H
	DB	09H
	DB	03H
	DB	03H
	DB	09cH
	DB	01H
	DB	01H
	DB	01H
	DB	09cH
	DB	03H
	DB	03H
	DB	03H
	DB	0f1H
	DB	027H
	DB	016H
	DB	0d1H
	DB	03H
	DB	03H
	DB	03H
	DB	03H
	DB	05H
	DB	0dfH
	DB	0dfH
	DB	02H
	DB	03H
	DB	03H
	DB	03H
	DB	018H
	DB	01H
	DB	01H
	DB	018H
	DB	03H
	DB	03H
	DB	03H
	DB	027H
	DB	01H
	DB	01H
	DB	017H
	DB	0d9H
	DB	03H
	DB	03H
	DB	05H
	DB	01H
	DB	01H
	DB	01H
	DB	01H
	DB	01H
	DB	01H
	DB	01H
	DB	01H
	DB	01H
	DB	01H
	DB	01H
	DB	01H
	DB	01H
	DB	01H
	DB	01H
	DB	01H
	DB	01H
	DB	01H
	DB	01H
	DB	01H
	DB	017H
	DB	09cH
	DB	03H
	DB	03H
	DB	03H
	DB	025H
	DB	01H
	DB	01H
	DB	01H
	DB	01H
	DB	01H
	DB	01H
	DB	01H
	DB	01H
	DB	01H
	DB	025H
	DB	027H
	DB	018H
	DB	027H
	DB	01H
	DB	011H
	DB	03H
	DB	03H
	DB	04fH
	DB	026H
	DB	01H
	DB	01H
	DB	0f2H
	DB	03H
	DB	03H
	DB	04fH
	DB	016H
	DB	01H
	DB	01H
	DB	01H
	DB	09cH
	DB	03H
	DB	03H
	DB	0bH
	DB	048H
	DB	01H
	DB	01H
	DB	01H
	DB	01H
	DB	01H
	DB	01H
	DB	01H
	DB	018H
	DB	03H
	DB	03H
	DB	03H
	DB	03H
	DB	03H
	DB	03H
	DB	03H
	DB	03H
	DB	03H
	DB	03H
	DB	03H
	DB	0f2H
	DB	01H
	DB	01H
	DB	06H
	DB	03H
	DB	03H
	DB	03H
	DB	016H
	DB	01H
	DB	01H
	DB	01H
	DB	01H
	DB	0f1H
	DB	03H
	DB	03H
	DB	0bH
	DB	025H
	DB	01H
	DB	026H
	DB	0c0H
	DB	03H
	DB	03H
	DB	098H
	DB	01H
	DB	01H
	DB	071H
	DB	03H
	DB	03H
	DB	03H
	DB	018H
	DB	01H
	DB	01H
	DB	01H
	DB	098H
	DB	03H
	DB	03H
	DB	03H
	DB	018H
	DB	01H
	DB	01H
	DB	01H
	DB	01H
	DB	01H
	DB	01H
	DB	01H
	DB	01H
	DB	01H
	DB	01H
	DB	0a7H
	DB	03H
	DB	03H
	DB	03H
	DB	0d1H
	DB	01H
	DB	01H
	DB	01H
	DB	01H
	DB	01H
	DB	09H
	DB	03H
	DB	03H
	DB	09cH
	DB	01H
	DB	01H
	DB	01H
	DB	09cH
	DB	03H
	DB	03H
	DB	0d9H
	DB	052H
	DB	01H
	DB	01H
	DB	025H
	DB	0bH
	DB	03H
	DB	03H
	DB	04H
	DB	01H
	DB	01H
	DB	01H
	DB	027H
	DB	03H
	DB	03H
	DB	03H
	DB	011H
	DB	01H
	DB	01H
	DB	05H
	DB	03H
	DB	03H
	DB	0f2H
	DB	052H
	DB	01H
	DB	01H
	DB	01H
	DB	06H
	DB	03H
	DB	03H
	DB	0bH
	DB	0ddH
	DB	01H
	DB	01H
	DB	01H
	DB	01H
	DB	01H
	DB	01H
	DB	01H
	DB	01H
	DB	01H
	DB	01H
	DB	01H
	DB	01H
	DB	01H
	DB	01H
	DB	01H
	DB	01H
	DB	01H
	DB	01H
	DB	01H
	DB	017H
	DB	09cH
	DB	03H
	DB	03H
	DB	03H
	DB	025H
	DB	01H
	DB	01H
	DB	01H
	DB	01H
	DB	01H
	DB	01H
	DB	01H
	DB	0ddH
	DB	08H
	DB	0bH
	DB	03H
	DB	03H
	DB	03H
	DB	09H
	DB	04H
	DB	03H
	DB	03H
	DB	0b2H
	DB	026H
	DB	01H
	DB	01H
	DB	0f2H
	DB	03H
	DB	03H
	DB	0b0H
	DB	017H
	DB	01H
	DB	01H
	DB	01H
	DB	08H
	DB	03H
	DB	03H
	DB	03H
	DB	016H
	DB	01H
	DB	01H
	DB	01H
	DB	01H
	DB	01H
	DB	01H
	DB	01H
	DB	018H
	DB	03H
	DB	03H
	DB	03H
	DB	03H
	DB	03H
	DB	03H
	DB	03H
	DB	03H
	DB	03H
	DB	03H
	DB	03H
	DB	0f2H
	DB	01H
	DB	01H
	DB	0f1H
	DB	03H
	DB	03H
	DB	0bH
	DB	025H
	DB	01H
	DB	01H
	DB	01H
	DB	01H
	DB	06H
	DB	03H
	DB	03H
	DB	03H
	DB	0dfH
	DB	01H
	DB	026H
	DB	0c0H
	DB	03H
	DB	03H
	DB	098H
	DB	01H
	DB	01H
	DB	0eeH
	DB	03H
	DB	03H
	DB	0c0H
	DB	026H
	DB	01H
	DB	01H
	DB	01H
	DB	018H
	DB	03H
	DB	03H
	DB	03H
	DB	018H
	DB	01H
	DB	01H
	DB	01H
	DB	01H
	DB	01H
	DB	01H
	DB	01H
	DB	01H
	DB	01H
	DB	01H
	DB	0a7H
	DB	03H
	DB	03H
	DB	03H
	DB	0d1H
	DB	01H
	DB	01H
	DB	01H
	DB	01H
	DB	01H
	DB	09H
	DB	03H
	DB	03H
	DB	09cH
	DB	01H
	DB	01H
	DB	01H
	DB	09cH
	DB	03H
	DB	03H
	DB	09cH
	DB	01H
	DB	01H
	DB	01H
	DB	025H
	DB	0bH
	DB	03H
	DB	03H
	DB	07H
	DB	01H
	DB	01H
	DB	01H
	DB	0dfH
	DB	03H
	DB	03H
	DB	03H
	DB	011H
	DB	01H
	DB	0ddH
	DB	08cH
	DB	03H
	DB	03H
	DB	0d3H
	DB	026H
	DB	026H
	DB	026H
	DB	0deH
	DB	011H
	DB	03H
	DB	03H
	DB	0b2H
	DB	016H
	DB	01H
	DB	01H
	DB	01H
	DB	01H
	DB	01H
	DB	01H
	DB	01H
	DB	01H
	DB	01H
	DB	01H
	DB	01H
	DB	01H
	DB	01H
	DB	01H
	DB	01H
	DB	01H
	DB	01H
	DB	01H
	DB	01H
	DB	017H
	DB	09cH
	DB	03H
	DB	03H
	DB	03H
	DB	025H
	DB	01H
	DB	01H
	DB	01H
	DB	01H
	DB	01H
	DB	01H
	DB	01H
	DB	05H
	DB	03H
	DB	03H
	DB	0c0H
	DB	07H
	DB	06H
	DB	02H
	DB	03H
	DB	03H
	DB	03H
	DB	0b2H
	DB	026H
	DB	01H
	DB	01H
	DB	0f2H
	DB	03H
	DB	03H
	DB	09H
	DB	01H
	DB	01H
	DB	01H
	DB	01H
	DB	06H
	DB	03H
	DB	03H
	DB	03H
	DB	0dfH
	DB	01H
	DB	01H
	DB	01H
	DB	01H
	DB	01H
	DB	01H
	DB	01H
	DB	018H
	DB	03H
	DB	03H
	DB	03H
	DB	0d1H
	DB	026H
	DB	016H
	DB	016H
	DB	018H
	DB	03H
	DB	03H
	DB	03H
	DB	0f2H
	DB	01H
	DB	01H
	DB	0d9H
	DB	03H
	DB	03H
	DB	09H
	DB	0ddH
	DB	01H
	DB	01H
	DB	01H
	DB	01H
	DB	071H
	DB	03H
	DB	03H
	DB	03H
	DB	018H
	DB	01H
	DB	026H
	DB	0c0H
	DB	03H
	DB	03H
	DB	098H
	DB	01H
	DB	01H
	DB	05H
	DB	03H
	DB	03H
	DB	086H
	DB	0deH
	DB	01H
	DB	01H
	DB	01H
	DB	027H
	DB	03H
	DB	03H
	DB	03H
	DB	018H
	DB	01H
	DB	01H
	DB	01H
	DB	01H
	DB	01H
	DB	01H
	DB	01H
	DB	01H
	DB	01H
	DB	01H
	DB	0a7H
	DB	03H
	DB	03H
	DB	03H
	DB	0d1H
	DB	01H
	DB	01H
	DB	01H
	DB	01H
	DB	01H
	DB	09H
	DB	03H
	DB	03H
	DB	09cH
	DB	01H
	DB	01H
	DB	01H
	DB	09cH
	DB	03H
	DB	03H
	DB	09cH
	DB	01H
	DB	01H
	DB	01H
	DB	025H
	DB	0bH
	DB	03H
	DB	03H
	DB	07H
	DB	01H
	DB	01H
	DB	01H
	DB	0dfH
	DB	03H
	DB	03H
	DB	03H
	DB	011H
	DB	01H
	DB	025H
	DB	03H
	DB	03H
	DB	03H
	DB	03H
	DB	03H
	DB	03H
	DB	03H
	DB	03H
	DB	03H
	DB	03H
	DB	03H
	DB	03H
	DB	027H
	DB	01H
	DB	01H
	DB	01H
	DB	01H
	DB	01H
	DB	01H
	DB	01H
	DB	01H
	DB	01H
	DB	01H
	DB	01H
	DB	01H
	DB	01H
	DB	01H
	DB	01H
	DB	01H
	DB	01H
	DB	01H
	DB	01H
	DB	017H
	DB	09cH
	DB	03H
	DB	03H
	DB	03H
	DB	025H
	DB	01H
	DB	01H
	DB	01H
	DB	01H
	DB	01H
	DB	01H
	DB	027H
	DB	03H
	DB	03H
	DB	03H
	DB	011H
	DB	01H
	DB	01H
	DB	017H
	DB	02H
	DB	03H
	DB	03H
	DB	0b2H
	DB	026H
	DB	01H
	DB	01H
	DB	0f2H
	DB	03H
	DB	03H
	DB	09H
	DB	01H
	DB	01H
	DB	01H
	DB	01H
	DB	06H
	DB	03H
	DB	03H
	DB	03H
	DB	0dfH
	DB	01H
	DB	01H
	DB	01H
	DB	01H
	DB	01H
	DB	01H
	DB	01H
	DB	018H
	DB	03H
	DB	03H
	DB	03H
	DB	098H
	DB	01H
	DB	01H
	DB	01H
	DB	0deH
	DB	0b2H
	DB	03H
	DB	03H
	DB	0f2H
	DB	01H
	DB	01H
	DB	0d9H
	DB	03H
	DB	03H
	DB	09H
	DB	0ddH
	DB	01H
	DB	01H
	DB	01H
	DB	01H
	DB	071H
	DB	03H
	DB	03H
	DB	03H
	DB	018H
	DB	01H
	DB	026H
	DB	0c0H
	DB	03H
	DB	03H
	DB	098H
	DB	01H
	DB	01H
	DB	05H
	DB	03H
	DB	03H
	DB	086H
	DB	0deH
	DB	01H
	DB	01H
	DB	01H
	DB	027H
	DB	03H
	DB	03H
	DB	03H
	DB	018H
	DB	01H
	DB	01H
	DB	01H
	DB	01H
	DB	01H
	DB	01H
	DB	01H
	DB	01H
	DB	01H
	DB	01H
	DB	0a7H
	DB	03H
	DB	03H
	DB	03H
	DB	0d1H
	DB	01H
	DB	01H
	DB	01H
	DB	01H
	DB	01H
	DB	09H
	DB	03H
	DB	03H
	DB	09cH
	DB	01H
	DB	01H
	DB	01H
	DB	09cH
	DB	03H
	DB	03H
	DB	09cH
	DB	01H
	DB	01H
	DB	01H
	DB	025H
	DB	0bH
	DB	03H
	DB	03H
	DB	07H
	DB	01H
	DB	01H
	DB	01H
	DB	0dfH
	DB	03H
	DB	03H
	DB	03H
	DB	011H
	DB	01H
	DB	025H
	DB	03H
	DB	03H
	DB	03H
	DB	08cH
	DB	02H
	DB	02H
	DB	02H
	DB	02H
	DB	02H
	DB	02H
	DB	02H
	DB	0f2H
	DB	016H
	DB	01H
	DB	01H
	DB	01H
	DB	01H
	DB	01H
	DB	01H
	DB	01H
	DB	01H
	DB	01H
	DB	01H
	DB	01H
	DB	01H
	DB	01H
	DB	01H
	DB	01H
	DB	01H
	DB	01H
	DB	01H
	DB	01H
	DB	017H
	DB	09cH
	DB	03H
	DB	03H
	DB	03H
	DB	025H
	DB	01H
	DB	01H
	DB	01H
	DB	01H
	DB	01H
	DB	01H
	DB	08H
	DB	03H
	DB	03H
	DB	0bH
	DB	048H
	DB	01H
	DB	01H
	DB	01H
	DB	06H
	DB	03H
	DB	03H
	DB	0b2H
	DB	026H
	DB	01H
	DB	01H
	DB	0f2H
	DB	03H
	DB	03H
	DB	0b0H
	DB	01H
	DB	01H
	DB	01H
	DB	01H
	DB	098H
	DB	03H
	DB	03H
	DB	03H
	DB	016H
	DB	01H
	DB	01H
	DB	01H
	DB	01H
	DB	01H
	DB	01H
	DB	01H
	DB	018H
	DB	03H
	DB	03H
	DB	03H
	DB	08H
	DB	01H
	DB	01H
	DB	01H
	DB	026H
	DB	0b2H
	DB	03H
	DB	03H
	DB	0f2H
	DB	01H
	DB	01H
	DB	0d3H
	DB	03H
	DB	03H
	DB	0bH
	DB	025H
	DB	01H
	DB	01H
	DB	01H
	DB	01H
	DB	06H
	DB	03H
	DB	03H
	DB	03H
	DB	027H
	DB	01H
	DB	026H
	DB	0c0H
	DB	03H
	DB	03H
	DB	098H
	DB	01H
	DB	01H
	DB	07H
	DB	03H
	DB	03H
	DB	0c0H
	DB	026H
	DB	01H
	DB	01H
	DB	01H
	DB	018H
	DB	03H
	DB	03H
	DB	03H
	DB	018H
	DB	01H
	DB	01H
	DB	01H
	DB	01H
	DB	01H
	DB	01H
	DB	01H
	DB	01H
	DB	01H
	DB	01H
	DB	0a7H
	DB	03H
	DB	03H
	DB	03H
	DB	0d1H
	DB	01H
	DB	01H
	DB	01H
	DB	01H
	DB	01H
	DB	09H
	DB	03H
	DB	03H
	DB	09cH
	DB	01H
	DB	01H
	DB	01H
	DB	09cH
	DB	03H
	DB	03H
	DB	09cH
	DB	01H
	DB	01H
	DB	01H
	DB	025H
	DB	0bH
	DB	03H
	DB	03H
	DB	07H
	DB	01H
	DB	01H
	DB	01H
	DB	0dfH
	DB	03H
	DB	03H
	DB	03H
	DB	011H
	DB	01H
	DB	025H
	DB	0c0H
	DB	03H
	DB	03H
	DB	0a4H
	DB	01H
	DB	017H
	DB	017H
	DB	017H
	DB	017H
	DB	017H
	DB	017H
	DB	017H
	DB	01H
	DB	01H
	DB	01H
	DB	01H
	DB	01H
	DB	01H
	DB	01H
	DB	01H
	DB	01H
	DB	01H
	DB	01H
	DB	01H
	DB	01H
	DB	01H
	DB	01H
	DB	01H
	DB	01H
	DB	01H
	DB	01H
	DB	01H
	DB	017H
	DB	09cH
	DB	03H
	DB	03H
	DB	03H
	DB	025H
	DB	01H
	DB	01H
	DB	01H
	DB	01H
	DB	01H
	DB	01H
	DB	07H
	DB	03H
	DB	03H
	DB	0bH
	DB	048H
	DB	01H
	DB	01H
	DB	01H
	DB	0c6H
	DB	03H
	DB	03H
	DB	0b2H
	DB	026H
	DB	01H
	DB	01H
	DB	0f2H
	DB	03H
	DB	03H
	DB	086H
	DB	0deH
	DB	01H
	DB	01H
	DB	01H
	DB	0f1H
	DB	03H
	DB	03H
	DB	0bH
	DB	025H
	DB	01H
	DB	01H
	DB	01H
	DB	01H
	DB	01H
	DB	01H
	DB	01H
	DB	018H
	DB	03H
	DB	03H
	DB	03H
	DB	08H
	DB	01H
	DB	01H
	DB	01H
	DB	026H
	DB	0b2H
	DB	03H
	DB	03H
	DB	0f2H
	DB	01H
	DB	01H
	DB	098H
	DB	03H
	DB	03H
	DB	03H
	DB	0dfH
	DB	01H
	DB	01H
	DB	01H
	DB	01H
	DB	0f1H
	DB	03H
	DB	03H
	DB	0c0H
	DB	048H
	DB	01H
	DB	026H
	DB	0c0H
	DB	03H
	DB	03H
	DB	098H
	DB	01H
	DB	01H
	DB	0e1H
	DB	03H
	DB	03H
	DB	03H
	DB	018H
	DB	01H
	DB	01H
	DB	01H
	DB	098H
	DB	03H
	DB	03H
	DB	03H
	DB	018H
	DB	01H
	DB	01H
	DB	01H
	DB	01H
	DB	01H
	DB	01H
	DB	01H
	DB	01H
	DB	01H
	DB	01H
	DB	0a7H
	DB	03H
	DB	03H
	DB	03H
	DB	0d1H
	DB	01H
	DB	01H
	DB	01H
	DB	01H
	DB	01H
	DB	09H
	DB	03H
	DB	03H
	DB	09cH
	DB	01H
	DB	01H
	DB	01H
	DB	09cH
	DB	03H
	DB	03H
	DB	09cH
	DB	01H
	DB	01H
	DB	01H
	DB	025H
	DB	0bH
	DB	03H
	DB	03H
	DB	07H
	DB	01H
	DB	01H
	DB	01H
	DB	0dfH
	DB	03H
	DB	03H
	DB	03H
	DB	011H
	DB	01H
	DB	052H
	DB	0f2H
	DB	03H
	DB	03H
	DB	0f2H
	DB	052H
	DB	01H
	DB	01H
	DB	01H
	DB	01H
	DB	01H
	DB	01H
	DB	01H
	DB	01H
	DB	01H
	DB	01H
	DB	01H
	DB	01H
	DB	01H
	DB	01H
	DB	01H
	DB	01H
	DB	01H
	DB	01H
	DB	01H
	DB	01H
	DB	01H
	DB	01H
	DB	01H
	DB	01H
	DB	01H
	DB	01H
	DB	01H
	DB	017H
	DB	09cH
	DB	03H
	DB	03H
	DB	03H
	DB	025H
	DB	01H
	DB	01H
	DB	01H
	DB	01H
	DB	01H
	DB	01H
	DB	098H
	DB	03H
	DB	03H
	DB	03H
	DB	011H
	DB	01H
	DB	01H
	DB	017H
	DB	02H
	DB	03H
	DB	03H
	DB	0b2H
	DB	026H
	DB	01H
	DB	01H
	DB	0f2H
	DB	03H
	DB	03H
	DB	03H
	DB	0a4H
	DB	01H
	DB	01H
	DB	0dfH
	DB	0b2H
	DB	03H
	DB	03H
	DB	04H
	DB	01H
	DB	01H
	DB	01H
	DB	01H
	DB	01H
	DB	01H
	DB	01H
	DB	01H
	DB	018H
	DB	03H
	DB	03H
	DB	03H
	DB	08H
	DB	01H
	DB	01H
	DB	01H
	DB	026H
	DB	0b2H
	DB	03H
	DB	03H
	DB	0f2H
	DB	01H
	DB	01H
	DB	016H
	DB	03H
	DB	03H
	DB	03H
	DB	05H
	DB	01H
	DB	01H
	DB	01H
	DB	0dfH
	DB	03H
	DB	03H
	DB	03H
	DB	05H
	DB	01H
	DB	01H
	DB	026H
	DB	0c0H
	DB	03H
	DB	03H
	DB	098H
	DB	01H
	DB	01H
	DB	0dfH
	DB	03H
	DB	03H
	DB	03H
	DB	0d9H
	DB	048H
	DB	01H
	DB	016H
	DB	0bH
	DB	03H
	DB	03H
	DB	03H
	DB	018H
	DB	01H
	DB	01H
	DB	01H
	DB	01H
	DB	01H
	DB	01H
	DB	01H
	DB	01H
	DB	01H
	DB	01H
	DB	0a7H
	DB	03H
	DB	03H
	DB	03H
	DB	0d1H
	DB	01H
	DB	01H
	DB	01H
	DB	01H
	DB	01H
	DB	09H
	DB	03H
	DB	03H
	DB	09cH
	DB	01H
	DB	01H
	DB	01H
	DB	09cH
	DB	03H
	DB	03H
	DB	09cH
	DB	01H
	DB	01H
	DB	01H
	DB	025H
	DB	0bH
	DB	03H
	DB	03H
	DB	07H
	DB	01H
	DB	01H
	DB	01H
	DB	0dfH
	DB	03H
	DB	03H
	DB	03H
	DB	011H
	DB	01H
	DB	01H
	DB	06H
	DB	03H
	DB	03H
	DB	03H
	DB	0e1H
	DB	01H
	DB	01H
	DB	01H
	DB	01H
	DB	017H
	DB	048H
	DB	052H
	DB	01H
	DB	01H
	DB	01H
	DB	01H
	DB	01H
	DB	01H
	DB	01H
	DB	01H
	DB	01H
	DB	01H
	DB	01H
	DB	01H
	DB	01H
	DB	01H
	DB	01H
	DB	01H
	DB	01H
	DB	01H
	DB	01H
	DB	01H
	DB	017H
	DB	09cH
	DB	03H
	DB	03H
	DB	03H
	DB	0d1H
	DB	0eeH
	DB	0eeH
	DB	0eeH
	DB	0eeH
	DB	07H
	DB	027H
	DB	016H
	DB	03H
	DB	03H
	DB	03H
	DB	04fH
	DB	05H
	DB	0eeH
	DB	0daH
	DB	03H
	DB	03H
	DB	03H
	DB	0b2H
	DB	026H
	DB	01H
	DB	01H
	DB	0f2H
	DB	03H
	DB	03H
	DB	03H
	DB	03H
	DB	0daH
	DB	04H
	DB	0c0H
	DB	03H
	DB	03H
	DB	03H
	DB	018H
	DB	01H
	DB	01H
	DB	01H
	DB	01H
	DB	01H
	DB	01H
	DB	01H
	DB	01H
	DB	018H
	DB	03H
	DB	03H
	DB	03H
	DB	08H
	DB	01H
	DB	01H
	DB	01H
	DB	026H
	DB	0b2H
	DB	03H
	DB	03H
	DB	0f2H
	DB	01H
	DB	01H
	DB	01H
	DB	0a4H
	DB	03H
	DB	03H
	DB	03H
	DB	04H
	DB	011H
	DB	08H
	DB	086H
	DB	03H
	DB	03H
	DB	0c0H
	DB	016H
	DB	01H
	DB	01H
	DB	026H
	DB	0c0H
	DB	03H
	DB	03H
	DB	098H
	DB	01H
	DB	01H
	DB	052H
	DB	09cH
	DB	03H
	DB	03H
	DB	03H
	DB	086H
	DB	0b0H
	DB	0b2H
	DB	03H
	DB	03H
	DB	03H
	DB	03H
	DB	018H
	DB	01H
	DB	01H
	DB	01H
	DB	01H
	DB	01H
	DB	01H
	DB	01H
	DB	01H
	DB	01H
	DB	01H
	DB	0a7H
	DB	03H
	DB	03H
	DB	03H
	DB	0d1H
	DB	01H
	DB	01H
	DB	01H
	DB	01H
	DB	01H
	DB	09H
	DB	03H
	DB	03H
	DB	09cH
	DB	01H
	DB	01H
	DB	01H
	DB	09cH
	DB	03H
	DB	03H
	DB	09cH
	DB	01H
	DB	01H
	DB	01H
	DB	025H
	DB	0bH
	DB	03H
	DB	03H
	DB	07H
	DB	01H
	DB	01H
	DB	01H
	DB	0dfH
	DB	03H
	DB	03H
	DB	03H
	DB	011H
	DB	01H
	DB	01H
	DB	0ddH
	DB	02H
	DB	03H
	DB	03H
	DB	03H
	DB	02H
	DB	0efH
	DB	0eeH
	DB	0f1H
	DB	0b0H
	DB	086H
	DB	026H
	DB	01H
	DB	01H
	DB	01H
	DB	01H
	DB	01H
	DB	01H
	DB	01H
	DB	01H
	DB	01H
	DB	01H
	DB	01H
	DB	01H
	DB	01H
	DB	01H
	DB	01H
	DB	01H
	DB	01H
	DB	01H
	DB	01H
	DB	01H
	DB	017H
	DB	02H
	DB	03H
	DB	03H
	DB	03H
	DB	03H
	DB	03H
	DB	03H
	DB	03H
	DB	03H
	DB	03H
	DB	0eeH
	DB	01H
	DB	07H
	DB	03H
	DB	03H
	DB	03H
	DB	03H
	DB	03H
	DB	0b0H
	DB	07H
	DB	03H
	DB	03H
	DB	03H
	DB	026H
	DB	01H
	DB	01H
	DB	0f2H
	DB	03H
	DB	03H
	DB	0b0H
	DB	088H
	DB	03H
	DB	03H
	DB	03H
	DB	03H
	DB	03H
	DB	07H
	DB	01H
	DB	01H
	DB	01H
	DB	01H
	DB	01H
	DB	01H
	DB	01H
	DB	01H
	DB	01H
	DB	018H
	DB	03H
	DB	03H
	DB	03H
	DB	08H
	DB	01H
	DB	01H
	DB	01H
	DB	026H
	DB	0b2H
	DB	03H
	DB	03H
	DB	0f2H
	DB	01H
	DB	01H
	DB	01H
	DB	052H
	DB	0a4H
	DB	03H
	DB	03H
	DB	03H
	DB	03H
	DB	03H
	DB	03H
	DB	03H
	DB	0b0H
	DB	027H
	DB	01H
	DB	01H
	DB	01H
	DB	026H
	DB	0c0H
	DB	03H
	DB	03H
	DB	098H
	DB	01H
	DB	01H
	DB	01H
	DB	0dfH
	DB	0bH
	DB	03H
	DB	03H
	DB	03H
	DB	03H
	DB	086H
	DB	0eeH
	DB	086H
	DB	03H
	DB	03H
	DB	018H
	DB	01H
	DB	01H
	DB	01H
	DB	01H
	DB	01H
	DB	01H
	DB	01H
	DB	01H
	DB	01H
	DB	01H
	DB	018H
	DB	03H
	DB	03H
	DB	03H
	DB	0d1H
	DB	01H
	DB	01H
	DB	01H
	DB	01H
	DB	01H
	DB	09H
	DB	03H
	DB	03H
	DB	09cH
	DB	01H
	DB	01H
	DB	01H
	DB	09cH
	DB	03H
	DB	03H
	DB	02H
	DB	01H
	DB	01H
	DB	01H
	DB	025H
	DB	0bH
	DB	03H
	DB	03H
	DB	0f0H
	DB	01H
	DB	01H
	DB	01H
	DB	0dfH
	DB	03H
	DB	03H
	DB	03H
	DB	011H
	DB	01H
	DB	01H
	DB	01H
	DB	025H
	DB	0f2H
	DB	03H
	DB	03H
	DB	03H
	DB	03H
	DB	03H
	DB	03H
	DB	03H
	DB	03H
	DB	0b5H
	DB	01H
	DB	01H
	DB	01H
	DB	01H
	DB	01H
	DB	01H
	DB	01H
	DB	01H
	DB	01H
	DB	01H
	DB	01H
	DB	01H
	DB	01H
	DB	01H
	DB	01H
	DB	01H
	DB	01H
	DB	01H
	DB	01H
	DB	01H
	DB	052H
	DB	07H
	DB	02H
	DB	09cH
	DB	09cH
	DB	09cH
	DB	09cH
	DB	09cH
	DB	09cH
	DB	09cH
	DB	02H
	DB	011H
	DB	01H
	DB	01H
	DB	018H
	DB	0f1H
	DB	02H
	DB	0f2H
	DB	08H
	DB	048H
	DB	026H
	DB	09cH
	DB	02H
	DB	0f2H
	DB	048H
	DB	01H
	DB	01H
	DB	0f2H
	DB	03H
	DB	03H
	DB	09H
	DB	01H
	DB	018H
	DB	0f1H
	DB	02H
	DB	04H
	DB	011H
	DB	052H
	DB	01H
	DB	01H
	DB	01H
	DB	01H
	DB	01H
	DB	01H
	DB	01H
	DB	01H
	DB	01H
	DB	027H
	DB	0daH
	DB	09cH
	DB	0d9H
	DB	011H
	DB	01H
	DB	01H
	DB	01H
	DB	048H
	DB	0f2H
	DB	02H
	DB	0d9H
	DB	0eeH
	DB	01H
	DB	01H
	DB	01H
	DB	01H
	DB	01H
	DB	016H
	DB	08H
	DB	04H
	DB	02H
	DB	09cH
	DB	05H
	DB	0e1H
	DB	025H
	DB	01H
	DB	01H
	DB	01H
	DB	01H
	DB	048H
	DB	04H
	DB	02H
	DB	02H
	DB	071H
	DB	01H
	DB	01H
	DB	01H
	DB	01H
	DB	048H
	DB	0a4H
	DB	0f2H
	DB	09cH
	DB	0efH
	DB	026H
	DB	025H
	DB	089H
	DB	02H
	DB	02H
	DB	0dfH
	DB	01H
	DB	01H
	DB	01H
	DB	01H
	DB	01H
	DB	01H
	DB	01H
	DB	01H
	DB	01H
	DB	01H
	DB	0dfH
	DB	02H
	DB	02H
	DB	0d9H
	DB	06H
	DB	01H
	DB	01H
	DB	01H
	DB	01H
	DB	01H
	DB	088H
	DB	02H
	DB	0d9H
	DB	0efH
	DB	01H
	DB	01H
	DB	01H
	DB	07H
	DB	0d9H
	DB	02H
	DB	07H
	DB	01H
	DB	01H
	DB	01H
	DB	0ddH
	DB	0f1H
	DB	02H
	DB	0d9H
	DB	06H
	DB	01H
	DB	01H
	DB	01H
	DB	026H
	DB	09cH
	DB	02H
	DB	02H
	DB	05bH
	DB	01H
	DB	01H
	DB	01H
	DB	01H
	DB	017H
	DB	018H
	DB	07H
	DB	0f2H
	DB	02H
	DB	0f2H
	DB	0f0H
	DB	011H
	DB	048H
	DB	01H
	DB	01H
	DB	01H
	DB	01H
	DB	01H
	DB	01H
	DB	01H
	DB	01H
	DB	01H
	DB	01H
	DB	01H
	DB	01H
	DB	01H
	DB	01H
	DB	01H
	DB	01H
	DB	01H
	DB	01H
	DB	01H
	DB	01H
	DB	01H
	DB	01H
	DB	052H
	DB	017H
	DB	017H
	DB	017H
	DB	017H
	DB	017H
	DB	017H
	DB	017H
	DB	017H
	DB	017H
	DB	052H
	DB	01H
	DB	01H
	DB	01H
	DB	01H
	DB	017H
	DB	052H
	DB	01H
	DB	01H
	DB	01H
	DB	017H
	DB	017H
	DB	017H
	DB	01H
	DB	01H
	DB	01H
	DB	0f2H
	DB	03H
	DB	03H
	DB	09H
	DB	01H
	DB	01H
	DB	01H
	DB	017H
	DB	052H
	DB	01H
	DB	01H
	DB	01H
	DB	01H
	DB	01H
	DB	01H
	DB	01H
	DB	01H
	DB	01H
	DB	01H
	DB	01H
	DB	01H
	DB	017H
	DB	017H
	DB	017H
	DB	052H
	DB	01H
	DB	01H
	DB	01H
	DB	01H
	DB	017H
	DB	017H
	DB	017H
	DB	052H
	DB	01H
	DB	01H
	DB	01H
	DB	01H
	DB	01H
	DB	01H
	DB	01H
	DB	01H
	DB	017H
	DB	0c1H
	DB	01H
	DB	01H
	DB	01H
	DB	01H
	DB	01H
	DB	01H
	DB	01H
	DB	01H
	DB	0c1H
	DB	017H
	DB	017H
	DB	052H
	DB	01H
	DB	01H
	DB	01H
	DB	01H
	DB	01H
	DB	01H
	DB	052H
	DB	052H
	DB	01H
	DB	01H
	DB	01H
	DB	0c1H
	DB	017H
	DB	017H
	DB	01H
	DB	01H
	DB	01H
	DB	01H
	DB	01H
	DB	01H
	DB	01H
	DB	01H
	DB	01H
	DB	01H
	DB	01H
	DB	01H
	DB	017H
	DB	017H
	DB	017H
	DB	052H
	DB	01H
	DB	01H
	DB	01H
	DB	01H
	DB	01H
	DB	0c1H
	DB	017H
	DB	017H
	DB	052H
	DB	01H
	DB	01H
	DB	01H
	DB	052H
	DB	017H
	DB	017H
	DB	052H
	DB	01H
	DB	01H
	DB	01H
	DB	01H
	DB	0c1H
	DB	017H
	DB	017H
	DB	052H
	DB	01H
	DB	01H
	DB	01H
	DB	01H
	DB	017H
	DB	017H
	DB	017H
	DB	01H
	DB	01H
	DB	01H
	DB	01H
	DB	01H
	DB	01H
	DB	01H
	DB	01H
	DB	052H
	DB	017H
	DB	052H
	DB	01H
	DB	01H
	DB	01H
	DB	01H
	DB	01H
	DB	01H
	DB	01H
	DB	01H
	DB	01H
	DB	01H
	DB	01H
	DB	01H
	DB	01H
	DB	01H
	DB	01H
	DB	01H
	DB	01H
	DB	01H
	DB	01H
	DB	01H
	DB	01H
	DB	01H
	DB	01H
	DB	01H
	DB	01H
	DB	01H
	DB	01H
	DB	01H
	DB	01H
	DB	01H
	DB	01H
	DB	01H
	DB	01H
	DB	01H
	DB	01H
	DB	01H
	DB	01H
	DB	01H
	DB	01H
	DB	01H
	DB	01H
	DB	01H
	DB	01H
	DB	01H
	DB	01H
	DB	01H
	DB	01H
	DB	01H
	DB	01H
	DB	01H
	DB	01H
	DB	0f2H
	DB	03H
	DB	03H
	DB	09H
	DB	01H
	DB	01H
	DB	01H
	DB	01H
	DB	01H
	DB	01H
	DB	01H
	DB	01H
	DB	01H
	DB	01H
	DB	01H
	DB	01H
	DB	01H
	DB	01H
	DB	01H
	DB	01H
	DB	01H
	DB	01H
	DB	01H
	DB	01H
	DB	01H
	DB	01H
	DB	01H
	DB	01H
	DB	01H
	DB	01H
	DB	01H
	DB	01H
	DB	01H
	DB	01H
	DB	01H
	DB	01H
	DB	01H
	DB	01H
	DB	01H
	DB	01H
	DB	01H
	DB	01H
	DB	01H
	DB	01H
	DB	01H
	DB	01H
	DB	01H
	DB	01H
	DB	01H
	DB	01H
	DB	01H
	DB	01H
	DB	01H
	DB	01H
	DB	01H
	DB	01H
	DB	01H
	DB	01H
	DB	01H
	DB	01H
	DB	01H
	DB	01H
	DB	01H
	DB	01H
	DB	01H
	DB	01H
	DB	01H
	DB	01H
	DB	01H
	DB	01H
	DB	01H
	DB	01H
	DB	01H
	DB	01H
	DB	01H
	DB	01H
	DB	01H
	DB	01H
	DB	01H
	DB	01H
	DB	01H
	DB	01H
	DB	01H
	DB	01H
	DB	01H
	DB	01H
	DB	01H
	DB	01H
	DB	01H
	DB	01H
	DB	01H
	DB	01H
	DB	01H
	DB	01H
	DB	01H
	DB	01H
	DB	01H
	DB	01H
	DB	01H
	DB	01H
	DB	01H
	DB	01H
	DB	01H
	DB	01H
	DB	01H
	DB	01H
	DB	01H
	DB	01H
	DB	01H
	DB	01H
	DB	01H
	DB	01H
	DB	01H
	DB	01H
	DB	01H
	DB	01H
	DB	01H
	DB	01H
	DB	01H
	DB	01H
	DB	01H
	DB	01H
	DB	01H
	DB	01H
	DB	01H
	DB	01H
	DB	01H
	DB	01H
	DB	01H
	DB	01H
	DB	01H
	DB	01H
	DB	01H
	DB	01H
	DB	01H
	DB	01H
	DB	01H
	DB	01H
	DB	01H
	DB	01H
	DB	01H
	DB	01H
	DB	01H
	DB	01H
	DB	01H
	DB	01H
	DB	01H
	DB	01H
	DB	01H
	DB	01H
	DB	01H
	DB	01H
	DB	01H
	DB	01H
	DB	01H
	DB	01H
	DB	01H
	DB	01H
	DB	01H
	DB	01H
	DB	01H
	DB	01H
	DB	01H
	DB	01H
	DB	01H
	DB	01H
	DB	01H
	DB	01H
	DB	01H
	DB	01H
	DB	01H
	DB	01H
	DB	01H
	DB	01H
	DB	01H
	DB	01H
	DB	01H
	DB	01H
	DB	0f2H
	DB	03H
	DB	03H
	DB	09H
	DB	01H
	DB	01H
	DB	01H
	DB	01H
	DB	01H
	DB	01H
	DB	01H
	DB	01H
	DB	01H
	DB	01H
	DB	01H
	DB	01H
	DB	01H
	DB	01H
	DB	01H
	DB	01H
	DB	01H
	DB	01H
	DB	01H
	DB	01H
	DB	01H
	DB	01H
	DB	01H
	DB	01H
	DB	01H
	DB	01H
	DB	01H
	DB	01H
	DB	01H
	DB	01H
	DB	01H
	DB	01H
	DB	01H
	DB	01H
	DB	01H
	DB	01H
	DB	01H
	DB	01H
	DB	01H
	DB	01H
	DB	01H
	DB	01H
	DB	01H
	DB	01H
	DB	01H
	DB	01H
	DB	01H
	DB	01H
	DB	01H
	DB	01H
	DB	01H
	DB	01H
	DB	01H
	DB	01H
	DB	01H
	DB	01H
	DB	01H
	DB	01H
	DB	01H
	DB	01H
	DB	01H
	DB	01H
	DB	01H
	DB	01H
	DB	01H
	DB	01H
	DB	01H
	DB	01H
	DB	01H
	DB	01H
	DB	01H
	DB	01H
	DB	01H
	DB	01H
	DB	01H
	DB	01H
	DB	01H
	DB	01H
	DB	01H
	DB	01H
	DB	01H
	DB	01H
	DB	01H
	DB	01H
	DB	01H
	DB	01H
	DB	01H
	DB	01H
	DB	01H
	DB	01H
	DB	01H
	DB	01H
	DB	01H
	DB	01H
	DB	01H
	DB	01H
	DB	01H
	DB	01H
	DB	01H
	DB	01H
	DB	01H
	DB	01H
	DB	01H
	DB	01H
	DB	01H
	DB	01H
	DB	01H
	DB	01H
	DB	01H
	DB	01H
	DB	01H
	DB	01H
	DB	01H
	DB	01H
	DB	01H
	DB	01H
	DB	01H
	DB	01H
	DB	01H
	DB	01H
	DB	01H
	DB	01H
	DB	01H
	DB	01H
	DB	01H
	DB	01H
	DB	01H
	DB	01H
	DB	01H
	DB	01H
	DB	01H
	DB	01H
	DB	01H
	DB	01H
	DB	01H
	DB	01H
	DB	01H
	DB	01H
	DB	01H
	DB	01H
	DB	01H
	DB	01H
	DB	01H
	DB	01H
	DB	01H
	DB	01H
	DB	01H
	DB	01H
	DB	01H
	DB	01H
	DB	01H
	DB	01H
	DB	01H
	DB	01H
	DB	01H
	DB	01H
	DB	01H
	DB	01H
	DB	01H
	DB	01H
	DB	01H
	DB	01H
	DB	01H
	DB	01H
	DB	01H
	DB	01H
	DB	01H
	DB	01H
	DB	01H
	DB	01H
	DB	01H
	DB	01H
	DB	01H
	DB	01H
	DB	08H
	DB	0f2H
	DB	0f2H
	DB	07H
	DB	01H
	DB	01H
	DB	01H
	DB	01H
	DB	01H
	DB	01H
	DB	01H
	DB	01H
	DB	01H
	DB	01H
	DB	01H
	DB	01H
	DB	01H
	DB	01H
	DB	01H
	DB	01H
	DB	01H
	DB	01H
	DB	01H
	DB	01H
	DB	01H
	DB	01H
	DB	01H
	DB	01H
	DB	01H
	DB	01H
	DB	01H
	DB	01H
	DB	01H
	DB	01H
	DB	01H
	DB	01H
	DB	01H
	DB	01H
	DB	01H
	DB	01H
	DB	01H
	DB	01H
	DB	01H
	DB	01H
	DB	01H
	DB	01H
	DB	01H
	DB	01H
	DB	01H
	DB	01H
	DB	01H
	DB	01H
	DB	01H
	DB	01H
	DB	01H
	DB	01H
	DB	01H
	DB	01H
	DB	01H
	DB	01H
	DB	01H
	DB	01H
	DB	01H
	DB	01H
	DB	01H
	DB	01H
	DB	01H
	DB	01H
	DB	01H
	DB	01H
	DB	01H
	DB	01H
	DB	01H
	DB	01H
	DB	01H
	DB	01H
	DB	01H
	DB	01H
	DB	01H
	DB	01H
	DB	01H
	DB	01H
	DB	01H
	DB	01H
	DB	01H
	DB	01H
	DB	01H
	DB	01H
	DB	01H
	DB	01H
	DB	01H
	DB	01H
	DB	01H
	DB	01H
	DB	01H
	DB	01H
	DB	01H
	DB	01H
	DB	01H
	DB	01H
	DB	01H
	DB	01H
	DB	01H
	DB	01H
	DB	01H
	DB	01H
	DB	01H
	DB	01H
	DB	01H
	DB	01H
	DB	01H
	DB	01H
	DB	01H
	DB	01H
	DB	01H
	DB	01H
	DB	01H
	DB	01H
	DB	01H
	DB	01H
	DB	01H
	DB	01H
	DB	01H
	DB	01H
	DB	01H
	DB	01H
	DB	01H
	DB	01H
	DB	01H
	DB	01H
	DB	01H
	DB	01H
	DB	01H
	DB	01H
	DB	01H
	DB	01H
	DB	01H
	DB	01H
	DB	01H
	DB	01H
	DB	01H
	DB	01H
	DB	01H
	DB	01H
	DB	01H
	DB	01H
	DB	01H
	DB	01H
	DB	01H
	DB	01H
	DB	01H
	DB	01H
	DB	01H
	DB	01H
	DB	01H
	DB	01H
	DB	01H
	DB	01H
	DB	01H
	DB	01H
	DB	01H
	DB	01H
	DB	01H
	DB	01H
	DB	01H
	DB	01H
	DB	01H
	DB	01H
	DB	01H
	DB	01H
	DB	01H
	DB	01H
	DB	01H
	DB	01H
	DB	01H
	DB	01H
	DB	01H
	DB	01H
	DB	01H
	DB	01H
	DB	01H
	DB	01H
	DB	01H
	DB	01H
	DB	01H
	DB	01H
	DB	01H
	DB	01H
	DB	01H
	DB	01H
	DB	01H
	DB	01H
	DB	01H
	DB	01H
	DB	01H
	DB	01H
	DB	01H
	DB	01H
	DB	01H
	DB	01H
	DB	01H
	DB	01H
	DB	01H
	DB	01H
	DB	01H
	DB	01H
	DB	01H
	DB	01H
	DB	01H
	DB	01H
	DB	01H
	DB	01H
	DB	01H
	DB	01H
	DB	01H
	DB	01H
	DB	01H
	DB	01H
	DB	01H
	DB	01H
	DB	01H
	DB	01H
	DB	01H
	DB	01H
	DB	01H
	DB	01H
	DB	01H
	DB	01H
	DB	01H
	DB	01H
	DB	01H
	DB	01H
	DB	01H
	DB	01H
	DB	01H
	DB	01H
	DB	01H
	DB	01H
	DB	01H
	DB	01H
	DB	01H
	DB	01H
	DB	01H
	DB	01H
	DB	01H
	DB	01H
	DB	01H
	DB	01H
	DB	01H
	DB	01H
	DB	01H
	DB	01H
	DB	01H
	DB	01H
	DB	01H
	DB	01H
	DB	01H
	DB	01H
	DB	01H
	DB	01H
	DB	01H
	DB	01H
	DB	01H
	DB	01H
	DB	01H
	DB	01H
	DB	01H
	DB	01H
	DB	01H
	DB	01H
	DB	01H
	DB	01H
	DB	01H
	DB	01H
	DB	01H
	DB	01H
	DB	01H
	DB	01H
	DB	01H
	DB	01H
	DB	01H
	DB	01H
	DB	01H
	DB	01H
	DB	01H
	DB	01H
	DB	01H
	DB	01H
	DB	01H
	DB	01H
	DB	01H
	DB	01H
	DB	01H
	DB	01H
	DB	01H
	DB	01H
	DB	01H
	DB	01H
	DB	01H
	DB	01H
	DB	01H
	DB	01H
	DB	01H
	DB	01H
	DB	01H
	DB	01H
	DB	01H
	DB	01H
	DB	01H
	DB	01H
	DB	01H
	DB	01H
	DB	01H
	DB	01H
	DB	01H
	DB	01H
	DB	01H
	DB	01H
	DB	01H
	DB	01H
	DB	01H
	DB	01H
	DB	01H
	DB	01H
	DB	01H
	DB	01H
	DB	01H
	DB	01H
	DB	01H
	DB	01H
	DB	01H
	DB	01H
	DB	01H
	DB	01H
	DB	01H
	DB	01H
	DB	01H
	DB	01H
	DB	01H
	DB	01H
	DB	01H
	DB	01H
	DB	01H
	DB	01H
	DB	01H
	DB	01H
	DB	01H
	DB	01H
	DB	01H
	DB	01H
	DB	01H
	DB	01H
	DB	01H
	DB	01H
	DB	01H
	DB	01H
	DB	01H
	DB	01H
	DB	01H
	DB	01H
	DB	01H
	DB	01H
	DB	01H
	DB	01H
	DB	01H
	DB	01H
	DB	01H
	DB	01H
	DB	01H
	DB	01H
	DB	01H
	DB	01H
	DB	01H
	DB	01H
	DB	01H
	DB	01H
	DB	01H
	DB	01H
	DB	01H
	DB	01H
	DB	01H
	DB	01H
	DB	01H
	DB	01H
	DB	01H
	DB	01H
	DB	01H
	DB	01H
	DB	01H
	DB	01H
	DB	01H
	DB	01H
	DB	01H
	DB	01H
	DB	01H
	DB	01H
	DB	01H
	DB	01H
	DB	01H
	DB	01H
	DB	01H
	DB	01H
	DB	01H
	DB	01H
	DB	01H
	DB	01H
	DB	01H
	DB	01H
	DB	01H
	DB	01H
	DB	01H
	DB	01H
	DB	01H
	DB	01H
	DB	01H
	DB	01H
	DB	01H
	DB	01H
	DB	01H
	DB	01H
	DB	01H
	DB	01H
	DB	01H
	DB	01H
	DB	01H
	DB	01H
	DB	01H
	DB	01H
	DB	01H
	DB	01H
	DB	01H
	DB	01H
	DB	01H
	DB	01H
	DB	01H
	DB	01H
	DB	01H
	DB	01H
	DB	01H
	DB	01H
	DB	01H
	DB	01H
	DB	01H
	DB	01H
	DB	01H
	DB	01H
	DB	01H
	DB	01H
	DB	01H
	DB	01H
	DB	01H
	DB	01H
	DB	01H
	DB	01H
	DB	01H
	DB	01H
	DB	01H
	DB	01H
	DB	01H
	DB	01H
	DB	01H
	DB	01H
	DB	01H
	DB	01H
	DB	01H
	DB	01H
	DB	01H
	DB	01H
	DB	01H
	DB	01H
	DB	01H
	DB	01H
	DB	01H
	DB	01H
	DB	01H
	DB	01H
	DB	01H
	DB	01H
	DB	01H
	DB	01H
	DB	01H
	DB	01H
	DB	01H
	DB	01H
	DB	01H
	DB	01H
	DB	01H
	DB	01H
	DB	01H
	DB	01H
	DB	01H
	DB	01H
	DB	01H
	DB	01H
	DB	01H
	DB	01H
	DB	01H
	DB	01H
	DB	01H
	DB	01H
	DB	01H
	DB	01H
	DB	01H
	DB	01H
	DB	01H
	DB	01H
	DB	01H
	DB	01H
	DB	01H
	DB	01H
	DB	01H
	DB	01H
	DB	01H
	DB	01H
	DB	01H
	DB	01H
	DB	01H
	DB	01H
	DB	01H
	DB	01H
	DB	01H
	DB	01H
	DB	01H
	DB	01H
	DB	01H
	DB	01H
	DB	01H
	DB	01H
	DB	01H
	DB	01H
	DB	01H
	DB	01H
	DB	01H
	DB	01H
	DB	01H
	DB	01H
	DB	01H
	DB	01H
	DB	01H
	DB	01H
	DB	01H
	DB	01H
	DB	01H
	DB	01H
	DB	01H
	DB	01H
	DB	01H
	DB	01H
	DB	01H
	DB	01H
	DB	01H
	DB	01H
	DB	01H
	DB	01H
	DB	01H
	DB	01H
	DB	01H
	DB	01H
	DB	01H
	DB	01H
	DB	01H
	DB	01H
	DB	01H
	DB	01H
	DB	01H
	DB	01H
	DB	01H
	DB	01H
	DB	01H
	DB	01H
	DB	01H
	DB	01H
	DB	01H
	DB	01H
	DB	01H
	DB	01H
	DB	01H
	DB	01H
	DB	01H
	DB	01H
	DB	01H
	DB	01H
	DB	01H
	DB	01H
	DB	01H
	DB	01H
	DB	01H
	DB	01H
	DB	01H
	DB	01H
	DB	01H
	DB	01H
	DB	01H
	DB	01H
	DB	01H
	DB	01H
	DB	01H
	DB	01H
	DB	01H
	DB	01H
	DB	01H
	DB	01H
	DB	01H
	DB	01H
	DB	01H
	DB	01H
	DB	01H
	DB	01H
	DB	01H
	DB	01H
	DB	01H
	DB	01H
	DB	01H
	DB	01H
	DB	01H
	DB	01H
	DB	01H
	DB	01H
	DB	01H
	DB	01H
	DB	01H
	DB	01H
	DB	01H
	DB	01H
	DB	01H
	DB	01H
	DB	01H
	DB	01H
	DB	01H
	DB	01H
	DB	01H
	DB	01H
	DB	01H
	DB	01H
	DB	01H
	DB	01H
	DB	01H
	DB	01H
	DB	01H
	DB	01H
	DB	01H
	DB	01H
	DB	01H
	DB	01H
	DB	01H
	DB	01H
	DB	01H
	DB	01H
	DB	01H
	DB	01H
	DB	01H
	DB	01H
	DB	01H
	DB	01H
	DB	01H
	DB	01H
	DB	01H
	DB	01H
	DB	01H
	DB	01H
	DB	01H
	DB	01H
	DB	01H
	DB	01H
	DB	01H
	DB	01H
	DB	01H
	DB	01H
	DB	01H
	DB	01H
	DB	01H
	DB	01H
	DB	01H
CONST	ENDS
END
