; Listing generated by Microsoft (R) Optimizing Compiler Version 16.00.40219.01 

	TITLE	C:\DUII\DUII\Graphics\LapsQualifyText.c
	.686P
	.XMM
	include listing.inc
	.model	flat

INCLUDELIB LIBCMT
INCLUDELIB OLDNAMES

PUBLIC	_bmLapsQualifyText
CONST	SEGMENT
_ColorsLapsQualifyText DD 037e0e5H
	DD	01f8c8fH
	DD	00H
	DD	03ef9feH
	DD	041fefeH
	DD	0222222H
	DD	0393939H
	DD	0b0b0bH
	DD	0414141H
	DD	02c2c2cH
	DD	01c1c1cH
	DD	0141414H
	DD	03e3e3eH
	DD	02a2a2aH
	DD	0262626H
	DD	0313131H
	DD	0353535H
	DD	0403a3aH
	DD	029a3a6H
	DD	0213d3eH
	DD	036e4e8H
	DD	03efcfeH
	DD	03df5faH
	DD	0154a4bH
	DD	0a0202H
	DD	031c4c8H
	DD	0130b0bH
	DD	01a1313H
	DD	060b0bH
	DD	02ebabdH
	DD	0184546H
	DD	030bfc3H
	DD	02aa9acH
	DD	032cacdH
	DD	02cb2b5H
	DD	0413d3dH
	DD	039e5e9H
	DD	039e9ecH
	DD	03cf1f5H
	DD	0a1b1cH
	DD	0213e40H
	DD	0134343H
	DD	0b2324H
	DD	0c2a2bH
	DD	0292121H
	DD	0292525H
	DD	0155354H
	DD	0444444H
	DD	02aa5a8H
	DD	03cedf1H
	DD	044ffffH
	DD	051314H
	DD	0201d1dH
	DD	0d3132H
	DD	0123b3cH
	DD	0252121H
	DD	0444242H
	DD	0110404H
	DD	0123334H
	DD	01e797bH
	DD	035d5d9H
	DD	036daddH
	DD	038e1e4H
	DD	03aedf1H
	DD	0183a3aH
	DD	0195c5dH
	DD	02db5b9H
	DD	038dee1H
	DD	0211919H
	DD	0142a2bH
	DD	01c7172H
	DD	0207b7dH
	DD	0289ea1H
	DD	035d1d5H
	DD	02e2424H
	DD	02d2929H
	DD	0362d2dH
	DD	0393131H
	DD	0248e90H
	DD	030c2c5H
	DD	036e1e5H
	DD	0131a1aH
	DD	01d2323H
	DD	021393aH
	DD	03a3535H
	DD	0218688H
	DD	0269a9cH
	DD	02cadb0H
	DD	031c4c6H
	DD	040fafdH
	DD	07191aH
	DD	0322828H
	DD	0165a5cH
	DD	0207e81H
	DD	0228889H
	DD	0249092H
	DD	032cdd1H
	DD	031d2d5H
	DD	0190d0dH
	DD	0123e40H
	DD	0144748H
	DD	019494aH
	DD	01a5e60H
	DD	0196162H
	DD	02eb8baH
	DD	039e8eaH
	DD	0261d1dH
	DD	0291e1eH
	DD	01d3131H
	DD	0262929H
	DD	03c3535H
	DD	03c3a3aH
	DD	01a4244H
	DD	01d6061H
	DD	01c6465H
	DD	01d696aH
	DD	01c6c6eH
	DD	0228284H
	DD	0289c9eH
	DD	02aadb1H
	DD	02ebcc0H
	DD	030bdc0H
	DD	034ced2H
	DD	035d4d5H
	DD	035dde1H
	DD	091111H
	DD	0e1010H
	DD	0a1415H
	DD	0221616H
	DD	0102525H
	DD	0e393aH
	DD	0302f2fH
	DD	0213b3cH
	DD	0343232H
	DD	0363939H
	DD	0194c4eH
	DD	0195557H
	DD	01a5658H
	DD	0196365H
	DD	0196466H
	DD	01b6668H
	DD	01d6f70H
	DD	01d7678H
	DD	0208183H
	DD	0218486H
	DD	0248a8cH
	DD	0248d8eH
	DD	0259698H
	DD	02ebcbdH
	DD	034d1d3H
	DD	031d5d9H
	DD	03aeceeH
	DD	03ceceeH
	DD	039eff4H
	DD	03ef4f6H
	DD	018100fH
	DD	0d1616H
	DD	0221c1bH
	DD	0d2728H
	DD	0122020H
	DD	0162727H
	DD	0192b2cH
	DD	01a2e2eH
	DD	01e2c2dH
	DD	01d3838H
	DD	01d3c3eH
	DD	0232424H
	DD	02c2323H
	DD	0302625H
	DD	0342a2aH
	DD	02e3435H
	DD	0293d3dH
	DD	01c4546H
	DD	0194748H
	DD	0194a4cH
	DD	01a5152H
	DD	01a5354H
	DD	01d5354H
	DD	0165658H
	DD	01c6264H
	DD	0207475H
	DD	0248588H
	DD	0238a8cH
	DD	0259294H
	DD	0259497H
	DD	02dc0c2H
	DD	02fc2c5H
	DD	02ec5caH
	DD	031d0d2H
	DD	032dce0H
	DD	039f1f5H
	DD	03ef9fbH
	DD	040f8fbH
	DD	0b0807H
	DD	0f1718H
	DD	01c1817H
	DD	0241a1aH
	DD	02c201fH
	DD	081f20H
	DD	0162223H
	DD	0152324H
	DD	01e2b2bH
	DD	0102f30H
	DD	0f3738H
	DD	01b3434H
	DD	0143738H
	DD	0183738H
	DD	01b3d3dH
	DD	0242423H
	DD	0212b2bH
	DD	0242d2eH
	DD	02c2c2bH
	DD	02a2d2dH
	DD	0203233H
	DD	0243131H
	DD	0233536H
	DD	0273636H
	DD	02a3232H
	DD	02a3738H
	DD	0243939H
	DD	02c3b3cH
	DD	0323737H
	DD	03b3433H
	DD	0313b3bH
	DD	0443d3dH
	DD	01b4041H
	DD	01e4142H
	DD	01e4e4fH
	DD	01c5051H
	DD	01e5757H
	DD	01c5758H
	DD	0234445H
	DD	03f4040H
	DD	01b696aH
	DD	0216d6fH
	DD	0216f70H
	DD	0227578H
	DD	0434444H
	DD	0248183H
	DD	0238c8eH
	DD	0279ea0H
	DD	024a1a4H
	DD	027a5a9H
	DD	030bdbfH
	DD	030c1c2H
	DD	038dcdeH
	DD	034dbe0H
	DD	03be7ecH
	DD	037eaeeH
	DD	03cebefH
	DD	03bebf0H
	DD	03ceff4H
	DD	03bf1f3H
	DD	03cf0f2H
	DD	040f4f7H
	DD	028a5a8H
_PalLapsQualifyText DD 0100H
	DB	00H
	ORG $+3
	DD	FLAT:_ColorsLapsQualifyText
_bmLapsQualifyText DW 0159H
	DW	023H
	DW	0159H
	DW	08H
	DD	FLAT:_acLapsQualifyText
	DD	FLAT:_PalLapsQualifyText
	ORG $+4
_acLapsQualifyText DB 05H
	DB	05H
	DB	05H
	DB	05H
	DB	05H
	DB	05H
	DB	05H
	DB	05H
	DB	05H
	DB	05H
	DB	05H
	DB	05H
	DB	05H
	DB	05H
	DB	05H
	DB	05H
	DB	05H
	DB	05H
	DB	05H
	DB	05H
	DB	05H
	DB	05H
	DB	05H
	DB	05H
	DB	05H
	DB	05H
	DB	05H
	DB	05H
	DB	05H
	DB	05H
	DB	05H
	DB	05H
	DB	05H
	DB	05H
	DB	05H
	DB	05H
	DB	05H
	DB	05H
	DB	05H
	DB	05H
	DB	05H
	DB	05H
	DB	05H
	DB	05H
	DB	05H
	DB	05H
	DB	05H
	DB	05H
	DB	05H
	DB	05H
	DB	05H
	DB	05H
	DB	05H
	DB	05H
	DB	05H
	DB	05H
	DB	05H
	DB	05H
	DB	05H
	DB	05H
	DB	05H
	DB	05H
	DB	05H
	DB	05H
	DB	05H
	DB	05H
	DB	05H
	DB	05H
	DB	05H
	DB	05H
	DB	05H
	DB	05H
	DB	05H
	DB	05H
	DB	05H
	DB	05H
	DB	05H
	DB	05H
	DB	05H
	DB	05H
	DB	05H
	DB	05H
	DB	05H
	DB	05H
	DB	05H
	DB	05H
	DB	05H
	DB	05H
	DB	05H
	DB	05H
	DB	05H
	DB	05H
	DB	05H
	DB	05H
	DB	05H
	DB	05H
	DB	05H
	DB	05H
	DB	05H
	DB	05H
	DB	05H
	DB	05H
	DB	05H
	DB	05H
	DB	05H
	DB	05H
	DB	05H
	DB	05H
	DB	05H
	DB	05H
	DB	05H
	DB	05H
	DB	05H
	DB	05H
	DB	05H
	DB	05H
	DB	05H
	DB	05H
	DB	05H
	DB	05H
	DB	05H
	DB	05H
	DB	05H
	DB	05H
	DB	05H
	DB	05H
	DB	05H
	DB	05H
	DB	05H
	DB	05H
	DB	05H
	DB	05H
	DB	05H
	DB	05H
	DB	05H
	DB	05H
	DB	05H
	DB	05H
	DB	05H
	DB	05H
	DB	05H
	DB	05H
	DB	05H
	DB	05H
	DB	05H
	DB	05H
	DB	05H
	DB	05H
	DB	05H
	DB	05H
	DB	05H
	DB	05H
	DB	05H
	DB	05H
	DB	05H
	DB	05H
	DB	05H
	DB	05H
	DB	05H
	DB	05H
	DB	05H
	DB	05H
	DB	05H
	DB	05H
	DB	05H
	DB	05H
	DB	05H
	DB	05H
	DB	05H
	DB	05H
	DB	05H
	DB	05H
	DB	05H
	DB	05H
	DB	05H
	DB	05H
	DB	05H
	DB	05H
	DB	05H
	DB	05H
	DB	05H
	DB	05H
	DB	05H
	DB	05H
	DB	05H
	DB	05H
	DB	05H
	DB	05H
	DB	05H
	DB	05H
	DB	05H
	DB	05H
	DB	05H
	DB	05H
	DB	05H
	DB	05H
	DB	05H
	DB	05H
	DB	05H
	DB	05H
	DB	05H
	DB	05H
	DB	05H
	DB	05H
	DB	05H
	DB	05H
	DB	05H
	DB	05H
	DB	05H
	DB	05H
	DB	05H
	DB	05H
	DB	05H
	DB	05H
	DB	05H
	DB	05H
	DB	05H
	DB	05H
	DB	05H
	DB	05H
	DB	05H
	DB	05H
	DB	05H
	DB	05H
	DB	05H
	DB	05H
	DB	05H
	DB	05H
	DB	05H
	DB	05H
	DB	05H
	DB	05H
	DB	05H
	DB	05H
	DB	05H
	DB	05H
	DB	05H
	DB	05H
	DB	05H
	DB	05H
	DB	05H
	DB	05H
	DB	05H
	DB	05H
	DB	05H
	DB	05H
	DB	05H
	DB	05H
	DB	05H
	DB	05H
	DB	05H
	DB	05H
	DB	05H
	DB	05H
	DB	05H
	DB	05H
	DB	05H
	DB	05H
	DB	05H
	DB	05H
	DB	05H
	DB	05H
	DB	05H
	DB	05H
	DB	05H
	DB	05H
	DB	05H
	DB	05H
	DB	05H
	DB	05H
	DB	05H
	DB	05H
	DB	05H
	DB	05H
	DB	05H
	DB	05H
	DB	05H
	DB	05H
	DB	05H
	DB	05H
	DB	05H
	DB	05H
	DB	05H
	DB	05H
	DB	05H
	DB	05H
	DB	05H
	DB	05H
	DB	05H
	DB	05H
	DB	05H
	DB	05H
	DB	05H
	DB	05H
	DB	05H
	DB	05H
	DB	05H
	DB	05H
	DB	05H
	DB	05H
	DB	05H
	DB	05H
	DB	05H
	DB	05H
	DB	05H
	DB	05H
	DB	05H
	DB	05H
	DB	05H
	DB	05H
	DB	05H
	DB	05H
	DB	05H
	DB	05H
	DB	05H
	DB	05H
	DB	05H
	DB	05H
	DB	05H
	DB	05H
	DB	05H
	DB	05H
	DB	05H
	DB	05H
	DB	05H
	DB	05H
	DB	05H
	DB	05H
	DB	05H
	DB	05H
	DB	05H
	DB	05H
	DB	05H
	DB	05H
	DB	05H
	DB	05H
	DB	05H
	DB	05H
	DB	05H
	DB	05H
	DB	05H
	DB	05H
	DB	05H
	DB	05H
	DB	05H
	DB	0a6H
	DB	0a6H
	DB	0a6H
	DB	0a6H
	DB	0a6H
	DB	0a6H
	DB	0a6H
	DB	0a6H
	DB	0a6H
	DB	0a6H
	DB	0a6H
	DB	0a6H
	DB	0a6H
	DB	0a6H
	DB	0a6H
	DB	0a6H
	DB	0a6H
	DB	0a6H
	DB	0a6H
	DB	0a6H
	DB	0a6H
	DB	0a6H
	DB	0a6H
	DB	0a6H
	DB	0a6H
	DB	0a6H
	DB	0a6H
	DB	0a6H
	DB	0a6H
	DB	0a6H
	DB	0a6H
	DB	0a6H
	DB	0a6H
	DB	0a6H
	DB	0a6H
	DB	0a6H
	DB	0a6H
	DB	0a6H
	DB	0a6H
	DB	0a6H
	DB	0a6H
	DB	0a6H
	DB	0a6H
	DB	0a6H
	DB	0a6H
	DB	0a6H
	DB	0a6H
	DB	0a6H
	DB	0a6H
	DB	0a6H
	DB	0a6H
	DB	0a6H
	DB	0a6H
	DB	0a6H
	DB	0a6H
	DB	0a6H
	DB	0a6H
	DB	0a6H
	DB	0a6H
	DB	0a6H
	DB	0a6H
	DB	0a6H
	DB	0a6H
	DB	0a6H
	DB	0a6H
	DB	0a6H
	DB	0a6H
	DB	0a6H
	DB	0a6H
	DB	0a6H
	DB	0a6H
	DB	0a6H
	DB	0a6H
	DB	0a6H
	DB	0a6H
	DB	0a6H
	DB	0a6H
	DB	0a6H
	DB	0a6H
	DB	0a6H
	DB	0a6H
	DB	0a6H
	DB	0a6H
	DB	0a6H
	DB	0a6H
	DB	0a6H
	DB	0a6H
	DB	0a6H
	DB	0a6H
	DB	0a6H
	DB	0a6H
	DB	0a6H
	DB	0a6H
	DB	0a6H
	DB	0a6H
	DB	0a6H
	DB	0a6H
	DB	0a6H
	DB	0a6H
	DB	0a6H
	DB	0a6H
	DB	0a6H
	DB	0a6H
	DB	0a6H
	DB	0a6H
	DB	0a6H
	DB	0a6H
	DB	0a6H
	DB	0a6H
	DB	0a6H
	DB	0a6H
	DB	0a6H
	DB	0a6H
	DB	0a6H
	DB	0a6H
	DB	0a6H
	DB	0a6H
	DB	0a6H
	DB	0a6H
	DB	0a6H
	DB	0a6H
	DB	0a6H
	DB	0a6H
	DB	0a6H
	DB	0a6H
	DB	0a6H
	DB	0a6H
	DB	0a6H
	DB	0a6H
	DB	0a6H
	DB	0a6H
	DB	0a6H
	DB	0a6H
	DB	0a6H
	DB	0a6H
	DB	0a6H
	DB	0a6H
	DB	0a6H
	DB	0a6H
	DB	0a6H
	DB	0a6H
	DB	0a6H
	DB	0a6H
	DB	0a6H
	DB	0a6H
	DB	0a6H
	DB	0a6H
	DB	0a6H
	DB	0a6H
	DB	0a6H
	DB	0a6H
	DB	0a6H
	DB	0a6H
	DB	0a6H
	DB	0a6H
	DB	0a6H
	DB	0a6H
	DB	0a6H
	DB	0a6H
	DB	0a6H
	DB	0eH
	DB	0a6H
	DB	0a6H
	DB	0a6H
	DB	0a6H
	DB	0a6H
	DB	0a6H
	DB	0a6H
	DB	0a6H
	DB	0a6H
	DB	0a6H
	DB	0a6H
	DB	0a6H
	DB	0a6H
	DB	0a6H
	DB	0a6H
	DB	0a6H
	DB	0a6H
	DB	0a6H
	DB	0a6H
	DB	0a6H
	DB	0a6H
	DB	0a6H
	DB	0a6H
	DB	0a6H
	DB	0a6H
	DB	0a6H
	DB	0a6H
	DB	0a6H
	DB	0a6H
	DB	0a6H
	DB	0a6H
	DB	0a6H
	DB	0a6H
	DB	0a6H
	DB	0a6H
	DB	0a6H
	DB	0a6H
	DB	0a6H
	DB	0a6H
	DB	0a6H
	DB	0a6H
	DB	0a6H
	DB	0a6H
	DB	0a6H
	DB	0a6H
	DB	0a6H
	DB	0a6H
	DB	0a6H
	DB	0a6H
	DB	0a6H
	DB	0a6H
	DB	0a6H
	DB	0a6H
	DB	0a6H
	DB	0a6H
	DB	0a6H
	DB	0a6H
	DB	0a6H
	DB	0a6H
	DB	0a6H
	DB	0a6H
	DB	0a6H
	DB	0a6H
	DB	0a6H
	DB	0a6H
	DB	0a6H
	DB	0a6H
	DB	0a6H
	DB	0a6H
	DB	0a6H
	DB	0a6H
	DB	0a6H
	DB	0a6H
	DB	0a6H
	DB	0a6H
	DB	0a6H
	DB	0a6H
	DB	0a6H
	DB	0a6H
	DB	0a6H
	DB	0a6H
	DB	0a6H
	DB	0a6H
	DB	0a6H
	DB	0a6H
	DB	0a6H
	DB	0a6H
	DB	0a6H
	DB	0a6H
	DB	0a6H
	DB	0a6H
	DB	0a6H
	DB	0a6H
	DB	0a6H
	DB	0a6H
	DB	0a6H
	DB	0a6H
	DB	0a6H
	DB	0a6H
	DB	0a6H
	DB	0a6H
	DB	0a6H
	DB	0a6H
	DB	0a6H
	DB	0a6H
	DB	0a6H
	DB	0a6H
	DB	0a6H
	DB	0a6H
	DB	0a6H
	DB	0a6H
	DB	0a6H
	DB	0a6H
	DB	0a6H
	DB	0a6H
	DB	0a6H
	DB	0a6H
	DB	0a6H
	DB	0a6H
	DB	0a6H
	DB	0a6H
	DB	0a6H
	DB	0a6H
	DB	0a6H
	DB	0a6H
	DB	0a6H
	DB	0a6H
	DB	0a6H
	DB	0a6H
	DB	0a6H
	DB	0a6H
	DB	0a6H
	DB	0a6H
	DB	0a6H
	DB	0a6H
	DB	0a6H
	DB	0a6H
	DB	0a6H
	DB	0a6H
	DB	0a6H
	DB	0a6H
	DB	0a6H
	DB	0a6H
	DB	0a6H
	DB	0a6H
	DB	0a6H
	DB	0a6H
	DB	0a6H
	DB	0a6H
	DB	0a6H
	DB	0a6H
	DB	0a6H
	DB	0a6H
	DB	0a6H
	DB	0a6H
	DB	0a6H
	DB	0a6H
	DB	0a6H
	DB	0a6H
	DB	0a6H
	DB	0a6H
	DB	0a6H
	DB	0a6H
	DB	0a6H
	DB	0a6H
	DB	0a6H
	DB	0a6H
	DB	0a6H
	DB	0a6H
	DB	0a6H
	DB	0a6H
	DB	0a6H
	DB	0a6H
	DB	0a6H
	DB	0a6H
	DB	0a6H
	DB	0a6H
	DB	0a6H
	DB	0a6H
	DB	0a6H
	DB	0a6H
	DB	0a6H
	DB	0a6H
	DB	0a6H
	DB	09H
	DB	09H
	DB	09H
	DB	09H
	DB	09H
	DB	09H
	DB	09H
	DB	09H
	DB	09H
	DB	09H
	DB	09H
	DB	09H
	DB	09H
	DB	09H
	DB	09H
	DB	09H
	DB	09H
	DB	09H
	DB	09H
	DB	09H
	DB	09H
	DB	09H
	DB	09H
	DB	09H
	DB	09H
	DB	09H
	DB	09H
	DB	09H
	DB	09H
	DB	09H
	DB	09H
	DB	09H
	DB	09H
	DB	09H
	DB	09H
	DB	09H
	DB	09H
	DB	09H
	DB	09H
	DB	09H
	DB	09H
	DB	09H
	DB	09H
	DB	09H
	DB	09H
	DB	09H
	DB	09H
	DB	09H
	DB	09H
	DB	09H
	DB	09H
	DB	09H
	DB	09H
	DB	09H
	DB	09H
	DB	09H
	DB	09H
	DB	09H
	DB	09H
	DB	09H
	DB	09H
	DB	09H
	DB	09H
	DB	09H
	DB	09H
	DB	09H
	DB	09H
	DB	09H
	DB	09H
	DB	09H
	DB	09H
	DB	09H
	DB	09H
	DB	09H
	DB	09H
	DB	09H
	DB	09H
	DB	09H
	DB	09H
	DB	09H
	DB	09H
	DB	09H
	DB	09H
	DB	09H
	DB	09H
	DB	09H
	DB	09H
	DB	09H
	DB	09H
	DB	09H
	DB	09H
	DB	09H
	DB	09H
	DB	09H
	DB	09H
	DB	09H
	DB	09H
	DB	09H
	DB	09H
	DB	09H
	DB	09H
	DB	09H
	DB	09H
	DB	09H
	DB	09H
	DB	09H
	DB	09H
	DB	09H
	DB	09H
	DB	09H
	DB	09H
	DB	09H
	DB	09H
	DB	09H
	DB	09H
	DB	09H
	DB	09H
	DB	09H
	DB	09H
	DB	09H
	DB	09H
	DB	09H
	DB	09H
	DB	09H
	DB	09H
	DB	09H
	DB	09H
	DB	09H
	DB	09H
	DB	09H
	DB	09H
	DB	09H
	DB	09H
	DB	09H
	DB	09H
	DB	09H
	DB	09H
	DB	09H
	DB	09H
	DB	09H
	DB	09H
	DB	09H
	DB	09H
	DB	09H
	DB	09H
	DB	09H
	DB	09H
	DB	09H
	DB	09H
	DB	09H
	DB	09H
	DB	09H
	DB	09H
	DB	09H
	DB	09H
	DB	09H
	DB	09H
	DB	09H
	DB	09H
	DB	02dH
	DB	044H
	DB	0a7H
	DB	04bH
	DB	09H
	DB	09H
	DB	09H
	DB	09H
	DB	09H
	DB	09H
	DB	09H
	DB	09H
	DB	09H
	DB	09H
	DB	09H
	DB	09H
	DB	09H
	DB	09H
	DB	09H
	DB	09H
	DB	09H
	DB	09H
	DB	09H
	DB	09H
	DB	09H
	DB	09H
	DB	09H
	DB	09H
	DB	09H
	DB	09H
	DB	09H
	DB	09H
	DB	09H
	DB	09H
	DB	09H
	DB	09H
	DB	09H
	DB	09H
	DB	09H
	DB	09H
	DB	09H
	DB	09H
	DB	09H
	DB	09H
	DB	09H
	DB	09H
	DB	09H
	DB	09H
	DB	09H
	DB	09H
	DB	09H
	DB	09H
	DB	09H
	DB	09H
	DB	09H
	DB	09H
	DB	09H
	DB	09H
	DB	09H
	DB	09H
	DB	09H
	DB	09H
	DB	09H
	DB	09H
	DB	09H
	DB	09H
	DB	09H
	DB	09H
	DB	09H
	DB	09H
	DB	09H
	DB	09H
	DB	09H
	DB	09H
	DB	09H
	DB	09H
	DB	09H
	DB	09H
	DB	09H
	DB	09H
	DB	09H
	DB	09H
	DB	09H
	DB	09H
	DB	09H
	DB	09H
	DB	09H
	DB	09H
	DB	09H
	DB	09H
	DB	09H
	DB	09H
	DB	09H
	DB	09H
	DB	09H
	DB	09H
	DB	09H
	DB	09H
	DB	09H
	DB	09H
	DB	09H
	DB	09H
	DB	09H
	DB	09H
	DB	09H
	DB	09H
	DB	09H
	DB	09H
	DB	09H
	DB	09H
	DB	09H
	DB	09H
	DB	09H
	DB	09H
	DB	09H
	DB	09H
	DB	09H
	DB	09H
	DB	09H
	DB	09H
	DB	09H
	DB	09H
	DB	09H
	DB	09H
	DB	09H
	DB	09H
	DB	09H
	DB	09H
	DB	09H
	DB	09H
	DB	09H
	DB	09H
	DB	09H
	DB	09H
	DB	09H
	DB	09H
	DB	09H
	DB	09H
	DB	09H
	DB	09H
	DB	09H
	DB	09H
	DB	09H
	DB	09H
	DB	09H
	DB	09H
	DB	09H
	DB	09H
	DB	09H
	DB	09H
	DB	09H
	DB	09H
	DB	09H
	DB	09H
	DB	09H
	DB	09H
	DB	09H
	DB	09H
	DB	09H
	DB	09H
	DB	09H
	DB	09H
	DB	09H
	DB	09H
	DB	09H
	DB	09H
	DB	09H
	DB	09H
	DB	09H
	DB	09H
	DB	09H
	DB	09H
	DB	09H
	DB	09H
	DB	09H
	DB	09H
	DB	09H
	DB	09H
	DB	09H
	DB	09H
	DB	09H
	DB	09H
	DB	09H
	DB	09H
	DB	09H
	DB	09H
	DB	06H
	DB	06H
	DB	06H
	DB	06H
	DB	06H
	DB	06H
	DB	06H
	DB	06H
	DB	06H
	DB	06H
	DB	06H
	DB	06H
	DB	06H
	DB	06H
	DB	06H
	DB	06H
	DB	06H
	DB	06H
	DB	06H
	DB	06H
	DB	06H
	DB	06H
	DB	06H
	DB	06H
	DB	06H
	DB	06H
	DB	06H
	DB	06H
	DB	06H
	DB	06H
	DB	06H
	DB	06H
	DB	06H
	DB	06H
	DB	06H
	DB	06H
	DB	06H
	DB	06H
	DB	06H
	DB	06H
	DB	06H
	DB	06H
	DB	06H
	DB	06H
	DB	06H
	DB	06H
	DB	06H
	DB	06H
	DB	06H
	DB	06H
	DB	06H
	DB	06H
	DB	06H
	DB	06H
	DB	06H
	DB	06H
	DB	06H
	DB	06H
	DB	06H
	DB	06H
	DB	06H
	DB	06H
	DB	06H
	DB	06H
	DB	06H
	DB	06H
	DB	06H
	DB	06H
	DB	06H
	DB	06H
	DB	06H
	DB	06H
	DB	06H
	DB	06H
	DB	06H
	DB	06H
	DB	06H
	DB	06H
	DB	06H
	DB	06H
	DB	06H
	DB	06H
	DB	06H
	DB	06H
	DB	06H
	DB	06H
	DB	06H
	DB	06H
	DB	06H
	DB	06H
	DB	06H
	DB	06H
	DB	06H
	DB	06H
	DB	06H
	DB	06H
	DB	06H
	DB	06H
	DB	06H
	DB	06H
	DB	06H
	DB	06H
	DB	06H
	DB	06H
	DB	06H
	DB	06H
	DB	06H
	DB	06H
	DB	06H
	DB	06H
	DB	06H
	DB	06H
	DB	06H
	DB	06H
	DB	06H
	DB	06H
	DB	06H
	DB	06H
	DB	06H
	DB	06H
	DB	06H
	DB	06H
	DB	06H
	DB	06H
	DB	06H
	DB	06H
	DB	06H
	DB	06H
	DB	06H
	DB	06H
	DB	06H
	DB	06H
	DB	06H
	DB	06H
	DB	06H
	DB	06H
	DB	06H
	DB	06H
	DB	06H
	DB	06H
	DB	06H
	DB	06H
	DB	06H
	DB	06H
	DB	06H
	DB	06H
	DB	06H
	DB	06H
	DB	06H
	DB	06H
	DB	06H
	DB	06H
	DB	06H
	DB	06H
	DB	06H
	DB	06H
	DB	06H
	DB	06H
	DB	054H
	DB	0ccH
	DB	05dH
	DB	065H
	DB	0a2H
	DB	06dH
	DB	086H
	DB	06H
	DB	06H
	DB	06H
	DB	06H
	DB	06H
	DB	06H
	DB	06H
	DB	06H
	DB	06H
	DB	06H
	DB	06H
	DB	06H
	DB	06H
	DB	06H
	DB	06H
	DB	06H
	DB	06H
	DB	06H
	DB	06H
	DB	06H
	DB	06H
	DB	06H
	DB	06H
	DB	06H
	DB	06H
	DB	06H
	DB	06H
	DB	06H
	DB	06H
	DB	06H
	DB	06H
	DB	06H
	DB	06H
	DB	06H
	DB	06H
	DB	06H
	DB	06H
	DB	06H
	DB	06H
	DB	06H
	DB	06H
	DB	06H
	DB	06H
	DB	06H
	DB	06H
	DB	06H
	DB	06H
	DB	06H
	DB	06H
	DB	06H
	DB	06H
	DB	06H
	DB	06H
	DB	06H
	DB	06H
	DB	06H
	DB	06H
	DB	06H
	DB	06H
	DB	06H
	DB	06H
	DB	06H
	DB	06H
	DB	06H
	DB	06H
	DB	06H
	DB	06H
	DB	06H
	DB	06H
	DB	06H
	DB	06H
	DB	06H
	DB	06H
	DB	06H
	DB	06H
	DB	06H
	DB	06H
	DB	06H
	DB	06H
	DB	06H
	DB	06H
	DB	06H
	DB	06H
	DB	06H
	DB	06H
	DB	06H
	DB	06H
	DB	06H
	DB	06H
	DB	06H
	DB	06H
	DB	06H
	DB	06H
	DB	06H
	DB	06H
	DB	06H
	DB	06H
	DB	06H
	DB	06H
	DB	06H
	DB	06H
	DB	06H
	DB	06H
	DB	06H
	DB	06H
	DB	06H
	DB	06H
	DB	06H
	DB	06H
	DB	06H
	DB	06H
	DB	06H
	DB	06H
	DB	06H
	DB	06H
	DB	06H
	DB	06H
	DB	06H
	DB	06H
	DB	06H
	DB	06H
	DB	06H
	DB	06H
	DB	06H
	DB	06H
	DB	06H
	DB	06H
	DB	06H
	DB	06H
	DB	06H
	DB	06H
	DB	06H
	DB	06H
	DB	06H
	DB	06H
	DB	06H
	DB	06H
	DB	06H
	DB	06H
	DB	06H
	DB	06H
	DB	06H
	DB	06H
	DB	06H
	DB	06H
	DB	06H
	DB	06H
	DB	06H
	DB	06H
	DB	06H
	DB	06H
	DB	06H
	DB	06H
	DB	06H
	DB	06H
	DB	06H
	DB	06H
	DB	06H
	DB	06H
	DB	06H
	DB	06H
	DB	06H
	DB	06H
	DB	06H
	DB	06H
	DB	06H
	DB	06H
	DB	06H
	DB	06H
	DB	06H
	DB	06H
	DB	06H
	DB	06H
	DB	06H
	DB	06H
	DB	06H
	DB	06H
	DB	06H
	DB	06H
	DB	06H
	DB	08H
	DB	08H
	DB	08H
	DB	08H
	DB	08H
	DB	08H
	DB	08H
	DB	08H
	DB	08H
	DB	08H
	DB	08H
	DB	08H
	DB	08H
	DB	08H
	DB	08H
	DB	08H
	DB	08H
	DB	08H
	DB	08H
	DB	08H
	DB	08H
	DB	08H
	DB	08H
	DB	08H
	DB	08H
	DB	08H
	DB	08H
	DB	08H
	DB	08H
	DB	08H
	DB	08H
	DB	08H
	DB	08H
	DB	08H
	DB	08H
	DB	08H
	DB	08H
	DB	08H
	DB	08H
	DB	08H
	DB	08H
	DB	08H
	DB	08H
	DB	08H
	DB	08H
	DB	08H
	DB	08H
	DB	08H
	DB	08H
	DB	08H
	DB	08H
	DB	08H
	DB	08H
	DB	08H
	DB	08H
	DB	08H
	DB	08H
	DB	08H
	DB	08H
	DB	08H
	DB	08H
	DB	08H
	DB	08H
	DB	038H
	DB	011H
	DB	011H
	DB	011H
	DB	011H
	DB	011H
	DB	08H
	DB	08H
	DB	08H
	DB	08H
	DB	08H
	DB	08H
	DB	08H
	DB	08H
	DB	08H
	DB	08H
	DB	08H
	DB	08H
	DB	08H
	DB	08H
	DB	08H
	DB	011H
	DB	011H
	DB	011H
	DB	011H
	DB	011H
	DB	011H
	DB	011H
	DB	011H
	DB	011H
	DB	011H
	DB	011H
	DB	011H
	DB	011H
	DB	011H
	DB	011H
	DB	08H
	DB	02fH
	DB	08H
	DB	08H
	DB	08H
	DB	08H
	DB	023H
	DB	011H
	DB	011H
	DB	011H
	DB	011H
	DB	011H
	DB	011H
	DB	011H
	DB	011H
	DB	011H
	DB	011H
	DB	011H
	DB	011H
	DB	011H
	DB	011H
	DB	011H
	DB	011H
	DB	038H
	DB	02fH
	DB	08H
	DB	08H
	DB	08H
	DB	08H
	DB	08H
	DB	08H
	DB	08H
	DB	02fH
	DB	02fH
	DB	023H
	DB	011H
	DB	011H
	DB	011H
	DB	011H
	DB	011H
	DB	011H
	DB	011H
	DB	011H
	DB	011H
	DB	011H
	DB	011H
	DB	011H
	DB	011H
	DB	011H
	DB	011H
	DB	038H
	DB	08H
	DB	08H
	DB	08H
	DB	08H
	DB	08H
	DB	08H
	DB	08H
	DB	02fH
	DB	0a8H
	DB	05fH
	DB	032H
	DB	04H
	DB	03fH
	DB	055H
	DB	09H
	DB	038H
	DB	08H
	DB	08H
	DB	0edH
	DB	02fH
	DB	08H
	DB	011H
	DB	011H
	DB	011H
	DB	011H
	DB	011H
	DB	011H
	DB	011H
	DB	011H
	DB	011H
	DB	023H
	DB	02fH
	DB	0edH
	DB	08H
	DB	08H
	DB	08H
	DB	08H
	DB	038H
	DB	011H
	DB	011H
	DB	011H
	DB	011H
	DB	011H
	DB	08H
	DB	08H
	DB	08H
	DB	08H
	DB	08H
	DB	08H
	DB	08H
	DB	08H
	DB	08H
	DB	08H
	DB	08H
	DB	08H
	DB	011H
	DB	011H
	DB	011H
	DB	011H
	DB	011H
	DB	023H
	DB	0edH
	DB	011H
	DB	011H
	DB	011H
	DB	011H
	DB	011H
	DB	011H
	DB	011H
	DB	011H
	DB	011H
	DB	011H
	DB	011H
	DB	011H
	DB	011H
	DB	011H
	DB	011H
	DB	023H
	DB	02fH
	DB	0edH
	DB	08H
	DB	08H
	DB	08H
	DB	08H
	DB	011H
	DB	011H
	DB	011H
	DB	011H
	DB	011H
	DB	08H
	DB	08H
	DB	08H
	DB	08H
	DB	08H
	DB	08H
	DB	08H
	DB	08H
	DB	08H
	DB	08H
	DB	08H
	DB	08H
	DB	08H
	DB	038H
	DB	023H
	DB	011H
	DB	011H
	DB	011H
	DB	011H
	DB	023H
	DB	02fH
	DB	011H
	DB	011H
	DB	011H
	DB	011H
	DB	011H
	DB	011H
	DB	011H
	DB	011H
	DB	011H
	DB	011H
	DB	011H
	DB	011H
	DB	011H
	DB	011H
	DB	011H
	DB	011H
	DB	011H
	DB	011H
	DB	011H
	DB	011H
	DB	011H
	DB	011H
	DB	011H
	DB	011H
	DB	011H
	DB	023H
	DB	08H
	DB	08H
	DB	08H
	DB	08H
	DB	08H
	DB	08H
	DB	08H
	DB	038H
	DB	011H
	DB	011H
	DB	011H
	DB	011H
	DB	011H
	DB	011H
	DB	011H
	DB	038H
	DB	08H
	DB	08H
	DB	08H
	DB	08H
	DB	08H
	DB	08H
	DB	08H
	DB	08H
	DB	08H
	DB	08H
	DB	08H
	DB	08H
	DB	08H
	DB	08H
	DB	08H
	DB	08H
	DB	08H
	DB	08H
	DB	08H
	DB	08H
	DB	08H
	DB	08H
	DB	08H
	DB	08H
	DB	08H
	DB	08H
	DB	08H
	DB	08H
	DB	08H
	DB	08H
	DB	08H
	DB	08H
	DB	08H
	DB	08H
	DB	08H
	DB	08H
	DB	08H
	DB	08H
	DB	08H
	DB	08H
	DB	08H
	DB	08H
	DB	08H
	DB	08H
	DB	08H
	DB	08H
	DB	08H
	DB	08H
	DB	08H
	DB	08H
	DB	08H
	DB	08H
	DB	08H
	DB	08H
	DB	08H
	DB	08H
	DB	08H
	DB	08H
	DB	08H
	DB	08H
	DB	08H
	DB	08H
	DB	08H
	DB	08H
	DB	08H
	DB	08H
	DB	08H
	DB	08H
	DB	08H
	DB	08H
	DB	08H
	DB	08H
	DB	08H
	DB	08H
	DB	08H
	DB	08H
	DB	08H
	DB	08H
	DB	08H
	DB	08H
	DB	08H
	DB	08H
	DB	08H
	DB	08H
	DB	08H
	DB	08H
	DB	08H
	DB	08H
	DB	08H
	DB	08H
	DB	08H
	DB	08H
	DB	08H
	DB	08H
	DB	08H
	DB	08H
	DB	08H
	DB	08H
	DB	08H
	DB	08H
	DB	08H
	DB	08H
	DB	08H
	DB	08H
	DB	08H
	DB	038H
	DB	0aaH
	DB	013H
	DB	028H
	DB	028H
	DB	028H
	DB	028H
	DB	0daH
	DB	08H
	DB	08H
	DB	08H
	DB	08H
	DB	08H
	DB	08H
	DB	08H
	DB	08H
	DB	08H
	DB	08H
	DB	08H
	DB	08H
	DB	08H
	DB	0d9H
	DB	028H
	DB	028H
	DB	028H
	DB	028H
	DB	028H
	DB	028H
	DB	028H
	DB	028H
	DB	028H
	DB	028H
	DB	028H
	DB	028H
	DB	028H
	DB	028H
	DB	013H
	DB	0d2H
	DB	04aH
	DB	011H
	DB	02fH
	DB	0edH
	DB	086H
	DB	053H
	DB	028H
	DB	028H
	DB	028H
	DB	028H
	DB	028H
	DB	028H
	DB	028H
	DB	028H
	DB	028H
	DB	028H
	DB	028H
	DB	028H
	DB	028H
	DB	028H
	DB	028H
	DB	084H
	DB	06dH
	DB	05bH
	DB	023H
	DB	02fH
	DB	08H
	DB	08H
	DB	08H
	DB	02fH
	DB	0e0H
	DB	0a9H
	DB	0eH
	DB	0dbH
	DB	028H
	DB	028H
	DB	028H
	DB	028H
	DB	028H
	DB	028H
	DB	028H
	DB	028H
	DB	028H
	DB	028H
	DB	028H
	DB	028H
	DB	028H
	DB	028H
	DB	028H
	DB	0aaH
	DB	038H
	DB	08H
	DB	08H
	DB	08H
	DB	08H
	DB	08H
	DB	0edH
	DB	011H
	DB	0a4H
	DB	069H
	DB	04H
	DB	015H
	DB	04H
	DB	073H
	DB	0a8H
	DB	0e8H
	DB	0edH
	DB	02fH
	DB	0deH
	DB	0a7H
	DB	0d6H
	DB	028H
	DB	028H
	DB	028H
	DB	028H
	DB	028H
	DB	028H
	DB	028H
	DB	028H
	DB	028H
	DB	053H
	DB	02dH
	DB	04cH
	DB	038H
	DB	0edH
	DB	08H
	DB	038H
	DB	0ddH
	DB	084H
	DB	028H
	DB	028H
	DB	028H
	DB	028H
	DB	0dcH
	DB	08H
	DB	08H
	DB	08H
	DB	08H
	DB	08H
	DB	08H
	DB	08H
	DB	08H
	DB	08H
	DB	02fH
	DB	010H
	DB	013H
	DB	028H
	DB	028H
	DB	028H
	DB	028H
	DB	0abH
	DB	085H
	DB	053H
	DB	028H
	DB	028H
	DB	028H
	DB	028H
	DB	028H
	DB	028H
	DB	028H
	DB	028H
	DB	028H
	DB	028H
	DB	028H
	DB	028H
	DB	028H
	DB	028H
	DB	0d7H
	DB	02dH
	DB	04dH
	DB	038H
	DB	0edH
	DB	0e8H
	DB	0d8H
	DB	028H
	DB	028H
	DB	028H
	DB	028H
	DB	028H
	DB	086H
	DB	02fH
	DB	08H
	DB	08H
	DB	08H
	DB	08H
	DB	08H
	DB	08H
	DB	08H
	DB	08H
	DB	08H
	DB	08H
	DB	02fH
	DB	086H
	DB	053H
	DB	028H
	DB	028H
	DB	028H
	DB	028H
	DB	0abH
	DB	0fH
	DB	084H
	DB	028H
	DB	028H
	DB	028H
	DB	028H
	DB	028H
	DB	028H
	DB	028H
	DB	028H
	DB	028H
	DB	028H
	DB	028H
	DB	028H
	DB	028H
	DB	028H
	DB	028H
	DB	028H
	DB	028H
	DB	028H
	DB	028H
	DB	028H
	DB	028H
	DB	028H
	DB	028H
	DB	028H
	DB	0dbH
	DB	06fH
	DB	02fH
	DB	08H
	DB	08H
	DB	08H
	DB	08H
	DB	02fH
	DB	0fH
	DB	053H
	DB	028H
	DB	028H
	DB	028H
	DB	028H
	DB	028H
	DB	0e7H
	DB	0dfH
	DB	038H
	DB	08H
	DB	08H
	DB	08H
	DB	08H
	DB	08H
	DB	08H
	DB	08H
	DB	08H
	DB	08H
	DB	08H
	DB	08H
	DB	08H
	DB	08H
	DB	08H
	DB	08H
	DB	08H
	DB	08H
	DB	08H
	DB	08H
	DB	08H
	DB	08H
	DB	08H
	DB	08H
	DB	08H
	DB	08H
	DB	08H
	DB	08H
	DB	08H
	DB	08H
	DB	08H
	DB	08H
	DB	08H
	DB	08H
	DB	08H
	DB	08H
	DB	08H
	DB	08H
	DB	08H
	DB	08H
	DB	08H
	DB	08H
	DB	08H
	DB	08H
	DB	08H
	DB	08H
	DB	08H
	DB	08H
	DB	08H
	DB	08H
	DB	08H
	DB	08H
	DB	08H
	DB	08H
	DB	08H
	DB	08H
	DB	08H
	DB	08H
	DB	08H
	DB	08H
	DB	08H
	DB	08H
	DB	08H
	DB	08H
	DB	08H
	DB	08H
	DB	08H
	DB	08H
	DB	08H
	DB	08H
	DB	08H
	DB	08H
	DB	08H
	DB	08H
	DB	08H
	DB	08H
	DB	08H
	DB	08H
	DB	08H
	DB	08H
	DB	08H
	DB	08H
	DB	08H
	DB	08H
	DB	08H
	DB	08H
	DB	08H
	DB	08H
	DB	08H
	DB	08H
	DB	08H
	DB	08H
	DB	08H
	DB	08H
	DB	08H
	DB	08H
	DB	08H
	DB	08H
	DB	08H
	DB	08H
	DB	08H
	DB	08H
	DB	08H
	DB	08H
	DB	08H
	DB	0deH
	DB	0e6H
	DB	069H
	DB	014H
	DB	014H
	DB	014H
	DB	0beH
	DB	089H
	DB	04dH
	DB	08H
	DB	08H
	DB	08H
	DB	08H
	DB	08H
	DB	08H
	DB	08H
	DB	08H
	DB	08H
	DB	08H
	DB	08H
	DB	04cH
	DB	0e9H
	DB	099H
	DB	014H
	DB	014H
	DB	014H
	DB	014H
	DB	014H
	DB	014H
	DB	014H
	DB	014H
	DB	014H
	DB	014H
	DB	014H
	DB	014H
	DB	014H
	DB	014H
	DB	061H
	DB	0f0H
	DB	0cfH
	DB	04cH
	DB	0e0H
	DB	053H
	DB	061H
	DB	025H
	DB	014H
	DB	014H
	DB	014H
	DB	014H
	DB	014H
	DB	014H
	DB	014H
	DB	014H
	DB	014H
	DB	014H
	DB	014H
	DB	014H
	DB	014H
	DB	014H
	DB	050H
	DB	060H
	DB	091H
	DB	06cH
	DB	0deH
	DB	02fH
	DB	08H
	DB	038H
	DB	04cH
	DB	0d5H
	DB	075H
	DB	0bbH
	DB	07cH
	DB	014H
	DB	014H
	DB	014H
	DB	014H
	DB	014H
	DB	014H
	DB	014H
	DB	014H
	DB	014H
	DB	014H
	DB	014H
	DB	014H
	DB	014H
	DB	014H
	DB	0bdH
	DB	0a2H
	DB	023H
	DB	08H
	DB	08H
	DB	08H
	DB	08H
	DB	08H
	DB	02fH
	DB	0a7H
	DB	093H
	DB	04H
	DB	03H
	DB	04H
	DB	04fH
	DB	07eH
	DB	0dH
	DB	0cH
	DB	06eH
	DB	0a6H
	DB	071H
	DB	077H
	DB	03cH
	DB	024H
	DB	014H
	DB	014H
	DB	014H
	DB	014H
	DB	014H
	DB	014H
	DB	014H
	DB	014H
	DB	00H
	DB	0b9H
	DB	0eaH
	DB	0d0H
	DB	023H
	DB	0edH
	DB	06eH
	DB	0b1H
	DB	050H
	DB	069H
	DB	014H
	DB	014H
	DB	03fH
	DB	073H
	DB	04cH
	DB	08H
	DB	08H
	DB	08H
	DB	08H
	DB	08H
	DB	08H
	DB	08H
	DB	08H
	DB	011H
	DB	0e2H
	DB	014H
	DB	014H
	DB	014H
	DB	014H
	DB	099H
	DB	0ecH
	DB	0a0H
	DB	0bcH
	DB	025H
	DB	014H
	DB	014H
	DB	014H
	DB	014H
	DB	014H
	DB	014H
	DB	014H
	DB	014H
	DB	014H
	DB	014H
	DB	014H
	DB	014H
	DB	014H
	DB	0f6H
	DB	01dH
	DB	071H
	DB	06dH
	DB	038H
	DB	04bH
	DB	093H
	DB	03fH
	DB	014H
	DB	014H
	DB	069H
	DB	096H
	DB	06cH
	DB	023H
	DB	08H
	DB	08H
	DB	08H
	DB	08H
	DB	08H
	DB	08H
	DB	08H
	DB	08H
	DB	08H
	DB	08H
	DB	0e0H
	DB	06cH
	DB	0bdH
	DB	024H
	DB	014H
	DB	014H
	DB	03fH
	DB	0b5H
	DB	0ccH
	DB	096H
	DB	025H
	DB	014H
	DB	014H
	DB	014H
	DB	014H
	DB	014H
	DB	014H
	DB	014H
	DB	014H
	DB	014H
	DB	014H
	DB	014H
	DB	014H
	DB	014H
	DB	014H
	DB	014H
	DB	014H
	DB	014H
	DB	024H
	DB	014H
	DB	014H
	DB	014H
	DB	014H
	DB	0f8H
	DB	0bbH
	DB	0d1H
	DB	08H
	DB	08H
	DB	08H
	DB	08H
	DB	02fH
	DB	04aH
	DB	08cH
	DB	0f8H
	DB	014H
	DB	014H
	DB	014H
	DB	014H
	DB	099H
	DB	0f1H
	DB	052H
	DB	08H
	DB	08H
	DB	08H
	DB	08H
	DB	08H
	DB	08H
	DB	08H
	DB	08H
	DB	08H
	DB	08H
	DB	08H
	DB	08H
	DB	08H
	DB	08H
	DB	08H
	DB	08H
	DB	08H
	DB	08H
	DB	08H
	DB	08H
	DB	08H
	DB	08H
	DB	08H
	DB	08H
	DB	08H
	DB	08H
	DB	08H
	DB	08H
	DB	08H
	DB	08H
	DB	08H
	DB	08H
	DB	08H
	DB	08H
	DB	08H
	DB	08H
	DB	08H
	DB	08H
	DB	08H
	DB	08H
	DB	08H
	DB	08H
	DB	08H
	DB	0e8H
	DB	0e8H
	DB	0e8H
	DB	0e8H
	DB	0e8H
	DB	0e8H
	DB	0e8H
	DB	0e8H
	DB	0e8H
	DB	0e8H
	DB	0e8H
	DB	0e8H
	DB	0e8H
	DB	0e8H
	DB	0e8H
	DB	0e8H
	DB	0e8H
	DB	0e8H
	DB	0e8H
	DB	0e8H
	DB	0e8H
	DB	0e8H
	DB	0e8H
	DB	0e8H
	DB	0e8H
	DB	0e8H
	DB	0e8H
	DB	0e8H
	DB	0e8H
	DB	0e8H
	DB	0e8H
	DB	0e8H
	DB	0e8H
	DB	0e8H
	DB	0e8H
	DB	0e8H
	DB	0e8H
	DB	0e8H
	DB	0e8H
	DB	0e8H
	DB	0e8H
	DB	0e8H
	DB	0e8H
	DB	0e8H
	DB	0e8H
	DB	0e8H
	DB	0e8H
	DB	0e8H
	DB	0e8H
	DB	0e8H
	DB	0e8H
	DB	0e8H
	DB	0e8H
	DB	0e8H
	DB	0e8H
	DB	0e8H
	DB	0e8H
	DB	0e8H
	DB	0e8H
	DB	0e8H
	DB	0e8H
	DB	08H
	DB	04aH
	DB	092H
	DB	04H
	DB	04H
	DB	04H
	DB	04H
	DB	015H
	DB	070H
	DB	0a9H
	DB	0cH
	DB	0e8H
	DB	0e8H
	DB	0e8H
	DB	0e8H
	DB	0e8H
	DB	0e8H
	DB	0e8H
	DB	0e8H
	DB	0e8H
	DB	08H
	DB	02dH
	DB	030H
	DB	04H
	DB	04H
	DB	04H
	DB	04H
	DB	04H
	DB	04H
	DB	04H
	DB	04H
	DB	04H
	DB	04H
	DB	04H
	DB	04H
	DB	04H
	DB	04H
	DB	04H
	DB	04H
	DB	04H
	DB	0beH
	DB	071H
	DB	06bH
	DB	0b1H
	DB	04H
	DB	04H
	DB	04H
	DB	04H
	DB	04H
	DB	04H
	DB	04H
	DB	04H
	DB	04H
	DB	04H
	DB	04H
	DB	04H
	DB	04H
	DB	04H
	DB	04H
	DB	04H
	DB	04H
	DB	04H
	DB	04H
	DB	07cH
	DB	0acH
	DB	04dH
	DB	038H
	DB	06aH
	DB	0b3H
	DB	014H
	DB	04H
	DB	04H
	DB	04H
	DB	04H
	DB	04H
	DB	04H
	DB	04H
	DB	04H
	DB	04H
	DB	04H
	DB	04H
	DB	04H
	DB	04H
	DB	04H
	DB	04H
	DB	04H
	DB	04H
	DB	095H
	DB	052H
	DB	054H
	DB	0cH
	DB	0e8H
	DB	0e8H
	DB	0e8H
	DB	0e8H
	DB	06eH
	DB	0acH
	DB	0fcH
	DB	04H
	DB	015H
	DB	015H
	DB	017H
	DB	01aH
	DB	09H
	DB	0a7H
	DB	0a5H
	DB	078H
	DB	04H
	DB	04H
	DB	04H
	DB	04H
	DB	04H
	DB	04H
	DB	04H
	DB	04H
	DB	04H
	DB	04H
	DB	04H
	DB	04H
	DB	04H
	DB	04H
	DB	04H
	DB	0f2H
	DB	052H
	DB	023H
	DB	05bH
	DB	047H
	DB	032H
	DB	04H
	DB	04H
	DB	04H
	DB	016H
	DB	087H
	DB	05bH
	DB	0cH
	DB	0e8H
	DB	0e8H
	DB	0e8H
	DB	0e8H
	DB	0e8H
	DB	0e8H
	DB	08H
	DB	04cH
	DB	0ebH
	DB	04H
	DB	04H
	DB	04H
	DB	04H
	DB	032H
	DB	087H
	DB	0aeH
	DB	015H
	DB	04H
	DB	04H
	DB	04H
	DB	04H
	DB	04H
	DB	04H
	DB	04H
	DB	04H
	DB	04H
	DB	04H
	DB	04H
	DB	04H
	DB	04H
	DB	04H
	DB	04H
	DB	04H
	DB	04H
	DB	012H
	DB	06dH
	DB	05H
	DB	061H
	DB	04H
	DB	04H
	DB	04H
	DB	04H
	DB	058H
	DB	052H
	DB	054H
	DB	0e8H
	DB	0e8H
	DB	0e8H
	DB	0e8H
	DB	0e8H
	DB	0e8H
	DB	0e8H
	DB	0e8H
	DB	0e8H
	DB	0e8H
	DB	04dH
	DB	0e5H
	DB	04H
	DB	04H
	DB	04H
	DB	04H
	DB	032H
	DB	041H
	DB	088H
	DB	04H
	DB	04H
	DB	04H
	DB	04H
	DB	04H
	DB	04H
	DB	04H
	DB	04H
	DB	04H
	DB	04H
	DB	04H
	DB	04H
	DB	04H
	DB	04H
	DB	04H
	DB	04H
	DB	04H
	DB	04H
	DB	04H
	DB	04H
	DB	04H
	DB	04H
	DB	04H
	DB	04H
	DB	04H
	DB	04H
	DB	071H
	DB	05bH
	DB	0e8H
	DB	0e8H
	DB	08H
	DB	04dH
	DB	070H
	DB	03fH
	DB	04H
	DB	04H
	DB	04H
	DB	04H
	DB	032H
	DB	060H
	DB	09fH
	DB	04bH
	DB	06fH
	DB	0e8H
	DB	0e8H
	DB	0e8H
	DB	0e8H
	DB	0e8H
	DB	0e8H
	DB	0e8H
	DB	0e8H
	DB	0e8H
	DB	0e8H
	DB	0e8H
	DB	0e8H
	DB	0e8H
	DB	0e8H
	DB	0e8H
	DB	0e8H
	DB	0e8H
	DB	0e8H
	DB	0e8H
	DB	0e8H
	DB	0e8H
	DB	0e8H
	DB	0e8H
	DB	0e8H
	DB	0e8H
	DB	0e8H
	DB	0e8H
	DB	0e8H
	DB	0e8H
	DB	0e8H
	DB	0e8H
	DB	0e8H
	DB	0e8H
	DB	0e8H
	DB	0e8H
	DB	0e8H
	DB	0e8H
	DB	0e8H
	DB	0e8H
	DB	0e8H
	DB	0e8H
	DB	0e8H
	DB	0cH
	DB	0cH
	DB	0cH
	DB	0cH
	DB	0cH
	DB	0cH
	DB	0cH
	DB	0cH
	DB	0cH
	DB	0cH
	DB	0cH
	DB	0cH
	DB	0cH
	DB	0cH
	DB	0cH
	DB	0cH
	DB	0cH
	DB	0cH
	DB	0cH
	DB	0cH
	DB	0cH
	DB	0cH
	DB	0cH
	DB	0cH
	DB	0cH
	DB	0cH
	DB	0cH
	DB	0cH
	DB	0cH
	DB	0cH
	DB	0cH
	DB	0cH
	DB	0cH
	DB	0cH
	DB	0cH
	DB	0cH
	DB	0cH
	DB	0cH
	DB	0cH
	DB	0cH
	DB	0cH
	DB	0cH
	DB	0cH
	DB	0cH
	DB	0cH
	DB	0cH
	DB	0cH
	DB	0cH
	DB	0cH
	DB	0cH
	DB	0cH
	DB	0cH
	DB	0cH
	DB	0cH
	DB	0cH
	DB	0cH
	DB	0cH
	DB	0cH
	DB	0cH
	DB	0cH
	DB	0cH
	DB	08H
	DB	02cH
	DB	042H
	DB	04H
	DB	03H
	DB	03H
	DB	04H
	DB	03cH
	DB	09fH
	DB	02dH
	DB	06H
	DB	0cH
	DB	0cH
	DB	0cH
	DB	0cH
	DB	0cH
	DB	0cH
	DB	0cH
	DB	0cH
	DB	0cH
	DB	08H
	DB	05H
	DB	060H
	DB	04H
	DB	03H
	DB	03H
	DB	03H
	DB	03H
	DB	03H
	DB	03H
	DB	03H
	DB	03H
	DB	03H
	DB	03H
	DB	03H
	DB	03H
	DB	03H
	DB	03H
	DB	03H
	DB	03H
	DB	04H
	DB	03fH
	DB	0ceH
	DB	0b4H
	DB	04H
	DB	03H
	DB	03H
	DB	03H
	DB	03H
	DB	03H
	DB	03H
	DB	03H
	DB	03H
	DB	03H
	DB	03H
	DB	03H
	DB	03H
	DB	03H
	DB	03H
	DB	03H
	DB	03H
	DB	03H
	DB	03H
	DB	04H
	DB	061H
	DB	0c9H
	DB	080H
	DB	074H
	DB	015H
	DB	04H
	DB	03H
	DB	03H
	DB	03H
	DB	03H
	DB	03H
	DB	03H
	DB	03H
	DB	03H
	DB	03H
	DB	03H
	DB	03H
	DB	03H
	DB	03H
	DB	03H
	DB	03H
	DB	03H
	DB	04H
	DB	048H
	DB	0bH
	DB	083H
	DB	0cH
	DB	0cH
	DB	0cH
	DB	0cH
	DB	0e8H
	DB	02cH
	DB	048H
	DB	04H
	DB	03H
	DB	04H
	DB	068H
	DB	0c1H
	DB	034H
	DB	06aH
	DB	087H
	DB	025H
	DB	04H
	DB	015H
	DB	03H
	DB	03H
	DB	03H
	DB	03H
	DB	03H
	DB	03H
	DB	03H
	DB	03H
	DB	03H
	DB	03H
	DB	03H
	DB	03H
	DB	03H
	DB	015H
	DB	04H
	DB	075H
	DB	04aH
	DB	04bH
	DB	030H
	DB	04H
	DB	03H
	DB	03H
	DB	04H
	DB	03eH
	DB	09fH
	DB	02dH
	DB	06H
	DB	0cH
	DB	0cH
	DB	0cH
	DB	0cH
	DB	0cH
	DB	0cH
	DB	08H
	DB	0c5H
	DB	056H
	DB	04H
	DB	03H
	DB	03H
	DB	04H
	DB	031H
	DB	02aH
	DB	08dH
	DB	04H
	DB	015H
	DB	03H
	DB	03H
	DB	03H
	DB	03H
	DB	03H
	DB	03H
	DB	03H
	DB	03H
	DB	03H
	DB	03H
	DB	03H
	DB	03H
	DB	03H
	DB	03H
	DB	03H
	DB	015H
	DB	04H
	DB	0b5H
	DB	045H
	DB	025H
	DB	04H
	DB	03H
	DB	03H
	DB	032H
	DB	05fH
	DB	09bH
	DB	0fH
	DB	0cH
	DB	0cH
	DB	0cH
	DB	0cH
	DB	0cH
	DB	0cH
	DB	0cH
	DB	0cH
	DB	0cH
	DB	08H
	DB	0a8H
	DB	0eeH
	DB	04H
	DB	03H
	DB	03H
	DB	015H
	DB	04H
	DB	035H
	DB	047H
	DB	032H
	DB	03H
	DB	03H
	DB	03H
	DB	03H
	DB	03H
	DB	03H
	DB	03H
	DB	03H
	DB	03H
	DB	03H
	DB	03H
	DB	03H
	DB	03H
	DB	03H
	DB	03H
	DB	03H
	DB	03H
	DB	04H
	DB	012H
	DB	026H
	DB	015H
	DB	03H
	DB	03H
	DB	03H
	DB	04H
	DB	012H
	DB	034H
	DB	06fH
	DB	0e8H
	DB	06eH
	DB	0a3H
	DB	060H
	DB	04H
	DB	03H
	DB	03H
	DB	03H
	DB	04H
	DB	07bH
	DB	09eH
	DB	09bH
	DB	0dH
	DB	010H
	DB	0cH
	DB	0cH
	DB	0cH
	DB	0cH
	DB	0cH
	DB	0cH
	DB	0cH
	DB	0cH
	DB	0cH
	DB	0cH
	DB	0cH
	DB	0cH
	DB	0cH
	DB	0cH
	DB	0cH
	DB	0cH
	DB	0cH
	DB	0cH
	DB	0cH
	DB	0cH
	DB	0cH
	DB	0cH
	DB	0cH
	DB	0cH
	DB	0cH
	DB	0cH
	DB	0cH
	DB	0cH
	DB	0cH
	DB	0cH
	DB	0cH
	DB	0cH
	DB	0cH
	DB	0cH
	DB	0cH
	DB	0cH
	DB	0cH
	DB	0cH
	DB	0cH
	DB	0cH
	DB	0cH
	DB	0cH
	DB	06fH
	DB	06fH
	DB	06fH
	DB	06fH
	DB	06fH
	DB	06fH
	DB	06fH
	DB	06fH
	DB	06fH
	DB	06fH
	DB	06fH
	DB	06fH
	DB	06fH
	DB	06fH
	DB	06fH
	DB	06fH
	DB	06fH
	DB	06fH
	DB	06fH
	DB	06fH
	DB	06fH
	DB	06fH
	DB	06fH
	DB	06fH
	DB	06fH
	DB	06fH
	DB	06fH
	DB	06fH
	DB	06fH
	DB	06fH
	DB	06fH
	DB	06fH
	DB	06fH
	DB	06fH
	DB	06fH
	DB	06fH
	DB	06fH
	DB	06fH
	DB	06fH
	DB	06fH
	DB	06fH
	DB	06fH
	DB	06fH
	DB	06fH
	DB	06fH
	DB	06fH
	DB	06fH
	DB	06fH
	DB	06fH
	DB	06fH
	DB	06fH
	DB	06fH
	DB	06fH
	DB	06fH
	DB	06fH
	DB	06fH
	DB	06fH
	DB	06fH
	DB	06fH
	DB	06fH
	DB	06fH
	DB	054H
	DB	0d5H
	DB	03dH
	DB	04H
	DB	03H
	DB	03H
	DB	04H
	DB	042H
	DB	0c1H
	DB	0dH
	DB	06H
	DB	06fH
	DB	06fH
	DB	06fH
	DB	06fH
	DB	06fH
	DB	06fH
	DB	06fH
	DB	06fH
	DB	06fH
	DB	054H
	DB	0a5H
	DB	097H
	DB	04H
	DB	04H
	DB	04H
	DB	04H
	DB	04H
	DB	04H
	DB	04H
	DB	04H
	DB	04H
	DB	04H
	DB	04H
	DB	04H
	DB	04H
	DB	04H
	DB	03H
	DB	03H
	DB	03H
	DB	03H
	DB	032H
	DB	0b7H
	DB	020H
	DB	04H
	DB	03H
	DB	03H
	DB	03H
	DB	04H
	DB	04H
	DB	04H
	DB	04H
	DB	04H
	DB	04H
	DB	04H
	DB	04H
	DB	04H
	DB	04H
	DB	04H
	DB	015H
	DB	03H
	DB	03H
	DB	03H
	DB	03H
	DB	04H
	DB	066H
	DB	0b0H
	DB	015H
	DB	04H
	DB	03H
	DB	03H
	DB	015H
	DB	04H
	DB	04H
	DB	04H
	DB	04H
	DB	04H
	DB	04H
	DB	04H
	DB	04H
	DB	04H
	DB	04H
	DB	04H
	DB	04H
	DB	04H
	DB	04H
	DB	032H
	DB	08eH
	DB	039H
	DB	083H
	DB	06fH
	DB	06fH
	DB	06fH
	DB	06fH
	DB	04dH
	DB	070H
	DB	016H
	DB	015H
	DB	015H
	DB	04H
	DB	064H
	DB	01aH
	DB	02cH
	DB	0a4H
	DB	024H
	DB	04H
	DB	03H
	DB	03H
	DB	03H
	DB	04H
	DB	04H
	DB	04H
	DB	04H
	DB	04H
	DB	04H
	DB	04H
	DB	04H
	DB	04H
	DB	03H
	DB	03H
	DB	03H
	DB	03H
	DB	04H
	DB	025H
	DB	0a1H
	DB	052H
	DB	03cH
	DB	04H
	DB	03H
	DB	03H
	DB	04H
	DB	079H
	DB	0c1H
	DB	0dH
	DB	06H
	DB	06fH
	DB	06fH
	DB	06fH
	DB	06fH
	DB	06fH
	DB	06fH
	DB	06fH
	DB	0a6H
	DB	0b9H
	DB	04H
	DB	03H
	DB	03H
	DB	04H
	DB	021H
	DB	07dH
	DB	030H
	DB	032H
	DB	04H
	DB	04H
	DB	04H
	DB	04H
	DB	04H
	DB	04H
	DB	04H
	DB	04H
	DB	04H
	DB	04H
	DB	04H
	DB	04H
	DB	04H
	DB	015H
	DB	03H
	DB	03H
	DB	03H
	DB	04H
	DB	03dH
	DB	0b4H
	DB	03H
	DB	015H
	DB	03H
	DB	015H
	DB	04H
	DB	08cH
	DB	01aH
	DB	0fH
	DB	06fH
	DB	06fH
	DB	06fH
	DB	06fH
	DB	06fH
	DB	06fH
	DB	06fH
	DB	06fH
	DB	06fH
	DB	0cH
	DB	06aH
	DB	077H
	DB	04H
	DB	03H
	DB	03H
	DB	04H
	DB	03dH
	DB	02aH
	DB	022H
	DB	04H
	DB	03H
	DB	03H
	DB	03H
	DB	04H
	DB	04H
	DB	04H
	DB	04H
	DB	04H
	DB	04H
	DB	04H
	DB	04H
	DB	04H
	DB	04H
	DB	04H
	DB	04H
	DB	04H
	DB	04H
	DB	059H
	DB	082H
	DB	012H
	DB	04H
	DB	03H
	DB	03H
	DB	03H
	DB	04H
	DB	025H
	DB	045H
	DB	085H
	DB	06fH
	DB	044H
	DB	0f2H
	DB	032H
	DB	03H
	DB	03H
	DB	03H
	DB	04H
	DB	03eH
	DB	035H
	DB	039H
	DB	034H
	DB	083H
	DB	06H
	DB	06fH
	DB	06fH
	DB	06fH
	DB	06fH
	DB	06fH
	DB	06fH
	DB	06fH
	DB	06fH
	DB	06fH
	DB	06fH
	DB	06fH
	DB	06fH
	DB	06fH
	DB	06fH
	DB	06fH
	DB	06fH
	DB	06fH
	DB	06fH
	DB	06fH
	DB	06fH
	DB	06fH
	DB	06fH
	DB	06fH
	DB	06fH
	DB	06fH
	DB	06fH
	DB	06fH
	DB	06fH
	DB	06fH
	DB	06fH
	DB	06fH
	DB	06fH
	DB	06fH
	DB	06fH
	DB	06fH
	DB	06fH
	DB	06fH
	DB	06fH
	DB	06fH
	DB	06fH
	DB	06fH
	DB	06fH
	DB	06H
	DB	06H
	DB	06H
	DB	06H
	DB	06H
	DB	06H
	DB	06H
	DB	06H
	DB	06H
	DB	06H
	DB	06H
	DB	06H
	DB	06H
	DB	06H
	DB	06H
	DB	06H
	DB	06H
	DB	06H
	DB	06H
	DB	06H
	DB	06H
	DB	06H
	DB	06H
	DB	06H
	DB	06H
	DB	06H
	DB	06H
	DB	06H
	DB	06H
	DB	06H
	DB	06H
	DB	06H
	DB	06H
	DB	06H
	DB	06H
	DB	06H
	DB	06H
	DB	06H
	DB	06H
	DB	06H
	DB	06H
	DB	06H
	DB	06H
	DB	06H
	DB	06H
	DB	06H
	DB	06H
	DB	06H
	DB	06H
	DB	06H
	DB	06H
	DB	06H
	DB	06H
	DB	06H
	DB	06H
	DB	06H
	DB	06H
	DB	06H
	DB	06H
	DB	06H
	DB	06H
	DB	04cH
	DB	0acH
	DB	03H
	DB	015H
	DB	03H
	DB	03H
	DB	04H
	DB	055H
	DB	039H
	DB	09H
	DB	06H
	DB	06H
	DB	06H
	DB	06H
	DB	06H
	DB	06H
	DB	06H
	DB	06H
	DB	06H
	DB	06H
	DB	04cH
	DB	0e3H
	DB	0baH
	DB	019H
	DB	019H
	DB	019H
	DB	019H
	DB	019H
	DB	019H
	DB	019H
	DB	019H
	DB	019H
	DB	019H
	DB	019H
	DB	019H
	DB	019H
	DB	0fdH
	DB	015H
	DB	03H
	DB	03H
	DB	03H
	DB	04H
	DB	021H
	DB	0f7H
	DB	04H
	DB	03H
	DB	03H
	DB	04H
	DB	0f7H
	DB	019H
	DB	019H
	DB	019H
	DB	019H
	DB	019H
	DB	019H
	DB	019H
	DB	019H
	DB	04fH
	DB	07aH
	DB	059H
	DB	015H
	DB	03H
	DB	03H
	DB	03H
	DB	04H
	DB	020H
	DB	095H
	DB	04H
	DB	03H
	DB	03H
	DB	03H
	DB	04H
	DB	043H
	DB	019H
	DB	019H
	DB	019H
	DB	019H
	DB	019H
	DB	019H
	DB	019H
	DB	019H
	DB	019H
	DB	019H
	DB	019H
	DB	019H
	DB	019H
	DB	04fH
	DB	063H
	DB	01bH
	DB	0fH
	DB	06H
	DB	06H
	DB	06H
	DB	06fH
	DB	05H
	DB	022H
	DB	04H
	DB	03H
	DB	04H
	DB	022H
	DB	0c1H
	DB	034H
	DB	0c3H
	DB	057H
	DB	04H
	DB	03H
	DB	03H
	DB	03H
	DB	04H
	DB	026H
	DB	021H
	DB	058H
	DB	019H
	DB	019H
	DB	019H
	DB	019H
	DB	019H
	DB	024H
	DB	04H
	DB	03H
	DB	03H
	DB	03H
	DB	015H
	DB	04H
	DB	070H
	DB	045H
	DB	03H
	DB	015H
	DB	03H
	DB	03H
	DB	04H
	DB	05eH
	DB	01aH
	DB	0d3H
	DB	06H
	DB	06H
	DB	06H
	DB	06H
	DB	06H
	DB	06H
	DB	06H
	DB	04dH
	DB	0a4H
	DB	014H
	DB	04H
	DB	03H
	DB	03H
	DB	04H
	DB	012H
	DB	018H
	DB	012H
	DB	021H
	DB	019H
	DB	019H
	DB	019H
	DB	019H
	DB	019H
	DB	019H
	DB	019H
	DB	019H
	DB	019H
	DB	019H
	DB	019H
	DB	04fH
	DB	0f5H
	DB	015H
	DB	03H
	DB	03H
	DB	03H
	DB	04H
	DB	069H
	DB	021H
	DB	04H
	DB	03H
	DB	03H
	DB	04H
	DB	026H
	DB	036H
	DB	01bH
	DB	0fH
	DB	06H
	DB	06H
	DB	06H
	DB	06H
	DB	06H
	DB	06H
	DB	06H
	DB	06H
	DB	06H
	DB	054H
	DB	0a3H
	DB	061H
	DB	04H
	DB	03H
	DB	03H
	DB	04H
	DB	042H
	DB	033H
	DB	024H
	DB	04H
	DB	03H
	DB	03H
	DB	015H
	DB	024H
	DB	019H
	DB	019H
	DB	019H
	DB	019H
	DB	019H
	DB	019H
	DB	019H
	DB	019H
	DB	019H
	DB	019H
	DB	019H
	DB	019H
	DB	021H
	DB	077H
	DB	07dH
	DB	017H
	DB	015H
	DB	04H
	DB	03H
	DB	03H
	DB	03H
	DB	04H
	DB	072H
	DB	06bH
	DB	02cH
	DB	047H
	DB	04H
	DB	015H
	DB	03H
	DB	03H
	DB	04H
	DB	0fdH
	DB	063H
	DB	018H
	DB	0aH
	DB	09H
	DB	010H
	DB	06H
	DB	06H
	DB	06H
	DB	06H
	DB	06H
	DB	06H
	DB	06H
	DB	06H
	DB	06H
	DB	06H
	DB	06H
	DB	06H
	DB	06H
	DB	06H
	DB	06H
	DB	06H
	DB	06H
	DB	06H
	DB	06H
	DB	06H
	DB	06H
	DB	06H
	DB	06H
	DB	06H
	DB	06H
	DB	06H
	DB	06H
	DB	06H
	DB	06H
	DB	06H
	DB	06H
	DB	06H
	DB	06H
	DB	06H
	DB	06H
	DB	06H
	DB	06H
	DB	06H
	DB	06H
	DB	06H
	DB	06H
	DB	06H
	DB	06H
	DB	010H
	DB	010H
	DB	010H
	DB	010H
	DB	010H
	DB	010H
	DB	010H
	DB	010H
	DB	010H
	DB	010H
	DB	010H
	DB	010H
	DB	010H
	DB	010H
	DB	010H
	DB	010H
	DB	010H
	DB	010H
	DB	010H
	DB	010H
	DB	010H
	DB	010H
	DB	010H
	DB	010H
	DB	010H
	DB	010H
	DB	010H
	DB	010H
	DB	010H
	DB	010H
	DB	010H
	DB	010H
	DB	010H
	DB	010H
	DB	010H
	DB	010H
	DB	010H
	DB	010H
	DB	010H
	DB	010H
	DB	010H
	DB	010H
	DB	010H
	DB	010H
	DB	010H
	DB	010H
	DB	010H
	DB	010H
	DB	010H
	DB	010H
	DB	010H
	DB	010H
	DB	010H
	DB	010H
	DB	010H
	DB	010H
	DB	010H
	DB	010H
	DB	010H
	DB	010H
	DB	010H
	DB	0a8H
	DB	072H
	DB	04H
	DB	03H
	DB	03H
	DB	015H
	DB	04H
	DB	088H
	DB	09bH
	DB	09H
	DB	010H
	DB	010H
	DB	010H
	DB	010H
	DB	010H
	DB	010H
	DB	010H
	DB	010H
	DB	010H
	DB	010H
	DB	010H
	DB	0d4H
	DB	0aH
	DB	0bH
	DB	07eH
	DB	07eH
	DB	07eH
	DB	07eH
	DB	07eH
	DB	07eH
	DB	07eH
	DB	07eH
	DB	07eH
	DB	07eH
	DB	07eH
	DB	0c1H
	DB	017H
	DB	026H
	DB	04H
	DB	03H
	DB	03H
	DB	015H
	DB	031H
	DB	016H
	DB	015H
	DB	03H
	DB	03H
	DB	032H
	DB	04eH
	DB	02H
	DB	07H
	DB	07eH
	DB	07eH
	DB	07eH
	DB	07eH
	DB	07eH
	DB	07eH
	DB	07H
	DB	0c1H
	DB	091H
	DB	04H
	DB	03H
	DB	03H
	DB	03H
	DB	015H
	DB	0f9H
	DB	059H
	DB	03H
	DB	03H
	DB	03H
	DB	04H
	DB	076H
	DB	07fH
	DB	07H
	DB	07eH
	DB	07eH
	DB	07eH
	DB	07eH
	DB	07eH
	DB	07eH
	DB	07eH
	DB	07eH
	DB	07eH
	DB	07eH
	DB	07eH
	DB	07eH
	DB	07H
	DB	07eH
	DB	05H
	DB	0fH
	DB	010H
	DB	010H
	DB	010H
	DB	0a8H
	DB	0e4H
	DB	015H
	DB	015H
	DB	04H
	DB	026H
	DB	0cbH
	DB	01aH
	DB	037H
	DB	0a4H
	DB	097H
	DB	04H
	DB	03H
	DB	03H
	DB	04H
	DB	07bH
	DB	0cbH
	DB	0c1H
	DB	07H
	DB	07H
	DB	07eH
	DB	07eH
	DB	07eH
	DB	07H
	DB	081H
	DB	049H
	DB	04H
	DB	03H
	DB	03H
	DB	015H
	DB	04H
	DB	0cdH
	DB	0e6H
	DB	04H
	DB	015H
	DB	03H
	DB	03H
	DB	04H
	DB	05cH
	DB	01aH
	DB	09H
	DB	010H
	DB	010H
	DB	010H
	DB	010H
	DB	010H
	DB	010H
	DB	010H
	DB	05bH
	DB	0aeH
	DB	04H
	DB	015H
	DB	03H
	DB	03H
	DB	04H
	DB	047H
	DB	039H
	DB	0aH
	DB	0bH
	DB	07eH
	DB	07eH
	DB	07eH
	DB	07eH
	DB	07eH
	DB	07eH
	DB	07eH
	DB	07eH
	DB	07eH
	DB	07eH
	DB	07eH
	DB	07H
	DB	027H
	DB	079H
	DB	04H
	DB	03H
	DB	03H
	DB	015H
	DB	016H
	DB	031H
	DB	015H
	DB	03H
	DB	03H
	DB	04H
	DB	03eH
	DB	07fH
	DB	034H
	DB	0fH
	DB	010H
	DB	010H
	DB	010H
	DB	010H
	DB	010H
	DB	010H
	DB	010H
	DB	010H
	DB	010H
	DB	0a9H
	DB	0e1H
	DB	016H
	DB	04H
	DB	03H
	DB	03H
	DB	04H
	DB	0b5H
	DB	09eH
	DB	04H
	DB	015H
	DB	03H
	DB	03H
	DB	04H
	DB	075H
	DB	018H
	DB	07H
	DB	07eH
	DB	07eH
	DB	07eH
	DB	07eH
	DB	07eH
	DB	07eH
	DB	07eH
	DB	07eH
	DB	07eH
	DB	07eH
	DB	07eH
	DB	07H
	DB	0bH
	DB	0bH
	DB	01dH
	DB	04H
	DB	03H
	DB	03H
	DB	03H
	DB	04H
	DB	057H
	DB	039H
	DB	0afH
	DB	016H
	DB	04H
	DB	03H
	DB	03H
	DB	04H
	DB	09aH
	DB	02eH
	DB	018H
	DB	0c3H
	DB	06dH
	DB	085H
	DB	010H
	DB	010H
	DB	010H
	DB	010H
	DB	010H
	DB	010H
	DB	010H
	DB	010H
	DB	010H
	DB	010H
	DB	010H
	DB	010H
	DB	010H
	DB	010H
	DB	010H
	DB	010H
	DB	010H
	DB	010H
	DB	010H
	DB	010H
	DB	010H
	DB	010H
	DB	010H
	DB	010H
	DB	010H
	DB	010H
	DB	010H
	DB	010H
	DB	010H
	DB	010H
	DB	010H
	DB	010H
	DB	010H
	DB	010H
	DB	010H
	DB	010H
	DB	010H
	DB	010H
	DB	010H
	DB	010H
	DB	010H
	DB	010H
	DB	010H
	DB	010H
	DB	0fH
	DB	0fH
	DB	0fH
	DB	0fH
	DB	0fH
	DB	0fH
	DB	0fH
	DB	0fH
	DB	0fH
	DB	0fH
	DB	0fH
	DB	0fH
	DB	0fH
	DB	0fH
	DB	0fH
	DB	0fH
	DB	0fH
	DB	0fH
	DB	0fH
	DB	0fH
	DB	0fH
	DB	0fH
	DB	0fH
	DB	0fH
	DB	0fH
	DB	0fH
	DB	0fH
	DB	0fH
	DB	0fH
	DB	0fH
	DB	0fH
	DB	0fH
	DB	0fH
	DB	0fH
	DB	0fH
	DB	0fH
	DB	0fH
	DB	0fH
	DB	0fH
	DB	0fH
	DB	0fH
	DB	0fH
	DB	0fH
	DB	0fH
	DB	0fH
	DB	0fH
	DB	0fH
	DB	0fH
	DB	0fH
	DB	0fH
	DB	0fH
	DB	0fH
	DB	0fH
	DB	0fH
	DB	0fH
	DB	0fH
	DB	0fH
	DB	0fH
	DB	0fH
	DB	0fH
	DB	085H
	DB	09dH
	DB	093H
	DB	04H
	DB	03H
	DB	03H
	DB	015H
	DB	0bfH
	DB	09eH
	DB	0c3H
	DB	09H
	DB	0fH
	DB	0fH
	DB	0fH
	DB	0fH
	DB	0fH
	DB	0fH
	DB	0fH
	DB	0fH
	DB	0fH
	DB	0fH
	DB	0fH
	DB	085H
	DB	083H
	DB	037H
	DB	044H
	DB	01bH
	DB	01bH
	DB	01bH
	DB	01bH
	DB	01bH
	DB	01bH
	DB	01bH
	DB	01bH
	DB	01bH
	DB	01bH
	DB	062H
	DB	081H
	DB	069H
	DB	04H
	DB	03H
	DB	03H
	DB	03H
	DB	015H
	DB	015H
	DB	03H
	DB	03H
	DB	015H
	DB	04H
	DB	067H
	DB	018H
	DB	0aH
	DB	0aH
	DB	0aH
	DB	0aH
	DB	0aH
	DB	0aH
	DB	0aH
	DB	034H
	DB	09bH
	DB	087H
	DB	04H
	DB	015H
	DB	03H
	DB	03H
	DB	015H
	DB	016H
	DB	03H
	DB	03H
	DB	03H
	DB	04H
	DB	03H
	DB	0cbH
	DB	018H
	DB	09bH
	DB	01bH
	DB	01bH
	DB	01bH
	DB	01bH
	DB	01bH
	DB	01bH
	DB	01bH
	DB	01bH
	DB	0c3H
	DB	044H
	DB	034H
	DB	0aH
	DB	0aH
	DB	034H
	DB	06dH
	DB	0fH
	DB	0fH
	DB	0fH
	DB	085H
	DB	0aH
	DB	042H
	DB	04H
	DB	03H
	DB	04H
	DB	076H
	DB	018H
	DB	0aH
	DB	044H
	DB	073H
	DB	04H
	DB	015H
	DB	03H
	DB	015H
	DB	04H
	DB	066H
	DB	018H
	DB	0bH
	DB	0aH
	DB	0aH
	DB	0aH
	DB	0aH
	DB	0aH
	DB	034H
	DB	01aH
	DB	030H
	DB	04H
	DB	03H
	DB	03H
	DB	04H
	DB	0f7H
	DB	01cH
	DB	04eH
	DB	04H
	DB	03H
	DB	03H
	DB	04H
	DB	026H
	DB	03aH
	DB	09bH
	DB	09H
	DB	0fH
	DB	0fH
	DB	0fH
	DB	0fH
	DB	0fH
	DB	0fH
	DB	085H
	DB	02cH
	DB	0b4H
	DB	04H
	DB	03H
	DB	03H
	DB	015H
	DB	04H
	DB	029H
	DB	09bH
	DB	0dH
	DB	02dH
	DB	09dH
	DB	01bH
	DB	01bH
	DB	01bH
	DB	01bH
	DB	01bH
	DB	01bH
	DB	01bH
	DB	01bH
	DB	01bH
	DB	01bH
	DB	01bH
	DB	039H
	DB	0f0H
	DB	04H
	DB	03H
	DB	03H
	DB	03H
	DB	015H
	DB	015H
	DB	03H
	DB	03H
	DB	03H
	DB	04H
	DB	068H
	DB	0c1H
	DB	0a6H
	DB	083H
	DB	0fH
	DB	0fH
	DB	0fH
	DB	0fH
	DB	0fH
	DB	0fH
	DB	0fH
	DB	0fH
	DB	085H
	DB	0a7H
	DB	041H
	DB	04H
	DB	03H
	DB	03H
	DB	015H
	DB	04H
	DB	0afH
	DB	072H
	DB	04H
	DB	015H
	DB	03H
	DB	015H
	DB	04H
	DB	029H
	DB	018H
	DB	09bH
	DB	01bH
	DB	01bH
	DB	01bH
	DB	01bH
	DB	01bH
	DB	01bH
	DB	01bH
	DB	01bH
	DB	044H
	DB	0aH
	DB	0aH
	DB	0aH
	DB	05H
	DB	0c4H
	DB	089H
	DB	04H
	DB	015H
	DB	03H
	DB	03H
	DB	04H
	DB	03eH
	DB	017H
	DB	03cH
	DB	04H
	DB	03H
	DB	03H
	DB	04H
	DB	015H
	DB	08aH
	DB	018H
	DB	0bH
	DB	0a6H
	DB	083H
	DB	0fH
	DB	0fH
	DB	0fH
	DB	0fH
	DB	0fH
	DB	0fH
	DB	0fH
	DB	0fH
	DB	0fH
	DB	0fH
	DB	0fH
	DB	0fH
	DB	0fH
	DB	0fH
	DB	0fH
	DB	0fH
	DB	0fH
	DB	0fH
	DB	0fH
	DB	0fH
	DB	0fH
	DB	0fH
	DB	0fH
	DB	0fH
	DB	0fH
	DB	0fH
	DB	0fH
	DB	0fH
	DB	0fH
	DB	0fH
	DB	0fH
	DB	0fH
	DB	0fH
	DB	0fH
	DB	0fH
	DB	0fH
	DB	0fH
	DB	0fH
	DB	0fH
	DB	0fH
	DB	0fH
	DB	0fH
	DB	0fH
	DB	0fH
	DB	0fH
	DB	083H
	DB	083H
	DB	083H
	DB	083H
	DB	083H
	DB	083H
	DB	083H
	DB	083H
	DB	083H
	DB	083H
	DB	083H
	DB	083H
	DB	083H
	DB	083H
	DB	083H
	DB	083H
	DB	083H
	DB	083H
	DB	083H
	DB	083H
	DB	083H
	DB	083H
	DB	083H
	DB	083H
	DB	083H
	DB	083H
	DB	083H
	DB	083H
	DB	083H
	DB	083H
	DB	083H
	DB	083H
	DB	083H
	DB	083H
	DB	083H
	DB	083H
	DB	083H
	DB	083H
	DB	083H
	DB	083H
	DB	083H
	DB	083H
	DB	083H
	DB	083H
	DB	083H
	DB	083H
	DB	083H
	DB	083H
	DB	083H
	DB	083H
	DB	083H
	DB	083H
	DB	083H
	DB	083H
	DB	083H
	DB	083H
	DB	083H
	DB	083H
	DB	083H
	DB	083H
	DB	0fH
	DB	0c3H
	DB	021H
	DB	04H
	DB	03H
	DB	03H
	DB	04H
	DB	021H
	DB	07fH
	DB	0aH
	DB	0d3H
	DB	083H
	DB	083H
	DB	083H
	DB	083H
	DB	083H
	DB	083H
	DB	083H
	DB	083H
	DB	083H
	DB	083H
	DB	083H
	DB	083H
	DB	06bH
	DB	0aH
	DB	045H
	DB	01eH
	DB	0adH
	DB	0adH
	DB	0adH
	DB	0adH
	DB	0adH
	DB	0adH
	DB	0adH
	DB	0adH
	DB	0adH
	DB	0cfH
	DB	03bH
	DB	03H
	DB	015H
	DB	03H
	DB	03H
	DB	03H
	DB	03H
	DB	03H
	DB	03H
	DB	03H
	DB	04H
	DB	031H
	DB	03aH
	DB	09bH
	DB	0eH
	DB	0dH
	DB	0dH
	DB	0dH
	DB	0dH
	DB	0dH
	DB	0dH
	DB	09H
	DB	080H
	DB	05dH
	DB	04H
	DB	03H
	DB	03H
	DB	015H
	DB	026H
	DB	058H
	DB	03H
	DB	03H
	DB	03H
	DB	015H
	DB	04H
	DB	012H
	DB	063H
	DB	01eH
	DB	0adH
	DB	0adH
	DB	0adH
	DB	0adH
	DB	0adH
	DB	0adH
	DB	0adH
	DB	0adH
	DB	03aH
	DB	0aH
	DB	0c4H
	DB	04bH
	DB	0dH
	DB	0d3H
	DB	09H
	DB	083H
	DB	083H
	DB	083H
	DB	02cH
	DB	0b0H
	DB	015H
	DB	04H
	DB	04H
	DB	09aH
	DB	03aH
	DB	0c1H
	DB	05H
	DB	044H
	DB	04eH
	DB	032H
	DB	03H
	DB	03H
	DB	04H
	DB	097H
	DB	02bH
	DB	01aH
	DB	05H
	DB	0dH
	DB	0dH
	DB	0dH
	DB	0dH
	DB	0dH
	DB	0d3H
	DB	051H
	DB	061H
	DB	04H
	DB	03H
	DB	03H
	DB	04H
	DB	068H
	DB	0c1H
	DB	094H
	DB	04H
	DB	03H
	DB	03H
	DB	04H
	DB	07aH
	DB	09cH
	DB	0c3H
	DB	0d3H
	DB	083H
	DB	083H
	DB	083H
	DB	083H
	DB	083H
	DB	083H
	DB	083H
	DB	044H
	DB	020H
	DB	04H
	DB	03H
	DB	03H
	DB	04H
	DB	0f9H
	DB	0c6H
	DB	0c3H
	DB	02cH
	DB	044H
	DB	0c7H
	DB	040H
	DB	065H
	DB	0adH
	DB	0adH
	DB	0adH
	DB	0adH
	DB	0adH
	DB	0adH
	DB	0adH
	DB	0adH
	DB	070H
	DB	087H
	DB	03cH
	DB	04H
	DB	03H
	DB	03H
	DB	03H
	DB	03H
	DB	03H
	DB	03H
	DB	03H
	DB	03H
	DB	04H
	DB	05dH
	DB	0c1H
	DB	0d0H
	DB	083H
	DB	083H
	DB	083H
	DB	083H
	DB	083H
	DB	083H
	DB	083H
	DB	083H
	DB	083H
	DB	083H
	DB	09dH
	DB	04eH
	DB	04H
	DB	03H
	DB	03H
	DB	015H
	DB	03H
	DB	033H
	DB	076H
	DB	04H
	DB	03H
	DB	03H
	DB	04H
	DB	0fbH
	DB	041H
	DB	036H
	DB	01eH
	DB	0adH
	DB	0adH
	DB	0adH
	DB	0adH
	DB	0adH
	DB	0adH
	DB	0adH
	DB	01eH
	DB	0a1H
	DB	0dH
	DB	0dH
	DB	0dH
	DB	09H
	DB	0d3H
	DB	0aH
	DB	0bbH
	DB	04H
	DB	03H
	DB	03H
	DB	03H
	DB	03H
	DB	025H
	DB	015H
	DB	03H
	DB	03H
	DB	015H
	DB	04H
	DB	046H
	DB	02H
	DB	0bH
	DB	05H
	DB	0d3H
	DB	083H
	DB	083H
	DB	083H
	DB	083H
	DB	083H
	DB	083H
	DB	083H
	DB	083H
	DB	083H
	DB	083H
	DB	083H
	DB	083H
	DB	083H
	DB	083H
	DB	083H
	DB	083H
	DB	083H
	DB	083H
	DB	083H
	DB	083H
	DB	083H
	DB	083H
	DB	083H
	DB	083H
	DB	083H
	DB	083H
	DB	083H
	DB	083H
	DB	083H
	DB	083H
	DB	083H
	DB	083H
	DB	083H
	DB	083H
	DB	083H
	DB	083H
	DB	083H
	DB	083H
	DB	083H
	DB	083H
	DB	083H
	DB	083H
	DB	083H
	DB	083H
	DB	083H
	DB	083H
	DB	0d3H
	DB	0d3H
	DB	0d3H
	DB	0d3H
	DB	0d3H
	DB	0d3H
	DB	0d3H
	DB	0d3H
	DB	0d3H
	DB	0d3H
	DB	0d3H
	DB	0d3H
	DB	0d3H
	DB	0d3H
	DB	0d3H
	DB	0d3H
	DB	0d3H
	DB	0d3H
	DB	0d3H
	DB	0d3H
	DB	0d3H
	DB	0d3H
	DB	0d3H
	DB	0d3H
	DB	0d3H
	DB	0d3H
	DB	0d3H
	DB	0d3H
	DB	0d3H
	DB	0d3H
	DB	0d3H
	DB	0d3H
	DB	0d3H
	DB	0d3H
	DB	0d3H
	DB	0d3H
	DB	0d3H
	DB	0d3H
	DB	0d3H
	DB	0d3H
	DB	0d3H
	DB	0d3H
	DB	0d3H
	DB	0d3H
	DB	0d3H
	DB	0d3H
	DB	0d3H
	DB	0d3H
	DB	0d3H
	DB	0d3H
	DB	0d3H
	DB	0d3H
	DB	0d3H
	DB	0d3H
	DB	0d3H
	DB	0d3H
	DB	0d3H
	DB	0d3H
	DB	0d3H
	DB	0d3H
	DB	02dH
	DB	0a1H
	DB	024H
	DB	04H
	DB	03H
	DB	03H
	DB	04H
	DB	048H
	DB	0c1H
	DB	034H
	DB	0dH
	DB	0d3H
	DB	0d3H
	DB	0d3H
	DB	0d3H
	DB	0d3H
	DB	0d3H
	DB	0d3H
	DB	0d3H
	DB	0d3H
	DB	09H
	DB	02dH
	DB	0c3H
	DB	088H
	DB	042H
	DB	0fbH
	DB	03H
	DB	03H
	DB	03H
	DB	03H
	DB	03H
	DB	03H
	DB	03H
	DB	03H
	DB	03H
	DB	03H
	DB	03H
	DB	015H
	DB	015H
	DB	03H
	DB	03H
	DB	03H
	DB	03H
	DB	016H
	DB	015H
	DB	03H
	DB	03H
	DB	04H
	DB	03cH
	DB	018H
	DB	09bH
	DB	06bH
	DB	02cH
	DB	02cH
	DB	02cH
	DB	02cH
	DB	02cH
	DB	02cH
	DB	06bH
	DB	01bH
	DB	01dH
	DB	04H
	DB	03H
	DB	03H
	DB	04H
	DB	03cH
	DB	08aH
	DB	059H
	DB	015H
	DB	03H
	DB	03H
	DB	015H
	DB	04H
	DB	03H
	DB	03H
	DB	03H
	DB	03H
	DB	03H
	DB	03H
	DB	03H
	DB	03H
	DB	03H
	DB	03H
	DB	03H
	DB	021H
	DB	071H
	DB	0c3H
	DB	04bH
	DB	09H
	DB	0d3H
	DB	0d3H
	DB	0d3H
	DB	04bH
	DB	051H
	DB	094H
	DB	04H
	DB	03H
	DB	032H
	DB	056H
	DB	018H
	DB	0c3H
	DB	0d0H
	DB	052H
	DB	079H
	DB	04H
	DB	03H
	DB	03H
	DB	04H
	DB	03cH
	DB	01cH
	DB	0aH
	DB	0eH
	DB	09H
	DB	09H
	DB	083H
	DB	09H
	DB	09H
	DB	02dH
	DB	040H
	DB	097H
	DB	04H
	DB	03H
	DB	03H
	DB	032H
	DB	05eH
	DB	07fH
	DB	043H
	DB	04H
	DB	03H
	DB	03H
	DB	04H
	DB	077H
	DB	018H
	DB	034H
	DB	0dH
	DB	0d3H
	DB	0d3H
	DB	0d3H
	DB	0d3H
	DB	0d3H
	DB	0d3H
	DB	09H
	DB	051H
	DB	03cH
	DB	04H
	DB	03H
	DB	03H
	DB	04H
	DB	079H
	DB	07eH
	DB	01aH
	DB	03aH
	DB	04eH
	DB	00H
	DB	03H
	DB	03H
	DB	03H
	DB	03H
	DB	03H
	DB	03H
	DB	03H
	DB	03H
	DB	03H
	DB	03H
	DB	03H
	DB	03H
	DB	015H
	DB	03H
	DB	03H
	DB	03H
	DB	03H
	DB	016H
	DB	03H
	DB	03H
	DB	03H
	DB	03H
	DB	04H
	DB	02eH
	DB	039H
	DB	0a6H
	DB	0d3H
	DB	0d3H
	DB	0d3H
	DB	0d3H
	DB	0d3H
	DB	0d3H
	DB	0d3H
	DB	0d3H
	DB	0d3H
	DB	09H
	DB	01bH
	DB	0baH
	DB	04H
	DB	03H
	DB	03H
	DB	04H
	DB	049H
	DB	033H
	DB	04fH
	DB	04H
	DB	03H
	DB	03H
	DB	03H
	DB	03H
	DB	03H
	DB	03H
	DB	03H
	DB	03H
	DB	03H
	DB	03H
	DB	03H
	DB	03H
	DB	03H
	DB	03H
	DB	015H
	DB	065H
	DB	02cH
	DB	09H
	DB	09H
	DB	0d3H
	DB	09H
	DB	0c4H
	DB	041H
	DB	04H
	DB	03H
	DB	03H
	DB	03H
	DB	015H
	DB	04H
	DB	03H
	DB	03H
	DB	015H
	DB	032H
	DB	08fH
	DB	02H
	DB	07eH
	DB	0aH
	DB	0eH
	DB	0d3H
	DB	0d3H
	DB	0d3H
	DB	0d3H
	DB	0d3H
	DB	0d3H
	DB	0d3H
	DB	0d3H
	DB	0d3H
	DB	0d3H
	DB	0d3H
	DB	0d3H
	DB	0d3H
	DB	0d3H
	DB	0d3H
	DB	0d3H
	DB	0d3H
	DB	0d3H
	DB	0d3H
	DB	0d3H
	DB	0d3H
	DB	0d3H
	DB	0d3H
	DB	0d3H
	DB	0d3H
	DB	0d3H
	DB	0d3H
	DB	0d3H
	DB	0d3H
	DB	0d3H
	DB	0d3H
	DB	0d3H
	DB	0d3H
	DB	0d3H
	DB	0d3H
	DB	0d3H
	DB	0d3H
	DB	0d3H
	DB	0d3H
	DB	0d3H
	DB	0d3H
	DB	0d3H
	DB	0d3H
	DB	0d3H
	DB	0d3H
	DB	0d3H
	DB	0d3H
	DB	0eH
	DB	0eH
	DB	0eH
	DB	0eH
	DB	0eH
	DB	0eH
	DB	0eH
	DB	0eH
	DB	0eH
	DB	0eH
	DB	0eH
	DB	0eH
	DB	0eH
	DB	0eH
	DB	0eH
	DB	0eH
	DB	0eH
	DB	0eH
	DB	0eH
	DB	0eH
	DB	0eH
	DB	0eH
	DB	0eH
	DB	0eH
	DB	0eH
	DB	0eH
	DB	0eH
	DB	0eH
	DB	0eH
	DB	0eH
	DB	0eH
	DB	0eH
	DB	0eH
	DB	0eH
	DB	0eH
	DB	0eH
	DB	0eH
	DB	0eH
	DB	0eH
	DB	0eH
	DB	0eH
	DB	0eH
	DB	0eH
	DB	0eH
	DB	0eH
	DB	0eH
	DB	0eH
	DB	0eH
	DB	0eH
	DB	0eH
	DB	0eH
	DB	0eH
	DB	0eH
	DB	0eH
	DB	0eH
	DB	0eH
	DB	0eH
	DB	0eH
	DB	0eH
	DB	06dH
	DB	044H
	DB	0afH
	DB	016H
	DB	04H
	DB	03H
	DB	015H
	DB	04H
	DB	08eH
	DB	018H
	DB	034H
	DB	0eH
	DB	0eH
	DB	0eH
	DB	0eH
	DB	0eH
	DB	0eH
	DB	0eH
	DB	0eH
	DB	0eH
	DB	06dH
	DB	044H
	DB	0a0H
	DB	020H
	DB	03H
	DB	04H
	DB	015H
	DB	015H
	DB	015H
	DB	015H
	DB	015H
	DB	015H
	DB	015H
	DB	015H
	DB	015H
	DB	015H
	DB	015H
	DB	015H
	DB	015H
	DB	03H
	DB	03H
	DB	03H
	DB	03H
	DB	03H
	DB	015H
	DB	03H
	DB	03H
	DB	03H
	DB	04H
	DB	079H
	DB	0caH
	DB	0cdH
	DB	040H
	DB	040H
	DB	040H
	DB	040H
	DB	040H
	DB	040H
	DB	040H
	DB	040H
	DB	048H
	DB	04H
	DB	015H
	DB	03H
	DB	03H
	DB	04H
	DB	022H
	DB	02H
	DB	022H
	DB	032H
	DB	015H
	DB	03H
	DB	03H
	DB	03H
	DB	015H
	DB	015H
	DB	015H
	DB	015H
	DB	015H
	DB	015H
	DB	015H
	DB	015H
	DB	015H
	DB	015H
	DB	015H
	DB	04H
	DB	04H
	DB	090H
	DB	01bH
	DB	0eH
	DB	0eH
	DB	0eH
	DB	06dH
	DB	080H
	DB	0b3H
	DB	04H
	DB	03H
	DB	04H
	DB	097H
	DB	09eH
	DB	0c1H
	DB	0aH
	DB	037H
	DB	0a0H
	DB	024H
	DB	04H
	DB	03H
	DB	03H
	DB	04H
	DB	020H
	DB	0c1H
	DB	0aH
	DB	0eH
	DB	06dH
	DB	09dH
	DB	062H
	DB	09bH
	DB	037H
	DB	080H
	DB	071H
	DB	04H
	DB	015H
	DB	03H
	DB	015H
	DB	04H
	DB	0b2H
	DB	0caH
	DB	04H
	DB	015H
	DB	03H
	DB	03H
	DB	04H
	DB	05dH
	DB	018H
	DB	034H
	DB	0eH
	DB	0eH
	DB	0eH
	DB	0eH
	DB	0eH
	DB	0eH
	DB	0eH
	DB	037H
	DB	0ceH
	DB	025H
	DB	04H
	DB	03H
	DB	03H
	DB	032H
	DB	092H
	DB	02H
	DB	074H
	DB	025H
	DB	032H
	DB	04H
	DB	015H
	DB	015H
	DB	015H
	DB	015H
	DB	015H
	DB	015H
	DB	015H
	DB	015H
	DB	015H
	DB	015H
	DB	015H
	DB	015H
	DB	015H
	DB	03H
	DB	03H
	DB	03H
	DB	03H
	DB	015H
	DB	03H
	DB	03H
	DB	03H
	DB	04H
	DB	0fbH
	DB	0caH
	DB	01aH
	DB	0a6H
	DB	0eH
	DB	0eH
	DB	0eH
	DB	0eH
	DB	0eH
	DB	0eH
	DB	0eH
	DB	0eH
	DB	0eH
	DB	02dH
	DB	0c8H
	DB	00H
	DB	04H
	DB	03H
	DB	03H
	DB	04H
	DB	048H
	DB	02aH
	DB	024H
	DB	04H
	DB	03H
	DB	03H
	DB	03H
	DB	03H
	DB	015H
	DB	015H
	DB	015H
	DB	015H
	DB	015H
	DB	015H
	DB	015H
	DB	015H
	DB	015H
	DB	04H
	DB	031H
	DB	081H
	DB	034H
	DB	0eH
	DB	0eH
	DB	0eH
	DB	0eH
	DB	02dH
	DB	09fH
	DB	095H
	DB	04H
	DB	03H
	DB	03H
	DB	03H
	DB	03H
	DB	03H
	DB	015H
	DB	04H
	DB	056H
	DB	018H
	DB	07H
	DB	0c3H
	DB	05H
	DB	0eH
	DB	0eH
	DB	0eH
	DB	0eH
	DB	0eH
	DB	0eH
	DB	0eH
	DB	0eH
	DB	0eH
	DB	0eH
	DB	0eH
	DB	0eH
	DB	0eH
	DB	0eH
	DB	0eH
	DB	0eH
	DB	0eH
	DB	0eH
	DB	0eH
	DB	0eH
	DB	0eH
	DB	0eH
	DB	0eH
	DB	0eH
	DB	0eH
	DB	0eH
	DB	0eH
	DB	0eH
	DB	0eH
	DB	0eH
	DB	0eH
	DB	0eH
	DB	0eH
	DB	0eH
	DB	0eH
	DB	0eH
	DB	0eH
	DB	0eH
	DB	0eH
	DB	0eH
	DB	0eH
	DB	0eH
	DB	0eH
	DB	0eH
	DB	0eH
	DB	0eH
	DB	0eH
	DB	0eH
	DB	0a6H
	DB	0a6H
	DB	0a6H
	DB	0a6H
	DB	0a6H
	DB	0a6H
	DB	0a6H
	DB	0a6H
	DB	0a6H
	DB	0a6H
	DB	0a6H
	DB	0a6H
	DB	0a6H
	DB	0a6H
	DB	0a6H
	DB	0a6H
	DB	0a6H
	DB	0a6H
	DB	0a6H
	DB	0a6H
	DB	0a6H
	DB	0a6H
	DB	0a6H
	DB	0a6H
	DB	0a6H
	DB	0a6H
	DB	0a6H
	DB	0a6H
	DB	0a6H
	DB	0a6H
	DB	0a6H
	DB	0a6H
	DB	0a6H
	DB	0a6H
	DB	0a6H
	DB	0a6H
	DB	0a6H
	DB	0a6H
	DB	0a6H
	DB	0a6H
	DB	0a6H
	DB	0a6H
	DB	0a6H
	DB	0a6H
	DB	0a6H
	DB	0a6H
	DB	0a6H
	DB	0a6H
	DB	0a6H
	DB	0a6H
	DB	0a6H
	DB	0a6H
	DB	0a6H
	DB	0a6H
	DB	0a6H
	DB	0a6H
	DB	0a6H
	DB	0a6H
	DB	0a6H
	DB	0a6H
	DB	09bH
	DB	03bH
	DB	04H
	DB	03H
	DB	03H
	DB	04H
	DB	016H
	DB	064H
	DB	0c1H
	DB	034H
	DB	0a6H
	DB	0a6H
	DB	0a6H
	DB	0a6H
	DB	0a6H
	DB	0a6H
	DB	0a6H
	DB	0a6H
	DB	0a6H
	DB	09dH
	DB	045H
	DB	060H
	DB	032H
	DB	04H
	DB	03H
	DB	015H
	DB	04H
	DB	04H
	DB	04H
	DB	04H
	DB	04H
	DB	04H
	DB	04H
	DB	04H
	DB	04H
	DB	04H
	DB	04H
	DB	03H
	DB	03H
	DB	03H
	DB	03H
	DB	03H
	DB	03H
	DB	03H
	DB	03H
	DB	03H
	DB	03H
	DB	015H
	DB	016H
	DB	026H
	DB	026H
	DB	026H
	DB	026H
	DB	026H
	DB	026H
	DB	026H
	DB	026H
	DB	026H
	DB	0bfH
	DB	04H
	DB	015H
	DB	03H
	DB	03H
	DB	015H
	DB	059H
	DB	029H
	DB	018H
	DB	027H
	DB	042H
	DB	04H
	DB	032H
	DB	04H
	DB	04H
	DB	04H
	DB	04H
	DB	04H
	DB	04H
	DB	04H
	DB	04H
	DB	04H
	DB	04H
	DB	04H
	DB	03H
	DB	03H
	DB	03H
	DB	04H
	DB	015H
	DB	064H
	DB	0c3H
	DB	0a6H
	DB	0a6H
	DB	037H
	DB	051H
	DB	060H
	DB	04H
	DB	03H
	DB	04H
	DB	0b6H
	DB	018H
	DB	0bH
	DB	034H
	DB	044H
	DB	0adH
	DB	04H
	DB	015H
	DB	03H
	DB	03H
	DB	032H
	DB	08dH
	DB	018H
	DB	0aH
	DB	0d0H
	DB	0c3H
	DB	0aeH
	DB	020H
	DB	0b8H
	DB	0caH
	DB	039H
	DB	0b6H
	DB	032H
	DB	03H
	DB	03H
	DB	04H
	DB	031H
	DB	02bH
	DB	08aH
	DB	032H
	DB	03H
	DB	03H
	DB	015H
	DB	04H
	DB	064H
	DB	0c1H
	DB	034H
	DB	05H
	DB	0a6H
	DB	0a6H
	DB	0a6H
	DB	0a6H
	DB	0a6H
	DB	0a6H
	DB	01bH
	DB	066H
	DB	04H
	DB	015H
	DB	03H
	DB	015H
	DB	04H
	DB	066H
	DB	03bH
	DB	04H
	DB	04H
	DB	03H
	DB	03H
	DB	04H
	DB	04H
	DB	04H
	DB	04H
	DB	04H
	DB	04H
	DB	04H
	DB	04H
	DB	04H
	DB	04H
	DB	04H
	DB	015H
	DB	03H
	DB	03H
	DB	03H
	DB	03H
	DB	03H
	DB	03H
	DB	03H
	DB	03H
	DB	03H
	DB	04H
	DB	021H
	DB	07dH
	DB	0bH
	DB	05H
	DB	0a6H
	DB	0a6H
	DB	0a6H
	DB	0a6H
	DB	0a6H
	DB	0a6H
	DB	0a6H
	DB	0a6H
	DB	0a6H
	DB	044H
	DB	0aeH
	DB	016H
	DB	04H
	DB	03H
	DB	03H
	DB	032H
	DB	074H
	DB	0cbH
	DB	04H
	DB	015H
	DB	03H
	DB	03H
	DB	03H
	DB	04H
	DB	04H
	DB	04H
	DB	04H
	DB	04H
	DB	04H
	DB	04H
	DB	04H
	DB	04H
	DB	04H
	DB	032H
	DB	0f4H
	DB	07dH
	DB	0c3H
	DB	05H
	DB	0a6H
	DB	0a6H
	DB	0a6H
	DB	0a6H
	DB	01bH
	DB	073H
	DB	04H
	DB	015H
	DB	03H
	DB	03H
	DB	03H
	DB	03H
	DB	04H
	DB	057H
	DB	018H
	DB	0c1H
	DB	0bH
	DB	034H
	DB	05H
	DB	0a6H
	DB	0a6H
	DB	0a6H
	DB	0a6H
	DB	0a6H
	DB	0a6H
	DB	0a6H
	DB	0a6H
	DB	0a6H
	DB	0a6H
	DB	0a6H
	DB	0a6H
	DB	0a6H
	DB	0a6H
	DB	0a6H
	DB	0a6H
	DB	0a6H
	DB	0a6H
	DB	0a6H
	DB	0a6H
	DB	0a6H
	DB	0a6H
	DB	0a6H
	DB	0a6H
	DB	0a6H
	DB	0a6H
	DB	0a6H
	DB	0a6H
	DB	0a6H
	DB	0a6H
	DB	0a6H
	DB	0a6H
	DB	0a6H
	DB	0a6H
	DB	0a6H
	DB	0a6H
	DB	0a6H
	DB	0a6H
	DB	0a6H
	DB	0a6H
	DB	0a6H
	DB	0a6H
	DB	0a6H
	DB	0a6H
	DB	0a6H
	DB	0a6H
	DB	0a6H
	DB	0a6H
	DB	034H
	DB	034H
	DB	034H
	DB	034H
	DB	034H
	DB	034H
	DB	034H
	DB	034H
	DB	034H
	DB	034H
	DB	034H
	DB	034H
	DB	034H
	DB	034H
	DB	034H
	DB	034H
	DB	034H
	DB	034H
	DB	034H
	DB	034H
	DB	034H
	DB	034H
	DB	034H
	DB	034H
	DB	034H
	DB	034H
	DB	034H
	DB	034H
	DB	034H
	DB	034H
	DB	034H
	DB	034H
	DB	034H
	DB	034H
	DB	034H
	DB	034H
	DB	034H
	DB	034H
	DB	034H
	DB	034H
	DB	034H
	DB	034H
	DB	034H
	DB	034H
	DB	034H
	DB	034H
	DB	034H
	DB	034H
	DB	034H
	DB	034H
	DB	034H
	DB	034H
	DB	034H
	DB	034H
	DB	034H
	DB	034H
	DB	034H
	DB	034H
	DB	034H
	DB	034H
	DB	0bH
	DB	020H
	DB	04H
	DB	03H
	DB	03H
	DB	04H
	DB	024H
	DB	027H
	DB	07eH
	DB	0aH
	DB	034H
	DB	034H
	DB	034H
	DB	034H
	DB	034H
	DB	034H
	DB	034H
	DB	034H
	DB	034H
	DB	07eH
	DB	020H
	DB	032H
	DB	03H
	DB	03H
	DB	015H
	DB	04H
	DB	049H
	DB	068H
	DB	01dH
	DB	01dH
	DB	01dH
	DB	01dH
	DB	01dH
	DB	01dH
	DB	01dH
	DB	01dH
	DB	021H
	DB	015H
	DB	03H
	DB	03H
	DB	03H
	DB	03H
	DB	03H
	DB	03H
	DB	03H
	DB	03H
	DB	03H
	DB	03H
	DB	015H
	DB	04H
	DB	04H
	DB	04H
	DB	04H
	DB	04H
	DB	04H
	DB	04H
	DB	04H
	DB	04H
	DB	04H
	DB	03H
	DB	03H
	DB	03H
	DB	04H
	DB	04H
	DB	08fH
	DB	02H
	DB	07eH
	DB	09bH
	DB	07eH
	DB	08aH
	DB	012H
	DB	01dH
	DB	01dH
	DB	01dH
	DB	01dH
	DB	01dH
	DB	01dH
	DB	01dH
	DB	01dH
	DB	01dH
	DB	01dH
	DB	069H
	DB	04H
	DB	03H
	DB	03H
	DB	03H
	DB	04H
	DB	048H
	DB	01aH
	DB	034H
	DB	05H
	DB	062H
	DB	0b3H
	DB	04H
	DB	015H
	DB	04H
	DB	025H
	DB	02aH
	DB	0c1H
	DB	0c3H
	DB	05H
	DB	062H
	DB	03bH
	DB	04H
	DB	03H
	DB	03H
	DB	015H
	DB	04H
	DB	029H
	DB	018H
	DB	0aH
	DB	0c3H
	DB	036H
	DB	0fdH
	DB	032H
	DB	032H
	DB	03dH
	DB	0cbH
	DB	057H
	DB	04H
	DB	03H
	DB	03H
	DB	04H
	DB	03eH
	DB	02H
	DB	048H
	DB	04H
	DB	03H
	DB	03H
	DB	015H
	DB	0fbH
	DB	0c6H
	DB	01aH
	DB	0aH
	DB	034H
	DB	034H
	DB	034H
	DB	034H
	DB	034H
	DB	034H
	DB	034H
	DB	01aH
	DB	05eH
	DB	032H
	DB	03H
	DB	03H
	DB	04H
	DB	024H
	DB	0b6H
	DB	0c0H
	DB	04H
	DB	03H
	DB	03H
	DB	04H
	DB	0f7H
	DB	078H
	DB	01dH
	DB	01dH
	DB	01dH
	DB	01dH
	DB	01dH
	DB	01dH
	DB	01dH
	DB	01dH
	DB	078H
	DB	031H
	DB	04H
	DB	03H
	DB	03H
	DB	03H
	DB	03H
	DB	03H
	DB	03H
	DB	03H
	DB	03H
	DB	04H
	DB	020H
	DB	02H
	DB	0c3H
	DB	034H
	DB	034H
	DB	034H
	DB	034H
	DB	034H
	DB	034H
	DB	034H
	DB	034H
	DB	034H
	DB	05H
	DB	062H
	DB	08dH
	DB	04H
	DB	015H
	DB	03H
	DB	04H
	DB	03H
	DB	064H
	DB	08dH
	DB	032H
	DB	03H
	DB	03H
	DB	03H
	DB	015H
	DB	019H
	DB	01dH
	DB	01dH
	DB	01dH
	DB	01dH
	DB	01dH
	DB	01dH
	DB	01dH
	DB	01dH
	DB	01dH
	DB	019H
	DB	046H
	DB	018H
	DB	0bH
	DB	034H
	DB	034H
	DB	034H
	DB	034H
	DB	034H
	DB	034H
	DB	0c2H
	DB	095H
	DB	04H
	DB	03H
	DB	03H
	DB	03H
	DB	04H
	DB	0f3H
	DB	01cH
	DB	018H
	DB	0bH
	DB	0aH
	DB	034H
	DB	034H
	DB	034H
	DB	034H
	DB	034H
	DB	034H
	DB	034H
	DB	034H
	DB	034H
	DB	034H
	DB	034H
	DB	034H
	DB	034H
	DB	034H
	DB	034H
	DB	034H
	DB	034H
	DB	034H
	DB	034H
	DB	034H
	DB	034H
	DB	034H
	DB	034H
	DB	034H
	DB	034H
	DB	034H
	DB	034H
	DB	034H
	DB	034H
	DB	034H
	DB	034H
	DB	034H
	DB	034H
	DB	034H
	DB	034H
	DB	034H
	DB	034H
	DB	034H
	DB	034H
	DB	034H
	DB	034H
	DB	034H
	DB	034H
	DB	034H
	DB	034H
	DB	034H
	DB	034H
	DB	034H
	DB	034H
	DB	034H
	DB	0aH
	DB	0aH
	DB	0aH
	DB	0aH
	DB	0aH
	DB	0aH
	DB	0aH
	DB	0aH
	DB	0aH
	DB	0aH
	DB	0aH
	DB	0aH
	DB	0aH
	DB	0aH
	DB	0aH
	DB	0aH
	DB	0aH
	DB	0aH
	DB	0aH
	DB	0aH
	DB	0aH
	DB	0aH
	DB	0aH
	DB	0aH
	DB	0aH
	DB	0aH
	DB	0aH
	DB	0aH
	DB	0aH
	DB	0aH
	DB	0aH
	DB	0aH
	DB	0aH
	DB	0aH
	DB	0aH
	DB	0aH
	DB	0aH
	DB	0aH
	DB	0aH
	DB	0aH
	DB	0aH
	DB	0aH
	DB	0aH
	DB	0aH
	DB	0aH
	DB	0aH
	DB	0aH
	DB	0aH
	DB	0aH
	DB	0aH
	DB	0aH
	DB	0aH
	DB	0aH
	DB	0aH
	DB	0aH
	DB	0aH
	DB	0aH
	DB	0aH
	DB	0aH
	DB	0c3H
	DB	051H
	DB	049H
	DB	04H
	DB	03H
	DB	03H
	DB	04H
	DB	019H
	DB	018H
	DB	0bH
	DB	0aH
	DB	0aH
	DB	0aH
	DB	0aH
	DB	0aH
	DB	0aH
	DB	0aH
	DB	0aH
	DB	0aH
	DB	062H
	DB	089H
	DB	04H
	DB	015H
	DB	03H
	DB	015H
	DB	04H
	DB	05eH
	DB	01cH
	DB	01cH
	DB	01cH
	DB	01cH
	DB	01cH
	DB	01cH
	DB	01cH
	DB	01cH
	DB	01cH
	DB	02H
	DB	066H
	DB	04H
	DB	015H
	DB	03H
	DB	03H
	DB	03H
	DB	03H
	DB	03H
	DB	03H
	DB	03H
	DB	03H
	DB	03H
	DB	03H
	DB	03H
	DB	03H
	DB	03H
	DB	03H
	DB	03H
	DB	03H
	DB	03H
	DB	03H
	DB	03H
	DB	03H
	DB	03H
	DB	04H
	DB	04H
	DB	059H
	DB	055H
	DB	02H
	DB	0c1H
	DB	0bH
	DB	0aH
	DB	0c3H
	DB	039H
	DB	0c1H
	DB	01cH
	DB	01cH
	DB	01cH
	DB	01cH
	DB	01cH
	DB	01cH
	DB	01cH
	DB	01cH
	DB	01cH
	DB	0c1H
	DB	035H
	DB	031H
	DB	04H
	DB	03H
	DB	03H
	DB	04H
	DB	01dH
	DB	0c1H
	DB	0c3H
	DB	0c3H
	DB	0c2H
	DB	07aH
	DB	04H
	DB	03H
	DB	04H
	DB	075H
	DB	02H
	DB	07eH
	DB	0c3H
	DB	0aH
	DB	039H
	DB	020H
	DB	04H
	DB	03H
	DB	03H
	DB	04H
	DB	043H
	DB	02aH
	DB	0c1H
	DB	0c3H
	DB	01aH
	DB	072H
	DB	04H
	DB	015H
	DB	03H
	DB	04H
	DB	043H
	DB	024H
	DB	04H
	DB	03H
	DB	03H
	DB	04H
	DB	022H
	DB	02H
	DB	07bH
	DB	04H
	DB	03H
	DB	03H
	DB	04H
	DB	079H
	DB	01cH
	DB	07eH
	DB	0aH
	DB	0aH
	DB	0aH
	DB	0aH
	DB	0aH
	DB	0aH
	DB	0aH
	DB	0c3H
	DB	07eH
	DB	022H
	DB	04H
	DB	03H
	DB	03H
	DB	015H
	DB	031H
	DB	03eH
	DB	04H
	DB	03H
	DB	03H
	DB	04H
	DB	060H
	DB	09eH
	DB	01cH
	DB	01cH
	DB	01cH
	DB	01cH
	DB	01cH
	DB	01cH
	DB	01cH
	DB	01cH
	DB	0c1H
	DB	027H
	DB	03cH
	DB	04H
	DB	03H
	DB	03H
	DB	03H
	DB	03H
	DB	03H
	DB	03H
	DB	03H
	DB	03H
	DB	04H
	DB	03bH
	DB	018H
	DB	0bH
	DB	0aH
	DB	0aH
	DB	0aH
	DB	0aH
	DB	0aH
	DB	0aH
	DB	0aH
	DB	0aH
	DB	0aH
	DB	0aH
	DB	01aH
	DB	048H
	DB	04H
	DB	03H
	DB	03H
	DB	04H
	DB	024H
	DB	033H
	DB	020H
	DB	04H
	DB	03H
	DB	03H
	DB	04H
	DB	024H
	DB	0c6H
	DB	0c1H
	DB	01cH
	DB	01cH
	DB	01cH
	DB	01cH
	DB	01cH
	DB	01cH
	DB	01cH
	DB	01cH
	DB	01cH
	DB	0c1H
	DB	07H
	DB	0bH
	DB	0aH
	DB	0aH
	DB	0aH
	DB	0aH
	DB	0aH
	DB	0aH
	DB	01aH
	DB	048H
	DB	04H
	DB	03H
	DB	03H
	DB	015H
	DB	016H
	DB	02bH
	DB	018H
	DB	07eH
	DB	0bH
	DB	0aH
	DB	0aH
	DB	0aH
	DB	0aH
	DB	0aH
	DB	0aH
	DB	0aH
	DB	0aH
	DB	0aH
	DB	0aH
	DB	0aH
	DB	0aH
	DB	0aH
	DB	0aH
	DB	0aH
	DB	0aH
	DB	0aH
	DB	0aH
	DB	0aH
	DB	0aH
	DB	0aH
	DB	0aH
	DB	0aH
	DB	0aH
	DB	0aH
	DB	0aH
	DB	0aH
	DB	0aH
	DB	0aH
	DB	0aH
	DB	0aH
	DB	0aH
	DB	0aH
	DB	0aH
	DB	0aH
	DB	0aH
	DB	0aH
	DB	0aH
	DB	0aH
	DB	0aH
	DB	0aH
	DB	0aH
	DB	0aH
	DB	0aH
	DB	0aH
	DB	0aH
	DB	0aH
	DB	0aH
	DB	0aH
	DB	0aH
	DB	0aH
	DB	0c3H
	DB	0c3H
	DB	0c3H
	DB	0c3H
	DB	0c3H
	DB	0c3H
	DB	0c3H
	DB	0c3H
	DB	0c3H
	DB	0c3H
	DB	0c3H
	DB	0c3H
	DB	0c3H
	DB	0c3H
	DB	0c3H
	DB	0c3H
	DB	0c3H
	DB	0c3H
	DB	0c3H
	DB	0c3H
	DB	0c3H
	DB	0c3H
	DB	0c3H
	DB	0c3H
	DB	0c3H
	DB	0c3H
	DB	0c3H
	DB	0c3H
	DB	0c3H
	DB	0c3H
	DB	0c3H
	DB	0c3H
	DB	0c3H
	DB	0c3H
	DB	0c3H
	DB	0c3H
	DB	0c3H
	DB	0c3H
	DB	0c3H
	DB	0c3H
	DB	0c3H
	DB	0c3H
	DB	0c3H
	DB	0c3H
	DB	0c3H
	DB	0c3H
	DB	0c3H
	DB	0c3H
	DB	0c3H
	DB	0c3H
	DB	0c3H
	DB	0c3H
	DB	0c3H
	DB	0c3H
	DB	0c3H
	DB	0c3H
	DB	0c3H
	DB	0c3H
	DB	0c3H
	DB	09bH
	DB	0caH
	DB	03H
	DB	015H
	DB	03H
	DB	03H
	DB	04H
	DB	04eH
	DB	02H
	DB	039H
	DB	01aH
	DB	01aH
	DB	01aH
	DB	01aH
	DB	01aH
	DB	01aH
	DB	01aH
	DB	01aH
	DB	01aH
	DB	018H
	DB	048H
	DB	032H
	DB	03H
	DB	03H
	DB	04H
	DB	0faH
	DB	02bH
	DB	02H
	DB	018H
	DB	018H
	DB	018H
	DB	018H
	DB	018H
	DB	018H
	DB	018H
	DB	018H
	DB	02H
	DB	0efH
	DB	04H
	DB	03H
	DB	03H
	DB	03H
	DB	03H
	DB	03H
	DB	03H
	DB	03H
	DB	03H
	DB	03H
	DB	04H
	DB	04H
	DB	04H
	DB	04H
	DB	04H
	DB	04H
	DB	04H
	DB	04H
	DB	04H
	DB	04H
	DB	04H
	DB	04H
	DB	032H
	DB	059H
	DB	060H
	DB	017H
	DB	02H
	DB	018H
	DB	07eH
	DB	01aH
	DB	01aH
	DB	01aH
	DB	01aH
	DB	039H
	DB	018H
	DB	018H
	DB	018H
	DB	018H
	DB	018H
	DB	018H
	DB	018H
	DB	018H
	DB	018H
	DB	018H
	DB	0c6H
	DB	025H
	DB	04H
	DB	03H
	DB	03H
	DB	04H
	DB	057H
	DB	018H
	DB	0bH
	DB	039H
	DB	08eH
	DB	04H
	DB	015H
	DB	04H
	DB	0f5H
	DB	05aH
	DB	018H
	DB	07eH
	DB	0bH
	DB	0bH
	DB	0c2H
	DB	060H
	DB	04H
	DB	03H
	DB	03H
	DB	04H
	DB	049H
	DB	07dH
	DB	018H
	DB	01aH
	DB	039H
	DB	081H
	DB	03eH
	DB	04H
	DB	03H
	DB	03H
	DB	04H
	DB	04H
	DB	03H
	DB	03H
	DB	03H
	DB	04H
	DB	074H
	DB	05aH
	DB	025H
	DB	04H
	DB	03H
	DB	03H
	DB	04H
	DB	057H
	DB	02H
	DB	018H
	DB	01aH
	DB	01aH
	DB	01aH
	DB	01aH
	DB	01aH
	DB	01aH
	DB	01aH
	DB	039H
	DB	0caH
	DB	0fbH
	DB	04H
	DB	03H
	DB	03H
	DB	015H
	DB	03H
	DB	015H
	DB	03H
	DB	03H
	DB	03H
	DB	04H
	DB	03bH
	DB	02H
	DB	018H
	DB	018H
	DB	018H
	DB	018H
	DB	018H
	DB	018H
	DB	018H
	DB	018H
	DB	018H
	DB	035H
	DB	09aH
	DB	04H
	DB	03H
	DB	03H
	DB	03H
	DB	03H
	DB	03H
	DB	03H
	DB	03H
	DB	015H
	DB	04H
	DB	063H
	DB	018H
	DB	01aH
	DB	01aH
	DB	01aH
	DB	01aH
	DB	01aH
	DB	01aH
	DB	01aH
	DB	01aH
	DB	01aH
	DB	01aH
	DB	01aH
	DB	0c2H
	DB	021H
	DB	04H
	DB	03H
	DB	03H
	DB	04H
	DB	021H
	DB	02H
	DB	0f5H
	DB	04H
	DB	03H
	DB	03H
	DB	04H
	DB	068H
	DB	0c1H
	DB	0c1H
	DB	07H
	DB	07H
	DB	07H
	DB	07H
	DB	07H
	DB	07H
	DB	07H
	DB	07H
	DB	07H
	DB	07H
	DB	07eH
	DB	0bH
	DB	0c3H
	DB	0c3H
	DB	0c3H
	DB	0c3H
	DB	0c3H
	DB	0c3H
	DB	07H
	DB	060H
	DB	04H
	DB	03H
	DB	03H
	DB	04H
	DB	019H
	DB	01cH
	DB	0c1H
	DB	0bH
	DB	0bH
	DB	0c3H
	DB	0c3H
	DB	0c3H
	DB	0c3H
	DB	0c3H
	DB	0c3H
	DB	0c3H
	DB	0c3H
	DB	0c3H
	DB	0c3H
	DB	0c3H
	DB	0c3H
	DB	0c3H
	DB	0c3H
	DB	0c3H
	DB	0c3H
	DB	0c3H
	DB	0c3H
	DB	0c3H
	DB	0c3H
	DB	0c3H
	DB	0c3H
	DB	0c3H
	DB	0c3H
	DB	0c3H
	DB	0c3H
	DB	0c3H
	DB	0c3H
	DB	0c3H
	DB	0c3H
	DB	0c3H
	DB	0c3H
	DB	0c3H
	DB	0c3H
	DB	0c3H
	DB	0c3H
	DB	0c3H
	DB	0c3H
	DB	0c3H
	DB	0c3H
	DB	0c3H
	DB	0c3H
	DB	0c3H
	DB	0c3H
	DB	0c3H
	DB	0c3H
	DB	0c3H
	DB	0c3H
	DB	0c3H
	DB	0c3H
	DB	0c3H
	DB	0bH
	DB	0bH
	DB	0bH
	DB	0bH
	DB	0bH
	DB	0bH
	DB	0bH
	DB	0bH
	DB	0bH
	DB	0bH
	DB	0bH
	DB	0bH
	DB	0bH
	DB	0bH
	DB	0bH
	DB	0bH
	DB	0bH
	DB	0bH
	DB	0bH
	DB	0bH
	DB	0bH
	DB	0bH
	DB	0bH
	DB	0bH
	DB	0bH
	DB	0bH
	DB	0bH
	DB	0bH
	DB	0bH
	DB	0bH
	DB	0bH
	DB	0bH
	DB	0bH
	DB	0bH
	DB	0bH
	DB	0bH
	DB	0bH
	DB	0bH
	DB	0bH
	DB	0bH
	DB	0bH
	DB	0bH
	DB	0bH
	DB	0bH
	DB	0bH
	DB	0bH
	DB	0bH
	DB	0bH
	DB	0bH
	DB	0bH
	DB	0bH
	DB	0bH
	DB	0bH
	DB	0bH
	DB	0bH
	DB	0bH
	DB	0bH
	DB	0bH
	DB	0bH
	DB	0c1H
	DB	041H
	DB	04H
	DB	015H
	DB	03H
	DB	03H
	DB	04H
	DB	04eH
	DB	063H
	DB	017H
	DB	017H
	DB	017H
	DB	017H
	DB	017H
	DB	017H
	DB	017H
	DB	017H
	DB	017H
	DB	064H
	DB	087H
	DB	07aH
	DB	04H
	DB	03H
	DB	03H
	DB	015H
	DB	04H
	DB	048H
	DB	029H
	DB	064H
	DB	017H
	DB	017H
	DB	017H
	DB	017H
	DB	017H
	DB	017H
	DB	017H
	DB	029H
	DB	060H
	DB	04H
	DB	03H
	DB	03H
	DB	03H
	DB	03H
	DB	03H
	DB	03H
	DB	03H
	DB	03H
	DB	04H
	DB	043H
	DB	022H
	DB	042H
	DB	042H
	DB	042H
	DB	042H
	DB	042H
	DB	042H
	DB	042H
	DB	042H
	DB	042H
	DB	020H
	DB	05eH
	DB	017H
	DB	01cH
	DB	02H
	DB	0c1H
	DB	07H
	DB	07eH
	DB	063H
	DB	087H
	DB	017H
	DB	017H
	DB	017H
	DB	017H
	DB	017H
	DB	017H
	DB	017H
	DB	017H
	DB	017H
	DB	017H
	DB	017H
	DB	064H
	DB	02eH
	DB	01fH
	DB	04H
	DB	03H
	DB	03H
	DB	03H
	DB	032H
	DB	046H
	DB	02H
	DB	07H
	DB	027H
	DB	0f5H
	DB	04H
	DB	03H
	DB	04H
	DB	08eH
	DB	02H
	DB	07H
	DB	07eH
	DB	0bH
	DB	01aH
	DB	081H
	DB	00H
	DB	04H
	DB	03H
	DB	03H
	DB	015H
	DB	015H
	DB	076H
	DB	017H
	DB	017H
	DB	017H
	DB	029H
	DB	048H
	DB	04H
	DB	03H
	DB	03H
	DB	03H
	DB	03H
	DB	03H
	DB	03H
	DB	03H
	DB	04H
	DB	047H
	DB	08cH
	DB	09aH
	DB	04H
	DB	03H
	DB	03H
	DB	015H
	DB	09aH
	DB	05dH
	DB	064H
	DB	017H
	DB	017H
	DB	017H
	DB	017H
	DB	017H
	DB	017H
	DB	064H
	DB	066H
	DB	049H
	DB	04H
	DB	03H
	DB	03H
	DB	03H
	DB	04H
	DB	07aH
	DB	016H
	DB	03H
	DB	03H
	DB	03H
	DB	04H
	DB	03cH
	DB	088H
	DB	064H
	DB	017H
	DB	017H
	DB	017H
	DB	017H
	DB	017H
	DB	017H
	DB	017H
	DB	029H
	DB	090H
	DB	04H
	DB	03H
	DB	03H
	DB	03H
	DB	03H
	DB	03H
	DB	03H
	DB	03H
	DB	03H
	DB	015H
	DB	016H
	DB	05cH
	DB	029H
	DB	017H
	DB	017H
	DB	017H
	DB	017H
	DB	017H
	DB	017H
	DB	017H
	DB	017H
	DB	017H
	DB	087H
	DB	03aH
	DB	02aH
	DB	016H
	DB	015H
	DB	03H
	DB	03H
	DB	04H
	DB	04eH
	DB	02bH
	DB	031H
	DB	04H
	DB	03H
	DB	03H
	DB	032H
	DB	0b6H
	DB	02H
	DB	07H
	DB	07eH
	DB	07eH
	DB	07eH
	DB	07eH
	DB	07eH
	DB	07eH
	DB	07eH
	DB	07eH
	DB	07eH
	DB	07eH
	DB	0bH
	DB	0bH
	DB	0bH
	DB	0bH
	DB	0bH
	DB	0bH
	DB	0bH
	DB	01aH
	DB	081H
	DB	069H
	DB	04H
	DB	03H
	DB	03H
	DB	032H
	DB	056H
	DB	02H
	DB	07H
	DB	0bH
	DB	0bH
	DB	0bH
	DB	0bH
	DB	0bH
	DB	0bH
	DB	0bH
	DB	0bH
	DB	0bH
	DB	0bH
	DB	0bH
	DB	0bH
	DB	0bH
	DB	0bH
	DB	0bH
	DB	0bH
	DB	0bH
	DB	0bH
	DB	0bH
	DB	0bH
	DB	0bH
	DB	0bH
	DB	0bH
	DB	0bH
	DB	0bH
	DB	0bH
	DB	0bH
	DB	0bH
	DB	0bH
	DB	0bH
	DB	0bH
	DB	0bH
	DB	0bH
	DB	0bH
	DB	0bH
	DB	0bH
	DB	0bH
	DB	0bH
	DB	0bH
	DB	0bH
	DB	0bH
	DB	0bH
	DB	0bH
	DB	0bH
	DB	0bH
	DB	0bH
	DB	0bH
	DB	0bH
	DB	0bH
	DB	0bH
	DB	0bH
	DB	0bH
	DB	0bH
	DB	07eH
	DB	07eH
	DB	07eH
	DB	07eH
	DB	07eH
	DB	07eH
	DB	07eH
	DB	07eH
	DB	07eH
	DB	07eH
	DB	07eH
	DB	07eH
	DB	07eH
	DB	07eH
	DB	07eH
	DB	07eH
	DB	07eH
	DB	07eH
	DB	07eH
	DB	07eH
	DB	07eH
	DB	07eH
	DB	07eH
	DB	07eH
	DB	07eH
	DB	07eH
	DB	07eH
	DB	07eH
	DB	07eH
	DB	07eH
	DB	07eH
	DB	07eH
	DB	07eH
	DB	07eH
	DB	07eH
	DB	07eH
	DB	07eH
	DB	07eH
	DB	07eH
	DB	07eH
	DB	07eH
	DB	07eH
	DB	07eH
	DB	07eH
	DB	07eH
	DB	07eH
	DB	07eH
	DB	07eH
	DB	07eH
	DB	07eH
	DB	07eH
	DB	07eH
	DB	07eH
	DB	07eH
	DB	07eH
	DB	07eH
	DB	07eH
	DB	07eH
	DB	07eH
	DB	018H
	DB	0b8H
	DB	04H
	DB	03H
	DB	03H
	DB	03H
	DB	03H
	DB	0bfH
	DB	016H
	DB	016H
	DB	016H
	DB	016H
	DB	016H
	DB	016H
	DB	016H
	DB	016H
	DB	016H
	DB	016H
	DB	03H
	DB	0f7H
	DB	060H
	DB	04H
	DB	03H
	DB	03H
	DB	03H
	DB	015H
	DB	04H
	DB	0bfH
	DB	016H
	DB	016H
	DB	016H
	DB	016H
	DB	016H
	DB	016H
	DB	016H
	DB	016H
	DB	0c0H
	DB	015H
	DB	03H
	DB	03H
	DB	03H
	DB	03H
	DB	015H
	DB	03H
	DB	03H
	DB	03H
	DB	03H
	DB	04H
	DB	08dH
	DB	02H
	DB	01cH
	DB	01cH
	DB	01cH
	DB	01cH
	DB	01cH
	DB	01cH
	DB	01cH
	DB	01cH
	DB	01cH
	DB	018H
	DB	02H
	DB	02H
	DB	018H
	DB	0c1H
	DB	07H
	DB	0c1H
	DB	09eH
	DB	00H
	DB	015H
	DB	016H
	DB	016H
	DB	016H
	DB	016H
	DB	016H
	DB	016H
	DB	016H
	DB	016H
	DB	016H
	DB	016H
	DB	016H
	DB	016H
	DB	059H
	DB	04H
	DB	03H
	DB	03H
	DB	03H
	DB	04H
	DB	043H
	DB	05aH
	DB	018H
	DB	018H
	DB	03bH
	DB	04H
	DB	03H
	DB	04H
	DB	0f5H
	DB	033H
	DB	018H
	DB	07H
	DB	07eH
	DB	07eH
	DB	07H
	DB	0c2H
	DB	07bH
	DB	04H
	DB	03H
	DB	03H
	DB	03H
	DB	015H
	DB	04H
	DB	03H
	DB	016H
	DB	016H
	DB	016H
	DB	026H
	DB	03H
	DB	03H
	DB	03H
	DB	03H
	DB	03H
	DB	03H
	DB	03H
	DB	03H
	DB	015H
	DB	04H
	DB	020H
	DB	03eH
	DB	04H
	DB	03H
	DB	03H
	DB	03H
	DB	015H
	DB	04H
	DB	0bfH
	DB	016H
	DB	016H
	DB	016H
	DB	016H
	DB	016H
	DB	016H
	DB	016H
	DB	015H
	DB	04H
	DB	03H
	DB	03H
	DB	03H
	DB	04H
	DB	019H
	DB	08eH
	DB	04H
	DB	03H
	DB	03H
	DB	03H
	DB	03H
	DB	04H
	DB	059H
	DB	016H
	DB	016H
	DB	016H
	DB	016H
	DB	016H
	DB	016H
	DB	016H
	DB	016H
	DB	016H
	DB	015H
	DB	03H
	DB	03H
	DB	03H
	DB	03H
	DB	015H
	DB	03H
	DB	03H
	DB	03H
	DB	03H
	DB	03H
	DB	03H
	DB	016H
	DB	016H
	DB	016H
	DB	016H
	DB	016H
	DB	016H
	DB	016H
	DB	016H
	DB	016H
	DB	016H
	DB	016H
	DB	04H
	DB	056H
	DB	063H
	DB	04H
	DB	015H
	DB	03H
	DB	03H
	DB	032H
	DB	02eH
	DB	05cH
	DB	04H
	DB	015H
	DB	03H
	DB	015H
	DB	04H
	DB	066H
	DB	02H
	DB	07H
	DB	07eH
	DB	07eH
	DB	07eH
	DB	07eH
	DB	07eH
	DB	07eH
	DB	07eH
	DB	07eH
	DB	07eH
	DB	07eH
	DB	07eH
	DB	07eH
	DB	07eH
	DB	07eH
	DB	07eH
	DB	07eH
	DB	07eH
	DB	018H
	DB	087H
	DB	03H
	DB	04H
	DB	03H
	DB	015H
	DB	04H
	DB	046H
	DB	02H
	DB	07H
	DB	07eH
	DB	07eH
	DB	07eH
	DB	07eH
	DB	07eH
	DB	07eH
	DB	07eH
	DB	07eH
	DB	07eH
	DB	07eH
	DB	07eH
	DB	07eH
	DB	07eH
	DB	07eH
	DB	07eH
	DB	07eH
	DB	07eH
	DB	07eH
	DB	07eH
	DB	07eH
	DB	07eH
	DB	07eH
	DB	07eH
	DB	07eH
	DB	07eH
	DB	07eH
	DB	07eH
	DB	07eH
	DB	07eH
	DB	07eH
	DB	07eH
	DB	07eH
	DB	07eH
	DB	07eH
	DB	07eH
	DB	07eH
	DB	07eH
	DB	07eH
	DB	07eH
	DB	07eH
	DB	07eH
	DB	07eH
	DB	07eH
	DB	07eH
	DB	07eH
	DB	07eH
	DB	07eH
	DB	07eH
	DB	07eH
	DB	07eH
	DB	07eH
	DB	07eH
	DB	07eH
	DB	07H
	DB	07H
	DB	07H
	DB	07H
	DB	07H
	DB	07H
	DB	07H
	DB	07H
	DB	07H
	DB	07H
	DB	07H
	DB	07H
	DB	07H
	DB	07H
	DB	07H
	DB	07H
	DB	07H
	DB	07H
	DB	07H
	DB	07H
	DB	07H
	DB	07H
	DB	07H
	DB	07H
	DB	07H
	DB	07H
	DB	07H
	DB	07H
	DB	07H
	DB	07H
	DB	07H
	DB	07H
	DB	07H
	DB	07H
	DB	07H
	DB	07H
	DB	07H
	DB	07H
	DB	07H
	DB	07H
	DB	07H
	DB	07H
	DB	07H
	DB	07H
	DB	07H
	DB	07H
	DB	07H
	DB	07H
	DB	07H
	DB	07H
	DB	07H
	DB	07H
	DB	07H
	DB	07H
	DB	07H
	DB	07H
	DB	07H
	DB	07H
	DB	07H
	DB	018H
	DB	01dH
	DB	04H
	DB	03H
	DB	03H
	DB	03H
	DB	03H
	DB	015H
	DB	04H
	DB	04H
	DB	04H
	DB	04H
	DB	04H
	DB	04H
	DB	04H
	DB	04H
	DB	04H
	DB	04H
	DB	04H
	DB	042H
	DB	05dH
	DB	04H
	DB	015H
	DB	03H
	DB	03H
	DB	03H
	DB	015H
	DB	04H
	DB	04H
	DB	04H
	DB	04H
	DB	04H
	DB	04H
	DB	04H
	DB	04H
	DB	04H
	DB	04H
	DB	015H
	DB	03H
	DB	03H
	DB	03H
	DB	03H
	DB	03H
	DB	03H
	DB	03H
	DB	03H
	DB	015H
	DB	04H
	DB	0cbH
	DB	02H
	DB	018H
	DB	018H
	DB	018H
	DB	018H
	DB	018H
	DB	018H
	DB	018H
	DB	018H
	DB	018H
	DB	018H
	DB	0c1H
	DB	0c1H
	DB	0c1H
	DB	07H
	DB	07H
	DB	018H
	DB	064H
	DB	032H
	DB	04H
	DB	04H
	DB	04H
	DB	04H
	DB	04H
	DB	04H
	DB	04H
	DB	04H
	DB	04H
	DB	04H
	DB	04H
	DB	04H
	DB	04H
	DB	04H
	DB	03H
	DB	03H
	DB	03H
	DB	04H
	DB	0c0H
	DB	02eH
	DB	02H
	DB	018H
	DB	027H
	DB	043H
	DB	04H
	DB	015H
	DB	04H
	DB	08bH
	DB	02H
	DB	0c1H
	DB	07H
	DB	07H
	DB	07H
	DB	07H
	DB	02H
	DB	076H
	DB	032H
	DB	03H
	DB	03H
	DB	03H
	DB	03H
	DB	03H
	DB	04H
	DB	04H
	DB	04H
	DB	04H
	DB	015H
	DB	03H
	DB	03H
	DB	03H
	DB	03H
	DB	03H
	DB	03H
	DB	03H
	DB	03H
	DB	015H
	DB	059H
	DB	02eH
	DB	068H
	DB	04H
	DB	03H
	DB	03H
	DB	03H
	DB	03H
	DB	015H
	DB	04H
	DB	04H
	DB	04H
	DB	04H
	DB	04H
	DB	04H
	DB	04H
	DB	04H
	DB	015H
	DB	03H
	DB	03H
	DB	03H
	DB	04H
	DB	098H
	DB	082H
	DB	02aH
	DB	09aH
	DB	04H
	DB	03H
	DB	03H
	DB	03H
	DB	03H
	DB	015H
	DB	04H
	DB	04H
	DB	04H
	DB	04H
	DB	04H
	DB	04H
	DB	04H
	DB	04H
	DB	04H
	DB	015H
	DB	03H
	DB	03H
	DB	03H
	DB	03H
	DB	03H
	DB	03H
	DB	03H
	DB	03H
	DB	03H
	DB	03H
	DB	03H
	DB	04H
	DB	04H
	DB	04H
	DB	04H
	DB	04H
	DB	04H
	DB	04H
	DB	04H
	DB	04H
	DB	04H
	DB	04H
	DB	04H
	DB	067H
	DB	03bH
	DB	04H
	DB	03H
	DB	03H
	DB	04H
	DB	0c0H
	DB	02bH
	DB	05dH
	DB	032H
	DB	03H
	DB	03H
	DB	04H
	DB	031H
	DB	035H
	DB	02H
	DB	07H
	DB	07H
	DB	07H
	DB	07H
	DB	07H
	DB	07H
	DB	07H
	DB	07H
	DB	07H
	DB	07H
	DB	07H
	DB	07H
	DB	07H
	DB	07H
	DB	07H
	DB	07H
	DB	07H
	DB	07H
	DB	018H
	DB	047H
	DB	032H
	DB	03H
	DB	03H
	DB	04H
	DB	016H
	DB	029H
	DB	02H
	DB	07H
	DB	07H
	DB	07H
	DB	07H
	DB	07H
	DB	07H
	DB	07H
	DB	07H
	DB	07H
	DB	07H
	DB	07H
	DB	07H
	DB	07H
	DB	07H
	DB	07H
	DB	07H
	DB	07H
	DB	07H
	DB	07H
	DB	07H
	DB	07H
	DB	07H
	DB	07H
	DB	07H
	DB	07H
	DB	07H
	DB	07H
	DB	07H
	DB	07H
	DB	07H
	DB	07H
	DB	07H
	DB	07H
	DB	07H
	DB	07H
	DB	07H
	DB	07H
	DB	07H
	DB	07H
	DB	07H
	DB	07H
	DB	07H
	DB	07H
	DB	07H
	DB	07H
	DB	07H
	DB	07H
	DB	07H
	DB	07H
	DB	07H
	DB	07H
	DB	07H
	DB	07H
	DB	07H
	DB	0c1H
	DB	0c1H
	DB	0c1H
	DB	0c1H
	DB	0c1H
	DB	0c1H
	DB	0c1H
	DB	0c1H
	DB	0c1H
	DB	0c1H
	DB	0c1H
	DB	0c1H
	DB	0c1H
	DB	0c1H
	DB	0c1H
	DB	0c1H
	DB	0c1H
	DB	0c1H
	DB	0c1H
	DB	0c1H
	DB	0c1H
	DB	0c1H
	DB	0c1H
	DB	0c1H
	DB	0c1H
	DB	0c1H
	DB	0c1H
	DB	0c1H
	DB	0c1H
	DB	0c1H
	DB	0c1H
	DB	0c1H
	DB	0c1H
	DB	0c1H
	DB	0c1H
	DB	0c1H
	DB	0c1H
	DB	0c1H
	DB	0c1H
	DB	0c1H
	DB	0c1H
	DB	0c1H
	DB	0c1H
	DB	0c1H
	DB	0c1H
	DB	0c1H
	DB	0c1H
	DB	0c1H
	DB	0c1H
	DB	0c1H
	DB	0c1H
	DB	0c1H
	DB	0c1H
	DB	0c1H
	DB	0c1H
	DB	0c1H
	DB	0c1H
	DB	0c1H
	DB	018H
	DB	027H
	DB	03dH
	DB	04H
	DB	03H
	DB	03H
	DB	03H
	DB	03H
	DB	03H
	DB	03H
	DB	03H
	DB	03H
	DB	03H
	DB	03H
	DB	03H
	DB	03H
	DB	03H
	DB	03H
	DB	03H
	DB	04H
	DB	05dH
	DB	01cH
	DB	049H
	DB	032H
	DB	015H
	DB	03H
	DB	03H
	DB	03H
	DB	03H
	DB	03H
	DB	03H
	DB	03H
	DB	03H
	DB	03H
	DB	03H
	DB	03H
	DB	03H
	DB	03H
	DB	03H
	DB	03H
	DB	03H
	DB	03H
	DB	03H
	DB	016H
	DB	03H
	DB	03H
	DB	03H
	DB	04H
	DB	024H
	DB	05aH
	DB	02H
	DB	0c1H
	DB	0c1H
	DB	0c1H
	DB	0c1H
	DB	0c1H
	DB	0c1H
	DB	0c1H
	DB	0c1H
	DB	0c1H
	DB	0c1H
	DB	0c1H
	DB	0c1H
	DB	0c1H
	DB	0c1H
	DB	0c1H
	DB	02H
	DB	03bH
	DB	032H
	DB	03H
	DB	03H
	DB	03H
	DB	03H
	DB	03H
	DB	03H
	DB	03H
	DB	03H
	DB	03H
	DB	03H
	DB	03H
	DB	03H
	DB	03H
	DB	03H
	DB	03H
	DB	015H
	DB	032H
	DB	098H
	DB	0b2H
	DB	02H
	DB	02H
	DB	02H
	DB	05eH
	DB	032H
	DB	03H
	DB	04H
	DB	021H
	DB	01cH
	DB	02H
	DB	0c1H
	DB	0c1H
	DB	0c1H
	DB	0c1H
	DB	0c1H
	DB	018H
	DB	02aH
	DB	0f5H
	DB	032H
	DB	015H
	DB	03H
	DB	03H
	DB	03H
	DB	03H
	DB	03H
	DB	03H
	DB	03H
	DB	03H
	DB	03H
	DB	03H
	DB	03H
	DB	03H
	DB	03H
	DB	03H
	DB	03H
	DB	03H
	DB	04H
	DB	025H
	DB	05aH
	DB	036H
	DB	09aH
	DB	04H
	DB	03H
	DB	03H
	DB	03H
	DB	03H
	DB	03H
	DB	03H
	DB	03H
	DB	03H
	DB	03H
	DB	03H
	DB	03H
	DB	03H
	DB	03H
	DB	03H
	DB	04H
	DB	032H
	DB	043H
	DB	063H
	DB	02H
	DB	02H
	DB	055H
	DB	032H
	DB	04H
	DB	03H
	DB	03H
	DB	03H
	DB	03H
	DB	03H
	DB	03H
	DB	03H
	DB	03H
	DB	03H
	DB	03H
	DB	03H
	DB	03H
	DB	03H
	DB	03H
	DB	03H
	DB	03H
	DB	03H
	DB	015H
	DB	0bfH
	DB	03H
	DB	03H
	DB	03H
	DB	03H
	DB	03H
	DB	03H
	DB	03H
	DB	03H
	DB	03H
	DB	03H
	DB	03H
	DB	03H
	DB	03H
	DB	03H
	DB	03H
	DB	03H
	DB	015H
	DB	015H
	DB	02bH
	DB	057H
	DB	04H
	DB	03H
	DB	03H
	DB	04H
	DB	03cH
	DB	027H
	DB	022H
	DB	04H
	DB	03H
	DB	03H
	DB	04H
	DB	03dH
	DB	01cH
	DB	02H
	DB	0c1H
	DB	0c1H
	DB	0c1H
	DB	0c1H
	DB	0c1H
	DB	0c1H
	DB	0c1H
	DB	0c1H
	DB	0c1H
	DB	0c1H
	DB	0c1H
	DB	0c1H
	DB	0c1H
	DB	0c1H
	DB	0c1H
	DB	0c1H
	DB	0c1H
	DB	0c1H
	DB	018H
	DB	020H
	DB	04H
	DB	03H
	DB	03H
	DB	04H
	DB	03eH
	DB	07dH
	DB	02H
	DB	0c1H
	DB	0c1H
	DB	0c1H
	DB	0c1H
	DB	0c1H
	DB	0c1H
	DB	0c1H
	DB	0c1H
	DB	0c1H
	DB	0c1H
	DB	0c1H
	DB	0c1H
	DB	0c1H
	DB	0c1H
	DB	0c1H
	DB	0c1H
	DB	0c1H
	DB	0c1H
	DB	0c1H
	DB	0c1H
	DB	0c1H
	DB	0c1H
	DB	0c1H
	DB	0c1H
	DB	0c1H
	DB	0c1H
	DB	0c1H
	DB	0c1H
	DB	0c1H
	DB	0c1H
	DB	0c1H
	DB	0c1H
	DB	0c1H
	DB	0c1H
	DB	0c1H
	DB	0c1H
	DB	0c1H
	DB	0c1H
	DB	0c1H
	DB	0c1H
	DB	0c1H
	DB	0c1H
	DB	0c1H
	DB	0c1H
	DB	0c1H
	DB	0c1H
	DB	0c1H
	DB	0c1H
	DB	0c1H
	DB	0c1H
	DB	0c1H
	DB	0c1H
	DB	0c1H
	DB	0c1H
	DB	018H
	DB	018H
	DB	018H
	DB	018H
	DB	018H
	DB	018H
	DB	018H
	DB	018H
	DB	018H
	DB	018H
	DB	018H
	DB	018H
	DB	018H
	DB	018H
	DB	018H
	DB	018H
	DB	018H
	DB	018H
	DB	018H
	DB	018H
	DB	018H
	DB	018H
	DB	018H
	DB	018H
	DB	018H
	DB	018H
	DB	018H
	DB	018H
	DB	018H
	DB	018H
	DB	018H
	DB	018H
	DB	018H
	DB	018H
	DB	018H
	DB	018H
	DB	018H
	DB	018H
	DB	018H
	DB	018H
	DB	018H
	DB	018H
	DB	018H
	DB	018H
	DB	018H
	DB	018H
	DB	018H
	DB	018H
	DB	018H
	DB	018H
	DB	018H
	DB	018H
	DB	018H
	DB	018H
	DB	018H
	DB	018H
	DB	018H
	DB	018H
	DB	02H
	DB	063H
	DB	032H
	DB	032H
	DB	04H
	DB	04H
	DB	04H
	DB	04H
	DB	04H
	DB	04H
	DB	04H
	DB	04H
	DB	04H
	DB	04H
	DB	04H
	DB	04H
	DB	04H
	DB	04H
	DB	04H
	DB	032H
	DB	02eH
	DB	02H
	DB	02bH
	DB	021H
	DB	04H
	DB	04H
	DB	04H
	DB	04H
	DB	04H
	DB	04H
	DB	04H
	DB	04H
	DB	04H
	DB	04H
	DB	04H
	DB	04H
	DB	04H
	DB	04H
	DB	04H
	DB	04H
	DB	04H
	DB	04H
	DB	04H
	DB	04H
	DB	04H
	DB	04H
	DB	04H
	DB	032H
	DB	042H
	DB	02H
	DB	02H
	DB	018H
	DB	018H
	DB	018H
	DB	018H
	DB	018H
	DB	018H
	DB	018H
	DB	018H
	DB	018H
	DB	018H
	DB	018H
	DB	018H
	DB	018H
	DB	018H
	DB	018H
	DB	02H
	DB	068H
	DB	032H
	DB	04H
	DB	04H
	DB	04H
	DB	04H
	DB	04H
	DB	04H
	DB	04H
	DB	04H
	DB	04H
	DB	04H
	DB	04H
	DB	04H
	DB	04H
	DB	04H
	DB	04H
	DB	0c0H
	DB	022H
	DB	035H
	DB	02H
	DB	02H
	DB	02H
	DB	02aH
	DB	025H
	DB	04H
	DB	015H
	DB	04H
	DB	066H
	DB	02H
	DB	02H
	DB	018H
	DB	018H
	DB	018H
	DB	018H
	DB	018H
	DB	018H
	DB	02H
	DB	035H
	DB	04fH
	DB	04H
	DB	04H
	DB	04H
	DB	04H
	DB	04H
	DB	04H
	DB	04H
	DB	04H
	DB	04H
	DB	04H
	DB	04H
	DB	04H
	DB	04H
	DB	04H
	DB	04H
	DB	04H
	DB	04H
	DB	032H
	DB	07bH
	DB	02H
	DB	02H
	DB	087H
	DB	03cH
	DB	04H
	DB	04H
	DB	04H
	DB	04H
	DB	04H
	DB	04H
	DB	04H
	DB	04H
	DB	04H
	DB	04H
	DB	04H
	DB	04H
	DB	04H
	DB	032H
	DB	098H
	DB	05fH
	DB	05aH
	DB	02H
	DB	02H
	DB	02H
	DB	01cH
	DB	0efH
	DB	0bfH
	DB	032H
	DB	04H
	DB	04H
	DB	04H
	DB	04H
	DB	04H
	DB	04H
	DB	04H
	DB	04H
	DB	04H
	DB	04H
	DB	04H
	DB	04H
	DB	04H
	DB	04H
	DB	04H
	DB	04H
	DB	04H
	DB	04H
	DB	04H
	DB	04H
	DB	04H
	DB	04H
	DB	04H
	DB	04H
	DB	04H
	DB	04H
	DB	04H
	DB	04H
	DB	04H
	DB	04H
	DB	04H
	DB	04H
	DB	04H
	DB	04H
	DB	032H
	DB	024H
	DB	02bH
	DB	07bH
	DB	032H
	DB	04H
	DB	04H
	DB	032H
	DB	068H
	DB	033H
	DB	031H
	DB	032H
	DB	04H
	DB	04H
	DB	032H
	DB	057H
	DB	02H
	DB	02H
	DB	018H
	DB	018H
	DB	018H
	DB	018H
	DB	018H
	DB	018H
	DB	018H
	DB	018H
	DB	018H
	DB	018H
	DB	018H
	DB	018H
	DB	018H
	DB	018H
	DB	018H
	DB	018H
	DB	018H
	DB	02H
	DB	07fH
	DB	043H
	DB	032H
	DB	04H
	DB	04H
	DB	032H
	DB	019H
	DB	02H
	DB	02H
	DB	018H
	DB	018H
	DB	018H
	DB	018H
	DB	018H
	DB	018H
	DB	018H
	DB	018H
	DB	018H
	DB	018H
	DB	018H
	DB	018H
	DB	018H
	DB	018H
	DB	018H
	DB	018H
	DB	018H
	DB	018H
	DB	018H
	DB	018H
	DB	018H
	DB	018H
	DB	018H
	DB	018H
	DB	018H
	DB	018H
	DB	018H
	DB	018H
	DB	018H
	DB	018H
	DB	018H
	DB	018H
	DB	018H
	DB	018H
	DB	018H
	DB	018H
	DB	018H
	DB	018H
	DB	018H
	DB	018H
	DB	018H
	DB	018H
	DB	018H
	DB	018H
	DB	018H
	DB	018H
	DB	018H
	DB	018H
	DB	018H
	DB	018H
	DB	018H
	DB	018H
	DB	018H
	DB	018H
	DB	02H
	DB	02H
	DB	02H
	DB	02H
	DB	02H
	DB	02H
	DB	02H
	DB	02H
	DB	02H
	DB	02H
	DB	02H
	DB	02H
	DB	02H
	DB	02H
	DB	02H
	DB	02H
	DB	02H
	DB	02H
	DB	02H
	DB	02H
	DB	02H
	DB	02H
	DB	02H
	DB	02H
	DB	02H
	DB	02H
	DB	02H
	DB	02H
	DB	02H
	DB	02H
	DB	02H
	DB	02H
	DB	02H
	DB	02H
	DB	02H
	DB	02H
	DB	02H
	DB	02H
	DB	02H
	DB	02H
	DB	02H
	DB	02H
	DB	02H
	DB	02H
	DB	02H
	DB	02H
	DB	02H
	DB	02H
	DB	02H
	DB	02H
	DB	02H
	DB	02H
	DB	02H
	DB	02H
	DB	02H
	DB	02H
	DB	02H
	DB	02H
	DB	02H
	DB	036H
	DB	022H
	DB	030H
	DB	030H
	DB	030H
	DB	030H
	DB	030H
	DB	030H
	DB	030H
	DB	030H
	DB	030H
	DB	030H
	DB	030H
	DB	030H
	DB	030H
	DB	030H
	DB	030H
	DB	030H
	DB	012H
	DB	02aH
	DB	02H
	DB	02H
	DB	01cH
	DB	02eH
	DB	05fH
	DB	020H
	DB	030H
	DB	030H
	DB	030H
	DB	030H
	DB	030H
	DB	030H
	DB	030H
	DB	030H
	DB	030H
	DB	030H
	DB	030H
	DB	030H
	DB	030H
	DB	030H
	DB	030H
	DB	048H
	DB	012H
	DB	030H
	DB	030H
	DB	030H
	DB	057H
	DB	05cH
	DB	02H
	DB	02H
	DB	02H
	DB	02H
	DB	02H
	DB	02H
	DB	02H
	DB	02H
	DB	02H
	DB	02H
	DB	02H
	DB	02H
	DB	02H
	DB	02H
	DB	02H
	DB	02H
	DB	02H
	DB	02H
	DB	05fH
	DB	020H
	DB	030H
	DB	030H
	DB	030H
	DB	030H
	DB	030H
	DB	030H
	DB	030H
	DB	030H
	DB	030H
	DB	030H
	DB	030H
	DB	030H
	DB	030H
	DB	012H
	DB	03bH
	DB	035H
	DB	02H
	DB	02H
	DB	02H
	DB	02H
	DB	02H
	DB	04eH
	DB	04H
	DB	03H
	DB	04H
	DB	021H
	DB	01cH
	DB	02H
	DB	02H
	DB	02H
	DB	02H
	DB	02H
	DB	02H
	DB	02H
	DB	02H
	DB	02H
	DB	02H
	DB	01cH
	DB	017H
	DB	055H
	DB	030H
	DB	030H
	DB	030H
	DB	030H
	DB	030H
	DB	030H
	DB	030H
	DB	030H
	DB	030H
	DB	030H
	DB	030H
	DB	030H
	DB	030H
	DB	030H
	DB	030H
	DB	057H
	DB	08bH
	DB	02H
	DB	02H
	DB	02H
	DB	033H
	DB	0b2H
	DB	05fH
	DB	030H
	DB	030H
	DB	030H
	DB	030H
	DB	030H
	DB	030H
	DB	030H
	DB	030H
	DB	030H
	DB	030H
	DB	0b7H
	DB	067H
	DB	0c6H
	DB	02H
	DB	02H
	DB	02H
	DB	02H
	DB	02H
	DB	02H
	DB	02H
	DB	03aH
	DB	05dH
	DB	012H
	DB	030H
	DB	030H
	DB	030H
	DB	030H
	DB	030H
	DB	030H
	DB	030H
	DB	030H
	DB	030H
	DB	030H
	DB	030H
	DB	030H
	DB	030H
	DB	030H
	DB	030H
	DB	012H
	DB	048H
	DB	030H
	DB	030H
	DB	030H
	DB	030H
	DB	030H
	DB	030H
	DB	030H
	DB	030H
	DB	030H
	DB	030H
	DB	030H
	DB	030H
	DB	030H
	DB	030H
	DB	030H
	DB	030H
	DB	020H
	DB	03bH
	DB	02aH
	DB	076H
	DB	020H
	DB	030H
	DB	030H
	DB	057H
	DB	041H
	DB	05aH
	DB	020H
	DB	030H
	DB	030H
	DB	030H
	DB	057H
	DB	02eH
	DB	02H
	DB	02H
	DB	02H
	DB	02H
	DB	02H
	DB	02H
	DB	02H
	DB	02H
	DB	02H
	DB	02H
	DB	02H
	DB	02H
	DB	02H
	DB	02H
	DB	02H
	DB	02H
	DB	02H
	DB	02H
	DB	02H
	DB	02H
	DB	05aH
	DB	030H
	DB	030H
	DB	030H
	DB	030H
	DB	057H
	DB	08aH
	DB	02H
	DB	02H
	DB	02H
	DB	02H
	DB	02H
	DB	02H
	DB	02H
	DB	02H
	DB	02H
	DB	02H
	DB	02H
	DB	02H
	DB	02H
	DB	02H
	DB	02H
	DB	02H
	DB	02H
	DB	02H
	DB	02H
	DB	02H
	DB	02H
	DB	02H
	DB	02H
	DB	02H
	DB	02H
	DB	02H
	DB	02H
	DB	02H
	DB	02H
	DB	02H
	DB	02H
	DB	02H
	DB	02H
	DB	02H
	DB	02H
	DB	02H
	DB	02H
	DB	02H
	DB	02H
	DB	02H
	DB	02H
	DB	02H
	DB	02H
	DB	02H
	DB	02H
	DB	02H
	DB	02H
	DB	02H
	DB	02H
	DB	02H
	DB	02H
	DB	02H
	DB	02H
	DB	02H
	DB	02H
	DB	02H
	DB	02H
	DB	02H
	DB	02H
	DB	02H
	DB	02H
	DB	02H
	DB	02H
	DB	02H
	DB	02H
	DB	02H
	DB	02H
	DB	02H
	DB	02H
	DB	02H
	DB	02H
	DB	02H
	DB	02H
	DB	02H
	DB	02H
	DB	02H
	DB	02H
	DB	02H
	DB	02H
	DB	02H
	DB	02H
	DB	02H
	DB	02H
	DB	02H
	DB	02H
	DB	02H
	DB	02H
	DB	02H
	DB	02H
	DB	02H
	DB	02H
	DB	02H
	DB	02H
	DB	02H
	DB	02H
	DB	02H
	DB	02H
	DB	02H
	DB	02H
	DB	02H
	DB	02H
	DB	02H
	DB	02H
	DB	02H
	DB	02H
	DB	02H
	DB	02H
	DB	02H
	DB	02H
	DB	02H
	DB	02H
	DB	02H
	DB	02H
	DB	02H
	DB	02H
	DB	02H
	DB	02H
	DB	02H
	DB	02H
	DB	02H
	DB	02H
	DB	02H
	DB	02H
	DB	02H
	DB	02H
	DB	02H
	DB	02H
	DB	02H
	DB	02H
	DB	02H
	DB	02H
	DB	02H
	DB	02H
	DB	02H
	DB	02H
	DB	02H
	DB	02H
	DB	02H
	DB	02H
	DB	02H
	DB	02H
	DB	02H
	DB	02H
	DB	02H
	DB	02H
	DB	02H
	DB	02H
	DB	02H
	DB	02H
	DB	02H
	DB	02H
	DB	02H
	DB	02H
	DB	02H
	DB	02H
	DB	02H
	DB	02H
	DB	02H
	DB	02H
	DB	02H
	DB	02H
	DB	02H
	DB	02H
	DB	02H
	DB	02H
	DB	02H
	DB	02H
	DB	02H
	DB	02H
	DB	02H
	DB	02H
	DB	02H
	DB	02H
	DB	02H
	DB	02H
	DB	02H
	DB	02H
	DB	02H
	DB	02H
	DB	02H
	DB	02H
	DB	02H
	DB	02H
	DB	02H
	DB	02H
	DB	02H
	DB	02H
	DB	02H
	DB	02H
	DB	02H
	DB	02H
	DB	02H
	DB	02H
	DB	02H
	DB	02H
	DB	02H
	DB	02H
	DB	02H
	DB	02H
	DB	02H
	DB	02H
	DB	02H
	DB	02H
	DB	035H
	DB	0feH
	DB	032H
	DB	04H
	DB	04H
	DB	02eH
	DB	02H
	DB	02H
	DB	02H
	DB	02H
	DB	02H
	DB	02H
	DB	02H
	DB	02H
	DB	02H
	DB	02H
	DB	02H
	DB	02H
	DB	02H
	DB	02H
	DB	02H
	DB	02H
	DB	02H
	DB	02H
	DB	02H
	DB	02H
	DB	02H
	DB	02H
	DB	02H
	DB	02H
	DB	02H
	DB	02H
	DB	02H
	DB	02H
	DB	02H
	DB	02H
	DB	02H
	DB	02H
	DB	02H
	DB	02H
	DB	02H
	DB	02H
	DB	02H
	DB	02H
	DB	02H
	DB	02H
	DB	02H
	DB	02H
	DB	02H
	DB	02H
	DB	02H
	DB	02H
	DB	02H
	DB	02H
	DB	02H
	DB	02H
	DB	02H
	DB	02H
	DB	02H
	DB	02H
	DB	02H
	DB	02H
	DB	02H
	DB	02H
	DB	02H
	DB	02H
	DB	02H
	DB	02H
	DB	02H
	DB	02H
	DB	02H
	DB	02H
	DB	02H
	DB	02H
	DB	02H
	DB	02H
	DB	02H
	DB	02H
	DB	02H
	DB	02H
	DB	02H
	DB	02H
	DB	02H
	DB	02H
	DB	02H
	DB	02H
	DB	02H
	DB	02H
	DB	02H
	DB	02H
	DB	02H
	DB	02H
	DB	02H
	DB	02H
	DB	02H
	DB	02H
	DB	02H
	DB	02H
	DB	02H
	DB	02H
	DB	02H
	DB	02H
	DB	02H
	DB	02H
	DB	02H
	DB	02H
	DB	02H
	DB	02H
	DB	02H
	DB	02H
	DB	02H
	DB	02H
	DB	02H
	DB	02H
	DB	02H
	DB	02H
	DB	02H
	DB	02H
	DB	02H
	DB	02H
	DB	02H
	DB	02H
	DB	02H
	DB	02H
	DB	02H
	DB	02H
	DB	02H
	DB	02H
	DB	02H
	DB	02H
	DB	02H
	DB	02H
	DB	02H
	DB	02H
	DB	02H
	DB	02H
	DB	02H
	DB	02H
	DB	02H
	DB	02H
	DB	02H
	DB	02H
	DB	02H
	DB	02H
	DB	02H
	DB	02H
	DB	02H
	DB	02H
	DB	02H
	DB	02H
	DB	02H
	DB	02H
	DB	02H
	DB	02H
	DB	02H
	DB	02H
	DB	02H
	DB	02H
	DB	02H
	DB	02H
	DB	02H
	DB	02H
	DB	02H
	DB	02H
	DB	02H
	DB	02H
	DB	02H
	DB	02H
	DB	02H
	DB	02H
	DB	02H
	DB	02H
	DB	02H
	DB	02H
	DB	02H
	DB	02H
	DB	02H
	DB	02H
	DB	02H
	DB	02H
	DB	02H
	DB	02H
	DB	02H
	DB	02H
	DB	02H
	DB	02H
	DB	02H
	DB	02H
	DB	02H
	DB	02H
	DB	02H
	DB	02H
	DB	02H
	DB	02H
	DB	02H
	DB	02H
	DB	02H
	DB	02H
	DB	02H
	DB	02H
	DB	02H
	DB	02H
	DB	02H
	DB	02H
	DB	02H
	DB	02H
	DB	02H
	DB	02H
	DB	02H
	DB	02H
	DB	02H
	DB	02H
	DB	02H
	DB	02H
	DB	02H
	DB	02H
	DB	02H
	DB	02H
	DB	02H
	DB	02H
	DB	02H
	DB	02H
	DB	02H
	DB	02H
	DB	02H
	DB	02H
	DB	02H
	DB	02H
	DB	02H
	DB	02H
	DB	02H
	DB	02H
	DB	02H
	DB	02H
	DB	02H
	DB	02H
	DB	02H
	DB	02H
	DB	02H
	DB	02H
	DB	02H
	DB	02H
	DB	02H
	DB	02H
	DB	02H
	DB	02H
	DB	02H
	DB	02H
	DB	02H
	DB	02H
	DB	02H
	DB	02H
	DB	02H
	DB	02H
	DB	02H
	DB	02H
	DB	02H
	DB	02H
	DB	02H
	DB	02H
	DB	02H
	DB	02H
	DB	02H
	DB	02H
	DB	02H
	DB	02H
	DB	02H
	DB	02H
	DB	02H
	DB	02H
	DB	02H
	DB	02H
	DB	02H
	DB	02H
	DB	02H
	DB	02H
	DB	02H
	DB	02H
	DB	02H
	DB	02H
	DB	02H
	DB	02H
	DB	02H
	DB	02H
	DB	02H
	DB	02H
	DB	02H
	DB	02H
	DB	02H
	DB	02H
	DB	02H
	DB	02H
	DB	02H
	DB	02H
	DB	02H
	DB	02H
	DB	02H
	DB	02H
	DB	02H
	DB	02H
	DB	02H
	DB	02H
	DB	02H
	DB	02H
	DB	02H
	DB	02H
	DB	02H
	DB	02H
	DB	02H
	DB	02H
	DB	02H
	DB	02H
	DB	02H
	DB	02H
	DB	02H
	DB	02H
	DB	02H
	DB	02H
	DB	02H
	DB	02H
	DB	02H
	DB	02H
	DB	02H
	DB	02H
	DB	02H
	DB	02H
	DB	02H
	DB	02H
	DB	02H
	DB	02H
	DB	02H
	DB	02H
	DB	02H
	DB	02H
	DB	02H
	DB	02H
	DB	02H
	DB	02H
	DB	02H
	DB	02H
	DB	02H
	DB	02H
	DB	02H
	DB	02H
	DB	02H
	DB	02bH
	DB	090H
	DB	057H
	DB	025H
	DB	068H
	DB	02H
	DB	02H
	DB	02H
	DB	02H
	DB	02H
	DB	02H
	DB	02H
	DB	02H
	DB	02H
	DB	02H
	DB	02H
	DB	02H
	DB	02H
	DB	02H
	DB	02H
	DB	02H
	DB	02H
	DB	02H
	DB	02H
	DB	02H
	DB	02H
	DB	02H
	DB	02H
	DB	02H
	DB	02H
	DB	02H
	DB	02H
	DB	02H
	DB	02H
	DB	02H
	DB	02H
	DB	02H
	DB	02H
	DB	02H
	DB	02H
	DB	02H
	DB	02H
	DB	02H
	DB	02H
	DB	02H
	DB	02H
	DB	02H
	DB	02H
	DB	02H
	DB	02H
	DB	02H
	DB	02H
	DB	02H
	DB	02H
	DB	02H
	DB	02H
	DB	02H
	DB	02H
	DB	02H
	DB	02H
	DB	02H
	DB	02H
	DB	02H
	DB	02H
	DB	02H
	DB	02H
	DB	02H
	DB	02H
	DB	02H
	DB	02H
	DB	02H
	DB	02H
	DB	02H
	DB	02H
	DB	02H
	DB	02H
	DB	02H
	DB	02H
	DB	02H
	DB	02H
	DB	02H
	DB	02H
	DB	02H
	DB	02H
	DB	02H
	DB	02H
	DB	02H
	DB	02H
	DB	02H
	DB	02H
	DB	02H
	DB	02H
	DB	02H
	DB	02H
	DB	02H
	DB	02H
	DB	02H
	DB	02H
	DB	02H
	DB	02H
	DB	02H
	DB	02H
	DB	02H
	DB	02H
	DB	02H
	DB	02H
	DB	02H
	DB	02H
	DB	02H
	DB	02H
	DB	02H
	DB	02H
	DB	02H
	DB	02H
	DB	02H
	DB	02H
	DB	02H
	DB	02H
	DB	02H
	DB	02H
	DB	02H
	DB	02H
	DB	02H
	DB	02H
	DB	02H
	DB	02H
	DB	02H
	DB	02H
	DB	02H
	DB	02H
	DB	02H
	DB	02H
	DB	02H
	DB	02H
	DB	02H
	DB	02H
	DB	02H
	DB	02H
	DB	02H
	DB	02H
	DB	02H
	DB	02H
	DB	02H
	DB	02H
	DB	02H
	DB	02H
	DB	02H
	DB	02H
	DB	02H
	DB	02H
	DB	02H
	DB	02H
	DB	02H
	DB	02H
	DB	02H
	DB	02H
	DB	02H
	DB	02H
	DB	02H
	DB	02H
	DB	02H
	DB	02H
	DB	02H
	DB	02H
	DB	02H
	DB	02H
	DB	02H
	DB	02H
	DB	02H
	DB	02H
	DB	02H
	DB	02H
	DB	02H
	DB	02H
	DB	02H
	DB	02H
	DB	02H
	DB	02H
	DB	02H
	DB	02H
	DB	02H
	DB	02H
	DB	02H
	DB	02H
	DB	02H
	DB	02H
	DB	02H
	DB	02H
	DB	02H
	DB	02H
	DB	02H
	DB	02H
	DB	02H
	DB	02H
	DB	02H
	DB	02H
	DB	02H
	DB	02H
	DB	02H
	DB	02H
	DB	02H
	DB	02H
	DB	02H
	DB	02H
	DB	02H
	DB	02H
	DB	02H
	DB	02H
	DB	02H
	DB	02H
	DB	02H
	DB	02H
	DB	02H
	DB	02H
	DB	02H
	DB	02H
	DB	02H
	DB	02H
	DB	02H
	DB	02H
	DB	02H
	DB	02H
	DB	02H
	DB	02H
	DB	02H
	DB	02H
	DB	02H
	DB	02H
	DB	02H
	DB	02H
	DB	02H
	DB	02H
	DB	02H
	DB	02H
	DB	02H
	DB	02H
	DB	02H
	DB	02H
	DB	02H
	DB	02H
	DB	02H
	DB	02H
	DB	02H
	DB	02H
	DB	02H
	DB	02H
	DB	02H
	DB	02H
	DB	02H
	DB	02H
	DB	02H
	DB	02H
	DB	02H
	DB	02H
	DB	02H
	DB	02H
	DB	02H
	DB	02H
	DB	02H
	DB	02H
	DB	02H
	DB	02H
	DB	02H
	DB	02H
	DB	02H
	DB	02H
	DB	02H
	DB	02H
	DB	02H
	DB	02H
	DB	02H
	DB	02H
	DB	02H
	DB	02H
	DB	02H
	DB	02H
	DB	02H
	DB	02H
	DB	02H
	DB	02H
	DB	02H
	DB	02H
	DB	02H
	DB	02H
	DB	02H
	DB	02H
	DB	02H
	DB	02H
	DB	02H
	DB	02H
	DB	02H
	DB	02H
	DB	02H
	DB	02H
	DB	02H
	DB	02H
	DB	02H
	DB	02H
	DB	02H
	DB	02H
	DB	02H
	DB	02H
	DB	02H
	DB	02H
	DB	02H
	DB	02H
	DB	02H
	DB	02H
	DB	02H
	DB	02H
	DB	02H
	DB	02H
	DB	02H
	DB	02H
	DB	02H
	DB	02H
	DB	02H
	DB	02H
	DB	02H
	DB	02H
	DB	02H
	DB	02H
	DB	02H
	DB	02H
	DB	02H
	DB	02H
	DB	02H
	DB	02H
	DB	02H
	DB	02H
	DB	02H
	DB	02H
	DB	02H
	DB	02H
	DB	02H
	DB	02H
	DB	02H
	DB	02H
	DB	02H
	DB	02H
	DB	02H
	DB	02H
	DB	02H
	DB	02H
	DB	02H
	DB	02H
	DB	02H
	DB	02H
	DB	05aH
	DB	033H
	DB	02H
	DB	02H
	DB	02H
	DB	02H
	DB	02H
	DB	02H
	DB	02H
	DB	02H
	DB	02H
	DB	02H
	DB	02H
	DB	02H
	DB	02H
	DB	02H
	DB	02H
	DB	02H
	DB	02H
	DB	02H
	DB	02H
	DB	02H
	DB	02H
	DB	02H
	DB	02H
	DB	02H
	DB	02H
	DB	02H
	DB	02H
	DB	02H
	DB	02H
	DB	02H
	DB	02H
	DB	02H
	DB	02H
	DB	02H
	DB	02H
	DB	02H
	DB	02H
	DB	02H
	DB	02H
	DB	02H
	DB	02H
	DB	02H
	DB	02H
	DB	02H
	DB	02H
	DB	02H
	DB	02H
	DB	02H
	DB	02H
	DB	02H
	DB	02H
	DB	02H
	DB	02H
	DB	02H
	DB	02H
	DB	02H
	DB	02H
	DB	02H
	DB	02H
	DB	02H
	DB	02H
	DB	02H
	DB	02H
	DB	02H
	DB	02H
	DB	02H
	DB	02H
	DB	02H
	DB	02H
	DB	02H
	DB	02H
	DB	02H
	DB	02H
	DB	02H
	DB	02H
	DB	02H
	DB	02H
	DB	02H
	DB	02H
	DB	02H
	DB	02H
	DB	02H
	DB	02H
	DB	02H
	DB	02H
	DB	02H
	DB	02H
	DB	02H
	DB	02H
	DB	02H
	DB	02H
	DB	02H
	DB	02H
	DB	02H
	DB	02H
	DB	02H
	DB	02H
	DB	02H
	DB	02H
	DB	02H
	DB	02H
	DB	02H
	DB	02H
	DB	02H
	DB	02H
	DB	02H
	DB	02H
	DB	02H
	DB	02H
	DB	02H
	DB	02H
	DB	02H
	DB	02H
	DB	02H
	DB	02H
	DB	02H
	DB	02H
	DB	02H
	DB	02H
	DB	02H
	DB	02H
	DB	02H
	DB	02H
	DB	02H
	DB	02H
	DB	02H
	DB	02H
	DB	02H
	DB	02H
	DB	02H
	DB	02H
	DB	02H
	DB	02H
	DB	02H
	DB	02H
	DB	02H
	DB	02H
	DB	02H
	DB	02H
	DB	02H
	DB	02H
	DB	02H
	DB	02H
	DB	02H
	DB	02H
	DB	02H
	DB	02H
	DB	02H
	DB	02H
	DB	02H
	DB	02H
	DB	02H
	DB	02H
	DB	02H
	DB	02H
	DB	02H
	DB	02H
	DB	02H
	DB	02H
	DB	02H
	DB	02H
	DB	02H
	DB	02H
	DB	02H
	DB	02H
	DB	02H
	DB	02H
	DB	02H
	DB	02H
	DB	02H
	DB	02H
	DB	02H
	DB	02H
	DB	02H
	DB	02H
	DB	02H
	DB	02H
	DB	02H
	DB	02H
	DB	02H
	DB	02H
	DB	02H
	DB	02H
	DB	02H
	DB	02H
	DB	02H
	DB	02H
	DB	02H
	DB	02H
	DB	02H
	DB	02H
	DB	02H
	DB	02H
	DB	02H
	DB	02H
	DB	02H
	DB	02H
	DB	02H
	DB	02H
	DB	02H
	DB	02H
	DB	02H
	DB	02H
	DB	02H
	DB	02H
	DB	02H
	DB	02H
	DB	02H
	DB	02H
	DB	02H
	DB	02H
	DB	02H
	DB	02H
	DB	02H
	DB	02H
	DB	02H
	DB	02H
	DB	02H
	DB	02H
	DB	02H
	DB	02H
	DB	02H
	DB	02H
	DB	02H
	DB	02H
	DB	02H
	DB	02H
	DB	02H
	DB	02H
	DB	02H
	DB	02H
	DB	02H
	DB	02H
	DB	02H
	DB	02H
	DB	02H
	DB	02H
	DB	02H
	DB	02H
	DB	02H
	DB	02H
	DB	02H
	DB	02H
	DB	02H
	DB	02H
	DB	02H
	DB	02H
	DB	02H
	DB	02H
	DB	02H
	DB	02H
	DB	02H
	DB	02H
	DB	02H
	DB	02H
	DB	02H
	DB	02H
	DB	02H
	DB	02H
	DB	02H
	DB	02H
	DB	02H
	DB	02H
	DB	02H
	DB	02H
	DB	02H
	DB	02H
	DB	02H
	DB	02H
	DB	02H
	DB	02H
	DB	02H
	DB	02H
	DB	02H
	DB	02H
	DB	02H
	DB	02H
	DB	02H
	DB	02H
	DB	02H
	DB	02H
	DB	02H
	DB	02H
	DB	02H
	DB	02H
	DB	02H
	DB	02H
	DB	02H
	DB	02H
	DB	02H
	DB	02H
	DB	02H
	DB	02H
	DB	02H
	DB	02H
	DB	02H
	DB	02H
	DB	02H
	DB	02H
	DB	02H
	DB	02H
	DB	02H
	DB	02H
	DB	02H
	DB	02H
	DB	02H
	DB	02H
	DB	02H
	DB	02H
	DB	02H
	DB	02H
	DB	02H
	DB	02H
	DB	02H
	DB	02H
	DB	02H
	DB	02H
	DB	02H
	DB	02H
	DB	02H
	DB	02H
	DB	02H
	DB	02H
	DB	02H
	DB	02H
	DB	02H
	DB	02H
	DB	02H
	DB	02H
	DB	02H
	DB	02H
	DB	02H
	DB	02H
	DB	02H
	DB	02H
	DB	02H
	DB	02H
	DB	02H
	DB	02H
	DB	02H
	DB	02H
	DB	02H
	DB	02H
	DB	02H
	DB	02H
	DB	02H
	DB	02H
	DB	02H
	DB	02H
	DB	02H
	DB	02H
	DB	02H
	DB	02H
	DB	02H
	DB	02H
	DB	02H
	DB	02H
	DB	02H
	DB	02H
	DB	02H
	DB	02H
	DB	02H
	DB	02H
	DB	02H
	DB	02H
	DB	02H
	DB	02H
	DB	02H
	DB	02H
	DB	02H
	DB	02H
	DB	02H
	DB	02H
	DB	02H
	DB	02H
	DB	02H
	DB	02H
	DB	02H
	DB	02H
	DB	02H
	DB	02H
	DB	02H
	DB	02H
	DB	02H
	DB	02H
	DB	02H
	DB	02H
	DB	02H
	DB	02H
	DB	02H
	DB	02H
	DB	02H
	DB	02H
	DB	02H
	DB	02H
	DB	02H
	DB	02H
	DB	02H
	DB	02H
	DB	02H
	DB	02H
	DB	02H
	DB	02H
	DB	02H
	DB	02H
	DB	02H
	DB	02H
	DB	02H
	DB	02H
	DB	02H
	DB	02H
	DB	02H
	DB	02H
	DB	02H
	DB	02H
	DB	02H
	DB	02H
	DB	02H
	DB	02H
	DB	02H
	DB	02H
	DB	02H
	DB	02H
	DB	02H
	DB	02H
	DB	02H
	DB	02H
	DB	02H
	DB	02H
	DB	02H
	DB	02H
	DB	02H
	DB	02H
	DB	02H
	DB	02H
	DB	02H
	DB	02H
	DB	02H
	DB	02H
	DB	02H
	DB	02H
	DB	02H
	DB	02H
	DB	02H
	DB	02H
	DB	02H
	DB	02H
	DB	02H
	DB	02H
	DB	02H
	DB	02H
	DB	02H
	DB	02H
	DB	02H
	DB	02H
	DB	02H
	DB	02H
	DB	02H
	DB	02H
	DB	02H
	DB	02H
	DB	02H
	DB	02H
	DB	02H
	DB	02H
	DB	02H
	DB	02H
	DB	02H
	DB	02H
	DB	02H
	DB	02H
	DB	02H
	DB	02H
	DB	02H
	DB	02H
	DB	02H
	DB	02H
	DB	02H
	DB	02H
	DB	02H
	DB	02H
	DB	02H
	DB	02H
	DB	02H
	DB	02H
	DB	02H
	DB	02H
	DB	02H
	DB	02H
	DB	02H
	DB	02H
	DB	02H
	DB	02H
	DB	02H
	DB	02H
	DB	02H
	DB	02H
	DB	02H
	DB	02H
	DB	02H
	DB	02H
	DB	02H
	DB	02H
	DB	02H
	DB	02H
	DB	02H
	DB	02H
	DB	02H
	DB	02H
	DB	02H
	DB	02H
	DB	02H
	DB	02H
	DB	02H
	DB	02H
	DB	02H
	DB	02H
	DB	02H
	DB	02H
	DB	02H
	DB	02H
	DB	02H
	DB	02H
	DB	02H
	DB	02H
	DB	02H
	DB	02H
	DB	02H
	DB	02H
	DB	02H
	DB	02H
	DB	02H
	DB	02H
	DB	02H
	DB	02H
	DB	02H
	DB	02H
	DB	02H
	DB	02H
	DB	02H
	DB	02H
	DB	02H
	DB	02H
	DB	02H
	DB	02H
	DB	02H
	DB	02H
	DB	02H
	DB	02H
	DB	02H
	DB	02H
	DB	02H
	DB	02H
	DB	02H
	DB	02H
	DB	02H
	DB	02H
	DB	02H
	DB	02H
	DB	02H
	DB	02H
	DB	02H
	DB	02H
	DB	02H
	DB	02H
	DB	02H
	DB	02H
	DB	02H
	DB	02H
	DB	02H
	DB	02H
	DB	02H
	DB	02H
	DB	02H
	DB	02H
	DB	02H
	DB	02H
	DB	02H
	DB	02H
	DB	02H
	DB	02H
	DB	02H
	DB	02H
	DB	02H
	DB	02H
	DB	02H
	DB	02H
	DB	02H
	DB	02H
	DB	02H
	DB	02H
	DB	02H
	DB	02H
	DB	02H
	DB	02H
	DB	02H
	DB	02H
	DB	02H
	DB	02H
	DB	02H
	DB	02H
	DB	02H
	DB	02H
	DB	02H
	DB	02H
	DB	02H
	DB	02H
	DB	02H
	DB	02H
	DB	02H
	DB	02H
	DB	02H
	DB	02H
	DB	02H
	DB	02H
	DB	02H
	DB	02H
	DB	02H
	DB	02H
	DB	02H
	DB	02H
	DB	02H
	DB	02H
	DB	02H
	DB	02H
	DB	02H
	DB	02H
	DB	02H
	DB	02H
	DB	02H
	DB	02H
	DB	02H
	DB	02H
	DB	02H
	DB	02H
	DB	02H
	DB	02H
	DB	02H
	DB	02H
	DB	02H
	DB	02H
	DB	02H
	DB	02H
	DB	02H
	DB	02H
	DB	02H
	DB	02H
	DB	02H
	DB	02H
	DB	02H
	DB	02H
	DB	02H
	DB	02H
	DB	02H
	DB	02H
	DB	02H
	DB	02H
	DB	02H
	DB	02H
	DB	02H
	DB	02H
	DB	02H
	DB	02H
	DB	02H
	DB	02H
	DB	02H
	DB	02H
	DB	02H
	DB	02H
	DB	02H
	DB	02H
	DB	02H
	DB	02H
	DB	02H
	DB	02H
	DB	02H
	DB	02H
	DB	02H
	DB	02H
	DB	02H
	DB	02H
	DB	02H
	DB	02H
	DB	02H
	DB	02H
	DB	02H
	DB	02H
	DB	02H
	DB	02H
	DB	02H
	DB	02H
	DB	02H
	DB	02H
	DB	02H
	DB	02H
	DB	02H
	DB	02H
	DB	02H
	DB	02H
	DB	02H
	DB	02H
	DB	02H
	DB	02H
	DB	02H
	DB	02H
	DB	02H
	DB	02H
	DB	02H
	DB	02H
	DB	02H
	DB	02H
	DB	02H
	DB	02H
	DB	02H
	DB	02H
	DB	02H
	DB	02H
	DB	02H
	DB	02H
	DB	02H
	DB	02H
	DB	02H
	DB	02H
	DB	02H
	DB	02H
	DB	02H
	DB	02H
	DB	02H
	DB	02H
	DB	02H
	DB	02H
	DB	02H
	DB	02H
	DB	02H
	DB	02H
	DB	02H
	DB	02H
	DB	02H
	DB	02H
	DB	02H
	DB	02H
	DB	02H
	DB	02H
	DB	02H
	DB	02H
	DB	02H
	DB	02H
	DB	02H
	DB	02H
	DB	02H
	DB	02H
	DB	02H
	DB	02H
	DB	02H
	DB	02H
	DB	02H
	DB	02H
	DB	02H
	DB	02H
	DB	02H
	DB	02H
	DB	02H
	DB	02H
	DB	02H
	DB	02H
	DB	02H
	DB	02H
	DB	02H
	DB	02H
	DB	02H
	DB	02H
	DB	02H
	DB	02H
	DB	02H
	DB	02H
	DB	02H
	DB	02H
	DB	02H
	DB	02H
	DB	02H
	DB	02H
	DB	02H
	DB	02H
	DB	02H
	DB	02H
	DB	02H
	DB	02H
	DB	02H
	DB	02H
	DB	02H
	DB	02H
	DB	02H
	DB	02H
	DB	02H
	DB	02H
	DB	02H
	DB	02H
	DB	02H
	DB	02H
	DB	02H
	DB	02H
	DB	02H
	DB	02H
	DB	02H
	DB	02H
	DB	02H
	DB	02H
	DB	02H
	DB	02H
	DB	02H
	DB	02H
	DB	02H
	DB	02H
	DB	02H
	DB	02H
	DB	02H
	DB	02H
	DB	02H
	DB	02H
	DB	02H
	DB	02H
	DB	02H
	DB	02H
	DB	02H
	DB	02H
	DB	02H
	DB	02H
	DB	02H
	DB	02H
	DB	02H
	DB	02H
	DB	02H
	DB	02H
	DB	02H
	DB	02H
	DB	02H
	DB	02H
	DB	02H
	DB	02H
	DB	02H
	DB	02H
	DB	02H
	DB	02H
	DB	02H
	DB	02H
	DB	02H
	DB	02H
	DB	02H
	DB	02H
	DB	02H
	DB	02H
	DB	02H
	DB	02H
	DB	02H
	DB	02H
	DB	02H
	DB	02H
	DB	02H
	DB	02H
	DB	02H
	DB	02H
	DB	02H
	DB	02H
	DB	02H
	DB	02H
	DB	02H
	DB	02H
	DB	02H
	DB	02H
	DB	02H
	DB	02H
	DB	02H
	DB	02H
	DB	02H
	DB	02H
	DB	02H
	DB	02H
	DB	02H
	DB	02H
	DB	02H
	DB	02H
	DB	02H
	DB	02H
	DB	02H
	DB	02H
	DB	02H
	DB	02H
	DB	02H
	DB	02H
	DB	02H
	DB	02H
	DB	02H
	DB	02H
	DB	02H
	DB	02H
	DB	02H
	DB	02H
	DB	02H
	DB	02H
	DB	02H
	DB	02H
	DB	02H
	DB	02H
	DB	02H
	DB	02H
	DB	02H
	DB	02H
	DB	02H
	DB	02H
	DB	02H
	DB	02H
	DB	02H
	DB	02H
	DB	02H
	DB	02H
	DB	02H
	DB	02H
	DB	02H
	DB	02H
	DB	02H
	DB	02H
	DB	02H
	DB	02H
	DB	02H
	DB	02H
	DB	02H
	DB	02H
	DB	02H
	DB	02H
	DB	02H
	DB	02H
	DB	02H
	DB	02H
	DB	02H
	DB	02H
	DB	02H
	DB	02H
	DB	02H
	DB	02H
	DB	02H
	DB	02H
	DB	02H
	DB	02H
	DB	02H
	DB	02H
	DB	02H
	DB	02H
	DB	02H
	DB	02H
	DB	02H
	DB	02H
	DB	02H
	DB	02H
	DB	02H
	DB	02H
	DB	02H
	DB	02H
	DB	02H
	DB	02H
	DB	02H
	DB	02H
	DB	02H
	DB	02H
	DB	02H
	DB	02H
	DB	02H
	DB	02H
	DB	02H
	DB	02H
	DB	02H
	DB	02H
	DB	02H
	DB	02H
	DB	02H
	DB	02H
	DB	02H
	DB	02H
	DB	02H
	DB	02H
	DB	02H
	DB	02H
	DB	02H
	DB	02H
	DB	02H
	DB	02H
	DB	02H
	DB	02H
	DB	02H
	DB	02H
	DB	02H
	DB	02H
	DB	02H
	DB	02H
	DB	02H
	DB	02H
	DB	02H
	DB	02H
	DB	02H
	DB	02H
	DB	02H
	DB	02H
	DB	02H
	DB	02H
	DB	02H
	DB	02H
	DB	02H
	DB	02H
	DB	02H
	DB	02H
	DB	02H
	DB	02H
	DB	02H
	DB	02H
	DB	02H
	DB	02H
	DB	02H
	DB	02H
	DB	02H
	DB	02H
	DB	02H
	DB	02H
	DB	02H
	DB	02H
	DB	02H
	DB	02H
	DB	02H
	DB	02H
	DB	02H
	DB	02H
	DB	02H
	DB	02H
	DB	02H
	DB	02H
	DB	02H
	DB	02H
	DB	02H
	DB	02H
	DB	02H
	DB	02H
	DB	02H
	DB	02H
	DB	02H
	DB	02H
	DB	02H
	DB	02H
	DB	02H
	DB	02H
	DB	02H
	DB	02H
	DB	02H
	DB	02H
	DB	02H
	DB	02H
	DB	02H
	DB	02H
	DB	02H
	DB	02H
	DB	02H
	DB	02H
	DB	02H
	DB	02H
	DB	02H
	DB	02H
	DB	02H
	DB	02H
	DB	02H
	DB	02H
	DB	02H
	DB	02H
	DB	02H
	DB	02H
	DB	02H
	DB	02H
	DB	02H
	DB	02H
	DB	02H
	DB	02H
	DB	02H
	DB	02H
	DB	02H
	DB	02H
	DB	02H
	DB	02H
	DB	02H
	DB	02H
	DB	02H
	DB	02H
	DB	02H
	DB	02H
	DB	02H
	DB	02H
	DB	02H
	DB	02H
	DB	02H
	DB	02H
	DB	02H
	DB	02H
	DB	02H
	DB	02H
	DB	02H
	DB	02H
	DB	02H
	DB	02H
	DB	02H
	DB	02H
	DB	02H
	DB	02H
	DB	02H
	DB	02H
	DB	02H
	DB	02H
	DB	02H
	DB	02H
	DB	02H
	DB	02H
	DB	02H
	DB	02H
	DB	02H
	DB	02H
	DB	02H
	DB	02H
	DB	02H
	DB	02H
	DB	02H
	DB	02H
	DB	02H
	DB	02H
	DB	02H
	DB	02H
	DB	02H
	DB	02H
	DB	02H
	DB	02H
	DB	02H
	DB	02H
	DB	02H
	DB	02H
	DB	02H
	DB	02H
	DB	02H
	DB	02H
	DB	02H
	DB	02H
	DB	02H
	DB	02H
	DB	02H
	DB	02H
	DB	02H
	DB	02H
	DB	02H
	DB	02H
	DB	02H
	DB	02H
	DB	02H
	DB	02H
	DB	02H
	DB	02H
	DB	02H
	DB	02H
	DB	02H
	DB	02H
	DB	02H
	DB	02H
	DB	02H
	DB	02H
	DB	02H
	DB	02H
	DB	02H
	DB	02H
	DB	02H
	DB	02H
	DB	02H
	DB	02H
	DB	02H
	DB	02H
	DB	02H
	DB	02H
	DB	02H
	DB	02H
	DB	02H
	DB	02H
	DB	02H
	DB	02H
	DB	02H
	DB	02H
	DB	02H
	DB	02H
	DB	02H
	DB	02H
	DB	02H
	DB	02H
	DB	02H
	DB	02H
	DB	02H
	DB	02H
	DB	02H
	DB	02H
	DB	02H
	DB	02H
	DB	02H
	DB	02H
	DB	02H
	DB	02H
	DB	02H
	DB	02H
	DB	02H
	DB	02H
	DB	02H
	DB	02H
	DB	02H
	DB	02H
	DB	02H
	DB	02H
	DB	02H
	DB	02H
	DB	02H
	DB	02H
	DB	02H
	DB	02H
	DB	02H
	DB	02H
	DB	02H
	DB	02H
	DB	02H
	DB	02H
	DB	02H
	DB	02H
	DB	02H
	DB	02H
	DB	02H
	DB	02H
	DB	02H
	DB	02H
	DB	02H
	DB	02H
	DB	02H
	DB	02H
	DB	02H
	DB	02H
	DB	02H
	DB	02H
	DB	02H
	DB	02H
	DB	02H
	DB	02H
	DB	02H
	DB	02H
	DB	02H
	DB	02H
	DB	02H
	DB	02H
	DB	02H
	DB	02H
	DB	02H
	DB	02H
	DB	02H
	DB	02H
	DB	02H
	DB	02H
	DB	02H
	DB	02H
	DB	02H
	DB	02H
	DB	02H
	DB	02H
	DB	02H
	DB	02H
	DB	02H
	DB	02H
	DB	02H
	DB	02H
	DB	02H
	DB	02H
	DB	02H
	DB	02H
	DB	02H
	DB	02H
	DB	02H
	DB	02H
	DB	02H
	DB	02H
	DB	02H
	DB	02H
	DB	02H
	DB	02H
	DB	02H
	DB	02H
	DB	02H
	DB	02H
	DB	02H
	DB	02H
	DB	02H
	DB	02H
	DB	02H
	DB	02H
	DB	02H
	DB	02H
	DB	02H
	DB	02H
	DB	02H
	DB	02H
	DB	02H
	DB	02H
	DB	02H
	DB	02H
	DB	02H
	DB	02H
	DB	02H
	DB	02H
	DB	02H
	DB	02H
	DB	02H
	DB	02H
	DB	02H
	DB	02H
	DB	02H
	DB	02H
	DB	02H
	DB	02H
	DB	02H
	DB	02H
	DB	02H
	DB	02H
	DB	02H
	DB	02H
	DB	02H
	DB	02H
	DB	02H
	DB	02H
	DB	02H
	DB	02H
	DB	02H
	DB	02H
	DB	02H
	DB	02H
	DB	02H
	DB	02H
	DB	02H
	DB	02H
	DB	02H
	DB	02H
	DB	02H
	DB	02H
	DB	02H
	DB	02H
	DB	02H
	DB	02H
	DB	02H
	DB	02H
	DB	02H
	DB	02H
	DB	02H
	DB	02H
	DB	02H
	DB	02H
	DB	02H
	DB	02H
	DB	02H
	DB	02H
	DB	02H
	DB	02H
	DB	02H
	DB	02H
	DB	02H
	DB	02H
	DB	02H
	DB	02H
	DB	02H
	DB	02H
	DB	02H
	DB	02H
	DB	02H
	DB	02H
	DB	02H
	DB	02H
	DB	02H
	DB	02H
	DB	02H
	DB	02H
	DB	02H
	DB	02H
	DB	02H
	DB	02H
	DB	02H
	DB	02H
	DB	02H
	DB	02H
	DB	02H
	DB	02H
	DB	02H
	DB	02H
	DB	02H
	DB	02H
	DB	02H
	DB	02H
	DB	02H
	DB	02H
	DB	02H
	DB	02H
	DB	02H
	DB	02H
	DB	02H
	DB	02H
	DB	02H
	DB	02H
	DB	02H
	DB	02H
	DB	02H
	DB	02H
	DB	02H
	DB	02H
	DB	02H
	DB	02H
	DB	02H
	DB	02H
	DB	02H
	DB	02H
	DB	02H
	DB	02H
	DB	02H
	DB	02H
	DB	02H
	DB	02H
	DB	02H
	DB	02H
	DB	02H
	DB	02H
	DB	02H
	DB	02H
	DB	02H
	DB	02H
	DB	02H
	DB	02H
	DB	02H
	DB	02H
	DB	02H
	DB	02H
	DB	02H
	DB	02H
	DB	02H
	DB	02H
	DB	02H
	DB	02H
	DB	02H
	DB	02H
	DB	02H
	DB	02H
	DB	02H
	DB	02H
	DB	02H
	DB	02H
	DB	02H
	DB	02H
	DB	02H
	DB	02H
	DB	02H
	DB	02H
	DB	02H
	DB	02H
	DB	02H
	DB	02H
	DB	02H
	DB	02H
	DB	02H
	DB	02H
	DB	02H
	DB	02H
	DB	02H
	DB	02H
	DB	02H
	DB	02H
	DB	02H
	DB	02H
	DB	02H
	DB	02H
	DB	02H
	DB	02H
	DB	02H
	DB	02H
	DB	02H
	DB	02H
	DB	02H
	DB	02H
	DB	02H
	DB	02H
	DB	02H
	DB	02H
	DB	02H
	DB	02H
	DB	02H
	DB	02H
	DB	02H
	DB	02H
	DB	02H
	DB	02H
	DB	02H
	DB	02H
	DB	02H
	DB	02H
	DB	02H
	DB	02H
	DB	02H
	DB	02H
	DB	02H
	DB	02H
	DB	02H
	DB	02H
	DB	02H
	DB	02H
	DB	02H
	DB	02H
	DB	02H
	DB	02H
	DB	02H
	DB	02H
	DB	02H
	DB	02H
	DB	02H
	DB	02H
	DB	02H
	DB	02H
	DB	02H
	DB	02H
	DB	02H
	DB	02H
	DB	02H
	DB	02H
	DB	02H
	DB	02H
	DB	02H
	DB	02H
	DB	02H
	DB	02H
	DB	02H
	DB	02H
	DB	02H
	DB	02H
	DB	02H
	DB	02H
	DB	02H
	DB	02H
	DB	02H
	DB	02H
	DB	02H
	DB	02H
	DB	02H
	DB	02H
	DB	02H
	DB	02H
	DB	02H
	DB	02H
	DB	02H
	DB	02H
	DB	02H
	DB	02H
	DB	02H
	DB	02H
	DB	02H
	DB	02H
	DB	02H
	DB	02H
	DB	02H
	DB	02H
	DB	02H
	DB	02H
	DB	02H
	DB	02H
	DB	02H
	DB	02H
	DB	02H
	DB	02H
	DB	02H
	DB	02H
	DB	02H
	DB	02H
	DB	02H
	DB	02H
	DB	02H
	DB	02H
	DB	02H
	DB	02H
	DB	02H
	DB	02H
	DB	02H
	DB	02H
	DB	02H
	DB	02H
	DB	02H
	DB	02H
	DB	02H
	DB	02H
	DB	02H
	DB	02H
	DB	02H
	DB	02H
	DB	02H
	DB	02H
	DB	02H
	DB	02H
	DB	02H
	DB	02H
	DB	02H
	DB	02H
	DB	02H
	DB	02H
	DB	02H
	DB	02H
	DB	02H
	DB	02H
	DB	02H
	DB	02H
	DB	02H
	DB	02H
	DB	02H
	DB	02H
	DB	02H
	DB	02H
	DB	02H
	DB	02H
	DB	02H
	DB	02H
	DB	02H
	DB	02H
	DB	02H
	DB	02H
	DB	02H
	DB	02H
	DB	02H
	DB	02H
	DB	02H
	DB	02H
	DB	02H
	DB	02H
	DB	02H
	DB	02H
	DB	02H
	DB	02H
	DB	02H
	DB	02H
	DB	02H
	DB	02H
	DB	02H
	DB	02H
	DB	02H
	DB	02H
	DB	02H
	DB	02H
	DB	02H
	DB	02H
	DB	02H
	DB	02H
	DB	02H
	DB	02H
	DB	02H
	DB	02H
	DB	02H
	DB	02H
	DB	02H
	DB	02H
	DB	02H
	DB	02H
	DB	02H
	DB	02H
	DB	02H
	DB	02H
	DB	02H
	DB	02H
	DB	02H
	DB	02H
	DB	02H
	DB	02H
	DB	02H
	DB	02H
	DB	02H
	DB	02H
	DB	02H
	DB	02H
	DB	02H
	DB	02H
	DB	02H
	DB	02H
	DB	02H
	DB	02H
	DB	02H
	DB	02H
	DB	02H
	DB	02H
	DB	02H
	DB	02H
	DB	02H
	DB	02H
	DB	02H
	DB	02H
	DB	02H
	DB	02H
	DB	02H
	DB	02H
	DB	02H
	DB	02H
	DB	02H
	DB	02H
	DB	02H
	DB	02H
	DB	02H
	DB	02H
	DB	02H
	DB	02H
	DB	02H
	DB	02H
	DB	02H
	DB	02H
	DB	02H
	DB	02H
	DB	02H
	DB	02H
	DB	02H
	DB	02H
	DB	02H
	DB	02H
	DB	02H
	DB	02H
	DB	02H
	DB	02H
	DB	02H
	DB	02H
	DB	02H
	DB	02H
	DB	02H
	DB	02H
	DB	02H
	DB	02H
	DB	02H
	DB	02H
	DB	02H
	DB	02H
	DB	02H
	DB	02H
	DB	02H
	DB	02H
	DB	02H
	DB	02H
	DB	02H
	DB	02H
	DB	02H
	DB	02H
	DB	02H
	DB	02H
	DB	02H
	DB	02H
	DB	02H
	DB	02H
	DB	02H
	DB	02H
	DB	02H
	DB	02H
	DB	02H
	DB	02H
	DB	02H
	DB	02H
	DB	02H
	DB	02H
	DB	02H
	DB	02H
	DB	02H
	DB	02H
	DB	02H
	DB	02H
	DB	02H
	DB	02H
	DB	02H
	DB	02H
	DB	02H
	DB	02H
	DB	02H
	DB	02H
	DB	02H
	DB	02H
	DB	02H
	DB	02H
	DB	02H
	DB	02H
	DB	02H
	DB	02H
	DB	02H
	DB	02H
	DB	02H
	DB	02H
	DB	02H
	DB	02H
	DB	02H
	DB	02H
	DB	02H
	DB	02H
	DB	02H
	DB	02H
	DB	02H
	DB	02H
	DB	02H
	DB	02H
	DB	02H
	DB	02H
	DB	02H
	DB	02H
	DB	02H
	DB	02H
	DB	02H
	DB	02H
	DB	02H
	DB	02H
	DB	02H
	DB	02H
	DB	02H
	DB	02H
	DB	02H
	DB	02H
	DB	02H
	DB	02H
	DB	02H
	DB	02H
	DB	02H
	DB	02H
	DB	02H
	DB	02H
	DB	02H
	DB	02H
	DB	02H
	DB	02H
	DB	02H
	DB	02H
	DB	02H
	DB	02H
	DB	02H
	DB	02H
	DB	02H
	DB	02H
	DB	02H
	DB	02H
	DB	02H
	DB	02H
	DB	02H
	DB	02H
	DB	02H
	DB	02H
	DB	02H
	DB	02H
	DB	02H
	DB	02H
	DB	02H
	DB	02H
	DB	02H
	DB	02H
	DB	02H
	DB	02H
	DB	02H
	DB	02H
	DB	02H
	DB	02H
	DB	02H
	DB	02H
	DB	02H
	DB	02H
	DB	02H
	DB	02H
	DB	02H
	DB	02H
	DB	02H
	DB	02H
	DB	02H
	DB	02H
	DB	02H
	DB	02H
	DB	02H
	DB	02H
	DB	02H
	DB	02H
	DB	02H
	DB	02H
	DB	02H
	DB	02H
	DB	02H
	DB	02H
	DB	02H
	DB	02H
	DB	02H
	DB	02H
	DB	02H
	DB	02H
	DB	02H
	DB	02H
	DB	02H
	DB	02H
	DB	02H
	DB	02H
	DB	02H
	DB	02H
	DB	02H
	DB	02H
	DB	02H
	DB	02H
	DB	02H
	DB	02H
	DB	02H
	DB	02H
	DB	02H
	DB	02H
	DB	02H
	DB	02H
	DB	02H
	DB	02H
	DB	02H
	DB	02H
	DB	02H
	DB	02H
	DB	02H
	DB	02H
	DB	02H
	DB	02H
	DB	02H
	DB	02H
	DB	02H
	DB	02H
	DB	02H
	DB	02H
	DB	02H
	DB	02H
	DB	02H
	DB	02H
	DB	02H
	DB	02H
	DB	02H
	DB	02H
	DB	02H
	DB	02H
	DB	02H
	DB	02H
	DB	02H
	DB	02H
	DB	02H
	DB	02H
	DB	02H
	DB	02H
	DB	02H
	DB	02H
	DB	02H
	DB	02H
	DB	02H
	DB	02H
	DB	02H
	DB	02H
	DB	02H
	DB	02H
	DB	02H
	DB	02H
	DB	02H
	DB	02H
	DB	02H
	DB	02H
	DB	02H
	DB	02H
	DB	02H
	DB	02H
	DB	02H
	DB	02H
	DB	02H
	DB	02H
	DB	02H
	DB	02H
	DB	02H
	DB	02H
	DB	02H
	DB	02H
	DB	02H
	DB	02H
	DB	02H
	DB	02H
	DB	02H
	DB	02H
	DB	02H
	DB	02H
	DB	02H
	DB	02H
	DB	02H
	DB	02H
	DB	02H
	DB	02H
	DB	02H
	DB	02H
	DB	02H
	DB	02H
	DB	02H
	DB	02H
	DB	02H
	DB	02H
	DB	02H
	DB	02H
	DB	02H
	DB	02H
	DB	02H
	DB	02H
	DB	02H
	DB	02H
	DB	02H
	DB	02H
	DB	02H
	DB	02H
	DB	02H
	DB	02H
	DB	02H
	DB	02H
	DB	02H
	DB	02H
	DB	02H
	DB	02H
	DB	02H
	DB	02H
	DB	02H
	DB	02H
	DB	02H
	DB	02H
	DB	02H
	DB	02H
	DB	02H
	DB	02H
	DB	02H
	DB	02H
	DB	02H
	DB	02H
	DB	02H
	DB	02H
	DB	02H
	DB	02H
	DB	02H
	DB	02H
	DB	02H
	DB	02H
	DB	02H
	DB	02H
	DB	02H
	DB	02H
	DB	02H
	DB	02H
	DB	02H
	DB	02H
	DB	02H
	DB	02H
	DB	02H
	DB	02H
	DB	02H
	DB	02H
	DB	02H
	DB	02H
	DB	02H
	DB	02H
	DB	02H
	DB	02H
	DB	02H
	DB	02H
	DB	02H
	DB	02H
	DB	02H
	DB	02H
	DB	02H
	DB	02H
	DB	02H
	DB	02H
	DB	02H
	DB	02H
	DB	02H
	DB	02H
	DB	02H
	DB	02H
	DB	02H
	DB	02H
	DB	02H
	DB	02H
	DB	02H
	DB	02H
	DB	02H
	DB	02H
	DB	02H
	DB	02H
	DB	02H
	DB	02H
	DB	02H
	DB	02H
	DB	02H
	DB	02H
	DB	02H
	DB	02H
	DB	02H
	DB	02H
	DB	02H
	DB	02H
	DB	02H
	DB	02H
	DB	02H
	DB	02H
	DB	02H
	DB	02H
	DB	02H
	DB	02H
	DB	02H
	DB	02H
	DB	02H
	DB	02H
	DB	02H
	DB	02H
	DB	02H
	DB	02H
	DB	02H
	DB	02H
	DB	02H
	DB	02H
	DB	02H
	DB	02H
	DB	02H
	DB	02H
	DB	02H
	DB	02H
	DB	02H
	DB	02H
	DB	02H
	DB	02H
	DB	02H
	DB	02H
	DB	02H
	DB	02H
	DB	02H
	DB	02H
	DB	02H
	DB	02H
	DB	02H
	DB	02H
	DB	02H
	DB	02H
	DB	02H
	DB	02H
	DB	02H
	DB	02H
	DB	02H
	DB	02H
	DB	02H
	DB	02H
	DB	02H
	DB	02H
	DB	02H
	DB	02H
	DB	02H
	DB	02H
	DB	02H
	DB	02H
	DB	02H
	DB	02H
	DB	02H
	DB	02H
	DB	02H
	DB	02H
	DB	02H
	DB	02H
	DB	02H
	DB	02H
	DB	02H
	DB	02H
	DB	02H
	DB	02H
	DB	02H
	DB	02H
	DB	02H
	DB	02H
	DB	02H
	DB	02H
	DB	02H
	DB	02H
	DB	02H
	DB	02H
	DB	02H
	DB	02H
	DB	02H
	DB	02H
	DB	02H
	DB	02H
	DB	02H
	DB	02H
	DB	02H
	DB	02H
	DB	02H
	DB	02H
	DB	02H
	DB	02H
	DB	02H
	DB	02H
	DB	02H
	DB	02H
	DB	02H
	DB	02H
	DB	02H
	DB	02H
	DB	02H
	DB	02H
	DB	02H
	DB	02H
	DB	02H
	DB	02H
	DB	02H
	DB	02H
	DB	02H
	DB	02H
	DB	02H
	DB	02H
	DB	02H
	DB	02H
	DB	02H
	DB	02H
	DB	02H
	DB	02H
	DB	02H
	DB	02H
	DB	02H
	DB	02H
	DB	02H
	DB	02H
	DB	02H
	DB	02H
	DB	02H
	DB	02H
	DB	02H
	DB	02H
	DB	02H
	DB	02H
	DB	02H
	DB	02H
	DB	02H
	DB	02H
	DB	02H
	DB	02H
	DB	02H
	DB	02H
	DB	02H
	DB	02H
	DB	02H
	DB	02H
	DB	02H
	DB	02H
	DB	02H
	DB	02H
	DB	02H
	DB	02H
	DB	02H
	DB	02H
	DB	02H
	DB	02H
	DB	02H
	DB	02H
	DB	02H
	DB	02H
	DB	02H
	DB	02H
	DB	02H
	DB	02H
	DB	02H
	DB	02H
	DB	02H
	DB	02H
CONST	ENDS
END
