; Listing generated by Microsoft (R) Optimizing Compiler Version 16.00.40219.01 

	TITLE	C:\DUII\DUII\Graphics\LeftGauge.c
	.686P
	.XMM
	include listing.inc
	.model	flat

INCLUDELIB LIBCMT
INCLUDELIB OLDNAMES

PUBLIC	_bmLeftGauge
CONST	SEGMENT
_ColorsLeftGauge DD 00H
	DD	00H
	DD	00H
	DD	0370d00H
	DD	0270900H
	DD	0471101H
	DD	0541401H
	DD	048484dH
	DD	01b0600H
	DD	0a0302H
	DD	0989798H
	DD	0140500H
	DD	0802104H
	DD	0b0b0aH
	DD	09a2601H
	DD	0f8f8f8H
	DD	0131312H
	DD	0a7a7a7H
	DD	0e8e7e7H
	DD	0b0a04H
	DD	0696969H
	DD	0777777H
	DD	0120c0bH
	DD	0888788H
	DD	0b7b6b7H
	DD	013120cH
	DD	01b1b1aH
	DD	0c7c7c7H
	DD	0d8d7d8H
	DD	01b1a14H
	DD	023221bH
	DD	040509H
	DD	00H
	DD	0400f01H
	DD	01e0800H
	DD	0565657H
	DD	0232322H
	DD	045454aH
	DD	0671a02H
	DD	01a1413H
	DD	0221c1aH
	DD	0a0b12H
	DD	0120b05H
	DD	02b2b2bH
	DD	0751e03H
	DD	02b2a23H
	DD	0424244H
	DD	01a1c22H
	DD	0292522H
	DD	07a2005H
	DD	050803H
	DD	01a130cH
	DD	0211c14H
	DD	01c221aH
	DD	03a3a3cH
	DD	0120d11H
	DD	013141aH
	DD	05090aH
	DD	0d110bH
	DD	0b0509H
	DD	0322c27H
	DD	0333334H
	DD	0d1212H
	DD	03d3d41H
	DD	0151913H
	DD	0323229H
	DD	029241cH
	DD	0242429H
	DD	02a2c31H
	DD	01a1519H
	DD	04c4c51H
	DD	01c2325H
	DD	0353539H
	DD	02b2a1cH
	DD	03c1002H
	DD	0222115H
	DD	0141a1bH
	DD	0252923H
	DD	0a74425H
	DD	01b190dH
	DD	0211d22H
	DD	0a09fa0H
	DD	09c3616H
	DD	02c312aH
	DD	0a23716H
	DD	0242a2bH
	DD	0190d0cH
	DD	03a3434H
	DD	063625dH
	DD	0110509H
	DD	0131105H
	DD	0d1219H
	DD	05d5d60H
	DD	0a59996H
	DD	09b4428H
	DD	0292629H
	DD	0322d31H
	DD	025281dH
	DD	0393539H
	DD	0c58a78H
	DD	015190cH
	DD	0423b3aH
	DD	053514dH
	DD	06d6d70H
	DD	0aa5338H
	DD	09b5a46H
	DD	09b8c88H
	DD	0e7dad6H
	DD	03b4546H
	DD	0b5644bH
	DD	02d3133H
	DD	0a86955H
	DD	09a7c73H
	DD	0f2e9e6H
	DD	044433bH
	DD	09b6757H
	DD	0b77966H
	DD	0b0afb0H
	DD	035383aH
	DD	0706f70H
	DD	0ba725cH
	DD	09c766bH
	DD	0a77363H
	DD	0807f80H
	DD	0c99687H
	DD	0190e12H
	DD	0201514H
	DD	0291d1bH
	DD	0a54d32H
	DD	0a55b44H
	DD	0c0bfc0H
	DD	0e5cdc5H
	DD	0263943H
	DD	09b4d34H
	DD	0908f90H
	DD	0d6cac7H
	DD	0343933H
	DD	045352bH
	DD	0403e43H
	DD	045484aH
	DD	0534c48H
	DD	0605d58H
	DD	09c300eH
	DD	0a78b83H
	DD	0dab6abH
	DD	0c6bab7H
	DD	0282216H
	DD	031291bH
	DD	03c3a35H
	DD	03a4239H
	DD	04b4a45H
	DD	0a4918cH
	DD	0b6958bH
	DD	0b5a9a6H
	DD	0caa79bH
	DD	0d5a698H
	DD	0d9bcb2H
	DD	04a4644H
	DD	0d0cfd0H
	DD	0c1a1aH
	DD	091824H
	DD	0b35e43H
	DD	0ba6d54H
	DD	0a67d71H
	DD	09b827bH
	DD	0c69e91H
	DD	0c6b2abH
	DD	0e7d1cbH
	DD	0f0eff0H
	DD	0d1b16H
	DD	0221a0eH
	DD	0211519H
	DD	0233135H
	DD	02c3933H
	DD	04a5956H
	DD	0b1573bH
	DD	0bc816eH
	DD	0a9857aH
	DD	0b39b95H
	DD	0dcc3bcH
	DD	0e2c4baH
	DD	0e0dfe0H
	DD	0180e19H
	DD	0172931H
	DD	0253539H
	DD	02c3c3dH
	DD	0482418H
	DD	0563429H
	DD	054433dH
	DD	04a554dH
	DD	0605f62H
	DD	0801f01H
	DD	09c3e20H
	DD	0aa705eH
	DD	09c6e60H
	DD	0b78778H
	DD	0c4816cH
	DD	07e7e81H
	DD	0b58d81H
	DD	0d09c8cH
	DD	0d2ada1H
	DD	01b0609H
	DD	0120d1bH
	DD	0281c16H
	DD	0d2228H
	DD	01e3135H
	DD	0243934H
	DD	02e353bH
	DD	0353b41H
	DD	02d4447H
	DD	0a6401fH
	DD	09c533cH
	DD	0ae634bH
	DD	0c27c65H
	DD	0ca917eH
	DD	09e918eH
	DD	08e8d90H
	DD	09e9ea1H
	DD	0cfcfd0H
	DD	0f8f0eeH
	DD	0191404H
	DD	071216H
	DD	0391d13H
	DD	0232d17H
	DD	030331fH
	DD	02d1d27H
	DD	0201a31H
	DD	0253a3bH
	DD	0451d11H
	DD	0572b1cH
	DD	0422a21H
	DD	0402f32H
	DD	0553f35H
	DD	02c443eH
	DD	01e3941H
	DD	03e3641H
	DD	0423742H
	DD	03e5347H
	DD	0375355H
	DD	0464a42H
	DD	04e6048H
	DD	04c676aH
	DD	05f6e6bH
	DD	071706dH
	DD	0a0310dH
	DD	0a33f20H
	DD	09e614eH
	DD	0bda299H
	DD	0afafb1H
	DD	0d19f90H
	DD	0cfaea4H
	DD	0e0bdb2H
	DD	0ded2cfH
	DD	0ece1dfH
	DD	0f1e3deH
	DD	00H
_PalLeftGauge DD 0100H
	DB	00H
	ORG $+3
	DD	FLAT:_ColorsLeftGauge
_bmLeftGauge DW	0e6H
	DW	0e6H
	DW	0e6H
	DW	08H
	DD	FLAT:_acLeftGauge
	DD	FLAT:_PalLeftGauge
	ORG $+4
_acLeftGauge DB	00H
	DB	00H
	DB	00H
	DB	09H
	DB	09H
	DB	00H
	DB	00H
	DB	00H
	DB	00H
	DB	00H
	DB	00H
	DB	00H
	DB	00H
	DB	00H
	DB	00H
	DB	00H
	DB	00H
	DB	09H
	DB	09H
	DB	00H
	DB	00H
	DB	00H
	DB	00H
	DB	09H
	DB	09H
	DB	00H
	DB	00H
	DB	00H
	DB	00H
	DB	00H
	DB	00H
	DB	00H
	DB	00H
	DB	00H
	DB	00H
	DB	09H
	DB	059H
	DB	02aH
	DB	09H
	DB	02aH
	DB	016H
	DB	059H
	DB	09H
	DB	00H
	DB	09H
	DB	09H
	DB	013H
	DB	016H
	DB	03bH
	DB	00H
	DB	00H
	DB	00H
	DB	02aH
	DB	05aH
	DB	09H
	DB	00H
	DB	09H
	DB	059H
	DB	02aH
	DB	02aH
	DB	09H
	DB	00H
	DB	00H
	DB	013H
	DB	07dH
	DB	030H
	DB	0dfH
	DB	013H
	DB	00H
	DB	00H
	DB	00H
	DB	00H
	DB	09H
	DB	00H
	DB	00H
	DB	09H
	DB	02aH
	DB	0bH
	DB	09H
	DB	013H
	DB	019H
	DB	037H
	DB	016H
	DB	05aH
	DB	0bH
	DB	0bH
	DB	050H
	DB	0b8H
	DB	03eH
	DB	09H
	DB	01dH
	DB	040H
	DB	02aH
	DB	033H
	DB	01eH
	DB	010H
	DB	033H
	DB	04bH
	DB	027H
	DB	037H
	DB	037H
	DB	0abH
	DB	027H
	DB	028H
	DB	02bH
	DB	03cH
	DB	03dH
	DB	076H
	DB	048H
	DB	062H
	DB	02eH
	DB	02eH
	DB	02eH
	DB	08aH
	DB	08aH
	DB	03fH
	DB	08aH
	DB	02eH
	DB	08aH
	DB	057H
	DB	062H
	DB	062H
	DB	053H
	DB	01eH
	DB	061H
	DB	0dH
	DB	09H
	DB	013H
	DB	032H
	DB	00H
	DB	032H
	DB	032H
	DB	00H
	DB	024H
	DB	06cH
	DB	0adH
	DB	01aH
	DB	019H
	DB	05aH
	DB	033H
	DB	033H
	DB	034H
	DB	042H
	DB	042H
	DB	064H
	DB	013H
	DB	09H
	DB	07dH
	DB	034H
	DB	01eH
	DB	035H
	DB	01dH
	DB	019H
	DB	09H
	DB	02aH
	DB	028H
	DB	030H
	DB	024H
	DB	045H
	DB	0dH
	DB	032H
	DB	0dH
	DB	016H
	DB	016H
	DB	02aH
	DB	05aH
	DB	05aH
	DB	013H
	DB	016H
	DB	059H
	DB	09H
	DB	033H
	DB	02dH
	DB	030H
	DB	028H
	DB	07eH
	DB	01eH
	DB	030H
	DB	050H
	DB	010H
	DB	056H
	DB	0abH
	DB	053H
	DB	088H
	DB	041H
	DB	02dH
	DB	02fH
	DB	010H
	DB	013H
	DB	00H
	DB	00H
	DB	032H
	DB	00H
	DB	0bH
	DB	093H
	DB	049H
	DB	01dH
	DB	05aH
	DB	00H
	DB	016H
	DB	0e1H
	DB	094H
	DB	065H
	DB	060H
	DB	030H
	DB	01eH
	DB	027H
	DB	0cbH
	DB	07fH
	DB	034H
	DB	034H
	DB	04fH
	DB	064H
	DB	04fH
	DB	010H
	DB	01dH
	DB	01eH
	DB	01eH
	DB	035H
	DB	019H
	DB	032H
	DB	032H
	DB	0dH
	DB	01dH
	DB	01eH
	DB	04bH
	DB	04fH
	DB	040H
	DB	024H
	DB	053H
	DB	00H
	DB	00H
	DB	00H
	DB	00H
	DB	09H
	DB	00H
	DB	00H
	DB	00H
	DB	00H
	DB	00H
	DB	00H
	DB	00H
	DB	00H
	DB	00H
	DB	00H
	DB	00H
	DB	00H
	DB	00H
	DB	09H
	DB	09H
	DB	00H
	DB	00H
	DB	00H
	DB	00H
	DB	00H
	DB	00H
	DB	00H
	DB	09H
	DB	09H
	DB	00H
	DB	00H
	DB	00H
	DB	00H
	DB	00H
	DB	00H
	DB	00H
	DB	09H
	DB	03bH
	DB	059H
	DB	09H
	DB	0bH
	DB	02aH
	DB	032H
	DB	00H
	DB	00H
	DB	03bH
	DB	013H
	DB	03bH
	DB	013H
	DB	032H
	DB	00H
	DB	00H
	DB	09H
	DB	02aH
	DB	02aH
	DB	032H
	DB	09H
	DB	059H
	DB	013H
	DB	09H
	DB	00H
	DB	00H
	DB	09H
	DB	09H
	DB	059H
	DB	064H
	DB	03aH
	DB	00H
	DB	00H
	DB	00H
	DB	0c9H
	DB	0cbH
	DB	092H
	DB	033H
	DB	00H
	DB	09H
	DB	059H
	DB	09H
	DB	09H
	DB	00H
	DB	00H
	DB	02aH
	DB	016H
	DB	02aH
	DB	034H
	DB	0cdH
	DB	0b7H
	DB	09fH
	DB	032H
	DB	00H
	DB	013H
	DB	00H
	DB	02aH
	DB	04fH
	DB	01dH
	DB	05aH
	DB	028H
	DB	060H
	DB	062H
	DB	08aH
	DB	025H
	DB	07H
	DB	07H
	DB	07H
	DB	07H
	DB	07H
	DB	07H
	DB	07H
	DB	07H
	DB	07H
	DB	07H
	DB	07H
	DB	07H
	DB	07H
	DB	07H
	DB	07H
	DB	07H
	DB	07H
	DB	07H
	DB	07H
	DB	07H
	DB	07H
	DB	07H
	DB	07H
	DB	07H
	DB	07H
	DB	07H
	DB	07H
	DB	025H
	DB	03fH
	DB	076H
	DB	060H
	DB	01aH
	DB	010H
	DB	0ceH
	DB	0e9H
	DB	04dH
	DB	013H
	DB	016H
	DB	050H
	DB	055H
	DB	04dH
	DB	01eH
	DB	0e0H
	DB	04fH
	DB	013H
	DB	02aH
	DB	019H
	DB	027H
	DB	01dH
	DB	040H
	DB	03aH
	DB	019H
	DB	033H
	DB	019H
	DB	04cH
	DB	047H
	DB	060H
	DB	03cH
	DB	0dH
	DB	00H
	DB	00H
	DB	016H
	DB	01dH
	DB	034H
	DB	01eH
	DB	01dH
	DB	019H
	DB	027H
	DB	07eH
	DB	0cbH
	DB	092H
	DB	030H
	DB	042H
	DB	07fH
	DB	01eH
	DB	01eH
	DB	024H
	DB	045H
	DB	045H
	DB	06eH
	DB	055H
	DB	010H
	DB	03aH
	DB	064H
	DB	04bH
	DB	028H
	DB	050H
	DB	01dH
	DB	032H
	DB	00H
	DB	00H
	DB	00H
	DB	033H
	DB	093H
	DB	049H
	DB	01dH
	DB	033H
	DB	02aH
	DB	07fH
	DB	065H
	DB	094H
	DB	057H
	DB	057H
	DB	060H
	DB	01eH
	DB	04bH
	DB	0e0H
	DB	03cH
	DB	02dH
	DB	049H
	DB	019H
	DB	00H
	DB	013H
	DB	01dH
	DB	01eH
	DB	01dH
	DB	019H
	DB	016H
	DB	016H
	DB	037H
	DB	07dH
	DB	07eH
	DB	092H
	DB	04bH
	DB	04bH
	DB	027H
	DB	013H
	DB	064H
	DB	055H
	DB	00H
	DB	00H
	DB	00H
	DB	00H
	DB	00H
	DB	00H
	DB	00H
	DB	00H
	DB	00H
	DB	00H
	DB	00H
	DB	00H
	DB	00H
	DB	00H
	DB	00H
	DB	00H
	DB	00H
	DB	00H
	DB	00H
	DB	00H
	DB	00H
	DB	00H
	DB	00H
	DB	00H
	DB	00H
	DB	00H
	DB	00H
	DB	09H
	DB	032H
	DB	00H
	DB	00H
	DB	00H
	DB	00H
	DB	00H
	DB	00H
	DB	09H
	DB	00H
	DB	032H
	DB	03bH
	DB	0bH
	DB	0bH
	DB	013H
	DB	032H
	DB	01fH
	DB	09H
	DB	016H
	DB	013H
	DB	00H
	DB	09H
	DB	09H
	DB	00H
	DB	00H
	DB	02aH
	DB	016H
	DB	02aH
	DB	00H
	DB	00H
	DB	00H
	DB	00H
	DB	00H
	DB	00H
	DB	00H
	DB	07eH
	DB	028H
	DB	019H
	DB	09H
	DB	00H
	DB	00H
	DB	09H
	DB	056H
	DB	093H
	DB	049H
	DB	01dH
	DB	05aH
	DB	09H
	DB	059H
	DB	02fH
	DB	02fH
	DB	010H
	DB	09H
	DB	00H
	DB	00H
	DB	09H
	DB	016H
	DB	0cdH
	DB	0ccH
	DB	039H
	DB	00H
	DB	00H
	DB	00H
	DB	03bH
	DB	05fH
	DB	036H
	DB	02eH
	DB	025H
	DB	07H
	DB	07H
	DB	07H
	DB	07H
	DB	07H
	DB	07H
	DB	07H
	DB	07H
	DB	07H
	DB	07H
	DB	07H
	DB	07H
	DB	07H
	DB	07H
	DB	07H
	DB	07H
	DB	07H
	DB	07H
	DB	07H
	DB	07H
	DB	07H
	DB	07H
	DB	07H
	DB	07H
	DB	07H
	DB	07H
	DB	07H
	DB	07H
	DB	07H
	DB	07H
	DB	07H
	DB	07H
	DB	07H
	DB	07H
	DB	07H
	DB	07H
	DB	07H
	DB	07H
	DB	07H
	DB	025H
	DB	02eH
	DB	036H
	DB	05fH
	DB	07eH
	DB	030H
	DB	06eH
	DB	0b9H
	DB	047H
	DB	064H
	DB	05aH
	DB	019H
	DB	05aH
	DB	05aH
	DB	07dH
	DB	037H
	DB	032H
	DB	00H
	DB	02aH
	DB	01eH
	DB	040H
	DB	039H
	DB	037H
	DB	057H
	DB	08bH
	DB	05bH
	DB	09H
	DB	027H
	DB	028H
	DB	028H
	DB	01eH
	DB	04dH
	DB	01eH
	DB	034H
	DB	01eH
	DB	02dH
	DB	041H
	DB	049H
	DB	042H
	DB	030H
	DB	042H
	DB	028H
	DB	01dH
	DB	04fH
	DB	064H
	DB	024H
	DB	03dH
	DB	055H
	DB	03aH
	DB	00H
	DB	013H
	DB	092H
	DB	053H
	DB	055H
	DB	04cH
	DB	027H
	DB	0dH
	DB	00H
	DB	00H
	DB	033H
	DB	0e0H
	DB	049H
	DB	033H
	DB	033H
	DB	042H
	DB	094H
	DB	065H
	DB	057H
	DB	060H
	DB	057H
	DB	03dH
	DB	01aH
	DB	04bH
	DB	02dH
	DB	044H
	DB	03dH
	DB	041H
	DB	035H
	DB	03bH
	DB	02aH
	DB	04bH
	DB	0aaH
	DB	09H
	DB	09H
	DB	01dH
	DB	055H
	DB	043H
	DB	093H
	DB	089H
	DB	093H
	DB	04fH
	DB	038H
	DB	045H
	DB	02aH
	DB	013H
	DB	0ddH
	DB	00H
	DB	00H
	DB	00H
	DB	00H
	DB	00H
	DB	00H
	DB	00H
	DB	00H
	DB	00H
	DB	00H
	DB	00H
	DB	00H
	DB	00H
	DB	00H
	DB	00H
	DB	00H
	DB	00H
	DB	00H
	DB	00H
	DB	00H
	DB	00H
	DB	00H
	DB	00H
	DB	00H
	DB	00H
	DB	00H
	DB	01fH
	DB	01fH
	DB	00H
	DB	00H
	DB	00H
	DB	00H
	DB	00H
	DB	00H
	DB	00H
	DB	09H
	DB	02aH
	DB	032H
	DB	09H
	DB	016H
	DB	02aH
	DB	09H
	DB	09H
	DB	03bH
	DB	02aH
	DB	02aH
	DB	032H
	DB	00H
	DB	00H
	DB	032H
	DB	00H
	DB	00H
	DB	013H
	DB	0dH
	DB	032H
	DB	00H
	DB	00H
	DB	00H
	DB	00H
	DB	00H
	DB	00H
	DB	00H
	DB	050H
	DB	0b9H
	DB	047H
	DB	013H
	DB	09H
	DB	02aH
	DB	056H
	DB	07eH
	DB	01eH
	DB	033H
	DB	00H
	DB	09H
	DB	02aH
	DB	056H
	DB	043H
	DB	084H
	DB	084H
	DB	0a9H
	DB	00H
	DB	00H
	DB	09H
	DB	035H
	DB	0a9H
	DB	01fH
	DB	03bH
	DB	05fH
	DB	036H
	DB	025H
	DB	07H
	DB	07H
	DB	07H
	DB	07H
	DB	07H
	DB	07H
	DB	07H
	DB	07H
	DB	07H
	DB	07H
	DB	07H
	DB	07H
	DB	07H
	DB	07H
	DB	07H
	DB	07H
	DB	07H
	DB	07H
	DB	07H
	DB	07H
	DB	07H
	DB	023H
	DB	05cH
	DB	05cH
	DB	05cH
	DB	05cH
	DB	046H
	DB	07H
	DB	07H
	DB	07H
	DB	07H
	DB	07H
	DB	07H
	DB	07H
	DB	07H
	DB	07H
	DB	07H
	DB	07H
	DB	07H
	DB	07H
	DB	07H
	DB	07H
	DB	07H
	DB	07H
	DB	07H
	DB	07H
	DB	07H
	DB	07H
	DB	07H
	DB	07H
	DB	08aH
	DB	076H
	DB	04cH
	DB	09H
	DB	013H
	DB	040H
	DB	019H
	DB	013H
	DB	016H
	DB	0dH
	DB	09H
	DB	00H
	DB	07dH
	DB	034H
	DB	045H
	DB	037H
	DB	016H
	DB	02dH
	DB	0adH
	DB	09fH
	DB	010H
	DB	049H
	DB	03cH
	DB	01aH
	DB	010H
	DB	040H
	DB	027H
	DB	030H
	DB	053H
	DB	01eH
	DB	01eH
	DB	049H
	DB	024H
	DB	050H
	DB	05fH
	DB	04dH
	DB	064H
	DB	032H
	DB	033H
	DB	061H
	DB	024H
	DB	01aH
	DB	013H
	DB	00H
	DB	02aH
	DB	04bH
	DB	024H
	DB	038H
	DB	0dH
	DB	02fH
	DB	0b8H
	DB	02fH
	DB	00H
	DB	032H
	DB	04fH
	DB	04bH
	DB	0aaH
	DB	033H
	DB	042H
	DB	094H
	DB	03fH
	DB	062H
	DB	057H
	DB	057H
	DB	05fH
	DB	010H
	DB	033H
	DB	024H
	DB	044H
	DB	0acH
	DB	04dH
	DB	040H
	DB	03bH
	DB	056H
	DB	0aaH
	DB	0dcH
	DB	0bH
	DB	056H
	DB	053H
	DB	084H
	DB	055H
	DB	049H
	DB	03cH
	DB	04bH
	DB	013H
	DB	016H
	DB	045H
	DB	027H
	DB	013H
	DB	0dH
	DB	00H
	DB	00H
	DB	00H
	DB	00H
	DB	00H
	DB	00H
	DB	00H
	DB	00H
	DB	00H
	DB	09H
	DB	00H
	DB	00H
	DB	00H
	DB	00H
	DB	09H
	DB	09H
	DB	09H
	DB	00H
	DB	00H
	DB	00H
	DB	09H
	DB	00H
	DB	00H
	DB	00H
	DB	00H
	DB	00H
	DB	00H
	DB	09H
	DB	00H
	DB	00H
	DB	00H
	DB	09H
	DB	00H
	DB	00H
	DB	00H
	DB	09H
	DB	013H
	DB	013H
	DB	09H
	DB	059H
	DB	059H
	DB	059H
	DB	056H
	DB	02aH
	DB	02aH
	DB	09H
	DB	00H
	DB	00H
	DB	00H
	DB	00H
	DB	00H
	DB	00H
	DB	00H
	DB	00H
	DB	00H
	DB	00H
	DB	09H
	DB	09H
	DB	059H
	DB	02fH
	DB	0ddH
	DB	00H
	DB	010H
	DB	0acH
	DB	047H
	DB	0dH
	DB	00H
	DB	059H
	DB	028H
	DB	028H
	DB	0abH
	DB	027H
	DB	016H
	DB	016H
	DB	07dH
	DB	07dH
	DB	028H
	DB	0b8H
	DB	0eaH
	DB	0a9H
	DB	00H
	DB	00H
	DB	02fH
	DB	06eH
	DB	076H
	DB	025H
	DB	07H
	DB	07H
	DB	07H
	DB	07H
	DB	07H
	DB	07H
	DB	07H
	DB	07H
	DB	07H
	DB	07H
	DB	07H
	DB	07H
	DB	07H
	DB	023H
	DB	0beH
	DB	067H
	DB	0c5H
	DB	07bH
	DB	0d8H
	DB	0aH
	DB	0aH
	DB	011H
	DB	075H
	DB	075H
	DB	011H
	DB	011H
	DB	075H
	DB	075H
	DB	075H
	DB	075H
	DB	075H
	DB	075H
	DB	075H
	DB	075H
	DB	051H
	DB	0d9H
	DB	0aH
	DB	0d9H
	DB	086H
	DB	017H
	DB	017H
	DB	015H
	DB	014H
	DB	05cH
	DB	07H
	DB	07H
	DB	07H
	DB	07H
	DB	07H
	DB	07H
	DB	07H
	DB	07H
	DB	07H
	DB	07H
	DB	07H
	DB	07H
	DB	07H
	DB	025H
	DB	036H
	DB	02bH
	DB	032H
	DB	09H
	DB	0dH
	DB	0dH
	DB	059H
	DB	027H
	DB	01aH
	DB	028H
	DB	030H
	DB	050H
	DB	027H
	DB	01aH
	DB	050H
	DB	01aH
	DB	028H
	DB	030H
	DB	05fH
	DB	01aH
	DB	027H
	DB	033H
	DB	027H
	DB	05fH
	DB	035H
	DB	032H
	DB	056H
	DB	042H
	DB	01eH
	DB	024H
	DB	055H
	DB	04cH
	DB	032H
	DB	09H
	DB	07eH
	DB	028H
	DB	033H
	DB	019H
	DB	016H
	DB	02aH
	DB	02aH
	DB	013H
	DB	01fH
	DB	09H
	DB	05aH
	DB	047H
	DB	0b7H
	DB	02fH
	DB	010H
	DB	09H
	DB	09H
	DB	016H
	DB	04fH
	DB	04fH
	DB	028H
	DB	057H
	DB	0ebH
	DB	062H
	DB	0ecH
	DB	062H
	DB	024H
	DB	033H
	DB	07eH
	DB	01eH
	DB	02fH
	DB	05bH
	DB	01aH
	DB	010H
	DB	029H
	DB	01aH
	DB	034H
	DB	02aH
	DB	0aaH
	DB	030H
	DB	047H
	DB	035H
	DB	040H
	DB	04fH
	DB	01dH
	DB	045H
	DB	027H
	DB	01dH
	DB	061H
	DB	061H
	DB	034H
	DB	07eH
	DB	00H
	DB	00H
	DB	00H
	DB	00H
	DB	00H
	DB	00H
	DB	00H
	DB	00H
	DB	00H
	DB	00H
	DB	09H
	DB	00H
	DB	00H
	DB	00H
	DB	09H
	DB	00H
	DB	00H
	DB	00H
	DB	00H
	DB	00H
	DB	00H
	DB	00H
	DB	00H
	DB	00H
	DB	00H
	DB	00H
	DB	00H
	DB	03bH
	DB	032H
	DB	00H
	DB	00H
	DB	029H
	DB	03bH
	DB	00H
	DB	09H
	DB	059H
	DB	013H
	DB	013H
	DB	09H
	DB	09H
	DB	09H
	DB	09H
	DB	02aH
	DB	02aH
	DB	016H
	DB	0dH
	DB	032H
	DB	00H
	DB	00H
	DB	00H
	DB	00H
	DB	09H
	DB	059H
	DB	016H
	DB	09H
	DB	00H
	DB	09H
	DB	0c9H
	DB	034H
	DB	02fH
	DB	05bH
	DB	016H
	DB	016H
	DB	01aH
	DB	01dH
	DB	033H
	DB	00H
	DB	00H
	DB	037H
	DB	01aH
	DB	01aH
	DB	050H
	DB	01aH
	DB	019H
	DB	016H
	DB	07dH
	DB	07eH
	DB	040H
	DB	03eH
	DB	040H
	DB	048H
	DB	025H
	DB	07H
	DB	07H
	DB	07H
	DB	07H
	DB	07H
	DB	07H
	DB	07H
	DB	07H
	DB	07H
	DB	07H
	DB	07H
	DB	023H
	DB	014H
	DB	015H
	DB	017H
	DB	0aH
	DB	011H
	DB	011H
	DB	011H
	DB	011H
	DB	011H
	DB	011H
	DB	011H
	DB	011H
	DB	011H
	DB	011H
	DB	075H
	DB	075H
	DB	011H
	DB	011H
	DB	075H
	DB	075H
	DB	075H
	DB	075H
	DB	075H
	DB	075H
	DB	075H
	DB	018H
	DB	018H
	DB	075H
	DB	075H
	DB	018H
	DB	018H
	DB	018H
	DB	018H
	DB	018H
	DB	018H
	DB	018H
	DB	018H
	DB	075H
	DB	0aH
	DB	017H
	DB	077H
	DB	0beH
	DB	07H
	DB	07H
	DB	07H
	DB	07H
	DB	07H
	DB	07H
	DB	07H
	DB	07H
	DB	07H
	DB	07H
	DB	07H
	DB	025H
	DB	048H
	DB	045H
	DB	045H
	DB	01aH
	DB	045H
	DB	030H
	DB	02dH
	DB	07fH
	DB	028H
	DB	030H
	DB	030H
	DB	07fH
	DB	028H
	DB	028H
	DB	050H
	DB	024H
	DB	028H
	DB	0aaH
	DB	01eH
	DB	01aH
	DB	01fH
	DB	09H
	DB	034H
	DB	042H
	DB	0cbH
	DB	01aH
	DB	0a0H
	DB	029H
	DB	00H
	DB	03bH
	DB	030H
	DB	024H
	DB	01dH
	DB	033H
	DB	034H
	DB	042H
	DB	033H
	DB	09H
	DB	00H
	DB	00H
	DB	02aH
	DB	01eH
	DB	024H
	DB	045H
	DB	045H
	DB	010H
	DB	09H
	DB	09H
	DB	033H
	DB	04bH
	DB	030H
	DB	094H
	DB	08aH
	DB	062H
	DB	036H
	DB	0adH
	DB	040H
	DB	033H
	DB	034H
	DB	01eH
	DB	024H
	DB	04cH
	DB	024H
	DB	043H
	DB	02fH
	DB	024H
	DB	04bH
	DB	033H
	DB	04bH
	DB	035H
	DB	040H
	DB	010H
	DB	02aH
	DB	013H
	DB	07eH
	DB	02dH
	DB	02dH
	DB	01dH
	DB	064H
	DB	035H
	DB	04dH
	DB	088H
	DB	00H
	DB	00H
	DB	09H
	DB	09H
	DB	00H
	DB	00H
	DB	00H
	DB	00H
	DB	00H
	DB	00H
	DB	00H
	DB	00H
	DB	00H
	DB	00H
	DB	00H
	DB	00H
	DB	00H
	DB	00H
	DB	00H
	DB	00H
	DB	00H
	DB	00H
	DB	00H
	DB	00H
	DB	00H
	DB	00H
	DB	09H
	DB	059H
	DB	032H
	DB	00H
	DB	00H
	DB	0caH
	DB	016H
	DB	09H
	DB	09H
	DB	07dH
	DB	056H
	DB	013H
	DB	013H
	DB	09H
	DB	00H
	DB	00H
	DB	09H
	DB	02aH
	DB	033H
	DB	03aH
	DB	00H
	DB	00H
	DB	00H
	DB	00H
	DB	09H
	DB	056H
	DB	07dH
	DB	07eH
	DB	016H
	DB	09H
	DB	09H
	DB	059H
	DB	0dH
	DB	032H
	DB	03bH
	DB	016H
	DB	09H
	DB	016H
	DB	016H
	DB	016H
	DB	059H
	DB	059H
	DB	09H
	DB	03eH
	DB	047H
	DB	038H
	DB	0dH
	DB	013H
	DB	09H
	DB	09H
	DB	033H
	DB	03dH
	DB	025H
	DB	07H
	DB	07H
	DB	07H
	DB	07H
	DB	07H
	DB	07H
	DB	07H
	DB	07H
	DB	07H
	DB	07H
	DB	0beH
	DB	015H
	DB	017H
	DB	051H
	DB	051H
	DB	051H
	DB	011H
	DB	011H
	DB	011H
	DB	011H
	DB	011H
	DB	011H
	DB	011H
	DB	011H
	DB	011H
	DB	011H
	DB	011H
	DB	011H
	DB	011H
	DB	075H
	DB	075H
	DB	075H
	DB	011H
	DB	075H
	DB	075H
	DB	075H
	DB	075H
	DB	018H
	DB	075H
	DB	075H
	DB	018H
	DB	018H
	DB	075H
	DB	075H
	DB	018H
	DB	018H
	DB	018H
	DB	018H
	DB	018H
	DB	018H
	DB	018H
	DB	018H
	DB	018H
	DB	018H
	DB	082H
	DB	082H
	DB	082H
	DB	082H
	DB	011H
	DB	017H
	DB	077H
	DB	023H
	DB	07H
	DB	07H
	DB	07H
	DB	07H
	DB	07H
	DB	07H
	DB	07H
	DB	07H
	DB	07H
	DB	025H
	DB	036H
	DB	01eH
	DB	042H
	DB	02dH
	DB	02dH
	DB	030H
	DB	07fH
	DB	04bH
	DB	01eH
	DB	061H
	DB	01eH
	DB	027H
	DB	01dH
	DB	049H
	DB	093H
	DB	030H
	DB	01aH
	DB	01fH
	DB	03bH
	DB	028H
	DB	030H
	DB	049H
	DB	01aH
	DB	029H
	DB	01fH
	DB	013H
	DB	07dH
	DB	028H
	DB	028H
	DB	01dH
	DB	019H
	DB	028H
	DB	02bH
	DB	01eH
	DB	064H
	DB	032H
	DB	00H
	DB	09H
	DB	04fH
	DB	02dH
	DB	01eH
	DB	027H
	DB	033H
	DB	03aH
	DB	032H
	DB	03aH
	DB	04bH
	DB	01eH
	DB	057H
	DB	066H
	DB	02eH
	DB	02bH
	DB	035H
	DB	019H
	DB	04fH
	DB	04bH
	DB	035H
	DB	061H
	DB	041H
	DB	02bH
	DB	04dH
	DB	03cH
	DB	030H
	DB	04bH
	DB	01eH
	DB	01eH
	DB	01aH
	DB	01aH
	DB	035H
	DB	034H
	DB	07eH
	DB	042H
	DB	02dH
	DB	061H
	DB	03aH
	DB	00H
	DB	040H
	DB	050H
	DB	024H
	DB	00H
	DB	00H
	DB	09H
	DB	00H
	DB	00H
	DB	09H
	DB	00H
	DB	00H
	DB	00H
	DB	09H
	DB	00H
	DB	00H
	DB	00H
	DB	00H
	DB	00H
	DB	00H
	DB	00H
	DB	00H
	DB	00H
	DB	00H
	DB	00H
	DB	00H
	DB	00H
	DB	09H
	DB	09H
	DB	09H
	DB	00H
	DB	09H
	DB	00H
	DB	00H
	DB	01fH
	DB	029H
	DB	0dH
	DB	032H
	DB	09H
	DB	059H
	DB	037H
	DB	09H
	DB	03bH
	DB	013H
	DB	09H
	DB	09H
	DB	00H
	DB	09H
	DB	019H
	DB	0dH
	DB	00H
	DB	01fH
	DB	03bH
	DB	03bH
	DB	02aH
	DB	07dH
	DB	07dH
	DB	019H
	DB	013H
	DB	09H
	DB	02aH
	DB	016H
	DB	00H
	DB	00H
	DB	09H
	DB	09H
	DB	09H
	DB	09H
	DB	09H
	DB	037H
	DB	07dH
	DB	056H
	DB	013H
	DB	09H
	DB	03aH
	DB	09H
	DB	00H
	DB	03bH
	DB	05fH
	DB	02eH
	DB	07H
	DB	07H
	DB	07H
	DB	07H
	DB	07H
	DB	07H
	DB	07H
	DB	07H
	DB	07H
	DB	05cH
	DB	077H
	DB	017H
	DB	0d9H
	DB	051H
	DB	051H
	DB	051H
	DB	051H
	DB	011H
	DB	011H
	DB	011H
	DB	011H
	DB	011H
	DB	011H
	DB	011H
	DB	011H
	DB	011H
	DB	011H
	DB	011H
	DB	011H
	DB	075H
	DB	011H
	DB	011H
	DB	075H
	DB	075H
	DB	075H
	DB	075H
	DB	075H
	DB	075H
	DB	075H
	DB	075H
	DB	075H
	DB	075H
	DB	075H
	DB	018H
	DB	018H
	DB	075H
	DB	075H
	DB	018H
	DB	018H
	DB	018H
	DB	018H
	DB	018H
	DB	018H
	DB	018H
	DB	018H
	DB	018H
	DB	018H
	DB	082H
	DB	082H
	DB	082H
	DB	082H
	DB	082H
	DB	082H
	DB	082H
	DB	082H
	DB	075H
	DB	0aH
	DB	077H
	DB	023H
	DB	07H
	DB	07H
	DB	07H
	DB	07H
	DB	07H
	DB	07H
	DB	07H
	DB	07H
	DB	025H
	DB	057H
	DB	030H
	DB	042H
	DB	034H
	DB	04fH
	DB	04fH
	DB	04bH
	DB	04bH
	DB	027H
	DB	010H
	DB	034H
	DB	04bH
	DB	024H
	DB	024H
	DB	01aH
	DB	027H
	DB	045H
	DB	03cH
	DB	088H
	DB	04dH
	DB	040H
	DB	019H
	DB	09H
	DB	056H
	DB	05fH
	DB	060H
	DB	035H
	DB	013H
	DB	028H
	DB	088H
	DB	035H
	DB	013H
	DB	032H
	DB	00H
	DB	09H
	DB	09H
	DB	0dH
	DB	0dH
	DB	013H
	DB	02aH
	DB	05aH
	DB	032H
	DB	032H
	DB	013H
	DB	016H
	DB	07fH
	DB	0efH
	DB	06cH
	DB	050H
	DB	01aH
	DB	01eH
	DB	035H
	DB	035H
	DB	03aH
	DB	019H
	DB	049H
	DB	04bH
	DB	04fH
	DB	030H
	DB	061H
	DB	04bH
	DB	01eH
	DB	030H
	DB	024H
	DB	035H
	DB	024H
	DB	04dH
	DB	024H
	DB	034H
	DB	01dH
	DB	01aH
	DB	03aH
	DB	00H
	DB	016H
	DB	024H
	DB	01eH
	DB	00H
	DB	00H
	DB	00H
	DB	00H
	DB	00H
	DB	00H
	DB	00H
	DB	00H
	DB	00H
	DB	00H
	DB	00H
	DB	09H
	DB	09H
	DB	02aH
	DB	09H
	DB	09H
	DB	09H
	DB	00H
	DB	00H
	DB	00H
	DB	00H
	DB	00H
	DB	00H
	DB	00H
	DB	00H
	DB	00H
	DB	00H
	DB	00H
	DB	00H
	DB	00H
	DB	00H
	DB	09H
	DB	09H
	DB	09H
	DB	00H
	DB	09H
	DB	016H
	DB	059H
	DB	09H
	DB	00H
	DB	09H
	DB	016H
	DB	016H
	DB	09H
	DB	09H
	DB	013H
	DB	02aH
	DB	07dH
	DB	045H
	DB	016H
	DB	056H
	DB	040H
	DB	019H
	DB	02aH
	DB	09H
	DB	09H
	DB	09H
	DB	016H
	DB	013H
	DB	02aH
	DB	02aH
	DB	09H
	DB	032H
	DB	00H
	DB	00H
	DB	056H
	DB	07eH
	DB	05aH
	DB	09H
	DB	059H
	DB	03bH
	DB	01aH
	DB	036H
	DB	07H
	DB	07H
	DB	07H
	DB	07H
	DB	07H
	DB	07H
	DB	07H
	DB	07H
	DB	023H
	DB	067H
	DB	017H
	DB	0aH
	DB	0d9H
	DB	051H
	DB	051H
	DB	051H
	DB	051H
	DB	051H
	DB	051H
	DB	051H
	DB	011H
	DB	011H
	DB	011H
	DB	011H
	DB	011H
	DB	011H
	DB	011H
	DB	011H
	DB	011H
	DB	011H
	DB	011H
	DB	011H
	DB	011H
	DB	011H
	DB	011H
	DB	011H
	DB	011H
	DB	011H
	DB	011H
	DB	011H
	DB	011H
	DB	011H
	DB	011H
	DB	011H
	DB	011H
	DB	011H
	DB	075H
	DB	075H
	DB	075H
	DB	075H
	DB	075H
	DB	075H
	DB	075H
	DB	075H
	DB	018H
	DB	018H
	DB	018H
	DB	018H
	DB	018H
	DB	082H
	DB	082H
	DB	082H
	DB	082H
	DB	082H
	DB	082H
	DB	082H
	DB	082H
	DB	082H
	DB	082H
	DB	082H
	DB	082H
	DB	082H
	DB	011H
	DB	017H
	DB	0beH
	DB	07H
	DB	07H
	DB	07H
	DB	07H
	DB	07H
	DB	07H
	DB	07H
	DB	07H
	DB	08aH
	DB	02dH
	DB	04fH
	DB	034H
	DB	033H
	DB	01dH
	DB	01dH
	DB	027H
	DB	05aH
	DB	02aH
	DB	01dH
	DB	01eH
	DB	07fH
	DB	050H
	DB	024H
	DB	041H
	DB	076H
	DB	055H
	DB	064H
	DB	013H
	DB	0bH
	DB	033H
	DB	0adH
	DB	0d1H
	DB	047H
	DB	019H
	DB	04bH
	DB	035H
	DB	039H
	DB	00H
	DB	056H
	DB	030H
	DB	030H
	DB	027H
	DB	032H
	DB	00H
	DB	00H
	DB	09H
	DB	05aH
	DB	016H
	DB	032H
	DB	032H
	DB	016H
	DB	07eH
	DB	02dH
	DB	053H
	DB	01aH
	DB	027H
	DB	01dH
	DB	010H
	DB	01fH
	DB	032H
	DB	040H
	DB	040H
	DB	02aH
	DB	056H
	DB	01eH
	DB	01eH
	DB	035H
	DB	01aH
	DB	024H
	DB	01eH
	DB	042H
	DB	024H
	DB	024H
	DB	01aH
	DB	010H
	DB	01aH
	DB	01aH
	DB	0dH
	DB	09H
	DB	07fH
	DB	03cH
	DB	02dH
	DB	00H
	DB	00H
	DB	00H
	DB	00H
	DB	00H
	DB	00H
	DB	09H
	DB	00H
	DB	00H
	DB	00H
	DB	09H
	DB	00H
	DB	09H
	DB	016H
	DB	0dH
	DB	09H
	DB	09H
	DB	09H
	DB	09H
	DB	09H
	DB	09H
	DB	09H
	DB	09H
	DB	00H
	DB	00H
	DB	00H
	DB	09H
	DB	09H
	DB	00H
	DB	00H
	DB	00H
	DB	00H
	DB	00H
	DB	09H
	DB	09H
	DB	00H
	DB	09H
	DB	02aH
	DB	09H
	DB	00H
	DB	09H
	DB	016H
	DB	040H
	DB	02aH
	DB	09H
	DB	09H
	DB	056H
	DB	0aaH
	DB	064H
	DB	013H
	DB	016H
	DB	0dH
	DB	02aH
	DB	02aH
	DB	02aH
	DB	09H
	DB	09H
	DB	02aH
	DB	016H
	DB	02aH
	DB	02aH
	DB	02aH
	DB	00H
	DB	00H
	DB	00H
	DB	09H
	DB	033H
	DB	033H
	DB	016H
	DB	03dH
	DB	025H
	DB	07H
	DB	07H
	DB	07H
	DB	07H
	DB	07H
	DB	07H
	DB	07H
	DB	023H
	DB	077H
	DB	086H
	DB	0d9H
	DB	0d9H
	DB	051H
	DB	051H
	DB	051H
	DB	051H
	DB	051H
	DB	051H
	DB	051H
	DB	051H
	DB	051H
	DB	051H
	DB	011H
	DB	011H
	DB	011H
	DB	051H
	DB	051H
	DB	051H
	DB	051H
	DB	051H
	DB	051H
	DB	051H
	DB	051H
	DB	0d9H
	DB	051H
	DB	0d9H
	DB	0d9H
	DB	0d9H
	DB	0d9H
	DB	0d9H
	DB	051H
	DB	051H
	DB	051H
	DB	051H
	DB	051H
	DB	051H
	DB	051H
	DB	051H
	DB	051H
	DB	011H
	DB	011H
	DB	011H
	DB	011H
	DB	011H
	DB	011H
	DB	011H
	DB	075H
	DB	075H
	DB	075H
	DB	075H
	DB	018H
	DB	018H
	DB	018H
	DB	018H
	DB	018H
	DB	082H
	DB	082H
	DB	082H
	DB	082H
	DB	082H
	DB	082H
	DB	082H
	DB	082H
	DB	082H
	DB	01bH
	DB	01bH
	DB	01bH
	DB	018H
	DB	017H
	DB	023H
	DB	07H
	DB	07H
	DB	07H
	DB	07H
	DB	07H
	DB	07H
	DB	07H
	DB	07H
	DB	036H
	DB	04bH
	DB	028H
	DB	01dH
	DB	034H
	DB	034H
	DB	033H
	DB	033H
	DB	028H
	DB	03cH
	DB	02bH
	DB	024H
	DB	035H
	DB	01eH
	DB	04bH
	DB	05aH
	DB	00H
	DB	013H
	DB	05aH
	DB	035H
	DB	0ccH
	DB	0ddH
	DB	013H
	DB	019H
	DB	03aH
	DB	00H
	DB	07dH
	DB	060H
	DB	065H
	DB	036H
	DB	02bH
	DB	027H
	DB	016H
	DB	02aH
	DB	033H
	DB	01dH
	DB	028H
	DB	010H
	DB	09H
	DB	045H
	DB	01eH
	DB	064H
	DB	033H
	DB	027H
	DB	028H
	DB	060H
	DB	050H
	DB	00H
	DB	013H
	DB	01eH
	DB	01aH
	DB	07dH
	DB	027H
	DB	01dH
	DB	034H
	DB	01dH
	DB	016H
	DB	010H
	DB	028H
	DB	042H
	DB	01aH
	DB	045H
	DB	01aH
	DB	035H
	DB	01eH
	DB	01dH
	DB	016H
	DB	0abH
	DB	060H
	DB	041H
	DB	02dH
	DB	00H
	DB	00H
	DB	09H
	DB	09H
	DB	059H
	DB	016H
	DB	09H
	DB	00H
	DB	00H
	DB	09H
	DB	09H
	DB	00H
	DB	00H
	DB	09H
	DB	013H
	DB	09H
	DB	09H
	DB	09H
	DB	09H
	DB	09H
	DB	09H
	DB	09H
	DB	09H
	DB	09H
	DB	00H
	DB	00H
	DB	00H
	DB	00H
	DB	00H
	DB	00H
	DB	09H
	DB	00H
	DB	00H
	DB	00H
	DB	09H
	DB	09H
	DB	00H
	DB	00H
	DB	00H
	DB	00H
	DB	09H
	DB	02aH
	DB	032H
	DB	09H
	DB	033H
	DB	033H
	DB	05aH
	DB	02aH
	DB	032H
	DB	09H
	DB	02aH
	DB	00H
	DB	09H
	DB	02aH
	DB	013H
	DB	09H
	DB	09H
	DB	03bH
	DB	0dH
	DB	037H
	DB	03eH
	DB	010H
	DB	016H
	DB	013H
	DB	09H
	DB	02aH
	DB	034H
	DB	036H
	DB	07H
	DB	07H
	DB	07H
	DB	07H
	DB	07H
	DB	07H
	DB	07H
	DB	023H
	DB	077H
	DB	0d8H
	DB	0d9H
	DB	0aH
	DB	0aH
	DB	0d9H
	DB	0d9H
	DB	051H
	DB	051H
	DB	051H
	DB	051H
	DB	051H
	DB	051H
	DB	051H
	DB	051H
	DB	051H
	DB	051H
	DB	051H
	DB	051H
	DB	0d9H
	DB	0d9H
	DB	0aH
	DB	0aH
	DB	0aH
	DB	0d9H
	DB	0d9H
	DB	0d9H
	DB	0d9H
	DB	0d9H
	DB	0d9H
	DB	0d9H
	DB	0d9H
	DB	0d9H
	DB	051H
	DB	051H
	DB	051H
	DB	051H
	DB	051H
	DB	051H
	DB	051H
	DB	051H
	DB	051H
	DB	051H
	DB	051H
	DB	051H
	DB	051H
	DB	051H
	DB	051H
	DB	011H
	DB	011H
	DB	011H
	DB	011H
	DB	011H
	DB	011H
	DB	011H
	DB	011H
	DB	075H
	DB	075H
	DB	075H
	DB	075H
	DB	018H
	DB	018H
	DB	018H
	DB	082H
	DB	082H
	DB	082H
	DB	082H
	DB	082H
	DB	01bH
	DB	01bH
	DB	01bH
	DB	01bH
	DB	01bH
	DB	01bH
	DB	01bH
	DB	011H
	DB	015H
	DB	046H
	DB	07H
	DB	07H
	DB	07H
	DB	07H
	DB	07H
	DB	07H
	DB	07H
	DB	036H
	DB	04dH
	DB	042H
	DB	028H
	DB	028H
	DB	04fH
	DB	064H
	DB	061H
	DB	03dH
	DB	024H
	DB	0dH
	DB	013H
	DB	05aH
	DB	032H
	DB	00H
	DB	013H
	DB	02aH
	DB	016H
	DB	019H
	DB	09H
	DB	013H
	DB	0dH
	DB	03bH
	DB	027H
	DB	041H
	DB	094H
	DB	057H
	DB	03dH
	DB	02bH
	DB	01aH
	DB	027H
	DB	07fH
	DB	030H
	DB	030H
	DB	01eH
	DB	040H
	DB	016H
	DB	040H
	DB	019H
	DB	09H
	DB	0c9H
	DB	03cH
	DB	02eH
	DB	08bH
	DB	0acH
	DB	039H
	DB	016H
	DB	02dH
	DB	030H
	DB	050H
	DB	0e1H
	DB	034H
	DB	04fH
	DB	01dH
	DB	010H
	DB	010H
	DB	01dH
	DB	01dH
	DB	016H
	DB	010H
	DB	035H
	DB	040H
	DB	019H
	DB	056H
	DB	028H
	DB	06eH
	DB	044H
	DB	024H
	DB	042H
	DB	00H
	DB	00H
	DB	09H
	DB	09H
	DB	016H
	DB	037H
	DB	00H
	DB	00H
	DB	00H
	DB	00H
	DB	09H
	DB	09H
	DB	00H
	DB	09H
	DB	09H
	DB	09H
	DB	09H
	DB	09H
	DB	09H
	DB	03bH
	DB	09H
	DB	09H
	DB	09H
	DB	09H
	DB	059H
	DB	09H
	DB	00H
	DB	09H
	DB	013H
	DB	09H
	DB	09H
	DB	00H
	DB	09H
	DB	09H
	DB	09H
	DB	09H
	DB	032H
	DB	032H
	DB	00H
	DB	00H
	DB	02aH
	DB	09H
	DB	00H
	DB	00H
	DB	05aH
	DB	05aH
	DB	02aH
	DB	09H
	DB	0bH
	DB	013H
	DB	00H
	DB	00H
	DB	016H
	DB	010H
	DB	032H
	DB	00H
	DB	09H
	DB	09H
	DB	01fH
	DB	039H
	DB	029H
	DB	027H
	DB	01dH
	DB	0dH
	DB	019H
	DB	036H
	DB	07H
	DB	07H
	DB	07H
	DB	07H
	DB	07H
	DB	07H
	DB	07H
	DB	0beH
	DB	07bH
	DB	0aH
	DB	0aH
	DB	0aH
	DB	0aH
	DB	0aH
	DB	0aH
	DB	0d9H
	DB	051H
	DB	051H
	DB	051H
	DB	051H
	DB	051H
	DB	051H
	DB	0d9H
	DB	0d9H
	DB	0aH
	DB	0aH
	DB	0aH
	DB	0aH
	DB	0aH
	DB	0aH
	DB	0aH
	DB	0aH
	DB	0d9H
	DB	0d9H
	DB	0d9H
	DB	0d9H
	DB	0d9H
	DB	0d9H
	DB	0d9H
	DB	0d9H
	DB	0d9H
	DB	0d9H
	DB	051H
	DB	051H
	DB	051H
	DB	051H
	DB	051H
	DB	051H
	DB	051H
	DB	051H
	DB	051H
	DB	051H
	DB	051H
	DB	051H
	DB	051H
	DB	051H
	DB	011H
	DB	011H
	DB	011H
	DB	011H
	DB	011H
	DB	011H
	DB	011H
	DB	011H
	DB	011H
	DB	011H
	DB	011H
	DB	011H
	DB	011H
	DB	011H
	DB	011H
	DB	075H
	DB	075H
	DB	018H
	DB	018H
	DB	082H
	DB	082H
	DB	082H
	DB	082H
	DB	01bH
	DB	01bH
	DB	01bH
	DB	01bH
	DB	01bH
	DB	01bH
	DB	01bH
	DB	01bH
	DB	01bH
	DB	0d9H
	DB	077H
	DB	07H
	DB	07H
	DB	07H
	DB	07H
	DB	07H
	DB	07H
	DB	07H
	DB	03fH
	DB	042H
	DB	042H
	DB	04fH
	DB	032H
	DB	013H
	DB	01eH
	DB	030H
	DB	0abH
	DB	03aH
	DB	032H
	DB	00H
	DB	09H
	DB	032H
	DB	03bH
	DB	01aH
	DB	01dH
	DB	02aH
	DB	016H
	DB	02aH
	DB	056H
	DB	02dH
	DB	094H
	DB	057H
	DB	060H
	DB	053H
	DB	055H
	DB	024H
	DB	030H
	DB	05fH
	DB	043H
	DB	030H
	DB	04bH
	DB	05aH
	DB	013H
	DB	032H
	DB	00H
	DB	07dH
	DB	062H
	DB	066H
	DB	0aeH
	DB	0eeH
	DB	0acH
	DB	016H
	DB	033H
	DB	042H
	DB	04dH
	DB	043H
	DB	043H
	DB	01eH
	DB	01eH
	DB	024H
	DB	01eH
	DB	01aH
	DB	028H
	DB	01aH
	DB	027H
	DB	04bH
	DB	01aH
	DB	040H
	DB	028H
	DB	01eH
	DB	030H
	DB	044H
	DB	047H
	DB	01aH
	DB	01eH
	DB	00H
	DB	00H
	DB	09H
	DB	00H
	DB	00H
	DB	09H
	DB	09H
	DB	00H
	DB	00H
	DB	00H
	DB	00H
	DB	00H
	DB	09H
	DB	09H
	DB	09H
	DB	09H
	DB	09H
	DB	09H
	DB	09H
	DB	09H
	DB	03bH
	DB	09H
	DB	09H
	DB	09H
	DB	016H
	DB	02aH
	DB	09H
	DB	09H
	DB	032H
	DB	00H
	DB	00H
	DB	00H
	DB	09H
	DB	09H
	DB	09H
	DB	032H
	DB	032H
	DB	00H
	DB	00H
	DB	00H
	DB	032H
	DB	09H
	DB	01fH
	DB	00H
	DB	00H
	DB	00H
	DB	09H
	DB	059H
	DB	059H
	DB	0bH
	DB	09H
	DB	03bH
	DB	02fH
	DB	040H
	DB	09H
	DB	09H
	DB	09H
	DB	09H
	DB	09H
	DB	09H
	DB	013H
	DB	059H
	DB	027H
	DB	036H
	DB	07H
	DB	07H
	DB	07H
	DB	07H
	DB	07H
	DB	07H
	DB	046H
	DB	077H
	DB	086H
	DB	0aH
	DB	0aH
	DB	0aH
	DB	0aH
	DB	0aH
	DB	0aH
	DB	0d9H
	DB	0d9H
	DB	0d9H
	DB	051H
	DB	051H
	DB	0d9H
	DB	0d9H
	DB	0d9H
	DB	0aH
	DB	0aH
	DB	0aH
	DB	0aH
	DB	0aH
	DB	0aH
	DB	0aH
	DB	0aH
	DB	0aH
	DB	0d9H
	DB	0d9H
	DB	0d9H
	DB	0d9H
	DB	0d9H
	DB	0d9H
	DB	0aH
	DB	0aH
	DB	0d7H
	DB	0d7H
	DB	0d7H
	DB	0d7H
	DB	06aH
	DB	06aH
	DB	06aH
	DB	0a4H
	DB	079H
	DB	079H
	DB	079H
	DB	0a3H
	DB	06aH
	DB	097H
	DB	097H
	DB	097H
	DB	05dH
	DB	05dH
	DB	05dH
	DB	05dH
	DB	05dH
	DB	05dH
	DB	051H
	DB	011H
	DB	011H
	DB	011H
	DB	011H
	DB	011H
	DB	011H
	DB	011H
	DB	011H
	DB	011H
	DB	011H
	DB	011H
	DB	011H
	DB	011H
	DB	075H
	DB	075H
	DB	018H
	DB	018H
	DB	082H
	DB	082H
	DB	082H
	DB	01bH
	DB	01bH
	DB	01bH
	DB	01bH
	DB	01bH
	DB	01bH
	DB	01bH
	DB	01bH
	DB	01bH
	DB	082H
	DB	086H
	DB	023H
	DB	07H
	DB	07H
	DB	07H
	DB	07H
	DB	07H
	DB	07H
	DB	08aH
	DB	024H
	DB	010H
	DB	05aH
	DB	0aaH
	DB	042H
	DB	024H
	DB	019H
	DB	00H
	DB	00H
	DB	09H
	DB	013H
	DB	019H
	DB	03eH
	DB	016H
	DB	05aH
	DB	05aH
	DB	05aH
	DB	016H
	DB	028H
	DB	057H
	DB	057H
	DB	0cfH
	DB	0cdH
	DB	04cH
	DB	07fH
	DB	065H
	DB	044H
	DB	038H
	DB	028H
	DB	089H
	DB	094H
	DB	01dH
	DB	00H
	DB	00H
	DB	041H
	DB	0bdH
	DB	06cH
	DB	0ceH
	DB	047H
	DB	01aH
	DB	028H
	DB	04bH
	DB	042H
	DB	053H
	DB	05fH
	DB	01dH
	DB	01dH
	DB	043H
	DB	043H
	DB	027H
	DB	010H
	DB	04dH
	DB	030H
	DB	061H
	DB	02dH
	DB	028H
	DB	027H
	DB	030H
	DB	061H
	DB	040H
	DB	040H
	DB	01dH
	DB	01eH
	DB	01eH
	DB	00H
	DB	09H
	DB	09H
	DB	09H
	DB	00H
	DB	00H
	DB	00H
	DB	00H
	DB	00H
	DB	00H
	DB	00H
	DB	00H
	DB	00H
	DB	00H
	DB	00H
	DB	00H
	DB	00H
	DB	00H
	DB	09H
	DB	09H
	DB	09H
	DB	09H
	DB	09H
	DB	013H
	DB	059H
	DB	016H
	DB	02aH
	DB	09H
	DB	09H
	DB	00H
	DB	09H
	DB	00H
	DB	09H
	DB	09H
	DB	0bH
	DB	09H
	DB	00H
	DB	00H
	DB	09H
	DB	00H
	DB	09H
	DB	09H
	DB	05bH
	DB	0a0H
	DB	01fH
	DB	09H
	DB	09H
	DB	09H
	DB	00H
	DB	09H
	DB	02aH
	DB	016H
	DB	038H
	DB	016H
	DB	056H
	DB	02aH
	DB	0bH
	DB	016H
	DB	027H
	DB	013H
	DB	033H
	DB	03fH
	DB	07H
	DB	07H
	DB	07H
	DB	07H
	DB	07H
	DB	07H
	DB	023H
	DB	015H
	DB	086H
	DB	0aH
	DB	0aH
	DB	0aH
	DB	0aH
	DB	0aH
	DB	0aH
	DB	0aH
	DB	0d9H
	DB	051H
	DB	0d9H
	DB	0aH
	DB	0aH
	DB	0aH
	DB	0aH
	DB	0aH
	DB	0aH
	DB	0aH
	DB	0aH
	DB	0aH
	DB	0aH
	DB	0aH
	DB	0aH
	DB	0aH
	DB	0aH
	DB	0aH
	DB	0d7H
	DB	06aH
	DB	06aH
	DB	0a4H
	DB	079H
	DB	0c2H
	DB	069H
	DB	085H
	DB	05eH
	DB	052H
	DB	052H
	DB	0eH
	DB	0eH
	DB	0eH
	DB	0eH
	DB	0eH
	DB	0eH
	DB	0eH
	DB	0eH
	DB	0eH
	DB	0eH
	DB	0eH
	DB	0eH
	DB	0eH
	DB	052H
	DB	052H
	DB	08eH
	DB	0c0H
	DB	05eH
	DB	085H
	DB	0f6H
	DB	0c2H
	DB	0a3H
	DB	08fH
	DB	097H
	DB	05dH
	DB	051H
	DB	011H
	DB	011H
	DB	011H
	DB	011H
	DB	011H
	DB	075H
	DB	075H
	DB	075H
	DB	075H
	DB	075H
	DB	075H
	DB	075H
	DB	018H
	DB	018H
	DB	082H
	DB	082H
	DB	01bH
	DB	01bH
	DB	01bH
	DB	01bH
	DB	01bH
	DB	01bH
	DB	01bH
	DB	0daH
	DB	0daH
	DB	01bH
	DB	0aH
	DB	05cH
	DB	07H
	DB	07H
	DB	07H
	DB	07H
	DB	07H
	DB	07H
	DB	02eH
	DB	061H
	DB	0aaH
	DB	04fH
	DB	03aH
	DB	032H
	DB	00H
	DB	00H
	DB	09H
	DB	04fH
	DB	064H
	DB	013H
	DB	07eH
	DB	0aaH
	DB	05aH
	DB	064H
	DB	013H
	DB	027H
	DB	060H
	DB	048H
	DB	084H
	DB	0b7H
	DB	037H
	DB	07fH
	DB	096H
	DB	0b9H
	DB	038H
	DB	034H
	DB	072H
	DB	0f0H
	DB	047H
	DB	00H
	DB	00H
	DB	064H
	DB	035H
	DB	0a9H
	DB	039H
	DB	00H
	DB	07eH
	DB	02dH
	DB	04bH
	DB	042H
	DB	053H
	DB	04dH
	DB	019H
	DB	016H
	DB	043H
	DB	0ebH
	DB	03cH
	DB	010H
	DB	010H
	DB	01dH
	DB	04bH
	DB	042H
	DB	028H
	DB	024H
	DB	030H
	DB	040H
	DB	03aH
	DB	05aH
	DB	01dH
	DB	061H
	DB	01aH
	DB	00H
	DB	09H
	DB	09H
	DB	09H
	DB	00H
	DB	00H
	DB	00H
	DB	00H
	DB	00H
	DB	00H
	DB	00H
	DB	00H
	DB	00H
	DB	00H
	DB	00H
	DB	00H
	DB	09H
	DB	09H
	DB	09H
	DB	09H
	DB	09H
	DB	00H
	DB	09H
	DB	09H
	DB	09H
	DB	056H
	DB	013H
	DB	09H
	DB	09H
	DB	00H
	DB	09H
	DB	09H
	DB	09H
	DB	09H
	DB	09H
	DB	09H
	DB	09H
	DB	0bH
	DB	033H
	DB	02aH
	DB	09H
	DB	09H
	DB	0dH
	DB	05bH
	DB	03bH
	DB	09H
	DB	059H
	DB	02aH
	DB	013H
	DB	00H
	DB	09H
	DB	056H
	DB	056H
	DB	016H
	DB	033H
	DB	056H
	DB	056H
	DB	01dH
	DB	050H
	DB	03fH
	DB	07H
	DB	07H
	DB	07H
	DB	07H
	DB	07H
	DB	07H
	DB	023H
	DB	015H
	DB	0aH
	DB	0aH
	DB	0aH
	DB	0aH
	DB	0aH
	DB	0aH
	DB	0aH
	DB	0aH
	DB	0aH
	DB	0d9H
	DB	0aH
	DB	0aH
	DB	0aH
	DB	0aH
	DB	0aH
	DB	0aH
	DB	0aH
	DB	0aH
	DB	0aH
	DB	0aH
	DB	0aH
	DB	0aH
	DB	0aH
	DB	0aH
	DB	06aH
	DB	0a4H
	DB	079H
	DB	0f6H
	DB	0d3H
	DB	0c0H
	DB	08eH
	DB	0eH
	DB	0eH
	DB	0eH
	DB	0eH
	DB	0eH
	DB	0eH
	DB	0eH
	DB	0eH
	DB	0eH
	DB	0eH
	DB	0eH
	DB	0eH
	DB	0eH
	DB	0eH
	DB	0eH
	DB	0eH
	DB	0eH
	DB	0eH
	DB	0eH
	DB	0eH
	DB	0eH
	DB	0eH
	DB	0eH
	DB	0eH
	DB	0eH
	DB	0eH
	DB	0eH
	DB	0eH
	DB	0eH
	DB	0eH
	DB	0eH
	DB	08eH
	DB	0c0H
	DB	0d3H
	DB	06fH
	DB	0a3H
	DB	08fH
	DB	05dH
	DB	011H
	DB	075H
	DB	075H
	DB	075H
	DB	075H
	DB	075H
	DB	075H
	DB	075H
	DB	075H
	DB	075H
	DB	018H
	DB	018H
	DB	082H
	DB	082H
	DB	01bH
	DB	01bH
	DB	01bH
	DB	01bH
	DB	01bH
	DB	0daH
	DB	0daH
	DB	0daH
	DB	0daH
	DB	0daH
	DB	051H
	DB	0beH
	DB	07H
	DB	07H
	DB	07H
	DB	07H
	DB	07H
	DB	07H
	DB	03fH
	DB	035H
	DB	032H
	DB	00H
	DB	032H
	DB	016H
	DB	07eH
	DB	07eH
	DB	056H
	DB	033H
	DB	042H
	DB	0cbH
	DB	01dH
	DB	01dH
	DB	010H
	DB	027H
	DB	050H
	DB	055H
	DB	055H
	DB	050H
	DB	07eH
	DB	01eH
	DB	0adH
	DB	047H
	DB	019H
	DB	04bH
	DB	0e0H
	DB	053H
	DB	040H
	DB	09H
	DB	00H
	DB	00H
	DB	00H
	DB	00H
	DB	09H
	DB	056H
	DB	042H
	DB	0e0H
	DB	092H
	DB	042H
	DB	02dH
	DB	024H
	DB	016H
	DB	013H
	DB	024H
	DB	072H
	DB	072H
	DB	05fH
	DB	029H
	DB	013H
	DB	01dH
	DB	01eH
	DB	01eH
	DB	04dH
	DB	061H
	DB	01aH
	DB	045H
	DB	01aH
	DB	01eH
	DB	027H
	DB	03bH
	DB	00H
	DB	00H
	DB	09H
	DB	09H
	DB	00H
	DB	00H
	DB	00H
	DB	09H
	DB	00H
	DB	00H
	DB	00H
	DB	00H
	DB	00H
	DB	00H
	DB	00H
	DB	00H
	DB	09H
	DB	09H
	DB	09H
	DB	09H
	DB	09H
	DB	09H
	DB	00H
	DB	09H
	DB	09H
	DB	016H
	DB	09H
	DB	00H
	DB	09H
	DB	09H
	DB	09H
	DB	09H
	DB	09H
	DB	09H
	DB	09H
	DB	09H
	DB	0c9H
	DB	056H
	DB	016H
	DB	02aH
	DB	0bH
	DB	02aH
	DB	09H
	DB	09H
	DB	00H
	DB	00H
	DB	013H
	DB	019H
	DB	03aH
	DB	00H
	DB	09H
	DB	033H
	DB	07dH
	DB	033H
	DB	056H
	DB	056H
	DB	033H
	DB	03cH
	DB	07H
	DB	07H
	DB	07H
	DB	07H
	DB	07H
	DB	07H
	DB	023H
	DB	015H
	DB	0aH
	DB	0aH
	DB	0aH
	DB	086H
	DB	0aH
	DB	0aH
	DB	0aH
	DB	0aH
	DB	0aH
	DB	0aH
	DB	0aH
	DB	0aH
	DB	0aH
	DB	0aH
	DB	0aH
	DB	0aH
	DB	0aH
	DB	0aH
	DB	0aH
	DB	0aH
	DB	0aH
	DB	0aH
	DB	06aH
	DB	0a4H
	DB	0c2H
	DB	069H
	DB	05eH
	DB	0eH
	DB	0eH
	DB	0eH
	DB	0eH
	DB	0eH
	DB	0eH
	DB	0eH
	DB	0eH
	DB	0bfH
	DB	026H
	DB	06H
	DB	021H
	DB	021H
	DB	022H
	DB	022H
	DB	0bH
	DB	00H
	DB	00H
	DB	00H
	DB	00H
	DB	00H
	DB	00H
	DB	00H
	DB	00H
	DB	00H
	DB	00H
	DB	00H
	DB	0bH
	DB	022H
	DB	022H
	DB	03H
	DB	021H
	DB	06H
	DB	026H
	DB	0bfH
	DB	0bfH
	DB	0eH
	DB	0eH
	DB	0eH
	DB	0eH
	DB	0eH
	DB	0eH
	DB	0eH
	DB	0c0H
	DB	081H
	DB	0c1H
	DB	0b1H
	DB	097H
	DB	075H
	DB	075H
	DB	075H
	DB	075H
	DB	075H
	DB	075H
	DB	075H
	DB	075H
	DB	075H
	DB	018H
	DB	018H
	DB	082H
	DB	082H
	DB	01bH
	DB	01bH
	DB	0daH
	DB	0daH
	DB	0daH
	DB	0daH
	DB	0daH
	DB	0daH
	DB	09eH
	DB	011H
	DB	014H
	DB	07H
	DB	07H
	DB	07H
	DB	07H
	DB	07H
	DB	07H
	DB	02bH
	DB	00H
	DB	013H
	DB	01dH
	DB	034H
	DB	092H
	DB	092H
	DB	049H
	DB	0e0H
	DB	02dH
	DB	028H
	DB	01eH
	DB	035H
	DB	045H
	DB	027H
	DB	01dH
	DB	01aH
	DB	028H
	DB	01eH
	DB	01eH
	DB	040H
	DB	016H
	DB	05aH
	DB	01dH
	DB	01eH
	DB	04cH
	DB	010H
	DB	07eH
	DB	01dH
	DB	03bH
	DB	00H
	DB	00H
	DB	033H
	DB	049H
	DB	049H
	DB	092H
	DB	042H
	DB	07fH
	DB	042H
	DB	042H
	DB	027H
	DB	03bH
	DB	019H
	DB	04bH
	DB	041H
	DB	03dH
	DB	027H
	DB	016H
	DB	01aH
	DB	061H
	DB	061H
	DB	064H
	DB	013H
	DB	019H
	DB	034H
	DB	024H
	DB	053H
	DB	06eH
	DB	03eH
	DB	09H
	DB	00H
	DB	00H
	DB	00H
	DB	00H
	DB	00H
	DB	00H
	DB	00H
	DB	00H
	DB	00H
	DB	00H
	DB	00H
	DB	00H
	DB	00H
	DB	00H
	DB	00H
	DB	00H
	DB	00H
	DB	00H
	DB	00H
	DB	09H
	DB	09H
	DB	00H
	DB	00H
	DB	09H
	DB	032H
	DB	00H
	DB	00H
	DB	00H
	DB	09H
	DB	02aH
	DB	09H
	DB	09H
	DB	09H
	DB	09H
	DB	09H
	DB	059H
	DB	0bH
	DB	09H
	DB	09H
	DB	02aH
	DB	02aH
	DB	09H
	DB	09H
	DB	00H
	DB	00H
	DB	00H
	DB	09H
	DB	013H
	DB	02aH
	DB	027H
	DB	01dH
	DB	02aH
	DB	02aH
	DB	056H
	DB	028H
	DB	02eH
	DB	07H
	DB	07H
	DB	07H
	DB	07H
	DB	07H
	DB	023H
	DB	0c5H
	DB	0aH
	DB	0aH
	DB	086H
	DB	0aH
	DB	0aH
	DB	0aH
	DB	0aH
	DB	0aH
	DB	0aH
	DB	0aH
	DB	0aH
	DB	0aH
	DB	0aH
	DB	0aH
	DB	0aH
	DB	0aH
	DB	0aH
	DB	0aH
	DB	0aH
	DB	0aH
	DB	0aH
	DB	070H
	DB	0c2H
	DB	069H
	DB	05eH
	DB	08eH
	DB	0eH
	DB	0eH
	DB	0eH
	DB	0eH
	DB	0eH
	DB	02cH
	DB	06H
	DB	04aH
	DB	022H
	DB	00H
	DB	00H
	DB	00H
	DB	00H
	DB	00H
	DB	00H
	DB	00H
	DB	00H
	DB	00H
	DB	00H
	DB	00H
	DB	00H
	DB	00H
	DB	00H
	DB	00H
	DB	00H
	DB	00H
	DB	00H
	DB	00H
	DB	00H
	DB	00H
	DB	00H
	DB	00H
	DB	00H
	DB	00H
	DB	00H
	DB	00H
	DB	00H
	DB	00H
	DB	00H
	DB	00H
	DB	022H
	DB	04aH
	DB	06H
	DB	02cH
	DB	0bfH
	DB	0eH
	DB	0eH
	DB	0eH
	DB	0eH
	DB	0eH
	DB	0c0H
	DB	081H
	DB	07aH
	DB	08fH
	DB	099H
	DB	075H
	DB	075H
	DB	075H
	DB	075H
	DB	075H
	DB	018H
	DB	018H
	DB	018H
	DB	018H
	DB	082H
	DB	082H
	DB	01bH
	DB	0daH
	DB	0daH
	DB	0daH
	DB	0daH
	DB	09eH
	DB	09eH
	DB	09eH
	DB	09eH
	DB	075H
	DB	067H
	DB	07H
	DB	07H
	DB	07H
	DB	07H
	DB	07H
	DB	02eH
	DB	03cH
	DB	04bH
	DB	019H
	DB	092H
	DB	02dH
	DB	030H
	DB	04bH
	DB	028H
	DB	024H
	DB	030H
	DB	061H
	DB	04bH
	DB	027H
	DB	07dH
	DB	07dH
	DB	028H
	DB	01dH
	DB	019H
	DB	027H
	DB	033H
	DB	033H
	DB	028H
	DB	024H
	DB	050H
	DB	045H
	DB	04dH
	DB	053H
	DB	040H
	DB	032H
	DB	00H
	DB	056H
	DB	042H
	DB	01eH
	DB	01eH
	DB	028H
	DB	050H
	DB	02dH
	DB	03cH
	DB	042H
	DB	016H
	DB	032H
	DB	019H
	DB	061H
	DB	024H
	DB	045H
	DB	028H
	DB	024H
	DB	030H
	DB	049H
	DB	01dH
	DB	05bH
	DB	010H
	DB	034H
	DB	028H
	DB	06eH
	DB	06cH
	DB	02fH
	DB	00H
	DB	00H
	DB	00H
	DB	00H
	DB	00H
	DB	00H
	DB	00H
	DB	09H
	DB	00H
	DB	00H
	DB	00H
	DB	00H
	DB	00H
	DB	00H
	DB	00H
	DB	00H
	DB	00H
	DB	00H
	DB	09H
	DB	00H
	DB	00H
	DB	00H
	DB	00H
	DB	00H
	DB	00H
	DB	00H
	DB	00H
	DB	00H
	DB	00H
	DB	00H
	DB	09H
	DB	09H
	DB	09H
	DB	09H
	DB	09H
	DB	09H
	DB	09H
	DB	09H
	DB	0bH
	DB	09H
	DB	09H
	DB	00H
	DB	00H
	DB	09H
	DB	013H
	DB	032H
	DB	00H
	DB	00H
	DB	02aH
	DB	033H
	DB	010H
	DB	039H
	DB	00H
	DB	09H
	DB	062H
	DB	07H
	DB	07H
	DB	07H
	DB	07H
	DB	07H
	DB	023H
	DB	015H
	DB	086H
	DB	0aH
	DB	086H
	DB	0aH
	DB	0aH
	DB	0aH
	DB	0aH
	DB	0aH
	DB	0aH
	DB	0aH
	DB	0aH
	DB	0aH
	DB	0aH
	DB	0aH
	DB	0aH
	DB	0aH
	DB	0aH
	DB	0aH
	DB	0aH
	DB	0aH
	DB	079H
	DB	069H
	DB	085H
	DB	052H
	DB	0eH
	DB	0eH
	DB	0eH
	DB	0eH
	DB	0bfH
	DB	026H
	DB	03H
	DB	0bH
	DB	00H
	DB	00H
	DB	00H
	DB	00H
	DB	00H
	DB	00H
	DB	00H
	DB	00H
	DB	00H
	DB	00H
	DB	00H
	DB	00H
	DB	00H
	DB	00H
	DB	00H
	DB	00H
	DB	00H
	DB	00H
	DB	00H
	DB	00H
	DB	00H
	DB	00H
	DB	00H
	DB	00H
	DB	00H
	DB	00H
	DB	00H
	DB	00H
	DB	00H
	DB	00H
	DB	00H
	DB	00H
	DB	00H
	DB	00H
	DB	00H
	DB	00H
	DB	00H
	DB	00H
	DB	00H
	DB	00H
	DB	00H
	DB	0bH
	DB	03H
	DB	06H
	DB	0bfH
	DB	0eH
	DB	0eH
	DB	0eH
	DB	0eH
	DB	052H
	DB	080H
	DB	06fH
	DB	08fH
	DB	075H
	DB	075H
	DB	018H
	DB	018H
	DB	018H
	DB	018H
	DB	018H
	DB	018H
	DB	018H
	DB	082H
	DB	01bH
	DB	01bH
	DB	0daH
	DB	0daH
	DB	09eH
	DB	09eH
	DB	09eH
	DB	09eH
	DB	09eH
	DB	09eH
	DB	075H
	DB	0beH
	DB	07H
	DB	07H
	DB	07H
	DB	07H
	DB	07H
	DB	02eH
	DB	034H
	DB	01eH
	DB	053H
	DB	04dH
	DB	027H
	DB	0abH
	DB	050H
	DB	030H
	DB	03cH
	DB	049H
	DB	028H
	DB	07dH
	DB	0abH
	DB	030H
	DB	01aH
	DB	01dH
	DB	061H
	DB	028H
	DB	028H
	DB	030H
	DB	05fH
	DB	024H
	DB	045H
	DB	035H
	DB	02bH
	DB	035H
	DB	032H
	DB	09H
	DB	056H
	DB	034H
	DB	04bH
	DB	01dH
	DB	01dH
	DB	050H
	DB	02bH
	DB	02dH
	DB	093H
	DB	093H
	DB	033H
	DB	05aH
	DB	064H
	DB	040H
	DB	019H
	DB	019H
	DB	01aH
	DB	042H
	DB	01eH
	DB	01aH
	DB	04cH
	DB	04cH
	DB	01aH
	DB	01dH
	DB	01eH
	DB	04dH
	DB	045H
	DB	00H
	DB	00H
	DB	00H
	DB	00H
	DB	00H
	DB	00H
	DB	00H
	DB	03bH
	DB	00H
	DB	00H
	DB	00H
	DB	00H
	DB	032H
	DB	00H
	DB	00H
	DB	00H
	DB	00H
	DB	00H
	DB	00H
	DB	00H
	DB	00H
	DB	00H
	DB	00H
	DB	00H
	DB	00H
	DB	00H
	DB	00H
	DB	00H
	DB	00H
	DB	09H
	DB	09H
	DB	09H
	DB	00H
	DB	00H
	DB	09H
	DB	09H
	DB	00H
	DB	09H
	DB	09H
	DB	09H
	DB	09H
	DB	00H
	DB	00H
	DB	00H
	DB	032H
	DB	00H
	DB	00H
	DB	09H
	DB	02aH
	DB	02aH
	DB	02aH
	DB	032H
	DB	024H
	DB	07H
	DB	07H
	DB	07H
	DB	07H
	DB	07H
	DB	046H
	DB	067H
	DB	0d8H
	DB	0d8H
	DB	086H
	DB	0aH
	DB	0aH
	DB	0aH
	DB	0aH
	DB	0aH
	DB	0aH
	DB	0aH
	DB	0aH
	DB	0aH
	DB	0aH
	DB	0aH
	DB	0aH
	DB	0aH
	DB	0aH
	DB	0aH
	DB	0aH
	DB	070H
	DB	069H
	DB	05eH
	DB	08eH
	DB	0eH
	DB	0eH
	DB	0eH
	DB	0eH
	DB	026H
	DB	03H
	DB	09H
	DB	00H
	DB	00H
	DB	00H
	DB	00H
	DB	00H
	DB	00H
	DB	00H
	DB	00H
	DB	00H
	DB	00H
	DB	00H
	DB	00H
	DB	00H
	DB	00H
	DB	00H
	DB	00H
	DB	00H
	DB	00H
	DB	00H
	DB	00H
	DB	00H
	DB	00H
	DB	00H
	DB	00H
	DB	00H
	DB	00H
	DB	00H
	DB	00H
	DB	00H
	DB	00H
	DB	00H
	DB	00H
	DB	00H
	DB	00H
	DB	00H
	DB	00H
	DB	00H
	DB	00H
	DB	00H
	DB	00H
	DB	00H
	DB	00H
	DB	00H
	DB	00H
	DB	00H
	DB	00H
	DB	00H
	DB	00H
	DB	00H
	DB	09H
	DB	03H
	DB	026H
	DB	0bfH
	DB	0eH
	DB	0eH
	DB	0eH
	DB	052H
	DB	080H
	DB	0c1H
	DB	0b2H
	DB	018H
	DB	018H
	DB	018H
	DB	018H
	DB	018H
	DB	018H
	DB	018H
	DB	082H
	DB	082H
	DB	01bH
	DB	01bH
	DB	0daH
	DB	09eH
	DB	09eH
	DB	09eH
	DB	09eH
	DB	01cH
	DB	01cH
	DB	09eH
	DB	0aH
	DB	046H
	DB	07H
	DB	07H
	DB	07H
	DB	07H
	DB	07H
	DB	062H
	DB	053H
	DB	055H
	DB	050H
	DB	045H
	DB	01dH
	DB	030H
	DB	03cH
	DB	049H
	DB	092H
	DB	028H
	DB	042H
	DB	02dH
	DB	01eH
	DB	040H
	DB	028H
	DB	030H
	DB	02dH
	DB	04dH
	DB	024H
	DB	02fH
	DB	045H
	DB	01dH
	DB	02bH
	DB	035H
	DB	00H
	DB	09H
	DB	027H
	DB	01eH
	DB	04bH
	DB	028H
	DB	01eH
	DB	024H
	DB	024H
	DB	024H
	DB	02dH
	DB	041H
	DB	04dH
	DB	016H
	DB	016H
	DB	04bH
	DB	01dH
	DB	09H
	DB	02aH
	DB	0aaH
	DB	01eH
	DB	028H
	DB	010H
	DB	045H
	DB	028H
	DB	034H
	DB	019H
	DB	033H
	DB	034H
	DB	00H
	DB	00H
	DB	00H
	DB	00H
	DB	00H
	DB	00H
	DB	00H
	DB	09H
	DB	00H
	DB	00H
	DB	00H
	DB	00H
	DB	00H
	DB	00H
	DB	00H
	DB	00H
	DB	00H
	DB	00H
	DB	00H
	DB	00H
	DB	00H
	DB	00H
	DB	00H
	DB	00H
	DB	00H
	DB	00H
	DB	00H
	DB	00H
	DB	00H
	DB	00H
	DB	09H
	DB	02aH
	DB	013H
	DB	00H
	DB	09H
	DB	09H
	DB	09H
	DB	09H
	DB	09H
	DB	09H
	DB	09H
	DB	02aH
	DB	016H
	DB	09H
	DB	09H
	DB	00H
	DB	00H
	DB	059H
	DB	02aH
	DB	0bH
	DB	04fH
	DB	08aH
	DB	07H
	DB	07H
	DB	07H
	DB	07H
	DB	07H
	DB	05cH
	DB	017H
	DB	086H
	DB	086H
	DB	0d8H
	DB	086H
	DB	0aH
	DB	0aH
	DB	0aH
	DB	0aH
	DB	0aH
	DB	0aH
	DB	0aH
	DB	0aH
	DB	0aH
	DB	0aH
	DB	0aH
	DB	0aH
	DB	0aH
	DB	06aH
	DB	073H
	DB	05eH
	DB	08eH
	DB	0eH
	DB	0eH
	DB	0eH
	DB	0bfH
	DB	05H
	DB	022H
	DB	00H
	DB	00H
	DB	00H
	DB	00H
	DB	00H
	DB	00H
	DB	00H
	DB	00H
	DB	00H
	DB	00H
	DB	00H
	DB	00H
	DB	00H
	DB	00H
	DB	00H
	DB	00H
	DB	00H
	DB	00H
	DB	00H
	DB	00H
	DB	00H
	DB	00H
	DB	00H
	DB	00H
	DB	00H
	DB	00H
	DB	00H
	DB	00H
	DB	00H
	DB	00H
	DB	00H
	DB	00H
	DB	00H
	DB	00H
	DB	00H
	DB	00H
	DB	00H
	DB	00H
	DB	00H
	DB	00H
	DB	00H
	DB	00H
	DB	00H
	DB	00H
	DB	00H
	DB	00H
	DB	00H
	DB	00H
	DB	00H
	DB	00H
	DB	00H
	DB	00H
	DB	00H
	DB	00H
	DB	00H
	DB	00H
	DB	00H
	DB	022H
	DB	06H
	DB	0bfH
	DB	0eH
	DB	0eH
	DB	0eH
	DB	054H
	DB	068H
	DB	0a3H
	DB	075H
	DB	018H
	DB	018H
	DB	018H
	DB	018H
	DB	018H
	DB	018H
	DB	082H
	DB	082H
	DB	01bH
	DB	01bH
	DB	0daH
	DB	09eH
	DB	09eH
	DB	01cH
	DB	01cH
	DB	01cH
	DB	01cH
	DB	01bH
	DB	015H
	DB	07H
	DB	07H
	DB	07H
	DB	07H
	DB	07H
	DB	025H
	DB	01eH
	DB	03bH
	DB	010H
	DB	01eH
	DB	02dH
	DB	042H
	DB	04bH
	DB	042H
	DB	042H
	DB	01dH
	DB	045H
	DB	01aH
	DB	010H
	DB	034H
	DB	030H
	DB	035H
	DB	040H
	DB	01aH
	DB	01aH
	DB	01dH
	DB	05fH
	DB	060H
	DB	01aH
	DB	0dH
	DB	09H
	DB	013H
	DB	064H
	DB	01dH
	DB	01eH
	DB	02dH
	DB	01eH
	DB	027H
	DB	01aH
	DB	024H
	DB	028H
	DB	01aH
	DB	016H
	DB	056H
	DB	01eH
	DB	01eH
	DB	019H
	DB	05aH
	DB	0aaH
	DB	061H
	DB	01eH
	DB	027H
	DB	01aH
	DB	030H
	DB	030H
	DB	01eH
	DB	028H
	DB	01eH
	DB	00H
	DB	00H
	DB	00H
	DB	00H
	DB	00H
	DB	00H
	DB	00H
	DB	00H
	DB	00H
	DB	00H
	DB	00H
	DB	00H
	DB	00H
	DB	00H
	DB	00H
	DB	00H
	DB	00H
	DB	09H
	DB	00H
	DB	00H
	DB	00H
	DB	00H
	DB	00H
	DB	00H
	DB	00H
	DB	00H
	DB	00H
	DB	09H
	DB	00H
	DB	09H
	DB	0bH
	DB	05aH
	DB	02aH
	DB	09H
	DB	09H
	DB	0bH
	DB	059H
	DB	059H
	DB	02aH
	DB	09H
	DB	09H
	DB	056H
	DB	027H
	DB	02aH
	DB	09H
	DB	00H
	DB	09H
	DB	013H
	DB	09H
	DB	02bH
	DB	07H
	DB	07H
	DB	07H
	DB	07H
	DB	07H
	DB	046H
	DB	015H
	DB	0d8H
	DB	0d8H
	DB	0d8H
	DB	086H
	DB	086H
	DB	086H
	DB	0aH
	DB	0aH
	DB	0aH
	DB	0aH
	DB	0aH
	DB	0aH
	DB	0aH
	DB	0aH
	DB	0aH
	DB	0aH
	DB	0aH
	DB	0a4H
	DB	085H
	DB	052H
	DB	0eH
	DB	0eH
	DB	0eH
	DB	0bfH
	DB	06H
	DB	022H
	DB	00H
	DB	00H
	DB	00H
	DB	00H
	DB	00H
	DB	00H
	DB	00H
	DB	00H
	DB	00H
	DB	00H
	DB	00H
	DB	00H
	DB	00H
	DB	00H
	DB	00H
	DB	00H
	DB	00H
	DB	00H
	DB	00H
	DB	00H
	DB	00H
	DB	00H
	DB	00H
	DB	00H
	DB	00H
	DB	00H
	DB	00H
	DB	00H
	DB	00H
	DB	00H
	DB	00H
	DB	00H
	DB	00H
	DB	00H
	DB	00H
	DB	00H
	DB	00H
	DB	00H
	DB	00H
	DB	00H
	DB	00H
	DB	00H
	DB	00H
	DB	00H
	DB	00H
	DB	00H
	DB	00H
	DB	00H
	DB	00H
	DB	00H
	DB	00H
	DB	00H
	DB	00H
	DB	00H
	DB	00H
	DB	00H
	DB	00H
	DB	00H
	DB	00H
	DB	00H
	DB	00H
	DB	00H
	DB	00H
	DB	04H
	DB	06H
	DB	0eH
	DB	0eH
	DB	0eH
	DB	08eH
	DB	054H
	DB	081H
	DB	0b2H
	DB	018H
	DB	018H
	DB	018H
	DB	018H
	DB	018H
	DB	082H
	DB	082H
	DB	082H
	DB	01bH
	DB	0daH
	DB	09eH
	DB	01cH
	DB	01cH
	DB	01cH
	DB	01cH
	DB	01cH
	DB	01cH
	DB	075H
	DB	05cH
	DB	07H
	DB	07H
	DB	07H
	DB	07H
	DB	07H
	DB	060H
	DB	09H
	DB	027H
	DB	030H
	DB	028H
	DB	04fH
	DB	01dH
	DB	034H
	DB	0abH
	DB	028H
	DB	028H
	DB	01aH
	DB	04bH
	DB	04bH
	DB	04fH
	DB	056H
	DB	0abH
	DB	028H
	DB	01dH
	DB	055H
	DB	04dH
	DB	01dH
	DB	027H
	DB	013H
	DB	00H
	DB	00H
	DB	032H
	DB	01dH
	DB	04bH
	DB	04fH
	DB	033H
	DB	028H
	DB	028H
	DB	019H
	DB	019H
	DB	07dH
	DB	027H
	DB	01dH
	DB	01aH
	DB	01dH
	DB	01dH
	DB	04bH
	DB	01eH
	DB	040H
	DB	01aH
	DB	05fH
	DB	02dH
	DB	03cH
	DB	03cH
	DB	02dH
	DB	02dH
	DB	00H
	DB	00H
	DB	00H
	DB	00H
	DB	00H
	DB	00H
	DB	032H
	DB	00H
	DB	00H
	DB	00H
	DB	00H
	DB	00H
	DB	09H
	DB	00H
	DB	00H
	DB	00H
	DB	09H
	DB	09H
	DB	00H
	DB	00H
	DB	00H
	DB	00H
	DB	09H
	DB	09H
	DB	09H
	DB	00H
	DB	00H
	DB	09H
	DB	09H
	DB	09H
	DB	0bH
	DB	02aH
	DB	02aH
	DB	013H
	DB	09H
	DB	09H
	DB	0bH
	DB	016H
	DB	056H
	DB	013H
	DB	00H
	DB	09H
	DB	059H
	DB	013H
	DB	09H
	DB	00H
	DB	09H
	DB	016H
	DB	02eH
	DB	07H
	DB	07H
	DB	07H
	DB	07H
	DB	07H
	DB	014H
	DB	0d8H
	DB	017H
	DB	0d8H
	DB	086H
	DB	0d8H
	DB	086H
	DB	086H
	DB	0aH
	DB	0aH
	DB	0aH
	DB	0aH
	DB	0aH
	DB	0aH
	DB	0aH
	DB	0aH
	DB	0aH
	DB	0aH
	DB	070H
	DB	05eH
	DB	08eH
	DB	0eH
	DB	0eH
	DB	0eH
	DB	026H
	DB	04H
	DB	00H
	DB	00H
	DB	00H
	DB	00H
	DB	00H
	DB	00H
	DB	00H
	DB	00H
	DB	00H
	DB	00H
	DB	00H
	DB	00H
	DB	00H
	DB	00H
	DB	00H
	DB	00H
	DB	00H
	DB	00H
	DB	00H
	DB	00H
	DB	00H
	DB	00H
	DB	00H
	DB	00H
	DB	00H
	DB	00H
	DB	00H
	DB	00H
	DB	00H
	DB	00H
	DB	00H
	DB	00H
	DB	00H
	DB	00H
	DB	00H
	DB	00H
	DB	00H
	DB	00H
	DB	00H
	DB	00H
	DB	00H
	DB	00H
	DB	00H
	DB	00H
	DB	00H
	DB	00H
	DB	00H
	DB	00H
	DB	00H
	DB	00H
	DB	00H
	DB	00H
	DB	00H
	DB	00H
	DB	00H
	DB	00H
	DB	00H
	DB	00H
	DB	00H
	DB	00H
	DB	00H
	DB	00H
	DB	00H
	DB	00H
	DB	00H
	DB	00H
	DB	00H
	DB	00H
	DB	00H
	DB	03H
	DB	026H
	DB	0eH
	DB	0eH
	DB	0eH
	DB	08eH
	DB	080H
	DB	098H
	DB	018H
	DB	082H
	DB	082H
	DB	082H
	DB	082H
	DB	082H
	DB	082H
	DB	01bH
	DB	01bH
	DB	09eH
	DB	01cH
	DB	01cH
	DB	01cH
	DB	01cH
	DB	01cH
	DB	01cH
	DB	01cH
	DB	086H
	DB	046H
	DB	07H
	DB	07H
	DB	07H
	DB	07H
	DB	02eH
	DB	07eH
	DB	01eH
	DB	01aH
	DB	03aH
	DB	02aH
	DB	034H
	DB	093H
	DB	04bH
	DB	01dH
	DB	01eH
	DB	01eH
	DB	04fH
	DB	033H
	DB	07eH
	DB	07fH
	DB	049H
	DB	01eH
	DB	040H
	DB	064H
	DB	034H
	DB	024H
	DB	01dH
	DB	03aH
	DB	00H
	DB	00H
	DB	013H
	DB	0dcH
	DB	0aaH
	DB	042H
	DB	057H
	DB	03dH
	DB	01dH
	DB	019H
	DB	042H
	DB	043H
	DB	03eH
	DB	032H
	DB	033H
	DB	034H
	DB	034H
	DB	027H
	DB	0dH
	DB	037H
	DB	050H
	DB	030H
	DB	024H
	DB	028H
	DB	035H
	DB	01eH
	DB	00H
	DB	00H
	DB	00H
	DB	00H
	DB	00H
	DB	00H
	DB	032H
	DB	032H
	DB	00H
	DB	00H
	DB	00H
	DB	00H
	DB	00H
	DB	00H
	DB	00H
	DB	00H
	DB	00H
	DB	00H
	DB	00H
	DB	00H
	DB	00H
	DB	09H
	DB	09H
	DB	09H
	DB	00H
	DB	00H
	DB	00H
	DB	00H
	DB	09H
	DB	09H
	DB	016H
	DB	016H
	DB	09H
	DB	0bH
	DB	0bH
	DB	09H
	DB	09H
	DB	09H
	DB	02aH
	DB	010H
	DB	00H
	DB	09H
	DB	0bH
	DB	09H
	DB	09H
	DB	03bH
	DB	050H
	DB	07H
	DB	07H
	DB	07H
	DB	07H
	DB	07H
	DB	023H
	DB	07bH
	DB	086H
	DB	086H
	DB	0d8H
	DB	0d8H
	DB	086H
	DB	086H
	DB	086H
	DB	0aH
	DB	0aH
	DB	0aH
	DB	0aH
	DB	0aH
	DB	0aH
	DB	0aH
	DB	0aH
	DB	0aH
	DB	070H
	DB	05eH
	DB	0eH
	DB	0eH
	DB	0eH
	DB	0bfH
	DB	021H
	DB	09H
	DB	00H
	DB	00H
	DB	00H
	DB	00H
	DB	00H
	DB	00H
	DB	00H
	DB	00H
	DB	00H
	DB	00H
	DB	00H
	DB	00H
	DB	00H
	DB	00H
	DB	00H
	DB	00H
	DB	00H
	DB	00H
	DB	00H
	DB	00H
	DB	00H
	DB	00H
	DB	00H
	DB	00H
	DB	00H
	DB	00H
	DB	00H
	DB	00H
	DB	00H
	DB	00H
	DB	00H
	DB	00H
	DB	00H
	DB	00H
	DB	00H
	DB	00H
	DB	00H
	DB	00H
	DB	00H
	DB	00H
	DB	00H
	DB	00H
	DB	00H
	DB	00H
	DB	00H
	DB	00H
	DB	00H
	DB	00H
	DB	00H
	DB	00H
	DB	00H
	DB	00H
	DB	00H
	DB	00H
	DB	00H
	DB	00H
	DB	00H
	DB	00H
	DB	00H
	DB	00H
	DB	00H
	DB	00H
	DB	00H
	DB	00H
	DB	00H
	DB	00H
	DB	00H
	DB	00H
	DB	00H
	DB	00H
	DB	00H
	DB	00H
	DB	00H
	DB	09H
	DB	021H
	DB	0bfH
	DB	0eH
	DB	0eH
	DB	0eH
	DB	080H
	DB	098H
	DB	018H
	DB	082H
	DB	082H
	DB	082H
	DB	082H
	DB	082H
	DB	082H
	DB	01bH
	DB	0daH
	DB	09eH
	DB	01cH
	DB	01cH
	DB	01cH
	DB	01cH
	DB	01cH
	DB	01cH
	DB	01bH
	DB	077H
	DB	07H
	DB	07H
	DB	07H
	DB	07H
	DB	07H
	DB	02bH
	DB	038H
	DB	010H
	DB	037H
	DB	01eH
	DB	049H
	DB	027H
	DB	033H
	DB	034H
	DB	01eH
	DB	028H
	DB	027H
	DB	045H
	DB	01eH
	DB	049H
	DB	01eH
	DB	064H
	DB	05aH
	DB	04bH
	DB	02bH
	DB	04dH
	DB	010H
	DB	039H
	DB	00H
	DB	00H
	DB	02aH
	DB	033H
	DB	03cH
	DB	066H
	DB	0bdH
	DB	043H
	DB	027H
	DB	053H
	DB	084H
	DB	02fH
	DB	013H
	DB	064H
	DB	034H
	DB	01eH
	DB	024H
	DB	027H
	DB	016H
	DB	045H
	DB	024H
	DB	028H
	DB	01dH
	DB	010H
	DB	03aH
	DB	00H
	DB	00H
	DB	00H
	DB	00H
	DB	00H
	DB	00H
	DB	00H
	DB	00H
	DB	00H
	DB	00H
	DB	00H
	DB	00H
	DB	00H
	DB	00H
	DB	00H
	DB	00H
	DB	00H
	DB	00H
	DB	00H
	DB	09H
	DB	09H
	DB	09H
	DB	09H
	DB	00H
	DB	00H
	DB	00H
	DB	09H
	DB	056H
	DB	037H
	DB	09H
	DB	016H
	DB	013H
	DB	09H
	DB	0bH
	DB	0c9H
	DB	03bH
	DB	00H
	DB	09H
	DB	02aH
	DB	016H
	DB	059H
	DB	037H
	DB	02aH
	DB	02aH
	DB	056H
	DB	062H
	DB	07H
	DB	07H
	DB	07H
	DB	07H
	DB	07H
	DB	014H
	DB	017H
	DB	017H
	DB	0d8H
	DB	086H
	DB	086H
	DB	0d8H
	DB	086H
	DB	0aH
	DB	086H
	DB	0aH
	DB	0aH
	DB	0aH
	DB	0aH
	DB	0aH
	DB	0aH
	DB	0d7H
	DB	070H
	DB	05eH
	DB	0eH
	DB	0eH
	DB	0eH
	DB	02cH
	DB	04H
	DB	00H
	DB	00H
	DB	00H
	DB	00H
	DB	00H
	DB	00H
	DB	00H
	DB	00H
	DB	00H
	DB	00H
	DB	00H
	DB	00H
	DB	00H
	DB	00H
	DB	00H
	DB	00H
	DB	00H
	DB	00H
	DB	00H
	DB	00H
	DB	00H
	DB	00H
	DB	00H
	DB	00H
	DB	00H
	DB	00H
	DB	00H
	DB	00H
	DB	00H
	DB	00H
	DB	00H
	DB	00H
	DB	00H
	DB	00H
	DB	00H
	DB	00H
	DB	00H
	DB	00H
	DB	00H
	DB	00H
	DB	00H
	DB	00H
	DB	00H
	DB	00H
	DB	00H
	DB	00H
	DB	00H
	DB	00H
	DB	00H
	DB	00H
	DB	00H
	DB	00H
	DB	00H
	DB	00H
	DB	00H
	DB	00H
	DB	00H
	DB	00H
	DB	00H
	DB	00H
	DB	00H
	DB	00H
	DB	00H
	DB	00H
	DB	00H
	DB	00H
	DB	00H
	DB	00H
	DB	00H
	DB	00H
	DB	00H
	DB	00H
	DB	00H
	DB	00H
	DB	00H
	DB	00H
	DB	00H
	DB	00H
	DB	00H
	DB	04H
	DB	026H
	DB	0eH
	DB	0eH
	DB	0eH
	DB	080H
	DB	0c6H
	DB	018H
	DB	082H
	DB	082H
	DB	082H
	DB	082H
	DB	082H
	DB	01bH
	DB	01bH
	DB	09eH
	DB	01cH
	DB	01cH
	DB	01cH
	DB	01cH
	DB	01cH
	DB	01cH
	DB	0b5H
	DB	0aH
	DB	046H
	DB	07H
	DB	07H
	DB	07H
	DB	07H
	DB	048H
	DB	016H
	DB	028H
	DB	049H
	DB	01eH
	DB	028H
	DB	0cbH
	DB	0aaH
	DB	034H
	DB	050H
	DB	050H
	DB	040H
	DB	064H
	DB	064H
	DB	01dH
	DB	0aaH
	DB	05aH
	DB	040H
	DB	035H
	DB	03eH
	DB	01fH
	DB	0dH
	DB	010H
	DB	01fH
	DB	00H
	DB	033H
	DB	02dH
	DB	088H
	DB	095H
	DB	053H
	DB	01eH
	DB	047H
	DB	055H
	DB	043H
	DB	030H
	DB	01eH
	DB	01dH
	DB	028H
	DB	05fH
	DB	043H
	DB	01eH
	DB	061H
	DB	061H
	DB	042H
	DB	042H
	DB	01dH
	DB	03aH
	DB	00H
	DB	00H
	DB	00H
	DB	00H
	DB	00H
	DB	00H
	DB	00H
	DB	00H
	DB	00H
	DB	00H
	DB	00H
	DB	09H
	DB	00H
	DB	00H
	DB	00H
	DB	00H
	DB	00H
	DB	03bH
	DB	032H
	DB	09H
	DB	09H
	DB	00H
	DB	00H
	DB	00H
	DB	00H
	DB	00H
	DB	09H
	DB	0abH
	DB	05fH
	DB	016H
	DB	02aH
	DB	02aH
	DB	09H
	DB	09H
	DB	056H
	DB	027H
	DB	013H
	DB	09H
	DB	09H
	DB	09H
	DB	059H
	DB	027H
	DB	09H
	DB	033H
	DB	02eH
	DB	07H
	DB	07H
	DB	07H
	DB	07H
	DB	046H
	DB	015H
	DB	017H
	DB	017H
	DB	0d8H
	DB	0d8H
	DB	086H
	DB	086H
	DB	086H
	DB	086H
	DB	0aH
	DB	0aH
	DB	0aH
	DB	0aH
	DB	0aH
	DB	0aH
	DB	0d7H
	DB	079H
	DB	05eH
	DB	0eH
	DB	0eH
	DB	0eH
	DB	026H
	DB	022H
	DB	00H
	DB	00H
	DB	00H
	DB	00H
	DB	00H
	DB	00H
	DB	00H
	DB	00H
	DB	00H
	DB	00H
	DB	00H
	DB	00H
	DB	00H
	DB	00H
	DB	00H
	DB	00H
	DB	00H
	DB	00H
	DB	00H
	DB	00H
	DB	00H
	DB	00H
	DB	00H
	DB	00H
	DB	00H
	DB	00H
	DB	00H
	DB	00H
	DB	00H
	DB	00H
	DB	00H
	DB	00H
	DB	00H
	DB	00H
	DB	00H
	DB	00H
	DB	00H
	DB	09H
	DB	08H
	DB	08H
	DB	08H
	DB	04H
	DB	08H
	DB	08H
	DB	08H
	DB	09H
	DB	00H
	DB	00H
	DB	00H
	DB	00H
	DB	00H
	DB	00H
	DB	00H
	DB	00H
	DB	00H
	DB	00H
	DB	00H
	DB	00H
	DB	00H
	DB	00H
	DB	00H
	DB	00H
	DB	00H
	DB	00H
	DB	00H
	DB	00H
	DB	00H
	DB	00H
	DB	00H
	DB	00H
	DB	00H
	DB	00H
	DB	00H
	DB	00H
	DB	00H
	DB	00H
	DB	00H
	DB	00H
	DB	00H
	DB	00H
	DB	00H
	DB	00H
	DB	00H
	DB	08H
	DB	06H
	DB	0eH
	DB	0eH
	DB	0eH
	DB	080H
	DB	0c6H
	DB	0a6H
	DB	082H
	DB	082H
	DB	082H
	DB	082H
	DB	01bH
	DB	01bH
	DB	0daH
	DB	01cH
	DB	01cH
	DB	01cH
	DB	01cH
	DB	01cH
	DB	01cH
	DB	0b5H
	DB	082H
	DB	05cH
	DB	07H
	DB	07H
	DB	07H
	DB	07H
	DB	025H
	DB	041H
	DB	061H
	DB	034H
	DB	028H
	DB	030H
	DB	092H
	DB	034H
	DB	030H
	DB	024H
	DB	010H
	DB	032H
	DB	09H
	DB	034H
	DB	092H
	DB	064H
	DB	064H
	DB	013H
	DB	09H
	DB	02aH
	DB	019H
	DB	03aH
	DB	00H
	DB	03bH
	DB	028H
	DB	01eH
	DB	01eH
	DB	01eH
	DB	049H
	DB	0e0H
	DB	02dH
	DB	01eH
	DB	01eH
	DB	02dH
	DB	024H
	DB	027H
	DB	045H
	DB	060H
	DB	076H
	DB	02bH
	DB	04dH
	DB	030H
	DB	02dH
	DB	02dH
	DB	01dH
	DB	019H
	DB	00H
	DB	00H
	DB	00H
	DB	00H
	DB	00H
	DB	00H
	DB	00H
	DB	00H
	DB	00H
	DB	00H
	DB	00H
	DB	09H
	DB	03bH
	DB	0dH
	DB	00H
	DB	00H
	DB	00H
	DB	09H
	DB	032H
	DB	09H
	DB	09H
	DB	00H
	DB	00H
	DB	00H
	DB	09H
	DB	09H
	DB	00H
	DB	03bH
	DB	07eH
	DB	056H
	DB	059H
	DB	059H
	DB	059H
	DB	09H
	DB	059H
	DB	016H
	DB	013H
	DB	09H
	DB	059H
	DB	02aH
	DB	059H
	DB	056H
	DB	024H
	DB	07H
	DB	07H
	DB	07H
	DB	07H
	DB	07H
	DB	05cH
	DB	07bH
	DB	017H
	DB	017H
	DB	017H
	DB	017H
	DB	0d8H
	DB	086H
	DB	0aH
	DB	0aH
	DB	0aH
	DB	0aH
	DB	0aH
	DB	0aH
	DB	0aH
	DB	0aH
	DB	070H
	DB	05eH
	DB	0eH
	DB	0eH
	DB	0eH
	DB	026H
	DB	0bH
	DB	00H
	DB	00H
	DB	00H
	DB	00H
	DB	00H
	DB	00H
	DB	00H
	DB	00H
	DB	00H
	DB	00H
	DB	00H
	DB	00H
	DB	00H
	DB	00H
	DB	00H
	DB	00H
	DB	00H
	DB	00H
	DB	00H
	DB	00H
	DB	00H
	DB	00H
	DB	00H
	DB	00H
	DB	00H
	DB	00H
	DB	00H
	DB	00H
	DB	00H
	DB	09H
	DB	022H
	DB	03H
	DB	05H
	DB	026H
	DB	026H
	DB	026H
	DB	0cH
	DB	0cH
	DB	0cH
	DB	0cH
	DB	0cH
	DB	0cH
	DB	0cH
	DB	0cH
	DB	0cH
	DB	0cH
	DB	0cH
	DB	0cH
	DB	0cH
	DB	0cH
	DB	0cH
	DB	02cH
	DB	026H
	DB	026H
	DB	05H
	DB	03H
	DB	022H
	DB	09H
	DB	00H
	DB	00H
	DB	00H
	DB	00H
	DB	00H
	DB	00H
	DB	00H
	DB	00H
	DB	00H
	DB	00H
	DB	00H
	DB	00H
	DB	00H
	DB	00H
	DB	00H
	DB	00H
	DB	00H
	DB	00H
	DB	00H
	DB	00H
	DB	00H
	DB	00H
	DB	00H
	DB	00H
	DB	00H
	DB	00H
	DB	00H
	DB	00H
	DB	00H
	DB	0bH
	DB	026H
	DB	0eH
	DB	0eH
	DB	0eH
	DB	080H
	DB	0b2H
	DB	082H
	DB	082H
	DB	01bH
	DB	01bH
	DB	01bH
	DB	01bH
	DB	0daH
	DB	09eH
	DB	01cH
	DB	01cH
	DB	0b5H
	DB	0b5H
	DB	0b5H
	DB	0b5H
	DB	09eH
	DB	015H
	DB	07H
	DB	07H
	DB	07H
	DB	07H
	DB	07H
	DB	01eH
	DB	093H
	DB	02dH
	DB	01dH
	DB	01dH
	DB	04bH
	DB	049H
	DB	024H
	DB	037H
	DB	032H
	DB	02aH
	DB	01dH
	DB	061H
	DB	035H
	DB	03aH
	DB	056H
	DB	042H
	DB	041H
	DB	04dH
	DB	010H
	DB	09H
	DB	016H
	DB	028H
	DB	01dH
	DB	030H
	DB	041H
	DB	02dH
	DB	0e0H
	DB	02dH
	DB	07eH
	DB	028H
	DB	01eH
	DB	04bH
	DB	019H
	DB	01aH
	DB	048H
	DB	076H
	DB	047H
	DB	050H
	DB	042H
	DB	042H
	DB	01eH
	DB	01dH
	DB	01aH
	DB	00H
	DB	00H
	DB	00H
	DB	00H
	DB	00H
	DB	00H
	DB	00H
	DB	00H
	DB	00H
	DB	00H
	DB	00H
	DB	03bH
	DB	038H
	DB	04cH
	DB	032H
	DB	00H
	DB	09H
	DB	00H
	DB	00H
	DB	09H
	DB	00H
	DB	00H
	DB	00H
	DB	00H
	DB	00H
	DB	09H
	DB	00H
	DB	00H
	DB	09H
	DB	02aH
	DB	059H
	DB	056H
	DB	056H
	DB	059H
	DB	09H
	DB	09H
	DB	00H
	DB	09H
	DB	02aH
	DB	02aH
	DB	09H
	DB	05fH
	DB	07H
	DB	07H
	DB	07H
	DB	07H
	DB	07H
	DB	014H
	DB	017H
	DB	017H
	DB	017H
	DB	017H
	DB	017H
	DB	0d8H
	DB	086H
	DB	086H
	DB	0aH
	DB	0aH
	DB	0aH
	DB	0aH
	DB	0aH
	DB	0aH
	DB	0a4H
	DB	069H
	DB	0eH
	DB	0eH
	DB	0eH
	DB	026H
	DB	08H
	DB	00H
	DB	00H
	DB	00H
	DB	00H
	DB	00H
	DB	00H
	DB	00H
	DB	00H
	DB	00H
	DB	00H
	DB	00H
	DB	00H
	DB	00H
	DB	00H
	DB	00H
	DB	00H
	DB	00H
	DB	00H
	DB	00H
	DB	00H
	DB	00H
	DB	00H
	DB	00H
	DB	00H
	DB	00H
	DB	09H
	DB	04H
	DB	04aH
	DB	06H
	DB	026H
	DB	031H
	DB	0cH
	DB	0cH
	DB	0cH
	DB	0cH
	DB	0cH
	DB	0cH
	DB	0cH
	DB	0cH
	DB	0cH
	DB	0cH
	DB	0cH
	DB	0cH
	DB	0cH
	DB	0cH
	DB	0cH
	DB	0cH
	DB	0cH
	DB	0cH
	DB	0cH
	DB	0cH
	DB	0cH
	DB	0cH
	DB	0cH
	DB	0cH
	DB	0cH
	DB	0cH
	DB	0cH
	DB	0cH
	DB	0cH
	DB	0cH
	DB	026H
	DB	06H
	DB	021H
	DB	04H
	DB	00H
	DB	00H
	DB	00H
	DB	00H
	DB	00H
	DB	00H
	DB	00H
	DB	00H
	DB	00H
	DB	00H
	DB	00H
	DB	00H
	DB	00H
	DB	00H
	DB	00H
	DB	00H
	DB	00H
	DB	00H
	DB	00H
	DB	00H
	DB	00H
	DB	00H
	DB	00H
	DB	00H
	DB	00H
	DB	00H
	DB	0bH
	DB	026H
	DB	0eH
	DB	0eH
	DB	0eH
	DB	06fH
	DB	0f7H
	DB	01bH
	DB	01bH
	DB	01bH
	DB	01bH
	DB	01bH
	DB	01bH
	DB	09eH
	DB	01cH
	DB	01cH
	DB	0b5H
	DB	0b5H
	DB	0b5H
	DB	0b5H
	DB	0b5H
	DB	0d9H
	DB	046H
	DB	07H
	DB	07H
	DB	07H
	DB	07H
	DB	072H
	DB	094H
	DB	019H
	DB	032H
	DB	04bH
	DB	04bH
	DB	019H
	DB	037H
	DB	040H
	DB	010H
	DB	016H
	DB	040H
	DB	010H
	DB	037H
	DB	03cH
	DB	072H
	DB	072H
	DB	053H
	DB	040H
	DB	032H
	DB	02aH
	DB	092H
	DB	042H
	DB	041H
	DB	095H
	DB	03cH
	DB	01eH
	DB	07fH
	DB	093H
	DB	042H
	DB	019H
	DB	05aH
	DB	019H
	DB	01dH
	DB	03cH
	DB	057H
	DB	030H
	DB	01eH
	DB	034H
	DB	028H
	DB	028H
	DB	030H
	DB	041H
	DB	00H
	DB	00H
	DB	00H
	DB	00H
	DB	00H
	DB	00H
	DB	00H
	DB	00H
	DB	00H
	DB	00H
	DB	09H
	DB	03eH
	DB	0a9H
	DB	039H
	DB	00H
	DB	09H
	DB	09H
	DB	00H
	DB	09H
	DB	09H
	DB	09H
	DB	09H
	DB	09H
	DB	00H
	DB	00H
	DB	00H
	DB	00H
	DB	00H
	DB	09H
	DB	09H
	DB	09H
	DB	059H
	DB	059H
	DB	09H
	DB	09H
	DB	059H
	DB	059H
	DB	09H
	DB	09H
	DB	09H
	DB	060H
	DB	07H
	DB	07H
	DB	07H
	DB	07H
	DB	046H
	DB	015H
	DB	017H
	DB	017H
	DB	017H
	DB	017H
	DB	017H
	DB	017H
	DB	086H
	DB	0aH
	DB	0aH
	DB	0aH
	DB	0aH
	DB	0aH
	DB	0aH
	DB	0d7H
	DB	073H
	DB	052H
	DB	0eH
	DB	0eH
	DB	0bfH
	DB	022H
	DB	00H
	DB	00H
	DB	00H
	DB	00H
	DB	00H
	DB	00H
	DB	00H
	DB	00H
	DB	00H
	DB	00H
	DB	00H
	DB	00H
	DB	00H
	DB	00H
	DB	00H
	DB	00H
	DB	00H
	DB	00H
	DB	00H
	DB	00H
	DB	00H
	DB	00H
	DB	00H
	DB	09H
	DB	04H
	DB	05H
	DB	026H
	DB	0cH
	DB	0cH
	DB	0cH
	DB	0cH
	DB	0cH
	DB	0cH
	DB	0cH
	DB	0cH
	DB	0cH
	DB	0cH
	DB	026H
	DB	06H
	DB	05H
	DB	05H
	DB	03H
	DB	03H
	DB	03H
	DB	04H
	DB	08H
	DB	08H
	DB	08H
	DB	08H
	DB	08H
	DB	022H
	DB	03H
	DB	03H
	DB	03H
	DB	05H
	DB	05H
	DB	06H
	DB	026H
	DB	0cH
	DB	0cH
	DB	0cH
	DB	0cH
	DB	0cH
	DB	0cH
	DB	0cH
	DB	0cH
	DB	0cH
	DB	0cH
	DB	026H
	DB	021H
	DB	022H
	DB	00H
	DB	00H
	DB	00H
	DB	00H
	DB	00H
	DB	00H
	DB	00H
	DB	00H
	DB	00H
	DB	00H
	DB	00H
	DB	00H
	DB	00H
	DB	00H
	DB	00H
	DB	00H
	DB	00H
	DB	00H
	DB	00H
	DB	00H
	DB	00H
	DB	00H
	DB	00H
	DB	00H
	DB	022H
	DB	0bfH
	DB	0eH
	DB	0eH
	DB	0f5H
	DB	0b0H
	DB	091H
	DB	01bH
	DB	01bH
	DB	01bH
	DB	01bH
	DB	01bH
	DB	0daH
	DB	01cH
	DB	01cH
	DB	0b5H
	DB	0b5H
	DB	0b5H
	DB	0b5H
	DB	0b5H
	DB	082H
	DB	05cH
	DB	07H
	DB	07H
	DB	07H
	DB	07H
	DB	08aH
	DB	064H
	DB	013H
	DB	04fH
	DB	02aH
	DB	059H
	DB	038H
	DB	037H
	DB	016H
	DB	019H
	DB	010H
	DB	010H
	DB	01aH
	DB	03cH
	DB	057H
	DB	060H
	DB	041H
	DB	040H
	DB	00H
	DB	00H
	DB	064H
	DB	02dH
	DB	06eH
	DB	03dH
	DB	02dH
	DB	01dH
	DB	04bH
	DB	049H
	DB	019H
	DB	056H
	DB	07fH
	DB	027H
	DB	019H
	DB	041H
	DB	088H
	DB	02dH
	DB	034H
	DB	019H
	DB	01dH
	DB	04dH
	DB	053H
	DB	041H
	DB	00H
	DB	00H
	DB	00H
	DB	00H
	DB	00H
	DB	00H
	DB	00H
	DB	00H
	DB	00H
	DB	00H
	DB	09H
	DB	013H
	DB	032H
	DB	00H
	DB	00H
	DB	09H
	DB	00H
	DB	00H
	DB	00H
	DB	03bH
	DB	0dH
	DB	00H
	DB	09H
	DB	00H
	DB	00H
	DB	00H
	DB	00H
	DB	00H
	DB	00H
	DB	09H
	DB	00H
	DB	09H
	DB	03bH
	DB	09H
	DB	00H
	DB	059H
	DB	07dH
	DB	09H
	DB	09H
	DB	057H
	DB	07H
	DB	07H
	DB	07H
	DB	07H
	DB	023H
	DB	07bH
	DB	017H
	DB	017H
	DB	017H
	DB	017H
	DB	017H
	DB	0d8H
	DB	086H
	DB	0aH
	DB	0aH
	DB	0aH
	DB	0aH
	DB	0aH
	DB	0aH
	DB	070H
	DB	085H
	DB	0eH
	DB	0eH
	DB	0eH
	DB	021H
	DB	00H
	DB	00H
	DB	00H
	DB	00H
	DB	00H
	DB	00H
	DB	00H
	DB	00H
	DB	00H
	DB	00H
	DB	00H
	DB	00H
	DB	00H
	DB	00H
	DB	00H
	DB	00H
	DB	00H
	DB	00H
	DB	00H
	DB	00H
	DB	00H
	DB	00H
	DB	0bH
	DB	04aH
	DB	026H
	DB	0cH
	DB	0cH
	DB	0cH
	DB	0cH
	DB	0cH
	DB	0cH
	DB	0cH
	DB	02cH
	DB	026H
	DB	05H
	DB	03H
	DB	08H
	DB	09H
	DB	00H
	DB	00H
	DB	00H
	DB	00H
	DB	00H
	DB	00H
	DB	00H
	DB	00H
	DB	00H
	DB	00H
	DB	00H
	DB	00H
	DB	00H
	DB	00H
	DB	00H
	DB	00H
	DB	00H
	DB	00H
	DB	00H
	DB	00H
	DB	00H
	DB	00H
	DB	00H
	DB	0bH
	DB	04H
	DB	04aH
	DB	05H
	DB	026H
	DB	02cH
	DB	0cH
	DB	0cH
	DB	0cH
	DB	0cH
	DB	0cH
	DB	0cH
	DB	031H
	DB	06H
	DB	04aH
	DB	0bH
	DB	00H
	DB	00H
	DB	00H
	DB	00H
	DB	00H
	DB	00H
	DB	00H
	DB	00H
	DB	00H
	DB	00H
	DB	00H
	DB	00H
	DB	00H
	DB	00H
	DB	00H
	DB	00H
	DB	00H
	DB	00H
	DB	00H
	DB	00H
	DB	00H
	DB	00H
	DB	021H
	DB	0eH
	DB	0eH
	DB	0eH
	DB	068H
	DB	098H
	DB	01bH
	DB	01bH
	DB	01bH
	DB	01bH
	DB	01bH
	DB	0daH
	DB	01cH
	DB	01cH
	DB	0b5H
	DB	0b5H
	DB	0b5H
	DB	0b5H
	DB	0b5H
	DB	01cH
	DB	015H
	DB	07H
	DB	07H
	DB	07H
	DB	07H
	DB	03fH
	DB	04fH
	DB	064H
	DB	013H
	DB	037H
	DB	045H
	DB	016H
	DB	019H
	DB	01eH
	DB	050H
	DB	045H
	DB	01aH
	DB	030H
	DB	03cH
	DB	03cH
	DB	03cH
	DB	040H
	DB	00H
	DB	00H
	DB	09H
	DB	01dH
	DB	030H
	DB	02dH
	DB	02dH
	DB	01eH
	DB	040H
	DB	032H
	DB	09H
	DB	0e7H
	DB	08dH
	DB	088H
	DB	01aH
	DB	055H
	DB	0acH
	DB	01aH
	DB	033H
	DB	01aH
	DB	050H
	DB	02fH
	DB	035H
	DB	01dH
	DB	00H
	DB	00H
	DB	00H
	DB	00H
	DB	00H
	DB	00H
	DB	00H
	DB	00H
	DB	00H
	DB	00H
	DB	00H
	DB	00H
	DB	00H
	DB	00H
	DB	00H
	DB	00H
	DB	00H
	DB	00H
	DB	00H
	DB	09H
	DB	032H
	DB	00H
	DB	00H
	DB	00H
	DB	00H
	DB	00H
	DB	00H
	DB	00H
	DB	09H
	DB	09H
	DB	09H
	DB	09H
	DB	09H
	DB	09H
	DB	09H
	DB	09H
	DB	03bH
	DB	09H
	DB	03fH
	DB	07H
	DB	07H
	DB	07H
	DB	07H
	DB	014H
	DB	017H
	DB	017H
	DB	017H
	DB	017H
	DB	017H
	DB	0d8H
	DB	086H
	DB	086H
	DB	0aH
	DB	0aH
	DB	0aH
	DB	0aH
	DB	0aH
	DB	06aH
	DB	069H
	DB	08eH
	DB	0eH
	DB	0eH
	DB	026H
	DB	0bH
	DB	00H
	DB	00H
	DB	00H
	DB	00H
	DB	00H
	DB	00H
	DB	00H
	DB	00H
	DB	00H
	DB	00H
	DB	00H
	DB	00H
	DB	00H
	DB	00H
	DB	00H
	DB	00H
	DB	00H
	DB	00H
	DB	00H
	DB	00H
	DB	0bH
	DB	021H
	DB	026H
	DB	0cH
	DB	0cH
	DB	0cH
	DB	0cH
	DB	0cH
	DB	0cH
	DB	026H
	DB	05H
	DB	04H
	DB	0bH
	DB	00H
	DB	00H
	DB	00H
	DB	00H
	DB	00H
	DB	00H
	DB	00H
	DB	00H
	DB	08H
	DB	022H
	DB	09H
	DB	0bH
	DB	04H
	DB	04H
	DB	0bH
	DB	0bH
	DB	03H
	DB	04aH
	DB	08H
	DB	0bH
	DB	03H
	DB	04H
	DB	0bH
	DB	0bH
	DB	08H
	DB	022H
	DB	09H
	DB	00H
	DB	00H
	DB	00H
	DB	00H
	DB	00H
	DB	00H
	DB	00H
	DB	00H
	DB	0bH
	DB	03H
	DB	06H
	DB	02cH
	DB	0cH
	DB	0cH
	DB	0cH
	DB	0cH
	DB	0cH
	DB	0cH
	DB	02cH
	DB	021H
	DB	0bH
	DB	00H
	DB	00H
	DB	00H
	DB	00H
	DB	00H
	DB	00H
	DB	00H
	DB	00H
	DB	00H
	DB	00H
	DB	00H
	DB	00H
	DB	00H
	DB	00H
	DB	00H
	DB	00H
	DB	00H
	DB	00H
	DB	00H
	DB	00H
	DB	09H
	DB	026H
	DB	0eH
	DB	0eH
	DB	0f4H
	DB	06fH
	DB	0a6H
	DB	01bH
	DB	01bH
	DB	01bH
	DB	01bH
	DB	0daH
	DB	09eH
	DB	01cH
	DB	0b5H
	DB	0b5H
	DB	0b5H
	DB	0b5H
	DB	0b5H
	DB	0b5H
	DB	0d9H
	DB	07H
	DB	07H
	DB	07H
	DB	07H
	DB	025H
	DB	01dH
	DB	019H
	DB	019H
	DB	0dH
	DB	02aH
	DB	033H
	DB	01aH
	DB	024H
	DB	050H
	DB	024H
	DB	04bH
	DB	034H
	DB	01eH
	DB	061H
	DB	01dH
	DB	03aH
	DB	0dH
	DB	032H
	DB	013H
	DB	034H
	DB	061H
	DB	01eH
	DB	050H
	DB	01dH
	DB	013H
	DB	027H
	DB	096H
	DB	0aeH
	DB	043H
	DB	07dH
	DB	01aH
	DB	035H
	DB	016H
	DB	016H
	DB	04dH
	DB	043H
	DB	0abH
	DB	010H
	DB	033H
	DB	00H
	DB	00H
	DB	00H
	DB	00H
	DB	00H
	DB	00H
	DB	00H
	DB	00H
	DB	00H
	DB	00H
	DB	00H
	DB	00H
	DB	00H
	DB	00H
	DB	00H
	DB	00H
	DB	00H
	DB	00H
	DB	00H
	DB	00H
	DB	00H
	DB	00H
	DB	00H
	DB	00H
	DB	00H
	DB	00H
	DB	00H
	DB	00H
	DB	00H
	DB	09H
	DB	09H
	DB	09H
	DB	00H
	DB	09H
	DB	03bH
	DB	09H
	DB	09H
	DB	08aH
	DB	07H
	DB	07H
	DB	07H
	DB	07H
	DB	067H
	DB	07bH
	DB	017H
	DB	017H
	DB	017H
	DB	017H
	DB	017H
	DB	086H
	DB	0aH
	DB	0aH
	DB	0aH
	DB	0aH
	DB	0aH
	DB	0aH
	DB	079H
	DB	0c0H
	DB	0eH
	DB	0eH
	DB	0bfH
	DB	04H
	DB	00H
	DB	00H
	DB	00H
	DB	00H
	DB	00H
	DB	00H
	DB	00H
	DB	00H
	DB	00H
	DB	00H
	DB	00H
	DB	00H
	DB	00H
	DB	00H
	DB	00H
	DB	00H
	DB	00H
	DB	00H
	DB	00H
	DB	09H
	DB	03H
	DB	026H
	DB	0cH
	DB	0cH
	DB	0cH
	DB	0cH
	DB	0cH
	DB	02cH
	DB	05H
	DB	04H
	DB	09H
	DB	00H
	DB	00H
	DB	00H
	DB	00H
	DB	00H
	DB	09H
	DB	022H
	DB	04H
	DB	04H
	DB	03H
	DB	021H
	DB	05H
	DB	03H
	DB	03H
	DB	021H
	DB	05H
	DB	03H
	DB	03H
	DB	021H
	DB	05H
	DB	03H
	DB	03H
	DB	021H
	DB	05H
	DB	03H
	DB	03H
	DB	021H
	DB	05H
	DB	03H
	DB	03H
	DB	021H
	DB	05H
	DB	03H
	DB	04H
	DB	04H
	DB	04H
	DB	0bH
	DB	09H
	DB	00H
	DB	00H
	DB	00H
	DB	00H
	DB	00H
	DB	0bH
	DB	03H
	DB	06H
	DB	02cH
	DB	0cH
	DB	0cH
	DB	0cH
	DB	0cH
	DB	0cH
	DB	026H
	DB	04aH
	DB	09H
	DB	00H
	DB	00H
	DB	00H
	DB	00H
	DB	00H
	DB	00H
	DB	00H
	DB	00H
	DB	00H
	DB	00H
	DB	00H
	DB	00H
	DB	00H
	DB	00H
	DB	00H
	DB	00H
	DB	00H
	DB	00H
	DB	00H
	DB	04H
	DB	0bfH
	DB	0eH
	DB	0eH
	DB	04eH
	DB	098H
	DB	01bH
	DB	0daH
	DB	0daH
	DB	0daH
	DB	0daH
	DB	09eH
	DB	01cH
	DB	0b5H
	DB	0b5H
	DB	0b5H
	DB	0b5H
	DB	0b5H
	DB	012H
	DB	0f8H
	DB	046H
	DB	07H
	DB	07H
	DB	07H
	DB	025H
	DB	024H
	DB	010H
	DB	02aH
	DB	034H
	DB	02dH
	DB	024H
	DB	05fH
	DB	043H
	DB	024H
	DB	01dH
	DB	01dH
	DB	024H
	DB	01dH
	DB	064H
	DB	035H
	DB	01eH
	DB	019H
	DB	00H
	DB	019H
	DB	0e0H
	DB	01eH
	DB	027H
	DB	034H
	DB	01dH
	DB	01eH
	DB	053H
	DB	055H
	DB	03eH
	DB	01dH
	DB	04bH
	DB	01eH
	DB	034H
	DB	027H
	DB	01dH
	DB	028H
	DB	042H
	DB	01eH
	DB	01aH
	DB	00H
	DB	00H
	DB	00H
	DB	00H
	DB	00H
	DB	00H
	DB	00H
	DB	00H
	DB	00H
	DB	00H
	DB	00H
	DB	00H
	DB	00H
	DB	00H
	DB	00H
	DB	00H
	DB	00H
	DB	00H
	DB	09H
	DB	09H
	DB	00H
	DB	09H
	DB	00H
	DB	09H
	DB	00H
	DB	00H
	DB	00H
	DB	00H
	DB	00H
	DB	09H
	DB	09H
	DB	09H
	DB	00H
	DB	09H
	DB	03bH
	DB	03bH
	DB	02eH
	DB	07H
	DB	07H
	DB	07H
	DB	046H
	DB	077H
	DB	07bH
	DB	017H
	DB	017H
	DB	017H
	DB	017H
	DB	0d8H
	DB	086H
	DB	0aH
	DB	0aH
	DB	0aH
	DB	0aH
	DB	0aH
	DB	0aH
	DB	0f6H
	DB	08eH
	DB	0eH
	DB	0eH
	DB	05H
	DB	00H
	DB	00H
	DB	00H
	DB	00H
	DB	00H
	DB	00H
	DB	00H
	DB	00H
	DB	00H
	DB	00H
	DB	00H
	DB	00H
	DB	00H
	DB	00H
	DB	00H
	DB	00H
	DB	00H
	DB	00H
	DB	00H
	DB	022H
	DB	06H
	DB	031H
	DB	0cH
	DB	0cH
	DB	0cH
	DB	0cH
	DB	026H
	DB	021H
	DB	022H
	DB	00H
	DB	00H
	DB	00H
	DB	00H
	DB	00H
	DB	09H
	DB	03H
	DB	021H
	DB	08H
	DB	08H
	DB	05H
	DB	05H
	DB	08H
	DB	08H
	DB	05H
	DB	05H
	DB	08H
	DB	08H
	DB	05H
	DB	05H
	DB	022H
	DB	08H
	DB	05H
	DB	05H
	DB	022H
	DB	08H
	DB	05H
	DB	05H
	DB	022H
	DB	08H
	DB	05H
	DB	05H
	DB	04H
	DB	08H
	DB	021H
	DB	05H
	DB	04H
	DB	08H
	DB	021H
	DB	05H
	DB	04H
	DB	08H
	DB	04aH
	DB	021H
	DB	08H
	DB	09H
	DB	09H
	DB	00H
	DB	00H
	DB	00H
	DB	00H
	DB	022H
	DB	021H
	DB	02cH
	DB	0cH
	DB	0cH
	DB	0cH
	DB	0cH
	DB	0cH
	DB	06H
	DB	022H
	DB	00H
	DB	00H
	DB	00H
	DB	00H
	DB	00H
	DB	00H
	DB	00H
	DB	00H
	DB	00H
	DB	00H
	DB	00H
	DB	00H
	DB	00H
	DB	00H
	DB	00H
	DB	00H
	DB	00H
	DB	00H
	DB	00H
	DB	021H
	DB	0eH
	DB	0eH
	DB	052H
	DB	074H
	DB	0daH
	DB	0daH
	DB	0daH
	DB	0daH
	DB	0daH
	DB	09eH
	DB	01cH
	DB	0b5H
	DB	0b5H
	DB	0b5H
	DB	0b5H
	DB	0b5H
	DB	012H
	DB	082H
	DB	023H
	DB	07H
	DB	07H
	DB	07H
	DB	07H
	DB	02fH
	DB	028H
	DB	094H
	DB	041H
	DB	01eH
	DB	030H
	DB	01eH
	DB	01aH
	DB	035H
	DB	035H
	DB	040H
	DB	037H
	DB	016H
	DB	01eH
	DB	024H
	DB	010H
	DB	09H
	DB	032H
	DB	064H
	DB	040H
	DB	033H
	DB	04fH
	DB	028H
	DB	030H
	DB	01eH
	DB	019H
	DB	02aH
	DB	042H
	DB	041H
	DB	030H
	DB	04bH
	DB	04bH
	DB	028H
	DB	03cH
	DB	041H
	DB	035H
	DB	01aH
	DB	00H
	DB	00H
	DB	00H
	DB	00H
	DB	00H
	DB	00H
	DB	00H
	DB	00H
	DB	00H
	DB	00H
	DB	00H
	DB	00H
	DB	00H
	DB	09H
	DB	013H
	DB	00H
	DB	00H
	DB	00H
	DB	00H
	DB	00H
	DB	00H
	DB	00H
	DB	00H
	DB	00H
	DB	00H
	DB	00H
	DB	00H
	DB	00H
	DB	00H
	DB	09H
	DB	09H
	DB	09H
	DB	09H
	DB	00H
	DB	016H
	DB	025H
	DB	07H
	DB	07H
	DB	07H
	DB	046H
	DB	015H
	DB	07bH
	DB	07bH
	DB	07bH
	DB	017H
	DB	017H
	DB	086H
	DB	086H
	DB	0aH
	DB	0aH
	DB	0aH
	DB	0aH
	DB	0aH
	DB	06aH
	DB	085H
	DB	0eH
	DB	0eH
	DB	0bfH
	DB	0bH
	DB	00H
	DB	00H
	DB	00H
	DB	00H
	DB	00H
	DB	00H
	DB	00H
	DB	00H
	DB	00H
	DB	00H
	DB	00H
	DB	00H
	DB	00H
	DB	00H
	DB	00H
	DB	00H
	DB	00H
	DB	00H
	DB	04H
	DB	026H
	DB	0cH
	DB	0cH
	DB	0cH
	DB	0cH
	DB	02cH
	DB	021H
	DB	022H
	DB	00H
	DB	00H
	DB	00H
	DB	00H
	DB	0bH
	DB	022H
	DB	03H
	DB	021H
	DB	021H
	DB	03H
	DB	03H
	DB	021H
	DB	021H
	DB	03H
	DB	03H
	DB	021H
	DB	021H
	DB	03H
	DB	03H
	DB	021H
	DB	021H
	DB	03H
	DB	03H
	DB	021H
	DB	021H
	DB	03H
	DB	03H
	DB	021H
	DB	021H
	DB	03H
	DB	03H
	DB	021H
	DB	021H
	DB	03H
	DB	03H
	DB	021H
	DB	021H
	DB	03H
	DB	03H
	DB	021H
	DB	021H
	DB	03H
	DB	03H
	DB	021H
	DB	021H
	DB	03H
	DB	03H
	DB	021H
	DB	021H
	DB	03H
	DB	04H
	DB	022H
	DB	0bH
	DB	00H
	DB	00H
	DB	00H
	DB	00H
	DB	04H
	DB	05H
	DB	031H
	DB	0cH
	DB	0cH
	DB	0cH
	DB	0cH
	DB	026H
	DB	04H
	DB	00H
	DB	00H
	DB	00H
	DB	00H
	DB	00H
	DB	00H
	DB	00H
	DB	00H
	DB	00H
	DB	00H
	DB	00H
	DB	00H
	DB	00H
	DB	00H
	DB	00H
	DB	00H
	DB	00H
	DB	00H
	DB	0bH
	DB	0bfH
	DB	0eH
	DB	0eH
	DB	081H
	DB	091H
	DB	0daH
	DB	0daH
	DB	09eH
	DB	09eH
	DB	09eH
	DB	01cH
	DB	0b5H
	DB	0b5H
	DB	012H
	DB	012H
	DB	012H
	DB	012H
	DB	0daH
	DB	05cH
	DB	07H
	DB	07H
	DB	07H
	DB	07H
	DB	030H
	DB	061H
	DB	01eH
	DB	04bH
	DB	01eH
	DB	01dH
	DB	01eH
	DB	035H
	DB	039H
	DB	00H
	DB	059H
	DB	0abH
	DB	01eH
	DB	024H
	DB	028H
	DB	040H
	DB	03aH
	DB	00H
	DB	09H
	DB	07eH
	DB	042H
	DB	04bH
	DB	01eH
	DB	01dH
	DB	033H
	DB	07fH
	DB	09dH
	DB	023H
	DB	048H
	DB	04cH
	DB	01aH
	DB	02bH
	DB	041H
	DB	01eH
	DB	01dH
	DB	01eH
	DB	00H
	DB	00H
	DB	00H
	DB	00H
	DB	00H
	DB	00H
	DB	00H
	DB	00H
	DB	00H
	DB	00H
	DB	00H
	DB	00H
	DB	00H
	DB	09H
	DB	013H
	DB	00H
	DB	00H
	DB	00H
	DB	00H
	DB	00H
	DB	00H
	DB	00H
	DB	00H
	DB	00H
	DB	00H
	DB	00H
	DB	00H
	DB	00H
	DB	09H
	DB	09H
	DB	00H
	DB	09H
	DB	032H
	DB	037H
	DB	025H
	DB	07H
	DB	07H
	DB	07H
	DB	046H
	DB	015H
	DB	07bH
	DB	07bH
	DB	07bH
	DB	07bH
	DB	017H
	DB	086H
	DB	0aH
	DB	0aH
	DB	0aH
	DB	0aH
	DB	0aH
	DB	0aH
	DB	070H
	DB	052H
	DB	0eH
	DB	0eH
	DB	06H
	DB	00H
	DB	00H
	DB	00H
	DB	00H
	DB	00H
	DB	00H
	DB	00H
	DB	00H
	DB	00H
	DB	00H
	DB	00H
	DB	00H
	DB	00H
	DB	00H
	DB	00H
	DB	00H
	DB	00H
	DB	00H
	DB	04H
	DB	026H
	DB	0cH
	DB	0cH
	DB	0cH
	DB	0cH
	DB	06H
	DB	04H
	DB	00H
	DB	00H
	DB	00H
	DB	09H
	DB	09H
	DB	08H
	DB	05H
	DB	05H
	DB	08H
	DB	022H
	DB	05H
	DB	05H
	DB	08H
	DB	022H
	DB	05H
	DB	05H
	DB	08H
	DB	08H
	DB	05H
	DB	05H
	DB	08H
	DB	08H
	DB	05H
	DB	05H
	DB	022H
	DB	08H
	DB	05H
	DB	05H
	DB	022H
	DB	08H
	DB	05H
	DB	05H
	DB	022H
	DB	08H
	DB	05H
	DB	05H
	DB	04H
	DB	08H
	DB	021H
	DB	05H
	DB	04H
	DB	08H
	DB	021H
	DB	05H
	DB	04H
	DB	08H
	DB	021H
	DB	05H
	DB	04H
	DB	08H
	DB	04aH
	DB	05H
	DB	04H
	DB	08H
	DB	04aH
	DB	05H
	DB	04H
	DB	0bH
	DB	0bH
	DB	00H
	DB	00H
	DB	00H
	DB	09H
	DB	04H
	DB	06H
	DB	0cH
	DB	0cH
	DB	0cH
	DB	0cH
	DB	026H
	DB	04H
	DB	00H
	DB	00H
	DB	00H
	DB	00H
	DB	00H
	DB	00H
	DB	00H
	DB	00H
	DB	00H
	DB	00H
	DB	00H
	DB	00H
	DB	00H
	DB	00H
	DB	00H
	DB	00H
	DB	00H
	DB	00H
	DB	06H
	DB	0eH
	DB	0eH
	DB	0f5H
	DB	0a5H
	DB	09eH
	DB	09eH
	DB	09eH
	DB	09eH
	DB	09eH
	DB	01cH
	DB	0b5H
	DB	0b5H
	DB	012H
	DB	012H
	DB	012H
	DB	012H
	DB	01cH
	DB	0beH
	DB	07H
	DB	07H
	DB	07H
	DB	07H
	DB	01aH
	DB	019H
	DB	01dH
	DB	024H
	DB	043H
	DB	030H
	DB	03eH
	DB	00H
	DB	03bH
	DB	034H
	DB	01eH
	DB	028H
	DB	030H
	DB	035H
	DB	03aH
	DB	03aH
	DB	032H
	DB	09H
	DB	07fH
	DB	049H
	DB	01dH
	DB	064H
	DB	02aH
	DB	034H
	DB	096H
	DB	0f3H
	DB	015H
	DB	046H
	DB	0b7H
	DB	02fH
	DB	060H
	DB	08bH
	DB	036H
	DB	04bH
	DB	04bH
	DB	00H
	DB	00H
	DB	00H
	DB	00H
	DB	00H
	DB	00H
	DB	00H
	DB	00H
	DB	00H
	DB	00H
	DB	00H
	DB	00H
	DB	00H
	DB	00H
	DB	09H
	DB	00H
	DB	00H
	DB	00H
	DB	00H
	DB	00H
	DB	00H
	DB	00H
	DB	00H
	DB	00H
	DB	00H
	DB	00H
	DB	00H
	DB	09H
	DB	09H
	DB	09H
	DB	00H
	DB	00H
	DB	019H
	DB	07H
	DB	07H
	DB	07H
	DB	07H
	DB	023H
	DB	015H
	DB	07bH
	DB	07bH
	DB	07bH
	DB	07bH
	DB	017H
	DB	086H
	DB	0aH
	DB	0aH
	DB	0aH
	DB	0aH
	DB	0aH
	DB	0aH
	DB	0f6H
	DB	0eH
	DB	0eH
	DB	0eH
	DB	03H
	DB	00H
	DB	00H
	DB	00H
	DB	00H
	DB	00H
	DB	00H
	DB	00H
	DB	00H
	DB	00H
	DB	00H
	DB	00H
	DB	00H
	DB	00H
	DB	00H
	DB	00H
	DB	00H
	DB	00H
	DB	04H
	DB	026H
	DB	0cH
	DB	0cH
	DB	0cH
	DB	031H
	DB	04aH
	DB	022H
	DB	00H
	DB	00H
	DB	00H
	DB	0bH
	DB	04H
	DB	03H
	DB	021H
	DB	021H
	DB	03H
	DB	03H
	DB	021H
	DB	021H
	DB	03H
	DB	03H
	DB	021H
	DB	021H
	DB	03H
	DB	03H
	DB	021H
	DB	021H
	DB	03H
	DB	03H
	DB	021H
	DB	021H
	DB	03H
	DB	03H
	DB	021H
	DB	021H
	DB	03H
	DB	03H
	DB	021H
	DB	021H
	DB	03H
	DB	03H
	DB	021H
	DB	021H
	DB	03H
	DB	03H
	DB	021H
	DB	021H
	DB	03H
	DB	03H
	DB	021H
	DB	021H
	DB	03H
	DB	03H
	DB	021H
	DB	021H
	DB	03H
	DB	03H
	DB	021H
	DB	021H
	DB	03H
	DB	03H
	DB	04aH
	DB	021H
	DB	03H
	DB	03H
	DB	04aH
	DB	021H
	DB	03H
	DB	03H
	DB	04H
	DB	0bH
	DB	00H
	DB	00H
	DB	00H
	DB	08H
	DB	04aH
	DB	02cH
	DB	0cH
	DB	0cH
	DB	0cH
	DB	026H
	DB	03H
	DB	00H
	DB	00H
	DB	00H
	DB	00H
	DB	00H
	DB	00H
	DB	00H
	DB	00H
	DB	00H
	DB	00H
	DB	00H
	DB	00H
	DB	00H
	DB	00H
	DB	00H
	DB	00H
	DB	00H
	DB	03H
	DB	0eH
	DB	0eH
	DB	0eH
	DB	074H
	DB	087H
	DB	09eH
	DB	09eH
	DB	09eH
	DB	01cH
	DB	01cH
	DB	0b5H
	DB	0b5H
	DB	012H
	DB	012H
	DB	012H
	DB	012H
	DB	01cH
	DB	014H
	DB	07H
	DB	07H
	DB	07H
	DB	07H
	DB	01dH
	DB	032H
	DB	05bH
	DB	043H
	DB	050H
	DB	037H
	DB	010H
	DB	028H
	DB	01eH
	DB	01eH
	DB	04dH
	DB	02dH
	DB	034H
	DB	019H
	DB	016H
	DB	056H
	DB	033H
	DB	016H
	DB	013H
	DB	013H
	DB	019H
	DB	056H
	DB	028H
	DB	036H
	DB	023H
	DB	0f2H
	DB	0f1H
	DB	0eaH
	DB	04cH
	DB	02bH
	DB	0aeH
	DB	0aeH
	DB	041H
	DB	04bH
	DB	00H
	DB	00H
	DB	00H
	DB	00H
	DB	00H
	DB	00H
	DB	00H
	DB	00H
	DB	00H
	DB	00H
	DB	00H
	DB	00H
	DB	00H
	DB	00H
	DB	00H
	DB	00H
	DB	00H
	DB	00H
	DB	00H
	DB	00H
	DB	00H
	DB	00H
	DB	00H
	DB	00H
	DB	00H
	DB	00H
	DB	00H
	DB	09H
	DB	09H
	DB	09H
	DB	09H
	DB	0dH
	DB	025H
	DB	07H
	DB	07H
	DB	07H
	DB	023H
	DB	015H
	DB	07bH
	DB	07bH
	DB	07bH
	DB	07bH
	DB	017H
	DB	0d8H
	DB	0aH
	DB	0aH
	DB	0aH
	DB	0aH
	DB	0aH
	DB	06aH
	DB	085H
	DB	0eH
	DB	0eH
	DB	0bfH
	DB	0bH
	DB	00H
	DB	00H
	DB	00H
	DB	00H
	DB	00H
	DB	00H
	DB	00H
	DB	00H
	DB	00H
	DB	00H
	DB	00H
	DB	00H
	DB	00H
	DB	00H
	DB	00H
	DB	00H
	DB	03H
	DB	026H
	DB	0cH
	DB	0cH
	DB	0cH
	DB	026H
	DB	03H
	DB	09H
	DB	00H
	DB	00H
	DB	00H
	DB	0bH
	DB	05H
	DB	05H
	DB	08H
	DB	04H
	DB	05H
	DB	05H
	DB	08H
	DB	022H
	DB	05H
	DB	05H
	DB	08H
	DB	022H
	DB	05H
	DB	05H
	DB	08H
	DB	022H
	DB	05H
	DB	05H
	DB	08H
	DB	08H
	DB	05H
	DB	05H
	DB	022H
	DB	08H
	DB	05H
	DB	05H
	DB	022H
	DB	08H
	DB	05H
	DB	05H
	DB	022H
	DB	08H
	DB	05H
	DB	05H
	DB	04H
	DB	08H
	DB	05H
	DB	05H
	DB	04H
	DB	08H
	DB	021H
	DB	05H
	DB	04H
	DB	08H
	DB	021H
	DB	05H
	DB	04H
	DB	08H
	DB	021H
	DB	05H
	DB	04H
	DB	08H
	DB	04aH
	DB	05H
	DB	04H
	DB	08H
	DB	03H
	DB	05H
	DB	03H
	DB	08H
	DB	03H
	DB	05H
	DB	04H
	DB	0bH
	DB	09H
	DB	00H
	DB	00H
	DB	09H
	DB	03H
	DB	026H
	DB	0cH
	DB	0cH
	DB	0cH
	DB	02cH
	DB	03H
	DB	00H
	DB	00H
	DB	00H
	DB	00H
	DB	00H
	DB	00H
	DB	00H
	DB	00H
	DB	00H
	DB	00H
	DB	00H
	DB	00H
	DB	00H
	DB	00H
	DB	00H
	DB	00H
	DB	0bH
	DB	02cH
	DB	0eH
	DB	0eH
	DB	0a1H
	DB	091H
	DB	09eH
	DB	01cH
	DB	01cH
	DB	01cH
	DB	01cH
	DB	0b5H
	DB	0b5H
	DB	012H
	DB	012H
	DB	012H
	DB	012H
	DB	0b5H
	DB	067H
	DB	07H
	DB	07H
	DB	07H
	DB	07H
	DB	028H
	DB	028H
	DB	07dH
	DB	0dH
	DB	016H
	DB	040H
	DB	04fH
	DB	056H
	DB	0abH
	DB	024H
	DB	035H
	DB	040H
	DB	040H
	DB	01dH
	DB	028H
	DB	028H
	DB	03aH
	DB	00H
	DB	00H
	DB	034H
	DB	093H
	DB	061H
	DB	035H
	DB	035H
	DB	047H
	DB	0e3H
	DB	055H
	DB	01dH
	DB	01eH
	DB	053H
	DB	055H
	DB	035H
	DB	01eH
	DB	00H
	DB	00H
	DB	00H
	DB	00H
	DB	00H
	DB	00H
	DB	00H
	DB	00H
	DB	00H
	DB	00H
	DB	00H
	DB	00H
	DB	00H
	DB	00H
	DB	00H
	DB	00H
	DB	00H
	DB	00H
	DB	00H
	DB	00H
	DB	00H
	DB	00H
	DB	00H
	DB	00H
	DB	00H
	DB	00H
	DB	00H
	DB	09H
	DB	09H
	DB	09H
	DB	016H
	DB	025H
	DB	07H
	DB	07H
	DB	07H
	DB	023H
	DB	015H
	DB	07bH
	DB	07bH
	DB	07bH
	DB	07bH
	DB	017H
	DB	0d8H
	DB	0aH
	DB	0aH
	DB	0aH
	DB	0aH
	DB	0aH
	DB	070H
	DB	0c0H
	DB	0eH
	DB	0eH
	DB	06H
	DB	00H
	DB	00H
	DB	00H
	DB	00H
	DB	00H
	DB	00H
	DB	00H
	DB	00H
	DB	00H
	DB	00H
	DB	00H
	DB	00H
	DB	00H
	DB	00H
	DB	00H
	DB	00H
	DB	08H
	DB	026H
	DB	0cH
	DB	0cH
	DB	0cH
	DB	02cH
	DB	03H
	DB	00H
	DB	00H
	DB	00H
	DB	0bH
	DB	04H
	DB	021H
	DB	021H
	DB	03H
	DB	03H
	DB	021H
	DB	021H
	DB	03H
	DB	03H
	DB	021H
	DB	021H
	DB	03H
	DB	03H
	DB	021H
	DB	021H
	DB	03H
	DB	03H
	DB	021H
	DB	021H
	DB	03H
	DB	03H
	DB	021H
	DB	021H
	DB	03H
	DB	03H
	DB	021H
	DB	021H
	DB	03H
	DB	03H
	DB	021H
	DB	021H
	DB	03H
	DB	03H
	DB	021H
	DB	021H
	DB	03H
	DB	03H
	DB	021H
	DB	021H
	DB	03H
	DB	03H
	DB	021H
	DB	021H
	DB	03H
	DB	03H
	DB	04aH
	DB	021H
	DB	03H
	DB	03H
	DB	04aH
	DB	021H
	DB	03H
	DB	03H
	DB	04aH
	DB	021H
	DB	03H
	DB	03H
	DB	04aH
	DB	021H
	DB	03H
	DB	03H
	DB	04aH
	DB	021H
	DB	03H
	DB	03H
	DB	04aH
	DB	021H
	DB	04aH
	DB	04H
	DB	0bH
	DB	00H
	DB	00H
	DB	00H
	DB	04H
	DB	026H
	DB	0cH
	DB	0cH
	DB	0cH
	DB	026H
	DB	08H
	DB	00H
	DB	00H
	DB	00H
	DB	00H
	DB	00H
	DB	00H
	DB	00H
	DB	00H
	DB	00H
	DB	00H
	DB	00H
	DB	00H
	DB	00H
	DB	00H
	DB	00H
	DB	00H
	DB	06H
	DB	0eH
	DB	0eH
	DB	0f5H
	DB	09aH
	DB	01cH
	DB	01cH
	DB	01cH
	DB	01cH
	DB	01cH
	DB	0b5H
	DB	012H
	DB	012H
	DB	012H
	DB	012H
	DB	012H
	DB	0b5H
	DB	067H
	DB	07H
	DB	07H
	DB	07H
	DB	07H
	DB	065H
	DB	030H
	DB	010H
	DB	013H
	DB	019H
	DB	028H
	DB	028H
	DB	0abH
	DB	027H
	DB	01dH
	DB	01dH
	DB	037H
	DB	019H
	DB	01dH
	DB	04dH
	DB	024H
	DB	010H
	DB	02aH
	DB	092H
	DB	0e0H
	DB	04dH
	DB	010H
	DB	00H
	DB	00H
	DB	0dH
	DB	042H
	DB	03cH
	DB	042H
	DB	040H
	DB	03aH
	DB	016H
	DB	01dH
	DB	00H
	DB	00H
	DB	00H
	DB	00H
	DB	00H
	DB	00H
	DB	00H
	DB	00H
	DB	00H
	DB	00H
	DB	00H
	DB	00H
	DB	00H
	DB	00H
	DB	00H
	DB	00H
	DB	00H
	DB	00H
	DB	00H
	DB	00H
	DB	00H
	DB	00H
	DB	00H
	DB	00H
	DB	00H
	DB	00H
	DB	00H
	DB	00H
	DB	00H
	DB	03bH
	DB	025H
	DB	07H
	DB	07H
	DB	07H
	DB	023H
	DB	015H
	DB	0c5H
	DB	0c5H
	DB	07bH
	DB	07bH
	DB	017H
	DB	086H
	DB	0aH
	DB	0aH
	DB	0aH
	DB	0aH
	DB	0aH
	DB	079H
	DB	08eH
	DB	0eH
	DB	0eH
	DB	03H
	DB	00H
	DB	00H
	DB	00H
	DB	00H
	DB	00H
	DB	00H
	DB	00H
	DB	00H
	DB	00H
	DB	00H
	DB	00H
	DB	00H
	DB	00H
	DB	00H
	DB	00H
	DB	09H
	DB	06H
	DB	0cH
	DB	0cH
	DB	0cH
	DB	02cH
	DB	03H
	DB	00H
	DB	00H
	DB	00H
	DB	022H
	DB	03H
	DB	08H
	DB	04H
	DB	06H
	DB	05H
	DB	08H
	DB	04H
	DB	06H
	DB	05H
	DB	08H
	DB	022H
	DB	06H
	DB	05H
	DB	08H
	DB	022H
	DB	06H
	DB	05H
	DB	08H
	DB	022H
	DB	06H
	DB	05H
	DB	08H
	DB	08H
	DB	06H
	DB	06H
	DB	022H
	DB	08H
	DB	05H
	DB	06H
	DB	022H
	DB	08H
	DB	05H
	DB	06H
	DB	022H
	DB	08H
	DB	05H
	DB	06H
	DB	04H
	DB	08H
	DB	05H
	DB	06H
	DB	04H
	DB	08H
	DB	05H
	DB	06H
	DB	04H
	DB	08H
	DB	021H
	DB	06H
	DB	04H
	DB	08H
	DB	021H
	DB	06H
	DB	04H
	DB	08H
	DB	021H
	DB	06H
	DB	04H
	DB	08H
	DB	04aH
	DB	06H
	DB	03H
	DB	08H
	DB	03H
	DB	06H
	DB	03H
	DB	08H
	DB	03H
	DB	06H
	DB	03H
	DB	08H
	DB	03H
	DB	021H
	DB	0bH
	DB	00H
	DB	00H
	DB	00H
	DB	03H
	DB	02cH
	DB	0cH
	DB	0cH
	DB	0cH
	DB	05H
	DB	09H
	DB	00H
	DB	00H
	DB	00H
	DB	00H
	DB	00H
	DB	00H
	DB	00H
	DB	00H
	DB	00H
	DB	00H
	DB	00H
	DB	00H
	DB	00H
	DB	00H
	DB	00H
	DB	04H
	DB	0eH
	DB	0eH
	DB	054H
	DB	0a5H
	DB	01cH
	DB	01cH
	DB	01cH
	DB	01cH
	DB	01cH
	DB	0b5H
	DB	012H
	DB	012H
	DB	012H
	DB	012H
	DB	012H
	DB	0b5H
	DB	014H
	DB	07H
	DB	07H
	DB	07H
	DB	07H
	DB	053H
	DB	01aH
	DB	0dH
	DB	027H
	DB	02dH
	DB	060H
	DB	03cH
	DB	028H
	DB	01aH
	DB	045H
	DB	045H
	DB	03aH
	DB	039H
	DB	01aH
	DB	02bH
	DB	024H
	DB	019H
	DB	013H
	DB	019H
	DB	01aH
	DB	019H
	DB	00H
	DB	00H
	DB	037H
	DB	02dH
	DB	041H
	DB	02bH
	DB	045H
	DB	016H
	DB	01dH
	DB	01dH
	DB	00H
	DB	00H
	DB	00H
	DB	00H
	DB	00H
	DB	00H
	DB	00H
	DB	00H
	DB	09H
	DB	00H
	DB	00H
	DB	00H
	DB	00H
	DB	00H
	DB	032H
	DB	032H
	DB	00H
	DB	00H
	DB	00H
	DB	00H
	DB	00H
	DB	00H
	DB	00H
	DB	00H
	DB	00H
	DB	00H
	DB	09H
	DB	00H
	DB	00H
	DB	02eH
	DB	07H
	DB	07H
	DB	07H
	DB	046H
	DB	015H
	DB	0c5H
	DB	0c5H
	DB	07bH
	DB	07bH
	DB	017H
	DB	086H
	DB	0aH
	DB	0aH
	DB	0aH
	DB	0aH
	DB	0aH
	DB	0c2H
	DB	0eH
	DB	0eH
	DB	0bfH
	DB	08H
	DB	00H
	DB	00H
	DB	00H
	DB	00H
	DB	00H
	DB	00H
	DB	00H
	DB	00H
	DB	00H
	DB	00H
	DB	00H
	DB	00H
	DB	00H
	DB	00H
	DB	00H
	DB	03H
	DB	031H
	DB	0cH
	DB	0cH
	DB	0cH
	DB	04aH
	DB	09H
	DB	00H
	DB	00H
	DB	0bH
	DB	03H
	DB	03H
	DB	03H
	DB	021H
	DB	04aH
	DB	03H
	DB	03H
	DB	021H
	DB	04aH
	DB	03H
	DB	03H
	DB	021H
	DB	04aH
	DB	03H
	DB	03H
	DB	021H
	DB	04aH
	DB	03H
	DB	03H
	DB	021H
	DB	021H
	DB	03H
	DB	03H
	DB	021H
	DB	021H
	DB	03H
	DB	03H
	DB	021H
	DB	021H
	DB	03H
	DB	03H
	DB	021H
	DB	021H
	DB	03H
	DB	03H
	DB	04aH
	DB	021H
	DB	03H
	DB	03H
	DB	04aH
	DB	021H
	DB	03H
	DB	03H
	DB	04aH
	DB	021H
	DB	03H
	DB	03H
	DB	04aH
	DB	021H
	DB	03H
	DB	03H
	DB	04aH
	DB	021H
	DB	03H
	DB	03H
	DB	04aH
	DB	021H
	DB	03H
	DB	03H
	DB	04aH
	DB	021H
	DB	03H
	DB	03H
	DB	04aH
	DB	021H
	DB	03H
	DB	03H
	DB	04aH
	DB	021H
	DB	03H
	DB	03H
	DB	04aH
	DB	021H
	DB	03H
	DB	03H
	DB	04aH
	DB	03H
	DB	08H
	DB	00H
	DB	00H
	DB	09H
	DB	04aH
	DB	0cH
	DB	0cH
	DB	0cH
	DB	031H
	DB	03H
	DB	00H
	DB	00H
	DB	00H
	DB	00H
	DB	00H
	DB	00H
	DB	00H
	DB	00H
	DB	00H
	DB	00H
	DB	00H
	DB	00H
	DB	00H
	DB	00H
	DB	00H
	DB	08H
	DB	0bfH
	DB	0eH
	DB	08eH
	DB	0c3H
	DB	01cH
	DB	01cH
	DB	01cH
	DB	01cH
	DB	01cH
	DB	0b5H
	DB	012H
	DB	012H
	DB	012H
	DB	012H
	DB	012H
	DB	0b5H
	DB	014H
	DB	07H
	DB	07H
	DB	07H
	DB	025H
	DB	01eH
	DB	040H
	DB	03aH
	DB	01dH
	DB	02dH
	DB	094H
	DB	044H
	DB	01aH
	DB	028H
	DB	024H
	DB	01aH
	DB	040H
	DB	01aH
	DB	05fH
	DB	02dH
	DB	010H
	DB	00H
	DB	00H
	DB	09H
	DB	032H
	DB	00H
	DB	016H
	DB	024H
	DB	041H
	DB	02dH
	DB	053H
	DB	05fH
	DB	02bH
	DB	04dH
	DB	01dH
	DB	00H
	DB	00H
	DB	00H
	DB	00H
	DB	00H
	DB	00H
	DB	00H
	DB	09H
	DB	09H
	DB	00H
	DB	00H
	DB	00H
	DB	00H
	DB	00H
	DB	00H
	DB	032H
	DB	09H
	DB	00H
	DB	00H
	DB	00H
	DB	00H
	DB	00H
	DB	00H
	DB	00H
	DB	00H
	DB	00H
	DB	09H
	DB	09H
	DB	03fH
	DB	07H
	DB	07H
	DB	07H
	DB	046H
	DB	015H
	DB	0c5H
	DB	0c5H
	DB	0c5H
	DB	07bH
	DB	017H
	DB	086H
	DB	0aH
	DB	0aH
	DB	0aH
	DB	0aH
	DB	0aH
	DB	0f6H
	DB	0eH
	DB	0eH
	DB	0bfH
	DB	0bH
	DB	00H
	DB	00H
	DB	00H
	DB	00H
	DB	00H
	DB	00H
	DB	00H
	DB	00H
	DB	00H
	DB	00H
	DB	00H
	DB	00H
	DB	00H
	DB	00H
	DB	0bH
	DB	026H
	DB	0cH
	DB	0cH
	DB	0cH
	DB	06H
	DB	022H
	DB	00H
	DB	00H
	DB	09H
	DB	04H
	DB	06H
	DB	021H
	DB	08H
	DB	04H
	DB	06H
	DB	05H
	DB	08H
	DB	04H
	DB	06H
	DB	05H
	DB	08H
	DB	04H
	DB	06H
	DB	05H
	DB	08H
	DB	022H
	DB	06H
	DB	05H
	DB	08H
	DB	022H
	DB	06H
	DB	05H
	DB	08H
	DB	022H
	DB	06H
	DB	06H
	DB	08H
	DB	08H
	DB	05H
	DB	06H
	DB	022H
	DB	08H
	DB	05H
	DB	06H
	DB	022H
	DB	08H
	DB	05H
	DB	06H
	DB	022H
	DB	08H
	DB	05H
	DB	06H
	DB	04H
	DB	08H
	DB	05H
	DB	06H
	DB	04H
	DB	08H
	DB	021H
	DB	06H
	DB	04H
	DB	08H
	DB	021H
	DB	06H
	DB	04H
	DB	08H
	DB	021H
	DB	06H
	DB	04H
	DB	08H
	DB	04aH
	DB	06H
	DB	04H
	DB	08H
	DB	04aH
	DB	06H
	DB	03H
	DB	08H
	DB	03H
	DB	06H
	DB	03H
	DB	08H
	DB	03H
	DB	06H
	DB	03H
	DB	08H
	DB	03H
	DB	06H
	DB	03H
	DB	08H
	DB	0bH
	DB	00H
	DB	00H
	DB	022H
	DB	06H
	DB	0cH
	DB	0cH
	DB	0cH
	DB	026H
	DB	0bH
	DB	00H
	DB	00H
	DB	00H
	DB	00H
	DB	00H
	DB	00H
	DB	00H
	DB	00H
	DB	00H
	DB	00H
	DB	00H
	DB	00H
	DB	00H
	DB	00H
	DB	0bH
	DB	031H
	DB	0eH
	DB	0eH
	DB	0b0H
	DB	01cH
	DB	01cH
	DB	01cH
	DB	01cH
	DB	0b5H
	DB	0b5H
	DB	012H
	DB	012H
	DB	012H
	DB	012H
	DB	012H
	DB	0b5H
	DB	0beH
	DB	07H
	DB	07H
	DB	07H
	DB	02eH
	DB	035H
	DB	032H
	DB	013H
	DB	057H
	DB	066H
	DB	076H
	DB	050H
	DB	050H
	DB	050H
	DB	030H
	DB	041H
	DB	02dH
	DB	030H
	DB	030H
	DB	04fH
	DB	00H
	DB	03bH
	DB	027H
	DB	0dH
	DB	03aH
	DB	061H
	DB	041H
	DB	049H
	DB	0aaH
	DB	034H
	DB	06cH
	DB	0eeH
	DB	047H
	DB	0b6H
	DB	00H
	DB	00H
	DB	00H
	DB	00H
	DB	00H
	DB	00H
	DB	00H
	DB	00H
	DB	00H
	DB	00H
	DB	00H
	DB	09H
	DB	059H
	DB	0dH
	DB	00H
	DB	09H
	DB	09H
	DB	09H
	DB	00H
	DB	00H
	DB	00H
	DB	00H
	DB	00H
	DB	00H
	DB	00H
	DB	00H
	DB	09H
	DB	048H
	DB	07H
	DB	07H
	DB	07H
	DB	046H
	DB	015H
	DB	0c5H
	DB	0c5H
	DB	0c5H
	DB	07bH
	DB	017H
	DB	086H
	DB	0aH
	DB	0aH
	DB	0aH
	DB	0aH
	DB	0aH
	DB	069H
	DB	0eH
	DB	0eH
	DB	02cH
	DB	09H
	DB	00H
	DB	00H
	DB	00H
	DB	00H
	DB	00H
	DB	00H
	DB	00H
	DB	00H
	DB	00H
	DB	00H
	DB	00H
	DB	00H
	DB	00H
	DB	00H
	DB	04aH
	DB	0cH
	DB	0cH
	DB	0cH
	DB	02cH
	DB	04H
	DB	00H
	DB	00H
	DB	09H
	DB	04H
	DB	04aH
	DB	04aH
	DB	03H
	DB	03H
	DB	04aH
	DB	04aH
	DB	03H
	DB	03H
	DB	04aH
	DB	04aH
	DB	03H
	DB	03H
	DB	04aH
	DB	04aH
	DB	03H
	DB	03H
	DB	04aH
	DB	04aH
	DB	03H
	DB	03H
	DB	04aH
	DB	04aH
	DB	03H
	DB	03H
	DB	04aH
	DB	04aH
	DB	03H
	DB	03H
	DB	04aH
	DB	04aH
	DB	03H
	DB	03H
	DB	04aH
	DB	04aH
	DB	03H
	DB	03H
	DB	04aH
	DB	04aH
	DB	03H
	DB	03H
	DB	04aH
	DB	04aH
	DB	03H
	DB	03H
	DB	04aH
	DB	04aH
	DB	03H
	DB	03H
	DB	04aH
	DB	04aH
	DB	03H
	DB	03H
	DB	04aH
	DB	04aH
	DB	03H
	DB	03H
	DB	04aH
	DB	04aH
	DB	03H
	DB	03H
	DB	04aH
	DB	04aH
	DB	03H
	DB	03H
	DB	04aH
	DB	04aH
	DB	03H
	DB	03H
	DB	04aH
	DB	04aH
	DB	03H
	DB	03H
	DB	03H
	DB	04aH
	DB	03H
	DB	03H
	DB	03H
	DB	04aH
	DB	03H
	DB	03H
	DB	03H
	DB	04aH
	DB	03H
	DB	04H
	DB	09H
	DB	00H
	DB	00H
	DB	04H
	DB	02cH
	DB	0cH
	DB	0cH
	DB	0cH
	DB	04aH
	DB	00H
	DB	00H
	DB	00H
	DB	00H
	DB	00H
	DB	00H
	DB	00H
	DB	00H
	DB	00H
	DB	00H
	DB	00H
	DB	00H
	DB	00H
	DB	00H
	DB	00H
	DB	026H
	DB	0eH
	DB	0eH
	DB	074H
	DB	01cH
	DB	01cH
	DB	01cH
	DB	01cH
	DB	0b5H
	DB	0b5H
	DB	012H
	DB	012H
	DB	012H
	DB	012H
	DB	0a8H
	DB	01cH
	DB	023H
	DB	07H
	DB	07H
	DB	07H
	DB	03fH
	DB	00H
	DB	03bH
	DB	036H
	DB	06cH
	DB	04dH
	DB	024H
	DB	05fH
	DB	05fH
	DB	043H
	DB	055H
	DB	04dH
	DB	030H
	DB	024H
	DB	01dH
	DB	056H
	DB	07eH
	DB	076H
	DB	02bH
	DB	03aH
	DB	03aH
	DB	019H
	DB	05aH
	DB	05aH
	DB	034H
	DB	06cH
	DB	084H
	DB	04cH
	DB	043H
	DB	00H
	DB	00H
	DB	00H
	DB	00H
	DB	00H
	DB	09H
	DB	00H
	DB	00H
	DB	00H
	DB	09H
	DB	00H
	DB	00H
	DB	07dH
	DB	01dH
	DB	00H
	DB	00H
	DB	09H
	DB	09H
	DB	00H
	DB	00H
	DB	00H
	DB	00H
	DB	00H
	DB	09H
	DB	00H
	DB	00H
	DB	02bH
	DB	07H
	DB	07H
	DB	07H
	DB	07H
	DB	077H
	DB	0c5H
	DB	0c5H
	DB	0c5H
	DB	07bH
	DB	017H
	DB	086H
	DB	0aH
	DB	0aH
	DB	0aH
	DB	0aH
	DB	0aH
	DB	069H
	DB	0eH
	DB	0eH
	DB	026H
	DB	00H
	DB	00H
	DB	00H
	DB	00H
	DB	00H
	DB	00H
	DB	00H
	DB	00H
	DB	00H
	DB	00H
	DB	00H
	DB	00H
	DB	00H
	DB	00H
	DB	09H
	DB	026H
	DB	0cH
	DB	0cH
	DB	0cH
	DB	021H
	DB	09H
	DB	00H
	DB	09H
	DB	04H
	DB	022H
	DB	04H
	DB	06H
	DB	021H
	DB	022H
	DB	04H
	DB	06H
	DB	021H
	DB	022H
	DB	04H
	DB	06H
	DB	05H
	DB	022H
	DB	04H
	DB	06H
	DB	05H
	DB	022H
	DB	04H
	DB	06H
	DB	05H
	DB	022H
	DB	022H
	DB	06H
	DB	05H
	DB	022H
	DB	022H
	DB	06H
	DB	05H
	DB	022H
	DB	022H
	DB	06H
	DB	06H
	DB	022H
	DB	022H
	DB	05H
	DB	06H
	DB	022H
	DB	022H
	DB	05H
	DB	06H
	DB	022H
	DB	022H
	DB	05H
	DB	06H
	DB	04H
	DB	022H
	DB	05H
	DB	06H
	DB	04H
	DB	022H
	DB	05H
	DB	06H
	DB	04H
	DB	022H
	DB	021H
	DB	06H
	DB	04H
	DB	022H
	DB	021H
	DB	06H
	DB	04H
	DB	022H
	DB	021H
	DB	06H
	DB	04H
	DB	022H
	DB	04aH
	DB	06H
	DB	03H
	DB	022H
	DB	04aH
	DB	06H
	DB	03H
	DB	022H
	DB	03H
	DB	06H
	DB	03H
	DB	022H
	DB	03H
	DB	06H
	DB	03H
	DB	022H
	DB	03H
	DB	06H
	DB	03H
	DB	022H
	DB	03H
	DB	04H
	DB	00H
	DB	00H
	DB	09H
	DB	021H
	DB	0cH
	DB	0cH
	DB	0cH
	DB	06H
	DB	09H
	DB	00H
	DB	00H
	DB	00H
	DB	00H
	DB	00H
	DB	00H
	DB	00H
	DB	00H
	DB	00H
	DB	00H
	DB	00H
	DB	00H
	DB	00H
	DB	00H
	DB	026H
	DB	0eH
	DB	0eH
	DB	078H
	DB	01cH
	DB	01cH
	DB	0b5H
	DB	0b5H
	DB	0b5H
	DB	012H
	DB	012H
	DB	012H
	DB	0a8H
	DB	0a8H
	DB	0a8H
	DB	01bH
	DB	046H
	DB	07H
	DB	07H
	DB	07H
	DB	044H
	DB	016H
	DB	02dH
	DB	024H
	DB	01aH
	DB	01eH
	DB	041H
	DB	03dH
	DB	0b7H
	DB	029H
	DB	0b6H
	DB	02bH
	DB	044H
	DB	030H
	DB	01eH
	DB	02dH
	DB	095H
	DB	088H
	DB	0dH
	DB	00H
	DB	00H
	DB	09H
	DB	033H
	DB	024H
	DB	044H
	DB	024H
	DB	035H
	DB	02fH
	DB	00H
	DB	00H
	DB	00H
	DB	00H
	DB	00H
	DB	00H
	DB	00H
	DB	09H
	DB	00H
	DB	00H
	DB	00H
	DB	00H
	DB	03bH
	DB	03aH
	DB	00H
	DB	00H
	DB	00H
	DB	00H
	DB	00H
	DB	00H
	DB	00H
	DB	09H
	DB	00H
	DB	09H
	DB	09H
	DB	01aH
	DB	07H
	DB	07H
	DB	07H
	DB	07H
	DB	014H
	DB	015H
	DB	015H
	DB	0c5H
	DB	0c5H
	DB	017H
	DB	0d8H
	DB	0aH
	DB	0aH
	DB	0aH
	DB	0aH
	DB	0aH
	DB	0d3H
	DB	0eH
	DB	0eH
	DB	026H
	DB	00H
	DB	00H
	DB	00H
	DB	00H
	DB	00H
	DB	00H
	DB	00H
	DB	00H
	DB	00H
	DB	00H
	DB	00H
	DB	00H
	DB	00H
	DB	00H
	DB	04H
	DB	031H
	DB	0cH
	DB	0cH
	DB	02cH
	DB	04H
	DB	00H
	DB	00H
	DB	0bH
	DB	03H
	DB	03H
	DB	04aH
	DB	03H
	DB	03H
	DB	03H
	DB	04aH
	DB	03H
	DB	03H
	DB	03H
	DB	04aH
	DB	04aH
	DB	03H
	DB	03H
	DB	04aH
	DB	04aH
	DB	03H
	DB	03H
	DB	04aH
	DB	04aH
	DB	03H
	DB	03H
	DB	04aH
	DB	04aH
	DB	03H
	DB	03H
	DB	04aH
	DB	04aH
	DB	03H
	DB	03H
	DB	04aH
	DB	04aH
	DB	03H
	DB	03H
	DB	04aH
	DB	04aH
	DB	03H
	DB	03H
	DB	04aH
	DB	04aH
	DB	03H
	DB	03H
	DB	04aH
	DB	04aH
	DB	03H
	DB	03H
	DB	04aH
	DB	04aH
	DB	03H
	DB	03H
	DB	04aH
	DB	04aH
	DB	03H
	DB	03H
	DB	04aH
	DB	04aH
	DB	03H
	DB	03H
	DB	03H
	DB	04aH
	DB	03H
	DB	03H
	DB	03H
	DB	04aH
	DB	03H
	DB	03H
	DB	03H
	DB	04aH
	DB	03H
	DB	03H
	DB	03H
	DB	04aH
	DB	03H
	DB	03H
	DB	03H
	DB	04aH
	DB	03H
	DB	03H
	DB	03H
	DB	04aH
	DB	03H
	DB	03H
	DB	03H
	DB	04aH
	DB	03H
	DB	03H
	DB	03H
	DB	04aH
	DB	03H
	DB	03H
	DB	03H
	DB	0bH
	DB	00H
	DB	00H
	DB	04H
	DB	02cH
	DB	0cH
	DB	0cH
	DB	02cH
	DB	022H
	DB	00H
	DB	00H
	DB	00H
	DB	00H
	DB	00H
	DB	00H
	DB	00H
	DB	00H
	DB	00H
	DB	00H
	DB	00H
	DB	00H
	DB	00H
	DB	00H
	DB	06H
	DB	0eH
	DB	0eH
	DB	078H
	DB	0b5H
	DB	0b5H
	DB	0b5H
	DB	0b5H
	DB	0b5H
	DB	012H
	DB	012H
	DB	0a8H
	DB	0a8H
	DB	0a8H
	DB	0a8H
	DB	082H
	DB	07H
	DB	07H
	DB	07H
	DB	07H
	DB	02bH
	DB	01eH
	DB	034H
	DB	01dH
	DB	0abH
	DB	02dH
	DB	053H
	DB	0a0H
	DB	029H
	DB	028H
	DB	060H
	DB	060H
	DB	05fH
	DB	04dH
	DB	03cH
	DB	03cH
	DB	060H
	DB	030H
	DB	0dH
	DB	00H
	DB	013H
	DB	034H
	DB	028H
	DB	01dH
	DB	01eH
	DB	061H
	DB	035H
	DB	00H
	DB	00H
	DB	00H
	DB	00H
	DB	00H
	DB	09H
	DB	09H
	DB	00H
	DB	00H
	DB	00H
	DB	09H
	DB	09H
	DB	09H
	DB	00H
	DB	00H
	DB	00H
	DB	00H
	DB	00H
	DB	00H
	DB	00H
	DB	00H
	DB	09H
	DB	09H
	DB	09H
	DB	056H
	DB	07H
	DB	07H
	DB	07H
	DB	07H
	DB	0beH
	DB	015H
	DB	015H
	DB	015H
	DB	0c5H
	DB	07bH
	DB	0d8H
	DB	0aH
	DB	0aH
	DB	0aH
	DB	0aH
	DB	0aH
	DB	069H
	DB	0eH
	DB	0eH
	DB	06H
	DB	00H
	DB	00H
	DB	00H
	DB	00H
	DB	00H
	DB	00H
	DB	00H
	DB	00H
	DB	00H
	DB	00H
	DB	00H
	DB	00H
	DB	00H
	DB	00H
	DB	05H
	DB	0cH
	DB	0cH
	DB	0cH
	DB	06H
	DB	09H
	DB	00H
	DB	00H
	DB	03H
	DB	021H
	DB	022H
	DB	04H
	DB	06H
	DB	021H
	DB	022H
	DB	04H
	DB	06H
	DB	021H
	DB	022H
	DB	04H
	DB	06H
	DB	05H
	DB	022H
	DB	04H
	DB	06H
	DB	05H
	DB	022H
	DB	04H
	DB	06H
	DB	05H
	DB	022H
	DB	04H
	DB	06H
	DB	05H
	DB	022H
	DB	022H
	DB	06H
	DB	05H
	DB	022H
	DB	022H
	DB	06H
	DB	06H
	DB	022H
	DB	022H
	DB	06H
	DB	06H
	DB	022H
	DB	022H
	DB	05H
	DB	06H
	DB	022H
	DB	022H
	DB	05H
	DB	06H
	DB	04H
	DB	022H
	DB	05H
	DB	06H
	DB	04H
	DB	022H
	DB	05H
	DB	06H
	DB	04H
	DB	022H
	DB	05H
	DB	06H
	DB	04H
	DB	022H
	DB	021H
	DB	06H
	DB	04H
	DB	022H
	DB	021H
	DB	06H
	DB	04H
	DB	022H
	DB	021H
	DB	06H
	DB	03H
	DB	022H
	DB	04aH
	DB	06H
	DB	03H
	DB	022H
	DB	03H
	DB	06H
	DB	03H
	DB	022H
	DB	03H
	DB	06H
	DB	03H
	DB	022H
	DB	03H
	DB	06H
	DB	03H
	DB	022H
	DB	03H
	DB	06H
	DB	03H
	DB	022H
	DB	03H
	DB	06H
	DB	04H
	DB	00H
	DB	00H
	DB	09H
	DB	06H
	DB	0cH
	DB	0cH
	DB	0cH
	DB	021H
	DB	00H
	DB	00H
	DB	00H
	DB	00H
	DB	00H
	DB	00H
	DB	00H
	DB	00H
	DB	00H
	DB	00H
	DB	00H
	DB	00H
	DB	00H
	DB	00H
	DB	06H
	DB	0eH
	DB	0eH
	DB	078H
	DB	0b5H
	DB	0b5H
	DB	0b5H
	DB	0b5H
	DB	0b5H
	DB	012H
	DB	012H
	DB	0a8H
	DB	0a8H
	DB	0a8H
	DB	0a8H
	DB	011H
	DB	07H
	DB	07H
	DB	07H
	DB	07H
	DB	01eH
	DB	061H
	DB	01eH
	DB	0abH
	DB	07fH
	DB	024H
	DB	010H
	DB	01aH
	DB	02dH
	DB	02dH
	DB	05fH
	DB	02bH
	DB	053H
	DB	041H
	DB	03cH
	DB	057H
	DB	03fH
	DB	050H
	DB	032H
	DB	013H
	DB	01dH
	DB	07eH
	DB	034H
	DB	01eH
	DB	01eH
	DB	088H
	DB	00H
	DB	00H
	DB	00H
	DB	00H
	DB	00H
	DB	09H
	DB	09H
	DB	00H
	DB	00H
	DB	09H
	DB	00H
	DB	09H
	DB	09H
	DB	09H
	DB	09H
	DB	09H
	DB	09H
	DB	09H
	DB	00H
	DB	00H
	DB	00H
	DB	00H
	DB	00H
	DB	09H
	DB	02eH
	DB	07H
	DB	07H
	DB	07H
	DB	023H
	DB	015H
	DB	015H
	DB	015H
	DB	015H
	DB	07bH
	DB	017H
	DB	0aH
	DB	0aH
	DB	0aH
	DB	0aH
	DB	0aH
	DB	0f6H
	DB	0eH
	DB	0eH
	DB	06H
	DB	00H
	DB	00H
	DB	00H
	DB	00H
	DB	00H
	DB	00H
	DB	00H
	DB	00H
	DB	00H
	DB	00H
	DB	00H
	DB	00H
	DB	00H
	DB	09H
	DB	026H
	DB	0cH
	DB	0cH
	DB	0cH
	DB	03H
	DB	00H
	DB	00H
	DB	0bH
	DB	03H
	DB	03H
	DB	03H
	DB	03H
	DB	03H
	DB	03H
	DB	03H
	DB	03H
	DB	03H
	DB	03H
	DB	03H
	DB	03H
	DB	03H
	DB	03H
	DB	03H
	DB	03H
	DB	03H
	DB	03H
	DB	03H
	DB	03H
	DB	03H
	DB	03H
	DB	03H
	DB	03H
	DB	03H
	DB	03H
	DB	03H
	DB	03H
	DB	03H
	DB	03H
	DB	03H
	DB	03H
	DB	03H
	DB	03H
	DB	03H
	DB	03H
	DB	03H
	DB	03H
	DB	03H
	DB	03H
	DB	03H
	DB	03H
	DB	03H
	DB	03H
	DB	03H
	DB	03H
	DB	03H
	DB	03H
	DB	03H
	DB	03H
	DB	03H
	DB	03H
	DB	03H
	DB	03H
	DB	03H
	DB	03H
	DB	03H
	DB	03H
	DB	03H
	DB	03H
	DB	03H
	DB	03H
	DB	03H
	DB	03H
	DB	03H
	DB	03H
	DB	03H
	DB	03H
	DB	03H
	DB	03H
	DB	03H
	DB	03H
	DB	03H
	DB	03H
	DB	03H
	DB	03H
	DB	03H
	DB	03H
	DB	03H
	DB	03H
	DB	03H
	DB	03H
	DB	03H
	DB	03H
	DB	03H
	DB	03H
	DB	03H
	DB	03H
	DB	03H
	DB	03H
	DB	03H
	DB	03H
	DB	03H
	DB	03H
	DB	03H
	DB	03H
	DB	03H
	DB	0bH
	DB	00H
	DB	00H
	DB	03H
	DB	0cH
	DB	0cH
	DB	0cH
	DB	026H
	DB	09H
	DB	00H
	DB	00H
	DB	00H
	DB	00H
	DB	00H
	DB	00H
	DB	00H
	DB	00H
	DB	00H
	DB	00H
	DB	00H
	DB	00H
	DB	00H
	DB	06H
	DB	0eH
	DB	0eH
	DB	074H
	DB	0b5H
	DB	0b5H
	DB	0b5H
	DB	0b5H
	DB	0b5H
	DB	012H
	DB	0a8H
	DB	0a8H
	DB	0a8H
	DB	0a8H
	DB	0a8H
	DB	0d8H
	DB	07H
	DB	07H
	DB	07H
	DB	025H
	DB	064H
	DB	035H
	DB	043H
	DB	024H
	DB	0abH
	DB	027H
	DB	028H
	DB	030H
	DB	024H
	DB	024H
	DB	04dH
	DB	02dH
	DB	02dH
	DB	053H
	DB	062H
	DB	062H
	DB	05fH
	DB	040H
	DB	013H
	DB	04fH
	DB	092H
	DB	04bH
	DB	064H
	DB	019H
	DB	035H
	DB	00H
	DB	00H
	DB	00H
	DB	09H
	DB	00H
	DB	00H
	DB	00H
	DB	00H
	DB	00H
	DB	00H
	DB	00H
	DB	00H
	DB	09H
	DB	09H
	DB	00H
	DB	00H
	DB	09H
	DB	09H
	DB	00H
	DB	00H
	DB	00H
	DB	00H
	DB	00H
	DB	036H
	DB	07H
	DB	07H
	DB	07H
	DB	023H
	DB	077H
	DB	015H
	DB	015H
	DB	015H
	DB	0c5H
	DB	017H
	DB	0aH
	DB	0aH
	DB	0aH
	DB	0aH
	DB	0aH
	DB	0f6H
	DB	0eH
	DB	0eH
	DB	026H
	DB	00H
	DB	00H
	DB	00H
	DB	00H
	DB	00H
	DB	00H
	DB	00H
	DB	00H
	DB	00H
	DB	00H
	DB	00H
	DB	00H
	DB	00H
	DB	0bH
	DB	02cH
	DB	0cH
	DB	0cH
	DB	02cH
	DB	04H
	DB	00H
	DB	00H
	DB	08H
	DB	06H
	DB	021H
	DB	022H
	DB	04H
	DB	06H
	DB	021H
	DB	022H
	DB	04H
	DB	06H
	DB	021H
	DB	022H
	DB	04H
	DB	06H
	DB	05H
	DB	022H
	DB	04H
	DB	06H
	DB	05H
	DB	022H
	DB	04H
	DB	06H
	DB	05H
	DB	022H
	DB	04H
	DB	06H
	DB	05H
	DB	022H
	DB	022H
	DB	06H
	DB	05H
	DB	022H
	DB	022H
	DB	06H
	DB	06H
	DB	022H
	DB	022H
	DB	06H
	DB	06H
	DB	022H
	DB	022H
	DB	05H
	DB	06H
	DB	022H
	DB	022H
	DB	05H
	DB	06H
	DB	04H
	DB	022H
	DB	05H
	DB	06H
	DB	04H
	DB	022H
	DB	05H
	DB	06H
	DB	04H
	DB	022H
	DB	05H
	DB	06H
	DB	04H
	DB	022H
	DB	021H
	DB	06H
	DB	04H
	DB	022H
	DB	021H
	DB	06H
	DB	04H
	DB	022H
	DB	021H
	DB	06H
	DB	03H
	DB	022H
	DB	04aH
	DB	06H
	DB	03H
	DB	022H
	DB	04aH
	DB	06H
	DB	03H
	DB	022H
	DB	03H
	DB	06H
	DB	03H
	DB	022H
	DB	03H
	DB	06H
	DB	03H
	DB	022H
	DB	03H
	DB	06H
	DB	03H
	DB	022H
	DB	03H
	DB	06H
	DB	03H
	DB	022H
	DB	03H
	DB	06H
	DB	04aH
	DB	0bH
	DB	00H
	DB	00H
	DB	022H
	DB	02cH
	DB	0cH
	DB	0cH
	DB	02cH
	DB	08H
	DB	00H
	DB	00H
	DB	00H
	DB	00H
	DB	00H
	DB	00H
	DB	00H
	DB	00H
	DB	00H
	DB	00H
	DB	00H
	DB	00H
	DB	00H
	DB	06H
	DB	0eH
	DB	0eH
	DB	0b0H
	DB	0b5H
	DB	0b5H
	DB	0b5H
	DB	0b5H
	DB	012H
	DB	012H
	DB	0a8H
	DB	0a8H
	DB	0a8H
	DB	0a8H
	DB	0a8H
	DB	067H
	DB	07H
	DB	07H
	DB	07H
	DB	036H
	DB	04cH
	DB	084H
	DB	02bH
	DB	07fH
	DB	030H
	DB	03cH
	DB	030H
	DB	01aH
	DB	01aH
	DB	01eH
	DB	04bH
	DB	034H
	DB	02dH
	DB	03dH
	DB	053H
	DB	01dH
	DB	035H
	DB	024H
	DB	040H
	DB	013H
	DB	013H
	DB	09H
	DB	09H
	DB	00H
	DB	00H
	DB	00H
	DB	00H
	DB	09H
	DB	00H
	DB	00H
	DB	00H
	DB	00H
	DB	00H
	DB	00H
	DB	00H
	DB	00H
	DB	09H
	DB	09H
	DB	00H
	DB	00H
	DB	00H
	DB	09H
	DB	09H
	DB	00H
	DB	09H
	DB	09H
	DB	05fH
	DB	07H
	DB	07H
	DB	07H
	DB	046H
	DB	077H
	DB	015H
	DB	015H
	DB	015H
	DB	015H
	DB	017H
	DB	0aH
	DB	0aH
	DB	0aH
	DB	0aH
	DB	0aH
	DB	073H
	DB	0eH
	DB	0eH
	DB	026H
	DB	00H
	DB	00H
	DB	00H
	DB	00H
	DB	00H
	DB	00H
	DB	00H
	DB	00H
	DB	00H
	DB	00H
	DB	00H
	DB	00H
	DB	00H
	DB	022H
	DB	031H
	DB	0cH
	DB	0cH
	DB	06H
	DB	09H
	DB	00H
	DB	09H
	DB	04H
	DB	03H
	DB	03H
	DB	03H
	DB	03H
	DB	03H
	DB	03H
	DB	03H
	DB	03H
	DB	03H
	DB	03H
	DB	03H
	DB	03H
	DB	03H
	DB	03H
	DB	03H
	DB	03H
	DB	03H
	DB	03H
	DB	03H
	DB	03H
	DB	03H
	DB	03H
	DB	03H
	DB	03H
	DB	03H
	DB	03H
	DB	03H
	DB	03H
	DB	03H
	DB	03H
	DB	03H
	DB	03H
	DB	03H
	DB	03H
	DB	03H
	DB	03H
	DB	03H
	DB	03H
	DB	03H
	DB	03H
	DB	03H
	DB	03H
	DB	03H
	DB	03H
	DB	03H
	DB	03H
	DB	03H
	DB	03H
	DB	03H
	DB	03H
	DB	03H
	DB	03H
	DB	03H
	DB	03H
	DB	03H
	DB	03H
	DB	03H
	DB	03H
	DB	03H
	DB	03H
	DB	03H
	DB	03H
	DB	03H
	DB	03H
	DB	03H
	DB	03H
	DB	03H
	DB	03H
	DB	03H
	DB	03H
	DB	03H
	DB	03H
	DB	03H
	DB	03H
	DB	03H
	DB	03H
	DB	03H
	DB	03H
	DB	03H
	DB	03H
	DB	03H
	DB	03H
	DB	03H
	DB	03H
	DB	03H
	DB	03H
	DB	03H
	DB	03H
	DB	03H
	DB	03H
	DB	03H
	DB	03H
	DB	03H
	DB	03H
	DB	03H
	DB	03H
	DB	03H
	DB	03H
	DB	03H
	DB	03H
	DB	03H
	DB	03H
	DB	09H
	DB	00H
	DB	09H
	DB	06H
	DB	0cH
	DB	0cH
	DB	031H
	DB	022H
	DB	00H
	DB	00H
	DB	00H
	DB	00H
	DB	00H
	DB	00H
	DB	00H
	DB	00H
	DB	00H
	DB	00H
	DB	00H
	DB	00H
	DB	00H
	DB	026H
	DB	0eH
	DB	0eH
	DB	063H
	DB	0b5H
	DB	0b5H
	DB	0b5H
	DB	0b5H
	DB	012H
	DB	012H
	DB	0a8H
	DB	0a8H
	DB	0a8H
	DB	0a8H
	DB	0b5H
	DB	023H
	DB	07H
	DB	07H
	DB	07H
	DB	0cfH
	DB	0d1H
	DB	03dH
	DB	01eH
	DB	04bH
	DB	02dH
	DB	04dH
	DB	01dH
	DB	01eH
	DB	030H
	DB	01eH
	DB	092H
	DB	02dH
	DB	02dH
	DB	01eH
	DB	04fH
	DB	04dH
	DB	06eH
	DB	03eH
	DB	00H
	DB	032H
	DB	05aH
	DB	02aH
	DB	00H
	DB	00H
	DB	00H
	DB	00H
	DB	00H
	DB	00H
	DB	09H
	DB	00H
	DB	09H
	DB	00H
	DB	00H
	DB	09H
	DB	09H
	DB	09H
	DB	09H
	DB	09H
	DB	09H
	DB	09H
	DB	09H
	DB	09H
	DB	00H
	DB	09H
	DB	056H
	DB	07H
	DB	07H
	DB	07H
	DB	07H
	DB	014H
	DB	015H
	DB	015H
	DB	015H
	DB	015H
	DB	07bH
	DB	086H
	DB	0aH
	DB	0aH
	DB	0aH
	DB	0aH
	DB	079H
	DB	0eH
	DB	0eH
	DB	026H
	DB	00H
	DB	00H
	DB	00H
	DB	00H
	DB	00H
	DB	00H
	DB	00H
	DB	00H
	DB	00H
	DB	00H
	DB	00H
	DB	00H
	DB	00H
	DB	03H
	DB	0cH
	DB	0cH
	DB	0cH
	DB	03H
	DB	00H
	DB	00H
	DB	09H
	DB	04H
	DB	06H
	DB	021H
	DB	022H
	DB	03H
	DB	06H
	DB	021H
	DB	022H
	DB	04H
	DB	06H
	DB	021H
	DB	022H
	DB	04H
	DB	06H
	DB	021H
	DB	022H
	DB	04H
	DB	06H
	DB	05H
	DB	022H
	DB	04H
	DB	06H
	DB	05H
	DB	022H
	DB	04H
	DB	06H
	DB	05H
	DB	022H
	DB	04H
	DB	06H
	DB	05H
	DB	022H
	DB	022H
	DB	06H
	DB	05H
	DB	022H
	DB	022H
	DB	06H
	DB	06H
	DB	022H
	DB	022H
	DB	06H
	DB	06H
	DB	022H
	DB	022H
	DB	05H
	DB	06H
	DB	04H
	DB	022H
	DB	05H
	DB	06H
	DB	04H
	DB	022H
	DB	05H
	DB	06H
	DB	04H
	DB	022H
	DB	05H
	DB	06H
	DB	04H
	DB	022H
	DB	05H
	DB	06H
	DB	04H
	DB	022H
	DB	021H
	DB	06H
	DB	04H
	DB	022H
	DB	021H
	DB	06H
	DB	04H
	DB	022H
	DB	021H
	DB	06H
	DB	03H
	DB	022H
	DB	04aH
	DB	06H
	DB	03H
	DB	022H
	DB	04aH
	DB	06H
	DB	03H
	DB	022H
	DB	03H
	DB	06H
	DB	03H
	DB	022H
	DB	03H
	DB	06H
	DB	03H
	DB	022H
	DB	03H
	DB	06H
	DB	03H
	DB	022H
	DB	03H
	DB	06H
	DB	04aH
	DB	022H
	DB	03H
	DB	06H
	DB	021H
	DB	022H
	DB	0bH
	DB	00H
	DB	00H
	DB	03H
	DB	0cH
	DB	0cH
	DB	0cH
	DB	04H
	DB	00H
	DB	00H
	DB	00H
	DB	00H
	DB	00H
	DB	00H
	DB	00H
	DB	00H
	DB	00H
	DB	00H
	DB	00H
	DB	00H
	DB	00H
	DB	026H
	DB	0eH
	DB	0eH
	DB	0a5H
	DB	0b5H
	DB	0b5H
	DB	012H
	DB	012H
	DB	012H
	DB	0a8H
	DB	0a8H
	DB	0a8H
	DB	0a8H
	DB	0a8H
	DB	01bH
	DB	07H
	DB	07H
	DB	07H
	DB	07H
	DB	0cfH
	DB	03dH
	DB	028H
	DB	01dH
	DB	01eH
	DB	01eH
	DB	035H
	DB	04dH
	DB	024H
	DB	01aH
	DB	01eH
	DB	049H
	DB	042H
	DB	04bH
	DB	01dH
	DB	035H
	DB	04dH
	DB	038H
	DB	00H
	DB	032H
	DB	03aH
	DB	013H
	DB	059H
	DB	09H
	DB	00H
	DB	00H
	DB	00H
	DB	00H
	DB	00H
	DB	00H
	DB	09H
	DB	00H
	DB	09H
	DB	09H
	DB	09H
	DB	03bH
	DB	09H
	DB	09H
	DB	00H
	DB	09H
	DB	0bH
	DB	09H
	DB	00H
	DB	09H
	DB	02eH
	DB	07H
	DB	07H
	DB	07H
	DB	05cH
	DB	015H
	DB	015H
	DB	015H
	DB	015H
	DB	07bH
	DB	086H
	DB	0aH
	DB	0aH
	DB	0aH
	DB	0aH
	DB	070H
	DB	08eH
	DB	0eH
	DB	031H
	DB	00H
	DB	00H
	DB	00H
	DB	00H
	DB	00H
	DB	00H
	DB	00H
	DB	00H
	DB	00H
	DB	00H
	DB	00H
	DB	00H
	DB	00H
	DB	04aH
	DB	0cH
	DB	0cH
	DB	0cH
	DB	03H
	DB	00H
	DB	00H
	DB	022H
	DB	03H
	DB	03H
	DB	03H
	DB	03H
	DB	03H
	DB	03H
	DB	03H
	DB	03H
	DB	03H
	DB	03H
	DB	03H
	DB	03H
	DB	03H
	DB	03H
	DB	03H
	DB	03H
	DB	03H
	DB	03H
	DB	03H
	DB	03H
	DB	03H
	DB	03H
	DB	03H
	DB	03H
	DB	03H
	DB	03H
	DB	03H
	DB	03H
	DB	03H
	DB	03H
	DB	03H
	DB	03H
	DB	03H
	DB	03H
	DB	03H
	DB	03H
	DB	03H
	DB	03H
	DB	03H
	DB	03H
	DB	03H
	DB	03H
	DB	03H
	DB	03H
	DB	03H
	DB	03H
	DB	03H
	DB	03H
	DB	03H
	DB	03H
	DB	03H
	DB	03H
	DB	03H
	DB	03H
	DB	03H
	DB	03H
	DB	03H
	DB	03H
	DB	03H
	DB	03H
	DB	03H
	DB	03H
	DB	03H
	DB	03H
	DB	03H
	DB	03H
	DB	03H
	DB	03H
	DB	03H
	DB	03H
	DB	03H
	DB	03H
	DB	03H
	DB	03H
	DB	03H
	DB	03H
	DB	03H
	DB	03H
	DB	03H
	DB	03H
	DB	03H
	DB	03H
	DB	03H
	DB	03H
	DB	03H
	DB	03H
	DB	03H
	DB	03H
	DB	03H
	DB	03H
	DB	03H
	DB	03H
	DB	03H
	DB	03H
	DB	03H
	DB	03H
	DB	03H
	DB	03H
	DB	03H
	DB	03H
	DB	03H
	DB	03H
	DB	03H
	DB	03H
	DB	03H
	DB	03H
	DB	03H
	DB	04H
	DB	00H
	DB	00H
	DB	03H
	DB	0cH
	DB	0cH
	DB	0cH
	DB	03H
	DB	00H
	DB	00H
	DB	00H
	DB	00H
	DB	00H
	DB	00H
	DB	00H
	DB	00H
	DB	00H
	DB	00H
	DB	00H
	DB	00H
	DB	00H
	DB	02cH
	DB	0eH
	DB	0f4H
	DB	0faH
	DB	012H
	DB	012H
	DB	012H
	DB	012H
	DB	012H
	DB	0a8H
	DB	0a8H
	DB	0a8H
	DB	0a8H
	DB	0a8H
	DB	011H
	DB	07H
	DB	07H
	DB	07H
	DB	025H
	DB	035H
	DB	028H
	DB	03cH
	DB	02bH
	DB	01eH
	DB	035H
	DB	061H
	DB	030H
	DB	050H
	DB	01aH
	DB	028H
	DB	04dH
	DB	03cH
	DB	042H
	DB	027H
	DB	01dH
	DB	04cH
	DB	032H
	DB	00H
	DB	00H
	DB	02aH
	DB	02dH
	DB	00H
	DB	00H
	DB	00H
	DB	00H
	DB	00H
	DB	00H
	DB	00H
	DB	09H
	DB	00H
	DB	09H
	DB	09H
	DB	00H
	DB	00H
	DB	09H
	DB	09H
	DB	09H
	DB	09H
	DB	09H
	DB	09H
	DB	00H
	DB	03dH
	DB	07H
	DB	07H
	DB	07H
	DB	023H
	DB	077H
	DB	077H
	DB	015H
	DB	015H
	DB	07bH
	DB	0d8H
	DB	0aH
	DB	0aH
	DB	0aH
	DB	0aH
	DB	06aH
	DB	052H
	DB	0eH
	DB	0bfH
	DB	09H
	DB	00H
	DB	00H
	DB	00H
	DB	00H
	DB	00H
	DB	00H
	DB	00H
	DB	00H
	DB	00H
	DB	00H
	DB	00H
	DB	00H
	DB	021H
	DB	0cH
	DB	0cH
	DB	0cH
	DB	04H
	DB	00H
	DB	00H
	DB	0bH
	DB	03H
	DB	06H
	DB	04aH
	DB	022H
	DB	03H
	DB	06H
	DB	021H
	DB	022H
	DB	03H
	DB	06H
	DB	021H
	DB	022H
	DB	04H
	DB	06H
	DB	021H
	DB	022H
	DB	04H
	DB	06H
	DB	05H
	DB	022H
	DB	04H
	DB	06H
	DB	05H
	DB	022H
	DB	04H
	DB	06H
	DB	05H
	DB	022H
	DB	04H
	DB	06H
	DB	05H
	DB	022H
	DB	04H
	DB	06H
	DB	05H
	DB	022H
	DB	022H
	DB	06H
	DB	06H
	DB	022H
	DB	022H
	DB	06H
	DB	06H
	DB	022H
	DB	022H
	DB	06H
	DB	06H
	DB	022H
	DB	022H
	DB	05H
	DB	06H
	DB	04H
	DB	022H
	DB	05H
	DB	06H
	DB	04H
	DB	022H
	DB	05H
	DB	06H
	DB	04H
	DB	022H
	DB	05H
	DB	06H
	DB	04H
	DB	022H
	DB	05H
	DB	06H
	DB	04H
	DB	022H
	DB	021H
	DB	06H
	DB	04H
	DB	022H
	DB	021H
	DB	06H
	DB	03H
	DB	022H
	DB	021H
	DB	06H
	DB	03H
	DB	022H
	DB	04aH
	DB	06H
	DB	03H
	DB	022H
	DB	04aH
	DB	06H
	DB	03H
	DB	022H
	DB	03H
	DB	06H
	DB	03H
	DB	022H
	DB	03H
	DB	06H
	DB	03H
	DB	022H
	DB	03H
	DB	06H
	DB	04aH
	DB	022H
	DB	03H
	DB	06H
	DB	04aH
	DB	022H
	DB	03H
	DB	06H
	DB	021H
	DB	022H
	DB	04H
	DB	00H
	DB	00H
	DB	04H
	DB	031H
	DB	0cH
	DB	0cH
	DB	021H
	DB	00H
	DB	00H
	DB	00H
	DB	00H
	DB	00H
	DB	00H
	DB	00H
	DB	00H
	DB	00H
	DB	00H
	DB	00H
	DB	00H
	DB	09H
	DB	0bfH
	DB	0eH
	DB	0f5H
	DB	0b3H
	DB	012H
	DB	012H
	DB	012H
	DB	012H
	DB	0a8H
	DB	0a8H
	DB	0a8H
	DB	0a8H
	DB	0a8H
	DB	0a8H
	DB	015H
	DB	07H
	DB	07H
	DB	07H
	DB	076H
	DB	029H
	DB	04dH
	DB	041H
	DB	042H
	DB	01eH
	DB	042H
	DB	03cH
	DB	024H
	DB	03bH
	DB	038H
	DB	0acH
	DB	041H
	DB	049H
	DB	028H
	DB	045H
	DB	01aH
	DB	010H
	DB	032H
	DB	00H
	DB	019H
	DB	088H
	DB	00H
	DB	01fH
	DB	00H
	DB	00H
	DB	00H
	DB	00H
	DB	00H
	DB	00H
	DB	00H
	DB	00H
	DB	00H
	DB	00H
	DB	00H
	DB	09H
	DB	059H
	DB	0dH
	DB	03bH
	DB	01fH
	DB	00H
	DB	038H
	DB	07H
	DB	07H
	DB	07H
	DB	07H
	DB	077H
	DB	015H
	DB	015H
	DB	015H
	DB	015H
	DB	017H
	DB	0aH
	DB	0aH
	DB	0aH
	DB	0d9H
	DB	0d7H
	DB	05eH
	DB	0eH
	DB	0eH
	DB	08H
	DB	00H
	DB	00H
	DB	00H
	DB	00H
	DB	00H
	DB	00H
	DB	00H
	DB	00H
	DB	00H
	DB	00H
	DB	00H
	DB	00H
	DB	05H
	DB	0cH
	DB	0cH
	DB	031H
	DB	04H
	DB	00H
	DB	00H
	DB	04H
	DB	03H
	DB	03H
	DB	03H
	DB	03H
	DB	03H
	DB	03H
	DB	03H
	DB	03H
	DB	03H
	DB	03H
	DB	03H
	DB	03H
	DB	03H
	DB	03H
	DB	03H
	DB	03H
	DB	03H
	DB	03H
	DB	03H
	DB	03H
	DB	03H
	DB	03H
	DB	03H
	DB	03H
	DB	03H
	DB	03H
	DB	03H
	DB	03H
	DB	03H
	DB	03H
	DB	03H
	DB	03H
	DB	03H
	DB	03H
	DB	03H
	DB	03H
	DB	03H
	DB	03H
	DB	03H
	DB	03H
	DB	03H
	DB	03H
	DB	03H
	DB	03H
	DB	03H
	DB	03H
	DB	03H
	DB	03H
	DB	03H
	DB	03H
	DB	03H
	DB	03H
	DB	03H
	DB	03H
	DB	03H
	DB	03H
	DB	03H
	DB	03H
	DB	03H
	DB	03H
	DB	03H
	DB	03H
	DB	03H
	DB	03H
	DB	03H
	DB	03H
	DB	03H
	DB	03H
	DB	03H
	DB	03H
	DB	03H
	DB	03H
	DB	03H
	DB	03H
	DB	03H
	DB	03H
	DB	03H
	DB	03H
	DB	03H
	DB	03H
	DB	03H
	DB	03H
	DB	03H
	DB	03H
	DB	03H
	DB	03H
	DB	03H
	DB	03H
	DB	03H
	DB	03H
	DB	03H
	DB	03H
	DB	03H
	DB	03H
	DB	03H
	DB	03H
	DB	03H
	DB	03H
	DB	03H
	DB	03H
	DB	03H
	DB	03H
	DB	03H
	DB	03H
	DB	03H
	DB	03H
	DB	03H
	DB	03H
	DB	03H
	DB	03H
	DB	03H
	DB	03H
	DB	00H
	DB	00H
	DB	04H
	DB	02cH
	DB	0cH
	DB	0cH
	DB	05H
	DB	00H
	DB	00H
	DB	00H
	DB	00H
	DB	00H
	DB	00H
	DB	00H
	DB	00H
	DB	00H
	DB	00H
	DB	00H
	DB	00H
	DB	0bH
	DB	0eH
	DB	0eH
	DB	068H
	DB	06bH
	DB	012H
	DB	012H
	DB	012H
	DB	012H
	DB	0a8H
	DB	0a8H
	DB	0a8H
	DB	0a8H
	DB	0a8H
	DB	0b5H
	DB	023H
	DB	07H
	DB	07H
	DB	07H
	DB	01aH
	DB	032H
	DB	04fH
	DB	07fH
	DB	024H
	DB	042H
	DB	030H
	DB	028H
	DB	016H
	DB	04cH
	DB	043H
	DB	028H
	DB	034H
	DB	061H
	DB	01eH
	DB	01aH
	DB	038H
	DB	039H
	DB	00H
	DB	0dH
	DB	047H
	DB	00H
	DB	00H
	DB	00H
	DB	00H
	DB	00H
	DB	00H
	DB	00H
	DB	00H
	DB	00H
	DB	00H
	DB	00H
	DB	00H
	DB	00H
	DB	09H
	DB	032H
	DB	00H
	DB	01fH
	DB	01fH
	DB	00H
	DB	025H
	DB	07H
	DB	07H
	DB	07H
	DB	0beH
	DB	015H
	DB	015H
	DB	015H
	DB	015H
	DB	07bH
	DB	086H
	DB	0aH
	DB	0d9H
	DB	0d9H
	DB	0d9H
	DB	069H
	DB	0eH
	DB	0eH
	DB	04H
	DB	00H
	DB	00H
	DB	00H
	DB	00H
	DB	00H
	DB	00H
	DB	00H
	DB	00H
	DB	00H
	DB	00H
	DB	00H
	DB	00H
	DB	05H
	DB	0cH
	DB	0cH
	DB	02cH
	DB	022H
	DB	00H
	DB	09H
	DB	08H
	DB	03H
	DB	06H
	DB	04aH
	DB	022H
	DB	03H
	DB	06H
	DB	021H
	DB	022H
	DB	03H
	DB	06H
	DB	021H
	DB	022H
	DB	04H
	DB	06H
	DB	021H
	DB	022H
	DB	04H
	DB	06H
	DB	05H
	DB	022H
	DB	04H
	DB	06H
	DB	05H
	DB	022H
	DB	04H
	DB	06H
	DB	05H
	DB	022H
	DB	04H
	DB	06H
	DB	05H
	DB	022H
	DB	04H
	DB	06H
	DB	05H
	DB	022H
	DB	04H
	DB	06H
	DB	06H
	DB	022H
	DB	022H
	DB	06H
	DB	06H
	DB	022H
	DB	022H
	DB	06H
	DB	06H
	DB	022H
	DB	022H
	DB	05H
	DB	06H
	DB	04H
	DB	022H
	DB	05H
	DB	06H
	DB	04H
	DB	022H
	DB	05H
	DB	06H
	DB	04H
	DB	022H
	DB	05H
	DB	06H
	DB	04H
	DB	022H
	DB	05H
	DB	06H
	DB	04H
	DB	022H
	DB	05H
	DB	06H
	DB	04H
	DB	022H
	DB	021H
	DB	06H
	DB	03H
	DB	022H
	DB	021H
	DB	06H
	DB	03H
	DB	022H
	DB	021H
	DB	06H
	DB	03H
	DB	022H
	DB	04aH
	DB	06H
	DB	03H
	DB	022H
	DB	03H
	DB	06H
	DB	03H
	DB	022H
	DB	03H
	DB	06H
	DB	03H
	DB	022H
	DB	03H
	DB	06H
	DB	04aH
	DB	022H
	DB	03H
	DB	06H
	DB	04aH
	DB	022H
	DB	03H
	DB	06H
	DB	021H
	DB	022H
	DB	03H
	DB	06H
	DB	021H
	DB	022H
	DB	04H
	DB	09H
	DB	00H
	DB	08H
	DB	02cH
	DB	0cH
	DB	0cH
	DB	06H
	DB	00H
	DB	00H
	DB	00H
	DB	00H
	DB	00H
	DB	00H
	DB	00H
	DB	00H
	DB	00H
	DB	00H
	DB	00H
	DB	00H
	DB	04H
	DB	0eH
	DB	0eH
	DB	078H
	DB	012H
	DB	012H
	DB	012H
	DB	012H
	DB	0a8H
	DB	0a8H
	DB	0a8H
	DB	0a8H
	DB	0a8H
	DB	0a8H
	DB	082H
	DB	07H
	DB	07H
	DB	07H
	DB	025H
	DB	019H
	DB	034H
	DB	01eH
	DB	028H
	DB	034H
	DB	028H
	DB	028H
	DB	01eH
	DB	01aH
	DB	01dH
	DB	01eH
	DB	01eH
	DB	034H
	DB	061H
	DB	030H
	DB	02fH
	DB	04cH
	DB	019H
	DB	05aH
	DB	040H
	DB	00H
	DB	00H
	DB	00H
	DB	00H
	DB	00H
	DB	00H
	DB	00H
	DB	00H
	DB	00H
	DB	00H
	DB	00H
	DB	00H
	DB	00H
	DB	00H
	DB	00H
	DB	00H
	DB	00H
	DB	01fH
	DB	03dH
	DB	07H
	DB	07H
	DB	07H
	DB	023H
	DB	077H
	DB	015H
	DB	015H
	DB	015H
	DB	07bH
	DB	086H
	DB	0aH
	DB	0d9H
	DB	0d9H
	DB	0d9H
	DB	0c2H
	DB	0eH
	DB	0eH
	DB	05H
	DB	00H
	DB	00H
	DB	00H
	DB	00H
	DB	00H
	DB	00H
	DB	00H
	DB	00H
	DB	00H
	DB	00H
	DB	00H
	DB	00H
	DB	05H
	DB	0cH
	DB	0cH
	DB	02cH
	DB	08H
	DB	00H
	DB	09H
	DB	03H
	DB	03H
	DB	03H
	DB	03H
	DB	03H
	DB	03H
	DB	03H
	DB	03H
	DB	03H
	DB	03H
	DB	03H
	DB	03H
	DB	03H
	DB	03H
	DB	03H
	DB	03H
	DB	03H
	DB	03H
	DB	03H
	DB	03H
	DB	03H
	DB	03H
	DB	03H
	DB	03H
	DB	03H
	DB	03H
	DB	03H
	DB	03H
	DB	03H
	DB	03H
	DB	03H
	DB	03H
	DB	03H
	DB	03H
	DB	03H
	DB	03H
	DB	03H
	DB	03H
	DB	03H
	DB	03H
	DB	03H
	DB	03H
	DB	03H
	DB	03H
	DB	03H
	DB	03H
	DB	03H
	DB	03H
	DB	03H
	DB	03H
	DB	03H
	DB	03H
	DB	03H
	DB	03H
	DB	03H
	DB	03H
	DB	03H
	DB	03H
	DB	03H
	DB	03H
	DB	03H
	DB	03H
	DB	03H
	DB	03H
	DB	03H
	DB	03H
	DB	03H
	DB	03H
	DB	03H
	DB	03H
	DB	03H
	DB	03H
	DB	03H
	DB	03H
	DB	03H
	DB	03H
	DB	03H
	DB	03H
	DB	03H
	DB	03H
	DB	03H
	DB	03H
	DB	03H
	DB	03H
	DB	03H
	DB	03H
	DB	03H
	DB	03H
	DB	03H
	DB	03H
	DB	03H
	DB	03H
	DB	03H
	DB	03H
	DB	03H
	DB	03H
	DB	03H
	DB	03H
	DB	03H
	DB	03H
	DB	03H
	DB	03H
	DB	03H
	DB	03H
	DB	03H
	DB	03H
	DB	03H
	DB	03H
	DB	03H
	DB	03H
	DB	03H
	DB	03H
	DB	03H
	DB	03H
	DB	03H
	DB	03H
	DB	03H
	DB	09H
	DB	00H
	DB	0bH
	DB	026H
	DB	0cH
	DB	0cH
	DB	05H
	DB	00H
	DB	00H
	DB	00H
	DB	00H
	DB	00H
	DB	00H
	DB	00H
	DB	00H
	DB	00H
	DB	00H
	DB	00H
	DB	00H
	DB	021H
	DB	0eH
	DB	0eH
	DB	0d6H
	DB	012H
	DB	012H
	DB	012H
	DB	012H
	DB	0a8H
	DB	0a8H
	DB	0a8H
	DB	0a8H
	DB	0fH
	DB	0fH
	DB	0d8H
	DB	07H
	DB	07H
	DB	07H
	DB	036H
	DB	01eH
	DB	061H
	DB	01aH
	DB	010H
	DB	010H
	DB	028H
	DB	024H
	DB	010H
	DB	05aH
	DB	01eH
	DB	024H
	DB	01aH
	DB	02dH
	DB	05fH
	DB	050H
	DB	02bH
	DB	02bH
	DB	027H
	DB	013H
	DB	00H
	DB	00H
	DB	00H
	DB	00H
	DB	00H
	DB	00H
	DB	00H
	DB	00H
	DB	00H
	DB	00H
	DB	00H
	DB	00H
	DB	00H
	DB	00H
	DB	00H
	DB	00H
	DB	00H
	DB	038H
	DB	07H
	DB	07H
	DB	07H
	DB	046H
	DB	067H
	DB	077H
	DB	015H
	DB	015H
	DB	0c5H
	DB	0d8H
	DB	0aH
	DB	0d9H
	DB	0d9H
	DB	0d9H
	DB	070H
	DB	08eH
	DB	0eH
	DB	026H
	DB	00H
	DB	00H
	DB	00H
	DB	00H
	DB	00H
	DB	00H
	DB	00H
	DB	00H
	DB	00H
	DB	00H
	DB	00H
	DB	00H
	DB	04aH
	DB	0cH
	DB	0cH
	DB	02cH
	DB	0bH
	DB	00H
	DB	09H
	DB	022H
	DB	03H
	DB	06H
	DB	04aH
	DB	022H
	DB	03H
	DB	06H
	DB	021H
	DB	022H
	DB	03H
	DB	06H
	DB	021H
	DB	022H
	DB	03H
	DB	06H
	DB	021H
	DB	022H
	DB	04H
	DB	06H
	DB	05H
	DB	022H
	DB	04H
	DB	06H
	DB	05H
	DB	022H
	DB	04H
	DB	06H
	DB	05H
	DB	022H
	DB	04H
	DB	06H
	DB	05H
	DB	022H
	DB	04H
	DB	06H
	DB	05H
	DB	022H
	DB	04H
	DB	06H
	DB	05H
	DB	022H
	DB	04H
	DB	06H
	DB	06H
	DB	022H
	DB	022H
	DB	06H
	DB	06H
	DB	022H
	DB	022H
	DB	06H
	DB	06H
	DB	04H
	DB	022H
	DB	05H
	DB	06H
	DB	04H
	DB	022H
	DB	05H
	DB	06H
	DB	04H
	DB	022H
	DB	05H
	DB	06H
	DB	04H
	DB	022H
	DB	05H
	DB	06H
	DB	04H
	DB	022H
	DB	05H
	DB	06H
	DB	04H
	DB	022H
	DB	021H
	DB	06H
	DB	03H
	DB	022H
	DB	021H
	DB	06H
	DB	03H
	DB	022H
	DB	021H
	DB	06H
	DB	03H
	DB	022H
	DB	04aH
	DB	06H
	DB	03H
	DB	022H
	DB	04aH
	DB	06H
	DB	03H
	DB	022H
	DB	03H
	DB	06H
	DB	03H
	DB	022H
	DB	03H
	DB	06H
	DB	03H
	DB	022H
	DB	03H
	DB	06H
	DB	04aH
	DB	022H
	DB	03H
	DB	06H
	DB	021H
	DB	022H
	DB	03H
	DB	06H
	DB	021H
	DB	022H
	DB	03H
	DB	06H
	DB	021H
	DB	022H
	DB	04H
	DB	0bH
	DB	00H
	DB	09H
	DB	02cH
	DB	0cH
	DB	0cH
	DB	03H
	DB	00H
	DB	00H
	DB	00H
	DB	00H
	DB	00H
	DB	00H
	DB	00H
	DB	00H
	DB	00H
	DB	00H
	DB	00H
	DB	00H
	DB	026H
	DB	0eH
	DB	0f4H
	DB	090H
	DB	012H
	DB	012H
	DB	012H
	DB	0a8H
	DB	0a8H
	DB	0a8H
	DB	0fH
	DB	0fH
	DB	0fH
	DB	012H
	DB	05cH
	DB	07H
	DB	07H
	DB	07H
	DB	024H
	DB	01eH
	DB	030H
	DB	038H
	DB	03eH
	DB	01aH
	DB	024H
	DB	037H
	DB	013H
	DB	019H
	DB	010H
	DB	028H
	DB	024H
	DB	045H
	DB	050H
	DB	05fH
	DB	04dH
	DB	010H
	DB	00H
	DB	00H
	DB	00H
	DB	00H
	DB	00H
	DB	00H
	DB	00H
	DB	00H
	DB	00H
	DB	00H
	DB	09H
	DB	013H
	DB	032H
	DB	09H
	DB	00H
	DB	00H
	DB	00H
	DB	00H
	DB	02eH
	DB	07H
	DB	07H
	DB	07H
	DB	0beH
	DB	015H
	DB	015H
	DB	015H
	DB	015H
	DB	017H
	DB	0aH
	DB	0d9H
	DB	0d9H
	DB	0d9H
	DB	0d7H
	DB	0c0H
	DB	0eH
	DB	0bfH
	DB	09H
	DB	00H
	DB	00H
	DB	00H
	DB	00H
	DB	00H
	DB	00H
	DB	00H
	DB	00H
	DB	00H
	DB	00H
	DB	00H
	DB	03H
	DB	0cH
	DB	0cH
	DB	02cH
	DB	08H
	DB	00H
	DB	0bH
	DB	03H
	DB	03H
	DB	03H
	DB	04aH
	DB	03H
	DB	03H
	DB	03H
	DB	04aH
	DB	03H
	DB	03H
	DB	03H
	DB	04aH
	DB	03H
	DB	03H
	DB	03H
	DB	04aH
	DB	03H
	DB	03H
	DB	03H
	DB	04aH
	DB	03H
	DB	03H
	DB	03H
	DB	04aH
	DB	03H
	DB	03H
	DB	03H
	DB	04aH
	DB	03H
	DB	03H
	DB	03H
	DB	04aH
	DB	03H
	DB	03H
	DB	03H
	DB	04aH
	DB	03H
	DB	03H
	DB	03H
	DB	04aH
	DB	03H
	DB	03H
	DB	03H
	DB	04aH
	DB	04aH
	DB	03H
	DB	03H
	DB	04aH
	DB	04aH
	DB	03H
	DB	03H
	DB	04aH
	DB	04aH
	DB	03H
	DB	03H
	DB	03H
	DB	04aH
	DB	03H
	DB	03H
	DB	03H
	DB	04aH
	DB	03H
	DB	03H
	DB	03H
	DB	04aH
	DB	03H
	DB	03H
	DB	03H
	DB	04aH
	DB	03H
	DB	03H
	DB	03H
	DB	04aH
	DB	03H
	DB	03H
	DB	03H
	DB	04aH
	DB	03H
	DB	03H
	DB	03H
	DB	04aH
	DB	03H
	DB	03H
	DB	03H
	DB	04aH
	DB	03H
	DB	03H
	DB	03H
	DB	04aH
	DB	03H
	DB	03H
	DB	03H
	DB	04aH
	DB	03H
	DB	03H
	DB	03H
	DB	04aH
	DB	03H
	DB	03H
	DB	03H
	DB	04aH
	DB	03H
	DB	03H
	DB	03H
	DB	04aH
	DB	03H
	DB	03H
	DB	03H
	DB	04aH
	DB	03H
	DB	03H
	DB	03H
	DB	04aH
	DB	03H
	DB	03H
	DB	03H
	DB	04aH
	DB	03H
	DB	03H
	DB	03H
	DB	03H
	DB	0bH
	DB	00H
	DB	0bH
	DB	02cH
	DB	0cH
	DB	0cH
	DB	04H
	DB	00H
	DB	00H
	DB	00H
	DB	00H
	DB	00H
	DB	00H
	DB	00H
	DB	00H
	DB	00H
	DB	00H
	DB	00H
	DB	00H
	DB	0bfH
	DB	0eH
	DB	080H
	DB	06bH
	DB	012H
	DB	012H
	DB	0a8H
	DB	0a8H
	DB	0a8H
	DB	0fH
	DB	0fH
	DB	0fH
	DB	0fH
	DB	082H
	DB	07H
	DB	07H
	DB	07H
	DB	025H
	DB	01aH
	DB	030H
	DB	01aH
	DB	038H
	DB	01aH
	DB	01aH
	DB	059H
	DB	02aH
	DB	010H
	DB	019H
	DB	01dH
	DB	02fH
	DB	01aH
	DB	01eH
	DB	01aH
	DB	0b6H
	DB	016H
	DB	013H
	DB	00H
	DB	00H
	DB	00H
	DB	00H
	DB	00H
	DB	00H
	DB	00H
	DB	00H
	DB	00H
	DB	013H
	DB	03aH
	DB	013H
	DB	059H
	DB	09H
	DB	09H
	DB	059H
	DB	060H
	DB	07H
	DB	07H
	DB	07H
	DB	023H
	DB	077H
	DB	077H
	DB	077H
	DB	015H
	DB	07bH
	DB	086H
	DB	0aH
	DB	0d9H
	DB	0d9H
	DB	0d9H
	DB	0d3H
	DB	0eH
	DB	0eH
	DB	08H
	DB	00H
	DB	00H
	DB	00H
	DB	00H
	DB	00H
	DB	00H
	DB	00H
	DB	00H
	DB	00H
	DB	00H
	DB	00H
	DB	04H
	DB	0cH
	DB	0cH
	DB	02cH
	DB	08H
	DB	00H
	DB	09H
	DB	022H
	DB	03H
	DB	06H
	DB	04aH
	DB	022H
	DB	03H
	DB	06H
	DB	04aH
	DB	022H
	DB	03H
	DB	06H
	DB	021H
	DB	022H
	DB	03H
	DB	06H
	DB	021H
	DB	022H
	DB	03H
	DB	06H
	DB	021H
	DB	022H
	DB	04H
	DB	06H
	DB	05H
	DB	022H
	DB	04H
	DB	06H
	DB	05H
	DB	022H
	DB	04H
	DB	06H
	DB	05H
	DB	022H
	DB	04H
	DB	06H
	DB	05H
	DB	022H
	DB	04H
	DB	06H
	DB	05H
	DB	022H
	DB	04H
	DB	06H
	DB	06H
	DB	022H
	DB	022H
	DB	06H
	DB	06H
	DB	022H
	DB	022H
	DB	06H
	DB	06H
	DB	04H
	DB	022H
	DB	06H
	DB	06H
	DB	04H
	DB	022H
	DB	05H
	DB	06H
	DB	04H
	DB	022H
	DB	05H
	DB	06H
	DB	04H
	DB	022H
	DB	05H
	DB	06H
	DB	04H
	DB	022H
	DB	05H
	DB	06H
	DB	04H
	DB	022H
	DB	05H
	DB	06H
	DB	04H
	DB	022H
	DB	021H
	DB	06H
	DB	03H
	DB	022H
	DB	021H
	DB	06H
	DB	03H
	DB	022H
	DB	021H
	DB	06H
	DB	03H
	DB	022H
	DB	04aH
	DB	06H
	DB	03H
	DB	022H
	DB	04aH
	DB	06H
	DB	03H
	DB	022H
	DB	03H
	DB	06H
	DB	03H
	DB	022H
	DB	03H
	DB	06H
	DB	04aH
	DB	022H
	DB	03H
	DB	06H
	DB	04aH
	DB	022H
	DB	03H
	DB	06H
	DB	021H
	DB	022H
	DB	03H
	DB	06H
	DB	021H
	DB	022H
	DB	03H
	DB	06H
	DB	021H
	DB	022H
	DB	04H
	DB	0bH
	DB	00H
	DB	08H
	DB	02cH
	DB	0cH
	DB	0cH
	DB	04H
	DB	00H
	DB	00H
	DB	00H
	DB	00H
	DB	00H
	DB	00H
	DB	00H
	DB	00H
	DB	00H
	DB	00H
	DB	00H
	DB	08H
	DB	0eH
	DB	0eH
	DB	0a2H
	DB	012H
	DB	0a8H
	DB	0a8H
	DB	0a8H
	DB	0a8H
	DB	0a8H
	DB	0fH
	DB	0fH
	DB	0fH
	DB	0fH
	DB	017H
	DB	07H
	DB	07H
	DB	07H
	DB	048H
	DB	04bH
	DB	02dH
	DB	050H
	DB	040H
	DB	01dH
	DB	01dH
	DB	01eH
	DB	04dH
	DB	024H
	DB	01aH
	DB	02fH
	DB	043H
	DB	030H
	DB	043H
	DB	038H
	DB	010H
	DB	07eH
	DB	00H
	DB	00H
	DB	00H
	DB	09H
	DB	00H
	DB	00H
	DB	00H
	DB	00H
	DB	00H
	DB	09H
	DB	032H
	DB	00H
	DB	09H
	DB	00H
	DB	00H
	DB	056H
	DB	07H
	DB	07H
	DB	07H
	DB	07H
	DB	067H
	DB	077H
	DB	077H
	DB	077H
	DB	015H
	DB	0d8H
	DB	0aH
	DB	0d9H
	DB	0d9H
	DB	0d9H
	DB	0c2H
	DB	08eH
	DB	0eH
	DB	021H
	DB	00H
	DB	00H
	DB	00H
	DB	00H
	DB	00H
	DB	00H
	DB	00H
	DB	00H
	DB	00H
	DB	00H
	DB	00H
	DB	08H
	DB	031H
	DB	0cH
	DB	031H
	DB	04H
	DB	00H
	DB	09H
	DB	03H
	DB	03H
	DB	03H
	DB	04aH
	DB	03H
	DB	03H
	DB	03H
	DB	04aH
	DB	03H
	DB	03H
	DB	03H
	DB	04aH
	DB	03H
	DB	03H
	DB	03H
	DB	04aH
	DB	03H
	DB	03H
	DB	03H
	DB	04aH
	DB	03H
	DB	03H
	DB	03H
	DB	04aH
	DB	03H
	DB	03H
	DB	03H
	DB	04aH
	DB	03H
	DB	03H
	DB	03H
	DB	04aH
	DB	03H
	DB	03H
	DB	03H
	DB	04aH
	DB	03H
	DB	03H
	DB	03H
	DB	04aH
	DB	04aH
	DB	03H
	DB	03H
	DB	04aH
	DB	04aH
	DB	03H
	DB	03H
	DB	04aH
	DB	04aH
	DB	03H
	DB	03H
	DB	04aH
	DB	04aH
	DB	03H
	DB	03H
	DB	04aH
	DB	04aH
	DB	03H
	DB	03H
	DB	03H
	DB	04aH
	DB	03H
	DB	03H
	DB	03H
	DB	04aH
	DB	03H
	DB	03H
	DB	03H
	DB	04aH
	DB	03H
	DB	03H
	DB	03H
	DB	04aH
	DB	03H
	DB	03H
	DB	03H
	DB	04aH
	DB	03H
	DB	03H
	DB	03H
	DB	04aH
	DB	03H
	DB	03H
	DB	03H
	DB	04aH
	DB	03H
	DB	03H
	DB	03H
	DB	04aH
	DB	03H
	DB	03H
	DB	03H
	DB	04aH
	DB	03H
	DB	03H
	DB	03H
	DB	04aH
	DB	03H
	DB	03H
	DB	03H
	DB	04aH
	DB	03H
	DB	03H
	DB	03H
	DB	04aH
	DB	03H
	DB	03H
	DB	03H
	DB	04aH
	DB	03H
	DB	03H
	DB	03H
	DB	04aH
	DB	03H
	DB	03H
	DB	03H
	DB	04aH
	DB	03H
	DB	03H
	DB	03H
	DB	04aH
	DB	03H
	DB	03H
	DB	03H
	DB	03H
	DB	09H
	DB	00H
	DB	022H
	DB	031H
	DB	0cH
	DB	031H
	DB	08H
	DB	00H
	DB	00H
	DB	00H
	DB	00H
	DB	00H
	DB	00H
	DB	00H
	DB	00H
	DB	00H
	DB	00H
	DB	00H
	DB	04aH
	DB	0eH
	DB	0f4H
	DB	07cH
	DB	0a8H
	DB	0a8H
	DB	0a8H
	DB	0a8H
	DB	0a8H
	DB	0fH
	DB	0fH
	DB	0fH
	DB	0fH
	DB	012H
	DB	023H
	DB	07H
	DB	07H
	DB	07H
	DB	04bH
	DB	0e0H
	DB	042H
	DB	05aH
	DB	064H
	DB	049H
	DB	061H
	DB	035H
	DB	02dH
	DB	02dH
	DB	050H
	DB	044H
	DB	02bH
	DB	05fH
	DB	047H
	DB	043H
	DB	057H
	DB	00H
	DB	00H
	DB	00H
	DB	00H
	DB	00H
	DB	00H
	DB	00H
	DB	00H
	DB	00H
	DB	00H
	DB	00H
	DB	00H
	DB	00H
	DB	00H
	DB	00H
	DB	036H
	DB	07H
	DB	07H
	DB	07H
	DB	05cH
	DB	077H
	DB	015H
	DB	077H
	DB	015H
	DB	017H
	DB	0aH
	DB	0d9H
	DB	0d9H
	DB	0d9H
	DB	06aH
	DB	052H
	DB	0eH
	DB	02cH
	DB	00H
	DB	00H
	DB	00H
	DB	00H
	DB	00H
	DB	00H
	DB	00H
	DB	00H
	DB	00H
	DB	00H
	DB	00H
	DB	09H
	DB	02cH
	DB	0cH
	DB	0cH
	DB	04H
	DB	00H
	DB	09H
	DB	022H
	DB	03H
	DB	06H
	DB	04aH
	DB	022H
	DB	03H
	DB	06H
	DB	04aH
	DB	022H
	DB	03H
	DB	06H
	DB	021H
	DB	022H
	DB	03H
	DB	06H
	DB	021H
	DB	022H
	DB	03H
	DB	06H
	DB	021H
	DB	022H
	DB	03H
	DB	06H
	DB	05H
	DB	022H
	DB	04H
	DB	06H
	DB	05H
	DB	022H
	DB	04H
	DB	06H
	DB	05H
	DB	022H
	DB	04H
	DB	06H
	DB	05H
	DB	022H
	DB	04H
	DB	06H
	DB	05H
	DB	022H
	DB	04H
	DB	06H
	DB	06H
	DB	022H
	DB	04H
	DB	06H
	DB	06H
	DB	022H
	DB	022H
	DB	06H
	DB	06H
	DB	022H
	DB	022H
	DB	06H
	DB	06H
	DB	04H
	DB	022H
	DB	05H
	DB	06H
	DB	04H
	DB	022H
	DB	05H
	DB	06H
	DB	04H
	DB	022H
	DB	05H
	DB	06H
	DB	04H
	DB	022H
	DB	05H
	DB	06H
	DB	04H
	DB	022H
	DB	05H
	DB	06H
	DB	04H
	DB	022H
	DB	05H
	DB	06H
	DB	03H
	DB	022H
	DB	021H
	DB	06H
	DB	03H
	DB	022H
	DB	021H
	DB	06H
	DB	03H
	DB	022H
	DB	021H
	DB	06H
	DB	03H
	DB	022H
	DB	04aH
	DB	06H
	DB	03H
	DB	022H
	DB	03H
	DB	06H
	DB	03H
	DB	022H
	DB	03H
	DB	06H
	DB	04aH
	DB	022H
	DB	03H
	DB	06H
	DB	04aH
	DB	022H
	DB	03H
	DB	06H
	DB	021H
	DB	022H
	DB	03H
	DB	06H
	DB	021H
	DB	022H
	DB	03H
	DB	06H
	DB	021H
	DB	022H
	DB	03H
	DB	06H
	DB	05H
	DB	022H
	DB	04H
	DB	09H
	DB	00H
	DB	04H
	DB	0cH
	DB	0cH
	DB	02cH
	DB	0bH
	DB	00H
	DB	00H
	DB	00H
	DB	00H
	DB	00H
	DB	00H
	DB	00H
	DB	00H
	DB	00H
	DB	00H
	DB	00H
	DB	026H
	DB	0eH
	DB	04eH
	DB	0b3H
	DB	0a8H
	DB	0a8H
	DB	0a8H
	DB	0a8H
	DB	0a8H
	DB	0fH
	DB	0fH
	DB	0fH
	DB	0fH
	DB	0f8H
	DB	07H
	DB	07H
	DB	07H
	DB	03fH
	DB	035H
	DB	01dH
	DB	05aH
	DB	064H
	DB	01dH
	DB	019H
	DB	016H
	DB	01eH
	DB	01eH
	DB	02fH
	DB	055H
	DB	055H
	DB	061H
	DB	04dH
	DB	05fH
	DB	057H
	DB	00H
	DB	00H
	DB	00H
	DB	00H
	DB	00H
	DB	00H
	DB	00H
	DB	00H
	DB	00H
	DB	00H
	DB	00H
	DB	09H
	DB	00H
	DB	00H
	DB	010H
	DB	07H
	DB	07H
	DB	07H
	DB	046H
	DB	067H
	DB	077H
	DB	077H
	DB	077H
	DB	07bH
	DB	086H
	DB	0d9H
	DB	0d9H
	DB	0d9H
	DB	0aH
	DB	085H
	DB	0eH
	DB	0eH
	DB	0bH
	DB	00H
	DB	00H
	DB	00H
	DB	00H
	DB	00H
	DB	00H
	DB	00H
	DB	00H
	DB	00H
	DB	00H
	DB	00H
	DB	026H
	DB	0cH
	DB	0cH
	DB	03H
	DB	00H
	DB	00H
	DB	04H
	DB	03H
	DB	03H
	DB	04aH
	DB	03H
	DB	03H
	DB	03H
	DB	04aH
	DB	03H
	DB	03H
	DB	03H
	DB	04aH
	DB	03H
	DB	03H
	DB	03H
	DB	04aH
	DB	03H
	DB	03H
	DB	03H
	DB	04aH
	DB	03H
	DB	03H
	DB	03H
	DB	04aH
	DB	03H
	DB	03H
	DB	03H
	DB	04aH
	DB	03H
	DB	03H
	DB	03H
	DB	04aH
	DB	03H
	DB	03H
	DB	03H
	DB	04aH
	DB	03H
	DB	03H
	DB	03H
	DB	04aH
	DB	04aH
	DB	03H
	DB	03H
	DB	04aH
	DB	04aH
	DB	03H
	DB	03H
	DB	04aH
	DB	04aH
	DB	03H
	DB	03H
	DB	04aH
	DB	04aH
	DB	03H
	DB	03H
	DB	04aH
	DB	04aH
	DB	03H
	DB	03H
	DB	04aH
	DB	04aH
	DB	03H
	DB	03H
	DB	04aH
	DB	04aH
	DB	03H
	DB	03H
	DB	03H
	DB	04aH
	DB	03H
	DB	03H
	DB	03H
	DB	04aH
	DB	03H
	DB	03H
	DB	03H
	DB	04aH
	DB	03H
	DB	03H
	DB	03H
	DB	04aH
	DB	03H
	DB	03H
	DB	03H
	DB	04aH
	DB	03H
	DB	03H
	DB	03H
	DB	04aH
	DB	03H
	DB	03H
	DB	03H
	DB	04aH
	DB	03H
	DB	03H
	DB	03H
	DB	04aH
	DB	03H
	DB	03H
	DB	03H
	DB	04aH
	DB	03H
	DB	03H
	DB	03H
	DB	04aH
	DB	03H
	DB	03H
	DB	03H
	DB	04aH
	DB	03H
	DB	03H
	DB	03H
	DB	04aH
	DB	03H
	DB	03H
	DB	03H
	DB	04aH
	DB	03H
	DB	03H
	DB	03H
	DB	04aH
	DB	03H
	DB	03H
	DB	03H
	DB	04aH
	DB	03H
	DB	03H
	DB	03H
	DB	03H
	DB	09H
	DB	00H
	DB	03H
	DB	0cH
	DB	0cH
	DB	026H
	DB	00H
	DB	00H
	DB	00H
	DB	00H
	DB	00H
	DB	00H
	DB	00H
	DB	00H
	DB	00H
	DB	00H
	DB	00H
	DB	09H
	DB	0bfH
	DB	0eH
	DB	06dH
	DB	012H
	DB	0a8H
	DB	0a8H
	DB	0a8H
	DB	0a8H
	DB	0fH
	DB	0fH
	DB	0fH
	DB	0fH
	DB	0fH
	DB	014H
	DB	07H
	DB	07H
	DB	07H
	DB	01aH
	DB	03bH
	DB	033H
	DB	028H
	DB	010H
	DB	00H
	DB	0dH
	DB	019H
	DB	013H
	DB	027H
	DB	024H
	DB	061H
	DB	0e0H
	DB	04dH
	DB	028H
	DB	024H
	DB	00H
	DB	00H
	DB	032H
	DB	032H
	DB	00H
	DB	00H
	DB	00H
	DB	00H
	DB	00H
	DB	00H
	DB	00H
	DB	00H
	DB	00H
	DB	00H
	DB	08aH
	DB	07H
	DB	07H
	DB	07H
	DB	0beH
	DB	077H
	DB	077H
	DB	077H
	DB	015H
	DB	017H
	DB	0aH
	DB	0d9H
	DB	0d9H
	DB	0d9H
	DB	0c2H
	DB	0eH
	DB	0eH
	DB	03H
	DB	00H
	DB	00H
	DB	00H
	DB	00H
	DB	00H
	DB	00H
	DB	00H
	DB	00H
	DB	00H
	DB	00H
	DB	00H
	DB	021H
	DB	0cH
	DB	0cH
	DB	05H
	DB	00H
	DB	00H
	DB	08H
	DB	03H
	DB	06H
	DB	03H
	DB	022H
	DB	03H
	DB	06H
	DB	04aH
	DB	022H
	DB	03H
	DB	06H
	DB	021H
	DB	022H
	DB	03H
	DB	06H
	DB	021H
	DB	022H
	DB	03H
	DB	06H
	DB	021H
	DB	022H
	DB	03H
	DB	06H
	DB	05H
	DB	022H
	DB	04H
	DB	06H
	DB	05H
	DB	022H
	DB	04H
	DB	06H
	DB	05H
	DB	022H
	DB	04H
	DB	06H
	DB	05H
	DB	022H
	DB	04H
	DB	06H
	DB	05H
	DB	022H
	DB	04H
	DB	06H
	DB	05H
	DB	022H
	DB	04H
	DB	06H
	DB	06H
	DB	022H
	DB	04H
	DB	06H
	DB	06H
	DB	022H
	DB	022H
	DB	06H
	DB	06H
	DB	04H
	DB	022H
	DB	06H
	DB	06H
	DB	04H
	DB	022H
	DB	05H
	DB	06H
	DB	04H
	DB	022H
	DB	05H
	DB	06H
	DB	04H
	DB	022H
	DB	05H
	DB	06H
	DB	04H
	DB	022H
	DB	05H
	DB	06H
	DB	04H
	DB	022H
	DB	05H
	DB	06H
	DB	03H
	DB	022H
	DB	021H
	DB	06H
	DB	03H
	DB	022H
	DB	021H
	DB	06H
	DB	03H
	DB	022H
	DB	021H
	DB	06H
	DB	03H
	DB	022H
	DB	021H
	DB	06H
	DB	03H
	DB	022H
	DB	04aH
	DB	06H
	DB	03H
	DB	022H
	DB	03H
	DB	06H
	DB	03H
	DB	022H
	DB	03H
	DB	06H
	DB	04aH
	DB	022H
	DB	03H
	DB	06H
	DB	021H
	DB	022H
	DB	03H
	DB	06H
	DB	021H
	DB	022H
	DB	03H
	DB	06H
	DB	021H
	DB	022H
	DB	03H
	DB	06H
	DB	05H
	DB	022H
	DB	04H
	DB	06H
	DB	05H
	DB	022H
	DB	04H
	DB	00H
	DB	00H
	DB	05H
	DB	0cH
	DB	0cH
	DB	06H
	DB	00H
	DB	00H
	DB	00H
	DB	00H
	DB	00H
	DB	00H
	DB	00H
	DB	00H
	DB	00H
	DB	00H
	DB	00H
	DB	04H
	DB	0eH
	DB	0eH
	DB	07cH
	DB	0a8H
	DB	0a8H
	DB	0a8H
	DB	0a8H
	DB	0fH
	DB	0fH
	DB	0fH
	DB	0fH
	DB	0fH
	DB	0daH
	DB	07H
	DB	07H
	DB	07H
	DB	02eH
	DB	00H
	DB	027H
	DB	024H
	DB	01aH
	DB	010H
	DB	040H
	DB	027H
	DB	027H
	DB	01aH
	DB	01eH
	DB	0e0H
	DB	061H
	DB	027H
	DB	07eH
	DB	024H
	DB	00H
	DB	00H
	DB	032H
	DB	00H
	DB	00H
	DB	00H
	DB	00H
	DB	00H
	DB	00H
	DB	00H
	DB	00H
	DB	00H
	DB	00H
	DB	050H
	DB	07H
	DB	07H
	DB	07H
	DB	023H
	DB	077H
	DB	077H
	DB	077H
	DB	015H
	DB	07bH
	DB	0aH
	DB	0d9H
	DB	0d9H
	DB	051H
	DB	06aH
	DB	0c0H
	DB	0eH
	DB	026H
	DB	00H
	DB	00H
	DB	00H
	DB	00H
	DB	00H
	DB	00H
	DB	00H
	DB	00H
	DB	00H
	DB	00H
	DB	00H
	DB	04H
	DB	0cH
	DB	0cH
	DB	026H
	DB	00H
	DB	00H
	DB	022H
	DB	03H
	DB	03H
	DB	04aH
	DB	03H
	DB	03H
	DB	03H
	DB	04aH
	DB	03H
	DB	03H
	DB	03H
	DB	04aH
	DB	03H
	DB	03H
	DB	03H
	DB	04aH
	DB	03H
	DB	03H
	DB	03H
	DB	04aH
	DB	03H
	DB	03H
	DB	03H
	DB	04aH
	DB	03H
	DB	03H
	DB	03H
	DB	04aH
	DB	03H
	DB	03H
	DB	03H
	DB	04aH
	DB	03H
	DB	03H
	DB	03H
	DB	04aH
	DB	03H
	DB	03H
	DB	03H
	DB	04aH
	DB	04aH
	DB	03H
	DB	03H
	DB	04aH
	DB	04aH
	DB	03H
	DB	03H
	DB	04aH
	DB	04aH
	DB	03H
	DB	03H
	DB	04aH
	DB	04aH
	DB	03H
	DB	03H
	DB	04aH
	DB	04aH
	DB	03H
	DB	03H
	DB	04aH
	DB	04aH
	DB	03H
	DB	03H
	DB	04aH
	DB	04aH
	DB	03H
	DB	03H
	DB	04aH
	DB	04aH
	DB	03H
	DB	03H
	DB	03H
	DB	04aH
	DB	03H
	DB	03H
	DB	03H
	DB	04aH
	DB	03H
	DB	03H
	DB	03H
	DB	04aH
	DB	03H
	DB	03H
	DB	03H
	DB	04aH
	DB	03H
	DB	03H
	DB	03H
	DB	04aH
	DB	03H
	DB	03H
	DB	03H
	DB	04aH
	DB	03H
	DB	03H
	DB	03H
	DB	04aH
	DB	03H
	DB	03H
	DB	03H
	DB	04aH
	DB	03H
	DB	03H
	DB	03H
	DB	04aH
	DB	03H
	DB	03H
	DB	03H
	DB	04aH
	DB	03H
	DB	03H
	DB	03H
	DB	04aH
	DB	03H
	DB	03H
	DB	03H
	DB	04aH
	DB	03H
	DB	03H
	DB	03H
	DB	04aH
	DB	03H
	DB	03H
	DB	03H
	DB	04aH
	DB	03H
	DB	03H
	DB	03H
	DB	04aH
	DB	03H
	DB	03H
	DB	03H
	DB	04H
	DB	00H
	DB	00H
	DB	026H
	DB	0cH
	DB	0cH
	DB	04aH
	DB	00H
	DB	00H
	DB	00H
	DB	00H
	DB	00H
	DB	00H
	DB	00H
	DB	00H
	DB	00H
	DB	00H
	DB	00H
	DB	026H
	DB	0eH
	DB	04eH
	DB	083H
	DB	0a8H
	DB	0a8H
	DB	0a8H
	DB	0a8H
	DB	0fH
	DB	0fH
	DB	0fH
	DB	0fH
	DB	0fH
	DB	017H
	DB	07H
	DB	07H
	DB	07H
	DB	030H
	DB	04fH
	DB	024H
	DB	040H
	DB	027H
	DB	01eH
	DB	041H
	DB	072H
	DB	088H
	DB	061H
	DB	01eH
	DB	092H
	DB	03cH
	DB	02bH
	DB	04cH
	DB	00H
	DB	00H
	DB	00H
	DB	00H
	DB	00H
	DB	00H
	DB	00H
	DB	00H
	DB	00H
	DB	00H
	DB	00H
	DB	09H
	DB	09H
	DB	025H
	DB	07H
	DB	07H
	DB	07H
	DB	014H
	DB	077H
	DB	077H
	DB	077H
	DB	015H
	DB	086H
	DB	0d9H
	DB	051H
	DB	051H
	DB	05dH
	DB	069H
	DB	0eH
	DB	0eH
	DB	0bH
	DB	00H
	DB	00H
	DB	00H
	DB	00H
	DB	00H
	DB	00H
	DB	00H
	DB	00H
	DB	00H
	DB	00H
	DB	09H
	DB	02cH
	DB	0cH
	DB	02cH
	DB	0bH
	DB	00H
	DB	0bH
	DB	04aH
	DB	06H
	DB	03H
	DB	022H
	DB	03H
	DB	06H
	DB	04aH
	DB	022H
	DB	03H
	DB	06H
	DB	021H
	DB	022H
	DB	03H
	DB	06H
	DB	021H
	DB	022H
	DB	03H
	DB	06H
	DB	021H
	DB	022H
	DB	03H
	DB	06H
	DB	021H
	DB	022H
	DB	03H
	DB	06H
	DB	05H
	DB	022H
	DB	04H
	DB	06H
	DB	05H
	DB	022H
	DB	04H
	DB	06H
	DB	05H
	DB	022H
	DB	04H
	DB	06H
	DB	05H
	DB	022H
	DB	04H
	DB	06H
	DB	05H
	DB	022H
	DB	04H
	DB	06H
	DB	06H
	DB	022H
	DB	04H
	DB	06H
	DB	06H
	DB	022H
	DB	04H
	DB	06H
	DB	06H
	DB	04H
	DB	022H
	DB	06H
	DB	06H
	DB	04H
	DB	022H
	DB	06H
	DB	06H
	DB	04H
	DB	022H
	DB	05H
	DB	06H
	DB	04H
	DB	022H
	DB	05H
	DB	06H
	DB	04H
	DB	022H
	DB	05H
	DB	06H
	DB	04H
	DB	022H
	DB	05H
	DB	06H
	DB	03H
	DB	022H
	DB	05H
	DB	06H
	DB	03H
	DB	022H
	DB	021H
	DB	06H
	DB	03H
	DB	022H
	DB	021H
	DB	06H
	DB	03H
	DB	022H
	DB	021H
	DB	06H
	DB	03H
	DB	022H
	DB	04aH
	DB	06H
	DB	03H
	DB	022H
	DB	04aH
	DB	06H
	DB	03H
	DB	022H
	DB	03H
	DB	06H
	DB	04aH
	DB	022H
	DB	03H
	DB	06H
	DB	021H
	DB	022H
	DB	03H
	DB	06H
	DB	021H
	DB	022H
	DB	03H
	DB	06H
	DB	021H
	DB	022H
	DB	03H
	DB	06H
	DB	021H
	DB	022H
	DB	03H
	DB	06H
	DB	05H
	DB	022H
	DB	04H
	DB	06H
	DB	05H
	DB	022H
	DB	0bH
	DB	00H
	DB	0bH
	DB	02cH
	DB	0cH
	DB	0cH
	DB	08H
	DB	00H
	DB	00H
	DB	00H
	DB	00H
	DB	00H
	DB	00H
	DB	00H
	DB	00H
	DB	00H
	DB	00H
	DB	09H
	DB	0eH
	DB	0eH
	DB	078H
	DB	071H
	DB	0a8H
	DB	0a8H
	DB	0a8H
	DB	0fH
	DB	0fH
	DB	0fH
	DB	0fH
	DB	0fH
	DB	0b5H
	DB	046H
	DB	07H
	DB	07H
	DB	025H
	DB	02aH
	DB	019H
	DB	00H
	DB	032H
	DB	01eH
	DB	088H
	DB	0edH
	DB	095H
	DB	030H
	DB	034H
	DB	0e0H
	DB	072H
	DB	044H
	DB	0dH
	DB	00H
	DB	00H
	DB	00H
	DB	00H
	DB	00H
	DB	00H
	DB	00H
	DB	00H
	DB	00H
	DB	00H
	DB	00H
	DB	09H
	DB	024H
	DB	07H
	DB	07H
	DB	07H
	DB	023H
	DB	077H
	DB	077H
	DB	077H
	DB	015H
	DB	017H
	DB	0aH
	DB	051H
	DB	051H
	DB	051H
	DB	070H
	DB	08eH
	DB	0eH
	DB	021H
	DB	00H
	DB	00H
	DB	00H
	DB	00H
	DB	00H
	DB	00H
	DB	00H
	DB	00H
	DB	00H
	DB	00H
	DB	00H
	DB	026H
	DB	0cH
	DB	0cH
	DB	04H
	DB	00H
	DB	09H
	DB	04H
	DB	03H
	DB	04aH
	DB	03H
	DB	04H
	DB	03H
	DB	04aH
	DB	03H
	DB	04H
	DB	03H
	DB	04aH
	DB	03H
	DB	04H
	DB	03H
	DB	04aH
	DB	03H
	DB	04H
	DB	03H
	DB	04aH
	DB	03H
	DB	04H
	DB	03H
	DB	04aH
	DB	03H
	DB	04H
	DB	03H
	DB	04aH
	DB	03H
	DB	04H
	DB	03H
	DB	04aH
	DB	03H
	DB	04H
	DB	03H
	DB	04aH
	DB	03H
	DB	04H
	DB	03H
	DB	04aH
	DB	04aH
	DB	04H
	DB	03H
	DB	04aH
	DB	04aH
	DB	04H
	DB	03H
	DB	04aH
	DB	04aH
	DB	04H
	DB	04H
	DB	04aH
	DB	04aH
	DB	04H
	DB	04H
	DB	04aH
	DB	04aH
	DB	04H
	DB	04H
	DB	04aH
	DB	04aH
	DB	04H
	DB	04H
	DB	04aH
	DB	04aH
	DB	03H
	DB	04H
	DB	04aH
	DB	04aH
	DB	03H
	DB	04H
	DB	04aH
	DB	04aH
	DB	03H
	DB	04H
	DB	03H
	DB	04aH
	DB	03H
	DB	04H
	DB	03H
	DB	04aH
	DB	03H
	DB	04H
	DB	03H
	DB	04aH
	DB	03H
	DB	04H
	DB	03H
	DB	04aH
	DB	03H
	DB	04H
	DB	03H
	DB	04aH
	DB	03H
	DB	04H
	DB	03H
	DB	04aH
	DB	03H
	DB	04H
	DB	03H
	DB	04aH
	DB	03H
	DB	04H
	DB	03H
	DB	04aH
	DB	03H
	DB	04H
	DB	03H
	DB	04aH
	DB	03H
	DB	04H
	DB	03H
	DB	04aH
	DB	03H
	DB	04H
	DB	03H
	DB	04aH
	DB	03H
	DB	04H
	DB	03H
	DB	04aH
	DB	03H
	DB	04H
	DB	03H
	DB	04aH
	DB	03H
	DB	04H
	DB	03H
	DB	04aH
	DB	03H
	DB	04H
	DB	03H
	DB	04aH
	DB	03H
	DB	04H
	DB	03H
	DB	0bH
	DB	00H
	DB	04H
	DB	0cH
	DB	0cH
	DB	026H
	DB	09H
	DB	00H
	DB	00H
	DB	00H
	DB	00H
	DB	00H
	DB	00H
	DB	00H
	DB	00H
	DB	00H
	DB	00H
	DB	03H
	DB	0eH
	DB	0f4H
	DB	090H
	DB	0a8H
	DB	0a8H
	DB	0a8H
	DB	0fH
	DB	0fH
	DB	0fH
	DB	0fH
	DB	0fH
	DB	0fH
	DB	0aH
	DB	07H
	DB	07H
	DB	07H
	DB	05fH
	DB	019H
	DB	037H
	DB	019H
	DB	01eH
	DB	053H
	DB	053H
	DB	053H
	DB	030H
	DB	042H
	DB	03cH
	DB	02dH
	DB	01aH
	DB	037H
	DB	00H
	DB	00H
	DB	00H
	DB	00H
	DB	00H
	DB	00H
	DB	00H
	DB	00H
	DB	00H
	DB	00H
	DB	00H
	DB	09H
	DB	025H
	DB	07H
	DB	07H
	DB	07H
	DB	014H
	DB	077H
	DB	077H
	DB	077H
	DB	0c5H
	DB	086H
	DB	0d9H
	DB	051H
	DB	051H
	DB	05dH
	DB	085H
	DB	0eH
	DB	031H
	DB	00H
	DB	00H
	DB	00H
	DB	00H
	DB	00H
	DB	00H
	DB	00H
	DB	00H
	DB	00H
	DB	00H
	DB	00H
	DB	021H
	DB	0cH
	DB	0cH
	DB	021H
	DB	00H
	DB	00H
	DB	03H
	DB	06H
	DB	03H
	DB	04H
	DB	04aH
	DB	06H
	DB	04aH
	DB	04H
	DB	03H
	DB	06H
	DB	04aH
	DB	04H
	DB	03H
	DB	06H
	DB	021H
	DB	04H
	DB	03H
	DB	06H
	DB	021H
	DB	04H
	DB	03H
	DB	06H
	DB	021H
	DB	04H
	DB	03H
	DB	06H
	DB	05H
	DB	04H
	DB	03H
	DB	06H
	DB	05H
	DB	04H
	DB	04H
	DB	06H
	DB	05H
	DB	04H
	DB	04H
	DB	06H
	DB	05H
	DB	04H
	DB	04H
	DB	06H
	DB	05H
	DB	04H
	DB	04H
	DB	06H
	DB	06H
	DB	04H
	DB	04H
	DB	06H
	DB	06H
	DB	04H
	DB	04H
	DB	06H
	DB	06H
	DB	04H
	DB	04H
	DB	06H
	DB	06H
	DB	04H
	DB	04H
	DB	06H
	DB	06H
	DB	04H
	DB	04H
	DB	05H
	DB	06H
	DB	04H
	DB	04H
	DB	05H
	DB	06H
	DB	04H
	DB	04H
	DB	05H
	DB	06H
	DB	04H
	DB	04H
	DB	05H
	DB	06H
	DB	04H
	DB	04H
	DB	05H
	DB	06H
	DB	03H
	DB	04H
	DB	05H
	DB	06H
	DB	03H
	DB	04H
	DB	021H
	DB	06H
	DB	03H
	DB	04H
	DB	021H
	DB	06H
	DB	03H
	DB	04H
	DB	021H
	DB	06H
	DB	03H
	DB	04H
	DB	04aH
	DB	06H
	DB	03H
	DB	04H
	DB	04aH
	DB	06H
	DB	04aH
	DB	04H
	DB	03H
	DB	06H
	DB	04aH
	DB	04H
	DB	03H
	DB	06H
	DB	021H
	DB	04H
	DB	03H
	DB	06H
	DB	021H
	DB	04H
	DB	03H
	DB	06H
	DB	021H
	DB	04H
	DB	03H
	DB	06H
	DB	05H
	DB	04H
	DB	03H
	DB	06H
	DB	05H
	DB	04H
	DB	04H
	DB	06H
	DB	05H
	DB	022H
	DB	09H
	DB	00H
	DB	03H
	DB	0cH
	DB	0cH
	DB	05H
	DB	00H
	DB	00H
	DB	00H
	DB	00H
	DB	00H
	DB	00H
	DB	00H
	DB	00H
	DB	00H
	DB	00H
	DB	00H
	DB	02cH
	DB	0eH
	DB	0afH
	DB	0fdH
	DB	0a8H
	DB	0a8H
	DB	0a8H
	DB	0fH
	DB	0fH
	DB	0fH
	DB	0fH
	DB	0fH
	DB	012H
	DB	046H
	DB	07H
	DB	07H
	DB	025H
	DB	01dH
	DB	030H
	DB	061H
	DB	01eH
	DB	04dH
	DB	02bH
	DB	030H
	DB	028H
	DB	030H
	DB	03cH
	DB	034H
	DB	037H
	DB	0caH
	DB	00H
	DB	00H
	DB	00H
	DB	00H
	DB	00H
	DB	00H
	DB	00H
	DB	00H
	DB	00H
	DB	00H
	DB	00H
	DB	024H
	DB	07H
	DB	07H
	DB	07H
	DB	023H
	DB	077H
	DB	077H
	DB	077H
	DB	077H
	DB	017H
	DB	0aH
	DB	051H
	DB	051H
	DB	051H
	DB	079H
	DB	0eH
	DB	0eH
	DB	04H
	DB	00H
	DB	00H
	DB	00H
	DB	00H
	DB	00H
	DB	00H
	DB	00H
	DB	00H
	DB	00H
	DB	00H
	DB	022H
	DB	0cH
	DB	0cH
	DB	026H
	DB	00H
	DB	00H
	DB	022H
	DB	03H
	DB	021H
	DB	03H
	DB	04H
	DB	03H
	DB	021H
	DB	03H
	DB	04H
	DB	03H
	DB	021H
	DB	03H
	DB	04H
	DB	03H
	DB	021H
	DB	03H
	DB	04H
	DB	03H
	DB	021H
	DB	03H
	DB	04H
	DB	03H
	DB	021H
	DB	03H
	DB	04H
	DB	03H
	DB	021H
	DB	03H
	DB	04H
	DB	03H
	DB	021H
	DB	03H
	DB	04H
	DB	03H
	DB	021H
	DB	03H
	DB	04H
	DB	03H
	DB	021H
	DB	04aH
	DB	04H
	DB	04H
	DB	021H
	DB	04aH
	DB	04H
	DB	04H
	DB	021H
	DB	04aH
	DB	04H
	DB	04H
	DB	021H
	DB	04aH
	DB	04H
	DB	04H
	DB	021H
	DB	04aH
	DB	04H
	DB	04H
	DB	04aH
	DB	021H
	DB	04H
	DB	04H
	DB	04aH
	DB	021H
	DB	04H
	DB	04H
	DB	04aH
	DB	021H
	DB	04H
	DB	04H
	DB	04aH
	DB	021H
	DB	03H
	DB	04H
	DB	03H
	DB	021H
	DB	03H
	DB	04H
	DB	03H
	DB	021H
	DB	03H
	DB	04H
	DB	03H
	DB	021H
	DB	03H
	DB	04H
	DB	03H
	DB	021H
	DB	03H
	DB	04H
	DB	03H
	DB	021H
	DB	03H
	DB	04H
	DB	03H
	DB	021H
	DB	03H
	DB	04H
	DB	03H
	DB	021H
	DB	03H
	DB	04H
	DB	03H
	DB	021H
	DB	03H
	DB	04H
	DB	03H
	DB	021H
	DB	03H
	DB	04H
	DB	03H
	DB	021H
	DB	03H
	DB	04H
	DB	03H
	DB	021H
	DB	03H
	DB	04H
	DB	03H
	DB	021H
	DB	03H
	DB	04H
	DB	03H
	DB	021H
	DB	03H
	DB	04H
	DB	03H
	DB	021H
	DB	03H
	DB	04H
	DB	03H
	DB	021H
	DB	03H
	DB	04H
	DB	03H
	DB	021H
	DB	03H
	DB	04H
	DB	04H
	DB	00H
	DB	00H
	DB	026H
	DB	0cH
	DB	0cH
	DB	04H
	DB	00H
	DB	00H
	DB	00H
	DB	00H
	DB	00H
	DB	00H
	DB	00H
	DB	00H
	DB	00H
	DB	00H
	DB	022H
	DB	0eH
	DB	0eH
	DB	09bH
	DB	0a8H
	DB	0fH
	DB	0fH
	DB	0fH
	DB	0fH
	DB	0fH
	DB	0fH
	DB	0fH
	DB	0fH
	DB	0aH
	DB	07H
	DB	07H
	DB	07H
	DB	02bH
	DB	01aH
	DB	01eH
	DB	061H
	DB	02bH
	DB	057H
	DB	041H
	DB	049H
	DB	061H
	DB	030H
	DB	028H
	DB	0b6H
	DB	0e2H
	DB	00H
	DB	00H
	DB	00H
	DB	00H
	DB	00H
	DB	00H
	DB	00H
	DB	00H
	DB	00H
	DB	00H
	DB	00H
	DB	025H
	DB	07H
	DB	07H
	DB	07H
	DB	014H
	DB	077H
	DB	077H
	DB	077H
	DB	0c5H
	DB	0aH
	DB	051H
	DB	051H
	DB	051H
	DB	0d7H
	DB	052H
	DB	0eH
	DB	026H
	DB	00H
	DB	00H
	DB	00H
	DB	00H
	DB	00H
	DB	00H
	DB	00H
	DB	00H
	DB	00H
	DB	00H
	DB	00H
	DB	02cH
	DB	0cH
	DB	0cH
	DB	022H
	DB	00H
	DB	08H
	DB	06H
	DB	03H
	DB	04H
	DB	04aH
	DB	06H
	DB	04aH
	DB	04H
	DB	03H
	DB	06H
	DB	04aH
	DB	04H
	DB	03H
	DB	06H
	DB	021H
	DB	04H
	DB	03H
	DB	06H
	DB	021H
	DB	04H
	DB	03H
	DB	06H
	DB	021H
	DB	04H
	DB	03H
	DB	06H
	DB	05H
	DB	04H
	DB	03H
	DB	06H
	DB	05H
	DB	04H
	DB	03H
	DB	06H
	DB	05H
	DB	04H
	DB	04H
	DB	06H
	DB	05H
	DB	04H
	DB	04H
	DB	06H
	DB	05H
	DB	04H
	DB	04H
	DB	06H
	DB	06H
	DB	04H
	DB	04H
	DB	06H
	DB	06H
	DB	04H
	DB	04H
	DB	06H
	DB	06H
	DB	04H
	DB	04H
	DB	06H
	DB	06H
	DB	04H
	DB	04H
	DB	06H
	DB	06H
	DB	04H
	DB	04H
	DB	06H
	DB	06H
	DB	04H
	DB	04H
	DB	05H
	DB	06H
	DB	04H
	DB	04H
	DB	05H
	DB	06H
	DB	04H
	DB	04H
	DB	05H
	DB	06H
	DB	04H
	DB	04H
	DB	05H
	DB	06H
	DB	03H
	DB	04H
	DB	05H
	DB	06H
	DB	03H
	DB	04H
	DB	021H
	DB	06H
	DB	03H
	DB	04H
	DB	021H
	DB	06H
	DB	03H
	DB	04H
	DB	021H
	DB	06H
	DB	03H
	DB	04H
	DB	021H
	DB	06H
	DB	03H
	DB	04H
	DB	04aH
	DB	06H
	DB	04aH
	DB	04H
	DB	03H
	DB	06H
	DB	04aH
	DB	04H
	DB	03H
	DB	06H
	DB	021H
	DB	04H
	DB	03H
	DB	06H
	DB	021H
	DB	04H
	DB	03H
	DB	06H
	DB	021H
	DB	04H
	DB	03H
	DB	06H
	DB	05H
	DB	04H
	DB	03H
	DB	06H
	DB	05H
	DB	04H
	DB	03H
	DB	06H
	DB	05H
	DB	04H
	DB	04H
	DB	06H
	DB	05H
	DB	0bH
	DB	00H
	DB	08H
	DB	031H
	DB	0cH
	DB	02cH
	DB	09H
	DB	00H
	DB	00H
	DB	00H
	DB	00H
	DB	00H
	DB	00H
	DB	00H
	DB	00H
	DB	00H
	DB	00H
	DB	06H
	DB	0eH
	DB	0d2H
	DB	0fdH
	DB	0fH
	DB	0fH
	DB	0fH
	DB	0fH
	DB	0fH
	DB	0fH
	DB	0fH
	DB	0fH
	DB	0a8H
	DB	046H
	DB	07H
	DB	07H
	DB	025H
	DB	016H
	DB	01dH
	DB	061H
	DB	02dH
	DB	03cH
	DB	03cH
	DB	03cH
	DB	02dH
	DB	024H
	DB	030H
	DB	0e1H
	DB	05fH
	DB	00H
	DB	00H
	DB	00H
	DB	00H
	DB	00H
	DB	00H
	DB	00H
	DB	00H
	DB	00H
	DB	09H
	DB	01aH
	DB	07H
	DB	07H
	DB	07H
	DB	023H
	DB	067H
	DB	077H
	DB	067H
	DB	077H
	DB	017H
	DB	0d9H
	DB	051H
	DB	051H
	DB	051H
	DB	073H
	DB	0eH
	DB	0eH
	DB	0bH
	DB	00H
	DB	00H
	DB	00H
	DB	00H
	DB	00H
	DB	00H
	DB	00H
	DB	00H
	DB	00H
	DB	00H
	DB	04aH
	DB	0cH
	DB	0cH
	DB	03H
	DB	00H
	DB	09H
	DB	03H
	DB	021H
	DB	03H
	DB	04H
	DB	03H
	DB	021H
	DB	03H
	DB	04H
	DB	03H
	DB	021H
	DB	03H
	DB	04H
	DB	03H
	DB	021H
	DB	03H
	DB	04H
	DB	03H
	DB	021H
	DB	03H
	DB	04H
	DB	03H
	DB	021H
	DB	03H
	DB	04H
	DB	03H
	DB	021H
	DB	03H
	DB	04H
	DB	03H
	DB	021H
	DB	03H
	DB	04H
	DB	03H
	DB	021H
	DB	03H
	DB	04H
	DB	04H
	DB	021H
	DB	03H
	DB	04H
	DB	04H
	DB	021H
	DB	04aH
	DB	04H
	DB	04H
	DB	021H
	DB	04aH
	DB	04H
	DB	04H
	DB	021H
	DB	04aH
	DB	04H
	DB	04H
	DB	021H
	DB	021H
	DB	04H
	DB	04H
	DB	021H
	DB	021H
	DB	04H
	DB	04H
	DB	04aH
	DB	021H
	DB	04H
	DB	04H
	DB	04aH
	DB	021H
	DB	04H
	DB	04H
	DB	04aH
	DB	021H
	DB	04H
	DB	04H
	DB	04aH
	DB	021H
	DB	04H
	DB	04H
	DB	03H
	DB	021H
	DB	03H
	DB	04H
	DB	03H
	DB	021H
	DB	03H
	DB	04H
	DB	03H
	DB	021H
	DB	03H
	DB	04H
	DB	03H
	DB	021H
	DB	03H
	DB	04H
	DB	03H
	DB	021H
	DB	03H
	DB	04H
	DB	03H
	DB	021H
	DB	03H
	DB	04H
	DB	03H
	DB	021H
	DB	03H
	DB	04H
	DB	03H
	DB	021H
	DB	03H
	DB	04H
	DB	03H
	DB	021H
	DB	03H
	DB	04H
	DB	03H
	DB	021H
	DB	03H
	DB	04H
	DB	03H
	DB	021H
	DB	03H
	DB	04H
	DB	03H
	DB	021H
	DB	03H
	DB	04H
	DB	03H
	DB	021H
	DB	03H
	DB	04H
	DB	03H
	DB	021H
	DB	03H
	DB	04H
	DB	03H
	DB	021H
	DB	03H
	DB	04H
	DB	04H
	DB	021H
	DB	03H
	DB	04H
	DB	09H
	DB	00H
	DB	03H
	DB	0cH
	DB	0cH
	DB	05H
	DB	00H
	DB	00H
	DB	00H
	DB	00H
	DB	00H
	DB	00H
	DB	00H
	DB	00H
	DB	00H
	DB	00H
	DB	09H
	DB	0eH
	DB	0eH
	DB	0d6H
	DB	0a8H
	DB	0fH
	DB	0fH
	DB	0fH
	DB	0fH
	DB	0fH
	DB	0fH
	DB	0fH
	DB	0fH
	DB	0d9H
	DB	07H
	DB	07H
	DB	07H
	DB	024H
	DB	019H
	DB	04bH
	DB	01dH
	DB	01dH
	DB	04bH
	DB	0e0H
	DB	041H
	DB	030H
	DB	093H
	DB	03cH
	DB	02bH
	DB	00H
	DB	00H
	DB	00H
	DB	00H
	DB	00H
	DB	00H
	DB	00H
	DB	00H
	DB	00H
	DB	09H
	DB	02eH
	DB	07H
	DB	07H
	DB	07H
	DB	014H
	DB	077H
	DB	077H
	DB	067H
	DB	0c5H
	DB	0aH
	DB	051H
	DB	051H
	DB	051H
	DB	0d7H
	DB	08eH
	DB	0eH
	DB	06H
	DB	00H
	DB	00H
	DB	00H
	DB	00H
	DB	00H
	DB	00H
	DB	00H
	DB	00H
	DB	00H
	DB	00H
	DB	09H
	DB	031H
	DB	0cH
	DB	026H
	DB	00H
	DB	00H
	DB	021H
	DB	03H
	DB	04H
	DB	04aH
	DB	06H
	DB	03H
	DB	04H
	DB	04aH
	DB	06H
	DB	04aH
	DB	04H
	DB	03H
	DB	06H
	DB	021H
	DB	04H
	DB	03H
	DB	06H
	DB	021H
	DB	04H
	DB	03H
	DB	06H
	DB	021H
	DB	04H
	DB	03H
	DB	06H
	DB	05H
	DB	04H
	DB	03H
	DB	06H
	DB	05H
	DB	04H
	DB	03H
	DB	06H
	DB	05H
	DB	04H
	DB	03H
	DB	06H
	DB	05H
	DB	04H
	DB	04H
	DB	06H
	DB	05H
	DB	04H
	DB	04H
	DB	06H
	DB	05H
	DB	04H
	DB	04H
	DB	06H
	DB	06H
	DB	04H
	DB	04H
	DB	06H
	DB	06H
	DB	04H
	DB	04H
	DB	06H
	DB	06H
	DB	04H
	DB	04H
	DB	06H
	DB	06H
	DB	04H
	DB	04H
	DB	06H
	DB	06H
	DB	04H
	DB	04H
	DB	06H
	DB	06H
	DB	04H
	DB	04H
	DB	05H
	DB	06H
	DB	04H
	DB	04H
	DB	05H
	DB	06H
	DB	04H
	DB	04H
	DB	05H
	DB	06H
	DB	03H
	DB	04H
	DB	05H
	DB	06H
	DB	03H
	DB	04H
	DB	05H
	DB	06H
	DB	03H
	DB	04H
	DB	021H
	DB	06H
	DB	03H
	DB	04H
	DB	021H
	DB	06H
	DB	03H
	DB	04H
	DB	021H
	DB	06H
	DB	03H
	DB	04H
	DB	04aH
	DB	06H
	DB	03H
	DB	04H
	DB	04aH
	DB	06H
	DB	04aH
	DB	04H
	DB	03H
	DB	06H
	DB	021H
	DB	04H
	DB	03H
	DB	06H
	DB	021H
	DB	04H
	DB	03H
	DB	06H
	DB	021H
	DB	04H
	DB	03H
	DB	06H
	DB	05H
	DB	04H
	DB	03H
	DB	06H
	DB	05H
	DB	04H
	DB	03H
	DB	06H
	DB	05H
	DB	04H
	DB	03H
	DB	06H
	DB	05H
	DB	04H
	DB	04H
	DB	06H
	DB	021H
	DB	00H
	DB	00H
	DB	06H
	DB	0cH
	DB	0cH
	DB	022H
	DB	00H
	DB	00H
	DB	00H
	DB	00H
	DB	00H
	DB	00H
	DB	00H
	DB	00H
	DB	00H
	DB	00H
	DB	05H
	DB	0eH
	DB	054H
	DB	06bH
	DB	0fH
	DB	0fH
	DB	0fH
	DB	0fH
	DB	0fH
	DB	0fH
	DB	0fH
	DB	0fH
	DB	0a8H
	DB	046H
	DB	07H
	DB	07H
	DB	02eH
	DB	016H
	DB	01dH
	DB	040H
	DB	027H
	DB	034H
	DB	049H
	DB	049H
	DB	03cH
	DB	089H
	DB	03cH
	DB	05fH
	DB	00H
	DB	00H
	DB	00H
	DB	00H
	DB	00H
	DB	00H
	DB	00H
	DB	00H
	DB	00H
	DB	010H
	DB	07H
	DB	07H
	DB	07H
	DB	023H
	DB	067H
	DB	067H
	DB	067H
	DB	077H
	DB	017H
	DB	0d9H
	DB	051H
	DB	051H
	DB	051H
	DB	0f6H
	DB	0eH
	DB	0eH
	DB	09H
	DB	00H
	DB	00H
	DB	00H
	DB	00H
	DB	00H
	DB	00H
	DB	00H
	DB	00H
	DB	00H
	DB	00H
	DB	06H
	DB	0cH
	DB	0cH
	DB	022H
	DB	00H
	DB	08H
	DB	021H
	DB	03H
	DB	04H
	DB	03H
	DB	021H
	DB	03H
	DB	04H
	DB	03H
	DB	021H
	DB	03H
	DB	04H
	DB	03H
	DB	021H
	DB	03H
	DB	04H
	DB	03H
	DB	021H
	DB	03H
	DB	04H
	DB	03H
	DB	021H
	DB	03H
	DB	04H
	DB	03H
	DB	021H
	DB	03H
	DB	04H
	DB	03H
	DB	021H
	DB	03H
	DB	04H
	DB	03H
	DB	021H
	DB	03H
	DB	04H
	DB	04H
	DB	021H
	DB	03H
	DB	04H
	DB	04H
	DB	021H
	DB	04aH
	DB	04H
	DB	04H
	DB	021H
	DB	04aH
	DB	04H
	DB	04H
	DB	021H
	DB	04aH
	DB	04H
	DB	04H
	DB	021H
	DB	021H
	DB	04H
	DB	04H
	DB	021H
	DB	021H
	DB	04H
	DB	04H
	DB	021H
	DB	021H
	DB	04H
	DB	04H
	DB	04aH
	DB	021H
	DB	04H
	DB	04H
	DB	04aH
	DB	021H
	DB	04H
	DB	04H
	DB	04aH
	DB	021H
	DB	04H
	DB	04H
	DB	04aH
	DB	021H
	DB	04H
	DB	04H
	DB	03H
	DB	021H
	DB	04H
	DB	04H
	DB	03H
	DB	021H
	DB	03H
	DB	04H
	DB	03H
	DB	021H
	DB	03H
	DB	04H
	DB	03H
	DB	021H
	DB	03H
	DB	04H
	DB	03H
	DB	021H
	DB	03H
	DB	04H
	DB	03H
	DB	021H
	DB	03H
	DB	04H
	DB	03H
	DB	021H
	DB	03H
	DB	04H
	DB	03H
	DB	021H
	DB	03H
	DB	04H
	DB	03H
	DB	021H
	DB	03H
	DB	04H
	DB	03H
	DB	021H
	DB	03H
	DB	04H
	DB	03H
	DB	021H
	DB	03H
	DB	04H
	DB	03H
	DB	021H
	DB	03H
	DB	04H
	DB	03H
	DB	021H
	DB	03H
	DB	04H
	DB	03H
	DB	021H
	DB	03H
	DB	04H
	DB	04H
	DB	021H
	DB	03H
	DB	04H
	DB	04H
	DB	021H
	DB	04aH
	DB	0bH
	DB	00H
	DB	022H
	DB	0cH
	DB	0cH
	DB	026H
	DB	00H
	DB	00H
	DB	00H
	DB	00H
	DB	00H
	DB	00H
	DB	00H
	DB	00H
	DB	00H
	DB	00H
	DB	09H
	DB	0eH
	DB	0eH
	DB	063H
	DB	0fH
	DB	0fH
	DB	0fH
	DB	0fH
	DB	0fH
	DB	0fH
	DB	0fH
	DB	0fH
	DB	0fH
	DB	086H
	DB	07H
	DB	07H
	DB	07H
	DB	01eH
	DB	027H
	DB	028H
	DB	01aH
	DB	01aH
	DB	01eH
	DB	030H
	DB	041H
	DB	041H
	DB	01eH
	DB	0abH
	DB	00H
	DB	00H
	DB	09H
	DB	00H
	DB	00H
	DB	00H
	DB	00H
	DB	00H
	DB	00H
	DB	036H
	DB	07H
	DB	07H
	DB	07H
	DB	0beH
	DB	077H
	DB	077H
	DB	067H
	DB	015H
	DB	0aH
	DB	051H
	DB	051H
	DB	051H
	DB	0d7H
	DB	08eH
	DB	0eH
	DB	05H
	DB	00H
	DB	00H
	DB	00H
	DB	00H
	DB	00H
	DB	00H
	DB	00H
	DB	00H
	DB	00H
	DB	00H
	DB	04H
	DB	0cH
	DB	0cH
	DB	04aH
	DB	00H
	DB	09H
	DB	03H
	DB	04H
	DB	021H
	DB	06H
	DB	03H
	DB	04H
	DB	04aH
	DB	06H
	DB	04aH
	DB	04H
	DB	04aH
	DB	06H
	DB	021H
	DB	04H
	DB	03H
	DB	06H
	DB	021H
	DB	04H
	DB	03H
	DB	06H
	DB	021H
	DB	04H
	DB	03H
	DB	06H
	DB	021H
	DB	04H
	DB	03H
	DB	06H
	DB	05H
	DB	04H
	DB	03H
	DB	06H
	DB	05H
	DB	04H
	DB	03H
	DB	06H
	DB	05H
	DB	04H
	DB	04H
	DB	06H
	DB	05H
	DB	04H
	DB	04H
	DB	06H
	DB	05H
	DB	04H
	DB	04H
	DB	06H
	DB	06H
	DB	04H
	DB	04H
	DB	06H
	DB	06H
	DB	04H
	DB	04H
	DB	06H
	DB	06H
	DB	04H
	DB	04H
	DB	06H
	DB	06H
	DB	04H
	DB	04H
	DB	06H
	DB	06H
	DB	04H
	DB	04H
	DB	06H
	DB	06H
	DB	04H
	DB	04H
	DB	06H
	DB	06H
	DB	04H
	DB	04H
	DB	05H
	DB	06H
	DB	04H
	DB	04H
	DB	05H
	DB	06H
	DB	03H
	DB	04H
	DB	05H
	DB	06H
	DB	03H
	DB	04H
	DB	05H
	DB	06H
	DB	03H
	DB	04H
	DB	05H
	DB	06H
	DB	03H
	DB	04H
	DB	021H
	DB	06H
	DB	03H
	DB	04H
	DB	021H
	DB	06H
	DB	03H
	DB	04H
	DB	021H
	DB	06H
	DB	03H
	DB	04H
	DB	04aH
	DB	06H
	DB	04aH
	DB	04H
	DB	04aH
	DB	06H
	DB	021H
	DB	04H
	DB	03H
	DB	06H
	DB	021H
	DB	04H
	DB	03H
	DB	06H
	DB	021H
	DB	04H
	DB	03H
	DB	06H
	DB	021H
	DB	04H
	DB	03H
	DB	06H
	DB	05H
	DB	04H
	DB	03H
	DB	06H
	DB	05H
	DB	04H
	DB	03H
	DB	06H
	DB	05H
	DB	04H
	DB	04H
	DB	06H
	DB	05H
	DB	04H
	DB	04H
	DB	06H
	DB	09H
	DB	00H
	DB	04aH
	DB	0cH
	DB	0cH
	DB	03H
	DB	00H
	DB	00H
	DB	00H
	DB	00H
	DB	00H
	DB	00H
	DB	00H
	DB	00H
	DB	00H
	DB	00H
	DB	05H
	DB	0eH
	DB	0f4H
	DB	0fdH
	DB	0fH
	DB	0fH
	DB	0fH
	DB	0fH
	DB	0fH
	DB	0fH
	DB	0fH
	DB	0fH
	DB	0b5H
	DB	07H
	DB	07H
	DB	07H
	DB	08aH
	DB	010H
	DB	028H
	DB	024H
	DB	04dH
	DB	053H
	DB	041H
	DB	049H
	DB	034H
	DB	027H
	DB	0abH
	DB	00H
	DB	00H
	DB	00H
	DB	00H
	DB	00H
	DB	00H
	DB	00H
	DB	00H
	DB	039H
	DB	07H
	DB	07H
	DB	07H
	DB	023H
	DB	014H
	DB	077H
	DB	067H
	DB	077H
	DB	017H
	DB	0d9H
	DB	051H
	DB	051H
	DB	051H
	DB	0f6H
	DB	0eH
	DB	0eH
	DB	09H
	DB	00H
	DB	00H
	DB	00H
	DB	00H
	DB	00H
	DB	00H
	DB	00H
	DB	00H
	DB	00H
	DB	00H
	DB	02cH
	DB	0cH
	DB	02cH
	DB	09H
	DB	00H
	DB	03H
	DB	03H
	DB	04H
	DB	03H
	DB	021H
	DB	03H
	DB	04H
	DB	03H
	DB	021H
	DB	03H
	DB	04H
	DB	03H
	DB	021H
	DB	03H
	DB	04H
	DB	03H
	DB	021H
	DB	03H
	DB	04H
	DB	03H
	DB	021H
	DB	03H
	DB	04H
	DB	03H
	DB	021H
	DB	03H
	DB	04H
	DB	03H
	DB	021H
	DB	03H
	DB	04H
	DB	04H
	DB	021H
	DB	03H
	DB	04H
	DB	04H
	DB	021H
	DB	03H
	DB	04H
	DB	04H
	DB	021H
	DB	04aH
	DB	04H
	DB	04H
	DB	021H
	DB	04aH
	DB	04H
	DB	04H
	DB	021H
	DB	04aH
	DB	04H
	DB	04H
	DB	021H
	DB	021H
	DB	04H
	DB	04H
	DB	021H
	DB	021H
	DB	04H
	DB	04H
	DB	021H
	DB	021H
	DB	04H
	DB	04H
	DB	021H
	DB	021H
	DB	04H
	DB	04H
	DB	04aH
	DB	021H
	DB	04H
	DB	04H
	DB	04aH
	DB	021H
	DB	04H
	DB	04H
	DB	04aH
	DB	021H
	DB	04H
	DB	04H
	DB	03H
	DB	021H
	DB	04H
	DB	04H
	DB	03H
	DB	021H
	DB	04H
	DB	04H
	DB	03H
	DB	021H
	DB	03H
	DB	04H
	DB	03H
	DB	021H
	DB	03H
	DB	04H
	DB	03H
	DB	021H
	DB	03H
	DB	04H
	DB	03H
	DB	021H
	DB	03H
	DB	04H
	DB	03H
	DB	021H
	DB	03H
	DB	04H
	DB	03H
	DB	021H
	DB	03H
	DB	04H
	DB	03H
	DB	021H
	DB	03H
	DB	04H
	DB	03H
	DB	021H
	DB	03H
	DB	04H
	DB	03H
	DB	021H
	DB	03H
	DB	04H
	DB	03H
	DB	021H
	DB	03H
	DB	04H
	DB	03H
	DB	021H
	DB	03H
	DB	04H
	DB	04H
	DB	021H
	DB	03H
	DB	04H
	DB	04H
	DB	021H
	DB	03H
	DB	04H
	DB	04H
	DB	021H
	DB	04aH
	DB	04H
	DB	04H
	DB	021H
	DB	03H
	DB	00H
	DB	09H
	DB	02cH
	DB	0cH
	DB	031H
	DB	09H
	DB	00H
	DB	00H
	DB	00H
	DB	00H
	DB	00H
	DB	00H
	DB	00H
	DB	00H
	DB	00H
	DB	00H
	DB	0bfH
	DB	0eH
	DB	0c4H
	DB	0fH
	DB	0fH
	DB	0fH
	DB	0fH
	DB	0fH
	DB	0fH
	DB	0fH
	DB	0fH
	DB	0fH
	DB	0c5H
	DB	07H
	DB	07H
	DB	07H
	DB	040H
	DB	027H
	DB	030H
	DB	03cH
	DB	041H
	DB	02dH
	DB	01eH
	DB	04fH
	DB	028H
	DB	024H
	DB	00H
	DB	00H
	DB	00H
	DB	00H
	DB	00H
	DB	00H
	DB	00H
	DB	00H
	DB	060H
	DB	07H
	DB	07H
	DB	07H
	DB	0beH
	DB	067H
	DB	077H
	DB	067H
	DB	015H
	DB	086H
	DB	051H
	DB	051H
	DB	051H
	DB	05dH
	DB	08eH
	DB	0eH
	DB	05H
	DB	00H
	DB	00H
	DB	00H
	DB	00H
	DB	00H
	DB	00H
	DB	00H
	DB	00H
	DB	00H
	DB	00H
	DB	04aH
	DB	0cH
	DB	0cH
	DB	03H
	DB	00H
	DB	0bH
	DB	04H
	DB	021H
	DB	06H
	DB	03H
	DB	04H
	DB	021H
	DB	06H
	DB	04aH
	DB	04H
	DB	04aH
	DB	06H
	DB	04aH
	DB	04H
	DB	04aH
	DB	06H
	DB	021H
	DB	04H
	DB	03H
	DB	06H
	DB	021H
	DB	04H
	DB	03H
	DB	06H
	DB	021H
	DB	04H
	DB	03H
	DB	06H
	DB	05H
	DB	04H
	DB	03H
	DB	06H
	DB	05H
	DB	04H
	DB	03H
	DB	06H
	DB	05H
	DB	04H
	DB	03H
	DB	06H
	DB	05H
	DB	04H
	DB	04H
	DB	06H
	DB	05H
	DB	04H
	DB	04H
	DB	06H
	DB	06H
	DB	04H
	DB	04H
	DB	06H
	DB	06H
	DB	04H
	DB	04H
	DB	06H
	DB	06H
	DB	04H
	DB	04H
	DB	06H
	DB	06H
	DB	04H
	DB	04H
	DB	06H
	DB	06H
	DB	04H
	DB	04H
	DB	06H
	DB	06H
	DB	04H
	DB	04H
	DB	06H
	DB	06H
	DB	04H
	DB	04H
	DB	05H
	DB	06H
	DB	04H
	DB	04H
	DB	05H
	DB	06H
	DB	04H
	DB	04H
	DB	05H
	DB	06H
	DB	03H
	DB	04H
	DB	05H
	DB	06H
	DB	03H
	DB	04H
	DB	05H
	DB	06H
	DB	03H
	DB	04H
	DB	05H
	DB	06H
	DB	03H
	DB	04H
	DB	021H
	DB	06H
	DB	03H
	DB	04H
	DB	021H
	DB	06H
	DB	03H
	DB	04H
	DB	021H
	DB	06H
	DB	04aH
	DB	04H
	DB	04aH
	DB	06H
	DB	04aH
	DB	04H
	DB	04aH
	DB	06H
	DB	021H
	DB	04H
	DB	03H
	DB	06H
	DB	021H
	DB	04H
	DB	03H
	DB	06H
	DB	021H
	DB	04H
	DB	03H
	DB	06H
	DB	05H
	DB	04H
	DB	03H
	DB	06H
	DB	05H
	DB	04H
	DB	03H
	DB	06H
	DB	05H
	DB	04H
	DB	03H
	DB	06H
	DB	05H
	DB	04H
	DB	04H
	DB	06H
	DB	05H
	DB	04H
	DB	04H
	DB	022H
	DB	00H
	DB	04H
	DB	0cH
	DB	0cH
	DB	05H
	DB	00H
	DB	00H
	DB	00H
	DB	00H
	DB	00H
	DB	00H
	DB	00H
	DB	00H
	DB	00H
	DB	00H
	DB	021H
	DB	0eH
	DB	0f4H
	DB	071H
	DB	0fH
	DB	0fH
	DB	0fH
	DB	0fH
	DB	0fH
	DB	0fH
	DB	0fH
	DB	0fH
	DB	09eH
	DB	07H
	DB	07H
	DB	07H
	DB	048H
	DB	019H
	DB	042H
	DB	041H
	DB	041H
	DB	030H
	DB	028H
	DB	019H
	DB	01aH
	DB	01aH
	DB	00H
	DB	00H
	DB	00H
	DB	00H
	DB	00H
	DB	00H
	DB	00H
	DB	00H
	DB	025H
	DB	07H
	DB	07H
	DB	046H
	DB	014H
	DB	067H
	DB	067H
	DB	077H
	DB	017H
	DB	0d9H
	DB	051H
	DB	051H
	DB	011H
	DB	073H
	DB	0eH
	DB	0eH
	DB	09H
	DB	00H
	DB	00H
	DB	00H
	DB	00H
	DB	00H
	DB	00H
	DB	00H
	DB	00H
	DB	00H
	DB	09H
	DB	031H
	DB	0cH
	DB	026H
	DB	00H
	DB	00H
	DB	04H
	DB	04H
	DB	03H
	DB	021H
	DB	03H
	DB	04H
	DB	03H
	DB	021H
	DB	03H
	DB	04H
	DB	03H
	DB	021H
	DB	03H
	DB	04H
	DB	03H
	DB	021H
	DB	03H
	DB	04H
	DB	03H
	DB	021H
	DB	03H
	DB	04H
	DB	03H
	DB	021H
	DB	03H
	DB	04H
	DB	03H
	DB	021H
	DB	03H
	DB	04H
	DB	04H
	DB	021H
	DB	03H
	DB	04H
	DB	04H
	DB	021H
	DB	03H
	DB	04H
	DB	04H
	DB	021H
	DB	03H
	DB	04H
	DB	04H
	DB	021H
	DB	04aH
	DB	04H
	DB	04H
	DB	021H
	DB	04aH
	DB	04H
	DB	04H
	DB	021H
	DB	04aH
	DB	04H
	DB	04H
	DB	021H
	DB	021H
	DB	04H
	DB	04H
	DB	021H
	DB	021H
	DB	04H
	DB	04H
	DB	021H
	DB	021H
	DB	04H
	DB	04H
	DB	021H
	DB	021H
	DB	04H
	DB	04H
	DB	04aH
	DB	021H
	DB	04H
	DB	04H
	DB	04aH
	DB	021H
	DB	04H
	DB	04H
	DB	04aH
	DB	021H
	DB	04H
	DB	04H
	DB	03H
	DB	021H
	DB	04H
	DB	04H
	DB	03H
	DB	021H
	DB	04H
	DB	04H
	DB	03H
	DB	021H
	DB	04H
	DB	04H
	DB	03H
	DB	021H
	DB	03H
	DB	04H
	DB	03H
	DB	021H
	DB	03H
	DB	04H
	DB	03H
	DB	021H
	DB	03H
	DB	04H
	DB	03H
	DB	021H
	DB	03H
	DB	04H
	DB	03H
	DB	021H
	DB	03H
	DB	04H
	DB	03H
	DB	021H
	DB	03H
	DB	04H
	DB	03H
	DB	021H
	DB	03H
	DB	04H
	DB	03H
	DB	021H
	DB	03H
	DB	04H
	DB	03H
	DB	021H
	DB	03H
	DB	04H
	DB	04H
	DB	021H
	DB	03H
	DB	04H
	DB	04H
	DB	021H
	DB	03H
	DB	04H
	DB	04H
	DB	021H
	DB	03H
	DB	04H
	DB	04H
	DB	021H
	DB	04aH
	DB	04H
	DB	04H
	DB	03H
	DB	00H
	DB	00H
	DB	06H
	DB	0cH
	DB	0cH
	DB	09H
	DB	00H
	DB	00H
	DB	00H
	DB	00H
	DB	00H
	DB	00H
	DB	00H
	DB	00H
	DB	00H
	DB	09H
	DB	0eH
	DB	0eH
	DB	063H
	DB	0fH
	DB	0fH
	DB	0fH
	DB	0fH
	DB	0fH
	DB	0fH
	DB	0fH
	DB	0fH
	DB	0fH
	DB	014H
	DB	07H
	DB	07H
	DB	025H
	DB	03aH
	DB	04bH
	DB	02dH
	DB	03cH
	DB	030H
	DB	01dH
	DB	0dH
	DB	0dH
	DB	01fH
	DB	00H
	DB	00H
	DB	00H
	DB	09H
	DB	00H
	DB	00H
	DB	00H
	DB	01aH
	DB	07H
	DB	07H
	DB	07H
	DB	023H
	DB	014H
	DB	067H
	DB	014H
	DB	015H
	DB	086H
	DB	051H
	DB	011H
	DB	011H
	DB	051H
	DB	052H
	DB	0eH
	DB	06H
	DB	00H
	DB	00H
	DB	00H
	DB	00H
	DB	00H
	DB	00H
	DB	00H
	DB	00H
	DB	00H
	DB	00H
	DB	05H
	DB	0cH
	DB	0cH
	DB	04H
	DB	00H
	DB	0bH
	DB	021H
	DB	06H
	DB	03H
	DB	04H
	DB	021H
	DB	06H
	DB	04aH
	DB	04H
	DB	021H
	DB	06H
	DB	04aH
	DB	04H
	DB	04aH
	DB	06H
	DB	021H
	DB	04H
	DB	03H
	DB	06H
	DB	021H
	DB	04H
	DB	03H
	DB	06H
	DB	021H
	DB	04H
	DB	03H
	DB	06H
	DB	05H
	DB	04H
	DB	03H
	DB	06H
	DB	05H
	DB	04H
	DB	03H
	DB	06H
	DB	05H
	DB	04H
	DB	03H
	DB	06H
	DB	05H
	DB	04H
	DB	03H
	DB	06H
	DB	05H
	DB	04H
	DB	04H
	DB	06H
	DB	05H
	DB	04H
	DB	04H
	DB	06H
	DB	06H
	DB	04H
	DB	04H
	DB	06H
	DB	06H
	DB	04H
	DB	04H
	DB	06H
	DB	06H
	DB	04H
	DB	04H
	DB	06H
	DB	06H
	DB	04H
	DB	04H
	DB	06H
	DB	06H
	DB	04H
	DB	04H
	DB	06H
	DB	06H
	DB	04H
	DB	04H
	DB	06H
	DB	06H
	DB	04H
	DB	04H
	DB	05H
	DB	06H
	DB	04H
	DB	04H
	DB	05H
	DB	06H
	DB	03H
	DB	04H
	DB	05H
	DB	06H
	DB	03H
	DB	04H
	DB	05H
	DB	06H
	DB	03H
	DB	04H
	DB	05H
	DB	06H
	DB	03H
	DB	04H
	DB	021H
	DB	06H
	DB	03H
	DB	04H
	DB	021H
	DB	06H
	DB	03H
	DB	04H
	DB	021H
	DB	06H
	DB	04aH
	DB	04H
	DB	021H
	DB	06H
	DB	04aH
	DB	04H
	DB	04aH
	DB	06H
	DB	021H
	DB	04H
	DB	03H
	DB	06H
	DB	021H
	DB	04H
	DB	03H
	DB	06H
	DB	021H
	DB	04H
	DB	03H
	DB	06H
	DB	05H
	DB	04H
	DB	03H
	DB	06H
	DB	05H
	DB	04H
	DB	03H
	DB	06H
	DB	05H
	DB	04H
	DB	03H
	DB	06H
	DB	05H
	DB	04H
	DB	03H
	DB	06H
	DB	05H
	DB	04H
	DB	04H
	DB	06H
	DB	05H
	DB	04H
	DB	0bH
	DB	00H
	DB	04H
	DB	0cH
	DB	0cH
	DB	06H
	DB	00H
	DB	00H
	DB	00H
	DB	00H
	DB	00H
	DB	00H
	DB	00H
	DB	00H
	DB	00H
	DB	00H
	DB	06H
	DB	0eH
	DB	0d2H
	DB	071H
	DB	0fH
	DB	0fH
	DB	0fH
	DB	0fH
	DB	0fH
	DB	0fH
	DB	0fH
	DB	0fH
	DB	0f8H
	DB	07H
	DB	07H
	DB	07H
	DB	043H
	DB	010H
	DB	01aH
	DB	02dH
	DB	02dH
	DB	034H
	DB	019H
	DB	032H
	DB	00H
	DB	00H
	DB	00H
	DB	00H
	DB	09H
	DB	00H
	DB	00H
	DB	00H
	DB	03fH
	DB	07H
	DB	07H
	DB	07H
	DB	014H
	DB	067H
	DB	067H
	DB	014H
	DB	07bH
	DB	0aH
	DB	011H
	DB	011H
	DB	011H
	DB	07aH
	DB	0eH
	DB	0eH
	DB	0bH
	DB	00H
	DB	00H
	DB	00H
	DB	00H
	DB	00H
	DB	00H
	DB	00H
	DB	00H
	DB	00H
	DB	09H
	DB	031H
	DB	0cH
	DB	06H
	DB	00H
	DB	00H
	DB	04H
	DB	03H
	DB	021H
	DB	03H
	DB	04H
	DB	03H
	DB	021H
	DB	03H
	DB	04H
	DB	03H
	DB	021H
	DB	03H
	DB	04H
	DB	03H
	DB	021H
	DB	03H
	DB	04H
	DB	03H
	DB	021H
	DB	03H
	DB	04H
	DB	03H
	DB	021H
	DB	03H
	DB	04H
	DB	03H
	DB	021H
	DB	03H
	DB	04H
	DB	04H
	DB	021H
	DB	03H
	DB	04H
	DB	04H
	DB	021H
	DB	03H
	DB	04H
	DB	04H
	DB	021H
	DB	03H
	DB	04H
	DB	04H
	DB	021H
	DB	04aH
	DB	04H
	DB	04H
	DB	021H
	DB	04aH
	DB	04H
	DB	04H
	DB	021H
	DB	04aH
	DB	04H
	DB	04H
	DB	021H
	DB	021H
	DB	04H
	DB	04H
	DB	021H
	DB	021H
	DB	04H
	DB	04H
	DB	021H
	DB	021H
	DB	04H
	DB	04H
	DB	021H
	DB	021H
	DB	04H
	DB	04H
	DB	021H
	DB	021H
	DB	04H
	DB	04H
	DB	04aH
	DB	021H
	DB	04H
	DB	04H
	DB	04aH
	DB	021H
	DB	04H
	DB	04H
	DB	04aH
	DB	021H
	DB	04H
	DB	04H
	DB	03H
	DB	021H
	DB	04H
	DB	04H
	DB	03H
	DB	021H
	DB	04H
	DB	04H
	DB	03H
	DB	021H
	DB	04H
	DB	04H
	DB	03H
	DB	021H
	DB	03H
	DB	04H
	DB	03H
	DB	021H
	DB	03H
	DB	04H
	DB	03H
	DB	021H
	DB	03H
	DB	04H
	DB	03H
	DB	021H
	DB	03H
	DB	04H
	DB	03H
	DB	021H
	DB	03H
	DB	04H
	DB	03H
	DB	021H
	DB	03H
	DB	04H
	DB	03H
	DB	021H
	DB	03H
	DB	04H
	DB	03H
	DB	021H
	DB	03H
	DB	04H
	DB	04H
	DB	021H
	DB	03H
	DB	04H
	DB	04H
	DB	021H
	DB	03H
	DB	04H
	DB	04H
	DB	021H
	DB	03H
	DB	04H
	DB	04H
	DB	021H
	DB	04aH
	DB	04H
	DB	04H
	DB	021H
	DB	04aH
	DB	04H
	DB	04H
	DB	09H
	DB	00H
	DB	06H
	DB	0cH
	DB	0cH
	DB	0bH
	DB	00H
	DB	00H
	DB	00H
	DB	00H
	DB	00H
	DB	00H
	DB	00H
	DB	00H
	DB	00H
	DB	0bH
	DB	0eH
	DB	0eH
	DB	0f9H
	DB	0fH
	DB	0fH
	DB	0fH
	DB	0fH
	DB	0fH
	DB	0fH
	DB	0fH
	DB	0fH
	DB	0a8H
	DB	046H
	DB	07H
	DB	07H
	DB	08aH
	DB	019H
	DB	01eH
	DB	05fH
	DB	050H
	DB	01dH
	DB	04fH
	DB	03aH
	DB	032H
	DB	00H
	DB	00H
	DB	00H
	DB	00H
	DB	00H
	DB	00H
	DB	01fH
	DB	07H
	DB	07H
	DB	07H
	DB	023H
	DB	014H
	DB	067H
	DB	014H
	DB	077H
	DB	0d8H
	DB	051H
	DB	011H
	DB	011H
	DB	011H
	DB	05eH
	DB	0eH
	DB	026H
	DB	00H
	DB	00H
	DB	00H
	DB	00H
	DB	00H
	DB	00H
	DB	00H
	DB	00H
	DB	00H
	DB	00H
	DB	05H
	DB	0cH
	DB	0cH
	DB	04H
	DB	00H
	DB	04H
	DB	06H
	DB	03H
	DB	04H
	DB	021H
	DB	06H
	DB	03H
	DB	04H
	DB	021H
	DB	06H
	DB	04aH
	DB	04H
	DB	04aH
	DB	06H
	DB	021H
	DB	04H
	DB	04aH
	DB	06H
	DB	021H
	DB	04H
	DB	03H
	DB	06H
	DB	021H
	DB	04H
	DB	03H
	DB	06H
	DB	05H
	DB	04H
	DB	03H
	DB	06H
	DB	05H
	DB	04H
	DB	03H
	DB	06H
	DB	05H
	DB	04H
	DB	03H
	DB	06H
	DB	05H
	DB	04H
	DB	03H
	DB	06H
	DB	05H
	DB	04H
	DB	03H
	DB	06H
	DB	05H
	DB	04H
	DB	04H
	DB	06H
	DB	06H
	DB	04H
	DB	04H
	DB	06H
	DB	06H
	DB	04H
	DB	04H
	DB	06H
	DB	06H
	DB	04H
	DB	04H
	DB	06H
	DB	06H
	DB	04H
	DB	04H
	DB	06H
	DB	06H
	DB	04H
	DB	04H
	DB	06H
	DB	06H
	DB	04H
	DB	04H
	DB	06H
	DB	06H
	DB	04H
	DB	04H
	DB	06H
	DB	06H
	DB	04H
	DB	04H
	DB	05H
	DB	06H
	DB	03H
	DB	04H
	DB	05H
	DB	06H
	DB	03H
	DB	04H
	DB	05H
	DB	06H
	DB	03H
	DB	04H
	DB	05H
	DB	06H
	DB	03H
	DB	04H
	DB	05H
	DB	06H
	DB	03H
	DB	04H
	DB	021H
	DB	06H
	DB	03H
	DB	04H
	DB	021H
	DB	06H
	DB	03H
	DB	04H
	DB	021H
	DB	06H
	DB	04aH
	DB	04H
	DB	04aH
	DB	06H
	DB	021H
	DB	04H
	DB	04aH
	DB	06H
	DB	021H
	DB	04H
	DB	03H
	DB	06H
	DB	021H
	DB	04H
	DB	03H
	DB	06H
	DB	05H
	DB	04H
	DB	03H
	DB	06H
	DB	05H
	DB	04H
	DB	03H
	DB	06H
	DB	05H
	DB	04H
	DB	03H
	DB	06H
	DB	05H
	DB	04H
	DB	03H
	DB	06H
	DB	05H
	DB	04H
	DB	03H
	DB	06H
	DB	05H
	DB	04H
	DB	04H
	DB	06H
	DB	06H
	DB	0bH
	DB	00H
	DB	022H
	DB	0cH
	DB	0cH
	DB	06H
	DB	00H
	DB	00H
	DB	00H
	DB	00H
	DB	00H
	DB	00H
	DB	00H
	DB	00H
	DB	00H
	DB	00H
	DB	06H
	DB	0eH
	DB	068H
	DB	0fH
	DB	0fH
	DB	0fH
	DB	0fH
	DB	0fH
	DB	0fH
	DB	0fH
	DB	0fH
	DB	0fH
	DB	017H
	DB	07H
	DB	07H
	DB	07H
	DB	010H
	DB	010H
	DB	03aH
	DB	037H
	DB	034H
	DB	019H
	DB	032H
	DB	00H
	DB	00H
	DB	00H
	DB	00H
	DB	00H
	DB	059H
	DB	056H
	DB	02bH
	DB	07H
	DB	07H
	DB	07H
	DB	05cH
	DB	014H
	DB	067H
	DB	067H
	DB	015H
	DB	0aH
	DB	011H
	DB	011H
	DB	011H
	DB	08fH
	DB	08eH
	DB	0eH
	DB	04H
	DB	00H
	DB	00H
	DB	00H
	DB	00H
	DB	00H
	DB	00H
	DB	00H
	DB	00H
	DB	00H
	DB	09H
	DB	031H
	DB	0cH
	DB	06H
	DB	00H
	DB	00H
	DB	03H
	DB	021H
	DB	03H
	DB	04H
	DB	03H
	DB	021H
	DB	03H
	DB	04H
	DB	03H
	DB	021H
	DB	03H
	DB	04H
	DB	03H
	DB	021H
	DB	03H
	DB	04H
	DB	03H
	DB	021H
	DB	03H
	DB	04H
	DB	03H
	DB	021H
	DB	03H
	DB	04H
	DB	03H
	DB	021H
	DB	03H
	DB	04H
	DB	04H
	DB	021H
	DB	03H
	DB	04H
	DB	04H
	DB	021H
	DB	03H
	DB	04H
	DB	04H
	DB	021H
	DB	03H
	DB	04H
	DB	04H
	DB	021H
	DB	04aH
	DB	04H
	DB	04H
	DB	021H
	DB	04aH
	DB	04H
	DB	04H
	DB	021H
	DB	04aH
	DB	04H
	DB	04H
	DB	021H
	DB	021H
	DB	04H
	DB	04H
	DB	021H
	DB	021H
	DB	04H
	DB	04H
	DB	021H
	DB	021H
	DB	04H
	DB	04H
	DB	021H
	DB	021H
	DB	04H
	DB	04H
	DB	021H
	DB	021H
	DB	04H
	DB	04H
	DB	021H
	DB	021H
	DB	04H
	DB	04H
	DB	04aH
	DB	021H
	DB	04H
	DB	04H
	DB	04aH
	DB	021H
	DB	04H
	DB	04H
	DB	03H
	DB	021H
	DB	04H
	DB	04H
	DB	03H
	DB	021H
	DB	04H
	DB	04H
	DB	03H
	DB	021H
	DB	04H
	DB	04H
	DB	03H
	DB	021H
	DB	04H
	DB	04H
	DB	03H
	DB	021H
	DB	03H
	DB	04H
	DB	03H
	DB	021H
	DB	03H
	DB	04H
	DB	03H
	DB	021H
	DB	03H
	DB	04H
	DB	03H
	DB	021H
	DB	03H
	DB	04H
	DB	03H
	DB	021H
	DB	03H
	DB	04H
	DB	03H
	DB	021H
	DB	03H
	DB	04H
	DB	03H
	DB	021H
	DB	03H
	DB	04H
	DB	04H
	DB	021H
	DB	03H
	DB	04H
	DB	04H
	DB	021H
	DB	03H
	DB	04H
	DB	04H
	DB	021H
	DB	03H
	DB	04H
	DB	04H
	DB	021H
	DB	04aH
	DB	04H
	DB	04H
	DB	021H
	DB	04aH
	DB	04H
	DB	04H
	DB	021H
	DB	04aH
	DB	022H
	DB	00H
	DB	00H
	DB	06H
	DB	0cH
	DB	0cH
	DB	09H
	DB	00H
	DB	00H
	DB	00H
	DB	00H
	DB	00H
	DB	00H
	DB	00H
	DB	00H
	DB	00H
	DB	022H
	DB	0eH
	DB	054H
	DB	0b4H
	DB	0fH
	DB	0fH
	DB	0fH
	DB	0fH
	DB	0fH
	DB	0fH
	DB	0fH
	DB	0fH
	DB	0daH
	DB	07H
	DB	07H
	DB	07H
	DB	044H
	DB	00H
	DB	032H
	DB	035H
	DB	035H
	DB	032H
	DB	00H
	DB	00H
	DB	00H
	DB	00H
	DB	00H
	DB	09H
	DB	0c9H
	DB	0aaH
	DB	02eH
	DB	07H
	DB	07H
	DB	07H
	DB	014H
	DB	014H
	DB	014H
	DB	067H
	DB	017H
	DB	051H
	DB	011H
	DB	011H
	DB	011H
	DB	081H
	DB	0eH
	DB	0bfH
	DB	00H
	DB	00H
	DB	00H
	DB	00H
	DB	00H
	DB	00H
	DB	00H
	DB	00H
	DB	00H
	DB	00H
	DB	021H
	DB	0cH
	DB	0cH
	DB	04H
	DB	00H
	DB	03H
	DB	03H
	DB	04H
	DB	021H
	DB	06H
	DB	03H
	DB	04H
	DB	021H
	DB	06H
	DB	04aH
	DB	04H
	DB	021H
	DB	06H
	DB	021H
	DB	04H
	DB	04aH
	DB	06H
	DB	021H
	DB	04H
	DB	04aH
	DB	06H
	DB	021H
	DB	04H
	DB	03H
	DB	06H
	DB	021H
	DB	04H
	DB	03H
	DB	06H
	DB	05H
	DB	04H
	DB	03H
	DB	06H
	DB	05H
	DB	04H
	DB	03H
	DB	06H
	DB	05H
	DB	04H
	DB	03H
	DB	06H
	DB	05H
	DB	04H
	DB	03H
	DB	06H
	DB	05H
	DB	04H
	DB	04H
	DB	06H
	DB	06H
	DB	04H
	DB	04H
	DB	06H
	DB	06H
	DB	04H
	DB	04H
	DB	06H
	DB	06H
	DB	04H
	DB	04H
	DB	06H
	DB	06H
	DB	04H
	DB	04H
	DB	06H
	DB	06H
	DB	04H
	DB	04H
	DB	06H
	DB	06H
	DB	04H
	DB	04H
	DB	06H
	DB	06H
	DB	04H
	DB	04H
	DB	06H
	DB	06H
	DB	04H
	DB	04H
	DB	05H
	DB	06H
	DB	03H
	DB	04H
	DB	05H
	DB	06H
	DB	03H
	DB	04H
	DB	05H
	DB	06H
	DB	03H
	DB	04H
	DB	05H
	DB	06H
	DB	03H
	DB	04H
	DB	05H
	DB	06H
	DB	03H
	DB	04H
	DB	05H
	DB	06H
	DB	03H
	DB	04H
	DB	021H
	DB	06H
	DB	03H
	DB	04H
	DB	021H
	DB	06H
	DB	04aH
	DB	04H
	DB	021H
	DB	06H
	DB	021H
	DB	04H
	DB	04aH
	DB	06H
	DB	021H
	DB	04H
	DB	04aH
	DB	06H
	DB	021H
	DB	04H
	DB	03H
	DB	06H
	DB	021H
	DB	04H
	DB	03H
	DB	06H
	DB	05H
	DB	04H
	DB	03H
	DB	06H
	DB	05H
	DB	04H
	DB	03H
	DB	06H
	DB	05H
	DB	04H
	DB	03H
	DB	06H
	DB	05H
	DB	04H
	DB	03H
	DB	06H
	DB	05H
	DB	04H
	DB	04H
	DB	06H
	DB	06H
	DB	04H
	DB	04H
	DB	06H
	DB	03H
	DB	00H
	DB	022H
	DB	0cH
	DB	0cH
	DB	05H
	DB	00H
	DB	00H
	DB	00H
	DB	00H
	DB	00H
	DB	00H
	DB	00H
	DB	00H
	DB	00H
	DB	00H
	DB	0bfH
	DB	0eH
	DB	078H
	DB	0fH
	DB	0fH
	DB	0fH
	DB	0fH
	DB	0fH
	DB	0fH
	DB	0fH
	DB	0fH
	DB	0fH
	DB	05cH
	DB	07H
	DB	07H
	DB	02eH
	DB	032H
	DB	064H
	DB	035H
	DB	039H
	DB	00H
	DB	016H
	DB	027H
	DB	00H
	DB	00H
	DB	00H
	DB	09H
	DB	09H
	DB	016H
	DB	07H
	DB	07H
	DB	07H
	DB	023H
	DB	014H
	DB	067H
	DB	014H
	DB	077H
	DB	0d8H
	DB	011H
	DB	011H
	DB	011H
	DB	05dH
	DB	0c0H
	DB	0eH
	DB	05H
	DB	00H
	DB	00H
	DB	00H
	DB	00H
	DB	00H
	DB	00H
	DB	00H
	DB	00H
	DB	00H
	DB	00H
	DB	02cH
	DB	0cH
	DB	026H
	DB	00H
	DB	00H
	DB	021H
	DB	04H
	DB	022H
	DB	03H
	DB	021H
	DB	03H
	DB	022H
	DB	03H
	DB	021H
	DB	03H
	DB	022H
	DB	03H
	DB	021H
	DB	03H
	DB	022H
	DB	03H
	DB	021H
	DB	03H
	DB	022H
	DB	03H
	DB	021H
	DB	03H
	DB	022H
	DB	03H
	DB	021H
	DB	03H
	DB	022H
	DB	04H
	DB	021H
	DB	03H
	DB	022H
	DB	04H
	DB	021H
	DB	03H
	DB	022H
	DB	04H
	DB	021H
	DB	03H
	DB	022H
	DB	04H
	DB	021H
	DB	03H
	DB	022H
	DB	04H
	DB	021H
	DB	04aH
	DB	022H
	DB	04H
	DB	021H
	DB	04aH
	DB	022H
	DB	04H
	DB	021H
	DB	021H
	DB	022H
	DB	04H
	DB	021H
	DB	021H
	DB	022H
	DB	04H
	DB	021H
	DB	021H
	DB	022H
	DB	022H
	DB	021H
	DB	021H
	DB	04H
	DB	022H
	DB	021H
	DB	021H
	DB	04H
	DB	022H
	DB	021H
	DB	021H
	DB	04H
	DB	022H
	DB	04aH
	DB	021H
	DB	04H
	DB	022H
	DB	04aH
	DB	021H
	DB	04H
	DB	022H
	DB	04aH
	DB	021H
	DB	04H
	DB	022H
	DB	03H
	DB	021H
	DB	04H
	DB	022H
	DB	03H
	DB	021H
	DB	04H
	DB	022H
	DB	03H
	DB	021H
	DB	04H
	DB	022H
	DB	03H
	DB	021H
	DB	04H
	DB	022H
	DB	03H
	DB	021H
	DB	03H
	DB	022H
	DB	03H
	DB	021H
	DB	03H
	DB	022H
	DB	03H
	DB	021H
	DB	03H
	DB	022H
	DB	03H
	DB	021H
	DB	03H
	DB	022H
	DB	03H
	DB	021H
	DB	03H
	DB	022H
	DB	03H
	DB	021H
	DB	03H
	DB	022H
	DB	04H
	DB	021H
	DB	03H
	DB	022H
	DB	04H
	DB	021H
	DB	03H
	DB	022H
	DB	04H
	DB	021H
	DB	03H
	DB	022H
	DB	04H
	DB	021H
	DB	03H
	DB	022H
	DB	04H
	DB	021H
	DB	04aH
	DB	022H
	DB	04H
	DB	021H
	DB	04aH
	DB	022H
	DB	04H
	DB	021H
	DB	04aH
	DB	00H
	DB	00H
	DB	06H
	DB	0cH
	DB	031H
	DB	09H
	DB	00H
	DB	00H
	DB	00H
	DB	00H
	DB	00H
	DB	00H
	DB	00H
	DB	00H
	DB	00H
	DB	021H
	DB	0eH
	DB	04eH
	DB	0fdH
	DB	0fH
	DB	0fH
	DB	0fH
	DB	0fH
	DB	0fH
	DB	0fH
	DB	0fH
	DB	0fH
	DB	0aH
	DB	07H
	DB	07H
	DB	07H
	DB	019H
	DB	0dH
	DB	032H
	DB	00H
	DB	05aH
	DB	0e0H
	DB	072H
	DB	00H
	DB	00H
	DB	00H
	DB	00H
	DB	00H
	DB	02bH
	DB	07H
	DB	07H
	DB	07H
	DB	05cH
	DB	014H
	DB	014H
	DB	014H
	DB	015H
	DB	0aH
	DB	011H
	DB	011H
	DB	011H
	DB	07aH
	DB	0eH
	DB	0eH
	DB	09H
	DB	00H
	DB	00H
	DB	00H
	DB	00H
	DB	00H
	DB	00H
	DB	00H
	DB	00H
	DB	00H
	DB	03H
	DB	0cH
	DB	0cH
	DB	04H
	DB	00H
	DB	08H
	DB	04H
	DB	05H
	DB	06H
	DB	03H
	DB	04H
	DB	021H
	DB	06H
	DB	04aH
	DB	04H
	DB	021H
	DB	06H
	DB	04aH
	DB	04H
	DB	021H
	DB	06H
	DB	021H
	DB	04H
	DB	04aH
	DB	06H
	DB	021H
	DB	04H
	DB	04aH
	DB	06H
	DB	021H
	DB	04H
	DB	03H
	DB	06H
	DB	05H
	DB	04H
	DB	03H
	DB	06H
	DB	05H
	DB	04H
	DB	03H
	DB	06H
	DB	05H
	DB	04H
	DB	03H
	DB	06H
	DB	05H
	DB	04H
	DB	03H
	DB	06H
	DB	05H
	DB	04H
	DB	03H
	DB	06H
	DB	05H
	DB	04H
	DB	04H
	DB	06H
	DB	06H
	DB	04H
	DB	04H
	DB	06H
	DB	06H
	DB	04H
	DB	04H
	DB	06H
	DB	06H
	DB	04H
	DB	04H
	DB	06H
	DB	06H
	DB	04H
	DB	04H
	DB	06H
	DB	06H
	DB	04H
	DB	04H
	DB	06H
	DB	06H
	DB	04H
	DB	04H
	DB	06H
	DB	06H
	DB	04H
	DB	04H
	DB	06H
	DB	06H
	DB	03H
	DB	04H
	DB	05H
	DB	06H
	DB	03H
	DB	04H
	DB	05H
	DB	06H
	DB	03H
	DB	04H
	DB	05H
	DB	06H
	DB	03H
	DB	04H
	DB	05H
	DB	06H
	DB	03H
	DB	04H
	DB	05H
	DB	06H
	DB	03H
	DB	04H
	DB	05H
	DB	06H
	DB	03H
	DB	04H
	DB	021H
	DB	06H
	DB	04aH
	DB	04H
	DB	021H
	DB	06H
	DB	04aH
	DB	04H
	DB	021H
	DB	06H
	DB	021H
	DB	04H
	DB	04aH
	DB	06H
	DB	021H
	DB	04H
	DB	04aH
	DB	06H
	DB	021H
	DB	04H
	DB	03H
	DB	06H
	DB	05H
	DB	04H
	DB	03H
	DB	06H
	DB	05H
	DB	04H
	DB	03H
	DB	06H
	DB	05H
	DB	04H
	DB	03H
	DB	06H
	DB	05H
	DB	04H
	DB	03H
	DB	06H
	DB	05H
	DB	04H
	DB	03H
	DB	06H
	DB	05H
	DB	04H
	DB	04H
	DB	06H
	DB	06H
	DB	04H
	DB	04H
	DB	04H
	DB	00H
	DB	04H
	DB	0cH
	DB	0cH
	DB	04aH
	DB	00H
	DB	00H
	DB	00H
	DB	00H
	DB	00H
	DB	00H
	DB	00H
	DB	00H
	DB	00H
	DB	09H
	DB	0eH
	DB	0eH
	DB	0c7H
	DB	0fH
	DB	0fH
	DB	0fH
	DB	0fH
	DB	0fH
	DB	0fH
	DB	0fH
	DB	0fH
	DB	09eH
	DB	07H
	DB	07H
	DB	07H
	DB	044H
	DB	00H
	DB	00H
	DB	013H
	DB	034H
	DB	0e0H
	DB	0efH
	DB	00H
	DB	00H
	DB	00H
	DB	00H
	DB	09H
	DB	02eH
	DB	07H
	DB	07H
	DB	07H
	DB	014H
	DB	014H
	DB	014H
	DB	014H
	DB	017H
	DB	051H
	DB	011H
	DB	011H
	DB	011H
	DB	085H
	DB	0eH
	DB	026H
	DB	00H
	DB	00H
	DB	00H
	DB	00H
	DB	00H
	DB	00H
	DB	00H
	DB	00H
	DB	00H
	DB	00H
	DB	026H
	DB	0cH
	DB	02cH
	DB	00H
	DB	00H
	DB	04H
	DB	022H
	DB	03H
	DB	021H
	DB	04H
	DB	022H
	DB	03H
	DB	021H
	DB	03H
	DB	022H
	DB	03H
	DB	021H
	DB	03H
	DB	022H
	DB	03H
	DB	021H
	DB	03H
	DB	022H
	DB	03H
	DB	021H
	DB	03H
	DB	022H
	DB	03H
	DB	021H
	DB	03H
	DB	022H
	DB	04H
	DB	021H
	DB	03H
	DB	022H
	DB	04H
	DB	021H
	DB	03H
	DB	022H
	DB	04H
	DB	021H
	DB	03H
	DB	022H
	DB	04H
	DB	021H
	DB	03H
	DB	022H
	DB	04H
	DB	021H
	DB	04aH
	DB	022H
	DB	04H
	DB	021H
	DB	04aH
	DB	022H
	DB	04H
	DB	021H
	DB	021H
	DB	022H
	DB	04H
	DB	021H
	DB	021H
	DB	022H
	DB	04H
	DB	021H
	DB	021H
	DB	022H
	DB	022H
	DB	021H
	DB	021H
	DB	022H
	DB	022H
	DB	021H
	DB	021H
	DB	022H
	DB	022H
	DB	021H
	DB	021H
	DB	04H
	DB	022H
	DB	021H
	DB	021H
	DB	04H
	DB	022H
	DB	04aH
	DB	021H
	DB	04H
	DB	022H
	DB	04aH
	DB	021H
	DB	04H
	DB	022H
	DB	03H
	DB	021H
	DB	04H
	DB	022H
	DB	03H
	DB	021H
	DB	04H
	DB	022H
	DB	03H
	DB	021H
	DB	04H
	DB	022H
	DB	03H
	DB	021H
	DB	04H
	DB	022H
	DB	03H
	DB	021H
	DB	04H
	DB	022H
	DB	03H
	DB	021H
	DB	03H
	DB	022H
	DB	03H
	DB	021H
	DB	03H
	DB	022H
	DB	03H
	DB	021H
	DB	03H
	DB	022H
	DB	03H
	DB	021H
	DB	03H
	DB	022H
	DB	03H
	DB	021H
	DB	03H
	DB	022H
	DB	04H
	DB	021H
	DB	03H
	DB	022H
	DB	04H
	DB	021H
	DB	03H
	DB	022H
	DB	04H
	DB	021H
	DB	03H
	DB	022H
	DB	04H
	DB	021H
	DB	03H
	DB	022H
	DB	04H
	DB	021H
	DB	04aH
	DB	022H
	DB	04H
	DB	021H
	DB	04aH
	DB	022H
	DB	04H
	DB	021H
	DB	021H
	DB	022H
	DB	04H
	DB	021H
	DB	00H
	DB	00H
	DB	026H
	DB	0cH
	DB	02cH
	DB	00H
	DB	00H
	DB	00H
	DB	00H
	DB	00H
	DB	00H
	DB	00H
	DB	00H
	DB	00H
	DB	00H
	DB	026H
	DB	0eH
	DB	06dH
	DB	0fH
	DB	0fH
	DB	0fH
	DB	0fH
	DB	0fH
	DB	0fH
	DB	0fH
	DB	0fH
	DB	0fH
	DB	05cH
	DB	07H
	DB	07H
	DB	02eH
	DB	032H
	DB	01fH
	DB	032H
	DB	019H
	DB	041H
	DB	03fH
	DB	00H
	DB	00H
	DB	00H
	DB	00H
	DB	059H
	DB	07H
	DB	07H
	DB	07H
	DB	023H
	DB	014H
	DB	067H
	DB	014H
	DB	077H
	DB	086H
	DB	011H
	DB	011H
	DB	011H
	DB	097H
	DB	052H
	DB	0eH
	DB	03H
	DB	00H
	DB	00H
	DB	00H
	DB	00H
	DB	00H
	DB	00H
	DB	00H
	DB	00H
	DB	00H
	DB	08H
	DB	0cH
	DB	0cH
	DB	04aH
	DB	00H
	DB	09H
	DB	05H
	DB	06H
	DB	03H
	DB	04H
	DB	021H
	DB	06H
	DB	04aH
	DB	04H
	DB	021H
	DB	06H
	DB	04aH
	DB	04H
	DB	021H
	DB	06H
	DB	021H
	DB	04H
	DB	021H
	DB	06H
	DB	021H
	DB	04H
	DB	04aH
	DB	06H
	DB	021H
	DB	04H
	DB	03H
	DB	06H
	DB	05H
	DB	04H
	DB	03H
	DB	06H
	DB	05H
	DB	04H
	DB	03H
	DB	06H
	DB	05H
	DB	04H
	DB	03H
	DB	06H
	DB	05H
	DB	04H
	DB	03H
	DB	06H
	DB	05H
	DB	04H
	DB	03H
	DB	06H
	DB	05H
	DB	04H
	DB	03H
	DB	06H
	DB	06H
	DB	04H
	DB	04H
	DB	06H
	DB	06H
	DB	04H
	DB	04H
	DB	06H
	DB	06H
	DB	04H
	DB	04H
	DB	06H
	DB	06H
	DB	04H
	DB	04H
	DB	06H
	DB	06H
	DB	04H
	DB	04H
	DB	06H
	DB	06H
	DB	04H
	DB	04H
	DB	06H
	DB	06H
	DB	04H
	DB	04H
	DB	06H
	DB	06H
	DB	04H
	DB	04H
	DB	06H
	DB	06H
	DB	03H
	DB	04H
	DB	05H
	DB	06H
	DB	03H
	DB	04H
	DB	05H
	DB	06H
	DB	03H
	DB	04H
	DB	05H
	DB	06H
	DB	03H
	DB	04H
	DB	05H
	DB	06H
	DB	03H
	DB	04H
	DB	05H
	DB	06H
	DB	03H
	DB	04H
	DB	021H
	DB	06H
	DB	04aH
	DB	04H
	DB	021H
	DB	06H
	DB	04aH
	DB	04H
	DB	021H
	DB	06H
	DB	021H
	DB	04H
	DB	021H
	DB	06H
	DB	021H
	DB	04H
	DB	04aH
	DB	06H
	DB	021H
	DB	04H
	DB	03H
	DB	06H
	DB	05H
	DB	04H
	DB	03H
	DB	06H
	DB	05H
	DB	04H
	DB	03H
	DB	06H
	DB	05H
	DB	04H
	DB	03H
	DB	06H
	DB	05H
	DB	04H
	DB	03H
	DB	06H
	DB	05H
	DB	04H
	DB	03H
	DB	06H
	DB	05H
	DB	04H
	DB	03H
	DB	06H
	DB	06H
	DB	04H
	DB	04H
	DB	06H
	DB	06H
	DB	04H
	DB	0bH
	DB	00H
	DB	03H
	DB	0cH
	DB	0cH
	DB	04H
	DB	00H
	DB	00H
	DB	00H
	DB	00H
	DB	00H
	DB	00H
	DB	00H
	DB	00H
	DB	00H
	DB	04H
	DB	0eH
	DB	04eH
	DB	0a7H
	DB	0fH
	DB	0fH
	DB	0fH
	DB	0fH
	DB	0fH
	DB	0fH
	DB	0fH
	DB	0fH
	DB	0aH
	DB	07H
	DB	07H
	DB	07H
	DB	040H
	DB	0dH
	DB	00H
	DB	037H
	DB	02eH
	DB	0d0H
	DB	00H
	DB	00H
	DB	00H
	DB	00H
	DB	043H
	DB	07H
	DB	07H
	DB	07H
	DB	05cH
	DB	014H
	DB	014H
	DB	067H
	DB	0c5H
	DB	0aH
	DB	011H
	DB	011H
	DB	011H
	DB	07aH
	DB	0eH
	DB	0eH
	DB	00H
	DB	00H
	DB	00H
	DB	00H
	DB	00H
	DB	00H
	DB	00H
	DB	00H
	DB	00H
	DB	00H
	DB	06H
	DB	0cH
	DB	0cH
	DB	08H
	DB	00H
	DB	08H
	DB	03H
	DB	021H
	DB	04H
	DB	022H
	DB	03H
	DB	021H
	DB	04H
	DB	022H
	DB	03H
	DB	021H
	DB	03H
	DB	022H
	DB	03H
	DB	021H
	DB	03H
	DB	022H
	DB	03H
	DB	021H
	DB	03H
	DB	022H
	DB	03H
	DB	021H
	DB	03H
	DB	022H
	DB	04H
	DB	021H
	DB	03H
	DB	022H
	DB	04H
	DB	021H
	DB	03H
	DB	022H
	DB	04H
	DB	021H
	DB	03H
	DB	022H
	DB	04H
	DB	021H
	DB	03H
	DB	022H
	DB	04H
	DB	021H
	DB	03H
	DB	022H
	DB	04H
	DB	021H
	DB	04aH
	DB	022H
	DB	04H
	DB	021H
	DB	04aH
	DB	022H
	DB	04H
	DB	021H
	DB	021H
	DB	022H
	DB	022H
	DB	021H
	DB	021H
	DB	022H
	DB	022H
	DB	021H
	DB	021H
	DB	022H
	DB	022H
	DB	021H
	DB	021H
	DB	022H
	DB	022H
	DB	021H
	DB	021H
	DB	022H
	DB	022H
	DB	021H
	DB	021H
	DB	04H
	DB	022H
	DB	021H
	DB	021H
	DB	04H
	DB	022H
	DB	04aH
	DB	021H
	DB	04H
	DB	022H
	DB	04aH
	DB	021H
	DB	04H
	DB	022H
	DB	03H
	DB	021H
	DB	04H
	DB	022H
	DB	03H
	DB	021H
	DB	04H
	DB	022H
	DB	03H
	DB	021H
	DB	04H
	DB	022H
	DB	03H
	DB	021H
	DB	04H
	DB	022H
	DB	03H
	DB	021H
	DB	04H
	DB	022H
	DB	03H
	DB	021H
	DB	03H
	DB	022H
	DB	03H
	DB	021H
	DB	03H
	DB	022H
	DB	03H
	DB	021H
	DB	03H
	DB	022H
	DB	03H
	DB	021H
	DB	03H
	DB	022H
	DB	04H
	DB	021H
	DB	03H
	DB	022H
	DB	04H
	DB	021H
	DB	03H
	DB	022H
	DB	04H
	DB	021H
	DB	03H
	DB	022H
	DB	04H
	DB	021H
	DB	03H
	DB	022H
	DB	04H
	DB	021H
	DB	03H
	DB	022H
	DB	04H
	DB	021H
	DB	04aH
	DB	022H
	DB	04H
	DB	021H
	DB	04aH
	DB	022H
	DB	04H
	DB	021H
	DB	021H
	DB	022H
	DB	08H
	DB	00H
	DB	0bH
	DB	0cH
	DB	0cH
	DB	06H
	DB	00H
	DB	00H
	DB	00H
	DB	00H
	DB	00H
	DB	00H
	DB	00H
	DB	00H
	DB	00H
	DB	00H
	DB	0bfH
	DB	0eH
	DB	0c7H
	DB	0fH
	DB	0fH
	DB	0fH
	DB	0fH
	DB	0fH
	DB	0fH
	DB	0fH
	DB	0fH
	DB	0daH
	DB	07H
	DB	07H
	DB	07H
	DB	02bH
	DB	00H
	DB	013H
	DB	02bH
	DB	0d0H
	DB	02bH
	DB	00H
	DB	00H
	DB	00H
	DB	00H
	DB	036H
	DB	07H
	DB	07H
	DB	07H
	DB	014H
	DB	014H
	DB	014H
	DB	014H
	DB	017H
	DB	011H
	DB	011H
	DB	011H
	DB	011H
	DB	0d3H
	DB	0eH
	DB	026H
	DB	00H
	DB	00H
	DB	00H
	DB	00H
	DB	00H
	DB	00H
	DB	00H
	DB	00H
	DB	00H
	DB	09H
	DB	031H
	DB	0cH
	DB	06H
	DB	00H
	DB	09H
	DB	06H
	DB	03H
	DB	04H
	DB	05H
	DB	06H
	DB	03H
	DB	04H
	DB	021H
	DB	06H
	DB	04aH
	DB	04H
	DB	021H
	DB	06H
	DB	021H
	DB	04H
	DB	021H
	DB	06H
	DB	021H
	DB	04H
	DB	04aH
	DB	06H
	DB	021H
	DB	04H
	DB	04aH
	DB	06H
	DB	021H
	DB	04H
	DB	03H
	DB	06H
	DB	05H
	DB	04H
	DB	03H
	DB	06H
	DB	05H
	DB	04H
	DB	03H
	DB	06H
	DB	05H
	DB	04H
	DB	03H
	DB	06H
	DB	05H
	DB	04H
	DB	03H
	DB	06H
	DB	05H
	DB	04H
	DB	03H
	DB	06H
	DB	06H
	DB	04H
	DB	03H
	DB	06H
	DB	06H
	DB	04H
	DB	04H
	DB	06H
	DB	06H
	DB	04H
	DB	04H
	DB	06H
	DB	06H
	DB	04H
	DB	04H
	DB	06H
	DB	06H
	DB	04H
	DB	04H
	DB	06H
	DB	06H
	DB	04H
	DB	04H
	DB	06H
	DB	06H
	DB	04H
	DB	04H
	DB	06H
	DB	06H
	DB	04H
	DB	04H
	DB	06H
	DB	06H
	DB	03H
	DB	04H
	DB	06H
	DB	06H
	DB	03H
	DB	04H
	DB	05H
	DB	06H
	DB	03H
	DB	04H
	DB	05H
	DB	06H
	DB	03H
	DB	04H
	DB	05H
	DB	06H
	DB	03H
	DB	04H
	DB	05H
	DB	06H
	DB	03H
	DB	04H
	DB	05H
	DB	06H
	DB	03H
	DB	04H
	DB	021H
	DB	06H
	DB	04aH
	DB	04H
	DB	021H
	DB	06H
	DB	021H
	DB	04H
	DB	021H
	DB	06H
	DB	021H
	DB	04H
	DB	04aH
	DB	06H
	DB	021H
	DB	04H
	DB	04aH
	DB	06H
	DB	021H
	DB	04H
	DB	03H
	DB	06H
	DB	05H
	DB	04H
	DB	03H
	DB	06H
	DB	05H
	DB	04H
	DB	03H
	DB	06H
	DB	05H
	DB	04H
	DB	03H
	DB	06H
	DB	05H
	DB	04H
	DB	03H
	DB	06H
	DB	05H
	DB	04H
	DB	03H
	DB	06H
	DB	06H
	DB	04H
	DB	03H
	DB	06H
	DB	06H
	DB	04H
	DB	04H
	DB	06H
	DB	06H
	DB	09H
	DB	00H
	DB	06H
	DB	0cH
	DB	0cH
	DB	09H
	DB	00H
	DB	00H
	DB	00H
	DB	00H
	DB	00H
	DB	00H
	DB	00H
	DB	00H
	DB	00H
	DB	06H
	DB	0eH
	DB	0a2H
	DB	0fH
	DB	0fH
	DB	0fH
	DB	0fH
	DB	0fH
	DB	0fH
	DB	0fH
	DB	0fH
	DB	0fH
	DB	046H
	DB	07H
	DB	07H
	DB	03fH
	DB	00H
	DB	019H
	DB	055H
	DB	04dH
	DB	030H
	DB	00H
	DB	00H
	DB	00H
	DB	00H
	DB	025H
	DB	07H
	DB	07H
	DB	023H
	DB	014H
	DB	014H
	DB	014H
	DB	077H
	DB	086H
	DB	011H
	DB	011H
	DB	011H
	DB	097H
	DB	052H
	DB	0eH
	DB	04H
	DB	00H
	DB	00H
	DB	00H
	DB	00H
	DB	00H
	DB	00H
	DB	00H
	DB	00H
	DB	00H
	DB	03H
	DB	0cH
	DB	0cH
	DB	04H
	DB	00H
	DB	022H
	DB	021H
	DB	04H
	DB	022H
	DB	03H
	DB	021H
	DB	04H
	DB	022H
	DB	03H
	DB	021H
	DB	04H
	DB	022H
	DB	03H
	DB	021H
	DB	03H
	DB	022H
	DB	03H
	DB	021H
	DB	03H
	DB	022H
	DB	03H
	DB	021H
	DB	03H
	DB	022H
	DB	04H
	DB	021H
	DB	03H
	DB	022H
	DB	04H
	DB	021H
	DB	03H
	DB	022H
	DB	04H
	DB	021H
	DB	03H
	DB	022H
	DB	04H
	DB	021H
	DB	03H
	DB	022H
	DB	04H
	DB	021H
	DB	03H
	DB	022H
	DB	04H
	DB	021H
	DB	04aH
	DB	022H
	DB	04H
	DB	021H
	DB	04aH
	DB	022H
	DB	04H
	DB	021H
	DB	021H
	DB	022H
	DB	022H
	DB	021H
	DB	021H
	DB	022H
	DB	022H
	DB	021H
	DB	021H
	DB	022H
	DB	022H
	DB	021H
	DB	021H
	DB	022H
	DB	022H
	DB	021H
	DB	021H
	DB	022H
	DB	022H
	DB	021H
	DB	021H
	DB	022H
	DB	022H
	DB	021H
	DB	021H
	DB	022H
	DB	022H
	DB	04aH
	DB	021H
	DB	04H
	DB	022H
	DB	04aH
	DB	021H
	DB	04H
	DB	022H
	DB	04aH
	DB	021H
	DB	04H
	DB	022H
	DB	03H
	DB	021H
	DB	04H
	DB	022H
	DB	03H
	DB	021H
	DB	04H
	DB	022H
	DB	03H
	DB	021H
	DB	04H
	DB	022H
	DB	03H
	DB	021H
	DB	04H
	DB	022H
	DB	03H
	DB	021H
	DB	04H
	DB	022H
	DB	03H
	DB	021H
	DB	03H
	DB	022H
	DB	03H
	DB	021H
	DB	03H
	DB	022H
	DB	03H
	DB	021H
	DB	03H
	DB	022H
	DB	04H
	DB	021H
	DB	03H
	DB	022H
	DB	04H
	DB	021H
	DB	03H
	DB	022H
	DB	04H
	DB	021H
	DB	03H
	DB	022H
	DB	04H
	DB	021H
	DB	03H
	DB	022H
	DB	04H
	DB	021H
	DB	03H
	DB	022H
	DB	04H
	DB	021H
	DB	04aH
	DB	022H
	DB	04H
	DB	021H
	DB	04aH
	DB	022H
	DB	04H
	DB	021H
	DB	021H
	DB	022H
	DB	022H
	DB	021H
	DB	021H
	DB	0bH
	DB	00H
	DB	04H
	DB	0cH
	DB	0cH
	DB	03H
	DB	00H
	DB	00H
	DB	00H
	DB	00H
	DB	00H
	DB	00H
	DB	00H
	DB	00H
	DB	00H
	DB	04H
	DB	0eH
	DB	0d2H
	DB	083H
	DB	0fH
	DB	0fH
	DB	0fH
	DB	0fH
	DB	0fH
	DB	0fH
	DB	0fH
	DB	0fH
	DB	0c5H
	DB	07H
	DB	07H
	DB	07H
	DB	0dH
	DB	010H
	DB	01dH
	DB	07fH
	DB	03cH
	DB	00H
	DB	00H
	DB	00H
	DB	037H
	DB	07H
	DB	07H
	DB	07H
	DB	023H
	DB	014H
	DB	014H
	DB	014H
	DB	015H
	DB	0aH
	DB	011H
	DB	011H
	DB	011H
	DB	07aH
	DB	0eH
	DB	0eH
	DB	00H
	DB	00H
	DB	00H
	DB	00H
	DB	00H
	DB	00H
	DB	00H
	DB	00H
	DB	00H
	DB	00H
	DB	06H
	DB	0cH
	DB	031H
	DB	00H
	DB	00H
	DB	03H
	DB	04H
	DB	05H
	DB	06H
	DB	03H
	DB	04H
	DB	05H
	DB	06H
	DB	04aH
	DB	04H
	DB	021H
	DB	06H
	DB	021H
	DB	04H
	DB	021H
	DB	06H
	DB	021H
	DB	04H
	DB	021H
	DB	06H
	DB	021H
	DB	04H
	DB	04aH
	DB	06H
	DB	021H
	DB	04H
	DB	04aH
	DB	06H
	DB	05H
	DB	04H
	DB	03H
	DB	06H
	DB	05H
	DB	04H
	DB	03H
	DB	06H
	DB	05H
	DB	04H
	DB	03H
	DB	06H
	DB	05H
	DB	04H
	DB	03H
	DB	06H
	DB	05H
	DB	04H
	DB	03H
	DB	06H
	DB	06H
	DB	04H
	DB	03H
	DB	06H
	DB	06H
	DB	04H
	DB	04H
	DB	06H
	DB	06H
	DB	04H
	DB	04H
	DB	06H
	DB	06H
	DB	04H
	DB	04H
	DB	06H
	DB	06H
	DB	04H
	DB	04H
	DB	06H
	DB	06H
	DB	04H
	DB	04H
	DB	06H
	DB	06H
	DB	04H
	DB	04H
	DB	06H
	DB	06H
	DB	04H
	DB	04H
	DB	06H
	DB	06H
	DB	03H
	DB	04H
	DB	06H
	DB	06H
	DB	03H
	DB	04H
	DB	05H
	DB	06H
	DB	03H
	DB	04H
	DB	05H
	DB	06H
	DB	03H
	DB	04H
	DB	05H
	DB	06H
	DB	03H
	DB	04H
	DB	05H
	DB	06H
	DB	03H
	DB	04H
	DB	05H
	DB	06H
	DB	03H
	DB	04H
	DB	05H
	DB	06H
	DB	04aH
	DB	04H
	DB	021H
	DB	06H
	DB	021H
	DB	04H
	DB	021H
	DB	06H
	DB	021H
	DB	04H
	DB	021H
	DB	06H
	DB	021H
	DB	04H
	DB	04aH
	DB	06H
	DB	021H
	DB	04H
	DB	04aH
	DB	06H
	DB	05H
	DB	04H
	DB	03H
	DB	06H
	DB	05H
	DB	04H
	DB	03H
	DB	06H
	DB	05H
	DB	04H
	DB	03H
	DB	06H
	DB	05H
	DB	04H
	DB	03H
	DB	06H
	DB	05H
	DB	04H
	DB	03H
	DB	06H
	DB	06H
	DB	04H
	DB	03H
	DB	06H
	DB	06H
	DB	04H
	DB	04H
	DB	06H
	DB	06H
	DB	04H
	DB	04H
	DB	06H
	DB	00H
	DB	00H
	DB	02cH
	DB	0cH
	DB	026H
	DB	00H
	DB	00H
	DB	00H
	DB	00H
	DB	00H
	DB	00H
	DB	00H
	DB	00H
	DB	00H
	DB	00H
	DB	0eH
	DB	0eH
	DB	09bH
	DB	0fH
	DB	0fH
	DB	0fH
	DB	0fH
	DB	0fH
	DB	0fH
	DB	0fH
	DB	01cH
	DB	0beH
	DB	07H
	DB	07H
	DB	07H
	DB	024H
	DB	01dH
	DB	030H
	DB	03cH
	DB	02dH
	DB	00H
	DB	00H
	DB	00H
	DB	044H
	DB	07H
	DB	07H
	DB	07H
	DB	0beH
	DB	014H
	DB	014H
	DB	014H
	DB	07bH
	DB	011H
	DB	011H
	DB	011H
	DB	011H
	DB	081H
	DB	0eH
	DB	026H
	DB	00H
	DB	00H
	DB	00H
	DB	00H
	DB	00H
	DB	00H
	DB	00H
	DB	00H
	DB	00H
	DB	09H
	DB	0cH
	DB	0cH
	DB	05H
	DB	00H
	DB	0bH
	DB	04H
	DB	022H
	DB	03H
	DB	021H
	DB	04H
	DB	022H
	DB	03H
	DB	021H
	DB	04H
	DB	022H
	DB	03H
	DB	021H
	DB	04H
	DB	022H
	DB	03H
	DB	021H
	DB	03H
	DB	022H
	DB	03H
	DB	021H
	DB	03H
	DB	022H
	DB	04H
	DB	021H
	DB	03H
	DB	022H
	DB	04H
	DB	021H
	DB	03H
	DB	022H
	DB	04H
	DB	021H
	DB	03H
	DB	022H
	DB	04H
	DB	021H
	DB	03H
	DB	022H
	DB	04H
	DB	021H
	DB	03H
	DB	022H
	DB	04H
	DB	021H
	DB	03H
	DB	022H
	DB	04H
	DB	021H
	DB	04aH
	DB	022H
	DB	04H
	DB	021H
	DB	04aH
	DB	022H
	DB	022H
	DB	021H
	DB	021H
	DB	022H
	DB	022H
	DB	021H
	DB	021H
	DB	022H
	DB	022H
	DB	021H
	DB	021H
	DB	022H
	DB	022H
	DB	021H
	DB	021H
	DB	022H
	DB	022H
	DB	021H
	DB	021H
	DB	022H
	DB	022H
	DB	021H
	DB	021H
	DB	022H
	DB	022H
	DB	021H
	DB	021H
	DB	022H
	DB	022H
	DB	04aH
	DB	021H
	DB	04H
	DB	022H
	DB	04aH
	DB	021H
	DB	04H
	DB	022H
	DB	03H
	DB	021H
	DB	04H
	DB	022H
	DB	03H
	DB	021H
	DB	04H
	DB	022H
	DB	03H
	DB	021H
	DB	04H
	DB	022H
	DB	03H
	DB	021H
	DB	04H
	DB	022H
	DB	03H
	DB	021H
	DB	04H
	DB	022H
	DB	03H
	DB	021H
	DB	04H
	DB	022H
	DB	03H
	DB	021H
	DB	03H
	DB	022H
	DB	03H
	DB	021H
	DB	03H
	DB	022H
	DB	04H
	DB	021H
	DB	03H
	DB	022H
	DB	04H
	DB	021H
	DB	03H
	DB	022H
	DB	04H
	DB	021H
	DB	03H
	DB	022H
	DB	04H
	DB	021H
	DB	03H
	DB	022H
	DB	04H
	DB	021H
	DB	03H
	DB	022H
	DB	04H
	DB	021H
	DB	03H
	DB	022H
	DB	04H
	DB	021H
	DB	04aH
	DB	022H
	DB	04H
	DB	021H
	DB	04aH
	DB	022H
	DB	022H
	DB	021H
	DB	021H
	DB	022H
	DB	022H
	DB	021H
	DB	0bH
	DB	00H
	DB	05H
	DB	0cH
	DB	0cH
	DB	09H
	DB	00H
	DB	00H
	DB	00H
	DB	00H
	DB	00H
	DB	00H
	DB	00H
	DB	00H
	DB	00H
	DB	026H
	DB	0eH
	DB	0c4H
	DB	0fH
	DB	0fH
	DB	0fH
	DB	0fH
	DB	011H
	DB	0beH
	DB	048H
	DB	06eH
	DB	044H
	DB	07H
	DB	07H
	DB	07H
	DB	048H
	DB	01aH
	DB	041H
	DB	088H
	DB	042H
	DB	00H
	DB	00H
	DB	00H
	DB	03fH
	DB	07H
	DB	07H
	DB	046H
	DB	014H
	DB	014H
	DB	014H
	DB	067H
	DB	0d8H
	DB	011H
	DB	011H
	DB	011H
	DB	05dH
	DB	05eH
	DB	0eH
	DB	021H
	DB	00H
	DB	00H
	DB	00H
	DB	00H
	DB	00H
	DB	00H
	DB	00H
	DB	00H
	DB	00H
	DB	03H
	DB	0cH
	DB	0cH
	DB	04H
	DB	00H
	DB	08H
	DB	05H
	DB	06H
	DB	03H
	DB	04H
	DB	05H
	DB	06H
	DB	04aH
	DB	04H
	DB	05H
	DB	06H
	DB	04aH
	DB	04H
	DB	021H
	DB	06H
	DB	021H
	DB	04H
	DB	021H
	DB	06H
	DB	021H
	DB	04H
	DB	021H
	DB	06H
	DB	021H
	DB	04H
	DB	04aH
	DB	06H
	DB	05H
	DB	04H
	DB	04aH
	DB	06H
	DB	05H
	DB	04H
	DB	03H
	DB	06H
	DB	05H
	DB	04H
	DB	03H
	DB	06H
	DB	05H
	DB	04H
	DB	03H
	DB	06H
	DB	05H
	DB	04H
	DB	03H
	DB	06H
	DB	05H
	DB	04H
	DB	03H
	DB	06H
	DB	06H
	DB	04H
	DB	03H
	DB	06H
	DB	06H
	DB	04H
	DB	04H
	DB	06H
	DB	06H
	DB	04H
	DB	04H
	DB	06H
	DB	06H
	DB	04H
	DB	04H
	DB	06H
	DB	06H
	DB	04H
	DB	04H
	DB	06H
	DB	06H
	DB	04H
	DB	04H
	DB	06H
	DB	06H
	DB	04H
	DB	04H
	DB	06H
	DB	06H
	DB	03H
	DB	04H
	DB	06H
	DB	06H
	DB	03H
	DB	04H
	DB	06H
	DB	06H
	DB	03H
	DB	04H
	DB	05H
	DB	06H
	DB	03H
	DB	04H
	DB	05H
	DB	06H
	DB	03H
	DB	04H
	DB	05H
	DB	06H
	DB	03H
	DB	04H
	DB	05H
	DB	06H
	DB	03H
	DB	04H
	DB	05H
	DB	06H
	DB	04aH
	DB	04H
	DB	05H
	DB	06H
	DB	04aH
	DB	04H
	DB	021H
	DB	06H
	DB	021H
	DB	04H
	DB	021H
	DB	06H
	DB	021H
	DB	04H
	DB	021H
	DB	06H
	DB	021H
	DB	04H
	DB	04aH
	DB	06H
	DB	05H
	DB	04H
	DB	04aH
	DB	06H
	DB	05H
	DB	04H
	DB	03H
	DB	06H
	DB	05H
	DB	04H
	DB	03H
	DB	06H
	DB	05H
	DB	04H
	DB	03H
	DB	06H
	DB	05H
	DB	04H
	DB	03H
	DB	06H
	DB	05H
	DB	04H
	DB	03H
	DB	06H
	DB	06H
	DB	04H
	DB	03H
	DB	06H
	DB	06H
	DB	04H
	DB	04H
	DB	06H
	DB	06H
	DB	04H
	DB	022H
	DB	00H
	DB	04H
	DB	0cH
	DB	0cH
	DB	03H
	DB	00H
	DB	00H
	DB	00H
	DB	00H
	DB	00H
	DB	00H
	DB	00H
	DB	00H
	DB	00H
	DB	03H
	DB	0eH
	DB	0afH
	DB	087H
	DB	0d8H
	DB	07H
	DB	03dH
	DB	06eH
	DB	06eH
	DB	06eH
	DB	02bH
	DB	044H
	DB	025H
	DB	07H
	DB	07H
	DB	02eH
	DB	010H
	DB	024H
	DB	041H
	DB	041H
	DB	00H
	DB	00H
	DB	00H
	DB	07H
	DB	07H
	DB	07H
	DB	023H
	DB	014H
	DB	014H
	DB	014H
	DB	077H
	DB	0aH
	DB	011H
	DB	075H
	DB	075H
	DB	08fH
	DB	08eH
	DB	0eH
	DB	0bH
	DB	00H
	DB	00H
	DB	00H
	DB	00H
	DB	00H
	DB	00H
	DB	00H
	DB	00H
	DB	00H
	DB	06H
	DB	0cH
	DB	031H
	DB	00H
	DB	00H
	DB	08H
	DB	03H
	DB	05H
	DB	04H
	DB	08H
	DB	03H
	DB	05H
	DB	04H
	DB	08H
	DB	03H
	DB	05H
	DB	04H
	DB	08H
	DB	03H
	DB	05H
	DB	04H
	DB	08H
	DB	03H
	DB	05H
	DB	03H
	DB	08H
	DB	04H
	DB	05H
	DB	03H
	DB	08H
	DB	04H
	DB	05H
	DB	03H
	DB	08H
	DB	04H
	DB	05H
	DB	03H
	DB	08H
	DB	04H
	DB	05H
	DB	03H
	DB	08H
	DB	04H
	DB	05H
	DB	03H
	DB	08H
	DB	04H
	DB	05H
	DB	03H
	DB	08H
	DB	04H
	DB	05H
	DB	04aH
	DB	08H
	DB	04H
	DB	05H
	DB	04aH
	DB	08H
	DB	022H
	DB	05H
	DB	021H
	DB	08H
	DB	022H
	DB	05H
	DB	021H
	DB	08H
	DB	022H
	DB	05H
	DB	021H
	DB	08H
	DB	08H
	DB	05H
	DB	021H
	DB	08H
	DB	08H
	DB	021H
	DB	05H
	DB	022H
	DB	08H
	DB	021H
	DB	05H
	DB	022H
	DB	08H
	DB	021H
	DB	05H
	DB	022H
	DB	08H
	DB	021H
	DB	05H
	DB	022H
	DB	08H
	DB	04aH
	DB	05H
	DB	04H
	DB	08H
	DB	04aH
	DB	05H
	DB	04H
	DB	08H
	DB	03H
	DB	05H
	DB	04H
	DB	08H
	DB	03H
	DB	05H
	DB	04H
	DB	08H
	DB	03H
	DB	05H
	DB	04H
	DB	08H
	DB	03H
	DB	05H
	DB	04H
	DB	08H
	DB	03H
	DB	05H
	DB	04H
	DB	08H
	DB	03H
	DB	05H
	DB	04H
	DB	08H
	DB	03H
	DB	05H
	DB	03H
	DB	08H
	DB	04H
	DB	05H
	DB	03H
	DB	08H
	DB	04H
	DB	05H
	DB	03H
	DB	08H
	DB	04H
	DB	05H
	DB	03H
	DB	08H
	DB	04H
	DB	05H
	DB	03H
	DB	08H
	DB	04H
	DB	05H
	DB	03H
	DB	08H
	DB	04H
	DB	05H
	DB	03H
	DB	08H
	DB	04H
	DB	05H
	DB	04aH
	DB	08H
	DB	04H
	DB	05H
	DB	04aH
	DB	08H
	DB	022H
	DB	05H
	DB	021H
	DB	08H
	DB	022H
	DB	05H
	DB	021H
	DB	08H
	DB	022H
	DB	00H
	DB	00H
	DB	02cH
	DB	0cH
	DB	026H
	DB	00H
	DB	00H
	DB	00H
	DB	00H
	DB	00H
	DB	00H
	DB	00H
	DB	00H
	DB	00H
	DB	07eH
	DB	0bbH
	DB	057H
	DB	03dH
	DB	03dH
	DB	06eH
	DB	06eH
	DB	043H
	DB	045H
	DB	0dH
	DB	038H
	DB	044H
	DB	06eH
	DB	07H
	DB	07H
	DB	07H
	DB	0dH
	DB	010H
	DB	02dH
	DB	065H
	DB	00H
	DB	00H
	DB	0dH
	DB	07H
	DB	07H
	DB	07H
	DB	05cH
	DB	014H
	DB	014H
	DB	014H
	DB	015H
	DB	051H
	DB	075H
	DB	075H
	DB	075H
	DB	07aH
	DB	0eH
	DB	0bfH
	DB	00H
	DB	00H
	DB	00H
	DB	00H
	DB	00H
	DB	00H
	DB	00H
	DB	00H
	DB	00H
	DB	00H
	DB	031H
	DB	0cH
	DB	06H
	DB	00H
	DB	0bH
	DB	06H
	DB	03H
	DB	04H
	DB	05H
	DB	06H
	DB	04aH
	DB	04H
	DB	05H
	DB	06H
	DB	04aH
	DB	04H
	DB	021H
	DB	06H
	DB	021H
	DB	04H
	DB	021H
	DB	06H
	DB	021H
	DB	04H
	DB	021H
	DB	06H
	DB	021H
	DB	04H
	DB	021H
	DB	06H
	DB	05H
	DB	04H
	DB	04aH
	DB	06H
	DB	05H
	DB	04H
	DB	03H
	DB	06H
	DB	05H
	DB	04H
	DB	03H
	DB	06H
	DB	05H
	DB	04H
	DB	03H
	DB	06H
	DB	05H
	DB	04H
	DB	03H
	DB	06H
	DB	05H
	DB	04H
	DB	03H
	DB	06H
	DB	06H
	DB	04H
	DB	03H
	DB	06H
	DB	06H
	DB	04H
	DB	03H
	DB	06H
	DB	06H
	DB	04H
	DB	04H
	DB	06H
	DB	06H
	DB	04H
	DB	04H
	DB	06H
	DB	06H
	DB	04H
	DB	04H
	DB	06H
	DB	06H
	DB	04H
	DB	04H
	DB	06H
	DB	06H
	DB	04H
	DB	04H
	DB	06H
	DB	06H
	DB	04H
	DB	04H
	DB	06H
	DB	06H
	DB	03H
	DB	04H
	DB	06H
	DB	06H
	DB	03H
	DB	04H
	DB	06H
	DB	06H
	DB	03H
	DB	04H
	DB	05H
	DB	06H
	DB	03H
	DB	04H
	DB	05H
	DB	06H
	DB	03H
	DB	04H
	DB	05H
	DB	06H
	DB	03H
	DB	04H
	DB	05H
	DB	06H
	DB	04aH
	DB	04H
	DB	05H
	DB	06H
	DB	04aH
	DB	04H
	DB	021H
	DB	06H
	DB	021H
	DB	04H
	DB	021H
	DB	06H
	DB	021H
	DB	04H
	DB	021H
	DB	06H
	DB	021H
	DB	04H
	DB	021H
	DB	06H
	DB	05H
	DB	04H
	DB	04aH
	DB	06H
	DB	05H
	DB	04H
	DB	03H
	DB	06H
	DB	05H
	DB	04H
	DB	03H
	DB	06H
	DB	05H
	DB	04H
	DB	03H
	DB	06H
	DB	05H
	DB	04H
	DB	03H
	DB	06H
	DB	05H
	DB	04H
	DB	03H
	DB	06H
	DB	06H
	DB	04H
	DB	03H
	DB	06H
	DB	06H
	DB	04H
	DB	03H
	DB	06H
	DB	06H
	DB	04H
	DB	04H
	DB	06H
	DB	06H
	DB	0bH
	DB	00H
	DB	05H
	DB	0cH
	DB	031H
	DB	00H
	DB	00H
	DB	00H
	DB	00H
	DB	00H
	DB	01fH
	DB	050H
	DB	06eH
	DB	076H
	DB	048H
	DB	048H
	DB	03dH
	DB	06eH
	DB	024H
	DB	038H
	DB	01fH
	DB	00H
	DB	00H
	DB	00H
	DB	00H
	DB	044H
	DB	055H
	DB	07H
	DB	07H
	DB	07H
	DB	045H
	DB	037H
	DB	030H
	DB	065H
	DB	00H
	DB	00H
	DB	05fH
	DB	07H
	DB	07H
	DB	07H
	DB	0beH
	DB	014H
	DB	014H
	DB	014H
	DB	07bH
	DB	011H
	DB	075H
	DB	075H
	DB	011H
	DB	081H
	DB	0eH
	DB	06H
	DB	00H
	DB	00H
	DB	00H
	DB	00H
	DB	00H
	DB	00H
	DB	00H
	DB	00H
	DB	00H
	DB	022H
	DB	0cH
	DB	0cH
	DB	04H
	DB	00H
	DB	022H
	DB	05H
	DB	04H
	DB	08H
	DB	03H
	DB	05H
	DB	04H
	DB	08H
	DB	03H
	DB	05H
	DB	04H
	DB	08H
	DB	03H
	DB	05H
	DB	04H
	DB	08H
	DB	03H
	DB	05H
	DB	03H
	DB	08H
	DB	04H
	DB	05H
	DB	03H
	DB	08H
	DB	04H
	DB	05H
	DB	03H
	DB	08H
	DB	04H
	DB	05H
	DB	03H
	DB	08H
	DB	04H
	DB	05H
	DB	03H
	DB	08H
	DB	04H
	DB	05H
	DB	03H
	DB	08H
	DB	04H
	DB	05H
	DB	03H
	DB	08H
	DB	04H
	DB	05H
	DB	04aH
	DB	08H
	DB	022H
	DB	05H
	DB	04aH
	DB	08H
	DB	022H
	DB	05H
	DB	021H
	DB	08H
	DB	022H
	DB	05H
	DB	021H
	DB	08H
	DB	022H
	DB	05H
	DB	021H
	DB	08H
	DB	08H
	DB	05H
	DB	021H
	DB	08H
	DB	08H
	DB	05H
	DB	05H
	DB	08H
	DB	08H
	DB	021H
	DB	05H
	DB	08H
	DB	08H
	DB	021H
	DB	05H
	DB	022H
	DB	08H
	DB	021H
	DB	05H
	DB	022H
	DB	08H
	DB	04aH
	DB	05H
	DB	022H
	DB	08H
	DB	04aH
	DB	05H
	DB	04H
	DB	08H
	DB	03H
	DB	05H
	DB	04H
	DB	08H
	DB	03H
	DB	05H
	DB	04H
	DB	08H
	DB	03H
	DB	05H
	DB	04H
	DB	08H
	DB	03H
	DB	05H
	DB	04H
	DB	08H
	DB	03H
	DB	05H
	DB	04H
	DB	08H
	DB	03H
	DB	05H
	DB	04H
	DB	08H
	DB	03H
	DB	05H
	DB	03H
	DB	08H
	DB	04H
	DB	05H
	DB	03H
	DB	08H
	DB	04H
	DB	05H
	DB	03H
	DB	08H
	DB	04H
	DB	05H
	DB	03H
	DB	08H
	DB	04H
	DB	05H
	DB	03H
	DB	08H
	DB	04H
	DB	05H
	DB	03H
	DB	08H
	DB	04H
	DB	05H
	DB	03H
	DB	08H
	DB	04H
	DB	05H
	DB	04aH
	DB	08H
	DB	022H
	DB	05H
	DB	04aH
	DB	08H
	DB	022H
	DB	05H
	DB	021H
	DB	08H
	DB	022H
	DB	05H
	DB	021H
	DB	08H
	DB	022H
	DB	05H
	DB	021H
	DB	0bH
	DB	00H
	DB	04H
	DB	0cH
	DB	0cH
	DB	04H
	DB	00H
	DB	010H
	DB	02bH
	DB	048H
	DB	036H
	DB	076H
	DB	076H
	DB	048H
	DB	02bH
	DB	02fH
	DB	03aH
	DB	00H
	DB	00H
	DB	00H
	DB	00H
	DB	00H
	DB	00H
	DB	00H
	DB	00H
	DB	055H
	DB	055H
	DB	07H
	DB	07H
	DB	07H
	DB	06eH
	DB	010H
	DB	024H
	DB	094H
	DB	00H
	DB	00H
	DB	036H
	DB	07H
	DB	07H
	DB	07H
	DB	014H
	DB	014H
	DB	014H
	DB	014H
	DB	017H
	DB	075H
	DB	075H
	DB	075H
	DB	05dH
	DB	05eH
	DB	0eH
	DB	03H
	DB	00H
	DB	00H
	DB	00H
	DB	00H
	DB	00H
	DB	00H
	DB	00H
	DB	00H
	DB	00H
	DB	05H
	DB	0cH
	DB	0cH
	DB	09H
	DB	00H
	DB	03H
	DB	04H
	DB	05H
	DB	06H
	DB	03H
	DB	04H
	DB	05H
	DB	06H
	DB	04aH
	DB	04H
	DB	05H
	DB	06H
	DB	021H
	DB	04H
	DB	021H
	DB	06H
	DB	021H
	DB	04H
	DB	021H
	DB	06H
	DB	021H
	DB	04H
	DB	021H
	DB	06H
	DB	021H
	DB	04H
	DB	04aH
	DB	06H
	DB	05H
	DB	04H
	DB	04aH
	DB	06H
	DB	05H
	DB	04H
	DB	03H
	DB	06H
	DB	05H
	DB	04H
	DB	03H
	DB	06H
	DB	05H
	DB	04H
	DB	03H
	DB	06H
	DB	05H
	DB	04H
	DB	03H
	DB	06H
	DB	06H
	DB	04H
	DB	03H
	DB	06H
	DB	06H
	DB	04H
	DB	03H
	DB	06H
	DB	06H
	DB	04H
	DB	03H
	DB	06H
	DB	06H
	DB	04H
	DB	04H
	DB	06H
	DB	06H
	DB	04H
	DB	04H
	DB	06H
	DB	06H
	DB	04H
	DB	04H
	DB	06H
	DB	06H
	DB	04H
	DB	04H
	DB	06H
	DB	06H
	DB	04H
	DB	04H
	DB	06H
	DB	06H
	DB	03H
	DB	04H
	DB	06H
	DB	06H
	DB	03H
	DB	04H
	DB	06H
	DB	06H
	DB	03H
	DB	04H
	DB	05H
	DB	06H
	DB	03H
	DB	04H
	DB	05H
	DB	06H
	DB	03H
	DB	04H
	DB	05H
	DB	06H
	DB	03H
	DB	04H
	DB	05H
	DB	06H
	DB	03H
	DB	04H
	DB	05H
	DB	06H
	DB	04aH
	DB	04H
	DB	05H
	DB	06H
	DB	021H
	DB	04H
	DB	021H
	DB	06H
	DB	021H
	DB	04H
	DB	021H
	DB	06H
	DB	021H
	DB	04H
	DB	021H
	DB	06H
	DB	021H
	DB	04H
	DB	04aH
	DB	06H
	DB	05H
	DB	04H
	DB	04aH
	DB	06H
	DB	05H
	DB	04H
	DB	03H
	DB	06H
	DB	05H
	DB	04H
	DB	03H
	DB	06H
	DB	05H
	DB	04H
	DB	03H
	DB	06H
	DB	05H
	DB	04H
	DB	03H
	DB	06H
	DB	06H
	DB	04H
	DB	03H
	DB	06H
	DB	06H
	DB	04H
	DB	03H
	DB	06H
	DB	06H
	DB	04H
	DB	03H
	DB	06H
	DB	06H
	DB	04H
	DB	04H
	DB	06H
	DB	00H
	DB	09H
	DB	031H
	DB	0bbH
	DB	094H
	DB	036H
	DB	036H
	DB	036H
	DB	036H
	DB	048H
	DB	05fH
	DB	045H
	DB	01fH
	DB	00H
	DB	00H
	DB	00H
	DB	00H
	DB	00H
	DB	00H
	DB	00H
	DB	00H
	DB	00H
	DB	00H
	DB	00H
	DB	047H
	DB	055H
	DB	025H
	DB	07H
	DB	07H
	DB	03fH
	DB	037H
	DB	028H
	DB	03dH
	DB	00H
	DB	00H
	DB	025H
	DB	07H
	DB	07H
	DB	046H
	DB	014H
	DB	014H
	DB	014H
	DB	077H
	DB	086H
	DB	075H
	DB	075H
	DB	075H
	DB	08fH
	DB	0eH
	DB	0eH
	DB	0bH
	DB	00H
	DB	00H
	DB	00H
	DB	00H
	DB	00H
	DB	00H
	DB	00H
	DB	00H
	DB	00H
	DB	026H
	DB	0cH
	DB	026H
	DB	00H
	DB	09H
	DB	04H
	DB	08H
	DB	03H
	DB	05H
	DB	04H
	DB	08H
	DB	03H
	DB	05H
	DB	04H
	DB	08H
	DB	03H
	DB	05H
	DB	04H
	DB	08H
	DB	03H
	DB	05H
	DB	04H
	DB	08H
	DB	03H
	DB	05H
	DB	03H
	DB	08H
	DB	04H
	DB	05H
	DB	03H
	DB	08H
	DB	04H
	DB	05H
	DB	03H
	DB	08H
	DB	04H
	DB	05H
	DB	03H
	DB	08H
	DB	04H
	DB	05H
	DB	03H
	DB	08H
	DB	04H
	DB	05H
	DB	03H
	DB	08H
	DB	04H
	DB	05H
	DB	03H
	DB	08H
	DB	022H
	DB	05H
	DB	04aH
	DB	08H
	DB	022H
	DB	05H
	DB	04aH
	DB	08H
	DB	022H
	DB	05H
	DB	021H
	DB	08H
	DB	022H
	DB	05H
	DB	021H
	DB	08H
	DB	08H
	DB	05H
	DB	021H
	DB	08H
	DB	08H
	DB	05H
	DB	05H
	DB	08H
	DB	08H
	DB	05H
	DB	05H
	DB	08H
	DB	08H
	DB	021H
	DB	05H
	DB	08H
	DB	08H
	DB	021H
	DB	05H
	DB	022H
	DB	08H
	DB	021H
	DB	05H
	DB	022H
	DB	08H
	DB	04aH
	DB	05H
	DB	022H
	DB	08H
	DB	04aH
	DB	05H
	DB	04H
	DB	08H
	DB	03H
	DB	05H
	DB	04H
	DB	08H
	DB	03H
	DB	05H
	DB	04H
	DB	08H
	DB	03H
	DB	05H
	DB	04H
	DB	08H
	DB	03H
	DB	05H
	DB	04H
	DB	08H
	DB	03H
	DB	05H
	DB	04H
	DB	08H
	DB	03H
	DB	05H
	DB	04H
	DB	08H
	DB	03H
	DB	05H
	DB	03H
	DB	08H
	DB	04H
	DB	05H
	DB	03H
	DB	08H
	DB	04H
	DB	05H
	DB	03H
	DB	08H
	DB	04H
	DB	05H
	DB	03H
	DB	08H
	DB	04H
	DB	05H
	DB	03H
	DB	08H
	DB	04H
	DB	05H
	DB	03H
	DB	08H
	DB	04H
	DB	05H
	DB	03H
	DB	08H
	DB	022H
	DB	05H
	DB	04aH
	DB	08H
	DB	022H
	DB	05H
	DB	04aH
	DB	08H
	DB	022H
	DB	05H
	DB	021H
	DB	08H
	DB	022H
	DB	05H
	DB	021H
	DB	08H
	DB	08H
	DB	0e4H
	DB	060H
	DB	036H
	DB	03fH
	DB	03fH
	DB	03fH
	DB	036H
	DB	06eH
	DB	024H
	DB	037H
	DB	00H
	DB	00H
	DB	00H
	DB	00H
	DB	00H
	DB	00H
	DB	00H
	DB	00H
	DB	00H
	DB	00H
	DB	00H
	DB	00H
	DB	00H
	DB	00H
	DB	00H
	DB	038H
	DB	043H
	DB	044H
	DB	07H
	DB	07H
	DB	025H
	DB	016H
	DB	045H
	DB	030H
	DB	00H
	DB	00H
	DB	07H
	DB	07H
	DB	07H
	DB	023H
	DB	014H
	DB	014H
	DB	014H
	DB	015H
	DB	0d9H
	DB	075H
	DB	075H
	DB	075H
	DB	0a3H
	DB	0eH
	DB	0bfH
	DB	00H
	DB	00H
	DB	00H
	DB	00H
	DB	00H
	DB	00H
	DB	00H
	DB	00H
	DB	00H
	DB	09H
	DB	0cH
	DB	0cH
	DB	05H
	DB	00H
	DB	0bH
	DB	05H
	DB	06H
	DB	03H
	DB	04H
	DB	05H
	DB	06H
	DB	04aH
	DB	04H
	DB	05H
	DB	06H
	DB	021H
	DB	04H
	DB	05H
	DB	06H
	DB	021H
	DB	04H
	DB	021H
	DB	06H
	DB	021H
	DB	04H
	DB	021H
	DB	06H
	DB	021H
	DB	04H
	DB	021H
	DB	06H
	DB	05H
	DB	04H
	DB	04aH
	DB	06H
	DB	05H
	DB	04H
	DB	04aH
	DB	06H
	DB	05H
	DB	04H
	DB	03H
	DB	06H
	DB	05H
	DB	04H
	DB	03H
	DB	06H
	DB	05H
	DB	04H
	DB	03H
	DB	06H
	DB	05H
	DB	04H
	DB	03H
	DB	06H
	DB	06H
	DB	04H
	DB	03H
	DB	06H
	DB	06H
	DB	04H
	DB	03H
	DB	06H
	DB	06H
	DB	04H
	DB	03H
	DB	06H
	DB	06H
	DB	04H
	DB	04H
	DB	06H
	DB	06H
	DB	04H
	DB	04H
	DB	06H
	DB	06H
	DB	04H
	DB	04H
	DB	06H
	DB	06H
	DB	04H
	DB	04H
	DB	06H
	DB	06H
	DB	03H
	DB	04H
	DB	06H
	DB	06H
	DB	03H
	DB	04H
	DB	06H
	DB	06H
	DB	03H
	DB	04H
	DB	06H
	DB	06H
	DB	03H
	DB	04H
	DB	05H
	DB	06H
	DB	03H
	DB	04H
	DB	05H
	DB	06H
	DB	03H
	DB	04H
	DB	05H
	DB	06H
	DB	03H
	DB	04H
	DB	05H
	DB	06H
	DB	04aH
	DB	04H
	DB	05H
	DB	06H
	DB	021H
	DB	04H
	DB	05H
	DB	06H
	DB	021H
	DB	04H
	DB	021H
	DB	06H
	DB	021H
	DB	04H
	DB	021H
	DB	06H
	DB	021H
	DB	04H
	DB	021H
	DB	06H
	DB	05H
	DB	04H
	DB	04aH
	DB	06H
	DB	05H
	DB	04H
	DB	04aH
	DB	06H
	DB	05H
	DB	04H
	DB	03H
	DB	06H
	DB	05H
	DB	04H
	DB	03H
	DB	06H
	DB	05H
	DB	04H
	DB	03H
	DB	06H
	DB	05H
	DB	04H
	DB	03H
	DB	06H
	DB	06H
	DB	04H
	DB	03H
	DB	06H
	DB	06H
	DB	04H
	DB	03H
	DB	06H
	DB	06H
	DB	04H
	DB	0e6H
	DB	065H
	DB	02eH
	DB	02eH
	DB	08aH
	DB	03fH
	DB	03fH
	DB	02bH
	DB	01aH
	DB	0dH
	DB	00H
	DB	00H
	DB	00H
	DB	00H
	DB	00H
	DB	00H
	DB	00H
	DB	00H
	DB	00H
	DB	00H
	DB	00H
	DB	00H
	DB	00H
	DB	00H
	DB	00H
	DB	00H
	DB	00H
	DB	00H
	DB	01fH
	DB	043H
	DB	043H
	DB	07H
	DB	07H
	DB	07H
	DB	016H
	DB	010H
	DB	030H
	DB	00H
	DB	0dH
	DB	07H
	DB	07H
	DB	07H
	DB	05cH
	DB	014H
	DB	014H
	DB	014H
	DB	07bH
	DB	011H
	DB	075H
	DB	075H
	DB	075H
	DB	06fH
	DB	0eH
	DB	026H
	DB	00H
	DB	00H
	DB	00H
	DB	00H
	DB	00H
	DB	00H
	DB	00H
	DB	00H
	DB	00H
	DB	04H
	DB	0cH
	DB	0cH
	DB	04H
	DB	00H
	DB	0bH
	DB	03H
	DB	05H
	DB	04H
	DB	0bH
	DB	03H
	DB	05H
	DB	04H
	DB	0bH
	DB	03H
	DB	05H
	DB	04H
	DB	0bH
	DB	03H
	DB	05H
	DB	04H
	DB	0bH
	DB	03H
	DB	05H
	DB	04H
	DB	0bH
	DB	04H
	DB	05H
	DB	03H
	DB	0bH
	DB	04H
	DB	05H
	DB	03H
	DB	0bH
	DB	04H
	DB	05H
	DB	03H
	DB	0bH
	DB	04H
	DB	05H
	DB	03H
	DB	0bH
	DB	04H
	DB	05H
	DB	03H
	DB	0bH
	DB	04H
	DB	05H
	DB	03H
	DB	0bH
	DB	022H
	DB	05H
	DB	04aH
	DB	0bH
	DB	022H
	DB	05H
	DB	04aH
	DB	0bH
	DB	022H
	DB	05H
	DB	021H
	DB	0bH
	DB	022H
	DB	05H
	DB	021H
	DB	0bH
	DB	08H
	DB	05H
	DB	021H
	DB	0bH
	DB	08H
	DB	05H
	DB	05H
	DB	0bH
	DB	0bH
	DB	05H
	DB	05H
	DB	08H
	DB	0bH
	DB	021H
	DB	05H
	DB	08H
	DB	0bH
	DB	021H
	DB	05H
	DB	08H
	DB	0bH
	DB	021H
	DB	05H
	DB	022H
	DB	0bH
	DB	021H
	DB	05H
	DB	022H
	DB	0bH
	DB	04aH
	DB	05H
	DB	022H
	DB	0bH
	DB	03H
	DB	05H
	DB	04H
	DB	0bH
	DB	03H
	DB	05H
	DB	04H
	DB	0bH
	DB	03H
	DB	05H
	DB	04H
	DB	0bH
	DB	03H
	DB	05H
	DB	04H
	DB	0bH
	DB	03H
	DB	05H
	DB	04H
	DB	0bH
	DB	03H
	DB	05H
	DB	04H
	DB	0bH
	DB	03H
	DB	05H
	DB	04H
	DB	0bH
	DB	04H
	DB	05H
	DB	03H
	DB	0bH
	DB	04H
	DB	05H
	DB	03H
	DB	0bH
	DB	04H
	DB	05H
	DB	03H
	DB	0bH
	DB	04H
	DB	05H
	DB	03H
	DB	0bH
	DB	04H
	DB	05H
	DB	03H
	DB	0bH
	DB	04H
	DB	05H
	DB	03H
	DB	0bH
	DB	022H
	DB	05H
	DB	04aH
	DB	0bH
	DB	022H
	DB	05H
	DB	04aH
	DB	0bH
	DB	022H
	DB	05H
	DB	021H
	DB	0bH
	DB	0aaH
	DB	089H
	DB	02eH
	DB	02eH
	DB	02eH
	DB	02eH
	DB	02eH
	DB	076H
	DB	05fH
	DB	010H
	DB	00H
	DB	00H
	DB	00H
	DB	00H
	DB	00H
	DB	00H
	DB	00H
	DB	00H
	DB	00H
	DB	00H
	DB	00H
	DB	00H
	DB	00H
	DB	00H
	DB	00H
	DB	00H
	DB	00H
	DB	00H
	DB	00H
	DB	00H
	DB	00H
	DB	00H
	DB	00H
	DB	043H
	DB	043H
	DB	07H
	DB	07H
	DB	07H
	DB	01aH
	DB	010H
	DB	02dH
	DB	00H
	DB	024H
	DB	07H
	DB	07H
	DB	07H
	DB	0beH
	DB	014H
	DB	014H
	DB	014H
	DB	017H
	DB	011H
	DB	075H
	DB	075H
	DB	099H
	DB	080H
	DB	0eH
	DB	05H
	DB	00H
	DB	00H
	DB	00H
	DB	00H
	DB	00H
	DB	00H
	DB	00H
	DB	00H
	DB	00H
	DB	021H
	DB	0cH
	DB	0cH
	DB	09H
	DB	00H
	DB	06H
	DB	03H
	DB	04H
	DB	05H
	DB	06H
	DB	04aH
	DB	04H
	DB	05H
	DB	06H
	DB	04aH
	DB	04H
	DB	05H
	DB	06H
	DB	021H
	DB	04H
	DB	05H
	DB	06H
	DB	021H
	DB	04H
	DB	021H
	DB	06H
	DB	021H
	DB	04H
	DB	021H
	DB	06H
	DB	05H
	DB	04H
	DB	021H
	DB	06H
	DB	05H
	DB	04H
	DB	04aH
	DB	06H
	DB	05H
	DB	04H
	DB	04aH
	DB	06H
	DB	05H
	DB	04H
	DB	03H
	DB	06H
	DB	05H
	DB	04H
	DB	03H
	DB	06H
	DB	05H
	DB	04H
	DB	03H
	DB	06H
	DB	06H
	DB	04H
	DB	03H
	DB	06H
	DB	06H
	DB	04H
	DB	03H
	DB	06H
	DB	06H
	DB	04H
	DB	03H
	DB	06H
	DB	06H
	DB	04H
	DB	04H
	DB	06H
	DB	06H
	DB	04H
	DB	04H
	DB	06H
	DB	06H
	DB	04H
	DB	04H
	DB	06H
	DB	06H
	DB	04H
	DB	04H
	DB	06H
	DB	06H
	DB	03H
	DB	04H
	DB	06H
	DB	06H
	DB	03H
	DB	04H
	DB	06H
	DB	06H
	DB	03H
	DB	04H
	DB	06H
	DB	06H
	DB	03H
	DB	04H
	DB	06H
	DB	06H
	DB	03H
	DB	04H
	DB	05H
	DB	06H
	DB	03H
	DB	04H
	DB	05H
	DB	06H
	DB	03H
	DB	04H
	DB	05H
	DB	06H
	DB	04aH
	DB	04H
	DB	05H
	DB	06H
	DB	04aH
	DB	04H
	DB	05H
	DB	06H
	DB	021H
	DB	04H
	DB	05H
	DB	06H
	DB	021H
	DB	04H
	DB	021H
	DB	06H
	DB	021H
	DB	04H
	DB	021H
	DB	06H
	DB	05H
	DB	04H
	DB	021H
	DB	06H
	DB	05H
	DB	04H
	DB	04aH
	DB	06H
	DB	05H
	DB	04H
	DB	04aH
	DB	06H
	DB	05H
	DB	04H
	DB	03H
	DB	06H
	DB	05H
	DB	04H
	DB	03H
	DB	06H
	DB	05H
	DB	04H
	DB	03H
	DB	06H
	DB	06H
	DB	04H
	DB	03H
	DB	06H
	DB	06H
	DB	0e6H
	DB	065H
	DB	09dH
	DB	08bH
	DB	025H
	DB	02eH
	DB	02eH
	DB	03dH
	DB	050H
	DB	03aH
	DB	00H
	DB	00H
	DB	00H
	DB	00H
	DB	00H
	DB	00H
	DB	00H
	DB	00H
	DB	00H
	DB	00H
	DB	00H
	DB	00H
	DB	00H
	DB	00H
	DB	00H
	DB	00H
	DB	00H
	DB	00H
	DB	00H
	DB	00H
	DB	00H
	DB	00H
	DB	00H
	DB	00H
	DB	00H
	DB	00H
	DB	043H
	DB	043H
	DB	07H
	DB	07H
	DB	07H
	DB	02bH
	DB	019H
	DB	01aH
	DB	00H
	DB	03dH
	DB	07H
	DB	07H
	DB	07H
	DB	014H
	DB	014H
	DB	014H
	DB	014H
	DB	0d8H
	DB	075H
	DB	075H
	DB	075H
	DB	0b2H
	DB	052H
	DB	0eH
	DB	03H
	DB	00H
	DB	00H
	DB	00H
	DB	00H
	DB	00H
	DB	00H
	DB	00H
	DB	00H
	DB	00H
	DB	026H
	DB	0cH
	DB	02cH
	DB	00H
	DB	09H
	DB	05H
	DB	04H
	DB	0bH
	DB	03H
	DB	05H
	DB	04H
	DB	0bH
	DB	03H
	DB	05H
	DB	04H
	DB	0bH
	DB	03H
	DB	05H
	DB	04H
	DB	0bH
	DB	03H
	DB	05H
	DB	04H
	DB	0bH
	DB	04H
	DB	05H
	DB	04H
	DB	0bH
	DB	04H
	DB	05H
	DB	03H
	DB	0bH
	DB	04H
	DB	05H
	DB	03H
	DB	0bH
	DB	04H
	DB	05H
	DB	03H
	DB	0bH
	DB	04H
	DB	05H
	DB	03H
	DB	0bH
	DB	04H
	DB	05H
	DB	03H
	DB	0bH
	DB	022H
	DB	05H
	DB	03H
	DB	0bH
	DB	022H
	DB	05H
	DB	04aH
	DB	0bH
	DB	022H
	DB	05H
	DB	021H
	DB	0bH
	DB	022H
	DB	05H
	DB	021H
	DB	0bH
	DB	08H
	DB	05H
	DB	021H
	DB	0bH
	DB	08H
	DB	05H
	DB	05H
	DB	0bH
	DB	0bH
	DB	05H
	DB	05H
	DB	0bH
	DB	0bH
	DB	05H
	DB	05H
	DB	0bH
	DB	0bH
	DB	021H
	DB	05H
	DB	08H
	DB	0bH
	DB	021H
	DB	05H
	DB	08H
	DB	0bH
	DB	021H
	DB	05H
	DB	022H
	DB	0bH
	DB	04aH
	DB	05H
	DB	022H
	DB	0bH
	DB	04aH
	DB	05H
	DB	022H
	DB	0bH
	DB	03H
	DB	05H
	DB	04H
	DB	0bH
	DB	03H
	DB	05H
	DB	04H
	DB	0bH
	DB	03H
	DB	05H
	DB	04H
	DB	0bH
	DB	03H
	DB	05H
	DB	04H
	DB	0bH
	DB	03H
	DB	05H
	DB	04H
	DB	0bH
	DB	03H
	DB	05H
	DB	04H
	DB	0bH
	DB	04H
	DB	05H
	DB	04H
	DB	0bH
	DB	04H
	DB	05H
	DB	03H
	DB	0bH
	DB	04H
	DB	05H
	DB	03H
	DB	0bH
	DB	04H
	DB	05H
	DB	03H
	DB	0bH
	DB	04H
	DB	05H
	DB	03H
	DB	0bH
	DB	04H
	DB	05H
	DB	03H
	DB	0bH
	DB	022H
	DB	05H
	DB	03H
	DB	0bH
	DB	022H
	DB	05H
	DB	04aH
	DB	033H
	DB	0e7H
	DB	09dH
	DB	096H
	DB	08bH
	DB	08bH
	DB	08bH
	DB	03fH
	DB	02bH
	DB	045H
	DB	032H
	DB	00H
	DB	00H
	DB	00H
	DB	00H
	DB	00H
	DB	00H
	DB	00H
	DB	00H
	DB	00H
	DB	00H
	DB	00H
	DB	00H
	DB	00H
	DB	00H
	DB	00H
	DB	00H
	DB	00H
	DB	00H
	DB	00H
	DB	00H
	DB	00H
	DB	00H
	DB	00H
	DB	00H
	DB	00H
	DB	00H
	DB	00H
	DB	00H
	DB	00H
	DB	047H
	DB	047H
	DB	025H
	DB	07H
	DB	07H
	DB	036H
	DB	0dH
	DB	0dH
	DB	00H
	DB	08aH
	DB	07H
	DB	07H
	DB	046H
	DB	014H
	DB	014H
	DB	014H
	DB	067H
	DB	086H
	DB	075H
	DB	075H
	DB	075H
	DB	0b2H
	DB	0eH
	DB	0eH
	DB	0bH
	DB	00H
	DB	00H
	DB	00H
	DB	00H
	DB	00H
	DB	00H
	DB	00H
	DB	00H
	DB	00H
	DB	031H
	DB	0cH
	DB	06H
	DB	00H
	DB	0bH
	DB	04H
	DB	05H
	DB	06H
	DB	04aH
	DB	04H
	DB	05H
	DB	06H
	DB	04aH
	DB	04H
	DB	05H
	DB	06H
	DB	021H
	DB	04H
	DB	05H
	DB	06H
	DB	021H
	DB	04H
	DB	021H
	DB	06H
	DB	021H
	DB	04H
	DB	021H
	DB	06H
	DB	05H
	DB	04H
	DB	021H
	DB	06H
	DB	05H
	DB	04H
	DB	021H
	DB	06H
	DB	05H
	DB	04H
	DB	04aH
	DB	06H
	DB	05H
	DB	04H
	DB	03H
	DB	06H
	DB	05H
	DB	04H
	DB	03H
	DB	06H
	DB	05H
	DB	04H
	DB	03H
	DB	06H
	DB	06H
	DB	04H
	DB	03H
	DB	06H
	DB	06H
	DB	04H
	DB	03H
	DB	06H
	DB	06H
	DB	04H
	DB	03H
	DB	06H
	DB	06H
	DB	04H
	DB	03H
	DB	06H
	DB	06H
	DB	04H
	DB	04H
	DB	06H
	DB	06H
	DB	04H
	DB	04H
	DB	06H
	DB	06H
	DB	04H
	DB	04H
	DB	06H
	DB	06H
	DB	03H
	DB	04H
	DB	06H
	DB	06H
	DB	03H
	DB	04H
	DB	06H
	DB	06H
	DB	03H
	DB	04H
	DB	06H
	DB	06H
	DB	03H
	DB	04H
	DB	06H
	DB	06H
	DB	03H
	DB	04H
	DB	06H
	DB	06H
	DB	03H
	DB	04H
	DB	05H
	DB	06H
	DB	03H
	DB	04H
	DB	05H
	DB	06H
	DB	04aH
	DB	04H
	DB	05H
	DB	06H
	DB	04aH
	DB	04H
	DB	05H
	DB	06H
	DB	021H
	DB	04H
	DB	05H
	DB	06H
	DB	021H
	DB	04H
	DB	021H
	DB	06H
	DB	021H
	DB	04H
	DB	021H
	DB	06H
	DB	05H
	DB	04H
	DB	021H
	DB	06H
	DB	05H
	DB	04H
	DB	021H
	DB	06H
	DB	05H
	DB	04H
	DB	04aH
	DB	06H
	DB	05H
	DB	04H
	DB	03H
	DB	06H
	DB	05H
	DB	04H
	DB	03H
	DB	06H
	DB	05H
	DB	04H
	DB	03H
	DB	06H
	DB	0e5H
	DB	065H
	DB	096H
	DB	07H
	DB	096H
	DB	096H
	DB	08bH
	DB	048H
	DB	024H
	DB	037H
	DB	00H
	DB	00H
	DB	00H
	DB	00H
	DB	00H
	DB	00H
	DB	00H
	DB	00H
	DB	00H
	DB	00H
	DB	00H
	DB	00H
	DB	00H
	DB	00H
	DB	00H
	DB	00H
	DB	00H
	DB	00H
	DB	00H
	DB	00H
	DB	00H
	DB	00H
	DB	00H
	DB	00H
	DB	00H
	DB	00H
	DB	00H
	DB	00H
	DB	00H
	DB	00H
	DB	00H
	DB	00H
	DB	00H
	DB	04cH
	DB	047H
	DB	06eH
	DB	07H
	DB	07H
	DB	02eH
	DB	01fH
	DB	0dH
	DB	00H
	DB	025H
	DB	07H
	DB	07H
	DB	023H
	DB	014H
	DB	014H
	DB	014H
	DB	077H
	DB	0aH
	DB	075H
	DB	075H
	DB	075H
	DB	08fH
	DB	0eH
	DB	0eH
	DB	00H
	DB	00H
	DB	00H
	DB	00H
	DB	00H
	DB	00H
	DB	00H
	DB	00H
	DB	00H
	DB	09H
	DB	0cH
	DB	0cH
	DB	04aH
	DB	00H
	DB	0bH
	DB	0bH
	DB	03H
	DB	05H
	DB	04H
	DB	0bH
	DB	03H
	DB	05H
	DB	04H
	DB	0bH
	DB	03H
	DB	05H
	DB	04H
	DB	0bH
	DB	03H
	DB	05H
	DB	04H
	DB	0bH
	DB	04H
	DB	05H
	DB	04H
	DB	0bH
	DB	04H
	DB	05H
	DB	03H
	DB	0bH
	DB	04H
	DB	05H
	DB	03H
	DB	0bH
	DB	04H
	DB	05H
	DB	03H
	DB	0bH
	DB	04H
	DB	05H
	DB	03H
	DB	0bH
	DB	04H
	DB	05H
	DB	03H
	DB	0bH
	DB	022H
	DB	05H
	DB	03H
	DB	0bH
	DB	022H
	DB	05H
	DB	04aH
	DB	0bH
	DB	022H
	DB	05H
	DB	04aH
	DB	0bH
	DB	08H
	DB	05H
	DB	021H
	DB	0bH
	DB	08H
	DB	05H
	DB	021H
	DB	0bH
	DB	08H
	DB	05H
	DB	021H
	DB	0bH
	DB	0bH
	DB	05H
	DB	05H
	DB	0bH
	DB	0bH
	DB	05H
	DB	05H
	DB	0bH
	DB	0bH
	DB	05H
	DB	05H
	DB	0bH
	DB	0bH
	DB	021H
	DB	05H
	DB	08H
	DB	0bH
	DB	021H
	DB	05H
	DB	08H
	DB	0bH
	DB	021H
	DB	05H
	DB	022H
	DB	0bH
	DB	04aH
	DB	05H
	DB	022H
	DB	0bH
	DB	03H
	DB	05H
	DB	022H
	DB	0bH
	DB	03H
	DB	05H
	DB	04H
	DB	0bH
	DB	03H
	DB	05H
	DB	04H
	DB	0bH
	DB	03H
	DB	05H
	DB	04H
	DB	0bH
	DB	03H
	DB	05H
	DB	04H
	DB	0bH
	DB	03H
	DB	05H
	DB	04H
	DB	0bH
	DB	04H
	DB	05H
	DB	04H
	DB	0bH
	DB	04H
	DB	05H
	DB	03H
	DB	0bH
	DB	04H
	DB	05H
	DB	03H
	DB	0bH
	DB	04H
	DB	05H
	DB	03H
	DB	0bH
	DB	04H
	DB	05H
	DB	03H
	DB	0bH
	DB	04H
	DB	05H
	DB	03H
	DB	0bH
	DB	022H
	DB	05H
	DB	0deH
	DB	041H
	DB	09dH
	DB	066H
	DB	046H
	DB	046H
	DB	07H
	DB	02eH
	DB	03dH
	DB	01aH
	DB	01fH
	DB	00H
	DB	00H
	DB	00H
	DB	00H
	DB	00H
	DB	00H
	DB	00H
	DB	00H
	DB	00H
	DB	00H
	DB	00H
	DB	00H
	DB	00H
	DB	00H
	DB	00H
	DB	00H
	DB	00H
	DB	00H
	DB	00H
	DB	00H
	DB	00H
	DB	00H
	DB	00H
	DB	00H
	DB	00H
	DB	00H
	DB	00H
	DB	00H
	DB	00H
	DB	00H
	DB	00H
	DB	00H
	DB	00H
	DB	00H
	DB	00H
	DB	00H
	DB	039H
	DB	047H
	DB	043H
	DB	07H
	DB	07H
	DB	025H
	DB	0dH
	DB	010H
	DB	00H
	DB	07H
	DB	07H
	DB	07H
	DB	023H
	DB	014H
	DB	014H
	DB	014H
	DB	015H
	DB	0d9H
	DB	075H
	DB	075H
	DB	075H
	DB	07aH
	DB	0eH
	DB	02cH
	DB	00H
	DB	00H
	DB	00H
	DB	00H
	DB	00H
	DB	00H
	DB	00H
	DB	00H
	DB	00H
	DB	04H
	DB	0cH
	DB	0cH
	DB	022H
	DB	00H
	DB	03H
	DB	06H
	DB	04aH
	DB	04H
	DB	05H
	DB	06H
	DB	04aH
	DB	04H
	DB	05H
	DB	06H
	DB	021H
	DB	04H
	DB	05H
	DB	06H
	DB	021H
	DB	04H
	DB	05H
	DB	06H
	DB	021H
	DB	04H
	DB	021H
	DB	06H
	DB	021H
	DB	04H
	DB	021H
	DB	06H
	DB	05H
	DB	04H
	DB	021H
	DB	06H
	DB	05H
	DB	04H
	DB	04aH
	DB	06H
	DB	05H
	DB	04H
	DB	04aH
	DB	06H
	DB	05H
	DB	04H
	DB	03H
	DB	06H
	DB	05H
	DB	04H
	DB	03H
	DB	06H
	DB	06H
	DB	04H
	DB	03H
	DB	06H
	DB	06H
	DB	04H
	DB	03H
	DB	06H
	DB	06H
	DB	04H
	DB	03H
	DB	06H
	DB	06H
	DB	04H
	DB	03H
	DB	06H
	DB	06H
	DB	04H
	DB	03H
	DB	06H
	DB	06H
	DB	04H
	DB	04H
	DB	06H
	DB	06H
	DB	04H
	DB	04H
	DB	06H
	DB	06H
	DB	04H
	DB	04H
	DB	06H
	DB	06H
	DB	03H
	DB	04H
	DB	06H
	DB	06H
	DB	03H
	DB	04H
	DB	06H
	DB	06H
	DB	03H
	DB	04H
	DB	06H
	DB	06H
	DB	03H
	DB	04H
	DB	06H
	DB	06H
	DB	03H
	DB	04H
	DB	05H
	DB	06H
	DB	03H
	DB	04H
	DB	05H
	DB	06H
	DB	04aH
	DB	04H
	DB	05H
	DB	06H
	DB	04aH
	DB	04H
	DB	05H
	DB	06H
	DB	021H
	DB	04H
	DB	05H
	DB	06H
	DB	021H
	DB	04H
	DB	05H
	DB	06H
	DB	021H
	DB	04H
	DB	021H
	DB	06H
	DB	021H
	DB	04H
	DB	021H
	DB	06H
	DB	05H
	DB	04H
	DB	021H
	DB	06H
	DB	05H
	DB	04H
	DB	04aH
	DB	06H
	DB	05H
	DB	04H
	DB	04aH
	DB	06H
	DB	05H
	DB	04H
	DB	03H
	DB	0e5H
	DB	0bcH
	DB	066H
	DB	066H
	DB	066H
	DB	066H
	DB	046H
	DB	036H
	DB	05fH
	DB	010H
	DB	00H
	DB	00H
	DB	00H
	DB	00H
	DB	00H
	DB	00H
	DB	00H
	DB	00H
	DB	00H
	DB	00H
	DB	00H
	DB	00H
	DB	00H
	DB	00H
	DB	00H
	DB	00H
	DB	00H
	DB	00H
	DB	00H
	DB	00H
	DB	00H
	DB	00H
	DB	00H
	DB	00H
	DB	00H
	DB	00H
	DB	00H
	DB	00H
	DB	00H
	DB	00H
	DB	00H
	DB	00H
	DB	00H
	DB	00H
	DB	00H
	DB	00H
	DB	00H
	DB	00H
	DB	00H
	DB	00H
	DB	00H
	DB	02fH
	DB	02fH
	DB	07H
	DB	07H
	DB	07H
	DB	0dH
	DB	0dH
	DB	032H
	DB	07H
	DB	07H
	DB	07H
	DB	023H
	DB	014H
	DB	014H
	DB	014H
	DB	0c5H
	DB	011H
	DB	018H
	DB	018H
	DB	075H
	DB	06fH
	DB	0eH
	DB	026H
	DB	00H
	DB	00H
	DB	00H
	DB	00H
	DB	00H
	DB	00H
	DB	00H
	DB	00H
	DB	00H
	DB	04aH
	DB	0cH
	DB	0cH
	DB	09H
	DB	00H
	DB	03H
	DB	05H
	DB	04H
	DB	0bH
	DB	03H
	DB	05H
	DB	04H
	DB	0bH
	DB	03H
	DB	05H
	DB	04H
	DB	0bH
	DB	03H
	DB	05H
	DB	04H
	DB	0bH
	DB	03H
	DB	05H
	DB	04H
	DB	0bH
	DB	04H
	DB	05H
	DB	04H
	DB	0bH
	DB	04H
	DB	05H
	DB	03H
	DB	0bH
	DB	04H
	DB	05H
	DB	03H
	DB	0bH
	DB	04H
	DB	05H
	DB	03H
	DB	0bH
	DB	04H
	DB	05H
	DB	03H
	DB	0bH
	DB	022H
	DB	05H
	DB	03H
	DB	0bH
	DB	022H
	DB	05H
	DB	03H
	DB	0bH
	DB	022H
	DB	05H
	DB	04aH
	DB	0bH
	DB	08H
	DB	05H
	DB	021H
	DB	0bH
	DB	08H
	DB	05H
	DB	021H
	DB	0bH
	DB	08H
	DB	05H
	DB	021H
	DB	0bH
	DB	0bH
	DB	05H
	DB	05H
	DB	0bH
	DB	0bH
	DB	05H
	DB	05H
	DB	0bH
	DB	0bH
	DB	05H
	DB	05H
	DB	0bH
	DB	0bH
	DB	05H
	DB	05H
	DB	0bH
	DB	0bH
	DB	021H
	DB	05H
	DB	08H
	DB	0bH
	DB	021H
	DB	05H
	DB	08H
	DB	0bH
	DB	04aH
	DB	05H
	DB	022H
	DB	0bH
	DB	04aH
	DB	05H
	DB	022H
	DB	0bH
	DB	03H
	DB	05H
	DB	022H
	DB	0bH
	DB	03H
	DB	05H
	DB	04H
	DB	0bH
	DB	03H
	DB	05H
	DB	04H
	DB	0bH
	DB	03H
	DB	05H
	DB	04H
	DB	0bH
	DB	03H
	DB	05H
	DB	04H
	DB	0bH
	DB	03H
	DB	05H
	DB	04H
	DB	0bH
	DB	04H
	DB	05H
	DB	04H
	DB	0bH
	DB	04H
	DB	05H
	DB	03H
	DB	0bH
	DB	04H
	DB	05H
	DB	03H
	DB	0bH
	DB	04H
	DB	05H
	DB	03H
	DB	0bH
	DB	04H
	DB	05H
	DB	089H
	DB	096H
	DB	066H
	DB	066H
	DB	066H
	DB	066H
	DB	096H
	DB	048H
	DB	024H
	DB	039H
	DB	00H
	DB	00H
	DB	00H
	DB	00H
	DB	00H
	DB	00H
	DB	00H
	DB	00H
	DB	00H
	DB	00H
	DB	00H
	DB	00H
	DB	00H
	DB	00H
	DB	00H
	DB	00H
	DB	00H
	DB	00H
	DB	00H
	DB	00H
	DB	00H
	DB	00H
	DB	00H
	DB	00H
	DB	00H
	DB	00H
	DB	00H
	DB	00H
	DB	00H
	DB	00H
	DB	00H
	DB	00H
	DB	00H
	DB	00H
	DB	00H
	DB	00H
	DB	00H
	DB	00H
	DB	00H
	DB	00H
	DB	00H
	DB	00H
	DB	00H
	DB	00H
	DB	02fH
	DB	02fH
	DB	07H
	DB	07H
	DB	07H
	DB	03aH
	DB	013H
	DB	010H
	DB	07H
	DB	07H
	DB	07H
	DB	05cH
	DB	014H
	DB	014H
	DB	014H
	DB	07bH
	DB	011H
	DB	018H
	DB	018H
	DB	099H
	DB	081H
	DB	0eH
	DB	06H
	DB	00H
	DB	00H
	DB	00H
	DB	00H
	DB	00H
	DB	00H
	DB	00H
	DB	00H
	DB	00H
	DB	06H
	DB	0cH
	DB	02cH
	DB	00H
	DB	09H
	DB	03H
	DB	04H
	DB	05H
	DB	06H
	DB	04aH
	DB	04H
	DB	05H
	DB	06H
	DB	021H
	DB	04H
	DB	05H
	DB	06H
	DB	021H
	DB	04H
	DB	05H
	DB	06H
	DB	021H
	DB	04H
	DB	05H
	DB	06H
	DB	021H
	DB	04H
	DB	021H
	DB	06H
	DB	05H
	DB	04H
	DB	021H
	DB	06H
	DB	05H
	DB	04H
	DB	021H
	DB	06H
	DB	05H
	DB	04H
	DB	04aH
	DB	06H
	DB	05H
	DB	04H
	DB	04aH
	DB	06H
	DB	05H
	DB	04H
	DB	03H
	DB	06H
	DB	05H
	DB	04H
	DB	03H
	DB	06H
	DB	06H
	DB	04H
	DB	03H
	DB	06H
	DB	06H
	DB	04H
	DB	03H
	DB	06H
	DB	06H
	DB	04H
	DB	03H
	DB	06H
	DB	06H
	DB	04H
	DB	03H
	DB	06H
	DB	06H
	DB	04H
	DB	03H
	DB	06H
	DB	06H
	DB	04H
	DB	04H
	DB	06H
	DB	06H
	DB	04H
	DB	04H
	DB	06H
	DB	06H
	DB	03H
	DB	04H
	DB	06H
	DB	06H
	DB	03H
	DB	04H
	DB	06H
	DB	06H
	DB	03H
	DB	04H
	DB	06H
	DB	06H
	DB	03H
	DB	04H
	DB	06H
	DB	06H
	DB	03H
	DB	04H
	DB	06H
	DB	06H
	DB	03H
	DB	04H
	DB	05H
	DB	06H
	DB	03H
	DB	04H
	DB	05H
	DB	06H
	DB	04aH
	DB	04H
	DB	05H
	DB	06H
	DB	021H
	DB	04H
	DB	05H
	DB	06H
	DB	021H
	DB	04H
	DB	05H
	DB	06H
	DB	021H
	DB	04H
	DB	05H
	DB	06H
	DB	021H
	DB	04H
	DB	021H
	DB	06H
	DB	05H
	DB	04H
	DB	021H
	DB	06H
	DB	05H
	DB	04H
	DB	021H
	DB	06H
	DB	05H
	DB	04H
	DB	0baH
	DB	0bcH
	DB	066H
	DB	023H
	DB	023H
	DB	023H
	DB	066H
	DB	02eH
	DB	060H
	DB	040H
	DB	00H
	DB	00H
	DB	00H
	DB	00H
	DB	00H
	DB	00H
	DB	00H
	DB	00H
	DB	00H
	DB	00H
	DB	00H
	DB	00H
	DB	00H
	DB	00H
	DB	00H
	DB	00H
	DB	00H
	DB	00H
	DB	00H
	DB	00H
	DB	00H
	DB	00H
	DB	00H
	DB	00H
	DB	00H
	DB	00H
	DB	00H
	DB	00H
	DB	00H
	DB	00H
	DB	00H
	DB	00H
	DB	00H
	DB	00H
	DB	00H
	DB	00H
	DB	00H
	DB	00H
	DB	00H
	DB	00H
	DB	00H
	DB	00H
	DB	00H
	DB	00H
	DB	00H
	DB	00H
	DB	00H
	DB	00H
	DB	02fH
	DB	02fH
	DB	07H
	DB	07H
	DB	07H
	DB	02fH
	DB	039H
	DB	043H
	DB	07H
	DB	07H
	DB	07H
	DB	0beH
	DB	014H
	DB	014H
	DB	014H
	DB	017H
	DB	075H
	DB	018H
	DB	018H
	DB	099H
	DB	05eH
	DB	0eH
	DB	03H
	DB	00H
	DB	00H
	DB	00H
	DB	00H
	DB	00H
	DB	00H
	DB	00H
	DB	00H
	DB	00H
	DB	026H
	DB	0cH
	DB	026H
	DB	00H
	DB	0bH
	DB	022H
	DB	0bH
	DB	03H
	DB	05H
	DB	04H
	DB	0bH
	DB	03H
	DB	05H
	DB	04H
	DB	0bH
	DB	03H
	DB	05H
	DB	04H
	DB	0bH
	DB	03H
	DB	05H
	DB	04H
	DB	0bH
	DB	04H
	DB	05H
	DB	04H
	DB	0bH
	DB	04H
	DB	05H
	DB	03H
	DB	0bH
	DB	04H
	DB	05H
	DB	03H
	DB	0bH
	DB	04H
	DB	05H
	DB	03H
	DB	0bH
	DB	04H
	DB	05H
	DB	03H
	DB	0bH
	DB	04H
	DB	05H
	DB	03H
	DB	0bH
	DB	022H
	DB	05H
	DB	03H
	DB	0bH
	DB	022H
	DB	05H
	DB	04aH
	DB	0bH
	DB	022H
	DB	05H
	DB	04aH
	DB	0bH
	DB	08H
	DB	05H
	DB	021H
	DB	0bH
	DB	08H
	DB	05H
	DB	021H
	DB	0bH
	DB	0bH
	DB	05H
	DB	05H
	DB	0bH
	DB	0bH
	DB	05H
	DB	05H
	DB	0bH
	DB	0bH
	DB	05H
	DB	05H
	DB	0bH
	DB	0bH
	DB	05H
	DB	05H
	DB	0bH
	DB	0bH
	DB	021H
	DB	05H
	DB	08H
	DB	0bH
	DB	021H
	DB	05H
	DB	08H
	DB	0bH
	DB	021H
	DB	05H
	DB	08H
	DB	0bH
	DB	04aH
	DB	05H
	DB	022H
	DB	0bH
	DB	04aH
	DB	05H
	DB	022H
	DB	0bH
	DB	03H
	DB	05H
	DB	022H
	DB	0bH
	DB	03H
	DB	05H
	DB	04H
	DB	0bH
	DB	03H
	DB	05H
	DB	04H
	DB	0bH
	DB	03H
	DB	05H
	DB	04H
	DB	0bH
	DB	03H
	DB	05H
	DB	04H
	DB	0bH
	DB	04H
	DB	05H
	DB	04H
	DB	0bH
	DB	04H
	DB	05H
	DB	03H
	DB	0bH
	DB	04H
	DB	05H
	DB	03H
	DB	0bH
	DB	04H
	DB	0bbH
	DB	08cH
	DB	023H
	DB	023H
	DB	023H
	DB	023H
	DB	023H
	DB	036H
	DB	024H
	DB	0dH
	DB	00H
	DB	00H
	DB	00H
	DB	00H
	DB	00H
	DB	00H
	DB	00H
	DB	00H
	DB	00H
	DB	00H
	DB	00H
	DB	00H
	DB	00H
	DB	00H
	DB	00H
	DB	00H
	DB	00H
	DB	00H
	DB	00H
	DB	00H
	DB	00H
	DB	00H
	DB	00H
	DB	00H
	DB	00H
	DB	00H
	DB	00H
	DB	00H
	DB	00H
	DB	00H
	DB	00H
	DB	00H
	DB	00H
	DB	00H
	DB	00H
	DB	00H
	DB	00H
	DB	00H
	DB	00H
	DB	00H
	DB	00H
	DB	00H
	DB	00H
	DB	00H
	DB	00H
	DB	00H
	DB	00H
	DB	00H
	DB	00H
	DB	00H
	DB	00H
	DB	02fH
	DB	02fH
	DB	07H
	DB	07H
	DB	07H
	DB	02bH
	DB	01fH
	DB	03dH
	DB	07H
	DB	07H
	DB	07H
	DB	014H
	DB	014H
	DB	014H
	DB	014H
	DB	0d8H
	DB	018H
	DB	018H
	DB	018H
	DB	099H
	DB	08eH
	DB	0eH
	DB	04H
	DB	00H
	DB	00H
	DB	00H
	DB	00H
	DB	00H
	DB	00H
	DB	00H
	DB	00H
	DB	00H
	DB	02cH
	DB	0cH
	DB	06H
	DB	00H
	DB	0bH
	DB	05H
	DB	06H
	DB	04aH
	DB	04H
	DB	05H
	DB	06H
	DB	04aH
	DB	04H
	DB	05H
	DB	06H
	DB	021H
	DB	04H
	DB	05H
	DB	06H
	DB	021H
	DB	04H
	DB	05H
	DB	06H
	DB	021H
	DB	04H
	DB	021H
	DB	06H
	DB	021H
	DB	04H
	DB	021H
	DB	06H
	DB	05H
	DB	04H
	DB	021H
	DB	06H
	DB	05H
	DB	04H
	DB	021H
	DB	06H
	DB	05H
	DB	04H
	DB	04aH
	DB	06H
	DB	05H
	DB	04H
	DB	03H
	DB	06H
	DB	05H
	DB	04H
	DB	03H
	DB	06H
	DB	05H
	DB	04H
	DB	03H
	DB	06H
	DB	06H
	DB	04H
	DB	03H
	DB	06H
	DB	06H
	DB	04H
	DB	03H
	DB	06H
	DB	06H
	DB	04H
	DB	03H
	DB	06H
	DB	06H
	DB	04H
	DB	03H
	DB	06H
	DB	06H
	DB	04H
	DB	03H
	DB	06H
	DB	06H
	DB	04H
	DB	04H
	DB	06H
	DB	06H
	DB	03H
	DB	04H
	DB	06H
	DB	06H
	DB	03H
	DB	04H
	DB	06H
	DB	06H
	DB	03H
	DB	04H
	DB	06H
	DB	06H
	DB	03H
	DB	04H
	DB	06H
	DB	06H
	DB	03H
	DB	04H
	DB	06H
	DB	06H
	DB	03H
	DB	04H
	DB	05H
	DB	06H
	DB	03H
	DB	04H
	DB	05H
	DB	06H
	DB	04aH
	DB	04H
	DB	05H
	DB	06H
	DB	04aH
	DB	04H
	DB	05H
	DB	06H
	DB	021H
	DB	04H
	DB	05H
	DB	06H
	DB	021H
	DB	04H
	DB	05H
	DB	06H
	DB	021H
	DB	04H
	DB	021H
	DB	06H
	DB	021H
	DB	04H
	DB	021H
	DB	06H
	DB	05H
	DB	0deH
	DB	0bcH
	DB	023H
	DB	08dH
	DB	023H
	DB	023H
	DB	023H
	DB	096H
	DB	088H
	DB	01aH
	DB	00H
	DB	00H
	DB	00H
	DB	00H
	DB	00H
	DB	00H
	DB	00H
	DB	00H
	DB	00H
	DB	00H
	DB	00H
	DB	00H
	DB	00H
	DB	00H
	DB	00H
	DB	00H
	DB	00H
	DB	00H
	DB	00H
	DB	00H
	DB	00H
	DB	00H
	DB	00H
	DB	00H
	DB	00H
	DB	00H
	DB	00H
	DB	00H
	DB	00H
	DB	00H
	DB	00H
	DB	00H
	DB	00H
	DB	00H
	DB	00H
	DB	00H
	DB	00H
	DB	00H
	DB	00H
	DB	00H
	DB	00H
	DB	00H
	DB	00H
	DB	00H
	DB	00H
	DB	00H
	DB	00H
	DB	00H
	DB	00H
	DB	00H
	DB	00H
	DB	00H
	DB	00H
	DB	00H
	DB	00H
	DB	02fH
	DB	02fH
	DB	07H
	DB	07H
	DB	07H
	DB	03dH
	DB	032H
	DB	062H
	DB	07H
	DB	07H
	DB	07H
	DB	014H
	DB	014H
	DB	014H
	DB	014H
	DB	086H
	DB	018H
	DB	018H
	DB	018H
	DB	099H
	DB	0eH
	DB	0eH
	DB	0bH
	DB	00H
	DB	00H
	DB	00H
	DB	00H
	DB	00H
	DB	00H
	DB	00H
	DB	00H
	DB	00H
	DB	0cH
	DB	0cH
	DB	021H
	DB	00H
	DB	09H
	DB	03H
	DB	05H
	DB	04H
	DB	0bH
	DB	03H
	DB	05H
	DB	04H
	DB	0bH
	DB	03H
	DB	05H
	DB	04H
	DB	0bH
	DB	03H
	DB	05H
	DB	04H
	DB	0bH
	DB	03H
	DB	05H
	DB	04H
	DB	0bH
	DB	04H
	DB	05H
	DB	04H
	DB	0bH
	DB	04H
	DB	05H
	DB	03H
	DB	0bH
	DB	04H
	DB	05H
	DB	03H
	DB	0bH
	DB	04H
	DB	05H
	DB	03H
	DB	0bH
	DB	04H
	DB	05H
	DB	03H
	DB	0bH
	DB	04H
	DB	05H
	DB	03H
	DB	0bH
	DB	022H
	DB	05H
	DB	04aH
	DB	0bH
	DB	022H
	DB	05H
	DB	04aH
	DB	0bH
	DB	022H
	DB	05H
	DB	021H
	DB	0bH
	DB	08H
	DB	05H
	DB	021H
	DB	0bH
	DB	08H
	DB	05H
	DB	021H
	DB	0bH
	DB	0bH
	DB	05H
	DB	05H
	DB	0bH
	DB	0bH
	DB	05H
	DB	05H
	DB	0bH
	DB	0bH
	DB	05H
	DB	05H
	DB	0bH
	DB	0bH
	DB	05H
	DB	05H
	DB	0bH
	DB	0bH
	DB	021H
	DB	05H
	DB	08H
	DB	0bH
	DB	021H
	DB	05H
	DB	08H
	DB	0bH
	DB	021H
	DB	05H
	DB	022H
	DB	0bH
	DB	04aH
	DB	05H
	DB	022H
	DB	0bH
	DB	03H
	DB	05H
	DB	022H
	DB	0bH
	DB	03H
	DB	05H
	DB	04H
	DB	0bH
	DB	03H
	DB	05H
	DB	04H
	DB	0bH
	DB	03H
	DB	05H
	DB	04H
	DB	0bH
	DB	03H
	DB	05H
	DB	04H
	DB	0bH
	DB	03H
	DB	05H
	DB	04H
	DB	0bH
	DB	04H
	DB	05H
	DB	04H
	DB	0bH
	DB	089H
	DB	08cH
	DB	08dH
	DB	08dH
	DB	08dH
	DB	08dH
	DB	023H
	DB	08aH
	DB	05fH
	DB	010H
	DB	00H
	DB	00H
	DB	00H
	DB	00H
	DB	00H
	DB	00H
	DB	00H
	DB	00H
	DB	00H
	DB	00H
	DB	00H
	DB	00H
	DB	00H
	DB	00H
	DB	00H
	DB	00H
	DB	00H
	DB	00H
	DB	00H
	DB	00H
	DB	00H
	DB	00H
	DB	00H
	DB	00H
	DB	00H
	DB	00H
	DB	00H
	DB	00H
	DB	00H
	DB	00H
	DB	00H
	DB	00H
	DB	00H
	DB	00H
	DB	00H
	DB	00H
	DB	00H
	DB	00H
	DB	00H
	DB	00H
	DB	00H
	DB	00H
	DB	00H
	DB	00H
	DB	00H
	DB	00H
	DB	00H
	DB	00H
	DB	00H
	DB	00H
	DB	00H
	DB	00H
	DB	00H
	DB	00H
	DB	00H
	DB	00H
	DB	00H
	DB	00H
	DB	04cH
	DB	02fH
	DB	025H
	DB	07H
	DB	07H
	DB	062H
	DB	032H
	DB	036H
	DB	07H
	DB	07H
	DB	046H
	DB	014H
	DB	014H
	DB	014H
	DB	014H
	DB	086H
	DB	018H
	DB	018H
	DB	018H
	DB	0b2H
	DB	0eH
	DB	0eH
	DB	00H
	DB	00H
	DB	00H
	DB	00H
	DB	00H
	DB	00H
	DB	00H
	DB	00H
	DB	00H
	DB	0bH
	DB	0cH
	DB	0cH
	DB	03H
	DB	00H
	DB	03H
	DB	03H
	DB	04H
	DB	05H
	DB	06H
	DB	04aH
	DB	04H
	DB	05H
	DB	06H
	DB	04aH
	DB	04H
	DB	05H
	DB	06H
	DB	021H
	DB	04H
	DB	05H
	DB	06H
	DB	021H
	DB	04H
	DB	021H
	DB	06H
	DB	021H
	DB	04H
	DB	021H
	DB	06H
	DB	021H
	DB	04H
	DB	021H
	DB	06H
	DB	05H
	DB	04H
	DB	021H
	DB	06H
	DB	05H
	DB	04H
	DB	04aH
	DB	06H
	DB	05H
	DB	04H
	DB	04aH
	DB	06H
	DB	05H
	DB	04H
	DB	03H
	DB	06H
	DB	05H
	DB	04H
	DB	03H
	DB	06H
	DB	05H
	DB	04H
	DB	03H
	DB	06H
	DB	06H
	DB	04H
	DB	03H
	DB	06H
	DB	06H
	DB	04H
	DB	03H
	DB	06H
	DB	06H
	DB	04H
	DB	03H
	DB	06H
	DB	06H
	DB	04H
	DB	03H
	DB	06H
	DB	06H
	DB	04H
	DB	04H
	DB	06H
	DB	06H
	DB	03H
	DB	04H
	DB	06H
	DB	06H
	DB	03H
	DB	04H
	DB	06H
	DB	06H
	DB	03H
	DB	04H
	DB	06H
	DB	06H
	DB	03H
	DB	04H
	DB	06H
	DB	06H
	DB	03H
	DB	04H
	DB	06H
	DB	06H
	DB	03H
	DB	04H
	DB	05H
	DB	06H
	DB	03H
	DB	04H
	DB	05H
	DB	06H
	DB	03H
	DB	04H
	DB	05H
	DB	06H
	DB	04aH
	DB	04H
	DB	05H
	DB	06H
	DB	04aH
	DB	04H
	DB	05H
	DB	06H
	DB	021H
	DB	04H
	DB	05H
	DB	06H
	DB	021H
	DB	04H
	DB	021H
	DB	06H
	DB	0baH
	DB	0bcH
	DB	08dH
	DB	08dH
	DB	08dH
	DB	08dH
	DB	08dH
	DB	066H
	DB	094H
	DB	01aH
	DB	032H
	DB	00H
	DB	00H
	DB	00H
	DB	00H
	DB	00H
	DB	00H
	DB	00H
	DB	00H
	DB	00H
	DB	00H
	DB	00H
	DB	00H
	DB	00H
	DB	00H
	DB	00H
	DB	00H
	DB	00H
	DB	00H
	DB	00H
	DB	00H
	DB	00H
	DB	00H
	DB	00H
	DB	00H
	DB	00H
	DB	00H
	DB	00H
	DB	00H
	DB	00H
	DB	00H
	DB	00H
	DB	00H
	DB	00H
	DB	00H
	DB	00H
	DB	00H
	DB	00H
	DB	00H
	DB	00H
	DB	00H
	DB	00H
	DB	00H
	DB	00H
	DB	00H
	DB	00H
	DB	00H
	DB	00H
	DB	00H
	DB	00H
	DB	00H
	DB	00H
	DB	00H
	DB	00H
	DB	00H
	DB	00H
	DB	00H
	DB	00H
	DB	00H
	DB	00H
	DB	00H
	DB	00H
	DB	038H
	DB	02fH
	DB	03fH
	DB	07H
	DB	07H
	DB	03fH
	DB	032H
	DB	08aH
	DB	07H
	DB	07H
	DB	046H
	DB	014H
	DB	014H
	DB	014H
	DB	067H
	DB	0aH
	DB	018H
	DB	018H
	DB	018H
	DB	098H
	DB	0eH
	DB	0eH
	DB	00H
	DB	00H
	DB	00H
	DB	00H
	DB	00H
	DB	00H
	DB	00H
	DB	00H
	DB	00H
	DB	022H
	DB	0cH
	DB	0cH
	DB	04H
	DB	00H
	DB	03H
	DB	04H
	DB	0bH
	DB	03H
	DB	05H
	DB	04H
	DB	0bH
	DB	03H
	DB	05H
	DB	04H
	DB	0bH
	DB	03H
	DB	05H
	DB	04H
	DB	0bH
	DB	03H
	DB	05H
	DB	04H
	DB	0bH
	DB	03H
	DB	05H
	DB	04H
	DB	0bH
	DB	04H
	DB	05H
	DB	03H
	DB	0bH
	DB	04H
	DB	05H
	DB	03H
	DB	0bH
	DB	04H
	DB	05H
	DB	03H
	DB	0bH
	DB	04H
	DB	05H
	DB	03H
	DB	0bH
	DB	04H
	DB	05H
	DB	03H
	DB	0bH
	DB	022H
	DB	05H
	DB	03H
	DB	0bH
	DB	022H
	DB	05H
	DB	04aH
	DB	0bH
	DB	022H
	DB	05H
	DB	021H
	DB	0bH
	DB	08H
	DB	05H
	DB	021H
	DB	0bH
	DB	08H
	DB	05H
	DB	021H
	DB	0bH
	DB	08H
	DB	05H
	DB	05H
	DB	0bH
	DB	0bH
	DB	05H
	DB	05H
	DB	0bH
	DB	0bH
	DB	05H
	DB	05H
	DB	0bH
	DB	0bH
	DB	05H
	DB	05H
	DB	0bH
	DB	0bH
	DB	05H
	DB	05H
	DB	08H
	DB	0bH
	DB	021H
	DB	05H
	DB	08H
	DB	0bH
	DB	021H
	DB	05H
	DB	022H
	DB	0bH
	DB	04aH
	DB	05H
	DB	022H
	DB	0bH
	DB	04aH
	DB	05H
	DB	022H
	DB	0bH
	DB	03H
	DB	05H
	DB	04H
	DB	0bH
	DB	03H
	DB	05H
	DB	04H
	DB	0bH
	DB	03H
	DB	05H
	DB	04H
	DB	0bH
	DB	03H
	DB	05H
	DB	04H
	DB	0bH
	DB	03H
	DB	05H
	DB	04H
	DB	03cH
	DB	08cH
	DB	08dH
	DB	058H
	DB	058H
	DB	08dH
	DB	08dH
	DB	09dH
	DB	053H
	DB	010H
	DB	00H
	DB	00H
	DB	00H
	DB	00H
	DB	00H
	DB	00H
	DB	00H
	DB	00H
	DB	00H
	DB	00H
	DB	00H
	DB	00H
	DB	00H
	DB	00H
	DB	00H
	DB	00H
	DB	00H
	DB	00H
	DB	00H
	DB	00H
	DB	00H
	DB	00H
	DB	00H
	DB	00H
	DB	00H
	DB	00H
	DB	00H
	DB	00H
	DB	00H
	DB	00H
	DB	00H
	DB	00H
	DB	00H
	DB	00H
	DB	00H
	DB	00H
	DB	00H
	DB	00H
	DB	00H
	DB	00H
	DB	00H
	DB	00H
	DB	00H
	DB	00H
	DB	00H
	DB	00H
	DB	00H
	DB	00H
	DB	00H
	DB	00H
	DB	00H
	DB	00H
	DB	00H
	DB	00H
	DB	00H
	DB	00H
	DB	00H
	DB	00H
	DB	00H
	DB	00H
	DB	00H
	DB	00H
	DB	00H
	DB	00H
	DB	00H
	DB	03eH
	DB	04cH
	DB	0cfH
	DB	07H
	DB	07H
	DB	02eH
	DB	032H
	DB	02eH
	DB	07H
	DB	07H
	DB	046H
	DB	014H
	DB	014H
	DB	014H
	DB	077H
	DB	0aH
	DB	018H
	DB	018H
	DB	018H
	DB	0c6H
	DB	0eH
	DB	0bfH
	DB	00H
	DB	00H
	DB	00H
	DB	00H
	DB	00H
	DB	00H
	DB	00H
	DB	00H
	DB	00H
	DB	04H
	DB	0cH
	DB	0cH
	DB	08H
	DB	00H
	DB	04H
	DB	05H
	DB	06H
	DB	04aH
	DB	03H
	DB	05H
	DB	06H
	DB	04aH
	DB	03H
	DB	05H
	DB	06H
	DB	021H
	DB	03H
	DB	05H
	DB	06H
	DB	021H
	DB	03H
	DB	021H
	DB	06H
	DB	021H
	DB	03H
	DB	021H
	DB	06H
	DB	021H
	DB	03H
	DB	021H
	DB	06H
	DB	05H
	DB	03H
	DB	021H
	DB	06H
	DB	05H
	DB	03H
	DB	04aH
	DB	06H
	DB	05H
	DB	03H
	DB	04aH
	DB	06H
	DB	05H
	DB	03H
	DB	03H
	DB	06H
	DB	05H
	DB	03H
	DB	03H
	DB	06H
	DB	05H
	DB	03H
	DB	03H
	DB	06H
	DB	05H
	DB	03H
	DB	03H
	DB	06H
	DB	06H
	DB	03H
	DB	03H
	DB	06H
	DB	06H
	DB	03H
	DB	03H
	DB	06H
	DB	06H
	DB	03H
	DB	03H
	DB	06H
	DB	06H
	DB	03H
	DB	03H
	DB	06H
	DB	06H
	DB	03H
	DB	03H
	DB	06H
	DB	06H
	DB	03H
	DB	03H
	DB	06H
	DB	06H
	DB	03H
	DB	03H
	DB	06H
	DB	06H
	DB	03H
	DB	03H
	DB	06H
	DB	06H
	DB	03H
	DB	03H
	DB	06H
	DB	06H
	DB	03H
	DB	03H
	DB	05H
	DB	06H
	DB	03H
	DB	03H
	DB	05H
	DB	06H
	DB	03H
	DB	03H
	DB	05H
	DB	06H
	DB	04aH
	DB	03H
	DB	05H
	DB	06H
	DB	04aH
	DB	03H
	DB	05H
	DB	06H
	DB	021H
	DB	03H
	DB	05H
	DB	06H
	DB	0e8H
	DB	08dH
	DB	058H
	DB	058H
	DB	058H
	DB	058H
	DB	023H
	DB	065H
	DB	024H
	DB	039H
	DB	00H
	DB	00H
	DB	00H
	DB	00H
	DB	00H
	DB	00H
	DB	00H
	DB	00H
	DB	00H
	DB	00H
	DB	00H
	DB	00H
	DB	00H
	DB	00H
	DB	00H
	DB	00H
	DB	00H
	DB	00H
	DB	00H
	DB	00H
	DB	00H
	DB	00H
	DB	00H
	DB	00H
	DB	00H
	DB	00H
	DB	00H
	DB	00H
	DB	00H
	DB	00H
	DB	00H
	DB	00H
	DB	00H
	DB	00H
	DB	00H
	DB	00H
	DB	00H
	DB	00H
	DB	00H
	DB	00H
	DB	00H
	DB	00H
	DB	00H
	DB	00H
	DB	00H
	DB	00H
	DB	00H
	DB	00H
	DB	00H
	DB	00H
	DB	00H
	DB	00H
	DB	00H
	DB	00H
	DB	00H
	DB	00H
	DB	00H
	DB	00H
	DB	00H
	DB	00H
	DB	00H
	DB	00H
	DB	00H
	DB	00H
	DB	00H
	DB	00H
	DB	00H
	DB	00H
	DB	029H
	DB	04cH
	DB	044H
	DB	07H
	DB	07H
	DB	025H
	DB	013H
	DB	025H
	DB	07H
	DB	07H
	DB	023H
	DB	014H
	DB	014H
	DB	014H
	DB	015H
	DB	051H
	DB	018H
	DB	018H
	DB	018H
	DB	0b1H
	DB	0eH
	DB	0bfH
	DB	00H
	DB	00H
	DB	00H
	DB	00H
	DB	00H
	DB	00H
	DB	00H
	DB	00H
	DB	00H
	DB	03H
	DB	0cH
	DB	0cH
	DB	0bH
	DB	00H
	DB	0bH
	DB	03H
	DB	05H
	DB	04H
	DB	0bH
	DB	03H
	DB	05H
	DB	04H
	DB	0bH
	DB	03H
	DB	05H
	DB	04H
	DB	0bH
	DB	03H
	DB	05H
	DB	04H
	DB	0bH
	DB	03H
	DB	05H
	DB	04H
	DB	0bH
	DB	04H
	DB	05H
	DB	03H
	DB	0bH
	DB	04H
	DB	05H
	DB	03H
	DB	0bH
	DB	04H
	DB	05H
	DB	03H
	DB	0bH
	DB	04H
	DB	05H
	DB	03H
	DB	0bH
	DB	04H
	DB	05H
	DB	03H
	DB	0bH
	DB	04H
	DB	05H
	DB	03H
	DB	0bH
	DB	022H
	DB	05H
	DB	04aH
	DB	0bH
	DB	022H
	DB	05H
	DB	04aH
	DB	0bH
	DB	022H
	DB	05H
	DB	021H
	DB	0bH
	DB	08H
	DB	05H
	DB	021H
	DB	0bH
	DB	08H
	DB	05H
	DB	05H
	DB	0bH
	DB	0bH
	DB	05H
	DB	05H
	DB	0bH
	DB	0bH
	DB	05H
	DB	05H
	DB	0bH
	DB	0bH
	DB	05H
	DB	05H
	DB	0bH
	DB	0bH
	DB	05H
	DB	05H
	DB	08H
	DB	0bH
	DB	021H
	DB	05H
	DB	08H
	DB	0bH
	DB	021H
	DB	05H
	DB	08H
	DB	0bH
	DB	021H
	DB	05H
	DB	022H
	DB	0bH
	DB	04aH
	DB	05H
	DB	022H
	DB	0bH
	DB	04aH
	DB	05H
	DB	022H
	DB	0bH
	DB	03H
	DB	05H
	DB	04H
	DB	0bH
	DB	03H
	DB	05H
	DB	04H
	DB	0bH
	DB	03H
	DB	05H
	DB	04H
	DB	057H
	DB	08dH
	DB	058H
	DB	058H
	DB	058H
	DB	058H
	DB	096H
	DB	03dH
	DB	01dH
	DB	00H
	DB	00H
	DB	00H
	DB	00H
	DB	00H
	DB	00H
	DB	00H
	DB	00H
	DB	00H
	DB	00H
	DB	00H
	DB	00H
	DB	00H
	DB	00H
	DB	00H
	DB	00H
	DB	00H
	DB	00H
	DB	00H
	DB	00H
	DB	00H
	DB	00H
	DB	00H
	DB	00H
	DB	00H
	DB	00H
	DB	00H
	DB	00H
	DB	00H
	DB	00H
	DB	00H
	DB	00H
	DB	00H
	DB	00H
	DB	00H
	DB	00H
	DB	00H
	DB	00H
	DB	00H
	DB	00H
	DB	00H
	DB	00H
	DB	00H
	DB	00H
	DB	00H
	DB	00H
	DB	00H
	DB	00H
	DB	00H
	DB	00H
	DB	00H
	DB	00H
	DB	00H
	DB	00H
	DB	00H
	DB	00H
	DB	00H
	DB	00H
	DB	00H
	DB	00H
	DB	00H
	DB	00H
	DB	00H
	DB	00H
	DB	00H
	DB	00H
	DB	00H
	DB	00H
	DB	00H
	DB	00H
	DB	00H
	DB	00H
	DB	039H
	DB	038H
	DB	043H
	DB	07H
	DB	07H
	DB	025H
	DB	032H
	DB	025H
	DB	07H
	DB	07H
	DB	023H
	DB	014H
	DB	014H
	DB	014H
	DB	015H
	DB	051H
	DB	018H
	DB	018H
	DB	082H
	DB	07aH
	DB	0eH
	DB	02cH
	DB	00H
	DB	00H
	DB	00H
	DB	00H
	DB	00H
	DB	00H
	DB	00H
	DB	00H
	DB	00H
	DB	04aH
	DB	0cH
	DB	0cH
	DB	09H
	DB	00H
	DB	06H
	DB	03H
	DB	03H
	DB	05H
	DB	06H
	DB	04aH
	DB	03H
	DB	05H
	DB	06H
	DB	04aH
	DB	03H
	DB	05H
	DB	06H
	DB	021H
	DB	03H
	DB	021H
	DB	06H
	DB	021H
	DB	03H
	DB	021H
	DB	06H
	DB	021H
	DB	03H
	DB	021H
	DB	06H
	DB	021H
	DB	03H
	DB	021H
	DB	06H
	DB	05H
	DB	03H
	DB	021H
	DB	06H
	DB	05H
	DB	03H
	DB	04aH
	DB	06H
	DB	05H
	DB	03H
	DB	04aH
	DB	06H
	DB	05H
	DB	03H
	DB	03H
	DB	06H
	DB	05H
	DB	03H
	DB	03H
	DB	06H
	DB	05H
	DB	03H
	DB	03H
	DB	06H
	DB	05H
	DB	03H
	DB	03H
	DB	06H
	DB	06H
	DB	03H
	DB	03H
	DB	06H
	DB	06H
	DB	03H
	DB	03H
	DB	06H
	DB	06H
	DB	03H
	DB	03H
	DB	06H
	DB	06H
	DB	03H
	DB	03H
	DB	06H
	DB	06H
	DB	03H
	DB	03H
	DB	06H
	DB	06H
	DB	03H
	DB	03H
	DB	06H
	DB	06H
	DB	03H
	DB	03H
	DB	06H
	DB	06H
	DB	03H
	DB	03H
	DB	05H
	DB	06H
	DB	03H
	DB	03H
	DB	05H
	DB	06H
	DB	03H
	DB	03H
	DB	05H
	DB	06H
	DB	03H
	DB	03H
	DB	05H
	DB	06H
	DB	03H
	DB	03H
	DB	05H
	DB	06H
	DB	04aH
	DB	03H
	DB	05H
	DB	06H
	DB	04aH
	DB	0e6H
	DB	058H
	DB	058H
	DB	058H
	DB	058H
	DB	09dH
	DB	02dH
	DB	0dH
	DB	00H
	DB	00H
	DB	00H
	DB	00H
	DB	00H
	DB	00H
	DB	00H
	DB	00H
	DB	00H
	DB	00H
	DB	00H
	DB	00H
	DB	00H
	DB	00H
	DB	00H
	DB	00H
	DB	00H
	DB	00H
	DB	00H
	DB	00H
	DB	00H
	DB	00H
	DB	00H
	DB	00H
	DB	00H
	DB	00H
	DB	00H
	DB	00H
	DB	00H
	DB	00H
	DB	00H
	DB	00H
	DB	00H
	DB	00H
	DB	00H
	DB	00H
	DB	00H
	DB	00H
	DB	00H
	DB	00H
	DB	00H
	DB	00H
	DB	00H
	DB	00H
	DB	00H
	DB	00H
	DB	00H
	DB	00H
	DB	00H
	DB	00H
	DB	00H
	DB	00H
	DB	00H
	DB	00H
	DB	00H
	DB	00H
	DB	00H
	DB	00H
	DB	00H
	DB	00H
	DB	00H
	DB	00H
	DB	00H
	DB	00H
	DB	00H
	DB	00H
	DB	00H
	DB	00H
	DB	00H
	DB	00H
	DB	00H
	DB	00H
	DB	00H
	DB	00H
	DB	00H
	DB	01fH
	DB	038H
	DB	02fH
	DB	07H
	DB	07H
	DB	025H
	DB	032H
	DB	025H
	DB	07H
	DB	07H
	DB	023H
	DB	014H
	DB	014H
	DB	014H
	DB	015H
	DB	051H
	DB	018H
	DB	082H
	DB	082H
	DB	07aH
	DB	0eH
	DB	026H
	DB	00H
	DB	00H
	DB	00H
	DB	00H
	DB	00H
	DB	00H
	DB	00H
	DB	00H
	DB	00H
	DB	021H
	DB	0cH
	DB	0cH
	DB	00H
	DB	00H
	DB	05H
	DB	04H
	DB	0bH
	DB	03H
	DB	05H
	DB	04H
	DB	0bH
	DB	03H
	DB	05H
	DB	04H
	DB	0bH
	DB	03H
	DB	05H
	DB	04H
	DB	0bH
	DB	03H
	DB	05H
	DB	04H
	DB	0bH
	DB	03H
	DB	05H
	DB	04H
	DB	0bH
	DB	04H
	DB	05H
	DB	03H
	DB	0bH
	DB	04H
	DB	05H
	DB	03H
	DB	0bH
	DB	04H
	DB	05H
	DB	03H
	DB	0bH
	DB	04H
	DB	05H
	DB	03H
	DB	0bH
	DB	04H
	DB	05H
	DB	03H
	DB	0bH
	DB	04H
	DB	05H
	DB	04aH
	DB	0bH
	DB	022H
	DB	05H
	DB	04aH
	DB	0bH
	DB	022H
	DB	05H
	DB	021H
	DB	0bH
	DB	022H
	DB	05H
	DB	021H
	DB	0bH
	DB	08H
	DB	05H
	DB	021H
	DB	0bH
	DB	08H
	DB	05H
	DB	05H
	DB	0bH
	DB	0bH
	DB	05H
	DB	05H
	DB	0bH
	DB	0bH
	DB	05H
	DB	05H
	DB	0bH
	DB	0bH
	DB	05H
	DB	05H
	DB	08H
	DB	0bH
	DB	05H
	DB	05H
	DB	08H
	DB	0bH
	DB	021H
	DB	05H
	DB	08H
	DB	0bH
	DB	021H
	DB	05H
	DB	022H
	DB	0bH
	DB	021H
	DB	05H
	DB	022H
	DB	0bH
	DB	04aH
	DB	05H
	DB	022H
	DB	0bH
	DB	03H
	DB	05H
	DB	04H
	DB	0bH
	DB	03H
	DB	05H
	DB	04H
	DB	0bH
	DB	03H
	DB	05H
	DB	0bcH
	DB	058H
	DB	058H
	DB	066H
	DB	02bH
	DB	039H
	DB	00H
	DB	00H
	DB	00H
	DB	00H
	DB	00H
	DB	00H
	DB	00H
	DB	00H
	DB	00H
	DB	00H
	DB	00H
	DB	00H
	DB	00H
	DB	00H
	DB	00H
	DB	00H
	DB	00H
	DB	00H
	DB	00H
	DB	00H
	DB	00H
	DB	00H
	DB	00H
	DB	00H
	DB	00H
	DB	00H
	DB	00H
	DB	00H
	DB	00H
	DB	00H
	DB	00H
	DB	00H
	DB	00H
	DB	00H
	DB	00H
	DB	00H
	DB	00H
	DB	00H
	DB	00H
	DB	00H
	DB	00H
	DB	00H
	DB	00H
	DB	00H
	DB	00H
	DB	00H
	DB	00H
	DB	00H
	DB	00H
	DB	00H
	DB	00H
	DB	00H
	DB	00H
	DB	00H
	DB	00H
	DB	00H
	DB	00H
	DB	00H
	DB	00H
	DB	00H
	DB	00H
	DB	00H
	DB	00H
	DB	00H
	DB	00H
	DB	00H
	DB	00H
	DB	00H
	DB	00H
	DB	00H
	DB	00H
	DB	00H
	DB	00H
	DB	00H
	DB	00H
	DB	00H
	DB	00H
	DB	00H
	DB	039H
	DB	038H
	DB	043H
	DB	07H
	DB	07H
	DB	07H
	DB	032H
	DB	07H
	DB	07H
	DB	07H
	DB	023H
	DB	014H
	DB	014H
	DB	014H
	DB	015H
	DB	011H
	DB	082H
	DB	082H
	DB	082H
	DB	0c1H
	DB	0eH
	DB	026H
	DB	00H
	DB	00H
	DB	00H
	DB	00H
	DB	00H
	DB	00H
	DB	00H
	DB	00H
	DB	00H
	DB	05H
	DB	0cH
	DB	031H
	DB	00H
	DB	00H
	DB	03H
	DB	05H
	DB	06H
	DB	04aH
	DB	03H
	DB	05H
	DB	06H
	DB	04aH
	DB	03H
	DB	05H
	DB	06H
	DB	04aH
	DB	03H
	DB	05H
	DB	06H
	DB	021H
	DB	03H
	DB	021H
	DB	06H
	DB	021H
	DB	03H
	DB	021H
	DB	06H
	DB	021H
	DB	03H
	DB	021H
	DB	06H
	DB	021H
	DB	03H
	DB	021H
	DB	06H
	DB	05H
	DB	03H
	DB	04aH
	DB	06H
	DB	05H
	DB	03H
	DB	04aH
	DB	06H
	DB	05H
	DB	03H
	DB	03H
	DB	06H
	DB	05H
	DB	03H
	DB	03H
	DB	06H
	DB	05H
	DB	03H
	DB	03H
	DB	06H
	DB	05H
	DB	03H
	DB	03H
	DB	06H
	DB	05H
	DB	03H
	DB	03H
	DB	06H
	DB	06H
	DB	03H
	DB	03H
	DB	06H
	DB	06H
	DB	03H
	DB	03H
	DB	06H
	DB	06H
	DB	03H
	DB	03H
	DB	06H
	DB	06H
	DB	03H
	DB	03H
	DB	06H
	DB	06H
	DB	03H
	DB	03H
	DB	06H
	DB	06H
	DB	03H
	DB	03H
	DB	06H
	DB	06H
	DB	03H
	DB	03H
	DB	05H
	DB	06H
	DB	03H
	DB	03H
	DB	05H
	DB	06H
	DB	03H
	DB	03H
	DB	05H
	DB	06H
	DB	03H
	DB	03H
	DB	05H
	DB	06H
	DB	03H
	DB	03H
	DB	05H
	DB	06H
	DB	04aH
	DB	03H
	DB	05H
	DB	06H
	DB	04aH
	DB	089H
	DB	058H
	DB	058H
	DB	094H
	DB	00H
	DB	00H
	DB	00H
	DB	00H
	DB	00H
	DB	00H
	DB	00H
	DB	00H
	DB	00H
	DB	00H
	DB	00H
	DB	00H
	DB	00H
	DB	00H
	DB	00H
	DB	00H
	DB	00H
	DB	00H
	DB	00H
	DB	00H
	DB	00H
	DB	00H
	DB	00H
	DB	00H
	DB	00H
	DB	00H
	DB	00H
	DB	00H
	DB	00H
	DB	00H
	DB	00H
	DB	00H
	DB	00H
	DB	00H
	DB	00H
	DB	00H
	DB	00H
	DB	00H
	DB	00H
	DB	00H
	DB	00H
	DB	00H
	DB	00H
	DB	00H
	DB	00H
	DB	00H
	DB	00H
	DB	00H
	DB	00H
	DB	00H
	DB	00H
	DB	00H
	DB	00H
	DB	00H
	DB	00H
	DB	00H
	DB	00H
	DB	00H
	DB	00H
	DB	00H
	DB	00H
	DB	00H
	DB	00H
	DB	00H
	DB	00H
	DB	00H
	DB	00H
	DB	00H
	DB	00H
	DB	00H
	DB	00H
	DB	00H
	DB	00H
	DB	00H
	DB	00H
	DB	00H
	DB	00H
	DB	00H
	DB	00H
	DB	00H
	DB	00H
	DB	039H
	DB	038H
	DB	047H
	DB	07H
	DB	07H
	DB	07H
	DB	032H
	DB	07H
	DB	07H
	DB	07H
	DB	023H
	DB	014H
	DB	014H
	DB	014H
	DB	015H
	DB	011H
	DB	082H
	DB	082H
	DB	082H
	DB	0c1H
	DB	0eH
	DB	026H
	DB	00H
	DB	00H
	DB	00H
	DB	00H
	DB	00H
	DB	00H
	DB	00H
	DB	00H
	DB	00H
	DB	05H
	DB	0cH
	DB	031H
	DB	00H
	DB	00H
	DB	0bH
	DB	03H
	DB	05H
	DB	04H
	DB	0bH
	DB	03H
	DB	05H
	DB	04H
	DB	0bH
	DB	03H
	DB	05H
	DB	04H
	DB	0bH
	DB	03H
	DB	05H
	DB	04H
	DB	0bH
	DB	03H
	DB	05H
	DB	04H
	DB	0bH
	DB	03H
	DB	05H
	DB	03H
	DB	0bH
	DB	04H
	DB	05H
	DB	03H
	DB	0bH
	DB	04H
	DB	05H
	DB	03H
	DB	0bH
	DB	04H
	DB	05H
	DB	03H
	DB	0bH
	DB	04H
	DB	05H
	DB	03H
	DB	0bH
	DB	04H
	DB	05H
	DB	03H
	DB	0bH
	DB	04H
	DB	05H
	DB	04aH
	DB	0bH
	DB	022H
	DB	05H
	DB	021H
	DB	0bH
	DB	022H
	DB	05H
	DB	021H
	DB	0bH
	DB	022H
	DB	05H
	DB	021H
	DB	0bH
	DB	08H
	DB	05H
	DB	05H
	DB	0bH
	DB	08H
	DB	05H
	DB	05H
	DB	0bH
	DB	0bH
	DB	05H
	DB	05H
	DB	0bH
	DB	0bH
	DB	05H
	DB	05H
	DB	0bH
	DB	0bH
	DB	05H
	DB	05H
	DB	08H
	DB	0bH
	DB	05H
	DB	05H
	DB	08H
	DB	0bH
	DB	021H
	DB	05H
	DB	022H
	DB	0bH
	DB	021H
	DB	05H
	DB	022H
	DB	0bH
	DB	021H
	DB	05H
	DB	022H
	DB	0bH
	DB	04aH
	DB	05H
	DB	04H
	DB	0bH
	DB	03H
	DB	05H
	DB	04H
	DB	0bH
	DB	03H
	DB	05H
	DB	04H
	DB	058H
	DB	058H
	DB	060H
	DB	00H
	DB	00H
	DB	00H
	DB	00H
	DB	00H
	DB	00H
	DB	00H
	DB	00H
	DB	00H
	DB	00H
	DB	00H
	DB	00H
	DB	00H
	DB	00H
	DB	00H
	DB	00H
	DB	00H
	DB	00H
	DB	00H
	DB	00H
	DB	00H
	DB	00H
	DB	00H
	DB	00H
	DB	00H
	DB	00H
	DB	00H
	DB	00H
	DB	00H
	DB	00H
	DB	00H
	DB	00H
	DB	00H
	DB	00H
	DB	00H
	DB	00H
	DB	00H
	DB	00H
	DB	00H
	DB	00H
	DB	00H
	DB	00H
	DB	00H
	DB	00H
	DB	00H
	DB	00H
	DB	00H
	DB	00H
	DB	00H
	DB	00H
	DB	00H
	DB	00H
	DB	00H
	DB	00H
	DB	00H
	DB	00H
	DB	00H
	DB	00H
	DB	00H
	DB	00H
	DB	00H
	DB	00H
	DB	00H
	DB	00H
	DB	00H
	DB	00H
	DB	00H
	DB	00H
	DB	00H
	DB	00H
	DB	00H
	DB	00H
	DB	00H
	DB	00H
	DB	00H
	DB	00H
	DB	00H
	DB	00H
	DB	00H
	DB	00H
	DB	00H
	DB	00H
	DB	01fH
	DB	038H
	DB	047H
	DB	07H
	DB	07H
	DB	07H
	DB	032H
	DB	07H
	DB	07H
	DB	07H
	DB	023H
	DB	014H
	DB	014H
	DB	014H
	DB	0c5H
	DB	011H
	DB	082H
	DB	082H
	DB	082H
	DB	06fH
	DB	0eH
	DB	06H
	DB	00H
	DB	00H
	DB	00H
	DB	00H
	DB	00H
	DB	00H
	DB	00H
	DB	00H
	DB	00H
	DB	05H
	DB	0cH
	DB	02cH
	DB	00H
	DB	09H
	DB	06H
	DB	03H
	DB	03H
	DB	05H
	DB	06H
	DB	04aH
	DB	03H
	DB	05H
	DB	06H
	DB	04aH
	DB	03H
	DB	05H
	DB	06H
	DB	021H
	DB	03H
	DB	021H
	DB	06H
	DB	021H
	DB	03H
	DB	021H
	DB	06H
	DB	021H
	DB	03H
	DB	021H
	DB	06H
	DB	021H
	DB	03H
	DB	021H
	DB	06H
	DB	021H
	DB	03H
	DB	04aH
	DB	06H
	DB	05H
	DB	03H
	DB	04aH
	DB	06H
	DB	05H
	DB	03H
	DB	04aH
	DB	06H
	DB	05H
	DB	03H
	DB	03H
	DB	06H
	DB	05H
	DB	03H
	DB	03H
	DB	06H
	DB	05H
	DB	03H
	DB	03H
	DB	06H
	DB	05H
	DB	03H
	DB	03H
	DB	06H
	DB	05H
	DB	03H
	DB	03H
	DB	06H
	DB	05H
	DB	03H
	DB	03H
	DB	06H
	DB	06H
	DB	03H
	DB	03H
	DB	06H
	DB	06H
	DB	03H
	DB	03H
	DB	06H
	DB	06H
	DB	03H
	DB	03H
	DB	06H
	DB	06H
	DB	03H
	DB	03H
	DB	06H
	DB	06H
	DB	03H
	DB	03H
	DB	05H
	DB	06H
	DB	03H
	DB	03H
	DB	05H
	DB	06H
	DB	03H
	DB	03H
	DB	05H
	DB	06H
	DB	03H
	DB	03H
	DB	05H
	DB	06H
	DB	03H
	DB	03H
	DB	05H
	DB	06H
	DB	03H
	DB	03H
	DB	05H
	DB	06H
	DB	04aH
	DB	03H
	DB	0bbH
	DB	058H
	DB	096H
	DB	00H
	DB	00H
	DB	00H
	DB	00H
	DB	00H
	DB	00H
	DB	00H
	DB	00H
	DB	00H
	DB	00H
	DB	00H
	DB	00H
	DB	00H
	DB	00H
	DB	00H
	DB	00H
	DB	00H
	DB	00H
	DB	00H
	DB	00H
	DB	00H
	DB	00H
	DB	00H
	DB	00H
	DB	00H
	DB	00H
	DB	00H
	DB	00H
	DB	00H
	DB	00H
	DB	00H
	DB	00H
	DB	00H
	DB	00H
	DB	00H
	DB	00H
	DB	00H
	DB	00H
	DB	00H
	DB	00H
	DB	00H
	DB	00H
	DB	00H
	DB	00H
	DB	00H
	DB	00H
	DB	00H
	DB	00H
	DB	00H
	DB	00H
	DB	00H
	DB	00H
	DB	00H
	DB	00H
	DB	00H
	DB	00H
	DB	00H
	DB	00H
	DB	00H
	DB	00H
	DB	00H
	DB	00H
	DB	00H
	DB	00H
	DB	00H
	DB	00H
	DB	00H
	DB	00H
	DB	00H
	DB	00H
	DB	00H
	DB	00H
	DB	00H
	DB	00H
	DB	00H
	DB	00H
	DB	00H
	DB	00H
	DB	00H
	DB	00H
	DB	00H
	DB	00H
	DB	00H
	DB	01fH
	DB	038H
	DB	02fH
	DB	07H
	DB	07H
	DB	07H
	DB	032H
	DB	07H
	DB	07H
	DB	07H
	DB	023H
	DB	014H
	DB	014H
	DB	014H
	DB	0c5H
	DB	011H
	DB	082H
	DB	082H
	DB	082H
	DB	06fH
	DB	0eH
	DB	06H
	DB	00H
	DB	00H
	DB	00H
	DB	00H
	DB	00H
	DB	00H
	DB	00H
	DB	00H
	DB	00H
	DB	06H
	DB	0cH
	DB	02cH
	DB	00H
	DB	09H
	DB	05H
	DB	04H
	DB	0bH
	DB	03H
	DB	05H
	DB	04H
	DB	0bH
	DB	03H
	DB	05H
	DB	04H
	DB	0bH
	DB	03H
	DB	05H
	DB	04H
	DB	0bH
	DB	03H
	DB	05H
	DB	04H
	DB	0bH
	DB	03H
	DB	05H
	DB	03H
	DB	0bH
	DB	03H
	DB	05H
	DB	03H
	DB	0bH
	DB	04H
	DB	05H
	DB	03H
	DB	0bH
	DB	04H
	DB	05H
	DB	03H
	DB	0bH
	DB	04H
	DB	05H
	DB	03H
	DB	0bH
	DB	04H
	DB	05H
	DB	03H
	DB	0bH
	DB	04H
	DB	05H
	DB	04aH
	DB	0bH
	DB	022H
	DB	05H
	DB	021H
	DB	0bH
	DB	022H
	DB	05H
	DB	021H
	DB	0bH
	DB	022H
	DB	05H
	DB	021H
	DB	0bH
	DB	08H
	DB	05H
	DB	05H
	DB	0bH
	DB	08H
	DB	05H
	DB	05H
	DB	0bH
	DB	08H
	DB	05H
	DB	05H
	DB	0bH
	DB	0bH
	DB	05H
	DB	05H
	DB	0bH
	DB	0bH
	DB	05H
	DB	05H
	DB	08H
	DB	0bH
	DB	05H
	DB	05H
	DB	08H
	DB	0bH
	DB	021H
	DB	05H
	DB	022H
	DB	0bH
	DB	021H
	DB	05H
	DB	022H
	DB	0bH
	DB	021H
	DB	05H
	DB	022H
	DB	0bH
	DB	04aH
	DB	05H
	DB	04H
	DB	0bH
	DB	04aH
	DB	05H
	DB	04H
	DB	0bH
	DB	03H
	DB	05H
	DB	04H
	DB	0bH
	DB	066H
	DB	058H
	DB	03dH
	DB	00H
	DB	00H
	DB	00H
	DB	00H
	DB	00H
	DB	00H
	DB	00H
	DB	00H
	DB	00H
	DB	00H
	DB	00H
	DB	00H
	DB	00H
	DB	00H
	DB	00H
	DB	00H
	DB	00H
	DB	00H
	DB	00H
	DB	00H
	DB	00H
	DB	00H
	DB	00H
	DB	00H
	DB	00H
	DB	00H
	DB	00H
	DB	00H
	DB	00H
	DB	00H
	DB	00H
	DB	00H
	DB	00H
	DB	00H
	DB	00H
	DB	00H
	DB	00H
	DB	00H
	DB	00H
	DB	00H
	DB	00H
	DB	00H
	DB	00H
	DB	00H
	DB	00H
	DB	00H
	DB	00H
	DB	00H
	DB	00H
	DB	00H
	DB	00H
	DB	00H
	DB	00H
	DB	00H
	DB	00H
	DB	00H
	DB	00H
	DB	00H
	DB	00H
	DB	00H
	DB	00H
	DB	00H
	DB	00H
	DB	00H
	DB	00H
	DB	00H
	DB	00H
	DB	00H
	DB	00H
	DB	00H
	DB	00H
	DB	00H
	DB	00H
	DB	00H
	DB	00H
	DB	00H
	DB	00H
	DB	00H
	DB	00H
	DB	00H
	DB	00H
	DB	00H
	DB	00H
	DB	01fH
	DB	038H
	DB	02fH
	DB	07H
	DB	07H
	DB	07H
	DB	039H
	DB	07H
	DB	07H
	DB	07H
	DB	023H
	DB	014H
	DB	014H
	DB	014H
	DB	07bH
	DB	011H
	DB	082H
	DB	082H
	DB	082H
	DB	06fH
	DB	0eH
	DB	06H
	DB	00H
	DB	00H
	DB	00H
	DB	00H
	DB	00H
	DB	00H
	DB	00H
	DB	00H
	DB	00H
	DB	06H
	DB	0cH
	DB	02cH
	DB	00H
	DB	09H
	DB	03H
	DB	05H
	DB	06H
	DB	03H
	DB	03H
	DB	05H
	DB	06H
	DB	04aH
	DB	03H
	DB	05H
	DB	06H
	DB	04aH
	DB	03H
	DB	021H
	DB	06H
	DB	021H
	DB	03H
	DB	021H
	DB	06H
	DB	021H
	DB	03H
	DB	021H
	DB	06H
	DB	021H
	DB	03H
	DB	021H
	DB	06H
	DB	021H
	DB	03H
	DB	04aH
	DB	06H
	DB	021H
	DB	03H
	DB	04aH
	DB	06H
	DB	05H
	DB	03H
	DB	04aH
	DB	06H
	DB	05H
	DB	03H
	DB	03H
	DB	06H
	DB	05H
	DB	03H
	DB	03H
	DB	06H
	DB	05H
	DB	03H
	DB	03H
	DB	06H
	DB	05H
	DB	03H
	DB	03H
	DB	06H
	DB	05H
	DB	03H
	DB	03H
	DB	06H
	DB	05H
	DB	03H
	DB	03H
	DB	06H
	DB	05H
	DB	03H
	DB	03H
	DB	06H
	DB	06H
	DB	03H
	DB	03H
	DB	06H
	DB	06H
	DB	03H
	DB	03H
	DB	06H
	DB	06H
	DB	03H
	DB	03H
	DB	05H
	DB	06H
	DB	03H
	DB	03H
	DB	05H
	DB	06H
	DB	03H
	DB	03H
	DB	05H
	DB	06H
	DB	03H
	DB	03H
	DB	05H
	DB	06H
	DB	03H
	DB	03H
	DB	05H
	DB	06H
	DB	03H
	DB	03H
	DB	05H
	DB	06H
	DB	03H
	DB	03H
	DB	05H
	DB	06H
	DB	03H
	DB	03H
	DB	05H
	DB	06H
	DB	08dH
	DB	058H
	DB	050H
	DB	00H
	DB	00H
	DB	00H
	DB	00H
	DB	00H
	DB	00H
	DB	00H
	DB	00H
	DB	00H
	DB	00H
	DB	00H
	DB	00H
	DB	00H
	DB	00H
	DB	00H
	DB	00H
	DB	00H
	DB	00H
	DB	00H
	DB	00H
	DB	00H
	DB	00H
	DB	00H
	DB	00H
	DB	00H
	DB	00H
	DB	00H
	DB	00H
	DB	00H
	DB	00H
	DB	00H
	DB	00H
	DB	00H
	DB	00H
	DB	00H
	DB	00H
	DB	00H
	DB	00H
	DB	00H
	DB	00H
	DB	00H
	DB	00H
	DB	00H
	DB	00H
	DB	00H
	DB	00H
	DB	00H
	DB	00H
	DB	00H
	DB	00H
	DB	00H
	DB	00H
	DB	00H
	DB	00H
	DB	00H
	DB	00H
	DB	00H
	DB	00H
	DB	00H
	DB	00H
	DB	00H
	DB	00H
	DB	00H
	DB	00H
	DB	00H
	DB	00H
	DB	00H
	DB	00H
	DB	00H
	DB	00H
	DB	00H
	DB	00H
	DB	00H
	DB	00H
	DB	00H
	DB	00H
	DB	00H
	DB	00H
	DB	00H
	DB	00H
	DB	00H
	DB	00H
	DB	00H
	DB	01fH
	DB	05bH
	DB	02fH
	DB	07H
	DB	07H
	DB	07H
	DB	039H
	DB	07H
	DB	07H
	DB	07H
	DB	023H
	DB	014H
	DB	014H
	DB	014H
	DB	0c5H
	DB	011H
	DB	082H
	DB	082H
	DB	082H
	DB	06fH
	DB	0eH
	DB	026H
	DB	00H
	DB	00H
	DB	00H
	DB	00H
	DB	00H
	DB	00H
	DB	00H
	DB	00H
	DB	00H
	DB	05H
	DB	0cH
	DB	02cH
	DB	00H
	DB	00H
	DB	0bH
	DB	03H
	DB	05H
	DB	04H
	DB	0bH
	DB	03H
	DB	05H
	DB	04H
	DB	0bH
	DB	03H
	DB	05H
	DB	04H
	DB	0bH
	DB	03H
	DB	05H
	DB	04H
	DB	0bH
	DB	03H
	DB	05H
	DB	03H
	DB	0bH
	DB	03H
	DB	05H
	DB	03H
	DB	0bH
	DB	04H
	DB	05H
	DB	03H
	DB	0bH
	DB	04H
	DB	05H
	DB	03H
	DB	0bH
	DB	04H
	DB	05H
	DB	03H
	DB	0bH
	DB	04H
	DB	05H
	DB	03H
	DB	0bH
	DB	04H
	DB	05H
	DB	04aH
	DB	0bH
	DB	04H
	DB	05H
	DB	04aH
	DB	0bH
	DB	022H
	DB	05H
	DB	021H
	DB	0bH
	DB	022H
	DB	05H
	DB	021H
	DB	0bH
	DB	022H
	DB	05H
	DB	021H
	DB	0bH
	DB	08H
	DB	05H
	DB	05H
	DB	0bH
	DB	08H
	DB	05H
	DB	05H
	DB	0bH
	DB	08H
	DB	05H
	DB	05H
	DB	0bH
	DB	0bH
	DB	05H
	DB	05H
	DB	08H
	DB	0bH
	DB	05H
	DB	05H
	DB	08H
	DB	0bH
	DB	05H
	DB	05H
	DB	08H
	DB	0bH
	DB	021H
	DB	05H
	DB	022H
	DB	0bH
	DB	021H
	DB	05H
	DB	022H
	DB	0bH
	DB	021H
	DB	05H
	DB	022H
	DB	0bH
	DB	04aH
	DB	05H
	DB	04H
	DB	0bH
	DB	03H
	DB	05H
	DB	04H
	DB	0bH
	DB	03H
	DB	05H
	DB	08dH
	DB	058H
	DB	01aH
	DB	00H
	DB	00H
	DB	00H
	DB	00H
	DB	00H
	DB	00H
	DB	00H
	DB	00H
	DB	00H
	DB	00H
	DB	00H
	DB	00H
	DB	00H
	DB	00H
	DB	00H
	DB	00H
	DB	00H
	DB	00H
	DB	00H
	DB	00H
	DB	00H
	DB	00H
	DB	00H
	DB	00H
	DB	00H
	DB	00H
	DB	00H
	DB	00H
	DB	00H
	DB	00H
	DB	00H
	DB	00H
	DB	00H
	DB	00H
	DB	00H
	DB	00H
	DB	00H
	DB	00H
	DB	00H
	DB	00H
	DB	00H
	DB	00H
	DB	00H
	DB	00H
	DB	00H
	DB	00H
	DB	00H
	DB	00H
	DB	00H
	DB	00H
	DB	00H
	DB	00H
	DB	00H
	DB	00H
	DB	00H
	DB	00H
	DB	00H
	DB	00H
	DB	00H
	DB	00H
	DB	00H
	DB	00H
	DB	00H
	DB	00H
	DB	00H
	DB	00H
	DB	00H
	DB	00H
	DB	00H
	DB	00H
	DB	00H
	DB	00H
	DB	00H
	DB	00H
	DB	00H
	DB	00H
	DB	00H
	DB	00H
	DB	00H
	DB	00H
	DB	00H
	DB	00H
	DB	00H
	DB	01fH
	DB	05bH
	DB	02fH
	DB	07H
	DB	07H
	DB	07H
	DB	032H
	DB	07H
	DB	07H
	DB	07H
	DB	023H
	DB	014H
	DB	014H
	DB	014H
	DB	0c5H
	DB	011H
	DB	082H
	DB	082H
	DB	082H
	DB	0c1H
	DB	0eH
	DB	026H
	DB	00H
	DB	00H
	DB	00H
	DB	00H
	DB	00H
	DB	00H
	DB	00H
	DB	00H
	DB	00H
	DB	05H
	DB	0cH
	DB	02cH
	DB	00H
	DB	00H
	DB	06H
	DB	03H
	DB	03H
	DB	05H
	DB	06H
	DB	04aH
	DB	03H
	DB	021H
	DB	06H
	DB	04aH
	DB	03H
	DB	021H
	DB	06H
	DB	04aH
	DB	03H
	DB	021H
	DB	06H
	DB	021H
	DB	03H
	DB	021H
	DB	06H
	DB	021H
	DB	03H
	DB	021H
	DB	06H
	DB	021H
	DB	03H
	DB	021H
	DB	06H
	DB	021H
	DB	03H
	DB	04aH
	DB	06H
	DB	021H
	DB	03H
	DB	04aH
	DB	06H
	DB	05H
	DB	03H
	DB	03H
	DB	06H
	DB	05H
	DB	03H
	DB	03H
	DB	06H
	DB	05H
	DB	03H
	DB	03H
	DB	06H
	DB	05H
	DB	03H
	DB	03H
	DB	06H
	DB	05H
	DB	03H
	DB	03H
	DB	06H
	DB	05H
	DB	03H
	DB	03H
	DB	06H
	DB	05H
	DB	03H
	DB	03H
	DB	06H
	DB	05H
	DB	03H
	DB	03H
	DB	06H
	DB	05H
	DB	03H
	DB	03H
	DB	06H
	DB	06H
	DB	03H
	DB	03H
	DB	05H
	DB	06H
	DB	03H
	DB	03H
	DB	05H
	DB	06H
	DB	03H
	DB	03H
	DB	05H
	DB	06H
	DB	03H
	DB	03H
	DB	05H
	DB	06H
	DB	03H
	DB	03H
	DB	05H
	DB	06H
	DB	03H
	DB	03H
	DB	05H
	DB	06H
	DB	03H
	DB	03H
	DB	05H
	DB	06H
	DB	03H
	DB	03H
	DB	05H
	DB	06H
	DB	04aH
	DB	03H
	DB	08dH
	DB	058H
	DB	01aH
	DB	00H
	DB	00H
	DB	00H
	DB	00H
	DB	00H
	DB	00H
	DB	00H
	DB	00H
	DB	00H
	DB	00H
	DB	00H
	DB	00H
	DB	00H
	DB	00H
	DB	00H
	DB	00H
	DB	00H
	DB	00H
	DB	00H
	DB	00H
	DB	00H
	DB	00H
	DB	00H
	DB	00H
	DB	00H
	DB	00H
	DB	00H
	DB	00H
	DB	00H
	DB	00H
	DB	00H
	DB	00H
	DB	00H
	DB	00H
	DB	00H
	DB	00H
	DB	00H
	DB	00H
	DB	00H
	DB	00H
	DB	00H
	DB	00H
	DB	00H
	DB	00H
	DB	00H
	DB	00H
	DB	00H
	DB	00H
	DB	00H
	DB	00H
	DB	00H
	DB	00H
	DB	00H
	DB	00H
	DB	00H
	DB	00H
	DB	00H
	DB	00H
	DB	00H
	DB	00H
	DB	00H
	DB	00H
	DB	00H
	DB	00H
	DB	00H
	DB	00H
	DB	00H
	DB	00H
	DB	00H
	DB	00H
	DB	00H
	DB	00H
	DB	00H
	DB	00H
	DB	00H
	DB	00H
	DB	00H
	DB	00H
	DB	00H
	DB	00H
	DB	00H
	DB	00H
	DB	00H
	DB	01fH
	DB	05bH
	DB	02fH
	DB	07H
	DB	07H
	DB	07H
	DB	032H
	DB	07H
	DB	07H
	DB	07H
	DB	023H
	DB	014H
	DB	014H
	DB	014H
	DB	0c5H
	DB	011H
	DB	082H
	DB	082H
	DB	082H
	DB	0c1H
	DB	0eH
	DB	026H
	DB	00H
	DB	00H
	DB	00H
	DB	00H
	DB	00H
	DB	00H
	DB	00H
	DB	00H
	DB	00H
	DB	05H
	DB	0cH
	DB	031H
	DB	00H
	DB	00H
	DB	05H
	DB	04H
	DB	0bH
	DB	03H
	DB	05H
	DB	04H
	DB	0bH
	DB	03H
	DB	05H
	DB	04H
	DB	0bH
	DB	03H
	DB	05H
	DB	04H
	DB	0bH
	DB	03H
	DB	05H
	DB	04H
	DB	0bH
	DB	03H
	DB	05H
	DB	03H
	DB	0bH
	DB	03H
	DB	05H
	DB	03H
	DB	0bH
	DB	04H
	DB	05H
	DB	03H
	DB	0bH
	DB	04H
	DB	05H
	DB	03H
	DB	0bH
	DB	04H
	DB	05H
	DB	03H
	DB	0bH
	DB	04H
	DB	05H
	DB	03H
	DB	0bH
	DB	04H
	DB	05H
	DB	04aH
	DB	0bH
	DB	04H
	DB	05H
	DB	021H
	DB	0bH
	DB	022H
	DB	05H
	DB	021H
	DB	0bH
	DB	022H
	DB	05H
	DB	021H
	DB	0bH
	DB	022H
	DB	05H
	DB	05H
	DB	0bH
	DB	08H
	DB	05H
	DB	05H
	DB	0bH
	DB	08H
	DB	05H
	DB	05H
	DB	0bH
	DB	0bH
	DB	05H
	DB	05H
	DB	08H
	DB	0bH
	DB	05H
	DB	05H
	DB	08H
	DB	0bH
	DB	05H
	DB	05H
	DB	08H
	DB	0bH
	DB	05H
	DB	05H
	DB	022H
	DB	0bH
	DB	021H
	DB	05H
	DB	022H
	DB	0bH
	DB	021H
	DB	05H
	DB	022H
	DB	0bH
	DB	021H
	DB	05H
	DB	04H
	DB	0bH
	DB	04aH
	DB	05H
	DB	04H
	DB	0bH
	DB	03H
	DB	05H
	DB	04H
	DB	0bH
	DB	08dH
	DB	058H
	DB	01aH
	DB	00H
	DB	00H
	DB	00H
	DB	00H
	DB	00H
	DB	00H
	DB	00H
	DB	00H
	DB	00H
	DB	00H
	DB	00H
	DB	00H
	DB	00H
	DB	00H
	DB	00H
	DB	00H
	DB	00H
	DB	00H
	DB	00H
	DB	00H
	DB	00H
	DB	00H
	DB	00H
	DB	00H
	DB	00H
	DB	00H
	DB	00H
	DB	00H
	DB	00H
	DB	00H
	DB	00H
	DB	00H
	DB	00H
	DB	00H
	DB	00H
	DB	00H
	DB	00H
	DB	00H
	DB	00H
	DB	00H
	DB	00H
	DB	00H
	DB	00H
	DB	00H
	DB	00H
	DB	00H
	DB	00H
	DB	00H
	DB	00H
	DB	00H
	DB	00H
	DB	00H
	DB	00H
	DB	00H
	DB	00H
	DB	00H
	DB	00H
	DB	00H
	DB	00H
	DB	00H
	DB	00H
	DB	00H
	DB	00H
	DB	00H
	DB	00H
	DB	00H
	DB	00H
	DB	00H
	DB	00H
	DB	00H
	DB	00H
	DB	00H
	DB	00H
	DB	00H
	DB	00H
	DB	00H
	DB	00H
	DB	00H
	DB	00H
	DB	00H
	DB	00H
	DB	00H
	DB	00H
	DB	01fH
	DB	05bH
	DB	047H
	DB	07H
	DB	07H
	DB	07H
	DB	0dH
	DB	025H
	DB	07H
	DB	07H
	DB	023H
	DB	014H
	DB	014H
	DB	014H
	DB	015H
	DB	011H
	DB	082H
	DB	01bH
	DB	01bH
	DB	074H
	DB	0eH
	DB	026H
	DB	00H
	DB	00H
	DB	00H
	DB	00H
	DB	00H
	DB	00H
	DB	00H
	DB	00H
	DB	00H
	DB	021H
	DB	0cH
	DB	0cH
	DB	00H
	DB	00H
	DB	03H
	DB	05H
	DB	05H
	DB	03H
	DB	03H
	DB	021H
	DB	05H
	DB	04aH
	DB	03H
	DB	021H
	DB	05H
	DB	04aH
	DB	03H
	DB	021H
	DB	05H
	DB	04aH
	DB	03H
	DB	021H
	DB	05H
	DB	021H
	DB	03H
	DB	021H
	DB	05H
	DB	021H
	DB	03H
	DB	021H
	DB	05H
	DB	021H
	DB	03H
	DB	04aH
	DB	05H
	DB	021H
	DB	03H
	DB	04aH
	DB	05H
	DB	021H
	DB	03H
	DB	04aH
	DB	05H
	DB	05H
	DB	03H
	DB	03H
	DB	05H
	DB	05H
	DB	03H
	DB	03H
	DB	05H
	DB	05H
	DB	03H
	DB	03H
	DB	05H
	DB	05H
	DB	03H
	DB	03H
	DB	05H
	DB	05H
	DB	03H
	DB	03H
	DB	05H
	DB	05H
	DB	03H
	DB	03H
	DB	05H
	DB	05H
	DB	03H
	DB	03H
	DB	05H
	DB	05H
	DB	03H
	DB	03H
	DB	05H
	DB	05H
	DB	03H
	DB	03H
	DB	05H
	DB	05H
	DB	03H
	DB	03H
	DB	05H
	DB	05H
	DB	03H
	DB	03H
	DB	05H
	DB	05H
	DB	03H
	DB	03H
	DB	05H
	DB	05H
	DB	03H
	DB	03H
	DB	05H
	DB	05H
	DB	03H
	DB	03H
	DB	05H
	DB	05H
	DB	03H
	DB	03H
	DB	05H
	DB	05H
	DB	03H
	DB	03H
	DB	05H
	DB	05H
	DB	03H
	DB	03H
	DB	021H
	DB	05H
	DB	08dH
	DB	058H
	DB	01aH
	DB	00H
	DB	00H
	DB	00H
	DB	00H
	DB	00H
	DB	00H
	DB	00H
	DB	00H
	DB	00H
	DB	00H
	DB	00H
	DB	00H
	DB	00H
	DB	00H
	DB	00H
	DB	00H
	DB	00H
	DB	00H
	DB	00H
	DB	00H
	DB	00H
	DB	00H
	DB	00H
	DB	00H
	DB	00H
	DB	00H
	DB	00H
	DB	00H
	DB	00H
	DB	00H
	DB	00H
	DB	00H
	DB	00H
	DB	00H
	DB	00H
	DB	00H
	DB	00H
	DB	00H
	DB	00H
	DB	00H
	DB	00H
	DB	00H
	DB	00H
	DB	00H
	DB	00H
	DB	00H
	DB	00H
	DB	00H
	DB	00H
	DB	00H
	DB	00H
	DB	00H
	DB	00H
	DB	00H
	DB	00H
	DB	00H
	DB	00H
	DB	00H
	DB	00H
	DB	00H
	DB	00H
	DB	00H
	DB	00H
	DB	00H
	DB	00H
	DB	00H
	DB	00H
	DB	00H
	DB	00H
	DB	00H
	DB	00H
	DB	00H
	DB	00H
	DB	00H
	DB	00H
	DB	00H
	DB	00H
	DB	00H
	DB	00H
	DB	00H
	DB	00H
	DB	00H
	DB	00H
	DB	039H
	DB	05bH
	DB	043H
	DB	07H
	DB	07H
	DB	025H
	DB	032H
	DB	025H
	DB	07H
	DB	07H
	DB	023H
	DB	014H
	DB	014H
	DB	014H
	DB	015H
	DB	011H
	DB	01bH
	DB	01bH
	DB	01bH
	DB	0b0H
	DB	0eH
	DB	02cH
	DB	00H
	DB	00H
	DB	00H
	DB	00H
	DB	00H
	DB	00H
	DB	00H
	DB	00H
	DB	00H
	DB	03H
	DB	0cH
	DB	0cH
	DB	09H
	DB	00H
	DB	0bH
	DB	04aH
	DB	05H
	DB	04H
	DB	0bH
	DB	03H
	DB	05H
	DB	04H
	DB	0bH
	DB	03H
	DB	05H
	DB	04H
	DB	0bH
	DB	03H
	DB	05H
	DB	04H
	DB	0bH
	DB	03H
	DB	05H
	DB	03H
	DB	0bH
	DB	03H
	DB	05H
	DB	03H
	DB	0bH
	DB	03H
	DB	05H
	DB	03H
	DB	0bH
	DB	04H
	DB	05H
	DB	03H
	DB	0bH
	DB	04H
	DB	05H
	DB	03H
	DB	0bH
	DB	04H
	DB	05H
	DB	03H
	DB	0bH
	DB	04H
	DB	05H
	DB	04aH
	DB	0bH
	DB	04H
	DB	05H
	DB	021H
	DB	0bH
	DB	04H
	DB	05H
	DB	021H
	DB	0bH
	DB	022H
	DB	05H
	DB	021H
	DB	0bH
	DB	022H
	DB	05H
	DB	05H
	DB	0bH
	DB	022H
	DB	05H
	DB	05H
	DB	0bH
	DB	08H
	DB	05H
	DB	05H
	DB	0bH
	DB	08H
	DB	05H
	DB	05H
	DB	0bH
	DB	0bH
	DB	05H
	DB	05H
	DB	08H
	DB	0bH
	DB	05H
	DB	05H
	DB	08H
	DB	0bH
	DB	05H
	DB	05H
	DB	022H
	DB	0bH
	DB	021H
	DB	05H
	DB	022H
	DB	0bH
	DB	021H
	DB	05H
	DB	022H
	DB	0bH
	DB	021H
	DB	05H
	DB	04H
	DB	0bH
	DB	04aH
	DB	05H
	DB	04H
	DB	0bH
	DB	04aH
	DB	05H
	DB	04H
	DB	0bH
	DB	03H
	DB	05H
	DB	08dH
	DB	058H
	DB	01aH
	DB	00H
	DB	00H
	DB	00H
	DB	00H
	DB	00H
	DB	00H
	DB	00H
	DB	00H
	DB	00H
	DB	00H
	DB	00H
	DB	00H
	DB	00H
	DB	00H
	DB	00H
	DB	00H
	DB	00H
	DB	00H
	DB	00H
	DB	00H
	DB	00H
	DB	00H
	DB	00H
	DB	00H
	DB	00H
	DB	00H
	DB	00H
	DB	00H
	DB	00H
	DB	00H
	DB	00H
	DB	00H
	DB	00H
	DB	00H
	DB	00H
	DB	00H
	DB	00H
	DB	00H
	DB	00H
	DB	00H
	DB	00H
	DB	00H
	DB	00H
	DB	00H
	DB	00H
	DB	00H
	DB	00H
	DB	00H
	DB	00H
	DB	00H
	DB	00H
	DB	00H
	DB	00H
	DB	00H
	DB	00H
	DB	00H
	DB	00H
	DB	00H
	DB	00H
	DB	00H
	DB	00H
	DB	00H
	DB	00H
	DB	00H
	DB	00H
	DB	00H
	DB	00H
	DB	00H
	DB	00H
	DB	00H
	DB	00H
	DB	00H
	DB	00H
	DB	00H
	DB	00H
	DB	00H
	DB	00H
	DB	00H
	DB	00H
	DB	00H
	DB	00H
	DB	00H
	DB	00H
	DB	039H
	DB	05bH
	DB	043H
	DB	07H
	DB	07H
	DB	025H
	DB	01fH
	DB	025H
	DB	07H
	DB	07H
	DB	023H
	DB	014H
	DB	014H
	DB	014H
	DB	015H
	DB	011H
	DB	01bH
	DB	01bH
	DB	01bH
	DB	0c3H
	DB	0eH
	DB	0bfH
	DB	00H
	DB	00H
	DB	00H
	DB	00H
	DB	00H
	DB	00H
	DB	00H
	DB	00H
	DB	00H
	DB	03H
	DB	0cH
	DB	0cH
	DB	0bH
	DB	00H
	DB	021H
	DB	03H
	DB	03H
	DB	021H
	DB	05H
	DB	04aH
	DB	03H
	DB	021H
	DB	05H
	DB	04aH
	DB	03H
	DB	021H
	DB	05H
	DB	04aH
	DB	03H
	DB	021H
	DB	05H
	DB	04aH
	DB	03H
	DB	021H
	DB	05H
	DB	021H
	DB	03H
	DB	021H
	DB	05H
	DB	021H
	DB	03H
	DB	04aH
	DB	05H
	DB	021H
	DB	03H
	DB	04aH
	DB	05H
	DB	021H
	DB	03H
	DB	04aH
	DB	05H
	DB	021H
	DB	03H
	DB	03H
	DB	05H
	DB	021H
	DB	03H
	DB	03H
	DB	05H
	DB	05H
	DB	03H
	DB	03H
	DB	05H
	DB	05H
	DB	03H
	DB	03H
	DB	05H
	DB	05H
	DB	03H
	DB	03H
	DB	05H
	DB	05H
	DB	03H
	DB	03H
	DB	05H
	DB	05H
	DB	03H
	DB	03H
	DB	05H
	DB	05H
	DB	03H
	DB	03H
	DB	05H
	DB	05H
	DB	03H
	DB	03H
	DB	05H
	DB	05H
	DB	03H
	DB	03H
	DB	05H
	DB	05H
	DB	03H
	DB	03H
	DB	05H
	DB	05H
	DB	03H
	DB	03H
	DB	05H
	DB	05H
	DB	03H
	DB	03H
	DB	05H
	DB	05H
	DB	03H
	DB	03H
	DB	05H
	DB	05H
	DB	03H
	DB	03H
	DB	05H
	DB	05H
	DB	03H
	DB	03H
	DB	05H
	DB	05H
	DB	03H
	DB	03H
	DB	021H
	DB	05H
	DB	04aH
	DB	03H
	DB	08dH
	DB	08dH
	DB	01aH
	DB	00H
	DB	00H
	DB	00H
	DB	00H
	DB	00H
	DB	00H
	DB	00H
	DB	00H
	DB	00H
	DB	00H
	DB	00H
	DB	00H
	DB	00H
	DB	00H
	DB	00H
	DB	00H
	DB	00H
	DB	00H
	DB	00H
	DB	00H
	DB	00H
	DB	00H
	DB	00H
	DB	00H
	DB	00H
	DB	00H
	DB	00H
	DB	00H
	DB	00H
	DB	00H
	DB	00H
	DB	00H
	DB	00H
	DB	00H
	DB	00H
	DB	00H
	DB	00H
	DB	00H
	DB	00H
	DB	00H
	DB	00H
	DB	00H
	DB	00H
	DB	00H
	DB	00H
	DB	00H
	DB	00H
	DB	00H
	DB	00H
	DB	00H
	DB	00H
	DB	00H
	DB	00H
	DB	00H
	DB	00H
	DB	00H
	DB	00H
	DB	00H
	DB	00H
	DB	00H
	DB	00H
	DB	00H
	DB	00H
	DB	00H
	DB	00H
	DB	00H
	DB	00H
	DB	00H
	DB	00H
	DB	00H
	DB	00H
	DB	00H
	DB	00H
	DB	00H
	DB	00H
	DB	00H
	DB	00H
	DB	00H
	DB	00H
	DB	00H
	DB	00H
	DB	00H
	DB	00H
	DB	039H
	DB	05bH
	DB	044H
	DB	07H
	DB	07H
	DB	025H
	DB	00H
	DB	02eH
	DB	07H
	DB	07H
	DB	046H
	DB	014H
	DB	014H
	DB	014H
	DB	015H
	DB	051H
	DB	01bH
	DB	01bH
	DB	01bH
	DB	098H
	DB	0eH
	DB	0eH
	DB	00H
	DB	00H
	DB	00H
	DB	00H
	DB	00H
	DB	00H
	DB	00H
	DB	00H
	DB	00H
	DB	04H
	DB	0cH
	DB	0cH
	DB	022H
	DB	00H
	DB	03H
	DB	04H
	DB	08H
	DB	03H
	DB	05H
	DB	04H
	DB	08H
	DB	03H
	DB	05H
	DB	04H
	DB	08H
	DB	03H
	DB	05H
	DB	04H
	DB	08H
	DB	03H
	DB	05H
	DB	03H
	DB	08H
	DB	03H
	DB	05H
	DB	03H
	DB	08H
	DB	03H
	DB	05H
	DB	03H
	DB	08H
	DB	04H
	DB	05H
	DB	03H
	DB	08H
	DB	04H
	DB	05H
	DB	03H
	DB	08H
	DB	04H
	DB	05H
	DB	03H
	DB	08H
	DB	04H
	DB	05H
	DB	04aH
	DB	08H
	DB	04H
	DB	05H
	DB	04aH
	DB	08H
	DB	04H
	DB	05H
	DB	021H
	DB	08H
	DB	022H
	DB	05H
	DB	021H
	DB	08H
	DB	022H
	DB	05H
	DB	021H
	DB	08H
	DB	022H
	DB	05H
	DB	05H
	DB	08H
	DB	08H
	DB	05H
	DB	05H
	DB	08H
	DB	08H
	DB	05H
	DB	05H
	DB	08H
	DB	08H
	DB	05H
	DB	05H
	DB	08H
	DB	08H
	DB	05H
	DB	05H
	DB	08H
	DB	08H
	DB	05H
	DB	05H
	DB	022H
	DB	08H
	DB	05H
	DB	05H
	DB	022H
	DB	08H
	DB	021H
	DB	05H
	DB	022H
	DB	08H
	DB	021H
	DB	05H
	DB	04H
	DB	08H
	DB	021H
	DB	05H
	DB	04H
	DB	08H
	DB	04aH
	DB	05H
	DB	04H
	DB	08H
	DB	03H
	DB	05H
	DB	04H
	DB	08H
	DB	023H
	DB	08dH
	DB	01aH
	DB	00H
	DB	00H
	DB	00H
	DB	00H
	DB	00H
	DB	00H
	DB	00H
	DB	00H
	DB	00H
	DB	00H
	DB	00H
	DB	00H
	DB	00H
	DB	00H
	DB	00H
	DB	00H
	DB	00H
	DB	00H
	DB	00H
	DB	00H
	DB	00H
	DB	00H
	DB	00H
	DB	00H
	DB	00H
	DB	00H
	DB	00H
	DB	00H
	DB	00H
	DB	00H
	DB	00H
	DB	00H
	DB	00H
	DB	00H
	DB	00H
	DB	00H
	DB	00H
	DB	00H
	DB	00H
	DB	00H
	DB	00H
	DB	00H
	DB	00H
	DB	00H
	DB	00H
	DB	00H
	DB	00H
	DB	00H
	DB	00H
	DB	00H
	DB	00H
	DB	00H
	DB	00H
	DB	00H
	DB	00H
	DB	00H
	DB	00H
	DB	00H
	DB	00H
	DB	00H
	DB	00H
	DB	00H
	DB	00H
	DB	00H
	DB	00H
	DB	00H
	DB	00H
	DB	00H
	DB	00H
	DB	00H
	DB	00H
	DB	00H
	DB	00H
	DB	00H
	DB	00H
	DB	00H
	DB	00H
	DB	00H
	DB	00H
	DB	00H
	DB	00H
	DB	00H
	DB	00H
	DB	029H
	DB	05bH
	DB	048H
	DB	07H
	DB	07H
	DB	02eH
	DB	00H
	DB	03fH
	DB	07H
	DB	07H
	DB	046H
	DB	014H
	DB	014H
	DB	014H
	DB	077H
	DB	051H
	DB	01bH
	DB	01bH
	DB	01bH
	DB	0f7H
	DB	0eH
	DB	0eH
	DB	00H
	DB	00H
	DB	00H
	DB	00H
	DB	00H
	DB	00H
	DB	00H
	DB	00H
	DB	00H
	DB	08H
	DB	0cH
	DB	0cH
	DB	04H
	DB	00H
	DB	04H
	DB	021H
	DB	05H
	DB	03H
	DB	03H
	DB	021H
	DB	05H
	DB	04aH
	DB	03H
	DB	021H
	DB	05H
	DB	04aH
	DB	03H
	DB	021H
	DB	05H
	DB	04aH
	DB	03H
	DB	021H
	DB	05H
	DB	021H
	DB	03H
	DB	021H
	DB	05H
	DB	021H
	DB	03H
	DB	04aH
	DB	05H
	DB	021H
	DB	03H
	DB	04aH
	DB	05H
	DB	021H
	DB	03H
	DB	04aH
	DB	05H
	DB	021H
	DB	03H
	DB	04aH
	DB	05H
	DB	021H
	DB	03H
	DB	03H
	DB	05H
	DB	021H
	DB	03H
	DB	03H
	DB	05H
	DB	05H
	DB	03H
	DB	03H
	DB	05H
	DB	05H
	DB	03H
	DB	03H
	DB	05H
	DB	05H
	DB	03H
	DB	03H
	DB	05H
	DB	05H
	DB	03H
	DB	03H
	DB	05H
	DB	05H
	DB	03H
	DB	03H
	DB	05H
	DB	05H
	DB	03H
	DB	03H
	DB	05H
	DB	05H
	DB	03H
	DB	03H
	DB	05H
	DB	05H
	DB	03H
	DB	03H
	DB	05H
	DB	05H
	DB	03H
	DB	03H
	DB	05H
	DB	05H
	DB	03H
	DB	03H
	DB	05H
	DB	05H
	DB	03H
	DB	03H
	DB	05H
	DB	05H
	DB	03H
	DB	03H
	DB	05H
	DB	05H
	DB	03H
	DB	03H
	DB	05H
	DB	05H
	DB	03H
	DB	03H
	DB	021H
	DB	05H
	DB	03H
	DB	03H
	DB	021H
	DB	05H
	DB	023H
	DB	08dH
	DB	01aH
	DB	00H
	DB	00H
	DB	00H
	DB	00H
	DB	00H
	DB	00H
	DB	00H
	DB	00H
	DB	00H
	DB	00H
	DB	00H
	DB	00H
	DB	00H
	DB	00H
	DB	00H
	DB	00H
	DB	00H
	DB	00H
	DB	00H
	DB	00H
	DB	00H
	DB	00H
	DB	00H
	DB	00H
	DB	00H
	DB	00H
	DB	00H
	DB	00H
	DB	00H
	DB	00H
	DB	00H
	DB	00H
	DB	00H
	DB	00H
	DB	00H
	DB	00H
	DB	00H
	DB	00H
	DB	00H
	DB	00H
	DB	00H
	DB	00H
	DB	00H
	DB	00H
	DB	00H
	DB	00H
	DB	00H
	DB	00H
	DB	00H
	DB	00H
	DB	00H
	DB	00H
	DB	00H
	DB	00H
	DB	00H
	DB	00H
	DB	00H
	DB	00H
	DB	00H
	DB	00H
	DB	00H
	DB	00H
	DB	00H
	DB	00H
	DB	00H
	DB	00H
	DB	00H
	DB	00H
	DB	00H
	DB	00H
	DB	00H
	DB	00H
	DB	00H
	DB	00H
	DB	00H
	DB	00H
	DB	00H
	DB	00H
	DB	00H
	DB	00H
	DB	00H
	DB	00H
	DB	00H
	DB	029H
	DB	05bH
	DB	03fH
	DB	07H
	DB	07H
	DB	08aH
	DB	0dH
	DB	036H
	DB	07H
	DB	07H
	DB	046H
	DB	014H
	DB	014H
	DB	014H
	DB	077H
	DB	0d9H
	DB	01bH
	DB	01bH
	DB	01bH
	DB	0a6H
	DB	0eH
	DB	0eH
	DB	09H
	DB	00H
	DB	00H
	DB	00H
	DB	00H
	DB	00H
	DB	00H
	DB	00H
	DB	00H
	DB	09H
	DB	0cH
	DB	0cH
	DB	03H
	DB	00H
	DB	09H
	DB	04aH
	DB	05H
	DB	04H
	DB	08H
	DB	03H
	DB	05H
	DB	04H
	DB	08H
	DB	03H
	DB	05H
	DB	04H
	DB	08H
	DB	03H
	DB	05H
	DB	03H
	DB	08H
	DB	03H
	DB	05H
	DB	03H
	DB	08H
	DB	03H
	DB	05H
	DB	03H
	DB	08H
	DB	03H
	DB	05H
	DB	03H
	DB	08H
	DB	04H
	DB	05H
	DB	03H
	DB	08H
	DB	04H
	DB	05H
	DB	03H
	DB	08H
	DB	04H
	DB	05H
	DB	04aH
	DB	08H
	DB	04H
	DB	05H
	DB	04aH
	DB	08H
	DB	04H
	DB	05H
	DB	021H
	DB	08H
	DB	04H
	DB	05H
	DB	021H
	DB	08H
	DB	022H
	DB	05H
	DB	021H
	DB	08H
	DB	022H
	DB	05H
	DB	05H
	DB	08H
	DB	022H
	DB	05H
	DB	05H
	DB	08H
	DB	08H
	DB	05H
	DB	05H
	DB	08H
	DB	08H
	DB	05H
	DB	05H
	DB	08H
	DB	08H
	DB	05H
	DB	05H
	DB	08H
	DB	08H
	DB	05H
	DB	05H
	DB	08H
	DB	08H
	DB	05H
	DB	05H
	DB	022H
	DB	08H
	DB	05H
	DB	05H
	DB	022H
	DB	08H
	DB	021H
	DB	05H
	DB	022H
	DB	08H
	DB	021H
	DB	05H
	DB	04H
	DB	08H
	DB	021H
	DB	05H
	DB	04H
	DB	08H
	DB	04aH
	DB	05H
	DB	04H
	DB	08H
	DB	03H
	DB	05H
	DB	023H
	DB	08dH
	DB	01aH
	DB	00H
	DB	00H
	DB	00H
	DB	00H
	DB	00H
	DB	00H
	DB	00H
	DB	00H
	DB	00H
	DB	00H
	DB	00H
	DB	00H
	DB	00H
	DB	00H
	DB	00H
	DB	00H
	DB	00H
	DB	00H
	DB	00H
	DB	00H
	DB	00H
	DB	00H
	DB	00H
	DB	00H
	DB	00H
	DB	00H
	DB	00H
	DB	00H
	DB	00H
	DB	00H
	DB	00H
	DB	00H
	DB	00H
	DB	00H
	DB	00H
	DB	00H
	DB	00H
	DB	00H
	DB	00H
	DB	00H
	DB	00H
	DB	00H
	DB	00H
	DB	00H
	DB	00H
	DB	00H
	DB	00H
	DB	00H
	DB	00H
	DB	00H
	DB	00H
	DB	00H
	DB	00H
	DB	00H
	DB	00H
	DB	00H
	DB	00H
	DB	00H
	DB	00H
	DB	00H
	DB	00H
	DB	00H
	DB	00H
	DB	00H
	DB	00H
	DB	00H
	DB	00H
	DB	00H
	DB	00H
	DB	00H
	DB	00H
	DB	00H
	DB	00H
	DB	00H
	DB	00H
	DB	00H
	DB	00H
	DB	00H
	DB	00H
	DB	00H
	DB	00H
	DB	00H
	DB	00H
	DB	029H
	DB	05bH
	DB	025H
	DB	07H
	DB	07H
	DB	03fH
	DB	010H
	DB	03dH
	DB	07H
	DB	07H
	DB	07H
	DB	014H
	DB	014H
	DB	014H
	DB	067H
	DB	0aH
	DB	01bH
	DB	01bH
	DB	01bH
	DB	0a6H
	DB	0eH
	DB	0eH
	DB	08H
	DB	00H
	DB	00H
	DB	00H
	DB	00H
	DB	00H
	DB	00H
	DB	00H
	DB	00H
	DB	00H
	DB	0cH
	DB	0cH
	DB	05H
	DB	00H
	DB	022H
	DB	03H
	DB	03H
	DB	021H
	DB	05H
	DB	03H
	DB	03H
	DB	021H
	DB	05H
	DB	04aH
	DB	03H
	DB	021H
	DB	05H
	DB	04aH
	DB	03H
	DB	021H
	DB	05H
	DB	04aH
	DB	03H
	DB	021H
	DB	05H
	DB	021H
	DB	03H
	DB	04aH
	DB	05H
	DB	021H
	DB	03H
	DB	04aH
	DB	05H
	DB	021H
	DB	03H
	DB	04aH
	DB	05H
	DB	021H
	DB	03H
	DB	04aH
	DB	05H
	DB	021H
	DB	03H
	DB	03H
	DB	05H
	DB	021H
	DB	03H
	DB	03H
	DB	05H
	DB	021H
	DB	03H
	DB	03H
	DB	05H
	DB	021H
	DB	03H
	DB	03H
	DB	05H
	DB	05H
	DB	03H
	DB	03H
	DB	05H
	DB	05H
	DB	03H
	DB	03H
	DB	05H
	DB	05H
	DB	03H
	DB	03H
	DB	05H
	DB	05H
	DB	03H
	DB	03H
	DB	05H
	DB	05H
	DB	03H
	DB	03H
	DB	05H
	DB	05H
	DB	03H
	DB	03H
	DB	05H
	DB	05H
	DB	03H
	DB	03H
	DB	05H
	DB	05H
	DB	03H
	DB	03H
	DB	05H
	DB	05H
	DB	03H
	DB	03H
	DB	05H
	DB	05H
	DB	03H
	DB	03H
	DB	05H
	DB	05H
	DB	03H
	DB	03H
	DB	021H
	DB	05H
	DB	03H
	DB	03H
	DB	021H
	DB	05H
	DB	03H
	DB	03H
	DB	021H
	DB	05H
	DB	03H
	DB	03H
	DB	023H
	DB	08dH
	DB	01aH
	DB	00H
	DB	00H
	DB	00H
	DB	00H
	DB	00H
	DB	00H
	DB	00H
	DB	00H
	DB	00H
	DB	00H
	DB	00H
	DB	00H
	DB	00H
	DB	00H
	DB	00H
	DB	00H
	DB	00H
	DB	00H
	DB	00H
	DB	00H
	DB	00H
	DB	00H
	DB	00H
	DB	00H
	DB	00H
	DB	00H
	DB	00H
	DB	00H
	DB	00H
	DB	00H
	DB	00H
	DB	00H
	DB	00H
	DB	00H
	DB	00H
	DB	00H
	DB	00H
	DB	00H
	DB	00H
	DB	00H
	DB	00H
	DB	00H
	DB	00H
	DB	00H
	DB	00H
	DB	00H
	DB	00H
	DB	00H
	DB	00H
	DB	00H
	DB	00H
	DB	00H
	DB	00H
	DB	00H
	DB	00H
	DB	00H
	DB	00H
	DB	00H
	DB	00H
	DB	00H
	DB	00H
	DB	00H
	DB	00H
	DB	00H
	DB	00H
	DB	00H
	DB	00H
	DB	00H
	DB	00H
	DB	00H
	DB	00H
	DB	00H
	DB	00H
	DB	00H
	DB	00H
	DB	00H
	DB	00H
	DB	00H
	DB	00H
	DB	00H
	DB	00H
	DB	00H
	DB	00H
	DB	05bH
	DB	05bH
	DB	07H
	DB	07H
	DB	07H
	DB	076H
	DB	03aH
	DB	02bH
	DB	07H
	DB	07H
	DB	07H
	DB	014H
	DB	014H
	DB	014H
	DB	014H
	DB	0aH
	DB	082H
	DB	01bH
	DB	01bH
	DB	091H
	DB	054H
	DB	0eH
	DB	04H
	DB	00H
	DB	00H
	DB	00H
	DB	00H
	DB	00H
	DB	00H
	DB	00H
	DB	00H
	DB	00H
	DB	02cH
	DB	0cH
	DB	06H
	DB	00H
	DB	0bH
	DB	04H
	DB	08H
	DB	04aH
	DB	05H
	DB	04H
	DB	08H
	DB	03H
	DB	05H
	DB	04H
	DB	08H
	DB	03H
	DB	05H
	DB	04H
	DB	08H
	DB	03H
	DB	05H
	DB	03H
	DB	08H
	DB	03H
	DB	05H
	DB	03H
	DB	08H
	DB	03H
	DB	05H
	DB	03H
	DB	08H
	DB	03H
	DB	05H
	DB	03H
	DB	08H
	DB	04H
	DB	05H
	DB	03H
	DB	08H
	DB	04H
	DB	05H
	DB	03H
	DB	08H
	DB	04H
	DB	05H
	DB	04aH
	DB	08H
	DB	04H
	DB	05H
	DB	021H
	DB	08H
	DB	04H
	DB	05H
	DB	021H
	DB	08H
	DB	04H
	DB	05H
	DB	021H
	DB	08H
	DB	022H
	DB	05H
	DB	05H
	DB	08H
	DB	022H
	DB	05H
	DB	05H
	DB	08H
	DB	022H
	DB	05H
	DB	05H
	DB	08H
	DB	08H
	DB	05H
	DB	05H
	DB	08H
	DB	08H
	DB	05H
	DB	05H
	DB	08H
	DB	08H
	DB	05H
	DB	05H
	DB	08H
	DB	08H
	DB	05H
	DB	05H
	DB	022H
	DB	08H
	DB	05H
	DB	05H
	DB	022H
	DB	08H
	DB	021H
	DB	05H
	DB	022H
	DB	08H
	DB	021H
	DB	05H
	DB	04H
	DB	08H
	DB	021H
	DB	05H
	DB	04H
	DB	08H
	DB	04aH
	DB	05H
	DB	04H
	DB	08H
	DB	04aH
	DB	05H
	DB	04H
	DB	08H
	DB	023H
	DB	08dH
	DB	01aH
	DB	00H
	DB	00H
	DB	00H
	DB	00H
	DB	00H
	DB	00H
	DB	00H
	DB	00H
	DB	00H
	DB	00H
	DB	00H
	DB	00H
	DB	00H
	DB	00H
	DB	00H
	DB	00H
	DB	00H
	DB	00H
	DB	00H
	DB	00H
	DB	00H
	DB	00H
	DB	00H
	DB	00H
	DB	00H
	DB	00H
	DB	00H
	DB	00H
	DB	00H
	DB	00H
	DB	00H
	DB	00H
	DB	00H
	DB	00H
	DB	00H
	DB	00H
	DB	00H
	DB	00H
	DB	00H
	DB	00H
	DB	00H
	DB	00H
	DB	00H
	DB	00H
	DB	00H
	DB	00H
	DB	00H
	DB	00H
	DB	00H
	DB	00H
	DB	00H
	DB	00H
	DB	00H
	DB	00H
	DB	00H
	DB	00H
	DB	00H
	DB	00H
	DB	00H
	DB	00H
	DB	00H
	DB	00H
	DB	00H
	DB	00H
	DB	00H
	DB	00H
	DB	00H
	DB	00H
	DB	00H
	DB	00H
	DB	00H
	DB	00H
	DB	00H
	DB	00H
	DB	00H
	DB	00H
	DB	00H
	DB	00H
	DB	00H
	DB	00H
	DB	00H
	DB	00H
	DB	00H
	DB	05bH
	DB	029H
	DB	07H
	DB	07H
	DB	07H
	DB	03dH
	DB	01fH
	DB	050H
	DB	07H
	DB	07H
	DB	07H
	DB	0beH
	DB	014H
	DB	014H
	DB	014H
	DB	0d8H
	DB	082H
	DB	01bH
	DB	01bH
	DB	091H
	DB	080H
	DB	0eH
	DB	021H
	DB	00H
	DB	00H
	DB	00H
	DB	00H
	DB	00H
	DB	00H
	DB	00H
	DB	00H
	DB	00H
	DB	06H
	DB	0cH
	DB	026H
	DB	00H
	DB	09H
	DB	021H
	DB	05H
	DB	03H
	DB	03H
	DB	021H
	DB	05H
	DB	04aH
	DB	03H
	DB	021H
	DB	05H
	DB	04aH
	DB	03H
	DB	021H
	DB	05H
	DB	04aH
	DB	03H
	DB	021H
	DB	05H
	DB	04aH
	DB	03H
	DB	04aH
	DB	05H
	DB	04aH
	DB	03H
	DB	04aH
	DB	05H
	DB	021H
	DB	03H
	DB	04aH
	DB	05H
	DB	021H
	DB	03H
	DB	04aH
	DB	05H
	DB	021H
	DB	03H
	DB	03H
	DB	05H
	DB	021H
	DB	03H
	DB	03H
	DB	05H
	DB	021H
	DB	03H
	DB	03H
	DB	05H
	DB	021H
	DB	03H
	DB	03H
	DB	05H
	DB	021H
	DB	03H
	DB	03H
	DB	05H
	DB	05H
	DB	03H
	DB	03H
	DB	05H
	DB	05H
	DB	03H
	DB	03H
	DB	05H
	DB	05H
	DB	03H
	DB	03H
	DB	05H
	DB	05H
	DB	03H
	DB	03H
	DB	05H
	DB	05H
	DB	03H
	DB	03H
	DB	05H
	DB	05H
	DB	03H
	DB	03H
	DB	05H
	DB	05H
	DB	03H
	DB	03H
	DB	05H
	DB	05H
	DB	03H
	DB	03H
	DB	05H
	DB	05H
	DB	03H
	DB	03H
	DB	021H
	DB	05H
	DB	03H
	DB	03H
	DB	021H
	DB	05H
	DB	03H
	DB	03H
	DB	021H
	DB	05H
	DB	03H
	DB	03H
	DB	021H
	DB	05H
	DB	03H
	DB	03H
	DB	021H
	DB	05H
	DB	066H
	DB	023H
	DB	01aH
	DB	00H
	DB	00H
	DB	00H
	DB	00H
	DB	00H
	DB	00H
	DB	00H
	DB	00H
	DB	00H
	DB	00H
	DB	00H
	DB	00H
	DB	00H
	DB	00H
	DB	00H
	DB	00H
	DB	00H
	DB	00H
	DB	00H
	DB	00H
	DB	00H
	DB	00H
	DB	00H
	DB	00H
	DB	00H
	DB	00H
	DB	00H
	DB	00H
	DB	00H
	DB	00H
	DB	00H
	DB	00H
	DB	00H
	DB	00H
	DB	00H
	DB	00H
	DB	00H
	DB	00H
	DB	00H
	DB	00H
	DB	00H
	DB	00H
	DB	00H
	DB	00H
	DB	00H
	DB	00H
	DB	00H
	DB	00H
	DB	00H
	DB	00H
	DB	00H
	DB	00H
	DB	00H
	DB	00H
	DB	00H
	DB	00H
	DB	00H
	DB	00H
	DB	00H
	DB	00H
	DB	00H
	DB	00H
	DB	00H
	DB	00H
	DB	00H
	DB	00H
	DB	00H
	DB	00H
	DB	00H
	DB	00H
	DB	00H
	DB	00H
	DB	00H
	DB	00H
	DB	00H
	DB	00H
	DB	00H
	DB	00H
	DB	00H
	DB	00H
	DB	00H
	DB	00H
	DB	00H
	DB	029H
	DB	029H
	DB	07H
	DB	07H
	DB	07H
	DB	05fH
	DB	0dH
	DB	037H
	DB	07H
	DB	07H
	DB	07H
	DB	05cH
	DB	014H
	DB	014H
	DB	014H
	DB	017H
	DB	018H
	DB	01bH
	DB	0daH
	DB	01bH
	DB	0d4H
	DB	0eH
	DB	06H
	DB	00H
	DB	00H
	DB	00H
	DB	00H
	DB	00H
	DB	00H
	DB	00H
	DB	00H
	DB	00H
	DB	05H
	DB	0cH
	DB	031H
	DB	00H
	DB	00H
	DB	04aH
	DB	05H
	DB	04H
	DB	08H
	DB	04aH
	DB	05H
	DB	04H
	DB	08H
	DB	03H
	DB	05H
	DB	04H
	DB	08H
	DB	03H
	DB	05H
	DB	03H
	DB	08H
	DB	03H
	DB	05H
	DB	03H
	DB	08H
	DB	03H
	DB	05H
	DB	03H
	DB	08H
	DB	03H
	DB	05H
	DB	03H
	DB	08H
	DB	03H
	DB	05H
	DB	03H
	DB	08H
	DB	04H
	DB	05H
	DB	03H
	DB	08H
	DB	04H
	DB	05H
	DB	04aH
	DB	08H
	DB	04H
	DB	05H
	DB	04aH
	DB	08H
	DB	04H
	DB	05H
	DB	021H
	DB	08H
	DB	04H
	DB	05H
	DB	021H
	DB	08H
	DB	04H
	DB	05H
	DB	021H
	DB	08H
	DB	022H
	DB	05H
	DB	05H
	DB	08H
	DB	022H
	DB	05H
	DB	05H
	DB	08H
	DB	022H
	DB	05H
	DB	05H
	DB	08H
	DB	08H
	DB	05H
	DB	05H
	DB	08H
	DB	08H
	DB	05H
	DB	05H
	DB	08H
	DB	08H
	DB	05H
	DB	05H
	DB	022H
	DB	08H
	DB	05H
	DB	05H
	DB	022H
	DB	08H
	DB	05H
	DB	05H
	DB	022H
	DB	08H
	DB	021H
	DB	05H
	DB	04H
	DB	08H
	DB	021H
	DB	05H
	DB	04H
	DB	08H
	DB	021H
	DB	05H
	DB	04H
	DB	08H
	DB	04aH
	DB	05H
	DB	04H
	DB	08H
	DB	04aH
	DB	05H
	DB	066H
	DB	023H
	DB	01aH
	DB	00H
	DB	00H
	DB	00H
	DB	00H
