; Listing generated by Microsoft (R) Optimizing Compiler Version 16.00.40219.01 

	TITLE	C:\DUII\Simulation\GUI\Widget\LISTVIEW_InsertRow.c
	.686P
	.XMM
	include listing.inc
	.model	flat

INCLUDELIB LIBCMT
INCLUDELIB OLDNAMES

PUBLIC	_LISTVIEW_InsertRow
EXTRN	_LISTVIEW_AddRow:PROC
EXTRN	_LISTVIEW__InvalidateRowAndBelow:PROC
EXTRN	_LISTVIEW__InvalidateInsideArea:PROC
EXTRN	_LISTVIEW__UpdateScrollParas:PROC
EXTRN	_LISTVIEW_IncSel:PROC
EXTRN	_LISTVIEW__GetSel:PROC
EXTRN	_strcpy:PROC
EXTRN	_GUI_ARRAY_AddItem:PROC
EXTRN	_GUI__strlen:PROC
EXTRN	_GUI_ARRAY_GetpItemLocked:PROC
EXTRN	_GUI_ARRAY_Create:PROC
EXTRN	_GUI_ARRAY_InsertItem:PROC
EXTRN	_GUI_ALLOC_UnlockH:PROC
EXTRN	_LISTVIEW__GetNumColumns:PROC
EXTRN	_GUI_ARRAY_GetNumItems:PROC
EXTRN	_LISTVIEW_LockH:PROC
EXTRN	__RTC_CheckEsp:PROC
EXTRN	__RTC_Shutdown:PROC
EXTRN	__RTC_InitBase:PROC
;	COMDAT rtc$TMZ
; File c:\duii\simulation\gui\widget\listview_insertrow.c
rtc$TMZ	SEGMENT
__RTC_Shutdown.rtc$TMZ DD FLAT:__RTC_Shutdown
rtc$TMZ	ENDS
;	COMDAT rtc$IMZ
rtc$IMZ	SEGMENT
__RTC_InitBase.rtc$IMZ DD FLAT:__RTC_InitBase
; Function compile flags: /Odtp /RTCsu /ZI
rtc$IMZ	ENDS
;	COMDAT _LISTVIEW_InsertRow
_TEXT	SEGMENT
tv88 = -340						; size = 4
_pCell$15546 = -140					; size = 4
_s$15539 = -128						; size = 4
_NumBytes$15538 = -116					; size = 4
_i$15537 = -104						; size = 4
_pRow$15536 = -92					; size = 4
_pObj$15531 = -80					; size = 4
_ScrollChanged$15530 = -68				; size = 4
_NumColumns$15529 = -56					; size = 4
_NumItems$15528 = -44					; size = 4
_CellArray$15527 = -32					; size = 4
_RowArray$15526 = -20					; size = 4
_r$ = -8						; size = 4
_hObj$ = 8						; size = 4
_Index$ = 12						; size = 4
_ppText$ = 16						; size = 4
_LISTVIEW_InsertRow PROC				; COMDAT
; Line 39
	push	ebp
	mov	ebp, esp
	sub	esp, 340				; 00000154H
	push	ebx
	push	esi
	push	edi
	lea	edi, DWORD PTR [ebp-340]
	mov	ecx, 85					; 00000055H
	mov	eax, -858993460				; ccccccccH
	rep stosd
; Line 40
	mov	DWORD PTR _r$[ebp], 0
; Line 41
	cmp	DWORD PTR _hObj$[ebp], 0
	je	$LN18@LISTVIEW_I
; Line 49
	mov	eax, DWORD PTR _hObj$[ebp]
	push	eax
	call	_LISTVIEW_LockH
	add	esp, 4
	mov	DWORD PTR _pObj$15531[ebp], eax
; Line 50
	mov	eax, DWORD PTR _pObj$15531[ebp]
	mov	ecx, DWORD PTR [eax+60]
	push	ecx
	call	_GUI_ARRAY_GetNumItems
	add	esp, 4
	mov	DWORD PTR _NumItems$15528[ebp], eax
; Line 51
	mov	eax, DWORD PTR _pObj$15531[ebp]
	push	eax
	call	_LISTVIEW__GetNumColumns
	add	esp, 4
	mov	DWORD PTR _NumColumns$15529[ebp], eax
; Line 52
	mov	eax, DWORD PTR _pObj$15531[ebp]
	mov	ecx, DWORD PTR [eax+60]
	mov	DWORD PTR _RowArray$15526[ebp], ecx
; Line 53
	call	_GUI_ALLOC_UnlockH
	mov	DWORD PTR _pObj$15531[ebp], 0
; Line 54
	mov	eax, DWORD PTR _Index$[ebp]
	cmp	eax, DWORD PTR _NumItems$15528[ebp]
	jae	$LN17@LISTVIEW_I
; Line 56
	push	12					; 0000000cH
	mov	eax, DWORD PTR _Index$[ebp]
	push	eax
	mov	ecx, DWORD PTR _RowArray$15526[ebp]
	push	ecx
	call	_GUI_ARRAY_InsertItem
	add	esp, 12					; 0000000cH
	test	eax, eax
	je	$LN16@LISTVIEW_I
; Line 60
	call	_GUI_ARRAY_Create
	mov	DWORD PTR _CellArray$15527[ebp], eax
; Line 61
	cmp	DWORD PTR _CellArray$15527[ebp], 0
	je	$LN15@LISTVIEW_I
; Line 62
	mov	eax, DWORD PTR _Index$[ebp]
	push	eax
	mov	ecx, DWORD PTR _RowArray$15526[ebp]
	push	ecx
	call	_GUI_ARRAY_GetpItemLocked
	add	esp, 8
	mov	DWORD PTR _pRow$15536[ebp], eax
; Line 63
	mov	eax, DWORD PTR _pRow$15536[ebp]
	mov	ecx, DWORD PTR _CellArray$15527[ebp]
	mov	DWORD PTR [eax], ecx
; Line 64
	call	_GUI_ALLOC_UnlockH
	mov	DWORD PTR _pRow$15536[ebp], 0
; Line 66
	mov	DWORD PTR _i$15537[ebp], 0
	jmp	SHORT $LN14@LISTVIEW_I
$LN13@LISTVIEW_I:
	mov	eax, DWORD PTR _i$15537[ebp]
	add	eax, 1
	mov	DWORD PTR _i$15537[ebp], eax
$LN14@LISTVIEW_I:
	mov	eax, DWORD PTR _i$15537[ebp]
	cmp	eax, DWORD PTR _NumColumns$15529[ebp]
	jge	$LN12@LISTVIEW_I
; Line 68
	cmp	DWORD PTR _ppText$[ebp], 0
	je	SHORT $LN21@LISTVIEW_I
	mov	eax, DWORD PTR _ppText$[ebp]
	mov	ecx, DWORD PTR [eax]
	mov	DWORD PTR tv88[ebp], ecx
	mov	edx, DWORD PTR _ppText$[ebp]
	add	edx, 4
	mov	DWORD PTR _ppText$[ebp], edx
	jmp	SHORT $LN22@LISTVIEW_I
$LN21@LISTVIEW_I:
	mov	DWORD PTR tv88[ebp], 0
$LN22@LISTVIEW_I:
	mov	eax, DWORD PTR tv88[ebp]
	mov	DWORD PTR _s$15539[ebp], eax
; Line 69
	cmp	DWORD PTR _s$15539[ebp], 0
	jne	SHORT $LN11@LISTVIEW_I
; Line 70
	mov	DWORD PTR _ppText$[ebp], 0
$LN11@LISTVIEW_I:
; Line 72
	mov	eax, DWORD PTR _s$15539[ebp]
	push	eax
	call	_GUI__strlen
	add	esp, 4
	add	eax, 1
	mov	DWORD PTR _NumBytes$15538[ebp], eax
; Line 73
	mov	eax, DWORD PTR _NumBytes$15538[ebp]
	add	eax, 8
	push	eax
	push	0
	mov	ecx, DWORD PTR _CellArray$15527[ebp]
	push	ecx
	call	_GUI_ARRAY_AddItem
	add	esp, 12					; 0000000cH
	test	eax, eax
	je	SHORT $LN10@LISTVIEW_I
; Line 74
	mov	DWORD PTR _r$[ebp], 1
; Line 75
	jmp	SHORT $LN12@LISTVIEW_I
$LN10@LISTVIEW_I:
; Line 77
	mov	eax, DWORD PTR _i$15537[ebp]
	push	eax
	mov	ecx, DWORD PTR _CellArray$15527[ebp]
	push	ecx
	call	_GUI_ARRAY_GetpItemLocked
	add	esp, 8
	mov	DWORD PTR _pCell$15546[ebp], eax
; Line 78
	cmp	DWORD PTR _NumBytes$15538[ebp], 1
	jle	SHORT $LN9@LISTVIEW_I
; Line 79
	mov	eax, DWORD PTR _s$15539[ebp]
	push	eax
	mov	ecx, DWORD PTR _pCell$15546[ebp]
	add	ecx, 4
	push	ecx
	call	_strcpy
	add	esp, 8
$LN9@LISTVIEW_I:
; Line 81
	call	_GUI_ALLOC_UnlockH
	mov	DWORD PTR _pCell$15546[ebp], 0
; Line 82
	jmp	$LN13@LISTVIEW_I
$LN12@LISTVIEW_I:
; Line 83
	mov	eax, DWORD PTR _hObj$[ebp]
	push	eax
	call	_LISTVIEW_LockH
	add	esp, 4
	mov	DWORD PTR _pObj$15531[ebp], eax
; Line 84
	mov	eax, DWORD PTR _pObj$15531[ebp]
	cmp	DWORD PTR [eax+120], 0
	jge	SHORT $LN8@LISTVIEW_I
; Line 85
	mov	eax, DWORD PTR _pObj$15531[ebp]
	push	eax
	call	_LISTVIEW__GetSel
	add	esp, 4
	cmp	DWORD PTR _Index$[ebp], eax
	jge	SHORT $LN8@LISTVIEW_I
; Line 86
	mov	eax, DWORD PTR _hObj$[ebp]
	push	eax
	call	_LISTVIEW_IncSel
	add	esp, 4
$LN8@LISTVIEW_I:
; Line 89
	mov	eax, DWORD PTR _pObj$15531[ebp]
	mov	BYTE PTR [eax+173], 0
; Line 90
	call	_GUI_ALLOC_UnlockH
	mov	DWORD PTR _pObj$15531[ebp], 0
; Line 91
	mov	eax, DWORD PTR _hObj$[ebp]
	push	eax
	call	_LISTVIEW__UpdateScrollParas
	add	esp, 4
	mov	DWORD PTR _ScrollChanged$15530[ebp], eax
; Line 92
	mov	eax, DWORD PTR _hObj$[ebp]
	push	eax
	call	_LISTVIEW_LockH
	add	esp, 4
	mov	DWORD PTR _pObj$15531[ebp], eax
; Line 93
	cmp	DWORD PTR _ScrollChanged$15530[ebp], 0
	je	SHORT $LN6@LISTVIEW_I
; Line 94
	mov	eax, DWORD PTR _hObj$[ebp]
	push	eax
	call	_LISTVIEW__InvalidateInsideArea
	add	esp, 4
; Line 95
	jmp	SHORT $LN5@LISTVIEW_I
$LN6@LISTVIEW_I:
; Line 96
	mov	eax, DWORD PTR _pObj$15531[ebp]
	cmp	DWORD PTR [eax+168], 0
	je	SHORT $LN4@LISTVIEW_I
	mov	eax, DWORD PTR _pObj$15531[ebp]
	cmp	DWORD PTR [eax+120], 0
	jl	SHORT $LN4@LISTVIEW_I
; Line 97
	mov	eax, DWORD PTR _hObj$[ebp]
	push	eax
	call	_LISTVIEW__InvalidateInsideArea
	add	esp, 4
; Line 98
	jmp	SHORT $LN5@LISTVIEW_I
$LN4@LISTVIEW_I:
; Line 99
	mov	eax, DWORD PTR _Index$[ebp]
	push	eax
	mov	ecx, DWORD PTR _pObj$15531[ebp]
	push	ecx
	mov	edx, DWORD PTR _hObj$[ebp]
	push	edx
	call	_LISTVIEW__InvalidateRowAndBelow
	add	esp, 12					; 0000000cH
$LN5@LISTVIEW_I:
; Line 102
	call	_GUI_ALLOC_UnlockH
	mov	DWORD PTR _pObj$15531[ebp], 0
$LN15@LISTVIEW_I:
; Line 104
	jmp	SHORT $LN2@LISTVIEW_I
$LN16@LISTVIEW_I:
; Line 105
	mov	DWORD PTR _r$[ebp], 1
$LN2@LISTVIEW_I:
; Line 107
	jmp	SHORT $LN18@LISTVIEW_I
$LN17@LISTVIEW_I:
; Line 109
	mov	eax, DWORD PTR _ppText$[ebp]
	push	eax
	mov	ecx, DWORD PTR _hObj$[ebp]
	push	ecx
	call	_LISTVIEW_AddRow
	add	esp, 8
	mov	DWORD PTR _r$[ebp], eax
$LN18@LISTVIEW_I:
; Line 113
	mov	eax, DWORD PTR _r$[ebp]
; Line 114
	pop	edi
	pop	esi
	pop	ebx
	add	esp, 340				; 00000154H
	cmp	ebp, esp
	call	__RTC_CheckEsp
	mov	esp, ebp
	pop	ebp
	ret	0
_LISTVIEW_InsertRow ENDP
_TEXT	ENDS
END
