; Listing generated by Microsoft (R) Optimizing Compiler Version 16.00.40219.01 

	TITLE	C:\DUII\Simulation\GUI\Widget\LISTVIEW_SetItemColor.c
	.686P
	.XMM
	include listing.inc
	.model	flat

INCLUDELIB LIBCMT
INCLUDELIB OLDNAMES

PUBLIC	_LISTVIEW_SetItemTextColor
EXTRN	_GUI_ALLOC_UnlockH:PROC
EXTRN	_LISTVIEW__InvalidateRow:PROC
EXTRN	_LISTVIEW_LockH:PROC
EXTRN	__RTC_CheckEsp:PROC
EXTRN	__RTC_Shutdown:PROC
EXTRN	__RTC_InitBase:PROC
;	COMDAT rtc$TMZ
; File c:\duii\simulation\gui\widget\listview_setitemcolor.c
rtc$TMZ	SEGMENT
__RTC_Shutdown.rtc$TMZ DD FLAT:__RTC_Shutdown
rtc$TMZ	ENDS
;	COMDAT rtc$IMZ
rtc$IMZ	SEGMENT
__RTC_InitBase.rtc$IMZ DD FLAT:__RTC_InitBase
; Function compile flags: /Odtp /RTCsu /ZI
rtc$IMZ	ENDS
;	COMDAT _LISTVIEW_SetItemTextColor
_TEXT	SEGMENT
_pCellInfo$ = -20					; size = 4
_pObj$ = -8						; size = 4
_hObj$ = 8						; size = 4
_Column$ = 12						; size = 4
_Row$ = 16						; size = 4
_Index$ = 20						; size = 4
_Color$ = 24						; size = 4
_LISTVIEW_SetItemTextColor PROC				; COMDAT
; Line 103
	push	ebp
	mov	ebp, esp
	sub	esp, 216				; 000000d8H
	push	ebx
	push	esi
	push	edi
	lea	edi, DWORD PTR [ebp-216]
	mov	ecx, 54					; 00000036H
	mov	eax, -858993460				; ccccccccH
	rep stosd
; Line 106
	cmp	DWORD PTR _hObj$[ebp], 0
	je	SHORT $LN4@LISTVIEW_S
; Line 108
	mov	eax, DWORD PTR _Index$[ebp]
	push	eax
	mov	ecx, DWORD PTR _Row$[ebp]
	push	ecx
	mov	edx, DWORD PTR _Column$[ebp]
	push	edx
	mov	eax, DWORD PTR _hObj$[ebp]
	push	eax
	call	__GetpCellInfo
	add	esp, 16					; 00000010H
	mov	DWORD PTR _pCellInfo$[ebp], eax
; Line 109
	cmp	DWORD PTR _pCellInfo$[ebp], 0
	je	SHORT $LN2@LISTVIEW_S
; Line 110
	mov	eax, DWORD PTR _hObj$[ebp]
	push	eax
	call	_LISTVIEW_LockH
	add	esp, 4
	mov	DWORD PTR _pObj$[ebp], eax
; Line 111
	mov	eax, DWORD PTR _Index$[ebp]
	mov	ecx, DWORD PTR _pCellInfo$[ebp]
	mov	edx, DWORD PTR _Color$[ebp]
	mov	DWORD PTR [ecx+eax*4+24], edx
; Line 112
	mov	eax, DWORD PTR _pCellInfo$[ebp]
	movzx	ecx, BYTE PTR [eax+44]
	or	ecx, 1
	mov	edx, DWORD PTR _pCellInfo$[ebp]
	mov	BYTE PTR [edx+44], cl
; Line 113
	mov	eax, DWORD PTR _Row$[ebp]
	push	eax
	mov	ecx, DWORD PTR _pObj$[ebp]
	push	ecx
	mov	edx, DWORD PTR _hObj$[ebp]
	push	edx
	call	_LISTVIEW__InvalidateRow
	add	esp, 12					; 0000000cH
; Line 114
	call	_GUI_ALLOC_UnlockH
	mov	DWORD PTR _pObj$[ebp], 0
$LN2@LISTVIEW_S:
; Line 116
	cmp	DWORD PTR _pCellInfo$[ebp], 0
	je	SHORT $LN4@LISTVIEW_S
; Line 117
	call	_GUI_ALLOC_UnlockH
	mov	DWORD PTR _pCellInfo$[ebp], 0
$LN4@LISTVIEW_S:
; Line 121
	pop	edi
	pop	esi
	pop	ebx
	add	esp, 216				; 000000d8H
	cmp	ebp, esp
	call	__RTC_CheckEsp
	mov	esp, ebp
	pop	ebp
	ret	0
_LISTVIEW_SetItemTextColor ENDP
_TEXT	ENDS
EXTRN	_LISTVIEW_GetBkColor:PROC
EXTRN	_LISTVIEW_GetTextColor:PROC
EXTRN	_GUI_ALLOC_LockH:PROC
EXTRN	_GUI_ALLOC_AllocZero:PROC
EXTRN	_GUI_ARRAY_GetpItemLocked:PROC
EXTRN	_LISTVIEW__GetNumRows:PROC
EXTRN	_LISTVIEW__GetNumColumns:PROC
; Function compile flags: /Odtp /RTCsu /ZI
;	COMDAT __GetpCellInfo
_TEXT	SEGMENT
_i$15537 = -116						; size = 4
_hCellInfo$15536 = -104					; size = 4
_pCell$15535 = -92					; size = 4
_pRow$15534 = -80					; size = 4
_pObj$15533 = -68					; size = 4
_NumRows$15532 = -56					; size = 4
_NumColumns$15531 = -44					; size = 4
_CellArray$15530 = -32					; size = 4
_RowArray$15529 = -20					; size = 4
_pCellInfo$ = -8					; size = 4
_hObj$ = 8						; size = 4
_Column$ = 12						; size = 4
_Row$ = 16						; size = 4
_Index$ = 20						; size = 4
__GetpCellInfo PROC					; COMDAT
; Line 43
	push	ebp
	mov	ebp, esp
	sub	esp, 312				; 00000138H
	push	ebx
	push	esi
	push	edi
	lea	edi, DWORD PTR [ebp-312]
	mov	ecx, 78					; 0000004eH
	mov	eax, -858993460				; ccccccccH
	rep stosd
; Line 44
	mov	DWORD PTR _pCellInfo$[ebp], 0
; Line 45
	cmp	DWORD PTR _hObj$[ebp], 0
	je	$LN11@GetpCellIn
; Line 55
	mov	eax, DWORD PTR _hObj$[ebp]
	push	eax
	call	_LISTVIEW_LockH
	add	esp, 4
	mov	DWORD PTR _pObj$15533[ebp], eax
; Line 56
	mov	eax, DWORD PTR _pObj$15533[ebp]
	push	eax
	call	_LISTVIEW__GetNumColumns
	add	esp, 4
	mov	DWORD PTR _NumColumns$15531[ebp], eax
; Line 57
	mov	eax, DWORD PTR _pObj$15533[ebp]
	push	eax
	call	_LISTVIEW__GetNumRows
	add	esp, 4
	mov	DWORD PTR _NumRows$15532[ebp], eax
; Line 58
	mov	eax, DWORD PTR _pObj$15533[ebp]
	mov	ecx, DWORD PTR [eax+60]
	mov	DWORD PTR _RowArray$15529[ebp], ecx
; Line 59
	call	_GUI_ALLOC_UnlockH
	mov	DWORD PTR _pObj$15533[ebp], 0
; Line 60
	cmp	DWORD PTR _Index$[ebp], 4
	jae	$LN11@GetpCellIn
; Line 61
	mov	eax, DWORD PTR _Column$[ebp]
	cmp	eax, DWORD PTR _NumColumns$15531[ebp]
	jae	$LN11@GetpCellIn
	mov	eax, DWORD PTR _Row$[ebp]
	cmp	eax, DWORD PTR _NumRows$15532[ebp]
	jae	$LN11@GetpCellIn
; Line 62
	mov	eax, DWORD PTR _Row$[ebp]
	push	eax
	mov	ecx, DWORD PTR _RowArray$15529[ebp]
	push	ecx
	call	_GUI_ARRAY_GetpItemLocked
	add	esp, 8
	mov	DWORD PTR _pRow$15534[ebp], eax
; Line 63
	cmp	DWORD PTR _pRow$15534[ebp], 0
	je	$LN11@GetpCellIn
; Line 64
	mov	eax, DWORD PTR _pRow$15534[ebp]
	mov	ecx, DWORD PTR [eax]
	mov	DWORD PTR _CellArray$15530[ebp], ecx
; Line 65
	call	_GUI_ALLOC_UnlockH
	mov	DWORD PTR _pRow$15534[ebp], 0
; Line 66
	mov	eax, DWORD PTR _Column$[ebp]
	push	eax
	mov	ecx, DWORD PTR _CellArray$15530[ebp]
	push	ecx
	call	_GUI_ARRAY_GetpItemLocked
	add	esp, 8
	mov	DWORD PTR _pCell$15535[ebp], eax
; Line 67
	cmp	DWORD PTR _pCell$15535[ebp], 0
	je	$LN11@GetpCellIn
; Line 68
	mov	eax, DWORD PTR _pCell$15535[ebp]
	mov	ecx, DWORD PTR [eax]
	mov	DWORD PTR _hCellInfo$15536[ebp], ecx
; Line 69
	call	_GUI_ALLOC_UnlockH
	mov	DWORD PTR _pCell$15535[ebp], 0
; Line 70
	cmp	DWORD PTR _hCellInfo$15536[ebp], 0
	jne	$LN6@GetpCellIn
; Line 71
	push	48					; 00000030H
	call	_GUI_ALLOC_AllocZero
	add	esp, 4
	mov	DWORD PTR _hCellInfo$15536[ebp], eax
; Line 72
	cmp	DWORD PTR _hCellInfo$15536[ebp], 0
	je	$LN5@GetpCellIn
; Line 73
	mov	eax, DWORD PTR _Column$[ebp]
	push	eax
	mov	ecx, DWORD PTR _CellArray$15530[ebp]
	push	ecx
	call	_GUI_ARRAY_GetpItemLocked
	add	esp, 8
	mov	DWORD PTR _pCell$15535[ebp], eax
; Line 74
	mov	eax, DWORD PTR _pCell$15535[ebp]
	mov	ecx, DWORD PTR _hCellInfo$15536[ebp]
	mov	DWORD PTR [eax], ecx
; Line 75
	call	_GUI_ALLOC_UnlockH
	mov	DWORD PTR _pCell$15535[ebp], 0
; Line 76
	mov	eax, DWORD PTR _hCellInfo$15536[ebp]
	push	eax
	call	_GUI_ALLOC_LockH
	add	esp, 4
	mov	DWORD PTR _pCellInfo$[ebp], eax
; Line 77
	mov	DWORD PTR _i$15537[ebp], 0
	jmp	SHORT $LN4@GetpCellIn
$LN3@GetpCellIn:
	mov	eax, DWORD PTR _i$15537[ebp]
	add	eax, 1
	mov	DWORD PTR _i$15537[ebp], eax
$LN4@GetpCellIn:
	cmp	DWORD PTR _i$15537[ebp], 4
	jae	SHORT $LN5@GetpCellIn
; Line 78
	mov	eax, DWORD PTR _i$15537[ebp]
	push	eax
	mov	ecx, DWORD PTR _hObj$[ebp]
	push	ecx
	call	_LISTVIEW_GetTextColor
	add	esp, 8
	mov	edx, DWORD PTR _i$15537[ebp]
	mov	ecx, DWORD PTR _pCellInfo$[ebp]
	mov	DWORD PTR [ecx+edx*4+24], eax
; Line 79
	mov	eax, DWORD PTR _i$15537[ebp]
	push	eax
	mov	ecx, DWORD PTR _hObj$[ebp]
	push	ecx
	call	_LISTVIEW_GetBkColor
	add	esp, 8
	mov	edx, DWORD PTR _i$15537[ebp]
	mov	ecx, DWORD PTR _pCellInfo$[ebp]
	mov	DWORD PTR [ecx+edx*4+8], eax
; Line 80
	jmp	SHORT $LN3@GetpCellIn
$LN5@GetpCellIn:
; Line 82
	jmp	SHORT $LN11@GetpCellIn
$LN6@GetpCellIn:
; Line 83
	mov	eax, DWORD PTR _hCellInfo$15536[ebp]
	push	eax
	call	_GUI_ALLOC_LockH
	add	esp, 4
	mov	DWORD PTR _pCellInfo$[ebp], eax
$LN11@GetpCellIn:
; Line 90
	mov	eax, DWORD PTR _pCellInfo$[ebp]
; Line 91
	pop	edi
	pop	esi
	pop	ebx
	add	esp, 312				; 00000138H
	cmp	ebp, esp
	call	__RTC_CheckEsp
	mov	esp, ebp
	pop	ebp
	ret	0
__GetpCellInfo ENDP
_TEXT	ENDS
PUBLIC	_LISTVIEW_SetItemBkColor
; Function compile flags: /Odtp /RTCsu /ZI
;	COMDAT _LISTVIEW_SetItemBkColor
_TEXT	SEGMENT
_pCellInfo$ = -20					; size = 4
_pObj$ = -8						; size = 4
_hObj$ = 8						; size = 4
_Column$ = 12						; size = 4
_Row$ = 16						; size = 4
_Index$ = 20						; size = 4
_Color$ = 24						; size = 4
_LISTVIEW_SetItemBkColor PROC				; COMDAT
; Line 127
	push	ebp
	mov	ebp, esp
	sub	esp, 216				; 000000d8H
	push	ebx
	push	esi
	push	edi
	lea	edi, DWORD PTR [ebp-216]
	mov	ecx, 54					; 00000036H
	mov	eax, -858993460				; ccccccccH
	rep stosd
; Line 130
	cmp	DWORD PTR _hObj$[ebp], 0
	je	SHORT $LN4@LISTVIEW_S@2
; Line 132
	mov	eax, DWORD PTR _Index$[ebp]
	push	eax
	mov	ecx, DWORD PTR _Row$[ebp]
	push	ecx
	mov	edx, DWORD PTR _Column$[ebp]
	push	edx
	mov	eax, DWORD PTR _hObj$[ebp]
	push	eax
	call	__GetpCellInfo
	add	esp, 16					; 00000010H
	mov	DWORD PTR _pCellInfo$[ebp], eax
; Line 133
	cmp	DWORD PTR _pCellInfo$[ebp], 0
	je	SHORT $LN2@LISTVIEW_S@2
; Line 134
	mov	eax, DWORD PTR _hObj$[ebp]
	push	eax
	call	_LISTVIEW_LockH
	add	esp, 4
	mov	DWORD PTR _pObj$[ebp], eax
; Line 135
	mov	eax, DWORD PTR _Index$[ebp]
	mov	ecx, DWORD PTR _pCellInfo$[ebp]
	mov	edx, DWORD PTR _Color$[ebp]
	mov	DWORD PTR [ecx+eax*4+8], edx
; Line 136
	mov	eax, DWORD PTR _pCellInfo$[ebp]
	movzx	ecx, BYTE PTR [eax+44]
	or	ecx, 1
	mov	edx, DWORD PTR _pCellInfo$[ebp]
	mov	BYTE PTR [edx+44], cl
; Line 137
	mov	eax, DWORD PTR _Row$[ebp]
	push	eax
	mov	ecx, DWORD PTR _pObj$[ebp]
	push	ecx
	mov	edx, DWORD PTR _hObj$[ebp]
	push	edx
	call	_LISTVIEW__InvalidateRow
	add	esp, 12					; 0000000cH
; Line 138
	call	_GUI_ALLOC_UnlockH
	mov	DWORD PTR _pObj$[ebp], 0
$LN2@LISTVIEW_S@2:
; Line 140
	cmp	DWORD PTR _pCellInfo$[ebp], 0
	je	SHORT $LN4@LISTVIEW_S@2
; Line 141
	call	_GUI_ALLOC_UnlockH
	mov	DWORD PTR _pCellInfo$[ebp], 0
$LN4@LISTVIEW_S@2:
; Line 145
	pop	edi
	pop	esi
	pop	ebx
	add	esp, 216				; 000000d8H
	cmp	ebp, esp
	call	__RTC_CheckEsp
	mov	esp, ebp
	pop	ebp
	ret	0
_LISTVIEW_SetItemBkColor ENDP
_TEXT	ENDS
END
