; Listing generated by Microsoft (R) Optimizing Compiler Version 16.00.40219.01 

	TITLE	C:\DUII\Simulation\GUI\Widget\MULTIPAGE_Default.c
	.686P
	.XMM
	include listing.inc
	.model	flat

INCLUDELIB LIBCMT
INCLUDELIB OLDNAMES

PUBLIC	_MULTIPAGE_GetDefaultAlign
EXTRN	_MULTIPAGE__DefaultProps:BYTE
EXTRN	__RTC_Shutdown:PROC
EXTRN	__RTC_InitBase:PROC
;	COMDAT rtc$TMZ
; File c:\duii\simulation\gui\widget\multipage_default.c
rtc$TMZ	SEGMENT
__RTC_Shutdown.rtc$TMZ DD FLAT:__RTC_Shutdown
rtc$TMZ	ENDS
;	COMDAT rtc$IMZ
rtc$IMZ	SEGMENT
__RTC_InitBase.rtc$IMZ DD FLAT:__RTC_InitBase
; Function compile flags: /Odtp /RTCsu /ZI
rtc$IMZ	ENDS
;	COMDAT _MULTIPAGE_GetDefaultAlign
_TEXT	SEGMENT
_MULTIPAGE_GetDefaultAlign PROC				; COMDAT
; Line 37
	push	ebp
	mov	ebp, esp
	sub	esp, 192				; 000000c0H
	push	ebx
	push	esi
	push	edi
	lea	edi, DWORD PTR [ebp-192]
	mov	ecx, 48					; 00000030H
	mov	eax, -858993460				; ccccccccH
	rep stosd
; Line 38
	mov	eax, DWORD PTR _MULTIPAGE__DefaultProps+4
; Line 39
	pop	edi
	pop	esi
	pop	ebx
	mov	esp, ebp
	pop	ebp
	ret	0
_MULTIPAGE_GetDefaultAlign ENDP
_TEXT	ENDS
PUBLIC	_MULTIPAGE_GetDefaultBkColor
; Function compile flags: /Odtp /RTCsu /ZI
;	COMDAT _MULTIPAGE_GetDefaultBkColor
_TEXT	SEGMENT
_Color$ = -8						; size = 4
_Index$ = 8						; size = 4
_MULTIPAGE_GetDefaultBkColor PROC			; COMDAT
; Line 45
	push	ebp
	mov	ebp, esp
	sub	esp, 204				; 000000ccH
	push	ebx
	push	esi
	push	edi
	lea	edi, DWORD PTR [ebp-204]
	mov	ecx, 51					; 00000033H
	mov	eax, -858993460				; ccccccccH
	rep stosd
; Line 46
	mov	DWORD PTR _Color$[ebp], 268435455	; 0fffffffH
; Line 47
	cmp	DWORD PTR _Index$[ebp], 2
	jae	SHORT $LN1@MULTIPAGE_
; Line 48
	mov	eax, DWORD PTR _Index$[ebp]
	mov	ecx, DWORD PTR _MULTIPAGE__DefaultProps[eax*4+8]
	mov	DWORD PTR _Color$[ebp], ecx
$LN1@MULTIPAGE_:
; Line 50
	mov	eax, DWORD PTR _Color$[ebp]
; Line 51
	pop	edi
	pop	esi
	pop	ebx
	mov	esp, ebp
	pop	ebp
	ret	0
_MULTIPAGE_GetDefaultBkColor ENDP
_TEXT	ENDS
PUBLIC	_MULTIPAGE_GetDefaultFont
; Function compile flags: /Odtp /RTCsu /ZI
;	COMDAT _MULTIPAGE_GetDefaultFont
_TEXT	SEGMENT
_MULTIPAGE_GetDefaultFont PROC				; COMDAT
; Line 57
	push	ebp
	mov	ebp, esp
	sub	esp, 192				; 000000c0H
	push	ebx
	push	esi
	push	edi
	lea	edi, DWORD PTR [ebp-192]
	mov	ecx, 48					; 00000030H
	mov	eax, -858993460				; ccccccccH
	rep stosd
; Line 58
	mov	eax, DWORD PTR _MULTIPAGE__DefaultProps
; Line 59
	pop	edi
	pop	esi
	pop	ebx
	mov	esp, ebp
	pop	ebp
	ret	0
_MULTIPAGE_GetDefaultFont ENDP
_TEXT	ENDS
PUBLIC	_MULTIPAGE_GetDefaultTextColor
; Function compile flags: /Odtp /RTCsu /ZI
;	COMDAT _MULTIPAGE_GetDefaultTextColor
_TEXT	SEGMENT
_Color$ = -8						; size = 4
_Index$ = 8						; size = 4
_MULTIPAGE_GetDefaultTextColor PROC			; COMDAT
; Line 65
	push	ebp
	mov	ebp, esp
	sub	esp, 204				; 000000ccH
	push	ebx
	push	esi
	push	edi
	lea	edi, DWORD PTR [ebp-204]
	mov	ecx, 51					; 00000033H
	mov	eax, -858993460				; ccccccccH
	rep stosd
; Line 66
	mov	DWORD PTR _Color$[ebp], 268435455	; 0fffffffH
; Line 67
	cmp	DWORD PTR _Index$[ebp], 2
	jae	SHORT $LN1@MULTIPAGE_@2
; Line 68
	mov	eax, DWORD PTR _Index$[ebp]
	mov	ecx, DWORD PTR _MULTIPAGE__DefaultProps[eax*4+16]
	mov	DWORD PTR _Color$[ebp], ecx
$LN1@MULTIPAGE_@2:
; Line 70
	mov	eax, DWORD PTR _Color$[ebp]
; Line 71
	pop	edi
	pop	esi
	pop	ebx
	mov	esp, ebp
	pop	ebp
	ret	0
_MULTIPAGE_GetDefaultTextColor ENDP
_TEXT	ENDS
PUBLIC	_MULTIPAGE_SetDefaultAlign
; Function compile flags: /Odtp /RTCsu /ZI
;	COMDAT _MULTIPAGE_SetDefaultAlign
_TEXT	SEGMENT
_Align$ = 8						; size = 4
_MULTIPAGE_SetDefaultAlign PROC				; COMDAT
; Line 77
	push	ebp
	mov	ebp, esp
	sub	esp, 192				; 000000c0H
	push	ebx
	push	esi
	push	edi
	lea	edi, DWORD PTR [ebp-192]
	mov	ecx, 48					; 00000030H
	mov	eax, -858993460				; ccccccccH
	rep stosd
; Line 78
	mov	eax, DWORD PTR _Align$[ebp]
	mov	DWORD PTR _MULTIPAGE__DefaultProps+4, eax
; Line 79
	pop	edi
	pop	esi
	pop	ebx
	mov	esp, ebp
	pop	ebp
	ret	0
_MULTIPAGE_SetDefaultAlign ENDP
_TEXT	ENDS
PUBLIC	_MULTIPAGE_SetDefaultBkColor
; Function compile flags: /Odtp /RTCsu /ZI
;	COMDAT _MULTIPAGE_SetDefaultBkColor
_TEXT	SEGMENT
_Color$ = 8						; size = 4
_Index$ = 12						; size = 4
_MULTIPAGE_SetDefaultBkColor PROC			; COMDAT
; Line 85
	push	ebp
	mov	ebp, esp
	sub	esp, 192				; 000000c0H
	push	ebx
	push	esi
	push	edi
	lea	edi, DWORD PTR [ebp-192]
	mov	ecx, 48					; 00000030H
	mov	eax, -858993460				; ccccccccH
	rep stosd
; Line 86
	cmp	DWORD PTR _Index$[ebp], 2
	jae	SHORT $LN2@MULTIPAGE_@3
; Line 87
	mov	eax, DWORD PTR _Index$[ebp]
	mov	ecx, DWORD PTR _Color$[ebp]
	mov	DWORD PTR _MULTIPAGE__DefaultProps[eax*4+8], ecx
$LN2@MULTIPAGE_@3:
; Line 89
	pop	edi
	pop	esi
	pop	ebx
	mov	esp, ebp
	pop	ebp
	ret	0
_MULTIPAGE_SetDefaultBkColor ENDP
_TEXT	ENDS
PUBLIC	_MULTIPAGE_SetDefaultFont
; Function compile flags: /Odtp /RTCsu /ZI
;	COMDAT _MULTIPAGE_SetDefaultFont
_TEXT	SEGMENT
_pFont$ = 8						; size = 4
_MULTIPAGE_SetDefaultFont PROC				; COMDAT
; Line 95
	push	ebp
	mov	ebp, esp
	sub	esp, 192				; 000000c0H
	push	ebx
	push	esi
	push	edi
	lea	edi, DWORD PTR [ebp-192]
	mov	ecx, 48					; 00000030H
	mov	eax, -858993460				; ccccccccH
	rep stosd
; Line 96
	mov	eax, DWORD PTR _pFont$[ebp]
	mov	DWORD PTR _MULTIPAGE__DefaultProps, eax
; Line 97
	pop	edi
	pop	esi
	pop	ebx
	mov	esp, ebp
	pop	ebp
	ret	0
_MULTIPAGE_SetDefaultFont ENDP
_TEXT	ENDS
PUBLIC	_MULTIPAGE_SetDefaultTextColor
; Function compile flags: /Odtp /RTCsu /ZI
;	COMDAT _MULTIPAGE_SetDefaultTextColor
_TEXT	SEGMENT
_Color$ = 8						; size = 4
_Index$ = 12						; size = 4
_MULTIPAGE_SetDefaultTextColor PROC			; COMDAT
; Line 103
	push	ebp
	mov	ebp, esp
	sub	esp, 192				; 000000c0H
	push	ebx
	push	esi
	push	edi
	lea	edi, DWORD PTR [ebp-192]
	mov	ecx, 48					; 00000030H
	mov	eax, -858993460				; ccccccccH
	rep stosd
; Line 104
	cmp	DWORD PTR _Index$[ebp], 2
	jae	SHORT $LN2@MULTIPAGE_@4
; Line 105
	mov	eax, DWORD PTR _Index$[ebp]
	mov	ecx, DWORD PTR _Color$[ebp]
	mov	DWORD PTR _MULTIPAGE__DefaultProps[eax*4+16], ecx
$LN2@MULTIPAGE_@4:
; Line 107
	pop	edi
	pop	esi
	pop	ebx
	mov	esp, ebp
	pop	ebp
	ret	0
_MULTIPAGE_SetDefaultTextColor ENDP
_TEXT	ENDS
END
