; Listing generated by Microsoft (R) Optimizing Compiler Version 16.00.40219.01 

	TITLE	C:\DUII\DUII\Graphics\NE.c
	.686P
	.XMM
	include listing.inc
	.model	flat

INCLUDELIB LIBCMT
INCLUDELIB OLDNAMES

PUBLIC	_bmNE
CONST	SEGMENT
_ColorsNE DD	00H
	DD	0f6f6f6H
	DD	0f2f2f2H
	DD	0f4f4f4H
	DD	0f0f0f0H
	DD	0e8e8e8H
	DD	0eeeeeeH
	DD	0fafafaH
	DD	0f8f8f8H
	DD	0eaeaeaH
	DD	0ecececH
	DD	0dededeH
	DD	0e4e4e4H
	DD	0e7e7e7H
	DD	0e5e5e5H
	DD	0e2e2e2H
	DD	0e1e1e1H
	DD	0e6e6e6H
	DD	0fefefeH
	DD	0e3e3e3H
	DD	0e0e0e0H
	DD	0d6d6d6H
	DD	0d2d2d2H
	DD	0cacacaH
	DD	0c7c7c7H
	DD	0dadadaH
	DD	0ddddddH
	DD	0c2c2c2H
	DD	0ccccccH
	DD	0dcdcdcH
	DD	0bebebeH
	DD	0dbdbdbH
	DD	0d9d9d9H
	DD	0c0c0cH
	DD	0c0c0c0H
	DD	0c8c8c8H
	DD	0c9c9c9H
	DD	0cdcdcdH
	DD	0c4c4c4H
	DD	0cfcfcfH
	DD	0c6c6c6H
	DD	0c5c5c5H
	DD	0d8d8d8H
	DD	0d4d4d4H
	DD	0fcfcfcH
	DD	0cececeH
	DD	0d5d5d5H
	DD	0d1d1d1H
	DD	0bcbcbcH
	DD	0b2b2b2H
	DD	0b4b4b4H
	DD	0aaaaaaH
	DD	0bababaH
	DD	0d0d0d0H
	DD	0aeaeaeH
	DD	0b6b6b6H
	DD	0b8b8b8H
	DD	0acacacH
	DD	01c1c1cH
	DD	0a4a4a4H
	DD	0929292H
	DD	09e9e9eH
	DD	0a0a0a0H
	DD	0a8a8a8H
	DD	0b0b0b0H
	DD	020202H
	DD	0a6a6a6H
	DD	0989898H
	DD	0909090H
	DD	09c9c9cH
	DD	0e4e4e5H
	DD	01a1a1aH
	DD	01e1e1eH
	DD	0464646H
	DD	0969696H
	DD	0101010H
	DD	0141414H
	DD	0282828H
	DD	0949494H
	DD	09a9a9aH
	DD	0a2a2a2H
	DD	0e3e3e4H
	DD	060606H
	DD	04c4c4cH
	DD	080808H
	DD	0a0a0aH
	DD	0121212H
	DD	0181818H
	DD	0212121H
	DD	02a2a2aH
	DD	03c3c3cH
	DD	0404040H
	DD	0444444H
	DD	0707070H
	DD	0727272H
	DD	0d9d9daH
	DD	0e2e2e3H
	DD	0222222H
	DD	02e2e2eH
	DD	0333333H
	DD	0565656H
	DD	05a5a5aH
	DD	0747474H
	DD	0888888H
	DD	0e5e6e5H
	DD	010101H
	DD	040404H
	DD	0f0f0fH
	DD	01f1f1fH
	DD	0262626H
	DD	0303030H
	DD	0323232H
	DD	04b4b4bH
	DD	04e4e4eH
	DD	0606060H
	DD	0626262H
	DD	0787878H
	DD	07a7a7aH
	DD	08a8a8aH
	DD	08e8e8eH
	DD	0c4c4c5H
	DD	0dadadbH
	DD	0dcdcddH
	DD	0e2e1e2H
	DD	0e3e2e3H
	DD	0e5e5e6H
	DD	0f1f1f2H
	DD	0f2f1f2H
	DD	0232323H
	DD	0242424H
	DD	02c2c2cH
	DD	0363636H
	DD	0383838H
	DD	03b3b3bH
	DD	0545454H
	DD	05e5e5eH
	DD	06d6d6dH
	DD	07c7c7cH
	DD	0828282H
	DD	0848484H
	DD	08d8d8dH
	DD	0b0afb0H
	DD	0c7c7c8H
	DD	0c8c7c8H
	DD	0c9c9caH
	DD	0cfcecfH
	DD	0d1d0d1H
	DD	0d2d1d2H
	DD	0d5d5d6H
	DD	0d8d7d8H
	DD	0dbdbdcH
	DD	0dcdbdcH
	DD	0dddcddH
	DD	0dddddeH
	DD	0e0e0e1H
	DD	0e3e4e3H
	DD	0e6e5e6H
	DD	0e6e6e7H
	DD	0e7e6e7H
	DD	0e8e7e8H
	DD	0ededeeH
	DD	0eeedeeH
	DD	0f6f5f6H
	DD	0f7f7f8H
	DD	0f9f9faH
	DD	0faf9faH
	DD	070605H
	DD	0c0906H
	DD	0a090aH
	DD	0f0b08H
	DD	0c0c08H
	DD	0e0c08H
	DD	0a0e0dH
	DD	0e0e0eH
	DD	0f0e0eH
	DD	0161616H
	DD	0161a16H
	DD	0343434H
	DD	03e3e3eH
	DD	0494949H
	DD	0595959H
	DD	05c5c5cH
	DD	0605f60H
	DD	0626162H
	DD	0636364H
	DD	0656565H
	DD	0686868H
	DD	06a6a6aH
	DD	06e6e6eH
	DD	0767676H
	DD	0818181H
	DD	0878787H
	DD	0919192H
	DD	0929192H
	DD	09e9d9eH
	DD	0a09fa0H
	DD	0a2a1a2H
	DD	0a3a4a3H
	DD	0a4a3a4H
	DD	0a5a5a6H
	DD	0a6a5a6H
	DD	0aaa9aaH
	DD	0ababacH
	DD	0aeadaeH
	DD	0b1b2b1H
	DD	0b2b1b2H
	DD	0b4b4b3H
	DD	0b8b8b7H
	DD	0b7b7b8H
	DD	0babab9H
	DD	0b9b9baH
	DD	0bab9baH
	DD	0bbbcbbH
	DD	0bfbfc0H
	DD	0c1c2c1H
	DD	0c2c1c2H
	DD	0c3c3c4H
	DD	0c5c5c4H
	DD	0c5c4c5H
	DD	0c6c5c6H
	DD	0c8c8c9H
	DD	0cacac9H
	DD	0cac9caH
	DD	0cccccbH
	DD	0cbcbccH
	DD	0cccbccH
	DD	0cdcccdH
	DD	0cecfceH
	DD	0cececfH
	DD	0d0d0cfH
	DD	0d1d1d2H
	DD	0d3d4d3H
	DD	0d5d6d6H
	DD	0d8d8d7H
	DD	0d9d9d8H
	DD	0d8d8d9H
	DD	0d9d8d9H
	DD	0dad9daH
	DD	0dbdadbH
	DD	0dbdcdcH
	DD	0dedddeH
	DD	0dfdfe0H
	DD	0e0e1e0H
	DD	0e1e0e1H
	DD	0e1e1e2H
	DD	0e3e3e2H
	DD	0e4e3e4H
	DD	0e5e4e5H
	DD	0e6e7e6H
	DD	0e7e7e8H
	DD	0eae9eaH
	DD	0ebebecH
	DD	0f0eff0H
	DD	0f3f3f4H
	DD	0f4f3f4H
	DD	0f5f5f6H
_PalNE	DD	0100H
	DB	00H
	ORG $+3
	DD	FLAT:_ColorsNE
_bmNE	DW	06fH
	DW	02bH
	DW	06fH
	DW	08H
	DD	FLAT:_acNE
	DD	FLAT:_PalNE
	ORG $+4
_acNE	DB	0abH
	DB	0b0H
	DB	0acH
	DB	0aeH
	DB	061H
	DB	06fH
	DB	048H
	DB	00H
	DB	00H
	DB	00H
	DB	00H
	DB	00H
	DB	0c0H
	DB	01cH
	DB	026H
	DB	029H
	DB	018H
	DB	024H
	DB	01cH
	DB	027H
	DB	02fH
	DB	02eH
	DB	02aH
	DB	019H
	DB	01aH
	DB	014H
	DB	013H
	DB	0eH
	DB	0dH
	DB	0faH
	DB	0fbH
	DB	0a0H
	DB	06H
	DB	04H
	DB	07eH
	DB	02H
	DB	0fdH
	DB	03H
	DB	0ffH
	DB	01H
	DB	0a3H
	DB	0a3H
	DB	0a3H
	DB	08H
	DB	08H
	DB	0a4H
	DB	0a4H
	DB	0a4H
	DB	0a4H
	DB	07H
	DB	07H
	DB	07H
	DB	07H
	DB	07H
	DB	07H
	DB	07H
	DB	07H
	DB	07H
	DB	07H
	DB	07H
	DB	07H
	DB	07H
	DB	07H
	DB	07H
	DB	07H
	DB	07H
	DB	07H
	DB	07H
	DB	07H
	DB	07H
	DB	0a4H
	DB	0a4H
	DB	08H
	DB	08H
	DB	0a3H
	DB	01H
	DB	01H
	DB	0ffH
	DB	0fdH
	DB	02H
	DB	07eH
	DB	0fcH
	DB	06H
	DB	0fbH
	DB	0faH
	DB	0dH
	DB	0cH
	DB	010H
	DB	0f1H
	DB	01dH
	DB	02aH
	DB	015H
	DB	0e7H
	DB	027H
	DB	025H
	DB	0e0H
	DB	023H
	DB	018H
	DB	029H
	DB	026H
	DB	026H
	DB	027H
	DB	049H
	DB	00H
	DB	00H
	DB	00H
	DB	00H
	DB	00H
	DB	0b2H
	DB	08cH
	DB	04fH
	DB	0a9H
	DB	0aaH
	DB	054H
	DB	047H
	DB	082H
	DB	081H
	DB	052H
	DB	00H
	DB	00H
	DB	00H
	DB	00H
	DB	0baH
	DB	023H
	DB	026H
	DB	029H
	DB	023H
	DB	017H
	DB	01cH
	DB	035H
	DB	016H
	DB	02eH
	DB	020H
	DB	01fH
	DB	0bH
	DB	010H
	DB	0cH
	DB	011H
	DB	05H
	DB	0fbH
	DB	0aH
	DB	06H
	DB	04H
	DB	04H
	DB	02H
	DB	0fdH
	DB	0feH
	DB	0ffH
	DB	0ffH
	DB	01H
	DB	0a3H
	DB	0a3H
	DB	08H
	DB	08H
	DB	0a4H
	DB	0a4H
	DB	0a4H
	DB	0a4H
	DB	0a4H
	DB	0a4H
	DB	07H
	DB	07H
	DB	07H
	DB	07H
	DB	07H
	DB	07H
	DB	07H
	DB	07H
	DB	07H
	DB	07H
	DB	07H
	DB	07H
	DB	07H
	DB	07H
	DB	07H
	DB	07H
	DB	07H
	DB	07H
	DB	07H
	DB	07H
	DB	07H
	DB	07H
	DB	07H
	DB	0a4H
	DB	0a4H
	DB	08H
	DB	08H
	DB	0a3H
	DB	01H
	DB	0ffH
	DB	03H
	DB	0fdH
	DB	02H
	DB	07eH
	DB	0fcH
	DB	0aH
	DB	09H
	DB	05H
	DB	0eH
	DB	013H
	DB	014H
	DB	01dH
	DB	019H
	DB	095H
	DB	0e7H
	DB	02fH
	DB	02dH
	DB	0e0H
	DB	023H
	DB	018H
	DB	029H
	DB	026H
	DB	018H
	DB	031H
	DB	053H
	DB	00H
	DB	00H
	DB	00H
	DB	00H
	DB	021H
	DB	064H
	DB	0c0H
	DB	0a7H
	DB	0a6H
	DB	04cH
	DB	06dH
	DB	080H
	DB	06aH
	DB	00H
	DB	00H
	DB	00H
	DB	047H
	DB	03cH
	DB	0e0H
	DB	029H
	DB	028H
	DB	023H
	DB	0e0H
	DB	02dH
	DB	02fH
	DB	02bH
	DB	095H
	DB	019H
	DB	01aH
	DB	014H
	DB	013H
	DB	0eH
	DB	05H
	DB	0faH
	DB	0aH
	DB	06H
	DB	0fcH
	DB	07eH
	DB	02H
	DB	0fdH
	DB	03H
	DB	0ffH
	DB	0ffH
	DB	01H
	DB	0a3H
	DB	0a3H
	DB	0a3H
	DB	08H
	DB	08H
	DB	08H
	DB	0a4H
	DB	0a4H
	DB	0a4H
	DB	0a4H
	DB	0a4H
	DB	0a4H
	DB	0a5H
	DB	07H
	DB	07H
	DB	07H
	DB	07H
	DB	07H
	DB	07H
	DB	07H
	DB	07H
	DB	07H
	DB	07H
	DB	07H
	DB	07H
	DB	07H
	DB	07H
	DB	07H
	DB	07H
	DB	07H
	DB	07H
	DB	07H
	DB	07H
	DB	07H
	DB	07H
	DB	07H
	DB	07H
	DB	07H
	DB	0a4H
	DB	0a4H
	DB	08H
	DB	0a3H
	DB	0a3H
	DB	01H
	DB	0ffH
	DB	03H
	DB	02H
	DB	04H
	DB	0fcH
	DB	0a0H
	DB	09H
	DB	05H
	DB	0eH
	DB	010H
	DB	0f1H
	DB	01dH
	DB	02aH
	DB	02eH
	DB	016H
	DB	02dH
	DB	01cH
	DB	017H
	DB	018H
	DB	028H
	DB	029H
	DB	023H
	DB	02fH
	DB	075H
	DB	041H
	DB	00H
	DB	00H
	DB	00H
	DB	055H
	DB	065H
	DB	041H
	DB	021H
	DB	048H
	DB	061H
	DB	06aH
	DB	00H
	DB	00H
	DB	00H
	DB	03aH
	DB	03bH
	DB	027H
	DB	029H
	DB	018H
	DB	017H
	DB	01cH
	DB	027H
	DB	016H
	DB	02eH
	DB	02aH
	DB	01fH
	DB	0bH
	DB	0fH
	DB	0cH
	DB	0dH
	DB	0faH
	DB	0aH
	DB	0a0H
	DB	0fcH
	DB	07eH
	DB	07eH
	DB	0fdH
	DB	03H
	DB	03H
	DB	0ffH
	DB	01H
	DB	01H
	DB	0a3H
	DB	0a3H
	DB	0a3H
	DB	0a3H
	DB	08H
	DB	08H
	DB	08H
	DB	08H
	DB	08H
	DB	0a4H
	DB	0a4H
	DB	0a4H
	DB	0a4H
	DB	0a4H
	DB	0a4H
	DB	0a4H
	DB	0a5H
	DB	07H
	DB	07H
	DB	07H
	DB	07H
	DB	07H
	DB	07H
	DB	07H
	DB	07H
	DB	07H
	DB	07H
	DB	07H
	DB	07H
	DB	07H
	DB	07H
	DB	07H
	DB	07H
	DB	07H
	DB	07H
	DB	07H
	DB	07H
	DB	07H
	DB	07H
	DB	07H
	DB	07H
	DB	0a4H
	DB	0a4H
	DB	0a4H
	DB	08H
	DB	0a3H
	DB	01H
	DB	0ffH
	DB	0fdH
	DB	02H
	DB	04H
	DB	06H
	DB	0aH
	DB	0faH
	DB	0dH
	DB	0cH
	DB	010H
	DB	01aH
	DB	019H
	DB	095H
	DB	0e7H
	DB	035H
	DB	02dH
	DB	0e0H
	DB	024H
	DB	018H
	DB	029H
	DB	028H
	DB	027H
	DB	0bfH
	DB	06cH
	DB	00H
	DB	00H
	DB	00H
	DB	056H
	DB	052H
	DB	04cH
	DB	058H
	DB	052H
	DB	00H
	DB	00H
	DB	00H
	DB	03aH
	DB	0c7H
	DB	025H
	DB	026H
	DB	028H
	DB	017H
	DB	01cH
	DB	027H
	DB	0e7H
	DB	015H
	DB	020H
	DB	01dH
	DB	0f1H
	DB	0fH
	DB	0eH
	DB	0dH
	DB	0faH
	DB	0aH
	DB	06H
	DB	0fcH
	DB	07eH
	DB	02H
	DB	02H
	DB	03H
	DB	0ffH
	DB	0ffH
	DB	0ffH
	DB	01H
	DB	01H
	DB	0a3H
	DB	0a3H
	DB	0a3H
	DB	0a3H
	DB	08H
	DB	08H
	DB	08H
	DB	08H
	DB	08H
	DB	08H
	DB	08H
	DB	0a4H
	DB	0a4H
	DB	0a4H
	DB	0a4H
	DB	0a4H
	DB	0a4H
	DB	0a4H
	DB	07H
	DB	07H
	DB	07H
	DB	07H
	DB	07H
	DB	07H
	DB	07H
	DB	07H
	DB	07H
	DB	07H
	DB	07H
	DB	07H
	DB	07H
	DB	07H
	DB	07H
	DB	07H
	DB	07H
	DB	07H
	DB	07H
	DB	07H
	DB	07H
	DB	07H
	DB	07H
	DB	07H
	DB	07H
	DB	0a4H
	DB	0a4H
	DB	08H
	DB	0a3H
	DB	0a3H
	DB	0ffH
	DB	03H
	DB	0fdH
	DB	07eH
	DB	04H
	DB	0a0H
	DB	0fbH
	DB	05H
	DB	0eH
	DB	010H
	DB	0bH
	DB	01fH
	DB	095H
	DB	02bH
	DB	02fH
	DB	02dH
	DB	0e0H
	DB	024H
	DB	028H
	DB	029H
	DB	028H
	DB	027H
	DB	03dH
	DB	06cH
	DB	00H
	DB	00H
	DB	00H
	DB	06bH
	DB	048H
	DB	021H
	DB	00H
	DB	00H
	DB	00H
	DB	047H
	DB	0c8H
	DB	01cH
	DB	029H
	DB	018H
	DB	024H
	DB	025H
	DB	035H
	DB	016H
	DB	015H
	DB	05fH
	DB	01dH
	DB	014H
	DB	013H
	DB	011H
	DB	05H
	DB	09H
	DB	0aH
	DB	06H
	DB	04H
	DB	04H
	DB	02H
	DB	0fdH
	DB	0fdH
	DB	03H
	DB	0ffH
	DB	0ffH
	DB	0ffH
	DB	01H
	DB	01H
	DB	01H
	DB	0a3H
	DB	0a3H
	DB	0a3H
	DB	0a3H
	DB	0a3H
	DB	0a3H
	DB	08H
	DB	08H
	DB	08H
	DB	08H
	DB	08H
	DB	0a4H
	DB	012H
	DB	012H
	DB	012H
	DB	012H
	DB	012H
	DB	07H
	DB	0a4H
	DB	0a4H
	DB	07H
	DB	07H
	DB	02cH
	DB	012H
	DB	012H
	DB	012H
	DB	012H
	DB	012H
	DB	012H
	DB	02cH
	DB	02cH
	DB	02cH
	DB	07H
	DB	07H
	DB	07H
	DB	07H
	DB	07H
	DB	07H
	DB	07H
	DB	07H
	DB	07H
	DB	07H
	DB	07H
	DB	0a4H
	DB	0a4H
	DB	08H
	DB	08H
	DB	0a3H
	DB	01H
	DB	0ffH
	DB	0fdH
	DB	02H
	DB	04H
	DB	06H
	DB	0aH
	DB	0faH
	DB	011H
	DB	013H
	DB	014H
	DB	01dH
	DB	020H
	DB	02eH
	DB	02fH
	DB	02dH
	DB	01cH
	DB	024H
	DB	023H
	DB	028H
	DB	029H
	DB	025H
	DB	045H
	DB	03aH
	DB	00H
	DB	00H
	DB	03aH
	DB	04bH
	DB	00H
	DB	00H
	DB	00H
	DB	057H
	DB	0c4H
	DB	025H
	DB	026H
	DB	018H
	DB	024H
	DB	025H
	DB	02fH
	DB	02bH
	DB	095H
	DB	01fH
	DB	0bH
	DB	010H
	DB	0cH
	DB	011H
	DB	0faH
	DB	0fbH
	DB	0a0H
	DB	06H
	DB	04H
	DB	07eH
	DB	02H
	DB	0fdH
	DB	0fdH
	DB	03H
	DB	03H
	DB	01H
	DB	0a4H
	DB	0a3H
	DB	0ffH
	DB	0a2H
	DB	01H
	DB	01H
	DB	01H
	DB	01H
	DB	01H
	DB	0a3H
	DB	0a3H
	DB	0a3H
	DB	0a3H
	DB	0a3H
	DB	08H
	DB	07H
	DB	02H
	DB	018H
	DB	018H
	DB	023H
	DB	018H
	DB	024H
	DB	04H
	DB	07H
	DB	0a4H
	DB	0a4H
	DB	07H
	DB	07eH
	DB	011H
	DB	011H
	DB	011H
	DB	0aH
	DB	0fdH
	DB	02H
	DB	0a4H
	DB	07H
	DB	012H
	DB	012H
	DB	012H
	DB	012H
	DB	012H
	DB	012H
	DB	012H
	DB	012H
	DB	02cH
	DB	07H
	DB	07H
	DB	07H
	DB	0a4H
	DB	0a4H
	DB	0a4H
	DB	0a4H
	DB	08H
	DB	08H
	DB	0a3H
	DB	0ffH
	DB	0ffH
	DB	0fdH
	DB	04H
	DB	0fcH
	DB	0a0H
	DB	09H
	DB	0dH
	DB	0cH
	DB	014H
	DB	01aH
	DB	019H
	DB	015H
	DB	0e7H
	DB	0e5H
	DB	0e0H
	DB	024H
	DB	023H
	DB	028H
	DB	028H
	DB	025H
	DB	04aH
	DB	04cH
	DB	00H
	DB	06bH
	DB	00H
	DB	00H
	DB	00H
	DB	04bH
	DB	043H
	DB	025H
	DB	029H
	DB	018H
	DB	017H
	DB	025H
	DB	035H
	DB	02bH
	DB	095H
	DB	019H
	DB	0bH
	DB	010H
	DB	0cH
	DB	09dH
	DB	0faH
	DB	09H
	DB	0aH
	DB	06H
	DB	0fcH
	DB	07eH
	DB	02H
	DB	02H
	DB	0fdH
	DB	0fdH
	DB	07H
	DB	012H
	DB	0a3H
	DB	0cH
	DB	07eH
	DB	012H
	DB	0ffH
	DB	0ffH
	DB	01H
	DB	01H
	DB	01H
	DB	01H
	DB	01H
	DB	0a3H
	DB	0a3H
	DB	0a3H
	DB	0a3H
	DB	0a3H
	DB	012H
	DB	020H
	DB	041H
	DB	041H
	DB	041H
	DB	041H
	DB	04bH
	DB	02dH
	DB	012H
	DB	0a4H
	DB	0a4H
	DB	012H
	DB	04aH
	DB	054H
	DB	054H
	DB	054H
	DB	03aH
	DB	083H
	DB	063H
	DB	053H
	DB	064H
	DB	0b8H
	DB	066H
	DB	08aH
	DB	04eH
	DB	08dH
	DB	01eH
	DB	016H
	DB	0eH
	DB	08H
	DB	012H
	DB	012H
	DB	012H
	DB	0a4H
	DB	0a4H
	DB	0a4H
	DB	0a4H
	DB	08H
	DB	08H
	DB	08H
	DB	01H
	DB	01H
	DB	03H
	DB	0fdH
	DB	02H
	DB	04H
	DB	0a0H
	DB	0fbH
	DB	05H
	DB	0cH
	DB	010H
	DB	0bH
	DB	019H
	DB	095H
	DB	0e7H
	DB	027H
	DB	025H
	DB	017H
	DB	018H
	DB	028H
	DB	028H
	DB	027H
	DB	066H
	DB	00H
	DB	00H
	DB	00H
	DB	00H
	DB	04bH
	DB	0c0H
	DB	025H
	DB	029H
	DB	018H
	DB	024H
	DB	025H
	DB	035H
	DB	0e7H
	DB	095H
	DB	019H
	DB	01aH
	DB	010H
	DB	0cH
	DB	09eH
	DB	0faH
	DB	0fbH
	DB	0aH
	DB	06H
	DB	0fcH
	DB	04H
	DB	07eH
	DB	02H
	DB	02H
	DB	0fdH
	DB	01H
	DB	067H
	DB	05bH
	DB	059H
	DB	048H
	DB	05aH
	DB	016H
	DB	012H
	DB	01H
	DB	0ffH
	DB	0ffH
	DB	0ffH
	DB	01H
	DB	01H
	DB	01H
	DB	01H
	DB	01H
	DB	0a3H
	DB	0a3H
	DB	012H
	DB	020H
	DB	041H
	DB	00H
	DB	00H
	DB	00H
	DB	021H
	DB	025H
	DB	012H
	DB	08H
	DB	0a4H
	DB	012H
	DB	0c0H
	DB	00H
	DB	00H
	DB	00H
	DB	00H
	DB	00H
	DB	00H
	DB	00H
	DB	00H
	DB	00H
	DB	00H
	DB	00H
	DB	00H
	DB	00H
	DB	054H
	DB	04cH
	DB	03aH
	DB	04dH
	DB	084H
	DB	087H
	DB	0c9H
	DB	07H
	DB	07H
	DB	0a4H
	DB	0a4H
	DB	0a4H
	DB	08H
	DB	08H
	DB	0a3H
	DB	0a3H
	DB	01H
	DB	0ffH
	DB	03H
	DB	02H
	DB	04H
	DB	06H
	DB	0fbH
	DB	05H
	DB	0eH
	DB	0fH
	DB	0bH
	DB	01fH
	DB	095H
	DB	0e7H
	DB	035H
	DB	025H
	DB	017H
	DB	018H
	DB	028H
	DB	018H
	DB	02dH
	DB	0b6H
	DB	00H
	DB	00H
	DB	00H
	DB	075H
	DB	02fH
	DB	029H
	DB	018H
	DB	024H
	DB	01cH
	DB	035H
	DB	0e7H
	DB	015H
	DB	019H
	DB	01aH
	DB	010H
	DB	0cH
	DB	09eH
	DB	05H
	DB	0fbH
	DB	0a0H
	DB	0a0H
	DB	0fcH
	DB	04H
	DB	04H
	DB	07eH
	DB	02H
	DB	02H
	DB	02H
	DB	07H
	DB	065H
	DB	00H
	DB	00H
	DB	00H
	DB	00H
	DB	03aH
	DB	032H
	DB	012H
	DB	01H
	DB	0ffH
	DB	0ffH
	DB	0ffH
	DB	0ffH
	DB	0ffH
	DB	01H
	DB	01H
	DB	01H
	DB	01H
	DB	02cH
	DB	011H
	DB	061H
	DB	00H
	DB	00H
	DB	00H
	DB	021H
	DB	025H
	DB	012H
	DB	08H
	DB	08H
	DB	012H
	DB	03cH
	DB	00H
	DB	00H
	DB	00H
	DB	00H
	DB	00H
	DB	00H
	DB	00H
	DB	00H
	DB	00H
	DB	00H
	DB	00H
	DB	00H
	DB	00H
	DB	00H
	DB	00H
	DB	00H
	DB	00H
	DB	00H
	DB	00H
	DB	072H
	DB	012H
	DB	07H
	DB	0a4H
	DB	0a4H
	DB	08H
	DB	08H
	DB	08H
	DB	08H
	DB	0a3H
	DB	0a3H
	DB	01H
	DB	0ffH
	DB	03H
	DB	02H
	DB	07eH
	DB	06H
	DB	0aH
	DB	05H
	DB	011H
	DB	0fH
	DB	0f1H
	DB	01fH
	DB	095H
	DB	0e7H
	DB	035H
	DB	01cH
	DB	017H
	DB	023H
	DB	028H
	DB	024H
	DB	01bH
	DB	00H
	DB	00H
	DB	070H
	DB	023H
	DB	028H
	DB	028H
	DB	024H
	DB	01cH
	DB	027H
	DB	0e7H
	DB	095H
	DB	019H
	DB	0bH
	DB	010H
	DB	013H
	DB	011H
	DB	05H
	DB	09H
	DB	0aH
	DB	0a0H
	DB	06H
	DB	0fcH
	DB	04H
	DB	04H
	DB	07eH
	DB	07eH
	DB	02H
	DB	02H
	DB	07H
	DB	089H
	DB	00H
	DB	00H
	DB	00H
	DB	00H
	DB	00H
	DB	06bH
	DB	0c4H
	DB	012H
	DB	0a3H
	DB	03H
	DB	0ffH
	DB	0ffH
	DB	0ffH
	DB	0ffH
	DB	0ffH
	DB	01H
	DB	01H
	DB	07H
	DB	05H
	DB	04dH
	DB	00H
	DB	00H
	DB	00H
	DB	021H
	DB	01cH
	DB	012H
	DB	08H
	DB	08H
	DB	012H
	DB	03cH
	DB	00H
	DB	00H
	DB	00H
	DB	00H
	DB	00H
	DB	00H
	DB	069H
	DB	047H
	DB	00H
	DB	00H
	DB	00H
	DB	00H
	DB	00H
	DB	00H
	DB	00H
	DB	00H
	DB	00H
	DB	00H
	DB	00H
	DB	08aH
	DB	012H
	DB	0a4H
	DB	0a4H
	DB	08H
	DB	08H
	DB	08H
	DB	08H
	DB	08H
	DB	0a3H
	DB	0a3H
	DB	01H
	DB	01H
	DB	0ffH
	DB	0fdH
	DB	02H
	DB	04H
	DB	06H
	DB	0aH
	DB	0faH
	DB	011H
	DB	013H
	DB	0f1H
	DB	01fH
	DB	095H
	DB	02bH
	DB	035H
	DB	025H
	DB	017H
	DB	018H
	DB	028H
	DB	023H
	DB	00H
	DB	059H
	DB	01eH
	DB	023H
	DB	029H
	DB	023H
	DB	01cH
	DB	027H
	DB	016H
	DB	015H
	DB	020H
	DB	098H
	DB	014H
	DB	013H
	DB	011H
	DB	05H
	DB	09H
	DB	0fbH
	DB	0aH
	DB	06H
	DB	06H
	DB	0fcH
	DB	04H
	DB	04H
	DB	04H
	DB	07eH
	DB	07eH
	DB	07eH
	DB	012H
	DB	04aH
	DB	00H
	DB	00H
	DB	00H
	DB	00H
	DB	00H
	DB	00H
	DB	041H
	DB	08bH
	DB	0a4H
	DB	0a4H
	DB	03H
	DB	03H
	DB	03H
	DB	0ffH
	DB	0ffH
	DB	0ffH
	DB	0ffH
	DB	07H
	DB	0dH
	DB	04dH
	DB	00H
	DB	00H
	DB	00H
	DB	021H
	DB	01cH
	DB	012H
	DB	0a3H
	DB	0a3H
	DB	012H
	DB	03cH
	DB	00H
	DB	00H
	DB	00H
	DB	00H
	DB	00H
	DB	00H
	DB	085H
	DB	0f1H
	DB	025H
	DB	026H
	DB	08dH
	DB	0c3H
	DB	067H
	DB	066H
	DB	064H
	DB	06fH
	DB	04dH
	DB	047H
	DB	021H
	DB	0c7H
	DB	012H
	DB	08H
	DB	08H
	DB	08H
	DB	08H
	DB	08H
	DB	08H
	DB	08H
	DB	0a3H
	DB	0a3H
	DB	0a3H
	DB	01H
	DB	0ffH
	DB	03H
	DB	03H
	DB	02H
	DB	04H
	DB	06H
	DB	0aH
	DB	0faH
	DB	011H
	DB	0fH
	DB	0bH
	DB	01fH
	DB	095H
	DB	0e7H
	DB	027H
	DB	025H
	DB	024H
	DB	018H
	DB	018H
	DB	04cH
	DB	03cH
	DB	01cH
	DB	078H
	DB	08eH
	DB	017H
	DB	02dH
	DB	02fH
	DB	02eH
	DB	020H
	DB	01dH
	DB	0f1H
	DB	013H
	DB	0eH
	DB	0dH
	DB	0faH
	DB	0fbH
	DB	0aH
	DB	0a0H
	DB	06H
	DB	06H
	DB	0fcH
	DB	0fcH
	DB	0fcH
	DB	04H
	DB	04H
	DB	04H
	DB	04H
	DB	012H
	DB	0cbH
	DB	069H
	DB	00H
	DB	00H
	DB	00H
	DB	00H
	DB	00H
	DB	00H
	DB	00H
	DB	0bcH
	DB	02H
	DB	07H
	DB	0fdH
	DB	03H
	DB	03H
	DB	03H
	DB	03H
	DB	0ffH
	DB	07H
	DB	011H
	DB	04dH
	DB	00H
	DB	00H
	DB	00H
	DB	021H
	DB	01cH
	DB	012H
	DB	0a3H
	DB	0a3H
	DB	012H
	DB	075H
	DB	00H
	DB	00H
	DB	00H
	DB	00H
	DB	00H
	DB	00H
	DB	071H
	DB	012H
	DB	012H
	DB	012H
	DB	012H
	DB	012H
	DB	012H
	DB	012H
	DB	012H
	DB	012H
	DB	02H
	DB	01aH
	DB	018H
	DB	0cH
	DB	07H
	DB	08H
	DB	08H
	DB	08H
	DB	08H
	DB	0a3H
	DB	0a3H
	DB	0a3H
	DB	0a3H
	DB	0a3H
	DB	0a3H
	DB	01H
	DB	01H
	DB	0ffH
	DB	03H
	DB	0fdH
	DB	02H
	DB	07eH
	DB	06H
	DB	0fbH
	DB	05H
	DB	0eH
	DB	010H
	DB	0bH
	DB	019H
	DB	015H
	DB	016H
	DB	027H
	DB	01cH
	DB	024H
	DB	023H
	DB	0c4H
	DB	028H
	DB	026H
	DB	018H
	DB	017H
	DB	025H
	DB	02fH
	DB	02bH
	DB	095H
	DB	097H
	DB	0bH
	DB	010H
	DB	0cH
	DB	011H
	DB	05H
	DB	09H
	DB	0fbH
	DB	0aH
	DB	0a0H
	DB	0a0H
	DB	06H
	DB	06H
	DB	0fcH
	DB	0fcH
	DB	0fcH
	DB	04H
	DB	04H
	DB	04H
	DB	07H
	DB	0d8H
	DB	021H
	DB	00H
	DB	00H
	DB	00H
	DB	00H
	DB	00H
	DB	00H
	DB	00H
	DB	00H
	DB	065H
	DB	0a0H
	DB	07H
	DB	0fdH
	DB	03H
	DB	03H
	DB	03H
	DB	03H
	DB	07H
	DB	011H
	DB	04dH
	DB	00H
	DB	00H
	DB	00H
	DB	021H
	DB	0e0H
	DB	012H
	DB	0a3H
	DB	08H
	DB	012H
	DB	05dH
	DB	00H
	DB	00H
	DB	00H
	DB	00H
	DB	00H
	DB	00H
	DB	065H
	DB	012H
	DB	0a4H
	DB	08H
	DB	08H
	DB	08H
	DB	08H
	DB	08H
	DB	08H
	DB	08H
	DB	07H
	DB	012H
	DB	012H
	DB	07H
	DB	0a3H
	DB	0a3H
	DB	0a3H
	DB	0a3H
	DB	0a3H
	DB	0a3H
	DB	0a3H
	DB	0a3H
	DB	0a3H
	DB	0a3H
	DB	0a3H
	DB	01H
	DB	01H
	DB	0ffH
	DB	0ffH
	DB	03H
	DB	02H
	DB	02H
	DB	04H
	DB	0a0H
	DB	0fbH
	DB	05H
	DB	0eH
	DB	0fH
	DB	0bH
	DB	019H
	DB	015H
	DB	016H
	DB	02dH
	DB	0e0H
	DB	024H
	DB	018H
	DB	0d8H
	DB	0dbH
	DB	024H
	DB	01cH
	DB	027H
	DB	0e7H
	DB	095H
	DB	019H
	DB	0bH
	DB	010H
	DB	013H
	DB	0eH
	DB	05H
	DB	05H
	DB	09H
	DB	0fbH
	DB	0aH
	DB	0aH
	DB	0a0H
	DB	0a0H
	DB	06H
	DB	06H
	DB	06H
	DB	06H
	DB	0fcH
	DB	0fcH
	DB	0fcH
	DB	01H
	DB	015H
	DB	03aH
	DB	00H
	DB	00H
	DB	00H
	DB	00H
	DB	00H
	DB	00H
	DB	00H
	DB	00H
	DB	00H
	DB	049H
	DB	0eH
	DB	02cH
	DB	0fdH
	DB	0fdH
	DB	03H
	DB	03H
	DB	0a4H
	DB	0dH
	DB	062H
	DB	00H
	DB	00H
	DB	00H
	DB	021H
	DB	0e0H
	DB	012H
	DB	01H
	DB	01H
	DB	012H
	DB	05dH
	DB	00H
	DB	00H
	DB	00H
	DB	00H
	DB	00H
	DB	00H
	DB	066H
	DB	012H
	DB	0a3H
	DB	0a3H
	DB	0a3H
	DB	0a3H
	DB	0a3H
	DB	0a3H
	DB	0a3H
	DB	0a3H
	DB	0a3H
	DB	0a3H
	DB	0a3H
	DB	0a3H
	DB	0a3H
	DB	0a3H
	DB	0a3H
	DB	0a3H
	DB	0a3H
	DB	0a3H
	DB	0a3H
	DB	0a3H
	DB	01H
	DB	01H
	DB	01H
	DB	01H
	DB	01H
	DB	0ffH
	DB	0ffH
	DB	03H
	DB	0fdH
	DB	0fdH
	DB	07eH
	DB	0fcH
	DB	0a0H
	DB	0fbH
	DB	0dH
	DB	0cH
	DB	010H
	DB	01aH
	DB	020H
	DB	02eH
	DB	02fH
	DB	02dH
	DB	0e0H
	DB	0d6H
	DB	026H
	DB	023H
	DB	0e0H
	DB	02dH
	DB	016H
	DB	015H
	DB	020H
	DB	01dH
	DB	014H
	DB	0fH
	DB	0cH
	DB	011H
	DB	05H
	DB	0faH
	DB	09H
	DB	0fbH
	DB	0fbH
	DB	0aH
	DB	0a0H
	DB	0aH
	DB	0a0H
	DB	0a0H
	DB	0a0H
	DB	0a0H
	DB	06H
	DB	06H
	DB	06H
	DB	02H
	DB	0dH
	DB	062H
	DB	00H
	DB	00H
	DB	00H
	DB	00H
	DB	00H
	DB	00H
	DB	00H
	DB	00H
	DB	00H
	DB	00H
	DB	084H
	DB	02aH
	DB	012H
	DB	02H
	DB	0fdH
	DB	0fdH
	DB	01H
	DB	07eH
	DB	049H
	DB	00H
	DB	00H
	DB	00H
	DB	021H
	DB	017H
	DB	012H
	DB	0ffH
	DB	0a3H
	DB	012H
	DB	05dH
	DB	00H
	DB	00H
	DB	00H
	DB	00H
	DB	00H
	DB	00H
	DB	05eH
	DB	012H
	DB	0a3H
	DB	0a3H
	DB	0a3H
	DB	0a3H
	DB	0a3H
	DB	0a3H
	DB	0a3H
	DB	0a3H
	DB	0a3H
	DB	0a3H
	DB	0a3H
	DB	0a3H
	DB	0a3H
	DB	01H
	DB	01H
	DB	01H
	DB	01H
	DB	01H
	DB	01H
	DB	01H
	DB	01H
	DB	01H
	DB	01H
	DB	01H
	DB	0ffH
	DB	0ffH
	DB	0ffH
	DB	03H
	DB	03H
	DB	0fdH
	DB	02H
	DB	07eH
	DB	0fcH
	DB	0a0H
	DB	09H
	DB	0dH
	DB	0cH
	DB	014H
	DB	01dH
	DB	02aH
	DB	02bH
	DB	035H
	DB	025H
	DB	0d6H
	DB	026H
	DB	024H
	DB	025H
	DB	035H
	DB	02bH
	DB	02aH
	DB	01fH
	DB	099H
	DB	010H
	DB	013H
	DB	0eH
	DB	0dH
	DB	05H
	DB	0faH
	DB	09H
	DB	09H
	DB	0fbH
	DB	0fbH
	DB	0aH
	DB	0aH
	DB	0aH
	DB	0aH
	DB	0a0H
	DB	0a0H
	DB	0a0H
	DB	0a0H
	DB	06H
	DB	0fcH
	DB	01H
	DB	085H
	DB	00H
	DB	00H
	DB	00H
	DB	00H
	DB	00H
	DB	00H
	DB	00H
	DB	00H
	DB	00H
	DB	00H
	DB	00H
	DB	06fH
	DB	019H
	DB	012H
	DB	02H
	DB	0fdH
	DB	01H
	DB	04H
	DB	049H
	DB	00H
	DB	00H
	DB	00H
	DB	021H
	DB	017H
	DB	012H
	DB	0ffH
	DB	01H
	DB	012H
	DB	05eH
	DB	00H
	DB	00H
	DB	00H
	DB	00H
	DB	00H
	DB	00H
	DB	044H
	DB	012H
	DB	0a3H
	DB	0a3H
	DB	0a3H
	DB	0a3H
	DB	0a3H
	DB	0a3H
	DB	0a3H
	DB	0a3H
	DB	0a3H
	DB	01H
	DB	01H
	DB	01H
	DB	01H
	DB	01H
	DB	01H
	DB	01H
	DB	01H
	DB	01H
	DB	01H
	DB	01H
	DB	01H
	DB	01H
	DB	0ffH
	DB	0ffH
	DB	0ffH
	DB	0ffH
	DB	0ffH
	DB	03H
	DB	03H
	DB	0fdH
	DB	02H
	DB	07eH
	DB	04H
	DB	06H
	DB	0aH
	DB	0faH
	DB	011H
	DB	0fH
	DB	0f1H
	DB	01fH
	DB	095H
	DB	0e7H
	DB	027H
	DB	022H
	DB	0d8H
	DB	023H
	DB	02dH
	DB	0e7H
	DB	015H
	DB	019H
	DB	01aH
	DB	0f1H
	DB	0fH
	DB	0cH
	DB	0eH
	DB	0dH
	DB	05H
	DB	05H
	DB	0faH
	DB	09H
	DB	09H
	DB	09H
	DB	0fbH
	DB	0fbH
	DB	0fbH
	DB	0fbH
	DB	0aH
	DB	0aH
	DB	0aH
	DB	0aH
	DB	0a0H
	DB	0a0H
	DB	02cH
	DB	086H
	DB	00H
	DB	00H
	DB	00H
	DB	00H
	DB	00H
	DB	00H
	DB	00H
	DB	00H
	DB	00H
	DB	00H
	DB	00H
	DB	00H
	DB	06eH
	DB	025H
	DB	02cH
	DB	02H
	DB	0ffH
	DB	0fcH
	DB	049H
	DB	00H
	DB	00H
	DB	00H
	DB	021H
	DB	017H
	DB	012H
	DB	0ffH
	DB	01H
	DB	02cH
	DB	0b7H
	DB	00H
	DB	00H
	DB	00H
	DB	00H
	DB	00H
	DB	00H
	DB	03cH
	DB	012H
	DB	01H
	DB	01H
	DB	01H
	DB	01H
	DB	01H
	DB	01H
	DB	01H
	DB	01H
	DB	01H
	DB	01H
	DB	01H
	DB	01H
	DB	01H
	DB	01H
	DB	01H
	DB	01H
	DB	0ffH
	DB	0ffH
	DB	0ffH
	DB	0ffH
	DB	0ffH
	DB	0ffH
	DB	0ffH
	DB	0ffH
	DB	0ffH
	DB	0ffH
	DB	03H
	DB	03H
	DB	03H
	DB	0fdH
	DB	0fdH
	DB	02H
	DB	07eH
	DB	0fcH
	DB	0a0H
	DB	0fbH
	DB	0faH
	DB	0eH
	DB	0fH
	DB	0bH
	DB	019H
	DB	015H
	DB	016H
	DB	0d5H
	DB	0d8H
	DB	023H
	DB	02dH
	DB	0e7H
	DB	02aH
	DB	096H
	DB	0bH
	DB	014H
	DB	0fH
	DB	0cH
	DB	0eH
	DB	011H
	DB	05H
	DB	05H
	DB	0faH
	DB	0faH
	DB	0faH
	DB	09H
	DB	09H
	DB	09H
	DB	09H
	DB	0fbH
	DB	0fbH
	DB	0fbH
	DB	0aH
	DB	0aH
	DB	0aH
	DB	0a0H
	DB	0a4H
	DB	074H
	DB	00H
	DB	00H
	DB	00H
	DB	00H
	DB	05bH
	DB	03aH
	DB	00H
	DB	00H
	DB	00H
	DB	00H
	DB	00H
	DB	00H
	DB	00H
	DB	03aH
	DB	08eH
	DB	012H
	DB	03H
	DB	0fcH
	DB	049H
	DB	00H
	DB	00H
	DB	00H
	DB	021H
	DB	090H
	DB	012H
	DB	03H
	DB	0ffH
	DB	07H
	DB	053H
	DB	00H
	DB	00H
	DB	00H
	DB	00H
	DB	00H
	DB	00H
	DB	0c9H
	DB	012H
	DB	012H
	DB	012H
	DB	012H
	DB	012H
	DB	012H
	DB	012H
	DB	07H
	DB	0a3H
	DB	0ffH
	DB	0ffH
	DB	0ffH
	DB	0ffH
	DB	0ffH
	DB	0ffH
	DB	0ffH
	DB	0ffH
	DB	0ffH
	DB	0ffH
	DB	0ffH
	DB	0ffH
	DB	0ffH
	DB	03H
	DB	03H
	DB	03H
	DB	03H
	DB	03H
	DB	03H
	DB	03H
	DB	0fdH
	DB	0fdH
	DB	0fdH
	DB	02H
	DB	07eH
	DB	04H
	DB	06H
	DB	0a0H
	DB	0fbH
	DB	0dH
	DB	0cH
	DB	014H
	DB	01dH
	DB	020H
	DB	02bH
	DB	0d5H
	DB	0d8H
	DB	018H
	DB	025H
	DB	0e7H
	DB	095H
	DB	01dH
	DB	0f1H
	DB	0f2H
	DB	013H
	DB	0cH
	DB	0eH
	DB	011H
	DB	0dH
	DB	0dH
	DB	05H
	DB	05H
	DB	05H
	DB	0faH
	DB	0faH
	DB	0faH
	DB	0faH
	DB	09H
	DB	09H
	DB	09H
	DB	0fbH
	DB	0fbH
	DB	0fbH
	DB	0aH
	DB	01H
	DB	03cH
	DB	00H
	DB	00H
	DB	00H
	DB	00H
	DB	0b8H
	DB	02fH
	DB	058H
	DB	00H
	DB	00H
	DB	00H
	DB	00H
	DB	00H
	DB	00H
	DB	00H
	DB	061H
	DB	024H
	DB	012H
	DB	06H
	DB	05cH
	DB	00H
	DB	00H
	DB	00H
	DB	021H
	DB	024H
	DB	02cH
	DB	03H
	DB	0ffH
	DB	0a4H
	DB	053H
	DB	00H
	DB	00H
	DB	00H
	DB	00H
	DB	00H
	DB	00H
	DB	071H
	DB	05eH
	DB	067H
	DB	0c0H
	DB	033H
	DB	031H
	DB	017H
	DB	095H
	DB	0dH
	DB	02H
	DB	0ffH
	DB	0ffH
	DB	0ffH
	DB	0ffH
	DB	0ffH
	DB	0ffH
	DB	0ffH
	DB	0ffH
	DB	0ffH
	DB	03H
	DB	03H
	DB	03H
	DB	03H
	DB	03H
	DB	03H
	DB	03H
	DB	03H
	DB	03H
	DB	03H
	DB	0fdH
	DB	0fdH
	DB	0fdH
	DB	02H
	DB	02H
	DB	07eH
	DB	04H
	DB	0fcH
	DB	06H
	DB	0fbH
	DB	05H
	DB	011H
	DB	013H
	DB	0f1H
	DB	01fH
	DB	095H
	DB	01eH
	DB	01bH
	DB	018H
	DB	01cH
	DB	016H
	DB	015H
	DB	01fH
	DB	0bH
	DB	010H
	DB	013H
	DB	0cH
	DB	0cH
	DB	0eH
	DB	011H
	DB	011H
	DB	0dH
	DB	0dH
	DB	0dH
	DB	09fH
	DB	05H
	DB	05H
	DB	05H
	DB	0faH
	DB	0faH
	DB	0faH
	DB	09H
	DB	09H
	DB	09H
	DB	09H
	DB	0fdH
	DB	0caH
	DB	00H
	DB	00H
	DB	00H
	DB	00H
	DB	05bH
	DB	012H
	DB	027H
	DB	083H
	DB	00H
	DB	00H
	DB	00H
	DB	00H
	DB	00H
	DB	00H
	DB	00H
	DB	048H
	DB	024H
	DB	02cH
	DB	053H
	DB	00H
	DB	00H
	DB	00H
	DB	021H
	DB	023H
	DB	02cH
	DB	0fdH
	DB	03H
	DB	0a4H
	DB	053H
	DB	00H
	DB	00H
	DB	00H
	DB	00H
	DB	00H
	DB	00H
	DB	00H
	DB	00H
	DB	00H
	DB	00H
	DB	00H
	DB	00H
	DB	0adH
	DB	047H
	DB	04dH
	DB	0c2H
	DB	02cH
	DB	03H
	DB	03H
	DB	03H
	DB	03H
	DB	03H
	DB	03H
	DB	03H
	DB	03H
	DB	03H
	DB	03H
	DB	03H
	DB	03H
	DB	0fdH
	DB	0fdH
	DB	0fdH
	DB	0fdH
	DB	0fdH
	DB	0fdH
	DB	0fdH
	DB	0fdH
	DB	02H
	DB	02H
	DB	02H
	DB	07eH
	DB	04H
	DB	0fcH
	DB	0fcH
	DB	0aH
	DB	09H
	DB	05H
	DB	0eH
	DB	010H
	DB	01aH
	DB	020H
	DB	01eH
	DB	0d6H
	DB	028H
	DB	01cH
	DB	035H
	DB	02bH
	DB	020H
	DB	01aH
	DB	014H
	DB	0fH
	DB	09bH
	DB	0cH
	DB	0eH
	DB	0eH
	DB	0eH
	DB	011H
	DB	011H
	DB	011H
	DB	0dH
	DB	0dH
	DB	0dH
	DB	05H
	DB	05H
	DB	05H
	DB	05H
	DB	0faH
	DB	0faH
	DB	0faH
	DB	09H
	DB	02H
	DB	0d8H
	DB	00H
	DB	00H
	DB	00H
	DB	00H
	DB	063H
	DB	0fbH
	DB	07H
	DB	01fH
	DB	063H
	DB	00H
	DB	00H
	DB	00H
	DB	00H
	DB	00H
	DB	00H
	DB	00H
	DB	058H
	DB	0e7H
	DB	0bbH
	DB	00H
	DB	00H
	DB	00H
	DB	021H
	DB	023H
	DB	07H
	DB	0fdH
	DB	03H
	DB	08H
	DB	071H
	DB	00H
	DB	00H
	DB	00H
	DB	00H
	DB	00H
	DB	00H
	DB	00H
	DB	00H
	DB	00H
	DB	00H
	DB	00H
	DB	00H
	DB	00H
	DB	00H
	DB	00H
	DB	03cH
	DB	012H
	DB	03H
	DB	03H
	DB	03H
	DB	03H
	DB	03H
	DB	03H
	DB	03H
	DB	03H
	DB	0fdH
	DB	0fdH
	DB	0fdH
	DB	0fdH
	DB	0fdH
	DB	0fdH
	DB	0fdH
	DB	0fdH
	DB	0fdH
	DB	0fdH
	DB	02H
	DB	02H
	DB	02H
	DB	02H
	DB	07eH
	DB	07eH
	DB	04H
	DB	0fcH
	DB	0fcH
	DB	0a0H
	DB	0fbH
	DB	0faH
	DB	0dH
	DB	013H
	DB	014H
	DB	01fH
	DB	030H
	DB	022H
	DB	028H
	DB	017H
	DB	091H
	DB	0e7H
	DB	095H
	DB	019H
	DB	01aH
	DB	010H
	DB	013H
	DB	013H
	DB	0cH
	DB	0cH
	DB	0cH
	DB	0eH
	DB	0eH
	DB	0eH
	DB	011H
	DB	011H
	DB	011H
	DB	0dH
	DB	0dH
	DB	0dH
	DB	0dH
	DB	05H
	DB	05H
	DB	05H
	DB	0faH
	DB	0fcH
	DB	02eH
	DB	04bH
	DB	00H
	DB	00H
	DB	00H
	DB	04dH
	DB	0f1H
	DB	04H
	DB	0ffH
	DB	015H
	DB	05aH
	DB	00H
	DB	00H
	DB	00H
	DB	00H
	DB	00H
	DB	00H
	DB	00H
	DB	059H
	DB	05aH
	DB	00H
	DB	00H
	DB	00H
	DB	021H
	DB	018H
	DB	07H
	DB	02H
	DB	0fdH
	DB	0a3H
	DB	0b3H
	DB	00H
	DB	00H
	DB	00H
	DB	00H
	DB	00H
	DB	041H
	DB	021H
	DB	052H
	DB	00H
	DB	00H
	DB	00H
	DB	00H
	DB	00H
	DB	00H
	DB	00H
	DB	0cbH
	DB	012H
	DB	0fdH
	DB	0fdH
	DB	0fdH
	DB	0fdH
	DB	0fdH
	DB	0fdH
	DB	0fdH
	DB	0fdH
	DB	0fdH
	DB	0fdH
	DB	0fdH
	DB	0fdH
	DB	02H
	DB	02H
	DB	02H
	DB	02H
	DB	02H
	DB	02H
	DB	02H
	DB	07eH
	DB	07eH
	DB	07eH
	DB	07eH
	DB	07eH
	DB	04H
	DB	0fcH
	DB	0fcH
	DB	0a0H
	DB	0aH
	DB	09H
	DB	0dH
	DB	0cH
	DB	010H
	DB	01aH
	DB	034H
	DB	01eH
	DB	026H
	DB	024H
	DB	01cH
	DB	02fH
	DB	02eH
	DB	095H
	DB	019H
	DB	01aH
	DB	014H
	DB	0fH
	DB	060H
	DB	013H
	DB	013H
	DB	051H
	DB	0cH
	DB	0cH
	DB	0cH
	DB	0eH
	DB	0eH
	DB	0eH
	DB	011H
	DB	011H
	DB	011H
	DB	0dH
	DB	0dH
	DB	0dH
	DB	05H
	DB	0aH
	DB	0bH
	DB	062H
	DB	00H
	DB	00H
	DB	00H
	DB	03aH
	DB	0e7H
	DB	07eH
	DB	09H
	DB	03H
	DB	0dH
	DB	070H
	DB	00H
	DB	00H
	DB	00H
	DB	00H
	DB	00H
	DB	00H
	DB	00H
	DB	00H
	DB	00H
	DB	00H
	DB	00H
	DB	021H
	DB	018H
	DB	07H
	DB	07eH
	DB	02H
	DB	0fdH
	DB	06dH
	DB	00H
	DB	00H
	DB	00H
	DB	00H
	DB	00H
	DB	03aH
	DB	037H
	DB	029H
	DB	0caH
	DB	045H
	DB	076H
	DB	0bdH
	DB	073H
	DB	049H
	DB	06eH
	DB	018H
	DB	02cH
	DB	0fdH
	DB	0fdH
	DB	0fdH
	DB	02H
	DB	02H
	DB	02H
	DB	02H
	DB	02H
	DB	02H
	DB	02H
	DB	02H
	DB	02H
	DB	02H
	DB	07eH
	DB	07eH
	DB	07eH
	DB	07eH
	DB	07eH
	DB	07eH
	DB	07eH
	DB	07eH
	DB	04H
	DB	04H
	DB	04H
	DB	04H
	DB	0fcH
	DB	0fcH
	DB	06H
	DB	0aH
	DB	0fbH
	DB	0faH
	DB	011H
	DB	013H
	DB	0f1H
	DB	034H
	DB	01eH
	DB	01bH
	DB	028H
	DB	017H
	DB	02dH
	DB	016H
	DB	02eH
	DB	095H
	DB	019H
	DB	01dH
	DB	0bH
	DB	010H
	DB	0fH
	DB	0fH
	DB	013H
	DB	013H
	DB	013H
	DB	0cH
	DB	0cH
	DB	0cH
	DB	0eH
	DB	0eH
	DB	0eH
	DB	011H
	DB	011H
	DB	011H
	DB	0dH
	DB	0dH
	DB	09H
	DB	0dH
	DB	049H
	DB	00H
	DB	00H
	DB	00H
	DB	021H
	DB	01bH
	DB	02H
	DB	09H
	DB	09H
	DB	0fdH
	DB	0eH
	DB	049H
	DB	00H
	DB	00H
	DB	00H
	DB	00H
	DB	00H
	DB	00H
	DB	00H
	DB	00H
	DB	00H
	DB	00H
	DB	021H
	DB	028H
	DB	0a4H
	DB	07eH
	DB	02H
	DB	02H
	DB	03aH
	DB	00H
	DB	00H
	DB	00H
	DB	00H
	DB	00H
	DB	080H
	DB	0eH
	DB	012H
	DB	012H
	DB	012H
	DB	012H
	DB	07H
	DB	0a4H
	DB	01H
	DB	0fdH
	DB	0fdH
	DB	02H
	DB	02H
	DB	02H
	DB	02H
	DB	02H
	DB	02H
	DB	02H
	DB	02H
	DB	02H
	DB	02H
	DB	02H
	DB	07eH
	DB	07eH
	DB	07eH
	DB	07eH
	DB	07eH
	DB	07eH
	DB	07eH
	DB	07eH
	DB	04H
	DB	04H
	DB	04H
	DB	04H
	DB	04H
	DB	04H
	DB	0fcH
	DB	0fcH
	DB	06H
	DB	06H
	DB	0aH
	DB	0fbH
	DB	0faH
	DB	0dH
	DB	0cH
	DB	014H
	DB	038H
	DB	0d4H
	DB	022H
	DB	026H
	DB	023H
	DB	0e0H
	DB	027H
	DB	02fH
	DB	02bH
	DB	095H
	DB	020H
	DB	01fH
	DB	0bH
	DB	014H
	DB	010H
	DB	010H
	DB	0fH
	DB	0fH
	DB	0fH
	DB	013H
	DB	013H
	DB	013H
	DB	0cH
	DB	0cH
	DB	0cH
	DB	0eH
	DB	0eH
	DB	0eH
	DB	011H
	DB	0dH
	DB	06H
	DB	0b5H
	DB	00H
	DB	00H
	DB	00H
	DB	041H
	DB	0ceH
	DB	03H
	DB	0faH
	DB	09H
	DB	09H
	DB	02H
	DB	010H
	DB	049H
	DB	00H
	DB	00H
	DB	00H
	DB	00H
	DB	00H
	DB	00H
	DB	00H
	DB	00H
	DB	00H
	DB	021H
	DB	029H
	DB	0a4H
	DB	04H
	DB	07eH
	DB	07eH
	DB	048H
	DB	00H
	DB	00H
	DB	00H
	DB	00H
	DB	00H
	DB	062H
	DB	09H
	DB	01H
	DB	02H
	DB	02H
	DB	02H
	DB	02H
	DB	02H
	DB	0fdH
	DB	0fdH
	DB	02H
	DB	02H
	DB	02H
	DB	07fH
	DB	07eH
	DB	07eH
	DB	07eH
	DB	07eH
	DB	07eH
	DB	07eH
	DB	07eH
	DB	07eH
	DB	07eH
	DB	07eH
	DB	04H
	DB	04H
	DB	04H
	DB	04H
	DB	04H
	DB	04H
	DB	04H
	DB	0fcH
	DB	0fcH
	DB	0fcH
	DB	0fcH
	DB	0fcH
	DB	0fcH
	DB	06H
	DB	06H
	DB	0a0H
	DB	0aH
	DB	0aH
	DB	09H
	DB	0dH
	DB	0eH
	DB	010H
	DB	037H
	DB	0d2H
	DB	01eH
	DB	01bH
	DB	028H
	DB	0dcH
	DB	01cH
	DB	02dH
	DB	035H
	DB	0e7H
	DB	02eH
	DB	095H
	DB	019H
	DB	01dH
	DB	0f1H
	DB	014H
	DB	014H
	DB	0f3H
	DB	010H
	DB	010H
	DB	0fH
	DB	0fH
	DB	0fH
	DB	013H
	DB	013H
	DB	013H
	DB	0cH
	DB	0cH
	DB	046H
	DB	0eH
	DB	03H
	DB	05dH
	DB	00H
	DB	00H
	DB	00H
	DB	00H
	DB	0c4H
	DB	0ffH
	DB	05H
	DB	05H
	DB	0faH
	DB	0faH
	DB	07eH
	DB	0fH
	DB	049H
	DB	00H
	DB	00H
	DB	00H
	DB	00H
	DB	00H
	DB	00H
	DB	00H
	DB	00H
	DB	021H
	DB	029H
	DB	08H
	DB	0fcH
	DB	04H
	DB	04H
	DB	048H
	DB	00H
	DB	00H
	DB	00H
	DB	00H
	DB	00H
	DB	0b1H
	DB	0fcH
	DB	03H
	DB	07eH
	DB	07eH
	DB	07eH
	DB	07eH
	DB	07eH
	DB	07eH
	DB	07eH
	DB	07eH
	DB	07eH
	DB	07eH
	DB	07eH
	DB	07eH
	DB	07eH
	DB	04H
	DB	04H
	DB	04H
	DB	04H
	DB	04H
	DB	04H
	DB	04H
	DB	04H
	DB	0fcH
	DB	0fcH
	DB	0fcH
	DB	0fcH
	DB	0fcH
	DB	0fcH
	DB	0fcH
	DB	06H
	DB	06H
	DB	06H
	DB	06H
	DB	06H
	DB	06H
	DB	0a0H
	DB	0a0H
	DB	0a0H
	DB	0aH
	DB	0fbH
	DB	09H
	DB	05H
	DB	011H
	DB	013H
	DB	032H
	DB	0d0H
	DB	0d4H
	DB	0d5H
	DB	01bH
	DB	078H
	DB	023H
	DB	017H
	DB	025H
	DB	027H
	DB	02fH
	DB	0e7H
	DB	015H
	DB	02aH
	DB	019H
	DB	01aH
	DB	0f1H
	DB	014H
	DB	014H
	DB	010H
	DB	010H
	DB	010H
	DB	0fH
	DB	0fH
	DB	0fH
	DB	013H
	DB	013H
	DB	013H
	DB	0cH
	DB	0cH
	DB	07eH
	DB	077H
	DB	00H
	DB	00H
	DB	00H
	DB	00H
	DB	076H
	DB	07eH
	DB	05H
	DB	05H
	DB	05H
	DB	0faH
	DB	05H
	DB	02H
	DB	010H
	DB	05bH
	DB	00H
	DB	00H
	DB	00H
	DB	00H
	DB	00H
	DB	00H
	DB	00H
	DB	021H
	DB	029H
	DB	0a3H
	DB	06H
	DB	0fcH
	DB	07eH
	DB	048H
	DB	00H
	DB	00H
	DB	00H
	DB	00H
	DB	00H
	DB	05aH
	DB	01H
	DB	02H
	DB	07eH
	DB	07eH
	DB	07eH
	DB	07eH
	DB	07eH
	DB	07eH
	DB	04H
	DB	04H
	DB	04H
	DB	04H
	DB	04H
	DB	04H
	DB	04H
	DB	04H
	DB	04H
	DB	04H
	DB	04H
	DB	04H
	DB	0fcH
	DB	0fcH
	DB	0fcH
	DB	0fcH
	DB	0fcH
	DB	0fcH
	DB	0fcH
	DB	0fcH
	DB	06H
	DB	06H
	DB	06H
	DB	06H
	DB	06H
	DB	06H
	DB	0a1H
	DB	0a0H
	DB	0a0H
	DB	0a0H
	DB	0aH
	DB	0aH
	DB	0fbH
	DB	09H
	DB	05H
	DB	0f8H
	DB	09bH
	DB	031H
	DB	032H
	DB	038H
	DB	030H
	DB	0d5H
	DB	01bH
	DB	026H
	DB	018H
	DB	024H
	DB	0e0H
	DB	025H
	DB	027H
	DB	016H
	DB	02eH
	DB	095H
	DB	020H
	DB	01fH
	DB	099H
	DB	0f1H
	DB	0f1H
	DB	0f1H
	DB	014H
	DB	014H
	DB	014H
	DB	010H
	DB	010H
	DB	0f4H
	DB	0fH
	DB	0fH
	DB	013H
	DB	0aH
	DB	042H
	DB	06aH
	DB	00H
	DB	00H
	DB	00H
	DB	074H
	DB	0fcH
	DB	011H
	DB	0dH
	DB	0dH
	DB	0dH
	DB	05H
	DB	05H
	DB	07eH
	DB	0edH
	DB	06eH
	DB	00H
	DB	00H
	DB	00H
	DB	00H
	DB	00H
	DB	00H
	DB	021H
	DB	026H
	DB	01H
	DB	0a0H
	DB	07eH
	DB	0f1H
	DB	057H
	DB	00H
	DB	00H
	DB	00H
	DB	00H
	DB	00H
	DB	049H
	DB	012H
	DB	04H
	DB	04H
	DB	04H
	DB	04H
	DB	04H
	DB	04H
	DB	04H
	DB	04H
	DB	04H
	DB	04H
	DB	0fcH
	DB	0fcH
	DB	0fcH
	DB	0fcH
	DB	0fcH
	DB	0fcH
	DB	0fcH
	DB	0fcH
	DB	0fcH
	DB	0fcH
	DB	06H
	DB	06H
	DB	06H
	DB	06H
	DB	06H
	DB	06H
	DB	06H
	DB	0a0H
	DB	0a0H
	DB	0a0H
	DB	0a0H
	DB	0a0H
	DB	0a0H
	DB	0aH
	DB	0aH
	DB	0aH
	DB	0aH
	DB	0aH
	DB	0fbH
	DB	0fbH
	DB	09H
	DB	05H
	DB	0dH
	DB	0cH
	DB	08dH
	DB	031H
	DB	037H
	DB	0d3H
	DB	030H
	DB	0d5H
	DB	0d7H
	DB	026H
	DB	029H
	DB	023H
	DB	017H
	DB	01cH
	DB	027H
	DB	02fH
	DB	016H
	DB	02eH
	DB	095H
	DB	019H
	DB	07aH
	DB	0f0H
	DB	0bH
	DB	0bH
	DB	0f1H
	DB	0f1H
	DB	0f1H
	DB	014H
	DB	014H
	DB	09aH
	DB	010H
	DB	010H
	DB	05H
	DB	030H
	DB	021H
	DB	00H
	DB	00H
	DB	00H
	DB	0b9H
	DB	0aH
	DB	0eH
	DB	0eH
	DB	011H
	DB	011H
	DB	0dH
	DB	0dH
	DB	0dH
	DB	07fH
	DB	02dH
	DB	059H
	DB	00H
	DB	00H
	DB	00H
	DB	00H
	DB	00H
	DB	021H
	DB	0d8H
	DB	0ffH
	DB	0aH
	DB	07eH
	DB	02bH
	DB	04cH
	DB	00H
	DB	00H
	DB	00H
	DB	00H
	DB	00H
	DB	086H
	DB	012H
	DB	03H
	DB	02H
	DB	04H
	DB	0fcH
	DB	0fcH
	DB	0fcH
	DB	0fcH
	DB	0fcH
	DB	0fcH
	DB	0fcH
	DB	06H
	DB	06H
	DB	06H
	DB	06H
	DB	06H
	DB	06H
	DB	06H
	DB	06H
	DB	06H
	DB	06H
	DB	0a0H
	DB	0a0H
	DB	0a0H
	DB	0a0H
	DB	0a0H
	DB	0a0H
	DB	0a0H
	DB	0aH
	DB	0aH
	DB	0aH
	DB	0aH
	DB	0aH
	DB	0aH
	DB	0aH
	DB	0fbH
	DB	0fbH
	DB	0fbH
	DB	0fbH
	DB	09H
	DB	09H
	DB	0faH
	DB	05H
	DB	0dH
	DB	0cH
	DB	039H
	DB	08dH
	DB	031H
	DB	032H
	DB	038H
	DB	0d4H
	DB	01eH
	DB	0d5H
	DB	0d6H
	DB	026H
	DB	028H
	DB	023H
	DB	017H
	DB	01cH
	DB	02dH
	DB	02fH
	DB	0e7H
	DB	094H
	DB	02aH
	DB	0eeH
	DB	01dH
	DB	01aH
	DB	0bH
	DB	0bH
	DB	0bH
	DB	0f1H
	DB	0f1H
	DB	014H
	DB	014H
	DB	014H
	DB	0cH
	DB	027H
	DB	04cH
	DB	00H
	DB	00H
	DB	00H
	DB	070H
	DB	0faH
	DB	0eH
	DB	0eH
	DB	0eH
	DB	09cH
	DB	011H
	DB	0dH
	DB	0dH
	DB	0dH
	DB	0fdH
	DB	01cH
	DB	03aH
	DB	00H
	DB	00H
	DB	00H
	DB	00H
	DB	021H
	DB	01bH
	DB	03H
	DB	0aH
	DB	04H
	DB	02eH
	DB	04cH
	DB	00H
	DB	00H
	DB	00H
	DB	00H
	DB	00H
	DB	0b7H
	DB	02bH
	DB	0e7H
	DB	010H
	DB	06H
	DB	0a4H
	DB	08H
	DB	08H
	DB	08H
	DB	08H
	DB	0a4H
	DB	03H
	DB	0a0H
	DB	06H
	DB	06H
	DB	06H
	DB	06H
	DB	06H
	DB	0a0H
	DB	0a0H
	DB	0a0H
	DB	0a0H
	DB	0a0H
	DB	0a0H
	DB	0a0H
	DB	0a0H
	DB	0aH
	DB	0aH
	DB	0aH
	DB	0aH
	DB	0aH
	DB	0aH
	DB	0fbH
	DB	0fbH
	DB	0fbH
	DB	0fbH
	DB	0fbH
	DB	0fbH
	DB	09H
	DB	09H
	DB	09H
	DB	0faH
	DB	0faH
	DB	05H
	DB	0dH
	DB	0eH
	DB	0c9H
	DB	039H
	DB	08dH
	DB	031H
	DB	032H
	DB	0d0H
	DB	0d2H
	DB	0d4H
	DB	01eH
	DB	0d5H
	DB	01bH
	DB	026H
	DB	018H
	DB	024H
	DB	017H
	DB	025H
	DB	027H
	DB	016H
	DB	02bH
	DB	015H
	DB	020H
	DB	01fH
	DB	01dH
	DB	098H
	DB	01aH
	DB	01aH
	DB	0bH
	DB	0bH
	DB	0f1H
	DB	0f1H
	DB	014H
	DB	014H
	DB	06cH
	DB	00H
	DB	00H
	DB	00H
	DB	063H
	DB	0eH
	DB	0cH
	DB	013H
	DB	0cH
	DB	0cH
	DB	0eH
	DB	0eH
	DB	07dH
	DB	011H
	DB	0dH
	DB	0fdH
	DB	037H
	DB	0afH
	DB	00H
	DB	00H
	DB	00H
	DB	021H
	DB	0d6H
	DB	0fdH
	DB	0fbH
	DB	0fcH
	DB	02bH
	DB	04cH
	DB	00H
	DB	00H
	DB	00H
	DB	00H
	DB	00H
	DB	0a8H
	DB	04cH
	DB	057H
	DB	058H
	DB	04dH
	DB	062H
	DB	064H
	DB	088H
	DB	08bH
	DB	03dH
	DB	038H
	DB	015H
	DB	06H
	DB	0a0H
	DB	0a0H
	DB	0a0H
	DB	0a0H
	DB	0aH
	DB	0aH
	DB	0aH
	DB	0aH
	DB	0aH
	DB	0aH
	DB	0aH
	DB	0aH
	DB	0fbH
	DB	0fbH
	DB	0fbH
	DB	0fbH
	DB	0fbH
	DB	0fbH
	DB	09H
	DB	09H
	DB	09H
	DB	09H
	DB	09H
	DB	09H
	DB	0faH
	DB	0faH
	DB	0faH
	DB	0faH
	DB	05H
	DB	05H
	DB	0dH
	DB	09dH
	DB	0eH
	DB	042H
	DB	0c9H
	DB	039H
	DB	08dH
	DB	0ccH
	DB	0ceH
	DB	032H
	DB	0cfH
	DB	0d2H
	DB	030H
	DB	01eH
	DB	022H
	DB	01bH
	DB	078H
	DB	018H
	DB	024H
	DB	0e1H
	DB	025H
	DB	035H
	DB	0e7H
	DB	02bH
	DB	095H
	DB	019H
	DB	01fH
	DB	097H
	DB	01dH
	DB	01dH
	DB	01aH
	DB	01aH
	DB	01aH
	DB	0f1H
	DB	013H
	DB	05bH
	DB	00H
	DB	00H
	DB	00H
	DB	047H
	DB	010H
	DB	013H
	DB	0fH
	DB	0fH
	DB	013H
	DB	013H
	DB	0cH
	DB	0cH
	DB	0eH
	DB	0eH
	DB	0eH
	DB	0fdH
	DB	039H
	DB	055H
	DB	00H
	DB	00H
	DB	021H
	DB	022H
	DB	02H
	DB	0faH
	DB	06H
	DB	02bH
	DB	04cH
	DB	00H
	DB	00H
	DB	00H
	DB	00H
	DB	00H
	DB	00H
	DB	00H
	DB	00H
	DB	00H
	DB	00H
	DB	00H
	DB	00H
	DB	00H
	DB	00H
	DB	00H
	DB	00H
	DB	072H
	DB	03H
	DB	0a0H
	DB	0aH
	DB	0aH
	DB	0fbH
	DB	0fbH
	DB	0fbH
	DB	0fbH
	DB	0fbH
	DB	0fbH
	DB	0fbH
	DB	0fbH
	DB	09H
	DB	09H
	DB	09H
	DB	09H
	DB	09H
	DB	09H
	DB	09H
	DB	0faH
	DB	0faH
	DB	0faH
	DB	0faH
	DB	0faH
	DB	05H
	DB	05H
	DB	05H
	DB	05H
	DB	05H
	DB	0dH
	DB	0dH
	DB	011H
	DB	011H
	DB	0cH
	DB	0c5H
	DB	0c7H
	DB	03fH
	DB	0caH
	DB	0cbH
	DB	036H
	DB	0ccH
	DB	0ceH
	DB	032H
	DB	038H
	DB	034H
	DB	030H
	DB	01eH
	DB	022H
	DB	01bH
	DB	0d9H
	DB	018H
	DB	024H
	DB	0dfH
	DB	02dH
	DB	035H
	DB	016H
	DB	02eH
	DB	095H
	DB	019H
	DB	01fH
	DB	01fH
	DB	01dH
	DB	01dH
	DB	07aH
	DB	01aH
	DB	0cH
	DB	0b6H
	DB	00H
	DB	00H
	DB	00H
	DB	04bH
	DB	0e0H
	DB	0eH
	DB	010H
	DB	0fH
	DB	0fH
	DB	060H
	DB	013H
	DB	013H
	DB	0cH
	DB	0cH
	DB	0eH
	DB	0eH
	DB	02H
	DB	03cH
	DB	00H
	DB	00H
	DB	069H
	DB	01eH
	DB	02H
	DB	0faH
	DB	06H
	DB	024H
	DB	052H
	DB	00H
	DB	00H
	DB	00H
	DB	00H
	DB	00H
	DB	00H
	DB	00H
	DB	00H
	DB	00H
	DB	00H
	DB	00H
	DB	00H
	DB	00H
	DB	00H
	DB	00H
	DB	00H
	DB	05dH
	DB	07H
	DB	0fbH
	DB	0fbH
	DB	0fbH
	DB	0fbH
	DB	0fbH
	DB	0fbH
	DB	0fbH
	DB	09H
	DB	09H
	DB	09H
	DB	09H
	DB	09H
	DB	09H
	DB	09H
	DB	0faH
	DB	0faH
	DB	0faH
	DB	0faH
	DB	0faH
	DB	0faH
	DB	05H
	DB	05H
	DB	05H
	DB	05H
	DB	05H
	DB	09fH
	DB	0dH
	DB	0dH
	DB	0dH
	DB	011H
	DB	011H
	DB	0eH
	DB	0cH
	DB	0c3H
	DB	050H
	DB	0c7H
	DB	03fH
	DB	0c9H
	DB	0caH
	DB	0cbH
	DB	08dH
	DB	040H
	DB	0ceH
	DB	032H
	DB	0d0H
	DB	0d2H
	DB	030H
	DB	01eH
	DB	022H
	DB	01bH
	DB	026H
	DB	08fH
	DB	0deH
	DB	0e0H
	DB	091H
	DB	092H
	DB	016H
	DB	015H
	DB	02aH
	DB	05fH
	DB	019H
	DB	079H
	DB	01fH
	DB	01fH
	DB	011H
	DB	05eH
	DB	00H
	DB	00H
	DB	041H
	DB	03aH
	DB	0d5H
	DB	0cH
	DB	0f1H
	DB	014H
	DB	014H
	DB	010H
	DB	010H
	DB	0fH
	DB	0fH
	DB	013H
	DB	013H
	DB	0cH
	DB	011H
	DB	0dH
	DB	0d4H
	DB	032H
	DB	037H
	DB	0bH
	DB	0faH
	DB	05H
	DB	09H
	DB	01fH
	DB	03dH
	DB	043H
	DB	045H
	DB	0c0H
	DB	074H
	DB	089H
	DB	073H
	DB	0b4H
	DB	05aH
	DB	059H
	DB	058H
	DB	03aH
	DB	04bH
	DB	052H
	DB	00H
	DB	00H
	DB	00H
	DB	0c1H
	DB	0a3H
	DB	09H
	DB	09H
	DB	09H
	DB	09H
	DB	09H
	DB	0faH
	DB	0faH
	DB	0faH
	DB	0faH
	DB	0faH
	DB	0faH
	DB	0faH
	DB	05H
	DB	05H
	DB	05H
	DB	05H
	DB	05H
	DB	05H
	DB	0dH
	DB	0dH
	DB	0dH
	DB	0dH
	DB	0dH
	DB	0dH
	DB	011H
	DB	011H
	DB	011H
	DB	011H
	DB	011H
	DB	0eH
	DB	0eH
	DB	0cH
	DB	013H
	DB	045H
	DB	03dH
	DB	03eH
	DB	0c5H
	DB	0c7H
	DB	042H
	DB	0c9H
	DB	0caH
	DB	0cbH
	DB	08dH
	DB	0ccH
	DB	0ceH
	DB	037H
	DB	038H
	DB	034H
	DB	030H
	DB	01eH
	DB	022H
	DB	0d8H
	DB	029H
	DB	018H
	DB	017H
	DB	01cH
	DB	027H
	DB	02fH
	DB	0e7H
	DB	015H
	DB	02aH
	DB	019H
	DB	020H
	DB	05fH
	DB	014H
	DB	033H
	DB	05eH
	DB	067H
	DB	03eH
	DB	032H
	DB	02bH
	DB	0f1H
	DB	0bH
	DB	0bH
	DB	0f1H
	DB	0f1H
	DB	014H
	DB	014H
	DB	010H
	DB	010H
	DB	0fH
	DB	0fH
	DB	013H
	DB	0eH
	DB	0a1H
	DB	0fcH
	DB	0fcH
	DB	0dH
	DB	011H
	DB	011H
	DB	0dH
	DB	0faH
	DB	07eH
	DB	02H
	DB	0fdH
	DB	0fdH
	DB	02H
	DB	0fdH
	DB	02H
	DB	02H
	DB	02H
	DB	07eH
	DB	010H
	DB	02eH
	DB	026H
	DB	0ccH
	DB	043H
	DB	0beH
	DB	088H
	DB	0d8H
	DB	0fcH
	DB	0faH
	DB	0faH
	DB	05H
	DB	05H
	DB	05H
	DB	05H
	DB	05H
	DB	05H
	DB	05H
	DB	05H
	DB	0dH
	DB	0dH
	DB	0dH
	DB	0dH
	DB	0dH
	DB	0dH
	DB	0dH
	DB	011H
	DB	011H
	DB	011H
	DB	011H
	DB	09cH
	DB	0eH
	DB	0eH
	DB	0eH
	DB	0eH
	DB	0eH
	DB	0cH
	DB	0cH
	DB	0cH
	DB	0cH
	DB	013H
	DB	060H
	DB	043H
	DB	04fH
	DB	0c2H
	DB	0c3H
	DB	03eH
	DB	0c5H
	DB	0c7H
	DB	03fH
	DB	0c9H
	DB	0caH
	DB	039H
	DB	036H
	DB	0ccH
	DB	0ceH
	DB	032H
	DB	038H
	DB	034H
	DB	030H
	DB	01eH
	DB	022H
	DB	0d8H
	DB	029H
	DB	018H
	DB	017H
	DB	01cH
	DB	0e4H
	DB	092H
	DB	02bH
	DB	015H
	DB	02aH
	DB	020H
	DB	02aH
	DB	07aH
	DB	0eH
	DB	05H
	DB	0eH
	DB	0fH
	DB	01aH
	DB	01dH
	DB	01aH
	DB	0bH
	DB	0bH
	DB	0bH
	DB	0f1H
	DB	0f1H
	DB	014H
	DB	010H
	DB	010H
	DB	07bH
	DB	0fH
	DB	0fH
	DB	013H
	DB	0cH
	DB	0cH
	DB	0cH
	DB	0eH
	DB	0eH
	DB	011H
	DB	011H
	DB	0dH
	DB	0dH
	DB	0dH
	DB	0dH
	DB	05H
	DB	05H
	DB	05H
	DB	05H
	DB	05H
	DB	05H
	DB	09H
	DB	0aH
	DB	06H
	DB	07fH
	DB	0a2H
	DB	01H
	DB	04H
	DB	09H
	DB	05H
	DB	05H
	DB	05H
	DB	05H
	DB	05H
	DB	05H
	DB	0f9H
	DB	0dH
	DB	0dH
	DB	0dH
	DB	0dH
	DB	0dH
	DB	0dH
	DB	011H
	DB	011H
	DB	011H
	DB	011H
	DB	011H
	DB	011H
	DB	0eH
	DB	0eH
	DB	0eH
	DB	0eH
	DB	0eH
	DB	046H
	DB	0cH
	DB	0cH
	DB	0cH
	DB	0cH
	DB	0cH
	DB	013H
	DB	013H
	DB	013H
	DB	0fH
	DB	04eH
	DB	04aH
	DB	043H
	DB	04fH
	DB	045H
	DB	03dH
	DB	03eH
	DB	050H
	DB	03bH
	DB	042H
	DB	03fH
	DB	033H
	DB	0cbH
	DB	08dH
	DB	040H
	DB	0ceH
	DB	032H
	DB	0d0H
	DB	034H
	DB	030H
	DB	01eH
	DB	022H
	DB	01bH
	DB	0daH
	DB	023H
	DB	017H
	DB	01cH
	DB	027H
	DB	093H
	DB	0e7H
	DB	015H
	DB	095H
	DB	0ebH
	DB	020H
	DB	020H
	DB	020H
	DB	019H
	DB	019H
	DB	079H
	DB	01fH
	DB	01dH
	DB	01dH
	DB	01aH
	DB	01aH
	DB	0bH
	DB	0bH
	DB	0f1H
	DB	0f1H
	DB	014H
	DB	014H
	DB	010H
	DB	010H
	DB	0fH
	DB	0fH
	DB	013H
	DB	051H
	DB	0cH
	DB	0cH
	DB	0eH
	DB	0eH
	DB	07dH
	DB	011H
	DB	011H
	DB	011H
	DB	011H
	DB	011H
	DB	0dH
	DB	0dH
	DB	0dH
	DB	0dH
	DB	0dH
	DB	0dH
	DB	0dH
	DB	0dH
	DB	0dH
	DB	05H
	DB	0dH
	DB	0dH
	DB	0dH
	DB	0dH
	DB	011H
	DB	011H
	DB	011H
	DB	011H
	DB	011H
	DB	011H
	DB	011H
	DB	07dH
	DB	0eH
	DB	0eH
	DB	0eH
	DB	0eH
	DB	0eH
	DB	0f7H
	DB	0cH
	DB	0cH
	DB	0cH
	DB	0cH
	DB	0cH
	DB	051H
	DB	013H
	DB	013H
	DB	013H
	DB	013H
	DB	07cH
	DB	0fH
	DB	0fH
	DB	0fH
	DB	0fH
	DB	010H
	DB	010H
	DB	044H
	DB	03cH
	DB	04eH
	DB	04aH
	DB	043H
	DB	04fH
	DB	045H
	DB	03dH
	DB	03eH
	DB	050H
	DB	03bH
	DB	0c7H
	DB	03fH
	DB	033H
	DB	0caH
	DB	036H
	DB	040H
	DB	031H
	DB	032H
	DB	0d0H
	DB	0d2H
	DB	030H
	DB	01eH
	DB	022H
	DB	0d8H
	DB	029H
	DB	018H
	DB	017H
	DB	0e2H
	DB	0e3H
	DB	02fH
	DB	02bH
	DB	015H
	DB	095H
	DB	02aH
	DB	095H
	DB	02aH
	DB	02aH
	DB	020H
	DB	020H
	DB	019H
	DB	019H
	DB	01fH
	DB	096H
	DB	01dH
	DB	01dH
	DB	01aH
	DB	01aH
	DB	0bH
	DB	0f1H
	DB	0f1H
	DB	014H
	DB	014H
	DB	014H
	DB	010H
	DB	060H
	DB	0f5H
	DB	013H
	DB	013H
	DB	051H
	DB	046H
	DB	0cH
	DB	0cH
	DB	0eH
	DB	0eH
	DB	0eH
	DB	011H
	DB	011H
	DB	068H
	DB	068H
	DB	0eH
	DB	0eH
	DB	0eH
	DB	0eH
	DB	0eH
	DB	068H
	DB	068H
	DB	011H
	DB	011H
	DB	011H
	DB	0eH
	DB	0eH
	DB	0eH
	DB	0eH
	DB	0cH
	DB	0cH
	DB	0cH
	DB	046H
	DB	0cH
	DB	0cH
	DB	051H
	DB	013H
	DB	013H
	DB	0f6H
	DB	013H
	DB	013H
	DB	07cH
	DB	0fH
	DB	0fH
	DB	060H
	DB	0fH
	DB	0fH
	DB	010H
	DB	010H
	DB	07bH
	DB	010H
	DB	010H
	DB	014H
	DB	014H
	DB	014H
	DB	014H
	DB	076H
	DB	08cH
	DB	044H
	DB	0c0H
	DB	03cH
	DB	04aH
	DB	043H
	DB	043H
	DB	045H
	DB	0c2H
	DB	0c3H
	DB	0c4H
	DB	0c6H
	DB	042H
	DB	03fH
	DB	033H
	DB	039H
	DB	0cbH
	DB	040H
	DB	0cdH
	DB	032H
	DB	0d0H
	DB	038H
	DB	0d4H
	DB	01eH
	DB	022H
	DB	01bH
	DB	029H
	DB	08fH
	DB	0ddH
	DB	01cH
	DB	027H
	DB	093H
	DB	02bH
	DB	015H
	DB	015H
	DB	095H
	DB	095H
	DB	02aH
	DB	02aH
	DB	020H
	DB	020H
	DB	019H
	DB	019H
	DB	01fH
	DB	01fH
	DB	01dH
	DB	01dH
	DB	01aH
	DB	0bH
	DB	0bH
	DB	0f1H
	DB	0f1H
	DB	014H
	DB	014H
	DB	010H
	DB	010H
	DB	0fH
	DB	0fH
	DB	07cH
	DB	013H
	DB	013H
	DB	051H
	DB	0cH
	DB	0cH
	DB	0cH
	DB	0cH
	DB	0cH
	DB	0cH
	DB	0cH
	DB	046H
	DB	046H
	DB	046H
	DB	046H
	DB	046H
	DB	0cH
	DB	0cH
	DB	0cH
	DB	0cH
	DB	0cH
	DB	0cH
	DB	0cH
	DB	0cH
	DB	0cH
	DB	0cH
	DB	051H
	DB	013H
	DB	013H
	DB	013H
	DB	013H
	DB	013H
	DB	013H
	DB	0fH
	DB	0fH
	DB	0fH
	DB	0fH
	DB	0fH
	DB	07bH
	DB	010H
	DB	010H
	DB	0fH
	DB	0fH
	DB	0fH
	DB	010H
	DB	010H
	DB	010H
	DB	010H
	DB	010H
	DB	014H
	DB	014H
	DB	014H
	DB	044H
	DB	0c0H
	DB	03cH
	DB	04aH
	DB	04aH
	DB	04aH
	DB	043H
	DB	043H
	DB	043H
	DB	043H
	DB	043H
	DB	04fH
	DB	0c2H
	DB	0c4H
	DB	050H
	DB	0c7H
	DB	03fH
	DB	0c9H
	DB	0caH
	DB	0cbH
	DB	08dH
	DB	031H
	DB	032H
	DB	037H
	DB	0d2H
	DB	0d4H
	DB	01eH
	DB	022H
	DB	01bH
	DB	026H
	DB	018H
	DB	024H
	DB	01cH
	DB	027H
	DB	02fH
	DB	0e7H
	DB	02eH
	DB	02eH
	DB	094H
	DB	015H
	DB	095H
	DB	095H
	DB	02aH
	DB	0ecH
	DB	020H
	DB	05fH
	DB	019H
	DB	079H
	DB	01fH
	DB	01dH
	DB	01dH
	DB	01aH
	DB	01aH
	DB	0bH
	DB	0bH
	DB	0f1H
	DB	0f1H
	DB	014H
	DB	010H
	DB	010H
	DB	010H
	DB	0fH
	DB	0fH
	DB	0fH
	DB	0fH
	DB	0fH
	DB	0fH
	DB	013H
	DB	013H
	DB	013H
	DB	013H
	DB	013H
	DB	013H
	DB	013H
	DB	013H
	DB	013H
	DB	013H
	DB	013H
	DB	013H
	DB	0fH
	DB	0fH
	DB	0fH
	DB	0fH
	DB	0fH
	DB	0fH
	DB	0fH
	DB	0fH
	DB	010H
	DB	010H
	DB	010H
	DB	010H
	DB	010H
	DB	010H
	DB	010H
	DB	014H
	DB	010H
	DB	0fH
	DB	013H
	DB	0fH
	DB	0f1H
	DB	01aH
	DB	01aH
	DB	01dH
	DB	01dH
	DB	01fH
	DB	020H
	DB	020H
	DB	019H
	DB	019H
	DB	020H
	DB	020H
	DB	0d6H
	DB	01bH
	DB	0d8H
	DB	01bH
	DB	0d5H
	DB	01eH
	DB	01eH
	DB	0d4H
	DB	0d2H
	DB	032H
	DB	040H
	DB	0caH
	DB	0c7H
	DB	03dH
	DB	045H
	DB	03dH
	DB	0c4H
	DB	03bH
	DB	03fH
	DB	0c9H
	DB	033H
	DB	039H
	DB	08dH
	DB	0ccH
	DB	0ceH
	DB	037H
	DB	038H
	DB	0d4H
	DB	01eH
	DB	0d5H
	DB	01bH
	DB	026H
	DB	018H
	DB	090H
	DB	01cH
	DB	02dH
	DB	0e6H
	DB	0e7H
	DB	02bH
	DB	02eH
	DB	0e8H
	DB	015H
	DB	095H
	DB	095H
	DB	02aH
	DB	0e9H
	DB	020H
	DB	0eaH
	DB	019H
	DB	01fH
	DB	01fH
	DB	01dH
	DB	01dH
	DB	01aH
	DB	01aH
	DB	0bH
	DB	0bH
	DB	0f1H
	DB	014H
	DB	014H
	DB	014H
	DB	010H
	DB	010H
	DB	010H
	DB	010H
	DB	010H
	DB	0fH
	DB	0fH
	DB	0fH
	DB	0fH
	DB	0fH
	DB	0fH
	DB	0fH
	DB	0fH
	DB	0fH
	DB	0fH
	DB	0fH
	DB	0fH
	DB	0fH
	DB	0fH
	DB	010H
	DB	010H
	DB	09aH
	DB	010H
	DB	010H
	DB	010H
	DB	010H
	DB	010H
	DB	010H
	DB	014H
	DB	0f1H
	DB	014H
	DB	0fH
	DB	0fH
	DB	014H
	DB	02aH
	DB	02dH
	DB	024H
	DB	028H
	DB	01bH
	DB	022H
	DB	0d6H
	DB	0d5H
	DB	022H
	DB	0d5H
	DB	01eH
	DB	0d5H
	DB	022H
	DB	022H
	DB	022H
	DB	022H
	DB	026H
	DB	029H
	DB	028H
	DB	018H
	DB	023H
	DB	023H
	DB	024H
	DB	017H
	DB	0e0H
	DB	01cH
	DB	025H
	DB	0e0H
	DB	023H
	DB	026H
	DB	0d4H
	DB	08dH
	DB	042H
	DB	0c3H
	DB	0c4H
	DB	0c5H
	DB	0c7H
	DB	03fH
	DB	033H
	DB	0caH
	DB	036H
	DB	040H
	DB	031H
	DB	032H
	DB	0d0H
	DB	0d1H
	DB	030H
	DB	01eH
	DB	0d6H
	DB	0d8H
	DB	028H
	DB	023H
	DB	0e0H
	DB	025H
	DB	035H
	DB	016H
	DB	0e7H
	DB	02bH
	DB	02bH
	DB	02eH
	DB	02eH
	DB	015H
	DB	095H
	DB	095H
	DB	02aH
	DB	02aH
	DB	020H
	DB	05fH
	DB	019H
	DB	019H
	DB	01fH
	DB	0efH
	DB	01dH
	DB	01aH
	DB	01aH
	DB	0bH
	DB	0bH
	DB	0f1H
	DB	0f1H
	DB	0f1H
	DB	0f1H
	DB	0f1H
	DB	014H
	DB	014H
	DB	014H
	DB	014H
	DB	014H
	DB	014H
	DB	014H
	DB	014H
	DB	014H
	DB	014H
	DB	014H
	DB	014H
	DB	014H
	DB	014H
	DB	014H
	DB	014H
	DB	0f1H
	DB	0f1H
	DB	0f1H
	DB	0f1H
	DB	0f1H
	DB	0f1H
	DB	0f1H
	DB	0f1H
	DB	0bH
	DB	02aH
	DB	01cH
	DB	01eH
	DB	0ceH
	DB	08dH
	DB	040H
	DB	031H
	DB	037H
	DB	034H
	DB	01eH
	DB	0d5H
	DB	0d6H
	DB	0d6H
	DB	0d6H
	DB	01bH
	DB	0d8H
	DB	026H
	DB	026H
	DB	026H
	DB	026H
CONST	ENDS
END
