; Listing generated by Microsoft (R) Optimizing Compiler Version 16.00.40219.01 

	TITLE	C:\DUII\DUII\Graphics\RaceSetup.c
	.686P
	.XMM
	include listing.inc
	.model	flat

INCLUDELIB LIBCMT
INCLUDELIB OLDNAMES

PUBLIC	_bmRaceSetup
CONST	SEGMENT
_ColorsRaceSetup DD 00H
	DD	0373637H
	DD	0181818H
	DD	0a7a5a9H
	DD	0fafafaH
	DD	0484747H
	DD	0292828H
	DD	0575556H
	DD	0989698H
	DD	01104faH
	DD	0888687H
	DD	0b5b3b7H
	DD	0686666H
	DD	0787576H
	DD	06b4faH
	DD	0aeacb0H
	DD	024ecfdH
	DD	0bcef6H
	DD	0250ffbH
	DD	0b0aeb3H
	DD	015ecfdH
	DD	032312cH
	DD	0c7c6c9H
	DD	0736b6aH
	DD	0524b4bH
	DD	0c04d0H
	DD	0a09ea1H
	DD	0312d2bH
	DD	03a3c43H
	DD	0423c3bH
	DD	0b0c12H
	DD	0394449H
	DD	0635c5bH
	DD	02b2c32H
	DD	0f1328H
	DD	0d6d6d7H
	DD	0a93efH
	DD	0312ffdH
	DD	0918e90H
	DD	0211d1bH
	DD	0827b7aH
	DD	0b04b2H
	DD	09e9ca0H
	DD	0918c8cH
	DD	0a0691H
	DD	0f8ed0H
	DD	025231eH
	DD	0b1216H
	DD	0d314aH
	DD	0c8fadH
	DD	0130c0bH
	DD	0d0c4eH
	DD	0c4654H
	DD	0192428H
	DD	02c6e90H
	DD	0d718dH
	DD	04d49fdH
	DD	027d1edH
	DD	0a19b9bH
	DD	0302e31H
	DD	013c8d7H
	DD	014120bH
	DD	02c3337H
	DD	0b546bH
	DD	0bcbcc1H
	DD	0e0770H
	DD	0484c52H
	DD	029b3cfH
	DD	02710d0H
	DD	04c5255H
	DD	046413cH
	DD	056504eH
	DD	0e70b0H
	DD	027198cH
	DD	0817e80H
	DD	067605dH
	DD	079716dH
	DD	0374a55H
	DD	0f6876H
	DD	0524e50H
	DD	0625e63H
	DD	02b90b1H
	DD	012a9b9H
	DD	0211e23H
	DD	0251a73H
	DD	0413e40H
	DD	0306974H
	DD	0716e70H
	DD	02616acH
	DD	086ffbH
	DD	082835H
	DD	0172735H
	DD	0282558H
	DD	0535865H
	DD	05c6164H
	DD	0c32adH
	DD	0152cf3H
	DD	07b8487H
	DD	02bc8d7H
	DD	0120e11H
	DD	0282646H
	DD	031288fH
	DD	0b2fd0H
	DD	02a8a96H
	DD	09232cH
	DD	0375468H
	DD	03029aeH
	DD	0b558eH
	DD	0855f5H
	DD	0148895H
	DD	072f4fcH
	DD	0c0bec3H
	DD	0b3670H
	DD	02fa6b2H
	DD	0677175H
	DD	01075d0H
	DD	0153438H
	DD	02d3029H
	DD	02a266cH
	DD	0365154H
	DD	04f7587H
	DD	0707884H
	DD	02e2dd2H
	DD	07592a6H
	DD	06a4c4H
	DD	018b5c5H
	DD	0696a72H
	DD	0535191H
	DD	08b8d3H
	DD	093928cH
	DD	09aa5aaH
	DD	06343cH
	DD	055453dH
	DD	033375aH
	DD	028434aH
	DD	02a4a57H
	DD	0285969H
	DD	08f897bH
	DD	079959cH
	DD	0519ba6H
	DD	05a5d7H
	DD	024b6f5H
	DD	08a8c95H
	DD	0879398H
	DD	0c1bab5H
	DD	0bbc5c7H
	DD	01b201cH
	DD	0294c66H
	DD	03b4779H
	DD	0456778H
	DD	0351b1H
	DD	02375aeH
	DD	0473af7H
	DD	074ad6H
	DD	02770f3H
	DD	0589398H
	DD	0768b91H
	DD	0279bcfH
	DD	014a6c6H
	DD	02695f8H
	DD	051cad7H
	DD	05ad5fdH
	DD	06af4fcH
	DD	0889da3H
	DD	0b1abacH
	DD	0d6ebeeH
	DD	0241c50H
	DD	0312a48H
	DD	02c3b59H
	DD	0285977H
	DD	0546975H
	DD	0857a6dH
	DD	0e2d91H
	DD	0285891H
	DD	0556caaH
	DD	056858cH
	DD	06a8793H
	DD	065929bH
	DD	056acbbH
	DD	071a9b2H
	DD	059cafeH
	DD	095c4d1H
	DD	0d0cfd3H
	DD	02b3943H
	DD	0342a5aH
	DD	03a5972H
	DD	04e504fH
	DD	0466369H
	DD	05e767bH
	DD	0244bffH
	DD	04c6ecaH
	DD	064858bH
	DD	013bdd2H
	DD	046d7e8H
	DD	05cf2feH
	DD	0a69987H
	DD	088a4a8H
	DD	0dcd2bfH
	DD	0cdcbd1H
	DD	0eae6d9H
	DD	0e100fH
	DD	03d403fH
	DD	02f5659H
	DD	03b426eH
	DD	0244877H
	DD	04b737dH
	DD	06d706dH
	DD	094736cH
	DD	04037b2H
	DD	04741bbH
	DD	07a47b8H
	DD	07678aaH
	DD	04020daH
	DD	02548c2H
	DD	04c4fceH
	DD	07475cbH
	DD	0625effH
	DD	05964ffH
	DD	06c64ffH
	DD	06776f6H
	DD	0825c83H
	DD	048939dH
	DD	05ba6afH
	DD	048a2baH
	DD	044b0bdH
	DD	011abdaH
	DD	05988c9H
	DD	05aaaceH
	DD	059b3c9H
	DD	05aa3d0H
	DD	045bdd5H
	DD	066b8c5H
	DD	05abef2H
	DD	071b1feH
	DD	06ec4caH
	DD	069c3d5H
	DD	070c6d2H
	DD	058e8f3H
	DD	067eefeH
	DD	0b29c83H
	DD	0aaa79cH
	DD	08b8da7H
	DD	08989b7H
	DD	08994b0H
	DD	088acb0H
	DD	090aab5H
	DD	09db3bbH
	DD	0afb2b1H
	DD	0eeb59eH
	DD	0ebc9a2H
	DD	0adc2caH
	DD	0d7c8c7H
	DD	0ced0ccH
	DD	0d1e1dfH
	DD	0dedee1H
	DD	0e1dfe3H
_PalRaceSetup DD 0100H
	DB	00H
	ORG $+3
	DD	FLAT:_ColorsRaceSetup
_bmRaceSetup DW	0b2H
	DW	073H
	DW	0b2H
	DW	08H
	DD	FLAT:_acRaceSetup
	DD	FLAT:_PalRaceSetup
	ORG $+4
_acRaceSetup DB	00H
	DB	00H
	DB	00H
	DB	00H
	DB	00H
	DB	00H
	DB	00H
	DB	00H
	DB	00H
	DB	00H
	DB	00H
	DB	00H
	DB	00H
	DB	00H
	DB	00H
	DB	00H
	DB	00H
	DB	00H
	DB	00H
	DB	00H
	DB	00H
	DB	00H
	DB	00H
	DB	00H
	DB	00H
	DB	00H
	DB	00H
	DB	00H
	DB	00H
	DB	00H
	DB	00H
	DB	00H
	DB	00H
	DB	00H
	DB	00H
	DB	00H
	DB	00H
	DB	00H
	DB	00H
	DB	00H
	DB	00H
	DB	00H
	DB	00H
	DB	00H
	DB	00H
	DB	00H
	DB	00H
	DB	00H
	DB	00H
	DB	00H
	DB	00H
	DB	00H
	DB	00H
	DB	00H
	DB	00H
	DB	00H
	DB	00H
	DB	00H
	DB	00H
	DB	00H
	DB	00H
	DB	00H
	DB	00H
	DB	00H
	DB	00H
	DB	00H
	DB	00H
	DB	00H
	DB	00H
	DB	00H
	DB	00H
	DB	00H
	DB	00H
	DB	00H
	DB	00H
	DB	00H
	DB	00H
	DB	00H
	DB	00H
	DB	00H
	DB	00H
	DB	00H
	DB	00H
	DB	00H
	DB	00H
	DB	00H
	DB	00H
	DB	00H
	DB	00H
	DB	00H
	DB	00H
	DB	00H
	DB	00H
	DB	00H
	DB	00H
	DB	00H
	DB	00H
	DB	00H
	DB	00H
	DB	00H
	DB	00H
	DB	00H
	DB	00H
	DB	00H
	DB	00H
	DB	00H
	DB	00H
	DB	00H
	DB	00H
	DB	00H
	DB	00H
	DB	00H
	DB	00H
	DB	00H
	DB	00H
	DB	00H
	DB	00H
	DB	00H
	DB	00H
	DB	00H
	DB	00H
	DB	00H
	DB	00H
	DB	00H
	DB	00H
	DB	00H
	DB	00H
	DB	00H
	DB	00H
	DB	00H
	DB	00H
	DB	00H
	DB	00H
	DB	00H
	DB	00H
	DB	00H
	DB	00H
	DB	00H
	DB	00H
	DB	00H
	DB	00H
	DB	00H
	DB	00H
	DB	00H
	DB	00H
	DB	00H
	DB	00H
	DB	00H
	DB	00H
	DB	00H
	DB	00H
	DB	00H
	DB	00H
	DB	00H
	DB	00H
	DB	00H
	DB	00H
	DB	00H
	DB	00H
	DB	00H
	DB	00H
	DB	00H
	DB	00H
	DB	00H
	DB	00H
	DB	00H
	DB	00H
	DB	00H
	DB	00H
	DB	00H
	DB	00H
	DB	00H
	DB	00H
	DB	00H
	DB	00H
	DB	00H
	DB	00H
	DB	00H
	DB	00H
	DB	00H
	DB	00H
	DB	00H
	DB	00H
	DB	00H
	DB	00H
	DB	00H
	DB	00H
	DB	00H
	DB	00H
	DB	00H
	DB	00H
	DB	00H
	DB	00H
	DB	00H
	DB	00H
	DB	00H
	DB	00H
	DB	00H
	DB	00H
	DB	00H
	DB	00H
	DB	00H
	DB	00H
	DB	00H
	DB	00H
	DB	00H
	DB	00H
	DB	00H
	DB	00H
	DB	00H
	DB	00H
	DB	00H
	DB	00H
	DB	00H
	DB	00H
	DB	00H
	DB	00H
	DB	00H
	DB	00H
	DB	00H
	DB	00H
	DB	00H
	DB	00H
	DB	00H
	DB	00H
	DB	00H
	DB	00H
	DB	00H
	DB	00H
	DB	00H
	DB	00H
	DB	00H
	DB	00H
	DB	00H
	DB	00H
	DB	00H
	DB	00H
	DB	00H
	DB	00H
	DB	00H
	DB	00H
	DB	00H
	DB	00H
	DB	00H
	DB	00H
	DB	00H
	DB	00H
	DB	00H
	DB	00H
	DB	00H
	DB	00H
	DB	00H
	DB	00H
	DB	00H
	DB	00H
	DB	00H
	DB	00H
	DB	00H
	DB	00H
	DB	00H
	DB	00H
	DB	00H
	DB	00H
	DB	00H
	DB	00H
	DB	00H
	DB	00H
	DB	00H
	DB	00H
	DB	00H
	DB	00H
	DB	00H
	DB	00H
	DB	00H
	DB	00H
	DB	00H
	DB	00H
	DB	00H
	DB	00H
	DB	00H
	DB	00H
	DB	00H
	DB	00H
	DB	00H
	DB	00H
	DB	00H
	DB	00H
	DB	00H
	DB	00H
	DB	00H
	DB	00H
	DB	00H
	DB	00H
	DB	00H
	DB	00H
	DB	00H
	DB	00H
	DB	00H
	DB	00H
	DB	00H
	DB	00H
	DB	00H
	DB	00H
	DB	00H
	DB	00H
	DB	00H
	DB	00H
	DB	00H
	DB	00H
	DB	00H
	DB	00H
	DB	00H
	DB	00H
	DB	00H
	DB	00H
	DB	00H
	DB	00H
	DB	00H
	DB	00H
	DB	00H
	DB	00H
	DB	00H
	DB	00H
	DB	00H
	DB	00H
	DB	00H
	DB	00H
	DB	00H
	DB	00H
	DB	00H
	DB	00H
	DB	00H
	DB	00H
	DB	00H
	DB	00H
	DB	00H
	DB	00H
	DB	00H
	DB	00H
	DB	00H
	DB	00H
	DB	00H
	DB	00H
	DB	00H
	DB	00H
	DB	00H
	DB	00H
	DB	00H
	DB	00H
	DB	00H
	DB	00H
	DB	00H
	DB	00H
	DB	00H
	DB	00H
	DB	00H
	DB	00H
	DB	00H
	DB	00H
	DB	00H
	DB	00H
	DB	00H
	DB	00H
	DB	00H
	DB	00H
	DB	00H
	DB	00H
	DB	00H
	DB	00H
	DB	00H
	DB	00H
	DB	00H
	DB	00H
	DB	00H
	DB	00H
	DB	00H
	DB	00H
	DB	00H
	DB	00H
	DB	00H
	DB	00H
	DB	00H
	DB	00H
	DB	00H
	DB	00H
	DB	00H
	DB	063H
	DB	02eH
	DB	03bH
	DB	02H
	DB	0c8H
	DB	0c8H
	DB	0c8H
	DB	01eH
	DB	00H
	DB	00H
	DB	00H
	DB	00H
	DB	00H
	DB	00H
	DB	00H
	DB	00H
	DB	00H
	DB	00H
	DB	00H
	DB	00H
	DB	00H
	DB	00H
	DB	00H
	DB	00H
	DB	00H
	DB	00H
	DB	00H
	DB	00H
	DB	00H
	DB	00H
	DB	00H
	DB	00H
	DB	00H
	DB	00H
	DB	00H
	DB	00H
	DB	00H
	DB	00H
	DB	00H
	DB	00H
	DB	00H
	DB	00H
	DB	00H
	DB	00H
	DB	00H
	DB	00H
	DB	00H
	DB	00H
	DB	00H
	DB	00H
	DB	00H
	DB	00H
	DB	00H
	DB	00H
	DB	00H
	DB	00H
	DB	00H
	DB	00H
	DB	00H
	DB	00H
	DB	00H
	DB	00H
	DB	00H
	DB	00H
	DB	00H
	DB	00H
	DB	00H
	DB	00H
	DB	00H
	DB	00H
	DB	00H
	DB	00H
	DB	00H
	DB	00H
	DB	00H
	DB	00H
	DB	00H
	DB	00H
	DB	00H
	DB	00H
	DB	00H
	DB	00H
	DB	00H
	DB	00H
	DB	00H
	DB	00H
	DB	00H
	DB	00H
	DB	00H
	DB	00H
	DB	00H
	DB	00H
	DB	00H
	DB	00H
	DB	00H
	DB	00H
	DB	00H
	DB	00H
	DB	00H
	DB	00H
	DB	00H
	DB	00H
	DB	00H
	DB	00H
	DB	00H
	DB	00H
	DB	00H
	DB	00H
	DB	00H
	DB	00H
	DB	00H
	DB	00H
	DB	00H
	DB	00H
	DB	00H
	DB	00H
	DB	00H
	DB	00H
	DB	00H
	DB	00H
	DB	00H
	DB	00H
	DB	00H
	DB	00H
	DB	00H
	DB	00H
	DB	00H
	DB	00H
	DB	00H
	DB	00H
	DB	00H
	DB	00H
	DB	00H
	DB	00H
	DB	00H
	DB	00H
	DB	00H
	DB	00H
	DB	00H
	DB	00H
	DB	00H
	DB	00H
	DB	00H
	DB	00H
	DB	00H
	DB	00H
	DB	00H
	DB	00H
	DB	00H
	DB	00H
	DB	00H
	DB	00H
	DB	00H
	DB	00H
	DB	00H
	DB	00H
	DB	00H
	DB	00H
	DB	00H
	DB	00H
	DB	00H
	DB	00H
	DB	00H
	DB	00H
	DB	00H
	DB	00H
	DB	00H
	DB	00H
	DB	00H
	DB	00H
	DB	00H
	DB	00H
	DB	00H
	DB	00H
	DB	00H
	DB	00H
	DB	063H
	DB	017H
	DB	0aH
	DB	0aH
	DB	0fH
	DB	0aH
	DB	01dH
	DB	046H
	DB	055H
	DB	01dH
	DB	01H
	DB	015H
	DB	047H
	DB	047H
	DB	06H
	DB	02H
	DB	032H
	DB	063H
	DB	0c8H
	DB	032H
	DB	032H
	DB	00H
	DB	00H
	DB	00H
	DB	00H
	DB	00H
	DB	00H
	DB	00H
	DB	00H
	DB	00H
	DB	00H
	DB	00H
	DB	00H
	DB	00H
	DB	00H
	DB	00H
	DB	00H
	DB	00H
	DB	00H
	DB	00H
	DB	00H
	DB	00H
	DB	00H
	DB	00H
	DB	00H
	DB	00H
	DB	00H
	DB	00H
	DB	00H
	DB	00H
	DB	00H
	DB	00H
	DB	00H
	DB	00H
	DB	00H
	DB	00H
	DB	00H
	DB	00H
	DB	00H
	DB	00H
	DB	00H
	DB	00H
	DB	00H
	DB	00H
	DB	00H
	DB	00H
	DB	00H
	DB	00H
	DB	00H
	DB	00H
	DB	00H
	DB	00H
	DB	00H
	DB	00H
	DB	00H
	DB	00H
	DB	00H
	DB	00H
	DB	00H
	DB	00H
	DB	00H
	DB	00H
	DB	00H
	DB	00H
	DB	00H
	DB	00H
	DB	00H
	DB	00H
	DB	00H
	DB	00H
	DB	00H
	DB	00H
	DB	00H
	DB	00H
	DB	00H
	DB	00H
	DB	00H
	DB	00H
	DB	00H
	DB	00H
	DB	00H
	DB	00H
	DB	00H
	DB	00H
	DB	00H
	DB	00H
	DB	00H
	DB	00H
	DB	00H
	DB	00H
	DB	00H
	DB	00H
	DB	00H
	DB	00H
	DB	00H
	DB	00H
	DB	00H
	DB	00H
	DB	00H
	DB	00H
	DB	00H
	DB	00H
	DB	00H
	DB	00H
	DB	00H
	DB	00H
	DB	00H
	DB	00H
	DB	00H
	DB	00H
	DB	00H
	DB	00H
	DB	00H
	DB	00H
	DB	00H
	DB	00H
	DB	00H
	DB	00H
	DB	00H
	DB	00H
	DB	00H
	DB	00H
	DB	00H
	DB	00H
	DB	00H
	DB	00H
	DB	00H
	DB	00H
	DB	00H
	DB	00H
	DB	00H
	DB	00H
	DB	00H
	DB	00H
	DB	00H
	DB	00H
	DB	00H
	DB	00H
	DB	00H
	DB	00H
	DB	00H
	DB	00H
	DB	00H
	DB	00H
	DB	00H
	DB	00H
	DB	00H
	DB	00H
	DB	00H
	DB	00H
	DB	00H
	DB	00H
	DB	00H
	DB	00H
	DB	00H
	DB	00H
	DB	00H
	DB	00H
	DB	06H
	DB	04aH
	DB	04aH
	DB	0dH
	DB	026H
	DB	01aH
	DB	05H
	DB	018H
	DB	018H
	DB	018H
	DB	018H
	DB	047H
	DB	02bH
	DB	03aH
	DB	03aH
	DB	0aH
	DB	07H
	DB	02eH
	DB	02eH
	DB	02eH
	DB	027H
	DB	027H
	DB	02H
	DB	0c8H
	DB	00H
	DB	00H
	DB	00H
	DB	00H
	DB	00H
	DB	00H
	DB	00H
	DB	00H
	DB	00H
	DB	00H
	DB	00H
	DB	00H
	DB	00H
	DB	00H
	DB	00H
	DB	00H
	DB	00H
	DB	00H
	DB	00H
	DB	00H
	DB	00H
	DB	00H
	DB	00H
	DB	00H
	DB	00H
	DB	00H
	DB	00H
	DB	00H
	DB	00H
	DB	00H
	DB	00H
	DB	00H
	DB	00H
	DB	00H
	DB	00H
	DB	00H
	DB	00H
	DB	00H
	DB	00H
	DB	00H
	DB	00H
	DB	00H
	DB	00H
	DB	00H
	DB	00H
	DB	00H
	DB	00H
	DB	00H
	DB	00H
	DB	00H
	DB	00H
	DB	00H
	DB	00H
	DB	00H
	DB	00H
	DB	00H
	DB	00H
	DB	00H
	DB	00H
	DB	00H
	DB	00H
	DB	00H
	DB	00H
	DB	00H
	DB	00H
	DB	00H
	DB	00H
	DB	00H
	DB	00H
	DB	00H
	DB	00H
	DB	00H
	DB	00H
	DB	00H
	DB	00H
	DB	00H
	DB	00H
	DB	00H
	DB	00H
	DB	00H
	DB	00H
	DB	00H
	DB	00H
	DB	00H
	DB	00H
	DB	00H
	DB	00H
	DB	00H
	DB	00H
	DB	00H
	DB	00H
	DB	00H
	DB	00H
	DB	00H
	DB	00H
	DB	00H
	DB	00H
	DB	00H
	DB	00H
	DB	00H
	DB	00H
	DB	00H
	DB	00H
	DB	00H
	DB	00H
	DB	00H
	DB	00H
	DB	00H
	DB	00H
	DB	00H
	DB	00H
	DB	00H
	DB	00H
	DB	00H
	DB	00H
	DB	00H
	DB	00H
	DB	00H
	DB	00H
	DB	00H
	DB	00H
	DB	00H
	DB	00H
	DB	00H
	DB	00H
	DB	00H
	DB	00H
	DB	00H
	DB	00H
	DB	00H
	DB	00H
	DB	00H
	DB	00H
	DB	00H
	DB	00H
	DB	00H
	DB	00H
	DB	00H
	DB	00H
	DB	00H
	DB	00H
	DB	00H
	DB	00H
	DB	00H
	DB	00H
	DB	00H
	DB	00H
	DB	0c8H
	DB	02H
	DB	0c8H
	DB	0c8H
	DB	0c8H
	DB	01eH
	DB	00H
	DB	01bH
	DB	04aH
	DB	028H
	DB	028H
	DB	0aH
	DB	0a4H
	DB	018H
	DB	01dH
	DB	01dH
	DB	01dH
	DB	01H
	DB	020H
	DB	0aH
	DB	028H
	DB	04aH
	DB	08H
	DB	0bH
	DB	047H
	DB	05H
	DB	05H
	DB	046H
	DB	046H
	DB	046H
	DB	01dH
	DB	0c8H
	DB	00H
	DB	00H
	DB	00H
	DB	00H
	DB	00H
	DB	00H
	DB	00H
	DB	00H
	DB	00H
	DB	00H
	DB	00H
	DB	00H
	DB	00H
	DB	00H
	DB	00H
	DB	00H
	DB	00H
	DB	00H
	DB	00H
	DB	00H
	DB	00H
	DB	00H
	DB	00H
	DB	00H
	DB	00H
	DB	00H
	DB	00H
	DB	00H
	DB	00H
	DB	00H
	DB	00H
	DB	00H
	DB	00H
	DB	00H
	DB	00H
	DB	00H
	DB	00H
	DB	00H
	DB	00H
	DB	00H
	DB	00H
	DB	00H
	DB	00H
	DB	00H
	DB	00H
	DB	00H
	DB	00H
	DB	00H
	DB	00H
	DB	00H
	DB	00H
	DB	00H
	DB	00H
	DB	00H
	DB	00H
	DB	00H
	DB	00H
	DB	00H
	DB	00H
	DB	00H
	DB	00H
	DB	00H
	DB	00H
	DB	00H
	DB	00H
	DB	00H
	DB	00H
	DB	00H
	DB	00H
	DB	00H
	DB	00H
	DB	00H
	DB	00H
	DB	00H
	DB	00H
	DB	00H
	DB	00H
	DB	00H
	DB	00H
	DB	00H
	DB	00H
	DB	00H
	DB	00H
	DB	00H
	DB	00H
	DB	00H
	DB	00H
	DB	00H
	DB	00H
	DB	00H
	DB	00H
	DB	00H
	DB	00H
	DB	00H
	DB	00H
	DB	00H
	DB	00H
	DB	00H
	DB	00H
	DB	00H
	DB	00H
	DB	00H
	DB	00H
	DB	00H
	DB	00H
	DB	00H
	DB	00H
	DB	00H
	DB	00H
	DB	00H
	DB	00H
	DB	00H
	DB	00H
	DB	00H
	DB	00H
	DB	00H
	DB	00H
	DB	00H
	DB	00H
	DB	00H
	DB	00H
	DB	00H
	DB	00H
	DB	00H
	DB	00H
	DB	00H
	DB	00H
	DB	00H
	DB	00H
	DB	00H
	DB	00H
	DB	00H
	DB	00H
	DB	00H
	DB	00H
	DB	00H
	DB	00H
	DB	00H
	DB	00H
	DB	00H
	DB	00H
	DB	00H
	DB	00H
	DB	00H
	DB	00H
	DB	027H
	DB	0dH
	DB	03aH
	DB	015H
	DB	01bH
	DB	01bH
	DB	06H
	DB	06H
	DB	07H
	DB	0aH
	DB	04aH
	DB	04aH
	DB	04aH
	DB	08H
	DB	0aH
	DB	0dH
	DB	017H
	DB	0cH
	DB	04bH
	DB	0aH
	DB	0aH
	DB	04aH
	DB	04aH
	DB	026H
	DB	03H
	DB	018H
	DB	05H
	DB	05H
	DB	05H
	DB	05H
	DB	05H
	DB	055H
	DB	0c8H
	DB	00H
	DB	00H
	DB	00H
	DB	00H
	DB	00H
	DB	00H
	DB	00H
	DB	00H
	DB	00H
	DB	00H
	DB	00H
	DB	00H
	DB	00H
	DB	00H
	DB	00H
	DB	00H
	DB	00H
	DB	00H
	DB	00H
	DB	00H
	DB	00H
	DB	00H
	DB	00H
	DB	00H
	DB	00H
	DB	00H
	DB	00H
	DB	00H
	DB	00H
	DB	00H
	DB	00H
	DB	00H
	DB	00H
	DB	00H
	DB	00H
	DB	00H
	DB	00H
	DB	00H
	DB	00H
	DB	00H
	DB	00H
	DB	00H
	DB	00H
	DB	00H
	DB	00H
	DB	00H
	DB	00H
	DB	00H
	DB	00H
	DB	00H
	DB	00H
	DB	00H
	DB	00H
	DB	00H
	DB	00H
	DB	00H
	DB	00H
	DB	00H
	DB	00H
	DB	00H
	DB	00H
	DB	00H
	DB	00H
	DB	00H
	DB	00H
	DB	00H
	DB	00H
	DB	00H
	DB	00H
	DB	00H
	DB	00H
	DB	00H
	DB	00H
	DB	00H
	DB	00H
	DB	00H
	DB	00H
	DB	00H
	DB	00H
	DB	00H
	DB	00H
	DB	00H
	DB	00H
	DB	00H
	DB	00H
	DB	00H
	DB	00H
	DB	00H
	DB	00H
	DB	00H
	DB	00H
	DB	00H
	DB	00H
	DB	00H
	DB	00H
	DB	00H
	DB	00H
	DB	00H
	DB	00H
	DB	00H
	DB	00H
	DB	00H
	DB	00H
	DB	00H
	DB	00H
	DB	00H
	DB	00H
	DB	00H
	DB	00H
	DB	00H
	DB	00H
	DB	00H
	DB	00H
	DB	00H
	DB	00H
	DB	00H
	DB	00H
	DB	00H
	DB	00H
	DB	00H
	DB	00H
	DB	00H
	DB	00H
	DB	00H
	DB	00H
	DB	00H
	DB	00H
	DB	00H
	DB	00H
	DB	00H
	DB	00H
	DB	00H
	DB	00H
	DB	00H
	DB	00H
	DB	053H
	DB	01H
	DB	01H
	DB	01H
	DB	01H
	DB	01H
	DB	01H
	DB	01H
	DB	01H
	DB	018H
	DB	028H
	DB	04aH
	DB	0bH
	DB	057H
	DB	02eH
	DB	01dH
	DB	07H
	DB	0dH
	DB	0aH
	DB	04aH
	DB	04aH
	DB	04aH
	DB	04aH
	DB	04aH
	DB	0aH
	DB	0aH
	DB	02bH
	DB	026H
	DB	026H
	DB	02bH
	DB	0aH
	DB	0aH
	DB	04aH
	DB	08H
	DB	0a4H
	DB	05H
	DB	05H
	DB	05H
	DB	05H
	DB	05H
	DB	05H
	DB	01dH
	DB	01H
	DB	01H
	DB	01cH
	DB	01fH
	DB	077H
	DB	087H
	DB	087H
	DB	04dH
	DB	04dH
	DB	01fH
	DB	04dH
	DB	04dH
	DB	04dH
	DB	04dH
	DB	04dH
	DB	077H
	DB	077H
	DB	04dH
	DB	01cH
	DB	05H
	DB	01dH
	DB	01H
	DB	01H
	DB	01H
	DB	01H
	DB	01H
	DB	01H
	DB	01H
	DB	01H
	DB	01cH
	DB	01cH
	DB	01H
	DB	03bH
	DB	01H
	DB	05H
	DB	05H
	DB	01H
	DB	01H
	DB	01H
	DB	01H
	DB	01H
	DB	01H
	DB	01H
	DB	03bH
	DB	01cH
	DB	077H
	DB	077H
	DB	077H
	DB	077H
	DB	077H
	DB	077H
	DB	077H
	DB	077H
	DB	077H
	DB	077H
	DB	077H
	DB	077H
	DB	077H
	DB	077H
	DB	04dH
	DB	077H
	DB	04dH
	DB	085H
	DB	0b7H
	DB	0b7H
	DB	01H
	DB	01H
	DB	01H
	DB	01H
	DB	01H
	DB	01H
	DB	0c9H
	DB	0c9H
	DB	0c9H
	DB	0c9H
	DB	01dH
	DB	0c9H
	DB	0c9H
	DB	0c9H
	DB	01dH
	DB	0c9H
	DB	0c9H
	DB	01dH
	DB	0c9H
	DB	0c9H
	DB	0c9H
	DB	0c9H
	DB	0c9H
	DB	0c9H
	DB	0c9H
	DB	0c9H
	DB	0c9H
	DB	0c9H
	DB	0c9H
	DB	01H
	DB	01dH
	DB	0c9H
	DB	01H
	DB	01H
	DB	0c9H
	DB	0c9H
	DB	0c9H
	DB	01dH
	DB	0c9H
	DB	0c9H
	DB	01H
	DB	01H
	DB	0c9H
	DB	01dH
	DB	01H
	DB	01H
	DB	0c9H
	DB	0c9H
	DB	0c9H
	DB	0c9H
	DB	0c9H
	DB	055H
	DB	03bH
	DB	01eH
	DB	00H
	DB	00H
	DB	00H
	DB	00H
	DB	00H
	DB	00H
	DB	00H
	DB	00H
	DB	00H
	DB	00H
	DB	00H
	DB	00H
	DB	00H
	DB	00H
	DB	00H
	DB	0c8H
	DB	0dH
	DB	08H
	DB	0aH
	DB	061H
	DB	061H
	DB	061H
	DB	061H
	DB	061H
	DB	061H
	DB	04aH
	DB	0aH
	DB	04aH
	DB	0dH
	DB	02bH
	DB	03H
	DB	057H
	DB	04aH
	DB	0aH
	DB	0aH
	DB	04aH
	DB	04aH
	DB	0aH
	DB	0aH
	DB	0aH
	DB	0aH
	DB	0aH
	DB	0aH
	DB	0aH
	DB	0aH
	DB	0aH
	DB	0aH
	DB	0aH
	DB	0aH
	DB	0aH
	DB	02bH
	DB	03H
	DB	07H
	DB	015H
	DB	01H
	DB	01H
	DB	01dH
	DB	015H
	DB	05H
	DB	0dH
	DB	072H
	DB	0b1H
	DB	0b2H
	DB	0e4H
	DB	0e3H
	DB	0e5H
	DB	0e8H
	DB	0b4H
	DB	0b4H
	DB	0b4H
	DB	0a1H
	DB	0a1H
	DB	0a1H
	DB	0a1H
	DB	0c2H
	DB	0edH
	DB	0b2H
	DB	0f6H
	DB	0fbH
	DB	028H
	DB	05eH
	DB	0dH
	DB	0aH
	DB	0aH
	DB	0aH
	DB	061H
	DB	061H
	DB	061H
	DB	061H
	DB	0f1H
	DB	0f1H
	DB	07eH
	DB	0cH
	DB	0aH
	DB	091H
	DB	040H
	DB	04aH
	DB	057H
	DB	0dH
	DB	0dH
	DB	057H
	DB	0cH
	DB	050H
	DB	072H
	DB	0eaH
	DB	06eH
	DB	06eH
	DB	0a2H
	DB	0a2H
	DB	06eH
	DB	06eH
	DB	06eH
	DB	06eH
	DB	06eH
	DB	06eH
	DB	06eH
	DB	06eH
	DB	06eH
	DB	0eeH
	DB	0c2H
	DB	0a2H
	DB	0e9H
	DB	0dbH
	DB	0e2H
	DB	09bH
	DB	072H
	DB	04cH
	DB	04aH
	DB	02bH
	DB	026H
	DB	08H
	DB	08H
	DB	02aH
	DB	08H
	DB	026H
	DB	026H
	DB	026H
	DB	026H
	DB	026H
	DB	026H
	DB	026H
	DB	026H
	DB	08H
	DB	026H
	DB	08H
	DB	08H
	DB	08H
	DB	08H
	DB	026H
	DB	026H
	DB	026H
	DB	026H
	DB	026H
	DB	02bH
	DB	026H
	DB	08H
	DB	026H
	DB	02bH
	DB	026H
	DB	026H
	DB	02bH
	DB	02bH
	DB	02bH
	DB	02bH
	DB	026H
	DB	026H
	DB	026H
	DB	026H
	DB	026H
	DB	08H
	DB	08H
	DB	08H
	DB	08H
	DB	08H
	DB	03aH
	DB	01aH
	DB	01aH
	DB	0aH
	DB	02eH
	DB	00H
	DB	00H
	DB	00H
	DB	00H
	DB	00H
	DB	00H
	DB	00H
	DB	00H
	DB	00H
	DB	00H
	DB	00H
	DB	00H
	DB	00H
	DB	00H
	DB	07H
	DB	0aH
	DB	045H
	DB	05H
	DB	01fH
	DB	01fH
	DB	01fH
	DB	01fH
	DB	01fH
	DB	01fH
	DB	05H
	DB	0dH
	DB	0aH
	DB	04aH
	DB	04aH
	DB	0aH
	DB	02bH
	DB	0aH
	DB	0aH
	DB	0aH
	DB	0aH
	DB	0aH
	DB	0aH
	DB	0aH
	DB	0aH
	DB	0aH
	DB	02bH
	DB	02bH
	DB	0aH
	DB	02bH
	DB	0aH
	DB	0aH
	DB	02bH
	DB	02bH
	DB	02bH
	DB	0aH
	DB	02bH
	DB	08H
	DB	0dH
	DB	05H
	DB	01bH
	DB	01bH
	DB	015H
	DB	04aH
	DB	03H
	DB	07H
	DB	053H
	DB	021H
	DB	021H
	DB	021H
	DB	021H
	DB	093H
	DB	0e1H
	DB	0eH
	DB	0eH
	DB	011H
	DB	011H
	DB	011H
	DB	011H
	DB	014H
	DB	031H
	DB	034H
	DB	02bH
	DB	0abH
	DB	092H
	DB	02fH
	DB	06H
	DB	01H
	DB	01cH
	DB	01fH
	DB	01fH
	DB	01fH
	DB	01cH
	DB	0c9H
	DB	05H
	DB	05dH
	DB	085H
	DB	02fH
	DB	063H
	DB	042H
	DB	0fH
	DB	089H
	DB	01bH
	DB	03dH
	DB	02H
	DB	027H
	DB	092H
	DB	02H
	DB	063H
	DB	034H
	DB	062H
	DB	010H
	DB	010H
	DB	010H
	DB	010H
	DB	010H
	DB	010H
	DB	010H
	DB	010H
	DB	010H
	DB	010H
	DB	010H
	DB	010H
	DB	010H
	DB	014H
	DB	014H
	DB	010H
	DB	0bdH
	DB	060H
	DB	06bH
	DB	034H
	DB	06H
	DB	01H
	DB	07H
	DB	07H
	DB	07H
	DB	020H
	DB	0cH
	DB	0cH
	DB	020H
	DB	07H
	DB	07H
	DB	020H
	DB	020H
	DB	07H
	DB	07H
	DB	020H
	DB	020H
	DB	020H
	DB	020H
	DB	020H
	DB	07H
	DB	07H
	DB	07H
	DB	020H
	DB	07H
	DB	07H
	DB	020H
	DB	07H
	DB	07H
	DB	020H
	DB	07H
	DB	047H
	DB	047H
	DB	07H
	DB	04fH
	DB	04fH
	DB	07H
	DB	07H
	DB	020H
	DB	020H
	DB	020H
	DB	050H
	DB	0cH
	DB	0cH
	DB	017H
	DB	0cH
	DB	017H
	DB	017H
	DB	017H
	DB	0dH
	DB	017H
	DB	0cH
	DB	04dH
	DB	00H
	DB	00H
	DB	00H
	DB	00H
	DB	00H
	DB	00H
	DB	00H
	DB	00H
	DB	00H
	DB	00H
	DB	00H
	DB	00H
	DB	00H
	DB	00H
	DB	05eH
	DB	045H
	DB	01cH
	DB	01cH
	DB	01cH
	DB	01cH
	DB	01cH
	DB	01cH
	DB	055H
	DB	01cH
	DB	0a9H
	DB	0b0H
	DB	0aH
	DB	0aH
	DB	0aH
	DB	0aH
	DB	0aH
	DB	0aH
	DB	0aH
	DB	0aH
	DB	02bH
	DB	02bH
	DB	026H
	DB	026H
	DB	026H
	DB	02bH
	DB	026H
	DB	08H
	DB	026H
	DB	02bH
	DB	02bH
	DB	02bH
	DB	026H
	DB	02bH
	DB	02bH
	DB	02bH
	DB	02bH
	DB	02bH
	DB	08H
	DB	08H
	DB	04cH
	DB	05H
	DB	04cH
	DB	026H
	DB	02bH
	DB	013H
	DB	017H
	DB	027H
	DB	02eH
	DB	02eH
	DB	02eH
	DB	027H
	DB	0b7H
	DB	07cH
	DB	011H
	DB	011H
	DB	014H
	DB	014H
	DB	014H
	DB	014H
	DB	06dH
	DB	035H
	DB	01dH
	DB	02eH
	DB	0c8H
	DB	092H
	DB	075H
	DB	0c9H
	DB	042H
	DB	0b7H
	DB	0b7H
	DB	03eH
	DB	01H
	DB	01H
	DB	0caH
	DB	051H
	DB	0a9H
	DB	02fH
	DB	00H
	DB	032H
	DB	018H
	DB	028H
	DB	0c9H
	DB	05aH
	DB	03fH
	DB	034H
	DB	05bH
	DB	035H
	DB	063H
	DB	01eH
	DB	04eH
	DB	010H
	DB	010H
	DB	014H
	DB	014H
	DB	010H
	DB	010H
	DB	010H
	DB	010H
	DB	010H
	DB	010H
	DB	010H
	DB	010H
	DB	010H
	DB	010H
	DB	014H
	DB	014H
	DB	08dH
	DB	060H
	DB	066H
	DB	037H
	DB	074H
	DB	02eH
	DB	01dH
	DB	045H
	DB	04fH
	DB	07H
	DB	07H
	DB	020H
	DB	07H
	DB	0baH
	DB	04fH
	DB	07H
	DB	07H
	DB	07H
	DB	07H
	DB	020H
	DB	020H
	DB	020H
	DB	07H
	DB	047H
	DB	04fH
	DB	047H
	DB	07H
	DB	07H
	DB	047H
	DB	04fH
	DB	020H
	DB	020H
	DB	04fH
	DB	018H
	DB	04fH
	DB	047H
	DB	047H
	DB	04fH
	DB	0baH
	DB	07H
	DB	07H
	DB	020H
	DB	020H
	DB	020H
	DB	020H
	DB	050H
	DB	020H
	DB	0cH
	DB	017H
	DB	0cH
	DB	0cH
	DB	017H
	DB	017H
	DB	0cH
	DB	018H
	DB	04dH
	DB	048H
	DB	068H
	DB	00H
	DB	00H
	DB	00H
	DB	00H
	DB	00H
	DB	00H
	DB	00H
	DB	00H
	DB	00H
	DB	00H
	DB	00H
	DB	00H
	DB	00H
	DB	045H
	DB	042H
	DB	01cH
	DB	01fH
	DB	01fH
	DB	01cH
	DB	01cH
	DB	055H
	DB	069H
	DB	02dH
	DB	0e1H
	DB	08aH
	DB	0aH
	DB	0aH
	DB	0aH
	DB	0aH
	DB	0aH
	DB	0aH
	DB	02bH
	DB	02bH
	DB	028H
	DB	057H
	DB	0cH
	DB	04fH
	DB	055H
	DB	01H
	DB	01dH
	DB	01dH
	DB	05H
	DB	0aaH
	DB	09bH
	DB	09cH
	DB	0aH
	DB	02bH
	DB	02bH
	DB	026H
	DB	026H
	DB	026H
	DB	02bH
	DB	02bH
	DB	08H
	DB	01aH
	DB	03aH
	DB	0aH
	DB	04aH
	DB	0aH
	DB	0bH
	DB	04aH
	DB	01bH
	DB	01bH
	DB	015H
	DB	01bH
	DB	06H
	DB	03eH
	DB	052H
	DB	014H
	DB	014H
	DB	080H
	DB	031H
	DB	037H
	DB	083H
	DB	02H
	DB	063H
	DB	063H
	DB	02eH
	DB	01bH
	DB	015H
	DB	01H
	DB	01fH
	DB	03eH
	DB	075H
	DB	075H
	DB	064H
	DB	064H
	DB	095H
	DB	067H
	DB	074H
	DB	032H
	DB	092H
	DB	034H
	DB	04eH
	DB	031H
	DB	08cH
	DB	08cH
	DB	0eH
	DB	031H
	DB	034H
	DB	092H
	DB	02H
	DB	063H
	DB	02H
	DB	06dH
	DB	010H
	DB	010H
	DB	014H
	DB	010H
	DB	010H
	DB	010H
	DB	010H
	DB	010H
	DB	010H
	DB	010H
	DB	010H
	DB	010H
	DB	010H
	DB	014H
	DB	014H
	DB	014H
	DB	09fH
	DB	060H
	DB	096H
	DB	03fH
	DB	06H
	DB	06H
	DB	055H
	DB	045H
	DB	07H
	DB	07H
	DB	07H
	DB	07H
	DB	07H
	DB	07H
	DB	07H
	DB	07H
	DB	07H
	DB	020H
	DB	07H
	DB	07H
	DB	07H
	DB	07H
	DB	04fH
	DB	047H
	DB	07H
	DB	07H
	DB	020H
	DB	07H
	DB	047H
	DB	020H
	DB	07H
	DB	05H
	DB	018H
	DB	04fH
	DB	07H
	DB	07H
	DB	047H
	DB	07H
	DB	020H
	DB	020H
	DB	07H
	DB	020H
	DB	020H
	DB	0cH
	DB	0cH
	DB	020H
	DB	0cH
	DB	057H
	DB	057H
	DB	057H
	DB	017H
	DB	020H
	DB	042H
	DB	036H
	DB	09eH
	DB	02dH
	DB	068H
	DB	00H
	DB	00H
	DB	00H
	DB	00H
	DB	00H
	DB	00H
	DB	00H
	DB	00H
	DB	00H
	DB	00H
	DB	00H
	DB	00H
	DB	00H
	DB	045H
	DB	042H
	DB	01cH
	DB	01fH
	DB	01cH
	DB	055H
	DB	04dH
	DB	097H
	DB	024H
	DB	08dH
	DB	08aH
	DB	02bH
	DB	02bH
	DB	02bH
	DB	0aH
	DB	02bH
	DB	026H
	DB	04aH
	DB	0cH
	DB	055H
	DB	03bH
	DB	03bH
	DB	06H
	DB	06H
	DB	06H
	DB	06H
	DB	02eH
	DB	053H
	DB	03fH
	DB	080H
	DB	011H
	DB	011H
	DB	071H
	DB	08bH
	DB	09cH
	DB	02bH
	DB	026H
	DB	026H
	DB	026H
	DB	026H
	DB	02bH
	DB	026H
	DB	02bH
	DB	02bH
	DB	02bH
	DB	04aH
	DB	03H
	DB	013H
	DB	05H
	DB	05H
	DB	05H
	DB	05H
	DB	05H
	DB	046H
	DB	088H
	DB	037H
	DB	034H
	DB	05aH
	DB	022H
	DB	02fH
	DB	02H
	DB	092H
	DB	03eH
	DB	05dH
	DB	01fH
	DB	02eH
	DB	02H
	DB	063H
	DB	063H
	DB	053H
	DB	064H
	DB	05bH
	DB	035H
	DB	06H
	DB	01bH
	DB	027H
	DB	02fH
	DB	034H
	DB	031H
	DB	0eH
	DB	0eH
	DB	0eH
	DB	0eH
	DB	0eH
	DB	0eH
	DB	048H
	DB	05bH
	DB	092H
	DB	02H
	DB	063H
	DB	032H
	DB	05bH
	DB	043H
	DB	010H
	DB	010H
	DB	010H
	DB	010H
	DB	010H
	DB	010H
	DB	010H
	DB	010H
	DB	010H
	DB	010H
	DB	010H
	DB	010H
	DB	010H
	DB	014H
	DB	014H
	DB	010H
	DB	09aH
	DB	060H
	DB	06bH
	DB	034H
	DB	06H
	DB	06H
	DB	055H
	DB	0baH
	DB	0baH
	DB	04fH
	DB	07H
	DB	07H
	DB	020H
	DB	07H
	DB	07H
	DB	020H
	DB	020H
	DB	07H
	DB	04fH
	DB	07H
	DB	07H
	DB	04fH
	DB	07H
	DB	047H
	DB	07H
	DB	020H
	DB	07H
	DB	04fH
	DB	07H
	DB	04fH
	DB	018H
	DB	018H
	DB	04fH
	DB	07H
	DB	07H
	DB	07H
	DB	020H
	DB	020H
	DB	020H
	DB	020H
	DB	07H
	DB	020H
	DB	0cH
	DB	0cH
	DB	0cH
	DB	057H
	DB	0dH
	DB	017H
	DB	020H
	DB	018H
	DB	093H
	DB	031H
	DB	0eH
	DB	011H
	DB	02dH
	DB	02fH
	DB	00H
	DB	00H
	DB	00H
	DB	00H
	DB	00H
	DB	00H
	DB	00H
	DB	00H
	DB	00H
	DB	00H
	DB	00H
	DB	00H
	DB	00H
	DB	045H
	DB	042H
	DB	01cH
	DB	01cH
	DB	042H
	DB	08H
	DB	09cH
	DB	069H
	DB	0cdH
	DB	08fH
	DB	081H
	DB	02bH
	DB	02bH
	DB	02bH
	DB	026H
	DB	026H
	DB	020H
	DB	06H
	DB	0c8H
	DB	0c8H
	DB	06H
	DB	03bH
	DB	01bH
	DB	01H
	DB	01H
	DB	01H
	DB	0b7H
	DB	06dH
	DB	011H
	DB	014H
	DB	011H
	DB	011H
	DB	011H
	DB	011H
	DB	0c0H
	DB	0dfH
	DB	08fH
	DB	081H
	DB	026H
	DB	026H
	DB	026H
	DB	026H
	DB	026H
	DB	026H
	DB	026H
	DB	02bH
	DB	0bH
	DB	050H
	DB	01H
	DB	05H
	DB	05H
	DB	05H
	DB	05H
	DB	05H
	DB	035H
	DB	0c8H
	DB	063H
	DB	027H
	DB	03bH
	DB	042H
	DB	05eH
	DB	0bcH
	DB	0f3H
	DB	0b0H
	DB	06H
	DB	0c8H
	DB	0c8H
	DB	02fH
	DB	074H
	DB	077H
	DB	01cH
	DB	06H
	DB	021H
	DB	093H
	DB	04eH
	DB	048H
	DB	08cH
	DB	0eH
	DB	0eH
	DB	0eH
	DB	0eH
	DB	0eH
	DB	0eH
	DB	0eH
	DB	07cH
	DB	083H
	DB	063H
	DB	02H
	DB	02fH
	DB	02H
	DB	02H
	DB	063H
	DB	034H
	DB	062H
	DB	010H
	DB	010H
	DB	010H
	DB	010H
	DB	010H
	DB	010H
	DB	010H
	DB	010H
	DB	010H
	DB	010H
	DB	010H
	DB	010H
	DB	010H
	DB	014H
	DB	014H
	DB	08dH
	DB	0bdH
	DB	066H
	DB	03fH
	DB	074H
	DB	02eH
	DB	01bH
	DB	05H
	DB	04fH
	DB	0baH
	DB	04fH
	DB	07H
	DB	050H
	DB	020H
	DB	020H
	DB	020H
	DB	020H
	DB	07H
	DB	07H
	DB	07H
	DB	07H
	DB	07H
	DB	07H
	DB	018H
	DB	04fH
	DB	07H
	DB	04fH
	DB	04fH
	DB	04fH
	DB	07H
	DB	04fH
	DB	018H
	DB	047H
	DB	07H
	DB	07H
	DB	07H
	DB	07H
	DB	07H
	DB	020H
	DB	050H
	DB	020H
	DB	020H
	DB	0cH
	DB	0ceH
	DB	0dH
	DB	028H
	DB	04cH
	DB	047H
	DB	055H
	DB	036H
	DB	0e1H
	DB	011H
	DB	0eH
	DB	0eH
	DB	073H
	DB	02fH
	DB	00H
	DB	00H
	DB	00H
	DB	00H
	DB	00H
	DB	00H
	DB	00H
	DB	00H
	DB	00H
	DB	00H
	DB	00H
	DB	00H
	DB	00H
	DB	045H
	DB	05H
	DB	01cH
	DB	036H
	DB	0b1H
	DB	01aH
	DB	090H
	DB	0dH
	DB	028H
	DB	026H
	DB	026H
	DB	026H
	DB	026H
	DB	08H
	DB	04aH
	DB	01H
	DB	0c8H
	DB	0c8H
	DB	063H
	DB	063H
	DB	06H
	DB	01bH
	DB	06H
	DB	021H
	DB	086H
	DB	034H
	DB	06dH
	DB	011H
	DB	014H
	DB	011H
	DB	011H
	DB	011H
	DB	011H
	DB	011H
	DB	011H
	DB	0eH
	DB	0e1H
	DB	0b1H
	DB	026H
	DB	08H
	DB	08H
	DB	08H
	DB	026H
	DB	08H
	DB	026H
	DB	02aH
	DB	0bH
	DB	01dH
	DB	046H
	DB	018H
	DB	05H
	DB	05H
	DB	05H
	DB	01H
	DB	02H
	DB	03bH
	DB	042H
	DB	0aaH
	DB	07bH
	DB	0f3H
	DB	079H
	DB	050H
	DB	042H
	DB	075H
	DB	02H
	DB	063H
	DB	02H
	DB	03eH
	DB	077H
	DB	0bbH
	DB	088H
	DB	031H
	DB	08cH
	DB	0eH
	DB	0eH
	DB	0eH
	DB	0eH
	DB	0eH
	DB	0eH
	DB	0eH
	DB	0eH
	DB	0eH
	DB	0eH
	DB	011H
	DB	051H
	DB	01H
	DB	02H
	DB	01eH
	DB	063H
	DB	092H
	DB	092H
	DB	032H
	DB	01eH
	DB	04eH
	DB	010H
	DB	010H
	DB	010H
	DB	010H
	DB	010H
	DB	010H
	DB	010H
	DB	010H
	DB	010H
	DB	010H
	DB	010H
	DB	010H
	DB	010H
	DB	014H
	DB	014H
	DB	014H
	DB	09fH
	DB	060H
	DB	05fH
	DB	034H
	DB	074H
	DB	06H
	DB	01dH
	DB	04fH
	DB	0baH
	DB	07H
	DB	020H
	DB	050H
	DB	050H
	DB	07H
	DB	07H
	DB	07H
	DB	07H
	DB	07H
	DB	07H
	DB	07H
	DB	07H
	DB	07H
	DB	018H
	DB	05H
	DB	0baH
	DB	0baH
	DB	0baH
	DB	0baH
	DB	018H
	DB	04fH
	DB	04fH
	DB	07H
	DB	07H
	DB	07H
	DB	07H
	DB	07H
	DB	07H
	DB	020H
	DB	0cH
	DB	0cH
	DB	0cH
	DB	017H
	DB	057H
	DB	04cH
	DB	017H
	DB	047H
	DB	088H
	DB	031H
	DB	0eH
	DB	011H
	DB	0eH
	DB	0eH
	DB	0eH
	DB	037H
	DB	00H
	DB	00H
	DB	00H
	DB	00H
	DB	00H
	DB	00H
	DB	00H
	DB	00H
	DB	00H
	DB	00H
	DB	00H
	DB	00H
	DB	00H
	DB	00H
	DB	045H
	DB	056H
	DB	09eH
	DB	0e6H
	DB	08H
	DB	02bH
	DB	08H
	DB	01aH
	DB	026H
	DB	026H
	DB	026H
	DB	026H
	DB	026H
	DB	020H
	DB	027H
	DB	0c8H
	DB	02H
	DB	02H
	DB	02H
	DB	02H
	DB	021H
	DB	036H
	DB	052H
	DB	07cH
	DB	080H
	DB	03cH
	DB	011H
	DB	011H
	DB	011H
	DB	0eH
	DB	0eH
	DB	0eH
	DB	011H
	DB	011H
	DB	011H
	DB	0eH
	DB	024H
	DB	024H
	DB	09dH
	DB	08aH
	DB	08H
	DB	08H
	DB	08H
	DB	08H
	DB	08H
	DB	08H
	DB	0fH
	DB	047H
	DB	01dH
	DB	01dH
	DB	01dH
	DB	01H
	DB	01H
	DB	015H
	DB	05eH
	DB	09cH
	DB	0bfH
	DB	078H
	DB	0aaH
	DB	045H
	DB	0b7H
	DB	035H
	DB	092H
	DB	02H
	DB	02H
	DB	063H
	DB	021H
	DB	088H
	DB	031H
	DB	08cH
	DB	0eH
	DB	0eH
	DB	0eH
	DB	0eH
	DB	0eH
	DB	0eH
	DB	0eH
	DB	0eH
	DB	0eH
	DB	0eH
	DB	0eH
	DB	0eH
	DB	011H
	DB	07cH
	DB	0cdH
	DB	0cfH
	DB	01H
	DB	0c8H
	DB	092H
	DB	01H
	DB	021H
	DB	063H
	DB	032H
	DB	02H
	DB	067H
	DB	010H
	DB	010H
	DB	010H
	DB	010H
	DB	010H
	DB	010H
	DB	010H
	DB	010H
	DB	010H
	DB	010H
	DB	010H
	DB	010H
	DB	010H
	DB	014H
	DB	014H
	DB	010H
	DB	09aH
	DB	060H
	DB	096H
	DB	03fH
	DB	021H
	DB	01H
	DB	018H
	DB	07H
	DB	07H
	DB	07H
	DB	07H
	DB	020H
	DB	07H
	DB	07H
	DB	07H
	DB	07H
	DB	07H
	DB	07H
	DB	04fH
	DB	04fH
	DB	04fH
	DB	018H
	DB	018H
	DB	0baH
	DB	0baH
	DB	04fH
	DB	0baH
	DB	018H
	DB	07H
	DB	07H
	DB	07H
	DB	07H
	DB	020H
	DB	050H
	DB	020H
	DB	020H
	DB	050H
	DB	0cH
	DB	017H
	DB	057H
	DB	057H
	DB	04bH
	DB	020H
	DB	042H
	DB	036H
	DB	0e1H
	DB	011H
	DB	0eH
	DB	0eH
	DB	0eH
	DB	0eH
	DB	097H
	DB	03eH
	DB	00H
	DB	00H
	DB	00H
	DB	00H
	DB	00H
	DB	00H
	DB	00H
	DB	00H
	DB	00H
	DB	00H
	DB	00H
	DB	00H
	DB	00H
	DB	00H
	DB	071H
	DB	011H
	DB	011H
	DB	0a3H
	DB	081H
	DB	026H
	DB	026H
	DB	026H
	DB	08H
	DB	026H
	DB	026H
	DB	026H
	DB	013H
	DB	018H
	DB	02H
	DB	06H
	DB	06H
	DB	06H
	DB	06H
	DB	06H
	DB	086H
	DB	011H
	DB	014H
	DB	014H
	DB	014H
	DB	011H
	DB	011H
	DB	0eH
	DB	0eH
	DB	0eH
	DB	0eH
	DB	011H
	DB	011H
	DB	011H
	DB	011H
	DB	0eH
	DB	0eH
	DB	0eH
	DB	011H
	DB	0eH
	DB	08aH
	DB	08H
	DB	08H
	DB	08H
	DB	08H
	DB	026H
	DB	02aH
	DB	0aH
	DB	01H
	DB	015H
	DB	01H
	DB	015H
	DB	01bH
	DB	01bH
	DB	05H
	DB	05eH
	DB	01fH
	DB	06H
	DB	035H
	DB	06H
	DB	03eH
	DB	03bH
	DB	053H
	DB	02H
	DB	034H
	DB	037H
	DB	08cH
	DB	011H
	DB	011H
	DB	0eH
	DB	0eH
	DB	0eH
	DB	0eH
	DB	0eH
	DB	0eH
	DB	0eH
	DB	0eH
	DB	0eH
	DB	0eH
	DB	0eH
	DB	0eH
	DB	011H
	DB	014H
	DB	03fH
	DB	06H
	DB	028H
	DB	0dH
	DB	06H
	DB	03bH
	DB	045H
	DB	045H
	DB	03bH
	DB	02H
	DB	032H
	DB	074H
	DB	043H
	DB	010H
	DB	010H
	DB	010H
	DB	010H
	DB	010H
	DB	010H
	DB	010H
	DB	010H
	DB	010H
	DB	010H
	DB	010H
	DB	010H
	DB	010H
	DB	014H
	DB	014H
	DB	08dH
	DB	059H
	DB	099H
	DB	034H
	DB	06H
	DB	01dH
	DB	07H
	DB	07H
	DB	07H
	DB	0baH
	DB	0baH
	DB	07H
	DB	07H
	DB	07H
	DB	04fH
	DB	07H
	DB	07H
	DB	07H
	DB	0baH
	DB	05H
	DB	05H
	DB	05H
	DB	0baH
	DB	0baH
	DB	0baH
	DB	07H
	DB	07H
	DB	07H
	DB	07H
	DB	07H
	DB	07H
	DB	07H
	DB	020H
	DB	0cH
	DB	0cH
	DB	0cH
	DB	0cH
	DB	0cH
	DB	057H
	DB	017H
	DB	020H
	DB	07H
	DB	036H
	DB	02dH
	DB	0eH
	DB	0eH
	DB	0eH
	DB	0eH
	DB	0eH
	DB	02dH
	DB	093H
	DB	01H
	DB	01bH
	DB	01eH
	DB	00H
	DB	00H
	DB	00H
	DB	00H
	DB	00H
	DB	00H
	DB	00H
	DB	00H
	DB	00H
	DB	00H
	DB	00H
	DB	00H
	DB	00H
	DB	03cH
	DB	011H
	DB	011H
	DB	0b3H
	DB	081H
	DB	08H
	DB	08H
	DB	08H
	DB	08H
	DB	08H
	DB	08H
	DB	02bH
	DB	0bH
	DB	0f7H
	DB	06H
	DB	02eH
	DB	06H
	DB	06H
	DB	06H
	DB	02eH
	DB	02H
	DB	06dH
	DB	011H
	DB	062H
	DB	043H
	DB	0e0H
	DB	0dfH
	DB	051H
	DB	067H
	DB	04eH
	DB	03fH
	DB	034H
	DB	034H
	DB	03fH
	DB	04eH
	DB	06dH
	DB	031H
	DB	080H
	DB	011H
	DB	03cH
	DB	0a3H
	DB	03aH
	DB	02aH
	DB	08H
	DB	08H
	DB	08H
	DB	026H
	DB	03H
	DB	04aH
	DB	01H
	DB	01dH
	DB	01H
	DB	015H
	DB	06H
	DB	06H
	DB	06H
	DB	02H
	DB	02H
	DB	021H
	DB	07H
	DB	055H
	DB	086H
	DB	04eH
	DB	07cH
	DB	011H
	DB	011H
	DB	011H
	DB	0eH
	DB	0eH
	DB	0eH
	DB	0eH
	DB	0eH
	DB	0eH
	DB	0eH
	DB	0eH
	DB	0eH
	DB	0eH
	DB	0eH
	DB	0eH
	DB	08cH
	DB	034H
	DB	04eH
	DB	011H
	DB	034H
	DB	00H
	DB	0c9H
	DB	08fH
	DB	05eH
	DB	055H
	DB	01fH
	DB	045H
	DB	0baH
	DB	03bH
	DB	027H
	DB	02H
	DB	087H
	DB	039H
	DB	010H
	DB	010H
	DB	010H
	DB	010H
	DB	010H
	DB	010H
	DB	010H
	DB	010H
	DB	010H
	DB	010H
	DB	010H
	DB	010H
	DB	010H
	DB	011H
	DB	0eH
	DB	02dH
	DB	070H
	DB	021H
	DB	01dH
	DB	0baH
	DB	07H
	DB	07H
	DB	07H
	DB	018H
	DB	05H
	DB	04fH
	DB	07H
	DB	07H
	DB	0baH
	DB	04fH
	DB	07H
	DB	0baH
	DB	05H
	DB	05H
	DB	05H
	DB	05H
	DB	05H
	DB	018H
	DB	018H
	DB	07H
	DB	07H
	DB	07H
	DB	047H
	DB	07H
	DB	07H
	DB	020H
	DB	050H
	DB	050H
	DB	0ceH
	DB	0dH
	DB	057H
	DB	0cH
	DB	020H
	DB	020H
	DB	095H
	DB	051H
	DB	0e1H
	DB	0eH
	DB	0eH
	DB	0eH
	DB	011H
	DB	0e1H
	DB	036H
	DB	01cH
	DB	01H
	DB	01H
	DB	03bH
	DB	01eH
	DB	00H
	DB	00H
	DB	00H
	DB	00H
	DB	00H
	DB	00H
	DB	00H
	DB	00H
	DB	00H
	DB	00H
	DB	00H
	DB	00H
	DB	00H
	DB	062H
	DB	014H
	DB	014H
	DB	039H
	DB	0a3H
	DB	08H
	DB	08H
	DB	08H
	DB	08H
	DB	08H
	DB	08H
	DB	08H
	DB	026H
	DB	0c6H
	DB	04aH
	DB	027H
	DB	06H
	DB	053H
	DB	02eH
	DB	01H
	DB	047H
	DB	0dH
	DB	08fH
	DB	08eH
	DB	026H
	DB	08H
	DB	03aH
	DB	03aH
	DB	08H
	DB	081H
	DB	028H
	DB	047H
	DB	06H
	DB	032H
	DB	032H
	DB	03dH
	DB	02H
	DB	035H
	DB	034H
	DB	0b1H
	DB	03aH
	DB	08H
	DB	02aH
	DB	02aH
	DB	02aH
	DB	02aH
	DB	02aH
	DB	08H
	DB	0fH
	DB	0dH
	DB	01H
	DB	015H
	DB	01H
	DB	018H
	DB	01bH
	DB	01bH
	DB	06H
	DB	06H
	DB	01bH
	DB	03eH
	DB	04eH
	DB	011H
	DB	011H
	DB	011H
	DB	011H
	DB	011H
	DB	0eH
	DB	0eH
	DB	0eH
	DB	0eH
	DB	0eH
	DB	0eH
	DB	0eH
	DB	0eH
	DB	0eH
	DB	0eH
	DB	0eH
	DB	0eH
	DB	0eH
	DB	034H
	DB	00H
	DB	01eH
	DB	04eH
	DB	034H
	DB	01eH
	DB	027H
	DB	079H
	DB	02aH
	DB	05H
	DB	03eH
	DB	03eH
	DB	045H
	DB	07H
	DB	03bH
	DB	02H
	DB	02H
	DB	056H
	DB	010H
	DB	010H
	DB	010H
	DB	010H
	DB	010H
	DB	010H
	DB	010H
	DB	010H
	DB	010H
	DB	010H
	DB	010H
	DB	010H
	DB	03cH
	DB	02dH
	DB	096H
	DB	030H
	DB	015H
	DB	05H
	DB	0baH
	DB	05H
	DB	05H
	DB	0baH
	DB	04fH
	DB	07H
	DB	0baH
	DB	05H
	DB	05H
	DB	05H
	DB	0baH
	DB	0baH
	DB	018H
	DB	018H
	DB	05H
	DB	05H
	DB	05H
	DB	05H
	DB	0baH
	DB	04fH
	DB	04fH
	DB	07H
	DB	07H
	DB	07H
	DB	07H
	DB	07H
	DB	050H
	DB	0cH
	DB	050H
	DB	0cH
	DB	0ceH
	DB	057H
	DB	020H
	DB	047H
	DB	05dH
	DB	036H
	DB	0e1H
	DB	0eH
	DB	0eH
	DB	0eH
	DB	011H
	DB	0eH
	DB	02dH
	DB	087H
	DB	01H
	DB	01H
	DB	01H
	DB	01H
	DB	06H
	DB	01eH
	DB	00H
	DB	00H
	DB	00H
	DB	00H
	DB	00H
	DB	00H
	DB	00H
	DB	00H
	DB	00H
	DB	00H
	DB	00H
	DB	00H
	DB	00H
	DB	062H
	DB	010H
	DB	014H
	DB	010H
	DB	0c4H
	DB	08H
	DB	08H
	DB	08H
	DB	08H
	DB	08H
	DB	08H
	DB	08H
	DB	026H
	DB	01aH
	DB	0c6H
	DB	05H
	DB	02H
	DB	03bH
	DB	0cH
	DB	026H
	DB	03aH
	DB	08H
	DB	08H
	DB	08H
	DB	08H
	DB	08H
	DB	08H
	DB	03aH
	DB	08H
	DB	02aH
	DB	01aH
	DB	03H
	DB	01aH
	DB	0aH
	DB	046H
	DB	03dH
	DB	02H
	DB	032H
	DB	084H
	DB	03aH
	DB	02aH
	DB	02aH
	DB	01aH
	DB	02aH
	DB	02aH
	DB	02aH
	DB	01aH
	DB	01aH
	DB	02aH
	DB	0fH
	DB	057H
	DB	047H
	DB	02bH
	DB	016H
	DB	0cH
	DB	06H
	DB	01H
	DB	01H
	DB	015H
	DB	01bH
	DB	01fH
	DB	03cH
	DB	011H
	DB	011H
	DB	011H
	DB	0eH
	DB	0eH
	DB	0eH
	DB	0eH
	DB	0eH
	DB	0eH
	DB	0eH
	DB	0eH
	DB	0eH
	DB	0eH
	DB	0eH
	DB	0eH
	DB	0eH
	DB	03fH
	DB	00H
	DB	00H
	DB	0c8H
	DB	030H
	DB	034H
	DB	02fH
	DB	032H
	DB	045H
	DB	040H
	DB	0ceH
	DB	03bH
	DB	021H
	DB	01cH
	DB	05eH
	DB	07H
	DB	021H
	DB	02H
	DB	035H
	DB	051H
	DB	010H
	DB	010H
	DB	010H
	DB	010H
	DB	010H
	DB	010H
	DB	010H
	DB	010H
	DB	010H
	DB	011H
	DB	02dH
	DB	06bH
	DB	070H
	DB	05bH
	DB	01bH
	DB	046H
	DB	0baH
	DB	0baH
	DB	05H
	DB	05H
	DB	0baH
	DB	07H
	DB	07H
	DB	04fH
	DB	05H
	DB	05H
	DB	05H
	DB	05H
	DB	055H
	DB	05H
	DB	05H
	DB	05H
	DB	0baH
	DB	05H
	DB	04fH
	DB	07H
	DB	07H
	DB	07H
	DB	07H
	DB	020H
	DB	050H
	DB	050H
	DB	020H
	DB	050H
	DB	0cH
	DB	0cH
	DB	0cH
	DB	020H
	DB	084H
	DB	018H
	DB	095H
	DB	09dH
	DB	0eH
	DB	0eH
	DB	08dH
	DB	011H
	DB	0eH
	DB	0e1H
	DB	0adH
	DB	01cH
	DB	01H
	DB	01dH
	DB	01dH
	DB	01H
	DB	01H
	DB	03bH
	DB	01eH
	DB	00H
	DB	00H
	DB	00H
	DB	00H
	DB	00H
	DB	00H
	DB	00H
	DB	00H
	DB	00H
	DB	00H
	DB	00H
	DB	00H
	DB	00H
	DB	062H
	DB	010H
	DB	014H
	DB	0a0H
	DB	08H
	DB	08H
	DB	08H
	DB	02aH
	DB	02aH
	DB	08H
	DB	08H
	DB	08H
	DB	02aH
	DB	026H
	DB	06fH
	DB	01aH
	DB	07H
	DB	026H
	DB	01aH
	DB	02aH
	DB	08H
	DB	02aH
	DB	02aH
	DB	02aH
	DB	02aH
	DB	02aH
	DB	02aH
	DB	08H
	DB	02aH
	DB	02aH
	DB	08H
	DB	08H
	DB	08H
	DB	03H
	DB	0fH
	DB	0dH
	DB	06H
	DB	01H
	DB	08H
	DB	01aH
	DB	01aH
	DB	02aH
	DB	02aH
	DB	02aH
	DB	01aH
	DB	02aH
	DB	01aH
	DB	03H
	DB	02aH
	DB	02aH
	DB	0bH
	DB	090H
	DB	01aH
	DB	03H
	DB	040H
	DB	01dH
	DB	015H
	DB	01H
	DB	01H
	DB	01H
	DB	01bH
	DB	056H
	DB	011H
	DB	011H
	DB	0eH
	DB	0eH
	DB	0eH
	DB	0eH
	DB	0eH
	DB	0eH
	DB	0eH
	DB	0eH
	DB	0eH
	DB	0eH
	DB	0eH
	DB	0eH
	DB	0e1H
	DB	088H
	DB	02H
	DB	02H
	DB	03bH
	DB	0baH
	DB	056H
	DB	087H
	DB	035H
	DB	01eH
	DB	06H
	DB	02aH
	DB	0f7H
	DB	055H
	DB	06H
	DB	021H
	DB	01fH
	DB	05eH
	DB	0baH
	DB	06H
	DB	063H
	DB	074H
	DB	07dH
	DB	010H
	DB	010H
	DB	010H
	DB	010H
	DB	010H
	DB	010H
	DB	014H
	DB	0e1H
	DB	048H
	DB	070H
	DB	05bH
	DB	02eH
	DB	03bH
	DB	055H
	DB	05H
	DB	05H
	DB	05H
	DB	05H
	DB	05H
	DB	0baH
	DB	0baH
	DB	0baH
	DB	04fH
	DB	0baH
	DB	05H
	DB	05H
	DB	05H
	DB	055H
	DB	05H
	DB	05H
	DB	05H
	DB	05H
	DB	07H
	DB	020H
	DB	020H
	DB	020H
	DB	020H
	DB	07H
	DB	020H
	DB	020H
	DB	0cH
	DB	0cH
	DB	0cH
	DB	0cH
	DB	020H
	DB	047H
	DB	084H
	DB	095H
	DB	051H
	DB	0eH
	DB	0eH
	DB	011H
	DB	0eH
	DB	0eH
	DB	0eH
	DB	02dH
	DB	0a8H
	DB	01H
	DB	01H
	DB	01H
	DB	01H
	DB	01H
	DB	01dH
	DB	0c9H
	DB	03bH
	DB	01eH
	DB	00H
	DB	00H
	DB	00H
	DB	00H
	DB	00H
	DB	00H
	DB	00H
	DB	00H
	DB	00H
	DB	00H
	DB	00H
	DB	00H
	DB	00H
	DB	062H
	DB	014H
	DB	010H
	DB	0f4H
	DB	03aH
	DB	08H
	DB	02aH
	DB	026H
	DB	08H
	DB	02aH
	DB	08H
	DB	08H
	DB	02aH
	DB	02aH
	DB	08H
	DB	0fH
	DB	03H
	DB	01aH
	DB	02aH
	DB	02aH
	DB	08H
	DB	02aH
	DB	02aH
	DB	02aH
	DB	02aH
	DB	03aH
	DB	02aH
	DB	02aH
	DB	02aH
	DB	02aH
	DB	02aH
	DB	02aH
	DB	01aH
	DB	02aH
	DB	01aH
	DB	013H
	DB	03H
	DB	01aH
	DB	01aH
	DB	02aH
	DB	01aH
	DB	01aH
	DB	01aH
	DB	01aH
	DB	01aH
	DB	01aH
	DB	03H
	DB	03H
	DB	01aH
	DB	01aH
	DB	01aH
	DB	01aH
	DB	08H
	DB	02bH
	DB	06fH
	DB	02bH
	DB	01bH
	DB	01H
	DB	01H
	DB	01H
	DB	015H
	DB	01H
	DB	09eH
	DB	0eH
	DB	0eH
	DB	0eH
	DB	0eH
	DB	0eH
	DB	0eH
	DB	0eH
	DB	0eH
	DB	0eH
	DB	0eH
	DB	0eH
	DB	0eH
	DB	0e1H
	DB	087H
	DB	02eH
	DB	01dH
	DB	0cH
	DB	0aH
	DB	0ceH
	DB	01H
	DB	021H
	DB	0a7H
	DB	021H
	DB	0c8H
	DB	05H
	DB	0c6H
	DB	0aH
	DB	021H
	DB	03bH
	DB	0b7H
	DB	01fH
	DB	050H
	DB	0baH
	DB	02eH
	DB	032H
	DB	034H
	DB	039H
	DB	010H
	DB	010H
	DB	010H
	DB	010H
	DB	011H
	DB	02dH
	DB	06bH
	DB	030H
	DB	06H
	DB	06H
	DB	01H
	DB	055H
	DB	05H
	DB	042H
	DB	05H
	DB	0baH
	DB	0baH
	DB	05H
	DB	05H
	DB	05H
	DB	05H
	DB	0baH
	DB	0baH
	DB	05H
	DB	055H
	DB	05H
	DB	05H
	DB	05H
	DB	05H
	DB	05H
	DB	0baH
	DB	07H
	DB	07H
	DB	07H
	DB	07H
	DB	07H
	DB	020H
	DB	020H
	DB	020H
	DB	0cH
	DB	0cH
	DB	0ceH
	DB	020H
	DB	084H
	DB	045H
	DB	036H
	DB	0e1H
	DB	0eH
	DB	0eH
	DB	011H
	DB	0eH
	DB	0eH
	DB	02dH
	DB	0a9H
	DB	01H
	DB	01H
	DB	01H
	DB	01H
	DB	01H
	DB	01H
	DB	01H
	DB	01H
	DB	0c9H
	DB	03bH
	DB	01eH
	DB	00H
	DB	00H
	DB	00H
	DB	00H
	DB	00H
	DB	00H
	DB	00H
	DB	00H
	DB	00H
	DB	00H
	DB	00H
	DB	00H
	DB	00H
	DB	062H
	DB	014H
	DB	0a0H
	DB	03aH
	DB	03aH
	DB	01aH
	DB	01aH
	DB	055H
	DB	047H
	DB	03H
	DB	02aH
	DB	02aH
	DB	02aH
	DB	02aH
	DB	08H
	DB	08H
	DB	02aH
	DB	02aH
	DB	02aH
	DB	02aH
	DB	02aH
	DB	02aH
	DB	02aH
	DB	02aH
	DB	02aH
	DB	02aH
	DB	01aH
	DB	01aH
	DB	02aH
	DB	02aH
	DB	02aH
	DB	01aH
	DB	03H
	DB	01aH
	DB	01aH
	DB	02aH
	DB	03H
	DB	03H
	DB	02aH
	DB	01aH
	DB	01aH
	DB	01aH
	DB	01aH
	DB	01aH
	DB	03H
	DB	03H
	DB	02aH
	DB	03H
	DB	03H
	DB	03H
	DB	01aH
	DB	08H
	DB	02aH
	DB	08H
	DB	08H
	DB	016H
	DB	020H
	DB	01H
	DB	01dH
	DB	01dH
	DB	01dH
	DB	01dH
	DB	069H
	DB	0eH
	DB	0eH
	DB	0eH
	DB	0eH
	DB	0eH
	DB	0eH
	DB	0eH
	DB	0eH
	DB	0eH
	DB	0eH
	DB	011H
	DB	09eH
	DB	074H
	DB	02eH
	DB	0baH
	DB	04aH
	DB	0aH
	DB	020H
	DB	01bH
	DB	027H
	DB	01bH
	DB	01fH
	DB	085H
	DB	05bH
	DB	02fH
	DB	08H
	DB	0b6H
	DB	07H
	DB	053H
	DB	055H
	DB	042H
	DB	042H
	DB	0cH
	DB	05H
	DB	027H
	DB	02H
	DB	036H
	DB	010H
	DB	010H
	DB	010H
	DB	08cH
	DB	096H
	DB	070H
	DB	030H
	DB	06H
	DB	01bH
	DB	0c9H
	DB	055H
	DB	05H
	DB	05H
	DB	0baH
	DB	0baH
	DB	04fH
	DB	05H
	DB	05H
	DB	05H
	DB	05H
	DB	05H
	DB	05H
	DB	05H
	DB	05H
	DB	05H
	DB	05H
	DB	0baH
	DB	0baH
	DB	05H
	DB	05H
	DB	0baH
	DB	07H
	DB	07H
	DB	04fH
	DB	0baH
	DB	07H
	DB	0cH
	DB	050H
	DB	020H
	DB	050H
	DB	020H
	DB	047H
	DB	047H
	DB	036H
	DB	09dH
	DB	0eH
	DB	0eH
	DB	0eH
	DB	0eH
	DB	0eH
	DB	024H
	DB	097H
	DB	086H
	DB	015H
	DB	01H
	DB	0c9H
	DB	01H
	DB	01H
	DB	01H
	DB	01H
	DB	01H
	DB	01H
	DB	01dH
	DB	01bH
	DB	01eH
	DB	00H
	DB	00H
	DB	00H
	DB	00H
	DB	00H
	DB	00H
	DB	00H
	DB	00H
	DB	00H
	DB	00H
	DB	00H
	DB	00H
	DB	04fH
	DB	0b5H
	DB	0b3H
	DB	0a3H
	DB	03aH
	DB	02aH
	DB	03H
	DB	0dH
	DB	02H
	DB	02eH
	DB	0aH
	DB	03H
	DB	02aH
	DB	02aH
	DB	02aH
	DB	02aH
	DB	01aH
	DB	02aH
	DB	02aH
	DB	02aH
	DB	01aH
	DB	01aH
	DB	01aH
	DB	01aH
	DB	03H
	DB	03H
	DB	03H
	DB	03H
	DB	03H
	DB	03H
	DB	01aH
	DB	01aH
	DB	01aH
	DB	01aH
	DB	01aH
	DB	01aH
	DB	01aH
	DB	01aH
	DB	01aH
	DB	01aH
	DB	01aH
	DB	03H
	DB	03H
	DB	03H
	DB	01aH
	DB	013H
	DB	0aH
	DB	01H
	DB	08H
	DB	013H
	DB	03H
	DB	01aH
	DB	01aH
	DB	03H
	DB	02aH
	DB	08H
	DB	016H
	DB	0aH
	DB	01dH
	DB	05H
	DB	05H
	DB	05H
	DB	046H
	DB	036H
	DB	0eH
	DB	0eH
	DB	0eH
	DB	0eH
	DB	0eH
	DB	0eH
	DB	0eH
	DB	0eH
	DB	0eH
	DB	011H
	DB	07cH
	DB	068H
	DB	032H
	DB	05H
	DB	0aH
	DB	028H
	DB	07H
	DB	01H
	DB	03bH
	DB	01H
	DB	0c9H
	DB	01cH
	DB	085H
	DB	085H
	DB	022H
	DB	01H
	DB	023H
	DB	0fH
	DB	06H
	DB	03bH
	DB	05eH
	DB	042H
	DB	045H
	DB	0cH
	DB	055H
	DB	027H
	DB	035H
	DB	071H
	DB	010H
	DB	048H
	DB	070H
	DB	030H
	DB	05bH
	DB	02eH
	DB	015H
	DB	055H
	DB	05H
	DB	05H
	DB	05H
	DB	05H
	DB	0baH
	DB	0baH
	DB	05H
	DB	05H
	DB	055H
	DB	05H
	DB	05H
	DB	05H
	DB	055H
	DB	055H
	DB	05H
	DB	05H
	DB	05H
	DB	0baH
	DB	07H
	DB	0baH
	DB	0baH
	DB	0baH
	DB	07H
	DB	07H
	DB	07H
	DB	0baH
	DB	07H
	DB	050H
	DB	0cH
	DB	050H
	DB	047H
	DB	084H
	DB	045H
	DB	051H
	DB	0eH
	DB	0eH
	DB	0eH
	DB	0eH
	DB	0eH
	DB	024H
	DB	073H
	DB	093H
	DB	01H
	DB	01H
	DB	01H
	DB	01H
	DB	0c9H
	DB	0c9H
	DB	01H
	DB	01H
	DB	01H
	DB	01dH
	DB	01dH
	DB	01dH
	DB	01bH
	DB	01eH
	DB	00H
	DB	00H
	DB	00H
	DB	00H
	DB	00H
	DB	00H
	DB	00H
	DB	00H
	DB	00H
	DB	00H
	DB	00H
	DB	027H
	DB	01aH
	DB	06fH
	DB	0a4H
	DB	08H
	DB	01aH
	DB	01aH
	DB	02aH
	DB	01dH
	DB	053H
	DB	01bH
	DB	055H
	DB	08H
	DB	03H
	DB	01aH
	DB	01aH
	DB	01aH
	DB	01aH
	DB	02aH
	DB	01aH
	DB	01aH
	DB	01aH
	DB	03H
	DB	0fH
	DB	02aH
	DB	02bH
	DB	0aH
	DB	04aH
	DB	0aH
	DB	026H
	DB	08H
	DB	01aH
	DB	03H
	DB	03H
	DB	03H
	DB	01aH
	DB	01aH
	DB	03H
	DB	03H
	DB	01aH
	DB	03H
	DB	03H
	DB	03H
	DB	03H
	DB	03H
	DB	0fH
	DB	02aH
	DB	01dH
	DB	02H
	DB	07H
	DB	0fH
	DB	03H
	DB	03H
	DB	01aH
	DB	03H
	DB	01aH
	DB	0fH
	DB	04aH
	DB	02eH
	DB	053H
	DB	053H
	DB	01bH
	DB	01dH
	DB	036H
	DB	0eH
	DB	0eH
	DB	0eH
	DB	0eH
	DB	0eH
	DB	0eH
	DB	0eH
	DB	0eH
	DB	0eH
	DB	011H
	DB	031H
	DB	068H
	DB	03dH
	DB	04fH
	DB	0aH
	DB	0cH
	DB	0baH
	DB	0ceH
	DB	0cH
	DB	0baH
	DB	01fH
	DB	05H
	DB	0c9H
	DB	01cH
	DB	0cbH
	DB	094H
	DB	053H
	DB	0dH
	DB	0ffH
	DB	0ceH
	DB	063H
	DB	055H
	DB	0cH
	DB	042H
	DB	07H
	DB	050H
	DB	01dH
	DB	027H
	DB	086H
	DB	06bH
	DB	030H
	DB	021H
	DB	03bH
	DB	015H
	DB	01H
	DB	055H
	DB	05H
	DB	05H
	DB	05H
	DB	0baH
	DB	0baH
	DB	0baH
	DB	0baH
	DB	05H
	DB	055H
	DB	05H
	DB	05H
	DB	05H
	DB	055H
	DB	05H
	DB	05H
	DB	05H
	DB	05H
	DB	05H
	DB	07H
	DB	07H
	DB	0baH
	DB	0baH
	DB	0baH
	DB	07H
	DB	050H
	DB	050H
	DB	07H
	DB	07H
	DB	07H
	DB	020H
	DB	047H
	DB	018H
	DB	036H
	DB	09dH
	DB	0eH
	DB	0eH
	DB	0eH
	DB	0eH
	DB	0eH
	DB	024H
	DB	0adH
	DB	01cH
	DB	015H
	DB	01H
	DB	01H
	DB	01H
	DB	01H
	DB	01H
	DB	01H
	DB	01H
	DB	01H
	DB	01H
	DB	01dH
	DB	01dH
	DB	01H
	DB	01bH
	DB	01eH
	DB	00H
	DB	00H
	DB	00H
	DB	00H
	DB	00H
	DB	00H
	DB	00H
	DB	00H
	DB	00H
	DB	00H
	DB	00H
	DB	05H
	DB	03H
	DB	02aH
	DB	01aH
	DB	01aH
	DB	01aH
	DB	03H
	DB	0ceH
	DB	027H
	DB	01H
	DB	01H
	DB	06H
	DB	020H
	DB	03H
	DB	01aH
	DB	01aH
	DB	01aH
	DB	01aH
	DB	01aH
	DB	01aH
	DB	03H
	DB	0fH
	DB	02bH
	DB	050H
	DB	05H
	DB	07H
	DB	0ceH
	DB	0dH
	DB	04aH
	DB	0aH
	DB	04aH
	DB	026H
	DB	02aH
	DB	01aH
	DB	03H
	DB	01aH
	DB	03H
	DB	03H
	DB	01aH
	DB	01aH
	DB	03H
	DB	03H
	DB	03H
	DB	03H
	DB	03H
	DB	03H
	DB	07H
	DB	02H
	DB	02H
	DB	02H
	DB	04aH
	DB	0bH
	DB	03H
	DB	03H
	DB	02aH
	DB	040H
	DB	03H
	DB	03bH
	DB	015H
	DB	01dH
	DB	055H
	DB	046H
	DB	042H
	DB	0e1H
	DB	0eH
	DB	0eH
	DB	0eH
	DB	0eH
	DB	0eH
	DB	0eH
	DB	0eH
	DB	0eH
	DB	011H
	DB	031H
	DB	035H
	DB	027H
	DB	020H
	DB	08H
	DB	050H
	DB	01H
	DB	07H
	DB	08H
	DB	028H
	DB	07H
	DB	042H
	DB	05H
	DB	0baH
	DB	020H
	DB	07eH
	DB	0aeH
	DB	085H
	DB	03bH
	DB	0bH
	DB	016H
	DB	03eH
	DB	02H
	DB	07H
	DB	07eH
	DB	01fH
	DB	05eH
	DB	050H
	DB	01H
	DB	035H
	DB	021H
	DB	01H
	DB	01dH
	DB	01dH
	DB	05H
	DB	05H
	DB	055H
	DB	055H
	DB	05H
	DB	0baH
	DB	0baH
	DB	05H
	DB	05H
	DB	05H
	DB	05H
	DB	055H
	DB	05H
	DB	05H
	DB	055H
	DB	05H
	DB	05H
	DB	05H
	DB	05H
	DB	05H
	DB	0baH
	DB	07H
	DB	07H
	DB	0baH
	DB	04fH
	DB	07H
	DB	07H
	DB	050H
	DB	050H
	DB	05eH
	DB	07H
	DB	018H
	DB	084H
	DB	069H
	DB	051H
	DB	0eH
	DB	0eH
	DB	0eH
	DB	0eH
	DB	0eH
	DB	024H
	DB	097H
	DB	0a8H
	DB	01H
	DB	01dH
	DB	01H
	DB	01H
	DB	01H
	DB	01H
	DB	01H
	DB	03bH
	DB	03bH
	DB	01H
	DB	01H
	DB	01H
	DB	01dH
	DB	01H
	DB	01H
	DB	075H
	DB	01eH
	DB	00H
	DB	00H
	DB	00H
	DB	00H
	DB	00H
	DB	00H
	DB	00H
	DB	00H
	DB	00H
	DB	00H
	DB	00H
	DB	0dH
	DB	03H
	DB	01aH
	DB	01aH
	DB	01aH
	DB	03H
	DB	01aH
	DB	01dH
	DB	02eH
	DB	01H
	DB	055H
	DB	01H
	DB	020H
	DB	03H
	DB	03H
	DB	01aH
	DB	01aH
	DB	01aH
	DB	01aH
	DB	0fH
	DB	01aH
	DB	020H
	DB	01H
	DB	07H
	DB	0aH
	DB	02aH
	DB	03H
	DB	03H
	DB	03H
	DB	03H
	DB	03H
	DB	01aH
	DB	08H
	DB	08H
	DB	02aH
	DB	03H
	DB	03H
	DB	03H
	DB	03H
	DB	03H
	DB	03H
	DB	03H
	DB	03H
	DB	03H
	DB	0bH
	DB	0dH
	DB	053H
	DB	053H
	DB	02eH
	DB	053H
	DB	055H
	DB	03H
	DB	0fH
	DB	03H
	DB	01aH
	DB	0bH
	DB	01aH
	DB	04fH
	DB	07H
	DB	047H
	DB	018H
	DB	018H
	DB	084H
	DB	051H
	DB	0eH
	DB	0eH
	DB	0eH
	DB	0eH
	DB	0eH
	DB	0eH
	DB	011H
	DB	011H
	DB	06dH
	DB	035H
	DB	01bH
	DB	05H
	DB	07H
	DB	055H
	DB	053H
	DB	06H
	DB	05H
	DB	090H
	DB	0c5H
	DB	089H
	DB	05eH
	DB	0baH
	DB	0baH
	DB	07H
	DB	020H
	DB	0bcH
	DB	0aeH
	DB	0b7H
	DB	0baH
	DB	0fcH
	DB	026H
	DB	02fH
	DB	053H
	DB	07eH
	DB	05eH
	DB	042H
	DB	0cH
	DB	07H
	DB	03bH
	DB	01bH
	DB	01H
	DB	0b7H
	DB	03eH
	DB	021H
	DB	01H
	DB	0c9H
	DB	055H
	DB	055H
	DB	05H
	DB	0baH
	DB	05H
	DB	055H
	DB	055H
	DB	055H
	DB	055H
	DB	05H
	DB	05H
	DB	055H
	DB	05H
	DB	05H
	DB	05H
	DB	0baH
	DB	0baH
	DB	0baH
	DB	04fH
	DB	04fH
	DB	04fH
	DB	07H
	DB	07H
	DB	020H
	DB	05eH
	DB	020H
	DB	047H
	DB	084H
	DB	045H
	DB	036H
	DB	0e1H
	DB	0eH
	DB	0eH
	DB	0eH
	DB	0eH
	DB	024H
	DB	097H
	DB	0ccH
	DB	03bH
	DB	015H
	DB	01H
	DB	01H
	DB	01H
	DB	01H
	DB	01H
	DB	01H
	DB	01H
	DB	01H
	DB	01H
	DB	01H
	DB	01H
	DB	01H
	DB	01H
	DB	01H
	DB	01H
	DB	06H
	DB	01eH
	DB	00H
	DB	00H
	DB	00H
	DB	00H
	DB	00H
	DB	00H
	DB	00H
	DB	00H
	DB	00H
	DB	00H
	DB	01eH
	DB	0aH
	DB	03H
	DB	01aH
	DB	01aH
	DB	01aH
	DB	03H
	DB	0aH
	DB	01H
	DB	03bH
	DB	03bH
	DB	055H
	DB	055H
	DB	026H
	DB	0fH
	DB	01aH
	DB	03H
	DB	03H
	DB	01aH
	DB	0fH
	DB	026H
	DB	01H
	DB	055H
	DB	02bH
	DB	03H
	DB	03H
	DB	03H
	DB	03H
	DB	03H
	DB	03H
	DB	03H
	DB	03H
	DB	03H
	DB	03H
	DB	03H
	DB	01aH
	DB	01aH
	DB	01aH
	DB	03H
	DB	03H
	DB	03H
	DB	03H
	DB	03H
	DB	03H
	DB	03H
	DB	0c6H
	DB	057H
	DB	03bH
	DB	05H
	DB	05H
	DB	05H
	DB	055H
	DB	0dH
	DB	0bH
	DB	0fH
	DB	03H
	DB	03H
	DB	0bH
	DB	020H
	DB	018H
	DB	018H
	DB	05H
	DB	05H
	DB	084H
	DB	0b9H
	DB	0eH
	DB	0eH
	DB	0eH
	DB	0eH
	DB	0eH
	DB	011H
	DB	011H
	DB	037H
	DB	02H
	DB	01bH
	DB	055H
	DB	03bH
	DB	02H
	DB	0c8H
	DB	092H
	DB	046H
	DB	0abH
	DB	0c5H
	DB	04H
	DB	090H
	DB	0c3H
	DB	0c3H
	DB	07H
	DB	06H
	DB	0c9H
	DB	0cH
	DB	0d3H
	DB	0aeH
	DB	03eH
	DB	0ceH
	DB	0fcH
	DB	07H
	DB	01eH
	DB	021H
	DB	07eH
	DB	05eH
	DB	042H
	DB	05H
	DB	01H
	DB	021H
	DB	05bH
	DB	068H
	DB	092H
	DB	02H
	DB	092H
	DB	053H
	DB	06H
	DB	01H
	DB	055H
	DB	05H
	DB	05H
	DB	055H
	DB	0c9H
	DB	055H
	DB	05H
	DB	05H
	DB	05H
	DB	05H
	DB	05H
	DB	05H
	DB	05H
	DB	0baH
	DB	04fH
	DB	04fH
	DB	0baH
	DB	0baH
	DB	04fH
	DB	07H
	DB	07H
	DB	07H
	DB	07H
	DB	084H
	DB	04fH
	DB	036H
	DB	09dH
	DB	0eH
	DB	0eH
	DB	0eH
	DB	0eH
	DB	024H
	DB	073H
	DB	066H
	DB	058H
	DB	049H
	DB	049H
	DB	076H
	DB	0a7H
	DB	01H
	DB	015H
	DB	015H
	DB	01H
	DB	01H
	DB	03bH
	DB	01H
	DB	01H
	DB	01H
	DB	01H
	DB	01H
	DB	01H
	DB	01H
	DB	01H
	DB	01bH
	DB	01eH
	DB	00H
	DB	00H
	DB	00H
	DB	00H
	DB	00H
	DB	00H
	DB	00H
	DB	00H
	DB	00H
	DB	00H
	DB	00H
	DB	01H
	DB	026H
	DB	03H
	DB	03H
	DB	03H
	DB	03H
	DB	0cH
	DB	03bH
	DB	03bH
	DB	01dH
	DB	01dH
	DB	0cH
	DB	0fH
	DB	03H
	DB	03H
	DB	03H
	DB	03H
	DB	013H
	DB	0aH
	DB	03bH
	DB	07H
	DB	01aH
	DB	0fH
	DB	03H
	DB	03H
	DB	03H
	DB	03H
	DB	03H
	DB	03H
	DB	03H
	DB	03H
	DB	03H
	DB	03H
	DB	03H
	DB	03H
	DB	03H
	DB	01aH
	DB	01aH
	DB	03H
	DB	03H
	DB	03H
	DB	03H
	DB	0fH
	DB	03H
	DB	040H
	DB	026H
	DB	027H
	DB	01H
	DB	055H
	DB	055H
	DB	0c9H
	DB	05H
	DB	02aH
	DB	0bH
	DB	0fH
	DB	03H
	DB	040H
	DB	028H
	DB	018H
	DB	018H
	DB	018H
	DB	05H
	DB	05H
	DB	05H
	DB	02dH
	DB	0eH
	DB	0eH
	DB	0eH
	DB	011H
	DB	0eH
	DB	03fH
	DB	00H
	DB	015H
	DB	05H
	DB	02eH
	DB	063H
	DB	02H
	DB	053H
	DB	01H
	DB	047H
	DB	04cH
	DB	0c3H
	DB	089H
	DB	0baH
	DB	017H
	DB	0f9H
	DB	0efH
	DB	01H
	DB	021H
	DB	07H
	DB	050H
	DB	094H
	DB	0a8H
	DB	0b7H
	DB	03aH
	DB	0bH
	DB	06H
	DB	00H
	DB	021H
	DB	0baH
	DB	03eH
	DB	06H
	DB	021H
	DB	035H
	DB	092H
	DB	02H
	DB	02H
	DB	02H
	DB	02H
	DB	063H
	DB	02H
	DB	06H
	DB	0c9H
	DB	055H
	DB	0c9H
	DB	0c9H
	DB	055H
	DB	055H
	DB	05H
	DB	05H
	DB	05H
	DB	05H
	DB	05H
	DB	05H
	DB	0baH
	DB	0baH
	DB	0baH
	DB	0baH
	DB	04fH
	DB	07H
	DB	04fH
	DB	0baH
	DB	0baH
	DB	018H
	DB	084H
	DB	036H
	DB	09dH
	DB	0eH
	DB	0eH
	DB	0eH
	DB	0eH
	DB	024H
	DB	0d5H
	DB	066H
	DB	019H
	DB	09H
	DB	09H
	DB	012H
	DB	012H
	DB	0d4H
	DB	06aH
	DB	065H
	DB	054H
	DB	05cH
	DB	03eH
	DB	015H
	DB	015H
	DB	015H
	DB	015H
	DB	01H
	DB	01H
	DB	01H
	DB	01H
	DB	01H
	DB	01H
	DB	03bH
	DB	01eH
	DB	00H
	DB	00H
	DB	00H
	DB	00H
	DB	00H
	DB	00H
	DB	00H
	DB	00H
	DB	00H
	DB	00H
	DB	00H
	DB	00H
	DB	03bH
	DB	01aH
	DB	03H
	DB	03H
	DB	01aH
	DB	05H
	DB	03bH
	DB	01H
	DB	055H
	DB	05H
	DB	08H
	DB	0fH
	DB	03H
	DB	03H
	DB	03H
	DB	0fH
	DB	02aH
	DB	01H
	DB	07H
	DB	01aH
	DB	03H
	DB	03H
	DB	03H
	DB	03H
	DB	03H
	DB	03H
	DB	0fH
	DB	03H
	DB	0fH
	DB	03H
	DB	0fH
	DB	03H
	DB	03H
	DB	0fH
	DB	0fH
	DB	03H
	DB	01aH
	DB	03H
	DB	0fH
	DB	0fH
	DB	03H
	DB	0fH
	DB	0fH
	DB	0fH
	DB	06fH
	DB	05H
	DB	02eH
	DB	055H
	DB	055H
	DB	055H
	DB	01H
	DB	0dH
	DB	0bH
	DB	0fH
	DB	0fH
	DB	013H
	DB	01aH
	DB	047H
	DB	047H
	DB	018H
	DB	018H
	DB	018H
	DB	084H
	DB	036H
	DB	0eH
	DB	0eH
	DB	011H
	DB	0eH
	DB	034H
	DB	00H
	DB	018H
	DB	057H
	DB	06H
	DB	092H
	DB	045H
	DB	0a3H
	DB	082H
	DB	07H
	DB	075H
	DB	0c9H
	DB	046H
	DB	02H
	DB	00H
	DB	092H
	DB	084H
	DB	04bH
	DB	084H
	DB	075H
	DB	035H
	DB	092H
	DB	02fH
	DB	064H
	DB	05bH
	DB	01H
	DB	0bH
	DB	0aH
	DB	0c8H
	DB	00H
	DB	092H
	DB	053H
	DB	053H
	DB	092H
	DB	092H
	DB	02H
	DB	092H
	DB	02H
	DB	02H
	DB	02H
	DB	02H
	DB	02H
	DB	02H
	DB	075H
	DB	01H
	DB	01H
	DB	01H
	DB	055H
	DB	0c9H
	DB	055H
	DB	05H
	DB	05H
	DB	05H
	DB	05H
	DB	0baH
	DB	0baH
	DB	0baH
	DB	04fH
	DB	04fH
	DB	07H
	DB	07H
	DB	045H
	DB	05H
	DB	046H
	DB	01fH
	DB	036H
	DB	039H
	DB	010H
	DB	08dH
	DB	09fH
	DB	09fH
	DB	06cH
	DB	066H
	DB	019H
	DB	019H
	DB	019H
	DB	019H
	DB	09H
	DB	044H
	DB	044H
	DB	012H
	DB	012H
	DB	012H
	DB	012H
	DB	044H
	DB	058H
	DB	065H
	DB	076H
	DB	0a7H
	DB	03bH
	DB	015H
	DB	015H
	DB	015H
	DB	015H
	DB	015H
	DB	01H
	DB	03bH
	DB	01eH
	DB	00H
	DB	00H
	DB	00H
	DB	00H
	DB	00H
	DB	00H
	DB	00H
	DB	00H
	DB	00H
	DB	00H
	DB	00H
	DB	00H
	DB	06H
	DB	01aH
	DB	03H
	DB	0fH
	DB	0aH
	DB	01H
	DB	03bH
	DB	01dH
	DB	055H
	DB	050H
	DB	0fH
	DB	03H
	DB	03H
	DB	03H
	DB	03H
	DB	03H
	DB	05H
	DB	05H
	DB	01aH
	DB	03H
	DB	03H
	DB	03H
	DB	03H
	DB	03H
	DB	03H
	DB	0fH
	DB	0fH
	DB	03H
	DB	0fH
	DB	03H
	DB	03H
	DB	0fH
	DB	0fH
	DB	03H
	DB	0fH
	DB	0fH
	DB	0fH
	DB	03H
	DB	03H
	DB	013H
	DB	0fH
	DB	03H
	DB	0fH
	DB	0fH
	DB	040H
	DB	03H
	DB	06H
	DB	01H
	DB	05H
	DB	055H
	DB	0c9H
	DB	04fH
	DB	0fH
	DB	0bH
	DB	0fH
	DB	03H
	DB	040H
	DB	0cH
	DB	04fH
	DB	04fH
	DB	018H
	DB	05H
	DB	05H
	DB	042H
	DB	0e1H
	DB	011H
	DB	08cH
	DB	034H
	DB	032H
	DB	04fH
	DB	0aH
	DB	0c9H
	DB	03bH
	DB	061H
	DB	0fdH
	DB	04H
	DB	013H
	DB	01H
	DB	02eH
	DB	01H
	DB	06H
	DB	02H
	DB	02H
	DB	053H
	DB	06H
	DB	015H
	DB	046H
	DB	046H
	DB	03bH
	DB	053H
	DB	06H
	DB	0c9H
	DB	01H
	DB	01H
	DB	0dH
	DB	0dH
	DB	053H
	DB	02H
	DB	027H
	DB	02eH
	DB	027H
	DB	027H
	DB	027H
	DB	027H
	DB	02H
	DB	02H
	DB	02H
	DB	02H
	DB	02H
	DB	02H
	DB	063H
	DB	02H
	DB	021H
	DB	01H
	DB	0c9H
	DB	055H
	DB	055H
	DB	055H
	DB	05H
	DB	05H
	DB	0baH
	DB	05H
	DB	05H
	DB	0baH
	DB	04fH
	DB	07H
	DB	07H
	DB	07H
	DB	04fH
	DB	046H
	DB	055H
	DB	0b8H
	DB	06aH
	DB	09aH
	DB	09fH
	DB	09aH
	DB	060H
	DB	060H
	DB	09H
	DB	09H
	DB	09H
	DB	09H
	DB	019H
	DB	02cH
	DB	02cH
	DB	019H
	DB	044H
	DB	044H
	DB	012H
	DB	012H
	DB	012H
	DB	012H
	DB	012H
	DB	012H
	DB	012H
	DB	044H
	DB	044H
	DB	058H
	DB	049H
	DB	0a7H
	DB	03bH
	DB	015H
	DB	015H
	DB	015H
	DB	01bH
	DB	01eH
	DB	00H
	DB	00H
	DB	00H
	DB	00H
	DB	00H
	DB	00H
	DB	00H
	DB	00H
	DB	00H
	DB	00H
	DB	00H
	DB	00H
	DB	05H
	DB	03H
	DB	03H
	DB	0fH
	DB	0dH
	DB	01dH
	DB	055H
	DB	055H
	DB	018H
	DB	0aH
	DB	013H
	DB	03H
	DB	03H
	DB	03H
	DB	0bH
	DB	0dH
	DB	01dH
	DB	0aH
	DB	0fH
	DB	0fH
	DB	0fH
	DB	03H
	DB	03H
	DB	03H
	DB	03H
	DB	03H
	DB	0fH
	DB	0fH
	DB	0fH
	DB	0fH
	DB	0fH
	DB	0fH
	DB	0fH
	DB	0fH
	DB	0fH
	DB	0fH
	DB	0fH
	DB	0fH
	DB	03H
	DB	0fH
	DB	013H
	DB	0fH
	DB	0fH
	DB	013H
	DB	0fH
	DB	016H
	DB	0ceH
	DB	06H
	DB	05H
	DB	05H
	DB	05H
	DB	055H
	DB	026H
	DB	0bH
	DB	0fH
	DB	03H
	DB	040H
	DB	026H
	DB	01H
	DB	01H
	DB	01H
	DB	01H
	DB	01H
	DB	015H
	DB	088H
	DB	036H
	DB	086H
	DB	06H
	DB	01H
	DB	07H
	DB	0c9H
	DB	0c9H
	DB	082H
	DB	0a5H
	DB	04H
	DB	040H
	DB	055H
	DB	02eH
	DB	015H
	DB	046H
	DB	05H
	DB	04bH
	DB	04cH
	DB	0dH
	DB	079H
	DB	061H
	DB	081H
	DB	08H
	DB	02bH
	DB	04aH
	DB	0aH
	DB	0aH
	DB	0aH
	DB	020H
	DB	03eH
	DB	06H
	DB	06H
	DB	02eH
	DB	027H
	DB	027H
	DB	027H
	DB	027H
	DB	027H
	DB	02H
	DB	092H
	DB	092H
	DB	02H
	DB	02H
	DB	092H
	DB	092H
	DB	02H
	DB	0c8H
	DB	02H
	DB	03bH
	DB	0c9H
	DB	055H
	DB	055H
	DB	05H
	DB	05H
	DB	05H
	DB	0baH
	DB	05H
	DB	05H
	DB	0baH
	DB	0baH
	DB	045H
	DB	04fH
	DB	05H
	DB	01dH
	DB	075H
	DB	076H
	DB	07aH
	DB	025H
	DB	012H
	DB	060H
	DB	09H
	DB	09H
	DB	09H
	DB	09H
	DB	012H
	DB	012H
	DB	09H
	DB	09H
	DB	02cH
	DB	033H
	DB	029H
	DB	044H
	DB	019H
	DB	09H
	DB	012H
	DB	012H
	DB	012H
	DB	012H
	DB	012H
	DB	012H
	DB	012H
	DB	012H
	DB	012H
	DB	012H
	DB	044H
	DB	058H
	DB	049H
	DB	065H
	DB	0a7H
	DB	075H
	DB	00H
	DB	00H
	DB	00H
	DB	00H
	DB	00H
	DB	00H
	DB	00H
	DB	00H
	DB	00H
	DB	00H
	DB	00H
	DB	00H
	DB	00H
	DB	050H
	DB	03H
	DB	03H
	DB	013H
	DB	057H
	DB	055H
	DB	05H
	DB	055H
	DB	07H
	DB	01aH
	DB	0fH
	DB	03H
	DB	03H
	DB	013H
	DB	03H
	DB	05H
	DB	050H
	DB	01aH
	DB	0fH
	DB	0fH
	DB	03H
	DB	03H
	DB	0fH
	DB	0fH
	DB	0fH
	DB	0fH
	DB	0fH
	DB	03H
	DB	03H
	DB	0fH
	DB	0fH
	DB	0fH
	DB	0fH
	DB	0fH
	DB	013H
	DB	0fH
	DB	0fH
	DB	013H
	DB	0fH
	DB	03H
	DB	013H
	DB	0fH
	DB	0fH
	DB	0fH
	DB	03H
	DB	040H
	DB	0fH
	DB	03bH
	DB	055H
	DB	04fH
	DB	018H
	DB	05H
	DB	0cH
	DB	0bH
	DB	013H
	DB	0fH
	DB	0fH
	DB	0c6H
	DB	03aH
	DB	01aH
	DB	0a4H
	DB	047H
	DB	01dH
	DB	05H
	DB	084H
	DB	084H
	DB	018H
	DB	05H
	DB	06H
	DB	02H
	DB	04dH
	DB	0f6H
	DB	0a5H
	DB	04H
	DB	0fH
	DB	01H
	DB	05bH
	DB	088H
	DB	087H
	DB	086H
	DB	04dH
	DB	0aaH
	DB	078H
	DB	0aaH
	DB	05eH
	DB	05eH
	DB	07H
	DB	07H
	DB	07H
	DB	07H
	DB	0baH
	DB	05H
	DB	05H
	DB	01H
	DB	053H
	DB	027H
	DB	027H
	DB	027H
	DB	027H
	DB	027H
	DB	027H
	DB	027H
	DB	092H
	DB	027H
	DB	027H
	DB	02H
	DB	02H
	DB	02H
	DB	092H
	DB	092H
	DB	092H
	DB	02H
	DB	0c8H
	DB	092H
	DB	01H
	DB	055H
	DB	05H
	DB	05H
	DB	05H
	DB	05H
	DB	0baH
	DB	0baH
	DB	042H
	DB	042H
	DB	042H
	DB	05H
	DB	046H
	DB	01H
	DB	01fH
	DB	0adH
	DB	05fH
	DB	044H
	DB	012H
	DB	09H
	DB	09H
	DB	09H
	DB	09H
	DB	012H
	DB	025H
	DB	025H
	DB	025H
	DB	060H
	DB	09H
	DB	029H
	DB	033H
	DB	041H
	DB	02cH
	DB	019H
	DB	09H
	DB	09H
	DB	09H
	DB	012H
	DB	012H
	DB	012H
	DB	012H
	DB	012H
	DB	012H
	DB	012H
	DB	012H
	DB	09H
	DB	012H
	DB	012H
	DB	012H
	DB	06aH
	DB	06H
	DB	00H
	DB	00H
	DB	00H
	DB	00H
	DB	00H
	DB	00H
	DB	00H
	DB	00H
	DB	00H
	DB	00H
	DB	00H
	DB	00H
	DB	01eH
	DB	0aH
	DB	0fH
	DB	03H
	DB	013H
	DB	0cH
	DB	055H
	DB	055H
	DB	055H
	DB	057H
	DB	0fH
	DB	03H
	DB	03H
	DB	03H
	DB	0bH
	DB	028H
	DB	018H
	DB	0aH
	DB	0fH
	DB	0fH
	DB	0fH
	DB	0fH
	DB	0fH
	DB	0fH
	DB	0fH
	DB	0fH
	DB	0fH
	DB	0fH
	DB	0fH
	DB	0fH
	DB	0fH
	DB	0fH
	DB	0fH
	DB	0fH
	DB	0fH
	DB	013H
	DB	013H
	DB	0fH
	DB	013H
	DB	013H
	DB	0fH
	DB	0fH
	DB	0fH
	DB	0fH
	DB	0bH
	DB	013H
	DB	0fH
	DB	016H
	DB	020H
	DB	03bH
	DB	0baH
	DB	018H
	DB	05H
	DB	018H
	DB	01aH
	DB	0bH
	DB	0fH
	DB	0fH
	DB	0bH
	DB	016H
	DB	0bH
	DB	023H
	DB	02aH
	DB	05H
	DB	07H
	DB	07H
	DB	047H
	DB	07H
	DB	05H
	DB	092H
	DB	04dH
	DB	0b5H
	DB	0a5H
	DB	0a5H
	DB	03H
	DB	01bH
	DB	035H
	DB	052H
	DB	014H
	DB	052H
	DB	06dH
	DB	06dH
	DB	031H
	DB	037H
	DB	05bH
	DB	02eH
	DB	053H
	DB	02H
	DB	0c8H
	DB	0c8H
	DB	0c8H
	DB	01eH
	DB	01eH
	DB	02H
	DB	053H
	DB	027H
	DB	027H
	DB	02H
	DB	027H
	DB	027H
	DB	027H
	DB	027H
	DB	027H
	DB	092H
	DB	027H
	DB	02H
	DB	027H
	DB	092H
	DB	02H
	DB	02H
	DB	027H
	DB	092H
	DB	02H
	DB	063H
	DB	02H
	DB	03bH
	DB	05H
	DB	05H
	DB	05H
	DB	05H
	DB	05H
	DB	0baH
	DB	042H
	DB	042H
	DB	0baH
	DB	05H
	DB	046H
	DB	01fH
	DB	0a9H
	DB	043H
	DB	010H
	DB	073H
	DB	02cH
	DB	019H
	DB	09H
	DB	09H
	DB	09H
	DB	025H
	DB	025H
	DB	025H
	DB	025H
	DB	025H
	DB	025H
	DB	025H
	DB	019H
	DB	029H
	DB	02cH
	DB	041H
	DB	044H
	DB	09H
	DB	09H
	DB	09H
	DB	09H
	DB	09H
	DB	09H
	DB	09H
	DB	09H
	DB	09H
	DB	09H
	DB	09H
	DB	09H
	DB	09H
	DB	012H
	DB	012H
	DB	012H
	DB	05cH
	DB	00H
	DB	00H
	DB	00H
	DB	00H
	DB	00H
	DB	00H
	DB	00H
	DB	00H
	DB	00H
	DB	00H
	DB	00H
	DB	00H
	DB	027H
	DB	02aH
	DB	0fH
	DB	0fH
	DB	03H
	DB	07H
	DB	055H
	DB	055H
	DB	05H
	DB	04aH
	DB	013H
	DB	03H
	DB	0fH
	DB	0fH
	DB	03H
	DB	050H
	DB	0cH
	DB	02aH
	DB	0fH
	DB	0fH
	DB	0fH
	DB	0fH
	DB	0fH
	DB	0fH
	DB	0fH
	DB	0fH
	DB	0fH
	DB	0fH
	DB	0fH
	DB	0fH
	DB	0fH
	DB	0fH
	DB	0fH
	DB	0fH
	DB	0fH
	DB	013H
	DB	013H
	DB	0fH
	DB	0fH
	DB	013H
	DB	0fH
	DB	0fH
	DB	0bH
	DB	0bH
	DB	013H
	DB	0bH
	DB	013H
	DB	016H
	DB	026H
	DB	01bH
	DB	05H
	DB	04fH
	DB	0baH
	DB	05H
	DB	0aH
	DB	0bH
	DB	013H
	DB	013H
	DB	03H
	DB	03H
	DB	02aH
	DB	06fH
	DB	0bH
	DB	018H
	DB	07H
	DB	07H
	DB	047H
	DB	047H
	DB	018H
	DB	042H
	DB	0faH
	DB	0a5H
	DB	0fdH
	DB	08H
	DB	01bH
	DB	02H
	DB	06dH
	DB	014H
	DB	014H
	DB	014H
	DB	014H
	DB	014H
	DB	011H
	DB	03fH
	DB	035H
	DB	053H
	DB	053H
	DB	092H
	DB	02H
	DB	092H
	DB	02H
	DB	02H
	DB	092H
	DB	02eH
	DB	027H
	DB	027H
	DB	027H
	DB	027H
	DB	027H
	DB	027H
	DB	027H
	DB	027H
	DB	027H
	DB	027H
	DB	027H
	DB	027H
	DB	027H
	DB	092H
	DB	027H
	DB	027H
	DB	027H
	DB	02H
	DB	02H
	DB	02H
	DB	02H
	DB	06H
	DB	055H
	DB	05H
	DB	05H
	DB	05H
	DB	0baH
	DB	042H
	DB	05H
	DB	05H
	DB	05H
	DB	055H
	DB	069H
	DB	051H
	DB	039H
	DB	010H
	DB	039H
	DB	09aH
	DB	09H
	DB	09H
	DB	09H
	DB	09H
	DB	025H
	DB	025H
	DB	025H
	DB	025H
	DB	025H
	DB	025H
	DB	098H
	DB	038H
	DB	025H
	DB	09H
	DB	019H
	DB	029H
	DB	09H
	DB	012H
	DB	09H
	DB	09H
	DB	09H
	DB	09H
	DB	09H
	DB	09H
	DB	09H
	DB	09H
	DB	09H
	DB	09H
	DB	09H
	DB	09H
	DB	09H
	DB	012H
	DB	012H
	DB	049H
	DB	00H
	DB	00H
	DB	00H
	DB	00H
	DB	00H
	DB	00H
	DB	00H
	DB	00H
	DB	00H
	DB	00H
	DB	06H
	DB	03H
	DB	0bH
	DB	0fH
	DB	03H
	DB	013H
	DB	02aH
	DB	018H
	DB	05H
	DB	055H
	DB	04fH
	DB	08H
	DB	0bH
	DB	0fH
	DB	0fH
	DB	013H
	DB	08H
	DB	07H
	DB	028H
	DB	03H
	DB	013H
	DB	0fH
	DB	0fH
	DB	0fH
	DB	0fH
	DB	0fH
	DB	0fH
	DB	013H
	DB	0fH
	DB	0fH
	DB	0fH
	DB	013H
	DB	013H
	DB	013H
	DB	013H
	DB	013H
	DB	013H
	DB	013H
	DB	0bH
	DB	0fH
	DB	013H
	DB	0bH
	DB	0bH
	DB	0fH
	DB	013H
	DB	0bH
	DB	0bH
	DB	013H
	DB	013H
	DB	0bH
	DB	040H
	DB	05H
	DB	01dH
	DB	047H
	DB	04fH
	DB	018H
	DB	0dH
	DB	0bH
	DB	0bH
	DB	013H
	DB	0fH
	DB	0fH
	DB	03H
	DB	0bH
	DB	0b6H
	DB	020H
	DB	047H
	DB	07H
	DB	07H
	DB	047H
	DB	018H
	DB	0aH
	DB	0a5H
	DB	091H
	DB	028H
	DB	06H
	DB	02H
	DB	06dH
	DB	014H
	DB	014H
	DB	014H
	DB	011H
	DB	014H
	DB	011H
	DB	04eH
	DB	02fH
	DB	063H
	DB	02fH
	DB	01eH
	DB	0c8H
	DB	02H
	DB	035H
	DB	035H
	DB	053H
	DB	053H
	DB	027H
	DB	027H
	DB	027H
	DB	027H
	DB	027H
	DB	027H
	DB	027H
	DB	027H
	DB	027H
	DB	027H
	DB	027H
	DB	027H
	DB	02H
	DB	027H
	DB	027H
	DB	027H
	DB	092H
	DB	02H
	DB	02H
	DB	02H
	DB	063H
	DB	02H
	DB	06H
	DB	055H
	DB	05H
	DB	05H
	DB	042H
	DB	0baH
	DB	05H
	DB	01dH
	DB	055H
	DB	04dH
	DB	036H
	DB	043H
	DB	039H
	DB	08dH
	DB	08dH
	DB	059H
	DB	05fH
	DB	02cH
	DB	09H
	DB	09H
	DB	012H
	DB	025H
	DB	025H
	DB	025H
	DB	098H
	DB	098H
	DB	098H
	DB	098H
	DB	038H
	DB	038H
	DB	025H
	DB	019H
	DB	019H
	DB	09H
	DB	09H
	DB	09H
	DB	09H
	DB	09H
	DB	09H
	DB	09H
	DB	09H
	DB	09H
	DB	09H
	DB	09H
	DB	09H
	DB	09H
	DB	09H
	DB	09H
	DB	09H
	DB	09H
	DB	029H
	DB	01eH
	DB	00H
	DB	00H
	DB	00H
	DB	00H
	DB	00H
	DB	00H
	DB	00H
	DB	00H
	DB	00H
	DB	07H
	DB	040H
	DB	0bH
	DB	0fH
	DB	03H
	DB	0bH
	DB	02aH
	DB	07H
	DB	04fH
	DB	05H
	DB	07H
	DB	01aH
	DB	013H
	DB	0fH
	DB	0fH
	DB	013H
	DB	026H
	DB	057H
	DB	026H
	DB	0fH
	DB	013H
	DB	0fH
	DB	0fH
	DB	0fH
	DB	0fH
	DB	0fH
	DB	0fH
	DB	013H
	DB	013H
	DB	0fH
	DB	0fH
	DB	0fH
	DB	013H
	DB	0fH
	DB	013H
	DB	013H
	DB	0fH
	DB	013H
	DB	013H
	DB	013H
	DB	013H
	DB	013H
	DB	013H
	DB	0bH
	DB	0fH
	DB	013H
	DB	0bH
	DB	0bH
	DB	0bH
	DB	013H
	DB	0c6H
	DB	0dH
	DB	01H
	DB	07H
	DB	07H
	DB	04fH
	DB	050H
	DB	0bH
	DB	0bH
	DB	013H
	DB	0fH
	DB	013H
	DB	03H
	DB	01aH
	DB	0feH
	DB	057H
	DB	018H
	DB	07H
	DB	07H
	DB	07H
	DB	07H
	DB	04aH
	DB	081H
	DB	018H
	DB	027H
	DB	035H
	DB	031H
	DB	014H
	DB	014H
	DB	011H
	DB	011H
	DB	0eH
	DB	011H
	DB	07cH
	DB	068H
	DB	00H
	DB	0c8H
	DB	02H
	DB	02H
	DB	02H
	DB	02fH
	DB	02H
	DB	02H
	DB	02H
	DB	02H
	DB	027H
	DB	027H
	DB	027H
	DB	027H
	DB	027H
	DB	027H
	DB	027H
	DB	027H
	DB	027H
	DB	027H
	DB	027H
	DB	027H
	DB	027H
	DB	027H
	DB	027H
	DB	02H
	DB	02H
	DB	02H
	DB	02H
	DB	0c8H
	DB	01eH
	DB	02H
	DB	03eH
	DB	05H
	DB	05H
	DB	042H
	DB	05H
	DB	055H
	DB	01dH
	DB	01fH
	DB	056H
	DB	09dH
	DB	08dH
	DB	08dH
	DB	024H
	DB	059H
	DB	06cH
	DB	05fH
	DB	068H
	DB	022H
	DB	019H
	DB	09H
	DB	012H
	DB	025H
	DB	025H
	DB	025H
	DB	098H
	DB	098H
	DB	038H
	DB	038H
	DB	038H
	DB	025H
	DB	060H
	DB	044H
	DB	044H
	DB	09H
	DB	09H
	DB	09H
	DB	09H
	DB	09H
	DB	09H
	DB	09H
	DB	09H
	DB	09H
	DB	09H
	DB	09H
	DB	09H
	DB	09H
	DB	09H
	DB	09H
	DB	09H
	DB	09H
	DB	019H
	DB	01eH
	DB	00H
	DB	00H
	DB	00H
	DB	00H
	DB	00H
	DB	00H
	DB	00H
	DB	00H
	DB	00H
	DB	07H
	DB	013H
	DB	0fH
	DB	0fH
	DB	03H
	DB	0bH
	DB	03H
	DB	07H
	DB	07H
	DB	018H
	DB	050H
	DB	03H
	DB	0fH
	DB	0fH
	DB	0fH
	DB	0bH
	DB	0aH
	DB	04aH
	DB	08H
	DB	013H
	DB	0fH
	DB	0fH
	DB	0fH
	DB	013H
	DB	013H
	DB	0fH
	DB	0fH
	DB	013H
	DB	013H
	DB	0fH
	DB	013H
	DB	0fH
	DB	0fH
	DB	013H
	DB	013H
	DB	013H
	DB	013H
	DB	013H
	DB	013H
	DB	0bH
	DB	013H
	DB	013H
	DB	013H
	DB	0bH
	DB	0fH
	DB	013H
	DB	0bH
	DB	0bH
	DB	0bH
	DB	0fH
	DB	016H
	DB	08H
	DB	01H
	DB	04fH
	DB	07H
	DB	04fH
	DB	07H
	DB	03H
	DB	0bH
	DB	013H
	DB	013H
	DB	0fH
	DB	0fH
	DB	040H
	DB	0feH
	DB	0dH
	DB	05H
	DB	05H
	DB	04fH
	DB	05H
	DB	055H
	DB	01H
	DB	027H
	DB	032H
	DB	074H
	DB	052H
	DB	014H
	DB	014H
	DB	011H
	DB	011H
	DB	0eH
	DB	011H
	DB	011H
	DB	037H
	DB	01eH
	DB	01eH
	DB	02fH
	DB	06H
	DB	01H
	DB	092H
	DB	02fH
	DB	02fH
	DB	02H
	DB	027H
	DB	027H
	DB	027H
	DB	027H
	DB	027H
	DB	027H
	DB	027H
	DB	027H
	DB	027H
	DB	027H
	DB	027H
	DB	027H
	DB	027H
	DB	027H
	DB	027H
	DB	027H
	DB	02H
	DB	02H
	DB	02H
	DB	02H
	DB	0c8H
	DB	00H
	DB	01eH
	DB	035H
	DB	055H
	DB	05H
	DB	05H
	DB	055H
	DB	01dH
	DB	01dH
	DB	04dH
	DB	097H
	DB	08dH
	DB	08dH
	DB	0eH
	DB	059H
	DB	06cH
	DB	099H
	DB	070H
	DB	0c8H
	DB	03dH
	DB	033H
	DB	019H
	DB	09H
	DB	09H
	DB	025H
	DB	038H
	DB	038H
	DB	038H
	DB	038H
	DB	038H
	DB	038H
	DB	098H
	DB	060H
	DB	060H
	DB	07aH
	DB	019H
	DB	09H
	DB	012H
	DB	09H
	DB	09H
	DB	09H
	DB	09H
	DB	09H
	DB	09H
	DB	09H
	DB	09H
	DB	09H
	DB	09H
	DB	09H
	DB	09H
	DB	09H
	DB	09H
	DB	09H
	DB	019H
	DB	01eH
	DB	00H
	DB	00H
	DB	00H
	DB	00H
	DB	00H
	DB	00H
	DB	00H
	DB	00H
	DB	00H
	DB	07H
	DB	0bH
	DB	0fH
	DB	0fH
	DB	0fH
	DB	0bH
	DB	03H
	DB	07H
	DB	04fH
	DB	05H
	DB	0cH
	DB	0fH
	DB	0fH
	DB	0fH
	DB	0fH
	DB	013H
	DB	04aH
	DB	04aH
	DB	02aH
	DB	013H
	DB	0fH
	DB	0fH
	DB	0fH
	DB	013H
	DB	013H
	DB	0fH
	DB	013H
	DB	013H
	DB	0fH
	DB	0fH
	DB	013H
	DB	0fH
	DB	013H
	DB	013H
	DB	013H
	DB	013H
	DB	013H
	DB	013H
	DB	0bH
	DB	0bH
	DB	013H
	DB	013H
	DB	0bH
	DB	0bH
	DB	013H
	DB	013H
	DB	0bH
	DB	0bH
	DB	0bH
	DB	013H
	DB	06fH
	DB	0fH
	DB	055H
	DB	05H
	DB	07H
	DB	07H
	DB	04fH
	DB	08H
	DB	040H
	DB	0bH
	DB	0fH
	DB	0fH
	DB	0c6H
	DB	0fH
	DB	057H
	DB	05H
	DB	05H
	DB	018H
	DB	05H
	DB	02H
	DB	032H
	DB	032H
	DB	092H
	DB	04eH
	DB	03cH
	DB	014H
	DB	014H
	DB	011H
	DB	0eH
	DB	0eH
	DB	0eH
	DB	014H
	DB	011H
	DB	06bH
	DB	01eH
	DB	01eH
	DB	092H
	DB	01H
	DB	06H
	DB	01eH
	DB	01eH
	DB	02H
	DB	027H
	DB	027H
	DB	027H
	DB	027H
	DB	027H
	DB	027H
	DB	027H
	DB	027H
	DB	027H
	DB	027H
	DB	02H
	DB	027H
	DB	02eH
	DB	027H
	DB	027H
	DB	02H
	DB	02H
	DB	02H
	DB	02H
	DB	063H
	DB	01eH
	DB	00H
	DB	01eH
	DB	092H
	DB	01cH
	DB	05H
	DB	05H
	DB	01dH
	DB	01H
	DB	01cH
	DB	036H
	DB	09dH
	DB	08dH
	DB	08dH
	DB	024H
	DB	059H
	DB	06cH
	DB	05fH
	DB	05aH
	DB	03dH
	DB	02H
	DB	02H
	DB	02H
	DB	02cH
	DB	09H
	DB	09H
	DB	09H
	DB	025H
	DB	0d8H
	DB	038H
	DB	025H
	DB	025H
	DB	012H
	DB	019H
	DB	029H
	DB	05fH
	DB	066H
	DB	019H
	DB	012H
	DB	012H
	DB	09H
	DB	09H
	DB	09H
	DB	09H
	DB	09H
	DB	09H
	DB	09H
	DB	09H
	DB	09H
	DB	09H
	DB	09H
	DB	09H
	DB	09H
	DB	09H
	DB	09H
	DB	019H
	DB	01eH
	DB	00H
	DB	00H
	DB	00H
	DB	00H
	DB	00H
	DB	00H
	DB	00H
	DB	00H
	DB	00H
	DB	07H
	DB	0bH
	DB	0fH
	DB	0fH
	DB	0fH
	DB	0bH
	DB	02aH
	DB	07H
	DB	04fH
	DB	05H
	DB	0cH
	DB	0fH
	DB	0fH
	DB	0fH
	DB	0fH
	DB	0bH
	DB	026H
	DB	08H
	DB	01aH
	DB	0fH
	DB	0fH
	DB	0fH
	DB	013H
	DB	013H
	DB	013H
	DB	013H
	DB	013H
	DB	013H
	DB	013H
	DB	013H
	DB	0bH
	DB	040H
	DB	0bH
	DB	0fH
	DB	013H
	DB	013H
	DB	0bH
	DB	013H
	DB	0bH
	DB	013H
	DB	013H
	DB	0bH
	DB	0bH
	DB	0bH
	DB	0bH
	DB	013H
	DB	0bH
	DB	0bH
	DB	0bH
	DB	0bH
	DB	0bH
	DB	016H
	DB	07H
	DB	055H
	DB	07H
	DB	07H
	DB	018H
	DB	04aH
	DB	040H
	DB	0bH
	DB	03H
	DB	040H
	DB	0fH
	DB	05H
	DB	05H
	DB	04fH
	DB	047H
	DB	047H
	DB	046H
	DB	02H
	DB	05aH
	DB	04eH
	DB	07dH
	DB	014H
	DB	014H
	DB	014H
	DB	011H
	DB	011H
	DB	0eH
	DB	011H
	DB	010H
	DB	010H
	DB	014H
	DB	031H
	DB	02fH
	DB	01eH
	DB	053H
	DB	053H
	DB	01eH
	DB	01eH
	DB	02H
	DB	092H
	DB	02H
	DB	092H
	DB	027H
	DB	027H
	DB	027H
	DB	027H
	DB	027H
	DB	027H
	DB	02H
	DB	02H
	DB	027H
	DB	02eH
	DB	027H
	DB	027H
	DB	02H
	DB	02H
	DB	02H
	DB	02H
	DB	02H
	DB	01eH
	DB	00H
	DB	01eH
	DB	053H
	DB	01cH
	DB	05H
	DB	046H
	DB	01dH
	DB	01dH
	DB	0b9H
	DB	051H
	DB	08dH
	DB	011H
	DB	0eH
	DB	059H
	DB	06cH
	DB	099H
	DB	030H
	DB	0c8H
	DB	03dH
	DB	027H
	DB	092H
	DB	02H
	DB	03dH
	DB	022H
	DB	029H
	DB	09H
	DB	09H
	DB	09H
	DB	09H
	DB	09H
	DB	09H
	DB	09H
	DB	09H
	DB	019H
	DB	02cH
	DB	02cH
	DB	02cH
	DB	019H
	DB	012H
	DB	012H
	DB	09H
	DB	09H
	DB	09H
	DB	09H
	DB	09H
	DB	09H
	DB	09H
	DB	09H
	DB	09H
	DB	09H
	DB	09H
	DB	09H
	DB	09H
	DB	09H
	DB	09H
	DB	019H
	DB	01eH
	DB	00H
	DB	00H
	DB	00H
	DB	00H
	DB	00H
	DB	00H
	DB	00H
	DB	00H
	DB	00H
	DB	02H
	DB	050H
	DB	08H
	DB	0fH
	DB	0fH
	DB	0bH
	DB	08H
	DB	04fH
	DB	04fH
	DB	05H
	DB	0ceH
	DB	013H
	DB	0fH
	DB	0fH
	DB	0fH
	DB	0bH
	DB	08H
	DB	02aH
	DB	01aH
	DB	0bH
	DB	0fH
	DB	013H
	DB	013H
	DB	013H
	DB	013H
	DB	013H
	DB	013H
	DB	013H
	DB	013H
	DB	0bH
	DB	0bH
	DB	040H
	DB	0c6H
	DB	040H
	DB	013H
	DB	013H
	DB	0bH
	DB	0bH
	DB	013H
	DB	0bH
	DB	013H
	DB	013H
	DB	013H
	DB	0bH
	DB	0bH
	DB	013H
	DB	0bH
	DB	0bH
	DB	0bH
	DB	0bH
	DB	0bH
	DB	0c6H
	DB	07eH
	DB	055H
	DB	07H
	DB	07H
	DB	018H
	DB	057H
	DB	0bH
	DB	0fH
	DB	03H
	DB	040H
	DB	026H
	DB	018H
	DB	047H
	DB	047H
	DB	047H
	DB	047H
	DB	05H
	DB	04eH
	DB	03cH
	DB	014H
	DB	014H
	DB	014H
	DB	011H
	DB	011H
	DB	011H
	DB	011H
	DB	014H
	DB	010H
	DB	010H
	DB	010H
	DB	010H
	DB	011H
	DB	037H
	DB	02fH
	DB	063H
	DB	01eH
	DB	01eH
	DB	02fH
	DB	02H
	DB	02H
	DB	02H
	DB	092H
	DB	092H
	DB	027H
	DB	027H
	DB	027H
	DB	02H
	DB	02H
	DB	027H
	DB	027H
	DB	027H
	DB	092H
	DB	02H
	DB	02H
	DB	02H
	DB	02H
	DB	027H
	DB	02H
	DB	063H
	DB	01eH
	DB	01eH
	DB	053H
	DB	0c9H
	DB	05H
	DB	01dH
	DB	01H
	DB	01fH
	DB	036H
	DB	09dH
	DB	08dH
	DB	0eH
	DB	024H
	DB	059H
	DB	06cH
	DB	0acH
	DB	022H
	DB	032H
	DB	02H
	DB	027H
	DB	027H
	DB	092H
	DB	02H
	DB	02H
	DB	03dH
	DB	022H
	DB	02cH
	DB	019H
	DB	09H
	DB	09H
	DB	09H
	DB	09H
	DB	09H
	DB	09H
	DB	09H
	DB	029H
	DB	041H
	DB	041H
	DB	019H
	DB	09H
	DB	09H
	DB	09H
	DB	09H
	DB	09H
	DB	09H
	DB	09H
	DB	09H
	DB	09H
	DB	09H
	DB	09H
	DB	09H
	DB	09H
	DB	09H
	DB	09H
	DB	09H
	DB	09H
	DB	019H
	DB	01eH
	DB	00H
	DB	00H
	DB	00H
	DB	00H
	DB	00H
	DB	00H
	DB	00H
	DB	00H
	DB	00H
	DB	00H
	DB	00H
	DB	055H
	DB	013H
	DB	0fH
	DB	0bH
	DB	01aH
	DB	07H
	DB	07H
	DB	0baH
	DB	0ceH
	DB	013H
	DB	0fH
	DB	0fH
	DB	0fH
	DB	0bH
	DB	08H
	DB	02aH
	DB	01aH
	DB	013H
	DB	013H
	DB	0fH
	DB	0fH
	DB	013H
	DB	0fH
	DB	0fH
	DB	013H
	DB	013H
	DB	013H
	DB	0bH
	DB	040H
	DB	06fH
	DB	0a4H
	DB	0b6H
	DB	013H
	DB	013H
	DB	013H
	DB	0bH
	DB	013H
	DB	0bH
	DB	013H
	DB	013H
	DB	0bH
	DB	0bH
	DB	013H
	DB	013H
	DB	0bH
	DB	0bH
	DB	0bH
	DB	0bH
	DB	013H
	DB	016H
	DB	0dH
	DB	01dH
	DB	07H
	DB	07H
	DB	018H
	DB	0cH
	DB	0bH
	DB	0bH
	DB	0fH
	DB	040H
	DB	08H
	DB	047H
	DB	07H
	DB	047H
	DB	047H
	DB	047H
	DB	045H
	DB	03cH
	DB	014H
	DB	014H
	DB	011H
	DB	011H
	DB	011H
	DB	011H
	DB	014H
	DB	010H
	DB	010H
	DB	010H
	DB	010H
	DB	014H
	DB	010H
	DB	014H
	DB	011H
	DB	034H
	DB	063H
	DB	01eH
	DB	02fH
	DB	02fH
	DB	063H
	DB	02H
	DB	02H
	DB	02H
	DB	02H
	DB	027H
	DB	027H
	DB	02H
	DB	02H
	DB	02H
	DB	027H
	DB	027H
	DB	02H
	DB	02H
	DB	02H
	DB	02H
	DB	02H
	DB	02H
	DB	063H
	DB	01eH
	DB	01eH
	DB	01eH
	DB	092H
	DB	055H
	DB	05H
	DB	01dH
	DB	01H
	DB	093H
	DB	097H
	DB	08dH
	DB	08dH
	DB	024H
	DB	059H
	DB	06cH
	DB	05fH
	DB	033H
	DB	032H
	DB	03dH
	DB	092H
	DB	092H
	DB	027H
	DB	02H
	DB	02H
	DB	02H
	DB	02H
	DB	02H
	DB	03dH
	DB	02fH
	DB	022H
	DB	033H
	DB	02cH
	DB	029H
	DB	019H
	DB	019H
	DB	029H
	DB	041H
	DB	022H
	DB	022H
	DB	02cH
	DB	019H
	DB	09H
	DB	09H
	DB	09H
	DB	09H
	DB	09H
	DB	09H
	DB	09H
	DB	09H
	DB	09H
	DB	09H
	DB	09H
	DB	09H
	DB	09H
	DB	09H
	DB	09H
	DB	09H
	DB	09H
	DB	019H
	DB	01eH
	DB	00H
	DB	00H
	DB	00H
	DB	00H
	DB	00H
	DB	00H
	DB	00H
	DB	00H
	DB	00H
	DB	00H
	DB	00H
	DB	06H
	DB	0fH
	DB	0fH
	DB	0bH
	DB	0fH
	DB	020H
	DB	07H
	DB	0baH
	DB	0cH
	DB	0fH
	DB	0fH
	DB	0fH
	DB	0fH
	DB	0bH
	DB	03H
	DB	03H
	DB	01aH
	DB	013H
	DB	013H
	DB	0fH
	DB	013H
	DB	0bH
	DB	013H
	DB	0fH
	DB	013H
	DB	0fH
	DB	013H
	DB	013H
	DB	0fH
	DB	0bH
	DB	016H
	DB	016H
	DB	06fH
	DB	0fH
	DB	0bH
	DB	013H
	DB	0bH
	DB	013H
	DB	0bH
	DB	0bH
	DB	0bH
	DB	0bH
	DB	0bH
	DB	013H
	DB	0bH
	DB	0bH
	DB	0bH
	DB	0bH
	DB	0bH
	DB	016H
	DB	04aH
	DB	01dH
	DB	07H
	DB	07H
	DB	04fH
	DB	050H
	DB	013H
	DB	0bH
	DB	013H
	DB	040H
	DB	01aH
	DB	047H
	DB	07H
	DB	047H
	DB	047H
	DB	018H
	DB	045H
	DB	0c0H
	DB	011H
	DB	011H
	DB	011H
	DB	011H
	DB	010H
	DB	010H
	DB	010H
	DB	010H
	DB	010H
	DB	010H
	DB	010H
	DB	010H
	DB	010H
	DB	010H
	DB	010H
	DB	080H
	DB	074H
	DB	032H
	DB	01eH
	DB	02fH
	DB	0c8H
	DB	02H
	DB	02H
	DB	02H
	DB	02H
	DB	092H
	DB	02H
	DB	02H
	DB	02H
	DB	02H
	DB	02H
	DB	02H
	DB	02H
	DB	02H
	DB	02H
	DB	02H
	DB	02H
	DB	0c8H
	DB	01eH
	DB	0c8H
	DB	063H
	DB	02H
	DB	01H
	DB	046H
	DB	01H
	DB	0a8H
	DB	036H
	DB	09fH
	DB	08dH
	DB	08dH
	DB	024H
	DB	059H
	DB	099H
	DB	070H
	DB	032H
	DB	032H
	DB	02H
	DB	092H
	DB	092H
	DB	02H
	DB	02H
	DB	02H
	DB	027H
	DB	027H
	DB	092H
	DB	02H
	DB	02H
	DB	03dH
	DB	03dH
	DB	032H
	DB	0c8H
	DB	01eH
	DB	022H
	DB	022H
	DB	01eH
	DB	032H
	DB	032H
	DB	033H
	DB	09H
	DB	019H
	DB	09H
	DB	09H
	DB	09H
	DB	09H
	DB	09H
	DB	09H
	DB	09H
	DB	09H
	DB	09H
	DB	09H
	DB	09H
	DB	09H
	DB	09H
	DB	09H
	DB	09H
	DB	09H
	DB	09H
	DB	019H
	DB	01eH
	DB	00H
	DB	00H
	DB	00H
	DB	00H
	DB	00H
	DB	00H
	DB	00H
	DB	00H
	DB	00H
	DB	00H
	DB	00H
	DB	053H
	DB	03H
	DB	0fH
	DB	0bH
	DB	0bH
	DB	050H
	DB	07H
	DB	04fH
	DB	050H
	DB	0fH
	DB	0fH
	DB	0fH
	DB	0fH
	DB	040H
	DB	0fH
	DB	03H
	DB	02aH
	DB	013H
	DB	013H
	DB	013H
	DB	013H
	DB	013H
	DB	0fH
	DB	0fH
	DB	013H
	DB	0fH
	DB	0fH
	DB	0fH
	DB	013H
	DB	0fH
	DB	016H
	DB	040H
	DB	016H
	DB	0fH
	DB	0bH
	DB	013H
	DB	013H
	DB	0bH
	DB	013H
	DB	0bH
	DB	0bH
	DB	0bH
	DB	0bH
	DB	013H
	DB	013H
	DB	0bH
	DB	0bH
	DB	0bH
	DB	013H
	DB	016H
	DB	0aH
	DB	01dH
	DB	047H
	DB	07H
	DB	04fH
	DB	020H
	DB	0fH
	DB	013H
	DB	0fH
	DB	040H
	DB	0fH
	DB	047H
	DB	07H
	DB	047H
	DB	047H
	DB	047H
	DB	07H
	DB	043H
	DB	011H
	DB	011H
	DB	014H
	DB	010H
	DB	010H
	DB	010H
	DB	010H
	DB	010H
	DB	010H
	DB	010H
	DB	010H
	DB	010H
	DB	010H
	DB	010H
	DB	010H
	DB	014H
	DB	031H
	DB	02fH
	DB	032H
	DB	02fH
	DB	02H
	DB	063H
	DB	02H
	DB	02H
	DB	02H
	DB	02H
	DB	02H
	DB	092H
	DB	02H
	DB	02H
	DB	02H
	DB	02H
	DB	02H
	DB	02H
	DB	02H
	DB	063H
	DB	0c8H
	DB	0c8H
	DB	063H
	DB	063H
	DB	092H
	DB	015H
	DB	01dH
	DB	0c9H
	DB	056H
	DB	09dH
	DB	08dH
	DB	0eH
	DB	0eH
	DB	024H
	DB	059H
	DB	05fH
	DB	068H
	DB	00H
	DB	032H
	DB	063H
	DB	02H
	DB	02H
	DB	02H
	DB	02H
	DB	02H
	DB	092H
	DB	02H
	DB	027H
	DB	027H
	DB	02H
	DB	02H
	DB	02H
	DB	063H
	DB	032H
	DB	032H
	DB	032H
	DB	032H
	DB	032H
	DB	032H
	DB	00H
	DB	00H
	DB	033H
	DB	09H
	DB	019H
	DB	019H
	DB	09H
	DB	09H
	DB	09H
	DB	09H
	DB	09H
	DB	09H
	DB	09H
	DB	09H
	DB	09H
	DB	09H
	DB	09H
	DB	09H
	DB	09H
	DB	09H
	DB	09H
	DB	09H
	DB	019H
	DB	01eH
	DB	00H
	DB	00H
	DB	00H
	DB	00H
	DB	00H
	DB	00H
	DB	00H
	DB	00H
	DB	00H
	DB	00H
	DB	00H
	DB	02H
	DB	08H
	DB	0fH
	DB	013H
	DB	0bH
	DB	0cH
	DB	07H
	DB	04fH
	DB	07H
	DB	03H
	DB	013H
	DB	0fH
	DB	03H
	DB	040H
	DB	0fH
	DB	03H
	DB	02aH
	DB	0fH
	DB	013H
	DB	013H
	DB	0fH
	DB	0fH
	DB	013H
	DB	013H
	DB	013H
	DB	013H
	DB	0fH
	DB	0fH
	DB	013H
	DB	040H
	DB	08H
	DB	0aH
	DB	040H
	DB	013H
	DB	013H
	DB	013H
	DB	013H
	DB	013H
	DB	013H
	DB	0bH
	DB	013H
	DB	0bH
	DB	0bH
	DB	013H
	DB	013H
	DB	0bH
	DB	0bH
	DB	0bH
	DB	013H
	DB	016H
	DB	08H
	DB	01dH
	DB	04fH
	DB	04fH
	DB	05H
	DB	07H
	DB	03H
	DB	013H
	DB	03H
	DB	013H
	DB	0fH
	DB	07H
	DB	07H
	DB	07H
	DB	07H
	DB	047H
	DB	084H
	DB	067H
	DB	011H
	DB	014H
	DB	010H
	DB	010H
	DB	010H
	DB	010H
	DB	010H
	DB	010H
	DB	010H
	DB	010H
	DB	010H
	DB	010H
	DB	010H
	DB	010H
	DB	010H
	DB	010H
	DB	014H
	DB	04eH
	DB	02fH
	DB	063H
	DB	02H
	DB	02H
	DB	02H
	DB	02H
	DB	02H
	DB	02H
	DB	02H
	DB	02H
	DB	02H
	DB	063H
	DB	063H
	DB	063H
	DB	02H
	DB	02H
	DB	063H
	DB	063H
	DB	02fH
	DB	02H
	DB	0c8H
	DB	02fH
	DB	022H
	DB	05bH
	DB	0a6H
	DB	05fH
	DB	09aH
	DB	08dH
	DB	0eH
	DB	0eH
	DB	024H
	DB	059H
	DB	0acH
	DB	02fH
	DB	00H
	DB	01eH
	DB	063H
	DB	063H
	DB	063H
	DB	063H
	DB	02H
	DB	02H
	DB	02H
	DB	02H
	DB	092H
	DB	027H
	DB	027H
	DB	02H
	DB	02H
	DB	02H
	DB	063H
	DB	063H
	DB	0c8H
	DB	01eH
	DB	0c8H
	DB	032H
	DB	00H
	DB	01eH
	DB	033H
	DB	029H
	DB	09H
	DB	044H
	DB	044H
	DB	09H
	DB	09H
	DB	09H
	DB	09H
	DB	09H
	DB	09H
	DB	012H
	DB	012H
	DB	012H
	DB	012H
	DB	012H
	DB	012H
	DB	012H
	DB	012H
	DB	012H
	DB	09H
	DB	019H
	DB	01eH
	DB	00H
	DB	00H
	DB	00H
	DB	00H
	DB	00H
	DB	00H
	DB	00H
	DB	00H
	DB	00H
	DB	00H
	DB	00H
	DB	0c8H
	DB	0aH
	DB	0fH
	DB	0fH
	DB	040H
	DB	0cH
	DB	07H
	DB	04fH
	DB	07H
	DB	01aH
	DB	013H
	DB	0fH
	DB	03H
	DB	0bH
	DB	013H
	DB	0fH
	DB	02aH
	DB	0fH
	DB	0fH
	DB	0fH
	DB	0fH
	DB	0fH
	DB	013H
	DB	0fH
	DB	013H
	DB	0fH
	DB	0fH
	DB	03H
	DB	03H
	DB	02bH
	DB	018H
	DB	026H
	DB	0bH
	DB	0bH
	DB	013H
	DB	013H
	DB	013H
	DB	013H
	DB	0bH
	DB	013H
	DB	013H
	DB	0bH
	DB	0bH
	DB	013H
	DB	013H
	DB	0bH
	DB	0bH
	DB	0bH
	DB	013H
	DB	016H
	DB	026H
	DB	01H
	DB	05H
	DB	018H
	DB	05H
	DB	04fH
	DB	0fH
	DB	06fH
	DB	040H
	DB	06fH
	DB	040H
	DB	047H
	DB	046H
	DB	05H
	DB	046H
	DB	046H
	DB	01dH
	DB	01H
	DB	077H
	DB	067H
	DB	039H
	DB	014H
	DB	010H
	DB	010H
	DB	014H
	DB	014H
	DB	010H
	DB	010H
	DB	010H
	DB	010H
	DB	010H
	DB	010H
	DB	010H
	DB	010H
	DB	014H
	DB	03cH
	DB	030H
	DB	032H
	DB	02H
	DB	053H
	DB	02H
	DB	02H
	DB	02H
	DB	02H
	DB	063H
	DB	063H
	DB	063H
	DB	02H
	DB	02H
	DB	02H
	DB	02H
	DB	063H
	DB	02H
	DB	02H
	DB	033H
	DB	065H
	DB	0abH
	DB	075H
	DB	033H
	DB	02cH
	DB	019H
	DB	09H
	DB	060H
	DB	0d5H
	DB	024H
	DB	024H
	DB	096H
	DB	030H
	DB	0c8H
	DB	01eH
	DB	01eH
	DB	01eH
	DB	01eH
	DB	01eH
	DB	063H
	DB	02fH
	DB	02H
	DB	02H
	DB	02H
	DB	02H
	DB	092H
	DB	027H
	DB	027H
	DB	027H
	DB	027H
	DB	02H
	DB	02H
	DB	063H
	DB	063H
	DB	063H
	DB	032H
	DB	00H
	DB	022H
	DB	02cH
	DB	09H
	DB	09H
	DB	012H
	DB	012H
	DB	044H
	DB	044H
	DB	044H
	DB	044H
	DB	012H
	DB	09H
	DB	09H
	DB	09H
	DB	09H
	DB	09H
	DB	09H
	DB	09H
	DB	09H
	DB	012H
	DB	012H
	DB	012H
	DB	09H
	DB	029H
	DB	01eH
	DB	00H
	DB	00H
	DB	00H
	DB	00H
	DB	00H
	DB	00H
	DB	00H
	DB	00H
	DB	00H
	DB	00H
	DB	00H
	DB	00H
	DB	0dH
	DB	0fH
	DB	0fH
	DB	06fH
	DB	057H
	DB	04fH
	DB	0baH
	DB	05H
	DB	026H
	DB	013H
	DB	0fH
	DB	03H
	DB	0bH
	DB	040H
	DB	03H
	DB	01aH
	DB	03H
	DB	0fH
	DB	0fH
	DB	0fH
	DB	0fH
	DB	013H
	DB	0fH
	DB	0fH
	DB	0fH
	DB	013H
	DB	0fH
	DB	02aH
	DB	04aH
	DB	026H
	DB	013H
	DB	013H
	DB	013H
	DB	013H
	DB	013H
	DB	013H
	DB	0bH
	DB	0bH
	DB	0bH
	DB	013H
	DB	0bH
	DB	0bH
	DB	0fH
	DB	013H
	DB	0bH
	DB	0bH
	DB	0bH
	DB	0bH
	DB	016H
	DB	04aH
	DB	01H
	DB	018H
	DB	05H
	DB	05H
	DB	04fH
	DB	013H
	DB	016H
	DB	0c6H
	DB	016H
	DB	0feH
	DB	0bH
	DB	0cH
	DB	046H
	DB	046H
	DB	046H
	DB	01dH
	DB	046H
	DB	084H
	DB	047H
	DB	043H
	DB	014H
	DB	010H
	DB	010H
	DB	010H
	DB	010H
	DB	010H
	DB	010H
	DB	010H
	DB	010H
	DB	010H
	DB	010H
	DB	010H
	DB	010H
	DB	010H
	DB	062H
	DB	086H
	DB	063H
	DB	063H
	DB	02H
	DB	02H
	DB	063H
	DB	02fH
	DB	02fH
	DB	02H
	DB	02H
	DB	02H
	DB	02H
	DB	063H
	DB	063H
	DB	063H
	DB	02H
	DB	02H
	DB	05cH
	DB	06aH
	DB	0d6H
	DB	0c7H
	DB	081H
	DB	064H
	DB	02cH
	DB	09H
	DB	09H
	DB	09H
	DB	07aH
	DB	0adH
	DB	030H
	DB	02fH
	DB	00H
	DB	032H
	DB	01eH
	DB	0c8H
	DB	01eH
	DB	01eH
	DB	01eH
	DB	02fH
	DB	063H
	DB	063H
	DB	063H
	DB	02H
	DB	02H
	DB	02H
	DB	02H
	DB	027H
	DB	027H
	DB	02H
	DB	02H
	DB	027H
	DB	02H
	DB	027H
	DB	02H
	DB	03dH
	DB	033H
	DB	019H
	DB	09H
	DB	09H
	DB	09H
	DB	09H
	DB	012H
	DB	012H
	DB	012H
	DB	012H
	DB	044H
	DB	09H
	DB	019H
	DB	019H
	DB	019H
	DB	019H
	DB	09H
	DB	09H
	DB	09H
	DB	09H
	DB	09H
	DB	09H
	DB	09H
	DB	012H
	DB	054H
	DB	00H
	DB	00H
	DB	00H
	DB	00H
	DB	00H
	DB	00H
	DB	00H
	DB	00H
	DB	00H
	DB	00H
	DB	00H
	DB	02H
	DB	0dH
	DB	03H
	DB	03H
	DB	03H
	DB	06fH
	DB	04aH
	DB	05H
	DB	0baH
	DB	055H
	DB	0dH
	DB	0bH
	DB	0fH
	DB	03H
	DB	0fH
	DB	040H
	DB	03H
	DB	03H
	DB	02aH
	DB	0fH
	DB	0fH
	DB	0fH
	DB	013H
	DB	0fH
	DB	0fH
	DB	0fH
	DB	0fH
	DB	0fH
	DB	0fH
	DB	013H
	DB	0bH
	DB	0bH
	DB	013H
	DB	013H
	DB	0fH
	DB	013H
	DB	013H
	DB	013H
	DB	013H
	DB	0bH
	DB	0bH
	DB	0bH
	DB	013H
	DB	013H
	DB	013H
	DB	013H
	DB	0bH
	DB	0bH
	DB	0bH
	DB	0bH
	DB	016H
	DB	0dH
	DB	01H
	DB	018H
	DB	05H
	DB	05H
	DB	07H
	DB	0bH
	DB	016H
	DB	016H
	DB	016H
	DB	016H
	DB	0b6H
	DB	0ffH
	DB	06fH
	DB	018H
	DB	047H
	DB	020H
	DB	0cH
	DB	017H
	DB	072H
	DB	062H
	DB	014H
	DB	010H
	DB	010H
	DB	010H
	DB	010H
	DB	010H
	DB	010H
	DB	010H
	DB	010H
	DB	010H
	DB	010H
	DB	010H
	DB	010H
	DB	03cH
	DB	088H
	DB	027H
	DB	02H
	DB	02H
	DB	02H
	DB	02H
	DB	02fH
	DB	02H
	DB	02H
	DB	02H
	DB	02H
	DB	02H
	DB	02H
	DB	02H
	DB	02H
	DB	02H
	DB	0c8H
	DB	022H
	DB	07fH
	DB	0f2H
	DB	07fH
	DB	02bH
	DB	0c7H
	DB	089H
	DB	021H
	DB	02cH
	DB	019H
	DB	07aH
	DB	094H
	DB	033H
	DB	033H
	DB	041H
	DB	02cH
	DB	02cH
	DB	041H
	DB	022H
	DB	01eH
	DB	0c8H
	DB	01eH
	DB	01eH
	DB	01eH
	DB	063H
	DB	063H
	DB	063H
	DB	063H
	DB	02H
	DB	02H
	DB	02H
	DB	092H
	DB	027H
	DB	027H
	DB	02eH
	DB	02eH
	DB	027H
	DB	092H
	DB	049H
	DB	012H
	DB	012H
	DB	012H
	DB	049H
	DB	054H
	DB	019H
	DB	09H
	DB	09H
	DB	09H
	DB	09H
	DB	019H
	DB	029H
	DB	029H
	DB	019H
	DB	019H
	DB	029H
	DB	029H
	DB	09H
	DB	09H
	DB	09H
	DB	09H
	DB	09H
	DB	09H
	DB	049H
	DB	06H
	DB	00H
	DB	00H
	DB	00H
	DB	00H
	DB	00H
	DB	00H
	DB	00H
	DB	00H
	DB	00H
	DB	00H
	DB	00H
	DB	07H
	DB	06fH
	DB	01aH
	DB	03H
	DB	03H
	DB	040H
	DB	02aH
	DB	05H
	DB	0baH
	DB	055H
	DB	050H
	DB	0fH
	DB	03H
	DB	03H
	DB	03H
	DB	040H
	DB	08H
	DB	01aH
	DB	08H
	DB	0fH
	DB	0fH
	DB	0fH
	DB	0fH
	DB	0fH
	DB	0fH
	DB	0fH
	DB	0fH
	DB	0fH
	DB	0fH
	DB	0fH
	DB	0fH
	DB	013H
	DB	0fH
	DB	0fH
	DB	013H
	DB	013H
	DB	013H
	DB	013H
	DB	013H
	DB	0bH
	DB	0bH
	DB	013H
	DB	0bH
	DB	013H
	DB	0fH
	DB	013H
	DB	0bH
	DB	0bH
	DB	0bH
	DB	0bH
	DB	016H
	DB	057H
	DB	01H
	DB	018H
	DB	05H
	DB	055H
	DB	07H
	DB	0bH
	DB	06fH
	DB	06fH
	DB	016H
	DB	016H
	DB	06fH
	DB	0c6H
	DB	0feH
	DB	0dH
	DB	017H
	DB	057H
	DB	057H
	DB	017H
	DB	0bcH
	DB	039H
	DB	010H
	DB	010H
	DB	010H
	DB	010H
	DB	010H
	DB	010H
	DB	010H
	DB	010H
	DB	010H
	DB	010H
	DB	010H
	DB	03cH
	DB	04eH
	DB	035H
	DB	032H
	DB	02H
	DB	053H
	DB	053H
	DB	02H
	DB	02H
	DB	02H
	DB	063H
	DB	063H
	DB	063H
	DB	063H
	DB	063H
	DB	02H
	DB	02H
	DB	06H
	DB	01H
	DB	053H
	DB	033H
	DB	058H
	DB	0d6H
	DB	094H
	DB	01cH
	DB	03aH
	DB	0abH
	DB	06H
	DB	05bH
	DB	05cH
	DB	064H
	DB	041H
	DB	029H
	DB	09H
	DB	09H
	DB	09H
	DB	09H
	DB	09H
	DB	019H
	DB	041H
	DB	01eH
	DB	01eH
	DB	01eH
	DB	01eH
	DB	01eH
	DB	0c8H
	DB	063H
	DB	063H
	DB	063H
	DB	02H
	DB	02H
	DB	02eH
	DB	06H
	DB	06H
	DB	02eH
	DB	02H
	DB	03dH
	DB	0a6H
	DB	07aH
	DB	07aH
	DB	058H
	DB	05cH
	DB	02eH
	DB	02eH
	DB	0a6H
	DB	029H
	DB	09H
	DB	09H
	DB	029H
	DB	041H
	DB	02cH
	DB	029H
	DB	019H
	DB	09H
	DB	029H
	DB	041H
	DB	029H
	DB	09H
	DB	09H
	DB	09H
	DB	09H
	DB	049H
	DB	015H
	DB	06H
	DB	00H
	DB	00H
	DB	00H
	DB	00H
	DB	00H
	DB	00H
	DB	00H
	DB	00H
	DB	00H
	DB	00H
	DB	00H
	DB	01H
	DB	03H
	DB	02aH
	DB	082H
	DB	082H
	DB	0fH
	DB	0fH
	DB	04fH
	DB	0baH
	DB	05H
	DB	04fH
	DB	03H
	DB	0fH
	DB	03H
	DB	03H
	DB	0bH
	DB	01aH
	DB	08H
	DB	02aH
	DB	03H
	DB	0fH
	DB	03H
	DB	03H
	DB	0fH
	DB	03H
	DB	0fH
	DB	03H
	DB	0fH
	DB	0fH
	DB	0fH
	DB	0fH
	DB	0fH
	DB	0fH
	DB	0fH
	DB	0fH
	DB	013H
	DB	0fH
	DB	0fH
	DB	013H
	DB	0bH
	DB	0fH
	DB	0fH
	DB	013H
	DB	0fH
	DB	0fH
	DB	0bH
	DB	0bH
	DB	0fH
	DB	013H
	DB	0bH
	DB	016H
	DB	0cH
	DB	01dH
	DB	05H
	DB	055H
	DB	01H
	DB	07H
	DB	0bH
	DB	06fH
	DB	040H
	DB	016H
	DB	016H
	DB	016H
	DB	0b6H
	DB	0b6H
	DB	0dH
	DB	017H
	DB	017H
	DB	017H
	DB	017H
	DB	0bcH
	DB	039H
	DB	010H
	DB	010H
	DB	010H
	DB	010H
	DB	010H
	DB	010H
	DB	010H
	DB	010H
	DB	010H
	DB	039H
	DB	06dH
	DB	035H
	DB	032H
	DB	02H
	DB	06H
	DB	021H
	DB	021H
	DB	06H
	DB	021H
	DB	053H
	DB	02H
	DB	02H
	DB	063H
	DB	063H
	DB	02H
	DB	092H
	DB	06H
	DB	03eH
	DB	01cH
	DB	055H
	DB	0adH
	DB	073H
	DB	09H
	DB	09H
	DB	049H
	DB	035H
	DB	06H
	DB	018H
	DB	020H
	DB	075H
	DB	03dH
	DB	022H
	DB	019H
	DB	09H
	DB	09H
	DB	012H
	DB	025H
	DB	025H
	DB	025H
	DB	09H
	DB	09H
	DB	041H
	DB	01eH
	DB	01eH
	DB	01eH
	DB	01eH
	DB	01eH
	DB	063H
	DB	063H
	DB	02H
	DB	02H
	DB	053H
	DB	06H
	DB	02eH
	DB	027H
	DB	02H
	DB	02H
	DB	02H
	DB	05bH
	DB	0a6H
	DB	064H
	DB	021H
	DB	06H
	DB	02eH
	DB	06H
	DB	06H
	DB	021H
	DB	054H
	DB	049H
	DB	064H
	DB	0a6H
	DB	019H
	DB	09H
	DB	09H
	DB	09H
	DB	019H
	DB	029H
	DB	019H
	DB	09H
	DB	09H
	DB	09H
	DB	049H
	DB	015H
	DB	015H
	DB	06H
	DB	00H
	DB	00H
	DB	00H
	DB	00H
	DB	00H
	DB	00H
	DB	00H
	DB	00H
	DB	00H
	DB	00H
	DB	00H
	DB	092H
	DB	08H
	DB	02aH
	DB	02aH
	DB	02aH
	DB	03H
	DB	0bH
	DB	050H
	DB	05H
	DB	05H
	DB	055H
	DB	02bH
	DB	0fH
	DB	03H
	DB	03H
	DB	03H
	DB	013H
	DB	026H
	DB	01aH
	DB	02aH
	DB	0fH
	DB	03H
	DB	03H
	DB	03H
	DB	03H
	DB	0fH
	DB	03H
	DB	03H
	DB	0fH
	DB	0fH
	DB	0fH
	DB	0fH
	DB	0fH
	DB	0fH
	DB	0fH
	DB	0fH
	DB	013H
	DB	013H
	DB	0fH
	DB	013H
	DB	0fH
	DB	0fH
	DB	013H
	DB	0fH
	DB	0fH
	DB	0bH
	DB	013H
	DB	0fH
	DB	013H
	DB	0bH
	DB	0bH
	DB	018H
	DB	01dH
	DB	01dH
	DB	01bH
	DB	06H
	DB	07H
	DB	040H
	DB	040H
	DB	06fH
	DB	016H
	DB	016H
	DB	016H
	DB	0b6H
	DB	0c6H
	DB	017H
	DB	057H
	DB	017H
	DB	017H
	DB	04bH
	DB	0afH
	DB	010H
	DB	014H
	DB	014H
	DB	010H
	DB	010H
	DB	010H
	DB	010H
	DB	014H
	DB	039H
	DB	06dH
	DB	05aH
	DB	032H
	DB	063H
	DB	06H
	DB	01H
	DB	01cH
	DB	01H
	DB	01H
	DB	01cH
	DB	01fH
	DB	01H
	DB	06H
	DB	092H
	DB	02H
	DB	092H
	DB	06H
	DB	01H
	DB	0c9H
	DB	055H
	DB	01cH
	DB	036H
	DB	024H
	DB	06cH
	DB	09H
	DB	09H
	DB	019H
	DB	030H
	DB	022H
	DB	01H
	DB	01dH
	DB	02H
	DB	01eH
	DB	02cH
	DB	09H
	DB	09H
	DB	012H
	DB	025H
	DB	025H
	DB	098H
	DB	025H
	DB	012H
	DB	09H
	DB	019H
	DB	022H
	DB	0c8H
	DB	01eH
	DB	01eH
	DB	01eH
	DB	01eH
	DB	063H
	DB	02H
	DB	092H
	DB	027H
	DB	02H
	DB	02H
	DB	063H
	DB	02H
	DB	053H
	DB	06H
	DB	02eH
	DB	02eH
	DB	02eH
	DB	06H
	DB	06H
	DB	06H
	DB	06H
	DB	06H
	DB	06H
	DB	06H
	DB	075H
	DB	02eH
	DB	049H
	DB	09H
	DB	09H
	DB	09H
	DB	09H
	DB	09H
	DB	09H
	DB	09H
	DB	09H
	DB	09H
	DB	049H
	DB	015H
	DB	015H
	DB	03bH
	DB	06H
	DB	00H
	DB	00H
	DB	00H
	DB	00H
	DB	00H
	DB	00H
	DB	00H
	DB	00H
	DB	00H
	DB	00H
	DB	00H
	DB	00H
	DB	0aH
	DB	01aH
	DB	03aH
	DB	02aH
	DB	02aH
	DB	040H
	DB	057H
	DB	055H
	DB	055H
	DB	01H
	DB	0cH
	DB	0fH
	DB	03H
	DB	03H
	DB	01aH
	DB	0bH
	DB	0aH
	DB	026H
	DB	02aH
	DB	03H
	DB	03H
	DB	03H
	DB	03H
	DB	03H
	DB	03H
	DB	03H
	DB	03H
	DB	0fH
	DB	0fH
	DB	03H
	DB	0fH
	DB	0fH
	DB	0fH
	DB	0fH
	DB	0fH
	DB	0fH
	DB	0fH
	DB	0fH
	DB	0fH
	DB	0fH
	DB	0fH
	DB	0fH
	DB	0fH
	DB	013H
	DB	013H
	DB	013H
	DB	0fH
	DB	0fH
	DB	040H
	DB	08H
	DB	01H
	DB	05H
	DB	018H
	DB	055H
	DB	01bH
	DB	0cH
	DB	06fH
	DB	040H
	DB	06fH
	DB	06fH
	DB	016H
	DB	0c6H
	DB	023H
	DB	0c6H
	DB	0cH
	DB	0cH
	DB	05eH
	DB	078H
	DB	071H
	DB	039H
	DB	010H
	DB	010H
	DB	010H
	DB	010H
	DB	010H
	DB	010H
	DB	010H
	DB	031H
	DB	083H
	DB	01eH
	DB	063H
	DB	06H
	DB	01H
	DB	01cH
	DB	01cH
	DB	01cH
	DB	01H
	DB	01cH
	DB	0c9H
	DB	01cH
	DB	01cH
	DB	01cH
	DB	01cH
	DB	01H
	DB	01H
	DB	01cH
	DB	05H
	DB	05H
	DB	094H
	DB	073H
	DB	0eH
	DB	024H
	DB	066H
	DB	09H
	DB	09H
	DB	09H
	DB	05fH
	DB	068H
	DB	0c8H
	DB	0c8H
	DB	0c8H
	DB	022H
	DB	019H
	DB	09H
	DB	09H
	DB	025H
	DB	025H
	DB	025H
	DB	025H
	DB	025H
	DB	025H
	DB	09H
	DB	09H
	DB	041H
	DB	01eH
	DB	01eH
	DB	01eH
	DB	01eH
	DB	01eH
	DB	063H
	DB	063H
	DB	063H
	DB	063H
	DB	0c8H
	DB	063H
	DB	02H
	DB	06H
	DB	06H
	DB	06H
	DB	06H
	DB	06H
	DB	06H
	DB	06H
	DB	06H
	DB	06H
	DB	06H
	DB	06H
	DB	06H
	DB	06H
	DB	02eH
	DB	06H
	DB	049H
	DB	09H
	DB	09H
	DB	09H
	DB	09H
	DB	09H
	DB	09H
	DB	09H
	DB	09H
	DB	049H
	DB	015H
	DB	015H
	DB	01H
	DB	01H
	DB	075H
	DB	01eH
	DB	00H
	DB	00H
	DB	00H
	DB	00H
	DB	00H
	DB	00H
	DB	00H
	DB	00H
	DB	00H
	DB	00H
	DB	00H
	DB	018H
	DB	057H
	DB	08aH
	DB	02aH
	DB	08H
	DB	0bH
	DB	08H
	DB	01H
	DB	0c9H
	DB	01H
	DB	055H
	DB	01aH
	DB	0fH
	DB	03H
	DB	03H
	DB	0fH
	DB	01aH
	DB	057H
	DB	02aH
	DB	08H
	DB	03H
	DB	03H
	DB	03H
	DB	03H
	DB	03H
	DB	03H
	DB	03H
	DB	03H
	DB	03H
	DB	03H
	DB	0fH
	DB	03H
	DB	03H
	DB	03H
	DB	03H
	DB	0fH
	DB	0fH
	DB	0fH
	DB	0fH
	DB	0fH
	DB	0fH
	DB	03H
	DB	03H
	DB	013H
	DB	0fH
	DB	013H
	DB	0fH
	DB	0fH
	DB	040H
	DB	04aH
	DB	01bH
	DB	01dH
	DB	055H
	DB	055H
	DB	03bH
	DB	04aH
	DB	06fH
	DB	0bH
	DB	040H
	DB	016H
	DB	040H
	DB	013H
	DB	016H
	DB	02aH
	DB	018H
	DB	018H
	DB	071H
	DB	014H
	DB	010H
	DB	010H
	DB	010H
	DB	014H
	DB	014H
	DB	010H
	DB	010H
	DB	052H
	DB	034H
	DB	0c8H
	DB	032H
	DB	027H
	DB	03eH
	DB	01cH
	DB	01fH
	DB	01cH
	DB	01cH
	DB	01cH
	DB	01cH
	DB	01cH
	DB	01cH
	DB	01H
	DB	01cH
	DB	01cH
	DB	01fH
	DB	05H
	DB	05H
	DB	05H
	DB	05H
	DB	036H
	DB	024H
	DB	024H
	DB	024H
	DB	048H
	DB	019H
	DB	09H
	DB	09H
	DB	09H
	DB	060H
	DB	030H
	DB	0c8H
	DB	032H
	DB	02fH
	DB	033H
	DB	019H
	DB	09H
	DB	09H
	DB	012H
	DB	025H
	DB	098H
	DB	098H
	DB	038H
	DB	038H
	DB	025H
	DB	09H
	DB	029H
	DB	01eH
	DB	01eH
	DB	01eH
	DB	01eH
	DB	01eH
	DB	01eH
	DB	01eH
	DB	0c8H
	DB	0c8H
	DB	02H
	DB	053H
	DB	06H
	DB	06H
	DB	06H
	DB	06H
	DB	06H
	DB	06H
	DB	06H
	DB	06H
	DB	06H
	DB	06H
	DB	021H
	DB	03bH
	DB	021H
	DB	06H
	DB	06H
	DB	06H
	DB	058H
	DB	09H
	DB	09H
	DB	09H
	DB	09H
	DB	09H
	DB	09H
	DB	09H
	DB	058H
	DB	03eH
	DB	015H
	DB	015H
	DB	01H
	DB	01H
	DB	01bH
	DB	01eH
	DB	00H
	DB	00H
	DB	00H
	DB	00H
	DB	00H
	DB	00H
	DB	00H
	DB	00H
	DB	00H
	DB	00H
	DB	00H
	DB	00H
	DB	00H
	DB	043H
	DB	0f5H
	DB	03aH
	DB	03H
	DB	0bH
	DB	05H
	DB	01H
	DB	01H
	DB	03bH
	DB	04aH
	DB	0fH
	DB	01aH
	DB	01aH
	DB	01aH
	DB	0bH
	DB	0aH
	DB	04aH
	DB	08H
	DB	02aH
	DB	03H
	DB	03H
	DB	03H
	DB	03H
	DB	03H
	DB	03H
	DB	03H
	DB	03H
	DB	03H
	DB	03H
	DB	03H
	DB	03H
	DB	03H
	DB	03H
	DB	03H
	DB	03H
	DB	0fH
	DB	03H
	DB	0fH
	DB	03H
	DB	03H
	DB	03H
	DB	0fH
	DB	0fH
	DB	013H
	DB	0fH
	DB	0fH
	DB	0bH
	DB	07H
	DB	01bH
	DB	01H
	DB	01bH
	DB	06H
	DB	06H
	DB	01aH
	DB	06fH
	DB	0bH
	DB	0bH
	DB	016H
	DB	050H
	DB	01H
	DB	018H
	DB	01dH
	DB	018H
	DB	05eH
	DB	039H
	DB	014H
	DB	010H
	DB	010H
	DB	010H
	DB	010H
	DB	010H
	DB	07dH
	DB	03fH
	DB	02fH
	DB	032H
	DB	02H
	DB	06H
	DB	01H
	DB	01cH
	DB	01fH
	DB	01fH
	DB	01cH
	DB	01cH
	DB	01cH
	DB	01cH
	DB	01cH
	DB	055H
	DB	01fH
	DB	01cH
	DB	01cH
	DB	01fH
	DB	042H
	DB	055H
	DB	04dH
	DB	097H
	DB	024H
	DB	024H
	DB	024H
	DB	02dH
	DB	048H
	DB	029H
	DB	09H
	DB	09H
	DB	09H
	DB	09H
	DB	05fH
	DB	035H
	DB	03dH
	DB	03dH
	DB	033H
	DB	019H
	DB	09H
	DB	09H
	DB	09H
	DB	025H
	DB	038H
	DB	038H
	DB	038H
	DB	0daH
	DB	038H
	DB	09H
	DB	029H
	DB	01eH
	DB	01eH
	DB	01eH
	DB	01eH
	DB	01eH
	DB	01eH
	DB	0c8H
	DB	02H
	DB	092H
	DB	06H
	DB	06H
	DB	06H
	DB	06H
	DB	03bH
	DB	021H
	DB	06H
	DB	06H
	DB	01bH
	DB	03bH
	DB	021H
	DB	06H
	DB	03bH
	DB	03bH
	DB	06H
	DB	06H
	DB	06H
	DB	06H
	DB	02cH
	DB	09H
	DB	09H
	DB	09H
	DB	09H
	DB	09H
	DB	09H
	DB	09H
	DB	05cH
	DB	015H
	DB	01H
	DB	01H
	DB	01H
	DB	01H
	DB	03bH
	DB	01eH
	DB	00H
	DB	00H
	DB	00H
	DB	00H
	DB	00H
	DB	00H
	DB	00H
	DB	00H
	DB	00H
	DB	00H
	DB	00H
	DB	00H
	DB	00H
	DB	043H
	DB	0ebH
	DB	03aH
	DB	02aH
	DB	0bH
	DB	057H
	DB	03bH
	DB	0c9H
	DB	03bH
	DB	04fH
	DB	03H
	DB	03H
	DB	01aH
	DB	01aH
	DB	03H
	DB	0fH
	DB	0ceH
	DB	02bH
	DB	08H
	DB	01aH
	DB	03H
	DB	03H
	DB	01aH
	DB	03H
	DB	03H
	DB	03H
	DB	03H
	DB	03H
	DB	03H
	DB	03H
	DB	03H
	DB	03H
	DB	03H
	DB	03H
	DB	03H
	DB	03H
	DB	03H
	DB	03H
	DB	03H
	DB	03H
	DB	0fH
	DB	03H
	DB	0fH
	DB	0fH
	DB	03H
	DB	0bH
	DB	01aH
	DB	03bH
	DB	01bH
	DB	03bH
	DB	06H
	DB	02eH
	DB	0c9H
	DB	040H
	DB	0bH
	DB	013H
	DB	040H
	DB	0fH
	DB	01H
	DB	015H
	DB	01H
	DB	01dH
	DB	01H
	DB	095H
	DB	014H
	DB	014H
	DB	010H
	DB	010H
	DB	010H
	DB	03cH
	DB	037H
	DB	068H
	DB	032H
	DB	02H
	DB	06H
	DB	03bH
	DB	01cH
	DB	01cH
	DB	01cH
	DB	01cH
	DB	01cH
	DB	01H
	DB	01H
	DB	01cH
	DB	01fH
	DB	01fH
	DB	05H
	DB	05H
	DB	01fH
	DB	055H
	DB	05H
	DB	05H
	DB	0adH
	DB	02dH
	DB	024H
	DB	024H
	DB	024H
	DB	024H
	DB	073H
	DB	070H
	DB	02cH
	DB	09H
	DB	09H
	DB	019H
	DB	019H
	DB	060H
	DB	06bH
	DB	092H
	DB	032H
	DB	033H
	DB	019H
	DB	09H
	DB	09H
	DB	09H
	DB	025H
	DB	038H
	DB	038H
	DB	038H
	DB	0d8H
	DB	025H
	DB	019H
	DB	02cH
	DB	0c8H
	DB	0c8H
	DB	01eH
	DB	01eH
	DB	01eH
	DB	063H
	DB	092H
	DB	06H
	DB	06H
	DB	06H
	DB	06H
	DB	06H
	DB	06H
	DB	021H
	DB	06H
	DB	06H
	DB	06H
	DB	03bH
	DB	03bH
	DB	03bH
	DB	03bH
	DB	03bH
	DB	021H
	DB	06H
	DB	06H
	DB	06H
	DB	06H
	DB	02cH
	DB	09H
	DB	09H
	DB	09H
	DB	09H
	DB	09H
	DB	09H
	DB	058H
	DB	03bH
	DB	015H
	DB	01H
	DB	01H
	DB	01H
	DB	01H
	DB	01bH
	DB	01eH
	DB	00H
	DB	00H
	DB	00H
	DB	00H
	DB	00H
	DB	00H
	DB	00H
	DB	00H
	DB	00H
	DB	00H
	DB	00H
	DB	00H
	DB	00H
	DB	062H
	DB	0c1H
	DB	082H
	DB	03aH
	DB	0fH
	DB	02aH
	DB	01H
	DB	01H
	DB	03bH
	DB	03bH
	DB	028H
	DB	03H
	DB	01aH
	DB	01aH
	DB	02aH
	DB	0fH
	DB	02aH
	DB	0cH
	DB	08H
	DB	08H
	DB	01aH
	DB	01aH
	DB	01aH
	DB	01aH
	DB	01aH
	DB	01aH
	DB	03H
	DB	03H
	DB	03H
	DB	03H
	DB	03H
	DB	03H
	DB	03H
	DB	03H
	DB	03H
	DB	03H
	DB	03H
	DB	03H
	DB	01aH
	DB	03H
	DB	0fH
	DB	03H
	DB	0fH
	DB	0fH
	DB	03H
	DB	0bH
	DB	057H
	DB	027H
	DB	06H
	DB	06H
	DB	06H
	DB	02eH
	DB	078H
	DB	091H
	DB	013H
	DB	013H
	DB	06fH
	DB	026H
	DB	01H
	DB	01H
	DB	055H
	DB	047H
	DB	046H
	DB	067H
	DB	014H
	DB	010H
	DB	010H
	DB	07dH
	DB	04eH
	DB	05aH
	DB	063H
	DB	063H
	DB	053H
	DB	021H
	DB	01H
	DB	01cH
	DB	01cH
	DB	01cH
	DB	01cH
	DB	01H
	DB	01H
	DB	01cH
	DB	01cH
	DB	01cH
	DB	01fH
	DB	042H
	DB	05H
	DB	01fH
	DB	055H
	DB	055H
	DB	069H
	DB	097H
	DB	024H
	DB	024H
	DB	02dH
	DB	02dH
	DB	02dH
	DB	048H
	DB	030H
	DB	03dH
	DB	02cH
	DB	09H
	DB	09H
	DB	09H
	DB	019H
	DB	066H
	DB	059H
	DB	03fH
	DB	03dH
	DB	033H
	DB	019H
	DB	09H
	DB	09H
	DB	019H
	DB	07aH
	DB	038H
	DB	038H
	DB	038H
	DB	025H
	DB	019H
	DB	02cH
	DB	033H
	DB	022H
	DB	0c8H
	DB	0c8H
	DB	063H
	DB	092H
	DB	06H
	DB	06H
	DB	06H
	DB	06H
	DB	06H
	DB	06H
	DB	06H
	DB	06H
	DB	075H
	DB	06H
	DB	021H
	DB	021H
	DB	06H
	DB	03bH
	DB	075H
	DB	03bH
	DB	03bH
	DB	021H
	DB	06H
	DB	06H
	DB	02eH
	DB	05bH
	DB	029H
	DB	09H
	DB	09H
	DB	09H
	DB	09H
	DB	09H
	DB	044H
	DB	0b8H
	DB	015H
	DB	01H
	DB	01H
	DB	01H
	DB	03bH
	DB	01H
	DB	03bH
	DB	01eH
	DB	00H
	DB	00H
	DB	00H
	DB	00H
	DB	00H
	DB	00H
	DB	00H
	DB	00H
	DB	00H
	DB	00H
	DB	00H
	DB	00H
	DB	00H
	DB	062H
	DB	010H
	DB	0f4H
	DB	08H
	DB	02aH
	DB	040H
	DB	0baH
	DB	06H
	DB	01bH
	DB	06H
	DB	018H
	DB	02aH
	DB	01aH
	DB	02aH
	DB	01aH
	DB	01aH
	DB	0fH
	DB	08H
	DB	0dH
	DB	08H
	DB	08H
	DB	01aH
	DB	01aH
	DB	01aH
	DB	01aH
	DB	03H
	DB	03H
	DB	01aH
	DB	01aH
	DB	01aH
	DB	03H
	DB	03H
	DB	03H
	DB	03H
	DB	03H
	DB	03H
	DB	03H
	DB	01aH
	DB	03H
	DB	03H
	DB	03H
	DB	03H
	DB	0fH
	DB	03H
	DB	03H
	DB	03H
	DB	01dH
	DB	02eH
	DB	06H
	DB	06H
	DB	02eH
	DB	087H
	DB	0e7H
	DB	040H
	DB	0fH
	DB	0fH
	DB	040H
	DB	017H
	DB	015H
	DB	01H
	DB	01H
	DB	018H
	DB	07H
	DB	071H
	DB	0c0H
	DB	067H
	DB	088H
	DB	05bH
	DB	063H
	DB	063H
	DB	053H
	DB	021H
	DB	03eH
	DB	03eH
	DB	01cH
	DB	01cH
	DB	01cH
	DB	01H
	DB	01H
	DB	01H
	DB	01cH
	DB	01cH
	DB	01fH
	DB	0c9H
	DB	05H
	DB	05H
	DB	01cH
	DB	01dH
	DB	055H
	DB	0adH
	DB	024H
	DB	024H
	DB	02dH
	DB	02dH
	DB	024H
	DB	073H
	DB	06bH
	DB	035H
	DB	03dH
	DB	02H
	DB	041H
	DB	09H
	DB	09H
	DB	09H
	DB	019H
	DB	029H
	DB	06cH
	DB	073H
	DB	05aH
	DB	022H
	DB	029H
	DB	09H
	DB	09H
	DB	029H
	DB	076H
	DB	0d7H
	DB	0d9H
	DB	025H
	DB	09H
	DB	09H
	DB	029H
	DB	029H
	DB	019H
	DB	033H
	DB	02H
	DB	02eH
	DB	06H
	DB	021H
	DB	06H
	DB	06H
	DB	06H
	DB	06H
	DB	06H
	DB	06H
	DB	075H
	DB	075H
	DB	06H
	DB	021H
	DB	06H
	DB	06H
	DB	01bH
	DB	075H
	DB	075H
	DB	075H
	DB	06H
	DB	06H
	DB	06H
	DB	02eH
	DB	033H
	DB	019H
	DB	09H
	DB	09H
	DB	09H
	DB	09H
	DB	09H
	DB	058H
	DB	03bH
	DB	01H
	DB	01H
	DB	01H
	DB	01H
	DB	03bH
	DB	01H
	DB	03bH
	DB	01eH
	DB	00H
	DB	00H
	DB	00H
	DB	00H
	DB	00H
	DB	00H
	DB	00H
	DB	00H
	DB	00H
	DB	00H
	DB	00H
	DB	00H
	DB	00H
	DB	062H
	DB	014H
	DB	0a0H
	DB	08H
	DB	08H
	DB	0fH
	DB	026H
	DB	053H
	DB	06H
	DB	06H
	DB	06H
	DB	057H
	DB	03H
	DB	02aH
	DB	01aH
	DB	02aH
	DB	02aH
	DB	013H
	DB	08H
	DB	0dH
	DB	08H
	DB	01aH
	DB	02aH
	DB	02aH
	DB	01aH
	DB	01aH
	DB	01aH
	DB	01aH
	DB	03H
	DB	01aH
	DB	01aH
	DB	03H
	DB	01aH
	DB	03H
	DB	03H
	DB	01aH
	DB	02aH
	DB	03H
	DB	03H
	DB	03H
	DB	03H
	DB	03H
	DB	03H
	DB	03H
	DB	0bH
	DB	04aH
	DB	053H
	DB	01bH
	DB	01H
	DB	01bH
	DB	06H
	DB	052H
	DB	0b5H
	DB	0bH
	DB	03H
	DB	013H
	DB	013H
	DB	05H
	DB	015H
	DB	046H
	DB	04fH
	DB	07H
	DB	047H
	DB	04dH
	DB	03eH
	DB	053H
	DB	02H
	DB	063H
	DB	027H
	DB	06H
	DB	03bH
	DB	01H
	DB	01H
	DB	01cH
	DB	01cH
	DB	01cH
	DB	01H
	DB	01H
	DB	01H
	DB	01H
	DB	01cH
	DB	01fH
	DB	01fH
	DB	05H
	DB	055H
	DB	01cH
	DB	0c9H
	DB	069H
	DB	097H
	DB	024H
	DB	024H
	DB	02dH
	DB	02dH
	DB	024H
	DB	048H
	DB	030H
	DB	02H
	DB	02H
	DB	02H
	DB	03dH
	DB	022H
	DB	029H
	DB	09H
	DB	09H
	DB	019H
	DB	029H
	DB	066H
	DB	059H
	DB	048H
	DB	068H
	DB	033H
	DB	019H
	DB	019H
	DB	019H
	DB	058H
	DB	0e2H
	DB	0beH
	DB	019H
	DB	019H
	DB	02cH
	DB	041H
	DB	029H
	DB	09H
	DB	09H
	DB	0a6H
	DB	02eH
	DB	06H
	DB	06H
	DB	06H
	DB	06H
	DB	021H
	DB	06H
	DB	021H
	DB	03bH
	DB	06H
	DB	06H
	DB	01bH
	DB	03bH
	DB	021H
	DB	021H
	DB	021H
	DB	021H
	DB	03bH
	DB	03bH
	DB	021H
	DB	06H
	DB	02eH
	DB	092H
	DB	041H
	DB	019H
	DB	09H
	DB	09H
	DB	09H
	DB	09H
	DB	044H
	DB	064H
	DB	015H
	DB	01H
	DB	01H
	DB	01H
	DB	01H
	DB	01H
	DB	01H
	DB	03bH
	DB	01eH
	DB	00H
	DB	00H
	DB	00H
	DB	00H
	DB	00H
	DB	00H
	DB	00H
	DB	00H
	DB	00H
	DB	00H
	DB	00H
	DB	00H
	DB	00H
	DB	062H
	DB	014H
	DB	0c1H
	DB	02aH
	DB	03aH
	DB	08H
	DB	0bH
	DB	0baH
	DB	053H
	DB	06H
	DB	027H
	DB	0dH
	DB	01aH
	DB	02aH
	DB	02aH
	DB	02aH
	DB	02aH
	DB	02aH
	DB	0fH
	DB	03aH
	DB	0aH
	DB	08H
	DB	03H
	DB	01aH
	DB	02aH
	DB	02aH
	DB	02aH
	DB	01aH
	DB	01aH
	DB	01aH
	DB	02aH
	DB	01aH
	DB	01aH
	DB	01aH
	DB	01aH
	DB	01aH
	DB	03H
	DB	03H
	DB	03H
	DB	03H
	DB	03H
	DB	03H
	DB	03H
	DB	03H
	DB	03H
	DB	01H
	DB	02H
	DB	06H
	DB	03bH
	DB	02eH
	DB	037H
	DB	039H
	DB	040H
	DB	013H
	DB	03H
	DB	013H
	DB	08H
	DB	05H
	DB	020H
	DB	020H
	DB	07H
	DB	05H
	DB	055H
	DB	01dH
	DB	01bH
	DB	02H
	DB	02H
	DB	06H
	DB	03eH
	DB	03eH
	DB	01H
	DB	01H
	DB	01cH
	DB	01cH
	DB	01cH
	DB	01H
	DB	01H
	DB	01H
	DB	0c9H
	DB	01fH
	DB	01cH
	DB	01fH
	DB	01fH
	DB	055H
	DB	01dH
	DB	01fH
	DB	036H
	DB	024H
	DB	024H
	DB	024H
	DB	02dH
	DB	024H
	DB	02dH
	DB	06bH
	DB	022H
	DB	03dH
	DB	02H
	DB	02H
	DB	02H
	DB	02fH
	DB	033H
	DB	02cH
	DB	019H
	DB	09H
	DB	09H
	DB	09H
	DB	019H
	DB	099H
	DB	059H
	DB	070H
	DB	02fH
	DB	022H
	DB	033H
	DB	041H
	DB	02cH
	DB	054H
	DB	05dH
	DB	07eH
	DB	065H
	DB	033H
	DB	01eH
	DB	033H
	DB	044H
	DB	012H
	DB	049H
	DB	053H
	DB	06H
	DB	021H
	DB	021H
	DB	021H
	DB	03bH
	DB	03bH
	DB	03bH
	DB	03bH
	DB	021H
	DB	01bH
	DB	03bH
	DB	03bH
	DB	03bH
	DB	03bH
	DB	03bH
	DB	03bH
	DB	03bH
	DB	03bH
	DB	021H
	DB	02eH
	DB	02H
	DB	02fH
	DB	02cH
	DB	09H
	DB	09H
	DB	09H
	DB	09H
	DB	012H
	DB	054H
	DB	075H
	DB	015H
	DB	01H
	DB	01H
	DB	01H
	DB	01H
	DB	01H
	DB	01dH
	DB	03bH
	DB	01eH
	DB	00H
	DB	00H
	DB	00H
	DB	00H
	DB	00H
	DB	00H
	DB	00H
	DB	00H
	DB	00H
	DB	00H
	DB	00H
	DB	00H
	DB	00H
	DB	062H
	DB	0c1H
	DB	0f5H
	DB	03aH
	DB	08H
	DB	08H
	DB	03H
	DB	08H
	DB	053H
	DB	02H
	DB	07H
	DB	03H
	DB	02aH
	DB	08H
	DB	08H
	DB	08H
	DB	02aH
	DB	08H
	DB	08H
	DB	03H
	DB	03H
	DB	02bH
	DB	02bH
	DB	01aH
	DB	03H
	DB	01aH
	DB	02aH
	DB	02aH
	DB	02aH
	DB	02aH
	DB	02aH
	DB	01aH
	DB	01aH
	DB	01aH
	DB	02aH
	DB	03H
	DB	03H
	DB	01aH
	DB	01aH
	DB	01aH
	DB	03H
	DB	03H
	DB	01aH
	DB	013H
	DB	050H
	DB	032H
	DB	063H
	DB	02H
	DB	02eH
	DB	01cH
	DB	03cH
	DB	0ecH
	DB	06fH
	DB	03H
	DB	03H
	DB	03H
	DB	06fH
	DB	050H
	DB	055H
	DB	05H
	DB	05H
	DB	05H
	DB	018H
	DB	04fH
	DB	018H
	DB	03bH
	DB	021H
	DB	03eH
	DB	01H
	DB	01H
	DB	01cH
	DB	01cH
	DB	01cH
	DB	01cH
	DB	01cH
	DB	01H
	DB	01cH
	DB	01fH
	DB	05H
	DB	01fH
	DB	01fH
	DB	05H
	DB	055H
	DB	055H
	DB	0b9H
	DB	02dH
	DB	024H
	DB	024H
	DB	024H
	DB	024H
	DB	024H
	DB	048H
	DB	030H
	DB	063H
	DB	02H
	DB	02H
	DB	02H
	DB	02H
	DB	022H
	DB	02cH
	DB	019H
	DB	029H
	DB	019H
	DB	09H
	DB	09H
	DB	09H
	DB	019H
	DB	019H
	DB	066H
	DB	066H
	DB	030H
	DB	03dH
	DB	032H
	DB	033H
	DB	041H
	DB	041H
	DB	0dcH
	DB	0f8H
	DB	0d2H
	DB	041H
	DB	033H
	DB	049H
	DB	0d4H
	DB	012H
	DB	058H
	DB	05bH
	DB	02eH
	DB	021H
	DB	021H
	DB	021H
	DB	03bH
	DB	03bH
	DB	03bH
	DB	03bH
	DB	03bH
	DB	03bH
	DB	03bH
	DB	03bH
	DB	03bH
	DB	03bH
	DB	03bH
	DB	03bH
	DB	03bH
	DB	075H
	DB	02eH
	DB	02H
	DB	02fH
	DB	033H
	DB	019H
	DB	09H
	DB	09H
	DB	09H
	DB	09H
	DB	058H
	DB	03bH
	DB	015H
	DB	01H
	DB	01H
	DB	01H
	DB	01H
	DB	01H
	DB	01H
	DB	01H
	DB	03bH
	DB	01eH
	DB	00H
	DB	00H
	DB	00H
	DB	00H
	DB	00H
	DB	00H
	DB	00H
	DB	00H
	DB	00H
	DB	00H
	DB	00H
	DB	00H
	DB	00H
	DB	062H
	DB	0a0H
	DB	03aH
	DB	08H
	DB	08H
	DB	08H
	DB	08H
	DB	013H
	DB	050H
	DB	01dH
	DB	03aH
	DB	02aH
	DB	08H
	DB	08H
	DB	08H
	DB	08H
	DB	02aH
	DB	08H
	DB	08H
	DB	08H
	DB	02aH
	DB	03H
	DB	03aH
	DB	02bH
	DB	081H
	DB	03aH
	DB	01aH
	DB	01aH
	DB	01aH
	DB	03H
	DB	02aH
	DB	08H
	DB	026H
	DB	026H
	DB	03aH
	DB	01aH
	DB	02aH
	DB	02aH
	DB	01aH
	DB	01aH
	DB	01aH
	DB	01aH
	DB	03H
	DB	04aH
	DB	02H
	DB	027H
	DB	01bH
	DB	01dH
	DB	01dH
	DB	03eH
	DB	067H
	DB	0faH
	DB	0bH
	DB	03H
	DB	03H
	DB	03H
	DB	0b6H
	DB	016H
	DB	04fH
	DB	018H
	DB	07H
	DB	07H
	DB	047H
	DB	05H
	DB	01dH
	DB	01H
	DB	03eH
	DB	01H
	DB	01H
	DB	01H
	DB	01cH
	DB	01fH
	DB	01fH
	DB	01cH
	DB	01cH
	DB	01cH
	DB	01fH
	DB	05H
	DB	05H
	DB	01fH
	DB	055H
	DB	055H
	DB	04dH
	DB	097H
	DB	024H
	DB	024H
	DB	024H
	DB	024H
	DB	024H
	DB	024H
	DB	06bH
	DB	035H
	DB	03dH
	DB	02H
	DB	02H
	DB	02H
	DB	02H
	DB	02H
	DB	033H
	DB	09H
	DB	09H
	DB	09H
	DB	019H
	DB	019H
	DB	019H
	DB	09H
	DB	09H
	DB	09H
	DB	09H
	DB	09H
	DB	058H
	DB	049H
	DB	054H
	DB	02cH
	DB	019H
	DB	019H
	DB	0d4H
	DB	098H
	DB	025H
	DB	09H
	DB	019H
	DB	044H
	DB	012H
	DB	0d4H
	DB	044H
	DB	064H
	DB	02eH
	DB	06H
	DB	021H
	DB	03bH
	DB	03bH
	DB	03bH
	DB	03bH
	DB	03bH
	DB	021H
	DB	03bH
	DB	03bH
	DB	03bH
	DB	03bH
	DB	03bH
	DB	03bH
	DB	01bH
	DB	06H
	DB	027H
	DB	02H
	DB	033H
	DB	02cH
	DB	019H
	DB	012H
	DB	09H
	DB	09H
	DB	09H
	DB	058H
	DB	0a7H
	DB	015H
	DB	01H
	DB	01H
	DB	01H
	DB	01H
	DB	01H
	DB	01H
	DB	01H
	DB	01H
	DB	01bH
	DB	01eH
	DB	00H
	DB	00H
	DB	00H
	DB	00H
	DB	00H
	DB	00H
	DB	00H
	DB	00H
	DB	00H
	DB	00H
	DB	00H
	DB	00H
	DB	00H
	DB	062H
	DB	039H
	DB	0c4H
	DB	08H
	DB	08H
	DB	08H
	DB	026H
	DB	08H
	DB	040H
	DB	01aH
	DB	08H
	DB	08H
	DB	08H
	DB	08H
	DB	08H
	DB	08H
	DB	08H
	DB	08H
	DB	08H
	DB	08H
	DB	08H
	DB	08H
	DB	01aH
	DB	03H
	DB	01aH
	DB	03aH
	DB	08H
	DB	0aH
	DB	0aH
	DB	0aH
	DB	0aH
	DB	0aH
	DB	08H
	DB	02aH
	DB	02aH
	DB	02aH
	DB	02aH
	DB	01aH
	DB	02aH
	DB	02aH
	DB	02aH
	DB	01aH
	DB	03H
	DB	07H
	DB	01bH
	DB	01dH
	DB	01H
	DB	03bH
	DB	01bH
	DB	027H
	DB	0dH
	DB	06fH
	DB	03H
	DB	03H
	DB	03H
	DB	03H
	DB	01aH
	DB	0b6H
	DB	0feH
	DB	017H
	DB	05H
	DB	01dH
	DB	015H
	DB	06H
	DB	03bH
	DB	01H
	DB	01H
	DB	01H
	DB	01H
	DB	01cH
	DB	01fH
	DB	01fH
	DB	01fH
	DB	01cH
	DB	05H
	DB	042H
	DB	05H
	DB	05H
	DB	05H
	DB	055H
	DB	01fH
	DB	0adH
	DB	02dH
	DB	024H
	DB	024H
	DB	024H
	DB	024H
	DB	024H
	DB	048H
	DB	074H
	DB	03dH
	DB	02H
	DB	02H
	DB	02H
	DB	02H
	DB	02H
	DB	02H
	DB	02H
	DB	022H
	DB	019H
	DB	09H
	DB	09H
	DB	029H
	DB	02cH
	DB	019H
	DB	09H
	DB	09H
	DB	09H
	DB	09H
	DB	019H
	DB	044H
	DB	044H
	DB	044H
	DB	019H
	DB	09H
	DB	09H
	DB	09H
	DB	09H
	DB	012H
	DB	012H
	DB	012H
	DB	012H
	DB	012H
	DB	012H
	DB	0d4H
	DB	0b8H
	DB	02eH
	DB	06H
	DB	021H
	DB	03bH
	DB	03bH
	DB	03bH
	DB	03bH
	DB	01bH
	DB	03bH
	DB	03bH
	DB	03bH
	DB	03bH
	DB	03bH
	DB	03bH
	DB	03bH
	DB	06H
	DB	092H
	DB	033H
	DB	02cH
	DB	019H
	DB	012H
	DB	025H
	DB	025H
	DB	012H
	DB	044H
	DB	054H
	DB	03eH
	DB	015H
	DB	01H
	DB	01H
	DB	01H
	DB	01H
	DB	01H
	DB	01H
	DB	01H
	DB	01H
	DB	01H
	DB	03bH
	DB	01eH
	DB	00H
	DB	00H
	DB	00H
	DB	00H
	DB	00H
	DB	00H
	DB	00H
	DB	00H
	DB	00H
	DB	00H
	DB	00H
	DB	00H
	DB	00H
	DB	062H
	DB	014H
	DB	0e0H
	DB	03aH
	DB	026H
	DB	081H
	DB	026H
	DB	026H
	DB	08H
	DB	08H
	DB	026H
	DB	026H
	DB	026H
	DB	08H
	DB	08H
	DB	08H
	DB	08H
	DB	08H
	DB	08H
	DB	08H
	DB	08H
	DB	08H
	DB	08H
	DB	08H
	DB	08H
	DB	02aH
	DB	01aH
	DB	02aH
	DB	02aH
	DB	08H
	DB	02aH
	DB	01aH
	DB	02aH
	DB	08H
	DB	02aH
	DB	08H
	DB	02aH
	DB	02aH
	DB	02aH
	DB	02aH
	DB	01aH
	DB	08H
	DB	06fH
	DB	016H
	DB	01H
	DB	06H
	DB	06H
	DB	06H
	DB	053H
	DB	01H
	DB	0bH
	DB	0bH
	DB	01aH
	DB	01aH
	DB	01aH
	DB	01aH
	DB	01aH
	DB	03H
	DB	0fH
	DB	018H
	DB	01H
	DB	06H
	DB	06H
	DB	01bH
	DB	01H
	DB	01H
	DB	01H
	DB	01cH
	DB	01cH
	DB	01cH
	DB	01cH
	DB	01cH
	DB	01fH
	DB	05H
	DB	05H
	DB	05H
	DB	05H
	DB	05H
	DB	055H
	DB	069H
	DB	097H
	DB	024H
	DB	024H
	DB	024H
	DB	024H
	DB	024H
	DB	02dH
	DB	03fH
	DB	02H
	DB	03dH
	DB	02H
	DB	02H
	DB	02H
	DB	02H
	DB	02H
	DB	02H
	DB	02H
	DB	02H
	DB	02H
	DB	041H
	DB	09H
	DB	09H
	DB	019H
	DB	02cH
	DB	029H
	DB	019H
	DB	09H
	DB	09H
	DB	019H
	DB	029H
	DB	029H
	DB	019H
	DB	044H
	DB	044H
	DB	012H
	DB	09H
	DB	012H
	DB	012H
	DB	012H
	DB	012H
	DB	012H
	DB	012H
	DB	012H
	DB	012H
	DB	0d4H
	DB	0a7H
	DB	02eH
	DB	06H
	DB	03bH
	DB	03bH
	DB	03bH
	DB	03bH
	DB	03bH
	DB	03bH
	DB	03bH
	DB	03bH
	DB	03bH
	DB	03bH
	DB	03bH
	DB	03bH
	DB	075H
	DB	053H
	DB	041H
	DB	044H
	DB	012H
	DB	025H
	DB	025H
	DB	025H
	DB	025H
	DB	06aH
	DB	0a7H
	DB	015H
	DB	015H
	DB	01H
	DB	01H
	DB	01H
	DB	01H
	DB	01H
	DB	01H
	DB	01H
	DB	01H
	DB	01H
	DB	01H
	DB	03bH
	DB	01eH
	DB	00H
	DB	00H
	DB	00H
	DB	00H
	DB	00H
	DB	00H
	DB	00H
	DB	00H
	DB	00H
	DB	00H
	DB	00H
	DB	00H
	DB	00H
	DB	062H
	DB	014H
	DB	03cH
	DB	08aH
	DB	061H
	DB	0b0H
	DB	026H
	DB	026H
	DB	026H
	DB	026H
	DB	026H
	DB	026H
	DB	026H
	DB	08H
	DB	026H
	DB	08H
	DB	04aH
	DB	026H
	DB	02aH
	DB	08H
	DB	08H
	DB	08H
	DB	08H
	DB	08H
	DB	08H
	DB	026H
	DB	08H
	DB	08H
	DB	08H
	DB	08H
	DB	08H
	DB	08H
	DB	08H
	DB	08H
	DB	08H
	DB	08H
	DB	08H
	DB	08H
	DB	08H
	DB	08H
	DB	02aH
	DB	08H
	DB	01aH
	DB	04H
	DB	02bH
	DB	027H
	DB	01bH
	DB	06H
	DB	02eH
	DB	026H
	DB	040H
	DB	03H
	DB	01aH
	DB	01aH
	DB	01aH
	DB	01aH
	DB	01aH
	DB	0fH
	DB	050H
	DB	06H
	DB	05H
	DB	01H
	DB	01bH
	DB	01H
	DB	01H
	DB	01H
	DB	01cH
	DB	01fH
	DB	05H
	DB	01fH
	DB	01cH
	DB	0c9H
	DB	05H
	DB	042H
	DB	05H
	DB	05H
	DB	05H
	DB	069H
	DB	097H
	DB	024H
	DB	024H
	DB	024H
	DB	024H
	DB	024H
	DB	024H
	DB	06bH
	DB	035H
	DB	03dH
	DB	02H
	DB	02H
	DB	02H
	DB	02H
	DB	02H
	DB	02H
	DB	02H
	DB	02H
	DB	02H
	DB	02H
	DB	02H
	DB	053H
	DB	029H
	DB	09H
	DB	019H
	DB	02cH
	DB	02cH
	DB	019H
	DB	019H
	DB	019H
	DB	019H
	DB	019H
	DB	09H
	DB	09H
	DB	09H
	DB	012H
	DB	012H
	DB	012H
	DB	012H
	DB	012H
	DB	012H
	DB	012H
	DB	012H
	DB	012H
	DB	012H
	DB	012H
	DB	065H
	DB	06H
	DB	06H
	DB	021H
	DB	03bH
	DB	021H
	DB	021H
	DB	03bH
	DB	03bH
	DB	03bH
	DB	03bH
	DB	03bH
	DB	03bH
	DB	03bH
	DB	01H
	DB	03bH
	DB	02eH
	DB	0a6H
	DB	044H
	DB	025H
	DB	025H
	DB	025H
	DB	025H
	DB	0d4H
	DB	065H
	DB	03eH
	DB	015H
	DB	015H
	DB	01H
	DB	01H
	DB	01H
	DB	01H
	DB	01H
	DB	01H
	DB	0c9H
	DB	01dH
	DB	01H
	DB	01H
	DB	01H
	DB	01bH
	DB	01eH
	DB	00H
	DB	00H
	DB	00H
	DB	00H
	DB	00H
	DB	00H
	DB	00H
	DB	00H
	DB	00H
	DB	00H
	DB	00H
	DB	00H
	DB	00H
	DB	043H
	DB	014H
	DB	011H
	DB	03cH
	DB	03cH
	DB	011H
	DB	0deH
	DB	08H
	DB	026H
	DB	026H
	DB	026H
	DB	026H
	DB	026H
	DB	026H
	DB	08H
	DB	02bH
	DB	01bH
	DB	03bH
	DB	04aH
	DB	02aH
	DB	08H
	DB	026H
	DB	08H
	DB	08H
	DB	08H
	DB	08H
	DB	08H
	DB	08H
	DB	08H
	DB	08H
	DB	08H
	DB	08H
	DB	08H
	DB	08H
	DB	08H
	DB	08H
	DB	08H
	DB	08H
	DB	08H
	DB	08H
	DB	08H
	DB	08H
	DB	026H
	DB	013H
	DB	04H
	DB	07H
	DB	027H
	DB	027H
	DB	0cH
	DB	0bH
	DB	03H
	DB	02aH
	DB	01aH
	DB	01aH
	DB	03H
	DB	03H
	DB	03H
	DB	02aH
	DB	01H
	DB	06H
	DB	03bH
	DB	01H
	DB	01H
	DB	01cH
	DB	01cH
	DB	01cH
	DB	05H
	DB	05H
	DB	05H
	DB	042H
	DB	05H
	DB	05H
	DB	042H
	DB	042H
	DB	05H
	DB	01fH
	DB	069H
	DB	036H
	DB	097H
	DB	02dH
	DB	024H
	DB	024H
	DB	024H
	DB	048H
	DB	05bH
	DB	02H
	DB	02H
	DB	02H
	DB	02H
	DB	02H
	DB	02H
	DB	02H
	DB	02H
	DB	02H
	DB	02H
	DB	02H
	DB	02H
	DB	02H
	DB	02H
	DB	02H
	DB	041H
	DB	09H
	DB	09H
	DB	029H
	DB	029H
	DB	029H
	DB	029H
	DB	029H
	DB	019H
	DB	09H
	DB	09H
	DB	012H
	DB	012H
	DB	012H
	DB	012H
	DB	012H
	DB	012H
	DB	012H
	DB	012H
	DB	012H
	DB	012H
	DB	012H
	DB	012H
	DB	012H
	DB	054H
	DB	06H
	DB	06H
	DB	021H
	DB	021H
	DB	03bH
	DB	021H
	DB	021H
	DB	03bH
	DB	01H
	DB	03bH
	DB	03bH
	DB	03bH
	DB	01H
	DB	01H
	DB	01H
	DB	06H
	DB	05cH
	DB	07aH
	DB	098H
	DB	025H
	DB	07aH
	DB	06aH
	DB	05cH
	DB	03bH
	DB	015H
	DB	015H
	DB	03bH
	DB	01H
	DB	01H
	DB	01H
	DB	01H
	DB	01dH
	DB	0c9H
	DB	01dH
	DB	0c9H
	DB	0c9H
	DB	01H
	DB	01H
	DB	01bH
	DB	01eH
	DB	00H
	DB	00H
	DB	00H
	DB	00H
	DB	00H
	DB	00H
	DB	00H
	DB	00H
	DB	00H
	DB	00H
	DB	00H
	DB	00H
	DB	00H
	DB	043H
	DB	014H
	DB	014H
	DB	014H
	DB	014H
	DB	014H
	DB	039H
	DB	08aH
	DB	081H
	DB	02bH
	DB	026H
	DB	026H
	DB	026H
	DB	026H
	DB	08H
	DB	0baH
	DB	063H
	DB	063H
	DB	02eH
	DB	057H
	DB	08H
	DB	08H
	DB	08H
	DB	026H
	DB	026H
	DB	08H
	DB	026H
	DB	026H
	DB	026H
	DB	08H
	DB	08H
	DB	08H
	DB	08H
	DB	08H
	DB	026H
	DB	08H
	DB	08H
	DB	08H
	DB	08H
	DB	08H
	DB	08H
	DB	08H
	DB	08H
	DB	02bH
	DB	0b6H
	DB	0b6H
	DB	06H
	DB	055H
	DB	03H
	DB	01aH
	DB	08H
	DB	02aH
	DB	03H
	DB	0aH
	DB	0baH
	DB	0dH
	DB	03H
	DB	057H
	DB	06H
	DB	03bH
	DB	01cH
	DB	05H
	DB	0baH
	DB	05H
	DB	05H
	DB	05H
	DB	0baH
	DB	047H
	DB	04bH
	DB	04bH
	DB	0cH
	DB	020H
	DB	07H
	DB	020H
	DB	07H
	DB	05eH
	DB	0cH
	DB	017H
	DB	0cH
	DB	072H
	DB	0ddH
	DB	078H
	DB	0b9H
	DB	01dH
	DB	046H
	DB	07H
	DB	07H
	DB	07H
	DB	06H
	DB	02H
	DB	02H
	DB	063H
	DB	063H
	DB	02H
	DB	02H
	DB	063H
	DB	02H
	DB	02H
	DB	02H
	DB	02H
	DB	033H
	DB	09H
	DB	09H
	DB	019H
	DB	019H
	DB	019H
	DB	029H
	DB	029H
	DB	019H
	DB	09H
	DB	012H
	DB	012H
	DB	012H
	DB	012H
	DB	012H
	DB	012H
	DB	012H
	DB	012H
	DB	012H
	DB	012H
	DB	012H
	DB	012H
	DB	012H
	DB	012H
	DB	054H
	DB	02eH
	DB	06H
	DB	06H
	DB	021H
	DB	03bH
	DB	03bH
	DB	03bH
	DB	03bH
	DB	01H
	DB	03bH
	DB	03bH
	DB	03bH
	DB	01H
	DB	01H
	DB	01H
	DB	015H
	DB	03bH
	DB	085H
	DB	065H
	DB	076H
	DB	0b8H
	DB	03bH
	DB	075H
	DB	015H
	DB	03bH
	DB	03bH
	DB	01H
	DB	01H
	DB	01H
	DB	0c9H
	DB	01H
	DB	01H
	DB	01H
	DB	01H
	DB	0c9H
	DB	055H
	DB	0c9H
	DB	01H
	DB	03bH
	DB	01eH
	DB	00H
	DB	00H
	DB	00H
	DB	00H
	DB	00H
	DB	00H
	DB	00H
	DB	00H
	DB	00H
	DB	00H
	DB	00H
	DB	00H
	DB	00H
	DB	043H
	DB	014H
	DB	014H
	DB	039H
	DB	011H
	DB	011H
	DB	014H
	DB	043H
	DB	08eH
	DB	02bH
	DB	02bH
	DB	02bH
	DB	02bH
	DB	026H
	DB	0cH
	DB	053H
	DB	02eH
	DB	03bH
	DB	01H
	DB	015H
	DB	05H
	DB	0dH
	DB	026H
	DB	08H
	DB	08H
	DB	026H
	DB	026H
	DB	026H
	DB	026H
	DB	026H
	DB	026H
	DB	026H
	DB	08H
	DB	08H
	DB	08H
	DB	08H
	DB	08eH
	DB	08fH
	DB	08H
	DB	08H
	DB	08H
	DB	08H
	DB	08H
	DB	026H
	DB	026H
	DB	0ffH
	DB	03H
	DB	0aH
	DB	01aH
	DB	08H
	DB	02aH
	DB	01aH
	DB	08H
	DB	01H
	DB	063H
	DB	053H
	DB	01dH
	DB	01H
	DB	01cH
	DB	042H
	DB	04cH
	DB	04cH
	DB	04cH
	DB	017H
	DB	04cH
	DB	04cH
	DB	028H
	DB	02bH
	DB	02bH
	DB	08H
	DB	028H
	DB	04bH
	DB	017H
	DB	0cH
	DB	04bH
	DB	0aH
	DB	0fH
	DB	0fH
	DB	0fH
	DB	03H
	DB	03aH
	DB	03aH
	DB	0f0H
	DB	03H
	DB	01aH
	DB	03aH
	DB	02bH
	DB	02bH
	DB	028H
	DB	0cH
	DB	020H
	DB	055H
	DB	05H
	DB	047H
	DB	047H
	DB	055H
	DB	053H
	DB	02H
	DB	02H
	DB	03dH
	DB	02fH
	DB	019H
	DB	09H
	DB	09H
	DB	019H
	DB	019H
	DB	029H
	DB	019H
	DB	09H
	DB	09H
	DB	012H
	DB	012H
	DB	012H
	DB	012H
	DB	012H
	DB	012H
	DB	012H
	DB	012H
	DB	012H
	DB	012H
	DB	012H
	DB	012H
	DB	012H
	DB	012H
	DB	076H
	DB	02eH
	DB	06H
	DB	021H
	DB	03bH
	DB	03bH
	DB	03bH
	DB	03bH
	DB	03bH
	DB	03bH
	DB	03bH
	DB	01H
	DB	03bH
	DB	03bH
	DB	01H
	DB	01H
	DB	01H
	DB	03bH
	DB	01bH
	DB	075H
	DB	015H
	DB	015H
	DB	015H
	DB	03bH
	DB	03bH
	DB	01H
	DB	01H
	DB	01H
	DB	01H
	DB	01H
	DB	01H
	DB	01H
	DB	01H
	DB	0c9H
	DB	01dH
	DB	0c9H
	DB	0c9H
	DB	01H
	DB	0c9H
	DB	03bH
	DB	01eH
	DB	00H
	DB	00H
	DB	00H
	DB	00H
	DB	00H
	DB	00H
	DB	00H
	DB	00H
	DB	00H
	DB	00H
	DB	00H
	DB	00H
	DB	00H
	DB	043H
	DB	011H
	DB	011H
	DB	039H
	DB	011H
	DB	011H
	DB	011H
	DB	011H
	DB	0dfH
	DB	02bH
	DB	02bH
	DB	02bH
	DB	0aH
	DB	03H
	DB	04aH
	DB	06H
	DB	03bH
	DB	03bH
	DB	03bH
	DB	03bH
	DB	01bH
	DB	055H
	DB	07H
	DB	057H
	DB	04aH
	DB	026H
	DB	08H
	DB	026H
	DB	081H
	DB	081H
	DB	08H
	DB	026H
	DB	026H
	DB	026H
	DB	09cH
	DB	0ddH
	DB	07dH
	DB	07dH
	DB	08aH
	DB	08H
	DB	026H
	DB	08H
	DB	026H
	DB	08H
	DB	026H
	DB	01aH
	DB	0fH
	DB	08H
	DB	08H
	DB	08H
	DB	08H
	DB	03H
	DB	07H
	DB	063H
	DB	02H
	DB	02H
	DB	06H
	DB	047H
	DB	017H
	DB	04cH
	DB	04cH
	DB	017H
	DB	017H
	DB	017H
	DB	017H
	DB	057H
	DB	057H
	DB	0dH
	DB	057H
	DB	0cH
	DB	05H
	DB	018H
	DB	017H
	DB	017H
	DB	0cH
	DB	0cH
	DB	04cH
	DB	0dH
	DB	028H
	DB	0dH
	DB	0cH
	DB	0cH
	DB	057H
	DB	0dH
	DB	0dH
	DB	04aH
	DB	0cH
	DB	050H
	DB	057H
	DB	0dH
	DB	04aH
	DB	0aH
	DB	0aH
	DB	028H
	DB	028H
	DB	0dH
	DB	05H
	DB	06H
	DB	02H
	DB	02H
	DB	02H
	DB	049H
	DB	09H
	DB	09H
	DB	019H
	DB	029H
	DB	029H
	DB	019H
	DB	09H
	DB	09H
	DB	012H
	DB	012H
	DB	012H
	DB	012H
	DB	012H
	DB	012H
	DB	012H
	DB	012H
	DB	012H
	DB	012H
	DB	012H
	DB	012H
	DB	012H
	DB	012H
	DB	054H
	DB	02eH
	DB	06H
	DB	021H
	DB	03bH
	DB	03bH
	DB	03bH
	DB	03bH
	DB	01H
	DB	01H
	DB	01H
	DB	01H
	DB	03bH
	DB	03bH
	DB	01H
	DB	01H
	DB	01H
	DB	01H
	DB	03bH
	DB	015H
	DB	015H
	DB	01H
	DB	01H
	DB	03bH
	DB	01H
	DB	01H
	DB	01H
	DB	01H
	DB	01H
	DB	01H
	DB	01H
	DB	01H
	DB	01dH
	DB	055H
	DB	0c9H
	DB	01H
	DB	01H
	DB	01H
	DB	0c9H
	DB	03bH
	DB	01eH
	DB	00H
	DB	00H
	DB	00H
	DB	00H
	DB	00H
	DB	00H
	DB	00H
	DB	00H
	DB	00H
	DB	00H
	DB	00H
	DB	00H
	DB	00H
	DB	062H
	DB	014H
	DB	011H
	DB	011H
	DB	011H
	DB	011H
	DB	039H
	DB	011H
	DB	09eH
	DB	08eH
	DB	0aH
	DB	0aH
	DB	0aH
	DB	026H
	DB	03H
	DB	020H
	DB	01bH
	DB	03bH
	DB	03bH
	DB	015H
	DB	01H
	DB	05H
	DB	05H
	DB	05H
	DB	018H
	DB	050H
	DB	0afH
	DB	08bH
	DB	0b2H
	DB	0deH
	DB	08bH
	DB	08bH
	DB	071H
	DB	07dH
	DB	03cH
	DB	011H
	DB	011H
	DB	011H
	DB	071H
	DB	026H
	DB	026H
	DB	026H
	DB	026H
	DB	026H
	DB	026H
	DB	026H
	DB	026H
	DB	08H
	DB	08H
	DB	08H
	DB	01aH
	DB	0dH
	DB	02H
	DB	027H
	DB	01H
	DB	05H
	DB	018H
	DB	04fH
	DB	017H
	DB	04bH
	DB	047H
	DB	05H
	DB	05H
	DB	05H
	DB	0c9H
	DB	018H
	DB	07H
	DB	020H
	DB	04bH
	DB	04bH
	DB	0cH
	DB	017H
	DB	0cH
	DB	0cH
	DB	017H
	DB	0dH
	DB	0dH
	DB	028H
	DB	0dH
	DB	0dH
	DB	04cH
	DB	017H
	DB	04cH
	DB	017H
	DB	017H
	DB	0cH
	DB	020H
	DB	018H
	DB	055H
	DB	01H
	DB	01H
	DB	055H
	DB	04fH
	DB	050H
	DB	0dH
	DB	028H
	DB	04cH
	DB	017H
	DB	04bH
	DB	04bH
	DB	017H
	DB	07eH
	DB	0d1H
	DB	09H
	DB	09H
	DB	029H
	DB	02cH
	DB	029H
	DB	09H
	DB	09H
	DB	012H
	DB	012H
	DB	012H
	DB	012H
	DB	012H
	DB	012H
	DB	012H
	DB	012H
	DB	012H
	DB	012H
	DB	012H
	DB	012H
	DB	012H
	DB	012H
	DB	054H
	DB	02eH
	DB	06H
	DB	021H
	DB	03bH
	DB	03bH
	DB	03bH
	DB	03bH
	DB	03bH
	DB	01H
	DB	03bH
	DB	03bH
	DB	03bH
	DB	01H
	DB	01H
	DB	01H
	DB	01H
	DB	01H
	DB	01H
	DB	01H
	DB	01H
	DB	01H
	DB	01H
	DB	01H
	DB	01H
	DB	01H
	DB	01H
	DB	01H
	DB	0c9H
	DB	01H
	DB	01H
	DB	01dH
	DB	0c9H
	DB	01dH
	DB	01H
	DB	01H
	DB	01H
	DB	01H
	DB	0c9H
	DB	01bH
	DB	00H
	DB	00H
	DB	00H
	DB	00H
	DB	00H
	DB	00H
	DB	00H
	DB	00H
	DB	00H
	DB	00H
	DB	00H
	DB	00H
	DB	00H
	DB	00H
	DB	062H
	DB	039H
	DB	011H
	DB	011H
	DB	011H
	DB	011H
	DB	011H
	DB	080H
	DB	0ddH
	DB	02bH
	DB	0aH
	DB	0aH
	DB	0aH
	DB	0aH
	DB	02bH
	DB	03H
	DB	0dH
	DB	01H
	DB	03bH
	DB	015H
	DB	01H
	DB	05H
	DB	05H
	DB	05H
	DB	018H
	DB	018H
	DB	045H
	DB	056H
	DB	052H
	DB	011H
	DB	011H
	DB	011H
	DB	011H
	DB	011H
	DB	011H
	DB	03cH
	DB	03cH
	DB	03cH
	DB	011H
	DB	09bH
	DB	08H
	DB	026H
	DB	026H
	DB	026H
	DB	026H
	DB	026H
	DB	026H
	DB	026H
	DB	026H
	DB	08H
	DB	02bH
	DB	01H
	DB	01H
	DB	04fH
	DB	04fH
	DB	05H
	DB	01dH
	DB	05H
	DB	018H
	DB	01bH
	DB	03bH
	DB	03bH
	DB	03bH
	DB	01H
	DB	047H
	DB	04bH
	DB	0cH
	DB	0cH
	DB	0cH
	DB	017H
	DB	017H
	DB	017H
	DB	04aH
	DB	03aH
	DB	013H
	DB	040H
	DB	016H
	DB	016H
	DB	016H
	DB	040H
	DB	040H
	DB	03H
	DB	0dH
	DB	04cH
	DB	04cH
	DB	0dH
	DB	028H
	DB	028H
	DB	04cH
	DB	017H
	DB	020H
	DB	07H
	DB	020H
	DB	04bH
	DB	017H
	DB	04cH
	DB	0dH
	DB	028H
	DB	028H
	DB	028H
	DB	0dH
	DB	0abH
	DB	057H
	DB	044H
	DB	09H
	DB	019H
	DB	02cH
	DB	029H
	DB	09H
	DB	09H
	DB	09H
	DB	012H
	DB	012H
	DB	012H
	DB	012H
	DB	012H
	DB	012H
	DB	012H
	DB	012H
	DB	012H
	DB	012H
	DB	012H
	DB	012H
	DB	012H
	DB	054H
	DB	06H
	DB	06H
	DB	021H
	DB	03bH
	DB	03bH
	DB	03bH
	DB	03bH
	DB	03bH
	DB	03bH
	DB	03bH
	DB	03bH
	DB	01H
	DB	01H
	DB	01H
	DB	01H
	DB	01H
	DB	01H
	DB	01H
	DB	01H
	DB	01H
	DB	01H
	DB	01H
	DB	01H
	DB	01H
	DB	01H
	DB	01H
	DB	01H
	DB	01H
	DB	01H
	DB	01H
	DB	01dH
	DB	01H
	DB	01H
	DB	01H
	DB	01dH
	DB	01H
	DB	01H
	DB	01H
	DB	02eH
	DB	00H
	DB	00H
	DB	00H
	DB	00H
	DB	00H
	DB	00H
	DB	00H
	DB	00H
	DB	00H
	DB	00H
	DB	00H
	DB	00H
	DB	00H
	DB	00H
	DB	062H
	DB	039H
	DB	039H
	DB	039H
	DB	03cH
	DB	03cH
	DB	011H
	DB	03cH
	DB	0b1H
	DB	02bH
	DB	0aH
	DB	0aH
	DB	0aH
	DB	0aH
	DB	0aH
	DB	0aH
	DB	02aH
	DB	02bH
	DB	018H
	DB	015H
	DB	015H
	DB	046H
	DB	018H
	DB	05H
	DB	05H
	DB	05H
	DB	018H
	DB	018H
	DB	047H
	DB	0bbH
	DB	067H
	DB	052H
	DB	0c0H
	DB	03cH
	DB	011H
	DB	011H
	DB	011H
	DB	011H
	DB	011H
	DB	0c0H
	DB	09cH
	DB	026H
	DB	026H
	DB	02bH
	DB	026H
	DB	026H
	DB	026H
	DB	026H
	DB	026H
	DB	026H
	DB	013H
	DB	020H
	DB	018H
	DB	018H
	DB	05H
	DB	05H
	DB	05H
	DB	055H
	DB	06H
	DB	027H
	DB	06H
	DB	02eH
	DB	06H
	DB	047H
	DB	0cH
	DB	04bH
	DB	04bH
	DB	04bH
	DB	0cH
	DB	047H
	DB	046H
	DB	020H
	DB	0dH
	DB	0aH
	DB	02bH
	DB	026H
	DB	026H
	DB	026H
	DB	026H
	DB	026H
	DB	03aH
	DB	08H
	DB	050H
	DB	04fH
	DB	07H
	DB	020H
	DB	020H
	DB	017H
	DB	04cH
	DB	04cH
	DB	0dH
	DB	0dH
	DB	04cH
	DB	028H
	DB	03aH
	DB	01aH
	DB	01aH
	DB	013H
	DB	0dH
	DB	0cH
	DB	0dH
	DB	04cH
	DB	04cH
	DB	07fH
	DB	07fH
	DB	07fH
	DB	065H
	DB	029H
	DB	09H
	DB	09H
	DB	09H
	DB	012H
	DB	012H
	DB	012H
	DB	012H
	DB	012H
	DB	012H
	DB	012H
	DB	012H
	DB	012H
	DB	012H
	DB	012H
	DB	012H
	DB	012H
	DB	0a6H
	DB	06H
	DB	01bH
	DB	021H
	DB	03bH
	DB	03bH
	DB	01H
	DB	01H
	DB	03bH
	DB	03bH
	DB	01H
	DB	01H
	DB	03bH
	DB	01H
	DB	01H
	DB	01H
	DB	01H
	DB	01H
	DB	01H
	DB	01H
	DB	01H
	DB	01H
	DB	01H
	DB	01H
	DB	01H
	DB	01H
	DB	01H
	DB	01H
	DB	01H
	DB	01H
	DB	01H
	DB	01H
	DB	01H
	DB	01H
	DB	01dH
	DB	01dH
	DB	01H
	DB	075H
	DB	06H
	DB	02eH
	DB	00H
	DB	00H
	DB	00H
	DB	00H
	DB	00H
	DB	00H
	DB	00H
	DB	00H
	DB	00H
	DB	00H
	DB	00H
	DB	00H
	DB	00H
	DB	00H
	DB	062H
	DB	011H
	DB	011H
	DB	03cH
	DB	03cH
	DB	03cH
	DB	03cH
	DB	03cH
	DB	07dH
	DB	061H
	DB	0aH
	DB	0aH
	DB	04aH
	DB	0aH
	DB	0aH
	DB	0aH
	DB	04aH
	DB	026H
	DB	02aH
	DB	0dH
	DB	05H
	DB	01H
	DB	018H
	DB	018H
	DB	05H
	DB	05H
	DB	05H
	DB	05H
	DB	05H
	DB	084H
	DB	018H
	DB	018H
	DB	045H
	DB	056H
	DB	067H
	DB	067H
	DB	06dH
	DB	031H
	DB	052H
	DB	06dH
	DB	0bfH
	DB	026H
	DB	02bH
	DB	02bH
	DB	02bH
	DB	026H
	DB	026H
	DB	02bH
	DB	026H
	DB	0aH
	DB	016H
	DB	0bH
	DB	05H
	DB	05H
	DB	05H
	DB	01dH
	DB	02eH
	DB	02H
	DB	063H
	DB	02H
	DB	027H
	DB	053H
	DB	06H
	DB	047H
	DB	04bH
	DB	020H
	DB	04bH
	DB	04bH
	DB	0cH
	DB	018H
	DB	01bH
	DB	046H
	DB	05H
	DB	07H
	DB	017H
	DB	04bH
	DB	04bH
	DB	04bH
	DB	04bH
	DB	04bH
	DB	0cH
	DB	017H
	DB	017H
	DB	020H
	DB	018H
	DB	055H
	DB	06H
	DB	046H
	DB	04cH
	DB	04cH
	DB	04cH
	DB	04cH
	DB	04cH
	DB	0dH
	DB	0dH
	DB	057H
	DB	050H
	DB	07H
	DB	03bH
	DB	015H
	DB	017H
	DB	04cH
	DB	04cH
	DB	04cH
	DB	0abH
	DB	0f0H
	DB	0f0H
	DB	06aH
	DB	09H
	DB	09H
	DB	09H
	DB	09H
	DB	012H
	DB	012H
	DB	012H
	DB	012H
	DB	012H
	DB	012H
	DB	012H
	DB	012H
	DB	012H
	DB	012H
	DB	012H
	DB	044H
	DB	064H
	DB	02eH
	DB	01bH
	DB	03bH
	DB	03bH
	DB	03bH
	DB	01H
	DB	03bH
	DB	03bH
	DB	03bH
	DB	03bH
	DB	01H
	DB	01H
	DB	01H
	DB	01H
	DB	01H
	DB	01H
	DB	01H
	DB	01H
	DB	01H
	DB	01H
	DB	01H
	DB	01H
	DB	01H
	DB	01dH
	DB	01H
	DB	01H
	DB	01H
	DB	01H
	DB	01H
	DB	01H
	DB	0c9H
	DB	01dH
	DB	01H
	DB	01H
	DB	015H
	DB	075H
	DB	06H
	DB	01bH
	DB	06H
	DB	00H
	DB	00H
	DB	00H
	DB	00H
	DB	00H
	DB	00H
	DB	00H
	DB	00H
	DB	00H
	DB	00H
	DB	00H
	DB	00H
	DB	00H
	DB	00H
	DB	071H
	DB	011H
	DB	03cH
	DB	03cH
	DB	03cH
	DB	03cH
	DB	03cH
	DB	03cH
	DB	080H
	DB	09eH
	DB	061H
	DB	089H
	DB	05H
	DB	0bbH
	DB	0aH
	DB	0aH
	DB	0aH
	DB	04aH
	DB	0aH
	DB	08H
	DB	08H
	DB	0dH
	DB	047H
	DB	018H
	DB	05H
	DB	05H
	DB	05H
	DB	05H
	DB	05H
	DB	05H
	DB	05H
	DB	05H
	DB	05H
	DB	084H
	DB	084H
	DB	084H
	DB	018H
	DB	07H
	DB	0cH
	DB	028H
	DB	02bH
	DB	02bH
	DB	0aH
	DB	0aH
	DB	02bH
	DB	02bH
	DB	026H
	DB	02bH
	DB	026H
	DB	0aH
	DB	0aH
	DB	023H
	DB	028H
	DB	03bH
	DB	053H
	DB	0c8H
	DB	06H
	DB	05H
	DB	01H
	DB	01dH
	DB	046H
	DB	05H
	DB	018H
	DB	047H
	DB	020H
	DB	020H
	DB	020H
	DB	020H
	DB	020H
	DB	04bH
	DB	020H
	DB	047H
	DB	046H
	DB	06H
	DB	07H
	DB	057H
	DB	028H
	DB	028H
	DB	0dH
	DB	0dH
	DB	0dH
	DB	0dH
	DB	0cH
	DB	05H
	DB	047H
	DB	018H
	DB	01dH
	DB	020H
	DB	04cH
	DB	04cH
	DB	017H
	DB	017H
	DB	04cH
	DB	017H
	DB	018H
	DB	05H
	DB	055H
	DB	055H
	DB	053H
	DB	063H
	DB	07H
	DB	028H
	DB	04cH
	DB	04cH
	DB	04cH
	DB	0dH
	DB	0dH
	DB	065H
	DB	09H
	DB	09H
	DB	09H
	DB	09H
	DB	09H
	DB	09H
	DB	012H
	DB	012H
	DB	012H
	DB	012H
	DB	012H
	DB	012H
	DB	012H
	DB	012H
	DB	09H
	DB	044H
	DB	064H
	DB	075H
	DB	021H
	DB	03bH
	DB	03bH
	DB	01H
	DB	01H
	DB	03bH
	DB	03bH
	DB	03bH
	DB	03bH
	DB	01H
	DB	01H
	DB	01H
	DB	01H
	DB	01H
	DB	01H
	DB	01H
	DB	01H
	DB	01H
	DB	01H
	DB	01H
	DB	01H
	DB	01H
	DB	01dH
	DB	01H
	DB	01H
	DB	0c9H
	DB	0c9H
	DB	0c9H
	DB	01H
	DB	01H
	DB	01H
	DB	01H
	DB	01bH
	DB	06H
	DB	075H
	DB	015H
	DB	015H
	DB	06H
	DB	00H
	DB	00H
	DB	00H
	DB	00H
	DB	00H
	DB	00H
	DB	00H
	DB	00H
	DB	00H
	DB	00H
	DB	00H
	DB	00H
	DB	00H
	DB	00H
	DB	071H
	DB	039H
	DB	039H
	DB	03cH
	DB	03cH
	DB	03cH
	DB	0c0H
	DB	0c0H
	DB	080H
	DB	080H
	DB	052H
	DB	0cdH
	DB	037H
	DB	031H
	DB	051H
	DB	09cH
	DB	02bH
	DB	0aH
	DB	0aH
	DB	0aH
	DB	0aH
	DB	08H
	DB	08H
	DB	04aH
	DB	04cH
	DB	020H
	DB	018H
	DB	05H
	DB	046H
	DB	046H
	DB	046H
	DB	046H
	DB	046H
	DB	05H
	DB	047H
	DB	020H
	DB	017H
	DB	028H
	DB	02bH
	DB	02bH
	DB	0aH
	DB	0aH
	DB	0aH
	DB	0aH
	DB	02bH
	DB	026H
	DB	0aH
	DB	02bH
	DB	0aH
	DB	04aH
	DB	04aH
	DB	0dH
	DB	03bH
	DB	01eH
	DB	02H
	DB	01bH
	DB	05H
	DB	018H
	DB	018H
	DB	018H
	DB	04bH
	DB	0aH
	DB	026H
	DB	08H
	DB	02aH
	DB	0cH
	DB	05H
	DB	020H
	DB	04bH
	DB	04bH
	DB	04bH
	DB	04bH
	DB	020H
	DB	047H
	DB	047H
	DB	04bH
	DB	028H
	DB	08H
	DB	01aH
	DB	03H
	DB	03aH
	DB	04aH
	DB	020H
	DB	018H
	DB	04bH
	DB	017H
	DB	017H
	DB	017H
	DB	017H
	DB	017H
	DB	04cH
	DB	04cH
	DB	017H
	DB	046H
	DB	01H
	DB	055H
	DB	01H
	DB	01dH
	DB	02H
	DB	027H
	DB	0cH
	DB	04cH
	DB	04cH
	DB	04cH
	DB	017H
	DB	02bH
	DB	03aH
	DB	08H
	DB	0d0H
	DB	09H
	DB	09H
	DB	09H
	DB	09H
	DB	09H
	DB	09H
	DB	012H
	DB	012H
	DB	012H
	DB	012H
	DB	012H
	DB	012H
	DB	012H
	DB	09H
	DB	044H
	DB	064H
	DB	075H
	DB	03bH
	DB	03bH
	DB	01H
	DB	01H
	DB	01H
	DB	01H
	DB	03bH
	DB	01H
	DB	01H
	DB	01H
	DB	01H
	DB	01H
	DB	01H
	DB	01H
	DB	01H
	DB	01H
	DB	01H
	DB	01H
	DB	01H
	DB	01H
	DB	01H
	DB	01H
	DB	01dH
	DB	0c9H
	DB	0c9H
	DB	055H
	DB	055H
	DB	0c9H
	DB	01H
	DB	01H
	DB	015H
	DB	075H
	DB	075H
	DB	01bH
	DB	015H
	DB	015H
	DB	01bH
	DB	02eH
	DB	00H
	DB	00H
	DB	00H
	DB	00H
	DB	00H
	DB	00H
	DB	00H
	DB	00H
	DB	00H
	DB	00H
	DB	00H
	DB	00H
	DB	00H
	DB	00H
	DB	071H
	DB	039H
	DB	039H
	DB	03cH
	DB	03cH
	DB	03cH
	DB	03cH
	DB	0c0H
	DB	07dH
	DB	09eH
	DB	07cH
	DB	07cH
	DB	07cH
	DB	07cH
	DB	07cH
	DB	052H
	DB	0afH
	DB	0aH
	DB	0aH
	DB	0aH
	DB	0aH
	DB	0aH
	DB	0aH
	DB	026H
	DB	026H
	DB	08H
	DB	02bH
	DB	04aH
	DB	0dH
	DB	04cH
	DB	017H
	DB	0cH
	DB	057H
	DB	0dH
	DB	04aH
	DB	0aH
	DB	02bH
	DB	0aH
	DB	0aH
	DB	0aH
	DB	0aH
	DB	0aH
	DB	0aH
	DB	026H
	DB	026H
	DB	0cH
	DB	01H
	DB	050H
	DB	0aH
	DB	0aH
	DB	050H
	DB	02H
	DB	01eH
	DB	02eH
	DB	055H
	DB	07H
	DB	046H
	DB	01dH
	DB	05H
	DB	05H
	DB	07H
	DB	057H
	DB	0ceH
	DB	050H
	DB	050H
	DB	01H
	DB	02H
	DB	01H
	DB	05H
	DB	050H
	DB	057H
	DB	04cH
	DB	0dH
	DB	0dH
	DB	017H
	DB	0cH
	DB	04bH
	DB	04bH
	DB	04bH
	DB	04bH
	DB	0cH
	DB	0cH
	DB	017H
	DB	017H
	DB	017H
	DB	017H
	DB	04cH
	DB	0dH
	DB	0dH
	DB	0dH
	DB	017H
	DB	07H
	DB	03bH
	DB	02H
	DB	06H
	DB	01H
	DB	03bH
	DB	01H
	DB	01H
	DB	04bH
	DB	04cH
	DB	04cH
	DB	017H
	DB	017H
	DB	05H
	DB	02bH
	DB	016H
	DB	090H
	DB	0d0H
	DB	09H
	DB	09H
	DB	09H
	DB	09H
	DB	09H
	DB	09H
	DB	09H
	DB	09H
	DB	09H
	DB	09H
	DB	09H
	DB	09H
	DB	09H
	DB	09H
	DB	044H
	DB	064H
	DB	075H
	DB	03bH
	DB	03bH
	DB	03bH
	DB	03bH
	DB	03bH
	DB	01H
	DB	01H
	DB	01H
	DB	01H
	DB	01H
	DB	01H
	DB	01H
	DB	01H
	DB	01H
	DB	01H
	DB	01H
	DB	01H
	DB	01H
	DB	01H
	DB	01H
	DB	01H
	DB	01H
	DB	01H
	DB	0c9H
	DB	0c9H
	DB	0c9H
	DB	0c9H
	DB	01H
	DB	015H
	DB	06H
	DB	075H
	DB	015H
	DB	015H
	DB	015H
	DB	015H
	DB	015H
	DB	01bH
	DB	02eH
	DB	00H
	DB	00H
	DB	00H
	DB	00H
	DB	00H
	DB	00H
	DB	00H
	DB	00H
	DB	00H
	DB	00H
	DB	00H
	DB	00H
	DB	00H
	DB	00H
	DB	067H
	DB	031H
	DB	06dH
	DB	037H
	DB	037H
	DB	031H
	DB	052H
	DB	052H
	DB	052H
	DB	031H
	DB	031H
	DB	031H
	DB	031H
	DB	031H
	DB	031H
	DB	031H
	DB	031H
	DB	0bfH
	DB	0aH
	DB	0aH
	DB	0aH
	DB	0aH
	DB	0aH
	DB	0aH
	DB	0aH
	DB	0aH
	DB	0aH
	DB	02bH
	DB	026H
	DB	02bH
	DB	026H
	DB	026H
	DB	02bH
	DB	0aH
	DB	0aH
	DB	0aH
	DB	0aH
	DB	0aH
	DB	0aH
	DB	0aH
	DB	0aH
	DB	0aH
	DB	02bH
	DB	0dH
	DB	055H
	DB	06H
	DB	015H
	DB	01H
	DB	0cH
	DB	050H
	DB	02eH
	DB	02H
	DB	02H
	DB	0cH
	DB	0ceH
	DB	057H
	DB	055H
	DB	06H
	DB	015H
	DB	01dH
	DB	046H
	DB	046H
	DB	046H
	DB	05H
	DB	018H
	DB	01H
	DB	02eH
	DB	053H
	DB	092H
	DB	06H
	DB	01H
	DB	0baH
	DB	0aH
	DB	08H
	DB	01aH
	DB	01aH
	DB	01aH
	DB	03H
	DB	03H
	DB	0a4H
	DB	04aH
	DB	04bH
	DB	0cH
	DB	0cH
	DB	017H
	DB	0cH
	DB	0dH
	DB	0dH
	DB	050H
	DB	05H
	DB	03bH
	DB	053H
	DB	02H
	DB	063H
	DB	01bH
	DB	055H
	DB	04fH
	DB	0cH
	DB	04cH
	DB	04cH
	DB	04cH
	DB	04cH
	DB	028H
	DB	028H
	DB	017H
	DB	04cH
	DB	02bH
	DB	01aH
	DB	06aH
	DB	09H
	DB	09H
	DB	09H
	DB	09H
	DB	09H
	DB	09H
	DB	09H
	DB	09H
	DB	09H
	DB	09H
	DB	09H
	DB	09H
	DB	09H
	DB	012H
	DB	044H
	DB	021H
	DB	075H
	DB	03bH
	DB	01H
	DB	03bH
	DB	03bH
	DB	01H
	DB	01H
	DB	01H
	DB	01H
	DB	01H
	DB	01H
	DB	01H
	DB	01H
	DB	01H
	DB	01H
	DB	01H
	DB	01H
	DB	01H
	DB	01H
	DB	01H
	DB	01H
	DB	01H
	DB	01H
	DB	01H
	DB	0c9H
	DB	0c9H
	DB	01H
	DB	015H
	DB	075H
	DB	06H
	DB	06H
	DB	015H
	DB	015H
	DB	015H
	DB	015H
	DB	015H
	DB	015H
	DB	015H
	DB	06H
	DB	00H
	DB	00H
	DB	00H
	DB	00H
	DB	00H
	DB	00H
	DB	00H
	DB	00H
	DB	00H
	DB	00H
	DB	00H
	DB	00H
	DB	00H
	DB	00H
	DB	0b7H
	DB	035H
	DB	02fH
	DB	01eH
	DB	01eH
	DB	022H
	DB	05aH
	DB	05aH
	DB	030H
	DB	04eH
	DB	037H
	DB	037H
	DB	037H
	DB	04eH
	DB	04eH
	DB	04eH
	DB	04eH
	DB	0bcH
	DB	0aH
	DB	0aH
	DB	0aH
	DB	0aH
	DB	0aH
	DB	0aH
	DB	0aH
	DB	0aH
	DB	0aH
	DB	0aH
	DB	0aH
	DB	0aH
	DB	0aH
	DB	0aH
	DB	0aH
	DB	0aH
	DB	04aH
	DB	0aH
	DB	0aH
	DB	0aH
	DB	0aH
	DB	0aH
	DB	0aH
	DB	0aH
	DB	020H
	DB	015H
	DB	01dH
	DB	04fH
	DB	07H
	DB	055H
	DB	01H
	DB	06H
	DB	01H
	DB	06H
	DB	02H
	DB	0cH
	DB	07H
	DB	07H
	DB	01dH
	DB	01bH
	DB	01H
	DB	01H
	DB	055H
	DB	018H
	DB	0cH
	DB	04bH
	DB	07H
	DB	07H
	DB	07H
	DB	047H
	DB	018H
	DB	046H
	DB	01dH
	DB	01H
	DB	01H
	DB	055H
	DB	0baH
	DB	07H
	DB	020H
	DB	0ceH
	DB	04aH
	DB	04aH
	DB	01dH
	DB	046H
	DB	0cH
	DB	017H
	DB	0cH
	DB	017H
	DB	0cH
	DB	05H
	DB	01H
	DB	01H
	DB	01H
	DB	01dH
	DB	046H
	DB	047H
	DB	04bH
	DB	017H
	DB	017H
	DB	017H
	DB	017H
	DB	017H
	DB	07H
	DB	07H
	DB	02aH
	DB	01aH
	DB	0bH
	DB	04aH
	DB	05H
	DB	08H
	DB	06aH
	DB	09H
	DB	09H
	DB	09H
	DB	09H
	DB	09H
	DB	09H
	DB	09H
	DB	09H
	DB	09H
	DB	09H
	DB	09H
	DB	09H
	DB	09H
	DB	012H
	DB	065H
	DB	021H
	DB	075H
	DB	03bH
	DB	03bH
	DB	01H
	DB	01H
	DB	01H
	DB	01H
	DB	01H
	DB	01H
	DB	01H
	DB	01H
	DB	01H
	DB	01H
	DB	01H
	DB	01H
	DB	01H
	DB	01H
	DB	01H
	DB	01H
	DB	01H
	DB	01H
	DB	01H
	DB	01H
	DB	0c9H
	DB	01H
	DB	01H
	DB	075H
	DB	06H
	DB	06H
	DB	01bH
	DB	015H
	DB	015H
	DB	015H
	DB	01bH
	DB	01bH
	DB	015H
	DB	015H
	DB	015H
	DB	06H
	DB	00H
	DB	00H
	DB	00H
	DB	00H
	DB	00H
	DB	00H
	DB	00H
	DB	00H
	DB	00H
	DB	00H
	DB	00H
	DB	00H
	DB	00H
	DB	00H
	DB	06H
	DB	063H
	DB	032H
	DB	0c8H
	DB	0c8H
	DB	032H
	DB	032H
	DB	00H
	DB	00H
	DB	01eH
	DB	068H
	DB	034H
	DB	03fH
	DB	03fH
	DB	034H
	DB	034H
	DB	034H
	DB	072H
	DB	02bH
	DB	04aH
	DB	0aH
	DB	04aH
	DB	0cH
	DB	04aH
	DB	0aH
	DB	02bH
	DB	02bH
	DB	0aH
	DB	0aH
	DB	0aH
	DB	0aH
	DB	0aH
	DB	0aH
	DB	0aH
	DB	0aH
	DB	0aH
	DB	0aH
	DB	0aH
	DB	04aH
	DB	0aH
	DB	04aH
	DB	08H
	DB	0cH
	DB	055H
	DB	07H
	DB	07H
	DB	07H
	DB	055H
	DB	053H
	DB	027H
	DB	055H
	DB	06H
	DB	027H
	DB	0cH
	DB	07H
	DB	07H
	DB	01dH
	DB	055H
	DB	020H
	DB	0dH
	DB	04aH
	DB	020H
	DB	0aH
	DB	028H
	DB	057H
	DB	0dH
	DB	0cH
	DB	018H
	DB	047H
	DB	07H
	DB	04bH
	DB	0cH
	DB	04bH
	DB	020H
	DB	020H
	DB	07H
	DB	07H
	DB	020H
	DB	04bH
	DB	020H
	DB	018H
	DB	047H
	DB	04bH
	DB	04bH
	DB	04bH
	DB	04bH
	DB	04bH
	DB	0cH
	DB	04bH
	DB	017H
	DB	017H
	DB	017H
	DB	0dH
	DB	028H
	DB	028H
	DB	0aH
	DB	02bH
	DB	028H
	DB	04cH
	DB	017H
	DB	047H
	DB	05H
	DB	0ceH
	DB	0baH
	DB	057H
	DB	0ceH
	DB	05H
	DB	081H
	DB	06aH
	DB	09H
	DB	09H
	DB	09H
	DB	09H
	DB	09H
	DB	09H
	DB	09H
	DB	09H
	DB	09H
	DB	09H
	DB	09H
	DB	09H
	DB	012H
	DB	049H
	DB	021H
	DB	075H
	DB	03bH
	DB	03bH
	DB	01H
	DB	01H
	DB	01H
	DB	01H
	DB	01H
	DB	01H
	DB	01H
	DB	01H
	DB	01H
	DB	01H
	DB	01H
	DB	01H
	DB	01H
	DB	01H
	DB	01H
	DB	01H
	DB	01H
	DB	01H
	DB	01H
	DB	01H
	DB	01H
	DB	01H
	DB	015H
	DB	06H
	DB	06H
	DB	06H
	DB	015H
	DB	015H
	DB	015H
	DB	015H
	DB	01bH
	DB	01bH
	DB	01bH
	DB	01bH
	DB	01bH
	DB	01bH
	DB	06H
	DB	00H
	DB	00H
	DB	00H
	DB	00H
	DB	00H
	DB	00H
	DB	00H
	DB	00H
	DB	00H
	DB	00H
	DB	00H
	DB	00H
	DB	00H
	DB	00H
	DB	06H
	DB	02H
	DB	0c8H
	DB	0c8H
	DB	0c8H
	DB	0c8H
	DB	0c8H
	DB	01eH
	DB	01eH
	DB	01eH
	DB	00H
	DB	00H
	DB	02fH
	DB	05aH
	DB	030H
	DB	034H
	DB	034H
	DB	087H
	DB	0ceH
	DB	0aH
	DB	02bH
	DB	0cH
	DB	06H
	DB	03bH
	DB	01H
	DB	04fH
	DB	0dH
	DB	0aH
	DB	04aH
	DB	04aH
	DB	04aH
	DB	04aH
	DB	0aH
	DB	04aH
	DB	04aH
	DB	0dH
	DB	057H
	DB	04aH
	DB	04aH
	DB	04aH
	DB	028H
	DB	03H
	DB	03H
	DB	04fH
	DB	04fH
	DB	018H
	DB	03bH
	DB	02H
	DB	063H
	DB	053H
	DB	0baH
	DB	03bH
	DB	02eH
	DB	0cH
	DB	04fH
	DB	04fH
	DB	0c9H
	DB	055H
	DB	07H
	DB	057H
	DB	057H
	DB	055H
	DB	0cH
	DB	0cH
	DB	020H
	DB	050H
	DB	057H
	DB	0aH
	DB	028H
	DB	04cH
	DB	07H
	DB	0dH
	DB	0a4H
	DB	01aH
	DB	01aH
	DB	01aH
	DB	02bH
	DB	020H
	DB	020H
	DB	020H
	DB	04bH
	DB	017H
	DB	0aH
	DB	026H
	DB	02bH
	DB	081H
	DB	08H
	DB	028H
	DB	017H
	DB	0cH
	DB	0cH
	DB	0cH
	DB	028H
	DB	04aH
	DB	04aH
	DB	08H
	DB	0dH
	DB	028H
	DB	03aH
	DB	028H
	DB	0cH
	DB	047H
	DB	050H
	DB	05H
	DB	0cH
	DB	050H
	DB	018H
	DB	0aH
	DB	06aH
	DB	09H
	DB	09H
	DB	09H
	DB	09H
	DB	09H
	DB	09H
	DB	09H
	DB	09H
	DB	09H
	DB	09H
	DB	09H
	DB	044H
	DB	076H
	DB	06H
	DB	06H
	DB	01bH
	DB	03bH
	DB	01H
	DB	01H
	DB	01H
	DB	01H
	DB	01H
	DB	01H
	DB	01H
	DB	01H
	DB	01H
	DB	01H
	DB	01H
	DB	01H
	DB	01H
	DB	01H
	DB	01H
	DB	01H
	DB	01H
	DB	01H
	DB	01H
	DB	01H
	DB	01H
	DB	015H
	DB	06H
	DB	06H
	DB	075H
	DB	075H
	DB	015H
	DB	015H
	DB	015H
	DB	015H
	DB	015H
	DB	015H
	DB	015H
	DB	015H
	DB	015H
	DB	01bH
	DB	01bH
	DB	06H
	DB	00H
	DB	00H
	DB	00H
	DB	00H
	DB	00H
	DB	00H
	DB	00H
	DB	00H
	DB	00H
	DB	00H
	DB	00H
	DB	00H
	DB	00H
	DB	00H
	DB	06H
	DB	02H
	DB	0c8H
	DB	0c8H
	DB	0c8H
	DB	0c8H
	DB	0c8H
	DB	0c8H
	DB	01eH
	DB	01eH
	DB	01eH
	DB	01eH
	DB	032H
	DB	00H
	DB	01eH
	DB	068H
	DB	083H
	DB	083H
	DB	083H
	DB	01fH
	DB	057H
	DB	055H
	DB	02H
	DB	01eH
	DB	00H
	DB	00H
	DB	0c8H
	DB	0cH
	DB	04aH
	DB	04aH
	DB	04aH
	DB	04aH
	DB	047H
	DB	05H
	DB	05H
	DB	046H
	DB	01H
	DB	018H
	DB	04aH
	DB	04aH
	DB	04aH
	DB	026H
	DB	0fH
	DB	04fH
	DB	06H
	DB	02H
	DB	063H
	DB	063H
	DB	0c8H
	DB	02H
	DB	05H
	DB	01bH
	DB	02eH
	DB	0cH
	DB	05H
	DB	0baH
	DB	01dH
	DB	055H
	DB	07H
	DB	0cH
	DB	0cH
	DB	01H
	DB	050H
	DB	0cH
	DB	020H
	DB	07H
	DB	057H
	DB	08H
	DB	01aH
	DB	0fH
	DB	055H
	DB	05H
	DB	02aH
	DB	026H
	DB	08H
	DB	08H
	DB	07H
	DB	0cH
	DB	03aH
	DB	08H
	DB	08H
	DB	07H
	DB	0aH
	DB	0bH
	DB	0bH
	DB	0bH
	DB	01aH
	DB	07H
	DB	0dH
	DB	03aH
	DB	08H
	DB	08H
	DB	057H
	DB	0cH
	DB	0ceH
	DB	0dH
	DB	055H
	DB	0c9H
	DB	0dH
	DB	0cH
	DB	04fH
	DB	018H
	DB	020H
	DB	0c9H
	DB	0cH
	DB	020H
	DB	05H
	DB	04aH
	DB	049H
	DB	019H
	DB	09H
	DB	09H
	DB	09H
	DB	044H
	DB	044H
	DB	044H
	DB	044H
	DB	058H
	DB	058H
	DB	054H
	DB	0a7H
	DB	015H
	DB	075H
	DB	06H
	DB	03bH
	DB	01H
	DB	01H
	DB	03bH
	DB	01H
	DB	01H
	DB	01H
	DB	01H
	DB	01H
	DB	01H
	DB	01H
	DB	01H
	DB	01H
	DB	01H
	DB	01H
	DB	01H
	DB	01H
	DB	01H
	DB	01H
	DB	01H
	DB	01H
	DB	01H
	DB	01bH
	DB	06H
	DB	06H
	DB	075H
	DB	015H
	DB	015H
	DB	015H
	DB	015H
	DB	015H
	DB	015H
	DB	015H
	DB	015H
	DB	01bH
	DB	01bH
	DB	015H
	DB	015H
	DB	015H
	DB	06H
	DB	00H
	DB	00H
	DB	00H
	DB	00H
	DB	00H
	DB	00H
	DB	00H
	DB	00H
	DB	00H
	DB	00H
	DB	00H
	DB	00H
	DB	00H
	DB	00H
	DB	06H
	DB	02H
	DB	0c8H
	DB	0c8H
	DB	0c8H
	DB	0c8H
	DB	0c8H
	DB	0c8H
	DB	0c8H
	DB	01eH
	DB	01eH
	DB	01eH
	DB	01eH
	DB	01eH
	DB	01eH
	DB	032H
	DB	01eH
	DB	01eH
	DB	01eH
	DB	01eH
	DB	0c8H
	DB	01eH
	DB	00H
	DB	00H
	DB	00H
	DB	00H
	DB	00H
	DB	04fH
	DB	0aH
	DB	0dH
	DB	028H
	DB	026H
	DB	04fH
	DB	055H
	DB	055H
	DB	03bH
	DB	063H
	DB	01eH
	DB	0cH
	DB	02bH
	DB	0dH
	DB	020H
	DB	01H
	DB	02H
	DB	063H
	DB	063H
	DB	02H
	DB	063H
	DB	0c8H
	DB	032H
	DB	01eH
	DB	02H
	DB	06H
	DB	050H
	DB	05H
	DB	05H
	DB	01dH
	DB	055H
	DB	07H
	DB	0ceH
	DB	050H
	DB	01H
	DB	020H
	DB	050H
	DB	020H
	DB	07H
	DB	050H
	DB	0dH
	DB	0dH
	DB	0aH
	DB	03bH
	DB	05H
	DB	026H
	DB	0aH
	DB	02bH
	DB	0aH
	DB	01dH
	DB	0cH
	DB	06fH
	DB	016H
	DB	016H
	DB	07H
	DB	0cH
	DB	03H
	DB	03H
	DB	03H
	DB	0aH
	DB	03bH
	DB	020H
	DB	01aH
	DB	026H
	DB	02bH
	DB	0cH
	DB	0cH
	DB	0cH
	DB	0dH
	DB	055H
	DB	0c9H
	DB	057H
	DB	0cH
	DB	04fH
	DB	018H
	DB	07H
	DB	01H
	DB	0cH
	DB	07H
	DB	018H
	DB	04aH
	DB	05cH
	DB	054H
	DB	049H
	DB	049H
	DB	054H
	DB	0a6H
	DB	064H
	DB	021H
	DB	021H
	DB	03bH
	DB	03bH
	DB	015H
	DB	015H
	DB	01H
	DB	03bH
	DB	06H
	DB	03bH
	DB	01H
	DB	01H
	DB	01H
	DB	01H
	DB	01H
	DB	01H
	DB	01H
	DB	01H
	DB	01H
	DB	01H
	DB	01H
	DB	01H
	DB	01H
	DB	01H
	DB	01H
	DB	01H
	DB	01H
	DB	01H
	DB	01H
	DB	03bH
	DB	06H
	DB	06H
	DB	06H
	DB	01bH
	DB	01bH
	DB	015H
	DB	01bH
	DB	015H
	DB	015H
	DB	015H
	DB	015H
	DB	015H
	DB	015H
	DB	01bH
	DB	01bH
	DB	01bH
	DB	015H
	DB	015H
	DB	06H
	DB	00H
	DB	00H
	DB	00H
	DB	00H
	DB	00H
	DB	00H
	DB	00H
	DB	00H
	DB	00H
	DB	00H
	DB	00H
	DB	00H
	DB	00H
	DB	00H
	DB	06H
	DB	02H
	DB	0c8H
	DB	0c8H
	DB	0c8H
	DB	0c8H
	DB	0c8H
	DB	0c8H
	DB	0c8H
	DB	0c8H
	DB	0c8H
	DB	0c8H
	DB	01eH
	DB	01eH
	DB	01eH
	DB	01eH
	DB	01eH
	DB	01eH
	DB	01eH
	DB	01eH
	DB	01eH
	DB	01eH
	DB	01eH
	DB	01eH
	DB	00H
	DB	00H
	DB	00H
	DB	01H
	DB	04aH
	DB	04aH
	DB	04aH
	DB	026H
	DB	0baH
	DB	06H
	DB	02H
	DB	00H
	DB	00H
	DB	00H
	DB	02eH
	DB	055H
	DB	02H
	DB	00H
	DB	00H
	DB	00H
	DB	01eH
	DB	01eH
	DB	01eH
	DB	032H
	DB	032H
	DB	01eH
	DB	068H
	DB	068H
	DB	015H
	DB	0ceH
	DB	04fH
	DB	07H
	DB	055H
	DB	055H
	DB	07H
	DB	0cH
	DB	020H
	DB	03bH
	DB	07H
	DB	050H
	DB	07H
	DB	07H
	DB	050H
	DB	0dH
	DB	0dH
	DB	0aH
	DB	01bH
	DB	05H
	DB	02bH
	DB	04aH
	DB	0aH
	DB	0aH
	DB	055H
	DB	07H
	DB	013H
	DB	0bH
	DB	0fH
	DB	05H
	DB	0ceH
	DB	03H
	DB	01aH
	DB	01aH
	DB	04aH
	DB	03bH
	DB	07H
	DB	02bH
	DB	04aH
	DB	04aH
	DB	050H
	DB	0cH
	DB	0cH
	DB	0ceH
	DB	01H
	DB	01dH
	DB	057H
	DB	050H
	DB	04fH
	DB	05H
	DB	0baH
	DB	01H
	DB	050H
	DB	047H
	DB	01H
	DB	05H
	DB	02eH
	DB	06H
	DB	06H
	DB	06H
	DB	06H
	DB	06H
	DB	075H
	DB	075H
	DB	075H
	DB	075H
	DB	015H
	DB	015H
	DB	03bH
	DB	01H
	DB	01H
	DB	075H
	DB	03bH
	DB	01H
	DB	01H
	DB	01H
	DB	01H
	DB	01H
	DB	01H
	DB	01H
	DB	01H
	DB	01H
	DB	01H
	DB	01H
	DB	01H
	DB	01H
	DB	01H
	DB	01H
	DB	01H
	DB	01H
	DB	015H
	DB	015H
	DB	075H
	DB	06H
	DB	075H
	DB	015H
	DB	015H
	DB	01bH
	DB	01bH
	DB	01bH
	DB	01bH
	DB	01bH
	DB	015H
	DB	015H
	DB	01bH
	DB	015H
	DB	015H
	DB	01bH
	DB	01bH
	DB	01bH
	DB	015H
	DB	06H
	DB	00H
	DB	00H
	DB	00H
	DB	00H
	DB	00H
	DB	00H
	DB	00H
	DB	00H
	DB	00H
	DB	00H
	DB	00H
	DB	00H
	DB	00H
	DB	00H
	DB	02H
	DB	063H
	DB	0c8H
	DB	0c8H
	DB	0c8H
	DB	0c8H
	DB	0c8H
	DB	0c8H
	DB	0c8H
	DB	0c8H
	DB	0c8H
	DB	0c8H
	DB	0c8H
	DB	0c8H
	DB	01eH
	DB	01eH
	DB	01eH
	DB	032H
	DB	01eH
	DB	01eH
	DB	01eH
	DB	01eH
	DB	01eH
	DB	01eH
	DB	01eH
	DB	01eH
	DB	00H
	DB	01eH
	DB	06H
	DB	03bH
	DB	01dH
	DB	01H
	DB	063H
	DB	00H
	DB	00H
	DB	00H
	DB	00H
	DB	00H
	DB	00H
	DB	00H
	DB	00H
	DB	00H
	DB	00H
	DB	00H
	DB	00H
	DB	00H
	DB	00H
	DB	00H
	DB	01eH
	DB	068H
	DB	083H
	DB	05aH
	DB	021H
	DB	07H
	DB	0c9H
	DB	01H
	DB	03bH
	DB	05H
	DB	07H
	DB	0cH
	DB	07H
	DB	01bH
	DB	07H
	DB	07H
	DB	07H
	DB	07H
	DB	050H
	DB	057H
	DB	0dH
	DB	04aH
	DB	06H
	DB	055H
	DB	0aH
	DB	04aH
	DB	04aH
	DB	04aH
	DB	01dH
	DB	07H
	DB	0fH
	DB	0fH
	DB	0fH
	DB	05H
	DB	0cH
	DB	01aH
	DB	03aH
	DB	01aH
	DB	028H
	DB	06H
	DB	07H
	DB	02bH
	DB	04aH
	DB	028H
	DB	020H
	DB	050H
	DB	050H
	DB	0cH
	DB	01H
	DB	01H
	DB	0cH
	DB	020H
	DB	018H
	DB	05H
	DB	04fH
	DB	0c9H
	DB	050H
	DB	047H
	DB	06H
	DB	02H
	DB	02eH
	DB	06H
	DB	075H
	DB	075H
	DB	075H
	DB	01bH
	DB	01bH
	DB	01bH
	DB	03bH
	DB	03bH
	DB	03bH
	DB	03bH
	DB	03bH
	DB	01H
	DB	01H
	DB	03bH
	DB	03bH
	DB	01H
	DB	01H
	DB	01H
	DB	01H
	DB	01H
	DB	01H
	DB	01H
	DB	01H
	DB	01H
	DB	01H
	DB	01H
	DB	01H
	DB	01H
	DB	01H
	DB	01H
	DB	01H
	DB	01bH
	DB	06H
	DB	06H
	DB	075H
	DB	01bH
	DB	01bH
	DB	01bH
	DB	01bH
	DB	075H
	DB	01bH
	DB	01bH
	DB	075H
	DB	075H
	DB	01bH
	DB	015H
	DB	015H
	DB	01bH
	DB	015H
	DB	01bH
	DB	01bH
	DB	015H
	DB	01bH
	DB	02eH
	DB	00H
	DB	00H
	DB	00H
	DB	00H
	DB	00H
	DB	00H
	DB	00H
	DB	00H
	DB	00H
	DB	00H
	DB	00H
	DB	00H
	DB	00H
	DB	00H
	DB	01eH
	DB	0c8H
	DB	0c8H
	DB	0c8H
	DB	0c8H
	DB	0c8H
	DB	0c8H
	DB	0c8H
	DB	0c8H
	DB	0c8H
	DB	0c8H
	DB	0c8H
	DB	0c8H
	DB	0c8H
	DB	01eH
	DB	01eH
	DB	0c8H
	DB	0c8H
	DB	01eH
	DB	01eH
	DB	01eH
	DB	01eH
	DB	0c8H
	DB	01eH
	DB	01eH
	DB	01eH
	DB	01eH
	DB	01eH
	DB	00H
	DB	00H
	DB	00H
	DB	00H
	DB	01eH
	DB	01eH
	DB	01eH
	DB	01eH
	DB	01eH
	DB	00H
	DB	00H
	DB	00H
	DB	00H
	DB	00H
	DB	00H
	DB	00H
	DB	00H
	DB	00H
	DB	01eH
	DB	068H
	DB	083H
	DB	030H
	DB	030H
	DB	030H
	DB	083H
	DB	05aH
	DB	02fH
	DB	00H
	DB	00H
	DB	05H
	DB	050H
	DB	050H
	DB	07H
	DB	03bH
	DB	07H
	DB	07H
	DB	04fH
	DB	04fH
	DB	020H
	DB	057H
	DB	057H
	DB	028H
	DB	06H
	DB	055H
	DB	04aH
	DB	0dH
	DB	04aH
	DB	028H
	DB	01H
	DB	07H
	DB	0fH
	DB	0fH
	DB	03H
	DB	046H
	DB	0cH
	DB	02aH
	DB	08H
	DB	02aH
	DB	0dH
	DB	06H
	DB	04fH
	DB	0aH
	DB	028H
	DB	0dH
	DB	020H
	DB	020H
	DB	050H
	DB	0cH
	DB	03bH
	DB	01H
	DB	0cH
	DB	07H
	DB	05H
	DB	05H
	DB	04fH
	DB	05H
	DB	0cH
	DB	0baH
	DB	053H
	DB	06H
	DB	021H
	DB	03bH
	DB	03bH
	DB	03bH
	DB	01H
	DB	01H
	DB	01H
	DB	01H
	DB	01H
	DB	01H
	DB	01H
	DB	01H
	DB	01H
	DB	01H
	DB	01H
	DB	01H
	DB	03bH
	DB	01H
	DB	01H
	DB	01H
	DB	01H
	DB	01H
	DB	01H
	DB	01H
	DB	01H
	DB	01H
	DB	01H
	DB	01H
	DB	01H
	DB	01H
	DB	01H
	DB	015H
	DB	01bH
	DB	06H
	DB	06H
	DB	01bH
	DB	01bH
	DB	01bH
	DB	01bH
	DB	01bH
	DB	01bH
	DB	01bH
	DB	01bH
	DB	01bH
	DB	01bH
	DB	015H
	DB	015H
	DB	015H
	DB	015H
	DB	015H
	DB	015H
	DB	015H
	DB	01bH
	DB	01bH
	DB	02eH
	DB	063H
	DB	00H
	DB	00H
	DB	00H
	DB	00H
	DB	00H
	DB	00H
	DB	00H
	DB	00H
	DB	00H
	DB	00H
	DB	00H
	DB	00H
	DB	00H
	DB	00H
	DB	00H
	DB	00H
	DB	01eH
	DB	01eH
	DB	01eH
	DB	01eH
	DB	01eH
	DB	01eH
	DB	01eH
	DB	01eH
	DB	01eH
	DB	01eH
	DB	01eH
	DB	01eH
	DB	00H
	DB	00H
	DB	00H
	DB	00H
	DB	01eH
	DB	01eH
	DB	01eH
	DB	01eH
	DB	01eH
	DB	01eH
	DB	00H
	DB	00H
	DB	00H
	DB	01eH
	DB	01eH
	DB	01eH
	DB	01eH
	DB	00H
	DB	01eH
	DB	01eH
	DB	01eH
	DB	01eH
	DB	01eH
	DB	01eH
	DB	01eH
	DB	01eH
	DB	00H
	DB	00H
	DB	00H
	DB	00H
	DB	01eH
	DB	02fH
	DB	05aH
	DB	083H
	DB	083H
	DB	083H
	DB	083H
	DB	083H
	DB	068H
	DB	02fH
	DB	01eH
	DB	00H
	DB	00H
	DB	01H
	DB	050H
	DB	057H
	DB	050H
	DB	03bH
	DB	04fH
	DB	020H
	DB	07H
	DB	07H
	DB	07H
	DB	0ceH
	DB	0ceH
	DB	0dH
	DB	02eH
	DB	055H
	DB	028H
	DB	0dH
	DB	0dH
	DB	057H
	DB	01H
	DB	020H
	DB	03H
	DB	03H
	DB	01aH
	DB	055H
	DB	0cH
	DB	08H
	DB	026H
	DB	08H
	DB	0ceH
	DB	02eH
	DB	07H
	DB	0aH
	DB	0dH
	DB	057H
	DB	07H
	DB	07H
	DB	020H
	DB	050H
	DB	03bH
	DB	01H
	DB	0cH
	DB	07H
	DB	05H
	DB	02eH
	DB	02H
	DB	053H
	DB	03bH
	DB	06H
	DB	02H
	DB	092H
	DB	053H
	DB	053H
	DB	053H
	DB	053H
	DB	053H
	DB	053H
	DB	053H
	DB	053H
	DB	053H
	DB	053H
	DB	053H
	DB	06H
	DB	06H
	DB	053H
	DB	053H
	DB	053H
	DB	053H
	DB	053H
	DB	06H
	DB	053H
	DB	053H
	DB	053H
	DB	02eH
	DB	02eH
	DB	02eH
	DB	06H
	DB	06H
	DB	06H
	DB	06H
	DB	02eH
	DB	092H
	DB	092H
	DB	027H
	DB	027H
	DB	027H
	DB	027H
	DB	027H
	DB	027H
	DB	027H
	DB	027H
	DB	027H
	DB	027H
	DB	027H
	DB	027H
	DB	027H
	DB	027H
	DB	027H
	DB	027H
	DB	027H
	DB	027H
	DB	027H
	DB	027H
	DB	027H
	DB	02H
	DB	0c8H
	DB	00H
	DB	00H
	DB	00H
	DB	00H
	DB	00H
	DB	00H
	DB	00H
	DB	00H
	DB	00H
	DB	00H
	DB	00H
	DB	00H
	DB	00H
	DB	00H
	DB	00H
	DB	00H
	DB	00H
	DB	00H
	DB	00H
	DB	00H
	DB	00H
	DB	00H
	DB	00H
	DB	00H
	DB	00H
	DB	00H
	DB	00H
	DB	00H
	DB	00H
	DB	00H
	DB	00H
	DB	00H
	DB	00H
	DB	00H
	DB	00H
	DB	00H
	DB	00H
	DB	00H
	DB	00H
	DB	00H
	DB	00H
	DB	00H
	DB	00H
	DB	00H
	DB	00H
	DB	00H
	DB	00H
	DB	00H
	DB	00H
	DB	00H
	DB	00H
	DB	00H
	DB	00H
	DB	00H
	DB	00H
	DB	00H
	DB	00H
	DB	00H
	DB	00H
	DB	00H
	DB	01eH
	DB	01eH
	DB	00H
	DB	00H
	DB	00H
	DB	00H
	DB	00H
	DB	00H
	DB	00H
	DB	00H
	DB	00H
	DB	00H
	DB	00H
	DB	063H
	DB	03bH
	DB	06H
	DB	0c8H
	DB	01eH
	DB	02H
	DB	01bH
	DB	01dH
	DB	020H
	DB	0ceH
	DB	0cH
	DB	057H
	DB	02eH
	DB	05H
	DB	04aH
	DB	0dH
	DB	0dH
	DB	057H
	DB	01H
	DB	07H
	DB	03H
	DB	03H
	DB	02aH
	DB	01dH
	DB	0cH
	DB	026H
	DB	02bH
	DB	026H
	DB	0cH
	DB	02eH
	DB	07H
	DB	04aH
	DB	057H
	DB	0ceH
	DB	07H
	DB	020H
	DB	020H
	DB	020H
	DB	01H
	DB	055H
	DB	0cH
	DB	07H
	DB	05H
	DB	0c8H
	DB	00H
	DB	00H
	DB	00H
	DB	00H
	DB	01eH
	DB	01eH
	DB	01eH
	DB	00H
	DB	00H
	DB	00H
	DB	00H
	DB	00H
	DB	00H
	DB	00H
	DB	00H
	DB	00H
	DB	00H
	DB	00H
	DB	00H
	DB	00H
	DB	00H
	DB	00H
	DB	00H
	DB	00H
	DB	00H
	DB	00H
	DB	00H
	DB	00H
	DB	00H
	DB	00H
	DB	00H
	DB	00H
	DB	00H
	DB	00H
	DB	00H
	DB	00H
	DB	00H
	DB	00H
	DB	00H
	DB	00H
	DB	00H
	DB	00H
	DB	00H
	DB	00H
	DB	00H
	DB	00H
	DB	00H
	DB	00H
	DB	00H
	DB	00H
	DB	00H
	DB	00H
	DB	00H
	DB	00H
	DB	00H
	DB	00H
	DB	00H
	DB	00H
	DB	00H
	DB	00H
	DB	00H
	DB	00H
	DB	00H
	DB	00H
	DB	00H
	DB	00H
	DB	00H
	DB	00H
	DB	00H
	DB	00H
	DB	00H
	DB	00H
	DB	00H
	DB	00H
	DB	00H
	DB	00H
	DB	00H
	DB	00H
	DB	00H
	DB	00H
	DB	00H
	DB	00H
	DB	00H
	DB	00H
	DB	00H
	DB	00H
	DB	00H
	DB	00H
	DB	00H
	DB	00H
	DB	00H
	DB	00H
	DB	00H
	DB	00H
	DB	00H
	DB	00H
	DB	00H
	DB	00H
	DB	00H
	DB	00H
	DB	00H
	DB	00H
	DB	00H
	DB	00H
	DB	00H
	DB	00H
	DB	00H
	DB	00H
	DB	00H
	DB	00H
	DB	00H
	DB	00H
	DB	00H
	DB	00H
	DB	00H
	DB	00H
	DB	00H
	DB	00H
	DB	00H
	DB	00H
	DB	00H
	DB	00H
	DB	00H
	DB	00H
	DB	00H
	DB	00H
	DB	00H
	DB	00H
	DB	00H
	DB	00H
	DB	00H
	DB	00H
	DB	00H
	DB	00H
	DB	00H
	DB	00H
	DB	00H
	DB	00H
	DB	00H
	DB	00H
	DB	00H
	DB	00H
	DB	018H
	DB	0dH
	DB	0dH
	DB	0aH
	DB	01bH
	DB	03bH
	DB	020H
	DB	020H
	DB	050H
	DB	0cH
	DB	03bH
	DB	07H
	DB	01aH
	DB	03H
	DB	08H
	DB	01dH
	DB	0cH
	DB	02bH
	DB	0aH
	DB	0aH
	DB	0cH
	DB	02eH
	DB	07H
	DB	04aH
	DB	057H
	DB	057H
	DB	0c9H
	DB	06H
	DB	027H
	DB	063H
	DB	02H
	DB	075H
	DB	0baH
	DB	03bH
	DB	02H
	DB	00H
	DB	00H
	DB	00H
	DB	00H
	DB	01eH
	DB	01eH
	DB	00H
	DB	00H
	DB	00H
	DB	00H
	DB	00H
	DB	00H
	DB	00H
	DB	00H
	DB	00H
	DB	00H
	DB	00H
	DB	00H
	DB	00H
	DB	00H
	DB	00H
	DB	00H
	DB	00H
	DB	00H
	DB	00H
	DB	00H
	DB	00H
	DB	00H
	DB	00H
	DB	00H
	DB	00H
	DB	00H
	DB	00H
	DB	00H
	DB	00H
	DB	00H
	DB	00H
	DB	00H
	DB	00H
	DB	00H
	DB	00H
	DB	00H
	DB	00H
	DB	00H
	DB	00H
	DB	00H
	DB	00H
	DB	00H
	DB	00H
	DB	00H
	DB	00H
	DB	00H
	DB	00H
	DB	00H
	DB	00H
	DB	00H
	DB	00H
	DB	00H
	DB	00H
	DB	00H
	DB	00H
	DB	00H
	DB	00H
	DB	00H
	DB	00H
	DB	00H
	DB	00H
	DB	00H
	DB	00H
	DB	00H
	DB	00H
	DB	00H
	DB	00H
	DB	00H
	DB	00H
	DB	00H
	DB	00H
	DB	00H
	DB	00H
	DB	00H
	DB	00H
	DB	00H
	DB	00H
	DB	00H
	DB	00H
	DB	00H
	DB	00H
	DB	00H
	DB	00H
	DB	00H
	DB	00H
	DB	00H
	DB	00H
	DB	00H
	DB	00H
	DB	00H
	DB	00H
	DB	00H
	DB	00H
	DB	00H
	DB	00H
	DB	00H
	DB	00H
	DB	00H
	DB	00H
	DB	00H
	DB	00H
	DB	00H
	DB	00H
	DB	00H
	DB	00H
	DB	00H
	DB	00H
	DB	00H
	DB	00H
	DB	00H
	DB	00H
	DB	00H
	DB	00H
	DB	00H
	DB	00H
	DB	00H
	DB	00H
	DB	00H
	DB	00H
	DB	00H
	DB	00H
	DB	00H
	DB	00H
	DB	00H
	DB	00H
	DB	00H
	DB	00H
	DB	00H
	DB	00H
	DB	00H
	DB	00H
	DB	00H
	DB	00H
	DB	00H
	DB	00H
	DB	00H
	DB	00H
	DB	01eH
	DB	027H
	DB	03bH
	DB	0c9H
	DB	0c8H
	DB	00H
	DB	00H
	DB	00H
	DB	01eH
	DB	0c8H
	DB	063H
	DB	0cH
	DB	02aH
	DB	01aH
	DB	08H
	DB	01H
	DB	027H
	DB	06H
	DB	02eH
	DB	053H
	DB	02H
	DB	02H
	DB	020H
	DB	0dH
	DB	0cH
	DB	020H
	DB	02H
	DB	00H
	DB	00H
	DB	00H
	DB	00H
	DB	00H
	DB	00H
	DB	00H
	DB	00H
	DB	00H
	DB	00H
	DB	00H
	DB	00H
	DB	00H
	DB	00H
	DB	00H
	DB	00H
	DB	00H
	DB	00H
	DB	00H
	DB	00H
	DB	00H
	DB	00H
	DB	00H
	DB	00H
	DB	00H
	DB	00H
	DB	00H
	DB	00H
	DB	00H
	DB	00H
	DB	00H
	DB	00H
	DB	00H
	DB	00H
	DB	00H
	DB	00H
	DB	00H
	DB	00H
	DB	00H
	DB	00H
	DB	00H
	DB	00H
	DB	00H
	DB	00H
	DB	00H
	DB	00H
	DB	00H
	DB	00H
	DB	00H
	DB	00H
	DB	00H
	DB	00H
	DB	00H
	DB	00H
	DB	00H
	DB	00H
	DB	00H
	DB	00H
	DB	00H
	DB	00H
	DB	00H
	DB	00H
	DB	00H
	DB	00H
	DB	00H
	DB	00H
	DB	00H
	DB	00H
	DB	00H
	DB	00H
	DB	00H
	DB	00H
	DB	00H
	DB	00H
	DB	00H
	DB	00H
	DB	00H
	DB	00H
	DB	00H
	DB	00H
	DB	00H
	DB	00H
	DB	00H
	DB	00H
	DB	00H
	DB	00H
	DB	00H
	DB	00H
	DB	00H
	DB	00H
	DB	00H
	DB	00H
	DB	00H
	DB	00H
	DB	00H
	DB	00H
	DB	00H
	DB	00H
	DB	00H
	DB	00H
	DB	00H
	DB	00H
	DB	00H
	DB	00H
	DB	00H
	DB	00H
	DB	00H
	DB	00H
	DB	00H
	DB	00H
	DB	00H
	DB	00H
	DB	00H
	DB	00H
	DB	00H
	DB	00H
	DB	00H
	DB	00H
	DB	00H
	DB	00H
	DB	00H
	DB	00H
	DB	00H
	DB	00H
	DB	00H
	DB	00H
	DB	00H
	DB	00H
	DB	00H
	DB	00H
	DB	00H
	DB	00H
	DB	00H
	DB	00H
	DB	00H
	DB	00H
	DB	00H
	DB	00H
	DB	00H
	DB	00H
	DB	00H
	DB	00H
	DB	00H
	DB	00H
	DB	00H
	DB	00H
	DB	00H
	DB	00H
	DB	00H
	DB	00H
	DB	00H
	DB	00H
	DB	00H
	DB	00H
	DB	00H
	DB	00H
	DB	00H
	DB	00H
	DB	00H
	DB	00H
	DB	00H
	DB	00H
	DB	02H
	DB	06H
	DB	03bH
	DB	01H
	DB	0c8H
	DB	00H
	DB	00H
	DB	00H
	DB	00H
	DB	00H
	DB	00H
	DB	0c8H
	DB	02H
	DB	0c8H
	DB	01eH
	DB	00H
	DB	00H
	DB	00H
	DB	00H
	DB	00H
	DB	00H
	DB	00H
	DB	00H
	DB	00H
	DB	00H
	DB	00H
	DB	00H
	DB	00H
	DB	00H
	DB	00H
	DB	00H
	DB	00H
	DB	00H
	DB	00H
	DB	00H
	DB	00H
	DB	00H
	DB	00H
	DB	00H
	DB	00H
	DB	00H
	DB	00H
	DB	00H
	DB	00H
	DB	00H
	DB	00H
	DB	00H
	DB	00H
	DB	00H
	DB	00H
	DB	00H
	DB	00H
	DB	00H
	DB	00H
	DB	00H
	DB	00H
	DB	00H
	DB	00H
	DB	00H
	DB	00H
	DB	00H
	DB	00H
	DB	00H
	DB	00H
	DB	00H
	DB	00H
	DB	00H
	DB	00H
	DB	00H
	DB	00H
	DB	00H
	DB	00H
	DB	00H
	DB	00H
	DB	00H
	DB	00H
	DB	00H
	DB	00H
	DB	00H
	DB	00H
	DB	00H
	DB	00H
	DB	00H
	DB	00H
	DB	00H
	DB	00H
	DB	00H
	DB	00H
	DB	00H
	DB	00H
	DB	00H
	DB	00H
	DB	00H
	DB	00H
	DB	00H
	DB	00H
	DB	00H
	DB	00H
	DB	00H
	DB	00H
	DB	00H
	DB	00H
	DB	00H
	DB	00H
	DB	00H
	DB	00H
	DB	00H
	DB	00H
	DB	00H
	DB	00H
	DB	00H
	DB	00H
	DB	00H
	DB	00H
	DB	00H
	DB	00H
	DB	01eH
	DB	02H
	DB	02H
	DB	02H
	DB	02H
	DB	02H
	DB	02H
	DB	02H
	DB	00H
	DB	00H
	DB	00H
	DB	00H
	DB	00H
	DB	00H
	DB	00H
	DB	00H
	DB	00H
	DB	00H
	DB	00H
	DB	00H
	DB	00H
	DB	00H
	DB	00H
	DB	00H
	DB	00H
	DB	00H
	DB	00H
	DB	00H
	DB	00H
	DB	00H
	DB	00H
	DB	00H
	DB	00H
	DB	00H
	DB	00H
	DB	00H
	DB	00H
	DB	00H
	DB	00H
	DB	00H
	DB	00H
	DB	00H
	DB	00H
	DB	00H
	DB	00H
	DB	00H
	DB	00H
	DB	00H
	DB	00H
	DB	00H
	DB	00H
	DB	00H
	DB	00H
	DB	00H
	DB	00H
	DB	00H
	DB	00H
	DB	00H
	DB	00H
	DB	00H
	DB	00H
	DB	00H
	DB	00H
	DB	00H
	DB	00H
	DB	00H
	DB	00H
	DB	00H
	DB	00H
	DB	00H
	DB	01eH
	DB	02H
	DB	02H
	DB	0c8H
	DB	00H
	DB	00H
	DB	00H
	DB	00H
	DB	00H
	DB	00H
	DB	00H
	DB	00H
	DB	00H
	DB	00H
	DB	00H
	DB	00H
	DB	00H
	DB	00H
	DB	00H
	DB	00H
	DB	00H
	DB	00H
	DB	00H
	DB	00H
	DB	00H
	DB	00H
	DB	00H
	DB	00H
	DB	00H
	DB	00H
	DB	00H
	DB	00H
	DB	00H
	DB	00H
	DB	00H
	DB	00H
	DB	00H
	DB	00H
	DB	00H
	DB	00H
	DB	00H
	DB	00H
	DB	00H
	DB	00H
	DB	00H
	DB	00H
	DB	00H
	DB	00H
	DB	00H
	DB	00H
	DB	00H
	DB	00H
	DB	00H
	DB	00H
	DB	00H
	DB	00H
	DB	00H
	DB	00H
	DB	00H
	DB	00H
	DB	00H
	DB	00H
	DB	00H
	DB	00H
	DB	00H
	DB	00H
	DB	00H
	DB	00H
	DB	00H
	DB	00H
	DB	00H
	DB	00H
	DB	00H
	DB	00H
	DB	00H
	DB	00H
	DB	00H
	DB	00H
	DB	00H
	DB	00H
	DB	00H
	DB	00H
	DB	00H
	DB	00H
	DB	00H
	DB	00H
	DB	00H
	DB	00H
	DB	00H
	DB	00H
	DB	00H
	DB	00H
	DB	00H
	DB	00H
	DB	00H
	DB	00H
	DB	00H
	DB	00H
	DB	00H
	DB	00H
	DB	00H
	DB	00H
	DB	00H
	DB	00H
	DB	00H
	DB	00H
	DB	00H
	DB	00H
	DB	0cH
	DB	04H
	DB	0ffH
	DB	0ffH
	DB	0ffH
	DB	0ffH
	DB	0ffH
	DB	0ffH
	DB	0fcH
	DB	026H
	DB	03bH
	DB	00H
	DB	00H
	DB	00H
	DB	00H
	DB	00H
	DB	00H
	DB	00H
	DB	00H
	DB	00H
	DB	00H
	DB	00H
	DB	00H
	DB	00H
	DB	00H
	DB	00H
	DB	00H
	DB	00H
	DB	00H
	DB	00H
	DB	00H
	DB	00H
	DB	00H
	DB	00H
	DB	00H
	DB	00H
	DB	00H
	DB	00H
	DB	00H
	DB	00H
	DB	00H
	DB	00H
	DB	00H
	DB	00H
	DB	00H
	DB	00H
	DB	00H
	DB	00H
	DB	00H
	DB	00H
	DB	00H
	DB	00H
	DB	00H
	DB	00H
	DB	00H
	DB	00H
	DB	00H
	DB	00H
	DB	00H
	DB	00H
	DB	00H
	DB	00H
	DB	00H
	DB	00H
	DB	00H
	DB	00H
	DB	00H
	DB	092H
	DB	0dH
	DB	06fH
	DB	0ffH
	DB	0ffH
	DB	0ffH
	DB	0ffH
	DB	0fcH
	DB	02aH
	DB	0c9H
	DB	00H
	DB	00H
	DB	00H
	DB	00H
	DB	00H
	DB	00H
	DB	00H
	DB	00H
	DB	00H
	DB	00H
	DB	00H
	DB	00H
	DB	00H
	DB	00H
	DB	00H
	DB	00H
	DB	00H
	DB	00H
	DB	00H
	DB	00H
	DB	00H
	DB	06H
	DB	03bH
	DB	00H
	DB	00H
	DB	00H
	DB	00H
	DB	00H
	DB	00H
	DB	00H
	DB	00H
	DB	00H
	DB	00H
	DB	00H
	DB	00H
	DB	00H
	DB	00H
	DB	00H
	DB	00H
	DB	00H
	DB	00H
	DB	00H
	DB	00H
	DB	00H
	DB	00H
	DB	00H
	DB	00H
	DB	00H
	DB	00H
	DB	00H
	DB	00H
	DB	00H
	DB	00H
	DB	00H
	DB	00H
	DB	00H
	DB	00H
	DB	00H
	DB	00H
	DB	00H
	DB	00H
	DB	00H
	DB	00H
	DB	00H
	DB	00H
	DB	00H
	DB	00H
	DB	00H
	DB	00H
	DB	00H
	DB	00H
	DB	00H
	DB	00H
	DB	00H
	DB	00H
	DB	00H
	DB	00H
	DB	00H
	DB	00H
	DB	00H
	DB	00H
	DB	00H
	DB	00H
	DB	00H
	DB	00H
	DB	00H
	DB	00H
	DB	00H
	DB	00H
	DB	00H
	DB	00H
	DB	00H
	DB	00H
	DB	00H
	DB	00H
	DB	00H
	DB	00H
	DB	00H
	DB	00H
	DB	00H
	DB	00H
	DB	0dH
	DB	04H
	DB	04H
	DB	04H
	DB	04H
	DB	04H
	DB	04H
	DB	04H
	DB	04H
	DB	04H
	DB	04H
	DB	0cH
	DB	00H
	DB	00H
	DB	00H
	DB	00H
	DB	00H
	DB	00H
	DB	00H
	DB	00H
	DB	00H
	DB	00H
	DB	00H
	DB	00H
	DB	00H
	DB	00H
	DB	00H
	DB	00H
	DB	00H
	DB	00H
	DB	00H
	DB	00H
	DB	00H
	DB	00H
	DB	00H
	DB	00H
	DB	00H
	DB	00H
	DB	00H
	DB	00H
	DB	00H
	DB	00H
	DB	00H
	DB	00H
	DB	00H
	DB	00H
	DB	00H
	DB	00H
	DB	00H
	DB	00H
	DB	00H
	DB	00H
	DB	00H
	DB	00H
	DB	00H
	DB	00H
	DB	00H
	DB	00H
	DB	00H
	DB	00H
	DB	00H
	DB	00H
	DB	00H
	DB	00H
	DB	00H
	DB	00H
	DB	07H
	DB	0ffH
	DB	04H
	DB	04H
	DB	04H
	DB	04H
	DB	04H
	DB	04H
	DB	04H
	DB	04H
	DB	0aH
	DB	00H
	DB	00H
	DB	00H
	DB	00H
	DB	00H
	DB	00H
	DB	00H
	DB	00H
	DB	00H
	DB	00H
	DB	00H
	DB	00H
	DB	00H
	DB	00H
	DB	00H
	DB	00H
	DB	00H
	DB	00H
	DB	00H
	DB	00H
	DB	057H
	DB	04H
	DB	0dH
	DB	00H
	DB	00H
	DB	00H
	DB	00H
	DB	00H
	DB	00H
	DB	00H
	DB	00H
	DB	00H
	DB	00H
	DB	00H
	DB	00H
	DB	00H
	DB	00H
	DB	00H
	DB	00H
	DB	00H
	DB	00H
	DB	00H
	DB	00H
	DB	00H
	DB	00H
	DB	00H
	DB	00H
	DB	00H
	DB	00H
	DB	00H
	DB	00H
	DB	00H
	DB	00H
	DB	00H
	DB	00H
	DB	00H
	DB	00H
	DB	00H
	DB	00H
	DB	00H
	DB	00H
	DB	00H
	DB	00H
	DB	00H
	DB	00H
	DB	00H
	DB	00H
	DB	00H
	DB	00H
	DB	00H
	DB	00H
	DB	00H
	DB	00H
	DB	00H
	DB	00H
	DB	00H
	DB	00H
	DB	00H
	DB	00H
	DB	00H
	DB	00H
	DB	00H
	DB	00H
	DB	00H
	DB	00H
	DB	00H
	DB	00H
	DB	00H
	DB	00H
	DB	00H
	DB	00H
	DB	00H
	DB	00H
	DB	00H
	DB	00H
	DB	00H
	DB	00H
	DB	00H
	DB	00H
	DB	00H
	DB	00H
	DB	0dH
	DB	04H
	DB	04H
	DB	04H
	DB	0feH
	DB	0aH
	DB	08H
	DB	0ffH
	DB	04H
	DB	04H
	DB	04H
	DB	04H
	DB	06H
	DB	00H
	DB	00H
	DB	00H
	DB	00H
	DB	00H
	DB	00H
	DB	00H
	DB	00H
	DB	00H
	DB	00H
	DB	00H
	DB	00H
	DB	00H
	DB	00H
	DB	00H
	DB	00H
	DB	00H
	DB	00H
	DB	00H
	DB	00H
	DB	00H
	DB	00H
	DB	00H
	DB	00H
	DB	00H
	DB	00H
	DB	00H
	DB	00H
	DB	00H
	DB	00H
	DB	00H
	DB	00H
	DB	00H
	DB	00H
	DB	00H
	DB	00H
	DB	00H
	DB	00H
	DB	00H
	DB	00H
	DB	00H
	DB	00H
	DB	00H
	DB	00H
	DB	00H
	DB	00H
	DB	00H
	DB	00H
	DB	00H
	DB	00H
	DB	00H
	DB	00H
	DB	0baH
	DB	04H
	DB	04H
	DB	04H
	DB	04H
	DB	0ffH
	DB	016H
	DB	016H
	DB	023H
	DB	04H
	DB	04H
	DB	07H
	DB	00H
	DB	00H
	DB	00H
	DB	00H
	DB	00H
	DB	00H
	DB	00H
	DB	00H
	DB	00H
	DB	00H
	DB	00H
	DB	00H
	DB	00H
	DB	00H
	DB	00H
	DB	00H
	DB	00H
	DB	00H
	DB	03bH
	DB	016H
	DB	04H
	DB	04H
	DB	057H
	DB	00H
	DB	00H
	DB	00H
	DB	00H
	DB	00H
	DB	00H
	DB	00H
	DB	00H
	DB	00H
	DB	00H
	DB	00H
	DB	00H
	DB	00H
	DB	00H
	DB	00H
	DB	00H
	DB	00H
	DB	00H
	DB	00H
	DB	00H
	DB	00H
	DB	00H
	DB	00H
	DB	00H
	DB	00H
	DB	00H
	DB	00H
	DB	00H
	DB	00H
	DB	00H
	DB	00H
	DB	00H
	DB	00H
	DB	00H
	DB	00H
	DB	00H
	DB	00H
	DB	00H
	DB	00H
	DB	00H
	DB	00H
	DB	00H
	DB	00H
	DB	00H
	DB	00H
	DB	00H
	DB	00H
	DB	00H
	DB	00H
	DB	00H
	DB	00H
	DB	00H
	DB	00H
	DB	00H
	DB	00H
	DB	00H
	DB	00H
	DB	00H
	DB	00H
	DB	00H
	DB	00H
	DB	00H
	DB	00H
	DB	00H
	DB	00H
	DB	00H
	DB	00H
	DB	00H
	DB	00H
	DB	00H
	DB	00H
	DB	00H
	DB	00H
	DB	00H
	DB	00H
	DB	00H
	DB	00H
	DB	00H
	DB	0dH
	DB	04H
	DB	04H
	DB	04H
	DB	0f7H
	DB	00H
	DB	00H
	DB	053H
	DB	023H
	DB	04H
	DB	04H
	DB	04H
	DB	026H
	DB	00H
	DB	00H
	DB	00H
	DB	00H
	DB	00H
	DB	00H
	DB	00H
	DB	00H
	DB	00H
	DB	00H
	DB	00H
	DB	00H
	DB	00H
	DB	00H
	DB	00H
	DB	00H
	DB	00H
	DB	00H
	DB	00H
	DB	00H
	DB	00H
	DB	00H
	DB	00H
	DB	00H
	DB	00H
	DB	00H
	DB	00H
	DB	00H
	DB	00H
	DB	00H
	DB	00H
	DB	00H
	DB	00H
	DB	00H
	DB	00H
	DB	00H
	DB	00H
	DB	00H
	DB	00H
	DB	00H
	DB	00H
	DB	00H
	DB	00H
	DB	00H
	DB	00H
	DB	00H
	DB	00H
	DB	00H
	DB	00H
	DB	00H
	DB	00H
	DB	00H
	DB	040H
	DB	04H
	DB	04H
	DB	04H
	DB	0dH
	DB	063H
	DB	01eH
	DB	01eH
	DB	063H
	DB	053H
	DB	05H
	DB	02H
	DB	00H
	DB	00H
	DB	00H
	DB	00H
	DB	00H
	DB	00H
	DB	00H
	DB	00H
	DB	00H
	DB	00H
	DB	00H
	DB	00H
	DB	00H
	DB	00H
	DB	00H
	DB	00H
	DB	00H
	DB	00H
	DB	04aH
	DB	04H
	DB	04H
	DB	04H
	DB	0ceH
	DB	00H
	DB	00H
	DB	00H
	DB	00H
	DB	00H
	DB	00H
	DB	00H
	DB	00H
	DB	00H
	DB	00H
	DB	00H
	DB	00H
	DB	00H
	DB	00H
	DB	00H
	DB	00H
	DB	00H
	DB	00H
	DB	00H
	DB	00H
	DB	00H
	DB	00H
	DB	00H
	DB	00H
	DB	00H
	DB	00H
	DB	00H
	DB	00H
	DB	00H
	DB	00H
	DB	00H
	DB	00H
	DB	00H
	DB	00H
	DB	00H
	DB	00H
	DB	00H
	DB	00H
	DB	00H
	DB	00H
	DB	00H
	DB	00H
	DB	00H
	DB	00H
	DB	00H
	DB	00H
	DB	00H
	DB	00H
	DB	00H
	DB	00H
	DB	00H
	DB	00H
	DB	00H
	DB	00H
	DB	00H
	DB	00H
	DB	00H
	DB	00H
	DB	00H
	DB	00H
	DB	00H
	DB	00H
	DB	00H
	DB	00H
	DB	00H
	DB	00H
	DB	00H
	DB	00H
	DB	00H
	DB	00H
	DB	00H
	DB	00H
	DB	00H
	DB	00H
	DB	00H
	DB	00H
	DB	00H
	DB	00H
	DB	0dH
	DB	04H
	DB	04H
	DB	04H
	DB	0bH
	DB	00H
	DB	00H
	DB	00H
	DB	028H
	DB	04H
	DB	04H
	DB	04H
	DB	040H
	DB	00H
	DB	00H
	DB	00H
	DB	00H
	DB	00H
	DB	053H
	DB	050H
	DB	0aH
	DB	03H
	DB	0fH
	DB	03H
	DB	0dH
	DB	02eH
	DB	00H
	DB	00H
	DB	00H
	DB	00H
	DB	00H
	DB	00H
	DB	00H
	DB	01eH
	DB	07H
	DB	01aH
	DB	040H
	DB	016H
	DB	016H
	DB	03H
	DB	0cH
	DB	063H
	DB	00H
	DB	00H
	DB	00H
	DB	00H
	DB	02H
	DB	057H
	DB	0f7H
	DB	016H
	DB	016H
	DB	0bH
	DB	04aH
	DB	06H
	DB	00H
	DB	00H
	DB	00H
	DB	00H
	DB	00H
	DB	00H
	DB	00H
	DB	00H
	DB	00H
	DB	00H
	DB	053H
	DB	0ffH
	DB	04H
	DB	04H
	DB	023H
	DB	01eH
	DB	00H
	DB	00H
	DB	00H
	DB	00H
	DB	00H
	DB	00H
	DB	00H
	DB	00H
	DB	00H
	DB	00H
	DB	00H
	DB	00H
	DB	02H
	DB	0dH
	DB	0f7H
	DB	016H
	DB	016H
	DB	0bH
	DB	04aH
	DB	02eH
	DB	00H
	DB	00H
	DB	00H
	DB	01H
	DB	0aH
	DB	016H
	DB	04H
	DB	04H
	DB	04H
	DB	040H
	DB	04aH
	DB	02bH
	DB	01H
	DB	00H
	DB	00H
	DB	057H
	DB	0aH
	DB	0aH
	DB	028H
	DB	0c8H
	DB	00H
	DB	00H
	DB	00H
	DB	05H
	DB	02bH
	DB	0aH
	DB	02bH
	DB	01H
	DB	00H
	DB	00H
	DB	0c8H
	DB	0dH
	DB	0aH
	DB	026H
	DB	0cH
	DB	00H
	DB	0c8H
	DB	07H
	DB	0aH
	DB	04aH
	DB	07H
	DB	0c8H
	DB	00H
	DB	00H
	DB	00H
	DB	00H
	DB	00H
	DB	00H
	DB	00H
	DB	00H
	DB	00H
	DB	00H
	DB	00H
	DB	00H
	DB	00H
	DB	00H
	DB	00H
	DB	00H
	DB	00H
	DB	00H
	DB	00H
	DB	00H
	DB	00H
	DB	00H
	DB	00H
	DB	00H
	DB	00H
	DB	00H
	DB	00H
	DB	00H
	DB	00H
	DB	00H
	DB	00H
	DB	00H
	DB	00H
	DB	00H
	DB	00H
	DB	00H
	DB	00H
	DB	00H
	DB	00H
	DB	00H
	DB	00H
	DB	00H
	DB	00H
	DB	00H
	DB	00H
	DB	00H
	DB	0dH
	DB	04H
	DB	04H
	DB	04H
	DB	0bH
	DB	00H
	DB	00H
	DB	00H
	DB	0cH
	DB	04H
	DB	04H
	DB	04H
	DB	016H
	DB	00H
	DB	00H
	DB	00H
	DB	00H
	DB	026H
	DB	04H
	DB	04H
	DB	04H
	DB	04H
	DB	04H
	DB	04H
	DB	04H
	DB	04H
	DB	0cH
	DB	00H
	DB	00H
	DB	00H
	DB	00H
	DB	00H
	DB	01H
	DB	0fcH
	DB	04H
	DB	04H
	DB	04H
	DB	04H
	DB	04H
	DB	04H
	DB	04H
	DB	0aH
	DB	00H
	DB	00H
	DB	00H
	DB	05H
	DB	0ffH
	DB	04H
	DB	04H
	DB	04H
	DB	04H
	DB	04H
	DB	04H
	DB	04H
	DB	050H
	DB	00H
	DB	00H
	DB	00H
	DB	00H
	DB	00H
	DB	00H
	DB	00H
	DB	00H
	DB	00H
	DB	02eH
	DB	04H
	DB	04H
	DB	04H
	DB	0ffH
	DB	06H
	DB	00H
	DB	00H
	DB	00H
	DB	00H
	DB	00H
	DB	00H
	DB	00H
	DB	00H
	DB	00H
	DB	00H
	DB	00H
	DB	0baH
	DB	0ffH
	DB	04H
	DB	04H
	DB	04H
	DB	04H
	DB	04H
	DB	04H
	DB	04H
	DB	07H
	DB	00H
	DB	00H
	DB	0ceH
	DB	04H
	DB	04H
	DB	04H
	DB	04H
	DB	04H
	DB	04H
	DB	04H
	DB	04H
	DB	0dH
	DB	00H
	DB	0c8H
	DB	023H
	DB	04H
	DB	04H
	DB	0ffH
	DB	092H
	DB	00H
	DB	00H
	DB	00H
	DB	0aH
	DB	04H
	DB	04H
	DB	04H
	DB	0ceH
	DB	00H
	DB	00H
	DB	092H
	DB	0ffH
	DB	04H
	DB	04H
	DB	040H
	DB	01H
	DB	023H
	DB	04H
	DB	04H
	DB	04H
	DB	04H
	DB	0b6H
	DB	01H
	DB	00H
	DB	00H
	DB	00H
	DB	00H
	DB	00H
	DB	00H
	DB	00H
	DB	00H
	DB	00H
	DB	00H
	DB	00H
	DB	00H
	DB	00H
	DB	00H
	DB	00H
	DB	00H
	DB	00H
	DB	00H
	DB	00H
	DB	00H
	DB	00H
	DB	00H
	DB	00H
	DB	00H
	DB	00H
	DB	00H
	DB	00H
	DB	00H
	DB	00H
	DB	00H
	DB	00H
	DB	00H
	DB	00H
	DB	00H
	DB	00H
	DB	00H
	DB	00H
	DB	00H
	DB	00H
	DB	00H
	DB	00H
	DB	00H
	DB	00H
	DB	00H
	DB	00H
	DB	0dH
	DB	04H
	DB	04H
	DB	04H
	DB	0bH
	DB	00H
	DB	00H
	DB	00H
	DB	0dH
	DB	04H
	DB	04H
	DB	04H
	DB	040H
	DB	00H
	DB	00H
	DB	00H
	DB	00H
	DB	03H
	DB	04H
	DB	0ffH
	DB	0b6H
	DB	0b6H
	DB	0ffH
	DB	04H
	DB	04H
	DB	04H
	DB	04H
	DB	05H
	DB	00H
	DB	00H
	DB	00H
	DB	01H
	DB	0ffH
	DB	04H
	DB	04H
	DB	04H
	DB	04H
	DB	016H
	DB	040H
	DB	0fcH
	DB	04H
	DB	0dH
	DB	00H
	DB	00H
	DB	055H
	DB	04H
	DB	04H
	DB	04H
	DB	023H
	DB	028H
	DB	0dH
	DB	023H
	DB	04H
	DB	04H
	DB	04H
	DB	04fH
	DB	00H
	DB	00H
	DB	00H
	DB	00H
	DB	00H
	DB	00H
	DB	00H
	DB	00H
	DB	063H
	DB	023H
	DB	04H
	DB	04H
	DB	04H
	DB	0fcH
	DB	0c9H
	DB	00H
	DB	00H
	DB	00H
	DB	00H
	DB	00H
	DB	00H
	DB	00H
	DB	00H
	DB	00H
	DB	05H
	DB	04H
	DB	04H
	DB	04H
	DB	023H
	DB	0dH
	DB	028H
	DB	023H
	DB	04H
	DB	04H
	DB	04H
	DB	05H
	DB	00H
	DB	050H
	DB	04H
	DB	04H
	DB	04H
	DB	04H
	DB	04H
	DB	04H
	DB	0ffH
	DB	04H
	DB	0cH
	DB	00H
	DB	0c8H
	DB	023H
	DB	04H
	DB	04H
	DB	0ffH
	DB	092H
	DB	00H
	DB	00H
	DB	00H
	DB	0aH
	DB	04H
	DB	04H
	DB	04H
	DB	0cH
	DB	00H
	DB	00H
	DB	02H
	DB	0ffH
	DB	04H
	DB	04H
	DB	0ffH
	DB	0ffH
	DB	04H
	DB	04H
	DB	04H
	DB	04H
	DB	04H
	DB	04H
	DB	0feH
	DB	02H
	DB	00H
	DB	00H
	DB	00H
	DB	00H
	DB	00H
	DB	00H
	DB	00H
	DB	00H
	DB	00H
	DB	00H
	DB	00H
	DB	00H
	DB	00H
	DB	00H
	DB	00H
	DB	00H
	DB	00H
	DB	00H
	DB	00H
	DB	00H
	DB	00H
	DB	00H
	DB	00H
	DB	00H
	DB	00H
	DB	00H
	DB	00H
	DB	00H
	DB	00H
	DB	00H
	DB	00H
	DB	00H
	DB	00H
	DB	00H
	DB	00H
	DB	00H
	DB	00H
	DB	00H
	DB	00H
	DB	00H
	DB	00H
	DB	00H
	DB	00H
	DB	00H
	DB	0dH
	DB	04H
	DB	04H
	DB	04H
	DB	0f7H
	DB	00H
	DB	00H
	DB	063H
	DB	0fcH
	DB	04H
	DB	04H
	DB	04H
	DB	026H
	DB	00H
	DB	00H
	DB	00H
	DB	00H
	DB	05H
	DB	04fH
	DB	053H
	DB	01eH
	DB	00H
	DB	063H
	DB	0dH
	DB	04H
	DB	04H
	DB	04H
	DB	03H
	DB	00H
	DB	00H
	DB	01eH
	DB	016H
	DB	04H
	DB	04H
	DB	04H
	DB	0fcH
	DB	03bH
	DB	00H
	DB	00H
	DB	00H
	DB	055H
	DB	03bH
	DB	00H
	DB	0c8H
	DB	0fcH
	DB	04H
	DB	04H
	DB	0ffH
	DB	06H
	DB	00H
	DB	00H
	DB	02H
	DB	0feH
	DB	04H
	DB	04H
	DB	0b6H
	DB	00H
	DB	00H
	DB	00H
	DB	00H
	DB	00H
	DB	00H
	DB	00H
	DB	00H
	DB	00H
	DB	026H
	DB	04H
	DB	04H
	DB	04H
	DB	04H
	DB	04H
	DB	016H
	DB	028H
	DB	053H
	DB	00H
	DB	00H
	DB	00H
	DB	00H
	DB	00H
	DB	063H
	DB	0b6H
	DB	04H
	DB	04H
	DB	0feH
	DB	053H
	DB	00H
	DB	00H
	DB	053H
	DB	0ffH
	DB	04H
	DB	04H
	DB	0fcH
	DB	00H
	DB	0c8H
	DB	02H
	DB	026H
	DB	04H
	DB	04H
	DB	04H
	DB	04aH
	DB	02H
	DB	053H
	DB	0c8H
	DB	00H
	DB	0c8H
	DB	023H
	DB	04H
	DB	04H
	DB	0ffH
	DB	092H
	DB	00H
	DB	00H
	DB	00H
	DB	0aH
	DB	04H
	DB	04H
	DB	04H
	DB	0cH
	DB	00H
	DB	00H
	DB	02H
	DB	0ffH
	DB	04H
	DB	04H
	DB	04H
	DB	04H
	DB	02aH
	DB	057H
	DB	0f7H
	DB	04H
	DB	04H
	DB	04H
	DB	04H
	DB	04aH
	DB	00H
	DB	00H
	DB	00H
	DB	00H
	DB	00H
	DB	00H
	DB	00H
	DB	00H
	DB	00H
	DB	00H
	DB	00H
	DB	00H
	DB	00H
	DB	00H
	DB	00H
	DB	00H
	DB	00H
	DB	00H
	DB	00H
	DB	00H
	DB	00H
	DB	00H
	DB	00H
	DB	00H
	DB	00H
	DB	00H
	DB	00H
	DB	00H
	DB	00H
	DB	00H
	DB	00H
	DB	00H
	DB	00H
	DB	00H
	DB	00H
	DB	00H
	DB	00H
	DB	00H
	DB	00H
	DB	00H
	DB	00H
	DB	00H
	DB	00H
	DB	00H
	DB	0dH
	DB	04H
	DB	04H
	DB	04H
	DB	0fcH
	DB	04fH
	DB	050H
	DB	040H
	DB	04H
	DB	04H
	DB	04H
	DB	04H
	DB	03bH
	DB	00H
	DB	00H
	DB	00H
	DB	00H
	DB	00H
	DB	00H
	DB	00H
	DB	00H
	DB	00H
	DB	00H
	DB	00H
	DB	0ffH
	DB	04H
	DB	04H
	DB	0b6H
	DB	0c8H
	DB	00H
	DB	07H
	DB	04H
	DB	04H
	DB	04H
	DB	04H
	DB	0c9H
	DB	00H
	DB	00H
	DB	00H
	DB	00H
	DB	00H
	DB	00H
	DB	00H
	DB	0baH
	DB	04H
	DB	04H
	DB	04H
	DB	0aH
	DB	00H
	DB	00H
	DB	00H
	DB	00H
	DB	0aH
	DB	04H
	DB	04H
	DB	04H
	DB	055H
	DB	00H
	DB	00H
	DB	00H
	DB	00H
	DB	00H
	DB	00H
	DB	00H
	DB	00H
	DB	053H
	DB	0feH
	DB	04H
	DB	04H
	DB	04H
	DB	04H
	DB	04H
	DB	04H
	DB	04H
	DB	0aH
	DB	0c8H
	DB	00H
	DB	00H
	DB	00H
	DB	07H
	DB	04H
	DB	04H
	DB	04H
	DB	04aH
	DB	00H
	DB	00H
	DB	00H
	DB	00H
	DB	026H
	DB	04H
	DB	04H
	DB	04H
	DB	01H
	DB	00H
	DB	00H
	DB	04aH
	DB	04H
	DB	04H
	DB	04H
	DB	0ceH
	DB	00H
	DB	00H
	DB	00H
	DB	00H
	DB	0c8H
	DB	023H
	DB	04H
	DB	04H
	DB	0ffH
	DB	092H
	DB	00H
	DB	00H
	DB	00H
	DB	0aH
	DB	04H
	DB	04H
	DB	04H
	DB	0cH
	DB	00H
	DB	00H
	DB	02H
	DB	0ffH
	DB	04H
	DB	04H
	DB	04H
	DB	0dH
	DB	00H
	DB	00H
	DB	00H
	DB	026H
	DB	04H
	DB	04H
	DB	04H
	DB	016H
	DB	00H
	DB	00H
	DB	00H
	DB	00H
	DB	00H
	DB	00H
	DB	00H
	DB	00H
	DB	00H
	DB	00H
	DB	00H
	DB	00H
	DB	00H
	DB	00H
	DB	00H
	DB	00H
	DB	00H
	DB	00H
	DB	00H
	DB	00H
	DB	00H
	DB	00H
	DB	00H
	DB	00H
	DB	00H
	DB	00H
	DB	00H
	DB	00H
	DB	00H
	DB	00H
	DB	00H
	DB	00H
	DB	00H
	DB	00H
	DB	00H
	DB	00H
	DB	00H
	DB	00H
	DB	00H
	DB	00H
	DB	00H
	DB	00H
	DB	00H
	DB	00H
	DB	0dH
	DB	04H
	DB	04H
	DB	04H
	DB	04H
	DB	04H
	DB	04H
	DB	04H
	DB	04H
	DB	04H
	DB	04H
	DB	0dH
	DB	00H
	DB	00H
	DB	00H
	DB	00H
	DB	00H
	DB	053H
	DB	0aH
	DB	016H
	DB	0feH
	DB	023H
	DB	026H
	DB	03bH
	DB	0ffH
	DB	04H
	DB	04H
	DB	0feH
	DB	02H
	DB	00H
	DB	026H
	DB	04H
	DB	04H
	DB	04H
	DB	016H
	DB	00H
	DB	00H
	DB	00H
	DB	00H
	DB	00H
	DB	00H
	DB	00H
	DB	00H
	DB	026H
	DB	04H
	DB	04H
	DB	04H
	DB	07H
	DB	00H
	DB	00H
	DB	00H
	DB	00H
	DB	055H
	DB	04H
	DB	04H
	DB	04H
	DB	0ceH
	DB	00H
	DB	00H
	DB	00H
	DB	00H
	DB	00H
	DB	00H
	DB	00H
	DB	00H
	DB	00H
	DB	06H
	DB	016H
	DB	04H
	DB	04H
	DB	04H
	DB	04H
	DB	04H
	DB	04H
	DB	04H
	DB	06fH
	DB	02H
	DB	00H
	DB	00H
	DB	08H
	DB	04H
	DB	04H
	DB	04H
	DB	05H
	DB	00H
	DB	00H
	DB	00H
	DB	00H
	DB	0baH
	DB	04H
	DB	04H
	DB	04H
	DB	050H
	DB	00H
	DB	00H
	DB	04aH
	DB	04H
	DB	04H
	DB	04H
	DB	057H
	DB	00H
	DB	00H
	DB	00H
	DB	00H
	DB	0c8H
	DB	023H
	DB	04H
	DB	04H
	DB	0ffH
	DB	092H
	DB	00H
	DB	00H
	DB	00H
	DB	0aH
	DB	04H
	DB	04H
	DB	04H
	DB	0cH
	DB	00H
	DB	00H
	DB	02H
	DB	0ffH
	DB	04H
	DB	04H
	DB	0ffH
	DB	06H
	DB	00H
	DB	00H
	DB	00H
	DB	055H
	DB	04H
	DB	04H
	DB	04H
	DB	0ffH
	DB	053H
	DB	00H
	DB	00H
	DB	00H
	DB	00H
	DB	00H
	DB	00H
	DB	00H
	DB	00H
	DB	00H
	DB	00H
	DB	00H
	DB	00H
	DB	00H
	DB	00H
	DB	00H
	DB	00H
	DB	00H
	DB	00H
	DB	00H
	DB	00H
	DB	00H
	DB	00H
	DB	00H
	DB	00H
	DB	00H
	DB	00H
	DB	00H
	DB	00H
	DB	00H
	DB	00H
	DB	00H
	DB	00H
	DB	00H
	DB	00H
	DB	00H
	DB	00H
	DB	00H
	DB	00H
	DB	00H
	DB	00H
	DB	00H
	DB	00H
	DB	00H
	DB	0dH
	DB	04H
	DB	04H
	DB	04H
	DB	04H
	DB	04H
	DB	04H
	DB	04H
	DB	04H
	DB	04H
	DB	0cH
	DB	00H
	DB	00H
	DB	00H
	DB	00H
	DB	00H
	DB	0baH
	DB	04H
	DB	04H
	DB	04H
	DB	04H
	DB	04H
	DB	04H
	DB	0ffH
	DB	04H
	DB	04H
	DB	04H
	DB	023H
	DB	02H
	DB	00H
	DB	040H
	DB	04H
	DB	04H
	DB	04H
	DB	08H
	DB	00H
	DB	00H
	DB	00H
	DB	00H
	DB	00H
	DB	00H
	DB	00H
	DB	00H
	DB	040H
	DB	04H
	DB	04H
	DB	04H
	DB	0fH
	DB	0aH
	DB	0aH
	DB	0aH
	DB	0aH
	DB	02aH
	DB	04H
	DB	04H
	DB	04H
	DB	0aH
	DB	00H
	DB	00H
	DB	00H
	DB	00H
	DB	00H
	DB	00H
	DB	00H
	DB	00H
	DB	00H
	DB	00H
	DB	01eH
	DB	050H
	DB	06fH
	DB	04H
	DB	04H
	DB	04H
	DB	04H
	DB	04H
	DB	04H
	DB	02aH
	DB	00H
	DB	00H
	DB	016H
	DB	04H
	DB	04H
	DB	04H
	DB	03H
	DB	0aH
	DB	0aH
	DB	0aH
	DB	0aH
	DB	01aH
	DB	04H
	DB	04H
	DB	04H
	DB	04aH
	DB	00H
	DB	00H
	DB	04aH
	DB	04H
	DB	04H
	DB	04H
	DB	057H
	DB	00H
	DB	00H
	DB	00H
	DB	00H
	DB	0c8H
	DB	023H
	DB	04H
	DB	04H
	DB	0ffH
	DB	092H
	DB	00H
	DB	00H
	DB	00H
	DB	0aH
	DB	04H
	DB	04H
	DB	04H
	DB	0cH
	DB	00H
	DB	00H
	DB	02H
	DB	0ffH
	DB	04H
	DB	04H
	DB	023H
	DB	0c8H
	DB	00H
	DB	00H
	DB	00H
	DB	053H
	DB	0ffH
	DB	04H
	DB	04H
	DB	04H
	DB	03bH
	DB	00H
	DB	00H
	DB	00H
	DB	00H
	DB	00H
	DB	00H
	DB	00H
	DB	00H
	DB	00H
	DB	00H
	DB	00H
	DB	00H
	DB	00H
	DB	00H
	DB	00H
	DB	00H
	DB	00H
	DB	00H
	DB	00H
	DB	00H
	DB	00H
	DB	00H
	DB	00H
	DB	00H
	DB	00H
	DB	00H
	DB	00H
	DB	00H
	DB	00H
	DB	00H
	DB	00H
	DB	00H
	DB	00H
	DB	00H
	DB	00H
	DB	00H
	DB	00H
	DB	00H
	DB	00H
	DB	00H
	DB	00H
	DB	00H
	DB	00H
	DB	0dH
	DB	04H
	DB	04H
	DB	04H
	DB	016H
	DB	0c9H
	DB	0bH
	DB	04H
	DB	04H
	DB	04H
	DB	04aH
	DB	00H
	DB	00H
	DB	00H
	DB	00H
	DB	06H
	DB	04H
	DB	04H
	DB	04H
	DB	0feH
	DB	04fH
	DB	092H
	DB	01H
	DB	0fcH
	DB	04H
	DB	04H
	DB	04H
	DB	023H
	DB	02H
	DB	00H
	DB	016H
	DB	04H
	DB	04H
	DB	04H
	DB	0aH
	DB	00H
	DB	00H
	DB	00H
	DB	00H
	DB	00H
	DB	00H
	DB	00H
	DB	00H
	DB	016H
	DB	04H
	DB	04H
	DB	04H
	DB	04H
	DB	04H
	DB	04H
	DB	04H
	DB	04H
	DB	04H
	DB	04H
	DB	04H
	DB	04H
	DB	02bH
	DB	00H
	DB	00H
	DB	00H
	DB	00H
	DB	00H
	DB	00H
	DB	00H
	DB	00H
	DB	00H
	DB	00H
	DB	00H
	DB	00H
	DB	00H
	DB	055H
	DB	0bH
	DB	04H
	DB	04H
	DB	04H
	DB	04H
	DB	04H
	DB	075H
	DB	00H
	DB	0fcH
	DB	04H
	DB	04H
	DB	04H
	DB	04H
	DB	04H
	DB	04H
	DB	04H
	DB	04H
	DB	04H
	DB	04H
	DB	04H
	DB	04H
	DB	04aH
	DB	00H
	DB	00H
	DB	04aH
	DB	04H
	DB	04H
	DB	04H
	DB	057H
	DB	00H
	DB	00H
	DB	00H
	DB	00H
	DB	0c8H
	DB	023H
	DB	04H
	DB	04H
	DB	0ffH
	DB	092H
	DB	00H
	DB	00H
	DB	00H
	DB	0aH
	DB	04H
	DB	04H
	DB	04H
	DB	0cH
	DB	00H
	DB	00H
	DB	02H
	DB	0ffH
	DB	04H
	DB	04H
	DB	0b6H
	DB	01eH
	DB	00H
	DB	00H
	DB	00H
	DB	02H
	DB	0ffH
	DB	04H
	DB	04H
	DB	04H
	DB	01H
	DB	00H
	DB	00H
	DB	00H
	DB	00H
	DB	00H
	DB	00H
	DB	00H
	DB	00H
	DB	00H
	DB	00H
	DB	00H
	DB	00H
	DB	00H
	DB	00H
	DB	00H
	DB	00H
	DB	00H
	DB	00H
	DB	00H
	DB	00H
	DB	00H
	DB	00H
	DB	00H
	DB	00H
	DB	00H
	DB	00H
	DB	00H
	DB	00H
	DB	00H
	DB	00H
	DB	00H
	DB	00H
	DB	00H
	DB	00H
	DB	00H
	DB	00H
	DB	00H
	DB	00H
	DB	00H
	DB	00H
	DB	00H
	DB	00H
	DB	00H
	DB	0dH
	DB	04H
	DB	04H
	DB	04H
	DB	0f7H
	DB	00H
	DB	0baH
	DB	04H
	DB	04H
	DB	04H
	DB	0ffH
	DB	02H
	DB	00H
	DB	00H
	DB	00H
	DB	0aH
	DB	04H
	DB	04H
	DB	04H
	DB	07H
	DB	00H
	DB	00H
	DB	00H
	DB	01H
	DB	04H
	DB	04H
	DB	04H
	DB	023H
	DB	02H
	DB	00H
	DB	06fH
	DB	04H
	DB	04H
	DB	04H
	DB	0aH
	DB	00H
	DB	00H
	DB	00H
	DB	00H
	DB	00H
	DB	00H
	DB	00H
	DB	00H
	DB	016H
	DB	04H
	DB	04H
	DB	04H
	DB	03H
	DB	026H
	DB	08H
	DB	08H
	DB	08H
	DB	08H
	DB	08H
	DB	08H
	DB	02aH
	DB	0baH
	DB	00H
	DB	00H
	DB	00H
	DB	00H
	DB	00H
	DB	00H
	DB	00H
	DB	00H
	DB	00H
	DB	00H
	DB	00H
	DB	00H
	DB	00H
	DB	00H
	DB	00H
	DB	026H
	DB	04H
	DB	04H
	DB	04H
	DB	04H
	DB	07H
	DB	00H
	DB	0fcH
	DB	04H
	DB	04H
	DB	04H
	DB	03H
	DB	026H
	DB	08H
	DB	08H
	DB	08H
	DB	08H
	DB	08H
	DB	08H
	DB	02aH
	DB	05H
	DB	00H
	DB	00H
	DB	04aH
	DB	04H
	DB	04H
	DB	04H
	DB	057H
	DB	00H
	DB	00H
	DB	00H
	DB	00H
	DB	0c8H
	DB	023H
	DB	04H
	DB	04H
	DB	0ffH
	DB	092H
	DB	00H
	DB	00H
	DB	00H
	DB	0aH
	DB	04H
	DB	04H
	DB	04H
	DB	0cH
	DB	00H
	DB	00H
	DB	02H
	DB	0ffH
	DB	04H
	DB	04H
	DB	0b6H
	DB	01eH
	DB	00H
	DB	00H
	DB	00H
	DB	02H
	DB	0ffH
	DB	04H
	DB	04H
	DB	04H
	DB	01H
	DB	00H
	DB	00H
	DB	00H
	DB	00H
	DB	00H
	DB	00H
	DB	00H
	DB	00H
	DB	00H
	DB	00H
	DB	00H
	DB	00H
	DB	00H
	DB	00H
	DB	00H
	DB	00H
	DB	00H
	DB	00H
	DB	00H
	DB	00H
	DB	00H
	DB	00H
	DB	00H
	DB	00H
	DB	00H
	DB	00H
	DB	00H
	DB	00H
	DB	00H
	DB	00H
	DB	00H
	DB	00H
	DB	00H
	DB	00H
	DB	00H
	DB	00H
	DB	00H
	DB	00H
	DB	00H
	DB	00H
	DB	00H
	DB	00H
	DB	00H
	DB	0dH
	DB	04H
	DB	04H
	DB	04H
	DB	0bH
	DB	00H
	DB	0c8H
	DB	023H
	DB	04H
	DB	04H
	DB	04H
	DB	0dH
	DB	00H
	DB	00H
	DB	00H
	DB	040H
	DB	04H
	DB	04H
	DB	04H
	DB	075H
	DB	00H
	DB	00H
	DB	00H
	DB	00H
	DB	0ffH
	DB	04H
	DB	04H
	DB	023H
	DB	02H
	DB	00H
	DB	03H
	DB	04H
	DB	04H
	DB	04H
	DB	03H
	DB	00H
	DB	00H
	DB	00H
	DB	00H
	DB	00H
	DB	00H
	DB	00H
	DB	00H
	DB	03H
	DB	04H
	DB	04H
	DB	04H
	DB	01H
	DB	00H
	DB	00H
	DB	00H
	DB	00H
	DB	00H
	DB	00H
	DB	00H
	DB	00H
	DB	00H
	DB	00H
	DB	00H
	DB	00H
	DB	00H
	DB	00H
	DB	00H
	DB	00H
	DB	00H
	DB	00H
	DB	00H
	DB	00H
	DB	00H
	DB	00H
	DB	00H
	DB	00H
	DB	02H
	DB	0ffH
	DB	04H
	DB	04H
	DB	04H
	DB	050H
	DB	00H
	DB	0f7H
	DB	04H
	DB	04H
	DB	04H
	DB	03bH
	DB	00H
	DB	00H
	DB	00H
	DB	00H
	DB	00H
	DB	00H
	DB	00H
	DB	00H
	DB	00H
	DB	00H
	DB	00H
	DB	04aH
	DB	04H
	DB	04H
	DB	04H
	DB	057H
	DB	00H
	DB	00H
	DB	00H
	DB	00H
	DB	0c8H
	DB	023H
	DB	04H
	DB	04H
	DB	0ffH
	DB	02H
	DB	00H
	DB	00H
	DB	00H
	DB	0aH
	DB	04H
	DB	04H
	DB	04H
	DB	0cH
	DB	00H
	DB	00H
	DB	02H
	DB	0ffH
	DB	04H
	DB	04H
	DB	0feH
	DB	02H
	DB	00H
	DB	00H
	DB	00H
	DB	06H
	DB	04H
	DB	04H
	DB	04H
	DB	0ffH
	DB	06H
	DB	00H
	DB	00H
	DB	00H
	DB	00H
	DB	00H
	DB	00H
	DB	00H
	DB	00H
	DB	00H
	DB	00H
	DB	00H
	DB	00H
	DB	00H
	DB	00H
	DB	00H
	DB	00H
	DB	00H
	DB	00H
	DB	00H
	DB	00H
	DB	00H
	DB	00H
	DB	00H
	DB	00H
	DB	00H
	DB	00H
	DB	00H
	DB	00H
	DB	00H
	DB	00H
	DB	00H
	DB	00H
	DB	00H
	DB	00H
	DB	00H
	DB	00H
	DB	00H
	DB	00H
	DB	00H
	DB	00H
	DB	00H
	DB	00H
	DB	00H
	DB	0dH
	DB	04H
	DB	04H
	DB	04H
	DB	0bH
	DB	00H
	DB	00H
	DB	0aH
	DB	04H
	DB	04H
	DB	04H
	DB	023H
	DB	0c8H
	DB	00H
	DB	00H
	DB	016H
	DB	04H
	DB	04H
	DB	04H
	DB	03bH
	DB	00H
	DB	00H
	DB	00H
	DB	0c8H
	DB	0ffH
	DB	04H
	DB	04H
	DB	023H
	DB	02H
	DB	00H
	DB	0dH
	DB	04H
	DB	04H
	DB	04H
	DB	0feH
	DB	0c8H
	DB	00H
	DB	00H
	DB	00H
	DB	00H
	DB	00H
	DB	00H
	DB	00H
	DB	057H
	DB	04H
	DB	04H
	DB	04H
	DB	0ceH
	DB	00H
	DB	00H
	DB	00H
	DB	00H
	DB	00H
	DB	00H
	DB	00H
	DB	00H
	DB	00H
	DB	00H
	DB	00H
	DB	00H
	DB	00H
	DB	00H
	DB	00H
	DB	00H
	DB	00H
	DB	00H
	DB	00H
	DB	00H
	DB	00H
	DB	00H
	DB	00H
	DB	00H
	DB	053H
	DB	0ffH
	DB	04H
	DB	04H
	DB	04H
	DB	04fH
	DB	00H
	DB	0dH
	DB	04H
	DB	04H
	DB	04H
	DB	050H
	DB	00H
	DB	00H
	DB	00H
	DB	00H
	DB	00H
	DB	00H
	DB	00H
	DB	00H
	DB	00H
	DB	00H
	DB	00H
	DB	04aH
	DB	04H
	DB	04H
	DB	04H
	DB	0ceH
	DB	00H
	DB	00H
	DB	00H
	DB	00H
	DB	0c8H
	DB	023H
	DB	04H
	DB	04H
	DB	04H
	DB	092H
	DB	00H
	DB	00H
	DB	00H
	DB	026H
	DB	04H
	DB	04H
	DB	04H
	DB	0cH
	DB	00H
	DB	00H
	DB	02H
	DB	0ffH
	DB	04H
	DB	04H
	DB	04H
	DB	01H
	DB	00H
	DB	00H
	DB	00H
	DB	07H
	DB	04H
	DB	04H
	DB	04H
	DB	0fcH
	DB	01eH
	DB	00H
	DB	00H
	DB	00H
	DB	00H
	DB	00H
	DB	00H
	DB	00H
	DB	00H
	DB	00H
	DB	00H
	DB	00H
	DB	00H
	DB	00H
	DB	00H
	DB	00H
	DB	00H
	DB	00H
	DB	00H
	DB	00H
	DB	00H
	DB	00H
	DB	00H
	DB	00H
	DB	00H
	DB	00H
	DB	00H
	DB	00H
	DB	00H
	DB	00H
	DB	00H
	DB	00H
	DB	00H
	DB	00H
	DB	00H
	DB	00H
	DB	00H
	DB	00H
	DB	00H
	DB	00H
	DB	00H
	DB	00H
	DB	00H
	DB	00H
	DB	0dH
	DB	04H
	DB	04H
	DB	04H
	DB	0bH
	DB	00H
	DB	00H
	DB	01bH
	DB	04H
	DB	04H
	DB	04H
	DB	04H
	DB	020H
	DB	00H
	DB	00H
	DB	03H
	DB	04H
	DB	04H
	DB	04H
	DB	04aH
	DB	00H
	DB	00H
	DB	00H
	DB	0cH
	DB	04H
	DB	04H
	DB	04H
	DB	023H
	DB	02H
	DB	00H
	DB	01bH
	DB	04H
	DB	04H
	DB	04H
	DB	04H
	DB	04aH
	DB	00H
	DB	00H
	DB	00H
	DB	00H
	DB	02H
	DB	092H
	DB	00H
	DB	02eH
	DB	04H
	DB	04H
	DB	04H
	DB	0feH
	DB	03bH
	DB	00H
	DB	00H
	DB	00H
	DB	00H
	DB	00H
	DB	06H
	DB	0c8H
	DB	00H
	DB	00H
	DB	00H
	DB	00H
	DB	00H
	DB	00H
	DB	00H
	DB	00H
	DB	00H
	DB	0ceH
	DB	07H
	DB	02eH
	DB	01eH
	DB	00H
	DB	00H
	DB	092H
	DB	08H
	DB	04H
	DB	04H
	DB	04H
	DB	0ffH
	DB	092H
	DB	00H
	DB	06H
	DB	04H
	DB	04H
	DB	04H
	DB	023H
	DB	06H
	DB	00H
	DB	00H
	DB	00H
	DB	00H
	DB	00H
	DB	075H
	DB	0c8H
	DB	00H
	DB	00H
	DB	00H
	DB	0cH
	DB	04H
	DB	04H
	DB	04H
	DB	02aH
	DB	00H
	DB	00H
	DB	00H
	DB	00H
	DB	01eH
	DB	0fcH
	DB	04H
	DB	04H
	DB	04H
	DB	0dH
	DB	02H
	DB	02eH
	DB	0dH
	DB	04H
	DB	04H
	DB	04H
	DB	04H
	DB	0cH
	DB	00H
	DB	00H
	DB	02H
	DB	0ffH
	DB	04H
	DB	04H
	DB	04H
	DB	0fH
	DB	02H
	DB	00H
	DB	06H
	DB	06fH
	DB	04H
	DB	04H
	DB	04H
	DB	02aH
	DB	00H
	DB	00H
	DB	00H
	DB	00H
	DB	00H
	DB	00H
	DB	00H
	DB	00H
	DB	00H
	DB	00H
	DB	00H
	DB	00H
	DB	00H
	DB	00H
	DB	00H
	DB	00H
	DB	00H
	DB	00H
	DB	00H
	DB	00H
	DB	00H
	DB	00H
	DB	00H
	DB	00H
	DB	00H
	DB	00H
	DB	00H
	DB	00H
	DB	00H
	DB	00H
	DB	00H
	DB	00H
	DB	00H
	DB	00H
	DB	00H
	DB	00H
	DB	00H
	DB	00H
	DB	00H
	DB	00H
	DB	00H
	DB	00H
	DB	00H
	DB	00H
	DB	0dH
	DB	04H
	DB	04H
	DB	04H
	DB	0bH
	DB	00H
	DB	00H
	DB	00H
	DB	0f7H
	DB	04H
	DB	04H
	DB	04H
	DB	016H
	DB	00H
	DB	00H
	DB	050H
	DB	04H
	DB	04H
	DB	04H
	DB	04H
	DB	0f7H
	DB	0aH
	DB	03H
	DB	04H
	DB	04H
	DB	04H
	DB	04H
	DB	023H
	DB	02H
	DB	00H
	DB	00H
	DB	02bH
	DB	04H
	DB	04H
	DB	04H
	DB	04H
	DB	03H
	DB	0cH
	DB	057H
	DB	01aH
	DB	0ffH
	DB	0aH
	DB	00H
	DB	00H
	DB	028H
	DB	04H
	DB	04H
	DB	04H
	DB	0ffH
	DB	026H
	DB	0cH
	DB	0cH
	DB	0aH
	DB	040H
	DB	04H
	DB	050H
	DB	00H
	DB	00H
	DB	00H
	DB	00H
	DB	00H
	DB	00H
	DB	00H
	DB	00H
	DB	0c8H
	DB	0b6H
	DB	04H
	DB	0ffH
	DB	0fcH
	DB	016H
	DB	0fcH
	DB	0ffH
	DB	04H
	DB	04H
	DB	04H
	DB	04H
	DB	02bH
	DB	00H
	DB	00H
	DB	00H
	DB	0aH
	DB	04H
	DB	04H
	DB	04H
	DB	0ffH
	DB	026H
	DB	0cH
	DB	0cH
	DB	02bH
	DB	040H
	DB	04H
	DB	07H
	DB	00H
	DB	00H
	DB	00H
	DB	06H
	DB	04H
	DB	04H
	DB	04H
	DB	04H
	DB	0fH
	DB	026H
	DB	057H
	DB	00H
	DB	00H
	DB	02aH
	DB	04H
	DB	04H
	DB	04H
	DB	04H
	DB	0ffH
	DB	04H
	DB	04H
	DB	04H
	DB	04H
	DB	04H
	DB	04H
	DB	0cH
	DB	00H
	DB	00H
	DB	02H
	DB	0ffH
	DB	04H
	DB	04H
	DB	04H
	DB	04H
	DB	0ffH
	DB	016H
	DB	0ffH
	DB	04H
	DB	04H
	DB	04H
	DB	04H
	DB	03bH
	DB	00H
	DB	00H
	DB	00H
	DB	00H
	DB	00H
	DB	00H
	DB	00H
	DB	00H
	DB	00H
	DB	00H
	DB	00H
	DB	00H
	DB	00H
	DB	00H
	DB	00H
	DB	00H
	DB	00H
	DB	00H
	DB	00H
	DB	00H
	DB	00H
	DB	00H
	DB	00H
	DB	00H
	DB	00H
	DB	00H
	DB	00H
	DB	00H
	DB	00H
	DB	00H
	DB	00H
	DB	00H
	DB	00H
	DB	00H
	DB	00H
	DB	00H
	DB	00H
	DB	00H
	DB	00H
	DB	00H
	DB	00H
	DB	00H
	DB	00H
	DB	00H
	DB	0dH
	DB	04H
	DB	04H
	DB	04H
	DB	0bH
	DB	00H
	DB	00H
	DB	00H
	DB	050H
	DB	04H
	DB	04H
	DB	04H
	DB	04H
	DB	0baH
	DB	00H
	DB	0c8H
	DB	0bH
	DB	04H
	DB	04H
	DB	04H
	DB	04H
	DB	04H
	DB	04H
	DB	0f7H
	DB	0fcH
	DB	04H
	DB	04H
	DB	0feH
	DB	02H
	DB	00H
	DB	00H
	DB	00H
	DB	08H
	DB	04H
	DB	04H
	DB	04H
	DB	04H
	DB	04H
	DB	04H
	DB	04H
	DB	04H
	DB	0fH
	DB	00H
	DB	00H
	DB	00H
	DB	026H
	DB	04H
	DB	04H
	DB	04H
	DB	04H
	DB	04H
	DB	04H
	DB	04H
	DB	04H
	DB	04H
	DB	08H
	DB	00H
	DB	00H
	DB	00H
	DB	00H
	DB	00H
	DB	00H
	DB	00H
	DB	00H
	DB	06H
	DB	04H
	DB	04H
	DB	04H
	DB	04H
	DB	04H
	DB	04H
	DB	04H
	DB	04H
	DB	04H
	DB	04H
	DB	02aH
	DB	00H
	DB	00H
	DB	00H
	DB	00H
	DB	00H
	DB	02aH
	DB	04H
	DB	04H
	DB	04H
	DB	04H
	DB	04H
	DB	04H
	DB	04H
	DB	04H
	DB	04H
	DB	02bH
	DB	00H
	DB	00H
	DB	00H
	DB	00H
	DB	028H
	DB	04H
	DB	04H
	DB	04H
	DB	04H
	DB	04H
	DB	0ffH
	DB	092H
	DB	00H
	DB	055H
	DB	04H
	DB	04H
	DB	04H
	DB	04H
	DB	04H
	DB	04H
	DB	08H
	DB	0ceH
	DB	04H
	DB	04H
	DB	04H
	DB	0ceH
	DB	00H
	DB	00H
	DB	02H
	DB	0ffH
	DB	04H
	DB	04H
	DB	023H
	DB	0f7H
	DB	04H
	DB	04H
	DB	04H
	DB	04H
	DB	04H
	DB	04H
	DB	0dH
	DB	00H
	DB	00H
	DB	00H
	DB	00H
	DB	00H
	DB	00H
	DB	00H
	DB	00H
	DB	00H
	DB	00H
	DB	00H
	DB	00H
	DB	00H
	DB	00H
	DB	00H
	DB	00H
	DB	00H
	DB	00H
	DB	00H
	DB	00H
	DB	00H
	DB	00H
	DB	00H
	DB	00H
	DB	00H
	DB	00H
	DB	00H
	DB	00H
	DB	00H
	DB	00H
	DB	00H
	DB	00H
	DB	00H
	DB	00H
	DB	00H
	DB	00H
	DB	00H
	DB	00H
	DB	00H
	DB	00H
	DB	00H
	DB	00H
	DB	00H
	DB	00H
	DB	00H
	DB	0cH
	DB	04H
	DB	0ffH
	DB	0ffH
	DB	01aH
	DB	00H
	DB	00H
	DB	00H
	DB	063H
	DB	0fcH
	DB	0ffH
	DB	0ffH
	DB	04H
	DB	08H
	DB	00H
	DB	00H
	DB	063H
	DB	0aH
	DB	0fcH
	DB	0ffH
	DB	0ffH
	DB	0fcH
	DB	057H
	DB	00H
	DB	08H
	DB	04H
	DB	0ffH
	DB	06fH
	DB	063H
	DB	00H
	DB	00H
	DB	00H
	DB	00H
	DB	05H
	DB	0bH
	DB	0feH
	DB	04H
	DB	04H
	DB	04H
	DB	023H
	DB	02aH
	DB	01H
	DB	00H
	DB	00H
	DB	00H
	DB	00H
	DB	07H
	DB	06fH
	DB	0ffH
	DB	04H
	DB	04H
	DB	04H
	DB	0feH
	DB	040H
	DB	0cH
	DB	0c8H
	DB	00H
	DB	00H
	DB	00H
	DB	00H
	DB	00H
	DB	00H
	DB	00H
	DB	00H
	DB	00H
	DB	07H
	DB	01aH
	DB	016H
	DB	023H
	DB	0ffH
	DB	0ffH
	DB	0feH
	DB	0fcH
	DB	01aH
	DB	05H
	DB	00H
	DB	00H
	DB	00H
	DB	00H
	DB	00H
	DB	00H
	DB	00H
	DB	020H
	DB	06fH
	DB	0ffH
	DB	04H
	DB	04H
	DB	04H
	DB	0feH
	DB	0bH
	DB	050H
	DB	0c8H
	DB	00H
	DB	00H
	DB	00H
	DB	00H
	DB	00H
	DB	0ceH
	DB	0b6H
	DB	0ffH
	DB	0ffH
	DB	0b6H
	DB	02aH
	DB	063H
	DB	00H
	DB	00H
	DB	020H
	DB	0b6H
	DB	0ffH
	DB	0ffH
	DB	0bH
	DB	020H
	DB	00H
	DB	0c9H
	DB	0ffH
	DB	0ffH
	DB	0ffH
	DB	050H
	DB	00H
	DB	00H
	DB	02H
	DB	0ffH
	DB	04H
	DB	04H
	DB	0fcH
	DB	0c8H
	DB	0cH
	DB	016H
	DB	0ffH
	DB	0ffH
	DB	016H
	DB	020H
	DB	00H
	DB	00H
	DB	00H
	DB	00H
	DB	00H
	DB	00H
	DB	00H
	DB	00H
	DB	00H
	DB	00H
	DB	00H
	DB	00H
	DB	00H
	DB	00H
	DB	00H
	DB	00H
	DB	00H
	DB	00H
	DB	00H
	DB	00H
	DB	00H
	DB	00H
	DB	00H
	DB	00H
	DB	00H
	DB	00H
	DB	00H
	DB	00H
	DB	00H
	DB	00H
	DB	00H
	DB	00H
	DB	00H
	DB	00H
	DB	00H
	DB	00H
	DB	00H
	DB	00H
	DB	00H
	DB	00H
	DB	00H
	DB	00H
	DB	00H
	DB	00H
	DB	00H
	DB	00H
	DB	0c8H
	DB	053H
	DB	092H
	DB	053H
	DB	02H
	DB	00H
	DB	00H
	DB	00H
	DB	00H
	DB	02H
	DB	053H
	DB	092H
	DB	053H
	DB	053H
	DB	00H
	DB	00H
	DB	00H
	DB	00H
	DB	00H
	DB	092H
	DB	092H
	DB	00H
	DB	00H
	DB	00H
	DB	063H
	DB	053H
	DB	053H
	DB	02H
	DB	00H
	DB	00H
	DB	00H
	DB	00H
	DB	00H
	DB	00H
	DB	00H
	DB	02H
	DB	03bH
	DB	01H
	DB	075H
	DB	0c8H
	DB	00H
	DB	00H
	DB	00H
	DB	00H
	DB	00H
	DB	00H
	DB	00H
	DB	00H
	DB	092H
	DB	03bH
	DB	01H
	DB	03bH
	DB	02H
	DB	00H
	DB	00H
	DB	00H
	DB	00H
	DB	00H
	DB	00H
	DB	00H
	DB	00H
	DB	00H
	DB	00H
	DB	00H
	DB	00H
	DB	00H
	DB	00H
	DB	00H
	DB	063H
	DB	053H
	DB	053H
	DB	02H
	DB	00H
	DB	00H
	DB	00H
	DB	00H
	DB	00H
	DB	00H
	DB	00H
	DB	00H
	DB	00H
	DB	00H
	DB	00H
	DB	00H
	DB	092H
	DB	03bH
	DB	01H
	DB	01bH
	DB	063H
	DB	00H
	DB	00H
	DB	00H
	DB	00H
	DB	00H
	DB	00H
	DB	00H
	DB	00H
	DB	00H
	DB	01eH
	DB	053H
	DB	092H
	DB	01eH
	DB	00H
	DB	00H
	DB	00H
	DB	00H
	DB	00H
	DB	01eH
	DB	053H
	DB	02H
	DB	00H
	DB	00H
	DB	00H
	DB	00H
	DB	092H
	DB	092H
	DB	053H
	DB	0c8H
	DB	00H
	DB	00H
	DB	02H
	DB	0ffH
	DB	04H
	DB	04H
	DB	0b6H
	DB	01eH
	DB	00H
	DB	00H
	DB	092H
	DB	092H
	DB	00H
	DB	00H
	DB	00H
	DB	00H
	DB	00H
	DB	00H
	DB	00H
	DB	00H
	DB	00H
	DB	00H
	DB	00H
	DB	00H
	DB	00H
	DB	00H
	DB	00H
	DB	00H
	DB	00H
	DB	00H
	DB	00H
	DB	00H
	DB	00H
	DB	00H
	DB	00H
	DB	00H
	DB	00H
	DB	00H
	DB	00H
	DB	00H
	DB	00H
	DB	00H
	DB	00H
	DB	00H
	DB	00H
	DB	00H
	DB	00H
	DB	00H
	DB	00H
	DB	00H
	DB	00H
	DB	00H
	DB	00H
	DB	00H
	DB	00H
	DB	00H
	DB	00H
	DB	00H
	DB	00H
	DB	00H
	DB	00H
	DB	00H
	DB	00H
	DB	00H
	DB	00H
	DB	00H
	DB	00H
	DB	00H
	DB	00H
	DB	00H
	DB	00H
	DB	00H
	DB	00H
	DB	00H
	DB	00H
	DB	00H
	DB	00H
	DB	00H
	DB	00H
	DB	00H
	DB	00H
	DB	00H
	DB	00H
	DB	00H
	DB	00H
	DB	00H
	DB	00H
	DB	00H
	DB	00H
	DB	00H
	DB	00H
	DB	00H
	DB	00H
	DB	00H
	DB	00H
	DB	00H
	DB	00H
	DB	00H
	DB	00H
	DB	00H
	DB	00H
	DB	00H
	DB	00H
	DB	00H
	DB	00H
	DB	00H
	DB	00H
	DB	00H
	DB	00H
	DB	00H
	DB	00H
	DB	00H
	DB	00H
	DB	00H
	DB	00H
	DB	00H
	DB	00H
	DB	00H
	DB	00H
	DB	00H
	DB	00H
	DB	00H
	DB	00H
	DB	00H
	DB	00H
	DB	00H
	DB	00H
	DB	00H
	DB	00H
	DB	00H
	DB	00H
	DB	00H
	DB	00H
	DB	00H
	DB	00H
	DB	00H
	DB	00H
	DB	00H
	DB	00H
	DB	00H
	DB	00H
	DB	00H
	DB	00H
	DB	00H
	DB	00H
	DB	00H
	DB	00H
	DB	00H
	DB	00H
	DB	00H
	DB	00H
	DB	00H
	DB	00H
	DB	00H
	DB	00H
	DB	00H
	DB	00H
	DB	00H
	DB	00H
	DB	00H
	DB	00H
	DB	00H
	DB	00H
	DB	00H
	DB	00H
	DB	00H
	DB	00H
	DB	00H
	DB	00H
	DB	00H
	DB	00H
	DB	00H
	DB	00H
	DB	00H
	DB	00H
	DB	00H
	DB	00H
	DB	00H
	DB	00H
	DB	00H
	DB	02H
	DB	0ffH
	DB	04H
	DB	04H
	DB	0b6H
	DB	01eH
	DB	00H
	DB	00H
	DB	00H
	DB	00H
	DB	00H
	DB	00H
	DB	00H
	DB	00H
	DB	00H
	DB	00H
	DB	00H
	DB	00H
	DB	00H
	DB	00H
	DB	00H
	DB	00H
	DB	00H
	DB	00H
	DB	00H
	DB	00H
	DB	00H
	DB	00H
	DB	00H
	DB	00H
	DB	00H
	DB	00H
	DB	00H
	DB	00H
	DB	00H
	DB	00H
	DB	00H
	DB	00H
	DB	00H
	DB	00H
	DB	00H
	DB	00H
	DB	00H
	DB	00H
	DB	00H
	DB	00H
	DB	00H
	DB	00H
	DB	00H
	DB	00H
	DB	00H
	DB	00H
	DB	00H
	DB	00H
	DB	00H
	DB	00H
	DB	00H
	DB	00H
	DB	00H
	DB	00H
	DB	00H
	DB	00H
	DB	00H
	DB	00H
	DB	00H
	DB	00H
	DB	00H
	DB	00H
	DB	00H
	DB	00H
	DB	00H
	DB	00H
	DB	00H
	DB	00H
	DB	00H
	DB	00H
	DB	00H
	DB	00H
	DB	00H
	DB	00H
	DB	00H
	DB	00H
	DB	00H
	DB	00H
	DB	00H
	DB	00H
	DB	00H
	DB	00H
	DB	00H
	DB	00H
	DB	00H
	DB	00H
	DB	00H
	DB	00H
	DB	00H
	DB	00H
	DB	00H
	DB	00H
	DB	00H
	DB	00H
	DB	00H
	DB	00H
	DB	00H
	DB	00H
	DB	00H
	DB	00H
	DB	00H
	DB	00H
	DB	00H
	DB	00H
	DB	00H
	DB	00H
	DB	00H
	DB	00H
	DB	00H
	DB	00H
	DB	00H
	DB	00H
	DB	00H
	DB	00H
	DB	00H
	DB	00H
	DB	00H
	DB	00H
	DB	00H
	DB	00H
	DB	00H
	DB	00H
	DB	00H
	DB	00H
	DB	00H
	DB	00H
	DB	00H
	DB	00H
	DB	00H
	DB	00H
	DB	00H
	DB	00H
	DB	00H
	DB	00H
	DB	00H
	DB	00H
	DB	00H
	DB	00H
	DB	00H
	DB	00H
	DB	00H
	DB	00H
	DB	00H
	DB	00H
	DB	00H
	DB	00H
	DB	00H
	DB	00H
	DB	00H
	DB	00H
	DB	00H
	DB	00H
	DB	00H
	DB	00H
	DB	00H
	DB	00H
	DB	00H
	DB	00H
	DB	00H
	DB	00H
	DB	00H
	DB	00H
	DB	00H
	DB	00H
	DB	00H
	DB	00H
	DB	00H
	DB	00H
	DB	00H
	DB	00H
	DB	00H
	DB	00H
	DB	02H
	DB	0ffH
	DB	04H
	DB	04H
	DB	0b6H
	DB	01eH
	DB	00H
	DB	00H
	DB	00H
	DB	00H
	DB	00H
	DB	00H
	DB	00H
	DB	00H
	DB	00H
	DB	00H
	DB	00H
	DB	00H
	DB	00H
	DB	00H
	DB	00H
	DB	00H
	DB	00H
	DB	00H
	DB	00H
	DB	00H
	DB	00H
	DB	00H
	DB	00H
	DB	00H
	DB	00H
	DB	00H
	DB	00H
	DB	00H
	DB	00H
	DB	00H
	DB	00H
	DB	00H
	DB	00H
	DB	00H
	DB	00H
	DB	00H
	DB	00H
	DB	00H
	DB	00H
	DB	00H
	DB	00H
	DB	00H
	DB	00H
	DB	00H
	DB	00H
	DB	00H
	DB	00H
	DB	00H
	DB	00H
	DB	00H
	DB	00H
	DB	00H
	DB	00H
	DB	00H
	DB	00H
	DB	00H
	DB	00H
	DB	00H
	DB	00H
	DB	00H
	DB	00H
	DB	00H
	DB	00H
	DB	00H
	DB	00H
	DB	00H
	DB	00H
	DB	00H
	DB	00H
	DB	00H
	DB	00H
	DB	00H
	DB	00H
	DB	00H
	DB	00H
	DB	00H
	DB	00H
	DB	00H
	DB	00H
	DB	00H
	DB	00H
	DB	00H
	DB	00H
	DB	00H
	DB	00H
	DB	00H
	DB	00H
	DB	00H
	DB	00H
	DB	00H
	DB	00H
	DB	00H
	DB	00H
	DB	00H
	DB	00H
	DB	00H
	DB	00H
	DB	00H
	DB	00H
	DB	00H
	DB	00H
	DB	00H
	DB	00H
	DB	00H
	DB	00H
	DB	00H
	DB	00H
	DB	00H
	DB	00H
	DB	00H
	DB	00H
	DB	00H
	DB	00H
	DB	00H
	DB	00H
	DB	00H
	DB	00H
	DB	00H
	DB	00H
	DB	00H
	DB	00H
	DB	00H
	DB	00H
	DB	00H
	DB	00H
	DB	00H
	DB	00H
	DB	00H
	DB	00H
	DB	00H
	DB	00H
	DB	00H
	DB	00H
	DB	00H
	DB	00H
	DB	00H
	DB	00H
	DB	00H
	DB	00H
	DB	00H
	DB	00H
	DB	00H
	DB	00H
	DB	00H
	DB	00H
	DB	00H
	DB	00H
	DB	00H
	DB	00H
	DB	00H
	DB	00H
	DB	00H
	DB	00H
	DB	00H
	DB	00H
	DB	00H
	DB	00H
	DB	00H
	DB	00H
	DB	00H
	DB	00H
	DB	00H
	DB	00H
	DB	00H
	DB	00H
	DB	00H
	DB	00H
	DB	00H
	DB	00H
	DB	00H
	DB	00H
	DB	00H
	DB	02H
	DB	0feH
	DB	04H
	DB	04H
	DB	0fcH
	DB	01eH
	DB	00H
	DB	00H
	DB	00H
	DB	00H
	DB	00H
	DB	00H
	DB	00H
	DB	00H
	DB	00H
	DB	00H
	DB	00H
	DB	00H
	DB	00H
	DB	00H
	DB	00H
	DB	00H
	DB	00H
	DB	00H
	DB	00H
	DB	00H
	DB	00H
	DB	00H
	DB	00H
	DB	00H
	DB	00H
	DB	00H
	DB	00H
	DB	00H
	DB	00H
	DB	00H
	DB	00H
	DB	00H
	DB	00H
	DB	00H
	DB	00H
	DB	00H
	DB	00H
	DB	00H
	DB	00H
	DB	00H
	DB	00H
	DB	00H
	DB	00H
	DB	00H
	DB	00H
	DB	00H
	DB	00H
	DB	00H
	DB	00H
	DB	00H
	DB	00H
	DB	00H
	DB	00H
	DB	00H
	DB	00H
	DB	00H
	DB	00H
	DB	00H
	DB	00H
	DB	00H
	DB	00H
	DB	00H
	DB	00H
	DB	00H
	DB	00H
	DB	00H
	DB	00H
	DB	00H
	DB	00H
	DB	00H
	DB	00H
	DB	00H
	DB	00H
	DB	00H
	DB	00H
	DB	00H
	DB	00H
	DB	00H
	DB	00H
	DB	00H
	DB	00H
	DB	00H
	DB	00H
	DB	00H
	DB	00H
	DB	00H
	DB	00H
	DB	00H
	DB	00H
	DB	00H
	DB	00H
	DB	00H
	DB	00H
	DB	00H
	DB	00H
	DB	00H
	DB	00H
	DB	00H
	DB	00H
	DB	00H
	DB	00H
	DB	00H
	DB	00H
	DB	00H
	DB	00H
	DB	00H
	DB	00H
	DB	00H
	DB	00H
	DB	00H
	DB	00H
	DB	00H
	DB	00H
	DB	00H
	DB	00H
	DB	00H
	DB	00H
	DB	00H
	DB	00H
	DB	00H
	DB	00H
	DB	00H
	DB	00H
	DB	00H
	DB	00H
	DB	00H
	DB	00H
	DB	00H
	DB	00H
	DB	00H
	DB	00H
	DB	00H
	DB	00H
	DB	00H
	DB	00H
	DB	00H
	DB	00H
	DB	00H
	DB	00H
	DB	00H
	DB	00H
	DB	00H
	DB	00H
	DB	00H
	DB	00H
	DB	00H
	DB	00H
	DB	00H
	DB	00H
	DB	00H
	DB	00H
	DB	00H
	DB	00H
	DB	00H
	DB	00H
	DB	00H
	DB	00H
	DB	00H
	DB	00H
	DB	00H
	DB	00H
	DB	00H
	DB	00H
	DB	00H
	DB	00H
	DB	00H
	DB	00H
	DB	00H
	DB	00H
	DB	00H
	DB	00H
	DB	00H
	DB	00H
	DB	01H
	DB	055H
	DB	055H
	DB	01H
	DB	00H
	DB	00H
	DB	00H
	DB	00H
	DB	00H
	DB	00H
	DB	00H
	DB	00H
	DB	00H
	DB	00H
	DB	00H
	DB	00H
	DB	00H
	DB	00H
	DB	00H
	DB	00H
	DB	00H
	DB	00H
	DB	00H
	DB	00H
	DB	00H
	DB	00H
	DB	00H
	DB	00H
	DB	00H
	DB	00H
	DB	00H
	DB	00H
	DB	00H
	DB	00H
	DB	00H
	DB	00H
	DB	00H
	DB	00H
	DB	00H
	DB	00H
	DB	00H
	DB	00H
	DB	00H
	DB	00H
	DB	00H
	DB	00H
	DB	00H
	DB	00H
	DB	00H
	DB	00H
	DB	00H
	DB	00H
	DB	00H
	DB	00H
	DB	00H
	DB	00H
	DB	00H
	DB	00H
	DB	00H
	DB	00H
	DB	00H
	DB	00H
	DB	00H
	DB	00H
	DB	00H
	DB	00H
	DB	00H
	DB	00H
	DB	00H
	DB	00H
	DB	00H
	DB	00H
	DB	00H
	DB	00H
	DB	00H
	DB	00H
	DB	00H
	DB	00H
	DB	00H
	DB	00H
	DB	00H
	DB	00H
	DB	00H
	DB	00H
	DB	00H
	DB	00H
	DB	00H
	DB	00H
	DB	00H
	DB	00H
	DB	00H
	DB	00H
	DB	00H
	DB	00H
	DB	00H
	DB	00H
	DB	00H
	DB	00H
	DB	00H
	DB	00H
	DB	00H
	DB	00H
	DB	00H
	DB	00H
	DB	00H
	DB	00H
	DB	00H
	DB	00H
	DB	00H
	DB	00H
	DB	00H
	DB	00H
	DB	00H
	DB	00H
	DB	00H
	DB	00H
	DB	00H
	DB	00H
	DB	00H
	DB	00H
	DB	00H
	DB	00H
	DB	00H
	DB	00H
	DB	00H
	DB	00H
	DB	00H
	DB	00H
	DB	00H
	DB	00H
	DB	00H
	DB	00H
	DB	00H
	DB	00H
	DB	00H
	DB	00H
	DB	00H
	DB	00H
	DB	00H
	DB	00H
	DB	00H
	DB	00H
	DB	00H
	DB	00H
	DB	00H
	DB	00H
	DB	00H
	DB	00H
	DB	00H
	DB	00H
	DB	00H
	DB	00H
	DB	00H
	DB	00H
	DB	00H
	DB	00H
	DB	00H
	DB	00H
	DB	00H
	DB	00H
	DB	00H
	DB	00H
	DB	00H
	DB	00H
	DB	00H
	DB	00H
	DB	00H
	DB	00H
	DB	00H
	DB	00H
	DB	00H
	DB	00H
	DB	00H
	DB	00H
	DB	00H
	DB	00H
	DB	00H
	DB	00H
	DB	00H
	DB	00H
	DB	00H
	DB	00H
	DB	00H
	DB	00H
	DB	00H
	DB	00H
	DB	00H
	DB	00H
	DB	00H
	DB	00H
	DB	00H
	DB	00H
	DB	00H
	DB	00H
	DB	00H
	DB	00H
	DB	00H
	DB	00H
	DB	00H
	DB	00H
	DB	00H
	DB	00H
	DB	00H
	DB	00H
	DB	00H
	DB	00H
	DB	00H
	DB	00H
	DB	00H
	DB	00H
	DB	00H
	DB	00H
CONST	ENDS
END
