; Listing generated by Microsoft (R) Optimizing Compiler Version 16.00.40219.01 

	TITLE	C:\DUII\DUII\Graphics\RaceSettingsText.c
	.686P
	.XMM
	include listing.inc
	.model	flat

INCLUDELIB LIBCMT
INCLUDELIB OLDNAMES

PUBLIC	_bmRaceSettingsText
EXTRN	_GUI_BitmapMethods8888:BYTE
CONST	SEGMENT
_acRaceSettingsText DD 0ffffffffH
	DD	0ffffffffH
	DD	0ffffffffH
	DD	0ffffffffH
	DD	0ffffffffH
	DD	0ffffffffH
	DD	0ffffffffH
	DD	0ffffffffH
	DD	0ffffffffH
	DD	0ffffffffH
	DD	0ffffffffH
	DD	0ffffffffH
	DD	0ffffffffH
	DD	0ffffffffH
	DD	0ffffffffH
	DD	0ffffffffH
	DD	0ffffffffH
	DD	0ffffffffH
	DD	0ffffffffH
	DD	0ffffffffH
	DD	0ffffffffH
	DD	0ffffffffH
	DD	0ffffffffH
	DD	0ffffffffH
	DD	0ffffffffH
	DD	0ffffffffH
	DD	0ffffffffH
	DD	0ffffffffH
	DD	0ffffffffH
	DD	0ffffffffH
	DD	0ffffffffH
	DD	0ffffffffH
	DD	0ffffffffH
	DD	0ffffffffH
	DD	0ffffffffH
	DD	0ffffffffH
	DD	0ffffffffH
	DD	0ffffffffH
	DD	0ffffffffH
	DD	0ffffffffH
	DD	0ffffffffH
	DD	0ffffffffH
	DD	0ffffffffH
	DD	0ffffffffH
	DD	0ffffffffH
	DD	0ffffffffH
	DD	0ffffffffH
	DD	0ffffffffH
	DD	0ffffffffH
	DD	0ffffffffH
	DD	0ffffffffH
	DD	0ffffffffH
	DD	0ffffffffH
	DD	0ffffffffH
	DD	0ffffffffH
	DD	0ffffffffH
	DD	0ffffffffH
	DD	0ffffffffH
	DD	0ffffffffH
	DD	0ffffffffH
	DD	0ffffffffH
	DD	0ffffffffH
	DD	0ffffffffH
	DD	0ffffffffH
	DD	0ffffffffH
	DD	0ffffffffH
	DD	0ffffffffH
	DD	0ffffffffH
	DD	0ffffffffH
	DD	0ffffffffH
	DD	0ffffffffH
	DD	0ffffffffH
	DD	0ffffffffH
	DD	0ffffffffH
	DD	0ffffffffH
	DD	0ffffffffH
	DD	0ffffffffH
	DD	0ffffffffH
	DD	0ffffffffH
	DD	0ffffffffH
	DD	0ffffffffH
	DD	0ffffffffH
	DD	0ffffffffH
	DD	0ffffffffH
	DD	0ffffffffH
	DD	0ffffffffH
	DD	0ffffffffH
	DD	0ffffffffH
	DD	0ffffffffH
	DD	0ffffffffH
	DD	0ffffffffH
	DD	0ffffffffH
	DD	0ffffffffH
	DD	0ffffffffH
	DD	0ffffffffH
	DD	0ffffffffH
	DD	0ffffffffH
	DD	0ffffffffH
	DD	0ffffffffH
	DD	0ffffffffH
	DD	0ffffffffH
	DD	0ffffffffH
	DD	0ffffffffH
	DD	0ffffffffH
	DD	0ffffffffH
	DD	0ffffffffH
	DD	0ffffffffH
	DD	0ffffffffH
	DD	0ffffffffH
	DD	0ffffffffH
	DD	0ffffffffH
	DD	0ffffffffH
	DD	0ffffffffH
	DD	0ffffffffH
	DD	0ffffffffH
	DD	0ffffffffH
	DD	0ffffffffH
	DD	0ffffffffH
	DD	0ffffffffH
	DD	0ffffffffH
	DD	0ffffffffH
	DD	0ffffffffH
	DD	0ffffffffH
	DD	0ffffffffH
	DD	0ffffffffH
	DD	0ffffffffH
	DD	0ffffffffH
	DD	0ffffffffH
	DD	0ffffffffH
	DD	0ffffffffH
	DD	0ffffffffH
	DD	0ffffffffH
	DD	0ffffffffH
	DD	0ffffffffH
	DD	0ffffffffH
	DD	0ffffffffH
	DD	0ffffffffH
	DD	0ffffffffH
	DD	0ffffffffH
	DD	0ffffffffH
	DD	0ffffffffH
	DD	0ffffffffH
	DD	0ffffffffH
	DD	0ffffffffH
	DD	0ffffffffH
	DD	0ffffffffH
	DD	0ffffffffH
	DD	0ffffffffH
	DD	0ffffffffH
	DD	0ffffffffH
	DD	0ffffffffH
	DD	0ffffffffH
	DD	0ffffffffH
	DD	0ffffffffH
	DD	0ffffffffH
	DD	0ffffffffH
	DD	0ffffffffH
	DD	0ffffffffH
	DD	0ffffffffH
	DD	0ffffffffH
	DD	0ffffffffH
	DD	0ffffffffH
	DD	0ffffffffH
	DD	0ffffffffH
	DD	0ffffffffH
	DD	0ffffffffH
	DD	0ffffffffH
	DD	0ffffffffH
	DD	0ffffffffH
	DD	0ffffffffH
	DD	0ffffffffH
	DD	0ffffffffH
	DD	0ffffffffH
	DD	0ffffffffH
	DD	0ffffffffH
	DD	0ffffffffH
	DD	0ffffffffH
	DD	0ffffffffH
	DD	0ffffffffH
	DD	0ffffffffH
	DD	0ffffffffH
	DD	0ffffffffH
	DD	0ffffffffH
	DD	0ffffffffH
	DD	0ffffffffH
	DD	0ffffffffH
	DD	0ffffffffH
	DD	0ffffffffH
	DD	0ffffffffH
	DD	0ffffffffH
	DD	0ffffffffH
	DD	0ffffffffH
	DD	0ffffffffH
	DD	0ffffffffH
	DD	0ffffffffH
	DD	0ffffffffH
	DD	0ffffffffH
	DD	0ffffffffH
	DD	0ffffffffH
	DD	0ffffffffH
	DD	0ffffffffH
	DD	0ffffffffH
	DD	0ffffffffH
	DD	0ffffffffH
	DD	0ffffffffH
	DD	0ffffffffH
	DD	0ffffffffH
	DD	0ffffffffH
	DD	0ffffffffH
	DD	0ffffffffH
	DD	0ffffffffH
	DD	0ffffffffH
	DD	0ffffffffH
	DD	0ffffffffH
	DD	0ffffffffH
	DD	0ffffffffH
	DD	0ffffffffH
	DD	0ffffffffH
	DD	0ffffffffH
	DD	0ffffffffH
	DD	0ffffffffH
	DD	0ffffffffH
	DD	0ffffffffH
	DD	0ffffffffH
	DD	0ffffffffH
	DD	0ffffffffH
	DD	0ffffffffH
	DD	0ffffffffH
	DD	0ffffffffH
	DD	0ffffffffH
	DD	0ffffffffH
	DD	0ffffffffH
	DD	0ffffffffH
	DD	0ffffffffH
	DD	0ffffffffH
	DD	0ffffffffH
	DD	0ffffffffH
	DD	0ffffffffH
	DD	0ffffffffH
	DD	0ffffffffH
	DD	0ffffffffH
	DD	0ffffffffH
	DD	0ffffffffH
	DD	0ffffffffH
	DD	0ffffffffH
	DD	0ffffffffH
	DD	0ffffffffH
	DD	0ffffffffH
	DD	0ffffffffH
	DD	0ffffffffH
	DD	0ffffffffH
	DD	0ffffffffH
	DD	0ffffffffH
	DD	0ffffffffH
	DD	0ffffffffH
	DD	0ffffffffH
	DD	0ffffffffH
	DD	0ffffffffH
	DD	0ffffffffH
	DD	0ffffffffH
	DD	0ffffffffH
	DD	0ffffffffH
	DD	0ffffffffH
	DD	0ffffffffH
	DD	0ffffffffH
	DD	0ffffffffH
	DD	0ffffffffH
	DD	0ffffffffH
	DD	0ffffffffH
	DD	0ffffffffH
	DD	0ffffffffH
	DD	0ffffffffH
	DD	0ffffffffH
	DD	0ffffffffH
	DD	0ffffffffH
	DD	0ffffffffH
	DD	0ffffffffH
	DD	0ffffffffH
	DD	0ffffffffH
	DD	0ffffffffH
	DD	0ffffffffH
	DD	0ffffffffH
	DD	0ffffffffH
	DD	0ffffffffH
	DD	0ffffffffH
	DD	0ffffffffH
	DD	0ffffffffH
	DD	0ffffffffH
	DD	0ffffffffH
	DD	0ffffffffH
	DD	0ffffffffH
	DD	0ffffffffH
	DD	0ffffffffH
	DD	0ffffffffH
	DD	0ffffffffH
	DD	0ffffffffH
	DD	0ffffffffH
	DD	0ffffffffH
	DD	0ffffffffH
	DD	0ffffffffH
	DD	0ffffffffH
	DD	0ffffffffH
	DD	0ffffffffH
	DD	0ffffffffH
	DD	0ffffffffH
	DD	0ffffffffH
	DD	0ffffffffH
	DD	0ffffffffH
	DD	0ffffffffH
	DD	0ffffffffH
	DD	0ffffffffH
	DD	0ffffffffH
	DD	0ffffffffH
	DD	0ffffffffH
	DD	0ffffffffH
	DD	0ffffffffH
	DD	0ffffffffH
	DD	0ffffffffH
	DD	0ffffffffH
	DD	0ffffffffH
	DD	0ffffffffH
	DD	0ffffffffH
	DD	0ffffffffH
	DD	0ffffffffH
	DD	0ffffffffH
	DD	0ffffffffH
	DD	0ffffffffH
	DD	0ffffffffH
	DD	0ffffffffH
	DD	0ffffffffH
	DD	0ffffffffH
	DD	0ffffffffH
	DD	0ffffffffH
	DD	0ffffffffH
	DD	0ffffffffH
	DD	0ffffffffH
	DD	0ffffffffH
	DD	0ffffffffH
	DD	0ffffffffH
	DD	0ffffffffH
	DD	0ffffffffH
	DD	0ffffffffH
	DD	0ffffffffH
	DD	0ffffffffH
	DD	0ffffffffH
	DD	0ffffffffH
	DD	0ffffffffH
	DD	0ffffffffH
	DD	0ffffffffH
	DD	0ffffffffH
	DD	0ffffffffH
	DD	0ffffffffH
	DD	0ffffffffH
	DD	0ffffffffH
	DD	0ffffffffH
	DD	0ffffffffH
	DD	0ffffffffH
	DD	0ffffffffH
	DD	0ffffffffH
	DD	0ffffffffH
	DD	0ffffffffH
	DD	0ffffffffH
	DD	0ffffffffH
	DD	0ffffffffH
	DD	0ffffffffH
	DD	0ffffffffH
	DD	0ffffffffH
	DD	0ffffffffH
	DD	0ffffffffH
	DD	0ffffffffH
	DD	0ffffffffH
	DD	0ffffffffH
	DD	0ffffffffH
	DD	0ffffffffH
	DD	0ffffffffH
	DD	0ffffffffH
	DD	0ffffffffH
	DD	0ffffffffH
	DD	0ffffffffH
	DD	0ffffffffH
	DD	0ffffffffH
	DD	0ffffffffH
	DD	0ffffffffH
	DD	0ffffffffH
	DD	0ffffffffH
	DD	0ffffffffH
	DD	0ffffffffH
	DD	0ffffffffH
	DD	0ffffffffH
	DD	0ffffffffH
	DD	0ffffffffH
	DD	0ffffffffH
	DD	0ffffffffH
	DD	0ffffffffH
	DD	0ffffffffH
	DD	0ffffffffH
	DD	0ffffffffH
	DD	0ffffffffH
	DD	0ffffffffH
	DD	0ffffffffH
	DD	0ffffffffH
	DD	0ffffffffH
	DD	0ffffffffH
	DD	0ffffffffH
	DD	0ffffffffH
	DD	0ffffffffH
	DD	0ffffffffH
	DD	0ffffffffH
	DD	0ffffffffH
	DD	0ffffffffH
	DD	0ffffffffH
	DD	0ffffffffH
	DD	0ffffffffH
	DD	0ffffffffH
	DD	0ffffffffH
	DD	0ffffffffH
	DD	0ffffffffH
	DD	0ffffffffH
	DD	0ffffffffH
	DD	0ffffffffH
	DD	0ffffffffH
	DD	0ffffffffH
	DD	0ffffffffH
	DD	0ffffffffH
	DD	0ffffffffH
	DD	0ffffffffH
	DD	0ffffffffH
	DD	0ffffffffH
	DD	0ffffffffH
	DD	0ffffffffH
	DD	0ffffffffH
	DD	0ffffffffH
	DD	0ffffffffH
	DD	0ffffffffH
	DD	0ffffffffH
	DD	0ffffffffH
	DD	0ffffffffH
	DD	0ffffffffH
	DD	0ffffffffH
	DD	0ffffffffH
	DD	0ffffffffH
	DD	0ffffffffH
	DD	0ffffffffH
	DD	0ffffffffH
	DD	0ffffffffH
	DD	0ffffffffH
	DD	0ffffffffH
	DD	0ffffffffH
	DD	0ffffffffH
	DD	0ffffffffH
	DD	0ffffffffH
	DD	0ffffffffH
	DD	0ffffffffH
	DD	0ffffffffH
	DD	0ffffffffH
	DD	0ffffffffH
	DD	0ffffffffH
	DD	0ffffffffH
	DD	0ffffffffH
	DD	0ffffffffH
	DD	0ffffffffH
	DD	0ffffffffH
	DD	0ffffffffH
	DD	0ffffffffH
	DD	0ffffffffH
	DD	0ffffffffH
	DD	0ffffffffH
	DD	0ffffffffH
	DD	0ffffffffH
	DD	0ffffffffH
	DD	0ffffffffH
	DD	0ffffffffH
	DD	0ffffffffH
	DD	0ffffffffH
	DD	0ffffffffH
	DD	0ffffffffH
	DD	0ffffffffH
	DD	0ffffffffH
	DD	0ffffffffH
	DD	0ffffffffH
	DD	0ffffffffH
	DD	0ffffffffH
	DD	0ffffffffH
	DD	0ffffffffH
	DD	0ffffffffH
	DD	0ffffffffH
	DD	0ffffffffH
	DD	0ffffffffH
	DD	0ffffffffH
	DD	0ffffffffH
	DD	0ffffffffH
	DD	0ffffffffH
	DD	0ffffffffH
	DD	0ffffffffH
	DD	0ffffffffH
	DD	0ffffffffH
	DD	0ffffffffH
	DD	0ffffffffH
	DD	0ffffffffH
	DD	0ffffffffH
	DD	0ffffffffH
	DD	0ffffffffH
	DD	0ffffffffH
	DD	0ffffffffH
	DD	0ffffffffH
	DD	0ffffffffH
	DD	0ffffffffH
	DD	0ffffffffH
	DD	0ffffffffH
	DD	0ffffffffH
	DD	0ffffffffH
	DD	0ffffffffH
	DD	0ffffffffH
	DD	0ffffffffH
	DD	0ffffffffH
	DD	0ffffffffH
	DD	0ffffffffH
	DD	0ffffffffH
	DD	0ffffffffH
	DD	0ffffffffH
	DD	0ffffffffH
	DD	0ffffffffH
	DD	0ffffffffH
	DD	0ffffffffH
	DD	0ffffffffH
	DD	0ffffffffH
	DD	0ffffffffH
	DD	0ffffffffH
	DD	0ffffffffH
	DD	0ffffffffH
	DD	0ffffffffH
	DD	0ffffffffH
	DD	0ffffffffH
	DD	0ffffffffH
	DD	0ffffffffH
	DD	0ffffffffH
	DD	0ffffffffH
	DD	0ffffffffH
	DD	0ffffffffH
	DD	0ffffffffH
	DD	0ffffffffH
	DD	0ffffffffH
	DD	0ffffffffH
	DD	0ffffffffH
	DD	0ffffffffH
	DD	0ffffffffH
	DD	0ffffffffH
	DD	0ffffffffH
	DD	0ffffffffH
	DD	0ffffffffH
	DD	0ffffffffH
	DD	0ffffffffH
	DD	0ffffffffH
	DD	0ffffffffH
	DD	0ffffffffH
	DD	0ffffffffH
	DD	0ffffffffH
	DD	0ffffffffH
	DD	0ffffffffH
	DD	0ffffffffH
	DD	0ffffffffH
	DD	0ffffffffH
	DD	0ffffffffH
	DD	0ffffffffH
	DD	0ffffffffH
	DD	0ffffffffH
	DD	0ffffffffH
	DD	0ffffffffH
	DD	0ffffffffH
	DD	0ffffffffH
	DD	0ffffffffH
	DD	0ffffffffH
	DD	0ffffffffH
	DD	0ffffffffH
	DD	0ffffffffH
	DD	0ffffffffH
	DD	0ffffffffH
	DD	0ffffffffH
	DD	0ffffffffH
	DD	0ffffffffH
	DD	0ffffffffH
	DD	0ffffffffH
	DD	0ffffffffH
	DD	0ffffffffH
	DD	0ffffffffH
	DD	0ffffffffH
	DD	0ffffffffH
	DD	0ffffffffH
	DD	0ffffffffH
	DD	0ffffffffH
	DD	0ffffffffH
	DD	0ffffffffH
	DD	0ffffffffH
	DD	0ffffffffH
	DD	0ffffffffH
	DD	0ffffffffH
	DD	0ffffffffH
	DD	0ffffffffH
	DD	0ffffffffH
	DD	0ffffffffH
	DD	0ffffffffH
	DD	0ffffffffH
	DD	0ffffffffH
	DD	0ffffffffH
	DD	0ffffffffH
	DD	0ffffffffH
	DD	0ffffffffH
	DD	0ffffffffH
	DD	0ffffffffH
	DD	0ffffffffH
	DD	0ffffffffH
	DD	0ffffffffH
	DD	0ffffffffH
	DD	0ffffffffH
	DD	0ffffffffH
	DD	0ffffffffH
	DD	0ffffffffH
	DD	0ffffffffH
	DD	0ffffffffH
	DD	0ffffffffH
	DD	0ffffffffH
	DD	0ffffffffH
	DD	0ffffffffH
	DD	0ffffffffH
	DD	0ffffffffH
	DD	0ffffffffH
	DD	0ffffffffH
	DD	0ffffffffH
	DD	0ffffffffH
	DD	0ffffffffH
	DD	0ffffffffH
	DD	0ffffffffH
	DD	0ffffffffH
	DD	0ffffffffH
	DD	0ffffffffH
	DD	0ffffffffH
	DD	0ffffffffH
	DD	0ffffffffH
	DD	0ffffffffH
	DD	0ffffffffH
	DD	0ffffffffH
	DD	0ffffffffH
	DD	0ffffffffH
	DD	0ffffffffH
	DD	0ffffffffH
	DD	0ffffffffH
	DD	0ffffffffH
	DD	0ffffffffH
	DD	0ffffffffH
	DD	0ffffffffH
	DD	0ffffffffH
	DD	0ffffffffH
	DD	0ffffffffH
	DD	0ffffffffH
	DD	0ffffffffH
	DD	0ffffffffH
	DD	0ffffffffH
	DD	0ffffffffH
	DD	0ffffffffH
	DD	0ffffffffH
	DD	0ffffffffH
	DD	0ffffffffH
	DD	0ffffffffH
	DD	0ffffffffH
	DD	0ffffffffH
	DD	0ffffffffH
	DD	0ffffffffH
	DD	0ffffffffH
	DD	0ffffffffH
	DD	0ffffffffH
	DD	0ffffffffH
	DD	0ffffffffH
	DD	0ffffffffH
	DD	0ffffffffH
	DD	0ffffffffH
	DD	0ffffffffH
	DD	0ffffffffH
	DD	0ffffffffH
	DD	0ffffffffH
	DD	0ffffffffH
	DD	0ffffffffH
	DD	0ffffffffH
	DD	0ffffffffH
	DD	0ffffffffH
	DD	0ffffffffH
	DD	0ffffffffH
	DD	0ffffffffH
	DD	0ffffffffH
	DD	0ffffffffH
	DD	0ffffffffH
	DD	0ffffffffH
	DD	0ffffffffH
	DD	0ffffffffH
	DD	0ffffffffH
	DD	0ffffffffH
	DD	0ffffffffH
	DD	0ffffffffH
	DD	0ffffffffH
	DD	0ffffffffH
	DD	0ffffffffH
	DD	0ffffffffH
	DD	0ffffffffH
	DD	0ffffffffH
	DD	0ffffffffH
	DD	0ffffffffH
	DD	0ffffffffH
	DD	0ffffffffH
	DD	0ffffffffH
	DD	0ffffffffH
	DD	0ffffffffH
	DD	0ffffffffH
	DD	0ffffffffH
	DD	0ffffffffH
	DD	0ffffffffH
	DD	0ffffffffH
	DD	0ffffffffH
	DD	0ffffffffH
	DD	0ffffffffH
	DD	0ffffffffH
	DD	0ffffffffH
	DD	0ffffffffH
	DD	0ffffffffH
	DD	0ffffffffH
	DD	0ffffffffH
	DD	0ffffffffH
	DD	0ffffffffH
	DD	0ffffffffH
	DD	0ffffffffH
	DD	0ffffffffH
	DD	0ffffffffH
	DD	0ffffffffH
	DD	0ffffffffH
	DD	0ffffffffH
	DD	0ffffffffH
	DD	0ffffffffH
	DD	0ffffffffH
	DD	0ffffffffH
	DD	0ffffffffH
	DD	0ffffffffH
	DD	0ffffffffH
	DD	0ffffffffH
	DD	0ffffffffH
	DD	0ffffffffH
	DD	0ffffffffH
	DD	0ffffffffH
	DD	0ffffffffH
	DD	0ffffffffH
	DD	0ffffffffH
	DD	0ffffffffH
	DD	0ffffffffH
	DD	0ffffffffH
	DD	0ffffffffH
	DD	0ffffffffH
	DD	0ffffffffH
	DD	0ffffffffH
	DD	0ffffffffH
	DD	0ffffffffH
	DD	0ffffffffH
	DD	0ffffffffH
	DD	0ffffffffH
	DD	0ffffffffH
	DD	0ffffffffH
	DD	0ffffffffH
	DD	0ffffffffH
	DD	0ffffffffH
	DD	0ffffffffH
	DD	0ffffffffH
	DD	0ffffffffH
	DD	0ffffffffH
	DD	0ffffffffH
	DD	0ffffffffH
	DD	0ffffffffH
	DD	0ffffffffH
	DD	0ffffffffH
	DD	0ffffffffH
	DD	0ffffffffH
	DD	0ffffffffH
	DD	0ffffffffH
	DD	0ffffffffH
	DD	0ffffffffH
	DD	0ffffffffH
	DD	0ffffffffH
	DD	0ffffffffH
	DD	0ffffffffH
	DD	0ffffffffH
	DD	0ffffffffH
	DD	0ffffffffH
	DD	0ffffffffH
	DD	0ffffffffH
	DD	0ffffffffH
	DD	0ffffffffH
	DD	0ffffffffH
	DD	0ffffffffH
	DD	0ffffffffH
	DD	0ffffffffH
	DD	0ffffffffH
	DD	0ffffffffH
	DD	0ffffffffH
	DD	0ffffffffH
	DD	0ffffffffH
	DD	0ffffffffH
	DD	0ffffffffH
	DD	0ffffffffH
	DD	0ffffffffH
	DD	0ffffffffH
	DD	0ffffffffH
	DD	0ffffffffH
	DD	0ffffffffH
	DD	0ffffffffH
	DD	0ffffffffH
	DD	0ffffffffH
	DD	0ffffffffH
	DD	0ffffffffH
	DD	0ffffffffH
	DD	0ffffffffH
	DD	0ffffffffH
	DD	0ffffffffH
	DD	0ffffffffH
	DD	0ffffffffH
	DD	0ffffffffH
	DD	0ffffffffH
	DD	0ffffffffH
	DD	0ffffffffH
	DD	0ffffffffH
	DD	0ffffffffH
	DD	0ffffffffH
	DD	0ffffffffH
	DD	0ffffffffH
	DD	0ffffffffH
	DD	0ffffffffH
	DD	0ffffffffH
	DD	0ffffffffH
	DD	0ffffffffH
	DD	0ffffffffH
	DD	0ffffffffH
	DD	0ffffffffH
	DD	0ffffffffH
	DD	0ffffffffH
	DD	0ffffffffH
	DD	0ffffffffH
	DD	0ffffffffH
	DD	0ffffffffH
	DD	0ffffffffH
	DD	0ffffffffH
	DD	0ffffffffH
	DD	0ffffffffH
	DD	0ffffffffH
	DD	0ffffffffH
	DD	0ffffffffH
	DD	0ffffffffH
	DD	0ffffffffH
	DD	0ffffffffH
	DD	0ffffffffH
	DD	0ffffffffH
	DD	0ffffffffH
	DD	0ffffffffH
	DD	0ffffffffH
	DD	0ffffffffH
	DD	0ffffffffH
	DD	0ffffffffH
	DD	0ffffffffH
	DD	0ffffffffH
	DD	0ffffffffH
	DD	0ffffffffH
	DD	0ffffffffH
	DD	0ffffffffH
	DD	0ffffffffH
	DD	0ffffffffH
	DD	0ffffffffH
	DD	0ffffffffH
	DD	0ffffffffH
	DD	0ffffffffH
	DD	0ffffffffH
	DD	0ffffffffH
	DD	0ffffffffH
	DD	0ffffffffH
	DD	0ffffffffH
	DD	0ffffffffH
	DD	0ffffffffH
	DD	0ffffffffH
	DD	0ffffffffH
	DD	0ffffffffH
	DD	0ffffffffH
	DD	0ffffffffH
	DD	0ffffffffH
	DD	0ffffffffH
	DD	0ffffffffH
	DD	0ffffffffH
	DD	0ffffffffH
	DD	0ffffffffH
	DD	0ffffffffH
	DD	0ffffffffH
	DD	0ffffffffH
	DD	0ffffffffH
	DD	0ffffffffH
	DD	0ffffffffH
	DD	0ffffffffH
	DD	0ffffffffH
	DD	0ffffffffH
	DD	0ffffffffH
	DD	0ffffffffH
	DD	0ffffffffH
	DD	0ffffffffH
	DD	0ffffffffH
	DD	0ffffffffH
	DD	0ffffffffH
	DD	0ffffffffH
	DD	0ffffffffH
	DD	0ffffffffH
	DD	0ffffffffH
	DD	0ffffffffH
	DD	0ffffffffH
	DD	0ffffffffH
	DD	0ffffffffH
	DD	0ffffffffH
	DD	0ffffffffH
	DD	0ffffffffH
	DD	0ffffffffH
	DD	0ffffffffH
	DD	0ffffffffH
	DD	0ffffffffH
	DD	0ffffffffH
	DD	0ffffffffH
	DD	0ffffffffH
	DD	0ffffffffH
	DD	0ffffffffH
	DD	0ffffffffH
	DD	0ffffffffH
	DD	0ffffffffH
	DD	0ffffffffH
	DD	0ffffffffH
	DD	0ffffffffH
	DD	0ffffffffH
	DD	0ffffffffH
	DD	0ffffffffH
	DD	0ffffffffH
	DD	0ffffffffH
	DD	0ffffffffH
	DD	0ffffffffH
	DD	0ffffffffH
	DD	0ffffffffH
	DD	0ffffffffH
	DD	0ffffffffH
	DD	0ffffffffH
	DD	0ffffffffH
	DD	0ffffffffH
	DD	0ffffffffH
	DD	0ffffffffH
	DD	0ffffffffH
	DD	0ffffffffH
	DD	0ffffffffH
	DD	0ffffffffH
	DD	0ffffffffH
	DD	0ffffffffH
	DD	0ffffffffH
	DD	0ffffffffH
	DD	0ffffffffH
	DD	0ffffffffH
	DD	0ffffffffH
	DD	0ffffffffH
	DD	0ffffffffH
	DD	0ffffffffH
	DD	0ffffffffH
	DD	0ffffffffH
	DD	0ffffffffH
	DD	0ffffffffH
	DD	0ffffffffH
	DD	0ffffffffH
	DD	0ffffffffH
	DD	0ffffffffH
	DD	0ffffffffH
	DD	0ffffffffH
	DD	0ffffffffH
	DD	0ffffffffH
	DD	0ffffffffH
	DD	0ffffffffH
	DD	0ffffffffH
	DD	0ffffffffH
	DD	0ffffffffH
	DD	0ffffffffH
	DD	0ffffffffH
	DD	0ffffffffH
	DD	0ffffffffH
	DD	0ffffffffH
	DD	0ffffffffH
	DD	0ffffffffH
	DD	0ffffffffH
	DD	0ffffffffH
	DD	0ffffffffH
	DD	0ffffffffH
	DD	0ffffffffH
	DD	0ffffffffH
	DD	0ffffffffH
	DD	0ffffffffH
	DD	0ffffffffH
	DD	0ffffffffH
	DD	0ffffffffH
	DD	0ffffffffH
	DD	0ffffffffH
	DD	0ffffffffH
	DD	0ffffffffH
	DD	0ffffffffH
	DD	0ffffffffH
	DD	0ffffffffH
	DD	0ffffffffH
	DD	0ffffffffH
	DD	0ffffffffH
	DD	0ffffffffH
	DD	0ffffffffH
	DD	0ffffffffH
	DD	0ffffffffH
	DD	0ffffffffH
	DD	0ffffffffH
	DD	0ffffffffH
	DD	0ffffffffH
	DD	0ffffffffH
	DD	0ffffffffH
	DD	0ffffffffH
	DD	0ffffffffH
	DD	0ffffffffH
	DD	0ffffffffH
	DD	0ffffffffH
	DD	0ffffffffH
	DD	0ffffffffH
	DD	0ffffffffH
	DD	0ffffffffH
	DD	0ffffffffH
	DD	0ffffffffH
	DD	0ffffffffH
	DD	0ffffffffH
	DD	0ffffffffH
	DD	0ffffffffH
	DD	0ffffffffH
	DD	0ffffffffH
	DD	0ffffffffH
	DD	0ffffffffH
	DD	0ffffffffH
	DD	0ffffffffH
	DD	0ffffffffH
	DD	0ffffffffH
	DD	0ffffffffH
	DD	0ffffffffH
	DD	0ffffffffH
	DD	0ffffffffH
	DD	0ffffffffH
	DD	0ffffffffH
	DD	0ffffffffH
	DD	0ffffffffH
	DD	0ffffffffH
	DD	0ffffffffH
	DD	0ffffffffH
	DD	0ffffffffH
	DD	0ffffffffH
	DD	0ffffffffH
	DD	0ffffffffH
	DD	0ffffffffH
	DD	0ffffffffH
	DD	0ffffffffH
	DD	0ffffffffH
	DD	0ffffffffH
	DD	0ffffffffH
	DD	0ffffffffH
	DD	0ffffffffH
	DD	0ffffffffH
	DD	0ffffffffH
	DD	0ffffffffH
	DD	0ffffffffH
	DD	0ffffffffH
	DD	0ffffffffH
	DD	0ffffffffH
	DD	0ffffffffH
	DD	0ffffffffH
	DD	0ffffffffH
	DD	0ffffffffH
	DD	0ffffffffH
	DD	0ffffffffH
	DD	0ffffffffH
	DD	0ffffffffH
	DD	0ffffffffH
	DD	0ffffffffH
	DD	0ffffffffH
	DD	0ffffffffH
	DD	0ffffffffH
	DD	0ffffffffH
	DD	0ffffffffH
	DD	0ffffffffH
	DD	0ffffffffH
	DD	0ffffffffH
	DD	0ffffffffH
	DD	0ffffffffH
	DD	0ffffffffH
	DD	0ffffffffH
	DD	0ffffffffH
	DD	0ffffffffH
	DD	0ffffffffH
	DD	0ffffffffH
	DD	0ffffffffH
	DD	0ffffffffH
	DD	0ffffffffH
	DD	0ffffffffH
	DD	0ffffffffH
	DD	0ffffffffH
	DD	0ffffffffH
	DD	0ffffffffH
	DD	0ffffffffH
	DD	0ffffffffH
	DD	0ffffffffH
	DD	0ffffffffH
	DD	0ffffffffH
	DD	0ffffffffH
	DD	0ffffffffH
	DD	0ffffffffH
	DD	0ffffffffH
	DD	0ffffffffH
	DD	0ffffffffH
	DD	0ffffffffH
	DD	0ffffffffH
	DD	0ffffffffH
	DD	0ffffffffH
	DD	0ffffffffH
	DD	0ffffffffH
	DD	0ffffffffH
	DD	0ffffffffH
	DD	0ffffffffH
	DD	0ffffffffH
	DD	0ffffffffH
	DD	0ffffffffH
	DD	0ffffffffH
	DD	0ffffffffH
	DD	0ffffffffH
	DD	0ffffffffH
	DD	0ffffffffH
	DD	0ffffffffH
	DD	0ffffffffH
	DD	0ffffffffH
	DD	0ffffffffH
	DD	0ffffffffH
	DD	0ffffffffH
	DD	0ffffffffH
	DD	0ffffffffH
	DD	0ffffffffH
	DD	0ffffffffH
	DD	0ffffffffH
	DD	0ffffffffH
	DD	0ffffffffH
	DD	0ffffffffH
	DD	0ffffffffH
	DD	0ffffffffH
	DD	0ffffffffH
	DD	0ffffffffH
	DD	0ffffffffH
	DD	0ffffffffH
	DD	0ffffffffH
	DD	0ffffffffH
	DD	0ffffffffH
	DD	0ffffffffH
	DD	0ffffffffH
	DD	0ffffffffH
	DD	0ffffffffH
	DD	0ffffffffH
	DD	0ffffffffH
	DD	0ffffffffH
	DD	0ffffffffH
	DD	0ffffffffH
	DD	0ffffffffH
	DD	0ffffffffH
	DD	0ffffffffH
	DD	0ffffffffH
	DD	0ffffffffH
	DD	0ffffffffH
	DD	0ffffffffH
	DD	0ffffffffH
	DD	0ffffffffH
	DD	0ffffffffH
	DD	0ffffffffH
	DD	0ffffffffH
	DD	0ffffffffH
	DD	0ffffffffH
	DD	0ffffffffH
	DD	0ffffffffH
	DD	0ffffffffH
	DD	0ffffffffH
	DD	0ffffffffH
	DD	0ffffffffH
	DD	0ffffffffH
	DD	0ffffffffH
	DD	0ffffffffH
	DD	0ffffffffH
	DD	0ffffffffH
	DD	0ffffffffH
	DD	0ffffffffH
	DD	0ffffffffH
	DD	0ffffffffH
	DD	0ffffffffH
	DD	0ffffffffH
	DD	0ffffffffH
	DD	0ffffffffH
	DD	0ffffffffH
	DD	0ffffffffH
	DD	0ffffffffH
	DD	0ffffffffH
	DD	0ffffffffH
	DD	0ffffffffH
	DD	0ffffffffH
	DD	0ffffffffH
	DD	0ffffffffH
	DD	0ffffffffH
	DD	0ffffffffH
	DD	0ffffffffH
	DD	0ffffffffH
	DD	0ffffffffH
	DD	0ffffffffH
	DD	0ffffffffH
	DD	0ffffffffH
	DD	0ffffffffH
	DD	0ffffffffH
	DD	0ffffffffH
	DD	0ffffffffH
	DD	0ffffffffH
	DD	0ffffffffH
	DD	0ffffffffH
	DD	0ffffffffH
	DD	0ffffffffH
	DD	0ffffffffH
	DD	0ffffffffH
	DD	0ffffffffH
	DD	0ffffffffH
	DD	0ffffffffH
	DD	0ffffffffH
	DD	0ffffffffH
	DD	0ffffffffH
	DD	0ffffffffH
	DD	0ffffffffH
	DD	0ffffffffH
	DD	0ffffffffH
	DD	0ffffffffH
	DD	0ffffffffH
	DD	0ffffffffH
	DD	0ffffffffH
	DD	0ffffffffH
	DD	0ffffffffH
	DD	0ffffffffH
	DD	0ffffffffH
	DD	0ffffffffH
	DD	0ffffffffH
	DD	0ffffffffH
	DD	0ffffffffH
	DD	0ffffffffH
	DD	0ffffffffH
	DD	0ffffffffH
	DD	0ffffffffH
	DD	0ffffffffH
	DD	0ffffffffH
	DD	0ffffffffH
	DD	0ffffffffH
	DD	0ffffffffH
	DD	0ffffffffH
	DD	0ffffffffH
	DD	0ffffffffH
	DD	0ffffffffH
	DD	0ffffffffH
	DD	0ffffffffH
	DD	0ffffffffH
	DD	0ffffffffH
	DD	0ffffffffH
	DD	0ffffffffH
	DD	0ffffffffH
	DD	0ffffffffH
	DD	0ffffffffH
	DD	0ffffffffH
	DD	0ffffffffH
	DD	0ffffffffH
	DD	0ffffffffH
	DD	0ffffffffH
	DD	0ffffffffH
	DD	0ffffffffH
	DD	0ffffffffH
	DD	0ffffffffH
	DD	0ffffffffH
	DD	0ffffffffH
	DD	0ffffffffH
	DD	0ffffffffH
	DD	0ffffffffH
	DD	0ffffffffH
	DD	0ffffffffH
	DD	0ffffffffH
	DD	0ffffffffH
	DD	0ffffffffH
	DD	0ffffffffH
	DD	0ffffffffH
	DD	0ffffffffH
	DD	0ffffffffH
	DD	0ffffffffH
	DD	0ffffffffH
	DD	0ffffffffH
	DD	0ffffffffH
	DD	0ffffffffH
	DD	0ffffffffH
	DD	0ffffffffH
	DD	0ffffffffH
	DD	0ffffffffH
	DD	0ffffffffH
	DD	0ffffffffH
	DD	0ffffffffH
	DD	0ffffffffH
	DD	0ffffffffH
	DD	0ffffffffH
	DD	0ffffffffH
	DD	0ffffffffH
	DD	0ffffffffH
	DD	0ffffffffH
	DD	0ffffffffH
	DD	0ffffffffH
	DD	0ffffffffH
	DD	0ffffffffH
	DD	0ffffffffH
	DD	0ffffffffH
	DD	0ffffffffH
	DD	0ffffffffH
	DD	0ffffffffH
	DD	0ffffffffH
	DD	0ffffffffH
	DD	0ffffffffH
	DD	0ffffffffH
	DD	0ffffffffH
	DD	0ffffffffH
	DD	0ffffffffH
	DD	0ffffffffH
	DD	0ffffffffH
	DD	0ffffffffH
	DD	0ffffffffH
	DD	0ffffffffH
	DD	0ffffffffH
	DD	0ffffffffH
	DD	0ffffffffH
	DD	0ffffffffH
	DD	0ffffffffH
	DD	0ffffffffH
	DD	0ffffffffH
	DD	0ffffffffH
	DD	0ffffffffH
	DD	0ffffffffH
	DD	0ffffffffH
	DD	0ffffffffH
	DD	0ffffffffH
	DD	0ffffffffH
	DD	0ffffffffH
	DD	0ffffffffH
	DD	0ffffffffH
	DD	0ffffffffH
	DD	0ffffffffH
	DD	0ffffffffH
	DD	0ffffffffH
	DD	0ffffffffH
	DD	0ffffffffH
	DD	0ffffffffH
	DD	0ffffffffH
	DD	0ffffffffH
	DD	0ffffffffH
	DD	0ffffffffH
	DD	0ffffffffH
	DD	0ffffffffH
	DD	0ffffffffH
	DD	0ffffffffH
	DD	0ffffffffH
	DD	0ffffffffH
	DD	0ffffffffH
	DD	0ffffffffH
	DD	0ffffffffH
	DD	0ffffffffH
	DD	0ffffffffH
	DD	0ffffffffH
	DD	0ffffffffH
	DD	0ffffffffH
	DD	0ffffffffH
	DD	0ffffffffH
	DD	0ffffffffH
	DD	0ffffffffH
	DD	0ffffffffH
	DD	0ffffffffH
	DD	0ffffffffH
	DD	0ffffffffH
	DD	0ffffffffH
	DD	0ffffffffH
	DD	0ffffffffH
	DD	0ffffffffH
	DD	0ffffffffH
	DD	0ffffffffH
	DD	0ffffffffH
	DD	0ffffffffH
	DD	0ffffffffH
	DD	0ffffffffH
	DD	0ffffffffH
	DD	0ffffffffH
	DD	0ffffffffH
	DD	0ffffffffH
	DD	0ffffffffH
	DD	0ffffffffH
	DD	0ffffffffH
	DD	0ffffffffH
	DD	0ffffffffH
	DD	0ffffffffH
	DD	0ffffffffH
	DD	0ffffffffH
	DD	0ffffffffH
	DD	0ffffffffH
	DD	0ffffffffH
	DD	0ffffffffH
	DD	0ffffffffH
	DD	0ffffffffH
	DD	0ffffffffH
	DD	0ffffffffH
	DD	0ffffffffH
	DD	0ffffffffH
	DD	0ffffffffH
	DD	0ffffffffH
	DD	0ffffffffH
	DD	0ffffffffH
	DD	0ffffffffH
	DD	0ffffffffH
	DD	0ffffffffH
	DD	0ffffffffH
	DD	0ffffffffH
	DD	0ffffffffH
	DD	0ffffffffH
	DD	0ffffffffH
	DD	0ffffffffH
	DD	0fffdfdfdH
	DD	0fff7f7f7H
	DD	0fff7f7f7H
	DD	0fff7f7f7H
	DD	0fff7f7f7H
	DD	0fff7f7f7H
	DD	0fff6f4f4H
	DD	0fff5f0f0H
	DD	0fff5f0f0H
	DD	0fff5f0f0H
	DD	0fff5f0f0H
	DD	0fff5f0f0H
	DD	0fff5f0f0H
	DD	0fff5f0f0H
	DD	0fff5f0f0H
	DD	0fff5f0f0H
	DD	0fff5f0f0H
	DD	0fff5f0f0H
	DD	0fff5f0f0H
	DD	0fff5f0f0H
	DD	0fff5f0f0H
	DD	0fff5f0f0H
	DD	0fff5f0f0H
	DD	0fff6f2f2H
	DD	0fff7f6f6H
	DD	0fff7f7f7H
	DD	0fff7f7f7H
	DD	0fff7f7f7H
	DD	0fff7f7f7H
	DD	0fff7f7f7H
	DD	0fff7f5f5H
	DD	0fff5f0f0H
	DD	0fff5f0f0H
	DD	0fff5f0f0H
	DD	0fff5f0f0H
	DD	0fff5f0f0H
	DD	0fff5f0f0H
	DD	0fff5f0f0H
	DD	0fff5f0f0H
	DD	0fff5f0f0H
	DD	0fff5f0f0H
	DD	0fff5f0f0H
	DD	0fff5f0f0H
	DD	0fff5f0f0H
	DD	0fff5f0f0H
	DD	0fff5f0f0H
	DD	0fff6f3f3H
	DD	0fff7f7f7H
	DD	0fff7f7f7H
	DD	0fff7f7f7H
	DD	0fff7f7f7H
	DD	0fff7f7f7H
	DD	0fff7f7f7H
	DD	0fff7f7f7H
	DD	0fff7f7f7H
	DD	0fff7f7f7H
	DD	0fff7f7f7H
	DD	0fff7f4f4H
	DD	0fff5f1f0H
	DD	0fff5f0f0H
	DD	0fff5f0f0H
	DD	0fff5f0f0H
	DD	0fff5f0f0H
	DD	0fff5f0f0H
	DD	0fff5f0f0H
	DD	0fff5f0f0H
	DD	0fff5f0f0H
	DD	0fff5f0f0H
	DD	0fff5f0f0H
	DD	0fff5f0f0H
	DD	0fff6f2f2H
	DD	0fff7f7f7H
	DD	0fff7f7f7H
	DD	0fff7f7f7H
	DD	0fff7f7f7H
	DD	0fff7f7f7H
	DD	0fff7f7f7H
	DD	0fff7f4f4H
	DD	0fff5f0f0H
	DD	0fff5f0f0H
	DD	0fff5f0f0H
	DD	0fff5f0f0H
	DD	0fff5f0f0H
	DD	0fff5f0f0H
	DD	0fff5f0f0H
	DD	0fff5f0f0H
	DD	0fff5f0f0H
	DD	0fff5f0f0H
	DD	0fff5f0f0H
	DD	0fff6f2f2H
	DD	0fff7f7f7H
	DD	0fff7f7f7H
	DD	0fff7f7f7H
	DD	0fff7f7f7H
	DD	0fff7f7f7H
	DD	0fff7f7f7H
	DD	0fff7f7f7H
	DD	0fff7f7f7H
	DD	0fff7f7f7H
	DD	0fff7f7f7H
	DD	0fff7f7f7H
	DD	0fff7f7f7H
	DD	0fff7f7f7H
	DD	0fff7f7f7H
	DD	0fff7f7f7H
	DD	0fff7f7f7H
	DD	0fff7f7f7H
	DD	0fff7f7f7H
	DD	0fff7f7f7H
	DD	0fff7f6f5H
	DD	0fff6f1f1H
	DD	0fff5f0f0H
	DD	0fff5f0f0H
	DD	0fff5f0f0H
	DD	0fff5f0f0H
	DD	0fff5f0f0H
	DD	0fff5f0f0H
	DD	0fff5f0f0H
	DD	0fff5f0f0H
	DD	0fff5f0f0H
	DD	0fff5f0f0H
	DD	0fff5f0f0H
	DD	0fff5f0f0H
	DD	0fff5f0f0H
	DD	0fff5f0f0H
	DD	0fff5f0f0H
	DD	0fff7f6f6H
	DD	0fff7f7f7H
	DD	0fff7f7f7H
	DD	0fff7f7f7H
	DD	0fff7f7f7H
	DD	0fff7f7f7H
	DD	0fff7f6f6H
	DD	0fff6f2f1H
	DD	0fff5f0f0H
	DD	0fff5f0f0H
	DD	0fff5f0f0H
	DD	0fff5f0f0H
	DD	0fff5f0f0H
	DD	0fff5f0f0H
	DD	0fff5f0f0H
	DD	0fff5f0f0H
	DD	0fff5f0f0H
	DD	0fff5f0f0H
	DD	0fff5f0f0H
	DD	0fff7f5f4H
	DD	0fff7f7f7H
	DD	0fff7f7f7H
	DD	0fff7f7f7H
	DD	0fff7f7f7H
	DD	0fff6f3f3H
	DD	0fff5f0f0H
	DD	0fff5f0f0H
	DD	0fff5f0f0H
	DD	0fff5f0f0H
	DD	0fff5f0f0H
	DD	0fff5f0f0H
	DD	0fff5f0f0H
	DD	0fff5f0f0H
	DD	0fff5f0f0H
	DD	0fff5f0f0H
	DD	0fff5f0f0H
	DD	0fff5f0f0H
	DD	0fff5f0f0H
	DD	0fff5f0f0H
	DD	0fff5f0f0H
	DD	0fff5f0f0H
	DD	0fff5f0f0H
	DD	0fff5f0f0H
	DD	0fff5f0f0H
	DD	0fff5f0f0H
	DD	0fff5f0f0H
	DD	0fff5f0f0H
	DD	0fff5f0f0H
	DD	0fff5f0f0H
	DD	0fff5f0f0H
	DD	0fff5f0f0H
	DD	0fff5f0f0H
	DD	0fff5f0f0H
	DD	0fff5f0f0H
	DD	0fff5f0f0H
	DD	0fff5f0f0H
	DD	0fff5f0f0H
	DD	0fff5f0f0H
	DD	0fff5f0f0H
	DD	0fff5f0f0H
	DD	0fff5f0f0H
	DD	0fff5f0f0H
	DD	0fff5f0f0H
	DD	0fff5f0f0H
	DD	0fff7f6f6H
	DD	0fff6f4f4H
	DD	0fff5f0f0H
	DD	0fff5f0f0H
	DD	0fff5f0f0H
	DD	0fff5f0f0H
	DD	0fff5f0f0H
	DD	0fff7f5f5H
	DD	0fff6f2f2H
	DD	0fff5f0f0H
	DD	0fff5f0f0H
	DD	0fff5f0f0H
	DD	0fff5f0f0H
	DD	0fff5f0f0H
	DD	0fff5f0f0H
	DD	0fff5f0f0H
	DD	0fff5f0f0H
	DD	0fff5f0f0H
	DD	0fff5f0f0H
	DD	0fff5f0f0H
	DD	0fff5f0f0H
	DD	0fff5f0f0H
	DD	0fff5f0f0H
	DD	0fff5f0f0H
	DD	0fff5f0f0H
	DD	0fff7f4f3H
	DD	0fff7f7f7H
	DD	0fff7f7f7H
	DD	0fff7f7f7H
	DD	0fff7f7f7H
	DD	0fff7f7f7H
	DD	0fff7f7f7H
	DD	0fff7f7f7H
	DD	0fff7f7f7H
	DD	0fff7f7f7H
	DD	0fff7f7f7H
	DD	0fff6f4f4H
	DD	0fff5f0f0H
	DD	0fff5f0f0H
	DD	0fff5f0f0H
	DD	0fff5f0f0H
	DD	0fff5f0f0H
	DD	0fff5f0f0H
	DD	0fff5f0f0H
	DD	0fff5f0f0H
	DD	0fff5f0f0H
	DD	0fff5f0f0H
	DD	0fff5f0f0H
	DD	0fff5f0f0H
	DD	0fff5f0f0H
	DD	0fff5f0f0H
	DD	0fff5f0f0H
	DD	0fff7f4f4H
	DD	0fff7f7f7H
	DD	0fff7f7f7H
	DD	0fff7f7f7H
	DD	0fff7f7f7H
	DD	0fff7f7f7H
	DD	0fff7f6f6H
	DD	0fff6f2f1H
	DD	0fff5f0f0H
	DD	0fff5f0f0H
	DD	0fff5f0f0H
	DD	0fff5f0f0H
	DD	0fff5f0f0H
	DD	0fff5f0f0H
	DD	0fff5f0f0H
	DD	0fff5f0f0H
	DD	0fff5f0f0H
	DD	0fff5f0f0H
	DD	0fff5f0f0H
	DD	0fff5f0f0H
	DD	0fff5f0f0H
	DD	0fff5f0f0H
	DD	0fff5f0f0H
	DD	0fff7f5f5H
	DD	0fff7f7f7H
	DD	0fff7f7f7H
	DD	0fffdfdfdH
	DD	0ffffffffH
	DD	0ffffffffH
	DD	0ffffffffH
	DD	0ffffffffH
	DD	0ffffffffH
	DD	0ffffffffH
	DD	0ffffffffH
	DD	0ffffffffH
	DD	0ffffffffH
	DD	0ffffffffH
	DD	0ffffffffH
	DD	0ffffffffH
	DD	0ffffffffH
	DD	0ffffffffH
	DD	0ffffffffH
	DD	0ffffffffH
	DD	0ffffffffH
	DD	0ffffffffH
	DD	0ffffffffH
	DD	0ffffffffH
	DD	0ffffffffH
	DD	0ffffffffH
	DD	0ffffffffH
	DD	0ffffffffH
	DD	0ffffffffH
	DD	0ffffffffH
	DD	0ffffffffH
	DD	0ffffffffH
	DD	0ffffffffH
	DD	0ffffffffH
	DD	0ffffffffH
	DD	0ffffffffH
	DD	0ffffffffH
	DD	0ffffffffH
	DD	0ffffffffH
	DD	0ffffffffH
	DD	0ffffffffH
	DD	0ffffffffH
	DD	0ffffffffH
	DD	0ffffffffH
	DD	0ffffffffH
	DD	0ffffffffH
	DD	0ffffffffH
	DD	0ffffffffH
	DD	0ffffffffH
	DD	0ffffffffH
	DD	0ffffffffH
	DD	0ffffffffH
	DD	0ffffffffH
	DD	0ffffffffH
	DD	0ffffffffH
	DD	0ffffffffH
	DD	0ffffffffH
	DD	0ffffffffH
	DD	0ffffffffH
	DD	0ffffffffH
	DD	0ffffffffH
	DD	0ffffffffH
	DD	0ffffffffH
	DD	0ffffffffH
	DD	0ffffffffH
	DD	0ffffffffH
	DD	0ffffffffH
	DD	0ffffffffH
	DD	0ffffffffH
	DD	0ffffffffH
	DD	0ffffffffH
	DD	0ffffffffH
	DD	0ffffffffH
	DD	0ffffffffH
	DD	0ffffffffH
	DD	0ffffffffH
	DD	0ffffffffH
	DD	0ffffffffH
	DD	0ffffffffH
	DD	0ffffffffH
	DD	0ffbbbbbbH
	DD	0ff070707H
	DD	0ff161616H
	DD	0ff161616H
	DD	0ff161616H
	DD	0ff161414H
	DD	090192425H
	DD	057203d3eH
	DD	05d1f3b3cH
	DD	05d1f3b3cH
	DD	05d1f3b3cH
	DD	05d1f3b3cH
	DD	05d1f3b3cH
	DD	05d1f3b3cH
	DD	05d1f3b3cH
	DD	05d1f3b3cH
	DD	05d1f3b3cH
	DD	05d1f3b3cH
	DD	05d1f3b3cH
	DD	05d1f3b3cH
	DD	05d1f3b3cH
	DD	05d1f3b3cH
	DD	05c1f3c3dH
	DD	0711c2c2dH
	DD	0a5140e0fH
	DD	0ef130a0aH
	DD	0ff151313H
	DD	0ff161616H
	DD	0ff161616H
	DD	0ff151414H
	DD	0b5181d1dH
	DD	0581f3b3cH
	DD	05c1f3b3cH
	DD	05d1f3b3cH
	DD	05d1f3b3cH
	DD	05d1f3b3cH
	DD	05d1f3b3cH
	DD	05d1f3b3cH
	DD	05d1f3b3cH
	DD	05d1f3b3cH
	DD	05d1f3b3cH
	DD	05d1f3b3cH
	DD	05d1f3b3cH
	DD	05d1f3b3cH
	DD	05c1f3b3cH
	DD	05d1f3b3cH
	DD	07a1a2526H
	DD	0b5130b0bH
	DD	0f7130c0cH
	DD	0ff151515H
	DD	0ff161616H
	DD	0ff161616H
	DD	0ff161616H
	DD	0ff161616H
	DD	0ff151414H
	DD	0fb130c0cH
	DD	0c3130808H
	DD	089171c1cH
	DD	0631e3738H
	DD	05b1f3c3dH
	DD	05d1f3b3cH
	DD	05d1f3b3cH
	DD	05d1f3b3cH
	DD	05d1f3b3cH
	DD	05d1f3b3cH
	DD	05d1f3b3cH
	DD	05d1f3b3cH
	DD	05d1f3b3cH
	DD	05d1f3b3cH
	DD	0591f3c3dH
	DD	0751d3536H
	DD	0ef161616H
	DD	0ff161616H
	DD	0ff161616H
	DD	0ff151414H
	DD	0f9130c0bH
	DD	0be130b0aH
	DD	088171c1cH
	DD	0601e393aH
	DD	05c1f3c3dH
	DD	05d1f3b3cH
	DD	05d1f3b3cH
	DD	05d1f3b3cH
	DD	05d1f3b3cH
	DD	05d1f3b3cH
	DD	05d1f3b3cH
	DD	05d1f3b3cH
	DD	05d1f3b3cH
	DD	05a1f3d3eH
	DD	06d1c2f30H
	DD	0af130a0aH
	DD	0ee130c0cH
	DD	0ff161515H
	DD	0ff161616H
	DD	0ff161616H
	DD	0ff161616H
	DD	0ff161616H
	DD	0ff161616H
	DD	0ff161616H
	DD	0ff161616H
	DD	0ff161616H
	DD	0ff161616H
	DD	0ff161616H
	DD	0ff161616H
	DD	0ff161616H
	DD	0ff161616H
	DD	0ff161616H
	DD	0ff140f0fH
	DD	0d5130808H
	DD	097151313H
	DD	0691d3333H
	DD	05b1f3c3dH
	DD	05d1f3b3cH
	DD	05d1f3b3cH
	DD	05d1f3b3cH
	DD	05d1f3b3cH
	DD	05d1f3b3cH
	DD	05d1f3b3cH
	DD	05d1f3b3cH
	DD	05d1f3b3cH
	DD	05d1f3b3cH
	DD	05d1f3b3cH
	DD	05d1f3b3cH
	DD	05d1f3b3cH
	DD	05d1f3b3cH
	DD	057203d3eH
	DD	0ac181f1fH
	DD	0ff161515H
	DD	0ff161616H
	DD	0ff161616H
	DD	0ff140f0fH
	DD	0e1130909H
	DD	0a2140f0fH
	DD	06e1c2e2fH
	DD	05c1f3c3dH
	DD	05d1f3b3cH
	DD	05d1f3b3cH
	DD	05d1f3b3cH
	DD	05d1f3b3cH
	DD	05d1f3b3cH
	DD	05d1f3b3cH
	DD	05d1f3b3cH
	DD	05d1f3b3cH
	DD	05c1f3c3dH
	DD	05f1f393bH
	DD	08b171b1bH
	DD	0d0130908H
	DD	0ff141111H
	DD	0ff161717H
	DD	0f9161515H
	DD	0831b2a2aH
	DD	0581f3d3eH
	DD	05d1f3b3cH
	DD	05d1f3b3cH
	DD	05d1f3b3cH
	DD	05d1f3b3cH
	DD	05d1f3b3cH
	DD	05d1f3b3cH
	DD	05d1f3b3cH
	DD	05d1f3b3cH
	DD	05d1f3b3cH
	DD	05d1f3b3cH
	DD	05d1f3b3cH
	DD	05d1f3b3cH
	DD	05d1f3b3cH
	DD	05d1f3b3cH
	DD	05d1f3b3cH
	DD	05d1f3b3cH
	DD	05d1f3b3cH
	DD	05d1f3b3cH
	DD	05d1f3b3cH
	DD	05d1f3b3cH
	DD	05d1f3b3cH
	DD	05d1f3b3cH
	DD	05d1f3b3cH
	DD	05d1f3b3cH
	DD	05d1f3b3cH
	DD	05d1f3b3cH
	DD	05d1f3b3cH
	DD	05d1f3b3cH
	DD	05d1f3b3cH
	DD	05d1f3b3cH
	DD	05d1f3b3cH
	DD	05d1f3b3cH
	DD	05d1f3b3cH
	DD	05d1f3b3cH
	DD	05d1f3b3cH
	DD	05d1f3b3cH
	DD	05d1f3b3cH
	DD	056203f40H
	DD	0af181f1fH
	DD	096192424H
	DD	056203e3fH
	DD	05d1f3b3cH
	DD	05d1f3b3cH
	DD	05c1f3b3cH
	DD	05c1f3b3cH
	DD	0b0192121H
	DD	07e1c2d2eH
	DD	0591f3d3eH
	DD	05d1f3b3cH
	DD	05d1f3b3cH
	DD	05d1f3b3cH
	DD	05d1f3b3cH
	DD	05d1f3b3cH
	DD	05d1f3b3cH
	DD	05d1f3b3cH
	DD	05d1f3b3cH
	DD	05d1f3b3cH
	DD	05d1f3b3cH
	DD	05d1f3b3cH
	DD	05d1f3b3cH
	DD	05d1f3b3cH
	DD	05c1f3c3dH
	DD	05f1f3a3bH
	DD	07f192222H
	DD	0b8130b0aH
	DD	0f9130d0cH
	DD	0ff161515H
	DD	0ff161616H
	DD	0ff161616H
	DD	0ff161616H
	DD	0ff161616H
	DD	0ff151313H
	DD	0f4130c0bH
	DD	0be130a09H
	DD	083181f1fH
	DD	0601f393aH
	DD	05c1f3c3dH
	DD	05d1f3b3cH
	DD	05d1f3b3cH
	DD	05d1f3b3cH
	DD	05d1f3b3cH
	DD	05d1f3b3cH
	DD	05d1f3b3cH
	DD	05d1f3b3cH
	DD	05d1f3b3cH
	DD	05d1f3b3cH
	DD	05d1f3b3cH
	DD	05d1f3b3cH
	DD	05d1f3b3cH
	DD	056203e3eH
	DD	09e1b2929H
	DD	0ff151313H
	DD	0ff161616H
	DD	0ff161616H
	DD	0ff140f0fH
	DD	0d6130808H
	DD	099151212H
	DD	06b1d3132H
	DD	05b1f3c3dH
	DD	05d1f3b3cH
	DD	05d1f3b3cH
	DD	05d1f3b3cH
	DD	05d1f3b3cH
	DD	05d1f3b3cH
	DD	05d1f3b3cH
	DD	05d1f3b3cH
	DD	05d1f3b3cH
	DD	05d1f3b3cH
	DD	05d1f3b3cH
	DD	05d1f3b3cH
	DD	05d1f3b3cH
	DD	05c1f3b3cH
	DD	057203d3eH
	DD	0bb192121H
	DD	0ff151414H
	DD	0ff070707H
	DD	0ffbbbbbbH
	DD	0ffffffffH
	DD	0ffffffffH
	DD	0ffffffffH
	DD	0ffffffffH
	DD	0ffffffffH
	DD	0ffffffffH
	DD	0ffffffffH
	DD	0ffffffffH
	DD	0ffffffffH
	DD	0ffffffffH
	DD	0ffffffffH
	DD	0ffffffffH
	DD	0ffffffffH
	DD	0ffffffffH
	DD	0ffffffffH
	DD	0ffffffffH
	DD	0ffffffffH
	DD	0ffffffffH
	DD	0ffffffffH
	DD	0ffffffffH
	DD	0ffffffffH
	DD	0ffffffffH
	DD	0ffffffffH
	DD	0ffffffffH
	DD	0ffffffffH
	DD	0ffffffffH
	DD	0ffffffffH
	DD	0ffffffffH
	DD	0ffffffffH
	DD	0ffffffffH
	DD	0ffffffffH
	DD	0ffffffffH
	DD	0ffffffffH
	DD	0ffffffffH
	DD	0ffffffffH
	DD	0ffffffffH
	DD	0ffffffffH
	DD	0ffffffffH
	DD	0ffffffffH
	DD	0ffffffffH
	DD	0ffffffffH
	DD	0ffffffffH
	DD	0ffffffffH
	DD	0ffffffffH
	DD	0ffffffffH
	DD	0ffffffffH
	DD	0ffffffffH
	DD	0ffffffffH
	DD	0ffffffffH
	DD	0ffffffffH
	DD	0ffffffffH
	DD	0ffffffffH
	DD	0ffffffffH
	DD	0ffffffffH
	DD	0ffffffffH
	DD	0ffffffffH
	DD	0ffffffffH
	DD	0ffffffffH
	DD	0ffffffffH
	DD	0ffffffffH
	DD	0ffffffffH
	DD	0ffffffffH
	DD	0ffffffffH
	DD	0ffffffffH
	DD	0ffffffffH
	DD	0ffffffffH
	DD	0ffffffffH
	DD	0ffffffffH
	DD	0ffffffffH
	DD	0ffffffffH
	DD	0ffffffffH
	DD	0ffffffffH
	DD	0ffffffffH
	DD	0ffffffffH
	DD	0ffffffffH
	DD	0ffffffffH
	DD	0ffb5b5b5H
	DD	0ff000000H
	DD	0ff000000H
	DD	0ff000000H
	DD	0ff000000H
	DD	0d4000000H
	DD	0f197073H
	DD	038edf2H
	DD	035e1e6H
	DD	035e1e6H
	DD	035e1e6H
	DD	035e1e6H
	DD	035e1e6H
	DD	035e1e6H
	DD	035e1e6H
	DD	035e1e6H
	DD	035e1e6H
	DD	035e1e6H
	DD	035e1e6H
	DD	035e1e6H
	DD	035e1e6H
	DD	035e1e6H
	DD	035e2e6H
	DD	033d9deH
	DD	02ab6baH
	DD	025104d4fH
	DD	0a6000303H
	DD	0ff000000H
	DD	0ff000000H
	DD	0fc000000H
	DD	0260f4243H
	DD	038eef3H
	DD	035e1e6H
	DD	035e1e6H
	DD	035e1e6H
	DD	035e1e6H
	DD	035e1e6H
	DD	035e1e6H
	DD	035e1e6H
	DD	035e1e6H
	DD	035e1e6H
	DD	035e1e6H
	DD	035e1e6H
	DD	035e1e6H
	DD	035e1e6H
	DD	035e1e6H
	DD	032d6daH
	DD	0126a6a9H
	DD	0360b393aH
	DD	0c3000000H
	DD	0ff000000H
	DD	0ff000000H
	DD	0ff000000H
	DD	0fb000000H
	DD	0aa000000H
	DD	039093536H
	DD	04229598H
	DD	030cbcfH
	DD	035dee4H
	DD	035e2e7H
	DD	035e1e6H
	DD	035e1e6H
	DD	035e1e6H
	DD	035e1e6H
	DD	035e1e6H
	DD	035e1e6H
	DD	035e1e6H
	DD	035e1e6H
	DD	035e1e6H
	DD	038ecf1H
	DD	081e8385H
	DD	0bf000000H
	DD	0ff000000H
	DD	0fa000000H
	DD	0a9000101H
	DD	0320a3738H
	DD	0323999cH
	DD	030cdd2H
	DD	035e0e4H
	DD	035e2e7H
	DD	035e1e6H
	DD	035e1e6H
	DD	035e1e6H
	DD	035e1e6H
	DD	035e1e6H
	DD	035e1e6H
	DD	035e1e6H
	DD	035e1e6H
	DD	035e2e7H
	DD	033dbdfH
	DD	028afb3H
	DD	0250c3e3fH
	DD	0b9000000H
	DD	0ff000000H
	DD	0ff000000H
	DD	0ff000000H
	DD	0ff000000H
	DD	0ff000000H
	DD	0ff000000H
	DD	0ff000000H
	DD	0ff000000H
	DD	0ff000000H
	DD	0ff000000H
	DD	0ff000000H
	DD	0ff000000H
	DD	0ff000000H
	DD	0df000000H
	DD	059031717H
	DD	0c1b7b7dH
	DD	02ec3c8H
	DD	034dce1H
	DD	035e2e7H
	DD	035e1e6H
	DD	035e1e6H
	DD	035e1e6H
	DD	035e1e6H
	DD	035e1e6H
	DD	035e1e6H
	DD	035e1e6H
	DD	035e1e6H
	DD	035e1e6H
	DD	035e1e6H
	DD	035e1e6H
	DD	035e1e6H
	DD	035e2e7H
	DD	034dee3H
	DD	046061b1bH
	DD	0ff000000H
	DD	0ff000000H
	DD	0dc000000H
	DD	066031415H
	DD	01517696cH
	DD	02ab9bdH
	DD	033dadeH
	DD	035e2e7H
	DD	035e1e6H
	DD	035e1e6H
	DD	035e1e6H
	DD	035e1e6H
	DD	035e1e6H
	DD	035e1e6H
	DD	035e1e6H
	DD	035e1e6H
	DD	035e2e7H
	DD	035e1e6H
	DD	030cbd0H
	DD	081b7c7fH
	DD	07e011010H
	DD	0ff000000H
	DD	0b9000000H
	DD	03229396H
	DD	037eaf0H
	DD	035e1e6H
	DD	035e1e6H
	DD	035e1e6H
	DD	035e1e6H
	DD	035e1e6H
	DD	035e1e6H
	DD	035e1e6H
	DD	035e1e6H
	DD	035e1e6H
	DD	035e1e6H
	DD	035e1e6H
	DD	035e1e6H
	DD	035e1e6H
	DD	035e1e6H
	DD	035e1e6H
	DD	035e1e6H
	DD	035e1e6H
	DD	035e1e6H
	DD	035e1e6H
	DD	035e1e6H
	DD	035e1e6H
	DD	035e1e6H
	DD	035e1e6H
	DD	035e1e6H
	DD	035e1e6H
	DD	035e1e6H
	DD	035e1e6H
	DD	035e1e6H
	DD	035e1e6H
	DD	035e1e6H
	DD	035e1e6H
	DD	035e1e6H
	DD	035e1e6H
	DD	035e1e6H
	DD	035e1e6H
	DD	035e1e6H
	DD	035e3e8H
	DD	036e5e9H
	DD	0210b3132H
	DD	0a1c7d80H
	DD	038eef3H
	DD	035e1e6H
	DD	035e1e6H
	DD	036e6ebH
	DD	031d1d5H
	DD	015041919H
	DD	0829b1b4H
	DD	037e8eeH
	DD	035e1e6H
	DD	035e1e6H
	DD	035e1e6H
	DD	035e1e6H
	DD	035e1e6H
	DD	035e1e6H
	DD	035e1e6H
	DD	035e1e6H
	DD	035e1e6H
	DD	035e1e6H
	DD	035e1e6H
	DD	035e1e6H
	DD	035e1e6H
	DD	035e1e6H
	DD	035e0e5H
	DD	031d2d7H
	DD	0124a0a3H
	DD	03e082d2eH
	DD	0bf000000H
	DD	0ff000000H
	DD	0ff000000H
	DD	0ff000000H
	DD	0ff000000H
	DD	09e000000H
	DD	0300c3e40H
	DD	03239a9eH
	DD	031d1d5H
	DD	035e0e4H
	DD	035e1e6H
	DD	035e1e6H
	DD	035e1e6H
	DD	035e1e6H
	DD	035e1e6H
	DD	035e1e6H
	DD	035e1e6H
	DD	035e1e6H
	DD	035e1e6H
	DD	035e1e6H
	DD	035e1e6H
	DD	035e1e6H
	DD	035e3e8H
	DD	036e5eaH
	DD	028135254H
	DD	0eb000000H
	DD	0ff000000H
	DD	0db000000H
	DD	068021313H
	DD	0c1a777aH
	DD	02dc2c6H
	DD	034dbe0H
	DD	035e2e7H
	DD	035e1e6H
	DD	035e1e6H
	DD	035e1e6H
	DD	035e1e6H
	DD	035e1e6H
	DD	035e1e6H
	DD	035e1e6H
	DD	035e1e6H
	DD	035e1e6H
	DD	035e1e6H
	DD	035e1e6H
	DD	035e1e6H
	DD	036e4eaH
	DD	033dadfH
	DD	04e0a2c2dH
	DD	0ff000000H
	DD	0ff000000H
	DD	0ffb5b5b5H
	DD	0ffffffffH
	DD	0ffffffffH
	DD	0ffffffffH
	DD	0ffffffffH
	DD	0ffffffffH
	DD	0ffffffffH
	DD	0ffffffffH
	DD	0ffffffffH
	DD	0ffffffffH
	DD	0ffffffffH
	DD	0ffffffffH
	DD	0ffffffffH
	DD	0ffffffffH
	DD	0ffffffffH
	DD	0ffffffffH
	DD	0ffffffffH
	DD	0ffffffffH
	DD	0ffffffffH
	DD	0ffffffffH
	DD	0ffffffffH
	DD	0ffffffffH
	DD	0ffffffffH
	DD	0ffffffffH
	DD	0ffffffffH
	DD	0ffffffffH
	DD	0ffffffffH
	DD	0ffffffffH
	DD	0ffffffffH
	DD	0ffffffffH
	DD	0ffffffffH
	DD	0ffffffffH
	DD	0ffffffffH
	DD	0ffffffffH
	DD	0ffffffffH
	DD	0ffffffffH
	DD	0ffffffffH
	DD	0ffffffffH
	DD	0ffffffffH
	DD	0ffffffffH
	DD	0ffffffffH
	DD	0ffffffffH
	DD	0ffffffffH
	DD	0ffffffffH
	DD	0ffffffffH
	DD	0ffffffffH
	DD	0ffffffffH
	DD	0ffffffffH
	DD	0ffffffffH
	DD	0ffffffffH
	DD	0ffffffffH
	DD	0ffffffffH
	DD	0ffffffffH
	DD	0ffffffffH
	DD	0ffffffffH
	DD	0ffffffffH
	DD	0ffffffffH
	DD	0ffffffffH
	DD	0ffffffffH
	DD	0ffffffffH
	DD	0ffffffffH
	DD	0ffffffffH
	DD	0ffffffffH
	DD	0ffffffffH
	DD	0ffffffffH
	DD	0ffffffffH
	DD	0ffffffffH
	DD	0ffffffffH
	DD	0ffffffffH
	DD	0ffffffffH
	DD	0ffffffffH
	DD	0ffffffffH
	DD	0ffffffffH
	DD	0ffffffffH
	DD	0ffffffffH
	DD	0ffffffffH
	DD	0ffffffffH
	DD	0ffb5b5b5H
	DD	0ff000000H
	DD	0ff000000H
	DD	0ff000000H
	DD	0ff000000H
	DD	0a1000000H
	DD	02eb6b8H
	DD	042ffffH
	DD	040ffffH
	DD	040ffffH
	DD	040ffffH
	DD	040ffffH
	DD	040ffffH
	DD	040ffffH
	DD	040ffffH
	DD	040ffffH
	DD	040ffffH
	DD	040ffffH
	DD	040ffffH
	DD	040ffffH
	DD	040ffffH
	DD	040ffffH
	DD	040ffffH
	DD	041ffffH
	DD	042ffffH
	DD	042ffffH
	DD	09279a9dH
	DD	095010404H
	DD	0ff000000H
	DD	0d2000000H
	DD	0e207f80H
	DD	044ffffH
	DD	040ffffH
	DD	040ffffH
	DD	040ffffH
	DD	040ffffH
	DD	040ffffH
	DD	040ffffH
	DD	040ffffH
	DD	040ffffH
	DD	040ffffH
	DD	040ffffH
	DD	040ffffH
	DD	040ffffH
	DD	040ffffH
	DD	040ffffH
	DD	041ffffH
	DD	043ffffH
	DD	040fcfeH
	DD	01b1d7376H
	DD	0ba000000H
	DD	0ff000000H
	DD	0f4000000H
	DD	066061718H
	DD	0289da1H
	DD	040fbfdH
	DD	043ffffH
	DD	041ffffH
	DD	040ffffH
	DD	040ffffH
	DD	040ffffH
	DD	040ffffH
	DD	040ffffH
	DD	040ffffH
	DD	040ffffH
	DD	040ffffH
	DD	040ffffH
	DD	040ffffH
	DD	040ffffH
	DD	044ffffH
	DD	011185e5eH
	DD	0c6000000H
	DD	0e2000000H
	DD	051081f1fH
	DD	02aa6a9H
	DD	041fdffH
	DD	043ffffH
	DD	042ffffH
	DD	040ffffH
	DD	040ffffH
	DD	040ffffH
	DD	040ffffH
	DD	040ffffH
	DD	040ffffH
	DD	040ffffH
	DD	040ffffH
	DD	040ffffH
	DD	040ffffH
	DD	040ffffH
	DD	041ffffH
	DD	043ffffH
	DD	040fafdH
	DD	010196263H
	DD	0b8000000H
	DD	0ff000000H
	DD	0ff000000H
	DD	0ff000000H
	DD	0ff000000H
	DD	0ff000000H
	DD	0ff000000H
	DD	0ff000000H
	DD	0ff000000H
	DD	0ff000000H
	DD	0ff000000H
	DD	0ff000000H
	DD	0a4000000H
	DD	014185e5fH
	DD	03ae6eaH
	DD	043ffffH
	DD	042ffffH
	DD	041ffffH
	DD	040ffffH
	DD	040ffffH
	DD	040ffffH
	DD	040ffffH
	DD	040ffffH
	DD	040ffffH
	DD	040ffffH
	DD	040ffffH
	DD	040ffffH
	DD	040ffffH
	DD	040ffffH
	DD	040ffffH
	DD	040ffffH
	DD	042ffffH
	DD	035d3d4H
	DD	063040f0fH
	DD	0eb000000H
	DD	0ab000000H
	DD	022185d5eH
	DD	039e0e4H
	DD	042ffffH
	DD	042ffffH
	DD	041ffffH
	DD	040ffffH
	DD	040ffffH
	DD	040ffffH
	DD	040ffffH
	DD	040ffffH
	DD	040ffffH
	DD	040ffffH
	DD	040ffffH
	DD	040ffffH
	DD	040ffffH
	DD	040ffffH
	DD	042ffffH
	DD	043ffffH
	DD	031c1c5H
	DD	084051212H
	DD	085000000H
	DD	036d6d9H
	DD	042ffffH
	DD	040ffffH
	DD	040ffffH
	DD	040ffffH
	DD	040ffffH
	DD	040ffffH
	DD	040ffffH
	DD	040ffffH
	DD	040ffffH
	DD	040ffffH
	DD	040ffffH
	DD	040ffffH
	DD	040ffffH
	DD	040ffffH
	DD	040ffffH
	DD	040ffffH
	DD	040ffffH
	DD	040ffffH
	DD	040ffffH
	DD	040ffffH
	DD	040ffffH
	DD	040ffffH
	DD	040ffffH
	DD	040ffffH
	DD	040ffffH
	DD	040ffffH
	DD	040ffffH
	DD	040ffffH
	DD	040ffffH
	DD	040ffffH
	DD	040ffffH
	DD	040ffffH
	DD	040ffffH
	DD	040ffffH
	DD	040ffffH
	DD	040ffffH
	DD	040ffffH
	DD	042ffffH
	DD	039e2e3H
	DD	0250b2b2cH
	DD	0330bfc0H
	DD	042ffffH
	DD	040ffffH
	DD	040ffffH
	DD	042ffffH
	DD	0335d2d5H
	DD	07061a1bH
	DD	03be8e8H
	DD	041ffffH
	DD	040ffffH
	DD	040ffffH
	DD	040ffffH
	DD	040ffffH
	DD	040ffffH
	DD	040ffffH
	DD	040ffffH
	DD	040ffffH
	DD	040ffffH
	DD	040ffffH
	DD	040ffffH
	DD	040ffffH
	DD	040ffffH
	DD	040ffffH
	DD	040ffffH
	DD	041ffffH
	DD	043ffffH
	DD	03ff6faH
	DD	011196264H
	DD	0b4000000H
	DD	0ff000000H
	DD	0e0000000H
	DD	047092122H
	DD	012caeb2H
	DD	041ffffH
	DD	042ffffH
	DD	041ffffH
	DD	040ffffH
	DD	040ffffH
	DD	040ffffH
	DD	040ffffH
	DD	040ffffH
	DD	040ffffH
	DD	040ffffH
	DD	040ffffH
	DD	040ffffH
	DD	040ffffH
	DD	040ffffH
	DD	040ffffH
	DD	040ffffH
	DD	041ffffH
	DD	03df2f3H
	DD	0380c3132H
	DD	0e0000000H
	DD	0b2000000H
	DD	015155557H
	DD	038dee1H
	DD	043ffffH
	DD	042ffffH
	DD	041ffffH
	DD	040ffffH
	DD	040ffffH
	DD	040ffffH
	DD	040ffffH
	DD	040ffffH
	DD	040ffffH
	DD	040ffffH
	DD	040ffffH
	DD	040ffffH
	DD	040ffffH
	DD	040ffffH
	DD	040ffffH
	DD	040ffffH
	DD	042ffffH
	DD	037d8d9H
	DD	05b051213H
	DD	0e4000000H
	DD	0fa000000H
	DD	0ffb5b5b5H
	DD	0ffffffffH
	DD	0ffffffffH
	DD	0ffffffffH
	DD	0ffffffffH
	DD	0ffffffffH
	DD	0ffffffffH
	DD	0ffffffffH
	DD	0ffffffffH
	DD	0ffffffffH
	DD	0ffffffffH
	DD	0ffffffffH
	DD	0ffffffffH
	DD	0ffffffffH
	DD	0ffffffffH
	DD	0ffffffffH
	DD	0ffffffffH
	DD	0ffffffffH
	DD	0ffffffffH
	DD	0ffffffffH
	DD	0ffffffffH
	DD	0ffffffffH
	DD	0ffffffffH
	DD	0ffffffffH
	DD	0ffffffffH
	DD	0ffffffffH
	DD	0ffffffffH
	DD	0ffffffffH
	DD	0ffffffffH
	DD	0ffffffffH
	DD	0ffffffffH
	DD	0ffffffffH
	DD	0ffffffffH
	DD	0ffffffffH
	DD	0ffffffffH
	DD	0ffffffffH
	DD	0ffffffffH
	DD	0ffffffffH
	DD	0ffffffffH
	DD	0ffffffffH
	DD	0ffffffffH
	DD	0ffffffffH
	DD	0ffffffffH
	DD	0ffffffffH
	DD	0ffffffffH
	DD	0ffffffffH
	DD	0ffffffffH
	DD	0ffffffffH
	DD	0ffffffffH
	DD	0ffffffffH
	DD	0ffffffffH
	DD	0ffffffffH
	DD	0ffffffffH
	DD	0ffffffffH
	DD	0ffffffffH
	DD	0ffffffffH
	DD	0ffffffffH
	DD	0ffffffffH
	DD	0ffffffffH
	DD	0ffffffffH
	DD	0ffffffffH
	DD	0ffffffffH
	DD	0ffffffffH
	DD	0ffffffffH
	DD	0ffffffffH
	DD	0ffffffffH
	DD	0ffffffffH
	DD	0ffffffffH
	DD	0ffffffffH
	DD	0ffffffffH
	DD	0ffffffffH
	DD	0ffffffffH
	DD	0ffffffffH
	DD	0ffffffffH
	DD	0ffffffffH
	DD	0ffffffffH
	DD	0ffffffffH
	DD	0ffb5b5b5H
	DD	0ff000000H
	DD	0ff000000H
	DD	0ff000000H
	DD	0ff000000H
	DD	075020909H
	DD	038dfe3H
	DD	041ffffH
	DD	03ffaffH
	DD	03ffaffH
	DD	03ffaffH
	DD	03ffaffH
	DD	03ffaffH
	DD	03ffaffH
	DD	03ffaffH
	DD	03ffaffH
	DD	03ffaffH
	DD	03ffaffH
	DD	03ffaffH
	DD	03ffaffH
	DD	03ffaffH
	DD	03ffaffH
	DD	03ffaffH
	DD	03ffaffH
	DD	03ffaffH
	DD	03ffbffH
	DD	043ffffH
	DD	0a1f7d7fH
	DD	0d4000000H
	DD	0ad000000H
	DD	02db1b5H
	DD	041ffffH
	DD	03ffaffH
	DD	03ffaffH
	DD	03ffaffH
	DD	03ffaffH
	DD	03ffaffH
	DD	03ffaffH
	DD	03ffaffH
	DD	03ffaffH
	DD	03ffaffH
	DD	03ffaffH
	DD	03ffaffH
	DD	03ffaffH
	DD	03ffaffH
	DD	03ffaffH
	DD	03ffaffH
	DD	03ffaffH
	DD	040feffH
	DD	040fefeH
	DD	027145254H
	DD	0d6000000H
	DD	05e0b2c2dH
	DD	035d0d4H
	DD	043ffffH
	DD	040fcffH
	DD	03ffaffH
	DD	03ffaffH
	DD	03ffaffH
	DD	03ffaffH
	DD	03ffaffH
	DD	03ffaffH
	DD	03ffaffH
	DD	03ffaffH
	DD	03ffaffH
	DD	03ffaffH
	DD	03ffaffH
	DD	03ffaffH
	DD	040fdffH
	DD	03ff8fdH
	DD	01d0e3738H
	DD	097000000H
	DD	03a0c3031H
	DD	036d8dcH
	DD	043ffffH
	DD	03ffbffH
	DD	03ffaffH
	DD	03ffaffH
	DD	03ffaffH
	DD	03ffaffH
	DD	03ffaffH
	DD	03ffaffH
	DD	03ffaffH
	DD	03ffaffH
	DD	03ffaffH
	DD	03ffaffH
	DD	03ffaffH
	DD	03ffaffH
	DD	03ffaffH
	DD	03ffaffH
	DD	03ffaffH
	DD	040feffH
	DD	03ef3f5H
	DD	0300e383aH
	DD	0f3000000H
	DD	0ff000000H
	DD	0ff000000H
	DD	0ff000000H
	DD	0ff000000H
	DD	0ff000000H
	DD	0ff000000H
	DD	0ff000000H
	DD	0ff000000H
	DD	0ff000000H
	DD	0a5000000H
	DD	051c6d6fH
	DD	041fdfeH
	DD	041ffffH
	DD	03ffaffH
	DD	03ffaffH
	DD	03ffaffH
	DD	03ffaffH
	DD	03ffaffH
	DD	03ffaffH
	DD	03ffaffH
	DD	03ffaffH
	DD	03ffaffH
	DD	03ffaffH
	DD	03ffaffH
	DD	03ffaffH
	DD	03ffaffH
	DD	03ffaffH
	DD	03ffaffH
	DD	03ffaffH
	DD	042ffffH
	DD	029a2a4H
	DD	064000000H
	DD	06c000101H
	DD	0238b8dH
	DD	040fcffH
	DD	041ffffH
	DD	03ffaffH
	DD	03ffaffH
	DD	03ffaffH
	DD	03ffaffH
	DD	03ffaffH
	DD	03ffaffH
	DD	03ffaffH
	DD	03ffaffH
	DD	03ffaffH
	DD	03ffaffH
	DD	03ffaffH
	DD	03ffaffH
	DD	03ffaffH
	DD	03ffaffH
	DD	03ffaffH
	DD	03ffaffH
	DD	043ffffH
	DD	0e279c9dH
	DD	025092223H
	DD	03cebeeH
	DD	040ffffH
	DD	03ffaffH
	DD	03ffaffH
	DD	03ffaffH
	DD	03ffaffH
	DD	03ffaffH
	DD	03ffaffH
	DD	03ffaffH
	DD	03ffaffH
	DD	03ffaffH
	DD	03ffaffH
	DD	03ffaffH
	DD	03ffaffH
	DD	03ffaffH
	DD	03ffaffH
	DD	03ffaffH
	DD	03ffaffH
	DD	03ffaffH
	DD	03ffaffH
	DD	03ffaffH
	DD	03ffaffH
	DD	03ffaffH
	DD	03ffaffH
	DD	03ffaffH
	DD	03ffaffH
	DD	03ffaffH
	DD	03ffaffH
	DD	03ffaffH
	DD	03ffaffH
	DD	03ffaffH
	DD	03ffaffH
	DD	03ffaffH
	DD	03ffaffH
	DD	03ffaffH
	DD	03ffaffH
	DD	03ffaffH
	DD	03ffaffH
	DD	042ffffH
	DD	02fbbbcH
	DD	0a061718H
	DD	013beaefH
	DD	040fdffH
	DD	03ffaffH
	DD	03ffaffH
	DD	042ffffH
	DD	0726979aH
	DD	011114445H
	DD	03ef7fcH
	DD	040fdffH
	DD	03ffaffH
	DD	03ffaffH
	DD	03ffaffH
	DD	03ffaffH
	DD	03ffaffH
	DD	03ffaffH
	DD	03ffaffH
	DD	03ffaffH
	DD	03ffaffH
	DD	03ffaffH
	DD	03ffaffH
	DD	03ffaffH
	DD	03ffaffH
	DD	03ffaffH
	DD	03ffaffH
	DD	03ffaffH
	DD	03ffaffH
	DD	041feffH
	DD	03ff8f9H
	DD	0320f3e3fH
	DD	0ca000000H
	DD	02d0e393aH
	DD	038dcdfH
	DD	043ffffH
	DD	040fbffH
	DD	03ffaffH
	DD	03ffaffH
	DD	03ffaffH
	DD	03ffaffH
	DD	03ffaffH
	DD	03ffaffH
	DD	03ffaffH
	DD	03ffaffH
	DD	03ffaffH
	DD	03ffaffH
	DD	03ffaffH
	DD	03ffaffH
	DD	03ffaffH
	DD	03ffaffH
	DD	03ffaffH
	DD	041ffffH
	DD	037dadeH
	DD	042020808H
	DD	082000000H
	DD	010196365H
	DD	040fafcH
	DD	041ffffH
	DD	03ffaffH
	DD	03ffaffH
	DD	03ffaffH
	DD	03ffaffH
	DD	03ffaffH
	DD	03ffaffH
	DD	03ffaffH
	DD	03ffaffH
	DD	03ffaffH
	DD	03ffaffH
	DD	03ffaffH
	DD	03ffaffH
	DD	03ffaffH
	DD	03ffaffH
	DD	03ffaffH
	DD	03ffaffH
	DD	042ffffH
	DD	02db4b7H
	DD	057000000H
	DD	0c6000000H
	DD	0f8000000H
	DD	0ffb5b5b5H
	DD	0ffffffffH
	DD	0ffffffffH
	DD	0ffffffffH
	DD	0ffffffffH
	DD	0ffffffffH
	DD	0ffffffffH
	DD	0ffffffffH
	DD	0ffffffffH
	DD	0ffffffffH
	DD	0ffffffffH
	DD	0ffffffffH
	DD	0ffffffffH
	DD	0ffffffffH
	DD	0ffffffffH
	DD	0ffffffffH
	DD	0ffffffffH
	DD	0ffffffffH
	DD	0ffffffffH
	DD	0ffffffffH
	DD	0ffffffffH
	DD	0ffffffffH
	DD	0ffffffffH
	DD	0ffffffffH
	DD	0ffffffffH
	DD	0ffffffffH
	DD	0ffffffffH
	DD	0ffffffffH
	DD	0ffffffffH
	DD	0ffffffffH
	DD	0ffffffffH
	DD	0ffffffffH
	DD	0ffffffffH
	DD	0ffffffffH
	DD	0ffffffffH
	DD	0ffffffffH
	DD	0ffffffffH
	DD	0ffffffffH
	DD	0ffffffffH
	DD	0ffffffffH
	DD	0ffffffffH
	DD	0ffffffffH
	DD	0ffffffffH
	DD	0ffffffffH
	DD	0ffffffffH
	DD	0ffffffffH
	DD	0ffffffffH
	DD	0ffffffffH
	DD	0ffffffffH
	DD	0ffffffffH
	DD	0ffffffffH
	DD	0ffffffffH
	DD	0ffffffffH
	DD	0ffffffffH
	DD	0ffffffffH
	DD	0ffffffffH
	DD	0ffffffffH
	DD	0ffffffffH
	DD	0ffffffffH
	DD	0ffffffffH
	DD	0ffffffffH
	DD	0ffffffffH
	DD	0ffffffffH
	DD	0ffffffffH
	DD	0ffffffffH
	DD	0ffffffffH
	DD	0ffffffffH
	DD	0ffffffffH
	DD	0ffffffffH
	DD	0ffffffffH
	DD	0ffffffffH
	DD	0ffffffffH
	DD	0ffffffffH
	DD	0ffffffffH
	DD	0ffffffffH
	DD	0ffffffffH
	DD	0ffffffffH
	DD	0ffb5b5b5H
	DD	0ff000000H
	DD	0ff000000H
	DD	0ff000000H
	DD	0fa000000H
	DD	0450e393aH
	DD	03df2f6H
	DD	040feffH
	DD	03ffaffH
	DD	03ffaffH
	DD	03ffaffH
	DD	041ffffH
	DD	041ffffH
	DD	041ffffH
	DD	041ffffH
	DD	041ffffH
	DD	041ffffH
	DD	041ffffH
	DD	041ffffH
	DD	041ffffH
	DD	041ffffH
	DD	040feffH
	DD	03ffaffH
	DD	03ffaffH
	DD	03ffaffH
	DD	03ffaffH
	DD	041ffffH
	DD	038dbdcH
	DD	06d051414H
	DD	072010404H
	DD	03ae3e3H
	DD	043ffffH
	DD	041ffffH
	DD	041ffffH
	DD	041ffffH
	DD	041ffffH
	DD	041ffffH
	DD	041ffffH
	DD	041ffffH
	DD	041ffffH
	DD	041ffffH
	DD	041ffffH
	DD	041ffffH
	DD	041ffffH
	DD	041feffH
	DD	03ffaffH
	DD	03ffaffH
	DD	03ffaffH
	DD	03ffaffH
	DD	042ffffH
	DD	042eb3b3H
	DD	03a06191aH
	DD	0134ced0H
	DD	043ffffH
	DD	03ffaffH
	DD	03ffaffH
	DD	03ffaffH
	DD	040fcffH
	DD	041ffffH
	DD	041ffffH
	DD	041ffffH
	DD	041ffffH
	DD	041ffffH
	DD	041ffffH
	DD	041ffffH
	DD	041ffffH
	DD	041ffffH
	DD	041ffffH
	DD	043ffffH
	DD	038dbdcH
	DD	02e041112H
	DD	031061717H
	DD	036d3d5H
	DD	042ffffH
	DD	03ffaffH
	DD	03ffaffH
	DD	03ffaffH
	DD	040feffH
	DD	041ffffH
	DD	041ffffH
	DD	041ffffH
	DD	041ffffH
	DD	041ffffH
	DD	041ffffH
	DD	041ffffH
	DD	041ffffH
	DD	041ffffH
	DD	040fdffH
	DD	03ffaffH
	DD	03ffaffH
	DD	03ffaffH
	DD	03ffaffH
	DD	043ffffH
	DD	0289ea0H
	DD	0a7000000H
	DD	0ff000000H
	DD	0ff000000H
	DD	0ff000000H
	DD	0ff000000H
	DD	0ff000000H
	DD	0ff000000H
	DD	0ff000000H
	DD	0ff000000H
	DD	0e2000000H
	DD	01f17595bH
	DD	041ffffH
	DD	040ffffH
	DD	03ffaffH
	DD	03ffaffH
	DD	03ffbffH
	DD	041ffffH
	DD	041ffffH
	DD	041ffffH
	DD	041ffffH
	DD	041ffffH
	DD	041ffffH
	DD	041ffffH
	DD	041ffffH
	DD	041ffffH
	DD	041ffffH
	DD	041ffffH
	DD	041ffffH
	DD	041ffffH
	DD	041ffffH
	DD	045ffffH
	DD	041e7679H
	DD	04d000000H
	DD	0101e7577H
	DD	043ffffH
	DD	040fcffH
	DD	03ffaffH
	DD	03ffaffH
	DD	03ffcffH
	DD	041ffffH
	DD	041ffffH
	DD	041ffffH
	DD	041ffffH
	DD	041ffffH
	DD	041ffffH
	DD	041ffffH
	DD	041ffffH
	DD	041ffffH
	DD	041ffffH
	DD	03ffbffH
	DD	03ffaffH
	DD	03ffaffH
	DD	03ffaffH
	DD	040ffffH
	DD	039e2e3H
	DD	023888bH
	DD	041fdfeH
	DD	041ffffH
	DD	041ffffH
	DD	041ffffH
	DD	041ffffH
	DD	041ffffH
	DD	040feffH
	DD	03ffaffH
	DD	03ffaffH
	DD	03ffaffH
	DD	03ffaffH
	DD	03ffaffH
	DD	041feffH
	DD	041ffffH
	DD	041ffffH
	DD	041ffffH
	DD	041ffffH
	DD	041ffffH
	DD	041ffffH
	DD	041ffffH
	DD	041ffffH
	DD	041ffffH
	DD	041ffffH
	DD	041ffffH
	DD	041ffffH
	DD	041ffffH
	DD	040fdffH
	DD	03ffaffH
	DD	03ffaffH
	DD	03ffaffH
	DD	03ffaffH
	DD	03ffbffH
	DD	041ffffH
	DD	041ffffH
	DD	041ffffH
	DD	041ffffH
	DD	041ffffH
	DD	041ffffH
	DD	044ffffH
	DD	06248e91H
	DD	060e3737H
	DD	041ffffH
	DD	03ffbffH
	DD	03ffaffH
	DD	03ffaffH
	DD	043ffffH
	DD	01175b5aH
	DD	031b6c6eH
	DD	043ffffH
	DD	03ffbffH
	DD	03ffaffH
	DD	03ffaffH
	DD	03ffbffH
	DD	041ffffH
	DD	041ffffH
	DD	041ffffH
	DD	041ffffH
	DD	041ffffH
	DD	041ffffH
	DD	041ffffH
	DD	041ffffH
	DD	041ffffH
	DD	041ffffH
	DD	040fcffH
	DD	03ffaffH
	DD	03ffaffH
	DD	03ffaffH
	DD	03ffaffH
	DD	043ffffH
	DD	0529a3a6H
	DD	012051516H
	DD	039dcddH
	DD	042ffffH
	DD	03ffaffH
	DD	03ffaffH
	DD	03ffaffH
	DD	040fdffH
	DD	041ffffH
	DD	041ffffH
	DD	041ffffH
	DD	041ffffH
	DD	041ffffH
	DD	041ffffH
	DD	041ffffH
	DD	041ffffH
	DD	041ffffH
	DD	041ffffH
	DD	041ffffH
	DD	041ffffH
	DD	041ffffH
	DD	044ffffH
	DD	02db1b3H
	DD	03a000000H
	DD	014134c4eH
	DD	040fcfeH
	DD	040ffffH
	DD	03ffaffH
	DD	03ffaffH
	DD	03ffaffH
	DD	040feffH
	DD	041ffffH
	DD	041ffffH
	DD	041ffffH
	DD	041ffffH
	DD	041ffffH
	DD	041ffffH
	DD	041ffffH
	DD	041ffffH
	DD	041ffffH
	DD	041ffffH
	DD	041ffffH
	DD	041ffffH
	DD	041ffffH
	DD	044ffffH
	DD	0228789H
	DD	05e000000H
	DD	0c8000000H
	DD	0fa000000H
	DD	0ffb5b5b5H
	DD	0ffffffffH
	DD	0ffffffffH
	DD	0ffffffffH
	DD	0ffffffffH
	DD	0ffffffffH
	DD	0ffffffffH
	DD	0ffffffffH
	DD	0ffffffffH
	DD	0ffffffffH
	DD	0ffffffffH
	DD	0ffffffffH
	DD	0ffffffffH
	DD	0ffffffffH
	DD	0ffffffffH
	DD	0ffffffffH
	DD	0ffffffffH
	DD	0ffffffffH
	DD	0ffffffffH
	DD	0ffffffffH
	DD	0ffffffffH
	DD	0ffffffffH
	DD	0ffffffffH
	DD	0ffffffffH
	DD	0ffffffffH
	DD	0ffffffffH
	DD	0ffffffffH
	DD	0ffffffffH
	DD	0ffffffffH
	DD	0ffffffffH
	DD	0ffffffffH
	DD	0ffffffffH
	DD	0ffffffffH
	DD	0ffffffffH
	DD	0ffffffffH
	DD	0ffffffffH
	DD	0ffffffffH
	DD	0ffffffffH
	DD	0ffffffffH
	DD	0ffffffffH
	DD	0ffffffffH
	DD	0ffffffffH
	DD	0ffffffffH
	DD	0ffffffffH
	DD	0ffffffffH
	DD	0ffffffffH
	DD	0ffffffffH
	DD	0ffffffffH
	DD	0ffffffffH
	DD	0ffffffffH
	DD	0ffffffffH
	DD	0ffffffffH
	DD	0ffffffffH
	DD	0ffffffffH
	DD	0ffffffffH
	DD	0ffffffffH
	DD	0ffffffffH
	DD	0ffffffffH
	DD	0ffffffffH
	DD	0ffffffffH
	DD	0ffffffffH
	DD	0ffffffffH
	DD	0ffffffffH
	DD	0ffffffffH
	DD	0ffffffffH
	DD	0ffffffffH
	DD	0ffffffffH
	DD	0ffffffffH
	DD	0ffffffffH
	DD	0ffffffffH
	DD	0ffffffffH
	DD	0ffffffffH
	DD	0ffffffffH
	DD	0ffffffffH
	DD	0ffffffffH
	DD	0ffffffffH
	DD	0ffffffffH
	DD	0ffb5b5b5H
	DD	0ff000000H
	DD	0ff000000H
	DD	0ff000000H
	DD	0e7000000H
	DD	0141a686aH
	DD	041ffffH
	DD	03ffbffH
	DD	03ffaffH
	DD	03ffbffH
	DD	03ff9feH
	DD	035d3d7H
	DD	032c3c7H
	DD	032c5c9H
	DD	032c5c9H
	DD	032c5c9H
	DD	032c5c9H
	DD	032c5c9H
	DD	032c5c9H
	DD	032c5c9H
	DD	032c3c8H
	DD	03ae7eaH
	DD	040feffH
	DD	03ffaffH
	DD	03ffaffH
	DD	03ffaffH
	DD	040fdffH
	DD	03ef8fcH
	DD	02b0c2f30H
	DD	047071c1cH
	DD	030bdc0H
	DD	033c8ccH
	DD	032c5c9H
	DD	032c5c9H
	DD	032c5c9H
	DD	032c5c9H
	DD	032c5c9H
	DD	032c5c9H
	DD	032c5c9H
	DD	032c5c9H
	DD	032c5c9H
	DD	032c5c9H
	DD	032c5c9H
	DD	032c5c9H
	DD	03be8edH
	DD	040fcffH
	DD	03ffaffH
	DD	03ffaffH
	DD	03ffaffH
	DD	040ffffH
	DD	036d6d9H
	DD	0289ea0H
	DD	042ffffH
	DD	03ffaffH
	DD	03ffaffH
	DD	03ffaffH
	DD	040fdffH
	DD	03ff8fcH
	DD	034cfd3H
	DD	031c3c7H
	DD	032c5c9H
	DD	032c5c9H
	DD	032c5c9H
	DD	032c5c9H
	DD	032c5c9H
	DD	032c5c9H
	DD	032c5c9H
	DD	032c5c9H
	DD	035cfd3H
	DD	01259194H
	DD	02c000000H
	DD	08259396H
	DD	043ffffH
	DD	03ffaffH
	DD	03ffaffH
	DD	03ffaffH
	DD	041ffffH
	DD	03cecf1H
	DD	032c6caH
	DD	032c4c8H
	DD	032c5c9H
	DD	032c5c9H
	DD	032c5c9H
	DD	032c5c9H
	DD	032c5c9H
	DD	032c5c9H
	DD	032c4c8H
	DD	03ceef1H
	DD	040fdffH
	DD	03ffaffH
	DD	03ffaffH
	DD	03ffaffH
	DD	042ffffH
	DD	032c5c6H
	DD	06d000000H
	DD	0f1000000H
	DD	0ff000000H
	DD	0ff000000H
	DD	0ff000000H
	DD	0ff000000H
	DD	0ff000000H
	DD	0ff000000H
	DD	0ff000000H
	DD	06e051314H
	DD	038dadcH
	DD	041ffffH
	DD	03ffaffH
	DD	03ffaffH
	DD	03ffaffH
	DD	040feffH
	DD	038dee3H
	DD	032c4c8H
	DD	032c5c9H
	DD	032c5c9H
	DD	032c5c9H
	DD	032c5c9H
	DD	032c5c9H
	DD	032c5c9H
	DD	032c5c9H
	DD	032c5c9H
	DD	032c5c9H
	DD	032c5c9H
	DD	032c5c9H
	DD	033c7cbH
	DD	032c4c7H
	DD	0180d3233H
	DD	019092223H
	DD	03df0f1H
	DD	040ffffH
	DD	03ffaffH
	DD	03ffaffH
	DD	03ffbffH
	DD	040fcfeH
	DD	036d5daH
	DD	032c3c7H
	DD	032c5c9H
	DD	032c5c9H
	DD	032c5c9H
	DD	032c5c9H
	DD	032c5c9H
	DD	032c5c9H
	DD	032c3c7H
	DD	036d6daH
	DD	03ffcffH
	DD	03ffaffH
	DD	03ffaffH
	DD	03ffaffH
	DD	03ffcffH
	DD	03df1f6H
	DD	030bec2H
	DD	032c6c9H
	DD	032c5c9H
	DD	032c5c9H
	DD	032c5c9H
	DD	032c5c9H
	DD	031c3c7H
	DD	038dbe0H
	DD	040fdffH
	DD	03ffaffH
	DD	03ffaffH
	DD	03ffaffH
	DD	040fcffH
	DD	036d3d6H
	DD	032c3c7H
	DD	032c5c9H
	DD	032c5c9H
	DD	032c5c9H
	DD	032c5c9H
	DD	032c5c9H
	DD	032c5c9H
	DD	032c5c9H
	DD	032c5c9H
	DD	032c5c9H
	DD	032c5c9H
	DD	032c5c9H
	DD	031c1c5H
	DD	039e0e4H
	DD	040feffH
	DD	03ffaffH
	DD	03ffaffH
	DD	03ffbffH
	DD	03ff9feH
	DD	035d2d7H
	DD	032c3c7H
	DD	032c5c9H
	DD	032c5c9H
	DD	032c5c9H
	DD	032c5c9H
	DD	033cbcfH
	DD	0b104142H
	DD	0b1e7678H
	DD	041ffffH
	DD	03ffaffH
	DD	03ffaffH
	DD	03ffcffH
	DD	040fdffH
	DD	070f3b3cH
	DD	0127999bH
	DD	042ffffH
	DD	03ffaffH
	DD	03ffaffH
	DD	03ffbffH
	DD	03df5f8H
	DD	032c5c9H
	DD	032c5c9H
	DD	032c5c9H
	DD	032c5c9H
	DD	032c5c9H
	DD	032c5c9H
	DD	032c5c9H
	DD	032c5c9H
	DD	032c4c8H
	DD	033c9cdH
	DD	03df1f4H
	DD	040fdffH
	DD	03ffaffH
	DD	03ffaffH
	DD	03ffaffH
	DD	041ffffH
	DD	031c5c6H
	DD	02ba9acH
	DD	042ffffH
	DD	03ffaffH
	DD	03ffaffH
	DD	03ffaffH
	DD	040feffH
	DD	03ef3f6H
	DD	034cdd1H
	DD	032c4c8H
	DD	032c5c9H
	DD	032c5c9H
	DD	032c5c9H
	DD	032c5c9H
	DD	032c5c9H
	DD	032c5c9H
	DD	032c5c9H
	DD	032c5c9H
	DD	032c5c9H
	DD	032c5c9H
	DD	032c5c9H
	DD	035cfd3H
	DD	0b185e61H
	DD	026000203H
	DD	035d1d3H
	DD	042ffffH
	DD	03ffaffH
	DD	03ffaffH
	DD	03ffaffH
	DD	041ffffH
	DD	039e2e6H
	DD	031c2c6H
	DD	032c5c9H
	DD	032c5c9H
	DD	032c5c9H
	DD	032c5c9H
	DD	032c5c9H
	DD	032c5c9H
	DD	032c5c9H
	DD	032c5c9H
	DD	032c5c9H
	DD	032c5c9H
	DD	032c5c9H
	DD	032c6caH
	DD	033c9cdH
	DD	0c114042H
	DD	079000000H
	DD	0d8000000H
	DD	0fe000000H
	DD	0ffb5b5b5H
	DD	0ffffffffH
	DD	0ffffffffH
	DD	0ffffffffH
	DD	0ffffffffH
	DD	0ffffffffH
	DD	0ffffffffH
	DD	0ffffffffH
	DD	0ffffffffH
	DD	0ffffffffH
	DD	0ffffffffH
	DD	0ffffffffH
	DD	0ffffffffH
	DD	0ffffffffH
	DD	0ffffffffH
	DD	0ffffffffH
	DD	0ffffffffH
	DD	0ffffffffH
	DD	0ffffffffH
	DD	0ffffffffH
	DD	0ffffffffH
	DD	0ffffffffH
	DD	0ffffffffH
	DD	0ffffffffH
	DD	0ffffffffH
	DD	0ffffffffH
	DD	0ffffffffH
	DD	0ffffffffH
	DD	0ffffffffH
	DD	0ffffffffH
	DD	0ffffffffH
	DD	0ffffffffH
	DD	0ffffffffH
	DD	0ffffffffH
	DD	0ffffffffH
	DD	0ffffffffH
	DD	0ffffffffH
	DD	0ffffffffH
	DD	0ffffffffH
	DD	0ffffffffH
	DD	0ffffffffH
	DD	0ffffffffH
	DD	0ffffffffH
	DD	0ffffffffH
	DD	0ffffffffH
	DD	0ffffffffH
	DD	0ffffffffH
	DD	0ffffffffH
	DD	0ffffffffH
	DD	0ffffffffH
	DD	0ffffffffH
	DD	0ffffffffH
	DD	0ffffffffH
	DD	0ffffffffH
	DD	0ffffffffH
	DD	0ffffffffH
	DD	0ffffffffH
	DD	0ffffffffH
	DD	0ffffffffH
	DD	0ffffffffH
	DD	0ffffffffH
	DD	0ffffffffH
	DD	0ffffffffH
	DD	0ffffffffH
	DD	0ffffffffH
	DD	0ffffffffH
	DD	0ffffffffH
	DD	0ffffffffH
	DD	0ffffffffH
	DD	0ffffffffH
	DD	0ffffffffH
	DD	0ffffffffH
	DD	0ffffffffH
	DD	0ffffffffH
	DD	0ffffffffH
	DD	0ffffffffH
	DD	0ffffffffH
	DD	0ffb5b5b5H
	DD	0ff000000H
	DD	0ff000000H
	DD	0ff000000H
	DD	0c9000000H
	DD	0249193H
	DD	043ffffH
	DD	03ffaffH
	DD	03ffaffH
	DD	040feffH
	DD	03ceef1H
	DD	0e0c3131H
	DD	02a000000H
	DD	02d010404H
	DD	02e010404H
	DD	02e010404H
	DD	02e010404H
	DD	02e010404H
	DD	02e010404H
	DD	02e010404H
	DD	030000000H
	DD	015092223H
	DD	037d9ddH
	DD	041ffffH
	DD	03ffaffH
	DD	03ffaffH
	DD	040fdffH
	DD	03ef6fbH
	DD	0230d3435H
	DD	0a0000000H
	DD	07d010505H
	DD	050010404H
	DD	031010404H
	DD	02f010404H
	DD	030010404H
	DD	030010404H
	DD	030010404H
	DD	030010404H
	DD	030010404H
	DD	030010404H
	DD	030010404H
	DD	030010404H
	DD	030010404H
	DD	032000000H
	DD	0140a2828H
	DD	03be9edH
	DD	040ffffH
	DD	03ffaffH
	DD	03ffaffH
	DD	040fdffH
	DD	03ae5e9H
	DD	03cf0f5H
	DD	03ffcffH
	DD	03ffaffH
	DD	03ffaffH
	DD	040ffffH
	DD	03ae7e9H
	DD	0b13494aH
	DD	023000101H
	DD	02b010303H
	DD	02d010404H
	DD	02e010404H
	DD	02e010404H
	DD	02e010404H
	DD	02e010404H
	DD	02e010404H
	DD	02e010404H
	DD	02e010404H
	DD	02c010404H
	DD	03b000000H
	DD	024061717H
	DD	03be8eaH
	DD	040ffffH
	DD	03ffaffH
	DD	03ffaffH
	DD	041ffffH
	DD	036d5d9H
	DD	0120a2929H
	DD	029000000H
	DD	02e010404H
	DD	030010404H
	DD	030010404H
	DD	030010404H
	DD	030010404H
	DD	030010404H
	DD	030010404H
	DD	033000000H
	DD	0d155152H
	DD	040ffffH
	DD	03ffcffH
	DD	03ffaffH
	DD	03ffaffH
	DD	042ffffH
	DD	030bcbdH
	DD	05d000000H
	DD	0de000000H
	DD	0ff000000H
	DD	0ff000000H
	DD	0ff000000H
	DD	0ff000000H
	DD	0ff000000H
	DD	0ff000000H
	DD	0ee000000H
	DD	028165757H
	DD	041ffffH
	DD	03ffaffH
	DD	03ffaffH
	DD	03ffaffH
	DD	042ffffH
	DD	01289ca0H
	DD	01a030d0dH
	DD	02b000202H
	DD	02f010404H
	DD	030010404H
	DD	030010404H
	DD	030010404H
	DD	030010404H
	DD	030010404H
	DD	030010404H
	DD	030010404H
	DD	02f010404H
	DD	02e010404H
	DD	02e010404H
	DD	02d010404H
	DD	02f010303H
	DD	044000000H
	DD	0a1e7576H
	DD	043ffffH
	DD	03ffaffH
	DD	03ffaffH
	DD	03ffaffH
	DD	041ffffH
	DD	031f7a7cH
	DD	020010404H
	DD	02d010202H
	DD	02f010404H
	DD	030010404H
	DD	030010404H
	DD	030010404H
	DD	030010404H
	DD	030010404H
	DD	032000101H
	DD	025030b0bH
	DD	02fbabeH
	DD	041ffffH
	DD	03ffaffH
	DD	03ffaffH
	DD	040fdffH
	DD	03ff9fdH
	DD	0f144f50H
	DD	03d000000H
	DD	03a010404H
	DD	02f010404H
	DD	02e010404H
	DD	030010404H
	DD	023000000H
	DD	0126979aH
	DD	042ffffH
	DD	03ffaffH
	DD	03ffaffH
	DD	040fcffH
	DD	03df3f8H
	DD	0d0a2626H
	DD	02b000000H
	DD	02d010404H
	DD	02e010404H
	DD	02e010404H
	DD	02e010404H
	DD	02e010404H
	DD	02e010404H
	DD	02e010404H
	DD	02e010404H
	DD	02e010404H
	DD	02e010404H
	DD	030010202H
	DD	021000000H
	DD	029a1a4H
	DD	042ffffH
	DD	03ffaffH
	DD	03ffaffH
	DD	040ffffH
	DD	03ae7eaH
	DD	012071e1eH
	DD	02c000000H
	DD	02d010404H
	DD	02e010404H
	DD	02e010404H
	DD	02e010404H
	DD	031010404H
	DD	02d000000H
	DD	02cb0b3H
	DD	042ffffH
	DD	03ffaffH
	DD	03ffaffH
	DD	041ffffH
	DD	037d9ddH
	DD	0100b2b2cH
	DD	0133caceH
	DD	041ffffH
	DD	03ffaffH
	DD	03ffaffH
	DD	041ffffH
	DD	033caceH
	DD	017000202H
	DD	02d010303H
	DD	02e010404H
	DD	02e010404H
	DD	02e010404H
	DD	02e010404H
	DD	02e010404H
	DD	02e010404H
	DD	02e010404H
	DD	02e000000H
	DD	010144f50H
	DD	03ef4f9H
	DD	040fdffH
	DD	03ffaffH
	DD	03ffaffH
	DD	040fdffH
	DD	03ae7ecH
	DD	03ceaecH
	DD	040fdffH
	DD	03ffaffH
	DD	03ffaffH
	DD	041ffffH
	DD	038dce1H
	DD	0c0e3738H
	DD	024000101H
	DD	02b010404H
	DD	02d010404H
	DD	02f010404H
	DD	030010404H
	DD	030010404H
	DD	030010404H
	DD	030010404H
	DD	030010404H
	DD	030010404H
	DD	030010404H
	DD	030010404H
	DD	030010404H
	DD	02f010404H
	DD	03f000000H
	DD	017144e4fH
	DD	040fcfeH
	DD	040fdffH
	DD	03ffaffH
	DD	03ffaffH
	DD	041ffffH
	DD	02babaeH
	DD	017041010H
	DD	02c000101H
	DD	02f010404H
	DD	030010404H
	DD	030010404H
	DD	030010404H
	DD	030010404H
	DD	030010404H
	DD	030010404H
	DD	030010404H
	DD	02f010404H
	DD	02e010404H
	DD	02e010404H
	DD	02e010404H
	DD	02b010404H
	DD	049000101H
	DD	098000000H
	DD	0e5000000H
	DD	0ff000000H
	DD	0ffb5b5b5H
	DD	0ffffffffH
	DD	0ffffffffH
	DD	0ffffffffH
	DD	0ffffffffH
	DD	0ffffffffH
	DD	0ffffffffH
	DD	0ffffffffH
	DD	0ffffffffH
	DD	0ffffffffH
	DD	0ffffffffH
	DD	0ffffffffH
	DD	0ffffffffH
	DD	0ffffffffH
	DD	0ffffffffH
	DD	0ffffffffH
	DD	0ffffffffH
	DD	0ffffffffH
	DD	0ffffffffH
	DD	0ffffffffH
	DD	0ffffffffH
	DD	0ffffffffH
	DD	0ffffffffH
	DD	0ffffffffH
	DD	0ffffffffH
	DD	0ffffffffH
	DD	0ffffffffH
	DD	0ffffffffH
	DD	0ffffffffH
	DD	0ffffffffH
	DD	0ffffffffH
	DD	0ffffffffH
	DD	0ffffffffH
	DD	0ffffffffH
	DD	0ffffffffH
	DD	0ffffffffH
	DD	0ffffffffH
	DD	0ffffffffH
	DD	0ffffffffH
	DD	0ffffffffH
	DD	0ffffffffH
	DD	0ffffffffH
	DD	0ffffffffH
	DD	0ffffffffH
	DD	0ffffffffH
	DD	0ffffffffH
	DD	0ffffffffH
	DD	0ffffffffH
	DD	0ffffffffH
	DD	0ffffffffH
	DD	0ffffffffH
	DD	0ffffffffH
	DD	0ffffffffH
	DD	0ffffffffH
	DD	0ffffffffH
	DD	0ffffffffH
	DD	0ffffffffH
	DD	0ffffffffH
	DD	0ffffffffH
	DD	0ffffffffH
	DD	0ffffffffH
	DD	0ffffffffH
	DD	0ffffffffH
	DD	0ffffffffH
	DD	0ffffffffH
	DD	0ffffffffH
	DD	0ffffffffH
	DD	0ffffffffH
	DD	0ffffffffH
	DD	0ffffffffH
	DD	0ffffffffH
	DD	0ffffffffH
	DD	0ffffffffH
	DD	0ffffffffH
	DD	0ffffffffH
	DD	0ffffffffH
	DD	0ffffffffH
	DD	0ffb5b5b5H
	DD	0ff000000H
	DD	0ff000000H
	DD	0ff000000H
	DD	090020809H
	DD	031c0c4H
	DD	041ffffH
	DD	03ffaffH
	DD	03ffaffH
	DD	041ffffH
	DD	037d8ddH
	DD	029010202H
	DD	078000000H
	DD	094000000H
	DD	09a000000H
	DD	099000000H
	DD	099000000H
	DD	099000000H
	DD	099000000H
	DD	099000000H
	DD	0a1000000H
	DD	064000000H
	DD	02db3b7H
	DD	043ffffH
	DD	03ffaffH
	DD	03ffaffH
	DD	041ffffH
	DD	038dee2H
	DD	02a071c1cH
	DD	0b4000000H
	DD	0ec000000H
	DD	0c9000000H
	DD	0ab000000H
	DD	09b000000H
	DD	09a000000H
	DD	09a000000H
	DD	09a000000H
	DD	09a000000H
	DD	09a000000H
	DD	09a000000H
	DD	09a000000H
	DD	09a000000H
	DD	09a000000H
	DD	0a4000000H
	DD	04b000000H
	DD	037dbdfH
	DD	041ffffH
	DD	03ffaffH
	DD	03ffaffH
	DD	03ffaffH
	DD	03ffbffH
	DD	040fbffH
	DD	03ffaffH
	DD	03ffaffH
	DD	03ffaffH
	DD	043ffffH
	DD	0207e81H
	DD	03d000000H
	DD	06c000000H
	DD	08a000000H
	DD	098000000H
	DD	099000000H
	DD	099000000H
	DD	099000000H
	DD	099000000H
	DD	099000000H
	DD	099000000H
	DD	099000000H
	DD	09b000000H
	DD	096000000H
	DD	020124545H
	DD	041ffffH
	DD	03ffaffH
	DD	03ffaffH
	DD	03ffaffH
	DD	043ffffH
	DD	04196567H
	DD	048000000H
	DD	075000000H
	DD	091000000H
	DD	09a000000H
	DD	09a000000H
	DD	09a000000H
	DD	09a000000H
	DD	09a000000H
	DD	09c000000H
	DD	090000000H
	DD	01b103d3eH
	DD	03ffbffH
	DD	040fcffH
	DD	03ffaffH
	DD	03ffaffH
	DD	043ffffH
	DD	0218384H
	DD	066000000H
	DD	0d4000000H
	DD	0fd000000H
	DD	0ff000000H
	DD	0ff000000H
	DD	0ff000000H
	DD	0ff000000H
	DD	0ff000000H
	DD	0cd000000H
	DD	08238b8dH
	DD	042ffffH
	DD	03ffaffH
	DD	03ffaffH
	DD	040fdffH
	DD	03ffaffH
	DD	0d0e3839H
	DD	057000000H
	DD	080000000H
	DD	095000000H
	DD	09a000000H
	DD	09a000000H
	DD	09a000000H
	DD	09a000000H
	DD	09a000000H
	DD	09a000000H
	DD	09a000000H
	DD	0a3000000H
	DD	0a7000000H
	DD	09e000000H
	DD	099000000H
	DD	0a3000000H
	DD	060000000H
	DD	030bcc0H
	DD	041ffffH
	DD	03ffaffH
	DD	03ffaffH
	DD	040ffffH
	DD	037d8dcH
	DD	020051212H
	DD	064000000H
	DD	086000000H
	DD	097000000H
	DD	09a000000H
	DD	09a000000H
	DD	09a000000H
	DD	09a000000H
	DD	09b000000H
	DD	09d000000H
	DD	04f000101H
	DD	02cacb0H
	DD	042ffffH
	DD	03ffaffH
	DD	03ffaffH
	DD	040ffffH
	DD	039e4e8H
	DD	024061617H
	DD	080000000H
	DD	09b000000H
	DD	09a000000H
	DD	099000000H
	DD	0a3000000H
	DD	056000000H
	DD	033caceH
	DD	041ffffH
	DD	03ffaffH
	DD	03ffaffH
	DD	041ffffH
	DD	034cbcfH
	DD	029030d0dH
	DD	07a000000H
	DD	095000000H
	DD	09a000000H
	DD	099000000H
	DD	099000000H
	DD	099000000H
	DD	099000000H
	DD	099000000H
	DD	099000000H
	DD	099000000H
	DD	099000000H
	DD	0a2000000H
	DD	04e040e0eH
	DD	034cdd1H
	DD	041ffffH
	DD	03ffaffH
	DD	03ffaffH
	DD	041ffffH
	DD	032c8ccH
	DD	030000000H
	DD	07c000000H
	DD	095000000H
	DD	09a000000H
	DD	099000000H
	DD	099000000H
	DD	09f000000H
	DD	050030d0eH
	DD	034d0d3H
	DD	041ffffH
	DD	03ffaffH
	DD	03ffaffH
	DD	042ffffH
	DD	02eb9bcH
	DD	01092324H
	DD	03ef8fdH
	DD	03ffbffH
	DD	03ffaffH
	DD	03ffaffH
	DD	042ffffH
	DD	01249092H
	DD	043000000H
	DD	083000000H
	DD	098000000H
	DD	099000000H
	DD	099000000H
	DD	099000000H
	DD	099000000H
	DD	099000000H
	DD	099000000H
	DD	09d000000H
	DD	03a081f1fH
	DD	039e0e5H
	DD	041ffffH
	DD	03ffaffH
	DD	03ffaffH
	DD	03ffaffH
	DD	03ffbffH
	DD	03ffbffH
	DD	03ffaffH
	DD	03ffaffH
	DD	03ffaffH
	DD	041ffffH
	DD	051b6c6eH
	DD	042000000H
	DD	071000000H
	DD	08c000000H
	DD	099000000H
	DD	0a1000000H
	DD	09b000000H
	DD	09a000000H
	DD	09a000000H
	DD	09a000000H
	DD	09a000000H
	DD	09a000000H
	DD	09a000000H
	DD	09a000000H
	DD	09a000000H
	DD	09e000000H
	DD	08a000000H
	DD	021f7c7eH
	DD	043ffffH
	DD	03ffaffH
	DD	03ffaffH
	DD	040fdffH
	DD	03ef7fcH
	DD	0d124849H
	DD	052000000H
	DD	07f000000H
	DD	095000000H
	DD	09a000000H
	DD	09a000000H
	DD	09a000000H
	DD	09a000000H
	DD	09a000000H
	DD	09a000000H
	DD	099000000H
	DD	0a3000000H
	DD	0a7000000H
	DD	09f000000H
	DD	099000000H
	DD	098000000H
	DD	09f000000H
	DD	0c7000000H
	DD	0f3000000H
	DD	0ff000000H
	DD	0ffb5b5b5H
	DD	0ffffffffH
	DD	0ffffffffH
	DD	0ffffffffH
	DD	0ffffffffH
	DD	0ffffffffH
	DD	0ffffffffH
	DD	0ffffffffH
	DD	0ffffffffH
	DD	0ffffffffH
	DD	0ffffffffH
	DD	0ffffffffH
	DD	0ffffffffH
	DD	0ffffffffH
	DD	0ffffffffH
	DD	0ffffffffH
	DD	0ffffffffH
	DD	0ffffffffH
	DD	0ffffffffH
	DD	0ffffffffH
	DD	0ffffffffH
	DD	0ffffffffH
	DD	0ffffffffH
	DD	0ffffffffH
	DD	0ffffffffH
	DD	0ffffffffH
	DD	0ffffffffH
	DD	0ffffffffH
	DD	0ffffffffH
	DD	0ffffffffH
	DD	0ffffffffH
	DD	0ffffffffH
	DD	0ffffffffH
	DD	0ffffffffH
	DD	0ffffffffH
	DD	0ffffffffH
	DD	0ffffffffH
	DD	0ffffffffH
	DD	0ffffffffH
	DD	0ffffffffH
	DD	0ffffffffH
	DD	0ffffffffH
	DD	0ffffffffH
	DD	0ffffffffH
	DD	0ffffffffH
	DD	0ffffffffH
	DD	0ffffffffH
	DD	0ffffffffH
	DD	0ffffffffH
	DD	0ffffffffH
	DD	0ffffffffH
	DD	0ffffffffH
	DD	0ffffffffH
	DD	0ffffffffH
	DD	0ffffffffH
	DD	0ffffffffH
	DD	0ffffffffH
	DD	0ffffffffH
	DD	0ffffffffH
	DD	0ffffffffH
	DD	0ffffffffH
	DD	0ffffffffH
	DD	0ffffffffH
	DD	0ffffffffH
	DD	0ffffffffH
	DD	0ffffffffH
	DD	0ffffffffH
	DD	0ffffffffH
	DD	0ffffffffH
	DD	0ffffffffH
	DD	0ffffffffH
	DD	0ffffffffH
	DD	0ffffffffH
	DD	0ffffffffH
	DD	0ffffffffH
	DD	0ffffffffH
	DD	0ffffffffH
	DD	0ffb5b5b5H
	DD	0ff000000H
	DD	0ff000000H
	DD	0ff000000H
	DD	059071b1bH
	DD	03ceff3H
	DD	040fdffH
	DD	03ffaffH
	DD	03ffaffH
	DD	042ffffH
	DD	02aa5a8H
	DD	045000000H
	DD	0ae000000H
	DD	0e3000000H
	DD	0eb000000H
	DD	0ea000000H
	DD	0ea000000H
	DD	0ea000000H
	DD	0ea000000H
	DD	0ea000000H
	DD	0f7000000H
	DD	074041112H
	DD	035d3d7H
	DD	041ffffH
	DD	03ffaffH
	DD	03ffaffH
	DD	042ffffH
	DD	02fbcbeH
	DD	043000000H
	DD	0bf000000H
	DD	0ea000000H
	DD	0a4000202H
	DD	053051415H
	DD	0350e3839H
	DD	0340f3d3eH
	DD	0350f3c3dH
	DD	0350f3c3dH
	DD	0350f3c3dH
	DD	0350f3c3dH
	DD	0350f3c3dH
	DD	0350f3c3dH
	DD	0350f3c3dH
	DD	0350f3c3dH
	DD	0390e3738H
	DD	01a185e60H
	DD	03df0f4H
	DD	040fdffH
	DD	03ffaffH
	DD	03ffaffH
	DD	03ffafeH
	DD	03ffafeH
	DD	03ffaffH
	DD	03ffaffH
	DD	03ffaffH
	DD	040fdffH
	DD	03ff9feH
	DD	0b134c4eH
	DD	065000000H
	DD	0b2000000H
	DD	0de000000H
	DD	0e9000000H
	DD	0e9000000H
	DD	0e9000000H
	DD	0e9000000H
	DD	0e9000000H
	DD	0e9000000H
	DD	0e9000000H
	DD	0e9000000H
	DD	0f2000000H
	DD	0c4000000H
	DD	0e207f82H
	DD	041ffffH
	DD	03ffaffH
	DD	03ffaffH
	DD	03ffbffH
	DD	040ffffH
	DD	021a696bH
	DD	0190c3233H
	DD	0280f3c3dH
	DD	0330f3c3dH
	DD	0350f3c3dH
	DD	0350f3c3dH
	DD	0350f3c3dH
	DD	0350f3c3dH
	DD	0350f3c3dH
	DD	0370e3839H
	DD	027155355H
	DD	0135d2d5H
	DD	041ffffH
	DD	03ffaffH
	DD	03ffaffH
	DD	040ffffH
	DD	03ce9ebH
	DD	018092122H
	DD	07e000000H
	DD	0d7000000H
	DD	0ff000000H
	DD	0ff000000H
	DD	0ff000000H
	DD	0ff000000H
	DD	0ff000000H
	DD	0ff000000H
	DD	0cf000000H
	DD	0923898bH
	DD	042ffffH
	DD	03ffaffH
	DD	03ffaffH
	DD	03ffbffH
	DD	040ffffH
	DD	0129a2a5H
	DD	01a0f3a3cH
	DD	02c0f3b3cH
	DD	0340f3c3dH
	DD	0350f3c3dH
	DD	0350f3c3dH
	DD	0350f3c3dH
	DD	0350f3c3dH
	DD	0350f3c3dH
	DD	0350f3c3dH
	DD	0340f3d3eH
	DD	03f0a2828H
	DD	074020a0aH
	DD	0cd000000H
	DD	0f2000000H
	DD	0f5000000H
	DD	066040f0fH
	DD	039e4e5H
	DD	041ffffH
	DD	03ffaffH
	DD	03ffaffH
	DD	041ffffH
	DD	031bfc2H
	DD	0f0f3c3dH
	DD	0210e3a3bH
	DD	02e0f3c3dH
	DD	0340f3c3dH
	DD	0350f3c3dH
	DD	0350f3c3dH
	DD	0350f3c3dH
	DD	0350f3c3dH
	DD	0360f3b3cH
	DD	0320f393bH
	DD	09249092H
	DD	03ffbffH
	DD	03ffbffH
	DD	03ffaffH
	DD	03ffaffH
	DD	043ffffH
	DD	0238a8cH
	DD	046000000H
	DD	0a4000000H
	DD	0df000000H
	DD	0eb000000H
	DD	0eb000000H
	DD	0ee000000H
	DD	058071d1dH
	DD	03be8ebH
	DD	040ffffH
	DD	03ffaffH
	DD	03ffaffH
	DD	043ffffH
	DD	0289d9eH
	DD	04a000000H
	DD	0b0000000H
	DD	0e4000000H
	DD	0ea000000H
	DD	0e9000000H
	DD	0e9000000H
	DD	0e9000000H
	DD	0e9000000H
	DD	0e9000000H
	DD	0e9000000H
	DD	0e9000000H
	DD	0ea000000H
	DD	0f4000000H
	DD	047092424H
	DD	03ef6faH
	DD	03ffcffH
	DD	03ffaffH
	DD	03ffaffH
	DD	042ffffH
	DD	0259295H
	DD	04d000000H
	DD	0b4000000H
	DD	0e5000000H
	DD	0ea000000H
	DD	0e9000000H
	DD	0e9000000H
	DD	0ef000000H
	DD	0430d3132H
	DD	03df2f7H
	DD	040feffH
	DD	03ffaffH
	DD	03ffaffH
	DD	042ffffH
	DD	06238a8cH
	DD	06134a4bH
	DD	041ffffH
	DD	03ffbffH
	DD	03ffaffH
	DD	03ffaffH
	DD	043ffffH
	DD	07165859H
	DD	06c000000H
	DD	0c1000000H
	DD	0e8000000H
	DD	0ea000000H
	DD	0e9000000H
	DD	0e9000000H
	DD	0e9000000H
	DD	0e9000000H
	DD	0ea000000H
	DD	0eb000000H
	DD	02c104041H
	DD	041ffffH
	DD	03ffcffH
	DD	03ffaffH
	DD	03ffaffH
	DD	03ffaffH
	DD	03ef9fdH
	DD	03ffaffH
	DD	03ffaffH
	DD	03ffaffH
	DD	03ffbffH
	DD	040fdffH
	DD	0120b2d2dH
	DD	072000000H
	DD	0b7000000H
	DD	0e2000000H
	DD	0eb000000H
	DD	07b040f10H
	DD	02e0f3b3cH
	DD	0350f3d3eH
	DD	0350f3c3dH
	DD	0350f3c3dH
	DD	0350f3c3dH
	DD	0350f3c3dH
	DD	0350f3c3dH
	DD	0350f3c3dH
	DD	0350f3c3dH
	DD	0360f3d3eH
	DD	02f0a2a2aH
	DD	022898bH
	DD	042ffffH
	DD	03ffaffH
	DD	03ffaffH
	DD	03ffbffH
	DD	040feffH
	DD	032cadb0H
	DD	01a0f3d3eH
	DD	02c0f3a3bH
	DD	0350f3c3dH
	DD	0350f3c3dH
	DD	0350f3c3dH
	DD	0350f3c3dH
	DD	0350f3c3dH
	DD	0350f3c3dH
	DD	0350f3c3dH
	DD	033103e3fH
	DD	03f0a2829H
	DD	072030a0aH
	DD	0ca000000H
	DD	0f2000000H
	DD	0ea000000H
	DD	0ec000000H
	DD	0f5000000H
	DD	0fd000000H
	DD	0ff000000H
	DD	0ffb5b5b5H
	DD	0ffffffffH
	DD	0ffffffffH
	DD	0ffffffffH
	DD	0ffffffffH
	DD	0ffffffffH
	DD	0ffffffffH
	DD	0ffffffffH
	DD	0ffffffffH
	DD	0ffffffffH
	DD	0ffffffffH
	DD	0ffffffffH
	DD	0ffffffffH
	DD	0ffffffffH
	DD	0ffffffffH
	DD	0ffffffffH
	DD	0ffffffffH
	DD	0ffffffffH
	DD	0ffffffffH
	DD	0ffffffffH
	DD	0ffffffffH
	DD	0ffffffffH
	DD	0ffffffffH
	DD	0ffffffffH
	DD	0ffffffffH
	DD	0ffffffffH
	DD	0ffffffffH
	DD	0ffffffffH
	DD	0ffffffffH
	DD	0ffffffffH
	DD	0ffffffffH
	DD	0ffffffffH
	DD	0ffffffffH
	DD	0ffffffffH
	DD	0ffffffffH
	DD	0ffffffffH
	DD	0ffffffffH
	DD	0ffffffffH
	DD	0ffffffffH
	DD	0ffffffffH
	DD	0ffffffffH
	DD	0ffffffffH
	DD	0ffffffffH
	DD	0ffffffffH
	DD	0ffffffffH
	DD	0ffffffffH
	DD	0ffffffffH
	DD	0ffffffffH
	DD	0ffffffffH
	DD	0ffffffffH
	DD	0ffffffffH
	DD	0ffffffffH
	DD	0ffffffffH
	DD	0ffffffffH
	DD	0ffffffffH
	DD	0ffffffffH
	DD	0ffffffffH
	DD	0ffffffffH
	DD	0ffffffffH
	DD	0ffffffffH
	DD	0ffffffffH
	DD	0ffffffffH
	DD	0ffffffffH
	DD	0ffffffffH
	DD	0ffffffffH
	DD	0ffffffffH
	DD	0ffffffffH
	DD	0ffffffffH
	DD	0ffffffffH
	DD	0ffffffffH
	DD	0ffffffffH
	DD	0ffffffffH
	DD	0ffffffffH
	DD	0ffffffffH
	DD	0ffffffffH
	DD	0ffffffffH
	DD	0ffffffffH
	DD	0ffb5b5b5H
	DD	0ff000000H
	DD	0ff000000H
	DD	0fb000000H
	DD	035104142H
	DD	040ffffH
	DD	03ffbffH
	DD	03ffaffH
	DD	03ffaffH
	DD	043ffffH
	DD	031b6c6eH
	DD	065000000H
	DD	0d1000000H
	DD	0ff000000H
	DD	0ff000000H
	DD	0ff000000H
	DD	0ff000000H
	DD	0ff000000H
	DD	0ff000000H
	DD	0ff000000H
	DD	0e5000000H
	DD	032114243H
	DD	03ff8fdH
	DD	040fdffH
	DD	03ffaffH
	DD	03ffaffH
	DD	042ffffH
	DD	0259395H
	DD	05d000000H
	DD	07f000000H
	DD	0330f3e3fH
	DD	02aa6a9H
	DD	03cecf1H
	DD	03ffbffH
	DD	03ffaffH
	DD	03ffaffH
	DD	03ffaffH
	DD	03ffaffH
	DD	03ffaffH
	DD	03ffaffH
	DD	03ffaffH
	DD	03ffaffH
	DD	03ffaffH
	DD	03ffaffH
	DD	040fcffH
	DD	03ffbffH
	DD	03ffaffH
	DD	03ffaffH
	DD	03ffaffH
	DD	03ff9feH
	DD	03ef6fbH
	DD	03ffbffH
	DD	03ffaffH
	DD	03ffaffH
	DD	040ffffH
	DD	03be9ecH
	DD	01e081f20H
	DD	08e000000H
	DD	0e3000000H
	DD	0ff000000H
	DD	0ff000000H
	DD	0ff000000H
	DD	0ff000000H
	DD	0ff000000H
	DD	0ff000000H
	DD	0ff000000H
	DD	0ff000000H
	DD	0ff000000H
	DD	0ff000000H
	DD	0b5000000H
	DD	02badb1H
	DD	042ffffH
	DD	03ffaffH
	DD	03ffaffH
	DD	03ffaffH
	DD	03ff9feH
	DD	03ff9feH
	DD	03ffaffH
	DD	03ffaffH
	DD	03ffaffH
	DD	03ffaffH
	DD	03ffaffH
	DD	03ffaffH
	DD	03ffaffH
	DD	03ffaffH
	DD	03ffaffH
	DD	040fdffH
	DD	041feffH
	DD	03ffaffH
	DD	03ffaffH
	DD	041feffH
	DD	042ffffH
	DD	021a6668H
	DD	040000000H
	DD	09a000000H
	DD	0e7000000H
	DD	0ff000000H
	DD	0ff000000H
	DD	0ff000000H
	DD	0ff000000H
	DD	0ff000000H
	DD	0ff000000H
	DD	0f7000000H
	DD	032124748H
	DD	042ffffH
	DD	03ffbffH
	DD	03ffaffH
	DD	03ffaffH
	DD	03ffbffH
	DD	041feffH
	DD	03ffbffH
	DD	03ffaffH
	DD	03ffaffH
	DD	03ffaffH
	DD	03ffaffH
	DD	03ffaffH
	DD	03ffaffH
	DD	03ffaffH
	DD	03ffaffH
	DD	03ffbffH
	DD	03ffaffH
	DD	034cdd1H
	DD	01c175c5dH
	DD	0b8000102H
	DD	0fb000000H
	DD	0430f3c3eH
	DD	03df2f7H
	DD	040feffH
	DD	03ffaffH
	DD	03ffaffH
	DD	03ffaffH
	DD	03ff9feH
	DD	03ffafeH
	DD	03ffaffH
	DD	03ffaffH
	DD	03ffaffH
	DD	03ffaffH
	DD	03ffaffH
	DD	03ffaffH
	DD	03ffaffH
	DD	03ffaffH
	DD	03ffbffH
	DD	041ffffH
	DD	040fcffH
	DD	03ffaffH
	DD	03ffbffH
	DD	043ffffH
	DD	034cccfH
	DD	01c051515H
	DD	06f000000H
	DD	0c4000000H
	DD	0fc000000H
	DD	0ff000000H
	DD	0ff000000H
	DD	0f2000000H
	DD	031144d4fH
	DD	03ff9feH
	DD	040fdffH
	DD	03ffaffH
	DD	03ffbffH
	DD	042ffffH
	DD	01c7073H
	DD	069000000H
	DD	0ce000000H
	DD	0fd000000H
	DD	0ff000000H
	DD	0ff000000H
	DD	0ff000000H
	DD	0ff000000H
	DD	0ff000000H
	DD	0ff000000H
	DD	0ff000000H
	DD	0ff000000H
	DD	0ff000000H
	DD	0f1000000H
	DD	02b155354H
	DD	041ffffH
	DD	03ffbffH
	DD	03ffaffH
	DD	03ffaffH
	DD	043ffffH
	DD	06175c5cH
	DD	06f000000H
	DD	0d0000000H
	DD	0fe000000H
	DD	0ff000000H
	DD	0ff000000H
	DD	0ff000000H
	DD	0f8000000H
	DD	01d155455H
	DD	043ffffH
	DD	03ffaffH
	DD	03ffaffH
	DD	03ffbffH
	DD	041ffffH
	DD	08144f50H
	DD	08218284H
	DD	042ffffH
	DD	03ffaffH
	DD	03ffaffH
	DD	040fdffH
	DD	03ef6fbH
	DD	0140d3535H
	DD	08a000000H
	DD	0e0000000H
	DD	0ff000000H
	DD	0ff000000H
	DD	0ff000000H
	DD	0ff000000H
	DD	0ff000000H
	DD	0ff000000H
	DD	0ff000000H
	DD	0e0000000H
	DD	0131c7071H
	DD	043ffffH
	DD	03ffaffH
	DD	03ffaffH
	DD	03ffaffH
	DD	03ffaffH
	DD	03ef5faH
	DD	03ffaffH
	DD	03ffaffH
	DD	03ffaffH
	DD	040ffffH
	DD	038dfe3H
	DD	024051415H
	DD	09c000000H
	DD	0e7000000H
	DD	0ff000000H
	DD	0eb000000H
	DD	01c186062H
	DD	041ffffH
	DD	03ffcffH
	DD	03ffaffH
	DD	03ffaffH
	DD	03ffaffH
	DD	03ffaffH
	DD	03ffaffH
	DD	03ffaffH
	DD	03ffaffH
	DD	040ffffH
	DD	039e0e3H
	DD	0196164H
	DD	03ef2f4H
	DD	040feffH
	DD	03ffaffH
	DD	03ffaffH
	DD	03ffbffH
	DD	041ffffH
	DD	03ffbffH
	DD	03ffaffH
	DD	03ffaffH
	DD	03ffaffH
	DD	03ffaffH
	DD	03ffaffH
	DD	03ffaffH
	DD	03ffaffH
	DD	03ffaffH
	DD	03ffbffH
	DD	03ff9feH
	DD	035d1d5H
	DD	0e196465H
	DD	0a6010303H
	DD	0ff000000H
	DD	0ff000000H
	DD	0ff000000H
	DD	0ff000000H
	DD	0ff000000H
	DD	0ffb5b5b5H
	DD	0ffffffffH
	DD	0ffffffffH
	DD	0ffffffffH
	DD	0ffffffffH
	DD	0ffffffffH
	DD	0ffffffffH
	DD	0ffffffffH
	DD	0ffffffffH
	DD	0ffffffffH
	DD	0ffffffffH
	DD	0ffffffffH
	DD	0ffffffffH
	DD	0ffffffffH
	DD	0ffffffffH
	DD	0ffffffffH
	DD	0ffffffffH
	DD	0ffffffffH
	DD	0ffffffffH
	DD	0ffffffffH
	DD	0ffffffffH
	DD	0ffffffffH
	DD	0ffffffffH
	DD	0ffffffffH
	DD	0ffffffffH
	DD	0ffffffffH
	DD	0ffffffffH
	DD	0ffffffffH
	DD	0ffffffffH
	DD	0ffffffffH
	DD	0ffffffffH
	DD	0ffffffffH
	DD	0ffffffffH
	DD	0ffffffffH
	DD	0ffffffffH
	DD	0ffffffffH
	DD	0ffffffffH
	DD	0ffffffffH
	DD	0ffffffffH
	DD	0ffffffffH
	DD	0ffffffffH
	DD	0ffffffffH
	DD	0ffffffffH
	DD	0ffffffffH
	DD	0ffffffffH
	DD	0ffffffffH
	DD	0ffffffffH
	DD	0ffffffffH
	DD	0ffffffffH
	DD	0ffffffffH
	DD	0ffffffffH
	DD	0ffffffffH
	DD	0ffffffffH
	DD	0ffffffffH
	DD	0ffffffffH
	DD	0ffffffffH
	DD	0ffffffffH
	DD	0ffffffffH
	DD	0ffffffffH
	DD	0ffffffffH
	DD	0ffffffffH
	DD	0ffffffffH
	DD	0ffffffffH
	DD	0ffffffffH
	DD	0ffffffffH
	DD	0ffffffffH
	DD	0ffffffffH
	DD	0ffffffffH
	DD	0ffffffffH
	DD	0ffffffffH
	DD	0ffffffffH
	DD	0ffffffffH
	DD	0ffffffffH
	DD	0ffffffffH
	DD	0ffffffffH
	DD	0ffffffffH
	DD	0ffffffffH
	DD	0ffb5b5b5H
	DD	0ff000000H
	DD	0ff000000H
	DD	0da000000H
	DD	0151e7678H
	DD	041ffffH
	DD	03ffaffH
	DD	03ffaffH
	DD	03ffbffH
	DD	041ffffH
	DD	041a6769H
	DD	024092425H
	DD	03e0c2f30H
	DD	04a0c2f30H
	DD	04a0c2f30H
	DD	04a0c2f30H
	DD	04a0c2f30H
	DD	04a0c2f30H
	DD	04a0c2f30H
	DD	04b0b2c2dH
	DD	020155255H
	DD	037daddH
	DD	041ffffH
	DD	03ffaffH
	DD	03ffaffH
	DD	03ffbffH
	DD	041ffffH
	DD	011124747H
	DD	032010303H
	DD	05249194H
	DD	03ff8fbH
	DD	042ffffH
	DD	040feffH
	DD	03ffcffH
	DD	03ffcffH
	DD	03ffcffH
	DD	03ffcffH
	DD	03ffcffH
	DD	03ffcffH
	DD	03ffcffH
	DD	03ffcffH
	DD	03ffcffH
	DD	03ffcffH
	DD	03ffcffH
	DD	03ffcffH
	DD	03ffaffH
	DD	03ffaffH
	DD	03ffaffH
	DD	03ffaffH
	DD	03ffaffH
	DD	03ffbffH
	DD	03ffaffH
	DD	03ffaffH
	DD	03ffaffH
	DD	041ffffH
	DD	034cfd3H
	DD	034000000H
	DD	0ac000000H
	DD	0f1000000H
	DD	0ff000000H
	DD	0ff000000H
	DD	0ff000000H
	DD	0ff000000H
	DD	0ff000000H
	DD	0ff000000H
	DD	0ff000000H
	DD	0ff000000H
	DD	0ff000000H
	DD	0ff000000H
	DD	085030c0dH
	DD	035d0d2H
	DD	041ffffH
	DD	03ffaffH
	DD	03ffaffH
	DD	03ffaffH
	DD	03ffaffH
	DD	03ffbffH
	DD	03ffcffH
	DD	03ffcffH
	DD	03ffcffH
	DD	03ffcffH
	DD	03ffcffH
	DD	03ffcffH
	DD	03ffcffH
	DD	03ffcffH
	DD	03ffcffH
	DD	03ffcffH
	DD	03ffaffH
	DD	040fcffH
	DD	041ffffH
	DD	040fafbH
	DD	041c6d70H
	DD	032000000H
	DD	071000000H
	DD	0c2000000H
	DD	0f8000000H
	DD	0ff000000H
	DD	0ff000000H
	DD	0ff000000H
	DD	0ff000000H
	DD	0ff000000H
	DD	0ff000000H
	DD	0ff000000H
	DD	090010404H
	DD	02db1b5H
	DD	043ffffH
	DD	03ffcffH
	DD	03ffaffH
	DD	03ffaffH
	DD	03ffaffH
	DD	03ffcffH
	DD	03ffcffH
	DD	03ffcffH
	DD	03ffcffH
	DD	03ffcffH
	DD	03ffcffH
	DD	03ffcffH
	DD	03ffcffH
	DD	03ffcffH
	DD	03ffcffH
	DD	03ffcffH
	DD	042ffffH
	DD	042ffffH
	DD	015208284H
	DD	0a1000000H
	DD	01a1b6a6cH
	DD	042ffffH
	DD	03ffbffH
	DD	03ffaffH
	DD	03ffaffH
	DD	03ffaffH
	DD	03ffbffH
	DD	03ffcffH
	DD	03ffcffH
	DD	03ffcffH
	DD	03ffcffH
	DD	03ffcffH
	DD	03ffcffH
	DD	03ffcffH
	DD	03ffcffH
	DD	03ffcffH
	DD	03ffcffH
	DD	03ffaffH
	DD	03ffaffH
	DD	040ffffH
	DD	042ffffH
	DD	033c8cbH
	DD	0d092424H
	DD	04e000000H
	DD	098000000H
	DD	0e2000000H
	DD	0ff000000H
	DD	0ff000000H
	DD	0ff000000H
	DD	0dd000000H
	DD	061f7b7dH
	DD	043ffffH
	DD	03ffaffH
	DD	03ffaffH
	DD	040fdffH
	DD	03ef4f9H
	DD	010104142H
	DD	07f000000H
	DD	0dd000000H
	DD	0ff000000H
	DD	0ff000000H
	DD	0ff000000H
	DD	0ff000000H
	DD	0ff000000H
	DD	0ff000000H
	DD	0ff000000H
	DD	0ff000000H
	DD	0ff000000H
	DD	0ff000000H
	DD	0cc000000H
	DD	07238c8eH
	DD	042ffffH
	DD	03ffaffH
	DD	03ffaffH
	DD	040fdffH
	DD	03ef7fcH
	DD	0130e3637H
	DD	089000000H
	DD	0de000000H
	DD	0ff000000H
	DD	0ff000000H
	DD	0ff000000H
	DD	0ff000000H
	DD	0cb000000H
	DD	0b218587H
	DD	042ffffH
	DD	03ffaffH
	DD	03ffaffH
	DD	03ffbffH
	DD	03ff9feH
	DD	01092525H
	DD	02cb1b4H
	DD	042ffffH
	DD	03ffaffH
	DD	03ffaffH
	DD	041ffffH
	DD	036d7daH
	DD	029051415H
	DD	09f000000H
	DD	0ec000000H
	DD	0ff000000H
	DD	0ff000000H
	DD	0ff000000H
	DD	0ff000000H
	DD	0ff000000H
	DD	0ff000000H
	DD	0ff000000H
	DD	0b5000000H
	DD	03289fa1H
	DD	042ffffH
	DD	03ffaffH
	DD	03ffaffH
	DD	03ffaffH
	DD	03ffaffH
	DD	03ffbffH
	DD	03ffaffH
	DD	03ffaffH
	DD	03ffaffH
	DD	042ffffH
	DD	02db2b4H
	DD	03d010303H
	DD	0b5000000H
	DD	0f6000000H
	DD	0ff000000H
	DD	0d3000000H
	DD	022888aH
	DD	043ffffH
	DD	03ffcffH
	DD	03ffcffH
	DD	03ffcffH
	DD	03ffcffH
	DD	03ffcffH
	DD	03ffcffH
	DD	03ffcffH
	DD	03ffcffH
	DD	041ffffH
	DD	034d0d3H
	DD	020000000H
	DD	092aa2a4H
	DD	044ffffH
	DD	040fcffH
	DD	03ffaffH
	DD	03ffaffH
	DD	03ffbffH
	DD	03ffcffH
	DD	03ffcffH
	DD	03ffcffH
	DD	03ffcffH
	DD	03ffcffH
	DD	03ffcffH
	DD	03ffcffH
	DD	03ffcffH
	DD	03ffcffH
	DD	03ffcffH
	DD	03ffcffH
	DD	041ffffH
	DD	042ffffH
	DD	04228a8cH
	DD	0a5000000H
	DD	0ff000000H
	DD	0ff000000H
	DD	0ff000000H
	DD	0ff000000H
	DD	0ffb5b5b5H
	DD	0ffffffffH
	DD	0ffffffffH
	DD	0ffffffffH
	DD	0ffffffffH
	DD	0ffffffffH
	DD	0ffffffffH
	DD	0ffffffffH
	DD	0ffffffffH
	DD	0ffffffffH
	DD	0ffffffffH
	DD	0ffffffffH
	DD	0ffffffffH
	DD	0ffffffffH
	DD	0ffffffffH
	DD	0ffffffffH
	DD	0ffffffffH
	DD	0ffffffffH
	DD	0ffffffffH
	DD	0ffffffffH
	DD	0ffffffffH
	DD	0ffffffffH
	DD	0ffffffffH
	DD	0ffffffffH
	DD	0ffffffffH
	DD	0ffffffffH
	DD	0ffffffffH
	DD	0ffffffffH
	DD	0ffffffffH
	DD	0ffffffffH
	DD	0ffffffffH
	DD	0ffffffffH
	DD	0ffffffffH
	DD	0ffffffffH
	DD	0ffffffffH
	DD	0ffffffffH
	DD	0ffffffffH
	DD	0ffffffffH
	DD	0ffffffffH
	DD	0ffffffffH
	DD	0ffffffffH
	DD	0ffffffffH
	DD	0ffffffffH
	DD	0ffffffffH
	DD	0ffffffffH
	DD	0ffffffffH
	DD	0ffffffffH
	DD	0ffffffffH
	DD	0ffffffffH
	DD	0ffffffffH
	DD	0ffffffffH
	DD	0ffffffffH
	DD	0ffffffffH
	DD	0ffffffffH
	DD	0ffffffffH
	DD	0ffffffffH
	DD	0ffffffffH
	DD	0ffffffffH
	DD	0ffffffffH
	DD	0ffffffffH
	DD	0ffffffffH
	DD	0ffffffffH
	DD	0ffffffffH
	DD	0ffffffffH
	DD	0ffffffffH
	DD	0ffffffffH
	DD	0ffffffffH
	DD	0ffffffffH
	DD	0ffffffffH
	DD	0ffffffffH
	DD	0ffffffffH
	DD	0ffffffffH
	DD	0ffffffffH
	DD	0ffffffffH
	DD	0ffffffffH
	DD	0ffffffffH
	DD	0ffffffffH
	DD	0ffb5b5b5H
	DD	0ff000000H
	DD	0ff000000H
	DD	0b8000000H
	DD	02babaeH
	DD	042ffffH
	DD	03ffaffH
	DD	03ffaffH
	DD	03ffaffH
	DD	03ff9feH
	DD	03df2f7H
	DD	03df3f7H
	DD	03df3f7H
	DD	03df3f7H
	DD	03df3f7H
	DD	03df3f7H
	DD	03df3f7H
	DD	03df3f7H
	DD	03df3f7H
	DD	03df4f8H
	DD	041ffffH
	DD	041feffH
	DD	03ffaffH
	DD	03ffaffH
	DD	03ffaffH
	DD	042ffffH
	DD	022eb5b8H
	DD	012051314H
	DD	032eb4b7H
	DD	043ffffH
	DD	040feffH
	DD	03ffaffH
	DD	03ffaffH
	DD	040feffH
	DD	041ffffH
	DD	041ffffH
	DD	041ffffH
	DD	041ffffH
	DD	041ffffH
	DD	041ffffH
	DD	041ffffH
	DD	041ffffH
	DD	041ffffH
	DD	041feffH
	DD	03ffaffH
	DD	03ffaffH
	DD	03ffaffH
	DD	03ffaffH
	DD	03ffaffH
	DD	03ffaffH
	DD	03ffaffH
	DD	03ffaffH
	DD	03ffaffH
	DD	03ffaffH
	DD	042ffffH
	DD	027999bH
	DD	04c000000H
	DD	0be000000H
	DD	0f9000000H
	DD	0ff000000H
	DD	0ff000000H
	DD	0ff000000H
	DD	0ff000000H
	DD	0ff000000H
	DD	0ff000000H
	DD	0ff000000H
	DD	0ff000000H
	DD	0ff000000H
	DD	0ff000000H
	DD	0490c3031H
	DD	03df2f6H
	DD	040feffH
	DD	03ffaffH
	DD	03ffaffH
	DD	03ffaffH
	DD	041feffH
	DD	041ffffH
	DD	041ffffH
	DD	041ffffH
	DD	041ffffH
	DD	041ffffH
	DD	041ffffH
	DD	041ffffH
	DD	041ffffH
	DD	041ffffH
	DD	041ffffH
	DD	041ffffH
	DD	043ffffH
	DD	041feffH
	DD	034d0d3H
	DD	06114344H
	DD	035000000H
	DD	068000000H
	DD	0a9000000H
	DD	0ea000000H
	DD	0ff000000H
	DD	0ff000000H
	DD	0ff000000H
	DD	0ff000000H
	DD	0ff000000H
	DD	0ff000000H
	DD	0ff000000H
	DD	0ff000000H
	DD	0f8000000H
	DD	04b071b1bH
	DD	02eb6baH
	DD	042ffffH
	DD	043ffffH
	DD	041ffffH
	DD	041ffffH
	DD	041ffffH
	DD	041ffffH
	DD	041ffffH
	DD	041ffffH
	DD	041ffffH
	DD	041ffffH
	DD	041ffffH
	DD	041ffffH
	DD	040fdffH
	DD	03ffaffH
	DD	03ffaffH
	DD	03ffaffH
	DD	040ffffH
	DD	041fcfdH
	DD	0f0e3a3bH
	DD	01238c8dH
	DD	043ffffH
	DD	03ffaffH
	DD	03ffaffH
	DD	03ffaffH
	DD	040fcffH
	DD	041ffffH
	DD	041ffffH
	DD	041ffffH
	DD	041ffffH
	DD	041ffffH
	DD	041ffffH
	DD	041ffffH
	DD	041ffffH
	DD	041ffffH
	DD	041ffffH
	DD	041ffffH
	DD	042ffffH
	DD	042ffffH
	DD	03df3f7H
	DD	01238b8dH
	DD	01c040f0fH
	DD	04b000000H
	DD	087000000H
	DD	0ce000000H
	DD	0f8000000H
	DD	0ff000000H
	DD	0ff000000H
	DD	0ff000000H
	DD	0ad000000H
	DD	02ba8aaH
	DD	042ffffH
	DD	03ffaffH
	DD	03ffaffH
	DD	041ffffH
	DD	039e3e6H
	DD	025041112H
	DD	099000000H
	DD	0ea000000H
	DD	0ff000000H
	DD	0ff000000H
	DD	0ff000000H
	DD	0ff000000H
	DD	0ff000000H
	DD	0ff000000H
	DD	0ff000000H
	DD	0ff000000H
	DD	0ff000000H
	DD	0ff000000H
	DD	0a8000000H
	DD	02fbabdH
	DD	042ffffH
	DD	03ffaffH
	DD	03ffaffH
	DD	041ffffH
	DD	036d5d9H
	DD	029051414H
	DD	09f000000H
	DD	0ec000000H
	DD	0ff000000H
	DD	0ff000000H
	DD	0ff000000H
	DD	0ff000000H
	DD	099000000H
	DD	030bec1H
	DD	041ffffH
	DD	03ffaffH
	DD	03ffaffH
	DD	040ffffH
	DD	0136d3d7H
	DD	0c0b2b2bH
	DD	036d5d9H
	DD	041ffffH
	DD	03ffaffH
	DD	03ffaffH
	DD	042ffffH
	DD	02eb4b8H
	DD	045000000H
	DD	0b5000000H
	DD	0f4000000H
	DD	0ff000000H
	DD	0ff000000H
	DD	0ff000000H
	DD	0ff000000H
	DD	0ff000000H
	DD	0ff000000H
	DD	0ff000000H
	DD	085000100H
	DD	036d3d7H
	DD	041ffffH
	DD	03ffaffH
	DD	03ffaffH
	DD	03ffaffH
	DD	03ffaffH
	DD	03ffaffH
	DD	03ffaffH
	DD	03ffaffH
	DD	03ffaffH
	DD	043ffffH
	DD	0218385H
	DD	05d000000H
	DD	0c6000000H
	DD	0fb000000H
	DD	0ff000000H
	DD	095010607H
	DD	031bdbeH
	DD	044ffffH
	DD	041ffffH
	DD	041ffffH
	DD	041ffffH
	DD	040feffH
	DD	03ffaffH
	DD	03ffaffH
	DD	03ffaffH
	DD	03ffaffH
	DD	042ffffH
	DD	0127999bH
	DD	057000000H
	DD	03b051414H
	DD	02eb3b7H
	DD	042ffffH
	DD	043ffffH
	DD	041ffffH
	DD	041ffffH
	DD	041ffffH
	DD	041ffffH
	DD	041ffffH
	DD	041ffffH
	DD	041ffffH
	DD	041ffffH
	DD	041ffffH
	DD	041ffffH
	DD	040fdffH
	DD	03ffaffH
	DD	03ffaffH
	DD	03ffaffH
	DD	040ffffH
	DD	041fefeH
	DD	023144e4fH
	DD	0e2000000H
	DD	0ff000000H
	DD	0ff000000H
	DD	0ff000000H
	DD	0ffb5b5b5H
	DD	0ffffffffH
	DD	0ffffffffH
	DD	0ffffffffH
	DD	0ffffffffH
	DD	0ffffffffH
	DD	0ffffffffH
	DD	0ffffffffH
	DD	0ffffffffH
	DD	0ffffffffH
	DD	0ffffffffH
	DD	0ffffffffH
	DD	0ffffffffH
	DD	0ffffffffH
	DD	0ffffffffH
	DD	0ffffffffH
	DD	0ffffffffH
	DD	0ffffffffH
	DD	0ffffffffH
	DD	0ffffffffH
	DD	0ffffffffH
	DD	0ffffffffH
	DD	0ffffffffH
	DD	0ffffffffH
	DD	0ffffffffH
	DD	0ffffffffH
	DD	0ffffffffH
	DD	0ffffffffH
	DD	0ffffffffH
	DD	0ffffffffH
	DD	0ffffffffH
	DD	0ffffffffH
	DD	0ffffffffH
	DD	0ffffffffH
	DD	0ffffffffH
	DD	0ffffffffH
	DD	0ffffffffH
	DD	0ffffffffH
	DD	0ffffffffH
	DD	0ffffffffH
	DD	0ffffffffH
	DD	0ffffffffH
	DD	0ffffffffH
	DD	0ffffffffH
	DD	0ffffffffH
	DD	0ffffffffH
	DD	0ffffffffH
	DD	0ffffffffH
	DD	0ffffffffH
	DD	0ffffffffH
	DD	0ffffffffH
	DD	0ffffffffH
	DD	0ffffffffH
	DD	0ffffffffH
	DD	0ffffffffH
	DD	0ffffffffH
	DD	0ffffffffH
	DD	0ffffffffH
	DD	0ffffffffH
	DD	0ffffffffH
	DD	0ffffffffH
	DD	0ffffffffH
	DD	0ffffffffH
	DD	0ffffffffH
	DD	0ffffffffH
	DD	0ffffffffH
	DD	0ffffffffH
	DD	0ffffffffH
	DD	0ffffffffH
	DD	0ffffffffH
	DD	0ffffffffH
	DD	0ffffffffH
	DD	0ffffffffH
	DD	0ffffffffH
	DD	0ffffffffH
	DD	0ffffffffH
	DD	0ffffffffH
	DD	0ffb5b5b5H
	DD	0ff000000H
	DD	0ff000000H
	DD	084030d0dH
	DD	035d1d3H
	DD	041ffffH
	DD	03ffaffH
	DD	03ffaffH
	DD	03ffaffH
	DD	03ffaffH
	DD	040fdffH
	DD	040feffH
	DD	040feffH
	DD	040feffH
	DD	040feffH
	DD	040feffH
	DD	040feffH
	DD	040feffH
	DD	040feffH
	DD	040feffH
	DD	03ffbffH
	DD	03ffaffH
	DD	03ffaffH
	DD	03ffaffH
	DD	043ffffH
	DD	03ae1e4H
	DD	0a0a2627H
	DD	04238a8dH
	DD	043ffffH
	DD	03ffbffH
	DD	03ffaffH
	DD	03ffbffH
	DD	041ffffH
	DD	037dadeH
	DD	02eb8bcH
	DD	02fbbbfH
	DD	02fbbbfH
	DD	02fbbbfH
	DD	02fbbbfH
	DD	02fbbbfH
	DD	02fbbbfH
	DD	02fbbbfH
	DD	02fb9bdH
	DD	031c2c5H
	DD	03ffaffH
	DD	03ffaffH
	DD	03ffaffH
	DD	03ffaffH
	DD	03ffaffH
	DD	03ffaffH
	DD	03ffaffH
	DD	03ffaffH
	DD	03ffaffH
	DD	03ffaffH
	DD	043ffffH
	DD	06185f5fH
	DD	06b000000H
	DD	0cd000000H
	DD	0fe000000H
	DD	0ff000000H
	DD	0ff000000H
	DD	0ff000000H
	DD	0ff000000H
	DD	0ff000000H
	DD	0ff000000H
	DD	0ff000000H
	DD	0ff000000H
	DD	0ff000000H
	DD	0f5000000H
	DD	01c165656H
	DD	043ffffH
	DD	03ffaffH
	DD	03ffaffH
	DD	03ffaffH
	DD	03ffcffH
	DD	034ced2H
	DD	02eb9bdH
	DD	02fbbbfH
	DD	02fbbbfH
	DD	02fbbbfH
	DD	02fbbbfH
	DD	02fbbbfH
	DD	02fbbbfH
	DD	02fbbbfH
	DD	02fbbbfH
	DD	02fbcc0H
	DD	02fb9bdH
	DD	026979aH
	DD	07155355H
	DD	020030e0eH
	DD	044000000H
	DD	071000000H
	DD	0aa000000H
	DD	0e3000000H
	DD	0fd000000H
	DD	0ff000000H
	DD	0ff000000H
	DD	0ff000000H
	DD	0ff000000H
	DD	0ff000000H
	DD	0ff000000H
	DD	0ff000000H
	DD	0ff000000H
	DD	0ff000000H
	DD	0e3000000H
	DD	06a020909H
	DD	07196264H
	DD	029a4a7H
	DD	02fbbbfH
	DD	02fbbbfH
	DD	02fbbbfH
	DD	02fbbbfH
	DD	02fbbbfH
	DD	02fbbbfH
	DD	02fbbbfH
	DD	02fbbbfH
	DD	02fbbbfH
	DD	02fbabeH
	DD	03ae7ebH
	DD	040feffH
	DD	03ffaffH
	DD	03ffaffH
	DD	03ffaffH
	DD	041ffffH
	DD	02cadaeH
	DD	031c2c7H
	DD	041ffffH
	DD	03ffaffH
	DD	03ffaffH
	DD	040fcffH
	DD	03bebf0H
	DD	02fbabeH
	DD	02fbbbfH
	DD	02fbbbfH
	DD	02fbbbfH
	DD	02fbbbfH
	DD	02fbbbfH
	DD	02fbbbfH
	DD	02fbbbfH
	DD	02fbbbfH
	DD	02fbbbfH
	DD	030bdc1H
	DD	02babaeH
	DD	011f7b7dH
	DD	0110b2d2dH
	DD	031000000H
	DD	05c000000H
	DD	08b000000H
	DD	0ca000000H
	DD	0f5000000H
	DD	0ff000000H
	DD	0ff000000H
	DD	0ff000000H
	DD	0ff000000H
	DD	077041111H
	DD	036d5d9H
	DD	040ffffH
	DD	03ffaffH
	DD	03ffaffH
	DD	041ffffH
	DD	032c6caH
	DD	039000000H
	DD	0b0000000H
	DD	0f3000000H
	DD	0ff000000H
	DD	0ff000000H
	DD	0ff000000H
	DD	0ff000000H
	DD	0ff000000H
	DD	0ff000000H
	DD	0ff000000H
	DD	0ff000000H
	DD	0ff000000H
	DD	0ff000000H
	DD	075061617H
	DD	037d8dcH
	DD	041ffffH
	DD	03ffaffH
	DD	03ffaffH
	DD	042ffffH
	DD	02fbbbcH
	DD	043000000H
	DD	0b4000000H
	DD	0f4000000H
	DD	0ff000000H
	DD	0ff000000H
	DD	0ff000000H
	DD	0ff000000H
	DD	071030e0eH
	DD	039e2e5H
	DD	041ffffH
	DD	03ffaffH
	DD	03ffaffH
	DD	042ffffH
	DD	0129a0a2H
	DD	080f3c3eH
	DD	03ffbffH
	DD	040fcffH
	DD	03ffaffH
	DD	03ffaffH
	DD	042ffffH
	DD	0218183H
	DD	05e000000H
	DD	0c8000000H
	DD	0fa000000H
	DD	0ff000000H
	DD	0ff000000H
	DD	0ff000000H
	DD	0ff000000H
	DD	0ff000000H
	DD	0ff000000H
	DD	0ff000000H
	DD	0550a2929H
	DD	03cedf0H
	DD	040ffffH
	DD	03ffaffH
	DD	03ffaffH
	DD	03ffaffH
	DD	03ffaffH
	DD	03ffaffH
	DD	03ffaffH
	DD	03ffaffH
	DD	040fcffH
	DD	040fbffH
	DD	0a155355H
	DD	076000000H
	DD	0d7000000H
	DD	0fe000000H
	DD	0ff000000H
	DD	084041111H
	DD	02baaadH
	DD	030bec2H
	DD	02fbbbfH
	DD	02fbbbfH
	DD	02eb8bcH
	DD	036d4d8H
	DD	03ffcffH
	DD	03ffaffH
	DD	03ffaffH
	DD	03ffaffH
	DD	043ffffH
	DD	05185f5fH
	DD	06f000000H
	DD	0b8000000H
	DD	064020707H
	DD	0c175a5bH
	DD	029a2a5H
	DD	02fbbbfH
	DD	02fbbbfH
	DD	02fbbbfH
	DD	02fbbbfH
	DD	02fbbbfH
	DD	02fbbbfH
	DD	02fbbbfH
	DD	02fbbbfH
	DD	02fbbbfH
	DD	02fbabeH
	DD	03ae4e7H
	DD	040feffH
	DD	03ffaffH
	DD	03ffaffH
	DD	03ffaffH
	DD	042ffffH
	DD	02cababH
	DD	08f000000H
	DD	0ff000000H
	DD	0ff000000H
	DD	0ff000000H
	DD	0ffb5b5b5H
	DD	0ffffffffH
	DD	0ffffffffH
	DD	0ffffffffH
	DD	0ffffffffH
	DD	0ffffffffH
	DD	0ffffffffH
	DD	0ffffffffH
	DD	0ffffffffH
	DD	0ffffffffH
	DD	0ffffffffH
	DD	0ffffffffH
	DD	0ffffffffH
	DD	0ffffffffH
	DD	0ffffffffH
	DD	0ffffffffH
	DD	0ffffffffH
	DD	0ffffffffH
	DD	0ffffffffH
	DD	0ffffffffH
	DD	0ffffffffH
	DD	0ffffffffH
	DD	0ffffffffH
	DD	0ffffffffH
	DD	0ffffffffH
	DD	0ffffffffH
	DD	0ffffffffH
	DD	0ffffffffH
	DD	0ffffffffH
	DD	0ffffffffH
	DD	0ffffffffH
	DD	0ffffffffH
	DD	0ffffffffH
	DD	0ffffffffH
	DD	0ffffffffH
	DD	0ffffffffH
	DD	0ffffffffH
	DD	0ffffffffH
	DD	0ffffffffH
	DD	0ffffffffH
	DD	0ffffffffH
	DD	0ffffffffH
	DD	0ffffffffH
	DD	0ffffffffH
	DD	0ffffffffH
	DD	0ffffffffH
	DD	0ffffffffH
	DD	0ffffffffH
	DD	0ffffffffH
	DD	0ffffffffH
	DD	0ffffffffH
	DD	0ffffffffH
	DD	0ffffffffH
	DD	0ffffffffH
	DD	0ffffffffH
	DD	0ffffffffH
	DD	0ffffffffH
	DD	0ffffffffH
	DD	0ffffffffH
	DD	0ffffffffH
	DD	0ffffffffH
	DD	0ffffffffH
	DD	0ffffffffH
	DD	0ffffffffH
	DD	0ffffffffH
	DD	0ffffffffH
	DD	0ffffffffH
	DD	0ffffffffH
	DD	0ffffffffH
	DD	0ffffffffH
	DD	0ffffffffH
	DD	0ffffffffH
	DD	0ffffffffH
	DD	0ffffffffH
	DD	0ffffffffH
	DD	0ffffffffH
	DD	0ffffffffH
	DD	0ffb5b5b5H
	DD	0ff000000H
	DD	0ff000000H
	DD	04f0c2d2dH
	DD	03ceef3H
	DD	040ffffH
	DD	03ffaffH
	DD	03ffaffH
	DD	03ffaffH
	DD	03ffaffH
	DD	03ffaffH
	DD	03ffaffH
	DD	03ffaffH
	DD	03ffaffH
	DD	03ffaffH
	DD	03ffaffH
	DD	03ffaffH
	DD	03ffaffH
	DD	03ffaffH
	DD	03ffaffH
	DD	03ffaffH
	DD	03ffbffH
	DD	040ffffH
	DD	043ffffH
	DD	037d9ddH
	DD	0b0c3031H
	DD	0100d3132H
	DD	03ef4f5H
	DD	040feffH
	DD	03ffaffH
	DD	03ffbffH
	DD	041ffffH
	DD	022aa3a6H
	DD	01d051010H
	DD	02f010303H
	DD	033020606H
	DD	034020606H
	DD	034020606H
	DD	034020606H
	DD	034020606H
	DD	034020606H
	DD	034020606H
	DD	034000000H
	DD	0c0f3a3bH
	DD	040fdffH
	DD	03ffbffH
	DD	03ffaffH
	DD	03ffaffH
	DD	03ffaffH
	DD	03ffaffH
	DD	03ffaffH
	DD	03ffaffH
	DD	03ffaffH
	DD	040fdffH
	DD	03ef6fbH
	DD	0140d3435H
	DD	089000000H
	DD	0e0000000H
	DD	0ff000000H
	DD	0ff000000H
	DD	0ff000000H
	DD	0ff000000H
	DD	0ff000000H
	DD	0ff000000H
	DD	0ff000000H
	DD	0ff000000H
	DD	0ff000000H
	DD	0ff000000H
	DD	0c5000000H
	DD	09238c8eH
	DD	042ffffH
	DD	03ffaffH
	DD	03ffaffH
	DD	03ffcffH
	DD	03ef7fcH
	DD	0d0c3031H
	DD	030000000H
	DD	033020606H
	DD	034020606H
	DD	034020606H
	DD	034020606H
	DD	034020606H
	DD	034020606H
	DD	034020606H
	DD	034020606H
	DD	034020606H
	DD	035020505H
	DD	042000000H
	DD	057000000H
	DD	06e000000H
	DD	08d000000H
	DD	0bd000000H
	DD	0e9000000H
	DD	0fc000000H
	DD	0ff000000H
	DD	0ff000000H
	DD	0ff000000H
	DD	0ff000000H
	DD	0ff000000H
	DD	0ff000000H
	DD	0ff000000H
	DD	0ff000000H
	DD	0ff000000H
	DD	0ff000000H
	DD	0ff000000H
	DD	0ec000000H
	DD	0a0000000H
	DD	05b000000H
	DD	03b020505H
	DD	035020606H
	DD	034020606H
	DD	034020606H
	DD	034020606H
	DD	034020606H
	DD	034020606H
	DD	034020606H
	DD	034020606H
	DD	037000000H
	DD	0150c2e2fH
	DD	03bedf1H
	DD	040fdffH
	DD	03ffaffH
	DD	03ffaffH
	DD	040fcffH
	DD	037dbdfH
	DD	03cf0f5H
	DD	03ffbffH
	DD	03ffaffH
	DD	03ffaffH
	DD	042ffffH
	DD	02289c9fH
	DD	024000000H
	DD	032020505H
	DD	034020606H
	DD	034020606H
	DD	034020606H
	DD	034020606H
	DD	034020606H
	DD	034020606H
	DD	034020606H
	DD	034020606H
	DD	033020606H
	DD	03a010202H
	DD	04b000000H
	DD	061000000H
	DD	07d000000H
	DD	0a4000000H
	DD	0d5000000H
	DD	0f6000000H
	DD	0ff000000H
	DD	0ff000000H
	DD	0ff000000H
	DD	0ff000000H
	DD	0ff000000H
	DD	0460a2728H
	DD	03ffbffH
	DD	03ffbffH
	DD	03ffaffH
	DD	03ffaffH
	DD	042ffffH
	DD	0238c8eH
	DD	052000000H
	DD	0c1000000H
	DD	0fa000000H
	DD	0ff000000H
	DD	0ff000000H
	DD	0ff000000H
	DD	0ff000000H
	DD	0ff000000H
	DD	0ff000000H
	DD	0ff000000H
	DD	0ff000000H
	DD	0ff000000H
	DD	0ff000000H
	DD	03b0e393aH
	DD	03ffbffH
	DD	040fdffH
	DD	03ffaffH
	DD	03ffaffH
	DD	042ffffH
	DD	023898cH
	DD	05c000000H
	DD	0c7000000H
	DD	0fa000000H
	DD	0ff000000H
	DD	0ff000000H
	DD	0ff000000H
	DD	0f6000000H
	DD	03c114243H
	DD	03ef4f9H
	DD	040fdffH
	DD	03ffaffH
	DD	03ffaffH
	DD	043ffffH
	DD	011c6e70H
	DD	01155253H
	DD	043ffffH
	DD	03ffaffH
	DD	03ffaffH
	DD	03ffbffH
	DD	041ffffH
	DD	0b155152H
	DD	077000000H
	DD	0d8000000H
	DD	0fe000000H
	DD	0ff000000H
	DD	0ff000000H
	DD	0ff000000H
	DD	0ff000000H
	DD	0ff000000H
	DD	0ff000000H
	DD	0ef000000H
	DD	028165557H
	DD	040fcffH
	DD	040fcffH
	DD	03ffaffH
	DD	03ffaffH
	DD	03ffaffH
	DD	03ffaffH
	DD	03ffaffH
	DD	03ffaffH
	DD	03ffaffH
	DD	040ffffH
	DD	03ae7ecH
	DD	01e081f20H
	DD	092000000H
	DD	0e9000000H
	DD	0ff000000H
	DD	0ff000000H
	DD	0f0000101H
	DD	091020707H
	DD	060020606H
	DD	03b020606H
	DD	035020606H
	DD	02d000000H
	DD	05218284H
	DD	041ffffH
	DD	03ffaffH
	DD	03ffaffH
	DD	040fcffH
	DD	040fbffH
	DD	0100f3a3bH
	DD	088000000H
	DD	0e1000000H
	DD	0ef000000H
	DD	0a8000000H
	DD	05f000101H
	DD	03b020505H
	DD	035020606H
	DD	034020606H
	DD	034020606H
	DD	034020606H
	DD	034020606H
	DD	034020606H
	DD	034020606H
	DD	034020606H
	DD	038010303H
	DD	01a092323H
	DD	03ae5eaH
	DD	040ffffH
	DD	03ffaffH
	DD	03ffaffH
	DD	041ffffH
	DD	031c0c4H
	DD	05d020909H
	DD	0ee000000H
	DD	0ff000000H
	DD	0ff000000H
	DD	0ffb5b5b5H
	DD	0ffffffffH
	DD	0ffffffffH
	DD	0ffffffffH
	DD	0ffffffffH
	DD	0ffffffffH
	DD	0ffffffffH
	DD	0ffffffffH
	DD	0ffffffffH
	DD	0ffffffffH
	DD	0ffffffffH
	DD	0ffffffffH
	DD	0ffffffffH
	DD	0ffffffffH
	DD	0ffffffffH
	DD	0ffffffffH
	DD	0ffffffffH
	DD	0ffffffffH
	DD	0ffffffffH
	DD	0ffffffffH
	DD	0ffffffffH
	DD	0ffffffffH
	DD	0ffffffffH
	DD	0ffffffffH
	DD	0ffffffffH
	DD	0ffffffffH
	DD	0ffffffffH
	DD	0ffffffffH
	DD	0ffffffffH
	DD	0ffffffffH
	DD	0ffffffffH
	DD	0ffffffffH
	DD	0ffffffffH
	DD	0ffffffffH
	DD	0ffffffffH
	DD	0ffffffffH
	DD	0ffffffffH
	DD	0ffffffffH
	DD	0ffffffffH
	DD	0ffffffffH
	DD	0ffffffffH
	DD	0ffffffffH
	DD	0ffffffffH
	DD	0ffffffffH
	DD	0ffffffffH
	DD	0ffffffffH
	DD	0ffffffffH
	DD	0ffffffffH
	DD	0ffffffffH
	DD	0ffffffffH
	DD	0ffffffffH
	DD	0ffffffffH
	DD	0ffffffffH
	DD	0ffffffffH
	DD	0ffffffffH
	DD	0ffffffffH
	DD	0ffffffffH
	DD	0ffffffffH
	DD	0ffffffffH
	DD	0ffffffffH
	DD	0ffffffffH
	DD	0ffffffffH
	DD	0ffffffffH
	DD	0ffffffffH
	DD	0ffffffffH
	DD	0ffffffffH
	DD	0ffffffffH
	DD	0ffffffffH
	DD	0ffffffffH
	DD	0ffffffffH
	DD	0ffffffffH
	DD	0ffffffffH
	DD	0ffffffffH
	DD	0ffffffffH
	DD	0ffffffffH
	DD	0ffffffffH
	DD	0ffffffffH
	DD	0ffb5b5b5H
	DD	0ff000000H
	DD	0f9000000H
	DD	01f145051H
	DD	043ffffH
	DD	03ffaffH
	DD	03ffaffH
	DD	03ffaffH
	DD	03ffaffH
	DD	040fdffH
	DD	03ffaffH
	DD	03ffaffH
	DD	03ffaffH
	DD	03ffaffH
	DD	03ffaffH
	DD	03ffaffH
	DD	03ffbffH
	DD	041ffffH
	DD	041ffffH
	DD	041ffffH
	DD	042ffffH
	DD	042ffffH
	DD	03ceff3H
	DD	026979aH
	DD	01b061818H
	DD	037000000H
	DD	03228587H
	DD	043ffffH
	DD	03ffaffH
	DD	03ffaffH
	DD	040fdffH
	DD	03ff8fdH
	DD	0c134b4cH
	DD	052000000H
	DD	07c000000H
	DD	092000000H
	DD	096000000H
	DD	096000000H
	DD	096000000H
	DD	096000000H
	DD	096000000H
	DD	09a000000H
	DD	087000000H
	DD	013196466H
	DD	041ffffH
	DD	03ffbffH
	DD	03ffaffH
	DD	03ffaffH
	DD	03ffcffH
	DD	03ffcffH
	DD	03ffaffH
	DD	03ffaffH
	DD	03ffaffH
	DD	040ffffH
	DD	03be8ecH
	DD	01d0a2627H
	DD	095000000H
	DD	0e2000000H
	DD	0f7000000H
	DD	0f5000000H
	DD	0f5000000H
	DD	0f5000000H
	DD	0f5000000H
	DD	0f5000000H
	DD	0f5000000H
	DD	0f5000000H
	DD	0f5000000H
	DD	0ff000000H
	DD	093000000H
	DD	031bfc2H
	DD	041ffffH
	DD	03ffaffH
	DD	03ffaffH
	DD	040feffH
	DD	03ae3e8H
	DD	020061617H
	DD	075000000H
	DD	091000000H
	DD	097000000H
	DD	096000000H
	DD	096000000H
	DD	096000000H
	DD	096000000H
	DD	096000000H
	DD	096000000H
	DD	096000000H
	DD	096000000H
	DD	098000000H
	DD	0a4000000H
	DD	0b9000000H
	DD	0e2000000H
	DD	0f7000000H
	DD	0ff000000H
	DD	0ff000000H
	DD	0ff000000H
	DD	0ff000000H
	DD	0ff000000H
	DD	0ff000000H
	DD	0ff000000H
	DD	0ff000000H
	DD	0ff000000H
	DD	0ff000000H
	DD	0ff000000H
	DD	0f8000000H
	DD	0f6000000H
	DD	0f4000000H
	DD	0e4000000H
	DD	0c5000000H
	DD	0aa000000H
	DD	09a000000H
	DD	096000000H
	DD	096000000H
	DD	096000000H
	DD	096000000H
	DD	096000000H
	DD	096000000H
	DD	098000000H
	DD	090000000H
	DD	02a071d1dH
	DD	03ae8ecH
	DD	040feffH
	DD	03ffaffH
	DD	03ffaffH
	DD	03ffaffH
	DD	03ff9fdH
	DD	03ffbffH
	DD	03ffaffH
	DD	03ffaffH
	DD	03ffaffH
	DD	042ffffH
	DD	031d7577H
	DD	04e000000H
	DD	086000000H
	DD	096000000H
	DD	096000000H
	DD	096000000H
	DD	096000000H
	DD	096000000H
	DD	096000000H
	DD	096000000H
	DD	096000000H
	DD	096000000H
	DD	097000000H
	DD	09c000000H
	DD	0ac000000H
	DD	0cb000000H
	DD	0ef000000H
	DD	0fc000000H
	DD	0ff000000H
	DD	0ff000000H
	DD	0ff000000H
	DD	0ff000000H
	DD	0ff000000H
	DD	0e9000000H
	DD	023185d5fH
	DD	041ffffH
	DD	03ffbffH
	DD	03ffaffH
	DD	03ffaffH
	DD	043ffffH
	DD	07155556H
	DD	072000000H
	DD	0d1000000H
	DD	0fe000000H
	DD	0ff000000H
	DD	0ff000000H
	DD	0ff000000H
	DD	0ff000000H
	DD	0ff000000H
	DD	0ff000000H
	DD	0ff000000H
	DD	0ff000000H
	DD	0ff000000H
	DD	0eb000000H
	DD	018186261H
	DD	043ffffH
	DD	03ffaffH
	DD	03ffaffH
	DD	03ffbffH
	DD	041ffffH
	DD	0b144f50H
	DD	076000000H
	DD	0d7000000H
	DD	0fe000000H
	DD	0ff000000H
	DD	0ff000000H
	DD	0ff000000H
	DD	0e5000000H
	DD	0111b6c6eH
	DD	042ffffH
	DD	03ffbffH
	DD	03ffaffH
	DD	040fdffH
	DD	03ff9ffH
	DD	0e13494bH
	DD	05248d8fH
	DD	042ffffH
	DD	03ffaffH
	DD	03ffaffH
	DD	03ffcffH
	DD	03ef5f9H
	DD	01a082122H
	DD	094000000H
	DD	0e5000000H
	DD	0ff000000H
	DD	0ff000000H
	DD	0ff000000H
	DD	0ff000000H
	DD	0ff000000H
	DD	0ff000000H
	DD	0ff000000H
	DD	0d7000000H
	DD	0218385H
	DD	043ffffH
	DD	03ffaffH
	DD	03ffaffH
	DD	03ffaffH
	DD	03ffcffH
	DD	040fdffH
	DD	03ffaffH
	DD	03ffaffH
	DD	03ffaffH
	DD	041ffffH
	DD	038e0e5H
	DD	023030e0eH
	DD	09e000000H
	DD	0e8000000H
	DD	0f7000000H
	DD	0f5000000H
	DD	0f9000000H
	DD	0f0000000H
	DD	0c1000000H
	DD	09b000000H
	DD	09d000000H
	DD	06d000000H
	DD	02cacafH
	DD	042ffffH
	DD	03ffaffH
	DD	03ffaffH
	DD	041ffffH
	DD	037dbdfH
	DD	029061919H
	DD	09a000000H
	DD	0e2000000H
	DD	0f6000000H
	DD	0e6000000H
	DD	0c8000000H
	DD	0aa000000H
	DD	09b000000H
	DD	097000000H
	DD	096000000H
	DD	096000000H
	DD	096000000H
	DD	096000000H
	DD	096000000H
	DD	098000000H
	DD	091000000H
	DD	02c041111H
	DD	039e2e6H
	DD	041ffffH
	DD	03ffaffH
	DD	03ffaffH
	DD	042ffffH
	DD	02eb5b7H
	DD	053010304H
	DD	0d8000000H
	DD	0fe000000H
	DD	0ff000000H
	DD	0ffb5b5b5H
	DD	0ffffffffH
	DD	0ffffffffH
	DD	0ffffffffH
	DD	0ffffffffH
	DD	0ffffffffH
	DD	0ffffffffH
	DD	0ffffffffH
	DD	0ffffffffH
	DD	0ffffffffH
	DD	0ffffffffH
	DD	0ffffffffH
	DD	0ffffffffH
	DD	0ffffffffH
	DD	0ffffffffH
	DD	0ffffffffH
	DD	0ffffffffH
	DD	0ffffffffH
	DD	0ffffffffH
	DD	0ffffffffH
	DD	0ffffffffH
	DD	0ffffffffH
	DD	0ffffffffH
	DD	0ffffffffH
	DD	0ffffffffH
	DD	0ffffffffH
	DD	0ffffffffH
	DD	0ffffffffH
	DD	0ffffffffH
	DD	0ffffffffH
	DD	0ffffffffH
	DD	0ffffffffH
	DD	0ffffffffH
	DD	0ffffffffH
	DD	0ffffffffH
	DD	0ffffffffH
	DD	0ffffffffH
	DD	0ffffffffH
	DD	0ffffffffH
	DD	0ffffffffH
	DD	0ffffffffH
	DD	0ffffffffH
	DD	0ffffffffH
	DD	0ffffffffH
	DD	0ffffffffH
	DD	0ffffffffH
	DD	0ffffffffH
	DD	0ffffffffH
	DD	0ffffffffH
	DD	0ffffffffH
	DD	0ffffffffH
	DD	0ffffffffH
	DD	0ffffffffH
	DD	0ffffffffH
	DD	0ffffffffH
	DD	0ffffffffH
	DD	0ffffffffH
	DD	0ffffffffH
	DD	0ffffffffH
	DD	0ffffffffH
	DD	0ffffffffH
	DD	0ffffffffH
	DD	0ffffffffH
	DD	0ffffffffH
	DD	0ffffffffH
	DD	0ffffffffH
	DD	0ffffffffH
	DD	0ffffffffH
	DD	0ffffffffH
	DD	0ffffffffH
	DD	0ffffffffH
	DD	0ffffffffH
	DD	0ffffffffH
	DD	0ffffffffH
	DD	0ffffffffH
	DD	0ffffffffH
	DD	0ffffffffH
	DD	0ffb5b5b5H
	DD	0ff000000H
	DD	0ce000000H
	DD	0d218183H
	DD	042ffffH
	DD	03ffaffH
	DD	03ffaffH
	DD	03ffaffH
	DD	03ff9fdH
	DD	03ceceeH
	DD	041ffffH
	DD	03ffaffH
	DD	03ffaffH
	DD	03ffaffH
	DD	03ffaffH
	DD	03ffbffH
	DD	03ef6fbH
	DD	02fb9bdH
	DD	022bacafH
	DD	012eb4b8H
	DD	0289ea2H
	DD	021c7072H
	DD	0150a2728H
	DD	031000000H
	DD	05f000000H
	DD	05d000000H
	DD	029a0a2H
	DD	042ffffH
	DD	03ffaffH
	DD	03ffaffH
	DD	03ffbffH
	DD	040ffffH
	DD	02eb4b7H
	DD	018124546H
	DD	02b124445H
	DD	033124647H
	DD	033124647H
	DD	033124647H
	DD	033124647H
	DD	033124647H
	DD	033124647H
	DD	035124647H
	DD	02d0f3b3cH
	DD	052eb7baH
	DD	041ffffH
	DD	03ffaffH
	DD	03ffaffH
	DD	03ffcffH
	DD	03df0f4H
	DD	03df0f4H
	DD	03ffcffH
	DD	03ffaffH
	DD	03ffaffH
	DD	03ffaffH
	DD	040ffffH
	DD	012ba9acH
	DD	022134849H
	DD	037124546H
	DD	039124647H
	DD	039124647H
	DD	039124647H
	DD	039124647H
	DD	039124647H
	DD	039124647H
	DD	039124647H
	DD	039124647H
	DD	039124647H
	DD	03d124647H
	DD	01c103e3eH
	DD	03ae3e5H
	DD	040ffffH
	DD	03ffaffH
	DD	03ffaffH
	DD	03ffbffH
	DD	040feffH
	DD	05248d90H
	DD	024114142H
	DD	032124647H
	DD	033124647H
	DD	033124647H
	DD	033124647H
	DD	033124647H
	DD	033124647H
	DD	033124647H
	DD	033124647H
	DD	033124647H
	DD	033124647H
	DD	034124647H
	DD	036124647H
	DD	031124849H
	DD	07f071a1aH
	DD	0ff000000H
	DD	0ff000000H
	DD	0ff000000H
	DD	0ff000000H
	DD	0ff000000H
	DD	0ff000000H
	DD	0ff000000H
	DD	0ff000000H
	DD	0ff000000H
	DD	0ff000000H
	DD	0ff000000H
	DD	0c4010404H
	DD	03b0f3a3bH
	DD	03713494aH
	DD	039124647H
	DD	03a124647H
	DD	039124647H
	DD	036124647H
	DD	034124647H
	DD	033124647H
	DD	033124647H
	DD	033124647H
	DD	033124647H
	DD	033124647H
	DD	033124647H
	DD	035114445H
	DD	025155253H
	DD	0130bfc3H
	DD	041ffffH
	DD	03ffaffH
	DD	03ffaffH
	DD	03ffaffH
	DD	040feffH
	DD	038dddfH
	DD	03ef7fcH
	DD	03ffaffH
	DD	03ffaffH
	DD	03ffaffH
	DD	040ffffH
	DD	036d5d9H
	DD	015155455H
	DD	02d114344H
	DD	033124647H
	DD	033124647H
	DD	033124647H
	DD	033124647H
	DD	033124647H
	DD	033124647H
	DD	033124647H
	DD	033124647H
	DD	033124647H
	DD	033124647H
	DD	034124647H
	DD	033134849H
	DD	0490f3a3bH
	DD	0de000000H
	DD	0ff000000H
	DD	0ff000000H
	DD	0ff000000H
	DD	0ff000000H
	DD	0ff000000H
	DD	0ff000000H
	DD	0c7000000H
	DD	01269598H
	DD	042ffffH
	DD	03ffaffH
	DD	03ffaffH
	DD	040feffH
	DD	03df4f8H
	DD	0150d3233H
	DD	08b000000H
	DD	0e0000000H
	DD	0ff000000H
	DD	0ff000000H
	DD	0ff000000H
	DD	0ff000000H
	DD	0ff000000H
	DD	0ff000000H
	DD	0ff000000H
	DD	0ff000000H
	DD	0ff000000H
	DD	0ff000000H
	DD	0ba000000H
	DD	0527989bH
	DD	042ffffH
	DD	03ffaffH
	DD	03ffaffH
	DD	040fcffH
	DD	03df4f9H
	DD	019092324H
	DD	092000000H
	DD	0e4000000H
	DD	0ff000000H
	DD	0ff000000H
	DD	0ff000000H
	DD	0ff000000H
	DD	0bf000000H
	DD	0279a9bH
	DD	043ffffH
	DD	03ffaffH
	DD	03ffaffH
	DD	040ffffH
	DD	03be9ebH
	DD	06071e1eH
	DD	0232c7cbH
	DD	041ffffH
	DD	03ffaffH
	DD	03ffaffH
	DD	041ffffH
	DD	034cbcfH
	DD	02f030d0dH
	DD	0a9000000H
	DD	0ef000000H
	DD	0ff000000H
	DD	0ff000000H
	DD	0ff000000H
	DD	0ff000000H
	DD	0ff000000H
	DD	0ff000000H
	DD	0ff000000H
	DD	0a6000101H
	DD	02caeb1H
	DD	042ffffH
	DD	03ffaffH
	DD	03ffaffH
	DD	03ffbffH
	DD	03ef5f9H
	DD	03bebefH
	DD	03ffcffH
	DD	03ffaffH
	DD	03ffaffH
	DD	03ffbffH
	DD	040fcffH
	DD	04299fa2H
	DD	026114445H
	DD	037124546H
	DD	039124647H
	DD	039124647H
	DD	039124647H
	DD	038124647H
	DD	035124647H
	DD	033124647H
	DD	036114243H
	DD	024155052H
	DD	038dee0H
	DD	041ffffH
	DD	03ffaffH
	DD	03ffaffH
	DD	042ffffH
	DD	02fbbbdH
	DD	02c000000H
	DD	0300e3738H
	DD	035134849H
	DD	03a124647H
	DD	03a124647H
	DD	039124647H
	DD	036124647H
	DD	034124647H
	DD	033124647H
	DD	033124647H
	DD	033124647H
	DD	033124647H
	DD	033124647H
	DD	033124647H
	DD	035114445H
	DD	026155051H
	DD	02fb9bcH
	DD	040ffffH
	DD	03ffbffH
	DD	03ffaffH
	DD	03ffaffH
	DD	043ffffH
	DD	0218183H
	DD	065000000H
	DD	0d0000000H
	DD	0fd000000H
	DD	0ff000000H
	DD	0ffb5b5b5H
	DD	0ffffffffH
	DD	0ffffffffH
	DD	0ffffffffH
	DD	0ffffffffH
	DD	0ffffffffH
	DD	0ffffffffH
	DD	0ffffffffH
	DD	0ffffffffH
	DD	0ffffffffH
	DD	0ffffffffH
	DD	0ffffffffH
	DD	0ffffffffH
	DD	0ffffffffH
	DD	0ffffffffH
	DD	0ffffffffH
	DD	0ffffffffH
	DD	0ffffffffH
	DD	0ffffffffH
	DD	0ffffffffH
	DD	0ffffffffH
	DD	0ffffffffH
	DD	0ffffffffH
	DD	0ffffffffH
	DD	0ffffffffH
	DD	0ffffffffH
	DD	0ffffffffH
	DD	0ffffffffH
	DD	0ffffffffH
	DD	0ffffffffH
	DD	0ffffffffH
	DD	0ffffffffH
	DD	0ffffffffH
	DD	0ffffffffH
	DD	0ffffffffH
	DD	0ffffffffH
	DD	0ffffffffH
	DD	0ffffffffH
	DD	0ffffffffH
	DD	0ffffffffH
	DD	0ffffffffH
	DD	0ffffffffH
	DD	0ffffffffH
	DD	0ffffffffH
	DD	0ffffffffH
	DD	0ffffffffH
	DD	0ffffffffH
	DD	0ffffffffH
	DD	0ffffffffH
	DD	0ffffffffH
	DD	0ffffffffH
	DD	0ffffffffH
	DD	0ffffffffH
	DD	0ffffffffH
	DD	0ffffffffH
	DD	0ffffffffH
	DD	0ffffffffH
	DD	0ffffffffH
	DD	0ffffffffH
	DD	0ffffffffH
	DD	0ffffffffH
	DD	0ffffffffH
	DD	0ffffffffH
	DD	0ffffffffH
	DD	0ffffffffH
	DD	0ffffffffH
	DD	0ffffffffH
	DD	0ffffffffH
	DD	0ffffffffH
	DD	0ffffffffH
	DD	0ffffffffH
	DD	0ffffffffH
	DD	0ffffffffH
	DD	0ffffffffH
	DD	0ffffffffH
	DD	0ffffffffH
	DD	0ffffffffH
	DD	0ffb5b5b5H
	DD	0ff000000H
	DD	099000000H
	DD	030bec2H
	DD	041ffffH
	DD	03ffaffH
	DD	03ffaffH
	DD	040feffH
	DD	037dbe0H
	DD	06103d3fH
	DD	012fb8bbH
	DD	043ffffH
	DD	040fcffH
	DD	03ffaffH
	DD	03ffaffH
	DD	03ffbffH
	DD	040feffH
	DD	02eb6baH
	DD	0c0a2829H
	DD	027000000H
	DD	045000000H
	DD	04f000000H
	DD	060000000H
	DD	07b000000H
	DD	0a9000000H
	DD	09a000000H
	DD	0289b9bH
	DD	043ffffH
	DD	03ffaffH
	DD	03ffaffH
	DD	03ffaffH
	DD	03ffaffH
	DD	041feffH
	DD	03ff7fcH
	DD	03ef6fbH
	DD	03ef6fbH
	DD	03ef6fbH
	DD	03ef6fbH
	DD	03ef6fbH
	DD	03ef6fbH
	DD	03ef6fbH
	DD	03ef6fbH
	DD	03ef6fbH
	DD	03ffbfeH
	DD	03ffaffH
	DD	03ffaffH
	DD	03ffaffH
	DD	041ffffH
	DD	031c1c2H
	DD	031c1c2H
	DD	041ffffH
	DD	03ffaffH
	DD	03ffaffH
	DD	03ffaffH
	DD	03ffaffH
	DD	041feffH
	DD	03ff9fdH
	DD	03ef6fbH
	DD	03ef6fbH
	DD	03ef6fbH
	DD	03ef6fbH
	DD	03ef6fbH
	DD	03ef6fbH
	DD	03ef6fbH
	DD	03ef6fbH
	DD	03ef6fbH
	DD	03ef6fbH
	DD	040feffH
	DD	030bcbfH
	DD	035d4d7H
	DD	040ffffH
	DD	03ffaffH
	DD	03ffaffH
	DD	03ffaffH
	DD	03ffaffH
	DD	041fdffH
	DD	03ef7fcH
	DD	03ef6fbH
	DD	03ef6fbH
	DD	03ef6fbH
	DD	03ef6fbH
	DD	03ef6fbH
	DD	03ef6fbH
	DD	03ef6fbH
	DD	03ef6fbH
	DD	03ef6fbH
	DD	03ef6fbH
	DD	03ef6fbH
	DD	03ef6fcH
	DD	03ffcffH
	DD	0370e393aH
	DD	0f8000000H
	DD	0ff000000H
	DD	0ff000000H
	DD	0ff000000H
	DD	0ff000000H
	DD	0ff000000H
	DD	0ff000000H
	DD	0ff000000H
	DD	0ff000000H
	DD	0ff000000H
	DD	0ff000000H
	DD	05d092525H
	DD	039e3e7H
	DD	03ffcffH
	DD	03ef6fbH
	DD	03ef6fbH
	DD	03ef6fbH
	DD	03ef6fbH
	DD	03ef6fbH
	DD	03ef6fbH
	DD	03ef6fbH
	DD	03ef6fbH
	DD	03ef6fbH
	DD	03ef6fbH
	DD	03ef6fbH
	DD	03ef6fbH
	DD	040fbfeH
	DD	041ffffH
	DD	03ffaffH
	DD	03ffaffH
	DD	03ffaffH
	DD	041ffffH
	DD	036d5d5H
	DD	01c6f70H
	DD	040fbfeH
	DD	03ffaffH
	DD	03ffaffH
	DD	03ffaffH
	DD	03ffaffH
	DD	040feffH
	DD	040fbfdH
	DD	03ef5fbH
	DD	03ef6fbH
	DD	03ef6fbH
	DD	03ef6fbH
	DD	03ef6fbH
	DD	03ef6fbH
	DD	03ef6fbH
	DD	03ef6fbH
	DD	03ef6fbH
	DD	03ef6fbH
	DD	03ef6fbH
	DD	03ef6fbH
	DD	040ffffH
	DD	02cacafH
	DD	0a2000000H
	DD	0ff000000H
	DD	0ff000000H
	DD	0ff000000H
	DD	0ff000000H
	DD	0ff000000H
	DD	0ff000000H
	DD	0a3000000H
	DD	030bcc0H
	DD	042ffffH
	DD	03ffaffH
	DD	03ffaffH
	DD	041ffffH
	DD	036d5d8H
	DD	02b051213H
	DD	0a1000000H
	DD	0ec000000H
	DD	0ff000000H
	DD	0ff000000H
	DD	0ff000000H
	DD	0ff000000H
	DD	0ff000000H
	DD	0ff000000H
	DD	0ff000000H
	DD	0ff000000H
	DD	0ff000000H
	DD	0ff000000H
	DD	090000000H
	DD	032c8ccH
	DD	041ffffH
	DD	03ffaffH
	DD	03ffaffH
	DD	041ffffH
	DD	035d0d4H
	DD	02d040f0fH
	DD	0a8000000H
	DD	0ef000000H
	DD	0ff000000H
	DD	0ff000000H
	DD	0ff000000H
	DD	0ff000000H
	DD	08a030a0aH
	DD	032c4c8H
	DD	041ffffH
	DD	03ffaffH
	DD	03ffaffH
	DD	041ffffH
	DD	0133ccd0H
	DD	03082121H
	DD	03be9ecH
	DD	040ffffH
	DD	03ffaffH
	DD	03ffaffH
	DD	043ffffH
	DD	0289c9dH
	DD	04b000000H
	DD	0bb000000H
	DD	0f7000000H
	DD	0ff000000H
	DD	0ff000000H
	DD	0ff000000H
	DD	0ff000000H
	DD	0ff000000H
	DD	0ff000000H
	DD	0ff000000H
	DD	067061616H
	DD	039e2e7H
	DD	040feffH
	DD	03ffaffH
	DD	03ffaffH
	DD	040ffffH
	DD	031c0c3H
	DD	033c8caH
	DD	041ffffH
	DD	03ffaffH
	DD	03ffaffH
	DD	03ffaffH
	DD	03ffbffH
	DD	041ffffH
	DD	03ef7fcH
	DD	03ef6fbH
	DD	03ef6fbH
	DD	03ef6fbH
	DD	03ef6fbH
	DD	03ef6fbH
	DD	03ef6fbH
	DD	03ef6fbH
	DD	03ef6fbH
	DD	03ff8fcH
	DD	03ffbffH
	DD	03ffaffH
	DD	03ffaffH
	DD	03ffaffH
	DD	042ffffH
	DD	07228487H
	DD	012030a0bH
	DD	03ae6eaH
	DD	03ff9feH
	DD	03ef6fbH
	DD	03ef6fbH
	DD	03ef6fbH
	DD	03ef6fbH
	DD	03ef6fbH
	DD	03ef6fbH
	DD	03ef6fbH
	DD	03ef6fbH
	DD	03ef6fbH
	DD	03ef6fbH
	DD	03ef6fbH
	DD	03ef6fbH
	DD	040fbfeH
	DD	041ffffH
	DD	03ffbffH
	DD	03ffaffH
	DD	03ffaffH
	DD	041ffffH
	DD	03ae4e7H
	DD	018092324H
	DD	07b000000H
	DD	0d7000000H
	DD	0fe000000H
	DD	0ff000000H
	DD	0ffb5b5b5H
	DD	0ffffffffH
	DD	0ffffffffH
	DD	0ffffffffH
	DD	0ffffffffH
	DD	0ffffffffH
	DD	0ffffffffH
	DD	0ffffffffH
	DD	0ffffffffH
	DD	0ffffffffH
	DD	0ffffffffH
	DD	0ffffffffH
	DD	0ffffffffH
	DD	0ffffffffH
	DD	0ffffffffH
	DD	0ffffffffH
	DD	0ffffffffH
	DD	0ffffffffH
	DD	0ffffffffH
	DD	0ffffffffH
	DD	0ffffffffH
	DD	0ffffffffH
	DD	0ffffffffH
	DD	0ffffffffH
	DD	0ffffffffH
	DD	0ffffffffH
	DD	0ffffffffH
	DD	0ffffffffH
	DD	0ffffffffH
	DD	0ffffffffH
	DD	0ffffffffH
	DD	0ffffffffH
	DD	0ffffffffH
	DD	0ffffffffH
	DD	0ffffffffH
	DD	0ffffffffH
	DD	0ffffffffH
	DD	0ffffffffH
	DD	0ffffffffH
	DD	0ffffffffH
	DD	0ffffffffH
	DD	0ffffffffH
	DD	0ffffffffH
	DD	0ffffffffH
	DD	0ffffffffH
	DD	0ffffffffH
	DD	0ffffffffH
	DD	0ffffffffH
	DD	0ffffffffH
	DD	0ffffffffH
	DD	0ffffffffH
	DD	0ffffffffH
	DD	0ffffffffH
	DD	0ffffffffH
	DD	0ffffffffH
	DD	0ffffffffH
	DD	0ffffffffH
	DD	0ffffffffH
	DD	0ffffffffH
	DD	0ffffffffH
	DD	0ffffffffH
	DD	0ffffffffH
	DD	0ffffffffH
	DD	0ffffffffH
	DD	0ffffffffH
	DD	0ffffffffH
	DD	0ffffffffH
	DD	0ffffffffH
	DD	0ffffffffH
	DD	0ffffffffH
	DD	0ffffffffH
	DD	0ffffffffH
	DD	0ffffffffH
	DD	0ffffffffH
	DD	0ffffffffH
	DD	0ffffffffH
	DD	0ffffffffH
	DD	0ffb5b5b5H
	DD	0ff000000H
	DD	072030d0dH
	DD	038e1e4H
	DD	041ffffH
	DD	03ffaffH
	DD	03ffaffH
	DD	042ffffH
	DD	02db0b3H
	DD	035000000H
	DD	036020707H
	DD	0259295H
	DD	041ffffH
	DD	040feffH
	DD	03ffaffH
	DD	03ffaffH
	DD	03ffaffH
	DD	042ffffH
	DD	03ae5e8H
	DD	0c165759H
	DD	066000000H
	DD	0ac000000H
	DD	0bf000000H
	DD	0d2000000H
	DD	0f1000000H
	DD	0e3000000H
	DD	01d186061H
	DD	041ffffH
	DD	03ffcffH
	DD	03ffaffH
	DD	03ffaffH
	DD	03ffaffH
	DD	03ffbffH
	DD	040fdffH
	DD	040fdffH
	DD	040fdffH
	DD	040fdffH
	DD	040fdffH
	DD	040fdffH
	DD	040fdffH
	DD	040fdffH
	DD	040fdffH
	DD	040fdffH
	DD	03ffbffH
	DD	03ffaffH
	DD	03ffaffH
	DD	03ffaffH
	DD	042ffffH
	DD	03259396H
	DD	031b6c6dH
	DD	042ffffH
	DD	03ffaffH
	DD	03ffaffH
	DD	03ffaffH
	DD	03ffaffH
	DD	03ffaffH
	DD	040fdffH
	DD	040fdffH
	DD	040fdffH
	DD	040fdffH
	DD	040fdffH
	DD	040fdffH
	DD	040fdffH
	DD	040fdffH
	DD	040fdffH
	DD	040fdffH
	DD	040fdffH
	DD	044ffffH
	DD	0238a8aH
	DD	01e7677H
	DD	043ffffH
	DD	03ffaffH
	DD	03ffaffH
	DD	03ffaffH
	DD	03ffaffH
	DD	03ffbffH
	DD	040fdffH
	DD	040fdffH
	DD	040fdffH
	DD	040fdffH
	DD	040fdffH
	DD	040fdffH
	DD	040fdffH
	DD	040fdffH
	DD	040fdffH
	DD	040fdffH
	DD	040fdffH
	DD	040fdffH
	DD	041ffffH
	DD	03ae5e7H
	DD	049061616H
	DD	0df000000H
	DD	0f7000000H
	DD	0ff000000H
	DD	0ff000000H
	DD	0ff000000H
	DD	0ff000000H
	DD	0ff000000H
	DD	0ff000000H
	DD	0ff000000H
	DD	0ff000000H
	DD	0ff000000H
	DD	025124748H
	DD	043ffffH
	DD	040feffH
	DD	040fdffH
	DD	040fdffH
	DD	040fdffH
	DD	040fdffH
	DD	040fdffH
	DD	040fdffH
	DD	040fdffH
	DD	040fdffH
	DD	040fdffH
	DD	040fdffH
	DD	040fdffH
	DD	040fdffH
	DD	040fdffH
	DD	03ffaffH
	DD	03ffaffH
	DD	03ffaffH
	DD	041ffffH
	DD	040f8fbH
	DD	0b134b4dH
	DD	010041011H
	DD	03be9eaH
	DD	040ffffH
	DD	03ffaffH
	DD	03ffaffH
	DD	03ffaffH
	DD	03ffaffH
	DD	040fcffH
	DD	040fdffH
	DD	040fdffH
	DD	040fdffH
	DD	040fdffH
	DD	040fdffH
	DD	040fdffH
	DD	040fdffH
	DD	040fdffH
	DD	040fdffH
	DD	040fdffH
	DD	040fdffH
	DD	040fdffH
	DD	044ffffH
	DD	0b1d7273H
	DD	0a4000000H
	DD	0ec000000H
	DD	0ff000000H
	DD	0ff000000H
	DD	0ff000000H
	DD	0ff000000H
	DD	0ff000000H
	DD	06a071d1dH
	DD	038dfe2H
	DD	041ffffH
	DD	03ffaffH
	DD	03ffaffH
	DD	042ffffH
	DD	02db1b5H
	DD	047000000H
	DD	0b6000000H
	DD	0f5000000H
	DD	0ff000000H
	DD	0ff000000H
	DD	0ff000000H
	DD	0ff000000H
	DD	0ff000000H
	DD	0ff000000H
	DD	0ff000000H
	DD	0ff000000H
	DD	0ff000000H
	DD	0ff000000H
	DD	061071d1dH
	DD	03be9ebH
	DD	040ffffH
	DD	03ffaffH
	DD	03ffaffH
	DD	043ffffH
	DD	0289fa0H
	DD	04a000000H
	DD	0ba000000H
	DD	0f8000000H
	DD	0ff000000H
	DD	0ff000000H
	DD	0ff000000H
	DD	0ff000000H
	DD	054071e1fH
	DD	03df2f6H
	DD	040fcffH
	DD	03ffaffH
	DD	03ffaffH
	DD	042ffffH
	DD	05238b8dH
	DD	0e124647H
	DD	03ff8fdH
	DD	040fdffH
	DD	03ffaffH
	DD	03ffbffH
	DD	042ffffH
	DD	011c7072H
	DD	069000000H
	DD	0cd000000H
	DD	0fd000000H
	DD	0ff000000H
	DD	0ff000000H
	DD	0ff000000H
	DD	0ff000000H
	DD	0ff000000H
	DD	0ff000000H
	DD	0ff000000H
	DD	03f0d3132H
	DD	040fdffH
	DD	03ffbffH
	DD	03ffaffH
	DD	03ffaffH
	DD	042ffffH
	DD	01e7678H
	DD	01218386H
	DD	043ffffH
	DD	03ffaffH
	DD	03ffaffH
	DD	03ffaffH
	DD	03ffaffH
	DD	03ffbffH
	DD	040fdffH
	DD	040fdffH
	DD	040fdffH
	DD	040fdffH
	DD	040fdffH
	DD	040fdffH
	DD	040fdffH
	DD	040fdffH
	DD	040fdffH
	DD	040fdffH
	DD	03ffaffH
	DD	03ffaffH
	DD	03ffaffH
	DD	03ffbffH
	DD	040ffffH
	DD	013144c4eH
	DD	0130d3333H
	DD	041ffffH
	DD	040feffH
	DD	040fdffH
	DD	040fdffH
	DD	040fdffH
	DD	040fdffH
	DD	040fdffH
	DD	040fdffH
	DD	040fdffH
	DD	040fdffH
	DD	040fdffH
	DD	040fdffH
	DD	040fdffH
	DD	040fdffH
	DD	040fcffH
	DD	03ffaffH
	DD	03ffaffH
	DD	03ffaffH
	DD	040ffffH
	DD	041feffH
	DD	03165759H
	DD	045000000H
	DD	09a000000H
	DD	0e8000000H
	DD	0ff000000H
	DD	0ff000000H
	DD	0ffb5b5b5H
	DD	0ffffffffH
	DD	0ffffffffH
	DD	0ffffffffH
	DD	0ffffffffH
	DD	0ffffffffH
	DD	0ffffffffH
	DD	0ffffffffH
	DD	0ffffffffH
	DD	0ffffffffH
	DD	0ffffffffH
	DD	0ffffffffH
	DD	0ffffffffH
	DD	0ffffffffH
	DD	0ffffffffH
	DD	0ffffffffH
	DD	0ffffffffH
	DD	0ffffffffH
	DD	0ffffffffH
	DD	0ffffffffH
	DD	0ffffffffH
	DD	0ffffffffH
	DD	0ffffffffH
	DD	0ffffffffH
	DD	0ffffffffH
	DD	0ffffffffH
	DD	0ffffffffH
	DD	0ffffffffH
	DD	0ffffffffH
	DD	0ffffffffH
	DD	0ffffffffH
	DD	0ffffffffH
	DD	0ffffffffH
	DD	0ffffffffH
	DD	0ffffffffH
	DD	0ffffffffH
	DD	0ffffffffH
	DD	0ffffffffH
	DD	0ffffffffH
	DD	0ffffffffH
	DD	0ffffffffH
	DD	0ffffffffH
	DD	0ffffffffH
	DD	0ffffffffH
	DD	0ffffffffH
	DD	0ffffffffH
	DD	0ffffffffH
	DD	0ffffffffH
	DD	0ffffffffH
	DD	0ffffffffH
	DD	0ffffffffH
	DD	0ffffffffH
	DD	0ffffffffH
	DD	0ffffffffH
	DD	0ffffffffH
	DD	0ffffffffH
	DD	0ffffffffH
	DD	0ffffffffH
	DD	0ffffffffH
	DD	0ffffffffH
	DD	0ffffffffH
	DD	0ffffffffH
	DD	0ffffffffH
	DD	0ffffffffH
	DD	0ffffffffH
	DD	0ffffffffH
	DD	0ffffffffH
	DD	0ffffffffH
	DD	0ffffffffH
	DD	0ffffffffH
	DD	0ffffffffH
	DD	0ffffffffH
	DD	0ffffffffH
	DD	0ffffffffH
	DD	0ffffffffH
	DD	0ffffffffH
	DD	0ffffffffH
	DD	0ffb5b5b5H
	DD	0fa000000H
	DD	0450e393aH
	DD	03df2f6H
	DD	040feffH
	DD	03ffaffH
	DD	03ffaffH
	DD	043ffffH
	DD	0228688H
	DD	05a000000H
	DD	0a7000000H
	DD	069000000H
	DD	0e185e5fH
	DD	03df0f4H
	DD	042ffffH
	DD	03ffaffH
	DD	03ffaffH
	DD	03ffaffH
	DD	041ffffH
	DD	041fefeH
	DD	0527999cH
	DD	052041212H
	DD	0e7000000H
	DD	0ff000000H
	DD	0ff000000H
	DD	0ff000000H
	DD	08b010506H
	DD	02fb8baH
	DD	044ffffH
	DD	040fbffH
	DD	03ffaffH
	DD	03ffaffH
	DD	03ffaffH
	DD	03ffaffH
	DD	03ffaffH
	DD	03ffaffH
	DD	03ffaffH
	DD	03ffaffH
	DD	03ffaffH
	DD	03ffaffH
	DD	03ffaffH
	DD	03ffaffH
	DD	03ffaffH
	DD	03ffaffH
	DD	03ffaffH
	DD	03ffaffH
	DD	03ffbffH
	DD	041ffffH
	DD	0d1a6668H
	DD	020010202H
	DD	032c4c8H
	DD	043ffffH
	DD	03ffcffH
	DD	03ffaffH
	DD	03ffaffH
	DD	03ffaffH
	DD	03ffaffH
	DD	03ffaffH
	DD	03ffaffH
	DD	03ffaffH
	DD	03ffaffH
	DD	03ffaffH
	DD	03ffaffH
	DD	03ffaffH
	DD	03ffaffH
	DD	03ffaffH
	DD	03ffbffH
	DD	041ffffH
	DD	0c185e60H
	DD	020020607H
	DD	035ced2H
	DD	043ffffH
	DD	03ffbffH
	DD	03ffaffH
	DD	03ffaffH
	DD	03ffaffH
	DD	03ffaffH
	DD	03ffaffH
	DD	03ffaffH
	DD	03ffaffH
	DD	03ffaffH
	DD	03ffaffH
	DD	03ffaffH
	DD	03ffaffH
	DD	03ffaffH
	DD	03ffaffH
	DD	03ffaffH
	DD	03ffaffH
	DD	042ffffH
	DD	02db0b3H
	DD	049010202H
	DD	0bd000000H
	DD	0f6000000H
	DD	0ff000000H
	DD	0ff000000H
	DD	0ff000000H
	DD	0ff000000H
	DD	0ff000000H
	DD	0ff000000H
	DD	0ff000000H
	DD	0ff000000H
	DD	0d6000000H
	DD	0f1f7a7bH
	DD	043ffffH
	DD	03ffaffH
	DD	03ffaffH
	DD	03ffaffH
	DD	03ffaffH
	DD	03ffaffH
	DD	03ffaffH
	DD	03ffaffH
	DD	03ffaffH
	DD	03ffaffH
	DD	03ffaffH
	DD	03ffaffH
	DD	03ffaffH
	DD	03ffaffH
	DD	03ffaffH
	DD	03ffaffH
	DD	040fcffH
	DD	043ffffH
	DD	03cecf0H
	DD	06165658H
	DD	03d000000H
	DD	060000000H
	DD	0131a696aH
	DD	041ffffH
	DD	041ffffH
	DD	03ffaffH
	DD	03ffaffH
	DD	03ffaffH
	DD	03ffaffH
	DD	03ffaffH
	DD	03ffaffH
	DD	03ffaffH
	DD	03ffaffH
	DD	03ffaffH
	DD	03ffaffH
	DD	03ffaffH
	DD	03ffaffH
	DD	03ffaffH
	DD	03ffaffH
	DD	03ffaffH
	DD	03ffbffH
	DD	041ffffH
	DD	010114142H
	DD	08f000000H
	DD	0dd000000H
	DD	0ff000000H
	DD	0ff000000H
	DD	0ff000000H
	DD	0ff000000H
	DD	0ff000000H
	DD	033103e3fH
	DD	041ffffH
	DD	03ffcffH
	DD	03ffaffH
	DD	03ffaffH
	DD	041ffffH
	DD	01207d7fH
	DD	060000000H
	DD	0c9000000H
	DD	0fb000000H
	DD	0ff000000H
	DD	0ff000000H
	DD	0ff000000H
	DD	0ff000000H
	DD	0ff000000H
	DD	0ff000000H
	DD	0ff000000H
	DD	0ff000000H
	DD	0ff000000H
	DD	0f1000000H
	DD	02e144f50H
	DD	03ffafeH
	DD	040fdffH
	DD	03ffaffH
	DD	03ffbffH
	DD	042ffffH
	DD	011c7072H
	DD	068000000H
	DD	0cc000000H
	DD	0fc000000H
	DD	0ff000000H
	DD	0ff000000H
	DD	0ff000000H
	DD	0f5000000H
	DD	02f134b4cH
	DD	041ffffH
	DD	03ffbffH
	DD	03ffaffH
	DD	03ffaffH
	DD	043ffffH
	DD	01165556H
	DD	031c6d6fH
	DD	042ffffH
	DD	03ffbffH
	DD	03ffaffH
	DD	040fdffH
	DD	03ef5faH
	DD	0f114344H
	DD	07f000000H
	DD	0de000000H
	DD	0ff000000H
	DD	0ff000000H
	DD	0ff000000H
	DD	0ff000000H
	DD	0ff000000H
	DD	0ff000000H
	DD	0ff000000H
	DD	0e3000000H
	DD	01e1a6768H
	DD	041ffffH
	DD	03ffbffH
	DD	03ffaffH
	DD	03ffaffH
	DD	042ffffH
	DD	0d124748H
	DD	024030c0dH
	DD	036d3d7H
	DD	043ffffH
	DD	040fbffH
	DD	03ffaffH
	DD	03ffaffH
	DD	03ffaffH
	DD	03ffaffH
	DD	03ffaffH
	DD	03ffaffH
	DD	03ffaffH
	DD	03ffaffH
	DD	03ffaffH
	DD	03ffaffH
	DD	03ffaffH
	DD	03ffaffH
	DD	03ffaffH
	DD	03ffaffH
	DD	03ffaffH
	DD	03ffaffH
	DD	03ffbffH
	DD	03ef8fdH
	DD	010061717H
	DD	0f1c7071H
	DD	041ffffH
	DD	03ffaffH
	DD	03ffaffH
	DD	03ffaffH
	DD	03ffaffH
	DD	03ffaffH
	DD	03ffaffH
	DD	03ffaffH
	DD	03ffaffH
	DD	03ffaffH
	DD	03ffaffH
	DD	03ffaffH
	DD	03ffaffH
	DD	03ffaffH
	DD	03ffaffH
	DD	03ffaffH
	DD	03ffcffH
	DD	042ffffH
	DD	03df2f4H
	DD	02196163H
	DD	031000000H
	DD	075000000H
	DD	0c3000000H
	DD	0f8000000H
	DD	0ff000000H
	DD	0ff000000H
	DD	0ffb5b5b5H
	DD	0ffffffffH
	DD	0ffffffffH
	DD	0ffffffffH
	DD	0ffffffffH
	DD	0ffffffffH
	DD	0ffffffffH
	DD	0ffffffffH
	DD	0ffffffffH
	DD	0ffffffffH
	DD	0ffffffffH
	DD	0ffffffffH
	DD	0ffffffffH
	DD	0ffffffffH
	DD	0ffffffffH
	DD	0ffffffffH
	DD	0ffffffffH
	DD	0ffffffffH
	DD	0ffffffffH
	DD	0ffffffffH
	DD	0ffffffffH
	DD	0ffffffffH
	DD	0ffffffffH
	DD	0ffffffffH
	DD	0ffffffffH
	DD	0ffffffffH
	DD	0ffffffffH
	DD	0ffffffffH
	DD	0ffffffffH
	DD	0ffffffffH
	DD	0ffffffffH
	DD	0ffffffffH
	DD	0ffffffffH
	DD	0ffffffffH
	DD	0ffffffffH
	DD	0ffffffffH
	DD	0ffffffffH
	DD	0ffffffffH
	DD	0ffffffffH
	DD	0ffffffffH
	DD	0ffffffffH
	DD	0ffffffffH
	DD	0ffffffffH
	DD	0ffffffffH
	DD	0ffffffffH
	DD	0ffffffffH
	DD	0ffffffffH
	DD	0ffffffffH
	DD	0ffffffffH
	DD	0ffffffffH
	DD	0ffffffffH
	DD	0ffffffffH
	DD	0ffffffffH
	DD	0ffffffffH
	DD	0ffffffffH
	DD	0ffffffffH
	DD	0ffffffffH
	DD	0ffffffffH
	DD	0ffffffffH
	DD	0ffffffffH
	DD	0ffffffffH
	DD	0ffffffffH
	DD	0ffffffffH
	DD	0ffffffffH
	DD	0ffffffffH
	DD	0ffffffffH
	DD	0ffffffffH
	DD	0ffffffffH
	DD	0ffffffffH
	DD	0ffffffffH
	DD	0ffffffffH
	DD	0ffffffffH
	DD	0ffffffffH
	DD	0ffffffffH
	DD	0ffffffffH
	DD	0ffffffffH
	DD	0ffffffffH
	DD	0ffb5b5b5H
	DD	0e5000000H
	DD	0f1c6f71H
	DD	045ffffH
	DD	042ffffH
	DD	042ffffH
	DD	043ffffH
	DD	043ffffH
	DD	08165759H
	DD	075000000H
	DD	0d3000000H
	DD	0eb000000H
	DD	09d000000H
	DD	0210f3b3bH
	DD	035d2d6H
	DD	043ffffH
	DD	042ffffH
	DD	042ffffH
	DD	042ffffH
	DD	042ffffH
	DD	045ffffH
	DD	038dce0H
	DD	035124749H
	DD	0c2000000H
	DD	0ff000000H
	DD	0ff000000H
	DD	0f1000000H
	DD	05b07191aH
	DD	02db3b7H
	DD	042ffffH
	DD	042ffffH
	DD	042ffffH
	DD	042ffffH
	DD	042ffffH
	DD	042ffffH
	DD	042ffffH
	DD	042ffffH
	DD	042ffffH
	DD	042ffffH
	DD	042ffffH
	DD	042ffffH
	DD	042ffffH
	DD	042ffffH
	DD	042ffffH
	DD	042ffffH
	DD	042ffffH
	DD	042ffffH
	DD	043ffffH
	DD	0150e3738H
	DD	079000000H
	DD	041082020H
	DD	02babafH
	DD	041fcfeH
	DD	043ffffH
	DD	042ffffH
	DD	042ffffH
	DD	042ffffH
	DD	042ffffH
	DD	042ffffH
	DD	042ffffH
	DD	042ffffH
	DD	042ffffH
	DD	042ffffH
	DD	042ffffH
	DD	042ffffH
	DD	042ffffH
	DD	043ffffH
	DD	03ff3f4H
	DD	0190d3435H
	DD	072000000H
	DD	02f0a2627H
	DD	02eb5b8H
	DD	040feffH
	DD	042ffffH
	DD	042ffffH
	DD	042ffffH
	DD	042ffffH
	DD	042ffffH
	DD	042ffffH
	DD	042ffffH
	DD	042ffffH
	DD	042ffffH
	DD	042ffffH
	DD	042ffffH
	DD	042ffffH
	DD	042ffffH
	DD	042ffffH
	DD	042ffffH
	DD	046ffffH
	DD	0228688H
	DD	05a000000H
	DD	0c4000000H
	DD	0fa000000H
	DD	0ff000000H
	DD	0ff000000H
	DD	0ff000000H
	DD	0ff000000H
	DD	0ff000000H
	DD	0ff000000H
	DD	0ff000000H
	DD	0ff000000H
	DD	0a1000000H
	DD	02fb9bbH
	DD	045ffffH
	DD	042ffffH
	DD	042ffffH
	DD	042ffffH
	DD	042ffffH
	DD	042ffffH
	DD	042ffffH
	DD	042ffffH
	DD	042ffffH
	DD	042ffffH
	DD	042ffffH
	DD	042ffffH
	DD	042ffffH
	DD	042ffffH
	DD	042ffffH
	DD	042ffffH
	DD	040f9fbH
	DD	02db2b5H
	DD	0b0d3233H
	DD	03a000000H
	DD	06e000000H
	DD	0b6000000H
	DD	098000000H
	DD	0131b6b6cH
	DD	03be8ebH
	DD	043ffffH
	DD	042ffffH
	DD	042ffffH
	DD	042ffffH
	DD	042ffffH
	DD	042ffffH
	DD	042ffffH
	DD	042ffffH
	DD	042ffffH
	DD	042ffffH
	DD	042ffffH
	DD	042ffffH
	DD	042ffffH
	DD	042ffffH
	DD	042ffffH
	DD	044ffffH
	DD	03be6e7H
	DD	020082121H
	DD	094000000H
	DD	0e6000000H
	DD	0ff000000H
	DD	0ff000000H
	DD	0ff000000H
	DD	0ff000000H
	DD	0df000000H
	DD	0131d7071H
	DD	046ffffH
	DD	042ffffH
	DD	042ffffH
	DD	042ffffH
	DD	043ffffH
	DD	0b144e4fH
	DD	078000000H
	DD	0d9000000H
	DD	0fe000000H
	DD	0ff000000H
	DD	0ff000000H
	DD	0ff000000H
	DD	0ff000000H
	DD	0ff000000H
	DD	0ff000000H
	DD	0ff000000H
	DD	0ff000000H
	DD	0ff000000H
	DD	0d8000000H
	DD	01218486H
	DD	046ffffH
	DD	042ffffH
	DD	042ffffH
	DD	043ffffH
	DD	041fbfcH
	DD	0d124849H
	DD	07d000000H
	DD	0dd000000H
	DD	0ff000000H
	DD	0ff000000H
	DD	0ff000000H
	DD	0ff000000H
	DD	0d2000000H
	DD	0d228586H
	DD	045ffffH
	DD	042ffffH
	DD	042ffffH
	DD	043ffffH
	DD	042ffffH
	DD	050f3d3fH
	DD	029a0a0H
	DD	045ffffH
	DD	042ffffH
	DD	042ffffH
	DD	044ffffH
	DD	03ce7e7H
	DD	024051313H
	DD	098000000H
	DD	0ea000000H
	DD	0ff000000H
	DD	0ff000000H
	DD	0ff000000H
	DD	0ff000000H
	DD	0ff000000H
	DD	0ff000000H
	DD	0ff000000H
	DD	0c1000000H
	DD	029a2a3H
	DD	045ffffH
	DD	042ffffH
	DD	042ffffH
	DD	043ffffH
	DD	03ef2f3H
	DD	01d0b2d2eH
	DD	074000000H
	DD	0270a2a2aH
	DD	030bdc1H
	DD	042ffffH
	DD	042ffffH
	DD	042ffffH
	DD	042ffffH
	DD	042ffffH
	DD	042ffffH
	DD	042ffffH
	DD	042ffffH
	DD	042ffffH
	DD	042ffffH
	DD	042ffffH
	DD	042ffffH
	DD	042ffffH
	DD	042ffffH
	DD	042ffffH
	DD	042ffffH
	DD	042ffffH
	DD	044ffffH
	DD	0137d6d7H
	DD	010010505H
	DD	012cadb0H
	DD	045ffffH
	DD	042ffffH
	DD	042ffffH
	DD	042ffffH
	DD	042ffffH
	DD	042ffffH
	DD	042ffffH
	DD	042ffffH
	DD	042ffffH
	DD	042ffffH
	DD	042ffffH
	DD	042ffffH
	DD	042ffffH
	DD	042ffffH
	DD	042ffffH
	DD	043ffffH
	DD	040fbfcH
	DD	02db3b8H
	DD	0b0e3838H
	DD	034000000H
	DD	06b000000H
	DD	0ae000000H
	DD	0eb000000H
	DD	0ff000000H
	DD	0ff000000H
	DD	0ff000000H
	DD	0ffb5b5b5H
	DD	0ffffffffH
	DD	0ffffffffH
	DD	0ffffffffH
	DD	0ffffffffH
	DD	0ffffffffH
	DD	0ffffffffH
	DD	0ffffffffH
	DD	0ffffffffH
	DD	0ffffffffH
	DD	0ffffffffH
	DD	0ffffffffH
	DD	0ffffffffH
	DD	0ffffffffH
	DD	0ffffffffH
	DD	0ffffffffH
	DD	0ffffffffH
	DD	0ffffffffH
	DD	0ffffffffH
	DD	0ffffffffH
	DD	0ffffffffH
	DD	0ffffffffH
	DD	0ffffffffH
	DD	0ffffffffH
	DD	0ffffffffH
	DD	0ffffffffH
	DD	0ffffffffH
	DD	0ffffffffH
	DD	0ffffffffH
	DD	0ffffffffH
	DD	0ffffffffH
	DD	0ffffffffH
	DD	0ffffffffH
	DD	0ffffffffH
	DD	0ffffffffH
	DD	0ffffffffH
	DD	0ffffffffH
	DD	0ffffffffH
	DD	0ffffffffH
	DD	0ffffffffH
	DD	0ffffffffH
	DD	0ffffffffH
	DD	0ffffffffH
	DD	0ffffffffH
	DD	0ffffffffH
	DD	0ffffffffH
	DD	0ffffffffH
	DD	0ffffffffH
	DD	0ffffffffH
	DD	0ffffffffH
	DD	0ffffffffH
	DD	0ffffffffH
	DD	0ffffffffH
	DD	0ffffffffH
	DD	0ffffffffH
	DD	0ffffffffH
	DD	0ffffffffH
	DD	0ffffffffH
	DD	0ffffffffH
	DD	0ffffffffH
	DD	0ffffffffH
	DD	0ffffffffH
	DD	0ffffffffH
	DD	0ffffffffH
	DD	0ffffffffH
	DD	0ffffffffH
	DD	0ffffffffH
	DD	0ffffffffH
	DD	0ffffffffH
	DD	0ffffffffH
	DD	0ffffffffH
	DD	0ffffffffH
	DD	0ffffffffH
	DD	0ffffffffH
	DD	0ffffffffH
	DD	0ffffffffH
	DD	0ffffffffH
	DD	0ffb5b5b5H
	DD	0d8000000H
	DD	09185e60H
	DD	02dafb2H
	DD	02aa4a7H
	DD	02aa4a7H
	DD	02ba7aaH
	DD	0289b9eH
	DD	020071d1dH
	DD	08d000000H
	DD	0e5000000H
	DD	0ff000000H
	DD	0f8000000H
	DD	0ba000000H
	DD	035061718H
	DD	0248e91H
	DD	02ba8abH
	DD	02aa4a7H
	DD	02aa4a7H
	DD	02aa4a7H
	DD	02aa4a7H
	DD	02caeb2H
	DD	0289d9fH
	DD	0250c2f2fH
	DD	0e3000000H
	DD	0ff000000H
	DD	0ff000000H
	DD	0e7000000H
	DD	06c010405H
	DD	012124647H
	DD	0238a8dH
	DD	02ba7aaH
	DD	02aa4a7H
	DD	02aa4a7H
	DD	02aa4a7H
	DD	02aa4a7H
	DD	02aa4a7H
	DD	02aa4a7H
	DD	02aa4a7H
	DD	02aa4a7H
	DD	02aa4a7H
	DD	02aa4a7H
	DD	02aa4a7H
	DD	02aa4a7H
	DD	02aa4a7H
	DD	02aa4a7H
	DD	02ba7aaH
	DD	0279699H
	DD	02c040f0fH
	DD	0a0000000H
	DD	0ce000000H
	DD	071010404H
	DD	017103e40H
	DD	01207d7fH
	DD	02aa3a5H
	DD	02aa5a8H
	DD	02aa4a7H
	DD	02aa4a7H
	DD	02aa4a7H
	DD	02aa4a7H
	DD	02aa4a7H
	DD	02aa4a7H
	DD	02aa4a7H
	DD	02aa4a7H
	DD	02aa4a7H
	DD	02aa4a7H
	DD	02ba8abH
	DD	0269396H
	DD	02d020909H
	DD	0a3000000H
	DD	0c8000000H
	DD	06a020706H
	DD	014103f40H
	DD	01207f82H
	DD	02aa6a9H
	DD	02aa4a7H
	DD	02aa4a7H
	DD	02aa4a7H
	DD	02aa4a7H
	DD	02aa4a7H
	DD	02aa4a7H
	DD	02aa4a7H
	DD	02aa4a7H
	DD	02aa4a7H
	DD	02aa4a7H
	DD	02aa4a7H
	DD	02aa4a7H
	DD	02aa5a8H
	DD	02ba8abH
	DD	0e103f40H
	DD	076000000H
	DD	0d6000000H
	DD	0fe000000H
	DD	0ff000000H
	DD	0ff000000H
	DD	0ff000000H
	DD	0ff000000H
	DD	0ff000000H
	DD	0ff000000H
	DD	0ff000000H
	DD	0ff000000H
	DD	08a010404H
	DD	0259193H
	DD	02ba8acH
	DD	02aa4a7H
	DD	02aa4a7H
	DD	02aa4a7H
	DD	02aa4a7H
	DD	02aa4a7H
	DD	02aa4a7H
	DD	02aa4a7H
	DD	02aa4a7H
	DD	02aa4a7H
	DD	02aa4a7H
	DD	02aa4a7H
	DD	02aa4a7H
	DD	02aa5a8H
	DD	029a2a5H
	DD	021f797cH
	DD	0e0d3435H
	DD	02b000202H
	DD	050000000H
	DD	079000000H
	DD	0b2000000H
	DD	0ea000000H
	DD	0f9000000H
	DD	0ab000000H
	DD	033071d1dH
	DD	06196466H
	DD	0269699H
	DD	02ba6a9H
	DD	02aa4a7H
	DD	02aa4a7H
	DD	02aa4a7H
	DD	02aa4a7H
	DD	02aa4a7H
	DD	02aa4a7H
	DD	02aa4a7H
	DD	02aa4a7H
	DD	02aa4a7H
	DD	02aa4a7H
	DD	02aa4a7H
	DD	02aa4a7H
	DD	02cabaeH
	DD	0228386H
	DD	03b010404H
	DD	0ab000000H
	DD	0f1000000H
	DD	0ff000000H
	DD	0ff000000H
	DD	0ff000000H
	DD	0ff000000H
	DD	0d2000000H
	DD	0191a6365H
	DD	02cabafH
	DD	02aa4a7H
	DD	02aa4a7H
	DD	02aa5a8H
	DD	02aa5a8H
	DD	022061818H
	DD	095000000H
	DD	0e6000000H
	DD	0ff000000H
	DD	0ff000000H
	DD	0ff000000H
	DD	0ff000000H
	DD	0ff000000H
	DD	0ff000000H
	DD	0ff000000H
	DD	0ff000000H
	DD	0ff000000H
	DD	0ff000000H
	DD	0c8000000H
	DD	091b6a6cH
	DD	02cadb0H
	DD	02aa4a7H
	DD	02aa4a7H
	DD	02ba7aaH
	DD	027999bH
	DD	024061718H
	DD	096000000H
	DD	0e9000000H
	DD	0ff000000H
	DD	0ff000000H
	DD	0ff000000H
	DD	0ff000000H
	DD	0ce000000H
	DD	081d7274H
	DD	02cadb0H
	DD	02aa4a7H
	DD	02aa4a7H
	DD	02ba8abH
	DD	0259093H
	DD	01d071d1eH
	DD	05218284H
	DD	02ba9acH
	DD	02aa4a7H
	DD	02aa4a7H
	DD	02ba9acH
	DD	0228487H
	DD	040000000H
	DD	0ae000000H
	DD	0f2000000H
	DD	0ff000000H
	DD	0ff000000H
	DD	0ff000000H
	DD	0ff000000H
	DD	0ff000000H
	DD	0ff000000H
	DD	0ff000000H
	DD	0b2000000H
	DD	0207e80H
	DD	02cadb0H
	DD	02aa4a7H
	DD	02aa4a7H
	DD	02cabaeH
	DD	0228688H
	DD	038020707H
	DD	0a8000000H
	DD	0ca000000H
	DD	066020707H
	DD	012114243H
	DD	01228587H
	DD	02aa4a7H
	DD	02aa5a8H
	DD	02aa4a7H
	DD	02aa4a7H
	DD	02aa4a7H
	DD	02aa4a7H
	DD	02aa4a7H
	DD	02aa4a7H
	DD	02aa4a7H
	DD	02aa4a7H
	DD	02aa4a7H
	DD	02aa4a7H
	DD	02aa4a7H
	DD	02aa4a7H
	DD	02aa4a7H
	DD	02cacafH
	DD	051b686aH
	DD	02c010404H
	DD	02228588H
	DD	02cabaeH
	DD	02aa4a7H
	DD	02aa4a7H
	DD	02aa4a7H
	DD	02aa4a7H
	DD	02aa4a7H
	DD	02aa4a7H
	DD	02aa4a7H
	DD	02aa4a7H
	DD	02aa4a7H
	DD	02aa4a7H
	DD	02aa4a7H
	DD	02aa4a7H
	DD	02aa5a8H
	DD	02aa3a5H
	DD	01207d7fH
	DD	0d0f3a3bH
	DD	02a010404H
	DD	04e000000H
	DD	076000000H
	DD	0b0000000H
	DD	0e7000000H
	DD	0fd000000H
	DD	0ff000000H
	DD	0ff000000H
	DD	0ff000000H
	DD	0ffb5b5b5H
	DD	0ffffffffH
	DD	0ffffffffH
	DD	0ffffffffH
	DD	0ffffffffH
	DD	0ffffffffH
	DD	0ffffffffH
	DD	0ffffffffH
	DD	0ffffffffH
	DD	0ffffffffH
	DD	0ffffffffH
	DD	0ffffffffH
	DD	0ffffffffH
	DD	0ffffffffH
	DD	0ffffffffH
	DD	0ffffffffH
	DD	0ffffffffH
	DD	0ffffffffH
	DD	0ffffffffH
	DD	0ffffffffH
	DD	0ffffffffH
	DD	0ffffffffH
	DD	0ffffffffH
	DD	0ffffffffH
	DD	0ffffffffH
	DD	0ffffffffH
	DD	0ffffffffH
	DD	0ffffffffH
	DD	0ffffffffH
	DD	0ffffffffH
	DD	0ffffffffH
	DD	0ffffffffH
	DD	0ffffffffH
	DD	0ffffffffH
	DD	0ffffffffH
	DD	0ffffffffH
	DD	0ffffffffH
	DD	0ffffffffH
	DD	0ffffffffH
	DD	0ffffffffH
	DD	0ffffffffH
	DD	0ffffffffH
	DD	0ffffffffH
	DD	0ffffffffH
	DD	0ffffffffH
	DD	0ffffffffH
	DD	0ffffffffH
	DD	0ffffffffH
	DD	0ffffffffH
	DD	0ffffffffH
	DD	0ffffffffH
	DD	0ffffffffH
	DD	0ffffffffH
	DD	0ffffffffH
	DD	0ffffffffH
	DD	0ffffffffH
	DD	0ffffffffH
	DD	0ffffffffH
	DD	0ffffffffH
	DD	0ffffffffH
	DD	0ffffffffH
	DD	0ffffffffH
	DD	0ffffffffH
	DD	0ffffffffH
	DD	0ffffffffH
	DD	0ffffffffH
	DD	0ffffffffH
	DD	0ffffffffH
	DD	0ffffffffH
	DD	0ffffffffH
	DD	0ffffffffH
	DD	0ffffffffH
	DD	0ffffffffH
	DD	0ffffffffH
	DD	0ffffffffH
	DD	0ffffffffH
	DD	0ffffffffH
	DD	0ffb5b5b5H
	DD	0ff000000H
	DD	0ca000000H
	DD	089000000H
	DD	054000000H
	DD	040000000H
	DD	040000000H
	DD	041000000H
	DD	062000000H
	DD	0ab000000H
	DD	0f0000000H
	DD	0ff000000H
	DD	0ff000000H
	DD	0fb000000H
	DD	0d2000000H
	DD	07f000000H
	DD	050000000H
	DD	042000000H
	DD	041000000H
	DD	041000000H
	DD	042000000H
	DD	045000000H
	DD	057000000H
	DD	098000000H
	DD	0e1000000H
	DD	0fc000000H
	DD	0ff000000H
	DD	0ff000000H
	DD	0e9000000H
	DD	0a9000000H
	DD	068000000H
	DD	04a000000H
	DD	042000000H
	DD	041000000H
	DD	041000000H
	DD	041000000H
	DD	041000000H
	DD	041000000H
	DD	041000000H
	DD	041000000H
	DD	041000000H
	DD	041000000H
	DD	041000000H
	DD	041000000H
	DD	041000000H
	DD	041000000H
	DD	040000000H
	DD	042000000H
	DD	067000000H
	DD	0b7000000H
	DD	0f4000000H
	DD	0ea000000H
	DD	0ac000000H
	DD	06d000000H
	DD	04e000000H
	DD	044000000H
	DD	041000000H
	DD	041000000H
	DD	041000000H
	DD	041000000H
	DD	041000000H
	DD	041000000H
	DD	041000000H
	DD	041000000H
	DD	041000000H
	DD	041000000H
	DD	040000000H
	DD	041000000H
	DD	069000000H
	DD	0b9000000H
	DD	0f5000000H
	DD	0e8000000H
	DD	0a9000000H
	DD	06b000000H
	DD	04c000000H
	DD	043000000H
	DD	041000000H
	DD	041000000H
	DD	041000000H
	DD	041000000H
	DD	041000000H
	DD	041000000H
	DD	041000000H
	DD	041000000H
	DD	041000000H
	DD	041000000H
	DD	041000000H
	DD	041000000H
	DD	040000000H
	DD	054000000H
	DD	098000000H
	DD	0e6000000H
	DD	0ff000000H
	DD	0ff000000H
	DD	0ff000000H
	DD	0ff000000H
	DD	0ff000000H
	DD	0ff000000H
	DD	0ff000000H
	DD	0ff000000H
	DD	0ff000000H
	DD	0f2000000H
	DD	0ae000000H
	DD	077000000H
	DD	04a000000H
	DD	040000000H
	DD	041000000H
	DD	041000000H
	DD	041000000H
	DD	041000000H
	DD	041000000H
	DD	041000000H
	DD	041000000H
	DD	041000000H
	DD	041000000H
	DD	041000000H
	DD	041000000H
	DD	041000000H
	DD	04c000000H
	DD	060000000H
	DD	076000000H
	DD	09a000000H
	DD	0c9000000H
	DD	0ef000000H
	DD	0fe000000H
	DD	0ff000000H
	DD	0f7000000H
	DD	0cb000000H
	DD	087000000H
	DD	058000000H
	DD	046000000H
	DD	042000000H
	DD	041000000H
	DD	041000000H
	DD	041000000H
	DD	041000000H
	DD	041000000H
	DD	041000000H
	DD	041000000H
	DD	041000000H
	DD	041000000H
	DD	041000000H
	DD	041000000H
	DD	040000000H
	DD	043000000H
	DD	074000000H
	DD	0c3000000H
	DD	0f9000000H
	DD	0ff000000H
	DD	0ff000000H
	DD	0ff000000H
	DD	0ff000000H
	DD	0ff000000H
	DD	0ce000000H
	DD	085000000H
	DD	054000000H
	DD	041000000H
	DD	041000000H
	DD	03f000000H
	DD	05e000000H
	DD	0ae000000H
	DD	0f1000000H
	DD	0ff000000H
	DD	0ff000000H
	DD	0ff000000H
	DD	0ff000000H
	DD	0ff000000H
	DD	0ff000000H
	DD	0ff000000H
	DD	0ff000000H
	DD	0ff000000H
	DD	0ff000000H
	DD	0ff000000H
	DD	0c8000000H
	DD	084000000H
	DD	052000000H
	DD	040000000H
	DD	040000000H
	DD	041000000H
	DD	065000000H
	DD	0b1000000H
	DD	0f2000000H
	DD	0ff000000H
	DD	0ff000000H
	DD	0ff000000H
	DD	0ff000000H
	DD	0fb000000H
	DD	0bb000000H
	DD	084000000H
	DD	053000000H
	DD	040000000H
	DD	040000000H
	DD	043000000H
	DD	067000000H
	DD	07f000000H
	DD	072000000H
	DD	04c000000H
	DD	040000000H
	DD	040000000H
	DD	044000000H
	DD	073000000H
	DD	0c4000000H
	DD	0fa000000H
	DD	0ff000000H
	DD	0ff000000H
	DD	0ff000000H
	DD	0ff000000H
	DD	0ff000000H
	DD	0ff000000H
	DD	0ff000000H
	DD	0fc000000H
	DD	0ba000000H
	DD	07e000000H
	DD	04e000000H
	DD	040000000H
	DD	040000000H
	DD	043000000H
	DD	071000000H
	DD	0be000000H
	DD	0f6000000H
	DD	0e5000000H
	DD	0a6000000H
	DD	068000000H
	DD	04b000000H
	DD	043000000H
	DD	041000000H
	DD	041000000H
	DD	041000000H
	DD	041000000H
	DD	041000000H
	DD	041000000H
	DD	041000000H
	DD	041000000H
	DD	041000000H
	DD	041000000H
	DD	041000000H
	DD	041000000H
	DD	041000000H
	DD	03f000000H
	DD	049000000H
	DD	07d000000H
	DD	091000000H
	DD	078000000H
	DD	04c000000H
	DD	040000000H
	DD	041000000H
	DD	041000000H
	DD	041000000H
	DD	041000000H
	DD	041000000H
	DD	041000000H
	DD	041000000H
	DD	041000000H
	DD	041000000H
	DD	041000000H
	DD	041000000H
	DD	041000000H
	DD	04b000000H
	DD	05f000000H
	DD	076000000H
	DD	098000000H
	DD	0c6000000H
	DD	0ee000000H
	DD	0fe000000H
	DD	0ff000000H
	DD	0ff000000H
	DD	0ff000000H
	DD	0ff000000H
	DD	0ffb5b5b5H
	DD	0ffffffffH
	DD	0ffffffffH
	DD	0ffffffffH
	DD	0ffffffffH
	DD	0ffffffffH
	DD	0ffffffffH
	DD	0ffffffffH
	DD	0ffffffffH
	DD	0ffffffffH
	DD	0ffffffffH
	DD	0ffffffffH
	DD	0ffffffffH
	DD	0ffffffffH
	DD	0ffffffffH
	DD	0ffffffffH
	DD	0ffffffffH
	DD	0ffffffffH
	DD	0ffffffffH
	DD	0ffffffffH
	DD	0ffffffffH
	DD	0ffffffffH
	DD	0ffffffffH
	DD	0ffffffffH
	DD	0ffffffffH
	DD	0ffffffffH
	DD	0ffffffffH
	DD	0ffffffffH
	DD	0ffffffffH
	DD	0ffffffffH
	DD	0ffffffffH
	DD	0ffffffffH
	DD	0ffffffffH
	DD	0ffffffffH
	DD	0ffffffffH
	DD	0ffffffffH
	DD	0ffffffffH
	DD	0ffffffffH
	DD	0ffffffffH
	DD	0ffffffffH
	DD	0ffffffffH
	DD	0ffffffffH
	DD	0ffffffffH
	DD	0ffffffffH
	DD	0ffffffffH
	DD	0ffffffffH
	DD	0ffffffffH
	DD	0ffffffffH
	DD	0ffffffffH
	DD	0ffffffffH
	DD	0ffffffffH
	DD	0ffffffffH
	DD	0ffffffffH
	DD	0ffffffffH
	DD	0ffffffffH
	DD	0ffffffffH
	DD	0ffffffffH
	DD	0ffffffffH
	DD	0ffffffffH
	DD	0ffffffffH
	DD	0ffffffffH
	DD	0ffffffffH
	DD	0ffffffffH
	DD	0ffffffffH
	DD	0ffffffffH
	DD	0ffffffffH
	DD	0ffffffffH
	DD	0ffffffffH
	DD	0ffffffffH
	DD	0ffffffffH
	DD	0ffffffffH
	DD	0ffffffffH
	DD	0ffffffffH
	DD	0ffffffffH
	DD	0ffffffffH
	DD	0ffffffffH
	DD	0ffffffffH
	DD	0ffb5b5b5H
	DD	0ff000000H
	DD	0ff000000H
	DD	0e4000000H
	DD	0b5000000H
	DD	0a7000000H
	DD	0a8000000H
	DD	0a7000000H
	DD	0b2000000H
	DD	0d7000000H
	DD	0f9000000H
	DD	0ff000000H
	DD	0ff000000H
	DD	0ff000000H
	DD	0fc000000H
	DD	0e8000000H
	DD	0c1000000H
	DD	0ab000000H
	DD	0a8000000H
	DD	0a8000000H
	DD	0a8000000H
	DD	0a8000000H
	DD	0ae000000H
	DD	0bf000000H
	DD	0de000000H
	DD	0fa000000H
	DD	0ff000000H
	DD	0ff000000H
	DD	0fd000000H
	DD	0ee000000H
	DD	0d5000000H
	DD	0ba000000H
	DD	0ab000000H
	DD	0a8000000H
	DD	0a8000000H
	DD	0a8000000H
	DD	0a8000000H
	DD	0a8000000H
	DD	0a8000000H
	DD	0a8000000H
	DD	0a8000000H
	DD	0a8000000H
	DD	0a8000000H
	DD	0a8000000H
	DD	0a8000000H
	DD	0a8000000H
	DD	0a8000000H
	DD	0a7000000H
	DD	0b4000000H
	DD	0de000000H
	DD	0fd000000H
	DD	0fd000000H
	DD	0ef000000H
	DD	0d7000000H
	DD	0be000000H
	DD	0ad000000H
	DD	0a8000000H
	DD	0a8000000H
	DD	0a8000000H
	DD	0a8000000H
	DD	0a8000000H
	DD	0a8000000H
	DD	0a8000000H
	DD	0a8000000H
	DD	0a8000000H
	DD	0a8000000H
	DD	0a8000000H
	DD	0a7000000H
	DD	0b5000000H
	DD	0de000000H
	DD	0fc000000H
	DD	0fd000000H
	DD	0ee000000H
	DD	0d6000000H
	DD	0bd000000H
	DD	0ad000000H
	DD	0a8000000H
	DD	0a8000000H
	DD	0a8000000H
	DD	0a8000000H
	DD	0a8000000H
	DD	0a8000000H
	DD	0a8000000H
	DD	0a8000000H
	DD	0a8000000H
	DD	0a8000000H
	DD	0a8000000H
	DD	0a8000000H
	DD	0a7000000H
	DD	0ac000000H
	DD	0cd000000H
	DD	0f4000000H
	DD	0ff000000H
	DD	0ff000000H
	DD	0ff000000H
	DD	0ff000000H
	DD	0ff000000H
	DD	0ff000000H
	DD	0ff000000H
	DD	0ff000000H
	DD	0ff000000H
	DD	0ff000000H
	DD	0fc000000H
	DD	0d2000000H
	DD	0ad000000H
	DD	0a7000000H
	DD	0a8000000H
	DD	0a8000000H
	DD	0a8000000H
	DD	0a8000000H
	DD	0a8000000H
	DD	0a8000000H
	DD	0a8000000H
	DD	0a8000000H
	DD	0a8000000H
	DD	0a8000000H
	DD	0a8000000H
	DD	0a8000000H
	DD	0aa000000H
	DD	0b4000000H
	DD	0cb000000H
	DD	0e6000000H
	DD	0f8000000H
	DD	0ff000000H
	DD	0ff000000H
	DD	0ff000000H
	DD	0ff000000H
	DD	0f7000000H
	DD	0e3000000H
	DD	0c8000000H
	DD	0b3000000H
	DD	0aa000000H
	DD	0a8000000H
	DD	0a8000000H
	DD	0a8000000H
	DD	0a8000000H
	DD	0a8000000H
	DD	0a8000000H
	DD	0a8000000H
	DD	0a8000000H
	DD	0a8000000H
	DD	0a8000000H
	DD	0a8000000H
	DD	0a8000000H
	DD	0a8000000H
	DD	0ba000000H
	DD	0e3000000H
	DD	0fc000000H
	DD	0ff000000H
	DD	0ff000000H
	DD	0ff000000H
	DD	0ff000000H
	DD	0ff000000H
	DD	0ff000000H
	DD	0e1000000H
	DD	0b5000000H
	DD	0a7000000H
	DD	0a8000000H
	DD	0a7000000H
	DD	0b1000000H
	DD	0d8000000H
	DD	0fa000000H
	DD	0ff000000H
	DD	0ff000000H
	DD	0ff000000H
	DD	0ff000000H
	DD	0ff000000H
	DD	0ff000000H
	DD	0ff000000H
	DD	0ff000000H
	DD	0ff000000H
	DD	0ff000000H
	DD	0ff000000H
	DD	0ff000000H
	DD	0df000000H
	DD	0b3000000H
	DD	0a7000000H
	DD	0a8000000H
	DD	0a8000000H
	DD	0b3000000H
	DD	0da000000H
	DD	0fa000000H
	DD	0ff000000H
	DD	0ff000000H
	DD	0ff000000H
	DD	0ff000000H
	DD	0ff000000H
	DD	0ff000000H
	DD	0df000000H
	DD	0b3000000H
	DD	0a7000000H
	DD	0a8000000H
	DD	0a7000000H
	DD	0b5000000H
	DD	0d6000000H
	DD	0cf000000H
	DD	0b0000000H
	DD	0a7000000H
	DD	0a8000000H
	DD	0a8000000H
	DD	0b9000000H
	DD	0e4000000H
	DD	0fe000000H
	DD	0ff000000H
	DD	0ff000000H
	DD	0ff000000H
	DD	0ff000000H
	DD	0ff000000H
	DD	0ff000000H
	DD	0ff000000H
	DD	0ff000000H
	DD	0ff000000H
	DD	0da000000H
	DD	0b0000000H
	DD	0a7000000H
	DD	0a8000000H
	DD	0a7000000H
	DD	0b8000000H
	DD	0e1000000H
	DD	0fd000000H
	DD	0fd000000H
	DD	0ee000000H
	DD	0d5000000H
	DD	0bb000000H
	DD	0ac000000H
	DD	0a8000000H
	DD	0a8000000H
	DD	0a8000000H
	DD	0a8000000H
	DD	0a8000000H
	DD	0a8000000H
	DD	0a8000000H
	DD	0a8000000H
	DD	0a8000000H
	DD	0a8000000H
	DD	0a8000000H
	DD	0a8000000H
	DD	0a8000000H
	DD	0a8000000H
	DD	0a8000000H
	DD	0c0000000H
	DD	0e5000000H
	DD	0d4000000H
	DD	0af000000H
	DD	0a7000000H
	DD	0a8000000H
	DD	0a8000000H
	DD	0a8000000H
	DD	0a8000000H
	DD	0a8000000H
	DD	0a8000000H
	DD	0a8000000H
	DD	0a8000000H
	DD	0a8000000H
	DD	0a8000000H
	DD	0a8000000H
	DD	0a8000000H
	DD	0a9000000H
	DD	0b2000000H
	DD	0ca000000H
	DD	0e5000000H
	DD	0f8000000H
	DD	0ff000000H
	DD	0ff000000H
	DD	0ff000000H
	DD	0ff000000H
	DD	0ff000000H
	DD	0ff000000H
	DD	0ffb5b5b5H
	DD	0ffffffffH
	DD	0ffffffffH
	DD	0ffffffffH
	DD	0ffffffffH
	DD	0ffffffffH
	DD	0ffffffffH
	DD	0ffffffffH
	DD	0ffffffffH
	DD	0ffffffffH
	DD	0ffffffffH
	DD	0ffffffffH
	DD	0ffffffffH
	DD	0ffffffffH
	DD	0ffffffffH
	DD	0ffffffffH
	DD	0ffffffffH
	DD	0ffffffffH
	DD	0ffffffffH
	DD	0ffffffffH
	DD	0ffffffffH
	DD	0ffffffffH
	DD	0ffffffffH
	DD	0ffffffffH
	DD	0ffffffffH
	DD	0ffffffffH
	DD	0ffffffffH
	DD	0ffffffffH
	DD	0ffffffffH
	DD	0ffffffffH
	DD	0ffffffffH
	DD	0ffffffffH
	DD	0ffffffffH
	DD	0ffffffffH
	DD	0ffffffffH
	DD	0ffffffffH
	DD	0ffffffffH
	DD	0ffffffffH
	DD	0ffffffffH
	DD	0ffffffffH
	DD	0ffffffffH
	DD	0ffffffffH
	DD	0ffffffffH
	DD	0ffffffffH
	DD	0ffffffffH
	DD	0ffffffffH
	DD	0ffffffffH
	DD	0ffffffffH
	DD	0ffffffffH
	DD	0ffffffffH
	DD	0ffffffffH
	DD	0ffffffffH
	DD	0ffffffffH
	DD	0ffffffffH
	DD	0ffffffffH
	DD	0ffffffffH
	DD	0ffffffffH
	DD	0ffffffffH
	DD	0ffffffffH
	DD	0ffffffffH
	DD	0ffffffffH
	DD	0ffffffffH
	DD	0ffffffffH
	DD	0ffffffffH
	DD	0ffffffffH
	DD	0ffffffffH
	DD	0ffffffffH
	DD	0ffffffffH
	DD	0ffffffffH
	DD	0ffffffffH
	DD	0ffffffffH
	DD	0ffffffffH
	DD	0ffffffffH
	DD	0ffffffffH
	DD	0ffffffffH
	DD	0ffffffffH
	DD	0ffffffffH
	DD	0ffb5b5b5H
	DD	0ff000000H
	DD	0fe000000H
	DD	0f9000000H
	DD	0f2000000H
	DD	0f1000000H
	DD	0f1000000H
	DD	0f1000000H
	DD	0f3000000H
	DD	0f9000000H
	DD	0fe000000H
	DD	0ff000000H
	DD	0ff000000H
	DD	0ff000000H
	DD	0ff000000H
	DD	0fe000000H
	DD	0f7000000H
	DD	0f2000000H
	DD	0f1000000H
	DD	0f1000000H
	DD	0f1000000H
	DD	0f1000000H
	DD	0f0000000H
	DD	0f1000000H
	DD	0f7000000H
	DD	0fd000000H
	DD	0ff000000H
	DD	0ff000000H
	DD	0ff000000H
	DD	0ff000000H
	DD	0fd000000H
	DD	0f6000000H
	DD	0f1000000H
	DD	0f1000000H
	DD	0f1000000H
	DD	0f1000000H
	DD	0f1000000H
	DD	0f1000000H
	DD	0f1000000H
	DD	0f1000000H
	DD	0f1000000H
	DD	0f1000000H
	DD	0f1000000H
	DD	0f1000000H
	DD	0f1000000H
	DD	0f1000000H
	DD	0f1000000H
	DD	0f1000000H
	DD	0f4000000H
	DD	0fa000000H
	DD	0ff000000H
	DD	0ff000000H
	DD	0ff000000H
	DD	0fe000000H
	DD	0f8000000H
	DD	0f2000000H
	DD	0f1000000H
	DD	0f1000000H
	DD	0f1000000H
	DD	0f1000000H
	DD	0f1000000H
	DD	0f1000000H
	DD	0f1000000H
	DD	0f1000000H
	DD	0f1000000H
	DD	0f1000000H
	DD	0f1000000H
	DD	0f1000000H
	DD	0f3000000H
	DD	0fa000000H
	DD	0ff000000H
	DD	0ff000000H
	DD	0ff000000H
	DD	0fd000000H
	DD	0f7000000H
	DD	0f2000000H
	DD	0f1000000H
	DD	0f1000000H
	DD	0f1000000H
	DD	0f1000000H
	DD	0f1000000H
	DD	0f1000000H
	DD	0f1000000H
	DD	0f1000000H
	DD	0f1000000H
	DD	0f1000000H
	DD	0f1000000H
	DD	0f1000000H
	DD	0f1000000H
	DD	0f2000000H
	DD	0f8000000H
	DD	0fe000000H
	DD	0ff000000H
	DD	0ff000000H
	DD	0ff000000H
	DD	0ff000000H
	DD	0ff000000H
	DD	0ff000000H
	DD	0ff000000H
	DD	0ff000000H
	DD	0ff000000H
	DD	0ff000000H
	DD	0fd000000H
	DD	0f6000000H
	DD	0f1000000H
	DD	0f1000000H
	DD	0f1000000H
	DD	0f1000000H
	DD	0f1000000H
	DD	0f1000000H
	DD	0f1000000H
	DD	0f1000000H
	DD	0f1000000H
	DD	0f1000000H
	DD	0f1000000H
	DD	0f1000000H
	DD	0f1000000H
	DD	0f1000000H
	DD	0f2000000H
	DD	0f6000000H
	DD	0fc000000H
	DD	0ff000000H
	DD	0ff000000H
	DD	0ff000000H
	DD	0ff000000H
	DD	0ff000000H
	DD	0ff000000H
	DD	0ff000000H
	DD	0ff000000H
	DD	0fa000000H
	DD	0f4000000H
	DD	0f1000000H
	DD	0f1000000H
	DD	0f1000000H
	DD	0f1000000H
	DD	0f1000000H
	DD	0f1000000H
	DD	0f1000000H
	DD	0f1000000H
	DD	0f1000000H
	DD	0f1000000H
	DD	0f1000000H
	DD	0f1000000H
	DD	0f1000000H
	DD	0f1000000H
	DD	0f4000000H
	DD	0fb000000H
	DD	0ff000000H
	DD	0ff000000H
	DD	0ff000000H
	DD	0ff000000H
	DD	0ff000000H
	DD	0ff000000H
	DD	0fe000000H
	DD	0f8000000H
	DD	0f2000000H
	DD	0f1000000H
	DD	0f1000000H
	DD	0f1000000H
	DD	0f2000000H
	DD	0fa000000H
	DD	0fe000000H
	DD	0ff000000H
	DD	0ff000000H
	DD	0ff000000H
	DD	0ff000000H
	DD	0ff000000H
	DD	0ff000000H
	DD	0ff000000H
	DD	0ff000000H
	DD	0ff000000H
	DD	0ff000000H
	DD	0ff000000H
	DD	0fd000000H
	DD	0f8000000H
	DD	0f1000000H
	DD	0f1000000H
	DD	0f1000000H
	DD	0f1000000H
	DD	0f3000000H
	DD	0f9000000H
	DD	0fe000000H
	DD	0ff000000H
	DD	0ff000000H
	DD	0ff000000H
	DD	0ff000000H
	DD	0ff000000H
	DD	0fe000000H
	DD	0f7000000H
	DD	0f1000000H
	DD	0f0000000H
	DD	0f1000000H
	DD	0f1000000H
	DD	0f3000000H
	DD	0f8000000H
	DD	0f6000000H
	DD	0f1000000H
	DD	0f1000000H
	DD	0f1000000H
	DD	0f1000000H
	DD	0f4000000H
	DD	0fb000000H
	DD	0ff000000H
	DD	0ff000000H
	DD	0ff000000H
	DD	0ff000000H
	DD	0ff000000H
	DD	0ff000000H
	DD	0ff000000H
	DD	0ff000000H
	DD	0ff000000H
	DD	0fe000000H
	DD	0f7000000H
	DD	0f2000000H
	DD	0f1000000H
	DD	0f1000000H
	DD	0f1000000H
	DD	0f4000000H
	DD	0fb000000H
	DD	0ff000000H
	DD	0ff000000H
	DD	0ff000000H
	DD	0fd000000H
	DD	0f7000000H
	DD	0f2000000H
	DD	0f1000000H
	DD	0f1000000H
	DD	0f1000000H
	DD	0f1000000H
	DD	0f1000000H
	DD	0f1000000H
	DD	0f1000000H
	DD	0f1000000H
	DD	0f1000000H
	DD	0f1000000H
	DD	0f1000000H
	DD	0f1000000H
	DD	0f1000000H
	DD	0f1000000H
	DD	0f1000000H
	DD	0f6000000H
	DD	0fa000000H
	DD	0f6000000H
	DD	0f1000000H
	DD	0f1000000H
	DD	0f1000000H
	DD	0f1000000H
	DD	0f1000000H
	DD	0f1000000H
	DD	0f1000000H
	DD	0f1000000H
	DD	0f1000000H
	DD	0f1000000H
	DD	0f1000000H
	DD	0f1000000H
	DD	0f1000000H
	DD	0f1000000H
	DD	0f1000000H
	DD	0f6000000H
	DD	0fc000000H
	DD	0ff000000H
	DD	0ff000000H
	DD	0ff000000H
	DD	0ff000000H
	DD	0ff000000H
	DD	0ff000000H
	DD	0ff000000H
	DD	0ff000000H
	DD	0ffb5b5b5H
	DD	0ffffffffH
	DD	0ffffffffH
	DD	0ffffffffH
	DD	0ffffffffH
	DD	0ffffffffH
	DD	0ffffffffH
	DD	0ffffffffH
	DD	0ffffffffH
	DD	0ffffffffH
	DD	0ffffffffH
	DD	0ffffffffH
	DD	0ffffffffH
	DD	0ffffffffH
	DD	0ffffffffH
	DD	0ffffffffH
	DD	0ffffffffH
	DD	0ffffffffH
	DD	0ffffffffH
	DD	0ffffffffH
	DD	0ffffffffH
	DD	0ffffffffH
	DD	0ffffffffH
	DD	0ffffffffH
	DD	0ffffffffH
	DD	0ffffffffH
	DD	0ffffffffH
	DD	0ffffffffH
	DD	0ffffffffH
	DD	0ffffffffH
	DD	0ffffffffH
	DD	0ffffffffH
	DD	0ffffffffH
	DD	0ffffffffH
	DD	0ffffffffH
	DD	0ffffffffH
	DD	0ffffffffH
	DD	0ffffffffH
	DD	0ffffffffH
	DD	0ffffffffH
	DD	0ffffffffH
	DD	0ffffffffH
	DD	0ffffffffH
	DD	0ffffffffH
	DD	0ffffffffH
	DD	0ffffffffH
	DD	0ffffffffH
	DD	0ffffffffH
	DD	0ffffffffH
	DD	0ffffffffH
	DD	0ffffffffH
	DD	0ffffffffH
	DD	0ffffffffH
	DD	0ffffffffH
	DD	0ffffffffH
	DD	0ffffffffH
	DD	0ffffffffH
	DD	0ffffffffH
	DD	0ffffffffH
	DD	0ffffffffH
	DD	0ffffffffH
	DD	0ffffffffH
	DD	0ffffffffH
	DD	0ffffffffH
	DD	0ffffffffH
	DD	0ffffffffH
	DD	0ffffffffH
	DD	0ffffffffH
	DD	0ffffffffH
	DD	0ffffffffH
	DD	0ffffffffH
	DD	0ffffffffH
	DD	0ffffffffH
	DD	0ffffffffH
	DD	0ffffffffH
	DD	0ffffffffH
	DD	0ffffffffH
	DD	0ffe5e5e5H
	DD	0ff9f9f9fH
	DD	0ffa5a5a5H
	DD	0ffa5a5a5H
	DD	0ffa5a5a5H
	DD	0ffa5a5a5H
	DD	0ffa5a5a5H
	DD	0ffa5a5a5H
	DD	0ffa5a5a5H
	DD	0ffa5a5a5H
	DD	0ffa5a5a5H
	DD	0ffa5a5a5H
	DD	0ffa5a5a5H
	DD	0ffa5a5a5H
	DD	0ffa5a5a5H
	DD	0ffa5a5a5H
	DD	0ffa5a5a5H
	DD	0ffa5a5a5H
	DD	0ffa5a5a5H
	DD	0ffa5a5a5H
	DD	0ffa5a5a5H
	DD	0ffa5a5a5H
	DD	0ffa5a5a5H
	DD	0ffa5a5a5H
	DD	0ffa5a5a5H
	DD	0ffa5a5a5H
	DD	0ffa5a5a5H
	DD	0ffa5a5a5H
	DD	0ffa5a5a5H
	DD	0ffa5a5a5H
	DD	0ffa5a5a5H
	DD	0ffa5a5a5H
	DD	0ffa5a5a5H
	DD	0ffa5a5a5H
	DD	0ffa5a5a5H
	DD	0ffa5a5a5H
	DD	0ffa5a5a5H
	DD	0ffa5a5a5H
	DD	0ffa5a5a5H
	DD	0ffa5a5a5H
	DD	0ffa5a5a5H
	DD	0ffa5a5a5H
	DD	0ffa5a5a5H
	DD	0ffa5a5a5H
	DD	0ffa5a5a5H
	DD	0ffa5a5a5H
	DD	0ffa5a5a5H
	DD	0ffa5a5a5H
	DD	0ffa5a5a5H
	DD	0ffa5a5a5H
	DD	0ffa5a5a5H
	DD	0ffa5a5a5H
	DD	0ffa5a5a5H
	DD	0ffa5a5a5H
	DD	0ffa5a5a5H
	DD	0ffa5a5a5H
	DD	0ffa5a5a5H
	DD	0ffa5a5a5H
	DD	0ffa5a5a5H
	DD	0ffa5a5a5H
	DD	0ffa5a5a5H
	DD	0ffa5a5a5H
	DD	0ffa5a5a5H
	DD	0ffa5a5a5H
	DD	0ffa5a5a5H
	DD	0ffa5a5a5H
	DD	0ffa5a5a5H
	DD	0ffa5a5a5H
	DD	0ffa5a5a5H
	DD	0ffa5a5a5H
	DD	0ffa5a5a5H
	DD	0ffa5a5a5H
	DD	0ffa5a5a5H
	DD	0ffa5a5a5H
	DD	0ffa5a5a5H
	DD	0ffa5a5a5H
	DD	0ffa5a5a5H
	DD	0ffa5a5a5H
	DD	0ffa5a5a5H
	DD	0ffa5a5a5H
	DD	0ffa5a5a5H
	DD	0ffa5a5a5H
	DD	0ffa5a5a5H
	DD	0ffa5a5a5H
	DD	0ffa5a5a5H
	DD	0ffa5a5a5H
	DD	0ffa5a5a5H
	DD	0ffa5a5a5H
	DD	0ffa5a5a5H
	DD	0ffa5a5a5H
	DD	0ffa5a5a5H
	DD	0ffa5a5a5H
	DD	0ffa5a5a5H
	DD	0ffa5a5a5H
	DD	0ffa5a5a5H
	DD	0ffa5a5a5H
	DD	0ffa5a5a5H
	DD	0ffa5a5a5H
	DD	0ffa5a5a5H
	DD	0ffa5a5a5H
	DD	0ffa5a5a5H
	DD	0ffa5a5a5H
	DD	0ffa5a5a5H
	DD	0ffa5a5a5H
	DD	0ffa5a5a5H
	DD	0ffa5a5a5H
	DD	0ffa5a5a5H
	DD	0ffa5a5a5H
	DD	0ffa5a5a5H
	DD	0ffa5a5a5H
	DD	0ffa5a5a5H
	DD	0ffa5a5a5H
	DD	0ffa5a5a5H
	DD	0ffa5a5a5H
	DD	0ffa5a5a5H
	DD	0ffa5a5a5H
	DD	0ffa5a5a5H
	DD	0ffa5a5a5H
	DD	0ffa5a5a5H
	DD	0ffa5a5a5H
	DD	0ffa5a5a5H
	DD	0ffa5a5a5H
	DD	0ffa5a5a5H
	DD	0ffa5a5a5H
	DD	0ffa5a5a5H
	DD	0ffa5a5a5H
	DD	0ffa5a5a5H
	DD	0ffa5a5a5H
	DD	0ffa5a5a5H
	DD	0ffa5a5a5H
	DD	0ffa5a5a5H
	DD	0ffa5a5a5H
	DD	0ffa5a5a5H
	DD	0ffa5a5a5H
	DD	0ffa5a5a5H
	DD	0ffa5a5a5H
	DD	0ffa5a5a5H
	DD	0ffa5a5a5H
	DD	0ffa5a5a5H
	DD	0ffa5a5a5H
	DD	0ffa5a5a5H
	DD	0ffa5a5a5H
	DD	0ffa5a5a5H
	DD	0ffa5a5a5H
	DD	0ffa5a5a5H
	DD	0ffa5a5a5H
	DD	0ffa5a5a5H
	DD	0ffa5a5a5H
	DD	0ffa5a5a5H
	DD	0ffa5a5a5H
	DD	0ffa5a5a5H
	DD	0ffa5a5a5H
	DD	0ffa5a5a5H
	DD	0ffa5a5a5H
	DD	0ffa5a5a5H
	DD	0ffa5a5a5H
	DD	0ffa5a5a5H
	DD	0ffa5a5a5H
	DD	0ffa5a5a5H
	DD	0ffa5a5a5H
	DD	0ffa5a5a5H
	DD	0ffa5a5a5H
	DD	0ffa5a5a5H
	DD	0ffa5a5a5H
	DD	0ffa5a5a5H
	DD	0ffa5a5a5H
	DD	0ffa5a5a5H
	DD	0ffa5a5a5H
	DD	0ffa5a5a5H
	DD	0ffa5a5a5H
	DD	0ffa5a5a5H
	DD	0ffa5a5a5H
	DD	0ffa5a5a5H
	DD	0ffa5a5a5H
	DD	0ffa5a5a5H
	DD	0ffa5a5a5H
	DD	0ffa5a5a5H
	DD	0ffa5a5a5H
	DD	0ffa5a5a5H
	DD	0ffa5a5a5H
	DD	0ffa5a5a5H
	DD	0ffa5a5a5H
	DD	0ffa5a5a5H
	DD	0ffa5a5a5H
	DD	0ffa5a5a5H
	DD	0ffa5a5a5H
	DD	0ffa5a5a5H
	DD	0ffa5a5a5H
	DD	0ffa5a5a5H
	DD	0ffa5a5a5H
	DD	0ffa5a5a5H
	DD	0ffa5a5a5H
	DD	0ffa5a5a5H
	DD	0ffa5a5a5H
	DD	0ffa5a5a5H
	DD	0ffa5a5a5H
	DD	0ffa5a5a5H
	DD	0ffa5a5a5H
	DD	0ffa5a5a5H
	DD	0ffa5a5a5H
	DD	0ffa5a5a5H
	DD	0ffa5a5a5H
	DD	0ffa5a5a5H
	DD	0ffa5a5a5H
	DD	0ffa5a5a5H
	DD	0ffa5a5a5H
	DD	0ffa5a5a5H
	DD	0ffa5a5a5H
	DD	0ffa5a5a5H
	DD	0ffa5a5a5H
	DD	0ffa5a5a5H
	DD	0ffa5a5a5H
	DD	0ffa5a5a5H
	DD	0ffa5a5a5H
	DD	0ffa5a5a5H
	DD	0ffa5a5a5H
	DD	0ffa5a5a5H
	DD	0ffa5a5a5H
	DD	0ffa5a5a5H
	DD	0ffa5a5a5H
	DD	0ffa5a5a5H
	DD	0ffa5a5a5H
	DD	0ffa5a5a5H
	DD	0ffa5a5a5H
	DD	0ffa5a5a5H
	DD	0ffa5a5a5H
	DD	0ffa5a5a5H
	DD	0ffa5a5a5H
	DD	0ffa5a5a5H
	DD	0ffa5a5a5H
	DD	0ffa5a5a5H
	DD	0ffa5a5a5H
	DD	0ffa5a5a5H
	DD	0ffa5a5a5H
	DD	0ffa5a5a5H
	DD	0ffa5a5a5H
	DD	0ffa5a5a5H
	DD	0ffa5a5a5H
	DD	0ffa5a5a5H
	DD	0ffa5a5a5H
	DD	0ffa5a5a5H
	DD	0ffa5a5a5H
	DD	0ffa5a5a5H
	DD	0ffa5a5a5H
	DD	0ffa5a5a5H
	DD	0ffa5a5a5H
	DD	0ffa5a5a5H
	DD	0ffa5a5a5H
	DD	0ffa5a5a5H
	DD	0ffa5a5a5H
	DD	0ffa5a5a5H
	DD	0ffa5a5a5H
	DD	0ffa5a5a5H
	DD	0ffa5a5a5H
	DD	0ffa5a5a5H
	DD	0ffa5a5a5H
	DD	0ffa5a5a5H
	DD	0ffa5a5a5H
	DD	0ffa5a5a5H
	DD	0ffa5a5a5H
	DD	0ffa5a5a5H
	DD	0ffa5a5a5H
	DD	0ffa5a5a5H
	DD	0ffa5a5a5H
	DD	0ffa5a5a5H
	DD	0ffa5a5a5H
	DD	0ffa5a5a5H
	DD	0ff9f9f9fH
	DD	0ffe5e5e5H
	DD	0ffffffffH
	DD	0ffffffffH
	DD	0ffffffffH
	DD	0ffffffffH
	DD	0ffffffffH
	DD	0ffffffffH
	DD	0ffffffffH
	DD	0ffffffffH
	DD	0ffffffffH
	DD	0ffffffffH
	DD	0ffffffffH
	DD	0ffffffffH
	DD	0ffffffffH
	DD	0ffffffffH
	DD	0ffffffffH
	DD	0ffffffffH
	DD	0ffffffffH
	DD	0ffffffffH
	DD	0ffffffffH
	DD	0ffffffffH
	DD	0ffffffffH
	DD	0ffffffffH
	DD	0ffffffffH
	DD	0ffffffffH
	DD	0ffffffffH
	DD	0ffffffffH
	DD	0ffffffffH
	DD	0ffffffffH
	DD	0ffffffffH
	DD	0ffffffffH
	DD	0ffffffffH
	DD	0ffffffffH
	DD	0ffffffffH
	DD	0ffffffffH
	DD	0ffffffffH
	DD	0ffffffffH
	DD	0ffffffffH
	DD	0ffffffffH
	DD	0ffffffffH
	DD	0ffffffffH
	DD	0ffffffffH
	DD	0ffffffffH
	DD	0ffffffffH
	DD	0ffffffffH
	DD	0ffffffffH
	DD	0ffffffffH
	DD	0ffffffffH
	DD	0ffffffffH
	DD	0ffffffffH
	DD	0ffffffffH
	DD	0ffffffffH
	DD	0ffffffffH
	DD	0ffffffffH
	DD	0ffffffffH
	DD	0ffffffffH
	DD	0ffffffffH
	DD	0ffffffffH
	DD	0ffffffffH
	DD	0ffffffffH
	DD	0ffffffffH
	DD	0ffffffffH
	DD	0ffffffffH
	DD	0ffffffffH
	DD	0ffffffffH
	DD	0ffffffffH
	DD	0ffffffffH
	DD	0ffffffffH
	DD	0ffffffffH
	DD	0ffffffffH
	DD	0ffffffffH
	DD	0ffffffffH
	DD	0ffffffffH
	DD	0ffffffffH
	DD	0ffffffffH
	DD	0ffffffffH
	DD	0ffffffffH
	DD	0ffffffffH
	DD	0ffffffffH
	DD	0ffffffffH
	DD	0ffffffffH
	DD	0ffffffffH
	DD	0ffffffffH
	DD	0ffffffffH
	DD	0ffffffffH
	DD	0ffffffffH
	DD	0ffffffffH
	DD	0ffffffffH
	DD	0ffffffffH
	DD	0ffffffffH
	DD	0ffffffffH
	DD	0ffffffffH
	DD	0ffffffffH
	DD	0ffffffffH
	DD	0ffffffffH
	DD	0ffffffffH
	DD	0ffffffffH
	DD	0ffffffffH
	DD	0ffffffffH
	DD	0ffffffffH
	DD	0ffffffffH
	DD	0ffffffffH
	DD	0ffffffffH
	DD	0ffffffffH
	DD	0ffffffffH
	DD	0ffffffffH
	DD	0ffffffffH
	DD	0ffffffffH
	DD	0ffffffffH
	DD	0ffffffffH
	DD	0ffffffffH
	DD	0ffffffffH
	DD	0ffffffffH
	DD	0ffffffffH
	DD	0ffffffffH
	DD	0ffffffffH
	DD	0ffffffffH
	DD	0ffffffffH
	DD	0ffffffffH
	DD	0ffffffffH
	DD	0ffffffffH
	DD	0ffffffffH
	DD	0ffffffffH
	DD	0ffffffffH
	DD	0ffffffffH
	DD	0ffffffffH
	DD	0ffffffffH
	DD	0ffffffffH
	DD	0ffffffffH
	DD	0ffffffffH
	DD	0ffffffffH
	DD	0ffffffffH
	DD	0ffffffffH
	DD	0ffffffffH
	DD	0ffffffffH
	DD	0ffffffffH
	DD	0ffffffffH
	DD	0ffffffffH
	DD	0ffffffffH
	DD	0ffffffffH
	DD	0ffffffffH
	DD	0ffffffffH
	DD	0ffffffffH
	DD	0ffffffffH
	DD	0ffffffffH
	DD	0ffffffffH
	DD	0ffffffffH
	DD	0ffffffffH
	DD	0ffffffffH
	DD	0ffffffffH
	DD	0ffffffffH
	DD	0ffffffffH
	DD	0ffffffffH
	DD	0ffffffffH
	DD	0ffffffffH
	DD	0ffffffffH
	DD	0ffffffffH
	DD	0ffffffffH
	DD	0ffffffffH
	DD	0ffffffffH
	DD	0ffffffffH
	DD	0ffffffffH
	DD	0ffffffffH
	DD	0ffffffffH
	DD	0ffffffffH
	DD	0ffffffffH
	DD	0ffffffffH
	DD	0ffffffffH
	DD	0ffffffffH
	DD	0ffffffffH
	DD	0ffffffffH
	DD	0ffffffffH
	DD	0ffffffffH
	DD	0ffffffffH
	DD	0ffffffffH
	DD	0ffffffffH
	DD	0ffffffffH
	DD	0ffffffffH
	DD	0ffffffffH
	DD	0ffffffffH
	DD	0ffffffffH
	DD	0ffffffffH
	DD	0ffffffffH
	DD	0ffffffffH
	DD	0ffffffffH
	DD	0ffffffffH
	DD	0ffffffffH
	DD	0ffffffffH
	DD	0ffffffffH
	DD	0ffffffffH
	DD	0ffffffffH
	DD	0ffffffffH
	DD	0ffffffffH
	DD	0ffffffffH
	DD	0ffffffffH
	DD	0ffffffffH
	DD	0ffffffffH
	DD	0ffffffffH
	DD	0ffffffffH
	DD	0ffffffffH
	DD	0ffffffffH
	DD	0ffffffffH
	DD	0ffffffffH
	DD	0ffffffffH
	DD	0ffffffffH
	DD	0ffffffffH
	DD	0ffffffffH
	DD	0ffffffffH
	DD	0ffffffffH
	DD	0ffffffffH
	DD	0ffffffffH
	DD	0ffffffffH
	DD	0ffffffffH
	DD	0ffffffffH
	DD	0ffffffffH
	DD	0ffffffffH
	DD	0ffffffffH
	DD	0ffffffffH
	DD	0ffffffffH
	DD	0ffffffffH
	DD	0ffffffffH
	DD	0ffffffffH
	DD	0ffffffffH
	DD	0ffffffffH
	DD	0ffffffffH
	DD	0ffffffffH
	DD	0ffffffffH
	DD	0ffffffffH
	DD	0ffffffffH
	DD	0ffffffffH
	DD	0ffffffffH
	DD	0ffffffffH
	DD	0ffffffffH
	DD	0ffffffffH
	DD	0ffffffffH
	DD	0ffffffffH
	DD	0ffffffffH
	DD	0ffffffffH
	DD	0ffffffffH
	DD	0ffffffffH
	DD	0ffffffffH
	DD	0ffffffffH
	DD	0ffffffffH
	DD	0ffffffffH
	DD	0ffffffffH
	DD	0ffffffffH
	DD	0ffffffffH
	DD	0ffffffffH
	DD	0ffffffffH
	DD	0ffffffffH
	DD	0ffffffffH
	DD	0ffffffffH
	DD	0ffffffffH
	DD	0ffffffffH
	DD	0ffffffffH
	DD	0ffffffffH
	DD	0ffffffffH
	DD	0ffffffffH
	DD	0ffffffffH
	DD	0ffffffffH
	DD	0ffffffffH
	DD	0ffffffffH
	DD	0ffffffffH
	DD	0ffffffffH
	DD	0ffffffffH
	DD	0ffffffffH
	DD	0ffffffffH
	DD	0ffffffffH
	DD	0ffffffffH
	DD	0ffffffffH
	DD	0ffffffffH
	DD	0ffffffffH
	DD	0ffffffffH
	DD	0ffffffffH
	DD	0ffffffffH
	DD	0ffffffffH
	DD	0ffffffffH
	DD	0ffffffffH
	DD	0ffffffffH
	DD	0ffffffffH
	DD	0ffffffffH
	DD	0ffffffffH
	DD	0ffffffffH
	DD	0ffffffffH
	DD	0ffffffffH
	DD	0ffffffffH
	DD	0ffffffffH
	DD	0ffffffffH
	DD	0ffffffffH
	DD	0ffffffffH
	DD	0ffffffffH
	DD	0ffffffffH
	DD	0ffffffffH
	DD	0ffffffffH
	DD	0ffffffffH
	DD	0ffffffffH
	DD	0ffffffffH
	DD	0ffffffffH
	DD	0ffffffffH
	DD	0ffffffffH
	DD	0ffffffffH
	DD	0ffffffffH
	DD	0ffffffffH
	DD	0ffffffffH
	DD	0ffffffffH
	DD	0ffffffffH
	DD	0ffffffffH
	DD	0ffffffffH
	DD	0ffffffffH
	DD	0ffffffffH
	DD	0ffffffffH
	DD	0ffffffffH
	DD	0ffffffffH
	DD	0ffffffffH
	DD	0ffffffffH
	DD	0ffffffffH
	DD	0ffffffffH
	DD	0ffffffffH
	DD	0ffffffffH
	DD	0ffffffffH
	DD	0ffffffffH
	DD	0ffffffffH
	DD	0ffffffffH
	DD	0ffffffffH
	DD	0ffffffffH
	DD	0ffffffffH
	DD	0ffffffffH
	DD	0ffffffffH
	DD	0ffffffffH
	DD	0ffffffffH
	DD	0ffffffffH
	DD	0ffffffffH
	DD	0ffffffffH
	DD	0ffffffffH
	DD	0ffffffffH
	DD	0ffffffffH
	DD	0ffffffffH
	DD	0ffffffffH
	DD	0ffffffffH
	DD	0ffffffffH
	DD	0ffffffffH
	DD	0ffffffffH
	DD	0ffffffffH
	DD	0ffffffffH
	DD	0ffffffffH
	DD	0ffffffffH
	DD	0ffffffffH
	DD	0ffffffffH
	DD	0ffffffffH
	DD	0ffffffffH
	DD	0ffffffffH
	DD	0ffffffffH
	DD	0ffffffffH
	DD	0ffffffffH
	DD	0ffffffffH
	DD	0ffffffffH
	DD	0ffffffffH
	DD	0ffffffffH
	DD	0ffffffffH
	DD	0ffffffffH
	DD	0ffffffffH
	DD	0ffffffffH
	DD	0ffffffffH
	DD	0ffffffffH
	DD	0ffffffffH
	DD	0ffffffffH
	DD	0ffffffffH
	DD	0ffffffffH
	DD	0ffffffffH
	DD	0ffffffffH
	DD	0ffffffffH
	DD	0ffffffffH
	DD	0ffffffffH
	DD	0ffffffffH
	DD	0ffffffffH
	DD	0ffffffffH
	DD	0ffffffffH
	DD	0ffffffffH
	DD	0ffffffffH
	DD	0ffffffffH
	DD	0ffffffffH
	DD	0ffffffffH
	DD	0ffffffffH
	DD	0ffffffffH
	DD	0ffffffffH
	DD	0ffffffffH
	DD	0ffffffffH
	DD	0ffffffffH
	DD	0ffffffffH
	DD	0ffffffffH
	DD	0ffffffffH
	DD	0ffffffffH
	DD	0ffffffffH
	DD	0ffffffffH
	DD	0ffffffffH
	DD	0ffffffffH
	DD	0ffffffffH
	DD	0ffffffffH
	DD	0ffffffffH
	DD	0ffffffffH
	DD	0ffffffffH
	DD	0ffffffffH
	DD	0ffffffffH
	DD	0ffffffffH
	DD	0ffffffffH
	DD	0ffffffffH
	DD	0ffffffffH
	DD	0ffffffffH
	DD	0ffffffffH
	DD	0ffffffffH
	DD	0ffffffffH
	DD	0ffffffffH
	DD	0ffffffffH
	DD	0ffffffffH
	DD	0ffffffffH
	DD	0ffffffffH
	DD	0ffffffffH
	DD	0ffffffffH
	DD	0ffffffffH
	DD	0ffffffffH
	DD	0ffffffffH
	DD	0ffffffffH
	DD	0ffffffffH
	DD	0ffffffffH
	DD	0ffffffffH
	DD	0ffffffffH
	DD	0ffffffffH
	DD	0ffffffffH
	DD	0ffffffffH
	DD	0ffffffffH
	DD	0ffffffffH
	DD	0ffffffffH
	DD	0ffffffffH
	DD	0ffffffffH
	DD	0ffffffffH
	DD	0ffffffffH
	DD	0ffffffffH
	DD	0ffffffffH
	DD	0ffffffffH
	DD	0ffffffffH
	DD	0ffffffffH
	DD	0ffffffffH
	DD	0ffffffffH
	DD	0ffffffffH
	DD	0ffffffffH
	DD	0ffffffffH
	DD	0ffffffffH
	DD	0ffffffffH
	DD	0ffffffffH
	DD	0ffffffffH
	DD	0ffffffffH
	DD	0ffffffffH
	DD	0ffffffffH
	DD	0ffffffffH
	DD	0ffffffffH
	DD	0ffffffffH
	DD	0ffffffffH
	DD	0ffffffffH
	DD	0ffffffffH
	DD	0ffffffffH
	DD	0ffffffffH
	DD	0ffffffffH
	DD	0ffffffffH
	DD	0ffffffffH
	DD	0ffffffffH
	DD	0ffffffffH
	DD	0ffffffffH
	DD	0ffffffffH
	DD	0ffffffffH
	DD	0ffffffffH
	DD	0ffffffffH
	DD	0ffffffffH
	DD	0ffffffffH
	DD	0ffffffffH
	DD	0ffffffffH
	DD	0ffffffffH
	DD	0ffffffffH
	DD	0ffffffffH
	DD	0ffffffffH
	DD	0ffffffffH
	DD	0ffffffffH
	DD	0ffffffffH
	DD	0ffffffffH
	DD	0ffffffffH
	DD	0ffffffffH
	DD	0ffffffffH
	DD	0ffffffffH
	DD	0ffffffffH
	DD	0ffffffffH
	DD	0ffffffffH
	DD	0ffffffffH
	DD	0ffffffffH
	DD	0ffffffffH
	DD	0ffffffffH
	DD	0ffffffffH
	DD	0ffffffffH
	DD	0ffffffffH
	DD	0ffffffffH
	DD	0ffffffffH
	DD	0ffffffffH
	DD	0ffffffffH
	DD	0ffffffffH
	DD	0ffffffffH
	DD	0ffffffffH
	DD	0ffffffffH
	DD	0ffffffffH
	DD	0ffffffffH
	DD	0ffffffffH
	DD	0ffffffffH
	DD	0ffffffffH
	DD	0ffffffffH
	DD	0ffffffffH
	DD	0ffffffffH
	DD	0ffffffffH
	DD	0ffffffffH
	DD	0ffffffffH
	DD	0ffffffffH
	DD	0ffffffffH
	DD	0ffffffffH
	DD	0ffffffffH
	DD	0ffffffffH
	DD	0ffffffffH
	DD	0ffffffffH
	DD	0ffffffffH
	DD	0ffffffffH
	DD	0ffffffffH
	DD	0ffffffffH
	DD	0ffffffffH
	DD	0ffffffffH
	DD	0ffffffffH
	DD	0ffffffffH
	DD	0ffffffffH
	DD	0ffffffffH
	DD	0ffffffffH
	DD	0ffffffffH
	DD	0ffffffffH
	DD	0ffffffffH
	DD	0ffffffffH
	DD	0ffffffffH
	DD	0ffffffffH
	DD	0ffffffffH
	DD	0ffffffffH
	DD	0ffffffffH
	DD	0ffffffffH
	DD	0ffffffffH
	DD	0ffffffffH
	DD	0ffffffffH
	DD	0ffffffffH
	DD	0ffffffffH
	DD	0ffffffffH
	DD	0ffffffffH
	DD	0ffffffffH
	DD	0ffffffffH
	DD	0ffffffffH
	DD	0ffffffffH
	DD	0ffffffffH
	DD	0ffffffffH
	DD	0ffffffffH
	DD	0ffffffffH
	DD	0ffffffffH
	DD	0ffffffffH
	DD	0ffffffffH
	DD	0ffffffffH
	DD	0ffffffffH
	DD	0ffffffffH
	DD	0ffffffffH
	DD	0ffffffffH
	DD	0ffffffffH
	DD	0ffffffffH
	DD	0ffffffffH
	DD	0ffffffffH
	DD	0ffffffffH
	DD	0ffffffffH
	DD	0ffffffffH
	DD	0ffffffffH
	DD	0ffffffffH
	DD	0ffffffffH
	DD	0ffffffffH
	DD	0ffffffffH
	DD	0ffffffffH
	DD	0ffffffffH
	DD	0ffffffffH
	DD	0ffffffffH
	DD	0ffffffffH
	DD	0ffffffffH
	DD	0ffffffffH
	DD	0ffffffffH
	DD	0ffffffffH
	DD	0ffffffffH
	DD	0ffffffffH
	DD	0ffffffffH
	DD	0ffffffffH
	DD	0ffffffffH
	DD	0ffffffffH
	DD	0ffffffffH
	DD	0ffffffffH
	DD	0ffffffffH
	DD	0ffffffffH
	DD	0ffffffffH
	DD	0ffffffffH
	DD	0ffffffffH
	DD	0ffffffffH
	DD	0ffffffffH
	DD	0ffffffffH
	DD	0ffffffffH
	DD	0ffffffffH
	DD	0ffffffffH
	DD	0ffffffffH
	DD	0ffffffffH
	DD	0ffffffffH
	DD	0ffffffffH
	DD	0ffffffffH
	DD	0ffffffffH
	DD	0ffffffffH
	DD	0ffffffffH
	DD	0ffffffffH
	DD	0ffffffffH
	DD	0ffffffffH
	DD	0ffffffffH
	DD	0ffffffffH
	DD	0ffffffffH
	DD	0ffffffffH
	DD	0ffffffffH
	DD	0ffffffffH
	DD	0ffffffffH
	DD	0ffffffffH
	DD	0ffffffffH
	DD	0ffffffffH
	DD	0ffffffffH
	DD	0ffffffffH
	DD	0ffffffffH
	DD	0ffffffffH
	DD	0ffffffffH
	DD	0ffffffffH
	DD	0ffffffffH
	DD	0ffffffffH
	DD	0ffffffffH
	DD	0ffffffffH
	DD	0ffffffffH
	DD	0ffffffffH
	DD	0ffffffffH
	DD	0ffffffffH
	DD	0ffffffffH
	DD	0ffffffffH
	DD	0ffffffffH
	DD	0ffffffffH
	DD	0ffffffffH
	DD	0ffffffffH
	DD	0ffffffffH
	DD	0ffffffffH
	DD	0ffffffffH
	DD	0ffffffffH
	DD	0ffffffffH
	DD	0ffffffffH
	DD	0ffffffffH
	DD	0ffffffffH
	DD	0ffffffffH
	DD	0ffffffffH
	DD	0ffffffffH
	DD	0ffffffffH
	DD	0ffffffffH
	DD	0ffffffffH
	DD	0ffffffffH
	DD	0ffffffffH
	DD	0ffffffffH
	DD	0ffffffffH
	DD	0ffffffffH
	DD	0ffffffffH
	DD	0ffffffffH
	DD	0ffffffffH
	DD	0ffffffffH
	DD	0ffffffffH
	DD	0ffffffffH
	DD	0ffffffffH
	DD	0ffffffffH
	DD	0ffffffffH
	DD	0ffffffffH
	DD	0ffffffffH
	DD	0ffffffffH
	DD	0ffffffffH
	DD	0ffffffffH
	DD	0ffffffffH
	DD	0ffffffffH
	DD	0ffffffffH
	DD	0ffffffffH
	DD	0ffffffffH
	DD	0ffffffffH
	DD	0ffffffffH
	DD	0ffffffffH
	DD	0ffffffffH
	DD	0ffffffffH
	DD	0ffffffffH
	DD	0ffffffffH
	DD	0ffffffffH
	DD	0ffffffffH
	DD	0ffffffffH
	DD	0ffffffffH
	DD	0ffffffffH
	DD	0ffffffffH
	DD	0ffffffffH
	DD	0ffffffffH
	DD	0ffffffffH
	DD	0ffffffffH
	DD	0ffffffffH
	DD	0ffffffffH
	DD	0ffffffffH
	DD	0ffffffffH
	DD	0ffffffffH
	DD	0ffffffffH
	DD	0ffffffffH
	DD	0ffffffffH
	DD	0ffffffffH
	DD	0ffffffffH
	DD	0ffffffffH
	DD	0ffffffffH
	DD	0ffffffffH
	DD	0ffffffffH
	DD	0ffffffffH
	DD	0ffffffffH
	DD	0ffffffffH
	DD	0ffffffffH
	DD	0ffffffffH
	DD	0ffffffffH
	DD	0ffffffffH
	DD	0ffffffffH
	DD	0ffffffffH
	DD	0ffffffffH
	DD	0ffffffffH
	DD	0ffffffffH
	DD	0ffffffffH
	DD	0ffffffffH
	DD	0ffffffffH
	DD	0ffffffffH
	DD	0ffffffffH
	DD	0ffffffffH
	DD	0ffffffffH
	DD	0ffffffffH
	DD	0ffffffffH
	DD	0ffffffffH
	DD	0ffffffffH
	DD	0ffffffffH
	DD	0ffffffffH
	DD	0ffffffffH
	DD	0ffffffffH
	DD	0ffffffffH
	DD	0ffffffffH
	DD	0ffffffffH
	DD	0ffffffffH
	DD	0ffffffffH
	DD	0ffffffffH
	DD	0ffffffffH
	DD	0ffffffffH
	DD	0ffffffffH
	DD	0ffffffffH
	DD	0ffffffffH
	DD	0ffffffffH
	DD	0ffffffffH
	DD	0ffffffffH
	DD	0ffffffffH
	DD	0ffffffffH
	DD	0ffffffffH
	DD	0ffffffffH
	DD	0ffffffffH
	DD	0ffffffffH
	DD	0ffffffffH
	DD	0ffffffffH
	DD	0ffffffffH
	DD	0ffffffffH
	DD	0ffffffffH
	DD	0ffffffffH
	DD	0ffffffffH
	DD	0ffffffffH
	DD	0ffffffffH
	DD	0ffffffffH
	DD	0ffffffffH
	DD	0ffffffffH
	DD	0ffffffffH
	DD	0ffffffffH
	DD	0ffffffffH
	DD	0ffffffffH
	DD	0ffffffffH
	DD	0ffffffffH
	DD	0ffffffffH
	DD	0ffffffffH
	DD	0ffffffffH
	DD	0ffffffffH
	DD	0ffffffffH
	DD	0ffffffffH
	DD	0ffffffffH
	DD	0ffffffffH
	DD	0ffffffffH
	DD	0ffffffffH
	DD	0ffffffffH
	DD	0ffffffffH
	DD	0ffffffffH
	DD	0ffffffffH
	DD	0ffffffffH
	DD	0ffffffffH
	DD	0ffffffffH
	DD	0ffffffffH
	DD	0ffffffffH
	DD	0ffffffffH
	DD	0ffffffffH
	DD	0ffffffffH
	DD	0ffffffffH
	DD	0ffffffffH
	DD	0ffffffffH
	DD	0ffffffffH
	DD	0ffffffffH
	DD	0ffffffffH
	DD	0ffffffffH
	DD	0ffffffffH
	DD	0ffffffffH
	DD	0ffffffffH
	DD	0ffffffffH
	DD	0ffffffffH
	DD	0ffffffffH
	DD	0ffffffffH
	DD	0ffffffffH
	DD	0ffffffffH
	DD	0ffffffffH
	DD	0ffffffffH
	DD	0ffffffffH
	DD	0ffffffffH
	DD	0ffffffffH
	DD	0ffffffffH
	DD	0ffffffffH
	DD	0ffffffffH
	DD	0ffffffffH
	DD	0ffffffffH
	DD	0ffffffffH
	DD	0ffffffffH
	DD	0ffffffffH
	DD	0ffffffffH
	DD	0ffffffffH
	DD	0ffffffffH
	DD	0ffffffffH
	DD	0ffffffffH
	DD	0ffffffffH
	DD	0ffffffffH
	DD	0ffffffffH
	DD	0ffffffffH
	DD	0ffffffffH
	DD	0ffffffffH
	DD	0ffffffffH
	DD	0ffffffffH
	DD	0ffffffffH
	DD	0ffffffffH
	DD	0ffffffffH
	DD	0ffffffffH
	DD	0ffffffffH
	DD	0ffffffffH
	DD	0ffffffffH
	DD	0ffffffffH
	DD	0ffffffffH
	DD	0ffffffffH
	DD	0ffffffffH
	DD	0ffffffffH
	DD	0ffffffffH
	DD	0ffffffffH
	DD	0ffffffffH
	DD	0ffffffffH
	DD	0ffffffffH
	DD	0ffffffffH
	DD	0ffffffffH
	DD	0ffffffffH
	DD	0ffffffffH
	DD	0ffffffffH
	DD	0ffffffffH
	DD	0ffffffffH
	DD	0ffffffffH
	DD	0ffffffffH
	DD	0ffffffffH
	DD	0ffffffffH
	DD	0ffffffffH
	DD	0ffffffffH
	DD	0ffffffffH
	DD	0ffffffffH
	DD	0ffffffffH
	DD	0ffffffffH
	DD	0ffffffffH
	DD	0ffffffffH
	DD	0ffffffffH
	DD	0ffffffffH
	DD	0ffffffffH
	DD	0ffffffffH
	DD	0ffffffffH
	DD	0ffffffffH
	DD	0ffffffffH
	DD	0ffffffffH
	DD	0ffffffffH
	DD	0ffffffffH
	DD	0ffffffffH
	DD	0ffffffffH
	DD	0ffffffffH
	DD	0ffffffffH
	DD	0ffffffffH
	DD	0ffffffffH
	DD	0ffffffffH
	DD	0ffffffffH
	DD	0ffffffffH
	DD	0ffffffffH
	DD	0ffffffffH
	DD	0ffffffffH
	DD	0ffffffffH
	DD	0ffffffffH
	DD	0ffffffffH
	DD	0ffffffffH
	DD	0ffffffffH
	DD	0ffffffffH
	DD	0ffffffffH
	DD	0ffffffffH
	DD	0ffffffffH
	DD	0ffffffffH
	DD	0ffffffffH
	DD	0ffffffffH
	DD	0ffffffffH
	DD	0ffffffffH
	DD	0ffffffffH
	DD	0ffffffffH
	DD	0ffffffffH
	DD	0ffffffffH
	DD	0ffffffffH
	DD	0ffffffffH
	DD	0ffffffffH
	DD	0ffffffffH
	DD	0ffffffffH
	DD	0ffffffffH
	DD	0ffffffffH
	DD	0ffffffffH
	DD	0ffffffffH
	DD	0ffffffffH
	DD	0ffffffffH
	DD	0ffffffffH
	DD	0ffffffffH
	DD	0ffffffffH
	DD	0ffffffffH
	DD	0ffffffffH
	DD	0ffffffffH
	DD	0ffffffffH
	DD	0ffffffffH
	DD	0ffffffffH
	DD	0ffffffffH
	DD	0ffffffffH
	DD	0ffffffffH
	DD	0ffffffffH
	DD	0ffffffffH
	DD	0ffffffffH
	DD	0ffffffffH
	DD	0ffffffffH
	DD	0ffffffffH
	DD	0ffffffffH
	DD	0ffffffffH
	DD	0ffffffffH
	DD	0ffffffffH
	DD	0ffffffffH
	DD	0ffffffffH
	DD	0ffffffffH
	DD	0ffffffffH
	DD	0ffffffffH
	DD	0ffffffffH
	DD	0ffffffffH
	DD	0ffffffffH
	DD	0ffffffffH
	DD	0ffffffffH
	DD	0ffffffffH
	DD	0ffffffffH
	DD	0ffffffffH
	DD	0ffffffffH
	DD	0ffffffffH
	DD	0ffffffffH
	DD	0ffffffffH
	DD	0ffffffffH
	DD	0ffffffffH
	DD	0ffffffffH
	DD	0ffffffffH
	DD	0ffffffffH
	DD	0ffffffffH
	DD	0ffffffffH
	DD	0ffffffffH
	DD	0ffffffffH
	DD	0ffffffffH
	DD	0ffffffffH
	DD	0ffffffffH
	DD	0ffffffffH
	DD	0ffffffffH
	DD	0ffffffffH
	DD	0ffffffffH
	DD	0ffffffffH
	DD	0ffffffffH
	DD	0ffffffffH
	DD	0ffffffffH
	DD	0ffffffffH
	DD	0ffffffffH
	DD	0ffffffffH
	DD	0ffffffffH
	DD	0ffffffffH
	DD	0ffffffffH
	DD	0ffffffffH
	DD	0ffffffffH
	DD	0ffffffffH
	DD	0ffffffffH
	DD	0ffffffffH
	DD	0ffffffffH
	DD	0ffffffffH
	DD	0ffffffffH
	DD	0ffffffffH
	DD	0ffffffffH
	DD	0ffffffffH
	DD	0ffffffffH
	DD	0ffffffffH
	DD	0ffffffffH
	DD	0ffffffffH
	DD	0ffffffffH
	DD	0ffffffffH
	DD	0ffffffffH
	DD	0ffffffffH
	DD	0ffffffffH
	DD	0ffffffffH
	DD	0ffffffffH
	DD	0ffffffffH
	DD	0ffffffffH
	DD	0ffffffffH
	DD	0ffffffffH
	DD	0ffffffffH
	DD	0ffffffffH
	DD	0ffffffffH
	DD	0ffffffffH
	DD	0ffffffffH
	DD	0ffffffffH
	DD	0ffffffffH
	DD	0ffffffffH
	DD	0ffffffffH
	DD	0ffffffffH
	DD	0ffffffffH
	DD	0ffffffffH
	DD	0ffffffffH
	DD	0ffffffffH
	DD	0ffffffffH
	DD	0ffffffffH
	DD	0ffffffffH
	DD	0ffffffffH
	DD	0ffffffffH
	DD	0ffffffffH
	DD	0ffffffffH
	DD	0ffffffffH
	DD	0ffffffffH
	DD	0ffffffffH
	DD	0ffffffffH
	DD	0ffffffffH
	DD	0ffffffffH
	DD	0ffffffffH
	DD	0ffffffffH
	DD	0ffffffffH
	DD	0ffffffffH
	DD	0ffffffffH
	DD	0ffffffffH
	DD	0ffffffffH
	DD	0ffffffffH
	DD	0ffffffffH
	DD	0ffffffffH
	DD	0ffffffffH
	DD	0ffffffffH
	DD	0ffffffffH
	DD	0ffffffffH
	DD	0ffffffffH
	DD	0ffffffffH
	DD	0ffffffffH
	DD	0ffffffffH
	DD	0ffffffffH
	DD	0ffffffffH
	DD	0ffffffffH
	DD	0ffffffffH
	DD	0ffffffffH
	DD	0ffffffffH
	DD	0ffffffffH
	DD	0ffffffffH
	DD	0ffffffffH
	DD	0ffffffffH
	DD	0ffffffffH
	DD	0ffffffffH
	DD	0ffffffffH
	DD	0ffffffffH
	DD	0ffffffffH
	DD	0ffffffffH
	DD	0ffffffffH
	DD	0ffffffffH
	DD	0ffffffffH
	DD	0ffffffffH
	DD	0ffffffffH
	DD	0ffffffffH
	DD	0ffffffffH
	DD	0ffffffffH
	DD	0ffffffffH
	DD	0ffffffffH
	DD	0ffffffffH
	DD	0ffffffffH
	DD	0ffffffffH
	DD	0ffffffffH
	DD	0ffffffffH
	DD	0ffffffffH
	DD	0ffffffffH
	DD	0ffffffffH
	DD	0ffffffffH
	DD	0ffffffffH
	DD	0ffffffffH
	DD	0ffffffffH
	DD	0ffffffffH
	DD	0ffffffffH
	DD	0ffffffffH
	DD	0ffffffffH
	DD	0ffffffffH
	DD	0ffffffffH
	DD	0ffffffffH
	DD	0ffffffffH
	DD	0ffffffffH
	DD	0ffffffffH
	DD	0ffffffffH
	DD	0ffffffffH
	DD	0ffffffffH
	DD	0ffffffffH
	DD	0ffffffffH
	DD	0ffffffffH
	DD	0ffffffffH
	DD	0ffffffffH
	DD	0ffffffffH
	DD	0ffffffffH
	DD	0ffffffffH
	DD	0ffffffffH
	DD	0ffffffffH
	DD	0ffffffffH
	DD	0ffffffffH
	DD	0ffffffffH
	DD	0ffffffffH
	DD	0ffffffffH
	DD	0ffffffffH
	DD	0ffffffffH
	DD	0ffffffffH
	DD	0ffffffffH
	DD	0ffffffffH
	DD	0ffffffffH
	DD	0ffffffffH
	DD	0ffffffffH
	DD	0ffffffffH
	DD	0ffffffffH
	DD	0ffffffffH
	DD	0ffffffffH
	DD	0ffffffffH
	DD	0ffffffffH
	DD	0ffffffffH
	DD	0ffffffffH
	DD	0ffffffffH
	DD	0ffffffffH
	DD	0ffffffffH
	DD	0ffffffffH
	DD	0ffffffffH
	DD	0ffffffffH
	DD	0ffffffffH
	DD	0ffffffffH
	DD	0ffffffffH
	DD	0ffffffffH
	DD	0ffffffffH
	DD	0ffffffffH
	DD	0ffffffffH
	DD	0ffffffffH
	DD	0ffffffffH
	DD	0ffffffffH
	DD	0ffffffffH
	DD	0ffffffffH
	DD	0ffffffffH
	DD	0ffffffffH
	DD	0ffffffffH
	DD	0ffffffffH
	DD	0ffffffffH
	DD	0ffffffffH
	DD	0ffffffffH
	DD	0ffffffffH
	DD	0ffffffffH
	DD	0ffffffffH
	DD	0ffffffffH
	DD	0ffffffffH
	DD	0ffffffffH
	DD	0ffffffffH
	DD	0ffffffffH
	DD	0ffffffffH
	DD	0ffffffffH
	DD	0ffffffffH
	DD	0ffffffffH
	DD	0ffffffffH
	DD	0ffffffffH
	DD	0ffffffffH
	DD	0ffffffffH
	DD	0ffffffffH
	DD	0ffffffffH
	DD	0ffffffffH
	DD	0ffffffffH
	DD	0ffffffffH
	DD	0ffffffffH
	DD	0ffffffffH
	DD	0ffffffffH
	DD	0ffffffffH
	DD	0ffffffffH
	DD	0ffffffffH
	DD	0ffffffffH
	DD	0ffffffffH
	DD	0ffffffffH
	DD	0ffffffffH
	DD	0ffffffffH
	DD	0ffffffffH
	DD	0ffffffffH
	DD	0ffffffffH
	DD	0ffffffffH
	DD	0ffffffffH
	DD	0ffffffffH
	DD	0ffffffffH
	DD	0ffffffffH
	DD	0ffffffffH
	DD	0ffffffffH
	DD	0ffffffffH
	DD	0ffffffffH
	DD	0ffffffffH
	DD	0ffffffffH
	DD	0ffffffffH
	DD	0ffffffffH
	DD	0ffffffffH
	DD	0ffffffffH
	DD	0ffffffffH
	DD	0ffffffffH
	DD	0ffffffffH
	DD	0ffffffffH
	DD	0ffffffffH
	DD	0ffffffffH
	DD	0ffffffffH
	DD	0ffffffffH
	DD	0ffffffffH
	DD	0ffffffffH
	DD	0ffffffffH
	DD	0ffffffffH
	DD	0ffffffffH
	DD	0ffffffffH
	DD	0ffffffffH
	DD	0ffffffffH
	DD	0ffffffffH
	DD	0ffffffffH
	DD	0ffffffffH
	DD	0ffffffffH
	DD	0ffffffffH
	DD	0ffffffffH
	DD	0ffffffffH
	DD	0ffffffffH
	DD	0ffffffffH
	DD	0ffffffffH
	DD	0ffffffffH
	DD	0ffffffffH
	DD	0ffffffffH
	DD	0ffffffffH
	DD	0ffffffffH
	DD	0ffffffffH
	DD	0ffffffffH
	DD	0ffffffffH
	DD	0ffffffffH
	DD	0ffffffffH
	DD	0ffffffffH
	DD	0ffffffffH
	DD	0ffffffffH
	DD	0ffffffffH
	DD	0ffffffffH
	DD	0ffffffffH
	DD	0ffffffffH
	DD	0ffffffffH
	DD	0ffffffffH
	DD	0ffffffffH
	DD	0ffffffffH
	DD	0ffffffffH
	DD	0ffffffffH
	DD	0ffffffffH
	DD	0ffffffffH
	DD	0ffffffffH
	DD	0ffffffffH
	DD	0ffffffffH
	DD	0ffffffffH
	DD	0ffffffffH
	DD	0ffffffffH
	DD	0ffffffffH
	DD	0ffffffffH
	DD	0ffffffffH
	DD	0ffffffffH
	DD	0ffffffffH
	DD	0ffffffffH
	DD	0ffffffffH
	DD	0ffffffffH
	DD	0ffffffffH
	DD	0ffffffffH
	DD	0ffffffffH
	DD	0ffffffffH
	DD	0ffffffffH
	DD	0ffffffffH
	DD	0ffffffffH
	DD	0ffffffffH
	DD	0ffffffffH
	DD	0ffffffffH
	DD	0ffffffffH
	DD	0ffffffffH
	DD	0ffffffffH
	DD	0ffffffffH
	DD	0ffffffffH
	DD	0ffffffffH
	DD	0ffffffffH
	DD	0ffffffffH
	DD	0ffffffffH
	DD	0ffffffffH
	DD	0ffffffffH
	DD	0ffffffffH
	DD	0ffffffffH
	DD	0ffffffffH
	DD	0ffffffffH
	DD	0ffffffffH
	DD	0ffffffffH
	DD	0ffffffffH
	DD	0ffffffffH
	DD	0ffffffffH
	DD	0ffffffffH
	DD	0ffffffffH
	DD	0ffffffffH
	DD	0ffffffffH
	DD	0ffffffffH
	DD	0ffffffffH
	DD	0ffffffffH
	DD	0ffffffffH
	DD	0ffffffffH
	DD	0ffffffffH
	DD	0ffffffffH
	DD	0ffffffffH
	DD	0ffffffffH
	DD	0ffffffffH
	DD	0ffffffffH
	DD	0ffffffffH
	DD	0ffffffffH
	DD	0ffffffffH
	DD	0ffffffffH
	DD	0ffffffffH
	DD	0ffffffffH
	DD	0ffffffffH
	DD	0ffffffffH
	DD	0ffffffffH
	DD	0ffffffffH
	DD	0ffffffffH
	DD	0ffffffffH
	DD	0ffffffffH
	DD	0ffffffffH
	DD	0ffffffffH
	DD	0ffffffffH
	DD	0ffffffffH
	DD	0ffffffffH
	DD	0ffffffffH
	DD	0ffffffffH
	DD	0ffffffffH
	DD	0ffffffffH
	DD	0ffffffffH
	DD	0ffffffffH
	DD	0ffffffffH
	DD	0ffffffffH
	DD	0ffffffffH
	DD	0ffffffffH
	DD	0ffffffffH
	DD	0ffffffffH
	DD	0ffffffffH
	DD	0ffffffffH
	DD	0ffffffffH
	DD	0ffffffffH
	DD	0ffffffffH
	DD	0ffffffffH
	DD	0ffffffffH
	DD	0ffffffffH
	DD	0ffffffffH
	DD	0ffffffffH
	DD	0ffffffffH
	DD	0ffffffffH
	DD	0ffffffffH
	DD	0ffffffffH
	DD	0ffffffffH
	DD	0ffffffffH
	DD	0ffffffffH
	DD	0ffffffffH
	DD	0ffffffffH
	DD	0ffffffffH
	DD	0ffffffffH
	DD	0ffffffffH
	DD	0ffffffffH
	DD	0ffffffffH
	DD	0ffffffffH
	DD	0ffffffffH
	DD	0ffffffffH
	DD	0ffffffffH
	DD	0ffffffffH
	DD	0ffffffffH
	DD	0ffffffffH
	DD	0ffffffffH
	DD	0ffffffffH
	DD	0ffffffffH
	DD	0ffffffffH
	DD	0ffffffffH
	DD	0ffffffffH
	DD	0ffffffffH
	DD	0ffffffffH
	DD	0ffffffffH
	DD	0ffffffffH
	DD	0ffffffffH
	DD	0ffffffffH
	DD	0ffffffffH
	DD	0ffffffffH
	DD	0ffffffffH
	DD	0ffffffffH
	DD	0ffffffffH
	DD	0ffffffffH
	DD	0ffffffffH
	DD	0ffffffffH
	DD	0ffffffffH
	DD	0ffffffffH
	DD	0ffffffffH
	DD	0ffffffffH
	DD	0ffffffffH
	DD	0ffffffffH
	DD	0ffffffffH
	DD	0ffffffffH
	DD	0ffffffffH
	DD	0ffffffffH
	DD	0ffffffffH
	DD	0ffffffffH
	DD	0ffffffffH
	DD	0ffffffffH
	DD	0ffffffffH
	DD	0ffffffffH
	DD	0ffffffffH
	DD	0ffffffffH
	DD	0ffffffffH
	DD	0ffffffffH
	DD	0ffffffffH
	DD	0ffffffffH
	DD	0ffffffffH
	DD	0ffffffffH
	DD	0ffffffffH
	DD	0ffffffffH
	DD	0ffffffffH
	DD	0ffffffffH
	DD	0ffffffffH
	DD	0ffffffffH
	DD	0ffffffffH
	DD	0ffffffffH
	DD	0ffffffffH
	DD	0ffffffffH
	DD	0ffffffffH
	DD	0ffffffffH
	DD	0ffffffffH
	DD	0ffffffffH
	DD	0ffffffffH
	DD	0ffffffffH
	DD	0ffffffffH
	DD	0ffffffffH
	DD	0ffffffffH
	DD	0ffffffffH
	DD	0ffffffffH
	DD	0ffffffffH
	DD	0ffffffffH
	DD	0ffffffffH
	DD	0ffffffffH
	DD	0ffffffffH
	DD	0ffffffffH
	DD	0ffffffffH
	DD	0ffffffffH
	DD	0ffffffffH
	DD	0ffffffffH
	DD	0ffffffffH
	DD	0ffffffffH
	DD	0ffffffffH
	DD	0ffffffffH
	DD	0ffffffffH
	DD	0ffffffffH
	DD	0ffffffffH
	DD	0ffffffffH
	DD	0ffffffffH
	DD	0ffffffffH
	DD	0ffffffffH
	DD	0ffffffffH
	DD	0ffffffffH
	DD	0ffffffffH
	DD	0ffffffffH
	DD	0ffffffffH
	DD	0ffffffffH
	DD	0ffffffffH
	DD	0ffffffffH
	DD	0ffffffffH
	DD	0ffffffffH
	DD	0ffffffffH
	DD	0ffffffffH
	DD	0ffffffffH
	DD	0ffffffffH
	DD	0ffffffffH
	DD	0ffffffffH
	DD	0ffffffffH
	DD	0ffffffffH
	DD	0ffffffffH
	DD	0ffffffffH
	DD	0ffffffffH
	DD	0ffffffffH
	DD	0ffffffffH
	DD	0ffffffffH
	DD	0ffffffffH
	DD	0ffffffffH
	DD	0ffffffffH
	DD	0ffffffffH
	DD	0ffffffffH
	DD	0ffffffffH
	DD	0ffffffffH
	DD	0ffffffffH
	DD	0ffffffffH
	DD	0ffffffffH
	DD	0ffffffffH
	DD	0ffffffffH
	DD	0ffffffffH
	DD	0ffffffffH
	DD	0ffffffffH
	DD	0ffffffffH
	DD	0ffffffffH
	DD	0ffffffffH
	DD	0ffffffffH
	DD	0ffffffffH
	DD	0ffffffffH
	DD	0ffffffffH
	DD	0ffffffffH
	DD	0ffffffffH
	DD	0ffffffffH
	DD	0ffffffffH
	DD	0ffffffffH
	DD	0ffffffffH
	DD	0ffffffffH
	DD	0ffffffffH
	DD	0ffffffffH
	DD	0ffffffffH
	DD	0ffffffffH
	DD	0ffffffffH
	DD	0ffffffffH
	DD	0ffffffffH
	DD	0ffffffffH
	DD	0ffffffffH
	DD	0ffffffffH
	DD	0ffffffffH
	DD	0ffffffffH
	DD	0ffffffffH
	DD	0ffffffffH
	DD	0ffffffffH
	DD	0ffffffffH
	DD	0ffffffffH
	DD	0ffffffffH
	DD	0ffffffffH
	DD	0ffffffffH
	DD	0ffffffffH
	DD	0ffffffffH
	DD	0ffffffffH
	DD	0ffffffffH
	DD	0ffffffffH
	DD	0ffffffffH
	DD	0ffffffffH
	DD	0ffffffffH
	DD	0ffffffffH
	DD	0ffffffffH
	DD	0ffffffffH
	DD	0ffffffffH
	DD	0ffffffffH
	DD	0ffffffffH
	DD	0ffffffffH
	DD	0ffffffffH
	DD	0ffffffffH
	DD	0ffffffffH
	DD	0ffffffffH
	DD	0ffffffffH
	DD	0ffffffffH
	DD	0ffffffffH
	DD	0ffffffffH
	DD	0ffffffffH
	DD	0ffffffffH
	DD	0ffffffffH
	DD	0ffffffffH
	DD	0ffffffffH
	DD	0ffffffffH
	DD	0ffffffffH
	DD	0ffffffffH
	DD	0ffffffffH
	DD	0ffffffffH
	DD	0ffffffffH
	DD	0ffffffffH
	DD	0ffffffffH
	DD	0ffffffffH
	DD	0ffffffffH
	DD	0ffffffffH
	DD	0ffffffffH
	DD	0ffffffffH
	DD	0ffffffffH
	DD	0ffffffffH
	DD	0ffffffffH
	DD	0ffffffffH
	DD	0ffffffffH
	DD	0ffffffffH
	DD	0ffffffffH
	DD	0ffffffffH
	DD	0ffffffffH
	DD	0ffffffffH
	DD	0ffffffffH
	DD	0ffffffffH
	DD	0ffffffffH
	DD	0ffffffffH
	DD	0ffffffffH
	DD	0ffffffffH
	DD	0ffffffffH
	DD	0ffffffffH
	DD	0ffffffffH
	DD	0ffffffffH
	DD	0ffffffffH
	DD	0ffffffffH
	DD	0ffffffffH
	DD	0ffffffffH
	DD	0ffffffffH
	DD	0ffffffffH
	DD	0ffffffffH
	DD	0ffffffffH
	DD	0ffffffffH
	DD	0ffffffffH
	DD	0ffffffffH
	DD	0ffffffffH
	DD	0ffffffffH
	DD	0ffffffffH
	DD	0ffffffffH
	DD	0ffffffffH
	DD	0ffffffffH
	DD	0ffffffffH
	DD	0ffffffffH
	DD	0ffffffffH
	DD	0ffffffffH
	DD	0ffffffffH
	DD	0ffffffffH
	DD	0ffffffffH
	DD	0ffffffffH
	DD	0ffffffffH
	DD	0ffffffffH
	DD	0ffffffffH
	DD	0ffffffffH
	DD	0ffffffffH
	DD	0ffffffffH
	DD	0ffffffffH
	DD	0ffffffffH
	DD	0ffffffffH
	DD	0ffffffffH
	DD	0ffffffffH
	DD	0ffffffffH
	DD	0ffffffffH
	DD	0ffffffffH
	DD	0ffffffffH
	DD	0ffffffffH
	DD	0ffffffffH
	DD	0ffffffffH
	DD	0ffffffffH
	DD	0ffffffffH
	DD	0ffffffffH
	DD	0ffffffffH
	DD	0ffffffffH
	DD	0ffffffffH
	DD	0ffffffffH
	DD	0ffffffffH
	DD	0ffffffffH
	DD	0ffffffffH
	DD	0ffffffffH
	DD	0ffffffffH
	DD	0ffffffffH
	DD	0ffffffffH
	DD	0ffffffffH
	DD	0ffffffffH
	DD	0ffffffffH
	DD	0ffffffffH
	DD	0ffffffffH
	DD	0ffffffffH
	DD	0ffffffffH
	DD	0ffffffffH
	DD	0ffffffffH
	DD	0ffffffffH
	DD	0ffffffffH
	DD	0ffffffffH
	DD	0ffffffffH
	DD	0ffffffffH
	DD	0ffffffffH
	DD	0ffffffffH
	DD	0ffffffffH
	DD	0ffffffffH
	DD	0ffffffffH
	DD	0ffffffffH
	DD	0ffffffffH
	DD	0ffffffffH
	DD	0ffffffffH
	DD	0ffffffffH
	DD	0ffffffffH
	DD	0ffffffffH
	DD	0ffffffffH
	DD	0ffffffffH
	DD	0ffffffffH
	DD	0ffffffffH
	DD	0ffffffffH
	DD	0ffffffffH
	DD	0ffffffffH
	DD	0ffffffffH
	DD	0ffffffffH
	DD	0ffffffffH
	DD	0ffffffffH
	DD	0ffffffffH
	DD	0ffffffffH
	DD	0ffffffffH
	DD	0ffffffffH
	DD	0ffffffffH
	DD	0ffffffffH
	DD	0ffffffffH
	DD	0ffffffffH
	DD	0ffffffffH
	DD	0ffffffffH
	DD	0ffffffffH
	DD	0ffffffffH
	DD	0ffffffffH
	DD	0ffffffffH
	DD	0ffffffffH
	DD	0ffffffffH
	DD	0ffffffffH
	DD	0ffffffffH
	DD	0ffffffffH
	DD	0ffffffffH
	DD	0ffffffffH
	DD	0ffffffffH
	DD	0ffffffffH
	DD	0ffffffffH
	DD	0ffffffffH
	DD	0ffffffffH
	DD	0ffffffffH
	DD	0ffffffffH
	DD	0ffffffffH
	DD	0ffffffffH
	DD	0ffffffffH
	DD	0ffffffffH
	DD	0ffffffffH
	DD	0ffffffffH
	DD	0ffffffffH
	DD	0ffffffffH
	DD	0ffffffffH
	DD	0ffffffffH
	DD	0ffffffffH
	DD	0ffffffffH
	DD	0ffffffffH
	DD	0ffffffffH
	DD	0ffffffffH
	DD	0ffffffffH
_bmRaceSettingsText DW 0159H
	DW	023H
	DW	0564H
	DW	020H
	DD	FLAT:_acRaceSettingsText
	DD	00H
	DD	FLAT:_GUI_BitmapMethods8888
CONST	ENDS
END
