; Listing generated by Microsoft (R) Optimizing Compiler Version 16.00.40219.01 

	TITLE	C:\DUII\DUII\Graphics\RaceReview.c
	.686P
	.XMM
	include listing.inc
	.model	flat

INCLUDELIB LIBCMT
INCLUDELIB OLDNAMES

PUBLIC	_bmRaceReview
CONST	SEGMENT
_ColorsRaceReview DD 0e1dfe3H
	DD	00H
	DD	0454547H
	DD	0282828H
	DD	0fdfdfdH
	DD	0100f5H
	DD	0171617H
	DD	0a01d5H
	DD	0b0b0b1H
	DD	08f8f90H
	DD	06f6f70H
	DD	0801acH
	DD	0f7f7H
	DD	0c5c5c5H
	DD	0162745H
	DD	0251a1aH
	DD	074H
	DD	020111H
	DD	03d3d41H
	DD	0dedee1H
	DD	02c74acH
	DD	0e9e9e7H
	DD	050490H
	DD	0d8d8d7H
	DD	03d0d0H
	DD	0182538H
	DD	09afafH
	DD	040450H
	DD	04878a5H
	DD	0d9090H
	DD	02e91caH
	DD	0150808H
	DD	0e9f6fdH
	DD	0173a66H
	DD	0296797H
	DD	06fb1ecH
	DD	0aed2edH
	DD	091837H
	DD	0babdc2H
	DD	0192627H
	DD	0555768H
	DD	0165687H
	DD	0181925H
	DD	0f6d6dH
	DD	04ea9d9H
	DD	0183458H
	DD	0376896H
	DD	0302e6dH
	DD	030326H
	DD	07c7c81H
	DD	0c7e7f6H
	DD	010167H
	DD	08bb8e9H
	DD	0d7eaf9H
	DD	010037H
	DD	051adeeH
	DD	02a5c89H
	DD	043739dH
	DD	073838H
	DD	026688aH
	DD	0989ba6H
	DD	0c5c5baH
	DD	01c4a4aH
	DD	099d1ebH
	DD	091518H
	DD	087c7e8H
	DD	0e6e6ddH
	DD	065656H
	DD	02a424dH
	DD	019426bH
	DD	0164a79H
	DD	0dbf3fbH
	DD	0f3f3e9H
	DD	05496e7H
	DD	0387397H
	DD	02785bbH
	DD	06993b8H
	DD	0152e51H
	DD	0366487H
	DD	06488abH
	DD	0d4d4caH
	DD	01b5555H
	DD	0a5a599H
	DD	087b5d8H
	DD	064848H
	DD	0123097H
	DD	0164d81H
	DD	0489c9H
	DD	01d8cc8H
	DD	04996c7H
	DD	077c5eaH
	DD	082525H
	DD	0566578H
	DD	01c6284H
	DD	0156493H
	DD	07698b9H
	DD	0a1625H
	DD	017587cH
	DD	01a68c8H
	DD	05a84a8H
	DD	05887b7H
	DD	03ca2d7H
	DD	04686d7H
	DD	096c7e9H
	DD	0c8dbefH
	DD	022201eH
	DD	0132fabH
	DD	01a64bbH
	DD	03986b8H
	DD	04888b9H
	DD	066a6d9H
	DD	093b7d8H
	DD	0b223cH
	DD	01c3535H
	DD	0242459H
	DD	0171677H
	DD	0274768H
	DD	088887aH
	DD	0c66a0H
	DD	01a67a7H
	DD	037ab7H
	DD	06888b4H
	DD	04884c8H
	DD	06998c5H
	DD	086a7c8H
	DD	0b5e2f7H
	DD	0c2445H
	DD	0272747H
	DD	028567aH
	DD	0185baaH
	DD	05792b9H
	DD	05597c5H
	DD	05893d9H
	DD	06699d7H
	DD	079a4d9H
	DD	0649be2H
	DD	090c3dbH
	DD	099d6f5H
	DD	0161834H
	DD	0273753H
	DD	0131367H
	DD	0264977H
	DD	02434a9H
	DD	02a51a8H
	DD	0416d9aH
	DD	0357bd4H
	DD	06aa4caH
	DD	077a4c8H
	DD	09ac8faH
	DD	0273544H
	DD	03a395aH
	DD	0374864H
	DD	0515285H
	DD	0547997H
	DD	0676b84H
	DD	0667688H
	DD	02672d3H
	DD	04582a8H
	DD	08ba6b9H
	DD	0afc7d7H
	DD	093e3feH
	DD	0aae7fdH
	DD	0e5edf6H
	DD	0345776H
	DD	035637dH
	DD	068685dH
	DD	0244b87H
	DD	0265a96H
	DD	02a7193H
	DD	0496986H
	DD	0377ac7H
	DD	0768397H
	DD	01e91ceH
	DD	095b3c9H
	DD	086abd6H
	DD	01e374bH
	DD	03a5365H
	DD	0282b8cH
	DD	01b4b92H
	DD	0f6a99H
	DD	01845a6H
	DD	0976aeH
	DD	0718cbaH
	DD	05a8bc6H
	DD	07199c8H
	DD	079b5d6H
	DD	088b2caH
	DD	0c7f0feH
	DD	0302e55H
	DD	0a5b9aH
	DD	027718cH
	DD	0155cb2H
	DD	0157aaaH
	DD	0516e85H
	DD	0757b95H
	DD	07ec0H
	DD	02c70c8H
	DD	0e81beH
	DD	07387abH
	DD	075a4beH
	DD	0d91ceH
	DD	03b90e7H
	DD	0528dd6H
	DD	0729ed8H
	DD	08198c4H
	DD	089c9f9H
	DD	0c7e0ecH
	DD	0dbe7edH
	DD	013110fH
	DD	0110f22H
	DD	0201f28H
	DD	0403f3fH
	DD	040403fH
	DD	0d2b52H
	DD	0b385bH
	DD	0150d7dH
	DD	0231c75H
	DD	0403f4dH
	DD	017405aH
	DD	0f4261H
	DD	0201d95H
	DD	0201db4H
	DD	0f478aH
	DD	0d588cH
	DD	014529eH
	DD	0365f8eH
	DD	0234c95H
	DD	0355992H
	DD	01d7497H
	DD	0e5ca1H
	DD	01047b3H
	DD	01e70bcH
	DD	0566f97H
	DD	06d7990H
	DD	02435c5H
	DD	01c6bd1H
	DD	02069c7H
	DD	02776e0H
	DD	04459c9H
	DD	0407ecdH
	DD	0807f8bH
	DD	02b86abH
	DD	02d92bbH
	DD	06790adH
	DD	07f93aeH
	DD	058fd1H
	DD	0b91d0H
	DD	01e94d2H
	DD	03ba5f4H
	DD	04a9cd8H
	DD	0608ec0H
	DD	07c8fc9H
	DD	06ab4d6H
	DD	09fa091H
	DD	087d3f1H
	DD	0c5d2dbH
_PalRaceReview DD 0100H
	DB	00H
	ORG $+3
	DD	FLAT:_ColorsRaceReview
_bmRaceReview DW 0b2H
	DW	073H
	DW	0b2H
	DW	08H
	DD	FLAT:_acRaceReview
	DD	FLAT:_PalRaceReview
	ORG $+4
_acRaceReview DB 01H
	DB	01H
	DB	01H
	DB	01H
	DB	01H
	DB	01H
	DB	01H
	DB	01H
	DB	01H
	DB	01H
	DB	01H
	DB	01H
	DB	01H
	DB	01H
	DB	01H
	DB	01H
	DB	01H
	DB	01H
	DB	01H
	DB	01H
	DB	01H
	DB	01H
	DB	01H
	DB	01H
	DB	01H
	DB	01H
	DB	01H
	DB	01H
	DB	01H
	DB	01H
	DB	01H
	DB	01H
	DB	01H
	DB	01H
	DB	01H
	DB	01H
	DB	01H
	DB	01H
	DB	01H
	DB	01H
	DB	01H
	DB	01H
	DB	01H
	DB	01H
	DB	01H
	DB	01H
	DB	01H
	DB	01H
	DB	01H
	DB	01H
	DB	01H
	DB	01H
	DB	01H
	DB	01H
	DB	01H
	DB	01H
	DB	01H
	DB	01H
	DB	01H
	DB	01H
	DB	01H
	DB	01H
	DB	01H
	DB	01H
	DB	01H
	DB	01H
	DB	01H
	DB	01H
	DB	01H
	DB	01H
	DB	01H
	DB	01H
	DB	01H
	DB	01H
	DB	01H
	DB	01H
	DB	01H
	DB	01H
	DB	01H
	DB	01H
	DB	01H
	DB	01H
	DB	01H
	DB	01H
	DB	01H
	DB	01H
	DB	01H
	DB	01H
	DB	01H
	DB	01H
	DB	01H
	DB	01H
	DB	01H
	DB	01H
	DB	01H
	DB	01H
	DB	01H
	DB	01H
	DB	01H
	DB	01H
	DB	01H
	DB	01H
	DB	01H
	DB	01H
	DB	01H
	DB	01H
	DB	01H
	DB	01H
	DB	01H
	DB	01H
	DB	01H
	DB	01H
	DB	01H
	DB	01H
	DB	01H
	DB	01H
	DB	01H
	DB	01H
	DB	01H
	DB	01H
	DB	01H
	DB	01H
	DB	01H
	DB	01H
	DB	01H
	DB	01H
	DB	01H
	DB	01H
	DB	01H
	DB	01H
	DB	01H
	DB	01H
	DB	01H
	DB	01H
	DB	01H
	DB	01H
	DB	01H
	DB	01H
	DB	01H
	DB	01H
	DB	01H
	DB	01H
	DB	01H
	DB	01H
	DB	01H
	DB	01H
	DB	01H
	DB	01H
	DB	01H
	DB	01H
	DB	01H
	DB	01H
	DB	01H
	DB	01H
	DB	01H
	DB	01H
	DB	01H
	DB	01H
	DB	01H
	DB	01H
	DB	01H
	DB	01H
	DB	01H
	DB	01H
	DB	01H
	DB	01H
	DB	01H
	DB	01H
	DB	01H
	DB	01H
	DB	01H
	DB	01H
	DB	01H
	DB	01H
	DB	01H
	DB	01H
	DB	01H
	DB	01H
	DB	01H
	DB	01H
	DB	01H
	DB	01H
	DB	01H
	DB	01H
	DB	01H
	DB	01H
	DB	01H
	DB	01H
	DB	01H
	DB	01H
	DB	01H
	DB	01H
	DB	01H
	DB	01H
	DB	01H
	DB	01H
	DB	01H
	DB	01H
	DB	01H
	DB	01H
	DB	01H
	DB	01H
	DB	01H
	DB	01H
	DB	01H
	DB	01H
	DB	01H
	DB	01H
	DB	01H
	DB	01H
	DB	01H
	DB	01H
	DB	01H
	DB	01H
	DB	01H
	DB	01H
	DB	01H
	DB	01H
	DB	01H
	DB	01H
	DB	01H
	DB	01H
	DB	01H
	DB	01H
	DB	01H
	DB	01H
	DB	01H
	DB	01H
	DB	01H
	DB	01H
	DB	01H
	DB	01H
	DB	01H
	DB	01H
	DB	01H
	DB	01H
	DB	01H
	DB	01H
	DB	01H
	DB	01H
	DB	01H
	DB	01H
	DB	01H
	DB	01H
	DB	01H
	DB	01H
	DB	01H
	DB	01H
	DB	01H
	DB	01H
	DB	01H
	DB	01H
	DB	01H
	DB	01H
	DB	01H
	DB	01H
	DB	01H
	DB	01H
	DB	01H
	DB	01H
	DB	01H
	DB	01H
	DB	01H
	DB	01H
	DB	01H
	DB	01H
	DB	01H
	DB	01H
	DB	01H
	DB	01H
	DB	01H
	DB	01H
	DB	01H
	DB	01H
	DB	01H
	DB	01H
	DB	01H
	DB	01H
	DB	01H
	DB	01H
	DB	01H
	DB	01H
	DB	01H
	DB	01H
	DB	01H
	DB	01H
	DB	01H
	DB	01H
	DB	01H
	DB	01H
	DB	01H
	DB	01H
	DB	01H
	DB	01H
	DB	01H
	DB	01H
	DB	01H
	DB	01H
	DB	01H
	DB	01H
	DB	01H
	DB	01H
	DB	01H
	DB	01H
	DB	01H
	DB	01H
	DB	01H
	DB	01H
	DB	01H
	DB	01H
	DB	01H
	DB	01H
	DB	01H
	DB	01H
	DB	01H
	DB	01H
	DB	01H
	DB	01H
	DB	01H
	DB	01H
	DB	01H
	DB	01H
	DB	01H
	DB	01H
	DB	01H
	DB	01H
	DB	01H
	DB	01H
	DB	01H
	DB	01H
	DB	01H
	DB	01H
	DB	01H
	DB	01H
	DB	01H
	DB	01H
	DB	01H
	DB	01H
	DB	01H
	DB	01H
	DB	01H
	DB	01H
	DB	01H
	DB	01H
	DB	01H
	DB	01H
	DB	01H
	DB	01H
	DB	01H
	DB	01H
	DB	01H
	DB	01H
	DB	01H
	DB	01H
	DB	01H
	DB	01H
	DB	01H
	DB	01H
	DB	01H
	DB	01H
	DB	01H
	DB	01H
	DB	01H
	DB	01H
	DB	01H
	DB	01H
	DB	01H
	DB	01H
	DB	01H
	DB	01H
	DB	01H
	DB	01H
	DB	01H
	DB	01H
	DB	01H
	DB	01H
	DB	01H
	DB	01H
	DB	01H
	DB	01H
	DB	01H
	DB	01H
	DB	01H
	DB	01H
	DB	01H
	DB	01H
	DB	01H
	DB	01H
	DB	01H
	DB	01H
	DB	01H
	DB	01H
	DB	01H
	DB	01H
	DB	01H
	DB	01H
	DB	01H
	DB	01H
	DB	01H
	DB	01H
	DB	01H
	DB	01H
	DB	01H
	DB	01H
	DB	01H
	DB	01H
	DB	01H
	DB	01H
	DB	01H
	DB	01H
	DB	01H
	DB	01H
	DB	01H
	DB	01H
	DB	01H
	DB	01H
	DB	01H
	DB	01H
	DB	01H
	DB	01H
	DB	01H
	DB	01H
	DB	01H
	DB	01H
	DB	01H
	DB	01H
	DB	01H
	DB	01H
	DB	01H
	DB	01H
	DB	01H
	DB	01H
	DB	01H
	DB	01H
	DB	01H
	DB	01H
	DB	01H
	DB	01H
	DB	01H
	DB	01H
	DB	01H
	DB	01H
	DB	01H
	DB	01H
	DB	01H
	DB	01H
	DB	01H
	DB	01H
	DB	01H
	DB	01H
	DB	01H
	DB	01H
	DB	01H
	DB	01H
	DB	01H
	DB	01H
	DB	01H
	DB	01H
	DB	01H
	DB	01H
	DB	01H
	DB	01H
	DB	01H
	DB	01H
	DB	01H
	DB	01H
	DB	01H
	DB	01H
	DB	01H
	DB	01H
	DB	01H
	DB	01H
	DB	01H
	DB	01H
	DB	01H
	DB	01H
	DB	01H
	DB	01H
	DB	01H
	DB	01H
	DB	01H
	DB	01H
	DB	01H
	DB	01H
	DB	040H
	DB	060H
	DB	070H
	DB	0daH
	DB	0dbH
	DB	07eH
	DB	011H
	DB	01H
	DB	01H
	DB	01H
	DB	01H
	DB	01H
	DB	01H
	DB	01H
	DB	01H
	DB	01H
	DB	01H
	DB	01H
	DB	01H
	DB	01H
	DB	01H
	DB	01H
	DB	01H
	DB	01H
	DB	01H
	DB	01H
	DB	01H
	DB	01H
	DB	01H
	DB	01H
	DB	01H
	DB	01H
	DB	01H
	DB	01H
	DB	01H
	DB	01H
	DB	01H
	DB	01H
	DB	01H
	DB	01H
	DB	01H
	DB	01H
	DB	01H
	DB	01H
	DB	01H
	DB	01H
	DB	01H
	DB	01H
	DB	01H
	DB	01H
	DB	01H
	DB	01H
	DB	01H
	DB	01H
	DB	01H
	DB	01H
	DB	01H
	DB	01H
	DB	01H
	DB	01H
	DB	01H
	DB	01H
	DB	01H
	DB	01H
	DB	01H
	DB	01H
	DB	01H
	DB	01H
	DB	01H
	DB	01H
	DB	01H
	DB	01H
	DB	01H
	DB	01H
	DB	01H
	DB	01H
	DB	01H
	DB	01H
	DB	01H
	DB	01H
	DB	01H
	DB	01H
	DB	01H
	DB	01H
	DB	01H
	DB	01H
	DB	01H
	DB	01H
	DB	01H
	DB	01H
	DB	01H
	DB	01H
	DB	01H
	DB	01H
	DB	01H
	DB	01H
	DB	01H
	DB	01H
	DB	01H
	DB	01H
	DB	01H
	DB	01H
	DB	01H
	DB	01H
	DB	01H
	DB	01H
	DB	01H
	DB	01H
	DB	01H
	DB	01H
	DB	01H
	DB	01H
	DB	01H
	DB	01H
	DB	01H
	DB	01H
	DB	01H
	DB	01H
	DB	01H
	DB	01H
	DB	01H
	DB	01H
	DB	01H
	DB	01H
	DB	01H
	DB	01H
	DB	01H
	DB	01H
	DB	01H
	DB	01H
	DB	01H
	DB	01H
	DB	01H
	DB	01H
	DB	01H
	DB	01H
	DB	01H
	DB	01H
	DB	01H
	DB	01H
	DB	01H
	DB	01H
	DB	01H
	DB	01H
	DB	01H
	DB	01H
	DB	01H
	DB	01H
	DB	01H
	DB	01H
	DB	01H
	DB	01H
	DB	01H
	DB	01H
	DB	01H
	DB	01H
	DB	01H
	DB	01H
	DB	01H
	DB	01H
	DB	01H
	DB	01H
	DB	01H
	DB	01H
	DB	01H
	DB	01H
	DB	01H
	DB	01H
	DB	01H
	DB	01H
	DB	01H
	DB	01H
	DB	01H
	DB	01H
	DB	01H
	DB	01H
	DB	040H
	DB	09bH
	DB	0ffH
	DB	0adH
	DB	09dH
	DB	0acH
	DB	0f5H
	DB	0c0H
	DB	045H
	DB	011H
	DB	01H
	DB	01H
	DB	01H
	DB	01H
	DB	01H
	DB	01H
	DB	01H
	DB	01H
	DB	01H
	DB	01H
	DB	01H
	DB	01H
	DB	01H
	DB	01H
	DB	01H
	DB	01H
	DB	01H
	DB	01H
	DB	01H
	DB	01H
	DB	01H
	DB	01H
	DB	01H
	DB	01H
	DB	01H
	DB	01H
	DB	01H
	DB	01H
	DB	01H
	DB	01H
	DB	01H
	DB	01H
	DB	01H
	DB	01H
	DB	01H
	DB	01H
	DB	01H
	DB	01H
	DB	01H
	DB	01H
	DB	01H
	DB	01H
	DB	01H
	DB	01H
	DB	01H
	DB	01H
	DB	01H
	DB	01H
	DB	01H
	DB	01H
	DB	01H
	DB	01H
	DB	01H
	DB	01H
	DB	01H
	DB	01H
	DB	01H
	DB	01H
	DB	01H
	DB	01H
	DB	01H
	DB	01H
	DB	01H
	DB	01H
	DB	01H
	DB	01H
	DB	01H
	DB	01H
	DB	01H
	DB	01H
	DB	01H
	DB	01H
	DB	01H
	DB	01H
	DB	01H
	DB	01H
	DB	01H
	DB	01H
	DB	01H
	DB	01H
	DB	01H
	DB	01H
	DB	01H
	DB	01H
	DB	01H
	DB	01H
	DB	01H
	DB	01H
	DB	01H
	DB	01H
	DB	01H
	DB	01H
	DB	01H
	DB	01H
	DB	01H
	DB	01H
	DB	01H
	DB	01H
	DB	01H
	DB	01H
	DB	01H
	DB	01H
	DB	01H
	DB	01H
	DB	01H
	DB	01H
	DB	01H
	DB	01H
	DB	01H
	DB	01H
	DB	01H
	DB	01H
	DB	01H
	DB	01H
	DB	01H
	DB	01H
	DB	01H
	DB	01H
	DB	01H
	DB	01H
	DB	01H
	DB	01H
	DB	01H
	DB	01H
	DB	01H
	DB	01H
	DB	01H
	DB	01H
	DB	01H
	DB	01H
	DB	01H
	DB	01H
	DB	01H
	DB	01H
	DB	01H
	DB	01H
	DB	01H
	DB	01H
	DB	01H
	DB	01H
	DB	01H
	DB	01H
	DB	01H
	DB	01H
	DB	01H
	DB	01H
	DB	01H
	DB	01H
	DB	01H
	DB	01H
	DB	01H
	DB	01H
	DB	01H
	DB	01H
	DB	01H
	DB	01H
	DB	01H
	DB	01H
	DB	01H
	DB	01H
	DB	01H
	DB	01H
	DB	01H
	DB	01H
	DB	01H
	DB	01H
	DB	01H
	DB	040H
	DB	0f3H
	DB	047H
	DB	04H
	DB	0bbH
	DB	067H
	DB	06cH
	DB	078H
	DB	0e4H
	DB	0beH
	DB	0daH
	DB	01H
	DB	01H
	DB	01H
	DB	011H
	DB	011H
	DB	040H
	DB	060H
	DB	025H
	DB	070H
	DB	07eH
	DB	0d5H
	DB	0d5H
	DB	04dH
	DB	04dH
	DB	04dH
	DB	02dH
	DB	04dH
	DB	0eH
	DB	0eH
	DB	019H
	DB	060H
	DB	011H
	DB	011H
	DB	01H
	DB	01H
	DB	01H
	DB	01H
	DB	01H
	DB	01H
	DB	01H
	DB	01H
	DB	01H
	DB	01H
	DB	01H
	DB	01H
	DB	01H
	DB	01H
	DB	01H
	DB	01H
	DB	01H
	DB	01H
	DB	01H
	DB	01H
	DB	01H
	DB	01H
	DB	01H
	DB	01H
	DB	01H
	DB	01H
	DB	01H
	DB	011H
	DB	011H
	DB	011H
	DB	011H
	DB	011H
	DB	011H
	DB	011H
	DB	011H
	DB	011H
	DB	011H
	DB	011H
	DB	011H
	DB	011H
	DB	011H
	DB	011H
	DB	011H
	DB	011H
	DB	011H
	DB	011H
	DB	011H
	DB	011H
	DB	011H
	DB	011H
	DB	011H
	DB	011H
	DB	011H
	DB	011H
	DB	011H
	DB	011H
	DB	011H
	DB	011H
	DB	011H
	DB	011H
	DB	011H
	DB	011H
	DB	011H
	DB	011H
	DB	011H
	DB	011H
	DB	011H
	DB	011H
	DB	011H
	DB	011H
	DB	011H
	DB	011H
	DB	011H
	DB	011H
	DB	011H
	DB	011H
	DB	011H
	DB	011H
	DB	011H
	DB	011H
	DB	011H
	DB	011H
	DB	011H
	DB	011H
	DB	011H
	DB	011H
	DB	011H
	DB	011H
	DB	011H
	DB	011H
	DB	011H
	DB	011H
	DB	011H
	DB	011H
	DB	011H
	DB	011H
	DB	011H
	DB	011H
	DB	011H
	DB	011H
	DB	011H
	DB	011H
	DB	011H
	DB	011H
	DB	011H
	DB	011H
	DB	011H
	DB	011H
	DB	011H
	DB	011H
	DB	011H
	DB	011H
	DB	011H
	DB	011H
	DB	011H
	DB	011H
	DB	011H
	DB	011H
	DB	011H
	DB	011H
	DB	011H
	DB	011H
	DB	011H
	DB	011H
	DB	011H
	DB	011H
	DB	011H
	DB	011H
	DB	011H
	DB	011H
	DB	011H
	DB	011H
	DB	011H
	DB	011H
	DB	011H
	DB	011H
	DB	011H
	DB	011H
	DB	011H
	DB	011H
	DB	011H
	DB	011H
	DB	011H
	DB	011H
	DB	0a3H
	DB	07dH
	DB	035H
	DB	04H
	DB	07dH
	DB	089H
	DB	0b9H
	DB	05eH
	DB	03bH
	DB	0beH
	DB	05dH
	DB	070H
	DB	070H
	DB	02dH
	DB	045H
	DB	080H
	DB	0e1H
	DB	022H
	DB	0e0H
	DB	0bfH
	DB	06bH
	DB	0ecH
	DB	0c4H
	DB	0aaH
	DB	0efH
	DB	0caH
	DB	085H
	DB	0cbH
	DB	086H
	DB	0aeH
	DB	07cH
	DB	0ccH
	DB	05fH
	DB	04fH
	DB	0a9H
	DB	097H
	DB	095H
	DB	060H
	DB	011H
	DB	011H
	DB	011H
	DB	011H
	DB	011H
	DB	011H
	DB	011H
	DB	01H
	DB	01H
	DB	01H
	DB	01H
	DB	01H
	DB	01H
	DB	01H
	DB	01H
	DB	01H
	DB	01H
	DB	01H
	DB	01H
	DB	01H
	DB	01H
	DB	011H
	DB	010H
	DB	0bH
	DB	0bH
	DB	0bH
	DB	0bH
	DB	0bH
	DB	0bH
	DB	0bH
	DB	0bH
	DB	0bH
	DB	0bH
	DB	0bH
	DB	0bH
	DB	0bH
	DB	0bH
	DB	0bH
	DB	0bH
	DB	0bH
	DB	0bH
	DB	0bH
	DB	0bH
	DB	0bH
	DB	0bH
	DB	0bH
	DB	0bH
	DB	0bH
	DB	0bH
	DB	0bH
	DB	0bH
	DB	0bH
	DB	0bH
	DB	0bH
	DB	0bH
	DB	0bH
	DB	0bH
	DB	0bH
	DB	0bH
	DB	0bH
	DB	0bH
	DB	0bH
	DB	0bH
	DB	0bH
	DB	0bH
	DB	0bH
	DB	0bH
	DB	0bH
	DB	0bH
	DB	0bH
	DB	0bH
	DB	0bH
	DB	0bH
	DB	0bH
	DB	0bH
	DB	0bH
	DB	0bH
	DB	0bH
	DB	0bH
	DB	0bH
	DB	0bH
	DB	0bH
	DB	0bH
	DB	0bH
	DB	0bH
	DB	0bH
	DB	0bH
	DB	0bH
	DB	0bH
	DB	0bH
	DB	0bH
	DB	0bH
	DB	0bH
	DB	0bH
	DB	0bH
	DB	0bH
	DB	0bH
	DB	0bH
	DB	0bH
	DB	0bH
	DB	0bH
	DB	0bH
	DB	0bH
	DB	0bH
	DB	0bH
	DB	0bH
	DB	0bH
	DB	0bH
	DB	0bH
	DB	0bH
	DB	0bH
	DB	0bH
	DB	0bH
	DB	0bH
	DB	0bH
	DB	0bH
	DB	0bH
	DB	0bH
	DB	0bH
	DB	0bH
	DB	0bH
	DB	0bH
	DB	0bH
	DB	0bH
	DB	0bH
	DB	0bH
	DB	0bH
	DB	0bH
	DB	0bH
	DB	0bH
	DB	0bH
	DB	0bH
	DB	0bH
	DB	0bH
	DB	0bH
	DB	0bH
	DB	0bH
	DB	0bH
	DB	0bH
	DB	016H
	DB	07bH
	DB	07dH
	DB	032H
	DB	020H
	DB	07dH
	DB	03fH
	DB	03fH
	DB	09dH
	DB	061H
	DB	061H
	DB	038H
	DB	02eH
	DB	039H
	DB	063H
	DB	063H
	DB	063H
	DB	07bH
	DB	06dH
	DB	081H
	DB	06bH
	DB	062H
	DB	0ebH
	DB	09cH
	DB	091H
	DB	066H
	DB	084H
	DB	087H
	DB	023H
	DB	034H
	DB	067H
	DB	024H
	DB	032H
	DB	035H
	DB	0a2H
	DB	020H
	DB	0a2H
	DB	068H
	DB	0adH
	DB	0c6H
	DB	098H
	DB	016H
	DB	0bH
	DB	0bH
	DB	0bH
	DB	0bH
	DB	016H
	DB	036H
	DB	01H
	DB	01H
	DB	01H
	DB	01H
	DB	01H
	DB	01H
	DB	01H
	DB	01H
	DB	01H
	DB	01H
	DB	01H
	DB	01H
	DB	033H
	DB	07H
	DB	07H
	DB	07H
	DB	07H
	DB	07H
	DB	07H
	DB	07H
	DB	07H
	DB	07H
	DB	07H
	DB	07H
	DB	07H
	DB	07H
	DB	07H
	DB	07H
	DB	07H
	DB	07H
	DB	07H
	DB	07H
	DB	07H
	DB	07H
	DB	07H
	DB	07H
	DB	07H
	DB	07H
	DB	07H
	DB	07H
	DB	07H
	DB	07H
	DB	07H
	DB	07H
	DB	07H
	DB	07H
	DB	07H
	DB	07H
	DB	07H
	DB	07H
	DB	07H
	DB	07H
	DB	07H
	DB	07H
	DB	07H
	DB	07H
	DB	07H
	DB	07H
	DB	07H
	DB	07H
	DB	07H
	DB	07H
	DB	07H
	DB	07H
	DB	07H
	DB	07H
	DB	07H
	DB	07H
	DB	07H
	DB	07H
	DB	07H
	DB	07H
	DB	07H
	DB	07H
	DB	07H
	DB	07H
	DB	07H
	DB	07H
	DB	07H
	DB	07H
	DB	07H
	DB	07H
	DB	07H
	DB	07H
	DB	07H
	DB	07H
	DB	07H
	DB	07H
	DB	07H
	DB	07H
	DB	07H
	DB	07H
	DB	07H
	DB	07H
	DB	07H
	DB	07H
	DB	07H
	DB	07H
	DB	07H
	DB	07H
	DB	07H
	DB	07H
	DB	07H
	DB	07H
	DB	07H
	DB	07H
	DB	07H
	DB	07H
	DB	07H
	DB	07H
	DB	07H
	DB	07H
	DB	07H
	DB	07H
	DB	07H
	DB	07H
	DB	07H
	DB	07H
	DB	07H
	DB	07H
	DB	07H
	DB	07H
	DB	07H
	DB	07H
	DB	07H
	DB	07H
	DB	07H
	DB	07H
	DB	07H
	DB	0bH
	DB	0dcH
	DB	0b9H
	DB	03fH
	DB	092H
	DB	059H
	DB	083H
	DB	041H
	DB	041H
	DB	04aH
	DB	038H
	DB	01cH
	DB	079H
	DB	079H
	DB	079H
	DB	04fH
	DB	063H
	DB	04fH
	DB	04cH
	DB	064H
	DB	081H
	DB	0bfH
	DB	06bH
	DB	062H
	DB	09cH
	DB	091H
	DB	066H
	DB	084H
	DB	087H
	DB	086H
	DB	034H
	DB	034H
	DB	067H
	DB	024H
	DB	068H
	DB	035H
	DB	020H
	DB	04H
	DB	04H
	DB	04H
	DB	020H
	DB	0cfH
	DB	0adH
	DB	0ddH
	DB	07H
	DB	07H
	DB	07H
	DB	07H
	DB	0bH
	DB	01H
	DB	01H
	DB	01H
	DB	01H
	DB	01H
	DB	01H
	DB	01H
	DB	01H
	DB	01H
	DB	01H
	DB	01H
	DB	01H
	DB	016H
	DB	07H
	DB	07H
	DB	07H
	DB	07H
	DB	07H
	DB	07H
	DB	07H
	DB	0bH
	DB	0d8H
	DB	02fH
	DB	02fH
	DB	02fH
	DB	0bH
	DB	07H
	DB	07H
	DB	07H
	DB	07H
	DB	07H
	DB	07H
	DB	07H
	DB	07H
	DB	07H
	DB	07H
	DB	07H
	DB	07H
	DB	07H
	DB	07H
	DB	07H
	DB	07H
	DB	07H
	DB	07H
	DB	07H
	DB	07H
	DB	07H
	DB	07H
	DB	07H
	DB	07H
	DB	07H
	DB	07H
	DB	07H
	DB	07H
	DB	07H
	DB	07H
	DB	07H
	DB	07H
	DB	07H
	DB	07H
	DB	0dcH
	DB	02fH
	DB	02fH
	DB	02fH
	DB	02fH
	DB	02fH
	DB	02fH
	DB	02fH
	DB	02fH
	DB	02fH
	DB	0d8H
	DB	07H
	DB	0d7H
	DB	096H
	DB	02fH
	DB	0d8H
	DB	0bH
	DB	07H
	DB	07H
	DB	07H
	DB	07H
	DB	07H
	DB	07H
	DB	07H
	DB	07H
	DB	07H
	DB	07H
	DB	07H
	DB	07H
	DB	07H
	DB	07H
	DB	07H
	DB	07H
	DB	07H
	DB	07H
	DB	07H
	DB	07H
	DB	07H
	DB	07H
	DB	07H
	DB	07H
	DB	07H
	DB	07H
	DB	07H
	DB	07H
	DB	07H
	DB	07H
	DB	07H
	DB	07H
	DB	07H
	DB	07H
	DB	07H
	DB	07H
	DB	07H
	DB	07H
	DB	07H
	DB	07H
	DB	07H
	DB	07H
	DB	07H
	DB	07H
	DB	07H
	DB	07H
	DB	07H
	DB	07H
	DB	07H
	DB	07H
	DB	07H
	DB	07H
	DB	0bH
	DB	08eH
	DB	088H
	DB	092H
	DB	0c5H
	DB	0f6H
	DB	0bdH
	DB	064H
	DB	082H
	DB	061H
	DB	01cH
	DB	0fbH
	DB	0b6H
	DB	079H
	DB	079H
	DB	04fH
	DB	04fH
	DB	04fH
	DB	05fH
	DB	07bH
	DB	077H
	DB	0bfH
	DB	06bH
	DB	062H
	DB	09cH
	DB	091H
	DB	066H
	DB	084H
	DB	087H
	DB	086H
	DB	034H
	DB	034H
	DB	067H
	DB	024H
	DB	068H
	DB	035H
	DB	020H
	DB	04H
	DB	04H
	DB	04H
	DB	04H
	DB	0a2H
	DB	04H
	DB	0ccH
	DB	08eH
	DB	08fH
	DB	0e6H
	DB	0e6H
	DB	0e6H
	DB	07eH
	DB	01H
	DB	01H
	DB	01H
	DB	01H
	DB	01H
	DB	01H
	DB	01H
	DB	01H
	DB	01H
	DB	01H
	DB	01H
	DB	016H
	DB	07H
	DB	07H
	DB	07H
	DB	07H
	DB	07H
	DB	07H
	DB	07H
	DB	010H
	DB	0fdH
	DB	04H
	DB	04H
	DB	052H
	DB	016H
	DB	07H
	DB	07H
	DB	07H
	DB	07H
	DB	07H
	DB	07H
	DB	07H
	DB	07H
	DB	07H
	DB	07H
	DB	07H
	DB	07H
	DB	07H
	DB	07H
	DB	07H
	DB	07H
	DB	07H
	DB	07H
	DB	07H
	DB	07H
	DB	07H
	DB	07H
	DB	07H
	DB	07H
	DB	07H
	DB	07H
	DB	07H
	DB	07H
	DB	07H
	DB	07H
	DB	07H
	DB	07H
	DB	07H
	DB	0bH
	DB	031H
	DB	04H
	DB	04H
	DB	04H
	DB	048H
	DB	048H
	DB	048H
	DB	04H
	DB	04H
	DB	04H
	DB	0aH
	DB	010H
	DB	0f0H
	DB	04H
	DB	04H
	DB	0aH
	DB	010H
	DB	07H
	DB	07H
	DB	07H
	DB	07H
	DB	07H
	DB	07H
	DB	07H
	DB	07H
	DB	07H
	DB	07H
	DB	07H
	DB	07H
	DB	07H
	DB	07H
	DB	07H
	DB	07H
	DB	07H
	DB	07H
	DB	07H
	DB	07H
	DB	07H
	DB	07H
	DB	07H
	DB	07H
	DB	07H
	DB	07H
	DB	07H
	DB	07H
	DB	07H
	DB	07H
	DB	07H
	DB	07H
	DB	07H
	DB	07H
	DB	07H
	DB	07H
	DB	07H
	DB	07H
	DB	07H
	DB	07H
	DB	07H
	DB	07H
	DB	07H
	DB	07H
	DB	07H
	DB	07H
	DB	07H
	DB	07H
	DB	07H
	DB	07H
	DB	07H
	DB	07H
	DB	0bH
	DB	08eH
	DB	088H
	DB	059H
	DB	057H
	DB	0c8H
	DB	055H
	DB	0dcH
	DB	039H
	DB	061H
	DB	03bH
	DB	063H
	DB	0b6H
	DB	0b6H
	DB	0b6H
	DB	079H
	DB	04fH
	DB	0f3H
	DB	05fH
	DB	093H
	DB	014H
	DB	081H
	DB	06bH
	DB	062H
	DB	09cH
	DB	091H
	DB	066H
	DB	0caH
	DB	087H
	DB	086H
	DB	034H
	DB	034H
	DB	067H
	DB	024H
	DB	068H
	DB	035H
	DB	020H
	DB	04H
	DB	04H
	DB	04H
	DB	020H
	DB	09fH
	DB	09fH
	DB	06fH
	DB	092H
	DB	053H
	DB	053H
	DB	07aH
	DB	062H
	DB	06bH
	DB	056H
	DB	040H
	DB	01H
	DB	01H
	DB	01H
	DB	01H
	DB	01H
	DB	01H
	DB	01H
	DB	01H
	DB	01H
	DB	016H
	DB	05H
	DB	07H
	DB	07H
	DB	07H
	DB	07H
	DB	07H
	DB	07H
	DB	0d1H
	DB	050H
	DB	04H
	DB	04H
	DB	0f0H
	DB	010H
	DB	07H
	DB	07H
	DB	07H
	DB	07H
	DB	07H
	DB	07H
	DB	07H
	DB	07H
	DB	07H
	DB	07H
	DB	07H
	DB	07H
	DB	07H
	DB	07H
	DB	07H
	DB	07H
	DB	07H
	DB	07H
	DB	05H
	DB	07H
	DB	07H
	DB	07H
	DB	07H
	DB	07H
	DB	07H
	DB	07H
	DB	07H
	DB	07H
	DB	07H
	DB	07H
	DB	07H
	DB	07H
	DB	05H
	DB	010H
	DB	075H
	DB	042H
	DB	017H
	DB	015H
	DB	04H
	DB	04H
	DB	04H
	DB	00H
	DB	017H
	DB	042H
	DB	096H
	DB	01bH
	DB	03dH
	DB	04H
	DB	04H
	DB	028H
	DB	016H
	DB	07H
	DB	05H
	DB	07H
	DB	07H
	DB	07H
	DB	07H
	DB	07H
	DB	07H
	DB	07H
	DB	07H
	DB	07H
	DB	07H
	DB	07H
	DB	07H
	DB	07H
	DB	07H
	DB	07H
	DB	07H
	DB	07H
	DB	07H
	DB	07H
	DB	07H
	DB	07H
	DB	07H
	DB	05H
	DB	07H
	DB	05H
	DB	07H
	DB	07H
	DB	07H
	DB	07H
	DB	07H
	DB	07H
	DB	07H
	DB	07H
	DB	07H
	DB	07H
	DB	07H
	DB	07H
	DB	07H
	DB	07H
	DB	07H
	DB	07H
	DB	07H
	DB	07H
	DB	07H
	DB	07H
	DB	07H
	DB	07H
	DB	07H
	DB	07H
	DB	07H
	DB	0bH
	DB	08eH
	DB	053H
	DB	06cH
	DB	057H
	DB	057H
	DB	055H
	DB	016H
	DB	0b2H
	DB	039H
	DB	04eH
	DB	061H
	DB	038H
	DB	090H
	DB	063H
	DB	04fH
	DB	0f3H
	DB	04cH
	DB	0c7H
	DB	0aeH
	DB	07bH
	DB	081H
	DB	06bH
	DB	062H
	DB	09cH
	DB	091H
	DB	066H
	DB	084H
	DB	087H
	DB	0cbH
	DB	034H
	DB	034H
	DB	067H
	DB	024H
	DB	068H
	DB	035H
	DB	0a2H
	DB	0a2H
	DB	0a2H
	DB	068H
	DB	0adH
	DB	07cH
	DB	024H
	DB	067H
	DB	087H
	DB	023H
	DB	07dH
	DB	032H
	DB	0aeH
	DB	0e7H
	DB	062H
	DB	029H
	DB	040H
	DB	01H
	DB	01H
	DB	01H
	DB	01H
	DB	01H
	DB	01H
	DB	01H
	DB	01H
	DB	016H
	DB	05H
	DB	07H
	DB	07H
	DB	07H
	DB	07H
	DB	07H
	DB	07H
	DB	07fH
	DB	042H
	DB	04H
	DB	04H
	DB	028H
	DB	01bH
	DB	07H
	DB	05H
	DB	07H
	DB	07H
	DB	07H
	DB	05H
	DB	05H
	DB	07H
	DB	0bH
	DB	0bH
	DB	0bH
	DB	0bH
	DB	07H
	DB	05H
	DB	07H
	DB	07H
	DB	05H
	DB	07H
	DB	0bH
	DB	0bH
	DB	07H
	DB	05H
	DB	07H
	DB	0bH
	DB	0bH
	DB	07H
	DB	05H
	DB	07H
	DB	07H
	DB	07H
	DB	07H
	DB	07H
	DB	05H
	DB	0bH
	DB	07eH
	DB	0eH
	DB	011H
	DB	09H
	DB	04H
	DB	04H
	DB	0dH
	DB	0d2H
	DB	02aH
	DB	02aH
	DB	030H
	DB	036H
	DB	096H
	DB	0d9H
	DB	012H
	DB	0d1H
	DB	010H
	DB	07H
	DB	0bH
	DB	0bH
	DB	0bH
	DB	05H
	DB	07H
	DB	0bH
	DB	0bH
	DB	0bH
	DB	07H
	DB	05H
	DB	05H
	DB	07H
	DB	0bH
	DB	0bH
	DB	0bH
	DB	05H
	DB	05H
	DB	07H
	DB	07H
	DB	07H
	DB	05H
	DB	07H
	DB	0bH
	DB	016H
	DB	016H
	DB	016H
	DB	0bH
	DB	05H
	DB	05H
	DB	07H
	DB	07H
	DB	05H
	DB	05H
	DB	07H
	DB	0bH
	DB	0bH
	DB	0bH
	DB	07H
	DB	05H
	DB	07H
	DB	07H
	DB	07H
	DB	07H
	DB	07H
	DB	07H
	DB	07H
	DB	07H
	DB	07H
	DB	07H
	DB	07H
	DB	07H
	DB	0bH
	DB	055H
	DB	0b9H
	DB	06cH
	DB	057H
	DB	057H
	DB	055H
	DB	016H
	DB	016H
	DB	0b7H
	DB	024H
	DB	0adH
	DB	04fH
	DB	04eH
	DB	080H
	DB	080H
	DB	038H
	DB	0e1H
	DB	039H
	DB	064H
	DB	0faH
	DB	077H
	DB	0bfH
	DB	062H
	DB	0ecH
	DB	0c4H
	DB	0aaH
	DB	066H
	DB	084H
	DB	085H
	DB	086H
	DB	0aeH
	DB	053H
	DB	06fH
	DB	06fH
	DB	06fH
	DB	07cH
	DB	09eH
	DB	0c6H
	DB	0e8H
	DB	063H
	DB	0aeH
	DB	09fH
	DB	034H
	DB	087H
	DB	023H
	DB	094H
	DB	07dH
	DB	032H
	DB	0aeH
	DB	06bH
	DB	0e7H
	DB	045H
	DB	01H
	DB	01H
	DB	01H
	DB	01H
	DB	01H
	DB	01H
	DB	01H
	DB	01H
	DB	016H
	DB	05H
	DB	05H
	DB	05H
	DB	05H
	DB	05H
	DB	05H
	DB	07H
	DB	096H
	DB	048H
	DB	04H
	DB	048H
	DB	03H
	DB	010H
	DB	05H
	DB	05H
	DB	05H
	DB	05H
	DB	05H
	DB	07H
	DB	0d7H
	DB	097H
	DB	0e9H
	DB	09H
	DB	09H
	DB	09H
	DB	028H
	DB	016H
	DB	05H
	DB	05H
	DB	07H
	DB	0b1H
	DB	0fdH
	DB	03cH
	DB	028H
	DB	01bH
	DB	028H
	DB	09H
	DB	09H
	DB	028H
	DB	016H
	DB	05H
	DB	05H
	DB	05H
	DB	05H
	DB	05H
	DB	05H
	DB	05H
	DB	05H
	DB	0bH
	DB	036H
	DB	052H
	DB	04H
	DB	04H
	DB	0fdH
	DB	011H
	DB	033H
	DB	010H
	DB	033H
	DB	0bcH
	DB	09H
	DB	09H
	DB	0aH
	DB	030H
	DB	0bH
	DB	0dcH
	DB	09H
	DB	03cH
	DB	028H
	DB	01bH
	DB	02fH
	DB	0f0H
	DB	09H
	DB	0f0H
	DB	0bcH
	DB	0bH
	DB	016H
	DB	028H
	DB	09H
	DB	09H
	DB	09aH
	DB	08cH
	DB	05H
	DB	05H
	DB	05H
	DB	05H
	DB	0bH
	DB	02fH
	DB	0f0H
	DB	052H
	DB	08H
	DB	0fdH
	DB	09aH
	DB	08cH
	DB	07H
	DB	05H
	DB	05H
	DB	07H
	DB	073H
	DB	05cH
	DB	09H
	DB	09H
	DB	09H
	DB	028H
	DB	073H
	DB	05H
	DB	05H
	DB	05H
	DB	05H
	DB	05H
	DB	05H
	DB	05H
	DB	05H
	DB	05H
	DB	05H
	DB	05H
	DB	07H
	DB	0bH
	DB	0dcH
	DB	092H
	DB	059H
	DB	078H
	DB	0c0H
	DB	055H
	DB	0bH
	DB	016H
	DB	01cH
	DB	024H
	DB	035H
	DB	020H
	DB	035H
	DB	0ffH
	DB	09fH
	DB	09eH
	DB	0c6H
	DB	063H
	DB	039H
	DB	02eH
	DB	02eH
	DB	022H
	DB	014H
	DB	014H
	DB	014H
	DB	014H
	DB	014H
	DB	01cH
	DB	01cH
	DB	01cH
	DB	01cH
	DB	039H
	DB	090H
	DB	0e1H
	DB	038H
	DB	038H
	DB	02eH
	DB	0e1H
	DB	090H
	DB	05fH
	DB	0aeH
	DB	06fH
	DB	034H
	DB	023H
	DB	0cdH
	DB	094H
	DB	07dH
	DB	094H
	DB	07dH
	DB	0faH
	DB	077H
	DB	077H
	DB	060H
	DB	01H
	DB	01H
	DB	01H
	DB	01H
	DB	01H
	DB	01H
	DB	01H
	DB	016H
	DB	05H
	DB	05H
	DB	05H
	DB	05H
	DB	05H
	DB	05H
	DB	016H
	DB	0aH
	DB	04H
	DB	04H
	DB	017H
	DB	08aH
	DB	016H
	DB	05H
	DB	05H
	DB	05H
	DB	05H
	DB	05H
	DB	016H
	DB	03dH
	DB	04H
	DB	04H
	DB	04H
	DB	04H
	DB	04H
	DB	048H
	DB	075H
	DB	0bH
	DB	05H
	DB	0bH
	DB	031H
	DB	04H
	DB	04H
	DB	08H
	DB	08H
	DB	04H
	DB	04H
	DB	04H
	DB	048H
	DB	0aH
	DB	0bH
	DB	05H
	DB	05H
	DB	05H
	DB	05H
	DB	05H
	DB	05H
	DB	05H
	DB	05H
	DB	0d7H
	DB	050H
	DB	04H
	DB	04H
	DB	0aH
	DB	036H
	DB	07H
	DB	05H
	DB	016H
	DB	031H
	DB	04H
	DB	04H
	DB	08H
	DB	016H
	DB	07H
	DB	028H
	DB	04H
	DB	04H
	DB	08H
	DB	075H
	DB	048H
	DB	04H
	DB	04H
	DB	04H
	DB	03dH
	DB	096H
	DB	08H
	DB	04H
	DB	04H
	DB	04H
	DB	04H
	DB	075H
	DB	01bH
	DB	05H
	DB	05H
	DB	016H
	DB	031H
	DB	015H
	DB	04H
	DB	04H
	DB	048H
	DB	04H
	DB	04H
	DB	08H
	DB	08cH
	DB	05H
	DB	0bH
	DB	028H
	DB	050H
	DB	04H
	DB	04H
	DB	04H
	DB	04H
	DB	015H
	DB	0d9H
	DB	07H
	DB	05H
	DB	05H
	DB	05H
	DB	05H
	DB	05H
	DB	05H
	DB	05H
	DB	05H
	DB	05H
	DB	05H
	DB	07H
	DB	07H
	DB	0bH
	DB	06dH
	DB	092H
	DB	05eH
	DB	0beH
	DB	0b2H
	DB	0bH
	DB	0bH
	DB	08fH
	DB	024H
	DB	032H
	DB	047H
	DB	020H
	DB	04H
	DB	04H
	DB	04H
	DB	04H
	DB	020H
	DB	035H
	DB	0ceH
	DB	024H
	DB	088H
	DB	053H
	DB	092H
	DB	083H
	DB	059H
	DB	0f2H
	DB	04bH
	DB	014H
	DB	014H
	DB	022H
	DB	022H
	DB	038H
	DB	038H
	DB	038H
	DB	022H
	DB	01cH
	DB	039H
	DB	063H
	DB	0b8H
	DB	086H
	DB	034H
	DB	086H
	DB	07aH
	DB	085H
	DB	094H
	DB	07dH
	DB	094H
	DB	0cdH
	DB	09fH
	DB	014H
	DB	077H
	DB	0dbH
	DB	01H
	DB	01H
	DB	01H
	DB	01H
	DB	01H
	DB	01H
	DB	01H
	DB	0bH
	DB	05H
	DB	05H
	DB	05H
	DB	05H
	DB	05H
	DB	05H
	DB	033H
	DB	09H
	DB	04H
	DB	04H
	DB	08H
	DB	030H
	DB	0bH
	DB	05H
	DB	05H
	DB	05H
	DB	05H
	DB	05H
	DB	073H
	DB	052H
	DB	09H
	DB	031H
	DB	0aH
	DB	052H
	DB	04H
	DB	04H
	DB	042H
	DB	072H
	DB	05H
	DB	0bH
	DB	052H
	DB	04H
	DB	04H
	DB	04H
	DB	015H
	DB	08H
	DB	015H
	DB	04H
	DB	04H
	DB	050H
	DB	0d8H
	DB	05H
	DB	05H
	DB	05H
	DB	05H
	DB	05H
	DB	05H
	DB	05H
	DB	05H
	DB	02fH
	DB	015H
	DB	04H
	DB	04H
	DB	02H
	DB	033H
	DB	05H
	DB	05H
	DB	033H
	DB	0fdH
	DB	04H
	DB	04H
	DB	031H
	DB	033H
	DB	0bH
	DB	031H
	DB	04H
	DB	04H
	DB	048H
	DB	04H
	DB	042H
	DB	048H
	DB	04H
	DB	04H
	DB	048H
	DB	042H
	DB	04H
	DB	042H
	DB	048H
	DB	04H
	DB	04H
	DB	017H
	DB	072H
	DB	05H
	DB	016H
	DB	075H
	DB	04H
	DB	04H
	DB	03cH
	DB	0d9H
	DB	02H
	DB	0dH
	DB	04H
	DB	04H
	DB	0aH
	DB	07H
	DB	072H
	DB	015H
	DB	04H
	DB	03cH
	DB	028H
	DB	028H
	DB	0aH
	DB	0aH
	DB	07eH
	DB	07H
	DB	05H
	DB	05H
	DB	05H
	DB	05H
	DB	05H
	DB	05H
	DB	05H
	DB	05H
	DB	05H
	DB	05H
	DB	05H
	DB	07H
	DB	0bH
	DB	08fH
	DB	0fcH
	DB	0a8H
	DB	03bH
	DB	05dH
	DB	0bH
	DB	0bH
	DB	0b4H
	DB	088H
	DB	035H
	DB	047H
	DB	020H
	DB	020H
	DB	04H
	DB	04H
	DB	04H
	DB	020H
	DB	047H
	DB	032H
	DB	07dH
	DB	089H
	DB	041H
	DB	05aH
	DB	02cH
	DB	065H
	DB	01eH
	DB	04bH
	DB	04bH
	DB	014H
	DB	014H
	DB	022H
	DB	022H
	DB	0e1H
	DB	0e1H
	DB	02eH
	DB	01cH
	DB	039H
	DB	064H
	DB	07bH
	DB	086H
	DB	0cbH
	DB	077H
	DB	029H
	DB	056H
	DB	08fH
	DB	053H
	DB	089H
	DB	023H
	DB	094H
	DB	04cH
	DB	077H
	DB	029H
	DB	011H
	DB	01H
	DB	01H
	DB	01H
	DB	01H
	DB	01H
	DB	01H
	DB	0bH
	DB	05H
	DB	05H
	DB	05H
	DB	05H
	DB	05H
	DB	05H
	DB	010H
	DB	08H
	DB	04H
	DB	04H
	DB	09H
	DB	036H
	DB	07H
	DB	05H
	DB	05H
	DB	05H
	DB	05H
	DB	05H
	DB	0bH
	DB	036H
	DB	01H
	DB	011H
	DB	01H
	DB	0d1H
	DB	013H
	DB	04H
	DB	048H
	DB	0d4H
	DB	07H
	DB	016H
	DB	050H
	DB	04H
	DB	04H
	DB	0dH
	DB	07fH
	DB	030H
	DB	028H
	DB	04H
	DB	04H
	DB	04H
	DB	096H
	DB	07H
	DB	05H
	DB	05H
	DB	05H
	DB	05H
	DB	05H
	DB	05H
	DB	07H
	DB	028H
	DB	04H
	DB	04H
	DB	042H
	DB	03H
	DB	016H
	DB	05H
	DB	05H
	DB	073H
	DB	03dH
	DB	04H
	DB	04H
	DB	02H
	DB	033H
	DB	016H
	DB	08H
	DB	04H
	DB	04H
	DB	050H
	DB	0d9H
	DB	08aH
	DB	0d9H
	DB	015H
	DB	04H
	DB	04H
	DB	0dH
	DB	096H
	DB	08aH
	DB	031H
	DB	04H
	DB	04H
	DB	042H
	DB	072H
	DB	07H
	DB	028H
	DB	04H
	DB	04H
	DB	08H
	DB	0d1H
	DB	036H
	DB	036H
	DB	0a5H
	DB	04H
	DB	04H
	DB	052H
	DB	010H
	DB	098H
	DB	04H
	DB	050H
	DB	040H
	DB	011H
	DB	036H
	DB	01bH
	DB	030H
	DB	036H
	DB	0bH
	DB	05H
	DB	05H
	DB	05H
	DB	05H
	DB	05H
	DB	05H
	DB	05H
	DB	05H
	DB	05H
	DB	05H
	DB	05H
	DB	07H
	DB	0bH
	DB	0dcH
	DB	06eH
	DB	082H
	DB	05dH
	DB	03bH
	DB	06aH
	DB	0bH
	DB	055H
	DB	053H
	DB	035H
	DB	020H
	DB	020H
	DB	020H
	DB	04H
	DB	04H
	DB	04H
	DB	020H
	DB	047H
	DB	032H
	DB	07dH
	DB	03fH
	DB	041H
	DB	0fcH
	DB	02cH
	DB	065H
	DB	01eH
	DB	04bH
	DB	04bH
	DB	014H
	DB	014H
	DB	022H
	DB	022H
	DB	0e1H
	DB	0e1H
	DB	02eH
	DB	01cH
	DB	039H
	DB	0faH
	DB	0cbH
	DB	0cbH
	DB	06dH
	DB	0b5H
	DB	0deH
	DB	016H
	DB	0bH
	DB	0dcH
	DB	0cbH
	DB	05aH
	DB	0cdH
	DB	053H
	DB	05eH
	DB	022H
	DB	027H
	DB	01H
	DB	01H
	DB	01H
	DB	01H
	DB	01H
	DB	01H
	DB	0bH
	DB	05H
	DB	05H
	DB	05H
	DB	05H
	DB	05H
	DB	05H
	DB	0eH
	DB	017H
	DB	04H
	DB	04H
	DB	0a5H
	DB	01bH
	DB	05H
	DB	05H
	DB	05H
	DB	05H
	DB	05H
	DB	0bH
	DB	0bcH
	DB	09H
	DB	0dH
	DB	017H
	DB	08H
	DB	028H
	DB	048H
	DB	04H
	DB	015H
	DB	012H
	DB	0bH
	DB	0d8H
	DB	048H
	DB	04H
	DB	04H
	DB	02H
	DB	030H
	DB	033H
	DB	07fH
	DB	050H
	DB	04H
	DB	048H
	DB	0d9H
	DB	0bH
	DB	05H
	DB	05H
	DB	05H
	DB	05H
	DB	05H
	DB	05H
	DB	07H
	DB	0f0H
	DB	04H
	DB	04H
	DB	0dH
	DB	040H
	DB	0bH
	DB	05H
	DB	07H
	DB	07fH
	DB	015H
	DB	04H
	DB	00H
	DB	095H
	DB	016H
	DB	010H
	DB	050H
	DB	04H
	DB	04H
	DB	028H
	DB	030H
	DB	036H
	DB	07fH
	DB	00H
	DB	04H
	DB	04H
	DB	095H
	DB	036H
	DB	036H
	DB	028H
	DB	04H
	DB	04H
	DB	050H
	DB	036H
	DB	08cH
	DB	08H
	DB	04H
	DB	04H
	DB	02H
	DB	011H
	DB	036H
	DB	01bH
	DB	028H
	DB	04H
	DB	04H
	DB	09H
	DB	01bH
	DB	09aH
	DB	04H
	DB	04H
	DB	052H
	DB	02H
	DB	08aH
	DB	0bH
	DB	07H
	DB	07H
	DB	05H
	DB	05H
	DB	05H
	DB	05H
	DB	05H
	DB	05H
	DB	05H
	DB	05H
	DB	05H
	DB	05H
	DB	05H
	DB	05H
	DB	07H
	DB	07H
	DB	0bH
	DB	0aaH
	DB	088H
	DB	0beH
	DB	05dH
	DB	0b2H
	DB	0bH
	DB	0bH
	DB	092H
	DB	035H
	DB	020H
	DB	020H
	DB	020H
	DB	04H
	DB	04H
	DB	04H
	DB	020H
	DB	047H
	DB	032H
	DB	07dH
	DB	03fH
	DB	041H
	DB	0fcH
	DB	02cH
	DB	065H
	DB	01eH
	DB	0f2H
	DB	04bH
	DB	014H
	DB	014H
	DB	022H
	DB	022H
	DB	0e1H
	DB	0e1H
	DB	090H
	DB	01cH
	DB	039H
	DB	07bH
	DB	0b7H
	DB	02eH
	DB	0a7H
	DB	06aH
	DB	0bH
	DB	0bH
	DB	0bH
	DB	0bH
	DB	08eH
	DB	023H
	DB	037H
	DB	034H
	DB	09dH
	DB	0c7H
	DB	0b0H
	DB	01H
	DB	01H
	DB	01H
	DB	01H
	DB	01H
	DB	01H
	DB	0bH
	DB	05H
	DB	05H
	DB	05H
	DB	05H
	DB	05H
	DB	07H
	DB	0d3H
	DB	048H
	DB	04H
	DB	048H
	DB	02H
	DB	010H
	DB	05H
	DB	05H
	DB	05H
	DB	05H
	DB	07H
	DB	05cH
	DB	048H
	DB	04H
	DB	042H
	DB	08H
	DB	0dH
	DB	048H
	DB	04H
	DB	04H
	DB	050H
	DB	08aH
	DB	0bH
	DB	098H
	DB	04H
	DB	04H
	DB	017H
	DB	08aH
	DB	033H
	DB	05H
	DB	0d7H
	DB	042H
	DB	04H
	DB	015H
	DB	012H
	DB	0bH
	DB	05H
	DB	05H
	DB	05H
	DB	05H
	DB	05H
	DB	05H
	DB	016H
	DB	052H
	DB	04H
	DB	04H
	DB	052H
	DB	030H
	DB	07H
	DB	05H
	DB	07H
	DB	02H
	DB	04H
	DB	04H
	DB	0dH
	DB	02aH
	DB	0bH
	DB	0b1H
	DB	048H
	DB	04H
	DB	015H
	DB	012H
	DB	033H
	DB	0bH
	DB	028H
	DB	04H
	DB	04H
	DB	017H
	DB	02aH
	DB	010H
	DB	016H
	DB	09H
	DB	04H
	DB	04H
	DB	052H
	DB	011H
	DB	096H
	DB	048H
	DB	04H
	DB	04H
	DB	013H
	DB	017H
	DB	017H
	DB	017H
	DB	015H
	DB	04H
	DB	04H
	DB	031H
	DB	036H
	DB	09aH
	DB	04H
	DB	04H
	DB	04H
	DB	04H
	DB	017H
	DB	0aH
	DB	016H
	DB	05H
	DB	05H
	DB	05H
	DB	05H
	DB	05H
	DB	05H
	DB	05H
	DB	05H
	DB	05H
	DB	05H
	DB	05H
	DB	05H
	DB	05H
	DB	05H
	DB	07H
	DB	0bH
	DB	06aH
	DB	03fH
	DB	07cH
	DB	061H
	DB	05dH
	DB	06aH
	DB	0bH
	DB	064H
	DB	035H
	DB	020H
	DB	020H
	DB	04H
	DB	04H
	DB	04H
	DB	04H
	DB	020H
	DB	047H
	DB	032H
	DB	07dH
	DB	03fH
	DB	041H
	DB	05aH
	DB	02cH
	DB	065H
	DB	01eH
	DB	0f2H
	DB	04bH
	DB	014H
	DB	014H
	DB	022H
	DB	022H
	DB	0e1H
	DB	0e1H
	DB	039H
	DB	01cH
	DB	04aH
	DB	02eH
	DB	04eH
	DB	080H
	DB	055H
	DB	07H
	DB	07H
	DB	07H
	DB	07H
	DB	0bH
	DB	016H
	DB	06dH
	DB	037H
	DB	023H
	DB	0adH
	DB	0ceH
	DB	031H
	DB	01H
	DB	01H
	DB	01H
	DB	01H
	DB	01H
	DB	01H
	DB	0bH
	DB	05H
	DB	05H
	DB	05H
	DB	05H
	DB	05H
	DB	07H
	DB	0a5H
	DB	04H
	DB	04H
	DB	013H
	DB	0d2H
	DB	016H
	DB	05H
	DB	05H
	DB	05H
	DB	07H
	DB	096H
	DB	048H
	DB	04H
	DB	00H
	DB	095H
	DB	011H
	DB	0d1H
	DB	0dH
	DB	04H
	DB	04H
	DB	08H
	DB	030H
	DB	016H
	DB	0c2H
	DB	04H
	DB	04H
	DB	08H
	DB	030H
	DB	0bH
	DB	05H
	DB	0d8H
	DB	048H
	DB	04H
	DB	050H
	DB	0d2H
	DB	0bH
	DB	05H
	DB	05H
	DB	05H
	DB	05H
	DB	05H
	DB	05H
	DB	08cH
	DB	050H
	DB	04H
	DB	04H
	DB	0aH
	DB	036H
	DB	05H
	DB	05H
	DB	07H
	DB	0aH
	DB	04H
	DB	04H
	DB	052H
	DB	030H
	DB	0bH
	DB	098H
	DB	04H
	DB	04H
	DB	050H
	DB	0d1H
	DB	0bH
	DB	07H
	DB	031H
	DB	04H
	DB	04H
	DB	08H
	DB	030H
	DB	07H
	DB	016H
	DB	08H
	DB	04H
	DB	04H
	DB	0aH
	DB	030H
	DB	0aH
	DB	04H
	DB	04H
	DB	015H
	DB	026H
	DB	03dH
	DB	03dH
	DB	03dH
	DB	03dH
	DB	026H
	DB	03dH
	DB	0d3H
	DB	033H
	DB	072H
	DB	075H
	DB	015H
	DB	04H
	DB	04H
	DB	04H
	DB	04H
	DB	0a5H
	DB	07H
	DB	05H
	DB	05H
	DB	05H
	DB	05H
	DB	05H
	DB	05H
	DB	05H
	DB	05H
	DB	05H
	DB	05H
	DB	05H
	DB	05H
	DB	05H
	DB	07H
	DB	07H
	DB	0bH
	DB	0b8H
	DB	0cfH
	DB	04aH
	DB	05dH
	DB	0b2H
	DB	0bH
	DB	01cH
	DB	032H
	DB	020H
	DB	020H
	DB	04H
	DB	04H
	DB	04H
	DB	04H
	DB	020H
	DB	047H
	DB	032H
	DB	07dH
	DB	03fH
	DB	041H
	DB	05aH
	DB	02cH
	DB	065H
	DB	01eH
	DB	0f2H
	DB	04bH
	DB	014H
	DB	014H
	DB	022H
	DB	022H
	DB	038H
	DB	02eH
	DB	039H
	DB	01cH
	DB	090H
	DB	0a4H
	DB	04eH
	DB	0a4H
	DB	0ddH
	DB	05H
	DB	05H
	DB	05H
	DB	07H
	DB	07H
	DB	016H
	DB	0e3H
	DB	037H
	DB	037H
	DB	09fH
	DB	0cfH
	DB	09bH
	DB	01H
	DB	01H
	DB	01H
	DB	01H
	DB	01H
	DB	01H
	DB	0bH
	DB	05H
	DB	05H
	DB	05H
	DB	05H
	DB	05H
	DB	010H
	DB	075H
	DB	04H
	DB	04H
	DB	026H
	DB	030H
	DB	0bH
	DB	05H
	DB	05H
	DB	05H
	DB	010H
	DB	0fdH
	DB	04H
	DB	04H
	DB	0aH
	DB	030H
	DB	033H
	DB	033H
	DB	052H
	DB	04H
	DB	04H
	DB	0f0H
	DB	01bH
	DB	016H
	DB	052H
	DB	04H
	DB	04H
	DB	09H
	DB	036H
	DB	05H
	DB	07H
	DB	0a5H
	DB	04H
	DB	04H
	DB	052H
	DB	030H
	DB	07H
	DB	05H
	DB	05H
	DB	05H
	DB	05H
	DB	05H
	DB	05H
	DB	02fH
	DB	042H
	DB	04H
	DB	04H
	DB	02H
	DB	01bH
	DB	05H
	DB	05H
	DB	010H
	DB	052H
	DB	04H
	DB	04H
	DB	031H
	DB	01bH
	DB	0bH
	DB	0f0H
	DB	04H
	DB	04H
	DB	052H
	DB	030H
	DB	07H
	DB	0bH
	DB	052H
	DB	04H
	DB	04H
	DB	09H
	DB	036H
	DB	07H
	DB	0dcH
	DB	017H
	DB	04H
	DB	04H
	DB	012H
	DB	036H
	DB	0f0H
	DB	04H
	DB	04H
	DB	03cH
	DB	011H
	DB	0d1H
	DB	0d1H
	DB	0d1H
	DB	0d1H
	DB	0d1H
	DB	0d1H
	DB	011H
	DB	016H
	DB	05H
	DB	010H
	DB	07fH
	DB	0a5H
	DB	017H
	DB	04H
	DB	04H
	DB	052H
	DB	010H
	DB	05H
	DB	05H
	DB	05H
	DB	05H
	DB	05H
	DB	05H
	DB	05H
	DB	05H
	DB	05H
	DB	05H
	DB	05H
	DB	05H
	DB	05H
	DB	05H
	DB	07H
	DB	0bH
	DB	08eH
	DB	047H
	DB	04cH
	DB	061H
	DB	05dH
	DB	055H
	DB	08fH
	DB	024H
	DB	020H
	DB	020H
	DB	04H
	DB	04H
	DB	04H
	DB	04H
	DB	020H
	DB	047H
	DB	032H
	DB	07dH
	DB	03fH
	DB	041H
	DB	05aH
	DB	02cH
	DB	065H
	DB	01eH
	DB	0f2H
	DB	04bH
	DB	014H
	DB	014H
	DB	022H
	DB	022H
	DB	038H
	DB	02eH
	DB	01cH
	DB	01cH
	DB	039H
	DB	04eH
	DB	04eH
	DB	080H
	DB	07H
	DB	05H
	DB	05H
	DB	05H
	DB	05H
	DB	07H
	DB	0bH
	DB	08dH
	DB	037H
	DB	037H
	DB	09fH
	DB	0ffH
	DB	05cH
	DB	01H
	DB	01H
	DB	01H
	DB	01H
	DB	01H
	DB	01H
	DB	0bH
	DB	05H
	DB	05H
	DB	05H
	DB	05H
	DB	05H
	DB	01bH
	DB	08H
	DB	04H
	DB	04H
	DB	09H
	DB	036H
	DB	07H
	DB	05H
	DB	05H
	DB	05H
	DB	073H
	DB	03dH
	DB	04H
	DB	04H
	DB	02H
	DB	036H
	DB	07H
	DB	0d7H
	DB	050H
	DB	04H
	DB	04H
	DB	0a5H
	DB	033H
	DB	016H
	DB	0dH
	DB	04H
	DB	04H
	DB	075H
	DB	01bH
	DB	05H
	DB	01bH
	DB	03dH
	DB	04H
	DB	04H
	DB	02H
	DB	036H
	DB	07H
	DB	05H
	DB	05H
	DB	05H
	DB	05H
	DB	05H
	DB	05H
	DB	098H
	DB	04H
	DB	04H
	DB	015H
	DB	03H
	DB	010H
	DB	05H
	DB	05H
	DB	025H
	DB	03dH
	DB	04H
	DB	04H
	DB	028H
	DB	033H
	DB	0bH
	DB	08H
	DB	04H
	DB	04H
	DB	031H
	DB	036H
	DB	05H
	DB	0d7H
	DB	03dH
	DB	04H
	DB	04H
	DB	028H
	DB	01bH
	DB	05H
	DB	02fH
	DB	048H
	DB	04H
	DB	015H
	DB	0d2H
	DB	033H
	DB	031H
	DB	04H
	DB	04H
	DB	0fdH
	DB	036H
	DB	016H
	DB	016H
	DB	016H
	DB	016H
	DB	016H
	DB	016H
	DB	016H
	DB	07H
	DB	05H
	DB	05H
	DB	07H
	DB	01bH
	DB	0a5H
	DB	04H
	DB	04H
	DB	052H
	DB	033H
	DB	05H
	DB	05H
	DB	05H
	DB	05H
	DB	05H
	DB	05H
	DB	05H
	DB	05H
	DB	05H
	DB	05H
	DB	05H
	DB	05H
	DB	05H
	DB	05H
	DB	07H
	DB	0bH
	DB	0bH
	DB	0fbH
	DB	05aH
	DB	05eH
	DB	05dH
	DB	056H
	DB	0e2H
	DB	09fH
	DB	020H
	DB	020H
	DB	020H
	DB	04H
	DB	04H
	DB	04H
	DB	020H
	DB	047H
	DB	032H
	DB	07dH
	DB	03fH
	DB	041H
	DB	05aH
	DB	02cH
	DB	065H
	DB	01eH
	DB	0f2H
	DB	04bH
	DB	014H
	DB	014H
	DB	022H
	DB	022H
	DB	038H
	DB	090H
	DB	01cH
	DB	01cH
	DB	01cH
	DB	04eH
	DB	0a4H
	DB	0a6H
	DB	05H
	DB	05H
	DB	05H
	DB	05H
	DB	05H
	DB	07H
	DB	0bH
	DB	08dH
	DB	037H
	DB	037H
	DB	088H
	DB	09fH
	DB	0d9H
	DB	01H
	DB	01H
	DB	01H
	DB	01H
	DB	01H
	DB	01H
	DB	0bH
	DB	05H
	DB	05H
	DB	05H
	DB	05H
	DB	05H
	DB	08cH
	DB	050H
	DB	04H
	DB	04H
	DB	031H
	DB	02aH
	DB	072H
	DB	072H
	DB	072H
	DB	08cH
	DB	08cH
	DB	050H
	DB	04H
	DB	04H
	DB	09H
	DB	0d1H
	DB	08cH
	DB	0f0H
	DB	04H
	DB	04H
	DB	048H
	DB	012H
	DB	010H
	DB	0b1H
	DB	042H
	DB	04H
	DB	04H
	DB	050H
	DB	095H
	DB	072H
	DB	03cH
	DB	04H
	DB	04H
	DB	03dH
	DB	0d1H
	DB	010H
	DB	05H
	DB	05H
	DB	05H
	DB	05H
	DB	05H
	DB	05H
	DB	07H
	DB	031H
	DB	04H
	DB	04H
	DB	0dH
	DB	0d1H
	DB	0bH
	DB	05H
	DB	05H
	DB	072H
	DB	042H
	DB	04H
	DB	042H
	DB	03H
	DB	016H
	DB	0d7H
	DB	050H
	DB	04H
	DB	04H
	DB	02H
	DB	033H
	DB	05H
	DB	02fH
	DB	042H
	DB	04H
	DB	04H
	DB	03H
	DB	010H
	DB	07H
	DB	0aH
	DB	04H
	DB	04H
	DB	03dH
	DB	030H
	DB	016H
	DB	028H
	DB	04H
	DB	04H
	DB	015H
	DB	028H
	DB	01bH
	DB	01bH
	DB	072H
	DB	02fH
	DB	072H
	DB	07H
	DB	016H
	DB	072H
	DB	072H
	DB	01bH
	DB	01bH
	DB	072H
	DB	08H
	DB	04H
	DB	04H
	DB	02H
	DB	01bH
	DB	05H
	DB	05H
	DB	05H
	DB	05H
	DB	05H
	DB	05H
	DB	05H
	DB	05H
	DB	05H
	DB	05H
	DB	05H
	DB	05H
	DB	05H
	DB	05H
	DB	05H
	DB	07H
	DB	0bH
	DB	0dcH
	DB	059H
	DB	01eH
	DB	05dH
	DB	05dH
	DB	029H
	DB	053H
	DB	020H
	DB	020H
	DB	020H
	DB	04H
	DB	04H
	DB	04H
	DB	020H
	DB	047H
	DB	032H
	DB	07dH
	DB	03fH
	DB	041H
	DB	0fcH
	DB	02cH
	DB	065H
	DB	01eH
	DB	04bH
	DB	04bH
	DB	014H
	DB	014H
	DB	022H
	DB	022H
	DB	0e1H
	DB	039H
	DB	039H
	DB	01cH
	DB	09dH
	DB	04aH
	DB	0a4H
	DB	0b4H
	DB	05H
	DB	05H
	DB	05H
	DB	05H
	DB	05H
	DB	05H
	DB	0bH
	DB	0a6H
	DB	037H
	DB	037H
	DB	06fH
	DB	09eH
	DB	03H
	DB	01H
	DB	01H
	DB	01H
	DB	01H
	DB	01H
	DB	01H
	DB	0bH
	DB	05H
	DB	05H
	DB	05H
	DB	05H
	DB	05H
	DB	02fH
	DB	048H
	DB	04H
	DB	04H
	DB	048H
	DB	015H
	DB	042H
	DB	042H
	DB	048H
	DB	0fdH
	DB	01H
	DB	026H
	DB	04H
	DB	04H
	DB	04H
	DB	050H
	DB	017H
	DB	048H
	DB	04H
	DB	04H
	DB	017H
	DB	08aH
	DB	016H
	DB	097H
	DB	04H
	DB	04H
	DB	048H
	DB	04H
	DB	048H
	DB	048H
	DB	04H
	DB	04H
	DB	015H
	DB	095H
	DB	030H
	DB	0bH
	DB	05H
	DB	05H
	DB	05H
	DB	05H
	DB	05H
	DB	05H
	DB	0bH
	DB	08H
	DB	04H
	DB	04H
	DB	052H
	DB	011H
	DB	07H
	DB	05H
	DB	0bH
	DB	028H
	DB	04H
	DB	04H
	DB	0dH
	DB	08aH
	DB	0bH
	DB	02fH
	DB	04H
	DB	04H
	DB	015H
	DB	095H
	DB	010H
	DB	05H
	DB	098H
	DB	04H
	DB	04H
	DB	013H
	DB	0d1H
	DB	0bH
	DB	0bH
	DB	03cH
	DB	04H
	DB	04H
	DB	0fdH
	DB	030H
	DB	07H
	DB	08cH
	DB	03dH
	DB	04H
	DB	04H
	DB	04H
	DB	0dH
	DB	03dH
	DB	042H
	DB	04H
	DB	052H
	DB	0bH
	DB	0d8H
	DB	050H
	DB	015H
	DB	03dH
	DB	03dH
	DB	048H
	DB	04H
	DB	04H
	DB	09H
	DB	011H
	DB	033H
	DB	05H
	DB	05H
	DB	05H
	DB	05H
	DB	05H
	DB	05H
	DB	05H
	DB	05H
	DB	05H
	DB	05H
	DB	05H
	DB	05H
	DB	05H
	DB	05H
	DB	05H
	DB	07H
	DB	07H
	DB	0bH
	DB	055H
	DB	01eH
	DB	04bH
	DB	061H
	DB	061H
	DB	04cH
	DB	047H
	DB	020H
	DB	020H
	DB	04H
	DB	04H
	DB	04H
	DB	020H
	DB	047H
	DB	032H
	DB	07dH
	DB	03fH
	DB	041H
	DB	0fcH
	DB	02cH
	DB	065H
	DB	01eH
	DB	04bH
	DB	04bH
	DB	014H
	DB	014H
	DB	022H
	DB	022H
	DB	02eH
	DB	039H
	DB	039H
	DB	01cH
	DB	09dH
	DB	039H
	DB	0a4H
	DB	06aH
	DB	05H
	DB	05H
	DB	05H
	DB	05H
	DB	05H
	DB	05H
	DB	0bH
	DB	02eH
	DB	037H
	DB	023H
	DB	0baH
	DB	099H
	DB	0d0H
	DB	01H
	DB	01H
	DB	01H
	DB	01H
	DB	01H
	DB	01H
	DB	0bH
	DB	05H
	DB	05H
	DB	05H
	DB	05H
	DB	0bH
	DB	02H
	DB	048H
	DB	048H
	DB	048H
	DB	048H
	DB	048H
	DB	048H
	DB	048H
	DB	04H
	DB	0fdH
	DB	01bH
	DB	0d9H
	DB	03dH
	DB	048H
	DB	048H
	DB	015H
	DB	09H
	DB	0a5H
	DB	042H
	DB	04H
	DB	08H
	DB	036H
	DB	016H
	DB	09aH
	DB	04H
	DB	04H
	DB	026H
	DB	028H
	DB	050H
	DB	048H
	DB	048H
	DB	0dH
	DB	0d4H
	DB	030H
	DB	033H
	DB	05H
	DB	05H
	DB	05H
	DB	05H
	DB	05H
	DB	05H
	DB	05H
	DB	016H
	DB	03dH
	DB	04H
	DB	04H
	DB	0aH
	DB	036H
	DB	05H
	DB	05H
	DB	016H
	DB	0a5H
	DB	04H
	DB	04H
	DB	0fdH
	DB	030H
	DB	0bH
	DB	098H
	DB	048H
	DB	04H
	DB	0dH
	DB	02aH
	DB	0bH
	DB	07H
	DB	0aH
	DB	048H
	DB	04H
	DB	052H
	DB	030H
	DB	07H
	DB	016H
	DB	08H
	DB	048H
	DB	04H
	DB	0a5H
	DB	036H
	DB	05H
	DB	0bH
	DB	07fH
	DB	0fdH
	DB	013H
	DB	048H
	DB	04H
	DB	048H
	DB	017H
	DB	052H
	DB	03H
	DB	010H
	DB	0bcH
	DB	03dH
	DB	048H
	DB	04H
	DB	04H
	DB	042H
	DB	0dH
	DB	028H
	DB	030H
	DB	036H
	DB	0bH
	DB	05H
	DB	05H
	DB	05H
	DB	05H
	DB	05H
	DB	05H
	DB	05H
	DB	05H
	DB	05H
	DB	05H
	DB	05H
	DB	05H
	DB	05H
	DB	05H
	DB	05H
	DB	05H
	DB	07H
	DB	0bH
	DB	0bH
	DB	0b4H
	DB	0f7H
	DB	014H
	DB	046H
	DB	01cH
	DB	032H
	DB	020H
	DB	020H
	DB	04H
	DB	04H
	DB	04H
	DB	020H
	DB	047H
	DB	032H
	DB	07dH
	DB	03fH
	DB	041H
	DB	0fcH
	DB	02cH
	DB	065H
	DB	01eH
	DB	04bH
	DB	04bH
	DB	014H
	DB	014H
	DB	022H
	DB	022H
	DB	090H
	DB	039H
	DB	039H
	DB	01cH
	DB	01cH
	DB	039H
	DB	0a4H
	DB	0ddH
	DB	05H
	DB	05H
	DB	05H
	DB	05H
	DB	05H
	DB	07H
	DB	0bH
	DB	06dH
	DB	037H
	DB	0b9H
	DB	0c7H
	DB	0b0H
	DB	01H
	DB	01H
	DB	01H
	DB	01H
	DB	01H
	DB	01H
	DB	01H
	DB	0bH
	DB	05H
	DB	05H
	DB	05H
	DB	05H
	DB	0bH
	DB	019H
	DB	097H
	DB	02H
	DB	02H
	DB	02H
	DB	02H
	DB	02H
	DB	02H
	DB	02H
	DB	069H
	DB	01bH
	DB	0bH
	DB	01bH
	DB	0d3H
	DB	0d4H
	DB	0d2H
	DB	030H
	DB	040H
	DB	0d9H
	DB	02H
	DB	03H
	DB	036H
	DB	016H
	DB	03cH
	DB	04H
	DB	04H
	DB	09H
	DB	030H
	DB	08aH
	DB	0d4H
	DB	012H
	DB	0d1H
	DB	030H
	DB	01bH
	DB	07H
	DB	05H
	DB	05H
	DB	05H
	DB	05H
	DB	05H
	DB	05H
	DB	05H
	DB	010H
	DB	0d9H
	DB	0d9H
	DB	02H
	DB	0d0H
	DB	033H
	DB	05H
	DB	05H
	DB	0bH
	DB	07fH
	DB	097H
	DB	02H
	DB	0d2H
	DB	01bH
	DB	07H
	DB	0d8H
	DB	0d9H
	DB	02H
	DB	03H
	DB	030H
	DB	07H
	DB	07H
	DB	07fH
	DB	097H
	DB	02H
	DB	03H
	DB	036H
	DB	05H
	DB	016H
	DB	0d9H
	DB	0d9H
	DB	02H
	DB	0d1H
	DB	033H
	DB	05H
	DB	05H
	DB	05H
	DB	010H
	DB	0d2H
	DB	0d4H
	DB	02H
	DB	095H
	DB	040H
	DB	030H
	DB	030H
	DB	033H
	DB	0bH
	DB	025H
	DB	012H
	DB	02H
	DB	02H
	DB	0d2H
	DB	030H
	DB	030H
	DB	036H
	DB	016H
	DB	05H
	DB	05H
	DB	05H
	DB	05H
	DB	05H
	DB	05H
	DB	05H
	DB	05H
	DB	05H
	DB	05H
	DB	05H
	DB	05H
	DB	05H
	DB	05H
	DB	05H
	DB	05H
	DB	05H
	DB	05H
	DB	07H
	DB	0bH
	DB	0bH
	DB	081H
	DB	01eH
	DB	022H
	DB	038H
	DB	09fH
	DB	020H
	DB	020H
	DB	020H
	DB	04H
	DB	04H
	DB	04H
	DB	020H
	DB	032H
	DB	024H
	DB	03fH
	DB	041H
	DB	0fcH
	DB	02cH
	DB	065H
	DB	01eH
	DB	04bH
	DB	04bH
	DB	014H
	DB	014H
	DB	022H
	DB	02eH
	DB	039H
	DB	039H
	DB	039H
	DB	01cH
	DB	01cH
	DB	039H
	DB	038H
	DB	07H
	DB	05H
	DB	05H
	DB	05H
	DB	05H
	DB	05H
	DB	07H
	DB	0eaH
	DB	06eH
	DB	037H
	DB	053H
	DB	063H
	DB	027H
	DB	01H
	DB	01H
	DB	01H
	DB	01H
	DB	01H
	DB	01H
	DB	01H
	DB	0bH
	DB	05H
	DB	05H
	DB	05H
	DB	05H
	DB	05H
	DB	05H
	DB	07H
	DB	01bH
	DB	01bH
	DB	01bH
	DB	01bH
	DB	01bH
	DB	01bH
	DB	01bH
	DB	01bH
	DB	010H
	DB	05H
	DB	05H
	DB	016H
	DB	033H
	DB	01bH
	DB	010H
	DB	0bH
	DB	07H
	DB	033H
	DB	01bH
	DB	016H
	DB	016H
	DB	0dH
	DB	04H
	DB	04H
	DB	0aH
	DB	01bH
	DB	07H
	DB	016H
	DB	01bH
	DB	033H
	DB	010H
	DB	07H
	DB	05H
	DB	05H
	DB	05H
	DB	05H
	DB	05H
	DB	05H
	DB	05H
	DB	05H
	DB	05H
	DB	05H
	DB	010H
	DB	01bH
	DB	01bH
	DB	016H
	DB	05H
	DB	05H
	DB	05H
	DB	05H
	DB	0bH
	DB	01bH
	DB	01bH
	DB	016H
	DB	05H
	DB	05H
	DB	07H
	DB	01bH
	DB	01bH
	DB	033H
	DB	07H
	DB	05H
	DB	05H
	DB	0bH
	DB	01bH
	DB	01bH
	DB	010H
	DB	05H
	DB	05H
	DB	05H
	DB	016H
	DB	01bH
	DB	01bH
	DB	0bH
	DB	05H
	DB	05H
	DB	05H
	DB	05H
	DB	0bH
	DB	010H
	DB	01bH
	DB	01bH
	DB	033H
	DB	010H
	DB	0bH
	DB	07H
	DB	05H
	DB	05H
	DB	016H
	DB	033H
	DB	01bH
	DB	01bH
	DB	033H
	DB	016H
	DB	07H
	DB	05H
	DB	05H
	DB	05H
	DB	05H
	DB	05H
	DB	05H
	DB	05H
	DB	05H
	DB	05H
	DB	05H
	DB	05H
	DB	05H
	DB	05H
	DB	05H
	DB	05H
	DB	05H
	DB	05H
	DB	05H
	DB	05H
	DB	07H
	DB	07H
	DB	0bH
	DB	016H
	DB	077H
	DB	0f2H
	DB	022H
	DB	07cH
	DB	047H
	DB	020H
	DB	020H
	DB	04H
	DB	04H
	DB	020H
	DB	020H
	DB	032H
	DB	024H
	DB	03fH
	DB	05aH
	DB	0fcH
	DB	02cH
	DB	065H
	DB	01eH
	DB	04bH
	DB	04bH
	DB	014H
	DB	014H
	DB	022H
	DB	039H
	DB	039H
	DB	039H
	DB	039H
	DB	01cH
	DB	09dH
	DB	039H
	DB	0e2H
	DB	05H
	DB	05H
	DB	05H
	DB	05H
	DB	05H
	DB	05H
	DB	07H
	DB	0b7H
	DB	023H
	DB	023H
	DB	0c7H
	DB	0b0H
	DB	01H
	DB	01H
	DB	01H
	DB	01H
	DB	01H
	DB	01H
	DB	01H
	DB	01H
	DB	0bH
	DB	05H
	DB	05H
	DB	05H
	DB	05H
	DB	05H
	DB	05H
	DB	05H
	DB	05H
	DB	05H
	DB	05H
	DB	05H
	DB	05H
	DB	05H
	DB	05H
	DB	07H
	DB	05H
	DB	05H
	DB	05H
	DB	05H
	DB	05H
	DB	07H
	DB	05H
	DB	05H
	DB	05H
	DB	05H
	DB	07H
	DB	05H
	DB	073H
	DB	042H
	DB	04H
	DB	04H
	DB	02H
	DB	010H
	DB	05H
	DB	05H
	DB	05H
	DB	05H
	DB	05H
	DB	05H
	DB	05H
	DB	05H
	DB	05H
	DB	05H
	DB	05H
	DB	05H
	DB	05H
	DB	05H
	DB	05H
	DB	05H
	DB	05H
	DB	05H
	DB	07H
	DB	05H
	DB	05H
	DB	05H
	DB	05H
	DB	05H
	DB	05H
	DB	07H
	DB	07H
	DB	05H
	DB	05H
	DB	05H
	DB	05H
	DB	07H
	DB	05H
	DB	05H
	DB	05H
	DB	05H
	DB	05H
	DB	05H
	DB	05H
	DB	07H
	DB	05H
	DB	05H
	DB	05H
	DB	05H
	DB	05H
	DB	05H
	DB	07H
	DB	05H
	DB	05H
	DB	05H
	DB	05H
	DB	05H
	DB	05H
	DB	05H
	DB	05H
	DB	07H
	DB	05H
	DB	05H
	DB	05H
	DB	05H
	DB	05H
	DB	05H
	DB	05H
	DB	05H
	DB	05H
	DB	07H
	DB	05H
	DB	05H
	DB	05H
	DB	05H
	DB	05H
	DB	05H
	DB	05H
	DB	05H
	DB	05H
	DB	05H
	DB	05H
	DB	05H
	DB	05H
	DB	05H
	DB	05H
	DB	05H
	DB	05H
	DB	05H
	DB	05H
	DB	05H
	DB	05H
	DB	05H
	DB	05H
	DB	07H
	DB	07H
	DB	0bH
	DB	016H
	DB	022H
	DB	0f1H
	DB	082H
	DB	035H
	DB	020H
	DB	020H
	DB	04H
	DB	04H
	DB	020H
	DB	020H
	DB	032H
	DB	024H
	DB	03fH
	DB	05aH
	DB	0fcH
	DB	065H
	DB	065H
	DB	01eH
	DB	04bH
	DB	04bH
	DB	014H
	DB	014H
	DB	039H
	DB	01cH
	DB	039H
	DB	039H
	DB	039H
	DB	01cH
	DB	09dH
	DB	04aH
	DB	06aH
	DB	05H
	DB	05H
	DB	05H
	DB	05H
	DB	05H
	DB	07H
	DB	0eeH
	DB	041H
	DB	023H
	DB	053H
	DB	099H
	DB	06H
	DB	01H
	DB	01H
	DB	01H
	DB	01H
	DB	01H
	DB	01H
	DB	01H
	DB	01H
	DB	0bH
	DB	05H
	DB	05H
	DB	05H
	DB	05H
	DB	05H
	DB	05H
	DB	05H
	DB	05H
	DB	05H
	DB	05H
	DB	05H
	DB	05H
	DB	05H
	DB	05H
	DB	05H
	DB	05H
	DB	05H
	DB	05H
	DB	05H
	DB	05H
	DB	05H
	DB	05H
	DB	05H
	DB	05H
	DB	05H
	DB	05H
	DB	05H
	DB	0dcH
	DB	09H
	DB	09H
	DB	031H
	DB	0d1H
	DB	016H
	DB	05H
	DB	05H
	DB	05H
	DB	05H
	DB	05H
	DB	05H
	DB	05H
	DB	05H
	DB	05H
	DB	05H
	DB	05H
	DB	05H
	DB	05H
	DB	05H
	DB	05H
	DB	05H
	DB	05H
	DB	05H
	DB	05H
	DB	05H
	DB	05H
	DB	05H
	DB	05H
	DB	05H
	DB	05H
	DB	05H
	DB	05H
	DB	05H
	DB	05H
	DB	05H
	DB	05H
	DB	05H
	DB	05H
	DB	05H
	DB	05H
	DB	05H
	DB	05H
	DB	05H
	DB	05H
	DB	05H
	DB	05H
	DB	05H
	DB	05H
	DB	05H
	DB	05H
	DB	05H
	DB	05H
	DB	05H
	DB	05H
	DB	05H
	DB	05H
	DB	05H
	DB	05H
	DB	05H
	DB	05H
	DB	05H
	DB	05H
	DB	05H
	DB	05H
	DB	05H
	DB	05H
	DB	05H
	DB	05H
	DB	05H
	DB	05H
	DB	05H
	DB	05H
	DB	05H
	DB	05H
	DB	05H
	DB	05H
	DB	05H
	DB	05H
	DB	05H
	DB	05H
	DB	05H
	DB	05H
	DB	05H
	DB	05H
	DB	05H
	DB	05H
	DB	05H
	DB	05H
	DB	05H
	DB	05H
	DB	05H
	DB	05H
	DB	05H
	DB	05H
	DB	05H
	DB	07H
	DB	0bH
	DB	0bH
	DB	016H
	DB	0a7H
	DB	09dH
	DB	024H
	DB	047H
	DB	020H
	DB	04H
	DB	04H
	DB	020H
	DB	047H
	DB	032H
	DB	024H
	DB	067H
	DB	05aH
	DB	0fcH
	DB	065H
	DB	01eH
	DB	01eH
	DB	04bH
	DB	04bH
	DB	014H
	DB	014H
	DB	01cH
	DB	039H
	DB	039H
	DB	039H
	DB	01cH
	DB	01cH
	DB	04aH
	DB	03bH
	DB	0ddH
	DB	05H
	DB	05H
	DB	05H
	DB	05H
	DB	05H
	DB	0eaH
	DB	088H
	DB	0cdH
	DB	041H
	DB	05fH
	DB	071H
	DB	01H
	DB	01H
	DB	01H
	DB	01H
	DB	01H
	DB	01H
	DB	01H
	DB	01H
	DB	01H
	DB	016H
	DB	05H
	DB	05H
	DB	05H
	DB	05H
	DB	05H
	DB	05H
	DB	05H
	DB	05H
	DB	05H
	DB	05H
	DB	05H
	DB	05H
	DB	05H
	DB	05H
	DB	05H
	DB	05H
	DB	05H
	DB	05H
	DB	05H
	DB	05H
	DB	05H
	DB	05H
	DB	05H
	DB	05H
	DB	05H
	DB	05H
	DB	05H
	DB	07H
	DB	0bH
	DB	036H
	DB	030H
	DB	036H
	DB	0bH
	DB	05H
	DB	05H
	DB	05H
	DB	05H
	DB	05H
	DB	05H
	DB	05H
	DB	05H
	DB	05H
	DB	05H
	DB	05H
	DB	05H
	DB	05H
	DB	05H
	DB	05H
	DB	05H
	DB	05H
	DB	05H
	DB	05H
	DB	05H
	DB	05H
	DB	05H
	DB	05H
	DB	05H
	DB	05H
	DB	05H
	DB	05H
	DB	05H
	DB	05H
	DB	05H
	DB	05H
	DB	05H
	DB	05H
	DB	05H
	DB	05H
	DB	05H
	DB	05H
	DB	05H
	DB	05H
	DB	05H
	DB	05H
	DB	05H
	DB	05H
	DB	05H
	DB	05H
	DB	05H
	DB	05H
	DB	05H
	DB	05H
	DB	05H
	DB	05H
	DB	05H
	DB	05H
	DB	05H
	DB	05H
	DB	05H
	DB	05H
	DB	05H
	DB	05H
	DB	05H
	DB	05H
	DB	05H
	DB	05H
	DB	05H
	DB	05H
	DB	05H
	DB	05H
	DB	05H
	DB	05H
	DB	05H
	DB	05H
	DB	05H
	DB	05H
	DB	05H
	DB	05H
	DB	05H
	DB	05H
	DB	05H
	DB	05H
	DB	05H
	DB	05H
	DB	05H
	DB	05H
	DB	05H
	DB	05H
	DB	05H
	DB	05H
	DB	05H
	DB	05H
	DB	05H
	DB	07H
	DB	07H
	DB	0bH
	DB	0bH
	DB	016H
	DB	0e2H
	DB	0baH
	DB	032H
	DB	020H
	DB	04H
	DB	04H
	DB	020H
	DB	047H
	DB	032H
	DB	024H
	DB	041H
	DB	05aH
	DB	02cH
	DB	065H
	DB	01eH
	DB	058H
	DB	04bH
	DB	04bH
	DB	014H
	DB	09dH
	DB	09dH
	DB	039H
	DB	039H
	DB	090H
	DB	02eH
	DB	02eH
	DB	0a8H
	DB	0a7H
	DB	07H
	DB	05H
	DB	05H
	DB	05H
	DB	07H
	DB	0ddH
	DB	06eH
	DB	089H
	DB	089H
	DB	0adH
	DB	044H
	DB	01H
	DB	01H
	DB	01H
	DB	01H
	DB	01H
	DB	01H
	DB	01H
	DB	01H
	DB	01H
	DB	01H
	DB	036H
	DB	07H
	DB	07H
	DB	07H
	DB	07H
	DB	07H
	DB	07H
	DB	07H
	DB	07H
	DB	07H
	DB	07H
	DB	07H
	DB	07H
	DB	07H
	DB	07H
	DB	07H
	DB	07H
	DB	07H
	DB	07H
	DB	07H
	DB	07H
	DB	07H
	DB	07H
	DB	07H
	DB	07H
	DB	07H
	DB	07H
	DB	07H
	DB	07H
	DB	07H
	DB	0bH
	DB	0bH
	DB	0bH
	DB	07H
	DB	07H
	DB	07H
	DB	07H
	DB	07H
	DB	07H
	DB	07H
	DB	07H
	DB	07H
	DB	07H
	DB	07H
	DB	07H
	DB	07H
	DB	07H
	DB	07H
	DB	07H
	DB	07H
	DB	07H
	DB	07H
	DB	07H
	DB	07H
	DB	07H
	DB	07H
	DB	07H
	DB	07H
	DB	07H
	DB	07H
	DB	07H
	DB	07H
	DB	07H
	DB	07H
	DB	07H
	DB	07H
	DB	07H
	DB	07H
	DB	07H
	DB	07H
	DB	07H
	DB	07H
	DB	07H
	DB	07H
	DB	07H
	DB	07H
	DB	07H
	DB	07H
	DB	07H
	DB	07H
	DB	07H
	DB	07H
	DB	07H
	DB	07H
	DB	07H
	DB	07H
	DB	07H
	DB	07H
	DB	07H
	DB	07H
	DB	07H
	DB	07H
	DB	07H
	DB	07H
	DB	07H
	DB	07H
	DB	07H
	DB	07H
	DB	07H
	DB	07H
	DB	07H
	DB	07H
	DB	07H
	DB	07H
	DB	07H
	DB	07H
	DB	07H
	DB	07H
	DB	07H
	DB	07H
	DB	07H
	DB	07H
	DB	07H
	DB	07H
	DB	07H
	DB	07H
	DB	07H
	DB	07H
	DB	07H
	DB	07H
	DB	07H
	DB	07H
	DB	07H
	DB	07H
	DB	07H
	DB	07H
	DB	0bH
	DB	0bH
	DB	016H
	DB	016H
	DB	01cH
	DB	0ceH
	DB	047H
	DB	04H
	DB	020H
	DB	047H
	DB	0bbH
	DB	07dH
	DB	03fH
	DB	041H
	DB	0fcH
	DB	02cH
	DB	065H
	DB	0f7H
	DB	058H
	DB	04bH
	DB	014H
	DB	014H
	DB	09dH
	DB	04aH
	DB	02eH
	DB	02eH
	DB	02eH
	DB	02eH
	DB	02eH
	DB	04aH
	DB	06aH
	DB	07H
	DB	07H
	DB	07H
	DB	0bH
	DB	06aH
	DB	066H
	DB	05aH
	DB	089H
	DB	09fH
	DB	0d9H
	DB	01H
	DB	01H
	DB	01H
	DB	01H
	DB	01H
	DB	01H
	DB	01H
	DB	01H
	DB	01H
	DB	01H
	DB	01H
	DB	01H
	DB	030H
	DB	033H
	DB	010H
	DB	010H
	DB	010H
	DB	010H
	DB	010H
	DB	010H
	DB	010H
	DB	010H
	DB	010H
	DB	010H
	DB	010H
	DB	010H
	DB	010H
	DB	010H
	DB	010H
	DB	010H
	DB	010H
	DB	010H
	DB	010H
	DB	010H
	DB	010H
	DB	010H
	DB	010H
	DB	010H
	DB	010H
	DB	010H
	DB	010H
	DB	010H
	DB	010H
	DB	010H
	DB	010H
	DB	010H
	DB	010H
	DB	010H
	DB	010H
	DB	010H
	DB	010H
	DB	010H
	DB	010H
	DB	010H
	DB	010H
	DB	010H
	DB	010H
	DB	010H
	DB	010H
	DB	010H
	DB	010H
	DB	010H
	DB	010H
	DB	010H
	DB	010H
	DB	010H
	DB	010H
	DB	010H
	DB	010H
	DB	010H
	DB	010H
	DB	010H
	DB	010H
	DB	010H
	DB	010H
	DB	010H
	DB	010H
	DB	010H
	DB	010H
	DB	010H
	DB	010H
	DB	010H
	DB	010H
	DB	010H
	DB	010H
	DB	010H
	DB	010H
	DB	010H
	DB	010H
	DB	010H
	DB	010H
	DB	010H
	DB	010H
	DB	010H
	DB	010H
	DB	010H
	DB	010H
	DB	010H
	DB	010H
	DB	010H
	DB	010H
	DB	010H
	DB	010H
	DB	010H
	DB	010H
	DB	010H
	DB	010H
	DB	010H
	DB	010H
	DB	010H
	DB	010H
	DB	010H
	DB	010H
	DB	010H
	DB	010H
	DB	010H
	DB	010H
	DB	010H
	DB	010H
	DB	010H
	DB	010H
	DB	010H
	DB	010H
	DB	010H
	DB	010H
	DB	010H
	DB	010H
	DB	010H
	DB	010H
	DB	010H
	DB	010H
	DB	010H
	DB	010H
	DB	010H
	DB	010H
	DB	010H
	DB	010H
	DB	033H
	DB	033H
	DB	01bH
	DB	01bH
	DB	02dH
	DB	09fH
	DB	047H
	DB	04H
	DB	020H
	DB	047H
	DB	0bbH
	DB	0a1H
	DB	05aH
	DB	0fcH
	DB	02cH
	DB	01eH
	DB	0c8H
	DB	057H
	DB	078H
	DB	0b5H
	DB	0c0H
	DB	014H
	DB	014H
	DB	02eH
	DB	04aH
	DB	090H
	DB	039H
	DB	01cH
	DB	09dH
	DB	04eH
	DB	033H
	DB	033H
	DB	010H
	DB	0d7H
	DB	08fH
	DB	065H
	DB	0f8H
	DB	05aH
	DB	09eH
	DB	03H
	DB	01H
	DB	01H
	DB	01H
	DB	01H
	DB	01H
	DB	01H
	DB	01H
	DB	01H
	DB	01H
	DB	01H
	DB	01H
	DB	01H
	DB	01H
	DB	01H
	DB	01H
	DB	01H
	DB	01H
	DB	01H
	DB	01H
	DB	01H
	DB	01H
	DB	01H
	DB	01H
	DB	01H
	DB	01H
	DB	01H
	DB	01H
	DB	01H
	DB	01H
	DB	01H
	DB	01H
	DB	01H
	DB	01H
	DB	01H
	DB	01H
	DB	01H
	DB	01H
	DB	01H
	DB	01H
	DB	01H
	DB	01H
	DB	01H
	DB	01H
	DB	01H
	DB	01H
	DB	01H
	DB	01H
	DB	01H
	DB	01H
	DB	01H
	DB	01H
	DB	01H
	DB	01H
	DB	01H
	DB	01H
	DB	01H
	DB	01H
	DB	01H
	DB	01H
	DB	01H
	DB	01H
	DB	01H
	DB	01H
	DB	01H
	DB	01H
	DB	01H
	DB	01H
	DB	01H
	DB	01H
	DB	01H
	DB	01H
	DB	01H
	DB	01H
	DB	01H
	DB	01H
	DB	01H
	DB	01H
	DB	01H
	DB	01H
	DB	01H
	DB	01H
	DB	01H
	DB	01H
	DB	01H
	DB	01H
	DB	01H
	DB	01H
	DB	01H
	DB	01H
	DB	01H
	DB	01H
	DB	01H
	DB	01H
	DB	01H
	DB	01H
	DB	01H
	DB	01H
	DB	01H
	DB	01H
	DB	01H
	DB	01H
	DB	01H
	DB	01H
	DB	01H
	DB	01H
	DB	01H
	DB	01H
	DB	01H
	DB	01H
	DB	01H
	DB	01H
	DB	01H
	DB	01H
	DB	01H
	DB	01H
	DB	01H
	DB	01H
	DB	01H
	DB	01H
	DB	01H
	DB	01H
	DB	01H
	DB	01H
	DB	01H
	DB	01H
	DB	01H
	DB	01H
	DB	01H
	DB	01H
	DB	01H
	DB	01H
	DB	01H
	DB	01H
	DB	01H
	DB	01H
	DB	01H
	DB	01H
	DB	01H
	DB	01H
	DB	01H
	DB	01H
	DB	01H
	DB	01H
	DB	0c1H
	DB	047H
	DB	04H
	DB	020H
	DB	047H
	DB	0bbH
	DB	0a1H
	DB	041H
	DB	02cH
	DB	065H
	DB	0f7H
	DB	0f5H
	DB	057H
	DB	078H
	DB	0b5H
	DB	04bH
	DB	014H
	DB	014H
	DB	01cH
	DB	01cH
	DB	01cH
	DB	063H
	DB	063H
	DB	063H
	DB	071H
	DB	01H
	DB	040H
	DB	045H
	DB	06cH
	DB	0f8H
	DB	0f8H
	DB	0f9H
	DB	09bH
	DB	069H
	DB	01H
	DB	01H
	DB	01H
	DB	01H
	DB	01H
	DB	01H
	DB	01H
	DB	01H
	DB	01H
	DB	01H
	DB	01H
	DB	01H
	DB	01H
	DB	01H
	DB	01H
	DB	0d0H
	DB	03H
	DB	069H
	DB	069H
	DB	069H
	DB	069H
	DB	069H
	DB	069H
	DB	069H
	DB	069H
	DB	069H
	DB	069H
	DB	069H
	DB	069H
	DB	069H
	DB	069H
	DB	069H
	DB	069H
	DB	069H
	DB	069H
	DB	069H
	DB	069H
	DB	069H
	DB	069H
	DB	069H
	DB	069H
	DB	069H
	DB	069H
	DB	069H
	DB	069H
	DB	069H
	DB	069H
	DB	069H
	DB	069H
	DB	069H
	DB	069H
	DB	069H
	DB	069H
	DB	069H
	DB	069H
	DB	069H
	DB	069H
	DB	069H
	DB	069H
	DB	069H
	DB	069H
	DB	069H
	DB	069H
	DB	069H
	DB	069H
	DB	069H
	DB	069H
	DB	069H
	DB	069H
	DB	069H
	DB	069H
	DB	069H
	DB	069H
	DB	069H
	DB	069H
	DB	069H
	DB	069H
	DB	069H
	DB	069H
	DB	069H
	DB	069H
	DB	069H
	DB	069H
	DB	069H
	DB	069H
	DB	069H
	DB	069H
	DB	069H
	DB	069H
	DB	069H
	DB	069H
	DB	069H
	DB	069H
	DB	069H
	DB	069H
	DB	069H
	DB	069H
	DB	069H
	DB	069H
	DB	069H
	DB	069H
	DB	069H
	DB	069H
	DB	069H
	DB	069H
	DB	069H
	DB	069H
	DB	069H
	DB	069H
	DB	069H
	DB	069H
	DB	069H
	DB	069H
	DB	069H
	DB	069H
	DB	069H
	DB	069H
	DB	069H
	DB	069H
	DB	069H
	DB	069H
	DB	069H
	DB	069H
	DB	069H
	DB	069H
	DB	069H
	DB	069H
	DB	069H
	DB	069H
	DB	069H
	DB	069H
	DB	069H
	DB	069H
	DB	069H
	DB	069H
	DB	069H
	DB	069H
	DB	069H
	DB	069H
	DB	069H
	DB	069H
	DB	069H
	DB	06H
	DB	06H
	DB	060H
	DB	0f4H
	DB	04H
	DB	04H
	DB	047H
	DB	0bbH
	DB	0a1H
	DB	0feH
	DB	02cH
	DB	065H
	DB	0f7H
	DB	0f6H
	DB	057H
	DB	0c5H
	DB	04bH
	DB	04bH
	DB	0f1H
	DB	09dH
	DB	09dH
	DB	063H
	DB	04fH
	DB	0f3H
	DB	04cH
	DB	0a4H
	DB	0eH
	DB	08dH
	DB	0aaH
	DB	037H
	DB	037H
	DB	0c9H
	DB	077H
	DB	044H
	DB	06H
	DB	069H
	DB	069H
	DB	01H
	DB	01H
	DB	01H
	DB	01H
	DB	01H
	DB	01H
	DB	01H
	DB	01H
	DB	01H
	DB	01H
	DB	01H
	DB	01H
	DB	01H
	DB	01H
	DB	06H
	DB	02H
	DB	0d4H
	DB	0d4H
	DB	0d4H
	DB	0d4H
	DB	0d4H
	DB	0d4H
	DB	0d4H
	DB	012H
	DB	012H
	DB	02H
	DB	0a5H
	DB	0a5H
	DB	028H
	DB	02H
	DB	02H
	DB	0d4H
	DB	0d4H
	DB	0d4H
	DB	0d4H
	DB	0d4H
	DB	0d4H
	DB	0d4H
	DB	0d4H
	DB	0d4H
	DB	0d4H
	DB	0d4H
	DB	0d4H
	DB	0d4H
	DB	0d4H
	DB	0d4H
	DB	0d4H
	DB	0d4H
	DB	0d4H
	DB	0d4H
	DB	0d4H
	DB	0d4H
	DB	0d4H
	DB	012H
	DB	028H
	DB	0aH
	DB	028H
	DB	012H
	DB	0d4H
	DB	0d4H
	DB	0d4H
	DB	0d4H
	DB	0d4H
	DB	0d4H
	DB	0d4H
	DB	0d4H
	DB	0d4H
	DB	0d4H
	DB	0d4H
	DB	0d4H
	DB	0d4H
	DB	0d4H
	DB	0d4H
	DB	0d4H
	DB	0d4H
	DB	0d4H
	DB	0d4H
	DB	0d4H
	DB	0d4H
	DB	0d4H
	DB	0d4H
	DB	0d4H
	DB	0d3H
	DB	0d4H
	DB	0a5H
	DB	0a5H
	DB	02H
	DB	0d3H
	DB	0d4H
	DB	0d4H
	DB	0d4H
	DB	0d4H
	DB	0d4H
	DB	0d4H
	DB	0d4H
	DB	0d4H
	DB	0d4H
	DB	0d4H
	DB	0d4H
	DB	0d4H
	DB	0d4H
	DB	0d4H
	DB	0d4H
	DB	0d4H
	DB	0d4H
	DB	0d4H
	DB	012H
	DB	02H
	DB	028H
	DB	0a5H
	DB	028H
	DB	02H
	DB	012H
	DB	0d4H
	DB	0d4H
	DB	0d4H
	DB	0d4H
	DB	0d4H
	DB	0d4H
	DB	0d4H
	DB	0d4H
	DB	0d4H
	DB	0d4H
	DB	0d4H
	DB	0d4H
	DB	0d4H
	DB	0d4H
	DB	0d4H
	DB	0d4H
	DB	0d4H
	DB	0d4H
	DB	0d4H
	DB	012H
	DB	028H
	DB	0a5H
	DB	028H
	DB	0d3H
	DB	0d3H
	DB	028H
	DB	0a5H
	DB	02H
	DB	012H
	DB	03H
	DB	03H
	DB	044H
	DB	09fH
	DB	04H
	DB	047H
	DB	0bbH
	DB	0a1H
	DB	0a0H
	DB	0fcH
	DB	065H
	DB	0f7H
	DB	0f5H
	DB	057H
	DB	058H
	DB	04bH
	DB	04bH
	DB	06cH
	DB	06dH
	DB	064H
	DB	04cH
	DB	05fH
	DB	063H
	DB	02eH
	DB	02eH
	DB	066H
	DB	037H
	DB	037H
	DB	0f8H
	DB	04bH
	DB	074H
	DB	095H
	DB	03H
	DB	012H
	DB	0d4H
	DB	03H
	DB	01H
	DB	01H
	DB	01H
	DB	01H
	DB	01H
	DB	01H
	DB	01H
	DB	01H
	DB	01H
	DB	01H
	DB	01H
	DB	01H
	DB	01H
	DB	01H
	DB	06H
	DB	02H
	DB	02H
	DB	02H
	DB	02H
	DB	02H
	DB	02H
	DB	02H
	DB	02H
	DB	02H
	DB	0f0H
	DB	08H
	DB	026H
	DB	026H
	DB	026H
	DB	08H
	DB	012H
	DB	012H
	DB	02H
	DB	02H
	DB	02H
	DB	02H
	DB	02H
	DB	02H
	DB	02H
	DB	02H
	DB	02H
	DB	02H
	DB	02H
	DB	02H
	DB	02H
	DB	02H
	DB	02H
	DB	02H
	DB	02H
	DB	02H
	DB	02H
	DB	02H
	DB	02H
	DB	0d3H
	DB	09H
	DB	050H
	DB	0f0H
	DB	069H
	DB	02H
	DB	02H
	DB	02H
	DB	02H
	DB	02H
	DB	02H
	DB	02H
	DB	02H
	DB	02H
	DB	02H
	DB	02H
	DB	02H
	DB	02H
	DB	02H
	DB	02H
	DB	02H
	DB	02H
	DB	02H
	DB	02H
	DB	02H
	DB	02H
	DB	02H
	DB	02H
	DB	0d4H
	DB	02H
	DB	09H
	DB	026H
	DB	026H
	DB	028H
	DB	03H
	DB	02H
	DB	02H
	DB	02H
	DB	02H
	DB	02H
	DB	02H
	DB	02H
	DB	02H
	DB	02H
	DB	02H
	DB	02H
	DB	02H
	DB	02H
	DB	02H
	DB	02H
	DB	02H
	DB	02H
	DB	0d4H
	DB	0a5H
	DB	052H
	DB	026H
	DB	026H
	DB	026H
	DB	052H
	DB	028H
	DB	012H
	DB	02H
	DB	02H
	DB	02H
	DB	02H
	DB	02H
	DB	02H
	DB	02H
	DB	02H
	DB	02H
	DB	02H
	DB	02H
	DB	02H
	DB	02H
	DB	02H
	DB	02H
	DB	02H
	DB	02H
	DB	02H
	DB	012H
	DB	031H
	DB	0dH
	DB	09H
	DB	069H
	DB	0d4H
	DB	08H
	DB	0dH
	DB	0a5H
	DB	03H
	DB	012H
	DB	028H
	DB	031H
	DB	09aH
	DB	0adH
	DB	020H
	DB	0bbH
	DB	0a1H
	DB	0a0H
	DB	023H
	DB	065H
	DB	01eH
	DB	0f7H
	DB	0f7H
	DB	058H
	DB	04bH
	DB	06cH
	DB	06dH
	DB	082H
	DB	04cH
	DB	05fH
	DB	063H
	DB	07aH
	DB	049H
	DB	037H
	DB	037H
	DB	049H
	DB	014H
	DB	074H
	DB	095H
	DB	012H
	DB	012H
	DB	0d3H
	DB	02H
	DB	02H
	DB	03H
	DB	01H
	DB	01H
	DB	01H
	DB	01H
	DB	01H
	DB	01H
	DB	01H
	DB	01H
	DB	01H
	DB	01H
	DB	01H
	DB	01H
	DB	01H
	DB	01H
	DB	06H
	DB	02H
	DB	02H
	DB	02H
	DB	02H
	DB	02H
	DB	02H
	DB	02H
	DB	0d4H
	DB	031H
	DB	0dH
	DB	03cH
	DB	028H
	DB	02H
	DB	0a5H
	DB	0a5H
	DB	06H
	DB	012H
	DB	02H
	DB	0d3H
	DB	012H
	DB	012H
	DB	012H
	DB	0d4H
	DB	02H
	DB	02H
	DB	02H
	DB	0d3H
	DB	012H
	DB	012H
	DB	012H
	DB	02H
	DB	02H
	DB	02H
	DB	0d3H
	DB	012H
	DB	012H
	DB	0d3H
	DB	02H
	DB	02H
	DB	0a5H
	DB	0aH
	DB	02H
	DB	06H
	DB	02H
	DB	02H
	DB	0d3H
	DB	012H
	DB	012H
	DB	012H
	DB	0d4H
	DB	02H
	DB	02H
	DB	02H
	DB	012H
	DB	0d3H
	DB	02H
	DB	0d3H
	DB	012H
	DB	012H
	DB	0d4H
	DB	02H
	DB	02H
	DB	02H
	DB	02H
	DB	02H
	DB	02H
	DB	028H
	DB	03cH
	DB	026H
	DB	026H
	DB	08H
	DB	02H
	DB	069H
	DB	02H
	DB	02H
	DB	02H
	DB	02H
	DB	02H
	DB	02H
	DB	02H
	DB	02H
	DB	02H
	DB	02H
	DB	02H
	DB	02H
	DB	02H
	DB	02H
	DB	02H
	DB	02H
	DB	0d4H
	DB	028H
	DB	08H
	DB	08H
	DB	028H
	DB	012H
	DB	0aH
	DB	026H
	DB	03cH
	DB	03H
	DB	0d4H
	DB	02H
	DB	012H
	DB	0d4H
	DB	02H
	DB	02H
	DB	0d4H
	DB	012H
	DB	0d4H
	DB	02H
	DB	02H
	DB	0d4H
	DB	0d3H
	DB	012H
	DB	012H
	DB	012H
	DB	0d4H
	DB	02H
	DB	012H
	DB	031H
	DB	0dH
	DB	09H
	DB	01fH
	DB	0d4H
	DB	0aH
	DB	0aH
	DB	03H
	DB	069H
	DB	0d4H
	DB	09H
	DB	09H
	DB	012H
	DB	019H
	DB	07cH
	DB	0bbH
	DB	0a1H
	DB	0a0H
	DB	05aH
	DB	02cH
	DB	065H
	DB	01eH
	DB	0acH
	DB	058H
	DB	0f2H
	DB	06dH
	DB	082H
	DB	07bH
	DB	0c7H
	DB	064H
	DB	049H
	DB	037H
	DB	049H
	DB	0efH
	DB	022H
	DB	074H
	DB	095H
	DB	03H
	DB	012H
	DB	012H
	DB	0d4H
	DB	02H
	DB	02H
	DB	02H
	DB	03H
	DB	01H
	DB	01H
	DB	01H
	DB	01H
	DB	01H
	DB	01H
	DB	01H
	DB	01H
	DB	01H
	DB	01H
	DB	01H
	DB	01H
	DB	01H
	DB	01H
	DB	06H
	DB	02H
	DB	02H
	DB	02H
	DB	02H
	DB	02H
	DB	02H
	DB	02H
	DB	02H
	DB	03cH
	DB	0dH
	DB	0a5H
	DB	01H
	DB	012H
	DB	012H
	DB	012H
	DB	012H
	DB	0d4H
	DB	02H
	DB	0aH
	DB	09H
	DB	052H
	DB	09H
	DB	0a5H
	DB	0d3H
	DB	02H
	DB	02H
	DB	0aH
	DB	03cH
	DB	052H
	DB	03cH
	DB	0a5H
	DB	012H
	DB	02H
	DB	031H
	DB	03cH
	DB	052H
	DB	09H
	DB	02H
	DB	012H
	DB	031H
	DB	03cH
	DB	0aH
	DB	03H
	DB	02H
	DB	02H
	DB	0aH
	DB	03cH
	DB	052H
	DB	09H
	DB	0aH
	DB	02H
	DB	02H
	DB	02H
	DB	09H
	DB	09H
	DB	028H
	DB	0aH
	DB	03cH
	DB	03cH
	DB	0a5H
	DB	0d3H
	DB	02H
	DB	02H
	DB	02H
	DB	02H
	DB	0d4H
	DB	09H
	DB	0dH
	DB	052H
	DB	08H
	DB	026H
	DB	02H
	DB	0d2H
	DB	02H
	DB	02H
	DB	02H
	DB	02H
	DB	02H
	DB	02H
	DB	02H
	DB	02H
	DB	02H
	DB	02H
	DB	02H
	DB	02H
	DB	02H
	DB	02H
	DB	02H
	DB	02H
	DB	0d3H
	DB	0f0H
	DB	0dH
	DB	031H
	DB	01fH
	DB	03H
	DB	012H
	DB	03cH
	DB	0dH
	DB	0a5H
	DB	069H
	DB	0aH
	DB	052H
	DB	0f0H
	DB	012H
	DB	0d4H
	DB	0aH
	DB	052H
	DB	031H
	DB	012H
	DB	0d4H
	DB	028H
	DB	0f0H
	DB	03cH
	DB	03cH
	DB	09H
	DB	028H
	DB	0d3H
	DB	012H
	DB	031H
	DB	0dH
	DB	09H
	DB	0d0H
	DB	0d4H
	DB	09H
	DB	09H
	DB	02H
	DB	02H
	DB	03cH
	DB	052H
	DB	09H
	DB	0aH
	DB	0a5H
	DB	05cH
	DB	0f3H
	DB	089H
	DB	0a1H
	DB	0a0H
	DB	023H
	DB	065H
	DB	0f7H
	DB	0acH
	DB	058H
	DB	01eH
	DB	059H
	DB	083H
	DB	093H
	DB	0c7H
	DB	0a3H
	DB	0a3H
	DB	074H
	DB	044H
	DB	095H
	DB	03H
	DB	03H
	DB	012H
	DB	012H
	DB	0d3H
	DB	0d4H
	DB	02H
	DB	02H
	DB	02H
	DB	02H
	DB	03H
	DB	01H
	DB	01H
	DB	01H
	DB	01H
	DB	01H
	DB	01H
	DB	01H
	DB	01H
	DB	01H
	DB	01H
	DB	01H
	DB	01H
	DB	01H
	DB	01H
	DB	06H
	DB	02H
	DB	02H
	DB	02H
	DB	02H
	DB	02H
	DB	02H
	DB	02H
	DB	02H
	DB	09H
	DB	026H
	DB	03cH
	DB	028H
	DB	02H
	DB	0d4H
	DB	02H
	DB	02H
	DB	0d4H
	DB	031H
	DB	026H
	DB	03cH
	DB	0aH
	DB	052H
	DB	026H
	DB	0a5H
	DB	03H
	DB	0aH
	DB	026H
	DB	09H
	DB	0aH
	DB	0f0H
	DB	028H
	DB	069H
	DB	09H
	DB	026H
	DB	0f0H
	DB	0aH
	DB	09H
	DB	0d4H
	DB	069H
	DB	09H
	DB	0dH
	DB	031H
	DB	0d0H
	DB	02H
	DB	09H
	DB	026H
	DB	052H
	DB	09H
	DB	08H
	DB	026H
	DB	0aH
	DB	012H
	DB	02H
	DB	08H
	DB	08H
	DB	03cH
	DB	08H
	DB	08H
	DB	026H
	DB	052H
	DB	03H
	DB	012H
	DB	02H
	DB	02H
	DB	02H
	DB	0d4H
	DB	028H
	DB	0f0H
	DB	03H
	DB	03cH
	DB	026H
	DB	02H
	DB	0d2H
	DB	02H
	DB	02H
	DB	02H
	DB	02H
	DB	02H
	DB	02H
	DB	02H
	DB	02H
	DB	0d4H
	DB	0d4H
	DB	0d4H
	DB	0d4H
	DB	02H
	DB	02H
	DB	02H
	DB	02H
	DB	0d4H
	DB	03cH
	DB	026H
	DB	0a5H
	DB	0d0H
	DB	02H
	DB	0d3H
	DB	0f0H
	DB	0dH
	DB	031H
	DB	0d0H
	DB	031H
	DB	0dH
	DB	09H
	DB	01fH
	DB	012H
	DB	0f0H
	DB	0dH
	DB	0f0H
	DB	06H
	DB	012H
	DB	031H
	DB	052H
	DB	031H
	DB	09H
	DB	026H
	DB	08H
	DB	0d4H
	DB	012H
	DB	031H
	DB	0dH
	DB	09H
	DB	0d0H
	DB	0d4H
	DB	08H
	DB	0dH
	DB	028H
	DB	03H
	DB	03cH
	DB	08H
	DB	052H
	DB	031H
	DB	028H
	DB	0aH
	DB	0aH
	DB	0a9H
	DB	0b9H
	DB	0a0H
	DB	05aH
	DB	065H
	DB	0f7H
	DB	0acH
	DB	01eH
	DB	01eH
	DB	083H
	DB	092H
	DB	04cH
	DB	0b0H
	DB	03H
	DB	03H
	DB	03H
	DB	03H
	DB	012H
	DB	012H
	DB	012H
	DB	0d3H
	DB	0d4H
	DB	02H
	DB	02H
	DB	02H
	DB	02H
	DB	02H
	DB	02H
	DB	03H
	DB	01H
	DB	01H
	DB	01H
	DB	01H
	DB	01H
	DB	01H
	DB	01H
	DB	01H
	DB	01H
	DB	01H
	DB	01H
	DB	01H
	DB	01H
	DB	01H
	DB	06H
	DB	02H
	DB	02H
	DB	02H
	DB	02H
	DB	02H
	DB	02H
	DB	02H
	DB	0d4H
	DB	0a5H
	DB	08H
	DB	026H
	DB	026H
	DB	052H
	DB	031H
	DB	02H
	DB	0d3H
	DB	028H
	DB	08H
	DB	08H
	DB	069H
	DB	0d0H
	DB	028H
	DB	026H
	DB	03cH
	DB	03H
	DB	09H
	DB	026H
	DB	012H
	DB	0d0H
	DB	012H
	DB	012H
	DB	012H
	DB	08H
	DB	052H
	DB	06H
	DB	069H
	DB	012H
	DB	012H
	DB	03H
	DB	09H
	DB	0dH
	DB	031H
	DB	01fH
	DB	0aH
	DB	026H
	DB	052H
	DB	03H
	DB	06H
	DB	028H
	DB	08H
	DB	08H
	DB	012H
	DB	012H
	DB	08H
	DB	026H
	DB	0aH
	DB	06H
	DB	02H
	DB	08H
	DB	026H
	DB	012H
	DB	03H
	DB	02H
	DB	02H
	DB	02H
	DB	02H
	DB	02H
	DB	0d3H
	DB	012H
	DB	052H
	DB	026H
	DB	02H
	DB	0d2H
	DB	02H
	DB	02H
	DB	02H
	DB	02H
	DB	02H
	DB	02H
	DB	02H
	DB	02H
	DB	028H
	DB	028H
	DB	028H
	DB	028H
	DB	02H
	DB	02H
	DB	02H
	DB	02H
	DB	02H
	DB	08H
	DB	026H
	DB	028H
	DB	06H
	DB	02H
	DB	0d3H
	DB	031H
	DB	026H
	DB	09H
	DB	06H
	DB	0aH
	DB	0dH
	DB	09H
	DB	0d0H
	DB	0d3H
	DB	031H
	DB	0dH
	DB	031H
	DB	06H
	DB	0d3H
	DB	02H
	DB	02H
	DB	012H
	DB	012H
	DB	09H
	DB	0dH
	DB	0a5H
	DB	06H
	DB	031H
	DB	0dH
	DB	09H
	DB	0d0H
	DB	0d4H
	DB	052H
	DB	026H
	DB	028H
	DB	06H
	DB	028H
	DB	08H
	DB	08H
	DB	012H
	DB	06H
	DB	0aH
	DB	0f0H
	DB	02H
	DB	0afH
	DB	082H
	DB	037H
	DB	065H
	DB	0f7H
	DB	0f7H
	DB	01eH
	DB	059H
	DB	083H
	DB	099H
	DB	0d9H
	DB	03H
	DB	012H
	DB	012H
	DB	012H
	DB	012H
	DB	012H
	DB	0d4H
	DB	0d4H
	DB	02H
	DB	02H
	DB	02H
	DB	02H
	DB	02H
	DB	02H
	DB	02H
	DB	02H
	DB	03H
	DB	01H
	DB	01H
	DB	01H
	DB	01H
	DB	01H
	DB	01H
	DB	01H
	DB	01H
	DB	01H
	DB	01H
	DB	01H
	DB	01H
	DB	01H
	DB	01H
	DB	06H
	DB	02H
	DB	02H
	DB	02H
	DB	02H
	DB	02H
	DB	02H
	DB	02H
	DB	02H
	DB	0d4H
	DB	0a5H
	DB	03cH
	DB	08H
	DB	026H
	DB	026H
	DB	09H
	DB	012H
	DB	0aH
	DB	026H
	DB	052H
	DB	02H
	DB	0a5H
	DB	0aH
	DB	08H
	DB	026H
	DB	012H
	DB	0aH
	DB	0dH
	DB	03cH
	DB	0f0H
	DB	0a5H
	DB	02H
	DB	02H
	DB	03cH
	DB	026H
	DB	03cH
	DB	031H
	DB	028H
	DB	02H
	DB	0d4H
	DB	09H
	DB	0dH
	DB	031H
	DB	01fH
	DB	09H
	DB	0dH
	DB	0aH
	DB	0d0H
	DB	012H
	DB	02H
	DB	03cH
	DB	0dH
	DB	028H
	DB	03H
	DB	08H
	DB	026H
	DB	012H
	DB	06H
	DB	028H
	DB	08H
	DB	026H
	DB	03H
	DB	03H
	DB	02H
	DB	02H
	DB	02H
	DB	02H
	DB	02H
	DB	0d4H
	DB	02H
	DB	052H
	DB	026H
	DB	02H
	DB	0d2H
	DB	02H
	DB	02H
	DB	02H
	DB	02H
	DB	02H
	DB	02H
	DB	02H
	DB	0d3H
	DB	03cH
	DB	026H
	DB	08H
	DB	026H
	DB	0a5H
	DB	03H
	DB	02H
	DB	02H
	DB	02H
	DB	08H
	DB	026H
	DB	028H
	DB	06H
	DB	02H
	DB	0d3H
	DB	031H
	DB	026H
	DB	09H
	DB	06H
	DB	0aH
	DB	0dH
	DB	09H
	DB	0d0H
	DB	0d3H
	DB	031H
	DB	0dH
	DB	031H
	DB	06H
	DB	0d4H
	DB	031H
	DB	08H
	DB	08H
	DB	09H
	DB	03cH
	DB	0dH
	DB	0aH
	DB	0d0H
	DB	031H
	DB	0dH
	DB	09H
	DB	0d0H
	DB	0d4H
	DB	052H
	DB	026H
	DB	028H
	DB	06H
	DB	02H
	DB	08H
	DB	08H
	DB	012H
	DB	069H
	DB	028H
	DB	09H
	DB	031H
	DB	0d0H
	DB	0daH
	DB	06dH
	DB	06cH
	DB	04bH
	DB	04bH
	DB	04bH
	DB	014H
	DB	038H
	DB	095H
	DB	012H
	DB	012H
	DB	0d3H
	DB	0d4H
	DB	0d4H
	DB	0d4H
	DB	02H
	DB	02H
	DB	02H
	DB	02H
	DB	02H
	DB	02H
	DB	02H
	DB	02H
	DB	02H
	DB	02H
	DB	02H
	DB	03H
	DB	01H
	DB	01H
	DB	01H
	DB	01H
	DB	01H
	DB	01H
	DB	01H
	DB	01H
	DB	01H
	DB	01H
	DB	01H
	DB	01H
	DB	01H
	DB	01H
	DB	06H
	DB	02H
	DB	02H
	DB	02H
	DB	02H
	DB	02H
	DB	02H
	DB	02H
	DB	02H
	DB	02H
	DB	0d3H
	DB	0d4H
	DB	028H
	DB	09H
	DB	026H
	DB	026H
	DB	02H
	DB	0a5H
	DB	026H
	DB	08H
	DB	03cH
	DB	03cH
	DB	03cH
	DB	09H
	DB	03cH
	DB	03H
	DB	03H
	DB	03cH
	DB	026H
	DB	026H
	DB	026H
	DB	031H
	DB	03H
	DB	0a5H
	DB	052H
	DB	026H
	DB	026H
	DB	08H
	DB	0a5H
	DB	03H
	DB	09H
	DB	0dH
	DB	031H
	DB	0d0H
	DB	09H
	DB	0dH
	DB	0a5H
	DB	06H
	DB	02H
	DB	02H
	DB	09H
	DB	0dH
	DB	0a5H
	DB	069H
	DB	08H
	DB	026H
	DB	0d4H
	DB	069H
	DB	028H
	DB	08H
	DB	026H
	DB	03H
	DB	03H
	DB	02H
	DB	02H
	DB	02H
	DB	02H
	DB	02H
	DB	02H
	DB	02H
	DB	052H
	DB	026H
	DB	02H
	DB	0d2H
	DB	02H
	DB	02H
	DB	02H
	DB	02H
	DB	02H
	DB	02H
	DB	02H
	DB	0d4H
	DB	031H
	DB	031H
	DB	0aH
	DB	031H
	DB	03H
	DB	069H
	DB	02H
	DB	02H
	DB	02H
	DB	052H
	DB	026H
	DB	028H
	DB	06H
	DB	02H
	DB	0d3H
	DB	031H
	DB	026H
	DB	09H
	DB	0d0H
	DB	0aH
	DB	0dH
	DB	09H
	DB	0d0H
	DB	0d3H
	DB	031H
	DB	0dH
	DB	031H
	DB	0d0H
	DB	0aH
	DB	0dH
	DB	03cH
	DB	012H
	DB	02H
	DB	08H
	DB	0dH
	DB	0aH
	DB	0d0H
	DB	031H
	DB	0dH
	DB	09H
	DB	0d0H
	DB	0d4H
	DB	052H
	DB	026H
	DB	028H
	DB	06H
	DB	02H
	DB	08H
	DB	08H
	DB	012H
	DB	03H
	DB	02H
	DB	09H
	DB	09H
	DB	0d3H
	DB	074H
	DB	088H
	DB	0ffH
	DB	059H
	DB	0b5H
	DB	0dfH
	DB	056H
	DB	061H
	DB	012H
	DB	0d3H
	DB	02H
	DB	02H
	DB	02H
	DB	02H
	DB	02H
	DB	02H
	DB	02H
	DB	02H
	DB	02H
	DB	02H
	DB	02H
	DB	02H
	DB	02H
	DB	02H
	DB	02H
	DB	02H
	DB	03H
	DB	01H
	DB	01H
	DB	01H
	DB	01H
	DB	01H
	DB	01H
	DB	01H
	DB	01H
	DB	01H
	DB	01H
	DB	01H
	DB	01H
	DB	01H
	DB	01H
	DB	06H
	DB	02H
	DB	02H
	DB	02H
	DB	02H
	DB	02H
	DB	02H
	DB	02H
	DB	02H
	DB	0d4H
	DB	0d4H
	DB	0d4H
	DB	012H
	DB	02H
	DB	08H
	DB	026H
	DB	0a5H
	DB	028H
	DB	0dH
	DB	09H
	DB	0d0H
	DB	03H
	DB	03H
	DB	03H
	DB	03H
	DB	03H
	DB	012H
	DB	02H
	DB	028H
	DB	031H
	DB	026H
	DB	08H
	DB	03H
	DB	03H
	DB	02H
	DB	028H
	DB	09H
	DB	026H
	DB	09H
	DB	069H
	DB	0f0H
	DB	0dH
	DB	031H
	DB	01fH
	DB	09H
	DB	0dH
	DB	0aH
	DB	06H
	DB	0d4H
	DB	02H
	DB	03cH
	DB	0dH
	DB	028H
	DB	069H
	DB	08H
	DB	026H
	DB	0d4H
	DB	069H
	DB	028H
	DB	08H
	DB	026H
	DB	03H
	DB	03H
	DB	02H
	DB	02H
	DB	02H
	DB	02H
	DB	02H
	DB	02H
	DB	02H
	DB	052H
	DB	026H
	DB	02H
	DB	0d2H
	DB	02H
	DB	02H
	DB	02H
	DB	02H
	DB	02H
	DB	02H
	DB	02H
	DB	02H
	DB	02H
	DB	012H
	DB	012H
	DB	012H
	DB	012H
	DB	012H
	DB	02H
	DB	02H
	DB	0d3H
	DB	09H
	DB	0dH
	DB	0aH
	DB	06H
	DB	02H
	DB	012H
	DB	09H
	DB	0dH
	DB	0aH
	DB	01fH
	DB	031H
	DB	0dH
	DB	09H
	DB	011H
	DB	012H
	DB	031H
	DB	0dH
	DB	031H
	DB	06H
	DB	09H
	DB	0dH
	DB	028H
	DB	0d0H
	DB	012H
	DB	09H
	DB	0dH
	DB	0aH
	DB	0d0H
	DB	031H
	DB	0dH
	DB	09H
	DB	0d0H
	DB	0d4H
	DB	052H
	DB	026H
	DB	028H
	DB	06H
	DB	02H
	DB	08H
	DB	08H
	DB	012H
	DB	03H
	DB	0d4H
	DB	031H
	DB	03cH
	DB	031H
	DB	05cH
	DB	088H
	DB	020H
	DB	0fcH
	DB	0c3H
	DB	0dfH
	DB	029H
	DB	061H
	DB	012H
	DB	0d4H
	DB	02H
	DB	02H
	DB	02H
	DB	02H
	DB	02H
	DB	02H
	DB	02H
	DB	02H
	DB	02H
	DB	02H
	DB	02H
	DB	02H
	DB	02H
	DB	02H
	DB	02H
	DB	02H
	DB	03H
	DB	01H
	DB	01H
	DB	01H
	DB	01H
	DB	01H
	DB	01H
	DB	01H
	DB	01H
	DB	01H
	DB	01H
	DB	01H
	DB	01H
	DB	01H
	DB	01H
	DB	06H
	DB	02H
	DB	02H
	DB	02H
	DB	02H
	DB	02H
	DB	02H
	DB	02H
	DB	02H
	DB	028H
	DB	028H
	DB	02H
	DB	02H
	DB	0a5H
	DB	08H
	DB	0dH
	DB	02H
	DB	012H
	DB	026H
	DB	08H
	DB	012H
	DB	012H
	DB	02H
	DB	02H
	DB	02H
	DB	02H
	DB	02H
	DB	0d4H
	DB	012H
	DB	02H
	DB	08H
	DB	08H
	DB	03H
	DB	03H
	DB	0d3H
	DB	012H
	DB	0a5H
	DB	026H
	DB	03cH
	DB	06H
	DB	031H
	DB	0dH
	DB	031H
	DB	011H
	DB	0aH
	DB	026H
	DB	052H
	DB	03H
	DB	012H
	DB	0a5H
	DB	08H
	DB	026H
	DB	03H
	DB	03H
	DB	08H
	DB	026H
	DB	0d4H
	DB	069H
	DB	028H
	DB	08H
	DB	026H
	DB	03H
	DB	03H
	DB	02H
	DB	02H
	DB	02H
	DB	02H
	DB	02H
	DB	02H
	DB	02H
	DB	052H
	DB	026H
	DB	02H
	DB	0d2H
	DB	02H
	DB	02H
	DB	02H
	DB	02H
	DB	02H
	DB	02H
	DB	02H
	DB	02H
	DB	02H
	DB	02H
	DB	02H
	DB	02H
	DB	02H
	DB	02H
	DB	02H
	DB	02H
	DB	0d3H
	DB	0aH
	DB	026H
	DB	03cH
	DB	03H
	DB	012H
	DB	028H
	DB	08H
	DB	026H
	DB	0d4H
	DB	0d0H
	DB	031H
	DB	026H
	DB	03cH
	DB	03H
	DB	028H
	DB	052H
	DB	026H
	DB	031H
	DB	06H
	DB	09H
	DB	0dH
	DB	031H
	DB	069H
	DB	02H
	DB	03cH
	DB	0dH
	DB	0aH
	DB	0d0H
	DB	031H
	DB	0dH
	DB	09H
	DB	0d0H
	DB	0d4H
	DB	052H
	DB	026H
	DB	028H
	DB	06H
	DB	02H
	DB	08H
	DB	08H
	DB	012H
	DB	03H
	DB	02H
	DB	02H
	DB	0fdH
	DB	0abH
	DB	090H
	DB	06fH
	DB	047H
	DB	037H
	DB	0c3H
	DB	0dfH
	DB	056H
	DB	038H
	DB	05cH
	DB	02H
	DB	02H
	DB	02H
	DB	02H
	DB	02H
	DB	02H
	DB	02H
	DB	02H
	DB	02H
	DB	02H
	DB	02H
	DB	02H
	DB	02H
	DB	02H
	DB	02H
	DB	02H
	DB	02H
	DB	03H
	DB	01H
	DB	01H
	DB	01H
	DB	01H
	DB	01H
	DB	01H
	DB	01H
	DB	01H
	DB	01H
	DB	01H
	DB	01H
	DB	01H
	DB	01H
	DB	01H
	DB	06H
	DB	02H
	DB	02H
	DB	02H
	DB	02H
	DB	02H
	DB	02H
	DB	02H
	DB	0d4H
	DB	09H
	DB	026H
	DB	08H
	DB	08H
	DB	026H
	DB	0dH
	DB	09H
	DB	06H
	DB	03H
	DB	0f0H
	DB	026H
	DB	08H
	DB	09H
	DB	03cH
	DB	08H
	DB	031H
	DB	03H
	DB	09H
	DB	03cH
	DB	09H
	DB	052H
	DB	026H
	DB	0f0H
	DB	06H
	DB	09H
	DB	09H
	DB	09H
	DB	08H
	DB	026H
	DB	028H
	DB	0d0H
	DB	0f0H
	DB	0dH
	DB	031H
	DB	0d0H
	DB	02H
	DB	09H
	DB	026H
	DB	08H
	DB	09H
	DB	08H
	DB	026H
	DB	0aH
	DB	0d0H
	DB	012H
	DB	08H
	DB	026H
	DB	02H
	DB	069H
	DB	028H
	DB	08H
	DB	0dH
	DB	012H
	DB	03H
	DB	02H
	DB	02H
	DB	02H
	DB	02H
	DB	02H
	DB	02H
	DB	02H
	DB	08H
	DB	0dH
	DB	02H
	DB	0d2H
	DB	02H
	DB	02H
	DB	02H
	DB	02H
	DB	02H
	DB	02H
	DB	02H
	DB	02H
	DB	02H
	DB	02H
	DB	02H
	DB	02H
	DB	02H
	DB	02H
	DB	02H
	DB	02H
	DB	02H
	DB	02H
	DB	09H
	DB	026H
	DB	08H
	DB	09H
	DB	08H
	DB	026H
	DB	0aH
	DB	0d0H
	DB	03H
	DB	0a5H
	DB	026H
	DB	026H
	DB	026H
	DB	08H
	DB	03cH
	DB	0dH
	DB	0f0H
	DB	0d0H
	DB	0aH
	DB	026H
	DB	026H
	DB	09H
	DB	03cH
	DB	08H
	DB	0dH
	DB	0aH
	DB	01fH
	DB	0f0H
	DB	0dH
	DB	09H
	DB	0d0H
	DB	0d4H
	DB	08H
	DB	0dH
	DB	028H
	DB	06H
	DB	02H
	DB	026H
	DB	026H
	DB	012H
	DB	03H
	DB	02H
	DB	0d4H
	DB	0c1H
	DB	014H
	DB	077H
	DB	06fH
	DB	020H
	DB	0fcH
	DB	0c3H
	DB	0dfH
	DB	056H
	DB	022H
	DB	067H
	DB	07cH
	DB	02H
	DB	02H
	DB	02H
	DB	02H
	DB	02H
	DB	02H
	DB	02H
	DB	02H
	DB	02H
	DB	02H
	DB	02H
	DB	02H
	DB	02H
	DB	02H
	DB	02H
	DB	02H
	DB	03H
	DB	01H
	DB	01H
	DB	01H
	DB	01H
	DB	01H
	DB	01H
	DB	01H
	DB	01H
	DB	01H
	DB	01H
	DB	01H
	DB	01H
	DB	01H
	DB	01H
	DB	06H
	DB	02H
	DB	02H
	DB	02H
	DB	02H
	DB	02H
	DB	02H
	DB	02H
	DB	02H
	DB	0a5H
	DB	0f0H
	DB	09H
	DB	09H
	DB	031H
	DB	0a5H
	DB	069H
	DB	069H
	DB	0d4H
	DB	02H
	DB	0aH
	DB	09H
	DB	09H
	DB	0f0H
	DB	0a5H
	DB	03H
	DB	069H
	DB	0aH
	DB	09H
	DB	09H
	DB	0f0H
	DB	028H
	DB	06H
	DB	03H
	DB	031H
	DB	09H
	DB	09H
	DB	031H
	DB	02H
	DB	06H
	DB	03H
	DB	031H
	DB	03cH
	DB	028H
	DB	0d0H
	DB	02H
	DB	02H
	DB	0aH
	DB	09H
	DB	09H
	DB	031H
	DB	02H
	DB	06H
	DB	03H
	DB	02H
	DB	09H
	DB	09H
	DB	03H
	DB	069H
	DB	02H
	DB	09H
	DB	09H
	DB	03H
	DB	03H
	DB	02H
	DB	02H
	DB	02H
	DB	02H
	DB	02H
	DB	02H
	DB	02H
	DB	09H
	DB	09H
	DB	012H
	DB	03H
	DB	02H
	DB	02H
	DB	02H
	DB	02H
	DB	02H
	DB	02H
	DB	02H
	DB	02H
	DB	02H
	DB	02H
	DB	02H
	DB	02H
	DB	02H
	DB	02H
	DB	02H
	DB	02H
	DB	02H
	DB	02H
	DB	02H
	DB	0aH
	DB	09H
	DB	09H
	DB	08H
	DB	052H
	DB	03H
	DB	012H
	DB	02H
	DB	02H
	DB	031H
	DB	09H
	DB	031H
	DB	012H
	DB	02H
	DB	03cH
	DB	0a5H
	DB	06H
	DB	02H
	DB	031H
	DB	09H
	DB	09H
	DB	02H
	DB	028H
	DB	03cH
	DB	02H
	DB	0d0H
	DB	0aH
	DB	03cH
	DB	0aH
	DB	0d0H
	DB	0d4H
	DB	09H
	DB	09H
	DB	0d3H
	DB	069H
	DB	02H
	DB	03cH
	DB	09H
	DB	03H
	DB	03H
	DB	02H
	DB	012H
	DB	080H
	DB	077H
	DB	0e5H
	DB	04cH
	DB	0ceH
	DB	02cH
	DB	0c3H
	DB	0dfH
	DB	056H
	DB	09dH
	DB	034H
	DB	093H
	DB	097H
	DB	02H
	DB	02H
	DB	02H
	DB	02H
	DB	02H
	DB	02H
	DB	02H
	DB	02H
	DB	02H
	DB	02H
	DB	02H
	DB	02H
	DB	02H
	DB	02H
	DB	02H
	DB	03H
	DB	01H
	DB	01H
	DB	01H
	DB	01H
	DB	01H
	DB	01H
	DB	01H
	DB	01H
	DB	01H
	DB	01H
	DB	01H
	DB	01H
	DB	01H
	DB	01H
	DB	06H
	DB	02H
	DB	02H
	DB	02H
	DB	02H
	DB	02H
	DB	02H
	DB	02H
	DB	02H
	DB	0d4H
	DB	012H
	DB	012H
	DB	012H
	DB	03H
	DB	03H
	DB	012H
	DB	02H
	DB	02H
	DB	02H
	DB	0d3H
	DB	012H
	DB	012H
	DB	03H
	DB	03H
	DB	012H
	DB	02H
	DB	0d4H
	DB	012H
	DB	012H
	DB	03H
	DB	03H
	DB	012H
	DB	02H
	DB	012H
	DB	012H
	DB	012H
	DB	03H
	DB	03H
	DB	012H
	DB	02H
	DB	02H
	DB	012H
	DB	03H
	DB	012H
	DB	02H
	DB	02H
	DB	012H
	DB	012H
	DB	012H
	DB	03H
	DB	03H
	DB	012H
	DB	02H
	DB	02H
	DB	02H
	DB	012H
	DB	03H
	DB	012H
	DB	02H
	DB	02H
	DB	012H
	DB	03H
	DB	012H
	DB	02H
	DB	02H
	DB	02H
	DB	02H
	DB	02H
	DB	02H
	DB	02H
	DB	02H
	DB	012H
	DB	03H
	DB	012H
	DB	02H
	DB	02H
	DB	02H
	DB	02H
	DB	02H
	DB	02H
	DB	02H
	DB	02H
	DB	02H
	DB	02H
	DB	02H
	DB	02H
	DB	02H
	DB	02H
	DB	02H
	DB	02H
	DB	02H
	DB	02H
	DB	02H
	DB	0d3H
	DB	012H
	DB	03H
	DB	0aH
	DB	026H
	DB	026H
	DB	031H
	DB	0d2H
	DB	02H
	DB	0d3H
	DB	012H
	DB	03H
	DB	03H
	DB	0d3H
	DB	0d4H
	DB	03H
	DB	012H
	DB	02H
	DB	0d3H
	DB	012H
	DB	03H
	DB	03H
	DB	012H
	DB	012H
	DB	03H
	DB	012H
	DB	02H
	DB	012H
	DB	03H
	DB	012H
	DB	02H
	DB	02H
	DB	012H
	DB	03H
	DB	012H
	DB	02H
	DB	02H
	DB	012H
	DB	03H
	DB	012H
	DB	0d3H
	DB	012H
	DB	099H
	DB	0faH
	DB	064H
	DB	06cH
	DB	014H
	DB	014H
	DB	077H
	DB	022H
	DB	014H
	DB	06dH
	DB	09dH
	DB	022H
	DB	0d9H
	DB	02H
	DB	02H
	DB	02H
	DB	02H
	DB	02H
	DB	02H
	DB	02H
	DB	02H
	DB	02H
	DB	02H
	DB	02H
	DB	02H
	DB	02H
	DB	02H
	DB	02H
	DB	03H
	DB	01H
	DB	01H
	DB	01H
	DB	01H
	DB	01H
	DB	01H
	DB	01H
	DB	01H
	DB	01H
	DB	01H
	DB	01H
	DB	01H
	DB	01H
	DB	01H
	DB	06H
	DB	02H
	DB	02H
	DB	02H
	DB	02H
	DB	02H
	DB	02H
	DB	02H
	DB	02H
	DB	02H
	DB	02H
	DB	02H
	DB	02H
	DB	02H
	DB	02H
	DB	02H
	DB	02H
	DB	02H
	DB	02H
	DB	02H
	DB	02H
	DB	02H
	DB	02H
	DB	02H
	DB	02H
	DB	02H
	DB	02H
	DB	02H
	DB	02H
	DB	02H
	DB	02H
	DB	02H
	DB	02H
	DB	02H
	DB	02H
	DB	02H
	DB	02H
	DB	02H
	DB	02H
	DB	02H
	DB	02H
	DB	02H
	DB	02H
	DB	02H
	DB	02H
	DB	02H
	DB	02H
	DB	02H
	DB	02H
	DB	02H
	DB	02H
	DB	02H
	DB	02H
	DB	02H
	DB	02H
	DB	02H
	DB	02H
	DB	02H
	DB	02H
	DB	02H
	DB	02H
	DB	02H
	DB	02H
	DB	02H
	DB	02H
	DB	02H
	DB	02H
	DB	02H
	DB	02H
	DB	02H
	DB	02H
	DB	02H
	DB	02H
	DB	02H
	DB	02H
	DB	02H
	DB	02H
	DB	02H
	DB	02H
	DB	02H
	DB	02H
	DB	02H
	DB	02H
	DB	02H
	DB	02H
	DB	02H
	DB	02H
	DB	02H
	DB	02H
	DB	02H
	DB	02H
	DB	02H
	DB	02H
	DB	02H
	DB	02H
	DB	02H
	DB	02H
	DB	031H
	DB	09H
	DB	02H
	DB	06H
	DB	02H
	DB	02H
	DB	02H
	DB	02H
	DB	02H
	DB	02H
	DB	02H
	DB	02H
	DB	02H
	DB	02H
	DB	02H
	DB	02H
	DB	02H
	DB	02H
	DB	02H
	DB	02H
	DB	02H
	DB	02H
	DB	02H
	DB	02H
	DB	02H
	DB	02H
	DB	02H
	DB	02H
	DB	02H
	DB	02H
	DB	02H
	DB	02H
	DB	02H
	DB	02H
	DB	02H
	DB	02H
	DB	012H
	DB	028H
	DB	063H
	DB	067H
	DB	020H
	DB	04H
	DB	024H
	DB	059H
	DB	04bH
	DB	014H
	DB	022H
	DB	038H
	DB	022H
	DB	022H
	DB	0d9H
	DB	02H
	DB	02H
	DB	02H
	DB	02H
	DB	02H
	DB	02H
	DB	02H
	DB	02H
	DB	02H
	DB	02H
	DB	02H
	DB	02H
	DB	02H
	DB	02H
	DB	02H
	DB	012H
	DB	01H
	DB	01H
	DB	01H
	DB	01H
	DB	01H
	DB	01H
	DB	01H
	DB	01H
	DB	01H
	DB	01H
	DB	01H
	DB	01H
	DB	01H
	DB	01H
	DB	0d0H
	DB	03H
	DB	03H
	DB	03H
	DB	03H
	DB	03H
	DB	03H
	DB	03H
	DB	03H
	DB	03H
	DB	03H
	DB	03H
	DB	03H
	DB	03H
	DB	03H
	DB	03H
	DB	03H
	DB	03H
	DB	03H
	DB	03H
	DB	03H
	DB	03H
	DB	03H
	DB	03H
	DB	03H
	DB	03H
	DB	03H
	DB	03H
	DB	03H
	DB	03H
	DB	03H
	DB	03H
	DB	03H
	DB	03H
	DB	03H
	DB	03H
	DB	03H
	DB	03H
	DB	03H
	DB	03H
	DB	03H
	DB	03H
	DB	03H
	DB	03H
	DB	03H
	DB	03H
	DB	03H
	DB	03H
	DB	03H
	DB	03H
	DB	03H
	DB	03H
	DB	03H
	DB	03H
	DB	03H
	DB	03H
	DB	03H
	DB	03H
	DB	03H
	DB	03H
	DB	03H
	DB	03H
	DB	03H
	DB	03H
	DB	03H
	DB	03H
	DB	03H
	DB	03H
	DB	03H
	DB	03H
	DB	03H
	DB	03H
	DB	03H
	DB	03H
	DB	03H
	DB	03H
	DB	03H
	DB	03H
	DB	03H
	DB	03H
	DB	03H
	DB	03H
	DB	03H
	DB	03H
	DB	03H
	DB	03H
	DB	03H
	DB	03H
	DB	03H
	DB	03H
	DB	03H
	DB	03H
	DB	03H
	DB	03H
	DB	03H
	DB	03H
	DB	03H
	DB	03H
	DB	03H
	DB	06H
	DB	069H
	DB	03H
	DB	03H
	DB	03H
	DB	03H
	DB	03H
	DB	03H
	DB	03H
	DB	03H
	DB	03H
	DB	03H
	DB	03H
	DB	03H
	DB	03H
	DB	03H
	DB	03H
	DB	03H
	DB	03H
	DB	03H
	DB	03H
	DB	03H
	DB	03H
	DB	03H
	DB	03H
	DB	03H
	DB	03H
	DB	03H
	DB	03H
	DB	03H
	DB	03H
	DB	03H
	DB	03H
	DB	03H
	DB	03H
	DB	03H
	DB	0a9H
	DB	067H
	DB	0a2H
	DB	04H
	DB	032H
	DB	02cH
	DB	0acH
	DB	014H
	DB	022H
	DB	0e1H
	DB	04aH
	DB	0a8H
	DB	095H
	DB	03H
	DB	03H
	DB	03H
	DB	03H
	DB	03H
	DB	03H
	DB	03H
	DB	03H
	DB	03H
	DB	03H
	DB	03H
	DB	03H
	DB	03H
	DB	03H
	DB	03H
	DB	069H
	DB	01H
	DB	01H
	DB	01H
	DB	01H
	DB	01H
	DB	01H
	DB	01H
	DB	01H
	DB	01H
	DB	01H
	DB	01H
	DB	01H
	DB	01H
	DB	01H
	DB	01H
	DB	06H
	DB	06H
	DB	06H
	DB	06H
	DB	06H
	DB	06H
	DB	06H
	DB	06H
	DB	06H
	DB	06H
	DB	06H
	DB	06H
	DB	06H
	DB	06H
	DB	06H
	DB	06H
	DB	06H
	DB	06H
	DB	06H
	DB	06H
	DB	06H
	DB	06H
	DB	06H
	DB	06H
	DB	06H
	DB	06H
	DB	06H
	DB	06H
	DB	06H
	DB	06H
	DB	06H
	DB	06H
	DB	06H
	DB	06H
	DB	06H
	DB	06H
	DB	06H
	DB	06H
	DB	06H
	DB	06H
	DB	06H
	DB	06H
	DB	06H
	DB	06H
	DB	06H
	DB	06H
	DB	06H
	DB	06H
	DB	06H
	DB	06H
	DB	06H
	DB	06H
	DB	06H
	DB	06H
	DB	06H
	DB	06H
	DB	06H
	DB	06H
	DB	06H
	DB	06H
	DB	06H
	DB	06H
	DB	06H
	DB	06H
	DB	06H
	DB	06H
	DB	06H
	DB	06H
	DB	06H
	DB	06H
	DB	06H
	DB	06H
	DB	06H
	DB	06H
	DB	06H
	DB	06H
	DB	06H
	DB	06H
	DB	06H
	DB	06H
	DB	06H
	DB	06H
	DB	06H
	DB	06H
	DB	06H
	DB	06H
	DB	06H
	DB	06H
	DB	06H
	DB	06H
	DB	06H
	DB	06H
	DB	06H
	DB	06H
	DB	06H
	DB	06H
	DB	06H
	DB	06H
	DB	06H
	DB	06H
	DB	06H
	DB	06H
	DB	06H
	DB	06H
	DB	06H
	DB	06H
	DB	06H
	DB	06H
	DB	06H
	DB	06H
	DB	06H
	DB	06H
	DB	06H
	DB	06H
	DB	06H
	DB	06H
	DB	06H
	DB	06H
	DB	06H
	DB	06H
	DB	06H
	DB	06H
	DB	06H
	DB	06H
	DB	06H
	DB	06H
	DB	06H
	DB	06H
	DB	06H
	DB	06H
	DB	06H
	DB	06H
	DB	0d0H
	DB	0d0H
	DB	0a3H
	DB	03fH
	DB	020H
	DB	04H
	DB	032H
	DB	02cH
	DB	0acH
	DB	014H
	DB	022H
	DB	02eH
	DB	022H
	DB	056H
	DB	02aH
	DB	06H
	DB	06H
	DB	06H
	DB	06H
	DB	06H
	DB	06H
	DB	06H
	DB	06H
	DB	06H
	DB	06H
	DB	06H
	DB	06H
	DB	06H
	DB	06H
	DB	06H
	DB	0d0H
	DB	01H
	DB	01H
	DB	01H
	DB	01H
	DB	01H
	DB	01H
	DB	01H
	DB	01H
	DB	01H
	DB	01H
	DB	01H
	DB	01H
	DB	01H
	DB	01H
	DB	0d0H
	DB	03H
	DB	03H
	DB	03H
	DB	03H
	DB	03H
	DB	03H
	DB	03H
	DB	03H
	DB	03H
	DB	03H
	DB	03H
	DB	03H
	DB	03H
	DB	03H
	DB	03H
	DB	03H
	DB	03H
	DB	03H
	DB	03H
	DB	03H
	DB	03H
	DB	03H
	DB	03H
	DB	03H
	DB	03H
	DB	03H
	DB	03H
	DB	03H
	DB	03H
	DB	03H
	DB	03H
	DB	03H
	DB	03H
	DB	03H
	DB	03H
	DB	03H
	DB	03H
	DB	03H
	DB	03H
	DB	03H
	DB	03H
	DB	03H
	DB	03H
	DB	03H
	DB	03H
	DB	03H
	DB	03H
	DB	03H
	DB	03H
	DB	03H
	DB	03H
	DB	03H
	DB	03H
	DB	03H
	DB	03H
	DB	03H
	DB	03H
	DB	03H
	DB	03H
	DB	03H
	DB	03H
	DB	03H
	DB	03H
	DB	03H
	DB	03H
	DB	03H
	DB	03H
	DB	03H
	DB	03H
	DB	03H
	DB	03H
	DB	03H
	DB	03H
	DB	03H
	DB	03H
	DB	03H
	DB	03H
	DB	03H
	DB	03H
	DB	03H
	DB	03H
	DB	03H
	DB	03H
	DB	03H
	DB	03H
	DB	03H
	DB	03H
	DB	03H
	DB	03H
	DB	03H
	DB	03H
	DB	03H
	DB	03H
	DB	03H
	DB	03H
	DB	03H
	DB	03H
	DB	03H
	DB	03H
	DB	03H
	DB	03H
	DB	03H
	DB	03H
	DB	03H
	DB	03H
	DB	03H
	DB	03H
	DB	03H
	DB	03H
	DB	03H
	DB	03H
	DB	03H
	DB	03H
	DB	03H
	DB	03H
	DB	03H
	DB	03H
	DB	03H
	DB	03H
	DB	03H
	DB	03H
	DB	03H
	DB	03H
	DB	03H
	DB	03H
	DB	03H
	DB	03H
	DB	03H
	DB	03H
	DB	03H
	DB	03H
	DB	03H
	DB	069H
	DB	06H
	DB	027H
	DB	0c1H
	DB	09fH
	DB	04H
	DB	032H
	DB	02cH
	DB	058H
	DB	014H
	DB	022H
	DB	0a6H
	DB	021H
	DB	019H
	DB	069H
	DB	03H
	DB	03H
	DB	03H
	DB	03H
	DB	03H
	DB	03H
	DB	03H
	DB	03H
	DB	03H
	DB	03H
	DB	03H
	DB	03H
	DB	03H
	DB	03H
	DB	03H
	DB	06H
	DB	01H
	DB	01H
	DB	01H
	DB	01H
	DB	01H
	DB	01H
	DB	01H
	DB	01H
	DB	01H
	DB	01H
	DB	01H
	DB	01H
	DB	01H
	DB	01H
	DB	0d0H
	DB	03H
	DB	03H
	DB	03H
	DB	03H
	DB	03H
	DB	03H
	DB	03H
	DB	03H
	DB	03H
	DB	03H
	DB	069H
	DB	0fH
	DB	0fH
	DB	0fH
	DB	069H
	DB	069H
	DB	03H
	DB	03H
	DB	03H
	DB	03H
	DB	03H
	DB	03H
	DB	03H
	DB	03H
	DB	03H
	DB	03H
	DB	03H
	DB	03H
	DB	03H
	DB	03H
	DB	03H
	DB	03H
	DB	03H
	DB	03H
	DB	03H
	DB	03H
	DB	03H
	DB	03H
	DB	03H
	DB	069H
	DB	0fH
	DB	069H
	DB	03H
	DB	03H
	DB	03H
	DB	03H
	DB	03H
	DB	03H
	DB	03H
	DB	03H
	DB	03H
	DB	03H
	DB	03H
	DB	03H
	DB	03H
	DB	03H
	DB	03H
	DB	03H
	DB	03H
	DB	03H
	DB	03H
	DB	03H
	DB	03H
	DB	03H
	DB	03H
	DB	03H
	DB	069H
	DB	0fH
	DB	0fH
	DB	0fH
	DB	069H
	DB	03H
	DB	03H
	DB	03H
	DB	03H
	DB	03H
	DB	03H
	DB	03H
	DB	03H
	DB	03H
	DB	03H
	DB	03H
	DB	03H
	DB	03H
	DB	03H
	DB	03H
	DB	03H
	DB	03H
	DB	03H
	DB	03H
	DB	069H
	DB	0fH
	DB	0fH
	DB	0fH
	DB	0fH
	DB	069H
	DB	069H
	DB	03H
	DB	03H
	DB	03H
	DB	03H
	DB	03H
	DB	03H
	DB	03H
	DB	03H
	DB	03H
	DB	03H
	DB	03H
	DB	03H
	DB	03H
	DB	03H
	DB	03H
	DB	03H
	DB	03H
	DB	03H
	DB	03H
	DB	03H
	DB	03H
	DB	03H
	DB	03H
	DB	03H
	DB	03H
	DB	03H
	DB	03H
	DB	03H
	DB	03H
	DB	03H
	DB	03H
	DB	03H
	DB	03H
	DB	03H
	DB	069H
	DB	069H
	DB	069H
	DB	06H
	DB	0d0H
	DB	044H
	DB	0ffH
	DB	0a2H
	DB	053H
	DB	0e7H
	DB	029H
	DB	046H
	DB	021H
	DB	0d2H
	DB	069H
	DB	069H
	DB	03H
	DB	03H
	DB	03H
	DB	03H
	DB	03H
	DB	03H
	DB	03H
	DB	03H
	DB	03H
	DB	03H
	DB	03H
	DB	03H
	DB	03H
	DB	03H
	DB	03H
	DB	06H
	DB	01H
	DB	01H
	DB	01H
	DB	01H
	DB	01H
	DB	01H
	DB	01H
	DB	01H
	DB	01H
	DB	01H
	DB	01H
	DB	01H
	DB	01H
	DB	01H
	DB	0d0H
	DB	03H
	DB	03H
	DB	03H
	DB	03H
	DB	03H
	DB	03H
	DB	03H
	DB	03H
	DB	069H
	DB	0fH
	DB	071H
	DB	03eH
	DB	051H
	DB	03eH
	DB	071H
	DB	03H
	DB	03H
	DB	03H
	DB	03H
	DB	03H
	DB	03H
	DB	03H
	DB	03H
	DB	03H
	DB	03H
	DB	03H
	DB	03H
	DB	03H
	DB	03H
	DB	03H
	DB	03H
	DB	03H
	DB	03H
	DB	03H
	DB	03H
	DB	03H
	DB	03H
	DB	03H
	DB	069H
	DB	095H
	DB	051H
	DB	03eH
	DB	069H
	DB	03H
	DB	03H
	DB	03H
	DB	03H
	DB	03H
	DB	03H
	DB	03H
	DB	03H
	DB	03H
	DB	03H
	DB	03H
	DB	03H
	DB	03H
	DB	03H
	DB	03H
	DB	03H
	DB	03H
	DB	03H
	DB	03H
	DB	03H
	DB	03H
	DB	03H
	DB	069H
	DB	03H
	DB	03eH
	DB	051H
	DB	03eH
	DB	071H
	DB	0fH
	DB	03H
	DB	03H
	DB	03H
	DB	03H
	DB	03H
	DB	03H
	DB	03H
	DB	03H
	DB	03H
	DB	03H
	DB	03H
	DB	03H
	DB	03H
	DB	03H
	DB	03H
	DB	03H
	DB	03H
	DB	069H
	DB	071H
	DB	051H
	DB	03eH
	DB	051H
	DB	03eH
	DB	071H
	DB	069H
	DB	069H
	DB	03H
	DB	03H
	DB	03H
	DB	03H
	DB	03H
	DB	03H
	DB	03H
	DB	03H
	DB	03H
	DB	03H
	DB	03H
	DB	03H
	DB	03H
	DB	03H
	DB	03H
	DB	03H
	DB	03H
	DB	03H
	DB	03H
	DB	03H
	DB	03H
	DB	03H
	DB	03H
	DB	03H
	DB	03H
	DB	03H
	DB	03H
	DB	03H
	DB	03H
	DB	03H
	DB	03H
	DB	03H
	DB	03H
	DB	03H
	DB	069H
	DB	069H
	DB	069H
	DB	0d0H
	DB	097H
	DB	035H
	DB	04H
	DB	03fH
	DB	058H
	DB	0bdH
	DB	046H
	DB	021H
	DB	0d2H
	DB	069H
	DB	03H
	DB	03H
	DB	03H
	DB	03H
	DB	03H
	DB	03H
	DB	03H
	DB	03H
	DB	03H
	DB	03H
	DB	03H
	DB	03H
	DB	03H
	DB	03H
	DB	03H
	DB	03H
	DB	06H
	DB	01H
	DB	01H
	DB	01H
	DB	01H
	DB	01H
	DB	01H
	DB	01H
	DB	01H
	DB	01H
	DB	01H
	DB	01H
	DB	01H
	DB	01H
	DB	01H
	DB	0d0H
	DB	03H
	DB	03H
	DB	03H
	DB	03H
	DB	03H
	DB	03H
	DB	03H
	DB	069H
	DB	03H
	DB	01dH
	DB	0cH
	DB	0cH
	DB	0cH
	DB	0cH
	DB	018H
	DB	071H
	DB	0fH
	DB	03H
	DB	03H
	DB	03H
	DB	03H
	DB	03H
	DB	03H
	DB	03H
	DB	03H
	DB	03H
	DB	03H
	DB	03H
	DB	03H
	DB	03H
	DB	03H
	DB	03H
	DB	03H
	DB	03H
	DB	03H
	DB	03H
	DB	03H
	DB	03H
	DB	0fH
	DB	01aH
	DB	0cH
	DB	01aH
	DB	01fH
	DB	03H
	DB	03H
	DB	03H
	DB	03H
	DB	03H
	DB	03H
	DB	03H
	DB	03H
	DB	03H
	DB	03H
	DB	03H
	DB	03H
	DB	03H
	DB	03H
	DB	03H
	DB	03H
	DB	03H
	DB	03H
	DB	03H
	DB	03H
	DB	03H
	DB	0fH
	DB	03eH
	DB	018H
	DB	0cH
	DB	0cH
	DB	0cH
	DB	018H
	DB	02bH
	DB	0fH
	DB	03H
	DB	03H
	DB	03H
	DB	03H
	DB	03H
	DB	03H
	DB	03H
	DB	03H
	DB	03H
	DB	03H
	DB	03H
	DB	03H
	DB	03H
	DB	03H
	DB	03H
	DB	03H
	DB	0fH
	DB	01dH
	DB	0cH
	DB	0cH
	DB	0cH
	DB	0cH
	DB	0cH
	DB	01dH
	DB	0d2H
	DB	069H
	DB	03H
	DB	03H
	DB	03H
	DB	03H
	DB	03H
	DB	03H
	DB	03H
	DB	03H
	DB	03H
	DB	03H
	DB	03H
	DB	03H
	DB	03H
	DB	03H
	DB	03H
	DB	03H
	DB	03H
	DB	03H
	DB	03H
	DB	03H
	DB	03H
	DB	03H
	DB	03H
	DB	03H
	DB	03H
	DB	03H
	DB	03H
	DB	03H
	DB	03H
	DB	03H
	DB	03H
	DB	03H
	DB	03H
	DB	069H
	DB	069H
	DB	069H
	DB	0d0H
	DB	0b0H
	DB	020H
	DB	04H
	DB	03fH
	DB	058H
	DB	076H
	DB	056H
	DB	045H
	DB	027H
	DB	069H
	DB	03H
	DB	03H
	DB	03H
	DB	03H
	DB	03H
	DB	03H
	DB	03H
	DB	03H
	DB	03H
	DB	03H
	DB	03H
	DB	03H
	DB	069H
	DB	03H
	DB	03H
	DB	03H
	DB	06H
	DB	01H
	DB	01H
	DB	01H
	DB	01H
	DB	01H
	DB	01H
	DB	01H
	DB	01H
	DB	01H
	DB	01H
	DB	01H
	DB	01H
	DB	01H
	DB	01H
	DB	0d0H
	DB	03H
	DB	03H
	DB	03H
	DB	03H
	DB	03H
	DB	03H
	DB	03H
	DB	0fH
	DB	01dH
	DB	0cH
	DB	0cH
	DB	01dH
	DB	02bH
	DB	01dH
	DB	01dH
	DB	040H
	DB	0fH
	DB	03H
	DB	0fH
	DB	0fH
	DB	0fH
	DB	0fH
	DB	0fH
	DB	069H
	DB	03H
	DB	069H
	DB	0fH
	DB	0fH
	DB	0fH
	DB	0fH
	DB	069H
	DB	03H
	DB	069H
	DB	0fH
	DB	0fH
	DB	0fH
	DB	0fH
	DB	069H
	DB	069H
	DB	02bH
	DB	01aH
	DB	02bH
	DB	01H
	DB	03H
	DB	069H
	DB	0fH
	DB	0fH
	DB	0fH
	DB	0fH
	DB	0fH
	DB	069H
	DB	03H
	DB	03H
	DB	0fH
	DB	0fH
	DB	069H
	DB	0fH
	DB	0fH
	DB	0fH
	DB	069H
	DB	03H
	DB	03H
	DB	03H
	DB	03H
	DB	0fH
	DB	051H
	DB	018H
	DB	02bH
	DB	043H
	DB	01aH
	DB	0cH
	DB	0cH
	DB	03aH
	DB	0fH
	DB	03H
	DB	03H
	DB	03H
	DB	03H
	DB	03H
	DB	03H
	DB	03H
	DB	03H
	DB	03H
	DB	03H
	DB	03H
	DB	03H
	DB	03H
	DB	03H
	DB	03H
	DB	0fH
	DB	01dH
	DB	0cH
	DB	018H
	DB	02bH
	DB	01dH
	DB	0cH
	DB	0cH
	DB	02bH
	DB	06H
	DB	03H
	DB	0fH
	DB	0fH
	DB	0fH
	DB	0fH
	DB	0fH
	DB	069H
	DB	03H
	DB	03H
	DB	03H
	DB	069H
	DB	0fH
	DB	0fH
	DB	0fH
	DB	0fH
	DB	069H
	DB	03H
	DB	069H
	DB	0fH
	DB	0fH
	DB	0fH
	DB	0fH
	DB	069H
	DB	03H
	DB	03H
	DB	03H
	DB	03H
	DB	03H
	DB	03H
	DB	03H
	DB	03H
	DB	03H
	DB	03H
	DB	069H
	DB	069H
	DB	0fH
	DB	06H
	DB	0c1H
	DB	020H
	DB	04H
	DB	03fH
	DB	058H
	DB	076H
	DB	056H
	DB	046H
	DB	019H
	DB	069H
	DB	069H
	DB	069H
	DB	069H
	DB	03H
	DB	03H
	DB	03H
	DB	03H
	DB	03H
	DB	03H
	DB	03H
	DB	03H
	DB	069H
	DB	069H
	DB	03H
	DB	03H
	DB	03H
	DB	06H
	DB	01H
	DB	01H
	DB	01H
	DB	01H
	DB	01H
	DB	01H
	DB	01H
	DB	01H
	DB	01H
	DB	01H
	DB	01H
	DB	01H
	DB	01H
	DB	01H
	DB	0d0H
	DB	03H
	DB	03H
	DB	03H
	DB	03H
	DB	03H
	DB	03H
	DB	069H
	DB	069H
	DB	018H
	DB	0cH
	DB	01dH
	DB	01fH
	DB	01fH
	DB	06H
	DB	0fH
	DB	069H
	DB	069H
	DB	069H
	DB	051H
	DB	01aH
	DB	01aH
	DB	01aH
	DB	051H
	DB	0fH
	DB	069H
	DB	069H
	DB	051H
	DB	01aH
	DB	01aH
	DB	01aH
	DB	03eH
	DB	0fH
	DB	03H
	DB	02bH
	DB	01aH
	DB	01aH
	DB	01dH
	DB	071H
	DB	0fH
	DB	02bH
	DB	01aH
	DB	02bH
	DB	06H
	DB	069H
	DB	03H
	DB	02bH
	DB	01aH
	DB	01aH
	DB	01dH
	DB	051H
	DB	069H
	DB	069H
	DB	03H
	DB	01aH
	DB	01aH
	DB	071H
	DB	02bH
	DB	01aH
	DB	01aH
	DB	03eH
	DB	069H
	DB	03H
	DB	03H
	DB	03H
	DB	069H
	DB	03H
	DB	069H
	DB	01fH
	DB	0d0H
	DB	071H
	DB	018H
	DB	0cH
	DB	043H
	DB	0d0H
	DB	03H
	DB	03H
	DB	03H
	DB	03H
	DB	03H
	DB	03H
	DB	03H
	DB	03H
	DB	03H
	DB	03H
	DB	03H
	DB	03H
	DB	03H
	DB	03H
	DB	03H
	DB	0fH
	DB	01dH
	DB	0cH
	DB	018H
	DB	0d0H
	DB	06H
	DB	018H
	DB	0cH
	DB	01aH
	DB	0d0H
	DB	069H
	DB	03eH
	DB	01dH
	DB	01aH
	DB	01aH
	DB	01dH
	DB	071H
	DB	069H
	DB	03H
	DB	0fH
	DB	071H
	DB	01dH
	DB	01aH
	DB	01aH
	DB	01dH
	DB	071H
	DB	0fH
	DB	03H
	DB	02bH
	DB	01aH
	DB	01aH
	DB	01dH
	DB	095H
	DB	0fH
	DB	03H
	DB	03H
	DB	03H
	DB	03H
	DB	03H
	DB	03H
	DB	03H
	DB	069H
	DB	069H
	DB	069H
	DB	019H
	DB	074H
	DB	046H
	DB	04cH
	DB	020H
	DB	04H
	DB	03fH
	DB	058H
	DB	076H
	DB	056H
	DB	056H
	DB	046H
	DB	074H
	DB	0afH
	DB	03H
	DB	069H
	DB	069H
	DB	03H
	DB	03H
	DB	03H
	DB	03H
	DB	03H
	DB	03H
	DB	069H
	DB	069H
	DB	069H
	DB	069H
	DB	069H
	DB	03H
	DB	06H
	DB	01H
	DB	01H
	DB	01H
	DB	01H
	DB	01H
	DB	01H
	DB	01H
	DB	01H
	DB	01H
	DB	01H
	DB	01H
	DB	01H
	DB	01H
	DB	01H
	DB	0d0H
	DB	03H
	DB	03H
	DB	03H
	DB	03H
	DB	03H
	DB	03H
	DB	069H
	DB	069H
	DB	01aH
	DB	0cH
	DB	018H
	DB	043H
	DB	03H
	DB	0fH
	DB	069H
	DB	03H
	DB	0fH
	DB	01dH
	DB	0cH
	DB	0cH
	DB	01aH
	DB	0cH
	DB	0cH
	DB	02bH
	DB	01fH
	DB	02bH
	DB	0cH
	DB	0cH
	DB	01aH
	DB	018H
	DB	01dH
	DB	01fH
	DB	01dH
	DB	0cH
	DB	018H
	DB	01aH
	DB	018H
	DB	043H
	DB	01fH
	DB	01aH
	DB	0cH
	DB	01aH
	DB	01fH
	DB	069H
	DB	01aH
	DB	0cH
	DB	0cH
	DB	018H
	DB	0cH
	DB	0cH
	DB	01dH
	DB	0fH
	DB	03H
	DB	0cH
	DB	0cH
	DB	018H
	DB	0cH
	DB	0cH
	DB	0cH
	DB	018H
	DB	027H
	DB	069H
	DB	03H
	DB	03H
	DB	03H
	DB	069H
	DB	069H
	DB	03H
	DB	069H
	DB	071H
	DB	018H
	DB	0cH
	DB	043H
	DB	01fH
	DB	03H
	DB	03H
	DB	03H
	DB	03H
	DB	03H
	DB	03H
	DB	03H
	DB	069H
	DB	069H
	DB	069H
	DB	069H
	DB	069H
	DB	03H
	DB	03H
	DB	03H
	DB	0fH
	DB	01dH
	DB	0cH
	DB	018H
	DB	0d0H
	DB	0fH
	DB	018H
	DB	0cH
	DB	01aH
	DB	01fH
	DB	069H
	DB	018H
	DB	0cH
	DB	018H
	DB	0cH
	DB	0cH
	DB	018H
	DB	027H
	DB	0fH
	DB	051H
	DB	0cH
	DB	0cH
	DB	0cH
	DB	018H
	DB	0cH
	DB	054H
	DB	06H
	DB	01aH
	DB	0cH
	DB	018H
	DB	018H
	DB	0cH
	DB	0cH
	DB	03eH
	DB	0fH
	DB	03H
	DB	03H
	DB	03H
	DB	03H
	DB	03H
	DB	069H
	DB	069H
	DB	0afH
	DB	0a7H
	DB	0efH
	DB	049H
	DB	066H
	DB	093H
	DB	020H
	DB	04H
	DB	03fH
	DB	058H
	DB	076H
	DB	056H
	DB	029H
	DB	05dH
	DB	0beH
	DB	0a8H
	DB	038H
	DB	074H
	DB	019H
	DB	069H
	DB	03H
	DB	03H
	DB	03H
	DB	03H
	DB	03H
	DB	069H
	DB	069H
	DB	069H
	DB	069H
	DB	069H
	DB	03H
	DB	06H
	DB	01H
	DB	01H
	DB	01H
	DB	01H
	DB	01H
	DB	01H
	DB	01H
	DB	01H
	DB	01H
	DB	01H
	DB	01H
	DB	01H
	DB	01H
	DB	01H
	DB	0d0H
	DB	03H
	DB	03H
	DB	03H
	DB	03H
	DB	03H
	DB	03H
	DB	03H
	DB	0fH
	DB	02bH
	DB	0cH
	DB	0cH
	DB	0cH
	DB	018H
	DB	01dH
	DB	03H
	DB	0fH
	DB	03eH
	DB	0cH
	DB	0cH
	DB	03aH
	DB	01fH
	DB	051H
	DB	0cH
	DB	018H
	DB	05bH
	DB	01aH
	DB	0cH
	DB	03aH
	DB	01fH
	DB	06H
	DB	06H
	DB	02aH
	DB	0cH
	DB	0cH
	DB	0d0H
	DB	01fH
	DB	069H
	DB	06H
	DB	0d0H
	DB	01aH
	DB	0cH
	DB	01aH
	DB	01fH
	DB	02bH
	DB	0cH
	DB	0cH
	DB	03aH
	DB	01fH
	DB	02bH
	DB	0cH
	DB	0cH
	DB	03aH
	DB	069H
	DB	0cH
	DB	0cH
	DB	01aH
	DB	05bH
	DB	02bH
	DB	0cH
	DB	0cH
	DB	03aH
	DB	0d0H
	DB	03H
	DB	03H
	DB	03H
	DB	03H
	DB	03H
	DB	03H
	DB	0fH
	DB	02bH
	DB	0cH
	DB	0cH
	DB	05bH
	DB	0d0H
	DB	03H
	DB	03H
	DB	03H
	DB	03H
	DB	03H
	DB	03H
	DB	069H
	DB	071H
	DB	071H
	DB	071H
	DB	071H
	DB	03H
	DB	03H
	DB	03H
	DB	03H
	DB	0fH
	DB	01dH
	DB	0cH
	DB	018H
	DB	03aH
	DB	02bH
	DB	0cH
	DB	0cH
	DB	02bH
	DB	01fH
	DB	069H
	DB	071H
	DB	027H
	DB	05bH
	DB	071H
	DB	0cH
	DB	0cH
	DB	043H
	DB	0d0H
	DB	018H
	DB	0cH
	DB	018H
	DB	05bH
	DB	0d0H
	DB	027H
	DB	0d0H
	DB	02bH
	DB	0cH
	DB	018H
	DB	01fH
	DB	01fH
	DB	01dH
	DB	0cH
	DB	01aH
	DB	0d0H
	DB	069H
	DB	03H
	DB	03H
	DB	03H
	DB	069H
	DB	069H
	DB	08dH
	DB	066H
	DB	023H
	DB	023H
	DB	049H
	DB	0c4H
	DB	0baH
	DB	020H
	DB	04H
	DB	03fH
	DB	058H
	DB	076H
	DB	056H
	DB	029H
	DB	029H
	DB	03bH
	DB	0a8H
	DB	04aH
	DB	01cH
	DB	0e1H
	DB	095H
	DB	069H
	DB	03H
	DB	03H
	DB	03H
	DB	03H
	DB	069H
	DB	069H
	DB	069H
	DB	069H
	DB	069H
	DB	03H
	DB	06H
	DB	01H
	DB	01H
	DB	01H
	DB	01H
	DB	01H
	DB	01H
	DB	01H
	DB	01H
	DB	01H
	DB	01H
	DB	01H
	DB	01H
	DB	01H
	DB	01H
	DB	0d0H
	DB	03H
	DB	03H
	DB	03H
	DB	03H
	DB	03H
	DB	03H
	DB	03H
	DB	069H
	DB	069H
	DB	02bH
	DB	018H
	DB	0cH
	DB	0cH
	DB	0cH
	DB	01aH
	DB	06H
	DB	01dH
	DB	0cH
	DB	018H
	DB	03aH
	DB	03eH
	DB	02bH
	DB	0cH
	DB	0cH
	DB	03aH
	DB	01dH
	DB	0cH
	DB	018H
	DB	01dH
	DB	03eH
	DB	069H
	DB	03H
	DB	018H
	DB	0cH
	DB	01aH
	DB	02bH
	DB	095H
	DB	0fH
	DB	0fH
	DB	01aH
	DB	0cH
	DB	01aH
	DB	01fH
	DB	01aH
	DB	0cH
	DB	01aH
	DB	01H
	DB	0fH
	DB	03H
	DB	018H
	DB	0cH
	DB	02bH
	DB	06H
	DB	0cH
	DB	0cH
	DB	054H
	DB	01fH
	DB	071H
	DB	0cH
	DB	0cH
	DB	03aH
	DB	0d0H
	DB	03H
	DB	03H
	DB	03H
	DB	03H
	DB	03H
	DB	0fH
	DB	03eH
	DB	0cH
	DB	0cH
	DB	01dH
	DB	01H
	DB	069H
	DB	03H
	DB	03H
	DB	03H
	DB	03H
	DB	03H
	DB	03H
	DB	0fH
	DB	018H
	DB	0cH
	DB	0cH
	DB	0cH
	DB	02bH
	DB	0d0H
	DB	03H
	DB	03H
	DB	0fH
	DB	01dH
	DB	0cH
	DB	0cH
	DB	0cH
	DB	0cH
	DB	0cH
	DB	01aH
	DB	011H
	DB	06H
	DB	03H
	DB	01dH
	DB	0cH
	DB	0cH
	DB	01aH
	DB	018H
	DB	0cH
	DB	043H
	DB	03aH
	DB	0cH
	DB	0cH
	DB	02bH
	DB	01fH
	DB	069H
	DB	069H
	DB	0fH
	DB	01aH
	DB	0cH
	DB	01aH
	DB	03aH
	DB	03eH
	DB	01dH
	DB	0cH
	DB	018H
	DB	05bH
	DB	0fH
	DB	03H
	DB	03H
	DB	069H
	DB	069H
	DB	074H
	DB	049H
	DB	023H
	DB	023H
	DB	049H
	DB	0edH
	DB	014H
	DB	06fH
	DB	020H
	DB	04H
	DB	03fH
	DB	058H
	DB	076H
	DB	056H
	DB	029H
	DB	029H
	DB	03bH
	DB	0a8H
	DB	04aH
	DB	039H
	DB	063H
	DB	090H
	DB	095H
	DB	069H
	DB	03H
	DB	03H
	DB	03H
	DB	03H
	DB	069H
	DB	069H
	DB	069H
	DB	069H
	DB	03H
	DB	06H
	DB	01H
	DB	01H
	DB	01H
	DB	01H
	DB	01H
	DB	01H
	DB	01H
	DB	01H
	DB	01H
	DB	01H
	DB	01H
	DB	01H
	DB	01H
	DB	01H
	DB	0d0H
	DB	03H
	DB	03H
	DB	03H
	DB	03H
	DB	03H
	DB	03H
	DB	03H
	DB	03H
	DB	069H
	DB	0fH
	DB	03H
	DB	02bH
	DB	018H
	DB	0cH
	DB	0cH
	DB	043H
	DB	01dH
	DB	0cH
	DB	0cH
	DB	0cH
	DB	0cH
	DB	0cH
	DB	0cH
	DB	0cH
	DB	03aH
	DB	071H
	DB	018H
	DB	0cH
	DB	0cH
	DB	0cH
	DB	01dH
	DB	06H
	DB	02bH
	DB	0cH
	DB	0cH
	DB	0cH
	DB	0cH
	DB	051H
	DB	0fH
	DB	01aH
	DB	0cH
	DB	01aH
	DB	01fH
	DB	01aH
	DB	0cH
	DB	01dH
	DB	01fH
	DB	069H
	DB	069H
	DB	01aH
	DB	0cH
	DB	01dH
	DB	0d0H
	DB	0cH
	DB	0cH
	DB	043H
	DB	01fH
	DB	095H
	DB	0cH
	DB	0cH
	DB	03aH
	DB	0d0H
	DB	03H
	DB	03H
	DB	03H
	DB	03H
	DB	0fH
	DB	03eH
	DB	018H
	DB	0cH
	DB	018H
	DB	040H
	DB	0d0H
	DB	03H
	DB	03H
	DB	03H
	DB	03H
	DB	03H
	DB	03H
	DB	03H
	DB	0fH
	DB	01dH
	DB	01aH
	DB	01aH
	DB	018H
	DB	054H
	DB	01fH
	DB	03H
	DB	03H
	DB	0fH
	DB	01dH
	DB	0cH
	DB	018H
	DB	01dH
	DB	0cH
	DB	0cH
	DB	054H
	DB	01fH
	DB	0fH
	DB	01aH
	DB	0cH
	DB	018H
	DB	043H
	DB	01dH
	DB	0cH
	DB	0cH
	DB	043H
	DB	054H
	DB	0cH
	DB	0cH
	DB	054H
	DB	01fH
	DB	03H
	DB	069H
	DB	03H
	DB	018H
	DB	0cH
	DB	0cH
	DB	0cH
	DB	0cH
	DB	0cH
	DB	0cH
	DB	018H
	DB	05bH
	DB	06H
	DB	03H
	DB	069H
	DB	069H
	DB	02aH
	DB	0aaH
	DB	0cdH
	DB	023H
	DB	023H
	DB	0c9H
	DB	049H
	DB	07bH
	DB	088H
	DB	020H
	DB	04H
	DB	03fH
	DB	058H
	DB	076H
	DB	056H
	DB	029H
	DB	05eH
	DB	05dH
	DB	0beH
	DB	04aH
	DB	039H
	DB	01cH
	DB	064H
	DB	097H
	DB	069H
	DB	03H
	DB	03H
	DB	03H
	DB	03H
	DB	069H
	DB	069H
	DB	069H
	DB	069H
	DB	069H
	DB	06H
	DB	01H
	DB	01H
	DB	01H
	DB	01H
	DB	01H
	DB	01H
	DB	01H
	DB	01H
	DB	01H
	DB	01H
	DB	01H
	DB	01H
	DB	01H
	DB	01H
	DB	0d0H
	DB	03H
	DB	03H
	DB	03H
	DB	03H
	DB	03H
	DB	03H
	DB	03H
	DB	03H
	DB	069H
	DB	069H
	DB	069H
	DB	0fH
	DB	03eH
	DB	0cH
	DB	0cH
	DB	01dH
	DB	02bH
	DB	0cH
	DB	018H
	DB	0d0H
	DB	02aH
	DB	027H
	DB	06H
	DB	02aH
	DB	06H
	DB	06H
	DB	071H
	DB	02bH
	DB	01aH
	DB	0cH
	DB	0cH
	DB	03aH
	DB	0fH
	DB	095H
	DB	01dH
	DB	018H
	DB	0cH
	DB	018H
	DB	0d0H
	DB	01aH
	DB	0cH
	DB	01aH
	DB	01fH
	DB	01aH
	DB	0cH
	DB	01dH
	DB	01fH
	DB	069H
	DB	069H
	DB	018H
	DB	0cH
	DB	02bH
	DB	0d0H
	DB	0cH
	DB	0cH
	DB	043H
	DB	01fH
	DB	095H
	DB	0cH
	DB	0cH
	DB	03aH
	DB	0d0H
	DB	03H
	DB	03H
	DB	03H
	DB	0fH
	DB	03eH
	DB	018H
	DB	0cH
	DB	0cH
	DB	03aH
	DB	01fH
	DB	0d2H
	DB	03H
	DB	03H
	DB	03H
	DB	03H
	DB	03H
	DB	03H
	DB	03H
	DB	03H
	DB	03H
	DB	069H
	DB	06H
	DB	06H
	DB	06H
	DB	069H
	DB	03H
	DB	03H
	DB	0fH
	DB	01dH
	DB	0cH
	DB	018H
	DB	040H
	DB	018H
	DB	0cH
	DB	01aH
	DB	01fH
	DB	03H
	DB	018H
	DB	0cH
	DB	043H
	DB	01fH
	DB	069H
	DB	018H
	DB	0cH
	DB	043H
	DB	054H
	DB	0cH
	DB	0cH
	DB	043H
	DB	01fH
	DB	03H
	DB	069H
	DB	0fH
	DB	018H
	DB	0cH
	DB	01dH
	DB	01fH
	DB	027H
	DB	02aH
	DB	06H
	DB	02aH
	DB	06H
	DB	069H
	DB	03H
	DB	069H
	DB	069H
	DB	02aH
	DB	06cH
	DB	0cdH
	DB	023H
	DB	023H
	DB	0c9H
	DB	034H
	DB	024H
	DB	06fH
	DB	020H
	DB	04H
	DB	03fH
	DB	058H
	DB	076H
	DB	056H
	DB	029H
	DB	05eH
	DB	03bH
	DB	0beH
	DB	04aH
	DB	039H
	DB	01cH
	DB	063H
	DB	074H
	DB	069H
	DB	03H
	DB	03H
	DB	03H
	DB	03H
	DB	069H
	DB	069H
	DB	069H
	DB	069H
	DB	069H
	DB	06H
	DB	01H
	DB	01H
	DB	01H
	DB	01H
	DB	01H
	DB	01H
	DB	01H
	DB	01H
	DB	01H
	DB	01H
	DB	01H
	DB	01H
	DB	01H
	DB	01H
	DB	0d0H
	DB	03H
	DB	03H
	DB	03H
	DB	03H
	DB	03H
	DB	03H
	DB	03H
	DB	069H
	DB	095H
	DB	071H
	DB	03H
	DB	069H
	DB	051H
	DB	0cH
	DB	0cH
	DB	02bH
	DB	054H
	DB	0cH
	DB	0cH
	DB	03aH
	DB	0fH
	DB	0fH
	DB	03H
	DB	071H
	DB	03H
	DB	03H
	DB	0fH
	DB	01fH
	DB	03H
	DB	0cH
	DB	0cH
	DB	03aH
	DB	0d0H
	DB	0fH
	DB	01fH
	DB	051H
	DB	0cH
	DB	018H
	DB	0d0H
	DB	01aH
	DB	0cH
	DB	01aH
	DB	01fH
	DB	02bH
	DB	0cH
	DB	018H
	DB	040H
	DB	01fH
	DB	03eH
	DB	0cH
	DB	0cH
	DB	054H
	DB	0d0H
	DB	0cH
	DB	0cH
	DB	043H
	DB	01fH
	DB	095H
	DB	0cH
	DB	0cH
	DB	03aH
	DB	0d0H
	DB	03H
	DB	03H
	DB	069H
	DB	03eH
	DB	018H
	DB	0cH
	DB	018H
	DB	03aH
	DB	01fH
	DB	0fH
	DB	0fH
	DB	069H
	DB	03H
	DB	03H
	DB	03H
	DB	03H
	DB	03H
	DB	03H
	DB	03H
	DB	069H
	DB	069H
	DB	069H
	DB	069H
	DB	03H
	DB	03H
	DB	03H
	DB	03H
	DB	0fH
	DB	01dH
	DB	0cH
	DB	018H
	DB	0d0H
	DB	02bH
	DB	0cH
	DB	0cH
	DB	03aH
	DB	069H
	DB	0cH
	DB	0cH
	DB	02bH
	DB	01fH
	DB	071H
	DB	0cH
	DB	0cH
	DB	043H
	DB	06H
	DB	0cH
	DB	0cH
	DB	01aH
	DB	01fH
	DB	0fH
	DB	03H
	DB	0fH
	DB	01dH
	DB	0cH
	DB	018H
	DB	06H
	DB	0fH
	DB	0fH
	DB	071H
	DB	03H
	DB	03H
	DB	03H
	DB	03H
	DB	069H
	DB	069H
	DB	06H
	DB	038H
	DB	087H
	DB	0cdH
	DB	023H
	DB	023H
	DB	087H
	DB	024H
	DB	024H
	DB	024H
	DB	032H
	DB	034H
	DB	04bH
	DB	076H
	DB	029H
	DB	05dH
	DB	03bH
	DB	03bH
	DB	0beH
	DB	04aH
	DB	039H
	DB	01cH
	DB	090H
	DB	0afH
	DB	069H
	DB	03H
	DB	03H
	DB	03H
	DB	03H
	DB	069H
	DB	069H
	DB	069H
	DB	069H
	DB	069H
	DB	06H
	DB	01H
	DB	01H
	DB	01H
	DB	01H
	DB	01H
	DB	01H
	DB	01H
	DB	01H
	DB	01H
	DB	01H
	DB	01H
	DB	01H
	DB	01H
	DB	01H
	DB	0d0H
	DB	03H
	DB	03H
	DB	03H
	DB	03H
	DB	03H
	DB	03H
	DB	069H
	DB	069H
	DB	01aH
	DB	0cH
	DB	018H
	DB	018H
	DB	0cH
	DB	0cH
	DB	018H
	DB	05bH
	DB	0d0H
	DB	01aH
	DB	0cH
	DB	0cH
	DB	01aH
	DB	01aH
	DB	0cH
	DB	01dH
	DB	01fH
	DB	01dH
	DB	01aH
	DB	01dH
	DB	018H
	DB	0cH
	DB	018H
	DB	040H
	DB	01aH
	DB	01aH
	DB	01dH
	DB	018H
	DB	0cH
	DB	01dH
	DB	01H
	DB	01aH
	DB	0cH
	DB	01aH
	DB	01fH
	DB	03H
	DB	018H
	DB	0cH
	DB	018H
	DB	01aH
	DB	0cH
	DB	0cH
	DB	01aH
	DB	01H
	DB	069H
	DB	0cH
	DB	0cH
	DB	043H
	DB	01fH
	DB	03eH
	DB	0cH
	DB	0cH
	DB	03aH
	DB	0d0H
	DB	03H
	DB	069H
	DB	0fH
	DB	01dH
	DB	0cH
	DB	0cH
	DB	018H
	DB	01dH
	DB	01aH
	DB	01aH
	DB	01aH
	DB	03H
	DB	069H
	DB	03H
	DB	03H
	DB	03H
	DB	03H
	DB	03H
	DB	03H
	DB	03H
	DB	03H
	DB	03H
	DB	03H
	DB	03H
	DB	03H
	DB	03H
	DB	03H
	DB	0fH
	DB	01dH
	DB	0cH
	DB	018H
	DB	040H
	DB	071H
	DB	0cH
	DB	0cH
	DB	01aH
	DB	01fH
	DB	01aH
	DB	0cH
	DB	0cH
	DB	01aH
	DB	018H
	DB	0cH
	DB	0cH
	DB	043H
	DB	01fH
	DB	01dH
	DB	0cH
	DB	0cH
	DB	018H
	DB	01aH
	DB	018H
	DB	02bH
	DB	027H
	DB	018H
	DB	0cH
	DB	018H
	DB	01aH
	DB	018H
	DB	0cH
	DB	02bH
	DB	0fH
	DB	03H
	DB	03H
	DB	069H
	DB	069H
	DB	06H
	DB	04eH
	DB	07aH
	DB	084H
	DB	023H
	DB	023H
	DB	087H
	DB	049H
	DB	087H
	DB	087H
	DB	066H
	DB	091H
	DB	062H
	DB	077H
	DB	0e4H
	DB	0e4H
	DB	0e4H
	DB	03bH
	DB	0beH
	DB	04aH
	DB	04aH
	DB	0e1H
	DB	05eH
	DB	0daH
	DB	069H
	DB	03H
	DB	03H
	DB	03H
	DB	03H
	DB	03H
	DB	03H
	DB	069H
	DB	069H
	DB	069H
	DB	06H
	DB	01H
	DB	01H
	DB	01H
	DB	01H
	DB	01H
	DB	01H
	DB	01H
	DB	01H
	DB	01H
	DB	01H
	DB	01H
	DB	01H
	DB	01H
	DB	01H
	DB	0d0H
	DB	03H
	DB	03H
	DB	03H
	DB	03H
	DB	03H
	DB	03H
	DB	03H
	DB	069H
	DB	02bH
	DB	018H
	DB	018H
	DB	018H
	DB	018H
	DB	01dH
	DB	03aH
	DB	01fH
	DB	069H
	DB	03H
	DB	01dH
	DB	018H
	DB	018H
	DB	018H
	DB	01aH
	DB	054H
	DB	01fH
	DB	01dH
	DB	018H
	DB	018H
	DB	018H
	DB	01dH
	DB	05bH
	DB	06H
	DB	01aH
	DB	018H
	DB	018H
	DB	018H
	DB	02bH
	DB	040H
	DB	01fH
	DB	01dH
	DB	0cH
	DB	01dH
	DB	01H
	DB	069H
	DB	071H
	DB	01dH
	DB	018H
	DB	0cH
	DB	018H
	DB	02bH
	DB	040H
	DB	0d0H
	DB	03H
	DB	018H
	DB	018H
	DB	054H
	DB	01fH
	DB	071H
	DB	018H
	DB	018H
	DB	03aH
	DB	0d0H
	DB	03H
	DB	069H
	DB	0fH
	DB	01dH
	DB	018H
	DB	018H
	DB	018H
	DB	018H
	DB	018H
	DB	0cH
	DB	018H
	DB	040H
	DB	0fH
	DB	03H
	DB	03H
	DB	03H
	DB	03H
	DB	03H
	DB	03H
	DB	03H
	DB	03H
	DB	03H
	DB	03H
	DB	03H
	DB	03H
	DB	03H
	DB	03H
	DB	0fH
	DB	01dH
	DB	0cH
	DB	01aH
	DB	040H
	DB	0fH
	DB	01dH
	DB	018H
	DB	018H
	DB	040H
	DB	071H
	DB	01aH
	DB	018H
	DB	018H
	DB	02bH
	DB	01dH
	DB	0cH
	DB	043H
	DB	01fH
	DB	069H
	DB	02bH
	DB	01aH
	DB	018H
	DB	018H
	DB	01aH
	DB	03aH
	DB	01fH
	DB	03eH
	DB	01aH
	DB	018H
	DB	0cH
	DB	018H
	DB	01dH
	DB	05bH
	DB	06H
	DB	03H
	DB	069H
	DB	069H
	DB	02aH
	DB	060H
	DB	0e1H
	DB	06eH
	DB	0b7H
	DB	085H
	DB	086H
	DB	023H
	DB	087H
	DB	049H
	DB	049H
	DB	066H
	DB	091H
	DB	091H
	DB	0aaH
	DB	014H
	DB	014H
	DB	0e4H
	DB	0beH
	DB	03bH
	DB	03bH
	DB	029H
	DB	0dfH
	DB	0b3H
	DB	0d6H
	DB	02aH
	DB	0d2H
	DB	03H
	DB	03H
	DB	03H
	DB	069H
	DB	069H
	DB	069H
	DB	069H
	DB	069H
	DB	06H
	DB	01H
	DB	01H
	DB	01H
	DB	01H
	DB	01H
	DB	01H
	DB	01H
	DB	01H
	DB	01H
	DB	01H
	DB	01H
	DB	01H
	DB	01H
	DB	01H
	DB	0d0H
	DB	03H
	DB	03H
	DB	03H
	DB	03H
	DB	03H
	DB	03H
	DB	03H
	DB	03H
	DB	0fH
	DB	069H
	DB	027H
	DB	027H
	DB	02aH
	DB	01fH
	DB	06H
	DB	03H
	DB	03H
	DB	069H
	DB	0fH
	DB	0d2H
	DB	027H
	DB	02aH
	DB	01fH
	DB	06H
	DB	069H
	DB	0fH
	DB	0d2H
	DB	027H
	DB	02aH
	DB	01fH
	DB	06H
	DB	069H
	DB	0fH
	DB	027H
	DB	027H
	DB	06H
	DB	01fH
	DB	069H
	DB	03H
	DB	03H
	DB	071H
	DB	02aH
	DB	06H
	DB	03H
	DB	069H
	DB	0fH
	DB	027H
	DB	027H
	DB	06H
	DB	01fH
	DB	069H
	DB	03H
	DB	03H
	DB	071H
	DB	027H
	DB	06H
	DB	069H
	DB	03H
	DB	071H
	DB	027H
	DB	06H
	DB	069H
	DB	03H
	DB	03H
	DB	069H
	DB	03H
	DB	071H
	DB	027H
	DB	027H
	DB	027H
	DB	027H
	DB	027H
	DB	027H
	DB	06H
	DB	069H
	DB	03H
	DB	03H
	DB	03H
	DB	03H
	DB	03H
	DB	03H
	DB	03H
	DB	03H
	DB	03H
	DB	03H
	DB	03H
	DB	03H
	DB	03H
	DB	03H
	DB	069H
	DB	03H
	DB	071H
	DB	027H
	DB	06H
	DB	069H
	DB	03H
	DB	071H
	DB	027H
	DB	06H
	DB	0fH
	DB	069H
	DB	071H
	DB	06H
	DB	0d0H
	DB	027H
	DB	071H
	DB	06H
	DB	06H
	DB	03H
	DB	0fH
	DB	069H
	DB	027H
	DB	027H
	DB	01fH
	DB	06H
	DB	069H
	DB	069H
	DB	0fH
	DB	027H
	DB	027H
	DB	06H
	DB	01fH
	DB	0fH
	DB	069H
	DB	069H
	DB	069H
	DB	02aH
	DB	025H
	DB	0eH
	DB	02eH
	DB	06eH
	DB	023H
	DB	034H
	DB	024H
	DB	068H
	DB	035H
	DB	067H
	DB	085H
	DB	07aH
	DB	07aH
	DB	0aaH
	DB	014H
	DB	014H
	DB	022H
	DB	029H
	DB	029H
	DB	056H
	DB	029H
	DB	0dfH
	DB	05eH
	DB	0b3H
	DB	045H
	DB	025H
	DB	025H
	DB	0d2H
	DB	069H
	DB	069H
	DB	069H
	DB	069H
	DB	069H
	DB	069H
	DB	069H
	DB	06H
	DB	01H
	DB	01H
	DB	01H
	DB	01H
	DB	01H
	DB	01H
	DB	01H
	DB	01H
	DB	01H
	DB	01H
	DB	01H
	DB	01H
	DB	01H
	DB	01H
	DB	0d0H
	DB	03H
	DB	03H
	DB	03H
	DB	03H
	DB	03H
	DB	03H
	DB	03H
	DB	03H
	DB	03H
	DB	069H
	DB	069H
	DB	069H
	DB	069H
	DB	03H
	DB	03H
	DB	03H
	DB	03H
	DB	03H
	DB	03H
	DB	069H
	DB	069H
	DB	069H
	DB	03H
	DB	03H
	DB	03H
	DB	03H
	DB	069H
	DB	069H
	DB	069H
	DB	03H
	DB	03H
	DB	03H
	DB	069H
	DB	069H
	DB	069H
	DB	069H
	DB	03H
	DB	03H
	DB	03H
	DB	069H
	DB	069H
	DB	069H
	DB	03H
	DB	03H
	DB	03H
	DB	03H
	DB	069H
	DB	069H
	DB	069H
	DB	03H
	DB	03H
	DB	03H
	DB	03H
	DB	069H
	DB	069H
	DB	03H
	DB	03H
	DB	069H
	DB	069H
	DB	069H
	DB	03H
	DB	03H
	DB	03H
	DB	03H
	DB	03H
	DB	069H
	DB	069H
	DB	069H
	DB	069H
	DB	069H
	DB	069H
	DB	069H
	DB	069H
	DB	03H
	DB	03H
	DB	03H
	DB	03H
	DB	03H
	DB	03H
	DB	03H
	DB	03H
	DB	03H
	DB	03H
	DB	03H
	DB	03H
	DB	03H
	DB	03H
	DB	03H
	DB	03H
	DB	03H
	DB	069H
	DB	069H
	DB	069H
	DB	03H
	DB	03H
	DB	069H
	DB	069H
	DB	069H
	DB	03H
	DB	03H
	DB	069H
	DB	069H
	DB	069H
	DB	03H
	DB	069H
	DB	069H
	DB	069H
	DB	03H
	DB	03H
	DB	03H
	DB	069H
	DB	069H
	DB	069H
	DB	03H
	DB	03H
	DB	03H
	DB	03H
	DB	03H
	DB	069H
	DB	069H
	DB	069H
	DB	03H
	DB	03H
	DB	03H
	DB	069H
	DB	08aH
	DB	025H
	DB	08bH
	DB	097H
	DB	01cH
	DB	06eH
	DB	06eH
	DB	034H
	DB	07dH
	DB	035H
	DB	04H
	DB	035H
	DB	034H
	DB	059H
	DB	06dH
	DB	014H
	DB	022H
	DB	022H
	DB	0a7H
	DB	029H
	DB	046H
	DB	056H
	DB	029H
	DB	029H
	DB	05eH
	DB	0b3H
	DB	046H
	DB	0eH
	DB	025H
	DB	025H
	DB	02aH
	DB	069H
	DB	069H
	DB	069H
	DB	069H
	DB	069H
	DB	069H
	DB	06H
	DB	01H
	DB	01H
	DB	01H
	DB	01H
	DB	01H
	DB	01H
	DB	01H
	DB	01H
	DB	01H
	DB	01H
	DB	01H
	DB	01H
	DB	01H
	DB	01H
	DB	01fH
	DB	069H
	DB	069H
	DB	069H
	DB	069H
	DB	069H
	DB	069H
	DB	069H
	DB	069H
	DB	069H
	DB	069H
	DB	069H
	DB	069H
	DB	069H
	DB	069H
	DB	069H
	DB	069H
	DB	069H
	DB	069H
	DB	069H
	DB	069H
	DB	069H
	DB	069H
	DB	069H
	DB	069H
	DB	069H
	DB	069H
	DB	069H
	DB	069H
	DB	069H
	DB	069H
	DB	069H
	DB	069H
	DB	069H
	DB	069H
	DB	069H
	DB	069H
	DB	069H
	DB	069H
	DB	069H
	DB	069H
	DB	069H
	DB	069H
	DB	069H
	DB	069H
	DB	069H
	DB	069H
	DB	069H
	DB	069H
	DB	069H
	DB	069H
	DB	069H
	DB	069H
	DB	069H
	DB	069H
	DB	069H
	DB	069H
	DB	069H
	DB	069H
	DB	069H
	DB	069H
	DB	069H
	DB	069H
	DB	069H
	DB	069H
	DB	069H
	DB	069H
	DB	069H
	DB	069H
	DB	069H
	DB	069H
	DB	069H
	DB	069H
	DB	069H
	DB	069H
	DB	069H
	DB	069H
	DB	069H
	DB	069H
	DB	069H
	DB	069H
	DB	069H
	DB	069H
	DB	069H
	DB	069H
	DB	069H
	DB	069H
	DB	069H
	DB	069H
	DB	069H
	DB	069H
	DB	069H
	DB	069H
	DB	069H
	DB	069H
	DB	069H
	DB	069H
	DB	069H
	DB	069H
	DB	069H
	DB	069H
	DB	069H
	DB	069H
	DB	069H
	DB	069H
	DB	069H
	DB	069H
	DB	069H
	DB	069H
	DB	069H
	DB	069H
	DB	069H
	DB	069H
	DB	069H
	DB	069H
	DB	069H
	DB	069H
	DB	069H
	DB	069H
	DB	069H
	DB	069H
	DB	069H
	DB	069H
	DB	069H
	DB	069H
	DB	02aH
	DB	025H
	DB	0eH
	DB	028H
	DB	05cH
	DB	099H
	DB	06eH
	DB	06eH
	DB	034H
	DB	024H
	DB	035H
	DB	04H
	DB	035H
	DB	041H
	DB	02cH
	DB	083H
	DB	06cH
	DB	014H
	DB	022H
	DB	0a7H
	DB	029H
	DB	056H
	DB	056H
	DB	029H
	DB	029H
	DB	05eH
	DB	0b3H
	DB	045H
	DB	0eH
	DB	07eH
	DB	025H
	DB	025H
	DB	02aH
	DB	06H
	DB	06H
	DB	06H
	DB	06H
	DB	069H
	DB	0d0H
	DB	01H
	DB	01H
	DB	01H
	DB	01H
	DB	01H
	DB	01H
	DB	01H
	DB	01H
	DB	01H
	DB	01H
	DB	01H
	DB	01H
	DB	01H
	DB	01H
	DB	01H
	DB	06H
	DB	06H
	DB	06H
	DB	06H
	DB	06H
	DB	06H
	DB	06H
	DB	06H
	DB	06H
	DB	06H
	DB	06H
	DB	06H
	DB	06H
	DB	06H
	DB	06H
	DB	06H
	DB	06H
	DB	06H
	DB	06H
	DB	06H
	DB	06H
	DB	06H
	DB	06H
	DB	06H
	DB	06H
	DB	06H
	DB	06H
	DB	06H
	DB	06H
	DB	06H
	DB	06H
	DB	06H
	DB	06H
	DB	06H
	DB	06H
	DB	06H
	DB	06H
	DB	06H
	DB	06H
	DB	06H
	DB	06H
	DB	06H
	DB	06H
	DB	06H
	DB	06H
	DB	06H
	DB	06H
	DB	06H
	DB	06H
	DB	06H
	DB	06H
	DB	06H
	DB	06H
	DB	06H
	DB	06H
	DB	06H
	DB	06H
	DB	06H
	DB	06H
	DB	06H
	DB	06H
	DB	06H
	DB	06H
	DB	06H
	DB	06H
	DB	06H
	DB	06H
	DB	06H
	DB	06H
	DB	06H
	DB	06H
	DB	06H
	DB	06H
	DB	06H
	DB	06H
	DB	06H
	DB	06H
	DB	06H
	DB	06H
	DB	06H
	DB	06H
	DB	06H
	DB	06H
	DB	06H
	DB	06H
	DB	06H
	DB	06H
	DB	06H
	DB	06H
	DB	06H
	DB	06H
	DB	06H
	DB	06H
	DB	06H
	DB	06H
	DB	06H
	DB	06H
	DB	06H
	DB	06H
	DB	06H
	DB	06H
	DB	06H
	DB	06H
	DB	06H
	DB	06H
	DB	06H
	DB	06H
	DB	06H
	DB	06H
	DB	06H
	DB	06H
	DB	06H
	DB	06H
	DB	06H
	DB	06H
	DB	06H
	DB	06H
	DB	06H
	DB	06H
	DB	06H
	DB	06H
	DB	0d0H
	DB	0d0H
	DB	0d0H
	DB	025H
	DB	025H
	DB	097H
	DB	05cH
	DB	0e9H
	DB	0abH
	DB	085H
	DB	06eH
	DB	034H
	DB	024H
	DB	035H
	DB	04H
	DB	035H
	DB	034H
	DB	02cH
	DB	059H
	DB	06cH
	DB	014H
	DB	022H
	DB	0a7H
	DB	029H
	DB	056H
	DB	056H
	DB	029H
	DB	029H
	DB	05eH
	DB	05eH
	DB	02dH
	DB	0eH
	DB	0eH
	DB	070H
	DB	025H
	DB	060H
	DB	0d0H
	DB	0d0H
	DB	0d0H
	DB	0d0H
	DB	0d0H
	DB	0d0H
	DB	01H
	DB	01H
	DB	01H
	DB	01H
	DB	01H
	DB	01H
	DB	01H
	DB	01H
	DB	01H
	DB	01H
	DB	01H
	DB	01H
	DB	01H
	DB	01H
	DB	06H
	DB	02H
	DB	02H
	DB	02H
	DB	02H
	DB	02H
	DB	02H
	DB	02H
	DB	02H
	DB	02H
	DB	02H
	DB	02H
	DB	02H
	DB	02H
	DB	02H
	DB	02H
	DB	02H
	DB	02H
	DB	02H
	DB	02H
	DB	02H
	DB	02H
	DB	02H
	DB	02H
	DB	02H
	DB	02H
	DB	02H
	DB	02H
	DB	02H
	DB	02H
	DB	02H
	DB	02H
	DB	02H
	DB	02H
	DB	02H
	DB	02H
	DB	02H
	DB	02H
	DB	02H
	DB	02H
	DB	02H
	DB	02H
	DB	02H
	DB	02H
	DB	02H
	DB	02H
	DB	02H
	DB	02H
	DB	02H
	DB	02H
	DB	02H
	DB	02H
	DB	02H
	DB	02H
	DB	02H
	DB	02H
	DB	02H
	DB	02H
	DB	02H
	DB	02H
	DB	02H
	DB	02H
	DB	02H
	DB	02H
	DB	02H
	DB	02H
	DB	02H
	DB	02H
	DB	02H
	DB	02H
	DB	02H
	DB	02H
	DB	02H
	DB	02H
	DB	02H
	DB	02H
	DB	02H
	DB	02H
	DB	02H
	DB	02H
	DB	02H
	DB	02H
	DB	02H
	DB	02H
	DB	02H
	DB	02H
	DB	02H
	DB	02H
	DB	02H
	DB	02H
	DB	02H
	DB	02H
	DB	02H
	DB	02H
	DB	02H
	DB	02H
	DB	02H
	DB	02H
	DB	02H
	DB	02H
	DB	02H
	DB	02H
	DB	02H
	DB	02H
	DB	02H
	DB	02H
	DB	02H
	DB	02H
	DB	02H
	DB	02H
	DB	02H
	DB	02H
	DB	02H
	DB	02H
	DB	02H
	DB	02H
	DB	02H
	DB	02H
	DB	02H
	DB	02H
	DB	02H
	DB	02H
	DB	02H
	DB	0d3H
	DB	071H
	DB	025H
	DB	0eH
	DB	028H
	DB	028H
	DB	0abH
	DB	03cH
	DB	05fH
	DB	06eH
	DB	034H
	DB	07dH
	DB	035H
	DB	04H
	DB	035H
	DB	034H
	DB	02cH
	DB	059H
	DB	06cH
	DB	014H
	DB	022H
	DB	0a7H
	DB	029H
	DB	056H
	DB	056H
	DB	029H
	DB	05eH
	DB	0dfH
	DB	021H
	DB	0eH
	DB	0eH
	DB	0eH
	DB	07eH
	DB	025H
	DB	025H
	DB	03H
	DB	012H
	DB	012H
	DB	012H
	DB	012H
	DB	03H
	DB	01H
	DB	01H
	DB	01H
	DB	01H
	DB	01H
	DB	01H
	DB	01H
	DB	01H
	DB	01H
	DB	01H
	DB	01H
	DB	01H
	DB	01H
	DB	01H
	DB	06H
	DB	02H
	DB	02H
	DB	02H
	DB	02H
	DB	02H
	DB	02H
	DB	02H
	DB	02H
	DB	02H
	DB	02H
	DB	02H
	DB	0d4H
	DB	0d3H
	DB	0d4H
	DB	02H
	DB	02H
	DB	02H
	DB	02H
	DB	02H
	DB	02H
	DB	02H
	DB	02H
	DB	02H
	DB	02H
	DB	02H
	DB	02H
	DB	02H
	DB	02H
	DB	02H
	DB	02H
	DB	02H
	DB	02H
	DB	02H
	DB	02H
	DB	02H
	DB	02H
	DB	02H
	DB	02H
	DB	02H
	DB	02H
	DB	02H
	DB	02H
	DB	02H
	DB	02H
	DB	02H
	DB	02H
	DB	02H
	DB	02H
	DB	02H
	DB	02H
	DB	02H
	DB	02H
	DB	02H
	DB	02H
	DB	02H
	DB	02H
	DB	02H
	DB	02H
	DB	02H
	DB	02H
	DB	02H
	DB	02H
	DB	02H
	DB	02H
	DB	02H
	DB	02H
	DB	02H
	DB	02H
	DB	02H
	DB	0d3H
	DB	0d3H
	DB	0d3H
	DB	0d3H
	DB	0d4H
	DB	02H
	DB	02H
	DB	02H
	DB	02H
	DB	02H
	DB	02H
	DB	02H
	DB	02H
	DB	02H
	DB	02H
	DB	02H
	DB	02H
	DB	02H
	DB	02H
	DB	02H
	DB	02H
	DB	02H
	DB	02H
	DB	02H
	DB	02H
	DB	02H
	DB	02H
	DB	02H
	DB	02H
	DB	02H
	DB	02H
	DB	0d4H
	DB	0d4H
	DB	0d3H
	DB	0d4H
	DB	02H
	DB	02H
	DB	02H
	DB	02H
	DB	02H
	DB	02H
	DB	02H
	DB	02H
	DB	02H
	DB	02H
	DB	02H
	DB	02H
	DB	02H
	DB	02H
	DB	02H
	DB	02H
	DB	02H
	DB	0d4H
	DB	012H
	DB	03H
	DB	025H
	DB	0eH
	DB	028H
	DB	028H
	DB	09aH
	DB	08H
	DB	08H
	DB	0f4H
	DB	0b8H
	DB	094H
	DB	035H
	DB	04H
	DB	047H
	DB	041H
	DB	02cH
	DB	083H
	DB	06cH
	DB	014H
	DB	022H
	DB	0a7H
	DB	029H
	DB	056H
	DB	029H
	DB	029H
	DB	046H
	DB	02dH
	DB	0eH
	DB	0eH
	DB	0eH
	DB	0eH
	DB	07eH
	DB	025H
	DB	025H
	DB	03H
	DB	012H
	DB	012H
	DB	012H
	DB	012H
	DB	03H
	DB	01H
	DB	01H
	DB	01H
	DB	01H
	DB	01H
	DB	01H
	DB	01H
	DB	01H
	DB	01H
	DB	01H
	DB	01H
	DB	01H
	DB	01H
	DB	01H
	DB	06H
	DB	02H
	DB	02H
	DB	02H
	DB	02H
	DB	02H
	DB	02H
	DB	02H
	DB	02H
	DB	02H
	DB	02H
	DB	02H
	DB	028H
	DB	0a5H
	DB	028H
	DB	02H
	DB	02H
	DB	02H
	DB	02H
	DB	02H
	DB	02H
	DB	02H
	DB	02H
	DB	02H
	DB	02H
	DB	02H
	DB	02H
	DB	02H
	DB	02H
	DB	0d4H
	DB	0d4H
	DB	02H
	DB	02H
	DB	02H
	DB	02H
	DB	02H
	DB	02H
	DB	02H
	DB	02H
	DB	02H
	DB	02H
	DB	02H
	DB	02H
	DB	02H
	DB	02H
	DB	02H
	DB	02H
	DB	02H
	DB	02H
	DB	02H
	DB	02H
	DB	02H
	DB	02H
	DB	02H
	DB	02H
	DB	02H
	DB	02H
	DB	02H
	DB	02H
	DB	02H
	DB	02H
	DB	02H
	DB	02H
	DB	02H
	DB	02H
	DB	02H
	DB	02H
	DB	02H
	DB	02H
	DB	02H
	DB	0a5H
	DB	028H
	DB	028H
	DB	028H
	DB	028H
	DB	02H
	DB	02H
	DB	02H
	DB	02H
	DB	02H
	DB	02H
	DB	02H
	DB	02H
	DB	02H
	DB	02H
	DB	02H
	DB	02H
	DB	02H
	DB	02H
	DB	02H
	DB	02H
	DB	02H
	DB	02H
	DB	02H
	DB	02H
	DB	02H
	DB	02H
	DB	02H
	DB	02H
	DB	02H
	DB	02H
	DB	02H
	DB	028H
	DB	0a5H
	DB	028H
	DB	02H
	DB	0d4H
	DB	02H
	DB	02H
	DB	02H
	DB	02H
	DB	02H
	DB	02H
	DB	02H
	DB	02H
	DB	02H
	DB	02H
	DB	02H
	DB	02H
	DB	02H
	DB	02H
	DB	02H
	DB	0d3H
	DB	012H
	DB	071H
	DB	025H
	DB	025H
	DB	0b0H
	DB	05cH
	DB	09aH
	DB	0f4H
	DB	08H
	DB	03cH
	DB	0c2H
	DB	0e8H
	DB	064H
	DB	053H
	DB	094H
	DB	023H
	DB	02cH
	DB	059H
	DB	06cH
	DB	014H
	DB	022H
	DB	022H
	DB	029H
	DB	046H
	DB	021H
	DB	02dH
	DB	0eH
	DB	0eH
	DB	0eH
	DB	0eH
	DB	0eH
	DB	0eH
	DB	070H
	DB	025H
	DB	08aH
	DB	03H
	DB	03H
	DB	03H
	DB	03H
	DB	012H
	DB	03H
	DB	01H
	DB	01H
	DB	01H
	DB	01H
	DB	01H
	DB	01H
	DB	01H
	DB	01H
	DB	01H
	DB	01H
	DB	01H
	DB	01H
	DB	01H
	DB	01H
	DB	06H
	DB	02H
	DB	02H
	DB	02H
	DB	02H
	DB	02H
	DB	02H
	DB	02H
	DB	02H
	DB	02H
	DB	02H
	DB	02H
	DB	03cH
	DB	0dH
	DB	08H
	DB	03H
	DB	012H
	DB	02H
	DB	02H
	DB	02H
	DB	02H
	DB	02H
	DB	02H
	DB	02H
	DB	02H
	DB	02H
	DB	02H
	DB	02H
	DB	02H
	DB	028H
	DB	031H
	DB	028H
	DB	012H
	DB	02H
	DB	02H
	DB	02H
	DB	02H
	DB	02H
	DB	02H
	DB	02H
	DB	02H
	DB	02H
	DB	02H
	DB	02H
	DB	02H
	DB	02H
	DB	02H
	DB	02H
	DB	02H
	DB	02H
	DB	02H
	DB	02H
	DB	02H
	DB	02H
	DB	02H
	DB	02H
	DB	02H
	DB	02H
	DB	02H
	DB	02H
	DB	02H
	DB	02H
	DB	02H
	DB	02H
	DB	02H
	DB	02H
	DB	02H
	DB	02H
	DB	012H
	DB	0aH
	DB	0dH
	DB	026H
	DB	026H
	DB	026H
	DB	08H
	DB	09H
	DB	02H
	DB	02H
	DB	02H
	DB	02H
	DB	02H
	DB	02H
	DB	02H
	DB	02H
	DB	02H
	DB	02H
	DB	02H
	DB	02H
	DB	02H
	DB	02H
	DB	02H
	DB	02H
	DB	02H
	DB	02H
	DB	02H
	DB	02H
	DB	02H
	DB	02H
	DB	02H
	DB	0d4H
	DB	0a5H
	DB	08H
	DB	08H
	DB	026H
	DB	026H
	DB	08H
	DB	0a5H
	DB	012H
	DB	02H
	DB	02H
	DB	02H
	DB	02H
	DB	02H
	DB	02H
	DB	02H
	DB	02H
	DB	02H
	DB	02H
	DB	02H
	DB	02H
	DB	02H
	DB	02H
	DB	0d3H
	DB	012H
	DB	095H
	DB	070H
	DB	025H
	DB	08bH
	DB	09aH
	DB	0abH
	DB	03cH
	DB	0f4H
	DB	09bH
	DB	05cH
	DB	028H
	DB	08bH
	DB	04dH
	DB	021H
	DB	08dH
	DB	080H
	DB	038H
	DB	080H
	DB	08dH
	DB	074H
	DB	021H
	DB	02dH
	DB	04dH
	DB	0eH
	DB	0eH
	DB	0eH
	DB	0eH
	DB	0eH
	DB	0eH
	DB	0eH
	DB	0eH
	DB	025H
	DB	025H
	DB	019H
	DB	03H
	DB	03H
	DB	03H
	DB	03H
	DB	012H
	DB	069H
	DB	01H
	DB	01H
	DB	01H
	DB	01H
	DB	01H
	DB	01H
	DB	01H
	DB	01H
	DB	01H
	DB	01H
	DB	01H
	DB	01H
	DB	01H
	DB	01H
	DB	06H
	DB	02H
	DB	02H
	DB	02H
	DB	02H
	DB	02H
	DB	02H
	DB	02H
	DB	02H
	DB	02H
	DB	0d4H
	DB	028H
	DB	08H
	DB	026H
	DB	026H
	DB	02H
	DB	03H
	DB	02H
	DB	02H
	DB	02H
	DB	0d4H
	DB	0d4H
	DB	02H
	DB	02H
	DB	02H
	DB	0d4H
	DB	02H
	DB	0d4H
	DB	02H
	DB	08H
	DB	08H
	DB	03H
	DB	03H
	DB	02H
	DB	02H
	DB	0d4H
	DB	0d3H
	DB	0d4H
	DB	0d4H
	DB	0d3H
	DB	02H
	DB	02H
	DB	02H
	DB	02H
	DB	02H
	DB	02H
	DB	02H
	DB	02H
	DB	02H
	DB	0d4H
	DB	0d4H
	DB	02H
	DB	02H
	DB	0d4H
	DB	0d3H
	DB	02H
	DB	02H
	DB	02H
	DB	02H
	DB	02H
	DB	02H
	DB	02H
	DB	02H
	DB	02H
	DB	02H
	DB	02H
	DB	02H
	DB	02H
	DB	012H
	DB	0aH
	DB	026H
	DB	08H
	DB	02H
	DB	0aH
	DB	08H
	DB	026H
	DB	0a5H
	DB	03H
	DB	02H
	DB	0d4H
	DB	0d4H
	DB	02H
	DB	02H
	DB	02H
	DB	0d4H
	DB	0d4H
	DB	02H
	DB	02H
	DB	0d4H
	DB	0d4H
	DB	02H
	DB	0d3H
	DB	0d4H
	DB	0d3H
	DB	0d4H
	DB	02H
	DB	02H
	DB	02H
	DB	02H
	DB	0d4H
	DB	028H
	DB	09H
	DB	02H
	DB	02H
	DB	031H
	DB	026H
	DB	08H
	DB	012H
	DB	012H
	DB	02H
	DB	02H
	DB	02H
	DB	02H
	DB	02H
	DB	02H
	DB	02H
	DB	02H
	DB	02H
	DB	02H
	DB	02H
	DB	02H
	DB	02H
	DB	0d3H
	DB	012H
	DB	095H
	DB	04dH
	DB	025H
	DB	025H
	DB	05cH
	DB	03cH
	DB	09eH
	DB	0e9H
	DB	097H
	DB	0eH
	DB	0eH
	DB	04dH
	DB	0eH
	DB	0eH
	DB	0eH
	DB	0eH
	DB	0eH
	DB	0eH
	DB	0eH
	DB	0eH
	DB	0eH
	DB	0eH
	DB	0eH
	DB	0eH
	DB	0eH
	DB	0eH
	DB	0eH
	DB	0eH
	DB	0eH
	DB	0eH
	DB	070H
	DB	025H
	DB	019H
	DB	071H
	DB	03H
	DB	03H
	DB	03H
	DB	03H
	DB	03H
	DB	069H
	DB	01H
	DB	01H
	DB	01H
	DB	01H
	DB	01H
	DB	01H
	DB	01H
	DB	01H
	DB	01H
	DB	01H
	DB	01H
	DB	01H
	DB	01H
	DB	01H
	DB	06H
	DB	02H
	DB	02H
	DB	02H
	DB	02H
	DB	02H
	DB	02H
	DB	02H
	DB	02H
	DB	02H
	DB	012H
	DB	031H
	DB	026H
	DB	08H
	DB	026H
	DB	031H
	DB	06H
	DB	02H
	DB	0d4H
	DB	0a5H
	DB	09H
	DB	031H
	DB	012H
	DB	0d3H
	DB	0aH
	DB	03cH
	DB	0aH
	DB	02H
	DB	03cH
	DB	026H
	DB	08H
	DB	09H
	DB	031H
	DB	02H
	DB	012H
	DB	028H
	DB	031H
	DB	09H
	DB	09H
	DB	031H
	DB	02H
	DB	0d4H
	DB	02H
	DB	02H
	DB	02H
	DB	02H
	DB	02H
	DB	02H
	DB	031H
	DB	09H
	DB	031H
	DB	0d4H
	DB	012H
	DB	028H
	DB	09H
	DB	031H
	DB	012H
	DB	0d4H
	DB	02H
	DB	02H
	DB	02H
	DB	02H
	DB	02H
	DB	02H
	DB	02H
	DB	02H
	DB	02H
	DB	02H
	DB	012H
	DB	0aH
	DB	026H
	DB	08H
	DB	0d0H
	DB	03H
	DB	09H
	DB	0dH
	DB	09H
	DB	0d0H
	DB	0a5H
	DB	03cH
	DB	031H
	DB	0d3H
	DB	012H
	DB	0aH
	DB	09H
	DB	031H
	DB	012H
	DB	02H
	DB	09H
	DB	09H
	DB	02H
	DB	0aH
	DB	09H
	DB	09H
	DB	02H
	DB	0d4H
	DB	02H
	DB	02H
	DB	02H
	DB	02H
	DB	02H
	DB	012H
	DB	03H
	DB	012H
	DB	0d4H
	DB	052H
	DB	0dH
	DB	02H
	DB	069H
	DB	02H
	DB	02H
	DB	02H
	DB	02H
	DB	02H
	DB	02H
	DB	02H
	DB	02H
	DB	02H
	DB	02H
	DB	02H
	DB	02H
	DB	02H
	DB	0d3H
	DB	012H
	DB	095H
	DB	0afH
	DB	04dH
	DB	025H
	DB	025H
	DB	05cH
	DB	0abH
	DB	05cH
	DB	08bH
	DB	0eH
	DB	0eH
	DB	0eH
	DB	0eH
	DB	0eH
	DB	0eH
	DB	0eH
	DB	0eH
	DB	0eH
	DB	0eH
	DB	0eH
	DB	0eH
	DB	0eH
	DB	0eH
	DB	0eH
	DB	0eH
	DB	0eH
	DB	0eH
	DB	0eH
	DB	0eH
	DB	025H
	DB	025H
	DB	019H
	DB	0eH
	DB	071H
	DB	03H
	DB	03H
	DB	03H
	DB	03H
	DB	03H
	DB	069H
	DB	01H
	DB	01H
	DB	01H
	DB	01H
	DB	01H
	DB	01H
	DB	01H
	DB	01H
	DB	01H
	DB	01H
	DB	01H
	DB	01H
	DB	01H
	DB	01H
	DB	06H
	DB	02H
	DB	02H
	DB	02H
	DB	02H
	DB	02H
	DB	02H
	DB	02H
	DB	02H
	DB	02H
	DB	02H
	DB	03cH
	DB	052H
	DB	0a5H
	DB	026H
	DB	052H
	DB	03H
	DB	012H
	DB	0d3H
	DB	031H
	DB	0dH
	DB	09H
	DB	06H
	DB	012H
	DB	031H
	DB	0dH
	DB	0f0H
	DB	012H
	DB	03cH
	DB	026H
	DB	08H
	DB	03cH
	DB	031H
	DB	06H
	DB	028H
	DB	08H
	DB	026H
	DB	03cH
	DB	03cH
	DB	026H
	DB	03cH
	DB	0d4H
	DB	012H
	DB	02H
	DB	02H
	DB	02H
	DB	02H
	DB	0d4H
	DB	0a5H
	DB	026H
	DB	026H
	DB	028H
	DB	012H
	DB	08H
	DB	026H
	DB	012H
	DB	06H
	DB	0d4H
	DB	02H
	DB	02H
	DB	02H
	DB	02H
	DB	02H
	DB	02H
	DB	02H
	DB	02H
	DB	02H
	DB	02H
	DB	012H
	DB	0aH
	DB	026H
	DB	08H
	DB	06H
	DB	03H
	DB	09H
	DB	0dH
	DB	09H
	DB	01H
	DB	0aH
	DB	0dH
	DB	03cH
	DB	06H
	DB	012H
	DB	031H
	DB	0dH
	DB	09H
	DB	0d0H
	DB	028H
	DB	08H
	DB	08H
	DB	09H
	DB	08H
	DB	08H
	DB	026H
	DB	09H
	DB	03H
	DB	02H
	DB	02H
	DB	02H
	DB	02H
	DB	02H
	DB	02H
	DB	02H
	DB	0d4H
	DB	028H
	DB	08H
	DB	026H
	DB	012H
	DB	069H
	DB	02H
	DB	02H
	DB	02H
	DB	02H
	DB	02H
	DB	02H
	DB	02H
	DB	02H
	DB	02H
	DB	02H
	DB	02H
	DB	02H
	DB	02H
	DB	0d3H
	DB	012H
	DB	095H
	DB	0eH
	DB	04dH
	DB	04dH
	DB	07eH
	DB	025H
	DB	0eH
	DB	08bH
	DB	0eH
	DB	0eH
	DB	0eH
	DB	0eH
	DB	0eH
	DB	0eH
	DB	0eH
	DB	0eH
	DB	0eH
	DB	0eH
	DB	0eH
	DB	0eH
	DB	0eH
	DB	0eH
	DB	0eH
	DB	0eH
	DB	0eH
	DB	0eH
	DB	0eH
	DB	070H
	DB	025H
	DB	025H
	DB	019H
	DB	019H
	DB	0eH
	DB	071H
	DB	03H
	DB	03H
	DB	03H
	DB	03H
	DB	03H
	DB	069H
	DB	01H
	DB	01H
	DB	01H
	DB	01H
	DB	01H
	DB	01H
	DB	01H
	DB	01H
	DB	01H
	DB	01H
	DB	01H
	DB	01H
	DB	01H
	DB	01H
	DB	06H
	DB	02H
	DB	02H
	DB	02H
	DB	02H
	DB	02H
	DB	02H
	DB	02H
	DB	02H
	DB	0d4H
	DB	028H
	DB	026H
	DB	031H
	DB	069H
	DB	08H
	DB	026H
	DB	02H
	DB	03H
	DB	02H
	DB	031H
	DB	026H
	DB	09H
	DB	06H
	DB	012H
	DB	031H
	DB	0dH
	DB	0f0H
	DB	06H
	DB	02H
	DB	026H
	DB	08H
	DB	03H
	DB	069H
	DB	03H
	DB	09H
	DB	0dH
	DB	0aH
	DB	0d0H
	DB	03H
	DB	09H
	DB	0dH
	DB	0aH
	DB	03H
	DB	02H
	DB	02H
	DB	02H
	DB	02H
	DB	02H
	DB	012H
	DB	031H
	DB	026H
	DB	03cH
	DB	0f0H
	DB	026H
	DB	028H
	DB	0d0H
	DB	012H
	DB	02H
	DB	02H
	DB	02H
	DB	02H
	DB	02H
	DB	02H
	DB	02H
	DB	02H
	DB	02H
	DB	02H
	DB	02H
	DB	012H
	DB	0aH
	DB	026H
	DB	08H
	DB	012H
	DB	0a5H
	DB	08H
	DB	0dH
	DB	0a5H
	DB	011H
	DB	0aH
	DB	0dH
	DB	09H
	DB	06H
	DB	012H
	DB	031H
	DB	026H
	DB	09H
	DB	011H
	DB	028H
	DB	08H
	DB	026H
	DB	0aH
	DB	069H
	DB	0a5H
	DB	026H
	DB	08H
	DB	03H
	DB	012H
	DB	02H
	DB	02H
	DB	02H
	DB	0d4H
	DB	028H
	DB	0f0H
	DB	09H
	DB	08H
	DB	08H
	DB	0a5H
	DB	0d0H
	DB	012H
	DB	02H
	DB	02H
	DB	02H
	DB	02H
	DB	02H
	DB	02H
	DB	02H
	DB	02H
	DB	02H
	DB	02H
	DB	02H
	DB	02H
	DB	02H
	DB	0d3H
	DB	012H
	DB	095H
	DB	0eH
	DB	0eH
	DB	04dH
	DB	04dH
	DB	04dH
	DB	07eH
	DB	025H
	DB	025H
	DB	070H
	DB	070H
	DB	0eH
	DB	0eH
	DB	0eH
	DB	0eH
	DB	0eH
	DB	0eH
	DB	0eH
	DB	0eH
	DB	0eH
	DB	0eH
	DB	0eH
	DB	0eH
	DB	0eH
	DB	07eH
	DB	070H
	DB	025H
	DB	025H
	DB	019H
	DB	019H
	DB	019H
	DB	019H
	DB	0eH
	DB	019H
	DB	03H
	DB	03H
	DB	03H
	DB	03H
	DB	03H
	DB	069H
	DB	01H
	DB	01H
	DB	01H
	DB	01H
	DB	01H
	DB	01H
	DB	01H
	DB	01H
	DB	01H
	DB	01H
	DB	01H
	DB	01H
	DB	01H
	DB	01H
	DB	06H
	DB	02H
	DB	02H
	DB	02H
	DB	02H
	DB	02H
	DB	02H
	DB	02H
	DB	02H
	DB	012H
	DB	031H
	DB	026H
	DB	028H
	DB	0d0H
	DB	09H
	DB	0dH
	DB	031H
	DB	069H
	DB	0d4H
	DB	031H
	DB	026H
	DB	09H
	DB	06H
	DB	012H
	DB	031H
	DB	0dH
	DB	0f0H
	DB	06H
	DB	02H
	DB	026H
	DB	08H
	DB	03H
	DB	03H
	DB	028H
	DB	08H
	DB	08H
	DB	03H
	DB	069H
	DB	0d4H
	DB	0a5H
	DB	026H
	DB	052H
	DB	03H
	DB	09H
	DB	08H
	DB	08H
	DB	08H
	DB	028H
	DB	03H
	DB	02H
	DB	09H
	DB	026H
	DB	026H
	DB	0aH
	DB	0d0H
	DB	03H
	DB	02H
	DB	02H
	DB	02H
	DB	0d4H
	DB	031H
	DB	08H
	DB	08H
	DB	08H
	DB	0f0H
	DB	03H
	DB	02H
	DB	02H
	DB	012H
	DB	0aH
	DB	026H
	DB	08H
	DB	08H
	DB	08H
	DB	026H
	DB	0f0H
	DB	06H
	DB	0d2H
	DB	0aH
	DB	0dH
	DB	09H
	DB	06H
	DB	012H
	DB	031H
	DB	026H
	DB	09H
	DB	01fH
	DB	028H
	DB	08H
	DB	08H
	DB	03H
	DB	0d2H
	DB	028H
	DB	08H
	DB	08H
	DB	03H
	DB	03H
	DB	02H
	DB	02H
	DB	02H
	DB	0d4H
	DB	0aH
	DB	08H
	DB	052H
	DB	08H
	DB	08H
	DB	0a5H
	DB	03H
	DB	02H
	DB	02H
	DB	02H
	DB	02H
	DB	02H
	DB	02H
	DB	02H
	DB	02H
	DB	02H
	DB	02H
	DB	02H
	DB	02H
	DB	02H
	DB	02H
	DB	0d3H
	DB	012H
	DB	095H
	DB	0eH
	DB	0eH
	DB	0eH
	DB	04dH
	DB	04dH
	DB	02dH
	DB	02dH
	DB	04dH
	DB	0eH
	DB	07eH
	DB	070H
	DB	070H
	DB	070H
	DB	070H
	DB	070H
	DB	070H
	DB	07eH
	DB	070H
	DB	070H
	DB	070H
	DB	070H
	DB	070H
	DB	070H
	DB	070H
	DB	019H
	DB	019H
	DB	019H
	DB	019H
	DB	019H
	DB	019H
	DB	019H
	DB	0eH
	DB	019H
	DB	03H
	DB	03H
	DB	03H
	DB	03H
	DB	03H
	DB	069H
	DB	01H
	DB	01H
	DB	01H
	DB	01H
	DB	01H
	DB	01H
	DB	01H
	DB	01H
	DB	01H
	DB	01H
	DB	01H
	DB	01H
	DB	01H
	DB	01H
	DB	06H
	DB	02H
	DB	02H
	DB	02H
	DB	02H
	DB	02H
	DB	02H
	DB	02H
	DB	02H
	DB	02H
	DB	03cH
	DB	026H
	DB	0a5H
	DB	028H
	DB	09H
	DB	026H
	DB	08H
	DB	03H
	DB	012H
	DB	031H
	DB	026H
	DB	09H
	DB	06H
	DB	012H
	DB	031H
	DB	0dH
	DB	0f0H
	DB	06H
	DB	02H
	DB	026H
	DB	08H
	DB	03H
	DB	03H
	DB	0a5H
	DB	08H
	DB	08H
	DB	06H
	DB	012H
	DB	0d4H
	DB	028H
	DB	08H
	DB	08H
	DB	03H
	DB	031H
	DB	09H
	DB	031H
	DB	031H
	DB	03H
	DB	03H
	DB	0d4H
	DB	0a5H
	DB	026H
	DB	026H
	DB	02H
	DB	06H
	DB	02H
	DB	02H
	DB	02H
	DB	02H
	DB	0d4H
	DB	0aH
	DB	09H
	DB	031H
	DB	031H
	DB	028H
	DB	06H
	DB	02H
	DB	02H
	DB	012H
	DB	0aH
	DB	026H
	DB	08H
	DB	0a5H
	DB	08H
	DB	026H
	DB	028H
	DB	06H
	DB	012H
	DB	0aH
	DB	0dH
	DB	09H
	DB	06H
	DB	012H
	DB	031H
	DB	026H
	DB	09H
	DB	01fH
	DB	028H
	DB	08H
	DB	08H
	DB	03H
	DB	03H
	DB	028H
	DB	08H
	DB	08H
	DB	03H
	DB	03H
	DB	02H
	DB	02H
	DB	02H
	DB	02H
	DB	02H
	DB	02H
	DB	012H
	DB	0a5H
	DB	08H
	DB	026H
	DB	02H
	DB	03H
	DB	02H
	DB	02H
	DB	02H
	DB	02H
	DB	02H
	DB	02H
	DB	02H
	DB	02H
	DB	02H
	DB	02H
	DB	02H
	DB	02H
	DB	02H
	DB	0d3H
	DB	012H
	DB	095H
	DB	0eH
	DB	0eH
	DB	04dH
	DB	04dH
	DB	02dH
	DB	02dH
	DB	02dH
	DB	021H
	DB	021H
	DB	021H
	DB	02dH
	DB	02dH
	DB	04dH
	DB	04dH
	DB	0eH
	DB	0eH
	DB	0eH
	DB	0eH
	DB	0eH
	DB	0eH
	DB	0eH
	DB	0eH
	DB	0eH
	DB	0eH
	DB	019H
	DB	019H
	DB	019H
	DB	019H
	DB	019H
	DB	019H
	DB	0eH
	DB	0eH
	DB	019H
	DB	03H
	DB	03H
	DB	03H
	DB	03H
	DB	03H
	DB	069H
	DB	01H
	DB	01H
	DB	01H
	DB	01H
	DB	01H
	DB	01H
	DB	01H
	DB	01H
	DB	01H
	DB	01H
	DB	01H
	DB	01H
	DB	01H
	DB	01H
	DB	06H
	DB	02H
	DB	02H
	DB	02H
	DB	02H
	DB	02H
	DB	02H
	DB	02H
	DB	0d3H
	DB	028H
	DB	08H
	DB	026H
	DB	026H
	DB	026H
	DB	026H
	DB	08H
	DB	026H
	DB	02H
	DB	069H
	DB	031H
	DB	026H
	DB	09H
	DB	06H
	DB	012H
	DB	031H
	DB	0dH
	DB	0f0H
	DB	06H
	DB	02H
	DB	026H
	DB	08H
	DB	03H
	DB	03H
	DB	028H
	DB	08H
	DB	08H
	DB	0d2H
	DB	012H
	DB	012H
	DB	0a5H
	DB	026H
	DB	08H
	DB	06H
	DB	012H
	DB	012H
	DB	03H
	DB	012H
	DB	012H
	DB	012H
	DB	02H
	DB	03cH
	DB	026H
	DB	08H
	DB	08H
	DB	012H
	DB	012H
	DB	02H
	DB	02H
	DB	02H
	DB	02H
	DB	02H
	DB	012H
	DB	03H
	DB	012H
	DB	012H
	DB	012H
	DB	02H
	DB	02H
	DB	012H
	DB	0aH
	DB	026H
	DB	08H
	DB	0d0H
	DB	031H
	DB	0dH
	DB	09H
	DB	03H
	DB	012H
	DB	0aH
	DB	0dH
	DB	09H
	DB	06H
	DB	03H
	DB	031H
	DB	026H
	DB	09H
	DB	01fH
	DB	028H
	DB	08H
	DB	08H
	DB	03H
	DB	03H
	DB	028H
	DB	08H
	DB	08H
	DB	03H
	DB	03H
	DB	02H
	DB	02H
	DB	02H
	DB	02H
	DB	0d4H
	DB	02H
	DB	0d4H
	DB	0d4H
	DB	052H
	DB	0dH
	DB	0a5H
	DB	069H
	DB	02H
	DB	02H
	DB	02H
	DB	02H
	DB	02H
	DB	02H
	DB	02H
	DB	02H
	DB	02H
	DB	02H
	DB	02H
	DB	02H
	DB	02H
	DB	0d3H
	DB	012H
	DB	03H
	DB	0eH
	DB	04dH
	DB	04dH
	DB	02dH
	DB	02dH
	DB	02dH
	DB	021H
	DB	021H
	DB	021H
	DB	021H
	DB	021H
	DB	021H
	DB	021H
	DB	02dH
	DB	02dH
	DB	02dH
	DB	04dH
	DB	0eH
	DB	0eH
	DB	0eH
	DB	0eH
	DB	0eH
	DB	0eH
	DB	019H
	DB	019H
	DB	019H
	DB	019H
	DB	019H
	DB	019H
	DB	019H
	DB	0eH
	DB	0eH
	DB	019H
	DB	03H
	DB	03H
	DB	03H
	DB	03H
	DB	03H
	DB	0d2H
	DB	01H
	DB	01H
	DB	01H
	DB	01H
	DB	01H
	DB	01H
	DB	01H
	DB	01H
	DB	01H
	DB	01H
	DB	01H
	DB	01H
	DB	01H
	DB	01H
	DB	06H
	DB	02H
	DB	02H
	DB	02H
	DB	02H
	DB	02H
	DB	02H
	DB	02H
	DB	0d3H
	DB	0aH
	DB	0dH
	DB	0aH
	DB	03H
	DB	012H
	DB	012H
	DB	09H
	DB	0dH
	DB	031H
	DB	06H
	DB	031H
	DB	026H
	DB	03cH
	DB	03H
	DB	02H
	DB	03cH
	DB	026H
	DB	0f0H
	DB	06H
	DB	02H
	DB	026H
	DB	08H
	DB	03H
	DB	0d2H
	DB	02H
	DB	03cH
	DB	026H
	DB	0a5H
	DB	0d2H
	DB	0d4H
	DB	09H
	DB	0dH
	DB	0f0H
	DB	0d0H
	DB	012H
	DB	02H
	DB	02H
	DB	02H
	DB	02H
	DB	0d4H
	DB	09H
	DB	026H
	DB	028H
	DB	031H
	DB	0dH
	DB	0f0H
	DB	03H
	DB	02H
	DB	02H
	DB	02H
	DB	02H
	DB	02H
	DB	02H
	DB	02H
	DB	02H
	DB	02H
	DB	02H
	DB	02H
	DB	02H
	DB	012H
	DB	0aH
	DB	026H
	DB	08H
	DB	06H
	DB	028H
	DB	026H
	DB	026H
	DB	02H
	DB	03H
	DB	0aH
	DB	026H
	DB	052H
	DB	03H
	DB	02H
	DB	03cH
	DB	026H
	DB	09H
	DB	01fH
	DB	028H
	DB	08H
	DB	08H
	DB	03H
	DB	03H
	DB	028H
	DB	08H
	DB	08H
	DB	03H
	DB	03H
	DB	02H
	DB	02H
	DB	02H
	DB	02H
	DB	02H
	DB	012H
	DB	012H
	DB	0a5H
	DB	08H
	DB	0dH
	DB	02H
	DB	06H
	DB	02H
	DB	02H
	DB	02H
	DB	02H
	DB	02H
	DB	02H
	DB	02H
	DB	02H
	DB	02H
	DB	02H
	DB	02H
	DB	02H
	DB	02H
	DB	0d4H
	DB	012H
	DB	03H
	DB	019H
	DB	04dH
	DB	04dH
	DB	02dH
	DB	02dH
	DB	021H
	DB	021H
	DB	021H
	DB	021H
	DB	045H
	DB	021H
	DB	021H
	DB	021H
	DB	02dH
	DB	02dH
	DB	02dH
	DB	04dH
	DB	0eH
	DB	0eH
	DB	0eH
	DB	0eH
	DB	0eH
	DB	019H
	DB	019H
	DB	019H
	DB	019H
	DB	019H
	DB	019H
	DB	019H
	DB	019H
	DB	0eH
	DB	0eH
	DB	03H
	DB	03H
	DB	03H
	DB	03H
	DB	03H
	DB	012H
	DB	03H
	DB	01H
	DB	01H
	DB	01H
	DB	01H
	DB	01H
	DB	01H
	DB	01H
	DB	01H
	DB	01H
	DB	01H
	DB	01H
	DB	01H
	DB	01H
	DB	01H
	DB	06H
	DB	02H
	DB	02H
	DB	02H
	DB	02H
	DB	02H
	DB	02H
	DB	02H
	DB	02H
	DB	03cH
	DB	026H
	DB	03H
	DB	06H
	DB	02H
	DB	012H
	DB	0aH
	DB	0dH
	DB	08H
	DB	03H
	DB	028H
	DB	026H
	DB	026H
	DB	08H
	DB	08H
	DB	03cH
	DB	0dH
	DB	09H
	DB	06H
	DB	0d4H
	DB	03cH
	DB	0dH
	DB	03cH
	DB	09H
	DB	02H
	DB	0a5H
	DB	026H
	DB	08H
	DB	09H
	DB	03cH
	DB	026H
	DB	08H
	DB	03H
	DB	06H
	DB	02H
	DB	02H
	DB	02H
	DB	02H
	DB	0d4H
	DB	031H
	DB	0dH
	DB	031H
	DB	011H
	DB	02H
	DB	08H
	DB	0dH
	DB	0a5H
	DB	03H
	DB	02H
	DB	02H
	DB	02H
	DB	02H
	DB	02H
	DB	02H
	DB	02H
	DB	02H
	DB	02H
	DB	02H
	DB	02H
	DB	012H
	DB	0aH
	DB	0dH
	DB	08H
	DB	06H
	DB	012H
	DB	052H
	DB	0dH
	DB	09H
	DB	069H
	DB	0a5H
	DB	026H
	DB	026H
	DB	08H
	DB	08H
	DB	052H
	DB	026H
	DB	09H
	DB	01fH
	DB	028H
	DB	08H
	DB	026H
	DB	03H
	DB	03H
	DB	028H
	DB	026H
	DB	08H
	DB	03H
	DB	03H
	DB	02H
	DB	02H
	DB	0d4H
	DB	09H
	DB	08H
	DB	09H
	DB	09H
	DB	08H
	DB	0dH
	DB	09H
	DB	06H
	DB	03H
	DB	02H
	DB	02H
	DB	02H
	DB	02H
	DB	02H
	DB	02H
	DB	02H
	DB	02H
	DB	02H
	DB	02H
	DB	02H
	DB	02H
	DB	02H
	DB	0d4H
	DB	012H
	DB	03H
	DB	03H
	DB	0eH
	DB	02dH
	DB	02dH
	DB	021H
	DB	021H
	DB	021H
	DB	045H
	DB	045H
	DB	045H
	DB	045H
	DB	045H
	DB	021H
	DB	021H
	DB	02dH
	DB	02dH
	DB	04dH
	DB	0eH
	DB	0eH
	DB	0eH
	DB	0eH
	DB	019H
	DB	019H
	DB	019H
	DB	019H
	DB	019H
	DB	019H
	DB	019H
	DB	019H
	DB	019H
	DB	0eH
	DB	019H
	DB	03H
	DB	03H
	DB	03H
	DB	03H
	DB	012H
	DB	0d4H
	DB	03H
	DB	01H
	DB	01H
	DB	01H
	DB	01H
	DB	01H
	DB	01H
	DB	01H
	DB	01H
	DB	01H
	DB	01H
	DB	01H
	DB	01H
	DB	01H
	DB	01H
	DB	06H
	DB	02H
	DB	02H
	DB	02H
	DB	02H
	DB	02H
	DB	02H
	DB	02H
	DB	02H
	DB	03cH
	DB	0f0H
	DB	0d0H
	DB	012H
	DB	02H
	DB	0d4H
	DB	028H
	DB	03cH
	DB	03cH
	DB	012H
	DB	03H
	DB	031H
	DB	03cH
	DB	09H
	DB	0d4H
	DB	02H
	DB	08H
	DB	0aH
	DB	06H
	DB	012H
	DB	028H
	DB	09H
	DB	03cH
	DB	09H
	DB	03H
	DB	03H
	DB	0a5H
	DB	09H
	DB	03cH
	DB	09H
	DB	031H
	DB	03H
	DB	06H
	DB	012H
	DB	02H
	DB	02H
	DB	02H
	DB	02H
	DB	02H
	DB	03cH
	DB	09H
	DB	069H
	DB	069H
	DB	0d4H
	DB	0aH
	DB	03cH
	DB	09H
	DB	03H
	DB	012H
	DB	02H
	DB	02H
	DB	02H
	DB	02H
	DB	02H
	DB	02H
	DB	02H
	DB	02H
	DB	02H
	DB	02H
	DB	012H
	DB	0a5H
	DB	052H
	DB	09H
	DB	06H
	DB	03H
	DB	031H
	DB	03cH
	DB	09H
	DB	03H
	DB	012H
	DB	031H
	DB	03cH
	DB	09H
	DB	02H
	DB	02H
	DB	052H
	DB	031H
	DB	01fH
	DB	028H
	DB	03cH
	DB	09H
	DB	03H
	DB	03H
	DB	028H
	DB	03cH
	DB	09H
	DB	03H
	DB	03H
	DB	02H
	DB	02H
	DB	0d4H
	DB	0aH
	DB	09H
	DB	03cH
	DB	03cH
	DB	0f0H
	DB	028H
	DB	06H
	DB	069H
	DB	02H
	DB	02H
	DB	02H
	DB	02H
	DB	02H
	DB	02H
	DB	02H
	DB	02H
	DB	02H
	DB	02H
	DB	02H
	DB	02H
	DB	02H
	DB	02H
	DB	0d4H
	DB	012H
	DB	012H
	DB	03H
	DB	0d2H
	DB	04dH
	DB	021H
	DB	021H
	DB	021H
	DB	045H
	DB	045H
	DB	045H
	DB	045H
	DB	045H
	DB	045H
	DB	021H
	DB	021H
	DB	02dH
	DB	02dH
	DB	04dH
	DB	04dH
	DB	0eH
	DB	0eH
	DB	019H
	DB	019H
	DB	019H
	DB	019H
	DB	019H
	DB	019H
	DB	019H
	DB	019H
	DB	019H
	DB	0eH
	DB	019H
	DB	069H
	DB	03H
	DB	03H
	DB	03H
	DB	012H
	DB	0d3H
	DB	02H
	DB	03H
	DB	01H
	DB	01H
	DB	01H
	DB	01H
	DB	01H
	DB	01H
	DB	01H
	DB	01H
	DB	01H
	DB	01H
	DB	01H
	DB	01H
	DB	01H
	DB	01H
	DB	06H
	DB	02H
	DB	02H
	DB	02H
	DB	02H
	DB	02H
	DB	02H
	DB	02H
	DB	02H
	DB	02H
	DB	012H
	DB	03H
	DB	02H
	DB	02H
	DB	02H
	DB	02H
	DB	02H
	DB	012H
	DB	03H
	DB	012H
	DB	0d4H
	DB	02H
	DB	03H
	DB	03H
	DB	0d3H
	DB	02H
	DB	03H
	DB	03H
	DB	02H
	DB	02H
	DB	02H
	DB	0d3H
	DB	03H
	DB	03H
	DB	012H
	DB	0d4H
	DB	0d3H
	DB	0d3H
	DB	012H
	DB	03H
	DB	03H
	DB	02H
	DB	02H
	DB	02H
	DB	02H
	DB	02H
	DB	02H
	DB	02H
	DB	02H
	DB	012H
	DB	03H
	DB	0d4H
	DB	02H
	DB	02H
	DB	02H
	DB	012H
	DB	03H
	DB	012H
	DB	02H
	DB	02H
	DB	02H
	DB	02H
	DB	02H
	DB	02H
	DB	02H
	DB	02H
	DB	02H
	DB	02H
	DB	02H
	DB	02H
	DB	02H
	DB	012H
	DB	03H
	DB	0d3H
	DB	02H
	DB	02H
	DB	012H
	DB	03H
	DB	012H
	DB	02H
	DB	02H
	DB	03H
	DB	03H
	DB	0d3H
	DB	02H
	DB	012H
	DB	03H
	DB	02H
	DB	02H
	DB	012H
	DB	03H
	DB	012H
	DB	02H
	DB	02H
	DB	012H
	DB	03H
	DB	012H
	DB	02H
	DB	02H
	DB	02H
	DB	0d4H
	DB	012H
	DB	012H
	DB	012H
	DB	03H
	DB	03H
	DB	012H
	DB	02H
	DB	02H
	DB	02H
	DB	02H
	DB	02H
	DB	02H
	DB	02H
	DB	02H
	DB	02H
	DB	02H
	DB	02H
	DB	02H
	DB	02H
	DB	02H
	DB	02H
	DB	02H
	DB	0d3H
	DB	012H
	DB	03H
	DB	069H
	DB	02aH
	DB	0eH
	DB	021H
	DB	045H
	DB	045H
	DB	045H
	DB	045H
	DB	045H
	DB	045H
	DB	045H
	DB	021H
	DB	021H
	DB	021H
	DB	02dH
	DB	04dH
	DB	04dH
	DB	0eH
	DB	019H
	DB	019H
	DB	019H
	DB	019H
	DB	019H
	DB	08aH
	DB	019H
	DB	019H
	DB	019H
	DB	019H
	DB	0d2H
	DB	069H
	DB	03H
	DB	03H
	DB	03H
	DB	012H
	DB	012H
	DB	02H
	DB	02H
	DB	03H
	DB	01H
	DB	01H
	DB	01H
	DB	01H
	DB	01H
	DB	01H
	DB	01H
	DB	01H
	DB	01H
	DB	01H
	DB	01H
	DB	01H
	DB	01H
	DB	01H
	DB	0d0H
	DB	02H
	DB	02H
	DB	02H
	DB	02H
	DB	02H
	DB	02H
	DB	02H
	DB	02H
	DB	02H
	DB	02H
	DB	02H
	DB	02H
	DB	02H
	DB	02H
	DB	02H
	DB	02H
	DB	02H
	DB	02H
	DB	02H
	DB	02H
	DB	02H
	DB	02H
	DB	02H
	DB	02H
	DB	02H
	DB	02H
	DB	02H
	DB	02H
	DB	02H
	DB	02H
	DB	02H
	DB	02H
	DB	02H
	DB	02H
	DB	02H
	DB	02H
	DB	02H
	DB	02H
	DB	02H
	DB	02H
	DB	02H
	DB	02H
	DB	02H
	DB	02H
	DB	02H
	DB	02H
	DB	02H
	DB	02H
	DB	02H
	DB	02H
	DB	02H
	DB	02H
	DB	02H
	DB	02H
	DB	02H
	DB	02H
	DB	02H
	DB	02H
	DB	02H
	DB	02H
	DB	02H
	DB	02H
	DB	02H
	DB	02H
	DB	02H
	DB	02H
	DB	02H
	DB	02H
	DB	02H
	DB	02H
	DB	02H
	DB	02H
	DB	02H
	DB	02H
	DB	02H
	DB	02H
	DB	02H
	DB	02H
	DB	02H
	DB	02H
	DB	02H
	DB	02H
	DB	02H
	DB	02H
	DB	02H
	DB	02H
	DB	02H
	DB	02H
	DB	02H
	DB	02H
	DB	02H
	DB	02H
	DB	02H
	DB	02H
	DB	02H
	DB	02H
	DB	02H
	DB	02H
	DB	02H
	DB	02H
	DB	02H
	DB	02H
	DB	02H
	DB	02H
	DB	02H
	DB	02H
	DB	02H
	DB	02H
	DB	02H
	DB	02H
	DB	02H
	DB	02H
	DB	02H
	DB	02H
	DB	02H
	DB	02H
	DB	02H
	DB	02H
	DB	02H
	DB	02H
	DB	02H
	DB	02H
	DB	0d4H
	DB	012H
	DB	012H
	DB	03H
	DB	069H
	DB	069H
	DB	027H
	DB	04dH
	DB	021H
	DB	045H
	DB	045H
	DB	045H
	DB	045H
	DB	045H
	DB	021H
	DB	021H
	DB	021H
	DB	02dH
	DB	04dH
	DB	04dH
	DB	0eH
	DB	019H
	DB	019H
	DB	019H
	DB	019H
	DB	019H
	DB	08aH
	DB	019H
	DB	019H
	DB	0d2H
	DB	069H
	DB	069H
	DB	03H
	DB	03H
	DB	03H
	DB	012H
	DB	012H
	DB	0d4H
	DB	02H
	DB	02H
	DB	03H
	DB	01H
	DB	01H
	DB	01H
	DB	01H
	DB	01H
	DB	01H
	DB	01H
	DB	01H
	DB	01H
	DB	01H
	DB	01H
	DB	01H
	DB	01H
	DB	01H
	DB	01H
	DB	069H
	DB	02H
	DB	02H
	DB	02H
	DB	02H
	DB	02H
	DB	02H
	DB	02H
	DB	02H
	DB	02H
	DB	02H
	DB	02H
	DB	02H
	DB	02H
	DB	02H
	DB	02H
	DB	02H
	DB	02H
	DB	02H
	DB	02H
	DB	02H
	DB	02H
	DB	02H
	DB	02H
	DB	02H
	DB	02H
	DB	02H
	DB	02H
	DB	02H
	DB	02H
	DB	02H
	DB	02H
	DB	02H
	DB	02H
	DB	02H
	DB	02H
	DB	02H
	DB	02H
	DB	02H
	DB	02H
	DB	02H
	DB	02H
	DB	02H
	DB	02H
	DB	02H
	DB	02H
	DB	02H
	DB	02H
	DB	02H
	DB	02H
	DB	02H
	DB	02H
	DB	02H
	DB	02H
	DB	02H
	DB	02H
	DB	02H
	DB	02H
	DB	02H
	DB	02H
	DB	02H
	DB	02H
	DB	02H
	DB	02H
	DB	02H
	DB	02H
	DB	02H
	DB	02H
	DB	02H
	DB	02H
	DB	02H
	DB	02H
	DB	02H
	DB	02H
	DB	02H
	DB	02H
	DB	02H
	DB	02H
	DB	02H
	DB	02H
	DB	02H
	DB	02H
	DB	02H
	DB	02H
	DB	02H
	DB	02H
	DB	02H
	DB	02H
	DB	02H
	DB	02H
	DB	02H
	DB	02H
	DB	02H
	DB	02H
	DB	02H
	DB	02H
	DB	02H
	DB	02H
	DB	02H
	DB	02H
	DB	02H
	DB	02H
	DB	02H
	DB	02H
	DB	02H
	DB	02H
	DB	02H
	DB	02H
	DB	02H
	DB	02H
	DB	02H
	DB	02H
	DB	02H
	DB	02H
	DB	02H
	DB	02H
	DB	02H
	DB	02H
	DB	02H
	DB	02H
	DB	02H
	DB	02H
	DB	02H
	DB	02H
	DB	0d3H
	DB	012H
	DB	03H
	DB	03H
	DB	069H
	DB	069H
	DB	0d2H
	DB	019H
	DB	02dH
	DB	021H
	DB	045H
	DB	045H
	DB	045H
	DB	021H
	DB	021H
	DB	02dH
	DB	04dH
	DB	04dH
	DB	0eH
	DB	019H
	DB	019H
	DB	019H
	DB	019H
	DB	027H
	DB	02aH
	DB	02aH
	DB	069H
	DB	069H
	DB	03H
	DB	03H
	DB	03H
	DB	03H
	DB	012H
	DB	0d3H
	DB	02H
	DB	02H
	DB	02H
	DB	012H
	DB	01H
	DB	01H
	DB	01H
	DB	01H
	DB	01H
	DB	01H
	DB	01H
	DB	01H
	DB	01H
	DB	01H
	DB	01H
	DB	01H
	DB	01H
	DB	01H
	DB	01H
	DB	01H
	DB	01H
	DB	011H
	DB	0d0H
	DB	0d0H
	DB	0d0H
	DB	0d0H
	DB	0d0H
	DB	0d0H
	DB	0d0H
	DB	0d0H
	DB	0d0H
	DB	0d0H
	DB	0d0H
	DB	0d0H
	DB	0d0H
	DB	0d0H
	DB	0d0H
	DB	0d0H
	DB	0d0H
	DB	0d0H
	DB	0d0H
	DB	0d0H
	DB	0d0H
	DB	0d0H
	DB	0d0H
	DB	0d0H
	DB	0d0H
	DB	0d0H
	DB	0d0H
	DB	0d0H
	DB	0d0H
	DB	0d0H
	DB	0d0H
	DB	0d0H
	DB	0d0H
	DB	0d0H
	DB	0d0H
	DB	0d0H
	DB	0d0H
	DB	0d0H
	DB	0d0H
	DB	0d0H
	DB	0d0H
	DB	0d0H
	DB	0d0H
	DB	0d0H
	DB	0d0H
	DB	0d0H
	DB	0d0H
	DB	0d0H
	DB	0d0H
	DB	0d0H
	DB	0d0H
	DB	0d0H
	DB	0d0H
	DB	0d0H
	DB	0d0H
	DB	0d0H
	DB	0d0H
	DB	0d0H
	DB	0d0H
	DB	0d0H
	DB	0d0H
	DB	0d0H
	DB	0d0H
	DB	0d0H
	DB	0d0H
	DB	0d0H
	DB	0d0H
	DB	0d0H
	DB	0d0H
	DB	0d0H
	DB	0d0H
	DB	0d0H
	DB	0d0H
	DB	0d0H
	DB	0d0H
	DB	0d0H
	DB	0d0H
	DB	0d0H
	DB	0d0H
	DB	0d0H
	DB	0d0H
	DB	0d0H
	DB	0d0H
	DB	0d0H
	DB	0d0H
	DB	0d0H
	DB	0d0H
	DB	0d0H
	DB	0d0H
	DB	0d0H
	DB	0d0H
	DB	0d0H
	DB	0d0H
	DB	0d0H
	DB	0d0H
	DB	0d0H
	DB	0d0H
	DB	0d0H
	DB	0d0H
	DB	0d0H
	DB	0d0H
	DB	0d0H
	DB	0d0H
	DB	0d0H
	DB	0d0H
	DB	0d0H
	DB	0d0H
	DB	0d0H
	DB	0d0H
	DB	0d0H
	DB	0d0H
	DB	0d0H
	DB	0d0H
	DB	0d0H
	DB	0d0H
	DB	0d0H
	DB	0d0H
	DB	0d0H
	DB	0d0H
	DB	0d0H
	DB	0d0H
	DB	0d0H
	DB	01fH
	DB	01fH
	DB	011H
	DB	01H
	DB	01H
	DB	01H
	DB	01H
	DB	01H
	DB	01H
	DB	011H
	DB	040H
	DB	060H
	DB	070H
	DB	070H
	DB	070H
	DB	070H
	DB	070H
	DB	025H
	DB	060H
	DB	0d1H
	DB	040H
	DB	011H
	DB	011H
	DB	01H
	DB	01H
	DB	01H
	DB	01H
	DB	01H
	DB	01H
	DB	01H
	DB	011H
	DB	01fH
	DB	01fH
	DB	0d0H
	DB	0d0H
	DB	0d0H
	DB	01fH
	DB	01H
	DB	01H
	DB	01H
	DB	01H
	DB	01H
	DB	01H
	DB	01H
	DB	01H
	DB	01H
	DB	01H
	DB	01H
	DB	01H
	DB	01H
	DB	01H
	DB	01H
	DB	01H
	DB	01H
	DB	01H
	DB	01H
	DB	01H
	DB	01H
	DB	01H
	DB	01H
	DB	01H
	DB	01H
	DB	01H
	DB	01H
	DB	01H
	DB	01H
	DB	01H
	DB	01H
	DB	01H
	DB	01H
	DB	01H
	DB	01H
	DB	01H
	DB	01H
	DB	01H
	DB	01H
	DB	01H
	DB	01H
	DB	01H
	DB	01H
	DB	01H
	DB	01H
	DB	01H
	DB	01H
	DB	01H
	DB	01H
	DB	01H
	DB	01H
	DB	01H
	DB	01H
	DB	01H
	DB	01H
	DB	01H
	DB	01H
	DB	01H
	DB	01H
	DB	01H
	DB	01H
	DB	01H
	DB	01H
	DB	01H
	DB	01H
	DB	01H
	DB	01H
	DB	01H
	DB	01H
	DB	01H
	DB	01H
	DB	01H
	DB	01H
	DB	01H
	DB	01H
	DB	01H
	DB	01H
	DB	01H
	DB	01H
	DB	01H
	DB	01H
	DB	01H
	DB	01H
	DB	01H
	DB	01H
	DB	01H
	DB	01H
	DB	01H
	DB	01H
	DB	01H
	DB	01H
	DB	01H
	DB	01H
	DB	01H
	DB	01H
	DB	01H
	DB	01H
	DB	01H
	DB	01H
	DB	01H
	DB	01H
	DB	01H
	DB	01H
	DB	01H
	DB	01H
	DB	01H
	DB	01H
	DB	01H
	DB	01H
	DB	01H
	DB	01H
	DB	01H
	DB	01H
	DB	01H
	DB	01H
	DB	01H
	DB	01H
	DB	01H
	DB	01H
	DB	01H
	DB	01H
	DB	01H
	DB	01H
	DB	01H
	DB	01H
	DB	01H
	DB	01H
	DB	01H
	DB	01H
	DB	01H
	DB	01H
	DB	01H
	DB	01H
	DB	01H
	DB	01H
	DB	01H
	DB	01H
	DB	01H
	DB	01H
	DB	01H
	DB	01H
	DB	01H
	DB	01H
	DB	01H
	DB	01H
	DB	01H
	DB	01H
	DB	01H
	DB	01H
	DB	01H
	DB	01H
	DB	01H
	DB	01H
	DB	01H
	DB	01H
	DB	01H
	DB	01H
	DB	01H
	DB	01H
	DB	01H
	DB	01H
	DB	01H
	DB	01H
	DB	01H
	DB	01H
	DB	01H
	DB	01H
	DB	01H
	DB	01H
	DB	01H
	DB	01H
	DB	01H
	DB	01H
	DB	01H
	DB	01H
	DB	01H
	DB	01H
	DB	01H
	DB	01H
	DB	01H
	DB	01H
	DB	01H
	DB	01H
	DB	01H
	DB	01H
	DB	01H
	DB	01H
	DB	01H
	DB	01H
	DB	01H
	DB	01H
	DB	01H
	DB	01H
	DB	01H
	DB	01H
	DB	01H
	DB	01H
	DB	01H
	DB	01H
	DB	01H
	DB	01H
	DB	01H
	DB	01H
	DB	01H
	DB	01H
	DB	01H
	DB	01H
	DB	01H
	DB	01H
	DB	01H
	DB	01H
	DB	01H
	DB	01H
	DB	01H
	DB	01H
	DB	01H
	DB	01H
	DB	01H
	DB	01H
	DB	01H
	DB	01H
	DB	01H
	DB	01H
	DB	01H
	DB	01H
	DB	01H
	DB	01H
	DB	01H
	DB	01H
	DB	01H
	DB	01H
	DB	01H
	DB	01H
	DB	01H
	DB	01H
	DB	01H
	DB	01H
	DB	01H
	DB	01H
	DB	01H
	DB	01H
	DB	01H
	DB	01H
	DB	01H
	DB	01H
	DB	01H
	DB	01H
	DB	01H
	DB	01H
	DB	01H
	DB	01H
	DB	01H
	DB	01H
	DB	01H
	DB	01H
	DB	01H
	DB	01H
	DB	01H
	DB	01H
	DB	01H
	DB	01H
	DB	01H
	DB	01H
	DB	01H
	DB	01H
	DB	01H
	DB	01H
	DB	01H
	DB	01H
	DB	01H
	DB	01H
	DB	01H
	DB	01H
	DB	01H
	DB	01H
	DB	01H
	DB	01H
	DB	01H
	DB	01H
	DB	01H
	DB	01H
	DB	01H
	DB	01H
	DB	01H
	DB	01H
	DB	01H
	DB	01H
	DB	01H
	DB	01H
	DB	01H
	DB	01H
	DB	01H
	DB	01H
	DB	01H
	DB	01H
	DB	01H
	DB	01H
	DB	01H
	DB	01H
	DB	01H
	DB	01H
	DB	01H
	DB	01H
	DB	01H
	DB	01H
	DB	01H
	DB	01H
	DB	01H
	DB	01H
	DB	01H
	DB	01H
	DB	01H
	DB	01H
	DB	01H
	DB	01H
	DB	01H
	DB	01H
	DB	01H
	DB	01H
	DB	01H
	DB	01H
	DB	01H
	DB	01H
	DB	01H
	DB	01H
	DB	01H
	DB	01H
	DB	01H
	DB	01H
	DB	01H
	DB	01H
	DB	01H
	DB	01H
	DB	01H
	DB	01H
	DB	01H
	DB	01H
	DB	01H
	DB	01H
	DB	01H
	DB	01H
	DB	01H
	DB	01H
	DB	01H
	DB	01H
	DB	01H
	DB	01H
	DB	01H
	DB	01H
	DB	01H
	DB	01H
	DB	01H
	DB	01H
	DB	01H
	DB	01H
	DB	01H
	DB	01H
	DB	01H
	DB	01H
	DB	01H
	DB	01H
	DB	01H
	DB	01H
	DB	01H
	DB	01H
	DB	01H
	DB	01H
	DB	01H
	DB	01H
	DB	01H
	DB	01H
	DB	01H
	DB	01H
	DB	01H
	DB	01H
	DB	01H
	DB	01H
	DB	01H
	DB	01H
	DB	01H
	DB	01H
	DB	01H
	DB	01H
	DB	01H
	DB	01H
	DB	01H
	DB	01H
	DB	01H
	DB	01H
	DB	01H
	DB	01H
	DB	01H
	DB	01H
	DB	01H
	DB	01H
	DB	01H
	DB	01H
	DB	01H
	DB	01H
	DB	01H
	DB	01H
	DB	01H
	DB	01H
	DB	01H
	DB	01H
	DB	01H
	DB	01H
	DB	01H
	DB	01H
	DB	01H
	DB	01H
	DB	01H
	DB	01H
	DB	01H
	DB	01H
	DB	01H
	DB	01H
	DB	01H
	DB	01H
	DB	01H
	DB	01H
	DB	01H
	DB	01H
	DB	01H
	DB	01H
	DB	01H
	DB	01H
	DB	01H
	DB	01H
	DB	01H
	DB	01H
	DB	01H
	DB	01H
	DB	01H
	DB	01H
	DB	01H
	DB	01H
	DB	01H
	DB	01H
	DB	01H
	DB	01H
	DB	01H
	DB	01H
	DB	01H
	DB	01H
	DB	01H
	DB	01H
	DB	01H
	DB	01H
	DB	01H
	DB	01H
	DB	01H
	DB	01H
	DB	01H
	DB	01H
	DB	01H
	DB	01H
	DB	01H
	DB	01H
	DB	01H
	DB	01H
	DB	01H
	DB	01H
	DB	01H
	DB	01H
	DB	01H
	DB	01H
	DB	01H
	DB	01H
	DB	01H
	DB	01H
	DB	01H
	DB	01H
	DB	01H
	DB	01H
	DB	01H
	DB	01H
	DB	01H
	DB	01H
	DB	01H
	DB	01H
	DB	01H
	DB	01H
	DB	01H
	DB	01H
	DB	01H
	DB	01H
	DB	01H
	DB	01H
	DB	01H
	DB	01H
	DB	01H
	DB	01H
	DB	01H
	DB	01H
	DB	01H
	DB	01H
	DB	01H
	DB	01H
	DB	01H
	DB	01H
	DB	01H
	DB	01H
	DB	01H
	DB	01H
	DB	01H
	DB	01H
	DB	01H
	DB	01H
	DB	01H
	DB	01H
	DB	01H
	DB	01H
	DB	01H
	DB	01H
	DB	01H
	DB	01H
	DB	01H
	DB	01H
	DB	01H
	DB	01H
	DB	01H
	DB	01H
	DB	01H
	DB	01H
	DB	01H
	DB	01H
	DB	01H
	DB	01H
	DB	01H
	DB	01H
	DB	01H
	DB	01H
	DB	01H
	DB	01H
	DB	01H
	DB	01H
	DB	01H
	DB	01H
	DB	01H
	DB	01H
	DB	01H
	DB	01H
	DB	01H
	DB	01H
	DB	01H
	DB	01H
	DB	01H
	DB	01H
	DB	01H
	DB	01H
	DB	01H
	DB	01H
	DB	01H
	DB	01H
	DB	01H
	DB	01H
	DB	01H
	DB	01H
	DB	01H
	DB	01H
	DB	01H
	DB	01H
	DB	01H
	DB	01H
	DB	01H
	DB	01H
	DB	01H
	DB	01H
	DB	01H
	DB	01H
	DB	01H
	DB	01H
	DB	01H
	DB	01H
	DB	01H
	DB	01H
	DB	01H
	DB	01H
	DB	01H
	DB	01H
	DB	01H
	DB	01H
	DB	01H
	DB	01H
	DB	01H
	DB	01H
	DB	01H
	DB	01H
	DB	01H
	DB	01H
	DB	01H
	DB	01H
	DB	01H
	DB	01H
	DB	01H
	DB	01H
	DB	01H
	DB	01H
	DB	01H
	DB	01H
	DB	01H
	DB	01H
	DB	01H
	DB	01H
	DB	01H
	DB	01H
	DB	01H
	DB	01H
	DB	01H
	DB	01H
	DB	01H
	DB	01H
	DB	01H
	DB	01H
	DB	01H
	DB	01H
	DB	01H
	DB	01H
	DB	01H
	DB	01H
	DB	01H
	DB	01H
	DB	01H
	DB	01H
	DB	01H
	DB	01H
	DB	01H
	DB	01H
	DB	01H
	DB	01H
	DB	01H
	DB	01H
	DB	01H
	DB	01H
	DB	01H
	DB	01H
	DB	01H
	DB	01H
	DB	01H
	DB	01H
	DB	01H
	DB	01H
	DB	01H
	DB	01H
	DB	01H
	DB	01H
	DB	01H
	DB	01H
	DB	01H
	DB	01H
	DB	01H
	DB	01H
	DB	01H
	DB	01H
	DB	01H
	DB	01H
	DB	01H
	DB	01H
	DB	01H
	DB	01H
	DB	01H
	DB	01H
	DB	01H
	DB	01H
	DB	01H
	DB	01H
	DB	01H
	DB	01H
	DB	01H
	DB	01H
	DB	01H
	DB	01H
	DB	01H
	DB	01H
	DB	01H
	DB	01H
	DB	01H
	DB	01H
	DB	01H
	DB	01H
	DB	01H
	DB	01H
	DB	01H
	DB	01H
	DB	01H
	DB	01H
	DB	01H
	DB	01H
	DB	01H
	DB	01H
	DB	01H
	DB	01H
	DB	01H
	DB	01H
	DB	01H
	DB	01H
	DB	01H
	DB	01H
	DB	01H
	DB	01H
	DB	01H
	DB	01H
	DB	01H
	DB	01H
	DB	01H
	DB	01H
	DB	01H
	DB	01H
	DB	01H
	DB	01H
	DB	01H
	DB	01H
	DB	01H
	DB	01H
	DB	01H
	DB	01H
	DB	01H
	DB	01H
	DB	01H
	DB	01H
	DB	01H
	DB	01H
	DB	01H
	DB	01H
	DB	01H
	DB	01H
	DB	01H
	DB	01H
	DB	01H
	DB	01H
	DB	01H
	DB	01H
	DB	06H
	DB	012H
	DB	012H
	DB	012H
	DB	012H
	DB	012H
	DB	012H
	DB	012H
	DB	06H
	DB	01H
	DB	01H
	DB	01H
	DB	01H
	DB	01H
	DB	01H
	DB	01H
	DB	01H
	DB	01H
	DB	01H
	DB	01H
	DB	01H
	DB	01H
	DB	01H
	DB	01H
	DB	01H
	DB	01H
	DB	01H
	DB	01H
	DB	01H
	DB	01H
	DB	01H
	DB	01H
	DB	01H
	DB	01H
	DB	01H
	DB	01H
	DB	01H
	DB	01H
	DB	01H
	DB	01H
	DB	01H
	DB	01H
	DB	01H
	DB	01H
	DB	01H
	DB	01H
	DB	01H
	DB	01H
	DB	01H
	DB	01H
	DB	01H
	DB	01H
	DB	01H
	DB	01H
	DB	01H
	DB	01H
	DB	01H
	DB	01H
	DB	01H
	DB	01H
	DB	01H
	DB	01H
	DB	01H
	DB	01H
	DB	01H
	DB	01H
	DB	03H
	DB	012H
	DB	012H
	DB	012H
	DB	012H
	DB	012H
	DB	012H
	DB	03H
	DB	01H
	DB	01H
	DB	01H
	DB	01H
	DB	01H
	DB	01H
	DB	01H
	DB	01H
	DB	01H
	DB	01H
	DB	01H
	DB	01H
	DB	01H
	DB	01H
	DB	01H
	DB	01H
	DB	01H
	DB	01H
	DB	01H
	DB	01H
	DB	01H
	DB	01H
	DB	01H
	DB	01H
	DB	01H
	DB	01H
	DB	01H
	DB	01H
	DB	01H
	DB	01H
	DB	01H
	DB	01H
	DB	01H
	DB	01H
	DB	01H
	DB	01H
	DB	01H
	DB	03H
	DB	012H
	DB	012H
	DB	012H
	DB	0d0H
	DB	01H
	DB	01H
	DB	01H
	DB	01H
	DB	01H
	DB	01H
	DB	01H
	DB	01H
	DB	01H
	DB	01H
	DB	01H
	DB	01H
	DB	01H
	DB	01H
	DB	01H
	DB	01H
	DB	01H
	DB	01H
	DB	01H
	DB	01H
	DB	01H
	DB	01H
	DB	01H
	DB	01H
	DB	01H
	DB	01H
	DB	01H
	DB	01H
	DB	01H
	DB	01H
	DB	01H
	DB	01H
	DB	01H
	DB	01H
	DB	01H
	DB	01H
	DB	01H
	DB	01H
	DB	01H
	DB	01H
	DB	01H
	DB	01H
	DB	01H
	DB	01H
	DB	01H
	DB	01H
	DB	01H
	DB	01H
	DB	01H
	DB	01H
	DB	01H
	DB	01H
	DB	01H
	DB	01H
	DB	01H
	DB	01H
	DB	01H
	DB	01H
	DB	01H
	DB	01H
	DB	01H
	DB	01H
	DB	0a5H
	DB	04H
	DB	04H
	DB	048H
	DB	048H
	DB	04H
	DB	04H
	DB	048H
	DB	015H
	DB	0dH
	DB	028H
	DB	01H
	DB	01H
	DB	01H
	DB	01H
	DB	01H
	DB	01H
	DB	01H
	DB	01H
	DB	01H
	DB	01H
	DB	01H
	DB	01H
	DB	01H
	DB	01H
	DB	01H
	DB	01H
	DB	01H
	DB	01H
	DB	01H
	DB	01H
	DB	01H
	DB	01H
	DB	01H
	DB	01H
	DB	01H
	DB	01H
	DB	01H
	DB	01H
	DB	01H
	DB	01H
	DB	01H
	DB	01H
	DB	01H
	DB	01H
	DB	01H
	DB	01H
	DB	01H
	DB	01H
	DB	01H
	DB	01H
	DB	01H
	DB	01H
	DB	01H
	DB	01H
	DB	01H
	DB	01H
	DB	01H
	DB	01H
	DB	01H
	DB	01H
	DB	01H
	DB	01H
	DB	01H
	DB	01H
	DB	069H
	DB	00H
	DB	04H
	DB	048H
	DB	048H
	DB	048H
	DB	04H
	DB	048H
	DB	015H
	DB	017H
	DB	031H
	DB	06H
	DB	01H
	DB	01H
	DB	01H
	DB	01H
	DB	01H
	DB	01H
	DB	01H
	DB	01H
	DB	01H
	DB	01H
	DB	01H
	DB	01H
	DB	01H
	DB	01H
	DB	01H
	DB	01H
	DB	01H
	DB	01H
	DB	01H
	DB	01H
	DB	01H
	DB	01H
	DB	01H
	DB	01H
	DB	01H
	DB	01H
	DB	01H
	DB	01H
	DB	01H
	DB	01H
	DB	01H
	DB	01H
	DB	01H
	DB	01H
	DB	052H
	DB	04H
	DB	04H
	DB	048H
	DB	02H
	DB	01H
	DB	01H
	DB	01H
	DB	01H
	DB	01H
	DB	01H
	DB	01H
	DB	01H
	DB	01H
	DB	01H
	DB	01H
	DB	01H
	DB	01H
	DB	01H
	DB	01H
	DB	01H
	DB	01H
	DB	01H
	DB	01H
	DB	01H
	DB	01H
	DB	01H
	DB	01H
	DB	01H
	DB	01H
	DB	01H
	DB	01H
	DB	01H
	DB	01H
	DB	01H
	DB	01H
	DB	01H
	DB	01H
	DB	01H
	DB	01H
	DB	01H
	DB	01H
	DB	01H
	DB	01H
	DB	01H
	DB	01H
	DB	01H
	DB	01H
	DB	01H
	DB	01H
	DB	01H
	DB	01H
	DB	01H
	DB	01H
	DB	01H
	DB	01H
	DB	01H
	DB	01H
	DB	01H
	DB	01H
	DB	01H
	DB	01H
	DB	01H
	DB	01H
	DB	01H
	DB	01H
	DB	01H
	DB	0a5H
	DB	04H
	DB	04H
	DB	04H
	DB	04H
	DB	04H
	DB	04H
	DB	04H
	DB	04H
	DB	04H
	DB	04H
	DB	0fdH
	DB	01H
	DB	01H
	DB	01H
	DB	01H
	DB	01H
	DB	01H
	DB	01H
	DB	01H
	DB	01H
	DB	01H
	DB	01H
	DB	01H
	DB	01H
	DB	01H
	DB	01H
	DB	01H
	DB	01H
	DB	01H
	DB	01H
	DB	01H
	DB	01H
	DB	01H
	DB	01H
	DB	01H
	DB	01H
	DB	01H
	DB	01H
	DB	01H
	DB	01H
	DB	01H
	DB	01H
	DB	01H
	DB	01H
	DB	01H
	DB	01H
	DB	01H
	DB	01H
	DB	01H
	DB	01H
	DB	01H
	DB	01H
	DB	01H
	DB	01H
	DB	01H
	DB	01H
	DB	01H
	DB	01H
	DB	01H
	DB	01H
	DB	01H
	DB	01H
	DB	01H
	DB	01H
	DB	069H
	DB	048H
	DB	04H
	DB	04H
	DB	04H
	DB	04H
	DB	04H
	DB	04H
	DB	04H
	DB	04H
	DB	04H
	DB	017H
	DB	06H
	DB	01H
	DB	01H
	DB	01H
	DB	01H
	DB	01H
	DB	01H
	DB	01H
	DB	01H
	DB	01H
	DB	01H
	DB	01H
	DB	01H
	DB	01H
	DB	01H
	DB	01H
	DB	01H
	DB	01H
	DB	01H
	DB	01H
	DB	01H
	DB	01H
	DB	01H
	DB	01H
	DB	01H
	DB	01H
	DB	01H
	DB	01H
	DB	01H
	DB	01H
	DB	01H
	DB	01H
	DB	01H
	DB	01H
	DB	052H
	DB	04H
	DB	04H
	DB	04H
	DB	02H
	DB	01H
	DB	01H
	DB	01H
	DB	01H
	DB	01H
	DB	01H
	DB	01H
	DB	01H
	DB	01H
	DB	01H
	DB	01H
	DB	01H
	DB	01H
	DB	01H
	DB	01H
	DB	01H
	DB	01H
	DB	01H
	DB	01H
	DB	01H
	DB	01H
	DB	01H
	DB	01H
	DB	01H
	DB	01H
	DB	01H
	DB	01H
	DB	01H
	DB	01H
	DB	01H
	DB	01H
	DB	01H
	DB	01H
	DB	01H
	DB	01H
	DB	01H
	DB	01H
	DB	01H
	DB	01H
	DB	01H
	DB	01H
	DB	01H
	DB	01H
	DB	01H
	DB	01H
	DB	01H
	DB	01H
	DB	01H
	DB	01H
	DB	01H
	DB	01H
	DB	01H
	DB	01H
	DB	01H
	DB	01H
	DB	01H
	DB	01H
	DB	01H
	DB	01H
	DB	01H
	DB	01H
	DB	01H
	DB	0a5H
	DB	04H
	DB	04H
	DB	04H
	DB	013H
	DB	0aH
	DB	0aH
	DB	026H
	DB	04H
	DB	04H
	DB	04H
	DB	04H
	DB	028H
	DB	01H
	DB	01H
	DB	01H
	DB	01H
	DB	01H
	DB	01H
	DB	01H
	DB	01H
	DB	01H
	DB	01H
	DB	01H
	DB	01H
	DB	01H
	DB	01H
	DB	01H
	DB	01H
	DB	01H
	DB	01H
	DB	01H
	DB	01H
	DB	01H
	DB	01H
	DB	01H
	DB	01H
	DB	01H
	DB	01H
	DB	01H
	DB	01H
	DB	01H
	DB	01H
	DB	01H
	DB	01H
	DB	01H
	DB	01H
	DB	01H
	DB	01H
	DB	01H
	DB	01H
	DB	01H
	DB	01H
	DB	01H
	DB	01H
	DB	01H
	DB	01H
	DB	01H
	DB	01H
	DB	01H
	DB	01H
	DB	01H
	DB	01H
	DB	01H
	DB	01H
	DB	069H
	DB	015H
	DB	04H
	DB	04H
	DB	04H
	DB	0f0H
	DB	0a5H
	DB	03cH
	DB	04H
	DB	04H
	DB	04H
	DB	04H
	DB	03cH
	DB	01H
	DB	01H
	DB	01H
	DB	01H
	DB	01H
	DB	01H
	DB	01H
	DB	01H
	DB	01H
	DB	01H
	DB	01H
	DB	01H
	DB	01H
	DB	01H
	DB	01H
	DB	01H
	DB	01H
	DB	01H
	DB	01H
	DB	01H
	DB	01H
	DB	01H
	DB	01H
	DB	01H
	DB	01H
	DB	01H
	DB	01H
	DB	01H
	DB	01H
	DB	01H
	DB	01H
	DB	01H
	DB	01H
	DB	031H
	DB	017H
	DB	0dH
	DB	0dH
	DB	012H
	DB	01H
	DB	01H
	DB	01H
	DB	01H
	DB	01H
	DB	01H
	DB	01H
	DB	01H
	DB	01H
	DB	01H
	DB	01H
	DB	01H
	DB	01H
	DB	01H
	DB	01H
	DB	01H
	DB	01H
	DB	01H
	DB	01H
	DB	01H
	DB	01H
	DB	01H
	DB	01H
	DB	01H
	DB	01H
	DB	01H
	DB	01H
	DB	01H
	DB	01H
	DB	01H
	DB	01H
	DB	01H
	DB	01H
	DB	01H
	DB	01H
	DB	01H
	DB	01H
	DB	01H
	DB	01H
	DB	01H
	DB	01H
	DB	01H
	DB	01H
	DB	01H
	DB	01H
	DB	01H
	DB	01H
	DB	01H
	DB	01H
	DB	01H
	DB	01H
	DB	01H
	DB	01H
	DB	01H
	DB	01H
	DB	01H
	DB	01H
	DB	01H
	DB	01H
	DB	01H
	DB	01H
	DB	01H
	DB	0a5H
	DB	04H
	DB	04H
	DB	04H
	DB	0dH
	DB	01H
	DB	01H
	DB	01H
	DB	026H
	DB	04H
	DB	04H
	DB	04H
	DB	08H
	DB	01H
	DB	01H
	DB	01H
	DB	01H
	DB	01H
	DB	01H
	DB	01H
	DB	01H
	DB	01H
	DB	01H
	DB	01H
	DB	01H
	DB	01H
	DB	01H
	DB	01H
	DB	01H
	DB	01H
	DB	01H
	DB	01H
	DB	01H
	DB	01H
	DB	01H
	DB	01H
	DB	0d0H
	DB	06H
	DB	06H
	DB	01H
	DB	01H
	DB	01H
	DB	01H
	DB	01H
	DB	01H
	DB	01H
	DB	01H
	DB	01H
	DB	01H
	DB	06H
	DB	06H
	DB	0d0H
	DB	01H
	DB	01H
	DB	01H
	DB	01H
	DB	01H
	DB	01H
	DB	01H
	DB	01H
	DB	01H
	DB	01H
	DB	01H
	DB	01H
	DB	01H
	DB	069H
	DB	015H
	DB	04H
	DB	04H
	DB	04H
	DB	03H
	DB	01H
	DB	01H
	DB	0aH
	DB	04H
	DB	04H
	DB	04H
	DB	015H
	DB	069H
	DB	01H
	DB	01H
	DB	01H
	DB	01H
	DB	01H
	DB	01H
	DB	01H
	DB	06H
	DB	06H
	DB	0d0H
	DB	01H
	DB	01H
	DB	01H
	DB	01H
	DB	01H
	DB	01H
	DB	01H
	DB	01H
	DB	01H
	DB	01H
	DB	01H
	DB	01H
	DB	01H
	DB	01H
	DB	01H
	DB	01H
	DB	01H
	DB	01H
	DB	01H
	DB	01H
	DB	01H
	DB	01H
	DB	01H
	DB	01H
	DB	01H
	DB	01H
	DB	01H
	DB	01H
	DB	01H
	DB	01H
	DB	01H
	DB	01H
	DB	01H
	DB	01H
	DB	01H
	DB	06H
	DB	06H
	DB	011H
	DB	01H
	DB	01H
	DB	01H
	DB	01H
	DB	01H
	DB	01H
	DB	01H
	DB	01H
	DB	01H
	DB	01H
	DB	01H
	DB	01H
	DB	01H
	DB	01H
	DB	01H
	DB	01H
	DB	01H
	DB	01H
	DB	01H
	DB	01H
	DB	01H
	DB	01H
	DB	01H
	DB	01H
	DB	01H
	DB	01H
	DB	01H
	DB	01H
	DB	01H
	DB	01H
	DB	01H
	DB	01H
	DB	01H
	DB	01H
	DB	01H
	DB	01H
	DB	01H
	DB	01H
	DB	01H
	DB	01H
	DB	01H
	DB	01H
	DB	01H
	DB	01H
	DB	01H
	DB	01H
	DB	01H
	DB	01H
	DB	01H
	DB	01H
	DB	01H
	DB	0a5H
	DB	04H
	DB	04H
	DB	04H
	DB	0dH
	DB	01H
	DB	01H
	DB	01H
	DB	028H
	DB	04H
	DB	04H
	DB	04H
	DB	017H
	DB	0d0H
	DB	01H
	DB	01H
	DB	01H
	DB	01H
	DB	03H
	DB	0aH
	DB	052H
	DB	026H
	DB	0dH
	DB	0dH
	DB	052H
	DB	028H
	DB	01H
	DB	01H
	DB	01H
	DB	01H
	DB	01H
	DB	01H
	DB	01H
	DB	0d0H
	DB	0aH
	DB	08H
	DB	017H
	DB	013H
	DB	013H
	DB	0dH
	DB	0fdH
	DB	03H
	DB	01H
	DB	01H
	DB	01H
	DB	01H
	DB	06H
	DB	031H
	DB	0dH
	DB	017H
	DB	013H
	DB	017H
	DB	08H
	DB	0a5H
	DB	01H
	DB	01H
	DB	01H
	DB	01H
	DB	01H
	DB	01H
	DB	01H
	DB	01H
	DB	01H
	DB	01H
	DB	01H
	DB	069H
	DB	015H
	DB	04H
	DB	04H
	DB	04H
	DB	03H
	DB	01H
	DB	01H
	DB	069H
	DB	015H
	DB	04H
	DB	04H
	DB	04H
	DB	02H
	DB	01H
	DB	01H
	DB	01H
	DB	01H
	DB	06H
	DB	031H
	DB	026H
	DB	017H
	DB	00H
	DB	017H
	DB	08H
	DB	0a5H
	DB	011H
	DB	01H
	DB	01H
	DB	0d0H
	DB	0fdH
	DB	08H
	DB	08H
	DB	08H
	DB	012H
	DB	01H
	DB	01H
	DB	01H
	DB	01H
	DB	01H
	DB	01H
	DB	028H
	DB	08H
	DB	08H
	DB	0a5H
	DB	01H
	DB	0aH
	DB	08H
	DB	08H
	DB	052H
	DB	03H
	DB	01H
	DB	01H
	DB	01H
	DB	01H
	DB	01H
	DB	012H
	DB	03cH
	DB	050H
	DB	013H
	DB	013H
	DB	0dH
	DB	03cH
	DB	012H
	DB	01H
	DB	01H
	DB	01H
	DB	02H
	DB	08H
	DB	08H
	DB	08H
	DB	052H
	DB	06H
	DB	01H
	DB	01H
	DB	01H
	DB	01H
	DB	069H
	DB	052H
	DB	052H
	DB	069H
	DB	01H
	DB	01H
	DB	01H
	DB	01H
	DB	01H
	DB	031H
	DB	08H
	DB	08H
	DB	02H
	DB	01H
	DB	01H
	DB	01H
	DB	01H
	DB	01H
	DB	01H
	DB	01H
	DB	01H
	DB	01H
	DB	01H
	DB	01H
	DB	01H
	DB	01H
	DB	01H
	DB	01H
	DB	01H
	DB	01H
	DB	01H
	DB	01H
	DB	01H
	DB	01H
	DB	01H
	DB	01H
	DB	0a5H
	DB	04H
	DB	04H
	DB	04H
	DB	0dH
	DB	01H
	DB	01H
	DB	01H
	DB	02H
	DB	04H
	DB	04H
	DB	04H
	DB	013H
	DB	0d0H
	DB	01H
	DB	01H
	DB	01H
	DB	0aH
	DB	04H
	DB	04H
	DB	04H
	DB	04H
	DB	04H
	DB	04H
	DB	04H
	DB	04H
	DB	08H
	DB	0d0H
	DB	01H
	DB	01H
	DB	01H
	DB	01H
	DB	02H
	DB	013H
	DB	04H
	DB	04H
	DB	04H
	DB	04H
	DB	04H
	DB	04H
	DB	04H
	DB	08H
	DB	01H
	DB	01H
	DB	01H
	DB	012H
	DB	017H
	DB	04H
	DB	04H
	DB	04H
	DB	04H
	DB	04H
	DB	04H
	DB	04H
	DB	08H
	DB	0d0H
	DB	01H
	DB	01H
	DB	01H
	DB	01H
	DB	01H
	DB	01H
	DB	01H
	DB	01H
	DB	01H
	DB	069H
	DB	015H
	DB	04H
	DB	04H
	DB	04H
	DB	03H
	DB	01H
	DB	01H
	DB	0d0H
	DB	017H
	DB	04H
	DB	04H
	DB	04H
	DB	02H
	DB	01H
	DB	01H
	DB	01H
	DB	012H
	DB	013H
	DB	04H
	DB	04H
	DB	04H
	DB	04H
	DB	04H
	DB	04H
	DB	04H
	DB	08H
	DB	0d0H
	DB	01H
	DB	01H
	DB	08H
	DB	04H
	DB	04H
	DB	04H
	DB	09H
	DB	01H
	DB	01H
	DB	01H
	DB	01H
	DB	01H
	DB	0d0H
	DB	017H
	DB	04H
	DB	04H
	DB	02H
	DB	01H
	DB	052H
	DB	04H
	DB	04H
	DB	04H
	DB	02H
	DB	01H
	DB	01H
	DB	01H
	DB	01H
	DB	031H
	DB	04H
	DB	04H
	DB	04H
	DB	04H
	DB	04H
	DB	04H
	DB	04H
	DB	04H
	DB	0a5H
	DB	01H
	DB	01H
	DB	03H
	DB	04H
	DB	04H
	DB	04H
	DB	04H
	DB	028H
	DB	01H
	DB	01H
	DB	01H
	DB	01H
	DB	0a5H
	DB	04H
	DB	04H
	DB	0aH
	DB	01H
	DB	01H
	DB	01H
	DB	01H
	DB	069H
	DB	048H
	DB	04H
	DB	048H
	DB	03H
	DB	01H
	DB	01H
	DB	01H
	DB	01H
	DB	01H
	DB	01H
	DB	01H
	DB	01H
	DB	01H
	DB	01H
	DB	01H
	DB	01H
	DB	01H
	DB	01H
	DB	01H
	DB	01H
	DB	01H
	DB	01H
	DB	01H
	DB	01H
	DB	01H
	DB	01H
	DB	01H
	DB	0a5H
	DB	04H
	DB	04H
	DB	04H
	DB	0dH
	DB	01H
	DB	01H
	DB	01H
	DB	0aH
	DB	04H
	DB	04H
	DB	04H
	DB	0dH
	DB	01fH
	DB	01H
	DB	01H
	DB	01H
	DB	0aH
	DB	04H
	DB	013H
	DB	026H
	DB	026H
	DB	0dH
	DB	015H
	DB	04H
	DB	04H
	DB	04H
	DB	09H
	DB	01H
	DB	01H
	DB	01H
	DB	012H
	DB	048H
	DB	04H
	DB	04H
	DB	04H
	DB	015H
	DB	08H
	DB	09H
	DB	08H
	DB	048H
	DB	09H
	DB	01H
	DB	01H
	DB	03H
	DB	015H
	DB	04H
	DB	04H
	DB	013H
	DB	0aH
	DB	02H
	DB	0fdH
	DB	04H
	DB	04H
	DB	04H
	DB	052H
	DB	01H
	DB	01H
	DB	01H
	DB	01H
	DB	01H
	DB	01H
	DB	01H
	DB	01H
	DB	01H
	DB	069H
	DB	015H
	DB	04H
	DB	04H
	DB	04H
	DB	03H
	DB	01H
	DB	01H
	DB	03H
	DB	015H
	DB	04H
	DB	04H
	DB	04H
	DB	012H
	DB	01H
	DB	01H
	DB	03H
	DB	00H
	DB	04H
	DB	04H
	DB	00H
	DB	0aH
	DB	02H
	DB	09H
	DB	04H
	DB	04H
	DB	04H
	DB	052H
	DB	01H
	DB	01H
	DB	02H
	DB	04H
	DB	04H
	DB	04H
	DB	015H
	DB	0d0H
	DB	01H
	DB	01H
	DB	01H
	DB	01H
	DB	028H
	DB	04H
	DB	04H
	DB	0dH
	DB	01H
	DB	01H
	DB	052H
	DB	04H
	DB	04H
	DB	04H
	DB	02H
	DB	01H
	DB	01H
	DB	01H
	DB	0aH
	DB	04H
	DB	04H
	DB	04H
	DB	08H
	DB	02H
	DB	028H
	DB	050H
	DB	04H
	DB	04H
	DB	04H
	DB	02H
	DB	01H
	DB	01H
	DB	08H
	DB	04H
	DB	04H
	DB	04H
	DB	08H
	DB	01H
	DB	01H
	DB	01H
	DB	01H
	DB	08H
	DB	04H
	DB	04H
	DB	026H
	DB	01H
	DB	01H
	DB	01H
	DB	01H
	DB	031H
	DB	04H
	DB	04H
	DB	052H
	DB	01H
	DB	01H
	DB	01H
	DB	01H
	DB	01H
	DB	01H
	DB	01H
	DB	01H
	DB	01H
	DB	01H
	DB	01H
	DB	01H
	DB	01H
	DB	01H
	DB	01H
	DB	01H
	DB	01H
	DB	01H
	DB	01H
	DB	01H
	DB	01H
	DB	01H
	DB	01H
	DB	01H
	DB	0a5H
	DB	04H
	DB	04H
	DB	04H
	DB	0dH
	DB	01H
	DB	01H
	DB	0d0H
	DB	0dH
	DB	04H
	DB	04H
	DB	04H
	DB	09H
	DB	01H
	DB	01H
	DB	01H
	DB	01H
	DB	069H
	DB	0d3H
	DB	0d0H
	DB	01H
	DB	01H
	DB	01H
	DB	012H
	DB	00H
	DB	04H
	DB	04H
	DB	015H
	DB	0d0H
	DB	01H
	DB	01H
	DB	0dH
	DB	04H
	DB	04H
	DB	04H
	DB	0dH
	DB	069H
	DB	01H
	DB	01H
	DB	01H
	DB	069H
	DB	03H
	DB	01H
	DB	01H
	DB	08H
	DB	04H
	DB	04H
	DB	048H
	DB	012H
	DB	01H
	DB	01H
	DB	01H
	DB	0fdH
	DB	04H
	DB	04H
	DB	04H
	DB	012H
	DB	01H
	DB	01H
	DB	01H
	DB	01H
	DB	01H
	DB	01H
	DB	01H
	DB	01H
	DB	069H
	DB	015H
	DB	04H
	DB	04H
	DB	04H
	DB	03H
	DB	01H
	DB	01H
	DB	0f0H
	DB	04H
	DB	04H
	DB	04H
	DB	013H
	DB	0d0H
	DB	01H
	DB	01H
	DB	052H
	DB	04H
	DB	04H
	DB	04H
	DB	0d3H
	DB	01H
	DB	01H
	DB	01H
	DB	09H
	DB	04H
	DB	04H
	DB	04H
	DB	0d4H
	DB	01H
	DB	01fH
	DB	0dH
	DB	04H
	DB	04H
	DB	04H
	DB	0a5H
	DB	01H
	DB	01H
	DB	01H
	DB	01H
	DB	08H
	DB	04H
	DB	04H
	DB	028H
	DB	01H
	DB	01H
	DB	052H
	DB	04H
	DB	04H
	DB	04H
	DB	02H
	DB	01H
	DB	01H
	DB	03H
	DB	015H
	DB	04H
	DB	04H
	DB	0dH
	DB	01H
	DB	01H
	DB	01H
	DB	069H
	DB	00H
	DB	04H
	DB	04H
	DB	0dH
	DB	011H
	DB	01H
	DB	0a5H
	DB	04H
	DB	04H
	DB	04H
	DB	015H
	DB	03H
	DB	01H
	DB	01H
	DB	03H
	DB	04H
	DB	04H
	DB	04H
	DB	04H
	DB	03H
	DB	01H
	DB	01H
	DB	01H
	DB	0dH
	DB	04H
	DB	04H
	DB	0d4H
	DB	01H
	DB	01H
	DB	01H
	DB	01H
	DB	01H
	DB	01H
	DB	01H
	DB	01H
	DB	01H
	DB	01H
	DB	01H
	DB	01H
	DB	01H
	DB	01H
	DB	01H
	DB	01H
	DB	01H
	DB	01H
	DB	01H
	DB	01H
	DB	01H
	DB	01H
	DB	01H
	DB	01H
	DB	0a5H
	DB	04H
	DB	04H
	DB	04H
	DB	00H
	DB	031H
	DB	031H
	DB	0dH
	DB	04H
	DB	04H
	DB	04H
	DB	048H
	DB	012H
	DB	01H
	DB	01H
	DB	01H
	DB	01H
	DB	01H
	DB	01H
	DB	01H
	DB	06H
	DB	06H
	DB	01H
	DB	01H
	DB	052H
	DB	04H
	DB	04H
	DB	04H
	DB	03H
	DB	01H
	DB	02H
	DB	04H
	DB	04H
	DB	04H
	DB	04H
	DB	0d4H
	DB	01H
	DB	01H
	DB	01H
	DB	01H
	DB	01H
	DB	01H
	DB	01H
	DB	03H
	DB	015H
	DB	04H
	DB	04H
	DB	0dH
	DB	01H
	DB	01H
	DB	01H
	DB	01H
	DB	0d4H
	DB	04H
	DB	04H
	DB	04H
	DB	031H
	DB	01H
	DB	01H
	DB	01H
	DB	01H
	DB	01H
	DB	01H
	DB	01H
	DB	01H
	DB	069H
	DB	015H
	DB	04H
	DB	04H
	DB	04H
	DB	09H
	DB	0aH
	DB	08H
	DB	04H
	DB	04H
	DB	04H
	DB	04H
	DB	031H
	DB	01H
	DB	01H
	DB	03H
	DB	048H
	DB	04H
	DB	04H
	DB	0dH
	DB	01H
	DB	01H
	DB	01H
	DB	01H
	DB	012H
	DB	04H
	DB	04H
	DB	04H
	DB	031H
	DB	01H
	DB	01H
	DB	031H
	DB	04H
	DB	04H
	DB	04H
	DB	08H
	DB	01H
	DB	01H
	DB	01H
	DB	03H
	DB	04H
	DB	04H
	DB	013H
	DB	06H
	DB	01H
	DB	01H
	DB	052H
	DB	04H
	DB	04H
	DB	04H
	DB	02H
	DB	01H
	DB	01H
	DB	0aH
	DB	04H
	DB	04H
	DB	04H
	DB	0a5H
	DB	01H
	DB	01H
	DB	01H
	DB	01H
	DB	09H
	DB	04H
	DB	04H
	DB	04H
	DB	03H
	DB	01H
	DB	06H
	DB	015H
	DB	04H
	DB	04H
	DB	04H
	DB	0a5H
	DB	01H
	DB	01H
	DB	0aH
	DB	04H
	DB	04H
	DB	04H
	DB	04H
	DB	09H
	DB	01H
	DB	01H
	DB	012H
	DB	04H
	DB	04H
	DB	050H
	DB	01H
	DB	01H
	DB	01H
	DB	01H
	DB	01H
	DB	01H
	DB	01H
	DB	01H
	DB	01H
	DB	01H
	DB	01H
	DB	01H
	DB	01H
	DB	01H
	DB	01H
	DB	01H
	DB	01H
	DB	01H
	DB	01H
	DB	01H
	DB	01H
	DB	01H
	DB	01H
	DB	01H
	DB	01H
	DB	0a5H
	DB	04H
	DB	04H
	DB	04H
	DB	04H
	DB	04H
	DB	04H
	DB	04H
	DB	04H
	DB	04H
	DB	04H
	DB	0aH
	DB	01H
	DB	01H
	DB	01H
	DB	01H
	DB	01H
	DB	03H
	DB	09H
	DB	013H
	DB	015H
	DB	048H
	DB	050H
	DB	0a5H
	DB	08H
	DB	04H
	DB	04H
	DB	04H
	DB	012H
	DB	01H
	DB	0f0H
	DB	04H
	DB	04H
	DB	04H
	DB	050H
	DB	0d0H
	DB	01H
	DB	01H
	DB	01H
	DB	01H
	DB	01H
	DB	01H
	DB	01H
	DB	028H
	DB	04H
	DB	04H
	DB	04H
	DB	0f0H
	DB	01H
	DB	01H
	DB	01H
	DB	01H
	DB	06H
	DB	013H
	DB	04H
	DB	04H
	DB	08H
	DB	01H
	DB	01H
	DB	01H
	DB	01H
	DB	01H
	DB	01H
	DB	01H
	DB	01H
	DB	069H
	DB	015H
	DB	04H
	DB	04H
	DB	04H
	DB	04H
	DB	04H
	DB	04H
	DB	04H
	DB	04H
	DB	04H
	DB	08H
	DB	01fH
	DB	01H
	DB	01H
	DB	02H
	DB	04H
	DB	04H
	DB	04H
	DB	031H
	DB	01H
	DB	01H
	DB	01H
	DB	01H
	DB	06H
	DB	00H
	DB	04H
	DB	04H
	DB	08H
	DB	01H
	DB	01H
	DB	069H
	DB	048H
	DB	04H
	DB	04H
	DB	048H
	DB	03H
	DB	01H
	DB	01H
	DB	09H
	DB	04H
	DB	04H
	DB	0f0H
	DB	01H
	DB	01H
	DB	01H
	DB	052H
	DB	04H
	DB	04H
	DB	04H
	DB	02H
	DB	01H
	DB	01H
	DB	08H
	DB	04H
	DB	04H
	DB	04H
	DB	03H
	DB	01H
	DB	01H
	DB	01H
	DB	01H
	DB	0a5H
	DB	04H
	DB	04H
	DB	04H
	DB	028H
	DB	01H
	DB	01H
	DB	052H
	DB	04H
	DB	04H
	DB	04H
	DB	026H
	DB	01H
	DB	01H
	DB	0dH
	DB	04H
	DB	04H
	DB	04H
	DB	04H
	DB	017H
	DB	0d0H
	DB	01H
	DB	09H
	DB	04H
	DB	04H
	DB	031H
	DB	01H
	DB	01H
	DB	01H
	DB	01H
	DB	01H
	DB	01H
	DB	01H
	DB	01H
	DB	01H
	DB	01H
	DB	01H
	DB	01H
	DB	01H
	DB	01H
	DB	01H
	DB	01H
	DB	01H
	DB	01H
	DB	01H
	DB	01H
	DB	01H
	DB	01H
	DB	01H
	DB	01H
	DB	01H
	DB	0a5H
	DB	04H
	DB	04H
	DB	04H
	DB	04H
	DB	048H
	DB	04H
	DB	04H
	DB	04H
	DB	04H
	DB	0aH
	DB	01H
	DB	01H
	DB	01H
	DB	01H
	DB	01H
	DB	012H
	DB	015H
	DB	04H
	DB	04H
	DB	04H
	DB	015H
	DB	048H
	DB	04H
	DB	048H
	DB	04H
	DB	04H
	DB	04H
	DB	012H
	DB	01H
	DB	052H
	DB	04H
	DB	04H
	DB	04H
	DB	08H
	DB	01H
	DB	01H
	DB	01H
	DB	01H
	DB	01H
	DB	01H
	DB	01H
	DB	01H
	DB	0aH
	DB	04H
	DB	04H
	DB	04H
	DB	017H
	DB	08H
	DB	08H
	DB	08H
	DB	08H
	DB	08H
	DB	048H
	DB	04H
	DB	04H
	DB	050H
	DB	01H
	DB	01H
	DB	01H
	DB	01H
	DB	01H
	DB	01H
	DB	01H
	DB	01H
	DB	069H
	DB	015H
	DB	04H
	DB	04H
	DB	04H
	DB	048H
	DB	048H
	DB	04H
	DB	04H
	DB	04H
	DB	026H
	DB	01H
	DB	01H
	DB	01H
	DB	01H
	DB	031H
	DB	04H
	DB	04H
	DB	04H
	DB	017H
	DB	08H
	DB	08H
	DB	08H
	DB	08H
	DB	08H
	DB	048H
	DB	04H
	DB	04H
	DB	050H
	DB	01H
	DB	01H
	DB	01H
	DB	03cH
	DB	04H
	DB	04H
	DB	04H
	DB	031H
	DB	01H
	DB	0d0H
	DB	013H
	DB	04H
	DB	04H
	DB	03H
	DB	01H
	DB	01H
	DB	01H
	DB	052H
	DB	04H
	DB	04H
	DB	04H
	DB	02H
	DB	01H
	DB	0d0H
	DB	050H
	DB	04H
	DB	04H
	DB	04H
	DB	026H
	DB	08H
	DB	08H
	DB	08H
	DB	08H
	DB	0dH
	DB	04H
	DB	04H
	DB	04H
	DB	0aH
	DB	01H
	DB	01H
	DB	02H
	DB	04H
	DB	04H
	DB	04H
	DB	048H
	DB	069H
	DB	03H
	DB	04H
	DB	04H
	DB	04H
	DB	04H
	DB	04H
	DB	04H
	DB	02H
	DB	01H
	DB	00H
	DB	04H
	DB	048H
	DB	069H
	DB	01H
	DB	01H
	DB	01H
	DB	01H
	DB	01H
	DB	01H
	DB	01H
	DB	01H
	DB	01H
	DB	01H
	DB	01H
	DB	01H
	DB	01H
	DB	01H
	DB	01H
	DB	01H
	DB	01H
	DB	01H
	DB	01H
	DB	01H
	DB	01H
	DB	01H
	DB	01H
	DB	01H
	DB	01H
	DB	0a5H
	DB	04H
	DB	04H
	DB	04H
	DB	050H
	DB	06H
	DB	09H
	DB	04H
	DB	04H
	DB	04H
	DB	08H
	DB	01H
	DB	01H
	DB	01H
	DB	01H
	DB	0d0H
	DB	017H
	DB	04H
	DB	04H
	DB	015H
	DB	02H
	DB	01H
	DB	01H
	DB	031H
	DB	04H
	DB	04H
	DB	04H
	DB	04H
	DB	012H
	DB	01H
	DB	08H
	DB	04H
	DB	04H
	DB	04H
	DB	08H
	DB	01H
	DB	01H
	DB	01H
	DB	01H
	DB	01H
	DB	01H
	DB	01H
	DB	01H
	DB	031H
	DB	04H
	DB	04H
	DB	04H
	DB	04H
	DB	04H
	DB	04H
	DB	04H
	DB	04H
	DB	04H
	DB	04H
	DB	04H
	DB	04H
	DB	050H
	DB	01H
	DB	01H
	DB	01H
	DB	01H
	DB	01H
	DB	01H
	DB	01H
	DB	01H
	DB	069H
	DB	015H
	DB	04H
	DB	04H
	DB	04H
	DB	02H
	DB	02H
	DB	04H
	DB	04H
	DB	04H
	DB	015H
	DB	06H
	DB	01H
	DB	01H
	DB	01H
	DB	0f0H
	DB	04H
	DB	04H
	DB	04H
	DB	04H
	DB	04H
	DB	04H
	DB	04H
	DB	04H
	DB	04H
	DB	04H
	DB	04H
	DB	04H
	DB	050H
	DB	01H
	DB	01H
	DB	01H
	DB	02H
	DB	04H
	DB	04H
	DB	04H
	DB	050H
	DB	01H
	DB	0a5H
	DB	04H
	DB	04H
	DB	08H
	DB	01H
	DB	01H
	DB	01H
	DB	01H
	DB	052H
	DB	04H
	DB	04H
	DB	04H
	DB	02H
	DB	01H
	DB	0d0H
	DB	017H
	DB	04H
	DB	04H
	DB	04H
	DB	04H
	DB	04H
	DB	04H
	DB	04H
	DB	04H
	DB	04H
	DB	04H
	DB	04H
	DB	04H
	DB	0aH
	DB	01H
	DB	01H
	DB	0d0H
	DB	017H
	DB	04H
	DB	04H
	DB	04H
	DB	0aH
	DB	0aH
	DB	04H
	DB	04H
	DB	017H
	DB	04H
	DB	04H
	DB	04H
	DB	09H
	DB	028H
	DB	04H
	DB	04H
	DB	052H
	DB	01H
	DB	01H
	DB	01H
	DB	01H
	DB	01H
	DB	01H
	DB	01H
	DB	01H
	DB	01H
	DB	01H
	DB	01H
	DB	01H
	DB	01H
	DB	01H
	DB	01H
	DB	01H
	DB	01H
	DB	01H
	DB	01H
	DB	01H
	DB	01H
	DB	01H
	DB	01H
	DB	01H
	DB	01H
	DB	01H
	DB	0a5H
	DB	04H
	DB	04H
	DB	04H
	DB	0dH
	DB	01H
	DB	03H
	DB	048H
	DB	04H
	DB	04H
	DB	04H
	DB	012H
	DB	01H
	DB	01H
	DB	01H
	DB	028H
	DB	04H
	DB	04H
	DB	04H
	DB	09H
	DB	01H
	DB	01H
	DB	01H
	DB	0d0H
	DB	050H
	DB	04H
	DB	04H
	DB	04H
	DB	012H
	DB	01H
	DB	052H
	DB	04H
	DB	04H
	DB	04H
	DB	08H
	DB	01H
	DB	01H
	DB	01H
	DB	01H
	DB	01H
	DB	01H
	DB	01H
	DB	01H
	DB	031H
	DB	04H
	DB	04H
	DB	04H
	DB	052H
	DB	0aH
	DB	0aH
	DB	0aH
	DB	0aH
	DB	0aH
	DB	0aH
	DB	0aH
	DB	0aH
	DB	028H
	DB	01H
	DB	01H
	DB	01H
	DB	01H
	DB	01H
	DB	01H
	DB	01H
	DB	01H
	DB	069H
	DB	015H
	DB	04H
	DB	04H
	DB	04H
	DB	03H
	DB	01H
	DB	0dH
	DB	04H
	DB	04H
	DB	04H
	DB	031H
	DB	01H
	DB	01H
	DB	01H
	DB	031H
	DB	04H
	DB	04H
	DB	04H
	DB	052H
	DB	0a5H
	DB	0aH
	DB	0aH
	DB	0aH
	DB	0aH
	DB	0aH
	DB	0aH
	DB	0aH
	DB	028H
	DB	01H
	DB	01H
	DB	01H
	DB	01H
	DB	017H
	DB	04H
	DB	04H
	DB	04H
	DB	0d3H
	DB	08H
	DB	04H
	DB	04H
	DB	02H
	DB	01H
	DB	01H
	DB	01H
	DB	01H
	DB	052H
	DB	04H
	DB	04H
	DB	04H
	DB	02H
	DB	01H
	DB	0d0H
	DB	017H
	DB	04H
	DB	04H
	DB	048H
	DB	031H
	DB	0aH
	DB	0aH
	DB	0aH
	DB	0aH
	DB	0aH
	DB	0aH
	DB	0aH
	DB	0aH
	DB	03H
	DB	01H
	DB	01H
	DB	01H
	DB	09H
	DB	04H
	DB	04H
	DB	04H
	DB	0dH
	DB	013H
	DB	04H
	DB	013H
	DB	02H
	DB	048H
	DB	04H
	DB	04H
	DB	015H
	DB	0dH
	DB	04H
	DB	04H
	DB	02H
	DB	01H
	DB	01H
	DB	01H
	DB	01H
	DB	01H
	DB	01H
	DB	01H
	DB	01H
	DB	01H
	DB	01H
	DB	01H
	DB	01H
	DB	01H
	DB	01H
	DB	01H
	DB	01H
	DB	01H
	DB	01H
	DB	01H
	DB	01H
	DB	01H
	DB	01H
	DB	01H
	DB	01H
	DB	01H
	DB	01H
	DB	0a5H
	DB	04H
	DB	04H
	DB	04H
	DB	0dH
	DB	01H
	DB	01H
	DB	08H
	DB	04H
	DB	04H
	DB	04H
	DB	0fdH
	DB	01H
	DB	01H
	DB	01H
	DB	0f0H
	DB	04H
	DB	04H
	DB	04H
	DB	0a5H
	DB	01H
	DB	01H
	DB	01H
	DB	01H
	DB	052H
	DB	04H
	DB	04H
	DB	04H
	DB	012H
	DB	01H
	DB	09H
	DB	04H
	DB	04H
	DB	04H
	DB	0dH
	DB	01H
	DB	01H
	DB	01H
	DB	01H
	DB	01H
	DB	01H
	DB	01H
	DB	01H
	DB	0a5H
	DB	04H
	DB	04H
	DB	04H
	DB	0aH
	DB	01H
	DB	01H
	DB	01H
	DB	01H
	DB	01H
	DB	01H
	DB	01H
	DB	01H
	DB	01H
	DB	01H
	DB	01H
	DB	01H
	DB	01H
	DB	01H
	DB	01H
	DB	01H
	DB	01H
	DB	069H
	DB	015H
	DB	04H
	DB	04H
	DB	04H
	DB	03H
	DB	01H
	DB	0aH
	DB	04H
	DB	04H
	DB	04H
	DB	017H
	DB	06H
	DB	01H
	DB	01H
	DB	028H
	DB	04H
	DB	04H
	DB	04H
	DB	0aH
	DB	01H
	DB	01H
	DB	01H
	DB	01H
	DB	01H
	DB	01H
	DB	01H
	DB	01H
	DB	01H
	DB	01H
	DB	01H
	DB	01H
	DB	01H
	DB	031H
	DB	04H
	DB	04H
	DB	04H
	DB	0dH
	DB	048H
	DB	04H
	DB	0dH
	DB	01H
	DB	01H
	DB	01H
	DB	01H
	DB	01H
	DB	052H
	DB	04H
	DB	04H
	DB	04H
	DB	02H
	DB	01H
	DB	01H
	DB	026H
	DB	04H
	DB	04H
	DB	04H
	DB	069H
	DB	01H
	DB	01H
	DB	01H
	DB	01H
	DB	01H
	DB	01H
	DB	01H
	DB	01H
	DB	01H
	DB	01H
	DB	01H
	DB	01H
	DB	012H
	DB	04H
	DB	04H
	DB	04H
	DB	04H
	DB	04H
	DB	04H
	DB	09H
	DB	01H
	DB	026H
	DB	04H
	DB	04H
	DB	04H
	DB	04H
	DB	04H
	DB	017H
	DB	01H
	DB	01H
	DB	01H
	DB	01H
	DB	01H
	DB	01H
	DB	01H
	DB	01H
	DB	01H
	DB	01H
	DB	01H
	DB	01H
	DB	01H
	DB	01H
	DB	01H
	DB	01H
	DB	01H
	DB	01H
	DB	01H
	DB	01H
	DB	01H
	DB	01H
	DB	01H
	DB	01H
	DB	01H
	DB	01H
	DB	01H
	DB	0a5H
	DB	04H
	DB	04H
	DB	04H
	DB	0dH
	DB	01H
	DB	01H
	DB	028H
	DB	04H
	DB	04H
	DB	04H
	DB	048H
	DB	03H
	DB	01H
	DB	01H
	DB	09H
	DB	04H
	DB	04H
	DB	04H
	DB	0aH
	DB	01H
	DB	01H
	DB	01H
	DB	01H
	DB	08H
	DB	04H
	DB	04H
	DB	04H
	DB	012H
	DB	01H
	DB	028H
	DB	04H
	DB	04H
	DB	04H
	DB	048H
	DB	03H
	DB	01H
	DB	01H
	DB	01H
	DB	01H
	DB	01H
	DB	01H
	DB	01H
	DB	03H
	DB	048H
	DB	04H
	DB	04H
	DB	026H
	DB	01H
	DB	01H
	DB	01H
	DB	01H
	DB	01H
	DB	01H
	DB	01H
	DB	01H
	DB	01H
	DB	01H
	DB	01H
	DB	01H
	DB	01H
	DB	01H
	DB	01H
	DB	01H
	DB	01H
	DB	069H
	DB	015H
	DB	04H
	DB	04H
	DB	04H
	DB	03H
	DB	01H
	DB	06H
	DB	048H
	DB	04H
	DB	04H
	DB	04H
	DB	0aH
	DB	01H
	DB	01H
	DB	03H
	DB	04H
	DB	04H
	DB	04H
	DB	026H
	DB	01H
	DB	01H
	DB	01H
	DB	01H
	DB	01H
	DB	01H
	DB	01H
	DB	01H
	DB	01H
	DB	01H
	DB	01H
	DB	01H
	DB	01H
	DB	03H
	DB	048H
	DB	04H
	DB	04H
	DB	04H
	DB	04H
	DB	04H
	DB	0a5H
	DB	01H
	DB	01H
	DB	01H
	DB	01H
	DB	01H
	DB	052H
	DB	04H
	DB	04H
	DB	04H
	DB	02H
	DB	01H
	DB	01H
	DB	031H
	DB	04H
	DB	04H
	DB	04H
	DB	0a5H
	DB	01H
	DB	01H
	DB	01H
	DB	01H
	DB	01H
	DB	01H
	DB	01H
	DB	01H
	DB	01H
	DB	01H
	DB	01H
	DB	01H
	DB	011H
	DB	0dH
	DB	04H
	DB	04H
	DB	04H
	DB	04H
	DB	04H
	DB	0d3H
	DB	01H
	DB	0aH
	DB	04H
	DB	04H
	DB	04H
	DB	04H
	DB	04H
	DB	0aH
	DB	01H
	DB	01H
	DB	01H
	DB	01H
	DB	01H
	DB	01H
	DB	01H
	DB	01H
	DB	01H
	DB	01H
	DB	01H
	DB	01H
	DB	01H
	DB	01H
	DB	01H
	DB	01H
	DB	01H
	DB	01H
	DB	01H
	DB	01H
	DB	01H
	DB	01H
	DB	01H
	DB	01H
	DB	01H
	DB	01H
	DB	01H
	DB	0a5H
	DB	04H
	DB	04H
	DB	04H
	DB	0dH
	DB	01H
	DB	01H
	DB	06H
	DB	013H
	DB	04H
	DB	04H
	DB	04H
	DB	0f0H
	DB	01H
	DB	01H
	DB	0aH
	DB	04H
	DB	04H
	DB	04H
	DB	050H
	DB	06H
	DB	01H
	DB	01H
	DB	02H
	DB	04H
	DB	04H
	DB	04H
	DB	04H
	DB	012H
	DB	01H
	DB	0d0H
	DB	013H
	DB	04H
	DB	04H
	DB	04H
	DB	08H
	DB	011H
	DB	01H
	DB	01H
	DB	01H
	DB	03H
	DB	03H
	DB	01H
	DB	01H
	DB	08H
	DB	04H
	DB	04H
	DB	04H
	DB	0aH
	DB	01H
	DB	01H
	DB	01H
	DB	01H
	DB	01H
	DB	012H
	DB	03H
	DB	01H
	DB	01H
	DB	01H
	DB	01H
	DB	01H
	DB	01H
	DB	01H
	DB	01H
	DB	01H
	DB	069H
	DB	015H
	DB	04H
	DB	04H
	DB	04H
	DB	03H
	DB	01H
	DB	01H
	DB	0fdH
	DB	04H
	DB	04H
	DB	04H
	DB	050H
	DB	01H
	DB	01H
	DB	01H
	DB	08H
	DB	04H
	DB	04H
	DB	04H
	DB	031H
	DB	01H
	DB	01H
	DB	01H
	DB	01H
	DB	01H
	DB	03H
	DB	03H
	DB	01H
	DB	01H
	DB	01H
	DB	01H
	DB	01H
	DB	01H
	DB	08H
	DB	04H
	DB	04H
	DB	04H
	DB	04H
	DB	013H
	DB	06H
	DB	01H
	DB	01H
	DB	01H
	DB	01H
	DB	01H
	DB	052H
	DB	04H
	DB	04H
	DB	04H
	DB	02H
	DB	01H
	DB	01H
	DB	03H
	DB	048H
	DB	04H
	DB	04H
	DB	015H
	DB	03H
	DB	01H
	DB	01H
	DB	01H
	DB	01H
	DB	0d0H
	DB	0d4H
	DB	0d0H
	DB	01H
	DB	01H
	DB	01H
	DB	01H
	DB	01H
	DB	0aH
	DB	04H
	DB	04H
	DB	04H
	DB	04H
	DB	0dH
	DB	01H
	DB	01H
	DB	069H
	DB	04H
	DB	04H
	DB	04H
	DB	04H
	DB	015H
	DB	03H
	DB	01H
	DB	01H
	DB	01H
	DB	01H
	DB	01H
	DB	01H
	DB	01H
	DB	01H
	DB	01H
	DB	01H
	DB	01H
	DB	01H
	DB	01H
	DB	01H
	DB	01H
	DB	01H
	DB	01H
	DB	01H
	DB	01H
	DB	01H
	DB	01H
	DB	01H
	DB	01H
	DB	01H
	DB	01H
	DB	01H
	DB	01H
	DB	0a5H
	DB	04H
	DB	04H
	DB	04H
	DB	0dH
	DB	01H
	DB	01H
	DB	01H
	DB	09H
	DB	04H
	DB	04H
	DB	04H
	DB	015H
	DB	06H
	DB	01H
	DB	069H
	DB	015H
	DB	04H
	DB	04H
	DB	04H
	DB	013H
	DB	08H
	DB	026H
	DB	048H
	DB	04H
	DB	04H
	DB	04H
	DB	04H
	DB	012H
	DB	01H
	DB	01H
	DB	028H
	DB	04H
	DB	04H
	DB	04H
	DB	04H
	DB	050H
	DB	09H
	DB	09H
	DB	026H
	DB	048H
	DB	08H
	DB	01H
	DB	01H
	DB	03H
	DB	048H
	DB	04H
	DB	04H
	DB	04H
	DB	0dH
	DB	09H
	DB	09H
	DB	052H
	DB	0dH
	DB	04H
	DB	08H
	DB	01H
	DB	01H
	DB	01H
	DB	01H
	DB	01H
	DB	01H
	DB	01H
	DB	01H
	DB	01H
	DB	069H
	DB	015H
	DB	04H
	DB	04H
	DB	04H
	DB	03H
	DB	01H
	DB	01H
	DB	02H
	DB	04H
	DB	04H
	DB	04H
	DB	04H
	DB	028H
	DB	01H
	DB	01H
	DB	012H
	DB	015H
	DB	04H
	DB	04H
	DB	04H
	DB	0dH
	DB	09H
	DB	0f0H
	DB	052H
	DB	0dH
	DB	04H
	DB	08H
	DB	01H
	DB	01H
	DB	01H
	DB	01H
	DB	01H
	DB	01H
	DB	02H
	DB	04H
	DB	04H
	DB	04H
	DB	04H
	DB	09H
	DB	01H
	DB	01H
	DB	01H
	DB	01H
	DB	01H
	DB	01H
	DB	052H
	DB	04H
	DB	04H
	DB	04H
	DB	02H
	DB	01H
	DB	01H
	DB	01H
	DB	031H
	DB	04H
	DB	04H
	DB	04H
	DB	015H
	DB	08H
	DB	09H
	DB	09H
	DB	08H
	DB	017H
	DB	04H
	DB	028H
	DB	01H
	DB	01H
	DB	01H
	DB	01H
	DB	01H
	DB	03H
	DB	015H
	DB	04H
	DB	04H
	DB	04H
	DB	0aH
	DB	01H
	DB	01H
	DB	01H
	DB	08H
	DB	04H
	DB	04H
	DB	04H
	DB	08H
	DB	01H
	DB	01H
	DB	01H
	DB	01H
	DB	01H
	DB	01H
	DB	01H
	DB	01H
	DB	01H
	DB	01H
	DB	01H
	DB	01H
	DB	01H
	DB	01H
	DB	01H
	DB	01H
	DB	01H
	DB	01H
	DB	01H
	DB	01H
	DB	01H
	DB	01H
	DB	01H
	DB	01H
	DB	01H
	DB	01H
	DB	01H
	DB	01H
	DB	0a5H
	DB	04H
	DB	04H
	DB	04H
	DB	0dH
	DB	01H
	DB	01H
	DB	01H
	DB	012H
	DB	04H
	DB	04H
	DB	04H
	DB	04H
	DB	031H
	DB	01H
	DB	01H
	DB	0aH
	DB	04H
	DB	04H
	DB	04H
	DB	04H
	DB	04H
	DB	04H
	DB	08H
	DB	052H
	DB	04H
	DB	04H
	DB	04H
	DB	0d3H
	DB	01H
	DB	01H
	DB	01H
	DB	0a5H
	DB	048H
	DB	04H
	DB	04H
	DB	04H
	DB	04H
	DB	04H
	DB	04H
	DB	04H
	DB	050H
	DB	01H
	DB	01H
	DB	01H
	DB	02H
	DB	015H
	DB	04H
	DB	04H
	DB	04H
	DB	04H
	DB	04H
	DB	04H
	DB	04H
	DB	04H
	DB	026H
	DB	01H
	DB	01H
	DB	01H
	DB	01H
	DB	01H
	DB	01H
	DB	01H
	DB	01H
	DB	01H
	DB	069H
	DB	048H
	DB	04H
	DB	04H
	DB	04H
	DB	012H
	DB	01H
	DB	01H
	DB	01H
	DB	050H
	DB	04H
	DB	04H
	DB	04H
	DB	026H
	DB	01H
	DB	01H
	DB	01H
	DB	02H
	DB	015H
	DB	04H
	DB	04H
	DB	04H
	DB	04H
	DB	04H
	DB	04H
	DB	04H
	DB	04H
	DB	026H
	DB	01H
	DB	01H
	DB	01H
	DB	01H
	DB	01H
	DB	01H
	DB	01fH
	DB	017H
	DB	04H
	DB	04H
	DB	04H
	DB	03H
	DB	01H
	DB	01H
	DB	01H
	DB	01H
	DB	01H
	DB	01H
	DB	052H
	DB	04H
	DB	04H
	DB	04H
	DB	02H
	DB	01H
	DB	01H
	DB	01H
	DB	01H
	DB	09H
	DB	04H
	DB	04H
	DB	04H
	DB	04H
	DB	04H
	DB	04H
	DB	04H
	DB	04H
	DB	04H
	DB	0aH
	DB	01H
	DB	01H
	DB	01H
	DB	01H
	DB	01H
	DB	01H
	DB	08H
	DB	04H
	DB	04H
	DB	015H
	DB	069H
	DB	01H
	DB	01H
	DB	01H
	DB	0a5H
	DB	04H
	DB	04H
	DB	04H
	DB	02H
	DB	01H
	DB	01H
	DB	01H
	DB	01H
	DB	01H
	DB	01H
	DB	01H
	DB	01H
	DB	01H
	DB	01H
	DB	01H
	DB	01H
	DB	01H
	DB	01H
	DB	01H
	DB	01H
	DB	01H
	DB	01H
	DB	01H
	DB	01H
	DB	01H
	DB	01H
	DB	01H
	DB	01H
	DB	01H
	DB	01H
	DB	01H
	DB	01H
	DB	02H
	DB	017H
	DB	050H
	DB	017H
	DB	052H
	DB	01H
	DB	01H
	DB	01H
	DB	01fH
	DB	052H
	DB	017H
	DB	050H
	DB	017H
	DB	052H
	DB	01H
	DB	01H
	DB	01H
	DB	0d4H
	DB	052H
	DB	050H
	DB	050H
	DB	026H
	DB	0aH
	DB	01H
	DB	028H
	DB	017H
	DB	050H
	DB	050H
	DB	03H
	DB	01H
	DB	01H
	DB	01H
	DB	01H
	DB	03H
	DB	09H
	DB	0dH
	DB	013H
	DB	015H
	DB	013H
	DB	0dH
	DB	031H
	DB	03H
	DB	01H
	DB	01H
	DB	01H
	DB	01H
	DB	069H
	DB	0f0H
	DB	0dH
	DB	013H
	DB	015H
	DB	00H
	DB	050H
	DB	08H
	DB	028H
	DB	0d0H
	DB	01H
	DB	01H
	DB	01H
	DB	01H
	DB	01H
	DB	01H
	DB	01H
	DB	01H
	DB	01H
	DB	06H
	DB	026H
	DB	050H
	DB	050H
	DB	0dH
	DB	03H
	DB	01H
	DB	01H
	DB	01H
	DB	0aH
	DB	017H
	DB	050H
	DB	050H
	DB	050H
	DB	03H
	DB	01H
	DB	01H
	DB	01H
	DB	069H
	DB	0f0H
	DB	0dH
	DB	013H
	DB	015H
	DB	00H
	DB	050H
	DB	08H
	DB	028H
	DB	0d0H
	DB	01H
	DB	01H
	DB	01H
	DB	01H
	DB	01H
	DB	01H
	DB	01H
	DB	0a5H
	DB	017H
	DB	017H
	DB	09H
	DB	01H
	DB	01H
	DB	01H
	DB	01H
	DB	01H
	DB	01H
	DB	01H
	DB	0f0H
	DB	017H
	DB	050H
	DB	050H
	DB	012H
	DB	01H
	DB	01H
	DB	01H
	DB	01H
	DB	01H
	DB	02H
	DB	052H
	DB	050H
	DB	00H
	DB	015H
	DB	017H
	DB	0dH
	DB	09H
	DB	012H
	DB	01H
	DB	01H
	DB	01H
	DB	01H
	DB	01H
	DB	01H
	DB	01H
	DB	02H
	DB	017H
	DB	017H
	DB	09H
	DB	01H
	DB	01H
	DB	01H
	DB	01H
	DB	0d0H
	DB	026H
	DB	017H
	DB	08H
	DB	0d0H
	DB	01H
	DB	01H
	DB	01H
	DB	01H
	DB	01H
	DB	01H
	DB	01H
	DB	01H
	DB	01H
	DB	01H
	DB	01H
	DB	01H
	DB	01H
	DB	01H
	DB	01H
	DB	01H
	DB	01H
	DB	01H
	DB	01H
	DB	01H
	DB	01H
	DB	01H
	DB	01H
	DB	01H
	DB	01H
	DB	01H
	DB	01H
	DB	01H
	DB	01H
	DB	01H
	DB	01H
	DB	01H
	DB	01H
	DB	01H
	DB	01H
	DB	01H
	DB	01H
	DB	01H
	DB	01H
	DB	01H
	DB	01H
	DB	01fH
	DB	01H
	DB	01H
	DB	01H
	DB	01H
	DB	01H
	DB	01H
	DB	01H
	DB	01H
	DB	01H
	DB	01H
	DB	01H
	DB	01H
	DB	01H
	DB	01H
	DB	01H
	DB	01H
	DB	01H
	DB	01H
	DB	01H
	DB	01H
	DB	01H
	DB	01H
	DB	06H
	DB	069H
	DB	06H
	DB	01H
	DB	01H
	DB	01H
	DB	01H
	DB	01H
	DB	01H
	DB	01H
	DB	01H
	DB	01H
	DB	01H
	DB	06H
	DB	069H
	DB	06H
	DB	01H
	DB	01H
	DB	01H
	DB	01H
	DB	01H
	DB	01H
	DB	01H
	DB	01H
	DB	01H
	DB	01H
	DB	01H
	DB	01H
	DB	01H
	DB	01H
	DB	01H
	DB	01H
	DB	01H
	DB	01H
	DB	01H
	DB	01H
	DB	01H
	DB	01H
	DB	01H
	DB	01H
	DB	01H
	DB	01H
	DB	011H
	DB	01H
	DB	01H
	DB	01H
	DB	01H
	DB	01H
	DB	01H
	DB	01H
	DB	06H
	DB	069H
	DB	06H
	DB	01H
	DB	01H
	DB	01H
	DB	01H
	DB	01H
	DB	01H
	DB	01H
	DB	01H
	DB	01H
	DB	01H
	DB	01H
	DB	01H
	DB	011H
	DB	01H
	DB	01H
	DB	01H
	DB	01H
	DB	01H
	DB	01H
	DB	01H
	DB	01H
	DB	01H
	DB	01H
	DB	01H
	DB	01H
	DB	01H
	DB	01H
	DB	01H
	DB	01H
	DB	01H
	DB	01H
	DB	01H
	DB	01H
	DB	01H
	DB	01H
	DB	069H
	DB	069H
	DB	0d0H
	DB	01H
	DB	01H
	DB	01H
	DB	01H
	DB	01H
	DB	01H
	DB	01H
	DB	01H
	DB	01H
	DB	01H
	DB	01H
	DB	01H
	DB	01H
	DB	01H
	DB	01H
	DB	01H
	DB	01H
	DB	01H
	DB	01H
	DB	01H
	DB	011H
	DB	01H
	DB	01H
	DB	01H
	DB	01H
	DB	01H
	DB	01H
	DB	01H
	DB	01H
	DB	01H
	DB	01H
	DB	01H
	DB	01H
	DB	01H
	DB	01H
	DB	01H
	DB	01H
	DB	01H
	DB	01H
	DB	01H
	DB	01H
	DB	01H
	DB	01H
	DB	01H
	DB	01H
	DB	01H
	DB	01H
	DB	01H
	DB	01H
	DB	01H
	DB	01H
	DB	01H
	DB	01H
	DB	01H
	DB	01H
	DB	01H
	DB	01H
	DB	01H
	DB	01H
	DB	01H
	DB	01H
	DB	01H
	DB	01H
	DB	01H
	DB	01H
	DB	01H
	DB	01H
	DB	01H
	DB	01H
	DB	01H
	DB	01H
	DB	01H
	DB	01H
	DB	01H
	DB	01H
	DB	01H
	DB	01H
	DB	01H
	DB	01H
	DB	01H
	DB	01H
	DB	01H
	DB	01H
	DB	01H
	DB	01H
	DB	01H
	DB	01H
	DB	01H
	DB	01H
	DB	01H
	DB	01H
	DB	01H
	DB	01H
	DB	01H
	DB	01H
	DB	01H
	DB	01H
	DB	01H
	DB	01H
	DB	01H
	DB	01H
	DB	01H
	DB	01H
	DB	01H
	DB	01H
	DB	01H
	DB	01H
	DB	01H
	DB	01H
	DB	01H
	DB	01H
	DB	01H
	DB	01H
	DB	01H
	DB	01H
	DB	01H
	DB	01H
	DB	01H
	DB	01H
	DB	01H
	DB	01H
	DB	01H
	DB	01H
	DB	01H
	DB	01H
	DB	01H
	DB	01H
	DB	01H
	DB	01H
	DB	01H
	DB	01H
	DB	01H
	DB	01H
	DB	01H
	DB	01H
	DB	01H
	DB	01H
	DB	01H
	DB	01H
	DB	01H
	DB	01H
	DB	01H
	DB	01H
	DB	01H
	DB	01H
	DB	01H
	DB	01H
	DB	01H
	DB	01H
	DB	01H
	DB	01H
	DB	01H
	DB	01H
	DB	01H
	DB	01H
	DB	01H
	DB	01H
	DB	01H
	DB	01H
	DB	01H
	DB	01H
	DB	01H
	DB	01H
	DB	01H
	DB	01H
	DB	01H
	DB	01H
	DB	01H
	DB	01H
	DB	01H
	DB	01H
	DB	01H
	DB	01H
	DB	01H
	DB	01H
	DB	01H
	DB	01H
	DB	01H
	DB	01H
	DB	01H
	DB	01H
	DB	01H
	DB	01H
	DB	01H
	DB	01H
	DB	01H
	DB	01H
	DB	01H
	DB	01H
	DB	01H
	DB	01H
	DB	01H
	DB	01H
	DB	01H
	DB	01H
	DB	01H
	DB	01H
	DB	01H
	DB	01H
	DB	01H
	DB	01H
	DB	01H
	DB	01H
	DB	01H
	DB	01H
	DB	01H
	DB	01H
	DB	01H
	DB	01H
	DB	01H
	DB	01H
	DB	01H
	DB	01H
	DB	01H
	DB	01H
	DB	01H
	DB	01H
	DB	01H
	DB	01H
	DB	01H
	DB	01H
	DB	01H
	DB	01H
	DB	01H
	DB	01H
	DB	01H
	DB	01H
	DB	01H
	DB	01H
	DB	01H
	DB	01H
	DB	01H
	DB	01H
	DB	01H
	DB	01H
	DB	01H
	DB	01H
	DB	01H
	DB	01H
	DB	01H
	DB	01H
	DB	01H
	DB	01H
	DB	01H
	DB	01H
	DB	01H
	DB	01H
	DB	01H
	DB	01H
	DB	01H
	DB	01H
	DB	01H
	DB	01H
	DB	01H
	DB	01H
	DB	01H
	DB	01H
	DB	01H
	DB	01H
	DB	01H
	DB	01H
	DB	01H
	DB	01H
	DB	01H
	DB	01H
	DB	01H
	DB	01H
	DB	01H
	DB	01H
	DB	01H
	DB	01H
	DB	01H
	DB	01H
	DB	01H
	DB	01H
	DB	01H
	DB	01H
	DB	01H
	DB	01H
	DB	01H
	DB	01H
	DB	01H
	DB	01H
	DB	01H
	DB	01H
	DB	01H
	DB	01H
	DB	01H
	DB	01H
	DB	01H
	DB	01H
	DB	01H
	DB	01H
	DB	01H
	DB	01H
	DB	01H
	DB	01H
	DB	01H
	DB	01H
	DB	01H
	DB	01H
	DB	01H
	DB	01H
	DB	01H
	DB	01H
	DB	01H
	DB	01H
	DB	01H
	DB	01H
	DB	01H
	DB	01H
	DB	01H
	DB	01H
	DB	01H
	DB	01H
	DB	01H
	DB	01H
	DB	01H
	DB	01H
	DB	01H
	DB	01H
	DB	01H
	DB	01H
	DB	01H
	DB	01H
	DB	01H
	DB	01H
	DB	01H
	DB	01H
	DB	01H
	DB	01H
	DB	01H
	DB	01H
	DB	01H
	DB	01H
	DB	01H
	DB	01H
	DB	01H
	DB	01H
	DB	01H
	DB	01H
	DB	01H
	DB	01H
	DB	01H
	DB	01H
	DB	01H
	DB	01H
	DB	01H
	DB	01H
	DB	01H
	DB	01H
	DB	01H
	DB	01H
	DB	01H
	DB	01H
	DB	01H
	DB	01H
	DB	01H
	DB	01H
	DB	01H
	DB	01H
	DB	01H
	DB	01H
	DB	01H
	DB	01H
	DB	01H
	DB	01H
	DB	01H
	DB	01H
	DB	01H
	DB	01H
	DB	01H
	DB	01H
	DB	01H
	DB	01H
	DB	01H
	DB	01H
	DB	01H
	DB	01H
	DB	01H
	DB	01H
	DB	01H
	DB	01H
	DB	01H
	DB	01H
	DB	01H
	DB	01H
	DB	01H
	DB	01H
	DB	01H
	DB	01H
	DB	01H
	DB	01H
	DB	01H
	DB	01H
	DB	01H
	DB	01H
	DB	01H
	DB	01H
	DB	01H
	DB	01H
	DB	01H
	DB	01H
	DB	01H
	DB	01H
	DB	01H
	DB	01H
	DB	01H
	DB	01H
	DB	01H
	DB	01H
	DB	01H
	DB	01H
	DB	01H
	DB	01H
	DB	01H
	DB	01H
	DB	01H
	DB	01H
	DB	01H
	DB	01H
	DB	01H
	DB	01H
	DB	01H
	DB	01H
	DB	01H
	DB	01H
	DB	01H
	DB	01H
	DB	01H
	DB	01H
	DB	01H
	DB	01H
	DB	01H
	DB	01H
	DB	01H
	DB	01H
	DB	01H
	DB	01H
	DB	01H
	DB	01H
	DB	01H
	DB	01H
	DB	01H
	DB	01H
	DB	01H
	DB	01H
	DB	01H
	DB	01H
	DB	01H
	DB	01H
	DB	01H
	DB	01H
	DB	01H
	DB	01H
	DB	01H
	DB	01H
	DB	01H
	DB	01H
	DB	01H
	DB	01H
	DB	01H
	DB	01H
	DB	01H
	DB	01H
	DB	01H
	DB	01H
	DB	01H
	DB	01H
	DB	01H
	DB	01H
	DB	01H
	DB	01H
	DB	01H
	DB	01H
	DB	01H
	DB	01H
	DB	01H
	DB	01H
	DB	01H
	DB	01H
	DB	01H
	DB	01H
	DB	01H
	DB	01H
	DB	01H
	DB	01H
	DB	01H
	DB	01H
	DB	01H
	DB	01H
	DB	01H
	DB	01H
	DB	01H
	DB	01H
	DB	01H
	DB	01H
	DB	01H
	DB	01H
	DB	01H
	DB	01H
	DB	01H
	DB	01H
	DB	01H
	DB	01H
	DB	01H
	DB	01H
	DB	01H
	DB	01H
	DB	01H
	DB	01H
	DB	01H
	DB	01H
	DB	01H
	DB	01H
	DB	01H
	DB	01H
	DB	01H
	DB	01H
	DB	01H
	DB	01H
	DB	01H
	DB	01H
	DB	01H
	DB	01H
	DB	01H
	DB	01H
	DB	01H
	DB	01H
	DB	01H
	DB	01H
	DB	01H
	DB	01H
	DB	01H
	DB	01H
	DB	01H
	DB	01H
	DB	01H
	DB	01H
	DB	01H
	DB	01H
	DB	01H
	DB	01H
	DB	01H
	DB	01H
	DB	01H
	DB	01H
	DB	01H
	DB	01H
	DB	01H
	DB	01H
	DB	01H
	DB	01H
	DB	01H
	DB	01H
	DB	01H
	DB	01H
	DB	01H
	DB	01H
	DB	01H
	DB	01H
	DB	01H
	DB	01H
	DB	01H
	DB	01H
	DB	01H
	DB	01H
	DB	01H
	DB	01H
	DB	01H
	DB	01H
	DB	01H
	DB	01H
	DB	01H
	DB	01H
	DB	01H
	DB	01H
	DB	01H
	DB	01H
	DB	01H
	DB	01H
	DB	01H
	DB	01H
	DB	01H
	DB	01H
	DB	01H
	DB	01H
	DB	01H
	DB	01H
	DB	01H
	DB	01H
	DB	01H
	DB	01H
	DB	01H
	DB	01H
	DB	01H
	DB	01H
	DB	01H
	DB	01H
	DB	01H
	DB	01H
	DB	01H
	DB	01H
	DB	01H
	DB	01H
	DB	01H
	DB	01H
	DB	01H
	DB	01H
	DB	01H
	DB	01H
	DB	01H
	DB	01H
	DB	01H
	DB	01H
	DB	01H
	DB	01H
	DB	01H
	DB	01H
	DB	01H
	DB	01H
	DB	01H
	DB	01H
	DB	01H
	DB	01H
	DB	01H
	DB	01H
	DB	01H
	DB	01H
	DB	01H
	DB	01H
	DB	01H
	DB	01H
	DB	01H
	DB	01H
	DB	01H
	DB	01H
	DB	01H
	DB	01H
	DB	01H
	DB	01H
	DB	01H
	DB	01H
	DB	01H
	DB	01H
	DB	01H
	DB	01H
	DB	01H
	DB	01H
	DB	01H
	DB	01H
	DB	01H
	DB	01H
	DB	01H
	DB	01H
	DB	01H
	DB	01H
	DB	01H
	DB	01H
	DB	01H
	DB	01H
	DB	01H
	DB	01H
	DB	01H
	DB	01H
	DB	01H
	DB	01H
	DB	01H
	DB	01H
	DB	01H
	DB	01H
	DB	01H
	DB	01H
	DB	01H
	DB	01H
	DB	01H
	DB	01H
	DB	01H
	DB	01H
	DB	01H
	DB	01H
	DB	01H
	DB	01H
	DB	01H
	DB	01H
	DB	01H
	DB	01H
	DB	01H
	DB	01H
	DB	01H
	DB	01H
	DB	01H
	DB	01H
	DB	01H
	DB	01H
	DB	01H
	DB	01H
	DB	01H
	DB	01H
	DB	01H
	DB	01H
	DB	01H
	DB	01H
	DB	01H
	DB	01H
	DB	01H
	DB	01H
	DB	01H
	DB	01H
	DB	01H
	DB	01H
	DB	01H
	DB	01H
	DB	01H
	DB	01H
	DB	01H
	DB	01H
	DB	01H
	DB	01H
	DB	01H
	DB	01H
	DB	01H
	DB	01H
	DB	01H
	DB	01H
	DB	01H
	DB	01H
	DB	01H
	DB	01H
	DB	01H
	DB	01H
	DB	01H
	DB	01H
	DB	01H
	DB	01H
	DB	01H
	DB	01H
	DB	01H
	DB	01H
	DB	01H
	DB	01H
	DB	01H
	DB	01H
	DB	01H
	DB	01H
	DB	01H
	DB	01H
	DB	01H
	DB	01H
	DB	01H
	DB	01H
	DB	01H
	DB	01H
	DB	01H
	DB	01H
	DB	01H
	DB	01H
	DB	01H
	DB	01H
	DB	01H
	DB	01H
	DB	01H
	DB	01H
	DB	01H
	DB	01H
	DB	01H
	DB	01H
	DB	01H
	DB	01H
	DB	01H
	DB	01H
	DB	01H
	DB	01H
	DB	01H
	DB	01H
	DB	01H
	DB	01H
	DB	01H
	DB	01H
	DB	01H
	DB	01H
	DB	01H
	DB	01H
	DB	01H
	DB	01H
	DB	01H
	DB	01H
	DB	01H
	DB	01H
	DB	01H
	DB	01H
	DB	01H
	DB	01H
	DB	01H
	DB	01H
	DB	01H
	DB	01H
	DB	01H
	DB	01H
	DB	01H
	DB	01H
	DB	01H
	DB	01H
	DB	01H
	DB	01H
	DB	01H
	DB	01H
	DB	01H
	DB	01H
	DB	01H
	DB	01H
	DB	01H
	DB	01H
	DB	01H
	DB	01H
	DB	01H
	DB	01H
	DB	01H
	DB	01H
	DB	01H
	DB	01H
	DB	01H
	DB	01H
	DB	01H
	DB	01H
	DB	01H
	DB	01H
	DB	01H
	DB	01H
	DB	01H
	DB	01H
	DB	01H
	DB	01H
	DB	01H
	DB	01H
	DB	01H
	DB	01H
	DB	01H
	DB	01H
	DB	01H
	DB	01H
	DB	01H
	DB	01H
	DB	01H
	DB	01H
	DB	01H
	DB	01H
	DB	01H
	DB	01H
	DB	01H
	DB	01H
	DB	01H
	DB	01H
	DB	01H
	DB	01H
	DB	01H
	DB	01H
	DB	01H
	DB	01H
	DB	01H
	DB	01H
	DB	01H
	DB	01H
	DB	01H
	DB	01H
	DB	01H
	DB	01H
	DB	01H
	DB	01H
	DB	01H
	DB	01H
	DB	01H
	DB	01H
	DB	01H
	DB	01H
	DB	01H
	DB	01H
	DB	01H
	DB	01H
	DB	01H
	DB	01H
	DB	01H
	DB	01H
	DB	01H
	DB	01H
	DB	01H
	DB	01H
	DB	01H
	DB	01H
	DB	01H
	DB	01H
	DB	01H
	DB	01H
	DB	01H
	DB	01H
	DB	01H
	DB	01H
	DB	01H
	DB	01H
	DB	01H
	DB	01H
	DB	01H
	DB	01H
	DB	01H
	DB	01H
	DB	01H
	DB	01H
	DB	01H
	DB	01H
	DB	01H
	DB	01H
	DB	01H
	DB	01H
	DB	01H
	DB	01H
	DB	01H
	DB	01H
	DB	01H
	DB	01H
	DB	01H
	DB	01H
	DB	01H
	DB	01H
	DB	01H
	DB	01H
	DB	01H
	DB	01H
	DB	01H
CONST	ENDS
END
