; Listing generated by Microsoft (R) Optimizing Compiler Version 16.00.40219.01 

	TITLE	C:\DUII\DUII\Graphics\RaceSetupIcon.c
	.686P
	.XMM
	include listing.inc
	.model	flat

INCLUDELIB LIBCMT
INCLUDELIB OLDNAMES

PUBLIC	_bmRaceSetupIcon
EXTRN	_GUI_BitmapMethods8888:BYTE
CONST	SEGMENT
_acRaceSetupIcon DD 0ffffffffH
	DD	0ffffffffH
	DD	0ffffffffH
	DD	0ffffffffH
	DD	0ffffffffH
	DD	0ffffffffH
	DD	0ffffffffH
	DD	0ffffffffH
	DD	0ffffffffH
	DD	0ffffffffH
	DD	0ffffffffH
	DD	0ffffffffH
	DD	0ffffffffH
	DD	0ffffffffH
	DD	0ffffffffH
	DD	0ffffffffH
	DD	0ffffffffH
	DD	0ffffffffH
	DD	0ffffffffH
	DD	0ffffffffH
	DD	0ffffffffH
	DD	0ffffffffH
	DD	0ffffffffH
	DD	0ffffffffH
	DD	0ffffffffH
	DD	0ffffffffH
	DD	0ffffffffH
	DD	0ffffffffH
	DD	0ffffffffH
	DD	0ffffffffH
	DD	0ffffffffH
	DD	0ffffffffH
	DD	0ffffffffH
	DD	0ffffffffH
	DD	0ffffffffH
	DD	0ffffffffH
	DD	0ffffffffH
	DD	0ffffffffH
	DD	0ffffffffH
	DD	0ffffffffH
	DD	0ffffffffH
	DD	0ffffffffH
	DD	0ffffffffH
	DD	0ffffffffH
	DD	0ffffffffH
	DD	0ffffffffH
	DD	0ffffffffH
	DD	0ffffffffH
	DD	0ffffffffH
	DD	0ffffffffH
	DD	0ffffffffH
	DD	0ffffffffH
	DD	0ffffffffH
	DD	0ffffffffH
	DD	0ffffffffH
	DD	0ffffffffH
	DD	0ffffffffH
	DD	0ffffffffH
	DD	0ffffffffH
	DD	0ffffffffH
	DD	0ffffffffH
	DD	0ffffffffH
	DD	0ffffffffH
	DD	0ffffffffH
	DD	0ffffffffH
	DD	0ffffffffH
	DD	0ffffffffH
	DD	0ffffffffH
	DD	0ffffffffH
	DD	0ffffffffH
	DD	0ffffffffH
	DD	0ffffffffH
	DD	0ffffffffH
	DD	0ffffffffH
	DD	0ffffffffH
	DD	0ffffffffH
	DD	0ffffffffH
	DD	0ffffffffH
	DD	0ffffffffH
	DD	0ffffffffH
	DD	0ffffffffH
	DD	0ffffffffH
	DD	0ffffffffH
	DD	0ffffffffH
	DD	0ffffffffH
	DD	0ffffffffH
	DD	0ffffffffH
	DD	0ffffffffH
	DD	0ffffffffH
	DD	0ffffffffH
	DD	0ffffffffH
	DD	0ffffffffH
	DD	0ffffffffH
	DD	0ffffffffH
	DD	0ffffffffH
	DD	0ffffffffH
	DD	0ffffffffH
	DD	0ffffffffH
	DD	0ffffffffH
	DD	0ffffffffH
	DD	0ffffffffH
	DD	0ffffffffH
	DD	0ffffffffH
	DD	0ffffffffH
	DD	0ffffffffH
	DD	0ffffffffH
	DD	0ffffffffH
	DD	0ffffffffH
	DD	0ffffffffH
	DD	0ffffffffH
	DD	0ffffffffH
	DD	0ffffffffH
	DD	0ffffffffH
	DD	0ffffffffH
	DD	0ffffffffH
	DD	0ffffffffH
	DD	0ffffffffH
	DD	0ffffffffH
	DD	0ffffffffH
	DD	0ffffffffH
	DD	0ffffffffH
	DD	0ffffffffH
	DD	0ffffffffH
	DD	0ffffffffH
	DD	0ffffffffH
	DD	0ffffffffH
	DD	0ffffffffH
	DD	0ffffffffH
	DD	0ffffffffH
	DD	0ffffffffH
	DD	0ffffffffH
	DD	0ffffffffH
	DD	0ffffffffH
	DD	0ffffffffH
	DD	0ffffffffH
	DD	0ffffffffH
	DD	0ffffffffH
	DD	0ffffffffH
	DD	0ffffffffH
	DD	0ffffffffH
	DD	0ffffffffH
	DD	0ffffffffH
	DD	0ffffffffH
	DD	0ffffffffH
	DD	0ffffffffH
	DD	0ffffffffH
	DD	0ffffffffH
	DD	0ffffffffH
	DD	0ffffffffH
	DD	0ffffffffH
	DD	0ffffffffH
	DD	0ffffffffH
	DD	0ffffffffH
	DD	0ffffffffH
	DD	0ffffffffH
	DD	0ffffffffH
	DD	0ffffffffH
	DD	0ffffffffH
	DD	0ffffffffH
	DD	0ffffffffH
	DD	0ffffffffH
	DD	0ffffffffH
	DD	0ffffffffH
	DD	0ffffffffH
	DD	0ffffffffH
	DD	0ffffffffH
	DD	0ffffffffH
	DD	0ffffffffH
	DD	0ffffffffH
	DD	0ffffffffH
	DD	0ffffffffH
	DD	0ffffffffH
	DD	0ffffffffH
	DD	0ffffffffH
	DD	0ffffffffH
	DD	0ffffffffH
	DD	0ffffffffH
	DD	0ffffffffH
	DD	0ffffffffH
	DD	0ffffffffH
	DD	0ffffffffH
	DD	0ffffffffH
	DD	0ffffffffH
	DD	0ffffffffH
	DD	0ffffffffH
	DD	0ffffffffH
	DD	0ffffffffH
	DD	0ffffffffH
	DD	0ffffffffH
	DD	0ffffffffH
	DD	0ffffffffH
	DD	0ffffffffH
	DD	0ffffffffH
	DD	0ffffffffH
	DD	0ffffffffH
	DD	0ffffffffH
	DD	0ffffffffH
	DD	0ffffffffH
	DD	0ffffffffH
	DD	0ffffffffH
	DD	0ffffffffH
	DD	0ffffffffH
	DD	0ffffffffH
	DD	0ffffffffH
	DD	0ffffffffH
	DD	0ffffffffH
	DD	0ffffffffH
	DD	0ffffffffH
	DD	0ffffffffH
	DD	0ffffffffH
	DD	0ffffffffH
	DD	0ffffffffH
	DD	0ffffffffH
	DD	0ffffffffH
	DD	0ffffffffH
	DD	0ffffffffH
	DD	0ffffffffH
	DD	0ffffffffH
	DD	0ffffffffH
	DD	0ffffffffH
	DD	0ffffffffH
	DD	0ffffffffH
	DD	0ffffffffH
	DD	0ffffffffH
	DD	0ffffffffH
	DD	0ffffffffH
	DD	0ffffffffH
	DD	0ffffffffH
	DD	0ffffffffH
	DD	0ffffffffH
	DD	0ffffffffH
	DD	0ffffffffH
	DD	0ffffffffH
	DD	0ffffffffH
	DD	0ffffffffH
	DD	0ffffffffH
	DD	0fffefefeH
	DD	0fffbfbfbH
	DD	0fffdfefdH
	DD	0ffffffffH
	DD	0ffffffffH
	DD	0ffffffffH
	DD	0ffffffffH
	DD	0ffffffffH
	DD	0ffffffffH
	DD	0ffffffffH
	DD	0ffffffffH
	DD	0ffffffffH
	DD	0ffffffffH
	DD	0ffffffffH
	DD	0ffffffffH
	DD	0ffffffffH
	DD	0ffffffffH
	DD	0ffffffffH
	DD	0ffffffffH
	DD	0ffffffffH
	DD	0ffffffffH
	DD	0ffffffffH
	DD	0ffffffffH
	DD	0ffffffffH
	DD	0ffffffffH
	DD	0ffffffffH
	DD	0ffffffffH
	DD	0ffffffffH
	DD	0ffffffffH
	DD	0ffffffffH
	DD	0ffffffffH
	DD	0ffffffffH
	DD	0ffffffffH
	DD	0ffffffffH
	DD	0ffffffffH
	DD	0ffffffffH
	DD	0ffffffffH
	DD	0ffffffffH
	DD	0ffffffffH
	DD	0ffffffffH
	DD	0ffffffffH
	DD	0ffffffffH
	DD	0ffffffffH
	DD	0ffffffffH
	DD	0ffffffffH
	DD	0ffffffffH
	DD	0ffffffffH
	DD	0ffffffffH
	DD	0ffffffffH
	DD	0ffffffffH
	DD	0ffffffffH
	DD	0ffffffffH
	DD	0ffffffffH
	DD	0ffffffffH
	DD	0ffffffffH
	DD	0ffffffffH
	DD	0ffffffffH
	DD	0ffffffffH
	DD	0ffffffffH
	DD	0ffffffffH
	DD	0ffffffffH
	DD	0ffffffffH
	DD	0ffffffffH
	DD	0ffffffffH
	DD	0ffffffffH
	DD	0ffffffffH
	DD	0ffffffffH
	DD	0ffffffffH
	DD	0ffffffffH
	DD	0ffffffffH
	DD	0ffffffffH
	DD	0ffffffffH
	DD	0ffffffffH
	DD	0ffffffffH
	DD	0ffffffffH
	DD	0ffffffffH
	DD	0ffffffffH
	DD	0ffffffffH
	DD	0ffffffffH
	DD	0ffffffffH
	DD	0ffffffffH
	DD	0ffffffffH
	DD	0ffffffffH
	DD	0ffffffffH
	DD	0ffffffffH
	DD	0ffffffffH
	DD	0ffffffffH
	DD	0ffffffffH
	DD	0ffffffffH
	DD	0ffffffffH
	DD	0ffffffffH
	DD	0ffffffffH
	DD	0ffffffffH
	DD	0ffffffffH
	DD	0ffffffffH
	DD	0ffffffffH
	DD	0ffffffffH
	DD	0ffffffffH
	DD	0ffffffffH
	DD	0ffffffffH
	DD	0ffffffffH
	DD	0ffffffffH
	DD	0ffffffffH
	DD	0ffffffffH
	DD	0ffffffffH
	DD	0ffffffffH
	DD	0ffffffffH
	DD	0ffffffffH
	DD	0ffffffffH
	DD	0ffffffffH
	DD	0ffffffffH
	DD	0ffffffffH
	DD	0ffffffffH
	DD	0ffffffffH
	DD	0ffffffffH
	DD	0ffffffffH
	DD	0ffffffffH
	DD	0ffffffffH
	DD	0ffffffffH
	DD	0ffffffffH
	DD	0ffffffffH
	DD	0ffffffffH
	DD	0ffffffffH
	DD	0ffffffffH
	DD	0ffffffffH
	DD	0ffffffffH
	DD	0ffffffffH
	DD	0ffffffffH
	DD	0ffffffffH
	DD	0ffffffffH
	DD	0ffffffffH
	DD	0ffffffffH
	DD	0ffffffffH
	DD	0ffffffffH
	DD	0ffffffffH
	DD	0ffffffffH
	DD	0ffffffffH
	DD	0ffffffffH
	DD	0ffffffffH
	DD	0ffffffffH
	DD	0ffffffffH
	DD	0ffffffffH
	DD	0ffffffffH
	DD	0ffffffffH
	DD	0ffffffffH
	DD	0ffffffffH
	DD	0ffffffffH
	DD	0ffffffffH
	DD	0ffffffffH
	DD	0ffffffffH
	DD	0ffffffffH
	DD	0ffffffffH
	DD	0ffffffffH
	DD	0ffffffffH
	DD	0ffffffffH
	DD	0ffffffffH
	DD	0ffffffffH
	DD	0ffffffffH
	DD	0ffffffffH
	DD	0ffffffffH
	DD	0ffffffffH
	DD	0ffffffffH
	DD	0ffffffffH
	DD	0ffffffffH
	DD	0ffffffffH
	DD	0ffffffffH
	DD	0ffffffffH
	DD	0ffffffffH
	DD	0ffffffffH
	DD	0ffffffffH
	DD	0ffffffffH
	DD	0ffffffffH
	DD	0ffffffffH
	DD	0ffffffffH
	DD	0ffe5e5e5H
	DD	0ff5c5c5bH
	DD	0fe646262H
	DD	0ee84807fH
	DD	0d38e8b89H
	DD	0bf7c7a7aH
	DD	0c2585755H
	DD	0cd4f4d4cH
	DD	0d7514f4eH
	DD	0e2575554H
	DD	0ed545150H
	DD	0f5514e4dH
	DD	0fc555553H
	DD	0ff696766H
	DD	0ff5f5a57H
	DD	0ff423f3dH
	DD	0ff535151H
	DD	0ff514d4cH
	DD	0ff555453H
	DD	0ff5d5d5eH
	DD	0ff46413fH
	DD	0ff484341H
	DD	0ff595757H
	DD	0ff535050H
	DD	0ff4a4848H
	DD	0ffbcbbbbH
	DD	0ffffffffH
	DD	0ffffffffH
	DD	0ffffffffH
	DD	0ffffffffH
	DD	0ffffffffH
	DD	0ffffffffH
	DD	0ffffffffH
	DD	0ffffffffH
	DD	0ffffffffH
	DD	0ffffffffH
	DD	0ffffffffH
	DD	0ffffffffH
	DD	0ffffffffH
	DD	0ffffffffH
	DD	0ffffffffH
	DD	0ffffffffH
	DD	0ffffffffH
	DD	0ffffffffH
	DD	0ffffffffH
	DD	0ffffffffH
	DD	0ffffffffH
	DD	0ffffffffH
	DD	0ffffffffH
	DD	0ffffffffH
	DD	0ffffffffH
	DD	0ffffffffH
	DD	0ffffffffH
	DD	0ffffffffH
	DD	0ffffffffH
	DD	0ffffffffH
	DD	0ffffffffH
	DD	0ffffffffH
	DD	0ffffffffH
	DD	0ffffffffH
	DD	0ffffffffH
	DD	0ffffffffH
	DD	0ffffffffH
	DD	0ffffffffH
	DD	0ffffffffH
	DD	0ffffffffH
	DD	0ffffffffH
	DD	0ffffffffH
	DD	0ffffffffH
	DD	0ffffffffH
	DD	0ffffffffH
	DD	0ffffffffH
	DD	0ffffffffH
	DD	0ffffffffH
	DD	0ffffffffH
	DD	0ffffffffH
	DD	0ffffffffH
	DD	0ffffffffH
	DD	0ffffffffH
	DD	0ffffffffH
	DD	0ffffffffH
	DD	0ffffffffH
	DD	0ffffffffH
	DD	0ffffffffH
	DD	0ffffffffH
	DD	0ffffffffH
	DD	0ffffffffH
	DD	0ffffffffH
	DD	0ffffffffH
	DD	0ffffffffH
	DD	0ffffffffH
	DD	0ffffffffH
	DD	0ffffffffH
	DD	0ffffffffH
	DD	0ffffffffH
	DD	0ffffffffH
	DD	0ffffffffH
	DD	0ffffffffH
	DD	0ffffffffH
	DD	0ffffffffH
	DD	0ffffffffH
	DD	0ffffffffH
	DD	0ffffffffH
	DD	0ffffffffH
	DD	0ffffffffH
	DD	0ffffffffH
	DD	0ffffffffH
	DD	0ffffffffH
	DD	0ffffffffH
	DD	0ffffffffH
	DD	0ffffffffH
	DD	0ffffffffH
	DD	0ffffffffH
	DD	0ffffffffH
	DD	0ffffffffH
	DD	0ffffffffH
	DD	0ffffffffH
	DD	0ffffffffH
	DD	0ffffffffH
	DD	0ffffffffH
	DD	0ffffffffH
	DD	0ffffffffH
	DD	0ffffffffH
	DD	0ffffffffH
	DD	0ffffffffH
	DD	0ffffffffH
	DD	0ffffffffH
	DD	0ffffffffH
	DD	0ffffffffH
	DD	0ffffffffH
	DD	0ffffffffH
	DD	0ffffffffH
	DD	0ffffffffH
	DD	0ffffffffH
	DD	0ffffffffH
	DD	0ffffffffH
	DD	0ffffffffH
	DD	0ffffffffH
	DD	0ffffffffH
	DD	0ffffffffH
	DD	0ffffffffH
	DD	0ffffffffH
	DD	0ffffffffH
	DD	0ffffffffH
	DD	0ffffffffH
	DD	0ffffffffH
	DD	0ffffffffH
	DD	0ffffffffH
	DD	0ffffffffH
	DD	0ffffffffH
	DD	0ffffffffH
	DD	0ffffffffH
	DD	0ffffffffH
	DD	0ffffffffH
	DD	0ffffffffH
	DD	0ffffffffH
	DD	0ffffffffH
	DD	0ffffffffH
	DD	0ffffffffH
	DD	0ffffffffH
	DD	0ffffffffH
	DD	0ffffffffH
	DD	0ffffffffH
	DD	0ffffffffH
	DD	0ffffffffH
	DD	0ffffffffH
	DD	0ffffffffH
	DD	0ffffffffH
	DD	0ffffffffH
	DD	0ffffffffH
	DD	0ffffffffH
	DD	0ffffffffH
	DD	0ffffffffH
	DD	0ffffffffH
	DD	0ffffffffH
	DD	0ffffffffH
	DD	0ffffffffH
	DD	0ffffffffH
	DD	0ffe0e0dfH
	DD	0cf4e4d4bH
	DD	0407f7d7cH
	DD	0268c8a89H
	DD	013858382H
	DD	05a9a7a6H
	DD	06777575H
	DD	0f3c3a39H
	DD	016454241H
	DD	01f444140H
	DD	028413e3cH
	DD	02f403d3cH
	DD	0343b3938H
	DD	052615e5cH
	DD	07e696462H
	DD	08c3b3634H
	DD	09a2c2927H
	DD	0a5221d1aH
	DD	0b12e2a27H
	DD	0be373533H
	DD	0c9231d1aH
	DD	0d827211fH
	DD	0fa3d3b3aH
	DD	0ff363333H
	DD	0ff2c2a29H
	DD	0ffb0afafH
	DD	0ffffffffH
	DD	0ffffffffH
	DD	0ffffffffH
	DD	0ffffffffH
	DD	0ffffffffH
	DD	0ffffffffH
	DD	0ffffffffH
	DD	0ffffffffH
	DD	0ffffffffH
	DD	0ffffffffH
	DD	0ffffffffH
	DD	0ffffffffH
	DD	0ffffffffH
	DD	0ffffffffH
	DD	0ffffffffH
	DD	0ffffffffH
	DD	0ffffffffH
	DD	0ffffffffH
	DD	0ffffffffH
	DD	0ffffffffH
	DD	0ffffffffH
	DD	0ffffffffH
	DD	0ffffffffH
	DD	0ffffffffH
	DD	0ffffffffH
	DD	0ffffffffH
	DD	0ffffffffH
	DD	0ffffffffH
	DD	0ffffffffH
	DD	0ffffffffH
	DD	0ffffffffH
	DD	0ffffffffH
	DD	0ffffffffH
	DD	0ffffffffH
	DD	0ffffffffH
	DD	0ffffffffH
	DD	0ffffffffH
	DD	0ffffffffH
	DD	0ffffffffH
	DD	0ffffffffH
	DD	0ffffffffH
	DD	0ffffffffH
	DD	0ffffffffH
	DD	0ffffffffH
	DD	0ffffffffH
	DD	0ffffffffH
	DD	0ffffffffH
	DD	0ffffffffH
	DD	0ffffffffH
	DD	0ffffffffH
	DD	0ffffffffH
	DD	0ffffffffH
	DD	0ffffffffH
	DD	0ffffffffH
	DD	0ffffffffH
	DD	0ffffffffH
	DD	0ffffffffH
	DD	0ffffffffH
	DD	0ffffffffH
	DD	0ffffffffH
	DD	0ffffffffH
	DD	0ffffffffH
	DD	0ffffffffH
	DD	0ffffffffH
	DD	0ffffffffH
	DD	0ffffffffH
	DD	0ffffffffH
	DD	0ffffffffH
	DD	0ffffffffH
	DD	0ffffffffH
	DD	0ffffffffH
	DD	0ffffffffH
	DD	0ffffffffH
	DD	0ffffffffH
	DD	0ffffffffH
	DD	0ffffffffH
	DD	0ffffffffH
	DD	0ffffffffH
	DD	0ffffffffH
	DD	0ffffffffH
	DD	0ffffffffH
	DD	0ffffffffH
	DD	0ffffffffH
	DD	0ffffffffH
	DD	0ffffffffH
	DD	0ffffffffH
	DD	0ffffffffH
	DD	0ffffffffH
	DD	0ffffffffH
	DD	0ffffffffH
	DD	0ffffffffH
	DD	0ffffffffH
	DD	0ffffffffH
	DD	0ffffffffH
	DD	0ffffffffH
	DD	0ffffffffH
	DD	0ffffffffH
	DD	0ffffffffH
	DD	0ffffffffH
	DD	0ffffffffH
	DD	0ffffffffH
	DD	0ffffffffH
	DD	0ffffffffH
	DD	0ffffffffH
	DD	0ffffffffH
	DD	0ffffffffH
	DD	0ffffffffH
	DD	0ffffffffH
	DD	0ffffffffH
	DD	0ffffffffH
	DD	0ffffffffH
	DD	0ffffffffH
	DD	0ffffffffH
	DD	0ffffffffH
	DD	0ffffffffH
	DD	0ffffffffH
	DD	0ffffffffH
	DD	0ffffffffH
	DD	0ffffffffH
	DD	0ffffffffH
	DD	0ffffffffH
	DD	0ffffffffH
	DD	0ffffffffH
	DD	0ffffffffH
	DD	0ffffffffH
	DD	0ffffffffH
	DD	0ffffffffH
	DD	0ffffffffH
	DD	0ffffffffH
	DD	0ffffffffH
	DD	0ffffffffH
	DD	0ffffffffH
	DD	0ffffffffH
	DD	0ffffffffH
	DD	0ffffffffH
	DD	0ffffffffH
	DD	0ffffffffH
	DD	0ffffffffH
	DD	0ffffffffH
	DD	0ffffffffH
	DD	0ffffffffH
	DD	0ffffffffH
	DD	0ffffffffH
	DD	0ffffffffH
	DD	0ffffffffH
	DD	0ffffffffH
	DD	0ffffffffH
	DD	0ffffffffH
	DD	0ffffffffH
	DD	0ffffffffH
	DD	0ffffffffH
	DD	0ffffffffH
	DD	0ffe4e3e3H
	DD	09e666361H
	DD	081807fH
	DD	07c7b7cH
	DD	0767475H
	DD	0999797H
	DD	09e9c9bH
	DD	04f4c4bH
	DD	0565351H
	DD	0545150H
	DD	0545151H
	DD	0545150H
	DD	053504fH
	DD	0858281H
	DD	0989796H
	DD	0999695H
	DD	0868180H
	DD	0605957H
	DD	02d2623H
	DD	028211eH
	DD	0428201eH
	DD	01527201eH
	DD	0442d2725H
	DD	084322d2cH
	DD	0c72e2b2aH
	DD	0fab2b1b1H
	DD	0ffffffffH
	DD	0ffffffffH
	DD	0ffffffffH
	DD	0ffffffffH
	DD	0ffffffffH
	DD	0ffffffffH
	DD	0ffffffffH
	DD	0ffffffffH
	DD	0ffffffffH
	DD	0ffffffffH
	DD	0ffffffffH
	DD	0ffffffffH
	DD	0ffffffffH
	DD	0ffffffffH
	DD	0ffffffffH
	DD	0ffffffffH
	DD	0ffffffffH
	DD	0ffffffffH
	DD	0ffffffffH
	DD	0ffffffffH
	DD	0ffffffffH
	DD	0ffffffffH
	DD	0ffffffffH
	DD	0ffffffffH
	DD	0ffffffffH
	DD	0ffffffffH
	DD	0ffffffffH
	DD	0ffffffffH
	DD	0ffffffffH
	DD	0ffffffffH
	DD	0ffffffffH
	DD	0ffffffffH
	DD	0ffffffffH
	DD	0ffffffffH
	DD	0ffffffffH
	DD	0ffffffffH
	DD	0ffffffffH
	DD	0ffffffffH
	DD	0ffffffffH
	DD	0ffffffffH
	DD	0ffffffffH
	DD	0ffffffffH
	DD	0ffffffffH
	DD	0ffffffffH
	DD	0ffffffffH
	DD	0ffffffffH
	DD	0ffffffffH
	DD	0ffffffffH
	DD	0ffffffffH
	DD	0ffffffffH
	DD	0ffffffffH
	DD	0ffffffffH
	DD	0ffffffffH
	DD	0ffffffffH
	DD	0ffffffffH
	DD	0ffffffffH
	DD	0ffffffffH
	DD	0ffffffffH
	DD	0ffffffffH
	DD	0ffffffffH
	DD	0ffffffffH
	DD	0ffffffffH
	DD	0ffffffffH
	DD	0ffffffffH
	DD	0ffffffffH
	DD	0ffffffffH
	DD	0ffffffffH
	DD	0ffffffffH
	DD	0ffffffffH
	DD	0ffffffffH
	DD	0ffffffffH
	DD	0ffffffffH
	DD	0ffffffffH
	DD	0ffffffffH
	DD	0ffffffffH
	DD	0ffffffffH
	DD	0ffffffffH
	DD	0ffffffffH
	DD	0ffffffffH
	DD	0ffffffffH
	DD	0ffffffffH
	DD	0ffffffffH
	DD	0ffffffffH
	DD	0ffffffffH
	DD	0ffffffffH
	DD	0ffffffffH
	DD	0ffffffffH
	DD	0ffffffffH
	DD	0ffffffffH
	DD	0ffffffffH
	DD	0ffffffffH
	DD	0ffffffffH
	DD	0ffffffffH
	DD	0ffffffffH
	DD	0ffffffffH
	DD	0ffffffffH
	DD	0ffffffffH
	DD	0ffffffffH
	DD	0ffffffffH
	DD	0ffffffffH
	DD	0ffffffffH
	DD	0ffffffffH
	DD	0ffffffffH
	DD	0ffffffffH
	DD	0ffffffffH
	DD	0ffffffffH
	DD	0ffffffffH
	DD	0ffffffffH
	DD	0ffffffffH
	DD	0ffffffffH
	DD	0ffffffffH
	DD	0ffffffffH
	DD	0ffffffffH
	DD	0ffffffffH
	DD	0ffffffffH
	DD	0ffffffffH
	DD	0ffffffffH
	DD	0ffffffffH
	DD	0ffffffffH
	DD	0ffffffffH
	DD	0ffffffffH
	DD	0ffffffffH
	DD	0ffffffffH
	DD	0fffefefeH
	DD	0ffa4a3a3H
	DD	0ff979696H
	DD	0ff999898H
	DD	0ff999898H
	DD	0ff999898H
	DD	0ff999898H
	DD	0ff999898H
	DD	0ff999898H
	DD	0ff999898H
	DD	0ff999898H
	DD	0ff999898H
	DD	0ff999898H
	DD	0ff999898H
	DD	0ff989897H
	DD	0ff8c8a89H
	DD	0ff7d7b7aH
	DD	0ff7e7c7bH
	DD	0ff7e7c7bH
	DD	0ff7e7c7bH
	DD	0ff7c7b7aH
	DD	0ff747372H
	DD	0ff6c6b6bH
	DD	0f1797776H
	DD	0dd62605eH
	DD	0e252504fH
	DD	0e8565554H
	DD	0ed514e4cH
	DD	0f2545050H
	DD	0ff565454H
	DD	09b646260H
	DD	0807d7dH
	DD	07c7a7aH
	DD	07a7978H
	DD	08c8a8aH
	DD	0acabaaH
	DD	04e4a49H
	DD	0474341H
	DD	0464341H
	DD	0474442H
	DD	0423f3eH
	DD	05c5857H
	DD	0868483H
	DD	07c7b7aH
	DD	081807fH
	DD	08e8e8dH
	DD	0bbbbbbH
	DD	0625f5eH
	DD	04c4947H
	DD	04e4b49H
	DD	04a4745H
	DD	0474240H
	DD	0454140H
	DD	0745413fH
	DD	0af514f4eH
	DD	0ff5a5857H
	DD	0ff595757H
	DD	0ff555351H
	DD	0ff4f4a48H
	DD	0ff504c4bH
	DD	0ff514e4cH
	DD	0ff595656H
	DD	0ff636262H
	DD	0ff5a5857H
	DD	0ff616060H
	DD	0ff686868H
	DD	0ff676666H
	DD	0ff676666H
	DD	0ff676666H
	DD	0ff676666H
	DD	0ff676666H
	DD	0ff676666H
	DD	0ff676666H
	DD	0ff676666H
	DD	0ff676666H
	DD	0ff676666H
	DD	0ff676666H
	DD	0ff676666H
	DD	0ff676666H
	DD	0ff676666H
	DD	0ff676666H
	DD	0ff676666H
	DD	0ff676666H
	DD	0ff676666H
	DD	0ff676666H
	DD	0ff676666H
	DD	0ff676666H
	DD	0ff676666H
	DD	0ff676666H
	DD	0ff676666H
	DD	0ff676666H
	DD	0ff676666H
	DD	0ff676666H
	DD	0ff676666H
	DD	0ff676666H
	DD	0ff676666H
	DD	0ff676666H
	DD	0ff676666H
	DD	0ff676666H
	DD	0ff676666H
	DD	0ff605e5eH
	DD	0ff8b8b8bH
	DD	0ffffffffH
	DD	0ffffffffH
	DD	0ffffffffH
	DD	0ffffffffH
	DD	0ffffffffH
	DD	0ffffffffH
	DD	0ffffffffH
	DD	0ffffffffH
	DD	0ffffffffH
	DD	0ffffffffH
	DD	0ffffffffH
	DD	0ffffffffH
	DD	0ffffffffH
	DD	0ffffffffH
	DD	0ffffffffH
	DD	0ffffffffH
	DD	0ffffffffH
	DD	0ffffffffH
	DD	0ffffffffH
	DD	0ffffffffH
	DD	0ffffffffH
	DD	0ffffffffH
	DD	0ffffffffH
	DD	0ffffffffH
	DD	0ffffffffH
	DD	0ffffffffH
	DD	0ffffffffH
	DD	0ffffffffH
	DD	0ffffffffH
	DD	0ffffffffH
	DD	0ffffffffH
	DD	0ffffffffH
	DD	0ffffffffH
	DD	0ffffffffH
	DD	0ffffffffH
	DD	0ffffffffH
	DD	0ffffffffH
	DD	0ffffffffH
	DD	0ffffffffH
	DD	0ffffffffH
	DD	0ffffffffH
	DD	0ffffffffH
	DD	0ffffffffH
	DD	0ffffffffH
	DD	0ffffffffH
	DD	0ffffffffH
	DD	0ffffffffH
	DD	0ffffffffH
	DD	0ffffffffH
	DD	0ffffffffH
	DD	0ffffffffH
	DD	0ffffffffH
	DD	0ffffffffH
	DD	0ffffffffH
	DD	0ffffffffH
	DD	0ffffffffH
	DD	0ffffffffH
	DD	0ffffffffH
	DD	0ffeeeeeeH
	DD	0ffdbdbdbH
	DD	0ffdcdcdcH
	DD	0fcd7d5d5H
	DD	0f3d5d1d1H
	DD	0f2d5d1d1H
	DD	0f2d5d1d1H
	DD	0f2d5d1d1H
	DD	0f2d5d1d1H
	DD	0f2d5d1d1H
	DD	0f2d5d1d1H
	DD	0f2d5d1d1H
	DD	0f2d5d1d1H
	DD	0f2d5d1d1H
	DD	0f2d5d1d1H
	DD	0f2d5d1d1H
	DD	0f2d5d1d1H
	DD	0f2d6d2d2H
	DD	0f2d4d0d0H
	DD	0f275706fH
	DD	0f2676261H
	DD	0f26a6564H
	DD	0f26a6564H
	DD	0f26a6564H
	DD	0f26a6564H
	DD	0f26a6564H
	DD	0f26a6564H
	DD	0f26a6564H
	DD	0f26a6564H
	DD	0f26a6564H
	DD	0f26a6564H
	DD	0f26a6564H
	DD	0f2696363H
	DD	0f25c5655H
	DD	0f24e4847H
	DD	0f24f4948H
	DD	0f24f4948H
	DD	0f24f4948H
	DD	0f34c4847H
	DD	0f14a4948H
	DD	0b8605d5dH
	DD	037918e8dH
	DD	014797777H
	DD	01c292625H
	DD	021333130H
	DD	0272f2c2bH
	DD	02c2d2a29H
	DD	037353231H
	DD	022676564H
	DD	0838181H
	DD	07e7d7cH
	DD	07e7d7cH
	DD	07f7e7dH
	DD	0979695H
	DD	07e7b7aH
	DD	0736e6cH
	DD	06e6866H
	DD	067615eH
	DD	0635c59H
	DD	0807d7bH
	DD	0868585H
	DD	07f7e7eH
	DD	0807f7eH
	DD	0858585H
	DD	0b0b0afH
	DD	05d5b59H
	DD	04d4b4aH
	DD	04f4c4bH
	DD	04e4a49H
	DD	04d4a49H
	DD	04c4948H
	DD	04d4948H
	DD	09a363030H
	DD	0fd2b2626H
	DD	0f22b2424H
	DD	0f2231b19H
	DD	0f2201715H
	DD	0f2221a19H
	DD	0f2231b19H
	DD	0f22b2423H
	DD	0f235302fH
	DD	0f22b2625H
	DD	0f2332d2dH
	DD	0f23a3535H
	DD	0f2393433H
	DD	0f2393433H
	DD	0f2393433H
	DD	0f2393433H
	DD	0f2393433H
	DD	0f2393433H
	DD	0f2393433H
	DD	0f2393433H
	DD	0f2393433H
	DD	0f2393433H
	DD	0f2393433H
	DD	0f2393433H
	DD	0f2393433H
	DD	0f2393433H
	DD	0f2393433H
	DD	0f2393433H
	DD	0f2393433H
	DD	0f2393433H
	DD	0f2393433H
	DD	0f2393433H
	DD	0f2393433H
	DD	0f2393433H
	DD	0f2393433H
	DD	0f2393433H
	DD	0f2393433H
	DD	0f2393433H
	DD	0f2393433H
	DD	0f2393433H
	DD	0f2393433H
	DD	0f2393433H
	DD	0f2393433H
	DD	0f2393433H
	DD	0f2393433H
	DD	0f2393433H
	DD	0f2312c2bH
	DD	0f25e5959H
	DD	0f2dedadaH
	DD	0f2d5d1d1H
	DD	0f2d5d1d1H
	DD	0f2d5d1d1H
	DD	0f2d5d1d1H
	DD	0f2d5d1d1H
	DD	0f2d5d1d1H
	DD	0f2d5d1d1H
	DD	0f2d5d1d1H
	DD	0f2d5d1d1H
	DD	0f2d5d1d1H
	DD	0f2d5d1d1H
	DD	0f2d5d1d1H
	DD	0f2d5d1d1H
	DD	0f2d5d1d1H
	DD	0f2d5d1d1H
	DD	0f2d5d1d1H
	DD	0f2d5d1d1H
	DD	0f2d5d1d1H
	DD	0f2d5d1d1H
	DD	0f2d5d1d1H
	DD	0f2d5d1d1H
	DD	0f2d5d1d1H
	DD	0f2d5d1d1H
	DD	0f2d5d1d1H
	DD	0f2d5d1d1H
	DD	0f2d5d1d1H
	DD	0f2d5d1d1H
	DD	0f2d5d1d1H
	DD	0f2d5d1d1H
	DD	0f2d5d1d1H
	DD	0f2d5d1d1H
	DD	0f2d5d1d1H
	DD	0f2d5d1d1H
	DD	0f2d5d1d1H
	DD	0f2d5d1d1H
	DD	0f2d5d1d1H
	DD	0f2d5d1d1H
	DD	0f2d5d1d1H
	DD	0f2d5d1d1H
	DD	0f2d5d1d1H
	DD	0f1d5d1d1H
	DD	0f8d7d3d3H
	DD	0ffdbdadaH
	DD	0ffddddddH
	DD	0ffddddddH
	DD	0ffddddddH
	DD	0fffbfbfbH
	DD	0ffffffffH
	DD	0ffffffffH
	DD	0ffffffffH
	DD	0ffffffffH
	DD	0ffffffffH
	DD	0ffffffffH
	DD	0ffffffffH
	DD	0ffffffffH
	DD	0ffffffffH
	DD	0ffffffffH
	DD	0ff7d7d7dH
	DD	0f6000000H
	DD	0a2020303H
	DD	04f253333H
	DD	0303c5455H
	DD	02f3b5556H
	DD	0303a5455H
	DD	0303a5455H
	DD	0303a5455H
	DD	0303a5455H
	DD	0303a5455H
	DD	0303a5455H
	DD	0303a5455H
	DD	0303a5455H
	DD	0303a5455H
	DD	0303a5455H
	DD	0303a5455H
	DD	0303a5455H
	DD	0303a5455H
	DD	0303b5556H
	DD	0303b5556H
	DD	0303b5556H
	DD	0303b5556H
	DD	0303b5556H
	DD	0303b5556H
	DD	0303b5556H
	DD	0303b5556H
	DD	0303b5556H
	DD	0303b5556H
	DD	0303b5556H
	DD	0303b5556H
	DD	0303b5556H
	DD	0303b5556H
	DD	0303b5556H
	DD	0303b5556H
	DD	0303b5556H
	DD	0303b5556H
	DD	0303b5657H
	DD	031384e4fH
	DD	023555756H
	DD	027f7c7bH
	DD	0868484H
	DD	0b3b2b2H
	DD	04a4847H
	DD	02c2a29H
	DD	0403e3dH
	DD	0575553H
	DD	0716f6eH
	DD	0828180H
	DD	0817f7fH
	DD	0807f7eH
	DD	0817f7fH
	DD	0807f7eH
	DD	07e7c7dH
	DD	0858383H
	DD	0888686H
	DD	0888787H
	DD	0898888H
	DD	08d8c8cH
	DD	08a8989H
	DD	0838281H
	DD	0838281H
	DD	081807fH
	DD	08c8a8aH
	DD	0b4b3b3H
	DD	0565353H
	DD	04f4c4cH
	DD	04f4d4cH
	DD	04d4a49H
	DD	04c4948H
	DD	04b4848H
	DD	04b4949H
	DD	0233e5859H
	DD	0323c5e60H
	DD	0303d5d5eH
	DD	0303d5d5eH
	DD	0303d5c5eH
	DD	0303d5c5dH
	DD	0303d5b5dH
	DD	0303d5a5bH
	DD	0303c5657H
	DD	0303c5657H
	DD	0303c5657H
	DD	0303c5657H
	DD	0303c5657H
	DD	0303c5657H
	DD	0303c5657H
	DD	0303c5657H
	DD	0303c5657H
	DD	0303c5657H
	DD	0303c5657H
	DD	0303c5657H
	DD	0303c5657H
	DD	0303c5657H
	DD	0303c5657H
	DD	0303c5657H
	DD	0303c5657H
	DD	0303c5657H
	DD	0303c5657H
	DD	0303c5657H
	DD	0303c5657H
	DD	0303c5657H
	DD	0303c5657H
	DD	0303c5657H
	DD	0303c5657H
	DD	0303c5657H
	DD	0303c5657H
	DD	0303c5657H
	DD	0303c5657H
	DD	0303c5657H
	DD	0303c5657H
	DD	0303c5657H
	DD	0303c5657H
	DD	0303c5657H
	DD	0303c5657H
	DD	0303c5657H
	DD	0303c5657H
	DD	0303c5657H
	DD	0303c5657H
	DD	0303c5657H
	DD	0303a5455H
	DD	0303a5455H
	DD	0303a5455H
	DD	0303a5455H
	DD	0303a5455H
	DD	0303a5455H
	DD	0303a5455H
	DD	0303a5455H
	DD	0303a5455H
	DD	0303a5455H
	DD	0303a5455H
	DD	0303a5455H
	DD	0303a5455H
	DD	0303a5455H
	DD	0303a5455H
	DD	0303a5455H
	DD	0303a5455H
	DD	0303a5455H
	DD	0303a5455H
	DD	0303a5455H
	DD	0303a5455H
	DD	0303a5455H
	DD	0303a5455H
	DD	0303a5455H
	DD	0303a5455H
	DD	0303a5455H
	DD	0303a5455H
	DD	0303a5455H
	DD	0303a5455H
	DD	0303a5455H
	DD	0303a5455H
	DD	0303a5455H
	DD	0303a5455H
	DD	0303a5455H
	DD	0303a5455H
	DD	0303a5455H
	DD	0303a5455H
	DD	0303a5455H
	DD	0303a5455H
	DD	0303a5455H
	DD	0303a5455H
	DD	02e3b5657H
	DD	03e2c4546H
	DD	07c091111H
	DD	0db000000H
	DD	0ff000000H
	DD	0ff000000H
	DD	0ffdededeH
	DD	0ffffffffH
	DD	0ffffffffH
	DD	0ffffffffH
	DD	0ffffffffH
	DD	0ffffffffH
	DD	0ffffffffH
	DD	0ffffffffH
	DD	0ffffffffH
	DD	0ffffffffH
	DD	0ffffffffH
	DD	0ff7a7878H
	DD	063000202H
	DD	076aeb1H
	DD	092f6faH
	DD	080fcffH
	DD	07bfcffH
	DD	07bfcffH
	DD	07bfcffH
	DD	07bfcffH
	DD	07bfcffH
	DD	07bfcffH
	DD	07bfcffH
	DD	07bfcffH
	DD	07bfcffH
	DD	07bfcffH
	DD	07bfcffH
	DD	07bfcffH
	DD	07bfcffH
	DD	07bfcffH
	DD	07bfcffH
	DD	07bfcffH
	DD	07bfcffH
	DD	07bfcffH
	DD	07bfcffH
	DD	07bfcffH
	DD	07bfcffH
	DD	07bfcffH
	DD	07bfcffH
	DD	07bfcffH
	DD	07bfcffH
	DD	07bfcffH
	DD	07bfcffH
	DD	07bfcffH
	DD	07bfcffH
	DD	07bfcffH
	DD	07bfcffH
	DD	07bfcffH
	DD	07affffH
	DD	07dbbbdH
	DD	0888281H
	DD	07d7b7aH
	DD	0787676H
	DD	09c9a99H
	DD	093908eH
	DD	0656261H
	DD	07e7d7cH
	DD	0858483H
	DD	0848382H
	DD	07f7d7dH
	DD	0817f7fH
	DD	0818080H
	DD	081807fH
	DD	0848383H
	DD	0848281H
	DD	0848282H
	DD	0848282H
	DD	0848383H
	DD	0848383H
	DD	0858383H
	DD	0848282H
	DD	0858484H
	DD	0858483H
	DD	0848382H
	DD	0858484H
	DD	0a5a4a3H
	DD	0625f5dH
	DD	03d3736H
	DD	0403b39H
	DD	0433e3cH
	DD	0443f3dH
	DD	0423c3aH
	DD	0423d3cH
	DD	06fafb0H
	DD	071daddH
	DD	074dce0H
	DD	076dfe2H
	DD	076e1e4H
	DD	076e4e8H
	DD	077e6eaH
	DD	079f2f5H
	DD	07cffffH
	DD	07bfeffH
	DD	07bfcffH
	DD	07bfcffH
	DD	07bfcffH
	DD	07bfcffH
	DD	07bfcffH
	DD	07bfcffH
	DD	07bfcffH
	DD	07bfcffH
	DD	07bfcffH
	DD	07bfcffH
	DD	07bfcffH
	DD	07bfcffH
	DD	07bfcffH
	DD	07bfcffH
	DD	07bfcffH
	DD	07bfcffH
	DD	07bfcffH
	DD	07bfcffH
	DD	07bfcffH
	DD	07bfcffH
	DD	07bfcffH
	DD	07bfcffH
	DD	07bfcffH
	DD	07bfcffH
	DD	07bfcffH
	DD	07bfcffH
	DD	07bfcffH
	DD	07bfcffH
	DD	07bfcffH
	DD	07bfcffH
	DD	07bfcffH
	DD	07bfcffH
	DD	07bfcffH
	DD	07bfcffH
	DD	07bfcffH
	DD	07bfcffH
	DD	07bfcffH
	DD	07bfcffH
	DD	07bfcffH
	DD	07bfcffH
	DD	07bfcffH
	DD	07bfcffH
	DD	07bfcffH
	DD	07bfcffH
	DD	07bfcffH
	DD	07bfcffH
	DD	07bfcffH
	DD	07bfcffH
	DD	07bfcffH
	DD	07bfcffH
	DD	07bfcffH
	DD	07bfcffH
	DD	07bfcffH
	DD	07bfcffH
	DD	07bfcffH
	DD	07bfcffH
	DD	07bfcffH
	DD	07bfcffH
	DD	07bfcffH
	DD	07bfcffH
	DD	07bfcffH
	DD	07bfcffH
	DD	07bfcffH
	DD	07bfcffH
	DD	07bfcffH
	DD	07bfcffH
	DD	07bfcffH
	DD	07bfcffH
	DD	07bfcffH
	DD	07bfcffH
	DD	07bfcffH
	DD	07bfcffH
	DD	07bfcffH
	DD	07bfcffH
	DD	07bfcffH
	DD	07bfcffH
	DD	07bfcffH
	DD	07bfcffH
	DD	07bfcffH
	DD	07bfdffH
	DD	07bf9fdH
	DD	062dadeH
	DD	01e154b4dH
	DD	0da000000H
	DD	0ff000000H
	DD	0ffdededeH
	DD	0ffffffffH
	DD	0ffffffffH
	DD	0ffffffffH
	DD	0ffffffffH
	DD	0ffffffffH
	DD	0ffffffffH
	DD	0ffffffffH
	DD	0ffffffffH
	DD	0ffffffffH
	DD	0ffffffffH
	DD	0c1797676H
	DD	07408383H
	DD	07dffffH
	DD	048feffH
	DD	03ffcffH
	DD	03ffcffH
	DD	03ffcffH
	DD	03ffcffH
	DD	03ffcffH
	DD	03ffcffH
	DD	03ffcffH
	DD	03ffcffH
	DD	03ffcffH
	DD	03ffcffH
	DD	03ffcffH
	DD	03ffcffH
	DD	03ffcffH
	DD	03ffcffH
	DD	03ffcffH
	DD	03ffcffH
	DD	03ffcffH
	DD	03ffcffH
	DD	03ffcffH
	DD	03ffcffH
	DD	03ffcffH
	DD	03ffcffH
	DD	03ffcffH
	DD	03ffcffH
	DD	03ffcffH
	DD	03ffcffH
	DD	03ffcffH
	DD	03ffcffH
	DD	03ffcffH
	DD	03ffcffH
	DD	03ffcffH
	DD	03ffcffH
	DD	03ffcffH
	DD	03dffffH
	DD	04dc5c7H
	DD	0807876H
	DD	07f7e7eH
	DD	07e7c7bH
	DD	07e7c7cH
	DD	0888685H
	DD	0868484H
	DD	0828180H
	DD	081807fH
	DD	0828180H
	DD	0817f7fH
	DD	0828080H
	DD	0828181H
	DD	0838181H
	DD	0838282H
	DD	0848282H
	DD	0848282H
	DD	0858584H
	DD	0858483H
	DD	0868485H
	DD	0868484H
	DD	0868483H
	DD	0868585H
	DD	0868585H
	DD	0878685H
	DD	0848382H
	DD	0858484H
	DD	08f8d8cH
	DD	075716fH
	DD	04d4744H
	DD	03a332fH
	DD	03c3431H
	DD	0372f2cH
	DD	0635c59H
	DD	0a1a5a4H
	DD	0616e6eH
	DD	0243231H
	DD	02c3d3bH
	DD	02e403fH
	DD	02d4241H
	DD	02e413fH
	DD	02f5656H
	DD	039cacdH
	DD	040ffffH
	DD	03ffdffH
	DD	03ffcffH
	DD	03ffcffH
	DD	03ffcffH
	DD	03ffcffH
	DD	03ffcffH
	DD	03ffcffH
	DD	03ffcffH
	DD	03ffcffH
	DD	03ffcffH
	DD	03ffcffH
	DD	03ffcffH
	DD	03ffcffH
	DD	03ffcffH
	DD	03ffcffH
	DD	03ffcffH
	DD	03ffcffH
	DD	03ffcffH
	DD	03ffcffH
	DD	03ffcffH
	DD	03ffcffH
	DD	03ffcffH
	DD	03ffcffH
	DD	03ffcffH
	DD	03ffcffH
	DD	03ffcffH
	DD	03ffcffH
	DD	03ffcffH
	DD	03ffcffH
	DD	03ffcffH
	DD	03ffcffH
	DD	03ffcffH
	DD	03ffcffH
	DD	03ffcffH
	DD	03ffcffH
	DD	03ffcffH
	DD	03ffcffH
	DD	03ffcffH
	DD	03ffcffH
	DD	03ffcffH
	DD	03ffcffH
	DD	03ffcffH
	DD	03ffcffH
	DD	03ffcffH
	DD	03ffcffH
	DD	03ffcffH
	DD	03ffcffH
	DD	03ffcffH
	DD	03ffcffH
	DD	03ffcffH
	DD	03ffcffH
	DD	03ffcffH
	DD	03ffcffH
	DD	03ffcffH
	DD	03ffcffH
	DD	03ffcffH
	DD	03ffcffH
	DD	03ffcffH
	DD	03ffcffH
	DD	03ffcffH
	DD	03ffcffH
	DD	03ffcffH
	DD	03ffcffH
	DD	03ffcffH
	DD	03ffcffH
	DD	03ffcffH
	DD	03ffcffH
	DD	03ffcffH
	DD	03ffcffH
	DD	03ffcffH
	DD	03ffcffH
	DD	03ffcffH
	DD	03ffcffH
	DD	03ffcffH
	DD	03ffcffH
	DD	03ffcffH
	DD	03ffcffH
	DD	03ffcffH
	DD	03ffcffH
	DD	03ffcffH
	DD	041fdffH
	DD	04cffffH
	DD	038dadcH
	DD	06a031616H
	DD	0ff000000H
	DD	0ffdededeH
	DD	0ffffffffH
	DD	0ffffffffH
	DD	0ffffffffH
	DD	0ffffffffH
	DD	0ffffffffH
	DD	0ffffffffH
	DD	0ffffffffH
	DD	0ffffffffH
	DD	0ffffffffH
	DD	0ffffffffH
	DD	0837e7d7dH
	DD	045c8ccH
	DD	049ffffH
	DD	03bf9feH
	DD	03ef9feH
	DD	03ef9feH
	DD	03ef9feH
	DD	03ef9feH
	DD	03ef9feH
	DD	03ef9feH
	DD	03ef9feH
	DD	03ef9feH
	DD	03ef9feH
	DD	03ef9feH
	DD	03ef9feH
	DD	03ef9feH
	DD	03ef9feH
	DD	03ef9feH
	DD	03ef9feH
	DD	03ef9feH
	DD	03ef9feH
	DD	03ef9feH
	DD	03ef9feH
	DD	03ef9feH
	DD	03ef9feH
	DD	03ef9feH
	DD	03ef9feH
	DD	03ef9feH
	DD	03ef9feH
	DD	03ef9feH
	DD	03ef9feH
	DD	03ef9feH
	DD	03ef9feH
	DD	03ef9feH
	DD	03ef9feH
	DD	03ef9feH
	DD	03ef9feH
	DD	03cfdffH
	DD	041e5eaH
	DD	07a8585H
	DD	0827e7dH
	DD	0807f7eH
	DD	0807f7eH
	DD	0807e7eH
	DD	0828080H
	DD	0838081H
	DD	081807fH
	DD	0838181H
	DD	0848382H
	DD	0858484H
	DD	0888786H
	DD	0898888H
	DD	08b8a89H
	DD	08b8a89H
	DD	08d8b8bH
	DD	0918f8fH
	DD	08c8887H
	DD	08a8181H
	DD	0898181H
	DD	0868383H
	DD	0878685H
	DD	0868585H
	DD	0868586H
	DD	0858483H
	DD	0868584H
	DD	0878686H
	DD	08c8c8bH
	DD	08f8d8cH
	DD	0716d6bH
	DD	047413dH
	DD	057504dH
	DD	08c8a89H
	DD	0878585H
	DD	0a8a2a2H
	DD	077706fH
	DD	0291f1cH
	DD	02c2220H
	DD	02f2421H
	DD	02d2321H
	DD	02c1e1bH
	DD	02c2f2dH
	DD	034a7aaH
	DD	03efeffH
	DD	03ffcffH
	DD	03ef9feH
	DD	03ef9feH
	DD	03ef9feH
	DD	03ef9feH
	DD	03ef9feH
	DD	03ef9feH
	DD	03ef9feH
	DD	03ef9feH
	DD	03ef9feH
	DD	03ef9feH
	DD	03ef9feH
	DD	03ef9feH
	DD	03ef9feH
	DD	03ef9feH
	DD	03ef9feH
	DD	03ef9feH
	DD	03ef9feH
	DD	03ef9feH
	DD	03ef9feH
	DD	03ef9feH
	DD	03ef9feH
	DD	03ef9feH
	DD	03ef9feH
	DD	03ef9feH
	DD	03ef9feH
	DD	03ef9feH
	DD	03ef9feH
	DD	03ef9feH
	DD	03ef9feH
	DD	03ef9feH
	DD	03ef9feH
	DD	03ef9feH
	DD	03ef9feH
	DD	03ef9feH
	DD	03ef9feH
	DD	03ef9feH
	DD	03ef9feH
	DD	03ef9feH
	DD	03ef9feH
	DD	03ef9feH
	DD	03ef9feH
	DD	03ef9feH
	DD	03ef9feH
	DD	03ef9feH
	DD	03ef9feH
	DD	03ef9feH
	DD	03ef9feH
	DD	03ef9feH
	DD	03ef9feH
	DD	03ef9feH
	DD	03ef9feH
	DD	03ef9feH
	DD	03ef9feH
	DD	03ef9feH
	DD	03ef9feH
	DD	03ef9feH
	DD	03ef9feH
	DD	03ef9feH
	DD	03ef9feH
	DD	03ef9feH
	DD	03ef9feH
	DD	03ef9feH
	DD	03ef9feH
	DD	03ef9feH
	DD	03ef9feH
	DD	03ef9feH
	DD	03ef9feH
	DD	03ef9feH
	DD	03ef9feH
	DD	03ef9feH
	DD	03ef9feH
	DD	03ef9feH
	DD	03ef9feH
	DD	03ef9feH
	DD	03ef9feH
	DD	03ef9feH
	DD	03ef9feH
	DD	03ef9feH
	DD	03ef9feH
	DD	03ffcffH
	DD	038e5e9H
	DD	0200a2e30H
	DD	0f5000000H
	DD	0ffdededeH
	DD	0ffffffffH
	DD	0ffffffffH
	DD	0ffffffffH
	DD	0ffffffffH
	DD	0ffffffffH
	DD	0ffffffffH
	DD	0ffffffffH
	DD	0ffffffffH
	DD	0ffffffffH
	DD	0ffffffffH
	DD	07d7e7e7eH
	DD	035cbcfH
	DD	043ffffH
	DD	03ef9feH
	DD	03ff9feH
	DD	03ff9feH
	DD	03ff9feH
	DD	03ff9feH
	DD	03ff9feH
	DD	03ff9feH
	DD	03ff9feH
	DD	03ff9feH
	DD	03ff9feH
	DD	03ff9feH
	DD	03ff9feH
	DD	03ff9feH
	DD	03ff9feH
	DD	03ff9feH
	DD	03ff9feH
	DD	03ff9feH
	DD	03ff9feH
	DD	03ff9feH
	DD	03ff9feH
	DD	03ff9feH
	DD	03ff9feH
	DD	03ff9feH
	DD	03ff9feH
	DD	03ff9feH
	DD	03ff9feH
	DD	03ff9feH
	DD	03ff9feH
	DD	03ff9feH
	DD	03ff9feH
	DD	03ffaffH
	DD	03ffaffH
	DD	03ffbffH
	DD	03ffbffH
	DD	03bffffH
	DD	04cdadeH
	DD	0818787H
	DD	0837e7eH
	DD	0838081H
	DD	0838181H
	DD	0827f80H
	DD	0828080H
	DD	081807fH
	DD	0858383H
	DD	0878685H
	DD	07e7c7cH
	DD	0767474H
	DD	06d6c6bH
	DD	05e5d5cH
	DD	0514e4eH
	DD	04a4646H
	DD	04d4544H
	DD	04f4342H
	DD	0585d5eH
	DD	0668787H
	DD	06f8d8dH
	DD	0808080H
	DD	0897d7dH
	DD	0898282H
	DD	0888484H
	DD	0868584H
	DD	0868685H
	DD	0868585H
	DD	0868584H
	DD	0858484H
	DD	08e8d8dH
	DD	0939190H
	DD	0969392H
	DD	0848382H
	DD	07d7c7cH
	DD	07e7e7dH
	DD	0a6a5a5H
	DD	0878484H
	DD	036312fH
	DD	0322d2bH
	DD	0332d2bH
	DD	0322d2bH
	DD	0312725H
	DD	02f2726H
	DD	0359093H
	DD	03ef5faH
	DD	03ffbffH
	DD	03ff9feH
	DD	03ff9feH
	DD	03ff9feH
	DD	03ff9feH
	DD	03ff9feH
	DD	03ff9feH
	DD	03ff9feH
	DD	03ff9feH
	DD	03ff9feH
	DD	03ff9feH
	DD	03ff9feH
	DD	03ff9feH
	DD	03ff9feH
	DD	03ff9feH
	DD	03ff9feH
	DD	03ff9feH
	DD	03ff9feH
	DD	03ff9feH
	DD	03ff9feH
	DD	03ff9feH
	DD	03ff9feH
	DD	03ff9feH
	DD	03ff9feH
	DD	03ff9feH
	DD	03ff9feH
	DD	03ff9feH
	DD	03ff9feH
	DD	03ff9feH
	DD	03ff9feH
	DD	03ff9feH
	DD	03ff9feH
	DD	03ff9feH
	DD	03ff9feH
	DD	03ff9feH
	DD	03ff9feH
	DD	03ff9feH
	DD	03ff9feH
	DD	03ff9feH
	DD	03ff9feH
	DD	03ff9feH
	DD	03ff9feH
	DD	03ff9feH
	DD	03ff9feH
	DD	03ff9feH
	DD	03ff9feH
	DD	03ff9feH
	DD	03ff9feH
	DD	03ff9feH
	DD	03ff9feH
	DD	03ff9feH
	DD	03ff9feH
	DD	03ff9feH
	DD	03ff9feH
	DD	03ff9feH
	DD	03ff9feH
	DD	03ff9feH
	DD	03ff9feH
	DD	03ff9feH
	DD	03ff9feH
	DD	03ff9feH
	DD	03ff9feH
	DD	03ff9feH
	DD	03ff9feH
	DD	03ff9feH
	DD	03ff9feH
	DD	03ff9feH
	DD	03ff9feH
	DD	03ff9feH
	DD	03ff9feH
	DD	03ff9feH
	DD	03ff9feH
	DD	03ff9feH
	DD	03ff9feH
	DD	03ff9feH
	DD	03ff9feH
	DD	03ff9feH
	DD	03ff9feH
	DD	03ff9feH
	DD	040fdffH
	DD	035d9ddH
	DD	01808292aH
	DD	0e4000000H
	DD	0ffdededeH
	DD	0ffffffffH
	DD	0ffffffffH
	DD	0ffffffffH
	DD	0ffffffffH
	DD	0ffffffffH
	DD	0ffffffffH
	DD	0ffffffffH
	DD	0ffffffffH
	DD	0ffffffffH
	DD	0ffffffffH
	DD	07d7e7e7eH
	DD	034caceH
	DD	043ffffH
	DD	03ff8feH
	DD	03ff8feH
	DD	03ff8feH
	DD	03ff8feH
	DD	03ff8feH
	DD	03ff8feH
	DD	03ff8feH
	DD	03ff8feH
	DD	03ff8feH
	DD	03ff8feH
	DD	03ff8feH
	DD	03ff8feH
	DD	03ff8feH
	DD	03ff8feH
	DD	03ff8feH
	DD	03ff8feH
	DD	03ff8feH
	DD	03ff8feH
	DD	03ff8feH
	DD	03ff8feH
	DD	03ff8feH
	DD	03ff8feH
	DD	03ff8feH
	DD	03ff8feH
	DD	03ff8feH
	DD	03ff8feH
	DD	03ff8feH
	DD	03ff8feH
	DD	03ff8feH
	DD	03dfaffH
	DD	038f6fcH
	DD	03dfaffH
	DD	03efbffH
	DD	03afcffH
	DD	04bdde1H
	DD	07b8e8eH
	DD	0867f7eH
	DD	0838281H
	DD	0838281H
	DD	0828080H
	DD	0838281H
	DD	0868483H
	DD	0807f7eH
	DD	06d6b6bH
	DD	04d4c4bH
	DD	03d3b3aH
	DD	03a3838H
	DD	0323131H
	DD	02b2928H
	DD	0271e1dH
	DD	0252829H
	DD	0234849H
	DD	0217f82H
	DD	02ebfc3H
	DD	037e8edH
	DD	03be9eeH
	DD	047d5d9H
	DD	056afb1H
	DD	06e9091H
	DD	07f8181H
	DD	0897f7fH
	DD	0898585H
	DD	0868585H
	DD	0878686H
	DD	0868585H
	DD	0848383H
	DD	0868585H
	DD	0878685H
	DD	0838281H
	DD	0838282H
	DD	0817f7fH
	DD	0848382H
	DD	0bdbcbdH
	DD	0605e5dH
	DD	0474442H
	DD	04b4847H
	DD	04a4746H
	DD	0494645H
	DD	0493e3dH
	DD	0404c4cH
	DD	03adce1H
	DD	03ffeffH
	DD	03ff8feH
	DD	03ff8feH
	DD	03ff8feH
	DD	03ff8feH
	DD	03ff8feH
	DD	03ff8feH
	DD	03ff8feH
	DD	03ff8feH
	DD	03ff8feH
	DD	03ff8feH
	DD	03ff8feH
	DD	03ff8feH
	DD	03ff8feH
	DD	03ff8feH
	DD	03ff8feH
	DD	03ff8feH
	DD	03ff8feH
	DD	03ff8feH
	DD	03ff8feH
	DD	03ff8feH
	DD	03ff8feH
	DD	03ff8feH
	DD	03ff8feH
	DD	03ff8feH
	DD	03ff8feH
	DD	03ff8feH
	DD	03ff8feH
	DD	03ff8feH
	DD	03ff8feH
	DD	03ff8feH
	DD	03ff8feH
	DD	03ff8feH
	DD	03ff8feH
	DD	03ff8feH
	DD	03ff8feH
	DD	03ff8feH
	DD	03ff8feH
	DD	03ff8feH
	DD	03ff8feH
	DD	03ff8feH
	DD	03ff8feH
	DD	03ff8feH
	DD	03ff8feH
	DD	03ff8feH
	DD	03ff8feH
	DD	03ff8feH
	DD	03ff8feH
	DD	03ff8feH
	DD	03ff8feH
	DD	03ff8feH
	DD	03ff8feH
	DD	03ff8feH
	DD	03ff8feH
	DD	03ff8feH
	DD	03ff8feH
	DD	03ff8feH
	DD	03ff8feH
	DD	03ff8feH
	DD	03ff8feH
	DD	03ff8feH
	DD	03ff8feH
	DD	03ff8feH
	DD	03ff8feH
	DD	03ff8feH
	DD	03ff8feH
	DD	03ff8feH
	DD	03ff8feH
	DD	03ff8feH
	DD	03ff8feH
	DD	03ff8feH
	DD	03ff8feH
	DD	03ff8feH
	DD	03ff8feH
	DD	03ff8feH
	DD	03ff8feH
	DD	03ff8feH
	DD	03ff8feH
	DD	03ff8feH
	DD	040fcffH
	DD	034d6dbH
	DD	015082828H
	DD	0d7000000H
	DD	0ffdededeH
	DD	0ffffffffH
	DD	0ffffffffH
	DD	0ffffffffH
	DD	0ffffffffH
	DD	0ffffffffH
	DD	0ffffffffH
	DD	0ffffffffH
	DD	0ffffffffH
	DD	0ffffffffH
	DD	0ffffffffH
	DD	07d7e7e7eH
	DD	034c9ceH
	DD	043ffffH
	DD	03ff8fdH
	DD	03ff8fdH
	DD	03ff8fdH
	DD	03ff8fdH
	DD	03ff8fdH
	DD	03ff8fdH
	DD	03ff8fdH
	DD	03ff8fdH
	DD	03ff8fdH
	DD	03ff8fdH
	DD	03ff8fdH
	DD	03ff8fdH
	DD	03ff8fdH
	DD	03ff8fdH
	DD	03ff8fdH
	DD	03ff8fdH
	DD	03ff8fdH
	DD	03ff8fdH
	DD	03ff8fdH
	DD	03ff8fdH
	DD	03ff8fdH
	DD	03ff8fdH
	DD	03ff8fdH
	DD	03ff8fdH
	DD	03ff8fdH
	DD	03ff8fdH
	DD	03ff8fdH
	DD	03ff8fdH
	DD	03bfcffH
	DD	04fe5e9H
	DD	07ebdbeH
	DD	0478889H
	DD	0408081H
	DD	0549698H
	DD	07f9090H
	DD	0887f7eH
	DD	0838281H
	DD	0838181H
	DD	0838281H
	DD	0868584H
	DD	0878584H
	DD	0626160H
	DD	0302e2eH
	DD	0151313H
	DD	0111010H
	DD	02e2d2dH
	DD	0333131H
	DD	0332c2aH
	DD	0343332H
	DD	0367678H
	DD	037c6caH
	DD	03df3f8H
	DD	041ffffH
	DD	041ffffH
	DD	03ffcffH
	DD	03ffcffH
	DD	03cfdffH
	DD	03bfdffH
	DD	03bf2f7H
	DD	045d1d6H
	DD	062a6a8H
	DD	0838686H
	DD	08c8282H
	DD	0868484H
	DD	0878685H
	DD	0878686H
	DD	0848383H
	DD	0858484H
	DD	0868484H
	DD	0848383H
	DD	0807f7fH
	DD	09a9a99H
	DD	0959393H
	DD	0403e3dH
	DD	04c4a49H
	DD	04c4a49H
	DD	04c4a49H
	DD	04c4949H
	DD	04d4443H
	DD	0408587H
	DD	03df8fdH
	DD	03ffaffH
	DD	03ff8fdH
	DD	03ff8fdH
	DD	03ff8fdH
	DD	03ff8fdH
	DD	03ff8fdH
	DD	03ff8fdH
	DD	03ff8fdH
	DD	03ff8fdH
	DD	03ff8fdH
	DD	03ff8fdH
	DD	03ff8fdH
	DD	03ff8fdH
	DD	03ff8fdH
	DD	03ff8fdH
	DD	03ff8fdH
	DD	03ff8fdH
	DD	03ff8fdH
	DD	03ff8fdH
	DD	03ff8fdH
	DD	03ff8fdH
	DD	03ff8fdH
	DD	03ff8fdH
	DD	03ff8fdH
	DD	03ff8fdH
	DD	03ff8fdH
	DD	03ff8fdH
	DD	03ff8fdH
	DD	03ff8fdH
	DD	03ff8fdH
	DD	03ff8fdH
	DD	03ff8fdH
	DD	03ff8fdH
	DD	03ff8fdH
	DD	03ff8fdH
	DD	03ff8fdH
	DD	03ff8fdH
	DD	03ff8fdH
	DD	03ff8fdH
	DD	03ff8fdH
	DD	03ff8fdH
	DD	03ff8fdH
	DD	03ff8fdH
	DD	03ff8fdH
	DD	03ff8fdH
	DD	03ff8fdH
	DD	03ff8fdH
	DD	03ff8fdH
	DD	03ff8fdH
	DD	03ff8fdH
	DD	03ff8fdH
	DD	03ff8fdH
	DD	03ff8fdH
	DD	03ff8fdH
	DD	03ff8fdH
	DD	03ff8fdH
	DD	03ff8fdH
	DD	03ff8fdH
	DD	03ff8fdH
	DD	03ff8fdH
	DD	03ff8fdH
	DD	03ff8fdH
	DD	03ff8fdH
	DD	03ff8fdH
	DD	03ff8fdH
	DD	03ff8fdH
	DD	03ff8fdH
	DD	03ff8fdH
	DD	03ff8fdH
	DD	03ff8fdH
	DD	03ff8fdH
	DD	03ff8fdH
	DD	03ff8fdH
	DD	03ff8fdH
	DD	03ff8fdH
	DD	03ff8fdH
	DD	03ff8fdH
	DD	03ff8fdH
	DD	03ff8fdH
	DD	040fcffH
	DD	034d6dbH
	DD	014082728H
	DD	0d4000000H
	DD	0ffdededeH
	DD	0ffffffffH
	DD	0ffffffffH
	DD	0ffffffffH
	DD	0ffffffffH
	DD	0ffffffffH
	DD	0ffffffffH
	DD	0ffffffffH
	DD	0ffffffffH
	DD	0ffffffffH
	DD	0ffffffffH
	DD	07d7e7e7eH
	DD	034c9cdH
	DD	043feffH
	DD	03ff7fdH
	DD	03ff7fdH
	DD	03ff7fdH
	DD	03ff7fdH
	DD	03ff7fdH
	DD	03ff7fdH
	DD	03ff7fdH
	DD	03ff7fdH
	DD	03ff7fdH
	DD	03ff7fdH
	DD	03ff7fdH
	DD	03ff7fdH
	DD	03ff7fdH
	DD	03ff7fdH
	DD	03ff7fdH
	DD	03ff7fdH
	DD	03ff7fdH
	DD	03ff7fdH
	DD	03ff7fdH
	DD	03ff7fdH
	DD	03ff7fdH
	DD	03ff7fdH
	DD	03ff7fdH
	DD	03ff7fdH
	DD	03ff7fdH
	DD	03ff7fdH
	DD	03ff7fdH
	DD	03dfaffH
	DD	040eff4H
	DD	0789a9bH
	DD	0b19e9dH
	DD	0968989H
	DD	05f5251H
	DD	0837675H
	DD	0868181H
	DD	0848382H
	DD	0838281H
	DD	0858383H
	DD	08b8989H
	DD	07b7979H
	DD	03f3e3dH
	DD	010100fH
	DD	0c0c0cH
	DD	0101111H
	DD	0151515H
	DD	02e2a2aH
	DD	0322625H
	DD	0314b4cH
	DD	035b1b5H
	DD	03df7fbH
	DD	040ffffH
	DD	03ff9feH
	DD	03ff7fdH
	DD	03ff7fdH
	DD	03ff7fdH
	DD	03ff7fdH
	DD	03ff7fdH
	DD	03ff7fdH
	DD	03ff9feH
	DD	03dfdffH
	DD	03bf7fcH
	DD	04ad3d7H
	DD	070999aH
	DD	0898080H
	DD	08b8585H
	DD	0878686H
	DD	0878686H
	DD	0868585H
	DD	0878686H
	DD	0878686H
	DD	0838383H
	DD	0b5b4b5H
	DD	0605e5dH
	DD	0393534H
	DD	04c4a49H
	DD	04c4949H
	DD	04a4848H
	DD	04b4645H
	DD	0494c4cH
	DD	03ac9cdH
	DD	03fffffH
	DD	03ff7fdH
	DD	03ff7fdH
	DD	03ff7fdH
	DD	03ff7fdH
	DD	03ff7fdH
	DD	03ff7fdH
	DD	03ff7fdH
	DD	03ff7fdH
	DD	03ff7fdH
	DD	03ff7fdH
	DD	03ff7fdH
	DD	03ff7fdH
	DD	03ff7fdH
	DD	03ff7fdH
	DD	03ff7fdH
	DD	03ff7fdH
	DD	03ff7fdH
	DD	03ff7fdH
	DD	03ff7fdH
	DD	03ff7fdH
	DD	03ff7fdH
	DD	03ff7fdH
	DD	03ff7fdH
	DD	03ff7fdH
	DD	03ff7fdH
	DD	03ff7fdH
	DD	03ff7fdH
	DD	03ff7fdH
	DD	03ff7fdH
	DD	03ff7fdH
	DD	03ff7fdH
	DD	03ff7fdH
	DD	03ff7fdH
	DD	03ff7fdH
	DD	03ff7fdH
	DD	03ff7fdH
	DD	03ff7fdH
	DD	03ff7fdH
	DD	03ff7fdH
	DD	03ff7fdH
	DD	03ff7fdH
	DD	03ff7fdH
	DD	03ff7fdH
	DD	03ff7fdH
	DD	03ff7fdH
	DD	03ff7fdH
	DD	03ff7fdH
	DD	03ff7fdH
	DD	03ff7fdH
	DD	03ff7fdH
	DD	03ff7fdH
	DD	03ff7fdH
	DD	03ff7fdH
	DD	03ff7fdH
	DD	03ff7fdH
	DD	03ff7fdH
	DD	03ff7fdH
	DD	03ff7fdH
	DD	03ff7fdH
	DD	03ff7fdH
	DD	03ff7fdH
	DD	03ff7fdH
	DD	03ff7fdH
	DD	03ff7fdH
	DD	03ff7fdH
	DD	03ff7fdH
	DD	03ff7fdH
	DD	03ff7fdH
	DD	03ff7fdH
	DD	03ff7fdH
	DD	03ff7fdH
	DD	03ff7fdH
	DD	03ff7fdH
	DD	03ff7fdH
	DD	03ff7fdH
	DD	03ff7fdH
	DD	03ff7fdH
	DD	03ff7fdH
	DD	03ff7fdH
	DD	040fbffH
	DD	034d5daH
	DD	014082728H
	DD	0d4000000H
	DD	0ffdededeH
	DD	0ffffffffH
	DD	0ffffffffH
	DD	0ffffffffH
	DD	0ffffffffH
	DD	0ffffffffH
	DD	0ffffffffH
	DD	0ffffffffH
	DD	0ffffffffH
	DD	0ffffffffH
	DD	0ffffffffH
	DD	07d7e7e7eH
	DD	034c8cdH
	DD	043fdffH
	DD	03ff6fcH
	DD	03ff6fcH
	DD	03ff6fcH
	DD	03ff6fcH
	DD	03ff6fcH
	DD	03ff6fcH
	DD	03ff6fcH
	DD	03ff6fcH
	DD	03ff6fcH
	DD	03ff6fcH
	DD	03ff6fcH
	DD	03ff6fcH
	DD	03ff6fcH
	DD	03ff6fcH
	DD	03ff6fcH
	DD	03ff6fcH
	DD	03ff6fcH
	DD	03ff6fcH
	DD	03ff6fcH
	DD	03ff6fcH
	DD	03ff6fcH
	DD	03ff6fcH
	DD	03ff6fcH
	DD	03ff6fcH
	DD	03ff6fcH
	DD	03ff6fcH
	DD	03ff7fdH
	DD	03df7feH
	DD	06ab4b6H
	DD	0887c7bH
	DD	0838181H
	DD	09d9b9aH
	DD	08a8988H
	DD	0848382H
	DD	0848282H
	DD	0848282H
	DD	0858483H
	DD	0807f7eH
	DD	05c5b5aH
	DD	0211f1eH
	DD	0b0a0aH
	DD	0111110H
	DD	0141312H
	DD	0141312H
	DD	0141111H
	DD	02a2d2dH
	DD	0348184H
	DD	03ae3e8H
	DD	03fffffH
	DD	03ff9feH
	DD	03ff6fcH
	DD	03ff6fcH
	DD	03ff6fcH
	DD	03ff6fdH
	DD	03ff7fdH
	DD	03ff7fdH
	DD	03ff7fdH
	DD	03ff7fdH
	DD	03ff7fdH
	DD	03ff6fdH
	DD	03ff8feH
	DD	03cfcffH
	DD	03cf1f6H
	DD	055bfc3H
	DD	07d8c8cH
	DD	08a8484H
	DD	0888787H
	DD	0898887H
	DD	0878686H
	DD	0868685H
	DD	0868585H
	DD	0a8a8a7H
	DD	0676463H
	DD	0433f3dH
	DD	0484543H
	DD	0444240H
	DD	0423f3dH
	DD	0403b39H
	DD	03b3b3bH
	DD	037b9bdH
	DD	040ffffH
	DD	03ff6fcH
	DD	03ff6fcH
	DD	03ff6fcH
	DD	03ff6fcH
	DD	03ff6fcH
	DD	03ff6fcH
	DD	03ff6fcH
	DD	03ff6fcH
	DD	03ff6fcH
	DD	03ff6fcH
	DD	03ff6fcH
	DD	03ff6fcH
	DD	03ff6fcH
	DD	03ff6fcH
	DD	03ff6fcH
	DD	03ff6fcH
	DD	03ff6fcH
	DD	03ff6fcH
	DD	03ff6fcH
	DD	03ff6fcH
	DD	03ff6fcH
	DD	03ff6fcH
	DD	03ff6fcH
	DD	03ff6fcH
	DD	03ff6fcH
	DD	03ff6fcH
	DD	03ff6fcH
	DD	03ff6fcH
	DD	03ff6fcH
	DD	03ff6fcH
	DD	03ff6fcH
	DD	03ff6fcH
	DD	03ff6fcH
	DD	03ff6fcH
	DD	03ff6fcH
	DD	03ff6fcH
	DD	03ff6fcH
	DD	03ff6fcH
	DD	03ff6fcH
	DD	03ff6fcH
	DD	03ff6fcH
	DD	03ff6fcH
	DD	03ff6fcH
	DD	03ff6fcH
	DD	03ff6fcH
	DD	03ff6fcH
	DD	03ff6fcH
	DD	03ff6fcH
	DD	03ff6fcH
	DD	03ff6fcH
	DD	03ff6fcH
	DD	03ff6fcH
	DD	03ff6fcH
	DD	03ff6fcH
	DD	03ff6fcH
	DD	03ff6fcH
	DD	03ff6fcH
	DD	03ff6fcH
	DD	03ff6fcH
	DD	03ff6fcH
	DD	03ff6fcH
	DD	03ff6fcH
	DD	03ff6fcH
	DD	03ff6fcH
	DD	03ff6fcH
	DD	03ff6fcH
	DD	03ff6fcH
	DD	03ff6fcH
	DD	03ff6fcH
	DD	03ff6fcH
	DD	03ff6fcH
	DD	03ff6fcH
	DD	03ff6fcH
	DD	03ff6fcH
	DD	03ff6fcH
	DD	03ff6fcH
	DD	03ff6fcH
	DD	03ff6fcH
	DD	03ff6fcH
	DD	040faffH
	DD	034d5daH
	DD	014082728H
	DD	0d4000000H
	DD	0ffdededeH
	DD	0ffffffffH
	DD	0ffffffffH
	DD	0ffffffffH
	DD	0ffffffffH
	DD	0ffffffffH
	DD	0ffffffffH
	DD	0ffffffffH
	DD	0ffffffffH
	DD	0ffffffffH
	DD	0ffffffffH
	DD	07d7e7e7eH
	DD	034c7ccH
	DD	042fdffH
	DD	03df6fcH
	DD	03ef6fcH
	DD	03ef6fcH
	DD	03ef6fcH
	DD	03ef6fcH
	DD	03ef6fcH
	DD	03ef6fcH
	DD	03ef6fcH
	DD	03ef6fcH
	DD	03ef6fcH
	DD	03ef6fcH
	DD	03ef6fcH
	DD	03ef6fcH
	DD	03ef6fcH
	DD	03ef6fcH
	DD	03ef6fcH
	DD	03ef6fcH
	DD	03ef6fcH
	DD	03ef6fcH
	DD	03ef6fcH
	DD	03ef6fcH
	DD	03ef6fcH
	DD	03ef6fcH
	DD	03ef6fcH
	DD	03ef6fcH
	DD	03ef6fcH
	DD	03bfbffH
	DD	054d0d4H
	DD	0868382H
	DD	0858181H
	DD	0838281H
	DD	0828180H
	DD	0858383H
	DD	0858383H
	DD	0858383H
	DD	0848282H
	DD	08b8a89H
	DD	0898887H
	DD	0272625H
	DD	0201e1dH
	DD	0272524H
	DD	0282625H
	DD	0282625H
	DD	0292626H
	DD	02a1f1eH
	DD	02d6667H
	DD	03dfcfdH
	DD	03fffffH
	DD	03ef9ffH
	DD	03efaffH
	DD	03cfbffH
	DD	03cfbffH
	DD	03cfcffH
	DD	03efdffH
	DD	03ffeffH
	DD	040ffffH
	DD	040ffffH
	DD	03fffffH
	DD	03fffffH
	DD	040feffH
	DD	040feffH
	DD	040fdffH
	DD	03efcffH
	DD	03afcffH
	DD	041e1e7H
	DD	0719698H
	DD	08b8483H
	DD	0888787H
	DD	0878686H
	DD	0878786H
	DD	0868585H
	DD	08a8a89H
	DD	0868484H
	DD	03c3837H
	DD	0363231H
	DD	0383433H
	DD	0363230H
	DD	033302eH
	DD	0312826H
	DD	0304545H
	DD	038d8dcH
	DD	03fffffH
	DD	03ef6fcH
	DD	03ef6fcH
	DD	03ef6fcH
	DD	03ef6fcH
	DD	03ef6fcH
	DD	03ef6fcH
	DD	03ef6fcH
	DD	03ef6fcH
	DD	03ef6fcH
	DD	03ef6fcH
	DD	03ef6fcH
	DD	03ef6fcH
	DD	03ef6fcH
	DD	03ef6fcH
	DD	03ef6fcH
	DD	03ef6fcH
	DD	03ef6fcH
	DD	03ef6fcH
	DD	03ef6fcH
	DD	03ef6fcH
	DD	03ef6fcH
	DD	03ef6fcH
	DD	03ef6fcH
	DD	03ef6fcH
	DD	03ef6fcH
	DD	03ef6fcH
	DD	03ef6fcH
	DD	03ef6fcH
	DD	03ef6fcH
	DD	03ef6fcH
	DD	03ef6fcH
	DD	03ef6fcH
	DD	03ef6fcH
	DD	03ef6fcH
	DD	03ef6fcH
	DD	03ef6fcH
	DD	03ef6fcH
	DD	03ef6fcH
	DD	03ef6fcH
	DD	03ef6fcH
	DD	03ef6fcH
	DD	03ef6fcH
	DD	03ef6fcH
	DD	03ef6fcH
	DD	03ef6fcH
	DD	03ef6fcH
	DD	03ef6fcH
	DD	03ef6fcH
	DD	03ef6fcH
	DD	03ef6fcH
	DD	03ef6fcH
	DD	03ef6fcH
	DD	03ef6fcH
	DD	03ef6fcH
	DD	03ef6fcH
	DD	03ef6fcH
	DD	03ef6fcH
	DD	03ef6fcH
	DD	03ef6fcH
	DD	03ef6fcH
	DD	03ef6fcH
	DD	03ef6fcH
	DD	03ef6fcH
	DD	03ef6fcH
	DD	03ef6fcH
	DD	03ef6fcH
	DD	03ef6fcH
	DD	03ef6fcH
	DD	03ef6fcH
	DD	03ef6fcH
	DD	03ef6fcH
	DD	03ef6fcH
	DD	03ef6fcH
	DD	03ef6fcH
	DD	03ef6fcH
	DD	03ef6fcH
	DD	03ef6fcH
	DD	03ef6fcH
	DD	03ffaffH
	DD	034d4d9H
	DD	014082728H
	DD	0d4000000H
	DD	0ffdededeH
	DD	0ffffffffH
	DD	0ffffffffH
	DD	0ffffffffH
	DD	0ffffffffH
	DD	0ffffffffH
	DD	0ffffffffH
	DD	0ffffffffH
	DD	0ffffffffH
	DD	0ffffffffH
	DD	0ffffffffH
	DD	07d7e7e7eH
	DD	034c7cdH
	DD	042fcffH
	DD	03df5fbH
	DD	03ef5fbH
	DD	03ef5fbH
	DD	03ef5fbH
	DD	03ef5fbH
	DD	03ef5fbH
	DD	03ef5fbH
	DD	03ef5fbH
	DD	03ef5fbH
	DD	03ef5fbH
	DD	03ef5fbH
	DD	03ef5fbH
	DD	03ef5fbH
	DD	03ef5fbH
	DD	03ef5fbH
	DD	03ef5fbH
	DD	03ef5fbH
	DD	03ef5fbH
	DD	03ef5fbH
	DD	03ef5fbH
	DD	03ef5fbH
	DD	03ef5fbH
	DD	03ef5fbH
	DD	03ef5fbH
	DD	03ef5fbH
	DD	03ef5fbH
	DD	03cf9ffH
	DD	04ed3d7H
	DD	0818181H
	DD	0868281H
	DD	0848383H
	DD	0848482H
	DD	0868584H
	DD	0868384H
	DD	0858383H
	DD	0848382H
	DD	0838281H
	DD	0bcbbbbH
	DD	0676665H
	DD	0201f1dH
	DD	02b2928H
	DD	02a2827H
	DD	02a2827H
	DD	02a2827H
	DD	0282322H
	DD	0212d2dH
	DD	030c5caH
	DD	03bf9ffH
	DD	03de7edH
	DD	03edfe5H
	DD	043dbe1H
	DD	043cfd4H
	DD	03ec3c7H
	DD	035b5b9H
	DD	02aa7abH
	DD	0229a9eH
	DD	023969aH
	DD	027969aH
	DD	02a9c9fH
	DD	02fb1b5H
	DD	034cacfH
	DD	037dadfH
	DD	03bedf3H
	DD	040ffffH
	DD	038fcffH
	DD	06ca6a8H
	DD	08c8382H
	DD	0898988H
	DD	0888786H
	DD	0888787H
	DD	0878585H
	DD	0838382H
	DD	091908fH
	DD	0807d7dH
	DD	03f3b39H
	DD	03e3a39H
	DD	03c3837H
	DD	0383433H
	DD	034302eH
	DD	0312422H
	DD	0305a5bH
	DD	03be8edH
	DD	03fffffH
	DD	03ffcffH
	DD	03ffcffH
	DD	03ffcffH
	DD	03ef7fcH
	DD	03ef5fbH
	DD	03ef5fbH
	DD	03ef5fbH
	DD	03ef5fbH
	DD	03ef5fbH
	DD	03ef5fbH
	DD	03ef5fbH
	DD	03ef5fbH
	DD	03ef5fbH
	DD	03ef5fbH
	DD	03ef5fbH
	DD	03ef5fbH
	DD	03ef5fbH
	DD	03ef5fbH
	DD	03ef5fbH
	DD	03ef5fbH
	DD	03ef5fbH
	DD	03ef5fbH
	DD	03ef5fbH
	DD	03ef5fbH
	DD	03ef5fbH
	DD	03ef5fbH
	DD	03ef5fbH
	DD	03ef5fbH
	DD	03ef5fbH
	DD	03ef5fbH
	DD	03ef5fbH
	DD	03ef5fbH
	DD	03ef5fbH
	DD	03ef5fbH
	DD	03ef5fbH
	DD	03ef5fbH
	DD	03ef5fbH
	DD	03ef5fbH
	DD	03ef5fbH
	DD	03ef5fbH
	DD	03ef5fbH
	DD	03ef5fbH
	DD	03ef5fbH
	DD	03ef5fbH
	DD	03ef5fbH
	DD	03ef5fbH
	DD	03ef5fbH
	DD	03ef5fbH
	DD	03ef5fbH
	DD	03ef5fbH
	DD	03ef5fbH
	DD	03ef5fbH
	DD	03ef5fbH
	DD	03ef5fbH
	DD	03ef5fbH
	DD	03ef5fbH
	DD	03ef5fbH
	DD	03ef5fbH
	DD	03ef5fbH
	DD	03ef5fbH
	DD	03ef5fbH
	DD	03ef5fbH
	DD	03ef5fbH
	DD	03ef5fbH
	DD	03ef5fbH
	DD	03ef5fbH
	DD	03ef5fbH
	DD	03ef5fbH
	DD	03ef5fbH
	DD	03ef5fbH
	DD	03ef5fbH
	DD	03ef5fbH
	DD	03ef5fbH
	DD	03ef5fbH
	DD	03ef5fbH
	DD	03ef5fbH
	DD	03ef5fbH
	DD	03ff9ffH
	DD	034d4d9H
	DD	014082728H
	DD	0d4000000H
	DD	0ffdededeH
	DD	0ffffffffH
	DD	0ffffffffH
	DD	0ffffffffH
	DD	0ffffffffH
	DD	0ffffffffH
	DD	0ffffffffH
	DD	0ffffffffH
	DD	0ffffffffH
	DD	0ffffffffH
	DD	0ffffffffH
	DD	07d7e7e7eH
	DD	033c6ccH
	DD	042fbffH
	DD	03ef4fbH
	DD	03ef4fbH
	DD	03ef4fbH
	DD	03ef4fbH
	DD	03ef4fbH
	DD	03ef4fbH
	DD	03ef4fbH
	DD	03ef4fbH
	DD	03ef4fbH
	DD	03ef4fbH
	DD	03ef4fbH
	DD	03ef4fbH
	DD	03ef4fbH
	DD	03ef4fbH
	DD	03ef4fbH
	DD	03ef4fbH
	DD	03ef4fbH
	DD	03ef4fbH
	DD	03ef4fbH
	DD	03ef4fbH
	DD	03ef4fbH
	DD	03ef4fbH
	DD	03ef4fbH
	DD	03ef4fbH
	DD	03ef4fbH
	DD	03ef4fbH
	DD	03ef5fcH
	DD	03bf6fdH
	DD	063afb2H
	DD	0877f7eH
	DD	0858383H
	DD	0858483H
	DD	0848381H
	DD	0858383H
	DD	0858383H
	DD	0858383H
	DD	0817f7fH
	DD	0939292H
	DD	0b9b8b8H
	DD	03c3a39H
	DD	0262423H
	DD	02a2827H
	DD	0272525H
	DD	0232220H
	DD	0282625H
	DD	03b3433H
	DD	0577576H
	DD	06aa2a3H
	DD	0728c8dH
	DD	0778888H
	DD	07c8787H
	DD	0808585H
	DD	07e8080H
	DD	0777776H
	DD	06e6d6bH
	DD	0595553H
	DD	0322a27H
	DD	0170e0bH
	DD	0100806H
	DD	0141311H
	DD	018201fH
	DD	01b2928H
	DD	0214949H
	DD	0238689H
	DD	04cabadH
	DD	0878987H
	DD	0888585H
	DD	0898888H
	DD	0898888H
	DD	0888787H
	DD	0898888H
	DD	0898888H
	DD	0858584H
	DD	0959494H
	DD	0737171H
	DD	03c3938H
	DD	03e3b39H
	DD	0363231H
	DD	034302eH
	DD	0302c2aH
	DD	02f2220H
	DD	0316e70H
	DD	039d5daH
	DD	038ced3H
	DD	037c6caH
	DD	037c4c9H
	DD	03cf0f7H
	DD	03ef6fdH
	DD	03ef4fbH
	DD	03ef4fbH
	DD	03ef4fbH
	DD	03ef4fbH
	DD	03ef4fbH
	DD	03ef4fbH
	DD	03ef4fbH
	DD	03ef4fbH
	DD	03ef4fbH
	DD	03ef4fbH
	DD	03ef4fbH
	DD	03ef4fbH
	DD	03ef4fbH
	DD	03ef4fbH
	DD	03ef4fbH
	DD	03ef4fbH
	DD	03ef4fbH
	DD	03ef4fbH
	DD	03ef4fbH
	DD	03ef4fbH
	DD	03ef4fbH
	DD	03ef4fbH
	DD	03ef4fbH
	DD	03ef4fbH
	DD	03ef4fbH
	DD	03ef4fbH
	DD	03ef4fbH
	DD	03ef4fbH
	DD	03ef4fbH
	DD	03ef4fbH
	DD	03ef4fbH
	DD	03ef4fbH
	DD	03ef4fbH
	DD	03ef4fbH
	DD	03ef4fbH
	DD	03ef4fbH
	DD	03ef4fbH
	DD	03ef4fbH
	DD	03ef4fbH
	DD	03ef4fbH
	DD	03ef4fbH
	DD	03ef4fbH
	DD	03ef4fbH
	DD	03ef4fbH
	DD	03ef4fbH
	DD	03ef4fbH
	DD	03ef4fbH
	DD	03ef4fbH
	DD	03ef4fbH
	DD	03ef4fbH
	DD	03ef4fbH
	DD	03ef4fbH
	DD	03ef4fbH
	DD	03ef4fbH
	DD	03ef4fbH
	DD	03ef4fbH
	DD	03ef4fbH
	DD	03ef4fbH
	DD	03ef4fbH
	DD	03ef4fbH
	DD	03ef4fbH
	DD	03ef4fbH
	DD	03ef4fbH
	DD	03ef4fbH
	DD	03ef4fbH
	DD	03ef4fbH
	DD	03ef4fbH
	DD	03ef4fbH
	DD	03ef4fbH
	DD	03ef4fbH
	DD	03ef4fbH
	DD	03ef4fbH
	DD	03ff8ffH
	DD	034d3d9H
	DD	014082728H
	DD	0d4000000H
	DD	0ffdededeH
	DD	0ffffffffH
	DD	0ffffffffH
	DD	0ffffffffH
	DD	0ffffffffH
	DD	0ffffffffH
	DD	0ffffffffH
	DD	0ffffffffH
	DD	0ffffffffH
	DD	0ffffffffH
	DD	0ffffffffH
	DD	07d7e7e7eH
	DD	033c5ccH
	DD	042faffH
	DD	03ef3faH
	DD	03ef3faH
	DD	03ef3faH
	DD	03ef3faH
	DD	03ef3faH
	DD	03ef3faH
	DD	03ef3faH
	DD	03ef3faH
	DD	03ef3faH
	DD	03ef3faH
	DD	03ef3faH
	DD	03ef3faH
	DD	03ef3faH
	DD	03ef3faH
	DD	03ef3faH
	DD	03ef3faH
	DD	03ef3faH
	DD	03ef3faH
	DD	03ef3faH
	DD	03ef3faH
	DD	03ef3faH
	DD	03ef3faH
	DD	03ef3faH
	DD	03ef3faH
	DD	03ef3faH
	DD	03ef3faH
	DD	03ef3faH
	DD	03afaffH
	DD	050d4daH
	DD	0878281H
	DD	0848381H
	DD	0848382H
	DD	0848381H
	DD	0858383H
	DD	0848282H
	DD	0858483H
	DD	0858483H
	DD	07e7d7cH
	DD	0afaeaeH
	DD	0929190H
	DD	0222020H
	DD	0211f1fH
	DD	0282625H
	DD	0504e4dH
	DD	0747271H
	DD	0848181H
	DD	0847e7dH
	DD	0847b7aH
	DD	0877f7eH
	DD	0878180H
	DD	0868180H
	DD	0868281H
	DD	0898585H
	DD	0888685H
	DD	08d8a89H
	DD	08f8c8bH
	DD	08e8b8bH
	DD	07d7877H
	DD	0595351H
	DD	02a221fH
	DD	0180f0cH
	DD	01e1411H
	DD	0170c0aH
	DD	0251a18H
	DD	07d7674H
	DD	0898686H
	DD	0868585H
	DD	08a8989H
	DD	0898888H
	DD	0898888H
	DD	0898888H
	DD	0888888H
	DD	08a8989H
	DD	0878686H
	DD	0969595H
	DD	0696665H
	DD	0383332H
	DD	04e4948H
	DD	092908eH
	DD	0797675H
	DD	02a2625H
	DD	0332b29H
	DD	0323736H
	DD	0323534H
	DD	0333231H
	DD	0312e2dH
	DD	035a3a7H
	DD	03efdffH
	DD	03ef3faH
	DD	03ef3faH
	DD	03ef3faH
	DD	03ef3faH
	DD	03ef3faH
	DD	03ef3faH
	DD	03ef3faH
	DD	03ef3faH
	DD	03ef3faH
	DD	03ef3faH
	DD	03ef3faH
	DD	03ef3faH
	DD	03ef3faH
	DD	03ef3faH
	DD	03ef3faH
	DD	03ef3faH
	DD	03ef3faH
	DD	03ef3faH
	DD	03ef3faH
	DD	03ef3faH
	DD	03ef3faH
	DD	03ef3faH
	DD	03ef3faH
	DD	03ef3faH
	DD	03ef3faH
	DD	03ef3faH
	DD	03ef3faH
	DD	03ef3faH
	DD	03ef3faH
	DD	03ef3faH
	DD	03ef3faH
	DD	03ef3faH
	DD	03ef3faH
	DD	03ef3faH
	DD	03ef3faH
	DD	03ef3faH
	DD	03ef3faH
	DD	03ef3faH
	DD	03ef3faH
	DD	03ef3faH
	DD	03ef3faH
	DD	03ef3faH
	DD	03ef3faH
	DD	03ef3faH
	DD	03ef3faH
	DD	03ef3faH
	DD	03ef3faH
	DD	03ef3faH
	DD	03ef3faH
	DD	03ef3faH
	DD	03ef3faH
	DD	03ef3faH
	DD	03ef3faH
	DD	03ef3faH
	DD	03ef3faH
	DD	03ef3faH
	DD	03ef3faH
	DD	03ef3faH
	DD	03ef3faH
	DD	03ef3faH
	DD	03ef3faH
	DD	03ef3faH
	DD	03ef3faH
	DD	03ef3faH
	DD	03ef3faH
	DD	03ef3faH
	DD	03ef3faH
	DD	03ef3faH
	DD	03ef3faH
	DD	03ef3faH
	DD	03ef3faH
	DD	03ef3faH
	DD	03ff7feH
	DD	033d2d8H
	DD	014082728H
	DD	0d4000000H
	DD	0ffdededeH
	DD	0ffffffffH
	DD	0ffffffffH
	DD	0ffffffffH
	DD	0ffffffffH
	DD	0ffffffffH
	DD	0ffffffffH
	DD	0ffffffffH
	DD	0ffffffffH
	DD	0ffffffffH
	DD	0ffffffffH
	DD	07d7e7e7eH
	DD	033c5cbH
	DD	042faffH
	DD	03ef3faH
	DD	03ef3faH
	DD	03ef3faH
	DD	03ef3faH
	DD	03ef3faH
	DD	03ef3faH
	DD	03ef3faH
	DD	03ef3faH
	DD	03ef3faH
	DD	03ef3faH
	DD	03ef3faH
	DD	03ef3faH
	DD	03ef3faH
	DD	03ef3faH
	DD	03ef3faH
	DD	03ef3faH
	DD	03ef3faH
	DD	03ef3faH
	DD	03ef3faH
	DD	03ef3faH
	DD	03ef3faH
	DD	03ef3faH
	DD	03ef3faH
	DD	03ef3faH
	DD	03ef3faH
	DD	03ef3faH
	DD	03ef3faH
	DD	03bf6fdH
	DD	066afb2H
	DD	0877e7cH
	DD	0868484H
	DD	0848382H
	DD	0858483H
	DD	0868483H
	DD	0848281H
	DD	0858483H
	DD	0858483H
	DD	0848382H
	DD	0878685H
	DD	0c1c0bfH
	DD	05b5958H
	DD	03a3837H
	DD	0747271H
	DD	08a8988H
	DD	0878685H
	DD	0848282H
	DD	0848383H
	DD	0858483H
	DD	0878585H
	DD	0878685H
	DD	0878685H
	DD	0858484H
	DD	0858483H
	DD	0868585H
	DD	0868585H
	DD	0848382H
	DD	0838382H
	DD	0868685H
	DD	0929191H
	DD	08b8988H
	DD	0504c4bH
	DD	01f1b19H
	DD	0191412H
	DD	06a6765H
	DD	08c8a8aH
	DD	0888786H
	DD	0888786H
	DD	0898888H
	DD	0878786H
	DD	0888787H
	DD	0878686H
	DD	0888887H
	DD	08c8c8bH
	DD	0888787H
	DD	0868585H
	DD	0979696H
	DD	0979392H
	DD	0959391H
	DD	08f8e8eH
	DD	0b5b4b4H
	DD	0524f4dH
	DD	02f2c2aH
	DD	0383231H
	DD	0373130H
	DD	0363130H
	DD	0362b2aH
	DD	0344545H
	DD	03adce2H
	DD	03ff9ffH
	DD	03ef3faH
	DD	03ef3faH
	DD	03ef3faH
	DD	03ef3faH
	DD	03ef3faH
	DD	03ef3faH
	DD	03ef3faH
	DD	03ef3faH
	DD	03ef3faH
	DD	03ef3faH
	DD	03ef3faH
	DD	03ef3faH
	DD	03ef3faH
	DD	03ef3faH
	DD	03ef3faH
	DD	03ef3faH
	DD	03ef3faH
	DD	03ef3faH
	DD	03ef3faH
	DD	03ef3faH
	DD	03ef3faH
	DD	03ef3faH
	DD	03ef3faH
	DD	03ef3faH
	DD	03ef3faH
	DD	03ef3faH
	DD	03ef3faH
	DD	03ef3faH
	DD	03ef3faH
	DD	03ef3faH
	DD	03ef3faH
	DD	03ef3faH
	DD	03ef3faH
	DD	03ef3faH
	DD	03ef3faH
	DD	03ef3faH
	DD	03ef3faH
	DD	03ef3faH
	DD	03ef3faH
	DD	03ef3faH
	DD	03ef3faH
	DD	03ef3faH
	DD	03ef3faH
	DD	03ef3faH
	DD	03ef3faH
	DD	03ef3faH
	DD	03ef3faH
	DD	03ef3faH
	DD	03ef3faH
	DD	03ef3faH
	DD	03ef3faH
	DD	03ef3faH
	DD	03ef3faH
	DD	03ef3faH
	DD	03ef3faH
	DD	03ef3faH
	DD	03ef3faH
	DD	03ef3faH
	DD	03ef3faH
	DD	03ef3faH
	DD	03ef3faH
	DD	03ef3faH
	DD	03ef3faH
	DD	03ef3faH
	DD	03ef3faH
	DD	03ef3faH
	DD	03ef3faH
	DD	03ef3faH
	DD	03ef3faH
	DD	03ef3faH
	DD	03ef3faH
	DD	03ff7feH
	DD	033d1d8H
	DD	014082728H
	DD	0d4000000H
	DD	0ffdededeH
	DD	0ffffffffH
	DD	0ffffffffH
	DD	0ffffffffH
	DD	0ffffffffH
	DD	0ffffffffH
	DD	0ffffffffH
	DD	0ffffffffH
	DD	0ffffffffH
	DD	0ffffffffH
	DD	0ffffffffH
	DD	07d7e7e7eH
	DD	033c5cbH
	DD	041f9ffH
	DD	03cf2f9H
	DD	03df2f9H
	DD	03df2f9H
	DD	03df2f9H
	DD	03df2f9H
	DD	03df2f9H
	DD	03df2f9H
	DD	03df2f9H
	DD	03df2f9H
	DD	03df2f9H
	DD	03df2f9H
	DD	03df2f9H
	DD	03df2f9H
	DD	03df2f9H
	DD	03df2f9H
	DD	03df2f9H
	DD	03df2f9H
	DD	03df2f9H
	DD	03df2f9H
	DD	03df2f9H
	DD	03df2f9H
	DD	03df2f9H
	DD	03df2f9H
	DD	03df2f9H
	DD	03df2f9H
	DD	03df2f9H
	DD	03bf6fdH
	DD	04adbe1H
	DD	0818989H
	DD	0848080H
	DD	0848382H
	DD	0858383H
	DD	0858383H
	DD	0858483H
	DD	0848382H
	DD	0838281H
	DD	0848382H
	DD	0868584H
	DD	0828080H
	DD	0959393H
	DD	0979594H
	DD	0848382H
	DD	08a8989H
	DD	0868484H
	DD	0858383H
	DD	0848383H
	DD	0858584H
	DD	0858483H
	DD	0858484H
	DD	0868585H
	DD	0858484H
	DD	0868585H
	DD	0868584H
	DD	0858484H
	DD	0868485H
	DD	0858484H
	DD	0858484H
	DD	0868584H
	DD	0848382H
	DD	08a8a8aH
	DD	0969595H
	DD	07e7b79H
	DD	0716e6cH
	DD	08a8888H
	DD	0868585H
	DD	08b8a88H
	DD	0898887H
	DD	0878686H
	DD	0898888H
	DD	0898887H
	DD	0888787H
	DD	0888786H
	DD	08a8989H
	DD	08a8989H
	DD	0888687H
	DD	0888787H
	DD	0939393H
	DD	0868685H
	DD	07a7a79H
	DD	0989797H
	DD	0a09e9eH
	DD	033302fH
	DD	0373332H
	DD	0373332H
	DD	0363331H
	DD	0363231H
	DD	0352826H
	DD	0337d80H
	DD	03cf6feH
	DD	03df3faH
	DD	03df2f9H
	DD	03df2f9H
	DD	03df2f9H
	DD	03df2f9H
	DD	03df2f9H
	DD	03df2f9H
	DD	03df2f9H
	DD	03df2f9H
	DD	03df2f9H
	DD	03df2f9H
	DD	03df2f9H
	DD	03df2f9H
	DD	03df2f9H
	DD	03df2f9H
	DD	03df2f9H
	DD	03df2f9H
	DD	03df2f9H
	DD	03df2f9H
	DD	03df2f9H
	DD	03df2f9H
	DD	03df2f9H
	DD	03df2f9H
	DD	03df2f9H
	DD	03df2f9H
	DD	03df2f9H
	DD	03df2f9H
	DD	03df2f9H
	DD	03df2f9H
	DD	03df2f9H
	DD	03df2f9H
	DD	03df2f9H
	DD	03df2f9H
	DD	03df2f9H
	DD	03df2f9H
	DD	03df2f9H
	DD	03df2f9H
	DD	03df2f9H
	DD	03df2f9H
	DD	03df2f9H
	DD	03df2f9H
	DD	03df2f9H
	DD	03df2f9H
	DD	03df2f9H
	DD	03df2f9H
	DD	03df2f9H
	DD	03df2f9H
	DD	03df2f9H
	DD	03df2f9H
	DD	03df2f9H
	DD	03df2f9H
	DD	03df2f9H
	DD	03df2f9H
	DD	03df2f9H
	DD	03df2f9H
	DD	03df2f9H
	DD	03df2f9H
	DD	03df2f9H
	DD	03df2f9H
	DD	03df2f9H
	DD	03df2f9H
	DD	03df2f9H
	DD	03df2f9H
	DD	03df2f9H
	DD	03df2f9H
	DD	03df2f9H
	DD	03df2f9H
	DD	03df2f9H
	DD	03df2f9H
	DD	03df2f9H
	DD	03df2f9H
	DD	03ef6fdH
	DD	033d0d7H
	DD	014082628H
	DD	0d4000000H
	DD	0ffdededeH
	DD	0ffffffffH
	DD	0ffffffffH
	DD	0ffffffffH
	DD	0ffffffffH
	DD	0ffffffffH
	DD	0ffffffffH
	DD	0ffffffffH
	DD	0ffffffffH
	DD	0ffffffffH
	DD	0ffffffffH
	DD	07d7e7e7eH
	DD	033c4caH
	DD	041f8ffH
	DD	03cf1f8H
	DD	03df1f8H
	DD	03df1f8H
	DD	03df1f8H
	DD	03df1f8H
	DD	03df1f8H
	DD	03df1f8H
	DD	03df1f8H
	DD	03df1f8H
	DD	03df1f8H
	DD	03df1f8H
	DD	03df1f8H
	DD	03df1f8H
	DD	03df1f8H
	DD	03df1f8H
	DD	03df1f8H
	DD	03df1f8H
	DD	03df1f8H
	DD	03df1f8H
	DD	03df1f8H
	DD	03df1f8H
	DD	03df1f8H
	DD	03df1f8H
	DD	03df1f9H
	DD	038f3fbH
	DD	039f7ffH
	DD	039f8ffH
	DD	067adb0H
	DD	0897e7dH
	DD	0858382H
	DD	0868685H
	DD	07f7d7dH
	DD	0454342H
	DD	07b7978H
	DD	0898787H
	DD	0838381H
	DD	0838281H
	DD	0858383H
	DD	0848483H
	DD	0817f7fH
	DD	0848282H
	DD	0878585H
	DD	0848282H
	DD	0848382H
	DD	0868584H
	DD	0848383H
	DD	0848382H
	DD	0858483H
	DD	0858483H
	DD	0868583H
	DD	0858483H
	DD	0878585H
	DD	0868584H
	DD	0848383H
	DD	0858483H
	DD	0858483H
	DD	0858484H
	DD	0888787H
	DD	0878686H
	DD	0868584H
	DD	0858483H
	DD	0929191H
	DD	0949393H
	DD	0858484H
	DD	0878686H
	DD	0878687H
	DD	0898787H
	DD	0898888H
	DD	0898887H
	DD	0878686H
	DD	08a8989H
	DD	08c8b8bH
	DD	08d8d8dH
	DD	0888888H
	DD	0898887H
	DD	0898888H
	DD	0828181H
	DD	0838282H
	DD	0838282H
	DD	07d7d7cH
	DD	0b1b0b0H
	DD	06f6c6cH
	DD	0302d2bH
	DD	0383533H
	DD	0393534H
	DD	0393534H
	DD	03a3432H
	DD	03a3735H
	DD	038b9beH
	DD	03ef8ffH
	DD	03df1f8H
	DD	03df1f8H
	DD	03df1f8H
	DD	03df1f8H
	DD	03df1f8H
	DD	03df1f8H
	DD	03df1f8H
	DD	03df1f8H
	DD	03df1f8H
	DD	03df1f8H
	DD	03df1f8H
	DD	03df1f8H
	DD	03df1f8H
	DD	03df1f8H
	DD	03df1f8H
	DD	03df1f8H
	DD	03df1f8H
	DD	03df1f8H
	DD	03df1f8H
	DD	03df1f8H
	DD	03df1f8H
	DD	03df1f8H
	DD	03df1f8H
	DD	03df1f8H
	DD	03df1f8H
	DD	03df1f8H
	DD	03df1f8H
	DD	03df1f8H
	DD	03df1f8H
	DD	03df1f8H
	DD	03df1f8H
	DD	03df1f8H
	DD	03df1f8H
	DD	03df1f8H
	DD	03df1f8H
	DD	03df1f8H
	DD	03df1f8H
	DD	03df1f8H
	DD	03df1f8H
	DD	03df1f8H
	DD	03df1f8H
	DD	03df1f8H
	DD	03df1f8H
	DD	03df1f8H
	DD	03df1f8H
	DD	03df1f8H
	DD	03df1f8H
	DD	03df1f8H
	DD	03df1f8H
	DD	03df1f8H
	DD	03df1f8H
	DD	03df1f8H
	DD	03df1f8H
	DD	03df1f8H
	DD	03df1f8H
	DD	03df1f8H
	DD	03df1f8H
	DD	03df1f8H
	DD	03df1f8H
	DD	03df1f8H
	DD	03df1f8H
	DD	03df1f8H
	DD	03df1f8H
	DD	03df1f8H
	DD	03df1f8H
	DD	03df1f8H
	DD	03df1f8H
	DD	03df1f8H
	DD	03df1f8H
	DD	03df1f8H
	DD	03ef5fcH
	DD	033d0d7H
	DD	014082628H
	DD	0d4000000H
	DD	0ffdededeH
	DD	0ffffffffH
	DD	0ffffffffH
	DD	0ffffffffH
	DD	0ffffffffH
	DD	0ffffffffH
	DD	0ffffffffH
	DD	0ffffffffH
	DD	0ffffffffH
	DD	0ffffffffH
	DD	0ffffffffH
	DD	07d7e7e7eH
	DD	033c3caH
	DD	041f7ffH
	DD	03cf0f8H
	DD	03df0f8H
	DD	03df0f8H
	DD	03df0f8H
	DD	03df0f8H
	DD	03df0f8H
	DD	03df0f8H
	DD	03df0f8H
	DD	03df0f8H
	DD	03df0f8H
	DD	03df0f8H
	DD	03df0f8H
	DD	03df0f8H
	DD	03df0f8H
	DD	03df0f8H
	DD	03df0f8H
	DD	03df0f8H
	DD	03df0f8H
	DD	03df0f8H
	DD	03df0f8H
	DD	03df0f8H
	DD	03df0f8H
	DD	03cf1f9H
	DD	03eeff7H
	DD	059dae0H
	DD	04ebfc4H
	DD	053aeb1H
	DD	0818989H
	DD	0848080H
	DD	0848282H
	DD	08b8a89H
	DD	0595857H
	DD	0151413H
	DD	0494846H
	DD	08b8989H
	DD	0868484H
	DD	0848282H
	DD	0848282H
	DD	0848282H
	DD	0858383H
	DD	0858484H
	DD	0848282H
	DD	0858382H
	DD	0838282H
	DD	0858483H
	DD	0858483H
	DD	0858383H
	DD	0868484H
	DD	0868584H
	DD	0878585H
	DD	0878686H
	DD	0888787H
	DD	0878686H
	DD	0858484H
	DD	0868585H
	DD	0858484H
	DD	0858484H
	DD	0878686H
	DD	0868585H
	DD	0868585H
	DD	0888786H
	DD	0858484H
	DD	0878685H
	DD	0888685H
	DD	0888787H
	DD	0888787H
	DD	0888686H
	DD	0888887H
	DD	0888787H
	DD	0898889H
	DD	08c8b8bH
	DD	0575656H
	DD	0767575H
	DD	08f8e8eH
	DD	08a8a89H
	DD	0888786H
	DD	0858483H
	DD	0868585H
	DD	0848384H
	DD	07e7d7dH
	DD	0929292H
	DD	0b1b0afH
	DD	0474341H
	DD	0464341H
	DD	0484443H
	DD	0454242H
	DD	0453f3eH
	DD	0433837H
	DD	039a2a7H
	DD	03df8ffH
	DD	03df0f8H
	DD	03df0f8H
	DD	03df0f8H
	DD	03df0f8H
	DD	03df0f8H
	DD	03df0f8H
	DD	03df0f8H
	DD	03df0f8H
	DD	03df0f8H
	DD	03df0f8H
	DD	03df0f8H
	DD	03df0f8H
	DD	03df0f8H
	DD	03df0f8H
	DD	03df0f8H
	DD	03df0f8H
	DD	03df0f8H
	DD	03df0f8H
	DD	03df0f8H
	DD	03df0f8H
	DD	03df0f8H
	DD	03df0f8H
	DD	03df0f8H
	DD	03df0f8H
	DD	03df0f8H
	DD	03df0f8H
	DD	03df0f8H
	DD	03df0f8H
	DD	03df0f8H
	DD	03df0f8H
	DD	03df0f8H
	DD	03df0f8H
	DD	03df0f8H
	DD	03df0f8H
	DD	03df0f8H
	DD	03df0f8H
	DD	03df0f8H
	DD	03df0f8H
	DD	03df0f8H
	DD	03df0f8H
	DD	03df0f8H
	DD	03df0f8H
	DD	03df0f8H
	DD	03df0f8H
	DD	03df0f8H
	DD	03df0f8H
	DD	03df0f8H
	DD	03df0f8H
	DD	03df0f8H
	DD	03df0f8H
	DD	03df0f8H
	DD	03df0f8H
	DD	03df0f8H
	DD	03df0f8H
	DD	03df0f8H
	DD	03df0f8H
	DD	03df0f8H
	DD	03df0f8H
	DD	03df0f8H
	DD	03df0f8H
	DD	03df0f8H
	DD	03df0f8H
	DD	03df0f8H
	DD	03df0f8H
	DD	03df0f8H
	DD	03df0f8H
	DD	03df0f8H
	DD	03df0f8H
	DD	03df0f8H
	DD	03df0f8H
	DD	03ef4fcH
	DD	033cfd6H
	DD	014082627H
	DD	0d4000000H
	DD	0ffdededeH
	DD	0ffffffffH
	DD	0ffffffffH
	DD	0ffffffffH
	DD	0ffffffffH
	DD	0ffffffffH
	DD	0ffffffffH
	DD	0ffffffffH
	DD	0ffffffffH
	DD	0ffffffffH
	DD	0ffffffffH
	DD	07d7e7e7eH
	DD	032c3caH
	DD	041f6feH
	DD	03deff7H
	DD	03deff7H
	DD	03deff7H
	DD	03deff7H
	DD	03deff7H
	DD	03deff7H
	DD	03deff7H
	DD	03deff7H
	DD	03deff7H
	DD	03deff7H
	DD	03deff7H
	DD	03deff7H
	DD	03deff7H
	DD	03deff7H
	DD	03deff7H
	DD	03deff7H
	DD	03deff7H
	DD	03deff7H
	DD	03deff7H
	DD	03deff7H
	DD	03deff7H
	DD	03deff7H
	DD	03af3fbH
	DD	04ed1d7H
	DD	0a19e9dH
	DD	0a79b9aH
	DD	0837674H
	DD	0858081H
	DD	0838282H
	DD	0878584H
	DD	07a7a79H
	DD	02c2a2aH
	DD	021201fH
	DD	02b2a29H
	DD	0676564H
	DD	08a8988H
	DD	0848382H
	DD	0858383H
	DD	0848282H
	DD	0858483H
	DD	0858383H
	DD	0848282H
	DD	0838383H
	DD	0848383H
	DD	0858483H
	DD	0868484H
	DD	0898887H
	DD	08a8988H
	DD	0888786H
	DD	0848383H
	DD	0817f7fH
	DD	082807fH
	DD	0858484H
	DD	0878686H
	DD	0878786H
	DD	0888786H
	DD	0878685H
	DD	0878685H
	DD	0878685H
	DD	0868585H
	DD	0878685H
	DD	0878686H
	DD	0868585H
	DD	0868585H
	DD	0868585H
	DD	0888787H
	DD	0888888H
	DD	0888787H
	DD	0888887H
	DD	08f8f8eH
	DD	0636362H
	DD	0222020H
	DD	0444242H
	DD	08b8b8bH
	DD	08a8a89H
	DD	0888787H
	DD	0878685H
	DD	0878686H
	DD	0878686H
	DD	07f7e7eH
	DD	0979696H
	DD	0676665H
	DD	02b2928H
	DD	02a2727H
	DD	0302e2dH
	DD	03b3938H
	DD	03d3a39H
	DD	0388d90H
	DD	03becf5H
	DD	03df0f9H
	DD	03deff7H
	DD	03deff7H
	DD	03deff7H
	DD	03deff7H
	DD	03deff7H
	DD	03deff7H
	DD	03deff7H
	DD	03deff7H
	DD	03deff7H
	DD	03deff7H
	DD	03deff7H
	DD	03deff7H
	DD	03deff7H
	DD	03deff7H
	DD	03deff7H
	DD	03deff7H
	DD	03deff7H
	DD	03deff7H
	DD	03deff7H
	DD	03deff7H
	DD	03deff7H
	DD	03deff7H
	DD	03deff7H
	DD	03deff7H
	DD	03deff7H
	DD	03deff7H
	DD	03deff7H
	DD	03deff7H
	DD	03deff7H
	DD	03deff7H
	DD	03deff7H
	DD	03deff7H
	DD	03deff7H
	DD	03deff7H
	DD	03deff7H
	DD	03deff7H
	DD	03deff7H
	DD	03deff7H
	DD	03deff7H
	DD	03deff7H
	DD	03deff7H
	DD	03deff7H
	DD	03deff7H
	DD	03deff7H
	DD	03deff7H
	DD	03deff7H
	DD	03deff7H
	DD	03deff7H
	DD	03deff7H
	DD	03deff7H
	DD	03deff7H
	DD	03deff7H
	DD	03deff7H
	DD	03deff7H
	DD	03deff7H
	DD	03deff7H
	DD	03deff7H
	DD	03deff7H
	DD	03deff7H
	DD	03deff7H
	DD	03deff7H
	DD	03deff7H
	DD	03deff7H
	DD	03deff7H
	DD	03deff7H
	DD	03deff7H
	DD	03deff7H
	DD	03deff7H
	DD	03deff7H
	DD	03deff7H
	DD	03ef3fbH
	DD	033cfd6H
	DD	014082627H
	DD	0d4000000H
	DD	0ffdededeH
	DD	0ffffffffH
	DD	0ffffffffH
	DD	0ffffffffH
	DD	0ffffffffH
	DD	0ffffffffH
	DD	0ffffffffH
	DD	0ffffffffH
	DD	0ffffffffH
	DD	0ffffffffH
	DD	0ffffffffH
	DD	07d7e7e7eH
	DD	032c2c9H
	DD	041f5feH
	DD	03deef7H
	DD	03deef7H
	DD	03deef7H
	DD	03deef7H
	DD	03deef7H
	DD	03deef7H
	DD	03deef7H
	DD	03deef7H
	DD	03deef7H
	DD	03deef7H
	DD	03deef7H
	DD	03deef7H
	DD	03deef7H
	DD	03deef7H
	DD	03deef7H
	DD	03deef7H
	DD	03deef7H
	DD	03deef7H
	DD	03deef7H
	DD	03deef7H
	DD	03deef7H
	DD	03deef7H
	DD	039f2fbH
	DD	065b1b5H
	DD	0867b7aH
	DD	08c8a8aH
	DD	0888686H
	DD	0838181H
	DD	0858382H
	DD	0898887H
	DD	04d4b4bH
	DD	0201e1eH
	DD	0313030H
	DD	02e2d2dH
	DD	0363533H
	DD	0787676H
	DD	0868584H
	DD	0838382H
	DD	0848383H
	DD	0858483H
	DD	0858383H
	DD	0848382H
	DD	0838282H
	DD	0858383H
	DD	0898988H
	DD	0868585H
	DD	0727271H
	DD	0575655H
	DD	04d4b4aH
	DD	0585856H
	DD	05c5a5aH
	DD	0656463H
	DD	06d6b6aH
	DD	06f6d6cH
	DD	07b7a79H
	DD	0848383H
	DD	0878685H
	DD	0878685H
	DD	0868584H
	DD	0868585H
	DD	0878686H
	DD	0868585H
	DD	0858483H
	DD	0868585H
	DD	0898888H
	DD	0888687H
	DD	0878686H
	DD	0898787H
	DD	08b8b8bH
	DD	0787877H
	DD	02c2b2aH
	DD	01e1c1cH
	DD	01e1d1cH
	DD	0636262H
	DD	0908f8fH
	DD	0888887H
	DD	0868585H
	DD	0858483H
	DD	0878686H
	DD	0a4a3a2H
	DD	0656363H
	DD	01c1a18H
	DD	0252221H
	DD	02b2726H
	DD	02e2b29H
	DD	03b3130H
	DD	03a7477H
	DD	03af0f9H
	DD	03df2fbH
	DD	03deef7H
	DD	03deef7H
	DD	03deef7H
	DD	03deef7H
	DD	03deef7H
	DD	03deef7H
	DD	03deef7H
	DD	03deef7H
	DD	03deef7H
	DD	03deef7H
	DD	03deef7H
	DD	03deef7H
	DD	03deef7H
	DD	03deef7H
	DD	03deef7H
	DD	03deef7H
	DD	03deef7H
	DD	03deef7H
	DD	03deef7H
	DD	03deef7H
	DD	03deef7H
	DD	03deef7H
	DD	03deef7H
	DD	03deef7H
	DD	03deef7H
	DD	03deef7H
	DD	03deef7H
	DD	03deef7H
	DD	03deef7H
	DD	03deef7H
	DD	03deef7H
	DD	03deef7H
	DD	03deef7H
	DD	03deef7H
	DD	03deef7H
	DD	03deef7H
	DD	03deef7H
	DD	03deef7H
	DD	03deef7H
	DD	03deef7H
	DD	03deef7H
	DD	03deef7H
	DD	03deef7H
	DD	03deef7H
	DD	03deef7H
	DD	03deef7H
	DD	03deef7H
	DD	03deef7H
	DD	03deef7H
	DD	03deef7H
	DD	03deef7H
	DD	03deef7H
	DD	03deef7H
	DD	03deef7H
	DD	03deef7H
	DD	03deef7H
	DD	03deef7H
	DD	03deef7H
	DD	03deef7H
	DD	03deef7H
	DD	03deef7H
	DD	03deef7H
	DD	03deef7H
	DD	03deef7H
	DD	03deef7H
	DD	03deef7H
	DD	03deef7H
	DD	03deef7H
	DD	03deef7H
	DD	03deef7H
	DD	03deef7H
	DD	03ef2fbH
	DD	032cdd5H
	DD	014082627H
	DD	0d4000000H
	DD	0ffdededeH
	DD	0ffffffffH
	DD	0ffffffffH
	DD	0ffffffffH
	DD	0ffffffffH
	DD	0ffffffffH
	DD	0ffffffffH
	DD	0ffffffffH
	DD	0ffffffffH
	DD	0ffffffffH
	DD	0ffffffffH
	DD	07d7e7e7eH
	DD	032c1c9H
	DD	040f4fdH
	DD	03bedf6H
	DD	03cedf6H
	DD	03cedf6H
	DD	03cedf6H
	DD	03cedf6H
	DD	03cedf6H
	DD	03cedf6H
	DD	03cedf6H
	DD	03cedf6H
	DD	03cedf6H
	DD	03cedf6H
	DD	03cedf6H
	DD	03cedf6H
	DD	03cedf6H
	DD	03cedf6H
	DD	03cedf6H
	DD	03cedf6H
	DD	03cedf6H
	DD	03cedf6H
	DD	03cedf6H
	DD	03cedf6H
	DD	03beff8H
	DD	03de7f0H
	DD	0779595H
	DD	0877e7dH
	DD	0828181H
	DD	0838281H
	DD	0848281H
	DD	0898786H
	DD	0767574H
	DD	0272626H
	DD	02a2828H
	DD	0363434H
	DD	0343233H
	DD	02d2b2cH
	DD	05f5d5dH
	DD	08a8988H
	DD	0848282H
	DD	0838281H
	DD	0848382H
	DD	0858483H
	DD	0848283H
	DD	0868585H
	DD	08a8888H
	DD	06b6a6aH
	DD	03c3a39H
	DD	03d3b39H
	DD	0595857H
	DD	06f6e6eH
	DD	07c7b7aH
	DD	07f7e7eH
	DD	0818080H
	DD	081807fH
	DD	07e7c7cH
	DD	07c7b7bH
	DD	07c7b7aH
	DD	07e7d7dH
	DD	0848382H
	DD	0868586H
	DD	0878687H
	DD	0888787H
	DD	0868484H
	DD	0858483H
	DD	0888787H
	DD	0878686H
	DD	0878686H
	DD	0878686H
	DD	08b8989H
	DD	0828282H
	DD	03b3a39H
	DD	0161414H
	DD	0181615H
	DD	0151312H
	DD	0292828H
	DD	0828282H
	DD	08c8b8bH
	DD	0888787H
	DD	0868585H
	DD	08a8988H
	DD	0acacabH
	DD	04f4c4aH
	DD	0464341H
	DD	04c4847H
	DD	04b4745H
	DD	04a4645H
	DD	04a3f3cH
	DD	03e6f71H
	DD	039edf6H
	DD	03ceef7H
	DD	03cedf6H
	DD	03cedf6H
	DD	03cedf6H
	DD	03cedf6H
	DD	03cedf6H
	DD	03cedf6H
	DD	03cedf6H
	DD	03cedf6H
	DD	03cedf6H
	DD	03cedf6H
	DD	03cedf6H
	DD	03cedf6H
	DD	03cedf6H
	DD	03cedf6H
	DD	03cedf6H
	DD	03cedf6H
	DD	03cedf6H
	DD	03cedf6H
	DD	03cedf6H
	DD	03cedf6H
	DD	03cedf6H
	DD	03cedf6H
	DD	03cedf6H
	DD	03cedf6H
	DD	03cedf6H
	DD	03cedf6H
	DD	03cedf6H
	DD	03cedf6H
	DD	03cedf6H
	DD	03cedf6H
	DD	03cedf6H
	DD	03cedf6H
	DD	03cedf6H
	DD	03cedf6H
	DD	03cedf6H
	DD	03cedf6H
	DD	03cedf6H
	DD	03cedf6H
	DD	03cedf6H
	DD	03cedf6H
	DD	03cedf6H
	DD	03cedf6H
	DD	03cedf6H
	DD	03cedf6H
	DD	03cedf6H
	DD	03cedf6H
	DD	03cedf6H
	DD	03cedf6H
	DD	03cedf6H
	DD	03cedf6H
	DD	03cedf6H
	DD	03cedf6H
	DD	03cedf6H
	DD	03cedf6H
	DD	03cedf6H
	DD	03cedf6H
	DD	03cedf6H
	DD	03cedf6H
	DD	03cedf6H
	DD	03cedf6H
	DD	03cedf6H
	DD	03cedf6H
	DD	03cedf6H
	DD	03cedf6H
	DD	03cedf6H
	DD	03cedf6H
	DD	03cedf6H
	DD	03cedf6H
	DD	03cedf6H
	DD	03cedf6H
	DD	03cedf6H
	DD	03df1faH
	DD	032cdd5H
	DD	014082627H
	DD	0d4000000H
	DD	0ffdededeH
	DD	0ffffffffH
	DD	0ffffffffH
	DD	0ffffffffH
	DD	0ffffffffH
	DD	0ffffffffH
	DD	0ffffffffH
	DD	0ffffffffH
	DD	0ffffffffH
	DD	0ffffffffH
	DD	0ffffffffH
	DD	07d7e7e7eH
	DD	032c0c8H
	DD	040f3fdH
	DD	03becf6H
	DD	03cecf6H
	DD	03cecf6H
	DD	03cecf6H
	DD	03cecf6H
	DD	03cecf6H
	DD	03cecf6H
	DD	03cecf6H
	DD	03cecf6H
	DD	03cecf6H
	DD	03cecf6H
	DD	03cecf6H
	DD	03cecf6H
	DD	03cecf6H
	DD	03cecf6H
	DD	03cecf6H
	DD	03cecf6H
	DD	03cecf6H
	DD	03cecf6H
	DD	03cecf6H
	DD	03cecf6H
	DD	039f0fbH
	DD	04cd1d9H
	DD	0838180H
	DD	085807fH
	DD	0838282H
	DD	0838281H
	DD	0828180H
	DD	08a8988H
	DD	05b5959H
	DD	02a2828H
	DD	02c2a29H
	DD	0343332H
	DD	03b3a3aH
	DD	03e3d3dH
	DD	07a7877H
	DD	0868585H
	DD	0838180H
	DD	0848382H
	DD	0838281H
	DD	0838281H
	DD	0898787H
	DD	0838281H
	DD	04b4948H
	DD	0302d2dH
	DD	0595857H
	DD	07e7d7cH
	DD	0898888H
	DD	0878585H
	DD	0878585H
	DD	0868584H
	DD	0868584H
	DD	0878686H
	DD	0878685H
	DD	0878585H
	DD	0848382H
	DD	0828180H
	DD	0807f7eH
	DD	0838282H
	DD	0858483H
	DD	0868584H
	DD	0878685H
	DD	0858584H
	DD	0878686H
	DD	0878686H
	DD	0878686H
	DD	0838282H
	DD	09c9c9cH
	DD	0797878H
	DD	02d2b2bH
	DD	0333231H
	DD	0373534H
	DD	03b3938H
	DD	0383636H
	DD	05e5c5bH
	DD	08d8c8cH
	DD	0898888H
	DD	0878686H
	DD	0828282H
	DD	0979697H
	DD	0676462H
	DD	04a4645H
	DD	04a4745H
	DD	0464241H
	DD	044403fH
	DD	0443c3bH
	DD	0404241H
	DD	039c3cbH
	DD	03cf3fdH
	DD	03cecf6H
	DD	03cecf6H
	DD	03cecf6H
	DD	03cecf6H
	DD	03cecf6H
	DD	03cecf6H
	DD	03cecf6H
	DD	03cecf6H
	DD	03cecf6H
	DD	03cecf6H
	DD	03cecf6H
	DD	03cecf6H
	DD	03cecf6H
	DD	03cecf6H
	DD	03cecf6H
	DD	03cecf6H
	DD	03cecf6H
	DD	03cecf6H
	DD	03cecf6H
	DD	03cecf6H
	DD	03cecf6H
	DD	03cecf6H
	DD	03cecf6H
	DD	03cecf6H
	DD	03cecf6H
	DD	03cecf6H
	DD	03cecf6H
	DD	03cecf6H
	DD	03cecf6H
	DD	03cecf6H
	DD	03cecf6H
	DD	03cecf6H
	DD	03cecf6H
	DD	03cecf6H
	DD	03cecf6H
	DD	03cecf6H
	DD	03cecf6H
	DD	03cecf6H
	DD	03cecf6H
	DD	03cecf6H
	DD	03cecf6H
	DD	03cecf6H
	DD	03cecf6H
	DD	03cecf6H
	DD	03cecf6H
	DD	03cecf6H
	DD	03cecf6H
	DD	03cecf6H
	DD	03cecf6H
	DD	03cecf6H
	DD	03cecf6H
	DD	03cecf6H
	DD	03cecf6H
	DD	03cecf6H
	DD	03cecf6H
	DD	03cecf6H
	DD	03cecf6H
	DD	03cecf6H
	DD	03cecf6H
	DD	03cecf6H
	DD	03cecf6H
	DD	03cecf6H
	DD	03cecf6H
	DD	03cecf6H
	DD	03cecf6H
	DD	03cecf6H
	DD	03cecf6H
	DD	03cecf6H
	DD	03cecf6H
	DD	03cecf6H
	DD	03cecf6H
	DD	03df0faH
	DD	032ccd4H
	DD	014072627H
	DD	0d4000000H
	DD	0ffdededeH
	DD	0ffffffffH
	DD	0ffffffffH
	DD	0ffffffffH
	DD	0ffffffffH
	DD	0ffffffffH
	DD	0ffffffffH
	DD	0ffffffffH
	DD	0ffffffffH
	DD	0ffffffffH
	DD	0ffffffffH
	DD	07d7e7e7eH
	DD	032c0c7H
	DD	040f2fcH
	DD	03bebf5H
	DD	03cebf5H
	DD	03cebf5H
	DD	03cebf5H
	DD	03cebf5H
	DD	03cebf5H
	DD	03cebf5H
	DD	03cebf5H
	DD	03cebf5H
	DD	03cebf5H
	DD	03cebf5H
	DD	03cebf5H
	DD	03cebf5H
	DD	03cebf5H
	DD	03cebf5H
	DD	03cebf5H
	DD	03cebf5H
	DD	03cebf5H
	DD	03cebf5H
	DD	03cebf5H
	DD	03cebf5H
	DD	03aeef8H
	DD	042dde5H
	DD	06f8f90H
	DD	0847b7aH
	DD	0848281H
	DD	0848181H
	DD	0838281H
	DD	0828181H
	DD	0454343H
	DD	02f2d2cH
	DD	02d2b2bH
	DD	0393737H
	DD	0393837H
	DD	05e5c5cH
	DD	0898786H
	DD	0858383H
	DD	0848282H
	DD	0848382H
	DD	0848382H
	DD	0888686H
	DD	07d7c7cH
	DD	03c3a3aH
	DD	0333131H
	DD	0747372H
	DD	08a8989H
	DD	0868585H
	DD	0848383H
	DD	0868584H
	DD	0868484H
	DD	0858483H
	DD	0868584H
	DD	0868585H
	DD	0858484H
	DD	0858483H
	DD	0868585H
	DD	0878685H
	DD	0868584H
	DD	0828181H
	DD	0807e7fH
	DD	0868584H
	DD	0878686H
	DD	0868585H
	DD	0858483H
	DD	0858484H
	DD	0888787H
	DD	0858483H
	DD	0979797H
	DD	0888787H
	DD	0292726H
	DD	0373635H
	DD	0424140H
	DD	03f3d3cH
	DD	03d3a3aH
	DD	03c3a39H
	DD	0767575H
	DD	08c8b8bH
	DD	0888787H
	DD	0838282H
	DD	091908fH
	DD	07f7d7cH
	DD	0474341H
	DD	0484544H
	DD	0464241H
	DD	044403fH
	DD	044403eH
	DD	0433633H
	DD	039878bH
	DD	03bf1fcH
	DD	03cecf6H
	DD	03cebf5H
	DD	03cebf5H
	DD	03cebf5H
	DD	03cebf5H
	DD	03cebf5H
	DD	03cebf5H
	DD	03cebf5H
	DD	03cebf5H
	DD	03cebf5H
	DD	03cebf5H
	DD	03cebf5H
	DD	03cebf5H
	DD	03cebf5H
	DD	03cebf5H
	DD	03cebf5H
	DD	03cebf5H
	DD	03cebf5H
	DD	03cebf5H
	DD	03cebf5H
	DD	03cebf5H
	DD	03cebf5H
	DD	03cebf5H
	DD	03cebf5H
	DD	03cebf5H
	DD	03cebf5H
	DD	03cebf5H
	DD	03cebf5H
	DD	03cebf5H
	DD	03cebf5H
	DD	03cebf5H
	DD	03cebf5H
	DD	03cebf5H
	DD	03cebf5H
	DD	03cebf5H
	DD	03cebf5H
	DD	03cebf5H
	DD	03cebf5H
	DD	03cebf5H
	DD	03cebf5H
	DD	03cebf5H
	DD	03cebf5H
	DD	03cebf5H
	DD	03cebf5H
	DD	03cebf5H
	DD	03cebf5H
	DD	03cebf5H
	DD	03cebf5H
	DD	03cebf5H
	DD	03cebf5H
	DD	03cebf5H
	DD	03cebf5H
	DD	03cebf5H
	DD	03cebf5H
	DD	03cebf5H
	DD	03cebf5H
	DD	03cebf5H
	DD	03cebf5H
	DD	03cebf5H
	DD	03cebf5H
	DD	03cebf5H
	DD	03cebf5H
	DD	03cebf5H
	DD	03cebf5H
	DD	03cebf5H
	DD	03cebf5H
	DD	03cebf5H
	DD	03cebf5H
	DD	03cebf5H
	DD	03cebf5H
	DD	03cebf5H
	DD	03deff9H
	DD	032cbd3H
	DD	014072527H
	DD	0d4000000H
	DD	0ffdededeH
	DD	0ffffffffH
	DD	0ffffffffH
	DD	0ffffffffH
	DD	0ffffffffH
	DD	0ffffffffH
	DD	0ffffffffH
	DD	0ffffffffH
	DD	0ffffffffH
	DD	0ffffffffH
	DD	0ffffffffH
	DD	07d7e7e7eH
	DD	032bfc7H
	DD	040f1fbH
	DD	03beaf4H
	DD	03ceaf4H
	DD	03ceaf4H
	DD	03ceaf4H
	DD	03ceaf4H
	DD	03ceaf4H
	DD	03ceaf4H
	DD	03ceaf4H
	DD	03ceaf4H
	DD	03ceaf4H
	DD	03ceaf4H
	DD	03ceaf4H
	DD	03ceaf4H
	DD	03ceaf4H
	DD	03ceaf4H
	DD	03ceaf4H
	DD	03ceaf4H
	DD	03ceaf4H
	DD	03ceaf4H
	DD	03ceaf4H
	DD	03ceaf4H
	DD	03ceaf4H
	DD	03aeef8H
	DD	03fdce5H
	DD	0719597H
	DD	086807eH
	DD	0838181H
	DD	0868584H
	DD	0747372H
	DD	0353433H
	DD	02d2b2bH
	DD	0312f2fH
	DD	03c3a3aH
	DD	0424040H
	DD	07e7b7bH
	DD	0858484H
	DD	0838181H
	DD	0848282H
	DD	0838281H
	DD	0878685H
	DD	0828180H
	DD	03b3939H
	DD	03b3939H
	DD	07a7979H
	DD	0868585H
	DD	0848383H
	DD	0848383H
	DD	0838282H
	DD	0848483H
	DD	0858483H
	DD	0858484H
	DD	0848383H
	DD	0868585H
	DD	0858484H
	DD	0868584H
	DD	0858382H
	DD	0858483H
	DD	0868585H
	DD	0868685H
	DD	0838281H
	DD	07f7d7cH
	DD	0838283H
	DD	0868584H
	DD	0868585H
	DD	0868584H
	DD	0868585H
	DD	0888787H
	DD	0868686H
	DD	0989897H
	DD	03d3c3bH
	DD	022201fH
	DD	03b3938H
	DD	03a3837H
	DD	0383736H
	DD	0363433H
	DD	0535251H
	DD	08c8b8bH
	DD	0898888H
	DD	0878786H
	DD	0868585H
	DD	0929191H
	DD	0524f4eH
	DD	0494543H
	DD	0474341H
	DD	045413fH
	DD	044403fH
	DD	0443c3aH
	DD	03f5454H
	DD	039dbe5H
	DD	03cedf8H
	DD	03ceaf4H
	DD	03ceaf4H
	DD	03ceaf4H
	DD	03ceaf4H
	DD	03ceaf4H
	DD	03ceaf4H
	DD	03ceaf4H
	DD	03ceaf4H
	DD	03ceaf4H
	DD	03ceaf4H
	DD	03ceaf4H
	DD	03ceaf4H
	DD	03ceaf4H
	DD	03ceaf4H
	DD	03ceaf4H
	DD	03ceaf4H
	DD	03ceaf4H
	DD	03ceaf4H
	DD	03ceaf4H
	DD	03ceaf4H
	DD	03ceaf4H
	DD	03ceaf4H
	DD	03ceaf4H
	DD	03ceaf4H
	DD	03ceaf4H
	DD	03ceaf4H
	DD	03ceaf4H
	DD	03ceaf4H
	DD	03ceaf4H
	DD	03ceaf4H
	DD	03ceaf4H
	DD	03ceaf4H
	DD	03ceaf4H
	DD	03ceaf4H
	DD	03ceaf4H
	DD	03ceaf4H
	DD	03ceaf4H
	DD	03ceaf4H
	DD	03ceaf4H
	DD	03ceaf4H
	DD	03ceaf4H
	DD	03ceaf4H
	DD	03ceaf4H
	DD	03ceaf4H
	DD	03ceaf4H
	DD	03ceaf4H
	DD	03ceaf4H
	DD	03ceaf4H
	DD	03ceaf4H
	DD	03ceaf4H
	DD	03ceaf4H
	DD	03ceaf4H
	DD	03ceaf4H
	DD	03ceaf4H
	DD	03ceaf4H
	DD	03ceaf4H
	DD	03ceaf4H
	DD	03ceaf4H
	DD	03ceaf4H
	DD	03ceaf4H
	DD	03ceaf4H
	DD	03ceaf4H
	DD	03ceaf4H
	DD	03ceaf4H
	DD	03ceaf4H
	DD	03ceaf4H
	DD	03ceaf4H
	DD	03ceaf4H
	DD	03ceaf4H
	DD	03ceaf4H
	DD	03deef8H
	DD	032cad3H
	DD	014072527H
	DD	0d4000000H
	DD	0ffdededeH
	DD	0ffffffffH
	DD	0ffffffffH
	DD	0ffffffffH
	DD	0ffffffffH
	DD	0ffffffffH
	DD	0ffffffffH
	DD	0ffffffffH
	DD	0ffffffffH
	DD	0ffffffffH
	DD	0ffffffffH
	DD	07d7e7e7eH
	DD	032bec6H
	DD	040f0fbH
	DD	03be9f4H
	DD	03ce9f4H
	DD	03ce9f4H
	DD	03ce9f4H
	DD	03ce9f4H
	DD	03ce9f4H
	DD	03ce9f4H
	DD	03ce9f4H
	DD	03ce9f4H
	DD	03ce9f4H
	DD	03ce9f4H
	DD	03ce9f4H
	DD	03ce9f4H
	DD	03ce9f4H
	DD	03ce9f4H
	DD	03ce9f4H
	DD	03ce9f4H
	DD	03ce9f4H
	DD	03ce9f4H
	DD	03ce9f4H
	DD	03ce9f4H
	DD	03ce9f4H
	DD	03ceaf4H
	DD	037effaH
	DD	05fb3b8H
	DD	0867d7cH
	DD	082817fH
	DD	0888686H
	DD	05c5a5aH
	DD	02e2c2bH
	DD	02d2c2aH
	DD	0393837H
	DD	03a3938H
	DD	05e5c5bH
	DD	0898786H
	DD	0838181H
	DD	0828180H
	DD	0838281H
	DD	0848382H
	DD	0878585H
	DD	0494847H
	DD	0353433H
	DD	0787777H
	DD	0848383H
	DD	0858484H
	DD	0848382H
	DD	0858483H
	DD	0868484H
	DD	0858483H
	DD	0868584H
	DD	0878786H
	DD	0858584H
	DD	0868685H
	DD	0868484H
	DD	0858484H
	DD	0858484H
	DD	0888685H
	DD	0868584H
	DD	0878686H
	DD	0868585H
	DD	0848383H
	DD	0818080H
	DD	0848483H
	DD	0878686H
	DD	0868684H
	DD	0868585H
	DD	0888787H
	DD	0858585H
	DD	0939292H
	DD	0858383H
	DD	0222120H
	DD	0333231H
	DD	03c3b3aH
	DD	0393837H
	DD	0383736H
	DD	03c3b3bH
	DD	07d7d7cH
	DD	08b8a8aH
	DD	0898888H
	DD	0828181H
	DD	0949493H
	DD	06d6a69H
	DD	0464241H
	DD	0484543H
	DD	0464241H
	DD	0464141H
	DD	0453f3eH
	DD	0433b39H
	DD	039a5abH
	DD	03df5ffH
	DD	03deffaH
	DD	03deffaH
	DD	03ceaf5H
	DD	03ce9f4H
	DD	03ce9f4H
	DD	03ce9f4H
	DD	03ce9f4H
	DD	03ce9f4H
	DD	03ce9f4H
	DD	03ce9f4H
	DD	03ce9f4H
	DD	03ce9f4H
	DD	03ce9f4H
	DD	03ce9f4H
	DD	03ce9f4H
	DD	03ce9f4H
	DD	03ce9f4H
	DD	03ce9f4H
	DD	03ce9f4H
	DD	03ce9f4H
	DD	03ce9f4H
	DD	03ce9f4H
	DD	03ce9f4H
	DD	03ce9f4H
	DD	03ce9f4H
	DD	03ce9f4H
	DD	03ce9f4H
	DD	03ce9f4H
	DD	03ce9f4H
	DD	03ce9f4H
	DD	03ce9f4H
	DD	03ce9f4H
	DD	03ce9f4H
	DD	03ce9f4H
	DD	03ce9f4H
	DD	03ce9f4H
	DD	03ce9f4H
	DD	03ce9f4H
	DD	03ce9f4H
	DD	03ce9f4H
	DD	03ce9f4H
	DD	03ce9f4H
	DD	03ce9f4H
	DD	03ce9f4H
	DD	03ce9f4H
	DD	03ce9f4H
	DD	03ce9f4H
	DD	03ce9f4H
	DD	03ce9f4H
	DD	03ce9f4H
	DD	03ce9f4H
	DD	03ce9f4H
	DD	03ce9f4H
	DD	03ce9f4H
	DD	03ce9f4H
	DD	03ce9f4H
	DD	03ce9f4H
	DD	03ce9f4H
	DD	03ce9f4H
	DD	03ce9f4H
	DD	03ce9f4H
	DD	03ce9f4H
	DD	03ce9f4H
	DD	03ce9f4H
	DD	03ce9f4H
	DD	03ce9f4H
	DD	03ce9f4H
	DD	03ce9f4H
	DD	03ce9f4H
	DD	03ce9f4H
	DD	03dedf8H
	DD	032c9d3H
	DD	014072527H
	DD	0d4000000H
	DD	0ffdededeH
	DD	0ffffffffH
	DD	0ffffffffH
	DD	0ffffffffH
	DD	0ffffffffH
	DD	0ffffffffH
	DD	0ffffffffH
	DD	0ffffffffH
	DD	0ffffffffH
	DD	0ffffffffH
	DD	0ffffffffH
	DD	07d7e7e7eH
	DD	032bdc6H
	DD	040effaH
	DD	03ae8f3H
	DD	03be8f3H
	DD	03be8f3H
	DD	03be8f3H
	DD	03be8f3H
	DD	03be8f3H
	DD	03be8f3H
	DD	03be8f3H
	DD	03be8f3H
	DD	03be8f3H
	DD	03be8f3H
	DD	03be8f3H
	DD	03be8f3H
	DD	03be8f3H
	DD	03be8f3H
	DD	03be8f3H
	DD	03be8f3H
	DD	03be8f3H
	DD	03be8f3H
	DD	03be8f3H
	DD	03be8f3H
	DD	03be8f3H
	DD	03ae9f4H
	DD	03ae8f2H
	DD	06aa1a5H
	DD	0877d7cH
	DD	0848282H
	DD	0848282H
	DD	04a4949H
	DD	0323130H
	DD	0333030H
	DD	03c3b3aH
	DD	0444342H
	DD	0777573H
	DD	0878585H
	DD	0838281H
	DD	0838281H
	DD	0848282H
	DD	0898787H
	DD	0626160H
	DD	0302e2eH
	DD	0686666H
	DD	0868584H
	DD	0848382H
	DD	0858383H
	DD	0848382H
	DD	0868484H
	DD	0848383H
	DD	0838282H
	DD	0848483H
	DD	0878686H
	DD	0858483H
	DD	0868484H
	DD	0848383H
	DD	0858484H
	DD	0858484H
	DD	0868685H
	DD	0848483H
	DD	0858484H
	DD	0878686H
	DD	0888787H
	DD	0848383H
	DD	081807fH
	DD	0878685H
	DD	0898887H
	DD	0858484H
	DD	0878686H
	DD	0898888H
	DD	0878686H
	DD	0a09f9fH
	DD	0595857H
	DD	0232120H
	DD	03b3a39H
	DD	03d3c3bH
	DD	03d3b3bH
	DD	0393736H
	DD	0636161H
	DD	08f8e8eH
	DD	0868685H
	DD	0858484H
	DD	08a8989H
	DD	0898887H
	DD	044413eH
	DD	0413e3cH
	DD	03b3837H
	DD	03b3836H
	DD	03c3837H
	DD	03a2e2dH
	DD	0335858H
	DD	034cdd7H
	DD	034c6d0H
	DD	034c1c9H
	DD	03ae6f1H
	DD	03be9f4H
	DD	03be8f3H
	DD	03be8f3H
	DD	03be8f3H
	DD	03be8f3H
	DD	03be8f3H
	DD	03be8f3H
	DD	03be8f3H
	DD	03be8f3H
	DD	03be8f3H
	DD	03be8f3H
	DD	03be8f3H
	DD	03be8f3H
	DD	03be8f3H
	DD	03be8f3H
	DD	03be8f3H
	DD	03be8f3H
	DD	03be8f3H
	DD	03be8f3H
	DD	03be8f3H
	DD	03be8f3H
	DD	03be8f3H
	DD	03be8f3H
	DD	03be8f3H
	DD	03be8f3H
	DD	03be8f3H
	DD	03be8f3H
	DD	03be8f3H
	DD	03be8f3H
	DD	03be8f3H
	DD	03be8f3H
	DD	03be8f3H
	DD	03be8f3H
	DD	03be8f3H
	DD	03be8f3H
	DD	03be8f3H
	DD	03be8f3H
	DD	03be8f3H
	DD	03be8f3H
	DD	03be8f3H
	DD	03be8f3H
	DD	03be8f3H
	DD	03be8f3H
	DD	03be8f3H
	DD	03be8f3H
	DD	03be8f3H
	DD	03be8f3H
	DD	03be8f3H
	DD	03be8f3H
	DD	03be8f3H
	DD	03be8f3H
	DD	03be8f3H
	DD	03be8f3H
	DD	03be8f3H
	DD	03be8f3H
	DD	03be8f3H
	DD	03be8f3H
	DD	03be8f3H
	DD	03be8f3H
	DD	03be8f3H
	DD	03be8f3H
	DD	03be8f3H
	DD	03be8f3H
	DD	03be8f3H
	DD	03be8f3H
	DD	03be8f3H
	DD	03be8f3H
	DD	03cecf7H
	DD	031c8d2H
	DD	014072527H
	DD	0d4000000H
	DD	0ffdededeH
	DD	0ffffffffH
	DD	0ffffffffH
	DD	0ffffffffH
	DD	0ffffffffH
	DD	0ffffffffH
	DD	0ffffffffH
	DD	0ffffffffH
	DD	0ffffffffH
	DD	0ffffffffH
	DD	0ffffffffH
	DD	07d7e7e7eH
	DD	032bdc5H
	DD	040effaH
	DD	03ae8f3H
	DD	03be8f3H
	DD	03be8f3H
	DD	03be8f3H
	DD	03be8f3H
	DD	03be8f3H
	DD	03be8f3H
	DD	03be8f3H
	DD	03be8f3H
	DD	03be8f3H
	DD	03be8f3H
	DD	03be8f3H
	DD	03be8f3H
	DD	03be8f3H
	DD	03be8f3H
	DD	03be8f3H
	DD	03be8f3H
	DD	03be8f3H
	DD	03be8f3H
	DD	03be8f3H
	DD	03be8f3H
	DD	03be8f3H
	DD	03aeaf5H
	DD	03fe3edH
	DD	0749497H
	DD	0857d7cH
	DD	0858383H
	DD	0807f7fH
	DD	04a4947H
	DD	03c3b3aH
	DD	03a3837H
	DD	03d3b3bH
	DD	0555353H
	DD	0848282H
	DD	0848282H
	DD	0838181H
	DD	0838181H
	DD	0878685H
	DD	0807f7eH
	DD	03e3c3bH
	DD	0535050H
	DD	07d7c7bH
	DD	0858483H
	DD	0868584H
	DD	0848283H
	DD	0838282H
	DD	0848382H
	DD	0848383H
	DD	0848383H
	DD	0858383H
	DD	0858483H
	DD	0848383H
	DD	0858383H
	DD	0858483H
	DD	0868584H
	DD	0868585H
	DD	0858484H
	DD	0868585H
	DD	0868585H
	DD	0868585H
	DD	0858484H
	DD	0888786H
	DD	0848383H
	DD	0838181H
	DD	0878786H
	DD	0868585H
	DD	0878686H
	DD	0868685H
	DD	0848484H
	DD	08f8e8eH
	DD	092908fH
	DD	02f2d2cH
	DD	0333130H
	DD	0434141H
	DD	0413f3eH
	DD	03f3d3cH
	DD	04c4a49H
	DD	0868585H
	DD	0898988H
	DD	0868685H
	DD	0838282H
	DD	09c9c9bH
	DD	06d6968H
	DD	047423fH
	DD	0544d4aH
	DD	0433b38H
	DD	0322b28H
	DD	0362e2bH
	DD	0352f2cH
	DD	0374443H
	DD	03c4444H
	DD	03d4343H
	DD	037b9c1H
	DD	03beefaH
	DD	03be8f3H
	DD	03be8f3H
	DD	03be8f3H
	DD	03be8f3H
	DD	03be8f3H
	DD	03be8f3H
	DD	03be8f3H
	DD	03be8f3H
	DD	03be8f3H
	DD	03be8f3H
	DD	03be8f3H
	DD	03be8f3H
	DD	03be8f3H
	DD	03be8f3H
	DD	03be8f3H
	DD	03be8f3H
	DD	03be8f3H
	DD	03be8f3H
	DD	03be8f3H
	DD	03be8f3H
	DD	03be8f3H
	DD	03be8f3H
	DD	03be8f3H
	DD	03be8f3H
	DD	03be8f3H
	DD	03be8f3H
	DD	03be8f3H
	DD	03be8f3H
	DD	03be8f3H
	DD	03be8f3H
	DD	03be8f3H
	DD	03be8f3H
	DD	03be8f3H
	DD	03be8f3H
	DD	03be8f3H
	DD	03be8f3H
	DD	03be8f3H
	DD	03be8f3H
	DD	03be8f3H
	DD	03be8f3H
	DD	03be8f3H
	DD	03be8f3H
	DD	03be8f3H
	DD	03be8f3H
	DD	03be8f3H
	DD	03be8f3H
	DD	03be8f3H
	DD	03be8f3H
	DD	03be8f3H
	DD	03be8f3H
	DD	03be8f3H
	DD	03be8f3H
	DD	03be8f3H
	DD	03be8f3H
	DD	03be8f3H
	DD	03be8f3H
	DD	03be8f3H
	DD	03be8f3H
	DD	03be8f3H
	DD	03be8f3H
	DD	03be8f3H
	DD	03be8f3H
	DD	03be8f3H
	DD	03be8f3H
	DD	03be8f3H
	DD	03be8f3H
	DD	03cecf7H
	DD	031c8d1H
	DD	014072527H
	DD	0d4000000H
	DD	0ffdededeH
	DD	0ffffffffH
	DD	0ffffffffH
	DD	0ffffffffH
	DD	0ffffffffH
	DD	0ffffffffH
	DD	0ffffffffH
	DD	0ffffffffH
	DD	0ffffffffH
	DD	0ffffffffH
	DD	0ffffffffH
	DD	07d7e7e7eH
	DD	032bcc5H
	DD	03feef9H
	DD	03ae7f2H
	DD	03be7f2H
	DD	03be7f2H
	DD	03be7f2H
	DD	03be7f2H
	DD	03be7f2H
	DD	03be7f2H
	DD	03be7f2H
	DD	03be7f2H
	DD	03be7f2H
	DD	03be7f2H
	DD	03be7f2H
	DD	03be7f2H
	DD	03be7f2H
	DD	03be7f2H
	DD	03be7f2H
	DD	03be7f2H
	DD	03be7f2H
	DD	03be7f2H
	DD	03be7f2H
	DD	03be7f2H
	DD	03be7f2H
	DD	039eaf5H
	DD	042d9e3H
	DD	07b8b8cH
	DD	0837e7cH
	DD	0878584H
	DD	07b7a79H
	DD	0454342H
	DD	03d3b3aH
	DD	0393737H
	DD	03e3c3cH
	DD	0666464H
	DD	0878585H
	DD	0828080H
	DD	0828080H
	DD	0848282H
	DD	0898887H
	DD	05f5e5dH
	DD	03d3a3aH
	DD	06e6c6bH
	DD	0848382H
	DD	0848282H
	DD	0848382H
	DD	0838281H
	DD	0848282H
	DD	0858383H
	DD	0858483H
	DD	0848382H
	DD	0848383H
	DD	0858383H
	DD	0838282H
	DD	0838382H
	DD	0858383H
	DD	0858484H
	DD	0858484H
	DD	0868584H
	DD	0858484H
	DD	0878685H
	DD	0858484H
	DD	0858484H
	DD	0868585H
	DD	0868685H
	DD	0838282H
	DD	0868585H
	DD	0858483H
	DD	0858483H
	DD	0878685H
	DD	0878685H
	DD	0848382H
	DD	09e9d9cH
	DD	0555353H
	DD	02d2b2aH
	DD	042403fH
	DD	0434140H
	DD	042403fH
	DD	03e3d3cH
	DD	0727170H
	DD	08c8b8bH
	DD	0858584H
	DD	0838282H
	DD	08e8d8dH
	DD	0b6b4b3H
	DD	0adaaa9H
	DD	0b5b3b2H
	DD	0a6a4a3H
	DD	0433e3dH
	DD	0474341H
	DD	0494644H
	DD	04b4341H
	DD	04a4341H
	DD	04a3b39H
	DD	0399095H
	DD	03aeffaH
	DD	03be7f2H
	DD	03be7f2H
	DD	03be7f2H
	DD	03be7f2H
	DD	03be7f2H
	DD	03be7f2H
	DD	03be7f2H
	DD	03be7f2H
	DD	03be7f2H
	DD	03be7f2H
	DD	03be7f2H
	DD	03be7f2H
	DD	03be7f2H
	DD	03be7f2H
	DD	03be7f2H
	DD	03be7f2H
	DD	03be7f2H
	DD	03be7f2H
	DD	03be7f2H
	DD	03be7f2H
	DD	03be7f2H
	DD	03be7f2H
	DD	03be7f2H
	DD	03be7f2H
	DD	03be7f2H
	DD	03be7f2H
	DD	03be7f2H
	DD	03be7f2H
	DD	03be7f2H
	DD	03be7f2H
	DD	03be7f2H
	DD	03be7f2H
	DD	03be7f2H
	DD	03be7f2H
	DD	03be7f2H
	DD	03be7f2H
	DD	03be7f2H
	DD	03be7f2H
	DD	03be7f2H
	DD	03be7f2H
	DD	03be7f2H
	DD	03be7f2H
	DD	03be7f2H
	DD	03be7f2H
	DD	03be7f2H
	DD	03be7f2H
	DD	03be7f2H
	DD	03be7f2H
	DD	03be7f2H
	DD	03be7f2H
	DD	03be7f2H
	DD	03be7f2H
	DD	03be7f2H
	DD	03be7f2H
	DD	03be7f2H
	DD	03be7f2H
	DD	03be7f2H
	DD	03be7f2H
	DD	03be7f2H
	DD	03be7f2H
	DD	03be7f2H
	DD	03be7f2H
	DD	03be7f2H
	DD	03be7f2H
	DD	03be7f2H
	DD	03be7f2H
	DD	03cebf6H
	DD	031c7d1H
	DD	014072427H
	DD	0d4000000H
	DD	0ffdededeH
	DD	0ffffffffH
	DD	0ffffffffH
	DD	0ffffffffH
	DD	0ffffffffH
	DD	0ffffffffH
	DD	0ffffffffH
	DD	0ffffffffH
	DD	0ffffffffH
	DD	0ffffffffH
	DD	0ffffffffH
	DD	07d7e7e7eH
	DD	032bcc5H
	DD	03fedf8H
	DD	03ae6f1H
	DD	03be6f1H
	DD	03be6f1H
	DD	03be6f1H
	DD	03be6f1H
	DD	03be6f1H
	DD	03be6f1H
	DD	03be6f1H
	DD	03be6f1H
	DD	03be6f1H
	DD	03be6f1H
	DD	03be6f1H
	DD	03be6f1H
	DD	03be6f1H
	DD	03be6f1H
	DD	03be6f1H
	DD	03be6f1H
	DD	03be6f1H
	DD	03be6f1H
	DD	03be6f1H
	DD	03be6f1H
	DD	039e8f4H
	DD	034eefaH
	DD	047ced7H
	DD	0828282H
	DD	0827f7eH
	DD	0888685H
	DD	0716f6fH
	DD	03d3c3bH
	DD	03a3838H
	DD	0383636H
	DD	0444342H
	DD	0757373H
	DD	0858384H
	DD	0828180H
	DD	0828180H
	DD	0848383H
	DD	082807fH
	DD	04f4c4bH
	DD	0585655H
	DD	07a7878H
	DD	0868484H
	DD	0868484H
	DD	0838382H
	DD	0848282H
	DD	0848382H
	DD	0858483H
	DD	0848382H
	DD	0838181H
	DD	0838281H
	DD	0848382H
	DD	0838282H
	DD	0858483H
	DD	0858483H
	DD	0848382H
	DD	0848383H
	DD	0858484H
	DD	0858484H
	DD	0868585H
	DD	0858485H
	DD	0868584H
	DD	0868685H
	DD	0858584H
	DD	0848383H
	DD	0848383H
	DD	0878686H
	DD	0878685H
	DD	0878686H
	DD	0888787H
	DD	0868585H
	DD	0959393H
	DD	07f7d7dH
	DD	02d2b2aH
	DD	03c3b3aH
	DD	0444241H
	DD	042403fH
	DD	03e3c3bH
	DD	0595757H
	DD	0898988H
	DD	0858584H
	DD	0858484H
	DD	0828281H
	DD	0818180H
	DD	080807fH
	DD	0808180H
	DD	0bababaH
	DD	05a5755H
	DD	0464241H
	DD	04b4645H
	DD	04a4644H
	DD	0494544H
	DD	04a3e3cH
	DD	03d7174H
	DD	038e6f1H
	DD	03be7f2H
	DD	03be6f1H
	DD	03be6f1H
	DD	03be6f1H
	DD	03be6f1H
	DD	03be6f1H
	DD	03be6f1H
	DD	03be6f1H
	DD	03be6f1H
	DD	03be6f1H
	DD	03be6f1H
	DD	03be6f1H
	DD	03be6f1H
	DD	03be6f1H
	DD	03be6f1H
	DD	03be6f1H
	DD	03be6f1H
	DD	03be6f1H
	DD	03be6f1H
	DD	03be6f1H
	DD	03be6f1H
	DD	03be6f1H
	DD	03be6f1H
	DD	03be6f1H
	DD	03be6f1H
	DD	03be6f1H
	DD	03be6f1H
	DD	03be6f1H
	DD	03be6f1H
	DD	03be6f1H
	DD	03be6f1H
	DD	03be6f1H
	DD	03be6f1H
	DD	03be6f1H
	DD	03be6f1H
	DD	03be6f1H
	DD	03be6f1H
	DD	03be6f1H
	DD	03be6f1H
	DD	03be6f1H
	DD	03be6f1H
	DD	03be6f1H
	DD	03be6f1H
	DD	03be6f1H
	DD	03be6f1H
	DD	03be6f1H
	DD	03be6f1H
	DD	03be6f1H
	DD	03be6f1H
	DD	03be6f1H
	DD	03be6f1H
	DD	03be6f1H
	DD	03be6f1H
	DD	03be6f1H
	DD	03be6f1H
	DD	03be6f1H
	DD	03be6f1H
	DD	03be6f1H
	DD	03be6f1H
	DD	03be6f1H
	DD	03be6f1H
	DD	03be6f1H
	DD	03be6f1H
	DD	03be6f1H
	DD	03be6f1H
	DD	03be6f1H
	DD	03ceaf5H
	DD	031c7d0H
	DD	014072426H
	DD	0d4000000H
	DD	0ffdededeH
	DD	0ffffffffH
	DD	0ffffffffH
	DD	0ffffffffH
	DD	0ffffffffH
	DD	0ffffffffH
	DD	0ffffffffH
	DD	0ffffffffH
	DD	0ffffffffH
	DD	0ffffffffH
	DD	0ffffffffH
	DD	07d7e7e7eH
	DD	032bbc4H
	DD	03fecf8H
	DD	03ae5f1H
	DD	03be5f1H
	DD	03be5f1H
	DD	03be5f1H
	DD	03be5f1H
	DD	03be5f1H
	DD	03be5f1H
	DD	03be5f1H
	DD	03be5f1H
	DD	03be5f1H
	DD	03be5f1H
	DD	03be5f1H
	DD	03be5f1H
	DD	03be5f1H
	DD	03be5f1H
	DD	03be5f1H
	DD	03be5f1H
	DD	03be5f1H
	DD	03be5f1H
	DD	03be5f1H
	DD	03ae6f2H
	DD	043dde8H
	DD	053d4dcH
	DD	067acb0H
	DD	0847d7cH
	DD	082807fH
	DD	0898887H
	DD	0646362H
	DD	03a3938H
	DD	0393836H
	DD	03a3838H
	DD	04d4b4bH
	DD	07d7b7bH
	DD	0858383H
	DD	0838181H
	DD	0838281H
	DD	0878585H
	DD	071706fH
	DD	04a4847H
	DD	0676564H
	DD	07f7e7dH
	DD	0858483H
	DD	0848383H
	DD	0838282H
	DD	0838281H
	DD	0858484H
	DD	0848383H
	DD	0848383H
	DD	0848382H
	DD	0848382H
	DD	0858383H
	DD	0838282H
	DD	0848383H
	DD	0858484H
	DD	0848383H
	DD	0848383H
	DD	0858483H
	DD	0858483H
	DD	0868585H
	DD	0858483H
	DD	0848382H
	DD	0858483H
	DD	0878686H
	DD	0878686H
	DD	0848383H
	DD	0858484H
	DD	08a8989H
	DD	0878686H
	DD	0878686H
	DD	0868686H
	DD	0888787H
	DD	0979696H
	DD	0403e3dH
	DD	0323030H
	DD	0444241H
	DD	0434140H
	DD	042403fH
	DD	04d4b4aH
	DD	0838382H
	DD	0878686H
	DD	0868585H
	DD	0848383H
	DD	0818080H
	DD	0807f7fH
	DD	07c7b7bH
	DD	0b9b8b9H
	DD	073706fH
	DD	0423d3cH
	DD	04b4746H
	DD	04a4644H
	DD	0494543H
	DD	04a403eH
	DD	0425758H
	DD	037d6e1H
	DD	03ce8f5H
	DD	03be5f1H
	DD	03be5f1H
	DD	03be5f1H
	DD	03be5f1H
	DD	03be5f1H
	DD	03be5f1H
	DD	03be5f1H
	DD	03be5f1H
	DD	03be5f1H
	DD	03be5f1H
	DD	03be5f1H
	DD	03be5f1H
	DD	03be5f1H
	DD	03be5f1H
	DD	03be5f1H
	DD	03be5f1H
	DD	03be5f1H
	DD	03be5f1H
	DD	03be5f1H
	DD	03be5f1H
	DD	03be5f1H
	DD	03be5f1H
	DD	03be5f1H
	DD	03be5f1H
	DD	03be5f1H
	DD	03be5f1H
	DD	03be5f1H
	DD	03be5f1H
	DD	03be5f1H
	DD	03be5f1H
	DD	03be5f1H
	DD	03be5f1H
	DD	03be5f1H
	DD	03be5f1H
	DD	03be5f1H
	DD	03be5f1H
	DD	03be5f1H
	DD	03be5f1H
	DD	03be5f1H
	DD	03be5f1H
	DD	03be5f1H
	DD	03be5f1H
	DD	03be5f1H
	DD	03be5f1H
	DD	03be5f1H
	DD	03be5f1H
	DD	03be5f1H
	DD	03be5f1H
	DD	03be5f1H
	DD	03be5f1H
	DD	03be5f1H
	DD	03be5f1H
	DD	03be5f1H
	DD	03be5f1H
	DD	03be5f1H
	DD	03be5f1H
	DD	03be5f1H
	DD	03be5f1H
	DD	03be5f1H
	DD	03be5f1H
	DD	03be5f1H
	DD	03be5f1H
	DD	03be5f1H
	DD	03be5f1H
	DD	03be5f1H
	DD	03ce9f5H
	DD	031c5d0H
	DD	014072426H
	DD	0d4000000H
	DD	0ffdededeH
	DD	0ffffffffH
	DD	0ffffffffH
	DD	0ffffffffH
	DD	0ffffffffH
	DD	0ffffffffH
	DD	0ffffffffH
	DD	0ffffffffH
	DD	0ffffffffH
	DD	0ffffffffH
	DD	0ffffffffH
	DD	07d7e7e7eH
	DD	032bbc4H
	DD	03febf7H
	DD	03ae4f0H
	DD	03be4f0H
	DD	03be4f0H
	DD	03be4f0H
	DD	03be4f0H
	DD	03be4f0H
	DD	03be4f0H
	DD	03be4f0H
	DD	03be4f0H
	DD	03be4f0H
	DD	03be4f0H
	DD	03be4f0H
	DD	03be4f0H
	DD	03be4f0H
	DD	03be4f0H
	DD	03be4f0H
	DD	03be4f0H
	DD	03be4f0H
	DD	03be4f0H
	DD	03ae5f1H
	DD	039e3efH
	DD	06fabafH
	DD	09a908fH
	DD	08c8584H
	DD	081807fH
	DD	0828180H
	DD	0898887H
	DD	05e5d5cH
	DD	03f3d3cH
	DD	03e3d3cH
	DD	03d3c3bH
	DD	0565554H
	DD	0838381H
	DD	0848282H
	DD	0838181H
	DD	0828180H
	DD	0868484H
	DD	0646162H
	DD	0545151H
	DD	072706fH
	DD	0848282H
	DD	0848382H
	DD	0848382H
	DD	0848283H
	DD	0848282H
	DD	0848383H
	DD	0848282H
	DD	0838181H
	DD	0858484H
	DD	0848282H
	DD	0848282H
	DD	0848382H
	DD	0868483H
	DD	0848383H
	DD	0858484H
	DD	0858484H
	DD	0858484H
	DD	0848382H
	DD	0858483H
	DD	0878685H
	DD	0858484H
	DD	0868584H
	DD	0878686H
	DD	0888787H
	DD	0868584H
	DD	0848383H
	DD	0868585H
	DD	0888787H
	DD	0868586H
	DD	0868585H
	DD	0858483H
	DD	0999999H
	DD	0666564H
	DD	02f2d2cH
	DD	0434141H
	DD	0484645H
	DD	0464443H
	DD	0484645H
	DD	07c7c7bH
	DD	08a8a89H
	DD	0868585H
	DD	0858483H
	DD	0828181H
	DD	0848382H
	DD	0777676H
	DD	0a8a8a8H
	DD	0918e8eH
	DD	0403c3aH
	DD	04b4746H
	DD	04a4644H
	DD	0494443H
	DD	0493f3cH
	DD	0444443H
	DD	037c0c9H
	DD	03beaf7H
	DD	03be4f0H
	DD	03be4f0H
	DD	03be4f0H
	DD	03be4f0H
	DD	03be4f0H
	DD	03be4f0H
	DD	03be4f0H
	DD	03be4f0H
	DD	03be4f0H
	DD	03be4f0H
	DD	03be4f0H
	DD	03be4f0H
	DD	03be4f0H
	DD	03be4f0H
	DD	03be4f0H
	DD	03be4f0H
	DD	03be4f0H
	DD	03be4f0H
	DD	03be4f0H
	DD	03be4f0H
	DD	03be4f0H
	DD	03be4f0H
	DD	03be4f0H
	DD	03be4f0H
	DD	03be4f0H
	DD	03be4f0H
	DD	03be4f0H
	DD	03be4f0H
	DD	03be4f0H
	DD	03be4f0H
	DD	03be4f0H
	DD	03be4f0H
	DD	03be4f0H
	DD	03be4f0H
	DD	03be4f0H
	DD	03be4f0H
	DD	03be4f0H
	DD	03be4f0H
	DD	03be4f0H
	DD	03be4f0H
	DD	03be4f0H
	DD	03be4f0H
	DD	03be4f0H
	DD	03be4f0H
	DD	03be4f0H
	DD	03be4f0H
	DD	03be4f0H
	DD	03be4f0H
	DD	03be4f0H
	DD	03be4f0H
	DD	03be4f0H
	DD	03be4f0H
	DD	03be4f0H
	DD	03be4f0H
	DD	03be4f0H
	DD	03be4f0H
	DD	03be4f0H
	DD	03be4f0H
	DD	03be4f0H
	DD	03be4f0H
	DD	03be4f0H
	DD	03be4f0H
	DD	03be4f0H
	DD	03be4f0H
	DD	03be4f0H
	DD	03ce8f4H
	DD	031c5cfH
	DD	014072426H
	DD	0d4000000H
	DD	0ffdededeH
	DD	0ffffffffH
	DD	0ffffffffH
	DD	0ffffffffH
	DD	0ffffffffH
	DD	0ffffffffH
	DD	0ffffffffH
	DD	0ffffffffH
	DD	0ffffffffH
	DD	0ffffffffH
	DD	0ffffffffH
	DD	07d7e7e7eH
	DD	032bac3H
	DD	03feaf7H
	DD	039e3f0H
	DD	03ae3f0H
	DD	03ae3f0H
	DD	03ae3f0H
	DD	03ae3f0H
	DD	03ae3f0H
	DD	03ae3f0H
	DD	03ae3f0H
	DD	03ae3f0H
	DD	03ae3f0H
	DD	03ae3f0H
	DD	03ae3f0H
	DD	03ae3f0H
	DD	03ae3f0H
	DD	03ae3f0H
	DD	03ae3f0H
	DD	03ae3f0H
	DD	03ae3f0H
	DD	03ae3f0H
	DD	039e4f2H
	DD	03be1edH
	DD	06e989bH
	DD	0837a79H
	DD	081807fH
	DD	0828080H
	DD	0828080H
	DD	08a8989H
	DD	0626160H
	DD	0454443H
	DD	0454442H
	DD	0403e3dH
	DD	05f5d5cH
	DD	0858483H
	DD	0838281H
	DD	0848282H
	DD	0838180H
	DD	0858483H
	DD	0656463H
	DD	0676565H
	DD	0787675H
	DD	0868584H
	DD	0838281H
	DD	0838181H
	DD	0838281H
	DD	0858483H
	DD	0858482H
	DD	0848281H
	DD	0838181H
	DD	0848282H
	DD	0868383H
	DD	0848482H
	DD	0838281H
	DD	0848382H
	DD	0838282H
	DD	0848383H
	DD	0868484H
	DD	0848382H
	DD	0838282H
	DD	0848384H
	DD	0838283H
	DD	0868585H
	DD	0868584H
	DD	0868585H
	DD	0858484H
	DD	0888787H
	DD	0838282H
	DD	0848282H
	DD	0868585H
	DD	0878786H
	DD	0878686H
	DD	0858484H
	DD	0929191H
	DD	0858484H
	DD	0373534H
	DD	0413e3dH
	DD	04a4848H
	DD	0474545H
	DD	0454242H
	DD	06e6d6cH
	DD	08c8b8bH
	DD	0848383H
	DD	0858484H
	DD	0848382H
	DD	0848382H
	DD	0787777H
	DD	0949494H
	DD	0aaa8a8H
	DD	0464342H
	DD	04a4644H
	DD	0484544H
	DD	0494241H
	DD	0484b4aH
	DD	03c7a7eH
	DD	037d3dfH
	DD	03ae6f3H
	DD	03ae3f0H
	DD	03ae3f0H
	DD	03ae3f0H
	DD	03ae3f0H
	DD	03ae3f0H
	DD	03ae3f0H
	DD	03ae3f0H
	DD	03ae3f0H
	DD	03ae3f0H
	DD	03ae3f0H
	DD	03ae3f0H
	DD	03ae3f0H
	DD	03ae3f0H
	DD	03ae3f0H
	DD	03ae3f0H
	DD	03ae3f0H
	DD	03ae3f0H
	DD	03ae3f0H
	DD	03ae3f0H
	DD	03ae3f0H
	DD	03ae3f0H
	DD	03ae3f0H
	DD	03ae3f0H
	DD	03ae3f0H
	DD	03ae3f0H
	DD	03ae3f0H
	DD	03ae3f0H
	DD	03ae3f0H
	DD	03ae3f0H
	DD	03ae3f0H
	DD	03ae3f0H
	DD	03ae3f0H
	DD	03ae3f0H
	DD	03ae3f0H
	DD	03ae3f0H
	DD	03ae3f0H
	DD	03ae3f0H
	DD	03ae3f0H
	DD	03ae3f0H
	DD	03ae3f0H
	DD	03ae3f0H
	DD	03ae3f0H
	DD	03ae3f0H
	DD	03ae3f0H
	DD	03ae3f0H
	DD	03ae3f0H
	DD	03ae3f0H
	DD	03ae3f0H
	DD	03ae3f0H
	DD	03ae3f0H
	DD	03ae3f0H
	DD	03ae3f0H
	DD	03ae3f0H
	DD	03ae3f0H
	DD	03ae3f0H
	DD	03ae3f0H
	DD	03ae3f0H
	DD	03ae3f0H
	DD	03ae3f0H
	DD	03ae3f0H
	DD	03ae3f0H
	DD	03ae3f0H
	DD	03ae3f0H
	DD	03ae3f0H
	DD	03ae3f0H
	DD	03be7f4H
	DD	030c4cfH
	DD	014072426H
	DD	0d4000000H
	DD	0ffdededeH
	DD	0ffffffffH
	DD	0ffffffffH
	DD	0ffffffffH
	DD	0ffffffffH
	DD	0ffffffffH
	DD	0ffffffffH
	DD	0ffffffffH
	DD	0ffffffffH
	DD	0ffffffffH
	DD	0ffffffffH
	DD	07d7e7e7eH
	DD	032b9c3H
	DD	03feaf6H
	DD	039e3efH
	DD	03ae3efH
	DD	03ae3efH
	DD	03ae3efH
	DD	03ae3efH
	DD	03ae3efH
	DD	03ae3efH
	DD	03ae3efH
	DD	03ae3efH
	DD	03ae3efH
	DD	03ae3efH
	DD	03ae3efH
	DD	03ae3efH
	DD	03ae3efH
	DD	03ae3efH
	DD	03ae3efH
	DD	03ae3efH
	DD	03ae3efH
	DD	03ae3efH
	DD	039e5f1H
	DD	03be0ecH
	DD	06f989bH
	DD	0857c7cH
	DD	0828181H
	DD	0818181H
	DD	0817f7fH
	DD	08b8a8aH
	DD	0626261H
	DD	0464544H
	DD	0464443H
	DD	03f3d3dH
	DD	0656463H
	DD	0868584H
	DD	0838181H
	DD	0838281H
	DD	0848282H
	DD	0817f7fH
	DD	0615f5eH
	DD	06b6969H
	DD	07b7979H
	DD	0858383H
	DD	0828180H
	DD	0828180H
	DD	0838281H
	DD	0848483H
	DD	0858483H
	DD	0828080H
	DD	0848382H
	DD	0848382H
	DD	0848382H
	DD	0838282H
	DD	0858483H
	DD	0838282H
	DD	0838282H
	DD	0858483H
	DD	0848383H
	DD	0848282H
	DD	0838282H
	DD	0858484H
	DD	0858484H
	DD	0868585H
	DD	0868585H
	DD	0858484H
	DD	0858484H
	DD	0898888H
	DD	0848383H
	DD	0848383H
	DD	0868585H
	DD	0878686H
	DD	0868585H
	DD	0858384H
	DD	08a8988H
	DD	0929191H
	DD	0413f3eH
	DD	03b3938H
	DD	04a4847H
	DD	0484645H
	DD	0434140H
	DD	0605e5dH
	DD	08d8c8bH
	DD	0878585H
	DD	0858484H
	DD	0818080H
	DD	0828180H
	DD	0949393H
	DD	0a1a0a0H
	DD	0838280H
	DD	03d3a39H
	DD	03a3836H
	DD	03e3433H
	DD	0406d70H
	DD	039c5d0H
	DD	039e3efH
	DD	03ae5f2H
	DD	03ae3efH
	DD	03ae3efH
	DD	03ae3efH
	DD	03ae3efH
	DD	03ae3efH
	DD	03ae3efH
	DD	03ae3efH
	DD	03ae3efH
	DD	03ae3efH
	DD	03ae3efH
	DD	03ae3efH
	DD	03ae3efH
	DD	03ae3efH
	DD	03ae3efH
	DD	03ae3efH
	DD	03ae3efH
	DD	03ae3efH
	DD	03ae3efH
	DD	03ae3efH
	DD	03ae3efH
	DD	03ae3efH
	DD	03ae3efH
	DD	03ae3efH
	DD	03ae3efH
	DD	03ae3efH
	DD	03ae3efH
	DD	03ae3efH
	DD	03ae3efH
	DD	03ae3efH
	DD	03ae3efH
	DD	03ae3efH
	DD	03ae3efH
	DD	03ae3efH
	DD	03ae3efH
	DD	03ae3efH
	DD	03ae3efH
	DD	03ae3efH
	DD	03ae3efH
	DD	03ae3efH
	DD	03ae3efH
	DD	03ae3efH
	DD	03ae3efH
	DD	03ae3efH
	DD	03ae3efH
	DD	03ae3efH
	DD	03ae3efH
	DD	03ae3efH
	DD	03ae3efH
	DD	03ae3efH
	DD	03ae3efH
	DD	03ae3efH
	DD	03ae3efH
	DD	03ae3efH
	DD	03ae3efH
	DD	03ae3efH
	DD	03ae3efH
	DD	03ae3efH
	DD	03ae3efH
	DD	03ae3efH
	DD	03ae3efH
	DD	03ae3efH
	DD	03ae3efH
	DD	03ae3efH
	DD	03ae3efH
	DD	03ae3efH
	DD	03ae3efH
	DD	03be7f3H
	DD	030c4cfH
	DD	014072426H
	DD	0d4000000H
	DD	0ffdededeH
	DD	0ffffffffH
	DD	0ffffffffH
	DD	0ffffffffH
	DD	0ffffffffH
	DD	0ffffffffH
	DD	0ffffffffH
	DD	0ffffffffH
	DD	0ffffffffH
	DD	0ffffffffH
	DD	0ffffffffH
	DD	07d7e7e7eH
	DD	032b9c3H
	DD	03fe9f6H
	DD	039e2efH
	DD	03ae2efH
	DD	03ae2efH
	DD	03ae2efH
	DD	03ae2efH
	DD	03ae2efH
	DD	03ae2efH
	DD	03ae2efH
	DD	03ae2efH
	DD	03ae2efH
	DD	03ae2efH
	DD	03ae2efH
	DD	03ae2efH
	DD	03ae2efH
	DD	03ae2efH
	DD	03ae2efH
	DD	03ae2efH
	DD	03ae2efH
	DD	03ae2efH
	DD	039e4f1H
	DD	03ddeeaH
	DD	0739597H
	DD	0857d7cH
	DD	0828181H
	DD	0818180H
	DD	0828180H
	DD	08c8b8bH
	DD	0605f5fH
	DD	0454342H
	DD	0444241H
	DD	03e3d3cH
	DD	0676765H
	DD	0868484H
	DD	0828080H
	DD	0828080H
	DD	0838282H
	DD	07f7e7dH
	DD	0666363H
	DD	0716f6fH
	DD	07d7b7bH
	DD	0848282H
	DD	0838181H
	DD	0828181H
	DD	0828181H
	DD	0848382H
	DD	0848382H
	DD	0838282H
	DD	0858483H
	DD	0848382H
	DD	0838281H
	DD	0848382H
	DD	0848383H
	DD	0818080H
	DD	0828181H
	DD	0848382H
	DD	0838281H
	DD	0868484H
	DD	0868585H
	DD	0858483H
	DD	0888786H
	DD	0858484H
	DD	0848383H
	DD	0878685H
	DD	0868584H
	DD	0878685H
	DD	0858484H
	DD	0848383H
	DD	0868586H
	DD	0888787H
	DD	0878686H
	DD	0868585H
	DD	0868685H
	DD	0999998H
	DD	0545251H
	DD	0373534H
	DD	0494746H
	DD	0484645H
	DD	0444241H
	DD	0545251H
	DD	0868685H
	DD	0888787H
	DD	0858484H
	DD	07d7d7cH
	DD	0a1a1a0H
	DD	0848281H
	DD	0504d4cH
	DD	03a3635H
	DD	03e3c3aH
	DD	0423f3eH
	DD	0443634H
	DD	0388d93H
	DD	039edfaH
	DD	03ae5f1H
	DD	03ae2efH
	DD	03ae2efH
	DD	03ae2efH
	DD	03ae2efH
	DD	03ae2efH
	DD	03ae2efH
	DD	03ae2efH
	DD	03ae2efH
	DD	03ae2efH
	DD	03ae2efH
	DD	03ae2efH
	DD	03ae2efH
	DD	03ae2efH
	DD	03ae2efH
	DD	03ae2efH
	DD	03ae2efH
	DD	03ae2efH
	DD	03ae2efH
	DD	03ae2efH
	DD	03ae2efH
	DD	03ae2efH
	DD	03ae2efH
	DD	03ae2efH
	DD	03ae2efH
	DD	03ae2efH
	DD	03ae2efH
	DD	03ae2efH
	DD	03ae2efH
	DD	03ae2efH
	DD	03ae2efH
	DD	03ae2efH
	DD	03ae2efH
	DD	03ae2efH
	DD	03ae2efH
	DD	03ae2efH
	DD	03ae2efH
	DD	03ae2efH
	DD	03ae2efH
	DD	03ae2efH
	DD	03ae2efH
	DD	03ae2efH
	DD	03ae2efH
	DD	03ae2efH
	DD	03ae2efH
	DD	03ae2efH
	DD	03ae2efH
	DD	03ae2efH
	DD	03ae2efH
	DD	03ae2efH
	DD	03ae2efH
	DD	03ae2efH
	DD	03ae2efH
	DD	03ae2efH
	DD	03ae2efH
	DD	03ae2efH
	DD	03ae2efH
	DD	03ae2efH
	DD	03ae2efH
	DD	03ae2efH
	DD	03ae2efH
	DD	03ae2efH
	DD	03ae2efH
	DD	03ae2efH
	DD	03ae2efH
	DD	03ae2efH
	DD	03ae2efH
	DD	03ae2efH
	DD	03be6f3H
	DD	030c3ceH
	DD	014072426H
	DD	0d4000000H
	DD	0ffdededeH
	DD	0ffffffffH
	DD	0ffffffffH
	DD	0ffffffffH
	DD	0ffffffffH
	DD	0ffffffffH
	DD	0ffffffffH
	DD	0ffffffffH
	DD	0ffffffffH
	DD	0ffffffffH
	DD	0ffffffffH
	DD	07d7e7e7eH
	DD	032b9c3H
	DD	03fe8f5H
	DD	039e1eeH
	DD	03ae1eeH
	DD	03ae1eeH
	DD	03ae1eeH
	DD	03ae1eeH
	DD	03ae1eeH
	DD	03ae1eeH
	DD	03ae1eeH
	DD	03ae1eeH
	DD	03ae1eeH
	DD	03ae1eeH
	DD	03ae1eeH
	DD	03ae1eeH
	DD	03ae1eeH
	DD	03ae1eeH
	DD	03ae1eeH
	DD	03ae1eeH
	DD	03ae1eeH
	DD	03ae1eeH
	DD	039e2efH
	DD	03ae0edH
	DD	0649da1H
	DD	07f7676H
	DD	0827f7eH
	DD	0828282H
	DD	0818080H
	DD	08a8989H
	DD	05b5a59H
	DD	0434241H
	DD	042403fH
	DD	03f3e3dH
	DD	06b6969H
	DD	0868484H
	DD	0828080H
	DD	0828180H
	DD	0838282H
	DD	0838281H
	DD	0737270H
	DD	0797776H
	DD	07d7c7bH
	DD	0838382H
	DD	0828180H
	DD	0838281H
	DD	0858383H
	DD	0848283H
	DD	0858383H
	DD	0858483H
	DD	0848382H
	DD	0848383H
	DD	0858483H
	DD	0858484H
	DD	0898785H
	DD	0989696H
	DD	0929090H
	DD	0828180H
	DD	0858484H
	DD	0848382H
	DD	0858483H
	DD	0848383H
	DD	0858483H
	DD	0858483H
	DD	0858483H
	DD	0878685H
	DD	0858484H
	DD	0858484H
	DD	0878786H
	DD	0858483H
	DD	0858484H
	DD	0878786H
	DD	0888787H
	DD	0888787H
	DD	0858484H
	DD	09a9999H
	DD	06a6867H
	DD	0353231H
	DD	0464443H
	DD	04a4847H
	DD	0464443H
	DD	04b4847H
	DD	07e7d7dH
	DD	0878787H
	DD	0828181H
	DD	07e7e7eH
	DD	0989797H
	DD	0504d4bH
	DD	03f3c3aH
	DD	0464241H
	DD	0454140H
	DD	043403eH
	DD	0453835H
	DD	0388287H
	DD	038e5f2H
	DD	03ae2efH
	DD	03ae1eeH
	DD	03ae1eeH
	DD	03ae1eeH
	DD	03ae1eeH
	DD	03ae1eeH
	DD	03ae1eeH
	DD	03ae1eeH
	DD	03ae1eeH
	DD	03ae1eeH
	DD	03ae1eeH
	DD	03ae1eeH
	DD	03ae1eeH
	DD	03ae1eeH
	DD	03ae1eeH
	DD	03ae1eeH
	DD	03ae1eeH
	DD	03ae1eeH
	DD	03ae1eeH
	DD	03ae1eeH
	DD	03ae1eeH
	DD	03ae1eeH
	DD	03ae1eeH
	DD	03ae1eeH
	DD	03ae1eeH
	DD	03ae1eeH
	DD	03ae1eeH
	DD	03ae1eeH
	DD	03ae1eeH
	DD	03ae1eeH
	DD	03ae1eeH
	DD	03ae1eeH
	DD	03ae1eeH
	DD	03ae1eeH
	DD	03ae1eeH
	DD	03ae1eeH
	DD	03ae1eeH
	DD	03ae1eeH
	DD	03ae1eeH
	DD	03ae1eeH
	DD	03ae1eeH
	DD	03ae1eeH
	DD	03ae1eeH
	DD	03ae1eeH
	DD	03ae1eeH
	DD	03ae1eeH
	DD	03ae1eeH
	DD	03ae1eeH
	DD	03ae1eeH
	DD	03ae1eeH
	DD	03ae1eeH
	DD	03ae1eeH
	DD	03ae1eeH
	DD	03ae1eeH
	DD	03ae1eeH
	DD	03ae1eeH
	DD	03ae1eeH
	DD	03ae1eeH
	DD	03ae1eeH
	DD	03ae1eeH
	DD	03ae1eeH
	DD	03ae1eeH
	DD	03ae1eeH
	DD	03ae1eeH
	DD	03ae1eeH
	DD	03ae1eeH
	DD	03ae1eeH
	DD	03ae1eeH
	DD	03be5f2H
	DD	030c3cdH
	DD	014072426H
	DD	0d4000000H
	DD	0ffdededeH
	DD	0ffffffffH
	DD	0ffffffffH
	DD	0ffffffffH
	DD	0ffffffffH
	DD	0ffffffffH
	DD	0ffffffffH
	DD	0ffffffffH
	DD	0ffffffffH
	DD	0ffffffffH
	DD	0ffffffffH
	DD	07d7e7e7eH
	DD	032b8c3H
	DD	03fe8f5H
	DD	039e1eeH
	DD	03ae1eeH
	DD	03ae1eeH
	DD	03ae1eeH
	DD	03ae1eeH
	DD	03ae1eeH
	DD	03ae1eeH
	DD	03ae1eeH
	DD	03ae1eeH
	DD	03ae1eeH
	DD	03ae1eeH
	DD	03ae1eeH
	DD	03ae1eeH
	DD	03ae1eeH
	DD	03ae1eeH
	DD	03ae1eeH
	DD	03ae1eeH
	DD	03ae1eeH
	DD	03ae1eeH
	DD	03ae1eeH
	DD	039e2efH
	DD	03bd9e5H
	DD	04bb9c1H
	DD	0768a8cH
	DD	083807fH
	DD	0828180H
	DD	08a8989H
	DD	05b5a59H
	DD	0454443H
	DD	0454342H
	DD	0413f3eH
	DD	06d6b6aH
	DD	0868484H
	DD	0828180H
	DD	0838281H
	DD	0848282H
	DD	0848282H
	DD	0737170H
	DD	0797776H
	DD	07f7d7dH
	DD	0858483H
	DD	0838281H
	DD	0838281H
	DD	0848382H
	DD	0848382H
	DD	0838381H
	DD	0848282H
	DD	0848282H
	DD	0858382H
	DD	0838282H
	DD	0888585H
	DD	08c8886H
	DD	08e8988H
	DD	09d9999H
	DD	0979696H
	DD	0828282H
	DD	0848382H
	DD	0868484H
	DD	0868584H
	DD	0838283H
	DD	0868584H
	DD	0848383H
	DD	0838282H
	DD	0858484H
	DD	0868585H
	DD	0888687H
	DD	0858483H
	DD	0868584H
	DD	0868686H
	DD	0888786H
	DD	0878686H
	DD	0838282H
	DD	0959494H
	DD	0787776H
	DD	0373534H
	DD	0444141H
	DD	0494646H
	DD	0454342H
	DD	0464343H
	DD	0797877H
	DD	0888787H
	DD	07f7e7eH
	DD	07f7e7fH
	DD	08b8b8bH
	DD	052504eH
	DD	0454240H
	DD	0474341H
	DD	0464240H
	DD	0464241H
	DD	0473b38H
	DD	0397a7eH
	DD	038e3f0H
	DD	03ae2efH
	DD	03ae1eeH
	DD	03ae1eeH
	DD	03ae1eeH
	DD	03ae1eeH
	DD	03ae1eeH
	DD	03ae1eeH
	DD	03ae1eeH
	DD	03ae1eeH
	DD	03ae1eeH
	DD	03ae1eeH
	DD	03ae1eeH
	DD	03ae1eeH
	DD	03ae1eeH
	DD	03ae1eeH
	DD	03ae1eeH
	DD	03ae1eeH
	DD	03ae1eeH
	DD	03ae1eeH
	DD	03ae1eeH
	DD	03ae1eeH
	DD	03ae1eeH
	DD	03ae1eeH
	DD	03ae1eeH
	DD	03ae1eeH
	DD	03ae1eeH
	DD	03ae1eeH
	DD	03ae1eeH
	DD	03ae1eeH
	DD	03ae1eeH
	DD	03ae1eeH
	DD	03ae1eeH
	DD	03ae1eeH
	DD	03ae1eeH
	DD	03ae1eeH
	DD	03ae1eeH
	DD	03ae1eeH
	DD	03ae1eeH
	DD	03ae1eeH
	DD	03ae1eeH
	DD	03ae1eeH
	DD	03ae1eeH
	DD	03ae1eeH
	DD	03ae1eeH
	DD	03ae1eeH
	DD	03ae1eeH
	DD	03ae1eeH
	DD	03ae1eeH
	DD	03ae1eeH
	DD	03ae1eeH
	DD	03ae1eeH
	DD	03ae1eeH
	DD	03ae1eeH
	DD	03ae1eeH
	DD	03ae1eeH
	DD	03ae1eeH
	DD	03ae1eeH
	DD	03ae1eeH
	DD	03ae1eeH
	DD	03ae1eeH
	DD	03ae1eeH
	DD	03ae1eeH
	DD	03ae1eeH
	DD	03ae1eeH
	DD	03ae1eeH
	DD	03ae1eeH
	DD	03ae1eeH
	DD	03ae1eeH
	DD	03be5f2H
	DD	030c3cdH
	DD	014072426H
	DD	0d4000000H
	DD	0ffdededeH
	DD	0ffffffffH
	DD	0ffffffffH
	DD	0ffffffffH
	DD	0ffffffffH
	DD	0ffffffffH
	DD	0ffffffffH
	DD	0ffffffffH
	DD	0ffffffffH
	DD	0ffffffffH
	DD	0ffffffffH
	DD	07d7e7e7eH
	DD	032b8c2H
	DD	03fe8f4H
	DD	039e1edH
	DD	03ae1edH
	DD	03ae1edH
	DD	03ae1edH
	DD	03ae1edH
	DD	03ae1edH
	DD	03ae1edH
	DD	03ae1edH
	DD	03ae1edH
	DD	03ae1edH
	DD	03ae1edH
	DD	03ae1edH
	DD	03ae1edH
	DD	03ae1edH
	DD	03ae1edH
	DD	03ae1edH
	DD	03ae1edH
	DD	03ae1edH
	DD	03ae1edH
	DD	03ae1edH
	DD	03ae1edH
	DD	03ae3efH
	DD	034e8f6H
	DD	05faeb3H
	DD	0847c7bH
	DD	080807fH
	DD	08c8b8bH
	DD	0616160H
	DD	0494746H
	DD	0484746H
	DD	041403fH
	DD	06b6a69H
	DD	0858483H
	DD	0817f7fH
	DD	082807fH
	DD	0858383H
	DD	0848282H
	DD	0777574H
	DD	0797676H
	DD	07f7d7dH
	DD	0848383H
	DD	0838181H
	DD	081807fH
	DD	0838383H
	DD	0858484H
	DD	0828180H
	DD	0828280H
	DD	0858383H
	DD	0838281H
	DD	0848381H
	DD	0898786H
	DD	0888687H
	DD	09a9999H
	DD	0888685H
	DD	0a9a7a7H
	DD	08a8989H
	DD	0838281H
	DD	0858483H
	DD	0858484H
	DD	0858484H
	DD	0858483H
	DD	0858484H
	DD	0858483H
	DD	0868584H
	DD	0868585H
	DD	0858484H
	DD	0848383H
	DD	0878686H
	DD	0878686H
	DD	0858584H
	DD	0868685H
	DD	0858484H
	DD	0908f8fH
	DD	07d7c7bH
	DD	0383635H
	DD	042403fH
	DD	0494746H
	DD	0464443H
	DD	0444241H
	DD	0757373H
	DD	08b8a8bH
	DD	0858484H
	DD	0828180H
	DD	08d8d8cH
	DD	0595554H
	DD	0474342H
	DD	0474442H
	DD	0474341H
	DD	0464241H
	DD	0463b39H
	DD	03a7174H
	DD	038e0edH
	DD	03ae2eeH
	DD	03ae1edH
	DD	03ae1edH
	DD	03ae1edH
	DD	03ae1edH
	DD	03ae1edH
	DD	03ae1edH
	DD	03ae1edH
	DD	03ae1edH
	DD	03ae1edH
	DD	03ae1edH
	DD	03ae1edH
	DD	03ae1edH
	DD	03ae1edH
	DD	03ae1edH
	DD	03ae1edH
	DD	03ae1edH
	DD	03ae1edH
	DD	03ae1edH
	DD	03ae1edH
	DD	03ae1edH
	DD	03ae1edH
	DD	03ae1edH
	DD	03ae1edH
	DD	03ae1edH
	DD	03ae1edH
	DD	03ae1edH
	DD	03ae1edH
	DD	03ae1edH
	DD	03ae1edH
	DD	03ae1edH
	DD	03ae1edH
	DD	03ae1edH
	DD	03ae1edH
	DD	03ae1edH
	DD	03ae1edH
	DD	03ae1edH
	DD	03ae1edH
	DD	03ae1edH
	DD	03ae1edH
	DD	03ae1edH
	DD	03ae1edH
	DD	03ae1edH
	DD	03ae1edH
	DD	03ae1edH
	DD	03ae1edH
	DD	03ae1edH
	DD	03ae1edH
	DD	03ae1edH
	DD	03ae1edH
	DD	03ae1edH
	DD	03ae1edH
	DD	03ae1edH
	DD	03ae1edH
	DD	03ae1edH
	DD	03ae1edH
	DD	03ae1edH
	DD	03ae1edH
	DD	03ae1edH
	DD	03ae1edH
	DD	03ae1edH
	DD	03ae1edH
	DD	03ae1edH
	DD	03ae1edH
	DD	03ae1edH
	DD	03ae1edH
	DD	03ae1edH
	DD	03ae1edH
	DD	03be5f1H
	DD	030c2cdH
	DD	014072326H
	DD	0d4000000H
	DD	0ffdededeH
	DD	0ffffffffH
	DD	0ffffffffH
	DD	0ffffffffH
	DD	0ffffffffH
	DD	0ffffffffH
	DD	0ffffffffH
	DD	0ffffffffH
	DD	0ffffffffH
	DD	0ffffffffH
	DD	0ffffffffH
	DD	07d7e7e7eH
	DD	033b7c2H
	DD	03fe7f4H
	DD	039e0edH
	DD	03ae0edH
	DD	03ae0edH
	DD	03ae0edH
	DD	03ae0edH
	DD	03ae0edH
	DD	03ae0edH
	DD	03ae0edH
	DD	03ae0edH
	DD	03ae0edH
	DD	03ae0edH
	DD	03ae0edH
	DD	03ae0edH
	DD	03ae0edH
	DD	03ae0edH
	DD	03ae0edH
	DD	03ae0edH
	DD	03ae0edH
	DD	03ae0edH
	DD	03ae0edH
	DD	03ae0edH
	DD	03ae0edH
	DD	037e5f2H
	DD	058b7bfH
	DD	0837c7cH
	DD	07f7f7fH
	DD	08e8e8dH
	DD	0686766H
	DD	0494746H
	DD	0484646H
	DD	0423f3fH
	DD	0666464H
	DD	0858483H
	DD	081807fH
	DD	081807fH
	DD	0838181H
	DD	08a8887H
	DD	07f7d7cH
	DD	07c7a7aH
	DD	07c7a7aH
	DD	0848383H
	DD	0848282H
	DD	0828080H
	DD	0848282H
	DD	0858483H
	DD	0838281H
	DD	0828180H
	DD	0848282H
	DD	0828180H
	DD	0838281H
	DD	0838282H
	DD	081807fH
	DD	0868585H
	DD	0a1a0a0H
	DD	09e9d9cH
	DD	0999898H
	DD	0818080H
	DD	0878585H
	DD	0858483H
	DD	0868585H
	DD	0858483H
	DD	0858483H
	DD	0868584H
	DD	0868585H
	DD	0858484H
	DD	0868585H
	DD	0858484H
	DD	0858383H
	DD	0878686H
	DD	0878686H
	DD	0878786H
	DD	0858484H
	DD	08e8e8dH
	DD	0828180H
	DD	03a3737H
	DD	0403e3dH
	DD	0494746H
	DD	0464443H
	DD	0434140H
	DD	071706fH
	DD	0888888H
	DD	0848383H
	DD	0848382H
	DD	08f8e8eH
	DD	05c5958H
	DD	0464241H
	DD	0474442H
	DD	0474341H
	DD	0464241H
	DD	0473c3aH
	DD	03b686bH
	DD	038ddeaH
	DD	03ae2efH
	DD	03ae0edH
	DD	03ae0edH
	DD	03ae0edH
	DD	03ae0edH
	DD	03ae0edH
	DD	03ae0edH
	DD	03ae0edH
	DD	03ae0edH
	DD	03ae0edH
	DD	03ae0edH
	DD	03ae0edH
	DD	03ae0edH
	DD	03ae0edH
	DD	03ae0edH
	DD	03ae0edH
	DD	03ae0edH
	DD	03ae0edH
	DD	03ae0edH
	DD	03ae0edH
	DD	03ae0edH
	DD	03ae0edH
	DD	03ae0edH
	DD	03ae0edH
	DD	03ae0edH
	DD	03ae0edH
	DD	03ae0edH
	DD	03ae0edH
	DD	03ae0edH
	DD	03ae0edH
	DD	03ae0edH
	DD	03ae0edH
	DD	03ae0edH
	DD	03ae0edH
	DD	03ae0edH
	DD	03ae0edH
	DD	03ae0edH
	DD	03ae0edH
	DD	03ae0edH
	DD	03ae0edH
	DD	03ae0edH
	DD	03ae0edH
	DD	03ae0edH
	DD	03ae0edH
	DD	03ae0edH
	DD	03ae0edH
	DD	03ae0edH
	DD	03ae0edH
	DD	03ae0edH
	DD	03ae0edH
	DD	03ae0edH
	DD	03ae0edH
	DD	03ae0edH
	DD	03ae0edH
	DD	03ae0edH
	DD	03ae0edH
	DD	03ae0edH
	DD	03ae0edH
	DD	03ae0edH
	DD	03ae0edH
	DD	03ae0edH
	DD	03ae0edH
	DD	03ae0edH
	DD	03ae0edH
	DD	03ae0edH
	DD	03ae0edH
	DD	03ae0edH
	DD	03ae0edH
	DD	03be4f1H
	DD	030c1ccH
	DD	014072326H
	DD	0d4000000H
	DD	0ffdededeH
	DD	0ffffffffH
	DD	0ffffffffH
	DD	0ffffffffH
	DD	0ffffffffH
	DD	0ffffffffH
	DD	0ffffffffH
	DD	0ffffffffH
	DD	0ffffffffH
	DD	0ffffffffH
	DD	0ffffffffH
	DD	07d7e7e7eH
	DD	033b7c2H
	DD	03fe7f4H
	DD	039e0edH
	DD	03ae0edH
	DD	03ae0edH
	DD	03ae0edH
	DD	03ae0edH
	DD	03ae0edH
	DD	03ae0edH
	DD	03ae0edH
	DD	03ae0edH
	DD	03ae0edH
	DD	03ae0edH
	DD	03ae0edH
	DD	03ae0edH
	DD	03ae0edH
	DD	03ae0edH
	DD	03ae0edH
	DD	03ae0edH
	DD	03ae0edH
	DD	03ae0edH
	DD	03ae0edH
	DD	03ae0edH
	DD	03ae0edH
	DD	037e4f2H
	DD	051bdc6H
	DD	0827e7dH
	DD	07e807fH
	DD	08d8d8cH
	DD	06e6e6dH
	DD	0494747H
	DD	0494746H
	DD	0413f3fH
	DD	0615f5eH
	DD	0858483H
	DD	081807fH
	DD	0817f7fH
	DD	0818080H
	DD	08c8a89H
	DD	07f7d7cH
	DD	07c7a79H
	DD	07a7978H
	DD	0848283H
	DD	0848383H
	DD	0838281H
	DD	0838281H
	DD	0838281H
	DD	0828180H
	DD	0838281H
	DD	0838281H
	DD	0828181H
	DD	082807fH
	DD	0838282H
	DD	0838283H
	DD	0828281H
	DD	0929190H
	DD	0858382H
	DD	0939392H
	DD	0828181H
	DD	0858383H
	DD	0848383H
	DD	0848383H
	DD	0868584H
	DD	0848383H
	DD	0848383H
	DD	0858483H
	DD	0868685H
	DD	0868684H
	DD	0848382H
	DD	0848383H
	DD	0878686H
	DD	0868685H
	DD	0878685H
	DD	0868584H
	DD	08d8c8cH
	DD	0898787H
	DD	03d3b39H
	DD	03f3c3bH
	DD	0494646H
	DD	0464342H
	DD	0413e3eH
	DD	06c6a6aH
	DD	0878685H
	DD	0828181H
	DD	0818080H
	DD	0908f8fH
	DD	0615e5dH
	DD	0454140H
	DD	0474442H
	DD	0484442H
	DD	0484441H
	DD	049403eH
	DD	0405f61H
	DD	039e0edH
	DD	03ae7f5H
	DD	03ae2efH
	DD	03ae0edH
	DD	03ae0edH
	DD	03ae0edH
	DD	03ae0edH
	DD	03ae0edH
	DD	03ae0edH
	DD	03ae0edH
	DD	03ae0edH
	DD	03ae0edH
	DD	03ae0edH
	DD	03ae0edH
	DD	03ae0edH
	DD	03ae0edH
	DD	03ae0edH
	DD	03ae0edH
	DD	03ae0edH
	DD	03ae0edH
	DD	03ae0edH
	DD	03ae0edH
	DD	03ae0edH
	DD	03ae0edH
	DD	03ae0edH
	DD	03ae0edH
	DD	03ae0edH
	DD	03ae0edH
	DD	03ae0edH
	DD	03ae0edH
	DD	03ae0edH
	DD	03ae0edH
	DD	03ae0edH
	DD	03ae0edH
	DD	03ae0edH
	DD	03ae0edH
	DD	03ae0edH
	DD	03ae0edH
	DD	03ae0edH
	DD	03ae0edH
	DD	03ae0edH
	DD	03ae0edH
	DD	03ae0edH
	DD	03ae0edH
	DD	03ae0edH
	DD	03ae0edH
	DD	03ae0edH
	DD	03ae0edH
	DD	03ae0edH
	DD	03ae0edH
	DD	03ae0edH
	DD	03ae0edH
	DD	03ae0edH
	DD	03ae0edH
	DD	03ae0edH
	DD	03ae0edH
	DD	03ae0edH
	DD	03ae0edH
	DD	03ae0edH
	DD	03ae0edH
	DD	03ae0edH
	DD	03ae0edH
	DD	03ae0edH
	DD	03ae0edH
	DD	03ae0edH
	DD	03ae0edH
	DD	03ae0edH
	DD	03ae0edH
	DD	03ae0edH
	DD	03be4f1H
	DD	030c1ccH
	DD	014072326H
	DD	0d4000000H
	DD	0ffdededeH
	DD	0ffffffffH
	DD	0ffffffffH
	DD	0ffffffffH
	DD	0ffffffffH
	DD	0ffffffffH
	DD	0ffffffffH
	DD	0ffffffffH
	DD	0ffffffffH
	DD	0ffffffffH
	DD	0ffffffffH
	DD	07d7e7e7eH
	DD	033b7c1H
	DD	03fe6f3H
	DD	039dfecH
	DD	03adfecH
	DD	03adfecH
	DD	03adfecH
	DD	03adfecH
	DD	03adfecH
	DD	03adfecH
	DD	03adfecH
	DD	03adfecH
	DD	03adfecH
	DD	03adfecH
	DD	03adfecH
	DD	03adfecH
	DD	03adfecH
	DD	03adfecH
	DD	03adfecH
	DD	03adfecH
	DD	03adfecH
	DD	03adfecH
	DD	03adfecH
	DD	03adfecH
	DD	03adfecH
	DD	037e3f0H
	DD	04cc5cdH
	DD	0808181H
	DD	07e7f80H
	DD	08a8b8aH
	DD	0737272H
	DD	0494747H
	DD	0474545H
	DD	0403e3eH
	DD	05b5959H
	DD	0868584H
	DD	0838181H
	DD	081807fH
	DD	081807fH
	DD	08a8989H
	DD	07f7d7cH
	DD	07f7d7dH
	DD	0797778H
	DD	0858383H
	DD	0848282H
	DD	0838281H
	DD	0828080H
	DD	0838281H
	DD	0848382H
	DD	0848281H
	DD	0858383H
	DD	0848382H
	DD	0828180H
	DD	081807fH
	DD	0858383H
	DD	08b8a8aH
	DD	0626161H
	DD	0605e5dH
	DD	0888787H
	DD	0858383H
	DD	0848383H
	DD	0838283H
	DD	0848382H
	DD	0848382H
	DD	0858384H
	DD	0868585H
	DD	0848382H
	DD	0868585H
	DD	0878686H
	DD	0848483H
	DD	0848383H
	DD	0878686H
	DD	0858584H
	DD	0858484H
	DD	0858584H
	DD	08b8b8aH
	DD	08b8a8aH
	DD	0403d3cH
	DD	03c3938H
	DD	0464443H
	DD	0413f3eH
	DD	03c3a39H
	DD	0676665H
	DD	0898888H
	DD	0818080H
	DD	0807f7fH
	DD	08a8a89H
	DD	062605fH
	DD	0484543H
	DD	04b4746H
	DD	0484443H
	DD	044403fH
	DD	0403a38H
	DD	0383a38H
	DD	0329097H
	DD	036cbd6H
	DD	039e2f0H
	DD	03ae0edH
	DD	03adfecH
	DD	03adfecH
	DD	03adfecH
	DD	03adfecH
	DD	03adfecH
	DD	03adfecH
	DD	03adfecH
	DD	03adfecH
	DD	03adfecH
	DD	03adfecH
	DD	03adfecH
	DD	03adfecH
	DD	03adfecH
	DD	03adfecH
	DD	03adfecH
	DD	03adfecH
	DD	03adfecH
	DD	03adfecH
	DD	03adfecH
	DD	03adfecH
	DD	03adfecH
	DD	03adfecH
	DD	03adfecH
	DD	03adfecH
	DD	03adfecH
	DD	03adfecH
	DD	03adfecH
	DD	03adfecH
	DD	03adfecH
	DD	03adfecH
	DD	03adfecH
	DD	03adfecH
	DD	03adfecH
	DD	03adfecH
	DD	03adfecH
	DD	03adfecH
	DD	03adfecH
	DD	03adfecH
	DD	03adfecH
	DD	03adfecH
	DD	03adfecH
	DD	03adfecH
	DD	03adfecH
	DD	03adfecH
	DD	03adfecH
	DD	03adfecH
	DD	03adfecH
	DD	03adfecH
	DD	03adfecH
	DD	03adfecH
	DD	03adfecH
	DD	03adfecH
	DD	03adfecH
	DD	03adfecH
	DD	03adfecH
	DD	03adfecH
	DD	03adfecH
	DD	03adfecH
	DD	03adfecH
	DD	03adfecH
	DD	03adfecH
	DD	03adfecH
	DD	03adfecH
	DD	03adfecH
	DD	03adfecH
	DD	03be2f0H
	DD	030c1ccH
	DD	014072326H
	DD	0d4000000H
	DD	0ffdededeH
	DD	0ffffffffH
	DD	0ffffffffH
	DD	0ffffffffH
	DD	0ffffffffH
	DD	0ffffffffH
	DD	0ffffffffH
	DD	0ffffffffH
	DD	0ffffffffH
	DD	0ffffffffH
	DD	0ffffffffH
	DD	07d7e7e7eH
	DD	033b6c1H
	DD	03fe6f3H
	DD	039dfecH
	DD	03adfecH
	DD	03adfecH
	DD	03adfecH
	DD	03adfecH
	DD	03adfecH
	DD	03adfecH
	DD	03adfecH
	DD	03adfecH
	DD	03adfecH
	DD	03adfecH
	DD	03adfecH
	DD	03adfecH
	DD	03adfecH
	DD	03adfecH
	DD	03adfecH
	DD	03adfecH
	DD	03adfecH
	DD	03adfecH
	DD	03adfecH
	DD	03adfecH
	DD	03adfecH
	DD	038e2efH
	DD	044cdd7H
	DD	07a8888H
	DD	07d7f7fH
	DD	0888989H
	DD	0787978H
	DD	0494848H
	DD	0464544H
	DD	0403f3eH
	DD	0535251H
	DD	0848282H
	DD	0828180H
	DD	0828180H
	DD	0817f7fH
	DD	08c8a8aH
	DD	07f7d7dH
	DD	082807fH
	DD	0777675H
	DD	0828180H
	DD	0838181H
	DD	0838281H
	DD	0838281H
	DD	0828180H
	DD	0838181H
	DD	0828181H
	DD	0848282H
	DD	0838181H
	DD	0848381H
	DD	07e7d7cH
	DD	0797877H
	DD	05f5c5cH
	DD	0424040H
	DD	0757474H
	DD	0858483H
	DD	0868484H
	DD	0848282H
	DD	0858383H
	DD	0858484H
	DD	0858483H
	DD	0868484H
	DD	0848383H
	DD	0848384H
	DD	0858484H
	DD	0878685H
	DD	0858484H
	DD	0848383H
	DD	0868584H
	DD	0858484H
	DD	0888786H
	DD	0868584H
	DD	08b8b8aH
	DD	0878787H
	DD	03a3838H
	DD	03a3837H
	DD	0413f3eH
	DD	03f3d3cH
	DD	03b3938H
	DD	0656463H
	DD	0929192H
	DD	08e8e8dH
	DD	091908fH
	DD	09e9e9dH
	DD	07a7877H
	DD	035302fH
	DD	035302eH
	DD	03a3532H
	DD	03c3432H
	DD	03b3431H
	DD	0332b27H
	DD	0312420H
	DD	0343e3dH
	DD	036878dH
	DD	039ddeaH
	DD	03ae0edH
	DD	03adfecH
	DD	03adfecH
	DD	03adfecH
	DD	03adfecH
	DD	03adfecH
	DD	03adfecH
	DD	03adfecH
	DD	03adfecH
	DD	03adfecH
	DD	03adfecH
	DD	03adfecH
	DD	03adfecH
	DD	03adfecH
	DD	03adfecH
	DD	03adfecH
	DD	03adfecH
	DD	03adfecH
	DD	03adfecH
	DD	03adfecH
	DD	03adfecH
	DD	03adfecH
	DD	03adfecH
	DD	03adfecH
	DD	03adfecH
	DD	03adfecH
	DD	03adfecH
	DD	03adfecH
	DD	03adfecH
	DD	03adfecH
	DD	03adfecH
	DD	03adfecH
	DD	03adfecH
	DD	03adfecH
	DD	03adfecH
	DD	03adfecH
	DD	03adfecH
	DD	03adfecH
	DD	03adfecH
	DD	03adfecH
	DD	03adfecH
	DD	03adfecH
	DD	03adfecH
	DD	03adfecH
	DD	03adfecH
	DD	03adfecH
	DD	03adfecH
	DD	03adfecH
	DD	03adfecH
	DD	03adfecH
	DD	03adfecH
	DD	03adfecH
	DD	03adfecH
	DD	03adfecH
	DD	03adfecH
	DD	03adfecH
	DD	03adfecH
	DD	03adfecH
	DD	03adfecH
	DD	03adfecH
	DD	03adfecH
	DD	03adfecH
	DD	03adfecH
	DD	03adfecH
	DD	03adfecH
	DD	03be3f0H
	DD	030c0ccH
	DD	014072326H
	DD	0d4000000H
	DD	0ffdededeH
	DD	0ffffffffH
	DD	0ffffffffH
	DD	0ffffffffH
	DD	0ffffffffH
	DD	0ffffffffH
	DD	0ffffffffH
	DD	0ffffffffH
	DD	0ffffffffH
	DD	0ffffffffH
	DD	0ffffffffH
	DD	07d7e7e7eH
	DD	033b6c1H
	DD	03fe6f3H
	DD	039dfecH
	DD	03adfecH
	DD	03adfecH
	DD	03adfecH
	DD	03adfecH
	DD	03adfecH
	DD	03adfecH
	DD	03adfecH
	DD	03adfecH
	DD	03adfecH
	DD	03adfecH
	DD	03adfecH
	DD	03adfecH
	DD	03adfecH
	DD	03adfecH
	DD	03adfecH
	DD	03adfecH
	DD	03adfecH
	DD	03adfecH
	DD	03adfecH
	DD	03adfecH
	DD	03adfecH
	DD	035e5f2H
	DD	045cdd8H
	DD	079898aH
	DD	07d8182H
	DD	0858889H
	DD	0808281H
	DD	0484948H
	DD	0444343H
	DD	03f3e3dH
	DD	0464544H
	DD	07e7d7cH
	DD	0838282H
	DD	0828181H
	DD	07f7e7dH
	DD	08d8b8aH
	DD	0868483H
	DD	082807fH
	DD	0797877H
	DD	0807f7fH
	DD	0828080H
	DD	0828181H
	DD	0838281H
	DD	0828281H
	DD	0838282H
	DD	0828080H
	DD	0828180H
	DD	0828180H
	DD	0848282H
	DD	0838281H
	DD	07c7a7aH
	DD	0706e6eH
	DD	07b7a7aH
	DD	0848382H
	DD	0848282H
	DD	0848382H
	DD	0858483H
	DD	0858484H
	DD	0868584H
	DD	0868584H
	DD	0868684H
	DD	0878585H
	DD	0868485H
	DD	0868585H
	DD	0878686H
	DD	0858382H
	DD	0848382H
	DD	0878686H
	DD	0878586H
	DD	0878786H
	DD	0888787H
	DD	08f8e8eH
	DD	07f7f7eH
	DD	0343231H
	DD	03b3938H
	DD	0413f3eH
	DD	03f3d3cH
	DD	03b3938H
	DD	0686665H
	DD	0939292H
	DD	0919190H
	DD	0939392H
	DD	09f9f9eH
	DD	0c9c8c8H
	DD	0948f8dH
	DD	0605956H
	DD	03e3633H
	DD	03d3633H
	DD	03c3634H
	DD	03d3837H
	DD	044403fH
	DD	04c3f3dH
	DD	0476161H
	DD	039d7e3H
	DD	03ae1eeH
	DD	03adfecH
	DD	03adfecH
	DD	03adfecH
	DD	03adfecH
	DD	03adfecH
	DD	03adfecH
	DD	03adfecH
	DD	03adfecH
	DD	03adfecH
	DD	03adfecH
	DD	03adfecH
	DD	03adfecH
	DD	03adfecH
	DD	03adfecH
	DD	03adfecH
	DD	03adfecH
	DD	03adfecH
	DD	03adfecH
	DD	03adfecH
	DD	03adfecH
	DD	03adfecH
	DD	03adfecH
	DD	03adfecH
	DD	03adfecH
	DD	03adfecH
	DD	03adfecH
	DD	03adfecH
	DD	03adfecH
	DD	03adfecH
	DD	03adfecH
	DD	03adfecH
	DD	03adfecH
	DD	03adfecH
	DD	03adfecH
	DD	03adfecH
	DD	03adfecH
	DD	03adfecH
	DD	03adfecH
	DD	03adfecH
	DD	03adfecH
	DD	03adfecH
	DD	03adfecH
	DD	03adfecH
	DD	03adfecH
	DD	03adfecH
	DD	03adfecH
	DD	03adfecH
	DD	03adfecH
	DD	03adfecH
	DD	03adfecH
	DD	03adfecH
	DD	03adfecH
	DD	03adfecH
	DD	03adfecH
	DD	03adfecH
	DD	03adfecH
	DD	03adfecH
	DD	03adfecH
	DD	03adfecH
	DD	03adfecH
	DD	03adfecH
	DD	03adfecH
	DD	03adfecH
	DD	03adfecH
	DD	03be3f0H
	DD	030c0ccH
	DD	014072326H
	DD	0d4000000H
	DD	0ffdededeH
	DD	0ffffffffH
	DD	0ffffffffH
	DD	0ffffffffH
	DD	0ffffffffH
	DD	0ffffffffH
	DD	0ffffffffH
	DD	0ffffffffH
	DD	0ffffffffH
	DD	0ffffffffH
	DD	0ffffffffH
	DD	07d7e7e7eH
	DD	034b6c1H
	DD	03fe6f3H
	DD	039dfecH
	DD	03adfecH
	DD	03adfecH
	DD	03adfecH
	DD	03adfecH
	DD	03adfecH
	DD	03adfecH
	DD	03adfecH
	DD	03adfecH
	DD	03adfecH
	DD	03adfecH
	DD	03adfecH
	DD	03adfecH
	DD	03adfecH
	DD	03adfecH
	DD	03adfecH
	DD	03adfecH
	DD	03adfecH
	DD	03adfecH
	DD	03adfecH
	DD	03adfecH
	DD	039dfecH
	DD	056c3cbH
	DD	0789ea1H
	DD	07b8686H
	DD	07b8484H
	DD	0808483H
	DD	08a8b8aH
	DD	04d4c4cH
	DD	0414040H
	DD	03f3d3dH
	DD	03d3c3bH
	DD	0727170H
	DD	0848382H
	DD	082807fH
	DD	081807fH
	DD	0868584H
	DD	0888887H
	DD	07e7d7cH
	DD	07c7a7aH
	DD	07c7b7aH
	DD	0828281H
	DD	0828181H
	DD	0838383H
	DD	0848383H
	DD	0838282H
	DD	0838282H
	DD	0838382H
	DD	0848383H
	DD	0838282H
	DD	0838181H
	DD	0848382H
	DD	0868485H
	DD	0868585H
	DD	0858483H
	DD	0848483H
	DD	0848382H
	DD	0858483H
	DD	0868484H
	DD	0868584H
	DD	0858483H
	DD	0868585H
	DD	0878685H
	DD	0868584H
	DD	0868584H
	DD	0858384H
	DD	0848282H
	DD	0858483H
	DD	0868584H
	DD	0888787H
	DD	0898888H
	DD	0898888H
	DD	08e8e8eH
	DD	0787777H
	DD	0333130H
	DD	03d3b3aH
	DD	0403e3eH
	DD	03f3d3cH
	DD	03c3a38H
	DD	06c6a6aH
	DD	0929291H
	DD	08f8e8eH
	DD	0919090H
	DD	0939292H
	DD	0969595H
	DD	0a6a6a6H
	DD	0c9c8c7H
	DD	0858282H
	DD	0413d3cH
	DD	0514d4bH
	DD	0575352H
	DD	05b5656H
	DD	05d5351H
	DD	04b7b7fH
	DD	038dce9H
	DD	03ae0eeH
	DD	03adfecH
	DD	03adfecH
	DD	03adfecH
	DD	03adfecH
	DD	03adfecH
	DD	03adfecH
	DD	03adfecH
	DD	03adfecH
	DD	03adfecH
	DD	03adfecH
	DD	03adfecH
	DD	03adfecH
	DD	03adfecH
	DD	03adfecH
	DD	03adfecH
	DD	03adfecH
	DD	03adfecH
	DD	03adfecH
	DD	03adfecH
	DD	03adfecH
	DD	03adfecH
	DD	03adfecH
	DD	03adfecH
	DD	03adfecH
	DD	03adfecH
	DD	03adfecH
	DD	03adfecH
	DD	03adfecH
	DD	03adfecH
	DD	03adfecH
	DD	03adfecH
	DD	03adfecH
	DD	03adfecH
	DD	03adfecH
	DD	03adfecH
	DD	03adfecH
	DD	03adfecH
	DD	03adfecH
	DD	03adfecH
	DD	03adfecH
	DD	03adfecH
	DD	03adfecH
	DD	03adfecH
	DD	03adfecH
	DD	03adfecH
	DD	03adfecH
	DD	03adfecH
	DD	03adfecH
	DD	03adfecH
	DD	03adfecH
	DD	03adfecH
	DD	03adfecH
	DD	03adfecH
	DD	03adfecH
	DD	03adfecH
	DD	03adfecH
	DD	03adfecH
	DD	03adfecH
	DD	03adfecH
	DD	03adfecH
	DD	03adfecH
	DD	03adfecH
	DD	03adfecH
	DD	03adfecH
	DD	03be3f0H
	DD	030c0ccH
	DD	014072326H
	DD	0d4000000H
	DD	0ffdededeH
	DD	0ffffffffH
	DD	0ffffffffH
	DD	0ffffffffH
	DD	0ffffffffH
	DD	0ffffffffH
	DD	0ffffffffH
	DD	0ffffffffH
	DD	0ffffffffH
	DD	0ffffffffH
	DD	0ffffffffH
	DD	07d7e7e7eH
	DD	037b8c1H
	DD	042e7f3H
	DD	03be0ecH
	DD	03ce0ecH
	DD	03ce0ecH
	DD	03ce0ecH
	DD	03ce0ecH
	DD	03ce0ecH
	DD	03ce0ecH
	DD	03ce0ecH
	DD	03ce0ecH
	DD	03ce0ecH
	DD	03ce0ecH
	DD	03ce0ecH
	DD	03ce0ecH
	DD	03ce0ecH
	DD	03ce0ecH
	DD	03ce0ecH
	DD	03ce0ecH
	DD	03ce0ecH
	DD	03ce0ecH
	DD	03ce0ecH
	DD	03ce1edH
	DD	03ddde9H
	DD	06f9ea1H
	DD	07b8788H
	DD	0788788H
	DD	07b8485H
	DD	07c8080H
	DD	08f9191H
	DD	05a5a5aH
	DD	0414040H
	DD	040403fH
	DD	03a3939H
	DD	0656463H
	DD	0858484H
	DD	0807f7eH
	DD	0807f7eH
	DD	0818080H
	DD	08a8a89H
	DD	0737271H
	DD	07c7a7aH
	DD	0777675H
	DD	0848383H
	DD	0848383H
	DD	0838281H
	DD	0818180H
	DD	0828282H
	DD	0828281H
	DD	0838282H
	DD	0828181H
	DD	0838282H
	DD	0828180H
	DD	0818080H
	DD	0838181H
	DD	0848382H
	DD	0838281H
	DD	0838282H
	DD	0858383H
	DD	0858484H
	DD	0848383H
	DD	0848383H
	DD	0858383H
	DD	0878686H
	DD	0878685H
	DD	0848382H
	DD	0868584H
	DD	0858383H
	DD	0828180H
	DD	0848383H
	DD	0868585H
	DD	0868585H
	DD	0878585H
	DD	0888887H
	DD	08f8f8eH
	DD	0757473H
	DD	0353231H
	DD	03f3d3cH
	DD	0413f3eH
	DD	03e3c3bH
	DD	0393737H
	DD	0706f6eH
	DD	0929191H
	DD	08e8d8dH
	DD	0919090H
	DD	0949393H
	DD	0949393H
	DD	0908f8fH
	DD	0b5b5b4H
	DD	09e9c9cH
	DD	0555251H
	DD	05d5a58H
	DD	05c5857H
	DD	05b5756H
	DD	05c504eH
	DD	047868bH
	DD	03ae2eeH
	DD	03ce1edH
	DD	03ce0ecH
	DD	03ce0ecH
	DD	03ce0ecH
	DD	03ce0ecH
	DD	03ce0ecH
	DD	03ce0ecH
	DD	03ce0ecH
	DD	03ce0ecH
	DD	03ce0ecH
	DD	03ce0ecH
	DD	03ce0ecH
	DD	03ce0ecH
	DD	03ce0ecH
	DD	03ce0ecH
	DD	03ce0ecH
	DD	03ce0ecH
	DD	03ce0ecH
	DD	03ce0ecH
	DD	03ce0ecH
	DD	03ce0ecH
	DD	03ce0ecH
	DD	03ce0ecH
	DD	03ce0ecH
	DD	03ce0ecH
	DD	03ce0ecH
	DD	03ce0ecH
	DD	03ce0ecH
	DD	03ce0ecH
	DD	03ce0ecH
	DD	03ce0ecH
	DD	03ce0ecH
	DD	03ce0ecH
	DD	03ce0ecH
	DD	03ce0ecH
	DD	03ce0ecH
	DD	03ce0ecH
	DD	03ce0ecH
	DD	03ce0ecH
	DD	03ce0ecH
	DD	03ce0ecH
	DD	03ce0ecH
	DD	03ce0ecH
	DD	03ce0ecH
	DD	03ce0ecH
	DD	03ce0ecH
	DD	03ce0ecH
	DD	03ce0ecH
	DD	03ce0ecH
	DD	03ce0ecH
	DD	03ce0ecH
	DD	03ce0ecH
	DD	03ce0ecH
	DD	03ce0ecH
	DD	03ce0ecH
	DD	03ce0ecH
	DD	03ce0ecH
	DD	03ce0ecH
	DD	03ce0ecH
	DD	03ce0ecH
	DD	03ce0ecH
	DD	03ce0ecH
	DD	03ce0ecH
	DD	03ce0ecH
	DD	03ce0ecH
	DD	03de3f0H
	DD	032c2ccH
	DD	014072426H
	DD	0d4000000H
	DD	0ffdededeH
	DD	0ffffffffH
	DD	0ffffffffH
	DD	0ffffffffH
	DD	0ffffffffH
	DD	0ffffffffH
	DD	0ffffffffH
	DD	0ffffffffH
	DD	0ffffffffH
	DD	0ffffffffH
	DD	0ffffffffH
	DD	07d7e7e7eH
	DD	03cbac1H
	DD	046ebf3H
	DD	03fe4ecH
	DD	040e4ecH
	DD	040e4ecH
	DD	040e4ecH
	DD	040e4ecH
	DD	040e4ecH
	DD	040e4ecH
	DD	040e4ecH
	DD	040e4ecH
	DD	040e4ecH
	DD	040e4ecH
	DD	040e4ecH
	DD	040e4ecH
	DD	040e4ecH
	DD	040e4ecH
	DD	040e4ecH
	DD	040e4ecH
	DD	040e4ecH
	DD	040e4ecH
	DD	040e4ecH
	DD	040e4ecH
	DD	03fe6eeH
	DD	060afb3H
	DD	0778989H
	DD	078888aH
	DD	07a8585H
	DD	07a7f7fH
	DD	08d908fH
	DD	0696b6bH
	DD	0424141H
	DD	0424141H
	DD	03a3a39H
	DD	0565655H
	DD	0858484H
	DD	0807f7eH
	DD	0807f7eH
	DD	07f7f7eH
	DD	08a8988H
	DD	0767574H
	DD	07c7a7aH
	DD	0777675H
	DD	080807fH
	DD	0828180H
	DD	0817f7fH
	DD	0828281H
	DD	0818181H
	DD	0818180H
	DD	0838281H
	DD	0818081H
	DD	0838282H
	DD	0828181H
	DD	0828181H
	DD	0848383H
	DD	0838282H
	DD	0848483H
	DD	0838282H
	DD	0838282H
	DD	0858484H
	DD	0848383H
	DD	0838282H
	DD	0858484H
	DD	0888786H
	DD	0848382H
	DD	0838282H
	DD	0848383H
	DD	0838281H
	DD	0828180H
	DD	0868585H
	DD	0888787H
	DD	0848383H
	DD	0848383H
	DD	0858483H
	DD	090908fH
	DD	06d6b6bH
	DD	034312fH
	DD	03f3c3bH
	DD	0393636H
	DD	0312e2eH
	DD	0312f2eH
	DD	0737272H
	DD	0919090H
	DD	08d8c8cH
	DD	0908f8fH
	DD	0979695H
	DD	0989796H
	DD	0969594H
	DD	0bdbcbbH
	DD	092908fH
	DD	0555150H
	DD	05b5856H
	DD	05b5756H
	DD	05b5756H
	DD	05d4d4bH
	DD	0498e91H
	DD	03ee7f0H
	DD	040e5edH
	DD	040e4ecH
	DD	040e4ecH
	DD	040e4ecH
	DD	040e4ecH
	DD	040e4ecH
	DD	040e4ecH
	DD	040e4ecH
	DD	040e4ecH
	DD	040e4ecH
	DD	040e4ecH
	DD	040e4ecH
	DD	040e4ecH
	DD	040e4ecH
	DD	040e4ecH
	DD	040e4ecH
	DD	040e4ecH
	DD	040e4ecH
	DD	040e4ecH
	DD	040e4ecH
	DD	040e4ecH
	DD	040e4ecH
	DD	040e4ecH
	DD	040e4ecH
	DD	040e4ecH
	DD	040e4ecH
	DD	040e4ecH
	DD	040e4ecH
	DD	040e4ecH
	DD	040e4ecH
	DD	040e4ecH
	DD	040e4ecH
	DD	040e4ecH
	DD	040e4ecH
	DD	040e4ecH
	DD	040e4ecH
	DD	040e4ecH
	DD	040e4ecH
	DD	040e4ecH
	DD	040e4ecH
	DD	040e4ecH
	DD	040e4ecH
	DD	040e4ecH
	DD	040e4ecH
	DD	040e4ecH
	DD	040e4ecH
	DD	040e4ecH
	DD	040e4ecH
	DD	040e4ecH
	DD	040e4ecH
	DD	040e4ecH
	DD	040e4ecH
	DD	040e4ecH
	DD	040e4ecH
	DD	040e4ecH
	DD	040e4ecH
	DD	040e4ecH
	DD	040e4ecH
	DD	040e4ecH
	DD	040e4ecH
	DD	040e4ecH
	DD	040e4ecH
	DD	040e4ecH
	DD	040e4ecH
	DD	040e4ecH
	DD	041e8f0H
	DD	035c5ccH
	DD	014082426H
	DD	0d4000000H
	DD	0ffdededeH
	DD	0ffffffffH
	DD	0ffffffffH
	DD	0ffffffffH
	DD	0ffffffffH
	DD	0ffffffffH
	DD	0ffffffffH
	DD	0ffffffffH
	DD	0ffffffffH
	DD	0ffffffffH
	DD	0ffffffffH
	DD	07d7e7e7eH
	DD	042bec2H
	DD	04df0f4H
	DD	045e9edH
	DD	046e9edH
	DD	046e9edH
	DD	046e9edH
	DD	046e9edH
	DD	046e9edH
	DD	046e9edH
	DD	046e9edH
	DD	046e9edH
	DD	046e9edH
	DD	046e9edH
	DD	046e9edH
	DD	046e9edH
	DD	046e9edH
	DD	046e9edH
	DD	046e9edH
	DD	046e9edH
	DD	046e9edH
	DD	046e9edH
	DD	046e9edH
	DD	046e9edH
	DD	044edf1H
	DD	059c6c9H
	DD	0768c8cH
	DD	0788b8aH
	DD	07a8786H
	DD	07b8282H
	DD	0878989H
	DD	0797b7bH
	DD	0414242H
	DD	0403f3fH
	DD	0393939H
	DD	0414141H
	DD	07d7c7bH
	DD	0828180H
	DD	0807e7dH
	DD	0807f7eH
	DD	0848382H
	DD	0818080H
	DD	0706e6dH
	DD	07a7a79H
	DD	07b7a79H
	DD	0828181H
	DD	081807fH
	DD	0828080H
	DD	0808080H
	DD	0828281H
	DD	0838281H
	DD	0828181H
	DD	0818080H
	DD	0848282H
	DD	0838282H
	DD	0838382H
	DD	0848483H
	DD	0848483H
	DD	0828282H
	DD	0838281H
	DD	0838282H
	DD	0858484H
	DD	0858483H
	DD	0838281H
	DD	0838282H
	DD	0838282H
	DD	0848383H
	DD	0858484H
	DD	0848382H
	DD	0848382H
	DD	0878685H
	DD	0868585H
	DD	0858483H
	DD	0868585H
	DD	0888787H
	DD	08e8d8dH
	DD	0545252H
	DD	0343130H
	DD	03b3837H
	DD	02e2b2aH
	DD	0282524H
	DD	02f2c2cH
	DD	07c7b7bH
	DD	08f8f8eH
	DD	08e8d8dH
	DD	091908fH
	DD	0939290H
	DD	0979696H
	DD	0949392H
	DD	0bebcbdH
	DD	0878483H
	DD	0565251H
	DD	05d5958H
	DD	05b5352H
	DD	0584b4aH
	DD	052504fH
	DD	047abaeH
	DD	045eef3H
	DD	046e9edH
	DD	046e9edH
	DD	046e9edH
	DD	046e9edH
	DD	046e9edH
	DD	046e9edH
	DD	046e9edH
	DD	046e9edH
	DD	046e9edH
	DD	046e9edH
	DD	046e9edH
	DD	046e9edH
	DD	046e9edH
	DD	046e9edH
	DD	046e9edH
	DD	046e9edH
	DD	046e9edH
	DD	046e9edH
	DD	046e9edH
	DD	046e9edH
	DD	046e9edH
	DD	046e9edH
	DD	046e9edH
	DD	046e9edH
	DD	046e9edH
	DD	046e9edH
	DD	046e9edH
	DD	046e9edH
	DD	046e9edH
	DD	046e9edH
	DD	046e9edH
	DD	046e9edH
	DD	046e9edH
	DD	046e9edH
	DD	046e9edH
	DD	046e9edH
	DD	046e9edH
	DD	046e9edH
	DD	046e9edH
	DD	046e9edH
	DD	046e9edH
	DD	046e9edH
	DD	046e9edH
	DD	046e9edH
	DD	046e9edH
	DD	046e9edH
	DD	046e9edH
	DD	046e9edH
	DD	046e9edH
	DD	046e9edH
	DD	046e9edH
	DD	046e9edH
	DD	046e9edH
	DD	046e9edH
	DD	046e9edH
	DD	046e9edH
	DD	046e9edH
	DD	046e9edH
	DD	046e9edH
	DD	046e9edH
	DD	046e9edH
	DD	046e9edH
	DD	046e9edH
	DD	046e9edH
	DD	046e9edH
	DD	047edf1H
	DD	03bc9cdH
	DD	014092526H
	DD	0d4000000H
	DD	0ffdededeH
	DD	0ffffffffH
	DD	0ffffffffH
	DD	0ffffffffH
	DD	0ffffffffH
	DD	0ffffffffH
	DD	0ffffffffH
	DD	0ffffffffH
	DD	0ffffffffH
	DD	0ffffffffH
	DD	0ffffffffH
	DD	07d7e7e7eH
	DD	047c2c3H
	DD	053f5f6H
	DD	04beeefH
	DD	04ceeefH
	DD	04ceeefH
	DD	04ceeefH
	DD	04ceeefH
	DD	04ceeefH
	DD	04ceeefH
	DD	04ceeefH
	DD	04ceeefH
	DD	04ceeefH
	DD	04ceeefH
	DD	04ceeefH
	DD	04ceeefH
	DD	04ceeefH
	DD	04ceeefH
	DD	04ceeefH
	DD	04ceeefH
	DD	04ceeefH
	DD	04ceeefH
	DD	04ceeefH
	DD	04ceeefH
	DD	04af2f3H
	DD	056d9dbH
	DD	0748b8dH
	DD	0788282H
	DD	07c8483H
	DD	07c8483H
	DD	0808382H
	DD	0878989H
	DD	0424242H
	DD	0383838H
	DD	0353535H
	DD	0313030H
	DD	0686766H
	DD	0858584H
	DD	07f7e7eH
	DD	0807f7eH
	DD	07f7e7dH
	DD	08b8a8aH
	DD	062615fH
	DD	0757574H
	DD	0787776H
	DD	0807f7fH
	DD	0818080H
	DD	0828280H
	DD	0818080H
	DD	07f7f7eH
	DD	0828180H
	DD	0828180H
	DD	0818280H
	DD	0838382H
	DD	0838282H
	DD	0828181H
	DD	0838282H
	DD	0828181H
	DD	0818180H
	DD	0838382H
	DD	0838282H
	DD	0848383H
	DD	0858484H
	DD	0838282H
	DD	0838282H
	DD	0848382H
	DD	0838282H
	DD	0838282H
	DD	0828181H
	DD	0868585H
	DD	0858484H
	DD	0858484H
	DD	0848383H
	DD	0848382H
	DD	0878686H
	DD	0888787H
	DD	03e3c3cH
	DD	0353332H
	DD	0403e3dH
	DD	03f3c3cH
	DD	032302eH
	DD	0373432H
	DD	0858384H
	DD	08e8e8eH
	DD	08c8c8cH
	DD	08f8e8eH
	DD	090908fH
	DD	09b9b9aH
	DD	0999898H
	DD	0c2c1c1H
	DD	07f7c7bH
	DD	0514c4bH
	DD	0514d4dH
	DD	04b6b6aH
	DD	0489898H
	DD	048c7c8H
	DD	04bededH
	DD	04ceff0H
	DD	04ceeefH
	DD	04ceeefH
	DD	04ceeefH
	DD	04ceeefH
	DD	04ceeefH
	DD	04ceeefH
	DD	04ceeefH
	DD	04ceeefH
	DD	04ceeefH
	DD	04ceeefH
	DD	04ceeefH
	DD	04ceeefH
	DD	04ceeefH
	DD	04ceeefH
	DD	04ceeefH
	DD	04ceeefH
	DD	04ceeefH
	DD	04ceeefH
	DD	04ceeefH
	DD	04ceeefH
	DD	04ceeefH
	DD	04ceeefH
	DD	04ceeefH
	DD	04ceeefH
	DD	04ceeefH
	DD	04ceeefH
	DD	04ceeefH
	DD	04ceeefH
	DD	04ceeefH
	DD	04ceeefH
	DD	04ceeefH
	DD	04ceeefH
	DD	04ceeefH
	DD	04ceeefH
	DD	04ceeefH
	DD	04ceeefH
	DD	04ceeefH
	DD	04ceeefH
	DD	04ceeefH
	DD	04ceeefH
	DD	04ceeefH
	DD	04ceeefH
	DD	04ceeefH
	DD	04ceeefH
	DD	04ceeefH
	DD	04ceeefH
	DD	04ceeefH
	DD	04ceeefH
	DD	04ceeefH
	DD	04ceeefH
	DD	04ceeefH
	DD	04ceeefH
	DD	04ceeefH
	DD	04ceeefH
	DD	04ceeefH
	DD	04ceeefH
	DD	04ceeefH
	DD	04ceeefH
	DD	04ceeefH
	DD	04ceeefH
	DD	04ceeefH
	DD	04ceeefH
	DD	04ceeefH
	DD	04ceeefH
	DD	04ceeefH
	DD	04df2f3H
	DD	040cdcfH
	DD	0140a2626H
	DD	0d4000000H
	DD	0ffdededeH
	DD	0ffffffffH
	DD	0ffffffffH
	DD	0ffffffffH
	DD	0ffffffffH
	DD	0ffffffffH
	DD	0ffffffffH
	DD	0ffffffffH
	DD	0ffffffffH
	DD	0ffffffffH
	DD	0ffffffffH
	DD	07d7e7e7eH
	DD	04cc5c4H
	DD	057faf7H
	DD	04ff3f0H
	DD	050f3f0H
	DD	050f3f0H
	DD	050f3f0H
	DD	050f3f0H
	DD	050f3f0H
	DD	050f3f0H
	DD	050f3f0H
	DD	050f3f0H
	DD	050f3f0H
	DD	050f3f0H
	DD	050f3f0H
	DD	050f3f0H
	DD	050f3f0H
	DD	050f3f0H
	DD	050f3f0H
	DD	050f3f0H
	DD	050f3f0H
	DD	050f3f0H
	DD	050f3f0H
	DD	050f3f0H
	DD	04ff4f1H
	DD	052eeecH
	DD	061b8b7H
	DD	061abaaH
	DD	0739493H
	DD	07e8281H
	DD	07c7f7fH
	DD	0919191H
	DD	0535353H
	DD	0323232H
	DD	0353434H
	DD	02d2c2cH
	DD	04d4d4cH
	DD	0858484H
	DD	081807fH
	DD	07f7f7eH
	DD	0807e7eH
	DD	0858583H
	DD	0777675H
	DD	061605fH
	DD	07b7978H
	DD	0787877H
	DD	0818080H
	DD	0828181H
	DD	0818181H
	DD	080807fH
	DD	0828281H
	DD	0818080H
	DD	0818181H
	DD	0808080H
	DD	0818180H
	DD	0818180H
	DD	0838382H
	DD	0818180H
	DD	0828181H
	DD	0828181H
	DD	0828181H
	DD	0848383H
	DD	0848383H
	DD	0838281H
	DD	0838281H
	DD	0848382H
	DD	0848383H
	DD	0817f7fH
	DD	0807f7eH
	DD	0858483H
	DD	0858484H
	DD	0868585H
	DD	0878585H
	DD	0838282H
	DD	08b8a8aH
	DD	07b7979H
	DD	0302e2dH
	DD	0322f2eH
	DD	0363333H
	DD	0353332H
	DD	0312f2eH
	DD	0474444H
	DD	08e8c8cH
	DD	08b8a8aH
	DD	08b8989H
	DD	0908e8eH
	DD	0949393H
	DD	0838282H
	DD	0898787H
	DD	0959393H
	DD	0545251H
	DD	0423a39H
	DD	0495e5dH
	DD	04de2e0H
	DD	050fbf9H
	DD	051f9f7H
	DD	050f4f1H
	DD	050f3f0H
	DD	050f3f0H
	DD	050f3f0H
	DD	050f3f0H
	DD	050f3f0H
	DD	050f3f0H
	DD	050f3f0H
	DD	050f3f0H
	DD	050f3f0H
	DD	050f3f0H
	DD	050f3f0H
	DD	050f3f0H
	DD	050f3f0H
	DD	050f3f0H
	DD	050f3f0H
	DD	050f3f0H
	DD	050f3f0H
	DD	050f3f0H
	DD	050f3f0H
	DD	050f3f0H
	DD	050f3f0H
	DD	050f3f0H
	DD	050f3f0H
	DD	050f3f0H
	DD	050f3f0H
	DD	050f3f0H
	DD	050f3f0H
	DD	050f3f0H
	DD	050f3f0H
	DD	050f3f0H
	DD	050f3f0H
	DD	050f3f0H
	DD	050f3f0H
	DD	050f3f0H
	DD	050f3f0H
	DD	050f3f0H
	DD	050f3f0H
	DD	050f3f0H
	DD	050f3f0H
	DD	050f3f0H
	DD	050f3f0H
	DD	050f3f0H
	DD	050f3f0H
	DD	050f3f0H
	DD	050f3f0H
	DD	050f3f0H
	DD	050f3f0H
	DD	050f3f0H
	DD	050f3f0H
	DD	050f3f0H
	DD	050f3f0H
	DD	050f3f0H
	DD	050f3f0H
	DD	050f3f0H
	DD	050f3f0H
	DD	050f3f0H
	DD	050f3f0H
	DD	050f3f0H
	DD	050f3f0H
	DD	050f3f0H
	DD	050f3f0H
	DD	050f3f0H
	DD	050f3f0H
	DD	050f3f0H
	DD	050f3f0H
	DD	050f3f0H
	DD	051f7f4H
	DD	044d1cfH
	DD	0140b2726H
	DD	0d4000000H
	DD	0ffdededeH
	DD	0ffffffffH
	DD	0ffffffffH
	DD	0ffffffffH
	DD	0ffffffffH
	DD	0ffffffffH
	DD	0ffffffffH
	DD	0ffffffffH
	DD	0ffffffffH
	DD	0ffffffffH
	DD	0ffffffffH
	DD	07d7e7e7eH
	DD	049c9c5H
	DD	055fef9H
	DD	04df7f2H
	DD	04ef7f2H
	DD	04ef7f2H
	DD	04ef7f2H
	DD	04ef7f2H
	DD	04ef7f2H
	DD	04ef7f2H
	DD	04ef7f2H
	DD	04ef7f2H
	DD	04ef7f2H
	DD	04ef7f2H
	DD	04ef7f2H
	DD	04ef7f2H
	DD	04ef7f2H
	DD	04ef7f2H
	DD	04ef7f2H
	DD	04ef7f2H
	DD	04ef7f2H
	DD	04ef7f2H
	DD	04ef7f2H
	DD	04ef7f2H
	DD	04ef7f2H
	DD	04ef8f3H
	DD	04df9f4H
	DD	04afdf8H
	DD	05fceccH
	DD	07e8080H
	DD	07b7d7dH
	DD	0898989H
	DD	0737473H
	DD	0303030H
	DD	0353534H
	DD	030302fH
	DD	0363534H
	DD	0767574H
	DD	0818080H
	DD	07e7d7dH
	DD	07f7d7dH
	DD	0807e7dH
	DD	08c8b8bH
	DD	0636161H
	DD	06e6c6bH
	DD	0787776H
	DD	07d7d7cH
	DD	0807f7fH
	DD	0818180H
	DD	081807fH
	DD	0818080H
	DD	0818181H
	DD	0807f7fH
	DD	0818080H
	DD	0828181H
	DD	0818080H
	DD	0818180H
	DD	0818180H
	DD	0828181H
	DD	0818180H
	DD	0838282H
	DD	0828180H
	DD	0828181H
	DD	0848382H
	DD	0838281H
	DD	0858483H
	DD	0848383H
	DD	0807f7eH
	DD	0828180H
	DD	0858483H
	DD	0858483H
	DD	0868584H
	DD	0868484H
	DD	0848382H
	DD	08c8b8aH
	DD	0626261H
	DD	02a2827H
	DD	0343130H
	DD	02c2928H
	DD	0272523H
	DD	01f1b1aH
	DD	0565353H
	DD	09a9998H
	DD	08a8988H
	DD	08b8a89H
	DD	0949394H
	DD	0757474H
	DD	02d2a29H
	DD	0363232H
	DD	0353231H
	DD	0383533H
	DD	04c4241H
	DD	04c908dH
	DD	04efdf9H
	DD	04ef8f4H
	DD	04ef7f2H
	DD	04ef7f2H
	DD	04ef7f2H
	DD	04ef7f2H
	DD	04ef7f2H
	DD	04ef7f2H
	DD	04ef7f2H
	DD	04ef7f2H
	DD	04ef7f2H
	DD	04ef7f2H
	DD	04ef7f2H
	DD	04ef7f2H
	DD	04ef7f2H
	DD	04ef7f2H
	DD	04ef7f2H
	DD	04ef7f2H
	DD	04ef7f2H
	DD	04ef7f2H
	DD	04ef7f2H
	DD	04ef7f2H
	DD	04ef7f2H
	DD	04ef7f2H
	DD	04ef7f2H
	DD	04ef7f2H
	DD	04ef7f2H
	DD	04ef7f2H
	DD	04ef7f2H
	DD	04ef7f2H
	DD	04ef7f2H
	DD	04ef7f2H
	DD	04ef7f2H
	DD	04ef7f2H
	DD	04ef7f2H
	DD	04ef7f2H
	DD	04ef7f2H
	DD	04ef7f2H
	DD	04ef7f2H
	DD	04ef7f2H
	DD	04ef7f2H
	DD	04ef7f2H
	DD	04ef7f2H
	DD	04ef7f2H
	DD	04ef7f2H
	DD	04ef7f2H
	DD	04ef7f2H
	DD	04ef7f2H
	DD	04ef7f2H
	DD	04ef7f2H
	DD	04ef7f2H
	DD	04ef7f2H
	DD	04ef7f2H
	DD	04ef7f2H
	DD	04ef7f2H
	DD	04ef7f2H
	DD	04ef7f2H
	DD	04ef7f2H
	DD	04ef7f2H
	DD	04ef7f2H
	DD	04ef7f2H
	DD	04ef7f2H
	DD	04ef7f2H
	DD	04ef7f2H
	DD	04ef7f2H
	DD	04ef7f2H
	DD	04ef7f2H
	DD	04ef7f2H
	DD	04ef7f2H
	DD	04ef7f2H
	DD	04ffbf6H
	DD	041d5d1H
	DD	0140b2727H
	DD	0d4000000H
	DD	0ffdededeH
	DD	0ffffffffH
	DD	0ffffffffH
	DD	0ffffffffH
	DD	0ffffffffH
	DD	0ffffffffH
	DD	0ffffffffH
	DD	0ffffffffH
	DD	0ffffffffH
	DD	0ffffffffH
	DD	0ffffffffH
	DD	07d7e7e7eH
	DD	03acbc7H
	DD	046fffcH
	DD	03ffaf5H
	DD	040faf5H
	DD	040faf5H
	DD	040faf5H
	DD	040faf5H
	DD	040faf5H
	DD	040faf5H
	DD	040faf5H
	DD	040faf5H
	DD	040faf5H
	DD	040faf5H
	DD	040faf5H
	DD	040faf5H
	DD	040faf5H
	DD	040faf5H
	DD	040faf5H
	DD	040faf5H
	DD	040faf5H
	DD	040faf5H
	DD	040faf5H
	DD	040faf5H
	DD	040faf5H
	DD	040faf5H
	DD	040fbf6H
	DD	03ffef9H
	DD	045f1edH
	DD	0748e8dH
	DD	07d7b7aH
	DD	07e807fH
	DD	08a8989H
	DD	03e3e3dH
	DD	0333433H
	DD	0333332H
	DD	02c2b2bH
	DD	0565454H
	DD	0838281H
	DD	07e7d7cH
	DD	07e7d7dH
	DD	07d7c7bH
	DD	0838281H
	DD	081807fH
	DD	0585757H
	DD	0767474H
	DD	0777675H
	DD	07e7e7dH
	DD	080807fH
	DD	07f7f7fH
	DD	07f7e7eH
	DD	080807fH
	DD	080807fH
	DD	0807f7fH
	DD	0828281H
	DD	0828182H
	DD	0828281H
	DD	0828281H
	DD	0828282H
	DD	0818181H
	DD	0828281H
	DD	0838282H
	DD	0848382H
	DD	0838281H
	DD	0838281H
	DD	0828180H
	DD	0828080H
	DD	0828080H
	DD	0868584H
	DD	0848382H
	DD	0838282H
	DD	0858484H
	DD	0838282H
	DD	0858484H
	DD	0888887H
	DD	0403e3dH
	DD	0252221H
	DD	02b2928H
	DD	0272524H
	DD	0252221H
	DD	0222120H
	DD	06f7878H
	DD	0929191H
	DD	0868585H
	DD	08a8989H
	DD	0969595H
	DD	0595656H
	DD	02c2827H
	DD	034302eH
	DD	0373332H
	DD	0373332H
	DD	0362d2cH
	DD	03db1adH
	DD	040fffeH
	DD	040faf5H
	DD	040faf5H
	DD	040faf5H
	DD	040faf5H
	DD	040faf5H
	DD	040faf5H
	DD	040faf5H
	DD	040faf5H
	DD	040faf5H
	DD	040faf5H
	DD	040faf5H
	DD	040faf5H
	DD	040faf5H
	DD	040faf5H
	DD	040faf5H
	DD	040faf5H
	DD	040faf5H
	DD	040faf5H
	DD	040faf5H
	DD	040faf5H
	DD	040faf5H
	DD	040faf5H
	DD	040faf5H
	DD	040faf5H
	DD	040faf5H
	DD	040faf5H
	DD	040faf5H
	DD	040faf5H
	DD	040faf5H
	DD	040faf5H
	DD	040faf5H
	DD	040faf5H
	DD	040faf5H
	DD	040faf5H
	DD	040faf5H
	DD	040faf5H
	DD	040faf5H
	DD	040faf5H
	DD	040faf5H
	DD	040faf5H
	DD	040faf5H
	DD	040faf5H
	DD	040faf5H
	DD	040faf5H
	DD	040faf5H
	DD	040faf5H
	DD	040faf5H
	DD	040faf5H
	DD	040faf5H
	DD	040faf5H
	DD	040faf5H
	DD	040faf5H
	DD	040faf5H
	DD	040faf5H
	DD	040faf5H
	DD	040faf5H
	DD	040faf5H
	DD	040faf5H
	DD	040faf5H
	DD	040faf5H
	DD	040faf5H
	DD	040faf5H
	DD	040faf5H
	DD	040faf5H
	DD	040faf5H
	DD	040faf5H
	DD	040faf5H
	DD	040faf5H
	DD	040faf5H
	DD	041fef9H
	DD	036d8d3H
	DD	014082827H
	DD	0d4000000H
	DD	0ffdededeH
	DD	0ffffffffH
	DD	0ffffffffH
	DD	0ffffffffH
	DD	0ffffffffH
	DD	0ffffffffH
	DD	0ffffffffH
	DD	0ffffffffH
	DD	0ffffffffH
	DD	0ffffffffH
	DD	0ffffffffH
	DD	07d7e7e7eH
	DD	032cbc7H
	DD	041fffcH
	DD	03dfaf5H
	DD	03dfaf5H
	DD	03dfaf5H
	DD	03dfaf5H
	DD	03dfaf5H
	DD	03dfaf5H
	DD	03dfaf5H
	DD	03dfaf5H
	DD	03dfaf5H
	DD	03dfaf5H
	DD	03dfaf5H
	DD	03dfaf5H
	DD	03dfaf5H
	DD	03dfaf5H
	DD	03dfaf5H
	DD	03dfaf5H
	DD	03dfaf5H
	DD	03dfaf5H
	DD	03dfaf5H
	DD	03dfaf5H
	DD	03dfaf5H
	DD	03dfaf5H
	DD	03dfaf5H
	DD	03dfaf5H
	DD	03dfaf5H
	DD	039fef9H
	DD	060b2b0H
	DD	07e7877H
	DD	07b7d7cH
	DD	08f8f8eH
	DD	05b5a5bH
	DD	02c2c2bH
	DD	02f2f2eH
	DD	0282726H
	DD	0373636H
	DD	0757373H
	DD	0817f7fH
	DD	07d7c7cH
	DD	07e7d7cH
	DD	07d7c7bH
	DD	0868584H
	DD	0747271H
	DD	05d5a5aH
	DD	07a7a79H
	DD	07a7978H
	DD	07f7f7eH
	DD	07f7f7fH
	DD	080807fH
	DD	07f7f7dH
	DD	080807fH
	DD	0808080H
	DD	0818080H
	DD	0828181H
	DD	080807fH
	DD	0808080H
	DD	0818281H
	DD	0818180H
	DD	0828282H
	DD	0828282H
	DD	0818080H
	DD	0818080H
	DD	0838282H
	DD	0828181H
	DD	0807e7fH
	DD	0838281H
	DD	0848383H
	DD	0848382H
	DD	0848383H
	DD	0858484H
	DD	0828181H
	DD	0898888H
	DD	0737171H
	DD	0242120H
	DD	0242221H
	DD	0262322H
	DD	0262322H
	DD	0251c1bH
	DD	02a4f4eH
	DD	07d9e9dH
	DD	08e8888H
	DD	0888786H
	DD	08b8a8aH
	DD	08d8d8cH
	DD	0454241H
	DD	0312e2cH
	DD	0353230H
	DD	0423f3eH
	DD	0494342H
	DD	03b4644H
	DD	039d6d3H
	DD	03dfffbH
	DD	03dfaf5H
	DD	03dfaf5H
	DD	03dfaf5H
	DD	03dfaf5H
	DD	03dfaf5H
	DD	03dfaf5H
	DD	03dfaf5H
	DD	03dfaf5H
	DD	03dfaf5H
	DD	03dfaf5H
	DD	03dfaf5H
	DD	03dfaf5H
	DD	03dfaf5H
	DD	03dfaf5H
	DD	03dfaf5H
	DD	03dfaf5H
	DD	03dfaf5H
	DD	03dfaf5H
	DD	03dfaf5H
	DD	03dfaf5H
	DD	03dfaf5H
	DD	03dfaf5H
	DD	03dfaf5H
	DD	03dfaf5H
	DD	03dfaf5H
	DD	03dfaf5H
	DD	03dfaf5H
	DD	03dfaf5H
	DD	03dfaf5H
	DD	03dfaf5H
	DD	03dfaf5H
	DD	03dfaf5H
	DD	03dfaf5H
	DD	03dfaf5H
	DD	03dfaf5H
	DD	03dfaf5H
	DD	03dfaf5H
	DD	03dfaf5H
	DD	03dfaf5H
	DD	03dfaf5H
	DD	03dfaf5H
	DD	03dfaf5H
	DD	03dfaf5H
	DD	03dfaf5H
	DD	03dfaf5H
	DD	03dfaf5H
	DD	03dfaf5H
	DD	03dfaf5H
	DD	03dfaf5H
	DD	03dfaf5H
	DD	03dfaf5H
	DD	03dfaf5H
	DD	03dfaf5H
	DD	03dfaf5H
	DD	03dfaf5H
	DD	03dfaf5H
	DD	03dfaf5H
	DD	03dfaf5H
	DD	03dfaf5H
	DD	03dfaf5H
	DD	03dfaf5H
	DD	03dfaf5H
	DD	03dfaf5H
	DD	03dfaf5H
	DD	03dfaf5H
	DD	03dfaf5H
	DD	03dfaf5H
	DD	03dfaf5H
	DD	03dfaf5H
	DD	03efef9H
	DD	033d8d3H
	DD	014082827H
	DD	0d4000000H
	DD	0ffdededeH
	DD	0ffffffffH
	DD	0ffffffffH
	DD	0ffffffffH
	DD	0ffffffffH
	DD	0ffffffffH
	DD	0ffffffffH
	DD	0ffffffffH
	DD	0ffffffffH
	DD	0ffffffffH
	DD	0ffffffffH
	DD	07d7e7e7eH
	DD	033cac7H
	DD	041fffbH
	DD	03cf9f4H
	DD	03df9f4H
	DD	03df9f4H
	DD	03df9f4H
	DD	03df9f4H
	DD	03df9f4H
	DD	03df9f4H
	DD	03df9f4H
	DD	03df9f4H
	DD	03df9f4H
	DD	03df9f4H
	DD	03df9f4H
	DD	03df9f4H
	DD	03df9f4H
	DD	03df9f4H
	DD	03df9f4H
	DD	03df9f4H
	DD	03df9f4H
	DD	03df9f4H
	DD	03df9f4H
	DD	03df9f4H
	DD	03df9f4H
	DD	03df9f4H
	DD	03df9f4H
	DD	03df9f4H
	DD	03bfef9H
	DD	04adad7H
	DD	07a7d7dH
	DD	07a7979H
	DD	0848483H
	DD	0818180H
	DD	02a2a2aH
	DD	0282726H
	DD	0252424H
	DD	0272726H
	DD	0525051H
	DD	0818080H
	DD	07d7d7bH
	DD	07e7d7cH
	DD	0817f7fH
	DD	07e7d7cH
	DD	0888786H
	DD	0737070H
	DD	0656361H
	DD	07d7b7aH
	DD	07a7978H
	DD	07f7e7eH
	DD	081807fH
	DD	07f7f7eH
	DD	07f7e7eH
	DD	080807fH
	DD	0818080H
	DD	0807f7fH
	DD	07f7f7fH
	DD	0808080H
	DD	0828181H
	DD	0838382H
	DD	081817fH
	DD	0808080H
	DD	0818180H
	DD	0818180H
	DD	0818080H
	DD	07e7e7eH
	DD	0828081H
	DD	0838282H
	DD	0848282H
	DD	0838181H
	DD	0858484H
	DD	0858483H
	DD	0838281H
	DD	08a8988H
	DD	04a4948H
	DD	01e1c1bH
	DD	0272423H
	DD	0262322H
	DD	0272221H
	DD	0232928H
	DD	03da6a4H
	DD	08e9e9eH
	DD	08c8887H
	DD	0878686H
	DD	08e8d8dH
	DD	0807f7eH
	DD	0363231H
	DD	0332f2eH
	DD	033302eH
	DD	03a3735H
	DD	04a413fH
	DD	0456c6aH
	DD	03bf3efH
	DD	03dfdf8H
	DD	03df9f4H
	DD	03df9f4H
	DD	03df9f4H
	DD	03df9f4H
	DD	03df9f4H
	DD	03df9f4H
	DD	03df9f4H
	DD	03df9f4H
	DD	03df9f4H
	DD	03df9f4H
	DD	03df9f4H
	DD	03df9f4H
	DD	03df9f4H
	DD	03df9f4H
	DD	03df9f4H
	DD	03df9f4H
	DD	03df9f4H
	DD	03df9f4H
	DD	03df9f4H
	DD	03df9f4H
	DD	03df9f4H
	DD	03df9f4H
	DD	03df9f4H
	DD	03df9f4H
	DD	03df9f4H
	DD	03df9f4H
	DD	03df9f4H
	DD	03df9f4H
	DD	03df9f4H
	DD	03df9f4H
	DD	03df9f4H
	DD	03df9f4H
	DD	03df9f4H
	DD	03df9f4H
	DD	03df9f4H
	DD	03df9f4H
	DD	03df9f4H
	DD	03df9f4H
	DD	03df9f4H
	DD	03df9f4H
	DD	03df9f4H
	DD	03df9f4H
	DD	03df9f4H
	DD	03df9f4H
	DD	03df9f4H
	DD	03df9f4H
	DD	03df9f4H
	DD	03df9f4H
	DD	03df9f4H
	DD	03df9f4H
	DD	03df9f4H
	DD	03df9f4H
	DD	03df9f4H
	DD	03df9f4H
	DD	03df9f4H
	DD	03df9f4H
	DD	03df9f4H
	DD	03df9f4H
	DD	03df9f4H
	DD	03df9f4H
	DD	03df9f4H
	DD	03df9f4H
	DD	03df9f4H
	DD	03df9f4H
	DD	03df9f4H
	DD	03df9f4H
	DD	03df9f4H
	DD	03df9f4H
	DD	03df9f4H
	DD	03efdf8H
	DD	033d7d3H
	DD	014082827H
	DD	0d4000000H
	DD	0ffdededeH
	DD	0ffffffffH
	DD	0ffffffffH
	DD	0ffffffffH
	DD	0ffffffffH
	DD	0ffffffffH
	DD	0ffffffffH
	DD	0ffffffffH
	DD	0ffffffffH
	DD	0ffffffffH
	DD	0ffffffffH
	DD	07d7e7e7eH
	DD	033cac7H
	DD	041fffbH
	DD	03cf9f4H
	DD	03df9f4H
	DD	03df9f4H
	DD	03df9f4H
	DD	03df9f4H
	DD	03df9f4H
	DD	03df9f4H
	DD	03df9f4H
	DD	03df9f4H
	DD	03df9f4H
	DD	03df9f4H
	DD	03df9f4H
	DD	03df9f4H
	DD	03df9f4H
	DD	03df9f4H
	DD	03df9f4H
	DD	03df9f4H
	DD	03df9f4H
	DD	03df9f4H
	DD	03df9f4H
	DD	03df9f4H
	DD	03df9f4H
	DD	03df9f4H
	DD	03df9f4H
	DD	03df9f4H
	DD	03cfbf6H
	DD	03ef5f1H
	DD	06a9997H
	DD	07e7775H
	DD	07a7979H
	DD	08f8e8eH
	DD	04e4d4dH
	DD	0222120H
	DD	0272726H
	DD	0222221H
	DD	02d2c2bH
	DD	06f6e6dH
	DD	081807fH
	DD	07e7d7cH
	DD	07f7d7cH
	DD	07f7d7dH
	DD	07f7e7dH
	DD	08b8989H
	DD	0747371H
	DD	0656362H
	DD	07e7c7bH
	DD	07f7d7dH
	DD	07e7d7cH
	DD	07f7e7dH
	DD	07e7e7eH
	DD	07f7e7dH
	DD	07f7e7eH
	DD	07f7f7fH
	DD	0828281H
	DD	0818080H
	DD	0807f7fH
	DD	0818080H
	DD	0808180H
	DD	0818080H
	DD	0828181H
	DD	0807f7eH
	DD	07d7d7cH
	DD	0828181H
	DD	0858483H
	DD	0838281H
	DD	0838282H
	DD	0828181H
	DD	0818080H
	DD	0838281H
	DD	0878686H
	DD	07b7a79H
	DD	0292726H
	DD	0252222H
	DD	02f2d2cH
	DD	02e2b2aH
	DD	0261a1aH
	DD	0288482H
	DD	059cdcaH
	DD	0978f8fH
	DD	0868585H
	DD	0868685H
	DD	08f8f8eH
	DD	0676564H
	DD	02d2a29H
	DD	0393534H
	DD	043403eH
	DD	04c4948H
	DD	04e4746H
	DD	0414f4eH
	DD	038ccc9H
	DD	03dffffH
	DD	03df9f4H
	DD	03df9f4H
	DD	03df9f4H
	DD	03df9f4H
	DD	03df9f4H
	DD	03df9f4H
	DD	03df9f4H
	DD	03df9f4H
	DD	03df9f4H
	DD	03df9f4H
	DD	03df9f4H
	DD	03df9f4H
	DD	03df9f4H
	DD	03df9f4H
	DD	03df9f4H
	DD	03df9f4H
	DD	03df9f4H
	DD	03df9f4H
	DD	03df9f4H
	DD	03df9f4H
	DD	03df9f4H
	DD	03df9f4H
	DD	03df9f4H
	DD	03df9f4H
	DD	03df9f4H
	DD	03df9f4H
	DD	03df9f4H
	DD	03df9f4H
	DD	03df9f4H
	DD	03df9f4H
	DD	03df9f4H
	DD	03df9f4H
	DD	03df9f4H
	DD	03df9f4H
	DD	03df9f4H
	DD	03df9f4H
	DD	03df9f4H
	DD	03df9f4H
	DD	03df9f4H
	DD	03df9f4H
	DD	03df9f4H
	DD	03df9f4H
	DD	03df9f4H
	DD	03df9f4H
	DD	03df9f4H
	DD	03df9f4H
	DD	03df9f4H
	DD	03df9f4H
	DD	03df9f4H
	DD	03df9f4H
	DD	03df9f4H
	DD	03df9f4H
	DD	03df9f4H
	DD	03df9f4H
	DD	03df9f4H
	DD	03df9f4H
	DD	03df9f4H
	DD	03df9f4H
	DD	03df9f4H
	DD	03df9f4H
	DD	03df9f4H
	DD	03df9f4H
	DD	03df9f4H
	DD	03df9f4H
	DD	03df9f4H
	DD	03df9f4H
	DD	03df9f4H
	DD	03df9f4H
	DD	03df9f4H
	DD	03efdf8H
	DD	033d7d3H
	DD	014082827H
	DD	0d4000000H
	DD	0ffdededeH
	DD	0ffffffffH
	DD	0ffffffffH
	DD	0ffffffffH
	DD	0ffffffffH
	DD	0ffffffffH
	DD	0ffffffffH
	DD	0ffffffffH
	DD	0ffffffffH
	DD	0ffffffffH
	DD	0ffffffffH
	DD	07d7e7e7eH
	DD	033cac6H
	DD	041fffbH
	DD	03cf8f4H
	DD	03df8f4H
	DD	03df8f4H
	DD	03df8f4H
	DD	03df8f4H
	DD	03df8f4H
	DD	03df8f4H
	DD	03df8f4H
	DD	03df8f4H
	DD	03df8f4H
	DD	03df8f4H
	DD	03df8f4H
	DD	03df8f4H
	DD	03df8f4H
	DD	03df8f4H
	DD	03df8f4H
	DD	03df8f4H
	DD	03df8f4H
	DD	03df8f4H
	DD	03df8f4H
	DD	03df8f4H
	DD	03df8f4H
	DD	03df8f4H
	DD	03df8f4H
	DD	03df8f4H
	DD	03cfaf6H
	DD	03cf7f3H
	DD	06da1a0H
	DD	07e7877H
	DD	07c7b7bH
	DD	081807fH
	DD	0818080H
	DD	0292827H
	DD	0252424H
	DD	01f1e1eH
	DD	02c2a29H
	DD	0787775H
	DD	07f7e7dH
	DD	07d7c7bH
	DD	07d7b7bH
	DD	07e7c7cH
	DD	07d7c7bH
	DD	07d7b7bH
	DD	0888786H
	DD	07c7978H
	DD	06f6b6aH
	DD	07f7c7bH
	DD	0848382H
	DD	0807f7eH
	DD	07d7b7bH
	DD	07d7c7cH
	DD	07f7e7eH
	DD	0818180H
	DD	080807fH
	DD	07f7e7eH
	DD	07e7e7eH
	DD	0808080H
	DD	0807f7fH
	DD	081807fH
	DD	080807fH
	DD	07f7e7eH
	DD	0868483H
	DD	0858483H
	DD	0838281H
	DD	0838282H
	DD	0838282H
	DD	0858484H
	DD	0828182H
	DD	0828181H
	DD	08b8a8aH
	DD	04c4a4aH
	DD	0141211H
	DD	0201d1dH
	DD	02e2c2bH
	DD	0251d1dH
	DD	0264645H
	DD	034dedbH
	DD	07eaaa9H
	DD	0938a8aH
	DD	0868584H
	DD	0878685H
	DD	08a8a89H
	DD	0565554H
	DD	0474443H
	DD	0545150H
	DD	04f4c4bH
	DD	0464443H
	DD	03f3c3bH
	DD	03d3333H
	DD	0384a49H
	DD	036c0bcH
	DD	03dfbf6H
	DD	03df9f5H
	DD	03df8f4H
	DD	03df8f4H
	DD	03df8f4H
	DD	03df8f4H
	DD	03df8f4H
	DD	03df8f4H
	DD	03df8f4H
	DD	03df8f4H
	DD	03df8f4H
	DD	03df8f4H
	DD	03df8f4H
	DD	03df8f4H
	DD	03df8f4H
	DD	03df8f4H
	DD	03df8f4H
	DD	03df8f4H
	DD	03df8f4H
	DD	03df8f4H
	DD	03df8f4H
	DD	03df8f4H
	DD	03df8f4H
	DD	03df8f4H
	DD	03df8f4H
	DD	03df8f4H
	DD	03df8f4H
	DD	03df8f4H
	DD	03df8f4H
	DD	03df8f4H
	DD	03df8f4H
	DD	03df8f4H
	DD	03df8f4H
	DD	03df8f4H
	DD	03df8f4H
	DD	03df8f4H
	DD	03df8f4H
	DD	03df8f4H
	DD	03df8f4H
	DD	03df8f4H
	DD	03df8f4H
	DD	03df8f4H
	DD	03df8f4H
	DD	03df8f4H
	DD	03df8f4H
	DD	03df8f4H
	DD	03df8f4H
	DD	03df8f4H
	DD	03df8f4H
	DD	03df8f4H
	DD	03df8f4H
	DD	03df8f4H
	DD	03df8f4H
	DD	03df8f4H
	DD	03df8f4H
	DD	03df8f4H
	DD	03df8f4H
	DD	03df8f4H
	DD	03df8f4H
	DD	03df8f4H
	DD	03df8f4H
	DD	03df8f4H
	DD	03df8f4H
	DD	03df8f4H
	DD	03df8f4H
	DD	03df8f4H
	DD	03df8f4H
	DD	03df8f4H
	DD	03df8f4H
	DD	03efcf8H
	DD	033d6d3H
	DD	014082827H
	DD	0d4000000H
	DD	0ffdededeH
	DD	0ffffffffH
	DD	0ffffffffH
	DD	0ffffffffH
	DD	0ffffffffH
	DD	0ffffffffH
	DD	0ffffffffH
	DD	0ffffffffH
	DD	0ffffffffH
	DD	0ffffffffH
	DD	0ffffffffH
	DD	07d7e7e7eH
	DD	032c9c6H
	DD	041fffaH
	DD	03df8f3H
	DD	03df8f3H
	DD	03df8f3H
	DD	03df8f3H
	DD	03df8f3H
	DD	03df8f3H
	DD	03df8f3H
	DD	03df8f3H
	DD	03df8f3H
	DD	03df8f3H
	DD	03df8f3H
	DD	03df8f3H
	DD	03df8f3H
	DD	03df8f3H
	DD	03df8f3H
	DD	03df8f3H
	DD	03df8f3H
	DD	03df8f3H
	DD	03df8f3H
	DD	03df8f3H
	DD	03df8f3H
	DD	03df7f3H
	DD	03df8f3H
	DD	03df7f3H
	DD	03df8f4H
	DD	03bf9f4H
	DD	05cb9b7H
	DD	0838180H
	DD	07a7b7aH
	DD	07b7b7aH
	DD	0787777H
	DD	08e8c8bH
	DD	0585757H
	DD	01a1a19H
	DD	020201fH
	DD	0676564H
	DD	0848281H
	DD	07d7b7bH
	DD	07d7c7bH
	DD	07d7b7bH
	DD	07d7b7bH
	DD	07f7d7dH
	DD	07d7b7bH
	DD	07c7a7aH
	DD	0878484H
	DD	0878483H
	DD	0726e6eH
	DD	0787473H
	DD	0858281H
	DD	0878584H
	DD	0807f7fH
	DD	07d7c7cH
	DD	07e7d7cH
	DD	07e7d7cH
	DD	07e7d7dH
	DD	07d7c7cH
	DD	0807f7eH
	DD	081807fH
	DD	0818080H
	DD	07f7c7cH
	DD	0868281H
	DD	0858382H
	DD	081807fH
	DD	0828081H
	DD	0828180H
	DD	0838281H
	DD	0838282H
	DD	0818080H
	DD	0888787H
	DD	06c6b6bH
	DD	0161514H
	DD	0110f0fH
	DD	0141211H
	DD	01e1b1aH
	DD	02f2523H
	DD	030a19eH
	DD	04cdddaH
	DD	0959595H
	DD	08c8988H
	DD	0868584H
	DD	0848482H
	DD	09a9999H
	DD	0888686H
	DD	03c3938H
	DD	03f3d3cH
	DD	0403c3bH
	DD	0434140H
	DD	0444140H
	DD	0464342H
	DD	0493c3bH
	DD	0435352H
	DD	03ae8e4H
	DD	03dfbf6H
	DD	03df7f3H
	DD	03df7f3H
	DD	03df8f3H
	DD	03df8f3H
	DD	03df8f3H
	DD	03df8f3H
	DD	03df8f3H
	DD	03df8f3H
	DD	03df8f3H
	DD	03df8f3H
	DD	03df8f3H
	DD	03df8f3H
	DD	03df8f3H
	DD	03df8f3H
	DD	03df8f3H
	DD	03df8f3H
	DD	03df8f3H
	DD	03df8f3H
	DD	03df8f3H
	DD	03df8f3H
	DD	03df8f3H
	DD	03df8f3H
	DD	03df8f3H
	DD	03df8f3H
	DD	03df8f3H
	DD	03df8f3H
	DD	03df8f3H
	DD	03df8f3H
	DD	03df8f3H
	DD	03df8f3H
	DD	03df8f3H
	DD	03df8f3H
	DD	03df8f3H
	DD	03df8f3H
	DD	03df8f3H
	DD	03df8f3H
	DD	03df8f3H
	DD	03df8f3H
	DD	03df8f3H
	DD	03df8f3H
	DD	03df8f3H
	DD	03df8f3H
	DD	03df8f3H
	DD	03df8f3H
	DD	03df8f3H
	DD	03df8f3H
	DD	03df8f3H
	DD	03df8f3H
	DD	03df8f3H
	DD	03df8f3H
	DD	03df8f3H
	DD	03df8f3H
	DD	03df8f3H
	DD	03df8f3H
	DD	03df8f3H
	DD	03df8f3H
	DD	03df8f3H
	DD	03df8f3H
	DD	03df8f3H
	DD	03df8f3H
	DD	03df8f3H
	DD	03df8f3H
	DD	03df8f3H
	DD	03df8f3H
	DD	03df8f3H
	DD	03df8f3H
	DD	03df8f3H
	DD	03efcf7H
	DD	033d6d2H
	DD	014082727H
	DD	0d4000000H
	DD	0ffdededeH
	DD	0ffffffffH
	DD	0ffffffffH
	DD	0ffffffffH
	DD	0ffffffffH
	DD	0ffffffffH
	DD	0ffffffffH
	DD	0ffffffffH
	DD	0ffffffffH
	DD	0ffffffffH
	DD	0ffffffffH
	DD	07d7e7e7eH
	DD	032c8c6H
	DD	041fefaH
	DD	03df7f3H
	DD	03df7f3H
	DD	03df7f3H
	DD	03df7f3H
	DD	03df7f3H
	DD	03df7f3H
	DD	03df7f3H
	DD	03df7f3H
	DD	03df7f3H
	DD	03df7f3H
	DD	03df7f3H
	DD	03df7f3H
	DD	03df7f3H
	DD	03df7f3H
	DD	03df7f3H
	DD	03df7f3H
	DD	03df7f3H
	DD	03df7f3H
	DD	03df7f3H
	DD	03df7f3H
	DD	03df7f3H
	DD	03df7f3H
	DD	03df7f3H
	DD	03df6f2H
	DD	03df8f4H
	DD	039f0ecH
	DD	0709493H
	DD	07c7878H
	DD	0797b7aH
	DD	07b7b7aH
	DD	07b7979H
	DD	07f7d7cH
	DD	0898787H
	DD	0343333H
	DD	0545150H
	DD	0868584H
	DD	07c7a7aH
	DD	07d7b7bH
	DD	07c7c7aH
	DD	07d7b7bH
	DD	07d7b7bH
	DD	07e7c7dH
	DD	07d7c7bH
	DD	07d7c7cH
	DD	07c7b7aH
	DD	081807fH
	DD	0898787H
	DD	0807d7bH
	DD	074706eH
	DD	07b7776H
	DD	0837f7eH
	DD	0858282H
	DD	0838181H
	DD	0838180H
	DD	0848382H
	DD	07f7e7dH
	DD	07c7a79H
	DD	07a7676H
	DD	07a7675H
	DD	07f7c7cH
	DD	0828181H
	DD	0807f7fH
	DD	0807f7fH
	DD	0807f7fH
	DD	0818080H
	DD	0828080H
	DD	0818080H
	DD	0838281H
	DD	07c7b7bH
	DD	0292828H
	DD	0141211H
	DD	0292625H
	DD	0353230H
	DD	03b3837H
	DD	0352e2dH
	DD	02a6563H
	DD	071aaa8H
	DD	09c9493H
	DD	0878685H
	DD	0848383H
	DD	0838382H
	DD	0959494H
	DD	0d6d6d5H
	DD	0797776H
	DD	03a3736H
	DD	04d4b4aH
	DD	0504c4bH
	DD	04f4c4bH
	DD	0474443H
	DD	03c2f2fH
	DD	0367775H
	DD	03cf7f3H
	DD	03df8f4H
	DD	03df7f3H
	DD	03df7f3H
	DD	03df7f3H
	DD	03cf6f2H
	DD	03df6f2H
	DD	03df7f3H
	DD	03df6f3H
	DD	03df7f3H
	DD	03df7f3H
	DD	03df6f3H
	DD	03df7f3H
	DD	03df7f3H
	DD	03df7f3H
	DD	03df7f3H
	DD	03df7f3H
	DD	03df7f3H
	DD	03df7f3H
	DD	03df7f3H
	DD	03df7f3H
	DD	03df7f3H
	DD	03df7f3H
	DD	03df7f3H
	DD	03df7f3H
	DD	03df7f3H
	DD	03df7f3H
	DD	03df7f3H
	DD	03df7f3H
	DD	03df7f3H
	DD	03df7f3H
	DD	03df7f3H
	DD	03df7f3H
	DD	03df7f3H
	DD	03df7f3H
	DD	03df7f3H
	DD	03df7f3H
	DD	03df7f3H
	DD	03df7f3H
	DD	03df7f3H
	DD	03df7f3H
	DD	03df7f3H
	DD	03df7f3H
	DD	03df7f3H
	DD	03df7f3H
	DD	03df7f3H
	DD	03df7f3H
	DD	03df7f3H
	DD	03df7f3H
	DD	03df7f3H
	DD	03df7f3H
	DD	03df7f3H
	DD	03df7f3H
	DD	03df7f3H
	DD	03df7f3H
	DD	03df7f3H
	DD	03df7f3H
	DD	03df7f3H
	DD	03df7f3H
	DD	03df7f3H
	DD	03df7f3H
	DD	03df7f3H
	DD	03df7f3H
	DD	03df7f3H
	DD	03df7f3H
	DD	03df7f3H
	DD	03df7f3H
	DD	03df7f3H
	DD	03df7f3H
	DD	03efbf7H
	DD	033d5d2H
	DD	014082727H
	DD	0d4000000H
	DD	0ffdededeH
	DD	0ffffffffH
	DD	0ffffffffH
	DD	0ffffffffH
	DD	0ffffffffH
	DD	0ffffffffH
	DD	0ffffffffH
	DD	0ffffffffH
	DD	0ffffffffH
	DD	0ffffffffH
	DD	0ffffffffH
	DD	07d7e7e7eH
	DD	032c8c5H
	DD	041fdfaH
	DD	03df6f3H
	DD	03df6f3H
	DD	03df6f3H
	DD	03df6f3H
	DD	03df6f3H
	DD	03df6f3H
	DD	03df6f3H
	DD	03df6f3H
	DD	03df6f3H
	DD	03df6f3H
	DD	03df6f3H
	DD	03df6f3H
	DD	03df6f3H
	DD	03df6f3H
	DD	03df6f3H
	DD	03df6f3H
	DD	03df6f3H
	DD	03df6f3H
	DD	03df6f3H
	DD	03df6f3H
	DD	03df6f3H
	DD	03df6f2H
	DD	03df6f2H
	DD	03cf5f2H
	DD	03cf5f1H
	DD	039f9f5H
	DD	04dbbb8H
	DD	07e7a7aH
	DD	0787b7aH
	DD	07a7979H
	DD	07b7a79H
	DD	0797776H
	DD	0878685H
	DD	0989694H
	DD	07f7d7cH
	DD	07b7a79H
	DD	07b7978H
	DD	07b7979H
	DD	07c7b7aH
	DD	07d7b7aH
	DD	07c7b79H
	DD	07d7b7bH
	DD	07c7a7aH
	DD	07e7c7cH
	DD	07e7c7cH
	DD	07b7a7aH
	DD	07c7b7aH
	DD	0828180H
	DD	0858484H
	DD	0848281H
	DD	0827d7cH
	DD	07c7775H
	DD	0746e6dH
	DD	0726d6bH
	DD	0716c6bH
	DD	0706c6bH
	DD	0736f6dH
	DD	07b7977H
	DD	0807f7fH
	DD	07f7f7fH
	DD	080807fH
	DD	0817f80H
	DD	0828181H
	DD	081807fH
	DD	0817f7fH
	DD	0807f7fH
	DD	0828181H
	DD	0898887H
	DD	0605f5fH
	DD	02c2928H
	DD	0393736H
	DD	0373534H
	DD	0302e2dH
	DD	02b2929H
	DD	022201fH
	DD	03f3939H
	DD	09b9796H
	DD	08f8e8eH
	DD	0848383H
	DD	0868584H
	DD	0858483H
	DD	0807f7fH
	DD	0929191H
	DD	0d9d8d9H
	DD	0918f8eH
	DD	0484544H
	DD	0413e3dH
	DD	0343130H
	DD	02b2524H
	DD	0282928H
	DD	033c1beH
	DD	03dfefbH
	DD	03df6f2H
	DD	03df6f2H
	DD	03cf5f1H
	DD	03df6f2H
	DD	03cf5f2H
	DD	03cf5f2H
	DD	03df6f2H
	DD	03df6f2H
	DD	03df6f2H
	DD	03df6f2H
	DD	03df6f3H
	DD	03df6f2H
	DD	03cf5f2H
	DD	03df6f2H
	DD	03df6f2H
	DD	03df6f3H
	DD	03df6f3H
	DD	03df6f3H
	DD	03df6f2H
	DD	03df6f3H
	DD	03df6f3H
	DD	03df6f3H
	DD	03df6f3H
	DD	03df6f3H
	DD	03df6f3H
	DD	03df6f3H
	DD	03df6f3H
	DD	03df6f3H
	DD	03df6f3H
	DD	03df6f3H
	DD	03df6f3H
	DD	03df6f3H
	DD	03df6f3H
	DD	03df6f3H
	DD	03df6f3H
	DD	03df6f3H
	DD	03df6f3H
	DD	03df6f3H
	DD	03df6f3H
	DD	03df6f3H
	DD	03df6f3H
	DD	03df6f3H
	DD	03df6f3H
	DD	03df6f3H
	DD	03df6f3H
	DD	03df6f3H
	DD	03df6f3H
	DD	03df6f3H
	DD	03df6f3H
	DD	03df6f3H
	DD	03df6f3H
	DD	03df6f3H
	DD	03df6f3H
	DD	03df6f3H
	DD	03df6f3H
	DD	03df6f3H
	DD	03df6f3H
	DD	03df6f3H
	DD	03df6f3H
	DD	03df6f3H
	DD	03df6f3H
	DD	03df6f3H
	DD	03df6f3H
	DD	03df6f3H
	DD	03df6f3H
	DD	03df6f3H
	DD	03df6f3H
	DD	03df6f3H
	DD	03efaf7H
	DD	032d5d1H
	DD	014082727H
	DD	0d4000000H
	DD	0ffdededeH
	DD	0ffffffffH
	DD	0ffffffffH
	DD	0ffffffffH
	DD	0ffffffffH
	DD	0ffffffffH
	DD	0ffffffffH
	DD	0ffffffffH
	DD	0ffffffffH
	DD	0ffffffffH
	DD	0ffffffffH
	DD	07d7e7e7eH
	DD	032c7c5H
	DD	040fcf9H
	DD	03bf5f2H
	DD	03cf5f2H
	DD	03cf5f2H
	DD	03cf5f2H
	DD	03cf5f2H
	DD	03cf5f2H
	DD	03cf5f2H
	DD	03cf5f2H
	DD	03cf5f2H
	DD	03cf5f2H
	DD	03cf5f2H
	DD	03cf5f2H
	DD	03cf5f2H
	DD	03cf5f2H
	DD	03cf5f2H
	DD	03cf5f2H
	DD	03cf5f2H
	DD	03cf5f2H
	DD	03cf5f2H
	DD	03cf5f2H
	DD	03cf5f2H
	DD	03cf5f2H
	DD	03cf5f2H
	DD	03cf4f1H
	DD	03cf3f0H
	DD	03cf7f4H
	DD	038e8e5H
	DD	0688e8dH
	DD	07e7776H
	DD	07a7776H
	DD	07c7777H
	DD	07a7878H
	DD	07a7877H
	DD	07e7d7cH
	DD	07c7b7aH
	DD	07b7878H
	DD	07b7878H
	DD	07b7a79H
	DD	07b7979H
	DD	07b7979H
	DD	07b7a79H
	DD	07e7d7cH
	DD	07e7c7cH
	DD	07c7a7aH
	DD	07d7c7bH
	DD	07d7c7bH
	DD	07d7c7bH
	DD	07d7b7bH
	DD	07c7a7aH
	DD	07e7c7cH
	DD	0828180H
	DD	0838282H
	DD	081807fH
	DD	0817f7eH
	DD	0807e7dH
	DD	0818080H
	DD	0828281H
	DD	0818080H
	DD	07e7d7dH
	DD	0807f7eH
	DD	0807f7eH
	DD	0807f7fH
	DD	0807f7fH
	DD	0807f7eH
	DD	0807f7fH
	DD	0828180H
	DD	07e7d7dH
	DD	08e8e8eH
	DD	0c2c1c0H
	DD	04e4c4bH
	DD	0272525H
	DD	0292726H
	DD	0272525H
	DD	0262424H
	DD	022201fH
	DD	0777574H
	DD	09c9b9aH
	DD	0878686H
	DD	0848382H
	DD	0858483H
	DD	0848383H
	DD	0858484H
	DD	0818080H
	DD	0979696H
	DD	0727170H
	DD	0373534H
	DD	02f2d2cH
	DD	0282423H
	DD	02a1b1aH
	DD	02e6664H
	DD	03af5f2H
	DD	03cf5f2H
	DD	03cf4f0H
	DD	03cf4f1H
	DD	03cf4f1H
	DD	03cf4f1H
	DD	03cf4f1H
	DD	03cf4f1H
	DD	03cf5f2H
	DD	03cf4f1H
	DD	03cf5f1H
	DD	03cf5f1H
	DD	03cf4f1H
	DD	03cf5f1H
	DD	03cf5f2H
	DD	03cf5f2H
	DD	03cf4f1H
	DD	03cf5f1H
	DD	03cf5f2H
	DD	03cf5f2H
	DD	03cf5f2H
	DD	03cf5f2H
	DD	03cf5f2H
	DD	03cf5f2H
	DD	03cf5f1H
	DD	03cf5f2H
	DD	03cf5f2H
	DD	03cf5f2H
	DD	03cf5f2H
	DD	03cf5f2H
	DD	03cf5f2H
	DD	03cf5f2H
	DD	03cf5f2H
	DD	03cf5f2H
	DD	03cf5f2H
	DD	03cf5f2H
	DD	03cf5f2H
	DD	03cf5f2H
	DD	03cf5f2H
	DD	03cf5f2H
	DD	03cf5f2H
	DD	03cf5f2H
	DD	03cf5f2H
	DD	03cf5f2H
	DD	03cf5f2H
	DD	03cf5f2H
	DD	03cf5f2H
	DD	03cf5f2H
	DD	03cf5f2H
	DD	03cf5f2H
	DD	03cf5f2H
	DD	03cf5f2H
	DD	03cf5f2H
	DD	03cf5f2H
	DD	03cf5f2H
	DD	03cf5f2H
	DD	03cf5f2H
	DD	03cf5f2H
	DD	03cf5f2H
	DD	03cf5f2H
	DD	03cf5f2H
	DD	03cf5f2H
	DD	03cf5f2H
	DD	03cf5f2H
	DD	03cf5f2H
	DD	03cf5f2H
	DD	03cf5f2H
	DD	03cf5f2H
	DD	03cf5f2H
	DD	03cf5f2H
	DD	03df9f6H
	DD	032d4d1H
	DD	014082727H
	DD	0d4000000H
	DD	0ffdededeH
	DD	0ffffffffH
	DD	0ffffffffH
	DD	0ffffffffH
	DD	0ffffffffH
	DD	0ffffffffH
	DD	0ffffffffH
	DD	0ffffffffH
	DD	0ffffffffH
	DD	0ffffffffH
	DD	0ffffffffH
	DD	07d7e7e7eH
	DD	032c6c5H
	DD	040fbf8H
	DD	03bf4f1H
	DD	03cf4f1H
	DD	03cf4f1H
	DD	03cf4f1H
	DD	03cf4f1H
	DD	03cf4f1H
	DD	03cf4f1H
	DD	03cf4f1H
	DD	03cf4f1H
	DD	03cf4f1H
	DD	03cf4f1H
	DD	03cf4f1H
	DD	03cf4f1H
	DD	03cf4f1H
	DD	03cf4f1H
	DD	03cf4f1H
	DD	03cf4f1H
	DD	03cf4f2H
	DD	03cf4f1H
	DD	03cf3f1H
	DD	03cf3f0H
	DD	03cf3f0H
	DD	03cf3f0H
	DD	03cf3f0H
	DD	03cf3f0H
	DD	03cf2efH
	DD	039f9f6H
	DD	046c0beH
	DD	0737473H
	DD	0637473H
	DD	068807fH
	DD	07c7777H
	DD	07a7878H
	DD	0797877H
	DD	07b7a79H
	DD	07a7878H
	DD	07a7978H
	DD	07b7979H
	DD	07b7a79H
	DD	07b7a79H
	DD	07c7a7aH
	DD	06f6e6dH
	DD	07e7d7cH
	DD	07f7d7dH
	DD	07c7b7aH
	DD	07c7b7aH
	DD	07d7b7bH
	DD	07c7b7aH
	DD	07d7c7bH
	DD	07c7b7aH
	DD	07b7a79H
	DD	07d7b7bH
	DD	07f7e7dH
	DD	07d7d7cH
	DD	07e7d7dH
	DD	07e7d7cH
	DD	07e7d7cH
	DD	07f7e7dH
	DD	07e7c7bH
	DD	07e7d7dH
	DD	07e7d7cH
	DD	07e7d7cH
	DD	07f7e7eH
	DD	07f7e7eH
	DD	07f7e7eH
	DD	081807fH
	DD	0818080H
	DD	07d7c7cH
	DD	0cfcfcfH
	DD	0aeacacH
	DD	0252422H
	DD	0292626H
	DD	0292827H
	DD	0201d1dH
	DD	0535150H
	DD	09a9999H
	DD	0898988H
	DD	0868584H
	DD	0858484H
	DD	0848383H
	DD	0848383H
	DD	0868585H
	DD	0898888H
	DD	07d7c7cH
	DD	02e2c2cH
	DD	03b3938H
	DD	03f3635H
	DD	02a2020H
	DD	02a3838H
	DD	035c5c3H
	DD	03dfcf9H
	DD	03cf2efH
	DD	03cf2efH
	DD	03df6f3H
	DD	03df9f6H
	DD	03cf8f5H
	DD	03df7f4H
	DD	03cf3f0H
	DD	03cf3f0H
	DD	03cf4f1H
	DD	03cf5f1H
	DD	03cf6f3H
	DD	03bfbf8H
	DD	03bfbf8H
	DD	03cfcf9H
	DD	03cf7f4H
	DD	03cf4f1H
	DD	03cf5f1H
	DD	03cf4f1H
	DD	03cf4f1H
	DD	03cf4f1H
	DD	03cf6f2H
	DD	03cf5f2H
	DD	03cf5f2H
	DD	03cf4f1H
	DD	03cf4f1H
	DD	03cf4f1H
	DD	03cf4f2H
	DD	03cf4f2H
	DD	03cf4f2H
	DD	03cf4f1H
	DD	03cf4f1H
	DD	03cf4f1H
	DD	03cf4f1H
	DD	03cf4f1H
	DD	03cf4f1H
	DD	03cf4f1H
	DD	03cf4f1H
	DD	03cf4f1H
	DD	03cf4f1H
	DD	03cf4f1H
	DD	03cf4f1H
	DD	03cf4f1H
	DD	03cf4f1H
	DD	03cf4f1H
	DD	03cf4f1H
	DD	03cf4f1H
	DD	03cf4f1H
	DD	03cf4f1H
	DD	03cf4f1H
	DD	03cf4f1H
	DD	03cf4f1H
	DD	03cf4f1H
	DD	03cf4f1H
	DD	03cf4f1H
	DD	03cf4f1H
	DD	03cf4f1H
	DD	03cf4f1H
	DD	03cf4f1H
	DD	03cf4f1H
	DD	03cf4f1H
	DD	03cf4f1H
	DD	03cf4f1H
	DD	03cf4f1H
	DD	03cf4f1H
	DD	03cf4f1H
	DD	03cf4f1H
	DD	03cf4f1H
	DD	03cf4f1H
	DD	03cf4f1H
	DD	03df8f5H
	DD	032d3d0H
	DD	014072726H
	DD	0d4000000H
	DD	0ffdededeH
	DD	0ffffffffH
	DD	0ffffffffH
	DD	0ffffffffH
	DD	0ffffffffH
	DD	0ffffffffH
	DD	0ffffffffH
	DD	0ffffffffH
	DD	0ffffffffH
	DD	0ffffffffH
	DD	0ffffffffH
	DD	07d7e7e7eH
	DD	032c6c4H
	DD	040fbf8H
	DD	03bf4f1H
	DD	03cf4f1H
	DD	03cf4f1H
	DD	03cf4f1H
	DD	03cf4f1H
	DD	03cf4f1H
	DD	03cf4f1H
	DD	03cf4f1H
	DD	03cf4f1H
	DD	03cf4f1H
	DD	03cf4f1H
	DD	03cf4f1H
	DD	03cf4f1H
	DD	03cf4f1H
	DD	03cf4f1H
	DD	03cf4f1H
	DD	03cf4f1H
	DD	03cf4f1H
	DD	03cf3f0H
	DD	03cf3f0H
	DD	03cf3f0H
	DD	03cf3f0H
	DD	03cf2efH
	DD	03bf1efH
	DD	03cf1efH
	DD	03bf0edH
	DD	03bf2efH
	DD	03aeeebH
	DD	039c4c2H
	DD	037dad8H
	DD	03bd4d2H
	DD	0728382H
	DD	07d7675H
	DD	07a7878H
	DD	07a7878H
	DD	0797877H
	DD	07a7a78H
	DD	07b7a79H
	DD	07a7878H
	DD	0807e7dH
	DD	06c6b69H
	DD	0242322H
	DD	0424140H
	DD	0797777H
	DD	0817f80H
	DD	07c7a7aH
	DD	07b7a7aH
	DD	07d7b7bH
	DD	07d7b7aH
	DD	07d7c7bH
	DD	07c7c7aH
	DD	07c7c7bH
	DD	07f7e7dH
	DD	07e7c7cH
	DD	07f7d7dH
	DD	07f7d7dH
	DD	07d7c7bH
	DD	07e7d7dH
	DD	07e7d7dH
	DD	07f7d7eH
	DD	07f7e7eH
	DD	07f7e7eH
	DD	0807f7fH
	DD	07e7c7cH
	DD	0817f7eH
	DD	0807f7fH
	DD	0807f7fH
	DD	07c7b7bH
	DD	0858484H
	DD	0e6e6e6H
	DD	0777776H
	DD	0211f1fH
	DD	021201fH
	DD	0363333H
	DD	08b8a89H
	DD	08c8b8bH
	DD	0838282H
	DD	0848382H
	DD	0858484H
	DD	0878686H
	DD	0888787H
	DD	0868585H
	DD	08f8e8eH
	DD	05e5b5aH
	DD	0231817H
	DD	02a2827H
	DD	02f5b5aH
	DD	02f9a99H
	DD	033dcdaH
	DD	03cfcf9H
	DD	03bf7f4H
	DD	03bf7f5H
	DD	03af8f5H
	DD	036e2dfH
	DD	036d3d0H
	DD	03acfccH
	DD	037dedcH
	DD	039f7f4H
	DD	03af7f4H
	DD	03af5f2H
	DD	039f6f3H
	DD	037ede9H
	DD	03bc2bfH
	DD	03fc1beH
	DD	03bc2bfH
	DD	039e6e4H
	DD	039faf8H
	DD	039f9f6H
	DD	039f9f6H
	DD	03af9f7H
	DD	03af9f6H
	DD	039f3f0H
	DD	039f4f1H
	DD	03af8f5H
	DD	03bf7f5H
	DD	03cf5f1H
	DD	03cf4f1H
	DD	03cf4f1H
	DD	03cf3f1H
	DD	03cf4f1H
	DD	03cf4f1H
	DD	03cf4f1H
	DD	03cf4f1H
	DD	03cf4f1H
	DD	03cf4f1H
	DD	03cf4f1H
	DD	03cf4f1H
	DD	03cf4f1H
	DD	03cf4f1H
	DD	03cf4f1H
	DD	03cf4f1H
	DD	03cf4f1H
	DD	03cf4f1H
	DD	03cf4f1H
	DD	03cf4f1H
	DD	03cf4f1H
	DD	03cf4f1H
	DD	03cf4f1H
	DD	03cf4f1H
	DD	03cf4f1H
	DD	03cf4f1H
	DD	03cf4f1H
	DD	03cf4f1H
	DD	03cf4f1H
	DD	03cf4f1H
	DD	03cf4f1H
	DD	03cf4f1H
	DD	03cf4f1H
	DD	03cf4f1H
	DD	03cf4f1H
	DD	03cf4f1H
	DD	03cf4f1H
	DD	03cf4f1H
	DD	03cf4f1H
	DD	03cf4f1H
	DD	03cf4f1H
	DD	03cf4f1H
	DD	03cf4f1H
	DD	03cf4f1H
	DD	03cf4f1H
	DD	03df8f5H
	DD	032d3d0H
	DD	014072726H
	DD	0d4000000H
	DD	0ffdededeH
	DD	0ffffffffH
	DD	0ffffffffH
	DD	0ffffffffH
	DD	0ffffffffH
	DD	0ffffffffH
	DD	0ffffffffH
	DD	0ffffffffH
	DD	0ffffffffH
	DD	0ffffffffH
	DD	0ffffffffH
	DD	07d7e7e7eH
	DD	032c5c4H
	DD	040faf7H
	DD	03bf3f0H
	DD	03cf3f0H
	DD	03cf3f0H
	DD	03cf3f0H
	DD	03cf3f0H
	DD	03cf3f0H
	DD	03cf3f0H
	DD	03cf3f0H
	DD	03cf3f0H
	DD	03cf3f0H
	DD	03cf3f0H
	DD	03cf3f0H
	DD	03cf3f0H
	DD	03cf3f0H
	DD	03cf3f0H
	DD	03cf3f0H
	DD	03cf3f0H
	DD	03cf2f0H
	DD	03cf2efH
	DD	03bf1efH
	DD	03bf0eeH
	DD	03bf0eeH
	DD	03bf0eeH
	DD	03bf0eeH
	DD	03befedH
	DD	03beeecH
	DD	03aeceaH
	DD	03befedH
	DD	03af4f1H
	DD	03bf2f0H
	DD	037f5f3H
	DD	047c0bfH
	DD	07b7878H
	DD	07b7675H
	DD	0797877H
	DD	0797877H
	DD	07a7877H
	DD	07a7878H
	DD	07b7a79H
	DD	07a7979H
	DD	0363535H
	DD	011100fH
	DD	0131211H
	DD	02e2d2cH
	DD	06e6d6cH
	DD	0828080H
	DD	07f7e7eH
	DD	07c7b7aH
	DD	07b7a79H
	DD	07b7a79H
	DD	07e7d7cH
	DD	07c7b7aH
	DD	07d7b7aH
	DD	07d7a7bH
	DD	07f7d7dH
	DD	07f7d7dH
	DD	07d7c7bH
	DD	07d7b7cH
	DD	07d7d7cH
	DD	07d7c7cH
	DD	07e7d7cH
	DD	0817e7eH
	DD	0817e7eH
	DD	07f7e7dH
	DD	07f7e7eH
	DD	0807f7eH
	DD	07f7e7eH
	DD	0817f7eH
	DD	0787676H
	DD	0a2a2a2H
	DD	0e0e0dfH
	DD	0454342H
	DD	022201fH
	DD	0767574H
	DD	08e8d8dH
	DD	0818080H
	DD	0828182H
	DD	0858483H
	DD	0858383H
	DD	0575555H
	DD	05c5a59H
	DD	0838281H
	DD	0858282H
	DD	0393a39H
	DD	0266261H
	DD	02b9f9dH
	DD	038bebcH
	DD	040bcbaH
	DD	03ec2c0H
	DD	03adcdbH
	DD	03ad7d5H
	DD	039cbcaH
	DD	03cb9b7H
	DD	04e716fH
	DD	0595f5cH
	DD	0585a58H
	DD	0586c69H
	DD	04a918fH
	DD	0499491H
	DD	04a8d8cH
	DD	0478a87H
	DD	04a7e7bH
	DD	05c5855H
	DD	05c5653H
	DD	05c5553H
	DD	0547c7aH
	DD	047a4a2H
	DD	041a5a2H
	DD	040acaaH
	DD	041bab8H
	DD	046a7a5H
	DD	054817eH
	DD	0538b89H
	DD	0509d9bH
	DD	03ed6d4H
	DD	038f6f4H
	DD	039f8f6H
	DD	03bfbf7H
	DD	03bfaf7H
	DD	039f8f5H
	DD	039f7f5H
	DD	03afaf8H
	DD	03cf6f4H
	DD	03cf3f0H
	DD	03cf3f0H
	DD	03cf3f0H
	DD	03cf3f0H
	DD	03cf3f0H
	DD	03cf2f0H
	DD	03cf3f0H
	DD	03cf3f0H
	DD	03cf3f0H
	DD	03cf3f0H
	DD	03cf3f0H
	DD	03cf3f0H
	DD	03cf3f0H
	DD	03cf3f0H
	DD	03cf3f0H
	DD	03cf3f0H
	DD	03cf3f0H
	DD	03cf3f0H
	DD	03cf3f0H
	DD	03cf3f0H
	DD	03cf3f0H
	DD	03cf3f0H
	DD	03cf3f0H
	DD	03cf3f0H
	DD	03cf3f0H
	DD	03cf3f0H
	DD	03cf3f0H
	DD	03cf3f0H
	DD	03cf3f0H
	DD	03cf3f0H
	DD	03cf3f0H
	DD	03cf3f0H
	DD	03cf3f0H
	DD	03cf3f0H
	DD	03cf3f0H
	DD	03cf3f0H
	DD	03cf3f0H
	DD	03df7f4H
	DD	032d1cfH
	DD	014072726H
	DD	0d4000000H
	DD	0ffdededeH
	DD	0ffffffffH
	DD	0ffffffffH
	DD	0ffffffffH
	DD	0ffffffffH
	DD	0ffffffffH
	DD	0ffffffffH
	DD	0ffffffffH
	DD	0ffffffffH
	DD	0ffffffffH
	DD	0ffffffffH
	DD	07d7e7e7eH
	DD	032c4c3H
	DD	040f8f7H
	DD	03cf1f0H
	DD	03cf1f0H
	DD	03cf1f0H
	DD	03cf1f0H
	DD	03cf1f0H
	DD	03cf1f0H
	DD	03cf1f0H
	DD	03cf1f0H
	DD	03cf1f0H
	DD	03cf1f0H
	DD	03cf1f0H
	DD	03cf1f0H
	DD	03cf1f0H
	DD	03cf1f0H
	DD	03cf1f0H
	DD	03cf1f0H
	DD	03cf1efH
	DD	03bf1efH
	DD	03bf1efH
	DD	03bf0eeH
	DD	03befedH
	DD	03befedH
	DD	03befedH
	DD	03aedebH
	DD	03aeceaH
	DD	03aebeaH
	DD	039eae8H
	DD	039e9e7H
	DD	039e9e6H
	DD	039e8e6H
	DD	039eae8H
	DD	034efedH
	DD	055a3a2H
	DD	07f7474H
	DD	0787676H
	DD	0797777H
	DD	0797777H
	DD	07a7978H
	DD	07b7979H
	DD	04e4d4cH
	DD	01a1818H
	DD	0242322H
	DD	02f2e2eH
	DD	0312f2fH
	DD	0353332H
	DD	04c494aH
	DD	0706e6dH
	DD	07d7c7bH
	DD	07f7e7dH
	DD	07d7c7bH
	DD	07c7a7aH
	DD	07c7b7aH
	DD	07c7b7bH
	DD	07b7a7aH
	DD	07b7a79H
	DD	07c7b7aH
	DD	07d7c7cH
	DD	07e7d7cH
	DD	07e7d7cH
	DD	0827e7eH
	DD	0867c7cH
	DD	07b7777H
	DD	0787b7aH
	DD	0817e7eH
	DD	07f7d7eH
	DD	07e7d7dH
	DD	0807f7eH
	DD	0807f7eH
	DD	0807f7eH
	DD	0757473H
	DD	0c2c2c1H
	DD	0b6b4b4H
	DD	063615fH
	DD	0898989H
	DD	0818080H
	DD	0838282H
	DD	0838281H
	DD	0898889H
	DD	05c5b5bH
	DD	0181615H
	DD	01a1717H
	DD	0353232H
	DD	03f3b3bH
	DD	02d9190H
	DD	037e9e8H
	DD	0509e9cH
	DD	06a6664H
	DD	06c5d5bH
	DD	0675f5eH
	DD	05e6e6dH
	DD	0606d6bH
	DD	0626664H
	DD	0726a68H
	DD	07a6f6cH
	DD	07b7270H
	DD	0817978H
	DD	0695d5cH
	DD	061514fH
	DD	0635452H
	DD	0635452H
	DD	0625350H
	DD	0817573H
	DD	0928e8dH
	DD	0938e8eH
	DD	0959190H
	DD	08f8787H
	DD	08c807fH
	DD	08e8281H
	DD	0918583H
	DD	08b807eH
	DD	0867a77H
	DD	0837673H
	DD	07d6e6dH
	DD	07a6765H
	DD	06a7c79H
	DD	05c9b99H
	DD	055aaa8H
	DD	045b5b4H
	DD	047b7b6H
	DD	050a2a1H
	DD	052a2a0H
	DD	046b4b2H
	DD	03adddcH
	DD	03bf7f5H
	DD	03cf2f0H
	DD	03bf2f0H
	DD	03cf3f1H
	DD	03cf3f1H
	DD	03cf1efH
	DD	03cf1efH
	DD	03bf1efH
	DD	03cf1f0H
	DD	03cf1f0H
	DD	03cf1f0H
	DD	03cf1f0H
	DD	03cf1f0H
	DD	03cf1f0H
	DD	03cf1f0H
	DD	03cf1f0H
	DD	03cf1f0H
	DD	03cf1f0H
	DD	03cf1f0H
	DD	03cf1f0H
	DD	03cf1f0H
	DD	03cf1f0H
	DD	03cf1f0H
	DD	03cf1f0H
	DD	03cf1f0H
	DD	03cf1f0H
	DD	03cf1f0H
	DD	03cf1f0H
	DD	03cf1f0H
	DD	03cf1f0H
	DD	03cf1f0H
	DD	03cf1f0H
	DD	03cf1f0H
	DD	03cf1f0H
	DD	03cf1f0H
	DD	03cf1f0H
	DD	03cf1f0H
	DD	03df5f4H
	DD	032d0cfH
	DD	014072626H
	DD	0d4000000H
	DD	0ffdededeH
	DD	0ffffffffH
	DD	0ffffffffH
	DD	0ffffffffH
	DD	0ffffffffH
	DD	0ffffffffH
	DD	0ffffffffH
	DD	0ffffffffH
	DD	0ffffffffH
	DD	0ffffffffH
	DD	0ffffffffH
	DD	07d7e7e7eH
	DD	032c4c3H
	DD	03ff8f6H
	DD	03af1efH
	DD	03bf1efH
	DD	03bf1efH
	DD	03bf1efH
	DD	03bf1efH
	DD	03bf1efH
	DD	03bf1efH
	DD	03bf1efH
	DD	03bf1efH
	DD	03bf1efH
	DD	03bf1efH
	DD	03bf1efH
	DD	03bf1efH
	DD	03bf1efH
	DD	03bf1efH
	DD	03bf1efH
	DD	03bf1efH
	DD	03bf0eeH
	DD	03bf0eeH
	DD	03befedH
	DD	03beeecH
	DD	03aecebH
	DD	03aebeaH
	DD	039eae8H
	DD	03ae9e8H
	DD	039e7e6H
	DD	039e6e5H
	DD	038e5e4H
	DD	038e5e4H
	DD	038e5e4H
	DD	038e3e2H
	DD	038eae8H
	DD	036dfdeH
	DD	0658c8cH
	DD	07c7475H
	DD	0797777H
	DD	0787776H
	DD	0777675H
	DD	0979595H
	DD	0535151H
	DD	02a2727H
	DD	0343231H
	DD	032302fH
	DD	0312f2eH
	DD	02d2b2aH
	DD	02e2c2bH
	DD	0444241H
	DD	0595756H
	DD	06c6b6aH
	DD	0777574H
	DD	07c7c7bH
	DD	0807e7dH
	DD	081797aH
	DD	0817978H
	DD	0817978H
	DD	0827a7aH
	DD	082797aH
	DD	0817978H
	DD	0817979H
	DD	0737979H
	DD	05b8786H
	DD	040a8a7H
	DD	033c2c1H
	DD	0698887H
	DD	0847c7cH
	DD	07e7d7dH
	DD	07f7f7eH
	DD	07f7e7dH
	DD	07f7e7eH
	DD	07d7c7cH
	DD	0828181H
	DD	0a2a1a0H
	DD	0868585H
	DD	081807fH
	DD	0818080H
	DD	0807f7fH
	DD	0888786H
	DD	0767474H
	DD	0221f1fH
	DD	0171515H
	DD	0181615H
	DD	01b1717H
	DD	0343535H
	DD	0578684H
	DD	0607b79H
	DD	06a6361H
	DD	069605eH
	DD	065615fH
	DD	065605eH
	DD	0675e5eH
	DD	0686161H
	DD	06a6565H
	DD	06d6b6aH
	DD	06d6d6cH
	DD	0686767H
	DD	05d5c5cH
	DD	03c3938H
	DD	056504eH
	DD	0645e5cH
	DD	0635d5bH
	DD	0625b58H
	DD	066615fH
	DD	06f6c6bH
	DD	0716f6eH
	DD	0747272H
	DD	06a6968H
	DD	060605fH
	DD	0636262H
	DD	06a6969H
	DD	06c6c6cH
	DD	06f706fH
	DD	0767777H
	DD	0606060H
	DD	05d5c5dH
	DD	06d6666H
	DD	0736866H
	DD	0766a69H
	DD	079716fH
	DD	0786f6dH
	DD	0756764H
	DD	0726562H
	DD	06d5d5bH
	DD	04c8684H
	DD	038e2e0H
	DD	038f2f0H
	DD	038f2f1H
	DD	037eeedH
	DD	038efeeH
	DD	039f6f4H
	DD	03af2f1H
	DD	03bf0eeH
	DD	03bf1efH
	DD	03bf1efH
	DD	03bf1efH
	DD	03bf1efH
	DD	03bf1efH
	DD	03bf1efH
	DD	03bf1efH
	DD	03bf1efH
	DD	03bf1efH
	DD	03bf1efH
	DD	03bf1efH
	DD	03bf1efH
	DD	03bf1efH
	DD	03bf1efH
	DD	03bf1efH
	DD	03bf1efH
	DD	03bf1efH
	DD	03bf1efH
	DD	03bf1efH
	DD	03bf1efH
	DD	03bf1efH
	DD	03bf1efH
	DD	03bf1efH
	DD	03bf1efH
	DD	03bf1efH
	DD	03bf1efH
	DD	03bf1efH
	DD	03bf1efH
	DD	03bf1efH
	DD	03cf5f3H
	DD	031d0cfH
	DD	014072626H
	DD	0d4000000H
	DD	0ffdededeH
	DD	0ffffffffH
	DD	0ffffffffH
	DD	0ffffffffH
	DD	0ffffffffH
	DD	0ffffffffH
	DD	0ffffffffH
	DD	0ffffffffH
	DD	0ffffffffH
	DD	0ffffffffH
	DD	0ffffffffH
	DD	07d7e7e7eH
	DD	032c3c3H
	DD	03ff7f5H
	DD	03af0eeH
	DD	03bf0eeH
	DD	03bf0eeH
	DD	03bf0eeH
	DD	03bf0eeH
	DD	03bf0eeH
	DD	03bf0eeH
	DD	03bf0eeH
	DD	03bf0eeH
	DD	03bf0eeH
	DD	03bf0eeH
	DD	03bf0eeH
	DD	03bf0eeH
	DD	03bf0eeH
	DD	03bf0eeH
	DD	03bf0eeH
	DD	03befeeH
	DD	03befeeH
	DD	03beeedH
	DD	03bedecH
	DD	03aedecH
	DD	03aebeaH
	DD	039e9e8H
	DD	039e8e7H
	DD	038e7e5H
	DD	038e5e3H
	DD	038e5e4H
	DD	037e3e2H
	DD	037e3e1H
	DD	037e3e1H
	DD	037e2e0H
	DD	037e1e0H
	DD	033edecH
	DD	04daaa9H
	DD	07d7474H
	DD	0787576H
	DD	0797777H
	DD	0767573H
	DD	08c8b8bH
	DD	0848282H
	DD	03d3b39H
	DD	02f2d2cH
	DD	0343231H
	DD	033302fH
	DD	0312e2dH
	DD	0373535H
	DD	0454342H
	DD	0444241H
	DD	0484645H
	DD	04f4b4aH
	DD	0606060H
	DD	0578787H
	DD	0539b9bH
	DD	0609999H
	DD	064908fH
	DD	0628d8eH
	DD	0589090H
	DD	049a09fH
	DD	03eb1b0H
	DD	038c4c4H
	DD	031dddcH
	DD	035e7e6H
	DD	035edecH
	DD	03dbabaH
	DD	07a7a7aH
	DD	0807d7dH
	DD	07d7c7cH
	DD	07d7c7cH
	DD	07e7d7dH
	DD	07e7d7dH
	DD	07e7d7cH
	DD	07b7a79H
	DD	0807f7fH
	DD	0818080H
	DD	0818080H
	DD	0828181H
	DD	0858484H
	DD	0343231H
	DD	0131010H
	DD	0262322H
	DD	0393735H
	DD	0484544H
	DD	04a4847H
	DD	05f5452H
	DD	0675c5aH
	DD	05a5554H
	DD	04f4c4bH
	DD	0474645H
	DD	0484847H
	DD	0434242H
	DD	0403f3fH
	DD	04b4b4aH
	DD	0535050H
	DD	0595554H
	DD	05c5856H
	DD	05e5856H
	DD	05f5957H
	DD	0635c5aH
	DD	0635c5aH
	DD	0635c5aH
	DD	0655f5cH
	DD	067615eH
	DD	067615eH
	DD	0696260H
	DD	068615fH
	DD	068615eH
	DD	0665f5bH
	DD	0655f5bH
	DD	067615fH
	DD	0645d5cH
	DD	0605b59H
	DD	05c5856H
	DD	0514e4cH
	DD	0434140H
	DD	03b3b3aH
	DD	0363635H
	DD	0373737H
	DD	0444242H
	DD	0535150H
	DD	0605c5bH
	DD	06d6966H
	DD	0716a67H
	DD	06e6664H
	DD	0667573H
	DD	05c8c8bH
	DD	0589493H
	DD	0638a89H
	DD	0628d8cH
	DD	051b7b6H
	DD	03ce4e3H
	DD	03af2f1H
	DD	03bf0efH
	DD	03bf0efH
	DD	03bf0eeH
	DD	03bf0eeH
	DD	03bf0eeH
	DD	03bf0eeH
	DD	03bf0eeH
	DD	03bf0eeH
	DD	03bf0eeH
	DD	03bf0eeH
	DD	03bf0eeH
	DD	03bf0eeH
	DD	03bf0eeH
	DD	03bf0eeH
	DD	03bf0eeH
	DD	03bf0eeH
	DD	03bf0eeH
	DD	03bf0eeH
	DD	03bf0eeH
	DD	03bf0eeH
	DD	03bf0eeH
	DD	03bf0eeH
	DD	03bf0eeH
	DD	03bf0eeH
	DD	03bf0eeH
	DD	03bf0eeH
	DD	03bf0eeH
	DD	03bf0eeH
	DD	03bf0eeH
	DD	03cf4f2H
	DD	031cfceH
	DD	014072626H
	DD	0d4000000H
	DD	0ffdededeH
	DD	0ffffffffH
	DD	0ffffffffH
	DD	0ffffffffH
	DD	0ffffffffH
	DD	0ffffffffH
	DD	0ffffffffH
	DD	0ffffffffH
	DD	0ffffffffH
	DD	0ffffffffH
	DD	0ffffffffH
	DD	07d7e7e7eH
	DD	031c2c2H
	DD	03ff5f5H
	DD	03aeeeeH
	DD	03beeeeH
	DD	03beeeeH
	DD	03beeeeH
	DD	03beeeeH
	DD	03beeeeH
	DD	03beeeeH
	DD	03beeeeH
	DD	03beeeeH
	DD	03beeeeH
	DD	03beeeeH
	DD	03beeeeH
	DD	03beeeeH
	DD	03beeeeH
	DD	03beeeeH
	DD	03beeeeH
	DD	03beeedH
	DD	03beeedH
	DD	03aedecH
	DD	03aecebH
	DD	03aebeaH
	DD	039e9e9H
	DD	039e8e7H
	DD	038e6e5H
	DD	038e5e4H
	DD	038e3e2H
	DD	037e2e1H
	DD	037e2e1H
	DD	037e0dfH
	DD	036e0dfH
	DD	036dedeH
	DD	036e2e1H
	DD	035dbdaH
	DD	0669190H
	DD	07c7473H
	DD	0777675H
	DD	0787675H
	DD	0797776H
	DD	0767474H
	DD	0838181H
	DD	08a8887H
	DD	052504fH
	DD	0322f2eH
	DD	0353231H
	DD	0333030H
	DD	03b3938H
	DD	0474544H
	DD	0474544H
	DD	0494645H
	DD	04b4746H
	DD	04e4847H
	DD	0455957H
	DD	0358281H
	DD	02ec0bfH
	DD	030e2e2H
	DD	030e4e3H
	DD	033e5e3H
	DD	034e5e4H
	DD	034e4e3H
	DD	034e1e1H
	DD	035dddcH
	DD	035dad9H
	DD	035dbdaH
	DD	032e3e2H
	DD	0519a9aH
	DD	0827979H
	DD	07d7c7cH
	DD	07e7d7dH
	DD	07e7d7dH
	DD	07e7d7dH
	DD	07f7e7eH
	DD	07f7e7eH
	DD	07f7e7eH
	DD	07e7d7dH
	DD	0807f7eH
	DD	0848383H
	DD	0515050H
	DD	0242221H
	DD	043403fH
	DD	04f4c4bH
	DD	04b4a49H
	DD	0403f3fH
	DD	03d3c3cH
	DD	04c4a49H
	DD	0403d3bH
	DD	0312f2fH
	DD	0302f2fH
	DD	031302fH
	DD	0333232H
	DD	03c3b39H
	DD	0534f4eH
	DD	0605b59H
	DD	0645e5cH
	DD	0655f5cH
	DD	0655e5cH
	DD	0686260H
	DD	066605eH
	DD	0676261H
	DD	0747070H
	DD	0868383H
	DD	0989695H
	DD	0a7a6a5H
	DD	0b0afafH
	DD	0b1b0b0H
	DD	0adacabH
	DD	0a2a0a0H
	DD	09f9e9dH
	DD	08d8b8aH
	DD	06f6b69H
	DD	06e6966H
	DD	06f6967H
	DD	0716a68H
	DD	0736c68H
	DD	0706967H
	DD	06b6563H
	DD	0605b59H
	DD	04e4a49H
	DD	0494644H
	DD	0504c4bH
	DD	0595554H
	DD	0645f5cH
	DD	06c6663H
	DD	06d6563H
	DD	06f6361H
	DD	0746462H
	DD	0736462H
	DD	0716361H
	DD	0716361H
	DD	06f5e5eH
	DD	045babaH
	DD	034f7f7H
	DD	037f1f1H
	DD	038f3f2H
	DD	03bf1f0H
	DD	03beeeeH
	DD	03beeedH
	DD	03beeedH
	DD	03beeeeH
	DD	03beeeeH
	DD	03beeeeH
	DD	03beeeeH
	DD	03beeeeH
	DD	03beeeeH
	DD	03beeeeH
	DD	03beeeeH
	DD	03beeeeH
	DD	03beeeeH
	DD	03beeeeH
	DD	03beeeeH
	DD	03beeeeH
	DD	03beeeeH
	DD	03beeeeH
	DD	03beeeeH
	DD	03beeeeH
	DD	03beeeeH
	DD	03beeeeH
	DD	03beeeeH
	DD	03beeeeH
	DD	03beeeeH
	DD	03beeeeH
	DD	03cf2f2H
	DD	031cecdH
	DD	014072626H
	DD	0d4000000H
	DD	0ffdededeH
	DD	0ffffffffH
	DD	0ffffffffH
	DD	0ffffffffH
	DD	0ffffffffH
	DD	0ffffffffH
	DD	0ffffffffH
	DD	0ffffffffH
	DD	0ffffffffH
	DD	0ffffffffH
	DD	0ffffffffH
	DD	07d7e7e7eH
	DD	031c2c2H
	DD	03ff5f4H
	DD	03aeeedH
	DD	03beeedH
	DD	03beeedH
	DD	03beeedH
	DD	03beeedH
	DD	03beeedH
	DD	03beeedH
	DD	03beeedH
	DD	03beeedH
	DD	03beeedH
	DD	03beeedH
	DD	03beeedH
	DD	03beeedH
	DD	03beeedH
	DD	03beeedH
	DD	03beeedH
	DD	03bededH
	DD	03aedecH
	DD	03aececH
	DD	03aebebH
	DD	03aeae9H
	DD	039e8e7H
	DD	039e6e6H
	DD	038e5e4H
	DD	038e2e2H
	DD	037e1e1H
	DD	037e0dfH
	DD	037dfdfH
	DD	036ddddH
	DD	036dbdbH
	DD	036dcdbH
	DD	034e1e0H
	DD	03bc6c5H
	DD	0797878H
	DD	0787373H
	DD	0777574H
	DD	0777676H
	DD	0777676H
	DD	0797777H
	DD	0767574H
	DD	07d7c7bH
	DD	08c8b8aH
	DD	0646261H
	DD	0393635H
	DD	033312fH
	DD	0373432H
	DD	0474442H
	DD	04a4645H
	DD	0484544H
	DD	0494544H
	DD	04a4746H
	DD	04e4745H
	DD	0514745H
	DD	04d5352H
	DD	03f7f7eH
	DD	036abaaH
	DD	02fc7c7H
	DD	031d8d7H
	DD	032ddddH
	DD	033dedeH
	DD	034deddH
	DD	034dedeH
	DD	034ddddH
	DD	034e2e1H
	DD	032d4d4H
	DD	0688585H
	DD	0817b7bH
	DD	07e7d7dH
	DD	07d7c7cH
	DD	07e7c7cH
	DD	07f7e7dH
	DD	0807f7eH
	DD	0807f7fH
	DD	07f7e7eH
	DD	07c7b7bH
	DD	0929191H
	DD	06a6868H
	DD	0454342H
	DD	0514f4eH
	DD	0464544H
	DD	041403fH
	DD	0424140H
	DD	0454342H
	DD	03e3c3cH
	DD	0232121H
	DD	0242222H
	DD	0272626H
	DD	0272626H
	DD	0343332H
	DD	05c5754H
	DD	0645e5cH
	DD	0625d5aH
	DD	0615c5aH
	DD	0615c5aH
	DD	0645d5bH
	DD	0504c4aH
	DD	04d4b49H
	DD	0605f5fH
	DD	0767676H
	DD	0807f7fH
	DD	0878686H
	DD	08e8d8cH
	DD	0939190H
	DD	0918e8eH
	DD	0908e8eH
	DD	08b8a89H
	DD	0979796H
	DD	0898888H
	DD	0565756H
	DD	0515150H
	DD	0585655H
	DD	05f5c5bH
	DD	0605b5aH
	DD	06d6764H
	DD	06e6865H
	DD	0706967H
	DD	0716b68H
	DD	0726b69H
	DD	0716a67H
	DD	0726d6aH
	DD	085817fH
	DD	08d8987H
	DD	08d8a89H
	DD	09a9797H
	DD	0848180H
	DD	067615eH
	DD	0726b69H
	DD	06e6865H
	DD	06e6462H
	DD	05b8887H
	DD	047a1a0H
	DD	04a9f9eH
	DD	047adacH
	DD	039e4e3H
	DD	03bf0efH
	DD	03bededH
	DD	03bededH
	DD	03beeedH
	DD	03beeedH
	DD	03beeedH
	DD	03beeedH
	DD	03beeedH
	DD	03beeedH
	DD	03beeedH
	DD	03beeedH
	DD	03beeedH
	DD	03beeedH
	DD	03beeedH
	DD	03beeedH
	DD	03beeedH
	DD	03beeedH
	DD	03beeedH
	DD	03beeedH
	DD	03beeedH
	DD	03beeedH
	DD	03beeedH
	DD	03beeedH
	DD	03beeedH
	DD	03beeedH
	DD	03beeedH
	DD	03cf2f1H
	DD	031cdcdH
	DD	014072626H
	DD	0d4000000H
	DD	0ffdededeH
	DD	0ffffffffH
	DD	0ffffffffH
	DD	0ffffffffH
	DD	0ffffffffH
	DD	0ffffffffH
	DD	0ffffffffH
	DD	0ffffffffH
	DD	0ffffffffH
	DD	0ffffffffH
	DD	0ffffffffH
	DD	07d7e7e7eH
	DD	031c1c1H
	DD	03ff3f4H
	DD	03aecedH
	DD	03becedH
	DD	03becedH
	DD	03becedH
	DD	03becedH
	DD	03becedH
	DD	03becedH
	DD	03becedH
	DD	03becedH
	DD	03becedH
	DD	03becedH
	DD	03becedH
	DD	03becedH
	DD	03becedH
	DD	03becedH
	DD	03becedH
	DD	03aececH
	DD	03aececH
	DD	03aebebH
	DD	03aeaeaH
	DD	039e9e9H
	DD	039e6e6H
	DD	038e5e5H
	DD	038e3e3H
	DD	037e0e0H
	DD	036dedeH
	DD	036ddddH
	DD	035dbdbH
	DD	035dadaH
	DD	035d9d9H
	DD	034d6d6H
	DD	034d7d7H
	DD	032d6d6H
	DD	0509999H
	DD	07c7373H
	DD	0777574H
	DD	0777676H
	DD	0797877H
	DD	07b7777H
	DD	0797676H
	DD	0777575H
	DD	0797677H
	DD	0898887H
	DD	07f7c7bH
	DD	0565352H
	DD	0393533H
	DD	03e3b3aH
	DD	04d4a48H
	DD	04a4645H
	DD	0494644H
	DD	0494544H
	DD	0494544H
	DD	0494544H
	DD	04b4543H
	DD	04f4341H
	DD	04c4745H
	DD	0495655H
	DD	0416d6cH
	DD	0358f8eH
	DD	033a4a4H
	DD	032adadH
	DD	030b2b2H
	DD	031bcbcH
	DD	031c0bfH
	DD	02eb9b8H
	DD	04b8a8aH
	DD	0817b7aH
	DD	07d7b7bH
	DD	07c7b7bH
	DD	07e7c7cH
	DD	07e7d7cH
	DD	0807f7eH
	DD	07d7c7cH
	DD	07d7c7dH
	DD	0797878H
	DD	09a9999H
	DD	0c5c6c5H
	DD	0494847H
	DD	0454343H
	DD	0494847H
	DD	0474545H
	DD	0383636H
	DD	01f1e1dH
	DD	0f0f0eH
	DD	0131211H
	DD	01a1919H
	DD	01d1c1cH
	DD	01c1d1cH
	DD	0323030H
	DD	05f5a57H
	DD	05e5856H
	DD	05f5a57H
	DD	05f5957H
	DD	0605b59H
	DD	0625c5aH
	DD	03a3432H
	DD	0343130H
	DD	0484544H
	DD	0504c4bH
	DD	05f5a58H
	DD	067615fH
	DD	0625c59H
	DD	0625b59H
	DD	0625c5aH
	DD	0655f5bH
	DD	066605dH
	DD	0686260H
	DD	0696462H
	DD	0635f5dH
	DD	0575453H
	DD	04a4847H
	DD	0424140H
	DD	02e2c2bH
	DD	047423fH
	DD	0706965H
	DD	06c6664H
	DD	06d6764H
	DD	06d6664H
	DD	06d6663H
	DD	06f6967H
	DD	0787676H
	DD	0767575H
	DD	06b6a69H
	DD	0646363H
	DD	0424140H
	DD	0312e2dH
	DD	0696260H
	DD	0716a68H
	DD	06f6966H
	DD	0706562H
	DD	06f605dH
	DD	0857976H
	DD	0988987H
	DD	05facacH
	DD	033ebecH
	DD	03aededH
	DD	03aebebH
	DD	03bececH
	DD	03becedH
	DD	03becedH
	DD	03becedH
	DD	03becedH
	DD	03becedH
	DD	03becedH
	DD	03becedH
	DD	03becedH
	DD	03becedH
	DD	03becedH
	DD	03becedH
	DD	03becedH
	DD	03becedH
	DD	03becedH
	DD	03becedH
	DD	03becedH
	DD	03becedH
	DD	03becedH
	DD	03becedH
	DD	03becedH
	DD	03becedH
	DD	03becedH
	DD	03cf0f1H
	DD	031ccccH
	DD	014072626H
	DD	0d4000000H
	DD	0ffdededeH
	DD	0ffffffffH
	DD	0ffffffffH
	DD	0ffffffffH
	DD	0ffffffffH
	DD	0ffffffffH
	DD	0ffffffffH
	DD	0ffffffffH
	DD	0ffffffffH
	DD	0ffffffffH
	DD	0ffffffffH
	DD	07d7e7e7eH
	DD	031c0c1H
	DD	03ef2f3H
	DD	039ebecH
	DD	03aebecH
	DD	03aebecH
	DD	03aebecH
	DD	03aebecH
	DD	03aebecH
	DD	03aebecH
	DD	03aebecH
	DD	03aebecH
	DD	03aebecH
	DD	03aebecH
	DD	03aebecH
	DD	03aebecH
	DD	03aebecH
	DD	03aebecH
	DD	03aebecH
	DD	03aebecH
	DD	03aebebH
	DD	03aeaeaH
	DD	03ae9eaH
	DD	039e7e8H
	DD	039e6e6H
	DD	038e4e4H
	DD	037e2e2H
	DD	036dfdeH
	DD	036ddddH
	DD	035dbdbH
	DD	035d8d9H
	DD	034d7d8H
	DD	034d5d6H
	DD	033d2d3H
	DD	033d1d2H
	DD	032d3d4H
	DD	02ed4d5H
	DD	04f9797H
	DD	07e7574H
	DD	0746b6bH
	DD	04a4646H
	DD	0696c6cH
	DD	0807b7aH
	DD	0797776H
	DD	0787676H
	DD	0777675H
	DD	081807fH
	DD	08b8988H
	DD	07c7a79H
	DD	0575453H
	DD	0494544H
	DD	04a4645H
	DD	0484542H
	DD	0484443H
	DD	0474341H
	DD	0474341H
	DD	0474342H
	DD	0474341H
	DD	0494342H
	DD	04b4140H
	DD	04d4241H
	DD	04f4341H
	DD	04d4441H
	DD	04a4846H
	DD	0494d4cH
	DD	04b5554H
	DD	0525f5dH
	DD	0636563H
	DD	0767574H
	DD	07f7f7eH
	DD	07c7c7bH
	DD	07c7b7aH
	DD	07d7c7cH
	DD	07d7c7bH
	DD	07f7e7dH
	DD	07e7d7cH
	DD	07e7d7dH
	DD	07f7e7dH
	DD	0747372H
	DD	0bebebdH
	DD	0a4a3a2H
	DD	0434140H
	DD	0383636H
	DD	01b1a1aH
	DD	0d0c0cH
	DD	0353130H
	DD	0353230H
	DD	0302d2bH
	DD	0393634H
	DD	03d3938H
	DD	0413d3cH
	DD	0474240H
	DD	0544e4cH
	DD	057514fH
	DD	05d5755H
	DD	05e5956H
	DD	05e5857H
	DD	05f5a58H
	DD	05d5756H
	DD	04f4847H
	DD	04c4643H
	DD	03c3634H
	DD	0353130H
	DD	0605c5bH
	DD	06c6664H
	DD	06d6764H
	DD	06b6462H
	DD	0686260H
	DD	0686260H
	DD	0696361H
	DD	06c6664H
	DD	0686361H
	DD	0534e4bH
	DD	0544d4bH
	DD	04b4543H
	DD	0363230H
	DD	0514b48H
	DD	06f6866H
	DD	06c6664H
	DD	06c6663H
	DD	06b6664H
	DD	06d6765H
	DD	06f6967H
	DD	053504fH
	DD	0494848H
	DD	0444443H
	DD	0424141H
	DD	02c2b2aH
	DD	0f0e0eH
	DD	046403fH
	DD	0746d6bH
	DD	06f6866H
	DD	06f6866H
	DD	06f6766H
	DD	0736f6dH
	DD	07c7170H
	DD	0588b8aH
	DD	031e1e2H
	DD	03aedeeH
	DD	03aebebH
	DD	03aebecH
	DD	03aebecH
	DD	03aebecH
	DD	03aebecH
	DD	03aebecH
	DD	03aebecH
	DD	03aebecH
	DD	03aebecH
	DD	03aebecH
	DD	03aebecH
	DD	03aebecH
	DD	03aebecH
	DD	03aebecH
	DD	03aebecH
	DD	03aebecH
	DD	03aebecH
	DD	03aebecH
	DD	03aebecH
	DD	03aebecH
	DD	03aebecH
	DD	03aebecH
	DD	03aebecH
	DD	03aebecH
	DD	03beff0H
	DD	030cbccH
	DD	014072526H
	DD	0d4000000H
	DD	0ffdededeH
	DD	0ffffffffH
	DD	0ffffffffH
	DD	0ffffffffH
	DD	0ffffffffH
	DD	0ffffffffH
	DD	0ffffffffH
	DD	0ffffffffH
	DD	0ffffffffH
	DD	0ffffffffH
	DD	0ffffffffH
	DD	07d7e7e7eH
	DD	031bfc0H
	DD	03ef2f2H
	DD	039ebebH
	DD	03aebebH
	DD	03aebebH
	DD	03aebebH
	DD	03aebebH
	DD	03aebebH
	DD	03aebebH
	DD	03aebebH
	DD	03aebebH
	DD	03aebebH
	DD	03aebebH
	DD	03aebebH
	DD	03aebebH
	DD	03aebebH
	DD	03aebebH
	DD	03aebebH
	DD	03aeaebH
	DD	03aeaebH
	DD	03ae9eaH
	DD	039e8e9H
	DD	039e6e7H
	DD	038e4e5H
	DD	038e2e3H
	DD	037dfe1H
	DD	036ddddH
	DD	036dadbH
	DD	035d8d9H
	DD	034d5d6H
	DD	033d2d3H
	DD	033d1d2H
	DD	032cecfH
	DD	031cbccH
	DD	031cacaH
	DD	031cdcdH
	DD	02dcbccH
	DD	04d9393H
	DD	04a6c6cH
	DD	0278081H
	DD	02cadaeH
	DD	0529192H
	DD	07d7776H
	DD	07e7978H
	DD	0797878H
	DD	07a7878H
	DD	0797877H
	DD	0828081H
	DD	08a8888H
	DD	07c7a78H
	DD	06b6765H
	DD	05d5956H
	DD	04f4b49H
	DD	0484442H
	DD	0474240H
	DD	045413fH
	DD	045403eH
	DD	045403eH
	DD	046413fH
	DD	046403eH
	DD	0474341H
	DD	04c4745H
	DD	0534c4aH
	DD	05f5755H
	DD	06e6562H
	DD	07b7473H
	DD	0817d7cH
	DD	07d7b7aH
	DD	07c7b7bH
	DD	07d7d7cH
	DD	07c7b7aH
	DD	07d7c7cH
	DD	07f7e7eH
	DD	0828181H
	DD	080807fH
	DD	07d7c7cH
	DD	07a7979H
	DD	0747473H
	DD	07e7e7dH
	DD	06f6d6dH
	DD	0191717H
	DD	0f0e0eH
	DD	0181716H
	DD	0353231H
	DD	04f4a48H
	DD	0504c4aH
	DD	0524d4bH
	DD	055504eH
	DD	0666260H
	DD	0746f6eH
	DD	07b7877H
	DD	0827f7eH
	DD	0848281H
	DD	0585554H
	DD	0585351H
	DD	0615c59H
	DD	05f5a57H
	DD	05f5a57H
	DD	0615b59H
	DD	0615a58H
	DD	057524fH
	DD	0484342H
	DD	0514e4dH
	DD	0666262H
	DD	07d7a7aH
	DD	08e8c8bH
	DD	0969492H
	DD	0989694H
	DD	0918e8dH
	DD	0777474H
	DD	0575453H
	DD	0433f3eH
	DD	05d5856H
	DD	0665f5dH
	DD	0696360H
	DD	06d6764H
	DD	06a6461H
	DD	06b6562H
	DD	06d6764H
	DD	06f6866H
	DD	06f6967H
	DD	0565351H
	DD	0393737H
	DD	0434242H
	DD	03d3c3cH
	DD	03f3e3dH
	DD	0242424H
	DD	080707H
	DD	04e4846H
	DD	0746d6aH
	DD	06f6866H
	DD	06f6866H
	DD	06f6866H
	DD	0756f6dH
	DD	0817977H
	DD	07d7b79H
	DD	0589796H
	DD	034e0e0H
	DD	03bebedH
	DD	03aeaebH
	DD	03aebebH
	DD	03aebebH
	DD	03aebebH
	DD	03aebebH
	DD	03aebebH
	DD	03aebebH
	DD	03aebebH
	DD	03aebebH
	DD	03aebebH
	DD	03aebebH
	DD	03aebebH
	DD	03aebebH
	DD	03aebebH
	DD	03aebebH
	DD	03aebebH
	DD	03aebebH
	DD	03aebebH
	DD	03aebebH
	DD	03aebebH
	DD	03aebebH
	DD	03aebebH
	DD	03aebebH
	DD	03befefH
	DD	030cbcbH
	DD	014072525H
	DD	0d4000000H
	DD	0ffdededeH
	DD	0ffffffffH
	DD	0ffffffffH
	DD	0ffffffffH
	DD	0ffffffffH
	DD	0ffffffffH
	DD	0ffffffffH
	DD	0ffffffffH
	DD	0ffffffffH
	DD	0ffffffffH
	DD	0ffffffffH
	DD	07d7e7e7eH
	DD	031bec0H
	DD	03ef0f2H
	DD	039e9ebH
	DD	03ae9ebH
	DD	03ae9ebH
	DD	03ae9ebH
	DD	03ae9ebH
	DD	03ae9ebH
	DD	03ae9ebH
	DD	03ae9ebH
	DD	03ae9ebH
	DD	03ae9ebH
	DD	03ae9ebH
	DD	03ae9ebH
	DD	03ae9ebH
	DD	03ae9ebH
	DD	03ae9ebH
	DD	03ae9ebH
	DD	03ae9ebH
	DD	03ae9eaH
	DD	039e8e9H
	DD	039e7e8H
	DD	039e5e6H
	DD	038e3e4H
	DD	037e1e2H
	DD	037dedfH
	DD	036dadbH
	DD	035d7d8H
	DD	033d3d4H
	DD	032d0d1H
	DD	032cdceH
	DD	031cacbH
	DD	030c7c8H
	DD	030c5c6H
	DD	02fc3c4H
	DD	02ec1c2H
	DD	02ec1c3H
	DD	02abebfH
	DD	029bbbcH
	DD	02dc5c6H
	DD	02dc2c3H
	DD	028bcbdH
	DD	0419a9bH
	DD	0757d7cH
	DD	07f7a79H
	DD	07a7979H
	DD	07b7a79H
	DD	07a7878H
	DD	07b7a7aH
	DD	0808080H
	DD	0858384H
	DD	0868383H
	DD	0817f7eH
	DD	0757171H
	DD	06a6564H
	DD	0625e5cH
	DD	0605b59H
	DD	05c5655H
	DD	0595552H
	DD	05f5b58H
	DD	0676461H
	DD	06f6b6aH
	DD	0757271H
	DD	07c7a79H
	DD	07e7d7dH
	DD	07c7b7bH
	DD	07c7b7aH
	DD	07a7979H
	DD	07a797aH
	DD	07b7a7aH
	DD	07d7c7bH
	DD	0838282H
	DD	07c7b7bH
	DD	0545252H
	DD	05c5a59H
	DD	07d7c7cH
	DD	0787777H
	DD	0737272H
	DD	0414040H
	DD	0a0909H
	DD	0d0c0cH
	DD	0272524H
	DD	0454241H
	DD	04a4747H
	DD	0433f3dH
	DD	0484442H
	DD	04a4745H
	DD	04d4847H
	DD	06c6968H
	DD	07a7979H
	DD	0747474H
	DD	06d6d6dH
	DD	0696869H
	DD	02c2b2bH
	DD	02d2c2bH
	DD	04b4948H
	DD	05b5756H
	DD	0696564H
	DD	06b6764H
	DD	06a6563H
	DD	067615fH
	DD	066605eH
	DD	0625b59H
	DD	05e5855H
	DD	05e5956H
	DD	0625c5aH
	DD	0655f5dH
	DD	067605eH
	DD	0696361H
	DD	0686260H
	DD	067615fH
	DD	06a6562H
	DD	06a6462H
	DD	06b6563H
	DD	06c6563H
	DD	06d6765H
	DD	06f6967H
	DD	0726c6aH
	DD	06f6a68H
	DD	0615d5cH
	DD	0454342H
	DD	0252322H
	DD	02c2a2aH
	DD	03c3b3bH
	DD	0323232H
	DD	0343434H
	DD	0282727H
	DD	0423f3dH
	DD	0726b68H
	DD	06f6966H
	DD	06d6764H
	DD	0716a67H
	DD	05a5452H
	DD	06b6968H
	DD	0b4b3b4H
	DD	0bfb5b5H
	DD	07e9c9cH
	DD	02dd6d7H
	DD	03aebedH
	DD	03ae8eaH
	DD	03ae9eaH
	DD	03ae9eaH
	DD	03ae9ebH
	DD	03ae9ebH
	DD	03ae9ebH
	DD	03ae9ebH
	DD	03ae9ebH
	DD	03ae9ebH
	DD	03ae9ebH
	DD	03ae9ebH
	DD	03ae9ebH
	DD	03ae9ebH
	DD	03ae9ebH
	DD	03ae9ebH
	DD	03ae9ebH
	DD	03ae9ebH
	DD	03ae9ebH
	DD	03ae9ebH
	DD	03ae9ebH
	DD	03ae9ebH
	DD	03ae9ebH
	DD	03ae9ebH
	DD	03bedefH
	DD	030c9cbH
	DD	014072525H
	DD	0d4000000H
	DD	0ffdededeH
	DD	0ffffffffH
	DD	0ffffffffH
	DD	0ffffffffH
	DD	0ffffffffH
	DD	0ffffffffH
	DD	0ffffffffH
	DD	0ffffffffH
	DD	0ffffffffH
	DD	0ffffffffH
	DD	0ffffffffH
	DD	07d7e7e7eH
	DD	031bdbfH
	DD	03eeff1H
	DD	039e8eaH
	DD	03ae8eaH
	DD	03ae8eaH
	DD	03ae8eaH
	DD	03ae8eaH
	DD	03ae8eaH
	DD	03ae8eaH
	DD	03ae8eaH
	DD	03ae8eaH
	DD	03ae8eaH
	DD	03ae8eaH
	DD	03ae8eaH
	DD	03ae8eaH
	DD	03ae8eaH
	DD	03ae8eaH
	DD	03ae8eaH
	DD	03ae8eaH
	DD	039e8e9H
	DD	039e7e9H
	DD	039e6e8H
	DD	039e5e6H
	DD	038e3e4H
	DD	037e0e1H
	DD	036dcdeH
	DD	035d8daH
	DD	034d4d6H
	DD	032cfd1H
	DD	032ccceH
	DD	030c9caH
	DD	02fc3c4H
	DD	02dbec0H
	DD	02cb9baH
	DD	02bb6b7H
	DD	029b2b3H
	DD	028aeafH
	DD	028adaeH
	DD	028aeb0H
	DD	028aaacH
	DD	027aaabH
	DD	028acadH
	DD	022b1b3H
	DD	035999aH
	DD	0757977H
	DD	07d7a79H
	DD	07c7a7aH
	DD	07d7b7bH
	DD	07c7b7aH
	DD	07b7a79H
	DD	07c7a7aH
	DD	07c7b7aH
	DD	0807e7eH
	DD	0838181H
	DD	0858383H
	DD	0858383H
	DD	0838282H
	DD	0828080H
	DD	081807fH
	DD	081807eH
	DD	0807f7eH
	DD	07f7e7eH
	DD	07f7e7dH
	DD	07e7d7cH
	DD	07a7979H
	DD	07b7a7aH
	DD	07b7a79H
	DD	07b7a7aH
	DD	07a7979H
	DD	07e7d7dH
	DD	081807fH
	DD	0646262H
	DD	0333130H
	DD	0242221H
	DD	0333130H
	DD	0636160H
	DD	0777575H
	DD	0434242H
	DD	0161616H
	DD	0b0b0aH
	DD	0393938H
	DD	0666564H
	DD	0676767H
	DD	05d5d5cH
	DD	02d2c2bH
	DD	0353232H
	DD	03e3b3aH
	DD	0474342H
	DD	0494443H
	DD	0494543H
	DD	04a4644H
	DD	0494645H
	DD	0484746H
	DD	0242322H
	DD	0191918H
	DD	01d1d1dH
	DD	0242524H
	DD	0393939H
	DD	0494948H
	DD	0656564H
	DD	08b8b8aH
	DD	08f8e8dH
	DD	0959392H
	DD	093908fH
	DD	0908c8bH
	DD	08e8a88H
	DD	08c8887H
	DD	08d8987H
	DD	0767170H
	DD	067605eH
	DD	0696260H
	DD	0696361H
	DD	0696361H
	DD	0686260H
	DD	0746f6eH
	DD	07b7978H
	DD	06d6b6bH
	DD	0595857H
	DD	0454443H
	DD	02b2a29H
	DD	01b1a1aH
	DD	0111110H
	DD	0232323H
	DD	0373737H
	DD	03f3d3dH
	DD	0524f4eH
	DD	0686461H
	DD	0756d6bH
	DD	0716a67H
	DD	0716a68H
	DD	0716a67H
	DD	0716a67H
	DD	05c5654H
	DD	05f5a58H
	DD	0898786H
	DD	09b9494H
	DD	06a9293H
	DD	030d9dbH
	DD	039e7e9H
	DD	039e5e7H
	DD	039e7e8H
	DD	03ae8eaH
	DD	03ae8eaH
	DD	03ae8eaH
	DD	03ae8eaH
	DD	03ae8eaH
	DD	03ae8eaH
	DD	03ae8eaH
	DD	03ae8eaH
	DD	03ae8eaH
	DD	03ae8eaH
	DD	03ae8eaH
	DD	03ae8eaH
	DD	03ae8eaH
	DD	03ae8eaH
	DD	03ae8eaH
	DD	03ae8eaH
	DD	03ae8eaH
	DD	03ae8eaH
	DD	03ae8eaH
	DD	03ae8eaH
	DD	03ae8eaH
	DD	03beceeH
	DD	030c8caH
	DD	014072525H
	DD	0d4000000H
	DD	0ffdededeH
	DD	0ffffffffH
	DD	0ffffffffH
	DD	0ffffffffH
	DD	0ffffffffH
	DD	0ffffffffH
	DD	0ffffffffH
	DD	0ffffffffH
	DD	0ffffffffH
	DD	0ffffffffH
	DD	0ffffffffH
	DD	07d7e7e7eH
	DD	030bdbfH
	DD	03eeff1H
	DD	039e8eaH
	DD	03ae8eaH
	DD	03ae8eaH
	DD	03ae8eaH
	DD	03ae8eaH
	DD	03ae8eaH
	DD	03ae8eaH
	DD	03ae8eaH
	DD	03ae8eaH
	DD	03ae8eaH
	DD	03ae8eaH
	DD	03ae8eaH
	DD	03ae8eaH
	DD	03ae8eaH
	DD	03ae8eaH
	DD	03ae8eaH
	DD	03ae8eaH
	DD	039e7e9H
	DD	039e7e9H
	DD	039e6e8H
	DD	039e4e6H
	DD	038e2e5H
	DD	037e0e2H
	DD	036dcdeH
	DD	035d8d9H
	DD	034d4d6H
	DD	032cfd1H
	DD	030cacbH
	DD	030c5c7H
	DD	02dbec0H
	DD	02bb7b9H
	DD	029b1b3H
	DD	027a9abH
	DD	025a3a4H
	DD	0249c9cH
	DD	0229698H
	DD	01f9091H
	DD	01f8c8dH
	DD	01e898aH
	DD	01d8788H
	DD	01b8788H
	DD	0218a8bH
	DD	06a7a79H
	DD	0807b7aH
	DD	07b7a79H
	DD	07c7a7aH
	DD	07d7b7bH
	DD	07e7d7cH
	DD	07d7b7bH
	DD	07e7d7cH
	DD	07e7d7cH
	DD	07b7979H
	DD	07d7c7bH
	DD	07d7c7bH
	DD	07a7a79H
	DD	07d7c7cH
	DD	07e7d7dH
	DD	07d7c7bH
	DD	07d7c7cH
	DD	07b7979H
	DD	07c7b7aH
	DD	07b7a7aH
	DD	07c7b7aH
	DD	07b7a7aH
	DD	07a7979H
	DD	07c7a7aH
	DD	07d7c7bH
	DD	0706f6fH
	DD	04a4746H
	DD	0302e2dH
	DD	0403e3dH
	DD	0535150H
	DD	0444342H
	DD	03e3938H
	DD	0413c3cH
	DD	0292929H
	DD	0323231H
	DD	0f0f0eH
	DD	0484849H
	DD	0686868H
	DD	0555555H
	DD	0535353H
	DD	02d2c2bH
	DD	02e2c2bH
	DD	0322f2eH
	DD	0393634H
	DD	0433f3dH
	DD	04f4a49H
	DD	0575251H
	DD	0554f4dH
	DD	0534d4bH
	DD	0504b49H
	DD	04c4745H
	DD	0444140H
	DD	03a3837H
	DD	0333231H
	DD	02e2d2cH
	DD	0323131H
	DD	0444444H
	DD	0525251H
	DD	0646564H
	DD	06a6b6bH
	DD	0707171H
	DD	07e7e7eH
	DD	08c8d8dH
	DD	0898989H
	DD	04c4a4aH
	DD	0534e4cH
	DD	06a6562H
	DD	06a6461H
	DD	0696361H
	DD	06b6562H
	DD	0666261H
	DD	04b4a4aH
	DD	0363535H
	DD	02e2d2cH
	DD	02c2b2bH
	DD	02b2928H
	DD	02d2b2aH
	DD	0383534H
	DD	0544f4dH
	DD	0645e5bH
	DD	06b6562H
	DD	0716a68H
	DD	0706a67H
	DD	06d6766H
	DD	0696362H
	DD	05c5856H
	DD	0898685H
	DD	09e9c9bH
	DD	0a19d9bH
	DD	0938e8cH
	DD	0514d4cH
	DD	0837c7bH
	DD	0669494H
	DD	030dadbH
	DD	037e0e1H
	DD	038e3e4H
	DD	039e5e7H
	DD	039e8eaH
	DD	03ae8eaH
	DD	03ae8eaH
	DD	03ae8eaH
	DD	03ae8eaH
	DD	03ae8eaH
	DD	03ae8eaH
	DD	03ae8eaH
	DD	03ae8eaH
	DD	03ae8eaH
	DD	03ae8eaH
	DD	03ae8eaH
	DD	03ae8eaH
	DD	03ae8eaH
	DD	03ae8eaH
	DD	03ae8eaH
	DD	03ae8eaH
	DD	03ae8eaH
	DD	03ae8eaH
	DD	03ae8eaH
	DD	03ae8eaH
	DD	03beceeH
	DD	030c8caH
	DD	014072525H
	DD	0d4000000H
	DD	0ffdededeH
	DD	0ffffffffH
	DD	0ffffffffH
	DD	0ffffffffH
	DD	0ffffffffH
	DD	0ffffffffH
	DD	0ffffffffH
	DD	0ffffffffH
	DD	0ffffffffH
	DD	0ffffffffH
	DD	0ffffffffH
	DD	07d7e7e7eH
	DD	030bcbeH
	DD	03eeef0H
	DD	038e7e9H
	DD	039e7e9H
	DD	039e7e9H
	DD	039e7e9H
	DD	039e7e9H
	DD	039e7e9H
	DD	039e7e9H
	DD	039e7e9H
	DD	039e7e9H
	DD	039e7e9H
	DD	039e7e9H
	DD	039e7e9H
	DD	039e7e9H
	DD	039e7e9H
	DD	039e7e9H
	DD	039e7e9H
	DD	039e7e9H
	DD	039e6e9H
	DD	039e6e8H
	DD	039e5e7H
	DD	038e4e6H
	DD	038e3e5H
	DD	038e1e3H
	DD	036dddfH
	DD	035dadcH
	DD	034d6d8H
	DD	033d2d4H
	DD	031cdcfH
	DD	030c6c9H
	DD	02ec1c3H
	DD	02cb9bbH
	DD	029b0b2H
	DD	027a8a9H
	DD	0249d9fH
	DD	0219495H
	DD	01e888aH
	DD	01b7f7fH
	DD	0187374H
	DD	0156a6cH
	DD	0136466H
	DD	0f5e5fH
	DD	01c5c5dH
	DD	0777878H
	DD	07d7a7aH
	DD	07a7978H
	DD	07c7b7aH
	DD	07a7978H
	DD	0797777H
	DD	0828080H
	DD	0838180H
	DD	081807eH
	DD	07e7d7cH
	DD	07e7d7cH
	DD	07d7c7cH
	DD	07d7c7bH
	DD	07e7d7cH
	DD	07d7c7cH
	DD	07c7a7aH
	DD	07c7c7bH
	DD	07a7979H
	DD	07b7a7aH
	DD	07d7c7bH
	DD	07d7c7cH
	DD	07b7a79H
	DD	07c7b7bH
	DD	0797878H
	DD	0838282H
	DD	0666664H
	DD	03c3938H
	DD	0545251H
	DD	0585554H
	DD	0585252H
	DD	0514949H
	DD	0343c3bH
	DD	0204040H
	DD	0333636H
	DD	03c3b3bH
	DD	0141414H
	DD	04b4949H
	DD	0626262H
	DD	04f4f4fH
	DD	0504f4fH
	DD	032302fH
	DD	0514f4fH
	DD	05a5757H
	DD	06c6a69H
	DD	0636060H
	DD	0686766H
	DD	0878786H
	DD	06b6969H
	DD	06c6a69H
	DD	06f6b6aH
	DD	05b5755H
	DD	0575250H
	DD	05d5856H
	DD	05e5957H
	DD	05f5a57H
	DD	05a5553H
	DD	0534d4cH
	DD	04f4a48H
	DD	04f4a48H
	DD	04f4b4aH
	DD	0504d4bH
	DD	0585554H
	DD	0615e5dH
	DD	0585655H
	DD	03d3938H
	DD	04b4645H
	DD	0655f5dH
	DD	066605eH
	DD	066605eH
	DD	066605dH
	DD	067615eH
	DD	0625c5bH
	DD	0595453H
	DD	05f5957H
	DD	0655f5dH
	DD	06a6462H
	DD	06e6765H
	DD	0736c69H
	DD	0736d6bH
	DD	0777270H
	DD	07b7573H
	DD	0716a68H
	DD	06c6563H
	DD	06a6461H
	DD	054504eH
	DD	03f3c3bH
	DD	06c6b6bH
	DD	0606160H
	DD	06c6c6cH
	DD	0868586H
	DD	03f3d3cH
	DD	07c7574H
	DD	0619293H
	DD	02ed4d6H
	DD	036dbddH
	DD	037e0e2H
	DD	038e4e6H
	DD	039e6e8H
	DD	039e7e9H
	DD	039e7e9H
	DD	039e7e9H
	DD	039e7e9H
	DD	039e7e9H
	DD	039e7e9H
	DD	039e7e9H
	DD	039e7e9H
	DD	039e7e9H
	DD	039e7e9H
	DD	039e7e9H
	DD	039e7e9H
	DD	039e7e9H
	DD	039e7e9H
	DD	039e7e9H
	DD	039e7e9H
	DD	039e7e9H
	DD	039e7e9H
	DD	039e7e9H
	DD	039e7e9H
	DD	03aebedH
	DD	02fc7c9H
	DD	014072425H
	DD	0d4000000H
	DD	0ffdededeH
	DD	0ffffffffH
	DD	0ffffffffH
	DD	0ffffffffH
	DD	0ffffffffH
	DD	0ffffffffH
	DD	0ffffffffH
	DD	0ffffffffH
	DD	0ffffffffH
	DD	0ffffffffH
	DD	0ffffffffH
	DD	07d7e7e7eH
	DD	030bcbeH
	DD	03dedefH
	DD	038e6e8H
	DD	039e6e8H
	DD	039e6e8H
	DD	039e6e8H
	DD	039e6e8H
	DD	039e6e8H
	DD	039e6e8H
	DD	039e6e8H
	DD	039e6e8H
	DD	039e6e8H
	DD	039e6e8H
	DD	039e6e8H
	DD	039e6e8H
	DD	039e6e8H
	DD	039e6e8H
	DD	039e6e8H
	DD	039e6e8H
	DD	039e6e8H
	DD	039e5e8H
	DD	039e5e7H
	DD	039e4e7H
	DD	038e3e4H
	DD	038e1e3H
	DD	037dee1H
	DD	036dbdeH
	DD	035d8daH
	DD	034d4d5H
	DD	032cfd2H
	DD	031cbcdH
	DD	030c6c8H
	DD	02ec0c3H
	DD	02cbabcH
	DD	02ab3b5H
	DD	028a9abH
	DD	0249ea0H
	DD	0209193H
	DD	01c8384H
	DD	0187677H
	DD	0136667H
	DD	0115b5cH
	DD	0c4f50H
	DD	0104849H
	DD	05a6565H
	DD	0807c7cH
	DD	07f7d7cH
	DD	0807f7eH
	DD	0646261H
	DD	0383635H
	DD	04e4c4cH
	DD	05c5b5aH
	DD	06f6f6eH
	DD	0807f7fH
	DD	07f7d7dH
	DD	07c7b7aH
	DD	07c7b7aH
	DD	07c7a7aH
	DD	07c7b7aH
	DD	0807e7eH
	DD	07f7e7eH
	DD	07e7d7dH
	DD	07d7c7bH
	DD	07b7979H
	DD	07c7a7aH
	DD	07a7978H
	DD	07a7978H
	DD	0777575H
	DD	08d8c8bH
	DD	0a5a4a3H
	DD	0565452H
	DD	0504b49H
	DD	05c5554H
	DD	04a5353H
	DD	0306364H
	DD	01d7d7fH
	DD	01b7273H
	DD	03c3e3dH
	DD	0414040H
	DD	0191817H
	DD	04f4d4dH
	DD	0605f5fH
	DD	04d4b4cH
	DD	04e4e4eH
	DD	0353433H
	DD	0565454H
	DD	0615f60H
	DD	07d7d7cH
	DD	05d5c5bH
	DD	04d4b4aH
	DD	0737272H
	DD	05e5d5dH
	DD	0636362H
	DD	0676766H
	DD	0696664H
	DD	0686361H
	DD	0625c5aH
	DD	05e5856H
	DD	05f5958H
	DD	0827d7cH
	DD	0928e8dH
	DD	08b8685H
	DD	0868180H
	DD	0847f7eH
	DD	0797372H
	DD	0655e5cH
	DD	0635c5aH
	DD	0655f5dH
	DD	0696361H
	DD	06e6866H
	DD	075706dH
	DD	076716eH
	DD	077716fH
	DD	0787271H
	DD	07d7775H
	DD	0756f6cH
	DD	06d6764H
	DD	06a6361H
	DD	06a6360H
	DD	0686260H
	DD	0787473H
	DD	07e7c7bH
	DD	07b7978H
	DD	08e8e8dH
	DD	08a8887H
	DD	0817d7cH
	DD	08e8a88H
	DD	07d7876H
	DD	06f6b6aH
	DD	0535150H
	DD	0626261H
	DD	04f4e4eH
	DD	0565555H
	DD	0717070H
	DD	0413f3eH
	DD	07b7474H
	DD	0598a8bH
	DD	02ccbceH
	DD	034d5d8H
	DD	036dddeH
	DD	038e2e5H
	DD	039e5e7H
	DD	039e5e8H
	DD	039e6e8H
	DD	039e6e8H
	DD	039e6e8H
	DD	039e6e8H
	DD	039e6e8H
	DD	039e6e8H
	DD	039e6e8H
	DD	039e6e8H
	DD	039e6e8H
	DD	039e6e8H
	DD	039e6e8H
	DD	039e6e8H
	DD	039e6e8H
	DD	039e6e8H
	DD	039e6e8H
	DD	039e6e8H
	DD	039e6e8H
	DD	039e6e8H
	DD	039e6e8H
	DD	03aeaecH
	DD	02fc7c8H
	DD	014072425H
	DD	0d4000000H
	DD	0ffdededeH
	DD	0ffffffffH
	DD	0ffffffffH
	DD	0ffffffffH
	DD	0ffffffffH
	DD	0ffffffffH
	DD	0ffffffffH
	DD	0ffffffffH
	DD	0ffffffffH
	DD	0ffffffffH
	DD	0ffffffffH
	DD	07d7e7e7eH
	DD	030bbbeH
	DD	03decefH
	DD	038e5e8H
	DD	039e5e8H
	DD	039e5e8H
	DD	039e5e8H
	DD	039e5e8H
	DD	039e5e8H
	DD	039e5e8H
	DD	039e5e8H
	DD	039e5e8H
	DD	039e5e8H
	DD	039e5e8H
	DD	039e5e8H
	DD	039e5e8H
	DD	039e5e8H
	DD	039e5e8H
	DD	039e5e8H
	DD	039e5e8H
	DD	039e5e8H
	DD	039e4e7H
	DD	039e4e7H
	DD	038e4e6H
	DD	038e3e5H
	DD	038e2e4H
	DD	037dfe1H
	DD	037dcdfH
	DD	036daddH
	DD	034d6d9H
	DD	033d2d5H
	DD	032ced0H
	DD	030c9ccH
	DD	02fc4c7H
	DD	02ec0c2H
	DD	02cbbbdH
	DD	02bb6b8H
	DD	02aafb2H
	DD	027a8aaH
	DD	0249d9fH
	DD	0219395H
	DD	01e888aH
	DD	0197a7bH
	DD	015696bH
	DD	0e5657H
	DD	0d4748H
	DD	02e4849H
	DD	0636362H
	DD	0827d7cH
	DD	04c4847H
	DD	0211e1eH
	DD	0e0e0eH
	DD	01H
	DD	0b0f0eH
	DD	0303535H
	DD	0727271H
	DD	07b7979H
	DD	07a7978H
	DD	07b7a79H
	DD	0797777H
	DD	0666462H
	DD	05f5d5cH
	DD	05a5958H
	DD	0545251H
	DD	04e4b4aH
	DD	05c5958H
	DD	07b7a78H
	DD	0787777H
	DD	0797777H
	DD	0807f7fH
	DD	0b2aeaeH
	DD	0706968H
	DD	0434d4dH
	DD	0316767H
	DD	01d7c7dH
	DD	0198485H
	DD	016787aH
	DD	015595aH
	DD	0464645H
	DD	04a4646H
	DD	01b1919H
	DD	0504f4fH
	DD	05c5c5bH
	DD	0484848H
	DD	04d4d4dH
	DD	0373535H
	DD	0565554H
	DD	05c5c5aH
	DD	0717070H
	DD	0514f4eH
	DD	0464544H
	DD	0706f6fH
	DD	05f5e5eH
	DD	05e5d5dH
	DD	0595858H
	DD	0828281H
	DD	09e9d9cH
	DD	0a4a3a2H
	DD	08f8e8bH
	DD	0393736H
	DD	0706f6fH
	DD	09a9999H
	DD	0949494H
	DD	0979797H
	DD	0999999H
	DD	0686564H
	DD	0696361H
	DD	0787271H
	DD	0746f6dH
	DD	0736d6aH
	DD	0605c5aH
	DD	0908f8eH
	DD	0abaaaaH
	DD	0a9a9a8H
	DD	0ababaaH
	DD	0a5a3a3H
	DD	06a6665H
	DD	075706dH
	DD	0827d7bH
	DD	0827e7bH
	DD	084807eH
	DD	0737170H
	DD	06d6c6cH
	DD	06b6a6aH
	DD	0777777H
	DD	04f4f4fH
	DD	0444443H
	DD	0777776H
	DD	0787776H
	DD	05a5958H
	DD	04d4c4bH
	DD	0605f5fH
	DD	0484849H
	DD	0565555H
	DD	06f6e6eH
	DD	03f3d3cH
	DD	07a7473H
	DD	0528586H
	DD	02ac4c7H
	DD	033d1d3H
	DD	036dbdeH
	DD	038e1e4H
	DD	039e4e7H
	DD	039e4e7H
	DD	039e5e8H
	DD	039e5e8H
	DD	039e5e8H
	DD	039e5e8H
	DD	039e5e8H
	DD	039e5e8H
	DD	039e5e8H
	DD	039e5e8H
	DD	039e5e8H
	DD	039e5e8H
	DD	039e5e8H
	DD	039e5e8H
	DD	039e5e8H
	DD	039e5e8H
	DD	039e5e8H
	DD	039e5e8H
	DD	039e5e8H
	DD	039e5e8H
	DD	039e5e8H
	DD	03ae9ecH
	DD	02fc5c8H
	DD	014072425H
	DD	0d4000000H
	DD	0ffdededeH
	DD	0ffffffffH
	DD	0ffffffffH
	DD	0ffffffffH
	DD	0ffffffffH
	DD	0ffffffffH
	DD	0ffffffffH
	DD	0ffffffffH
	DD	0ffffffffH
	DD	0ffffffffH
	DD	0ffffffffH
	DD	07d7e7e7eH
	DD	030bcbfH
	DD	03debeeH
	DD	038e4e7H
	DD	039e4e7H
	DD	039e4e7H
	DD	039e4e7H
	DD	039e4e7H
	DD	039e4e7H
	DD	039e4e7H
	DD	039e4e7H
	DD	039e4e7H
	DD	039e4e7H
	DD	039e4e7H
	DD	039e4e7H
	DD	039e4e7H
	DD	039e4e7H
	DD	039e4e7H
	DD	039e4e7H
	DD	039e4e7H
	DD	039e4e7H
	DD	039e4e7H
	DD	039e4e7H
	DD	038e3e6H
	DD	038e3e5H
	DD	038e2e5H
	DD	038e0e3H
	DD	037dee1H
	DD	036dcdeH
	DD	035d8dbH
	DD	034d5d9H
	DD	034d2d5H
	DD	032ced1H
	DD	031cbcdH
	DD	030c6c9H
	DD	02ec2c4H
	DD	02dbdbfH
	DD	02cb8bbH
	DD	02bb4b7H
	DD	029afb1H
	DD	027a9abH
	DD	026a5a7H
	DD	0239da0H
	DD	0229597H
	DD	01e8789H
	DD	0177476H
	DD	0a5354H
	DD	0f3738H
	DD	02b3a3bH
	DD	0101b1bH
	DD	010c0cH
	DD	0909H
	DD	0a09H
	DD	0505H
	DD	0202H
	DD	0585857H
	DD	07d7c7bH
	DD	0777676H
	DD	0787776H
	DD	0858383H
	DD	052504fH
	DD	0403e3eH
	DD	0474543H
	DD	043403fH
	DD	02c2b2cH
	DD	0181e1fH
	DD	0656767H
	DD	0848281H
	DD	0807d7cH
	DD	07a7777H
	DD	0727e7eH
	DD	0376e6eH
	DD	01c7c7eH
	DD	01a888bH
	DD	01c8486H
	DD	0197778H
	DD	0156b6cH
	DD	0115a5cH
	DD	0194444H
	DD	01f3333H
	DD	01d1e1dH
	DD	051504fH
	DD	0585857H
	DD	0454545H
	DD	04d4d4cH
	DD	0383636H
	DD	0565554H
	DD	05e5d5cH
	DD	0717070H
	DD	04d4b4bH
	DD	0434141H
	DD	0696868H
	DD	05c5c5bH
	DD	05e5d5dH
	DD	05b5a59H
	DD	0696868H
	DD	0747475H
	DD	07e7e7eH
	DD	07c7b7aH
	DD	0272524H
	DD	0615f5fH
	DD	0858484H
	DD	0818081H
	DD	0858585H
	DD	07b7b7bH
	DD	03b3837H
	DD	07d7c7aH
	DD	0bdbdbdH
	DD	0bcbcbbH
	DD	0b9b8b7H
	DD	052514fH
	DD	071706fH
	DD	09e9d9eH
	DD	09c9b9bH
	DD	09d9d9dH
	DD	0828181H
	DD	03c3939H
	DD	0646261H
	DD	0a2a1a1H
	DD	0929291H
	DD	08f8f8fH
	DD	06e6c6cH
	DD	0676665H
	DD	0686766H
	DD	0767576H
	DD	04f4d4dH
	DD	03c3b3bH
	DD	0626262H
	DD	06c6b6aH
	DD	0585656H
	DD	04c4a49H
	DD	05c5b5aH
	DD	0414241H
	DD	0535252H
	DD	06b6b69H
	DD	03d3c3bH
	DD	0797272H
	DD	04f8486H
	DD	029c0c3H
	DD	033ced1H
	DD	036dadeH
	DD	038e1e4H
	DD	038e3e7H
	DD	039e4e7H
	DD	039e4e7H
	DD	039e4e7H
	DD	039e4e7H
	DD	039e4e7H
	DD	039e4e7H
	DD	039e4e7H
	DD	039e4e7H
	DD	039e4e7H
	DD	039e4e7H
	DD	039e4e7H
	DD	039e4e7H
	DD	039e4e7H
	DD	039e4e7H
	DD	039e4e7H
	DD	039e4e7H
	DD	039e4e7H
	DD	039e4e7H
	DD	039e4e7H
	DD	039e4e7H
	DD	03ae8ebH
	DD	02fc5c8H
	DD	014072425H
	DD	0d4000000H
	DD	0ffdededeH
	DD	0ffffffffH
	DD	0ffffffffH
	DD	0ffffffffH
	DD	0ffffffffH
	DD	0ffffffffH
	DD	0ffffffffH
	DD	0ffffffffH
	DD	0ffffffffH
	DD	0ffffffffH
	DD	0ffffffffH
	DD	0807d7d7dH
	DD	025b7baH
	DD	03beaeeH
	DD	039e4e8H
	DD	039e4e7H
	DD	039e3e7H
	DD	039e3e7H
	DD	039e3e7H
	DD	039e3e7H
	DD	039e3e7H
	DD	039e3e7H
	DD	039e3e7H
	DD	039e3e7H
	DD	039e3e7H
	DD	039e3e7H
	DD	039e3e7H
	DD	039e3e7H
	DD	039e3e7H
	DD	039e3e7H
	DD	039e3e7H
	DD	039e3e7H
	DD	039e3e7H
	DD	039e3e7H
	DD	038e3e6H
	DD	038e3e6H
	DD	038e2e5H
	DD	038e1e4H
	DD	037e0e3H
	DD	037dde1H
	DD	036dcdfH
	DD	035d9ddH
	DD	035d6daH
	DD	034d3d6H
	DD	033d0d3H
	DD	032cdd0H
	DD	031cacdH
	DD	02fc5c7H
	DD	02fc2c5H
	DD	02ebec1H
	DD	02cb8bbH
	DD	02bb5b7H
	DD	029afb2H
	DD	028abaeH
	DD	027a8aaH
	DD	025a2a4H
	DD	0239d9fH
	DD	0229699H
	DD	01d8c8eH
	DD	0157a7dH
	DD	0157173H
	DD	013686aH
	DD	0115c5eH
	DD	0d4e4fH
	DD	083c3dH
	DD	02628H
	DD	0454e4dH
	DD	0847c7bH
	DD	07b7776H
	DD	07a7777H
	DD	08f8e8eH
	DD	05e5c5bH
	DD	0413d3cH
	DD	02f2d2dH
	DD	0121414H
	DD	020707H
	DD	0808H
	DD	02d3838H
	DD	06a6a69H
	DD	0464f4fH
	DD	0203b3bH
	DD	073b3bH
	DD	084a4cH
	DD	0e5455H
	DD	011595bH
	DD	0136365H
	DD	015686aH
	DD	015696bH
	DD	0146869H
	DD	0f6061H
	DD	0c4a4bH
	DD	0232525H
	DD	0565352H
	DD	05b5b5bH
	DD	0494949H
	DD	0504e4eH
	DD	0393636H
	DD	0575555H
	DD	05f5e5dH
	DD	06f6f6eH
	DD	0484646H
	DD	03f3e3dH
	DD	0676666H
	DD	05b5a5aH
	DD	05d5c5cH
	DD	05a5959H
	DD	06b6a6aH
	DD	0737372H
	DD	0797978H
	DD	0747373H
	DD	0252322H
	DD	0616060H
	DD	0838383H
	DD	07e7d7dH
	DD	0828282H
	DD	07c7c7cH
	DD	03c3a39H
	DD	06a6969H
	DD	0adadaeH
	DD	0afaeafH
	DD	0a8a7a8H
	DD	0494847H
	DD	0727171H
	DD	0999a99H
	DD	0989898H
	DD	0989797H
	DD	07c7c7bH
	DD	0393635H
	DD	0555352H
	DD	0878787H
	DD	07c7c7bH
	DD	07b7b7aH
	DD	0656463H
	DD	0666564H
	DD	0656363H
	DD	0727171H
	DD	0464545H
	DD	03b3a39H
	DD	0666565H
	DD	06b6a69H
	DD	0575555H
	DD	04b4948H
	DD	0595858H
	DD	040403fH
	DD	0535252H
	DD	0676565H
	DD	03b3a38H
	DD	0696564H
	DD	0407e7fH
	DD	029bbbeH
	DD	032ced1H
	DD	036dadeH
	DD	038e1e4H
	DD	038e3e6H
	DD	038e3e6H
	DD	039e3e7H
	DD	039e3e7H
	DD	039e3e7H
	DD	039e3e7H
	DD	039e3e7H
	DD	039e3e7H
	DD	039e3e7H
	DD	039e3e7H
	DD	039e3e7H
	DD	039e3e7H
	DD	039e3e7H
	DD	039e3e7H
	DD	039e3e7H
	DD	039e3e7H
	DD	039e3e7H
	DD	039e3e7H
	DD	039e3e7H
	DD	039e3e7H
	DD	039e5e8H
	DD	039e6eaH
	DD	029b1b4H
	DD	015051e1eH
	DD	0d4000000H
	DD	0ffdededeH
	DD	0ffffffffH
	DD	0ffffffffH
	DD	0ffffffffH
	DD	0ffffffffH
	DD	0ffffffffH
	DD	0ffffffffH
	DD	0ffffffffH
	DD	0ffffffffH
	DD	0ffffffffH
	DD	0ffffffffH
	DD	0ad7c7979H
	DD	0b7174H
	DD	036daddH
	DD	039e3e7H
	DD	03ae9edH
	DD	03ae9edH
	DD	03ae9edH
	DD	03ae9edH
	DD	03ae9edH
	DD	03ae9edH
	DD	03ae9edH
	DD	03ae9edH
	DD	03ae9edH
	DD	03ae9edH
	DD	03ae9edH
	DD	03ae9edH
	DD	03ae9edH
	DD	03ae9edH
	DD	03ae9edH
	DD	03ae9edH
	DD	03ae9edH
	DD	03ae9edH
	DD	03ae9edH
	DD	03ae9edH
	DD	03ae8edH
	DD	03ae8edH
	DD	03ae7ecH
	DD	03ae6ebH
	DD	039e6e9H
	DD	039e4e8H
	DD	039e2e6H
	DD	038e0e4H
	DD	037dee1H
	DD	036dcdfH
	DD	035d9ddH
	DD	034d5d9H
	DD	033d3d6H
	DD	033d0d3H
	DD	032cdd0H
	DD	031cacdH
	DD	030c6c9H
	DD	02fc2c5H
	DD	02ebec1H
	DD	02cbabdH
	DD	02bb6b9H
	DD	029b0b3H
	DD	028acafH
	DD	027aaadH
	DD	027a7aaH
	DD	026a4a7H
	DD	025a1a2H
	DD	0249c9eH
	DD	0229799H
	DD	01f8d8fH
	DD	0197f81H
	DD	0277072H
	DD	0547374H
	DD	05c6f6fH
	DD	0646b6bH
	DD	06b6a6aH
	DD	0323636H
	DD	0e1c1dH
	DD	01415H
	DD	01414H
	DD	011718H
	DD	011718H
	DD	011819H
	DD	051c1dH
	DD	01919H
	DD	01a1bH
	DD	01c1dH
	DD	021d1eH
	DD	022122H
	DD	032728H
	DD	053132H
	DD	083d3eH
	DD	0b494bH
	DD	0e5354H
	DD	0e5556H
	DD	0c4c4dH
	DD	01b2a2aH
	DD	05f5c5bH
	DD	0646363H
	DD	04d4d4dH
	DD	04f4e4eH
	DD	03d3b3aH
	DD	0565554H
	DD	05e5c5cH
	DD	06c6b6bH
	DD	0444342H
	DD	03d3c3bH
	DD	0656464H
	DD	0575656H
	DD	0595858H
	DD	0595858H
	DD	0696868H
	DD	0717170H
	DD	0797979H
	DD	0727171H
	DD	022201fH
	DD	05f5e5eH
	DD	0828181H
	DD	07c7c7cH
	DD	07d7e7eH
	DD	0797878H
	DD	03a3736H
	DD	06a6968H
	DD	0aaa9aaH
	DD	0aaa8a8H
	DD	0a3a2a2H
	DD	0464544H
	DD	0727170H
	DD	0969696H
	DD	0939493H
	DD	0959494H
	DD	0797979H
	DD	033302fH
	DD	0565454H
	DD	0888787H
	DD	07b7a7aH
	DD	07a7979H
	DD	0626061H
	DD	0626161H
	DD	0626161H
	DD	06d6c6cH
	DD	0414140H
	DD	0393838H
	DD	0636262H
	DD	0676665H
	DD	0555353H
	DD	0494746H
	DD	0555554H
	DD	03e3d3dH
	DD	0525252H
	DD	0636060H
	DD	0373d3eH
	DD	0247779H
	DD	027a4a7H
	DD	030c7caH
	DD	035d7dbH
	DD	038e2e5H
	DD	03ae7ebH
	DD	03ae8ecH
	DD	03ae9edH
	DD	03ae9edH
	DD	03ae9edH
	DD	03ae9edH
	DD	03ae9edH
	DD	03ae9edH
	DD	03ae9edH
	DD	03ae9edH
	DD	03ae9edH
	DD	03ae9edH
	DD	03ae9edH
	DD	03ae9edH
	DD	03ae9edH
	DD	03ae9edH
	DD	03ae9edH
	DD	03ae9edH
	DD	03ae9edH
	DD	03ae9edH
	DD	03ae9edH
	DD	039e6ebH
	DD	030c7caH
	DD	0146668H
	DD	033000708H
	DD	0d8000000H
	DD	0ffdededeH
	DD	0ffffffffH
	DD	0ffffffffH
	DD	0ffffffffH
	DD	0ffffffffH
	DD	0ffffffffH
	DD	0ffffffffH
	DD	0ffffffffH
	DD	0ffffffffH
	DD	0ffffffffH
	DD	0ffffffffH
	DD	0f87c7979H
	DD	053000101H
	DD	0156a6cH
	DD	01f8d8fH
	DD	0239ea1H
	DD	0249fa2H
	DD	0249fa2H
	DD	0249fa2H
	DD	0249fa2H
	DD	0249fa2H
	DD	0249fa2H
	DD	0249fa2H
	DD	0249fa2H
	DD	0249fa2H
	DD	0249fa2H
	DD	0249fa2H
	DD	0249fa2H
	DD	0249fa2H
	DD	0249fa2H
	DD	0249fa2H
	DD	0249fa2H
	DD	0249fa2H
	DD	0249fa2H
	DD	0249fa2H
	DD	0249fa2H
	DD	0249fa2H
	DD	0249ea1H
	DD	0249ea1H
	DD	0249ea1H
	DD	0249da0H
	DD	0239b9fH
	DD	0239b9eH
	DD	0229a9cH
	DD	022989aH
	DD	022979aH
	DD	0219698H
	DD	0219497H
	DD	0209396H
	DD	0209193H
	DD	01f8f91H
	DD	01f8d90H
	DD	01e8b8dH
	DD	01e898bH
	DD	01d8789H
	DD	01c8487H
	DD	01b8284H
	DD	01b7f82H
	DD	0197c7eH
	DD	019797bH
	DD	0187679H
	DD	0187476H
	DD	0177173H
	DD	0177173H
	DD	0166e71H
	DD	0156d6eH
	DD	0136a6cH
	DD	0f6163H
	DD	011595bH
	DD	0124f50H
	DD	0f4142H
	DD	063a3bH
	DD	063b3cH
	DD	063839H
	DD	053234H
	DD	042c2dH
	DD	032627H
	DD	022021H
	DD	01c1dH
	DD	01191aH
	DD	021718H
	DD	021819H
	DD	021a1bH
	DD	021d1eH
	DD	032021H
	DD	032223H
	DD	032727H
	DD	042a2bH
	DD	052d2eH
	DD	052f30H
	DD	042d2eH
	DD	032526H
	DD	01a2c2cH
	DD	0182929H
	DD	0c1c1cH
	DD	0c191aH
	DD	0292d2dH
	DD	05c5a59H
	DD	05d5b5bH
	DD	0686767H
	DD	041403fH
	DD	03c3a3aH
	DD	0636262H
	DD	0565555H
	DD	0585757H
	DD	0575655H
	DD	0676767H
	DD	0707070H
	DD	0767676H
	DD	06e6e6dH
	DD	0201d1cH
	DD	05d5c5bH
	DD	07e7d7dH
	DD	0787777H
	DD	07c7b7bH
	DD	0757575H
	DD	0363533H
	DD	06b6a6aH
	DD	0a6a6a6H
	DD	0a7a7a7H
	DD	09f9e9eH
	DD	0434241H
	DD	0706f6fH
	DD	0939292H
	DD	0919090H
	DD	0929292H
	DD	0757475H
	DD	0302d2cH
	DD	0555352H
	DD	0858484H
	DD	0797978H
	DD	0787777H
	DD	0605f5eH
	DD	0626160H
	DD	0626161H
	DD	06b6b6bH
	DD	03e3e3dH
	DD	0383637H
	DD	0626161H
	DD	0646362H
	DD	051504fH
	DD	0484746H
	DD	05d5c5cH
	DD	0494949H
	DD	05c5c5cH
	DD	0635f5fH
	DD	0333f3fH
	DD	0187476H
	DD	01c8688H
	DD	01f8e90H
	DD	0229799H
	DD	0239b9eH
	DD	0249ea1H
	DD	0249fa2H
	DD	0249fa2H
	DD	0249fa2H
	DD	0249fa2H
	DD	0249fa2H
	DD	0249fa2H
	DD	0249fa2H
	DD	0249fa2H
	DD	0249fa2H
	DD	0249fa2H
	DD	0249fa2H
	DD	0249fa2H
	DD	0249fa2H
	DD	0249fa2H
	DD	0249fa2H
	DD	0249fa2H
	DD	0249fa2H
	DD	0249fa2H
	DD	0249fa2H
	DD	0249fa2H
	DD	01f8c8fH
	DD	0f5557H
	DD	06021617H
	DD	074000000H
	DD	0df000000H
	DD	0ffdededeH
	DD	0ffffffffH
	DD	0ffffffffH
	DD	0ffffffffH
	DD	0ffffffffH
	DD	0ffffffffH
	DD	0ffffffffH
	DD	0ffffffffH
	DD	0ffffffffH
	DD	0ffffffffH
	DD	0ffffffffH
	DD	0ff7d7d7dH
	DD	0d1000000H
	DD	04e000202H
	DD	0d010d0dH
	DD	04021111H
	DD	05021111H
	DD	05021111H
	DD	05021111H
	DD	05021111H
	DD	05021111H
	DD	05021111H
	DD	05021111H
	DD	05021111H
	DD	05021111H
	DD	05021111H
	DD	05021111H
	DD	05021111H
	DD	05021111H
	DD	05021111H
	DD	05021111H
	DD	05021111H
	DD	05021111H
	DD	05021111H
	DD	05021111H
	DD	05021111H
	DD	05021111H
	DD	05021111H
	DD	05021111H
	DD	05021111H
	DD	05021011H
	DD	04021111H
	DD	04011111H
	DD	05011011H
	DD	04011011H
	DD	04011010H
	DD	04011011H
	DD	04011010H
	DD	04011010H
	DD	04011010H
	DD	04010f10H
	DD	04010f10H
	DD	04010f0fH
	DD	04010f0fH
	DD	04010f0fH
	DD	04010f0fH
	DD	04010e0fH
	DD	04010e0fH
	DD	04010e0eH
	DD	04010e0eH
	DD	04010e0eH
	DD	03010d0dH
	DD	03010d0dH
	DD	03010d0dH
	DD	03010c0dH
	DD	03000c0cH
	DD	03000c0cH
	DD	03000c0dH
	DD	03000d0dH
	DD	03000d0dH
	DD	03000e0eH
	DD	03010f0fH
	DD	03010e0fH
	DD	03010d0dH
	DD	02010c0cH
	DD	02010a0bH
	DD	02010809H
	DD	02000707H
	DD	02000505H
	DD	02000404H
	DD	02000404H
	DD	01000404H
	DD	01000404H
	DD	01000404H
	DD	01000404H
	DD	01000405H
	DD	01000505H
	DD	01000405H
	DD	01000404H
	DD	01000404H
	DD	01000404H
	DD	01000505H
	DD	01000203H
	DD	01000202H
	DD	01000101H
	DD	01000000H
	DD	0171716H
	DD	06a6866H
	DD	0666463H
	DD	06d6d6cH
	DD	0474645H
	DD	0424040H
	DD	0686868H
	DD	05a5a59H
	DD	0595858H
	DD	0555453H
	DD	0666665H
	DD	06f6e6eH
	DD	0747473H
	DD	06c6b6bH
	DD	01d1b1aH
	DD	05d5c5cH
	DD	0797979H
	DD	0767676H
	DD	0787878H
	DD	0707070H
	DD	0343231H
	DD	06c6b6bH
	DD	0a3a3a3H
	DD	0a3a3a2H
	DD	09b9a9aH
	DD	0413f3eH
	DD	06e6f6fH
	DD	08f8e8eH
	DD	08d8c8cH
	DD	08f8f8fH
	DD	06f6e6eH
	DD	02c2a29H
	DD	0555353H
	DD	0828282H
	DD	0767575H
	DD	0737272H
	DD	05e5d5cH
	DD	05f5e5dH
	DD	05f5e5eH
	DD	0686868H
	DD	0393938H
	DD	0373535H
	DD	0616161H
	DD	0605f5fH
	DD	0525150H
	DD	03b3a39H
	DD	01323232H
	DD	0343333H
	DD	04a4a49H
	DD	04f4f4eH
	DD	02111414H
	DD	03000d0dH
	DD	04010f0fH
	DD	04021111H
	DD	04021111H
	DD	04021111H
	DD	04021111H
	DD	05021111H
	DD	05021111H
	DD	05021111H
	DD	05021111H
	DD	05021111H
	DD	05021111H
	DD	05021111H
	DD	05021111H
	DD	05021111H
	DD	05021111H
	DD	05021111H
	DD	05021111H
	DD	05021111H
	DD	05021111H
	DD	05021111H
	DD	05021111H
	DD	05021111H
	DD	05021111H
	DD	05021111H
	DD	05021111H
	DD	07011010H
	DD	018000506H
	DD	051000000H
	DD	0a8000000H
	DD	0ec000000H
	DD	0ffdededeH
	DD	0ffffffffH
	DD	0ffffffffH
	DD	0ffffffffH
	DD	0ffffffffH
	DD	0ffffffffH
	DD	0ffffffffH
	DD	0ffffffffH
	DD	0ffffffffH
	DD	0ffffffffH
	DD	0ffffffffH
	DD	0ff7d7d7dH
	DD	0f4000000H
	DD	0c4000000H
	DD	087000000H
	DD	06a000000H
	DD	063000000H
	DD	062000000H
	DD	062000000H
	DD	062000000H
	DD	062000000H
	DD	062000000H
	DD	062000000H
	DD	062000000H
	DD	062000000H
	DD	062000000H
	DD	062000000H
	DD	062000000H
	DD	062000000H
	DD	062000000H
	DD	062000000H
	DD	062000000H
	DD	062000000H
	DD	062000000H
	DD	062000000H
	DD	062000000H
	DD	062000000H
	DD	062000000H
	DD	062000000H
	DD	062000000H
	DD	062000000H
	DD	061000000H
	DD	061000000H
	DD	061000000H
	DD	060000000H
	DD	060000000H
	DD	05f000000H
	DD	05f000000H
	DD	05e000000H
	DD	05d000000H
	DD	05d000000H
	DD	05c000000H
	DD	05b000000H
	DD	05b000000H
	DD	05a000000H
	DD	059000000H
	DD	058000000H
	DD	057000000H
	DD	056000000H
	DD	054000000H
	DD	054000000H
	DD	053000000H
	DD	051000000H
	DD	050000000H
	DD	04f000000H
	DD	04d000000H
	DD	04d000000H
	DD	04b000000H
	DD	049000000H
	DD	048000000H
	DD	045000000H
	DD	045000000H
	DD	044000000H
	DD	045000000H
	DD	044000000H
	DD	042000000H
	DD	042000000H
	DD	041000000H
	DD	041000000H
	DD	040000000H
	DD	03e000000H
	DD	03d000000H
	DD	03b000000H
	DD	039000000H
	DD	037000000H
	DD	036000000H
	DD	034000000H
	DD	033000000H
	DD	031000000H
	DD	02f000000H
	DD	02f000000H
	DD	02d000000H
	DD	02b000000H
	DD	028000000H
	DD	026000000H
	DD	025000000H
	DD	01e060505H
	DD	0e2c2a29H
	DD	044a4948H
	DD	0656464H
	DD	02393939H
	DD	08222222H
	DD	09353434H
	DD	04484746H
	DD	0565555H
	DD	0585757H
	DD	0646363H
	DD	0696969H
	DD	0707070H
	DD	0656564H
	DD	01c1a19H
	DD	05c5b5bH
	DD	0767575H
	DD	0767575H
	DD	0757575H
	DD	06d6c6cH
	DD	0333131H
	DD	06b6a6aH
	DD	09f9f9fH
	DD	09fa0a0H
	DD	0949494H
	DD	03d3c3cH
	DD	06f6e6eH
	DD	08b8a8aH
	DD	0888787H
	DD	08b8b8aH
	DD	0686767H
	DD	0292726H
	DD	0575555H
	DD	0818080H
	DD	0747373H
	DD	0727171H
	DD	05c5b5bH
	DD	05f5e5eH
	DD	0626061H
	DD	06d6d6cH
	DD	03f3e3eH
	DD	03c3a3bH
	DD	0626261H
	DD	05d5d5bH
	DD	0585756H
	DD	015232323H
	DD	031000000H
	DD	034000000H
	DD	035050404H
	DD	03c060606H
	DD	049000000H
	DD	04f000000H
	DD	055010000H
	DD	05b000000H
	DD	05f000000H
	DD	060000000H
	DD	061000000H
	DD	062000000H
	DD	062000000H
	DD	062000000H
	DD	062000000H
	DD	062000000H
	DD	062000000H
	DD	062000000H
	DD	062000000H
	DD	062000000H
	DD	062000000H
	DD	062000000H
	DD	062000000H
	DD	062000000H
	DD	062000000H
	DD	062000000H
	DD	062000000H
	DD	062000000H
	DD	062000000H
	DD	062000000H
	DD	062000000H
	DD	065000000H
	DD	074000000H
	DD	09f000000H
	DD	0d8000000H
	DD	0fa000000H
	DD	0ffdededeH
	DD	0ffffffffH
	DD	0ffffffffH
	DD	0ffffffffH
	DD	0ffffffffH
	DD	0ffffffffH
	DD	0ffffffffH
	DD	0ffffffffH
	DD	0ffffffffH
	DD	0ffffffffH
	DD	0ffffffffH
	DD	0ff7d7d7dH
	DD	0fe000000H
	DD	0f2000000H
	DD	0dc000000H
	DD	0c9000000H
	DD	0c2000000H
	DD	0c2000000H
	DD	0c2000000H
	DD	0c2000000H
	DD	0c2000000H
	DD	0c2000000H
	DD	0c2000000H
	DD	0c2000000H
	DD	0c2000000H
	DD	0c2000000H
	DD	0c2000000H
	DD	0c2000000H
	DD	0c3000000H
	DD	0c3000000H
	DD	0c3000000H
	DD	0c3000000H
	DD	0c3000000H
	DD	0c3000000H
	DD	0c3000000H
	DD	0c2000000H
	DD	0c2000000H
	DD	0c2000000H
	DD	0c2000000H
	DD	0c2000000H
	DD	0c1000000H
	DD	0c1000000H
	DD	0c1000000H
	DD	0c1000000H
	DD	0c0000000H
	DD	0c0000000H
	DD	0bf000000H
	DD	0be000000H
	DD	0bd000000H
	DD	0bc000000H
	DD	0bc000000H
	DD	0ba000000H
	DD	0b9000000H
	DD	0b8000000H
	DD	0b8000000H
	DD	0b6000000H
	DD	0b5000000H
	DD	0b4000000H
	DD	0b2000000H
	DD	0b1000000H
	DD	0b0000000H
	DD	0ad000000H
	DD	0ac000000H
	DD	0ab000000H
	DD	0a8000000H
	DD	0a7000000H
	DD	0a4000000H
	DD	0a2000000H
	DD	0a1000000H
	DD	09e000000H
	DD	09d000000H
	DD	09a000000H
	DD	099000000H
	DD	098000000H
	DD	097000000H
	DD	095000000H
	DD	094000000H
	DD	093000000H
	DD	093000000H
	DD	092000000H
	DD	091000000H
	DD	092000000H
	DD	091000000H
	DD	08f000000H
	DD	08e000000H
	DD	08c000000H
	DD	08a000000H
	DD	087000000H
	DD	083000000H
	DD	081000000H
	DD	07f000000H
	DD	079000000H
	DD	076000000H
	DD	073000000H
	DD	06e000000H
	DD	06a000000H
	DD	066000000H
	DD	063000000H
	DD	05c020202H
	DD	052090909H
	DD	053030303H
	DD	055000000H
	DD	050000000H
	DD	044030303H
	DD	035070707H
	DD	019282727H
	DD	0767474H
	DD	0757575H
	DD	0767676H
	DD	06c6b6bH
	DD	0211f1fH
	DD	060605fH
	DD	07c7b7bH
	DD	0787878H
	DD	07a7a7aH
	DD	0717171H
	DD	0333130H
	DD	06a6968H
	DD	09c9c9cH
	DD	09d9d9dH
	DD	08f8f8fH
	DD	03c3b3bH
	DD	0737271H
	DD	08e8e8dH
	DD	08b8b8aH
	DD	08d8e8dH
	DD	06b6a6bH
	DD	0292726H
	DD	0575554H
	DD	07c7b7cH
	DD	06f6f6eH
	DD	06e6d6dH
	DD	0565555H
	DD	0351504fH
	DD	09474646H
	DD	0f3f3e3eH
	DD	09303030H
	DD	03f3f3eH
	DD	0696867H
	DD	0575555H
	DD	04424140H
	DD	04c161616H
	DD	081000000H
	DD	08a050505H
	DD	093070707H
	DD	09a0b0b0bH
	DD	0a0131313H
	DD	0a8181818H
	DD	0af191919H
	DD	0b6161616H
	DD	0bb0f0f0fH
	DD	0be040404H
	DD	0c1000000H
	DD	0c1000000H
	DD	0c2000000H
	DD	0c2000000H
	DD	0c2000000H
	DD	0c2000000H
	DD	0c2000000H
	DD	0c2000000H
	DD	0c2000000H
	DD	0c2000000H
	DD	0c2000000H
	DD	0c2000000H
	DD	0c2000000H
	DD	0c2000000H
	DD	0c2000000H
	DD	0c2000000H
	DD	0c2000000H
	DD	0c2000000H
	DD	0c2000000H
	DD	0c2000000H
	DD	0c2000000H
	DD	0c3000000H
	DD	0ce000000H
	DD	0e4000000H
	DD	0f9000000H
	DD	0ff000000H
	DD	0ffdededeH
	DD	0ffffffffH
	DD	0ffffffffH
	DD	0ffffffffH
	DD	0ffffffffH
	DD	0ffffffffH
	DD	0ffffffffH
	DD	0ffffffffH
	DD	0ffffffffH
	DD	0ffffffffH
	DD	0ffffffffH
	DD	0ff898989H
	DD	0ff080808H
	DD	0ff181818H
	DD	0ff181818H
	DD	0fe181818H
	DD	0fd181818H
	DD	0fd181818H
	DD	0fd181818H
	DD	0fd181818H
	DD	0fd181818H
	DD	0fd181818H
	DD	0fd181818H
	DD	0fd181818H
	DD	0fd191919H
	DD	0fd060606H
	DD	0fe000000H
	DD	0ff000000H
	DD	0ff000000H
	DD	0ff000000H
	DD	0ff000000H
	DD	0ff000000H
	DD	0ff000000H
	DD	0ff000000H
	DD	0ff000000H
	DD	0ff000000H
	DD	0ff000000H
	DD	0fe000000H
	DD	0fd000000H
	DD	0fd000000H
	DD	0fc000000H
	DD	0fc000000H
	DD	0fc000000H
	DD	0fc000000H
	DD	0fb000000H
	DD	0fb000000H
	DD	0fa000000H
	DD	0f9000000H
	DD	0f9000000H
	DD	0f8000000H
	DD	0f8000000H
	DD	0f7000000H
	DD	0f6000000H
	DD	0f5000000H
	DD	0f5000000H
	DD	0f4000000H
	DD	0f2000000H
	DD	0f2000000H
	DD	0f0000000H
	DD	0ef000000H
	DD	0ee000000H
	DD	0eb000000H
	DD	0ea000000H
	DD	0e9000000H
	DD	0e7000000H
	DD	0e5000000H
	DD	0e4000000H
	DD	0e2000000H
	DD	0e1000000H
	DD	0de000000H
	DD	0dc000000H
	DD	0db000000H
	DD	0d9000000H
	DD	0d8000000H
	DD	0d5000000H
	DD	0d6000000H
	DD	0d4000000H
	DD	0d3000000H
	DD	0d1000000H
	DD	0d0000000H
	DD	0cd000000H
	DD	0cd000000H
	DD	0cd000000H
	DD	0cc000000H
	DD	0cb000000H
	DD	0c9000000H
	DD	0c8000000H
	DD	0c9000000H
	DD	0c6000000H
	DD	0c4000000H
	DD	0c1000000H
	DD	0bf000000H
	DD	0bc000000H
	DD	0b9000000H
	DD	0b5000000H
	DD	0b6000000H
	DD	0b9000000H
	DD	0b3000000H
	DD	0ae000000H
	DD	0ac000000H
	DD	0aa000000H
	DD	0a9000000H
	DD	09e000000H
	DD	08f000000H
	DD	084000000H
	DD	066080807H
	DD	028414040H
	DD	014565555H
	DD	0c696968H
	DD	07656564H
	DD	027131211H
	DD	043131413H
	DD	03e232222H
	DD	0342d2c2cH
	DD	029363535H
	DD	01d3b3b3bH
	DD	072a2828H
	DD	0737271H
	DD	09e9e9dH
	DD	0a0a09fH
	DD	0939292H
	DD	023a3838H
	DD	09515050H
	DD	0c5f5f5eH
	DD	0f5d5c5cH
	DD	0105a5959H
	DD	0e444443H
	DD	012a2928H
	DD	0626160H
	DD	0828281H
	DD	0747473H
	DD	0757574H
	DD	025323231H
	DD	061020202H
	DD	06f010101H
	DD	07c000000H
	DD	07a010100H
	DD	0690b0b0bH
	DD	0551f1f1fH
	DD	067141413H
	DD	08f060606H
	DD	0b0080808H
	DD	0bd101010H
	DD	0c71b1b1bH
	DD	0cd2a2a2aH
	DD	0d33e3e3eH
	DD	0db575757H
	DD	0e16b6b6bH
	DD	0e77e7e7eH
	DD	0ee8a8a8aH
	DD	0f38d8d8dH
	DD	0f7919191H
	DD	0fa8e8e8eH
	DD	0fc8e8e8eH
	DD	0fd9e9e9eH
	DD	0fd303030H
	DD	0fd000000H
	DD	0fd000000H
	DD	0fd000000H
	DD	0fd000000H
	DD	0fd000000H
	DD	0fd000000H
	DD	0fd000000H
	DD	0fd070707H
	DD	0fd191919H
	DD	0fd181818H
	DD	0fd181818H
	DD	0fd181818H
	DD	0fd181818H
	DD	0fd181818H
	DD	0fd181818H
	DD	0fd181818H
	DD	0fd181818H
	DD	0fd181818H
	DD	0fe181818H
	DD	0ff181818H
	DD	0ff171717H
	DD	0ff171717H
	DD	0ffe1e1e1H
	DD	0ffffffffH
	DD	0ffffffffH
	DD	0ffffffffH
	DD	0ffffffffH
	DD	0ffffffffH
	DD	0ffffffffH
	DD	0ffffffffH
	DD	0ffffffffH
	DD	0ffffffffH
	DD	0ffffffffH
	DD	0fffcfcfcH
	DD	0fffafafaH
	DD	0fffafafaH
	DD	0fffafafaH
	DD	0fffafafaH
	DD	0fffafafaH
	DD	0fffafafaH
	DD	0fffafafaH
	DD	0fffafafaH
	DD	0fffafafaH
	DD	0fffafafaH
	DD	0fffafafaH
	DD	0fffafafaH
	DD	0ffffffffH
	DD	0ff434343H
	DD	0fd000000H
	DD	0890f0f0fH
	DD	067232323H
	DD	06c212121H
	DD	06c212121H
	DD	06c212121H
	DD	06c212121H
	DD	06b222222H
	DD	0701c1c1cH
	DD	093000000H
	DD	0c6000000H
	DD	0fd000000H
	DD	0ff000000H
	DD	0ff000000H
	DD	0ff000000H
	DD	0ff000000H
	DD	0ff000000H
	DD	0ff000000H
	DD	0ff000000H
	DD	0ff000000H
	DD	0ff000000H
	DD	0ff000000H
	DD	0ff000000H
	DD	0fe000000H
	DD	0fe000000H
	DD	0fe000000H
	DD	0fd000000H
	DD	0fc000000H
	DD	0fc000000H
	DD	0fb000000H
	DD	0fa000000H
	DD	0fa000000H
	DD	0f9000000H
	DD	0f8000000H
	DD	0f7000000H
	DD	0f7000000H
	DD	0f5000000H
	DD	0f4000000H
	DD	0f4000000H
	DD	0f2000000H
	DD	0f2000000H
	DD	0f0000000H
	DD	0ef000000H
	DD	0ed000000H
	DD	0ec000000H
	DD	0eb000000H
	DD	0ea000000H
	DD	0e8000000H
	DD	0e7000000H
	DD	0e5000000H
	DD	0e4000000H
	DD	0e3000000H
	DD	0e2000000H
	DD	0e0000000H
	DD	0df000000H
	DD	0e0000000H
	DD	0df000000H
	DD	0de000000H
	DD	0dd000000H
	DD	0dc000000H
	DD	0da000000H
	DD	0d9000000H
	DD	0d9000000H
	DD	0d7000000H
	DD	0d6000000H
	DD	0d7000000H
	DD	0d3000000H
	DD	0db000000H
	DD	0dc000000H
	DD	0b4000000H
	DD	07e000000H
	DD	05d0f0f0fH
	DD	051222222H
	DD	04f222222H
	DD	056151515H
	DD	06f000000H
	DD	08a000000H
	DD	0b2000000H
	DD	0b9000000H
	DD	0b0000000H
	DD	0a8000000H
	DD	09c000000H
	DD	08e050505H
	DD	08a060606H
	DD	09e000000H
	DD	0a3000000H
	DD	0a0000000H
	DD	09a000000H
	DD	090000000H
	DD	086000000H
	DD	05a0b0a0aH
	DD	018545453H
	DD	0106f6f6fH
	DD	0e767575H
	DD	0a737272H
	DD	0421b1a19H
	DD	073000000H
	DD	079000000H
	DD	085000000H
	DD	083000000H
	DD	076000000H
	DD	05c070707H
	DD	0283a3939H
	DD	01f504f4fH
	DD	0273c3b3bH
	DD	035333332H
	DD	07b0f0f0eH
	DD	0ab000000H
	DD	0b1000000H
	DD	0b9000000H
	DD	0c0000000H
	DD	0c9000000H
	DD	0cd010101H
	DD	0d1070707H
	DD	0d20f0f0fH
	DD	0d01d1d1dH
	DD	0d42a2a2aH
	DD	0d6424242H
	DD	0d8616161H
	DD	0db7c7c7cH
	DD	0df979797H
	DD	0e3acacacH
	DD	0e9bfbfbfH
	DD	0f0cececeH
	DD	0f5d8d8d8H
	DD	0f9e2e2e2H
	DD	0fde7e7e7H
	DD	0ffedededH
	DD	0ffffffffH
	DD	0ff4e4e4eH
	DD	0ff000000H
	DD	0ff000000H
	DD	0ff000000H
	DD	0ff000000H
	DD	0ff000000H
	DD	0ff000000H
	DD	0ff000000H
	DD	0ff444444H
	DD	0ffffffffH
	DD	0fffafafaH
	DD	0fffafafaH
	DD	0fffafafaH
	DD	0fffafafaH
	DD	0fffafafaH
	DD	0fffafafaH
	DD	0fffafafaH
	DD	0fffafafaH
	DD	0fffafafaH
	DD	0fffafafaH
	DD	0fffafafaH
	DD	0fffafafaH
	DD	0fffafafaH
	DD	0fffefefeH
	DD	0ffffffffH
	DD	0ffffffffH
	DD	0ffffffffH
	DD	0ffffffffH
	DD	0ffffffffH
	DD	0ffffffffH
	DD	0ffffffffH
	DD	0ffffffffH
	DD	0ffffffffH
	DD	0ffffffffH
	DD	0ffffffffH
	DD	0ffffffffH
	DD	0ffffffffH
	DD	0ffffffffH
	DD	0ffffffffH
	DD	0ffffffffH
	DD	0ffffffffH
	DD	0ffffffffH
	DD	0ffffffffH
	DD	0ffffffffH
	DD	0ffffffffH
	DD	0ffffffffH
	DD	0ffffffffH
	DD	0ffffffffH
	DD	0ff444444H
	DD	0de000000H
	DD	011747474H
	DD	0f6f6f6H
	DD	0e9e9e9H
	DD	0e9e9e9H
	DD	0e9e9e9H
	DD	0e9e9e9H
	DD	0eaeaeaH
	DD	0e8e8e8H
	DD	0d1d1d1H
	DD	059d9d9dH
	DD	045343434H
	DD	0c1000000H
	DD	0ff000000H
	DD	0ff000000H
	DD	0ff000000H
	DD	0ff000000H
	DD	0ff000000H
	DD	0ff000000H
	DD	0ff000000H
	DD	0ff000000H
	DD	0fe000000H
	DD	0fe000000H
	DD	0fe000000H
	DD	0fe000000H
	DD	0fe000000H
	DD	0fd000000H
	DD	0fd000000H
	DD	0fd000000H
	DD	0fc000000H
	DD	0fc000000H
	DD	0fc000000H
	DD	0fb000000H
	DD	0fa000000H
	DD	0fa000000H
	DD	0f9000000H
	DD	0f9000000H
	DD	0f9000000H
	DD	0f8000000H
	DD	0f7000000H
	DD	0f7000000H
	DD	0f5000000H
	DD	0f5000000H
	DD	0f4000000H
	DD	0f3000000H
	DD	0f2000000H
	DD	0f2000000H
	DD	0f1000000H
	DD	0f0000000H
	DD	0ef000000H
	DD	0ee000000H
	DD	0ed000000H
	DD	0ec000000H
	DD	0ea000000H
	DD	0ea000000H
	DD	0ea000000H
	DD	0e9000000H
	DD	0e8000000H
	DD	0e7000000H
	DD	0e7000000H
	DD	0e5000000H
	DD	0e5000000H
	DD	0e5000000H
	DD	0e3000000H
	DD	0e1000000H
	DD	0e2000000H
	DD	0eb000000H
	DD	0bc000000H
	DD	055222222H
	DD	0d7e7e7eH
	DD	0c5c5c5H
	DD	0e4e4e4H
	DD	0eaeaeaH
	DD	0eaeaeaH
	DD	0e4e4e4H
	DD	0cececeH
	DD	01a9a9a9H
	DD	02b464646H
	DD	0bc000000H
	DD	0d6000000H
	DD	0cf000000H
	DD	0d0000000H
	DD	0d0000000H
	DD	0cf000000H
	DD	0c9000000H
	DD	0c7000000H
	DD	0c4000000H
	DD	0c2000000H
	DD	0c0000000H
	DD	0bd000000H
	DD	0ba000000H
	DD	0aa020201H
	DD	09f030303H
	DD	09d060505H
	DD	09d060606H
	DD	0b1010101H
	DD	0bd000000H
	DD	0c7000000H
	DD	0a0000000H
	DD	03b2a2a2aH
	DD	039393939H
	DD	0ba000000H
	DD	0bf000000H
	DD	0b8000000H
	DD	0bd000000H
	DD	0c6000000H
	DD	0ca000000H
	DD	0ca000000H
	DD	0cf000000H
	DD	0d3060606H
	DD	0d60e0e0eH
	DD	0d8151515H
	DD	0d91a1a1aH
	DD	0d9252525H
	DD	0d93e3e3eH
	DD	0db545454H
	DD	0d9686868H
	DD	0d8838383H
	DD	0d79e9e9eH
	DD	0d8b6b6b6H
	DD	0dbc7c7c7H
	DD	0dfd3d3d3H
	DD	0e4dcdcdcH
	DD	0ebe6e6e6H
	DD	0f2ecececH
	DD	0f8efefefH
	DD	0fbf0f0f0H
	DD	0fef3f3f3H
	DD	0feffffffH
	DD	0ff4d4d4dH
	DD	0ff000000H
	DD	0ff000000H
	DD	0ff000000H
	DD	0ff000000H
	DD	0ff000000H
	DD	0ff000000H
	DD	0ff000000H
	DD	0ff454545H
	DD	0ffffffffH
	DD	0ffffffffH
	DD	0ffffffffH
	DD	0ffffffffH
	DD	0ffffffffH
	DD	0ffffffffH
	DD	0ffffffffH
	DD	0ffffffffH
	DD	0ffffffffH
	DD	0ffffffffH
	DD	0ffffffffH
	DD	0ffffffffH
	DD	0ffffffffH
	DD	0ffffffffH
	DD	0ffffffffH
	DD	0ffffffffH
	DD	0ffffffffH
	DD	0ffffffffH
	DD	0ffffffffH
	DD	0ffffffffH
	DD	0ffffffffH
	DD	0ffffffffH
	DD	0ffffffffH
	DD	0ffffffffH
	DD	0ffffffffH
	DD	0ffffffffH
	DD	0ffffffffH
	DD	0ffffffffH
	DD	0ffffffffH
	DD	0ffffffffH
	DD	0ffffffffH
	DD	0ffffffffH
	DD	0ffffffffH
	DD	0ffffffffH
	DD	0ffffffffH
	DD	0ffffffffH
	DD	0ffffffffH
	DD	0ffffffffH
	DD	0ffffffffH
	DD	0ff444444H
	DD	0da000000H
	DD	0f808080H
	DD	0ffffffH
	DD	0ffffffH
	DD	0ffffffH
	DD	0ffffffH
	DD	0ffffffH
	DD	0ffffffH
	DD	0ffffffH
	DD	0ffffffH
	DD	0ffffffH
	DD	0fafafaH
	DD	0f6d6d6dH
	DD	0c0000000H
	DD	0ff000000H
	DD	0ff000000H
	DD	0ff000000H
	DD	0ff000000H
	DD	0ff000000H
	DD	0ff000000H
	DD	0ff000000H
	DD	0ff000000H
	DD	0ff000000H
	DD	0ff000000H
	DD	0ff000000H
	DD	0ff000000H
	DD	0fe000000H
	DD	0fe000000H
	DD	0fe000000H
	DD	0fe000000H
	DD	0fe000000H
	DD	0fe000000H
	DD	0fd000000H
	DD	0fd000000H
	DD	0fd000000H
	DD	0fc000000H
	DD	0fc000000H
	DD	0fc000000H
	DD	0fc000000H
	DD	0fb000000H
	DD	0fb000000H
	DD	0fa000000H
	DD	0fa000000H
	DD	0f9000000H
	DD	0f9000000H
	DD	0f8000000H
	DD	0f7000000H
	DD	0f7000000H
	DD	0f6000000H
	DD	0f6000000H
	DD	0f5000000H
	DD	0f4000000H
	DD	0f3000000H
	DD	0f2000000H
	DD	0f2000000H
	DD	0f1000000H
	DD	0f0000000H
	DD	0f0000000H
	DD	0ef000000H
	DD	0ef000000H
	DD	0ee000000H
	DD	0ed000000H
	DD	0ed000000H
	DD	0ec000000H
	DD	0ec000000H
	DD	0f3000000H
	DD	0ad000000H
	DD	012606060H
	DD	0eaeaeaH
	DD	0ffffffH
	DD	0ffffffH
	DD	0ffffffH
	DD	0ffffffH
	DD	0ffffffH
	DD	0ffffffH
	DD	0ffffffH
	DD	0ffffffH
	DD	09959595H
	DD	0b0000000H
	DD	0ec000000H
	DD	0e3000000H
	DD	0e1000000H
	DD	0e1000000H
	DD	0e0000000H
	DD	0e0000000H
	DD	0dd000000H
	DD	0dc000000H
	DD	0dc000000H
	DD	0db000000H
	DD	0d9000000H
	DD	0d9000000H
	DD	0da000000H
	DD	0da000000H
	DD	0db000000H
	DD	0da000000H
	DD	0d8000000H
	DD	0cf000000H
	DD	066090909H
	DD	012787878H
	DD	0f9f9f9H
	DD	0f7e7e7eH
	DD	0bd000000H
	DD	0e2000000H
	DD	0de000000H
	DD	0df010101H
	DD	0df0a0a0aH
	DD	0dd0f0f0fH
	DD	0dd0e0e0eH
	DD	0de161616H
	DD	0de262626H
	DD	0de303030H
	DD	0df3b3b3bH
	DD	0de484848H
	DD	0dc5d5d5dH
	DD	0da7b7b7bH
	DD	0d9929292H
	DD	0d5a6a6a6H
	DD	0d3bebebeH
	DD	0d2cececeH
	DD	0d1dadadaH
	DD	0d4e5e5e5H
	DD	0d9edededH
	DD	0dfeeeeeeH
	DD	0e7f3f3f3H
	DD	0eff4f4f4H
	DD	0f5f9f9f9H
	DD	0faf9f9f9H
	DD	0fdf8f8f8H
	DD	0feffffffH
	DD	0ff505050H
	DD	0ff000000H
	DD	0ff000000H
	DD	0ff000000H
	DD	0ff000000H
	DD	0ff000000H
	DD	0ff000000H
	DD	0ff000000H
	DD	0ff454545H
	DD	0ffffffffH
	DD	0ffffffffH
	DD	0ffffffffH
	DD	0ffffffffH
	DD	0ffffffffH
	DD	0ffffffffH
	DD	0ffffffffH
	DD	0ffffffffH
	DD	0ffffffffH
	DD	0ffffffffH
	DD	0ffffffffH
	DD	0ffffffffH
	DD	0ffffffffH
	DD	0ffffffffH
	DD	0ffffffffH
	DD	0ffffffffH
	DD	0ffffffffH
	DD	0ffffffffH
	DD	0ffffffffH
	DD	0ffffffffH
	DD	0ffffffffH
	DD	0ffffffffH
	DD	0ffffffffH
	DD	0ffffffffH
	DD	0ffffffffH
	DD	0ffffffffH
	DD	0ffffffffH
	DD	0ffffffffH
	DD	0ffffffffH
	DD	0ffffffffH
	DD	0ffffffffH
	DD	0ffffffffH
	DD	0ffffffffH
	DD	0ffffffffH
	DD	0ffffffffH
	DD	0ffffffffH
	DD	0ffffffffH
	DD	0ffffffffH
	DD	0ffffffffH
	DD	0ff444444H
	DD	0d9000000H
	DD	0f7f7f7fH
	DD	0ffffffH
	DD	0ffffffH
	DD	0ffffffH
	DD	0e0e0e0H
	DD	0868686H
	DD	09b9b9bH
	DD	0e8e8e8H
	DD	0ffffffH
	DD	0ffffffH
	DD	0ffffffH
	DD	0f4f4f4H
	DD	04d313131H
	DD	0ff000000H
	DD	0ff000000H
	DD	0ff000000H
	DD	0ff000000H
	DD	0ff000000H
	DD	0ff000000H
	DD	0ff000000H
	DD	0ff000000H
	DD	0ff000000H
	DD	0ff000000H
	DD	0ff000000H
	DD	0ff000000H
	DD	0ff000000H
	DD	0ff000000H
	DD	0fe000000H
	DD	0ff000000H
	DD	0fe000000H
	DD	0fe000000H
	DD	0fe000000H
	DD	0fe000000H
	DD	0fe000000H
	DD	0ff000000H
	DD	0ff000000H
	DD	0ff000000H
	DD	0ff000000H
	DD	0ff000000H
	DD	0ff000000H
	DD	0ff000000H
	DD	0fd000000H
	DD	0fb000000H
	DD	0fc000000H
	DD	0fb000000H
	DD	0fb000000H
	DD	0fb000000H
	DD	0ff000000H
	DD	0ff000000H
	DD	0ff000000H
	DD	0ff000000H
	DD	0ff000000H
	DD	0ff000000H
	DD	0f9000000H
	DD	0f6000000H
	DD	0f6000000H
	DD	0f5000000H
	DD	0f5000000H
	DD	0f5000000H
	DD	0f4000000H
	DD	0f3000000H
	DD	0f3000000H
	DD	0f3000000H
	DD	0f8000000H
	DD	0e0000000H
	DD	022565656H
	DD	0fdfdfdH
	DD	0ffffffH
	DD	0ffffffH
	DD	0ffffffH
	DD	0ebebebH
	DD	0d1d1d1H
	DD	0cececeH
	DD	0e1e1e1H
	DD	0f8f8f8H
	DD	0ffffffH
	DD	017626262H
	DD	0bd000000H
	DD	0ed000000H
	DD	0ec000000H
	DD	0ec000000H
	DD	0ed000000H
	DD	0ed000000H
	DD	0f1000000H
	DD	0f6000000H
	DD	0f4000000H
	DD	0f4000000H
	DD	0f4000000H
	DD	0f1000000H
	DD	0e9000000H
	DD	0e6000000H
	DD	0e6000000H
	DD	0e5000000H
	DD	0f0000000H
	DD	0df000000H
	DD	048363636H
	DD	0cfcfcfH
	DD	0ffffffH
	DD	0ffffffH
	DD	0e757575H
	DD	0bf000000H
	DD	0f2101010H
	DD	0eb151515H
	DD	0e31f1f1fH
	DD	0e4292929H
	DD	0ed3a3a3aH
	DD	0ed434343H
	DD	0eb545454H
	DD	0e8636363H
	DD	0e1606060H
	DD	0de737373H
	DD	0dc898989H
	DD	0d9aaaaaaH
	DD	0d9bababaH
	DD	0d6cacacaH
	DD	0d3d9d9d9H
	DD	0d1ebebebH
	DD	0cbedededH
	DD	0c8eeeeeeH
	DD	0cbefefefH
	DD	0d4f7f7f7H
	DD	0e3ffffffH
	DD	0eeffffffH
	DD	0f8ffffffH
	DD	0fdffffffH
	DD	0fbfefefeH
	DD	0fefefefeH
	DD	0ffffffffH
	DD	0ff515151H
	DD	0ff000000H
	DD	0ff000000H
	DD	0ff000000H
	DD	0ff000000H
	DD	0ff000000H
	DD	0ff000000H
	DD	0ff000000H
	DD	0ff454545H
	DD	0ffffffffH
	DD	0ffffffffH
	DD	0ffffffffH
	DD	0ffffffffH
	DD	0ffffffffH
	DD	0ffffffffH
	DD	0ffffffffH
	DD	0ffffffffH
	DD	0ffffffffH
	DD	0ffffffffH
	DD	0ffffffffH
	DD	0ffffffffH
	DD	0ffffffffH
	DD	0ffffffffH
	DD	0ffffffffH
	DD	0ffffffffH
	DD	0ffffffffH
	DD	0ffffffffH
	DD	0ffffffffH
	DD	0ffffffffH
	DD	0ffffffffH
	DD	0ffffffffH
	DD	0ffffffffH
	DD	0ffffffffH
	DD	0ffffffffH
	DD	0ffffffffH
	DD	0ffffffffH
	DD	0ffffffffH
	DD	0ffffffffH
	DD	0ffffffffH
	DD	0ffffffffH
	DD	0ffffffffH
	DD	0ffffffffH
	DD	0ffffffffH
	DD	0ffffffffH
	DD	0ffffffffH
	DD	0ffffffffH
	DD	0ffffffffH
	DD	0ffffffffH
	DD	0ff444444H
	DD	0d9000000H
	DD	0f7f7f7fH
	DD	0ffffffH
	DD	0ffffffH
	DD	0ffffffH
	DD	0b8b8b8H
	DD	02f000000H
	DD	048000000H
	DD	018272727H
	DD	0ddddddH
	DD	0ffffffH
	DD	0ffffffH
	DD	0ffffffH
	DD	0969696H
	DD	0c7000000H
	DD	0ff000000H
	DD	0ff000000H
	DD	0ff000000H
	DD	0ff000000H
	DD	0ff000000H
	DD	0ea000000H
	DD	0d3000000H
	DD	0bf000000H
	DD	0bd000000H
	DD	0c2000000H
	DD	0df000000H
	DD	0fe000000H
	DD	0ff000000H
	DD	0ff000000H
	DD	0ff000000H
	DD	0ff000000H
	DD	0ff000000H
	DD	0ff000000H
	DD	0ff000000H
	DD	0ff000000H
	DD	0ee000000H
	DD	0c5000000H
	DD	0a3030303H
	DD	0950a0a0aH
	DD	097090909H
	DD	0bd010101H
	DD	0e3000000H
	DD	0ff000000H
	DD	0ff000000H
	DD	0fe000000H
	DD	0fd000000H
	DD	0ff000000H
	DD	0fe000000H
	DD	0e0000000H
	DD	0b6000000H
	DD	097070707H
	DD	094090909H
	DD	0ae010101H
	DD	0d5000000H
	DD	0fa000000H
	DD	0ff000000H
	DD	0fa000000H
	DD	0fa000000H
	DD	0fa000000H
	DD	0f9000000H
	DD	0f9000000H
	DD	0f9000000H
	DD	0f8000000H
	DD	0f7000000H
	DD	0ff000000H
	DD	097080808H
	DD	0c5c5c5H
	DD	0ffffffH
	DD	0ffffffH
	DD	0ffffffH
	DD	027a7a7aH
	DD	01a151515H
	DD	0280f0f0fH
	DD	02b0e0e0eH
	DD	023161616H
	DD	018212121H
	DD	06505050H
	DD	03f1a1a1aH
	DD	0c3000000H
	DD	0ef000000H
	DD	0f3000000H
	DD	0f2000000H
	DD	0f9000000H
	DD	0fb000000H
	DD	0d2000000H
	DD	0ab000000H
	DD	090070707H
	DD	08d090909H
	DD	0a7000000H
	DD	0cc000000H
	DD	0f5000000H
	DD	0f8000000H
	DD	0ef000000H
	DD	0ee000000H
	DD	0dd000000H
	DD	0a8000000H
	DD	0f8a8a8aH
	DD	0ffffffH
	DD	0ffffffH
	DD	0ffffffH
	DD	0c747474H
	DD	090000000H
	DD	0c10a0a0aH
	DD	0d9282828H
	DD	0e9525252H
	DD	0e4565656H
	DD	0c43e3e3eH
	DD	0ba444444H
	DD	0b74e4e4eH
	DD	0bb5d5d5dH
	DD	0d7909090H
	DD	0d8b1b1b1H
	DD	0d3c2c2c2H
	DD	0cfd2d2d2H
	DD	0b6b0b0b0H
	DD	09f9a9a9aH
	DD	09ea3a3a3H
	DD	09caaaaaaH
	DD	0b0cfcfcfH
	DD	0c0f9f9f9H
	DD	0c5fdfdfdH
	DD	0cbebebebH
	DD	0b6b3b3b3H
	DD	0bcaeaeaeH
	DD	0c2adadadH
	DD	0d1afafafH
	DD	0fbf1f1f1H
	DD	0ffe5e5e5H
	DD	0eebbbbbbH
	DD	0d3383838H
	DD	0d5000000H
	DD	0f0000000H
	DD	0ff000000H
	DD	0ff000000H
	DD	0ff000000H
	DD	0ff000000H
	DD	0ff000000H
	DD	0ff454545H
	DD	0ffffffffH
	DD	0ffffffffH
	DD	0ffffffffH
	DD	0ffffffffH
	DD	0ffffffffH
	DD	0ffffffffH
	DD	0ffffffffH
	DD	0ffffffffH
	DD	0ffffffffH
	DD	0ffffffffH
	DD	0ffffffffH
	DD	0ffffffffH
	DD	0ffffffffH
	DD	0ffffffffH
	DD	0ffffffffH
	DD	0ffffffffH
	DD	0ffffffffH
	DD	0ffffffffH
	DD	0ffffffffH
	DD	0ffffffffH
	DD	0ffffffffH
	DD	0ffffffffH
	DD	0ffffffffH
	DD	0ffffffffH
	DD	0ffffffffH
	DD	0ffffffffH
	DD	0ffffffffH
	DD	0ffffffffH
	DD	0ffffffffH
	DD	0ffffffffH
	DD	0ffffffffH
	DD	0ffffffffH
	DD	0ffffffffH
	DD	0ffffffffH
	DD	0ffffffffH
	DD	0ffffffffH
	DD	0ffffffffH
	DD	0ffffffffH
	DD	0ffffffffH
	DD	0ff444444H
	DD	0d9000000H
	DD	0f7f7f7fH
	DD	0ffffffH
	DD	0ffffffH
	DD	0ffffffH
	DD	0bbbbbbH
	DD	05c000000H
	DD	0b4000000H
	DD	081000000H
	DD	02808080H
	DD	0ffffffH
	DD	0ffffffH
	DD	0ffffffH
	DD	0c0c0c0H
	DD	093000000H
	DD	0ff000000H
	DD	0ff000000H
	DD	0f9000000H
	DD	0a5050505H
	DD	053242424H
	DD	0226b6b6bH
	DD	0b8e8e8eH
	DD	0aaaaaaH
	DD	0aeaeaeH
	DD	0a6a6a6H
	DD	0147d7d7dH
	DD	04e282828H
	DD	0d1000000H
	DD	0ff000000H
	DD	0ff000000H
	DD	0ff000000H
	DD	0ff000000H
	DD	0ff000000H
	DD	0f0000000H
	DD	0840b0b0bH
	DD	0255d5d5dH
	DD	02a3a3a3H
	DD	0c2c2c2H
	DD	0cdcdcdH
	DD	0cbcbcbH
	DD	0abababH
	DD	017727272H
	DD	076141414H
	DD	0fa000000H
	DD	0ff000000H
	DD	0ff000000H
	DD	0dd000000H
	DD	0641a1a1aH
	DD	017797979H
	DD	0b1b1b1H
	DD	0cacacaH
	DD	0cdcdcdH
	DD	0b8b8b8H
	DD	0d888888H
	DD	0542d2d2dH
	DD	0c7000000H
	DD	0ff000000H
	DD	0fd000000H
	DD	0fc000000H
	DD	0fc000000H
	DD	0fc000000H
	DD	0fc000000H
	DD	0fc000000H
	DD	0fb000000H
	DD	0ff000000H
	DD	05d242424H
	DD	0f1f1f1H
	DD	0ffffffH
	DD	0ffffffH
	DD	0dbdbdbH
	DD	02a090909H
	DD	075000000H
	DD	089000000H
	DD	091000000H
	DD	08f000000H
	DD	085000000H
	DD	072000000H
	DD	094000000H
	DD	0d4000000H
	DD	0f5000000H
	DD	0f6000000H
	DD	0ff000000H
	DD	0d2000000H
	DD	05c1d1d1dH
	DD	0147c7c7cH
	DD	0b3b3b3H
	DD	0cacacaH
	DD	0ccccccH
	DD	0b6b6b6H
	DD	0d868686H
	DD	054292929H
	DD	0c5000000H
	DD	0ff000000H
	DD	0ea000000H
	DD	0393c3c3cH
	DD	06919191H
	DD	07cacacaH
	DD	0ffffffH
	DD	0ffffffH
	DD	0ffffffH
	DD	05c1c1c1H
	DD	08888888H
	DD	03919191H
	DD	042434343H
	DD	0e3707070H
	DD	09c494949H
	DD	0e727272H
	DD	068d8d8dH
	DD	078b8b8bH
	DD	08787878H
	DD	07b666666H
	DD	0d5e8e8e8H
	DD	0cae8e8e8H
	DD	0b0bcbcbcH
	DD	029626262H
	DD	018d8d8dH
	DD	068c8c8cH
	DD	028b8b8bH
	DD	034676767H
	DD	0b1e1e1e1H
	DD	0cbffffffH
	DD	0737a7a7aH
	DD	03717171H
	DD	07858585H
	DD	05878787H
	DD	014585858H
	DD	0b63c3c3cH
	DD	080404040H
	DD	027484848H
	DD	0a898989H
	DD	0d8c8c8cH
	DD	0285d5d5dH
	DD	07e121212H
	DD	0ea000000H
	DD	0ff000000H
	DD	0ff000000H
	DD	0ff000000H
	DD	0ff454545H
	DD	0ffffffffH
	DD	0ffffffffH
	DD	0ffffffffH
	DD	0ffffffffH
	DD	0ffffffffH
	DD	0ffffffffH
	DD	0ffffffffH
	DD	0ffffffffH
	DD	0ffffffffH
	DD	0ffffffffH
	DD	0ffffffffH
	DD	0ffffffffH
	DD	0ffffffffH
	DD	0ffffffffH
	DD	0ffffffffH
	DD	0ffffffffH
	DD	0ffffffffH
	DD	0ffffffffH
	DD	0ffffffffH
	DD	0ffffffffH
	DD	0ffffffffH
	DD	0ffffffffH
	DD	0ffffffffH
	DD	0ffffffffH
	DD	0ffffffffH
	DD	0ffffffffH
	DD	0ffffffffH
	DD	0ffffffffH
	DD	0ffffffffH
	DD	0ffffffffH
	DD	0ffffffffH
	DD	0ffffffffH
	DD	0ffffffffH
	DD	0ffffffffH
	DD	0ffffffffH
	DD	0ffffffffH
	DD	0ffffffffH
	DD	0ffffffffH
	DD	0ffffffffH
	DD	0ff444444H
	DD	0d9000000H
	DD	0f7f7f7fH
	DD	0ffffffH
	DD	0ffffffH
	DD	0ffffffH
	DD	0bbbbbbH
	DD	07a000000H
	DD	0f7000000H
	DD	0d5000000H
	DD	0146d6d6dH
	DD	0ffffffH
	DD	0ffffffH
	DD	0ffffffH
	DD	0cececeH
	DD	0770b0b0bH
	DD	0ff000000H
	DD	0ff000000H
	DD	0ac060606H
	DD	09e9e9eH
	DD	0fdfdfdH
	DD	0ffffffH
	DD	0ffffffH
	DD	0ffffffH
	DD	0ffffffH
	DD	0ffffffH
	DD	0ffffffH
	DD	0f5f5f5H
	DD	01f737373H
	DD	0c0000000H
	DD	0ff000000H
	DD	0ff000000H
	DD	0ff000000H
	DD	0cc000000H
	DD	02d3a3a3aH
	DD	0d3d3d3H
	DD	0ffffffH
	DD	0ffffffH
	DD	0ffffffH
	DD	0ffffffH
	DD	0ffffffH
	DD	0ffffffH
	DD	0ffffffH
	DD	04929292H
	DD	0cb000000H
	DD	0ff000000H
	DD	0d6000000H
	DD	02a4f4f4fH
	DD	0e5e5e5H
	DD	0ffffffH
	DD	0ffffffH
	DD	0ffffffH
	DD	0ffffffH
	DD	0ffffffH
	DD	0ffffffH
	DD	0f4f4f4H
	DD	011696969H
	DD	0b8000000H
	DD	0ff000000H
	DD	0fe000000H
	DD	0fd000000H
	DD	0fd000000H
	DD	0fd000000H
	DD	0fd000000H
	DD	0fd000000H
	DD	0ff000000H
	DD	054272727H
	DD	0f6f6f6H
	DD	0ffffffH
	DD	0ffffffH
	DD	0eeeeeeH
	DD	0292b2b2bH
	DD	0ba000000H
	DD	0ea000000H
	DD	0eb000000H
	DD	0e0000000H
	DD	0d8000000H
	DD	0d0000000H
	DD	0d6000000H
	DD	0ee000000H
	DD	0f9000000H
	DD	0ff000000H
	DD	0cd000000H
	DD	023565656H
	DD	0e9e9e9H
	DD	0ffffffH
	DD	0ffffffH
	DD	0ffffffH
	DD	0ffffffH
	DD	0ffffffH
	DD	0ffffffH
	DD	0f1f1f1H
	DD	014616161H
	DD	0be000000H
	DD	0ed000000H
	DD	086d6d6dH
	DD	0ffffffH
	DD	0ffffffH
	DD	0ffffffH
	DD	0ffffffH
	DD	0ffffffH
	DD	0ffffffH
	DD	0ffffffH
	DD	0ffffffH
	DD	0f767676H
	DD	0ce747474H
	DD	070545454H
	DD	0d6d6d6H
	DD	0ffffffH
	DD	0ffffffH
	DD	0e7e7e7H
	DD	0465b5b5bH
	DD	0c5e6e6e6H
	DD	0bff9f9f9H
	DD	093aeaeaeH
	DD	058b8b8bH
	DD	0ffffffH
	DD	0ffffffH
	DD	0ffffffH
	DD	0e777777H
	DD	0a3c0c0c0H
	DD	0cef7f7f7H
	DD	0545d5d5dH
	DD	0e1e1e1H
	DD	0ffffffH
	DD	0ffffffH
	DD	0bdbdbdH
	DD	018333333H
	DD	03d3d3d3H
	DD	0ffffffH
	DD	0ffffffH
	DD	0ffffffH
	DD	0ffffffH
	DD	0d8d8d8H
	DD	025393939H
	DD	0dc000000H
	DD	0ff000000H
	DD	0ff000000H
	DD	0ff454545H
	DD	0ffffffffH
	DD	0ffffffffH
	DD	0ffffffffH
	DD	0ffffffffH
	DD	0ffffffffH
	DD	0ffffffffH
	DD	0ffffffffH
	DD	0ffffffffH
	DD	0ffffffffH
	DD	0ffffffffH
	DD	0ffffffffH
	DD	0ffffffffH
	DD	0ffffffffH
	DD	0ffffffffH
	DD	0ffffffffH
	DD	0ffffffffH
	DD	0ffffffffH
	DD	0ffffffffH
	DD	0ffffffffH
	DD	0ffffffffH
	DD	0ffffffffH
	DD	0ffffffffH
	DD	0ffffffffH
	DD	0ffffffffH
	DD	0ffffffffH
	DD	0ffffffffH
	DD	0ffffffffH
	DD	0ffffffffH
	DD	0ffffffffH
	DD	0ffffffffH
	DD	0ffffffffH
	DD	0ffffffffH
	DD	0ffffffffH
	DD	0ffffffffH
	DD	0ffffffffH
	DD	0ffffffffH
	DD	0ffffffffH
	DD	0ffffffffH
	DD	0ffffffffH
	DD	0ff444444H
	DD	0d9000000H
	DD	0f7f7f7fH
	DD	0ffffffH
	DD	0ffffffH
	DD	0ffffffH
	DD	0bbbbbbH
	DD	080000000H
	DD	0ff000000H
	DD	0da000000H
	DD	077d7d7dH
	DD	0ffffffH
	DD	0ffffffH
	DD	0ffffffH
	DD	0bebebeH
	DD	07d000000H
	DD	0fa000000H
	DD	0ff000000H
	DD	0b2000000H
	DD	0b1b1b1H
	DD	0ffffffH
	DD	0eeeeeeH
	DD	0d9d9d9H
	DD	0d5d5d5H
	DD	0e8e8e8H
	DD	0ffffffH
	DD	0ffffffH
	DD	0ffffffH
	DD	0ffffffH
	DD	0344c4c4cH
	DD	0f2000000H
	DD	0ff000000H
	DD	0eb000000H
	DD	02c404040H
	DD	0edededH
	DD	0ffffffH
	DD	0ffffffH
	DD	0ffffffH
	DD	0f7f7f7H
	DD	0c7c7c7H
	DD	0b9b9b9H
	DD	0d1d1d1H
	DD	0ffffffH
	DD	06747474H
	DD	0d4000000H
	DD	0ec000000H
	DD	02b4a4a4aH
	DD	0f6f6f6H
	DD	0ffffffH
	DD	0ffffffH
	DD	0dededeH
	DD	05858585H
	DD	05828282H
	DD	0d7d7d7H
	DD	0ffffffH
	DD	0ffffffH
	DD	0fdfdfdH
	DD	01b595959H
	DD	0dd000000H
	DD	0ff000000H
	DD	0fe000000H
	DD	0fe000000H
	DD	0fe000000H
	DD	0fe000000H
	DD	0fe000000H
	DD	0ff000000H
	DD	079161616H
	DD	0dcdcdcH
	DD	0ffffffH
	DD	0ffffffH
	DD	0ffffffH
	DD	0d3d3d3H
	DD	032404040H
	DD	097070707H
	DD	0da000000H
	DD	0fe000000H
	DD	0ff000000H
	DD	0fd000000H
	DD	0fa000000H
	DD	0fb000000H
	DD	0ff000000H
	DD	0e1000000H
	DD	024535353H
	DD	0fafafaH
	DD	0ffffffH
	DD	0ffffffH
	DD	0dadadaH
	DD	05838383H
	DD	04858585H
	DD	0dbdbdbH
	DD	0ffffffH
	DD	0ffffffH
	DD	0fafafaH
	DD	024505050H
	DD	0ce000000H
	DD	018676767H
	DD	0fdfdfdH
	DD	0f6f6f6H
	DD	0ffffffH
	DD	0ffffffH
	DD	0ffffffH
	DD	0f5f5f5H
	DD	0edededH
	DD	0f4f4f4H
	DD	011676767H
	DD	0bb6b6b6bH
	DD	06c595959H
	DD	0d2d2d2H
	DD	0ffffffH
	DD	0ffffffH
	DD	0e5e5e5H
	DD	03a505050H
	DD	0afd4d4d4H
	DD	0b4ffffffH
	DD	08db7b7b7H
	DD	068a8a8aH
	DD	0ffffffH
	DD	0ffffffH
	DD	0ffffffH
	DD	0b727272H
	DD	09b989898H
	DD	0d5efefefH
	DD	0585c5c5cH
	DD	0e2e2e2H
	DD	0ffffffH
	DD	0ffffffH
	DD	0f0f0f0H
	DD	0edededH
	DD	0ffffffH
	DD	0ffffffH
	DD	0ffffffH
	DD	0ffffffH
	DD	0ffffffH
	DD	0ffffffH
	DD	0e0e0e0H
	DD	0681c1c1cH
	DD	0ff000000H
	DD	0ff000000H
	DD	0ff454545H
	DD	0ffffffffH
	DD	0ffffffffH
	DD	0ffffffffH
	DD	0ffffffffH
	DD	0ffffffffH
	DD	0ffffffffH
	DD	0ffffffffH
	DD	0ffffffffH
	DD	0ffffffffH
	DD	0ffffffffH
	DD	0ffffffffH
	DD	0ffffffffH
	DD	0ffffffffH
	DD	0ffffffffH
	DD	0ffffffffH
	DD	0ffffffffH
	DD	0ffffffffH
	DD	0ffffffffH
	DD	0ffffffffH
	DD	0ffffffffH
	DD	0ffffffffH
	DD	0ffffffffH
	DD	0ffffffffH
	DD	0ffffffffH
	DD	0ffffffffH
	DD	0ffffffffH
	DD	0ffffffffH
	DD	0ffffffffH
	DD	0ffffffffH
	DD	0ffffffffH
	DD	0ffffffffH
	DD	0ffffffffH
	DD	0ffffffffH
	DD	0ffffffffH
	DD	0ffffffffH
	DD	0ffffffffH
	DD	0ffffffffH
	DD	0ffffffffH
	DD	0ffffffffH
	DD	0ff444444H
	DD	0d9000000H
	DD	0f7f7f7fH
	DD	0ffffffH
	DD	0ffffffH
	DD	0ffffffH
	DD	0b9b9b9H
	DD	07a000000H
	DD	0ec000000H
	DD	071151515H
	DD	0d2d2d2H
	DD	0ffffffH
	DD	0ffffffH
	DD	0ffffffH
	DD	0969696H
	DD	092000000H
	DD	0f8000000H
	DD	0ff000000H
	DD	0e4000000H
	DD	0234d4d4dH
	DD	013565656H
	DD	02a272727H
	DD	037101010H
	DD	0380d0d0dH
	DD	0281a1a1aH
	DD	077e7e7eH
	DD	0ffffffH
	DD	0ffffffH
	DD	0ffffffH
	DD	0afafafH
	DD	0af000000H
	DD	0ff000000H
	DD	0880c0c0cH
	DD	0d1d1d1H
	DD	0ffffffH
	DD	0ffffffH
	DD	0ffffffH
	DD	0d3d3d3H
	DD	012383838H
	DD	030020202H
	DD	03a000000H
	DD	030070707H
	DD	0f494949H
	DD	022333333H
	DD	0d3000000H
	DD	07e101010H
	DD	0d1d1d1H
	DD	0ffffffH
	DD	0ffffffH
	DD	0e9e9e9H
	DD	0162a2a2aH
	DD	04b000000H
	DD	056000000H
	DD	01e202020H
	DD	0e4e4e4H
	DD	0ffffffH
	DD	0ffffffH
	DD	0d7d7d7H
	DD	0830b0b0bH
	DD	0ff000000H
	DD	0ff000000H
	DD	0ff000000H
	DD	0ff000000H
	DD	0ff000000H
	DD	0ff000000H
	DD	0ff000000H
	DD	0bd000000H
	DD	0999999H
	DD	0ffffffH
	DD	0ffffffH
	DD	0ffffffH
	DD	0ffffffH
	DD	0fdfdfdH
	DD	0cdcdcdH
	DD	0f838383H
	DD	053252525H
	DD	0c6000000H
	DD	0ff000000H
	DD	0ff000000H
	DD	0fe000000H
	DD	0ff000000H
	DD	075141414H
	DD	0d8d8d8H
	DD	0ffffffH
	DD	0ffffffH
	DD	0e3e3e3H
	DD	018232323H
	DD	04b000000H
	DD	053000000H
	DD	01b262626H
	DD	0e9e9e9H
	DD	0ffffffH
	DD	0ffffffH
	DD	0d0d0d0H
	DD	08b0b0b0bH
	DD	096111111H
	DD	0291e1e1eH
	DD	03999999H
	DD	0ffffffH
	DD	0ffffffH
	DD	0ffffffH
	DD	048a8a8aH
	DD	0181c1c1cH
	DD	018292929H
	DD	049222222H
	DD	0bc797979H
	DD	0645b5b5bH
	DD	0d2d2d2H
	DD	0ffffffH
	DD	0ffffffH
	DD	0e6e6e6H
	DD	030464646H
	DD	0a3c8c8c8H
	DD	0b3ffffffH
	DD	08db9b9b9H
	DD	068a8a8aH
	DD	0ffffffH
	DD	0ffffffH
	DD	0ffffffH
	DD	086e6e6eH
	DD	099747474H
	DD	0e0e4e4e4H
	DD	05c555555H
	DD	0e3e3e3H
	DD	0ffffffH
	DD	0ffffffH
	DD	0ffffffH
	DD	0fcfcfcH
	DD	02a7a7a7H
	DD	037b7b7bH
	DD	0b9b9b9H
	DD	0ffffffH
	DD	0ffffffH
	DD	0ffffffH
	DD	0ffffffH
	DD	0e868686H
	DD	0d1000000H
	DD	0ff000000H
	DD	0ff454545H
	DD	0ffffffffH
	DD	0ffffffffH
	DD	0ffffffffH
	DD	0ffffffffH
	DD	0ffffffffH
	DD	0ffffffffH
	DD	0ffffffffH
	DD	0ffffffffH
	DD	0ffffffffH
	DD	0ffffffffH
	DD	0ffffffffH
	DD	0ffffffffH
	DD	0ffffffffH
	DD	0ffffffffH
	DD	0ffffffffH
	DD	0ffffffffH
	DD	0ffffffffH
	DD	0ffffffffH
	DD	0ffffffffH
	DD	0ffffffffH
	DD	0ffffffffH
	DD	0ffffffffH
	DD	0ffffffffH
	DD	0ffffffffH
	DD	0ffffffffH
	DD	0ffffffffH
	DD	0ffffffffH
	DD	0ffffffffH
	DD	0ffffffffH
	DD	0ffffffffH
	DD	0ffffffffH
	DD	0ffffffffH
	DD	0ffffffffH
	DD	0ffffffffH
	DD	0ffffffffH
	DD	0ffffffffH
	DD	0ffffffffH
	DD	0ffffffffH
	DD	0ffffffffH
	DD	0ff444444H
	DD	0d9000000H
	DD	0f7f7f7fH
	DD	0ffffffH
	DD	0ffffffH
	DD	0ffffffH
	DD	02d3d3d3H
	DD	01b585858H
	DD	017636363H
	DD	0c2c2c2H
	DD	0ffffffH
	DD	0ffffffH
	DD	0ffffffH
	DD	0f9f9f9H
	DD	01e393939H
	DD	0b1000000H
	DD	0f8000000H
	DD	0ff000000H
	DD	0ff000000H
	DD	0c9000000H
	DD	06b000000H
	DD	03e000000H
	DD	03b000000H
	DD	046000000H
	DD	06e000000H
	DD	035070707H
	DD	0e9e9e9H
	DD	0ffffffH
	DD	0ffffffH
	DD	0d8d8d8H
	DD	077141414H
	DD	0f8000000H
	DD	025595959H
	DD	0ffffffH
	DD	0ffffffH
	DD	0ffffffH
	DD	0fbfbfbH
	DD	0f434343H
	DD	058000000H
	DD	087000000H
	DD	09c000000H
	DD	09a000000H
	DD	082000000H
	DD	091000000H
	DD	0cd000000H
	DD	02a535353H
	DD	0ffffffH
	DD	0ffffffH
	DD	0ffffffH
	DD	08f8f8fH
	DD	059000000H
	DD	0a4000000H
	DD	0c3000000H
	DD	08f000000H
	DD	08909090H
	DD	0ffffffH
	DD	0ffffffH
	DD	0ffffffH
	DD	031494949H
	DD	0f2000000H
	DD	0ff000000H
	DD	0ff000000H
	DD	0ff000000H
	DD	0ff000000H
	DD	0ff000000H
	DD	0ff000000H
	DD	0f5000000H
	DD	04c272727H
	DD	0e4e4e4H
	DD	0ffffffH
	DD	0ffffffH
	DD	0ffffffH
	DD	0ffffffH
	DD	0ffffffH
	DD	0ffffffH
	DD	0f4f4f4H
	DD	08d8d8dH
	DD	070141414H
	DD	0fa000000H
	DD	0ff000000H
	DD	0f1000000H
	DD	0235c5c5cH
	DD	0ffffffH
	DD	0ffffffH
	DD	0ffffffH
	DD	02868686H
	DD	05e000000H
	DD	0a4000000H
	DD	0c1000000H
	DD	088000000H
	DD	06989898H
	DD	0ffffffH
	DD	0ffffffH
	DD	0fdfdfdH
	DD	03a434343H
	DD	0e7000000H
	DD	095000000H
	DD	04868686H
	DD	0ffffffH
	DD	0ffffffH
	DD	0ffffffH
	DD	07747474H
	DD	05b000000H
	DD	078131313H
	DD	08e333333H
	DD	0c69b9b9bH
	DD	064626262H
	DD	0d1d1d1H
	DD	0ffffffH
	DD	0ffffffH
	DD	0e6e6e6H
	DD	031444444H
	DD	0a9c4c4c4H
	DD	0bbffffffH
	DD	094b8b8b8H
	DD	07888888H
	DD	0ffffffH
	DD	0ffffffH
	DD	0ffffffH
	DD	086c6c6cH
	DD	0a1626262H
	DD	0eadcdcdcH
	DD	05e4e4e4eH
	DD	0e4e4e4H
	DD	0ffffffH
	DD	0ffffffH
	DD	0ffffffH
	DD	057c7c7cH
	DD	03d000000H
	DD	052000000H
	DD	038000000H
	DD	0989898H
	DD	0ffffffH
	DD	0ffffffH
	DD	0ffffffH
	DD	0c7c7c7H
	DD	092000000H
	DD	0ff000000H
	DD	0ff454545H
	DD	0ffffffffH
	DD	0ffffffffH
	DD	0ffffffffH
	DD	0ffffffffH
	DD	0ffffffffH
	DD	0ffffffffH
	DD	0ffffffffH
	DD	0ffffffffH
	DD	0ffffffffH
	DD	0ffffffffH
	DD	0ffffffffH
	DD	0ffffffffH
	DD	0ffffffffH
	DD	0ffffffffH
	DD	0ffffffffH
	DD	0ffffffffH
	DD	0ffffffffH
	DD	0ffffffffH
	DD	0ffffffffH
	DD	0ffffffffH
	DD	0ffffffffH
	DD	0ffffffffH
	DD	0ffffffffH
	DD	0ffffffffH
	DD	0ffffffffH
	DD	0ffffffffH
	DD	0ffffffffH
	DD	0ffffffffH
	DD	0ffffffffH
	DD	0ffffffffH
	DD	0ffffffffH
	DD	0ffffffffH
	DD	0ffffffffH
	DD	0ffffffffH
	DD	0ffffffffH
	DD	0ffffffffH
	DD	0ffffffffH
	DD	0ffffffffH
	DD	0ffffffffH
	DD	0ff444444H
	DD	0d9000000H
	DD	0f7f7f7fH
	DD	0ffffffH
	DD	0ffffffH
	DD	0ffffffH
	DD	0ffffffH
	DD	0ffffffH
	DD	0ffffffH
	DD	0ffffffH
	DD	0ffffffH
	DD	0ffffffH
	DD	0ffffffH
	DD	07d7d7dH
	DD	056000000H
	DD	0cd000000H
	DD	0fc000000H
	DD	0ff000000H
	DD	0d9000000H
	DD	04a262626H
	DD	09909090H
	DD	0ccccccH
	DD	0e0e0e0H
	DD	0d8d8d8H
	DD	0c9b9b9bH
	DD	0b353535H
	DD	0e6e6e6H
	DD	0ffffffH
	DD	0ffffffH
	DD	0e3e3e3H
	DD	0621b1b1bH
	DD	0c1000000H
	DD	09999999H
	DD	0ffffffH
	DD	0ffffffH
	DD	0ffffffH
	DD	0c9c9c9H
	DD	03f000000H
	DD	0a7000000H
	DD	0d8000000H
	DD	0eb000000H
	DD	0ea000000H
	DD	0dc000000H
	DD	0e2000000H
	DD	0ba000000H
	DD	0b989898H
	DD	0ffffffH
	DD	0ffffffH
	DD	0ffffffH
	DD	0d575757H
	DD	076000000H
	DD	0b4000000H
	DD	0ca000000H
	DD	0b0000000H
	DD	0184b4b4bH
	DD	0ffffffH
	DD	0ffffffH
	DD	0ffffffH
	DD	096f6f6fH
	DD	0d6000000H
	DD	0ff000000H
	DD	0ff000000H
	DD	0ff000000H
	DD	0ff000000H
	DD	0ff000000H
	DD	0ff000000H
	DD	0ff000000H
	DD	0c1000000H
	DD	02f323232H
	DD	0cececeH
	DD	0ffffffH
	DD	0ffffffH
	DD	0ffffffH
	DD	0ffffffH
	DD	0ffffffH
	DD	0ffffffH
	DD	0ffffffH
	DD	0cacacaH
	DD	06a191919H
	DD	0ff000000H
	DD	0c3000000H
	DD	06a0a0a0H
	DD	0ffffffH
	DD	0ffffffH
	DD	0ffffffH
	DD	0104e4e4eH
	DD	07a000000H
	DD	0b5000000H
	DD	0c9000000H
	DD	0ab000000H
	DD	014535353H
	DD	0ffffffH
	DD	0ffffffH
	DD	0ffffffH
	DD	0f646464H
	DD	0db030303H
	DD	0c2090909H
	DD	09858585H
	DD	0ffffffH
	DD	0ffffffH
	DD	0ffffffH
	DD	08727272H
	DD	0921e1e1eH
	DD	0c66a6a6aH
	DD	0c78f8f8fH
	DD	0ded8d8d8H
	DD	067696969H
	DD	0cfcfcfH
	DD	0ffffffH
	DD	0ffffffH
	DD	0e7e7e7H
	DD	0343f3f3fH
	DD	0b7bebebeH
	DD	0cbffffffH
	DD	0a2b7b7b7H
	DD	07868686H
	DD	0ffffffH
	DD	0ffffffH
	DD	0ffffffH
	DD	096c6c6cH
	DD	0a9505050H
	DD	0f3d2d2d2H
	DD	061454545H
	DD	0e5e5e5H
	DD	0ffffffH
	DD	0ffffffH
	DD	0f3f3f3H
	DD	01f2f2f2fH
	DD	082000000H
	DD	0ab000000H
	DD	0a5000000H
	DD	0214b4b4bH
	DD	0fdfdfdH
	DD	0ffffffH
	DD	0ffffffH
	DD	0ebebebH
	DD	056262626H
	DD	0fc000000H
	DD	0ff454545H
	DD	0ffffffffH
	DD	0ffffffffH
	DD	0ffffffffH
	DD	0ffffffffH
	DD	0ffffffffH
	DD	0ffffffffH
	DD	0ffffffffH
	DD	0ffffffffH
	DD	0ffffffffH
	DD	0ffffffffH
	DD	0ffffffffH
	DD	0ffffffffH
	DD	0ffffffffH
	DD	0ffffffffH
	DD	0ffffffffH
	DD	0ffffffffH
	DD	0ffffffffH
	DD	0ffffffffH
	DD	0ffffffffH
	DD	0ffffffffH
	DD	0ffffffffH
	DD	0ffffffffH
	DD	0ffffffffH
	DD	0ffffffffH
	DD	0ffffffffH
	DD	0ffffffffH
	DD	0ffffffffH
	DD	0ffffffffH
	DD	0ffffffffH
	DD	0ffffffffH
	DD	0ffffffffH
	DD	0ffffffffH
	DD	0ffffffffH
	DD	0ffffffffH
	DD	0ffffffffH
	DD	0ffffffffH
	DD	0ffffffffH
	DD	0ffffffffH
	DD	0ffffffffH
	DD	0ff444444H
	DD	0d9000000H
	DD	0f7f7f7fH
	DD	0ffffffH
	DD	0ffffffH
	DD	0ffffffH
	DD	0fefefeH
	DD	0ffffffH
	DD	0ffffffH
	DD	0ffffffH
	DD	0ffffffH
	DD	0ffffffH
	DD	016f6f6fH
	DD	03e000000H
	DD	09c000000H
	DD	0e5000000H
	DD	0ff000000H
	DD	0de000000H
	DD	02a575757H
	DD	0f3f3f3H
	DD	0ffffffH
	DD	0ffffffH
	DD	0ffffffH
	DD	0fbfbfbH
	DD	0ffffffH
	DD	0edededH
	DD	0fafafaH
	DD	0ffffffH
	DD	0ffffffH
	DD	0e1e1e1H
	DD	060191919H
	DD	08f000000H
	DD	0c4c4c4H
	DD	0ffffffH
	DD	0ffffffH
	DD	0ffffffH
	DD	0a0a0a0H
	DD	070000000H
	DD	0e0000000H
	DD	0ff000000H
	DD	0ff000000H
	DD	0ff000000H
	DD	0ff000000H
	DD	0ff000000H
	DD	0a8000000H
	DD	0bebebeH
	DD	0ffffffH
	DD	0ffffffH
	DD	0ffffffH
	DD	06b2b2b2H
	DD	098b8b8bH
	DD	0b919191H
	DD	0b919191H
	DD	0d8d8d8dH
	DD	03a2a2a2H
	DD	0ffffffH
	DD	0ffffffH
	DD	0ffffffH
	DD	02929292H
	DD	0af000000H
	DD	0ff000000H
	DD	0ff000000H
	DD	0ff000000H
	DD	0ff000000H
	DD	0ff000000H
	DD	0ff000000H
	DD	0ff000000H
	DD	0f5000000H
	DD	0b6000000H
	DD	0400c0c0cH
	DD	06686868H
	DD	0c9c9c9H
	DD	0fdfdfdH
	DD	0ffffffH
	DD	0ffffffH
	DD	0ffffffH
	DD	0ffffffH
	DD	0ffffffH
	DD	0a4a4a4H
	DD	0c0000000H
	DD	0ab000000H
	DD	0c7c7c7H
	DD	0ffffffH
	DD	0ffffffH
	DD	0ffffffH
	DD	06aeaeaeH
	DD	0a8c8c8cH
	DD	0b919191H
	DD	0a919191H
	DD	0d8c8c8cH
	DD	03a6a6a6H
	DD	0ffffffH
	DD	0ffffffH
	DD	0ffffffH
	DD	06868686H
	DD	0bf0a0a0aH
	DD	0d8505050H
	DD	0c848484H
	DD	0ffffffH
	DD	0ffffffH
	DD	0ffffffH
	DD	08707070H
	DD	0ac303030H
	DD	0edcfcfcfH
	DD	0e7f6f6f6H
	DD	0f0ffffffH
	DD	06b6a6a6aH
	DD	0cdcdcdH
	DD	0ffffffH
	DD	0ffffffH
	DD	0e7e7e7H
	DD	038373737H
	DD	0c6aeaeaeH
	DD	0deffffffH
	DD	0b1b5b5b5H
	DD	08828282H
	DD	0ffffffH
	DD	0ffffffH
	DD	0ffffffH
	DD	0a6b6b6bH
	DD	0b0393939H
	DD	0fbc5c5c5H
	DD	0643f3f3fH
	DD	0e6e6e6H
	DD	0ffffffH
	DD	0ffffffH
	DD	0dbdbdbH
	DD	042141414H
	DD	0c6000000H
	DD	0f3000000H
	DD	0f3000000H
	DD	052292929H
	DD	0eeeeeeH
	DD	0ffffffH
	DD	0ffffffH
	DD	0fbfbfbH
	DD	035393939H
	DD	0ef000000H
	DD	0ff454545H
	DD	0ffffffffH
	DD	0ffffffffH
	DD	0ffffffffH
	DD	0ffffffffH
	DD	0ffffffffH
	DD	0ffffffffH
	DD	0ffffffffH
	DD	0ffffffffH
	DD	0ffffffffH
	DD	0ffffffffH
	DD	0ffffffffH
	DD	0ffffffffH
	DD	0ffffffffH
	DD	0ffffffffH
	DD	0ffffffffH
	DD	0ffffffffH
	DD	0ffffffffH
	DD	0ffffffffH
	DD	0ffffffffH
	DD	0ffffffffH
	DD	0ffffffffH
	DD	0ffffffffH
	DD	0ffffffffH
	DD	0ffffffffH
	DD	0ffffffffH
	DD	0ffffffffH
	DD	0ffffffffH
	DD	0ffffffffH
	DD	0ffffffffH
	DD	0ffffffffH
	DD	0ffffffffH
	DD	0ffffffffH
	DD	0ffffffffH
	DD	0ffffffffH
	DD	0ffffffffH
	DD	0ffffffffH
	DD	0ffffffffH
	DD	0ffffffffH
	DD	0ffffffffH
	DD	0ff444444H
	DD	0d9000000H
	DD	0f7f7f7fH
	DD	0ffffffH
	DD	0ffffffH
	DD	0ffffffH
	DD	01cececeH
	DD	0c464646H
	DD	02bcbcbcH
	DD	0ffffffH
	DD	0ffffffH
	DD	0ffffffH
	DD	01868686H
	DD	074000000H
	DD	0d5000000H
	DD	0fb000000H
	DD	0ff000000H
	DD	04b2f2f2fH
	DD	0f2f2f2H
	DD	0ffffffH
	DD	0ffffffH
	DD	0e1e1e1H
	DD	0d585858H
	DD	022272727H
	DD	015424242H
	DD	0cececeH
	DD	0ffffffH
	DD	0ffffffH
	DD	0ffffffH
	DD	0e1e1e1H
	DD	05e191919H
	DD	081000000H
	DD	0cfcfcfH
	DD	0ffffffH
	DD	0ffffffH
	DD	0ffffffH
	DD	03909090H
	DD	08f000000H
	DD	0f7000000H
	DD	0ff000000H
	DD	0ff000000H
	DD	0ff000000H
	DD	0ff000000H
	DD	0ff000000H
	DD	0a2000000H
	DD	0c6c6c6H
	DD	0ffffffH
	DD	0ffffffH
	DD	0ffffffH
	DD	0ffffffH
	DD	0ffffffH
	DD	0ffffffH
	DD	0ffffffH
	DD	0ffffffH
	DD	0ffffffH
	DD	0ffffffH
	DD	0ffffffH
	DD	0ffffffH
	DD	01969696H
	DD	0a3000000H
	DD	0ff000000H
	DD	0ff000000H
	DD	0ff000000H
	DD	0ff000000H
	DD	0ff000000H
	DD	0ff000000H
	DD	0ff000000H
	DD	0fe000000H
	DD	0ed000000H
	DD	0be000000H
	DD	07a000000H
	DD	03c000000H
	DD	0e494949H
	DD	0bbbbbbH
	DD	0ffffffH
	DD	0ffffffH
	DD	0ffffffH
	DD	0ffffffH
	DD	0f3f3f3H
	DD	060333333H
	DD	095000000H
	DD	0cececeH
	DD	0ffffffH
	DD	0ffffffH
	DD	0ffffffH
	DD	0ffffffH
	DD	0ffffffH
	DD	0ffffffH
	DD	0ffffffH
	DD	0ffffffH
	DD	0ffffffH
	DD	0ffffffH
	DD	0ffffffH
	DD	0ffffffH
	DD	048b8b8bH
	DD	0b3010101H
	DD	0d7424242H
	DD	0c858585H
	DD	0ffffffH
	DD	0ffffffH
	DD	0ffffffH
	DD	09707070H
	DD	0af242424H
	DD	0f3d9d9d9H
	DD	0f0ffffffH
	DD	0f9ffffffH
	DD	070686868H
	DD	0cdcdcdH
	DD	0ffffffH
	DD	0ffffffH
	DD	0e9e9e9H
	DD	03c2f2f2fH
	DD	0d49a9a9aH
	DD	0eeffffffH
	DD	0bdb3b3b3H
	DD	08808080H
	DD	0ffffffH
	DD	0ffffffH
	DD	0ffffffH
	DD	0a6c6c6cH
	DD	0b5252525H
	DD	0ffb9b9b9H
	DD	0653a3a3aH
	DD	0e7e7e7H
	DD	0ffffffH
	DD	0ffffffH
	DD	0d6d6d6H
	DD	0580f0f0fH
	DD	0e8000000H
	DD	0ff000000H
	DD	0ff000000H
	DD	063222222H
	DD	0ebebebH
	DD	0ffffffH
	DD	0ffffffH
	DD	0ffffffH
	DD	02b3d3d3dH
	DD	0e4000000H
	DD	0ff454545H
	DD	0ffffffffH
	DD	0ffffffffH
	DD	0ffffffffH
	DD	0ffffffffH
	DD	0ffffffffH
	DD	0ffffffffH
	DD	0ffffffffH
	DD	0ffffffffH
	DD	0ffffffffH
	DD	0ffffffffH
	DD	0ffffffffH
	DD	0ffffffffH
	DD	0ffffffffH
	DD	0ffffffffH
	DD	0ffffffffH
	DD	0ffffffffH
	DD	0ffffffffH
	DD	0ffffffffH
	DD	0ffffffffH
	DD	0ffffffffH
	DD	0ffffffffH
	DD	0ffffffffH
	DD	0ffffffffH
	DD	0ffffffffH
	DD	0ffffffffH
	DD	0ffffffffH
	DD	0ffffffffH
	DD	0ffffffffH
	DD	0ffffffffH
	DD	0ffffffffH
	DD	0ffffffffH
	DD	0ffffffffH
	DD	0ffffffffH
	DD	0ffffffffH
	DD	0ffffffffH
	DD	0ffffffffH
	DD	0ffffffffH
	DD	0ffffffffH
	DD	0ffffffffH
	DD	0ff444444H
	DD	0d9000000H
	DD	0f7f7f7fH
	DD	0ffffffH
	DD	0ffffffH
	DD	0ffffffH
	DD	0b9b9b9H
	DD	03a000000H
	DD	011565656H
	DD	0ffffffH
	DD	0ffffffH
	DD	0ffffffH
	DD	0e6e6e6H
	DD	0551b1b1bH
	DD	0f7000000H
	DD	0ff000000H
	DD	0cf000000H
	DD	0b8d8d8dH
	DD	0ffffffH
	DD	0ffffffH
	DD	0ffffffH
	DD	085b5b5bH
	DD	050000000H
	DD	078000000H
	DD	077000000H
	DD	01d424242H
	DD	0fafafaH
	DD	0ffffffH
	DD	0ffffffH
	DD	0e1e1e1H
	DD	05e191919H
	DD	086000000H
	DD	0cacacaH
	DD	0ffffffH
	DD	0ffffffH
	DD	0ffffffH
	DD	03929292H
	DD	09a000000H
	DD	0fd000000H
	DD	0ff000000H
	DD	0ff000000H
	DD	0ff000000H
	DD	0ff000000H
	DD	0ff000000H
	DD	0a2000000H
	DD	0c6c6c6H
	DD	0ffffffH
	DD	0ffffffH
	DD	0fafafaH
	DD	03afafafH
	DD	02999999H
	DD	019c9c9cH
	DD	019c9c9cH
	DD	019c9c9cH
	DD	019c9c9cH
	DD	09b9b9bH
	DD	09b9b9bH
	DD	0a3a3a3H
	DD	0c595959H
	DD	0aa000000H
	DD	0fd000000H
	DD	0ff000000H
	DD	0ff000000H
	DD	0ff000000H
	DD	0ff000000H
	DD	0ff000000H
	DD	0ff000000H
	DD	0ff000000H
	DD	0fe000000H
	DD	0f2000000H
	DD	0d6000000H
	DD	0b3000000H
	DD	083000000H
	DD	040050505H
	DD	03989898H
	DD	0ffffffH
	DD	0ffffffH
	DD	0ffffffH
	DD	0ffffffH
	DD	0245b5b5bH
	DD	080000000H
	DD	0cececeH
	DD	0ffffffH
	DD	0ffffffH
	DD	0f8f8f8H
	DD	03adadadH
	DD	01999999H
	DD	019c9c9cH
	DD	019c9c9cH
	DD	019c9c9cH
	DD	019c9c9cH
	DD	09b9b9bH
	DD	09b9b9bH
	DD	0a3a3a3H
	DD	010535353H
	DD	0b9000000H
	DD	0d41a1a1aH
	DD	0c868686H
	DD	0ffffffH
	DD	0ffffffH
	DD	0ffffffH
	DD	08717171H
	DD	0b20f0f0fH
	DD	0f9ccccccH
	DD	0f6ffffffH
	DD	0ffffffffH
	DD	074676767H
	DD	0cdcdcdH
	DD	0ffffffH
	DD	0ffffffH
	DD	0eaeaeaH
	DD	03f272727H
	DD	0de808080H
	DD	0f9ffffffH
	DD	0c6b3b3b3H
	DD	087f7f7fH
	DD	0ffffffH
	DD	0ffffffH
	DD	0ffffffH
	DD	0a6d6d6dH
	DD	0b7131313H
	DD	0ffadadadH
	DD	066353535H
	DD	0e8e8e8H
	DD	0ffffffH
	DD	0ffffffH
	DD	0d6d6d6H
	DD	0600e0e0eH
	DD	0f0000000H
	DD	0ff000000H
	DD	0ff000000H
	DD	066212121H
	DD	0ebebebH
	DD	0ffffffH
	DD	0ffffffH
	DD	0ffffffH
	DD	0273e3e3eH
	DD	0de000000H
	DD	0ff454545H
	DD	0ffffffffH
	DD	0ffffffffH
	DD	0ffffffffH
	DD	0ffffffffH
	DD	0ffffffffH
	DD	0ffffffffH
	DD	0ffffffffH
	DD	0ffffffffH
	DD	0ffffffffH
	DD	0ffffffffH
	DD	0ffffffffH
	DD	0ffffffffH
	DD	0ffffffffH
	DD	0ffffffffH
	DD	0ffffffffH
	DD	0ffffffffH
	DD	0ffffffffH
	DD	0ffffffffH
	DD	0ffffffffH
	DD	0ffffffffH
	DD	0ffffffffH
	DD	0ffffffffH
	DD	0ffffffffH
	DD	0ffffffffH
	DD	0ffffffffH
	DD	0ffffffffH
	DD	0ffffffffH
	DD	0ffffffffH
	DD	0ffffffffH
	DD	0ffffffffH
	DD	0ffffffffH
	DD	0ffffffffH
	DD	0ffffffffH
	DD	0ffffffffH
	DD	0ffffffffH
	DD	0ffffffffH
	DD	0ffffffffH
	DD	0ffffffffH
	DD	0ffffffffH
	DD	0ff444444H
	DD	0d9000000H
	DD	0f7f7f7fH
	DD	0ffffffH
	DD	0ffffffH
	DD	0ffffffH
	DD	0bbbbbbH
	DD	06c000000H
	DD	05f111111H
	DD	0d9d9d9H
	DD	0ffffffH
	DD	0ffffffH
	DD	0ffffffH
	DD	0c787878H
	DD	0d6000000H
	DD	0ff000000H
	DD	099000000H
	DD	0c6c6c6H
	DD	0ffffffH
	DD	0ffffffH
	DD	0fbfbfbH
	DD	01f303030H
	DD	09c000000H
	DD	0c9000000H
	DD	0dd000000H
	DD	054070707H
	DD	0e9e9e9H
	DD	0ffffffH
	DD	0ffffffH
	DD	0e1e1e1H
	DD	05b1a1a1aH
	DD	09e000000H
	DD	02b0b0b0H
	DD	0ffffffH
	DD	0ffffffH
	DD	0ffffffH
	DD	0b0b0b0H
	DD	092000000H
	DD	0ff000000H
	DD	0ff000000H
	DD	0ff000000H
	DD	0ff000000H
	DD	0ff000000H
	DD	0ff000000H
	DD	0b6000000H
	DD	0aeaeaeH
	DD	0ffffffH
	DD	0ffffffH
	DD	0f9f9f9H
	DD	0133f3f3fH
	DD	04c000000H
	DD	050000000H
	DD	050000000H
	DD	050000000H
	DD	050000000H
	DD	04d000000H
	DD	04a000000H
	DD	048000000H
	DD	06f000000H
	DD	0c9000000H
	DD	0fa000000H
	DD	0ff000000H
	DD	0ff000000H
	DD	0ff000000H
	DD	0ff000000H
	DD	0ff000000H
	DD	0ff000000H
	DD	0ff000000H
	DD	0ff000000H
	DD	0ff000000H
	DD	0fd000000H
	DD	0f2000000H
	DD	0df000000H
	DD	0bc000000H
	DD	0401f1f1fH
	DD	0e6e6e6H
	DD	0ffffffH
	DD	0ffffffH
	DD	0ffffffH
	DD	018606060H
	DD	086000000H
	DD	0b6b6b6H
	DD	0ffffffH
	DD	0ffffffH
	DD	0f6f6f6H
	DD	016373737H
	DD	04e000000H
	DD	050000000H
	DD	050000000H
	DD	050000000H
	DD	050000000H
	DD	04d000000H
	DD	04a000000H
	DD	048000000H
	DD	072000000H
	DD	0d5010101H
	DD	0d2050505H
	DD	0c868686H
	DD	0ffffffH
	DD	0ffffffH
	DD	0ffffffH
	DD	09727272H
	DD	0b5000000H
	DD	0febebebeH
	DD	0fbffffffH
	DD	0ffffffffH
	DD	077676767H
	DD	0ccccccH
	DD	0ffffffH
	DD	0ffffffH
	DD	0eaeaeaH
	DD	042212121H
	DD	0e6616161H
	DD	0ffffffffH
	DD	0d2b2b2b2H
	DD	0a7c7c7cH
	DD	0ffffffH
