; Listing generated by Microsoft (R) Optimizing Compiler Version 16.00.40219.01 

	TITLE	C:\DUII\DUII\Graphics\RecordingOff.c
	.686P
	.XMM
	include listing.inc
	.model	flat

INCLUDELIB LIBCMT
INCLUDELIB OLDNAMES

PUBLIC	_bmRecordingOff
CONST	SEGMENT
_ColorsRecordingOff DD 0ffd48cH
	DD	00H
	DD	0a36f79H
	DD	09b6974H
	DD	0fbfcfbH
	DD	0fbd3b8H
	DD	0122b2dH
	DD	03a3638H
	DD	098646cH
	DD	045373aH
	DD	0fbe8d7H
	DD	0181616H
	DD	0272628H
	DD	0453a45H
	DD	0474447H
	DD	0fbdbc2H
	DD	0a87683H
	DD	0fce1caH
	DD	0f7f2eaH
	DD	0fcceb2H
	DD	0d8d9d8H
	DD	0716f6fH
	DD	0f8ede3H
	DD	0adaeaeH
	DD	0e6e7e7H
	DD	0372b35H
	DD	03a3743H
	DD	0e9f4f6H
	DD	0d3f1faH
	DD	0e9c2abH
	DD	08e5b66H
	DD	0253637H
	DD	0c8c9c9H
	DD	0764b54H
	DD	051719H
	DD	0565658H
	DD	034282bH
	DD	08e8e8eH
	DD	0494953H
	DD	055373aH
	DD	07a5359H
	DD	0394345H
	DD	067444aH
	DD	0272b33H
	DD	0462d32H
	DD	0534649H
	DD	0f1c22H
	DD	0b7eafbH
	DD	0485357H
	DD	0353854H
	DD	086555cH
	DD	0241a1dH
	DD	0563b45H
	DD	0fcceadH
	DD	04e656eH
	DD	0987284H
	DD	0585964H
	DD	0483952H
	DD	0544755H
	DD	09c707bH
	DD	043282bH
	DD	0b3828bH
	DD	0b231eH
	DD	0b98694H
	DD	072464dH
	DD	025342dH
	DD	0b49986H
	DD	0e9c7b4H
	DD	0273945H
	DD	0623c42H
	DD	0384654H
	DD	0485465H
	DD	08a6a79H
	DD	0281d22H
	DD	039322eH
	DD	02c4638H
	DD	049423cH
	DD	0274647H
	DD	0285458H
	DD	0484666H
	DD	01485e8H
	DD	0da7f8H
	DD	0b3a497H
	DD	0c28991H
	DD	038396bH
	DD	01a5055H
	DD	0364467H
	DD	06e5965H
	DD	0998f8H
	DD	045342cH
	DD	0144534H
	DD	0282c44H
	DD	0293e78H
	DD	0433b64H
	DD	0395568H
	DD	06b4951H
	DD	0395585H
	DD	0355595H
	DD	0c57d6H
	DD	0a87f4H
	DD	0149bf5H
	DD	017a5f9H
	DD	029b4f5H
	DD	08fabb4H
	DD	04100eH
	DD	054433bH
	DD	0143644H
	DD	0442c43H
	DD	0355555H
	DD	0484874H
	DD	0425674H
	DD	02a4898H
	DD	029569aH
	DD	02355b4H
	DD	02171caH
	DD	0158bd9H
	DD	0b88e9H
	DD	017a8e7H
	DD	0bb5fcH
	DD	019b4fbH
	DD	079d4fdH
	DD	094e4feH
	DD	0160b0dH
	DD	080b13H
	DD	0352d44H
	DD	0503c52H
	DD	026554aH
	DD	02c476cH
	DD	0295765H
	DD	0344675H
	DD	0395076H
	DD	087757dH
	DD	01c3b8dH
	DD	037679bH
	DD	01869b6H
	DD	03a68acH
	DD	02764bcH
	DD	03566b4H
	DD	0435981H
	DD	01795eaH
	DD	02485e4H
	DD	01bc1fbH
	DD	0a7818bH
	DD	0ab8392H
	DD	0150e12H
	DD	0373b78H
	DD	02a4554H
	DD	02c4674H
	DD	039636fH
	DD	060575bH
	DD	0877365H
	DD	0283b87H
	DD	0363e88H
	DD	03b4b8eH
	DD	02a5685H
	DD	0314799H
	DD	025669aH
	DD	01c5eb2H
	DD	02249a9H
	DD	0324ca3H
	DD	01a62aaH
	DD	0576b86H
	DD	0776c82H
	DD	04566a4H
	DD	01b66c2H
	DD	01468d2H
	DD	0554e8H
	DD	0970f2H
	DD	03694b7H
	DD	02982cbH
	DD	02b89daH
	DD	02697e7H
	DD	0239af9H
	DD	0aab5c5H
	DD	0abcfd9H
	DD	087d1fcH
	DD	0efd6c4H
	DD	0fff1dcH
	DD	0502c2cH
	DD	0512d35H
	DD	064353dH
	DD	0342e50H
	DD	02a365aH
	DD	0181b6fH
	DD	01d2b75H
	DD	0403c73H
	DD	02c625dH
	DD	028517fH
	DD	07e6256H
	DD	085605cH
	DD	08e606fH
	DD	07e807fH
	DD	089817bH
	DD	094877dH
	DD	0a08a7aH
	DD	0293d9cH
	DD	02139b8H
	DD	01a5098H
	DD	0294e85H
	DD	02b618cH
	DD	0165da4H
	DD	0255ba6H
	DD	03251a0H
	DD	02346b2H
	DD	01e72b5H
	DD	02f6dadH
	DD	02077a9H
	DD	03479a1H
	DD	05d5e81H
	DD	0455594H
	DD	0427690H
	DD	06b7c89H
	DD	0737182H
	DD	0647593H
	DD	04376b4H
	DD	02f5bc4H
	DD	0235fd6H
	DD	0f60cfH
	DD	01e7cc5H
	DD	0d67deH
	DD	0117adbH
	DD	0276de5H
	DD	038839fH
	DD	07f8181H
	DD	04a8cb4H
	DD	07ca8b3H
	DD	021afd3H
	DD	069fe2H
	DD	01589f5H
	DD	0348ce6H
	DD	04987c4H
	DD	06692c8H
	DD	07cb2d8H
	DD	049a0ebH
	DD	045a9f1H
	DD	05ebbf6H
	DD	07c2ffH
	DD	0fd2ffH
	DD	052c9ffH
	DD	074c5edH
	DD	074cdfbH
	DD	0a8918fH
	DD	0b4a08eH
	DD	09893abH
	DD	0c1a79cH
	DD	0d7b5a3H
	DD	0ceb5b8H
	DD	083b8cfH
	DD	0b8b4c6H
	DD	0b6cad1H
	DD	0ddccc3H
	DD	0cfd3d2H
	DD	0e3ccc0H
	DD	0dee0dfH
	DD	0ece2d7H
	DD	0eff3efH
_PalRecordingOff DD 0100H
	DB	00H
	ORG $+3
	DD	FLAT:_ColorsRecordingOff
_bmRecordingOff DW 04eH
	DW	073H
	DW	04eH
	DW	08H
	DD	FLAT:_acRecordingOff
	DD	FLAT:_PalRecordingOff
	ORG $+4
_acRecordingOff DB 01H
	DB	01H
	DB	01H
	DB	01H
	DB	01H
	DB	01H
	DB	01H
	DB	01H
	DB	01H
	DB	01H
	DB	01H
	DB	01H
	DB	01H
	DB	01H
	DB	01H
	DB	01H
	DB	01H
	DB	01H
	DB	01H
	DB	01H
	DB	01H
	DB	01H
	DB	01H
	DB	01H
	DB	01H
	DB	01H
	DB	01H
	DB	01H
	DB	01H
	DB	01H
	DB	01H
	DB	01H
	DB	01H
	DB	01H
	DB	01H
	DB	01H
	DB	01H
	DB	01H
	DB	01H
	DB	01H
	DB	01H
	DB	01H
	DB	01H
	DB	01H
	DB	01H
	DB	01H
	DB	01H
	DB	01H
	DB	01H
	DB	01H
	DB	01H
	DB	01H
	DB	01H
	DB	01H
	DB	01H
	DB	01H
	DB	01H
	DB	01H
	DB	01H
	DB	01H
	DB	01H
	DB	01H
	DB	01H
	DB	01H
	DB	01H
	DB	01H
	DB	01H
	DB	01H
	DB	01H
	DB	01H
	DB	01H
	DB	01H
	DB	01H
	DB	01H
	DB	01H
	DB	01H
	DB	01H
	DB	01H
	DB	01H
	DB	01H
	DB	01H
	DB	01H
	DB	01H
	DB	01H
	DB	01H
	DB	01H
	DB	01H
	DB	01H
	DB	01H
	DB	01H
	DB	01H
	DB	01H
	DB	01H
	DB	01H
	DB	01H
	DB	01H
	DB	01H
	DB	01H
	DB	01H
	DB	01H
	DB	01H
	DB	01H
	DB	01H
	DB	01H
	DB	01H
	DB	01H
	DB	01H
	DB	01H
	DB	01H
	DB	01H
	DB	01H
	DB	01H
	DB	01H
	DB	01H
	DB	01H
	DB	01H
	DB	01H
	DB	01H
	DB	01H
	DB	01H
	DB	01H
	DB	01H
	DB	01H
	DB	01H
	DB	01H
	DB	01H
	DB	01H
	DB	01H
	DB	01H
	DB	01H
	DB	01H
	DB	01H
	DB	01H
	DB	01H
	DB	01H
	DB	01H
	DB	01H
	DB	01H
	DB	01H
	DB	01H
	DB	01H
	DB	01H
	DB	01H
	DB	01H
	DB	01H
	DB	01H
	DB	01H
	DB	01H
	DB	01H
	DB	01H
	DB	01H
	DB	01H
	DB	01H
	DB	01H
	DB	01H
	DB	01H
	DB	01H
	DB	01H
	DB	01H
	DB	01H
	DB	01H
	DB	01H
	DB	01H
	DB	01H
	DB	01H
	DB	01H
	DB	01H
	DB	01H
	DB	01H
	DB	01H
	DB	01H
	DB	01H
	DB	01H
	DB	01H
	DB	01H
	DB	01H
	DB	01H
	DB	01H
	DB	01H
	DB	01H
	DB	01H
	DB	01H
	DB	01H
	DB	01H
	DB	01H
	DB	01H
	DB	01H
	DB	01H
	DB	01H
	DB	01H
	DB	01H
	DB	01H
	DB	01H
	DB	01H
	DB	01H
	DB	01H
	DB	01H
	DB	01H
	DB	01H
	DB	01H
	DB	01H
	DB	01H
	DB	01H
	DB	01H
	DB	01H
	DB	01H
	DB	01H
	DB	01H
	DB	01H
	DB	01H
	DB	01H
	DB	01H
	DB	01H
	DB	01H
	DB	01H
	DB	01H
	DB	01H
	DB	01H
	DB	01H
	DB	01H
	DB	01H
	DB	01H
	DB	01H
	DB	01H
	DB	01H
	DB	01H
	DB	01H
	DB	01H
	DB	01H
	DB	01H
	DB	01H
	DB	01H
	DB	01H
	DB	01H
	DB	01H
	DB	01H
	DB	01H
	DB	01H
	DB	01H
	DB	01H
	DB	01H
	DB	01H
	DB	01H
	DB	01H
	DB	01H
	DB	01H
	DB	01H
	DB	01H
	DB	01H
	DB	01H
	DB	01H
	DB	01H
	DB	01H
	DB	01H
	DB	01H
	DB	01H
	DB	01H
	DB	01H
	DB	01H
	DB	01H
	DB	01H
	DB	01H
	DB	01H
	DB	01H
	DB	01H
	DB	01H
	DB	01H
	DB	01H
	DB	01H
	DB	01H
	DB	01H
	DB	01H
	DB	01H
	DB	01H
	DB	01H
	DB	01H
	DB	01H
	DB	01H
	DB	01H
	DB	01H
	DB	01H
	DB	01H
	DB	01H
	DB	01H
	DB	01H
	DB	01H
	DB	01H
	DB	01H
	DB	01H
	DB	01H
	DB	01H
	DB	01H
	DB	01H
	DB	01H
	DB	01H
	DB	01H
	DB	01H
	DB	01H
	DB	01H
	DB	01H
	DB	01H
	DB	01H
	DB	01H
	DB	01H
	DB	01H
	DB	01H
	DB	01H
	DB	01H
	DB	01H
	DB	01H
	DB	01H
	DB	01H
	DB	01H
	DB	01H
	DB	01H
	DB	01H
	DB	01H
	DB	01H
	DB	01H
	DB	01H
	DB	01H
	DB	01H
	DB	01H
	DB	01H
	DB	01H
	DB	01H
	DB	01H
	DB	01H
	DB	01H
	DB	01H
	DB	01H
	DB	01H
	DB	01H
	DB	01H
	DB	01H
	DB	01H
	DB	01H
	DB	01H
	DB	01H
	DB	01H
	DB	01H
	DB	01H
	DB	01H
	DB	01H
	DB	01H
	DB	01H
	DB	01H
	DB	01H
	DB	01H
	DB	01H
	DB	01H
	DB	01H
	DB	01H
	DB	01H
	DB	01H
	DB	01H
	DB	01H
	DB	01H
	DB	01H
	DB	01H
	DB	01H
	DB	01H
	DB	01H
	DB	01H
	DB	01H
	DB	01H
	DB	01H
	DB	01H
	DB	01H
	DB	01H
	DB	01H
	DB	01H
	DB	01H
	DB	01H
	DB	01H
	DB	01H
	DB	01H
	DB	01H
	DB	01H
	DB	01H
	DB	01H
	DB	01H
	DB	01H
	DB	01H
	DB	01H
	DB	01H
	DB	01H
	DB	01H
	DB	01H
	DB	01H
	DB	01H
	DB	01H
	DB	01H
	DB	01H
	DB	01H
	DB	01H
	DB	01H
	DB	01H
	DB	01H
	DB	01H
	DB	01H
	DB	01H
	DB	01H
	DB	01H
	DB	01H
	DB	01H
	DB	01H
	DB	01H
	DB	01H
	DB	01H
	DB	01H
	DB	01H
	DB	01H
	DB	01H
	DB	01H
	DB	01H
	DB	01H
	DB	01H
	DB	01H
	DB	01H
	DB	01H
	DB	01H
	DB	01H
	DB	01H
	DB	01H
	DB	01H
	DB	01H
	DB	01H
	DB	01H
	DB	01H
	DB	01H
	DB	01H
	DB	01H
	DB	01H
	DB	01H
	DB	01H
	DB	01H
	DB	01H
	DB	01H
	DB	01H
	DB	01H
	DB	01H
	DB	01H
	DB	01H
	DB	01H
	DB	01H
	DB	01H
	DB	01H
	DB	01H
	DB	01H
	DB	01H
	DB	01H
	DB	01H
	DB	01H
	DB	01H
	DB	01H
	DB	01H
	DB	01H
	DB	01H
	DB	01H
	DB	01H
	DB	01H
	DB	01H
	DB	01H
	DB	01H
	DB	01H
	DB	01H
	DB	01H
	DB	0bH
	DB	0bH
	DB	0bH
	DB	0bH
	DB	0bH
	DB	0bH
	DB	0bH
	DB	0bH
	DB	0bH
	DB	0bH
	DB	0bH
	DB	0bH
	DB	0bH
	DB	0bH
	DB	0bH
	DB	0bH
	DB	0bH
	DB	0bH
	DB	0bH
	DB	0bH
	DB	0bH
	DB	0bH
	DB	0bH
	DB	0bH
	DB	0bH
	DB	0bH
	DB	0bH
	DB	0bH
	DB	0bH
	DB	0bH
	DB	0bH
	DB	0bH
	DB	0bH
	DB	0bH
	DB	0bH
	DB	0bH
	DB	0bH
	DB	0bH
	DB	0bH
	DB	0bH
	DB	0bH
	DB	0bH
	DB	0bH
	DB	0bH
	DB	0bH
	DB	0bH
	DB	0bH
	DB	0bH
	DB	0bH
	DB	0bH
	DB	0bH
	DB	0bH
	DB	0bH
	DB	0bH
	DB	0bH
	DB	0bH
	DB	0bH
	DB	0bH
	DB	0bH
	DB	0bH
	DB	0bH
	DB	0bH
	DB	0bH
	DB	0bH
	DB	0bH
	DB	0bH
	DB	0bH
	DB	0bH
	DB	0bH
	DB	01H
	DB	01H
	DB	01H
	DB	01H
	DB	01H
	DB	01H
	DB	01H
	DB	01H
	DB	01H
	DB	043H
	DB	043H
	DB	043H
	DB	01dH
	DB	01dH
	DB	043H
	DB	043H
	DB	043H
	DB	01dH
	DB	01dH
	DB	01dH
	DB	01dH
	DB	01dH
	DB	01dH
	DB	01dH
	DB	01dH
	DB	01dH
	DB	01dH
	DB	01dH
	DB	01dH
	DB	01dH
	DB	01dH
	DB	01dH
	DB	01dH
	DB	01dH
	DB	01dH
	DB	01dH
	DB	01dH
	DB	01dH
	DB	01dH
	DB	01dH
	DB	01dH
	DB	01dH
	DB	01dH
	DB	01dH
	DB	01dH
	DB	01dH
	DB	01dH
	DB	01dH
	DB	01dH
	DB	01dH
	DB	01dH
	DB	01dH
	DB	01dH
	DB	01dH
	DB	01dH
	DB	01dH
	DB	01dH
	DB	01dH
	DB	01dH
	DB	01dH
	DB	01dH
	DB	01dH
	DB	01dH
	DB	01dH
	DB	01dH
	DB	01dH
	DB	01dH
	DB	01dH
	DB	01dH
	DB	01dH
	DB	01dH
	DB	01dH
	DB	01dH
	DB	01dH
	DB	01dH
	DB	01dH
	DB	01dH
	DB	01dH
	DB	042H
	DB	04cH
	DB	01H
	DB	01H
	DB	01H
	DB	01H
	DB	01H
	DB	01H
	DB	01H
	DB	05H
	DB	05H
	DB	05H
	DB	013H
	DB	05H
	DB	05H
	DB	05H
	DB	013H
	DB	05H
	DB	05H
	DB	05H
	DB	013H
	DB	013H
	DB	013H
	DB	013H
	DB	013H
	DB	013H
	DB	013H
	DB	013H
	DB	013H
	DB	013H
	DB	013H
	DB	013H
	DB	013H
	DB	013H
	DB	013H
	DB	013H
	DB	013H
	DB	013H
	DB	013H
	DB	013H
	DB	013H
	DB	013H
	DB	013H
	DB	013H
	DB	013H
	DB	013H
	DB	013H
	DB	013H
	DB	013H
	DB	013H
	DB	013H
	DB	013H
	DB	013H
	DB	013H
	DB	013H
	DB	013H
	DB	013H
	DB	013H
	DB	013H
	DB	013H
	DB	013H
	DB	013H
	DB	013H
	DB	013H
	DB	035H
	DB	035H
	DB	035H
	DB	035H
	DB	035H
	DB	035H
	DB	035H
	DB	035H
	DB	035H
	DB	035H
	DB	035H
	DB	035H
	DB	035H
	DB	035H
	DB	05H
	DB	05H
	DB	09H
	DB	01H
	DB	01H
	DB	01H
	DB	01H
	DB	01H
	DB	01H
	DB	05H
	DB	013H
	DB	013H
	DB	05H
	DB	05H
	DB	05H
	DB	05H
	DB	05H
	DB	05H
	DB	05H
	DB	05H
	DB	05H
	DB	05H
	DB	05H
	DB	05H
	DB	05H
	DB	05H
	DB	05H
	DB	05H
	DB	05H
	DB	05H
	DB	013H
	DB	013H
	DB	013H
	DB	013H
	DB	013H
	DB	013H
	DB	013H
	DB	013H
	DB	013H
	DB	013H
	DB	013H
	DB	013H
	DB	013H
	DB	013H
	DB	013H
	DB	013H
	DB	013H
	DB	013H
	DB	013H
	DB	013H
	DB	013H
	DB	013H
	DB	013H
	DB	013H
	DB	013H
	DB	013H
	DB	013H
	DB	013H
	DB	013H
	DB	035H
	DB	035H
	DB	035H
	DB	013H
	DB	013H
	DB	013H
	DB	013H
	DB	013H
	DB	013H
	DB	013H
	DB	013H
	DB	013H
	DB	013H
	DB	013H
	DB	013H
	DB	013H
	DB	013H
	DB	013H
	DB	013H
	DB	013H
	DB	0fH
	DB	042H
	DB	01H
	DB	01H
	DB	01H
	DB	01H
	DB	01H
	DB	01H
	DB	05H
	DB	05H
	DB	0b0H
	DB	0b0H
	DB	0b0H
	DB	0b0H
	DB	05H
	DB	0fH
	DB	0fH
	DB	05H
	DB	05H
	DB	05H
	DB	05H
	DB	05H
	DB	05H
	DB	05H
	DB	05H
	DB	05H
	DB	05H
	DB	05H
	DB	05H
	DB	05H
	DB	05H
	DB	05H
	DB	05H
	DB	05H
	DB	05H
	DB	05H
	DB	05H
	DB	05H
	DB	05H
	DB	05H
	DB	05H
	DB	05H
	DB	05H
	DB	05H
	DB	05H
	DB	05H
	DB	05H
	DB	05H
	DB	05H
	DB	05H
	DB	05H
	DB	05H
	DB	05H
	DB	05H
	DB	05H
	DB	05H
	DB	05H
	DB	05H
	DB	013H
	DB	013H
	DB	013H
	DB	013H
	DB	013H
	DB	013H
	DB	013H
	DB	013H
	DB	013H
	DB	013H
	DB	013H
	DB	013H
	DB	013H
	DB	013H
	DB	013H
	DB	013H
	DB	013H
	DB	05H
	DB	05H
	DB	05H
	DB	0fH
	DB	042H
	DB	01H
	DB	01H
	DB	01H
	DB	01H
	DB	01H
	DB	01H
	DB	0aeH
	DB	0efH
	DB	0eaH
	DB	0d6H
	DB	061H
	DB	085H
	DB	0a1H
	DB	042H
	DB	01dH
	DB	011H
	DB	0fH
	DB	0fH
	DB	0fH
	DB	0fH
	DB	0fH
	DB	05H
	DB	0fH
	DB	05H
	DB	05H
	DB	05H
	DB	05H
	DB	05H
	DB	05H
	DB	05H
	DB	05H
	DB	05H
	DB	05H
	DB	05H
	DB	05H
	DB	05H
	DB	05H
	DB	05H
	DB	05H
	DB	05H
	DB	05H
	DB	05H
	DB	05H
	DB	05H
	DB	05H
	DB	05H
	DB	05H
	DB	05H
	DB	05H
	DB	05H
	DB	05H
	DB	05H
	DB	05H
	DB	05H
	DB	05H
	DB	05H
	DB	05H
	DB	05H
	DB	05H
	DB	05H
	DB	05H
	DB	05H
	DB	05H
	DB	05H
	DB	05H
	DB	05H
	DB	05H
	DB	05H
	DB	05H
	DB	05H
	DB	05H
	DB	05H
	DB	05H
	DB	05H
	DB	05H
	DB	05H
	DB	0fH
	DB	042H
	DB	01H
	DB	01H
	DB	01H
	DB	01H
	DB	01H
	DB	01H
	DB	063H
	DB	051H
	DB	050H
	DB	039H
	DB	027H
	DB	056H
	DB	060H
	DB	0b5H
	DB	0a3H
	DB	0d5H
	DB	0f3H
	DB	0f8H
	DB	0f6H
	DB	0adH
	DB	0f7H
	DB	0e8H
	DB	0adH
	DB	0fcH
	DB	0fcH
	DB	0fH
	DB	011H
	DB	0fH
	DB	05H
	DB	05H
	DB	0fH
	DB	0fH
	DB	05H
	DB	05H
	DB	05H
	DB	05H
	DB	05H
	DB	05H
	DB	05H
	DB	05H
	DB	05H
	DB	05H
	DB	05H
	DB	05H
	DB	05H
	DB	05H
	DB	05H
	DB	05H
	DB	05H
	DB	05H
	DB	05H
	DB	05H
	DB	05H
	DB	05H
	DB	05H
	DB	05H
	DB	05H
	DB	05H
	DB	05H
	DB	05H
	DB	05H
	DB	05H
	DB	05H
	DB	05H
	DB	05H
	DB	05H
	DB	05H
	DB	05H
	DB	05H
	DB	05H
	DB	05H
	DB	05H
	DB	05H
	DB	05H
	DB	05H
	DB	05H
	DB	0fH
	DB	042H
	DB	01H
	DB	01H
	DB	01H
	DB	01H
	DB	01H
	DB	01H
	DB	050H
	DB	08bH
	DB	09dH
	DB	026H
	DB	069H
	DB	027H
	DB	09H
	DB	0dH
	DB	05cH
	DB	097H
	DB	0a5H
	DB	0d8H
	DB	091H
	DB	054H
	DB	031H
	DB	031H
	DB	086H
	DB	0acH
	DB	087H
	DB	0d4H
	DB	0f1H
	DB	05H
	DB	011H
	DB	0fH
	DB	0fH
	DB	0fH
	DB	0fH
	DB	0fH
	DB	0fH
	DB	0fH
	DB	0fH
	DB	0fH
	DB	0fH
	DB	0fH
	DB	0fH
	DB	0fH
	DB	0fH
	DB	0fH
	DB	0fH
	DB	0fH
	DB	0fH
	DB	0fH
	DB	0fH
	DB	0fH
	DB	0fH
	DB	0fH
	DB	0fH
	DB	0fH
	DB	0fH
	DB	0fH
	DB	0fH
	DB	0fH
	DB	0fH
	DB	0fH
	DB	0fH
	DB	0fH
	DB	0fH
	DB	0fH
	DB	0fH
	DB	0fH
	DB	0fH
	DB	05H
	DB	05H
	DB	05H
	DB	05H
	DB	05H
	DB	05H
	DB	05H
	DB	05H
	DB	05H
	DB	011H
	DB	042H
	DB	01H
	DB	01H
	DB	01H
	DB	01H
	DB	01H
	DB	01H
	DB	065H
	DB	064H
	DB	093H
	DB	027H
	DB	0dH
	DB	08aH
	DB	082H
	DB	059H
	DB	034H
	DB	01aH
	DB	085H
	DB	087H
	DB	05dH
	DB	06dH
	DB	034H
	DB	0dH
	DB	050H
	DB	077H
	DB	060H
	DB	054H
	DB	071H
	DB	0d0H
	DB	0f5H
	DB	0aH
	DB	0fH
	DB	0fH
	DB	0fH
	DB	0fH
	DB	0fH
	DB	0fH
	DB	0fH
	DB	0fH
	DB	0fH
	DB	0fH
	DB	0fH
	DB	0fH
	DB	0fH
	DB	0fH
	DB	0fH
	DB	0fH
	DB	0fH
	DB	0fH
	DB	0fH
	DB	0fH
	DB	0fH
	DB	0fH
	DB	0fH
	DB	0fH
	DB	0fH
	DB	0fH
	DB	0fH
	DB	0fH
	DB	0fH
	DB	0fH
	DB	0fH
	DB	0fH
	DB	0fH
	DB	0fH
	DB	0fH
	DB	0fH
	DB	0fH
	DB	0fH
	DB	0fH
	DB	0fH
	DB	0fH
	DB	0fH
	DB	0fH
	DB	0fH
	DB	0fH
	DB	0fH
	DB	011H
	DB	042H
	DB	01H
	DB	01H
	DB	01H
	DB	01H
	DB	01H
	DB	01H
	DB	051H
	DB	0ecH
	DB	0cdH
	DB	06bH
	DB	09H
	DB	04fH
	DB	060H
	DB	06eH
	DB	09H
	DB	0dH
	DB	031H
	DB	046H
	DB	034H
	DB	05dH
	DB	07dH
	DB	05dH
	DB	050H
	DB	0abH
	DB	07dH
	DB	06dH
	DB	0acH
	DB	06fH
	DB	034H
	DB	0f4H
	DB	011H
	DB	011H
	DB	011H
	DB	011H
	DB	0fH
	DB	0fH
	DB	0fH
	DB	0fH
	DB	0fH
	DB	0fH
	DB	0fH
	DB	0fH
	DB	0fH
	DB	0fH
	DB	0fH
	DB	0fH
	DB	0fH
	DB	0fH
	DB	0fH
	DB	0fH
	DB	0fH
	DB	0fH
	DB	0fH
	DB	0fH
	DB	0fH
	DB	0fH
	DB	0fH
	DB	0fH
	DB	0fH
	DB	0fH
	DB	0fH
	DB	0fH
	DB	0fH
	DB	0fH
	DB	0fH
	DB	0fH
	DB	0fH
	DB	0fH
	DB	0fH
	DB	0fH
	DB	0fH
	DB	0fH
	DB	0fH
	DB	0fH
	DB	0fH
	DB	0fH
	DB	011H
	DB	0f2H
	DB	01H
	DB	01H
	DB	01H
	DB	01H
	DB	01H
	DB	01H
	DB	0ecH
	DB	0edH
	DB	085H
	DB	027H
	DB	0dH
	DB	027H
	DB	029H
	DB	087H
	DB	039H
	DB	09H
	DB	09H
	DB	09H
	DB	0dH
	DB	046H
	DB	0dH
	DB	02cH
	DB	082H
	DB	09fH
	DB	039H
	DB	039H
	DB	0aaH
	DB	09bH
	DB	039H
	DB	09H
	DB	0bcH
	DB	0b0H
	DB	0aH
	DB	011H
	DB	011H
	DB	011H
	DB	011H
	DB	011H
	DB	011H
	DB	011H
	DB	011H
	DB	011H
	DB	011H
	DB	011H
	DB	011H
	DB	011H
	DB	011H
	DB	011H
	DB	011H
	DB	011H
	DB	011H
	DB	011H
	DB	011H
	DB	011H
	DB	011H
	DB	011H
	DB	011H
	DB	011H
	DB	011H
	DB	011H
	DB	011H
	DB	011H
	DB	011H
	DB	011H
	DB	011H
	DB	011H
	DB	011H
	DB	011H
	DB	011H
	DB	011H
	DB	011H
	DB	011H
	DB	0fH
	DB	0fH
	DB	0fH
	DB	0fH
	DB	0aH
	DB	0f2H
	DB	01H
	DB	01H
	DB	01H
	DB	01H
	DB	01H
	DB	01H
	DB	051H
	DB	08cH
	DB	039H
	DB	09H
	DB	01aH
	DB	04cH
	DB	0dH
	DB	04fH
	DB	0dH
	DB	09H
	DB	09H
	DB	09H
	DB	09H
	DB	09H
	DB	01aH
	DB	0dH
	DB	0eH
	DB	0dH
	DB	09H
	DB	01aH
	DB	056H
	DB	082H
	DB	0d1H
	DB	05dH
	DB	019H
	DB	028H
	DB	043H
	DB	0b1H
	DB	0aH
	DB	011H
	DB	011H
	DB	011H
	DB	011H
	DB	011H
	DB	011H
	DB	011H
	DB	011H
	DB	011H
	DB	011H
	DB	011H
	DB	011H
	DB	011H
	DB	011H
	DB	011H
	DB	011H
	DB	011H
	DB	011H
	DB	011H
	DB	011H
	DB	011H
	DB	011H
	DB	011H
	DB	011H
	DB	011H
	DB	011H
	DB	011H
	DB	011H
	DB	011H
	DB	011H
	DB	011H
	DB	011H
	DB	011H
	DB	011H
	DB	011H
	DB	011H
	DB	011H
	DB	011H
	DB	011H
	DB	011H
	DB	011H
	DB	0aH
	DB	0f2H
	DB	01H
	DB	01H
	DB	01H
	DB	01H
	DB	01H
	DB	01H
	DB	071H
	DB	0b9H
	DB	06dH
	DB	08aH
	DB	07H
	DB	09H
	DB	09H
	DB	0dH
	DB	029H
	DB	07H
	DB	09H
	DB	09H
	DB	09H
	DB	07H
	DB	01aH
	DB	01aH
	DB	039H
	DB	0dH
	DB	0dH
	DB	0dH
	DB	0dH
	DB	09H
	DB	04fH
	DB	04fH
	DB	07dH
	DB	039H
	DB	02cH
	DB	0c2H
	DB	0b0H
	DB	0aH
	DB	011H
	DB	011H
	DB	011H
	DB	011H
	DB	011H
	DB	011H
	DB	011H
	DB	011H
	DB	011H
	DB	011H
	DB	011H
	DB	011H
	DB	011H
	DB	011H
	DB	011H
	DB	011H
	DB	011H
	DB	011H
	DB	011H
	DB	011H
	DB	011H
	DB	011H
	DB	011H
	DB	011H
	DB	011H
	DB	011H
	DB	011H
	DB	011H
	DB	011H
	DB	011H
	DB	011H
	DB	011H
	DB	011H
	DB	011H
	DB	011H
	DB	011H
	DB	011H
	DB	011H
	DB	011H
	DB	011H
	DB	0b1H
	DB	0f2H
	DB	01H
	DB	01H
	DB	01H
	DB	01H
	DB	01H
	DB	01H
	DB	089H
	DB	01aH
	DB	06eH
	DB	089H
	DB	056H
	DB	02cH
	DB	059H
	DB	01aH
	DB	0dH
	DB	027H
	DB	02dH
	DB	0dH
	DB	07H
	DB	07H
	DB	07H
	DB	07H
	DB	0dH
	DB	0dH
	DB	09H
	DB	09H
	DB	07dH
	DB	07dH
	DB	03aH
	DB	04fH
	DB	034H
	DB	03aH
	DB	0b3H
	DB	0cH
	DB	096H
	DB	0b1H
	DB	0aH
	DB	0aH
	DB	0aH
	DB	0aH
	DB	0aH
	DB	0aH
	DB	0aH
	DB	0aH
	DB	0aH
	DB	0aH
	DB	0aH
	DB	0aH
	DB	0aH
	DB	0aH
	DB	0aH
	DB	0aH
	DB	0aH
	DB	0aH
	DB	0aH
	DB	0aH
	DB	0aH
	DB	0aH
	DB	0aH
	DB	0aH
	DB	0aH
	DB	0aH
	DB	0aH
	DB	0aH
	DB	0aH
	DB	0aH
	DB	0aH
	DB	0aH
	DB	0aH
	DB	0aH
	DB	011H
	DB	011H
	DB	011H
	DB	0aH
	DB	0aH
	DB	0aH
	DB	0b1H
	DB	052H
	DB	01H
	DB	01H
	DB	01H
	DB	01H
	DB	01H
	DB	01H
	DB	087H
	DB	019H
	DB	04aH
	DB	054H
	DB	08cH
	DB	09dH
	DB	07cH
	DB	09H
	DB	027H
	DB	0dH
	DB	0dH
	DB	07dH
	DB	07H
	DB	07H
	DB	09H
	DB	07H
	DB	09H
	DB	09H
	DB	09H
	DB	04cH
	DB	0dH
	DB	07dH
	DB	02dH
	DB	039H
	DB	0dH
	DB	0dH
	DB	034H
	DB	0dH
	DB	02aH
	DB	0faH
	DB	012H
	DB	0aH
	DB	0aH
	DB	0aH
	DB	0aH
	DB	0aH
	DB	0aH
	DB	0aH
	DB	0aH
	DB	0aH
	DB	0aH
	DB	0aH
	DB	0aH
	DB	0aH
	DB	0aH
	DB	0aH
	DB	0aH
	DB	0aH
	DB	0aH
	DB	0aH
	DB	0aH
	DB	0aH
	DB	0aH
	DB	0aH
	DB	0aH
	DB	0aH
	DB	0aH
	DB	0aH
	DB	0aH
	DB	0aH
	DB	0aH
	DB	0aH
	DB	0aH
	DB	0aH
	DB	0aH
	DB	0aH
	DB	0aH
	DB	0aH
	DB	0aH
	DB	0aH
	DB	0b1H
	DB	052H
	DB	01H
	DB	01H
	DB	01H
	DB	01H
	DB	01H
	DB	01H
	DB	05dH
	DB	05cH
	DB	061H
	DB	0b2H
	DB	05cH
	DB	088H
	DB	08aH
	DB	02cH
	DB	09H
	DB	01aH
	DB	01aH
	DB	0dH
	DB	06bH
	DB	06bH
	DB	09H
	DB	04cH
	DB	09H
	DB	09H
	DB	09H
	DB	04cH
	DB	0dH
	DB	0dH
	DB	02aH
	DB	0dH
	DB	01aH
	DB	01aH
	DB	0dH
	DB	07dH
	DB	06bH
	DB	09H
	DB	096H
	DB	0aH
	DB	016H
	DB	0aH
	DB	0aH
	DB	0aH
	DB	0aH
	DB	0aH
	DB	0aH
	DB	0aH
	DB	0aH
	DB	0aH
	DB	0aH
	DB	0aH
	DB	0aH
	DB	0aH
	DB	0aH
	DB	0aH
	DB	0aH
	DB	0aH
	DB	0aH
	DB	0aH
	DB	0aH
	DB	0aH
	DB	0aH
	DB	0aH
	DB	0aH
	DB	0aH
	DB	0aH
	DB	0aH
	DB	0aH
	DB	0aH
	DB	0aH
	DB	0aH
	DB	0aH
	DB	0aH
	DB	0aH
	DB	0aH
	DB	0aH
	DB	0aH
	DB	0b1H
	DB	052H
	DB	01H
	DB	01H
	DB	01H
	DB	01H
	DB	01H
	DB	01H
	DB	07cH
	DB	0a9H
	DB	09fH
	DB	019H
	DB	04aH
	DB	01aH
	DB	031H
	DB	06bH
	DB	07H
	DB	04cH
	DB	0dH
	DB	01aH
	DB	01aH
	DB	06bH
	DB	019H
	DB	0dH
	DB	02dH
	DB	02dH
	DB	09H
	DB	09H
	DB	09H
	DB	0dH
	DB	09H
	DB	07H
	DB	07cH
	DB	0dH
	DB	039H
	DB	01aH
	DB	0dH
	DB	0dH
	DB	024H
	DB	0c1H
	DB	012H
	DB	0aH
	DB	0b1H
	DB	0b1H
	DB	0b1H
	DB	0b1H
	DB	0b1H
	DB	0b1H
	DB	0b1H
	DB	0b1H
	DB	0b1H
	DB	0b1H
	DB	0b1H
	DB	0b1H
	DB	0b1H
	DB	0b1H
	DB	0b1H
	DB	0b1H
	DB	0b1H
	DB	0b1H
	DB	0b1H
	DB	0aH
	DB	0aH
	DB	0aH
	DB	0aH
	DB	0aH
	DB	0aH
	DB	0aH
	DB	0aH
	DB	0aH
	DB	0aH
	DB	0aH
	DB	0aH
	DB	0aH
	DB	0aH
	DB	0aH
	DB	0aH
	DB	0aH
	DB	012H
	DB	052H
	DB	01H
	DB	01H
	DB	01H
	DB	01H
	DB	01H
	DB	01H
	DB	0b5H
	DB	08cH
	DB	09eH
	DB	01aH
	DB	019H
	DB	04aH
	DB	09H
	DB	0b5H
	DB	046H
	DB	059H
	DB	0dH
	DB	07H
	DB	01aH
	DB	01aH
	DB	09H
	DB	0dH
	DB	039H
	DB	03aH
	DB	07dH
	DB	07H
	DB	01aH
	DB	07H
	DB	019H
	DB	01aH
	DB	039H
	DB	04fH
	DB	07cH
	DB	01aH
	DB	0dH
	DB	0dH
	DB	06bH
	DB	057H
	DB	012H
	DB	012H
	DB	016H
	DB	016H
	DB	016H
	DB	016H
	DB	016H
	DB	016H
	DB	016H
	DB	016H
	DB	016H
	DB	016H
	DB	016H
	DB	016H
	DB	016H
	DB	016H
	DB	016H
	DB	016H
	DB	016H
	DB	016H
	DB	016H
	DB	016H
	DB	016H
	DB	016H
	DB	016H
	DB	016H
	DB	016H
	DB	016H
	DB	016H
	DB	016H
	DB	016H
	DB	016H
	DB	016H
	DB	016H
	DB	016H
	DB	016H
	DB	016H
	DB	016H
	DB	012H
	DB	052H
	DB	01H
	DB	01H
	DB	01H
	DB	01H
	DB	01H
	DB	01H
	DB	05dH
	DB	08bH
	DB	0ddH
	DB	0b9H
	DB	024H
	DB	0bbH
	DB	09fH
	DB	088H
	DB	0d7H
	DB	0b5H
	DB	07H
	DB	09H
	DB	01aH
	DB	01aH
	DB	02dH
	DB	039H
	DB	01aH
	DB	01aH
	DB	07dH
	DB	07dH
	DB	0dH
	DB	07H
	DB	07H
	DB	07H
	DB	07H
	DB	07H
	DB	07cH
	DB	06bH
	DB	0dH
	DB	019H
	DB	02cH
	DB	02cH
	DB	0bcH
	DB	0feH
	DB	04H
	DB	016H
	DB	016H
	DB	016H
	DB	016H
	DB	016H
	DB	016H
	DB	016H
	DB	016H
	DB	016H
	DB	016H
	DB	016H
	DB	016H
	DB	016H
	DB	016H
	DB	016H
	DB	016H
	DB	016H
	DB	016H
	DB	016H
	DB	016H
	DB	016H
	DB	016H
	DB	016H
	DB	016H
	DB	016H
	DB	016H
	DB	016H
	DB	016H
	DB	016H
	DB	016H
	DB	016H
	DB	016H
	DB	016H
	DB	016H
	DB	016H
	DB	04H
	DB	017H
	DB	01H
	DB	01H
	DB	01H
	DB	01H
	DB	01H
	DB	01H
	DB	070H
	DB	064H
	DB	084H
	DB	081H
	DB	09aH
	DB	0e5H
	DB	0c4H
	DB	084H
	DB	050H
	DB	088H
	DB	04fH
	DB	03aH
	DB	07dH
	DB	039H
	DB	07dH
	DB	039H
	DB	0dH
	DB	07cH
	DB	019H
	DB	0dH
	DB	039H
	DB	07dH
	DB	09H
	DB	04aH
	DB	04aH
	DB	019H
	DB	019H
	DB	06bH
	DB	0dH
	DB	019H
	DB	09H
	DB	02cH
	DB	024H
	DB	069H
	DB	0f6H
	DB	04H
	DB	012H
	DB	012H
	DB	012H
	DB	012H
	DB	012H
	DB	012H
	DB	012H
	DB	012H
	DB	012H
	DB	012H
	DB	012H
	DB	012H
	DB	012H
	DB	012H
	DB	012H
	DB	012H
	DB	012H
	DB	012H
	DB	012H
	DB	012H
	DB	012H
	DB	012H
	DB	012H
	DB	012H
	DB	012H
	DB	012H
	DB	012H
	DB	012H
	DB	016H
	DB	016H
	DB	016H
	DB	016H
	DB	016H
	DB	016H
	DB	04H
	DB	017H
	DB	01H
	DB	01H
	DB	01H
	DB	01H
	DB	01H
	DB	01H
	DB	0b6H
	DB	0c8H
	DB	0a0H
	DB	05cH
	DB	0a4H
	DB	0c3H
	DB	0a4H
	DB	075H
	DB	051H
	DB	062H
	DB	099H
	DB	039H
	DB	01aH
	DB	039H
	DB	039H
	DB	0dH
	DB	01aH
	DB	0dH
	DB	07cH
	DB	019H
	DB	06bH
	DB	0dH
	DB	07dH
	DB	09H
	DB	019H
	DB	019H
	DB	019H
	DB	019H
	DB	06bH
	DB	019H
	DB	09H
	DB	09H
	DB	07H
	DB	019H
	DB	04aH
	DB	0c0H
	DB	012H
	DB	04H
	DB	012H
	DB	012H
	DB	012H
	DB	012H
	DB	012H
	DB	012H
	DB	012H
	DB	012H
	DB	012H
	DB	012H
	DB	012H
	DB	012H
	DB	012H
	DB	012H
	DB	012H
	DB	012H
	DB	012H
	DB	012H
	DB	012H
	DB	012H
	DB	012H
	DB	012H
	DB	012H
	DB	012H
	DB	012H
	DB	012H
	DB	012H
	DB	012H
	DB	012H
	DB	012H
	DB	012H
	DB	012H
	DB	04H
	DB	017H
	DB	01H
	DB	01H
	DB	01H
	DB	01H
	DB	01H
	DB	01H
	DB	07H
	DB	019H
	DB	054H
	DB	0daH
	DB	0e4H
	DB	062H
	DB	076H
	DB	058H
	DB	0a7H
	DB	062H
	DB	09bH
	DB	099H
	DB	0b5H
	DB	019H
	DB	0dH
	DB	0dH
	DB	039H
	DB	039H
	DB	06bH
	DB	019H
	DB	019H
	DB	019H
	DB	06bH
	DB	0dH
	DB	07dH
	DB	06bH
	DB	019H
	DB	019H
	DB	06bH
	DB	07H
	DB	09H
	DB	09H
	DB	0dH
	DB	09H
	DB	09H
	DB	09H
	DB	023H
	DB	0f6H
	DB	04H
	DB	04H
	DB	012H
	DB	012H
	DB	012H
	DB	012H
	DB	012H
	DB	012H
	DB	012H
	DB	012H
	DB	012H
	DB	012H
	DB	012H
	DB	012H
	DB	012H
	DB	012H
	DB	012H
	DB	012H
	DB	012H
	DB	012H
	DB	012H
	DB	012H
	DB	012H
	DB	012H
	DB	012H
	DB	012H
	DB	0ffH
	DB	0ffH
	DB	0ffH
	DB	0ffH
	DB	0ffH
	DB	0ffH
	DB	04H
	DB	017H
	DB	01H
	DB	01H
	DB	01H
	DB	01H
	DB	01H
	DB	01H
	DB	07dH
	DB	0dH
	DB	07dH
	DB	071H
	DB	0a6H
	DB	058H
	DB	074H
	DB	0a6H
	DB	0a7H
	DB	0a5H
	DB	0b7H
	DB	098H
	DB	06dH
	DB	034H
	DB	07H
	DB	07dH
	DB	05dH
	DB	031H
	DB	05dH
	DB	01aH
	DB	0dH
	DB	09H
	DB	01aH
	DB	06bH
	DB	06bH
	DB	0eH
	DB	0dH
	DB	09H
	DB	09H
	DB	04cH
	DB	04cH
	DB	09H
	DB	0dH
	DB	039H
	DB	09H
	DB	04cH
	DB	04cH
	DB	09H
	DB	015H
	DB	017H
	DB	018H
	DB	04H
	DB	04H
	DB	0ffH
	DB	0ffH
	DB	0ffH
	DB	0ffH
	DB	0ffH
	DB	0ffH
	DB	0ffH
	DB	0ffH
	DB	0ffH
	DB	0ffH
	DB	0ffH
	DB	0ffH
	DB	0ffH
	DB	0ffH
	DB	0ffH
	DB	0ffH
	DB	0ffH
	DB	0ffH
	DB	0ffH
	DB	0ffH
	DB	0ffH
	DB	0ffH
	DB	0ffH
	DB	0ffH
	DB	0ffH
	DB	0ffH
	DB	0ffH
	DB	04H
	DB	017H
	DB	01H
	DB	01H
	DB	01H
	DB	01H
	DB	01H
	DB	01H
	DB	039H
	DB	039H
	DB	06bH
	DB	0b8H
	DB	064H
	DB	058H
	DB	050H
	DB	062H
	DB	063H
	DB	0dcH
	DB	073H
	DB	086H
	DB	061H
	DB	0b9H
	DB	093H
	DB	098H
	DB	0caH
	DB	097H
	DB	091H
	DB	0b6H
	DB	019H
	DB	01aH
	DB	07H
	DB	059H
	DB	059H
	DB	02cH
	DB	06bH
	DB	0dH
	DB	09H
	DB	09H
	DB	04cH
	DB	04cH
	DB	09H
	DB	09H
	DB	04cH
	DB	04aH
	DB	09H
	DB	02dH
	DB	04cH
	DB	04cH
	DB	02dH
	DB	025H
	DB	0fdH
	DB	04H
	DB	04H
	DB	0ffH
	DB	0ffH
	DB	0ffH
	DB	0ffH
	DB	0ffH
	DB	0ffH
	DB	0ffH
	DB	0ffH
	DB	0ffH
	DB	0ffH
	DB	0ffH
	DB	0ffH
	DB	0ffH
	DB	0ffH
	DB	0ffH
	DB	0ffH
	DB	0ffH
	DB	0ffH
	DB	0ffH
	DB	0ffH
	DB	0ffH
	DB	0ffH
	DB	0ffH
	DB	0ffH
	DB	0ffH
	DB	04H
	DB	017H
	DB	01H
	DB	01H
	DB	01H
	DB	01H
	DB	01H
	DB	01H
	DB	07fH
	DB	09cH
	DB	0ccH
	DB	075H
	DB	058H
	DB	063H
	DB	063H
	DB	051H
	DB	051H
	DB	077H
	DB	064H
	DB	0dbH
	DB	050H
	DB	08bH
	DB	076H
	DB	064H
	DB	0dcH
	DB	0a4H
	DB	09eH
	DB	06fH
	DB	0b5H
	DB	01aH
	DB	046H
	DB	05bH
	DB	07cH
	DB	0b5H
	DB	05bH
	DB	031H
	DB	031H
	DB	01aH
	DB	04aH
	DB	09H
	DB	07H
	DB	019H
	DB	09H
	DB	09H
	DB	09H
	DB	09H
	DB	09H
	DB	04cH
	DB	02dH
	DB	07H
	DB	0eH
	DB	0dfH
	DB	014H
	DB	04H
	DB	01bH
	DB	01bH
	DB	01bH
	DB	01bH
	DB	01bH
	DB	01bH
	DB	01bH
	DB	01bH
	DB	01bH
	DB	01bH
	DB	01bH
	DB	01bH
	DB	01bH
	DB	01bH
	DB	01bH
	DB	01bH
	DB	01bH
	DB	01bH
	DB	01bH
	DB	01bH
	DB	01bH
	DB	01bH
	DB	01bH
	DB	01bH
	DB	04H
	DB	017H
	DB	01H
	DB	01H
	DB	01H
	DB	01H
	DB	01H
	DB	01H
	DB	051H
	DB	063H
	DB	058H
	DB	063H
	DB	0cbH
	DB	0c3H
	DB	0c6H
	DB	0c7H
	DB	0c6H
	DB	07fH
	DB	05cH
	DB	0cbH
	DB	0d9H
	DB	075H
	DB	074H
	DB	050H
	DB	051H
	DB	065H
	DB	065H
	DB	0acH
	DB	072H
	DB	0d1H
	DB	061H
	DB	0aaH
	DB	066H
	DB	08dH
	DB	08dH
	DB	066H
	DB	0a9H
	DB	08aH
	DB	03aH
	DB	039H
	DB	06eH
	DB	0deH
	DB	0d2H
	DB	047H
	DB	026H
	DB	02dH
	DB	04cH
	DB	09H
	DB	069H
	DB	02dH
	DB	02dH
	DB	09H
	DB	0eH
	DB	025H
	DB	018H
	DB	04H
	DB	01bH
	DB	01bH
	DB	01bH
	DB	01bH
	DB	01bH
	DB	01bH
	DB	01bH
	DB	01bH
	DB	01bH
	DB	01bH
	DB	01bH
	DB	01bH
	DB	01bH
	DB	01bH
	DB	01bH
	DB	01bH
	DB	01bH
	DB	01bH
	DB	01bH
	DB	01bH
	DB	01bH
	DB	01bH
	DB	04H
	DB	017H
	DB	01H
	DB	01H
	DB	01H
	DB	01H
	DB	01H
	DB	01H
	DB	070H
	DB	097H
	DB	0caH
	DB	054H
	DB	07cH
	DB	07H
	DB	04aH
	DB	059H
	DB	027H
	DB	069H
	DB	09H
	DB	031H
	DB	05bH
	DB	02bH
	DB	02bH
	DB	093H
	DB	09cH
	DB	09cH
	DB	0a0H
	DB	086H
	DB	073H
	DB	071H
	DB	0daH
	DB	0e2H
	DB	0a8H
	DB	0ceH
	DB	075H
	DB	064H
	DB	0c5H
	DB	07cH
	DB	04cH
	DB	0eH
	DB	030H
	DB	05eH
	DB	047H
	DB	03aH
	DB	095H
	DB	026H
	DB	0eH
	DB	04cH
	DB	09H
	DB	09H
	DB	09H
	DB	02dH
	DB	069H
	DB	09H
	DB	030H
	DB	017H
	DB	01bH
	DB	01bH
	DB	01cH
	DB	01cH
	DB	01bH
	DB	01bH
	DB	01bH
	DB	01bH
	DB	01bH
	DB	01bH
	DB	01bH
	DB	01bH
	DB	01bH
	DB	01cH
	DB	01cH
	DB	01cH
	DB	01cH
	DB	01cH
	DB	01cH
	DB	01cH
	DB	01cH
	DB	01cH
	DB	01bH
	DB	017H
	DB	01H
	DB	01H
	DB	01H
	DB	01H
	DB	01H
	DB	01H
	DB	04cH
	DB	029H
	DB	029H
	DB	069H
	DB	04aH
	DB	049H
	DB	07cH
	DB	0eH
	DB	019H
	DB	0cH
	DB	0eH
	DB	04cH
	DB	02cH
	DB	07H
	DB	059H
	DB	07H
	DB	06bH
	DB	019H
	DB	02cH
	DB	09H
	DB	07H
	DB	019H
	DB	0dH
	DB	06bH
	DB	059H
	DB	07H
	DB	056H
	DB	07fH
	DB	0dH
	DB	069H
	DB	04cH
	DB	04cH
	DB	04cH
	DB	0eH
	DB	04cH
	DB	04cH
	DB	0eH
	DB	0eH
	DB	03aH
	DB	02dH
	DB	02dH
	DB	02dH
	DB	04cH
	DB	07H
	DB	09H
	DB	04cH
	DB	04cH
	DB	07H
	DB	036H
	DB	0f9H
	DB	01bH
	DB	01cH
	DB	01cH
	DB	01cH
	DB	01cH
	DB	01cH
	DB	01cH
	DB	01cH
	DB	01cH
	DB	01cH
	DB	01cH
	DB	01cH
	DB	01cH
	DB	01cH
	DB	01cH
	DB	01cH
	DB	01cH
	DB	01cH
	DB	01cH
	DB	01cH
	DB	01bH
	DB	067H
	DB	01H
	DB	01H
	DB	01H
	DB	01H
	DB	01H
	DB	01H
	DB	0eH
	DB	0eH
	DB	026H
	DB	026H
	DB	0eH
	DB	019H
	DB	0dH
	DB	07H
	DB	024H
	DB	024H
	DB	019H
	DB	07H
	DB	07H
	DB	019H
	DB	04aH
	DB	024H
	DB	07H
	DB	07H
	DB	04aH
	DB	04cH
	DB	09H
	DB	09H
	DB	09H
	DB	07H
	DB	09H
	DB	04cH
	DB	09H
	DB	09H
	DB	09H
	DB	07H
	DB	01aH
	DB	09H
	DB	09H
	DB	07H
	DB	0eH
	DB	0eH
	DB	01aH
	DB	0dH
	DB	0eH
	DB	0eH
	DB	02dH
	DB	02dH
	DB	02dH
	DB	09H
	DB	07H
	DB	0dH
	DB	09H
	DB	09H
	DB	09H
	DB	01aH
	DB	0d3H
	DB	0aeH
	DB	01cH
	DB	01cH
	DB	01cH
	DB	01cH
	DB	01cH
	DB	01cH
	DB	01cH
	DB	01cH
	DB	01cH
	DB	01cH
	DB	01cH
	DB	01cH
	DB	01cH
	DB	01cH
	DB	01cH
	DB	01cH
	DB	01cH
	DB	01cH
	DB	01cH
	DB	067H
	DB	01H
	DB	01H
	DB	01H
	DB	01H
	DB	01H
	DB	01H
	DB	0eH
	DB	0eH
	DB	07H
	DB	07H
	DB	07H
	DB	09H
	DB	09H
	DB	049H
	DB	024H
	DB	07H
	DB	024H
	DB	0cH
	DB	024H
	DB	024H
	DB	019H
	DB	024H
	DB	04aH
	DB	04aH
	DB	024H
	DB	024H
	DB	04cH
	DB	0dH
	DB	0eH
	DB	04cH
	DB	07H
	DB	01aH
	DB	029H
	DB	0dH
	DB	07H
	DB	07H
	DB	04aH
	DB	04aH
	DB	09H
	DB	07H
	DB	04aH
	DB	09H
	DB	09H
	DB	09H
	DB	07H
	DB	07H
	DB	07H
	DB	07H
	DB	09H
	DB	09H
	DB	09H
	DB	0dH
	DB	09H
	DB	09H
	DB	0eH
	DB	02dH
	DB	09H
	DB	029H
	DB	036H
	DB	0e1H
	DB	02fH
	DB	01cH
	DB	01cH
	DB	01cH
	DB	01cH
	DB	02fH
	DB	02fH
	DB	02fH
	DB	02fH
	DB	02fH
	DB	02fH
	DB	02fH
	DB	02fH
	DB	02fH
	DB	02fH
	DB	02fH
	DB	01cH
	DB	067H
	DB	01H
	DB	01H
	DB	01H
	DB	01H
	DB	01H
	DB	01H
	DB	07H
	DB	04aH
	DB	04aH
	DB	07H
	DB	07H
	DB	09H
	DB	09H
	DB	024H
	DB	049H
	DB	04aH
	DB	024H
	DB	024H
	DB	07H
	DB	019H
	DB	0cH
	DB	0cH
	DB	024H
	DB	024H
	DB	019H
	DB	07H
	DB	09H
	DB	09H
	DB	0eH
	DB	0dH
	DB	07H
	DB	029H
	DB	029H
	DB	0dH
	DB	09H
	DB	09H
	DB	07H
	DB	07H
	DB	09H
	DB	07H
	DB	0dH
	DB	07H
	DB	07H
	DB	04aH
	DB	024H
	DB	024H
	DB	0cH
	DB	019H
	DB	09H
	DB	034H
	DB	0dH
	DB	09H
	DB	0dH
	DB	0eH
	DB	09H
	DB	09H
	DB	07H
	DB	04cH
	DB	0dH
	DB	07cH
	DB	046H
	DB	0a1H
	DB	0e6H
	DB	0ebH
	DB	078H
	DB	079H
	DB	079H
	DB	02fH
	DB	02fH
	DB	02fH
	DB	02fH
	DB	02fH
	DB	02fH
	DB	02fH
	DB	02fH
	DB	02fH
	DB	02fH
	DB	0e1H
	DB	01H
	DB	01H
	DB	01H
	DB	01H
	DB	01H
	DB	01H
	DB	07H
	DB	07H
	DB	04aH
	DB	07H
	DB	04aH
	DB	04aH
	DB	09H
	DB	07H
	DB	024H
	DB	049H
	DB	024H
	DB	019H
	DB	07H
	DB	07H
	DB	024H
	DB	019H
	DB	024H
	DB	07H
	DB	0eH
	DB	0eH
	DB	07H
	DB	0dH
	DB	0eH
	DB	0dH
	DB	0eH
	DB	029H
	DB	029H
	DB	01aH
	DB	01aH
	DB	07H
	DB	07H
	DB	0dH
	DB	09H
	DB	0dH
	DB	0dH
	DB	0dH
	DB	0dH
	DB	0eH
	DB	09H
	DB	09H
	DB	09H
	DB	019H
	DB	09H
	DB	09H
	DB	09H
	DB	09H
	DB	09H
	DB	09H
	DB	0dH
	DB	02dH
	DB	0dH
	DB	09H
	DB	07H
	DB	09H
	DB	07H
	DB	07H
	DB	07H
	DB	056H
	DB	0c9H
	DB	073H
	DB	0abH
	DB	0e7H
	DB	02fH
	DB	079H
	DB	079H
	DB	078H
	DB	078H
	DB	0afH
	DB	0afH
	DB	0f0H
	DB	078H
	DB	0e0H
	DB	01H
	DB	01H
	DB	01H
	DB	01H
	DB	01H
	DB	01H
	DB	07H
	DB	0dH
	DB	07H
	DB	019H
	DB	07H
	DB	07H
	DB	07H
	DB	0dH
	DB	0eH
	DB	07H
	DB	07H
	DB	07H
	DB	07H
	DB	07H
	DB	01aH
	DB	0dH
	DB	01aH
	DB	01aH
	DB	01aH
	DB	01aH
	DB	0dH
	DB	0eH
	DB	07H
	DB	01aH
	DB	0eH
	DB	0eH
	DB	029H
	DB	01aH
	DB	07H
	DB	07H
	DB	07H
	DB	0dH
	DB	0dH
	DB	09H
	DB	0eH
	DB	0dH
	DB	07H
	DB	07H
	DB	0eH
	DB	0eH
	DB	0dH
	DB	07H
	DB	07H
	DB	0dH
	DB	07H
	DB	09H
	DB	09H
	DB	0eH
	DB	0dH
	DB	09H
	DB	029H
	DB	07H
	DB	07H
	DB	0dH
	DB	0eH
	DB	01aH
	DB	07H
	DB	04cH
	DB	09H
	DB	0eH
	DB	082H
	DB	081H
	DB	0a3H
	DB	0e9H
	DB	066H
	DB	066H
	DB	077H
	DB	08dH
	DB	076H
	DB	077H
	DB	0eeH
	DB	0e0H
	DB	01H
	DB	01H
	DB	01H
	DB	01H
	DB	01H
	DB	01H
	DB	023H
	DB	095H
	DB	0eH
	DB	0dH
	DB	01aH
	DB	0eH
	DB	0dH
	DB	01aH
	DB	029H
	DB	026H
	DB	023H
	DB	026H
	DB	026H
	DB	023H
	DB	026H
	DB	0eH
	DB	0eH
	DB	026H
	DB	0eH
	DB	01aH
	DB	0eH
	DB	026H
	DB	0eH
	DB	07H
	DB	01aH
	DB	029H
	DB	029H
	DB	01aH
	DB	07H
	DB	07H
	DB	0dH
	DB	07H
	DB	07H
	DB	0dH
	DB	0dH
	DB	019H
	DB	024H
	DB	0cH
	DB	024H
	DB	07H
	DB	0dH
	DB	0eH
	DB	07H
	DB	04aH
	DB	07H
	DB	0dH
	DB	0eH
	DB	0eH
	DB	0dH
	DB	01aH
	DB	029H
	DB	029H
	DB	0eH
	DB	0eH
	DB	0eH
	DB	026H
	DB	029H
	DB	0eH
	DB	029H
	DB	0eH
	DB	02dH
	DB	07H
	DB	05bH
	DB	06aH
	DB	05bH
	DB	044H
	DB	0b6H
	DB	0bbH
	DB	073H
	DB	0e3H
	DB	066H
	DB	0cfH
	DB	01H
	DB	01H
	DB	01H
	DB	01H
	DB	01H
	DB	01H
	DB	06cH
	DB	046H
	DB	029H
	DB	0dH
	DB	03aH
	DB	030H
	DB	030H
	DB	023H
	DB	030H
	DB	023H
	DB	023H
	DB	030H
	DB	038H
	DB	023H
	DB	026H
	DB	038H
	DB	095H
	DB	023H
	DB	023H
	DB	038H
	DB	030H
	DB	030H
	DB	038H
	DB	038H
	DB	038H
	DB	023H
	DB	03aH
	DB	030H
	DB	029H
	DB	023H
	DB	023H
	DB	029H
	DB	0eH
	DB	026H
	DB	01aH
	DB	07dH
	DB	07dH
	DB	019H
	DB	024H
	DB	07H
	DB	0eH
	DB	0eH
	DB	029H
	DB	0eH
	DB	0dH
	DB	0dH
	DB	0eH
	DB	0dH
	DB	07H
	DB	07H
	DB	0eH
	DB	0eH
	DB	0eH
	DB	01aH
	DB	01aH
	DB	01aH
	DB	07cH
	DB	01aH
	DB	019H
	DB	02bH
	DB	02bH
	DB	07cH
	DB	01aH
	DB	019H
	DB	024H
	DB	0cH
	DB	019H
	DB	01aH
	DB	02bH
	DB	05bH
	DB	044H
	DB	02eH
	DB	01H
	DB	01H
	DB	01H
	DB	01H
	DB	01H
	DB	01H
	DB	03eH
	DB	06H
	DB	06H
	DB	06H
	DB	01fH
	DB	04dH
	DB	046H
	DB	029H
	DB	026H
	DB	029H
	DB	01aH
	DB	026H
	DB	030H
	DB	026H
	DB	026H
	DB	030H
	DB	029H
	DB	029H
	DB	07H
	DB	029H
	DB	029H
	DB	026H
	DB	023H
	DB	038H
	DB	038H
	DB	057H
	DB	015H
	DB	038H
	DB	038H
	DB	038H
	DB	030H
	DB	029H
	DB	030H
	DB	038H
	DB	023H
	DB	0eH
	DB	0eH
	DB	0dH
	DB	0eH
	DB	02dH
	DB	023H
	DB	026H
	DB	0eH
	DB	03aH
	DB	0eH
	DB	0dH
	DB	0eH
	DB	02dH
	DB	0eH
	DB	0dH
	DB	0eH
	DB	0eH
	DB	02bH
	DB	033H
	DB	0bH
	DB	07bH
	DB	07bH
	DB	090H
	DB	090H
	DB	033H
	DB	07cH
	DB	01aH
	DB	0dH
	DB	019H
	DB	0cH
	DB	0cH
	DB	0cH
	DB	02bH
	DB	0cH
	DB	02bH
	DB	019H
	DB	0cH
	DB	01H
	DB	01H
	DB	01H
	DB	01H
	DB	01H
	DB	01H
	DB	03eH
	DB	03eH
	DB	03eH
	DB	03eH
	DB	06H
	DB	06H
	DB	06H
	DB	06H
	DB	01fH
	DB	01fH
	DB	044H
	DB	01fH
	DB	06aH
	DB	01fH
	DB	01fH
	DB	01fH
	DB	06H
	DB	06H
	DB	06aH
	DB	06aH
	DB	06aH
	DB	044H
	DB	04dH
	DB	01fH
	DB	044H
	DB	01fH
	DB	044H
	DB	029H
	DB	029H
	DB	026H
	DB	026H
	DB	0eH
	DB	023H
	DB	023H
	DB	0eH
	DB	026H
	DB	0eH
	DB	0eH
	DB	023H
	DB	095H
	DB	026H
	DB	0eH
	DB	026H
	DB	026H
	DB	0eH
	DB	0eH
	DB	026H
	DB	0eH
	DB	03aH
	DB	0eH
	DB	033H
	DB	0bH
	DB	019H
	DB	038H
	DB	0bfH
	DB	025H
	DB	025H
	DB	0bfH
	DB	015H
	DB	01aH
	DB	0bH
	DB	0bH
	DB	024H
	DB	024H
	DB	024H
	DB	0cH
	DB	0cH
	DB	024H
	DB	024H
	DB	0cH
	DB	0cH
	DB	0bH
	DB	01H
	DB	01H
	DB	01H
	DB	01H
	DB	01H
	DB	01H
	DB	06H
	DB	022H
	DB	022H
	DB	022H
	DB	03eH
	DB	03eH
	DB	06H
	DB	06H
	DB	06H
	DB	06H
	DB	06H
	DB	06H
	DB	01fH
	DB	07H
	DB	01fH
	DB	06aH
	DB	06H
	DB	06H
	DB	06aH
	DB	06H
	DB	06H
	DB	06H
	DB	06H
	DB	06H
	DB	01fH
	DB	01fH
	DB	01fH
	DB	01fH
	DB	01fH
	DB	01fH
	DB	01fH
	DB	044H
	DB	01fH
	DB	01fH
	DB	01fH
	DB	01fH
	DB	01fH
	DB	01fH
	DB	01fH
	DB	01fH
	DB	01fH
	DB	01fH
	DB	029H
	DB	029H
	DB	029H
	DB	01fH
	DB	01fH
	DB	04bH
	DB	041H
	DB	0bH
	DB	023H
	DB	017H
	DB	018H
	DB	04H
	DB	04H
	DB	04H
	DB	04H
	DB	04H
	DB	04H
	DB	0ffH
	DB	020H
	DB	015H
	DB	0bH
	DB	049H
	DB	07H
	DB	07H
	DB	0cH
	DB	06H
	DB	06H
	DB	06H
	DB	06H
	DB	02eH
	DB	01H
	DB	01H
	DB	01H
	DB	01H
	DB	01H
	DB	01H
	DB	029H
	DB	06H
	DB	022H
	DB	02eH
	DB	03eH
	DB	03eH
	DB	03eH
	DB	022H
	DB	03eH
	DB	06H
	DB	06H
	DB	06H
	DB	01fH
	DB	02bH
	DB	02bH
	DB	01fH
	DB	06aH
	DB	06H
	DB	06H
	DB	06H
	DB	02bH
	DB	02bH
	DB	01fH
	DB	01fH
	DB	02bH
	DB	0cH
	DB	02bH
	DB	06H
	DB	06H
	DB	06H
	DB	06H
	DB	06aH
	DB	06H
	DB	06H
	DB	01fH
	DB	041H
	DB	041H
	DB	06H
	DB	06H
	DB	06H
	DB	06H
	DB	06H
	DB	06H
	DB	06H
	DB	06H
	DB	06H
	DB	06H
	DB	068H
	DB	01aH
	DB	017H
	DB	04H
	DB	04H
	DB	04H
	DB	04H
	DB	04H
	DB	04H
	DB	04H
	DB	04H
	DB	04H
	DB	04H
	DB	04H
	DB	04H
	DB	0fbH
	DB	023H
	DB	068H
	DB	03eH
	DB	03eH
	DB	03eH
	DB	03eH
	DB	03eH
	DB	06H
	DB	03eH
	DB	01H
	DB	01H
	DB	01H
	DB	01H
	DB	01H
	DB	01H
	DB	036H
	DB	046H
	DB	044H
	DB	01fH
	DB	01fH
	DB	02eH
	DB	022H
	DB	02eH
	DB	06H
	DB	06H
	DB	06H
	DB	06H
	DB	06H
	DB	06H
	DB	01fH
	DB	01fH
	DB	044H
	DB	01fH
	DB	01fH
	DB	01fH
	DB	06aH
	DB	01fH
	DB	01fH
	DB	06H
	DB	06H
	DB	06H
	DB	03eH
	DB	03eH
	DB	05aH
	DB	06H
	DB	06H
	DB	06H
	DB	06H
	DB	02bH
	DB	07H
	DB	07H
	DB	02bH
	DB	06H
	DB	06H
	DB	06H
	DB	03eH
	DB	03eH
	DB	06H
	DB	06H
	DB	06H
	DB	06H
	DB	068H
	DB	095H
	DB	018H
	DB	04H
	DB	04H
	DB	04H
	DB	04H
	DB	04H
	DB	04H
	DB	04H
	DB	04H
	DB	04H
	DB	04H
	DB	04H
	DB	04H
	DB	04H
	DB	04H
	DB	04H
	DB	0dfH
	DB	068H
	DB	022H
	DB	06H
	DB	06H
	DB	06H
	DB	06H
	DB	022H
	DB	01H
	DB	01H
	DB	01H
	DB	01H
	DB	01H
	DB	01H
	DB	083H
	DB	038H
	DB	036H
	DB	07eH
	DB	06cH
	DB	02eH
	DB	02eH
	DB	022H
	DB	022H
	DB	03eH
	DB	06H
	DB	06H
	DB	02bH
	DB	01fH
	DB	01fH
	DB	01fH
	DB	06aH
	DB	01fH
	DB	01fH
	DB	01fH
	DB	044H
	DB	06H
	DB	022H
	DB	03eH
	DB	03eH
	DB	022H
	DB	022H
	DB	03eH
	DB	06H
	DB	06H
	DB	06H
	DB	06H
	DB	0cH
	DB	02eH
	DB	06H
	DB	02bH
	DB	06H
	DB	06H
	DB	02bH
	DB	01fH
	DB	06H
	DB	06H
	DB	02bH
	DB	06H
	DB	0cH
	DB	068H
	DB	015H
	DB	04H
	DB	04H
	DB	04H
	DB	04H
	DB	04H
	DB	04H
	DB	04H
	DB	0ffH
	DB	0fdH
	DB	0fdH
	DB	0ffH
	DB	04H
	DB	04H
	DB	04H
	DB	04H
	DB	04H
	DB	04H
	DB	04H
	DB	0f3H
	DB	068H
	DB	0bH
	DB	02eH
	DB	02eH
	DB	06H
	DB	022H
	DB	01H
	DB	01H
	DB	01H
	DB	01H
	DB	01H
	DB	01H
	DB	010H
	DB	08eH
	DB	083H
	DB	038H
	DB	038H
	DB	030H
	DB	04dH
	DB	06aH
	DB	06H
	DB	02eH
	DB	0cH
	DB	0cH
	DB	0cH
	DB	0cH
	DB	02bH
	DB	02bH
	DB	02bH
	DB	01fH
	DB	06H
	DB	06H
	DB	01fH
	DB	02bH
	DB	022H
	DB	03eH
	DB	022H
	DB	022H
	DB	02eH
	DB	022H
	DB	068H
	DB	06H
	DB	01fH
	DB	02eH
	DB	049H
	DB	03eH
	DB	06H
	DB	06H
	DB	02bH
	DB	02bH
	DB	01fH
	DB	06aH
	DB	06H
	DB	06H
	DB	02bH
	DB	02bH
	DB	022H
	DB	0eH
	DB	018H
	DB	04H
	DB	04H
	DB	04H
	DB	04H
	DB	04H
	DB	017H
	DB	015H
	DB	07H
	DB	07H
	DB	07H
	DB	01aH
	DB	015H
	DB	017H
	DB	04H
	DB	04H
	DB	04H
	DB	04H
	DB	04H
	DB	04H
	DB	015H
	DB	07bH
	DB	07H
	DB	02bH
	DB	06H
	DB	02eH
	DB	01H
	DB	01H
	DB	01H
	DB	01H
	DB	01H
	DB	01H
	DB	0beH
	DB	03H
	DB	03bH
	DB	08eH
	DB	010H
	DB	083H
	DB	036H
	DB	06cH
	DB	04eH
	DB	04dH
	DB	01fH
	DB	041H
	DB	041H
	DB	041H
	DB	0cH
	DB	0cH
	DB	0cH
	DB	02bH
	DB	02bH
	DB	01fH
	DB	01fH
	DB	02bH
	DB	03eH
	DB	022H
	DB	022H
	DB	02eH
	DB	02eH
	DB	02eH
	DB	06H
	DB	01fH
	DB	07H
	DB	019H
	DB	019H
	DB	06H
	DB	06H
	DB	06H
	DB	02eH
	DB	06H
	DB	01fH
	DB	06H
	DB	06H
	DB	06H
	DB	0cH
	DB	033H
	DB	049H
	DB	0fbH
	DB	04H
	DB	04H
	DB	04H
	DB	04H
	DB	0fdH
	DB	023H
	DB	0cH
	DB	04aH
	DB	07H
	DB	029H
	DB	029H
	DB	01aH
	DB	04aH
	DB	02bH
	DB	095H
	DB	0fdH
	DB	04H
	DB	04H
	DB	04H
	DB	04H
	DB	0ffH
	DB	0eH
	DB	024H
	DB	02bH
	DB	06H
	DB	03eH
	DB	01H
	DB	01H
	DB	01H
	DB	01H
	DB	01H
	DB	01H
	DB	08H
	DB	0beH
	DB	0beH
	DB	03H
	DB	02H
	DB	010H
	DB	03dH
	DB	037H
	DB	083H
	DB	023H
	DB	047H
	DB	05eH
	DB	04eH
	DB	04dH
	DB	029H
	DB	07H
	DB	01fH
	DB	04bH
	DB	01fH
	DB	01fH
	DB	01fH
	DB	06H
	DB	022H
	DB	022H
	DB	022H
	DB	02eH
	DB	022H
	DB	06H
	DB	06H
	DB	02bH
	DB	024H
	DB	019H
	DB	019H
	DB	0cH
	DB	02eH
	DB	022H
	DB	03eH
	DB	06H
	DB	03eH
	DB	03eH
	DB	03eH
	DB	06H
	DB	06H
	DB	068H
	DB	0bfH
	DB	04H
	DB	04H
	DB	04H
	DB	04H
	DB	014H
	DB	01aH
	DB	0cH
	DB	07H
	DB	07H
	DB	07H
	DB	07H
	DB	07H
	DB	07H
	DB	07H
	DB	07H
	DB	02bH
	DB	0eH
	DB	014H
	DB	04H
	DB	04H
	DB	04H
	DB	04H
	DB	017H
	DB	033H
	DB	01fH
	DB	06aH
	DB	03eH
	DB	01H
	DB	01H
	DB	01H
	DB	01H
	DB	01H
	DB	01H
	DB	03H
	DB	08H
	DB	08H
	DB	03H
	DB	048H
	DB	03H
	DB	03H
	DB	010H
	DB	03dH
	DB	08fH
	DB	08eH
	DB	083H
	DB	038H
	DB	046H
	DB	06cH
	DB	047H
	DB	07eH
	DB	07eH
	DB	05aH
	DB	05aH
	DB	041H
	DB	02eH
	DB	022H
	DB	02eH
	DB	022H
	DB	02eH
	DB	02eH
	DB	02eH
	DB	0cH
	DB	0cH
	DB	04aH
	DB	07H
	DB	02bH
	DB	02bH
	DB	049H
	DB	0bH
	DB	0bH
	DB	0cH
	DB	06H
	DB	06H
	DB	022H
	DB	03eH
	DB	022H
	DB	049H
	DB	014H
	DB	04H
	DB	04H
	DB	04H
	DB	0ffH
	DB	026H
	DB	0cH
	DB	07H
	DB	07H
	DB	07H
	DB	07H
	DB	07H
	DB	07H
	DB	07H
	DB	07H
	DB	07H
	DB	07H
	DB	0cH
	DB	023H
	DB	0ffH
	DB	04H
	DB	04H
	DB	04H
	DB	0ffH
	DB	0eH
	DB	022H
	DB	06H
	DB	02eH
	DB	01H
	DB	01H
	DB	01H
	DB	01H
	DB	01H
	DB	01H
	DB	03H
	DB	03H
	DB	03H
	DB	03H
	DB	03H
	DB	03H
	DB	03H
	DB	03H
	DB	03H
	DB	03bH
	DB	010H
	DB	03dH
	DB	08fH
	DB	08eH
	DB	048H
	DB	015H
	DB	047H
	DB	094H
	DB	055H
	DB	055H
	DB	047H
	DB	026H
	DB	06H
	DB	06H
	DB	02eH
	DB	02eH
	DB	0bH
	DB	033H
	DB	0cH
	DB	0cH
	DB	019H
	DB	019H
	DB	02bH
	DB	02bH
	DB	0cH
	DB	0cH
	DB	033H
	DB	0cH
	DB	041H
	DB	01fH
	DB	03eH
	DB	06H
	DB	068H
	DB	023H
	DB	04H
	DB	04H
	DB	04H
	DB	04H
	DB	025H
	DB	0bH
	DB	04aH
	DB	024H
	DB	024H
	DB	024H
	DB	024H
	DB	024H
	DB	024H
	DB	024H
	DB	024H
	DB	024H
	DB	024H
	DB	024H
	DB	049H
	DB	025H
	DB	04H
	DB	04H
	DB	04H
	DB	04H
	DB	025H
	DB	090H
	DB	019H
	DB	0cH
	DB	01H
	DB	01H
	DB	01H
	DB	01H
	DB	01H
	DB	01H
	DB	03bH
	DB	03bH
	DB	03H
	DB	03H
	DB	03H
	DB	03H
	DB	03H
	DB	03H
	DB	03H
	DB	03H
	DB	03bH
	DB	03bH
	DB	02H
	DB	08eH
	DB	03fH
	DB	03fH
	DB	03dH
	DB	037H
	DB	0d4H
	DB	036H
	DB	05eH
	DB	08aH
	DB	080H
	DB	04eH
	DB	06H
	DB	01fH
	DB	0cH
	DB	0cH
	DB	02bH
	DB	06H
	DB	049H
	DB	0cH
	DB	02bH
	DB	041H
	DB	041H
	DB	041H
	DB	041H
	DB	0cH
	DB	0cH
	DB	02eH
	DB	02eH
	DB	0bH
	DB	068H
	DB	025H
	DB	04H
	DB	04H
	DB	04H
	DB	0ffH
	DB	01aH
	DB	033H
	DB	0cH
	DB	0cH
	DB	0cH
	DB	0cH
	DB	0cH
	DB	0cH
	DB	0cH
	DB	0cH
	DB	0cH
	DB	0cH
	DB	0cH
	DB	0cH
	DB	049H
	DB	0eH
	DB	0ffH
	DB	04H
	DB	04H
	DB	04H
	DB	0f8H
	DB	0bH
	DB	01aH
	DB	02bH
	DB	01H
	DB	01H
	DB	01H
	DB	01H
	DB	01H
	DB	01H
	DB	03bH
	DB	02H
	DB	03bH
	DB	03H
	DB	03H
	DB	03H
	DB	03H
	DB	03H
	DB	08H
	DB	08H
	DB	03H
	DB	03H
	DB	03bH
	DB	03bH
	DB	03bH
	DB	03bH
	DB	010H
	DB	03dH
	DB	03dH
	DB	08fH
	DB	048H
	DB	057H
	DB	047H
	DB	046H
	DB	092H
	DB	05eH
	DB	06eH
	DB	030H
	DB	04bH
	DB	04bH
	DB	01fH
	DB	0cH
	DB	041H
	DB	04bH
	DB	05aH
	DB	04bH
	DB	01fH
	DB	0cH
	DB	033H
	DB	0bH
	DB	0bH
	DB	090H
	DB	07aH
	DB	0f8H
	DB	04H
	DB	04H
	DB	04H
	DB	020H
	DB	0bH
	DB	033H
	DB	049H
	DB	049H
	DB	049H
	DB	049H
	DB	049H
	DB	049H
	DB	049H
	DB	049H
	DB	049H
	DB	049H
	DB	049H
	DB	049H
	DB	033H
	DB	0cH
	DB	020H
	DB	04H
	DB	04H
	DB	04H
	DB	0fdH
	DB	0cH
	DB	0cH
	DB	0cH
	DB	01H
	DB	01H
	DB	01H
	DB	01H
	DB	01H
	DB	01H
	DB	02H
	DB	02H
	DB	02H
	DB	03H
	DB	03bH
	DB	03H
	DB	03H
	DB	03H
	DB	03H
	DB	03H
	DB	03H
	DB	03H
	DB	08H
	DB	03H
	DB	03H
	DB	03bH
	DB	037H
	DB	037H
	DB	03bH
	DB	010H
	DB	03dH
	DB	053H
	DB	03fH
	DB	08eH
	DB	048H
	DB	038H
	DB	038H
	DB	030H
	DB	06cH
	DB	07eH
	DB	0baH
	DB	04eH
	DB	04dH
	DB	04bH
	DB	05aH
	DB	05aH
	DB	041H
	DB	024H
	DB	033H
	DB	0bH
	DB	033H
	DB	033H
	DB	0bH
	DB	020H
	DB	04H
	DB	04H
	DB	04H
	DB	017H
	DB	068H
	DB	0bH
	DB	0bH
	DB	0bH
	DB	0bH
	DB	0bH
	DB	0bH
	DB	0bH
	DB	0bH
	DB	0bH
	DB	0bH
	DB	0bH
	DB	0bH
	DB	0bH
	DB	0bH
	DB	0bH
	DB	017H
	DB	04H
	DB	04H
	DB	04H
	DB	018H
	DB	04aH
	DB	049H
	DB	049H
	DB	01H
	DB	01H
	DB	01H
	DB	01H
	DB	01H
	DB	01H
	DB	02H
	DB	010H
	DB	02H
	DB	03bH
	DB	03bH
	DB	03bH
	DB	03bH
	DB	03H
	DB	03bH
	DB	03H
	DB	03H
	DB	03H
	DB	08H
	DB	03H
	DB	03H
	DB	03H
	DB	03H
	DB	03bH
	DB	037H
	DB	037H
	DB	037H
	DB	037H
	DB	037H
	DB	08fH
	DB	03fH
	DB	053H
	DB	053H
	DB	08eH
	DB	083H
	DB	038H
	DB	092H
	DB	055H
	DB	080H
	DB	04eH
	DB	055H
	DB	055H
	DB	030H
	DB	029H
	DB	0dH
	DB	019H
	DB	0dH
	DB	09H
	DB	033H
	DB	020H
	DB	0ffH
	DB	0ffH
	DB	04H
	DB	0f3H
	DB	01H
	DB	090H
	DB	090H
	DB	090H
	DB	090H
	DB	090H
	DB	090H
	DB	090H
	DB	090H
	DB	090H
	DB	090H
	DB	090H
	DB	090H
	DB	090H
	DB	090H
	DB	0bH
	DB	017H
	DB	04H
	DB	0ffH
	DB	0ffH
	DB	018H
	DB	07H
	DB	02eH
	DB	0cH
	DB	01H
	DB	01H
	DB	01H
	DB	01H
	DB	01H
	DB	01H
	DB	02H
	DB	02H
	DB	010H
	DB	010H
	DB	03bH
	DB	03bH
	DB	02H
	DB	02H
	DB	03bH
	DB	03bH
	DB	03bH
	DB	03H
	DB	03H
	DB	03H
	DB	03H
	DB	08H
	DB	08H
	DB	03H
	DB	03H
	DB	03H
	DB	02H
	DB	03bH
	DB	03bH
	DB	03bH
	DB	037H
	DB	010H
	DB	08eH
	DB	03fH
	DB	053H
	DB	03fH
	DB	08eH
	DB	0a2H
	DB	038H
	DB	05eH
	DB	04eH
	DB	080H
	DB	036H
	DB	036H
	DB	036H
	DB	0a1H
	DB	047H
	DB	0eH
	DB	033H
	DB	0f8H
	DB	018H
	DB	018H
	DB	0ffH
	DB	017H
	DB	01H
	DB	07bH
	DB	07bH
	DB	07bH
	DB	07bH
	DB	07bH
	DB	07bH
	DB	07bH
	DB	07bH
	DB	07bH
	DB	07bH
	DB	07bH
	DB	07bH
	DB	07bH
	DB	068H
	DB	0cH
	DB	017H
	DB	0ffH
	DB	018H
	DB	018H
	DB	014H
	DB	02bH
	DB	022H
	DB	02eH
	DB	01H
	DB	01H
	DB	01H
	DB	01H
	DB	01H
	DB	01H
	DB	02H
	DB	02H
	DB	02H
	DB	010H
	DB	02H
	DB	02H
	DB	02H
	DB	02H
	DB	02H
	DB	02H
	DB	02H
	DB	02H
	DB	03H
	DB	03H
	DB	03H
	DB	03H
	DB	03H
	DB	03H
	DB	03H
	DB	03H
	DB	03H
	DB	02H
	DB	02H
	DB	02H
	DB	02H
	DB	02H
	DB	02H
	DB	03bH
	DB	037H
	DB	010H
	DB	03dH
	DB	03fH
	DB	03fH
	DB	08fH
	DB	048H
	DB	048H
	DB	038H
	DB	047H
	DB	092H
	DB	04eH
	DB	094H
	DB	036H
	DB	0cH
	DB	0f3H
	DB	018H
	DB	0fdH
	DB	018H
	DB	020H
	DB	0bH
	DB	01H
	DB	01H
	DB	01H
	DB	01H
	DB	01H
	DB	01H
	DB	01H
	DB	01H
	DB	01H
	DB	01H
	DB	01H
	DB	01H
	DB	01H
	DB	01H
	DB	07H
	DB	0fbH
	DB	018H
	DB	018H
	DB	018H
	DB	020H
	DB	033H
	DB	022H
	DB	022H
	DB	01H
	DB	01H
	DB	01H
	DB	01H
	DB	01H
	DB	01H
	DB	02H
	DB	02H
	DB	02H
	DB	010H
	DB	010H
	DB	02H
	DB	02H
	DB	02H
	DB	02H
	DB	02H
	DB	02H
	DB	02H
	DB	03H
	DB	02H
	DB	02H
	DB	03H
	DB	03H
	DB	03H
	DB	03H
	DB	08H
	DB	03H
	DB	03H
	DB	03H
	DB	03H
	DB	02H
	DB	02H
	DB	02H
	DB	03bH
	DB	03bH
	DB	03bH
	DB	02H
	DB	02H
	DB	010H
	DB	03dH
	DB	03fH
	DB	03fH
	DB	03dH
	DB	010H
	DB	048H
	DB	095H
	DB	030H
	DB	030H
	DB	0bH
	DB	015H
	DB	018H
	DB	0fdH
	DB	018H
	DB	018H
	DB	0eH
	DB	01H
	DB	01H
	DB	01H
	DB	01H
	DB	01H
	DB	01H
	DB	01H
	DB	01H
	DB	01H
	DB	01H
	DB	01H
	DB	01H
	DB	01H
	DB	068H
	DB	015H
	DB	018H
	DB	0fdH
	DB	0fdH
	DB	018H
	DB	0f3H
	DB	068H
	DB	022H
	DB	068H
	DB	01H
	DB	01H
	DB	01H
	DB	01H
	DB	01H
	DB	01H
	DB	02H
	DB	03H
	DB	02H
	DB	02H
	DB	02H
	DB	02H
	DB	010H
	DB	02H
	DB	02H
	DB	02H
	DB	02H
	DB	03H
	DB	02H
	DB	02H
	DB	02H
	DB	02H
	DB	03H
	DB	03H
	DB	03H
	DB	08H
	DB	03H
	DB	03H
	DB	03H
	DB	08H
	DB	08H
	DB	03H
	DB	03H
	DB	02H
	DB	03H
	DB	02H
	DB	02H
	DB	03bH
	DB	03H
	DB	048H
	DB	037H
	DB	03bH
	DB	03dH
	DB	03fH
	DB	053H
	DB	053H
	DB	08eH
	DB	048H
	DB	03aH
	DB	07H
	DB	0fdH
	DB	0fdH
	DB	0fdH
	DB	018H
	DB	017H
	DB	068H
	DB	01H
	DB	01H
	DB	01H
	DB	01H
	DB	01H
	DB	01H
	DB	01H
	DB	01H
	DB	01H
	DB	01H
	DB	01H
	DB	01H
	DB	07H
	DB	020H
	DB	018H
	DB	0fdH
	DB	014H
	DB	018H
	DB	015H
	DB	01H
	DB	022H
	DB	022H
	DB	01H
	DB	01H
	DB	01H
	DB	01H
	DB	01H
	DB	01H
	DB	02H
	DB	03H
	DB	02H
	DB	02H
	DB	02H
	DB	03H
	DB	010H
	DB	010H
	DB	02H
	DB	010H
	DB	02H
	DB	02H
	DB	010H
	DB	02H
	DB	02H
	DB	02H
	DB	02H
	DB	03H
	DB	03H
	DB	03H
	DB	03H
	DB	03H
	DB	03H
	DB	08H
	DB	08H
	DB	08H
	DB	03H
	DB	03H
	DB	03H
	DB	02H
	DB	03H
	DB	03bH
	DB	03bH
	DB	03bH
	DB	03bH
	DB	037H
	DB	03bH
	DB	010H
	DB	02H
	DB	03dH
	DB	03fH
	DB	03dH
	DB	03H
	DB	024H
	DB	0f3H
	DB	018H
	DB	014H
	DB	0fdH
	DB	018H
	DB	0bfH
	DB	068H
	DB	01H
	DB	01H
	DB	01H
	DB	01H
	DB	01H
	DB	01H
	DB	01H
	DB	01H
	DB	01H
	DB	01H
	DB	0cH
	DB	0f3H
	DB	0fdH
	DB	0fdH
	DB	014H
	DB	0fdH
	DB	020H
	DB	049H
	DB	022H
	DB	06H
	DB	03eH
	DB	01H
	DB	01H
	DB	01H
	DB	01H
	DB	01H
	DB	01H
	DB	02H
	DB	02H
	DB	03H
	DB	02H
	DB	010H
	DB	010H
	DB	02H
	DB	02H
	DB	010H
	DB	010H
	DB	02H
	DB	010H
	DB	010H
	DB	02H
	DB	02H
	DB	02H
	DB	02H
	DB	02H
	DB	02H
	DB	02H
	DB	03H
	DB	02H
	DB	08H
	DB	03H
	DB	03H
	DB	08H
	DB	08H
	DB	08H
	DB	08H
	DB	08H
	DB	08H
	DB	03H
	DB	03H
	DB	03H
	DB	03bH
	DB	03bH
	DB	03bH
	DB	02H
	DB	03bH
	DB	03bH
	DB	02H
	DB	02H
	DB	010H
	DB	02aH
	DB	07H
	DB	0fdH
	DB	014H
	DB	014H
	DB	0fdH
	DB	0fdH
	DB	0dfH
	DB	0bH
	DB	01H
	DB	01H
	DB	01H
	DB	01H
	DB	01H
	DB	01H
	DB	01H
	DB	01H
	DB	01aH
	DB	0f3H
	DB	0fdH
	DB	0fdH
	DB	014H
	DB	014H
	DB	018H
	DB	015H
	DB	01H
	DB	06H
	DB	05aH
	DB	03eH
	DB	01H
	DB	01H
	DB	01H
	DB	01H
	DB	01H
	DB	01H
	DB	03H
	DB	02H
	DB	02H
	DB	02H
	DB	02H
	DB	010H
	DB	02H
	DB	010H
	DB	02H
	DB	02H
	DB	010H
	DB	02H
	DB	02H
	DB	02H
	DB	02H
	DB	02H
	DB	02H
	DB	02H
	DB	02H
	DB	02H
	DB	03H
	DB	03H
	DB	03H
	DB	02H
	DB	03H
	DB	08H
	DB	03H
	DB	03H
	DB	08H
	DB	08H
	DB	08H
	DB	08H
	DB	08H
	DB	03H
	DB	03H
	DB	03H
	DB	03H
	DB	02H
	DB	02H
	DB	03bH
	DB	010H
	DB	02H
	DB	0beH
	DB	01eH
	DB	049H
	DB	0bfH
	DB	0ffH
	DB	0fbH
	DB	014H
	DB	0fdH
	DB	0fdH
	DB	017H
	DB	095H
	DB	0cH
	DB	090H
	DB	07bH
	DB	07bH
	DB	0bH
	DB	07H
	DB	015H
	DB	0f8H
	DB	0fdH
	DB	014H
	DB	014H
	DB	0fbH
	DB	018H
	DB	017H
	DB	0bH
	DB	03eH
	DB	05aH
	DB	05aH
	DB	03eH
	DB	01H
	DB	01H
	DB	01H
	DB	01H
	DB	01H
	DB	01H
	DB	08H
	DB	02H
	DB	02H
	DB	03H
	DB	02H
	DB	02H
	DB	02H
	DB	02H
	DB	02H
	DB	02H
	DB	010H
	DB	03bH
	DB	03bH
	DB	03bH
	DB	03bH
	DB	03bH
	DB	02H
	DB	03H
	DB	02H
	DB	03H
	DB	03H
	DB	02H
	DB	02H
	DB	03H
	DB	03H
	DB	03H
	DB	08H
	DB	03H
	DB	08H
	DB	08H
	DB	08H
	DB	08H
	DB	08H
	DB	08H
	DB	08H
	DB	03H
	DB	08H
	DB	03H
	DB	03H
	DB	03H
	DB	03H
	DB	02H
	DB	03H
	DB	0beH
	DB	021H
	DB	049H
	DB	017H
	DB	0ffH
	DB	020H
	DB	0fbH
	DB	014H
	DB	0fdH
	DB	014H
	DB	020H
	DB	0f3H
	DB	025H
	DB	025H
	DB	017H
	DB	020H
	DB	014H
	DB	0fdH
	DB	014H
	DB	014H
	DB	020H
	DB	018H
	DB	0fbH
	DB	024H
	DB	022H
	DB	044H
	DB	04dH
	DB	06H
	DB	06H
	DB	01H
	DB	01H
	DB	01H
	DB	01H
	DB	01H
	DB	01H
	DB	08H
	DB	08H
	DB	03H
	DB	02H
	DB	02H
	DB	03H
	DB	02H
	DB	010H
	DB	02H
	DB	02H
	DB	010H
	DB	010H
	DB	010H
	DB	02H
	DB	010H
	DB	010H
	DB	02H
	DB	02H
	DB	03H
	DB	02H
	DB	02H
	DB	02H
	DB	02H
	DB	02H
	DB	03H
	DB	08H
	DB	03H
	DB	03H
	DB	08H
	DB	08H
	DB	08H
	DB	03H
	DB	08H
	DB	08H
	DB	03H
	DB	08H
	DB	08H
	DB	08H
	DB	03H
	DB	03H
	DB	03H
	DB	03H
	DB	03H
	DB	03H
	DB	01eH
	DB	034H
	DB	0bH
	DB	017H
	DB	0ffH
	DB	0fbH
	DB	020H
	DB	0fbH
	DB	014H
	DB	0fdH
	DB	0fdH
	DB	0fdH
	DB	0fdH
	DB	0fdH
	DB	0fdH
	DB	014H
	DB	014H
	DB	0fbH
	DB	020H
	DB	018H
	DB	0fbH
	DB	07H
	DB	07bH
	DB	031H
	DB	031H
	DB	046H
	DB	047H
	DB	029H
	DB	01H
	DB	01H
	DB	01H
	DB	01H
	DB	01H
	DB	01H
	DB	08H
	DB	08H
	DB	03H
	DB	02H
	DB	010H
	DB	02H
	DB	02H
	DB	010H
	DB	02H
	DB	02H
	DB	010H
	DB	010H
	DB	010H
	DB	010H
	DB	02H
	DB	010H
	DB	010H
	DB	010H
	DB	02H
	DB	010H
	DB	02H
	DB	03H
	DB	02H
	DB	02H
	DB	02H
	DB	03H
	DB	03H
	DB	03H
	DB	03H
	DB	03H
	DB	08H
	DB	08H
	DB	08H
	DB	08H
	DB	08H
	DB	08H
	DB	03H
	DB	08H
	DB	08H
	DB	08H
	DB	03H
	DB	03H
	DB	02H
	DB	03H
	DB	01eH
	DB	032H
	DB	02cH
	DB	090H
	DB	025H
	DB	018H
	DB	018H
	DB	0fbH
	DB	020H
	DB	0fbH
	DB	0fbH
	DB	0fbH
	DB	0fbH
	DB	0fbH
	DB	0fbH
	DB	020H
	DB	020H
	DB	0fdH
	DB	0ffH
	DB	017H
	DB	02bH
	DB	07bH
	DB	06H
	DB	06H
	DB	031H
	DB	026H
	DB	038H
	DB	029H
	DB	01H
	DB	01H
	DB	01H
	DB	01H
	DB	01H
	DB	01H
	DB	08H
	DB	02H
	DB	08H
	DB	03H
	DB	02H
	DB	08H
	DB	03H
	DB	02H
	DB	010H
	DB	02H
	DB	02H
	DB	02H
	DB	02H
	DB	010H
	DB	02H
	DB	02H
	DB	010H
	DB	010H
	DB	02H
	DB	03H
	DB	02H
	DB	02H
	DB	02H
	DB	02H
	DB	02H
	DB	02H
	DB	02H
	DB	03H
	DB	03H
	DB	08H
	DB	08H
	DB	08H
	DB	03H
	DB	08H
	DB	08H
	DB	03H
	DB	08H
	DB	08H
	DB	08H
	DB	08H
	DB	08H
	DB	08H
	DB	08H
	DB	08H
	DB	08H
	DB	032H
	DB	028H
	DB	027H
	DB	0bH
	DB	026H
	DB	017H
	DB	018H
	DB	018H
	DB	014H
	DB	0fbH
	DB	0fbH
	DB	0fbH
	DB	0fbH
	DB	014H
	DB	018H
	DB	018H
	DB	020H
	DB	015H
	DB	068H
	DB	0bH
	DB	034H
	DB	07dH
	DB	026H
	DB	03aH
	DB	057H
	DB	057H
	DB	0eH
	DB	01H
	DB	01H
	DB	01H
	DB	01H
	DB	01H
	DB	01H
	DB	032H
	DB	08H
	DB	03H
	DB	02H
	DB	02H
	DB	03H
	DB	02H
	DB	03H
	DB	03H
	DB	02H
	DB	010H
	DB	02H
	DB	02H
	DB	010H
	DB	02H
	DB	02H
	DB	02H
	DB	02H
	DB	010H
	DB	03H
	DB	02H
	DB	02H
	DB	02H
	DB	02H
	DB	02H
	DB	03H
	DB	02H
	DB	03H
	DB	08H
	DB	08H
	DB	03H
	DB	03H
	DB	03H
	DB	08H
	DB	08H
	DB	08H
	DB	03H
	DB	08H
	DB	08H
	DB	01eH
	DB	08H
	DB	03H
	DB	08H
	DB	01eH
	DB	0beH
	DB	08H
	DB	01eH
	DB	032H
	DB	02aH
	DB	024H
	DB	033H
	DB	0eH
	DB	0bfH
	DB	0f8H
	DB	0fbH
	DB	0fbH
	DB	0fbH
	DB	0fbH
	DB	020H
	DB	025H
	DB	023H
	DB	033H
	DB	01H
	DB	059H
	DB	028H
	DB	032H
	DB	01eH
	DB	048H
	DB	0beH
	DB	0beH
	DB	048H
	DB	03aH
	DB	01H
	DB	01H
	DB	01H
	DB	01H
	DB	01H
	DB	01H
	DB	08H
	DB	03H
	DB	03H
	DB	03H
	DB	03H
	DB	02H
	DB	010H
	DB	02H
	DB	03H
	DB	02H
	DB	02H
	DB	02H
	DB	02H
	DB	010H
	DB	02H
	DB	02H
	DB	010H
	DB	010H
	DB	010H
	DB	010H
	DB	02H
	DB	03H
	DB	02H
	DB	02H
	DB	02H
	DB	02H
	DB	02H
	DB	03H
	DB	08H
	DB	03bH
	DB	03bH
	DB	03H
	DB	03H
	DB	08H
	DB	03H
	DB	08H
	DB	08H
	DB	03H
	DB	08H
	DB	08H
	DB	08H
	DB	08H
	DB	08H
	DB	08H
	DB	08H
	DB	01eH
	DB	01eH
	DB	01eH
	DB	032H
	DB	040H
	DB	027H
	DB	024H
	DB	090H
	DB	033H
	DB	049H
	DB	0cH
	DB	0cH
	DB	049H
	DB	033H
	DB	090H
	DB	090H
	DB	02cH
	DB	034H
	DB	05fH
	DB	028H
	DB	08H
	DB	03dH
	DB	053H
	DB	03dH
	DB	02H
	DB	03bH
	DB	02dH
	DB	01H
	DB	01H
	DB	01H
	DB	01H
	DB	01H
	DB	01H
	DB	03H
	DB	02H
	DB	03H
	DB	02H
	DB	02H
	DB	02H
	DB	03H
	DB	02H
	DB	010H
	DB	010H
	DB	02H
	DB	02H
	DB	02H
	DB	02H
	DB	03H
	DB	02H
	DB	010H
	DB	010H
	DB	010H
	DB	010H
	DB	010H
	DB	010H
	DB	02H
	DB	02H
	DB	010H
	DB	02H
	DB	03H
	DB	02H
	DB	02H
	DB	03H
	DB	03H
	DB	08H
	DB	03bH
	DB	02H
	DB	08H
	DB	08H
	DB	08H
	DB	03H
	DB	08H
	DB	03H
	DB	08H
	DB	08H
	DB	08H
	DB	08H
	DB	03H
	DB	03H
	DB	08H
	DB	08H
	DB	01eH
	DB	032H
	DB	021H
	DB	05fH
	DB	02aH
	DB	034H
	DB	0b3H
	DB	02cH
	DB	02cH
	DB	0b3H
	DB	027H
	DB	034H
	DB	02aH
	DB	05fH
	DB	021H
	DB	028H
	DB	0beH
	DB	0beH
	DB	03H
	DB	010H
	DB	03dH
	DB	03dH
	DB	053H
	DB	0bdH
	DB	01H
	DB	01H
	DB	01H
	DB	01H
	DB	01H
	DB	01H
	DB	02H
	DB	03H
	DB	08H
	DB	03H
	DB	03H
	DB	010H
	DB	02H
	DB	03H
	DB	02H
	DB	010H
	DB	02H
	DB	010H
	DB	02H
	DB	02H
	DB	02H
	DB	02H
	DB	02H
	DB	010H
	DB	02H
	DB	02H
	DB	02H
	DB	010H
	DB	010H
	DB	02H
	DB	010H
	DB	010H
	DB	08H
	DB	02H
	DB	02H
	DB	03H
	DB	03H
	DB	03bH
	DB	08H
	DB	010H
	DB	02H
	DB	03H
	DB	03H
	DB	03H
	DB	03H
	DB	08H
	DB	08H
	DB	03H
	DB	08H
	DB	032H
	DB	021H
	DB	021H
	DB	021H
	DB	021H
	DB	028H
	DB	01eH
	DB	01eH
	DB	032H
	DB	021H
	DB	045H
	DB	045H
	DB	027H
	DB	027H
	DB	027H
	DB	027H
	DB	05fH
	DB	028H
	DB	028H
	DB	01eH
	DB	0beH
	DB	028H
	DB	028H
	DB	028H
	DB	05fH
	DB	01eH
	DB	03H
	DB	02H
	DB	032H
	DB	01H
	DB	01H
	DB	01H
	DB	01H
	DB	01H
	DB	01H
	DB	03H
	DB	03H
	DB	08H
	DB	08H
	DB	02H
	DB	02H
	DB	02H
	DB	03H
	DB	02H
	DB	02H
	DB	02H
	DB	02H
	DB	02H
	DB	010H
	DB	010H
	DB	02H
	DB	02H
	DB	010H
	DB	03H
	DB	02H
	DB	02H
	DB	010H
	DB	02H
	DB	02H
	DB	02H
	DB	02H
	DB	02H
	DB	02H
	DB	08H
	DB	03H
	DB	03bH
	DB	03bH
	DB	03H
	DB	02H
	DB	010H
	DB	02H
	DB	03H
	DB	03H
	DB	03H
	DB	08H
	DB	03H
	DB	03H
	DB	032H
	DB	09H
	DB	015H
	DB	015H
	DB	015H
	DB	015H
	DB	023H
	DB	09H
	DB	021H
	DB	03H
	DB	027H
	DB	023H
	DB	015H
	DB	057H
	DB	015H
	DB	015H
	DB	057H
	DB	04aH
	DB	01eH
	DB	0beH
	DB	032H
	DB	02cH
	DB	02dH
	DB	015H
	DB	015H
	DB	023H
	DB	027H
	DB	03H
	DB	0beH
	DB	05fH
	DB	01H
	DB	01H
	DB	01H
	DB	01H
	DB	01H
	DB	01H
	DB	02H
	DB	03H
	DB	03H
	DB	03H
	DB	08H
	DB	03H
	DB	08H
	DB	02H
	DB	03H
	DB	02H
	DB	02H
	DB	03H
	DB	02H
	DB	02H
	DB	02H
	DB	02H
	DB	02H
	DB	02H
	DB	02H
	DB	02H
	DB	02H
	DB	010H
	DB	02H
	DB	010H
	DB	02H
	DB	02H
	DB	02H
	DB	02H
	DB	02H
	DB	03H
	DB	08H
	DB	03H
	DB	08H
	DB	03H
	DB	03H
	DB	02H
	DB	08H
	DB	03H
	DB	03H
	DB	02H
	DB	03H
	DB	08H
	DB	040H
	DB	015H
	DB	04H
	DB	04H
	DB	04H
	DB	04H
	DB	04H
	DB	020H
	DB	09H
	DB	08H
	DB	02cH
	DB	0fbH
	DB	04H
	DB	04H
	DB	04H
	DB	04H
	DB	04H
	DB	04cH
	DB	08H
	DB	021H
	DB	0dH
	DB	0f8H
	DB	04H
	DB	04H
	DB	04H
	DB	04H
	DB	0dH
	DB	0beH
	DB	0beH
	DB	05fH
	DB	01H
	DB	01H
	DB	01H
	DB	01H
	DB	01H
	DB	01H
	DB	08H
	DB	03H
	DB	03H
	DB	08H
	DB	03H
	DB	08H
	DB	08H
	DB	08H
	DB	08H
	DB	03H
	DB	02H
	DB	02H
	DB	03H
	DB	02H
	DB	03H
	DB	02H
	DB	010H
	DB	010H
	DB	02H
	DB	08H
	DB	03H
	DB	02H
	DB	02H
	DB	02H
	DB	010H
	DB	010H
	DB	010H
	DB	02H
	DB	03H
	DB	03H
	DB	03H
	DB	010H
	DB	03H
	DB	03H
	DB	02H
	DB	02H
	DB	02H
	DB	03H
	DB	03H
	DB	08H
	DB	08H
	DB	03H
	DB	021H
	DB	015H
	DB	04H
	DB	020H
	DB	049H
	DB	095H
	DB	0ffH
	DB	04H
	DB	025H
	DB	045H
	DB	027H
	DB	014H
	DB	04H
	DB	095H
	DB	0dH
	DB	0eH
	DB	0dH
	DB	024H
	DB	032H
	DB	09H
	DB	0fbH
	DB	04H
	DB	0ffH
	DB	0dfH
	DB	023H
	DB	015H
	DB	024H
	DB	01eH
	DB	03H
	DB	021H
	DB	01H
	DB	01H
	DB	01H
	DB	01H
	DB	01H
	DB	01H
	DB	08H
	DB	08H
	DB	02H
	DB	03H
	DB	03H
	DB	08H
	DB	03H
	DB	03H
	DB	03H
	DB	03H
	DB	02H
	DB	03H
	DB	08H
	DB	010H
	DB	010H
	DB	02H
	DB	03H
	DB	010H
	DB	02H
	DB	02H
	DB	02H
	DB	03H
	DB	02H
	DB	010H
	DB	010H
	DB	02H
	DB	02H
	DB	03H
	DB	03H
	DB	02H
	DB	010H
	DB	02H
	DB	03bH
	DB	03H
	DB	02H
	DB	03H
	DB	03H
	DB	02H
	DB	03H
	DB	02H
	DB	08H
	DB	02H
	DB	028H
	DB	015H
	DB	04H
	DB	0f8H
	DB	049H
	DB	049H
	DB	017H
	DB	04H
	DB	020H
	DB	027H
	DB	0b3H
	DB	014H
	DB	0ffH
	DB	0cH
	DB	0b2H
	DB	045H
	DB	027H
	DB	040H
	DB	0b4H
	DB	0dfH
	DB	04H
	DB	04H
	DB	026H
	DB	07aH
	DB	03cH
	DB	03cH
	DB	02aH
	DB	01eH
	DB	02H
	DB	05fH
	DB	01H
	DB	01H
	DB	01H
	DB	01H
	DB	01H
	DB	01H
	DB	08H
	DB	03H
	DB	03H
	DB	02H
	DB	03H
	DB	08H
	DB	02H
	DB	03H
	DB	08H
	DB	03H
	DB	02H
	DB	02H
	DB	02H
	DB	01eH
	DB	02H
	DB	02H
	DB	02H
	DB	02H
	DB	02H
	DB	02H
	DB	02H
	DB	03H
	DB	02H
	DB	02H
	DB	02H
	DB	02H
	DB	010H
	DB	03H
	DB	02H
	DB	02H
	DB	03H
	DB	03H
	DB	03H
	DB	03H
	DB	03H
	DB	010H
	DB	02H
	DB	02H
	DB	02H
	DB	03H
	DB	08H
	DB	02H
	DB	021H
	DB	015H
	DB	04H
	DB	017H
	DB	03cH
	DB	0b3H
	DB	017H
	DB	04H
	DB	020H
	DB	02cH
	DB	02cH
	DB	014H
	DB	0ffH
	DB	049H
	DB	0b2H
	DB	0b4H
	DB	040H
	DB	01eH
	DB	02cH
	DB	020H
	DB	04H
	DB	017H
	DB	0bH
	DB	021H
	DB	01eH
	DB	08H
	DB	01eH
	DB	08H
	DB	01eH
	DB	02aH
	DB	01H
	DB	01H
	DB	01H
	DB	01H
	DB	01H
	DB	01H
	DB	02H
	DB	03H
	DB	08H
	DB	03H
	DB	03H
	DB	08H
	DB	02H
	DB	03H
	DB	08H
	DB	03H
	DB	02H
	DB	02H
	DB	010H
	DB	03H
	DB	02H
	DB	02H
	DB	02H
	DB	02H
	DB	08H
	DB	03H
	DB	010H
	DB	03H
	DB	010H
	DB	02H
	DB	02H
	DB	02H
	DB	02H
	DB	03H
	DB	02H
	DB	02H
	DB	03H
	DB	03H
	DB	08H
	DB	010H
	DB	03H
	DB	03H
	DB	02H
	DB	03H
	DB	03H
	DB	03H
	DB	02H
	DB	02H
	DB	040H
	DB	015H
	DB	04H
	DB	020H
	DB	033H
	DB	0bfH
	DB	04H
	DB	04H
	DB	025H
	DB	02cH
	DB	0b3H
	DB	0fbH
	DB	04H
	DB	017H
	DB	017H
	DB	017H
	DB	023H
	DB	040H
	DB	09H
	DB	0ffH
	DB	04H
	DB	0bfH
	DB	03cH
	DB	01eH
	DB	032H
	DB	01eH
	DB	08H
	DB	01eH
	DB	03H
	DB	02aH
	DB	01H
	DB	01H
	DB	01H
	DB	01H
	DB	01H
	DB	01H
	DB	03H
	DB	08H
	DB	08H
	DB	03H
	DB	02H
	DB	08H
	DB	08H
	DB	03H
	DB	02H
	DB	08H
	DB	02H
	DB	02H
	DB	02H
	DB	010H
	DB	010H
	DB	010H
	DB	02H
	DB	08H
	DB	03H
	DB	010H
	DB	010H
	DB	02H
	DB	02H
	DB	02H
	DB	02H
	DB	03H
	DB	03H
	DB	02H
	DB	010H
	DB	010H
	DB	02H
	DB	08H
	DB	02H
	DB	03H
	DB	03H
	DB	03H
	DB	03H
	DB	08H
	DB	03H
	DB	02H
	DB	02H
	DB	02H
	DB	021H
	DB	015H
	DB	04H
	DB	04H
	DB	04H
	DB	04H
	DB	04H
	DB	017H
	DB	033H
	DB	021H
	DB	02cH
	DB	0fbH
	DB	04H
	DB	04H
	DB	0ffH
	DB	04H
	DB	0bfH
	DB	0b4H
	DB	04cH
	DB	04H
	DB	04H
	DB	015H
	DB	0b3H
	DB	01eH
	DB	01eH
	DB	01eH
	DB	032H
	DB	01eH
	DB	08H
	DB	02aH
	DB	01H
	DB	01H
	DB	01H
	DB	01H
	DB	01H
	DB	01H
	DB	08H
	DB	03H
	DB	08H
	DB	02H
	DB	02H
	DB	02H
	DB	03H
	DB	08H
	DB	02H
	DB	08H
	DB	02H
	DB	02H
	DB	02H
	DB	010H
	DB	02H
	DB	02H
	DB	010H
	DB	02H
	DB	08H
	DB	010H
	DB	02H
	DB	010H
	DB	02H
	DB	08H
	DB	02H
	DB	02H
	DB	02H
	DB	010H
	DB	02H
	DB	02H
	DB	02H
	DB	02H
	DB	03bH
	DB	010H
	DB	010H
	DB	03H
	DB	02H
	DB	02H
	DB	03H
	DB	02H
	DB	03H
	DB	02H
	DB	021H
	DB	015H
	DB	04H
	DB	020H
	DB	038H
	DB	04H
	DB	04H
	DB	015H
	DB	03cH
	DB	03H
	DB	0b3H
	DB	014H
	DB	04H
	DB	0dH
	DB	049H
	DB	0cH
	DB	049H
	DB	021H
	DB	09H
	DB	0ffH
	DB	04H
	DB	0bfH
	DB	0b3H
	DB	08H
	DB	08H
	DB	032H
	DB	032H
	DB	01eH
	DB	08H
	DB	02aH
	DB	01H
	DB	01H
	DB	01H
	DB	01H
	DB	01H
	DB	01H
	DB	03H
	DB	02H
	DB	03H
	DB	03H
	DB	02H
	DB	08H
	DB	08H
	DB	01eH
	DB	03H
	DB	03H
	DB	08H
	DB	03H
	DB	02H
	DB	03H
	DB	03H
	DB	08H
	DB	02H
	DB	08H
	DB	03H
	DB	03H
	DB	03H
	DB	03H
	DB	03H
	DB	03H
	DB	010H
	DB	03H
	DB	03H
	DB	03H
	DB	02H
	DB	03H
	DB	010H
	DB	010H
	DB	010H
	DB	02H
	DB	02H
	DB	03H
	DB	08H
	DB	08H
	DB	08H
	DB	02H
	DB	02H
	DB	02H
	DB	028H
	DB	015H
	DB	04H
	DB	0f8H
	DB	01H
	DB	020H
	DB	04H
	DB	020H
	DB	02cH
	DB	02H
	DB	02cH
	DB	014H
	DB	0ffH
	DB	04aH
	DB	045H
	DB	040H
	DB	040H
	DB	08H
	DB	09H
	DB	0f8H
	DB	04H
	DB	017H
	DB	03cH
	DB	08H
	DB	01eH
	DB	08H
	DB	08H
	DB	032H
	DB	08H
	DB	045H
	DB	01H
	DB	01H
	DB	01H
	DB	01H
	DB	01H
	DB	01H
	DB	02H
	DB	02H
	DB	02H
	DB	08H
	DB	03H
	DB	03H
	DB	08H
	DB	08H
	DB	03H
	DB	03H
	DB	08H
	DB	02H
	DB	02H
	DB	02H
	DB	02H
	DB	02H
	DB	02H
	DB	02H
	DB	010H
	DB	010H
	DB	02H
	DB	03H
	DB	02H
	DB	02H
	DB	03H
	DB	010H
	DB	010H
	DB	03H
	DB	02H
	DB	010H
	DB	02H
	DB	010H
	DB	010H
	DB	03bH
	DB	02H
	DB	08H
	DB	03H
	DB	02H
	DB	08H
	DB	03H
	DB	03H
	DB	03H
	DB	021H
	DB	015H
	DB	04H
	DB	0f8H
	DB	07aH
	DB	015H
	DB	04H
	DB	04H
	DB	095H
	DB	021H
	DB	0b3H
	DB	014H
	DB	0ffH
	DB	024H
	DB	0b3H
	DB	045H
	DB	027H
	DB	08H
	DB	040H
	DB	015H
	DB	04H
	DB	04H
	DB	015H
	DB	03cH
	DB	0b3H
	DB	02cH
	DB	045H
	DB	032H
	DB	01eH
	DB	02aH
	DB	01H
	DB	01H
	DB	01H
	DB	01H
	DB	01H
	DB	01H
	DB	02H
	DB	02H
	DB	010H
	DB	08H
	DB	08H
	DB	010H
	DB	010H
	DB	08H
	DB	08H
	DB	03H
	DB	03H
	DB	02H
	DB	08H
	DB	08H
	DB	03H
	DB	02H
	DB	02H
	DB	08H
	DB	010H
	DB	02H
	DB	08H
	DB	02H
	DB	02H
	DB	03H
	DB	03H
	DB	02H
	DB	02H
	DB	08H
	DB	03H
	DB	010H
	DB	02H
	DB	010H
	DB	02H
	DB	02H
	DB	02H
	DB	08H
	DB	02H
	DB	02H
	DB	08H
	DB	02H
	DB	010H
	DB	02H
	DB	032H
	DB	015H
	DB	04H
	DB	0f8H
	DB	024H
	DB	09H
	DB	018H
	DB	04H
	DB	0f8H
	DB	034H
	DB	0b3H
	DB	0fbH
	DB	04H
	DB	0f3H
	DB	0dfH
	DB	025H
	DB	0dfH
	DB	034H
	DB	032H
	DB	024H
	DB	017H
	DB	04H
	DB	04H
	DB	020H
	DB	017H
	DB	020H
	DB	09H
	DB	01eH
	DB	01eH
	DB	045H
	DB	01H
	DB	01H
	DB	01H
	DB	01H
	DB	01H
	DB	01H
	DB	02H
	DB	03H
	DB	02H
	DB	03H
	DB	02H
	DB	08H
	DB	010H
	DB	08H
	DB	08H
	DB	03H
	DB	010H
	DB	03H
	DB	03H
	DB	08H
	DB	08H
	DB	03H
	DB	03H
	DB	010H
	DB	02H
	DB	03H
	DB	03H
	DB	010H
	DB	02H
	DB	02H
	DB	010H
	DB	010H
	DB	02H
	DB	02H
	DB	02H
	DB	010H
	DB	010H
	DB	010H
	DB	02H
	DB	010H
	DB	02H
	DB	03H
	DB	03H
	DB	03H
	DB	03H
	DB	02H
	DB	03H
	DB	03H
	DB	021H
	DB	015H
	DB	04H
	DB	017H
	DB	02cH
	DB	027H
	DB	025H
	DB	0ffH
	DB	018H
	DB	02dH
	DB	03cH
	DB	0f8H
	DB	0ffH
	DB	0ffH
	DB	0ffH
	DB	0ffH
	DB	0ffH
	DB	04cH
	DB	08H
	DB	028H
	DB	024H
	DB	0dfH
	DB	0fdH
	DB	0ffH
	DB	0ffH
	DB	018H
	DB	09H
	DB	01eH
	DB	01eH
	DB	02aH
	DB	01H
	DB	01H
	DB	01H
	DB	01H
	DB	01H
	DB	01H
	DB	010H
	DB	010H
	DB	02H
	DB	02H
	DB	03H
	DB	02H
	DB	02H
	DB	02H
	DB	03H
	DB	03H
	DB	02H
	DB	08H
	DB	08H
	DB	03H
	DB	010H
	DB	010H
	DB	010H
	DB	02H
	DB	02H
	DB	02H
	DB	010H
	DB	03H
	DB	010H
	DB	010H
	DB	02H
	DB	02H
	DB	03dH
	DB	03H
	DB	02H
	DB	010H
	DB	010H
	DB	08H
	DB	010H
	DB	010H
	DB	010H
	DB	02H
	DB	03dH
	DB	010H
	DB	010H
	DB	03H
	DB	03H
	DB	010H
	DB	03H
	DB	027H
	DB	024H
	DB	033H
	DB	02aH
	DB	01eH
	DB	02cH
	DB	024H
	DB	049H
	DB	02cH
	DB	028H
	DB	09H
	DB	049H
	DB	033H
	DB	049H
	DB	049H
	DB	033H
	DB	02cH
	DB	0beH
	DB	03H
	DB	08H
	DB	027H
	DB	049H
	DB	033H
	DB	049H
	DB	033H
	DB	02cH
	DB	01eH
	DB	08H
	DB	0cH
	DB	01H
	DB	01H
	DB	01H
	DB	01H
	DB	01H
	DB	01H
	DB	021H
	DB	021H
	DB	028H
	DB	028H
	DB	028H
	DB	021H
	DB	021H
	DB	028H
	DB	028H
	DB	040H
	DB	040H
	DB	040H
	DB	02aH
	DB	021H
	DB	028H
	DB	021H
	DB	032H
	DB	028H
	DB	040H
	DB	021H
	DB	028H
	DB	021H
	DB	021H
	DB	021H
	DB	021H
	DB	040H
	DB	028H
	DB	028H
	DB	021H
	DB	028H
	DB	021H
	DB	028H
	DB	028H
	DB	028H
	DB	0bdH
	DB	028H
	DB	028H
	DB	028H
	DB	021H
	DB	028H
	DB	028H
	DB	032H
	DB	021H
	DB	032H
	DB	02aH
	DB	034H
	DB	05fH
	DB	028H
	DB	021H
	DB	02aH
	DB	027H
	DB	045H
	DB	028H
	DB	028H
	DB	02aH
	DB	034H
	DB	027H
	DB	02cH
	DB	027H
	DB	034H
	DB	02aH
	DB	05fH
	DB	040H
	DB	021H
	DB	02aH
	DB	0b3H
	DB	027H
	DB	0b3H
	DB	045H
	DB	05fH
	DB	024H
	DB	01H
	DB	01H
	DB	01H
	DB	01H
	DB	01H
	DB	01H
	DB	01H
	DB	01H
	DB	01H
	DB	01H
	DB	01H
	DB	01H
	DB	01H
	DB	01H
	DB	01H
	DB	01H
	DB	01H
	DB	01H
	DB	01H
	DB	01H
	DB	01H
	DB	01H
	DB	01H
	DB	01H
	DB	01H
	DB	01H
	DB	01H
	DB	01H
	DB	01H
	DB	01H
	DB	01H
	DB	01H
	DB	01H
	DB	01H
	DB	01H
	DB	01H
	DB	01H
	DB	01H
	DB	01H
	DB	01H
	DB	01H
	DB	01H
	DB	01H
	DB	01H
	DB	01H
	DB	01H
	DB	01H
	DB	01H
	DB	01H
	DB	01H
	DB	01H
	DB	01H
	DB	01H
	DB	01H
	DB	01H
	DB	01H
	DB	01H
	DB	01H
	DB	01H
	DB	01H
	DB	01H
	DB	01H
	DB	01H
	DB	01H
	DB	01H
	DB	01H
	DB	01H
	DB	01H
	DB	01H
	DB	01H
	DB	01H
	DB	01H
	DB	01H
	DB	01H
	DB	01H
	DB	01H
	DB	01H
	DB	01H
	DB	01H
	DB	01H
	DB	01H
	DB	01H
	DB	01H
	DB	01H
	DB	01H
	DB	01H
	DB	01H
	DB	01H
	DB	01H
	DB	01H
	DB	01H
	DB	01H
	DB	01H
	DB	01H
	DB	01H
	DB	01H
	DB	01H
	DB	01H
	DB	01H
	DB	01H
	DB	01H
	DB	01H
	DB	01H
	DB	01H
	DB	01H
	DB	01H
	DB	01H
	DB	01H
	DB	01H
	DB	01H
	DB	01H
	DB	01H
	DB	01H
	DB	01H
	DB	01H
	DB	01H
	DB	01H
	DB	01H
	DB	01H
	DB	01H
	DB	01H
	DB	01H
	DB	01H
	DB	01H
	DB	01H
	DB	01H
	DB	01H
	DB	01H
	DB	01H
	DB	01H
	DB	01H
	DB	01H
	DB	01H
	DB	01H
	DB	01H
	DB	01H
	DB	01H
	DB	01H
	DB	01H
	DB	01H
	DB	01H
	DB	01H
	DB	01H
	DB	01H
	DB	01H
	DB	01H
	DB	01H
	DB	01H
	DB	01H
	DB	01H
	DB	01H
	DB	01H
	DB	01H
	DB	01H
	DB	01H
	DB	01H
	DB	01H
	DB	01H
	DB	01H
	DB	01H
	DB	01H
	DB	01H
	DB	01H
	DB	01H
	DB	01H
	DB	01H
	DB	01H
	DB	01H
	DB	01H
	DB	01H
	DB	01H
	DB	01H
	DB	01H
	DB	01H
	DB	01H
	DB	01H
	DB	01H
	DB	01H
	DB	01H
	DB	01H
	DB	01H
	DB	01H
	DB	01H
	DB	01H
	DB	01H
	DB	01H
	DB	01H
	DB	01H
	DB	01H
	DB	01H
	DB	01H
	DB	01H
	DB	01H
	DB	01H
	DB	01H
	DB	01H
	DB	01H
	DB	01H
	DB	01H
	DB	01H
	DB	01H
	DB	01H
	DB	01H
	DB	01H
	DB	01H
	DB	01H
	DB	01H
	DB	01H
	DB	01H
	DB	01H
	DB	01H
	DB	01H
	DB	01H
	DB	01H
	DB	01H
	DB	01H
	DB	01H
	DB	01H
	DB	01H
	DB	01H
	DB	01H
	DB	01H
	DB	01H
	DB	01H
	DB	01H
	DB	01H
	DB	01H
	DB	01H
	DB	01H
	DB	01H
	DB	01H
	DB	01H
	DB	01H
	DB	01H
	DB	01H
	DB	01H
	DB	01H
	DB	01H
	DB	01H
	DB	01H
	DB	01H
	DB	01H
	DB	01H
	DB	01H
	DB	01H
	DB	01H
	DB	01H
	DB	01H
	DB	01H
	DB	01H
	DB	01H
	DB	01H
	DB	01H
	DB	01H
	DB	01H
	DB	01H
	DB	01H
	DB	01H
	DB	01H
	DB	01H
	DB	01H
	DB	01H
	DB	01H
	DB	01H
	DB	01H
	DB	01H
	DB	01H
	DB	01H
	DB	01H
	DB	01H
	DB	01H
	DB	01H
	DB	01H
	DB	01H
	DB	01H
	DB	01H
	DB	01H
	DB	01H
	DB	01H
	DB	01H
	DB	01H
	DB	01H
	DB	01H
	DB	01H
	DB	01H
	DB	01H
	DB	01H
	DB	01H
	DB	01H
	DB	01H
	DB	01H
	DB	01H
	DB	01H
	DB	01H
	DB	01H
	DB	01H
	DB	01H
	DB	01H
	DB	01H
	DB	01H
	DB	01H
	DB	01H
	DB	01H
	DB	01H
	DB	01H
	DB	01H
	DB	01H
	DB	01H
	DB	01H
	DB	01H
	DB	01H
	DB	01H
	DB	01H
	DB	01H
	DB	01H
	DB	01H
	DB	01H
	DB	01H
	DB	01H
	DB	01H
	DB	01H
	DB	01H
	DB	01H
	DB	01H
	DB	01H
	DB	01H
	DB	01H
	DB	01H
	DB	01H
	DB	01H
	DB	01H
	DB	01H
	DB	01H
	DB	01H
	DB	01H
	DB	01H
	DB	01H
	DB	01H
	DB	01H
	DB	01H
	DB	01H
	DB	01H
	DB	01H
	DB	01H
	DB	01H
	DB	01H
	DB	01H
	DB	01H
	DB	01H
	DB	01H
	DB	01H
	DB	01H
	DB	01H
	DB	01H
	DB	01H
	DB	01H
	DB	01H
	DB	01H
	DB	01H
	DB	01H
	DB	01H
	DB	01H
	DB	01H
	DB	01H
	DB	01H
	DB	01H
	DB	01H
	DB	01H
	DB	01H
	DB	01H
	DB	01H
	DB	01H
	DB	01H
	DB	01H
	DB	01H
	DB	01H
	DB	01H
	DB	01H
	DB	01H
	DB	01H
	DB	01H
	DB	01H
	DB	01H
	DB	01H
	DB	01H
	DB	01H
	DB	01H
	DB	01H
	DB	01H
	DB	01H
	DB	01H
	DB	01H
	DB	01H
	DB	01H
	DB	01H
	DB	01H
	DB	01H
	DB	01H
	DB	01H
	DB	01H
	DB	01H
	DB	01H
	DB	01H
	DB	01H
	DB	01H
	DB	01H
	DB	01H
	DB	01H
	DB	01H
	DB	01H
	DB	01H
	DB	01H
	DB	01H
	DB	01H
	DB	01H
	DB	01H
	DB	01H
	DB	01H
	DB	01H
	DB	01H
	DB	01H
	DB	01H
	DB	01H
	DB	01H
	DB	01H
	DB	01H
	DB	01H
	DB	01H
	DB	01H
	DB	01H
	DB	01H
	DB	01H
	DB	01H
	DB	01H
	DB	01H
	DB	01H
	DB	01H
	DB	01H
	DB	01H
	DB	01H
	DB	01H
	DB	01H
	DB	01H
	DB	01H
	DB	01H
	DB	01H
	DB	01H
	DB	01H
	DB	01H
	DB	01H
	DB	01H
	DB	01H
	DB	01H
	DB	01H
	DB	01H
	DB	01H
	DB	01H
	DB	01H
	DB	01H
	DB	01H
	DB	01H
	DB	01H
	DB	01H
	DB	01H
	DB	01H
	DB	01H
	DB	01H
	DB	01H
	DB	01H
	DB	01H
	DB	01H
	DB	01H
	DB	01H
	DB	01H
	DB	01H
	DB	01H
	DB	01H
	DB	01H
	DB	01H
	DB	01H
	DB	01H
	DB	01H
	DB	01H
	DB	01H
	DB	01H
	DB	01H
	DB	01H
	DB	01H
	DB	01H
	DB	01H
	DB	01H
	DB	01H
	DB	01H
	DB	01H
	DB	01H
	DB	01H
	DB	01H
	DB	01H
	DB	01H
	DB	01H
	DB	01H
	DB	01H
	DB	01H
	DB	01H
	DB	01H
	DB	01H
	DB	01H
	DB	01H
	DB	01H
	DB	01H
	DB	01H
	DB	01H
	DB	01H
	DB	01H
	DB	01H
	DB	01H
	DB	01H
	DB	01H
	DB	01H
	DB	01H
	DB	01H
	DB	01H
	DB	01H
	DB	01H
	DB	01H
	DB	01H
	DB	01H
	DB	01H
	DB	01H
	DB	01H
	DB	01H
	DB	01H
	DB	01H
	DB	01H
	DB	01H
	DB	01H
	DB	01H
	DB	01H
	DB	01H
	DB	01H
	DB	01H
	DB	01H
	DB	01H
	DB	01H
	DB	01H
	DB	01H
	DB	01H
	DB	01H
	DB	01H
	DB	01H
	DB	01H
	DB	01H
	DB	01H
	DB	01H
	DB	01H
	DB	01H
	DB	01H
	DB	01H
	DB	01H
	DB	01H
	DB	01H
	DB	01H
	DB	01H
	DB	01H
	DB	01H
	DB	01H
	DB	01H
	DB	01H
	DB	01H
	DB	01H
	DB	01H
	DB	01H
	DB	01H
	DB	01H
	DB	01H
	DB	01H
	DB	01H
	DB	01H
	DB	01H
	DB	01H
	DB	01H
	DB	01H
	DB	01H
	DB	01H
	DB	01H
	DB	01H
	DB	01H
	DB	01H
	DB	01H
	DB	01H
	DB	01H
	DB	01H
	DB	01H
	DB	01H
	DB	01H
	DB	01H
	DB	01H
	DB	01H
	DB	01H
	DB	01H
	DB	01H
	DB	01H
	DB	01H
	DB	01H
	DB	01H
	DB	01H
	DB	01H
	DB	01H
	DB	01H
	DB	01H
	DB	01H
	DB	01H
	DB	01H
	DB	01H
	DB	01H
	DB	01H
	DB	01H
	DB	01H
	DB	01H
	DB	01H
	DB	01H
	DB	01H
	DB	01H
	DB	01H
	DB	01H
	DB	01H
	DB	01H
	DB	01H
	DB	01H
	DB	01H
	DB	01H
	DB	01H
	DB	01H
	DB	01H
	DB	01H
	DB	01H
	DB	090H
	DB	024H
	DB	024H
	DB	0cH
	DB	01H
	DB	01H
	DB	01H
	DB	01H
	DB	090H
	DB	07H
	DB	095H
	DB	015H
	DB	095H
	DB	04aH
	DB	07bH
	DB	01H
	DB	01H
	DB	01H
	DB	01H
	DB	01H
	DB	01H
	DB	01H
	DB	01H
	DB	01H
	DB	01H
	DB	01H
	DB	01H
	DB	01H
	DB	01H
	DB	01H
	DB	01H
	DB	01H
	DB	01H
	DB	01H
	DB	01H
	DB	01H
	DB	01H
	DB	01H
	DB	01H
	DB	01H
	DB	01H
	DB	01H
	DB	01H
	DB	01H
	DB	01H
	DB	01H
	DB	01H
	DB	01H
	DB	01H
	DB	01H
	DB	01H
	DB	01H
	DB	01H
	DB	01H
	DB	01H
	DB	01H
	DB	01H
	DB	01H
	DB	01H
	DB	01H
	DB	01H
	DB	01H
	DB	01H
	DB	01H
	DB	01H
	DB	01H
	DB	01H
	DB	01H
	DB	01H
	DB	01H
	DB	01H
	DB	01H
	DB	01H
	DB	01H
	DB	01H
	DB	01H
	DB	01H
	DB	01H
	DB	025H
	DB	04H
	DB	04H
	DB	0dfH
	DB	01H
	DB	01H
	DB	01H
	DB	057H
	DB	014H
	DB	04H
	DB	04H
	DB	04H
	DB	04H
	DB	04H
	DB	020H
	DB	0eH
	DB	01H
	DB	01H
	DB	01H
	DB	01H
	DB	01H
	DB	01H
	DB	01H
	DB	01H
	DB	01H
	DB	01H
	DB	01H
	DB	01H
	DB	01H
	DB	01H
	DB	01H
	DB	01H
	DB	01H
	DB	01H
	DB	01H
	DB	01H
	DB	01H
	DB	01H
	DB	01H
	DB	01H
	DB	01H
	DB	01H
	DB	01H
	DB	01H
	DB	01H
	DB	01H
	DB	01H
	DB	01H
	DB	01H
	DB	01H
	DB	01H
	DB	01H
	DB	01H
	DB	01H
	DB	01H
	DB	01H
	DB	01H
	DB	01H
	DB	01H
	DB	01H
	DB	01H
	DB	01H
	DB	01H
	DB	01H
	DB	01H
	DB	01H
	DB	01H
	DB	01H
	DB	01H
	DB	01H
	DB	01H
	DB	01H
	DB	01H
	DB	01H
	DB	01H
	DB	01H
	DB	01H
	DB	049H
	DB	018H
	DB	04H
	DB	04H
	DB	0cH
	DB	01H
	DB	01H
	DB	025H
	DB	04H
	DB	04H
	DB	04H
	DB	0fdH
	DB	020H
	DB	0ffH
	DB	04H
	DB	04H
	DB	0ffH
	DB	0eH
	DB	01H
	DB	01H
	DB	01H
	DB	01H
	DB	01H
	DB	01H
	DB	01H
	DB	01H
	DB	01H
	DB	01H
	DB	01H
	DB	01H
	DB	01H
	DB	01H
	DB	01H
	DB	01H
	DB	01H
	DB	01H
	DB	01H
	DB	01H
	DB	01H
	DB	01H
	DB	01H
	DB	01H
	DB	01H
	DB	01H
	DB	01H
	DB	01H
	DB	01H
	DB	01H
	DB	01H
	DB	01H
	DB	01H
	DB	01H
	DB	01H
	DB	01H
	DB	01H
	DB	01H
	DB	01H
	DB	01H
	DB	01H
	DB	01H
	DB	01H
	DB	01H
	DB	01H
	DB	01H
	DB	01H
	DB	01H
	DB	01H
	DB	01H
	DB	01H
	DB	01H
	DB	01H
	DB	01H
	DB	01H
	DB	01H
	DB	01H
	DB	01H
	DB	01H
	DB	01H
	DB	015H
	DB	04H
	DB	04H
	DB	017H
	DB	01H
	DB	01H
	DB	023H
	DB	04H
	DB	04H
	DB	04H
	DB	0f3H
	DB	090H
	DB	01H
	DB	04aH
	DB	014H
	DB	04H
	DB	04H
	DB	0fdH
	DB	0bH
	DB	01H
	DB	01H
	DB	01H
	DB	01H
	DB	01H
	DB	01H
	DB	01H
	DB	01H
	DB	01H
	DB	01H
	DB	01H
	DB	01H
	DB	01H
	DB	01H
	DB	01H
	DB	01H
	DB	01H
	DB	01H
	DB	01H
	DB	01H
	DB	01H
	DB	01H
	DB	01H
	DB	01H
	DB	01H
	DB	01H
	DB	01H
	DB	01H
	DB	01H
	DB	01H
	DB	01H
	DB	01H
	DB	01H
	DB	01H
	DB	01H
	DB	01H
	DB	01H
	DB	01H
	DB	01H
	DB	01H
	DB	01H
	DB	01H
	DB	01H
	DB	01H
	DB	01H
	DB	01H
	DB	01H
	DB	01H
	DB	01H
	DB	01H
	DB	01H
	DB	01H
	DB	01H
	DB	01H
	DB	01H
	DB	01H
	DB	01H
	DB	01H
	DB	068H
	DB	020H
	DB	04H
	DB	04H
	DB	0eH
	DB	01H
	DB	068H
	DB	020H
	DB	04H
	DB	04H
	DB	018H
	DB	0bH
	DB	01H
	DB	01H
	DB	01H
	DB	095H
	DB	04H
	DB	04H
	DB	04H
	DB	015H
	DB	01H
	DB	01H
	DB	01H
	DB	01H
	DB	01H
	DB	01H
	DB	01H
	DB	01H
	DB	01H
	DB	01H
	DB	01H
	DB	01H
	DB	01H
	DB	01H
	DB	01H
	DB	01H
	DB	01H
	DB	01H
	DB	01H
	DB	01H
	DB	01H
	DB	01H
	DB	01H
	DB	01H
	DB	01H
	DB	01H
	DB	01H
	DB	01H
	DB	01H
	DB	01H
	DB	01H
	DB	01H
	DB	01H
	DB	01H
	DB	01H
	DB	01H
	DB	01H
	DB	01H
	DB	01H
	DB	01H
	DB	01H
	DB	01H
	DB	01H
	DB	01H
	DB	01H
	DB	01H
	DB	01H
	DB	01H
	DB	01H
	DB	01H
	DB	01H
	DB	01H
	DB	01H
	DB	01H
	DB	01H
	DB	090H
	DB	01H
	DB	01H
	DB	0eH
	DB	04H
	DB	04H
	DB	020H
	DB	01H
	DB	01H
	DB	04aH
	DB	04H
	DB	04H
	DB	04H
	DB	017H
	DB	01H
	DB	01H
	DB	01H
	DB	01H
	DB	0bH
	DB	0ffH
	DB	04H
	DB	04H
	DB	0f3H
	DB	01H
	DB	01H
	DB	01H
	DB	01H
	DB	01H
	DB	01H
	DB	01H
	DB	01H
	DB	01H
	DB	01H
	DB	01H
	DB	01H
	DB	01H
	DB	01H
	DB	01H
	DB	01H
	DB	01H
	DB	01H
	DB	01H
	DB	01H
	DB	01H
	DB	01H
	DB	01H
	DB	01H
	DB	01H
	DB	01H
	DB	01H
	DB	01H
	DB	01H
	DB	01H
	DB	01H
	DB	01H
	DB	01H
	DB	01H
	DB	01H
	DB	01H
	DB	01H
	DB	01H
	DB	01H
	DB	01H
	DB	01H
	DB	01H
	DB	01H
	DB	01H
	DB	01H
	DB	01H
	DB	01H
	DB	01H
	DB	01H
	DB	01H
	DB	01H
	DB	01H
	DB	01H
	DB	01H
	DB	01H
	DB	023H
	DB	01H
	DB	01H
	DB	017H
	DB	04H
	DB	04H
	DB	015H
	DB	01H
	DB	01H
	DB	057H
	DB	04H
	DB	04H
	DB	04H
	DB	017H
	DB	033H
	DB	024H
	DB	024H
	DB	0cH
	DB	07H
	DB	0fdH
	DB	04H
	DB	04H
	DB	020H
	DB	068H
	DB	01H
	DB	01H
	DB	01H
	DB	01H
	DB	01H
	DB	01H
	DB	01H
	DB	01H
	DB	01H
	DB	01H
	DB	01H
	DB	01H
	DB	01H
	DB	01H
	DB	01H
	DB	01H
	DB	01H
	DB	01H
	DB	01H
	DB	01H
	DB	01H
	DB	01H
	DB	01H
	DB	01H
	DB	01H
	DB	01H
	DB	01H
	DB	01H
	DB	01H
	DB	01H
	DB	01H
	DB	01H
	DB	01H
	DB	01H
	DB	01H
	DB	01H
	DB	01H
	DB	01H
	DB	01H
	DB	01H
	DB	01H
	DB	01H
	DB	01H
	DB	01H
	DB	01H
	DB	01H
	DB	01H
	DB	01H
	DB	01H
	DB	01H
	DB	01H
	DB	01H
	DB	01H
	DB	01H
	DB	017H
	DB	01H
	DB	0cH
	DB	0ffH
	DB	04H
	DB	0fdH
	DB	0bH
	DB	01H
	DB	01H
	DB	0dfH
	DB	04H
	DB	04H
	DB	04H
	DB	04H
	DB	04H
	DB	04H
	DB	04H
	DB	04H
	DB	04H
	DB	04H
	DB	04H
	DB	04H
	DB	0fbH
	DB	090H
	DB	01H
	DB	01H
	DB	01H
	DB	01H
	DB	01H
	DB	01H
	DB	01H
	DB	01H
	DB	01H
	DB	01H
	DB	01H
	DB	01H
	DB	01H
	DB	01H
	DB	01H
	DB	01H
	DB	01H
	DB	01H
	DB	01H
	DB	01H
	DB	01H
	DB	01H
	DB	01H
	DB	01H
	DB	01H
	DB	01H
	DB	01H
	DB	01H
	DB	01H
	DB	01H
	DB	01H
	DB	01H
	DB	01H
	DB	01H
	DB	01H
	DB	01H
	DB	01H
	DB	01H
	DB	01H
	DB	01H
	DB	01H
	DB	01H
	DB	01H
	DB	01H
	DB	01H
	DB	01H
	DB	01H
	DB	01H
	DB	01H
	DB	01H
	DB	01H
	DB	01H
	DB	01H
	DB	01H
	DB	0ffH
	DB	090H
	DB	015H
	DB	04H
	DB	04H
	DB	025H
	DB	01H
	DB	01H
	DB	01H
	DB	0bfH
	DB	04H
	DB	04H
	DB	04H
	DB	0ffH
	DB	018H
	DB	018H
	DB	018H
	DB	018H
	DB	018H
	DB	018H
	DB	018H
	DB	018H
	DB	017H
	DB	07bH
	DB	01H
	DB	01H
	DB	01H
	DB	01H
	DB	01H
	DB	01H
	DB	01H
	DB	01H
	DB	01H
	DB	01H
	DB	01H
	DB	01H
	DB	01H
	DB	01H
	DB	01H
	DB	01H
	DB	01H
	DB	01H
	DB	01H
	DB	01H
	DB	01H
	DB	01H
	DB	01H
	DB	01H
	DB	01H
	DB	01H
	DB	01H
	DB	01H
	DB	01H
	DB	01H
	DB	01H
	DB	01H
	DB	01H
	DB	01H
	DB	01H
	DB	01H
	DB	01H
	DB	01H
	DB	01H
	DB	01H
	DB	01H
	DB	01H
	DB	01H
	DB	01H
	DB	01H
	DB	01H
	DB	01H
	DB	01H
	DB	01H
	DB	01H
	DB	01H
	DB	01H
	DB	01H
	DB	01H
	DB	04H
	DB	0bfH
	DB	020H
	DB	04H
	DB	04H
	DB	0cH
	DB	01H
	DB	01H
	DB	01H
	DB	015H
	DB	04H
	DB	04H
	DB	04H
	DB	0dfH
	DB	068H
	DB	0bH
	DB	0bH
	DB	0bH
	DB	0bH
	DB	0bH
	DB	0bH
	DB	0bH
	DB	090H
	DB	01H
	DB	01H
	DB	01H
	DB	01H
	DB	01H
	DB	01H
	DB	01H
	DB	01H
	DB	01H
	DB	01H
	DB	01H
	DB	01H
	DB	01H
	DB	01H
	DB	01H
	DB	01H
	DB	01H
	DB	01H
	DB	01H
	DB	01H
	DB	01H
	DB	01H
	DB	01H
	DB	01H
	DB	01H
	DB	01H
	DB	01H
	DB	01H
	DB	01H
	DB	01H
	DB	01H
	DB	01H
	DB	01H
	DB	01H
	DB	01H
	DB	01H
	DB	01H
	DB	01H
	DB	01H
	DB	01H
	DB	01H
	DB	01H
	DB	01H
	DB	01H
	DB	01H
	DB	01H
	DB	01H
	DB	01H
	DB	01H
	DB	01H
	DB	01H
	DB	01H
	DB	01H
	DB	01H
	DB	01H
	DB	04H
	DB	0ffH
	DB	04H
	DB	04H
	DB	017H
	DB	01H
	DB	01H
	DB	01H
	DB	01H
	DB	0eH
	DB	04H
	DB	04H
	DB	04H
	DB	025H
	DB	01H
	DB	01H
	DB	01H
	DB	01H
	DB	01H
	DB	01H
	DB	01H
	DB	01H
	DB	01H
	DB	01H
	DB	01H
	DB	01H
	DB	01H
	DB	01H
	DB	01H
	DB	01H
	DB	01H
	DB	01H
	DB	01H
	DB	01H
	DB	01H
	DB	01H
	DB	01H
	DB	01H
	DB	01H
	DB	01H
	DB	01H
	DB	01H
	DB	01H
	DB	01H
	DB	01H
	DB	01H
	DB	01H
	DB	01H
	DB	01H
	DB	01H
	DB	01H
	DB	01H
	DB	01H
	DB	01H
	DB	01H
	DB	01H
	DB	01H
	DB	01H
	DB	01H
	DB	01H
	DB	01H
	DB	01H
	DB	01H
	DB	01H
	DB	01H
	DB	01H
	DB	01H
	DB	01H
	DB	01H
	DB	01H
	DB	01H
	DB	01H
	DB	01H
	DB	01H
	DB	01H
	DB	01H
	DB	01H
	DB	01H
	DB	04H
	DB	04H
	DB	04H
	DB	04H
	DB	026H
	DB	01H
	DB	01H
	DB	01H
	DB	01H
	DB	090H
	DB	0fdH
	DB	04H
	DB	04H
	DB	018H
	DB	0cH
	DB	01H
	DB	01H
	DB	01H
	DB	01H
	DB	01H
	DB	01H
	DB	01H
	DB	01H
	DB	01H
	DB	01H
	DB	01H
	DB	01H
	DB	01H
	DB	01H
	DB	01H
	DB	01H
	DB	01H
	DB	01H
	DB	01H
	DB	01H
	DB	01H
	DB	01H
	DB	01H
	DB	01H
	DB	01H
	DB	01H
	DB	01H
	DB	01H
	DB	01H
	DB	01H
	DB	01H
	DB	01H
	DB	01H
	DB	01H
	DB	01H
	DB	01H
	DB	01H
	DB	01H
	DB	01H
	DB	01H
	DB	01H
	DB	01H
	DB	01H
	DB	01H
	DB	01H
	DB	01H
	DB	01H
	DB	01H
	DB	01H
	DB	01H
	DB	01H
	DB	01H
	DB	01H
	DB	01H
	DB	01H
	DB	01H
	DB	01H
	DB	01H
	DB	01H
	DB	01H
	DB	01H
	DB	01H
	DB	01H
	DB	04H
	DB	04H
	DB	04H
	DB	0fbH
	DB	01H
	DB	01H
	DB	01H
	DB	01H
	DB	01H
	DB	01H
	DB	015H
	DB	04H
	DB	04H
	DB	04H
	DB	020H
	DB	0eH
	DB	033H
	DB	0bH
	DB	0cH
	DB	0eH
	DB	0f3H
	DB	015H
	DB	01H
	DB	01H
	DB	01H
	DB	01H
	DB	01H
	DB	01H
	DB	01H
	DB	01H
	DB	01H
	DB	01H
	DB	01H
	DB	01H
	DB	01H
	DB	01H
	DB	01H
	DB	01H
	DB	01H
	DB	01H
	DB	01H
	DB	01H
	DB	01H
	DB	01H
	DB	01H
	DB	01H
	DB	01H
	DB	01H
	DB	01H
	DB	01H
	DB	01H
	DB	01H
	DB	01H
	DB	01H
	DB	01H
	DB	01H
	DB	01H
	DB	01H
	DB	01H
	DB	01H
	DB	01H
	DB	01H
	DB	01H
	DB	01H
	DB	01H
	DB	01H
	DB	01H
	DB	01H
	DB	01H
	DB	01H
	DB	01H
	DB	01H
	DB	01H
	DB	01H
	DB	01H
	DB	01H
	DB	01H
	DB	01H
	DB	04H
	DB	04H
	DB	04H
	DB	015H
	DB	01H
	DB	01H
	DB	01H
	DB	01H
	DB	01H
	DB	01H
	DB	01H
	DB	017H
	DB	04H
	DB	04H
	DB	04H
	DB	04H
	DB	018H
	DB	0fdH
	DB	0ffH
	DB	04H
	DB	04H
	DB	014H
	DB	01H
	DB	01H
	DB	01H
	DB	01H
	DB	01H
	DB	01H
	DB	01H
	DB	01H
	DB	01H
	DB	01H
	DB	01H
	DB	01H
	DB	01H
	DB	01H
	DB	01H
	DB	01H
	DB	01H
	DB	01H
	DB	01H
	DB	01H
	DB	01H
	DB	01H
	DB	01H
	DB	01H
	DB	01H
	DB	01H
	DB	01H
	DB	01H
	DB	01H
	DB	01H
	DB	01H
	DB	01H
	DB	01H
	DB	01H
	DB	01H
	DB	01H
	DB	01H
	DB	01H
	DB	01H
	DB	01H
	DB	01H
	DB	01H
	DB	01H
	DB	01H
	DB	01H
	DB	01H
	DB	01H
	DB	01H
	DB	01H
	DB	01H
	DB	01H
	DB	01H
	DB	01H
	DB	01H
	DB	01H
	DB	01H
	DB	04H
	DB	04H
	DB	018H
	DB	033H
	DB	01H
	DB	01H
	DB	01H
	DB	01H
	DB	01H
	DB	01H
	DB	01H
	DB	068H
	DB	025H
	DB	0ffH
	DB	04H
	DB	04H
	DB	04H
	DB	04H
	DB	04H
	DB	04H
	DB	014H
	DB	015H
	DB	01H
	DB	01H
	DB	01H
	DB	01H
	DB	01H
	DB	01H
	DB	01H
	DB	01H
	DB	01H
	DB	01H
	DB	01H
	DB	01H
	DB	01H
	DB	01H
	DB	01H
	DB	01H
	DB	01H
	DB	01H
	DB	01H
	DB	01H
	DB	01H
	DB	01H
	DB	01H
	DB	01H
	DB	01H
	DB	01H
	DB	01H
	DB	01H
	DB	01H
	DB	01H
	DB	01H
	DB	01H
	DB	01H
	DB	01H
	DB	01H
	DB	01H
	DB	01H
	DB	01H
	DB	01H
	DB	01H
	DB	01H
	DB	01H
	DB	01H
	DB	01H
	DB	01H
	DB	01H
	DB	01H
	DB	01H
	DB	01H
	DB	01H
	DB	01H
	DB	01H
	DB	01H
	DB	01H
	DB	01H
	DB	01H
	DB	015H
	DB	015H
	DB	026H
	DB	01H
	DB	01H
	DB	01H
	DB	01H
	DB	01H
	DB	01H
	DB	01H
	DB	01H
	DB	01H
	DB	01H
	DB	033H
	DB	023H
	DB	0dfH
	DB	025H
	DB	025H
	DB	015H
	DB	07H
	DB	090H
	DB	01H
	DB	01H
	DB	01H
	DB	01H
	DB	01H
	DB	01H
	DB	01H
	DB	01H
	DB	01H
	DB	01H
	DB	01H
	DB	01H
	DB	01H
	DB	01H
	DB	01H
	DB	01H
	DB	01H
	DB	01H
	DB	01H
	DB	01H
	DB	01H
	DB	01H
	DB	01H
	DB	01H
	DB	01H
	DB	01H
	DB	01H
	DB	01H
	DB	01H
	DB	01H
	DB	01H
	DB	01H
	DB	01H
	DB	01H
	DB	01H
	DB	01H
	DB	01H
	DB	01H
	DB	01H
	DB	01H
	DB	01H
	DB	01H
	DB	01H
	DB	01H
	DB	01H
	DB	01H
	DB	01H
	DB	01H
	DB	01H
	DB	01H
	DB	01H
	DB	01H
	DB	01H
	DB	01H
	DB	01H
	DB	01H
	DB	01H
	DB	01H
	DB	01H
	DB	01H
	DB	01H
	DB	01H
	DB	01H
	DB	01H
	DB	01H
	DB	01H
	DB	01H
	DB	01H
	DB	01H
	DB	01H
	DB	01H
	DB	01H
	DB	01H
	DB	01H
	DB	01H
	DB	01H
	DB	01H
	DB	01H
	DB	01H
	DB	01H
	DB	01H
	DB	01H
	DB	01H
	DB	01H
	DB	01H
	DB	01H
	DB	01H
	DB	01H
	DB	01H
	DB	01H
	DB	01H
	DB	01H
	DB	01H
	DB	01H
	DB	01H
	DB	01H
	DB	01H
	DB	01H
	DB	01H
	DB	01H
	DB	01H
	DB	01H
	DB	01H
	DB	01H
	DB	01H
	DB	01H
	DB	01H
	DB	01H
	DB	01H
	DB	01H
	DB	01H
	DB	01H
	DB	01H
	DB	01H
	DB	01H
	DB	01H
	DB	01H
	DB	01H
	DB	01H
	DB	01H
	DB	01H
	DB	01H
	DB	01H
	DB	01H
	DB	01H
	DB	01H
	DB	01H
	DB	01H
	DB	01H
	DB	01H
	DB	01H
	DB	01H
	DB	01H
	DB	01H
	DB	01H
	DB	01H
	DB	01H
	DB	01H
	DB	01H
	DB	01H
	DB	01H
	DB	01H
	DB	01H
	DB	01H
	DB	01H
	DB	01H
	DB	01H
	DB	01H
	DB	01H
	DB	01H
	DB	01H
	DB	01H
	DB	01H
	DB	01H
	DB	01H
	DB	01H
	DB	01H
	DB	01H
	DB	01H
	DB	01H
	DB	01H
	DB	01H
	DB	01H
	DB	01H
	DB	01H
	DB	01H
	DB	01H
	DB	01H
	DB	01H
	DB	01H
	DB	01H
	DB	01H
	DB	01H
	DB	01H
	DB	01H
	DB	01H
	DB	01H
	DB	01H
	DB	01H
	DB	01H
	DB	01H
	DB	01H
	DB	01H
	DB	01H
	DB	01H
	DB	01H
	DB	01H
	DB	01H
	DB	01H
	DB	01H
	DB	01H
	DB	01H
	DB	01H
	DB	01H
	DB	01H
	DB	01H
	DB	01H
	DB	01H
	DB	01H
	DB	01H
	DB	01H
	DB	01H
	DB	01H
	DB	01H
	DB	01H
	DB	01H
	DB	01H
	DB	01H
	DB	01H
	DB	01H
	DB	01H
	DB	01H
	DB	01H
	DB	01H
	DB	01H
	DB	01H
	DB	01H
	DB	01H
	DB	01H
	DB	01H
	DB	01H
	DB	01H
	DB	01H
	DB	01H
	DB	01H
	DB	01H
	DB	01H
	DB	01H
	DB	01H
	DB	01H
	DB	01H
	DB	01H
	DB	01H
	DB	01H
	DB	01H
	DB	01H
	DB	01H
	DB	01H
	DB	01H
	DB	01H
	DB	01H
	DB	01H
	DB	01H
	DB	01H
	DB	01H
	DB	01H
	DB	01H
	DB	01H
	DB	01H
	DB	01H
	DB	01H
	DB	01H
	DB	01H
	DB	01H
	DB	01H
	DB	01H
	DB	01H
	DB	01H
	DB	01H
	DB	01H
	DB	01H
	DB	01H
	DB	01H
	DB	01H
	DB	01H
	DB	01H
	DB	01H
	DB	01H
	DB	01H
	DB	01H
	DB	01H
	DB	01H
	DB	01H
	DB	01H
	DB	01H
	DB	01H
	DB	01H
	DB	01H
	DB	01H
	DB	01H
	DB	01H
	DB	01H
	DB	01H
	DB	01H
	DB	01H
	DB	01H
	DB	01H
	DB	01H
	DB	01H
	DB	01H
	DB	01H
	DB	01H
	DB	01H
	DB	01H
	DB	01H
	DB	01H
	DB	01H
	DB	01H
	DB	01H
	DB	01H
	DB	01H
	DB	01H
	DB	01H
	DB	01H
	DB	01H
	DB	01H
	DB	01H
	DB	01H
	DB	01H
	DB	01H
	DB	01H
	DB	01H
	DB	01H
	DB	01H
	DB	01H
	DB	01H
	DB	01H
	DB	01H
	DB	01H
	DB	01H
	DB	01H
	DB	01H
	DB	01H
	DB	01H
	DB	01H
	DB	01H
	DB	01H
	DB	01H
	DB	01H
	DB	01H
	DB	01H
	DB	01H
	DB	01H
	DB	01H
	DB	01H
	DB	01H
	DB	01H
	DB	01H
	DB	01H
	DB	01H
	DB	01H
	DB	01H
	DB	01H
	DB	01H
	DB	01H
	DB	01H
	DB	01H
	DB	01H
	DB	01H
	DB	01H
	DB	01H
	DB	01H
	DB	01H
	DB	01H
	DB	01H
	DB	01H
	DB	01H
	DB	01H
	DB	01H
	DB	01H
	DB	01H
	DB	01H
	DB	01H
	DB	01H
	DB	01H
	DB	01H
	DB	01H
	DB	01H
	DB	01H
	DB	01H
	DB	01H
	DB	01H
	DB	01H
	DB	01H
	DB	01H
	DB	01H
	DB	01H
	DB	01H
	DB	01H
	DB	01H
	DB	01H
	DB	01H
	DB	01H
	DB	01H
	DB	01H
	DB	01H
	DB	01H
	DB	01H
	DB	01H
	DB	01H
	DB	01H
	DB	01H
	DB	01H
	DB	01H
	DB	01H
	DB	01H
	DB	01H
	DB	01H
	DB	01H
	DB	01H
	DB	01H
	DB	01H
	DB	01H
	DB	01H
	DB	01H
	DB	01H
	DB	01H
	DB	01H
	DB	01H
	DB	01H
	DB	01H
	DB	01H
	DB	01H
	DB	01H
	DB	01H
	DB	01H
	DB	01H
	DB	01H
	DB	01H
	DB	01H
	DB	01H
	DB	01H
	DB	01H
	DB	01H
	DB	01H
	DB	01H
	DB	01H
	DB	01H
	DB	01H
	DB	01H
	DB	01H
	DB	01H
	DB	01H
	DB	01H
	DB	01H
	DB	01H
	DB	01H
	DB	01H
	DB	01H
	DB	01H
	DB	01H
	DB	01H
	DB	01H
	DB	01H
	DB	01H
	DB	01H
	DB	01H
	DB	01H
	DB	01H
	DB	01H
	DB	01H
	DB	01H
	DB	01H
	DB	01H
	DB	01H
	DB	01H
	DB	01H
	DB	01H
	DB	01H
	DB	01H
	DB	01H
	DB	01H
	DB	01H
	DB	01H
	DB	01H
	DB	01H
	DB	01H
	DB	01H
	DB	01H
	DB	01H
	DB	01H
	DB	01H
	DB	01H
	DB	01H
	DB	01H
	DB	01H
	DB	01H
	DB	01H
	DB	01H
	DB	01H
	DB	01H
	DB	01H
	DB	01H
	DB	01H
	DB	01H
	DB	01H
	DB	01H
	DB	01H
	DB	01H
	DB	01H
	DB	01H
	DB	01H
	DB	01H
	DB	01H
	DB	01H
	DB	01H
	DB	01H
	DB	01H
	DB	01H
	DB	01H
	DB	01H
	DB	01H
	DB	01H
	DB	01H
	DB	01H
	DB	01H
	DB	01H
	DB	01H
	DB	01H
	DB	01H
	DB	01H
	DB	01H
	DB	01H
	DB	01H
	DB	01H
	DB	01H
	DB	01H
	DB	01H
	DB	01H
	DB	01H
	DB	01H
	DB	01H
	DB	01H
	DB	01H
	DB	01H
CONST	ENDS
END
