; Listing generated by Microsoft (R) Optimizing Compiler Version 16.00.40219.01 

	TITLE	C:\DUII\DUII\Graphics\RedSD.c
	.686P
	.XMM
	include listing.inc
	.model	flat

INCLUDELIB LIBCMT
INCLUDELIB OLDNAMES

PUBLIC	_bmRedSD
CONST	SEGMENT
_ColorsRedSD DD	0f4ffffH
	DD	00H
	DD	0222221H
	DD	0121212H
	DD	03532d5H
	DD	03d3adaH
	DD	0d0d04H
	DD	02926cdH
	DD	050505H
	DD	02e2cd2H
	DD	028276bH
	DD	04644deH
	DD	05d5cf9H
	DD	04341ddH
	DD	04d4be4H
	DD	05251e8H
	DD	02522ccH
	DD	04a48e1H
	DD	0504fe6H
	DD	05a59f5H
	DD	0414141H
	DD	04846bdH
	DD	02d2d2dH
	DD	03b39d9H
	DD	0201cd4H
	DD	050500H
	DD	0393939H
	DD	02622d2H
	DD	0c0a65H
	DD	0fffffeH
	DD	01d19cbH
	DD	0302dd2H
	DD	0fefef3H
	DD	0b0b0bH
	DD	03d3d3dH
	DD	0211ec9H
	DD	0161615H
	DD	0353535H
	DD	01511c4H
	DD	01a1a1aH
	DD	020201aH
	DD	021211cH
	DD	0262626H
	DD	0151511H
	DD	01e1e1dH
	DD	024241dH
	DD	060625H
	DD	0313131H
	DD	01914c5H
	DD	02d2ad0H
	DD	0322ed4H
	DD	011110cH
	DD	01a1a15H
	DD	01d1d16H
	DD	0242421H
	DD	02b2b71H
	DD	0100db0H
	DD	0100bc2H
	DD	01c19c5H
	DD	02020dH
	DD	0181912H
	DD	02b2b2bH
	DD	017155fH
	DD	0100e68H
	DD	0181662H
	DD	01e1d65H
	DD	0131169H
	DD	016146cH
	DD	0242375H
	DD	02c2b7bH
	DD	0323172H
	DD	03b3a7cH
	DD	0454545H
	DD	04a4a4aH
	DD	030299H
	DD	0120da3H
	DD	0100dacH
	DD	0905c2H
	DD	01611c9H
	DD	01714c9H
	DD	0221eceH
	DD	02521cbH
	DD	02c29cdH
	DD	02b28d0H
	DD	02522d8H
	DD	02824d9H
	DD	0312edeH
	DD	03431d2H
	DD	03735d1H
	DD	03a37e4H
	DD	04240e9H
	DD	04b48eeH
	DD	04f4df2H
	DD	05250f2H
	DD	07a72e3H
	DD	06362ffH
	DD	0827aebH
	DD	0ededfeH
	DD	0f0f0ffH
	DD	014130eH
	DD	015150fH
	DD	01c1c1bH
	DD	023241dH
	DD	050522H
	DD	0e0d2eH
	DD	0111035H
	DD	01a1936H
	DD	0232423H
	DD	031312fH
	DD	0343433H
	DD	0d0b45H
	DD	011104bH
	DD	01f1e4eH
	DD	0f0d5eH
	DD	0110f5eH
	DD	01d1d5bH
	DD	0393c43H
	DD	02b295cH
	DD	02d2d5eH
	DD	064H
	DD	01a1962H
	DD	01c1b63H
	DD	01d1c63H
	DD	01d1c6aH
	DD	01a186eH
	DD	0f0e79H
	DD	01b1970H
	DD	01e1d71H
	DD	0262461H
	DD	0222067H
	DD	025246aH
	DD	029296dH
	DD	0373764H
	DD	0302e73H
	DD	0353576H
	DD	03d3a74H
	DD	038377aH
	DD	0403c75H
	DD	0484847H
	DD	04d4d4cH
	DD	0474859H
	DD	0505050H
	DD	05c5b6aH
	DD	0434077H
	DD	044417aH
	DD	04b497fH
	DD	070736bH
	DD	0676772H
	DD	06b6a76H
	DD	06e7070H
	DD	0787779H
	DD	084877bH
	DD	0c0985H
	DD	0d0b98H
	DD	0120e91H
	DD	0221e86H
	DD	034338dH
	DD	0272891H
	DD	02e2d92H
	DD	0e0ba1H
	DD	0400b2H
	DD	0b06bbH
	DD	0d0bb9H
	DD	01511b2H
	DD	02a29a3H
	DD	02d2dbdH
	DD	06a6a84H
	DD	07a7985H
	DD	0504ca5H
	DD	06d69aeH
	DD	0100cccH
	DD	01b17c3H
	DD	01711ccH
	DD	01813c8H
	DD	0201ec3H
	DD	0211ec6H
	DD	0241fceH
	DD	0211dd8H
	DD	02825c9H
	DD	0322ccbH
	DD	0332fcfH
	DD	02b28dbH
	DD	02d2adbH
	DD	02d2adcH
	DD	03531d8H
	DD	03d3bdfH
	DD	0322fe0H
	DD	03733e3H
	DD	03f3de8H
	DD	0433ecfH
	DD	0433cd0H
	DD	04645c1H
	DD	04a48c3H
	DD	04c4bc9H
	DD	05c5dcaH
	DD	04641d4H
	DD	04c46d5H
	DD	04441dfH
	DD	0716bc1H
	DD	0736ddeH
	DD	07572deH
	DD	04d4be3H
	DD	04f4de1H
	DD	04745eaH
	DD	04c4ae8H
	DD	05251e7H
	DD	04c49f8H
	DD	05554f3H
	DD	05654f5H
	DD	05857f7H
	DD	05857f9H
	DD	05d5cfdH
	DD	0605fffH
	DD	08079e3H
	DD	0827be4H
	DD	0837de5H
	DD	08a8a8cH
	DD	08c8a93H
	DD	0aaaaa8H
	DD	0b4b7b7H
	DD	0bfbebbH
	DD	0c2c6b7H
	DD	08c90d8H
	DD	0acabcdH
	DD	0b8bcd4H
	DD	08688e2H
	DD	08f89e4H
	DD	0928de1H
	DD	0938ee9H
	DD	0a09be6H
	DD	0a19cecH
	DD	0aba7efH
	DD	0a4a9e9H
	DD	0aeb1ebH
	DD	0b4b8e0H
	DD	0bfbcf3H
	DD	0b4b4f8H
	DD	0c9c8c0H
	DD	0e2e4d7H
	DD	0c6c2edH
	DD	0c9c5f7H
	DD	0d8d9f9H
	DD	0dfdffdH
	DD	0e6e9e1H
	DD	0e9ece1H
	DD	0f5f4e0H
	DD	0f6f8e6H
	DD	0f7fae8H
	DD	0ffffecH
	DD	0e1e1f8H
	DD	0e3e3fcH
	DD	0e9e9ffH
	DD	0ede9ffH
	DD	0eff0ffH
	DD	0f3f4ffH
	DD	0f8f9faH
_PalRedSD DD	0100H
	DB	00H
	ORG $+3
	DD	FLAT:_ColorsRedSD
_bmRedSD DW	01bH
	DW	023H
	DW	01bH
	DW	08H
	DD	FLAT:_acRedSD
	DD	FLAT:_PalRedSD
	ORG $+4
_acRedSD DB	02H
	DB	02H
	DB	02H
	DB	02H
	DB	02H
	DB	02H
	DB	02H
	DB	02H
	DB	02H
	DB	02H
	DB	02H
	DB	02H
	DB	02H
	DB	02H
	DB	02H
	DB	02H
	DB	02H
	DB	02H
	DB	02H
	DB	02H
	DB	02H
	DB	02H
	DB	02H
	DB	02H
	DB	02H
	DB	02H
	DB	02H
	DB	06bH
	DB	06bH
	DB	02aH
	DB	06bH
	DB	02H
	DB	02H
	DB	02H
	DB	02H
	DB	02H
	DB	02H
	DB	02H
	DB	02H
	DB	02H
	DB	02H
	DB	02H
	DB	02H
	DB	02H
	DB	02H
	DB	02H
	DB	06bH
	DB	02aH
	DB	06bH
	DB	06bH
	DB	06bH
	DB	06bH
	DB	06bH
	DB	06bH
	DB	016H
	DB	016H
	DB	065H
	DB	08H
	DB	08H
	DB	08H
	DB	08H
	DB	08H
	DB	08H
	DB	08H
	DB	08H
	DB	08H
	DB	08H
	DB	08H
	DB	08H
	DB	08H
	DB	08H
	DB	08H
	DB	08H
	DB	01H
	DB	024H
	DB	016H
	DB	016H
	DB	016H
	DB	016H
	DB	016H
	DB	016H
	DB	01aH
	DB	01aH
	DB	019H
	DB	075H
	DB	0c1H
	DB	015H
	DB	015H
	DB	015H
	DB	015H
	DB	015H
	DB	015H
	DB	015H
	DB	015H
	DB	015H
	DB	015H
	DB	015H
	DB	015H
	DB	015H
	DB	0c0H
	DB	09cH
	DB	03bH
	DB	033H
	DB	06dH
	DB	01aH
	DB	01aH
	DB	01aH
	DB	01aH
	DB	014H
	DB	014H
	DB	019H
	DB	088H
	DB	0d4H
	DB	013H
	DB	013H
	DB	013H
	DB	013H
	DB	013H
	DB	013H
	DB	013H
	DB	013H
	DB	013H
	DB	013H
	DB	013H
	DB	013H
	DB	013H
	DB	013H
	DB	0d3H
	DB	0bfH
	DB	068H
	DB	019H
	DB	06cH
	DB	048H
	DB	014H
	DB	014H
	DB	014H
	DB	014H
	DB	019H
	DB	046H
	DB	0d0H
	DB	012H
	DB	012H
	DB	012H
	DB	012H
	DB	012H
	DB	012H
	DB	012H
	DB	012H
	DB	012H
	DB	012H
	DB	012H
	DB	012H
	DB	012H
	DB	012H
	DB	012H
	DB	0cfH
	DB	0caH
	DB	073H
	DB	01H
	DB	036H
	DB	014H
	DB	014H
	DB	014H
	DB	014H
	DB	019H
	DB	085H
	DB	05cH
	DB	011H
	DB	011H
	DB	011H
	DB	011H
	DB	011H
	DB	011H
	DB	011H
	DB	011H
	DB	011H
	DB	011H
	DB	011H
	DB	011H
	DB	011H
	DB	011H
	DB	011H
	DB	011H
	DB	0ccH
	DB	05cH
	DB	09eH
	DB	03bH
	DB	02cH
	DB	014H
	DB	014H
	DB	014H
	DB	019H
	DB	080H
	DB	0cbH
	DB	0c5H
	DB	0dH
	DB	0dH
	DB	0dH
	DB	0dH
	DB	0dH
	DB	0dH
	DB	0dH
	DB	0dH
	DB	0dH
	DB	0dH
	DB	0dH
	DB	0dH
	DB	0dH
	DB	0dH
	DB	0dH
	DB	0dH
	DB	0c5H
	DB	0ceH
	DB	07bH
	DB	028H
	DB	049H
	DB	022H
	DB	014H
	DB	065H
	DB	01H
	DB	07aH
	DB	0b9H
	DB	017H
	DB	017H
	DB	017H
	DB	017H
	DB	017H
	DB	017H
	DB	017H
	DB	017H
	DB	017H
	DB	017H
	DB	017H
	DB	017H
	DB	017H
	DB	017H
	DB	017H
	DB	017H
	DB	017H
	DB	0bcH
	DB	07eH
	DB	036H
	DB	08dH
	DB	01aH
	DB	022H
	DB	022H
	DB	034H
	DB	02eH
	DB	0b4H
	DB	0b8H
	DB	057H
	DB	032H
	DB	01fH
	DB	01fH
	DB	032H
	DB	057H
	DB	057H
	DB	032H
	DB	01fH
	DB	01fH
	DB	01fH
	DB	032H
	DB	057H
	DB	057H
	DB	057H
	DB	057H
	DB	0bbH
	DB	043H
	DB	02dH
	DB	08bH
	DB	01aH
	DB	01aH
	DB	022H
	DB	029H
	DB	02eH
	DB	052H
	DB	09H
	DB	01bH
	DB	01bH
	DB	058H
	DB	057H
	DB	010H
	DB	07H
	DB	031H
	DB	031H
	DB	01fH
	DB	01fH
	DB	01fH
	DB	053H
	DB	050H
	DB	053H
	DB	031H
	DB	031H
	DB	056H
	DB	042H
	DB	02dH
	DB	049H
	DB	025H
	DB	025H
	DB	01aH
	DB	028H
	DB	02eH
	DB	0b2H
	DB	0b0H
	DB	0c3H
	DB	0ebH
	DB	062H
	DB	061H
	DB	0e9H
	DB	058H
	DB	04fH
	DB	0c7H
	DB	0f9H
	DB	0f2H
	DB	0faH
	DB	0f1H
	DB	0e1H
	DB	010H
	DB	010H
	DB	07H
	DB	0b5H
	DB	03fH
	DB	02dH
	DB	08aH
	DB	02fH
	DB	02fH
	DB	06dH
	DB	029H
	DB	02eH
	DB	0afH
	DB	0b0H
	DB	0f0H
	DB	0f4H
	DB	095H
	DB	0d9H
	DB	01dH
	DB	0eaH
	DB	0a2H
	DB	0d7H
	DB	01dH
	DB	0daH
	DB	0d8H
	DB	0dcH
	DB	01dH
	DB	0deH
	DB	030H
	DB	051H
	DB	055H
	DB	03fH
	DB	02dH
	DB	048H
	DB	016H
	DB	016H
	DB	02fH
	DB	034H
	DB	067H
	DB	03aH
	DB	053H
	DB	0fbH
	DB	0dbH
	DB	07dH
	DB	0a0H
	DB	0c6H
	DB	092H
	DB	098H
	DB	060H
	DB	020H
	DB	084H
	DB	04aH
	DB	04bH
	DB	0efH
	DB	0f3H
	DB	0a4H
	DB	01eH
	DB	054H
	DB	01cH
	DB	066H
	DB	014H
	DB	03dH
	DB	016H
	DB	027H
	DB	01H
	DB	06eH
	DB	01eH
	DB	0adH
	DB	0e5H
	DB	01dH
	DB	061H
	DB	0ecH
	DB	0c2H
	DB	099H
	DB	0a1H
	DB	0d6H
	DB	020H
	DB	090H
	DB	0acH
	DB	0aaH
	DB	0e4H
	DB	0f8H
	DB	047H
	DB	04eH
	DB	018H
	DB	01cH
	DB	066H
	DB	022H
	DB	02aH
	DB	02aH
	DB	019H
	DB	06fH
	DB	01eH
	DB	01eH
	DB	030H
	DB	039H
	DB	0a9H
	DB	0edH
	DB	0f5H
	DB	01dH
	DB	0e8H
	DB	04dH
	DB	0d5H
	DB	020H
	DB	08fH
	DB	026H
	DB	039H
	DB	0e2H
	DB	020H
	DB	087H
	DB	026H
	DB	018H
	DB	01cH
	DB	029H
	DB	01aH
	DB	06bH
	DB	06bH
	DB	019H
	DB	040H
	DB	0b1H
	DB	030H
	DB	0b3H
	DB	0c8H
	DB	0a5H
	DB	04aH
	DB	09bH
	DB	0dfH
	DB	020H
	DB	09dH
	DB	05eH
	DB	020H
	DB	089H
	DB	039H
	DB	04dH
	DB	0e6H
	DB	0f7H
	DB	076H
	DB	026H
	DB	018H
	DB	01cH
	DB	029H
	DB	01aH
	DB	02cH
	DB	02cH
	DB	019H
	DB	03eH
	DB	018H
	DB	026H
	DB	0beH
	DB	01dH
	DB	0e0H
	DB	0aeH
	DB	0acH
	DB	0e7H
	DB	0f6H
	DB	041H
	DB	05eH
	DB	020H
	DB	091H
	DB	0abH
	DB	0c4H
	DB	0fcH
	DB	0ddH
	DB	072H
	DB	01eH
	DB	018H
	DB	01cH
	DB	028H
	DB	06dH
	DB	065H
	DB	065H
	DB	019H
	DB	03eH
	DB	018H
	DB	03aH
	DB	026H
	DB	0e3H
	DB	020H
	DB	0fdH
	DB	062H
	DB	01dH
	DB	097H
	DB	077H
	DB	060H
	DB	01dH
	DB	0ffH
	DB	0feH
	DB	01dH
	DB	0eeH
	DB	074H
	DB	04bH
	DB	01eH
	DB	018H
	DB	01cH
	DB	028H
	DB	06cH
	DB	024H
	DB	024H
	DB	01H
	DB	040H
	DB	0b1H
	DB	023H
	DB	01eH
	DB	030H
	DB	0a8H
	DB	0a7H
	DB	096H
	DB	08cH
	DB	071H
	DB	030H
	DB	0bdH
	DB	0a6H
	DB	093H
	DB	094H
	DB	08eH
	DB	070H
	DB	09aH
	DB	050H
	DB	023H
	DB	0b1H
	DB	01cH
	DB	035H
	DB	03dH
	DB	03H
	DB	03H
	DB	01H
	DB	078H
	DB	054H
	DB	023H
	DB	023H
	DB	023H
	DB	04fH
	DB	038H
	DB	09fH
	DB	0a3H
	DB	018H
	DB	0b0H
	DB	03aH
	DB	038H
	DB	04cH
	DB	04cH
	DB	038H
	DB	01eH
	DB	01bH
	DB	023H
	DB	023H
	DB	054H
	DB	03fH
	DB	035H
	DB	02aH
	DB	033H
	DB	033H
	DB	01H
	DB	079H
	DB	055H
	DB	010H
	DB	010H
	DB	010H
	DB	010H
	DB	01bH
	DB	01bH
	DB	01bH
	DB	010H
	DB	010H
	DB	010H
	DB	01bH
	DB	01bH
	DB	01bH
	DB	01bH
	DB	010H
	DB	010H
	DB	010H
	DB	010H
	DB	055H
	DB	03fH
	DB	035H
	DB	06bH
	DB	021H
	DB	021H
	DB	01H
	DB	041H
	DB	0b6H
	DB	07H
	DB	07H
	DB	07H
	DB	07H
	DB	07H
	DB	07H
	DB	07H
	DB	07H
	DB	07H
	DB	07H
	DB	07H
	DB	07H
	DB	07H
	DB	07H
	DB	07H
	DB	07H
	DB	07H
	DB	07H
	DB	0b7H
	DB	042H
	DB	034H
	DB	029H
	DB	08H
	DB	08H
	DB	01H
	DB	081H
	DB	0baH
	DB	09H
	DB	09H
	DB	09H
	DB	09H
	DB	09H
	DB	09H
	DB	09H
	DB	09H
	DB	09H
	DB	09H
	DB	09H
	DB	09H
	DB	09H
	DB	09H
	DB	09H
	DB	09H
	DB	09H
	DB	09H
	DB	0baH
	DB	043H
	DB	03cH
	DB	02cH
	DB	08H
	DB	08H
	DB	01H
	DB	082H
	DB	059H
	DB	04H
	DB	04H
	DB	04H
	DB	04H
	DB	04H
	DB	04H
	DB	04H
	DB	04H
	DB	04H
	DB	04H
	DB	04H
	DB	04H
	DB	04H
	DB	04H
	DB	04H
	DB	04H
	DB	04H
	DB	04H
	DB	059H
	DB	07cH
	DB	03cH
	DB	027H
	DB	01H
	DB	01H
	DB	01H
	DB	083H
	DB	05aH
	DB	05H
	DB	05H
	DB	05H
	DB	05H
	DB	05H
	DB	05H
	DB	05H
	DB	05H
	DB	05H
	DB	05H
	DB	05H
	DB	05H
	DB	05H
	DB	05H
	DB	05H
	DB	05H
	DB	05H
	DB	05H
	DB	05aH
	DB	07fH
	DB	03cH
	DB	024H
	DB	01H
	DB	01H
	DB	01H
	DB	037H
	DB	05bH
	DB	0bH
	DB	0bH
	DB	0bH
	DB	0bH
	DB	0bH
	DB	0bH
	DB	0bH
	DB	0bH
	DB	0bH
	DB	0bH
	DB	0bH
	DB	0bH
	DB	0bH
	DB	0bH
	DB	0bH
	DB	0bH
	DB	0bH
	DB	0bH
	DB	05bH
	DB	044H
	DB	02bH
	DB	024H
	DB	01H
	DB	01H
	DB	01H
	DB	046H
	DB	05dH
	DB	0eH
	DB	0eH
	DB	0eH
	DB	0eH
	DB	0eH
	DB	0eH
	DB	0eH
	DB	0eH
	DB	0eH
	DB	0eH
	DB	0eH
	DB	0eH
	DB	0eH
	DB	0eH
	DB	0eH
	DB	0eH
	DB	0eH
	DB	0c9H
	DB	05dH
	DB	044H
	DB	064H
	DB	02bH
	DB	01H
	DB	01H
	DB	01H
	DB	086H
	DB	0d1H
	DB	0fH
	DB	0fH
	DB	0fH
	DB	0fH
	DB	0fH
	DB	0fH
	DB	0fH
	DB	0fH
	DB	0fH
	DB	0fH
	DB	0fH
	DB	0fH
	DB	0fH
	DB	0fH
	DB	0fH
	DB	0fH
	DB	0fH
	DB	0cdH
	DB	0d2H
	DB	045H
	DB	063H
	DB	03H
	DB	01H
	DB	01H
	DB	01H
	DB	047H
	DB	05fH
	DB	0cH
	DB	0cH
	DB	0cH
	DB	0cH
	DB	0cH
	DB	0cH
	DB	0cH
	DB	0cH
	DB	0cH
	DB	0cH
	DB	0cH
	DB	0cH
	DB	0cH
	DB	0cH
	DB	0cH
	DB	0cH
	DB	0cH
	DB	0cH
	DB	05fH
	DB	045H
	DB	033H
	DB	03H
	DB	01H
	DB	01H
	DB	01H
	DB	06aH
	DB	037H
	DB	0aH
	DB	0aH
	DB	0aH
	DB	0aH
	DB	0aH
	DB	0aH
	DB	0aH
	DB	0aH
	DB	0aH
	DB	0aH
	DB	0aH
	DB	0aH
	DB	0aH
	DB	0aH
	DB	0aH
	DB	0aH
	DB	0aH
	DB	0aH
	DB	037H
	DB	069H
	DB	024H
	DB	02bH
	DB	01H
	DB	01H
	DB	01H
	DB	019H
	DB	06H
	DB	06H
	DB	06H
	DB	06H
	DB	06H
	DB	06H
	DB	06H
	DB	06H
	DB	06H
	DB	06H
	DB	06H
	DB	06H
	DB	06H
	DB	06H
	DB	06H
	DB	06H
	DB	06H
	DB	06H
	DB	06H
	DB	06H
	DB	033H
	DB	025H
	DB	03H
	DB	01H
	DB	01H
	DB	01H
	DB	08H
	DB	03H
	DB	03H
	DB	03H
	DB	03H
	DB	03H
	DB	03H
	DB	03H
	DB	03H
	DB	03H
	DB	03H
	DB	03H
	DB	03H
	DB	03H
	DB	03H
	DB	03H
	DB	03H
	DB	03H
	DB	03H
	DB	03H
	DB	03H
	DB	03H
	DB	033H
	DB	01H
	DB	01H
	DB	01H
	DB	01H
	DB	01H
	DB	01H
	DB	01H
	DB	01H
	DB	01H
	DB	01H
	DB	01H
	DB	01H
	DB	01H
	DB	01H
	DB	01H
	DB	01H
	DB	01H
	DB	01H
	DB	01H
	DB	01H
	DB	01H
	DB	01H
	DB	01H
	DB	01H
	DB	01H
	DB	01H
	DB	01H
	DB	01H
	DB	01H
	DB	01H
	DB	01H
	DB	01H
	DB	01H
	DB	01H
	DB	01H
	DB	01H
	DB	01H
	DB	01H
	DB	01H
	DB	01H
	DB	01H
	DB	01H
	DB	01H
	DB	01H
	DB	01H
	DB	01H
	DB	01H
	DB	01H
	DB	01H
	DB	01H
	DB	01H
	DB	01H
	DB	01H
	DB	01H
	DB	01H
CONST	ENDS
END
