; Listing generated by Microsoft (R) Optimizing Compiler Version 16.00.40219.01 

	TITLE	C:\DUII\DUII\Graphics\RightGauge.c
	.686P
	.XMM
	include listing.inc
	.model	flat

INCLUDELIB LIBCMT
INCLUDELIB OLDNAMES

PUBLIC	_bmRightGauge
CONST	SEGMENT
_ColorsRightGauge DD 0f0dfd9H
	DD	0beb1acH
	DD	00H
	DD	0370d00H
	DD	0270900H
	DD	0471101H
	DD	0180601H
	DD	047474cH
	DD	0541401H
	DD	027af50H
	DD	0fbfbfbH
	DD	0b0b0bH
	DD	0131312H
	DD	0802104H
	DD	09a2601H
	DD	01b1b1aH
	DD	0a0a04H
	DD	0e7e7e7H
	DD	0595959H
	DD	012120cH
	DD	0d7d7d7H
	DD	040509H
	DD	0979697H
	DD	050904H
	DD	01a1a14H
	DD	0676767H
	DD	0a0402H
	DD	0c110bH
	DD	0a0c12H
	DD	023221cH
	DD	0c1313H
	DD	0373738H
	DD	05090aH
	DD	0c7c7c7H
	DD	0232322H
	DD	0b8b7b8H
	DD	0d19f90H
	DD	0777677H
	DD	0400f01H
	DD	0191513H
	DD	0141914H
	DD	0a7a6a7H
	DD	01c211aH
	DD	0878788H
	DD	0671a02H
	DD	0211d1bH
	DD	02a2a23H
	DD	0131419H
	DD	02b2a2bH
	DD	0141a1aH
	DD	01a1b22H
	DD	0751e03H
	DD	0120e11H
	DD	09050aH
	DD	07a2005H
	DD	01c2222H
	DD	034342bH
	DD	0292423H
	DD	01a1619H
	DD	0242429H
	DD	04c4d51H
	DD	0242923H
	DD	03d3d41H
	DD	0211c15H
	DD	02a2d32H
	DD	019140cH
	DD	0242a2bH
	DD	0312b28H
	DD	03c1002H
	DD	029241cH
	DD	0a23918H
	DD	0221d22H
	DD	09b3616H
	DD	0a74627H
	DD	014190dH
	DD	0121305H
	DD	063625dH
	DD	01a1a0dH
	DD	0212215H
	DD	0f4e9e6H
	DD	091724H
	DD	05d5d61H
	DD	0c68875H
	DD	02d3233H
	DD	023291cH
	DD	02a2a1dH
	DD	02c322cH
	DD	0423c38H
	DD	0394439H
	DD	0d9b6aaH
	DD	03c4243H
	DD	0ab5337H
	DD	0b56248H
	DD	053514dH
	DD	029262aH
	DD	0e9dad5H
	DD	01c252aH
	DD	0988b88H
	DD	0cb9685H
	DD	0d5a798H
	DD	0e5cbc3H
	DD	013232aH
	DD	0322e31H
	DD	0b86b53H
	DD	0b98676H
	DD	0e3c5bbH
	DD	0f0e1dcH
	DD	024322bH
	DD	09b452aH
	DD	0ba725bH
	DD	0a49996H
	DD	0e7d2ccH
	DD	0211614H
	DD	09e310eH
	DD	09a6453H
	DD	0b77a67H
	DD	0c3816cH
	DD	020161aH
	DD	0152122H
	DD	0253333H
	DD	043433aH
	DD	0534c48H
	DD	0d19d8cH
	DD	01c2c33H
	DD	02a3024H
	DD	0263844H
	DD	044524bH
	DD	04c5653H
	DD	0605d58H
	DD	06c6c70H
	DD	0706f70H
	DD	09a4b33H
	DD	0a84e32H
	DD	099756aH
	DD	0c9a599H
	DD	0d6cac6H
	DD	0f7f0eeH
	DD	022180eH
	DD	01d2b2cH
	DD	024343bH
	DD	047342cH
	DD	0193446H
	DD	0b1573bH
	DD	0a65b44H
	DD	0b35d42H
	DD	0a9624bH
	DD	0c17c66H
	DD	0807f80H
	DD	0dabcb3H
	DD	0e0dfe0H
	DD	0281d1bH
	DD	041633H
	DD	01c2923H
	DD	01b3329H
	DD	0995d4aH
	DD	0a97768H
	DD	098827cH
	DD	0b6958bH
	DD	0a09fa0H
	DD	0d0cfd0H
	DD	0e8e0deH
	DD	0f0eff0H
	DD	0c2334H
	DD	02b3833H
	DD	02c3a3aH
	DD	0192e42H
	DD	0a0310eH
	DD	0a96955H
	DD	0aa877cH
	DD	0b89a91H
	DD	0b9a29bH
	DD	09e9ea1H
	DD	0c5aca5H
	DD	0e0bdb2H
	DD	0c0bfc0H
	DD	0292616H
	DD	032281cH
	DD	0152833H
	DD	02d382dH
	DD	0482418H
	DD	0563429H
	DD	054433dH
	DD	0801f01H
	DD	09b543dH
	DD	09b604eH
	DD	0997b73H
	DD	07c7c80H
	DD	0908f90H
	DD	0aa8c84H
	DD	0b7aaa6H
	DD	0c69e91H
	DD	0d5aea3H
	DD	0c5b2acH
	DD	0181406H
	DD	0b260cH
	DD	0e2416H
	DD	0282917H
	DD	030e21H
	DD	0d212bH
	DD	0162823H
	DD	015282bH
	DD	0162c3aH
	DD	01e2c3bH
	DD	019323eH
	DD	0253327H
	DD	0253e3eH
	DD	03c402dH
	DD	0403e44H
	DD	01e4547H
	DD	0334754H
	DD	0385252H
	DD	0504f56H
	DD	057625cH
	DD	0605f60H
	DD	09b3e21H
	DD	0a13f20H
	DD	0ae715eH
	DD	0a27c71H
	DD	0ca917eH
	DD	08e8e91H
	DD	0b0afb0H
	DD	0c4b9b7H
	DD	0c5c0bfH
	DD	0d7c3bcH
	DD	0bebec0H
	DD	0391d13H
	DD	012200aH
	DD	028210eH
	DD	0242910H
	DD	026311cH
	DD	033301fH
	DD	01a1f30H
	DD	0261d32H
	DD	0142133H
	DD	01e2732H
	DD	0263b34H
	DD	02d343dH
	DD	0451d11H
	DD	0572b1cH
	DD	0422a21H
	DD	0553f35H
	DD	0d2a47H
	DD	01b395aH
	DD	0213952H
	DD	0284145H
	DD	02d4a58H
	DD	0405962H
	DD	0566664H
	DD	06c7375H
	DD	0a06f60H
	DD	0c0775fH
	DD	0aa938dH
	DD	0beb1acH
	DD	0ddd0cdH
	DD	0f0dfd9H
	DD	0afafb1H
_PalRightGauge DD 0100H
	DB	00H
	ORG $+3
	DD	FLAT:_ColorsRightGauge
_bmRightGauge DW 0e5H
	DW	0e6H
	DW	0e5H
	DW	08H
	DD	FLAT:_acRightGauge
	DD	FLAT:_PalRightGauge
	ORG $+4
_acRightGauge DB 027H
	DB	041H
	DB	0afH
	DB	0e6H
	DB	039H
	DB	03aH
	DB	027H
	DB	02dH
	DB	027H
	DB	013H
	DB	03dH
	DB	030H
	DB	03aH
	DB	03dH
	DB	0b2H
	DB	03bH
	DB	098H
	DB	0ebH
	DB	07bH
	DB	037H
	DB	030H
	DB	02dH
	DB	0bH
	DB	06H
	DB	0e3H
	DB	07cH
	DB	03bH
	DB	03bH
	DB	066H
	DB	022H
	DB	018H
	DB	02aH
	DB	0fH
	DB	01cH
	DB	02H
	DB	041H
	DB	039H
	DB	02eH
	DB	045H
	DB	04dH
	DB	041H
	DB	096H
	DB	01dH
	DB	0fH
	DB	028H
	DB	013H
	DB	01eH
	DB	0fH
	DB	03dH
	DB	030H
	DB	032H
	DB	03aH
	DB	01dH
	DB	054H
	DB	022H
	DB	066H
	DB	066H
	DB	02eH
	DB	02eH
	DB	02eH
	DB	0fH
	DB	018H
	DB	07cH
	DB	01fH
	DB	03bH
	DB	027H
	DB	0fH
	DB	022H
	DB	02eH
	DB	038H
	DB	043H
	DB	043H
	DB	030H
	DB	0fH
	DB	01eH
	DB	0bH
	DB	028H
	DB	037H
	DB	027H
	DB	010H
	DB	017H
	DB	02H
	DB	02H
	DB	01aH
	DB	02H
	DB	041H
	DB	0ceH
	DB	0a4H
	DB	0c7H
	DB	015H
	DB	01aH
	DB	03fH
	DB	043H
	DB	043H
	DB	039H
	DB	096H
	DB	096H
	DB	0b0H
	DB	039H
	DB	01dH
	DB	043H
	DB	038H
	DB	02eH
	DB	043H
	DB	038H
	DB	038H
	DB	03eH
	DB	03eH
	DB	03eH
	DB	03eH
	DB	07H
	DB	0cfH
	DB	03eH
	DB	03eH
	DB	0cfH
	DB	0cfH
	DB	07H
	DB	07H
	DB	0cfH
	DB	03eH
	DB	03eH
	DB	03eH
	DB	01fH
	DB	038H
	DB	038H
	DB	02eH
	DB	045H
	DB	045H
	DB	043H
	DB	043H
	DB	02eH
	DB	056H
	DB	030H
	DB	02dH
	DB	02dH
	DB	01dH
	DB	022H
	DB	022H
	DB	02dH
	DB	02aH
	DB	01dH
	DB	02dH
	DB	027H
	DB	03aH
	DB	0cH
	DB	01aH
	DB	0c1H
	DB	054H
	DB	02aH
	DB	027H
	DB	018H
	DB	04eH
	DB	018H
	DB	018H
	DB	027H
	DB	027H
	DB	022H
	DB	02dH
	DB	02aH
	DB	01fH
	DB	01fH
	DB	075H
	DB	027H
	DB	018H
	DB	027H
	DB	0cH
	DB	04aH
	DB	018H
	DB	02aH
	DB	0fH
	DB	02aH
	DB	02dH
	DB	03aH
	DB	02fH
	DB	0bH
	DB	010H
	DB	04bH
	DB	031H
	DB	0fH
	DB	03aH
	DB	0fH
	DB	028H
	DB	0cH
	DB	01bH
	DB	010H
	DB	020H
	DB	01cH
	DB	031H
	DB	0fH
	DB	0bH
	DB	01eH
	DB	031H
	DB	0cH
	DB	013H
	DB	010H
	DB	01bH
	DB	034H
	DB	0bH
	DB	0bH
	DB	0bH
	DB	0bH
	DB	013H
	DB	028H
	DB	01bH
	DB	0cH
	DB	013H
	DB	010H
	DB	017H
	DB	0bH
	DB	0bH
	DB	035H
	DB	010H
	DB	01bH
	DB	0bH
	DB	010H
	DB	017H
	DB	017H
	DB	02H
	DB	02H
	DB	02H
	DB	02H
	DB	02H
	DB	02H
	DB	02H
	DB	02H
	DB	02H
	DB	017H
	DB	02H
	DB	02H
	DB	075H
	DB	03fH
	DB	02eH
	DB	03dH
	DB	022H
	DB	022H
	DB	047H
	DB	02dH
	DB	013H
	DB	013H
	DB	039H
	DB	075H
	DB	041H
	DB	045H
	DB	01dH
	DB	0cH
	DB	031H
	DB	0c6H
	DB	0c5H
	DB	034H
	DB	02dH
	DB	02dH
	DB	0bH
	DB	041H
	DB	0c4H
	DB	03dH
	DB	032H
	DB	047H
	DB	03dH
	DB	04eH
	DB	02aH
	DB	031H
	DB	01cH
	DB	034H
	DB	035H
	DB	04bH
	DB	039H
	DB	043H
	DB	045H
	DB	027H
	DB	070H
	DB	02eH
	DB	01dH
	DB	0cH
	DB	013H
	DB	0bH
	DB	0bH
	DB	028H
	DB	037H
	DB	037H
	DB	03aH
	DB	075H
	DB	03fH
	DB	03fH
	DB	01dH
	DB	01fH
	DB	053H
	DB	03bH
	DB	022H
	DB	01dH
	DB	0cH
	DB	018H
	DB	0b2H
	DB	01fH
	DB	05eH
	DB	03fH
	DB	03fH
	DB	03fH
	DB	02eH
	DB	01fH
	DB	066H
	DB	01fH
	DB	066H
	DB	0fH
	DB	017H
	DB	02H
	DB	0bH
	DB	0fH
	DB	01eH
	DB	02H
	DB	02H
	DB	02H
	DB	089H
	DB	096H
	DB	070H
	DB	03fH
	DB	04aH
	DB	017H
	DB	02H
	DB	0bH
	DB	043H
	DB	057H
	DB	057H
	DB	03eH
	DB	01fH
	DB	01fH
	DB	057H
	DB	07H
	DB	07H
	DB	07H
	DB	07H
	DB	07H
	DB	07H
	DB	07H
	DB	07H
	DB	07H
	DB	07H
	DB	07H
	DB	07H
	DB	07H
	DB	07H
	DB	07H
	DB	07H
	DB	07H
	DB	07H
	DB	07H
	DB	07H
	DB	07H
	DB	07H
	DB	07H
	DB	07H
	DB	07H
	DB	07H
	DB	07H
	DB	07H
	DB	07H
	DB	07H
	DB	07H
	DB	07H
	DB	0cfH
	DB	03eH
	DB	01fH
	DB	030H
	DB	013H
	DB	04eH
	DB	054H
	DB	01dH
	DB	02dH
	DB	075H
	DB	027H
	DB	03fH
	DB	01dH
	DB	03fH
	DB	02dH
	DB	018H
	DB	034H
	DB	04aH
	DB	04eH
	DB	022H
	DB	01dH
	DB	02eH
	DB	05eH
	DB	018H
	DB	04aH
	DB	0cH
	DB	018H
	DB	037H
	DB	03aH
	DB	022H
	DB	07eH
	DB	03cH
	DB	05eH
	DB	027H
	DB	018H
	DB	018H
	DB	02dH
	DB	03fH
	DB	027H
	DB	018H
	DB	0fH
	DB	0fH
	DB	0fH
	DB	013H
	DB	034H
	DB	010H
	DB	017H
	DB	04aH
	DB	027H
	DB	03aH
	DB	0fH
	DB	0cH
	DB	01eH
	DB	01bH
	DB	010H
	DB	01aH
	DB	0bH
	DB	076H
	DB	08aH
	DB	0fH
	DB	034H
	DB	034H
	DB	013H
	DB	04aH
	DB	013H
	DB	010H
	DB	010H
	DB	010H
	DB	01aH
	DB	0bH
	DB	013H
	DB	0bH
	DB	0bH
	DB	01bH
	DB	0bH
	DB	017H
	DB	017H
	DB	02H
	DB	017H
	DB	034H
	DB	034H
	DB	034H
	DB	010H
	DB	010H
	DB	017H
	DB	02H
	DB	017H
	DB	02H
	DB	02H
	DB	02H
	DB	017H
	DB	01aH
	DB	02H
	DB	02H
	DB	02H
	DB	02H
	DB	02H
	DB	02H
	DB	02H
	DB	01aH
	DB	045H
	DB	02dH
	DB	0fH
	DB	031H
	DB	02aH
	DB	022H
	DB	02dH
	DB	01dH
	DB	01dH
	DB	045H
	DB	02eH
	DB	027H
	DB	027H
	DB	02eH
	DB	039H
	DB	047H
	DB	032H
	DB	02fH
	DB	03aH
	DB	0fH
	DB	047H
	DB	05eH
	DB	02dH
	DB	03aH
	DB	0fH
	DB	02aH
	DB	01dH
	DB	027H
	DB	0bH
	DB	028H
	DB	028H
	DB	01aH
	DB	035H
	DB	047H
	DB	03aH
	DB	0bH
	DB	01dH
	DB	043H
	DB	02eH
	DB	03fH
	DB	03fH
	DB	039H
	DB	022H
	DB	028H
	DB	013H
	DB	027H
	DB	027H
	DB	0cH
	DB	022H
	DB	043H
	DB	039H
	DB	01dH
	DB	0fH
	DB	013H
	DB	027H
	DB	037H
	DB	03bH
	DB	030H
	DB	0fH
	DB	013H
	DB	013H
	DB	018H
	DB	037H
	DB	022H
	DB	037H
	DB	02aH
	DB	018H
	DB	027H
	DB	01dH
	DB	02eH
	DB	056H
	DB	056H
	DB	03dH
	DB	01bH
	DB	010H
	DB	06H
	DB	041H
	DB	01bH
	DB	02H
	DB	02H
	DB	01aH
	DB	089H
	DB	055H
	DB	02eH
	DB	02eH
	DB	02aH
	DB	015H
	DB	02H
	DB	0c1H
	DB	0ceH
	DB	07H
	DB	0cfH
	DB	07H
	DB	07H
	DB	07H
	DB	07H
	DB	07H
	DB	07H
	DB	07H
	DB	07H
	DB	07H
	DB	07H
	DB	07H
	DB	07H
	DB	07H
	DB	07H
	DB	07H
	DB	07H
	DB	07H
	DB	07H
	DB	07H
	DB	07H
	DB	07H
	DB	07H
	DB	07H
	DB	07H
	DB	07H
	DB	07H
	DB	07H
	DB	07H
	DB	07H
	DB	07H
	DB	07H
	DB	07H
	DB	07H
	DB	07H
	DB	07H
	DB	07H
	DB	07H
	DB	07H
	DB	07H
	DB	07H
	DB	07H
	DB	07H
	DB	07H
	DB	07H
	DB	03eH
	DB	01fH
	DB	02eH
	DB	039H
	DB	03dH
	DB	02eH
	DB	02dH
	DB	027H
	DB	0cH
	DB	0fH
	DB	02aH
	DB	01dH
	DB	02eH
	DB	030H
	DB	042H
	DB	022H
	DB	028H
	DB	0bH
	DB	01bH
	DB	02aH
	DB	022H
	DB	02dH
	DB	07cH
	DB	038H
	DB	01fH
	DB	030H
	DB	02dH
	DB	01dH
	DB	022H
	DB	02eH
	DB	02dH
	DB	013H
	DB	04bH
	DB	028H
	DB	037H
	DB	02aH
	DB	018H
	DB	0cH
	DB	01bH
	DB	020H
	DB	013H
	DB	02dH
	DB	03aH
	DB	0fH
	DB	018H
	DB	0cH
	DB	0cH
	DB	034H
	DB	034H
	DB	02fH
	DB	037H
	DB	037H
	DB	0fH
	DB	0fH
	DB	027H
	DB	013H
	DB	013H
	DB	0bH
	DB	01bH
	DB	013H
	DB	0bH
	DB	0bH
	DB	0cH
	DB	028H
	DB	0cH
	DB	013H
	DB	0cH
	DB	010H
	DB	01aH
	DB	02H
	DB	02H
	DB	02H
	DB	010H
	DB	013H
	DB	041H
	DB	04bH
	DB	01aH
	DB	035H
	DB	017H
	DB	017H
	DB	02H
	DB	02H
	DB	017H
	DB	0bH
	DB	02H
	DB	02H
	DB	02H
	DB	02H
	DB	02H
	DB	02H
	DB	02H
	DB	017H
	DB	0bH
	DB	03dH
	DB	037H
	DB	034H
	DB	034H
	DB	01dH
	DB	01dH
	DB	02dH
	DB	022H
	DB	02eH
	DB	045H
	DB	04dH
	DB	04dH
	DB	055H
	DB	066H
	DB	066H
	DB	030H
	DB	037H
	DB	018H
	DB	02aH
	DB	022H
	DB	03bH
	DB	042H
	DB	042H
	DB	047H
	DB	0fH
	DB	0fH
	DB	04eH
	DB	04dH
	DB	027H
	DB	02aH
	DB	02aH
	DB	027H
	DB	075H
	DB	030H
	DB	05eH
	DB	047H
	DB	02eH
	DB	02eH
	DB	03aH
	DB	027H
	DB	02dH
	DB	02dH
	DB	031H
	DB	028H
	DB	027H
	DB	027H
	DB	013H
	DB	01eH
	DB	02dH
	DB	055H
	DB	02eH
	DB	022H
	DB	037H
	DB	02dH
	DB	034H
	DB	034H
	DB	037H
	DB	022H
	DB	018H
	DB	041H
	DB	018H
	DB	02dH
	DB	0fH
	DB	02fH
	DB	0cH
	DB	0fH
	DB	0fH
	DB	027H
	DB	02aH
	DB	01dH
	DB	037H
	DB	0fH
	DB	020H
	DB	017H
	DB	04aH
	DB	0e4H
	DB	04aH
	DB	02H
	DB	02H
	DB	01aH
	DB	02dH
	DB	02eH
	DB	037H
	DB	037H
	DB	037H
	DB	028H
	DB	0bH
	DB	030H
	DB	0cfH
	DB	07H
	DB	07H
	DB	07H
	DB	07H
	DB	07H
	DB	07H
	DB	07H
	DB	07H
	DB	07H
	DB	07H
	DB	07H
	DB	07H
	DB	07H
	DB	07H
	DB	07H
	DB	07H
	DB	07H
	DB	07H
	DB	07H
	DB	07H
	DB	07H
	DB	07H
	DB	0d5H
	DB	081H
	DB	081H
	DB	081H
	DB	081H
	DB	03cH
	DB	07H
	DB	07H
	DB	07H
	DB	07H
	DB	07H
	DB	07H
	DB	07H
	DB	07H
	DB	07H
	DB	07H
	DB	07H
	DB	07H
	DB	07H
	DB	07H
	DB	07H
	DB	07H
	DB	07H
	DB	07H
	DB	07H
	DB	07H
	DB	07H
	DB	07H
	DB	07H
	DB	0cfH
	DB	01fH
	DB	0fH
	DB	018H
	DB	018H
	DB	01dH
	DB	02aH
	DB	018H
	DB	03dH
	DB	03dH
	DB	0fH
	DB	0cH
	DB	01bH
	DB	0cH
	DB	0cH
	DB	0fH
	DB	040H
	DB	03bH
	DB	0cH
	DB	018H
	DB	01dH
	DB	02eH
	DB	039H
	DB	01dH
	DB	0fH
	DB	037H
	DB	02fH
	DB	020H
	DB	01bH
	DB	01eH
	DB	01eH
	DB	018H
	DB	0fH
	DB	027H
	DB	034H
	DB	013H
	DB	02aH
	DB	022H
	DB	0fH
	DB	0fH
	DB	028H
	DB	03fH
	DB	0fH
	DB	0fH
	DB	03aH
	DB	0cH
	DB	018H
	DB	0fH
	DB	03aH
	DB	0cH
	DB	027H
	DB	0fH
	DB	0cH
	DB	013H
	DB	0cH
	DB	028H
	DB	028H
	DB	0cH
	DB	028H
	DB	028H
	DB	0cH
	DB	028H
	DB	028H
	DB	027H
	DB	010H
	DB	017H
	DB	010H
	DB	010H
	DB	04bH
	DB	027H
	DB	0fH
	DB	027H
	DB	013H
	DB	010H
	DB	0bH
	DB	017H
	DB	01aH
	DB	017H
	DB	017H
	DB	017H
	DB	02H
	DB	02H
	DB	02H
	DB	02H
	DB	02H
	DB	010H
	DB	010H
	DB	01eH
	DB	031H
	DB	028H
	DB	0fH
	DB	027H
	DB	02dH
	DB	055H
	DB	045H
	DB	096H
	DB	039H
	DB	01dH
	DB	02aH
	DB	041H
	DB	089H
	DB	02eH
	DB	03dH
	DB	01dH
	DB	039H
	DB	0cH
	DB	01aH
	DB	0bH
	DB	047H
	DB	030H
	DB	042H
	DB	03dH
	DB	022H
	DB	03dH
	DB	01dH
	DB	03fH
	DB	04eH
	DB	04eH
	DB	02eH
	DB	07cH
	DB	022H
	DB	03dH
	DB	02eH
	DB	030H
	DB	043H
	DB	043H
	DB	02eH
	DB	03fH
	DB	02dH
	DB	039H
	DB	01dH
	DB	028H
	DB	027H
	DB	018H
	DB	0cH
	DB	013H
	DB	0cH
	DB	018H
	DB	03fH
	DB	02dH
	DB	032H
	DB	032H
	DB	032H
	DB	027H
	DB	027H
	DB	039H
	DB	05eH
	DB	03dH
	DB	01dH
	DB	02aH
	DB	042H
	DB	03dH
	DB	02aH
	DB	03fH
	DB	03fH
	DB	03fH
	DB	0fH
	DB	031H
	DB	01bH
	DB	017H
	DB	02H
	DB	02H
	DB	02H
	DB	017H
	DB	010H
	DB	02H
	DB	01aH
	DB	089H
	DB	038H
	DB	01fH
	DB	05eH
	DB	03bH
	DB	053H
	DB	03eH
	DB	07H
	DB	07H
	DB	07H
	DB	07H
	DB	07H
	DB	07H
	DB	07H
	DB	07H
	DB	07H
	DB	07H
	DB	07H
	DB	07H
	DB	07H
	DB	07H
	DB	019H
	DB	025H
	DB	0bbH
	DB	029H
	DB	023H
	DB	021H
	DB	014H
	DB	095H
	DB	0aH
	DB	0aH
	DB	0aH
	DB	0aH
	DB	0aH
	DB	0aH
	DB	0aH
	DB	0aH
	DB	0aH
	DB	0aH
	DB	0aH
	DB	0aH
	DB	0aH
	DB	095H
	DB	014H
	DB	014H
	DB	014H
	DB	0e0H
	DB	023H
	DB	0ffH
	DB	0bbH
	DB	0baH
	DB	019H
	DB	07H
	DB	07H
	DB	07H
	DB	07H
	DB	07H
	DB	07H
	DB	07H
	DB	07H
	DB	07H
	DB	07H
	DB	07H
	DB	07H
	DB	07H
	DB	07H
	DB	0cfH
	DB	01fH
	DB	03fH
	DB	013H
	DB	02aH
	DB	0fH
	DB	041H
	DB	041H
	DB	027H
	DB	0fH
	DB	01bH
	DB	013H
	DB	06bH
	DB	07bH
	DB	034H
	DB	04dH
	DB	04eH
	DB	01dH
	DB	01dH
	DB	02dH
	DB	027H
	DB	0fH
	DB	034H
	DB	020H
	DB	097H
	DB	0c5H
	DB	01cH
	DB	0cH
	DB	0fH
	DB	0fH
	DB	0fH
	DB	027H
	DB	013H
	DB	013H
	DB	031H
	DB	02fH
	DB	0cH
	DB	018H
	DB	03aH
	DB	03aH
	DB	0fH
	DB	041H
	DB	0cH
	DB	0fH
	DB	03aH
	DB	027H
	DB	028H
	DB	028H
	DB	0cH
	DB	0cH
	DB	034H
	DB	0bH
	DB	01eH
	DB	01bH
	DB	017H
	DB	020H
	DB	028H
	DB	0cH
	DB	01bH
	DB	0cH
	DB	010H
	DB	010H
	DB	04bH
	DB	04bH
	DB	04bH
	DB	0fH
	DB	0fH
	DB	0cH
	DB	01bH
	DB	01bH
	DB	0bH
	DB	01aH
	DB	017H
	DB	017H
	DB	02H
	DB	02H
	DB	02H
	DB	02H
	DB	035H
	DB	0bH
	DB	010H
	DB	0cH
	DB	013H
	DB	028H
	DB	076H
	DB	013H
	DB	041H
	DB	03fH
	DB	039H
	DB	045H
	DB	01dH
	DB	02eH
	DB	022H
	DB	0cH
	DB	010H
	DB	018H
	DB	01dH
	DB	02dH
	DB	027H
	DB	041H
	DB	01dH
	DB	096H
	DB	027H
	DB	041H
	DB	02aH
	DB	037H
	DB	098H
	DB	04eH
	DB	018H
	DB	018H
	DB	01dH
	DB	018H
	DB	018H
	DB	01dH
	DB	07cH
	DB	056H
	DB	02aH
	DB	02aH
	DB	022H
	DB	022H
	DB	01dH
	DB	04eH
	DB	04eH
	DB	045H
	DB	055H
	DB	039H
	DB	039H
	DB	047H
	DB	03aH
	DB	013H
	DB	04aH
	DB	02aH
	DB	04aH
	DB	017H
	DB	04aH
	DB	03dH
	DB	040H
	DB	065H
	DB	0cH
	DB	02aH
	DB	039H
	DB	066H
	DB	030H
	DB	039H
	DB	022H
	DB	0b1H
	DB	0cbH
	DB	037H
	DB	03fH
	DB	03bH
	DB	03bH
	DB	022H
	DB	054H
	DB	013H
	DB	02H
	DB	02H
	DB	02H
	DB	02H
	DB	02H
	DB	010H
	DB	027H
	DB	0fH
	DB	039H
	DB	057H
	DB	057H
	DB	0cfH
	DB	07H
	DB	07H
	DB	07H
	DB	07H
	DB	07H
	DB	07H
	DB	07H
	DB	07H
	DB	07H
	DB	07H
	DB	07H
	DB	07H
	DB	019H
	DB	02bH
	DB	029H
	DB	021H
	DB	011H
	DB	0aH
	DB	0aH
	DB	0aH
	DB	0aH
	DB	0aH
	DB	0aH
	DB	0aH
	DB	0aH
	DB	0aH
	DB	0aH
	DB	0aH
	DB	0aH
	DB	0aH
	DB	0aH
	DB	0aH
	DB	0aH
	DB	0aH
	DB	0aH
	DB	0aH
	DB	0aH
	DB	0aH
	DB	0aH
	DB	0aH
	DB	0aH
	DB	0aH
	DB	0aH
	DB	0aH
	DB	0aH
	DB	0aH
	DB	0aH
	DB	0aH
	DB	0aH
	DB	0aH
	DB	011H
	DB	021H
	DB	029H
	DB	0dbH
	DB	081H
	DB	07H
	DB	07H
	DB	07H
	DB	07H
	DB	07H
	DB	07H
	DB	07H
	DB	07H
	DB	07H
	DB	07H
	DB	07H
	DB	07H
	DB	03eH
	DB	05eH
	DB	01dH
	DB	045H
	DB	022H
	DB	03aH
	DB	01aH
	DB	010H
	DB	076H
	DB	07bH
	DB	032H
	DB	027H
	DB	02dH
	DB	03fH
	DB	01dH
	DB	022H
	DB	045H
	DB	01dH
	DB	034H
	DB	015H
	DB	097H
	DB	097H
	DB	0c5H
	DB	0cH
	DB	01dH
	DB	022H
	DB	02dH
	DB	0cH
	DB	010H
	DB	04bH
	DB	04aH
	DB	013H
	DB	03aH
	DB	034H
	DB	013H
	DB	0fH
	DB	01dH
	DB	03fH
	DB	041H
	DB	018H
	DB	075H
	DB	0cH
	DB	0bH
	DB	01bH
	DB	028H
	DB	0fH
	DB	027H
	DB	01aH
	DB	0bH
	DB	0bH
	DB	01aH
	DB	02H
	DB	0bH
	DB	0bH
	DB	017H
	DB	010H
	DB	010H
	DB	010H
	DB	010H
	DB	0bH
	DB	010H
	DB	01bH
	DB	020H
	DB	017H
	DB	010H
	DB	01bH
	DB	013H
	DB	0bH
	DB	010H
	DB	017H
	DB	02H
	DB	02H
	DB	02H
	DB	017H
	DB	042H
	DB	075H
	DB	034H
	DB	0cH
	DB	013H
	DB	01bH
	DB	01bH
	DB	039H
	DB	039H
	DB	02eH
	DB	043H
	DB	043H
	DB	043H
	DB	02eH
	DB	0fH
	DB	020H
	DB	02H
	DB	01bH
	DB	03aH
	DB	075H
	DB	055H
	DB	02eH
	DB	02dH
	DB	01dH
	DB	054H
	DB	01dH
	DB	018H
	DB	0fH
	DB	01dH
	DB	02aH
	DB	027H
	DB	018H
	DB	01dH
	DB	02dH
	DB	01dH
	DB	02eH
	DB	039H
	DB	03aH
	DB	02dH
	DB	039H
	DB	05eH
	DB	0fH
	DB	013H
	DB	010H
	DB	041H
	DB	02eH
	DB	055H
	DB	01dH
	DB	01dH
	DB	039H
	DB	02dH
	DB	0bH
	DB	017H
	DB	013H
	DB	017H
	DB	02H
	DB	04bH
	DB	054H
	DB	06bH
	DB	08aH
	DB	034H
	DB	03fH
	DB	043H
	DB	056H
	DB	039H
	DB	039H
	DB	03bH
	DB	0a5H
	DB	08dH
	DB	037H
	DB	0fH
	DB	065H
	DB	0caH
	DB	08bH
	DB	028H
	DB	02H
	DB	02H
	DB	02H
	DB	015H
	DB	018H
	DB	0e6H
	DB	038H
	DB	038H
	DB	01fH
	DB	0cfH
	DB	07H
	DB	07H
	DB	07H
	DB	07H
	DB	07H
	DB	07H
	DB	07H
	DB	07H
	DB	07H
	DB	07H
	DB	03cH
	DB	0baH
	DB	029H
	DB	09fH
	DB	0aH
	DB	0aH
	DB	0aH
	DB	0aH
	DB	0aH
	DB	0aH
	DB	0aH
	DB	0aH
	DB	0aH
	DB	0aH
	DB	0aH
	DB	0aH
	DB	0aH
	DB	0aH
	DB	0aH
	DB	0aH
	DB	0aH
	DB	0aH
	DB	0aH
	DB	0aH
	DB	0aH
	DB	0aH
	DB	0aH
	DB	0aH
	DB	0aH
	DB	0aH
	DB	0aH
	DB	0aH
	DB	0aH
	DB	0aH
	DB	0aH
	DB	0aH
	DB	0aH
	DB	0aH
	DB	0aH
	DB	0aH
	DB	0aH
	DB	0aH
	DB	0aH
	DB	0aH
	DB	0aH
	DB	0aH
	DB	0aH
	DB	0aH
	DB	0aH
	DB	014H
	DB	0ffH
	DB	02bH
	DB	051H
	DB	07H
	DB	07H
	DB	07H
	DB	07H
	DB	07H
	DB	07H
	DB	07H
	DB	07H
	DB	07H
	DB	07H
	DB	0cfH
	DB	030H
	DB	0fH
	DB	0cH
	DB	027H
	DB	028H
	DB	076H
	DB	032H
	DB	02dH
	DB	045H
	DB	096H
	DB	01dH
	DB	022H
	DB	03dH
	DB	01dH
	DB	027H
	DB	0bH
	DB	0c5H
	DB	097H
	DB	065H
	DB	02dH
	DB	03fH
	DB	01dH
	DB	03aH
	DB	01eH
	DB	028H
	DB	01dH
	DB	027H
	DB	041H
	DB	018H
	DB	041H
	DB	041H
	DB	04eH
	DB	022H
	DB	01dH
	DB	01dH
	DB	01dH
	DB	075H
	DB	034H
	DB	034H
	DB	018H
	DB	04eH
	DB	018H
	DB	0cH
	DB	034H
	DB	034H
	DB	0cH
	DB	06H
	DB	0c1H
	DB	0cH
	DB	01cH
	DB	034H
	DB	0bH
	DB	010H
	DB	0bH
	DB	010H
	DB	01aH
	DB	017H
	DB	02H
	DB	02H
	DB	010H
	DB	010H
	DB	010H
	DB	013H
	DB	013H
	DB	010H
	DB	02H
	DB	02H
	DB	02H
	DB	02H
	DB	0c3H
	DB	08bH
	DB	032H
	DB	034H
	DB	01eH
	DB	0bH
	DB	017H
	DB	02H
	DB	07H
	DB	03eH
	DB	01dH
	DB	01dH
	DB	038H
	DB	057H
	DB	030H
	DB	0cH
	DB	035H
	DB	015H
	DB	01aH
	DB	075H
	DB	043H
	DB	02eH
	DB	03dH
	DB	0fH
	DB	0bH
	DB	0cH
	DB	02aH
	DB	018H
	DB	03fH
	DB	096H
	DB	02dH
	DB	01dH
	DB	022H
	DB	03dH
	DB	01dH
	DB	02dH
	DB	02eH
	DB	039H
	DB	03fH
	DB	054H
	DB	056H
	DB	05eH
	DB	0fH
	DB	013H
	DB	013H
	DB	03fH
	DB	055H
	DB	045H
	DB	045H
	DB	070H
	DB	018H
	DB	02aH
	DB	0cH
	DB	0bH
	DB	027H
	DB	02dH
	DB	075H
	DB	027H
	DB	041H
	DB	02aH
	DB	056H
	DB	05eH
	DB	02eH
	DB	07cH
	DB	054H
	DB	01dH
	DB	043H
	DB	043H
	DB	060H
	DB	065H
	DB	037H
	DB	031H
	DB	01cH
	DB	050H
	DB	050H
	DB	020H
	DB	02H
	DB	01aH
	DB	050H
	DB	0f1H
	DB	0a5H
	DB	0a4H
	DB	03eH
	DB	0cfH
	DB	07H
	DB	07H
	DB	07H
	DB	07H
	DB	07H
	DB	07H
	DB	07H
	DB	07H
	DB	07H
	DB	082H
	DB	0abH
	DB	09fH
	DB	0aH
	DB	0aH
	DB	0aH
	DB	0aH
	DB	0aH
	DB	0aH
	DB	0aH
	DB	0aH
	DB	0aH
	DB	0aH
	DB	0aH
	DB	0aH
	DB	0aH
	DB	0aH
	DB	0aH
	DB	0aH
	DB	0aH
	DB	0aH
	DB	0aH
	DB	0aH
	DB	0aH
	DB	0aH
	DB	0aH
	DB	0aH
	DB	0aH
	DB	0aH
	DB	0aH
	DB	0aH
	DB	0aH
	DB	0aH
	DB	0aH
	DB	0aH
	DB	0aH
	DB	0aH
	DB	0aH
	DB	0aH
	DB	0aH
	DB	0aH
	DB	0aH
	DB	0aH
	DB	0aH
	DB	0aH
	DB	0aH
	DB	0aH
	DB	0aH
	DB	0aH
	DB	0aH
	DB	0aH
	DB	0aH
	DB	0aH
	DB	0aH
	DB	0aH
	DB	0aH
	DB	011H
	DB	0e0H
	DB	02bH
	DB	012H
	DB	07H
	DB	07H
	DB	07H
	DB	07H
	DB	07H
	DB	07H
	DB	07H
	DB	07H
	DB	0cfH
	DB	066H
	DB	02dH
	DB	028H
	DB	018H
	DB	01dH
	DB	01dH
	DB	055H
	DB	055H
	DB	01dH
	DB	01dH
	DB	022H
	DB	018H
	DB	018H
	DB	0cH
	DB	01cH
	DB	0c6H
	DB	07bH
	DB	02dH
	DB	018H
	DB	02aH
	DB	0fH
	DB	031H
	DB	0fH
	DB	022H
	DB	02dH
	DB	01dH
	DB	028H
	DB	013H
	DB	03fH
	DB	02dH
	DB	03fH
	DB	022H
	DB	022H
	DB	02dH
	DB	075H
	DB	0fH
	DB	02dH
	DB	018H
	DB	04aH
	DB	013H
	DB	04aH
	DB	02aH
	DB	0fH
	DB	047H
	DB	075H
	DB	01dH
	DB	0fH
	DB	0cH
	DB	027H
	DB	03aH
	DB	034H
	DB	01bH
	DB	013H
	DB	04bH
	DB	04bH
	DB	04bH
	DB	0bH
	DB	010H
	DB	017H
	DB	010H
	DB	04bH
	DB	035H
	DB	02H
	DB	02H
	DB	02H
	DB	02H
	DB	017H
	DB	098H
	DB	0eaH
	DB	032H
	DB	0cH
	DB	0bH
	DB	015H
	DB	02H
	DB	02H
	DB	07eH
	DB	05aH
	DB	02dH
	DB	013H
	DB	01dH
	DB	02eH
	DB	01dH
	DB	0fH
	DB	075H
	DB	027H
	DB	027H
	DB	055H
	DB	02eH
	DB	02dH
	DB	02aH
	DB	0c7H
	DB	031H
	DB	027H
	DB	02dH
	DB	02dH
	DB	096H
	DB	045H
	DB	045H
	DB	045H
	DB	01dH
	DB	02dH
	DB	02aH
	DB	018H
	DB	018H
	DB	03fH
	DB	045H
	DB	02eH
	DB	045H
	DB	045H
	DB	04eH
	DB	075H
	DB	02dH
	DB	02eH
	DB	045H
	DB	03fH
	DB	02eH
	DB	066H
	DB	05eH
	DB	01dH
	DB	045H
	DB	022H
	DB	01dH
	DB	07cH
	DB	038H
	DB	07cH
	DB	01dH
	DB	02eH
	DB	056H
	DB	022H
	DB	02eH
	DB	02eH
	DB	041H
	DB	013H
	DB	02aH
	DB	054H
	DB	018H
	DB	01bH
	DB	01bH
	DB	017H
	DB	02H
	DB	035H
	DB	01cH
	DB	02H
	DB	01aH
	DB	02dH
	DB	0a5H
	DB	0f3H
	DB	05aH
	DB	07H
	DB	07H
	DB	07H
	DB	07H
	DB	07H
	DB	07H
	DB	07H
	DB	07H
	DB	019H
	DB	016H
	DB	021H
	DB	0a1H
	DB	0aH
	DB	0aH
	DB	0aH
	DB	0aH
	DB	0aH
	DB	0aH
	DB	0aH
	DB	0aH
	DB	0aH
	DB	0aH
	DB	0aH
	DB	0aH
	DB	0aH
	DB	0aH
	DB	0aH
	DB	0aH
	DB	0aH
	DB	0aH
	DB	0aH
	DB	0aH
	DB	0aH
	DB	0aH
	DB	0aH
	DB	0aH
	DB	0aH
	DB	0aH
	DB	0aH
	DB	0aH
	DB	0aH
	DB	0aH
	DB	0aH
	DB	0aH
	DB	0aH
	DB	0aH
	DB	0aH
	DB	0aH
	DB	0aH
	DB	0aH
	DB	0aH
	DB	0aH
	DB	0aH
	DB	0aH
	DB	0aH
	DB	0aH
	DB	0aH
	DB	0aH
	DB	0aH
	DB	0aH
	DB	0aH
	DB	0aH
	DB	0aH
	DB	0aH
	DB	0aH
	DB	0aH
	DB	0aH
	DB	0aH
	DB	0aH
	DB	0aH
	DB	0aH
	DB	0aH
	DB	09fH
	DB	09eH
	DB	081H
	DB	07H
	DB	07H
	DB	07H
	DB	07H
	DB	07H
	DB	07H
	DB	07H
	DB	07H
	DB	03eH
	DB	03dH
	DB	03fH
	DB	04eH
	DB	02eH
	DB	039H
	DB	01dH
	DB	01dH
	DB	028H
	DB	020H
	DB	01bH
	DB	017H
	DB	017H
	DB	050H
	DB	0e9H
	DB	032H
	DB	03aH
	DB	027H
	DB	0cH
	DB	03aH
	DB	0fH
	DB	0fH
	DB	02aH
	DB	022H
	DB	027H
	DB	013H
	DB	02aH
	DB	075H
	DB	02dH
	DB	01dH
	DB	028H
	DB	0fH
	DB	0fH
	DB	02aH
	DB	02aH
	DB	027H
	DB	041H
	DB	027H
	DB	04aH
	DB	04aH
	DB	04aH
	DB	018H
	DB	02aH
	DB	01dH
	DB	0fH
	DB	02fH
	DB	031H
	DB	03aH
	DB	034H
	DB	034H
	DB	027H
	DB	04bH
	DB	04bH
	DB	0cH
	DB	0bH
	DB	02H
	DB	02H
	DB	010H
	DB	0bH
	DB	0bH
	DB	02H
	DB	02H
	DB	02H
	DB	02H
	DB	010H
	DB	037H
	DB	032H
	DB	028H
	DB	034H
	DB	017H
	DB	02H
	DB	02H
	DB	010H
	DB	058H
	DB	07eH
	DB	03eH
	DB	0fH
	DB	010H
	DB	010H
	DB	01aH
	DB	02dH
	DB	038H
	DB	022H
	DB	01dH
	DB	055H
	DB	04eH
	DB	01dH
	DB	01dH
	DB	031H
	DB	022H
	DB	057H
	DB	01fH
	DB	030H
	DB	030H
	DB	056H
	DB	02eH
	DB	03fH
	DB	02dH
	DB	02dH
	DB	04eH
	DB	03fH
	DB	041H
	DB	0c1H
	DB	03fH
	DB	039H
	DB	03dH
	DB	03fH
	DB	096H
	DB	043H
	DB	030H
	DB	030H
	DB	039H
	DB	02dH
	DB	02eH
	DB	038H
	DB	01fH
	DB	043H
	DB	043H
	DB	02eH
	DB	022H
	DB	02aH
	DB	022H
	DB	02eH
	DB	037H
	DB	05eH
	DB	030H
	DB	034H
	DB	0cH
	DB	02dH
	DB	0cH
	DB	0bH
	DB	01bH
	DB	017H
	DB	02H
	DB	02H
	DB	02H
	DB	02H
	DB	01aH
	DB	010H
	DB	01aH
	DB	010H
	DB	02aH
	DB	03eH
	DB	07H
	DB	07H
	DB	07H
	DB	07H
	DB	07H
	DB	07H
	DB	07H
	DB	07H
	DB	019H
	DB	029H
	DB	011H
	DB	0aH
	DB	0aH
	DB	0aH
	DB	0aH
	DB	0aH
	DB	0aH
	DB	0aH
	DB	0aH
	DB	0aH
	DB	0aH
	DB	0aH
	DB	0aH
	DB	0aH
	DB	0aH
	DB	0aH
	DB	0aH
	DB	0aH
	DB	0aH
	DB	0aH
	DB	0aH
	DB	0aH
	DB	0aH
	DB	0aH
	DB	0aH
	DB	0aH
	DB	0aH
	DB	0aH
	DB	0aH
	DB	0aH
	DB	0aH
	DB	0aH
	DB	0aH
	DB	0aH
	DB	0aH
	DB	0aH
	DB	0aH
	DB	0aH
	DB	0aH
	DB	0aH
	DB	0aH
	DB	0aH
	DB	0aH
	DB	0aH
	DB	0aH
	DB	0aH
	DB	0aH
	DB	0aH
	DB	0aH
	DB	0aH
	DB	0aH
	DB	0aH
	DB	0aH
	DB	0aH
	DB	0aH
	DB	0aH
	DB	0aH
	DB	0aH
	DB	0aH
	DB	0aH
	DB	0aH
	DB	0aH
	DB	0aH
	DB	0aH
	DB	0aH
	DB	0aH
	DB	0aH
	DB	0aH
	DB	095H
	DB	09eH
	DB	051H
	DB	07H
	DB	07H
	DB	07H
	DB	07H
	DB	07H
	DB	07H
	DB	07H
	DB	07H
	DB	01fH
	DB	03dH
	DB	039H
	DB	03aH
	DB	010H
	DB	02H
	DB	02H
	DB	02H
	DB	02H
	DB	02H
	DB	01cH
	DB	0c6H
	DB	0e7H
	DB	032H
	DB	041H
	DB	027H
	DB	03aH
	DB	047H
	DB	0fH
	DB	0cH
	DB	028H
	DB	027H
	DB	018H
	DB	0fH
	DB	0fH
	DB	075H
	DB	0bH
	DB	017H
	DB	01bH
	DB	02aH
	DB	03fH
	DB	018H
	DB	018H
	DB	041H
	DB	0cH
	DB	028H
	DB	0cH
	DB	013H
	DB	04aH
	DB	02aH
	DB	0fH
	DB	0fH
	DB	076H
	DB	031H
	DB	01bH
	DB	013H
	DB	03aH
	DB	0fH
	DB	013H
	DB	010H
	DB	01bH
	DB	01bH
	DB	01aH
	DB	010H
	DB	0bH
	DB	015H
	DB	015H
	DB	017H
	DB	02H
	DB	02H
	DB	02H
	DB	01bH
	DB	0fH
	DB	0cH
	DB	028H
	DB	0cH
	DB	035H
	DB	035H
	DB	01bH
	DB	0bH
	DB	0b2H
	DB	07eH
	DB	079H
	DB	038H
	DB	013H
	DB	01aH
	DB	041H
	DB	02eH
	DB	07cH
	DB	02aH
	DB	018H
	DB	03fH
	DB	03fH
	DB	04eH
	DB	01dH
	DB	03fH
	DB	07cH
	DB	078H
	DB	077H
	DB	037H
	DB	022H
	DB	022H
	DB	045H
	DB	03fH
	DB	0fH
	DB	03dH
	DB	054H
	DB	018H
	DB	04eH
	DB	0afH
	DB	038H
	DB	053H
	DB	031H
	DB	027H
	DB	045H
	DB	039H
	DB	02eH
	DB	030H
	DB	02eH
	DB	02eH
	DB	022H
	DB	054H
	DB	02eH
	DB	038H
	DB	043H
	DB	039H
	DB	075H
	DB	034H
	DB	018H
	DB	0fH
	DB	0cH
	DB	0fH
	DB	03bH
	DB	047H
	DB	027H
	DB	0bH
	DB	01aH
	DB	01aH
	DB	02H
	DB	02H
	DB	02H
	DB	02H
	DB	035H
	DB	034H
	DB	010H
	DB	06H
	DB	041H
	DB	01fH
	DB	07H
	DB	07H
	DB	07H
	DB	07H
	DB	07H
	DB	07H
	DB	07H
	DB	051H
	DB	09eH
	DB	095H
	DB	0aH
	DB	0aH
	DB	0aH
	DB	0aH
	DB	0aH
	DB	0aH
	DB	0aH
	DB	0aH
	DB	0aH
	DB	0aH
	DB	0aH
	DB	0aH
	DB	0aH
	DB	0aH
	DB	0aH
	DB	0aH
	DB	0aH
	DB	0aH
	DB	0aH
	DB	0aH
	DB	0aH
	DB	0aH
	DB	0aH
	DB	0aH
	DB	0aH
	DB	0aH
	DB	0aH
	DB	0aH
	DB	0aH
	DB	0aH
	DB	0aH
	DB	0aH
	DB	0aH
	DB	0aH
	DB	0aH
	DB	0aH
	DB	0aH
	DB	0aH
	DB	0aH
	DB	0aH
	DB	0aH
	DB	0aH
	DB	0aH
	DB	0aH
	DB	0aH
	DB	0aH
	DB	0aH
	DB	0aH
	DB	0aH
	DB	0aH
	DB	0aH
	DB	0aH
	DB	0aH
	DB	0aH
	DB	0aH
	DB	0aH
	DB	0aH
	DB	0aH
	DB	0aH
	DB	0aH
	DB	0aH
	DB	0aH
	DB	0aH
	DB	0aH
	DB	0aH
	DB	0aH
	DB	0aH
	DB	0aH
	DB	0aH
	DB	0aH
	DB	0aH
	DB	0aH
	DB	0aH
	DB	09fH
	DB	0dbH
	DB	0d3H
	DB	07H
	DB	07H
	DB	07H
	DB	07H
	DB	07H
	DB	07H
	DB	07H
	DB	03eH
	DB	047H
	DB	0bH
	DB	02H
	DB	01aH
	DB	010H
	DB	01aH
	DB	02H
	DB	02H
	DB	050H
	DB	0b1H
	DB	03bH
	DB	096H
	DB	075H
	DB	028H
	DB	037H
	DB	0fH
	DB	034H
	DB	01bH
	DB	04dH
	DB	0fH
	DB	0fH
	DB	0fH
	DB	034H
	DB	02H
	DB	02H
	DB	017H
	DB	039H
	DB	075H
	DB	0cH
	DB	0cH
	DB	027H
	DB	018H
	DB	03aH
	DB	03aH
	DB	0fH
	DB	028H
	DB	028H
	DB	03fH
	DB	027H
	DB	028H
	DB	0cH
	DB	04bH
	DB	041H
	DB	027H
	DB	04aH
	DB	013H
	DB	017H
	DB	017H
	DB	04bH
	DB	034H
	DB	034H
	DB	0bH
	DB	01aH
	DB	02H
	DB	017H
	DB	017H
	DB	02H
	DB	017H
	DB	028H
	DB	0cH
	DB	034H
	DB	01eH
	DB	031H
	DB	02fH
	DB	034H
	DB	035H
	DB	01aH
	DB	02eH
	DB	01fH
	DB	078H
	DB	058H
	DB	0fH
	DB	013H
	DB	054H
	DB	02aH
	DB	010H
	DB	017H
	DB	013H
	DB	03fH
	DB	01dH
	DB	01dH
	DB	02dH
	DB	018H
	DB	02aH
	DB	054H
	DB	0cH
	DB	0bH
	DB	03fH
	DB	01dH
	DB	01dH
	DB	02dH
	DB	01dH
	DB	03dH
	DB	02aH
	DB	01bH
	DB	0bH
	DB	04eH
	DB	058H
	DB	0a3H
	DB	01bH
	DB	017H
	DB	018H
	DB	045H
	DB	02eH
	DB	053H
	DB	07cH
	DB	02eH
	DB	022H
	DB	01dH
	DB	01dH
	DB	022H
	DB	022H
	DB	01dH
	DB	045H
	DB	096H
	DB	045H
	DB	018H
	DB	027H
	DB	075H
	DB	047H
	DB	05eH
	DB	018H
	DB	02H
	DB	02H
	DB	02H
	DB	01aH
	DB	02H
	DB	02H
	DB	017H
	DB	0cH
	DB	047H
	DB	01fH
	DB	0cfH
	DB	07H
	DB	07H
	DB	07H
	DB	07H
	DB	07H
	DB	07H
	DB	03cH
	DB	02bH
	DB	09fH
	DB	0aH
	DB	0aH
	DB	0aH
	DB	0aH
	DB	0aH
	DB	0aH
	DB	0aH
	DB	0aH
	DB	0aH
	DB	0aH
	DB	0aH
	DB	0aH
	DB	0aH
	DB	0aH
	DB	0aH
	DB	0aH
	DB	0aH
	DB	0aH
	DB	0aH
	DB	0aH
	DB	0aH
	DB	0aH
	DB	0aH
	DB	0aH
	DB	0aH
	DB	0aH
	DB	0aH
	DB	0aH
	DB	0aH
	DB	0aH
	DB	0aH
	DB	0aH
	DB	0aH
	DB	0aH
	DB	0aH
	DB	0aH
	DB	0aH
	DB	0aH
	DB	0aH
	DB	0aH
	DB	0aH
	DB	0aH
	DB	0aH
	DB	0aH
	DB	0aH
	DB	0aH
	DB	0aH
	DB	0aH
	DB	0aH
	DB	0aH
	DB	0aH
	DB	0aH
	DB	0aH
	DB	0aH
	DB	0aH
	DB	0aH
	DB	0aH
	DB	0aH
	DB	0aH
	DB	0aH
	DB	0aH
	DB	0aH
	DB	0aH
	DB	0aH
	DB	0aH
	DB	0aH
	DB	0aH
	DB	0aH
	DB	0aH
	DB	0aH
	DB	0aH
	DB	0aH
	DB	0aH
	DB	0aH
	DB	0aH
	DB	0aH
	DB	0aH
	DB	0aH
	DB	0aH
	DB	0e0H
	DB	0baH
	DB	07H
	DB	07H
	DB	07H
	DB	07H
	DB	07H
	DB	07H
	DB	07H
	DB	03eH
	DB	037H
	DB	01dH
	DB	039H
	DB	047H
	DB	032H
	DB	0bH
	DB	017H
	DB	065H
	DB	0eaH
	DB	01dH
	DB	02dH
	DB	02aH
	DB	0fH
	DB	027H
	DB	03aH
	DB	013H
	DB	013H
	DB	028H
	DB	0fH
	DB	03aH
	DB	03aH
	DB	01aH
	DB	02H
	DB	018H
	DB	030H
	DB	03aH
	DB	013H
	DB	013H
	DB	013H
	DB	018H
	DB	027H
	DB	027H
	DB	0fH
	DB	0cH
	DB	04dH
	DB	0c4H
	DB	03fH
	DB	027H
	DB	04aH
	DB	04aH
	DB	027H
	DB	041H
	DB	013H
	DB	013H
	DB	017H
	DB	010H
	DB	04bH
	DB	013H
	DB	0bH
	DB	0bH
	DB	01aH
	DB	02H
	DB	02H
	DB	017H
	DB	0bH
	DB	031H
	DB	028H
	DB	01bH
	DB	0bH
	DB	0bH
	DB	01eH
	DB	01cH
	DB	0bH
	DB	0bH
	DB	0bH
	DB	01dH
	DB	039H
	DB	01fH
	DB	01fH
	DB	05eH
	DB	0fH
	DB	018H
	DB	013H
	DB	010H
	DB	010H
	DB	027H
	DB	054H
	DB	055H
	DB	01dH
	DB	047H
	DB	02fH
	DB	020H
	DB	01bH
	DB	013H
	DB	041H
	DB	027H
	DB	02dH
	DB	039H
	DB	043H
	DB	039H
	DB	028H
	DB	013H
	DB	0cH
	DB	034H
	DB	0bH
	DB	018H
	DB	027H
	DB	017H
	DB	02H
	DB	013H
	DB	01dH
	DB	047H
	DB	042H
	DB	02eH
	DB	022H
	DB	022H
	DB	02aH
	DB	04eH
	DB	01dH
	DB	01dH
	DB	04eH
	DB	054H
	DB	02eH
	DB	043H
	DB	039H
	DB	02dH
	DB	02dH
	DB	02dH
	DB	018H
	DB	04bH
	DB	01aH
	DB	027H
	DB	022H
	DB	01cH
	DB	02H
	DB	02H
	DB	010H
	DB	045H
	DB	07H
	DB	07H
	DB	07H
	DB	07H
	DB	07H
	DB	07H
	DB	07H
	DB	051H
	DB	029H
	DB	0a1H
	DB	0aH
	DB	0aH
	DB	0aH
	DB	0aH
	DB	0aH
	DB	0aH
	DB	0aH
	DB	0aH
	DB	0aH
	DB	0aH
	DB	0aH
	DB	0aH
	DB	0aH
	DB	0aH
	DB	0aH
	DB	0aH
	DB	0aH
	DB	0aH
	DB	0aH
	DB	0aH
	DB	0aH
	DB	0aH
	DB	0aH
	DB	0aH
	DB	0aH
	DB	0aH
	DB	0aH
	DB	0aH
	DB	0aH
	DB	0aH
	DB	088H
	DB	088H
	DB	04fH
	DB	04fH
	DB	06aH
	DB	00H
	DB	00H
	DB	00H
	DB	064H
	DB	0adH
	DB	0adH
	DB	059H
	DB	0adH
	DB	00H
	DB	00H
	DB	00H
	DB	06aH
	DB	04fH
	DB	04fH
	DB	04fH
	DB	04fH
	DB	088H
	DB	088H
	DB	0aH
	DB	0aH
	DB	0aH
	DB	0aH
	DB	0aH
	DB	0aH
	DB	0aH
	DB	0aH
	DB	0aH
	DB	0aH
	DB	0aH
	DB	0aH
	DB	0aH
	DB	0aH
	DB	0aH
	DB	0aH
	DB	0aH
	DB	0aH
	DB	0aH
	DB	0aH
	DB	0aH
	DB	0aH
	DB	0aH
	DB	0aH
	DB	0aH
	DB	0aH
	DB	0aH
	DB	0aH
	DB	0aH
	DB	0aH
	DB	011H
	DB	029H
	DB	051H
	DB	07H
	DB	07H
	DB	07H
	DB	07H
	DB	07H
	DB	07H
	DB	03eH
	DB	056H
	DB	042H
	DB	060H
	DB	0cH
	DB	02H
	DB	0c3H
	DB	0eaH
	DB	02fH
	DB	0bH
	DB	02aH
	DB	02aH
	DB	02aH
	DB	01dH
	DB	018H
	DB	0bH
	DB	0cH
	DB	02dH
	DB	018H
	DB	0fH
	DB	075H
	DB	0fH
	DB	03bH
	DB	047H
	DB	0cH
	DB	028H
	DB	02fH
	DB	01eH
	DB	0cH
	DB	013H
	DB	018H
	DB	027H
	DB	01aH
	DB	04bH
	DB	04dH
	DB	027H
	DB	013H
	DB	013H
	DB	027H
	DB	027H
	DB	018H
	DB	041H
	DB	010H
	DB	0bH
	DB	01aH
	DB	010H
	DB	013H
	DB	034H
	DB	01aH
	DB	017H
	DB	017H
	DB	02H
	DB	02H
	DB	01eH
	DB	028H
	DB	017H
	DB	017H
	DB	010H
	DB	010H
	DB	017H
	DB	017H
	DB	04bH
	DB	04dH
	DB	013H
	DB	041H
	DB	0b0H
	DB	057H
	DB	03eH
	DB	066H
	DB	02eH
	DB	045H
	DB	03fH
	DB	034H
	DB	013H
	DB	01eH
	DB	0fH
	DB	02eH
	DB	02eH
	DB	047H
	DB	028H
	DB	0cH
	DB	034H
	DB	013H
	DB	041H
	DB	027H
	DB	096H
	DB	039H
	DB	043H
	DB	056H
	DB	02aH
	DB	041H
	DB	0afH
	DB	045H
	DB	027H
	DB	043H
	DB	066H
	DB	0bH
	DB	02H
	DB	013H
	DB	02eH
	DB	0fH
	DB	027H
	DB	03fH
	DB	045H
	DB	01dH
	DB	027H
	DB	01dH
	DB	02eH
	DB	045H
	DB	03fH
	DB	027H
	DB	0fH
	DB	022H
	DB	047H
	DB	02dH
	DB	047H
	DB	027H
	DB	017H
	DB	017H
	DB	03fH
	DB	057H
	DB	0e7H
	DB	015H
	DB	017H
	DB	043H
	DB	0cfH
	DB	07H
	DB	07H
	DB	07H
	DB	07H
	DB	07H
	DB	07H
	DB	0d5H
	DB	0ffH
	DB	088H
	DB	0aH
	DB	0aH
	DB	0aH
	DB	0aH
	DB	0aH
	DB	0aH
	DB	0aH
	DB	0aH
	DB	0aH
	DB	0aH
	DB	0aH
	DB	0aH
	DB	0aH
	DB	0aH
	DB	0aH
	DB	0aH
	DB	0aH
	DB	0aH
	DB	0aH
	DB	0aH
	DB	0aH
	DB	0aH
	DB	0aH
	DB	0aH
	DB	0aH
	DB	088H
	DB	04fH
	DB	00H
	DB	06fH
	DB	0adH
	DB	063H
	DB	052H
	DB	067H
	DB	090H
	DB	049H
	DB	0d7H
	DB	071H
	DB	0eH
	DB	0eH
	DB	0eH
	DB	0eH
	DB	0eH
	DB	0eH
	DB	0eH
	DB	0eH
	DB	0eH
	DB	0eH
	DB	0eH
	DB	0eH
	DB	0d7H
	DB	0d7H
	DB	046H
	DB	05bH
	DB	05cH
	DB	067H
	DB	052H
	DB	024H
	DB	059H
	DB	06fH
	DB	05fH
	DB	06aH
	DB	088H
	DB	0aH
	DB	0aH
	DB	0aH
	DB	0aH
	DB	0aH
	DB	0aH
	DB	0aH
	DB	0aH
	DB	0aH
	DB	0aH
	DB	0aH
	DB	0aH
	DB	0aH
	DB	0aH
	DB	0aH
	DB	0aH
	DB	0aH
	DB	0aH
	DB	0aH
	DB	0aH
	DB	0aH
	DB	0aH
	DB	0aH
	DB	0aH
	DB	0aH
	DB	0aH
	DB	0ffH
	DB	0d5H
	DB	07H
	DB	07H
	DB	07H
	DB	07H
	DB	07H
	DB	07H
	DB	0cfH
	DB	047H
	DB	034H
	DB	02H
	DB	017H
	DB	076H
	DB	032H
	DB	0cH
	DB	022H
	DB	037H
	DB	02aH
	DB	02aH
	DB	018H
	DB	013H
	DB	018H
	DB	01dH
	DB	02dH
	DB	01dH
	DB	022H
	DB	022H
	DB	022H
	DB	03aH
	DB	034H
	DB	01cH
	DB	0c5H
	DB	050H
	DB	034H
	DB	010H
	DB	013H
	DB	013H
	DB	010H
	DB	0c1H
	DB	013H
	DB	010H
	DB	04bH
	DB	013H
	DB	04aH
	DB	041H
	DB	028H
	DB	013H
	DB	010H
	DB	013H
	DB	010H
	DB	010H
	DB	013H
	DB	0bH
	DB	010H
	DB	017H
	DB	02H
	DB	02H
	DB	0bH
	DB	0cH
	DB	01aH
	DB	02H
	DB	02H
	DB	010H
	DB	017H
	DB	017H
	DB	010H
	DB	04bH
	DB	04aH
	DB	013H
	DB	03fH
	DB	0e6H
	DB	057H
	DB	057H
	DB	038H
	DB	02eH
	DB	01dH
	DB	027H
	DB	075H
	DB	022H
	DB	02fH
	DB	027H
	DB	02eH
	DB	03bH
	DB	032H
	DB	018H
	DB	03fH
	DB	034H
	DB	0bH
	DB	018H
	DB	039H
	DB	043H
	DB	022H
	DB	02dH
	DB	039H
	DB	0fH
	DB	04dH
	DB	0afH
	DB	04eH
	DB	054H
	DB	01fH
	DB	05aH
	DB	05aH
	DB	066H
	DB	039H
	DB	03aH
	DB	013H
	DB	013H
	DB	03fH
	DB	055H
	DB	039H
	DB	02dH
	DB	02dH
	DB	022H
	DB	02eH
	DB	01dH
	DB	070H
	DB	075H
	DB	0fH
	DB	0cH
	DB	03aH
	DB	047H
	DB	01eH
	DB	02H
	DB	02H
	DB	01dH
	DB	01fH
	DB	015H
	DB	015H
	DB	03eH
	DB	07H
	DB	07H
	DB	07H
	DB	07H
	DB	07H
	DB	07H
	DB	019H
	DB	023H
	DB	0aH
	DB	0aH
	DB	0aH
	DB	0aH
	DB	0aH
	DB	0aH
	DB	0aH
	DB	0aH
	DB	0aH
	DB	0aH
	DB	0aH
	DB	0aH
	DB	0aH
	DB	0aH
	DB	0aH
	DB	0aH
	DB	0aH
	DB	0aH
	DB	0aH
	DB	0aH
	DB	0aH
	DB	0aH
	DB	0aH
	DB	0aH
	DB	06aH
	DB	064H
	DB	059H
	DB	062H
	DB	0faH
	DB	05bH
	DB	0a6H
	DB	0eH
	DB	0eH
	DB	0eH
	DB	0eH
	DB	0eH
	DB	0eH
	DB	0eH
	DB	0eH
	DB	0eH
	DB	0eH
	DB	0eH
	DB	0eH
	DB	0eH
	DB	0eH
	DB	0eH
	DB	0eH
	DB	0eH
	DB	0eH
	DB	0eH
	DB	0eH
	DB	0eH
	DB	0eH
	DB	0eH
	DB	0eH
	DB	0eH
	DB	0eH
	DB	0eH
	DB	0eH
	DB	0eH
	DB	0eH
	DB	0eH
	DB	0a6H
	DB	05bH
	DB	06dH
	DB	0daH
	DB	059H
	DB	064H
	DB	00H
	DB	088H
	DB	0aH
	DB	0aH
	DB	0aH
	DB	0aH
	DB	0aH
	DB	0aH
	DB	0aH
	DB	0aH
	DB	0aH
	DB	0aH
	DB	0aH
	DB	0aH
	DB	0aH
	DB	0aH
	DB	0aH
	DB	0aH
	DB	0aH
	DB	0aH
	DB	0aH
	DB	0aH
	DB	0aH
	DB	0aH
	DB	0aH
	DB	0e0H
	DB	019H
	DB	07H
	DB	07H
	DB	07H
	DB	07H
	DB	07H
	DB	07H
	DB	0cfH
	DB	0cH
	DB	02H
	DB	020H
	DB	060H
	DB	040H
	DB	042H
	DB	032H
	DB	047H
	DB	03fH
	DB	03fH
	DB	04eH
	DB	04eH
	DB	018H
	DB	02aH
	DB	018H
	DB	028H
	DB	022H
	DB	01dH
	DB	031H
	DB	034H
	DB	0bH
	DB	01cH
	DB	0cH
	DB	0cH
	DB	0cH
	DB	0cH
	DB	04aH
	DB	018H
	DB	0fH
	DB	027H
	DB	013H
	DB	04bH
	DB	04aH
	DB	028H
	DB	0cH
	DB	013H
	DB	013H
	DB	04bH
	DB	010H
	DB	0bH
	DB	013H
	DB	01cH
	DB	0bH
	DB	010H
	DB	017H
	DB	02H
	DB	010H
	DB	028H
	DB	01bH
	DB	02H
	DB	01aH
	DB	0bH
	DB	017H
	DB	017H
	DB	01bH
	DB	0cH
	DB	04bH
	DB	034H
	DB	04aH
	DB	04eH
	DB	04eH
	DB	055H
	DB	038H
	DB	02eH
	DB	01dH
	DB	02dH
	DB	039H
	DB	057H
	DB	01fH
	DB	03dH
	DB	045H
	DB	030H
	DB	032H
	DB	01eH
	DB	01bH
	DB	027H
	DB	096H
	DB	01dH
	DB	08aH
	DB	030H
	DB	043H
	DB	022H
	DB	027H
	DB	027H
	DB	027H
	DB	03fH
	DB	01dH
	DB	02aH
	DB	031H
	DB	06bH
	DB	05aH
	DB	07eH
	DB	07fH
	DB	07H
	DB	066H
	DB	047H
	DB	027H
	DB	0cH
	DB	01dH
	DB	05eH
	DB	037H
	DB	0fH
	DB	02dH
	DB	03dH
	DB	054H
	DB	045H
	DB	043H
	DB	022H
	DB	034H
	DB	0cH
	DB	028H
	DB	017H
	DB	02H
	DB	02H
	DB	010H
	DB	0bH
	DB	05eH
	DB	07H
	DB	07H
	DB	07H
	DB	07H
	DB	07H
	DB	07H
	DB	019H
	DB	023H
	DB	0aH
	DB	0aH
	DB	0aH
	DB	088H
	DB	0aH
	DB	0aH
	DB	0aH
	DB	0aH
	DB	0aH
	DB	0aH
	DB	0aH
	DB	0aH
	DB	0aH
	DB	0aH
	DB	0aH
	DB	0aH
	DB	0aH
	DB	0aH
	DB	0aH
	DB	0aH
	DB	0aH
	DB	0aH
	DB	04fH
	DB	064H
	DB	0bfH
	DB	074H
	DB	08eH
	DB	071H
	DB	0eH
	DB	0eH
	DB	0eH
	DB	0eH
	DB	0eH
	DB	0eH
	DB	0eH
	DB	0b6H
	DB	02cH
	DB	08H
	DB	026H
	DB	026H
	DB	06H
	DB	06H
	DB	01aH
	DB	02H
	DB	02H
	DB	02H
	DB	02H
	DB	02H
	DB	02H
	DB	02H
	DB	02H
	DB	02H
	DB	02H
	DB	02H
	DB	06H
	DB	06H
	DB	06H
	DB	03H
	DB	026H
	DB	08H
	DB	02cH
	DB	0b6H
	DB	0b6H
	DB	0eH
	DB	0eH
	DB	0eH
	DB	0eH
	DB	0eH
	DB	0eH
	DB	0eH
	DB	05bH
	DB	0faH
	DB	07aH
	DB	059H
	DB	06fH
	DB	0aH
	DB	0aH
	DB	0aH
	DB	0aH
	DB	0aH
	DB	0aH
	DB	0aH
	DB	0aH
	DB	0aH
	DB	0aH
	DB	0aH
	DB	0aH
	DB	0aH
	DB	0aH
	DB	0aH
	DB	0aH
	DB	0aH
	DB	0aH
	DB	0aH
	DB	0aH
	DB	0aH
	DB	0aH
	DB	0aeH
	DB	081H
	DB	07H
	DB	07H
	DB	07H
	DB	07H
	DB	07H
	DB	07H
	DB	030H
	DB	02H
	DB	01eH
	DB	077H
	DB	03bH
	DB	039H
	DB	039H
	DB	02dH
	DB	02dH
	DB	022H
	DB	037H
	DB	031H
	DB	0fH
	DB	034H
	DB	013H
	DB	018H
	DB	018H
	DB	0fH
	DB	0cH
	DB	027H
	DB	027H
	DB	013H
	DB	027H
	DB	027H
	DB	013H
	DB	013H
	DB	018H
	DB	03aH
	DB	034H
	DB	017H
	DB	010H
	DB	013H
	DB	031H
	DB	027H
	DB	041H
	DB	0cH
	DB	034H
	DB	010H
	DB	04aH
	DB	01eH
	DB	0bH
	DB	034H
	DB	0bH
	DB	02H
	DB	02H
	DB	013H
	DB	034H
	DB	0bH
	DB	0bH
	DB	04bH
	DB	0bH
	DB	01aH
	DB	02H
	DB	017H
	DB	01eH
	DB	013H
	DB	013H
	DB	013H
	DB	013H
	DB	010H
	DB	010H
	DB	04eH
	DB	02eH
	DB	01dH
	DB	02dH
	DB	038H
	DB	078H
	DB	01fH
	DB	03dH
	DB	02eH
	DB	05eH
	DB	032H
	DB	0bH
	DB	01aH
	DB	041H
	DB	02eH
	DB	042H
	DB	0caH
	DB	053H
	DB	07cH
	DB	0fH
	DB	027H
	DB	03fH
	DB	03fH
	DB	02dH
	DB	01dH
	DB	03aH
	DB	015H
	DB	020H
	DB	022H
	DB	05aH
	DB	07fH
	DB	07eH
	DB	07H
	DB	07H
	DB	030H
	DB	034H
	DB	018H
	DB	031H
	DB	031H
	DB	02aH
	DB	0fH
	DB	0fH
	DB	027H
	DB	039H
	DB	030H
	DB	0fH
	DB	01cH
	DB	0bH
	DB	010H
	DB	02H
	DB	02H
	DB	01aH
	DB	075H
	DB	0cfH
	DB	07H
	DB	07H
	DB	07H
	DB	07H
	DB	07H
	DB	081H
	DB	0aeH
	DB	0aH
	DB	0aH
	DB	0aH
	DB	0aH
	DB	0aH
	DB	0aH
	DB	0aH
	DB	0aH
	DB	0aH
	DB	0aH
	DB	0aH
	DB	0aH
	DB	0aH
	DB	0aH
	DB	0aH
	DB	0aH
	DB	0aH
	DB	0aH
	DB	0aH
	DB	0aH
	DB	088H
	DB	064H
	DB	063H
	DB	052H
	DB	05cH
	DB	046H
	DB	0eH
	DB	0eH
	DB	0eH
	DB	0eH
	DB	0eH
	DB	033H
	DB	08H
	DB	044H
	DB	06H
	DB	02H
	DB	02H
	DB	02H
	DB	02H
	DB	02H
	DB	02H
	DB	02H
	DB	02H
	DB	02H
	DB	02H
	DB	02H
	DB	02H
	DB	02H
	DB	02H
	DB	02H
	DB	02H
	DB	02H
	DB	02H
	DB	02H
	DB	02H
	DB	02H
	DB	02H
	DB	02H
	DB	02H
	DB	02H
	DB	02H
	DB	02H
	DB	02H
	DB	02H
	DB	02H
	DB	02H
	DB	06H
	DB	044H
	DB	08H
	DB	033H
	DB	0b6H
	DB	0eH
	DB	0eH
	DB	0eH
	DB	0eH
	DB	0eH
	DB	084H
	DB	0faH
	DB	07aH
	DB	069H
	DB	04fH
	DB	0aH
	DB	0aH
	DB	0aH
	DB	0aH
	DB	0aH
	DB	0aH
	DB	0aH
	DB	0aH
	DB	0aH
	DB	0aH
	DB	0aH
	DB	0aH
	DB	0aH
	DB	0aH
	DB	0aH
	DB	0aH
	DB	0aH
	DB	0aH
	DB	0aH
	DB	0aH
	DB	021H
	DB	025H
	DB	07H
	DB	07H
	DB	07H
	DB	07H
	DB	07H
	DB	0cfH
	DB	018H
	DB	0c7H
	DB	022H
	DB	045H
	DB	045H
	DB	02dH
	DB	02dH
	DB	02fH
	DB	020H
	DB	028H
	DB	022H
	DB	070H
	DB	018H
	DB	041H
	DB	041H
	DB	0fH
	DB	02dH
	DB	02dH
	DB	018H
	DB	018H
	DB	0fH
	DB	018H
	DB	013H
	DB	013H
	DB	028H
	DB	03aH
	DB	034H
	DB	017H
	DB	010H
	DB	04bH
	DB	02fH
	DB	028H
	DB	027H
	DB	027H
	DB	027H
	DB	04bH
	DB	04bH
	DB	01bH
	DB	01bH
	DB	01bH
	DB	015H
	DB	02H
	DB	010H
	DB	010H
	DB	0bH
	DB	034H
	DB	013H
	DB	04bH
	DB	010H
	DB	010H
	DB	02H
	DB	02H
	DB	017H
	DB	010H
	DB	01bH
	DB	010H
	DB	03fH
	DB	041H
	DB	010H
	DB	03fH
	DB	022H
	DB	01dH
	DB	045H
	DB	07cH
	DB	053H
	DB	042H
	DB	01dH
	DB	02aH
	DB	01dH
	DB	039H
	DB	02dH
	DB	013H
	DB	02dH
	DB	07cH
	DB	040H
	DB	0ecH
	DB	053H
	DB	01dH
	DB	027H
	DB	070H
	DB	01dH
	DB	022H
	DB	022H
	DB	039H
	DB	039H
	DB	03aH
	DB	01aH
	DB	028H
	DB	0a3H
	DB	058H
	DB	07eH
	DB	07fH
	DB	0d4H
	DB	058H
	DB	01dH
	DB	018H
	DB	035H
	DB	01cH
	DB	018H
	DB	02dH
	DB	03aH
	DB	041H
	DB	01dH
	DB	042H
	DB	037H
	DB	01eH
	DB	017H
	DB	02H
	DB	010H
	DB	03fH
	DB	0cfH
	DB	07H
	DB	07H
	DB	07H
	DB	07H
	DB	07H
	DB	0d5H
	DB	0e0H
	DB	0aH
	DB	0aH
	DB	0aH
	DB	0aH
	DB	0aH
	DB	0aH
	DB	0aH
	DB	0aH
	DB	0aH
	DB	0aH
	DB	0aH
	DB	0aH
	DB	0aH
	DB	0aH
	DB	0aH
	DB	0aH
	DB	0aH
	DB	0aH
	DB	0aH
	DB	0aH
	DB	0adH
	DB	052H
	DB	067H
	DB	049H
	DB	0eH
	DB	0eH
	DB	0eH
	DB	0eH
	DB	0b6H
	DB	02cH
	DB	03H
	DB	06H
	DB	02H
	DB	02H
	DB	02H
	DB	02H
	DB	02H
	DB	02H
	DB	02H
	DB	02H
	DB	02H
	DB	02H
	DB	02H
	DB	02H
	DB	02H
	DB	02H
	DB	02H
	DB	02H
	DB	02H
	DB	02H
	DB	02H
	DB	02H
	DB	02H
	DB	02H
	DB	02H
	DB	02H
	DB	02H
	DB	02H
	DB	02H
	DB	02H
	DB	02H
	DB	02H
	DB	02H
	DB	02H
	DB	02H
	DB	02H
	DB	02H
	DB	02H
	DB	02H
	DB	02H
	DB	02H
	DB	02H
	DB	02H
	DB	06H
	DB	03H
	DB	08H
	DB	0b6H
	DB	0eH
	DB	0eH
	DB	0eH
	DB	0eH
	DB	046H
	DB	05cH
	DB	052H
	DB	0adH
	DB	0aH
	DB	0aH
	DB	0aH
	DB	0aH
	DB	0aH
	DB	0aH
	DB	0aH
	DB	0aH
	DB	0aH
	DB	0aH
	DB	0aH
	DB	0aH
	DB	0aH
	DB	0aH
	DB	0aH
	DB	0aH
	DB	0aH
	DB	0aH
	DB	0aH
	DB	0aH
	DB	021H
	DB	019H
	DB	07H
	DB	07H
	DB	07H
	DB	07H
	DB	07H
	DB	03eH
	DB	037H
	DB	054H
	DB	04eH
	DB	02dH
	DB	047H
	DB	034H
	DB	0bH
	DB	0fH
	DB	01dH
	DB	02dH
	DB	01dH
	DB	03fH
	DB	027H
	DB	018H
	DB	018H
	DB	018H
	DB	01dH
	DB	02dH
	DB	03aH
	DB	018H
	DB	027H
	DB	027H
	DB	04aH
	DB	03fH
	DB	027H
	DB	01bH
	DB	01bH
	DB	013H
	DB	0cH
	DB	028H
	DB	0cH
	DB	028H
	DB	018H
	DB	027H
	DB	013H
	DB	013H
	DB	01bH
	DB	010H
	DB	02H
	DB	02H
	DB	017H
	DB	017H
	DB	04bH
	DB	013H
	DB	010H
	DB	010H
	DB	0bH
	DB	0bH
	DB	02H
	DB	02H
	DB	017H
	DB	0bH
	DB	010H
	DB	010H
	DB	02eH
	DB	02eH
	DB	039H
	DB	022H
	DB	03dH
	DB	02eH
	DB	02eH
	DB	0fH
	DB	02fH
	DB	037H
	DB	022H
	DB	0fH
	DB	01dH
	DB	02eH
	DB	039H
	DB	022H
	DB	042H
	DB	065H
	DB	07bH
	DB	058H
	DB	056H
	DB	04eH
	DB	096H
	DB	039H
	DB	037H
	DB	028H
	DB	047H
	DB	01fH
	DB	05aH
	DB	053H
	DB	03aH
	DB	034H
	DB	01bH
	DB	02aH
	DB	058H
	DB	07eH
	DB	07eH
	DB	01fH
	DB	01dH
	DB	04dH
	DB	0cH
	DB	0fH
	DB	039H
	DB	039H
	DB	075H
	DB	070H
	DB	01dH
	DB	022H
	DB	037H
	DB	013H
	DB	02H
	DB	02H
	DB	066H
	DB	07H
	DB	07H
	DB	07H
	DB	07H
	DB	07H
	DB	03cH
	DB	0abH
	DB	011H
	DB	0a1H
	DB	0a1H
	DB	0aH
	DB	0aH
	DB	0aH
	DB	0aH
	DB	0aH
	DB	0aH
	DB	0aH
	DB	0aH
	DB	0aH
	DB	0aH
	DB	0aH
	DB	0aH
	DB	0aH
	DB	0aH
	DB	0aH
	DB	0aH
	DB	069H
	DB	052H
	DB	090H
	DB	046H
	DB	0eH
	DB	0eH
	DB	0eH
	DB	0eH
	DB	02cH
	DB	03H
	DB	01aH
	DB	02H
	DB	02H
	DB	02H
	DB	02H
	DB	02H
	DB	02H
	DB	02H
	DB	02H
	DB	02H
	DB	02H
	DB	02H
	DB	02H
	DB	02H
	DB	02H
	DB	02H
	DB	02H
	DB	02H
	DB	02H
	DB	02H
	DB	02H
	DB	02H
	DB	02H
	DB	02H
	DB	02H
	DB	02H
	DB	02H
	DB	02H
	DB	02H
	DB	02H
	DB	02H
	DB	02H
	DB	02H
	DB	02H
	DB	02H
	DB	02H
	DB	02H
	DB	02H
	DB	02H
	DB	02H
	DB	02H
	DB	02H
	DB	02H
	DB	02H
	DB	02H
	DB	02H
	DB	02H
	DB	02H
	DB	02H
	DB	02H
	DB	01aH
	DB	03H
	DB	02cH
	DB	0b6H
	DB	0eH
	DB	0eH
	DB	0eH
	DB	046H
	DB	05cH
	DB	062H
	DB	06fH
	DB	0aH
	DB	0aH
	DB	0aH
	DB	0aH
	DB	0aH
	DB	0aH
	DB	0aH
	DB	0aH
	DB	0aH
	DB	0aH
	DB	0aH
	DB	0aH
	DB	0aH
	DB	0aH
	DB	0aH
	DB	0aH
	DB	0aH
	DB	0aH
	DB	0a1H
	DB	029H
	DB	0d3H
	DB	07H
	DB	07H
	DB	07H
	DB	07H
	DB	07H
	DB	01fH
	DB	045H
	DB	01dH
	DB	0fH
	DB	03aH
	DB	02dH
	DB	0fH
	DB	04aH
	DB	018H
	DB	01dH
	DB	022H
	DB	03aH
	DB	041H
	DB	013H
	DB	018H
	DB	047H
	DB	03aH
	DB	0cH
	DB	013H
	DB	018H
	DB	028H
	DB	018H
	DB	04eH
	DB	041H
	DB	0bH
	DB	034H
	DB	018H
	DB	027H
	DB	0cH
	DB	0cH
	DB	013H
	DB	0cH
	DB	027H
	DB	028H
	DB	0cH
	DB	0bH
	DB	035H
	DB	02H
	DB	02H
	DB	02H
	DB	017H
	DB	04bH
	DB	01bH
	DB	010H
	DB	010H
	DB	034H
	DB	035H
	DB	02H
	DB	017H
	DB	01bH
	DB	0bH
	DB	010H
	DB	010H
	DB	038H
	DB	043H
	DB	066H
	DB	038H
	DB	0ceH
	DB	07cH
	DB	031H
	DB	01bH
	DB	035H
	DB	0cH
	DB	02dH
	DB	02dH
	DB	02aH
	DB	031H
	DB	0cH
	DB	02aH
	DB	060H
	DB	050H
	DB	032H
	DB	054H
	DB	02aH
	DB	039H
	DB	038H
	DB	066H
	DB	032H
	DB	034H
	DB	02dH
	DB	053H
	DB	06bH
	DB	0fH
	DB	0fH
	DB	034H
	DB	02H
	DB	04bH
	DB	07cH
	DB	058H
	DB	05aH
	DB	01fH
	DB	045H
	DB	027H
	DB	0cH
	DB	02dH
	DB	02eH
	DB	043H
	DB	043H
	DB	039H
	DB	0cH
	DB	013H
	DB	037H
	DB	01eH
	DB	034H
	DB	0cfH
	DB	07H
	DB	07H
	DB	07H
	DB	07H
	DB	07H
	DB	025H
	DB	014H
	DB	0a1H
	DB	0a1H
	DB	011H
	DB	0a1H
	DB	0aH
	DB	0aH
	DB	0aH
	DB	0aH
	DB	0aH
	DB	0aH
	DB	0aH
	DB	0aH
	DB	0aH
	DB	0aH
	DB	0aH
	DB	0aH
	DB	0aH
	DB	04fH
	DB	07aH
	DB	090H
	DB	0d7H
	DB	0eH
	DB	0eH
	DB	0eH
	DB	0b6H
	DB	05H
	DB	04H
	DB	02H
	DB	02H
	DB	02H
	DB	02H
	DB	02H
	DB	02H
	DB	02H
	DB	02H
	DB	02H
	DB	02H
	DB	02H
	DB	02H
	DB	02H
	DB	02H
	DB	02H
	DB	02H
	DB	02H
	DB	02H
	DB	02H
	DB	02H
	DB	02H
	DB	02H
	DB	02H
	DB	02H
	DB	02H
	DB	02H
	DB	02H
	DB	02H
	DB	02H
	DB	02H
	DB	02H
	DB	02H
	DB	02H
	DB	02H
	DB	02H
	DB	02H
	DB	02H
	DB	02H
	DB	02H
	DB	02H
	DB	02H
	DB	02H
	DB	02H
	DB	02H
	DB	02H
	DB	02H
	DB	02H
	DB	02H
	DB	02H
	DB	02H
	DB	02H
	DB	02H
	DB	02H
	DB	02H
	DB	02H
	DB	02H
	DB	02H
	DB	06H
	DB	08H
	DB	0b6H
	DB	0eH
	DB	0eH
	DB	0eH
	DB	049H
	DB	05cH
	DB	063H
	DB	04fH
	DB	0aH
	DB	0aH
	DB	0aH
	DB	0aH
	DB	0aH
	DB	0aH
	DB	088H
	DB	0aH
	DB	0aH
	DB	0aH
	DB	0aH
	DB	0aH
	DB	0aH
	DB	0aH
	DB	0aH
	DB	0aH
	DB	0aH
	DB	095H
	DB	093H
	DB	07H
	DB	07H
	DB	07H
	DB	07H
	DB	07H
	DB	07H
	DB	05eH
	DB	0fH
	DB	075H
	DB	0fH
	DB	041H
	DB	04dH
	DB	04eH
	DB	01dH
	DB	02dH
	DB	075H
	DB	027H
	DB	027H
	DB	018H
	DB	018H
	DB	027H
	DB	018H
	DB	0fH
	DB	018H
	DB	027H
	DB	01dH
	DB	02dH
	DB	013H
	DB	010H
	DB	027H
	DB	03aH
	DB	0cH
	DB	0cH
	DB	027H
	DB	013H
	DB	013H
	DB	013H
	DB	01bH
	DB	0bH
	DB	01aH
	DB	02H
	DB	02H
	DB	02H
	DB	02H
	DB	010H
	DB	010H
	DB	01bH
	DB	010H
	DB	010H
	DB	0bH
	DB	0bH
	DB	02H
	DB	02H
	DB	0bH
	DB	01aH
	DB	010H
	DB	0bH
	DB	039H
	DB	039H
	DB	07cH
	DB	038H
	DB	043H
	DB	031H
	DB	01cH
	DB	01bH
	DB	041H
	DB	041H
	DB	041H
	DB	03fH
	DB	0fH
	DB	02fH
	DB	034H
	DB	02aH
	DB	022H
	DB	047H
	DB	018H
	DB	017H
	DB	0bH
	DB	039H
	DB	038H
	DB	05eH
	DB	047H
	DB	047H
	DB	02aH
	DB	028H
	DB	010H
	DB	013H
	DB	02dH
	DB	03aH
	DB	027H
	DB	070H
	DB	018H
	DB	03dH
	DB	0a3H
	DB	053H
	DB	039H
	DB	0fH
	DB	03aH
	DB	022H
	DB	03dH
	DB	056H
	DB	038H
	DB	0fH
	DB	035H
	DB	018H
	DB	0fH
	DB	030H
	DB	07H
	DB	07H
	DB	07H
	DB	07H
	DB	07H
	DB	051H
	DB	023H
	DB	0a1H
	DB	0a1H
	DB	011H
	DB	0a1H
	DB	0a1H
	DB	0a1H
	DB	0aH
	DB	0aH
	DB	0aH
	DB	0aH
	DB	0aH
	DB	0aH
	DB	0aH
	DB	0aH
	DB	0aH
	DB	0aH
	DB	0aH
	DB	06fH
	DB	06dH
	DB	049H
	DB	071H
	DB	0eH
	DB	0eH
	DB	0b6H
	DB	08H
	DB	06H
	DB	02H
	DB	02H
	DB	02H
	DB	02H
	DB	02H
	DB	02H
	DB	02H
	DB	02H
	DB	02H
	DB	02H
	DB	02H
	DB	02H
	DB	02H
	DB	02H
	DB	02H
	DB	02H
	DB	02H
	DB	02H
	DB	02H
	DB	02H
	DB	02H
	DB	02H
	DB	02H
	DB	02H
	DB	02H
	DB	02H
	DB	02H
	DB	02H
	DB	02H
	DB	02H
	DB	02H
	DB	02H
	DB	02H
	DB	02H
	DB	02H
	DB	02H
	DB	02H
	DB	02H
	DB	02H
	DB	02H
	DB	02H
	DB	02H
	DB	02H
	DB	02H
	DB	02H
	DB	02H
	DB	02H
	DB	02H
	DB	02H
	DB	02H
	DB	02H
	DB	02H
	DB	02H
	DB	02H
	DB	02H
	DB	02H
	DB	02H
	DB	02H
	DB	02H
	DB	02H
	DB	02H
	DB	02H
	DB	02H
	DB	04H
	DB	08H
	DB	0eH
	DB	0eH
	DB	0eH
	DB	0a6H
	DB	049H
	DB	06dH
	DB	064H
	DB	0aH
	DB	0aH
	DB	088H
	DB	088H
	DB	088H
	DB	088H
	DB	0a1H
	DB	088H
	DB	0aH
	DB	0aH
	DB	0aH
	DB	0aH
	DB	0aH
	DB	0aH
	DB	0aH
	DB	0aH
	DB	0aH
	DB	021H
	DB	0d5H
	DB	07H
	DB	07H
	DB	07H
	DB	07H
	DB	07H
	DB	01fH
	DB	01dH
	DB	02dH
	DB	02dH
	DB	01dH
	DB	039H
	DB	01dH
	DB	02dH
	DB	070H
	DB	03aH
	DB	098H
	DB	02aH
	DB	013H
	DB	018H
	DB	01dH
	DB	02dH
	DB	027H
	DB	041H
	DB	013H
	DB	028H
	DB	02dH
	DB	03fH
	DB	02dH
	DB	027H
	DB	0cH
	DB	0cH
	DB	027H
	DB	0cH
	DB	01eH
	DB	034H
	DB	010H
	DB	0bH
	DB	010H
	DB	02H
	DB	02H
	DB	015H
	DB	034H
	DB	01bH
	DB	0bH
	DB	01bH
	DB	0bH
	DB	017H
	DB	0bH
	DB	0bH
	DB	01aH
	DB	017H
	DB	0bH
	DB	04bH
	DB	0bH
	DB	0bH
	DB	01dH
	DB	0fH
	DB	027H
	DB	02dH
	DB	03aH
	DB	0bH
	DB	02fH
	DB	02dH
	DB	02eH
	DB	01dH
	DB	010H
	DB	041H
	DB	02dH
	DB	027H
	DB	0fH
	DB	022H
	DB	01dH
	DB	045H
	DB	03fH
	DB	013H
	DB	070H
	DB	038H
	DB	038H
	DB	039H
	DB	047H
	DB	037H
	DB	02aH
	DB	034H
	DB	013H
	DB	04eH
	DB	039H
	DB	039H
	DB	066H
	DB	038H
	DB	02dH
	DB	022H
	DB	042H
	DB	098H
	DB	01dH
	DB	01dH
	DB	022H
	DB	07cH
	DB	022H
	DB	02eH
	DB	02dH
	DB	0bH
	DB	031H
	DB	06bH
	DB	0cfH
	DB	07H
	DB	07H
	DB	07H
	DB	07H
	DB	03cH
	DB	016H
	DB	011H
	DB	011H
	DB	0a1H
	DB	0a1H
	DB	0a1H
	DB	0a1H
	DB	0aH
	DB	0aH
	DB	0aH
	DB	0aH
	DB	0aH
	DB	0aH
	DB	0aH
	DB	0aH
	DB	0aH
	DB	0aH
	DB	0aH
	DB	064H
	DB	05cH
	DB	0a6H
	DB	0eH
	DB	0eH
	DB	0eH
	DB	02cH
	DB	04H
	DB	02H
	DB	02H
	DB	02H
	DB	02H
	DB	02H
	DB	02H
	DB	02H
	DB	02H
	DB	02H
	DB	02H
	DB	02H
	DB	02H
	DB	02H
	DB	02H
	DB	02H
	DB	02H
	DB	02H
	DB	02H
	DB	02H
	DB	02H
	DB	02H
	DB	02H
	DB	02H
	DB	02H
	DB	02H
	DB	02H
	DB	02H
	DB	02H
	DB	02H
	DB	02H
	DB	02H
	DB	02H
	DB	02H
	DB	02H
	DB	02H
	DB	02H
	DB	02H
	DB	02H
	DB	02H
	DB	02H
	DB	02H
	DB	02H
	DB	02H
	DB	02H
	DB	02H
	DB	02H
	DB	02H
	DB	02H
	DB	02H
	DB	02H
	DB	02H
	DB	02H
	DB	02H
	DB	02H
	DB	02H
	DB	02H
	DB	02H
	DB	02H
	DB	02H
	DB	02H
	DB	02H
	DB	02H
	DB	02H
	DB	02H
	DB	02H
	DB	02H
	DB	02H
	DB	02H
	DB	02H
	DB	03H
	DB	02cH
	DB	0eH
	DB	0eH
	DB	0eH
	DB	0a6H
	DB	090H
	DB	069H
	DB	088H
	DB	088H
	DB	0a1H
	DB	0a1H
	DB	0a1H
	DB	0a1H
	DB	0a1H
	DB	0a1H
	DB	088H
	DB	088H
	DB	0aH
	DB	0aH
	DB	0aH
	DB	0aH
	DB	0aH
	DB	0aH
	DB	0a1H
	DB	09eH
	DB	03cH
	DB	07H
	DB	07H
	DB	07H
	DB	07H
	DB	0cfH
	DB	01dH
	DB	01dH
	DB	022H
	DB	01dH
	DB	01dH
	DB	047H
	DB	096H
	DB	02aH
	DB	098H
	DB	032H
	DB	0cH
	DB	04eH
	DB	03fH
	DB	0fH
	DB	03aH
	DB	0bH
	DB	01aH
	DB	02aH
	DB	03dH
	DB	01dH
	DB	0fH
	DB	03aH
	DB	03aH
	DB	028H
	DB	013H
	DB	01bH
	DB	01bH
	DB	0bH
	DB	01aH
	DB	0bH
	DB	017H
	DB	02H
	DB	02H
	DB	028H
	DB	037H
	DB	034H
	DB	010H
	DB	035H
	DB	01cH
	DB	0bH
	DB	034H
	DB	0bH
	DB	010H
	DB	017H
	DB	010H
	DB	013H
	DB	013H
	DB	010H
	DB	02eH
	DB	01dH
	DB	0cH
	DB	03aH
	DB	047H
	DB	0fH
	DB	022H
	DB	022H
	DB	022H
	DB	02eH
	DB	039H
	DB	045H
	DB	01dH
	DB	075H
	DB	039H
	DB	01dH
	DB	02dH
	DB	02eH
	DB	02eH
	DB	018H
	DB	018H
	DB	07cH
	DB	038H
	DB	043H
	DB	02dH
	DB	03aH
	DB	027H
	DB	034H
	DB	0fH
	DB	01dH
	DB	01dH
	DB	02dH
	DB	043H
	DB	038H
	DB	02eH
	DB	03dH
	DB	047H
	DB	018H
	DB	054H
	DB	030H
	DB	022H
	DB	02aH
	DB	04eH
	DB	018H
	DB	010H
	DB	017H
	DB	042H
	DB	07H
	DB	07H
	DB	07H
	DB	07H
	DB	07H
	DB	081H
	DB	09fH
	DB	0a1H
	DB	0a1H
	DB	011H
	DB	011H
	DB	0a1H
	DB	0a1H
	DB	0a1H
	DB	0aH
	DB	0aH
	DB	0aH
	DB	0aH
	DB	0aH
	DB	0aH
	DB	0aH
	DB	0aH
	DB	0aH
	DB	069H
	DB	05cH
	DB	071H
	DB	0eH
	DB	0eH
	DB	0b6H
	DB	026H
	DB	01aH
	DB	02H
	DB	02H
	DB	02H
	DB	02H
	DB	02H
	DB	02H
	DB	02H
	DB	02H
	DB	02H
	DB	02H
	DB	02H
	DB	02H
	DB	02H
	DB	02H
	DB	02H
	DB	02H
	DB	02H
	DB	02H
	DB	02H
	DB	02H
	DB	02H
	DB	02H
	DB	02H
	DB	02H
	DB	02H
	DB	02H
	DB	02H
	DB	02H
	DB	02H
	DB	02H
	DB	02H
	DB	02H
	DB	02H
	DB	02H
	DB	02H
	DB	02H
	DB	02H
	DB	02H
	DB	02H
	DB	02H
	DB	02H
	DB	02H
	DB	02H
	DB	02H
	DB	02H
	DB	02H
	DB	02H
	DB	02H
	DB	02H
	DB	02H
	DB	02H
	DB	02H
	DB	02H
	DB	02H
	DB	02H
	DB	02H
	DB	02H
	DB	02H
	DB	02H
	DB	02H
	DB	02H
	DB	02H
	DB	02H
	DB	02H
	DB	02H
	DB	02H
	DB	02H
	DB	02H
	DB	02H
	DB	02H
	DB	02H
	DB	02H
	DB	02H
	DB	01aH
	DB	026H
	DB	0b6H
	DB	0eH
	DB	0eH
	DB	071H
	DB	090H
	DB	094H
	DB	0a1H
	DB	0a1H
	DB	0a1H
	DB	0a1H
	DB	0a1H
	DB	0a1H
	DB	0a1H
	DB	0a1H
	DB	0a1H
	DB	088H
	DB	0aH
	DB	0aH
	DB	0aH
	DB	088H
	DB	088H
	DB	088H
	DB	095H
	DB	0baH
	DB	07H
	DB	07H
	DB	07H
	DB	07H
	DB	07H
	DB	030H
	DB	02aH
	DB	02aH
	DB	01dH
	DB	022H
	DB	02eH
	DB	01dH
	DB	018H
	DB	0fH
	DB	03aH
	DB	02aH
	DB	018H
	DB	0fH
	DB	031H
	DB	0cH
	DB	04dH
	DB	04eH
	DB	054H
	DB	02dH
	DB	02dH
	DB	0fH
	DB	031H
	DB	0cH
	DB	01bH
	DB	010H
	DB	01aH
	DB	01aH
	DB	010H
	DB	035H
	DB	02H
	DB	02H
	DB	01bH
	DB	028H
	DB	031H
	DB	02fH
	DB	010H
	DB	010H
	DB	01cH
	DB	034H
	DB	01bH
	DB	01bH
	DB	010H
	DB	017H
	DB	010H
	DB	01bH
	DB	01bH
	DB	010H
	DB	022H
	DB	022H
	DB	02dH
	DB	047H
	DB	03bH
	DB	022H
	DB	02eH
	DB	02aH
	DB	0bH
	DB	02dH
	DB	0ceH
	DB	0b2H
	DB	03fH
	DB	03aH
	DB	022H
	DB	03dH
	DB	01dH
	DB	01dH
	DB	02aH
	DB	013H
	DB	013H
	DB	01dH
	DB	01fH
	DB	01fH
	DB	045H
	DB	03fH
	DB	03fH
	DB	02aH
	DB	0fH
	DB	039H
	DB	039H
	DB	01dH
	DB	02eH
	DB	03dH
	DB	03dH
	DB	02eH
	DB	02eH
	DB	0fH
	DB	01bH
	DB	028H
	DB	028H
	DB	017H
	DB	010H
	DB	017H
	DB	02H
	DB	01fH
	DB	07H
	DB	07H
	DB	07H
	DB	07H
	DB	03cH
	DB	0abH
	DB	011H
	DB	011H
	DB	011H
	DB	0a1H
	DB	0a1H
	DB	011H
	DB	088H
	DB	0aH
	DB	088H
	DB	0aH
	DB	0aH
	DB	0aH
	DB	0aH
	DB	0aH
	DB	0aH
	DB	088H
	DB	069H
	DB	05cH
	DB	0eH
	DB	0eH
	DB	0eH
	DB	033H
	DB	04H
	DB	02H
	DB	02H
	DB	02H
	DB	02H
	DB	02H
	DB	02H
	DB	02H
	DB	02H
	DB	02H
	DB	02H
	DB	02H
	DB	02H
	DB	02H
	DB	02H
	DB	02H
	DB	02H
	DB	02H
	DB	02H
	DB	02H
	DB	02H
	DB	02H
	DB	02H
	DB	02H
	DB	02H
	DB	02H
	DB	02H
	DB	02H
	DB	02H
	DB	02H
	DB	02H
	DB	02H
	DB	02H
	DB	02H
	DB	02H
	DB	02H
	DB	02H
	DB	02H
	DB	02H
	DB	02H
	DB	02H
	DB	02H
	DB	02H
	DB	02H
	DB	02H
	DB	02H
	DB	02H
	DB	02H
	DB	02H
	DB	02H
	DB	02H
	DB	02H
	DB	02H
	DB	02H
	DB	02H
	DB	02H
	DB	02H
	DB	02H
	DB	02H
	DB	02H
	DB	02H
	DB	02H
	DB	02H
	DB	02H
	DB	02H
	DB	02H
	DB	02H
	DB	02H
	DB	02H
	DB	02H
	DB	02H
	DB	02H
	DB	02H
	DB	02H
	DB	02H
	DB	02H
	DB	02H
	DB	02H
	DB	02H
	DB	02H
	DB	04H
	DB	02cH
	DB	0eH
	DB	0eH
	DB	0eH
	DB	08eH
	DB	059H
	DB	011H
	DB	0a1H
	DB	0a1H
	DB	0a1H
	DB	0a1H
	DB	0a1H
	DB	0a1H
	DB	0a1H
	DB	0a1H
	DB	0a1H
	DB	088H
	DB	088H
	DB	088H
	DB	088H
	DB	088H
	DB	0a1H
	DB	029H
	DB	03cH
	DB	07H
	DB	07H
	DB	07H
	DB	07H
	DB	03eH
	DB	018H
	DB	02aH
	DB	02aH
	DB	01dH
	DB	0fH
	DB	027H
	DB	027H
	DB	028H
	DB	02aH
	DB	0fH
	DB	0bH
	DB	017H
	DB	01bH
	DB	018H
	DB	0fH
	DB	02aH
	DB	02aH
	DB	02aH
	DB	0fH
	DB	02fH
	DB	01eH
	DB	0cH
	DB	0bH
	DB	0bH
	DB	013H
	DB	013H
	DB	020H
	DB	02H
	DB	017H
	DB	01bH
	DB	010H
	DB	020H
	DB	01bH
	DB	01bH
	DB	013H
	DB	0bH
	DB	010H
	DB	010H
	DB	04bH
	DB	04bH
	DB	010H
	DB	013H
	DB	013H
	DB	010H
	DB	017H
	DB	0fH
	DB	039H
	DB	030H
	DB	022H
	DB	02dH
	DB	01dH
	DB	045H
	DB	04aH
	DB	02H
	DB	013H
	DB	054H
	DB	022H
	DB	02dH
	DB	075H
	DB	02aH
	DB	02aH
	DB	018H
	DB	01dH
	DB	0fH
	DB	01aH
	DB	070H
	DB	038H
	DB	03eH
	DB	01fH
	DB	02eH
	DB	0fH
	DB	02aH
	DB	04eH
	DB	01dH
	DB	022H
	DB	039H
	DB	055H
	DB	054H
	DB	0fH
	DB	022H
	DB	038H
	DB	02eH
	DB	0cH
	DB	02H
	DB	02H
	DB	017H
	DB	02H
	DB	02H
	DB	015H
	DB	0cfH
	DB	07H
	DB	07H
	DB	07H
	DB	07H
	DB	012H
	DB	0e0H
	DB	095H
	DB	011H
	DB	011H
	DB	011H
	DB	0a1H
	DB	0aH
	DB	0aH
	DB	0aH
	DB	0aH
	DB	0aH
	DB	0aH
	DB	0aH
	DB	0aH
	DB	0aH
	DB	088H
	DB	0adH
	DB	05cH
	DB	0eH
	DB	0eH
	DB	0eH
	DB	02cH
	DB	06H
	DB	02H
	DB	02H
	DB	02H
	DB	02H
	DB	02H
	DB	02H
	DB	02H
	DB	02H
	DB	02H
	DB	02H
	DB	02H
	DB	02H
	DB	02H
	DB	02H
	DB	02H
	DB	02H
	DB	02H
	DB	02H
	DB	02H
	DB	02H
	DB	02H
	DB	02H
	DB	02H
	DB	02H
	DB	02H
	DB	02H
	DB	02H
	DB	02H
	DB	02H
	DB	02H
	DB	02H
	DB	02H
	DB	02H
	DB	02H
	DB	02H
	DB	02H
	DB	02H
	DB	01aH
	DB	06H
	DB	06H
	DB	06H
	DB	04H
	DB	06H
	DB	06H
	DB	06H
	DB	01aH
	DB	02H
	DB	02H
	DB	02H
	DB	02H
	DB	02H
	DB	02H
	DB	02H
	DB	02H
	DB	02H
	DB	02H
	DB	02H
	DB	02H
	DB	02H
	DB	02H
	DB	02H
	DB	02H
	DB	02H
	DB	02H
	DB	02H
	DB	02H
	DB	02H
	DB	02H
	DB	02H
	DB	02H
	DB	02H
	DB	02H
	DB	02H
	DB	02H
	DB	02H
	DB	02H
	DB	02H
	DB	02H
	DB	02H
	DB	02H
	DB	02H
	DB	02H
	DB	02H
	DB	06H
	DB	08H
	DB	0eH
	DB	0eH
	DB	0eH
	DB	08eH
	DB	0bfH
	DB	0a0H
	DB	0a1H
	DB	0a1H
	DB	0a1H
	DB	0a1H
	DB	0a1H
	DB	0a1H
	DB	0a1H
	DB	0a1H
	DB	0a1H
	DB	088H
	DB	0a1H
	DB	0a1H
	DB	0a1H
	DB	0a1H
	DB	09fH
	DB	051H
	DB	07H
	DB	07H
	DB	07H
	DB	07H
	DB	0cfH
	DB	013H
	DB	01bH
	DB	018H
	DB	018H
	DB	018H
	DB	0cH
	DB	028H
	DB	02aH
	DB	037H
	DB	0cH
	DB	0bH
	DB	0bH
	DB	031H
	DB	0fH
	DB	0fH
	DB	027H
	DB	04aH
	DB	01eH
	DB	0bH
	DB	01eH
	DB	0fH
	DB	027H
	DB	027H
	DB	013H
	DB	010H
	DB	02H
	DB	010H
	DB	0bH
	DB	0bH
	DB	017H
	DB	017H
	DB	010H
	DB	01bH
	DB	0cH
	DB	013H
	DB	010H
	DB	010H
	DB	04bH
	DB	04bH
	DB	013H
	DB	013H
	DB	0bH
	DB	017H
	DB	01aH
	DB	031H
	DB	0fH
	DB	02dH
	DB	0fH
	DB	018H
	DB	04eH
	DB	043H
	DB	01dH
	DB	020H
	DB	01bH
	DB	018H
	DB	0fH
	DB	040H
	DB	040H
	DB	022H
	DB	02dH
	DB	047H
	DB	0ebH
	DB	060H
	DB	027H
	DB	043H
	DB	01fH
	DB	056H
	DB	056H
	DB	042H
	DB	032H
	DB	018H
	DB	02dH
	DB	01dH
	DB	02dH
	DB	01dH
	DB	054H
	DB	018H
	DB	034H
	DB	039H
	DB	056H
	DB	02aH
	DB	017H
	DB	02H
	DB	02H
	DB	02H
	DB	02H
	DB	027H
	DB	07H
	DB	07H
	DB	07H
	DB	07H
	DB	07H
	DB	0f8H
	DB	014H
	DB	095H
	DB	095H
	DB	011H
	DB	011H
	DB	011H
	DB	0a1H
	DB	0aH
	DB	0aH
	DB	0aH
	DB	0aH
	DB	0aH
	DB	0aH
	DB	0aH
	DB	0aH
	DB	064H
	DB	05cH
	DB	0eH
	DB	0eH
	DB	0eH
	DB	02cH
	DB	06H
	DB	02H
	DB	02H
	DB	02H
	DB	02H
	DB	02H
	DB	02H
	DB	02H
	DB	02H
	DB	02H
	DB	02H
	DB	02H
	DB	02H
	DB	02H
	DB	02H
	DB	02H
	DB	02H
	DB	02H
	DB	02H
	DB	02H
	DB	02H
	DB	02H
	DB	02H
	DB	02H
	DB	02H
	DB	02H
	DB	02H
	DB	02H
	DB	02H
	DB	02H
	DB	01aH
	DB	04H
	DB	03H
	DB	05H
	DB	02cH
	DB	02cH
	DB	02cH
	DB	0dH
	DB	0dH
	DB	0dH
	DB	0dH
	DB	0dH
	DB	0dH
	DB	0dH
	DB	0dH
	DB	0dH
	DB	0dH
	DB	0dH
	DB	0dH
	DB	0dH
	DB	0dH
	DB	0dH
	DB	033H
	DB	02cH
	DB	02cH
	DB	05H
	DB	03H
	DB	04H
	DB	01aH
	DB	02H
	DB	02H
	DB	02H
	DB	02H
	DB	02H
	DB	02H
	DB	02H
	DB	02H
	DB	02H
	DB	02H
	DB	02H
	DB	02H
	DB	02H
	DB	02H
	DB	02H
	DB	02H
	DB	02H
	DB	02H
	DB	02H
	DB	02H
	DB	02H
	DB	02H
	DB	02H
	DB	02H
	DB	02H
	DB	02H
	DB	02H
	DB	02H
	DB	02H
	DB	06H
	DB	02cH
	DB	0eH
	DB	0eH
	DB	0eH
	DB	090H
	DB	094H
	DB	0a1H
	DB	0a1H
	DB	0a1H
	DB	0a1H
	DB	0a1H
	DB	0a1H
	DB	0a1H
	DB	0a1H
	DB	0a1H
	DB	0a1H
	DB	0a1H
	DB	0a1H
	DB	0a1H
	DB	0a1H
	DB	011H
	DB	0baH
	DB	07H
	DB	07H
	DB	07H
	DB	07H
	DB	07H
	DB	0fH
	DB	04aH
	DB	028H
	DB	018H
	DB	0fH
	DB	018H
	DB	0cH
	DB	03aH
	DB	0fH
	DB	0fH
	DB	031H
	DB	018H
	DB	027H
	DB	018H
	DB	0cH
	DB	020H
	DB	02H
	DB	010H
	DB	028H
	DB	028H
	DB	028H
	DB	0cH
	DB	010H
	DB	02H
	DB	02H
	DB	013H
	DB	0bH
	DB	020H
	DB	017H
	DB	017H
	DB	010H
	DB	01bH
	DB	0cH
	DB	0cH
	DB	013H
	DB	01bH
	DB	010H
	DB	010H
	DB	013H
	DB	010H
	DB	01aH
	DB	010H
	DB	010H
	DB	01eH
	DB	013H
	DB	06H
	DB	01aH
	DB	0bH
	DB	02aH
	DB	0b2H
	DB	056H
	DB	031H
	DB	0cH
	DB	027H
	DB	02fH
	DB	07bH
	DB	053H
	DB	038H
	DB	01fH
	DB	042H
	DB	031H
	DB	0fH
	DB	02dH
	DB	03dH
	DB	03dH
	DB	02dH
	DB	022H
	DB	065H
	DB	060H
	DB	066H
	DB	066H
	DB	030H
	DB	039H
	DB	022H
	DB	018H
	DB	027H
	DB	047H
	DB	037H
	DB	01eH
	DB	017H
	DB	02H
	DB	02H
	DB	02H
	DB	01aH
	DB	066H
	DB	07H
	DB	07H
	DB	07H
	DB	07H
	DB	03cH
	DB	0abH
	DB	011H
	DB	011H
	DB	095H
	DB	095H
	DB	095H
	DB	0a1H
	DB	0aH
	DB	088H
	DB	0aH
	DB	0aH
	DB	0aH
	DB	0aH
	DB	0aH
	DB	0aH
	DB	05fH
	DB	052H
	DB	0eH
	DB	0eH
	DB	0eH
	DB	02cH
	DB	06H
	DB	02H
	DB	02H
	DB	02H
	DB	02H
	DB	02H
	DB	02H
	DB	02H
	DB	02H
	DB	02H
	DB	02H
	DB	02H
	DB	02H
	DB	02H
	DB	02H
	DB	02H
	DB	02H
	DB	02H
	DB	02H
	DB	02H
	DB	02H
	DB	02H
	DB	02H
	DB	02H
	DB	02H
	DB	02H
	DB	01aH
	DB	04H
	DB	044H
	DB	08H
	DB	02cH
	DB	036H
	DB	0dH
	DB	0dH
	DB	0dH
	DB	0dH
	DB	0dH
	DB	0dH
	DB	0dH
	DB	0dH
	DB	0dH
	DB	0dH
	DB	0dH
	DB	0dH
	DB	0dH
	DB	0dH
	DB	0dH
	DB	0dH
	DB	0dH
	DB	0dH
	DB	0dH
	DB	0dH
	DB	0dH
	DB	0dH
	DB	0dH
	DB	0dH
	DB	0dH
	DB	0dH
	DB	0dH
	DB	0dH
	DB	0dH
	DB	0dH
	DB	02cH
	DB	08H
	DB	026H
	DB	04H
	DB	02H
	DB	02H
	DB	02H
	DB	02H
	DB	02H
	DB	02H
	DB	02H
	DB	02H
	DB	02H
	DB	02H
	DB	02H
	DB	02H
	DB	02H
	DB	02H
	DB	02H
	DB	02H
	DB	02H
	DB	02H
	DB	02H
	DB	02H
	DB	02H
	DB	02H
	DB	02H
	DB	02H
	DB	02H
	DB	02H
	DB	06H
	DB	02cH
	DB	0eH
	DB	0eH
	DB	0eH
	DB	074H
	DB	064H
	DB	0a1H
	DB	0a1H
	DB	0a1H
	DB	0a1H
	DB	0a1H
	DB	0a1H
	DB	0a1H
	DB	0a1H
	DB	0a1H
	DB	0a1H
	DB	0a1H
	DB	0a1H
	DB	0a1H
	DB	0a1H
	DB	029H
	DB	03cH
	DB	07H
	DB	07H
	DB	07H
	DB	07H
	DB	030H
	DB	01bH
	DB	0fH
	DB	0fH
	DB	018H
	DB	027H
	DB	070H
	DB	03aH
	DB	037H
	DB	037H
	DB	0fH
	DB	018H
	DB	0fH
	DB	02fH
	DB	034H
	DB	01bH
	DB	04aH
	DB	0cH
	DB	0bH
	DB	01bH
	DB	050H
	DB	01cH
	DB	02H
	DB	010H
	DB	01bH
	DB	017H
	DB	01cH
	DB	01bH
	DB	02H
	DB	017H
	DB	020H
	DB	0bH
	DB	013H
	DB	013H
	DB	0bH
	DB	010H
	DB	013H
	DB	034H
	DB	010H
	DB	010H
	DB	010H
	DB	010H
	DB	041H
	DB	096H
	DB	045H
	DB	027H
	DB	0bH
	DB	018H
	DB	0ccH
	DB	099H
	DB	028H
	DB	013H
	DB	013H
	DB	013H
	DB	031H
	DB	022H
	DB	043H
	DB	056H
	DB	0fH
	DB	010H
	DB	03fH
	DB	045H
	DB	04aH
	DB	013H
	DB	0fH
	DB	0fH
	DB	0cH
	DB	03dH
	DB	05aH
	DB	0cfH
	DB	066H
	DB	030H
	DB	022H
	DB	0cH
	DB	013H
	DB	028H
	DB	020H
	DB	02H
	DB	02H
	DB	035H
	DB	01aH
	DB	01aH
	DB	01fH
	DB	07H
	DB	07H
	DB	07H
	DB	07H
	DB	012H
	DB	0e0H
	DB	095H
	DB	011H
	DB	011H
	DB	095H
	DB	095H
	DB	011H
	DB	0a1H
	DB	0aH
	DB	0aH
	DB	0aH
	DB	0aH
	DB	0aH
	DB	0aH
	DB	088H
	DB	063H
	DB	084H
	DB	0eH
	DB	0eH
	DB	0b6H
	DB	06H
	DB	02H
	DB	02H
	DB	02H
	DB	02H
	DB	02H
	DB	02H
	DB	02H
	DB	02H
	DB	02H
	DB	02H
	DB	02H
	DB	02H
	DB	02H
	DB	02H
	DB	02H
	DB	02H
	DB	02H
	DB	02H
	DB	02H
	DB	02H
	DB	02H
	DB	02H
	DB	02H
	DB	01aH
	DB	04H
	DB	05H
	DB	02cH
	DB	0dH
	DB	0dH
	DB	0dH
	DB	0dH
	DB	0dH
	DB	0dH
	DB	0dH
	DB	0dH
	DB	0dH
	DB	0dH
	DB	02cH
	DB	08H
	DB	05H
	DB	05H
	DB	03H
	DB	03H
	DB	03H
	DB	04H
	DB	06H
	DB	06H
	DB	06H
	DB	06H
	DB	06H
	DB	06H
	DB	03H
	DB	03H
	DB	03H
	DB	05H
	DB	05H
	DB	08H
	DB	02cH
	DB	0dH
	DB	0dH
	DB	0dH
	DB	0dH
	DB	0dH
	DB	0dH
	DB	0dH
	DB	0dH
	DB	0dH
	DB	0dH
	DB	02cH
	DB	026H
	DB	04H
	DB	02H
	DB	02H
	DB	02H
	DB	02H
	DB	02H
	DB	02H
	DB	02H
	DB	02H
	DB	02H
	DB	02H
	DB	02H
	DB	02H
	DB	02H
	DB	02H
	DB	02H
	DB	02H
	DB	02H
	DB	02H
	DB	02H
	DB	02H
	DB	02H
	DB	02H
	DB	02H
	DB	02H
	DB	06H
	DB	0b6H
	DB	0eH
	DB	0eH
	DB	049H
	DB	062H
	DB	0a0H
	DB	0a1H
	DB	0a1H
	DB	0a1H
	DB	0a1H
	DB	0a1H
	DB	0a1H
	DB	0a1H
	DB	0a1H
	DB	0a1H
	DB	0a1H
	DB	0a1H
	DB	0a1H
	DB	0a1H
	DB	09fH
	DB	051H
	DB	07H
	DB	07H
	DB	07H
	DB	07H
	DB	01fH
	DB	028H
	DB	01bH
	DB	013H
	DB	03fH
	DB	096H
	DB	0fH
	DB	031H
	DB	031H
	DB	031H
	DB	02aH
	DB	0fH
	DB	03aH
	DB	0fH
	DB	037H
	DB	099H
	DB	0c8H
	DB	01eH
	DB	02H
	DB	015H
	DB	015H
	DB	02H
	DB	017H
	DB	017H
	DB	02H
	DB	02H
	DB	02H
	DB	02H
	DB	02H
	DB	02H
	DB	017H
	DB	01bH
	DB	034H
	DB	0bH
	DB	010H
	DB	01bH
	DB	0bH
	DB	010H
	DB	010H
	DB	010H
	DB	010H
	DB	045H
	DB	02eH
	DB	038H
	DB	038H
	DB	01dH
	DB	013H
	DB	01bH
	DB	0c3H
	DB	02aH
	DB	013H
	DB	013H
	DB	04aH
	DB	018H
	DB	01dH
	DB	039H
	DB	0fH
	DB	034H
	DB	013H
	DB	01dH
	DB	01dH
	DB	013H
	DB	0bH
	DB	0fH
	DB	022H
	DB	01dH
	DB	03dH
	DB	056H
	DB	042H
	DB	022H
	DB	03dH
	DB	039H
	DB	027H
	DB	017H
	DB	02H
	DB	02H
	DB	041H
	DB	030H
	DB	01fH
	DB	0cfH
	DB	07H
	DB	07H
	DB	07H
	DB	07H
	DB	07H
	DB	0f8H
	DB	014H
	DB	095H
	DB	095H
	DB	011H
	DB	011H
	DB	011H
	DB	0a1H
	DB	0a1H
	DB	0aH
	DB	0aH
	DB	0aH
	DB	0aH
	DB	0aH
	DB	0aH
	DB	069H
	DB	067H
	DB	0eH
	DB	0eH
	DB	0eH
	DB	026H
	DB	02H
	DB	02H
	DB	02H
	DB	02H
	DB	02H
	DB	02H
	DB	02H
	DB	02H
	DB	02H
	DB	02H
	DB	02H
	DB	02H
	DB	02H
	DB	02H
	DB	02H
	DB	02H
	DB	02H
	DB	02H
	DB	02H
	DB	02H
	DB	02H
	DB	02H
	DB	06H
	DB	044H
	DB	02cH
	DB	0dH
	DB	0dH
	DB	0dH
	DB	0dH
	DB	0dH
	DB	0dH
	DB	0dH
	DB	033H
	DB	02cH
	DB	05H
	DB	03H
	DB	06H
	DB	01aH
	DB	02H
	DB	02H
	DB	02H
	DB	02H
	DB	02H
	DB	02H
	DB	02H
	DB	02H
	DB	02H
	DB	02H
	DB	02H
	DB	02H
	DB	02H
	DB	02H
	DB	02H
	DB	02H
	DB	02H
	DB	02H
	DB	02H
	DB	02H
	DB	02H
	DB	02H
	DB	02H
	DB	06H
	DB	04H
	DB	044H
	DB	05H
	DB	02cH
	DB	033H
	DB	0dH
	DB	0dH
	DB	0dH
	DB	0dH
	DB	0dH
	DB	0dH
	DB	036H
	DB	08H
	DB	044H
	DB	06H
	DB	02H
	DB	02H
	DB	02H
	DB	02H
	DB	02H
	DB	02H
	DB	02H
	DB	02H
	DB	02H
	DB	02H
	DB	02H
	DB	02H
	DB	02H
	DB	02H
	DB	02H
	DB	02H
	DB	02H
	DB	02H
	DB	02H
	DB	02H
	DB	02H
	DB	02H
	DB	026H
	DB	0eH
	DB	0eH
	DB	0eH
	DB	05cH
	DB	059H
	DB	0a1H
	DB	0a1H
	DB	0a1H
	DB	0a1H
	DB	0a1H
	DB	0a1H
	DB	0a1H
	DB	0a1H
	DB	0a1H
	DB	0a1H
	DB	0a1H
	DB	0a1H
	DB	0a1H
	DB	011H
	DB	0baH
	DB	07H
	DB	07H
	DB	07H
	DB	07H
	DB	0cfH
	DB	0bH
	DB	013H
	DB	02aH
	DB	02dH
	DB	037H
	DB	031H
	DB	01cH
	DB	010H
	DB	01bH
	DB	027H
	DB	027H
	DB	028H
	DB	01eH
	DB	01eH
	DB	0c6H
	DB	0c6H
	DB	020H
	DB	02H
	DB	020H
	DB	015H
	DB	02H
	DB	02H
	DB	02H
	DB	02H
	DB	02H
	DB	01aH
	DB	0bH
	DB	02H
	DB	02H
	DB	017H
	DB	017H
	DB	015H
	DB	02H
	DB	02H
	DB	017H
	DB	017H
	DB	017H
	DB	02H
	DB	017H
	DB	01dH
	DB	022H
	DB	04eH
	DB	054H
	DB	01dH
	DB	013H
	DB	02H
	DB	017H
	DB	02aH
	DB	055H
	DB	04eH
	DB	02aH
	DB	042H
	DB	05eH
	DB	039H
	DB	02dH
	DB	03aH
	DB	0cH
	DB	013H
	DB	0fH
	DB	03aH
	DB	034H
	DB	027H
	DB	028H
	DB	02aH
	DB	098H
	DB	03dH
	DB	03fH
	DB	034H
	DB	027H
	DB	037H
	DB	01bH
	DB	02H
	DB	02H
	DB	070H
	DB	057H
	DB	058H
	DB	056H
	DB	07H
	DB	07H
	DB	07H
	DB	07H
	DB	07H
	DB	0dbH
	DB	095H
	DB	095H
	DB	095H
	DB	095H
	DB	095H
	DB	011H
	DB	0aH
	DB	0a1H
	DB	0aH
	DB	0aH
	DB	0aH
	DB	0aH
	DB	0aH
	DB	04fH
	DB	052H
	DB	0d7H
	DB	0eH
	DB	0eH
	DB	02cH
	DB	01aH
	DB	02H
	DB	02H
	DB	02H
	DB	02H
	DB	02H
	DB	02H
	DB	02H
	DB	02H
	DB	02H
	DB	02H
	DB	02H
	DB	02H
	DB	02H
	DB	02H
	DB	02H
	DB	02H
	DB	02H
	DB	02H
	DB	02H
	DB	02H
	DB	06H
	DB	026H
	DB	02cH
	DB	0dH
	DB	0dH
	DB	0dH
	DB	0dH
	DB	0dH
	DB	0dH
	DB	02cH
	DB	05H
	DB	04H
	DB	01aH
	DB	02H
	DB	02H
	DB	02H
	DB	02H
	DB	02H
	DB	02H
	DB	02H
	DB	02H
	DB	06H
	DB	06H
	DB	01aH
	DB	01aH
	DB	04H
	DB	04H
	DB	06H
	DB	06H
	DB	03H
	DB	044H
	DB	06H
	DB	06H
	DB	03H
	DB	04H
	DB	06H
	DB	01aH
	DB	06H
	DB	06H
	DB	01aH
	DB	02H
	DB	02H
	DB	02H
	DB	02H
	DB	02H
	DB	02H
	DB	02H
	DB	02H
	DB	01aH
	DB	03H
	DB	08H
	DB	033H
	DB	0dH
	DB	0dH
	DB	0dH
	DB	0dH
	DB	0dH
	DB	0dH
	DB	033H
	DB	026H
	DB	06H
	DB	02H
	DB	02H
	DB	02H
	DB	02H
	DB	02H
	DB	02H
	DB	02H
	DB	02H
	DB	02H
	DB	02H
	DB	02H
	DB	02H
	DB	02H
	DB	02H
	DB	02H
	DB	02H
	DB	02H
	DB	02H
	DB	02H
	DB	02H
	DB	01aH
	DB	02cH
	DB	0eH
	DB	0eH
	DB	046H
	DB	092H
	DB	06fH
	DB	0a1H
	DB	0a1H
	DB	0a1H
	DB	011H
	DB	0a1H
	DB	0a1H
	DB	0a1H
	DB	0a1H
	DB	0a1H
	DB	0a1H
	DB	0a1H
	DB	0a1H
	DB	0a1H
	DB	09eH
	DB	07H
	DB	07H
	DB	07H
	DB	07H
	DB	07H
	DB	0fH
	DB	0fH
	DB	0fH
	DB	02fH
	DB	015H
	DB	015H
	DB	017H
	DB	017H
	DB	0bH
	DB	01bH
	DB	010H
	DB	02H
	DB	01bH
	DB	076H
	DB	050H
	DB	020H
	DB	01eH
	DB	01eH
	DB	02H
	DB	02H
	DB	02H
	DB	02H
	DB	02H
	DB	010H
	DB	013H
	DB	02fH
	DB	035H
	DB	02H
	DB	02H
	DB	02H
	DB	017H
	DB	02H
	DB	02H
	DB	02H
	DB	02H
	DB	02H
	DB	02H
	DB	02H
	DB	0fH
	DB	013H
	DB	010H
	DB	01bH
	DB	04aH
	DB	0fH
	DB	027H
	DB	035H
	DB	04bH
	DB	0c4H
	DB	055H
	DB	07cH
	DB	042H
	DB	03bH
	DB	022H
	DB	037H
	DB	037H
	DB	018H
	DB	041H
	DB	0fH
	DB	0fH
	DB	0fH
	DB	03fH
	DB	013H
	DB	06H
	DB	018H
	DB	02aH
	DB	096H
	DB	096H
	DB	018H
	DB	028H
	DB	015H
	DB	02H
	DB	0c1H
	DB	0ceH
	DB	078H
	DB	066H
	DB	0cfH
	DB	07H
	DB	07H
	DB	07H
	DB	03cH
	DB	029H
	DB	014H
	DB	095H
	DB	011H
	DB	095H
	DB	095H
	DB	011H
	DB	0a1H
	DB	0aH
	DB	0aH
	DB	0aH
	DB	0aH
	DB	0aH
	DB	0aH
	DB	0adH
	DB	05bH
	DB	0eH
	DB	0eH
	DB	0b6H
	DB	04H
	DB	02H
	DB	02H
	DB	02H
	DB	02H
	DB	02H
	DB	02H
	DB	02H
	DB	02H
	DB	02H
	DB	02H
	DB	02H
	DB	02H
	DB	02H
	DB	02H
	DB	02H
	DB	02H
	DB	02H
	DB	02H
	DB	02H
	DB	01aH
	DB	03H
	DB	02cH
	DB	0dH
	DB	0dH
	DB	0dH
	DB	0dH
	DB	0dH
	DB	033H
	DB	05H
	DB	04H
	DB	01aH
	DB	02H
	DB	02H
	DB	02H
	DB	02H
	DB	02H
	DB	01aH
	DB	06H
	DB	04H
	DB	04H
	DB	03H
	DB	026H
	DB	05H
	DB	03H
	DB	03H
	DB	026H
	DB	05H
	DB	03H
	DB	03H
	DB	026H
	DB	05H
	DB	03H
	DB	03H
	DB	026H
	DB	05H
	DB	03H
	DB	03H
	DB	026H
	DB	05H
	DB	03H
	DB	03H
	DB	026H
	DB	05H
	DB	03H
	DB	04H
	DB	04H
	DB	04H
	DB	06H
	DB	01aH
	DB	02H
	DB	02H
	DB	02H
	DB	02H
	DB	02H
	DB	06H
	DB	03H
	DB	08H
	DB	033H
	DB	0dH
	DB	0dH
	DB	0dH
	DB	0dH
	DB	0dH
	DB	02cH
	DB	044H
	DB	01aH
	DB	02H
	DB	02H
	DB	02H
	DB	02H
	DB	02H
	DB	02H
	DB	02H
	DB	02H
	DB	02H
	DB	02H
	DB	02H
	DB	02H
	DB	02H
	DB	02H
	DB	02H
	DB	02H
	DB	02H
	DB	02H
	DB	02H
	DB	04H
	DB	0b6H
	DB	0eH
	DB	0eH
	DB	049H
	DB	0bfH
	DB	011H
	DB	011H
	DB	011H
	DB	011H
	DB	011H
	DB	0a1H
	DB	0a1H
	DB	0a1H
	DB	0a1H
	DB	0a1H
	DB	0a1H
	DB	0a1H
	DB	0a1H
	DB	023H
	DB	03cH
	DB	07H
	DB	07H
	DB	07H
	DB	07H
	DB	03aH
	DB	01bH
	DB	02H
	DB	02H
	DB	02H
	DB	02H
	DB	02H
	DB	02H
	DB	02H
	DB	02H
	DB	02H
	DB	0c2H
	DB	099H
	DB	076H
	DB	017H
	DB	017H
	DB	015H
	DB	02H
	DB	02H
	DB	017H
	DB	0bH
	DB	0cH
	DB	027H
	DB	018H
	DB	034H
	DB	035H
	DB	02H
	DB	02H
	DB	02H
	DB	02H
	DB	02H
	DB	02H
	DB	02H
	DB	02H
	DB	02H
	DB	017H
	DB	02H
	DB	0fH
	DB	04bH
	DB	04bH
	DB	01aH
	DB	0bH
	DB	0fH
	DB	02aH
	DB	0cH
	DB	041H
	DB	045H
	DB	043H
	DB	01dH
	DB	02dH
	DB	02dH
	DB	0fH
	DB	031H
	DB	037H
	DB	03bH
	DB	0fH
	DB	013H
	DB	013H
	DB	01dH
	DB	02eH
	DB	01dH
	DB	096H
	DB	030H
	DB	02dH
	DB	018H
	DB	04eH
	DB	0e2H
	DB	01bH
	DB	02H
	DB	0c1H
	DB	038H
	DB	0ceH
	DB	043H
	DB	07H
	DB	07H
	DB	07H
	DB	07H
	DB	0d3H
	DB	023H
	DB	014H
	DB	095H
	DB	095H
	DB	095H
	DB	011H
	DB	0a1H
	DB	0a1H
	DB	0aH
	DB	0aH
	DB	0aH
	DB	0aH
	DB	0aH
	DB	0aH
	DB	0daH
	DB	046H
	DB	0eH
	DB	0eH
	DB	05H
	DB	02H
	DB	02H
	DB	02H
	DB	02H
	DB	02H
	DB	02H
	DB	02H
	DB	02H
	DB	02H
	DB	02H
	DB	02H
	DB	02H
	DB	02H
	DB	02H
	DB	02H
	DB	02H
	DB	02H
	DB	02H
	DB	02H
	DB	06H
	DB	08H
	DB	036H
	DB	0dH
	DB	0dH
	DB	0dH
	DB	0dH
	DB	02cH
	DB	026H
	DB	06H
	DB	02H
	DB	02H
	DB	02H
	DB	02H
	DB	02H
	DB	01aH
	DB	03H
	DB	026H
	DB	06H
	DB	06H
	DB	05H
	DB	05H
	DB	06H
	DB	06H
	DB	05H
	DB	05H
	DB	06H
	DB	06H
	DB	05H
	DB	05H
	DB	06H
	DB	06H
	DB	05H
	DB	05H
	DB	04H
	DB	06H
	DB	05H
	DB	05H
	DB	04H
	DB	06H
	DB	05H
	DB	05H
	DB	04H
	DB	06H
	DB	026H
	DB	05H
	DB	04H
	DB	06H
	DB	026H
	DB	05H
	DB	04H
	DB	06H
	DB	044H
	DB	026H
	DB	06H
	DB	01aH
	DB	01aH
	DB	02H
	DB	02H
	DB	02H
	DB	02H
	DB	06H
	DB	026H
	DB	033H
	DB	0dH
	DB	0dH
	DB	0dH
	DB	0dH
	DB	0dH
	DB	08H
	DB	04H
	DB	02H
	DB	02H
	DB	02H
	DB	02H
	DB	02H
	DB	02H
	DB	02H
	DB	02H
	DB	02H
	DB	02H
	DB	02H
	DB	02H
	DB	02H
	DB	02H
	DB	02H
	DB	02H
	DB	02H
	DB	02H
	DB	02H
	DB	026H
	DB	0eH
	DB	0eH
	DB	046H
	DB	052H
	DB	011H
	DB	011H
	DB	011H
	DB	011H
	DB	011H
	DB	011H
	DB	0a1H
	DB	0a1H
	DB	0a1H
	DB	0a1H
	DB	0a1H
	DB	0a1H
	DB	0a1H
	DB	021H
	DB	0d3H
	DB	07H
	DB	07H
	DB	07H
	DB	07H
	DB	034H
	DB	017H
	DB	037H
	DB	032H
	DB	01cH
	DB	02H
	DB	02H
	DB	02H
	DB	02H
	DB	017H
	DB	0c2H
	DB	099H
	DB	098H
	DB	01bH
	DB	02H
	DB	02H
	DB	020H
	DB	013H
	DB	027H
	DB	0fH
	DB	02aH
	DB	037H
	DB	037H
	DB	02fH
	DB	01eH
	DB	0bH
	DB	02H
	DB	02H
	DB	02H
	DB	02H
	DB	02H
	DB	02H
	DB	02H
	DB	02H
	DB	02H
	DB	02H
	DB	02aH
	DB	02aH
	DB	018H
	DB	0bH
	DB	013H
	DB	04dH
	DB	04dH
	DB	02aH
	DB	043H
	DB	038H
	DB	030H
	DB	01dH
	DB	02eH
	DB	056H
	DB	076H
	DB	0cH
	DB	030H
	DB	053H
	DB	032H
	DB	0cH
	DB	0cH
	DB	01dH
	DB	07cH
	DB	07cH
	DB	0b2H
	DB	06bH
	DB	028H
	DB	010H
	DB	017H
	DB	017H
	DB	02H
	DB	04bH
	DB	0e6H
	DB	058H
	DB	01fH
	DB	07H
	DB	07H
	DB	07H
	DB	07H
	DB	012H
	DB	0aeH
	DB	014H
	DB	014H
	DB	014H
	DB	095H
	DB	011H
	DB	0a1H
	DB	0a1H
	DB	0aH
	DB	0aH
	DB	0aH
	DB	0aH
	DB	0aH
	DB	04fH
	DB	067H
	DB	0eH
	DB	0eH
	DB	0b6H
	DB	06H
	DB	02H
	DB	02H
	DB	02H
	DB	02H
	DB	02H
	DB	02H
	DB	02H
	DB	02H
	DB	02H
	DB	02H
	DB	02H
	DB	02H
	DB	02H
	DB	02H
	DB	02H
	DB	02H
	DB	02H
	DB	02H
	DB	04H
	DB	02cH
	DB	0dH
	DB	0dH
	DB	0dH
	DB	0dH
	DB	033H
	DB	026H
	DB	06H
	DB	02H
	DB	02H
	DB	02H
	DB	02H
	DB	06H
	DB	04H
	DB	03H
	DB	026H
	DB	026H
	DB	03H
	DB	03H
	DB	026H
	DB	026H
	DB	03H
	DB	03H
	DB	026H
	DB	026H
	DB	03H
	DB	03H
	DB	026H
	DB	026H
	DB	03H
	DB	03H
	DB	026H
	DB	026H
	DB	03H
	DB	03H
	DB	026H
	DB	026H
	DB	03H
	DB	03H
	DB	026H
	DB	026H
	DB	03H
	DB	03H
	DB	026H
	DB	026H
	DB	03H
	DB	03H
	DB	026H
	DB	026H
	DB	03H
	DB	03H
	DB	026H
	DB	026H
	DB	03H
	DB	03H
	DB	026H
	DB	026H
	DB	03H
	DB	04H
	DB	04H
	DB	06H
	DB	02H
	DB	02H
	DB	02H
	DB	02H
	DB	04H
	DB	05H
	DB	036H
	DB	0dH
	DB	0dH
	DB	0dH
	DB	0dH
	DB	02cH
	DB	04H
	DB	02H
	DB	02H
	DB	02H
	DB	02H
	DB	02H
	DB	02H
	DB	02H
	DB	02H
	DB	02H
	DB	02H
	DB	02H
	DB	02H
	DB	02H
	DB	02H
	DB	02H
	DB	02H
	DB	02H
	DB	02H
	DB	06H
	DB	0b6H
	DB	0eH
	DB	0eH
	DB	05cH
	DB	0fdH
	DB	011H
	DB	011H
	DB	011H
	DB	011H
	DB	011H
	DB	011H
	DB	0a1H
	DB	0a1H
	DB	0a1H
	DB	0a1H
	DB	0a1H
	DB	0a1H
	DB	014H
	DB	051H
	DB	07H
	DB	07H
	DB	07H
	DB	07H
	DB	0c7H
	DB	07dH
	DB	0f4H
	DB	0d1H
	DB	0caH
	DB	02fH
	DB	0cH
	DB	018H
	DB	041H
	DB	018H
	DB	02aH
	DB	02aH
	DB	02fH
	DB	035H
	DB	0bH
	DB	028H
	DB	0fH
	DB	02aH
	DB	02aH
	DB	0fH
	DB	02aH
	DB	02aH
	DB	0cH
	DB	01bH
	DB	01bH
	DB	01aH
	DB	02H
	DB	02H
	DB	017H
	DB	034H
	DB	0bH
	DB	02H
	DB	02H
	DB	02H
	DB	02H
	DB	018H
	DB	01eH
	DB	01eH
	DB	03aH
	DB	027H
	DB	041H
	DB	0c1H
	DB	04eH
	DB	056H
	DB	053H
	DB	03dH
	DB	01dH
	DB	054H
	DB	077H
	DB	08aH
	DB	0fH
	DB	045H
	DB	03dH
	DB	02dH
	DB	01dH
	DB	022H
	DB	03dH
	DB	022H
	DB	037H
	DB	028H
	DB	0bH
	DB	017H
	DB	02H
	DB	02H
	DB	02H
	DB	0c1H
	DB	0ceH
	DB	07H
	DB	05aH
	DB	07H
	DB	07H
	DB	07H
	DB	07H
	DB	051H
	DB	021H
	DB	014H
	DB	014H
	DB	014H
	DB	014H
	DB	095H
	DB	0a1H
	DB	0aH
	DB	0aH
	DB	0aH
	DB	0aH
	DB	0aH
	DB	0aH
	DB	069H
	DB	049H
	DB	0eH
	DB	0eH
	DB	08H
	DB	02H
	DB	02H
	DB	02H
	DB	02H
	DB	02H
	DB	02H
	DB	02H
	DB	02H
	DB	02H
	DB	02H
	DB	02H
	DB	02H
	DB	02H
	DB	02H
	DB	02H
	DB	02H
	DB	02H
	DB	02H
	DB	04H
	DB	02cH
	DB	0dH
	DB	0dH
	DB	0dH
	DB	0dH
	DB	08H
	DB	04H
	DB	02H
	DB	02H
	DB	02H
	DB	01aH
	DB	01aH
	DB	06H
	DB	05H
	DB	05H
	DB	06H
	DB	06H
	DB	05H
	DB	05H
	DB	06H
	DB	06H
	DB	05H
	DB	05H
	DB	06H
	DB	06H
	DB	05H
	DB	05H
	DB	06H
	DB	06H
	DB	05H
	DB	05H
	DB	06H
	DB	06H
	DB	05H
	DB	05H
	DB	04H
	DB	06H
	DB	05H
	DB	05H
	DB	04H
	DB	06H
	DB	05H
	DB	05H
	DB	04H
	DB	06H
	DB	026H
	DB	05H
	DB	04H
	DB	06H
	DB	026H
	DB	05H
	DB	04H
	DB	06H
	DB	026H
	DB	05H
	DB	04H
	DB	06H
	DB	044H
	DB	05H
	DB	04H
	DB	06H
	DB	044H
	DB	05H
	DB	04H
	DB	06H
	DB	06H
	DB	02H
	DB	02H
	DB	02H
	DB	01aH
	DB	04H
	DB	08H
	DB	0dH
	DB	0dH
	DB	0dH
	DB	0dH
	DB	02cH
	DB	04H
	DB	02H
	DB	02H
	DB	02H
	DB	02H
	DB	02H
	DB	02H
	DB	02H
	DB	02H
	DB	02H
	DB	02H
	DB	02H
	DB	02H
	DB	02H
	DB	02H
	DB	02H
	DB	02H
	DB	02H
	DB	02H
	DB	08H
	DB	0eH
	DB	0eH
	DB	049H
	DB	0bfH
	DB	011H
	DB	011H
	DB	011H
	DB	011H
	DB	011H
	DB	011H
	DB	0a1H
	DB	0a1H
	DB	0a1H
	DB	0a1H
	DB	0a1H
	DB	0a1H
	DB	095H
	DB	0d5H
	DB	07H
	DB	07H
	DB	07H
	DB	07H
	DB	077H
	DB	0cdH
	DB	0d2H
	DB	0f5H
	DB	0a5H
	DB	0eaH
	DB	040H
	DB	039H
	DB	03dH
	DB	01dH
	DB	0fH
	DB	031H
	DB	01eH
	DB	0cH
	DB	0cH
	DB	0cH
	DB	027H
	DB	04dH
	DB	013H
	DB	01bH
	DB	010H
	DB	010H
	DB	010H
	DB	010H
	DB	0bH
	DB	01bH
	DB	0cH
	DB	018H
	DB	031H
	DB	031H
	DB	01cH
	DB	0bH
	DB	010H
	DB	02H
	DB	0fH
	DB	015H
	DB	010H
	DB	018H
	DB	03aH
	DB	03aH
	DB	03fH
	DB	04eH
	DB	02aH
	DB	01eH
	DB	017H
	DB	010H
	DB	0bH
	DB	02fH
	DB	031H
	DB	02dH
	DB	045H
	DB	018H
	DB	02dH
	DB	039H
	DB	039H
	DB	022H
	DB	028H
	DB	020H
	DB	02H
	DB	02H
	DB	02H
	DB	02H
	DB	010H
	DB	041H
	DB	089H
	DB	0ceH
	DB	07eH
	DB	07H
	DB	07H
	DB	07H
	DB	07H
	DB	0d5H
	DB	021H
	DB	014H
	DB	014H
	DB	014H
	DB	014H
	DB	095H
	DB	0a1H
	DB	0aH
	DB	0aH
	DB	0aH
	DB	0aH
	DB	0aH
	DB	0aH
	DB	062H
	DB	071H
	DB	0eH
	DB	0eH
	DB	03H
	DB	02H
	DB	02H
	DB	02H
	DB	02H
	DB	02H
	DB	02H
	DB	02H
	DB	02H
	DB	02H
	DB	02H
	DB	02H
	DB	02H
	DB	02H
	DB	02H
	DB	02H
	DB	02H
	DB	02H
	DB	04H
	DB	02cH
	DB	0dH
	DB	0dH
	DB	0dH
	DB	036H
	DB	044H
	DB	06H
	DB	02H
	DB	02H
	DB	02H
	DB	06H
	DB	04H
	DB	03H
	DB	026H
	DB	026H
	DB	03H
	DB	03H
	DB	026H
	DB	026H
	DB	03H
	DB	03H
	DB	026H
	DB	026H
	DB	03H
	DB	03H
	DB	026H
	DB	026H
	DB	03H
	DB	03H
	DB	026H
	DB	026H
	DB	03H
	DB	03H
	DB	026H
	DB	026H
	DB	03H
	DB	03H
	DB	026H
	DB	026H
	DB	03H
	DB	03H
	DB	026H
	DB	026H
	DB	03H
	DB	03H
	DB	026H
	DB	026H
	DB	03H
	DB	03H
	DB	026H
	DB	026H
	DB	03H
	DB	03H
	DB	026H
	DB	026H
	DB	03H
	DB	03H
	DB	026H
	DB	026H
	DB	03H
	DB	03H
	DB	044H
	DB	026H
	DB	03H
	DB	03H
	DB	044H
	DB	026H
	DB	03H
	DB	03H
	DB	04H
	DB	06H
	DB	02H
	DB	02H
	DB	02H
	DB	06H
	DB	044H
	DB	033H
	DB	0dH
	DB	0dH
	DB	0dH
	DB	02cH
	DB	03H
	DB	02H
	DB	02H
	DB	02H
	DB	02H
	DB	02H
	DB	02H
	DB	02H
	DB	02H
	DB	02H
	DB	02H
	DB	02H
	DB	02H
	DB	02H
	DB	02H
	DB	02H
	DB	02H
	DB	02H
	DB	03H
	DB	0eH
	DB	0eH
	DB	071H
	DB	052H
	DB	0a0H
	DB	011H
	DB	011H
	DB	011H
	DB	011H
	DB	011H
	DB	011H
	DB	0a1H
	DB	0a1H
	DB	0a1H
	DB	0a1H
	DB	0a1H
	DB	095H
	DB	019H
	DB	07H
	DB	07H
	DB	07H
	DB	07H
	DB	03bH
	DB	031H
	DB	08aH
	DB	060H
	DB	032H
	DB	060H
	DB	03dH
	DB	03fH
	DB	027H
	DB	02fH
	DB	02fH
	DB	0bH
	DB	020H
	DB	0bH
	DB	013H
	DB	013H
	DB	013H
	DB	04bH
	DB	010H
	DB	010H
	DB	010H
	DB	010H
	DB	017H
	DB	017H
	DB	04aH
	DB	02aH
	DB	0cH
	DB	01bH
	DB	01eH
	DB	02fH
	DB	031H
	DB	031H
	DB	01eH
	DB	056H
	DB	028H
	DB	04bH
	DB	027H
	DB	047H
	DB	022H
	DB	03dH
	DB	018H
	DB	017H
	DB	01aH
	DB	01aH
	DB	010H
	DB	027H
	DB	027H
	DB	041H
	DB	02dH
	DB	03dH
	DB	028H
	DB	03fH
	DB	039H
	DB	03aH
	DB	01bH
	DB	020H
	DB	02H
	DB	02H
	DB	02H
	DB	02H
	DB	017H
	DB	01bH
	DB	04dH
	DB	045H
	DB	043H
	DB	07H
	DB	07H
	DB	07H
	DB	07H
	DB	019H
	DB	021H
	DB	014H
	DB	014H
	DB	014H
	DB	014H
	DB	095H
	DB	0a1H
	DB	0aH
	DB	0aH
	DB	0aH
	DB	0aH
	DB	0aH
	DB	06aH
	DB	06dH
	DB	0eH
	DB	0eH
	DB	0b6H
	DB	06H
	DB	02H
	DB	02H
	DB	02H
	DB	02H
	DB	02H
	DB	02H
	DB	02H
	DB	02H
	DB	02H
	DB	02H
	DB	02H
	DB	02H
	DB	02H
	DB	02H
	DB	02H
	DB	02H
	DB	03H
	DB	02cH
	DB	0dH
	DB	0dH
	DB	0dH
	DB	02cH
	DB	03H
	DB	01aH
	DB	02H
	DB	02H
	DB	02H
	DB	06H
	DB	05H
	DB	05H
	DB	06H
	DB	04H
	DB	05H
	DB	05H
	DB	06H
	DB	04H
	DB	05H
	DB	05H
	DB	06H
	DB	06H
	DB	05H
	DB	05H
	DB	06H
	DB	06H
	DB	05H
	DB	05H
	DB	06H
	DB	06H
	DB	05H
	DB	05H
	DB	06H
	DB	06H
	DB	05H
	DB	05H
	DB	06H
	DB	06H
	DB	05H
	DB	05H
	DB	04H
	DB	06H
	DB	05H
	DB	05H
	DB	04H
	DB	06H
	DB	05H
	DB	05H
	DB	04H
	DB	06H
	DB	026H
	DB	05H
	DB	04H
	DB	06H
	DB	026H
	DB	05H
	DB	04H
	DB	06H
	DB	026H
	DB	05H
	DB	04H
	DB	06H
	DB	044H
	DB	05H
	DB	04H
	DB	06H
	DB	03H
	DB	05H
	DB	03H
	DB	06H
	DB	03H
	DB	05H
	DB	04H
	DB	01aH
	DB	01aH
	DB	02H
	DB	02H
	DB	01aH
	DB	03H
	DB	02cH
	DB	0dH
	DB	0dH
	DB	0dH
	DB	033H
	DB	03H
	DB	02H
	DB	02H
	DB	02H
	DB	02H
	DB	02H
	DB	02H
	DB	02H
	DB	02H
	DB	02H
	DB	02H
	DB	02H
	DB	02H
	DB	02H
	DB	02H
	DB	02H
	DB	02H
	DB	06H
	DB	033H
	DB	0eH
	DB	0eH
	DB	05cH
	DB	087H
	DB	011H
	DB	011H
	DB	011H
	DB	011H
	DB	011H
	DB	011H
	DB	0a1H
	DB	0a1H
	DB	0a1H
	DB	0a1H
	DB	0a1H
	DB	095H
	DB	081H
	DB	07H
	DB	07H
	DB	07H
	DB	07H
	DB	02dH
	DB	04aH
	DB	028H
	DB	027H
	DB	0fH
	DB	02aH
	DB	027H
	DB	0cH
	DB	0cH
	DB	028H
	DB	028H
	DB	034H
	DB	013H
	DB	013H
	DB	013H
	DB	013H
	DB	04bH
	DB	010H
	DB	010H
	DB	010H
	DB	0bH
	DB	0bH
	DB	017H
	DB	010H
	DB	04aH
	DB	01dH
	DB	03fH
	DB	010H
	DB	0bH
	DB	01eH
	DB	01eH
	DB	01eH
	DB	040H
	DB	02aH
	DB	04eH
	DB	022H
	DB	022H
	DB	022H
	DB	0fH
	DB	0bH
	DB	0bH
	DB	075H
	DB	047H
	DB	018H
	DB	045H
	DB	055H
	DB	054H
	DB	022H
	DB	0fH
	DB	027H
	DB	02dH
	DB	03fH
	DB	0bH
	DB	02H
	DB	02H
	DB	02H
	DB	02H
	DB	02H
	DB	01aH
	DB	017H
	DB	02H
	DB	0c1H
	DB	038H
	DB	07H
	DB	07H
	DB	07H
	DB	07H
	DB	019H
	DB	021H
	DB	014H
	DB	014H
	DB	014H
	DB	014H
	DB	095H
	DB	0a1H
	DB	0aH
	DB	0aH
	DB	0aH
	DB	0aH
	DB	0aH
	DB	064H
	DB	084H
	DB	0eH
	DB	0eH
	DB	08H
	DB	02H
	DB	02H
	DB	02H
	DB	02H
	DB	02H
	DB	02H
	DB	02H
	DB	02H
	DB	02H
	DB	02H
	DB	02H
	DB	02H
	DB	02H
	DB	02H
	DB	02H
	DB	02H
	DB	06H
	DB	02cH
	DB	0dH
	DB	0dH
	DB	0dH
	DB	033H
	DB	03H
	DB	02H
	DB	02H
	DB	02H
	DB	01aH
	DB	04H
	DB	026H
	DB	026H
	DB	03H
	DB	03H
	DB	026H
	DB	026H
	DB	03H
	DB	03H
	DB	026H
	DB	026H
	DB	03H
	DB	03H
	DB	026H
	DB	026H
	DB	03H
	DB	03H
	DB	026H
	DB	026H
	DB	03H
	DB	03H
	DB	026H
	DB	026H
	DB	03H
	DB	03H
	DB	026H
	DB	026H
	DB	03H
	DB	03H
	DB	026H
	DB	026H
	DB	03H
	DB	03H
	DB	026H
	DB	026H
	DB	03H
	DB	03H
	DB	026H
	DB	026H
	DB	03H
	DB	03H
	DB	026H
	DB	026H
	DB	03H
	DB	03H
	DB	044H
	DB	026H
	DB	03H
	DB	03H
	DB	044H
	DB	026H
	DB	03H
	DB	03H
	DB	044H
	DB	026H
	DB	03H
	DB	03H
	DB	044H
	DB	026H
	DB	03H
	DB	03H
	DB	044H
	DB	026H
	DB	03H
	DB	03H
	DB	044H
	DB	026H
	DB	044H
	DB	04H
	DB	06H
	DB	02H
	DB	02H
	DB	02H
	DB	04H
	DB	02cH
	DB	0dH
	DB	0dH
	DB	0dH
	DB	02cH
	DB	06H
	DB	02H
	DB	02H
	DB	02H
	DB	02H
	DB	02H
	DB	02H
	DB	02H
	DB	02H
	DB	02H
	DB	02H
	DB	02H
	DB	02H
	DB	02H
	DB	02H
	DB	02H
	DB	02H
	DB	08H
	DB	0eH
	DB	0eH
	DB	049H
	DB	059H
	DB	011H
	DB	011H
	DB	011H
	DB	011H
	DB	011H
	DB	011H
	DB	0a1H
	DB	0a1H
	DB	0a1H
	DB	0a1H
	DB	0a1H
	DB	011H
	DB	081H
	DB	07H
	DB	07H
	DB	07H
	DB	07H
	DB	018H
	DB	041H
	DB	027H
	DB	04dH
	DB	0cH
	DB	028H
	DB	028H
	DB	028H
	DB	018H
	DB	018H
	DB	0cH
	DB	013H
	DB	01bH
	DB	01bH
	DB	01bH
	DB	0bH
	DB	01aH
	DB	010H
	DB	010H
	DB	01bH
	DB	013H
	DB	028H
	DB	01bH
	DB	010H
	DB	02aH
	DB	0fH
	DB	010H
	DB	010H
	DB	02H
	DB	017H
	DB	017H
	DB	08dH
	DB	037H
	DB	054H
	DB	02eH
	DB	02eH
	DB	02eH
	DB	027H
	DB	034H
	DB	039H
	DB	030H
	DB	01dH
	DB	045H
	DB	02eH
	DB	03bH
	DB	047H
	DB	01dH
	DB	03fH
	DB	027H
	DB	03fH
	DB	04dH
	DB	017H
	DB	02H
	DB	02H
	DB	02H
	DB	02H
	DB	013H
	DB	0bH
	DB	02H
	DB	02H
	DB	013H
	DB	07H
	DB	07H
	DB	07H
	DB	07H
	DB	0d5H
	DB	021H
	DB	09fH
	DB	09fH
	DB	014H
	DB	014H
	DB	095H
	DB	0a1H
	DB	0aH
	DB	0aH
	DB	0aH
	DB	0aH
	DB	0aH
	DB	059H
	DB	0d7H
	DB	0eH
	DB	0eH
	DB	03H
	DB	02H
	DB	02H
	DB	02H
	DB	02H
	DB	02H
	DB	02H
	DB	02H
	DB	02H
	DB	02H
	DB	02H
	DB	02H
	DB	02H
	DB	02H
	DB	02H
	DB	02H
	DB	01aH
	DB	08H
	DB	0dH
	DB	0dH
	DB	0dH
	DB	033H
	DB	03H
	DB	02H
	DB	02H
	DB	02H
	DB	06H
	DB	03H
	DB	06H
	DB	04H
	DB	08H
	DB	05H
	DB	06H
	DB	04H
	DB	08H
	DB	05H
	DB	06H
	DB	04H
	DB	08H
	DB	05H
	DB	06H
	DB	04H
	DB	08H
	DB	05H
	DB	06H
	DB	06H
	DB	08H
	DB	05H
	DB	06H
	DB	06H
	DB	08H
	DB	08H
	DB	06H
	DB	06H
	DB	05H
	DB	08H
	DB	06H
	DB	06H
	DB	05H
	DB	08H
	DB	04H
	DB	06H
	DB	05H
	DB	08H
	DB	04H
	DB	06H
	DB	05H
	DB	08H
	DB	04H
	DB	06H
	DB	05H
	DB	08H
	DB	04H
	DB	06H
	DB	026H
	DB	08H
	DB	04H
	DB	06H
	DB	026H
	DB	08H
	DB	04H
	DB	06H
	DB	026H
	DB	08H
	DB	04H
	DB	06H
	DB	044H
	DB	08H
	DB	03H
	DB	06H
	DB	03H
	DB	08H
	DB	03H
	DB	06H
	DB	03H
	DB	08H
	DB	03H
	DB	06H
	DB	03H
	DB	026H
	DB	06H
	DB	02H
	DB	02H
	DB	02H
	DB	03H
	DB	033H
	DB	0dH
	DB	0dH
	DB	0dH
	DB	05H
	DB	01aH
	DB	02H
	DB	02H
	DB	02H
	DB	02H
	DB	02H
	DB	02H
	DB	02H
	DB	02H
	DB	02H
	DB	02H
	DB	02H
	DB	02H
	DB	02H
	DB	02H
	DB	02H
	DB	04H
	DB	0eH
	DB	0eH
	DB	046H
	DB	086H
	DB	011H
	DB	095H
	DB	095H
	DB	095H
	DB	011H
	DB	011H
	DB	011H
	DB	0a1H
	DB	0a1H
	DB	0a1H
	DB	0a1H
	DB	095H
	DB	081H
	DB	07H
	DB	07H
	DB	07H
	DB	07H
	DB	03fH
	DB	0fH
	DB	018H
	DB	0fH
	DB	01dH
	DB	0cH
	DB	013H
	DB	04dH
	DB	027H
	DB	013H
	DB	013H
	DB	04aH
	DB	01bH
	DB	0bH
	DB	0bH
	DB	010H
	DB	010H
	DB	010H
	DB	010H
	DB	01bH
	DB	02fH
	DB	01cH
	DB	017H
	DB	010H
	DB	0bH
	DB	01aH
	DB	02H
	DB	02H
	DB	017H
	DB	010H
	DB	0f2H
	DB	032H
	DB	018H
	DB	01dH
	DB	043H
	DB	038H
	DB	038H
	DB	02eH
	DB	02eH
	DB	03fH
	DB	04dH
	DB	055H
	DB	066H
	DB	0e8H
	DB	075H
	DB	096H
	DB	043H
	DB	039H
	DB	022H
	DB	04aH
	DB	02H
	DB	02H
	DB	02H
	DB	02H
	DB	010H
	DB	04bH
	DB	027H
	DB	035H
	DB	02H
	DB	0cfH
	DB	07H
	DB	07H
	DB	07H
	DB	051H
	DB	021H
	DB	09fH
	DB	09fH
	DB	09fH
	DB	014H
	DB	095H
	DB	0a1H
	DB	0aH
	DB	0aH
	DB	0aH
	DB	0aH
	DB	0aH
	DB	063H
	DB	071H
	DB	0eH
	DB	0b6H
	DB	06H
	DB	02H
	DB	02H
	DB	02H
	DB	02H
	DB	02H
	DB	02H
	DB	02H
	DB	02H
	DB	02H
	DB	02H
	DB	02H
	DB	02H
	DB	02H
	DB	02H
	DB	02H
	DB	03H
	DB	036H
	DB	0dH
	DB	0dH
	DB	0dH
	DB	044H
	DB	01aH
	DB	02H
	DB	02H
	DB	06H
	DB	03H
	DB	03H
	DB	03H
	DB	026H
	DB	044H
	DB	03H
	DB	03H
	DB	026H
	DB	044H
	DB	03H
	DB	03H
	DB	026H
	DB	044H
	DB	03H
	DB	03H
	DB	026H
	DB	044H
	DB	03H
	DB	03H
	DB	026H
	DB	026H
	DB	03H
	DB	03H
	DB	026H
	DB	026H
	DB	03H
	DB	03H
	DB	026H
	DB	026H
	DB	03H
	DB	03H
	DB	026H
	DB	026H
	DB	03H
	DB	03H
	DB	044H
	DB	026H
	DB	03H
	DB	03H
	DB	044H
	DB	026H
	DB	03H
	DB	03H
	DB	044H
	DB	026H
	DB	03H
	DB	03H
	DB	044H
	DB	026H
	DB	03H
	DB	03H
	DB	044H
	DB	026H
	DB	03H
	DB	03H
	DB	044H
	DB	026H
	DB	03H
	DB	03H
	DB	044H
	DB	026H
	DB	03H
	DB	03H
	DB	044H
	DB	026H
	DB	03H
	DB	03H
	DB	044H
	DB	026H
	DB	03H
	DB	03H
	DB	044H
	DB	026H
	DB	03H
	DB	03H
	DB	044H
	DB	03H
	DB	06H
	DB	02H
	DB	02H
	DB	01aH
	DB	044H
	DB	0dH
	DB	0dH
	DB	0dH
	DB	036H
	DB	03H
	DB	02H
	DB	02H
	DB	02H
	DB	02H
	DB	02H
	DB	02H
	DB	02H
	DB	02H
	DB	02H
	DB	02H
	DB	02H
	DB	02H
	DB	02H
	DB	02H
	DB	02H
	DB	06H
	DB	0b6H
	DB	0eH
	DB	071H
	DB	0daH
	DB	095H
	DB	095H
	DB	095H
	DB	095H
	DB	095H
	DB	011H
	DB	011H
	DB	0a1H
	DB	0a1H
	DB	0a1H
	DB	0a1H
	DB	095H
	DB	019H
	DB	07H
	DB	07H
	DB	07H
	DB	07H
	DB	0cH
	DB	0cH
	DB	02aH
	DB	01dH
	DB	027H
	DB	01bH
	DB	010H
	DB	04bH
	DB	01bH
	DB	013H
	DB	013H
	DB	020H
	DB	010H
	DB	0bH
	DB	0bH
	DB	010H
	DB	010H
	DB	04bH
	DB	01bH
	DB	01cH
	DB	01cH
	DB	010H
	DB	01aH
	DB	02H
	DB	02H
	DB	02H
	DB	02H
	DB	017H
	DB	013H
	DB	0e9H
	DB	032H
	DB	022H
	DB	03dH
	DB	045H
	DB	030H
	DB	056H
	DB	043H
	DB	089H
	DB	04bH
	DB	04dH
	DB	02aH
	DB	039H
	DB	066H
	DB	01fH
	DB	0cfH
	DB	07fH
	DB	0a3H
	DB	01eH
	DB	017H
	DB	02H
	DB	02H
	DB	01aH
	DB	070H
	DB	04aH
	DB	017H
	DB	027H
	DB	039H
	DB	0cfH
	DB	07H
	DB	07H
	DB	07H
	DB	012H
	DB	0aeH
	DB	09fH
	DB	09fH
	DB	09fH
	DB	09fH
	DB	095H
	DB	0a1H
	DB	0aH
	DB	0aH
	DB	0aH
	DB	0aH
	DB	0aH
	DB	062H
	DB	0eH
	DB	0eH
	DB	0b6H
	DB	06H
	DB	02H
	DB	02H
	DB	02H
	DB	02H
	DB	02H
	DB	02H
	DB	02H
	DB	02H
	DB	02H
	DB	02H
	DB	02H
	DB	02H
	DB	02H
	DB	02H
	DB	06H
	DB	02cH
	DB	0dH
	DB	0dH
	DB	0dH
	DB	08H
	DB	06H
	DB	02H
	DB	02H
	DB	01aH
	DB	04H
	DB	08H
	DB	026H
	DB	06H
	DB	04H
	DB	08H
	DB	05H
	DB	06H
	DB	04H
	DB	08H
	DB	05H
	DB	06H
	DB	04H
	DB	08H
	DB	05H
	DB	06H
	DB	04H
	DB	08H
	DB	05H
	DB	06H
	DB	04H
	DB	08H
	DB	05H
	DB	06H
	DB	06H
	DB	08H
	DB	08H
	DB	06H
	DB	06H
	DB	05H
	DB	08H
	DB	06H
	DB	06H
	DB	05H
	DB	08H
	DB	04H
	DB	06H
	DB	05H
	DB	08H
	DB	04H
	DB	06H
	DB	05H
	DB	08H
	DB	04H
	DB	06H
	DB	05H
	DB	08H
	DB	04H
	DB	06H
	DB	026H
	DB	08H
	DB	04H
	DB	06H
	DB	026H
	DB	08H
	DB	04H
	DB	06H
	DB	026H
	DB	08H
	DB	04H
	DB	06H
	DB	044H
	DB	08H
	DB	04H
	DB	06H
	DB	044H
	DB	08H
	DB	03H
	DB	06H
	DB	03H
	DB	08H
	DB	03H
	DB	06H
	DB	03H
	DB	08H
	DB	03H
	DB	06H
	DB	03H
	DB	08H
	DB	03H
	DB	06H
	DB	06H
	DB	02H
	DB	02H
	DB	04H
	DB	08H
	DB	0dH
	DB	0dH
	DB	0dH
	DB	02cH
	DB	06H
	DB	02H
	DB	02H
	DB	02H
	DB	02H
	DB	02H
	DB	02H
	DB	02H
	DB	02H
	DB	02H
	DB	02H
	DB	02H
	DB	02H
	DB	02H
	DB	02H
	DB	01aH
	DB	036H
	DB	0eH
	DB	0eH
	DB	068H
	DB	095H
	DB	095H
	DB	095H
	DB	095H
	DB	095H
	DB	011H
	DB	011H
	DB	011H
	DB	0a1H
	DB	011H
	DB	011H
	DB	095H
	DB	0d5H
	DB	07H
	DB	07H
	DB	07H
	DB	0cfH
	DB	0cH
	DB	02aH
	DB	018H
	DB	018H
	DB	013H
	DB	04bH
	DB	041H
	DB	010H
	DB	01aH
	DB	02H
	DB	017H
	DB	01aH
	DB	01aH
	DB	010H
	DB	017H
	DB	01bH
	DB	013H
	DB	010H
	DB	010H
	DB	013H
	DB	010H
	DB	01aH
	DB	01aH
	DB	017H
	DB	02H
	DB	017H
	DB	010H
	DB	010H
	DB	039H
	DB	043H
	DB	03dH
	DB	02aH
	DB	018H
	DB	060H
	DB	07bH
	DB	060H
	DB	013H
	DB	0c1H
	DB	03fH
	DB	018H
	DB	027H
	DB	078H
	DB	0f7H
	DB	0f6H
	DB	07dH
	DB	01eH
	DB	02H
	DB	02H
	DB	02H
	DB	02H
	DB	04eH
	DB	0b2H
	DB	028H
	DB	02H
	DB	018H
	DB	07H
	DB	07H
	DB	07H
	DB	07H
	DB	0d3H
	DB	0e0H
	DB	09fH
	DB	09fH
	DB	09fH
	DB	09fH
	DB	095H
	DB	0a1H
	DB	0aH
	DB	0aH
	DB	0aH
	DB	0aH
	DB	0aH
	DB	0daH
	DB	0eH
	DB	0eH
	DB	033H
	DB	01aH
	DB	02H
	DB	02H
	DB	02H
	DB	02H
	DB	02H
	DB	02H
	DB	02H
	DB	02H
	DB	02H
	DB	02H
	DB	02H
	DB	02H
	DB	02H
	DB	02H
	DB	044H
	DB	0dH
	DB	0dH
	DB	0dH
	DB	033H
	DB	04H
	DB	02H
	DB	02H
	DB	01aH
	DB	04H
	DB	044H
	DB	044H
	DB	03H
	DB	03H
	DB	044H
	DB	044H
	DB	03H
	DB	03H
	DB	044H
	DB	044H
	DB	03H
	DB	03H
	DB	044H
	DB	044H
	DB	03H
	DB	03H
	DB	044H
	DB	044H
	DB	03H
	DB	03H
	DB	044H
	DB	044H
	DB	03H
	DB	03H
	DB	044H
	DB	044H
	DB	03H
	DB	03H
	DB	044H
	DB	044H
	DB	03H
	DB	03H
	DB	044H
	DB	044H
	DB	03H
	DB	03H
	DB	044H
	DB	044H
	DB	03H
	DB	03H
	DB	044H
	DB	044H
	DB	03H
	DB	03H
	DB	044H
	DB	044H
	DB	03H
	DB	03H
	DB	044H
	DB	044H
	DB	03H
	DB	03H
	DB	044H
	DB	044H
	DB	03H
	DB	03H
	DB	044H
	DB	044H
	DB	03H
	DB	03H
	DB	044H
	DB	044H
	DB	03H
	DB	03H
	DB	044H
	DB	044H
	DB	03H
	DB	03H
	DB	044H
	DB	044H
	DB	03H
	DB	03H
	DB	03H
	DB	044H
	DB	03H
	DB	03H
	DB	03H
	DB	044H
	DB	03H
	DB	03H
	DB	03H
	DB	044H
	DB	03H
	DB	04H
	DB	01aH
	DB	02H
	DB	02H
	DB	04H
	DB	033H
	DB	0dH
	DB	0dH
	DB	0dH
	DB	044H
	DB	02H
	DB	02H
	DB	02H
	DB	02H
	DB	02H
	DB	02H
	DB	02H
	DB	02H
	DB	02H
	DB	02H
	DB	02H
	DB	02H
	DB	02H
	DB	02H
	DB	02H
	DB	02cH
	DB	0eH
	DB	0eH
	DB	092H
	DB	095H
	DB	095H
	DB	095H
	DB	095H
	DB	095H
	DB	011H
	DB	011H
	DB	011H
	DB	011H
	DB	011H
	DB	011H
	DB	014H
	DB	012H
	DB	07H
	DB	07H
	DB	07H
	DB	03eH
	DB	017H
	DB	01bH
	DB	0fH
	DB	018H
	DB	018H
	DB	027H
	DB	0bH
	DB	035H
	DB	034H
	DB	035H
	DB	02H
	DB	02H
	DB	02H
	DB	017H
	DB	0bH
	DB	0bH
	DB	01aH
	DB	010H
	DB	0bH
	DB	0bH
	DB	010H
	DB	013H
	DB	010H
	DB	017H
	DB	010H
	DB	01bH
	DB	010H
	DB	038H
	DB	039H
	DB	0cH
	DB	041H
	DB	031H
	DB	0b1H
	DB	08dH
	DB	0c9H
	DB	060H
	DB	042H
	DB	06bH
	DB	022H
	DB	03fH
	DB	0ccH
	DB	0cdH
	DB	065H
	DB	020H
	DB	02H
	DB	02H
	DB	02H
	DB	02H
	DB	02H
	DB	01bH
	DB	0cH
	DB	020H
	DB	010H
	DB	01fH
	DB	07H
	DB	07H
	DB	07H
	DB	03cH
	DB	0dcH
	DB	09fH
	DB	09fH
	DB	09fH
	DB	09fH
	DB	095H
	DB	0a1H
	DB	0aH
	DB	0aH
	DB	0aH
	DB	0aH
	DB	0aH
	DB	052H
	DB	0eH
	DB	0eH
	DB	02cH
	DB	02H
	DB	02H
	DB	02H
	DB	02H
	DB	02H
	DB	02H
	DB	02H
	DB	02H
	DB	02H
	DB	02H
	DB	02H
	DB	02H
	DB	02H
	DB	02H
	DB	01aH
	DB	02cH
	DB	0dH
	DB	0dH
	DB	0dH
	DB	026H
	DB	01aH
	DB	02H
	DB	01aH
	DB	04H
	DB	06H
	DB	04H
	DB	08H
	DB	026H
	DB	06H
	DB	04H
	DB	08H
	DB	026H
	DB	06H
	DB	04H
	DB	08H
	DB	05H
	DB	06H
	DB	04H
	DB	08H
	DB	05H
	DB	06H
	DB	04H
	DB	08H
	DB	05H
	DB	06H
	DB	04H
	DB	08H
	DB	05H
	DB	06H
	DB	06H
	DB	08H
	DB	05H
	DB	06H
	DB	06H
	DB	08H
	DB	08H
	DB	06H
	DB	06H
	DB	05H
	DB	08H
	DB	04H
	DB	06H
	DB	05H
	DB	08H
	DB	04H
	DB	06H
	DB	05H
	DB	08H
	DB	04H
	DB	06H
	DB	05H
	DB	08H
	DB	04H
	DB	06H
	DB	05H
	DB	08H
	DB	04H
	DB	06H
	DB	026H
	DB	08H
	DB	04H
	DB	06H
	DB	026H
	DB	08H
	DB	04H
	DB	06H
	DB	026H
	DB	08H
	DB	04H
	DB	06H
	DB	044H
	DB	08H
	DB	03H
	DB	06H
	DB	044H
	DB	08H
	DB	03H
	DB	06H
	DB	03H
	DB	08H
	DB	03H
	DB	06H
	DB	03H
	DB	08H
	DB	03H
	DB	06H
	DB	03H
	DB	08H
	DB	03H
	DB	06H
	DB	03H
	DB	04H
	DB	02H
	DB	02H
	DB	01aH
	DB	026H
	DB	0dH
	DB	0dH
	DB	0dH
	DB	08H
	DB	01aH
	DB	02H
	DB	02H
	DB	02H
	DB	02H
	DB	02H
	DB	02H
	DB	02H
	DB	02H
	DB	02H
	DB	02H
	DB	02H
	DB	02H
	DB	02H
	DB	02H
	DB	02cH
	DB	0eH
	DB	0eH
	DB	073H
	DB	095H
	DB	095H
	DB	095H
	DB	095H
	DB	095H
	DB	011H
	DB	011H
	DB	011H
	DB	011H
	DB	011H
	DB	011H
	DB	021H
	DB	03cH
	DB	07H
	DB	07H
	DB	07H
	DB	030H
	DB	0bH
	DB	01eH
	DB	01bH
	DB	01bH
	DB	01bH
	DB	01bH
	DB	043H
	DB	066H
	DB	01aH
	DB	02H
	DB	02H
	DB	02H
	DB	010H
	DB	0bH
	DB	01bH
	DB	010H
	DB	010H
	DB	0bH
	DB	01bH
	DB	013H
	DB	034H
	DB	013H
	DB	010H
	DB	017H
	DB	0bH
	DB	01eH
	DB	022H
	DB	0cH
	DB	0bH
	DB	018H
	DB	022H
	DB	065H
	DB	0b1H
	DB	0cbH
	DB	0d0H
	DB	0d0H
	DB	050H
	DB	013H
	DB	04dH
	DB	01bH
	DB	015H
	DB	02H
	DB	02H
	DB	02H
	DB	02H
	DB	02H
	DB	02H
	DB	02H
	DB	02H
	DB	0bH
	DB	027H
	DB	066H
	DB	07H
	DB	07H
	DB	07H
	DB	07H
	DB	016H
	DB	09fH
	DB	09fH
	DB	09fH
	DB	09fH
	DB	014H
	DB	0a1H
	DB	0aH
	DB	0aH
	DB	0aH
	DB	0aH
	DB	0aH
	DB	074H
	DB	0eH
	DB	0eH
	DB	02cH
	DB	02H
	DB	02H
	DB	02H
	DB	02H
	DB	02H
	DB	02H
	DB	02H
	DB	02H
	DB	02H
	DB	02H
	DB	02H
	DB	02H
	DB	02H
	DB	02H
	DB	04H
	DB	036H
	DB	0dH
	DB	0dH
	DB	033H
	DB	04H
	DB	02H
	DB	02H
	DB	06H
	DB	03H
	DB	03H
	DB	044H
	DB	03H
	DB	03H
	DB	03H
	DB	044H
	DB	03H
	DB	03H
	DB	03H
	DB	044H
	DB	044H
	DB	03H
	DB	03H
	DB	044H
	DB	044H
	DB	03H
	DB	03H
	DB	044H
	DB	044H
	DB	03H
	DB	03H
	DB	044H
	DB	044H
	DB	03H
	DB	03H
	DB	044H
	DB	044H
	DB	03H
	DB	03H
	DB	044H
	DB	044H
	DB	03H
	DB	03H
	DB	044H
	DB	044H
	DB	03H
	DB	03H
	DB	044H
	DB	044H
	DB	03H
	DB	03H
	DB	044H
	DB	044H
	DB	03H
	DB	03H
	DB	044H
	DB	044H
	DB	03H
	DB	03H
	DB	044H
	DB	044H
	DB	03H
	DB	03H
	DB	044H
	DB	044H
	DB	03H
	DB	03H
	DB	03H
	DB	044H
	DB	03H
	DB	03H
	DB	03H
	DB	044H
	DB	03H
	DB	03H
	DB	03H
	DB	044H
	DB	03H
	DB	03H
	DB	03H
	DB	044H
	DB	03H
	DB	03H
	DB	03H
	DB	044H
	DB	03H
	DB	03H
	DB	03H
	DB	044H
	DB	03H
	DB	03H
	DB	03H
	DB	044H
	DB	03H
	DB	03H
	DB	03H
	DB	044H
	DB	03H
	DB	03H
	DB	03H
	DB	06H
	DB	02H
	DB	02H
	DB	04H
	DB	033H
	DB	0dH
	DB	0dH
	DB	033H
	DB	04H
	DB	02H
	DB	02H
	DB	02H
	DB	02H
	DB	02H
	DB	02H
	DB	02H
	DB	02H
	DB	02H
	DB	02H
	DB	02H
	DB	02H
	DB	02H
	DB	02H
	DB	08H
	DB	0eH
	DB	0eH
	DB	06dH
	DB	095H
	DB	095H
	DB	095H
	DB	095H
	DB	095H
	DB	011H
	DB	011H
	DB	011H
	DB	011H
	DB	011H
	DB	011H
	DB	023H
	DB	03cH
	DB	07H
	DB	07H
	DB	07H
	DB	047H
	DB	02H
	DB	02H
	DB	02H
	DB	017H
	DB	0e2H
	DB	058H
	DB	01fH
	DB	015H
	DB	01eH
	DB	020H
	DB	02H
	DB	017H
	DB	01eH
	DB	031H
	DB	013H
	DB	010H
	DB	0cH
	DB	027H
	DB	013H
	DB	013H
	DB	0cH
	DB	0bH
	DB	017H
	DB	0bH
	DB	020H
	DB	03fH
	DB	0cH
	DB	013H
	DB	0fH
	DB	037H
	DB	018H
	DB	04aH
	DB	076H
	DB	0a2H
	DB	0c5H
	DB	02H
	DB	02H
	DB	017H
	DB	02H
	DB	02H
	DB	02H
	DB	02H
	DB	02H
	DB	02H
	DB	01aH
	DB	01aH
	DB	010H
	DB	027H
	DB	01dH
	DB	056H
	DB	07H
	DB	07H
	DB	07H
	DB	07H
	DB	0dbH
	DB	021H
	DB	021H
	DB	09fH
	DB	09fH
	DB	014H
	DB	0a1H
	DB	0aH
	DB	0aH
	DB	0aH
	DB	0aH
	DB	0aH
	DB	052H
	DB	0eH
	DB	0eH
	DB	08H
	DB	02H
	DB	02H
	DB	02H
	DB	02H
	DB	02H
	DB	02H
	DB	02H
	DB	02H
	DB	02H
	DB	02H
	DB	02H
	DB	02H
	DB	02H
	DB	02H
	DB	05H
	DB	0dH
	DB	0dH
	DB	0dH
	DB	08H
	DB	01aH
	DB	02H
	DB	02H
	DB	03H
	DB	026H
	DB	06H
	DB	04H
	DB	08H
	DB	026H
	DB	06H
	DB	04H
	DB	08H
	DB	026H
	DB	06H
	DB	04H
	DB	08H
	DB	05H
	DB	06H
	DB	04H
	DB	08H
	DB	05H
	DB	06H
	DB	04H
	DB	08H
	DB	05H
	DB	06H
	DB	04H
	DB	08H
	DB	05H
	DB	06H
	DB	04H
	DB	08H
	DB	05H
	DB	06H
	DB	06H
	DB	08H
	DB	08H
	DB	06H
	DB	06H
	DB	08H
	DB	08H
	DB	04H
	DB	06H
	DB	05H
	DB	08H
	DB	04H
	DB	06H
	DB	05H
	DB	08H
	DB	04H
	DB	06H
	DB	05H
	DB	08H
	DB	04H
	DB	06H
	DB	05H
	DB	08H
	DB	04H
	DB	06H
	DB	05H
	DB	08H
	DB	04H
	DB	06H
	DB	026H
	DB	08H
	DB	04H
	DB	06H
	DB	026H
	DB	08H
	DB	04H
	DB	06H
	DB	026H
	DB	08H
	DB	03H
	DB	06H
	DB	044H
	DB	08H
	DB	03H
	DB	06H
	DB	03H
	DB	08H
	DB	03H
	DB	06H
	DB	03H
	DB	08H
	DB	03H
	DB	06H
	DB	03H
	DB	08H
	DB	03H
	DB	06H
	DB	03H
	DB	08H
	DB	03H
	DB	06H
	DB	03H
	DB	08H
	DB	04H
	DB	02H
	DB	02H
	DB	01aH
	DB	08H
	DB	0dH
	DB	0dH
	DB	0dH
	DB	026H
	DB	02H
	DB	02H
	DB	02H
	DB	02H
	DB	02H
	DB	02H
	DB	02H
	DB	02H
	DB	02H
	DB	02H
	DB	02H
	DB	02H
	DB	02H
	DB	02H
	DB	08H
	DB	0eH
	DB	0eH
	DB	06dH
	DB	095H
	DB	095H
	DB	095H
	DB	095H
	DB	095H
	DB	095H
	DB	011H
	DB	011H
	DB	011H
	DB	011H
	DB	011H
	DB	029H
	DB	07H
	DB	07H
	DB	07H
	DB	07H
	DB	0bH
	DB	02H
	DB	02H
	DB	017H
	DB	04bH
	DB	098H
	DB	031H
	DB	01cH
	DB	01eH
	DB	017H
	DB	0bH
	DB	028H
	DB	0fH
	DB	02fH
	DB	01bH
	DB	013H
	DB	028H
	DB	027H
	DB	0cH
	DB	01bH
	DB	015H
	DB	02H
	DB	017H
	DB	015H
	DB	02H
	DB	04dH
	DB	04dH
	DB	03fH
	DB	01dH
	DB	018H
	DB	03fH
	DB	0e3H
	DB	018H
	DB	0bH
	DB	01aH
	DB	017H
	DB	02H
	DB	02H
	DB	02H
	DB	02H
	DB	02H
	DB	02H
	DB	04bH
	DB	089H
	DB	027H
	DB	022H
	DB	0fH
	DB	054H
	DB	0ceH
	DB	07H
	DB	07H
	DB	07H
	DB	07H
	DB	025H
	DB	0aeH
	DB	021H
	DB	021H
	DB	021H
	DB	014H
	DB	011H
	DB	0aH
	DB	0aH
	DB	0aH
	DB	0aH
	DB	0aH
	DB	0daH
	DB	0eH
	DB	0eH
	DB	08H
	DB	02H
	DB	02H
	DB	02H
	DB	02H
	DB	02H
	DB	02H
	DB	02H
	DB	02H
	DB	02H
	DB	02H
	DB	02H
	DB	02H
	DB	02H
	DB	01aH
	DB	02cH
	DB	0dH
	DB	0dH
	DB	0dH
	DB	03H
	DB	02H
	DB	02H
	DB	06H
	DB	03H
	DB	03H
	DB	03H
	DB	03H
	DB	03H
	DB	03H
	DB	03H
	DB	03H
	DB	03H
	DB	03H
	DB	03H
	DB	03H
	DB	03H
	DB	03H
	DB	03H
	DB	03H
	DB	03H
	DB	03H
	DB	03H
	DB	03H
	DB	03H
	DB	03H
	DB	03H
	DB	03H
	DB	03H
	DB	03H
	DB	03H
	DB	03H
	DB	03H
	DB	03H
	DB	03H
	DB	03H
	DB	03H
	DB	03H
	DB	03H
	DB	03H
	DB	03H
	DB	03H
	DB	03H
	DB	03H
	DB	03H
	DB	03H
	DB	03H
	DB	03H
	DB	03H
	DB	03H
	DB	03H
	DB	03H
	DB	03H
	DB	03H
	DB	03H
	DB	03H
	DB	03H
	DB	03H
	DB	03H
	DB	03H
	DB	03H
	DB	03H
	DB	03H
	DB	03H
	DB	03H
	DB	03H
	DB	03H
	DB	03H
	DB	03H
	DB	03H
	DB	03H
	DB	03H
	DB	03H
	DB	03H
	DB	03H
	DB	03H
	DB	03H
	DB	03H
	DB	03H
	DB	03H
	DB	03H
	DB	03H
	DB	03H
	DB	03H
	DB	03H
	DB	03H
	DB	03H
	DB	03H
	DB	03H
	DB	03H
	DB	03H
	DB	03H
	DB	03H
	DB	03H
	DB	03H
	DB	03H
	DB	03H
	DB	03H
	DB	03H
	DB	03H
	DB	03H
	DB	06H
	DB	02H
	DB	02H
	DB	03H
	DB	0dH
	DB	0dH
	DB	0dH
	DB	02cH
	DB	01aH
	DB	02H
	DB	02H
	DB	02H
	DB	02H
	DB	02H
	DB	02H
	DB	02H
	DB	02H
	DB	02H
	DB	02H
	DB	02H
	DB	02H
	DB	02H
	DB	08H
	DB	0eH
	DB	0eH
	DB	073H
	DB	014H
	DB	095H
	DB	095H
	DB	014H
	DB	095H
	DB	095H
	DB	011H
	DB	011H
	DB	011H
	DB	011H
	DB	011H
	DB	02bH
	DB	07H
	DB	07H
	DB	07H
	DB	07H
	DB	0fH
	DB	034H
	DB	01bH
	DB	04bH
	DB	04bH
	DB	0bH
	DB	01bH
	DB	02fH
	DB	027H
	DB	031H
	DB	028H
	DB	034H
	DB	0bH
	DB	034H
	DB	013H
	DB	010H
	DB	035H
	DB	01eH
	DB	01bH
	DB	01aH
	DB	017H
	DB	017H
	DB	02H
	DB	02H
	DB	010H
	DB	010H
	DB	013H
	DB	018H
	DB	04aH
	DB	03fH
	DB	0c4H
	DB	03fH
	DB	01aH
	DB	02H
	DB	02H
	DB	02H
	DB	01aH
	DB	041H
	DB	010H
	DB	02H
	DB	010H
	DB	0b0H
	DB	0e6H
	DB	056H
	DB	042H
	DB	01eH
	DB	01bH
	DB	0cfH
	DB	07H
	DB	07H
	DB	07H
	DB	0d5H
	DB	0e0H
	DB	0aeH
	DB	021H
	DB	021H
	DB	09fH
	DB	095H
	DB	0aH
	DB	0aH
	DB	0aH
	DB	0aH
	DB	0aH
	DB	062H
	DB	0eH
	DB	0eH
	DB	02cH
	DB	02H
	DB	02H
	DB	02H
	DB	02H
	DB	02H
	DB	02H
	DB	02H
	DB	02H
	DB	02H
	DB	02H
	DB	02H
	DB	02H
	DB	02H
	DB	06H
	DB	033H
	DB	0dH
	DB	0dH
	DB	033H
	DB	04H
	DB	02H
	DB	02H
	DB	06H
	DB	08H
	DB	026H
	DB	06H
	DB	04H
	DB	08H
	DB	026H
	DB	06H
	DB	04H
	DB	08H
	DB	026H
	DB	06H
	DB	04H
	DB	08H
	DB	05H
	DB	06H
	DB	04H
	DB	08H
	DB	05H
	DB	06H
	DB	04H
	DB	08H
	DB	05H
	DB	06H
	DB	04H
	DB	08H
	DB	05H
	DB	06H
	DB	04H
	DB	08H
	DB	05H
	DB	06H
	DB	04H
	DB	08H
	DB	08H
	DB	06H
	DB	06H
	DB	08H
	DB	08H
	DB	06H
	DB	06H
	DB	05H
	DB	08H
	DB	04H
	DB	06H
	DB	05H
	DB	08H
	DB	04H
	DB	06H
	DB	05H
	DB	08H
	DB	04H
	DB	06H
	DB	05H
	DB	08H
	DB	04H
	DB	06H
	DB	05H
	DB	08H
	DB	04H
	DB	06H
	DB	026H
	DB	08H
	DB	04H
	DB	06H
	DB	026H
	DB	08H
	DB	04H
	DB	06H
	DB	026H
	DB	08H
	DB	03H
	DB	06H
	DB	044H
	DB	08H
	DB	03H
	DB	06H
	DB	044H
	DB	08H
	DB	03H
	DB	06H
	DB	03H
	DB	08H
	DB	03H
	DB	06H
	DB	03H
	DB	08H
	DB	03H
	DB	06H
	DB	03H
	DB	08H
	DB	03H
	DB	06H
	DB	03H
	DB	08H
	DB	03H
	DB	06H
	DB	03H
	DB	08H
	DB	044H
	DB	06H
	DB	02H
	DB	02H
	DB	04H
	DB	033H
	DB	0dH
	DB	0dH
	DB	033H
	DB	06H
	DB	02H
	DB	02H
	DB	02H
	DB	02H
	DB	02H
	DB	02H
	DB	02H
	DB	02H
	DB	02H
	DB	02H
	DB	02H
	DB	02H
	DB	02H
	DB	08H
	DB	0eH
	DB	0eH
	DB	073H
	DB	014H
	DB	014H
	DB	014H
	DB	014H
	DB	095H
	DB	095H
	DB	011H
	DB	011H
	DB	011H
	DB	011H
	DB	011H
	DB	081H
	DB	07H
	DB	07H
	DB	07H
	DB	0cfH
	DB	032H
	DB	031H
	DB	018H
	DB	027H
	DB	03aH
	DB	028H
	DB	037H
	DB	0fH
	DB	0bH
	DB	015H
	DB	02H
	DB	01cH
	DB	01eH
	DB	0bH
	DB	017H
	DB	0bH
	DB	01eH
	DB	01bH
	DB	0bH
	DB	010H
	DB	01aH
	DB	02H
	DB	010H
	DB	017H
	DB	01aH
	DB	075H
	DB	045H
	DB	04dH
	DB	04dH
	DB	04aH
	DB	010H
	DB	02H
	DB	02H
	DB	041H
	DB	045H
	DB	038H
	DB	038H
	DB	027H
	DB	02H
	DB	089H
	DB	08cH
	DB	01fH
	DB	042H
	DB	020H
	DB	02H
	DB	03bH
	DB	07H
	DB	07H
	DB	07H
	DB	0d3H
	DB	023H
	DB	021H
	DB	021H
	DB	021H
	DB	021H
	DB	095H
	DB	0a1H
	DB	0aH
	DB	0aH
	DB	0aH
	DB	0aH
	DB	024H
	DB	0eH
	DB	0eH
	DB	02cH
	DB	02H
	DB	02H
	DB	02H
	DB	02H
	DB	02H
	DB	02H
	DB	02H
	DB	02H
	DB	02H
	DB	02H
	DB	02H
	DB	02H
	DB	02H
	DB	04H
	DB	036H
	DB	0dH
	DB	0dH
	DB	08H
	DB	01aH
	DB	02H
	DB	01aH
	DB	04H
	DB	03H
	DB	03H
	DB	03H
	DB	03H
	DB	03H
	DB	03H
	DB	03H
	DB	03H
	DB	03H
	DB	03H
	DB	03H
	DB	03H
	DB	03H
	DB	03H
	DB	03H
	DB	03H
	DB	03H
	DB	03H
	DB	03H
	DB	03H
	DB	03H
	DB	03H
	DB	03H
	DB	03H
	DB	03H
	DB	03H
	DB	03H
	DB	03H
	DB	03H
	DB	03H
	DB	03H
	DB	03H
	DB	03H
	DB	03H
	DB	03H
	DB	03H
	DB	03H
	DB	03H
	DB	03H
	DB	03H
	DB	03H
	DB	03H
	DB	03H
	DB	03H
	DB	03H
	DB	03H
	DB	03H
	DB	03H
	DB	03H
	DB	03H
	DB	03H
	DB	03H
	DB	03H
	DB	03H
	DB	03H
	DB	03H
	DB	03H
	DB	03H
	DB	03H
	DB	03H
	DB	03H
	DB	03H
	DB	03H
	DB	03H
	DB	03H
	DB	03H
	DB	03H
	DB	03H
	DB	03H
	DB	03H
	DB	03H
	DB	03H
	DB	03H
	DB	03H
	DB	03H
	DB	03H
	DB	03H
	DB	03H
	DB	03H
	DB	03H
	DB	03H
	DB	03H
	DB	03H
	DB	03H
	DB	03H
	DB	03H
	DB	03H
	DB	03H
	DB	03H
	DB	03H
	DB	03H
	DB	03H
	DB	03H
	DB	03H
	DB	03H
	DB	03H
	DB	03H
	DB	03H
	DB	03H
	DB	03H
	DB	03H
	DB	03H
	DB	01aH
	DB	02H
	DB	01aH
	DB	08H
	DB	0dH
	DB	0dH
	DB	036H
	DB	04H
	DB	02H
	DB	02H
	DB	02H
	DB	02H
	DB	02H
	DB	02H
	DB	02H
	DB	02H
	DB	02H
	DB	02H
	DB	02H
	DB	02H
	DB	02H
	DB	02cH
	DB	0eH
	DB	0eH
	DB	068H
	DB	014H
	DB	014H
	DB	014H
	DB	014H
	DB	095H
	DB	095H
	DB	011H
	DB	011H
	DB	011H
	DB	011H
	DB	014H
	DB	012H
	DB	07H
	DB	07H
	DB	07H
	DB	053H
	DB	027H
	DB	04aH
	DB	028H
	DB	03aH
	DB	0cH
	DB	028H
	DB	01bH
	DB	02H
	DB	02H
	DB	017H
	DB	01bH
	DB	01bH
	DB	013H
	DB	04bH
	DB	0bH
	DB	020H
	DB	017H
	DB	017H
	DB	0bH
	DB	035H
	DB	017H
	DB	017H
	DB	02H
	DB	041H
	DB	057H
	DB	078H
	DB	02eH
	DB	01bH
	DB	02H
	DB	02H
	DB	013H
	DB	0afH
	DB	0e6H
	DB	038H
	DB	038H
	DB	040H
	DB	02dH
	DB	089H
	DB	0e6H
	DB	078H
	DB	03eH
	DB	02fH
	DB	02H
	DB	0bH
	DB	07H
	DB	07H
	DB	07H
	DB	07H
	DB	029H
	DB	021H
	DB	021H
	DB	021H
	DB	021H
	DB	014H
	DB	0a1H
	DB	0aH
	DB	0aH
	DB	0aH
	DB	0aH
	DB	059H
	DB	0eH
	DB	0eH
	DB	02cH
	DB	02H
	DB	02H
	DB	02H
	DB	02H
	DB	02H
	DB	02H
	DB	02H
	DB	02H
	DB	02H
	DB	02H
	DB	02H
	DB	02H
	DB	02H
	DB	03H
	DB	0dH
	DB	0dH
	DB	0dH
	DB	03H
	DB	02H
	DB	02H
	DB	01aH
	DB	04H
	DB	08H
	DB	026H
	DB	06H
	DB	03H
	DB	08H
	DB	026H
	DB	06H
	DB	04H
	DB	08H
	DB	026H
	DB	06H
	DB	04H
	DB	08H
	DB	026H
	DB	06H
	DB	04H
	DB	08H
	DB	05H
	DB	06H
	DB	04H
	DB	08H
	DB	05H
	DB	06H
	DB	04H
	DB	08H
	DB	05H
	DB	06H
	DB	04H
	DB	08H
	DB	05H
	DB	06H
	DB	04H
	DB	08H
	DB	05H
	DB	06H
	DB	04H
	DB	08H
	DB	08H
	DB	06H
	DB	06H
	DB	08H
	DB	08H
	DB	04H
	DB	06H
	DB	05H
	DB	08H
	DB	04H
	DB	06H
	DB	05H
	DB	08H
	DB	04H
	DB	06H
	DB	05H
	DB	08H
	DB	04H
	DB	06H
	DB	05H
	DB	08H
	DB	04H
	DB	06H
	DB	05H
	DB	08H
	DB	04H
	DB	06H
	DB	026H
	DB	08H
	DB	04H
	DB	06H
	DB	026H
	DB	08H
	DB	04H
	DB	06H
	DB	026H
	DB	08H
	DB	03H
	DB	06H
	DB	044H
	DB	08H
	DB	03H
	DB	06H
	DB	044H
	DB	08H
	DB	03H
	DB	06H
	DB	03H
	DB	08H
	DB	03H
	DB	06H
	DB	03H
	DB	08H
	DB	03H
	DB	06H
	DB	03H
	DB	08H
	DB	03H
	DB	06H
	DB	03H
	DB	08H
	DB	044H
	DB	06H
	DB	03H
	DB	08H
	DB	026H
	DB	06H
	DB	01aH
	DB	02H
	DB	02H
	DB	03H
	DB	0dH
	DB	0dH
	DB	0dH
	DB	04H
	DB	02H
	DB	02H
	DB	02H
	DB	02H
	DB	02H
	DB	02H
	DB	02H
	DB	02H
	DB	02H
	DB	02H
	DB	02H
	DB	02H
	DB	02H
	DB	02cH
	DB	0eH
	DB	0eH
	DB	0beH
	DB	014H
	DB	014H
	DB	014H
	DB	014H
	DB	095H
	DB	095H
	DB	011H
	DB	011H
	DB	011H
	DB	011H
	DB	0aeH
	DB	03cH
	DB	07H
	DB	07H
	DB	07H
	DB	0fH
	DB	01bH
	DB	018H
	DB	041H
	DB	01aH
	DB	010H
	DB	010H
	DB	02H
	DB	01bH
	DB	04aH
	DB	013H
	DB	04dH
	DB	018H
	DB	0cH
	DB	01aH
	DB	02H
	DB	017H
	DB	0bH
	DB	0bH
	DB	0bH
	DB	017H
	DB	017H
	DB	02H
	DB	01dH
	DB	0ceH
	DB	03dH
	DB	0cH
	DB	02H
	DB	02H
	DB	034H
	DB	02eH
	DB	0ceH
	DB	038H
	DB	04eH
	DB	01dH
	DB	02dH
	DB	02aH
	DB	02eH
	DB	056H
	DB	0a3H
	DB	0eaH
	DB	01cH
	DB	02H
	DB	0cfH
	DB	07H
	DB	07H
	DB	07H
	DB	02bH
	DB	0aeH
	DB	021H
	DB	021H
	DB	021H
	DB	014H
	DB	0a1H
	DB	0aH
	DB	0aH
	DB	0aH
	DB	0aH
	DB	064H
	DB	046H
	DB	0eH
	DB	036H
	DB	02H
	DB	02H
	DB	02H
	DB	02H
	DB	02H
	DB	02H
	DB	02H
	DB	02H
	DB	02H
	DB	02H
	DB	02H
	DB	02H
	DB	02H
	DB	044H
	DB	0dH
	DB	0dH
	DB	0dH
	DB	03H
	DB	02H
	DB	02H
	DB	06H
	DB	03H
	DB	03H
	DB	03H
	DB	03H
	DB	03H
	DB	03H
	DB	03H
	DB	03H
	DB	03H
	DB	03H
	DB	03H
	DB	03H
	DB	03H
	DB	03H
	DB	03H
	DB	03H
	DB	03H
	DB	03H
	DB	03H
	DB	03H
	DB	03H
	DB	03H
	DB	03H
	DB	03H
	DB	03H
	DB	03H
	DB	03H
	DB	03H
	DB	03H
	DB	03H
	DB	03H
	DB	03H
	DB	03H
	DB	03H
	DB	03H
	DB	03H
	DB	03H
	DB	03H
	DB	03H
	DB	03H
	DB	03H
	DB	03H
	DB	03H
	DB	03H
	DB	03H
	DB	03H
	DB	03H
	DB	03H
	DB	03H
	DB	03H
	DB	03H
	DB	03H
	DB	03H
	DB	03H
	DB	03H
	DB	03H
	DB	03H
	DB	03H
	DB	03H
	DB	03H
	DB	03H
	DB	03H
	DB	03H
	DB	03H
	DB	03H
	DB	03H
	DB	03H
	DB	03H
	DB	03H
	DB	03H
	DB	03H
	DB	03H
	DB	03H
	DB	03H
	DB	03H
	DB	03H
	DB	03H
	DB	03H
	DB	03H
	DB	03H
	DB	03H
	DB	03H
	DB	03H
	DB	03H
	DB	03H
	DB	03H
	DB	03H
	DB	03H
	DB	03H
	DB	03H
	DB	03H
	DB	03H
	DB	03H
	DB	03H
	DB	03H
	DB	03H
	DB	03H
	DB	03H
	DB	03H
	DB	03H
	DB	03H
	DB	03H
	DB	03H
	DB	03H
	DB	03H
	DB	03H
	DB	03H
	DB	04H
	DB	02H
	DB	02H
	DB	03H
	DB	0dH
	DB	0dH
	DB	0dH
	DB	03H
	DB	02H
	DB	02H
	DB	02H
	DB	02H
	DB	02H
	DB	02H
	DB	02H
	DB	02H
	DB	02H
	DB	02H
	DB	02H
	DB	02H
	DB	02H
	DB	033H
	DB	0eH
	DB	071H
	DB	086H
	DB	014H
	DB	014H
	DB	014H
	DB	014H
	DB	095H
	DB	095H
	DB	011H
	DB	011H
	DB	011H
	DB	011H
	DB	0abH
	DB	07H
	DB	07H
	DB	07H
	DB	07H
	DB	013H
	DB	018H
	DB	027H
	DB	04bH
	DB	041H
	DB	034H
	DB	010H
	DB	04aH
	DB	028H
	DB	013H
	DB	04aH
	DB	02fH
	DB	034H
	DB	013H
	DB	010H
	DB	010H
	DB	010H
	DB	0bH
	DB	0bH
	DB	01bH
	DB	0bH
	DB	0cH
	DB	0fH
	DB	017H
	DB	02H
	DB	02H
	DB	0bH
	DB	0fH
	DB	022H
	DB	043H
	DB	0ceH
	DB	038H
	DB	043H
	DB	038H
	DB	022H
	DB	0fH
	DB	01dH
	DB	02dH
	DB	02fH
	DB	01cH
	DB	020H
	DB	053H
	DB	07H
	DB	07H
	DB	07H
	DB	019H
	DB	0e0H
	DB	0aeH
	DB	0aeH
	DB	0aeH
	DB	09fH
	DB	011H
	DB	0aH
	DB	0aH
	DB	0aH
	DB	0aH
	DB	05fH
	DB	049H
	DB	0eH
	DB	0b6H
	DB	01aH
	DB	02H
	DB	02H
	DB	02H
	DB	02H
	DB	02H
	DB	02H
	DB	02H
	DB	02H
	DB	02H
	DB	02H
	DB	02H
	DB	02H
	DB	026H
	DB	0dH
	DB	0dH
	DB	0dH
	DB	04H
	DB	02H
	DB	02H
	DB	06H
	DB	03H
	DB	08H
	DB	044H
	DB	06H
	DB	03H
	DB	08H
	DB	026H
	DB	06H
	DB	03H
	DB	08H
	DB	026H
	DB	06H
	DB	04H
	DB	08H
	DB	026H
	DB	06H
	DB	04H
	DB	08H
	DB	05H
	DB	06H
	DB	04H
	DB	08H
	DB	05H
	DB	06H
	DB	04H
	DB	08H
	DB	05H
	DB	06H
	DB	04H
	DB	08H
	DB	05H
	DB	06H
	DB	04H
	DB	08H
	DB	05H
	DB	06H
	DB	04H
	DB	08H
	DB	08H
	DB	06H
	DB	04H
	DB	08H
	DB	08H
	DB	04H
	DB	06H
	DB	08H
	DB	08H
	DB	04H
	DB	06H
	DB	05H
	DB	08H
	DB	04H
	DB	06H
	DB	05H
	DB	08H
	DB	04H
	DB	06H
	DB	05H
	DB	08H
	DB	04H
	DB	06H
	DB	05H
	DB	08H
	DB	04H
	DB	06H
	DB	05H
	DB	08H
	DB	04H
	DB	06H
	DB	026H
	DB	08H
	DB	04H
	DB	06H
	DB	026H
	DB	08H
	DB	03H
	DB	06H
	DB	026H
	DB	08H
	DB	03H
	DB	06H
	DB	044H
	DB	08H
	DB	03H
	DB	06H
	DB	044H
	DB	08H
	DB	03H
	DB	06H
	DB	03H
	DB	08H
	DB	03H
	DB	06H
	DB	03H
	DB	08H
	DB	03H
	DB	06H
	DB	03H
	DB	08H
	DB	044H
	DB	06H
	DB	03H
	DB	08H
	DB	044H
	DB	06H
	DB	03H
	DB	08H
	DB	026H
	DB	06H
	DB	04H
	DB	02H
	DB	02H
	DB	04H
	DB	036H
	DB	0dH
	DB	0dH
	DB	026H
	DB	02H
	DB	02H
	DB	02H
	DB	02H
	DB	02H
	DB	02H
	DB	02H
	DB	02H
	DB	02H
	DB	02H
	DB	02H
	DB	02H
	DB	01aH
	DB	0b6H
	DB	0eH
	DB	0d7H
	DB	0c0H
	DB	014H
	DB	014H
	DB	014H
	DB	014H
	DB	095H
	DB	095H
	DB	011H
	DB	011H
	DB	011H
	DB	095H
	DB	082H
	DB	07H
	DB	07H
	DB	07H
	DB	01fH
	DB	04aH
	DB	027H
	DB	018H
	DB	02aH
	DB	03aH
	DB	0cH
	DB	01eH
	DB	028H
	DB	0cH
	DB	0cH
	DB	02fH
	DB	028H
	DB	0cH
	DB	01bH
	DB	013H
	DB	0bH
	DB	010H
	DB	0bH
	DB	0bH
	DB	017H
	DB	01bH
	DB	01bH
	DB	0cH
	DB	02dH
	DB	018H
	DB	045H
	DB	038H
	DB	0ceH
	DB	038H
	DB	043H
	DB	066H
	DB	01fH
	DB	056H
	DB	0fH
	DB	047H
	DB	066H
	DB	066H
	DB	032H
	DB	01cH
	DB	076H
	DB	07H
	DB	07H
	DB	07H
	DB	0d3H
	DB	023H
	DB	021H
	DB	0aeH
	DB	0aeH
	DB	021H
	DB	095H
	DB	0aH
	DB	0aH
	DB	0aH
	DB	0aH
	DB	088H
	DB	090H
	DB	0eH
	DB	0eH
	DB	06H
	DB	02H
	DB	02H
	DB	02H
	DB	02H
	DB	02H
	DB	02H
	DB	02H
	DB	02H
	DB	02H
	DB	02H
	DB	02H
	DB	02H
	DB	05H
	DB	0dH
	DB	0dH
	DB	036H
	DB	04H
	DB	02H
	DB	02H
	DB	04H
	DB	03H
	DB	03H
	DB	03H
	DB	03H
	DB	03H
	DB	03H
	DB	03H
	DB	03H
	DB	03H
	DB	03H
	DB	03H
	DB	03H
	DB	03H
	DB	03H
	DB	03H
	DB	03H
	DB	03H
	DB	03H
	DB	03H
	DB	03H
	DB	03H
	DB	03H
	DB	03H
	DB	03H
	DB	03H
	DB	03H
	DB	03H
	DB	03H
	DB	03H
	DB	03H
	DB	03H
	DB	03H
	DB	03H
	DB	03H
	DB	03H
	DB	03H
	DB	03H
	DB	03H
	DB	03H
	DB	03H
	DB	03H
	DB	03H
	DB	03H
	DB	03H
	DB	03H
	DB	03H
	DB	03H
	DB	03H
	DB	03H
	DB	03H
	DB	03H
	DB	03H
	DB	03H
	DB	03H
	DB	03H
	DB	03H
	DB	03H
	DB	03H
	DB	03H
	DB	03H
	DB	03H
	DB	03H
	DB	03H
	DB	03H
	DB	03H
	DB	03H
	DB	03H
	DB	03H
	DB	03H
	DB	03H
	DB	03H
	DB	03H
	DB	03H
	DB	03H
	DB	03H
	DB	03H
	DB	03H
	DB	03H
	DB	03H
	DB	03H
	DB	03H
	DB	03H
	DB	03H
	DB	03H
	DB	03H
	DB	03H
	DB	03H
	DB	03H
	DB	03H
	DB	03H
	DB	03H
	DB	03H
	DB	03H
	DB	03H
	DB	03H
	DB	03H
	DB	03H
	DB	03H
	DB	03H
	DB	03H
	DB	03H
	DB	03H
	DB	03H
	DB	03H
	DB	03H
	DB	03H
	DB	03H
	DB	03H
	DB	03H
	DB	03H
	DB	03H
	DB	03H
	DB	02H
	DB	02H
	DB	04H
	DB	033H
	DB	0dH
	DB	0dH
	DB	05H
	DB	02H
	DB	02H
	DB	02H
	DB	02H
	DB	02H
	DB	02H
	DB	02H
	DB	02H
	DB	02H
	DB	02H
	DB	02H
	DB	02H
	DB	06H
	DB	0eH
	DB	0eH
	DB	084H
	DB	087H
	DB	014H
	DB	014H
	DB	014H
	DB	014H
	DB	095H
	DB	011H
	DB	011H
	DB	011H
	DB	011H
	DB	014H
	DB	0d3H
	DB	07H
	DB	07H
	DB	07H
	DB	022H
	DB	0cH
	DB	018H
	DB	02aH
	DB	0cH
	DB	0bH
	DB	01bH
	DB	028H
	DB	03aH
	DB	0cH
	DB	0cH
	DB	028H
	DB	01eH
	DB	013H
	DB	0cH
	DB	0bH
	DB	010H
	DB	010H
	DB	017H
	DB	017H
	DB	0bH
	DB	042H
	DB	0a4H
	DB	0a4H
	DB	03dH
	DB	02eH
	DB	01fH
	DB	058H
	DB	01fH
	DB	05eH
	DB	02aH
	DB	03dH
	DB	037H
	DB	027H
	DB	045H
	DB	057H
	DB	01fH
	DB	02fH
	DB	015H
	DB	07H
	DB	07H
	DB	07H
	DB	07H
	DB	0bbH
	DB	021H
	DB	021H
	DB	021H
	DB	021H
	DB	09fH
	DB	0a1H
	DB	0aH
	DB	0aH
	DB	0aH
	DB	0aH
	DB	074H
	DB	0eH
	DB	0eH
	DB	04H
	DB	02H
	DB	02H
	DB	02H
	DB	02H
	DB	02H
	DB	02H
	DB	02H
	DB	02H
	DB	02H
	DB	02H
	DB	02H
	DB	02H
	DB	05H
	DB	0dH
	DB	0dH
	DB	033H
	DB	04H
	DB	02H
	DB	01aH
	DB	06H
	DB	03H
	DB	08H
	DB	044H
	DB	04H
	DB	03H
	DB	08H
	DB	026H
	DB	04H
	DB	03H
	DB	08H
	DB	026H
	DB	04H
	DB	04H
	DB	08H
	DB	026H
	DB	04H
	DB	04H
	DB	08H
	DB	05H
	DB	04H
	DB	04H
	DB	08H
	DB	05H
	DB	04H
	DB	04H
	DB	08H
	DB	05H
	DB	04H
	DB	04H
	DB	08H
	DB	05H
	DB	04H
	DB	04H
	DB	08H
	DB	05H
	DB	04H
	DB	04H
	DB	08H
	DB	08H
	DB	04H
	DB	04H
	DB	08H
	DB	08H
	DB	04H
	DB	04H
	DB	08H
	DB	08H
	DB	04H
	DB	04H
	DB	05H
	DB	08H
	DB	04H
	DB	04H
	DB	05H
	DB	08H
	DB	04H
	DB	04H
	DB	05H
	DB	08H
	DB	04H
	DB	04H
	DB	05H
	DB	08H
	DB	04H
	DB	04H
	DB	05H
	DB	08H
	DB	04H
	DB	04H
	DB	05H
	DB	08H
	DB	04H
	DB	04H
	DB	026H
	DB	08H
	DB	03H
	DB	04H
	DB	026H
	DB	08H
	DB	03H
	DB	04H
	DB	026H
	DB	08H
	DB	03H
	DB	04H
	DB	044H
	DB	08H
	DB	03H
	DB	04H
	DB	03H
	DB	08H
	DB	03H
	DB	04H
	DB	03H
	DB	08H
	DB	03H
	DB	04H
	DB	03H
	DB	08H
	DB	044H
	DB	04H
	DB	03H
	DB	08H
	DB	044H
	DB	04H
	DB	03H
	DB	08H
	DB	026H
	DB	04H
	DB	03H
	DB	08H
	DB	026H
	DB	04H
	DB	04H
	DB	01aH
	DB	02H
	DB	06H
	DB	033H
	DB	0dH
	DB	0dH
	DB	08H
	DB	02H
	DB	02H
	DB	02H
	DB	02H
	DB	02H
	DB	02H
	DB	02H
	DB	02H
	DB	02H
	DB	02H
	DB	02H
	DB	02H
	DB	04H
	DB	0eH
	DB	0eH
	DB	067H
	DB	014H
	DB	014H
	DB	014H
	DB	014H
	DB	014H
	DB	095H
	DB	011H
	DB	011H
	DB	011H
	DB	011H
	DB	0ffH
	DB	07H
	DB	07H
	DB	07H
	DB	07H
	DB	0cH
	DB	0cH
	DB	013H
	DB	017H
	DB	02H
	DB	017H
	DB	01eH
	DB	037H
	DB	032H
	DB	0bH
	DB	020H
	DB	01bH
	DB	013H
	DB	013H
	DB	010H
	DB	010H
	DB	04bH
	DB	010H
	DB	017H
	DB	02eH
	DB	077H
	DB	0c8H
	DB	065H
	DB	037H
	DB	042H
	DB	040H
	DB	05eH
	DB	05eH
	DB	032H
	DB	010H
	DB	01bH
	DB	03aH
	DB	03fH
	DB	04eH
	DB	04eH
	DB	0fH
	DB	015H
	DB	053H
	DB	07H
	DB	07H
	DB	07H
	DB	082H
	DB	0e0H
	DB	0aeH
	DB	0aeH
	DB	021H
	DB	014H
	DB	0a1H
	DB	0aH
	DB	0aH
	DB	0aH
	DB	0aH
	DB	063H
	DB	0eH
	DB	0eH
	DB	05H
	DB	02H
	DB	02H
	DB	02H
	DB	02H
	DB	02H
	DB	02H
	DB	02H
	DB	02H
	DB	02H
	DB	02H
	DB	02H
	DB	02H
	DB	05H
	DB	0dH
	DB	0dH
	DB	033H
	DB	06H
	DB	02H
	DB	01aH
	DB	03H
	DB	03H
	DB	03H
	DB	03H
	DB	03H
	DB	03H
	DB	03H
	DB	03H
	DB	03H
	DB	03H
	DB	03H
	DB	03H
	DB	03H
	DB	03H
	DB	03H
	DB	03H
	DB	03H
	DB	03H
	DB	03H
	DB	03H
	DB	03H
	DB	03H
	DB	03H
	DB	03H
	DB	03H
	DB	03H
	DB	03H
	DB	03H
	DB	03H
	DB	03H
	DB	03H
	DB	03H
	DB	03H
	DB	03H
	DB	03H
	DB	03H
	DB	03H
	DB	03H
	DB	03H
	DB	03H
	DB	03H
	DB	03H
	DB	03H
	DB	03H
	DB	03H
	DB	03H
	DB	03H
	DB	03H
	DB	03H
	DB	03H
	DB	03H
	DB	03H
	DB	03H
	DB	03H
	DB	03H
	DB	03H
	DB	03H
	DB	03H
	DB	03H
	DB	03H
	DB	03H
	DB	03H
	DB	03H
	DB	03H
	DB	03H
	DB	03H
	DB	03H
	DB	03H
	DB	03H
	DB	03H
	DB	03H
	DB	03H
	DB	03H
	DB	03H
	DB	03H
	DB	03H
	DB	03H
	DB	03H
	DB	03H
	DB	03H
	DB	03H
	DB	03H
	DB	03H
	DB	03H
	DB	03H
	DB	03H
	DB	03H
	DB	03H
	DB	03H
	DB	03H
	DB	03H
	DB	03H
	DB	03H
	DB	03H
	DB	03H
	DB	03H
	DB	03H
	DB	03H
	DB	03H
	DB	03H
	DB	03H
	DB	03H
	DB	03H
	DB	03H
	DB	03H
	DB	03H
	DB	03H
	DB	03H
	DB	03H
	DB	03H
	DB	03H
	DB	03H
	DB	03H
	DB	03H
	DB	03H
	DB	03H
	DB	03H
	DB	01aH
	DB	02H
	DB	06H
	DB	02cH
	DB	0dH
	DB	0dH
	DB	05H
	DB	02H
	DB	02H
	DB	02H
	DB	02H
	DB	02H
	DB	02H
	DB	02H
	DB	02H
	DB	02H
	DB	02H
	DB	02H
	DB	02H
	DB	026H
	DB	0eH
	DB	0eH
	DB	068H
	DB	014H
	DB	09fH
	DB	09fH
	DB	014H
	DB	014H
	DB	095H
	DB	095H
	DB	011H
	DB	095H
	DB	011H
	DB	02bH
	DB	07H
	DB	07H
	DB	07H
	DB	01fH
	DB	0bH
	DB	0bH
	DB	02H
	DB	02H
	DB	02H
	DB	01bH
	DB	076H
	DB	02fH
	DB	02H
	DB	02H
	DB	017H
	DB	010H
	DB	04bH
	DB	04bH
	DB	04bH
	DB	01bH
	DB	01aH
	DB	02H
	DB	058H
	DB	022H
	DB	0bH
	DB	0bH
	DB	018H
	DB	02aH
	DB	0fH
	DB	022H
	DB	022H
	DB	0bH
	DB	010H
	DB	0cH
	DB	03aH
	DB	075H
	DB	018H
	DB	04dH
	DB	027H
	DB	031H
	DB	07H
	DB	07H
	DB	07H
	DB	0d3H
	DB	0dcH
	DB	0e0H
	DB	0aeH
	DB	0aeH
	DB	021H
	DB	011H
	DB	0aH
	DB	0aH
	DB	0aH
	DB	0aH
	DB	064H
	DB	046H
	DB	0eH
	DB	02cH
	DB	02H
	DB	02H
	DB	02H
	DB	02H
	DB	02H
	DB	02H
	DB	02H
	DB	02H
	DB	02H
	DB	02H
	DB	02H
	DB	02H
	DB	044H
	DB	0dH
	DB	0dH
	DB	033H
	DB	06H
	DB	02H
	DB	01aH
	DB	06H
	DB	03H
	DB	08H
	DB	044H
	DB	04H
	DB	03H
	DB	08H
	DB	026H
	DB	04H
	DB	03H
	DB	08H
	DB	026H
	DB	04H
	DB	03H
	DB	08H
	DB	026H
	DB	04H
	DB	04H
	DB	08H
	DB	05H
	DB	04H
	DB	04H
	DB	08H
	DB	05H
	DB	04H
	DB	04H
	DB	08H
	DB	05H
	DB	04H
	DB	04H
	DB	08H
	DB	05H
	DB	04H
	DB	04H
	DB	08H
	DB	05H
	DB	04H
	DB	04H
	DB	08H
	DB	05H
	DB	04H
	DB	04H
	DB	08H
	DB	08H
	DB	04H
	DB	04H
	DB	08H
	DB	08H
	DB	04H
	DB	04H
	DB	08H
	DB	08H
	DB	04H
	DB	04H
	DB	05H
	DB	08H
	DB	04H
	DB	04H
	DB	05H
	DB	08H
	DB	04H
	DB	04H
	DB	05H
	DB	08H
	DB	04H
	DB	04H
	DB	05H
	DB	08H
	DB	04H
	DB	04H
	DB	05H
	DB	08H
	DB	04H
	DB	04H
	DB	026H
	DB	08H
	DB	03H
	DB	04H
	DB	026H
	DB	08H
	DB	03H
	DB	04H
	DB	026H
	DB	08H
	DB	03H
	DB	04H
	DB	044H
	DB	08H
	DB	03H
	DB	04H
	DB	044H
	DB	08H
	DB	03H
	DB	04H
	DB	03H
	DB	08H
	DB	03H
	DB	04H
	DB	03H
	DB	08H
	DB	03H
	DB	04H
	DB	03H
	DB	08H
	DB	044H
	DB	04H
	DB	03H
	DB	08H
	DB	026H
	DB	04H
	DB	03H
	DB	08H
	DB	026H
	DB	04H
	DB	03H
	DB	08H
	DB	026H
	DB	04H
	DB	04H
	DB	06H
	DB	02H
	DB	01aH
	DB	033H
	DB	0dH
	DB	0dH
	DB	03H
	DB	02H
	DB	02H
	DB	02H
	DB	02H
	DB	02H
	DB	02H
	DB	02H
	DB	02H
	DB	02H
	DB	02H
	DB	02H
	DB	02H
	DB	02cH
	DB	0eH
	DB	071H
	DB	086H
	DB	09fH
	DB	09fH
	DB	09fH
	DB	014H
	DB	014H
	DB	095H
	DB	095H
	DB	095H
	DB	095H
	DB	014H
	DB	012H
	DB	07H
	DB	07H
	DB	07H
	DB	0fH
	DB	017H
	DB	01aH
	DB	01aH
	DB	02H
	DB	017H
	DB	01eH
	DB	02H
	DB	02H
	DB	02H
	DB	017H
	DB	017H
	DB	017H
	DB	010H
	DB	0bH
	DB	02H
	DB	02H
	DB	017H
	DB	058H
	DB	0afH
	DB	06H
	DB	01aH
	DB	0c1H
	DB	070H
	DB	03aH
	DB	022H
	DB	037H
	DB	027H
	DB	02dH
	DB	01dH
	DB	030H
	DB	0a4H
	DB	076H
	DB	013H
	DB	01bH
	DB	07H
	DB	07H
	DB	07H
	DB	07H
	DB	0bbH
	DB	0aeH
	DB	0aeH
	DB	0e0H
	DB	0aeH
	DB	014H
	DB	0aH
	DB	0aH
	DB	0aH
	DB	0aH
	DB	088H
	DB	05bH
	DB	0eH
	DB	0b6H
	DB	01aH
	DB	02H
	DB	02H
	DB	02H
	DB	02H
	DB	02H
	DB	02H
	DB	02H
	DB	02H
	DB	02H
	DB	02H
	DB	02H
	DB	03H
	DB	0dH
	DB	0dH
	DB	033H
	DB	06H
	DB	02H
	DB	01aH
	DB	03H
	DB	03H
	DB	03H
	DB	044H
	DB	03H
	DB	03H
	DB	03H
	DB	044H
	DB	03H
	DB	03H
	DB	03H
	DB	044H
	DB	03H
	DB	03H
	DB	03H
	DB	044H
	DB	03H
	DB	03H
	DB	03H
	DB	044H
	DB	03H
	DB	03H
	DB	03H
	DB	044H
	DB	03H
	DB	03H
	DB	03H
	DB	044H
	DB	03H
	DB	03H
	DB	03H
	DB	044H
	DB	03H
	DB	03H
	DB	03H
	DB	044H
	DB	03H
	DB	03H
	DB	03H
	DB	044H
	DB	03H
	DB	03H
	DB	03H
	DB	044H
	DB	044H
	DB	03H
	DB	03H
	DB	044H
	DB	044H
	DB	03H
	DB	03H
	DB	044H
	DB	044H
	DB	03H
	DB	03H
	DB	03H
	DB	044H
	DB	03H
	DB	03H
	DB	03H
	DB	044H
	DB	03H
	DB	03H
	DB	03H
	DB	044H
	DB	03H
	DB	03H
	DB	03H
	DB	044H
	DB	03H
	DB	03H
	DB	03H
	DB	044H
	DB	03H
	DB	03H
	DB	03H
	DB	044H
	DB	03H
	DB	03H
	DB	03H
	DB	044H
	DB	03H
	DB	03H
	DB	03H
	DB	044H
	DB	03H
	DB	03H
	DB	03H
	DB	044H
	DB	03H
	DB	03H
	DB	03H
	DB	044H
	DB	03H
	DB	03H
	DB	03H
	DB	044H
	DB	03H
	DB	03H
	DB	03H
	DB	044H
	DB	03H
	DB	03H
	DB	03H
	DB	044H
	DB	03H
	DB	03H
	DB	03H
	DB	044H
	DB	03H
	DB	03H
	DB	03H
	DB	044H
	DB	03H
	DB	03H
	DB	03H
	DB	044H
	DB	03H
	DB	03H
	DB	03H
	DB	03H
	DB	01aH
	DB	02H
	DB	06H
	DB	033H
	DB	0dH
	DB	0dH
	DB	04H
	DB	02H
	DB	02H
	DB	02H
	DB	02H
	DB	02H
	DB	02H
	DB	02H
	DB	02H
	DB	02H
	DB	02H
	DB	02H
	DB	02H
	DB	0b6H
	DB	0eH
	DB	049H
	DB	021H
	DB	09fH
	DB	09fH
	DB	09fH
	DB	014H
	DB	095H
	DB	095H
	DB	095H
	DB	095H
	DB	095H
	DB	023H
	DB	07H
	DB	07H
	DB	07H
	DB	07H
	DB	017H
	DB	010H
	DB	010H
	DB	02H
	DB	02H
	DB	01cH
	DB	0bH
	DB	015H
	DB	01cH
	DB	020H
	DB	02H
	DB	02H
	DB	01bH
	DB	013H
	DB	015H
	DB	017H
	DB	017H
	DB	039H
	DB	045H
	DB	089H
	DB	041H
	DB	070H
	DB	047H
	DB	03bH
	DB	0e8H
	DB	030H
	DB	030H
	DB	037H
	DB	032H
	DB	03dH
	DB	0c7H
	DB	01cH
	DB	015H
	DB	030H
	DB	07H
	DB	07H
	DB	07H
	DB	081H
	DB	023H
	DB	0e0H
	DB	0e0H
	DB	0aeH
	DB	09fH
	DB	0a1H
	DB	0aH
	DB	0aH
	DB	0aH
	DB	0aH
	DB	092H
	DB	0eH
	DB	0eH
	DB	06H
	DB	02H
	DB	02H
	DB	02H
	DB	02H
	DB	02H
	DB	02H
	DB	02H
	DB	02H
	DB	02H
	DB	02H
	DB	02H
	DB	04H
	DB	0dH
	DB	0dH
	DB	033H
	DB	06H
	DB	02H
	DB	01aH
	DB	04H
	DB	03H
	DB	08H
	DB	044H
	DB	04H
	DB	03H
	DB	08H
	DB	044H
	DB	04H
	DB	03H
	DB	08H
	DB	026H
	DB	04H
	DB	03H
	DB	08H
	DB	026H
	DB	04H
	DB	03H
	DB	08H
	DB	026H
	DB	04H
	DB	04H
	DB	08H
	DB	05H
	DB	04H
	DB	04H
	DB	08H
	DB	05H
	DB	04H
	DB	04H
	DB	08H
	DB	05H
	DB	04H
	DB	04H
	DB	08H
	DB	05H
	DB	04H
	DB	04H
	DB	08H
	DB	05H
	DB	04H
	DB	04H
	DB	08H
	DB	08H
	DB	04H
	DB	04H
	DB	08H
	DB	08H
	DB	04H
	DB	04H
	DB	08H
	DB	08H
	DB	04H
	DB	04H
	DB	08H
	DB	08H
	DB	04H
	DB	04H
	DB	05H
	DB	08H
	DB	04H
	DB	04H
	DB	05H
	DB	08H
	DB	04H
	DB	04H
	DB	05H
	DB	08H
	DB	04H
	DB	04H
	DB	05H
	DB	08H
	DB	04H
	DB	04H
	DB	05H
	DB	08H
	DB	04H
	DB	04H
	DB	026H
	DB	08H
	DB	03H
	DB	04H
	DB	026H
	DB	08H
	DB	03H
	DB	04H
	DB	026H
	DB	08H
	DB	03H
	DB	04H
	DB	044H
	DB	08H
	DB	03H
	DB	04H
	DB	044H
	DB	08H
	DB	03H
	DB	04H
	DB	03H
	DB	08H
	DB	03H
	DB	04H
	DB	03H
	DB	08H
	DB	044H
	DB	04H
	DB	03H
	DB	08H
	DB	044H
	DB	04H
	DB	03H
	DB	08H
	DB	026H
	DB	04H
	DB	03H
	DB	08H
	DB	026H
	DB	04H
	DB	03H
	DB	08H
	DB	026H
	DB	04H
	DB	04H
	DB	06H
	DB	02H
	DB	06H
	DB	033H
	DB	0dH
	DB	0dH
	DB	04H
	DB	02H
	DB	02H
	DB	02H
	DB	02H
	DB	02H
	DB	02H
	DB	02H
	DB	02H
	DB	02H
	DB	02H
	DB	02H
	DB	06H
	DB	0eH
	DB	0eH
	DB	091H
	DB	09fH
	DB	09fH
	DB	09fH
	DB	09fH
	DB	014H
	DB	095H
	DB	095H
	DB	095H
	DB	095H
	DB	095H
	DB	0baH
	DB	07H
	DB	07H
	DB	07H
	DB	066H
	DB	0cH
	DB	010H
	DB	02H
	DB	017H
	DB	01eH
	DB	01eH
	DB	02fH
	DB	01cH
	DB	02H
	DB	017H
	DB	0e2H
	DB	04aH
	DB	0bH
	DB	02H
	DB	017H
	DB	010H
	DB	02eH
	DB	04eH
	DB	04bH
	DB	01dH
	DB	03cH
	DB	0d3H
	DB	0d3H
	DB	07H
	DB	01fH
	DB	03bH
	DB	02fH
	DB	02fH
	DB	01eH
	DB	017H
	DB	02H
	DB	015H
	DB	07H
	DB	07H
	DB	07H
	DB	03cH
	DB	0dcH
	DB	0e0H
	DB	0e0H
	DB	0e0H
	DB	021H
	DB	011H
	DB	0aH
	DB	0aH
	DB	0aH
	DB	0aH
	DB	0bfH
	DB	0a6H
	DB	0eH
	DB	026H
	DB	02H
	DB	02H
	DB	02H
	DB	02H
	DB	02H
	DB	02H
	DB	02H
	DB	02H
	DB	02H
	DB	02H
	DB	02H
	DB	06H
	DB	036H
	DB	0dH
	DB	036H
	DB	04H
	DB	02H
	DB	01aH
	DB	03H
	DB	03H
	DB	03H
	DB	044H
	DB	03H
	DB	03H
	DB	03H
	DB	044H
	DB	03H
	DB	03H
	DB	03H
	DB	044H
	DB	03H
	DB	03H
	DB	03H
	DB	044H
	DB	03H
	DB	03H
	DB	03H
	DB	044H
	DB	03H
	DB	03H
	DB	03H
	DB	044H
	DB	03H
	DB	03H
	DB	03H
	DB	044H
	DB	03H
	DB	03H
	DB	03H
	DB	044H
	DB	03H
	DB	03H
	DB	03H
	DB	044H
	DB	03H
	DB	03H
	DB	03H
	DB	044H
	DB	044H
	DB	03H
	DB	03H
	DB	044H
	DB	044H
	DB	03H
	DB	03H
	DB	044H
	DB	044H
	DB	03H
	DB	03H
	DB	044H
	DB	044H
	DB	03H
	DB	03H
	DB	044H
	DB	044H
	DB	03H
	DB	03H
	DB	03H
	DB	044H
	DB	03H
	DB	03H
	DB	03H
	DB	044H
	DB	03H
	DB	03H
	DB	03H
	DB	044H
	DB	03H
	DB	03H
	DB	03H
	DB	044H
	DB	03H
	DB	03H
	DB	03H
	DB	044H
	DB	03H
	DB	03H
	DB	03H
	DB	044H
	DB	03H
	DB	03H
	DB	03H
	DB	044H
	DB	03H
	DB	03H
	DB	03H
	DB	044H
	DB	03H
	DB	03H
	DB	03H
	DB	044H
	DB	03H
	DB	03H
	DB	03H
	DB	044H
	DB	03H
	DB	03H
	DB	03H
	DB	044H
	DB	03H
	DB	03H
	DB	03H
	DB	044H
	DB	03H
	DB	03H
	DB	03H
	DB	044H
	DB	03H
	DB	03H
	DB	03H
	DB	044H
	DB	03H
	DB	03H
	DB	03H
	DB	044H
	DB	03H
	DB	03H
	DB	03H
	DB	044H
	DB	03H
	DB	03H
	DB	03H
	DB	03H
	DB	01aH
	DB	02H
	DB	06H
	DB	036H
	DB	0dH
	DB	036H
	DB	06H
	DB	02H
	DB	02H
	DB	02H
	DB	02H
	DB	02H
	DB	02H
	DB	02H
	DB	02H
	DB	02H
	DB	02H
	DB	02H
	DB	044H
	DB	0eH
	DB	071H
	DB	068H
	DB	09fH
	DB	09fH
	DB	09fH
	DB	09fH
	DB	014H
	DB	095H
	DB	095H
	DB	095H
	DB	095H
	DB	09fH
	DB	0d3H
	DB	07H
	DB	07H
	DB	07H
	DB	028H
	DB	01bH
	DB	010H
	DB	0bH
	DB	020H
	DB	01bH
	DB	028H
	DB	034H
	DB	017H
	DB	010H
	DB	01bH
	DB	017H
	DB	010H
	DB	0bH
	DB	01bH
	DB	0bH
	DB	02eH
	DB	041H
	DB	017H
	DB	0cH
	DB	05dH
	DB	025H
	DB	0f8H
	DB	07fH
	DB	042H
	DB	022H
	DB	05eH
	DB	028H
	DB	02H
	DB	02H
	DB	02H
	DB	01fH
	DB	07H
	DB	07H
	DB	07H
	DB	02bH
	DB	023H
	DB	0aeH
	DB	0e0H
	DB	0aeH
	DB	014H
	DB	088H
	DB	0aH
	DB	0aH
	DB	0aH
	DB	05fH
	DB	049H
	DB	0eH
	DB	033H
	DB	02H
	DB	02H
	DB	02H
	DB	02H
	DB	02H
	DB	02H
	DB	02H
	DB	02H
	DB	02H
	DB	02H
	DB	02H
	DB	01aH
	DB	033H
	DB	0dH
	DB	0dH
	DB	04H
	DB	02H
	DB	01aH
	DB	06H
	DB	03H
	DB	08H
	DB	044H
	DB	04H
	DB	03H
	DB	08H
	DB	044H
	DB	04H
	DB	03H
	DB	08H
	DB	026H
	DB	04H
	DB	03H
	DB	08H
	DB	026H
	DB	04H
	DB	03H
	DB	08H
	DB	026H
	DB	04H
	DB	03H
	DB	08H
	DB	05H
	DB	04H
	DB	04H
	DB	08H
	DB	05H
	DB	04H
	DB	04H
	DB	08H
	DB	05H
	DB	04H
	DB	04H
	DB	08H
	DB	05H
	DB	04H
	DB	04H
	DB	08H
	DB	05H
	DB	04H
	DB	04H
	DB	08H
	DB	08H
	DB	04H
	DB	04H
	DB	08H
	DB	08H
	DB	04H
	DB	04H
	DB	08H
	DB	08H
	DB	04H
	DB	04H
	DB	08H
	DB	08H
	DB	04H
	DB	04H
	DB	05H
	DB	08H
	DB	04H
	DB	04H
	DB	05H
	DB	08H
	DB	04H
	DB	04H
	DB	05H
	DB	08H
	DB	04H
	DB	04H
	DB	05H
	DB	08H
	DB	04H
	DB	04H
	DB	05H
	DB	08H
	DB	04H
	DB	04H
	DB	05H
	DB	08H
	DB	03H
	DB	04H
	DB	026H
	DB	08H
	DB	03H
	DB	04H
	DB	026H
	DB	08H
	DB	03H
	DB	04H
	DB	026H
	DB	08H
	DB	03H
	DB	04H
	DB	044H
	DB	08H
	DB	03H
	DB	04H
	DB	03H
	DB	08H
	DB	03H
	DB	04H
	DB	03H
	DB	08H
	DB	044H
	DB	04H
	DB	03H
	DB	08H
	DB	044H
	DB	04H
	DB	03H
	DB	08H
	DB	026H
	DB	04H
	DB	03H
	DB	08H
	DB	026H
	DB	04H
	DB	03H
	DB	08H
	DB	026H
	DB	04H
	DB	03H
	DB	08H
	DB	05H
	DB	04H
	DB	04H
	DB	01aH
	DB	02H
	DB	04H
	DB	0dH
	DB	0dH
	DB	033H
	DB	06H
	DB	02H
	DB	02H
	DB	02H
	DB	02H
	DB	02H
	DB	02H
	DB	02H
	DB	02H
	DB	02H
	DB	02H
	DB	02H
	DB	02cH
	DB	0eH
	DB	0d7H
	DB	0acH
	DB	09fH
	DB	09fH
	DB	09fH
	DB	09fH
	DB	014H
	DB	095H
	DB	095H
	DB	095H
	DB	095H
	DB	09eH
	DB	07H
	DB	07H
	DB	07H
	DB	01fH
	DB	017H
	DB	017H
	DB	0cH
	DB	0cH
	DB	01bH
	DB	01bH
	DB	034H
	DB	01bH
	DB	010H
	DB	02H
	DB	02H
	DB	04dH
	DB	02dH
	DB	034H
	DB	02H
	DB	013H
	DB	013H
	DB	010H
	DB	02H
	DB	018H
	DB	058H
	DB	05aH
	DB	056H
	DB	02aH
	DB	055H
	DB	02aH
	DB	017H
	DB	02H
	DB	02H
	DB	027H
	DB	07H
	DB	07H
	DB	07H
	DB	012H
	DB	0dcH
	DB	023H
	DB	023H
	DB	023H
	DB	09fH
	DB	0a1H
	DB	0aH
	DB	0aH
	DB	0aH
	DB	0aH
	DB	06dH
	DB	0eH
	DB	0eH
	DB	01aH
	DB	02H
	DB	02H
	DB	02H
	DB	02H
	DB	02H
	DB	02H
	DB	02H
	DB	02H
	DB	02H
	DB	02H
	DB	02H
	DB	02cH
	DB	0dH
	DB	0dH
	DB	03H
	DB	02H
	DB	02H
	DB	04H
	DB	03H
	DB	03H
	DB	044H
	DB	03H
	DB	03H
	DB	03H
	DB	044H
	DB	03H
	DB	03H
	DB	03H
	DB	044H
	DB	03H
	DB	03H
	DB	03H
	DB	044H
	DB	03H
	DB	03H
	DB	03H
	DB	044H
	DB	03H
	DB	03H
	DB	03H
	DB	044H
	DB	03H
	DB	03H
	DB	03H
	DB	044H
	DB	03H
	DB	03H
	DB	03H
	DB	044H
	DB	03H
	DB	03H
	DB	03H
	DB	044H
	DB	03H
	DB	03H
	DB	03H
	DB	044H
	DB	044H
	DB	03H
	DB	03H
	DB	044H
	DB	044H
	DB	03H
	DB	03H
	DB	044H
	DB	044H
	DB	03H
	DB	03H
	DB	044H
	DB	044H
	DB	03H
	DB	03H
	DB	044H
	DB	044H
	DB	03H
	DB	03H
	DB	044H
	DB	044H
	DB	03H
	DB	03H
	DB	044H
	DB	044H
	DB	03H
	DB	03H
	DB	03H
	DB	044H
	DB	03H
	DB	03H
	DB	03H
	DB	044H
	DB	03H
	DB	03H
	DB	03H
	DB	044H
	DB	03H
	DB	03H
	DB	03H
	DB	044H
	DB	03H
	DB	03H
	DB	03H
	DB	044H
	DB	03H
	DB	03H
	DB	03H
	DB	044H
	DB	03H
	DB	03H
	DB	03H
	DB	044H
	DB	03H
	DB	03H
	DB	03H
	DB	044H
	DB	03H
	DB	03H
	DB	03H
	DB	044H
	DB	03H
	DB	03H
	DB	03H
	DB	044H
	DB	03H
	DB	03H
	DB	03H
	DB	044H
	DB	03H
	DB	03H
	DB	03H
	DB	044H
	DB	03H
	DB	03H
	DB	03H
	DB	044H
	DB	03H
	DB	03H
	DB	03H
	DB	044H
	DB	03H
	DB	03H
	DB	03H
	DB	044H
	DB	03H
	DB	03H
	DB	03H
	DB	03H
	DB	01aH
	DB	02H
	DB	03H
	DB	0dH
	DB	0dH
	DB	02cH
	DB	02H
	DB	02H
	DB	02H
	DB	02H
	DB	02H
	DB	02H
	DB	02H
	DB	02H
	DB	02H
	DB	02H
	DB	02H
	DB	01aH
	DB	0b6H
	DB	0eH
	DB	08fH
	DB	021H
	DB	09fH
	DB	09fH
	DB	09fH
	DB	09fH
	DB	095H
	DB	095H
	DB	095H
	DB	095H
	DB	095H
	DB	019H
	DB	07H
	DB	07H
	DB	07H
	DB	02fH
	DB	017H
	DB	0fH
	DB	03aH
	DB	01bH
	DB	01bH
	DB	0cH
	DB	013H
	DB	010H
	DB	0bH
	DB	013H
	DB	027H
	DB	01bH
	DB	01aH
	DB	02H
	DB	02H
	DB	04aH
	DB	0bH
	DB	02H
	DB	017H
	DB	04dH
	DB	02aH
	DB	04aH
	DB	018H
	DB	013H
	DB	017H
	DB	02H
	DB	010H
	DB	0bH
	DB	0cfH
	DB	07H
	DB	07H
	DB	07H
	DB	016H
	DB	023H
	DB	023H
	DB	023H
	DB	0e0H
	DB	095H
	DB	0aH
	DB	0aH
	DB	0aH
	DB	0aH
	DB	063H
	DB	071H
	DB	0eH
	DB	03H
	DB	02H
	DB	02H
	DB	02H
	DB	02H
	DB	02H
	DB	02H
	DB	02H
	DB	02H
	DB	02H
	DB	02H
	DB	02H
	DB	026H
	DB	0dH
	DB	0dH
	DB	05H
	DB	02H
	DB	02H
	DB	06H
	DB	03H
	DB	08H
	DB	03H
	DB	04H
	DB	03H
	DB	08H
	DB	044H
	DB	04H
	DB	03H
	DB	08H
	DB	026H
	DB	04H
	DB	03H
	DB	08H
	DB	026H
	DB	04H
	DB	03H
	DB	08H
	DB	026H
	DB	04H
	DB	03H
	DB	08H
	DB	05H
	DB	04H
	DB	04H
	DB	08H
	DB	05H
	DB	04H
	DB	04H
	DB	08H
	DB	05H
	DB	04H
	DB	04H
	DB	08H
	DB	05H
	DB	04H
	DB	04H
	DB	08H
	DB	05H
	DB	04H
	DB	04H
	DB	08H
	DB	05H
	DB	04H
	DB	04H
	DB	08H
	DB	08H
	DB	04H
	DB	04H
	DB	08H
	DB	08H
	DB	04H
	DB	04H
	DB	08H
	DB	08H
	DB	04H
	DB	04H
	DB	08H
	DB	08H
	DB	04H
	DB	04H
	DB	05H
	DB	08H
	DB	04H
	DB	04H
	DB	05H
	DB	08H
	DB	04H
	DB	04H
	DB	05H
	DB	08H
	DB	04H
	DB	04H
	DB	05H
	DB	08H
	DB	04H
	DB	04H
	DB	05H
	DB	08H
	DB	03H
	DB	04H
	DB	026H
	DB	08H
	DB	03H
	DB	04H
	DB	026H
	DB	08H
	DB	03H
	DB	04H
	DB	026H
	DB	08H
	DB	03H
	DB	04H
	DB	026H
	DB	08H
	DB	03H
	DB	04H
	DB	044H
	DB	08H
	DB	03H
	DB	04H
	DB	03H
	DB	08H
	DB	03H
	DB	04H
	DB	03H
	DB	08H
	DB	044H
	DB	04H
	DB	03H
	DB	08H
	DB	026H
	DB	04H
	DB	03H
	DB	08H
	DB	026H
	DB	04H
	DB	03H
	DB	08H
	DB	026H
	DB	04H
	DB	03H
	DB	08H
	DB	05H
	DB	04H
	DB	04H
	DB	08H
	DB	05H
	DB	04H
	DB	04H
	DB	02H
	DB	02H
	DB	05H
	DB	0dH
	DB	0dH
	DB	08H
	DB	02H
	DB	02H
	DB	02H
	DB	02H
	DB	02H
	DB	02H
	DB	02H
	DB	02H
	DB	02H
	DB	02H
	DB	02H
	DB	04H
	DB	0eH
	DB	0eH
	DB	068H
	DB	09fH
	DB	09fH
	DB	09fH
	DB	09fH
	DB	014H
	DB	095H
	DB	095H
	DB	095H
	DB	095H
	DB	0e0H
	DB	07H
	DB	07H
	DB	07H
	DB	0cfH
	DB	034H
	DB	027H
	DB	010H
	DB	017H
	DB	020H
	DB	01bH
	DB	013H
	DB	0bH
	DB	04aH
	DB	041H
	DB	010H
	DB	017H
	DB	04aH
	DB	041H
	DB	03fH
	DB	0cH
	DB	017H
	DB	01aH
	DB	03fH
	DB	01dH
	DB	013H
	DB	010H
	DB	017H
	DB	02H
	DB	02H
	DB	017H
	DB	010H
	DB	022H
	DB	07H
	DB	07H
	DB	07H
	DB	019H
	DB	023H
	DB	023H
	DB	023H
	DB	0e0H
	DB	09fH
	DB	0a1H
	DB	0aH
	DB	0aH
	DB	0aH
	DB	06aH
	DB	084H
	DB	0eH
	DB	02cH
	DB	02H
	DB	02H
	DB	02H
	DB	02H
	DB	02H
	DB	02H
	DB	02H
	DB	02H
	DB	02H
	DB	02H
	DB	02H
	DB	04H
	DB	0dH
	DB	0dH
	DB	02cH
	DB	02H
	DB	02H
	DB	04H
	DB	03H
	DB	03H
	DB	044H
	DB	03H
	DB	03H
	DB	03H
	DB	044H
	DB	03H
	DB	03H
	DB	03H
	DB	044H
	DB	03H
	DB	03H
	DB	03H
	DB	044H
	DB	03H
	DB	03H
	DB	03H
	DB	044H
	DB	03H
	DB	03H
	DB	03H
	DB	044H
	DB	03H
	DB	03H
	DB	03H
	DB	044H
	DB	03H
	DB	03H
	DB	03H
	DB	044H
	DB	03H
	DB	03H
	DB	03H
	DB	044H
	DB	03H
	DB	03H
	DB	03H
	DB	044H
	DB	044H
	DB	03H
	DB	03H
	DB	044H
	DB	044H
	DB	03H
	DB	03H
	DB	044H
	DB	044H
	DB	03H
	DB	03H
	DB	044H
	DB	044H
	DB	03H
	DB	03H
	DB	044H
	DB	044H
	DB	03H
	DB	03H
	DB	044H
	DB	044H
	DB	03H
	DB	03H
	DB	044H
	DB	044H
	DB	03H
	DB	03H
	DB	044H
	DB	044H
	DB	03H
	DB	03H
	DB	03H
	DB	044H
	DB	03H
	DB	03H
	DB	03H
	DB	044H
	DB	03H
	DB	03H
	DB	03H
	DB	044H
	DB	03H
	DB	03H
	DB	03H
	DB	044H
	DB	03H
	DB	03H
	DB	03H
	DB	044H
	DB	03H
	DB	03H
	DB	03H
	DB	044H
	DB	03H
	DB	03H
	DB	03H
	DB	044H
	DB	03H
	DB	03H
	DB	03H
	DB	044H
	DB	03H
	DB	03H
	DB	03H
	DB	044H
	DB	03H
	DB	03H
	DB	03H
	DB	044H
	DB	03H
	DB	03H
	DB	03H
	DB	044H
	DB	03H
	DB	03H
	DB	03H
	DB	044H
	DB	03H
	DB	03H
	DB	03H
	DB	044H
	DB	03H
	DB	03H
	DB	03H
	DB	044H
	DB	03H
	DB	03H
	DB	03H
	DB	044H
	DB	03H
	DB	03H
	DB	03H
	DB	04H
	DB	02H
	DB	02H
	DB	02cH
	DB	0dH
	DB	0dH
	DB	044H
	DB	02H
	DB	02H
	DB	02H
	DB	02H
	DB	02H
	DB	02H
	DB	02H
	DB	02H
	DB	02H
	DB	02H
	DB	02H
	DB	02cH
	DB	0eH
	DB	0d7H
	DB	0c0H
	DB	021H
	DB	021H
	DB	021H
	DB	09fH
	DB	014H
	DB	095H
	DB	095H
	DB	095H
	DB	095H
	DB	0baH
	DB	07H
	DB	07H
	DB	07H
	DB	05eH
	DB	0bH
	DB	010H
	DB	013H
	DB	02H
	DB	017H
	DB	0cH
	DB	034H
	DB	013H
	DB	04bH
	DB	04bH
	DB	04aH
	DB	054H
	DB	018H
	DB	0b2H
	DB	020H
	DB	02H
	DB	04bH
	DB	018H
	DB	0bH
	DB	01aH
	DB	01aH
	DB	02H
	DB	02H
	DB	017H
	DB	017H
	DB	02H
	DB	07H
	DB	07H
	DB	07H
	DB	03cH
	DB	029H
	DB	023H
	DB	023H
	DB	023H
	DB	021H
	DB	011H
	DB	0aH
	DB	0aH
	DB	0aH
	DB	0aH
	DB	074H
	DB	0eH
	DB	0eH
	DB	01aH
	DB	02H
	DB	02H
	DB	02H
	DB	02H
	DB	02H
	DB	02H
	DB	02H
	DB	02H
	DB	02H
	DB	02H
	DB	01aH
	DB	033H
	DB	0dH
	DB	033H
	DB	06H
	DB	02H
	DB	01aH
	DB	044H
	DB	08H
	DB	03H
	DB	04H
	DB	03H
	DB	08H
	DB	044H
	DB	04H
	DB	03H
	DB	08H
	DB	026H
	DB	04H
	DB	03H
	DB	08H
	DB	026H
	DB	04H
	DB	03H
	DB	08H
	DB	026H
	DB	04H
	DB	03H
	DB	08H
	DB	026H
	DB	04H
	DB	03H
	DB	08H
	DB	05H
	DB	04H
	DB	04H
	DB	08H
	DB	05H
	DB	04H
	DB	04H
	DB	08H
	DB	05H
	DB	04H
	DB	04H
	DB	08H
	DB	05H
	DB	04H
	DB	04H
	DB	08H
	DB	05H
	DB	04H
	DB	04H
	DB	08H
	DB	08H
	DB	04H
	DB	04H
	DB	08H
	DB	08H
	DB	04H
	DB	04H
	DB	08H
	DB	08H
	DB	04H
	DB	04H
	DB	08H
	DB	08H
	DB	04H
	DB	04H
	DB	08H
	DB	08H
	DB	04H
	DB	04H
	DB	05H
	DB	08H
	DB	04H
	DB	04H
	DB	05H
	DB	08H
	DB	04H
	DB	04H
	DB	05H
	DB	08H
	DB	04H
	DB	04H
	DB	05H
	DB	08H
	DB	03H
	DB	04H
	DB	05H
	DB	08H
	DB	03H
	DB	04H
	DB	026H
	DB	08H
	DB	03H
	DB	04H
	DB	026H
	DB	08H
	DB	03H
	DB	04H
	DB	026H
	DB	08H
	DB	03H
	DB	04H
	DB	044H
	DB	08H
	DB	03H
	DB	04H
	DB	044H
	DB	08H
	DB	03H
	DB	04H
	DB	03H
	DB	08H
	DB	044H
	DB	04H
	DB	03H
	DB	08H
	DB	026H
	DB	04H
	DB	03H
	DB	08H
	DB	026H
	DB	04H
	DB	03H
	DB	08H
	DB	026H
	DB	04H
	DB	03H
	DB	08H
	DB	026H
	DB	04H
	DB	03H
	DB	08H
	DB	05H
	DB	04H
	DB	04H
	DB	08H
	DB	05H
	DB	04H
	DB	06H
	DB	02H
	DB	01aH
	DB	033H
	DB	0dH
	DB	0dH
	DB	06H
	DB	02H
	DB	02H
	DB	02H
	DB	02H
	DB	02H
	DB	02H
	DB	02H
	DB	02H
	DB	02H
	DB	02H
	DB	01aH
	DB	0eH
	DB	0eH
	DB	0a7H
	DB	021H
	DB	021H
	DB	021H
	DB	021H
	DB	09fH
	DB	014H
	DB	095H
	DB	095H
	DB	095H
	DB	021H
	DB	03cH
	DB	07H
	DB	07H
	DB	07H
	DB	010H
	DB	0cH
	DB	0fH
	DB	0bH
	DB	01bH
	DB	0fH
	DB	034H
	DB	010H
	DB	017H
	DB	04aH
	DB	0bH
	DB	01bH
	DB	0bH
	DB	01eH
	DB	015H
	DB	0cH
	DB	041H
	DB	013H
	DB	0bH
	DB	04bH
	DB	010H
	DB	02H
	DB	02H
	DB	02H
	DB	02H
	DB	022H
	DB	07H
	DB	07H
	DB	07H
	DB	025H
	DB	023H
	DB	023H
	DB	023H
	DB	0e0H
	DB	014H
	DB	088H
	DB	0aH
	DB	0aH
	DB	0aH
	DB	069H
	DB	0a6H
	DB	0eH
	DB	026H
	DB	02H
	DB	02H
	DB	02H
	DB	02H
	DB	02H
	DB	02H
	DB	02H
	DB	02H
	DB	02H
	DB	02H
	DB	02H
	DB	02cH
	DB	0dH
	DB	0dH
	DB	04H
	DB	02H
	DB	01aH
	DB	04H
	DB	03H
	DB	044H
	DB	03H
	DB	04H
	DB	03H
	DB	044H
	DB	03H
	DB	04H
	DB	03H
	DB	044H
	DB	03H
	DB	04H
	DB	03H
	DB	044H
	DB	03H
	DB	04H
	DB	03H
	DB	044H
	DB	03H
	DB	04H
	DB	03H
	DB	044H
	DB	03H
	DB	04H
	DB	03H
	DB	044H
	DB	03H
	DB	04H
	DB	03H
	DB	044H
	DB	03H
	DB	04H
	DB	03H
	DB	044H
	DB	03H
	DB	04H
	DB	03H
	DB	044H
	DB	044H
	DB	04H
	DB	03H
	DB	044H
	DB	044H
	DB	04H
	DB	03H
	DB	044H
	DB	044H
	DB	04H
	DB	04H
	DB	044H
	DB	044H
	DB	04H
	DB	04H
	DB	044H
	DB	044H
	DB	04H
	DB	04H
	DB	044H
	DB	044H
	DB	04H
	DB	04H
	DB	044H
	DB	044H
	DB	03H
	DB	04H
	DB	044H
	DB	044H
	DB	03H
	DB	04H
	DB	044H
	DB	044H
	DB	03H
	DB	04H
	DB	03H
	DB	044H
	DB	03H
	DB	04H
	DB	03H
	DB	044H
	DB	03H
	DB	04H
	DB	03H
	DB	044H
	DB	03H
	DB	04H
	DB	03H
	DB	044H
	DB	03H
	DB	04H
	DB	03H
	DB	044H
	DB	03H
	DB	04H
	DB	03H
	DB	044H
	DB	03H
	DB	04H
	DB	03H
	DB	044H
	DB	03H
	DB	04H
	DB	03H
	DB	044H
	DB	03H
	DB	04H
	DB	03H
	DB	044H
	DB	03H
	DB	04H
	DB	03H
	DB	044H
	DB	03H
	DB	04H
	DB	03H
	DB	044H
	DB	03H
	DB	04H
	DB	03H
	DB	044H
	DB	03H
	DB	04H
	DB	03H
	DB	044H
	DB	03H
	DB	04H
	DB	03H
	DB	044H
	DB	03H
	DB	04H
	DB	03H
	DB	044H
	DB	03H
	DB	04H
	DB	03H
	DB	01aH
	DB	02H
	DB	04H
	DB	0dH
	DB	0dH
	DB	02cH
	DB	01aH
	DB	02H
	DB	02H
	DB	02H
	DB	02H
	DB	02H
	DB	02H
	DB	02H
	DB	02H
	DB	02H
	DB	02H
	DB	03H
	DB	0eH
	DB	071H
	DB	0a9H
	DB	021H
	DB	021H
	DB	021H
	DB	09fH
	DB	014H
	DB	095H
	DB	095H
	DB	095H
	DB	095H
	DB	02bH
	DB	07H
	DB	07H
	DB	07H
	DB	05eH
	DB	0bH
	DB	02fH
	DB	0cH
	DB	013H
	DB	0cH
	DB	0bH
	DB	02H
	DB	017H
	DB	010H
	DB	01aH
	DB	010H
	DB	013H
	DB	02H
	DB	01dH
	DB	0d2H
	DB	07dH
	DB	027H
	DB	04dH
	DB	04dH
	DB	027H
	DB	034H
	DB	010H
	DB	034H
	DB	03aH
	DB	07H
	DB	07H
	DB	07H
	DB	03cH
	DB	029H
	DB	023H
	DB	023H
	DB	023H
	DB	021H
	DB	0a1H
	DB	0aH
	DB	0aH
	DB	0aH
	DB	088H
	DB	05cH
	DB	0eH
	DB	036H
	DB	02H
	DB	02H
	DB	02H
	DB	02H
	DB	02H
	DB	02H
	DB	02H
	DB	02H
	DB	02H
	DB	02H
	DB	02H
	DB	026H
	DB	0dH
	DB	0dH
	DB	026H
	DB	02H
	DB	02H
	DB	03H
	DB	08H
	DB	03H
	DB	04H
	DB	044H
	DB	08H
	DB	044H
	DB	04H
	DB	03H
	DB	08H
	DB	044H
	DB	04H
	DB	03H
	DB	08H
	DB	026H
	DB	04H
	DB	03H
	DB	08H
	DB	026H
	DB	04H
	DB	03H
	DB	08H
	DB	026H
	DB	04H
	DB	03H
	DB	08H
	DB	05H
	DB	04H
	DB	03H
	DB	08H
	DB	05H
	DB	04H
	DB	04H
	DB	08H
	DB	05H
	DB	04H
	DB	04H
	DB	08H
	DB	05H
	DB	04H
	DB	04H
	DB	08H
	DB	05H
	DB	04H
	DB	04H
	DB	08H
	DB	08H
	DB	04H
	DB	04H
	DB	08H
	DB	08H
	DB	04H
	DB	04H
	DB	08H
	DB	08H
	DB	04H
	DB	04H
	DB	08H
	DB	08H
	DB	04H
	DB	04H
	DB	08H
	DB	08H
	DB	04H
	DB	04H
	DB	05H
	DB	08H
	DB	04H
	DB	04H
	DB	05H
	DB	08H
	DB	04H
	DB	04H
	DB	05H
	DB	08H
	DB	04H
	DB	04H
	DB	05H
	DB	08H
	DB	04H
	DB	04H
	DB	05H
	DB	08H
	DB	03H
	DB	04H
	DB	05H
	DB	08H
	DB	03H
	DB	04H
	DB	026H
	DB	08H
	DB	03H
	DB	04H
	DB	026H
	DB	08H
	DB	03H
	DB	04H
	DB	026H
	DB	08H
	DB	03H
	DB	04H
	DB	044H
	DB	08H
	DB	03H
	DB	04H
	DB	044H
	DB	08H
	DB	044H
	DB	04H
	DB	03H
	DB	08H
	DB	044H
	DB	04H
	DB	03H
	DB	08H
	DB	026H
	DB	04H
	DB	03H
	DB	08H
	DB	026H
	DB	04H
	DB	03H
	DB	08H
	DB	026H
	DB	04H
	DB	03H
	DB	08H
	DB	05H
	DB	04H
	DB	03H
	DB	08H
	DB	05H
	DB	04H
	DB	04H
	DB	08H
	DB	05H
	DB	04H
	DB	01aH
	DB	02H
	DB	03H
	DB	0dH
	DB	0dH
	DB	05H
	DB	02H
	DB	02H
	DB	02H
	DB	02H
	DB	02H
	DB	02H
	DB	02H
	DB	02H
	DB	02H
	DB	02H
	DB	02H
	DB	033H
	DB	0eH
	DB	084H
	DB	0deH
	DB	021H
	DB	021H
	DB	021H
	DB	09fH
	DB	014H
	DB	095H
	DB	095H
	DB	095H
	DB	09fH
	DB	0d3H
	DB	07H
	DB	07H
	DB	07H
	DB	01cH
	DB	028H
	DB	02fH
	DB	0cH
	DB	01cH
	DB	015H
	DB	01aH
	DB	017H
	DB	01bH
	DB	034H
	DB	013H
	DB	04aH
	DB	04bH
	DB	0b2H
	DB	0f5H
	DB	08dH
	DB	0fH
	DB	04dH
	DB	03fH
	DB	05eH
	DB	043H
	DB	0e6H
	DB	038H
	DB	03eH
	DB	07H
	DB	07H
	DB	07H
	DB	025H
	DB	0dcH
	DB	023H
	DB	0dcH
	DB	023H
	DB	014H
	DB	0aH
	DB	0aH
	DB	0aH
	DB	0aH
	DB	059H
	DB	0eH
	DB	0eH
	DB	04H
	DB	02H
	DB	02H
	DB	02H
	DB	02H
	DB	02H
	DB	02H
	DB	02H
	DB	02H
	DB	02H
	DB	02H
	DB	06H
	DB	0dH
	DB	0dH
	DB	02cH
	DB	02H
	DB	02H
	DB	04H
	DB	03H
	DB	026H
	DB	03H
	DB	04H
	DB	03H
	DB	026H
	DB	03H
	DB	04H
	DB	03H
	DB	026H
	DB	03H
	DB	04H
	DB	03H
	DB	026H
	DB	03H
	DB	04H
	DB	03H
	DB	026H
	DB	03H
	DB	04H
	DB	03H
	DB	026H
	DB	03H
	DB	04H
	DB	03H
	DB	026H
	DB	03H
	DB	04H
	DB	03H
	DB	026H
	DB	03H
	DB	04H
	DB	03H
	DB	026H
	DB	03H
	DB	04H
	DB	03H
	DB	026H
	DB	044H
	DB	04H
	DB	04H
	DB	026H
	DB	044H
	DB	04H
	DB	04H
	DB	026H
	DB	044H
	DB	04H
	DB	04H
	DB	026H
	DB	044H
	DB	04H
	DB	04H
	DB	026H
	DB	044H
	DB	04H
	DB	04H
	DB	044H
	DB	026H
	DB	04H
	DB	04H
	DB	044H
	DB	026H
	DB	04H
	DB	04H
	DB	044H
	DB	026H
	DB	04H
	DB	04H
	DB	044H
	DB	026H
	DB	03H
	DB	04H
	DB	03H
	DB	026H
	DB	03H
	DB	04H
	DB	03H
	DB	026H
	DB	03H
	DB	04H
	DB	03H
	DB	026H
	DB	03H
	DB	04H
	DB	03H
	DB	026H
	DB	03H
	DB	04H
	DB	03H
	DB	026H
	DB	03H
	DB	04H
	DB	03H
	DB	026H
	DB	03H
	DB	04H
	DB	03H
	DB	026H
	DB	03H
	DB	04H
	DB	03H
	DB	026H
	DB	03H
	DB	04H
	DB	03H
	DB	026H
	DB	03H
	DB	04H
	DB	03H
	DB	026H
	DB	03H
	DB	04H
	DB	03H
	DB	026H
	DB	03H
	DB	04H
	DB	03H
	DB	026H
	DB	03H
	DB	04H
	DB	03H
	DB	026H
	DB	03H
	DB	04H
	DB	03H
	DB	026H
	DB	03H
	DB	04H
	DB	03H
	DB	026H
	DB	03H
	DB	04H
	DB	03H
	DB	026H
	DB	03H
	DB	04H
	DB	04H
	DB	02H
	DB	02H
	DB	02cH
	DB	0dH
	DB	0dH
	DB	04H
	DB	02H
	DB	02H
	DB	02H
	DB	02H
	DB	02H
	DB	02H
	DB	02H
	DB	02H
	DB	02H
	DB	02H
	DB	06H
	DB	0eH
	DB	0eH
	DB	068H
	DB	021H
	DB	021H
	DB	021H
	DB	021H
	DB	09fH
	DB	014H
	DB	095H
	DB	095H
	DB	095H
	DB	0dbH
	DB	07H
	DB	07H
	DB	07H
	DB	030H
	DB	0cH
	DB	031H
	DB	031H
	DB	028H
	DB	013H
	DB	010H
	DB	01bH
	DB	01bH
	DB	01bH
	DB	01bH
	DB	010H
	DB	0c1H
	DB	07cH
	DB	037H
	DB	032H
	DB	0fH
	DB	018H
	DB	045H
	DB	038H
	DB	038H
	DB	038H
	DB	0ceH
	DB	07H
	DB	07H
	DB	07H
	DB	03cH
	DB	029H
	DB	0dcH
	DB	0dcH
	DB	0dcH
	DB	021H
	DB	0a1H
	DB	0aH
	DB	0aH
	DB	0aH
	DB	04fH
	DB	049H
	DB	0eH
	DB	02cH
	DB	02H
	DB	02H
	DB	02H
	DB	02H
	DB	02H
	DB	02H
	DB	02H
	DB	02H
	DB	02H
	DB	02H
	DB	02H
	DB	033H
	DB	0dH
	DB	0dH
	DB	06H
	DB	02H
	DB	06H
	DB	08H
	DB	03H
	DB	04H
	DB	044H
	DB	08H
	DB	044H
	DB	04H
	DB	03H
	DB	08H
	DB	044H
	DB	04H
	DB	03H
	DB	08H
	DB	026H
	DB	04H
	DB	03H
	DB	08H
	DB	026H
	DB	04H
	DB	03H
	DB	08H
	DB	026H
	DB	04H
	DB	03H
	DB	08H
	DB	05H
	DB	04H
	DB	03H
	DB	08H
	DB	05H
	DB	04H
	DB	03H
	DB	08H
	DB	05H
	DB	04H
	DB	04H
	DB	08H
	DB	05H
	DB	04H
	DB	04H
	DB	08H
	DB	05H
	DB	04H
	DB	04H
	DB	08H
	DB	08H
	DB	04H
	DB	04H
	DB	08H
	DB	08H
	DB	04H
	DB	04H
	DB	08H
	DB	08H
	DB	04H
	DB	04H
	DB	08H
	DB	08H
	DB	04H
	DB	04H
	DB	08H
	DB	08H
	DB	04H
	DB	04H
	DB	08H
	DB	08H
	DB	04H
	DB	04H
	DB	05H
	DB	08H
	DB	04H
	DB	04H
	DB	05H
	DB	08H
	DB	04H
	DB	04H
	DB	05H
	DB	08H
	DB	04H
	DB	04H
	DB	05H
	DB	08H
	DB	03H
	DB	04H
	DB	05H
	DB	08H
	DB	03H
	DB	04H
	DB	026H
	DB	08H
	DB	03H
	DB	04H
	DB	026H
	DB	08H
	DB	03H
	DB	04H
	DB	026H
	DB	08H
	DB	03H
	DB	04H
	DB	026H
	DB	08H
	DB	03H
	DB	04H
	DB	044H
	DB	08H
	DB	044H
	DB	04H
	DB	03H
	DB	08H
	DB	044H
	DB	04H
	DB	03H
	DB	08H
	DB	026H
	DB	04H
	DB	03H
	DB	08H
	DB	026H
	DB	04H
	DB	03H
	DB	08H
	DB	026H
	DB	04H
	DB	03H
	DB	08H
	DB	05H
	DB	04H
	DB	03H
	DB	08H
	DB	05H
	DB	04H
	DB	03H
	DB	08H
	DB	05H
	DB	04H
	DB	04H
	DB	08H
	DB	05H
	DB	01aH
	DB	02H
	DB	06H
	DB	036H
	DB	0dH
	DB	033H
	DB	01aH
	DB	02H
	DB	02H
	DB	02H
	DB	02H
	DB	02H
	DB	02H
	DB	02H
	DB	02H
	DB	02H
	DB	02H
	DB	08H
	DB	0eH
	DB	046H
	DB	0ddH
	DB	021H
	DB	021H
	DB	021H
	DB	09fH
	DB	014H
	DB	095H
	DB	095H
	DB	014H
	DB	09fH
	DB	0d3H
	DB	07H
	DB	07H
	DB	07H
	DB	0bH
	DB	0cH
	DB	0fH
	DB	04aH
	DB	013H
	DB	0bH
	DB	0bH
	DB	010H
	DB	010H
	DB	017H
	DB	010H
	DB	04aH
	DB	013H
	DB	027H
	DB	027H
	DB	034H
	DB	018H
	DB	045H
	DB	03dH
	DB	022H
	DB	022H
	DB	038H
	DB	07H
	DB	07H
	DB	07H
	DB	025H
	DB	0dcH
	DB	0dcH
	DB	0dcH
	DB	023H
	DB	014H
	DB	0aH
	DB	0aH
	DB	0aH
	DB	0aH
	DB	07aH
	DB	0eH
	DB	0eH
	DB	01aH
	DB	02H
	DB	02H
	DB	02H
	DB	02H
	DB	02H
	DB	02H
	DB	02H
	DB	02H
	DB	02H
	DB	02H
	DB	044H
	DB	0dH
	DB	0dH
	DB	03H
	DB	02H
	DB	01aH
	DB	03H
	DB	026H
	DB	03H
	DB	04H
	DB	03H
	DB	026H
	DB	03H
	DB	04H
	DB	03H
	DB	026H
	DB	03H
	DB	04H
	DB	03H
	DB	026H
	DB	03H
	DB	04H
	DB	03H
	DB	026H
	DB	03H
	DB	04H
	DB	03H
	DB	026H
	DB	03H
	DB	04H
	DB	03H
	DB	026H
	DB	03H
	DB	04H
	DB	03H
	DB	026H
	DB	03H
	DB	04H
	DB	03H
	DB	026H
	DB	03H
	DB	04H
	DB	04H
	DB	026H
	DB	03H
	DB	04H
	DB	04H
	DB	026H
	DB	044H
	DB	04H
	DB	04H
	DB	026H
	DB	044H
	DB	04H
	DB	04H
	DB	026H
	DB	044H
	DB	04H
	DB	04H
	DB	026H
	DB	026H
	DB	04H
	DB	04H
	DB	026H
	DB	026H
	DB	04H
	DB	04H
	DB	044H
	DB	026H
	DB	04H
	DB	04H
	DB	044H
	DB	026H
	DB	04H
	DB	04H
	DB	044H
	DB	026H
	DB	04H
	DB	04H
	DB	044H
	DB	026H
	DB	04H
	DB	04H
	DB	03H
	DB	026H
	DB	03H
	DB	04H
	DB	03H
	DB	026H
	DB	03H
	DB	04H
	DB	03H
	DB	026H
	DB	03H
	DB	04H
	DB	03H
	DB	026H
	DB	03H
	DB	04H
	DB	03H
	DB	026H
	DB	03H
	DB	04H
	DB	03H
	DB	026H
	DB	03H
	DB	04H
	DB	03H
	DB	026H
	DB	03H
	DB	04H
	DB	03H
	DB	026H
	DB	03H
	DB	04H
	DB	03H
	DB	026H
	DB	03H
	DB	04H
	DB	03H
	DB	026H
	DB	03H
	DB	04H
	DB	03H
	DB	026H
	DB	03H
	DB	04H
	DB	03H
	DB	026H
	DB	03H
	DB	04H
	DB	03H
	DB	026H
	DB	03H
	DB	04H
	DB	03H
	DB	026H
	DB	03H
	DB	04H
	DB	03H
	DB	026H
	DB	03H
	DB	04H
	DB	04H
	DB	026H
	DB	03H
	DB	04H
	DB	01aH
	DB	02H
	DB	03H
	DB	0dH
	DB	0dH
	DB	05H
	DB	02H
	DB	02H
	DB	02H
	DB	02H
	DB	02H
	DB	02H
	DB	02H
	DB	02H
	DB	02H
	DB	02H
	DB	01aH
	DB	0eH
	DB	0eH
	DB	073H
	DB	0deH
	DB	021H
	DB	021H
	DB	021H
	DB	09fH
	DB	014H
	DB	095H
	DB	095H
	DB	014H
	DB	0dbH
	DB	07H
	DB	07H
	DB	07H
	DB	05eH
	DB	0cH
	DB	0cH
	DB	010H
	DB	01aH
	DB	010H
	DB	010H
	DB	010H
	DB	010H
	DB	017H
	DB	010H
	DB	017H
	DB	01aH
	DB	041H
	DB	04bH
	DB	01aH
	DB	010H
	DB	027H
	DB	02dH
	DB	02dH
	DB	0fH
	DB	0cfH
	DB	07H
	DB	07H
	DB	03cH
	DB	09eH
	DB	0dcH
	DB	0dcH
	DB	0dcH
	DB	021H
	DB	0a1H
	DB	0aH
	DB	0aH
	DB	0aH
	DB	06aH
	DB	046H
	DB	0eH
	DB	08H
	DB	02H
	DB	02H
	DB	02H
	DB	02H
	DB	02H
	DB	02H
	DB	02H
	DB	02H
	DB	02H
	DB	02H
	DB	01aH
	DB	036H
	DB	0dH
	DB	02cH
	DB	02H
	DB	02H
	DB	026H
	DB	03H
	DB	04H
	DB	044H
	DB	08H
	DB	03H
	DB	04H
	DB	044H
	DB	08H
	DB	044H
	DB	04H
	DB	03H
	DB	08H
	DB	026H
	DB	04H
	DB	03H
	DB	08H
	DB	026H
	DB	04H
	DB	03H
	DB	08H
	DB	026H
	DB	04H
	DB	03H
	DB	08H
	DB	05H
	DB	04H
	DB	03H
	DB	08H
	DB	05H
	DB	04H
	DB	03H
	DB	08H
	DB	05H
	DB	04H
	DB	03H
	DB	08H
	DB	05H
	DB	04H
	DB	04H
	DB	08H
	DB	05H
	DB	04H
	DB	04H
	DB	08H
	DB	05H
	DB	04H
	DB	04H
	DB	08H
	DB	08H
	DB	04H
	DB	04H
	DB	08H
	DB	08H
	DB	04H
	DB	04H
	DB	08H
	DB	08H
	DB	04H
	DB	04H
	DB	08H
	DB	08H
	DB	04H
	DB	04H
	DB	08H
	DB	08H
	DB	04H
	DB	04H
	DB	08H
	DB	08H
	DB	04H
	DB	04H
	DB	05H
	DB	08H
	DB	04H
	DB	04H
	DB	05H
	DB	08H
	DB	04H
	DB	04H
	DB	05H
	DB	08H
	DB	03H
	DB	04H
	DB	05H
	DB	08H
	DB	03H
	DB	04H
	DB	05H
	DB	08H
	DB	03H
	DB	04H
	DB	026H
	DB	08H
	DB	03H
	DB	04H
	DB	026H
	DB	08H
	DB	03H
	DB	04H
	DB	026H
	DB	08H
	DB	03H
	DB	04H
	DB	044H
	DB	08H
	DB	03H
	DB	04H
	DB	044H
	DB	08H
	DB	044H
	DB	04H
	DB	03H
	DB	08H
	DB	026H
	DB	04H
	DB	03H
	DB	08H
	DB	026H
	DB	04H
	DB	03H
	DB	08H
	DB	026H
	DB	04H
	DB	03H
	DB	08H
	DB	05H
	DB	04H
	DB	03H
	DB	08H
	DB	05H
	DB	04H
	DB	03H
	DB	08H
	DB	05H
	DB	04H
	DB	03H
	DB	08H
	DB	05H
	DB	04H
	DB	04H
	DB	08H
	DB	026H
	DB	02H
	DB	02H
	DB	08H
	DB	0dH
	DB	0dH
	DB	06H
	DB	02H
	DB	02H
	DB	02H
	DB	02H
	DB	02H
	DB	02H
	DB	02H
	DB	02H
	DB	02H
	DB	02H
	DB	05H
	DB	0eH
	DB	071H
	DB	01H
	DB	021H
	DB	021H
	DB	021H
	DB	021H
	DB	014H
	DB	014H
	DB	014H
	DB	014H
	DB	09fH
	DB	03cH
	DB	07H
	DB	07H
	DB	0cfH
	DB	0bH
	DB	017H
	DB	017H
	DB	010H
	DB	0bH
	DB	01bH
	DB	010H
	DB	010H
	DB	02H
	DB	017H
	DB	010H
	DB	010H
	DB	04bH
	DB	04bH
	DB	04bH
	DB	041H
	DB	04eH
	DB	01dH
	DB	018H
	DB	022H
	DB	07H
	DB	07H
	DB	07H
	DB	081H
	DB	0dcH
	DB	0dcH
	DB	0dcH
	DB	023H
	DB	014H
	DB	0aH
	DB	0aH
	DB	0aH
	DB	0aH
	DB	0daH
	DB	0eH
	DB	0eH
	DB	01aH
	DB	02H
	DB	02H
	DB	02H
	DB	02H
	DB	02H
	DB	02H
	DB	02H
	DB	02H
	DB	02H
	DB	02H
	DB	08H
	DB	0dH
	DB	0dH
	DB	04H
	DB	02H
	DB	06H
	DB	026H
	DB	03H
	DB	04H
	DB	03H
	DB	026H
	DB	03H
	DB	04H
	DB	03H
	DB	026H
	DB	03H
	DB	04H
	DB	03H
	DB	026H
	DB	03H
	DB	04H
	DB	03H
	DB	026H
	DB	03H
	DB	04H
	DB	03H
	DB	026H
	DB	03H
	DB	04H
	DB	03H
	DB	026H
	DB	03H
	DB	04H
	DB	03H
	DB	026H
	DB	03H
	DB	04H
	DB	03H
	DB	026H
	DB	03H
	DB	04H
	DB	04H
	DB	026H
	DB	03H
	DB	04H
	DB	04H
	DB	026H
	DB	044H
	DB	04H
	DB	04H
	DB	026H
	DB	044H
	DB	04H
	DB	04H
	DB	026H
	DB	044H
	DB	04H
	DB	04H
	DB	026H
	DB	026H
	DB	04H
	DB	04H
	DB	026H
	DB	026H
	DB	04H
	DB	04H
	DB	026H
	DB	026H
	DB	04H
	DB	04H
	DB	044H
	DB	026H
	DB	04H
	DB	04H
	DB	044H
	DB	026H
	DB	04H
	DB	04H
	DB	044H
	DB	026H
	DB	04H
	DB	04H
	DB	044H
	DB	026H
	DB	04H
	DB	04H
	DB	03H
	DB	026H
	DB	04H
	DB	04H
	DB	03H
	DB	026H
	DB	03H
	DB	04H
	DB	03H
	DB	026H
	DB	03H
	DB	04H
	DB	03H
	DB	026H
	DB	03H
	DB	04H
	DB	03H
	DB	026H
	DB	03H
	DB	04H
	DB	03H
	DB	026H
	DB	03H
	DB	04H
	DB	03H
	DB	026H
	DB	03H
	DB	04H
	DB	03H
	DB	026H
	DB	03H
	DB	04H
	DB	03H
	DB	026H
	DB	03H
	DB	04H
	DB	03H
	DB	026H
	DB	03H
	DB	04H
	DB	03H
	DB	026H
	DB	03H
	DB	04H
	DB	03H
	DB	026H
	DB	03H
	DB	04H
	DB	03H
	DB	026H
	DB	03H
	DB	04H
	DB	03H
	DB	026H
	DB	03H
	DB	04H
	DB	04H
	DB	026H
	DB	03H
	DB	04H
	DB	04H
	DB	026H
	DB	044H
	DB	06H
	DB	02H
	DB	06H
	DB	0dH
	DB	0dH
	DB	02cH
	DB	02H
	DB	02H
	DB	02H
	DB	02H
	DB	02H
	DB	02H
	DB	02H
	DB	02H
	DB	02H
	DB	02H
	DB	01aH
	DB	0eH
	DB	0eH
	DB	0d8H
	DB	0deH
	DB	0deH
	DB	0deH
	DB	021H
	DB	09fH
	DB	014H
	DB	014H
	DB	014H
	DB	014H
	DB	02bH
	DB	07H
	DB	07H
	DB	07H
	DB	0fH
	DB	015H
	DB	034H
	DB	034H
	DB	0bH
	DB	01bH
	DB	0bH
	DB	035H
	DB	010H
	DB	017H
	DB	01bH
	DB	017H
	DB	02H
	DB	010H
	DB	018H
	DB	043H
	DB	02eH
	DB	013H
	DB	017H
	DB	03eH
	DB	07H
	DB	07H
	DB	07H
	DB	016H
	DB	0dcH
	DB	0dcH
	DB	0dcH
	DB	0aeH
	DB	011H
	DB	0aH
	DB	0aH
	DB	0aH
	DB	04fH
	DB	0a6H
	DB	0eH
	DB	05H
	DB	02H
	DB	02H
	DB	02H
	DB	02H
	DB	02H
	DB	02H
	DB	02H
	DB	02H
	DB	02H
	DB	02H
	DB	04H
	DB	0dH
	DB	0dH
	DB	044H
	DB	02H
	DB	01aH
	DB	03H
	DB	04H
	DB	026H
	DB	08H
	DB	03H
	DB	04H
	DB	044H
	DB	08H
	DB	044H
	DB	04H
	DB	044H
	DB	08H
	DB	026H
	DB	04H
	DB	03H
	DB	08H
	DB	026H
	DB	04H
	DB	03H
	DB	08H
	DB	026H
	DB	04H
	DB	03H
	DB	08H
	DB	026H
	DB	04H
	DB	03H
	DB	08H
	DB	05H
	DB	04H
	DB	03H
	DB	08H
	DB	05H
	DB	04H
	DB	03H
	DB	08H
	DB	05H
	DB	04H
	DB	04H
	DB	08H
	DB	05H
	DB	04H
	DB	04H
	DB	08H
	DB	05H
	DB	04H
	DB	04H
	DB	08H
	DB	08H
	DB	04H
	DB	04H
	DB	08H
	DB	08H
	DB	04H
	DB	04H
	DB	08H
	DB	08H
	DB	04H
	DB	04H
	DB	08H
	DB	08H
	DB	04H
	DB	04H
	DB	08H
	DB	08H
	DB	04H
	DB	04H
	DB	08H
	DB	08H
	DB	04H
	DB	04H
	DB	08H
	DB	08H
	DB	04H
	DB	04H
	DB	05H
	DB	08H
	DB	04H
	DB	04H
	DB	05H
	DB	08H
	DB	03H
	DB	04H
	DB	05H
	DB	08H
	DB	03H
	DB	04H
	DB	05H
	DB	08H
	DB	03H
	DB	04H
	DB	05H
	DB	08H
	DB	03H
	DB	04H
	DB	026H
	DB	08H
	DB	03H
	DB	04H
	DB	026H
	DB	08H
	DB	03H
	DB	04H
	DB	026H
	DB	08H
	DB	03H
	DB	04H
	DB	044H
	DB	08H
	DB	044H
	DB	04H
	DB	044H
	DB	08H
	DB	026H
	DB	04H
	DB	03H
	DB	08H
	DB	026H
	DB	04H
	DB	03H
	DB	08H
	DB	026H
	DB	04H
	DB	03H
	DB	08H
	DB	026H
	DB	04H
	DB	03H
	DB	08H
	DB	05H
	DB	04H
	DB	03H
	DB	08H
	DB	05H
	DB	04H
	DB	03H
	DB	08H
	DB	05H
	DB	04H
	DB	04H
	DB	08H
	DB	05H
	DB	04H
	DB	04H
	DB	08H
	DB	01aH
	DB	02H
	DB	044H
	DB	0dH
	DB	0dH
	DB	03H
	DB	02H
	DB	02H
	DB	02H
	DB	02H
	DB	02H
	DB	02H
	DB	02H
	DB	02H
	DB	02H
	DB	02H
	DB	05H
	DB	0eH
	DB	071H
	DB	01H
	DB	0deH
	DB	0aeH
	DB	0aeH
	DB	021H
	DB	014H
	DB	014H
	DB	014H
	DB	014H
	DB	021H
	DB	03cH
	DB	07H
	DB	07H
	DB	03eH
	DB	0bH
	DB	027H
	DB	0bH
	DB	02H
	DB	010H
	DB	013H
	DB	0cH
	DB	0bH
	DB	017H
	DB	017H
	DB	02H
	DB	01aH
	DB	010H
	DB	034H
	DB	0cH
	DB	0bH
	DB	02H
	DB	020H
	DB	07H
	DB	07H
	DB	07H
	DB	019H
	DB	029H
	DB	0dcH
	DB	0dcH
	DB	0dcH
	DB	014H
	DB	0aH
	DB	0aH
	DB	0aH
	DB	0aH
	DB	052H
	DB	0eH
	DB	0eH
	DB	01aH
	DB	02H
	DB	02H
	DB	02H
	DB	02H
	DB	02H
	DB	02H
	DB	02H
	DB	02H
	DB	02H
	DB	02H
	DB	033H
	DB	0dH
	DB	033H
	DB	01aH
	DB	02H
	DB	03H
	DB	03H
	DB	04H
	DB	03H
	DB	026H
	DB	03H
	DB	04H
	DB	03H
	DB	026H
	DB	03H
	DB	04H
	DB	03H
	DB	026H
	DB	03H
	DB	04H
	DB	03H
	DB	026H
	DB	03H
	DB	04H
	DB	03H
	DB	026H
	DB	03H
	DB	04H
	DB	03H
	DB	026H
	DB	03H
	DB	04H
	DB	03H
	DB	026H
	DB	03H
	DB	04H
	DB	04H
	DB	026H
	DB	03H
	DB	04H
	DB	04H
	DB	026H
	DB	03H
	DB	04H
	DB	04H
	DB	026H
	DB	044H
	DB	04H
	DB	04H
	DB	026H
	DB	044H
	DB	04H
	DB	04H
	DB	026H
	DB	044H
	DB	04H
	DB	04H
	DB	026H
	DB	026H
	DB	04H
	DB	04H
	DB	026H
	DB	026H
	DB	04H
	DB	04H
	DB	026H
	DB	026H
	DB	04H
	DB	04H
	DB	026H
	DB	026H
	DB	04H
	DB	04H
	DB	044H
	DB	026H
	DB	04H
	DB	04H
	DB	044H
	DB	026H
	DB	04H
	DB	04H
	DB	044H
	DB	026H
	DB	04H
	DB	04H
	DB	03H
	DB	026H
	DB	04H
	DB	04H
	DB	03H
	DB	026H
	DB	04H
	DB	04H
	DB	03H
	DB	026H
	DB	03H
	DB	04H
	DB	03H
	DB	026H
	DB	03H
	DB	04H
	DB	03H
	DB	026H
	DB	03H
	DB	04H
	DB	03H
	DB	026H
	DB	03H
	DB	04H
	DB	03H
	DB	026H
	DB	03H
	DB	04H
	DB	03H
	DB	026H
	DB	03H
	DB	04H
	DB	03H
	DB	026H
	DB	03H
	DB	04H
	DB	03H
	DB	026H
	DB	03H
	DB	04H
	DB	03H
	DB	026H
	DB	03H
	DB	04H
	DB	03H
	DB	026H
	DB	03H
	DB	04H
	DB	03H
	DB	026H
	DB	03H
	DB	04H
	DB	04H
	DB	026H
	DB	03H
	DB	04H
	DB	04H
	DB	026H
	DB	03H
	DB	04H
	DB	04H
	DB	026H
	DB	044H
	DB	04H
	DB	04H
	DB	026H
	DB	03H
	DB	02H
	DB	01aH
	DB	033H
	DB	0dH
	DB	036H
	DB	01aH
	DB	02H
	DB	02H
	DB	02H
	DB	02H
	DB	02H
	DB	02H
	DB	02H
	DB	02H
	DB	02H
	DB	02H
	DB	0b6H
	DB	0eH
	DB	0a7H
	DB	0aeH
	DB	0aeH
	DB	0aeH
	DB	021H
	DB	09fH
	DB	014H
	DB	014H
	DB	014H
	DB	014H
	DB	025H
	DB	07H
	DB	07H
	DB	07H
	DB	0cH
	DB	0bH
	DB	01aH
	DB	01aH
	DB	010H
	DB	01bH
	DB	0bH
	DB	015H
	DB	017H
	DB	02H
	DB	02H
	DB	041H
	DB	045H
	DB	096H
	DB	075H
	DB	0cH
	DB	017H
	DB	053H
	DB	07H
	DB	07H
	DB	07H
	DB	0dbH
	DB	0dcH
	DB	0dcH
	DB	0dcH
	DB	0e0H
	DB	011H
	DB	0aH
	DB	0aH
	DB	0aH
	DB	088H
	DB	046H
	DB	0eH
	DB	05H
	DB	02H
	DB	02H
	DB	02H
	DB	02H
	DB	02H
	DB	02H
	DB	02H
	DB	02H
	DB	02H
	DB	02H
	DB	044H
	DB	0dH
	DB	0dH
	DB	03H
	DB	02H
	DB	06H
	DB	04H
	DB	026H
	DB	08H
	DB	03H
	DB	04H
	DB	026H
	DB	08H
	DB	044H
	DB	04H
	DB	044H
	DB	08H
	DB	044H
	DB	04H
	DB	044H
	DB	08H
	DB	026H
	DB	04H
	DB	03H
	DB	08H
	DB	026H
	DB	04H
	DB	03H
	DB	08H
	DB	026H
	DB	04H
	DB	03H
	DB	08H
	DB	05H
	DB	04H
	DB	03H
	DB	08H
	DB	05H
	DB	04H
	DB	03H
	DB	08H
	DB	05H
	DB	04H
	DB	03H
	DB	08H
	DB	05H
	DB	04H
	DB	04H
	DB	08H
	DB	05H
	DB	04H
	DB	04H
	DB	08H
	DB	08H
	DB	04H
	DB	04H
	DB	08H
	DB	08H
	DB	04H
	DB	04H
	DB	08H
	DB	08H
	DB	04H
	DB	04H
	DB	08H
	DB	08H
	DB	04H
	DB	04H
	DB	08H
	DB	08H
	DB	04H
	DB	04H
	DB	08H
	DB	08H
	DB	04H
	DB	04H
	DB	08H
	DB	08H
	DB	04H
	DB	04H
	DB	05H
	DB	08H
	DB	04H
	DB	04H
	DB	05H
	DB	08H
	DB	04H
	DB	04H
	DB	05H
	DB	08H
	DB	03H
	DB	04H
	DB	05H
	DB	08H
	DB	03H
	DB	04H
	DB	05H
	DB	08H
	DB	03H
	DB	04H
	DB	05H
	DB	08H
	DB	03H
	DB	04H
	DB	026H
	DB	08H
	DB	03H
	DB	04H
	DB	026H
	DB	08H
	DB	03H
	DB	04H
	DB	026H
	DB	08H
	DB	044H
	DB	04H
	DB	044H
	DB	08H
	DB	044H
	DB	04H
	DB	044H
	DB	08H
	DB	026H
	DB	04H
	DB	03H
	DB	08H
	DB	026H
	DB	04H
	DB	03H
	DB	08H
	DB	026H
	DB	04H
	DB	03H
	DB	08H
	DB	05H
	DB	04H
	DB	03H
	DB	08H
	DB	05H
	DB	04H
	DB	03H
	DB	08H
	DB	05H
	DB	04H
	DB	03H
	DB	08H
	DB	05H
	DB	04H
	DB	04H
	DB	08H
	DB	05H
	DB	04H
	DB	04H
	DB	06H
	DB	02H
	DB	04H
	DB	0dH
	DB	0dH
	DB	05H
	DB	02H
	DB	02H
	DB	02H
	DB	02H
	DB	02H
	DB	02H
	DB	02H
	DB	02H
	DB	02H
	DB	02H
	DB	026H
	DB	0eH
	DB	071H
	DB	01H
	DB	0aeH
	DB	0aeH
	DB	0aeH
	DB	021H
	DB	014H
	DB	014H
	DB	014H
	DB	014H
	DB	023H
	DB	07H
	DB	07H
	DB	07H
	DB	01fH
	DB	010H
	DB	010H
	DB	01bH
	DB	0bH
	DB	04bH
	DB	010H
	DB	02H
	DB	017H
	DB	02H
	DB	02H
	DB	013H
	DB	038H
	DB	057H
	DB	057H
	DB	01fH
	DB	01dH
	DB	07H
	DB	07H
	DB	07H
	DB	012H
	DB	029H
	DB	0dcH
	DB	029H
	DB	0dcH
	DB	09fH
	DB	0aH
	DB	0aH
	DB	0aH
	DB	0aH
	DB	062H
	DB	0eH
	DB	0eH
	DB	01aH
	DB	02H
	DB	02H
	DB	02H
	DB	02H
	DB	02H
	DB	02H
	DB	02H
	DB	02H
	DB	02H
	DB	01aH
	DB	036H
	DB	0dH
	DB	02cH
	DB	02H
	DB	02H
	DB	04H
	DB	04H
	DB	03H
	DB	026H
	DB	03H
	DB	04H
	DB	03H
	DB	026H
	DB	03H
	DB	04H
	DB	03H
	DB	026H
	DB	03H
	DB	04H
	DB	03H
	DB	026H
	DB	03H
	DB	04H
	DB	03H
	DB	026H
	DB	03H
	DB	04H
	DB	03H
	DB	026H
	DB	03H
	DB	04H
	DB	03H
	DB	026H
	DB	03H
	DB	04H
	DB	04H
	DB	026H
	DB	03H
	DB	04H
	DB	04H
	DB	026H
	DB	03H
	DB	04H
	DB	04H
	DB	026H
	DB	03H
	DB	04H
	DB	04H
	DB	026H
	DB	044H
	DB	04H
	DB	04H
	DB	026H
	DB	044H
	DB	04H
	DB	04H
	DB	026H
	DB	044H
	DB	04H
	DB	04H
	DB	026H
	DB	026H
	DB	04H
	DB	04H
	DB	026H
	DB	026H
	DB	04H
	DB	04H
	DB	026H
	DB	026H
	DB	04H
	DB	04H
	DB	026H
	DB	026H
	DB	04H
	DB	04H
	DB	044H
	DB	026H
	DB	04H
	DB	04H
	DB	044H
	DB	026H
	DB	04H
	DB	04H
	DB	044H
	DB	026H
	DB	04H
	DB	04H
	DB	03H
	DB	026H
	DB	04H
	DB	04H
	DB	03H
	DB	026H
	DB	04H
	DB	04H
	DB	03H
	DB	026H
	DB	04H
	DB	04H
	DB	03H
	DB	026H
	DB	03H
	DB	04H
	DB	03H
	DB	026H
	DB	03H
	DB	04H
	DB	03H
	DB	026H
	DB	03H
	DB	04H
	DB	03H
	DB	026H
	DB	03H
	DB	04H
	DB	03H
	DB	026H
	DB	03H
	DB	04H
	DB	03H
	DB	026H
	DB	03H
	DB	04H
	DB	03H
	DB	026H
	DB	03H
	DB	04H
	DB	03H
	DB	026H
	DB	03H
	DB	04H
	DB	03H
	DB	026H
	DB	03H
	DB	04H
	DB	04H
	DB	026H
	DB	03H
	DB	04H
	DB	04H
	DB	026H
	DB	03H
	DB	04H
	DB	04H
	DB	026H
	DB	03H
	DB	04H
	DB	04H
	DB	026H
	DB	044H
	DB	04H
	DB	04H
	DB	03H
	DB	02H
	DB	02H
	DB	08H
	DB	0dH
	DB	0dH
	DB	01aH
	DB	02H
	DB	02H
	DB	02H
	DB	02H
	DB	02H
	DB	02H
	DB	02H
	DB	02H
	DB	02H
	DB	01aH
	DB	0eH
	DB	0eH
	DB	0d8H
	DB	0aeH
	DB	0aeH
	DB	0aeH
	DB	021H
	DB	09fH
	DB	014H
	DB	014H
	DB	014H
	DB	014H
	DB	051H
	DB	07H
	DB	07H
	DB	07H
	DB	015H
	DB	01bH
	DB	0bH
	DB	010H
	DB	04bH
	DB	04bH
	DB	010H
	DB	017H
	DB	027H
	DB	02H
	DB	017H
	DB	01dH
	DB	038H
	DB	038H
	DB	01fH
	DB	03eH
	DB	07H
	DB	07H
	DB	07H
	DB	0baH
	DB	029H
	DB	029H
	DB	029H
	DB	023H
	DB	095H
	DB	0aH
	DB	0aH
	DB	0aH
	DB	088H
	DB	049H
	DB	0eH
	DB	08H
	DB	02H
	DB	02H
	DB	02H
	DB	02H
	DB	02H
	DB	02H
	DB	02H
	DB	02H
	DB	02H
	DB	02H
	DB	05H
	DB	0dH
	DB	0dH
	DB	04H
	DB	02H
	DB	06H
	DB	026H
	DB	08H
	DB	03H
	DB	04H
	DB	026H
	DB	08H
	DB	044H
	DB	04H
	DB	026H
	DB	08H
	DB	044H
	DB	04H
	DB	044H
	DB	08H
	DB	026H
	DB	04H
	DB	03H
	DB	08H
	DB	026H
	DB	04H
	DB	03H
	DB	08H
	DB	026H
	DB	04H
	DB	03H
	DB	08H
	DB	05H
	DB	04H
	DB	03H
	DB	08H
	DB	05H
	DB	04H
	DB	03H
	DB	08H
	DB	05H
	DB	04H
	DB	03H
	DB	08H
	DB	05H
	DB	04H
	DB	03H
	DB	08H
	DB	05H
	DB	04H
	DB	04H
	DB	08H
	DB	05H
	DB	04H
	DB	04H
	DB	08H
	DB	08H
	DB	04H
	DB	04H
	DB	08H
	DB	08H
	DB	04H
	DB	04H
	DB	08H
	DB	08H
	DB	04H
	DB	04H
	DB	08H
	DB	08H
	DB	04H
	DB	04H
	DB	08H
	DB	08H
	DB	04H
	DB	04H
	DB	08H
	DB	08H
	DB	04H
	DB	04H
	DB	08H
	DB	08H
	DB	04H
	DB	04H
	DB	05H
	DB	08H
	DB	04H
	DB	04H
	DB	05H
	DB	08H
	DB	03H
	DB	04H
	DB	05H
	DB	08H
	DB	03H
	DB	04H
	DB	05H
	DB	08H
	DB	03H
	DB	04H
	DB	05H
	DB	08H
	DB	03H
	DB	04H
	DB	026H
	DB	08H
	DB	03H
	DB	04H
	DB	026H
	DB	08H
	DB	03H
	DB	04H
	DB	026H
	DB	08H
	DB	044H
	DB	04H
	DB	026H
	DB	08H
	DB	044H
	DB	04H
	DB	044H
	DB	08H
	DB	026H
	DB	04H
	DB	03H
	DB	08H
	DB	026H
	DB	04H
	DB	03H
	DB	08H
	DB	026H
	DB	04H
	DB	03H
	DB	08H
	DB	05H
	DB	04H
	DB	03H
	DB	08H
	DB	05H
	DB	04H
	DB	03H
	DB	08H
	DB	05H
	DB	04H
	DB	03H
	DB	08H
	DB	05H
	DB	04H
	DB	03H
	DB	08H
	DB	05H
	DB	04H
	DB	04H
	DB	08H
	DB	05H
	DB	04H
	DB	06H
	DB	02H
	DB	04H
	DB	0dH
	DB	0dH
	DB	08H
	DB	02H
	DB	02H
	DB	02H
	DB	02H
	DB	02H
	DB	02H
	DB	02H
	DB	02H
	DB	02H
	DB	02H
	DB	08H
	DB	0eH
	DB	046H
	DB	023H
	DB	0e0H
	DB	0e0H
	DB	0aeH
	DB	021H
	DB	014H
	DB	014H
	DB	014H
	DB	014H
	DB	016H
	DB	07H
	DB	07H
	DB	07H
	DB	022H
	DB	0bH
	DB	010H
	DB	010H
	DB	04dH
	DB	0c1H
	DB	010H
	DB	010H
	DB	03dH
	DB	013H
	DB	01aH
	DB	027H
	DB	022H
	DB	04eH
	DB	07cH
	DB	07H
	DB	07H
	DB	07H
	DB	07H
	DB	0abH
	DB	029H
	DB	029H
	DB	029H
	DB	021H
	DB	0a1H
	DB	0aH
	DB	0aH
	DB	0aH
	DB	063H
	DB	0eH
	DB	0eH
	DB	06H
	DB	02H
	DB	02H
	DB	02H
	DB	02H
	DB	02H
	DB	02H
	DB	02H
	DB	02H
	DB	02H
	DB	01aH
	DB	036H
	DB	0dH
	DB	08H
	DB	02H
	DB	02H
	DB	04H
	DB	03H
	DB	026H
	DB	03H
	DB	04H
	DB	03H
	DB	026H
	DB	03H
	DB	04H
	DB	03H
	DB	026H
	DB	03H
	DB	04H
	DB	03H
	DB	026H
	DB	03H
	DB	04H
	DB	03H
	DB	026H
	DB	03H
	DB	04H
	DB	03H
	DB	026H
	DB	03H
	DB	04H
	DB	03H
	DB	026H
	DB	03H
	DB	04H
	DB	04H
	DB	026H
	DB	03H
	DB	04H
	DB	04H
	DB	026H
	DB	03H
	DB	04H
	DB	04H
	DB	026H
	DB	03H
	DB	04H
	DB	04H
	DB	026H
	DB	044H
	DB	04H
	DB	04H
	DB	026H
	DB	044H
	DB	04H
	DB	04H
	DB	026H
	DB	044H
	DB	04H
	DB	04H
	DB	026H
	DB	026H
	DB	04H
	DB	04H
	DB	026H
	DB	026H
	DB	04H
	DB	04H
	DB	026H
	DB	026H
	DB	04H
	DB	04H
	DB	026H
	DB	026H
	DB	04H
	DB	04H
	DB	026H
	DB	026H
	DB	04H
	DB	04H
	DB	044H
	DB	026H
	DB	04H
	DB	04H
	DB	044H
	DB	026H
	DB	04H
	DB	04H
	DB	044H
	DB	026H
	DB	04H
	DB	04H
	DB	03H
	DB	026H
	DB	04H
	DB	04H
	DB	03H
	DB	026H
	DB	04H
	DB	04H
	DB	03H
	DB	026H
	DB	04H
	DB	04H
	DB	03H
	DB	026H
	DB	03H
	DB	04H
	DB	03H
	DB	026H
	DB	03H
	DB	04H
	DB	03H
	DB	026H
	DB	03H
	DB	04H
	DB	03H
	DB	026H
	DB	03H
	DB	04H
	DB	03H
	DB	026H
	DB	03H
	DB	04H
	DB	03H
	DB	026H
	DB	03H
	DB	04H
	DB	03H
	DB	026H
	DB	03H
	DB	04H
	DB	03H
	DB	026H
	DB	03H
	DB	04H
	DB	04H
	DB	026H
	DB	03H
	DB	04H
	DB	04H
	DB	026H
	DB	03H
	DB	04H
	DB	04H
	DB	026H
	DB	03H
	DB	04H
	DB	04H
	DB	026H
	DB	044H
	DB	04H
	DB	04H
	DB	026H
	DB	044H
	DB	04H
	DB	04H
	DB	01aH
	DB	02H
	DB	08H
	DB	0dH
	DB	0dH
	DB	06H
	DB	02H
	DB	02H
	DB	02H
	DB	02H
	DB	02H
	DB	02H
	DB	02H
	DB	02H
	DB	02H
	DB	01aH
	DB	0eH
	DB	0eH
	DB	073H
	DB	0e0H
	DB	0e0H
	DB	0e0H
	DB	0deH
	DB	09fH
	DB	014H
	DB	014H
	DB	014H
	DB	09fH
	DB	03cH
	DB	07H
	DB	07H
	DB	03eH
	DB	017H
	DB	010H
	DB	04bH
	DB	04eH
	DB	04bH
	DB	017H
	DB	0bH
	DB	054H
	DB	054H
	DB	034H
	DB	047H
	DB	056H
	DB	02aH
	DB	02aH
	DB	07H
	DB	07H
	DB	07H
	DB	019H
	DB	029H
	DB	029H
	DB	029H
	DB	0dcH
	DB	014H
	DB	0aH
	DB	0aH
	DB	0aH
	DB	0aH
	DB	08eH
	DB	0eH
	DB	02cH
	DB	02H
	DB	02H
	DB	02H
	DB	02H
	DB	02H
	DB	02H
	DB	02H
	DB	02H
	DB	02H
	DB	02H
	DB	05H
	DB	0dH
	DB	0dH
	DB	04H
	DB	02H
	DB	04H
	DB	08H
	DB	03H
	DB	04H
	DB	026H
	DB	08H
	DB	03H
	DB	04H
	DB	026H
	DB	08H
	DB	044H
	DB	04H
	DB	044H
	DB	08H
	DB	026H
	DB	04H
	DB	044H
	DB	08H
	DB	026H
	DB	04H
	DB	03H
	DB	08H
	DB	026H
	DB	04H
	DB	03H
	DB	08H
	DB	05H
	DB	04H
	DB	03H
	DB	08H
	DB	05H
	DB	04H
	DB	03H
	DB	08H
	DB	05H
	DB	04H
	DB	03H
	DB	08H
	DB	05H
	DB	04H
	DB	03H
	DB	08H
	DB	05H
	DB	04H
	DB	03H
	DB	08H
	DB	05H
	DB	04H
	DB	04H
	DB	08H
	DB	08H
	DB	04H
	DB	04H
	DB	08H
	DB	08H
	DB	04H
	DB	04H
	DB	08H
	DB	08H
	DB	04H
	DB	04H
	DB	08H
	DB	08H
	DB	04H
	DB	04H
	DB	08H
	DB	08H
	DB	04H
	DB	04H
	DB	08H
	DB	08H
	DB	04H
	DB	04H
	DB	08H
	DB	08H
	DB	04H
	DB	04H
	DB	08H
	DB	08H
	DB	04H
	DB	04H
	DB	05H
	DB	08H
	DB	03H
	DB	04H
	DB	05H
	DB	08H
	DB	03H
	DB	04H
	DB	05H
	DB	08H
	DB	03H
	DB	04H
	DB	05H
	DB	08H
	DB	03H
	DB	04H
	DB	05H
	DB	08H
	DB	03H
	DB	04H
	DB	026H
	DB	08H
	DB	03H
	DB	04H
	DB	026H
	DB	08H
	DB	03H
	DB	04H
	DB	026H
	DB	08H
	DB	044H
	DB	04H
	DB	044H
	DB	08H
	DB	026H
	DB	04H
	DB	044H
	DB	08H
	DB	026H
	DB	04H
	DB	03H
	DB	08H
	DB	026H
	DB	04H
	DB	03H
	DB	08H
	DB	05H
	DB	04H
	DB	03H
	DB	08H
	DB	05H
	DB	04H
	DB	03H
	DB	08H
	DB	05H
	DB	04H
	DB	03H
	DB	08H
	DB	05H
	DB	04H
	DB	03H
	DB	08H
	DB	05H
	DB	04H
	DB	03H
	DB	08H
	DB	05H
	DB	04H
	DB	04H
	DB	08H
	DB	08H
	DB	06H
	DB	02H
	DB	04H
	DB	0dH
	DB	0dH
	DB	08H
	DB	02H
	DB	02H
	DB	02H
	DB	02H
	DB	02H
	DB	02H
	DB	02H
	DB	02H
	DB	02H
	DB	02H
	DB	08H
	DB	0eH
	DB	049H
	DB	0e0H
	DB	0e0H
	DB	0e0H
	DB	0aeH
	DB	021H
	DB	014H
	DB	014H
	DB	014H
	DB	014H
	DB	0baH
	DB	07H
	DB	07H
	DB	07H
	DB	0bH
	DB	010H
	DB	01bH
	DB	04aH
	DB	013H
	DB	01bH
	DB	013H
	DB	04bH
	DB	018H
	DB	047H
	DB	042H
	DB	06bH
	DB	07cH
	DB	01fH
	DB	07H
	DB	07H
	DB	07H
	DB	02bH
	DB	029H
	DB	029H
	DB	029H
	DB	023H
	DB	011H
	DB	0aH
	DB	0aH
	DB	0aH
	DB	064H
	DB	046H
	DB	0eH
	DB	04H
	DB	02H
	DB	02H
	DB	02H
	DB	02H
	DB	02H
	DB	02H
	DB	02H
	DB	02H
	DB	02H
	DB	01aH
	DB	036H
	DB	0dH
	DB	08H
	DB	02H
	DB	02H
	DB	03H
	DB	026H
	DB	03H
	DB	04H
	DB	03H
	DB	026H
	DB	03H
	DB	04H
	DB	03H
	DB	026H
	DB	03H
	DB	04H
	DB	03H
	DB	026H
	DB	03H
	DB	04H
	DB	03H
	DB	026H
	DB	03H
	DB	04H
	DB	03H
	DB	026H
	DB	03H
	DB	04H
	DB	03H
	DB	026H
	DB	03H
	DB	04H
	DB	04H
	DB	026H
	DB	03H
	DB	04H
	DB	04H
	DB	026H
	DB	03H
	DB	04H
	DB	04H
	DB	026H
	DB	03H
	DB	04H
	DB	04H
	DB	026H
	DB	044H
	DB	04H
	DB	04H
	DB	026H
	DB	044H
	DB	04H
	DB	04H
	DB	026H
	DB	044H
	DB	04H
	DB	04H
	DB	026H
	DB	026H
	DB	04H
	DB	04H
	DB	026H
	DB	026H
	DB	04H
	DB	04H
	DB	026H
	DB	026H
	DB	04H
	DB	04H
	DB	026H
	DB	026H
	DB	04H
	DB	04H
	DB	026H
	DB	026H
	DB	04H
	DB	04H
	DB	026H
	DB	026H
	DB	04H
	DB	04H
	DB	044H
	DB	026H
	DB	04H
	DB	04H
	DB	044H
	DB	026H
	DB	04H
	DB	04H
	DB	03H
	DB	026H
	DB	04H
	DB	04H
	DB	03H
	DB	026H
	DB	04H
	DB	04H
	DB	03H
	DB	026H
	DB	04H
	DB	04H
	DB	03H
	DB	026H
	DB	04H
	DB	04H
	DB	03H
	DB	026H
	DB	03H
	DB	04H
	DB	03H
	DB	026H
	DB	03H
	DB	04H
	DB	03H
	DB	026H
	DB	03H
	DB	04H
	DB	03H
	DB	026H
	DB	03H
	DB	04H
	DB	03H
	DB	026H
	DB	03H
	DB	04H
	DB	03H
	DB	026H
	DB	03H
	DB	04H
	DB	03H
	DB	026H
	DB	03H
	DB	04H
	DB	04H
	DB	026H
	DB	03H
	DB	04H
	DB	04H
	DB	026H
	DB	03H
	DB	04H
	DB	04H
	DB	026H
	DB	03H
	DB	04H
	DB	04H
	DB	026H
	DB	044H
	DB	04H
	DB	04H
	DB	026H
	DB	044H
	DB	04H
	DB	04H
	DB	026H
	DB	044H
	DB	04H
	DB	02H
	DB	02H
	DB	08H
	DB	0dH
	DB	0dH
	DB	01aH
	DB	02H
	DB	02H
	DB	02H
	DB	02H
	DB	02H
	DB	02H
	DB	02H
	DB	02H
	DB	02H
	DB	06H
	DB	0eH
	DB	071H
	DB	09dH
	DB	0e0H
	DB	0e0H
	DB	0e0H
	DB	021H
	DB	09fH
	DB	014H
	DB	014H
	DB	014H
	DB	0ffH
	DB	07H
	DB	07H
	DB	07H
	DB	030H
	DB	017H
	DB	010H
	DB	013H
	DB	04aH
	DB	01bH
	DB	0cH
	DB	04bH
	DB	04aH
	DB	0ccH
	DB	077H
	DB	08aH
	DB	058H
	DB	07H
	DB	07H
	DB	07H
	DB	03cH
	DB	09eH
	DB	029H
	DB	029H
	DB	029H
	DB	09fH
	DB	0aH
	DB	0aH
	DB	0aH
	DB	0aH
	DB	092H
	DB	0eH
	DB	0b6H
	DB	02H
	DB	02H
	DB	02H
	DB	02H
	DB	02H
	DB	02H
	DB	02H
	DB	02H
	DB	02H
	DB	02H
	DB	026H
	DB	0dH
	DB	0dH
	DB	04H
	DB	02H
	DB	03H
	DB	03H
	DB	04H
	DB	026H
	DB	08H
	DB	03H
	DB	04H
	DB	026H
	DB	08H
	DB	044H
	DB	04H
	DB	026H
	DB	08H
	DB	026H
	DB	04H
	DB	044H
	DB	08H
	DB	026H
	DB	04H
	DB	044H
	DB	08H
	DB	026H
	DB	04H
	DB	03H
	DB	08H
	DB	026H
	DB	04H
	DB	03H
	DB	08H
	DB	05H
	DB	04H
	DB	03H
	DB	08H
	DB	05H
	DB	04H
	DB	03H
	DB	08H
	DB	05H
	DB	04H
	DB	03H
	DB	08H
	DB	05H
	DB	04H
	DB	03H
	DB	08H
	DB	05H
	DB	04H
	DB	04H
	DB	08H
	DB	08H
	DB	04H
	DB	04H
	DB	08H
	DB	08H
	DB	04H
	DB	04H
	DB	08H
	DB	08H
	DB	04H
	DB	04H
	DB	08H
	DB	08H
	DB	04H
	DB	04H
	DB	08H
	DB	08H
	DB	04H
	DB	04H
	DB	08H
	DB	08H
	DB	04H
	DB	04H
	DB	08H
	DB	08H
	DB	04H
	DB	04H
	DB	08H
	DB	08H
	DB	04H
	DB	04H
	DB	05H
	DB	08H
	DB	03H
	DB	04H
	DB	05H
	DB	08H
	DB	03H
	DB	04H
	DB	05H
	DB	08H
	DB	03H
	DB	04H
	DB	05H
	DB	08H
	DB	03H
	DB	04H
	DB	05H
	DB	08H
	DB	03H
	DB	04H
	DB	05H
	DB	08H
	DB	03H
	DB	04H
	DB	026H
	DB	08H
	DB	03H
	DB	04H
	DB	026H
	DB	08H
	DB	044H
	DB	04H
	DB	026H
	DB	08H
	DB	026H
	DB	04H
	DB	044H
	DB	08H
	DB	026H
	DB	04H
	DB	044H
	DB	08H
	DB	026H
	DB	04H
	DB	03H
	DB	08H
	DB	026H
	DB	04H
	DB	03H
	DB	08H
	DB	05H
	DB	04H
	DB	03H
	DB	08H
	DB	05H
	DB	04H
	DB	03H
	DB	08H
	DB	05H
	DB	04H
	DB	03H
	DB	08H
	DB	05H
	DB	04H
	DB	03H
	DB	08H
	DB	05H
	DB	04H
	DB	04H
	DB	08H
	DB	08H
	DB	04H
	DB	04H
	DB	08H
	DB	03H
	DB	02H
	DB	04H
	DB	0dH
	DB	0dH
	DB	05H
	DB	02H
	DB	02H
	DB	02H
	DB	02H
	DB	02H
	DB	02H
	DB	02H
	DB	02H
	DB	02H
	DB	02H
	DB	0b6H
	DB	0eH
	DB	08fH
	DB	0e0H
	DB	023H
	DB	023H
	DB	0aeH
	DB	021H
	DB	014H
	DB	014H
	DB	014H
	DB	09fH
	DB	012H
	DB	07H
	DB	07H
	DB	0cfH
	DB	017H
	DB	01bH
	DB	010H
	DB	017H
	DB	01bH
	DB	0cH
	DB	03fH
	DB	01bH
	DB	01eH
	DB	031H
	DB	042H
	DB	0b2H
	DB	07H
	DB	07H
	DB	07H
	DB	081H
	DB	029H
	DB	029H
	DB	029H
	DB	0dcH
	DB	014H
	DB	0aH
	DB	0aH
	DB	0aH
	DB	04fH
	DB	049H
	DB	0eH
	DB	05H
	DB	02H
	DB	02H
	DB	02H
	DB	02H
	DB	02H
	DB	02H
	DB	02H
	DB	02H
	DB	02H
	DB	02H
	DB	033H
	DB	0dH
	DB	02cH
	DB	02H
	DB	02H
	DB	026H
	DB	04H
	DB	04H
	DB	03H
	DB	026H
	DB	03H
	DB	04H
	DB	03H
	DB	026H
	DB	03H
	DB	04H
	DB	03H
	DB	026H
	DB	03H
	DB	04H
	DB	03H
	DB	026H
	DB	03H
	DB	04H
	DB	03H
	DB	026H
	DB	03H
	DB	04H
	DB	03H
	DB	026H
	DB	03H
	DB	04H
	DB	04H
	DB	026H
	DB	03H
	DB	04H
	DB	04H
	DB	026H
	DB	03H
	DB	04H
	DB	04H
	DB	026H
	DB	03H
	DB	04H
	DB	04H
	DB	026H
	DB	03H
	DB	04H
	DB	04H
	DB	026H
	DB	044H
	DB	04H
	DB	04H
	DB	026H
	DB	044H
	DB	04H
	DB	04H
	DB	026H
	DB	026H
	DB	04H
	DB	04H
	DB	026H
	DB	026H
	DB	04H
	DB	04H
	DB	026H
	DB	026H
	DB	04H
	DB	04H
	DB	026H
	DB	026H
	DB	04H
	DB	04H
	DB	026H
	DB	026H
	DB	04H
	DB	04H
	DB	026H
	DB	026H
	DB	04H
	DB	04H
	DB	044H
	DB	026H
	DB	04H
	DB	04H
	DB	044H
	DB	026H
	DB	04H
	DB	04H
	DB	044H
	DB	026H
	DB	04H
	DB	04H
	DB	03H
	DB	026H
	DB	04H
	DB	04H
	DB	03H
	DB	026H
	DB	04H
	DB	04H
	DB	03H
	DB	026H
	DB	04H
	DB	04H
	DB	03H
	DB	026H
	DB	04H
	DB	04H
	DB	03H
	DB	026H
	DB	03H
	DB	04H
	DB	03H
	DB	026H
	DB	03H
	DB	04H
	DB	03H
	DB	026H
	DB	03H
	DB	04H
	DB	03H
	DB	026H
	DB	03H
	DB	04H
	DB	03H
	DB	026H
	DB	03H
	DB	04H
	DB	03H
	DB	026H
	DB	03H
	DB	04H
	DB	04H
	DB	026H
	DB	03H
	DB	04H
	DB	04H
	DB	026H
	DB	03H
	DB	04H
	DB	04H
	DB	026H
	DB	03H
	DB	04H
	DB	04H
	DB	026H
	DB	03H
	DB	04H
	DB	04H
	DB	026H
	DB	044H
	DB	04H
	DB	04H
	DB	026H
	DB	044H
	DB	04H
	DB	04H
	DB	026H
	DB	044H
	DB	02H
	DB	02H
	DB	08H
	DB	0dH
	DB	036H
	DB	01aH
	DB	02H
	DB	02H
	DB	02H
	DB	02H
	DB	02H
	DB	02H
	DB	02H
	DB	02H
	DB	02H
	DB	026H
	DB	0eH
	DB	0d7H
	DB	0bdH
	DB	023H
	DB	023H
	DB	023H
	DB	021H
	DB	09fH
	DB	014H
	DB	014H
	DB	014H
	DB	093H
	DB	07H
	DB	07H
	DB	07H
	DB	01cH
	DB	017H
	DB	02H
	DB	017H
	DB	017H
	DB	01bH
	DB	0fH
	DB	02H
	DB	0bH
	DB	01dH
	DB	02aH
	DB	066H
	DB	07H
	DB	07H
	DB	07H
	DB	02bH
	DB	09eH
	DB	029H
	DB	029H
	DB	0e0H
	DB	011H
	DB	0aH
	DB	0aH
	DB	0aH
	DB	063H
	DB	071H
	DB	0eH
	DB	01aH
	DB	02H
	DB	02H
	DB	02H
	DB	02H
	DB	02H
	DB	02H
	DB	02H
	DB	02H
	DB	02H
	DB	03H
	DB	0dH
	DB	0dH
	DB	04H
	DB	02H
	DB	06H
	DB	04H
	DB	05H
	DB	08H
	DB	03H
	DB	04H
	DB	026H
	DB	08H
	DB	044H
	DB	04H
	DB	026H
	DB	08H
	DB	044H
	DB	04H
	DB	026H
	DB	08H
	DB	026H
	DB	04H
	DB	044H
	DB	08H
	DB	026H
	DB	04H
	DB	044H
	DB	08H
	DB	026H
	DB	04H
	DB	03H
	DB	08H
	DB	05H
	DB	04H
	DB	03H
	DB	08H
	DB	05H
	DB	04H
	DB	03H
	DB	08H
	DB	05H
	DB	04H
	DB	03H
	DB	08H
	DB	05H
	DB	04H
	DB	03H
	DB	08H
	DB	05H
	DB	04H
	DB	03H
	DB	08H
	DB	05H
	DB	04H
	DB	04H
	DB	08H
	DB	08H
	DB	04H
	DB	04H
	DB	08H
	DB	08H
	DB	04H
	DB	04H
	DB	08H
	DB	08H
	DB	04H
	DB	04H
	DB	08H
	DB	08H
	DB	04H
	DB	04H
	DB	08H
	DB	08H
	DB	04H
	DB	04H
	DB	08H
	DB	08H
	DB	04H
	DB	04H
	DB	08H
	DB	08H
	DB	04H
	DB	04H
	DB	08H
	DB	08H
	DB	03H
	DB	04H
	DB	05H
	DB	08H
	DB	03H
	DB	04H
	DB	05H
	DB	08H
	DB	03H
	DB	04H
	DB	05H
	DB	08H
	DB	03H
	DB	04H
	DB	05H
	DB	08H
	DB	03H
	DB	04H
	DB	05H
	DB	08H
	DB	03H
	DB	04H
	DB	05H
	DB	08H
	DB	03H
	DB	04H
	DB	026H
	DB	08H
	DB	044H
	DB	04H
	DB	026H
	DB	08H
	DB	044H
	DB	04H
	DB	026H
	DB	08H
	DB	026H
	DB	04H
	DB	044H
	DB	08H
	DB	026H
	DB	04H
	DB	044H
	DB	08H
	DB	026H
	DB	04H
	DB	03H
	DB	08H
	DB	05H
	DB	04H
	DB	03H
	DB	08H
	DB	05H
	DB	04H
	DB	03H
	DB	08H
	DB	05H
	DB	04H
	DB	03H
	DB	08H
	DB	05H
	DB	04H
	DB	03H
	DB	08H
	DB	05H
	DB	04H
	DB	03H
	DB	08H
	DB	05H
	DB	04H
	DB	04H
	DB	08H
	DB	08H
	DB	04H
	DB	04H
	DB	04H
	DB	02H
	DB	04H
	DB	0dH
	DB	0dH
	DB	044H
	DB	02H
	DB	02H
	DB	02H
	DB	02H
	DB	02H
	DB	02H
	DB	02H
	DB	02H
	DB	02H
	DB	01aH
	DB	0eH
	DB	0eH
	DB	09bH
	DB	023H
	DB	023H
	DB	023H
	DB	0aeH
	DB	09fH
	DB	014H
	DB	014H
	DB	014H
	DB	0dcH
	DB	07H
	DB	07H
	DB	07H
	DB	040H
	DB	02H
	DB	02H
	DB	017H
	DB	017H
	DB	02H
	DB	01bH
	DB	02H
	DB	031H
	DB	03dH
	DB	04dH
	DB	07H
	DB	07H
	DB	07H
	DB	03cH
	DB	09eH
	DB	029H
	DB	09eH
	DB	029H
	DB	09fH
	DB	0aH
	DB	0aH
	DB	0aH
	DB	0aH
	DB	067H
	DB	0eH
	DB	02cH
	DB	02H
	DB	02H
	DB	02H
	DB	02H
	DB	02H
	DB	02H
	DB	02H
	DB	02H
	DB	02H
	DB	02H
	DB	02cH
	DB	0dH
	DB	033H
	DB	02H
	DB	02H
	DB	04H
	DB	04H
	DB	03H
	DB	026H
	DB	04H
	DB	04H
	DB	03H
	DB	026H
	DB	03H
	DB	04H
	DB	03H
	DB	026H
	DB	03H
	DB	04H
	DB	03H
	DB	026H
	DB	03H
	DB	04H
	DB	03H
	DB	026H
	DB	03H
	DB	04H
	DB	03H
	DB	026H
	DB	03H
	DB	04H
	DB	04H
	DB	026H
	DB	03H
	DB	04H
	DB	04H
	DB	026H
	DB	03H
	DB	04H
	DB	04H
	DB	026H
	DB	03H
	DB	04H
	DB	04H
	DB	026H
	DB	03H
	DB	04H
	DB	04H
	DB	026H
	DB	044H
	DB	04H
	DB	04H
	DB	026H
	DB	044H
	DB	04H
	DB	04H
	DB	026H
	DB	026H
	DB	04H
	DB	04H
	DB	026H
	DB	026H
	DB	04H
	DB	04H
	DB	026H
	DB	026H
	DB	04H
	DB	04H
	DB	026H
	DB	026H
	DB	04H
	DB	04H
	DB	026H
	DB	026H
	DB	04H
	DB	04H
	DB	026H
	DB	026H
	DB	04H
	DB	04H
	DB	026H
	DB	026H
	DB	04H
	DB	04H
	DB	044H
	DB	026H
	DB	04H
	DB	04H
	DB	044H
	DB	026H
	DB	04H
	DB	04H
	DB	03H
	DB	026H
	DB	04H
	DB	04H
	DB	03H
	DB	026H
	DB	04H
	DB	04H
	DB	03H
	DB	026H
	DB	04H
	DB	04H
	DB	03H
	DB	026H
	DB	04H
	DB	04H
	DB	03H
	DB	026H
	DB	04H
	DB	04H
	DB	03H
	DB	026H
	DB	03H
	DB	04H
	DB	03H
	DB	026H
	DB	03H
	DB	04H
	DB	03H
	DB	026H
	DB	03H
	DB	04H
	DB	03H
	DB	026H
	DB	03H
	DB	04H
	DB	03H
	DB	026H
	DB	03H
	DB	04H
	DB	04H
	DB	026H
	DB	03H
	DB	04H
	DB	04H
	DB	026H
	DB	03H
	DB	04H
	DB	04H
	DB	026H
	DB	03H
	DB	04H
	DB	04H
	DB	026H
	DB	03H
	DB	04H
	DB	04H
	DB	026H
	DB	044H
	DB	04H
	DB	04H
	DB	026H
	DB	044H
	DB	04H
	DB	04H
	DB	026H
	DB	026H
	DB	04H
	DB	04H
	DB	026H
	DB	02H
	DB	02H
	DB	02cH
	DB	0dH
	DB	033H
	DB	02H
	DB	02H
	DB	02H
	DB	02H
	DB	02H
	DB	02H
	DB	02H
	DB	02H
	DB	02H
	DB	02H
	DB	02cH
	DB	0eH
	DB	05bH
	DB	023H
	DB	023H
	DB	023H
	DB	0e0H
	DB	021H
	DB	09fH
	DB	014H
	DB	09fH
	DB	09fH
	DB	012H
	DB	07H
	DB	07H
	DB	0cfH
	DB	02H
	DB	010H
	DB	01bH
	DB	017H
	DB	02H
	DB	017H
	DB	02H
	DB	020H
	DB	01bH
	DB	01dH
	DB	07H
	DB	07H
	DB	07H
	DB	081H
	DB	029H
	DB	029H
	DB	029H
	DB	0dcH
	DB	014H
	DB	0aH
	DB	0aH
	DB	0aH
	DB	06fH
	DB	049H
	DB	0eH
	DB	03H
	DB	02H
	DB	02H
	DB	02H
	DB	02H
	DB	02H
	DB	02H
	DB	02H
	DB	02H
	DB	02H
	DB	06H
	DB	0dH
	DB	0dH
	DB	044H
	DB	02H
	DB	01aH
	DB	05H
	DB	08H
	DB	03H
	DB	04H
	DB	026H
	DB	08H
	DB	044H
	DB	04H
	DB	026H
	DB	08H
	DB	044H
	DB	04H
	DB	026H
	DB	08H
	DB	026H
	DB	04H
	DB	026H
	DB	08H
	DB	026H
	DB	04H
	DB	044H
	DB	08H
	DB	026H
	DB	04H
	DB	03H
	DB	08H
	DB	05H
	DB	04H
	DB	03H
	DB	08H
	DB	05H
	DB	04H
	DB	03H
	DB	08H
	DB	05H
	DB	04H
	DB	03H
	DB	08H
	DB	05H
	DB	04H
	DB	03H
	DB	08H
	DB	05H
	DB	04H
	DB	03H
	DB	08H
	DB	05H
	DB	04H
	DB	03H
	DB	08H
	DB	08H
	DB	04H
	DB	04H
	DB	08H
	DB	08H
	DB	04H
	DB	04H
	DB	08H
	DB	08H
	DB	04H
	DB	04H
	DB	08H
	DB	08H
	DB	04H
	DB	04H
	DB	08H
	DB	08H
	DB	04H
	DB	04H
	DB	08H
	DB	08H
	DB	04H
	DB	04H
	DB	08H
	DB	08H
	DB	04H
	DB	04H
	DB	08H
	DB	08H
	DB	04H
	DB	04H
	DB	08H
	DB	08H
	DB	03H
	DB	04H
	DB	05H
	DB	08H
	DB	03H
	DB	04H
	DB	05H
	DB	08H
	DB	03H
	DB	04H
	DB	05H
	DB	08H
	DB	03H
	DB	04H
	DB	05H
	DB	08H
	DB	03H
	DB	04H
	DB	05H
	DB	08H
	DB	03H
	DB	04H
	DB	026H
	DB	08H
	DB	044H
	DB	04H
	DB	026H
	DB	08H
	DB	044H
	DB	04H
	DB	026H
	DB	08H
	DB	026H
	DB	04H
	DB	026H
	DB	08H
	DB	026H
	DB	04H
	DB	044H
	DB	08H
	DB	026H
	DB	04H
	DB	03H
	DB	08H
	DB	05H
	DB	04H
	DB	03H
	DB	08H
	DB	05H
	DB	04H
	DB	03H
	DB	08H
	DB	05H
	DB	04H
	DB	03H
	DB	08H
	DB	05H
	DB	04H
	DB	03H
	DB	08H
	DB	05H
	DB	04H
	DB	03H
	DB	08H
	DB	05H
	DB	04H
	DB	03H
	DB	08H
	DB	08H
	DB	04H
	DB	04H
	DB	08H
	DB	08H
	DB	04H
	DB	06H
	DB	02H
	DB	03H
	DB	0dH
	DB	0dH
	DB	04H
	DB	02H
	DB	02H
	DB	02H
	DB	02H
	DB	02H
	DB	02H
	DB	02H
	DB	02H
	DB	02H
	DB	04H
	DB	0eH
	DB	046H
	DB	0a9H
	DB	023H
	DB	023H
	DB	023H
	DB	021H
	DB	09fH
	DB	014H
	DB	014H
	DB	09fH
	DB	02bH
	DB	07H
	DB	07H
	DB	07H
	DB	0bH
	DB	0bH
	DB	01bH
	DB	017H
	DB	02H
	DB	02H
	DB	02H
	DB	02H
	DB	0cH
	DB	03eH
	DB	07H
	DB	07H
	DB	07H
	DB	02bH
	DB	09eH
	DB	029H
	DB	029H
	DB	0e0H
	DB	011H
	DB	0aH
	DB	0aH
	DB	0aH
	DB	024H
	DB	0eH
	DB	0eH
	DB	02H
	DB	02H
	DB	02H
	DB	02H
	DB	02H
	DB	02H
	DB	02H
	DB	02H
	DB	02H
	DB	02H
	DB	08H
	DB	0dH
	DB	0dH
	DB	06H
	DB	02H
	DB	06H
	DB	03H
	DB	026H
	DB	04H
	DB	06H
	DB	03H
	DB	026H
	DB	04H
	DB	06H
	DB	03H
	DB	026H
	DB	03H
	DB	06H
	DB	03H
	DB	026H
	DB	03H
	DB	06H
	DB	03H
	DB	026H
	DB	03H
	DB	06H
	DB	03H
	DB	026H
	DB	03H
	DB	06H
	DB	04H
	DB	026H
	DB	03H
	DB	06H
	DB	04H
	DB	026H
	DB	03H
	DB	06H
	DB	04H
	DB	026H
	DB	03H
	DB	06H
	DB	04H
	DB	026H
	DB	03H
	DB	06H
	DB	04H
	DB	026H
	DB	03H
	DB	06H
	DB	04H
	DB	026H
	DB	044H
	DB	06H
	DB	04H
	DB	026H
	DB	044H
	DB	06H
	DB	04H
	DB	026H
	DB	026H
	DB	06H
	DB	04H
	DB	026H
	DB	026H
	DB	06H
	DB	04H
	DB	026H
	DB	026H
	DB	06H
	DB	04H
	DB	026H
	DB	026H
	DB	04H
	DB	06H
	DB	026H
	DB	026H
	DB	04H
	DB	06H
	DB	026H
	DB	026H
	DB	04H
	DB	06H
	DB	026H
	DB	026H
	DB	04H
	DB	06H
	DB	044H
	DB	026H
	DB	04H
	DB	06H
	DB	044H
	DB	026H
	DB	04H
	DB	06H
	DB	03H
	DB	026H
	DB	04H
	DB	06H
	DB	03H
	DB	026H
	DB	04H
	DB	06H
	DB	03H
	DB	026H
	DB	04H
	DB	06H
	DB	03H
	DB	026H
	DB	04H
	DB	06H
	DB	03H
	DB	026H
	DB	04H
	DB	06H
	DB	03H
	DB	026H
	DB	03H
	DB	06H
	DB	03H
	DB	026H
	DB	03H
	DB	06H
	DB	03H
	DB	026H
	DB	03H
	DB	06H
	DB	03H
	DB	026H
	DB	03H
	DB	06H
	DB	04H
	DB	026H
	DB	03H
	DB	06H
	DB	04H
	DB	026H
	DB	03H
	DB	06H
	DB	04H
	DB	026H
	DB	03H
	DB	06H
	DB	04H
	DB	026H
	DB	03H
	DB	06H
	DB	04H
	DB	026H
	DB	03H
	DB	06H
	DB	04H
	DB	026H
	DB	044H
	DB	06H
	DB	04H
	DB	026H
	DB	044H
	DB	06H
	DB	04H
	DB	026H
	DB	026H
	DB	06H
	DB	06H
	DB	02H
	DB	06H
	DB	0dH
	DB	0dH
	DB	08H
	DB	02H
	DB	02H
	DB	02H
	DB	02H
	DB	02H
	DB	02H
	DB	02H
	DB	02H
	DB	02H
	DB	02H
	DB	0b6H
	DB	0eH
	DB	09bH
	DB	023H
	DB	023H
	DB	023H
	DB	0e0H
	DB	09fH
	DB	09fH
	DB	09fH
	DB	09fH
	DB	0dcH
	DB	07H
	DB	07H
	DB	07H
	DB	03bH
	DB	017H
	DB	010H
	DB	01aH
	DB	02H
	DB	02H
	DB	0bH
	DB	028H
	DB	054H
	DB	0cfH
	DB	07H
	DB	07H
	DB	03cH
	DB	0abH
	DB	09eH
	DB	09eH
	DB	09eH
	DB	021H
	DB	0aH
	DB	0aH
	DB	0aH
	DB	0aH
	DB	06dH
	DB	0eH
	DB	02cH
	DB	02H
	DB	02H
	DB	02H
	DB	02H
	DB	02H
	DB	02H
	DB	02H
	DB	02H
	DB	02H
	DB	01aH
	DB	036H
	DB	0dH
	DB	08H
	DB	02H
	DB	01aH
	DB	08H
	DB	03H
	DB	04H
	DB	05H
	DB	08H
	DB	03H
	DB	04H
	DB	026H
	DB	08H
	DB	044H
	DB	04H
	DB	026H
	DB	08H
	DB	026H
	DB	04H
	DB	026H
	DB	08H
	DB	026H
	DB	04H
	DB	044H
	DB	08H
	DB	026H
	DB	04H
	DB	044H
	DB	08H
	DB	026H
	DB	04H
	DB	03H
	DB	08H
	DB	05H
	DB	04H
	DB	03H
	DB	08H
	DB	05H
	DB	04H
	DB	03H
	DB	08H
	DB	05H
	DB	04H
	DB	03H
	DB	08H
	DB	05H
	DB	04H
	DB	03H
	DB	08H
	DB	05H
	DB	04H
	DB	03H
	DB	08H
	DB	08H
	DB	04H
	DB	03H
	DB	08H
	DB	08H
	DB	04H
	DB	04H
	DB	08H
	DB	08H
	DB	04H
	DB	04H
	DB	08H
	DB	08H
	DB	04H
	DB	04H
	DB	08H
	DB	08H
	DB	04H
	DB	04H
	DB	08H
	DB	08H
	DB	04H
	DB	04H
	DB	08H
	DB	08H
	DB	04H
	DB	04H
	DB	08H
	DB	08H
	DB	04H
	DB	04H
	DB	08H
	DB	08H
	DB	03H
	DB	04H
	DB	08H
	DB	08H
	DB	03H
	DB	04H
	DB	05H
	DB	08H
	DB	03H
	DB	04H
	DB	05H
	DB	08H
	DB	03H
	DB	04H
	DB	05H
	DB	08H
	DB	03H
	DB	04H
	DB	05H
	DB	08H
	DB	03H
	DB	04H
	DB	05H
	DB	08H
	DB	03H
	DB	04H
	DB	026H
	DB	08H
	DB	044H
	DB	04H
	DB	026H
	DB	08H
	DB	026H
	DB	04H
	DB	026H
	DB	08H
	DB	026H
	DB	04H
	DB	044H
	DB	08H
	DB	026H
	DB	04H
	DB	044H
	DB	08H
	DB	026H
	DB	04H
	DB	03H
	DB	08H
	DB	05H
	DB	04H
	DB	03H
	DB	08H
	DB	05H
	DB	04H
	DB	03H
	DB	08H
	DB	05H
	DB	04H
	DB	03H
	DB	08H
	DB	05H
	DB	04H
	DB	03H
	DB	08H
	DB	05H
	DB	04H
	DB	03H
	DB	08H
	DB	08H
	DB	04H
	DB	03H
	DB	08H
	DB	08H
	DB	04H
	DB	04H
	DB	08H
	DB	08H
	DB	01aH
	DB	02H
	DB	08H
	DB	0dH
	DB	0dH
	DB	01aH
	DB	02H
	DB	02H
	DB	02H
	DB	02H
	DB	02H
	DB	02H
	DB	02H
	DB	02H
	DB	02H
	DB	08H
	DB	0eH
	DB	05bH
	DB	0dcH
	DB	023H
	DB	023H
	DB	023H
	DB	021H
	DB	09fH
	DB	09fH
	DB	09fH
	DB	09fH
	DB	03cH
	DB	07H
	DB	07H
	DB	03eH
	DB	02H
	DB	01bH
	DB	034H
	DB	01aH
	DB	02H
	DB	028H
	DB	02aH
	DB	037H
	DB	07H
	DB	07H
	DB	07H
	DB	0d5H
	DB	09eH
	DB	09eH
	DB	09eH
	DB	029H
	DB	014H
	DB	0aH
	DB	0aH
	DB	0aH
	DB	06fH
	DB	049H
	DB	0eH
	DB	04H
	DB	02H
	DB	02H
	DB	02H
	DB	02H
	DB	02H
	DB	02H
	DB	02H
	DB	02H
	DB	02H
	DB	03H
	DB	0dH
	DB	0dH
	DB	04H
	DB	02H
	DB	06H
	DB	026H
	DB	04H
	DB	06H
	DB	03H
	DB	026H
	DB	04H
	DB	06H
	DB	03H
	DB	026H
	DB	04H
	DB	06H
	DB	03H
	DB	026H
	DB	03H
	DB	06H
	DB	03H
	DB	026H
	DB	03H
	DB	06H
	DB	03H
	DB	026H
	DB	03H
	DB	06H
	DB	04H
	DB	026H
	DB	03H
	DB	06H
	DB	04H
	DB	026H
	DB	03H
	DB	06H
	DB	04H
	DB	026H
	DB	03H
	DB	06H
	DB	04H
	DB	026H
	DB	03H
	DB	06H
	DB	04H
	DB	026H
	DB	03H
	DB	06H
	DB	04H
	DB	026H
	DB	044H
	DB	06H
	DB	04H
	DB	026H
	DB	044H
	DB	06H
	DB	04H
	DB	026H
	DB	026H
	DB	06H
	DB	04H
	DB	026H
	DB	026H
	DB	06H
	DB	04H
	DB	026H
	DB	026H
	DB	06H
	DB	06H
	DB	026H
	DB	026H
	DB	06H
	DB	06H
	DB	026H
	DB	026H
	DB	04H
	DB	06H
	DB	026H
	DB	026H
	DB	04H
	DB	06H
	DB	026H
	DB	026H
	DB	04H
	DB	06H
	DB	044H
	DB	026H
	DB	04H
	DB	06H
	DB	044H
	DB	026H
	DB	04H
	DB	06H
	DB	044H
	DB	026H
	DB	04H
	DB	06H
	DB	03H
	DB	026H
	DB	04H
	DB	06H
	DB	03H
	DB	026H
	DB	04H
	DB	06H
	DB	03H
	DB	026H
	DB	04H
	DB	06H
	DB	03H
	DB	026H
	DB	04H
	DB	06H
	DB	03H
	DB	026H
	DB	04H
	DB	06H
	DB	03H
	DB	026H
	DB	03H
	DB	06H
	DB	03H
	DB	026H
	DB	03H
	DB	06H
	DB	03H
	DB	026H
	DB	03H
	DB	06H
	DB	04H
	DB	026H
	DB	03H
	DB	06H
	DB	04H
	DB	026H
	DB	03H
	DB	06H
	DB	04H
	DB	026H
	DB	03H
	DB	06H
	DB	04H
	DB	026H
	DB	03H
	DB	06H
	DB	04H
	DB	026H
	DB	03H
	DB	06H
	DB	04H
	DB	026H
	DB	044H
	DB	06H
	DB	04H
	DB	026H
	DB	044H
	DB	06H
	DB	04H
	DB	026H
	DB	026H
	DB	06H
	DB	04H
	DB	026H
	DB	026H
	DB	06H
	DB	02H
	DB	04H
	DB	0dH
	DB	0dH
	DB	03H
	DB	02H
	DB	02H
	DB	02H
	DB	02H
	DB	02H
	DB	02H
	DB	02H
	DB	02H
	DB	02H
	DB	04H
	DB	0eH
	DB	046H
	DB	0fbH
	DB	023H
	DB	023H
	DB	023H
	DB	0aeH
	DB	09fH
	DB	09fH
	DB	09fH
	DB	09fH
	DB	082H
	DB	07H
	DB	07H
	DB	07H
	DB	017H
	DB	01bH
	DB	034H
	DB	034H
	DB	02H
	DB	010H
	DB	01bH
	DB	03dH
	DB	07H
	DB	07H
	DB	07H
	DB	025H
	DB	0abH
	DB	09eH
	DB	09eH
	DB	023H
	DB	011H
	DB	0aH
	DB	0aH
	DB	0aH
	DB	063H
	DB	0eH
	DB	0eH
	DB	02H
	DB	02H
	DB	02H
	DB	02H
	DB	02H
	DB	02H
	DB	02H
	DB	02H
	DB	02H
	DB	02H
	DB	08H
	DB	0dH
	DB	036H
	DB	02H
	DB	02H
	DB	03H
	DB	04H
	DB	05H
	DB	08H
	DB	03H
	DB	04H
	DB	05H
	DB	08H
	DB	044H
	DB	04H
	DB	026H
	DB	08H
	DB	026H
	DB	04H
	DB	026H
	DB	08H
	DB	026H
	DB	04H
	DB	026H
	DB	08H
	DB	026H
	DB	04H
	DB	044H
	DB	08H
	DB	026H
	DB	04H
	DB	044H
	DB	08H
	DB	05H
	DB	04H
	DB	03H
	DB	08H
	DB	05H
	DB	04H
	DB	03H
	DB	08H
	DB	05H
	DB	04H
	DB	03H
	DB	08H
	DB	05H
	DB	04H
	DB	03H
	DB	08H
	DB	05H
	DB	04H
	DB	03H
	DB	08H
	DB	08H
	DB	04H
	DB	03H
	DB	08H
	DB	08H
	DB	04H
	DB	04H
	DB	08H
	DB	08H
	DB	04H
	DB	04H
	DB	08H
	DB	08H
	DB	04H
	DB	04H
	DB	08H
	DB	08H
	DB	04H
	DB	04H
	DB	08H
	DB	08H
	DB	04H
	DB	04H
	DB	08H
	DB	08H
	DB	04H
	DB	04H
	DB	08H
	DB	08H
	DB	04H
	DB	04H
	DB	08H
	DB	08H
	DB	03H
	DB	04H
	DB	08H
	DB	08H
	DB	03H
	DB	04H
	DB	05H
	DB	08H
	DB	03H
	DB	04H
	DB	05H
	DB	08H
	DB	03H
	DB	04H
	DB	05H
	DB	08H
	DB	03H
	DB	04H
	DB	05H
	DB	08H
	DB	03H
	DB	04H
	DB	05H
	DB	08H
	DB	03H
	DB	04H
	DB	05H
	DB	08H
	DB	044H
	DB	04H
	DB	026H
	DB	08H
	DB	026H
	DB	04H
	DB	026H
	DB	08H
	DB	026H
	DB	04H
	DB	026H
	DB	08H
	DB	026H
	DB	04H
	DB	044H
	DB	08H
	DB	026H
	DB	04H
	DB	044H
	DB	08H
	DB	05H
	DB	04H
	DB	03H
	DB	08H
	DB	05H
	DB	04H
	DB	03H
	DB	08H
	DB	05H
	DB	04H
	DB	03H
	DB	08H
	DB	05H
	DB	04H
	DB	03H
	DB	08H
	DB	05H
	DB	04H
	DB	03H
	DB	08H
	DB	08H
	DB	04H
	DB	03H
	DB	08H
	DB	08H
	DB	04H
	DB	04H
	DB	08H
	DB	08H
	DB	04H
	DB	04H
	DB	08H
	DB	02H
	DB	02H
	DB	033H
	DB	0dH
	DB	02cH
	DB	02H
	DB	02H
	DB	02H
	DB	02H
	DB	02H
	DB	02H
	DB	02H
	DB	02H
	DB	02H
	DB	02H
	DB	0eH
	DB	0eH
	DB	09bH
	DB	023H
	DB	023H
	DB	023H
	DB	0e0H
	DB	021H
	DB	09fH
	DB	09fH
	DB	023H
	DB	012H
	DB	07H
	DB	07H
	DB	07H
	DB	0fH
	DB	0bH
	DB	010H
	DB	01bH
	DB	02H
	DB	01aH
	DB	0c1H
	DB	01fH
	DB	07H
	DB	07H
	DB	07H
	DB	0dbH
	DB	09eH
	DB	0abH
	DB	0abH
	DB	021H
	DB	088H
	DB	0aH
	DB	0aH
	DB	0aH
	DB	074H
	DB	0eH
	DB	02cH
	DB	02H
	DB	02H
	DB	02H
	DB	02H
	DB	02H
	DB	02H
	DB	02H
	DB	02H
	DB	02H
	DB	01aH
	DB	0dH
	DB	0dH
	DB	05H
	DB	02H
	DB	06H
	DB	04H
	DB	06H
	DB	03H
	DB	026H
	DB	04H
	DB	06H
	DB	03H
	DB	026H
	DB	04H
	DB	06H
	DB	03H
	DB	026H
	DB	04H
	DB	06H
	DB	03H
	DB	026H
	DB	03H
	DB	06H
	DB	03H
	DB	026H
	DB	03H
	DB	06H
	DB	04H
	DB	026H
	DB	03H
	DB	06H
	DB	04H
	DB	026H
	DB	03H
	DB	06H
	DB	04H
	DB	026H
	DB	03H
	DB	06H
	DB	04H
	DB	026H
	DB	03H
	DB	06H
	DB	04H
	DB	026H
	DB	03H
	DB	06H
	DB	04H
	DB	026H
	DB	03H
	DB	06H
	DB	04H
	DB	026H
	DB	044H
	DB	06H
	DB	04H
	DB	026H
	DB	044H
	DB	06H
	DB	04H
	DB	026H
	DB	026H
	DB	06H
	DB	04H
	DB	026H
	DB	026H
	DB	06H
	DB	06H
	DB	026H
	DB	026H
	DB	06H
	DB	06H
	DB	026H
	DB	026H
	DB	06H
	DB	06H
	DB	026H
	DB	026H
	DB	06H
	DB	06H
	DB	026H
	DB	026H
	DB	04H
	DB	06H
	DB	026H
	DB	026H
	DB	04H
	DB	06H
	DB	044H
	DB	026H
	DB	04H
	DB	06H
	DB	044H
	DB	026H
	DB	04H
	DB	06H
	DB	03H
	DB	026H
	DB	04H
	DB	06H
	DB	03H
	DB	026H
	DB	04H
	DB	06H
	DB	03H
	DB	026H
	DB	04H
	DB	06H
	DB	03H
	DB	026H
	DB	04H
	DB	06H
	DB	03H
	DB	026H
	DB	04H
	DB	06H
	DB	03H
	DB	026H
	DB	04H
	DB	06H
	DB	03H
	DB	026H
	DB	03H
	DB	06H
	DB	03H
	DB	026H
	DB	03H
	DB	06H
	DB	04H
	DB	026H
	DB	03H
	DB	06H
	DB	04H
	DB	026H
	DB	03H
	DB	06H
	DB	04H
	DB	026H
	DB	03H
	DB	06H
	DB	04H
	DB	026H
	DB	03H
	DB	06H
	DB	04H
	DB	026H
	DB	03H
	DB	06H
	DB	04H
	DB	026H
	DB	03H
	DB	06H
	DB	04H
	DB	026H
	DB	044H
	DB	06H
	DB	04H
	DB	026H
	DB	044H
	DB	06H
	DB	04H
	DB	026H
	DB	026H
	DB	06H
	DB	04H
	DB	026H
	DB	06H
	DB	02H
	DB	05H
	DB	0dH
	DB	0dH
	DB	01aH
	DB	02H
	DB	02H
	DB	02H
	DB	02H
	DB	02H
	DB	02H
	DB	02H
	DB	02H
	DB	02H
	DB	02cH
	DB	0eH
	DB	091H
	DB	0dcH
	DB	023H
	DB	0dcH
	DB	023H
	DB	02bH
	DB	012H
	DB	01fH
	DB	040H
	DB	040H
	DB	07H
	DB	07H
	DB	07H
	DB	053H
	DB	017H
	DB	017H
	DB	010H
	DB	02H
	DB	04dH
	DB	038H
	DB	07H
	DB	07H
	DB	07H
	DB	0d3H
	DB	016H
	DB	0abH
	DB	0abH
	DB	09eH
	DB	09fH
	DB	0aH
	DB	0aH
	DB	0aH
	DB	06aH
	DB	08eH
	DB	0eH
	DB	026H
	DB	02H
	DB	02H
	DB	02H
	DB	02H
	DB	02H
	DB	02H
	DB	02H
	DB	02H
	DB	02H
	DB	03H
	DB	0dH
	DB	0dH
	DB	04H
	DB	02H
	DB	06H
	DB	05H
	DB	08H
	DB	03H
	DB	04H
	DB	05H
	DB	08H
	DB	044H
	DB	04H
	DB	05H
	DB	08H
	DB	044H
	DB	04H
	DB	026H
	DB	08H
	DB	026H
	DB	04H
	DB	026H
	DB	08H
	DB	026H
	DB	04H
	DB	026H
	DB	08H
	DB	026H
	DB	04H
	DB	044H
	DB	08H
	DB	05H
	DB	04H
	DB	044H
	DB	08H
	DB	05H
	DB	04H
	DB	03H
	DB	08H
	DB	05H
	DB	04H
	DB	03H
	DB	08H
	DB	05H
	DB	04H
	DB	03H
	DB	08H
	DB	05H
	DB	04H
	DB	03H
	DB	08H
	DB	05H
	DB	04H
	DB	03H
	DB	08H
	DB	08H
	DB	04H
	DB	03H
	DB	08H
	DB	08H
	DB	04H
	DB	04H
	DB	08H
	DB	08H
	DB	04H
	DB	04H
	DB	08H
	DB	08H
	DB	04H
	DB	04H
	DB	08H
	DB	08H
	DB	04H
	DB	04H
	DB	08H
	DB	08H
	DB	04H
	DB	04H
	DB	08H
	DB	08H
	DB	04H
	DB	04H
	DB	08H
	DB	08H
	DB	03H
	DB	04H
	DB	08H
	DB	08H
	DB	03H
	DB	04H
	DB	08H
	DB	08H
	DB	03H
	DB	04H
	DB	05H
	DB	08H
	DB	03H
	DB	04H
	DB	05H
	DB	08H
	DB	03H
	DB	04H
	DB	05H
	DB	08H
	DB	03H
	DB	04H
	DB	05H
	DB	08H
	DB	03H
	DB	04H
	DB	05H
	DB	08H
	DB	044H
	DB	04H
	DB	05H
	DB	08H
	DB	044H
	DB	04H
	DB	026H
	DB	08H
	DB	026H
	DB	04H
	DB	026H
	DB	08H
	DB	026H
	DB	04H
	DB	026H
	DB	08H
	DB	026H
	DB	04H
	DB	044H
	DB	08H
	DB	05H
	DB	04H
	DB	044H
	DB	08H
	DB	05H
	DB	04H
	DB	03H
	DB	08H
	DB	05H
	DB	04H
	DB	03H
	DB	08H
	DB	05H
	DB	04H
	DB	03H
	DB	08H
	DB	05H
	DB	04H
	DB	03H
	DB	08H
	DB	05H
	DB	04H
	DB	03H
	DB	08H
	DB	08H
	DB	04H
	DB	03H
	DB	08H
	DB	08H
	DB	04H
	DB	04H
	DB	08H
	DB	08H
	DB	04H
	DB	06H
	DB	02H
	DB	04H
	DB	0dH
	DB	0dH
	DB	03H
	DB	02H
	DB	02H
	DB	02H
	DB	02H
	DB	02H
	DB	02H
	DB	02H
	DB	02H
	DB	02H
	DB	03H
	DB	0eH
	DB	06cH
	DB	061H
	DB	081H
	DB	0cfH
	DB	053H
	DB	053H
	DB	053H
	DB	040H
	DB	030H
	DB	040H
	DB	0cfH
	DB	07H
	DB	07H
	DB	0cfH
	DB	02H
	DB	017H
	DB	017H
	DB	02H
	DB	096H
	DB	079H
	DB	07H
	DB	07H
	DB	07H
	DB	019H
	DB	016H
	DB	016H
	DB	0abH
	DB	029H
	DB	095H
	DB	0aH
	DB	0aH
	DB	0aH
	DB	069H
	DB	071H
	DB	0eH
	DB	06H
	DB	02H
	DB	02H
	DB	02H
	DB	02H
	DB	02H
	DB	02H
	DB	02H
	DB	02H
	DB	02H
	DB	08H
	DB	0dH
	DB	036H
	DB	02H
	DB	02H
	DB	06H
	DB	03H
	DB	05H
	DB	04H
	DB	06H
	DB	03H
	DB	05H
	DB	04H
	DB	06H
	DB	03H
	DB	05H
	DB	04H
	DB	06H
	DB	03H
	DB	05H
	DB	04H
	DB	06H
	DB	03H
	DB	05H
	DB	03H
	DB	06H
	DB	04H
	DB	05H
	DB	03H
	DB	06H
	DB	04H
	DB	05H
	DB	03H
	DB	06H
	DB	04H
	DB	05H
	DB	03H
	DB	06H
	DB	04H
	DB	05H
	DB	03H
	DB	06H
	DB	04H
	DB	05H
	DB	03H
	DB	06H
	DB	04H
	DB	05H
	DB	03H
	DB	06H
	DB	04H
	DB	05H
	DB	044H
	DB	06H
	DB	04H
	DB	05H
	DB	044H
	DB	06H
	DB	04H
	DB	05H
	DB	026H
	DB	06H
	DB	06H
	DB	05H
	DB	026H
	DB	06H
	DB	06H
	DB	05H
	DB	026H
	DB	06H
	DB	06H
	DB	05H
	DB	026H
	DB	06H
	DB	06H
	DB	026H
	DB	05H
	DB	06H
	DB	06H
	DB	026H
	DB	05H
	DB	06H
	DB	06H
	DB	026H
	DB	05H
	DB	04H
	DB	06H
	DB	026H
	DB	05H
	DB	04H
	DB	06H
	DB	044H
	DB	05H
	DB	04H
	DB	06H
	DB	044H
	DB	05H
	DB	04H
	DB	06H
	DB	03H
	DB	05H
	DB	04H
	DB	06H
	DB	03H
	DB	05H
	DB	04H
	DB	06H
	DB	03H
	DB	05H
	DB	04H
	DB	06H
	DB	03H
	DB	05H
	DB	04H
	DB	06H
	DB	03H
	DB	05H
	DB	04H
	DB	06H
	DB	03H
	DB	05H
	DB	04H
	DB	06H
	DB	03H
	DB	05H
	DB	03H
	DB	06H
	DB	04H
	DB	05H
	DB	03H
	DB	06H
	DB	04H
	DB	05H
	DB	03H
	DB	06H
	DB	04H
	DB	05H
	DB	03H
	DB	06H
	DB	04H
	DB	05H
	DB	03H
	DB	06H
	DB	04H
	DB	05H
	DB	03H
	DB	06H
	DB	04H
	DB	05H
	DB	03H
	DB	06H
	DB	04H
	DB	05H
	DB	044H
	DB	06H
	DB	04H
	DB	05H
	DB	044H
	DB	06H
	DB	04H
	DB	05H
	DB	026H
	DB	06H
	DB	06H
	DB	05H
	DB	026H
	DB	06H
	DB	06H
	DB	02H
	DB	02H
	DB	033H
	DB	0dH
	DB	02cH
	DB	02H
	DB	02H
	DB	02H
	DB	02H
	DB	02H
	DB	02H
	DB	02H
	DB	02H
	DB	02H
	DB	070H
	DB	0b4H
	DB	01fH
	DB	01fH
	DB	053H
	DB	053H
	DB	053H
	DB	03bH
	DB	03aH
	DB	0bH
	DB	02fH
	DB	040H
	DB	053H
	DB	07H
	DB	07H
	DB	07H
	DB	02H
	DB	015H
	DB	01aH
	DB	02H
	DB	041H
	DB	01fH
	DB	07H
	DB	07H
	DB	07H
	DB	025H
	DB	016H
	DB	016H
	DB	016H
	DB	023H
	DB	011H
	DB	0aH
	DB	0aH
	DB	0aH
	DB	024H
	DB	0eH
	DB	0b6H
	DB	02H
	DB	02H
	DB	02H
	DB	02H
	DB	02H
	DB	02H
	DB	02H
	DB	02H
	DB	02H
	DB	02H
	DB	036H
	DB	0dH
	DB	08H
	DB	02H
	DB	06H
	DB	08H
	DB	03H
	DB	04H
	DB	05H
	DB	08H
	DB	044H
	DB	04H
	DB	05H
	DB	08H
	DB	044H
	DB	04H
	DB	026H
	DB	08H
	DB	026H
	DB	04H
	DB	026H
	DB	08H
	DB	026H
	DB	04H
	DB	026H
	DB	08H
	DB	026H
	DB	04H
	DB	026H
	DB	08H
	DB	05H
	DB	04H
	DB	044H
	DB	08H
	DB	05H
	DB	04H
	DB	03H
	DB	08H
	DB	05H
	DB	04H
	DB	03H
	DB	08H
	DB	05H
	DB	04H
	DB	03H
	DB	08H
	DB	05H
	DB	04H
	DB	03H
	DB	08H
	DB	05H
	DB	04H
	DB	03H
	DB	08H
	DB	08H
	DB	04H
	DB	03H
	DB	08H
	DB	08H
	DB	04H
	DB	03H
	DB	08H
	DB	08H
	DB	04H
	DB	04H
	DB	08H
	DB	08H
	DB	04H
	DB	04H
	DB	08H
	DB	08H
	DB	04H
	DB	04H
	DB	08H
	DB	08H
	DB	04H
	DB	04H
	DB	08H
	DB	08H
	DB	04H
	DB	04H
	DB	08H
	DB	08H
	DB	04H
	DB	04H
	DB	08H
	DB	08H
	DB	03H
	DB	04H
	DB	08H
	DB	08H
	DB	03H
	DB	04H
	DB	08H
	DB	08H
	DB	03H
	DB	04H
	DB	05H
	DB	08H
	DB	03H
	DB	04H
	DB	05H
	DB	08H
	DB	03H
	DB	04H
	DB	05H
	DB	08H
	DB	03H
	DB	04H
	DB	05H
	DB	08H
	DB	044H
	DB	04H
	DB	05H
	DB	08H
	DB	044H
	DB	04H
	DB	026H
	DB	08H
	DB	026H
	DB	04H
	DB	026H
	DB	08H
	DB	026H
	DB	04H
	DB	026H
	DB	08H
	DB	026H
	DB	04H
	DB	026H
	DB	08H
	DB	05H
	DB	04H
	DB	044H
	DB	08H
	DB	05H
	DB	04H
	DB	03H
	DB	08H
	DB	05H
	DB	04H
	DB	03H
	DB	08H
	DB	05H
	DB	04H
	DB	03H
	DB	08H
	DB	05H
	DB	04H
	DB	03H
	DB	08H
	DB	05H
	DB	04H
	DB	03H
	DB	08H
	DB	08H
	DB	04H
	DB	03H
	DB	08H
	DB	08H
	DB	04H
	DB	03H
	DB	08H
	DB	08H
	DB	04H
	DB	04H
	DB	08H
	DB	08H
	DB	01aH
	DB	02H
	DB	05H
	DB	0dH
	DB	036H
	DB	02H
	DB	02H
	DB	02H
	DB	02H
	DB	02H
	DB	015H
	DB	047H
	DB	053H
	DB	01fH
	DB	01fH
	DB	01fH
	DB	01fH
	DB	040H
	DB	022H
	DB	02fH
	DB	015H
	DB	02H
	DB	02H
	DB	02H
	DB	02H
	DB	040H
	DB	042H
	DB	07H
	DB	07H
	DB	07H
	DB	0cH
	DB	015H
	DB	017H
	DB	01fH
	DB	02dH
	DB	053H
	DB	07H
	DB	07H
	DB	07H
	DB	02bH
	DB	016H
	DB	016H
	DB	016H
	DB	0aeH
	DB	088H
	DB	0aH
	DB	0aH
	DB	088H
	DB	092H
	DB	0eH
	DB	08H
	DB	02H
	DB	02H
	DB	02H
	DB	02H
	DB	02H
	DB	02H
	DB	02H
	DB	02H
	DB	02H
	DB	04H
	DB	0dH
	DB	0dH
	DB	04H
	DB	02H
	DB	04H
	DB	05H
	DB	04H
	DB	06H
	DB	03H
	DB	05H
	DB	04H
	DB	06H
	DB	03H
	DB	05H
	DB	04H
	DB	06H
	DB	03H
	DB	05H
	DB	04H
	DB	06H
	DB	03H
	DB	05H
	DB	03H
	DB	06H
	DB	04H
	DB	05H
	DB	03H
	DB	06H
	DB	04H
	DB	05H
	DB	03H
	DB	06H
	DB	04H
	DB	05H
	DB	03H
	DB	06H
	DB	04H
	DB	05H
	DB	03H
	DB	06H
	DB	04H
	DB	05H
	DB	03H
	DB	06H
	DB	04H
	DB	05H
	DB	03H
	DB	06H
	DB	04H
	DB	05H
	DB	044H
	DB	06H
	DB	04H
	DB	05H
	DB	044H
	DB	06H
	DB	04H
	DB	05H
	DB	026H
	DB	06H
	DB	06H
	DB	05H
	DB	026H
	DB	06H
	DB	06H
	DB	05H
	DB	026H
	DB	06H
	DB	06H
	DB	05H
	DB	026H
	DB	06H
	DB	06H
	DB	05H
	DB	05H
	DB	06H
	DB	06H
	DB	026H
	DB	05H
	DB	06H
	DB	06H
	DB	026H
	DB	05H
	DB	06H
	DB	06H
	DB	026H
	DB	05H
	DB	04H
	DB	06H
	DB	044H
	DB	05H
	DB	04H
	DB	06H
	DB	044H
	DB	05H
	DB	04H
	DB	06H
	DB	03H
	DB	05H
	DB	04H
	DB	06H
	DB	03H
	DB	05H
	DB	04H
	DB	06H
	DB	03H
	DB	05H
	DB	04H
	DB	06H
	DB	03H
	DB	05H
	DB	04H
	DB	06H
	DB	03H
	DB	05H
	DB	04H
	DB	06H
	DB	03H
	DB	05H
	DB	04H
	DB	06H
	DB	03H
	DB	05H
	DB	03H
	DB	06H
	DB	04H
	DB	05H
	DB	03H
	DB	06H
	DB	04H
	DB	05H
	DB	03H
	DB	06H
	DB	04H
	DB	05H
	DB	03H
	DB	06H
	DB	04H
	DB	05H
	DB	03H
	DB	06H
	DB	04H
	DB	05H
	DB	03H
	DB	06H
	DB	04H
	DB	05H
	DB	03H
	DB	06H
	DB	04H
	DB	05H
	DB	044H
	DB	06H
	DB	04H
	DB	05H
	DB	044H
	DB	06H
	DB	04H
	DB	05H
	DB	026H
	DB	06H
	DB	06H
	DB	05H
	DB	026H
	DB	06H
	DB	06H
	DB	05H
	DB	026H
	DB	01aH
	DB	02H
	DB	04H
	DB	0dH
	DB	0dH
	DB	04H
	DB	02H
	DB	0cH
	DB	030H
	DB	01fH
	DB	01fH
	DB	01fH
	DB	01fH
	DB	01fH
	DB	030H
	DB	032H
	DB	01cH
	DB	02H
	DB	02H
	DB	02H
	DB	02H
	DB	02H
	DB	02H
	DB	02H
	DB	02H
	DB	042H
	DB	042H
	DB	07H
	DB	07H
	DB	07H
	DB	030H
	DB	02H
	DB	017H
	DB	019H
	DB	05dH
	DB	0cfH
	DB	07H
	DB	07H
	DB	03cH
	DB	016H
	DB	016H
	DB	016H
	DB	016H
	DB	021H
	DB	0aH
	DB	0aH
	DB	0aH
	DB	00H
	DB	05bH
	DB	0eH
	DB	03H
	DB	02H
	DB	02H
	DB	02H
	DB	02H
	DB	02H
	DB	02H
	DB	02H
	DB	02H
	DB	02H
	DB	05H
	DB	0dH
	DB	0dH
	DB	01aH
	DB	02H
	DB	03H
	DB	04H
	DB	05H
	DB	08H
	DB	03H
	DB	04H
	DB	05H
	DB	08H
	DB	044H
	DB	04H
	DB	05H
	DB	08H
	DB	026H
	DB	04H
	DB	026H
	DB	08H
	DB	026H
	DB	04H
	DB	026H
	DB	08H
	DB	026H
	DB	04H
	DB	026H
	DB	08H
	DB	026H
	DB	04H
	DB	044H
	DB	08H
	DB	05H
	DB	04H
	DB	044H
	DB	08H
	DB	05H
	DB	04H
	DB	03H
	DB	08H
	DB	05H
	DB	04H
	DB	03H
	DB	08H
	DB	05H
	DB	04H
	DB	03H
	DB	08H
	DB	05H
	DB	04H
	DB	03H
	DB	08H
	DB	08H
	DB	04H
	DB	03H
	DB	08H
	DB	08H
	DB	04H
	DB	03H
	DB	08H
	DB	08H
	DB	04H
	DB	03H
	DB	08H
	DB	08H
	DB	04H
	DB	04H
	DB	08H
	DB	08H
	DB	04H
	DB	04H
	DB	08H
	DB	08H
	DB	04H
	DB	04H
	DB	08H
	DB	08H
	DB	04H
	DB	04H
	DB	08H
	DB	08H
	DB	04H
	DB	04H
	DB	08H
	DB	08H
	DB	03H
	DB	04H
	DB	08H
	DB	08H
	DB	03H
	DB	04H
	DB	08H
	DB	08H
	DB	03H
	DB	04H
	DB	05H
	DB	08H
	DB	03H
	DB	04H
	DB	05H
	DB	08H
	DB	03H
	DB	04H
	DB	05H
	DB	08H
	DB	03H
	DB	04H
	DB	05H
	DB	08H
	DB	03H
	DB	04H
	DB	05H
	DB	08H
	DB	044H
	DB	04H
	DB	05H
	DB	08H
	DB	026H
	DB	04H
	DB	026H
	DB	08H
	DB	026H
	DB	04H
	DB	026H
	DB	08H
	DB	026H
	DB	04H
	DB	026H
	DB	08H
	DB	026H
	DB	04H
	DB	044H
	DB	08H
	DB	05H
	DB	04H
	DB	044H
	DB	08H
	DB	05H
	DB	04H
	DB	03H
	DB	08H
	DB	05H
	DB	04H
	DB	03H
	DB	08H
	DB	05H
	DB	04H
	DB	03H
	DB	08H
	DB	05H
	DB	04H
	DB	03H
	DB	08H
	DB	08H
	DB	04H
	DB	03H
	DB	08H
	DB	08H
	DB	04H
	DB	03H
	DB	08H
	DB	08H
	DB	04H
	DB	03H
	DB	08H
	DB	08H
	DB	04H
	DB	04H
	DB	08H
	DB	02H
	DB	01aH
	DB	036H
	DB	0b4H
	DB	057H
	DB	03eH
	DB	03eH
	DB	01fH
	DB	01fH
	DB	01fH
	DB	05eH
	DB	03aH
	DB	015H
	DB	02H
	DB	02H
	DB	02H
	DB	02H
	DB	02H
	DB	02H
	DB	02H
	DB	02H
	DB	02H
	DB	02H
	DB	02H
	DB	037H
	DB	042H
	DB	0cfH
	DB	07H
	DB	07H
	DB	03eH
	DB	02H
	DB	017H
	DB	0d5H
	DB	019H
	DB	07H
	DB	07H
	DB	07H
	DB	051H
	DB	016H
	DB	016H
	DB	016H
	DB	09eH
	DB	014H
	DB	0aH
	DB	0aH
	DB	0aH
	DB	064H
	DB	071H
	DB	0eH
	DB	06H
	DB	02H
	DB	02H
	DB	02H
	DB	02H
	DB	02H
	DB	02H
	DB	02H
	DB	02H
	DB	02H
	DB	02cH
	DB	0dH
	DB	02cH
	DB	02H
	DB	01aH
	DB	04H
	DB	06H
	DB	03H
	DB	05H
	DB	04H
	DB	06H
	DB	03H
	DB	05H
	DB	04H
	DB	06H
	DB	03H
	DB	05H
	DB	04H
	DB	06H
	DB	03H
	DB	05H
	DB	04H
	DB	06H
	DB	03H
	DB	05H
	DB	03H
	DB	06H
	DB	04H
	DB	05H
	DB	03H
	DB	06H
	DB	04H
	DB	05H
	DB	03H
	DB	06H
	DB	04H
	DB	05H
	DB	03H
	DB	06H
	DB	04H
	DB	05H
	DB	03H
	DB	06H
	DB	04H
	DB	05H
	DB	03H
	DB	06H
	DB	04H
	DB	05H
	DB	03H
	DB	06H
	DB	04H
	DB	05H
	DB	044H
	DB	06H
	DB	04H
	DB	05H
	DB	044H
	DB	06H
	DB	06H
	DB	05H
	DB	026H
	DB	06H
	DB	06H
	DB	05H
	DB	026H
	DB	06H
	DB	06H
	DB	05H
	DB	026H
	DB	06H
	DB	06H
	DB	05H
	DB	05H
	DB	06H
	DB	06H
	DB	05H
	DB	05H
	DB	06H
	DB	06H
	DB	026H
	DB	05H
	DB	06H
	DB	06H
	DB	026H
	DB	05H
	DB	06H
	DB	06H
	DB	026H
	DB	05H
	DB	06H
	DB	06H
	DB	044H
	DB	05H
	DB	04H
	DB	06H
	DB	044H
	DB	05H
	DB	04H
	DB	06H
	DB	03H
	DB	05H
	DB	04H
	DB	06H
	DB	03H
	DB	05H
	DB	04H
	DB	06H
	DB	03H
	DB	05H
	DB	04H
	DB	06H
	DB	03H
	DB	05H
	DB	04H
	DB	06H
	DB	03H
	DB	05H
	DB	04H
	DB	06H
	DB	03H
	DB	05H
	DB	04H
	DB	06H
	DB	03H
	DB	05H
	DB	03H
	DB	06H
	DB	04H
	DB	05H
	DB	03H
	DB	06H
	DB	04H
	DB	05H
	DB	03H
	DB	06H
	DB	04H
	DB	05H
	DB	03H
	DB	06H
	DB	04H
	DB	05H
	DB	03H
	DB	06H
	DB	04H
	DB	05H
	DB	03H
	DB	06H
	DB	04H
	DB	05H
	DB	03H
	DB	06H
	DB	04H
	DB	05H
	DB	044H
	DB	06H
	DB	04H
	DB	05H
	DB	044H
	DB	06H
	DB	06H
	DB	05H
	DB	026H
	DB	06H
	DB	06H
	DB	05H
	DB	026H
	DB	06H
	DB	06H
	DB	0edH
	DB	066H
	DB	03eH
	DB	03eH
	DB	03eH
	DB	03eH
	DB	03eH
	DB	066H
	DB	022H
	DB	034H
	DB	02H
	DB	02H
	DB	02H
	DB	02H
	DB	02H
	DB	02H
	DB	02H
	DB	02H
	DB	02H
	DB	02H
	DB	02H
	DB	02H
	DB	02H
	DB	02H
	DB	02H
	DB	02fH
	DB	03bH
	DB	040H
	DB	07H
	DB	07H
	DB	07H
	DB	02H
	DB	017H
	DB	080H
	DB	080H
	DB	07H
	DB	07H
	DB	07H
	DB	081H
	DB	016H
	DB	016H
	DB	016H
	DB	0dcH
	DB	095H
	DB	0aH
	DB	0aH
	DB	0aH
	DB	0bfH
	DB	0eH
	DB	0b6H
	DB	02H
	DB	02H
	DB	02H
	DB	02H
	DB	02H
	DB	02H
	DB	02H
	DB	02H
	DB	02H
	DB	01aH
	DB	0dH
	DB	0dH
	DB	05H
	DB	02H
	DB	06H
	DB	05H
	DB	08H
	DB	03H
	DB	04H
	DB	05H
	DB	08H
	DB	044H
	DB	04H
	DB	05H
	DB	08H
	DB	026H
	DB	04H
	DB	05H
	DB	08H
	DB	026H
	DB	04H
	DB	026H
	DB	08H
	DB	026H
	DB	04H
	DB	026H
	DB	08H
	DB	026H
	DB	04H
	DB	026H
	DB	08H
	DB	05H
	DB	04H
	DB	044H
	DB	08H
	DB	05H
	DB	04H
	DB	044H
	DB	08H
	DB	05H
	DB	04H
	DB	03H
	DB	08H
	DB	05H
	DB	04H
	DB	03H
	DB	08H
	DB	05H
	DB	04H
	DB	03H
	DB	08H
	DB	05H
	DB	04H
	DB	03H
	DB	08H
	DB	08H
	DB	04H
	DB	03H
	DB	08H
	DB	08H
	DB	04H
	DB	03H
	DB	08H
	DB	08H
	DB	04H
	DB	03H
	DB	08H
	DB	08H
	DB	04H
	DB	04H
	DB	08H
	DB	08H
	DB	04H
	DB	04H
	DB	08H
	DB	08H
	DB	04H
	DB	04H
	DB	08H
	DB	08H
	DB	04H
	DB	04H
	DB	08H
	DB	08H
	DB	03H
	DB	04H
	DB	08H
	DB	08H
	DB	03H
	DB	04H
	DB	08H
	DB	08H
	DB	03H
	DB	04H
	DB	08H
	DB	08H
	DB	03H
	DB	04H
	DB	05H
	DB	08H
	DB	03H
	DB	04H
	DB	05H
	DB	08H
	DB	03H
	DB	04H
	DB	05H
	DB	08H
	DB	03H
	DB	04H
	DB	05H
	DB	08H
	DB	044H
	DB	04H
	DB	05H
	DB	08H
	DB	026H
	DB	04H
	DB	05H
	DB	08H
	DB	026H
	DB	04H
	DB	026H
	DB	08H
	DB	026H
	DB	04H
	DB	026H
	DB	08H
	DB	026H
	DB	04H
	DB	026H
	DB	08H
	DB	05H
	DB	04H
	DB	044H
	DB	08H
	DB	05H
	DB	04H
	DB	044H
	DB	08H
	DB	05H
	DB	04H
	DB	03H
	DB	08H
	DB	05H
	DB	04H
	DB	03H
	DB	08H
	DB	05H
	DB	04H
	DB	03H
	DB	08H
	DB	05H
	DB	04H
	DB	03H
	DB	08H
	DB	08H
	DB	04H
	DB	03H
	DB	08H
	DB	08H
	DB	04H
	DB	03H
	DB	08H
	DB	08H
	DB	04H
	DB	0b0H
	DB	057H
	DB	0cfH
	DB	0cfH
	DB	03eH
	DB	03eH
	DB	03eH
	DB	030H
	DB	0fH
	DB	0bH
	DB	02H
	DB	02H
	DB	02H
	DB	02H
	DB	02H
	DB	02H
	DB	02H
	DB	02H
	DB	02H
	DB	02H
	DB	02H
	DB	02H
	DB	02H
	DB	02H
	DB	02H
	DB	02H
	DB	02H
	DB	02H
	DB	015H
	DB	03bH
	DB	03bH
	DB	07H
	DB	07H
	DB	07H
	DB	017H
	DB	01aH
	DB	080H
	DB	05dH
	DB	07H
	DB	07H
	DB	07H
	DB	0baH
	DB	016H
	DB	016H
	DB	016H
	DB	023H
	DB	011H
	DB	0aH
	DB	0aH
	DB	088H
	DB	052H
	DB	0eH
	DB	02cH
	DB	02H
	DB	02H
	DB	02H
	DB	02H
	DB	02H
	DB	02H
	DB	02H
	DB	02H
	DB	02H
	DB	04H
	DB	0dH
	DB	0dH
	DB	04H
	DB	02H
	DB	01aH
	DB	03H
	DB	05H
	DB	04H
	DB	06H
	DB	03H
	DB	05H
	DB	04H
	DB	06H
	DB	03H
	DB	05H
	DB	04H
	DB	06H
	DB	03H
	DB	05H
	DB	04H
	DB	06H
	DB	03H
	DB	05H
	DB	04H
	DB	06H
	DB	04H
	DB	05H
	DB	03H
	DB	06H
	DB	04H
	DB	05H
	DB	03H
	DB	06H
	DB	04H
	DB	05H
	DB	03H
	DB	06H
	DB	04H
	DB	05H
	DB	03H
	DB	06H
	DB	04H
	DB	05H
	DB	03H
	DB	06H
	DB	04H
	DB	05H
	DB	03H
	DB	06H
	DB	04H
	DB	05H
	DB	044H
	DB	06H
	DB	04H
	DB	05H
	DB	044H
	DB	06H
	DB	06H
	DB	05H
	DB	026H
	DB	06H
	DB	06H
	DB	05H
	DB	026H
	DB	06H
	DB	06H
	DB	05H
	DB	026H
	DB	06H
	DB	06H
	DB	05H
	DB	05H
	DB	06H
	DB	06H
	DB	05H
	DB	05H
	DB	06H
	DB	06H
	DB	026H
	DB	05H
	DB	06H
	DB	06H
	DB	026H
	DB	05H
	DB	06H
	DB	06H
	DB	026H
	DB	05H
	DB	06H
	DB	06H
	DB	026H
	DB	05H
	DB	06H
	DB	06H
	DB	044H
	DB	05H
	DB	04H
	DB	06H
	DB	03H
	DB	05H
	DB	04H
	DB	06H
	DB	03H
	DB	05H
	DB	04H
	DB	06H
	DB	03H
	DB	05H
	DB	04H
	DB	06H
	DB	03H
	DB	05H
	DB	04H
	DB	06H
	DB	03H
	DB	05H
	DB	04H
	DB	06H
	DB	03H
	DB	05H
	DB	04H
	DB	06H
	DB	03H
	DB	05H
	DB	04H
	DB	06H
	DB	04H
	DB	05H
	DB	03H
	DB	06H
	DB	04H
	DB	05H
	DB	03H
	DB	06H
	DB	04H
	DB	05H
	DB	03H
	DB	06H
	DB	04H
	DB	05H
	DB	03H
	DB	06H
	DB	04H
	DB	05H
	DB	03H
	DB	06H
	DB	04H
	DB	05H
	DB	03H
	DB	06H
	DB	04H
	DB	05H
	DB	044H
	DB	06H
	DB	04H
	DB	05H
	DB	044H
	DB	06H
	DB	06H
	DB	05H
	DB	026H
	DB	06H
	DB	089H
	DB	08cH
	DB	0cfH
	DB	0cfH
	DB	0cfH
	DB	0cfH
	DB	0cfH
	DB	01fH
	DB	05eH
	DB	0cH
	DB	02H
	DB	02H
	DB	02H
	DB	02H
	DB	02H
	DB	02H
	DB	02H
	DB	02H
	DB	02H
	DB	02H
	DB	02H
	DB	02H
	DB	02H
	DB	02H
	DB	02H
	DB	02H
	DB	02H
	DB	02H
	DB	02H
	DB	02H
	DB	02H
	DB	02H
	DB	02H
	DB	03bH
	DB	03bH
	DB	07H
	DB	07H
	DB	07H
	DB	02fH
	DB	01aH
	DB	012H
	DB	0d3H
	DB	07H
	DB	07H
	DB	07H
	DB	02bH
	DB	016H
	DB	016H
	DB	016H
	DB	0aeH
	DB	0a1H
	DB	0aH
	DB	0aH
	DB	04fH
	DB	05cH
	DB	0eH
	DB	05H
	DB	02H
	DB	02H
	DB	02H
	DB	02H
	DB	02H
	DB	02H
	DB	02H
	DB	02H
	DB	02H
	DB	026H
	DB	0dH
	DB	0dH
	DB	01aH
	DB	02H
	DB	08H
	DB	03H
	DB	04H
	DB	05H
	DB	08H
	DB	044H
	DB	04H
	DB	05H
	DB	08H
	DB	044H
	DB	04H
	DB	05H
	DB	08H
	DB	026H
	DB	04H
	DB	05H
	DB	08H
	DB	026H
	DB	04H
	DB	026H
	DB	08H
	DB	026H
	DB	04H
	DB	026H
	DB	08H
	DB	05H
	DB	04H
	DB	026H
	DB	08H
	DB	05H
	DB	04H
	DB	044H
	DB	08H
	DB	05H
	DB	04H
	DB	044H
	DB	08H
	DB	05H
	DB	04H
	DB	03H
	DB	08H
	DB	05H
	DB	04H
	DB	03H
	DB	08H
	DB	05H
	DB	04H
	DB	03H
	DB	08H
	DB	08H
	DB	04H
	DB	03H
	DB	08H
	DB	08H
	DB	04H
	DB	03H
	DB	08H
	DB	08H
	DB	04H
	DB	03H
	DB	08H
	DB	08H
	DB	04H
	DB	04H
	DB	08H
	DB	08H
	DB	04H
	DB	04H
	DB	08H
	DB	08H
	DB	04H
	DB	04H
	DB	08H
	DB	08H
	DB	04H
	DB	04H
	DB	08H
	DB	08H
	DB	03H
	DB	04H
	DB	08H
	DB	08H
	DB	03H
	DB	04H
	DB	08H
	DB	08H
	DB	03H
	DB	04H
	DB	08H
	DB	08H
	DB	03H
	DB	04H
	DB	08H
	DB	08H
	DB	03H
	DB	04H
	DB	05H
	DB	08H
	DB	03H
	DB	04H
	DB	05H
	DB	08H
	DB	03H
	DB	04H
	DB	05H
	DB	08H
	DB	044H
	DB	04H
	DB	05H
	DB	08H
	DB	044H
	DB	04H
	DB	05H
	DB	08H
	DB	026H
	DB	04H
	DB	05H
	DB	08H
	DB	026H
	DB	04H
	DB	026H
	DB	08H
	DB	026H
	DB	04H
	DB	026H
	DB	08H
	DB	05H
	DB	04H
	DB	026H
	DB	08H
	DB	05H
	DB	04H
	DB	044H
	DB	08H
	DB	05H
	DB	04H
	DB	044H
	DB	08H
	DB	05H
	DB	04H
	DB	03H
	DB	08H
	DB	05H
	DB	04H
	DB	03H
	DB	08H
	DB	05H
	DB	04H
	DB	03H
	DB	08H
	DB	08H
	DB	04H
	DB	03H
	DB	08H
	DB	08H
	DB	0b0H
	DB	057H
	DB	07H
	DB	07H
	DB	07H
	DB	0cfH
	DB	0cfH
	DB	066H
	DB	047H
	DB	01bH
	DB	02H
	DB	02H
	DB	02H
	DB	02H
	DB	02H
	DB	02H
	DB	02H
	DB	02H
	DB	02H
	DB	02H
	DB	02H
	DB	02H
	DB	02H
	DB	02H
	DB	02H
	DB	02H
	DB	02H
	DB	02H
	DB	02H
	DB	02H
	DB	02H
	DB	02H
	DB	02H
	DB	02H
	DB	02H
	DB	02H
	DB	03bH
	DB	03bH
	DB	07H
	DB	07H
	DB	07H
	DB	03bH
	DB	02H
	DB	012H
	DB	07H
	DB	07H
	DB	07H
	DB	07H
	DB	016H
	DB	016H
	DB	016H
	DB	016H
	DB	021H
	DB	0aH
	DB	0aH
	DB	0aH
	DB	05fH
	DB	0d7H
	DB	0eH
	DB	03H
	DB	02H
	DB	02H
	DB	02H
	DB	02H
	DB	02H
	DB	02H
	DB	02H
	DB	02H
	DB	02H
	DB	02cH
	DB	0dH
	DB	033H
	DB	02H
	DB	01aH
	DB	05H
	DB	04H
	DB	06H
	DB	03H
	DB	05H
	DB	04H
	DB	06H
	DB	03H
	DB	05H
	DB	04H
	DB	06H
	DB	03H
	DB	05H
	DB	04H
	DB	06H
	DB	03H
	DB	05H
	DB	04H
	DB	06H
	DB	04H
	DB	05H
	DB	04H
	DB	06H
	DB	04H
	DB	05H
	DB	03H
	DB	06H
	DB	04H
	DB	05H
	DB	03H
	DB	06H
	DB	04H
	DB	05H
	DB	03H
	DB	06H
	DB	04H
	DB	05H
	DB	03H
	DB	06H
	DB	04H
	DB	05H
	DB	03H
	DB	06H
	DB	04H
	DB	05H
	DB	03H
	DB	06H
	DB	04H
	DB	05H
	DB	044H
	DB	06H
	DB	06H
	DB	05H
	DB	026H
	DB	06H
	DB	06H
	DB	05H
	DB	026H
	DB	06H
	DB	06H
	DB	05H
	DB	026H
	DB	06H
	DB	06H
	DB	05H
	DB	05H
	DB	06H
	DB	06H
	DB	05H
	DB	05H
	DB	06H
	DB	06H
	DB	05H
	DB	05H
	DB	06H
	DB	06H
	DB	026H
	DB	05H
	DB	06H
	DB	06H
	DB	026H
	DB	05H
	DB	06H
	DB	06H
	DB	026H
	DB	05H
	DB	06H
	DB	06H
	DB	044H
	DB	05H
	DB	06H
	DB	06H
	DB	044H
	DB	05H
	DB	04H
	DB	06H
	DB	03H
	DB	05H
	DB	04H
	DB	06H
	DB	03H
	DB	05H
	DB	04H
	DB	06H
	DB	03H
	DB	05H
	DB	04H
	DB	06H
	DB	03H
	DB	05H
	DB	04H
	DB	06H
	DB	03H
	DB	05H
	DB	04H
	DB	06H
	DB	03H
	DB	05H
	DB	04H
	DB	06H
	DB	04H
	DB	05H
	DB	04H
	DB	06H
	DB	04H
	DB	05H
	DB	03H
	DB	06H
	DB	04H
	DB	05H
	DB	03H
	DB	06H
	DB	04H
	DB	05H
	DB	03H
	DB	06H
	DB	04H
	DB	05H
	DB	03H
	DB	06H
	DB	04H
	DB	05H
	DB	03H
	DB	06H
	DB	04H
	DB	05H
	DB	03H
	DB	06H
	DB	04H
	DB	05H
	DB	044H
	DB	041H
	DB	038H
	DB	07H
	DB	07H
	DB	07H
	DB	07H
	DB	07H
	DB	03eH
	DB	030H
	DB	03aH
	DB	015H
	DB	02H
	DB	02H
	DB	02H
	DB	02H
	DB	02H
	DB	02H
	DB	02H
	DB	02H
	DB	02H
	DB	02H
	DB	02H
	DB	02H
	DB	02H
	DB	02H
	DB	02H
	DB	02H
	DB	02H
	DB	02H
	DB	02H
	DB	02H
	DB	02H
	DB	02H
	DB	02H
	DB	02H
	DB	02H
	DB	02H
	DB	02H
	DB	02H
	DB	02H
	DB	037H
	DB	060H
	DB	07H
	DB	07H
	DB	07H
	DB	01fH
	DB	02H
	DB	053H
	DB	0cfH
	DB	07H
	DB	07H
	DB	0d3H
	DB	016H
	DB	016H
	DB	0bbH
	DB	016H
	DB	09fH
	DB	0aH
	DB	0aH
	DB	0aH
	DB	06fH
	DB	0eH
	DB	0eH
	DB	06H
	DB	02H
	DB	02H
	DB	02H
	DB	02H
	DB	02H
	DB	02H
	DB	02H
	DB	02H
	DB	02H
	DB	036H
	DB	0dH
	DB	08H
	DB	02H
	DB	06H
	DB	04H
	DB	05H
	DB	08H
	DB	044H
	DB	04H
	DB	05H
	DB	08H
	DB	044H
	DB	04H
	DB	05H
	DB	08H
	DB	026H
	DB	04H
	DB	05H
	DB	08H
	DB	026H
	DB	04H
	DB	026H
	DB	08H
	DB	026H
	DB	04H
	DB	026H
	DB	08H
	DB	05H
	DB	04H
	DB	026H
	DB	08H
	DB	05H
	DB	04H
	DB	026H
	DB	08H
	DB	05H
	DB	04H
	DB	044H
	DB	08H
	DB	05H
	DB	04H
	DB	03H
	DB	08H
	DB	05H
	DB	04H
	DB	03H
	DB	08H
	DB	05H
	DB	04H
	DB	03H
	DB	08H
	DB	08H
	DB	04H
	DB	03H
	DB	08H
	DB	08H
	DB	04H
	DB	03H
	DB	08H
	DB	08H
	DB	04H
	DB	03H
	DB	08H
	DB	08H
	DB	04H
	DB	03H
	DB	08H
	DB	08H
	DB	04H
	DB	04H
	DB	08H
	DB	08H
	DB	04H
	DB	04H
	DB	08H
	DB	08H
	DB	04H
	DB	04H
	DB	08H
	DB	08H
	DB	03H
	DB	04H
	DB	08H
	DB	08H
	DB	03H
	DB	04H
	DB	08H
	DB	08H
	DB	03H
	DB	04H
	DB	08H
	DB	08H
	DB	03H
	DB	04H
	DB	08H
	DB	08H
	DB	03H
	DB	04H
	DB	08H
	DB	08H
	DB	03H
	DB	04H
	DB	05H
	DB	08H
	DB	03H
	DB	04H
	DB	05H
	DB	08H
	DB	044H
	DB	04H
	DB	05H
	DB	08H
	DB	044H
	DB	04H
	DB	05H
	DB	08H
	DB	026H
	DB	04H
	DB	05H
	DB	08H
	DB	026H
	DB	04H
	DB	026H
	DB	08H
	DB	026H
	DB	04H
	DB	026H
	DB	08H
	DB	05H
	DB	04H
	DB	026H
	DB	08H
	DB	05H
	DB	04H
	DB	026H
	DB	08H
	DB	05H
	DB	04H
	DB	044H
	DB	08H
	DB	05H
	DB	04H
	DB	03H
	DB	08H
	DB	05H
	DB	04H
	DB	03H
	DB	08H
	DB	05H
	DB	04H
	DB	03H
	DB	08H
	DB	0eeH
	DB	057H
	DB	07H
	DB	03cH
	DB	07H
	DB	07H
	DB	07H
	DB	01fH
	DB	022H
	DB	034H
	DB	02H
	DB	02H
	DB	02H
	DB	02H
	DB	02H
	DB	02H
	DB	02H
	DB	02H
	DB	02H
	DB	02H
	DB	02H
	DB	02H
	DB	02H
	DB	02H
	DB	02H
	DB	02H
	DB	02H
	DB	02H
	DB	02H
	DB	02H
	DB	02H
	DB	02H
	DB	02H
	DB	02H
	DB	02H
	DB	02H
	DB	02H
	DB	02H
	DB	02H
	DB	02H
	DB	02H
	DB	02H
	DB	02H
	DB	031H
	DB	037H
	DB	053H
	DB	07H
	DB	07H
	DB	0cfH
	DB	015H
	DB	015H
	DB	07H
	DB	07H
	DB	07H
	DB	051H
	DB	0bbH
	DB	0bbH
	DB	0bbH
	DB	09eH
	DB	014H
	DB	0aH
	DB	0aH
	DB	0aH
	DB	0adH
	DB	0eH
	DB	0eH
	DB	02H
	DB	02H
	DB	02H
	DB	02H
	DB	02H
	DB	02H
	DB	02H
	DB	02H
	DB	02H
	DB	01aH
	DB	0dH
	DB	0dH
	DB	044H
	DB	02H
	DB	06H
	DB	06H
	DB	03H
	DB	05H
	DB	04H
	DB	06H
	DB	03H
	DB	05H
	DB	04H
	DB	06H
	DB	03H
	DB	05H
	DB	04H
	DB	06H
	DB	03H
	DB	05H
	DB	04H
	DB	06H
	DB	04H
	DB	05H
	DB	04H
	DB	06H
	DB	04H
	DB	05H
	DB	03H
	DB	06H
	DB	04H
	DB	05H
	DB	03H
	DB	06H
	DB	04H
	DB	05H
	DB	03H
	DB	06H
	DB	04H
	DB	05H
	DB	03H
	DB	06H
	DB	04H
	DB	05H
	DB	03H
	DB	06H
	DB	04H
	DB	05H
	DB	03H
	DB	06H
	DB	04H
	DB	05H
	DB	044H
	DB	06H
	DB	06H
	DB	05H
	DB	044H
	DB	06H
	DB	06H
	DB	05H
	DB	026H
	DB	06H
	DB	06H
	DB	05H
	DB	026H
	DB	06H
	DB	06H
	DB	05H
	DB	026H
	DB	06H
	DB	06H
	DB	05H
	DB	05H
	DB	06H
	DB	06H
	DB	05H
	DB	05H
	DB	06H
	DB	06H
	DB	05H
	DB	05H
	DB	06H
	DB	06H
	DB	026H
	DB	05H
	DB	06H
	DB	06H
	DB	026H
	DB	05H
	DB	06H
	DB	06H
	DB	026H
	DB	05H
	DB	06H
	DB	06H
	DB	044H
	DB	05H
	DB	06H
	DB	06H
	DB	03H
	DB	05H
	DB	04H
	DB	06H
	DB	03H
	DB	05H
	DB	04H
	DB	06H
	DB	03H
	DB	05H
	DB	04H
	DB	06H
	DB	03H
	DB	05H
	DB	04H
	DB	06H
	DB	03H
	DB	05H
	DB	04H
	DB	06H
	DB	03H
	DB	05H
	DB	04H
	DB	06H
	DB	04H
	DB	05H
	DB	04H
	DB	06H
	DB	04H
	DB	05H
	DB	03H
	DB	06H
	DB	04H
	DB	05H
	DB	03H
	DB	06H
	DB	04H
	DB	05H
	DB	03H
	DB	06H
	DB	04H
	DB	05H
	DB	03H
	DB	06H
	DB	04H
	DB	05H
	DB	03H
	DB	06H
	DB	04H
	DB	05H
	DB	0e1H
	DB	038H
	DB	07H
	DB	05dH
	DB	03cH
	DB	03cH
	DB	03cH
	DB	0cfH
	DB	066H
	DB	0fH
	DB	015H
	DB	02H
	DB	02H
	DB	02H
	DB	02H
	DB	02H
	DB	02H
	DB	02H
	DB	02H
	DB	02H
	DB	02H
	DB	02H
	DB	02H
	DB	02H
	DB	02H
	DB	02H
	DB	02H
	DB	02H
	DB	02H
	DB	02H
	DB	02H
	DB	02H
	DB	02H
	DB	02H
	DB	02H
	DB	02H
	DB	02H
	DB	02H
	DB	02H
	DB	02H
	DB	02H
	DB	02H
	DB	02H
	DB	02H
	DB	02H
	DB	02H
	DB	02H
	DB	020H
	DB	037H
	DB	03bH
	DB	07H
	DB	07H
	DB	07H
	DB	02H
	DB	01aH
	DB	07H
	DB	07H
	DB	07H
	DB	019H
	DB	0bbH
	DB	0bbH
	DB	0bbH
	DB	029H
	DB	095H
	DB	0aH
	DB	0aH
	DB	0aH
	DB	07aH
	DB	0eH
	DB	033H
	DB	02H
	DB	02H
	DB	02H
	DB	02H
	DB	02H
	DB	02H
	DB	02H
	DB	02H
	DB	02H
	DB	04H
	DB	0dH
	DB	0dH
	DB	04H
	DB	02H
	DB	03H
	DB	08H
	DB	044H
	DB	04H
	DB	05H
	DB	08H
	DB	044H
	DB	04H
	DB	05H
	DB	08H
	DB	026H
	DB	04H
	DB	05H
	DB	08H
	DB	026H
	DB	04H
	DB	05H
	DB	08H
	DB	026H
	DB	04H
	DB	026H
	DB	08H
	DB	026H
	DB	04H
	DB	026H
	DB	08H
	DB	05H
	DB	04H
	DB	026H
	DB	08H
	DB	05H
	DB	04H
	DB	044H
	DB	08H
	DB	05H
	DB	04H
	DB	044H
	DB	08H
	DB	05H
	DB	04H
	DB	03H
	DB	08H
	DB	05H
	DB	04H
	DB	03H
	DB	08H
	DB	08H
	DB	04H
	DB	03H
	DB	08H
	DB	08H
	DB	04H
	DB	03H
	DB	08H
	DB	08H
	DB	04H
	DB	03H
	DB	08H
	DB	08H
	DB	04H
	DB	03H
	DB	08H
	DB	08H
	DB	04H
	DB	03H
	DB	08H
	DB	08H
	DB	04H
	DB	04H
	DB	08H
	DB	08H
	DB	04H
	DB	04H
	DB	08H
	DB	08H
	DB	04H
	DB	04H
	DB	08H
	DB	08H
	DB	03H
	DB	04H
	DB	08H
	DB	08H
	DB	03H
	DB	04H
	DB	08H
	DB	08H
	DB	03H
	DB	04H
	DB	08H
	DB	08H
	DB	03H
	DB	04H
	DB	08H
	DB	08H
	DB	03H
	DB	04H
	DB	05H
	DB	08H
	DB	03H
	DB	04H
	DB	05H
	DB	08H
	DB	044H
	DB	04H
	DB	05H
	DB	08H
	DB	044H
	DB	04H
	DB	05H
	DB	08H
	DB	026H
	DB	04H
	DB	05H
	DB	08H
	DB	026H
	DB	04H
	DB	05H
	DB	08H
	DB	026H
	DB	04H
	DB	026H
	DB	08H
	DB	026H
	DB	04H
	DB	026H
	DB	08H
	DB	05H
	DB	04H
	DB	026H
	DB	08H
	DB	05H
	DB	04H
	DB	044H
	DB	08H
	DB	05H
	DB	04H
	DB	044H
	DB	08H
	DB	05H
	DB	04H
	DB	03H
	DB	0eeH
	DB	0b5H
	DB	05dH
	DB	05dH
	DB	05dH
	DB	05dH
	DB	03cH
	DB	03eH
	DB	030H
	DB	0cH
	DB	02H
	DB	02H
	DB	02H
	DB	02H
	DB	02H
	DB	02H
	DB	02H
	DB	02H
	DB	02H
	DB	02H
	DB	02H
	DB	02H
	DB	02H
	DB	02H
	DB	02H
	DB	02H
	DB	02H
	DB	02H
	DB	02H
	DB	02H
	DB	02H
	DB	02H
	DB	02H
	DB	02H
	DB	02H
	DB	02H
	DB	02H
	DB	02H
	DB	02H
	DB	02H
	DB	02H
	DB	02H
	DB	02H
	DB	02H
	DB	02H
	DB	02H
	DB	02H
	DB	02H
	DB	02H
	DB	02H
	DB	02H
	DB	032H
	DB	037H
	DB	07H
	DB	07H
	DB	07H
	DB	02H
	DB	04eH
	DB	07H
	DB	07H
	DB	07H
	DB	082H
	DB	0bbH
	DB	0bbH
	DB	0bbH
	DB	0dcH
	DB	011H
	DB	0aH
	DB	0aH
	DB	088H
	DB	074H
	DB	0eH
	DB	02cH
	DB	02H
	DB	02H
	DB	02H
	DB	02H
	DB	02H
	DB	02H
	DB	02H
	DB	02H
	DB	02H
	DB	044H
	DB	0dH
	DB	0dH
	DB	01aH
	DB	02H
	DB	03H
	DB	05H
	DB	04H
	DB	06H
	DB	03H
	DB	05H
	DB	04H
	DB	06H
	DB	03H
	DB	05H
	DB	04H
	DB	06H
	DB	03H
	DB	05H
	DB	04H
	DB	06H
	DB	03H
	DB	05H
	DB	04H
	DB	06H
	DB	04H
	DB	05H
	DB	04H
	DB	06H
	DB	04H
	DB	05H
	DB	03H
	DB	06H
	DB	04H
	DB	05H
	DB	03H
	DB	06H
	DB	04H
	DB	05H
	DB	03H
	DB	06H
	DB	04H
	DB	05H
	DB	03H
	DB	06H
	DB	04H
	DB	05H
	DB	03H
	DB	06H
	DB	04H
	DB	05H
	DB	03H
	DB	06H
	DB	06H
	DB	05H
	DB	044H
	DB	06H
	DB	06H
	DB	05H
	DB	026H
	DB	06H
	DB	06H
	DB	05H
	DB	026H
	DB	06H
	DB	06H
	DB	05H
	DB	026H
	DB	06H
	DB	06H
	DB	05H
	DB	05H
	DB	06H
	DB	06H
	DB	05H
	DB	05H
	DB	06H
	DB	06H
	DB	05H
	DB	05H
	DB	06H
	DB	06H
	DB	05H
	DB	05H
	DB	06H
	DB	06H
	DB	026H
	DB	05H
	DB	06H
	DB	06H
	DB	026H
	DB	05H
	DB	06H
	DB	06H
	DB	044H
	DB	05H
	DB	06H
	DB	06H
	DB	044H
	DB	05H
	DB	06H
	DB	06H
	DB	03H
	DB	05H
	DB	04H
	DB	06H
	DB	03H
	DB	05H
	DB	04H
	DB	06H
	DB	03H
	DB	05H
	DB	04H
	DB	06H
	DB	03H
	DB	05H
	DB	04H
	DB	06H
	DB	03H
	DB	05H
	DB	04H
	DB	06H
	DB	03H
	DB	05H
	DB	04H
	DB	06H
	DB	04H
	DB	05H
	DB	04H
	DB	06H
	DB	04H
	DB	05H
	DB	03H
	DB	06H
	DB	04H
	DB	05H
	DB	03H
	DB	06H
	DB	04H
	DB	05H
	DB	03H
	DB	06H
	DB	04H
	DB	05H
	DB	08cH
	DB	07H
	DB	05dH
	DB	05dH
	DB	05dH
	DB	05dH
	DB	07H
	DB	01fH
	DB	022H
	DB	020H
	DB	02H
	DB	02H
	DB	02H
	DB	02H
	DB	02H
	DB	02H
	DB	02H
	DB	02H
	DB	02H
	DB	02H
	DB	02H
	DB	02H
	DB	02H
	DB	02H
	DB	02H
	DB	02H
	DB	02H
	DB	02H
	DB	02H
	DB	02H
	DB	02H
	DB	02H
	DB	02H
	DB	02H
	DB	02H
	DB	02H
	DB	02H
	DB	02H
	DB	02H
	DB	02H
	DB	02H
	DB	02H
	DB	02H
	DB	02H
	DB	02H
	DB	02H
	DB	02H
	DB	02H
	DB	02H
	DB	02H
	DB	02H
	DB	02H
	DB	02H
	DB	02H
	DB	032H
	DB	032H
	DB	07H
	DB	07H
	DB	07H
	DB	020H
	DB	038H
	DB	07H
	DB	07H
	DB	07H
	DB	0baH
	DB	0bbH
	DB	0bbH
	DB	0bbH
	DB	023H
	DB	011H
	DB	0aH
	DB	0aH
	DB	04fH
	DB	067H
	DB	0eH
	DB	08H
	DB	02H
	DB	02H
	DB	02H
	DB	02H
	DB	02H
	DB	02H
	DB	02H
	DB	02H
	DB	02H
	DB	08H
	DB	0dH
	DB	033H
	DB	02H
	DB	01aH
	DB	03H
	DB	04H
	DB	05H
	DB	08H
	DB	044H
	DB	04H
	DB	05H
	DB	08H
	DB	026H
	DB	04H
	DB	05H
	DB	08H
	DB	026H
	DB	04H
	DB	05H
	DB	08H
	DB	026H
	DB	04H
	DB	05H
	DB	08H
	DB	026H
	DB	04H
	DB	026H
	DB	08H
	DB	05H
	DB	04H
	DB	026H
	DB	08H
	DB	05H
	DB	04H
	DB	026H
	DB	08H
	DB	05H
	DB	04H
	DB	044H
	DB	08H
	DB	05H
	DB	04H
	DB	044H
	DB	08H
	DB	05H
	DB	04H
	DB	03H
	DB	08H
	DB	05H
	DB	04H
	DB	03H
	DB	08H
	DB	08H
	DB	04H
	DB	03H
	DB	08H
	DB	08H
	DB	04H
	DB	03H
	DB	08H
	DB	08H
	DB	04H
	DB	03H
	DB	08H
	DB	08H
	DB	04H
	DB	03H
	DB	08H
	DB	08H
	DB	04H
	DB	03H
	DB	08H
	DB	08H
	DB	04H
	DB	04H
	DB	08H
	DB	08H
	DB	04H
	DB	04H
	DB	08H
	DB	08H
	DB	03H
	DB	04H
	DB	08H
	DB	08H
	DB	03H
	DB	04H
	DB	08H
	DB	08H
	DB	03H
	DB	04H
	DB	08H
	DB	08H
	DB	03H
	DB	04H
	DB	08H
	DB	08H
	DB	03H
	DB	04H
	DB	08H
	DB	08H
	DB	03H
	DB	04H
	DB	05H
	DB	08H
	DB	03H
	DB	04H
	DB	05H
	DB	08H
	DB	044H
	DB	04H
	DB	05H
	DB	08H
	DB	026H
	DB	04H
	DB	05H
	DB	08H
	DB	026H
	DB	04H
	DB	05H
	DB	08H
	DB	026H
	DB	04H
	DB	05H
	DB	08H
	DB	026H
	DB	04H
	DB	026H
	DB	08H
	DB	05H
	DB	04H
	DB	026H
	DB	08H
	DB	05H
	DB	04H
	DB	026H
	DB	08H
	DB	05H
	DB	04H
	DB	0b3H
	DB	0b5H
	DB	05dH
	DB	012H
	DB	05dH
	DB	05dH
	DB	05dH
	DB	0cfH
	DB	066H
	DB	027H
	DB	02H
	DB	02H
	DB	02H
	DB	02H
	DB	02H
	DB	02H
	DB	02H
	DB	02H
	DB	02H
	DB	02H
	DB	02H
	DB	02H
	DB	02H
	DB	02H
	DB	02H
	DB	02H
	DB	02H
	DB	02H
	DB	02H
	DB	02H
	DB	02H
	DB	02H
	DB	02H
	DB	02H
	DB	02H
	DB	02H
	DB	02H
	DB	02H
	DB	02H
	DB	02H
	DB	02H
	DB	02H
	DB	02H
	DB	02H
	DB	02H
	DB	02H
	DB	02H
	DB	02H
	DB	02H
	DB	02H
	DB	02H
	DB	02H
	DB	02H
	DB	02H
	DB	02H
	DB	02H
	DB	02H
	DB	02H
	DB	032H
	DB	032H
	DB	07H
	DB	07H
	DB	07H
	DB	03aH
	DB	01fH
	DB	07H
	DB	07H
	DB	07H
	DB	093H
	DB	0bbH
	DB	0bbH
	DB	0bbH
	DB	023H
	DB	0a1H
	DB	0aH
	DB	0aH
	DB	06aH
	DB	05bH
	DB	0eH
	DB	03H
	DB	02H
	DB	02H
	DB	02H
	DB	02H
	DB	02H
	DB	02H
	DB	02H
	DB	02H
	DB	02H
	DB	02cH
	DB	0dH
	DB	02cH
	DB	02H
	DB	01aH
	DB	04H
	DB	06H
	DB	03H
	DB	05H
	DB	04H
	DB	06H
	DB	03H
	DB	05H
	DB	04H
	DB	06H
	DB	03H
	DB	05H
	DB	04H
	DB	06H
	DB	03H
	DB	05H
	DB	04H
	DB	06H
	DB	04H
	DB	05H
	DB	04H
	DB	06H
	DB	04H
	DB	05H
	DB	03H
	DB	06H
	DB	04H
	DB	05H
	DB	03H
	DB	06H
	DB	04H
	DB	05H
	DB	03H
	DB	06H
	DB	04H
	DB	05H
	DB	03H
	DB	06H
	DB	04H
	DB	05H
	DB	03H
	DB	06H
	DB	04H
	DB	05H
	DB	03H
	DB	06H
	DB	06H
	DB	05H
	DB	044H
	DB	06H
	DB	06H
	DB	05H
	DB	044H
	DB	06H
	DB	06H
	DB	05H
	DB	026H
	DB	06H
	DB	06H
	DB	05H
	DB	026H
	DB	06H
	DB	06H
	DB	05H
	DB	05H
	DB	06H
	DB	06H
	DB	05H
	DB	05H
	DB	06H
	DB	06H
	DB	05H
	DB	05H
	DB	06H
	DB	06H
	DB	05H
	DB	05H
	DB	06H
	DB	06H
	DB	026H
	DB	05H
	DB	06H
	DB	06H
	DB	026H
	DB	05H
	DB	06H
	DB	06H
	DB	026H
	DB	05H
	DB	06H
	DB	06H
	DB	044H
	DB	05H
	DB	06H
	DB	06H
	DB	044H
	DB	05H
	DB	04H
	DB	06H
	DB	03H
	DB	05H
	DB	04H
	DB	06H
	DB	03H
	DB	05H
	DB	04H
	DB	06H
	DB	03H
	DB	05H
	DB	04H
	DB	06H
	DB	03H
	DB	05H
	DB	04H
	DB	06H
	DB	03H
	DB	05H
	DB	04H
	DB	06H
	DB	04H
	DB	05H
	DB	04H
	DB	06H
	DB	04H
	DB	05H
	DB	03H
	DB	06H
	DB	04H
	DB	05H
	DB	03H
	DB	06H
	DB	04H
	DB	0b4H
	DB	079H
	DB	012H
	DB	012H
	DB	012H
	DB	012H
	DB	05dH
	DB	03eH
	DB	022H
	DB	0bH
	DB	02H
	DB	02H
	DB	02H
	DB	02H
	DB	02H
	DB	02H
	DB	02H
	DB	02H
	DB	02H
	DB	02H
	DB	02H
	DB	02H
	DB	02H
	DB	02H
	DB	02H
	DB	02H
	DB	02H
	DB	02H
	DB	02H
	DB	02H
	DB	02H
	DB	02H
	DB	02H
	DB	02H
	DB	02H
	DB	02H
	DB	02H
	DB	02H
	DB	02H
	DB	02H
	DB	02H
	DB	02H
	DB	02H
	DB	02H
	DB	02H
	DB	02H
	DB	02H
	DB	02H
	DB	02H
	DB	02H
	DB	02H
	DB	02H
	DB	02H
	DB	02H
	DB	02H
	DB	02H
	DB	02H
	DB	02H
	DB	02H
	DB	02H
	DB	02H
	DB	032H
	DB	032H
	DB	07H
	DB	07H
	DB	07H
	DB	03bH
	DB	01fH
	DB	07H
	DB	07H
	DB	07H
	DB	02bH
	DB	0bbH
	DB	0bbH
	DB	0bbH
	DB	0aeH
	DB	088H
	DB	0aH
	DB	0aH
	DB	06aH
	DB	046H
	DB	0eH
	DB	04H
	DB	02H
	DB	02H
	DB	02H
	DB	02H
	DB	02H
	DB	02H
	DB	02H
	DB	02H
	DB	02H
	DB	033H
	DB	0dH
	DB	08H
	DB	02H
	DB	01aH
	DB	05H
	DB	08H
	DB	044H
	DB	04H
	DB	05H
	DB	08H
	DB	044H
	DB	04H
	DB	05H
	DB	08H
	DB	026H
	DB	04H
	DB	05H
	DB	08H
	DB	026H
	DB	04H
	DB	05H
	DB	08H
	DB	026H
	DB	04H
	DB	026H
	DB	08H
	DB	026H
	DB	04H
	DB	026H
	DB	08H
	DB	05H
	DB	04H
	DB	026H
	DB	08H
	DB	05H
	DB	04H
	DB	026H
	DB	08H
	DB	05H
	DB	04H
	DB	044H
	DB	08H
	DB	05H
	DB	04H
	DB	03H
	DB	08H
	DB	05H
	DB	04H
	DB	03H
	DB	08H
	DB	05H
	DB	04H
	DB	03H
	DB	08H
	DB	08H
	DB	04H
	DB	03H
	DB	08H
	DB	08H
	DB	04H
	DB	03H
	DB	08H
	DB	08H
	DB	04H
	DB	03H
	DB	08H
	DB	08H
	DB	04H
	DB	03H
	DB	08H
	DB	08H
	DB	04H
	DB	03H
	DB	08H
	DB	08H
	DB	04H
	DB	04H
	DB	08H
	DB	08H
	DB	03H
	DB	04H
	DB	08H
	DB	08H
	DB	03H
	DB	04H
	DB	08H
	DB	08H
	DB	03H
	DB	04H
	DB	08H
	DB	08H
	DB	03H
	DB	04H
	DB	08H
	DB	08H
	DB	03H
	DB	04H
	DB	08H
	DB	08H
	DB	03H
	DB	04H
	DB	05H
	DB	08H
	DB	03H
	DB	04H
	DB	05H
	DB	08H
	DB	044H
	DB	04H
	DB	05H
	DB	08H
	DB	044H
	DB	04H
	DB	05H
	DB	08H
	DB	026H
	DB	04H
	DB	05H
	DB	08H
	DB	026H
	DB	04H
	DB	05H
	DB	08H
	DB	026H
	DB	04H
	DB	026H
	DB	08H
	DB	026H
	DB	04H
	DB	026H
	DB	08H
	DB	05H
	DB	0e1H
	DB	0b5H
	DB	012H
	DB	012H
	DB	012H
	DB	012H
	DB	012H
	DB	07H
	DB	01fH
	DB	03aH
	DB	02H
	DB	02H
	DB	02H
	DB	02H
	DB	02H
	DB	02H
	DB	02H
	DB	02H
	DB	02H
	DB	02H
	DB	02H
	DB	02H
	DB	02H
	DB	02H
	DB	02H
	DB	02H
	DB	02H
	DB	02H
	DB	02H
	DB	02H
	DB	02H
	DB	02H
	DB	02H
	DB	02H
	DB	02H
	DB	02H
	DB	02H
	DB	02H
	DB	02H
	DB	02H
	DB	02H
	DB	02H
	DB	02H
	DB	02H
	DB	02H
	DB	02H
	DB	02H
	DB	02H
	DB	02H
	DB	02H
	DB	02H
	DB	02H
	DB	02H
	DB	02H
	DB	02H
	DB	02H
	DB	02H
	DB	02H
	DB	02H
	DB	02H
	DB	02H
	DB	02H
	DB	02H
	DB	02H
	DB	02H
	DB	032H
	DB	032H
	DB	07H
	DB	07H
	DB	07H
	DB	053H
	DB	03eH
	DB	07H
	DB	07H
	DB	07H
	DB	0bbH
	DB	0bbH
	DB	0bbH
	DB	0bbH
	DB	021H
	DB	0aH
	DB	0aH
	DB	0aH
	DB	05fH
	DB	0eH
	DB	0eH
	DB	06H
	DB	02H
	DB	02H
	DB	02H
	DB	02H
	DB	02H
	DB	02H
	DB	02H
	DB	02H
	DB	02H
	DB	0dH
	DB	0dH
	DB	026H
	DB	02H
	DB	01aH
	DB	03H
	DB	05H
	DB	04H
	DB	06H
	DB	03H
	DB	05H
	DB	04H
	DB	06H
	DB	03H
	DB	05H
	DB	04H
	DB	06H
	DB	03H
	DB	05H
	DB	04H
	DB	06H
	DB	03H
	DB	05H
	DB	04H
	DB	06H
	DB	04H
	DB	05H
	DB	04H
	DB	06H
	DB	04H
	DB	05H
	DB	03H
	DB	06H
	DB	04H
	DB	05H
	DB	03H
	DB	06H
	DB	04H
	DB	05H
	DB	03H
	DB	06H
	DB	04H
	DB	05H
	DB	03H
	DB	06H
	DB	04H
	DB	05H
	DB	03H
	DB	06H
	DB	04H
	DB	05H
	DB	044H
	DB	06H
	DB	06H
	DB	05H
	DB	044H
	DB	06H
	DB	06H
	DB	05H
	DB	026H
	DB	06H
	DB	06H
	DB	05H
	DB	026H
	DB	06H
	DB	06H
	DB	05H
	DB	026H
	DB	06H
	DB	06H
	DB	05H
	DB	05H
	DB	06H
	DB	06H
	DB	05H
	DB	05H
	DB	06H
	DB	06H
	DB	05H
	DB	05H
	DB	06H
	DB	06H
	DB	05H
	DB	05H
	DB	06H
	DB	06H
	DB	026H
	DB	05H
	DB	06H
	DB	06H
	DB	026H
	DB	05H
	DB	06H
	DB	06H
	DB	026H
	DB	05H
	DB	06H
	DB	06H
	DB	044H
	DB	05H
	DB	06H
	DB	06H
	DB	03H
	DB	05H
	DB	04H
	DB	06H
	DB	03H
	DB	05H
	DB	04H
	DB	06H
	DB	03H
	DB	05H
	DB	04H
	DB	06H
	DB	03H
	DB	05H
	DB	04H
	DB	06H
	DB	03H
	DB	05H
	DB	04H
	DB	06H
	DB	03H
	DB	05H
	DB	04H
	DB	06H
	DB	04H
	DB	05H
	DB	04H
	DB	06H
	DB	08cH
	DB	079H
	DB	080H
	DB	080H
	DB	080H
	DB	012H
	DB	012H
	DB	078H
	DB	05eH
	DB	0cH
	DB	02H
	DB	02H
	DB	02H
	DB	02H
	DB	02H
	DB	02H
	DB	02H
	DB	02H
	DB	02H
	DB	02H
	DB	02H
	DB	02H
	DB	02H
	DB	02H
	DB	02H
	DB	02H
	DB	02H
	DB	02H
	DB	02H
	DB	02H
	DB	02H
	DB	02H
	DB	02H
	DB	02H
	DB	02H
	DB	02H
	DB	02H
	DB	02H
	DB	02H
	DB	02H
	DB	02H
	DB	02H
	DB	02H
	DB	02H
	DB	02H
	DB	02H
	DB	02H
	DB	02H
	DB	02H
	DB	02H
	DB	02H
	DB	02H
	DB	02H
	DB	02H
	DB	02H
	DB	02H
	DB	02H
	DB	02H
	DB	02H
	DB	02H
	DB	02H
	DB	02H
	DB	02H
	DB	02H
	DB	02H
	DB	02H
	DB	02H
	DB	02H
	DB	031H
	DB	032H
	DB	07H
	DB	07H
	DB	07H
	DB	01fH
	DB	03eH
	DB	07H
	DB	07H
	DB	03cH
	DB	0bbH
	DB	0bbH
	DB	0bbH
	DB	0bbH
	DB	021H
	DB	0aH
	DB	0aH
	DB	0aH
	DB	06fH
	DB	0eH
	DB	0eH
	DB	02H
	DB	02H
	DB	02H
	DB	02H
	DB	02H
	DB	02H
	DB	02H
	DB	02H
	DB	02H
	DB	01aH
	DB	0dH
	DB	0dH
	DB	03H
	DB	02H
	DB	03H
	DB	03H
	DB	04H
	DB	05H
	DB	08H
	DB	044H
	DB	04H
	DB	05H
	DB	08H
	DB	044H
	DB	04H
	DB	05H
	DB	08H
	DB	026H
	DB	04H
	DB	05H
	DB	08H
	DB	026H
	DB	04H
	DB	026H
	DB	08H
	DB	026H
	DB	04H
	DB	026H
	DB	08H
	DB	026H
	DB	04H
	DB	026H
	DB	08H
	DB	05H
	DB	04H
	DB	026H
	DB	08H
	DB	05H
	DB	04H
	DB	044H
	DB	08H
	DB	05H
	DB	04H
	DB	044H
	DB	08H
	DB	05H
	DB	04H
	DB	03H
	DB	08H
	DB	05H
	DB	04H
	DB	03H
	DB	08H
	DB	05H
	DB	04H
	DB	03H
	DB	08H
	DB	08H
	DB	04H
	DB	03H
	DB	08H
	DB	08H
	DB	04H
	DB	03H
	DB	08H
	DB	08H
	DB	04H
	DB	03H
	DB	08H
	DB	08H
	DB	04H
	DB	03H
	DB	08H
	DB	08H
	DB	04H
	DB	04H
	DB	08H
	DB	08H
	DB	03H
	DB	04H
	DB	08H
	DB	08H
	DB	03H
	DB	04H
	DB	08H
	DB	08H
	DB	03H
	DB	04H
	DB	08H
	DB	08H
	DB	03H
	DB	04H
	DB	08H
	DB	08H
	DB	03H
	DB	04H
	DB	08H
	DB	08H
	DB	03H
	DB	04H
	DB	05H
	DB	08H
	DB	03H
	DB	04H
	DB	05H
	DB	08H
	DB	03H
	DB	04H
	DB	05H
	DB	08H
	DB	044H
	DB	04H
	DB	05H
	DB	08H
	DB	044H
	DB	04H
	DB	05H
	DB	08H
	DB	026H
	DB	04H
	DB	05H
	DB	08H
	DB	026H
	DB	04H
	DB	026H
	DB	08H
	DB	0b3H
	DB	0b5H
	DB	080H
	DB	080H
	DB	080H
	DB	080H
	DB	080H
	DB	05dH
	DB	01fH
	DB	02dH
	DB	015H
	DB	02H
	DB	02H
	DB	02H
	DB	02H
	DB	02H
	DB	02H
	DB	02H
	DB	02H
	DB	02H
	DB	02H
	DB	02H
	DB	02H
	DB	02H
	DB	02H
	DB	02H
	DB	02H
	DB	02H
	DB	02H
	DB	02H
	DB	02H
	DB	02H
	DB	02H
	DB	02H
	DB	02H
	DB	02H
	DB	02H
	DB	02H
	DB	02H
	DB	02H
	DB	02H
	DB	02H
	DB	02H
	DB	02H
	DB	02H
	DB	02H
	DB	02H
	DB	02H
	DB	02H
	DB	02H
	DB	02H
	DB	02H
	DB	02H
	DB	02H
	DB	02H
	DB	02H
	DB	02H
	DB	02H
	DB	02H
	DB	02H
	DB	02H
	DB	02H
	DB	02H
	DB	02H
	DB	02H
	DB	02H
	DB	02H
	DB	02H
	DB	02H
	DB	02H
	DB	02H
	DB	02H
	DB	02fH
	DB	032H
	DB	03eH
	DB	07H
	DB	07H
	DB	03eH
	DB	0cfH
	DB	07H
	DB	07H
	DB	0d3H
	DB	0bbH
	DB	0bbH
	DB	0bbH
	DB	016H
	DB	021H
	DB	0aH
	DB	0aH
	DB	0aH
	DB	069H
	DB	0eH
	DB	0eH
	DB	02H
	DB	02H
	DB	02H
	DB	02H
	DB	02H
	DB	02H
	DB	02H
	DB	02H
	DB	02H
	DB	06H
	DB	0dH
	DB	0dH
	DB	04H
	DB	02H
	DB	03H
	DB	04H
	DB	06H
	DB	03H
	DB	05H
	DB	04H
	DB	06H
	DB	03H
	DB	05H
	DB	04H
	DB	06H
	DB	03H
	DB	05H
	DB	04H
	DB	06H
	DB	03H
	DB	05H
	DB	04H
	DB	06H
	DB	03H
	DB	05H
	DB	04H
	DB	06H
	DB	04H
	DB	05H
	DB	03H
	DB	06H
	DB	04H
	DB	05H
	DB	03H
	DB	06H
	DB	04H
	DB	05H
	DB	03H
	DB	06H
	DB	04H
	DB	05H
	DB	03H
	DB	06H
	DB	04H
	DB	05H
	DB	03H
	DB	06H
	DB	04H
	DB	05H
	DB	03H
	DB	06H
	DB	04H
	DB	05H
	DB	044H
	DB	06H
	DB	06H
	DB	05H
	DB	026H
	DB	06H
	DB	06H
	DB	05H
	DB	026H
	DB	06H
	DB	06H
	DB	05H
	DB	026H
	DB	06H
	DB	06H
	DB	05H
	DB	05H
	DB	06H
	DB	06H
	DB	05H
	DB	05H
	DB	06H
	DB	06H
	DB	05H
	DB	05H
	DB	06H
	DB	06H
	DB	05H
	DB	05H
	DB	06H
	DB	06H
	DB	05H
	DB	05H
	DB	06H
	DB	06H
	DB	026H
	DB	05H
	DB	06H
	DB	06H
	DB	026H
	DB	05H
	DB	06H
	DB	06H
	DB	044H
	DB	05H
	DB	06H
	DB	06H
	DB	044H
	DB	05H
	DB	04H
	DB	06H
	DB	03H
	DB	05H
	DB	04H
	DB	06H
	DB	03H
	DB	05H
	DB	04H
	DB	06H
	DB	03H
	DB	05H
	DB	04H
	DB	06H
	DB	03H
	DB	05H
	DB	04H
	DB	06H
	DB	03H
	DB	05H
	DB	04H
	DB	043H
	DB	079H
	DB	080H
	DB	04cH
	DB	04cH
	DB	080H
	DB	080H
	DB	07H
	DB	056H
	DB	0cH
	DB	02H
	DB	02H
	DB	02H
	DB	02H
	DB	02H
	DB	02H
	DB	02H
	DB	02H
	DB	02H
	DB	02H
	DB	02H
	DB	02H
	DB	02H
	DB	02H
	DB	02H
	DB	02H
	DB	02H
	DB	02H
	DB	02H
	DB	02H
	DB	02H
	DB	02H
	DB	02H
	DB	02H
	DB	02H
	DB	02H
	DB	02H
	DB	02H
	DB	02H
	DB	02H
	DB	02H
	DB	02H
	DB	02H
	DB	02H
	DB	02H
	DB	02H
	DB	02H
	DB	02H
	DB	02H
	DB	02H
	DB	02H
	DB	02H
	DB	02H
	DB	02H
	DB	02H
	DB	02H
	DB	02H
	DB	02H
	DB	02H
	DB	02H
	DB	02H
	DB	02H
	DB	02H
	DB	02H
	DB	02H
	DB	02H
	DB	02H
	DB	02H
	DB	02H
	DB	02H
	DB	02H
	DB	02H
	DB	02H
	DB	02H
	DB	02H
	DB	01cH
	DB	032H
	DB	040H
	DB	07H
	DB	07H
	DB	0cfH
	DB	07H
	DB	07H
	DB	07H
	DB	012H
	DB	0bbH
	DB	0bbH
	DB	0bbH
	DB	016H
	DB	09fH
	DB	0aH
	DB	0aH
	DB	0aH
	DB	059H
	DB	0eH
	DB	0b6H
	DB	02H
	DB	02H
	DB	02H
	DB	02H
	DB	02H
	DB	02H
	DB	02H
	DB	02H
	DB	02H
	DB	04H
	DB	0dH
	DB	0dH
	DB	06H
	DB	02H
	DB	04H
	DB	05H
	DB	08H
	DB	044H
	DB	03H
	DB	05H
	DB	08H
	DB	044H
	DB	03H
	DB	05H
	DB	08H
	DB	026H
	DB	03H
	DB	05H
	DB	08H
	DB	026H
	DB	03H
	DB	026H
	DB	08H
	DB	026H
	DB	03H
	DB	026H
	DB	08H
	DB	026H
	DB	03H
	DB	026H
	DB	08H
	DB	05H
	DB	03H
	DB	026H
	DB	08H
	DB	05H
	DB	03H
	DB	044H
	DB	08H
	DB	05H
	DB	03H
	DB	044H
	DB	08H
	DB	05H
	DB	03H
	DB	03H
	DB	08H
	DB	05H
	DB	03H
	DB	03H
	DB	08H
	DB	05H
	DB	03H
	DB	03H
	DB	08H
	DB	05H
	DB	03H
	DB	03H
	DB	08H
	DB	08H
	DB	03H
	DB	03H
	DB	08H
	DB	08H
	DB	03H
	DB	03H
	DB	08H
	DB	08H
	DB	03H
	DB	03H
	DB	08H
	DB	08H
	DB	03H
	DB	03H
	DB	08H
	DB	08H
	DB	03H
	DB	03H
	DB	08H
	DB	08H
	DB	03H
	DB	03H
	DB	08H
	DB	08H
	DB	03H
	DB	03H
	DB	08H
	DB	08H
	DB	03H
	DB	03H
	DB	08H
	DB	08H
	DB	03H
	DB	03H
	DB	08H
	DB	08H
	DB	03H
	DB	03H
	DB	05H
	DB	08H
	DB	03H
	DB	03H
	DB	05H
	DB	08H
	DB	03H
	DB	03H
	DB	05H
	DB	08H
	DB	044H
	DB	03H
	DB	05H
	DB	08H
	DB	044H
	DB	03H
	DB	05H
	DB	08H
	DB	026H
	DB	03H
	DB	05H
	DB	08H
	DB	0f0H
	DB	080H
	DB	04cH
	DB	04cH
	DB	04cH
	DB	04cH
	DB	012H
	DB	03eH
	DB	022H
	DB	010H
	DB	02H
	DB	02H
	DB	02H
	DB	02H
	DB	02H
	DB	02H
	DB	02H
	DB	02H
	DB	02H
	DB	02H
	DB	02H
	DB	02H
	DB	02H
	DB	02H
	DB	02H
	DB	02H
	DB	02H
	DB	02H
	DB	02H
	DB	02H
	DB	02H
	DB	02H
	DB	02H
	DB	02H
	DB	02H
	DB	02H
	DB	02H
	DB	02H
	DB	02H
	DB	02H
	DB	02H
	DB	02H
	DB	02H
	DB	02H
	DB	02H
	DB	02H
	DB	02H
	DB	02H
	DB	02H
	DB	02H
	DB	02H
	DB	02H
	DB	02H
	DB	02H
	DB	02H
	DB	02H
	DB	02H
	DB	02H
	DB	02H
	DB	02H
	DB	02H
	DB	02H
	DB	02H
	DB	02H
	DB	02H
	DB	02H
	DB	02H
	DB	02H
	DB	02H
	DB	02H
	DB	02H
	DB	02H
	DB	02H
	DB	02H
	DB	02H
	DB	02H
	DB	02H
	DB	02H
	DB	0bH
	DB	031H
	DB	03bH
	DB	07H
	DB	07H
	DB	07H
	DB	07H
	DB	07H
	DB	07H
	DB	051H
	DB	0dbH
	DB	0dbH
	DB	0dbH
	DB	0abH
	DB	09fH
	DB	0aH
	DB	088H
	DB	088H
	DB	063H
	DB	0eH
	DB	0b6H
	DB	02H
	DB	02H
	DB	02H
	DB	02H
	DB	02H
	DB	02H
	DB	02H
	DB	02H
	DB	02H
	DB	03H
	DB	0dH
	DB	0dH
	DB	06H
	DB	02H
	DB	01aH
	DB	03H
	DB	05H
	DB	04H
	DB	06H
	DB	03H
	DB	05H
	DB	04H
	DB	06H
	DB	03H
	DB	05H
	DB	04H
	DB	06H
	DB	03H
	DB	05H
	DB	04H
	DB	06H
	DB	03H
	DB	05H
	DB	04H
	DB	06H
	DB	04H
	DB	05H
	DB	03H
	DB	06H
	DB	04H
	DB	05H
	DB	03H
	DB	06H
	DB	04H
	DB	05H
	DB	03H
	DB	06H
	DB	04H
	DB	05H
	DB	03H
	DB	06H
	DB	04H
	DB	05H
	DB	03H
	DB	06H
	DB	04H
	DB	05H
	DB	03H
	DB	06H
	DB	04H
	DB	05H
	DB	044H
	DB	06H
	DB	04H
	DB	05H
	DB	044H
	DB	06H
	DB	06H
	DB	05H
	DB	026H
	DB	06H
	DB	06H
	DB	05H
	DB	026H
	DB	06H
	DB	06H
	DB	05H
	DB	05H
	DB	06H
	DB	06H
	DB	05H
	DB	05H
	DB	06H
	DB	06H
	DB	05H
	DB	05H
	DB	06H
	DB	06H
	DB	05H
	DB	05H
	DB	06H
	DB	06H
	DB	05H
	DB	05H
	DB	06H
	DB	06H
	DB	026H
	DB	05H
	DB	06H
	DB	06H
	DB	026H
	DB	05H
	DB	06H
	DB	06H
	DB	026H
	DB	05H
	DB	06H
	DB	06H
	DB	044H
	DB	05H
	DB	04H
	DB	06H
	DB	044H
	DB	05H
	DB	04H
	DB	06H
	DB	03H
	DB	05H
	DB	04H
	DB	06H
	DB	03H
	DB	05H
	DB	04H
	DB	06H
	DB	03H
	DB	05H
	DB	04H
	DB	01fH
	DB	080H
	DB	04cH
	DB	04cH
	DB	04cH
	DB	04cH
	DB	07H
	DB	066H
	DB	018H
	DB	02H
	DB	02H
	DB	02H
	DB	02H
	DB	02H
	DB	02H
	DB	02H
	DB	02H
	DB	02H
	DB	02H
	DB	02H
	DB	02H
	DB	02H
	DB	02H
	DB	02H
	DB	02H
	DB	02H
	DB	02H
	DB	02H
	DB	02H
	DB	02H
	DB	02H
	DB	02H
	DB	02H
	DB	02H
	DB	02H
	DB	02H
	DB	02H
	DB	02H
	DB	02H
	DB	02H
	DB	02H
	DB	02H
	DB	02H
	DB	02H
	DB	02H
	DB	02H
	DB	02H
	DB	02H
	DB	02H
	DB	02H
	DB	02H
	DB	02H
	DB	02H
	DB	02H
	DB	02H
	DB	02H
	DB	02H
	DB	02H
	DB	02H
	DB	02H
	DB	02H
	DB	02H
	DB	02H
	DB	02H
	DB	02H
	DB	02H
	DB	02H
	DB	02H
	DB	02H
	DB	02H
	DB	02H
	DB	02H
	DB	02H
	DB	02H
	DB	02H
	DB	02H
	DB	02H
	DB	02H
	DB	02H
	DB	02H
	DB	02H
	DB	020H
	DB	02fH
	DB	037H
	DB	07H
	DB	07H
	DB	07H
	DB	07H
	DB	07H
	DB	07H
	DB	0d5H
	DB	02bH
	DB	02bH
	DB	02bH
	DB	09eH
	DB	014H
	DB	088H
	DB	088H
	DB	088H
	DB	062H
	DB	0eH
	DB	033H
	DB	02H
	DB	02H
	DB	02H
	DB	02H
	DB	02H
	DB	02H
	DB	02H
	DB	02H
	DB	02H
	DB	044H
	DB	0dH
	DB	0dH
	DB	01aH
	DB	02H
	DB	08H
	DB	03H
	DB	03H
	DB	05H
	DB	08H
	DB	044H
	DB	03H
	DB	05H
	DB	08H
	DB	044H
	DB	03H
	DB	05H
	DB	08H
	DB	026H
	DB	03H
	DB	026H
	DB	08H
	DB	026H
	DB	03H
	DB	026H
	DB	08H
	DB	026H
	DB	03H
	DB	026H
	DB	08H
	DB	026H
	DB	03H
	DB	026H
	DB	08H
	DB	05H
	DB	03H
	DB	026H
	DB	08H
	DB	05H
	DB	03H
	DB	044H
	DB	08H
	DB	05H
	DB	03H
	DB	044H
	DB	08H
	DB	05H
	DB	03H
	DB	03H
	DB	08H
	DB	05H
	DB	03H
	DB	03H
	DB	08H
	DB	05H
	DB	03H
	DB	03H
	DB	08H
	DB	05H
	DB	03H
	DB	03H
	DB	08H
	DB	08H
	DB	03H
	DB	03H
	DB	08H
	DB	08H
	DB	03H
	DB	03H
	DB	08H
	DB	08H
	DB	03H
	DB	03H
	DB	08H
	DB	08H
	DB	03H
	DB	03H
	DB	08H
	DB	08H
	DB	03H
	DB	03H
	DB	08H
	DB	08H
	DB	03H
	DB	03H
	DB	08H
	DB	08H
	DB	03H
	DB	03H
	DB	08H
	DB	08H
	DB	03H
	DB	03H
	DB	05H
	DB	08H
	DB	03H
	DB	03H
	DB	05H
	DB	08H
	DB	03H
	DB	03H
	DB	05H
	DB	08H
	DB	03H
	DB	03H
	DB	05H
	DB	08H
	DB	03H
	DB	03H
	DB	05H
	DB	08H
	DB	044H
	DB	03H
	DB	05H
	DB	08H
	DB	044H
	DB	0efH
	DB	04cH
	DB	04cH
	DB	04cH
	DB	04cH
	DB	078H
	DB	02eH
	DB	0bH
	DB	02H
	DB	02H
	DB	02H
	DB	02H
	DB	02H
	DB	02H
	DB	02H
	DB	02H
	DB	02H
	DB	02H
	DB	02H
	DB	02H
	DB	02H
	DB	02H
	DB	02H
	DB	02H
	DB	02H
	DB	02H
	DB	02H
	DB	02H
	DB	02H
	DB	02H
	DB	02H
	DB	02H
	DB	02H
	DB	02H
	DB	02H
	DB	02H
	DB	02H
	DB	02H
	DB	02H
	DB	02H
	DB	02H
	DB	02H
	DB	02H
	DB	02H
	DB	02H
	DB	02H
	DB	02H
	DB	02H
	DB	02H
	DB	02H
	DB	02H
	DB	02H
	DB	02H
	DB	02H
	DB	02H
	DB	02H
	DB	02H
	DB	02H
	DB	02H
	DB	02H
	DB	02H
	DB	02H
	DB	02H
	DB	02H
	DB	02H
	DB	02H
	DB	02H
	DB	02H
	DB	02H
	DB	02H
	DB	02H
	DB	02H
	DB	02H
	DB	02H
	DB	02H
	DB	02H
	DB	02H
	DB	02H
	DB	02H
	DB	02H
	DB	02H
	DB	02H
	DB	02H
	DB	015H
	DB	02fH
	DB	032H
	DB	07H
	DB	07H
	DB	07H
	DB	07H
	DB	07H
	DB	07H
	DB	0d5H
	DB	02bH
	DB	02bH
	DB	02bH
	DB	09eH
	DB	014H
	DB	088H
	DB	088H
	DB	0a1H
	DB	0daH
	DB	0eH
	DB	02cH
	DB	02H
	DB	02H
	DB	02H
	DB	02H
	DB	02H
	DB	02H
	DB	02H
	DB	02H
	DB	02H
	DB	026H
	DB	0dH
	DB	0dH
	DB	02H
	DB	02H
	DB	05H
	DB	04H
	DB	06H
	DB	03H
	DB	05H
	DB	04H
	DB	06H
	DB	03H
	DB	05H
	DB	04H
	DB	06H
	DB	03H
	DB	05H
	DB	04H
	DB	06H
	DB	03H
	DB	05H
	DB	04H
	DB	06H
	DB	03H
	DB	05H
	DB	04H
	DB	06H
	DB	04H
	DB	05H
	DB	03H
	DB	06H
	DB	04H
	DB	05H
	DB	03H
	DB	06H
	DB	04H
	DB	05H
	DB	03H
	DB	06H
	DB	04H
	DB	05H
	DB	03H
	DB	06H
	DB	04H
	DB	05H
	DB	03H
	DB	06H
	DB	04H
	DB	05H
	DB	044H
	DB	06H
	DB	04H
	DB	05H
	DB	044H
	DB	06H
	DB	06H
	DB	05H
	DB	026H
	DB	06H
	DB	06H
	DB	05H
	DB	026H
	DB	06H
	DB	06H
	DB	05H
	DB	026H
	DB	06H
	DB	06H
	DB	05H
	DB	05H
	DB	06H
	DB	06H
	DB	05H
	DB	05H
	DB	06H
	DB	06H
	DB	05H
	DB	05H
	DB	06H
	DB	06H
	DB	05H
	DB	05H
	DB	06H
	DB	06H
	DB	05H
	DB	05H
	DB	06H
	DB	06H
	DB	026H
	DB	05H
	DB	06H
	DB	06H
	DB	026H
	DB	05H
	DB	06H
	DB	06H
	DB	026H
	DB	05H
	DB	04H
	DB	06H
	DB	044H
	DB	05H
	DB	04H
	DB	06H
	DB	03H
	DB	05H
	DB	04H
	DB	06H
	DB	03H
	DB	05H
	DB	04H
	DB	06H
	DB	03H
	DB	05H
	DB	0b5H
	DB	04cH
	DB	04cH
	DB	05dH
	DB	030H
	DB	020H
	DB	02H
	DB	02H
	DB	02H
	DB	02H
	DB	02H
	DB	02H
	DB	02H
	DB	02H
	DB	02H
	DB	02H
	DB	02H
	DB	02H
	DB	02H
	DB	02H
	DB	02H
	DB	02H
	DB	02H
	DB	02H
	DB	02H
	DB	02H
	DB	02H
	DB	02H
	DB	02H
	DB	02H
	DB	02H
	DB	02H
	DB	02H
	DB	02H
	DB	02H
	DB	02H
	DB	02H
	DB	02H
	DB	02H
	DB	02H
	DB	02H
	DB	02H
	DB	02H
	DB	02H
	DB	02H
	DB	02H
	DB	02H
	DB	02H
	DB	02H
	DB	02H
	DB	02H
	DB	02H
	DB	02H
	DB	02H
	DB	02H
	DB	02H
	DB	02H
	DB	02H
	DB	02H
	DB	02H
	DB	02H
	DB	02H
	DB	02H
	DB	02H
	DB	02H
	DB	02H
	DB	02H
	DB	02H
	DB	02H
	DB	02H
	DB	02H
	DB	02H
	DB	02H
	DB	02H
	DB	02H
	DB	02H
	DB	02H
	DB	02H
	DB	02H
	DB	02H
	DB	02H
	DB	02H
	DB	02H
	DB	02H
	DB	020H
	DB	02fH
	DB	060H
	DB	07H
	DB	07H
	DB	07H
	DB	07H
	DB	07H
	DB	07H
	DB	019H
	DB	02bH
	DB	02bH
	DB	02bH
	DB	09eH
	DB	014H
	DB	0a1H
	DB	0a1H
	DB	0a1H
	DB	052H
	DB	0eH
	DB	02cH
	DB	02H
	DB	02H
	DB	02H
	DB	02H
	DB	02H
	DB	02H
	DB	02H
	DB	02H
	DB	02H
	DB	05H
	DB	0dH
	DB	036H
	DB	02H
	DB	02H
	DB	03H
	DB	05H
	DB	08H
	DB	044H
	DB	03H
	DB	05H
	DB	08H
	DB	044H
	DB	03H
	DB	05H
	DB	08H
	DB	044H
	DB	03H
	DB	05H
	DB	08H
	DB	026H
	DB	03H
	DB	026H
	DB	08H
	DB	026H
	DB	03H
	DB	026H
	DB	08H
	DB	026H
	DB	03H
	DB	026H
	DB	08H
	DB	026H
	DB	03H
	DB	026H
	DB	08H
	DB	05H
	DB	03H
	DB	044H
	DB	08H
	DB	05H
	DB	03H
	DB	044H
	DB	08H
	DB	05H
	DB	03H
	DB	03H
	DB	08H
	DB	05H
	DB	03H
	DB	03H
	DB	08H
	DB	05H
	DB	03H
	DB	03H
	DB	08H
	DB	05H
	DB	03H
	DB	03H
	DB	08H
	DB	05H
	DB	03H
	DB	03H
	DB	08H
	DB	08H
	DB	03H
	DB	03H
	DB	08H
	DB	08H
	DB	03H
	DB	03H
	DB	08H
	DB	08H
	DB	03H
	DB	03H
	DB	08H
	DB	08H
	DB	03H
	DB	03H
	DB	08H
	DB	08H
	DB	03H
	DB	03H
	DB	08H
	DB	08H
	DB	03H
	DB	03H
	DB	08H
	DB	08H
	DB	03H
	DB	03H
	DB	05H
	DB	08H
	DB	03H
	DB	03H
	DB	05H
	DB	08H
	DB	03H
	DB	03H
	DB	05H
	DB	08H
	DB	03H
	DB	03H
	DB	05H
	DB	08H
	DB	03H
	DB	03H
	DB	05H
	DB	08H
	DB	044H
	DB	03H
	DB	05H
	DB	08H
	DB	044H
	DB	08cH
	DB	04cH
	DB	04cH
	DB	01fH
	DB	02H
	DB	02H
	DB	02H
	DB	02H
	DB	02H
	DB	02H
	DB	02H
	DB	02H
	DB	02H
	DB	02H
	DB	02H
	DB	02H
	DB	02H
	DB	02H
	DB	02H
	DB	02H
	DB	02H
	DB	02H
	DB	02H
	DB	02H
	DB	02H
	DB	02H
	DB	02H
	DB	02H
	DB	02H
	DB	02H
	DB	02H
	DB	02H
	DB	02H
	DB	02H
	DB	02H
	DB	02H
	DB	02H
	DB	02H
	DB	02H
	DB	02H
	DB	02H
	DB	02H
	DB	02H
	DB	02H
	DB	02H
	DB	02H
	DB	02H
	DB	02H
	DB	02H
	DB	02H
	DB	02H
	DB	02H
	DB	02H
	DB	02H
	DB	02H
	DB	02H
	DB	02H
	DB	02H
	DB	02H
	DB	02H
	DB	02H
	DB	02H
	DB	02H
	DB	02H
	DB	02H
	DB	02H
	DB	02H
	DB	02H
	DB	02H
	DB	02H
	DB	02H
	DB	02H
	DB	02H
	DB	02H
	DB	02H
	DB	02H
	DB	02H
	DB	02H
	DB	02H
	DB	02H
	DB	02H
	DB	02H
	DB	02H
	DB	02H
	DB	02H
	DB	020H
	DB	02fH
	DB	037H
	DB	07H
	DB	07H
	DB	07H
	DB	07H
	DB	07H
	DB	07H
	DB	019H
	DB	02bH
	DB	02bH
	DB	02bH
	DB	09eH
	DB	014H
	DB	0a1H
	DB	0a1H
	DB	0a1H
	DB	052H
	DB	0eH
	DB	02cH
	DB	02H
	DB	02H
	DB	02H
	DB	02H
	DB	02H
	DB	02H
	DB	02H
	DB	02H
	DB	02H
	DB	05H
	DB	0dH
	DB	036H
	DB	02H
	DB	02H
	DB	06H
	DB	03H
	DB	05H
	DB	04H
	DB	06H
	DB	03H
	DB	05H
	DB	04H
	DB	06H
	DB	03H
	DB	05H
	DB	04H
	DB	06H
	DB	03H
	DB	05H
	DB	04H
	DB	06H
	DB	03H
	DB	05H
	DB	04H
	DB	06H
	DB	03H
	DB	05H
	DB	03H
	DB	06H
	DB	04H
	DB	05H
	DB	03H
	DB	06H
	DB	04H
	DB	05H
	DB	03H
	DB	06H
	DB	04H
	DB	05H
	DB	03H
	DB	06H
	DB	04H
	DB	05H
	DB	03H
	DB	06H
	DB	04H
	DB	05H
	DB	03H
	DB	06H
	DB	04H
	DB	05H
	DB	044H
	DB	06H
	DB	04H
	DB	05H
	DB	026H
	DB	06H
	DB	06H
	DB	05H
	DB	026H
	DB	06H
	DB	06H
	DB	05H
	DB	026H
	DB	06H
	DB	06H
	DB	05H
	DB	05H
	DB	06H
	DB	06H
	DB	05H
	DB	05H
	DB	06H
	DB	06H
	DB	05H
	DB	05H
	DB	06H
	DB	06H
	DB	05H
	DB	05H
	DB	06H
	DB	06H
	DB	05H
	DB	05H
	DB	06H
	DB	06H
	DB	05H
	DB	05H
	DB	06H
	DB	06H
	DB	026H
	DB	05H
	DB	06H
	DB	06H
	DB	026H
	DB	05H
	DB	06H
	DB	06H
	DB	026H
	DB	05H
	DB	04H
	DB	06H
	DB	044H
	DB	05H
	DB	04H
	DB	06H
	DB	03H
	DB	05H
	DB	04H
	DB	06H
	DB	03H
	DB	05H
	DB	04H
	DB	04cH
	DB	04cH
	DB	066H
	DB	02H
	DB	02H
	DB	02H
	DB	02H
	DB	02H
	DB	02H
	DB	02H
	DB	02H
	DB	02H
	DB	02H
	DB	02H
	DB	02H
	DB	02H
	DB	02H
	DB	02H
	DB	02H
	DB	02H
	DB	02H
	DB	02H
	DB	02H
	DB	02H
	DB	02H
	DB	02H
	DB	02H
	DB	02H
	DB	02H
	DB	02H
	DB	02H
	DB	02H
	DB	02H
	DB	02H
	DB	02H
	DB	02H
	DB	02H
	DB	02H
	DB	02H
	DB	02H
	DB	02H
	DB	02H
	DB	02H
	DB	02H
	DB	02H
	DB	02H
	DB	02H
	DB	02H
	DB	02H
	DB	02H
	DB	02H
	DB	02H
	DB	02H
	DB	02H
	DB	02H
	DB	02H
	DB	02H
	DB	02H
	DB	02H
	DB	02H
	DB	02H
	DB	02H
	DB	02H
	DB	02H
	DB	02H
	DB	02H
	DB	02H
	DB	02H
	DB	02H
	DB	02H
	DB	02H
	DB	02H
	DB	02H
	DB	02H
	DB	02H
	DB	02H
	DB	02H
	DB	02H
	DB	02H
	DB	02H
	DB	02H
	DB	02H
	DB	02H
	DB	02H
	DB	02H
	DB	015H
	DB	02fH
	DB	032H
	DB	07H
	DB	07H
	DB	07H
	DB	07H
	DB	07H
	DB	07H
	DB	019H
	DB	02bH
	DB	02bH
	DB	02bH
	DB	09eH
	DB	014H
	DB	0a1H
	DB	0a1H
	DB	0a1H
	DB	074H
	DB	0eH
	DB	08H
	DB	02H
	DB	02H
	DB	02H
	DB	02H
	DB	02H
	DB	02H
	DB	02H
	DB	02H
	DB	02H
	DB	05H
	DB	0dH
	DB	033H
	DB	02H
	DB	01aH
	DB	08H
	DB	03H
	DB	03H
	DB	05H
	DB	08H
	DB	044H
	DB	03H
	DB	05H
	DB	08H
	DB	044H
	DB	03H
	DB	05H
	DB	08H
	DB	026H
	DB	03H
	DB	026H
	DB	08H
	DB	026H
	DB	03H
	DB	026H
	DB	08H
	DB	026H
	DB	03H
	DB	026H
	DB	08H
	DB	026H
	DB	03H
	DB	026H
	DB	08H
	DB	026H
	DB	03H
	DB	044H
	DB	08H
	DB	05H
	DB	03H
	DB	044H
	DB	08H
	DB	05H
	DB	03H
	DB	044H
	DB	08H
	DB	05H
	DB	03H
	DB	03H
	DB	08H
	DB	05H
	DB	03H
	DB	03H
	DB	08H
	DB	05H
	DB	03H
	DB	03H
	DB	08H
	DB	05H
	DB	03H
	DB	03H
	DB	08H
	DB	05H
	DB	03H
	DB	03H
	DB	08H
	DB	05H
	DB	03H
	DB	03H
	DB	08H
	DB	08H
	DB	03H
	DB	03H
	DB	08H
	DB	08H
	DB	03H
	DB	03H
	DB	08H
	DB	08H
	DB	03H
	DB	03H
	DB	08H
	DB	08H
	DB	03H
	DB	03H
	DB	08H
	DB	08H
	DB	03H
	DB	03H
	DB	05H
	DB	08H
	DB	03H
	DB	03H
	DB	05H
	DB	08H
	DB	03H
	DB	03H
	DB	05H
	DB	08H
	DB	03H
	DB	03H
	DB	05H
	DB	08H
	DB	03H
	DB	03H
	DB	05H
	DB	08H
	DB	03H
	DB	03H
	DB	05H
	DB	08H
	DB	044H
	DB	03H
	DB	0b4H
	DB	04cH
	DB	079H
	DB	02H
	DB	02H
	DB	02H
	DB	02H
	DB	02H
	DB	02H
	DB	02H
	DB	02H
	DB	02H
	DB	02H
	DB	02H
	DB	02H
	DB	02H
	DB	02H
	DB	02H
	DB	02H
	DB	02H
	DB	02H
	DB	02H
	DB	02H
	DB	02H
	DB	02H
	DB	02H
	DB	02H
	DB	02H
	DB	02H
	DB	02H
	DB	02H
	DB	02H
	DB	02H
	DB	02H
	DB	02H
	DB	02H
	DB	02H
	DB	02H
	DB	02H
	DB	02H
	DB	02H
	DB	02H
	DB	02H
	DB	02H
	DB	02H
	DB	02H
	DB	02H
	DB	02H
	DB	02H
	DB	02H
	DB	02H
	DB	02H
	DB	02H
	DB	02H
	DB	02H
	DB	02H
	DB	02H
	DB	02H
	DB	02H
	DB	02H
	DB	02H
	DB	02H
	DB	02H
	DB	02H
	DB	02H
	DB	02H
	DB	02H
	DB	02H
	DB	02H
	DB	02H
	DB	02H
	DB	02H
	DB	02H
	DB	02H
	DB	02H
	DB	02H
	DB	02H
	DB	02H
	DB	02H
	DB	02H
	DB	02H
	DB	02H
	DB	02H
	DB	02H
	DB	02H
	DB	02H
	DB	015H
	DB	02fH
	DB	032H
	DB	07H
	DB	07H
	DB	07H
	DB	07H
	DB	07H
	DB	07H
	DB	019H
	DB	02bH
	DB	02bH
	DB	02bH
	DB	09eH
	DB	014H
	DB	0a1H
	DB	0a1H
	DB	0a1H
	DB	074H
	DB	0eH
	DB	08H
	DB	02H
	DB	02H
	DB	02H
	DB	02H
	DB	02H
	DB	02H
	DB	02H
	DB	02H
	DB	02H
	DB	08H
	DB	0dH
	DB	033H
	DB	02H
	DB	01aH
	DB	05H
	DB	04H
	DB	06H
	DB	03H
	DB	05H
	DB	04H
	DB	06H
	DB	03H
	DB	05H
	DB	04H
	DB	06H
	DB	03H
	DB	05H
	DB	04H
	DB	06H
	DB	03H
	DB	05H
	DB	04H
	DB	06H
	DB	03H
	DB	05H
	DB	03H
	DB	06H
	DB	03H
	DB	05H
	DB	03H
	DB	06H
	DB	04H
	DB	05H
	DB	03H
	DB	06H
	DB	04H
	DB	05H
	DB	03H
	DB	06H
	DB	04H
	DB	05H
	DB	03H
	DB	06H
	DB	04H
	DB	05H
	DB	03H
	DB	06H
	DB	04H
	DB	05H
	DB	044H
	DB	06H
	DB	04H
	DB	05H
	DB	026H
	DB	06H
	DB	04H
	DB	05H
	DB	026H
	DB	06H
	DB	06H
	DB	05H
	DB	026H
	DB	06H
	DB	06H
	DB	05H
	DB	05H
	DB	06H
	DB	06H
	DB	05H
	DB	05H
	DB	06H
	DB	06H
	DB	05H
	DB	05H
	DB	06H
	DB	06H
	DB	05H
	DB	05H
	DB	06H
	DB	06H
	DB	05H
	DB	05H
	DB	06H
	DB	06H
	DB	05H
	DB	05H
	DB	06H
	DB	06H
	DB	026H
	DB	05H
	DB	06H
	DB	06H
	DB	026H
	DB	05H
	DB	06H
	DB	06H
	DB	026H
	DB	05H
	DB	04H
	DB	06H
	DB	044H
	DB	05H
	DB	04H
	DB	06H
	DB	044H
	DB	05H
	DB	04H
	DB	06H
	DB	03H
	DB	05H
	DB	04H
	DB	06H
	DB	05dH
	DB	04cH
	DB	066H
	DB	02H
	DB	02H
	DB	02H
	DB	02H
	DB	02H
	DB	02H
	DB	02H
	DB	02H
	DB	02H
	DB	02H
	DB	02H
	DB	02H
	DB	02H
	DB	02H
	DB	02H
	DB	02H
	DB	02H
	DB	02H
	DB	02H
	DB	02H
	DB	02H
	DB	02H
	DB	02H
	DB	02H
	DB	02H
	DB	02H
	DB	02H
	DB	02H
	DB	02H
	DB	02H
	DB	02H
	DB	02H
	DB	02H
	DB	02H
	DB	02H
	DB	02H
	DB	02H
	DB	02H
	DB	02H
	DB	02H
	DB	02H
	DB	02H
	DB	02H
	DB	02H
	DB	02H
	DB	02H
	DB	02H
	DB	02H
	DB	02H
	DB	02H
	DB	02H
	DB	02H
	DB	02H
	DB	02H
	DB	02H
	DB	02H
	DB	02H
	DB	02H
	DB	02H
	DB	02H
	DB	02H
	DB	02H
	DB	02H
	DB	02H
	DB	02H
	DB	02H
	DB	02H
	DB	02H
	DB	02H
	DB	02H
	DB	02H
	DB	02H
	DB	02H
	DB	02H
	DB	02H
	DB	02H
	DB	02H
	DB	02H
	DB	02H
	DB	02H
	DB	02H
	DB	02H
	DB	02H
	DB	015H
	DB	02fH
	DB	032H
	DB	07H
	DB	07H
	DB	07H
	DB	07H
	DB	07H
	DB	07H
	DB	019H
	DB	02bH
	DB	02bH
	DB	02bH
	DB	09eH
	DB	014H
	DB	0a1H
	DB	0a1H
	DB	0a1H
	DB	074H
	DB	0eH
	DB	08H
	DB	02H
	DB	02H
	DB	02H
	DB	02H
	DB	02H
	DB	02H
	DB	02H
	DB	02H
	DB	02H
	DB	08H
	DB	0dH
	DB	033H
	DB	02H
	DB	01aH
	DB	03H
	DB	05H
	DB	08H
	DB	03H
	DB	03H
	DB	05H
	DB	08H
	DB	044H
	DB	03H
	DB	05H
	DB	08H
	DB	044H
	DB	03H
	DB	026H
	DB	08H
	DB	026H
	DB	03H
	DB	026H
	DB	08H
	DB	026H
	DB	03H
	DB	026H
	DB	08H
	DB	026H
	DB	03H
	DB	026H
	DB	08H
	DB	026H
	DB	03H
	DB	044H
	DB	08H
	DB	026H
	DB	03H
	DB	044H
	DB	08H
	DB	05H
	DB	03H
	DB	044H
	DB	08H
	DB	05H
	DB	03H
	DB	03H
	DB	08H
	DB	05H
	DB	03H
	DB	03H
	DB	08H
	DB	05H
	DB	03H
	DB	03H
	DB	08H
	DB	05H
	DB	03H
	DB	03H
	DB	08H
	DB	05H
	DB	03H
	DB	03H
	DB	08H
	DB	05H
	DB	03H
	DB	03H
	DB	08H
	DB	05H
	DB	03H
	DB	03H
	DB	08H
	DB	08H
	DB	03H
	DB	03H
	DB	08H
	DB	08H
	DB	03H
	DB	03H
	DB	08H
	DB	08H
	DB	03H
	DB	03H
	DB	05H
	DB	08H
	DB	03H
	DB	03H
	DB	05H
	DB	08H
	DB	03H
	DB	03H
	DB	05H
	DB	08H
	DB	03H
	DB	03H
	DB	05H
	DB	08H
	DB	03H
	DB	03H
	DB	05H
	DB	08H
	DB	03H
	DB	03H
	DB	05H
	DB	08H
	DB	03H
	DB	03H
	DB	05H
	DB	08H
	DB	03H
	DB	03H
	DB	05H
	DB	08H
	DB	080H
	DB	04cH
	DB	02dH
	DB	02H
	DB	02H
	DB	02H
	DB	02H
	DB	02H
	DB	02H
	DB	02H
	DB	02H
	DB	02H
	DB	02H
	DB	02H
	DB	02H
	DB	02H
	DB	02H
	DB	02H
	DB	02H
	DB	02H
	DB	02H
	DB	02H
	DB	02H
	DB	02H
	DB	02H
	DB	02H
	DB	02H
	DB	02H
	DB	02H
	DB	02H
	DB	02H
	DB	02H
	DB	02H
	DB	02H
	DB	02H
	DB	02H
	DB	02H
	DB	02H
	DB	02H
	DB	02H
	DB	02H
	DB	02H
	DB	02H
	DB	02H
	DB	02H
	DB	02H
	DB	02H
	DB	02H
	DB	02H
	DB	02H
	DB	02H
	DB	02H
	DB	02H
	DB	02H
	DB	02H
	DB	02H
	DB	02H
	DB	02H
	DB	02H
	DB	02H
	DB	02H
	DB	02H
	DB	02H
	DB	02H
	DB	02H
	DB	02H
	DB	02H
	DB	02H
	DB	02H
	DB	02H
	DB	02H
	DB	02H
	DB	02H
	DB	02H
	DB	02H
	DB	02H
	DB	02H
	DB	02H
	DB	02H
	DB	02H
	DB	02H
	DB	02H
	DB	02H
	DB	02H
	DB	02H
	DB	02H
	DB	015H
	DB	02fH
	DB	032H
	DB	07H
	DB	07H
	DB	07H
	DB	07H
	DB	07H
	DB	07H
	DB	019H
	DB	02bH
	DB	02bH
	DB	02bH
	DB	09eH
	DB	014H
	DB	0a1H
	DB	0a1H
	DB	0a1H
	DB	074H
	DB	0eH
	DB	02cH
	DB	02H
	DB	02H
	DB	02H
	DB	02H
	DB	02H
	DB	02H
	DB	02H
	DB	02H
	DB	02H
	DB	05H
	DB	0dH
	DB	033H
	DB	02H
	DB	02H
	DB	06H
	DB	03H
	DB	05H
	DB	04H
	DB	06H
	DB	03H
	DB	05H
	DB	04H
	DB	06H
	DB	03H
	DB	05H
	DB	04H
	DB	06H
	DB	03H
	DB	05H
	DB	04H
	DB	06H
	DB	03H
	DB	05H
	DB	03H
	DB	06H
	DB	03H
	DB	05H
	DB	03H
	DB	06H
	DB	04H
	DB	05H
	DB	03H
	DB	06H
	DB	04H
	DB	05H
	DB	03H
	DB	06H
	DB	04H
	DB	05H
	DB	03H
	DB	06H
	DB	04H
	DB	05H
	DB	03H
	DB	06H
	DB	04H
	DB	05H
	DB	044H
	DB	06H
	DB	04H
	DB	05H
	DB	044H
	DB	06H
	DB	04H
	DB	05H
	DB	026H
	DB	06H
	DB	04H
	DB	05H
	DB	026H
	DB	06H
	DB	06H
	DB	05H
	DB	026H
	DB	06H
	DB	06H
	DB	05H
	DB	05H
	DB	06H
	DB	06H
	DB	05H
	DB	05H
	DB	06H
	DB	06H
	DB	05H
	DB	05H
	DB	06H
	DB	06H
	DB	05H
	DB	05H
	DB	06H
	DB	06H
	DB	05H
	DB	05H
	DB	06H
	DB	06H
	DB	05H
	DB	05H
	DB	06H
	DB	06H
	DB	026H
	DB	05H
	DB	06H
	DB	06H
	DB	026H
	DB	05H
	DB	04H
	DB	06H
	DB	026H
	DB	05H
	DB	04H
	DB	06H
	DB	044H
	DB	05H
	DB	04H
	DB	06H
	DB	03H
	DB	05H
	DB	04H
	DB	06H
	DB	03H
	DB	05H
	DB	080H
	DB	04cH
	DB	0fH
	DB	02H
	DB	02H
	DB	02H
	DB	02H
	DB	02H
	DB	02H
	DB	02H
	DB	02H
	DB	02H
	DB	02H
	DB	02H
	DB	02H
	DB	02H
	DB	02H
	DB	02H
	DB	02H
	DB	02H
	DB	02H
	DB	02H
	DB	02H
	DB	02H
	DB	02H
	DB	02H
	DB	02H
	DB	02H
	DB	02H
	DB	02H
	DB	02H
	DB	02H
	DB	02H
	DB	02H
	DB	02H
	DB	02H
	DB	02H
	DB	02H
	DB	02H
	DB	02H
	DB	02H
	DB	02H
	DB	02H
	DB	02H
	DB	02H
	DB	02H
	DB	02H
	DB	02H
	DB	02H
	DB	02H
	DB	02H
	DB	02H
	DB	02H
	DB	02H
	DB	02H
	DB	02H
	DB	02H
	DB	02H
	DB	02H
	DB	02H
	DB	02H
	DB	02H
	DB	02H
	DB	02H
	DB	02H
	DB	02H
	DB	02H
	DB	02H
	DB	02H
	DB	02H
	DB	02H
	DB	02H
	DB	02H
	DB	02H
	DB	02H
	DB	02H
	DB	02H
	DB	02H
	DB	02H
	DB	02H
	DB	02H
	DB	02H
	DB	02H
	DB	02H
	DB	02H
	DB	02H
	DB	015H
	DB	02fH
	DB	032H
	DB	07H
	DB	07H
	DB	07H
	DB	07H
	DB	07H
	DB	07H
	DB	0d5H
	DB	02bH
	DB	02bH
	DB	02bH
	DB	0abH
	DB	014H
	DB	0a1H
	DB	0a1H
	DB	0a1H
	DB	052H
	DB	0eH
	DB	02cH
	DB	02H
	DB	02H
	DB	02H
	DB	02H
	DB	02H
	DB	02H
	DB	02H
	DB	02H
	DB	02H
	DB	05H
	DB	0dH
	DB	033H
	DB	02H
	DB	02H
	DB	08H
	DB	03H
	DB	03H
	DB	05H
	DB	08H
	DB	044H
	DB	03H
	DB	026H
	DB	08H
	DB	044H
	DB	03H
	DB	026H
	DB	08H
	DB	044H
	DB	03H
	DB	026H
	DB	08H
	DB	026H
	DB	03H
	DB	026H
	DB	08H
	DB	026H
	DB	03H
	DB	026H
	DB	08H
	DB	026H
	DB	03H
	DB	026H
	DB	08H
	DB	026H
	DB	03H
	DB	044H
	DB	08H
	DB	026H
	DB	03H
	DB	044H
	DB	08H
	DB	05H
	DB	03H
	DB	03H
	DB	08H
	DB	05H
	DB	03H
	DB	03H
	DB	08H
	DB	05H
	DB	03H
	DB	03H
	DB	08H
	DB	05H
	DB	03H
	DB	03H
	DB	08H
	DB	05H
	DB	03H
	DB	03H
	DB	08H
	DB	05H
	DB	03H
	DB	03H
	DB	08H
	DB	05H
	DB	03H
	DB	03H
	DB	08H
	DB	05H
	DB	03H
	DB	03H
	DB	08H
	DB	05H
	DB	03H
	DB	03H
	DB	08H
	DB	08H
	DB	03H
	DB	03H
	DB	05H
	DB	08H
	DB	03H
	DB	03H
	DB	05H
	DB	08H
	DB	03H
	DB	03H
	DB	05H
	DB	08H
	DB	03H
	DB	03H
	DB	05H
	DB	08H
	DB	03H
	DB	03H
	DB	05H
	DB	08H
	DB	03H
	DB	03H
	DB	05H
	DB	08H
	DB	03H
	DB	03H
	DB	05H
	DB	08H
	DB	03H
	DB	03H
	DB	05H
	DB	08H
	DB	044H
	DB	03H
	DB	080H
	DB	04cH
	DB	0fH
	DB	02H
	DB	02H
	DB	02H
	DB	02H
	DB	02H
	DB	02H
	DB	02H
	DB	02H
	DB	02H
	DB	02H
	DB	02H
	DB	02H
	DB	02H
	DB	02H
	DB	02H
	DB	02H
	DB	02H
	DB	02H
	DB	02H
	DB	02H
	DB	02H
	DB	02H
	DB	02H
	DB	02H
	DB	02H
	DB	02H
	DB	02H
	DB	02H
	DB	02H
	DB	02H
	DB	02H
	DB	02H
	DB	02H
	DB	02H
	DB	02H
	DB	02H
	DB	02H
	DB	02H
	DB	02H
	DB	02H
	DB	02H
	DB	02H
	DB	02H
	DB	02H
	DB	02H
	DB	02H
	DB	02H
	DB	02H
	DB	02H
	DB	02H
	DB	02H
	DB	02H
	DB	02H
	DB	02H
	DB	02H
	DB	02H
	DB	02H
	DB	02H
	DB	02H
	DB	02H
	DB	02H
	DB	02H
	DB	02H
	DB	02H
	DB	02H
	DB	02H
	DB	02H
	DB	02H
	DB	02H
	DB	02H
	DB	02H
	DB	02H
	DB	02H
	DB	02H
	DB	02H
	DB	02H
	DB	02H
	DB	02H
	DB	02H
	DB	02H
	DB	02H
	DB	02H
	DB	02H
	DB	015H
	DB	02fH
	DB	032H
	DB	07H
	DB	07H
	DB	07H
	DB	07H
	DB	07H
	DB	07H
	DB	0d5H
	DB	02bH
	DB	02bH
	DB	02bH
	DB	016H
	DB	09fH
	DB	0a1H
	DB	0a1H
	DB	0a1H
	DB	052H
	DB	0eH
	DB	02cH
	DB	02H
	DB	02H
	DB	02H
	DB	02H
	DB	02H
	DB	02H
	DB	02H
	DB	02H
	DB	02H
	DB	05H
	DB	0dH
	DB	036H
	DB	02H
	DB	02H
	DB	05H
	DB	04H
	DB	06H
	DB	03H
	DB	05H
	DB	04H
	DB	06H
	DB	03H
	DB	05H
	DB	04H
	DB	06H
	DB	03H
	DB	05H
	DB	04H
	DB	06H
	DB	03H
	DB	05H
	DB	04H
	DB	06H
	DB	03H
	DB	05H
	DB	03H
	DB	06H
	DB	03H
	DB	05H
	DB	03H
	DB	06H
	DB	04H
	DB	05H
	DB	03H
	DB	06H
	DB	04H
	DB	05H
	DB	03H
	DB	06H
	DB	04H
	DB	05H
	DB	03H
	DB	06H
	DB	04H
	DB	05H
	DB	03H
	DB	06H
	DB	04H
	DB	05H
	DB	044H
	DB	06H
	DB	04H
	DB	05H
	DB	026H
	DB	06H
	DB	04H
	DB	05H
	DB	026H
	DB	06H
	DB	06H
	DB	05H
	DB	026H
	DB	06H
	DB	06H
	DB	05H
	DB	05H
	DB	06H
	DB	06H
	DB	05H
	DB	05H
	DB	06H
	DB	06H
	DB	05H
	DB	05H
	DB	06H
	DB	06H
	DB	05H
	DB	05H
	DB	06H
	DB	06H
	DB	05H
	DB	05H
	DB	06H
	DB	06H
	DB	05H
	DB	05H
	DB	06H
	DB	06H
	DB	05H
	DB	05H
	DB	06H
	DB	06H
	DB	026H
	DB	05H
	DB	04H
	DB	06H
	DB	026H
	DB	05H
	DB	04H
	DB	06H
	DB	026H
	DB	05H
	DB	04H
	DB	06H
	DB	044H
	DB	05H
	DB	04H
	DB	06H
	DB	03H
	DB	05H
	DB	04H
	DB	06H
	DB	080H
	DB	04cH
	DB	0fH
	DB	02H
	DB	02H
	DB	02H
	DB	02H
	DB	02H
	DB	02H
	DB	02H
	DB	02H
	DB	02H
	DB	02H
	DB	02H
	DB	02H
	DB	02H
	DB	02H
	DB	02H
	DB	02H
	DB	02H
	DB	02H
	DB	02H
	DB	02H
	DB	02H
	DB	02H
	DB	02H
	DB	02H
	DB	02H
	DB	02H
	DB	02H
	DB	02H
	DB	02H
	DB	02H
	DB	02H
	DB	02H
	DB	02H
	DB	02H
	DB	02H
	DB	02H
	DB	02H
	DB	02H
	DB	02H
	DB	02H
	DB	02H
	DB	02H
	DB	02H
	DB	02H
	DB	02H
	DB	02H
	DB	02H
	DB	02H
	DB	02H
	DB	02H
	DB	02H
	DB	02H
	DB	02H
	DB	02H
	DB	02H
	DB	02H
	DB	02H
	DB	02H
	DB	02H
	DB	02H
	DB	02H
	DB	02H
	DB	02H
	DB	02H
	DB	02H
	DB	02H
	DB	02H
	DB	02H
	DB	02H
	DB	02H
	DB	02H
	DB	02H
	DB	02H
	DB	02H
	DB	02H
	DB	02H
	DB	02H
	DB	02H
	DB	02H
	DB	02H
	DB	02H
	DB	02H
	DB	02H
	DB	015H
	DB	02fH
	DB	032H
	DB	07H
	DB	07H
	DB	07H
	DB	07H
	DB	07H
	DB	07H
	DB	0d5H
	DB	02bH
	DB	02bH
	DB	02bH
	DB	016H
	DB	09fH
	DB	0a1H
	DB	0a1H
	DB	0a1H
	DB	0daH
	DB	0eH
	DB	02cH
	DB	02H
	DB	02H
	DB	02H
	DB	02H
	DB	02H
	DB	02H
	DB	02H
	DB	02H
	DB	02H
	DB	026H
	DB	0dH
	DB	0dH
	DB	02H
	DB	02H
	DB	03H
	DB	05H
	DB	05H
	DB	03H
	DB	03H
	DB	026H
	DB	05H
	DB	044H
	DB	03H
	DB	026H
	DB	05H
	DB	044H
	DB	03H
	DB	026H
	DB	05H
	DB	044H
	DB	03H
	DB	026H
	DB	05H
	DB	026H
	DB	03H
	DB	026H
	DB	05H
	DB	026H
	DB	03H
	DB	026H
	DB	05H
	DB	026H
	DB	03H
	DB	044H
	DB	05H
	DB	026H
	DB	03H
	DB	044H
	DB	05H
	DB	026H
	DB	03H
	DB	044H
	DB	05H
	DB	05H
	DB	03H
	DB	03H
	DB	05H
	DB	05H
	DB	03H
	DB	03H
	DB	05H
	DB	05H
	DB	03H
	DB	03H
	DB	05H
	DB	05H
	DB	03H
	DB	03H
	DB	05H
	DB	05H
	DB	03H
	DB	03H
	DB	05H
	DB	05H
	DB	03H
	DB	03H
	DB	05H
	DB	05H
	DB	03H
	DB	03H
	DB	05H
	DB	05H
	DB	03H
	DB	03H
	DB	05H
	DB	05H
	DB	03H
	DB	03H
	DB	05H
	DB	05H
	DB	03H
	DB	03H
	DB	05H
	DB	05H
	DB	03H
	DB	03H
	DB	05H
	DB	05H
	DB	03H
	DB	03H
	DB	05H
	DB	05H
	DB	03H
	DB	03H
	DB	05H
	DB	05H
	DB	03H
	DB	03H
	DB	05H
	DB	05H
	DB	03H
	DB	03H
	DB	05H
	DB	05H
	DB	03H
	DB	03H
	DB	05H
	DB	05H
	DB	03H
	DB	03H
	DB	026H
	DB	05H
	DB	080H
	DB	04cH
	DB	0fH
	DB	02H
	DB	02H
	DB	02H
	DB	02H
	DB	02H
	DB	02H
	DB	02H
	DB	02H
	DB	02H
	DB	02H
	DB	02H
	DB	02H
	DB	02H
	DB	02H
	DB	02H
	DB	02H
	DB	02H
	DB	02H
	DB	02H
	DB	02H
	DB	02H
	DB	02H
	DB	02H
	DB	02H
	DB	02H
	DB	02H
	DB	02H
	DB	02H
	DB	02H
	DB	02H
	DB	02H
	DB	02H
	DB	02H
	DB	02H
	DB	02H
	DB	02H
	DB	02H
	DB	02H
	DB	02H
	DB	02H
	DB	02H
	DB	02H
	DB	02H
	DB	02H
	DB	02H
	DB	02H
	DB	02H
	DB	02H
	DB	02H
	DB	02H
	DB	02H
	DB	02H
	DB	02H
	DB	02H
	DB	02H
	DB	02H
	DB	02H
	DB	02H
	DB	02H
	DB	02H
	DB	02H
	DB	02H
	DB	02H
	DB	02H
	DB	02H
	DB	02H
	DB	02H
	DB	02H
	DB	02H
	DB	02H
	DB	02H
	DB	02H
	DB	02H
	DB	02H
	DB	02H
	DB	02H
	DB	02H
	DB	02H
	DB	02H
	DB	02H
	DB	02H
	DB	02H
	DB	02H
	DB	020H
	DB	01eH
	DB	037H
	DB	07H
	DB	07H
	DB	07H
	DB	07H
	DB	07H
	DB	07H
	DB	051H
	DB	02bH
	DB	02bH
	DB	02bH
	DB	016H
	DB	09fH
	DB	0a1H
	DB	0a1H
	DB	0a1H
	DB	062H
	DB	0eH
	DB	033H
	DB	02H
	DB	02H
	DB	02H
	DB	02H
	DB	02H
	DB	02H
	DB	02H
	DB	02H
	DB	02H
	DB	03H
	DB	0dH
	DB	0dH
	DB	01aH
	DB	02H
	DB	06H
	DB	044H
	DB	05H
	DB	04H
	DB	06H
	DB	03H
	DB	05H
	DB	04H
	DB	06H
	DB	03H
	DB	05H
	DB	04H
	DB	06H
	DB	03H
	DB	05H
	DB	04H
	DB	06H
	DB	03H
	DB	05H
	DB	03H
	DB	06H
	DB	03H
	DB	05H
	DB	03H
	DB	06H
	DB	03H
	DB	05H
	DB	03H
	DB	06H
	DB	04H
	DB	05H
	DB	03H
	DB	06H
	DB	04H
	DB	05H
	DB	03H
	DB	06H
	DB	04H
	DB	05H
	DB	03H
	DB	06H
	DB	04H
	DB	05H
	DB	044H
	DB	06H
	DB	04H
	DB	05H
	DB	026H
	DB	06H
	DB	04H
	DB	05H
	DB	026H
	DB	06H
	DB	04H
	DB	05H
	DB	026H
	DB	06H
	DB	06H
	DB	05H
	DB	05H
	DB	06H
	DB	06H
	DB	05H
	DB	05H
	DB	06H
	DB	06H
	DB	05H
	DB	05H
	DB	06H
	DB	06H
	DB	05H
	DB	05H
	DB	06H
	DB	06H
	DB	05H
	DB	05H
	DB	06H
	DB	06H
	DB	05H
	DB	05H
	DB	06H
	DB	06H
	DB	05H
	DB	05H
	DB	06H
	DB	06H
	DB	026H
	DB	05H
	DB	06H
	DB	06H
	DB	026H
	DB	05H
	DB	04H
	DB	06H
	DB	026H
	DB	05H
	DB	04H
	DB	06H
	DB	044H
	DB	05H
	DB	04H
	DB	06H
	DB	044H
	DB	05H
	DB	04H
	DB	06H
	DB	03H
	DB	05H
	DB	012H
	DB	04cH
	DB	0fH
	DB	02H
	DB	02H
	DB	02H
	DB	02H
	DB	02H
	DB	02H
	DB	02H
	DB	02H
	DB	02H
	DB	02H
	DB	02H
	DB	02H
	DB	02H
	DB	02H
	DB	02H
	DB	02H
	DB	02H
	DB	02H
	DB	02H
	DB	02H
	DB	02H
	DB	02H
	DB	02H
	DB	02H
	DB	02H
	DB	02H
	DB	02H
	DB	02H
	DB	02H
	DB	02H
	DB	02H
	DB	02H
	DB	02H
	DB	02H
	DB	02H
	DB	02H
	DB	02H
	DB	02H
	DB	02H
	DB	02H
	DB	02H
	DB	02H
	DB	02H
	DB	02H
	DB	02H
	DB	02H
	DB	02H
	DB	02H
	DB	02H
	DB	02H
	DB	02H
	DB	02H
	DB	02H
	DB	02H
	DB	02H
	DB	02H
	DB	02H
	DB	02H
	DB	02H
	DB	02H
	DB	02H
	DB	02H
	DB	02H
	DB	02H
	DB	02H
	DB	02H
	DB	02H
	DB	02H
	DB	02H
	DB	02H
	DB	02H
	DB	02H
	DB	02H
	DB	02H
	DB	02H
	DB	02H
	DB	02H
	DB	02H
	DB	02H
	DB	02H
	DB	02H
	DB	02H
	DB	02H
	DB	020H
	DB	01eH
	DB	060H
	DB	07H
	DB	07H
	DB	07H
	DB	07H
	DB	07H
	DB	07H
	DB	012H
	DB	093H
	DB	093H
	DB	093H
	DB	0bbH
	DB	021H
	DB	0a1H
	DB	0a1H
	DB	0a1H
	DB	024H
	DB	0eH
	DB	0b6H
	DB	02H
	DB	02H
	DB	02H
	DB	02H
	DB	02H
	DB	02H
	DB	02H
	DB	02H
	DB	02H
	DB	03H
	DB	0dH
	DB	0dH
	DB	06H
	DB	02H
	DB	026H
	DB	03H
	DB	03H
	DB	026H
	DB	05H
	DB	044H
	DB	03H
	DB	026H
	DB	05H
	DB	044H
	DB	03H
	DB	026H
	DB	05H
	DB	044H
	DB	03H
	DB	026H
	DB	05H
	DB	044H
	DB	03H
	DB	026H
	DB	05H
	DB	026H
	DB	03H
	DB	026H
	DB	05H
	DB	026H
	DB	03H
	DB	044H
	DB	05H
	DB	026H
	DB	03H
	DB	044H
	DB	05H
	DB	026H
	DB	03H
	DB	044H
	DB	05H
	DB	026H
	DB	03H
	DB	03H
	DB	05H
	DB	026H
	DB	03H
	DB	03H
	DB	05H
	DB	05H
	DB	03H
	DB	03H
	DB	05H
	DB	05H
	DB	03H
	DB	03H
	DB	05H
	DB	05H
	DB	03H
	DB	03H
	DB	05H
	DB	05H
	DB	03H
	DB	03H
	DB	05H
	DB	05H
	DB	03H
	DB	03H
	DB	05H
	DB	05H
	DB	03H
	DB	03H
	DB	05H
	DB	05H
	DB	03H
	DB	03H
	DB	05H
	DB	05H
	DB	03H
	DB	03H
	DB	05H
	DB	05H
	DB	03H
	DB	03H
	DB	05H
	DB	05H
	DB	03H
	DB	03H
	DB	05H
	DB	05H
	DB	03H
	DB	03H
	DB	05H
	DB	05H
	DB	03H
	DB	03H
	DB	05H
	DB	05H
	DB	03H
	DB	03H
	DB	05H
	DB	05H
	DB	03H
	DB	03H
	DB	05H
	DB	05H
	DB	03H
	DB	03H
	DB	026H
	DB	05H
	DB	044H
	DB	03H
	DB	080H
	DB	080H
	DB	0fH
	DB	02H
	DB	02H
	DB	02H
	DB	02H
	DB	02H
	DB	02H
	DB	02H
	DB	02H
	DB	02H
	DB	02H
	DB	02H
	DB	02H
	DB	02H
	DB	02H
	DB	02H
	DB	02H
	DB	02H
	DB	02H
	DB	02H
	DB	02H
	DB	02H
	DB	02H
	DB	02H
	DB	02H
	DB	02H
	DB	02H
	DB	02H
	DB	02H
	DB	02H
	DB	02H
	DB	02H
	DB	02H
	DB	02H
	DB	02H
	DB	02H
	DB	02H
	DB	02H
	DB	02H
	DB	02H
	DB	02H
	DB	02H
	DB	02H
	DB	02H
	DB	02H
	DB	02H
	DB	02H
	DB	02H
	DB	02H
	DB	02H
	DB	02H
	DB	02H
	DB	02H
	DB	02H
	DB	02H
	DB	02H
	DB	02H
	DB	02H
	DB	02H
	DB	02H
	DB	02H
	DB	02H
	DB	02H
	DB	02H
	DB	02H
	DB	02H
	DB	02H
	DB	02H
	DB	02H
	DB	02H
	DB	02H
	DB	02H
	DB	02H
	DB	02H
	DB	02H
	DB	02H
	DB	02H
	DB	02H
	DB	02H
	DB	02H
	DB	02H
	DB	02H
	DB	02H
	DB	02H
	DB	020H
	DB	01eH
	DB	042H
	DB	07H
	DB	07H
	DB	07H
	DB	07H
	DB	07H
	DB	07H
	DB	012H
	DB	093H
	DB	093H
	DB	093H
	DB	0bbH
	DB	021H
	DB	0a1H
	DB	0a1H
	DB	0a1H
	DB	0bfH
	DB	0eH
	DB	0eH
	DB	02H
	DB	02H
	DB	02H
	DB	02H
	DB	02H
	DB	02H
	DB	02H
	DB	02H
	DB	02H
	DB	04H
	DB	0dH
	DB	0dH
	DB	06H
	DB	02H
	DB	03H
	DB	04H
	DB	06H
	DB	03H
	DB	05H
	DB	04H
	DB	06H
	DB	03H
	DB	05H
	DB	04H
	DB	06H
	DB	03H
	DB	05H
	DB	04H
	DB	06H
	DB	03H
	DB	05H
	DB	03H
	DB	06H
	DB	03H
	DB	05H
	DB	03H
	DB	06H
	DB	03H
	DB	05H
	DB	03H
	DB	06H
	DB	04H
	DB	05H
	DB	03H
	DB	06H
	DB	04H
	DB	05H
	DB	03H
	DB	06H
	DB	04H
	DB	05H
	DB	03H
	DB	06H
	DB	04H
	DB	05H
	DB	044H
	DB	06H
	DB	04H
	DB	05H
	DB	044H
	DB	06H
	DB	04H
	DB	05H
	DB	026H
	DB	06H
	DB	04H
	DB	05H
	DB	026H
	DB	06H
	DB	04H
	DB	05H
	DB	026H
	DB	06H
	DB	06H
	DB	05H
	DB	05H
	DB	06H
	DB	06H
	DB	05H
	DB	05H
	DB	06H
	DB	06H
	DB	05H
	DB	05H
	DB	06H
	DB	06H
	DB	05H
	DB	05H
	DB	06H
	DB	06H
	DB	05H
	DB	05H
	DB	06H
	DB	06H
	DB	05H
	DB	05H
	DB	06H
	DB	06H
	DB	05H
	DB	05H
	DB	06H
	DB	06H
	DB	026H
	DB	05H
	DB	04H
	DB	06H
	DB	026H
	DB	05H
	DB	04H
	DB	06H
	DB	026H
	DB	05H
	DB	04H
	DB	06H
	DB	044H
	DB	05H
	DB	04H
	DB	06H
	DB	03H
	DB	05H
	DB	04H
	DB	06H
	DB	012H
	DB	080H
	DB	0fH
	DB	02H
	DB	02H
	DB	02H
	DB	02H
	DB	02H
	DB	02H
	DB	02H
	DB	02H
	DB	02H
	DB	02H
	DB	02H
	DB	02H
	DB	02H
	DB	02H
	DB	02H
	DB	02H
	DB	02H
	DB	02H
	DB	02H
	DB	02H
	DB	02H
	DB	02H
	DB	02H
	DB	02H
	DB	02H
	DB	02H
	DB	02H
	DB	02H
	DB	02H
	DB	02H
	DB	02H
	DB	02H
	DB	02H
	DB	02H
	DB	02H
	DB	02H
	DB	02H
	DB	02H
	DB	02H
	DB	02H
	DB	02H
	DB	02H
	DB	02H
	DB	02H
	DB	02H
	DB	02H
	DB	02H
	DB	02H
	DB	02H
	DB	02H
	DB	02H
	DB	02H
	DB	02H
	DB	02H
	DB	02H
	DB	02H
	DB	02H
	DB	02H
	DB	02H
	DB	02H
	DB	02H
	DB	02H
	DB	02H
	DB	02H
	DB	02H
	DB	02H
	DB	02H
	DB	02H
	DB	02H
	DB	02H
	DB	02H
	DB	02H
	DB	02H
	DB	02H
	DB	02H
	DB	02H
	DB	02H
	DB	02H
	DB	02H
	DB	02H
	DB	02H
	DB	02H
	DB	02H
	DB	0bH
	DB	01eH
	DB	053H
	DB	07H
	DB	07H
	DB	0cfH
	DB	0cfH
	DB	07H
	DB	07H
	DB	0d3H
	DB	093H
	DB	093H
	DB	093H
	DB	02bH
	DB	0aeH
	DB	0a1H
	DB	0a1H
	DB	0a1H
	DB	094H
	DB	0eH
	DB	0eH
	DB	02H
	DB	02H
	DB	02H
	DB	02H
	DB	02H
	DB	02H
	DB	02H
	DB	02H
	DB	02H
	DB	06H
	DB	0dH
	DB	0dH
	DB	04H
	DB	02H
	DB	04H
	DB	026H
	DB	05H
	DB	03H
	DB	03H
	DB	026H
	DB	05H
	DB	044H
	DB	03H
	DB	026H
	DB	05H
	DB	044H
	DB	03H
	DB	026H
	DB	05H
	DB	044H
	DB	03H
	DB	026H
	DB	05H
	DB	026H
	DB	03H
	DB	026H
	DB	05H
	DB	026H
	DB	03H
	DB	044H
	DB	05H
	DB	026H
	DB	03H
	DB	044H
	DB	05H
	DB	026H
	DB	03H
	DB	044H
	DB	05H
	DB	026H
	DB	03H
	DB	044H
	DB	05H
	DB	026H
	DB	03H
	DB	03H
	DB	05H
	DB	026H
	DB	03H
	DB	03H
	DB	05H
	DB	05H
	DB	03H
	DB	03H
	DB	05H
	DB	05H
	DB	03H
	DB	03H
	DB	05H
	DB	05H
	DB	03H
	DB	03H
	DB	05H
	DB	05H
	DB	03H
	DB	03H
	DB	05H
	DB	05H
	DB	03H
	DB	03H
	DB	05H
	DB	05H
	DB	03H
	DB	03H
	DB	05H
	DB	05H
	DB	03H
	DB	03H
	DB	05H
	DB	05H
	DB	03H
	DB	03H
	DB	05H
	DB	05H
	DB	03H
	DB	03H
	DB	05H
	DB	05H
	DB	03H
	DB	03H
	DB	05H
	DB	05H
	DB	03H
	DB	03H
	DB	05H
	DB	05H
	DB	03H
	DB	03H
	DB	05H
	DB	05H
	DB	03H
	DB	03H
	DB	05H
	DB	05H
	DB	03H
	DB	03H
	DB	026H
	DB	05H
	DB	03H
	DB	03H
	DB	026H
	DB	05H
	DB	012H
	DB	080H
	DB	0fH
	DB	02H
	DB	02H
	DB	02H
	DB	02H
	DB	02H
	DB	02H
	DB	02H
	DB	02H
	DB	02H
	DB	02H
	DB	02H
	DB	02H
	DB	02H
	DB	02H
	DB	02H
	DB	02H
	DB	02H
	DB	02H
	DB	02H
	DB	02H
	DB	02H
	DB	02H
	DB	02H
	DB	02H
	DB	02H
	DB	02H
	DB	02H
	DB	02H
	DB	02H
	DB	02H
	DB	02H
	DB	02H
	DB	02H
	DB	02H
	DB	02H
	DB	02H
	DB	02H
	DB	02H
	DB	02H
	DB	02H
	DB	02H
	DB	02H
	DB	02H
	DB	02H
	DB	02H
	DB	02H
	DB	02H
	DB	02H
	DB	02H
	DB	02H
	DB	02H
	DB	02H
	DB	02H
	DB	02H
	DB	02H
	DB	02H
	DB	02H
	DB	02H
	DB	02H
	DB	02H
	DB	02H
	DB	02H
	DB	02H
	DB	02H
	DB	02H
	DB	02H
	DB	02H
	DB	02H
	DB	02H
	DB	02H
	DB	02H
	DB	02H
	DB	02H
	DB	02H
	DB	02H
	DB	02H
	DB	02H
	DB	02H
	DB	02H
	DB	02H
	DB	02H
	DB	02H
	DB	02H
	DB	01cH
	DB	01cH
	DB	01fH
	DB	07H
	DB	07H
	DB	0cfH
	DB	0cfH
	DB	07H
	DB	07H
	DB	03cH
	DB	093H
	DB	093H
	DB	093H
	DB	02bH
	DB	0e0H
	DB	0a1H
	DB	0a1H
	DB	0a1H
	DB	0fdH
	DB	0eH
	DB	0eH
	DB	01aH
	DB	02H
	DB	02H
	DB	02H
	DB	02H
	DB	02H
	DB	02H
	DB	02H
	DB	02H
	DB	01aH
	DB	0dH
	DB	0dH
	DB	03H
	DB	02H
	DB	01aH
	DB	044H
	DB	05H
	DB	04H
	DB	06H
	DB	03H
	DB	05H
	DB	04H
	DB	06H
	DB	03H
	DB	05H
	DB	04H
	DB	06H
	DB	03H
	DB	05H
	DB	03H
	DB	06H
	DB	03H
	DB	05H
	DB	03H
	DB	06H
	DB	03H
	DB	05H
	DB	03H
	DB	06H
	DB	03H
	DB	05H
	DB	03H
	DB	06H
	DB	04H
	DB	05H
	DB	03H
	DB	06H
	DB	04H
	DB	05H
	DB	03H
	DB	06H
	DB	04H
	DB	05H
	DB	044H
	DB	06H
	DB	04H
	DB	05H
	DB	044H
	DB	06H
	DB	04H
	DB	05H
	DB	026H
	DB	06H
	DB	04H
	DB	05H
	DB	026H
	DB	06H
	DB	04H
	DB	05H
	DB	026H
	DB	06H
	DB	04H
	DB	05H
	DB	05H
	DB	06H
	DB	06H
	DB	05H
	DB	05H
	DB	06H
	DB	06H
	DB	05H
	DB	05H
	DB	06H
	DB	06H
	DB	05H
	DB	05H
	DB	06H
	DB	06H
	DB	05H
	DB	05H
	DB	06H
	DB	06H
	DB	05H
	DB	05H
	DB	06H
	DB	06H
	DB	05H
	DB	05H
	DB	06H
	DB	06H
	DB	05H
	DB	05H
	DB	04H
	DB	06H
	DB	026H
	DB	05H
	DB	04H
	DB	06H
	DB	026H
	DB	05H
	DB	04H
	DB	06H
	DB	026H
	DB	05H
	DB	04H
	DB	06H
	DB	044H
	DB	05H
	DB	04H
	DB	06H
	DB	03H
	DB	05H
	DB	012H
	DB	080H
	DB	0fH
	DB	02H
	DB	02H
	DB	02H
	DB	02H
	DB	02H
	DB	02H
	DB	02H
	DB	02H
	DB	02H
	DB	02H
	DB	02H
	DB	02H
	DB	02H
	DB	02H
	DB	02H
	DB	02H
	DB	02H
	DB	02H
	DB	02H
	DB	02H
	DB	02H
	DB	02H
	DB	02H
	DB	02H
	DB	02H
	DB	02H
	DB	02H
	DB	02H
	DB	02H
	DB	02H
	DB	02H
	DB	02H
	DB	02H
	DB	02H
	DB	02H
	DB	02H
	DB	02H
	DB	02H
	DB	02H
	DB	02H
	DB	02H
	DB	02H
	DB	02H
	DB	02H
	DB	02H
	DB	02H
	DB	02H
	DB	02H
	DB	02H
	DB	02H
	DB	02H
	DB	02H
	DB	02H
	DB	02H
	DB	02H
	DB	02H
	DB	02H
	DB	02H
	DB	02H
	DB	02H
	DB	02H
	DB	02H
	DB	02H
	DB	02H
	DB	02H
	DB	02H
	DB	02H
	DB	02H
	DB	02H
	DB	02H
	DB	02H
	DB	02H
	DB	02H
	DB	02H
	DB	02H
	DB	02H
	DB	02H
	DB	02H
	DB	02H
	DB	02H
	DB	02H
	DB	02H
	DB	02H
	DB	01cH
	DB	01cH
	DB	0cfH
	DB	07H
	DB	07H
	DB	03eH
	DB	03eH
	DB	07H
	DB	07H
	DB	07H
	DB	093H
	DB	093H
	DB	093H
	DB	093H
	DB	023H
	DB	011H
	DB	0a1H
	DB	0a1H
	DB	06fH
	DB	0eH
	DB	0eH
	DB	06H
	DB	02H
	DB	02H
	DB	02H
	DB	02H
	DB	02H
	DB	02H
	DB	02H
	DB	02H
	DB	02H
	DB	0dH
	DB	0dH
	DB	05H
	DB	02H
	DB	04H
	DB	03H
	DB	03H
	DB	026H
	DB	05H
	DB	03H
	DB	03H
	DB	026H
	DB	05H
	DB	044H
	DB	03H
	DB	026H
	DB	05H
	DB	044H
	DB	03H
	DB	026H
	DB	05H
	DB	044H
	DB	03H
	DB	026H
	DB	05H
	DB	026H
	DB	03H
	DB	044H
	DB	05H
	DB	026H
	DB	03H
	DB	044H
	DB	05H
	DB	026H
	DB	03H
	DB	044H
	DB	05H
	DB	026H
	DB	03H
	DB	044H
	DB	05H
	DB	026H
	DB	03H
	DB	03H
	DB	05H
	DB	026H
	DB	03H
	DB	03H
	DB	05H
	DB	026H
	DB	03H
	DB	03H
	DB	05H
	DB	026H
	DB	03H
	DB	03H
	DB	05H
	DB	05H
	DB	03H
	DB	03H
	DB	05H
	DB	05H
	DB	03H
	DB	03H
	DB	05H
	DB	05H
	DB	03H
	DB	03H
	DB	05H
	DB	05H
	DB	03H
	DB	03H
	DB	05H
	DB	05H
	DB	03H
	DB	03H
	DB	05H
	DB	05H
	DB	03H
	DB	03H
	DB	05H
	DB	05H
	DB	03H
	DB	03H
	DB	05H
	DB	05H
	DB	03H
	DB	03H
	DB	05H
	DB	05H
	DB	03H
	DB	03H
	DB	05H
	DB	05H
	DB	03H
	DB	03H
	DB	05H
	DB	05H
	DB	03H
	DB	03H
	DB	026H
	DB	05H
	DB	03H
	DB	03H
	DB	026H
	DB	05H
	DB	03H
	DB	03H
	DB	026H
	DB	05H
	DB	03H
	DB	03H
	DB	012H
	DB	080H
	DB	0fH
	DB	02H
	DB	02H
	DB	02H
	DB	02H
	DB	02H
	DB	02H
	DB	02H
	DB	02H
	DB	02H
	DB	02H
	DB	02H
	DB	02H
	DB	02H
	DB	02H
	DB	02H
	DB	02H
	DB	02H
	DB	02H
	DB	02H
	DB	02H
	DB	02H
	DB	02H
	DB	02H
	DB	02H
	DB	02H
	DB	02H
	DB	02H
	DB	02H
	DB	02H
	DB	02H
	DB	02H
	DB	02H
	DB	02H
	DB	02H
	DB	02H
	DB	02H
	DB	02H
	DB	02H
	DB	02H
	DB	02H
	DB	02H
	DB	02H
	DB	02H
	DB	02H
	DB	02H
	DB	02H
	DB	02H
	DB	02H
	DB	02H
	DB	02H
	DB	02H
	DB	02H
	DB	02H
	DB	02H
	DB	02H
	DB	02H
	DB	02H
	DB	02H
	DB	02H
	DB	02H
	DB	02H
	DB	02H
	DB	02H
	DB	02H
	DB	02H
	DB	02H
	DB	02H
	DB	02H
	DB	02H
	DB	02H
	DB	02H
	DB	02H
	DB	02H
	DB	02H
	DB	02H
	DB	02H
	DB	02H
	DB	02H
	DB	02H
	DB	02H
	DB	02H
	DB	02H
	DB	02H
	DB	01cH
	DB	01cH
	DB	07H
	DB	07H
	DB	07H
	DB	01fH
	DB	01fH
	DB	07H
	DB	07H
	DB	07H
	DB	025H
	DB	093H
	DB	093H
	DB	093H
	DB	0dcH
	DB	011H
	DB	0a1H
	DB	0a1H
	DB	05fH
	DB	0d7H
	DB	0eH
	DB	04H
	DB	02H
	DB	02H
	DB	02H
	DB	02H
	DB	02H
	DB	02H
	DB	02H
	DB	02H
	DB	02H
	DB	033H
	DB	0dH
	DB	08H
	DB	02H
	DB	06H
	DB	04H
	DB	06H
	DB	044H
	DB	05H
	DB	04H
	DB	06H
	DB	03H
	DB	05H
	DB	04H
	DB	06H
	DB	03H
	DB	05H
	DB	04H
	DB	06H
	DB	03H
	DB	05H
	DB	03H
	DB	06H
	DB	03H
	DB	05H
	DB	03H
	DB	06H
	DB	03H
	DB	05H
	DB	03H
	DB	06H
	DB	03H
	DB	05H
	DB	03H
	DB	06H
	DB	04H
	DB	05H
	DB	03H
	DB	06H
	DB	04H
	DB	05H
	DB	03H
	DB	06H
	DB	04H
	DB	05H
	DB	044H
	DB	06H
	DB	04H
	DB	05H
	DB	026H
	DB	06H
	DB	04H
	DB	05H
	DB	026H
	DB	06H
	DB	04H
	DB	05H
	DB	026H
	DB	06H
	DB	04H
	DB	05H
	DB	05H
	DB	06H
	DB	06H
	DB	05H
	DB	05H
	DB	06H
	DB	06H
	DB	05H
	DB	05H
	DB	06H
	DB	06H
	DB	05H
	DB	05H
	DB	06H
	DB	06H
	DB	05H
	DB	05H
	DB	06H
	DB	06H
	DB	05H
	DB	05H
	DB	06H
	DB	06H
	DB	05H
	DB	05H
	DB	06H
	DB	06H
	DB	05H
	DB	05H
	DB	04H
	DB	06H
	DB	026H
	DB	05H
	DB	04H
	DB	06H
	DB	026H
	DB	05H
	DB	04H
	DB	06H
	DB	026H
	DB	05H
	DB	04H
	DB	06H
	DB	044H
	DB	05H
	DB	04H
	DB	06H
	DB	044H
	DB	05H
	DB	04H
	DB	06H
	DB	05dH
	DB	012H
	DB	0fH
	DB	02H
	DB	02H
	DB	02H
	DB	02H
	DB	02H
	DB	02H
	DB	02H
	DB	02H
	DB	02H
	DB	02H
	DB	02H
	DB	02H
	DB	02H
	DB	02H
	DB	02H
	DB	02H
	DB	02H
	DB	02H
	DB	02H
	DB	02H
	DB	02H
	DB	02H
	DB	02H
	DB	02H
	DB	02H
	DB	02H
	DB	02H
	DB	02H
	DB	02H
	DB	02H
	DB	02H
	DB	02H
	DB	02H
	DB	02H
	DB	02H
	DB	02H
	DB	02H
	DB	02H
	DB	02H
	DB	02H
	DB	02H
	DB	02H
	DB	02H
	DB	02H
	DB	02H
	DB	02H
	DB	02H
	DB	02H
	DB	02H
	DB	02H
	DB	02H
	DB	02H
	DB	02H
	DB	02H
	DB	02H
	DB	02H
	DB	02H
	DB	02H
	DB	02H
	DB	02H
	DB	02H
	DB	02H
	DB	02H
	DB	02H
	DB	02H
	DB	02H
	DB	02H
	DB	02H
	DB	02H
	DB	02H
	DB	02H
	DB	02H
	DB	02H
	DB	02H
	DB	02H
	DB	02H
	DB	02H
	DB	02H
	DB	02H
	DB	02H
	DB	02H
	DB	02H
	DB	02H
	DB	01cH
	DB	01cH
	DB	07H
	DB	07H
	DB	07H
	DB	066H
	DB	030H
	DB	07H
	DB	07H
	DB	07H
	DB	082H
	DB	0baH
	DB	0baH
	DB	0baH
	DB	029H
	DB	095H
	DB	0a1H
	DB	011H
	DB	0a0H
	DB	08eH
	DB	0eH
	DB	026H
	DB	02H
	DB	02H
	DB	02H
	DB	02H
	DB	02H
	DB	02H
	DB	02H
	DB	02H
	DB	02H
	DB	08H
	DB	0dH
	DB	02cH
	DB	02H
	DB	01aH
	DB	026H
	DB	05H
	DB	03H
	DB	03H
	DB	026H
	DB	05H
	DB	044H
	DB	03H
	DB	026H
	DB	05H
	DB	044H
	DB	03H
	DB	026H
	DB	05H
	DB	044H
	DB	03H
	DB	026H
	DB	05H
	DB	044H
	DB	03H
	DB	044H
	DB	05H
	DB	044H
	DB	03H
	DB	044H
	DB	05H
	DB	026H
	DB	03H
	DB	044H
	DB	05H
	DB	026H
	DB	03H
	DB	044H
	DB	05H
	DB	026H
	DB	03H
	DB	03H
	DB	05H
	DB	026H
	DB	03H
	DB	03H
	DB	05H
	DB	026H
	DB	03H
	DB	03H
	DB	05H
	DB	026H
	DB	03H
	DB	03H
	DB	05H
	DB	026H
	DB	03H
	DB	03H
	DB	05H
	DB	05H
	DB	03H
	DB	03H
	DB	05H
	DB	05H
	DB	03H
	DB	03H
	DB	05H
	DB	05H
	DB	03H
	DB	03H
	DB	05H
	DB	05H
	DB	03H
	DB	03H
	DB	05H
	DB	05H
	DB	03H
	DB	03H
	DB	05H
	DB	05H
	DB	03H
	DB	03H
	DB	05H
	DB	05H
	DB	03H
	DB	03H
	DB	05H
	DB	05H
	DB	03H
	DB	03H
	DB	05H
	DB	05H
	DB	03H
	DB	03H
	DB	026H
	DB	05H
	DB	03H
	DB	03H
	DB	026H
	DB	05H
	DB	03H
	DB	03H
	DB	026H
	DB	05H
	DB	03H
	DB	03H
	DB	026H
	DB	05H
	DB	03H
	DB	03H
	DB	026H
	DB	05H
	DB	05dH
	DB	012H
	DB	0fH
	DB	02H
	DB	02H
	DB	02H
	DB	02H
	DB	02H
	DB	02H
	DB	02H
	DB	02H
	DB	02H
	DB	02H
	DB	02H
	DB	02H
	DB	02H
	DB	02H
	DB	02H
	DB	02H
	DB	02H
	DB	02H
	DB	02H
	DB	02H
	DB	02H
	DB	02H
	DB	02H
	DB	02H
	DB	02H
	DB	02H
	DB	02H
	DB	02H
	DB	02H
	DB	02H
	DB	02H
	DB	02H
	DB	02H
	DB	02H
	DB	02H
	DB	02H
	DB	02H
	DB	02H
	DB	02H
	DB	02H
	DB	02H
	DB	02H
	DB	02H
	DB	02H
	DB	02H
	DB	02H
	DB	02H
	DB	02H
	DB	02H
	DB	02H
	DB	02H
	DB	02H
	DB	02H
	DB	02H
	DB	02H
	DB	02H
	DB	02H
	DB	02H
	DB	02H
	DB	02H
	DB	02H
	DB	02H
	DB	02H
	DB	02H
	DB	02H
	DB	02H
	DB	02H
	DB	02H
	DB	02H
	DB	02H
	DB	02H
	DB	02H
	DB	02H
	DB	02H
	DB	02H
	DB	02H
	DB	02H
	DB	02H
	DB	02H
	DB	02H
	DB	02H
	DB	02H
	DB	02H
	DB	01cH
	DB	01cH
	DB	07H
	DB	07H
	DB	07H
	DB	022H
	DB	01dH
	DB	07H
	DB	07H
	DB	07H
	DB	081H
	DB	0baH
	DB	0baH
	DB	0baH
	DB	09eH
	DB	014H
	DB	011H
	DB	011H
	DB	0a0H
	DB	067H
	DB	0eH
	DB	08H
	DB	02H
	DB	02H
	DB	02H
	DB	02H
	DB	02H
	DB	02H
	DB	02H
	DB	02H
	DB	02H
	DB	05H
	DB	0dH
	DB	036H
	DB	02H
	DB	02H
	DB	044H
	DB	05H
	DB	04H
	DB	06H
	DB	044H
	DB	05H
	DB	04H
	DB	06H
	DB	03H
	DB	05H
	DB	04H
	DB	06H
	DB	03H
	DB	05H
	DB	03H
	DB	06H
	DB	03H
	DB	05H
	DB	03H
	DB	06H
	DB	03H
	DB	05H
	DB	03H
	DB	06H
	DB	03H
	DB	05H
	DB	03H
	DB	06H
	DB	03H
	DB	05H
	DB	03H
	DB	06H
	DB	04H
	DB	05H
	DB	03H
	DB	06H
	DB	04H
	DB	05H
	DB	044H
	DB	06H
	DB	04H
	DB	05H
	DB	044H
	DB	06H
	DB	04H
	DB	05H
	DB	026H
	DB	06H
	DB	04H
	DB	05H
	DB	026H
	DB	06H
	DB	04H
	DB	05H
	DB	026H
	DB	06H
	DB	04H
	DB	05H
	DB	05H
	DB	06H
	DB	06H
	DB	05H
	DB	05H
	DB	06H
	DB	06H
	DB	05H
	DB	05H
	DB	06H
	DB	06H
	DB	05H
	DB	05H
	DB	06H
	DB	06H
	DB	05H
	DB	05H
	DB	06H
	DB	06H
	DB	05H
	DB	05H
	DB	06H
	DB	06H
	DB	05H
	DB	05H
	DB	06H
	DB	06H
	DB	05H
	DB	05H
	DB	04H
	DB	06H
	DB	026H
	DB	05H
	DB	04H
	DB	06H
	DB	026H
	DB	05H
	DB	04H
	DB	06H
	DB	026H
	DB	05H
	DB	04H
	DB	06H
	DB	044H
	DB	05H
	DB	04H
	DB	06H
	DB	044H
	DB	05H
	DB	05dH
	DB	012H
	DB	0fH
	DB	02H
	DB	02H
	DB	02H
	DB	02H
	DB	02H
	DB	02H
	DB	02H
	DB	02H
	DB	02H
	DB	02H
	DB	02H
	DB	02H
	DB	02H
	DB	02H
	DB	02H
	DB	02H
	DB	02H
	DB	02H
	DB	02H
	DB	02H
	DB	02H
	DB	02H
	DB	02H
	DB	02H
	DB	02H
	DB	02H
	DB	02H
	DB	02H
	DB	02H
	DB	02H
	DB	02H
	DB	02H
	DB	02H
	DB	02H
	DB	02H
	DB	02H
	DB	02H
	DB	02H
	DB	02H
	DB	02H
	DB	02H
	DB	02H
	DB	02H
	DB	02H
	DB	02H
	DB	02H
	DB	02H
	DB	02H
	DB	02H
	DB	02H
	DB	02H
	DB	02H
	DB	02H
	DB	02H
	DB	02H
	DB	02H
	DB	02H
	DB	02H
	DB	02H
	DB	02H
	DB	02H
	DB	02H
	DB	02H
	DB	02H
	DB	02H
	DB	02H
	DB	02H
	DB	02H
	DB	02H
	DB	02H
	DB	02H
	DB	02H
	DB	02H
	DB	02H
	DB	02H
	DB	02H
	DB	02H
	DB	02H
	DB	02H
	DB	02H
	DB	02H
	DB	02H
	DB	02H
	DB	01cH
	DB	01cH
	DB	07H
	DB	07H
	DB	07H
	DB	0cH
	DB	0fH
	DB	07H
	DB	07H
	DB	07H
	DB	019H
	DB	0baH
	DB	0baH
	DB	0baH
	DB	016H
	DB	09fH
	DB	011H
	DB	011H
	DB	011H
	DB	052H
	DB	0eH
	DB	02cH
	DB	02H
	DB	02H
	DB	02H
	DB	02H
	DB	02H
	DB	02H
	DB	02H
	DB	02H
	DB	02H
	DB	03H
	DB	0dH
	DB	0dH
	DB	06H
	DB	02H
	DB	03H
	DB	03H
	DB	026H
	DB	05H
	DB	03H
	DB	03H
	DB	026H
	DB	05H
	DB	044H
	DB	03H
	DB	026H
	DB	05H
	DB	044H
	DB	03H
	DB	026H
	DB	05H
	DB	044H
	DB	03H
	DB	044H
	DB	05H
	DB	044H
	DB	03H
	DB	044H
	DB	05H
