; Listing generated by Microsoft (R) Optimizing Compiler Version 16.00.40219.01 

	TITLE	C:\DUII\DUII\Graphics\RoadRace.c
	.686P
	.XMM
	include listing.inc
	.model	flat

INCLUDELIB LIBCMT
INCLUDELIB OLDNAMES

PUBLIC	_bmRoadRace
EXTRN	_GUI_BitmapMethods8888:BYTE
CONST	SEGMENT
_acRoadRace DD	0ffffffffH
	DD	0ffffffffH
	DD	0ffffffffH
	DD	0ffffffffH
	DD	0ffffffffH
	DD	0ffffffffH
	DD	0ffffffffH
	DD	0ffffffffH
	DD	0ffffffffH
	DD	0ffffffffH
	DD	0ffffffffH
	DD	0ffffffffH
	DD	0ffffffffH
	DD	0ffffffffH
	DD	0ffffffffH
	DD	0ffffffffH
	DD	0ffffffffH
	DD	0ffffffffH
	DD	0ffffffffH
	DD	0ffffffffH
	DD	0ffffffffH
	DD	0ffffffffH
	DD	0ffffffffH
	DD	0ffffffffH
	DD	0ffffffffH
	DD	0ffffffffH
	DD	0ffffffffH
	DD	0ffffffffH
	DD	0ffffffffH
	DD	0ffffffffH
	DD	0ffffffffH
	DD	0ffffffffH
	DD	0ffffffffH
	DD	0ffffffffH
	DD	0ffffffffH
	DD	0ffffffffH
	DD	0ffffffffH
	DD	0ffffffffH
	DD	0ffffffffH
	DD	0ffffffffH
	DD	0ffffffffH
	DD	0ffffffffH
	DD	0ffffffffH
	DD	0ffffffffH
	DD	0ffffffffH
	DD	0ffffffffH
	DD	0ffffffffH
	DD	0ffffffffH
	DD	0ffffffffH
	DD	0ffffffffH
	DD	0ffffffffH
	DD	0ffffffffH
	DD	0ffffffffH
	DD	0ffffffffH
	DD	0ffffffffH
	DD	0ffffffffH
	DD	0ffffffffH
	DD	0ffffffffH
	DD	0ffffffffH
	DD	0ffffffffH
	DD	0ffffffffH
	DD	0ffffffffH
	DD	0ffffffffH
	DD	0ffffffffH
	DD	0ffffffffH
	DD	0ffffffffH
	DD	0ffffffffH
	DD	0ffffffffH
	DD	0ffffffffH
	DD	0ffffffffH
	DD	0ffffffffH
	DD	0ffffffffH
	DD	0ffffffffH
	DD	0ffffffffH
	DD	0ffffffffH
	DD	0ffffffffH
	DD	0ffffffffH
	DD	0ffffffffH
	DD	0ffffffffH
	DD	0ffffffffH
	DD	0ffffffffH
	DD	0ffffffffH
	DD	0ffffffffH
	DD	0ffffffffH
	DD	0ffffffffH
	DD	0ffffffffH
	DD	0ffffffffH
	DD	0ffffffffH
	DD	0ffffffffH
	DD	0ffffffffH
	DD	0ffffffffH
	DD	0ffffffffH
	DD	0ffffffffH
	DD	0ffffffffH
	DD	0ffffffffH
	DD	0ffffffffH
	DD	0ffffffffH
	DD	0ffffffffH
	DD	0ffffffffH
	DD	0ffffffffH
	DD	0ffffffffH
	DD	0ffffffffH
	DD	0ffffffffH
	DD	0ffffffffH
	DD	0ffffffffH
	DD	0ffffffffH
	DD	0ffffffffH
	DD	0ffffffffH
	DD	0ffffffffH
	DD	0ffffffffH
	DD	0ffffffffH
	DD	0ffffffffH
	DD	0ffffffffH
	DD	0ffffffffH
	DD	0ffffffffH
	DD	0ffffffffH
	DD	0ffffffffH
	DD	0ffffffffH
	DD	0ffffffffH
	DD	0ffffffffH
	DD	0ffffffffH
	DD	0ffffffffH
	DD	0ffffffffH
	DD	0ffffffffH
	DD	0ffffffffH
	DD	0ffffffffH
	DD	0ffffffffH
	DD	0ffffffffH
	DD	0ffffffffH
	DD	0ffffffffH
	DD	0ffffffffH
	DD	0ffffffffH
	DD	0ffffffffH
	DD	0ffffffffH
	DD	0ffffffffH
	DD	0ffffffffH
	DD	0ffffffffH
	DD	0ffffffffH
	DD	0ffffffffH
	DD	0ffffffffH
	DD	0ffffffffH
	DD	0ffffffffH
	DD	0ffffffffH
	DD	0ffffffffH
	DD	0ffffffffH
	DD	0ffffffffH
	DD	0ffffffffH
	DD	0ffffffffH
	DD	0ffffffffH
	DD	0ffffffffH
	DD	0ffffffffH
	DD	0ffffffffH
	DD	0ffffffffH
	DD	0ffffffffH
	DD	0ffffffffH
	DD	0ffffffffH
	DD	0ffffffffH
	DD	0ffffffffH
	DD	0ffffffffH
	DD	0ffffffffH
	DD	0ffffffffH
	DD	0ffffffffH
	DD	0ffffffffH
	DD	0ffffffffH
	DD	0ffffffffH
	DD	0ffffffffH
	DD	0ffffffffH
	DD	0ffffffffH
	DD	0ffffffffH
	DD	0ffffffffH
	DD	0ffffffffH
	DD	0ffffffffH
	DD	0ffffffffH
	DD	0ffffffffH
	DD	0ffffffffH
	DD	0ffffffffH
	DD	0ffffffffH
	DD	0ffffffffH
	DD	0ffffffffH
	DD	0ffffffffH
	DD	0ffffffffH
	DD	0ffffffffH
	DD	0ffffffffH
	DD	0ffffffffH
	DD	0ffffffffH
	DD	0ffffffffH
	DD	0ffffffffH
	DD	0ffffffffH
	DD	0ffffffffH
	DD	0ffffffffH
	DD	0ffffffffH
	DD	0ffffffffH
	DD	0ffffffffH
	DD	0ffffffffH
	DD	0ffffffffH
	DD	0ffffffffH
	DD	0ffffffffH
	DD	0ffffffffH
	DD	0ffffffffH
	DD	0ffffffffH
	DD	0ffffffffH
	DD	0ffffffffH
	DD	0ffffffffH
	DD	0ffffffffH
	DD	0ffffffffH
	DD	0ffffffffH
	DD	0ffffffffH
	DD	0ffffffffH
	DD	0ffffffffH
	DD	0ffffffffH
	DD	0ffffffffH
	DD	0ffffffffH
	DD	0ffffffffH
	DD	0ffffffffH
	DD	0ffffffffH
	DD	0ffffffffH
	DD	0ffffffffH
	DD	0ffffffffH
	DD	0ffffffffH
	DD	0ffffffffH
	DD	0ffffffffH
	DD	0ffffffffH
	DD	0ffffffffH
	DD	0ffffffffH
	DD	0ffffffffH
	DD	0ffffffffH
	DD	0ffffffffH
	DD	0ffffffffH
	DD	0ffffffffH
	DD	0ffffffffH
	DD	0ffffffffH
	DD	0ffffffffH
	DD	0ffffffffH
	DD	0ffffffffH
	DD	0ffffffffH
	DD	0ffffffffH
	DD	0ffffffffH
	DD	0ffffffffH
	DD	0ffffffffH
	DD	0ffffffffH
	DD	0ffffffffH
	DD	0ffffffffH
	DD	0ffffffffH
	DD	0ffffffffH
	DD	0ffffffffH
	DD	0ffffffffH
	DD	0ffffffffH
	DD	0ffffffffH
	DD	0ffffffffH
	DD	0ffffffffH
	DD	0ffffffffH
	DD	0ffffffffH
	DD	0ffffffffH
	DD	0ffffffffH
	DD	0ffffffffH
	DD	0ffffffffH
	DD	0ffffffffH
	DD	0ffffffffH
	DD	0ffffffffH
	DD	0ffffffffH
	DD	0ffffffffH
	DD	0ffffffffH
	DD	0ffffffffH
	DD	0ffffffffH
	DD	0ffffffffH
	DD	0ffffffffH
	DD	0ffffffffH
	DD	0ffffffffH
	DD	0ffffffffH
	DD	0ffffffffH
	DD	0ffffffffH
	DD	0ffffffffH
	DD	0ffffffffH
	DD	0ffffffffH
	DD	0ffffffffH
	DD	0ffffffffH
	DD	0ffffffffH
	DD	0ffffffffH
	DD	0ffffffffH
	DD	0ffffffffH
	DD	0ffffffffH
	DD	0ffffffffH
	DD	0ffffffffH
	DD	0ffffffffH
	DD	0ffffffffH
	DD	0ffffffffH
	DD	0ffffffffH
	DD	0ffffffffH
	DD	0ffffffffH
	DD	0ffffffffH
	DD	0ffffffffH
	DD	0ffffffffH
	DD	0ffffffffH
	DD	0ffffffffH
	DD	0ffffffffH
	DD	0ffffffffH
	DD	0ffffffffH
	DD	0ffffffffH
	DD	0ffffffffH
	DD	0ffffffffH
	DD	0ffffffffH
	DD	0ffffffffH
	DD	0ffffffffH
	DD	0ffffffffH
	DD	0ffffffffH
	DD	0ffffffffH
	DD	0ffffffffH
	DD	0ffffffffH
	DD	0ffffffffH
	DD	0ffffffffH
	DD	0ffffffffH
	DD	0ffffffffH
	DD	0ffffffffH
	DD	0ffffffffH
	DD	0ffffffffH
	DD	0ffffffffH
	DD	0ffffffffH
	DD	0ffffffffH
	DD	0fffcfcfcH
	DD	0fff5f5f5H
	DD	0fff4f4f4H
	DD	0fff3f3f3H
	DD	0fff5f5f5H
	DD	0fff6f6f6H
	DD	0ffffffffH
	DD	0ffffffffH
	DD	0ffffffffH
	DD	0ffffffffH
	DD	0ffffffffH
	DD	0ffffffffH
	DD	0ffffffffH
	DD	0ffffffffH
	DD	0ffffffffH
	DD	0ffffffffH
	DD	0ffffffffH
	DD	0ffffffffH
	DD	0ffffffffH
	DD	0ffffffffH
	DD	0ffffffffH
	DD	0ffffffffH
	DD	0ffffffffH
	DD	0ffffffffH
	DD	0ffffffffH
	DD	0ffffffffH
	DD	0ffffffffH
	DD	0ffffffffH
	DD	0ffffffffH
	DD	0ffffffffH
	DD	0ffffffffH
	DD	0ffffffffH
	DD	0ffffffffH
	DD	0ffffffffH
	DD	0ffffffffH
	DD	0ffffffffH
	DD	0ffffffffH
	DD	0ffffffffH
	DD	0ffffffffH
	DD	0ffffffffH
	DD	0ffffffffH
	DD	0ffffffffH
	DD	0ffffffffH
	DD	0ffffffffH
	DD	0ffffffffH
	DD	0ffffffffH
	DD	0ffffffffH
	DD	0ffffffffH
	DD	0ffffffffH
	DD	0ffffffffH
	DD	0ffffffffH
	DD	0ffffffffH
	DD	0ffffffffH
	DD	0ffffffffH
	DD	0ffffffffH
	DD	0ffffffffH
	DD	0ffffffffH
	DD	0ffffffffH
	DD	0ffd5d5d5H
	DD	0ffcfcfcfH
	DD	0ffd0d0d0H
	DD	0ffd0d0d0H
	DD	0ffd0d0d0H
	DD	0ffd0d0d0H
	DD	0ffd0d0d0H
	DD	0ffd0d0d0H
	DD	0ffd0d0d0H
	DD	0ffd0d0d0H
	DD	0ffd0d0d0H
	DD	0ffd0d0d0H
	DD	0ffd0d0d0H
	DD	0ffd0d0d0H
	DD	0ffd0d0d0H
	DD	0ffd0d0d0H
	DD	0ffd0d0d0H
	DD	0ffd0d0d0H
	DD	0ffd0d0d0H
	DD	0ffd0d0d1H
	DD	0ffcecdccH
	DD	0ffcecbc8H
	DD	0ffd8d4cfH
	DD	0ffeeeae2H
	DD	0fffdf8eeH
	DD	0fffdf6edH
	DD	0fffcf6edH
	DD	0fffcf6edH
	DD	0fffcf6edH
	DD	0fffcf6ecH
	DD	0fffef7ebH
	DD	0fffef6eaH
	DD	0fffdf5ecH
	DD	0fffef6eaH
	DD	0fffef5ebH
	DD	0fffbf4ebH
	DD	0fffdf4e9H
	DD	0fffef4e8H
	DD	0fffcf4eaH
	DD	0fffaf3e9H
	DD	0fffbf2e8H
	DD	0fffcf2e7H
	DD	0fffbf2e8H
	DD	0fffbf1e8H
	DD	0fffaf2eaH
	DD	0ffe7dfdaH
	DD	0ffcfc3c1H
	DD	0ffd1c6c3H
	DD	0ffd0c5c3H
	DD	0ffd4c9c5H
	DD	0ffe0d2c9H
	DD	0fff5e8e4H
	DD	0fff2e7e2H
	DD	0ffcdc4bcH
	DD	0ffcac3c1H
	DD	0ffcac4c2H
	DD	0ffc7c1c0H
	DD	0ffdbd4cfH
	DD	0fffbf2e8H
	DD	0fff6efe7H
	DD	0fff6eee6H
	DD	0fff6efe6H
	DD	0fff7efe5H
	DD	0fff8efe4H
	DD	0fff9efe4H
	DD	0fff8efe4H
	DD	0fffaf0e5H
	DD	0fff2eae2H
	DD	0ffdfdad6H
	DD	0ffdbd5d2H
	DD	0ffdad3d0H
	DD	0ffd7dcdeH
	DD	0ffd6e6f4H
	DD	0ffd7e7f6H
	DD	0ffd8e8f8H
	DD	0ffd9e9f9H
	DD	0ffd8e9f9H
	DD	0ffddebf9H
	DD	0ffdaedfaH
	DD	0ffdeedfaH
	DD	0ffdbeefaH
	DD	0ffdbf0fcH
	DD	0ffddf1fcH
	DD	0ffddedf9H
	DD	0ffd9ecfbH
	DD	0ffdef0fbH
	DD	0ffdedcddH
	DD	0ffd0ccccH
	DD	0ffd6d3d2H
	DD	0ffcec9c7H
	DD	0ffc9c2c0H
	DD	0ffe5dfd8H
	DD	0fffff9efH
	DD	0fffdf6ecH
	DD	0fffdf4e9H
	DD	0fffef4e7H
	DD	0fffff7eaH
	DD	0ffece5ddH
	DD	0ffb1b2b2H
	DD	0ffb5b5b5H
	DD	0ffb5b5b5H
	DD	0ffb5b5b5H
	DD	0ffb5b5b5H
	DD	0ffb5b5b5H
	DD	0ffb5b5b5H
	DD	0debebebeH
	DD	0af919291H
	DD	0be151515H
	DD	06f2a2a2aH
	DD	091575757H
	DD	0b9494949H
	DD	0b33b3b3bH
	DD	0d7555555H
	DD	0ff7d7d7dH
	DD	0ff959595H
	DD	0fffdfdfdH
	DD	0ffffffffH
	DD	0ffffffffH
	DD	0ffffffffH
	DD	0ffffffffH
	DD	0ffdbdbdbH
	DD	0ff989898H
	DD	0ff898989H
	DD	0ff878787H
	DD	0ff979797H
	DD	0ff8e8e8eH
	DD	0ff3b3b3bH
	DD	0ff2f2f2fH
	DD	0ff6f6f6fH
	DD	0ff666666H
	DD	0ff4c4c4cH
	DD	0ff393939H
	DD	0ff606060H
	DD	0ff515151H
	DD	0ff404040H
	DD	0ff444444H
	DD	0ff848484H
	DD	0ff565656H
	DD	0ff3d3d3dH
	DD	0ff414141H
	DD	0ff787878H
	DD	0ff666666H
	DD	0ff404040H
	DD	0ff4d4d4dH
	DD	0ff6f6f6fH
	DD	0ff595959H
	DD	0ff535353H
	DD	0ff4d4d4dH
	DD	0ff4b4b4bH
	DD	0ff222222H
	DD	0ff1e1e1eH
	DD	0ff1f1f1fH
	DD	0ff1f1f1fH
	DD	0ff121212H
	DD	0ff5f5f5fH
	DD	0ffffffffH
	DD	0ffffffffH
	DD	0ffffffffH
	DD	0ffffffffH
	DD	0ffffffffH
	DD	0ffffffffH
	DD	0ffffffffH
	DD	0ffffffffH
	DD	0ffffffffH
	DD	0ffffffffH
	DD	0ffffffffH
	DD	0ffffffffH
	DD	0ffffffffH
	DD	0ffffffffH
	DD	0ffffffffH
	DD	0ffffffffH
	DD	0ffffffffH
	DD	0ffffffffH
	DD	0ffffffffH
	DD	0ffffffffH
	DD	0ffffffffH
	DD	0ffffffffH
	DD	0fffefefeH
	DD	0ff686868H
	DD	0ff515252H
	DD	0ff555656H
	DD	0ff555656H
	DD	0ff555656H
	DD	0ff555656H
	DD	0ff555656H
	DD	0ff555656H
	DD	0ff555656H
	DD	0ff555656H
	DD	0ff555656H
	DD	0ff555656H
	DD	0ff555656H
	DD	0ff555656H
	DD	0ff555656H
	DD	0ff555656H
	DD	0ff555656H
	DD	0ff555656H
	DD	0ff555656H
	DD	0ff565758H
	DD	0ff4f4c48H
	DD	0ff4c4337H
	DD	0ff706253H
	DD	0ffc5b298H
	DD	0fffae5c1H
	DD	0fff9debcH
	DD	0fff5debeH
	DD	0fff5ddbdH
	DD	0fff4debcH
	DD	0fff5debaH
	DD	0fffce0b7H
	DD	0fffbdeb4H
	DD	0fff9ddb9H
	DD	0fffaddb3H
	DD	0fff9dcb6H
	DD	0fff1d8b7H
	DD	0fff8d6aeH
	DD	0fffbd7acH
	DD	0fff5d7b2H
	DD	0ffeed2b1H
	DD	0fff2d1abH
	DD	0fff4d0aaH
	DD	0fff0cfadH
	DD	0ffefceabH
	DD	0ffecd2b2H
	DD	0ffaa8c78H
	DD	0ff50261dH
	DD	0ff593026H
	DD	0ff572e25H
	DD	0ff633a2cH
	DD	0ff8d5c3dH
	DD	0ffdbac9eH
	DD	0ffcfa996H
	DD	0ff4a290dH
	DD	0ff3d2720H
	DD	0ff3f2a23H
	DD	0ff34201bH
	DD	0ff7d6452H
	DD	0ffefcfabH
	DD	0ffdfc5a7H
	DD	0ffdfc1a3H
	DD	0ffdfc3a2H
	DD	0ffe0c3a0H
	DD	0ffe5c49dH
	DD	0ffe7c49cH
	DD	0ffe6c29dH
	DD	0ffebc7a1H
	DD	0ffcfb295H
	DD	0ff8c7b6aH
	DD	0ff7c695dH
	DD	0ff7b6257H
	DD	0ff707f86H
	DD	0ff6ba6d8H
	DD	0ff6fa7deH
	DD	0ff72abe5H
	DD	0ff79b0e7H
	DD	0ff72b1eaH
	DD	0ff82b7e7H
	DD	0ff7bbcedH
	DD	0ff87bfebH
	DD	0ff7cbfebH
	DD	0ff7ec9f2H
	DD	0ff83cbf4H
	DD	0ff84bde9H
	DD	0ff76bbf0H
	DD	0ff89c8efH
	DD	0ff867f82H
	DD	0ff544846H
	DD	0ff69615bH
	DD	0ff4e3c35H
	DD	0ff3a261cH
	DD	0ffa28a73H
	DD	0ffffe7c5H
	DD	0fff8dcbaH
	DD	0fff6d8b0H
	DD	0fffad8aaH
	DD	0ffffe0b5H
	DD	0ffbda387H
	DD	0ff000000H
	DD	0ff000000H
	DD	0ff000000H
	DD	0ff000000H
	DD	0ff000000H
	DD	0ff000000H
	DD	0e2000000H
	DD	02c000000H
	DD	00H
	DD	00H
	DD	0151515H
	DD	04b4b4bH
	DD	0393939H
	DD	02e2e2eH
	DD	0203c3c3cH
	DD	0756b6b6bH
	DD	0a7424242H
	DD	0e95e5e5eH
	DD	0fd6e6e6eH
	DD	0ffc2c2c2H
	DD	0ffebebebH
	DD	0ffe1e1e1H
	DD	0ffeaeaeaH
	DD	0fff0f0f0H
	DD	0ffebebebH
	DD	0ffebebebH
	DD	0fffefefeH
	DD	0fffafafaH
	DD	0ffc0c0c0H
	DD	0ffbbbbbbH
	DD	0ffd0d0d0H
	DD	0ffcdcdcdH
	DD	0ffccccccH
	DD	0ff656565H
	DD	0ff595959H
	DD	0ff565656H
	DD	0ff222222H
	DD	0ff202020H
	DD	0ff6e6e6eH
	DD	0ff393939H
	DD	0ff1b1b1bH
	DD	0ff202020H
	DD	0ff616161H
	DD	0ff4b4b4bH
	DD	0ff1f1f1fH
	DD	0ff2e2e2eH
	DD	0ff565656H
	DD	0ff3d3d3dH
	DD	0ff353535H
	DD	0ff2f2f2fH
	DD	0ff2c2c2cH
	DD	0ff010101H
	DD	0ff000000H
	DD	0ff000000H
	DD	0ff000000H
	DD	0ff000000H
	DD	0ff494949H
	DD	0ffffffffH
	DD	0ffffffffH
	DD	0ffffffffH
	DD	0ffffffffH
	DD	0ffffffffH
	DD	0ffffffffH
	DD	0ffffffffH
	DD	0ffffffffH
	DD	0ffffffffH
	DD	0ffffffffH
	DD	0ffffffffH
	DD	0ffffffffH
	DD	0ffffffffH
	DD	0ffffffffH
	DD	0ffffffffH
	DD	0ffffffffH
	DD	0ffffffffH
	DD	0ffffffffH
	DD	0ffffffffH
	DD	0ffffffffH
	DD	0ffffffffH
	DD	0ffffffffH
	DD	0fffefefeH
	DD	0ff707171H
	DD	0ff5b5c5cH
	DD	0ff5f6060H
	DD	0ff5f6060H
	DD	0ff5f6060H
	DD	0ff5f6060H
	DD	0ff5f6060H
	DD	0ff5f6060H
	DD	0ff5f6060H
	DD	0ff5f6060H
	DD	0ff5f6060H
	DD	0ff5f6060H
	DD	0ff5f6060H
	DD	0ff5f6060H
	DD	0ff5f6060H
	DD	0ff5f6060H
	DD	0ff5f6060H
	DD	0ff5f6060H
	DD	0ff5f6060H
	DD	0ff606162H
	DD	0ff5a5653H
	DD	0ff574e44H
	DD	0ff796b5eH
	DD	0ffc8b69fH
	DD	0fffae6c5H
	DD	0fff9e0c0H
	DD	0fff6e0c2H
	DD	0fff6dfc1H
	DD	0fff4e0c0H
	DD	0fff6e0beH
	DD	0fffce2bbH
	DD	0fffbe0b9H
	DD	0fff9dfbdH
	DD	0fffadfb8H
	DD	0fff9debaH
	DD	0fff2dabcH
	DD	0fff8d8b3H
	DD	0fffbd9b1H
	DD	0fff5d9b7H
	DD	0ffefd5b6H
	DD	0fff3d4b0H
	DD	0fff5d3afH
	DD	0fff1d2b2H
	DD	0fff0d1b0H
	DD	0ffedd4b6H
	DD	0ffaf937fH
	DD	0ff5a332bH
	DD	0ff633d33H
	DD	0ff613b32H
	DD	0ff6d4739H
	DD	0ff946649H
	DD	0ffddb1a4H
	DD	0ffd2ae9dH
	DD	0ff55361cH
	DD	0ff49352dH
	DD	0ff4b3730H
	DD	0ff412e28H
	DD	0ff866e5cH
	DD	0fff1d2b0H
	DD	0ffe1c9acH
	DD	0ffe1c5a9H
	DD	0ffe1c7a8H
	DD	0ffe2c7a6H
	DD	0ffe7c8a3H
	DD	0ffe8c8a2H
	DD	0ffe7c6a3H
	DD	0ffeccba7H
	DD	0ffd2b79bH
	DD	0ff938374H
	DD	0ff847267H
	DD	0ff836b62H
	DD	0ff79868eH
	DD	0ff74abdaH
	DD	0ff77ace0H
	DD	0ff7ab0e6H
	DD	0ff81b5e8H
	DD	0ff7ab6ebH
	DD	0ff8abce9H
	DD	0ff83c0eeH
	DD	0ff8fc3ecH
	DD	0ff84c3ecH
	DD	0ff86ccf3H
	DD	0ff8acef4H
	DD	0ff8cc1eaH
	DD	0ff7ebff1H
	DD	0ff90cbf0H
	DD	0ff8d868aH
	DD	0ff5e5352H
	DD	0ff726a65H
	DD	0ff584741H
	DD	0ff46332aH
	DD	0ffa8917cH
	DD	0ffffe9c9H
	DD	0fff9debeH
	DD	0fff6dab5H
	DD	0fffad9afH
	DD	0ffffddb5H
	DD	0ffe3c7a8H
	DD	0ff27231fH
	DD	0ff000000H
	DD	0ff060606H
	DD	0ff060606H
	DD	0ff060606H
	DD	0ff060606H
	DD	059060606H
	DD	040404H
	DD	020202H
	DD	040404H
	DD	03f3f3fH
	DD	0676767H
	DD	0737373H
	DD	09f9f9fH
	DD	0878787H
	DD	08a8a8aH
	DD	01777777H
	DD	023757575H
	DD	04a5c5c5cH
	DD	068767676H
	DD	0853a3a3aH
	DD	09d1c1c1cH
	DD	0b0484848H
	DD	0c2505050H
	DD	0d3212121H
	DD	0e01e1e1eH
	DD	0f88e8e8eH
	DD	0ffb0b0b0H
	DD	0fffcfcfcH
	DD	0ffffffffH
	DD	0ffffffffH
	DD	0ffffffffH
	DD	0ffffffffH
	DD	0ffffffffH
	DD	0ffffffffH
	DD	0ffffffffH
	DD	0ffb3b3b3H
	DD	0ff333333H
	DD	0ff7a7a7aH
	DD	0ff4a4a4aH
	DD	0ff2f2f2fH
	DD	0ff292929H
	DD	0ff656565H
	DD	0ff515151H
	DD	0ff222222H
	DD	0ff272727H
	DD	0ff515151H
	DD	0ff373737H
	DD	0ff373737H
	DD	0ff353535H
	DD	0ff323232H
	DD	0ff030303H
	DD	0ff000000H
	DD	0ff000000H
	DD	0ff000000H
	DD	0ff000000H
	DD	0ff494949H
	DD	0ffffffffH
	DD	0ffffffffH
	DD	0ffffffffH
	DD	0ffffffffH
	DD	0ffffffffH
	DD	0ffffffffH
	DD	0ffffffffH
	DD	0ffffffffH
	DD	0ffffffffH
	DD	0ffffffffH
	DD	0ffffffffH
	DD	0ffffffffH
	DD	0ffffffffH
	DD	0ffffffffH
	DD	0ffffffffH
	DD	0ffffffffH
	DD	0ffffffffH
	DD	0ffffffffH
	DD	0ffffffffH
	DD	0ffffffffH
	DD	0ffffffffH
	DD	0ffffffffH
	DD	0fffefefeH
	DD	0ff727373H
	DD	0ff5d5e5eH
	DD	0ff616262H
	DD	0ff616262H
	DD	0ff616262H
	DD	0ff616262H
	DD	0ff616262H
	DD	0ff616262H
	DD	0ff616262H
	DD	0ff616262H
	DD	0ff616262H
	DD	0ff616262H
	DD	0ff616262H
	DD	0ff616262H
	DD	0ff616262H
	DD	0ff616262H
	DD	0ff616262H
	DD	0ff616262H
	DD	0ff616262H
	DD	0ff626364H
	DD	0ff5b5854H
	DD	0ff584f44H
	DD	0ff7c6e5fH
	DD	0ffd0bea4H
	DD	0fffff1ceH
	DD	0ffffeac8H
	DD	0ffffeacbH
	DD	0fffee9c9H
	DD	0fffeeac8H
	DD	0ffffeac6H
	DD	0ffffecc3H
	DD	0ffffeac1H
	DD	0ffffe9c5H
	DD	0ffffe9c0H
	DD	0ffffe8c2H
	DD	0fffde4c4H
	DD	0ffffe2baH
	DD	0ffffe3b8H
	DD	0ffffe3bfH
	DD	0fffadebdH
	DD	0fffeddb7H
	DD	0ffffdcb6H
	DD	0fffcdbb9H
	DD	0fffbdab7H
	DD	0fff8debeH
	DD	0ffb69884H
	DD	0ff5c3329H
	DD	0ff653d32H
	DD	0ff633b31H
	DD	0ff6f4738H
	DD	0ff996949H
	DD	0ffe7b8aaH
	DD	0ffdbb5a3H
	DD	0ff57361aH
	DD	0ff4a332cH
	DD	0ff4c362fH
	DD	0ff412c27H
	DD	0ff8a705eH
	DD	0fffbdcb8H
	DD	0ffebd2b3H
	DD	0ffebcdb0H
	DD	0ffebcfb0H
	DD	0ffecd0acH
	DD	0fff1d1a9H
	DD	0fff3d1a8H
	DD	0fff2cfa9H
	DD	0fff7d4adH
	DD	0ffdbbea1H
	DD	0ff988777H
	DD	0ff897569H
	DD	0ff876e64H
	DD	0ff7c8b92H
	DD	0ff77b2e4H
	DD	0ff7bb3eaH
	DD	0ff7eb7f1H
	DD	0ff85bdf3H
	DD	0ff7ebef6H
	DD	0ff8fc4f4H
	DD	0ff87c8f9H
	DD	0ff93cbf7H
	DD	0ff89cbf7H
	DD	0ff8ad5feH
	DD	0ff8fd7fdH
	DD	0ff90c9f5H
	DD	0ff82c7fcH
	DD	0ff95d4fbH
	DD	0ff928b8eH
	DD	0ff605453H
	DD	0ff756d69H
	DD	0ff5b4943H
	DD	0ff49342aH
	DD	0ffae9982H
	DD	0fffff6d4H
	DD	0ffffebc9H
	DD	0ffffe7bfH
	DD	0ffffe6b9H
	DD	0ffffe4baH
	DD	0fffff4ceH
	DD	0ff8e8572H
	DD	0ff000000H
	DD	0ff000000H
	DD	0ff000000H
	DD	0ff000000H
	DD	0ff000000H
	DD	059000000H
	DD	040404H
	DD	0141414H
	DD	0464646H
	DD	0727272H
	DD	07a7a7aH
	DD	08b8b8bH
	DD	09e9e9eH
	DD	08b8b8bH
	DD	0939393H
	DD	0868686H
	DD	09d9d9dH
	DD	0939393H
	DD	0818181H
	DD	09c9c9cH
	DD	0929292H
	DD	01757575H
	DD	07696969H
	DD	0e4d4d4dH
	DD	017414141H
	DD	046414141H
	DD	09f3b3b3bH
	DD	0be3d3d3dH
	DD	0c7363636H
	DD	0d0747474H
	DD	0db6b6b6bH
	DD	0f3b3b3b3H
	DD	0ffbfbfbfH
	DD	0ffcacacaH
	DD	0ffc7c7c7H
	DD	0ffc5c5c5H
	DD	0ffa8a8a8H
	DD	0ffc8c8c8H
	DD	0ffb0b0b0H
	DD	0ffa2a2a2H
	DD	0ffe6e6e6H
	DD	0fffafafaH
	DD	0fffcfcfcH
	DD	0ffccccccH
	DD	0ff757575H
	DD	0ff979797H
	DD	0ff8b8b8bH
	DD	0ff4d4d4dH
	DD	0ff2f2f2fH
	DD	0ff303030H
	DD	0ff010101H
	DD	0ff000000H
	DD	0ff000000H
	DD	0ff000000H
	DD	0ff000000H
	DD	0ff494949H
	DD	0ffffffffH
	DD	0ffffffffH
	DD	0ffffffffH
	DD	0ffffffffH
	DD	0ffffffffH
	DD	0ffffffffH
	DD	0ffffffffH
	DD	0ffffffffH
	DD	0ffffffffH
	DD	0ffffffffH
	DD	0ffa5a5a5H
	DD	0ff555555H
	DD	0ec3f3f3fH
	DD	0a95a5959H
	DD	0845a5959H
	DD	0825a5959H
	DD	0835a5959H
	DD	0835a5959H
	DD	0835a5959H
	DD	0835a5959H
	DD	0835a5959H
	DD	0835a5959H
	DD	0835a5959H
	DD	083323232H
	DD	0832c2c2cH
	DD	0832d2d2dH
	DD	0832d2d2dH
	DD	0832d2d2dH
	DD	0832d2d2dH
	DD	0832d2d2dH
	DD	0832d2d2dH
	DD	0832d2d2dH
	DD	0832d2d2dH
	DD	0832d2d2dH
	DD	0832d2d2dH
	DD	0832d2d2dH
	DD	0832d2d2dH
	DD	0832d2d2dH
	DD	0832d2d2dH
	DD	0832d2d2dH
	DD	0832d2d2dH
	DD	0832d2d2dH
	DD	0832d2d2eH
	DD	0832c2a29H
	DD	0832b2825H
	DD	08335302cH
	DD	0834b453eH
	DD	083585249H
	DD	083585148H
	DD	083575148H
	DD	083575048H
	DD	083575148H
	DD	083585147H
	DD	083595146H
	DD	083595146H
	DD	083585047H
	DD	083595046H
	DD	083595046H
	DD	083564f46H
	DD	083584e44H
	DD	083594f44H
	DD	083574f45H
	DD	083554e45H
	DD	083574d43H
	DD	083574d43H
	DD	083564d44H
	DD	083564c43H
	DD	083554d45H
	DD	083443b35H
	DD	0832c201eH
	DD	0832e2320H
	DD	0832d2220H
	DD	083312622H
	DD	0833c2f26H
	DD	083514440H
	DD	0834d433eH
	DD	0832a211aH
	DD	08327201eH
	DD	08328211fH
	DD	083251e1dH
	DD	08338302bH
	DD	083564d43H
	DD	083524a42H
	DD	083524941H
	DD	083524a41H
	DD	083524a40H
	DD	083534a40H
	DD	083544a3fH
	DD	083544a40H
	DD	083554b41H
	DD	0834d453dH
	DD	0833c3632H
	DD	08337322fH
	DD	08337302dH
	DD	083343739H
	DD	08333424fH
	DD	083344251H
	DD	083354352H
	DD	083364553H
	DD	083354554H
	DD	083394753H
	DD	083374855H
	DD	0833b4854H
	DD	083384954H
	DD	083384b56H
	DD	083394c56H
	DD	0833a4853H
	DD	083364756H
	DD	0833b4c56H
	DD	0833b393aH
	DD	0832f2b2bH
	DD	083343130H
	DD	0832a2423H
	DD	083211b18H
	DD	08337312bH
	DD	0834d463dH
	DD	083494138H
	DD	083484136H
	DD	083494034H
	DD	083473e34H
	DD	083433b32H
	DD	083463e35H
	DD	083040403H
	DD	083020202H
	DD	083070707H
	DD	0830c0c0cH
	DD	08c101010H
	DD	02e050505H
	DD	010101H
	DD	0a0a0aH
	DD	0111111H
	DD	0292929H
	DD	0535353H
	DD	04d4d4dH
	DD	0626262H
	DD	0707070H
	DD	0767676H
	DD	0878787H
	DD	0949494H
	DD	08f8f8fH
	DD	0919191H
	DD	09b9b9bH
	DD	09c9c9cH
	DD	0919191H
	DD	0727272H
	DD	0a1a1a1H
	DD	08f8f8fH
	DD	0969696H
	DD	07f7f7fH
	DD	07e7e7eH
	DD	046b6b6bH
	DD	0b898989H
	DD	016636363H
	DD	02e494949H
	DD	046262626H
	DD	0513c3c3cH
	DD	059252525H
	DD	0610d0d0dH
	DD	06d0e0e0eH
	DD	0812a2a2aH
	DD	084151515H
	DD	0830c0c0cH
	DD	083575757H
	DD	083676767H
	DD	083616161H
	DD	083636363H
	DD	083676767H
	DD	083636363H
	DD	083696969H
	DD	083343434H
	DD	0831c1c1cH
	DD	081202020H
	DD	0950b0b0bH
	DD	0d3000000H
	DD	0ff111111H
	DD	0ff272727H
	DD	0ff000000H
	DD	0ff494949H
	DD	0ffffffffH
	DD	0ffffffffH
	DD	0ffffffffH
	DD	0ffffffffH
	DD	0ffffffffH
	DD	0ffffffffH
	DD	0ffffffffH
	DD	0ffffffffH
	DD	0ffffffffH
	DD	0ffffffffH
	DD	0ff818181H
	DD	0ad3f3e3eH
	DD	01f413e3eH
	DD	07e7979H
	DD	07d7878H
	DD	07d7878H
	DD	07d7878H
	DD	07d7878H
	DD	07d7878H
	DD	07d7878H
	DD	07d7878H
	DD	07d7878H
	DD	07d7878H
	DD	0858080H
	DD	0868181H
	DD	0868181H
	DD	0868181H
	DD	0868181H
	DD	0868181H
	DD	0868181H
	DD	0868181H
	DD	0868181H
	DD	0868181H
	DD	0868181H
	DD	0868181H
	DD	0868181H
	DD	0868181H
	DD	0868181H
	DD	0868181H
	DD	0868181H
	DD	0868181H
	DD	0868181H
	DD	0868181H
	DD	0868282H
	DD	0868282H
	DD	0848081H
	DD	0807c7eH
	DD	07d797bH
	DD	07d7a7cH
	DD	07e7a7cH
	DD	07d7a7cH
	DD	07e7a7cH
	DD	07e7a7cH
	DD	07d7a7cH
	DD	07d7a7cH
	DD	07e7a7cH
	DD	07d7a7cH
	DD	07d7a7cH
	DD	07e7a7cH
	DD	07e7a7cH
	DD	07d7a7cH
	DD	07e7a7cH
	DD	07e7a7cH
	DD	07e7a7cH
	DD	07e7a7cH
	DD	07e7b7cH
	DD	07e7b7cH
	DD	07e7b7cH
	DD	0827e7fH
	DD	0878483H
	DD	0868383H
	DD	0868383H
	DD	0858283H
	DD	0838082H
	DD	07f7c7dH
	DD	0807c7dH
	DD	0868385H
	DD	0878384H
	DD	0878384H
	DD	0888484H
	DD	0848081H
	DD	07e7a7dH
	DD	07f7b7dH
	DD	07f7b7dH
	DD	07f7b7dH
	DD	07f7b7dH
	DD	07e7b7dH
	DD	07e7b7dH
	DD	07e7b7dH
	DD	07e7b7dH
	DD	07f7c7eH
	DD	0837f80H
	DD	0848080H
	DD	0848081H
	DD	0857f7fH
	DD	0857d7aH
	DD	0857d7aH
	DD	0857c7aH
	DD	0847c79H
	DD	0847c79H
	DD	0837c79H
	DD	0847c79H
	DD	0837b79H
	DD	0847b79H
	DD	0847b79H
	DD	0847b79H
	DD	0857d7bH
	DD	0867e7bH
	DD	0837b79H
	DD	07c7879H
	DD	0737070H
	DD	05e5c5cH
	DD	0464646H
	DD	02c2f2fH
	DD	01a1e1eH
	DD	0d1113H
	DD	080d0eH
	DD	050a0bH
	DD	03080aH
	DD	0f1315H
	DD	025292bH
	DD	0424648H
	DD	07a7c7cH
	DD	0a2a3a3H
	DD	0bdbebeH
	DD	0cdcdcdH
	DD	0e4e4e4H
	DD	04c4c4cH
	DD	00H
	DD	020202H
	DD	00H
	DD	0434343H
	DD	0e9e9e9H
	DD	0d5d5d5H
	DD	0b4b4b4H
	DD	0949494H
	DD	0757575H
	DD	05e5e5eH
	DD	0575757H
	DD	0565656H
	DD	0575757H
	DD	05f5f5fH
	DD	0797979H
	DD	0858585H
	DD	0848484H
	DD	0a0a0a0H
	DD	0a3a3a3H
	DD	09c9c9cH
	DD	08b8b8bH
	DD	0969696H
	DD	0a0a0a0H
	DD	0929292H
	DD	08d8d8dH
	DD	09e9e9eH
	DD	09c9c9cH
	DD	0999999H
	DD	06c6c6cH
	DD	0606060H
	DD	0575757H
	DD	07c7c7cH
	DD	0434343H
	DD	0323232H
	DD	0444444H
	DD	0898989H
	DD	0a7a7a7H
	DD	0b9b9b9H
	DD	0c8c8c8H
	DD	0cececeH
	DD	0d0d0d0H
	DD	0dadadaH
	DD	0ddddddH
	DD	0dadadaH
	DD	0cbcbcbH
	DD	07838383H
	DD	069323232H
	DD	0f6cacacaH
	DD	0ff858585H
	DD	0ff666666H
	DD	0ffffffffH
	DD	0ffffffffH
	DD	0ffffffffH
	DD	0ffffffffH
	DD	0ffffffffH
	DD	0ffffffffH
	DD	0ffffffffH
	DD	0ffffffffH
	DD	0ffffffffH
	DD	0ffffffffH
	DD	0e37b7b7bH
	DD	018585454H
	DD	0989292H
	DD	08a8585H
	DD	08a8585H
	DD	08a8585H
	DD	08a8585H
	DD	08a8585H
	DD	08a8585H
	DD	08a8585H
	DD	08a8585H
	DD	08a8585H
	DD	08a8585H
	DD	08a8585H
	DD	08a8585H
	DD	08a8585H
	DD	08a8585H
	DD	08a8585H
	DD	08a8585H
	DD	08a8585H
	DD	08a8585H
	DD	08a8585H
	DD	08a8585H
	DD	08a8585H
	DD	08a8585H
	DD	08a8585H
	DD	08a8585H
	DD	08a8585H
	DD	08a8585H
	DD	08a8585H
	DD	08a8585H
	DD	08a8585H
	DD	08a8585H
	DD	08a8585H
	DD	08a8585H
	DD	08a8585H
	DD	08a8585H
	DD	08a8585H
	DD	08a8585H
	DD	08a8585H
	DD	08a8585H
	DD	08a8585H
	DD	08a8585H
	DD	08a8585H
	DD	08a8585H
	DD	08a8585H
	DD	08a8585H
	DD	08a8585H
	DD	08a8585H
	DD	08a8585H
	DD	08a8585H
	DD	08a8585H
	DD	08a8585H
	DD	08a8585H
	DD	08a8585H
	DD	08a8585H
	DD	08a8585H
	DD	08a8585H
	DD	08a8585H
	DD	08a8585H
	DD	08a8585H
	DD	08a8585H
	DD	08a8585H
	DD	08a8585H
	DD	08a8585H
	DD	08a8585H
	DD	08a8585H
	DD	08a8585H
	DD	08a8585H
	DD	08a8585H
	DD	08a8585H
	DD	08a8585H
	DD	08a8585H
	DD	08a8585H
	DD	08a8585H
	DD	08a8585H
	DD	08a8585H
	DD	08a8585H
	DD	08a8585H
	DD	08a8585H
	DD	08a8585H
	DD	08a8585H
	DD	08a8585H
	DD	08a8585H
	DD	08a8585H
	DD	08a8585H
	DD	08a8585H
	DD	08a8585H
	DD	08a8585H
	DD	08a8585H
	DD	08b8686H
	DD	08b8686H
	DD	08b8686H
	DD	08d8787H
	DD	08d8888H
	DD	08a8585H
	DD	0827e7eH
	DD	0737070H
	DD	05f5c5cH
	DD	0464545H
	DD	02e2f2fH
	DD	01c1e1eH
	DD	0161919H
	DD	0131616H
	DD	0111414H
	DD	0e1111H
	DD	0181a1aH
	DD	0313333H
	DD	0585a5aH
	DD	08a8b8bH
	DD	0c2c3c3H
	DD	0e4e5e5H
	DD	0fafafaH
	DD	0ffffffH
	DD	0ffffffH
	DD	0ffffffH
	DD	0ffffffH
	DD	0595959H
	DD	00H
	DD	040404H
	DD	00H
	DD	0525252H
	DD	0ffffffH
	DD	0ffffffH
	DD	0ffffffH
	DD	0ffffffH
	DD	0ffffffH
	DD	0fbfbfbH
	DD	0edededH
	DD	0d5d5d5H
	DD	0b7b7b7H
	DD	09a9a9aH
	DD	07c7c7cH
	DD	05f5f5fH
	DD	0525252H
	DD	0474747H
	DD	05a5a5aH
	DD	0626262H
	DD	06b6b6bH
	DD	0898989H
	DD	0999999H
	DD	08e8e8eH
	DD	0929292H
	DD	08b8b8bH
	DD	08e8e8eH
	DD	0959595H
	DD	0979797H
	DD	0777777H
	DD	09d9d9dH
	DD	09d9d9dH
	DD	0878787H
	DD	0909090H
	DD	07b7b7bH
	DD	0888888H
	DD	07f7f7fH
	DD	07d7d7dH
	DD	0878787H
	DD	0aaaaaaH
	DD	0c0c0c0H
	DD	0cdcdcdH
	DD	0ddddddH
	DD	0fbfbfbH
	DD	0ffffffH
	DD	0ffffffH
	DD	0abababH
	DD	0940b0b0bH
	DD	0ff727272H
	DD	0ffc3c3c3H
	DD	0ffffffffH
	DD	0ffffffffH
	DD	0ffffffffH
	DD	0ffffffffH
	DD	0ffffffffH
	DD	0ffffffffH
	DD	0ffffffffH
	DD	0ffffffffH
	DD	0ffffffffH
	DD	0ffffffffH
	DD	0937e7e7eH
	DD	06a6666H
	DD	08e8888H
	DD	08a8585H
	DD	08a8585H
	DD	08a8585H
	DD	08a8585H
	DD	08a8585H
	DD	08a8585H
	DD	08a8585H
	DD	08a8585H
	DD	08a8585H
	DD	08a8585H
	DD	08a8585H
	DD	08a8585H
	DD	08a8585H
	DD	08a8585H
	DD	08a8585H
	DD	08a8585H
	DD	08a8585H
	DD	08a8585H
	DD	08a8585H
	DD	08a8585H
	DD	08a8585H
	DD	08a8585H
	DD	08a8585H
	DD	08a8585H
	DD	08a8585H
	DD	08a8585H
	DD	08a8585H
	DD	08a8585H
	DD	08a8585H
	DD	08a8585H
	DD	08a8585H
	DD	08a8585H
	DD	08a8585H
	DD	08a8585H
	DD	08a8585H
	DD	08a8585H
	DD	08a8585H
	DD	08a8585H
	DD	08a8585H
	DD	08a8585H
	DD	08a8585H
	DD	08a8585H
	DD	08a8585H
	DD	08a8585H
	DD	08a8585H
	DD	08a8585H
	DD	08a8585H
	DD	08a8585H
	DD	08a8585H
	DD	08a8585H
	DD	08a8585H
	DD	08a8585H
	DD	08a8585H
	DD	08a8585H
	DD	08a8585H
	DD	08a8585H
	DD	08a8585H
	DD	08a8585H
	DD	08a8585H
	DD	08a8585H
	DD	08a8585H
	DD	08a8585H
	DD	08a8585H
	DD	08a8585H
	DD	08a8585H
	DD	08a8585H
	DD	08a8585H
	DD	08a8585H
	DD	08a8585H
	DD	08a8585H
	DD	08a8585H
	DD	08a8585H
	DD	08a8585H
	DD	08a8585H
	DD	08a8585H
	DD	08a8585H
	DD	08a8585H
	DD	08a8585H
	DD	08a8585H
	DD	08a8585H
	DD	08a8585H
	DD	08a8585H
	DD	08a8585H
	DD	08a8585H
	DD	08a8585H
	DD	08a8585H
	DD	08b8686H
	DD	08b8686H
	DD	08b8686H
	DD	0898484H
	DD	0817c7cH
	DD	0706c6cH
	DD	0585656H
	DD	0414141H
	DD	02c2d2dH
	DD	01b1e1eH
	DD	0161818H
	DD	0141717H
	DD	0131616H
	DD	0131616H
	DD	0181b1bH
	DD	0323434H
	DD	05a5b5bH
	DD	08a8b8bH
	DD	0c3c3c3H
	DD	0ebebebH
	DD	0fcfcfcH
	DD	0ffffffH
	DD	0ffffffH
	DD	0ffffffH
	DD	0ffffffH
	DD	0f4f4f4H
	DD	0d6d7d7H
	DD	0b1b1b1H
	DD	0323232H
	DD	00H
	DD	030303H
	DD	00H
	DD	05c5c5cH
	DD	0ffffffH
	DD	0ffffffH
	DD	0ffffffH
	DD	0ffffffH
	DD	0ffffffH
	DD	0ffffffH
	DD	0ffffffH
	DD	0ffffffH
	DD	0ffffffH
	DD	0ffffffH
	DD	0ffffffH
	DD	0ffffffH
	DD	0f7f7f7H
	DD	03f3f3fH
	DD	00H
	DD	0717171H
	DD	08b8b8bH
	DD	06b6b6bH
	DD	0525252H
	DD	04b4b4bH
	DD	0505050H
	DD	06c6c6cH
	DD	0717171H
	DD	0757575H
	DD	0888888H
	DD	0848484H
	DD	0a8a8a8H
	DD	0969696H
	DD	0838383H
	DD	09d9d9dH
	DD	08f8f8fH
	DD	0696969H
	DD	08d8d8dH
	DD	0a1a1a1H
	DD	08f8f8fH
	DD	0858585H
	DD	0838383H
	DD	07b7b7bH
	DD	0686868H
	DD	0555555H
	DD	0505050H
	DD	06b6b6bH
	DD	0f1f1f1H
	DD	034424242H
	DD	0fc000000H
	DD	0ff494949H
	DD	0ffffffffH
	DD	0ffffffffH
	DD	0ffffffffH
	DD	0ffffffffH
	DD	0ffffffffH
	DD	0ffffffffH
	DD	0ffffffffH
	DD	0ffffffffH
	DD	0ffffffffH
	DD	0ffffffffH
	DD	07d7d7d7dH
	DD	0686464H
	DD	08e8989H
	DD	08a8585H
	DD	08a8585H
	DD	08a8585H
	DD	08a8585H
	DD	08a8585H
	DD	08a8585H
	DD	08a8585H
	DD	08a8585H
	DD	08a8585H
	DD	08a8585H
	DD	08a8585H
	DD	08a8585H
	DD	08a8585H
	DD	08a8585H
	DD	08a8585H
	DD	08a8585H
	DD	08a8585H
	DD	08a8585H
	DD	08a8585H
	DD	08a8585H
	DD	08a8585H
	DD	08a8585H
	DD	08a8585H
	DD	08a8585H
	DD	08a8585H
	DD	08a8585H
	DD	08a8585H
	DD	08a8585H
	DD	08a8585H
	DD	08a8585H
	DD	08a8585H
	DD	08a8585H
	DD	08a8585H
	DD	08a8585H
	DD	08a8585H
	DD	08a8585H
	DD	08a8585H
	DD	08a8585H
	DD	08a8585H
	DD	08a8585H
	DD	08a8585H
	DD	08a8585H
	DD	08a8585H
	DD	08a8585H
	DD	08a8585H
	DD	08a8585H
	DD	08a8585H
	DD	08a8585H
	DD	08a8585H
	DD	08a8585H
	DD	08a8585H
	DD	08a8585H
	DD	08a8585H
	DD	08a8585H
	DD	08a8585H
	DD	08a8585H
	DD	08a8585H
	DD	08a8585H
	DD	08a8585H
	DD	08a8585H
	DD	08a8585H
	DD	08a8585H
	DD	08a8585H
	DD	08a8585H
	DD	08a8585H
	DD	08a8585H
	DD	08a8585H
	DD	08a8585H
	DD	08a8585H
	DD	08a8585H
	DD	08a8585H
	DD	08a8585H
	DD	08a8585H
	DD	08a8585H
	DD	08a8585H
	DD	08a8585H
	DD	08a8585H
	DD	08a8585H
	DD	08a8585H
	DD	08a8585H
	DD	08a8585H
	DD	08a8585H
	DD	08a8585H
	DD	08b8686H
	DD	08c8787H
	DD	08c8787H
	DD	0888383H
	DD	07d7979H
	DD	06d6a6aH
	DD	0535151H
	DD	03a3b3bH
	DD	0272929H
	DD	0181c1cH
	DD	0121616H
	DD	0121515H
	DD	0111414H
	DD	0131515H
	DD	0191b1bH
	DD	0323334H
	DD	0595a5aH
	DD	0878787H
	DD	0bdbdbdH
	DD	0ecececH
	DD	0ffffffH
	DD	0ffffffH
	DD	0ffffffH
	DD	0ffffffH
	DD	0f8fafbH
	DD	0e8e9ebH
	DD	0cbcdceH
	DD	09fa1a2H
	DD	06d6f6fH
	DD	0434546H
	DD	0222425H
	DD	0d0f10H
	DD	020303H
	DD	0101H
	DD	00H
	DD	0717171H
	DD	0ffffffH
	DD	0ffffffH
	DD	0ffffffH
	DD	0ffffffH
	DD	0ffffffH
	DD	0ffffffH
	DD	0ffffffH
	DD	0ffffffH
	DD	0ffffffH
	DD	0ffffffH
	DD	0ffffffH
	DD	0ffffffH
	DD	0fcfcfcH
	DD	03a3a3aH
	DD	00H
	DD	0cececeH
	DD	0ffffffH
	DD	0ffffffH
	DD	0f7f7f7H
	DD	0e9e9e9H
	DD	0848484H
	DD	00H
	DD	03c3c3cH
	DD	06e6e6eH
	DD	0585858H
	DD	0515151H
	DD	04b4b4bH
	DD	0555555H
	DD	0606060H
	DD	0848484H
	DD	08b8b8bH
	DD	0858585H
	DD	0959595H
	DD	0818181H
	DD	09a9a9aH
	DD	09b9b9bH
	DD	0737373H
	DD	0727272H
	DD	0424242H
	DD	00H
	DD	010101H
	DD	0171717H
	DD	0989898H
	DD	0192b2b2bH
	DD	0eb000000H
	DD	0ff5c5c5cH
	DD	0ffffffffH
	DD	0ffffffffH
	DD	0ffffffffH
	DD	0ffffffffH
	DD	0ffffffffH
	DD	0ffffffffH
	DD	0ffffffffH
	DD	0ffffffffH
	DD	0ffffffffH
	DD	0ffffffffH
	DD	07d7d7d7dH
	DD	0686464H
	DD	08e8989H
	DD	08a8585H
	DD	08a8585H
	DD	08a8585H
	DD	08a8585H
	DD	08a8585H
	DD	08a8585H
	DD	08a8585H
	DD	08a8585H
	DD	08a8585H
	DD	08a8585H
	DD	08a8585H
	DD	08a8585H
	DD	08a8585H
	DD	08a8585H
	DD	08a8585H
	DD	08a8585H
	DD	08a8585H
	DD	08a8585H
	DD	08a8585H
	DD	08a8585H
	DD	08a8585H
	DD	08a8585H
	DD	08a8585H
	DD	08a8585H
	DD	08a8585H
	DD	08a8585H
	DD	08a8585H
	DD	08a8585H
	DD	08a8585H
	DD	08a8585H
	DD	08a8585H
	DD	08a8585H
	DD	08a8585H
	DD	08a8585H
	DD	08a8585H
	DD	08a8585H
	DD	08a8585H
	DD	08a8585H
	DD	08a8585H
	DD	08a8585H
	DD	08a8585H
	DD	08a8585H
	DD	08a8585H
	DD	08a8585H
	DD	08a8585H
	DD	08a8585H
	DD	08a8585H
	DD	08a8585H
	DD	08a8585H
	DD	08a8585H
	DD	08a8585H
	DD	08a8585H
	DD	08a8585H
	DD	08a8585H
	DD	08a8585H
	DD	08a8585H
	DD	08a8585H
	DD	08a8585H
	DD	08a8585H
	DD	08a8585H
	DD	08a8585H
	DD	08a8585H
	DD	08a8585H
	DD	08a8585H
	DD	08a8585H
	DD	08a8585H
	DD	08a8585H
	DD	08a8585H
	DD	08a8585H
	DD	08a8585H
	DD	08a8585H
	DD	08a8585H
	DD	08a8585H
	DD	08a8585H
	DD	08a8585H
	DD	08a8585H
	DD	08a8585H
	DD	08a8585H
	DD	08a8585H
	DD	08b8585H
	DD	08b8686H
	DD	08d8787H
	DD	08c8787H
	DD	0888383H
	DD	07c7878H
	DD	06a6767H
	DD	0525050H
	DD	0373737H
	DD	0282929H
	DD	01b1e1eH
	DD	0141616H
	DD	0111414H
	DD	0101414H
	DD	0151718H
	DD	01d1f1fH
	DD	02f3131H
	DD	05b5b5bH
	DD	08a8989H
	DD	0bfbebfH
	DD	0e4e4e4H
	DD	0f9f9f9H
	DD	0ffffffH
	DD	0ffffffH
	DD	0ffffffH
	DD	0fcfaf9H
	DD	0f8f0e4H
	DD	0efe3d6H
	DD	0cdc4bbH
	DD	0a29b93H
	DD	0777169H
	DD	0494641H
	DD	0111414H
	DD	020709H
	DD	0c1012H
	DD	0242524H
	DD	020202H
	DD	050200H
	DD	0312f2dH
	DD	0cacbcbH
	DD	0ffffffH
	DD	0ffffffH
	DD	0ffffffH
	DD	0fdfffcH
	DD	0fffffdH
	DD	0fffffdH
	DD	0fffffdH
	DD	0fffffdH
	DD	0fffffdH
	DD	0fffffeH
	DD	0ffffffH
	DD	0ffffffH
	DD	0f1f1f1H
	DD	02a2a2aH
	DD	070707H
	DD	0dbdbdbH
	DD	0ffffffH
	DD	0ffffffH
	DD	0ffffffH
	DD	0ffffffH
	DD	0989898H
	DD	00H
	DD	0939393H
	DD	0ffffffH
	DD	0f7f7f7H
	DD	0e5e5e4H
	DD	0c9c9c9H
	DD	0a9a9a8H
	DD	08c8c8cH
	DD	06c6c6cH
	DD	0555555H
	DD	04e4e4eH
	DD	04c4c4cH
	DD	04b4b4bH
	DD	05a5a5aH
	DD	0747474H
	DD	0838383H
	DD	0808080H
	DD	0333333H
	DD	02a2a2aH
	DD	04c4c4cH
	DD	02e2d2dH
	DD	02a2c2cH
	DD	016070808H
	DD	0dc000000H
	DD	0ff636363H
	DD	0ffffffffH
	DD	0ffffffffH
	DD	0ffffffffH
	DD	0ffffffffH
	DD	0ffffffffH
	DD	0ffffffffH
	DD	0ffffffffH
	DD	0ffffffffH
	DD	0ffffffffH
	DD	0ffffffffH
	DD	07d7d7d7dH
	DD	0686464H
	DD	08e8989H
	DD	08a8585H
	DD	08a8585H
	DD	08a8585H
	DD	08a8585H
	DD	08a8585H
	DD	08a8585H
	DD	08a8585H
	DD	08a8585H
	DD	08a8585H
	DD	08a8585H
	DD	08a8585H
	DD	08a8585H
	DD	08a8585H
	DD	08a8585H
	DD	08a8585H
	DD	08a8585H
	DD	08a8585H
	DD	08a8585H
	DD	08a8585H
	DD	08a8585H
	DD	08a8585H
	DD	08a8585H
	DD	08a8585H
	DD	08a8585H
	DD	08a8585H
	DD	08a8585H
	DD	08a8585H
	DD	08a8585H
	DD	08a8585H
	DD	08a8585H
	DD	08a8585H
	DD	08a8585H
	DD	08a8585H
	DD	08a8585H
	DD	08a8585H
	DD	08a8585H
	DD	08a8585H
	DD	08a8585H
	DD	08a8585H
	DD	08a8585H
	DD	08a8585H
	DD	08a8585H
	DD	08a8585H
	DD	08a8585H
	DD	08a8585H
	DD	08a8585H
	DD	08a8585H
	DD	08a8585H
	DD	08a8585H
	DD	08a8585H
	DD	08a8585H
	DD	08a8585H
	DD	08a8585H
	DD	08a8585H
	DD	08a8585H
	DD	08a8585H
	DD	08a8585H
	DD	08a8585H
	DD	08a8585H
	DD	08a8585H
	DD	08a8585H
	DD	08a8585H
	DD	08a8585H
	DD	08a8585H
	DD	08a8585H
	DD	08a8585H
	DD	08a8585H
	DD	08a8585H
	DD	08a8585H
	DD	08a8585H
	DD	08a8585H
	DD	08a8585H
	DD	08a8585H
	DD	08a8585H
	DD	08a8585H
	DD	08a8585H
	DD	08a8585H
	DD	08b8686H
	DD	08c8686H
	DD	08a8585H
	DD	0847f7fH
	DD	0777474H
	DD	0656262H
	DD	04d4c4cH
	DD	0313131H
	DD	01f2121H
	DD	0191b1bH
	DD	0131616H
	DD	0111414H
	DD	0101313H
	DD	0161818H
	DD	0262828H
	DD	03f4141H
	DD	06a6b6bH
	DD	09e9e9eH
	DD	0c4c3c3H
	DD	0e7e7e7H
	DD	0fdfdfdH
	DD	0ffffffH
	DD	0ffffffH
	DD	0ffffffH
	DD	0f8f7f6H
	DD	0e5e3dfH
	DD	0dcd1c7H
	DD	0e6cdb3H
	DD	0e6caa7H
	DD	0e4c8a2H
	DD	0e2c6a5H
	DD	0e4cbaaH
	DD	0e7caa9H
	DD	0e1c6a6H
	DD	0c1ac94H
	DD	0b8a48cH
	DD	0ad997fH
	DD	0c0a88aH
	DD	097846eH
	DD	0af977fH
	DD	0e3cab2H
	DD	0e9d9c7H
	DD	0e3dbcfH
	DD	0eee8e1H
	DD	0faf7f4H
	DD	0fcffffH
	DD	0fbffffH
	DD	0fefffeH
	DD	0fffffdH
	DD	0fffffdH
	DD	0fffffdH
	DD	0fffffeH
	DD	0ffffffH
	DD	0ffffffH
	DD	0e5e5e5H
	DD	01a1a1aH
	DD	01b1b1bH
	DD	0eaeaeaH
	DD	0ffffffH
	DD	0ffffffH
	DD	0ffffffH
	DD	0ffffffH
	DD	0767676H
	DD	00H
	DD	0a8a8a8H
	DD	0ffffffH
	DD	0ffffffH
	DD	0ffffffH
	DD	0ffffffH
	DD	0ffffffH
	DD	0ffffffH
	DD	0ffffffH
	DD	0fcfcfcH
	DD	0e7e7e7H
	DD	0d0d0d0H
	DD	0b0b0b0H
	DD	08c8c8cH
	DD	0727272H
	DD	05b5b5bH
	DD	03f3f3fH
	DD	03e3e3eH
	DD	0606060H
	DD	0383737H
	DD	070707H
	DD	0e1111H
	DD	014050606H
	DD	0d5000000H
	DD	0ff505050H
	DD	0ffffffffH
	DD	0ffffffffH
	DD	0ffffffffH
	DD	0ffffffffH
	DD	0ffffffffH
	DD	0ffffffffH
	DD	0ffffffffH
	DD	0ffffffffH
	DD	0ffffffffH
	DD	0ffffffffH
	DD	07d7d7d7dH
	DD	0686464H
	DD	08e8989H
	DD	08a8585H
	DD	08a8585H
	DD	08a8585H
	DD	08a8585H
	DD	08a8585H
	DD	08a8585H
	DD	08a8585H
	DD	08a8585H
	DD	08a8585H
	DD	08a8585H
	DD	08a8585H
	DD	08a8585H
	DD	08a8585H
	DD	08a8585H
	DD	08a8585H
	DD	08a8585H
	DD	08a8585H
	DD	08a8585H
	DD	08a8585H
	DD	08a8585H
	DD	08a8585H
	DD	08a8585H
	DD	08a8585H
	DD	08a8585H
	DD	08a8585H
	DD	08a8585H
	DD	08a8585H
	DD	08a8585H
	DD	08a8585H
	DD	08a8585H
	DD	08a8585H
	DD	08a8585H
	DD	08a8585H
	DD	08a8585H
	DD	08a8585H
	DD	08a8585H
	DD	08a8585H
	DD	08a8585H
	DD	08a8585H
	DD	08a8585H
	DD	08a8585H
	DD	08a8585H
	DD	08a8585H
	DD	08a8585H
	DD	08a8585H
	DD	08a8585H
	DD	08a8585H
	DD	08a8585H
	DD	08a8585H
	DD	08a8585H
	DD	08a8585H
	DD	08a8585H
	DD	08a8585H
	DD	08a8585H
	DD	08a8585H
	DD	08a8585H
	DD	08a8585H
	DD	08a8585H
	DD	08a8585H
	DD	08a8585H
	DD	08a8585H
	DD	08a8585H
	DD	08a8585H
	DD	08a8585H
	DD	08a8585H
	DD	08a8585H
	DD	08a8585H
	DD	08a8585H
	DD	08a8585H
	DD	08a8585H
	DD	08a8585H
	DD	08a8585H
	DD	08a8585H
	DD	08b8686H
	DD	08c8686H
	DD	08c8787H
	DD	08b8686H
	DD	0858181H
	DD	0757272H
	DD	0615e5eH
	DD	04a4949H
	DD	0323333H
	DD	01d2020H
	DD	0161919H
	DD	0131616H
	DD	0111415H
	DD	0111413H
	DD	0131616H
	DD	0262828H
	DD	0464848H
	DD	06f7070H
	DD	0a0a0a0H
	DD	0cdccccH
	DD	0eeeeedH
	DD	0ffffffH
	DD	0ffffffH
	DD	0fbfbfbH
	DD	0d7d5d5H
	DD	0c3c0bdH
	DD	0a89f9bH
	DD	08b7f7aH
	DD	079685cH
	DD	0705b4aH
	DD	06d5747H
	DD	070594eH
	DD	06b544bH
	DD	06d574cH
	DD	0725c4fH
	DD	07a6153H
	DD	07f695bH
	DD	08f7865H
	DD	0ac9178H
	DD	0c8ac8eH
	DD	0dbbd9cH
	DD	0dcbe9aH
	DD	0d7bd9dH
	DD	0d8bd9bH
	DD	0d7b597H
	DD	0cbab8dH
	DD	0c7ab8bH
	DD	0caac8bH
	DD	0cdb299H
	DD	0f5f2ecH
	DD	0feffffH
	DD	0fefefeH
	DD	0fffffdH
	DD	0fffffdH
	DD	0fffffdH
	DD	0fffffeH
	DD	0ffffffH
	DD	0ffffffH
	DD	0dadadaH
	DD	090909H
	DD	02f2f2fH
	DD	0f3f3f3H
	DD	0ffffffH
	DD	0ffffffH
	DD	0ffffffH
	DD	0ffffffH
	DD	0626262H
	DD	00H
	DD	0c2c2c2H
	DD	0ffffffH
	DD	0ffffffH
	DD	0fffffdH
	DD	0fffffdH
	DD	0fffffdH
	DD	0fffffeH
	DD	0ffffffH
	DD	0ffffffH
	DD	0ffffffH
	DD	0ffffffH
	DD	0ffffffH
	DD	0ffffffH
	DD	0ffffffH
	DD	0ffffffH
	DD	0e7e7e7H
	DD	0383838H
	DD	080808H
	DD	030202H
	DD	0131414H
	DD	0464949H
	DD	0141c1c1cH
	DD	0d4000000H
	DD	0ff4e4e4eH
	DD	0ffffffffH
	DD	0ffffffffH
	DD	0ffffffffH
	DD	0ffffffffH
	DD	0ffffffffH
	DD	0ffffffffH
	DD	0ffffffffH
	DD	0ffffffffH
	DD	0ffffffffH
	DD	0ffffffffH
	DD	07d7d7d7dH
	DD	0686464H
	DD	08e8989H
	DD	08a8585H
	DD	08a8585H
	DD	08a8585H
	DD	08a8585H
	DD	08a8585H
	DD	08a8585H
	DD	08a8585H
	DD	08a8585H
	DD	08a8585H
	DD	08a8585H
	DD	08a8585H
	DD	08a8585H
	DD	08a8585H
	DD	08a8585H
	DD	08a8585H
	DD	08a8585H
	DD	08a8585H
	DD	08a8585H
	DD	08a8585H
	DD	08a8585H
	DD	08a8585H
	DD	08a8585H
	DD	08a8585H
	DD	08a8585H
	DD	08a8585H
	DD	08a8585H
	DD	08a8585H
	DD	08a8585H
	DD	08a8585H
	DD	08a8585H
	DD	08a8585H
	DD	08a8585H
	DD	08a8585H
	DD	08a8585H
	DD	08a8585H
	DD	08a8585H
	DD	08a8585H
	DD	08a8585H
	DD	08a8585H
	DD	08a8585H
	DD	08a8585H
	DD	08a8585H
	DD	08a8585H
	DD	08a8585H
	DD	08a8585H
	DD	08a8585H
	DD	08a8585H
	DD	08a8585H
	DD	08a8585H
	DD	08a8585H
	DD	08a8585H
	DD	08a8585H
	DD	08a8585H
	DD	08a8585H
	DD	08a8585H
	DD	08a8585H
	DD	08a8585H
	DD	08a8585H
	DD	08a8585H
	DD	08a8585H
	DD	08a8585H
	DD	08a8585H
	DD	08a8585H
	DD	08a8585H
	DD	08a8585H
	DD	08a8585H
	DD	08a8585H
	DD	08a8585H
	DD	08a8585H
	DD	08a8585H
	DD	08b8686H
	DD	08b8686H
	DD	08b8787H
	DD	0898484H
	DD	0837d7dH
	DD	0736f6fH
	DD	05b5959H
	DD	0434343H
	DD	02e2f2fH
	DD	01d1f1fH
	DD	0151818H
	DD	0131616H
	DD	0121516H
	DD	0131616H
	DD	0161919H
	DD	0292b2bH
	DD	04e4f4fH
	DD	07a7a7bH
	DD	0adacacH
	DD	0e1dfdeH
	DD	0faf9f7H
	DD	0ffffffH
	DD	0ffffffH
	DD	0fefeffH
	DD	0ebf5fcH
	DD	0e1f2fcH
	DD	0a69fa2H
	DD	0645858H
	DD	077706dH
	DD	0584643H
	DD	0655554H
	DD	064544eH
	DD	0725b4dH
	DD	0715a51H
	DD	0715a54H
	DD	06e5750H
	DD	0715a51H
	DD	0715b54H
	DD	0715c55H
	DD	0705953H
	DD	069524cH
	DD	0624d46H
	DD	0604c44H
	DD	068544aH
	DD	0735f50H
	DD	0827257H
	DD	0907f61H
	DD	0a28770H
	DD	0bb9f85H
	DD	0ceb193H
	DD	0caa888H
	DD	09e8269H
	DD	0dedad5H
	DD	0ffffffH
	DD	0fffffcH
	DD	0fffffdH
	DD	0fffffdH
	DD	0fffffdH
	DD	0fffffeH
	DD	0ffffffH
	DD	0ffffffH
	DD	0c9c9c9H
	DD	00H
	DD	0424242H
	DD	0fbfbfbH
	DD	0ffffffH
	DD	0ffffffH
	DD	0ffffffH
	DD	0ffffffH
	DD	04e4e4eH
	DD	040404H
	DD	0d3d3d3H
	DD	0ffffffH
	DD	0ffffffH
	DD	0fffffdH
	DD	0fffffdH
	DD	0fffffdH
	DD	0fffffeH
	DD	0ffffffH
	DD	0ffffffH
	DD	0ffffffH
	DD	0ffffffH
	DD	0ffffffH
	DD	0ffffffH
	DD	0ffffffH
	DD	0ffffffH
	DD	0efefefH
	DD	0262626H
	DD	00H
	DD	00H
	DD	0505050H
	DD	0e8e8e8H
	DD	014474747H
	DD	0d4000000H
	DD	0ff494949H
	DD	0ffffffffH
	DD	0ffffffffH
	DD	0ffffffffH
	DD	0ffffffffH
	DD	0ffffffffH
	DD	0ffffffffH
	DD	0ffffffffH
	DD	0ffffffffH
	DD	0ffffffffH
	DD	0ffffffffH
	DD	07d7d7d7dH
	DD	0686464H
	DD	08e8989H
	DD	08a8585H
	DD	08a8585H
	DD	08a8585H
	DD	08a8585H
	DD	08a8585H
	DD	08a8585H
	DD	08a8585H
	DD	08a8585H
	DD	08a8585H
	DD	08a8585H
	DD	08a8585H
	DD	08a8585H
	DD	08a8585H
	DD	08a8585H
	DD	08a8585H
	DD	08a8585H
	DD	08a8585H
	DD	08a8585H
	DD	08a8585H
	DD	08a8585H
	DD	08a8585H
	DD	08a8585H
	DD	08a8585H
	DD	08a8585H
	DD	08a8585H
	DD	08a8585H
	DD	08a8585H
	DD	08a8585H
	DD	08a8585H
	DD	08a8585H
	DD	08a8585H
	DD	08a8585H
	DD	08a8585H
	DD	08a8585H
	DD	08a8585H
	DD	08a8585H
	DD	08a8585H
	DD	08a8585H
	DD	08a8585H
	DD	08a8585H
	DD	08a8585H
	DD	08a8585H
	DD	08a8585H
	DD	08a8585H
	DD	08a8585H
	DD	08a8585H
	DD	08a8585H
	DD	08a8585H
	DD	08a8585H
	DD	08a8585H
	DD	08a8585H
	DD	08a8585H
	DD	08a8585H
	DD	08a8585H
	DD	08a8585H
	DD	08a8585H
	DD	08a8585H
	DD	08a8585H
	DD	08a8585H
	DD	08a8585H
	DD	08a8585H
	DD	08a8585H
	DD	08a8585H
	DD	08a8585H
	DD	08a8585H
	DD	08a8585H
	DD	08a8585H
	DD	08b8686H
	DD	08c8787H
	DD	08c8787H
	DD	0898484H
	DD	0807b7bH
	DD	0716d6dH
	DD	0595757H
	DD	03e3e3eH
	DD	02b2c2cH
	DD	01d1f1fH
	DD	0141616H
	DD	0111515H
	DD	0111414H
	DD	0131616H
	DD	0171a1aH
	DD	0292b2bH
	DD	0535454H
	DD	0888889H
	DD	0b9b9b9H
	DD	0e2e1dfH
	DD	0fdfaf8H
	DD	0ffffffH
	DD	0f8fcffH
	DD	0e5f3fdH
	DD	0cbe9fbH
	DD	0aeddf8H
	DD	0a0cfefH
	DD	089c4f1H
	DD	085cbf4H
	DD	08a91a1H
	DD	063524fH
	DD	06b5e5cH
	DD	06f6560H
	DD	06b5d5eH
	DD	064514fH
	DD	0533d2fH
	DD	051392fH
	DD	04f342dH
	DD	04f362bH
	DD	0523a2dH
	DD	0584037H
	DD	0614843H
	DD	069514aH
	DD	067554cH
	DD	064564fH
	DD	067544fH
	DD	065534cH
	DD	0604f4aH
	DD	0605148H
	DD	067594cH
	DD	0746454H
	DD	083725aH
	DD	0977f66H
	DD	0967c67H
	DD	083705aH
	DD	0dfdbd4H
	DD	0ffffffH
	DD	0fffffdH
	DD	0fffffdH
	DD	0fffffdH
	DD	0fffffdH
	DD	0fffffeH
	DD	0ffffffH
	DD	0ffffffH
	DD	0b2b2b2H
	DD	00H
	DD	0535353H
	DD	0ffffffH
	DD	0ffffffH
	DD	0ffffffH
	DD	0ffffffH
	DD	0f9f9f9H
	DD	0383838H
	DD	0131313H
	DD	0e2e2e2H
	DD	0ffffffH
	DD	0ffffffH
	DD	0fffffdH
	DD	0fffffdH
	DD	0fffffdH
	DD	0fffffdH
	DD	0fffffdH
	DD	0fffffdH
	DD	0fffffdH
	DD	0fffffdH
	DD	0fffffdH
	DD	0fffffdH
	DD	0fffffdH
	DD	0ffffffH
	DD	0d8d8d8H
	DD	0b0b0bH
	DD	00H
	DD	00H
	DD	07d7d7dH
	DD	0ffffffH
	DD	0144c4c4cH
	DD	0d4000000H
	DD	0ff494949H
	DD	0ffffffffH
	DD	0ffffffffH
	DD	0ffffffffH
	DD	0ffffffffH
	DD	0ffffffffH
	DD	0ffffffffH
	DD	0ffffffffH
	DD	0ffffffffH
	DD	0ffffffffH
	DD	0ffffffffH
	DD	07d7d7d7dH
	DD	0686464H
	DD	08e8989H
	DD	08a8585H
	DD	08a8585H
	DD	08a8585H
	DD	08a8585H
	DD	08a8585H
	DD	08a8585H
	DD	08a8585H
	DD	08a8585H
	DD	08a8585H
	DD	08a8585H
	DD	08a8585H
	DD	08a8585H
	DD	08a8585H
	DD	08a8585H
	DD	08a8585H
	DD	08a8585H
	DD	08a8585H
	DD	08a8585H
	DD	08a8585H
	DD	08a8585H
	DD	08a8585H
	DD	08a8585H
	DD	08a8585H
	DD	08a8585H
	DD	08a8585H
	DD	08a8585H
	DD	08a8585H
	DD	08a8585H
	DD	08a8585H
	DD	08a8585H
	DD	08a8585H
	DD	08a8585H
	DD	08a8585H
	DD	08a8585H
	DD	08a8585H
	DD	08a8585H
	DD	08a8585H
	DD	08a8585H
	DD	08a8585H
	DD	08a8585H
	DD	08a8585H
	DD	08a8585H
	DD	08a8585H
	DD	08a8585H
	DD	08a8585H
	DD	08a8585H
	DD	08a8585H
	DD	08a8585H
	DD	08a8585H
	DD	08a8585H
	DD	08a8585H
	DD	08a8585H
	DD	08a8585H
	DD	08a8585H
	DD	08a8585H
	DD	08a8585H
	DD	08a8585H
	DD	08a8585H
	DD	08a8585H
	DD	08a8585H
	DD	08a8585H
	DD	08a8585H
	DD	08a8585H
	DD	08a8585H
	DD	08b8686H
	DD	08c8787H
	DD	08c8787H
	DD	0878282H
	DD	07d7979H
	DD	06b6767H
	DD	0565454H
	DD	0393939H
	DD	0262828H
	DD	01c1e1eH
	DD	0141818H
	DD	0111515H
	DD	0101413H
	DD	0131616H
	DD	0202223H
	DD	0333535H
	DD	05f5f5fH
	DD	0919191H
	DD	0bababaH
	DD	0dfdfdfH
	DD	0fbfbfaH
	DD	0ffffffH
	DD	0f3faffH
	DD	0cfe4f7H
	DD	0a8d4f5H
	DD	091cbf2H
	DD	08acbf2H
	DD	08bd0f5H
	DD	08bd3f7H
	DD	08cd6f7H
	DD	094dafaH
	DD	08acdeaH
	DD	0839dadH
	DD	06b6e72H
	DD	04e4f55H
	DD	06b6766H
	DD	05b5050H
	DD	04b393bH
	DD	0523c3dH
	DD	04d3d3eH
	DD	0483c3dH
	DD	04a3f40H
	DD	0504647H
	DD	05a4e53H
	DD	05d5159H
	DD	0675757H
	DD	0685b57H
	DD	0675a52H
	DD	06b564dH
	DD	068504bH
	DD	0665146H
	DD	0655245H
	DD	063514aH
	DD	05e524dH
	DD	06a5850H
	DD	0786352H
	DD	07d6d55H
	DD	0837058H
	DD	0e0dad3H
	DD	0ffffffH
	DD	0fffffdH
	DD	0fffffdH
	DD	0fffffdH
	DD	0fffffdH
	DD	0fffffeH
	DD	0ffffffH
	DD	0ffffffH
	DD	09d9d9dH
	DD	00H
	DD	0686868H
	DD	0ffffffH
	DD	0ffffffH
	DD	0ffffffH
	DD	0ffffffH
	DD	0f0f0f0H
	DD	0202020H
	DD	0222222H
	DD	0f0f0f0H
	DD	0ffffffH
	DD	0ffffffH
	DD	0fffffdH
	DD	0fffffdH
	DD	0fffffdH
	DD	0fefefcH
	DD	0fefefcH
	DD	0fffffdH
	DD	0fffffdH
	DD	0fffffdH
	DD	0fffffdH
	DD	0fffffdH
	DD	0fffffdH
	DD	0ffffffH
	DD	0c1c1c1H
	DD	00H
	DD	00H
	DD	00H
	DD	0898989H
	DD	0ffffffH
	DD	0144b4b4bH
	DD	0d4000000H
	DD	0ff8e857bH
	DD	0ffffffffH
	DD	0ffffffffH
	DD	0ffffffffH
	DD	0ffffffffH
	DD	0ffffffffH
	DD	0ffffffffH
	DD	0ffffffffH
	DD	0ffffffffH
	DD	0ffffffffH
	DD	0ffffffffH
	DD	07d7d7d7dH
	DD	0686464H
	DD	08e8989H
	DD	08a8585H
	DD	08a8585H
	DD	08a8585H
	DD	08a8585H
	DD	08a8585H
	DD	08a8585H
	DD	08a8585H
	DD	08a8585H
	DD	08a8585H
	DD	08a8585H
	DD	08a8585H
	DD	08a8585H
	DD	08a8585H
	DD	08a8585H
	DD	08a8585H
	DD	08a8585H
	DD	08a8585H
	DD	08a8585H
	DD	08a8585H
	DD	08a8585H
	DD	08a8585H
	DD	08a8585H
	DD	08a8585H
	DD	08a8585H
	DD	08a8585H
	DD	08a8585H
	DD	08a8585H
	DD	08a8585H
	DD	08a8585H
	DD	08a8585H
	DD	08a8585H
	DD	08a8585H
	DD	08a8585H
	DD	08a8585H
	DD	08a8585H
	DD	08a8585H
	DD	08a8585H
	DD	08a8585H
	DD	08a8585H
	DD	08a8585H
	DD	08a8585H
	DD	08a8585H
	DD	08a8585H
	DD	08a8585H
	DD	08a8585H
	DD	08a8585H
	DD	08a8585H
	DD	08a8585H
	DD	08a8585H
	DD	08a8585H
	DD	08a8585H
	DD	08a8585H
	DD	08a8585H
	DD	08a8585H
	DD	08a8585H
	DD	08a8585H
	DD	08a8585H
	DD	08a8585H
	DD	08a8585H
	DD	08a8585H
	DD	08a8687H
	DD	0858383H
	DD	0868283H
	DD	08b8688H
	DD	0878283H
	DD	07c7878H
	DD	0686666H
	DD	0515050H
	DD	0383838H
	DD	0202323H
	DD	0171a1aH
	DD	0131717H
	DD	0111414H
	DD	0f1212H
	DD	0111414H
	DD	0212323H
	DD	03c3d3dH
	DD	0606161H
	DD	0949495H
	DD	0c3c2c3H
	DD	0ecededH
	DD	0ffffffH
	DD	0ffffffH
	DD	0ffffffH
	DD	0f1f6fcH
	DD	0b6d4f1H
	DD	087c0f0H
	DD	082c2f2H
	DD	088caf6H
	DD	08fd1f7H
	DD	096d5f4H
	DD	095d5f4H
	DD	094d6f5H
	DD	094d6f6H
	DD	09adbf7H
	DD	08ecae6H
	DD	085b0ccH
	DD	08eafc7H
	DD	07a95a5H
	DD	073828eH
	DD	06d7c87H
	DD	06d8292H
	DD	0728ea4H
	DD	07498b4H
	DD	07ba8c9H
	DD	079b1dcH
	DD	07cb7eaH
	DD	07fb9eeH
	DD	075afe8H
	DD	06da7e2H
	DD	06da6ddH
	DD	070a1cdH
	DD	07296bbH
	DD	07188a2H
	DD	06e7985H
	DD	0736767H
	DD	0725953H
	DD	0655245H
	DD	06a4c44H
	DD	0665045H
	DD	06b604fH
	DD	0816c54H
	DD	0ded9d2H
	DD	0ffffffH
	DD	0fffffdH
	DD	0fffffdH
	DD	0fffffdH
	DD	0fffffdH
	DD	0fffffeH
	DD	0ffffffH
	DD	0ffffffH
	DD	08a8b8aH
	DD	00H
	DD	0828282H
	DD	0ffffffH
	DD	0ffffffH
	DD	0ffffffH
	DD	0ffffffH
	DD	0e2e2e2H
	DD	0c0c0cH
	DD	0313131H
	DD	0fdfdfdH
	DD	0ffffffH
	DD	0fffffeH
	DD	0fefffcH
	DD	0fffffdH
	DD	0ffffffH
	DD	0ffffffH
	DD	0ffffffH
	DD	0ffffffH
	DD	0fffffeH
	DD	0fffffdH
	DD	0fefffdH
	DD	0fffffdH
	DD	0fffffeH
	DD	0ffffffH
	DD	0ababacH
	DD	00H
	DD	080808H
	DD	08c8c8cH
	DD	0f7f7f7H
	DD	0ffffffH
	DD	0144b4b4bH
	DD	0d4000000H
	DD	0ffd3bfadH
	DD	0ffffffffH
	DD	0ffffffffH
	DD	0ffffffffH
	DD	0ffffffffH
	DD	0ffffffffH
	DD	0ffffffffH
	DD	0ffffffffH
	DD	0ffffffffH
	DD	0ffffffffH
	DD	0ffffffffH
	DD	07d7d7d7dH
	DD	0686464H
	DD	08e8989H
	DD	08a8585H
	DD	08a8585H
	DD	08a8585H
	DD	08a8585H
	DD	08a8585H
	DD	08a8585H
	DD	08a8585H
	DD	08a8585H
	DD	08a8585H
	DD	08a8585H
	DD	08a8585H
	DD	08a8585H
	DD	08a8585H
	DD	08a8585H
	DD	08a8585H
	DD	08a8585H
	DD	08a8585H
	DD	08a8585H
	DD	08a8585H
	DD	08a8585H
	DD	08a8585H
	DD	08a8585H
	DD	08a8585H
	DD	08a8585H
	DD	08a8585H
	DD	08a8585H
	DD	08a8585H
	DD	08a8585H
	DD	08a8585H
	DD	08a8585H
	DD	08a8585H
	DD	08a8585H
	DD	08a8585H
	DD	08a8585H
	DD	08a8585H
	DD	08a8585H
	DD	08a8585H
	DD	08a8585H
	DD	08a8585H
	DD	08a8585H
	DD	08a8585H
	DD	08a8585H
	DD	08a8585H
	DD	08a8585H
	DD	08a8585H
	DD	08a8585H
	DD	08a8585H
	DD	08a8585H
	DD	08a8585H
	DD	08a8585H
	DD	08a8585H
	DD	08a8585H
	DD	08a8585H
	DD	08a8585H
	DD	08a8585H
	DD	08a8585H
	DD	08a8585H
	DD	08b8686H
	DD	08b8686H
	DD	08b8786H
	DD	08d817cH
	DD	0ceafa6H
	DD	0c5aca4H
	DD	066605bH
	DD	0504d4cH
	DD	0363737H
	DD	0212323H
	DD	0171a1aH
	DD	0151818H
	DD	0131616H
	DD	0131616H
	DD	0141818H
	DD	0232526H
	DD	0444545H
	DD	06a6b6bH
	DD	0a0a0a0H
	DD	0d2d2d2H
	DD	0eeeeeeH
	DD	0fdfdfdH
	DD	0ffffffH
	DD	0ffffffH
	DD	0ffffffH
	DD	0fffefbH
	DD	0d1dfedH
	DD	087baecH
	DD	081bcf2H
	DD	085c8f7H
	DD	088cdf5H
	DD	08dcff5H
	DD	08bd0f8H
	DD	08dd2f6H
	DD	090d1f6H
	DD	092d1f7H
	DD	092d1f6H
	DD	08fd2f5H
	DD	094d3f7H
	DD	092d4fbH
	DD	090d4fbH
	DD	095d1f2H
	DD	08fc4e5H
	DD	08ac3e9H
	DD	083c6f2H
	DD	07fc5f6H
	DD	080c7fcH
	DD	079c2fdH
	DD	070bcfbH
	DD	06ab5f7H
	DD	066b1f4H
	DD	061acf2H
	DD	060a6efH
	DD	05ba4ecH
	DD	05ca3e7H
	DD	060a2e4H
	DD	05ba3e3H
	DD	063a1e0H
	DD	06e9ed5H
	DD	07095bcH
	DD	07a8693H
	DD	0807273H
	DD	079605aH
	DD	06a5649H
	DD	0715c42H
	DD	0ddd9d1H
	DD	0ffffffH
	DD	0ffffffH
	DD	0fffffeH
	DD	0fffffdH
	DD	0fffffdH
	DD	0fffffeH
	DD	0ffffffH
	DD	0ffffffH
	DD	0747474H
	DD	00H
	DD	0999999H
	DD	0ffffffH
	DD	0feffffH
	DD	0ffffffH
	DD	0ffffffH
	DD	0cececeH
	DD	00H
	DD	04f4f50H
	DD	0ffffffH
	DD	0ffffffH
	DD	0feffffH
	DD	0ffffffH
	DD	0fdfdfbH
	DD	0faf6f0H
	DD	0f6f1eaH
	DD	0f7f2ecH
	DD	0fbf8f3H
	DD	0fcfcf9H
	DD	0fdfefdH
	DD	0ffffffH
	DD	0ffffffH
	DD	0ffffffH
	DD	0ffffffH
	DD	0a6a4a3H
	DD	00H
	DD	03b3b3aH
	DD	0f5f4f4H
	DD	0ffffffH
	DD	0ffffffH
	DD	0144b4b4bH
	DD	0d4000000H
	DD	0ffcebfb0H
	DD	0ffffffffH
	DD	0ffffffffH
	DD	0ffffffffH
	DD	0ffffffffH
	DD	0ffffffffH
	DD	0ffffffffH
	DD	0ffffffffH
	DD	0ffffffffH
	DD	0ffffffffH
	DD	0ffffffffH
	DD	07d7d7d7dH
	DD	0686464H
	DD	08e8989H
	DD	08a8585H
	DD	08a8585H
	DD	08a8585H
	DD	08a8585H
	DD	08a8585H
	DD	08a8585H
	DD	08a8585H
	DD	08a8585H
	DD	08a8585H
	DD	08a8585H
	DD	08a8585H
	DD	08a8585H
	DD	08a8585H
	DD	08a8585H
	DD	08a8585H
	DD	08a8585H
	DD	08a8585H
	DD	08a8585H
	DD	08a8585H
	DD	08a8585H
	DD	08a8585H
	DD	08a8585H
	DD	08a8585H
	DD	08a8585H
	DD	08a8585H
	DD	08a8585H
	DD	08a8585H
	DD	08a8585H
	DD	08a8585H
	DD	08a8585H
	DD	08a8585H
	DD	08a8585H
	DD	08a8585H
	DD	08a8585H
	DD	08a8585H
	DD	08a8585H
	DD	08a8585H
	DD	08a8585H
	DD	08a8585H
	DD	08a8585H
	DD	08a8585H
	DD	08a8585H
	DD	08a8585H
	DD	08a8585H
	DD	08a8585H
	DD	08a8585H
	DD	08a8585H
	DD	08a8585H
	DD	08a8585H
	DD	08a8585H
	DD	08a8585H
	DD	08a8585H
	DD	08a8585H
	DD	08a8585H
	DD	08b8686H
	DD	08b8787H
	DD	08c8787H
	DD	08a8585H
	DD	0817e7fH
	DD	07c655bH
	DD	0926142H
	DD	0b5816aH
	DD	0a88065H
	DD	05a391eH
	DD	0372924H
	DD	0f1415H
	DD	0101313H
	DD	0101313H
	DD	0131717H
	DD	0252727H
	DD	04a4b4bH
	DD	07f7f7fH
	DD	0afafafH
	DD	0d9d9d9H
	DD	0f4f4f4H
	DD	0ffffffH
	DD	0ffffffH
	DD	0ffffffH
	DD	0ffffffH
	DD	0ffffffH
	DD	0f0f0f0H
	DD	0d2d4d5H
	DD	0a2bacfH
	DD	078b1e7H
	DD	079bef7H
	DD	086c7f5H
	DD	087c8f6H
	DD	087caf7H
	DD	086ccf7H
	DD	085cdf6H
	DD	088cef8H
	DD	089cff8H
	DD	08cd0f8H
	DD	08bd0f8H
	DD	089d1f7H
	DD	089d0f9H
	DD	086cef8H
	DD	084cbf7H
	DD	084c9f5H
	DD	080c9f9H
	DD	077c6faH
	DD	06fbef3H
	DD	06eb7f1H
	DD	068b2f5H
	DD	061adf2H
	DD	059a6ecH
	DD	0549fe8H
	DD	0509be2H
	DD	04c96dcH
	DD	04992d7H
	DD	04790d4H
	DD	0458ccfH
	DD	04388c9H
	DD	04587c2H
	DD	04388c6H
	DD	04189c9H
	DD	0458fcfH
	DD	05291d1H
	DD	06393c4H
	DD	07d8fa7H
	DD	08e8687H
	DD	0847366H
	DD	0b3a79fH
	DD	0f1ececH
	DD	0fcfbfbH
	DD	0ffffffH
	DD	0ffffffH
	DD	0ffffffH
	DD	0ffffffH
	DD	0ffffffH
	DD	0ffffffH
	DD	0605d5fH
	DD	00H
	DD	0adaeaeH
	DD	0ffffffH
	DD	0feffffH
	DD	0ffffffH
	DD	0ffffffH
	DD	0bcbcbcH
	DD	00H
	DD	069686aH
	DD	0ffffffH
	DD	0feffffH
	DD	0fafbf8H
	DD	0f0e7d9H
	DD	0e9d6bfH
	DD	0eed2aeH
	DD	0f1cea7H
	DD	0f0ceabH
	DD	0ecd0b2H
	DD	0e9d4bdH
	DD	0ebd9c3H
	DD	0f2e1ccH
	DD	0f7ebd9H
	DD	0eadfcfH
	DD	0d2bca1H
	DD	0ac957dH
	DD	04b3e32H
	DD	09d8e79H
	DD	0ecdcc8H
	DD	0e5d6c5H
	DD	0fffaf2H
	DD	0154a4b4bH
	DD	0db000000H
	DD	0ffdededeH
	DD	0ffffffffH
	DD	0ffffffffH
	DD	0ffffffffH
	DD	0ffffffffH
	DD	0ffffffffH
	DD	0ffffffffH
	DD	0ffffffffH
	DD	0ffffffffH
	DD	0ffffffffH
	DD	0ffffffffH
	DD	07d7d7d7dH
	DD	0686464H
	DD	08e8989H
	DD	08a8585H
	DD	08a8585H
	DD	08a8585H
	DD	08a8585H
	DD	08a8585H
	DD	08a8585H
	DD	08a8585H
	DD	08a8585H
	DD	08a8585H
	DD	08a8585H
	DD	08a8585H
	DD	08a8585H
	DD	08a8585H
	DD	08a8585H
	DD	08a8585H
	DD	08a8585H
	DD	08a8585H
	DD	08a8585H
	DD	08a8585H
	DD	08a8585H
	DD	08a8585H
	DD	08a8585H
	DD	08a8585H
	DD	08a8585H
	DD	08a8585H
	DD	08a8585H
	DD	08a8585H
	DD	08a8585H
	DD	08a8585H
	DD	08a8585H
	DD	08a8585H
	DD	08a8585H
	DD	08a8585H
	DD	08a8585H
	DD	08a8585H
	DD	08a8585H
	DD	08a8585H
	DD	08a8585H
	DD	08a8585H
	DD	08a8585H
	DD	08a8585H
	DD	08a8585H
	DD	08a8585H
	DD	08a8585H
	DD	08a8585H
	DD	08a8585H
	DD	08a8585H
	DD	08a8585H
	DD	08a8585H
	DD	08a8585H
	DD	08a8585H
	DD	08b8686H
	DD	08c8787H
	DD	08c8787H
	DD	08a8585H
	DD	0827e7eH
	DD	0737070H
	DD	05c5c5dH
	DD	0524644H
	DD	05f3a31H
	DD	0533929H
	DD	0442d1cH
	DD	0372816H
	DD	0301e11H
	DD	030211bH
	DD	01e1e1dH
	DD	0282a2bH
	DD	04e4e4eH
	DD	07f7f7fH
	DD	0aeaeaeH
	DD	0d4d4d4H
	DD	0f4f4f4H
	DD	0ffffffH
	DD	0ffffffH
	DD	0ffffffH
	DD	0ffffffH
	DD	0ffffffH
	DD	0f2f2f2H
	DD	0d4d5d5H
	DD	0a9abacH
	DD	0837d7bH
	DD	0747a7eH
	DD	074abd8H
	DD	07dc4feH
	DD	082c8feH
	DD	081c7f9H
	DD	07fc7f9H
	DD	081c8f8H
	DD	082c9f7H
	DD	082cbf5H
	DD	084cbf6H
	DD	085cbf6H
	DD	086ccf7H
	DD	085ccf7H
	DD	083ccf7H
	DD	082cbf7H
	DD	080c8f7H
	DD	07fc7f6H
	DD	07cc3f4H
	DD	072bbf0H
	DD	06db8f2H
	DD	06ab5f2H
	DD	063aceeH
	DD	060a9f0H
	DD	059a3ecH
	DD	0539de5H
	DD	04e98deH
	DD	04a93d7H
	DD	0468dd0H
	DD	03f88cdH
	DD	03b84c9H
	DD	0387fc3H
	DD	0367cbeH
	DD	03379b9H
	DD	03677b3H
	DD	03776afH
	DD	03575afH
	DD	03074b2H
	DD	03176b7H
	DD	03c7cb6H
	DD	05281adH
	DD	072819aH
	DD	0837a80H
	DD	098857eH
	DD	0ac9e95H
	DD	0c3bab0H
	DD	0dcd3caH
	DD	0ede6ddH
	DD	0f6f2ecH
	DD	0fbfbf8H
	DD	0ffffffH
	DD	0474747H
	DD	00H
	DD	0c0c1c0H
	DD	0ffffffH
	DD	0ffffffH
	DD	0ffffffH
	DD	0ffffffH
	DD	0a7a7a7H
	DD	00H
	DD	0828282H
	DD	0ffffffH
	DD	0f4efe8H
	DD	0ead5b9H
	DD	0edcea8H
	DD	0f1d1abH
	DD	0f5d3abH
	DD	0f6d3abH
	DD	0f6d3adH
	DD	0f4d1abH
	DD	0f5d1aaH
	DD	0f4d1aaH
	DD	0f2d0a9H
	DD	0f2d0aaH
	DD	0eecea9H
	DD	0eccba6H
	DD	0eecfa4H
	DD	0f3d6b1H
	DD	0f2cea8H
	DD	0d5b492H
	DD	0cead89H
	DD	0dbbd9cH
	DD	08ac947bH
	DD	0a5655441H
	DD	0ffded8d2H
	DD	0ffffffffH
	DD	0ffffffffH
	DD	0ffffffffH
	DD	0ffffffffH
	DD	0ffffffffH
	DD	0ffffffffH
	DD	0ffffffffH
	DD	0ffffffffH
	DD	0ffffffffH
	DD	0ffffffffH
	DD	07d7d7d7dH
	DD	0686464H
	DD	08e8989H
	DD	08a8585H
	DD	08a8585H
	DD	08a8585H
	DD	08a8585H
	DD	08a8585H
	DD	08a8585H
	DD	08a8585H
	DD	08a8585H
	DD	08a8585H
	DD	08a8585H
	DD	08a8585H
	DD	08a8585H
	DD	08a8585H
	DD	08a8585H
	DD	08a8585H
	DD	08a8585H
	DD	08a8585H
	DD	08a8585H
	DD	08a8585H
	DD	08a8585H
	DD	08a8585H
	DD	08a8585H
	DD	08a8585H
	DD	08a8585H
	DD	08a8585H
	DD	08a8585H
	DD	08a8585H
	DD	08a8585H
	DD	08a8585H
	DD	08a8585H
	DD	08a8585H
	DD	08a8585H
	DD	08a8585H
	DD	08a8585H
	DD	08a8585H
	DD	08a8585H
	DD	08a8585H
	DD	08a8585H
	DD	08a8585H
	DD	08a8585H
	DD	08a8585H
	DD	08a8585H
	DD	08a8585H
	DD	08a8585H
	DD	08a8585H
	DD	08a8585H
	DD	08a8585H
	DD	08a8585H
	DD	08b8686H
	DD	08c8787H
	DD	08b8686H
	DD	0888383H
	DD	07e7a7aH
	DD	06c6969H
	DD	0585555H
	DD	03e3e3eH
	DD	0262828H
	DD	01a1d1dH
	DD	0181919H
	DD	04e4140H
	DD	0383435H
	DD	040304H
	DD	0151011H
	DD	0211b1cH
	DD	0383937H
	DD	08c8c8cH
	DD	0bfbfbfH
	DD	0e7e7e7H
	DD	0fbfbfbH
	DD	0ffffffH
	DD	0ffffffH
	DD	0ffffffH
	DD	0ffffffH
	DD	0f8f9fbH
	DD	0e2e4e6H
	DD	0bdc0c3H
	DD	0939698H
	DD	0636668H
	DD	0303436H
	DD	0393733H
	DD	0745f5aH
	DD	0816a5eH
	DD	06d6665H
	DD	065788bH
	DD	0729bbdH
	DD	07cb4e0H
	DD	07dc5f4H
	DD	082cbfcH
	DD	083ccfeH
	DD	081cafcH
	DD	080c9faH
	DD	07fc8f9H
	DD	07fc6f7H
	DD	07ec6f6H
	DD	07cc5f7H
	DD	07ac3f6H
	DD	077c0f5H
	DD	075bef5H
	DD	070baf4H
	DD	06bb5f4H
	DD	067aef2H
	DD	061aaf1H
	DD	058a4ebH
	DD	0539fe4H
	DD	05099e2H
	DD	04d94dbH
	DD	04890d2H
	DD	0438acdH
	DD	03d83c6H
	DD	0397fc1H
	DD	0357bbbH
	DD	03276b6H
	DD	02e72b2H
	DD	02a6fb2H
	DD	0316ea9H
	DD	02e6aa4H
	DD	02665a4H
	DD	02d69a1H
	DD	02767a1H
	DD	02467a4H
	DD	02768a7H
	DD	02f6ca4H
	DD	0426d91H
	DD	0636874H
	DD	0766865H
	DD	07e6d65H
	DD	0907d70H
	DD	0a8917dH
	DD	0c3a892H
	DD	0d7bfa9H
	DD	0d8c6b8H
	DD	02d2722H
	DD	030507H
	DD	0cad2d6H
	DD	0ffffffH
	DD	0fffffeH
	DD	0ffffffH
	DD	0ffffffH
	DD	0909091H
	DD	00H
	DD	0989c9fH
	DD	0faf1e6H
	DD	0e7cbadH
	DD	0f3cfa9H
	DD	0f1d2abH
	DD	0f1d2adH
	DD	0f0d2afH
	DD	0f1d2afH
	DD	0f2d2afH
	DD	0f4d2aeH
	DD	0f5d3acH
	DD	0f4d3afH
	DD	0f4d2afH
	DD	0f6d2adH
	DD	0f9d4aeH
	DD	0fddbafH
	DD	0fddeb2H
	DD	0bea58aH
	DD	0bea087H
	DD	0d1b193H
	DD	0ceae90H
	DD	0d8b899H
	DD	0e6c4a2H
	DD	026e1be9aH
	DD	0eee4ccb7H
	DD	0ffffffffH
	DD	0ffffffffH
	DD	0ffffffffH
	DD	0ffffffffH
	DD	0ffffffffH
	DD	0ffffffffH
	DD	0ffffffffH
	DD	0ffffffffH
	DD	0ffffffffH
	DD	0ffffffffH
	DD	07d7d7d7dH
	DD	0686464H
	DD	08e8989H
	DD	08a8585H
	DD	08a8585H
	DD	08a8585H
	DD	08a8585H
	DD	08a8585H
	DD	08a8585H
	DD	08a8585H
	DD	08a8585H
	DD	08a8585H
	DD	08a8585H
	DD	08a8585H
	DD	08a8585H
	DD	08a8585H
	DD	08a8585H
	DD	08a8585H
	DD	08a8585H
	DD	08a8585H
	DD	08a8585H
	DD	08a8585H
	DD	08a8585H
	DD	08a8585H
	DD	08a8585H
	DD	08a8585H
	DD	08a8585H
	DD	08a8585H
	DD	08a8585H
	DD	08a8585H
	DD	08a8585H
	DD	08a8585H
	DD	08a8585H
	DD	08a8585H
	DD	08a8585H
	DD	08a8585H
	DD	08a8585H
	DD	08a8585H
	DD	08a8585H
	DD	08a8585H
	DD	08a8585H
	DD	08a8585H
	DD	08a8585H
	DD	08a8585H
	DD	08a8585H
	DD	08a8585H
	DD	08a8585H
	DD	08b8686H
	DD	08b8686H
	DD	08c8787H
	DD	08c8787H
	DD	08a8585H
	DD	0807c7cH
	DD	06c6969H
	DD	0535151H
	DD	03e3d3dH
	DD	0262727H
	DD	016191aH
	DD	0101315H
	DD	0f1213H
	DD	0f1313H
	DD	0c1213H
	DD	024292bH
	DD	0212128H
	DD	00H
	DD	0131110H
	DD	0b4afadH
	DD	0e9eae9H
	DD	0fbfaf9H
	DD	0ffffffH
	DD	0ffffffH
	DD	0ffffffH
	DD	0ffffffH
	DD	0faf9f8H
	DD	0eceae7H
	DD	0d3cfcaH
	DD	0bfb6acH
	DD	0b3a796H
	DD	09d8d7cH
	DD	07b6d5dH
	DD	061584bH
	DD	0504a42H
	DD	0726459H
	DD	0856d67H
	DD	076655eH
	DD	06b5b4dH
	DD	0655346H
	DD	05c4f43H
	DD	05c5a56H
	DD	0656d73H
	DD	0708290H
	DD	07497b1H
	DD	07babcbH
	DD	07cbae4H
	DD	080c2f2H
	DD	07fc6f8H
	DD	07cc8fbH
	DD	07ac6fdH
	DD	077c4feH
	DD	074c1fdH
	DD	06fbdfdH
	DD	067b8fdH
	DD	066b4fcH
	DD	064affaH
	DD	05daaf8H
	DD	058acf5H
	DD	054a5e8H
	DD	0529de3H
	DD	04890d6H
	DD	03f84c7H
	DD	03b7cbaH
	DD	03472abH
	DD	0326a9cH
	DD	02f618eH
	DD	02d5880H
	DD	02b5275H
	DD	0354d6aH
	DD	031475eH
	DD	0435b73H
	DD	03c6996H
	DD	0204f80H
	DD	01c5085H
	DD	01d5486H
	DD	01f5785H
	DD	01c588eH
	DD	0296095H
	DD	0385f8bH
	DD	04d5d72H
	DD	059575eH
	DD	06a5852H
	DD	06e5d55H
	DD	07a655dH
	DD	08a7977H
	DD	0808086H
	DD	01c1f29H
	DD	02a313bH
	DD	08e9dadH
	DD	0aaa6a7H
	DD	0baafa9H
	DD	0c8c4c3H
	DD	0ebe7e4H
	DD	070706dH
	DD	00H
	DD	0a3988aH
	DD	0f1d4b3H
	DD	0f4ceabH
	DD	0f1d0aeH
	DD	0f1d0aaH
	DD	0f2d0abH
	DD	0f2d1adH
	DD	0f4d2acH
	DD	0f7d3abH
	DD	0f6d2acH
	DD	0f6d1acH
	DD	0f4d0acH
	DD	0f5d4adH
	DD	0fcd8aeH
	DD	0fbd9afH
	DD	0fbe7bcH
	DD	07d6d59H
	DD	01c151eH
	DD	0100b0dH
	DD	0816d5bH
	DD	0b69980H
	DD	0bfa186H
	DD	0c6a88bH
	DD	025a5866eH
	DD	0eec0aa99H
	DD	0ffffffffH
	DD	0ffffffffH
	DD	0ffffffffH
	DD	0ffffffffH
	DD	0ffffffffH
	DD	0ffffffffH
	DD	0ffffffffH
	DD	0ffffffffH
	DD	0ffffffffH
	DD	0ffffffffH
	DD	07d7d7d7dH
	DD	0686464H
	DD	08e8989H
	DD	08a8585H
	DD	08a8585H
	DD	08a8585H
	DD	08a8585H
	DD	08a8585H
	DD	08a8585H
	DD	08a8585H
	DD	08a8585H
	DD	08a8585H
	DD	08a8585H
	DD	08a8585H
	DD	08a8585H
	DD	08a8585H
	DD	08a8585H
	DD	08a8585H
	DD	08a8585H
	DD	08a8585H
	DD	08a8585H
	DD	08a8585H
	DD	08a8585H
	DD	08a8585H
	DD	08a8585H
	DD	08a8585H
	DD	08a8585H
	DD	08a8585H
	DD	08a8585H
	DD	08a8585H
	DD	08a8585H
	DD	08a8585H
	DD	08a8585H
	DD	08a8585H
	DD	08a8585H
	DD	08a8585H
	DD	08a8585H
	DD	08a8585H
	DD	08a8585H
	DD	08a8585H
	DD	08a8585H
	DD	08a8585H
	DD	08a8585H
	DD	08a8585H
	DD	08b8686H
	DD	08b8686H
	DD	08c8787H
	DD	08a8585H
	DD	0858181H
	DD	0797676H
	DD	0636162H
	DD	0474748H
	DD	0313233H
	DD	01d1f21H
	DD	0d1113H
	DD	0a1011H
	DD	080d0fH
	DD	01a1c1cH
	DD	02c2c29H
	DD	0333330H
	DD	052504dH
	DD	07b746dH
	DD	0a69a8eH
	DD	059514bH
	DD	00H
	DD	01d1a19H
	DD	0d9c1a9H
	DD	0e9ccaaH
	DD	0e7ccacH
	DD	0ead1b4H
	DD	0ecd6bdH
	DD	0ebd5bdH
	DD	0e7d0b7H
	DD	0e5caafH
	DD	0dfc7abH
	DD	0dcc2a3H
	DD	0dec09dH
	DD	0e7c69fH
	DD	0eecca6H
	DD	0f4d2aeH
	DD	0ccb096H
	DD	08e796aH
	DD	07c6d65H
	DD	075655dH
	DD	073645cH
	DD	087766bH
	DD	08d7b6cH
	DD	0837164H
	DD	0756357H
	DD	0675449H
	DD	0605045H
	DD	05b5046H
	DD	05b544bH
	DD	0605c58H
	DD	0626569H
	DD	060707aH
	DD	0607a8bH
	DD	061829cH
	DD	06288a7H
	DD	05c8aacH
	DD	0598ab2H
	DD	05b8bb6H
	DD	05c8bb5H
	DD	05b88b1H
	DD	05883a9H
	DD	0537b9dH
	DD	052738eH
	DD	04b667bH
	DD	03b5264H
	DD	0344556H
	DD	0323e46H
	DD	0333a3bH
	DD	030343aH
	DD	032333aH
	DD	03a3634H
	DD	0423933H
	DD	0443733H
	DD	035322fH
	DD	04c413fH
	DD	05c7999H
	DD	0175381H
	DD	0174b79H
	DD	0194978H
	DD	0184675H
	DD	0174675H
	DD	0174472H
	DD	01c4a75H
	DD	0234c76H
	DD	0394f67H
	DD	04c4b4fH
	DD	05a4946H
	DD	0574a45H
	DD	0453d38H
	DD	04b4b4eH
	DD	0726f72H
	DD	0837773H
	DD	0837069H
	DD	0826f6bH
	DD	0827271H
	DD	0837371H
	DD	0857c7dH
	DD	0272120H
	DD	0524739H
	DD	0e3c8a7H
	DD	0f0d2b1H
	DD	0f2cfadH
	DD	0f4cfabH
	DD	0f2d0aaH
	DD	0f3d0abH
	DD	0f3d0abH
	DD	0f4d1abH
	DD	0f4d0abH
	DD	0f5d1acH
	DD	0f5cfabH
	DD	0f6d4acH
	DD	0f7dbb1H
	DD	0eac79eH
	DD	0fae1b9H
	DD	0b0a181H
	DD	034241fH
	DD	0756a6dH
	DD	0bfc1c2H
	DD	0aba49dH
	DD	0ad967eH
	DD	0aa9075H
	DD	0ac9175H
	DD	071514337H
	DD	0ffb0a7a0H
	DD	0ffffffffH
	DD	0ffffffffH
	DD	0ffffffffH
	DD	0ffffffffH
	DD	0ffffffffH
	DD	0ffffffffH
	DD	0ffffffffH
	DD	0ffffffffH
	DD	0ffffffffH
	DD	0ffffffffH
	DD	07d7d7d7dH
	DD	0686464H
	DD	08e8989H
	DD	08a8585H
	DD	08a8585H
	DD	08a8585H
	DD	08a8585H
	DD	08a8585H
	DD	08a8585H
	DD	08a8585H
	DD	08a8585H
	DD	08a8585H
	DD	08a8585H
	DD	08a8585H
	DD	08a8585H
	DD	08a8585H
	DD	08a8585H
	DD	08a8585H
	DD	08a8585H
	DD	08a8585H
	DD	08a8585H
	DD	08a8585H
	DD	08a8585H
	DD	08a8585H
	DD	08a8585H
	DD	08a8585H
	DD	08a8585H
	DD	08a8585H
	DD	08a8585H
	DD	08a8585H
	DD	08a8585H
	DD	08a8585H
	DD	08a8585H
	DD	08a8585H
	DD	08a8585H
	DD	08a8585H
	DD	08a8585H
	DD	08a8585H
	DD	08a8585H
	DD	08a8585H
	DD	08a8585H
	DD	08b8686H
	DD	08c8787H
	DD	08c8787H
	DD	08a8585H
	DD	0827d7eH
	DD	0716e70H
	DD	0575658H
	DD	0434344H
	DD	0363535H
	DD	033312fH
	DD	032312dH
	DD	03a3832H
	DD	0585044H
	DD	0796b5aH
	DD	092826fH
	DD	0ad9982H
	DD	0bfaa93H
	DD	0c8b199H
	DD	0d0b298H
	DD	0dbbea3H
	DD	0ebc9abH
	DD	0f4d2b0H
	DD	06f5c4eH
	DD	00H
	DD	0181513H
	DD	0cdb395H
	DD	0e1c4a0H
	DD	0dec29fH
	DD	0e0c3a1H
	DD	0e4c5a3H
	DD	0e5c6a4H
	DD	0e7c7a5H
	DD	0e8c8a6H
	DD	0e7c9a8H
	DD	0e8cca9H
	DD	0e9ccaaH
	DD	0e9cca9H
	DD	0e7ceacH
	DD	0cfb69cH
	DD	08f7667H
	DD	07e6961H
	DD	073645cH
	DD	06f5f57H
	DD	0786860H
	DD	089766dH
	DD	08b766bH
	DD	0806c63H
	DD	078655eH
	DD	06e615eH
	DD	06b605cH
	DD	0706157H
	DD	0736255H
	DD	0695b54H
	DD	05f514dH
	DD	0564946H
	DD	04f443fH
	DD	04c4239H
	DD	0473d36H
	DD	0413834H
	DD	0453c39H
	DD	04a423aH
	DD	04a4136H
	DD	0483d2fH
	DD	0493b2bH
	DD	04b3929H
	DD	0453528H
	DD	03d3026H
	DD	03a2d23H
	DD	045372bH
	DD	0514136H
	DD	05a463cH
	DD	0644e41H
	DD	06c574aH
	DD	06e5b51H
	DD	0726059H
	DD	06d5c51H
	DD	0403b35H
	DD	0392e2bH
	DD	0526679H
	DD	028649aH
	DD	0205b90H
	DD	0205b90H
	DD	0225a8eH
	DD	0285b8dH
	DD	0285a89H
	DD	020507fH
	DD	0174575H
	DD	0213e5aH
	DD	0424c5bH
	DD	049434aH
	DD	04a3938H
	DD	0544840H
	DD	07f6e6aH
	DD	08d878eH
	DD	0798a9fH
	DD	072849fH
	DD	0778195H
	DD	0858086H
	DD	0888183H
	DD	0767c8aH
	DD	06f6761H
	DD	0dec19eH
	DD	0f1d2b1H
	DD	0eccdaaH
	DD	0f0cfaaH
	DD	0f2cfa9H
	DD	0f2cfaaH
	DD	0f2cfaaH
	DD	0f2d0abH
	DD	0f4d0abH
	DD	0f4d0aaH
	DD	0f1cea9H
	DD	0f7d6b1H
	DD	0fbdfb7H
	DD	0d8bc99H
	DD	0d6b391H
	DD	0d5bb9aH
	DD	0785338H
	DD	0a87f7dH
	DD	0946f6eH
	DD	0cac0beH
	DD	0ffffffH
	DD	0bba995H
	DD	0aa8f72H
	DD	0ad9275H
	DD	08e4c3f32H
	DD	0ffd4d5d7H
	DD	0ffffffffH
	DD	0ffffffffH
	DD	0ffffffffH
	DD	0ffffffffH
	DD	0ffffffffH
	DD	0ffffffffH
	DD	0ffffffffH
	DD	0ffffffffH
	DD	0ffffffffH
	DD	0ffffffffH
	DD	07d7d7d7dH
	DD	0686464H
	DD	08e8989H
	DD	08a8585H
	DD	08a8585H
	DD	08a8585H
	DD	08a8585H
	DD	08a8585H
	DD	08a8585H
	DD	08a8585H
	DD	08a8585H
	DD	08a8585H
	DD	08a8585H
	DD	08a8585H
	DD	08a8585H
	DD	08a8585H
	DD	08a8585H
	DD	08a8585H
	DD	08a8585H
	DD	08a8585H
	DD	08a8585H
	DD	08a8585H
	DD	08a8585H
	DD	08a8585H
	DD	08a8585H
	DD	08a8585H
	DD	08a8585H
	DD	08a8585H
	DD	08a8585H
	DD	08a8585H
	DD	08a8585H
	DD	08a8585H
	DD	08a8585H
	DD	08a8585H
	DD	08a8585H
	DD	08a8585H
	DD	08a8585H
	DD	08a8585H
	DD	08b8686H
	DD	08c8686H
	DD	08c8787H
	DD	0898484H
	DD	0797577H
	DD	0686668H
	DD	05e5d5dH
	DD	054524fH
	DD	0686156H
	DD	0887c6cH
	DD	0a1927fH
	DD	0b7a085H
	DD	0d4b796H
	DD	0ebcfafH
	DD	0f6dab9H
	DD	0fbdcb8H
	DD	0feddb8H
	DD	0fdddbbH
	DD	0feddbaH
	DD	0fbdab7H
	DD	0f6d6b5H
	DD	0f2d2b2H
	DD	0edcdaeH
	DD	0eccbadH
	DD	0efd1b0H
	DD	06e5e4cH
	DD	0170f08H
	DD	0604f45H
	DD	0e0c3a4H
	DD	0e4c9a8H
	DD	0e4c9a9H
	DD	0e4c9a9H
	DD	0eccbaaH
	DD	0edcbabH
	DD	0e8cbaaH
	DD	0e4c9a8H
	DD	0e1c5a3H
	DD	0dabf9fH
	DD	0d1b89bH
	DD	0c8af91H
	DD	0ba9f85H
	DD	08b7668H
	DD	078665fH
	DD	077645dH
	DD	0726159H
	DD	0706058H
	DD	076665eH
	DD	075665cH
	DD	06d6158H
	DD	0685e56H
	DD	0665d58H
	DD	0635e57H
	DD	0665f57H
	DD	06b5f57H
	DD	06e6058H
	DD	0675d59H
	DD	0665c59H
	DD	0665a59H
	DD	0655657H
	DD	060514dH
	DD	05b4d4aH
	DD	05d524dH
	DD	059504aH
	DD	0564a44H
	DD	056483fH
	DD	059483cH
	DD	053453aH
	DD	0483d36H
	DD	041332cH
	DD	044342dH
	DD	03f3329H
	DD	0423528H
	DD	05f4838H
	DD	06f4e3bH
	DD	06c5142H
	DD	06b5444H
	DD	0705746H
	DD	0765b4aH
	DD	0786154H
	DD	0474342H
	DD	02d2a2eH
	DD	04b5a63H
	DD	02f669bH
	DD	03570a6H
	DD	03a78acH
	DD	03c78acH
	DD	03e76adH
	DD	03e75aaH
	DD	03b70a3H
	DD	0356c9cH
	DD	02a5d8bH
	DD	0324b6cH
	DD	03c485eH
	DD	05a5b61H
	DD	0728395H
	DD	07198beH
	DD	06b9eceH
	DD	07a9fc3H
	DD	0a3a7a9H
	DD	0c6b097H
	DD	0cab096H
	DD	0c5af93H
	DD	0b19e87H
	DD	0d1b89cH
	DD	0f6d3adH
	DD	0f0cca9H
	DD	0efcda8H
	DD	0f0cfa8H
	DD	0efcfa8H
	DD	0f0cda8H
	DD	0f0cda8H
	DD	0f0cda8H
	DD	0f3cca7H
	DD	0f2cca8H
	DD	0f4d5b0H
	DD	0f8deb9H
	DD	0d8bd99H
	DD	0b29678H
	DD	0dabd9aH
	DD	0906e59H
	DD	08c625bH
	DD	0886b72H
	DD	0886a6fH
	DD	0ac9194H
	DD	0faf8faH
	DD	0cabbadH
	DD	0ab8d6fH
	DD	0c977e64H
	DD	0bf282019H
	DD	0ffd8d9daH
	DD	0ffffffffH
	DD	0ffffffffH
	DD	0ffffffffH
	DD	0ffffffffH
	DD	0ffffffffH
	DD	0ffffffffH
	DD	0ffffffffH
	DD	0ffffffffH
	DD	0ffffffffH
	DD	0ffffffffH
	DD	07d7d7d7dH
	DD	0686464H
	DD	08e8989H
	DD	08a8585H
	DD	08a8585H
	DD	08a8585H
	DD	08a8585H
	DD	08a8585H
	DD	08a8585H
	DD	08a8585H
	DD	08a8585H
	DD	08a8585H
	DD	08a8585H
	DD	08a8585H
	DD	08a8585H
	DD	08a8585H
	DD	08a8585H
	DD	08a8585H
	DD	08a8585H
	DD	08a8585H
	DD	08a8585H
	DD	08a8585H
	DD	08a8585H
	DD	08a8585H
	DD	08a8585H
	DD	08a8585H
	DD	08a8585H
	DD	08a8585H
	DD	08a8585H
	DD	08a8585H
	DD	08a8585H
	DD	08a8585H
	DD	08a8585H
	DD	08a8585H
	DD	08a8585H
	DD	08b8686H
	DD	08c8787H
	DD	08c8888H
	DD	08a8585H
	DD	0807c7cH
	DD	0686668H
	DD	0535253H
	DD	06e6961H
	DD	0867c6cH
	DD	0c4b092H
	DD	0e6ceadH
	DD	0f4d9b4H
	DD	0ffe5bfH
	DD	0ffe9c3H
	DD	0ffe7c0H
	DD	0ffe3bcH
	DD	0fddfb9H
	DD	0fcdeb8H
	DD	0fbdcb8H
	DD	0fbdbb8H
	DD	0fcdbb6H
	DD	0fad9b5H
	DD	0fbd9b6H
	DD	0f9d8b6H
	DD	0f7d7b6H
	DD	0f3d5b5H
	DD	0efd1b1H
	DD	0c6af93H
	DD	071614dH
	DD	09b856eH
	DD	0ecceb3H
	DD	0f4d3b1H
	DD	0edd0aeH
	DD	0e8cbaaH
	DD	0e1c5a4H
	DD	0dbbea0H
	DD	0d1b598H
	DD	0c6ac8eH
	DD	0baa284H
	DD	0b1967cH
	DD	0a68d73H
	DD	09d866cH
	DD	0977e68H
	DD	08e7061H
	DD	07d685fH
	DD	072625cH
	DD	06d5e55H
	DD	06d5c54H
	DD	06e5d55H
	DD	06f5e56H
	DD	06b5a52H
	DD	057443bH
	DD	0695a53H
	DD	06a5e58H
	DD	0635a52H
	DD	0615a52H
	DD	0635a55H
	DD	0625854H
	DD	0655752H
	DD	0635450H
	DD	0615150H
	DD	05c4c4dH
	DD	0534c4aH
	DD	05b524fH
	DD	05c504aH
	DD	0584a43H
	DD	055473eH
	DD	057483eH
	DD	05b4b3fH
	DD	04f4135H
	DD	042352bH
	DD	0413329H
	DD	044352aH
	DD	0423626H
	DD	0473824H
	DD	0604836H
	DD	06a4f3eH
	DD	0684e3dH
	DD	0695141H
	DD	06c5749H
	DD	0705e51H
	DD	0706155H
	DD	0414143H
	DD	0343133H
	DD	051565cH
	DD	0306197H
	DD	0315987H
	DD	0315f89H
	DD	0296093H
	DD	0245887H
	DD	0215485H
	DD	0205182H
	DD	01d4f80H
	DD	0174974H
	DD	028475eH
	DD	0556579H
	DD	06594bfH
	DD	06296cdH
	DD	07095bfH
	DD	09e9fa0H
	DD	0c4ab8eH
	DD	0d0b28fH
	DD	0cfb18fH
	DD	0c9b093H
	DD	0c3a88fH
	DD	0c9a887H
	DD	0edcba9H
	DD	0edcdabH
	DD	0f0cda9H
	DD	0eecda8H
	DD	0edcea8H
	DD	0efcea8H
	DD	0f1cda8H
	DD	0f0cda8H
	DD	0eecda8H
	DD	0eecca5H
	DD	0f7d6b0H
	DD	0fbdfbcH
	DD	0d5bb96H
	DD	0ae9576H
	DD	0c1a387H
	DD	0c3a685H
	DD	04a3029H
	DD	0826a78H
	DD	05c5262H
	DD	03b363dH
	DD	082666aH
	DD	0f0e8ecH
	DD	0d3cbbdH
	DD	0ad9171H
	DD	014675746H
	DD	0d5000000H
	DD	0ffdededeH
	DD	0ffffffffH
	DD	0ffffffffH
	DD	0ffffffffH
	DD	0ffffffffH
	DD	0ffffffffH
	DD	0ffffffffH
	DD	0ffffffffH
	DD	0ffffffffH
	DD	0ffffffffH
	DD	0ffffffffH
	DD	07d7d7d7dH
	DD	0686464H
	DD	08e8989H
	DD	08a8585H
	DD	08a8585H
	DD	08a8585H
	DD	08a8585H
	DD	08a8585H
	DD	08a8585H
	DD	08a8585H
	DD	08a8585H
	DD	08a8585H
	DD	08a8585H
	DD	08a8585H
	DD	08a8585H
	DD	08a8585H
	DD	08a8585H
	DD	08a8585H
	DD	08a8585H
	DD	08a8585H
	DD	08a8585H
	DD	08a8585H
	DD	08a8585H
	DD	08a8585H
	DD	08a8585H
	DD	08a8585H
	DD	08a8585H
	DD	08a8585H
	DD	08a8585H
	DD	08a8585H
	DD	08a8585H
	DD	08a8585H
	DD	08b8686H
	DD	08b8686H
	DD	08b8686H
	DD	0898484H
	DD	0807c7cH
	DD	0706c6cH
	DD	0515051H
	DD	039393bH
	DD	056524dH
	DD	0ad9f8aH
	DD	0f0dbb8H
	DD	0ffeec6H
	DD	0ffe8c2H
	DD	0ffe6c0H
	DD	0ffe6c0H
	DD	0fde3beH
	DD	0fbe2bdH
	DD	0fae1bcH
	DD	0fae1bcH
	DD	0f9dfbaH
	DD	0fadfbaH
	DD	0fbddb9H
	DD	0fcdeb9H
	DD	0fbdeb7H
	DD	0fadcb6H
	DD	0fbdbb8H
	DD	0fcdcbaH
	DD	0feddbcH
	DD	0f4d5b5H
	DD	0caac8bH
	DD	0a88f74H
	DD	09d876fH
	DD	0b89d80H
	DD	0d7bb9cH
	DD	0d3b696H
	DD	0c9ac8cH
	DD	0bea184H
	DD	0b2977bH
	DD	0a78f76H
	DD	09f876fH
	DD	09a8369H
	DD	0957d64H
	DD	0907665H
	DD	08d765fH
	DD	08c755cH
	DD	08a705fH
	DD	082675dH
	DD	0796358H
	DD	06e5d56H
	DD	0695a53H
	DD	06b5952H
	DD	06e5c55H
	DD	0604e47H
	DD	0422b23H
	DD	0452e26H
	DD	06c5c56H
	DD	06b5e56H
	DD	0685c58H
	DD	0635754H
	DD	0615551H
	DD	05f534fH
	DD	05e514eH
	DD	05c4f4dH
	DD	05a4d4aH
	DD	0594c4aH
	DD	0574e49H
	DD	0584e47H
	DD	05f5249H
	DD	05b4e43H
	DD	0574a40H
	DD	054483eH
	DD	053473dH
	DD	0493c33H
	DD	03d3128H
	DD	03d3128H
	DD	0382c24H
	DD	03e2e1fH
	DD	0634b3aH
	DD	0705344H
	DD	0684f3fH
	DD	0694e3fH
	DD	06e5547H
	DD	06d5b51H
	DD	06b5c52H
	DD	06b5e53H
	DD	0444244H
	DD	038312fH
	DD	04f555bH
	DD	02c5d8bH
	DD	0374b67H
	DD	0172f45H
	DD	01d4e7aH
	DD	01d4f79H
	DD	01f4d78H
	DD	01d4774H
	DD	0154067H
	DD	0294e68H
	DD	0547c9dH
	DD	06496c9H
	DD	06c95baH
	DD	094989cH
	DD	0c7a88aH
	DD	0d0b18bH
	DD	0cdb090H
	DD	0c9ad8fH
	DD	0c5ab90H
	DD	0bfa78dH
	DD	0b49a83H
	DD	0ddbe9fH
	DD	0efcea8H
	DD	0eccda8H
	DD	0edcda9H
	DD	0eccda9H
	DD	0eccda9H
	DD	0eecda9H
	DD	0f2cda8H
	DD	0efcda8H
	DD	0eccba6H
	DD	0f3d6b0H
	DD	0fadfbaH
	DD	0d4b895H
	DD	0b39978H
	DD	0a89175H
	DD	0d5b497H
	DD	0896858H
	DD	03f3436H
	DD	050515aH
	DD	04c4358H
	DD	04c495bH
	DD	05d4246H
	DD	0ded1d3H
	DD	0d8d3c4H
	DD	0ac9373H
	DD	01452483cH
	DD	0d4000000H
	DD	0ffdededeH
	DD	0ffffffffH
	DD	0ffffffffH
	DD	0ffffffffH
	DD	0ffffffffH
	DD	0ffffffffH
	DD	0ffffffffH
	DD	0ffffffffH
	DD	0ffffffffH
	DD	0ffffffffH
	DD	0ffffffffH
	DD	07d7d7d7dH
	DD	0686464H
	DD	08e8989H
	DD	08a8585H
	DD	08a8585H
	DD	08a8585H
	DD	08a8585H
	DD	08a8585H
	DD	08a8585H
	DD	08a8585H
	DD	08a8585H
	DD	08a8585H
	DD	08a8585H
	DD	08a8585H
	DD	08a8585H
	DD	08a8585H
	DD	08a8585H
	DD	08a8585H
	DD	08a8585H
	DD	08a8585H
	DD	08a8585H
	DD	08a8585H
	DD	08a8585H
	DD	08a8585H
	DD	08a8585H
	DD	08a8585H
	DD	08a8585H
	DD	08a8585H
	DD	08a8585H
	DD	08b8686H
	DD	08c8787H
	DD	08c8686H
	DD	0878282H
	DD	07d7878H
	DD	06c6868H
	DD	0515050H
	DD	0373737H
	DD	01c1f20H
	DD	01e201fH
	DD	0928676H
	DD	0f2d9bbH
	DD	0ffebc6H
	DD	0fce7c3H
	DD	0fae4c1H
	DD	0fbe4bfH
	DD	0fce5c0H
	DD	0fce5c0H
	DD	0fbe3bfH
	DD	0fae3beH
	DD	0fae3beH
	DD	0fae2beH
	DD	0f9e1bdH
	DD	0f9e1bdH
	DD	0fce1bdH
	DD	0fde1bcH
	DD	0fce1b9H
	DD	0fadeb8H
	DD	0f8dbb7H
	DD	0f5d6b2H
	DD	0f1ceabH
	DD	0e5c5a3H
	DD	0d5b897H
	DD	0c8ac8bH
	DD	0c2a484H
	DD	0bb9d7fH
	DD	0b19578H
	DD	0a88e72H
	DD	0a2886eH
	DD	09c856dH
	DD	0968069H
	DD	0927d68H
	DD	08f7b65H
	DD	08d7863H
	DD	08b7661H
	DD	08a7460H
	DD	088725bH
	DD	087705cH
	DD	081685cH
	DD	0776357H
	DD	06e5c53H
	DD	06b5952H
	DD	06a5952H
	DD	06d5c55H
	DD	05f4d45H
	DD	03d281fH
	DD	029120cH
	DD	0615049H
	DD	0675b53H
	DD	061574fH
	DD	0615650H
	DD	0615451H
	DD	0605450H
	DD	05d514dH
	DD	05b4e4bH
	DD	0594b49H
	DD	0574a47H
	DD	0584b48H
	DD	0504440H
	DD	04d3f38H
	DD	05c4c43H
	DD	0615148H
	DD	053453eH
	DD	050423bH
	DD	0574941H
	DD	0493b33H
	DD	0372a21H
	DD	036271eH
	DD	03b2e26H
	DD	04c3f31H
	DD	0655241H
	DD	0684e3eH
	DD	0655040H
	DD	0685345H
	DD	06a584cH
	DD	0665950H
	DD	0665c55H
	DD	06d645eH
	DD	0434041H
	DD	0352f2dH
	DD	049525dH
	DD	0255382H
	DD	040526bH
	DD	03b4453H
	DD	01f4a71H
	DD	01a4d79H
	DD	016456fH
	DD	01a436dH
	DD	0436990H
	DD	06797c5H
	DD	0659fd2H
	DD	07f93a9H
	DD	0bba290H
	DD	0d3b393H
	DD	0d0b390H
	DD	0c9b28fH
	DD	0cbb091H
	DD	0c8ab8dH
	DD	0c3a88cH
	DD	0b3997eH
	DD	0c9ab8fH
	DD	0eccbaaH
	DD	0ebcaa4H
	DD	0e9caa6H
	DD	0ebcba8H
	DD	0eccda9H
	DD	0eccda9H
	DD	0edcca9H
	DD	0efcda7H
	DD	0ebcba6H
	DD	0f4d6b1H
	DD	0f9dfbcH
	DD	0d3b796H
	DD	0b19677H
	DD	0aa9379H
	DD	0b2987cH
	DD	0c8ab8dH
	DD	0553c3bH
	DD	05a5156H
	DD	0343c3fH
	DD	0434859H
	DD	04a495cH
	DD	0503941H
	DD	0a39799H
	DD	0ded4c6H
	DD	0af9274H
	DD	0144e4337H
	DD	0d4000000H
	DD	0ffdededeH
	DD	0ffffffffH
	DD	0ffffffffH
	DD	0ffffffffH
	DD	0ffffffffH
	DD	0ffffffffH
	DD	0ffffffffH
	DD	0ffffffffH
	DD	0ffffffffH
	DD	0ffffffffH
	DD	0ffffffffH
	DD	07d7d7d7dH
	DD	0686464H
	DD	08e8989H
	DD	08a8585H
	DD	08a8585H
	DD	08a8585H
	DD	08a8585H
	DD	08a8585H
	DD	08a8585H
	DD	08a8585H
	DD	08a8585H
	DD	08a8585H
	DD	08a8585H
	DD	08a8585H
	DD	08a8585H
	DD	08a8585H
	DD	08a8585H
	DD	08a8585H
	DD	08a8585H
	DD	08a8585H
	DD	08a8585H
	DD	08a8585H
	DD	08a8585H
	DD	08a8585H
	DD	08a8585H
	DD	08b8686H
	DD	08c8686H
	DD	08c8787H
	DD	08c8787H
	DD	0868282H
	DD	07b7777H
	DD	0696767H
	DD	0504f4fH
	DD	0363636H
	DD	0252727H
	DD	01a1d1dH
	DD	0a0e0fH
	DD	042403aH
	DD	0ceba9eH
	DD	0ffeec7H
	DD	0ffe7c2H
	DD	0fce7c2H
	DD	0fce7c0H
	DD	0fce7c1H
	DD	0fce7c2H
	DD	0fbe7c1H
	DD	0fbe6c1H
	DD	0fae5c0H
	DD	0fae5bfH
	DD	0f9e4bfH
	DD	0f9e5bfH
	DD	0fce3bfH
	DD	0fce1bdH
	DD	0fbddb8H
	DD	0f6d6b1H
	DD	0ecd0acH
	DD	0e3c7a4H
	DD	0dabb9cH
	DD	0d2b192H
	DD	0c9a887H
	DD	0bd9f7fH
	DD	0b1987aH
	DD	0ab9276H
	DD	0a88e74H
	DD	0a58c70H
	DD	0a3896dH
	DD	0a2876cH
	DD	09e846aH
	DD	0998169H
	DD	0947d67H
	DD	0907a64H
	DD	08d7660H
	DD	08b745dH
	DD	0877059H
	DD	0816d57H
	DD	0837159H
	DD	0806959H
	DD	0786058H
	DD	06c5f53H
	DD	06a5c51H
	DD	06c5953H
	DD	06e5c56H
	DD	05f4d46H
	DD	0402b22H
	DD	0281008H
	DD	04e3c35H
	DD	0695b54H
	DD	060564dH
	DD	05c554cH
	DD	05d534eH
	DD	05e524eH
	DD	05d514dH
	DD	05b4f4aH
	DD	0574b47H
	DD	0554745H
	DD	0524441H
	DD	04f413eH
	DD	04f403cH
	DD	053413bH
	DD	05b473fH
	DD	05a463dH
	DD	04e3e39H
	DD	052423eH
	DD	0534340H
	DD	03c2c26H
	DD	0302318H
	DD	0372a20H
	DD	04d4139H
	DD	04c4334H
	DD	05c4d3bH
	DD	0674f3fH
	DD	0675443H
	DD	067564aH
	DD	065564eH
	DD	0665c55H
	DD	0615d57H
	DD	0433e3dH
	DD	0282527H
	DD	02b2726H
	DD	03f4d60H
	DD	010437bH
	DD	03e5672H
	DD	04c505eH
	DD	019446aH
	DD	012436fH
	DD	0245281H
	DD	05e8ab9H
	DD	071a7dbH
	DD	06da0d1H
	DD	092969eH
	DD	0ccb091H
	DD	0d8bc9aH
	DD	0d3bc9cH
	DD	0d1b998H
	DD	0d4b699H
	DD	0d1b496H
	DD	0ccaf92H
	DD	0bba185H
	DD	0b0977bH
	DD	0e3c3a3H
	DD	0efcba6H
	DD	0edcba6H
	DD	0e8caa8H
	DD	0e9c9a6H
	DD	0ebcba7H
	DD	0ebcba7H
	DD	0eccba8H
	DD	0eccba6H
	DD	0f3d6b2H
	DD	0f9e1bbH
	DD	0d2b794H
	DD	0b3977bH
	DD	0ad957cH
	DD	096816cH
	DD	0bb9e7fH
	DD	0a88871H
	DD	0473c44H
	DD	05c565eH
	DD	04c4447H
	DD	051515fH
	DD	0565569H
	DD	0463743H
	DD	07e7377H
	DD	0ddd0c2H
	DD	0af9273H
	DD	01442392dH
	DD	0d4000000H
	DD	0ffdededeH
	DD	0ffffffffH
	DD	0ffffffffH
	DD	0ffffffffH
	DD	0ffffffffH
	DD	0ffffffffH
	DD	0ffffffffH
	DD	0ffffffffH
	DD	0ffffffffH
	DD	0ffffffffH
	DD	0ffffffffH
	DD	07d7d7d7dH
	DD	0686464H
	DD	08e8989H
	DD	08a8585H
	DD	08a8585H
	DD	08a8585H
	DD	08a8585H
	DD	08a8585H
	DD	08a8585H
	DD	08a8585H
	DD	08a8585H
	DD	08a8585H
	DD	08a8585H
	DD	08a8585H
	DD	08a8585H
	DD	08a8585H
	DD	08a8585H
	DD	08a8585H
	DD	08a8585H
	DD	08a8585H
	DD	08a8585H
	DD	08a8585H
	DD	08a8585H
	DD	08b8686H
	DD	08c8787H
	DD	08a8585H
	DD	0837f7fH
	DD	0757171H
	DD	0626161H
	DD	04a4a4aH
	DD	0303232H
	DD	01e2121H
	DD	0181b1bH
	DD	0131616H
	DD	0101313H
	DD	0c1011H
	DD	057544bH
	DD	0d3c1a2H
	DD	0e7d2b2H
	DD	0feebc1H
	DD	0fde7bcH
	DD	0fae7c1H
	DD	0fae8c0H
	DD	0fae7c0H
	DD	0f7e6c1H
	DD	0f9e6c1H
	DD	0fae6c1H
	DD	0fbe8c1H
	DD	0fce9c1H
	DD	0fae4beH
	DD	0f8deb9H
	DD	0f8d8b2H
	DD	0f2d0abH
	DD	0e9c7a3H
	DD	0dfbd9bH
	DD	0cfaf93H
	DD	0c2a488H
	DD	0ba9d81H
	DD	0b4987cH
	DD	0ae9478H
	DD	0aa9175H
	DD	0a78f74H
	DD	0a58d72H
	DD	0a38a70H
	DD	09f876dH
	DD	09e866cH
	DD	09b8369H
	DD	0988065H
	DD	0967e64H
	DD	0927a61H
	DD	089765cH
	DD	0866e57H
	DD	0846f57H
	DD	0917963H
	DD	0a48c77H
	DD	08a7461H
	DD	0776256H
	DD	06e5c55H
	DD	06b5c52H
	DD	06a5b51H
	DD	06d5c54H
	DD	0635148H
	DD	0402d20H
	DD	02e180dH
	DD	0422d26H
	DD	0675951H
	DD	05f544dH
	DD	061544eH
	DD	060534fH
	DD	05f524eH
	DD	05e524dH
	DD	0554945H
	DD	0564a45H
	DD	0534642H
	DD	0554844H
	DD	04f423eH
	DD	04f433eH
	DD	04e433cH
	DD	051423bH
	DD	055423aH
	DD	0534039H
	DD	04e403eH
	DD	050423eH
	DD	0483a34H
	DD	031221aH
	DD	0352821H
	DD	04b3e39H
	DD	04c3f3aH
	DD	048392eH
	DD	05f4c3fH
	DD	0645145H
	DD	0645548H
	DD	0625249H
	DD	05f5650H
	DD	04c4942H
	DD	02f2922H
	DD	01f1b1cH
	DD	0755e57H
	DD	0958077H
	DD	08b8690H
	DD	0587191H
	DD	0657280H
	DD	0626062H
	DD	0294d62H
	DD	0386793H
	DD	0669ec9H
	DD	076a9e0H
	DD	073a2cfH
	DD	096969aH
	DD	0d0b296H
	DD	0d9bca2H
	DD	0d8c0a0H
	DD	0b3997bH
	DD	0b2977cH
	DD	0d8be9eH
	DD	0d6bc9dH
	DD	0d3b99cH
	DD	0b99f81H
	DD	0c7ad90H
	DD	0e8c9a7H
	DD	0e8c7a2H
	DD	0e7c8a3H
	DD	0e6c8a5H
	DD	0e7c7a5H
	DD	0e9c9a5H
	DD	0ebc9a5H
	DD	0ebcaa3H
	DD	0f4d8afH
	DD	0f8debaH
	DD	0d1b493H
	DD	0b09475H
	DD	0b09376H
	DD	0b3987dH
	DD	087715cH
	DD	0bda180H
	DD	07e675cH
	DD	04f4754H
	DD	06a5f66H
	DD	0584e4eH
	DD	05b5361H
	DD	0655e73H
	DD	04b424fH
	DD	0706879H
	DD	0c6baafH
	DD	0a78f6dH
	DD	015625645H
	DD	0d8000000H
	DD	0ffdededeH
	DD	0ffffffffH
	DD	0ffffffffH
	DD	0ffffffffH
	DD	0ffffffffH
	DD	0ffffffffH
	DD	0ffffffffH
	DD	0ffffffffH
	DD	0ffffffffH
	DD	0ffffffffH
	DD	0ffffffffH
	DD	07d7d7d7dH
	DD	0686464H
	DD	08e8989H
	DD	08a8585H
	DD	08a8585H
	DD	08a8585H
	DD	08a8585H
	DD	08a8585H
	DD	08a8585H
	DD	08a8585H
	DD	08a8585H
	DD	08a8585H
	DD	08a8585H
	DD	08a8585H
	DD	08a8585H
	DD	08a8585H
	DD	08a8585H
	DD	08a8585H
	DD	08a8585H
	DD	08b8686H
	DD	08c8787H
	DD	08c8787H
	DD	08b8686H
	DD	0848080H
	DD	0757272H
	DD	05f5c5cH
	DD	0484747H
	DD	0303131H
	DD	01e2020H
	DD	0151818H
	DD	0131515H
	DD	0111414H
	DD	0111414H
	DD	0151818H
	DD	0313435H
	DD	059534eH
	DD	09d8d7bH
	DD	080796eH
	DD	0464246H
	DD	0a69a82H
	DD	0fff0c8H
	DD	0fce7bfH
	DD	0fae6c0H
	DD	0fbe7c2H
	DD	0fae8c3H
	DD	0fce8c3H
	DD	0fce6c1H
	DD	0fce4bdH
	DD	0f9dfb7H
	DD	0f7d9b4H
	DD	0f2d1aeH
	DD	0e4c4a2H
	DD	0d5b595H
	DD	0c6a889H
	DD	0bc9e81H
	DD	0b7977dH
	DD	0b4977dH
	DD	0b0967cH
	DD	0ab9278H
	DD	0a89176H
	DD	0a78f74H
	DD	0a58d71H
	DD	0a48a6eH
	DD	0a0866bH
	DD	09c836aH
	DD	098816aH
	DD	0927e67H
	DD	08d7b62H
	DD	08a765eH
	DD	086725bH
	DD	089785fH
	DD	09a876aH
	DD	0b0977dH
	DD	0c0a589H
	DD	0a38976H
	DD	07a6253H
	DD	0746055H
	DD	06d5c55H
	DD	06d5c54H
	DD	06d5d54H
	DD	065544bH
	DD	0433024H
	DD	0362312H
	DD	03a2619H
	DD	06a5750H
	DD	064574fH
	DD	05a534bH
	DD	05c5954H
	DD	060615fH
	DD	059514eH
	DD	0594c48H
	DD	0564945H
	DD	0524541H
	DD	0524541H
	DD	0524540H
	DD	050433fH
	DD	0524640H
	DD	053443cH
	DD	04f413aH
	DD	04c3f37H
	DD	04c403bH
	DD	04e3f3eH
	DD	04a3d38H
	DD	0382a21H
	DD	0362820H
	DD	04a3d39H
	DD	04c3f3aH
	DD	0423531H
	DD	048362fH
	DD	05d4b42H
	DD	05f5149H
	DD	05b5047H
	DD	0574b42H
	DD	0464238H
	DD	023271dH
	DD	024241cH
	DD	06c5443H
	DD	0b9886bH
	DD	0ba8a65H
	DD	0bd8d6cH
	DD	0b48b6aH
	DD	0a6825cH
	DD	0976e49H
	DD	076593fH
	DD	0758ca4H
	DD	070ade7H
	DD	075a4d4H
	DD	098939cH
	DD	0d4b195H
	DD	0e0c19dH
	DD	0dabf9eH
	DD	0dec29dH
	DD	0c6aa8cH
	DD	0ccae96H
	DD	0dcc3a1H
	DD	0dec2a0H
	DD	0dec0a0H
	DD	0ddbf9fH
	DD	0e4c6a6H
	DD	0e8c8a6H
	DD	0e7c8a5H
	DD	0e6c8a5H
	DD	0e7c8a5H
	DD	0e7c8a7H
	DD	0e9c9a6H
	DD	0ecc9a4H
	DD	0f2d3acH
	DD	0edd4aeH
	DD	0c8ad89H
	DD	0aa8c6fH
	DD	0a88d74H
	DD	0ab9175H
	DD	0ab9377H
	DD	0857260H
	DD	0b69e82H
	DD	061514cH
	DD	06a5f6aH
	DD	073666dH
	DD	0595250H
	DD	0594f5cH
	DD	07a7184H
	DD	059535dH
	DD	0443e50H
	DD	0a59083H
	DD	0a98f6cH
	DD	0a536f87H
	DD	0bc0b1f31H
	DD	0ffa5b8c9H
	DD	0ffffffffH
	DD	0ffffffffH
	DD	0ffffffffH
	DD	0ffffffffH
	DD	0ffffffffH
	DD	0ffffffffH
	DD	0ffffffffH
	DD	0ffffffffH
	DD	0ffffffffH
	DD	0ffffffffH
	DD	07d7d7d7dH
	DD	0686464H
	DD	08e8989H
	DD	08a8585H
	DD	08a8585H
	DD	08a8585H
	DD	08a8585H
	DD	08a8585H
	DD	08a8585H
	DD	08a8585H
	DD	08a8585H
	DD	08a8585H
	DD	08a8585H
	DD	08a8585H
	DD	08a8585H
	DD	08a8585H
	DD	08b8686H
	DD	08b8787H
	DD	08c8787H
	DD	0898585H
	DD	0817d7dH
	DD	0726f6fH
	DD	05a5858H
	DD	0404040H
	DD	02d2e2fH
	DD	01c1e1fH
	DD	0151818H
	DD	0121515H
	DD	0111515H
	DD	0131616H
	DD	0191c1cH
	DD	0323434H
	DD	05c5d5dH
	DD	0929393H
	DD	084807bH
	DD	0776c60H
	DD	0737572H
	DD	07a7f7fH
	DD	0818288H
	DD	06e6a5aH
	DD	0f9e7c2H
	DD	0fee8c0H
	DD	0fbe6c0H
	DD	0fde7c2H
	DD	0fde8c3H
	DD	0fbe3bfH
	DD	0f9deb9H
	DD	0f8dbb6H
	DD	0f0d2afH
	DD	0e0c29fH
	DD	0ceb08dH
	DD	0bfa386H
	DD	0b99d81H
	DD	0b49b80H
	DD	0b19980H
	DD	0b4977cH
	DD	0b0967aH
	DD	0ab9478H
	DD	0a89075H
	DD	0a78e73H
	DD	0a58d71H
	DD	0a38a6eH
	DD	0a0876cH
	DD	09b836bH
	DD	0977f69H
	DD	0937e68H
	DD	08e7a62H
	DD	08e7a61H
	DD	098846cH
	DD	0a5927cH
	DD	0b8a28aH
	DD	0c3ac88H
	DD	0b0a18eH
	DD	0908c90H
	DD	0786459H
	DD	0766054H
	DD	0715d53H
	DD	06e5c53H
	DD	06d5d54H
	DD	06e5d55H
	DD	0432f26H
	DD	0392517H
	DD	0362312H
	DD	05d4c40H
	DD	06a5952H
	DD	067544dH
	DD	063524cH
	DD	05a504cH
	DD	05a5654H
	DD	05a514dH
	DD	0544743H
	DD	0534642H
	DD	04e413cH
	DD	04b3f3aH
	DD	04f423eH
	DD	050433fH
	DD	0524440H
	DD	052403cH
	DD	04b3d39H
	DD	049423dH
	DD	047403cH
	DD	04a3c3aH
	DD	0433430H
	DD	035271eH
	DD	0443830H
	DD	04b3e3aH
	DD	041342fH
	DD	03f322dH
	DD	042342eH
	DD	0554841H
	DD	04f453eH
	DD	0474138H
	DD	0362d2eH
	DD	029211aH
	DD	0312b1eH
	DD	03d3530H
	DD	078543fH
	DD	0784b30H
	DD	05c3c22H
	DD	053331cH
	DD	04e2e12H
	DD	0522d0fH
	DD	0462815H
	DD	0382214H
	DD	04d738eH
	DD	073a8dfH
	DD	096909eH
	DD	0ccac93H
	DD	0dfbf9dH
	DD	0d9bc9fH
	DD	0ddbf9eH
	DD	0e3c39dH
	DD	0e4c6a5H
	DD	0e3c5a5H
	DD	0e1c4a1H
	DD	0e5c5a3H
	DD	0e6c4a4H
	DD	0e7c6a4H
	DD	0e7c6a5H
	DD	0e7c6a6H
	DD	0e6c6a6H
	DD	0e8c8a7H
	DD	0e8c8a8H
	DD	0e8c9a8H
	DD	0ebcba8H
	DD	0f3d1acH
	DD	0efcfa9H
	DD	0d1b491H
	DD	0c1a382H
	DD	0c0a588H
	DD	0c5a98cH
	DD	0c9aa89H
	DD	0c4a787H
	DD	09d856cH
	DD	0a8927bH
	DD	05b4f4eH
	DD	06c5e66H
	DD	0756973H
	DD	0615959H
	DD	0736d72H
	DD	09c96a2H
	DD	066626eH
	DD	02f272cH
	DD	0897766H
	DD	0545f6cH
	DD	03476b6H
	DD	0762b6ba4H
	DD	0ff6e9ec9H
	DD	0ffffffffH
	DD	0ffffffffH
	DD	0ffffffffH
	DD	0ffffffffH
	DD	0ffffffffH
	DD	0ffffffffH
	DD	0ffffffffH
	DD	0ffffffffH
	DD	0ffffffffH
	DD	0ffffffffH
	DD	07d7d7d7dH
	DD	0686464H
	DD	08e8989H
	DD	08a8585H
	DD	08a8585H
	DD	08a8585H
	DD	08a8585H
	DD	08a8585H
	DD	08a8585H
	DD	08a8585H
	DD	08a8585H
	DD	08a8585H
	DD	08a8585H
	DD	08b8686H
	DD	08c8787H
	DD	08c8787H
	DD	0898484H
	DD	07f7b7bH
	DD	06f6c6cH
	DD	0585757H
	DD	03b3b3bH
	DD	0292a2aH
	DD	01c1f1fH
	DD	0131616H
	DD	0111414H
	DD	0101313H
	DD	0131616H
	DD	01b1e1eH
	DD	0313333H
	DD	0656666H
	DD	09a9a9bH
	DD	0c5c5c5H
	DD	0eeeeeeH
	DD	0bbb8b5H
	DD	0645d56H
	DD	0757676H
	DD	0777c7cH
	DD	08f908bH
	DD	0aeaaaaH
	DD	06c6d60H
	DD	0ebdab9H
	DD	0ffeac1H
	DD	0fbe8c0H
	DD	0fce5c0H
	DD	0fadfbaH
	DD	0fadcb7H
	DD	0f5d5b0H
	DD	0dfc19fH
	DD	0c8ac8aH
	DD	0bca382H
	DD	0b89f80H
	DD	0bc9f81H
	DD	0b89c7fH
	DD	0b49a7fH
	DD	0b0987eH
	DD	0ae9379H
	DD	0aa9276H
	DD	0a69074H
	DD	0a38d73H
	DD	0a48b6fH
	DD	0a28a6eH
	DD	0a0876bH
	DD	09b8369H
	DD	0967f68H
	DD	0917c66H
	DD	08b7764H
	DD	09e876eH
	DD	0bea589H
	DD	0c4ad92H
	DD	0cab193H
	DD	0c9ac8dH
	DD	09a9b94H
	DD	0698fafH
	DD	0666978H
	DD	06b5750H
	DD	06d5c53H
	DD	0705e53H
	DD	0705d52H
	DD	06e5e55H
	DD	057443bH
	DD	0362216H
	DD	0352214H
	DD	04c3b2cH
	DD	069594fH
	DD	065534bH
	DD	0625049H
	DD	05f4e47H
	DD	05c4a46H
	DD	0584644H
	DD	0554744H
	DD	0554945H
	DD	04f433eH
	DD	04d403cH
	DD	050433fH
	DD	0514641H
	DD	051443fH
	DD	04c403bH
	DD	0342c29H
	DD	03a302dH
	DD	0473b38H
	DD	0493b39H
	DD	0453734H
	DD	03b2c27H
	DD	041332bH
	DD	0473a33H
	DD	0433530H
	DD	03f312cH
	DD	03c2d29H
	DD	0322722H
	DD	0322b26H
	DD	02f2a24H
	DD	0282620H
	DD	02b2422H
	DD	0363028H
	DD	03b3f3eH
	DD	03d4f63H
	DD	0294059H
	DD	0292c2fH
	DD	0241c12H
	DD	02e1619H
	DD	02d2730H
	DD	0283343H
	DD	02e4162H
	DD	03e597aH
	DD	07090b1H
	DD	0959796H
	DD	0c5a98eH
	DD	0dbbd9bH
	DD	0d5b99bH
	DD	0d6b89cH
	DD	0d5bc9bH
	DD	0d7bd9bH
	DD	0d9be9cH
	DD	0d9bd9bH
	DD	0d8bc9bH
	DD	0dbbc9eH
	DD	0dbbc9fH
	DD	0dbbb9eH
	DD	0dbbb9dH
	DD	0ddbc9cH
	DD	0debc9dH
	DD	0e1bfa0H
	DD	0e5c5a4H
	DD	0e7c8a6H
	DD	0ebcba7H
	DD	0efcda8H
	DD	0ecc9a3H
	DD	0e6c39fH
	DD	0e1c09dH
	DD	0daba97H
	DD	0d0b291H
	DD	0cbac8bH
	DD	0caab8cH
	DD	0a88f77H
	DD	086735fH
	DD	0554d51H
	DD	0827479H
	DD	0726974H
	DD	0534a4cH
	DD	0afaaacH
	DD	0c8c5cbH
	DD	0776f79H
	DD	01a1523H
	DD	0244d6eH
	DD	01f5692H
	DD	03672b3H
	DD	02e052b55H
	DD	0f0556e8bH
	DD	0ffffffffH
	DD	0ffffffffH
	DD	0ffffffffH
	DD	0ffffffffH
	DD	0ffffffffH
	DD	0ffffffffH
	DD	0ffffffffH
	DD	0ffffffffH
	DD	0ffffffffH
	DD	0ffffffffH
	DD	07d7d7d7dH
	DD	0686464H
	DD	08e8989H
	DD	08a8585H
	DD	08a8585H
	DD	08a8585H
	DD	08a8585H
	DD	08a8585H
	DD	08a8585H
	DD	08a8585H
	DD	08b8686H
	DD	08c8787H
	DD	08b8787H
	DD	0868282H
	DD	07b7777H
	DD	06a6767H
	DD	0545252H
	DD	0393939H
	DD	0242626H
	DD	01c1e1eH
	DD	0141717H
	DD	0111414H
	DD	0f1212H
	DD	0131616H
	DD	0252727H
	DD	03f4141H
	DD	06c6d6dH
	DD	0a4a5a5H
	DD	0ccccccH
	DD	0eeeeeeH
	DD	0fefefeH
	DD	0ffffffH
	DD	0d9d9d9H
	DD	0666563H
	DD	0757473H
	DD	0767a7cH
	DD	07f8180H
	DD	08f8989H
	DD	0908480H
	DD	0686254H
	DD	0eedebaH
	DD	0ffebbeH
	DD	0fce2b9H
	DD	0f8d8b5H
	DD	0edcfabH
	DD	0e0c2a0H
	DD	0cdb08eH
	DD	0c1a385H
	DD	0bfa184H
	DD	0bda083H
	DD	0bb9e82H
	DD	0b99c80H
	DD	0b6997eH
	DD	0b5977cH
	DD	0b1957aH
	DD	0ab9278H
	DD	0a99076H
	DD	0a68d74H
	DD	0a38b72H
	DD	09f896eH
	DD	09c866bH
	DD	09b8468H
	DD	0957f67H
	DD	08d7b64H
	DD	0897a60H
	DD	072644fH
	DD	07c6651H
	DD	0c9b198H
	DD	0d7ba96H
	DD	0c2ae93H
	DD	08c98a0H
	DD	0588bbdH
	DD	04f759aH
	DD	0554c42H
	DD	0594838H
	DD	0584c41H
	DD	05d5248H
	DD	064594dH
	DD	05f5348H
	DD	0382319H
	DD	0362317H
	DD	03a301fH
	DD	0635649H
	DD	0685250H
	DD	0644f4dH
	DD	05c4e47H
	DD	0594c44H
	DD	0594b43H
	DD	0564840H
	DD	0554943H
	DD	0524641H
	DD	04f433dH
	DD	0534641H
	DD	0564841H
	DD	0554840H
	DD	04f423eH
	DD	0392e2bH
	DD	0221d1cH
	DD	0302a2aH
	DD	0362f30H
	DD	0342c2aH
	DD	03f312bH
	DD	03e302aH
	DD	0473a32H
	DD	043352eH
	DD	03e322eH
	DD	03a2d2aH
	DD	0362a26H
	DD	02e2420H
	DD	0292321H
	DD	02a2524H
	DD	0363231H
	DD	0374045H
	DD	02d4a5dH
	DD	0204c71H
	DD	0134473H
	DD	014497bH
	DD	0162e44H
	DD	090101H
	DD	01b1921H
	DD	0839bb5H
	DD	093b1cbH
	DD	09eb7caH
	DD	0b1b9c0H
	DD	0c1aa9fH
	DD	0d0b399H
	DD	0dfc19dH
	DD	0dabd9bH
	DD	0d7ba9bH
	DD	0d6ba99H
	DD	0d5bb9aH
	DD	0d6bc9cH
	DD	0d8bb9bH
	DD	0d8bc9cH
	DD	0d9bd9eH
	DD	0dbbf9eH
	DD	0ddc0a0H
	DD	0e0c3a3H
	DD	0e2c5a5H
	DD	0e9c9a5H
	DD	0eac9a5H
	DD	0eac9a5H
	DD	0e8c7a3H
	DD	0e3c29fH
	DD	0d9b998H
	DD	0ceb091H
	DD	0c5a889H
	DD	0bda183H
	DD	0b69a7cH
	DD	0b19676H
	DD	0ac9276H
	DD	0a99077H
	DD	0a89074H
	DD	0ab9475H
	DD	06b5e51H
	DD	04e4952H
	DD	0a18d85H
	DD	0635b5bH
	DD	03b3a38H
	DD	0c4c3c4H
	DD	0e3e0e5H
	DD	0796c72H
	DD	0140d20H
	DD	0165085H
	DD	02b659eH
	DD	0192d44H
	DD	090a0300H
	DD	0e2555150H
	DD	0ffffffffH
	DD	0ffffffffH
	DD	0ffffffffH
	DD	0ffffffffH
	DD	0ffffffffH
	DD	0ffffffffH
	DD	0ffffffffH
	DD	0ffffffffH
	DD	0ffffffffH
	DD	0ffffffffH
	DD	07d7d7d7dH
	DD	0686464H
	DD	08e8989H
	DD	08a8585H
	DD	08a8585H
	DD	08a8585H
	DD	08b8686H
	DD	08c8686H
	DD	08d8888H
	DD	08b8686H
	DD	0878282H
	DD	07a7575H
	DD	0666363H
	DD	0504e4eH
	DD	0373838H
	DD	0212223H
	DD	0161919H
	DD	0131616H
	DD	0101313H
	DD	0e1111H
	DD	0111313H
	DD	0252727H
	DD	0464848H
	DD	0707171H
	DD	0a4a4a4H
	DD	0d5d5d5H
	DD	0f3f3f3H
	DD	0ffffffH
	DD	0ffffffH
	DD	0ffffffH
	DD	0ffffffH
	DD	0fbfbfbH
	DD	0808081H
	DD	06d6d6eH
	DD	0777878H
	DD	0797a79H
	DD	088837bH
	DD	099908dH
	DD	06f686aH
	DD	06c6453H
	DD	0fce8bfH
	DD	0fcdfb2H
	DD	0f5d4aaH
	DD	0e6c5a1H
	DD	0d1b490H
	DD	0c3a685H
	DD	0bfa383H
	DD	0bea184H
	DD	0bc9f83H
	DD	0bb9d81H
	DD	0b99c7fH
	DD	0b4987dH
	DD	0b2967bH
	DD	0b09479H
	DD	0ae9277H
	DD	0a88f76H
	DD	0a68d74H
	DD	0a48a71H
	DD	0a1896fH
	DD	099856cH
	DD	0968168H
	DD	0947f65H
	DD	08e7a62H
	DD	088765eH
	DD	084745cH
	DD	06b5c47H
	DD	03d3124H
	DD	0bba485H
	DD	0c9b39bH
	DD	07b93adH
	DD	05690c1H
	DD	0558ec1H
	DD	0507dacH
	DD	055789fH
	DD	057687dH
	DD	054555aH
	DD	0524a43H
	DD	055483cH
	DD	0402d20H
	DD	01c0a08H
	DD	0311e16H
	DD	05d4e3fH
	DD	0645449H
	DD	0654e4aH
	DD	05e4f49H
	DD	0594e46H
	DD	0584a44H
	DD	0564842H
	DD	0564943H
	DD	0564940H
	DD	052453bH
	DD	0564940H
	DD	0594c42H
	DD	0554941H
	DD	04f443fH
	DD	04b4240H
	DD	02f2727H
	DD	0251b1eH
	DD	02a2225H
	DD	0292126H
	DD	0292124H
	DD	0352a25H
	DD	03e342dH
	DD	042352dH
	DD	03b312bH
	DD	02f2d2bH
	DD	02c2b2bH
	DD	02c2d30H
	DD	02e3335H
	DD	0323b44H
	DD	037485bH
	DD	03d566fH
	DD	0405f79H
	DD	049677eH
	DD	0617381H
	DD	0818685H
	DD	0a4a39bH
	DD	06f6460H
	DD	0d020cH
	DD	0332a30H
	DD	0d7bda1H
	DD	0e1c6a9H
	DD	0e2c3a0H
	DD	0e7c49dH
	DD	0e4c4a2H
	DD	0e4c5a3H
	DD	0e1c39fH
	DD	0e0c39fH
	DD	0ddc1a1H
	DD	0dcc09fH
	DD	0ddc2a1H
	DD	0e1c4a3H
	DD	0e5c7a4H
	DD	0e7c9a7H
	DD	0e9ccaaH
	DD	0edcea8H
	DD	0eccca6H
	DD	0e9c9a3H
	DD	0e1c29cH
	DD	0d5b999H
	DD	0cbaf91H
	DD	0c2a787H
	DD	0ba9e7eH
	DD	0b29677H
	DD	0ac9173H
	DD	0a78e71H
	DD	0a38c71H
	DD	09f8970H
	DD	0a48e75H
	DD	0a08a71H
	DD	09e876cH
	DD	0a58c72H
	DD	0ac9578H
	DD	0b79f7eH
	DD	05d4d45H
	DD	0655862H
	DD	0ae9088H
	DD	0947f7fH
	DD	0746b64H
	DD	0e1dad7H
	DD	0d5cbceH
	DD	0655355H
	DD	0f192cH
	DD	0225f94H
	DD	0182e4bH
	DD	050102H
	DD	07e060603H
	DD	0ff7e7e7cH
	DD	0ffffffffH
	DD	0ffffffffH
	DD	0ffffffffH
	DD	0ffffffffH
	DD	0ffffffffH
	DD	0ffffffffH
	DD	0ffffffffH
	DD	0ffffffffH
	DD	0ffffffffH
	DD	0ffffffffH
	DD	07d7d7d7dH
	DD	0686464H
	DD	08e8989H
	DD	08b8686H
	DD	08b8686H
	DD	08b8686H
	DD	08a8585H
	DD	0848080H
	DD	0777373H
	DD	0615e5eH
	DD	04b4949H
	DD	0353535H
	DD	0212424H
	DD	0161919H
	DD	0141717H
	DD	0121515H
	DD	0131616H
	DD	0161919H
	DD	0282b2bH
	DD	04c4e4eH
	DD	07a7b7bH
	DD	0adaeaeH
	DD	0ddddddH
	DD	0f6f6f6H
	DD	0ffffffH
	DD	0ffffffH
	DD	0ffffffH
	DD	0ffffffH
	DD	0ffffffH
	DD	0ffffffH
	DD	0fbfbfbH
	DD	0a0a0a0H
	DD	0666565H
	DD	07a797aH
	DD	0757676H
	DD	0797876H
	DD	0837871H
	DD	0958b88H
	DD	0706f70H
	DD	098876eH
	DD	0ffe6bdH
	DD	0f3d0a8H
	DD	0dfc099H
	DD	0cdae8aH
	DD	0c2a684H
	DD	0bfa382H
	DD	0bba082H
	DD	0b79d80H
	DD	0b59b7eH
	DD	0b59a7dH
	DD	0b4987cH
	DD	0af967aH
	DD	0ad9378H
	DD	0aa9176H
	DD	0a88f74H
	DD	0a68d73H
	DD	0a38a71H
	DD	0a0876dH
	DD	09c846bH
	DD	094806aH
	DD	0917d66H
	DD	08d7962H
	DD	089765eH
	DD	085715cH
	DD	07d6a5aH
	DD	05c4b39H
	DD	0674f38H
	DD	0b1a097H
	DD	06e93b9H
	DD	05a97cdH
	DD	06aa3d4H
	DD	075aee1H
	DD	07ab3e7H
	DD	075b2edH
	DD	071b1f1H
	DD	070abe5H
	DD	071a0ceH
	DD	0617890H
	DD	031231eH
	DD	01a181fH
	DD	0363234H
	DD	0554741H
	DD	04f433dH
	DD	058463cH
	DD	053473fH
	DD	0504741H
	DD	04d423dH
	DD	04f4441H
	DD	0524843H
	DD	04c413bH
	DD	04d443dH
	DD	04e463eH
	DD	04c443cH
	DD	0463f3aH
	DD	0403a36H
	DD	0383533H
	DD	02f2d2dH
	DD	0322c2cH
	DD	0352d2cH
	DD	0372e2cH
	DD	02f2725H
	DD	0312d2aH
	DD	03a3838H
	DD	03d3c3eH
	DD	03e434bH
	DD	046515cH
	DD	05e6267H
	DD	0777775H
	DD	0888885H
	DD	0979790H
	DD	0aba395H
	DD	0baae9bH
	DD	0cfbb9fH
	DD	0dfc3a0H
	DD	0e7c8a1H
	DD	0eacaa2H
	DD	0fad7adH
	DD	092765fH
	DD	04H
	DD	03e3534H
	DD	0ddc09fH
	DD	0e5c5a2H
	DD	0e2c2a0H
	DD	0dfc1a1H
	DD	0dec2a0H
	DD	0dec2a1H
	DD	0ddc1a2H
	DD	0e0c3a3H
	DD	0e5c7a5H
	DD	0e9cba9H
	DD	0eaceabH
	DD	0eccbabH
	DD	0eac6a8H
	DD	0e5c1a1H
	DD	0deba98H
	DD	0cdb192H
	DD	0c0a687H
	DD	0b89e7eH
	DD	0b19676H
	DD	0a99276H
	DD	0a79174H
	DD	0a79074H
	DD	0a79175H
	DD	0a18e74H
	DD	0988367H
	DD	0a38d70H
	DD	0a99276H
	DD	09b866bH
	DD	0a89278H
	DD	09f896fH
	DD	09f886cH
	DD	0ab9377H
	DD	0b29a80H
	DD	0b1977aH
	DD	04b3b37H
	DD	0625761H
	DD	08b7874H
	DD	0504a4dH
	DD	08b7975H
	DD	0e1d3ceH
	DD	0a19394H
	DD	0473437H
	DD	0142e47H
	DD	0173850H
	DD	0130b0cH
	DD	0111b1818H
	DD	0d0000000H
	DD	0ffdcdcdcH
	DD	0ffffffffH
	DD	0ffffffffH
	DD	0ffffffffH
	DD	0ffffffffH
	DD	0ffffffffH
	DD	0ffffffffH
	DD	0ffffffffH
	DD	0ffffffffH
	DD	0ffffffffH
	DD	0ffffffffH
	DD	07d7d7d7dH
	DD	0696565H
	DD	0908b8bH
	DD	08a8585H
	DD	0827d7dH
	DD	0747171H
	DD	05d5c5cH
	DD	0424242H
	DD	02d2e2eH
	DD	01d2020H
	DD	0141717H
	DD	0111414H
	DD	0101313H
	DD	0111414H
	DD	0181b1bH
	DD	02b2d2dH
	DD	0565858H
	DD	08b8c8cH
	DD	0babbbbH
	DD	0e0e0e0H
	DD	0fbfbfbH
	DD	0ffffffH
	DD	0ffffffH
	DD	0ffffffH
	DD	0ffffffH
	DD	0ffffffH
	DD	0ffffffH
	DD	0f5f5f5H
	DD	0dededeH
	DD	0b2b3b3H
	DD	07b7c7cH
	DD	05b5c5aH
	DD	0767676H
	DD	0737373H
	DD	0767676H
	DD	06e6c6dH
	DD	0827978H
	DD	0847a79H
	DD	0898582H
	DD	0e0caa7H
	DD	0f8d4afH
	DD	0ddb999H
	DD	0c5aa8aH
	DD	0c0a382H
	DD	0bfa382H
	DD	0baa081H
	DD	0b69d80H
	DD	0b49b7eH
	DD	0b2997cH
	DD	0b0987aH
	DD	0af9678H
	DD	0aa9377H
	DD	0a89175H
	DD	0a68e72H
	DD	0a38c70H
	DD	0a2896fH
	DD	09f876dH
	DD	09c846aH
	DD	0968067H
	DD	08e7c67H
	DD	08b7862H
	DD	088745cH
	DD	0857159H
	DD	07b6856H
	DD	0695548H
	DD	074614aH
	DD	0949694H
	DD	06899cfH
	DD	06699cfH
	DD	076828fH
	DD	0738394H
	DD	07fb2e5H
	DD	081c2f8H
	DD	07fc2f5H
	DD	07ec0f7H
	DD	080c1f8H
	DD	081c5ffH
	DD	079b6ebH
	DD	05d88b2H
	DD	073b0e2H
	DD	0689ed1H
	DD	05c7fa4H
	DD	04e6981H
	DD	04a5660H
	DD	04c4649H
	DD	04b3e40H
	DD	0433936H
	DD	0493c36H
	DD	0453731H
	DD	03a3432H
	DD	0373330H
	DD	036322eH
	DD	0322f2dH
	DD	0312c2aH
	DD	02f2d2eH
	DD	02b2e35H
	DD	02d353cH
	DD	0283946H
	DD	0213c53H
	DD	01f3f5dH
	DD	0304e6cH
	DD	05a6f87H
	DD	0828c96H
	DD	09c9b98H
	DD	0bbaea1H
	DD	0d2bba7H
	DD	0dcc2a9H
	DD	0e4c7aaH
	DD	0e8c9a9H
	DD	0e8c8a8H
	DD	0e6c6a5H
	DD	0e5c4a3H
	DD	0e1c5a4H
	DD	0e3c4a1H
	DD	0e1c3a0H
	DD	0d7c0a4H
	DD	0e9ccacH
	DD	089735dH
	DD	00H
	DD	0413929H
	DD	0d7c0a1H
	DD	0e2c5a1H
	DD	0e1c49eH
	DD	0dfc4a2H
	DD	0e1c5a5H
	DD	0e5c6a6H
	DD	0e9c5a4H
	DD	0e6c4a1H
	DD	0dfc09dH
	DD	0d9ba96H
	DD	0d2b28dH
	DD	0c3a888H
	DD	0b59d81H
	DD	0ad9477H
	DD	0a68d6fH
	DD	0a38b6dH
	DD	0a38b6eH
	DD	0a78f72H
	DD	0a99175H
	DD	0a99275H
	DD	0a99376H
	DD	0aa9376H
	DD	0a89377H
	DD	09f8e73H
	DD	09e886bH
	DD	0ae9777H
	DD	0b09677H
	DD	0a88d71H
	DD	0b1987cH
	DD	0a99071H
	DD	0ac9473H
	DD	0b49c7bH
	DD	0bb9f81H
	DD	0aa8d73H
	DD	039302eH
	DD	0504851H
	DD	0857675H
	DD	04c4649H
	DD	09b867bH
	DD	0cbb4beH
	DD	0837081H
	DD	029211fH
	DD	0b1015H
	DD	0c0d0dH
	DD	0302c30H
	DD	013373837H
	DD	0d0020202H
	DD	0ffdededeH
	DD	0ffffffffH
	DD	0ffffffffH
	DD	0ffffffffH
	DD	0ffffffffH
	DD	0ffffffffH
	DD	0ffffffffH
	DD	0ffffffffH
	DD	0ffffffffH
	DD	0ffffffffH
	DD	0ffffffffH
	DD	07d7e7e7eH
	DD	0605c5cH
	DD	0757171H
	DD	05d5b5bH
	DD	0424141H
	DD	02b2d2dH
	DD	01f2222H
	DD	0161919H
	DD	0111414H
	DD	0f1212H
	DD	0101313H
	DD	01e2020H
	DD	0303232H
	DD	05a5c5cH
	DD	08f8f8fH
	DD	0bbbbbbH
	DD	0dfe0e0H
	DD	0f8f8f8H
	DD	0ffffffH
	DD	0ffffffH
	DD	0ffffffH
	DD	0ffffffH
	DD	0ffffffH
	DD	0ffffffH
	DD	0f7f8f8H
	DD	0dededeH
	DD	0b7b8b8H
	DD	07e7f7fH
	DD	04c4e4eH
	DD	02a2d2eH
	DD	0353737H
	DD	06e6e6eH
	DD	0737373H
	DD	0757575H
	DD	0747575H
	DD	071706fH
	DD	078726fH
	DD	08d8b8eH
	DD	0aea194H
	DD	0f3d4afH
	DD	0d7ba97H
	DD	0c5a887H
	DD	0bea383H
	DD	0baa183H
	DD	0b89f82H
	DD	0b69d80H
	DD	0b49c7fH
	DD	0b1997dH
	DD	0af977cH
	DD	0ad9479H
	DD	0ab9277H
	DD	0a69074H
	DD	0a48f72H
	DD	0a38c70H
	DD	09f896dH
	DD	09a866eH
	DD	096826aH
	DD	0937f67H
	DD	0907b64H
	DD	08b7760H
	DD	087735aH
	DD	0836e55H
	DD	078654eH
	DD	0695b48H
	DD	095775eH
	DD	0969ca3H
	DD	06aa6dbH
	DD	06a9bc4H
	DD	070777eH
	DD	07e828dH
	DD	081add9H
	DD	085bdf6H
	DD	082bff7H
	DD	07fc2f4H
	DD	083c2f4H
	DD	086c4f6H
	DD	085c4f5H
	DD	086c6f8H
	DD	088cbffH
	DD	081c4fbH
	DD	082c2fdH
	DD	07fbffdH
	DD	06eb4f6H
	DD	05da2e5H
	DD	04f8dc7H
	DD	05181b2H
	DD	0507da4H
	DD	0436e8dH
	DD	03b5d7dH
	DD	0375978H
	DD	034546fH
	DD	035546dH
	DD	0325576H
	DD	0335880H
	DD	0335f88H
	DD	02f6198H
	DD	03069a1H
	DD	04073a6H
	DD	06588a9H
	DD	098a0a5H
	DD	0c4b8a7H
	DD	0dfc7aaH
	DD	0e7cdadH
	DD	0ebcdabH
	DD	0efceaaH
	DD	0f0cdaaH
	DD	0eecca9H
	DD	0eccba9H
	DD	0eacaa9H
	DD	0e9cbabH
	DD	0ebccabH
	DD	0eecfadH
	DD	0eccea9H
	DD	0e7c9a4H
	DD	0e6c8a5H
	DD	0ebcdacH
	DD	0dec4a4H
	DD	06e5f4dH
	DD	041372bH
	DD	08e7a62H
	DD	0e5c8a6H
	DD	0e3c6a3H
	DD	0e3c6a3H
	DD	0e0c3a1H
	DD	0dabd9dH
	DD	0d2b393H
	DD	0caa988H
	DD	0bb9f81H
	DD	0af977bH
	DD	0aa9175H
	DD	0a99073H
	DD	0a89074H
	DD	0a58d72H
	DD	09a8266H
	DD	09a8367H
	DD	0a0886cH
	DD	0a58c70H
	DD	0a99175H
	DD	0aa9275H
	DD	0ab9176H
	DD	0ac9177H
	DD	0ac9177H
	DD	0ab9277H
	DD	0a49072H
	DD	0a68d71H
	DD	0b0977bH
	DD	0ae9477H
	DD	0a78e75H
	DD	0b2977cH
	DD	0a98e72H
	DD	0af9071H
	DD	0a48d74H
	DD	0847e74H
	DD	044596cH
	DD	01a1a29H
	DD	060525dH
	DD	0625458H
	DD	070635bH
	DD	0d0aa9cH
	DD	0ae8e9fH
	DD	06e5765H
	DD	0231e1fH
	DD	0141313H
	DD	01f1f1eH
	DD	028292aH
	DD	0a262626H
	DD	0b5191919H
	DD	0ffe0e0e0H
	DD	0ffffffffH
	DD	0ffffffffH
	DD	0ffffffffH
	DD	0ffffffffH
	DD	0ffffffffH
	DD	0ffffffffH
	DD	0ffffffffH
	DD	0ffffffffH
	DD	0ffffffffH
	DD	0ffffffffH
	DD	07d7e7e7eH
	DD	0242424H
	DD	0272828H
	DD	01a1d1dH
	DD	0151818H
	DD	0121515H
	DD	0f1313H
	DD	0111414H
	DD	0222525H
	DD	03f4242H
	DD	0626363H
	DD	0999a9aH
	DD	0cbccccH
	DD	0edededH
	DD	0fefefeH
	DD	0ffffffH
	DD	0ffffffH
	DD	0ffffffH
	DD	0ffffffH
	DD	0ffffffH
	DD	0fefefeH
	DD	0f2f2f2H
	DD	0d4d5d5H
	DD	0acadadH
	DD	07b7d7dH
	DD	0454747H
	DD	0232626H
	DD	0161919H
	DD	0d1010H
	DD	0161919H
	DD	05a5a5aH
	DD	0767676H
	DD	06f6f6fH
	DD	0777777H
	DD	0757575H
	DD	0656463H
	DD	0656568H
	DD	0a19a96H
	DD	0dfc09fH
	DD	0d9bb98H
	DD	0c2a785H
	DD	0bca07fH
	DD	0baa082H
	DD	0b79e81H
	DD	0b49b7eH
	DD	0b49b7eH
	DD	0b29a7cH
	DD	0ae967aH
	DD	0ab9378H
	DD	0a99176H
	DD	0a78f74H
	DD	0a28c71H
	DD	0a08a70H
	DD	09f896eH
	DD	09a856aH
	DD	096826aH
	DD	0917e66H
	DD	08d7962H
	DD	089765dH
	DD	0826e57H
	DD	07a6751H
	DD	072624eH
	DD	07a6752H
	DD	0ad9276H
	DD	0a0a6b2H
	DD	06babdeH
	DD	06e97bcH
	DD	0787874H
	DD	07d96a9H
	DD	082bdf3H
	DD	083c3f9H
	DD	082c0f6H
	DD	082bef5H
	DD	084c1f5H
	DD	083c4f6H
	DD	084c6f8H
	DD	084c5f7H
	DD	085c5f7H
	DD	088c4f7H
	DD	086c1f6H
	DD	081c1f9H
	DD	07fc2fbH
	DD	07bbef7H
	DD	077bffcH
	DD	06cb8faH
	DD	062aff3H
	DD	060a8eeH
	DD	05aa4e4H
	DD	0599fdcH
	DD	05496dbH
	DD	05293d4H
	DD	05192d4H
	DD	05191d3H
	DD	0498fd0H
	DD	0488fc9H
	DD	0719ac1H
	DD	0aeb2b6H
	DD	0dbc6b0H
	DD	0f2d2b1H
	DD	0f8d5afH
	DD	0f3d3b1H
	DD	0f1d2afH
	DD	0efd1aeH
	DD	0eed1aeH
	DD	0efd1aeH
	DD	0f1d1afH
	DD	0f1d1afH
	DD	0f1d1afH
	DD	0f3d3b0H
	DD	0f6d6b4H
	DD	0f7d7b5H
	DD	0f6d6b4H
	DD	0f4d5b1H
	DD	0f3d4afH
	DD	0f2d4b0H
	DD	0efd0adH
	DD	0b39c82H
	DD	0685a49H
	DD	0786854H
	DD	0cbb295H
	DD	0d5b999H
	DD	0c9ae8dH
	DD	0c6aa88H
	DD	0b99e7dH
	DD	0ae9579H
	DD	0a88f73H
	DD	0a68e72H
	DD	0a78f73H
	DD	0a78f74H
	DD	0a99175H
	DD	0a99176H
	DD	0aa9177H
	DD	0a38a6fH
	DD	09f866aH
	DD	0a48c70H
	DD	0a78e72H
	DD	0aa9277H
	DD	0ab9377H
	DD	0ab9377H
	DD	0ac9277H
	DD	0ac9177H
	DD	0ac9177H
	DD	0ad9176H
	DD	0a98e72H
	DD	0a89273H
	DD	0b69a77H
	DD	0af9678H
	DD	0b29877H
	DD	0ad967bH
	DD	0525d6fH
	DD	03e5879H
	DD	02f5a85H
	DD	020578aH
	DD	01b4a77H
	DD	0191126H
	DD	0473b48H
	DD	0655556H
	DD	0ac8b7eH
	DD	0bb9787H
	DD	08d7375H
	DD	048393cH
	DD	0221923H
	DD	0212122H
	DD	01e1e1dH
	DD	0676767H
	DD	014363636H
	DD	0d5000000H
	DD	0ffdededeH
	DD	0ffffffffH
	DD	0ffffffffH
	DD	0ffffffffH
	DD	0ffffffffH
	DD	0ffffffffH
	DD	0ffffffffH
	DD	0ffffffffH
	DD	0ffffffffH
	DD	0ffffffffH
	DD	0ffffffffH
	DD	07d7d7d7dH
	DD	0202H
	DD	0121515H
	DD	0111414H
	DD	0111414H
	DD	01e2121H
	DD	03e4040H
	DD	0686969H
	DD	09d9e9eH
	DD	0d2d2d2H
	DD	0efefefH
	DD	0fefefeH
	DD	0ffffffH
	DD	0ffffffH
	DD	0ffffffH
	DD	0ffffffH
	DD	0ffffffH
	DD	0ffffffH
	DD	0f3f3f3H
	DD	0d5d5d5H
	DD	0a5a5a5H
	DD	079797aH
	DD	0494b4bH
	DD	0212423H
	DD	0121515H
	DD	0e1212H
	DD	0f1212H
	DD	0101313H
	DD	0191c1cH
	DD	0434444H
	DD	06f6f6fH
	DD	0707070H
	DD	0717171H
	DD	0757575H
	DD	0676767H
	DD	0505051H
	DD	0989698H
	DD	0cdb69eH
	DD	0dfbc96H
	DD	0c3a584H
	DD	0bba180H
	DD	0b89e7fH
	DD	0b59c80H
	DD	0b29a7dH
	DD	0b1987bH
	DD	0b0987aH
	DD	0af9779H
	DD	0ac9478H
	DD	0a99175H
	DD	0a78f73H
	DD	0a58d71H
	DD	09f886fH
	DD	09d866dH
	DD	09b836aH
	DD	0978066H
	DD	0907d65H
	DD	08a775fH
	DD	086725aH
	DD	0837058H
	DD	085725dH
	DD	08e7b63H
	DD	0a38c71H
	DD	0c6aa8fH
	DD	0a0aebeH
	DD	06eb0ebH
	DD	0719fc2H
	DD	07e7979H
	DD	083a5c4H
	DD	07ec0fcH
	DD	07cc0f8H
	DD	080bff6H
	DD	081c1f4H
	DD	080c2f4H
	DD	082c2f7H
	DD	081c5f7H
	DD	081c5f6H
	DD	081c5f6H
	DD	082c5f5H
	DD	082c3f6H
	DD	079c3fcH
	DD	07fbeedH
	DD	085a9c2H
	DD	08a9aa4H
	DD	0859cb0H
	DD	075a7d6H
	DD	070b1f1H
	DD	06bafefH
	DD	0749ecdH
	DD	06a96c4H
	DD	060a2e0H
	DD	063a0daH
	DD	05399deH
	DD	05494d2H
	DD	080a1c0H
	DD	0c2bdb5H
	DD	0f4d2b4H
	DD	0ffdbb3H
	DD	0fddbb3H
	DD	0fad9b4H
	DD	0f7d7b4H
	DD	0f7d8b4H
	DD	0f6d8b4H
	DD	0f7d8b4H
	DD	0f7d8b5H
	DD	0f8d8b4H
	DD	0f8d9b4H
	DD	0f8d9b4H
	DD	0f8dab5H
	DD	0f9d9b5H
	DD	0fad9b5H
	DD	0f9d8b4H
	DD	0f9d7b4H
	DD	0fbdab4H
	DD	0e8cba7H
	DD	0b79f83H
	DD	09a866fH
	DD	089745cH
	DD	07e6d57H
	DD	08c775dH
	DD	0b49979H
	DD	0ad9476H
	DD	0a88f71H
	DD	0a78d6eH
	DD	0a58d70H
	DD	0a38e73H
	DD	0a59075H
	DD	0a79277H
	DD	0a99277H
	DD	0aa9277H
	DD	0aa9277H
	DD	0aa9277H
	DD	0aa9277H
	DD	0a38a6fH
	DD	0a38b6fH
	DD	0a78e73H
	DD	0aa9277H
	DD	0aa9277H
	DD	0ab9377H
	DD	0ab9378H
	DD	0ac9277H
	DD	0ac9177H
	DD	0ac9177H
	DD	0ab9276H
	DD	09f8e72H
	DD	0aa9474H
	DD	0bc9d7cH
	DD	0a28977H
	DD	0927f6bH
	DD	0737675H
	DD	01a5086H
	DD	0145490H
	DD	01d5d90H
	DD	01f5d93H
	DD	021446fH
	DD	014050fH
	DD	0362d35H
	DD	08b7672H
	DD	0ba9181H
	DD	0987b71H
	DD	06e595aH
	DD	02a2526H
	DD	0231d21H
	DD	0232323H
	DD	0545555H
	DD	0c7c7c7H
	DD	014414141H
	DD	0d5000000H
	DD	0ffdededeH
	DD	0ffffffffH
	DD	0ffffffffH
	DD	0ffffffffH
	DD	0ffffffffH
	DD	0ffffffffH
	DD	0ffffffffH
	DD	0ffffffffH
	DD	0ffffffffH
	DD	0ffffffffH
	DD	0ffffffffH
	DD	07d7d7d7dH
	DD	010303H
	DD	0232626H
	DD	0484a4aH
	DD	07a7c7cH
	DD	0a8a9a9H
	DD	0d4d4d4H
	DD	0f2f2f2H
	DD	0fefefeH
	DD	0ffffffH
	DD	0ffffffH
	DD	0ffffffH
	DD	0ffffffH
	DD	0ffffffH
	DD	0fefefeH
	DD	0efefefH
	DD	0d0d1d1H
	DD	0a0a1a1H
	DD	06a6b6bH
	DD	0454747H
	DD	0212424H
	DD	0121515H
	DD	0f1312H
	DD	0101313H
	DD	0151818H
	DD	01e2121H
	DD	03e4041H
	DD	0747575H
	DD	0919292H
	DD	06b6b6bH
	DD	0727272H
	DD	06c6c6cH
	DD	06d6c6cH
	DD	06a6a6aH
	DD	0464646H
	DD	0868688H
	DD	0c4b4a5H
	DD	0dcbb98H
	DD	0c4a585H
	DD	0bb9e7fH
	DD	0b69d7eH
	DD	0b49b7fH
	DD	0b29a7fH
	DD	0b1987cH
	DD	0b0977aH
	DD	0ae9478H
	DD	0ab9275H
	DD	0a89073H
	DD	0a68d71H
	DD	0a48b6fH
	DD	0a2896dH
	DD	09b846cH
	DD	097826bH
	DD	0927b65H
	DD	08c755eH
	DD	08c765cH
	DD	0937d65H
	DD	09f8a72H
	DD	0aa937aH
	DD	0b39a7cH
	DD	0c3a988H
	DD	0d4b798H
	DD	0a2afbfH
	DD	06ab0e9H
	DD	07ab7f2H
	DD	07daedfH
	DD	07eb0dcH
	DD	080c2faH
	DD	080bff7H
	DD	082bff5H
	DD	082bff7H
	DD	081c0f4H
	DD	07cc3f4H
	DD	07cc3f7H
	DD	07ec4f4H
	DD	07ec3f5H
	DD	07fc3f8H
	DD	07dc6fbH
	DD	07fbff1H
	DD	085aaccH
	DD	08a939bH
	DD	08f877fH
	DD	08c8683H
	DD	07d8e9fH
	DD	0719fcfH
	DD	069adeaH
	DD	062a8ecH
	DD	064a2dfH
	DD	05ea1daH
	DD	058a1e7H
	DD	05199dfH
	DD	06599cbH
	DD	0b4b9b9H
	DD	0f8d7b5H
	DD	0ffdfb7H
	DD	0fddcbaH
	DD	0faddb6H
	DD	0fbdfb6H
	DD	0fbdeb9H
	DD	0fadeb8H
	DD	0fbdeb6H
	DD	0fbddb7H
	DD	0fbddb7H
	DD	0fbddb7H
	DD	0fadcb7H
	DD	0fadab7H
	DD	0fadbb6H
	DD	0fbdcb7H
	DD	0fbdbb6H
	DD	0fbdab4H
	DD	0fcdbb4H
	DD	0fcd9b2H
	DD	0f6d4acH
	DD	0e1c29cH
	DD	0c2a785H
	DD	0b19a7cH
	DD	0a89073H
	DD	0a28a70H
	DD	0a28b72H
	DD	0a38d71H
	DD	0a68e72H
	DD	0a78f74H
	DD	0a79074H
	DD	0a89174H
	DD	0a99275H
	DD	0a99275H
	DD	0a99376H
	DD	0a99376H
	DD	0aa9277H
	DD	0aa9277H
	DD	0aa9277H
	DD	0a99175H
	DD	0a48b6fH
	DD	0a78f73H
	DD	0aa9277H
	DD	0aa9277H
	DD	0aa9277H
	DD	0ad9479H
	DD	0ad9479H
	DD	0ae9277H
	DD	0ac9276H
	DD	0ab9177H
	DD	0ac9276H
	DD	0aa8f70H
	DD	0b19273H
	DD	0b5977dH
	DD	0596879H
	DD	01f5382H
	DD	0205180H
	DD	017467bH
	DD	0215480H
	DD	0265f8bH
	DD	01e5c94H
	DD	01a3e62H
	DD	04020aH
	DD	0171b29H
	DD	0695a62H
	DD	0917a79H
	DD	0755f63H
	DD	0422b36H
	DD	029262cH
	DD	03c3a37H
	DD	07c7c7bH
	DD	0bdbebeH
	DD	0d5d5d5H
	DD	014393939H
	DD	0d4000000H
	DD	0ffd1d1d1H
	DD	0ffffffffH
	DD	0ffffffffH
	DD	0ffffffffH
	DD	0ffffffffH
	DD	0ffffffffH
	DD	0ffffffffH
	DD	0ffffffffH
	DD	0ffffffffH
	DD	0ffffffffH
	DD	0ffffffffH
	DD	07d7c7c7cH
	DD	05d5e5eH
	DD	0b0b0b0H
	DD	0d7d8d8H
	DD	0f7f7f7H
	DD	0ffffffH
	DD	0ffffffH
	DD	0ffffffH
	DD	0ffffffH
	DD	0ffffffH
	DD	0ffffffH
	DD	0fefefeH
	DD	0edeeeeH
	DD	0cecfcfH
	DD	0a0a1a1H
	DD	0676969H
	DD	03e4040H
	DD	0232526H
	DD	0101212H
	DD	0c0f0fH
	DD	0d1111H
	DD	0141717H
	DD	0202323H
	DD	03e4040H
	DD	0737575H
	DD	0a6a7a7H
	DD	0cfcfcfH
	DD	0f7f7f7H
	DD	0b9b9baH
	DD	0666666H
	DD	06f6f6fH
	DD	06b6b6bH
	DD	08c8987H
	DD	0898a8cH
	DD	06c6e70H
	DD	0bdafa0H
	DD	0d5b494H
	DD	0c7a88bH
	DD	0b99c80H
	DD	0b69a80H
	DD	0b3987eH
	DD	0b2977dH
	DD	0b0967bH
	DD	0ae957aH
	DD	0ac9478H
	DD	0a99176H
	DD	0a58d71H
	DD	0a48c70H
	DD	0a0896dH
	DD	0a0886cH
	DD	09c8468H
	DD	0947e66H
	DD	0917b63H
	DD	0947e67H
	DD	0a28c75H
	DD	0b69d82H
	DD	0bfa58bH
	DD	0bfa58aH
	DD	0baa288H
	DD	0c9b092H
	DD	0ddbf9cH
	DD	0a2b2c3H
	DD	072b0edH
	DD	075b5f0H
	DD	078b9f2H
	DD	07cbdf8H
	DD	07dbff8H
	DD	07cbff5H
	DD	07cc0f6H
	DD	07fc0f5H
	DD	07dc1f6H
	DD	07bc1f6H
	DD	07ec3f7H
	DD	07fc3f6H
	DD	07fc3f3H
	DD	07bc3f7H
	DD	07fc3f1H
	DD	083b0ceH
	DD	0889398H
	DD	08b8780H
	DD	08a8b92H
	DD	0829ab9H
	DD	077a8ddH
	DD	06ab0f3H
	DD	069b0f5H
	DD	060acedH
	DD	05ba6e7H
	DD	0599cdaH
	DD	05d91c8H
	DD	05b83aeH
	DD	08498aaH
	DD	0dfcdb3H
	DD	0ffe2b8H
	DD	0fee1b9H
	DD	0fce0b8H
	DD	0fbdfb8H
	DD	0fce0b8H
	DD	0fae0bbH
	DD	0fae0bbH
	DD	0f9e0bbH
	DD	0fae0baH
	DD	0fcdfb8H
	DD	0fbdeb8H
	DD	0f9ddb4H
	DD	0f9dbb5H
	DD	0fcdbbaH
	DD	0fcddbaH
	DD	0fadcb7H
	DD	0fadcb7H
	DD	0fddbb3H
	DD	0f8d3aaH
	DD	0debe9cH
	DD	0b49c7fH
	DD	0917c63H
	DD	07f7059H
	DD	07b715cH
	DD	0948067H
	DD	0b19478H
	DD	0ad9176H
	DD	0a48e74H
	DD	0a78f74H
	DD	0aa9176H
	DD	0aa9277H
	DD	0aa9277H
	DD	0aa9277H
	DD	0aa9277H
	DD	0aa9277H
	DD	0aa9277H
	DD	0aa9277H
	DD	0aa9277H
	DD	0aa9277H
	DD	0a89075H
	DD	0a48c70H
	DD	0a89074H
	DD	0ab9378H
	DD	0ac9177H
	DD	0ad9278H
	DD	0af947aH
	DD	0af947aH
	DD	0ac9576H
	DD	0a99378H
	DD	0aa9276H
	DD	0ae9778H
	DD	06b6d6eH
	DD	0455f72H
	DD	0415f7aH
	DD	0225583H
	DD	01b5a8dH
	DD	02e6694H
	DD	04374a0H
	DD	03e74a0H
	DD	02a6197H
	DD	01d598bH
	DD	0112b42H
	DD	0bH
	DD	0120b1dH
	DD	0352734H
	DD	04b3843H
	DD	038232eH
	DD	0372b31H
	DD	0666464H
	DD	0a5a6a6H
	DD	0cacacaH
	DD	0c7c7c6H
	DD	0cececeH
	DD	014383838H
	DD	0d4000000H
	DD	0ffb9b9b9H
	DD	0ffffffffH
	DD	0ffffffffH
	DD	0ffffffffH
	DD	0ffffffffH
	DD	0ffffffffH
	DD	0ffffffffH
	DD	0ffffffffH
	DD	0ffffffffH
	DD	0ffffffffH
	DD	0ffffffffH
	DD	07d7d7d7dH
	DD	0c7c6c6H
	DD	0ffffffH
	DD	0ffffffH
	DD	0ffffffH
	DD	0ffffffH
	DD	0ffffffH
	DD	0ffffffH
	DD	0fcfcfcH
	DD	0e8e8e8H
	DD	0c7c8c8H
	DD	0989999H
	DD	0636464H
	DD	0353737H
	DD	0212424H
	DD	0131616H
	DD	0e1111H
	DD	0e1111H
	DD	0161919H
	DD	02b2d2dH
	DD	0484a4aH
	DD	0757777H
	DD	0adaeaeH
	DD	0d7d7d7H
	DD	0f2f2f2H
	DD	0ffffffH
	DD	0ffffffH
	DD	0ffffffH
	DD	09b9b9bH
	DD	0686868H
	DD	0676767H
	DD	0959595H
	DD	0b3afabH
	DD	05b5b5cH
	DD	0a3a19eH
	DD	0c8b094H
	DD	0cbac8dH
	DD	0b99c7fH
	DD	0b59a7eH
	DD	0b2987eH
	DD	0b1977dH
	DD	0af947aH
	DD	0ad9278H
	DD	0ab9277H
	DD	0a89075H
	DD	0a68e72H
	DD	0a38b6fH
	DD	09e886eH
	DD	098836aH
	DD	0947f65H
	DD	0978166H
	DD	0a78b70H
	DD	0b89b81H
	DD	0c4a88fH
	DD	0caaf96H
	DD	0caaf93H
	DD	0c5aa8eH
	DD	0c1a78aH
	DD	0d2b699H
	DD	0e3c2a1H
	DD	0a4b5c7H
	DD	069b0f0H
	DD	073b7f4H
	DD	07bbaf6H
	DD	076bdf8H
	DD	075c0f7H
	DD	07abff7H
	DD	07dbef5H
	DD	07dc1f5H
	DD	07cc1f6H
	DD	07cc1f6H
	DD	07cc1f6H
	DD	07ec2f7H
	DD	07cc2f6H
	DD	07cc2f8H
	DD	07ebbe8H
	DD	07f9db2H
	DD	0878d8dH
	DD	082929fH
	DD	07ca4c3H
	DD	070b2ebH
	DD	06db6fbH
	DD	063aff7H
	DD	05ea4eaH
	DD	0679acfH
	DD	06b8fb5H
	DD	078869dH
	DD	0958c89H
	DD	0a6907eH
	DD	0bca282H
	DD	0f6d6abH
	DD	0ffe4beH
	DD	0fbe0bcH
	DD	0fce1baH
	DD	0fbe2bbH
	DD	0fbe2bbH
	DD	0fbe2bbH
	DD	0fbe1bcH
	DD	0fbe1bcH
	DD	0fde3beH
	DD	0fde2bdH
	DD	0fde0baH
	DD	0fde0baH
	DD	0fbdfb8H
	DD	0fbdfb7H
	DD	0f9ddb4H
	DD	0f9ddb5H
	DD	0fbe0bbH
	DD	0f9dcb3H
	DD	0e8c9a2H
	DD	0b39b81H
	DD	05a4f41H
	DD	0251d18H
	DD	0d0604H
	DD	00H
	DD	00H
	DD	070403H
	DD	03b3128H
	DD	09d8973H
	DD	0ad9475H
	DD	0a99175H
	DD	0a99176H
	DD	0aa9277H
	DD	0aa9276H
	DD	0aa9277H
	DD	0aa9277H
	DD	0aa9277H
	DD	0aa9277H
	DD	0aa9277H
	DD	0aa9277H
	DD	0aa9277H
	DD	0a89075H
	DD	0a58c71H
	DD	0a99175H
	DD	0ab9377H
	DD	0ac9277H
	DD	0ae9378H
	DD	0af947aH
	DD	0ae947aH
	DD	0ae9375H
	DD	0ae9678H
	DD	0b19679H
	DD	0a08570H
	DD	0345881H
	DD	0165593H
	DD	01b5a94H
	DD	0214e7cH
	DD	0255986H
	DD	03e72a5H
	DD	04072a8H
	DD	0225891H
	DD	0194372H
	DD	0a2233H
	DD	0305H
	DD	030010H
	DD	0b0118H
	DD	01b0d1fH
	DD	02b1d29H
	DD	04b4147H
	DD	0918d90H
	DD	0c1c1c2H
	DD	0cacacbH
	DD	0c5c5c5H
	DD	0c0c0c0H
	DD	0ccccccH
	DD	014383838H
	DD	0d4000000H
	DD	0ffbbbbbbH
	DD	0ffffffffH
	DD	0ffffffffH
	DD	0ffffffffH
	DD	0ffffffffH
	DD	0ffffffffH
	DD	0ffffffffH
	DD	0ffffffffH
	DD	0ffffffffH
	DD	0ffffffffH
	DD	0ffffffffH
	DD	07d7e7e7eH
	DD	0cfcfcfH
	DD	0ffffffH
	DD	0ffffffH
	DD	0ffffffH
	DD	0fdfdfdH
	DD	0e8e9e9H
	DD	0c3c3c3H
	DD	0959696H
	DD	0626464H
	DD	0333535H
	DD	0161919H
	DD	0111414H
	DD	0d1111H
	DD	0c0f0fH
	DD	0101313H
	DD	0292b2bH
	DD	04c4e4eH
	DD	07a7b7bH
	DD	0acadadH
	DD	0dbdbdbH
	DD	0f4f4f4H
	DD	0ffffffH
	DD	0ffffffH
	DD	0ffffffH
	DD	0ffffffH
	DD	0ffffffH
	DD	0f8f8f8H
	DD	0858585H
	DD	06d6d6eH
	DD	0676768H
	DD	09d9b9aH
	DD	07e7b79H
	DD	0828282H
	DD	0bdac98H
	DD	0cdb18eH
	DD	0bb9f7fH
	DD	0b39a7bH
	DD	0b0997cH
	DD	0af977bH
	DD	0b0957aH
	DD	0ad9277H
	DD	0ac8f75H
	DD	0a88e73H
	DD	0a48c71H
	DD	0a1896dH
	DD	09d8569H
	DD	09d8466H
	DD	0a28a6cH
	DD	0ae967aH
	DD	0bfa78bH
	DD	0cdb194H
	DD	0d0b396H
	DD	0d0b496H
	DD	0ceb193H
	DD	0c9ad8eH
	DD	0c9ad8fH
	DD	0d8bb9dH
	DD	0e5c5a4H
	DD	0aab9c8H
	DD	072b6f2H
	DD	078b8f0H
	DD	07eb6eaH
	DD	081b5e3H
	DD	085b5dbH
	DD	086b8deH
	DD	080bee4H
	DD	07cc2f4H
	DD	07cc1fbH
	DD	080c0f6H
	DD	07dc1f6H
	DD	07cc1f6H
	DD	07cc1f6H
	DD	079bff5H
	DD	074bef6H
	DD	07ebaedH
	DD	077b4e3H
	DD	073b2e6H
	DD	071b4f5H
	DD	065b4fdH
	DD	069aceeH
	DD	06f9fd2H
	DD	08096b6H
	DD	09c9799H
	DD	0b89f8cH
	DD	0d0ac91H
	DD	0ddbb99H
	DD	0daba95H
	DD	0debf9aH
	DD	0f6deb9H
	DD	0ffe8bbH
	DD	0fbe3baH
	DD	0fbe3bcH
	DD	0fae4bcH
	DD	0fbe4bcH
	DD	0fde5bdH
	DD	0fee6beH
	DD	0fde4beH
	DD	0fce2bcH
	DD	0fce2beH
	DD	0fce2bcH
	DD	0fde1baH
	DD	0fde1baH
	DD	0fcdfb8H
	DD	0f9deb5H
	DD	0f9e4bbH
	DD	0fbe7c1H
	DD	0efd3b0H
	DD	0d4b594H
	DD	08e7961H
	DD	0383329H
	DD	0262222H
	DD	02e2422H
	DD	0332923H
	DD	03c342cH
	DD	0342d23H
	DD	01c1b13H
	DD	070503H
	DD	0594b41H
	DD	0ac997aH
	DD	0a89174H
	DD	0ab9174H
	DD	0b09373H
	DD	0aa9276H
	DD	0aa9277H
	DD	0aa9277H
	DD	0aa9277H
	DD	0aa9277H
	DD	0aa9277H
	DD	0aa9277H
	DD	0aa9277H
	DD	0a99175H
	DD	0a68e73H
	DD	0aa9176H
	DD	0aa9277H
	DD	0ad9378H
	DD	0af947aH
	DD	0b1967bH
	DD	0b5997bH
	DD	0b99678H
	DD	0a3866fH
	DD	0686a6fH
	DD	02f5275H
	DD	0164a7cH
	DD	01b5180H
	DD	02a5e91H
	DD	04878a9H
	DD	0336a9fH
	DD	0205892H
	DD	01c4977H
	DD	01c314dH
	DD	0171921H
	DD	0110f07H
	DD	0c0f0dH
	DD	0d0a17H
	DD	0100817H
	DD	02c252fH
	DD	0746f74H
	DD	0bbb8baH
	DD	0d1cdcfH
	DD	0ccc9caH
	DD	0c9c6c8H
	DD	0cac7c9H
	DD	0c6c4c5H
	DD	0cfceceH
	DD	014393838H
	DD	0d4000000H
	DD	0ffbbbbbbH
	DD	0ffffffffH
	DD	0ffffffffH
	DD	0ffffffffH
	DD	0ffffffffH
	DD	0ffffffffH
	DD	0ffffffffH
	DD	0ffffffffH
	DD	0ffffffffH
	DD	0ffffffffH
	DD	0ffffffffH
	DD	07d7e7e7eH
	DD	0d0d0d0H
	DD	0ffffffH
	DD	0e7e7e7H
	DD	0c0c1c1H
	DD	08b8d8dH
	DD	0606161H
	DD	0363838H
	DD	0191c1cH
	DD	0121515H
	DD	0101314H
	DD	0121516H
	DD	0171919H
	DD	0292b2bH
	DD	0565757H
	DD	0818282H
	DD	0b1b1b1H
	DD	0dcdcdcH
	DD	0f6f6f6H
	DD	0ffffffH
	DD	0ffffffH
	DD	0ffffffH
	DD	0ffffffH
	DD	0ffffffH
	DD	0ffffffH
	DD	0ffffffH
	DD	0ffffffH
	DD	0dededeH
	DD	0727371H
	DD	06a6b6aH
	DD	06c6c6dH
	DD	0686768H
	DD	0616362H
	DD	0aba197H
	DD	0cdad8cH
	DD	0bfa385H
	DD	0b2987aH
	DD	0b0977aH
	DD	0ad9478H
	DD	0aa9278H
	DD	0a99177H
	DD	0a78f75H
	DD	0a58d73H
	DD	0a38a6fH
	DD	0a1876bH
	DD	0a1866aH
	DD	0aa8f72H
	DD	0bda181H
	DD	0cdb190H
	DD	0d3b797H
	DD	0d3b898H
	DD	0d1b798H
	DD	0d1b698H
	DD	0cfb598H
	DD	0c9b194H
	DD	0cbaf92H
	DD	0dec1a2H
	DD	0e9cbacH
	DD	0afbac3H
	DD	071ace5H
	DD	06ea0dbH
	DD	06994c9H
	DD	04e8bc9H
	DD	04889c7H
	DD	04b89c7H
	DD	0558dc8H
	DD	07099c5H
	DD	08ba6bbH
	DD	083b8daH
	DD	079c4faH
	DD	07ac0f4H
	DD	07ac0f3H
	DD	07abff4H
	DD	078bdf4H
	DD	074b9f5H
	DD	06bb7f6H
	DD	066b5faH
	DD	06ab2f3H
	DD	076abe0H
	DD	090a6c3H
	DD	0b2a8a1H
	DD	0cfb395H
	DD	0dfbd95H
	DD	0eac499H
	DD	0e7c89fH
	DD	0e2c39fH
	DD	0c0a487H
	DD	0c2a58cH
	DD	0f1d9b6H
	DD	0fae4beH
	DD	0fde3baH
	DD	0ffe6bdH
	DD	0ffe8c2H
	DD	0ffecc2H
	DD	0ffecc2H
	DD	0f9e5c0H
	DD	0f1ddbaH
	DD	0f2d9b5H
	DD	0fbe1bcH
	DD	0fce1bcH
	DD	0fbe0bdH
	DD	0fde0baH
	DD	0f9dfb8H
	DD	0fae4bcH
	DD	0fcebc3H
	DD	0fadfb9H
	DD	0e4c5a1H
	DD	0c4aa8cH
	DD	08f7564H
	DD	08c716aH
	DD	05e4845H
	DD	04d3c3aH
	DD	0473a3aH
	DD	02e201dH
	DD	031251cH
	DD	054493cH
	DD	06a5d47H
	DD	06a5a47H
	DD	0816e58H
	DD	0a89477H
	DD	0af9373H
	DD	09d8a74H
	DD	07e7c77H
	DD	0a88f75H
	DD	0ab9377H
	DD	0aa9277H
	DD	0aa9277H
	DD	0aa9277H
	DD	0aa9277H
	DD	0aa9277H
	DD	0aa9277H
	DD	0a78f76H
	DD	0a68e72H
	DD	0a99274H
	DD	0ab9378H
	DD	0af967aH
	DD	0b79a79H
	DD	0b09376H
	DD	0948170H
	DD	061676eH
	DD	02f5378H
	DD	0165084H
	DD	01a5682H
	DD	0335f88H
	DD	0346994H
	DD	02b6397H
	DD	0285f93H
	DD	01c4f7dH
	DD	0173758H
	DD	01d222cH
	DD	0271c1aH
	DD	0251f1eH
	DD	0212321H
	DD	0222526H
	DD	0303034H
	DD	06b686bH
	DD	0adacaeH
	DD	0cccaccH
	DD	0d4cfd1H
	DD	0dcd4d2H
	DD	0ded5d2H
	DD	0ded4d4H
	DD	0dfd8daH
	DD	0dad4d7H
	DD	0e2dee0H
	DD	0143e3d3dH
	DD	0d4000000H
	DD	0ffbbbbbbH
	DD	0ffffffffH
	DD	0ffffffffH
	DD	0ffffffffH
	DD	0ffffffffH
	DD	0ffffffffH
	DD	0ffffffffH
	DD	0ffffffffH
	DD	0ffffffffH
	DD	0ffffffffH
	DD	0ffffffffH
	DD	07d7f7f7fH
	DD	0919292H
	DD	0888989H
	DD	0525353H
	DD	02e3131H
	DD	0151818H
	DD	0d1010H
	DD	0d1010H
	DD	0101313H
	DD	0191b1cH
	DD	02a2c2cH
	DD	057595aH
	DD	08b8c8cH
	DD	0bbbcbcH
	DD	0e4e5e5H
	DD	0fcfcfcH
	DD	0ffffffH
	DD	0ffffffH
	DD	0ffffffH
	DD	0ffffffH
	DD	0ffffffH
	DD	0ffffffH
	DD	0ffffffH
	DD	0ffffffH
	DD	0ffffffH
	DD	0ffffffH
	DD	0ffffffH
	DD	0b5b5b5H
	DD	06a6b67H
	DD	06c6c69H
	DD	0666567H
	DD	037373dH
	DD	08c8a87H
	DD	0bfa78eH
	DD	0c9a889H
	DD	0b3967fH
	DD	0ae9479H
	DD	0ad9378H
	DD	0ac9176H
	DD	0a99076H
	DD	0a48f75H
	DD	0a28c72H
	DD	0a08b71H
	DD	0a58d71H
	DD	0b3977bH
	DD	0c2a588H
	DD	0d0b394H
	DD	0d5b999H
	DD	0d5b999H
	DD	0d6bb9aH
	DD	0d7bb9bH
	DD	0d5ba9aH
	DD	0d5b79dH
	DD	0d0b296H
	DD	0d0b595H
	DD	0e1c4a7H
	DD	0eccdafH
	DD	0c5bab0H
	DD	087a7ccH
	DD	0729acfH
	DD	05189cdH
	DD	03780d4H
	DD	02b77d8H
	DD	02476d9H
	DD	02277dcH
	DD	0287cdcH
	DD	02b7ee0H
	DD	04f8dd7H
	DD	08e9fa7H
	DD	082b6d9H
	DD	077c1f9H
	DD	07abef3H
	DD	078bcf2H
	DD	06fbaf7H
	DD	069b6f8H
	DD	06eb1eeH
	DD	084b1d9H
	DD	0b1b8b7H
	DD	0d6bca4H
	DD	0eac59fH
	DD	0efca9fH
	DD	0edc9a0H
	DD	0e7c79eH
	DD	0e0bf9dH
	DD	0c3a989H
	DD	0947f64H
	DD	09b8267H
	DD	0f1d3b3H
	DD	0ffebc0H
	DD	0ffeabeH
	DD	0fae3bcH
	DD	0ead6b3H
	DD	0d0bfa1H
	DD	0ae9f8aH
	DD	08d8170H
	DD	0736c61H
	DD	07c7870H
	DD	09a948dH
	DD	0c4b8a7H
	DD	0fde4baH
	DD	0f9dfb8H
	DD	0f8deb8H
	DD	0f9ebc4H
	DD	0fcedc5H
	DD	0f1d5afH
	DD	0e0bc97H
	DD	0c4a886H
	DD	0907964H
	DD	0926d66H
	DD	0c39692H
	DD	0694840H
	DD	02c1d1eH
	DD	02b1d26H
	DD	033262aH
	DD	0211611H
	DD	0211910H
	DD	0504534H
	DD	078634eH
	DD	0a18870H
	DD	0aa9476H
	DD	0a38f78H
	DD	0416591H
	DD	029639eH
	DD	0988b7bH
	DD	0af9476H
	DD	0aa9277H
	DD	0aa9277H
	DD	0aa9277H
	DD	0aa9277H
	DD	0aa9277H
	DD	0aa9377H
	DD	0aa8e76H
	DD	0ad9174H
	DD	0b09673H
	DD	0ad9272H
	DD	0958572H
	DD	072716dH
	DD	0475d73H
	DD	0255180H
	DD	0135187H
	DD	019528dH
	DD	01c5388H
	DD	0295f8bH
	DD	04b7daaH
	DD	02f669aH
	DD	01c5481H
	DD	0143e5fH
	DD	0152536H
	DD	0211f19H
	DD	027211aH
	DD	0202020H
	DD	01d1e1eH
	DD	0212121H
	DD	0484747H
	DD	0979798H
	DD	0c7c6c8H
	DD	0c7c6c8H
	DD	0c7c5c8H
	DD	0d8d1d3H
	DD	0e6dbd9H
	DD	0ebdfd9H
	DD	0ede1deH
	DD	0ede3e4H
	DD	0ece5e7H
	DD	0fdf7f8H
	DD	014464445H
	DD	0d4000000H
	DD	0ffbbbbbbH
	DD	0ffffffffH
	DD	0ffffffffH
	DD	0ffffffffH
	DD	0ffffffffH
	DD	0ffffffffH
	DD	0ffffffffH
	DD	0ffffffffH
	DD	0ffffffffH
	DD	0ffffffffH
	DD	0ffffffffH
	DD	07d7e7e7eH
	DD	01a1c1cH
	DD	01d2020H
	DD	0f1212H
	DD	0d1010H
	DD	0e1212H
	DD	01c1f1fH
	DD	02e3131H
	DD	0525454H
	DD	08b8c8cH
	DD	0b9babaH
	DD	0e1e1e2H
	DD	0f8f8f8H
	DD	0ffffffH
	DD	0ffffffH
	DD	0ffffffH
	DD	0ffffffH
	DD	0ffffffH
	DD	0ffffffH
	DD	0ffffffH
	DD	0ffffffH
	DD	0ffffffH
	DD	0ffffffH
	DD	0ffffffH
	DD	0ffffffH
	DD	0ffffffH
	DD	0fafafaH
	DD	0939393H
	DD	0666666H
	DD	06c6b6bH
	DD	0484848H
	DD	0606060H
	DD	0b3a394H
	DD	0c6aa8bH
	DD	0b69b80H
	DD	0ae9479H
	DD	0ac9277H
	DD	0ab9075H
	DD	0a98e74H
	DD	0a78c70H
	DD	0a68d6fH
	DD	0ac9375H
	DD	0b59c80H
	DD	0c2a88cH
	DD	0cfb397H
	DD	0d5b89aH
	DD	0d8ba9aH
	DD	0d8bc9cH
	DD	0dabf9fH
	DD	0d9bf9fH
	DD	0d8bd9dH
	DD	0dabd9bH
	DD	0d3b598H
	DD	0d7b899H
	DD	0eacaa6H
	DD	0dec5aaH
	DD	0b4987bH
	DD	0a38f7bH
	DD	09f8b76H
	DD	0b1a69bH
	DD	0dde8eeH
	DD	0d3dde2H
	DD	0becde4H
	DD	08eb6e1H
	DD	0619fddH
	DD	03683ddH
	DD	02579deH
	DD	0237fe3H
	DD	06899ceH
	DD	094a5b4H
	DD	076bcf6H
	DD	070b9f8H
	DD	06fb5f6H
	DD	072b1ebH
	DD	09ab6cfH
	DD	0d0c4b2H
	DD	0eacca5H
	DD	0f2cea2H
	DD	0f0cca1H
	DD	0e9c8a3H
	DD	0e5c7a3H
	DD	0dfc29fH
	DD	0c6ac8dH
	DD	0a1896dH
	DD	07e6b55H
	DD	089725aH
	DD	0ebceacH
	DD	0ffebc1H
	DD	0e0cca9H
	DD	0b7a997H
	DD	0989387H
	DD	085847dH
	DD	0747675H
	DD	06a6566H
	DD	0574d4dH
	DD	0554a47H
	DD	0867d7aH
	DD	0979ba1H
	DD	0afa496H
	DD	0fddeb2H
	DD	0f9dfb8H
	DD	0fbeec7H
	DD	0f9e4c0H
	DD	0eecba7H
	DD	0ddb996H
	DD	0c0a888H
	DD	0a08b75H
	DD	09a7e76H
	DD	09d7973H
	DD	0663b34H
	DD	0533c3eH
	DD	0423944H
	DD	02a1d2bH
	DD	020141fH
	DD	02b2223H
	DD	090201H
	DD	01f1910H
	DD	0685746H
	DD	09a856dH
	DD	0ad9472H
	DD	0878683H
	DD	05d84adH
	DD	0858c94H
	DD	09a856eH
	DD	0ac9377H
	DD	0aa9277H
	DD	0aa9277H
	DD	0aa9277H
	DD	0aa9277H
	DD	0aa9277H
	DD	0ac9478H
	DD	0a3876dH
	DD	0877465H
	DD	064676dH
	DD	0465b73H
	DD	02a517eH
	DD	01c5088H
	DD	017538eH
	DD	01b568cH
	DD	01d5588H
	DD	01e5587H
	DD	01d5488H
	DD	01d578fH
	DD	01e558bH
	DD	0184269H
	DD	0162e3fH
	DD	0191c22H
	DD	02a1b1dH
	DD	02c201bH
	DD	0201e1cH
	DD	01d2021H
	DD	0393839H
	DD	0737373H
	DD	0b1b0b0H
	DD	0c7c6c6H
	DD	0c1c0c0H
	DD	0c0bfbfH
	DD	0c5c3c5H
	DD	0d6d0d0H
	DD	0e2d8d6H
	DD	0e6dcd7H
	DD	0e8dfdbH
	DD	0e6deddH
	DD	0e9e4e4H
	DD	0fffdfcH
	DD	014484747H
	DD	0d4000000H
	DD	0ffbbbbbbH
	DD	0ffffffffH
	DD	0ffffffffH
	DD	0ffffffffH
	DD	0ffffffffH
	DD	0ffffffffH
	DD	0ffffffffH
	DD	0ffffffffH
	DD	0ffffffffH
	DD	0ffffffffH
	DD	0ffffffffH
	DD	07d7d7d7dH
	DD	00H
	DD	0f1212H
	DD	01d2020H
	DD	03b3d3dH
	DD	05e6060H
	DD	0909191H
	DD	0c4c5c5H
	DD	0e6e6e6H
	DD	0fbfbfbH
	DD	0ffffffH
	DD	0ffffffH
	DD	0ffffffH
	DD	0ffffffH
	DD	0ffffffH
	DD	0ffffffH
	DD	0ffffffH
	DD	0ffffffH
	DD	0ffffffH
	DD	0ffffffH
	DD	0ffffffH
	DD	0ffffffH
	DD	0ffffffH
	DD	0ffffffH
	DD	0ffffffH
	DD	0ffffffH
	DD	0dfdfdfH
	DD	0767676H
	DD	06a686cH
	DD	0656366H
	DD	0616362H
	DD	0989793H
	DD	0c3a48aH
	DD	0c1a182H
	DD	0ae9677H
	DD	0a79278H
	DD	0ab9076H
	DD	0a78c71H
	DD	0a98f75H
	DD	0b2977aH
	DD	0bfa382H
	DD	0c9ae8eH
	DD	0d0b595H
	DD	0d4b89bH
	DD	0d7bb9dH
	DD	0dcbe9fH
	DD	0e1c1a0H
	DD	0dec1a2H
	DD	0dcc1a2H
	DD	0dbc1a1H
	DD	0d8be9eH
	DD	0d5ba98H
	DD	0dcba97H
	DD	0e6c8abH
	DD	0ccb7a0H
	DD	086613cH
	DD	0a08870H
	DD	0a78c70H
	DD	0b19d84H
	DD	0dacec0H
	DD	0d7cbc3H
	DD	0edeef2H
	DD	0f5edebH
	DD	0f4f3f2H
	DD	0ececedH
	DD	0c7d5e5H
	DD	07dafe3H
	DD	03184e3H
	DD	0448cd9H
	DD	090a6b6H
	DD	06eb6f4H
	DD	078b0e6H
	DD	0a2b5c7H
	DD	0d6c4b0H
	DD	0f6cfa8H
	DD	0f8d1a5H
	DD	0eccca8H
	DD	0ecc9a2H
	DD	0ebcca2H
	DD	0e2c69eH
	DD	0caae8dH
	DD	09f8b70H
	DD	089745bH
	DD	0847359H
	DD	0907a60H
	DD	0ceb395H
	DD	0ccbca0H
	DD	08a8575H
	DD	07d7774H
	DD	0848283H
	DD	0928f8fH
	DD	09e9a96H
	DD	0958f89H
	DD	06b6160H
	DD	0504444H
	DD	0615554H
	DD	0918a8aH
	DD	0908d8aH
	DD	0cfb99bH
	DD	0ffe5b8H
	DD	0fbe5baH
	DD	0f4dcb3H
	DD	0ecc8a3H
	DD	0dbb999H
	DD	0c5aa89H
	DD	0aa947aH
	DD	09e857eH
	DD	08c737bH
	DD	056464cH
	DD	0705e69H
	DD	0666375H
	DD	0666072H
	DD	06b5f6fH
	DD	0382d3cH
	DD	01d141eH
	DD	0e0a0dH
	DD	050302H
	DD	0504135H
	DD	0957e67H
	DD	0ad9374H
	DD	08f8373H
	DD	09e9180H
	DD	08e7b6aH
	DD	09b886fH
	DD	0ac9478H
	DD	0aa9277H
	DD	0aa9277H
	DD	0aa9277H
	DD	0aa9277H
	DD	0aa9277H
	DD	0b49777H
	DD	0616d78H
	DD	01a487aH
	DD	01b4e86H
	DD	016548cH
	DD	01b578cH
	DD	01c558bH
	DD	01d558bH
	DD	01f5589H
	DD	0215585H
	DD	01b588aH
	DD	01d5888H
	DD	01c4771H
	DD	0152f4aH
	DD	01a1e25H
	DD	0281c18H
	DD	0241f1eH
	DD	01e2223H
	DD	0212223H
	DD	02d2e2dH
	DD	05e5e5eH
	DD	0a4a3a3H
	DD	0c9c8c7H
	DD	0c6c5c4H
	DD	0bfc0c0H
	DD	0bfc0c1H
	DD	0c0c0c1H
	DD	0c1c1c1H
	DD	0cac6c7H
	DD	0d1cdceH
	DD	0d6d1d1H
	DD	0d8d4d3H
	DD	0d7d3d2H
	DD	0ddd8d7H
	DD	0f0ecebH
	DD	014424241H
	DD	0d4000000H
	DD	0ffbbbbbbH
	DD	0ffffffffH
	DD	0ffffffffH
	DD	0ffffffffH
	DD	0ffffffffH
	DD	0ffffffffH
	DD	0ffffffffH
	DD	0ffffffffH
	DD	0ffffffffH
	DD	0ffffffffH
	DD	0ffffffffH
	DD	07d7c7c7cH
	DD	0202222H
	DD	0636565H
	DD	0929393H
	DD	0c6c7c7H
	DD	0eaebebH
	DD	0fcfcfcH
	DD	0ffffffH
	DD	0ffffffH
	DD	0ffffffH
	DD	0ffffffH
	DD	0ffffffH
	DD	0ffffffH
	DD	0ffffffH
	DD	0ffffffH
	DD	0ffffffH
	DD	0ffffffH
	DD	0ffffffH
	DD	0ffffffH
	DD	0ffffffH
	DD	0ffffffH
	DD	0ffffffH
	DD	0ffffffH
	DD	0ffffffH
	DD	0ffffffH
	DD	0ffffffH
	DD	0c2c2c2H
	DD	0686868H
	DD	069686aH
	DD	0484b50H
	DD	07f8182H
	DD	0b0a08eH
	DD	0c6a586H
	DD	0b29678H
	DD	0a99074H
	DD	0a69078H
	DD	0b29578H
	DD	0b89c7fH
	DD	0c2a68aH
	DD	0cbb092H
	DD	0d2b794H
	DD	0d5ba98H
	DD	0d8bd9bH
	DD	0dcc0a0H
	DD	0e1c2a3H
	DD	0e4c5a5H
	DD	0e6c6a5H
	DD	0e3c5a6H
	DD	0e0c3a4H
	DD	0dfc2a3H
	DD	0d8bb9cH
	DD	0d5b998H
	DD	0eecbaaH
	DD	0d5b79dH
	DD	0bdbcbaH
	DD	0a2876cH
	DD	0b29374H
	DD	0a7896bH
	DD	0c5b6a5H
	DD	0966947H
	DD	0b89c86H
	DD	0ae937cH
	DD	0d1c3b4H
	DD	0e0d3c8H
	DD	09b704dH
	DD	0e5d6c9H
	DD	0fbfaf9H
	DD	0bbd1e5H
	DD	089adccH
	DD	0839fb7H
	DD	099b2ceH
	DD	0d6c2b0H
	DD	0fcd3a4H
	DD	0fcd4a8H
	DD	0f1cfa7H
	DD	0eecda6H
	DD	0ebcba6H
	DD	0ebc8a2H
	DD	0d0b394H
	DD	0a89175H
	DD	08e7862H
	DD	0887662H
	DD	0937f68H
	DD	0a18a6bH
	DD	0b0987cH
	DD	0a99c8fH
	DD	06c6c68H
	DD	077797aH
	DD	08d8b89H
	DD	09b948fH
	DD	0b3aaa6H
	DD	0b3aaa4H
	DD	095827bH
	DD	06c605bH
	DD	02b2626H
	DD	0696463H
	DD	08c898cH
	DD	0a39484H
	DD	0fbdfb8H
	DD	0ffdeb8H
	DD	0f5d3abH
	DD	0e9c6a1H
	DD	0d9b998H
	DD	0c5ad8bH
	DD	0b59c7cH
	DD	0a2836cH
	DD	0897274H
	DD	058454fH
	DD	0635762H
	DD	05c4f5dH
	DD	0393247H
	DD	0484058H
	DD	0524a5cH
	DD	0665f6dH
	DD	02a212eH
	DD	0170e18H
	DD	030101H
	DD	0433829H
	DD	08e7a61H
	DD	0a89377H
	DD	08d775bH
	DD	0857e72H
	DD	0738192H
	DD	09e8f7aH
	DD	0ab9475H
	DD	0ab9277H
	DD	0aa9277H
	DD	0aa9276H
	DD	0ac9374H
	DD	0af9779H
	DD	0b19674H
	DD	04c6676H
	DD	0144e82H
	DD	0215386H
	DD	0205485H
	DD	0205686H
	DD	01d5488H
	DD	01a5287H
	DD	0205689H
	DD	0215b93H
	DD	01c4f7eH
	DD	015364eH
	DD	0152027H
	DD	01f1d1bH
	DD	0201f1cH
	DD	01e201dH
	DD	01d211dH
	DD	02f312dH
	DD	0545655H
	DD	0959594H
	DD	0c3c2c1H
	DD	0c9c7c5H
	DD	0c4c2c1H
	DD	0c1c3c3H
	DD	0c1c5c8H
	DD	0c1c7ceH
	DD	0c1c6ceH
	DD	0c1c3c7H
	DD	0c1c1c5H
	DD	0c4c4c7H
	DD	0cac8ccH
	DD	0cecbceH
	DD	0d3d0d0H
	DD	0ddd6d5H
	DD	0e7e2e0H
	DD	0143d3d3dH
	DD	0d4000000H
	DD	0ffbbbbbbH
	DD	0ffffffffH
	DD	0ffffffffH
	DD	0ffffffffH
	DD	0ffffffffH
	DD	0ffffffffH
	DD	0ffffffffH
	DD	0ffffffffH
	DD	0ffffffffH
	DD	0ffffffffH
	DD	0ffffffffH
	DD	07d7c7c7cH
	DD	0a0a1a1H
	DD	0f2f2f2H
	DD	0fefdfdH
	DD	0ffffffH
	DD	0ffffffH
	DD	0ffffffH
	DD	0ffffffH
	DD	0ffffffH
	DD	0ffffffH
	DD	0ffffffH
	DD	0ffffffH
	DD	0ffffffH
	DD	0ffffffH
	DD	0ffffffH
	DD	0ffffffH
	DD	0ffffffH
	DD	0ffffffH
	DD	0ffffffH
	DD	0ffffffH
	DD	0ffffffH
	DD	0ffffffH
	DD	0ffffffH
	DD	0ffffffH
	DD	0ffffffH
	DD	0ffffffH
	DD	09e9e9eH
	DD	0646465H
	DD	05b5c5cH
	DD	0474a4cH
	DD	098938eH
	DD	0baa082H
	DD	0b69b7fH
	DD	0ad9277H
	DD	0b2987bH
	DD	0bea185H
	DD	0caac8dH
	DD	0d0b394H
	DD	0d3b698H
	DD	0d6bb9aH
	DD	0d8be9bH
	DD	0dcc19fH
	DD	0dfc5a3H
	DD	0e4c6a5H
	DD	0e8c7a7H
	DD	0e8c8a8H
	DD	0e8c8a9H
	DD	0e4c6a7H
	DD	0e3c5a6H
	DD	0dcbe9fH
	DD	0d7b897H
	DD	0e9cba8H
	DD	0f8d1aaH
	DD	0b2a79eH
	DD	0518fd2H
	DD	07cabe4H
	DD	0a9c1d9H
	DD	0dce2e5H
	DD	0e1dad3H
	DD	0c0a38aH
	DD	0b19173H
	DD	0a98f76H
	DD	0c7aa9aH
	DD	091623aH
	DD	0bda991H
	DD	0c7b8a7H
	DD	0a77953H
	DD	0ad8a6dH
	DD	0d5c6baH
	DD	0bea88cH
	DD	0f1d2b3H
	DD	0fcd4abH
	DD	0f8d0a6H
	DD	0efccaaH
	DD	0f0cea8H
	DD	0e9cba6H
	DD	0d4b997H
	DD	0b0977aH
	DD	0977d67H
	DD	0957b63H
	DD	09f846cH
	DD	0a99178H
	DD	0b69e81H
	DD	0b49a7dH
	DD	0a99d90H
	DD	08a8886H
	DD	082807dH
	DD	08d8a87H
	DD	08c8a87H
	DD	0a19a98H
	DD	0bab4b3H
	DD	09f9897H
	DD	0695756H
	DD	07b7373H
	DD	05d5d5cH
	DD	0757574H
	DD	089807bH
	DD	0e3ccabH
	DD	0ffe2b6H
	DD	0f6d0aaH
	DD	0e7c6a1H
	DD	0dabb9aH
	DD	0caad8eH
	DD	0bba382H
	DD	0ab8f78H
	DD	099756cH
	DD	05f5057H
	DD	0706067H
	DD	037272cH
	DD	0514c4dH
	DD	0474046H
	DD	0605a6aH
	DD	0504b5bH
	DD	05c5663H
	DD	0504753H
	DD	01e101fH
	DD	090707H
	DD	0453b29H
	DD	08f7d62H
	DD	0ab9374H
	DD	07d8185H
	DD	0306aadH
	DD	05e748aH
	DD	0b29373H
	DD	0b09276H
	DD	0ac9376H
	DD	0ab9476H
	DD	0b19678H
	DD	0b49574H
	DD	095826eH
	DD	0536071H
	DD	01f4b76H
	DD	01a4a78H
	DD	01e4d7aH
	DD	01e4c7bH
	DD	01a4b7aH
	DD	01a4f81H
	DD	0285c8eH
	DD	0295c8aH
	DD	01c4060H
	DD	01d2133H
	DD	0251c1cH
	DD	01e201aH
	DD	01f1f1eH
	DD	0212020H
	DD	0252526H
	DD	049494aH
	DD	0888788H
	DD	0bab8b7H
	DD	0c9c8c6H
	DD	0c6c5c3H
	DD	0c3c3c1H
	DD	0c3c4c7H
	DD	0c3c9d1H
	DD	0c3cdd9H
	DD	0c3cfdcH
	DD	0c2ceddH
	DD	0c0cad7H
	DD	0c0c6cfH
	DD	0c3c5caH
	DD	0c8c6c9H
	DD	0ccc9cbH
	DD	0d1ced0H
	DD	0ded6d7H
	DD	0eae4e3H
	DD	0143f3e3eH
	DD	0d4000000H
	DD	0ffbbbbbbH
	DD	0ffffffffH
	DD	0ffffffffH
	DD	0ffffffffH
	DD	0ffffffffH
	DD	0ffffffffH
	DD	0ffffffffH
	DD	0ffffffffH
	DD	0ffffffffH
	DD	0ffffffffH
	DD	0ffffffffH
	DD	07d7e7e7eH
	DD	0cfcfcfH
	DD	0ffffffH
	DD	0ffffffH
	DD	0ffffffH
	DD	0ffffffH
	DD	0ffffffH
	DD	0ffffffH
	DD	0ffffffH
	DD	0ffffffH
	DD	0ffffffH
	DD	0ffffffH
	DD	0ffffffH
	DD	0ffffffH
	DD	0ffffffH
	DD	0ffffffH
	DD	0ffffffH
	DD	0ffffffH
	DD	0ffffffH
	DD	0ffffffH
	DD	0ffffffH
	DD	0ffffffH
	DD	0ffffffH
	DD	0ffffffH
	DD	0ffffffH
	DD	0f8f8f8H
	DD	07f7f7eH
	DD	06a6b6bH
	DD	04d4e51H
	DD	07e7a75H
	DD	0ac9a84H
	DD	0bfa281H
	DD	0b89e81H
	DD	0c4a788H
	DD	0d2b392H
	DD	0dcbc9aH
	DD	0d9bc9bH
	DD	0dbbe9dH
	DD	0ddc0a0H
	DD	0e0c3a2H
	DD	0e3c5a4H
	DD	0e5c8a7H
	DD	0e7caa9H
	DD	0eacba9H
	DD	0ebcbabH
	DD	0eacbaaH
	DD	0eacbaaH
	DD	0e6c9a9H
	DD	0e0c3a4H
	DD	0d7b999H
	DD	0e6c8a9H
	DD	0f8d7b1H
	DD	0c8bcaeH
	DD	0869bb2H
	DD	0287ddbH
	DD	02a7dd7H
	DD	02f82d7H
	DD	0488fdaH
	DD	076a8e4H
	DD	0a8ccf3H
	DD	0d2dcecH
	DD	0f1f2f2H
	DD	0c9b099H
	DD	0ded1baH
	DD	0ddcec5H
	DD	0855221H
	DD	09d754cH
	DD	0d4c7bdH
	DD	0cbae90H
	DD	0f2cba0H
	DD	0f4d2adH
	DD	0f1cfa8H
	DD	0f3cea6H
	DD	0edcba7H
	DD	0dabb9cH
	DD	0b99d7fH
	DD	09d836aH
	DD	0968069H
	DD	0a38b72H
	DD	0b1987dH
	DD	0c0a486H
	DD	0c7aa8bH
	DD	0bda383H
	DD	0a79a8aH
	DD	0959798H
	DD	0797875H
	DD	085827eH
	DD	08a8783H
	DD	08a8884H
	DD	0a6a0a0H
	DD	0a69d9eH
	DD	0948c8dH
	DD	0969091H
	DD	063605eH
	DD	0524e51H
	DD	0817d7eH
	DD	0c5b79aH
	DD	0ffe5b9H
	DD	0f5d1a5H
	DD	0e9c59eH
	DD	0dcbc99H
	DD	0cfb190H
	DD	0bea383H
	DD	0b0987cH
	DD	0a5857eH
	DD	083696fH
	DD	063555fH
	DD	05d4d58H
	DD	0534248H
	DD	0625958H
	DD	076706fH
	DD	05c555bH
	DD	057515fH
	DD	05f5967H
	DD	0655d68H
	DD	0291c29H
	DD	0f0b0cH
	DD	0514433H
	DD	0978168H
	DD	0af9576H
	DD	085837fH
	DD	055718eH
	DD	0a08d7cH
	DD	0af9473H
	DD	0a69277H
	DD	0ab9775H
	DD	0b19677H
	DD	098846eH
	DD	057646aH
	DD	0224f79H
	DD	0165087H
	DD	01d4878H
	DD	0204b76H
	DD	020547fH
	DD	02e5e8aH
	DD	0346999H
	DD	0346897H
	DD	02a4c6fH
	DD	01e2736H
	DD	0271b1cH
	DD	02b201bH
	DD	0282020H
	DD	01f1a21H
	DD	01f1f20H
	DD	0444443H
	DD	0828281H
	DD	0b5b5b4H
	DD	0c6c5c3H
	DD	0c6c4c2H
	DD	0c3c3c2H
	DD	0c3c5c7H
	DD	0c3c8cfH
	DD	0c6ced9H
	DD	0c6d2e2H
	DD	0c5d2e3H
	DD	0c3d1e2H
	DD	0c1d0e2H
	DD	0c1cee0H
	DD	0c8d0daH
	DD	0d3d3d3H
	DD	0d6d2ceH
	DD	0d4cfccH
	DD	0d1cdcdH
	DD	0d3cfd0H
	DD	0e4e1e1H
	DD	0143f3e3fH
	DD	0d4000000H
	DD	0ffbbbbbbH
	DD	0ffffffffH
	DD	0ffffffffH
	DD	0ffffffffH
	DD	0ffffffffH
	DD	0ffffffffH
	DD	0ffffffffH
	DD	0ffffffffH
	DD	0ffffffffH
	DD	0ffffffffH
	DD	0ffffffffH
	DD	07d7e7e7eH
	DD	0cfcfcfH
	DD	0ffffffH
	DD	0ffffffH
	DD	0ffffffH
	DD	0ffffffH
	DD	0ffffffH
	DD	0ffffffH
	DD	0ffffffH
	DD	0ffffffH
	DD	0ffffffH
	DD	0ffffffH
	DD	0ffffffH
	DD	0ffffffH
	DD	0ffffffH
	DD	0ffffffH
	DD	0ffffffH
	DD	0ffffffH
	DD	0ffffffH
	DD	0ffffffH
	DD	0ffffffH
	DD	0ffffffH
	DD	0ffffffH
	DD	0ffffffH
	DD	0ffffffH
	DD	0e3e3e3H
	DD	08d8c8dH
	DD	07a7b7bH
	DD	05f6468H
	DD	09d958bH
	DD	0c5a784H
	DD	0d4b591H
	DD	0e0bf9cH
	DD	0e5c5a3H
	DD	0e4c5a4H
	DD	0e1c3a2H
	DD	0e2c2a1H
	DD	0e4c4a3H
	DD	0e6c6a6H
	DD	0e9caa9H
	DD	0ebccabH
	DD	0eccdacH
	DD	0ecccacH
	DD	0ecceacH
	DD	0eecfabH
	DD	0edceaaH
	DD	0eacba7H
	DD	0e5c7a7H
	DD	0d7b99aH
	DD	0e4c6a7H
	DD	0f9d6b1H
	DD	0cbc6c1H
	DD	070ace1H
	DD	08da2b2H
	DD	05290d8H
	DD	02c80e2H
	DD	02f82e1H
	DD	02f83e0H
	DD	02b83dfH
	DD	02c81e0H
	DD	03d8ce2H
	DD	05b9ee6H
	DD	08fc3f4H
	DD	0c2e3ffH
	DD	0ccc1baH
	DD	0c4b196H
	DD	0e1d8ceH
	DD	0d0b899H
	DD	0e8c8a2H
	DD	0f6d5abH
	DD	0f2d0a6H
	DD	0edcea8H
	DD	0dbc09fH
	DD	0bea384H
	DD	0a38870H
	DD	0a2866dH
	DD	0af9176H
	DD	0bda184H
	DD	0c8ae8cH
	DD	0cab191H
	DD	0c2a98bH
	DD	0c0a585H
	DD	0a9967eH
	DD	0a9a7a5H
	DD	077787aH
	DD	0777675H
	DD	085827fH
	DD	08a8784H
	DD	0888683H
	DD	09e9592H
	DD	09d8d8aH
	DD	072615fH
	DD	0b8b4b0H
	DD	089807bH
	DD	08d8b8bH
	DD	0c0b7a4H
	DD	0fde4b8H
	DD	0f0d0a8H
	DD	0e3c3a1H
	DD	0ddbe96H
	DD	0d3b290H
	DD	0c4a687H
	DD	0b59c7bH
	DD	0aa917cH
	DD	0a08080H
	DD	0635657H
	DD	04c4449H
	DD	0433440H
	DD	06e5c69H
	DD	085787dH
	DD	08b8282H
	DD	04d454aH
	DD	05b5461H
	DD	068616fH
	DD	06c646dH
	DD	0392c38H
	DD	0170f10H
	DD	05f4f40H
	DD	0a0886fH
	DD	0ab9278H
	DD	0ad9376H
	DD	0a79270H
	DD	0957a65H
	DD	0ab9473H
	DD	0b49774H
	DD	09d8772H
	DD	05e6470H
	DD	0284f78H
	DD	0144f85H
	DD	0185187H
	DD	01d5486H
	DD	043719fH
	DD	0467eaeH
	DD	03f80b4H
	DD	03c6fadH
	DD	02b4f7dH
	DD	0192b3fH
	DD	01d1d19H
	DD	0211d18H
	DD	0281f22H
	DD	0201f1cH
	DD	01d1c1bH
	DD	0393338H
	DD	0707070H
	DD	0adadacH
	DD	0c9c7c6H
	DD	0c7c6c4H
	DD	0c3c2c1H
	DD	0c2c3c4H
	DD	0c3c7ccH
	DD	0c3cbd4H
	DD	0c5cfddH
	DD	0c8d5e6H
	DD	0c8d6e8H
	DD	0c4d2e3H
	DD	0c1cee0H
	DD	0c1cedfH
	DD	0c7d1deH
	DD	0d8dadbH
	DD	0e7e1daH
	DD	0eae1d8H
	DD	0e3dcd3H
	DD	0d9d4cfH
	DD	0d0cdcbH
	DD	0e0dcdbH
	DD	0143f3d3eH
	DD	0d4000000H
	DD	0ffbbbbbbH
	DD	0ffffffffH
	DD	0ffffffffH
	DD	0ffffffffH
	DD	0ffffffffH
	DD	0ffffffffH
	DD	0ffffffffH
	DD	0ffffffffH
	DD	0ffffffffH
	DD	0ffffffffH
	DD	0ffffffffH
	DD	07d7e7e7eH
	DD	0cfcfcfH
	DD	0ffffffH
	DD	0ffffffH
	DD	0ffffffH
	DD	0ffffffH
	DD	0ffffffH
	DD	0ffffffH
	DD	0ffffffH
	DD	0ffffffH
	DD	0ffffffH
	DD	0ffffffH
	DD	0ffffffH
	DD	0ffffffH
	DD	0ffffffH
	DD	0ffffffH
	DD	0ffffffH
	DD	0ffffffH
	DD	0ffffffH
	DD	0ffffffH
	DD	0ffffffH
	DD	0ffffffH
	DD	0ffffffH
	DD	0ffffffH
	DD	0ffffffH
	DD	0c7c5c2H
	DD	070706dH
	DD	08a8f92H
	DD	079746dH
	DD	0baa68dH
	DD	0e3c29bH
	DD	0eacca7H
	DD	0eccca8H
	DD	0e7c7a3H
	DD	0e5c6a3H
	DD	0e6c7a4H
	DD	0e9caa7H
	DD	0eacba8H
	DD	0edcdabH
	DD	0efd0adH
	DD	0f0d0aeH
	DD	0f0d0adH
	DD	0efd0adH
	DD	0f0d0acH
	DD	0eeceabH
	DD	0ecceacH
	DD	0eacbacH
	DD	0d8bc9dH
	DD	0ddc1a0H
	DD	0fcd8adH
	DD	0d0c7bfH
	DD	075b0ebH
	DD	067b2faH
	DD	07aacd5H
	DD	08da2b6H
	DD	06a9acaH
	DD	04e8ed8H
	DD	03a89e1H
	DD	0368be3H
	DD	0388ce3H
	DD	03a8be2H
	DD	0418be2H
	DD	04a8ddcH
	DD	0749ac2H
	DD	0c9bfb3H
	DD	0e6ccadH
	DD	0dcbb97H
	DD	0f2cea5H
	DD	0f6d4adH
	DD	0f4d1a8H
	DD	0e5c4a1H
	DD	0c7aa8aH
	DD	0ab9175H
	DD	0a38b72H
	DD	0b4997cH
	DD	0c5a98bH
	DD	0cfb294H
	DD	0d1b493H
	DD	0cfae8dH
	DD	0c6a88aH
	DD	0c2a68cH
	DD	0bca388H
	DD	0ada396H
	DD	0939699H
	DD	0686968H
	DD	07a7675H
	DD	0858180H
	DD	08b8686H
	DD	0868282H
	DD	07a7271H
	DD	0907f7bH
	DD	086736dH
	DD	09d918dH
	DD	0726a6dH
	DD	0b8b5a7H
	DD	0fae2baH
	DD	0f6d2a9H
	DD	0e3c49fH
	DD	0ddbd9bH
	DD	0d5b692H
	DD	0cbab8aH
	DD	0bc9f83H
	DD	0b49878H
	DD	0b19989H
	DD	091787fH
	DD	06f6663H
	DD	050454aH
	DD	03f353bH
	DD	06d636eH
	DD	09e9899H
	DD	07b7274H
	DD	057484eH
	DD	0675d64H
	DD	0726884H
	DD	073688eH
	DD	03c3546H
	DD	01d1216H
	DD	06d5b47H
	DD	0a78e70H
	DD	0b09478H
	DD	0aa9577H
	DD	09d896fH
	DD	081675dH
	DD	0a28c72H
	DD	0736d68H
	DD	0355370H
	DD	0155182H
	DD	0175489H
	DD	01a5187H
	DD	0195084H
	DD	01c5288H
	DD	03173aeH
	DD	0296eaaH
	DD	01c4f81H
	DD	0142a49H
	DD	01a1b23H
	DD	0201e1dH
	DD	023211dH
	DD	01d1f1fH
	DD	01c1d1fH
	DD	02b2928H
	DD	05f5d5cH
	DD	0a1a09fH
	DD	0c6c6c4H
	DD	0c8c7c5H
	DD	0c3c2c1H
	DD	0c3c3c3H
	DD	0c2c6caH
	DD	0c2cad2H
	DD	0c4cedbH
	DD	0c5d1e1H
	DD	0c5d2e3H
	DD	0c6d4e6H
	DD	0c5d3e3H
	DD	0c2cfdeH
	DD	0c1cbdbH
	DD	0c5cddaH
	DD	0d5d6d8H
	DD	0e7e0d7H
	DD	0efe5d9H
	DD	0efe6dbH
	DD	0ede4d9H
	DD	0e5ded4H
	DD	0ded7d0H
	DD	0eae4deH
	DD	014413f3dH
	DD	0d4000000H
	DD	0ffbbbbbbH
	DD	0ffffffffH
	DD	0ffffffffH
	DD	0ffffffffH
	DD	0ffffffffH
	DD	0ffffffffH
	DD	0ffffffffH
	DD	0ffffffffH
	DD	0ffffffffH
	DD	0ffffffffH
	DD	0ffffffffH
	DD	07d7e7e7eH
	DD	0cfcfcfH
	DD	0ffffffH
	DD	0ffffffH
	DD	0ffffffH
	DD	0ffffffH
	DD	0ffffffH
	DD	0ffffffH
	DD	0ffffffH
	DD	0ffffffH
	DD	0ffffffH
	DD	0ffffffH
	DD	0ffffffH
	DD	0ffffffH
	DD	0ffffffH
	DD	0ffffffH
	DD	0ffffffH
	DD	0ffffffH
	DD	0ffffffH
	DD	0ffffffH
	DD	0ffffffH
	DD	0ffffffH
	DD	0ffffffH
	DD	0ffffffH
	DD	0ffffffH
	DD	0bbb2a9H
	DD	0736658H
	DD	0716256H
	DD	0ad977dH
	DD	0ddbe99H
	DD	0e8c69eH
	DD	0e8c9a7H
	DD	0eacba7H
	DD	0eacba7H
	DD	0e9caa6H
	DD	0eccda9H
	DD	0efd0acH
	DD	0f0d1adH
	DD	0f1d1aeH
	DD	0f2d2afH
	DD	0f2d2afH
	DD	0f2d2afH
	DD	0f2d2afH
	DD	0f2d1adH
	DD	0eeceacH
	DD	0edceadH
	DD	0dfc1a1H
	DD	0d7bb9cH
	DD	0fbd6adH
	DD	0d6cbbaH
	DD	074b1e9H
	DD	06db1f5H
	DD	073b3f5H
	DD	066b7faH
	DD	075b4e5H
	DD	084aecdH
	DD	08da8c6H
	DD	085a6c3H
	DD	079a4c5H
	DD	07ca3c8H
	DD	07da6ccH
	DD	081a6c6H
	DD	0a4a6a8H
	DD	0e4c29cH
	DD	0f8d2a3H
	DD	0f9d3abH
	DD	0f8d6afH
	DD	0f6d3acH
	DD	0e9c9a5H
	DD	0d1b291H
	DD	0b5997cH
	DD	0ae9276H
	DD	0bb9d7fH
	DD	0cdaf90H
	DD	0d4b897H
	DD	0d4b997H
	DD	0cdb290H
	DD	0caae8eH
	DD	0caac91H
	DD	0caad91H
	DD	0cdaf91H
	DD	0b59e88H
	DD	0b3abaaH
	DD	06d6e71H
	DD	0676a63H
	DD	07c7875H
	DD	0858182H
	DD	0868383H
	DD	0807c7dH
	DD	0625c59H
	DD	0443834H
	DD	0504344H
	DD	0474042H
	DD	0908d84H
	DD	0f3e3c1H
	DD	0f5d4a9H
	DD	0e5c3a0H
	DD	0debe9aH
	DD	0d7b794H
	DD	0ccae8dH
	DD	0c2a586H
	DD	0b69d81H
	DD	0ab9372H
	DD	0a78471H
	DD	0816e71H
	DD	0635757H
	DD	064585fH
	DD	04c4549H
	DD	0756872H
	DD	075676bH
	DD	07d6f7aH
	DD	0675a68H
	DD	0544b54H
	DD	07d7793H
	DD	07b70a5H
	DD	0363648H
	DD	0211a21H
	DD	0746454H
	DD	0a89175H
	DD	0b1967bH
	DD	0b1977bH
	DD	0988167H
	DD	04d4b56H
	DD	0315574H
	DD	01a4e80H
	DD	0175088H
	DD	01a5385H
	DD	01a5384H
	DD	0195287H
	DD	0195387H
	DD	019558aH
	DD	0174f7cH
	DD	011354eH
	DD	0191f26H
	DD	0241b1cH
	DD	0221f1fH
	DD	0212120H
	DD	01e1f1fH
	DD	0282828H
	DD	04a4a4aH
	DD	0909090H
	DD	0c3c2c1H
	DD	0c8c7c6H
	DD	0c5c4c2H
	DD	0c3c3c3H
	DD	0c3c5c9H
	DD	0c3cad1H
	DD	0c3ced9H
	DD	0c4d1deH
	DD	0c6d3e4H
	DD	0c6d2e4H
	DD	0c2d0e1H
	DD	0c1cedeH
	DD	0c3cddbH
	DD	0cad0d8H
	DD	0ced2d7H
	DD	0d4d5d6H
	DD	0e4ddd5H
	DD	0ece2d5H
	DD	0ebe1d6H
	DD	0e7dfd6H
	DD	0e9e1d7H
	DD	0eee5daH
	DD	0ece3d9H
	DD	0f5ece4H
	DD	01442403eH
	DD	0d4000000H
	DD	0ffbbbbbbH
	DD	0ffffffffH
	DD	0ffffffffH
	DD	0ffffffffH
	DD	0ffffffffH
	DD	0ffffffffH
	DD	0ffffffffH
	DD	0ffffffffH
	DD	0ffffffffH
	DD	0ffffffffH
	DD	0ffffffffH
	DD	07d7e7e7eH
	DD	0cfcfcfH
	DD	0ffffffH
	DD	0ffffffH
	DD	0ffffffH
	DD	0ffffffH
	DD	0ffffffH
	DD	0ffffffH
	DD	0ffffffH
	DD	0ffffffH
	DD	0ffffffH
	DD	0ffffffH
	DD	0ffffffH
	DD	0ffffffH
	DD	0ffffffH
	DD	0ffffffH
	DD	0ffffffH
	DD	0ffffffH
	DD	0ffffffH
	DD	0ffffffH
	DD	0ffffffH
	DD	0ffffffH
	DD	0ffffffH
	DD	0dddddeH
	DD	0919191H
	DD	08a7b6cH
	DD	0a48d75H
	DD	0c5a98cH
	DD	0e7c9a5H
	DD	0edcea8H
	DD	0f1d2acH
	DD	0efd1adH
	DD	0edceabH
	DD	0ecceabH
	DD	0eecfacH
	DD	0f0d1aeH
	DD	0f1d2aeH
	DD	0f3d3b0H
	DD	0f4d4b1H
	DD	0f4d5b1H
	DD	0f4d4b1H
	DD	0f4d4b1H
	DD	0f4d5b2H
	DD	0f2d1aeH
	DD	0f0cfadH
	DD	0e6c8a7H
	DD	0d3b495H
	DD	0f7d2aaH
	DD	0ddcebcH
	DD	074b0e9H
	DD	065b1f4H
	DD	06eb4f2H
	DD	06fb4f6H
	DD	06db7f5H
	DD	075baf8H
	DD	071bbf8H
	DD	06fbbf4H
	DD	06fb8efH
	DD	071b6ecH
	DD	06cb8edH
	DD	06cb1e9H
	DD	0a2b7c6H
	DD	0eed3afH
	DD	0ffd9b0H
	DD	0f8d4adH
	DD	0f6d3adH
	DD	0f0cda8H
	DD	0dcbb96H
	DD	0c1a282H
	DD	0b3967aH
	DD	0ba9e83H
	DD	0c9ae90H
	DD	0dabc9cH
	DD	0dcbd9bH
	DD	0d0b594H
	DD	0cdb292H
	DD	0ceb393H
	DD	0d0b595H
	DD	0ccb397H
	DD	0cfb496H
	DD	0d2b493H
	DD	0b3a698H
	DD	098949bH
	DD	0555557H
	DD	06d6f65H
	DD	07d7a77H
	DD	0827e7fH
	DD	0868283H
	DD	07b7678H
	DD	0534e4aH
	DD	039372eH
	DD	03c353cH
	DD	05a5752H
	DD	0ddd5b5H
	DD	0fad8b1H
	DD	0e6c2a0H
	DD	0dbbd9bH
	DD	0d6b694H
	DD	0ceaf8eH
	DD	0c4a787H
	DD	0bc9e81H
	DD	0b49b7dH
	DD	09d856aH
	DD	07d5549H
	DD	07c6d6fH
	DD	054474aH
	DD	0685c65H
	DD	0655c63H
	DD	05a5160H
	DD	0655b71H
	DD	04a4859H
	DD	0141c1fH
	DD	059565bH
	DD	08d8999H
	DD	08079a0H
	DD	0474754H
	DD	02e231eH
	DD	085705aH
	DD	0af9574H
	DD	0ad9274H
	DD	07e756bH
	DD	03e5068H
	DD	0143e6bH
	DD	0165287H
	DD	01c5187H
	DD	01d5183H
	DD	0195283H
	DD	0195387H
	DD	01b568aH
	DD	01a4f7eH
	DD	0153a54H
	DD	01a242dH
	DD	01e1c1eH
	DD	0221f1dH
	DD	023201eH
	DD	0222222H
	DD	0222222H
	DD	03c3c3cH
	DD	07e7e7dH
	DD	0b6b5b4H
	DD	0cac8c7H
	DD	0c8c5c4H
	DD	0c3c3c2H
	DD	0c2c4c6H
	DD	0c2c7ceH
	DD	0c3ccd7H
	DD	0c6d2e0H
	DD	0c6d4e3H
	DD	0c4d2e2H
	DD	0c3d0e2H
	DD	0c2cfe1H
	DD	0c2ceddH
	DD	0c8cfdaH
	DD	0cdd1d7H
	DD	0d9d7d5H
	DD	0e2dcd6H
	DD	0e6dfd7H
	DD	0ebe1d6H
	DD	0e9e0d5H
	DD	0e4dcd4H
	DD	0e2dbd3H
	DD	0e7dfd7H
	DD	0f1e8ddH
	DD	0f4eadfH
	DD	0faf0e6H
	DD	01443403eH
	DD	0d4000000H
	DD	0ffbbbbbbH
	DD	0ffffffffH
	DD	0ffffffffH
	DD	0ffffffffH
	DD	0ffffffffH
	DD	0ffffffffH
	DD	0ffffffffH
	DD	0ffffffffH
	DD	0ffffffffH
	DD	0ffffffffH
	DD	0ffffffffH
	DD	07d7e7e7eH
	DD	0cfcfcfH
	DD	0ffffffH
	DD	0ffffffH
	DD	0ffffffH
	DD	0ffffffH
	DD	0ffffffH
	DD	0ffffffH
	DD	0ffffffH
	DD	0ffffffH
	DD	0ffffffH
	DD	0ffffffH
	DD	0ffffffH
	DD	0ffffffH
	DD	0ffffffH
	DD	0ffffffH
	DD	0ffffffH
	DD	0ffffffH
	DD	0ffffffH
	DD	0ffffffH
	DD	0f9f9f9H
	DD	0c8c8c8H
	DD	0727272H
	DD	0404141H
	DD	0262928H
	DD	0807463H
	DD	099866dH
	DD	0b39c7dH
	DD	0e0c5a4H
	DD	0ebcfafH
	DD	0eccfacH
	DD	0efcfaaH
	DD	0efd1acH
	DD	0f0d1adH
	DD	0f1d2afH
	DD	0f2d4b1H
	DD	0f4d5b3H
	DD	0f5d7b3H
	DD	0f5d6b2H
	DD	0f4d6b3H
	DD	0f4d6b3H
	DD	0f5d5b2H
	DD	0f5d4b1H
	DD	0f3d2aeH
	DD	0eeceacH
	DD	0d5b594H
	DD	0edcaa5H
	DD	0e5d3b9H
	DD	07ab1e3H
	DD	065aff5H
	DD	06fb3f3H
	DD	06cb4f2H
	DD	06db6f6H
	DD	06fb9f2H
	DD	072b9f5H
	DD	075b9f4H
	DD	06fb9f4H
	DD	06cb7f5H
	DD	063b6faH
	DD	06bb2e7H
	DD	0bdc0b9H
	DD	0fdd8a9H
	DD	0fcd6afH
	DD	0f8d3afH
	DD	0f3d2adH
	DD	0e1c2a0H
	DD	0c8a98cH
	DD	0bb9e7eH
	DD	0c1a485H
	DD	0d0b295H
	DD	0dbbd9cH
	DD	0dcbd9dH
	DD	0d6b999H
	DD	0d3b697H
	DD	0d4b999H
	DD	0d4b999H
	DD	0d3b899H
	DD	0d6b997H
	DD	0d8bc99H
	DD	0d9bd9bH
	DD	0c7ad90H
	DD	0b0aea9H
	DD	066686dH
	DD	0545353H
	DD	074736fH
	DD	07b7879H
	DD	0837f7fH
	DD	0898485H
	DD	0736e6fH
	DD	04f4d4bH
	DD	0484d44H
	DD	0322b2cH
	DD	09b8f7bH
	DD	0fee2bfH
	DD	0ebc2a0H
	DD	0e1bf9bH
	DD	0d7b898H
	DD	0cfb190H
	DD	0c7aa8aH
	DD	0bea285H
	DD	0b79b7eH
	DD	0af9a79H
	DD	0967e6cH
	DD	09a8d95H
	DD	0766e7aH
	DD	077696eH
	DD	06f626eH
	DD	05d525cH
	DD	06b6972H
	DD	0515066H
	DD	0191529H
	DD	02c2f2dH
	DD	06b6164H
	DD	09b939aH
	DD	08e8996H
	DD	0574e5bH
	DD	0231c26H
	DD	0535559H
	DD	05a6571H
	DD	0415975H
	DD	01d4f7dH
	DD	0194b7fH
	DD	01d4570H
	DD	01c5085H
	DD	01a5185H
	DD	01a5188H
	DD	01c548aH
	DD	01e5185H
	DD	0193e65H
	DD	0182838H
	DD	01f1e1aH
	DD	0281f1aH
	DD	0272122H
	DD	0222123H
	DD	0211e1dH
	DD	031302fH
	DD	0646565H
	DD	0a5a4a4H
	DD	0c5c4c3H
	DD	0c7c5c3H
	DD	0c5c3c2H
	DD	0c4c5c7H
	DD	0c4c7cdH
	DD	0c2cad3H
	DD	0c2cddaH
	DD	0c3cfdfH
	DD	0c4d2e3H
	DD	0c4d2e2H
	DD	0c1ceddH
	DD	0c0cbddH
	DD	0c1cddcH
	DD	0ccd2daH
	DD	0dad9d9H
	DD	0e2dcd7H
	DD	0e8dfd6H
	DD	0ece2d6H
	DD	0ede2d7H
	DD	0eae1d7H
	DD	0e5ded5H
	DD	0e3dbd3H
	DD	0e5ddd5H
	DD	0ece4daH
	DD	0f3eadfH
	DD	0f2e8deH
	DD	0faf0e6H
	DD	01444413eH
	DD	0d4000000H
	DD	0ffbbbbbbH
	DD	0ffffffffH
	DD	0ffffffffH
	DD	0ffffffffH
	DD	0ffffffffH
	DD	0ffffffffH
	DD	0ffffffffH
	DD	0ffffffffH
	DD	0ffffffffH
	DD	0ffffffffH
	DD	0ffffffffH
	DD	07d7e7e7eH
	DD	0cfcfcfH
	DD	0ffffffH
	DD	0ffffffH
	DD	0ffffffH
	DD	0ffffffH
	DD	0ffffffH
	DD	0ffffffH
	DD	0ffffffH
	DD	0ffffffH
	DD	0ffffffH
	DD	0ffffffH
	DD	0ffffffH
	DD	0ffffffH
	DD	0ffffffH
	DD	0ffffffH
	DD	0ffffffH
	DD	0ffffffH
	DD	0eaeaeaH
	DD	0b2b2b2H
	DD	0676767H
	DD	0383838H
	DD	0313131H
	DD	0303132H
	DD	0403e3fH
	DD	08e7865H
	DD	093826aH
	DD	0958872H
	DD	0bca38aH
	DD	0d1b999H
	DD	0ddc3a1H
	DD	0e8cbacH
	DD	0efd2acH
	DD	0f6d4adH
	DD	0f5d6b1H
	DD	0f3d6b2H
	DD	0f7d6b2H
	DD	0f5d8b5H
	DD	0f7d8b5H
	DD	0f7d7b6H
	DD	0f3d6b6H
	DD	0f6d4b1H
	DD	0f7d5b0H
	DD	0f4d4aeH
	DD	0d7be9fH
	DD	0dcbc97H
	DD	0ead7b9H
	DD	084b4e1H
	DD	068aff3H
	DD	070b3f1H
	DD	070b4f2H
	DD	06fb6f4H
	DD	070b6f4H
	DD	071b8f4H
	DD	070b8f5H
	DD	071b8f5H
	DD	06fb6f5H
	DD	063b4f7H
	DD	078b1ddH
	DD	0d2c5b5H
	DD	0ffdbacH
	DD	0fad7aeH
	DD	0f4d3aeH
	DD	0e8c9a8H
	DD	0d4b594H
	DD	0c3a587H
	DD	0c9aa8aH
	DD	0d7b696H
	DD	0e0bf9eH
	DD	0e1c1a0H
	DD	0dbbc9bH
	DD	0d8ba9aH
	DD	0d9bb9cH
	DD	0d9bc9dH
	DD	0d9bf9dH
	DD	0dabf9dH
	DD	0d9bf9eH
	DD	0dbbf9eH
	DD	0dcbd9dH
	DD	0debe9cH
	DD	0c0ab94H
	DD	09ea1a0H
	DD	0464543H
	DD	0645d5aH
	DD	074716eH
	DD	07e7c7aH
	DD	08d8887H
	DD	08e8a88H
	DD	0767170H
	DD	0554e4aH
	DD	02c332dH
	DD	0585345H
	DD	0f7debbH
	DD	0edc9a3H
	DD	0debe99H
	DD	0d9ba94H
	DD	0d1b391H
	DD	0c9ac8bH
	DD	0c1a787H
	DD	0b99f81H
	DD	0b49a7dH
	DD	0ac9778H
	DD	0856255H
	DD	087707cH
	DD	07c737aH
	DD	0484246H
	DD	0292531H
	DD	0392f33H
	DD	072696aH
	DD	0897f89H
	DD	0776262H
	DD	0746668H
	DD	0756f79H
	DD	0aea3aaH
	DD	09e9da3H
	DD	0574c56H
	DD	0e243cH
	DD	01f527fH
	DD	01d598eH
	DD	018558cH
	DD	0185384H
	DD	01a5187H
	DD	01d5185H
	DD	01e5286H
	DD	01e5589H
	DD	01c5388H
	DD	01a446cH
	DD	01d2d3dH
	DD	01d1c1eH
	DD	0211e1eH
	DD	0221f20H
	DD	01d1d1eH
	DD	01d1d1dH
	DD	02a2929H
	DD	04e4b4cH
	DD	08c8b8aH
	DD	0bebcbbH
	DD	0c9c7c6H
	DD	0c5c3c3H
	DD	0c4c4c4H
	DD	0c4c7ccH
	DD	0c4cbd5H
	DD	0c3cddaH
	DD	0c2cfddH
	DD	0c2cfdfH
	DD	0c1cddfH
	DD	0c1cddeH
	DD	0c3cedbH
	DD	0c6ced8H
	DD	0c6cdd9H
	DD	0cdd2d8H
	DD	0dcd9d7H
	DD	0e9e1d7H
	DD	0eee3d8H
	DD	0ede3d8H
	DD	0ece2d8H
	DD	0ebe1d6H
	DD	0e6dfd6H
	DD	0e4ddd5H
	DD	0e5ddd5H
	DD	0ece4d9H
	DD	0f3eadeH
	DD	0f2e9deH
	DD	0ebe2d8H
	DD	0f9efe4H
	DD	01445423fH
	DD	0d4000000H
	DD	0ffbbbbbbH
	DD	0ffffffffH
	DD	0ffffffffH
	DD	0ffffffffH
	DD	0ffffffffH
	DD	0ffffffffH
	DD	0ffffffffH
	DD	0ffffffffH
	DD	0ffffffffH
	DD	0ffffffffH
	DD	0ffffffffH
	DD	07d7e7e7eH
	DD	0cfcfcfH
	DD	0ffffffH
	DD	0ffffffH
	DD	0ffffffH
	DD	0ffffffH
	DD	0ffffffH
	DD	0ffffffH
	DD	0ffffffH
	DD	0ffffffH
	DD	0ffffffH
	DD	0ffffffH
	DD	0ffffffH
	DD	0ffffffH
	DD	0ffffffH
	DD	0fbfbfbH
	DD	0d1d1d1H
	DD	08d8d8dH
	DD	0515151H
	DD	0363636H
	DD	0373737H
	DD	03d3d3dH
	DD	03d3d3dH
	DD	0373839H
	DD	046423fH
	DD	0897560H
	DD	08f7e65H
	DD	0918068H
	DD	099846dH
	DD	0a49077H
	DD	0b7a083H
	DD	0cfb292H
	DD	0dcbf9fH
	DD	0e3c7acH
	DD	0edceb1H
	DD	0f6d6afH
	DD	0fddab1H
	DD	0ffdbb4H
	DD	0fbd9b3H
	DD	0fadab2H
	DD	0fad7b1H
	DD	0f7d6b3H
	DD	0f6d6b3H
	DD	0ebcca7H
	DD	0cdb18eH
	DD	0ebd1b2H
	DD	087b6deH
	DD	063adf4H
	DD	071b1f2H
	DD	06eb2f2H
	DD	06eb4f4H
	DD	06eb7f6H
	DD	06eb6f6H
	DD	06eb5f5H
	DD	06eb6f5H
	DD	06cb7f5H
	DD	060b2f6H
	DD	087b1d5H
	DD	0e4ccb1H
	DD	0ffdbacH
	DD	0f9d6afH
	DD	0f1cfabH
	DD	0debe9cH
	DD	0caae8fH
	DD	0cdae8cH
	DD	0dbba96H
	DD	0e3c3a0H
	DD	0e4c4a2H
	DD	0e1c19fH
	DD	0e0c09eH
	DD	0e0c1a0H
	DD	0e2c4a3H
	DD	0e2c4a3H
	DD	0e3c3a3H
	DD	0e0c5a3H
	DD	0e0c4a3H
	DD	0dfc3a1H
	DD	0dfc2a1H
	DD	0e0bfa0H
	DD	0d5b899H
	DD	0bdae9fH
	DD	076797aH
	DD	03f3d39H
	DD	06c6562H
	DD	074716eH
	DD	08c8b88H
	DD	09b9694H
	DD	0a5a09eH
	DD	0898481H
	DD	0464444H
	DD	03b3832H
	DD	0d7c1a1H
	DD	0f2d1aaH
	DD	0ddbe97H
	DD	0d8b994H
	DD	0d1b491H
	DD	0caae8cH
	DD	0c5a987H
	DD	0bea483H
	DD	0b69d7eH
	DD	0b59a7cH
	DD	0a58f75H
	DD	0755a56H
	DD	06f5a64H
	DD	0908789H
	DD	0554b48H
	DD	02c2528H
	DD	01d1618H
	DD	0665b5eH
	DD	0dacbceH
	DD	0b99fa0H
	DD	06a5b60H
	DD	06f696dH
	DD	0c8bdc2H
	DD	0a9a5adH
	DD	04c434eH
	DD	0122e47H
	DD	0265d8eH
	DD	0256195H
	DD	01c5889H
	DD	0185382H
	DD	0195186H
	DD	01b5488H
	DD	01b5586H
	DD	0154876H
	DD	015304bH
	DD	0211f24H
	DD	0251c19H
	DD	01f1f1eH
	DD	0212121H
	DD	0202020H
	DD	0212021H
	DD	03e3d3dH
	DD	07b7a7aH
	DD	0b2b2b1H
	DD	0c6c5c4H
	DD	0c6c3c2H
	DD	0c4c4c4H
	DD	0c5c9cdH
	DD	0c5cad2H
	DD	0c4cedaH
	DD	0c3cfdfH
	DD	0c3cfdeH
	DD	0c2cfdeH
	DD	0c1cddfH
	DD	0c1cbddH
	DD	0c3ccd9H
	DD	0ccd1d6H
	DD	0d8d6d5H
	DD	0dad8d7H
	DD	0e0dbd6H
	DD	0e7ded5H
	DD	0ebe2d5H
	DD	0ece3d6H
	DD	0ece2d7H
	DD	0eae1d7H
	DD	0e7e0d6H
	DD	0e4dcd4H
	DD	0e4ddd5H
	DD	0eae2d8H
	DD	0f3eadeH
	DD	0f6ede1H
	DD	0eee5dbH
	DD	0eae0d7H
	DD	0fcf2e8H
	DD	014464340H
	DD	0d4000000H
	DD	0ffbbbbbbH
	DD	0ffffffffH
	DD	0ffffffffH
	DD	0ffffffffH
	DD	0ffffffffH
	DD	0ffffffffH
	DD	0ffffffffH
	DD	0ffffffffH
	DD	0ffffffffH
	DD	0ffffffffH
	DD	0ffffffffH
	DD	07d7e7e7eH
	DD	0cfcfcfH
	DD	0ffffffH
	DD	0ffffffH
	DD	0ffffffH
	DD	0ffffffH
	DD	0ffffffH
	DD	0ffffffH
	DD	0ffffffH
	DD	0ffffffH
	DD	0ffffffH
	DD	0ffffffH
	DD	0ffffffH
	DD	0ffffffH
	DD	0edededH
	DD	0737373H
	DD	03e3e3eH
	DD	0353535H
	DD	0393939H
	DD	03e3e3eH
	DD	03d3d3dH
	DD	03d3d3dH
	DD	03c3c3cH
	DD	03a3a3bH
	DD	0393836H
	DD	05a5344H
	DD	0847465H
	DD	0937f6aH
	DD	0948168H
	DD	09f8569H
	DD	0988470H
	DD	07f807eH
	DD	06a8196H
	DD	06186a6H
	DD	07093b3H
	DD	094aabdH
	DD	0b9bdbeH
	DD	0d9cbbbH
	DD	0f2d7b4H
	DD	0fdddb3H
	DD	0ffddb3H
	DD	0fedbb2H
	DD	0f6d6b3H
	DD	0d8ba96H
	DD	0d9be9dH
	DD	09bb8d8H
	DD	059a9f2H
	DD	06aaeefH
	DD	06db0f2H
	DD	06db2f4H
	DD	06cb4f6H
	DD	06ab5f6H
	DD	06ab5f6H
	DD	06ab5f6H
	DD	068b5f7H
	DD	05cb0f7H
	DD	08ab4d2H
	DD	0edd1b1H
	DD	0ffd9b2H
	DD	0f6d3aeH
	DD	0e9c7a4H
	DD	0d8b796H
	DD	0d3b392H
	DD	0dabc9aH
	DD	0e4c4a1H
	DD	0e6c5a0H
	DD	0e3c29fH
	DD	0e2c2a2H
	DD	0e6c6a5H
	DD	0e7c7a6H
	DD	0e8c8a7H
	DD	0e9c9a7H
	DD	0e9c8a7H
	DD	0e9c8a7H
	DD	0e6c9a8H
	DD	0e4c6a5H
	DD	0e2c4a2H
	DD	0dfc1a0H
	DD	0e2c1a1H
	DD	0c9ae93H
	DD	0b1aca7H
	DD	0494e50H
	DD	044423eH
	DD	06c6462H
	DD	084827fH
	DD	09e9c9aH
	DD	0bcb7b5H
	DD	0a5a19fH
	DD	0625e5bH
	DD	0353533H
	DD	0a3907eH
	DD	0fdd9b1H
	DD	0e0be98H
	DD	0d7b995H
	DD	0d2b491H
	DD	0ccb08fH
	DD	0c6ab8bH
	DD	0c3a684H
	DD	0bca180H
	DD	0b59c7dH
	DD	0b79b7eH
	DD	099836fH
	DD	02d1c21H
	DD	04e4148H
	DD	06b5e61H
	DD	05a4844H
	DD	06a564fH
	DD	07b6965H
	DD	0aa9895H
	DD	09d9093H
	DD	065555dH
	DD	06d6068H
	DD	0998d8dH
	DD	0d0c6c6H
	DD	0aba3aaH
	DD	03a3542H
	DD	015385aH
	DD	02a649aH
	DD	0246197H
	DD	01c578bH
	DD	019538aH
	DD	01b578bH
	DD	0194c79H
	DD	0143351H
	DD	014232aH
	DD	0221e1dH
	DD	02a2021H
	DD	0221e22H
	DD	0202120H
	DD	0252525H
	DD	0333434H
	DD	0686767H
	DD	0a8a7a7H
	DD	0c4c3c2H
	DD	0c7c5c3H
	DD	0c4c3c3H
	DD	0c3c4c7H
	DD	0c6cbd2H
	DD	0c7d0ddH
	DD	0c5cfdcH
	DD	0c3cfddH
	DD	0c2cfe0H
	DD	0c1cedfH
	DD	0c1cdddH
	DD	0c2ccdcH
	DD	0c6ced9H
	DD	0d2d2d5H
	DD	0dfd9d5H
	DD	0e6dfd6H
	DD	0e9e1d7H
	DD	0ebe1d6H
	DD	0eae0d5H
	DD	0e9e0d5H
	DD	0e7e0d6H
	DD	0e7dfd6H
	DD	0e6ded6H
	DD	0e5ded5H
	DD	0e4dcd3H
	DD	0e9e1d8H
	DD	0f2e8deH
	DD	0f8eee3H
	DD	0f8efe4H
	DD	0f1e9deH
	DD	0f1e9deH
	DD	0fffef3H
	DD	014494744H
	DD	0d4000000H
	DD	0ffbbbbbbH
	DD	0ffffffffH
	DD	0ffffffffH
	DD	0ffffffffH
	DD	0ffffffffH
	DD	0ffffffffH
	DD	0ffffffffH
	DD	0ffffffffH
	DD	0ffffffffH
	DD	0ffffffffH
	DD	0ffffffffH
	DD	07d7e7e7eH
	DD	0cfcfcfH
	DD	0ffffffH
	DD	0ffffffH
	DD	0ffffffH
	DD	0ffffffH
	DD	0ffffffH
	DD	0ffffffH
	DD	0ffffffH
	DD	0ffffffH
	DD	0ffffffH
	DD	0ffffffH
	DD	0ffffffH
	DD	0ffffffH
	DD	0eaeaeaH
	DD	0525252H
	DD	0222222H
	DD	0343434H
	DD	03c3c3cH
	DD	03b3b3bH
	DD	03b3b3bH
	DD	03b3b3bH
	DD	03a3a3aH
	DD	0393939H
	DD	0323739H
	DD	030342fH
	DD	04c433cH
	DD	0796758H
	DD	08e7c63H
	DD	07c736eH
	DD	05b6980H
	DD	0375c84H
	DD	01c385aH
	DD	0e1c2fH
	DD	0c1a31H
	DD	0193657H
	DD	0305b87H
	DD	04a7fb0H
	DD	0779fc5H
	DD	0a4b5c9H
	DD	0c6c4c3H
	DD	0e1cfb9H
	DD	0e9caadH
	DD	0bfaf9bH
	DD	08baac6H
	DD	05aa3edH
	DD	05fa8edH
	DD	05fa7efH
	DD	064a9efH
	DD	067adf2H
	DD	068b1f5H
	DD	066b2f4H
	DD	066b2f4H
	DD	065b2f5H
	DD	05faff4H
	DD	091b5d0H
	DD	0f2d6afH
	DD	0ffd9b2H
	DD	0f6d0aaH
	DD	0e5c49cH
	DD	0dbbb95H
	DD	0debf9eH
	DD	0eac59dH
	DD	0e9c6a0H
	DD	0e5c5a1H
	DD	0e5c5a4H
	DD	0e9caa8H
	DD	0eccdabH
	DD	0ecccabH
	DD	0ecccabH
	DD	0edcdaaH
	DD	0edcda9H
	DD	0eccba7H
	DD	0eccba7H
	DD	0eacaa8H
	DD	0e8c8a6H
	DD	0e4c4a3H
	DD	0e1c1a0H
	DD	0dfbe9dH
	DD	0c2ab94H
	DD	09b9da0H
	DD	0272c31H
	DD	053514cH
	DD	0797270H
	DD	0959290H
	DD	09e9c9aH
	DD	0c0bbb9H
	DD	0b7b2b0H
	DD	0615f5eH
	DD	060574dH
	DD	0f0cfaeH
	DD	0e8c19eH
	DD	0d6b894H
	DD	0d3b592H
	DD	0cdb190H
	DD	0c7ad8dH
	DD	0c2a788H
	DD	0c0a482H
	DD	0b99f7eH
	DD	0b3997bH
	DD	0b89c7dH
	DD	0877362H
	DD	01c1620H
	DD	04f494dH
	DD	06f6167H
	DD	0836e72H
	DD	0b09288H
	DD	0b59083H
	DD	0d7baaeH
	DD	04a4348H
	DD	060e15H
	DD	04c474eH
	DD	0b7a5a4H
	DD	0d0c5c1H
	DD	0a3979cH
	DD	02b2837H
	DD	0234b72H
	DD	02b679fH
	DD	0226198H
	DD	01e598eH
	DD	01b4e7eH
	DD	015395fH
	DD	0182332H
	DD	0221d1dH
	DD	0211d1eH
	DD	0251f1eH
	DD	0272221H
	DD	0222020H
	DD	02a2a2aH
	DD	05e5e5eH
	DD	0999898H
	DD	0c1c0bfH
	DD	0c9c7c6H
	DD	0c4c2c1H
	DD	0c2c3c5H
	DD	0c4c9d1H
	DD	0c6cedaH
	DD	0c6d0dfH
	DD	0c5d1e1H
	DD	0c3cfddH
	DD	0c2ceddH
	DD	0c1cedfH
	DD	0c0ccdfH
	DD	0c1ccdcH
	DD	0cbd0d8H
	DD	0d8d6d7H
	DD	0e4dcd5H
	DD	0ece1d6H
	DD	0ebe2d7H
	DD	0ece2d7H
	DD	0ece1d7H
	DD	0e9e0d7H
	DD	0e8dfd6H
	DD	0e7dfd6H
	DD	0e5ded6H
	DD	0e3dcd4H
	DD	0e4dcd3H
	DD	0e8dfd6H
	DD	0f0e7ddH
	DD	0f9f0e4H
	DD	0fbf3e7H
	DD	0faf2e6H
	DD	0f7f0e4H
	DD	0faf3e7H
	DD	0fffffbH
	DD	0144b4945H
	DD	0d4000000H
	DD	0ffbbbbbbH
	DD	0ffffffffH
	DD	0ffffffffH
	DD	0ffffffffH
	DD	0ffffffffH
	DD	0ffffffffH
	DD	0ffffffffH
	DD	0ffffffffH
	DD	0ffffffffH
	DD	0ffffffffH
	DD	0ffffffffH
	DD	07d7e7e7eH
	DD	0cfcfcfH
	DD	0ffffffH
	DD	0ffffffH
	DD	0ffffffH
	DD	0ffffffH
	DD	0ffffffH
	DD	0ffffffH
	DD	0ffffffH
	DD	0ffffffH
	DD	0ffffffH
	DD	0ffffffH
	DD	0ffffffH
	DD	0ffffffH
	DD	0ffffffH
	DD	0d5d5d5H
	DD	0434343H
	DD	0e0e0eH
	DD	01a1a1aH
	DD	0272727H
	DD	0343434H
	DD	03a3a3aH
	DD	0393939H
	DD	0383838H
	DD	0333738H
	DD	0313535H
	DD	02e2f2dH
	DD	031312aH
	DD	04d4b46H
	DD	03e5971H
	DD	02b4c6aH
	DD	02a3136H
	DD	0221e1bH
	DD	01c1712H
	DD	017130fH
	DD	0d0b08H
	DD	0c0b05H
	DD	0101419H
	DD	0142e47H
	DD	027527aH
	DD	04676aaH
	DD	06193c5H
	DD	0729ac1H
	DD	05b80a5H
	DD	02f527bH
	DD	036567aH
	DD	03e6fa3H
	DD	04b8bc6H
	DD	05ca0dfH
	DD	061a9ebH
	DD	060a9edH
	DD	060a9eeH
	DD	063acefH
	DD	05aabf4H
	DD	094b1d1H
	DD	0f5d6b1H
	DD	0fcd9b0H
	DD	0edcaa7H
	DD	0e4c3a0H
	DD	0e3c59eH
	DD	0e8c9a2H
	DD	0e8c8a2H
	DD	0e7c8a2H
	DD	0eac9a6H
	DD	0edcdabH
	DD	0eecfacH
	DD	0efcfacH
	DD	0efcfacH
	DD	0efcfadH
	DD	0f0cfadH
	DD	0f0d0acH
	DD	0eeceaaH
	DD	0edcdaaH
	DD	0eccca8H
	DD	0e9caa4H
	DD	0e7c8a3H
	DD	0e5c5a1H
	DD	0e0c09eH
	DD	0d8ba98H
	DD	0baad9bH
	DD	0757b81H
	DD	0222226H
	DD	067645fH
	DD	083807dH
	DD	0908e8bH
	DD	0908e8bH
	DD	0a2a09fH
	DD	09f979aH
	DD	05c5956H
	DD	0c1a58bH
	DD	0efcca9H
	DD	0d7b795H
	DD	0d1b592H
	DD	0ccb28fH
	DD	0c9ae8cH
	DD	0c5a989H
	DD	0c1a486H
	DD	0b9a082H
	DD	0b49c7fH
	DD	0b1987bH
	DD	0b59d7dH
	DD	0726858H
	DD	01a121aH
	DD	048434dH
	DD	0474043H
	DD	06c5b62H
	DD	0806e6aH
	DD	0ba9d91H
	DD	0d3b9afH
	DD	08a7e79H
	DD	01a191bH
	DD	0585558H
	DD	0ccbbb8H
	DD	0c7b8b5H
	DD	08a797bH
	DD	013233bH
	DD	02c6093H
	DD	02c6ca6H
	DD	02d689dH
	DD	01f456eH
	DD	014253dH
	DD	0201c20H
	DD	0291f1cH
	DD	0222023H
	DD	01f2020H
	DD	01d1c1cH
	DD	0282827H
	DD	0545554H
	DD	0929291H
	DD	0bfbebdH
	DD	0c9c8c6H
	DD	0c6c5c3H
	DD	0c3c4c4H
	DD	0c2c7ccH
	DD	0c3cdd8H
	DD	0c7d4e4H
	DD	0c7d4e5H
	DD	0c5d1dfH
	DD	0c4cedbH
	DD	0c2cddbH
	DD	0c1ccdcH
	DD	0c1ccdeH
	DD	0c3cddcH
	DD	0ccd1d8H
	DD	0dfdad6H
	DD	0e8dfd6H
	DD	0ede2d8H
	DD	0ede3d7H
	DD	0eae2d7H
	DD	0e9e0d7H
	DD	0e9e0d7H
	DD	0e9e0d7H
	DD	0e9e0d7H
	DD	0e8e0d7H
	DD	0e6dfd6H
	DD	0e3ddd4H
	DD	0e6ded5H
	DD	0efe6dcH
	DD	0f7eee4H
	DD	0fdf4e8H
	DD	0fdf4e9H
	DD	0fcf3e7H
	DD	0fcf5e8H
	DD	0fef6eaH
	DD	0fffffaH
	DD	0144a4845H
	DD	0d4000000H
	DD	0ffbbbbbbH
	DD	0ffffffffH
	DD	0ffffffffH
	DD	0ffffffffH
	DD	0ffffffffH
	DD	0ffffffffH
	DD	0ffffffffH
	DD	0ffffffffH
	DD	0ffffffffH
	DD	0ffffffffH
	DD	0ffffffffH
	DD	07d7e7e7eH
	DD	0cfcfcfH
	DD	0ffffffH
	DD	0ffffffH
	DD	0ffffffH
	DD	0ffffffH
	DD	0ffffffH
	DD	0ffffffH
	DD	0ffffffH
	DD	0ffffffH
	DD	0ffffffH
	DD	0ffffffH
	DD	0ffffffH
	DD	0ffffffH
	DD	0ffffffH
	DD	0ffffffH
	DD	0c4c4c4H
	DD	0585858H
	DD	0141414H
	DD	0d0d0dH
	DD	0151515H
	DD	01d1d1dH
	DD	02a2a2aH
	DD	0343434H
	DD	0353836H
	DD	0303534H
	DD	02b3439H
	DD	02c3940H
	DD	0303336H
	DD	02d343cH
	DD	02d3034H
	DD	03a332cH
	DD	0373635H
	DD	0333435H
	DD	0303030H
	DD	0292d2cH
	DD	0222724H
	DD	0282018H
	DD	01a1811H
	DD	012130cH
	DD	0151516H
	DD	0182639H
	DD	024354aH
	DD	0161d31H
	DD	0c050cH
	DD	0120604H
	DD	0c080eH
	DD	0121523H
	DD	022354aH
	DD	038618bH
	DD	0538fc8H
	DD	05ca2eaH
	DD	05aa2eaH
	DD	074a3dbH
	DD	0e5ccb1H
	DD	0fbdab2H
	DD	0efcda8H
	DD	0ebcaa4H
	DD	0e8caa6H
	DD	0ebcca7H
	DD	0eacba5H
	DD	0eacca6H
	DD	0efd0abH
	DD	0f1d2adH
	DD	0f2d3aeH
	DD	0f3d4afH
	DD	0f4d3aeH
	DD	0f4d3aeH
	DD	0f3d2adH
	DD	0f3d1adH
	DD	0f1d1adH
	DD	0efcfacH
	DD	0edcdaaH
	DD	0ebcca7H
	DD	0e8caa4H
	DD	0e7c8a3H
	DD	0e3c3a0H
	DD	0e0be9cH
	DD	0ceb395H
	DD	0b3ac9fH
	DD	04e5256H
	DD	02f2d2fH
	DD	0706e69H
	DD	084827eH
	DD	08a8783H
	DD	0868584H
	DD	07a797bH
	DD	04e4a4eH
	DD	07f6c57H
	DD	0efceabH
	DD	0dbbb99H
	DD	0d2b592H
	DD	0ceb28fH
	DD	0caaf8cH
	DD	0c6ab88H
	DD	0c3a787H
	DD	0c0a385H
	DD	0b79e81H
	DD	0b39b7eH
	DD	0af9679H
	DD	0b69d7dH
	DD	0655a4cH
	DD	090009H
	DD	03e3746H
	DD	0726469H
	DD	0695858H
	DD	0655e5bH
	DD	0b0a5a0H
	DD	06f6560H
	DD	0ab9797H
	DD	04f4547H
	DD	0877774H
	DD	0d3c0beH
	DD	0a89595H
	DD	0605357H
	DD	0203a5bH
	DD	03372aaH
	DD	02a6399H
	DD	0264060H
	DD	0261e24H
	DD	0261d1dH
	DD	030211bH
	DD	0271f20H
	DD	01b1b22H
	DD	0232323H
	DD	0444444H
	DD	0848383H
	DD	0bab9b8H
	DD	0c9c9c8H
	DD	0c5c5c4H
	DD	0c3c3c3H
	DD	0c3c5c8H
	DD	0c2c8d0H
	DD	0c3cedcH
	DD	0c6d6e7H
	DD	0c8d8e9H
	DD	0c5d1e1H
	DD	0c2ccd9H
	DD	0c2ccd9H
	DD	0c2cdddH
	DD	0c0cbddH
	DD	0c4ccd9H
	DD	0d0d3d7H
	DD	0dddad7H
	DD	0ece2d6H
	DD	0efe3d7H
	DD	0ebe2d8H
	DD	0ebe1d8H
	DD	0e9e1d7H
	DD	0e8e0d7H
	DD	0e9dfd7H
	DD	0e9e0d7H
	DD	0e9e0d7H
	DD	0e7e0d6H
	DD	0e6dfd6H
	DD	0e7dfd6H
	DD	0eee4daH
	DD	0f7eee3H
	DD	0fbf2e7H
	DD	0fcf4e8H
	DD	0fcf3e8H
	DD	0fbf3e7H
	DD	0fcf4e8H
	DD	0fbf3e8H
	DD	0fffff6H
	DD	0144a4744H
	DD	0d4000000H
	DD	0ffbbbbbbH
	DD	0ffffffffH
	DD	0ffffffffH
	DD	0ffffffffH
	DD	0ffffffffH
	DD	0ffffffffH
	DD	0ffffffffH
	DD	0ffffffffH
	DD	0ffffffffH
	DD	0ffffffffH
	DD	0ffffffffH
	DD	07d7e7e7eH
	DD	0cfcfcfH
	DD	0ffffffH
	DD	0ffffffH
	DD	0ffffffH
	DD	0ffffffH
	DD	0ffffffH
	DD	0ffffffH
	DD	0ffffffH
	DD	0ffffffH
	DD	0ffffffH
	DD	0ffffffH
	DD	0ffffffH
	DD	0ffffffH
	DD	0ffffffH
	DD	0ffffffH
	DD	0ffffffH
	DD	0f8f8f8H
	DD	0b5b5b5H
	DD	0515151H
	DD	0181818H
	DD	0f0f0fH
	DD	0101010H
	DD	0151515H
	DD	01c1e1eH
	DD	0242a29H
	DD	0161c1eH
	DD	022292dH
	DD	0334356H
	DD	0384859H
	DD	039424aH
	DD	034383aH
	DD	0363432H
	DD	0393736H
	DD	0383737H
	DD	0363736H
	DD	0313634H
	DD	0313132H
	DD	02f312dH
	DD	02b2d27H
	DD	0212324H
	DD	0171919H
	DD	013130fH
	DD	014150eH
	DD	0121814H
	DD	0101415H
	DD	0171412H
	DD	080703H
	DD	00H
	DD	03H
	DD	0f141dH
	DD	0314b67H
	DD	04189c4H
	DD	07d9cbbH
	DD	0ffdcabH
	DD	0f9e4bbH
	DD	0f4d4afH
	DD	0f2cda8H
	DD	0efcea5H
	DD	0eecfaaH
	DD	0f2d3aeH
	DD	0f4d6b1H
	DD	0f4d6b0H
	DD	0f4d6afH
	DD	0f4d5afH
	DD	0f4d6b0H
	DD	0f7d5afH
	DD	0f8d5afH
	DD	0f8d4aeH
	DD	0f6d3adH
	DD	0f1d0adH
	DD	0eeceabH
	DD	0edcdaaH
	DD	0eccca8H
	DD	0e8caa3H
	DD	0e5c6a1H
	DD	0e1c19eH
	DD	0e2c09dH
	DD	0bfa78cH
	DD	0a1a19dH
	DD	02d3031H
	DD	0423d3cH
	DD	0726f6bH
	DD	0817f7bH
	DD	08f8e8aH
	DD	09b9695H
	DD	0727072H
	DD	04a453dH
	DD	0ceae90H
	DD	0e4c4a0H
	DD	0d1b592H
	DD	0cdb390H
	DD	0c9b08dH
	DD	0c7ac88H
	DD	0c4a886H
	DD	0c1a584H
	DD	0bea082H
	DD	0b59d7fH
	DD	0b39a7dH
	DD	0ae9678H
	DD	0b79c7eH
	DD	05a4e42H
	DD	03H
	DD	0393246H
	DD	06b5b60H
	DD	0614a43H
	DD	0706161H
	DD	0a8929aH
	DD	083787dH
	DD	05f5359H
	DD	05c5152H
	DD	0bfa59cH
	DD	0b09a94H
	DD	098878bH
	DD	0372e35H
	DD	019293fH
	DD	01f3b51H
	DD	01f2632H
	DD	0231b1fH
	DD	0252022H
	DD	0202223H
	DD	01f2020H
	DD	01e1d1bH
	DD	0353534H
	DD	0727171H
	DD	0b5b4b4H
	DD	0cac9c8H
	DD	0c6c4c3H
	DD	0c4c3c3H
	DD	0c3c5c9H
	DD	0c3c8cfH
	DD	0c2cbd6H
	DD	0c1cddbH
	DD	0c3d0dfH
	DD	0c6d4e6H
	DD	0c4d2e2H
	DD	0c1cddaH
	DD	0c1c9d6H
	DD	0c1c9daH
	DD	0c1ccdcH
	DD	0c5cedaH
	DD	0d3d3d6H
	DD	0e3dcd4H
	DD	0e9e1d7H
	DD	0ede2d8H
	DD	0ece2d8H
	DD	0eae1d8H
	DD	0e9e1d8H
	DD	0e9e0d8H
	DD	0e8e0d7H
	DD	0e9e0d7H
	DD	0e9e0d7H
	DD	0e8e0d7H
	DD	0e6ded5H
	DD	0e8e0d7H
	DD	0eee5daH
	DD	0f5ece1H
	DD	0fbf2e7H
	DD	0fbf2e8H
	DD	0faf2e7H
	DD	0faf2e7H
	DD	0faf1e6H
	DD	0faf1e6H
	DD	0faf2e7H
	DD	0fffff6H
	DD	0144a4744H
	DD	0d4000000H
	DD	0ffbbbbbbH
	DD	0ffffffffH
	DD	0ffffffffH
	DD	0ffffffffH
	DD	0ffffffffH
	DD	0ffffffffH
	DD	0ffffffffH
	DD	0ffffffffH
	DD	0ffffffffH
	DD	0ffffffffH
	DD	0ffffffffH
	DD	07d7e7e7eH
	DD	0cfcfcfH
	DD	0ffffffH
	DD	0ffffffH
	DD	0ffffffH
	DD	0ffffffH
	DD	0ffffffH
	DD	0ffffffH
	DD	0ffffffH
	DD	0ffffffH
	DD	0ffffffH
	DD	0ffffffH
	DD	0ffffffH
	DD	0ffffffH
	DD	0ffffffH
	DD	0ffffffH
	DD	0ffffffH
	DD	0ffffffH
	DD	0ffffffH
	DD	0f2f2f2H
	DD	0b0b0b0H
	DD	0717171H
	DD	0474646H
	DD	0282828H
	DD	0151919H
	DD	0f1212H
	DD	0c0b06H
	DD	040200H
	DD	020104H
	DD	011181eH
	DD	0273241H
	DD	039485bH
	DD	03f4955H
	DD	0393e46H
	DD	0343539H
	DD	0363633H
	DD	0373934H
	DD	032383fH
	DD	033383cH
	DD	0363937H
	DD	0363533H
	DD	0343132H
	DD	0262a30H
	DD	0212428H
	DD	0222120H
	DD	01d1e1eH
	DD	0161a18H
	DD	080709H
	DD	070405H
	DD	060502H
	DD	010100H
	DD	010000H
	DD	0111d2dH
	DD	04879a3H
	DD	0bdb4a4H
	DD	0fcdaafH
	DD	0fed6aeH
	DD	0f5d3abH
	DD	0f4d8b0H
	DD	0f7d8b2H
	DD	0f7d9b3H
	DD	0f8d9b5H
	DD	0f8d8b4H
	DD	0f9d9b2H
	DD	0f8d9b0H
	DD	0f7d8b0H
	DD	0f8d6b0H
	DD	0f9d5aeH
	DD	0f8d4adH
	DD	0f6d2abH
	DD	0f2d1acH
	DD	0efceaaH
	DD	0eecda9H
	DD	0eccba8H
	DD	0e7c9a4H
	DD	0e5c5a0H
	DD	0e2c19dH
	DD	0e0bf9dH
	DD	0ab9981H
	DD	08c9193H
	DD	01c1b1aH
	DD	0514b49H
	DD	0726f6cH
	DD	0868380H
	DD	0aaa7a3H
	DD	0aba39fH
	DD	0666163H
	DD	08d7e68H
	DD	0ebc9a6H
	DD	0d2b594H
	DD	0ccb28fH
	DD	0cab08dH
	DD	0c5ad8aH
	DD	0c3a886H
	DD	0c1a584H
	DD	0bea383H
	DD	0bb9e80H
	DD	0b59b7fH
	DD	0af987eH
	DD	0ae9678H
	DD	0b69f7dH
	DD	05b4f40H
	DD	050007H
	DD	03f3141H
	DD	05c4c50H
	DD	071564dH
	DD	0736669H
	DD	060525dH
	DD	069656bH
	DD	0424348H
	DD	0746161H
	DD	0d0b3a8H
	DD	098817aH
	DD	07d6c77H
	DD	01e151fH
	DD	0201d1eH
	DD	01e1b1aH
	DD	0261d1dH
	DD	0242022H
	DD	01f2225H
	DD	0292526H
	DD	02f2e31H
	DD	05f5d5fH
	DD	0a8a7a7H
	DD	0c8c7c6H
	DD	0c8c7c6H
	DD	0c5c4c4H
	DD	0c4c4c6H
	DD	0c3c7cdH
	DD	0c2cbd6H
	DD	0c2cddaH
	DD	0c1ceddH
	DD	0c1cddeH
	DD	0c2cddfH
	DD	0c2cedfH
	DD	0c1ccdbH
	DD	0c3ccd6H
	DD	0c5cdd7H
	DD	0c5cdd9H
	DD	0c6cdd8H
	DD	0d3d4d6H
	DD	0e3dcd5H
	DD	0ebe1d5H
	DD	0ece2d8H
	DD	0eae1d8H
	DD	0e9e0d7H
	DD	0e9e0d7H
	DD	0e9e0d7H
	DD	0e9e1d8H
	DD	0e9e1d8H
	DD	0e9e0d7H
	DD	0e8e0d7H
	DD	0e7ded5H
	DD	0e7dfd6H
	DD	0ede5dbH
	DD	0f5ece1H
	DD	0faf1e5H
	DD	0fbf2e7H
	DD	0faf1e7H
	DD	0f9f1e7H
	DD	0f9f1e6H
	DD	0f9f1e6H
	DD	0faf2e7H
	DD	0fbf2e7H
	DD	0fffff7H
	DD	0144a4744H
	DD	0d4000000H
	DD	0ffbbbbbbH
	DD	0ffffffffH
	DD	0ffffffffH
	DD	0ffffffffH
	DD	0ffffffffH
	DD	0ffffffffH
	DD	0ffffffffH
	DD	0ffffffffH
	DD	0ffffffffH
	DD	0ffffffffH
	DD	0ffffffffH
	DD	07d7e7e7eH
	DD	0cfcfcfH
	DD	0ffffffH
	DD	0ffffffH
	DD	0ffffffH
	DD	0ffffffH
	DD	0ffffffH
	DD	0ffffffH
	DD	0ffffffH
	DD	0ffffffH
	DD	0ffffffH
	DD	0ffffffH
	DD	0ffffffH
	DD	0ffffffH
	DD	0ffffffH
	DD	0ffffffH
	DD	0ffffffH
	DD	0ffffffH
	DD	0ffffffH
	DD	0ffffffH
	DD	0ffffffH
	DD	0f3f3f3H
	DD	0bebfbfH
	DD	0676868H
	DD	02a2b2bH
	DD	0242424H
	DD	0202020H
	DD	0161616H
	DD	0121312H
	DD	0161514H
	DD	0171614H
	DD	01e1d1eH
	DD	0282c38H
	DD	0323d4bH
	DD	03c495aH
	DD	03a4757H
	DD	0373e45H
	DD	0383638H
	DD	03b3734H
	DD	0363836H
	DD	03b3a37H
	DD	0423b3aH
	DD	03b3a39H
	DD	0343737H
	DD	0313031H
	DD	02b2b2cH
	DD	0282828H
	DD	0121212H
	DD	020202H
	DD	050404H
	DD	040405H
	DD	030305H
	DD	050000H
	DD	01d3551H
	DD	0518cc1H
	DD	0879eb8H
	DD	0cebfadH
	DD	0f8d7adH
	DD	0ffdfb6H
	DD	0ffdfb6H
	DD	0fbdcb4H
	DD	0f7d9b3H
	DD	0f7d9b2H
	DD	0f9d6b3H
	DD	0fad8b2H
	DD	0fbd8b2H
	DD	0fad6b2H
	DD	0f9d5adH
	DD	0f7d3adH
	DD	0f5d2abH
	DD	0f4d1acH
	DD	0f1cea9H
	DD	0efcca6H
	DD	0edcba6H
	DD	0e6c6a7H
	DD	0e5c39fH
	DD	0e4c4a1H
	DD	0cdb091H
	DD	0968d7aH
	DD	0747c7fH
	DD	0161412H
	DD	058514fH
	DD	06d696aH
	DD	0a39f9cH
	DD	0c5bfbbH
	DD	09c9593H
	DD	069605cH
	DD	0d3b696H
	DD	0ddbd97H
	DD	0ccb08eH
	DD	0c9ad8dH
	DD	0c8ac8bH
	DD	0c5a988H
	DD	0c3a686H
	DD	0bfa284H
	DD	0ba9f83H
	DD	0b49c81H
	DD	0b19a7fH
	DD	0b2977aH
	DD	0ae987cH
	DD	0baa082H
	DD	05c5041H
	DD	01000cH
	DD	0332332H
	DD	06f5f68H
	DD	06c5757H
	DD	04e444dH
	DD	0544d51H
	DD	0565454H
	DD	05f514bH
	DD	0c8a79eH
	DD	0aa8f84H
	DD	0968282H
	DD	0493743H
	DD	01d151fH
	DD	027221fH
	DD	021211fH
	DD	0212222H
	DD	01e1e1eH
	DD	0232323H
	DD	0515050H
	DD	0979696H
	DD	0c1c0c0H
	DD	0cac8c8H
	DD	0c4c3c2H
	DD	0c3c4c5H
	DD	0c3c7ccH
	DD	0c3c9d2H
	DD	0c2ccd8H
	DD	0c2cedeH
	DD	0c1cedeH
	DD	0c1cdddH
	DD	0c1ccddH
	DD	0c0cbdcH
	DD	0c2cbd8H
	DD	0c9cfd7H
	DD	0d2d3d5H
	DD	0d7d7d6H
	DD	0d7d7d8H
	DD	0d6d5d6H
	DD	0e3dbd5H
	DD	0ebe1d5H
	DD	0e9e1d6H
	DD	0e9e1d8H
	DD	0e8e0d7H
	DD	0e8e0d7H
	DD	0e9e0d7H
	DD	0e9e0d7H
	DD	0e9e0d7H
	DD	0e8e0d7H
	DD	0e8e0d7H
	DD	0e6ded5H
	DD	0e7ded5H
	DD	0ede5d9H
	DD	0f4ece0H
	DD	0f9f0e5H
	DD	0faf1e6H
	DD	0f9f0e5H
	DD	0f9f1e6H
	DD	0f9f1e6H
	DD	0f9f1e6H
	DD	0f9f1e6H
	DD	0faf2e7H
	DD	0fbf3e8H
	DD	0fffff7H
	DD	0144a4744H
	DD	0d4000000H
	DD	0ffbbbbbbH
	DD	0ffffffffH
	DD	0ffffffffH
	DD	0ffffffffH
	DD	0ffffffffH
	DD	0ffffffffH
	DD	0ffffffffH
	DD	0ffffffffH
	DD	0ffffffffH
	DD	0ffffffffH
	DD	0ffffffffH
	DD	07d7e7e7eH
	DD	0cfcfcfH
	DD	0ffffffH
	DD	0ffffffH
	DD	0ffffffH
	DD	0ffffffH
	DD	0ffffffH
	DD	0ffffffH
	DD	0ffffffH
	DD	0ffffffH
	DD	0ffffffH
	DD	0ffffffH
	DD	0ffffffH
	DD	0ffffffH
	DD	0ffffffH
	DD	0ffffffH
	DD	0ffffffH
	DD	0ffffffH
	DD	0f6f7f7H
	DD	0d9d9d9H
	DD	0a4a5a5H
	DD	06c6d6eH
	DD	0363737H
	DD	01f2222H
	DD	0191d1dH
	DD	017191aH
	DD	01e1f20H
	DD	02b2c2cH
	DD	0212121H
	DD	0161616H
	DD	01a1a1aH
	DD	01e1d1cH
	DD	0231c19H
	DD	01e1b1dH
	DD	01f2027H
	DD	02a2f3bH
	DD	0344253H
	DD	03a4c5bH
	DD	03a4653H
	DD	0383c43H
	DD	0353438H
	DD	0363637H
	DD	0393a39H
	DD	03a3a39H
	DD	03a3a3aH
	DD	0383838H
	DD	0383838H
	DD	0303030H
	DD	0171717H
	DD	090909H
	DD	060606H
	DD	050302H
	DD	020002H
	DD	010000H
	DD	01a2d43H
	DD	0336a9fH
	DD	04e8ecbH
	DD	07ba1c6H
	DD	0b1b5b3H
	DD	0e0caadH
	DD	0fbd9b0H
	DD	0ffdfb0H
	DD	0fedcb0H
	DD	0fad6b1H
	DD	0f8d7b1H
	DD	0fad8b0H
	DD	0fad7afH
	DD	0f9d5aeH
	DD	0f7d3acH
	DD	0f6d2acH
	DD	0f3d1acH
	DD	0f1cea9H
	DD	0efcca7H
	DD	0edcba5H
	DD	0e7c8a3H
	DD	0e5c59fH
	DD	0e5c8a7H
	DD	0ad9578H
	DD	0928a7cH
	DD	05c6265H
	DD	01a1b18H
	DD	05a5b58H
	DD	0626262H
	DD	0928f8eH
	DD	0c3c0bcH
	DD	0a6a2a1H
	DD	0a8927eH
	DD	0e3c29fH
	DD	0ccb08fH
	DD	0c8ad8cH
	DD	0c7ab8aH
	DD	0c5a988H
	DD	0c2a685H
	DD	0c1a484H
	DD	0bda082H
	DD	0b89d81H
	DD	0b39a7eH
	DD	0b29d7cH
	DD	0b79c79H
	DD	0a68b73H
	DD	0737273H
	DD	029394aH
	DD	020012H
	DD	0f071fH
	DD	0524d5fH
	DD	0363039H
	DD	03b3239H
	DD	0483c3dH
	DD	0675955H
	DD	0c1a698H
	DD	0b39684H
	DD	0947b73H
	DD	078636aH
	DD	01e131bH
	DD	0242023H
	DD	0262020H
	DD	01e1d1dH
	DD	0222222H
	DD	0464646H
	DD	0858484H
	DD	0b8b6b5H
	DD	0cac8c6H
	DD	0c6c5c4H
	DD	0c3c4c5H
	DD	0c3c6c9H
	DD	0c2c9d1H
	DD	0c2cdd9H
	DD	0c2ceddH
	DD	0c2cdddH
	DD	0c1cdddH
	DD	0c1cddeH
	DD	0c1ccdcH
	DD	0c2ccdbH
	DD	0c6ced8H
	DD	0cdd1d4H
	DD	0dcd9d5H
	DD	0e6ded7H
	DD	0e8e0d7H
	DD	0e7dfd6H
	DD	0e5ded6H
	DD	0eae0d6H
	DD	0ebe0d6H
	DD	0e6dfd6H
	DD	0e7dfd6H
	DD	0e8dfd6H
	DD	0e8e0d7H
	DD	0e8e0d7H
	DD	0e8e0d7H
	DD	0e8e0d7H
	DD	0e6ded5H
	DD	0e5ddd4H
	DD	0e6ded5H
	DD	0ebe3d8H
	DD	0f5ece0H
	DD	0f9f0e5H
	DD	0f9f0e6H
	DD	0f9efe5H
	DD	0f9f0e6H
	DD	0fbf2e7H
	DD	0fbf2e6H
	DD	0fbf2e6H
	DD	0fbf3e7H
	DD	0fbf3e7H
	DD	0fcf4e8H
	DD	0fffff7H
	DD	0144a4844H
	DD	0d4000000H
	DD	0ffc3c3c3H
	DD	0ffffffffH
	DD	0ffffffffH
	DD	0ffffffffH
	DD	0ffffffffH
	DD	0ffffffffH
	DD	0ffffffffH
	DD	0ffffffffH
	DD	0ffffffffH
	DD	0ffffffffH
	DD	0ffffffffH
	DD	07d7e7e7eH
	DD	0cfcfcfH
	DD	0ffffffH
	DD	0ffffffH
	DD	0ffffffH
	DD	0ffffffH
	DD	0ffffffH
	DD	0ffffffH
	DD	0ffffffH
	DD	0ffffffH
	DD	0ffffffH
	DD	0ffffffH
	DD	0ffffffH
	DD	0ffffffH
	DD	0ffffffH
	DD	0fefefeH
	DD	0ecececH
	DD	0bebfbfH
	DD	0828383H
	DD	04f5150H
	DD	0202223H
	DD	0101313H
	DD	0f1212H
	DD	0101313H
	DD	0161819H
	DD	0343637H
	DD	06c6d6dH
	DD	0aaaaabH
	DD	0b5b5b5H
	DD	0868686H
	DD	03d3d3dH
	DD	01c1c1dH
	DD	0151316H
	DD	01f1a1aH
	DD	0281f1bH
	DD	0271f18H
	DD	0201d19H
	DD	0252323H
	DD	02a333cH
	DD	0364556H
	DD	03a4b5cH
	DD	0354652H
	DD	0343842H
	DD	0373437H
	DD	0373634H
	DD	03b3a39H
	DD	03c3b3cH
	DD	03d3d3eH
	DD	03b3b3cH
	DD	0333333H
	DD	0292a2aH
	DD	01a2320H
	DD	01a1a20H
	DD	019141bH
	DD	0120c0aH
	DD	0121010H
	DD	01c2c3eH
	DD	025517cH
	DD	03873acH
	DD	0588ac2H
	DD	086a0bbH
	DD	0beb5a9H
	DD	0e7c9a7H
	DD	0fcdaacH
	DD	0ffdcaeH
	DD	0f9d5b2H
	DD	0f6d3aeH
	DD	0f8d3adH
	DD	0f7d3acH
	DD	0f7d3acH
	DD	0f4d0acH
	DD	0f1cfa9H
	DD	0efcca7H
	DD	0eecba5H
	DD	0e7c8a1H
	DD	0e7c9a2H
	DD	0ddc4a3H
	DD	097846bH
	DD	0938e89H
	DD	0484d4eH
	DD	0232822H
	DD	05c6160H
	DD	0545857H
	DD	070706eH
	DD	0949490H
	DD	08f867eH
	DD	0d7b89bH
	DD	0d4b492H
	DD	0caad8bH
	DD	0c5aa8aH
	DD	0c4a886H
	DD	0c1a684H
	DD	0bfa483H
	DD	0bfa281H
	DD	0ba9d7fH
	DD	0b79c7dH
	DD	0bb9e7eH
	DD	0ad9276H
	DD	075726fH
	DD	0315577H
	DD	01b548dH
	DD	017426dH
	DD	0c020eH
	DD	0110416H
	DD	02a2839H
	DD	05e5761H
	DD	07e6864H
	DD	093746cH
	DD	0caada1H
	DD	0b69685H
	DD	08c6f63H
	DD	0877577H
	DD	02b1b29H
	DD	01b191dH
	DD	01e1e1cH
	DD	0251d20H
	DD	0383737H
	DD	0747474H
	DD	0b2b1b0H
	DD	0cac9c9H
	DD	0c8c6c5H
	DD	0c4c3c2H
	DD	0c3c5c9H
	DD	0c2c8d0H
	DD	0c2cbd6H
	DD	0c2cddbH
	DD	0c2cedeH
	DD	0c2cedeH
	DD	0c1cdddH
	DD	0c1ccddH
	DD	0c1ccdbH
	DD	0c3ccd9H
	DD	0ccd0d7H
	DD	0d9d7d6H
	DD	0e2dcd5H
	DD	0ece2d6H
	DD	0eee3d7H
	DD	0eae1d7H
	DD	0eae1d7H
	DD	0eae1d7H
	DD	0e9e0d7H
	DD	0e8dfd7H
	DD	0e7dfd6H
	DD	0e7ded6H
	DD	0e6ded5H
	DD	0e7dfd6H
	DD	0e7ded6H
	DD	0e6ded5H
	DD	0e6ded5H
	DD	0e3dbd3H
	DD	0e4ddd3H
	DD	0ebe3d9H
	DD	0f4ebe0H
	DD	0faf2e6H
	DD	0f9f1e7H
	DD	0f7efe5H
	DD	0f9efe5H
	DD	0faf2e7H
	DD	0faf2e7H
	DD	0fbf3e7H
	DD	0fcf3e7H
	DD	0fcf2e7H
	DD	0fcf3e8H
	DD	0fcf4e9H
	DD	0fffff8H
	DD	0144b4845H
	DD	0d4000000H
	DD	0ff747474H
	DD	0ffffffffH
	DD	0ffffffffH
	DD	0ffffffffH
	DD	0ffffffffH
	DD	0ffffffffH
	DD	0ffffffffH
	DD	0ffffffffH
	DD	0ffffffffH
	DD	0ffffffffH
	DD	0ffffffffH
	DD	07d7e7e7eH
	DD	0cfcfcfH
	DD	0ffffffH
	DD	0ffffffH
	DD	0ffffffH
	DD	0ffffffH
	DD	0ffffffH
	DD	0ffffffH
	DD	0ffffffH
	DD	0ffffffH
	DD	0ffffffH
	DD	0ffffffH
	DD	0ffffffH
	DD	0f5f6f6H
	DD	0d5d5d5H
	DD	09d9d9dH
	DD	05e6060H
	DD	0323535H
	DD	0151818H
	DD	0f1313H
	DD	0101313H
	DD	0161a1aH
	DD	0282a2aH
	DD	0575959H
	DD	0929393H
	DD	0c8c9c8H
	DD	0f1f2f1H
	DD	0ffffffH
	DD	0ffffffH
	DD	0ffffffH
	DD	0f1f1f1H
	DD	0b4b4b4H
	DD	0797777H
	DD	0464444H
	DD	0221f20H
	DD	0181617H
	DD	018191aH
	DD	0191c1dH
	DD	01a1c1aH
	DD	0201a1cH
	DD	024242dH
	DD	02e3945H
	DD	0394959H
	DD	03d4c5cH
	DD	038444dH
	DD	0363b3bH
	DD	0383732H
	DD	03b3834H
	DD	0403b39H
	DD	0423f3fH
	DD	0413f41H
	DD	03c3e3aH
	DD	0393733H
	DD	039302aH
	DD	024262bH
	DD	0252320H
	DD	01d1913H
	DD	0171313H
	DD	019191eH
	DD	019324aH
	DD	022578aH
	DD	04379b0H
	DD	0678cb5H
	DD	0949facH
	DD	0d3b9a2H
	DD	0fad3a7H
	DD	0fdd9adH
	DD	0f6d4adH
	DD	0f6d3adH
	DD	0f8d3abH
	DD	0f5d1aaH
	DD	0f2cea9H
	DD	0eecca7H
	DD	0ebcba5H
	DD	0e9caa1H
	DD	0eccca5H
	DD	0d6bd9cH
	DD	09a8872H
	DD	095928eH
	DD	0303334H
	DD	0252a24H
	DD	0636c6cH
	DD	0636263H
	DD	06f7172H
	DD	0575855H
	DD	095816dH
	DD	0debe9bH
	DD	0caac8aH
	DD	0c9a987H
	DD	0c4a687H
	DD	0bea486H
	DD	0bea381H
	DD	0c1a17eH
	DD	0bb9e81H
	DD	0ba9f80H
	DD	0b5987bH
	DD	07d7675H
	DD	0385779H
	DD	01a5087H
	DD	018528dH
	DD	01e5490H
	DD	0244e7dH
	DD	0c0c15H
	DD	0f0818H
	DD	0140b23H
	DD	0544a57H
	DD	0b59f99H
	DD	0d1b3a4H
	DD	0b49182H
	DD	0977b71H
	DD	08c7878H
	DD	0352930H
	DD	01a141dH
	DD	019191aH
	DD	0282927H
	DD	06b6769H
	DD	0aeadadH
	DD	0c8c8c8H
	DD	0c6c5c4H
	DD	0c5c3c3H
	DD	0c4c5c8H
	DD	0c3c7cdH
	DD	0c2cad5H
	DD	0c2cedcH
	DD	0c1ceddH
	DD	0c2ceddH
	DD	0c2ccdcH
	DD	0c1ccdbH
	DD	0c1ccddH
	DD	0c3cedaH
	DD	0cacfd6H
	DD	0d2d3d6H
	DD	0e0dbd6H
	DD	0eae1d6H
	DD	0ebe1d6H
	DD	0ebe2d7H
	DD	0eae1d7H
	DD	0e9e1d7H
	DD	0e9e1d7H
	DD	0e9e1d7H
	DD	0e8e0d7H
	DD	0e8e0d7H
	DD	0e8e0d7H
	DD	0e7dfd6H
	DD	0e6ded5H
	DD	0e6ded5H
	DD	0e6ded5H
	DD	0e5dcd4H
	DD	0e2dad1H
	DD	0e3dad1H
	DD	0eae1d7H
	DD	0f4ebdfH
	DD	0f9f1e6H
	DD	0f9f1e7H
	DD	0f8efe6H
	DD	0f7eee5H
	DD	0f9f0e5H
	DD	0f8f0e5H
	DD	0f5ede3H
	DD	0f7eee3H
	DD	0f8efe4H
	DD	0f7eee3H
	DD	0f9f1e5H
	DD	0faf1e5H
	DD	0fffff4H
	DD	014494744H
	DD	0d4000000H
	DD	0ff494949H
	DD	0ffffffffH
	DD	0ffffffffH
	DD	0ffffffffH
	DD	0ffffffffH
	DD	0ffffffffH
	DD	0ffffffffH
	DD	0ffffffffH
	DD	0ffffffffH
	DD	0ffffffffH
	DD	0ffffffffH
	DD	07d7e7e7eH
	DD	0cfcfcfH
	DD	0ffffffH
	DD	0ffffffH
	DD	0ffffffH
	DD	0ffffffH
	DD	0ffffffH
	DD	0ffffffH
	DD	0ffffffH
	DD	0ffffffH
	DD	0fefefeH
	DD	0e6e6e6H
	DD	0bdbdbdH
	DD	07b7c7cH
	DD	0404242H
	DD	0202323H
	DD	0101213H
	DD	0d1010H
	DD	0101313H
	DD	01b1d1dH
	DD	03c3e3eH
	DD	0757676H
	DD	0b2b3b3H
	DD	0e1e2e2H
	DD	0fbfbfbH
	DD	0ffffffH
	DD	0ffffffH
	DD	0ffffffH
	DD	0ffffffH
	DD	0ffffffH
	DD	0ffffffH
	DD	0ffffffH
	DD	0ffffffH
	DD	0f1f2f2H
	DD	0cfcfcfH
	DD	08c8b8bH
	DD	0464646H
	DD	01d1d1cH
	DD	0181818H
	DD	0201c1eH
	DD	0261d21H
	DD	01e1a1dH
	DD	01b1f20H
	DD	01f2630H
	DD	02c384cH
	DD	037495dH
	DD	0374c5eH
	DD	039404aH
	DD	036383dH
	DD	0363534H
	DD	03f3c34H
	DD	03a3c3fH
	DD	03f3e3dH
	DD	03d3d3cH
	DD	0353738H
	DD	02f2f2fH
	DD	0252626H
	DD	0252423H
	DD	01f2122H
	DD	0171716H
	DD	018130cH
	DD	0131a26H
	DD	01b395aH
	DD	02c6091H
	DD	0417cb3H
	DD	0858f9fH
	DD	0d2b597H
	DD	0f6d4a3H
	DD	0f3d0a9H
	DD	0f3d0aaH
	DD	0f7d0a8H
	DD	0f5cfa8H
	DD	0efcda5H
	DD	0eccca5H
	DD	0edcba4H
	DD	0efcda7H
	DD	0dbbe9eH
	DD	0af9a82H
	DD	0a59f98H
	DD	0202324H
	DD	03e413fH
	DD	06c7070H
	DD	06f6868H
	DD	066676cH
	DD	0574d41H
	DD	0cfb090H
	DD	0ceb18eH
	DD	0c6a887H
	DD	0c5a587H
	DD	0c2a484H
	DD	0bca085H
	DD	0b89d84H
	DD	0b89d80H
	DD	0bda081H
	DD	0a39077H
	DD	0536277H
	DD	01c5183H
	DD	018548bH
	DD	01d558aH
	DD	01d5488H
	DD	01e548aH
	DD	01f5788H
	DD	0111b2dH
	DD	0a0408H
	DD	0140f24H
	DD	0161322H
	DD	0463a44H
	DD	079676dH
	DD	0826e73H
	DD	069585dH
	DD	0302529H
	DD	0221c21H
	DD	02a2929H
	DD	0515150H
	DD	09c9b9bH
	DD	0c5c5c4H
	DD	0c9c8c8H
	DD	0c5c5c6H
	DD	0c5c6c9H
	DD	0c5cad1H
	DD	0c4ccd9H
	DD	0c3ccdaH
	DD	0c1cddcH
	DD	0c1cedeH
	DD	0c1cedeH
	DD	0c1ccdcH
	DD	0c0cad8H
	DD	0c0c8d5H
	DD	0c2cad6H
	DD	0ced1d6H
	DD	0ddd9d6H
	DD	0e7ded5H
	DD	0ebe2d6H
	DD	0ece3d7H
	DD	0ebe1d7H
	DD	0e8e0d7H
	DD	0e8e0d7H
	DD	0e8e0d7H
	DD	0e8e0d7H
	DD	0e8e0d7H
	DD	0e8e0d7H
	DD	0e8e0d7H
	DD	0e8e0d7H
	DD	0e8e0d7H
	DD	0e8dfd6H
	DD	0e7dfd6H
	DD	0e6ded5H
	DD	0e3dbd3H
	DD	0e2dad2H
	DD	0e8e0d6H
	DD	0f2e9dfH
	DD	0faf1e6H
	DD	0fbf3e8H
	DD	0f7efe5H
	DD	0f7eee4H
	DD	0f9f0e6H
	DD	0f8efe5H
	DD	0f4ece1H
	DD	0efe7ddH
	DD	0eee6ddH
	DD	0efe7deH
	DD	0f1e8dfH
	DD	0f4ebe0H
	DD	0f4ebe0H
	DD	0f9f3ecH
	DD	014434241H
	DD	0d4000000H
	DD	0ff494949H
	DD	0ffffffffH
	DD	0ffffffffH
	DD	0ffffffffH
	DD	0ffffffffH
	DD	0ffffffffH
	DD	0ffffffffH
	DD	0ffffffffH
	DD	0ffffffffH
	DD	0ffffffffH
	DD	0ffffffffH
	DD	07d7e7e7eH
	DD	0cfcfcfH
	DD	0ffffffH
	DD	0ffffffH
	DD	0ffffffH
	DD	0ffffffH
	DD	0ffffffH
	DD	0ffffffH
	DD	0eff0f0H
	DD	0c9cacaH
	DD	0979898H
	DD	0555757H
	DD	0282b2bH
	DD	0171a1aH
	DD	0101313H
	DD	0f1212H
	DD	0161919H
	DD	0333636H
	DD	05e6060H
	DD	0999a9aH
	DD	0d3d4d4H
	DD	0f3f4f4H
	DD	0ffffffH
	DD	0ffffffH
	DD	0ffffffH
	DD	0ffffffH
	DD	0ffffffH
	DD	0ffffffH
	DD	0ffffffH
	DD	0ffffffH
	DD	0ffffffH
	DD	0ffffffH
	DD	0ffffffH
	DD	0ffffffH
	DD	0ffffffH
	DD	0ffffffH
	DD	0f2f2f2H
	DD	0b4b4b4H
	DD	0656565H
	DD	02d2d2dH
	DD	0191919H
	DD	0191a19H
	DD	01c1d1dH
	DD	0241b1bH
	DD	0251819H
	DD	0201d1fH
	DD	0292d33H
	DD	02a3e4fH
	DD	0384d5eH
	DD	03e4d58H
	DD	0363f47H
	DD	0353739H
	DD	03d3934H
	DD	0413d38H
	DD	0403f3fH
	DD	03d3d3dH
	DD	0383838H
	DD	0323232H
	DD	02a2c2fH
	DD	023262bH
	DD	026231eH
	DD	01d1d1bH
	DD	016140fH
	DD	0151512H
	DD	01c2c3eH
	DD	02c5f8dH
	DD	04a759eH
	DD	0a09583H
	DD	0e8c198H
	DD	0e4c5a4H
	DD	0eccaa3H
	DD	0f1cca4H
	DD	0f1cca4H
	DD	0f1cca5H
	DD	0edcca8H
	DD	0f0cea9H
	DD	0e4c4a3H
	DD	0c8ac93H
	DD	0ac9f99H
	DD	051585bH
	DD	04f5558H
	DD	0696c71H
	DD	07c7a7fH
	DD	05f5e62H
	DD	093806aH
	DD	0d9b895H
	DD	0c3a786H
	DD	0c2a586H
	DD	0c0a286H
	DD	0be9f82H
	DD	0bb9e7fH
	DD	0b79c7fH
	DD	0bc9e7eH
	DD	0938478H
	DD	031597eH
	DD	015538eH
	DD	019588aH
	DD	01e5689H
	DD	01e5488H
	DD	01e5589H
	DD	01d5486H
	DD	01c5a8aH
	DD	018395fH
	DD	050008H
	DD	0100817H
	DD	015141eH
	DD	013101cH
	DD	01b1724H
	DD	0211c2bH
	DD	0100b1aH
	DD	0130f15H
	DD	0464443H
	DD	08d8c8cH
	DD	0bfbfbfH
	DD	0cacacaH
	DD	0c4c3c2H
	DD	0c2c2c3H
	DD	0c4cad0H
	DD	0c5cfdcH
	DD	0c4d2e4H
	DD	0c5d4e7H
	DD	0c3d1e4H
	DD	0c2cfdfH
	DD	0c1ceddH
	DD	0c1cddcH
	DD	0c1cbdaH
	DD	0c5ccd5H
	DD	0cacdd3H
	DD	0d0cfd1H
	DD	0dcd5d1H
	DD	0ece0d4H
	DD	0f0e4d6H
	DD	0ede2d6H
	DD	0ebe1d6H
	DD	0e9e0d7H
	DD	0e8e0d8H
	DD	0e8e0d7H
	DD	0e8e0d7H
	DD	0e8e0d7H
	DD	0e8e0d7H
	DD	0e8e0d7H
	DD	0e8e0d7H
	DD	0e8e0d7H
	DD	0e8e0d7H
	DD	0e9e0d7H
	DD	0e8e0d7H
	DD	0e7ded6H
	DD	0e5ddd5H
	DD	0e8e0d7H
	DD	0f2e9dfH
	DD	0faf1e6H
	DD	0fbf2e8H
	DD	0f8f1e6H
	DD	0f6eee3H
	DD	0f8efe4H
	DD	0faf1e7H
	DD	0f8efe6H
	DD	0f2eae0H
	DD	0eee5dcH
	DD	0ebe2d9H
	DD	0ece3dbH
	DD	0f0e6ddH
	DD	0f2e8ddH
	DD	0ece5ddH
	DD	0ece9e9H
	DD	0143f3f40H
	DD	0d4000000H
	DD	0ff494949H
	DD	0ffffffffH
	DD	0ffffffffH
	DD	0ffffffffH
	DD	0ffffffffH
	DD	0ffffffffH
	DD	0ffffffffH
	DD	0ffffffffH
	DD	0ffffffffH
	DD	0ffffffffH
	DD	0ffffffffH
	DD	07d7e7e7eH
	DD	0cfcfcfH
	DD	0ffffffH
	DD	0ffffffH
	DD	0ffffffH
	DD	0fcfcfcH
	DD	0e1e1e1H
	DD	0aeafb0H
	DD	0747575H
	DD	03a3c3cH
	DD	0181a1aH
	DD	0f1212H
	DD	0d1111H
	DD	0d1010H
	DD	01d1f20H
	DD	048494aH
	DD	07e8080H
	DD	0babcbcH
	DD	0ebebebH
	DD	0fdfdfdH
	DD	0ffffffH
	DD	0ffffffH
	DD	0ffffffH
	DD	0ffffffH
	DD	0ffffffH
	DD	0ffffffH
	DD	0ffffffH
	DD	0ffffffH
	DD	0ffffffH
	DD	0ffffffH
	DD	0ffffffH
	DD	0ffffffH
	DD	0ffffffH
	DD	0ffffffH
	DD	0ffffffH
	DD	0ffffffH
	DD	0ffffffH
	DD	0ffffffH
	DD	0fefefeH
	DD	0d4d5d4H
	DD	08c8f8dH
	DD	0474845H
	DD	027211eH
	DD	0161815H
	DD	0131a18H
	DD	0201e1dH
	DD	0261d1aH
	DD	0241c19H
	DD	0211e22H
	DD	0252e3aH
	DD	0304055H
	DD	0394d63H
	DD	038495bH
	DD	0353e47H
	DD	0373737H
	DD	03b3a38H
	DD	03e3d3cH
	DD	03e3e3dH
	DD	03c3c3cH
	DD	0393838H
	DD	0323132H
	DD	02d2c2aH
	DD	02b2726H
	DD	0242022H
	DD	01e1711H
	DD	0141819H
	DD	0264a6fH
	DD	03e6d97H
	DD	08e8277H
	DD	0cfac88H
	DD	0d2b592H
	DD	0dcbd99H
	DD	0e6c39fH
	DD	0eac6a3H
	DD	0eac8a7H
	DD	0ecc8a4H
	DD	0e8c5a2H
	DD	0d8b89aH
	DD	0b69e88H
	DD	0766960H
	DD	0615a55H
	DD	0858584H
	DD	0948d8aH
	DD	099897aH
	DD	0cbaf8fH
	DD	0c9aa88H
	DD	0bda282H
	DD	0bca183H
	DD	0bb9d82H
	DD	0b99b7fH
	DD	0b4997dH
	DD	0c29f78H
	DD	0968679H
	DD	02c5680H
	DD	0165490H
	DD	01d548eH
	DD	01d5788H
	DD	01d5588H
	DD	01c5387H
	DD	01b5288H
	DD	01a5389H
	DD	01f5888H
	DD	0284969H
	DD	0b0b17H
	DD	03010eH
	DD	08091cH
	DD	0141021H
	DD	0100a18H
	DD	0f0a16H
	DD	02e2c33H
	DD	0717073H
	DD	0b1b1b2H
	DD	0c8c8c9H
	DD	0c6c4c6H
	DD	0c3c2c3H
	DD	0c3c1c2H
	DD	0c1c3c5H
	DD	0c3cbd6H
	DD	0c3d1e2H
	DD	0c2d2e5H
	DD	0c4d3e6H
	DD	0c4d2e5H
	DD	0c3d1e2H
	DD	0c1cfdfH
	DD	0c2cedcH
	DD	0c8cfd8H
	DD	0d5d5d5H
	DD	0dfdad5H
	DD	0e2dad3H
	DD	0e3d9d1H
	DD	0e5dcd4H
	DD	0e5ded8H
	DD	0e7e0d8H
	DD	0eae0d6H
	DD	0e8e0d6H
	DD	0eae1d6H
	DD	0eae1d7H
	DD	0e8e0d7H
	DD	0e8e0d7H
	DD	0e8e0d7H
	DD	0e8e0d7H
	DD	0e8e0d7H
	DD	0e8e0d7H
	DD	0e8e0d7H
	DD	0e8e0d7H
	DD	0e7e0d7H
	DD	0e7ded5H
	DD	0eae1d7H
	DD	0f1e8deH
	DD	0f9f0e6H
	DD	0fbf3e8H
	DD	0f9f1e6H
	DD	0f6eee4H
	DD	0f7eee4H
	DD	0f8f0e5H
	DD	0f9f1e6H
	DD	0f7efe5H
	DD	0f3ebe1H
	DD	0f1e8deH
	DD	0efe6dcH
	DD	0f0e7dcH
	DD	0f4eadeH
	DD	0f2eae0H
	DD	0e6e2deH
	DD	0e9e7e9H
	DD	014403f40H
	DD	0d4000000H
	DD	0ff494949H
	DD	0ffffffffH
	DD	0ffffffffH
	DD	0ffffffffH
	DD	0ffffffffH
	DD	0ffffffffH
	DD	0ffffffffH
	DD	0ffffffffH
	DD	0ffffffffH
	DD	0ffffffffH
	DD	0ffffffffH
	DD	07d7e7e7eH
	DD	0cfcfcfH
	DD	0ffffffH
	DD	0f0f0f0H
	DD	0c6c7c7H
	DD	08a8b8bH
	DD	0545656H
	DD	0292b2bH
	DD	0141616H
	DD	0101313H
	DD	0121515H
	DD	0191c1cH
	DD	0303232H
	DD	0666767H
	DD	09fa0a1H
	DD	0d7d8d8H
	DD	0f8f8f8H
	DD	0ffffffH
	DD	0ffffffH
	DD	0ffffffH
	DD	0ffffffH
	DD	0ffffffH
	DD	0ffffffH
	DD	0ffffffH
	DD	0ffffffH
	DD	0ffffffH
	DD	0ffffffH
	DD	0ffffffH
	DD	0ffffffH
	DD	0ffffffH
	DD	0ffffffH
	DD	0ffffffH
	DD	0ffffffH
	DD	0ffffffH
	DD	0ffffffH
	DD	0ffffffH
	DD	0ffffffH
	DD	0ffffffH
	DD	0ffffffH
	DD	0ffffffH
	DD	0ffffffH
	DD	0f0f1f0H
	DD	0c0bfbdH
	DD	0797b77H
	DD	03c3f3aH
	DD	01f1f1eH
	DD	01a181bH
	DD	01c1b1aH
	DD	0201e1eH
	DD	0201c1bH
	DD	0221a18H
	DD	0212226H
	DD	0273045H
	DD	030425dH
	DD	0384d61H
	DD	0364958H
	DD	0383f46H
	DD	03a3938H
	DD	03d3b34H
	DD	03e3f3aH
	DD	0373d3dH
	DD	0363b39H
	DD	038373aH
	DD	0383033H
	DD	02f2b2bH
	DD	0282522H
	DD	0201818H
	DD	0274b73H
	DD	03f6b96H
	DD	0917c6dH
	DD	0bd9f7eH
	DD	0bfa17fH
	DD	0c7a887H
	DD	0cfb191H
	DD	0d7b998H
	DD	0d8b996H
	DD	0d2b391H
	DD	0c9aa87H
	DD	0c6a785H
	DD	0c3a589H
	DD	0bda489H
	DD	0b8a189H
	DD	0bda289H
	DD	0caad8eH
	DD	0c9ac88H
	DD	0bca181H
	DD	0b69d80H
	DD	0b59c7fH
	DD	0b49a7eH
	DD	0b1987cH
	DD	0b39a7cH
	DD	0a88e76H
	DD	0355c7dH
	DD	017548bH
	DD	01c5488H
	DD	01e528bH
	DD	0215188H
	DD	01c5184H
	DD	01b5086H
	DD	01e5183H
	DD	021496fH
	DD	01f2c3cH
	DD	0a0b10H
	DD	070303H
	DD	08040eH
	DD	080419H
	DD	0c0619H
	DD	01c1326H
	DD	05e575eH
	DD	0afacacH
	DD	0cfcccdH
	DD	0cfcbccH
	DD	0cfcbccH
	DD	0cfcbccH
	DD	0cccaccH
	DD	0ccc9cbH
	DD	0c9c7caH
	DD	0c4c8ceH
	DD	0c2c9d3H
	DD	0c2cad6H
	DD	0c0cad5H
	DD	0c2cedcH
	DD	0c2cfe0H
	DD	0c2cfdeH
	DD	0ccd2d9H
	DD	0dddad8H
	DD	0ebe1d6H
	DD	0eee2d7H
	DD	0ebe2d6H
	DD	0e5dfd6H
	DD	0d6d7daH
	DD	0d2d7deH
	DD	0dadbddH
	DD	0e2ddd8H
	DD	0e7dfd6H
	DD	0ebe1d4H
	DD	0eae1d6H
	DD	0e8e0d7H
	DD	0e8e0d7H
	DD	0e8e0d7H
	DD	0e8e0d7H
	DD	0e8e0d7H
	DD	0e8e0d7H
	DD	0e8e0d7H
	DD	0e7dfd6H
	DD	0e6ded5H
	DD	0e9e0d7H
	DD	0f1e8dcH
	DD	0f8f0e5H
	DD	0faf2e8H
	DD	0f9f1e6H
	DD	0f6eee3H
	DD	0f6eee3H
	DD	0f7efe4H
	DD	0f6ede3H
	DD	0f4ece2H
	DD	0f4ece2H
	DD	0f4ece2H
	DD	0f4eadfH
	DD	0f5eaddH
	DD	0f5ebdeH
	DD	0f2ebe1H
	DD	0ece8e3H
	DD	0dfdddfH
	DD	0e9e5e8H
	DD	014414040H
	DD	0d4000000H
	DD	0ff494949H
	DD	0ffffffffH
	DD	0ffffffffH
	DD	0ffffffffH
	DD	0ffffffffH
	DD	0ffffffffH
	DD	0ffffffffH
	DD	0ffffffffH
	DD	0ffffffffH
	DD	0ffffffffH
	DD	0ffffffffH
	DD	07d7f7f7fH
	DD	0afafafH
	DD	0a9a9a9H
	DD	0626464H
	DD	0313334H
	DD	0161919H
	DD	0d1010H
	DD	0d1111H
	DD	0141717H
	DD	0252828H
	DD	04c4d4dH
	DD	08e8e8eH
	DD	0c3c4c4H
	DD	0eeeeeeH
	DD	0ffffffH
	DD	0ffffffH
	DD	0ffffffH
	DD	0ffffffH
	DD	0ffffffH
	DD	0ffffffH
	DD	0ffffffH
	DD	0ffffffH
	DD	0ffffffH
	DD	0ffffffH
	DD	0ffffffH
	DD	0ffffffH
	DD	0ffffffH
	DD	0ffffffH
	DD	0ffffffH
	DD	0ffffffH
	DD	0ffffffH
	DD	0ffffffH
	DD	0ffffffH
	DD	0ffffffH
	DD	0ffffffH
	DD	0ffffffH
	DD	0ffffffH
	DD	0ffffffH
	DD	0ffffffH
	DD	0ffffffH
	DD	0ffffffH
	DD	0ffffffH
	DD	0ffffffH
	DD	0ffffffH
	DD	0e4e3e4H
	DD	0aaaaaaH
	DD	0666766H
	DD	0363737H
	DD	01c1d1eH
	DD	01a1a1aH
	DD	01b1c1cH
	DD	0221e1cH
	DD	0271c1bH
	DD	021181aH
	DD	0212225H
	DD	02e3642H
	DD	0364b59H
	DD	03d5161H
	DD	03a4956H
	DD	0303d42H
	DD	0353935H
	DD	0393c36H
	DD	03c3f3bH
	DD	03e403bH
	DD	03a3c3aH
	DD	0353937H
	DD	0302f31H
	DD	0202120H
	DD	0295680H
	DD	046688aH
	DD	096816dH
	DD	0b89a7bH
	DD	0b2977bH
	DD	0b79a7bH
	DD	0bc9e80H
	DD	0bea184H
	DD	0bda083H
	DD	0bb9f81H
	DD	0bda082H
	DD	0c1a484H
	DD	0c3a585H
	DD	0c6a787H
	DD	0c9a98aH
	DD	0c7a98bH
	DD	0bba082H
	DD	0b39a7cH
	DD	0b1987bH
	DD	0af9779H
	DD	0ad9578H
	DD	0af9577H
	DD	0af9471H
	DD	04a5f78H
	DD	0155184H
	DD	01a5284H
	DD	0194f82H
	DD	0195081H
	DD	0194f80H
	DD	01a4b7fH
	DD	024486aH
	DD	0223340H
	DD	0b0f10H
	DD	030000H
	DD	080707H
	DD	040306H
	DD	060509H
	DD	0201f22H
	DD	0555558H
	DD	0a19fa3H
	DD	0d4cfd0H
	DD	0dad4d3H
	DD	0dad3d2H
	DD	0e2d9d8H
	DD	0e3dcdaH
	DD	0e3dbdaH
	DD	0e0dadaH
	DD	0ded9daH
	DD	0dcd7d8H
	DD	0d9d5d6H
	DD	0d1cfd1H
	DD	0cac9ccH
	DD	0c5c6cbH
	DD	0c1c6ccH
	DD	0c0c7d0H
	DD	0c6ccd3H
	DD	0d5d4d3H
	DD	0e7dfd6H
	DD	0efe4d7H
	DD	0efe5d9H
	DD	0ede3d8H
	DD	0e5dfd9H
	DD	0d4d8ddH
	DD	0cbd5e0H
	DD	0d3d7ddH
	DD	0dedcd8H
	DD	0e1ddd8H
	DD	0dddbdbH
	DD	0e3ded9H
	DD	0eae1d6H
	DD	0e8e0d7H
	DD	0e8e0d7H
	DD	0e8e0d7H
	DD	0e8e0d7H
	DD	0e8e0d7H
	DD	0e7dfd6H
	DD	0e6ded5H
	DD	0e9e0d7H
	DD	0f0e7dcH
	DD	0f7efe2H
	DD	0fbf3e8H
	DD	0f9f1e6H
	DD	0f5eee4H
	DD	0f5ede3H
	DD	0f7efe3H
	DD	0f6efe3H
	DD	0f1e9dfH
	DD	0eee6dcH
	DD	0f2eadfH
	DD	0f6ede0H
	DD	0f5ebdeH
	DD	0f3eadeH
	DD	0f0ebe2H
	DD	0e8e8e8H
	DD	0dfe2e6H
	DD	0d9dadfH
	DD	0e9e4e5H
	DD	014413f3fH
	DD	0d4000000H
	DD	0ff494949H
	DD	0ffffffffH
	DD	0ffffffffH
	DD	0ffffffffH
	DD	0ffffffffH
	DD	0ffffffffH
	DD	0ffffffffH
	DD	0ffffffffH
	DD	0ffffffffH
	DD	0ffffffffH
	DD	0ffffffffH
	DD	07d7f7f7fH
	DD	02e3030H
	DD	0272a2aH
	DD	0131616H
	DD	0d1010H
	DD	0e1111H
	DD	01c1e1eH
	DD	0363838H
	DD	0686a6aH
	DD	0abababH
	DD	0d9d9d9H
	DD	0f7f7f7H
	DD	0ffffffH
	DD	0ffffffH
	DD	0ffffffH
	DD	0ffffffH
	DD	0ffffffH
	DD	0ffffffH
	DD	0ffffffH
	DD	0ffffffH
	DD	0ffffffH
	DD	0ffffffH
	DD	0ffffffH
	DD	0ffffffH
	DD	0ffffffH
	DD	0ffffffH
	DD	0ffffffH
	DD	0ffffffH
	DD	0ffffffH
	DD	0ffffffH
	DD	0ffffffH
	DD	0ffffffH
	DD	0ffffffH
	DD	0ffffffH
	DD	0ffffffH
	DD	0ffffffH
	DD	0ffffffH
	DD	0ffffffH
	DD	0ffffffH
	DD	0ffffffH
	DD	0ffffffH
	DD	0ffffffH
	DD	0ffffffH
	DD	0ffffffH
	DD	0ffffffH
	DD	0ffffffH
	DD	0fcfcfcH
	DD	0d4d4d4H
	DD	0979797H
	DD	05a5a5aH
	DD	02e2f2fH
	DD	0211d1fH
	DD	01d1a1bH
	DD	01e1b1cH
	DD	0211b1aH
	DD	0231e14H
	DD	0241d18H
	DD	025262dH
	DD	02f3b48H
	DD	0354a5cH
	DD	03d5162H
	DD	0394853H
	DD	0383c40H
	DD	03a3736H
	DD	03b3a3bH
	DD	0373536H
	DD	01d2327H
	DD	0a0f0fH
	DD	0f161eH
	DD	02a5f8fH
	DD	0506378H
	DD	0a68a6eH
	DD	0b0957aH
	DD	0ac947aH
	DD	0b2957aH
	DD	0b3967cH
	DD	0b4977dH
	DD	0b69a7fH
	DD	0b79c7fH
	DD	0b89d81H
	DD	0ba9f82H
	DD	0bda184H
	DD	0c2a487H
	DD	0bea286H
	DD	0b1987bH
	DD	0ab9377H
	DD	0a99278H
	DD	0a89175H
	DD	0a69074H
	DD	0b09172H
	DD	06d6b6dH
	DD	0124b80H
	DD	018507dH
	DD	0154f7bH
	DD	0184d74H
	DD	0254b69H
	DD	0284359H
	DD	023313cH
	DD	0121516H
	DD	030300H
	DD	020201H
	DD	090908H
	DD	0131314H
	DD	0201e21H
	DD	04e4c50H
	DD	0909192H
	DD	0c2c1c3H
	DD	0dad6d7H
	DD	0e5dcdbH
	DD	0e8dedaH
	DD	0ebe0dcH
	DD	0efe4e0H
	DD	0ece3dfH
	DD	0eee5e2H
	DD	0efe6e3H
	DD	0ece5e4H
	DD	0f1eae9H
	DD	0f2ecebH
	DD	0ebe6e6H
	DD	0e1dddeH
	DD	0d6d3d6H
	DD	0cdccceH
	DD	0c6c7caH
	DD	0c5c6c7H
	DD	0d0ccc8H
	DD	0ddd5ceH
	DD	0e3dbd2H
	DD	0e7dfd6H
	DD	0eae1d7H
	DD	0e8e1d9H
	DD	0e0dedbH
	DD	0d8d8daH
	DD	0d8d8d8H
	DD	0dbdadaH
	DD	0d3d9e0H
	DD	0cdd6e2H
	DD	0dbdadbH
	DD	0e9e0d5H
	DD	0e9e0d7H
	DD	0e8e0d7H
	DD	0e8e0d7H
	DD	0e8e0d7H
	DD	0e7e0d6H
	DD	0e6ded5H
	DD	0e8dfd6H
	DD	0f0e6dbH
	DD	0f7eee2H
	DD	0faf2e7H
	DD	0f9f2e7H
	DD	0f6efe5H
	DD	0f4ede3H
	DD	0f5ede3H
	DD	0f7f0e4H
	DD	0f8efe3H
	DD	0f3eadfH
	DD	0f1e8ddH
	DD	0f4ebdeH
	DD	0f6ecddH
	DD	0f2e9dfH
	DD	0eae8e5H
	DD	0e4e8ebH
	DD	0dce4edH
	DD	0d6dce5H
	DD	0d7d6d9H
	DD	0e9e4e3H
	DD	014413f3fH
	DD	0d4000000H
	DD	0ff494949H
	DD	0ffffffffH
	DD	0ffffffffH
	DD	0ffffffffH
	DD	0ffffffffH
	DD	0ffffffffH
	DD	0ffffffffH
	DD	0ffffffffH
	DD	0ffffffffH
	DD	0ffffffffH
	DD	0ffffffffH
	DD	07d7d7d7dH
	DD	00H
	DD	0e1212H
	DD	0111414H
	DD	02d2f2fH
	DD	0595b5bH
	DD	0929393H
	DD	0cececeH
	DD	0f2f2f2H
	DD	0ffffffH
	DD	0ffffffH
	DD	0ffffffH
	DD	0ffffffH
	DD	0ffffffH
	DD	0ffffffH
	DD	0ffffffH
	DD	0ffffffH
	DD	0ffffffH
	DD	0ffffffH
	DD	0ffffffH
	DD	0ffffffH
	DD	0ffffffH
	DD	0ffffffH
	DD	0ffffffH
	DD	0ffffffH
	DD	0ffffffH
	DD	0ffffffH
	DD	0ffffffH
	DD	0ffffffH
	DD	0ffffffH
	DD	0ffffffH
	DD	0ffffffH
	DD	0ffffffH
	DD	0ffffffH
	DD	0ffffffH
	DD	0ffffffH
	DD	0ffffffH
	DD	0ffffffH
	DD	0ffffffH
	DD	0ffffffH
	DD	0ffffffH
	DD	0ffffffH
	DD	0ffffffH
	DD	0ffffffH
	DD	0ffffffH
	DD	0ffffffH
	DD	0ffffffH
	DD	0ffffffH
	DD	0ffffffH
	DD	0f1f1f1H
	DD	0c5c5c5H
	DD	08d8889H
	DD	0525355H
	DD	0272a2fH
	DD	0211c21H
	DD	01f1a1bH
	DD	01d1a1eH
	DD	01f1e20H
	DD	01d1a19H
	DD	01e1d1cH
	DD	0242932H
	DD	0303e4eH
	DD	03c4d61H
	DD	0424f60H
	DD	029323dH
	DD	0121315H
	DD	080d10H
	DD	0d0b14H
	DD	0c0306H
	DD	013253cH
	DD	0336091H
	DD	0676568H
	DD	0a98c6fH
	DD	0aa9379H
	DD	0ad9276H
	DD	0af9476H
	DD	0ae9477H
	DD	0b09679H
	DD	0b2977bH
	DD	0b2987dH
	DD	0b39a7eH
	DD	0b79c82H
	DD	0ba9e83H
	DD	0b2987cH
	DD	0a89074H
	DD	0a58e72H
	DD	0a18b71H
	DD	0a18b70H
	DD	0a78d70H
	DD	0877a67H
	DD	0224b73H
	DD	0154a79H
	DD	022456dH
	DD	0284359H
	DD	0283d49H
	DD	02c3336H
	DD	01e1b16H
	DD	080701H
	DD	030607H
	DD	090d0eH
	DD	080b09H
	DD	0161615H
	DD	04f4f4fH
	DD	0929193H
	DD	0bdbcbfH
	DD	0c8c8caH
	DD	0cdcbccH
	DD	0e3dcdbH
	DD	0f1e6e2H
	DD	0f0e5e0H
	DD	0eae2ddH
	DD	0e5dedaH
	DD	0e1d9d7H
	DD	0e4dcdaH
	DD	0e6dfddH
	DD	0e6e0deH
	DD	0ede8e7H
	DD	0f5efefH
	DD	0f6f1f1H
	DD	0f1eeefH
	DD	0e9e6e7H
	DD	0dfdcdeH
	DD	0d4d2d5H
	DD	0cac9cbH
	DD	0c7c5c5H
	DD	0cbc8c5H
	DD	0d0ccc9H
	DD	0d7d2cdH
	DD	0dfd8d1H
	DD	0e6ddd5H
	DD	0e8dfd6H
	DD	0e6ded5H
	DD	0e3ddd5H
	DD	0dddcdbH
	DD	0d2d9e3H
	DD	0d0d6e0H
	DD	0dcdad8H
	DD	0e8dfd5H
	DD	0eae1d7H
	DD	0e9e0d7H
	DD	0e8e0d7H
	DD	0e6dfd6H
	DD	0e5ded5H
	DD	0e7dfd6H
	DD	0efe5dbH
	DD	0f6ece1H
	DD	0faf1e6H
	DD	0f9f2e7H
	DD	0f8f0e5H
	DD	0f6eee3H
	DD	0f6eee3H
	DD	0f7eee3H
	DD	0faf0e3H
	DD	0fbf0e2H
	DD	0f8ede0H
	DD	0f5ebdfH
	DD	0f3ebe1H
	DD	0eee9e3H
	DD	0e5e6e8H
	DD	0dbe5efH
	DD	0d8e3efH
	DD	0d8dee7H
	DD	0d4d6dcH
	DD	0cfcecfH
	DD	0dfdedfH
	DD	0143f3f40H
	DD	0d4000000H
	DD	0ff494949H
	DD	0ffffffffH
	DD	0ffffffffH
	DD	0ffffffffH
	DD	0ffffffffH
	DD	0ffffffffH
	DD	0ffffffffH
	DD	0ffffffffH
	DD	0ffffffffH
	DD	0ffffffffH
	DD	0ffffffffH
	DD	07d7c7c7cH
	DD	050707H
	DD	03f4141H
	DD	0737474H
	DD	0b2b3b3H
	DD	0e5e5e5H
	DD	0fdfdfdH
	DD	0ffffffH
	DD	0ffffffH
	DD	0ffffffH
	DD	0ffffffH
	DD	0ffffffH
	DD	0ffffffH
	DD	0ffffffH
	DD	0ffffffH
	DD	0ffffffH
	DD	0ffffffH
	DD	0ffffffH
	DD	0ffffffH
	DD	0ffffffH
	DD	0ffffffH
	DD	0ffffffH
	DD	0ffffffH
	DD	0ffffffH
	DD	0ffffffH
	DD	0ffffffH
	DD	0ffffffH
	DD	0ffffffH
	DD	0ffffffH
	DD	0ffffffH
	DD	0ffffffH
	DD	0ffffffH
	DD	0ffffffH
	DD	0ffffffH
	DD	0ffffffH
	DD	0ffffffH
	DD	0ffffffH
	DD	0ffffffH
	DD	0ffffffH
	DD	0ffffffH
	DD	0ffffffH
	DD	0ffffffH
	DD	0ffffffH
	DD	0ffffffH
	DD	0ffffffH
	DD	0ffffffH
	DD	0ffffffH
	DD	0ffffffH
	DD	0ffffffH
	DD	0ffffffH
	DD	0ffffffH
	DD	0ffffffH
	DD	0edededH
	DD	0c0c0bfH
	DD	0858281H
	DD	04f4f4fH
	DD	02c2c2bH
	DD	0211f1eH
	DD	01e1b1dH
	DD	01c1c1dH
	DD	01d1c1bH
	DD	01c1a18H
	DD	01a1b1eH
	DD	02a2f35H
	DD	01f2527H
	DD	0e1112H
	DD	0e1010H
	DD	0161211H
	DD	0212023H
	DD	02b2b2eH
	DD	02d3b4dH
	DD	0424750H
	DD	06a5d51H
	DD	08d7b6aH
	DD	097846fH
	DD	0a38e74H
	DD	0ad9476H
	DD	0b19676H
	DD	0b09578H
	DD	0b09579H
	DD	0af957aH
	DD	0b1997eH
	DD	0af987bH
	DD	0a79073H
	DD	0a48b71H
	DD	0a48c6fH
	DD	0a0896cH
	DD	098836bH
	DD	08f7b63H
	DD	0444f58H
	DD	0213e5aH
	DD	02a3947H
	DD	0343437H
	DD	0383230H
	DD	0272422H
	DD	0c0c0bH
	DD	020202H
	DD	060506H
	DD	050709H
	DD	0181a1bH
	DD	04c4c4cH
	DD	08b8b8bH
	DD	0bbbbbaH
	DD	0c7c7c8H
	DD	0c2c3c5H
	DD	0c2c2c4H
	DD	0cfcccdH
	DD	0e8e0deH
	DD	0efe4e0H
	DD	0e4dcd8H
	DD	0d5d3d1H
	DD	0cfcecdH
	DD	0cfccceH
	DD	0cfccceH
	DD	0d2cfceH
	DD	0d2cfceH
	DD	0cfcecfH
	DD	0dcdadaH
	DD	0e7e2e3H
	DD	0e9e6e7H
	DD	0ece9ebH
	DD	0e8e5e8H
	DD	0e0dde3H
	DD	0d6d4dcH
	DD	0cbcad2H
	DD	0c4c3c6H
	DD	0c4c2c2H
	DD	0c7c5c3H
	DD	0cccac7H
	DD	0d5d1ccH
	DD	0dfd8d0H
	DD	0e8ded4H
	DD	0e9e0d7H
	DD	0e6e1daH
	DD	0e3e0dcH
	DD	0e3dedaH
	DD	0e4ddd6H
	DD	0e8e0d6H
	DD	0eae1d7H
	DD	0e8e0d7H
	DD	0e6ded5H
	DD	0e5ddd4H
	DD	0e7dfd6H
	DD	0eee5dbH
	DD	0f6ede2H
	DD	0faf1e6H
	DD	0faf1e7H
	DD	0f9f0e5H
	DD	0f9f0e3H
	DD	0f9efe1H
	DD	0f8ede1H
	DD	0f8ede0H
	DD	0f9eee1H
	DD	0f8ede2H
	DD	0f4ece2H
	DD	0efeae4H
	DD	0e7e8e9H
	DD	0dfe5edH
	DD	0d4e1eeH
	DD	0d0deecH
	DD	0d3dae2H
	DD	0d6d4d5H
	DD	0d1cfd1H
	DD	0c8c8c8H
	DD	0d2d5d6H
	DD	0143b3c3dH
	DD	0d4000000H
	DD	0ff494949H
	DD	0ffffffffH
	DD	0ffffffffH
	DD	0ffffffffH
	DD	0ffffffffH
	DD	0ffffffffH
	DD	0ffffffffH
	DD	0ffffffffH
	DD	0ffffffffH
	DD	0ffffffffH
	DD	0ffffffffH
	DD	07d7b7b7bH
	DD	0767777H
	DD	0d4d4d4H
	DD	0f4f4f4H
	DD	0ffffffH
	DD	0ffffffH
	DD	0ffffffH
	DD	0ffffffH
	DD	0ffffffH
	DD	0ffffffH
	DD	0ffffffH
	DD	0ffffffH
	DD	0ffffffH
	DD	0ffffffH
	DD	0ffffffH
	DD	0ffffffH
	DD	0ffffffH
	DD	0ffffffH
	DD	0ffffffH
	DD	0ffffffH
	DD	0ffffffH
	DD	0ffffffH
	DD	0ffffffH
	DD	0ffffffH
	DD	0ffffffH
	DD	0ffffffH
	DD	0ffffffH
	DD	0ffffffH
	DD	0ffffffH
	DD	0ffffffH
	DD	0ffffffH
	DD	0ffffffH
	DD	0ffffffH
	DD	0ffffffH
	DD	0ffffffH
	DD	0ffffffH
	DD	0ffffffH
	DD	0ffffffH
	DD	0ffffffH
	DD	0ffffffH
	DD	0ffffffH
	DD	0ffffffH
	DD	0ffffffH
	DD	0ffffffH
	DD	0ffffffH
	DD	0ffffffH
	DD	0ffffffH
	DD	0ffffffH
	DD	0ffffffH
	DD	0ffffffH
	DD	0ffffffH
	DD	0ffffffH
	DD	0ffffffH
	DD	0ffffffH
	DD	0fdfdfdH
	DD	0e6e6e6H
	DD	0b1b1b1H
	DD	07c7c7cH
	DD	04f5050H
	DD	0313131H
	DD	01d1d1dH
	DD	0171717H
	DD	01a1918H
	DD	01e1d1bH
	DD	090808H
	DD	0100f10H
	DD	0212020H
	DD	0343535H
	DD	03c3d3cH
	DD	03f3f3eH
	DD	0413f3aH
	DD	03f403bH
	DD	03a3d3cH
	DD	03b3d3dH
	DD	0454441H
	DD	0534e48H
	DD	0655c52H
	DD	0776a5dH
	DD	0877564H
	DD	094806cH
	DD	0a18a72H
	DD	0a78f76H
	DD	09f8972H
	DD	0917f6aH
	DD	0857661H
	DD	0776959H
	DD	065584fH
	DD	04e4943H
	DD	0373a38H
	DD	0323332H
	DD	0383432H
	DD	0393634H
	DD	02d2d2bH
	DD	0171717H
	DD	060606H
	DD	020101H
	DD	070707H
	DD	0111111H
	DD	0363636H
	DD	07f7e7eH
	DD	0b8b8b8H
	DD	0c7c7c6H
	DD	0c3c3c3H
	DD	0c0c0c0H
	DD	0c0c0c1H
	DD	0c2c2c4H
	DD	0cccaccH
	DD	0ded8d8H
	DD	0ded7d5H
	DD	0cecacaH
	DD	0c4c4c5H
	DD	0c9c9cbH
	DD	0cecdcfH
	DD	0d1cfd0H
	DD	0d3d0d0H
	DD	0cccbcbH
	DD	0c0c0c0H
	DD	0cac8caH
	DD	0d8d4d6H
	DD	0dcd7d9H
	DD	0dedaddH
	DD	0e1dee0H
	DD	0e0dee4H
	DD	0dcdae6H
	DD	0d6d4e1H
	DD	0cdccd2H
	DD	0c6c5c6H
	DD	0c1c0c0H
	DD	0c0c0c0H
	DD	0c6c4c2H
	DD	0cdcac7H
	DD	0dcd5cfH
	DD	0e6ddd6H
	DD	0eae1d7H
	DD	0eae1d6H
	DD	0ebe2d7H
	DD	0eae1d7H
	DD	0e8e0d7H
	DD	0e8e0d7H
	DD	0e7dfd6H
	DD	0e6ddd4H
	DD	0e8dfd5H
	DD	0eee5dbH
	DD	0f5ece2H
	DD	0f9f1e7H
	DD	0f9f2e7H
	DD	0f9f0e5H
	DD	0faf0e2H
	DD	0f8efe2H
	DD	0f6ebdfH
	DD	0f3e8dfH
	DD	0f2e8e1H
	DD	0efe9e5H
	DD	0eae7e7H
	DD	0e5e7e9H
	DD	0dee5ecH
	DD	0d5e1edH
	DD	0d1ddebH
	DD	0cdd8e5H
	DD	0cdd3daH
	DD	0cfcdceH
	DD	0d1ccc9H
	DD	0d3d1d0H
	DD	0d2d1d0H
	DD	0d6d6d5H
	DD	0143a3a3aH
	DD	0d4000000H
	DD	0ff494949H
	DD	0ffffffffH
	DD	0ffffffffH
	DD	0ffffffffH
	DD	0ffffffffH
	DD	0ffffffffH
	DD	0ffffffffH
	DD	0ffffffffH
	DD	0ffffffffH
	DD	0ffffffffH
	DD	0ffffffffH
	DD	07d7d7d7dH
	DD	0ccccccH
	DD	0ffffffH
	DD	0ffffffH
	DD	0ffffffH
	DD	0ffffffH
	DD	0ffffffH
	DD	0ffffffH
	DD	0ffffffH
	DD	0ffffffH
	DD	0ffffffH
	DD	0ffffffH
	DD	0ffffffH
	DD	0ffffffH
	DD	0ffffffH
	DD	0ffffffH
	DD	0ffffffH
	DD	0ffffffH
	DD	0ffffffH
	DD	0ffffffH
	DD	0ffffffH
	DD	0ffffffH
	DD	0ffffffH
	DD	0ffffffH
	DD	0ffffffH
	DD	0ffffffH
	DD	0ffffffH
	DD	0ffffffH
	DD	0ffffffH
	DD	0ffffffH
	DD	0ffffffH
	DD	0ffffffH
	DD	0ffffffH
	DD	0ffffffH
	DD	0ffffffH
	DD	0ffffffH
	DD	0ffffffH
	DD	0ffffffH
	DD	0ffffffH
	DD	0ffffffH
	DD	0ffffffH
	DD	0ffffffH
	DD	0ffffffH
	DD	0ffffffH
	DD	0ffffffH
	DD	0ffffffH
	DD	0ffffffH
	DD	0ffffffH
	DD	0ffffffH
	DD	0ffffffH
	DD	0ffffffH
	DD	0ffffffH
	DD	0ffffffH
	DD	0ffffffH
	DD	0ffffffH
	DD	0ffffffH
	DD	0ffffffH
	DD	0fbfbfbH
	DD	0ecececH
	DD	0d9d9d9H
	DD	0a8a8a8H
	DD	0686868H
	DD	0353535H
	DD	01a1a1aH
	DD	0141414H
	DD	0e0e0eH
	DD	0191919H
	DD	0272727H
	DD	0333333H
	DD	03d3d3cH
	DD	03d4243H
	DD	03e4343H
	DD	03d4343H
	DD	03f4444H
	DD	03f4243H
	DD	03c3d3eH
	DD	03c3b3bH
	DD	03b3b3cH
	DD	038383fH
	DD	0403d3eH
	DD	04d443eH
	DD	050463fH
	DD	04a423fH
	DD	0413f3eH
	DD	0343b3bH
	DD	0313735H
	DD	0333431H
	DD	0353433H
	DD	0383434H
	DD	03b3c3dH
	DD	035383bH
	DD	0202224H
	DD	0f1113H
	DD	0111111H
	DD	0d0d0cH
	DD	070707H
	DD	0292929H
	DD	06e6e6eH
	DD	0afafb0H
	DD	0c6c6c6H
	DD	0c2c2c2H
	DD	0c1c2c3H
	DD	0c2c4c8H
	DD	0c2c2c5H
	DD	0c1c0c1H
	DD	0c2c1c2H
	DD	0c6c5c8H
	DD	0cecccfH
	DD	0cfcdceH
	DD	0c9c7c8H
	DD	0c7c5c8H
	DD	0d1ced0H
	DD	0dad6d7H
	DD	0e1dcdbH
	DD	0e9e2e0H
	DD	0e3dfddH
	DD	0d3d0d0H
	DD	0d7d3d5H
	DD	0ded8d9H
	DD	0d7d2d3H
	DD	0cfcccdH
	DD	0cfceceH
	DD	0d4d3d6H
	DD	0d9d7dfH
	DD	0d9d6e2H
	DD	0d4d2d9H
	DD	0cecbceH
	DD	0c6c4c6H
	DD	0c0c0c1H
	DD	0bfbfbfH
	DD	0c2c1c1H
	DD	0cecac7H
	DD	0dbd4ceH
	DD	0e1d9d1H
	DD	0e1d9d1H
	DD	0e4ddd4H
	DD	0e8e1d7H
	DD	0e8e0d7H
	DD	0e6ded6H
	DD	0e7dfd6H
	DD	0e7ded5H
	DD	0eee5daH
	DD	0f6eee2H
	DD	0f8f0e5H
	DD	0f8f1e6H
	DD	0faf1e5H
	DD	0fbf1e4H
	DD	0f7efe6H
	DD	0eeebe7H
	DD	0e8e7e7H
	DD	0e4e5e9H
	DD	0e2e7ecH
	DD	0dfe8f0H
	DD	0dbe6f1H
	DD	0d5e3f0H
	DD	0cdddecH
	DD	0c8d6e4H
	DD	0c9d2dcH
	DD	0cbcfd5H
	DD	0cccacbH
	DD	0cbc6c4H
	DD	0d0ccc9H
	DD	0dfdad7H
	DD	0e8e2dfH
	DD	0f0eceaH
	DD	014414140H
	DD	0d4000000H
	DD	0ff494949H
	DD	0ffffffffH
	DD	0ffffffffH
	DD	0ffffffffH
	DD	0ffffffffH
	DD	0ffffffffH
	DD	0ffffffffH
	DD	0ffffffffH
	DD	0ffffffffH
	DD	0ffffffffH
	DD	0ffffffffH
	DD	07d7e7e7eH
	DD	0cfcfcfH
	DD	0ffffffH
	DD	0ffffffH
	DD	0ffffffH
	DD	0ffffffH
	DD	0ffffffH
	DD	0ffffffH
	DD	0ffffffH
	DD	0ffffffH
	DD	0ffffffH
	DD	0ffffffH
	DD	0ffffffH
	DD	0ffffffH
	DD	0ffffffH
	DD	0ffffffH
	DD	0ffffffH
	DD	0ffffffH
	DD	0ffffffH
	DD	0ffffffH
	DD	0ffffffH
	DD	0ffffffH
	DD	0ffffffH
	DD	0ffffffH
	DD	0ffffffH
	DD	0ffffffH
	DD	0ffffffH
	DD	0ffffffH
	DD	0ffffffH
	DD	0ffffffH
	DD	0ffffffH
	DD	0ffffffH
	DD	0ffffffH
	DD	0ffffffH
	DD	0ffffffH
	DD	0ffffffH
	DD	0ffffffH
	DD	0ffffffH
	DD	0ffffffH
	DD	0ffffffH
	DD	0ffffffH
	DD	0ffffffH
	DD	0ffffffH
	DD	0ffffffH
	DD	0ffffffH
	DD	0ffffffH
	DD	0ffffffH
	DD	0ffffffH
	DD	0ffffffH
	DD	0ffffffH
	DD	0ffffffH
	DD	0ffffffH
	DD	0ffffffH
	DD	0ffffffH
	DD	0ffffffH
	DD	0ffffffH
	DD	0ffffffH
	DD	0ffffffH
	DD	0ffffffH
	DD	0ffffffH
	DD	0ffffffH
	DD	0fefefeH
	DD	0ddddddH
	DD	0a3a3a3H
	DD	0616161H
	DD	0343434H
	DD	01a1a1aH
	DD	0121212H
	DD	0131313H
	DD	0191919H
	DD	027272aH
	DD	0353639H
	DD	03f3f41H
	DD	0434244H
	DD	0434344H
	DD	0424547H
	DD	0404549H
	DD	0414548H
	DD	0454244H
	DD	0403f41H
	DD	03f3c3eH
	DD	03b393aH
	DD	0383b3aH
	DD	03a3b3cH
	DD	03b3c40H
	DD	03c3d40H
	DD	03e3e3fH
	DD	0414141H
	DD	041403dH
	DD	02c2d2dH
	DD	0101215H
	DD	0b0c0eH
	DD	0101212H
	DD	01b1c1bH
	DD	0282828H
	DD	05c5c5cH
	DD	0a5a6a6H
	DD	0c5c5c5H
	DD	0c4c4c3H
	DD	0c1c2c2H
	DD	0c1c4c7H
	DD	0c3c8d0H
	DD	0c3ccd6H
	DD	0c3c9d0H
	DD	0c2c2c4H
	DD	0c1bfbfH
	DD	0c2c1c3H
	DD	0c5c5c9H
	DD	0cccacdH
	DD	0d0ccceH
	DD	0d3ceceH
	DD	0d6d1d2H
	DD	0dcd8d8H
	DD	0e8e2dfH
	DD	0f4ebe6H
	DD	0f4ebe7H
	DD	0e9e3e3H
	DD	0eae5e6H
	DD	0e7e1e3H
	DD	0d5d1d2H
	DD	0c3c3c4H
	DD	0c3c4c5H
	DD	0cccbcdH
	DD	0d2d0d3H
	DD	0d4d1d7H
	DD	0d4d1d6H
	DD	0d2d0d4H
	DD	0cdcbceH
	DD	0c5c4c6H
	DD	0c0c0c0H
	DD	0bfbfbfH
	DD	0c5c3c2H
	DD	0d1cdc8H
	DD	0d5d0ccH
	DD	0d0cdc9H
	DD	0d6d2ceH
	DD	0e5ddd6H
	DD	0eae2d8H
	DD	0e8dfd6H
	DD	0ece2d8H
	DD	0f3e9deH
	DD	0f9f0e4H
	DD	0fcf4e8H
	DD	0fbf4e7H
	DD	0faf1e5H
	DD	0fbf1e4H
	DD	0f7f0e8H
	DD	0e9e9e9H
	DD	0dae1e7H
	DD	0d7e3efH
	DD	0d7e7f7H
	DD	0d6e7f8H
	DD	0d3e4f5H
	DD	0d0e1f1H
	DD	0cad8e7H
	DD	0c4d0ddH
	DD	0c3cdd6H
	DD	0c5ccd3H
	DD	0c9c9ccH
	DD	0cac7c7H
	DD	0cdc8c7H
	DD	0d7d2cfH
	DD	0e8dfdaH
	DD	0f2e9e3H
	DD	0fffffdH
	DD	014494949H
	DD	0d4000000H
	DD	0ff494949H
	DD	0ffffffffH
	DD	0ffffffffH
	DD	0ffffffffH
	DD	0ffffffffH
	DD	0ffffffffH
	DD	0ffffffffH
	DD	0ffffffffH
	DD	0ffffffffH
	DD	0ffffffffH
	DD	0ffffffffH
	DD	07d7e7e7eH
	DD	0cfcfcfH
	DD	0ffffffH
	DD	0ffffffH
	DD	0ffffffH
	DD	0ffffffH
	DD	0ffffffH
	DD	0ffffffH
	DD	0ffffffH
	DD	0ffffffH
	DD	0ffffffH
	DD	0ffffffH
	DD	0ffffffH
	DD	0ffffffH
	DD	0ffffffH
	DD	0ffffffH
	DD	0ffffffH
	DD	0ffffffH
	DD	0ffffffH
	DD	0ffffffH
	DD	0ffffffH
	DD	0ffffffH
	DD	0ffffffH
	DD	0ffffffH
	DD	0ffffffH
	DD	0ffffffH
	DD	0ffffffH
	DD	0ffffffH
	DD	0ffffffH
	DD	0ffffffH
	DD	0ffffffH
	DD	0ffffffH
	DD	0ffffffH
	DD	0ffffffH
	DD	0ffffffH
	DD	0ffffffH
	DD	0ffffffH
	DD	0ffffffH
	DD	0ffffffH
	DD	0ffffffH
	DD	0ffffffH
	DD	0ffffffH
	DD	0ffffffH
	DD	0ffffffH
	DD	0ffffffH
	DD	0ffffffH
	DD	0ffffffH
	DD	0ffffffH
	DD	0ffffffH
	DD	0ffffffH
	DD	0ffffffH
	DD	0ffffffH
	DD	0ffffffH
	DD	0ffffffH
	DD	0ffffffH
	DD	0ffffffH
	DD	0ffffffH
	DD	0ffffffH
	DD	0ffffffH
	DD	0ffffffH
	DD	0ffffffH
	DD	0ffffffH
	DD	0ffffffH
	DD	0ffffffH
	DD	0fefefeH
	DD	0d6d6d6H
	DD	0999999H
	DD	05b5b5bH
	DD	02b2b2bH
	DD	0161616H
	DD	0e0d0dH
	DD	0131212H
	DD	01d1c1eH
	DD	02c2c2dH
	DD	0393939H
	DD	0404141H
	DD	0414343H
	DD	0434445H
	DD	0454443H
	DD	0454443H
	DD	0454444H
	DD	0434342H
	DD	0444544H
	DD	0444343H
	DD	0434242H
	DD	0454343H
	DD	0454545H
	DD	0383939H
	DD	01b1d1dH
	DD	0e0e0dH
	DD	0e0d0cH
	DD	0121212H
	DD	0232323H
	DD	0606061H
	DD	09d9d9dH
	DD	0c2c2c3H
	DD	0c7c6c6H
	DD	0c1c1c0H
	DD	0c1c2c3H
	DD	0c3c7caH
	DD	0c3cad3H
	DD	0c3cedcH
	DD	0c3d1e0H
	DD	0c3cdd9H
	DD	0c2c6cbH
	DD	0c0c0c1H
	DD	0c0bfc0H
	DD	0c3c2c5H
	DD	0cccacdH
	DD	0d5d0d0H
	DD	0d7d0cfH
	DD	0d4cfcfH
	DD	0d5d2d1H
	DD	0e2dcdaH
	DD	0eee4dfH
	DD	0ede2deH
	DD	0e3dddcH
	DD	0e3e0e0H
	DD	0e0dddfH
	DD	0d1cfd3H
	DD	0c4c5c8H
	DD	0c9c9ccH
	DD	0d2cfd1H
	DD	0d2cfcfH
	DD	0cecdceH
	DD	0d0cfd1H
	DD	0d0cfd3H
	DD	0d0ced2H
	DD	0cbc9cbH
	DD	0c3c2c3H
	DD	0c1c0c0H
	DD	0c3c3c1H
	DD	0cdcac7H
	DD	0ceccc8H
	DD	0c5c4c3H
	DD	0ccc9c7H
	DD	0e2dad4H
	DD	0ebe2d8H
	DD	0e7ded6H
	DD	0ebe2d9H
	DD	0f6ede3H
	DD	0faf2e6H
	DD	0fbf3e7H
	DD	0fff6e9H
	DD	0fff6e9H
	DD	0f8f3ebH
	DD	0e9eaebH
	DD	0d5d9e1H
	DD	0c9d0d8H
	DD	0cedbe6H
	DD	0d2e5f6H
	DD	0cfe2f4H
	DD	0cbdbeaH
	DD	0c8d4e2H
	DD	0c4ccd7H
	DD	0c1c9d3H
	DD	0c3ccd6H
	DD	0c4cdd8H
	DD	0c6cacfH
	DD	0cac9caH
	DD	0d1ceccH
	DD	0dcd4d0H
	DD	0e4dbd5H
	DD	0efe8e3H
	DD	0ffffffH
	DD	0144c4c4cH
	DD	0d4000000H
	DD	0ff494949H
	DD	0ffffffffH
	DD	0ffffffffH
	DD	0ffffffffH
	DD	0ffffffffH
	DD	0ffffffffH
	DD	0ffffffffH
	DD	0ffffffffH
	DD	0ffffffffH
	DD	0ffffffffH
	DD	0ffffffffH
	DD	07d7e7e7eH
	DD	0cfcfcfH
	DD	0ffffffH
	DD	0ffffffH
	DD	0ffffffH
	DD	0ffffffH
	DD	0ffffffH
	DD	0ffffffH
	DD	0ffffffH
	DD	0ffffffH
	DD	0ffffffH
	DD	0ffffffH
	DD	0ffffffH
	DD	0ffffffH
	DD	0ffffffH
	DD	0ffffffH
	DD	0ffffffH
	DD	0ffffffH
	DD	0ffffffH
	DD	0ffffffH
	DD	0ffffffH
	DD	0ffffffH
	DD	0ffffffH
	DD	0ffffffH
	DD	0ffffffH
	DD	0ffffffH
	DD	0ffffffH
	DD	0ffffffH
	DD	0ffffffH
	DD	0ffffffH
	DD	0ffffffH
	DD	0ffffffH
	DD	0ffffffH
	DD	0ffffffH
	DD	0ffffffH
	DD	0ffffffH
	DD	0ffffffH
	DD	0ffffffH
	DD	0ffffffH
	DD	0ffffffH
	DD	0ffffffH
	DD	0ffffffH
	DD	0ffffffH
	DD	0ffffffH
	DD	0ffffffH
	DD	0ffffffH
	DD	0ffffffH
	DD	0ffffffH
	DD	0ffffffH
	DD	0ffffffH
	DD	0ffffffH
	DD	0ffffffH
	DD	0ffffffH
	DD	0ffffffH
	DD	0ffffffH
	DD	0ffffffH
	DD	0ffffffH
	DD	0ffffffH
	DD	0ffffffH
	DD	0ffffffH
	DD	0ffffffH
	DD	0ffffffH
	DD	0ffffffH
	DD	0ffffffH
	DD	0ffffffH
	DD	0ffffffH
	DD	0ffffffH
	DD	0f8f8f8H
	DD	0d2d2d2H
	DD	0919191H
	DD	0585858H
	DD	0292929H
	DD	0151515H
	DD	0111111H
	DD	0121212H
	DD	01e1e1eH
	DD	02c2c2cH
	DD	03a3a3aH
	DD	0414141H
	DD	0414141H
	DD	0444444H
	DD	0454545H
	DD	0464646H
	DD	0464646H
	DD	0484848H
	DD	03f3f3fH
	DD	0252525H
	DD	0101010H
	DD	0b0b0bH
	DD	0f0f0fH
	DD	0313131H
	DD	0696969H
	DD	0a2a2a2H
	DD	0c1c1c2H
	DD	0c6c5c5H
	DD	0c1c1c0H
	DD	0c2c2c1H
	DD	0c3c5c7H
	DD	0c3c9d0H
	DD	0c3ccd8H
	DD	0c3ceddH
	DD	0c2cfdfH
	DD	0c2cfdfH
	DD	0c2cfdfH
	DD	0c2cbd9H
	DD	0c1c5ccH
	DD	0bfc0c2H
	DD	0bfbfc1H
	DD	0c6c5c7H
	DD	0cecacdH
	DD	0d1cdceH
	DD	0d2cecdH
	DD	0d4cfd0H
	DD	0dbd5d4H
	DD	0e3dad8H
	DD	0ddd5d2H
	DD	0cac8c7H
	DD	0cac9caH
	DD	0d1d0d3H
	DD	0d1d0d3H
	DD	0cfcdd2H
	DD	0d8d4d8H
	DD	0dddadbH
	DD	0d9d6d5H
	DD	0d1cecfH
	DD	0cecdcfH
	DD	0ceccd1H
	DD	0d0ced3H
	DD	0ceccd0H
	DD	0c6c4c6H
	DD	0c3c2c2H
	DD	0c5c3c2H
	DD	0cac8c5H
	DD	0c8c7c5H
	DD	0c0c0c0H
	DD	0cbc9c6H
	DD	0e2dad3H
	DD	0e8dfd6H
	DD	0ded8d0H
	DD	0ded8d1H
	DD	0e1dcd5H
	DD	0e4dfd7H
	DD	0ede6dcH
	DD	0faf0e4H
	DD	0fdf6ecH
	DD	0eef0f1H
	DD	0d4dde5H
	DD	0c5c9ceH
	DD	0c8c5c5H
	DD	0d0d1d1H
	DD	0cfd9e3H
	DD	0c6d5e4H
	DD	0c2cdd9H
	DD	0c2c9d5H
	DD	0c1c8d3H
	DD	0c2cbd7H
	DD	0c4d0dfH
	DD	0c4ceddH
	DD	0c5cbd3H
	DD	0cacbcfH
	DD	0d2cfcfH
	DD	0d8d1ceH
	DD	0dfd9d6H
	DD	0f3f0eeH
	DD	0ffffffH
	DD	0144c4c4cH
	DD	0d4000000H
	DD	0ff494949H
	DD	0ffffffffH
	DD	0ffffffffH
	DD	0ffffffffH
	DD	0ffffffffH
	DD	0ffffffffH
	DD	0ffffffffH
	DD	0ffffffffH
	DD	0ffffffffH
	DD	0ffffffffH
	DD	0ffffffffH
	DD	0937b7b7bH
	DD	0b7b7b7H
	DD	0ffffffH
	DD	0ffffffH
	DD	0ffffffH
	DD	0ffffffH
	DD	0ffffffH
	DD	0ffffffH
	DD	0ffffffH
	DD	0ffffffH
	DD	0ffffffH
	DD	0ffffffH
	DD	0ffffffH
	DD	0ffffffH
	DD	0ffffffH
	DD	0ffffffH
	DD	0ffffffH
	DD	0ffffffH
	DD	0ffffffH
	DD	0ffffffH
	DD	0ffffffH
	DD	0ffffffH
	DD	0ffffffH
	DD	0ffffffH
	DD	0ffffffH
	DD	0ffffffH
	DD	0ffffffH
	DD	0ffffffH
	DD	0ffffffH
	DD	0ffffffH
	DD	0ffffffH
	DD	0ffffffH
	DD	0ffffffH
	DD	0ffffffH
	DD	0ffffffH
	DD	0ffffffH
	DD	0ffffffH
	DD	0ffffffH
	DD	0ffffffH
	DD	0ffffffH
	DD	0ffffffH
	DD	0ffffffH
	DD	0ffffffH
	DD	0ffffffH
	DD	0ffffffH
	DD	0ffffffH
	DD	0ffffffH
	DD	0ffffffH
	DD	0ffffffH
	DD	0ffffffH
	DD	0ffffffH
	DD	0ffffffH
	DD	0ffffffH
	DD	0ffffffH
	DD	0ffffffH
	DD	0ffffffH
	DD	0ffffffH
	DD	0ffffffH
	DD	0ffffffH
	DD	0ffffffH
	DD	0ffffffH
	DD	0ffffffH
	DD	0ffffffH
	DD	0ffffffH
	DD	0ffffffH
	DD	0ffffffH
	DD	0ffffffH
	DD	0ffffffH
	DD	0ffffffH
	DD	0ffffffH
	DD	0f8f8f8H
	DD	0cececeH
	DD	0929292H
	DD	0555555H
	DD	02b2b2bH
	DD	0131313H
	DD	0101010H
	DD	0151515H
	DD	0212121H
	DD	02f2f2fH
	DD	03b3b3bH
	DD	0434343H
	DD	0464646H
	DD	0434343H
	DD	02f2f2fH
	DD	0151515H
	DD	0a0a0aH
	DD	0101010H
	DD	0313131H
	DD	06c6c6cH
	DD	0aaaaa9H
	DD	0c6c7c7H
	DD	0c7c7c7H
	DD	0c1c1c1H
	DD	0c2c1c0H
	DD	0c4c4c4H
	DD	0c4c8caH
	DD	0c4cbd3H
	DD	0c4cddbH
	DD	0c2cedeH
	DD	0c2cedeH
	DD	0c2ceddH
	DD	0c1cdddH
	DD	0c1cddfH
	DD	0c1ccdfH
	DD	0c5cbd7H
	DD	0c7c9ccH
	DD	0c5c4c4H
	DD	0c2c0c2H
	DD	0c3c1c4H
	DD	0c7c6c9H
	DD	0cdccceH
	DD	0d0ceceH
	DD	0d4d0d1H
	DD	0d8d2d1H
	DD	0d0cbcaH
	DD	0c1c0c1H
	DD	0c3c3c4H
	DD	0cdccceH
	DD	0d1cfd2H
	DD	0d3d1d4H
	DD	0dbd7d9H
	DD	0e0dcdeH
	DD	0dedadaH
	DD	0d4d3d2H
	DD	0cdcccdH
	DD	0cdccd0H
	DD	0d0ced4H
	DD	0ceccd0H
	DD	0c7c5c7H
	DD	0c5c3c3H
	DD	0c6c4c3H
	DD	0c7c5c4H
	DD	0c3c2c2H
	DD	0c1c1c1H
	DD	0d1cdcaH
	DD	0e4ddd4H
	DD	0e5ddd5H
	DD	0d7d1cdH
	DD	0d1cdc9H
	DD	0cccac7H
	DD	0c8c6c4H
	DD	0cfcbc9H
	DD	0e2dcd5H
	DD	0eae6e4H
	DD	0dbe1e7H
	DD	0c6ced6H
	DD	0c6c1c1H
	DD	0d6cac2H
	DD	0dad2cbH
	DD	0cdd0d3H
	DD	0c1cad5H
	DD	0c0c8d3H
	DD	0c1c9d4H
	DD	0c3ccd8H
	DD	0c6d1e0H
	DD	0c6d2e3H
	DD	0c3cedcH
	DD	0c3cbd6H
	DD	0caced3H
	DD	0d3d0d1H
	DD	0d9d4d2H
	DD	0e6e2e1H
	DD	0fdfcfcH
	DD	0ffffffH
	DD	0223c3c3cH
	DD	0d6000000H
	DD	0ff494949H
	DD	0ffffffffH
	DD	0ffffffffH
	DD	0ffffffffH
	DD	0ffffffffH
	DD	0ffffffffH
	DD	0ffffffffH
	DD	0ffffffffH
	DD	0ffffffffH
	DD	0ffffffffH
	DD	0ffffffffH
	DD	0df747474H
	DD	024444444H
	DD	0fdfdfdH
	DD	0ffffffH
	DD	0ffffffH
	DD	0ffffffH
	DD	0ffffffH
	DD	0ffffffH
	DD	0ffffffH
	DD	0ffffffH
	DD	0ffffffH
	DD	0ffffffH
	DD	0ffffffH
	DD	0ffffffH
	DD	0ffffffH
	DD	0ffffffH
	DD	0ffffffH
	DD	0ffffffH
	DD	0ffffffH
	DD	0ffffffH
	DD	0ffffffH
	DD	0ffffffH
	DD	0ffffffH
	DD	0ffffffH
	DD	0ffffffH
	DD	0ffffffH
	DD	0ffffffH
	DD	0ffffffH
	DD	0ffffffH
	DD	0ffffffH
	DD	0ffffffH
	DD	0ffffffH
	DD	0ffffffH
	DD	0ffffffH
	DD	0ffffffH
	DD	0ffffffH
	DD	0ffffffH
	DD	0ffffffH
	DD	0ffffffH
	DD	0ffffffH
	DD	0ffffffH
	DD	0ffffffH
	DD	0ffffffH
	DD	0ffffffH
	DD	0ffffffH
	DD	0ffffffH
	DD	0ffffffH
	DD	0ffffffH
	DD	0ffffffH
	DD	0ffffffH
	DD	0ffffffH
	DD	0ffffffH
	DD	0ffffffH
	DD	0ffffffH
	DD	0ffffffH
	DD	0ffffffH
	DD	0ffffffH
	DD	0ffffffH
	DD	0ffffffH
	DD	0ffffffH
	DD	0ffffffH
	DD	0ffffffH
	DD	0ffffffH
	DD	0ffffffH
	DD	0ffffffH
	DD	0ffffffH
	DD	0ffffffH
	DD	0ffffffH
	DD	0ffffffH
	DD	0ffffffH
	DD	0ffffffH
	DD	0ffffffH
	DD	0ffffffH
	DD	0ffffffH
	DD	0d8d8d8H
	DD	09e9e9eH
	DD	0606060H
	DD	0313131H
	DD	0222222H
	DD	01a1a1aH
	DD	01b1b1bH
	DD	0282828H
	DD	02d2d2dH
	DD	0151515H
	DD	080808H
	DD	0181818H
	DD	03c3c3cH
	DD	07d7d7dH
	DD	0b8b8b8H
	DD	0d2d2d2H
	DD	0cfd0d0H
	DD	0cacacaH
	DD	0cdcbcaH
	DD	0cfceccH
	DD	0cfd0d0H
	DD	0cfd4d7H
	DD	0cdd6e0H
	DD	0ccd8e6H
	DD	0ccd8e9H
	DD	0ccd8e9H
	DD	0cbd8e8H
	DD	0cbd7e8H
	DD	0cbd6e8H
	DD	0ccd7e8H
	DD	0d2dae8H
	DD	0dde0e5H
	DD	0e8e4e0H
	DD	0e5dfd9H
	DD	0d8d5d2H
	DD	0cecdcdH
	DD	0cccbceH
	DD	0ceced0H
	DD	0d1d1d3H
	DD	0dad8d9H
	DD	0dfdbdcH
	DD	0dbd8d8H
	DD	0d5d4d5H
	DD	0d6d5d6H
	DD	0dbd8dbH
	DD	0dddadcH
	DD	0dad7d9H
	DD	0dcd9dbH
	DD	0e0dddfH
	DD	0e1dddeH
	DD	0dad8d7H
	DD	0d6d5d6H
	DD	0d8d6dbH
	DD	0d8d7ddH
	DD	0d5d4d7H
	DD	0d0cfd0H
	DD	0cfcdceH
	DD	0d1cfceH
	DD	0cdccccH
	DD	0c9c9c9H
	DD	0d3d1cfH
	DD	0e8e3dbH
	DD	0f4ece2H
	DD	0f3ebe2H
	DD	0efe9e2H
	DD	0ece7e0H
	DD	0e2ddd8H
	DD	0d6d1cfH
	DD	0cfcbcaH
	DD	0d3d1d0H
	DD	0d8d8d9H
	DD	0d2d5dbH
	DD	0d1cfd1H
	DD	0dfd4cdH
	DD	0eee2daH
	DD	0e8e3e0H
	DD	0d6d7dbH
	DD	0ccd0d7H
	DD	0cbd2dbH
	DD	0ccd7e2H
	DD	0d0ddecH
	DD	0d2dff1H
	DD	0cfddedH
	DD	0ccd7e5H
	DD	0ccd6e2H
	DD	0d6dae1H
	DD	0e1dfdfH
	DD	0ebe5e2H
	DD	0f8f5f4H
	DD	0ffffffH
	DD	0aaaaaaH
	DD	058010101H
	DD	0db000000H
	DD	0ff494949H
	DD	0ffffffffH
	DD	0ffffffffH
	DD	0ffffffffH
	DD	0ffffffffH
	DD	0ffffffffH
	DD	0ffffffffH
	DD	0ffffffffH
	DD	0ffffffffH
	DD	0ffffffffH
	DD	0ffffffffH
	DD	0ff7c7c7cH
	DD	0a7000000H
	DD	0174d4d4dH
	DD	0aeaeaeH
	DD	0c2c2c2H
	DD	0c1c1c1H
	DD	0c1c1c1H
	DD	0c1c1c1H
	DD	0c1c1c1H
	DD	0c1c1c1H
	DD	0c1c1c1H
	DD	0c1c1c1H
	DD	0c1c1c1H
	DD	0c1c1c1H
	DD	0c1c1c1H
	DD	0c1c1c1H
	DD	0c1c1c1H
	DD	0c1c1c1H
	DD	0c1c1c1H
	DD	0c1c1c1H
	DD	0c1c1c1H
	DD	0c1c1c1H
	DD	0c1c1c1H
	DD	0c1c1c1H
	DD	0c1c1c1H
	DD	0c1c1c1H
	DD	0c1c1c1H
	DD	0c1c1c1H
	DD	0c1c1c1H
	DD	0c1c1c1H
	DD	0c1c1c1H
	DD	0c1c1c1H
	DD	0c1c1c1H
	DD	0c1c1c1H
	DD	0c1c1c1H
	DD	0c1c1c1H
	DD	0c1c1c1H
	DD	0c1c1c1H
	DD	0c1c1c1H
	DD	0c1c1c1H
	DD	0c1c1c1H
	DD	0c1c1c1H
	DD	0c1c1c1H
	DD	0c1c1c1H
	DD	0c1c1c1H
	DD	0c1c1c1H
	DD	0c1c1c1H
	DD	0c1c1c1H
	DD	0c1c1c1H
	DD	0c1c1c1H
	DD	0c1c1c1H
	DD	0c1c1c1H
	DD	0c1c1c1H
	DD	0c1c1c1H
	DD	0c1c1c1H
	DD	0c1c1c1H
	DD	0c1c1c1H
	DD	0c1c1c1H
	DD	0c1c1c1H
	DD	0c1c1c1H
	DD	0c1c1c1H
	DD	0c1c1c1H
	DD	0c1c1c1H
	DD	0c1c1c1H
	DD	0c1c1c1H
	DD	0c1c1c1H
	DD	0c1c1c1H
	DD	0c1c1c1H
	DD	0c1c1c1H
	DD	0c1c1c1H
	DD	0c1c1c1H
	DD	0c1c1c1H
	DD	0c2c2c2H
	DD	0c4c4c4H
	DD	0c9c9c9H
	DD	0cacacaH
	DD	0b7b7b7H
	DD	08b8b8bH
	DD	0535353H
	DD	0353535H
	DD	02d2d2dH
	DD	0252525H
	DD	0101010H
	DD	030303H
	DD	0161616H
	DD	0494949H
	DD	0888888H
	DD	09b9b9bH
	DD	0969695H
	DD	0939393H
	DD	0939393H
	DD	0939393H
	DD	0969494H
	DD	0979797H
	DD	096999cH
	DD	0949ba1H
	DD	0939ba5H
	DD	0929ba8H
	DD	0929ba8H
	DD	0929ba8H
	DD	0929ba7H
	DD	0929aa7H
	DD	0949ba6H
	DD	09a9ea5H
	DD	0a1a2a3H
	DD	0aaa7a4H
	DD	0b2aca4H
	DD	0b1aba3H
	DD	0a8a39fH
	DD	09e9b99H
	DD	0979695H
	DD	0939394H
	DD	0939495H
	DD	09a989aH
	DD	0a19e9fH
	DD	0a3a1a3H
	DD	0a2a1a2H
	DD	0a09e9fH
	DD	09f9d9eH
	DD	09f9c9eH
	DD	09b999aH
	DD	0989798H
	DD	09b999bH
	DD	09c999bH
	DD	09a9899H
	DD	09b999bH
	DD	09c9b9fH
	DD	09c9a9dH
	DD	09b999aH
	DD	0989696H
	DD	0969494H
	DD	0949394H
	DD	0929292H
	DD	0949393H
	DD	0a19e9aH
	DD	0b1aba3H
	DD	0b4aea6H
	DD	0b4aea7H
	DD	0b8b3acH
	DD	0b7b4acH
	DD	0b3aea7H
	DD	0aaa4a0H
	DD	09d9a98H
	DD	0929393H
	DD	0919292H
	DD	0939393H
	DD	09e9794H
	DD	0aaa19bH
	DD	0afa9a8H
	DD	0a3a5a9H
	DD	0979ba0H
	DD	094979bH
	DD	094989dH
	DD	0949ca5H
	DD	097a1adH
	DD	098a1afH
	DD	0959da9H
	DD	0929aa4H
	DD	0939ba5H
	DD	09b9fa5H
	DD	0a4a3a4H
	DD	0ada9a7H
	DD	0aeacaaH
	DD	07b7a79H
	DD	02d101010H
	DD	095000000H
	DD	0e5000000H
	DD	0ff494949H
	DD	0ffffffffH
	DD	0ffffffffH
	DD	0ffffffffH
	DD	0ffffffffH
	DD	0ffffffffH
	DD	0ffffffffH
	DD	0ffffffffH
	DD	0ffffffffH
	DD	0ffffffffH
	DD	0ffffffffH
	DD	0ff7d7d7dH
	DD	0ed000000H
	DD	0a0000000H
	DD	053000000H
	DD	03c000000H
	DD	038000000H
	DD	038000000H
	DD	038000000H
	DD	038000000H
	DD	038000000H
	DD	038000000H
	DD	038000000H
	DD	038000000H
	DD	038000000H
	DD	038000000H
	DD	038000000H
	DD	038000000H
	DD	038000000H
	DD	038000000H
	DD	038000000H
	DD	038000000H
	DD	038000000H
	DD	038000000H
	DD	038000000H
	DD	038000000H
	DD	038000000H
	DD	038000000H
	DD	038000000H
	DD	038000000H
	DD	038000000H
	DD	038000000H
	DD	038000000H
	DD	038000000H
	DD	038000000H
	DD	038000000H
	DD	038000000H
	DD	038000000H
	DD	038000000H
	DD	038000000H
	DD	038000000H
	DD	038000000H
	DD	038000000H
	DD	038000000H
	DD	038000000H
	DD	038000000H
	DD	038000000H
	DD	038000000H
	DD	038000000H
	DD	038000000H
	DD	038000000H
	DD	038000000H
	DD	038000000H
	DD	038000000H
	DD	038000000H
	DD	038000000H
	DD	038000000H
	DD	038000000H
	DD	038000000H
	DD	038000000H
	DD	038000000H
	DD	038000000H
	DD	038000000H
	DD	038000000H
	DD	038000000H
	DD	038000000H
	DD	038000000H
	DD	038000000H
	DD	038000000H
	DD	038000000H
	DD	038000000H
	DD	038000000H
	DD	038000000H
	DD	038000000H
	DD	038000000H
	DD	038000000H
	DD	038000000H
	DD	038000000H
	DD	038000000H
	DD	038000000H
	DD	0380b0b0bH
	DD	038151515H
	DD	02f1f1f1fH
	DD	01d242424H
	DD	024131313H
	DD	038050505H
	DD	038000000H
	DD	038000000H
	DD	038000000H
	DD	038000000H
	DD	038000000H
	DD	038000000H
	DD	038000000H
	DD	038000000H
	DD	038000000H
	DD	038000000H
	DD	038000000H
	DD	038000000H
	DD	038000000H
	DD	038000000H
	DD	038000000H
	DD	038000000H
	DD	038000000H
	DD	038000000H
	DD	038000000H
	DD	038000000H
	DD	038000000H
	DD	038000000H
	DD	038000000H
	DD	038000000H
	DD	038000000H
	DD	038000000H
	DD	038000000H
	DD	038000000H
	DD	038000000H
	DD	038000000H
	DD	038000000H
	DD	038000000H
	DD	038000000H
	DD	038000000H
	DD	038000000H
	DD	038000000H
	DD	038000000H
	DD	038000000H
	DD	038000000H
	DD	038000000H
	DD	038000000H
	DD	038000000H
	DD	038000000H
	DD	038000000H
	DD	038000000H
	DD	038000000H
	DD	038000000H
	DD	038000000H
	DD	038000000H
	DD	038000000H
	DD	038000000H
	DD	038000000H
	DD	038000000H
	DD	038000000H
	DD	038000000H
	DD	038000000H
	DD	038000000H
	DD	038000000H
	DD	038000000H
	DD	038000000H
	DD	038000000H
	DD	038000000H
	DD	038000000H
	DD	038000000H
	DD	038000000H
	DD	038000000H
	DD	038000000H
	DD	038000000H
	DD	038000000H
	DD	038000000H
	DD	038000000H
	DD	038000000H
	DD	038000000H
	DD	038000000H
	DD	038000000H
	DD	038000000H
	DD	037000000H
	DD	03a000000H
	DD	04f000000H
	DD	082000000H
	DD	0c5000000H
	DD	0f6000000H
	DD	0ff494949H
	DD	0ffffffffH
	DD	0ffffffffH
	DD	0ffffffffH
	DD	0ffffffffH
	DD	0ffffffffH
	DD	0ffffffffH
	DD	0ffffffffH
	DD	0ffffffffH
	DD	0ffffffffH
	DD	0ffffffffH
	DD	0ff7d7d7dH
	DD	0fb000000H
	DD	0e5000000H
	DD	0c1000000H
	DD	0a6000000H
	DD	09f000000H
	DD	09e000000H
	DD	09e000000H
	DD	09e000000H
	DD	09e000000H
	DD	09e000000H
	DD	09e000000H
	DD	09e000000H
	DD	09e000000H
	DD	09e000000H
	DD	09e000000H
	DD	09e000000H
	DD	09e000000H
	DD	09e000000H
	DD	09e000000H
	DD	09e000000H
	DD	09e000000H
	DD	09e000000H
	DD	09e000000H
	DD	09e000000H
	DD	09e000000H
	DD	09e000000H
	DD	09e000000H
	DD	09e000000H
	DD	09e000000H
	DD	09e000000H
	DD	09e000000H
	DD	09e000000H
	DD	09e000000H
	DD	09e000000H
	DD	09e000000H
	DD	09e000000H
	DD	09e000000H
	DD	09e000000H
	DD	09e000000H
	DD	09e000000H
	DD	09e000000H
	DD	09e000000H
	DD	09e000000H
	DD	09e000000H
	DD	09e000000H
	DD	09e000000H
	DD	09e000000H
	DD	09e000000H
	DD	09e000000H
	DD	09e000000H
	DD	09e000000H
	DD	09e000000H
	DD	09e000000H
	DD	09e000000H
	DD	09e000000H
	DD	09e000000H
	DD	09e000000H
	DD	09e000000H
	DD	09e000000H
	DD	09e000000H
	DD	09e000000H
	DD	09e000000H
	DD	09e000000H
	DD	09e000000H
	DD	09e000000H
	DD	09e000000H
	DD	09e000000H
	DD	09e000000H
	DD	09e000000H
	DD	09e000000H
	DD	09e000000H
	DD	09e000000H
	DD	09e000000H
	DD	09e000000H
	DD	09e000000H
	DD	09e000000H
	DD	09e000000H
	DD	09e000000H
	DD	09e000000H
	DD	09e000000H
	DD	09d000000H
	DD	09a020202H
	DD	09b010101H
	DD	09e000000H
	DD	09e000000H
	DD	09e000000H
	DD	09e000000H
	DD	09e000000H
	DD	09e000000H
	DD	09e000000H
	DD	09e000000H
	DD	09e000000H
	DD	09e000000H
	DD	09e000000H
	DD	09e000000H
	DD	09e000000H
	DD	09e000000H
	DD	09e000000H
	DD	09e000000H
	DD	09e000000H
	DD	09e000000H
	DD	09e000000H
	DD	09e000000H
	DD	09e000000H
	DD	09e000000H
	DD	09e000000H
	DD	09e000000H
	DD	09e000000H
	DD	09e000000H
	DD	09e000000H
	DD	09e000000H
	DD	09e000000H
	DD	09e000000H
	DD	09e000000H
	DD	09e000000H
	DD	09e000000H
	DD	09e000000H
	DD	09e000000H
	DD	09e000000H
	DD	09e000000H
	DD	09e000000H
	DD	09e000000H
	DD	09e000000H
	DD	09e000000H
	DD	09e000000H
	DD	09e000000H
	DD	09e000000H
	DD	09e000000H
	DD	09e000000H
	DD	09e000000H
	DD	09e000000H
	DD	09e000000H
	DD	09e000000H
	DD	09e000000H
	DD	09e000000H
	DD	09e000000H
	DD	09e000000H
	DD	09e000000H
	DD	09e000000H
	DD	09e000000H
	DD	09e000000H
	DD	09e000000H
	DD	09e000000H
	DD	09e000000H
	DD	09e000000H
	DD	09e000000H
	DD	09e000000H
	DD	09e000000H
	DD	09e000000H
	DD	09e000000H
	DD	09e000000H
	DD	09e000000H
	DD	09e000000H
	DD	09e000000H
	DD	09e000000H
	DD	09e000000H
	DD	09e000000H
	DD	09e000000H
	DD	09e000000H
	DD	09e000000H
	DD	09e000000H
	DD	0a0000000H
	DD	0ad000000H
	DD	0cc000000H
	DD	0f0000000H
	DD	0ff000000H
	DD	0ff494949H
	DD	0ffffffffH
	DD	0ffffffffH
	DD	0ffffffffH
	DD	0ffffffffH
	DD	0ffffffffH
	DD	0ffffffffH
	DD	0ffffffffH
	DD	0ffffffffH
	DD	0ffffffffH
	DD	0ffffffffH
	DD	0ff7d7d7dH
	DD	0ff000000H
	DD	0fd000000H
	DD	0f6000000H
	DD	0f0000000H
	DD	0ed000000H
	DD	0ed000000H
	DD	0ed000000H
	DD	0ed000000H
	DD	0ed000000H
	DD	0ed000000H
	DD	0ed000000H
	DD	0ed000000H
	DD	0ed000000H
	DD	0ed000000H
	DD	0ed000000H
	DD	0ed000000H
	DD	0ed000000H
	DD	0ed000000H
	DD	0ed000000H
	DD	0ed000000H
	DD	0ed000000H
	DD	0ed000000H
	DD	0ed000000H
	DD	0ed000000H
	DD	0ef000000H
	DD	0f0000000H
	DD	0f0000000H
	DD	0f0000000H
	DD	0f0000000H
	DD	0f0000000H
	DD	0f0000000H
	DD	0f0000000H
	DD	0ee000000H
	DD	0ed000000H
	DD	0ed000000H
	DD	0ed000000H
	DD	0ed000000H
	DD	0ed000000H
	DD	0ed000000H
	DD	0ed000000H
	DD	0ed000000H
	DD	0ed000000H
	DD	0ed000000H
	DD	0ed000000H
	DD	0ed000000H
	DD	0ed000000H
	DD	0ed000000H
	DD	0ed000000H
	DD	0ed000000H
	DD	0ed000000H
	DD	0ed000000H
	DD	0ed000000H
	DD	0ed000000H
	DD	0ed000000H
	DD	0ed000000H
	DD	0ed000000H
	DD	0ed000000H
	DD	0ed000000H
	DD	0ed000000H
	DD	0ed000000H
	DD	0ed000000H
	DD	0ed000000H
	DD	0ed000000H
	DD	0ed000000H
	DD	0ed000000H
	DD	0ed000000H
	DD	0ed000000H
	DD	0ed000000H
	DD	0ed000000H
	DD	0ed000000H
	DD	0ed000000H
	DD	0ed000000H
	DD	0ed000000H
	DD	0ed000000H
	DD	0ed000000H
	DD	0ed000000H
	DD	0ed000000H
	DD	0ed000000H
	DD	0ed000000H
	DD	0ee000000H
	DD	0f0000000H
	DD	0f0000000H
	DD	0f0000000H
	DD	0ef000000H
	DD	0ed000000H
	DD	0ed000000H
	DD	0ed000000H
	DD	0ed000000H
	DD	0ed000000H
	DD	0ed000000H
	DD	0ed000000H
	DD	0ed000000H
	DD	0ed000000H
	DD	0ef000000H
	DD	0f0000000H
	DD	0f0000000H
	DD	0f0000000H
	DD	0f0000000H
	DD	0f0000000H
	DD	0f0000000H
	DD	0ef000000H
	DD	0ed000000H
	DD	0ed000000H
	DD	0ed000000H
	DD	0ed000000H
	DD	0ed000000H
	DD	0ed000000H
	DD	0ed000000H
	DD	0ed000000H
	DD	0ed000000H
	DD	0ed000000H
	DD	0ed000000H
	DD	0ed000000H
	DD	0ed000000H
	DD	0ed000000H
	DD	0ed000000H
	DD	0ed000000H
	DD	0ed000000H
	DD	0ed000000H
	DD	0ed000000H
	DD	0ed000000H
	DD	0ed000000H
	DD	0ed000000H
	DD	0ed000000H
	DD	0ed000000H
	DD	0ed000000H
	DD	0ed000000H
	DD	0ed000000H
	DD	0ed000000H
	DD	0ed000000H
	DD	0ed000000H
	DD	0ed000000H
	DD	0ed000000H
	DD	0ed000000H
	DD	0ed000000H
	DD	0ed000000H
	DD	0ed000000H
	DD	0ed000000H
	DD	0ed000000H
	DD	0ed000000H
	DD	0ed000000H
	DD	0ed000000H
	DD	0ed000000H
	DD	0ed000000H
	DD	0ed000000H
	DD	0ed000000H
	DD	0ed000000H
	DD	0ed000000H
	DD	0ed000000H
	DD	0ed000000H
	DD	0ed000000H
	DD	0ed000000H
	DD	0ed000000H
	DD	0ed000000H
	DD	0ed000000H
	DD	0ed000000H
	DD	0ed000000H
	DD	0ed000000H
	DD	0ed000000H
	DD	0ed000000H
	DD	0ed000000H
	DD	0ee000000H
	DD	0f2000000H
	DD	0fa000000H
	DD	0ff000000H
	DD	0ff000000H
	DD	0ff494949H
	DD	0ffffffffH
	DD	0ffffffffH
	DD	0ffffffffH
	DD	0ffffffffH
	DD	0ffffffffH
	DD	0ffffffffH
	DD	0ffffffffH
	DD	0ffffffffH
	DD	0ffffffffH
	DD	0ffffffffH
	DD	0ffd4d4d4H
	DD	0ffa4a4a4H
	DD	0ffaaaaaaH
	DD	0ffaaaaaaH
	DD	0ffaaaaaaH
	DD	0ffaaaaaaH
	DD	0ffaaaaaaH
	DD	0ffaaaaaaH
	DD	0ffaaaaaaH
	DD	0ffaaaaaaH
	DD	0ffaaaaaaH
	DD	0ffaaaaaaH
	DD	0ffaaaaaaH
	DD	0ffaaaaaaH
	DD	0ffaaaaaaH
	DD	0ffaaaaaaH
	DD	0ffaaaaaaH
	DD	0ffaaaaaaH
	DD	0ffaaaaaaH
	DD	0ffaaaaaaH
	DD	0ffaaaaaaH
	DD	0ffaaaaaaH
	DD	0ffabababH
	DD	0ff989898H
	DD	0ff919191H
	DD	0ff8d8d8dH
	DD	0fe878787H
	DD	0fe888888H
	DD	0fe888888H
	DD	0fe888888H
	DD	0fe888888H
	DD	0fe888888H
	DD	0fe888888H
	DD	0ff8e8e8eH
	DD	0ff929292H
	DD	0ff929292H
	DD	0ff929292H
	DD	0ff929292H
	DD	0ff929292H
	DD	0ff929292H
	DD	0ff929292H
	DD	0ff929292H
	DD	0ff929292H
	DD	0ff929292H
	DD	0ff929292H
	DD	0ff929292H
	DD	0ff929292H
	DD	0ff929292H
	DD	0ff929292H
	DD	0ff929292H
	DD	0ff929292H
	DD	0ff929292H
	DD	0ff929292H
	DD	0ff929292H
	DD	0ff929292H
	DD	0ff929292H
	DD	0ff929292H
	DD	0ff929292H
	DD	0ff929292H
	DD	0ff929292H
	DD	0ff929292H
	DD	0ff929292H
	DD	0ff929292H
	DD	0ff929292H
	DD	0ff929292H
	DD	0ff929292H
	DD	0ff929292H
	DD	0ff929292H
	DD	0ff929292H
	DD	0ff929292H
	DD	0ff929292H
	DD	0ff929292H
	DD	0ff929292H
	DD	0ff929292H
	DD	0ff929292H
	DD	0ff929292H
	DD	0ff929292H
	DD	0ff929292H
	DD	0ff929292H
	DD	0ff929292H
	DD	0ff8e8e8eH
	DD	0fe888888H
	DD	0fe888888H
	DD	0fe878787H
	DD	0ff8c8c8cH
	DD	0ff929292H
	DD	0ff929292H
	DD	0ff929292H
	DD	0ff929292H
	DD	0ff929292H
	DD	0ff929292H
	DD	0ff929292H
	DD	0ff929292H
	DD	0ff929292H
	DD	0ff8a8a8aH
	DD	0fe888888H
	DD	0fe888888H
	DD	0fe888888H
	DD	0fe888888H
	DD	0fe888888H
	DD	0fe888888H
	DD	0ff8a8a8aH
	DD	0ff909090H
	DD	0ff929292H
	DD	0ff929292H
	DD	0ff929292H
	DD	0ff929292H
	DD	0ff929292H
	DD	0ff929292H
	DD	0ff929292H
	DD	0ff929292H
	DD	0ff929292H
	DD	0ff929292H
	DD	0ff929292H
	DD	0ff929292H
	DD	0ff929292H
	DD	0ff929292H
	DD	0ff929292H
	DD	0ff929292H
	DD	0ff929292H
	DD	0ff929292H
	DD	0ff929292H
	DD	0ff929292H
	DD	0ff929292H
	DD	0ff929292H
	DD	0ff929292H
	DD	0ff929292H
	DD	0ff929292H
	DD	0ff929292H
	DD	0ff929292H
	DD	0ff929292H
	DD	0ff929292H
	DD	0ff929292H
	DD	0ff929292H
	DD	0ff929292H
	DD	0ff929292H
	DD	0ff929292H
	DD	0ff929292H
	DD	0ff929292H
	DD	0ff929292H
	DD	0ff929292H
	DD	0ff929292H
	DD	0ff929292H
	DD	0ff929292H
	DD	0ff929292H
	DD	0ff929292H
	DD	0ff929292H
	DD	0ff929292H
	DD	0ff929292H
	DD	0ff929292H
	DD	0ff929292H
	DD	0ff919191H
	DD	0ff999999H
	DD	0ffacacacH
	DD	0ffaaaaaaH
	DD	0ffaaaaaaH
	DD	0ffaaaaaaH
	DD	0ffaaaaaaH
	DD	0ffaaaaaaH
	DD	0ffaaaaaaH
	DD	0ffaaaaaaH
	DD	0ffaaaaaaH
	DD	0ffaaaaaaH
	DD	0ffaaaaaaH
	DD	0ffaaaaaaH
	DD	0ffaaaaaaH
	DD	0ffa5a5a5H
	DD	0ffc2c2c2H
	DD	0ffffffffH
	DD	0ffffffffH
	DD	0ffffffffH
	DD	0ffffffffH
	DD	0ffffffffH
	DD	0ffffffffH
	DD	0ffffffffH
	DD	0ffffffffH
	DD	0ffffffffH
	DD	0ffffffffH
	DD	0ffffffffH
	DD	0ffffffffH
	DD	0ffffffffH
	DD	0ffffffffH
	DD	0ffffffffH
	DD	0ffffffffH
	DD	0ffffffffH
	DD	0ffffffffH
	DD	0ffffffffH
	DD	0ffffffffH
	DD	0ffffffffH
	DD	0ffffffffH
	DD	0ffffffffH
	DD	0ffffffffH
	DD	0ffffffffH
	DD	0ffffffffH
	DD	0ffffffffH
	DD	0ffffffffH
	DD	0ffffffffH
	DD	0ffffffffH
	DD	0ffffffffH
	DD	0ffffffffH
	DD	0ffffffffH
	DD	0ff525252H
	DD	0f9060606H
	DD	075343434H
	DD	042585858H
	DD	048545454H
	DD	048545454H
	DD	048545454H
	DD	048545454H
	DD	047555555H
	DD	04c515151H
	DD	0722b2b2bH
	DD	0a50e0e0eH
	DD	0f20a0a0aH
	DD	0ff131313H
	DD	0ff151515H
	DD	0ff151515H
	DD	0ff151515H
	DD	0ff151515H
	DD	0ff151515H
	DD	0ff151515H
	DD	0ff151515H
	DD	0ff151515H
	DD	0ff151515H
	DD	0ff151515H
	DD	0ff151515H
	DD	0ff151515H
	DD	0ff151515H
	DD	0ff151515H
	DD	0ff151515H
	DD	0ff151515H
	DD	0ff151515H
	DD	0ff151515H
	DD	0ff151515H
	DD	0ff151515H
	DD	0ff151515H
	DD	0ff151515H
	DD	0ff151515H
	DD	0ff151515H
	DD	0ff151515H
	DD	0ff151515H
	DD	0ff151515H
	DD	0ff151515H
	DD	0ff151515H
	DD	0ff151515H
	DD	0ff151515H
	DD	0ff151515H
	DD	0ff151515H
	DD	0ff151515H
	DD	0ff151515H
	DD	0ff151515H
	DD	0ff151515H
	DD	0ff151515H
	DD	0ff151515H
	DD	0ff151515H
	DD	0ff151515H
	DD	0ff151515H
	DD	0ff121212H
	DD	0882c2c2cH
	DD	041575757H
	DD	048545454H
	DD	043575757H
	DD	06d373737H
	DD	0f4131313H
	DD	0ff151515H
	DD	0ff151515H
	DD	0ff151515H
	DD	0ff151515H
	DD	0ff151515H
	DD	0ff151515H
	DD	0ff141414H
	DD	0de171717H
	DD	0554a4a4aH
	DD	045565656H
	DD	048545454H
	DD	048545454H
	DD	048545454H
	DD	048545454H
	DD	047555555H
	DD	056484848H
	DD	0801c1c1cH
	DD	0c7090909H
	DD	0fe0d0d0dH
	DD	0ff151515H
	DD	0ff151515H
	DD	0ff151515H
	DD	0ff151515H
	DD	0ff151515H
	DD	0ff151515H
	DD	0ff151515H
	DD	0ff151515H
	DD	0ff151515H
	DD	0ff151515H
	DD	0ff151515H
	DD	0ff151515H
	DD	0ff151515H
	DD	0ff151515H
	DD	0ff151515H
	DD	0ff151515H
	DD	0ff151515H
	DD	0ff151515H
	DD	0ff151515H
	DD	0ff151515H
	DD	0ff151515H
	DD	0ff151515H
	DD	0ff151515H
	DD	0ff151515H
	DD	0ff151515H
	DD	0ff151515H
	DD	0ff151515H
	DD	0ff151515H
	DD	0ff151515H
	DD	0ff151515H
	DD	0ff151515H
	DD	0ff151515H
	DD	0ff151515H
	DD	0ff151515H
	DD	0ff151515H
	DD	0ff151515H
	DD	0ff151515H
	DD	0ff151515H
	DD	0ff151515H
	DD	0ff151515H
	DD	0ff151515H
	DD	0ff151515H
	DD	0ff151515H
	DD	0ff151515H
	DD	0ff151515H
	DD	0ff151515H
	DD	0ff080808H
	DD	0ff545454H
	DD	0ffffffffH
	DD	0ffffffffH
	DD	0ffffffffH
	DD	0ffffffffH
	DD	0ffffffffH
	DD	0ffffffffH
	DD	0ffffffffH
	DD	0ffffffffH
	DD	0ffffffffH
	DD	0ffffffffH
	DD	0ffffffffH
	DD	0ffffffffH
	DD	0ffffffffH
	DD	0ffffffffH
	DD	0ffffffffH
	DD	0ffffffffH
	DD	0ffffffffH
	DD	0ffffffffH
	DD	0ffffffffH
	DD	0ffffffffH
	DD	0ffffffffH
	DD	0ffffffffH
	DD	0ffffffffH
	DD	0ffffffffH
	DD	0ffffffffH
	DD	0ffffffffH
	DD	0ffffffffH
	DD	0ffffffffH
	DD	0ffffffffH
	DD	0ffffffffH
	DD	0ffffffffH
	DD	0ffffffffH
	DD	0ffffffffH
	DD	0ffffffffH
	DD	0ffffffffH
	DD	0ffffffffH
	DD	0ffffffffH
	DD	0ffffffffH
	DD	0ffffffffH
	DD	0ffffffffH
	DD	0ffffffffH
	DD	0ffffffffH
	DD	0ffffffffH
	DD	0ffffffffH
	DD	0ffffffffH
	DD	0ffffffffH
	DD	0ffffffffH
	DD	0ffffffffH
	DD	0ff424242H
	DD	0db000000H
	DD	0f7c7c7cH
	DD	0ffffffH
	DD	0f6f6f6H
	DD	0f6f6f6H
	DD	0f7f7f7H
	DD	0f7f7f7H
	DD	0f7f7f7H
	DD	0f4f4f4H
	DD	0e4e4e4H
	DD	0bdbdbdH
	DD	0224d4d4dH
	DD	0b2000000H
	DD	0ff000000H
	DD	0ff000000H
	DD	0ff000000H
	DD	0ff000000H
	DD	0ff000000H
	DD	0ff000000H
	DD	0ff000000H
	DD	0ff000000H
	DD	0ff000000H
	DD	0ff000000H
	DD	0ff000000H
	DD	0ff000000H
	DD	0ff000000H
	DD	0ff000000H
	DD	0ff000000H
	DD	0ff000000H
	DD	0ff000000H
	DD	0ff000000H
	DD	0ff000000H
	DD	0ff000000H
	DD	0ff000000H
	DD	0ff000000H
	DD	0ff000000H
	DD	0ff000000H
	DD	0ff000000H
	DD	0ff000000H
	DD	0ff000000H
	DD	0ff000000H
	DD	0ff000000H
	DD	0ff000000H
	DD	0ff000000H
	DD	0ff000000H
	DD	0ff000000H
	DD	0ff000000H
	DD	0ff000000H
	DD	0ff000000H
	DD	0ff000000H
	DD	0ff000000H
	DD	0ff000000H
	DD	0ff000000H
	DD	0ff000000H
	DD	0ff000000H
	DD	0f0000000H
	DD	0235f5f5fH
	DD	0ffffffH
	DD	0f6f6f6H
	DD	0ffffffH
	DD	078a8a8aH
	DD	0cd000000H
	DD	0ff000000H
	DD	0ff000000H
	DD	0ff000000H
	DD	0ff000000H
	DD	0ff000000H
	DD	0ff000000H
	DD	0ff000000H
	DD	088090909H
	DD	0cfcfcfH
	DD	0fcfcfcH
	DD	0f6f6f6H
	DD	0f6f6f6H
	DD	0f7f7f7H
	DD	0f7f7f7H
	DD	0f7f7f7H
	DD	0f0f0f0H
	DD	0dcdcdcH
	DD	05989898H
	DD	054272727H
	DD	0d5000000H
	DD	0ff000000H
	DD	0ff000000H
	DD	0ff000000H
	DD	0ff000000H
	DD	0ff000000H
	DD	0ff000000H
	DD	0ff000000H
	DD	0ff000000H
	DD	0ff000000H
	DD	0ff000000H
	DD	0ff000000H
	DD	0ff000000H
	DD	0ff000000H
	DD	0ff000000H
	DD	0ff000000H
	DD	0ff000000H
	DD	0ff000000H
	DD	0ff000000H
	DD	0ff000000H
	DD	0ff000000H
	DD	0ff000000H
	DD	0ff000000H
	DD	0ff000000H
	DD	0ff000000H
	DD	0ff000000H
	DD	0ff000000H
	DD	0ff000000H
	DD	0ff000000H
	DD	0ff000000H
	DD	0ff000000H
	DD	0ff000000H
	DD	0ff000000H
	DD	0ff000000H
	DD	0ff000000H
	DD	0ff000000H
	DD	0ff000000H
	DD	0ff000000H
	DD	0ff000000H
	DD	0ff000000H
	DD	0ff000000H
	DD	0ff000000H
	DD	0ff000000H
	DD	0ff000000H
	DD	0ff000000H
	DD	0ff000000H
	DD	0ff000000H
	DD	0ff454545H
	DD	0ffffffffH
	DD	0ffffffffH
	DD	0ffffffffH
	DD	0ffffffffH
	DD	0ffffffffH
	DD	0ffffffffH
	DD	0ffffffffH
	DD	0ffffffffH
	DD	0ffffffffH
	DD	0ffffffffH
	DD	0ffffffffH
	DD	0ffffffffH
	DD	0ffffffffH
	DD	0ffffffffH
	DD	0ffffffffH
	DD	0ffffffffH
	DD	0ffffffffH
	DD	0ffffffffH
	DD	0ffffffffH
	DD	0ffffffffH
	DD	0ffffffffH
	DD	0ffffffffH
	DD	0ffffffffH
	DD	0ffffffffH
	DD	0ffffffffH
	DD	0ffffffffH
	DD	0ffffffffH
	DD	0ffffffffH
	DD	0ffffffffH
	DD	0ffffffffH
	DD	0ffffffffH
	DD	0ffffffffH
	DD	0ffffffffH
	DD	0ffffffffH
	DD	0ffffffffH
	DD	0ffffffffH
	DD	0ffffffffH
	DD	0ffffffffH
	DD	0ffffffffH
	DD	0ffffffffH
	DD	0ffffffffH
	DD	0ffffffffH
	DD	0ffffffffH
	DD	0ffffffffH
	DD	0ffffffffH
	DD	0ffffffffH
	DD	0ffffffffH
	DD	0ffffffffH
	DD	0ff414141H
	DD	0d8000000H
	DD	0e828282H
	DD	0ffffffH
	DD	0ffffffH
	DD	0ffffffH
	DD	0ffffffH
	DD	0ffffffH
	DD	0ffffffH
	DD	0ffffffH
	DD	0ffffffH
	DD	0ffffffH
	DD	0ffffffH
	DD	0b868686H
	DD	0b1000000H
	DD	0ff000000H
	DD	0ff000000H
	DD	0ff000000H
	DD	0ff000000H
	DD	0ff000000H
	DD	0ff000000H
	DD	0ff000000H
	DD	0ff000000H
	DD	0ff000000H
	DD	0ff000000H
	DD	0ff000000H
	DD	0ff000000H
	DD	0ff000000H
	DD	0ff000000H
	DD	0ff000000H
	DD	0ff000000H
	DD	0ff000000H
	DD	0ff000000H
	DD	0ff000000H
	DD	0ff000000H
	DD	0ff000000H
	DD	0ff000000H
	DD	0ff000000H
	DD	0ff000000H
	DD	0ff000000H
	DD	0ff000000H
	DD	0ff000000H
	DD	0ff000000H
	DD	0ff000000H
	DD	0ff000000H
	DD	0ff000000H
	DD	0ff000000H
	DD	0ff000000H
	DD	0ff000000H
	DD	0ff000000H
	DD	0ff000000H
	DD	0ff000000H
	DD	0ff000000H
	DD	0ff000000H
	DD	0ff000000H
	DD	0ff000000H
	DD	0ed000000H
	DD	022646464H
	DD	0ffffffH
	DD	0ffffffH
	DD	0ffffffH
	DD	04909090H
	DD	0b9000000H
	DD	0ff000000H
	DD	0ff000000H
	DD	0ff000000H
	DD	0ff000000H
	DD	0ff000000H
	DD	0ff000000H
	DD	0ff000000H
	DD	0810a0a0aH
	DD	0d8d8d8H
	DD	0ffffffH
	DD	0ffffffH
	DD	0ffffffH
	DD	0ffffffH
	DD	0ffffffH
	DD	0ffffffH
	DD	0ffffffH
	DD	0ffffffH
	DD	0ffffffH
	DD	0edededH
	DD	039383838H
	DD	0f2000000H
	DD	0ff000000H
	DD	0ff000000H
	DD	0ff000000H
	DD	0ff000000H
	DD	0ff000000H
	DD	0ff000000H
	DD	0ff000000H
	DD	0ff000000H
	DD	0ff000000H
	DD	0ff000000H
	DD	0ff000000H
	DD	0ff000000H
	DD	0ff000000H
	DD	0ff000000H
	DD	0ff000000H
	DD	0ff000000H
	DD	0ff000000H
	DD	0ff000000H
	DD	0ff000000H
	DD	0ff000000H
	DD	0ff000000H
	DD	0ff000000H
	DD	0ff000000H
	DD	0ff000000H
	DD	0ff000000H
	DD	0ff000000H
	DD	0ff000000H
	DD	0ff000000H
	DD	0ff000000H
	DD	0ff000000H
	DD	0ff000000H
	DD	0ff000000H
	DD	0ff000000H
	DD	0ff000000H
	DD	0ff000000H
	DD	0ff000000H
	DD	0ff000000H
	DD	0ff000000H
	DD	0ff000000H
	DD	0ff000000H
	DD	0ff000000H
	DD	0ff000000H
	DD	0ff000000H
	DD	0ff000000H
	DD	0ff000000H
	DD	0ff454545H
	DD	0ffffffffH
	DD	0ffffffffH
	DD	0ffffffffH
	DD	0ffffffffH
	DD	0ffffffffH
	DD	0ffffffffH
	DD	0ffffffffH
	DD	0ffffffffH
	DD	0ffffffffH
	DD	0ffffffffH
	DD	0ffffffffH
	DD	0ffffffffH
	DD	0ffffffffH
	DD	0ffffffffH
	DD	0ffffffffH
	DD	0ffffffffH
	DD	0ffffffffH
	DD	0ffffffffH
	DD	0ffffffffH
	DD	0ffffffffH
	DD	0ffffffffH
	DD	0ffffffffH
	DD	0ffffffffH
	DD	0ffffffffH
	DD	0ffffffffH
	DD	0ffffffffH
	DD	0ffffffffH
	DD	0ffffffffH
	DD	0ffffffffH
	DD	0ffffffffH
	DD	0ffffffffH
	DD	0ffffffffH
	DD	0ffffffffH
	DD	0ffffffffH
	DD	0ffffffffH
	DD	0ffffffffH
	DD	0ffffffffH
	DD	0ffffffffH
	DD	0ffffffffH
	DD	0ffffffffH
	DD	0ffffffffH
	DD	0ffffffffH
	DD	0ffffffffH
	DD	0ffffffffH
	DD	0ffffffffH
	DD	0ffffffffH
	DD	0ffffffffH
	DD	0ffffffffH
	DD	0ff424242H
	DD	0d7000000H
	DD	0e828282H
	DD	0ffffffH
	DD	0ffffffH
	DD	0ffffffH
	DD	01d6d6d6H
	DD	07696969H
	DD	027a7a7aH
	DD	0cfcfcfH
	DD	0ffffffH
	DD	0ffffffH
	DD	0ffffffH
	DD	0fdfdfdH
	DD	039414141H
	DD	0f9000000H
	DD	0ff000000H
	DD	0ff000000H
	DD	0ff000000H
	DD	0ff000000H
	DD	0ff000000H
	DD	0ff000000H
	DD	0ff000000H
	DD	0ff000000H
	DD	0ff000000H
	DD	0ff000000H
	DD	0ff000000H
	DD	0ff000000H
	DD	0ff000000H
	DD	0ff000000H
	DD	0ff000000H
	DD	0ff000000H
	DD	0ff000000H
	DD	0ff000000H
	DD	0ff000000H
	DD	0ff000000H
	DD	0ff000000H
	DD	0ff000000H
	DD	0ff000000H
	DD	0ff000000H
	DD	0ff000000H
	DD	0ff000000H
	DD	0ff000000H
	DD	0ff000000H
	DD	0ff000000H
	DD	0ff000000H
	DD	0ff000000H
	DD	0ff000000H
	DD	0ff000000H
	DD	0ff000000H
	DD	0ff000000H
	DD	0ff000000H
	DD	0ff000000H
	DD	0ff000000H
	DD	0ff000000H
	DD	0ff000000H
	DD	0ed000000H
	DD	021646464H
	DD	0ffffffH
	DD	0ffffffH
	DD	0ffffffH
	DD	02909090H
	DD	0a6000000H
	DD	0ff000000H
	DD	0ff000000H
	DD	0ff000000H
	DD	0ff000000H
	DD	0ff000000H
	DD	0ff000000H
	DD	0ff000000H
	DD	0820a0a0aH
	DD	0d7d7d7H
	DD	0ffffffH
	DD	0ffffffH
	DD	0ffffffH
	DD	02a4a4a4H
	DD	06676767H
	DD	0939393H
	DD	0f1f1f1H
	DD	0ffffffH
	DD	0ffffffH
	DD	0ffffffH
	DD	0c7c7c7H
	DD	08a060606H
	DD	0ff000000H
	DD	0ff000000H
	DD	0ff000000H
	DD	0ff000000H
	DD	0ff000000H
	DD	0ff000000H
	DD	0ff000000H
	DD	0ff000000H
	DD	0ff000000H
	DD	0ff000000H
	DD	0ff000000H
	DD	0ff000000H
	DD	0ff000000H
	DD	0ff000000H
	DD	0ff000000H
	DD	0ff000000H
	DD	0ff000000H
	DD	0ff000000H
	DD	0ff000000H
	DD	0ff000000H
	DD	0ff000000H
	DD	0ff000000H
	DD	0ff000000H
	DD	0ff000000H
	DD	0ff000000H
	DD	0ff000000H
	DD	0ff000000H
	DD	0ff000000H
	DD	0ff000000H
	DD	0ff000000H
	DD	0ff000000H
	DD	0ff000000H
	DD	0ff000000H
	DD	0ff000000H
	DD	0ff000000H
	DD	0ff000000H
	DD	0ff000000H
	DD	0ff000000H
	DD	0ff000000H
	DD	0ff000000H
	DD	0ff000000H
	DD	0ff000000H
	DD	0ff000000H
	DD	0ff000000H
	DD	0ff000000H
	DD	0ff454545H
	DD	0ffffffffH
	DD	0ffffffffH
	DD	0ffffffffH
	DD	0ffffffffH
	DD	0ffffffffH
	DD	0ffffffffH
	DD	0ffffffffH
	DD	0ffffffffH
	DD	0ffffffffH
	DD	0ffffffffH
	DD	0ffffffffH
	DD	0ffffffffH
	DD	0ffffffffH
	DD	0ffffffffH
	DD	0ffffffffH
	DD	0ffffffffH
	DD	0ffffffffH
	DD	0ffffffffH
	DD	0ffffffffH
	DD	0ffffffffH
	DD	0ffffffffH
	DD	0ffffffffH
	DD	0ffffffffH
	DD	0ffffffffH
	DD	0ffffffffH
	DD	0ffffffffH
	DD	0ffffffffH
	DD	0ffffffffH
	DD	0ffffffffH
	DD	0ffffffffH
	DD	0ffffffffH
	DD	0ffffffffH
	DD	0ffffffffH
	DD	0ffffffffH
	DD	0ffffffffH
	DD	0ffffffffH
	DD	0ffffffffH
	DD	0ffffffffH
	DD	0ffffffffH
	DD	0ffffffffH
	DD	0ffffffffH
	DD	0ffffffffH
	DD	0ffffffffH
	DD	0ffffffffH
	DD	0ffffffffH
	DD	0ffffffffH
	DD	0ffffffffH
	DD	0ffffffffH
	DD	0ff424242H
	DD	0d7000000H
	DD	0e828282H
	DD	0ffffffH
	DD	0ffffffH
	DD	0ffffffH
	DD	0b7b7b7H
	DD	038000000H
	DD	05a000000H
	DD	029191919H
	DD	0d0d0d0H
	DD	0ffffffH
	DD	0ffffffH
	DD	0ffffffH
	DD	09c9c9cH
	DD	0c0000000H
	DD	0ff000000H
	DD	0ff000000H
	DD	0ff000000H
	DD	0ff000000H
	DD	0f5000000H
	DD	0c1010101H
	DD	08a101010H
	DD	0721e1e1eH
	DD	0711f1f1fH
	DD	08a0f0f0fH
	DD	0bf000000H
	DD	0f1000000H
	DD	0ff000000H
	DD	0ff000000H
	DD	0ff000000H
	DD	0ff000000H
	DD	0ff000000H
	DD	0ff000000H
	DD	0ff000000H
	DD	0ff000000H
	DD	0f2000000H
	DD	0d3000000H
	DD	0b8000000H
	DD	09b070707H
	DD	0950a0a0aH
	DD	0a4060606H
	DD	0d1000000H
	DD	0f9000000H
	DD	0ff000000H
	DD	0ff000000H
	DD	0ff000000H
	DD	0ff000000H
	DD	0ff000000H
	DD	0ff000000H
	DD	0ff000000H
	DD	0ee000000H
	DD	0ba000000H
	DD	096090909H
	DD	09d070707H
	DD	0d5000000H
	DD	0ed000000H
	DD	024646464H
	DD	0ffffffH
	DD	0ffffffH
	DD	0ffffffH
	DD	02909090H
	DD	09f000000H
	DD	0fe000000H
	DD	0ff000000H
	DD	0ff000000H
	DD	0ff000000H
	DD	0ff000000H
	DD	0ff000000H
	DD	0ff000000H
	DD	0820a0a0aH
	DD	0d7d7d7H
	DD	0ffffffH
	DD	0ffffffH
	DD	0ffffffH
	DD	0b5a5a5aH
	DD	052000000H
	DD	04c000000H
	DD	0c535353H
	DD	0ffffffH
	DD	0ffffffH
	DD	0ffffffH
	DD	0fcfcfcH
	DD	03a464646H
	DD	0f2000000H
	DD	0ff000000H
	DD	0ff000000H
	DD	0ff000000H
	DD	0ff000000H
	DD	0ef000000H
	DD	0d0000000H
	DD	0b4010101H
	DD	098090909H
	DD	0950a0a0aH
	DD	0aa030303H
	DD	0d4000000H
	DD	0fc000000H
	DD	0ff000000H
	DD	0ff000000H
	DD	0ff000000H
	DD	0ff000000H
	DD	0ff000000H
	DD	0ff000000H
	DD	0ff000000H
	DD	0fa000000H
	DD	0ce000000H
	DD	09d070707H
	DD	0761b1b1bH
	DD	0701f1f1fH
	DD	0781a1a1aH
	DD	0a7050505H
	DD	0df000000H
	DD	0ff000000H
	DD	0ff000000H
	DD	0ff000000H
	DD	0ff000000H
	DD	0ff000000H
	DD	0f5000000H
	DD	0bd000000H
	DD	089101010H
	DD	0701f1f1fH
	DD	0731d1d1dH
	DD	099080808H
	DD	0cd000000H
	DD	0fa000000H
	DD	0ff000000H
	DD	0ff000000H
	DD	0ff000000H
	DD	0ff000000H
	DD	0ff454545H
	DD	0ffffffffH
	DD	0ffffffffH
	DD	0ffffffffH
	DD	0ffffffffH
	DD	0ffffffffH
	DD	0ffffffffH
	DD	0ffffffffH
	DD	0ffffffffH
	DD	0ffffffffH
	DD	0ffffffffH
	DD	0ffffffffH
	DD	0ffffffffH
	DD	0ffffffffH
	DD	0ffffffffH
	DD	0ffffffffH
	DD	0ffffffffH
	DD	0ffffffffH
	DD	0ffffffffH
	DD	0ffffffffH
	DD	0ffffffffH
	DD	0ffffffffH
	DD	0ffffffffH
	DD	0ffffffffH
	DD	0ffffffffH
	DD	0ffffffffH
	DD	0ffffffffH
	DD	0ffffffffH
	DD	0ffffffffH
	DD	0ffffffffH
	DD	0ffffffffH
	DD	0ffffffffH
	DD	0ffffffffH
	DD	0ffffffffH
	DD	0ffffffffH
	DD	0ffffffffH
	DD	0ffffffffH
	DD	0ffffffffH
	DD	0ffffffffH
	DD	0ffffffffH
	DD	0ffffffffH
	DD	0ffffffffH
	DD	0ffffffffH
	DD	0ffffffffH
	DD	0ffffffffH
	DD	0ffffffffH
	DD	0ffffffffH
	DD	0ffffffffH
	DD	0ffffffffH
	DD	0ff424242H
	DD	0d7000000H
	DD	0e828282H
	DD	0ffffffH
	DD	0ffffffH
	DD	0ffffffH
	DD	0b9b9b9H
	DD	063000000H
	DD	0c0000000H
	DD	091000000H
	DD	047e7e7eH
	DD	0ffffffH
	DD	0ffffffH
	DD	0ffffffH
	DD	0c1c1c1H
	DD	090020202H
	DD	0ff000000H
	DD	0ff000000H
	DD	0fd000000H
	DD	0aa040404H
	DD	032535353H
	DD	01a6a6a6H
	DD	0d6d6d6H
	DD	0e4e4e4H
	DD	0e5e5e5H
	DD	0d5d5d5H
	DD	02a9a9a9H
	DD	02e575757H
	DD	097040404H
	DD	0fa000000H
	DD	0ff000000H
	DD	0ff000000H
	DD	0ff000000H
	DD	0ff000000H
	DD	0df000000H
	DD	072131313H
	DD	02d565656H
	DD	08909090H
	DD	0b1b1b1H
	DD	0c9c9c9H
	DD	0cececeH
	DD	0c3c3c3H
	DD	06959595H
	DD	03d3a3a3aH
	DD	0b8000000H
	DD	0ff000000H
	DD	0ff000000H
	DD	0ff000000H
	DD	0ff000000H
	DD	0ff000000H
	DD	0a7010101H
	DD	02f565656H
	DD	0afafafH
	DD	0cdcdcdH
	DD	0c9c9c9H
	DD	08949494H
	DD	0551d1d1dH
	DD	01e5b5b5bH
	DD	0ffffffH
	DD	0ffffffH
	DD	0ffffffH
	DD	02909090H
	DD	09f000000H
	DD	0fe000000H
	DD	0ff000000H
	DD	0ff000000H
	DD	0ff000000H
	DD	0ff000000H
	DD	0ff000000H
	DD	0ff000000H
	DD	0820a0a0aH
	DD	0d7d7d7H
	DD	0ffffffH
	DD	0ffffffH
	DD	0ffffffH
	DD	012606060H
	DD	097000000H
	DD	0bf000000H
	DD	05a0f0f0fH
	DD	0d0d0d0H
	DD	0ffffffH
	DD	0ffffffH
	DD	0ffffffH
	DD	011737373H
	DD	0d2000000H
	DD	0ff000000H
	DD	0ff000000H
	DD	0dd010101H
	DD	06b171717H
	DD	0285e5e5eH
	DD	09939393H
	DD	0b6b6b6H
	DD	0cbcbcbH
	DD	0cdcdcdH
	DD	0bdbdbdH
	DD	078f8f8fH
	DD	04a303030H
	DD	0d7000000H
	DD	0ff000000H
	DD	0ff000000H
	DD	0ff000000H
	DD	0ff000000H
	DD	0ff000000H
	DD	0bd000000H
	DD	049313131H
	DD	04979797H
	DD	0c8c8c8H
	DD	0e2e2e2H
	DD	0e5e5e5H
	DD	0e1e1e1H
	DD	0c1c1c1H
	DD	0f7f7f7fH
	DD	080131313H
	DD	0ff000000H
	DD	0ff000000H
	DD	0fe000000H
	DD	0af010101H
	DD	0364c4c4cH
	DD	0acacacH
	DD	0d7d7d7H
	DD	0e6e6e6H
	DD	0e4e4e4H
	DD	0cbcbcbH
	DD	04999999H
	DD	043323232H
	DD	0cd000000H
	DD	0ff000000H
	DD	0ff000000H
	DD	0ff000000H
	DD	0ff454545H
	DD	0ffffffffH
	DD	0ffffffffH
	DD	0ffffffffH
	DD	0ffffffffH
	DD	0ffffffffH
	DD	0ffffffffH
	DD	0ffffffffH
	DD	0ffffffffH
	DD	0ffffffffH
	DD	0ffffffffH
	DD	0ffffffffH
	DD	0ffffffffH
	DD	0ffffffffH
	DD	0ffffffffH
	DD	0ffffffffH
	DD	0ffffffffH
	DD	0ffffffffH
	DD	0ffffffffH
	DD	0ffffffffH
	DD	0ffffffffH
	DD	0ffffffffH
	DD	0ffffffffH
	DD	0ffffffffH
	DD	0ffffffffH
	DD	0ffffffffH
	DD	0ffffffffH
	DD	0ffffffffH
	DD	0ffffffffH
	DD	0ffffffffH
	DD	0ffffffffH
	DD	0ffffffffH
	DD	0ffffffffH
	DD	0ffffffffH
	DD	0ffffffffH
	DD	0ffffffffH
	DD	0ffffffffH
	DD	0ffffffffH
	DD	0ffffffffH
	DD	0ffffffffH
	DD	0ffffffffH
	DD	0ffffffffH
	DD	0ffffffffH
	DD	0ffffffffH
	DD	0ffffffffH
	DD	0ffffffffH
	DD	0ffffffffH
	DD	0ffffffffH
	DD	0ffffffffH
	DD	0ff424242H
	DD	0d7000000H
	DD	0e828282H
	DD	0ffffffH
	DD	0ffffffH
	DD	0ffffffH
	DD	0b9b9b9H
	DD	07d000000H
	DD	0fc000000H
	DD	0da000000H
	DD	0146f6f6fH
	DD	0ffffffH
	DD	0ffffffH
	DD	0ffffffH
	DD	0cbcbcbH
	DD	0780a0a0aH
	DD	0ff000000H
	DD	0ff000000H
	DD	0650d0d0dH
	DD	0a6a6a6H
	DD	0ffffffH
	DD	0ffffffH
	DD	0ffffffH
	DD	0ffffffH
	DD	0ffffffH
	DD	0ffffffH
	DD	0ffffffH
	DD	0ffffffH
	DD	0b3b3b3H
	DD	068141414H
	DD	0fb000000H
	DD	0ff000000H
	DD	0ff000000H
	DD	0ff000000H
	DD	08b040404H
	DD	0cececeH
	DD	0ffffffH
	DD	0ffffffH
	DD	0ffffffH
	DD	0ffffffH
	DD	0ffffffH
	DD	0ffffffH
	DD	0ffffffH
	DD	0fefefeH
	DD	0d777777H
	DD	0ba000000H
	DD	0ff000000H
	DD	0ff000000H
	DD	0ff000000H
	DD	0a9000000H
	DD	08d8d8dH
	DD	0ffffffH
	DD	0ffffffH
	DD	0ffffffH
	DD	0ffffffH
	DD	0ffffffH
	DD	0dededeH
	DD	0979797H
	DD	0ffffffH
	DD	0ffffffH
	DD	0ffffffH
	DD	02909090H
	DD	09f000000H
	DD	0fe000000H
	DD	0ff000000H
	DD	0ff000000H
	DD	0ff000000H
	DD	0ff000000H
	DD	0ff000000H
	DD	0ff000000H
	DD	0820a0a0aH
	DD	0d7d7d7H
	DD	0ffffffH
	DD	0ffffffH
	DD	0ffffffH
	DD	015606060H
	DD	0c1000000H
	DD	0ff000000H
	DD	093030303H
	DD	0c0c0c0H
	DD	0ffffffH
	DD	0ffffffH
	DD	0ffffffH
	DD	087a7a7aH
	DD	0c1000000H
	DD	0ff000000H
	DD	0ff000000H
	DD	0721d1d1dH
	DD	0ddddddH
	DD	0ffffffH
	DD	0ffffffH
	DD	0ffffffH
	DD	0ffffffH
	DD	0ffffffH
	DD	0ffffffH
	DD	0ffffffH
	DD	0f8f8f8H
	DD	02a626262H
	DD	0d2000000H
	DD	0ff000000H
	DD	0ff000000H
	DD	0ff000000H
	DD	0ac030303H
	DD	0a848484H
	DD	0fafafaH
	DD	0ffffffH
	DD	0ffffffH
	DD	0ffffffH
	DD	0ffffffH
	DD	0ffffffH
	DD	0ffffffH
	DD	0ffffffH
	DD	018535353H
	DD	0f8000000H
	DD	0ff000000H
	DD	076060606H
	DD	0999999H
	DD	0ffffffH
	DD	0ffffffH
	DD	0ffffffH
	DD	0ffffffH
	DD	0ffffffH
	DD	0ffffffH
	DD	0ffffffH
	DD	0f2f2f2H
	DD	01a595959H
	DD	0c5000000H
	DD	0ff000000H
	DD	0ff000000H
	DD	0ff454545H
	DD	0ffffffffH
	DD	0ffffffffH
	DD	0ffffffffH
	DD	0ffffffffH
	DD	0ffffffffH
	DD	0ffffffffH
	DD	0ffffffffH
	DD	0ffffffffH
	DD	0ffffffffH
	DD	0ffffffffH
	DD	0ffffffffH
	DD	0ffffffffH
	DD	0ffffffffH
	DD	0ffffffffH
	DD	0ffffffffH
	DD	0ffffffffH
	DD	0ffffffffH
	DD	0ffffffffH
	DD	0ffffffffH
	DD	0ffffffffH
	DD	0ffffffffH
	DD	0ffffffffH
	DD	0ffffffffH
	DD	0ffffffffH
	DD	0ffffffffH
	DD	0ffffffffH
	DD	0ffffffffH
	DD	0ffffffffH
	DD	0ffffffffH
	DD	0ffffffffH
	DD	0ffffffffH
	DD	0ffffffffH
	DD	0ffffffffH
	DD	0ffffffffH
	DD	0ffffffffH
	DD	0ffffffffH
	DD	0ffffffffH
	DD	0ffffffffH
	DD	0ffffffffH
	DD	0ffffffffH
	DD	0ffffffffH
	DD	0ffffffffH
	DD	0ffffffffH
	DD	0ffffffffH
	DD	0ffffffffH
	DD	0ffffffffH
	DD	0ffffffffH
	DD	0ffffffffH
	DD	0ff424242H
	DD	0d7000000H
	DD	0e828282H
	DD	0ffffffH
	DD	0ffffffH
	DD	0ffffffH
	DD	0b9b9b9H
	DD	083000000H
	DD	0ff000000H
	DD	0d1000000H
	DD	028a8a8aH
	DD	0ffffffH
	DD	0ffffffH
	DD	0ffffffH
	DD	0b7b7b7H
	DD	082000000H
	DD	0ff000000H
	DD	0a9000000H
	DD	02a5a5a5H
	DD	0ffffffH
	DD	0ffffffH
	DD	0ffffffH
	DD	0ddddddH
	DD	05868686H
	DD	057e7e7eH
	DD	0d1d1d1H
	DD	0ffffffH
	DD	0ffffffH
	DD	0ffffffH
	DD	0b0b0b0H
	DD	08c060606H
	DD	0ff000000H
	DD	0ff000000H
	DD	0ff000000H
	DD	08f040404H
	DD	0d0d0d0H
	DD	0fafafaH
	DD	0d4d4d4H
	DD	0bcbcbcH
	DD	0bbbbbbH
	DD	0d4d4d4H
	DD	0fefefeH
	DD	0ffffffH
	DD	0ffffffH
	DD	0fcfcfcH
	DD	03c3b3b3bH
	DD	0fe000000H
	DD	0ff000000H
	DD	0e9000000H
	DD	0245e5e5eH
	DD	0ffffffH
	DD	0ffffffH
	DD	0ffffffH
	DD	0ffffffH
	DD	0f5f5f5H
	DD	0f0f0f0H
	DD	0ffffffH
	DD	0fafafaH
	DD	0ffffffH
	DD	0ffffffH
	DD	0ffffffH
	DD	02909090H
	DD	09f000000H
	DD	0fe000000H
	DD	0ff000000H
	DD	0ff000000H
	DD	0ff000000H
	DD	0ff000000H
	DD	0ff000000H
	DD	0ff000000H
	DD	0820a0a0aH
	DD	0d7d7d7H
	DD	0ffffffH
	DD	0ffffffH
	DD	0ffffffH
	DD	016606060H
	DD	0cb000000H
	DD	0ff000000H
	DD	07d171717H
	DD	0dbdbdbH
	DD	0ffffffH
	DD	0ffffffH
	DD	0ffffffH
	DD	011686868H
	DD	0be000000H
	DD	0ff000000H
	DD	0ff000000H
	DD	07c181818H
	DD	0ddddddH
	DD	0f8f8f8H
	DD	0d1d1d1H
	DD	0bababaH
	DD	0bababaH
	DD	0d9d9d9H
	DD	0ffffffH
	DD	0ffffffH
	DD	0ffffffH
	DD	0f0f0f0H
	DD	0512a2a2aH
	DD	0ff000000H
	DD	0ff000000H
	DD	0bf000000H
	DD	0b878787H
	DD	0ffffffH
	DD	0ffffffH
	DD	0ffffffH
	DD	0ffffffH
	DD	0d6d6d6H
	DD	0a1a1a1H
	DD	09d9d9dH
	DD	0c2c2c2H
	DD	0f9f9f9H
	DD	02c454545H
	DD	0f3000000H
	DD	0bf000000H
	DD	08919191H
	DD	0ffffffH
	DD	0ffffffH
	DD	0fefefeH
	DD	03acacacH
	DD	0d545454H
	DD	076b6b6bH
	DD	0dcdcdcH
	DD	0ffffffH
	DD	0ffffffH
	DD	0f5f5f5H
	DD	0313c3c3cH
	DD	0f4000000H
	DD	0ff000000H
	DD	0ff454545H
	DD	0ffffffffH
	DD	0ffffffffH
	DD	0ffffffffH
	DD	0ffffffffH
	DD	0ffffffffH
	DD	0ffffffffH
	DD	0ffffffffH
	DD	0ffffffffH
	DD	0ffffffffH
	DD	0ffffffffH
	DD	0ffffffffH
	DD	0ffffffffH
	DD	0ffffffffH
	DD	0ffffffffH
	DD	0ffffffffH
	DD	0ffffffffH
	DD	0ffffffffH
	DD	0ffffffffH
	DD	0ffffffffH
	DD	0ffffffffH
	DD	0ffffffffH
	DD	0ffffffffH
	DD	0ffffffffH
	DD	0ffffffffH
	DD	0ffffffffH
	DD	0ffffffffH
	DD	0ffffffffH
	DD	0ffffffffH
	DD	0ffffffffH
	DD	0ffffffffH
	DD	0ffffffffH
	DD	0ffffffffH
	DD	0ffffffffH
	DD	0ffffffffH
	DD	0ffffffffH
	DD	0ffffffffH
	DD	0ffffffffH
	DD	0ffffffffH
	DD	0ffffffffH
	DD	0ffffffffH
	DD	0ffffffffH
	DD	0ffffffffH
	DD	0ffffffffH
	DD	0ffffffffH
	DD	0ffffffffH
	DD	0ffffffffH
	DD	0ffffffffH
	DD	0ffffffffH
	DD	0ff424242H
	DD	0d7000000H
	DD	0e828282H
	DD	0ffffffH
	DD	0ffffffH
	DD	0ffffffH
	DD	0b7b7b7H
	DD	075000000H
	DD	0d7000000H
	DD	052242424H
	DD	0e3e3e3H
	DD	0ffffffH
	DD	0ffffffH
	DD	0ffffffH
	DD	01898989H
	DD	09a000000H
	DD	0ed000000H
	DD	027545454H
	DD	0ffffffH
	DD	0ffffffH
	DD	0ffffffH
	DD	0e3e3e3H
	DD	013232323H
	DD	04a000000H
	DD	057000000H
	DD	02d141414H
	DD	0c6c6c6H
	DD	0ffffffH
	DD	0ffffffH
	DD	0ffffffH
	DD	0255c5c5cH
	DD	0ed000000H
	DD	0ff000000H
	DD	0ff000000H
	DD	0d5010101H
	DD	0203a3a3aH
	DD	02c323232H
	DD	038080808H
	DD	040000000H
	DD	045000000H
	DD	036040404H
	DD	08797979H
	DD	0ffffffH
	DD	0ffffffH
	DD	0ffffffH
	DD	059f9f9fH
	DD	0b9000000H
	DD	0ff000000H
	DD	099090909H
	DD	0c6c6c6H
	DD	0ffffffH
	DD	0ffffffH
	DD	0ffffffH
	DD	0b8b8b8H
	DD	012313131H
	DD	01a242424H
	DD	027a7a7aH
	DD	0fbfbfbH
	DD	0ffffffH
	DD	0ffffffH
	DD	0ffffffH
	DD	02909090H
	DD	09f000000H
	DD	0fe000000H
	DD	0ff000000H
	DD	0ff000000H
	DD	0ff000000H
	DD	0ff000000H
	DD	0ff000000H
	DD	0ff000000H
	DD	0820a0a0aH
	DD	0d7d7d7H
	DD	0ffffffH
	DD	0ffffffH
	DD	0ffffffH
	DD	013595959H
	DD	0b4000000H
	DD	0be000000H
	DD	01e696969H
	DD	0ffffffH
	DD	0ffffffH
	DD	0ffffffH
	DD	0f7f7f7H
	DD	02b323232H
	DD	0cb000000H
	DD	0ff000000H
	DD	0ff000000H
	DD	0b4050505H
	DD	0e3e3e3eH
	DD	0312e2e2eH
	DD	0390a0a0aH
	DD	041000000H
	DD	047000000H
	DD	0320a0a0aH
	DD	06969696H
	DD	0ffffffH
	DD	0ffffffH
	DD	0ffffffH
	DD	05838383H
	DD	0d5000000H
	DD	0ff000000H
	DD	0443c3c3cH
	DD	0f7f7f7H
	DD	0ffffffH
	DD	0ffffffH
	DD	0ffffffH
	DD	01969696H
	DD	023090909H
	DD	041000000H
	DD	049000000H
	DD	03b020202H
	DD	010353535H
	DD	04d181818H
	DD	0e3000000H
	DD	03f393939H
	DD	0ffffffH
	DD	0ffffffH
	DD	0ffffffH
	DD	0aeaeaeH
	DD	02f010101H
	DD	062000000H
	DD	05f000000H
	DD	017353535H
	DD	0f3f3f3H
	DD	0ffffffH
	DD	0ffffffH
	DD	0b8b8b8H
	DD	0a9000000H
	DD	0ff000000H
	DD	0ff454545H
	DD	0ffffffffH
	DD	0ffffffffH
	DD	0ffffffffH
	DD	0ffffffffH
	DD	0ffffffffH
	DD	0ffffffffH
	DD	0ffffffffH
	DD	0ffffffffH
	DD	0ffffffffH
	DD	0ffffffffH
	DD	0ffffffffH
	DD	0ffffffffH
	DD	0ffffffffH
	DD	0ffffffffH
	DD	0ffffffffH
	DD	0ffffffffH
	DD	0ffffffffH
	DD	0ffffffffH
	DD	0ffffffffH
	DD	0ffffffffH
	DD	0ffffffffH
	DD	0ffffffffH
	DD	0ffffffffH
	DD	0ffffffffH
	DD	0ffffffffH
	DD	0ffffffffH
	DD	0ffffffffH
	DD	0ffffffffH
	DD	0ffffffffH
	DD	0ffffffffH
	DD	0ffffffffH
	DD	0ffffffffH
	DD	0ffffffffH
	DD	0ffffffffH
	DD	0ffffffffH
	DD	0ffffffffH
	DD	0ffffffffH
	DD	0ffffffffH
	DD	0ffffffffH
	DD	0ffffffffH
	DD	0ffffffffH
	DD	0ffffffffH
	DD	0ffffffffH
	DD	0ffffffffH
	DD	0ffffffffH
	DD	0ffffffffH
	DD	0ffffffffH
	DD	0ffffffffH
	DD	0ff424242H
	DD	0d7000000H
	DD	0e828282H
	DD	0ffffffH
	DD	0ffffffH
	DD	0ffffffH
	DD	0d9d9d9H
	DD	02707070H
	DD	02838383H
	DD	0e0e0e0H
	DD	0ffffffH
	DD	0ffffffH
	DD	0ffffffH
	DD	0eeeeeeH
	DD	0262a2a2aH
	DD	0c1000000H
	DD	0ac000000H
	DD	03acacacH
	DD	0ffffffH
	DD	0ffffffH
	DD	0ffffffH
	DD	04878787H
	DD	057000000H
	DD	09a000000H
	DD	0b6000000H
	DD	09c000000H
	DD	0125b5b5bH
	DD	0ffffffH
	DD	0ffffffH
	DD	0ffffffH
	DD	0b7b7b7H
	DD	0a4000000H
	DD	0ff000000H
	DD	0ff000000H
	DD	0ff000000H
	DD	0c1000000H
	DD	057000000H
	DD	032121212H
	DD	033262626H
	DD	03f111111H
	DD	060000000H
	DD	02f2f2f2fH
	DD	0f1f1f1H
	DD	0ffffffH
	DD	0ffffffH
	DD	0c9c9c9H
	DD	08d000000H
	DD	0ff000000H
	DD	042313131H
	DD	0ffffffH
	DD	0ffffffH
	DD	0ffffffH
	DD	0f2f2f2H
	DD	017262626H
	DD	063000000H
	DD	07e000000H
	DD	047000000H
	DD	0bdbdbdH
	DD	0ffffffH
	DD	0ffffffH
	DD	0ffffffH
	DD	02909090H
	DD	09f000000H
	DD	0fe000000H
	DD	0ff000000H
	DD	0ff000000H
	DD	0ff000000H
	DD	0ff000000H
	DD	0ff000000H
	DD	0ff000000H
	DD	0820a0a0aH
	DD	0d7d7d7H
	DD	0ffffffH
	DD	0ffffffH
	DD	0ffffffH
	DD	0aaaaaaH
	DD	036f6f6fH
	DD	01a0a0a0H
	DD	0f8f8f8H
	DD	0ffffffH
	DD	0ffffffH
	DD	0ffffffH
	DD	0abababH
	DD	059000000H
	DD	0da000000H
	DD	0ff000000H
	DD	0ff000000H
	DD	0fc000000H
	DD	0b2000000H
	DD	051000000H
	DD	032151515H
	DD	035262626H
	DD	0400f0f0fH
	DD	069000000H
	DD	0263e3e3eH
	DD	0fefefeH
	DD	0ffffffH
	DD	0ffffffH
	DD	0abababH
	DD	0ae000000H
	DD	0cb000000H
	DD	019c9c9cH
	DD	0ffffffH
	DD	0ffffffH
	DD	0ffffffH
	DD	0d4d4d4H
	DD	0290d0d0dH
	DD	075000000H
	DD	09a000000H
	DD	0ab000000H
	DD	0a5000000H
	DD	08f000000H
	DD	0af000000H
	DD	0ae000000H
	DD	0b989898H
	DD	0ffffffH
	DD	0ffffffH
	DD	0ffffffH
	DD	0104c4c4cH
	DD	081000000H
	DD	0bc000000H
	DD	0d6000000H
	DD	07d000000H
	DD	0bababaH
	DD	0ffffffH
	DD	0ffffffH
	DD	0eaeaeaH
	DD	05d252525H
	DD	0ff000000H
	DD	0ff454545H
	DD	0ffffffffH
	DD	0ffffffffH
	DD	0ffffffffH
	DD	0ffffffffH
	DD	0ffffffffH
	DD	0ffffffffH
	DD	0ffffffffH
	DD	0ffffffffH
	DD	0ffffffffH
	DD	0ffffffffH
	DD	0ffffffffH
	DD	0ffffffffH
	DD	0ffffffffH
	DD	0ffffffffH
	DD	0ffffffffH
	DD	0ffffffffH
	DD	0ffffffffH
	DD	0ffffffffH
	DD	0ffffffffH
	DD	0ffffffffH
	DD	0ffffffffH
	DD	0ffffffffH
	DD	0ffffffffH
	DD	0ffffffffH
	DD	0ffffffffH
	DD	0ffffffffH
	DD	0ffffffffH
	DD	0ffffffffH
	DD	0ffffffffH
	DD	0ffffffffH
	DD	0ffffffffH
	DD	0ffffffffH
	DD	0ffffffffH
	DD	0ffffffffH
	DD	0ffffffffH
	DD	0ffffffffH
	DD	0ffffffffH
	DD	0ffffffffH
	DD	0ffffffffH
	DD	0ffffffffH
	DD	0ffffffffH
	DD	0ffffffffH
	DD	0ffffffffH
	DD	0ffffffffH
	DD	0ffffffffH
	DD	0ffffffffH
	DD	0ffffffffH
	DD	0ffffffffH
	DD	0ff424242H
	DD	0d7000000H
	DD	0e828282H
	DD	0ffffffH
	DD	0ffffffH
	DD	0ffffffH
	DD	0ffffffH
	DD	0ffffffH
	DD	0ffffffH
	DD	0ffffffH
	DD	0ffffffH
	DD	0ffffffH
	DD	0f7f7f7H
	DD	025d5d5dH
	DD	062000000H
	DD	0e2000000H
	DD	076060606H
	DD	0e3e3e3H
	DD	0ffffffH
	DD	0ffffffH
	DD	0ffffffH
	DD	0123f3f3fH
	DD	09d000000H
	DD	0df000000H
	DD	0f6000000H
	DD	0ed000000H
	DD	04a2d2d2dH
	DD	0f0f0f0H
	DD	0ffffffH
	DD	0ffffffH
	DD	0e1e1e1H
	DD	06b131313H
	DD	0ff000000H
	DD	0ff000000H
	DD	0a2000000H
	DD	0254f4f4fH
	DD	0bfbfbfH
	DD	0e8e8e8H
	DD	0f2f2f2H
	DD	0edededH
	DD	06b1b1b1H
	DD	09666666H
	DD	0ecececH
	DD	0ffffffH
	DD	0ffffffH
	DD	0cececeH
	DD	080000000H
	DD	0f3000000H
	DD	025616161H
	DD	0ffffffH
	DD	0ffffffH
	DD	0ffffffH
	DD	0cececeH
	DD	041070707H
	DD	0b1000000H
	DD	0d8000000H
	DD	0a8000000H
	DD	0c848484H
	DD	0ffffffH
	DD	0ffffffH
	DD	0ffffffH
	DD	02909090H
	DD	09f000000H
	DD	0fe000000H
	DD	0ff000000H
	DD	0ff000000H
	DD	0ff000000H
	DD	0ff000000H
	DD	0ff000000H
	DD	0ff000000H
	DD	0820a0a0aH
	DD	0d7d7d7H
	DD	0ffffffH
	DD	0ffffffH
	DD	0ffffffH
	DD	0ffffffH
	DD	0ffffffH
	DD	0ffffffH
	DD	0ffffffH
	DD	0ffffffH
	DD	0ffffffH
	DD	0d0d0d0H
	DD	0201f1f1fH
	DD	094000000H
	DD	0e6000000H
	DD	0ff000000H
	DD	0fe000000H
	DD	08d060606H
	DD	01e616161H
	DD	0c5c5c5H
	DD	0eaeaeaH
	DD	0f2f2f2H
	DD	0edededH
	DD	0ba4a4a4H
	DD	086d6d6dH
	DD	0fafafaH
	DD	0ffffffH
	DD	0ffffffH
	DD	0b6b6b6H
	DD	09b000000H
	DD	0870a0a0aH
	DD	0d7d7d7H
	DD	0ffffffH
	DD	0ffffffH
	DD	0ffffffH
	DD	0949494H
	DD	064000000H
	DD	0c0000000H
	DD	0e7000000H
	DD	0f2000000H
	DD	0ef000000H
	DD	0e3000000H
	DD	0f3000000H
	DD	088000000H
	DD	0d2d2d2H
	DD	0ffffffH
	DD	0ffffffH
	DD	0ecececH
	DD	01e272727H
	DD	07f000000H
	DD	0ac000000H
	DD	0bb000000H
	DD	085000000H
	DD	06818181H
	DD	0ffffffH
	DD	0ffffffH
	DD	0ffffffH
	DD	02b424242H
	DD	0f0000000H
	DD	0ff454545H
	DD	0ffffffffH
	DD	0ffffffffH
	DD	0ffffffffH
	DD	0ffffffffH
	DD	0ffffffffH
	DD	0ffffffffH
	DD	0ffffffffH
	DD	0ffffffffH
	DD	0ffffffffH
	DD	0ffffffffH
	DD	0ffffffffH
	DD	0ffffffffH
	DD	0ffffffffH
	DD	0ffffffffH
	DD	0ffffffffH
	DD	0ffffffffH
	DD	0ffffffffH
	DD	0ffffffffH
	DD	0ffffffffH
	DD	0ffffffffH
	DD	0ffffffffH
	DD	0ffffffffH
	DD	0ffffffffH
	DD	0ffffffffH
	DD	0ffffffffH
	DD	0ffffffffH
	DD	0ffffffffH
	DD	0ffffffffH
	DD	0ffffffffH
	DD	0ffffffffH
	DD	0ffffffffH
	DD	0ffffffffH
	DD	0ffffffffH
	DD	0ffffffffH
	DD	0ffffffffH
	DD	0ffffffffH
	DD	0ffffffffH
	DD	0ffffffffH
	DD	0ffffffffH
	DD	0ffffffffH
	DD	0ffffffffH
	DD	0ffffffffH
	DD	0ffffffffH
	DD	0ffffffffH
	DD	0ffffffffH
	DD	0ffffffffH
	DD	0ffffffffH
	DD	0ffffffffH
	DD	0ff424242H
	DD	0d7000000H
	DD	0e828282H
	DD	0ffffffH
	DD	0ffffffH
	DD	0ffffffH
	DD	0fbfbfbH
	DD	0f2f2f2H
	DD	0fdfdfdH
	DD	0ffffffH
	DD	0ffffffH
	DD	0ffffffH
	DD	065e5e5eH
	DD	049000000H
	DD	0a6000000H
	DD	0f0000000H
	DD	05a282828H
	DD	0f2f2f2H
	DD	0ffffffH
	DD	0ffffffH
	DD	0fbfbfbH
	DD	0282f2f2fH
	DD	0cb000000H
	DD	0fb000000H
	DD	0ff000000H
	DD	0ff000000H
	DD	074161616H
	DD	0dededeH
	DD	0ffffffH
	DD	0ffffffH
	DD	0f3f3f3H
	DD	041353535H
	DD	0fa000000H
	DD	09e010101H
	DD	048d8d8dH
	DD	0ffffffH
	DD	0ffffffH
	DD	0ffffffH
	DD	0f8f8f8H
	DD	0eaeaeaH
	DD	0fafafaH
	DD	0f9f9f9H
	DD	0fafafaH
	DD	0ffffffH
	DD	0ffffffH
	DD	0cececeH
	DD	07c000000H
	DD	0d4000000H
	DD	015848484H
	DD	0ffffffH
	DD	0ffffffH
	DD	0ffffffH
	DD	0b4b4b4H
	DD	067010101H
	DD	0e8000000H
	DD	0ff000000H
	DD	0e5000000H
	DD	01e646464H
	DD	0ffffffH
	DD	0ffffffH
	DD	0ffffffH
	DD	02909090H
	DD	09f000000H
	DD	0fe000000H
	DD	0ff000000H
	DD	0ff000000H
	DD	0ff000000H
	DD	0ff000000H
	DD	0ff000000H
	DD	0ff000000H
	DD	0820a0a0aH
	DD	0d7d7d7H
	DD	0ffffffH
	DD	0ffffffH
	DD	0ffffffH
	DD	0f6f6f6H
	DD	0f4f4f4H
	DD	0ffffffH
	DD	0ffffffH
	DD	0ffffffH
	DD	0dfdfdfH
	DD	01b202020H
	DD	074000000H
	DD	0c2000000H
	DD	0f8000000H
	DD	0ff000000H
	DD	082040404H
	DD	0a0a0a0H
	DD	0ffffffH
	DD	0ffffffH
	DD	0ffffffH
	DD	0f5f5f5H
	DD	0eaeaeaH
	DD	0fdfdfdH
	DD	0f6f6f6H
	DD	0fdfdfdH
	DD	0ffffffH
	DD	0ffffffH
	DD	0b5b5b5H
	DD	096000000H
	DD	05e121212H
	DD	0f4f4f4H
	DD	0ffffffH
	DD	0ffffffH
	DD	0ffffffH
	DD	0e636363H
	DD	09c000000H
	DD	0f0000000H
	DD	0ff000000H
	DD	0ff000000H
	DD	0ff000000H
	DD	0ff000000H
	DD	0ff000000H
	DD	070191919H
	DD	0e6e6e6H
	DD	0ffffffH
	DD	0ffffffH
	DD	0f9f9f9H
	DD	0bbbbbbH
	DD	0acacacH
	DD	0afafafH
	DD	0afafafH
	DD	0acacacH
	DD	0d1d1d1H
	DD	0ffffffH
	DD	0ffffffH
	DD	0ffffffH
	DD	015505050H
	DD	0e1000000H
	DD	0ff454545H
	DD	0ffffffffH
	DD	0ffffffffH
	DD	0ffffffffH
	DD	0ffffffffH
	DD	0ffffffffH
	DD	0ffffffffH
	DD	0ffffffffH
	DD	0ffffffffH
	DD	0ffffffffH
	DD	0ffffffffH
	DD	0ffffffffH
	DD	0ffffffffH
	DD	0ffffffffH
	DD	0ffffffffH
	DD	0ffffffffH
	DD	0ffffffffH
	DD	0ffffffffH
	DD	0ffffffffH
	DD	0ffffffffH
	DD	0ffffffffH
	DD	0ffffffffH
	DD	0ffffffffH
	DD	0ffffffffH
	DD	0ffffffffH
	DD	0ffffffffH
	DD	0ffffffffH
	DD	0ffffffffH
	DD	0ffffffffH
	DD	0ffffffffH
	DD	0ffffffffH
	DD	0ffffffffH
	DD	0ffffffffH
	DD	0ffffffffH
	DD	0ffffffffH
	DD	0ffffffffH
	DD	0ffffffffH
	DD	0ffffffffH
	DD	0ffffffffH
	DD	0ffffffffH
	DD	0ffffffffH
	DD	0ffffffffH
	DD	0ffffffffH
	DD	0ffffffffH
	DD	0ffffffffH
	DD	0ffffffffH
	DD	0ffffffffH
	DD	0ffffffffH
	DD	0ffffffffH
	DD	0ff424242H
	DD	0d7000000H
	DD	0e828282H
	DD	0ffffffH
	DD	0ffffffH
	DD	0ffffffH
	DD	0c3c3c3H
	DD	0f222222H
	DD	03aeaeaeH
	DD	0ffffffH
	DD	0ffffffH
	DD	0ffffffH
	DD	0979797H
	DD	076000000H
	DD	0e1000000H
	DD	0fc000000H
	DD	050353535H
	DD	0f6f6f6H
	DD	0ffffffH
	DD	0ffffffH
	DD	0f7f7f7H
	DD	0322c2c2cH
	DD	0de000000H
	DD	0ff000000H
	DD	0ff000000H
	DD	0ff000000H
	DD	07f121212H
	DD	0dbdbdbH
	DD	0ffffffH
	DD	0ffffffH
	DD	0f7f7f7H
	DD	0383d3d3dH
	DD	0d6000000H
	DD	0295a5a5aH
	DD	0ffffffH
	DD	0ffffffH
	DD	0ffffffH
	DD	0bcbcbcH
	DD	0192a2a2aH
	DD	02d000000H
	DD	01d2d2d2dH
	DD	0c5c5c5H
	DD	0ffffffH
	DD	0ffffffH
	DD	0ffffffH
	DD	0cececeH
	DD	07b000000H
	DD	0ce000000H
	DD	0128a8a8aH
	DD	0ffffffH
	DD	0ffffffH
	DD	0ffffffH
	DD	0b6b6b6H
	DD	076020202H
	DD	0f7000000H
	DD	0ff000000H
	DD	0ec000000H
	DD	021626262H
	DD	0ffffffH
	DD	0ffffffH
	DD	0ffffffH
	DD	02909090H
	DD	09f000000H
	DD	0fe000000H
	DD	0ff000000H
	DD	0ff000000H
	DD	0ff000000H
	DD	0ff000000H
	DD	0ff000000H
	DD	0ff000000H
	DD	0820a0a0aH
	DD	0d7d7d7H
	DD	0ffffffH
	DD	0ffffffH
	DD	0ffffffH
	DD	07767676H
	DD	0b353535H
	DD	0f0f0f0H
	DD	0ffffffH
	DD	0ffffffH
	DD	0fefefeH
	DD	01c3e3e3eH
	DD	0ae000000H
	DD	0ec000000H
	DD	0ff000000H
	DD	0e2000000H
	DD	017727272H
	DD	0ffffffH
	DD	0ffffffH
	DD	0ffffffH
	DD	03abababH
	DD	01e212121H
	DD	02e000000H
	DD	016363636H
	DD	0d9d9d9H
	DD	0ffffffH
	DD	0ffffffH
	DD	0ffffffH
	DD	0b5b5b5H
	DD	093000000H
	DD	056131313H
	DD	0f8f8f8H
	DD	0ffffffH
	DD	0ffffffH
	DD	0ffffffH
	DD	016565656H
	DD	0bb000000H
	DD	0fd000000H
	DD	0ff000000H
	DD	0ff000000H
	DD	0ff000000H
	DD	0ff000000H
	DD	0ff000000H
	DD	066242424H
	DD	0ebebebH
	DD	0ffffffH
	DD	0ffffffH
	DD	0ffffffH
	DD	0ffffffH
	DD	0ffffffH
	DD	0ffffffH
	DD	0ffffffH
	DD	0ffffffH
	DD	0ffffffH
	DD	0ffffffH
	DD	0ffffffH
	DD	0ffffffH
	DD	013505050H
	DD	0d7000000H
	DD	0ff454545H
	DD	0ffffffffH
	DD	0ffffffffH
	DD	0ffffffffH
	DD	0ffffffffH
	DD	0ffffffffH
	DD	0ffffffffH
	DD	0ffffffffH
	DD	0ffffffffH
	DD	0ffffffffH
	DD	0ffffffffH
	DD	0ffffffffH
	DD	0ffffffffH
	DD	0ffffffffH
	DD	0ffffffffH
	DD	0ffffffffH
	DD	0ffffffffH
	DD	0ffffffffH
	DD	0ffffffffH
	DD	0ffffffffH
	DD	0ffffffffH
	DD	0ffffffffH
	DD	0ffffffffH
	DD	0ffffffffH
	DD	0ffffffffH
	DD	0ffffffffH
	DD	0ffffffffH
	DD	0ffffffffH
	DD	0ffffffffH
	DD	0ffffffffH
	DD	0ffffffffH
	DD	0ffffffffH
	DD	0ffffffffH
	DD	0ffffffffH
	DD	0ffffffffH
	DD	0ffffffffH
	DD	0ffffffffH
	DD	0ffffffffH
	DD	0ffffffffH
	DD	0ffffffffH
	DD	0ffffffffH
	DD	0ffffffffH
	DD	0ffffffffH
	DD	0ffffffffH
	DD	0ffffffffH
	DD	0ffffffffH
	DD	0ffffffffH
	DD	0ffffffffH
	DD	0ffffffffH
	DD	0ff424242H
	DD	0d7000000H
	DD	0e828282H
	DD	0ffffffH
	DD	0ffffffH
	DD	0ffffffH
	DD	0b8b8b8H
	DD	044000000H
	DD	01b4a4a4aH
	DD	0ffffffH
	DD	0ffffffH
	DD	0ffffffH
	DD	0edededH
	DD	04a282828H
	DD	0fa000000H
	DD	0ff000000H
	DD	0572a2a2aH
	DD	0f3f3f3H
	DD	0ffffffH
	DD	0ffffffH
	DD	0fafafaH
	DD	0322e2e2eH
	DD	0e5000000H
	DD	0ff000000H
	DD	0ff000000H
	DD	0ff000000H
	DD	07b161616H
	DD	0dededeH
	DD	0ffffffH
	DD	0ffffffH
	DD	0f4f4f4H
	DD	043353535H
	DD	08f000000H
	DD	0bbbbbbH
	DD	0ffffffH
	DD	0ffffffH
	DD	0f8f8f8H
	DD	0153e3e3eH
	DD	064000000H
	DD	089000000H
	DD	083000000H
	DD	0184b4b4bH
	DD	0ffffffH
	DD	0ffffffH
	DD	0ffffffH
	DD	0cececeH
	DD	07a000000H
	DD	0d2000000H
	DD	014858585H
	DD	0ffffffH
	DD	0ffffffH
	DD	0ffffffH
	DD	0b4b4b4H
	DD	07d010101H
	DD	0fa000000H
	DD	0ff000000H
	DD	0ec000000H
	DD	021646464H
	DD	0ffffffH
	DD	0ffffffH
	DD	0ffffffH
	DD	02909090H
	DD	09f000000H
	DD	0fe000000H
	DD	0ff000000H
	DD	0ff000000H
	DD	0ff000000H
	DD	0ff000000H
	DD	0ff000000H
	DD	0ff000000H
	DD	0820a0a0aH
	DD	0d7d7d7H
	DD	0ffffffH
	DD	0ffffffH
	DD	0ffffffH
	DD	0135c5c5cH
	DD	049000000H
	DD	03a1a1a1H
	DD	0ffffffH
	DD	0ffffffH
	DD	0ffffffH
	DD	0afafafH
	DD	0a0000000H
	DD	0ff000000H
	DD	0ff000000H
	DD	08e090909H
	DD	0cdcdcdH
	DD	0ffffffH
	DD	0ffffffH
	DD	0f2f2f2H
	DD	01c232323H
	DD	06d000000H
	DD	08d000000H
	DD	077000000H
	DD	0106e6e6eH
	DD	0ffffffH
	DD	0ffffffH
	DD	0ffffffH
	DD	0b5b5b5H
	DD	092000000H
	DD	05b121212H
	DD	0f4f4f4H
	DD	0ffffffH
	DD	0ffffffH
	DD	0ffffffH
	DD	0185c5c5cH
	DD	0c5000000H
	DD	0ff000000H
	DD	0ff000000H
	DD	0ff000000H
	DD	0ff000000H
	DD	0ff000000H
	DD	0ff000000H
	DD	06a1e1e1eH
	DD	0e8e8e8H
	DD	0ffffffH
	DD	0ffffffH
	DD	0e8e8e8H
	DD	06808080H
	DD	08787878H
	DD	087a7a7aH
	DD	087a7a7aH
	DD	087a7a7aH
	DD	077a7a7aH
	DD	057a7a7aH
	DD	047a7a7aH
	DD	0828282H
	DD	037262626H
	DD	0d6000000H
	DD	0ff454545H
	DD	0ffffffffH
	DD	0ffffffffH
	DD	0ffffffffH
	DD	0ffffffffH
	DD	0ffffffffH
	DD	0ffffffffH
	DD	0ffffffffH
	DD	0ffffffffH
	DD	0ffffffffH
	DD	0ffffffffH
	DD	0ffffffffH
	DD	0ffffffffH
	DD	0ffffffffH
	DD	0ffffffffH
	DD	0ffffffffH
	DD	0ffffffffH
	DD	0ffffffffH
	DD	0ffffffffH
	DD	0ffffffffH
	DD	0ffffffffH
	DD	0ffffffffH
	DD	0ffffffffH
	DD	0ffffffffH
	DD	0ffffffffH
	DD	0ffffffffH
	DD	0ffffffffH
	DD	0ffffffffH
	DD	0ffffffffH
	DD	0ffffffffH
	DD	0ffffffffH
	DD	0ffffffffH
	DD	0ffffffffH
	DD	0ffffffffH
	DD	0ffffffffH
	DD	0ffffffffH
	DD	0ffffffffH
	DD	0ffffffffH
	DD	0ffffffffH
	DD	0ffffffffH
	DD	0ffffffffH
	DD	0ffffffffH
	DD	0ffffffffH
	DD	0ffffffffH
	DD	0ffffffffH
	DD	0ffffffffH
	DD	0ffffffffH
	DD	0ffffffffH
	DD	0ffffffffH
	DD	0ff424242H
	DD	0d7000000H
	DD	0e828282H
	DD	0ffffffH
	DD	0ffffffH
	DD	0ffffffH
	DD	0b9b9b9H
	DD	074000000H
	DD	06c0a0a0aH
	DD	0d3d3d3H
	DD	0ffffffH
	DD	0ffffffH
	DD	0ffffffH
	DD	07838383H
	DD	0c9000000H
	DD	0ff000000H
	DD	073070707H
	DD	0e4e4e4H
	DD	0ffffffH
	DD	0ffffffH
	DD	0ffffffH
	DD	0223d3d3dH
	DD	0e5000000H
	DD	0ff000000H
	DD	0ff000000H
	DD	0ff000000H
	DD	05e2c2c2cH
	DD	0eeeeeeH
	DD	0ffffffH
	DD	0ffffffH
	DD	0e4e4e4H
	DD	053151515H
	DD	06f0c0c0cH
	DD	0dbdbdbH
	DD	0ffffffH
	DD	0ffffffH
	DD	0e4e4e4H
	DD	035191919H
	DD	0ac000000H
	DD	0da000000H
	DD	0dd000000H
	DD	0452f2f2fH
	DD	0f0f0f0H
	DD	0ffffffH
	DD	0ffffffH
	DD	0cececeH
	DD	077000000H
	DD	0e7000000H
	DD	022666666H
	DD	0ffffffH
	DD	0ffffffH
	DD	0ffffffH
	DD	0ccccccH
	DD	06e070707H
	DD	0fe000000H
	DD	0ff000000H
	DD	0d8000000H
	DD	014828282H
	DD	0ffffffH
	DD	0ffffffH
	DD	0ffffffH
	DD	02909090H
	DD	09f000000H
	DD	0fe000000H
	DD	0ff000000H
	DD	0ff000000H
	DD	0ff000000H
	DD	0ff000000H
	DD	0ff000000H
	DD	0ff000000H
	DD	0820a0a0aH
	DD	0d7d7d7H
	DD	0ffffffH
	DD	0ffffffH
	DD	0ffffffH
	DD	016606060H
	DD	09b000000H
	DD	0294b4b4bH
	DD	0ffffffH
	DD	0ffffffH
	DD	0ffffffH
	DD	0f5f5f5H
	DD	049353535H
	DD	0fc000000H
	DD	0ff000000H
	DD	05d131313H
	DD	0f5f5f5H
	DD	0ffffffH
	DD	0ffffffH
	DD	0d3d3d3H
	DD	040111111H
	DD	0b7000000H
	DD	0de000000H
	DD	0d8000000H
	DD	031404040H
	DD	0fefefeH
	DD	0ffffffH
	DD	0ffffffH
	DD	0b5b5b5H
	DD	090000000H
	DD	0770b0b0bH
	DD	0ddddddH
	DD	0ffffffH
	DD	0ffffffH
	DD	0ffffffH
	DD	0a838383H
	DD	0ba000000H
	DD	0ff000000H
	DD	0ff000000H
	DD	0ff000000H
	DD	0ff000000H
	DD	0ff000000H
	DD	0ff000000H
	DD	084000000H
	DD	0dadadaH
	DD	0ffffffH
	DD	0ffffffH
	DD	0e0e0e0H
	DD	0271a1a1aH
	DD	05f000000H
	DD	05d000000H
	DD	05d000000H
	DD	05d000000H
	DD	05c000000H
	DD	05b000000H
