; Listing generated by Microsoft (R) Optimizing Compiler Version 16.00.40219.01 

	TITLE	C:\DUII\DUII\Graphics\Save.c
	.686P
	.XMM
	include listing.inc
	.model	flat

INCLUDELIB LIBCMT
INCLUDELIB OLDNAMES

PUBLIC	_bmSave
EXTRN	_GUI_BitmapMethods555:BYTE
CONST	SEGMENT
_acSave	DW	00H
	DW	0862H
	DW	03a6eH
	DW	04b72H
	DW	04771H
	DW	04771H
	DW	04771H
	DW	04771H
	DW	04771H
	DW	04771H
	DW	04771H
	DW	04771H
	DW	04771H
	DW	04771H
	DW	04771H
	DW	04771H
	DW	04771H
	DW	04771H
	DW	04771H
	DW	04771H
	DW	04771H
	DW	04771H
	DW	04771H
	DW	04771H
	DW	04771H
	DW	04771H
	DW	04771H
	DW	04771H
	DW	04771H
	DW	04771H
	DW	04771H
	DW	04771H
	DW	04771H
	DW	04771H
	DW	04771H
	DW	04771H
	DW	04771H
	DW	04771H
	DW	04771H
	DW	04771H
	DW	04771H
	DW	04771H
	DW	04771H
	DW	04771H
	DW	04771H
	DW	04771H
	DW	04771H
	DW	04771H
	DW	04771H
	DW	04771H
	DW	04771H
	DW	04771H
	DW	04771H
	DW	04771H
	DW	04771H
	DW	04771H
	DW	04771H
	DW	04771H
	DW	04771H
	DW	04771H
	DW	04771H
	DW	04771H
	DW	04771H
	DW	04771H
	DW	04771H
	DW	04771H
	DW	04771H
	DW	04771H
	DW	04771H
	DW	04771H
	DW	04771H
	DW	04771H
	DW	04771H
	DW	04771H
	DW	04771H
	DW	04771H
	DW	04771H
	DW	04771H
	DW	04771H
	DW	04771H
	DW	04771H
	DW	04771H
	DW	04771H
	DW	04771H
	DW	04771H
	DW	04771H
	DW	04771H
	DW	04771H
	DW	04771H
	DW	04771H
	DW	04771H
	DW	04771H
	DW	04771H
	DW	04771H
	DW	04771H
	DW	04771H
	DW	04771H
	DW	04771H
	DW	04771H
	DW	04771H
	DW	04771H
	DW	04771H
	DW	04771H
	DW	04771H
	DW	04771H
	DW	04771H
	DW	036edH
	DW	01104H
	DW	00H
	DW	0441H
	DW	02e6bH
	DW	0332cH
	DW	01ae7H
	DW	016e5H
	DW	016e5H
	DW	016e5H
	DW	016e5H
	DW	016e5H
	DW	016e5H
	DW	016e5H
	DW	016e5H
	DW	016e5H
	DW	016e5H
	DW	016e5H
	DW	016e5H
	DW	016e5H
	DW	016e5H
	DW	016e5H
	DW	016e5H
	DW	016e5H
	DW	016e5H
	DW	016e5H
	DW	016e5H
	DW	016e5H
	DW	016e5H
	DW	016e5H
	DW	016e5H
	DW	016e5H
	DW	016e5H
	DW	016e5H
	DW	016e5H
	DW	016e5H
	DW	016e5H
	DW	016e5H
	DW	016e5H
	DW	016e5H
	DW	016e5H
	DW	016e5H
	DW	016e5H
	DW	016e5H
	DW	016e5H
	DW	016e5H
	DW	016e5H
	DW	016e5H
	DW	016e5H
	DW	016e5H
	DW	016e5H
	DW	016e5H
	DW	016e5H
	DW	016e5H
	DW	016e5H
	DW	016e5H
	DW	016e5H
	DW	016e5H
	DW	016e5H
	DW	016e5H
	DW	016e5H
	DW	016e5H
	DW	016e5H
	DW	016e5H
	DW	016e5H
	DW	016e5H
	DW	016e5H
	DW	016e5H
	DW	016e5H
	DW	016e5H
	DW	016e5H
	DW	016e5H
	DW	016e5H
	DW	016e5H
	DW	016e5H
	DW	016e5H
	DW	016e5H
	DW	016e5H
	DW	016e5H
	DW	016e5H
	DW	016e5H
	DW	016e5H
	DW	016e5H
	DW	016e5H
	DW	016e5H
	DW	016e5H
	DW	016e5H
	DW	016e5H
	DW	016e5H
	DW	016e5H
	DW	016e5H
	DW	016e5H
	DW	016e5H
	DW	016e5H
	DW	016e5H
	DW	016e5H
	DW	016e5H
	DW	016e5H
	DW	016e5H
	DW	016e5H
	DW	016e5H
	DW	016e5H
	DW	016e5H
	DW	016e5H
	DW	016e5H
	DW	016e5H
	DW	016e5H
	DW	016e5H
	DW	016e5H
	DW	01ae7H
	DW	016c6H
	DW	0c0H
	DW	01de7H
	DW	02309H
	DW	06c1H
	DW	02c0H
	DW	02c0H
	DW	02c0H
	DW	02c0H
	DW	02c0H
	DW	02c0H
	DW	02c0H
	DW	02c0H
	DW	02c0H
	DW	02c0H
	DW	02c0H
	DW	02c0H
	DW	02c0H
	DW	02c0H
	DW	02c0H
	DW	02c0H
	DW	02c0H
	DW	02c0H
	DW	02c0H
	DW	02c0H
	DW	02c0H
	DW	02c0H
	DW	02c0H
	DW	02c0H
	DW	02c0H
	DW	02c0H
	DW	02c0H
	DW	02c0H
	DW	02c0H
	DW	02c0H
	DW	02c0H
	DW	02c0H
	DW	02c0H
	DW	02c0H
	DW	02c0H
	DW	02c0H
	DW	02c0H
	DW	02c0H
	DW	02c0H
	DW	02c0H
	DW	02c0H
	DW	02c0H
	DW	02c0H
	DW	02c0H
	DW	02c0H
	DW	02c0H
	DW	02c0H
	DW	02c0H
	DW	02c0H
	DW	02c0H
	DW	02c0H
	DW	02c0H
	DW	02c0H
	DW	02c0H
	DW	02c0H
	DW	02c0H
	DW	02c0H
	DW	02c0H
	DW	02c0H
	DW	02c0H
	DW	02c0H
	DW	02c0H
	DW	02c0H
	DW	02c0H
	DW	02c0H
	DW	02c0H
	DW	02c0H
	DW	02c0H
	DW	02c0H
	DW	02c0H
	DW	02c0H
	DW	02c0H
	DW	02c0H
	DW	02c0H
	DW	02c0H
	DW	02c0H
	DW	02c0H
	DW	02c0H
	DW	02c0H
	DW	02c0H
	DW	02c0H
	DW	02c0H
	DW	02c0H
	DW	02c0H
	DW	02c0H
	DW	02c0H
	DW	02c0H
	DW	02c0H
	DW	02c0H
	DW	02c0H
	DW	02c0H
	DW	02c0H
	DW	02c0H
	DW	02c0H
	DW	02c0H
	DW	02c0H
	DW	02c0H
	DW	02c0H
	DW	02c0H
	DW	02c0H
	DW	02c0H
	DW	02c0H
	DW	02c0H
	DW	02c0H
	DW	02e1H
	DW	01a0H
	DW	01685H
	DW	0ee3H
	DW	02c0H
	DW	02c0H
	DW	02c0H
	DW	02c0H
	DW	02c0H
	DW	02c0H
	DW	02c0H
	DW	02c0H
	DW	02c0H
	DW	02c0H
	DW	02c0H
	DW	02c0H
	DW	02c0H
	DW	02c0H
	DW	02c0H
	DW	02c0H
	DW	02c0H
	DW	02c0H
	DW	02c0H
	DW	02c0H
	DW	02c0H
	DW	02c0H
	DW	02c0H
	DW	02c0H
	DW	02c0H
	DW	02c0H
	DW	02c0H
	DW	02c0H
	DW	02c0H
	DW	02c0H
	DW	02c0H
	DW	02c0H
	DW	02c0H
	DW	02c0H
	DW	02c0H
	DW	02c0H
	DW	02c0H
	DW	02c0H
	DW	02c0H
	DW	02c0H
	DW	02c0H
	DW	02c0H
	DW	02c0H
	DW	02c0H
	DW	02c0H
	DW	02c0H
	DW	02c0H
	DW	02c0H
	DW	02c0H
	DW	02c0H
	DW	02c0H
	DW	02c0H
	DW	02c0H
	DW	02c0H
	DW	02c0H
	DW	02c0H
	DW	02c0H
	DW	02c0H
	DW	02c0H
	DW	02c0H
	DW	02c0H
	DW	02c0H
	DW	02c0H
	DW	02c0H
	DW	02c0H
	DW	02c0H
	DW	02c0H
	DW	02c0H
	DW	02c0H
	DW	02c0H
	DW	02c0H
	DW	02c0H
	DW	02c0H
	DW	02c0H
	DW	02c0H
	DW	02c0H
	DW	02c0H
	DW	02c0H
	DW	02c0H
	DW	02c0H
	DW	02c0H
	DW	02c0H
	DW	02c0H
	DW	02c0H
	DW	02c0H
	DW	02c0H
	DW	02c0H
	DW	02c0H
	DW	02c0H
	DW	02c0H
	DW	02c0H
	DW	02c0H
	DW	02c0H
	DW	02c0H
	DW	02c0H
	DW	02c0H
	DW	02c0H
	DW	02c0H
	DW	02c0H
	DW	02c0H
	DW	02c0H
	DW	02c0H
	DW	02c0H
	DW	02c0H
	DW	02e0H
	DW	02c0H
	DW	01a0H
	DW	01284H
	DW	0ae3H
	DW	02e0H
	DW	02e0H
	DW	02e0H
	DW	02e0H
	DW	02e0H
	DW	02e0H
	DW	02e0H
	DW	02e0H
	DW	02e0H
	DW	02e0H
	DW	02e0H
	DW	02e0H
	DW	02e0H
	DW	02e0H
	DW	02e0H
	DW	02e0H
	DW	02e0H
	DW	02e0H
	DW	02e0H
	DW	02e0H
	DW	02e0H
	DW	02e0H
	DW	02e0H
	DW	02e0H
	DW	02e0H
	DW	02e0H
	DW	02e0H
	DW	02e0H
	DW	02e0H
	DW	02e0H
	DW	02e0H
	DW	02e0H
	DW	02e0H
	DW	02e0H
	DW	02e0H
	DW	02e0H
	DW	02e0H
	DW	02e0H
	DW	02e0H
	DW	02e0H
	DW	02e0H
	DW	02e0H
	DW	02e0H
	DW	02e0H
	DW	02e0H
	DW	02e0H
	DW	02e0H
	DW	02e0H
	DW	02e0H
	DW	02e0H
	DW	02e0H
	DW	02e0H
	DW	02e0H
	DW	02e0H
	DW	02e0H
	DW	02e0H
	DW	02e0H
	DW	02e0H
	DW	02e0H
	DW	02e0H
	DW	02e0H
	DW	02e0H
	DW	02e0H
	DW	02e0H
	DW	02e0H
	DW	02e0H
	DW	02e0H
	DW	02e0H
	DW	02e0H
	DW	02e0H
	DW	02e0H
	DW	02e0H
	DW	02e0H
	DW	02e0H
	DW	02e0H
	DW	02e0H
	DW	02e0H
	DW	02e0H
	DW	02e0H
	DW	02e0H
	DW	02e0H
	DW	02e0H
	DW	02e0H
	DW	02e0H
	DW	02e0H
	DW	02e0H
	DW	02e0H
	DW	02e0H
	DW	02e0H
	DW	02e0H
	DW	02e0H
	DW	02e0H
	DW	02e0H
	DW	02e0H
	DW	02e0H
	DW	02e0H
	DW	02e0H
	DW	02e0H
	DW	02e0H
	DW	02e0H
	DW	02e0H
	DW	02e0H
	DW	02e0H
	DW	02e0H
	DW	02e0H
	DW	02e0H
	DW	01a0H
	DW	01284H
	DW	0b03H
	DW	0300H
	DW	0300H
	DW	0300H
	DW	0300H
	DW	0300H
	DW	0300H
	DW	0300H
	DW	0300H
	DW	0300H
	DW	0300H
	DW	0300H
	DW	0300H
	DW	0300H
	DW	0300H
	DW	0300H
	DW	0300H
	DW	0300H
	DW	0300H
	DW	0300H
	DW	0300H
	DW	0300H
	DW	0300H
	DW	0300H
	DW	0300H
	DW	0300H
	DW	0300H
	DW	0300H
	DW	0300H
	DW	0300H
	DW	0300H
	DW	0300H
	DW	0300H
	DW	0300H
	DW	0300H
	DW	0300H
	DW	0300H
	DW	0300H
	DW	0300H
	DW	0300H
	DW	0300H
	DW	0300H
	DW	0300H
	DW	0300H
	DW	0300H
	DW	0300H
	DW	0300H
	DW	0300H
	DW	0300H
	DW	0300H
	DW	0300H
	DW	0300H
	DW	0300H
	DW	0300H
	DW	0300H
	DW	0300H
	DW	0300H
	DW	0300H
	DW	0300H
	DW	0300H
	DW	0300H
	DW	0300H
	DW	0300H
	DW	0300H
	DW	0300H
	DW	0300H
	DW	0300H
	DW	0300H
	DW	0300H
	DW	0300H
	DW	0300H
	DW	0300H
	DW	0300H
	DW	0300H
	DW	0300H
	DW	0300H
	DW	0300H
	DW	0300H
	DW	0300H
	DW	0300H
	DW	0300H
	DW	0300H
	DW	0300H
	DW	0300H
	DW	0300H
	DW	0300H
	DW	0300H
	DW	0300H
	DW	0300H
	DW	0300H
	DW	0300H
	DW	0300H
	DW	0300H
	DW	0300H
	DW	0300H
	DW	0300H
	DW	0300H
	DW	0300H
	DW	0300H
	DW	0300H
	DW	0300H
	DW	0300H
	DW	0300H
	DW	0300H
	DW	0300H
	DW	0300H
	DW	02e0H
	DW	01a0H
	DW	012a4H
	DW	0b23H
	DW	0320H
	DW	0320H
	DW	0320H
	DW	0320H
	DW	0320H
	DW	0320H
	DW	0320H
	DW	0320H
	DW	0320H
	DW	0320H
	DW	0320H
	DW	0320H
	DW	0320H
	DW	0320H
	DW	0320H
	DW	0320H
	DW	0320H
	DW	0320H
	DW	0320H
	DW	0320H
	DW	0320H
	DW	0320H
	DW	0320H
	DW	0320H
	DW	0320H
	DW	0320H
	DW	0320H
	DW	0320H
	DW	0320H
	DW	0320H
	DW	0320H
	DW	0320H
	DW	0320H
	DW	0320H
	DW	0320H
	DW	0320H
	DW	0320H
	DW	0320H
	DW	0320H
	DW	0320H
	DW	0320H
	DW	0320H
	DW	0320H
	DW	0320H
	DW	0320H
	DW	0320H
	DW	0320H
	DW	0320H
	DW	0320H
	DW	0320H
	DW	0320H
	DW	0320H
	DW	0320H
	DW	0320H
	DW	0320H
	DW	0320H
	DW	0320H
	DW	0320H
	DW	0320H
	DW	0320H
	DW	0320H
	DW	0320H
	DW	0320H
	DW	0320H
	DW	0320H
	DW	0320H
	DW	0320H
	DW	0320H
	DW	0320H
	DW	0320H
	DW	0320H
	DW	0320H
	DW	0320H
	DW	0320H
	DW	0320H
	DW	0320H
	DW	0320H
	DW	0320H
	DW	0320H
	DW	0320H
	DW	0320H
	DW	0320H
	DW	0320H
	DW	0320H
	DW	0320H
	DW	0320H
	DW	0320H
	DW	0320H
	DW	0320H
	DW	0320H
	DW	0320H
	DW	0320H
	DW	0320H
	DW	0320H
	DW	0320H
	DW	0320H
	DW	0320H
	DW	0320H
	DW	0320H
	DW	0320H
	DW	0320H
	DW	0320H
	DW	0320H
	DW	0320H
	DW	0320H
	DW	0300H
	DW	01c0H
	DW	012a4H
	DW	0b43H
	DW	0320H
	DW	0320H
	DW	0320H
	DW	0320H
	DW	0320H
	DW	0320H
	DW	0320H
	DW	0320H
	DW	0320H
	DW	0320H
	DW	0320H
	DW	0320H
	DW	0320H
	DW	0320H
	DW	0320H
	DW	0320H
	DW	0320H
	DW	0320H
	DW	0320H
	DW	0320H
	DW	0320H
	DW	0320H
	DW	0320H
	DW	0320H
	DW	0320H
	DW	0320H
	DW	0320H
	DW	0320H
	DW	0320H
	DW	0320H
	DW	0320H
	DW	0320H
	DW	0320H
	DW	0320H
	DW	0320H
	DW	0320H
	DW	0320H
	DW	0320H
	DW	0320H
	DW	0320H
	DW	0320H
	DW	0320H
	DW	0320H
	DW	0320H
	DW	0320H
	DW	0320H
	DW	0320H
	DW	0320H
	DW	0320H
	DW	0320H
	DW	0320H
	DW	0320H
	DW	0320H
	DW	0320H
	DW	0320H
	DW	0320H
	DW	0320H
	DW	0320H
	DW	0320H
	DW	0320H
	DW	0320H
	DW	0320H
	DW	0320H
	DW	0320H
	DW	0320H
	DW	0320H
	DW	0320H
	DW	0320H
	DW	0320H
	DW	0320H
	DW	0320H
	DW	0320H
	DW	0320H
	DW	0320H
	DW	0320H
	DW	0320H
	DW	0320H
	DW	0320H
	DW	0320H
	DW	0320H
	DW	0320H
	DW	0320H
	DW	0320H
	DW	0320H
	DW	0320H
	DW	0320H
	DW	0320H
	DW	0320H
	DW	0320H
	DW	0320H
	DW	0320H
	DW	0320H
	DW	0320H
	DW	0320H
	DW	0320H
	DW	0320H
	DW	0320H
	DW	0320H
	DW	0320H
	DW	0320H
	DW	0320H
	DW	0320H
	DW	0320H
	DW	0320H
	DW	0320H
	DW	0320H
	DW	01c0H
	DW	012c4H
	DW	0b42H
	DW	0340H
	DW	0340H
	DW	0340H
	DW	0340H
	DW	0340H
	DW	0340H
	DW	0340H
	DW	0340H
	DW	0340H
	DW	0340H
	DW	0340H
	DW	0340H
	DW	0340H
	DW	0340H
	DW	0340H
	DW	0340H
	DW	0340H
	DW	0340H
	DW	0340H
	DW	0340H
	DW	0340H
	DW	0340H
	DW	0340H
	DW	0340H
	DW	0340H
	DW	0340H
	DW	0340H
	DW	0340H
	DW	0340H
	DW	0340H
	DW	0340H
	DW	0340H
	DW	0340H
	DW	0340H
	DW	0340H
	DW	0340H
	DW	0340H
	DW	0340H
	DW	0340H
	DW	0340H
	DW	0340H
	DW	0340H
	DW	0340H
	DW	0340H
	DW	0340H
	DW	0340H
	DW	0340H
	DW	0340H
	DW	0340H
	DW	0340H
	DW	0340H
	DW	0340H
	DW	0340H
	DW	0340H
	DW	0340H
	DW	0340H
	DW	0340H
	DW	0340H
	DW	0340H
	DW	0340H
	DW	0340H
	DW	0340H
	DW	0340H
	DW	0340H
	DW	0340H
	DW	0340H
	DW	0340H
	DW	0340H
	DW	0340H
	DW	0340H
	DW	0340H
	DW	0340H
	DW	0340H
	DW	0340H
	DW	0340H
	DW	0340H
	DW	0340H
	DW	0340H
	DW	0340H
	DW	0340H
	DW	0340H
	DW	0340H
	DW	0340H
	DW	0340H
	DW	0340H
	DW	0340H
	DW	0340H
	DW	0340H
	DW	0340H
	DW	0340H
	DW	0340H
	DW	0340H
	DW	0340H
	DW	0340H
	DW	0340H
	DW	0340H
	DW	0340H
	DW	0340H
	DW	0340H
	DW	0340H
	DW	0340H
	DW	0340H
	DW	0340H
	DW	0340H
	DW	0340H
	DW	0340H
	DW	01e0H
	DW	012c4H
	DW	0b62H
	DW	0360H
	DW	0360H
	DW	0360H
	DW	0360H
	DW	0360H
	DW	0360H
	DW	0360H
	DW	0360H
	DW	0360H
	DW	0360H
	DW	0360H
	DW	0360H
	DW	0360H
	DW	0360H
	DW	0360H
	DW	0360H
	DW	0360H
	DW	0360H
	DW	0360H
	DW	0360H
	DW	0360H
	DW	0360H
	DW	0360H
	DW	0360H
	DW	0360H
	DW	0360H
	DW	0360H
	DW	0360H
	DW	0360H
	DW	0360H
	DW	0360H
	DW	0360H
	DW	0360H
	DW	0360H
	DW	0360H
	DW	0360H
	DW	0360H
	DW	0360H
	DW	0360H
	DW	0360H
	DW	0360H
	DW	0360H
	DW	0360H
	DW	0360H
	DW	0360H
	DW	0360H
	DW	0360H
	DW	0360H
	DW	0360H
	DW	0360H
	DW	0360H
	DW	0360H
	DW	0360H
	DW	0360H
	DW	0360H
	DW	0360H
	DW	0360H
	DW	0360H
	DW	0360H
	DW	0360H
	DW	0360H
	DW	0360H
	DW	0360H
	DW	0360H
	DW	0360H
	DW	0360H
	DW	0360H
	DW	0360H
	DW	0360H
	DW	0360H
	DW	0360H
	DW	0360H
	DW	0360H
	DW	0360H
	DW	0360H
	DW	0360H
	DW	0360H
	DW	0360H
	DW	0360H
	DW	0360H
	DW	0360H
	DW	0360H
	DW	0360H
	DW	0360H
	DW	0360H
	DW	0360H
	DW	0360H
	DW	0360H
	DW	0360H
	DW	0360H
	DW	0360H
	DW	0360H
	DW	0360H
	DW	0360H
	DW	0360H
	DW	0360H
	DW	0360H
	DW	0360H
	DW	0360H
	DW	0360H
	DW	0360H
	DW	0360H
	DW	0360H
	DW	0360H
	DW	0360H
	DW	0360H
	DW	01e0H
	DW	012e4H
	DW	0b82H
	DW	0380H
	DW	0380H
	DW	0380H
	DW	0380H
	DW	0380H
	DW	0380H
	DW	0380H
	DW	0380H
	DW	0380H
	DW	0380H
	DW	0380H
	DW	0380H
	DW	0380H
	DW	0380H
	DW	0380H
	DW	0380H
	DW	0380H
	DW	0380H
	DW	0380H
	DW	0380H
	DW	0380H
	DW	0380H
	DW	0380H
	DW	0380H
	DW	0380H
	DW	0380H
	DW	0380H
	DW	0380H
	DW	0380H
	DW	0380H
	DW	0380H
	DW	0380H
	DW	0380H
	DW	0380H
	DW	0380H
	DW	0380H
	DW	0380H
	DW	0380H
	DW	0380H
	DW	0380H
	DW	0380H
	DW	0380H
	DW	0380H
	DW	0380H
	DW	0380H
	DW	0380H
	DW	0380H
	DW	0380H
	DW	0380H
	DW	0380H
	DW	0380H
	DW	0380H
	DW	0380H
	DW	0380H
	DW	0380H
	DW	0380H
	DW	0380H
	DW	0380H
	DW	0380H
	DW	0380H
	DW	0380H
	DW	0380H
	DW	0380H
	DW	0380H
	DW	0380H
	DW	0380H
	DW	0380H
	DW	0380H
	DW	0380H
	DW	0380H
	DW	0380H
	DW	0380H
	DW	0380H
	DW	0380H
	DW	0380H
	DW	0380H
	DW	0380H
	DW	0380H
	DW	0380H
	DW	0380H
	DW	0380H
	DW	0380H
	DW	0380H
	DW	0380H
	DW	0380H
	DW	0380H
	DW	0380H
	DW	0380H
	DW	0380H
	DW	0380H
	DW	0380H
	DW	0380H
	DW	0380H
	DW	0380H
	DW	0380H
	DW	0380H
	DW	0380H
	DW	0380H
	DW	0380H
	DW	0380H
	DW	0380H
	DW	0380H
	DW	0380H
	DW	0380H
	DW	0380H
	DW	0360H
	DW	0200H
	DW	012e4H
	DW	0b82H
	DW	0380H
	DW	0380H
	DW	0380H
	DW	0380H
	DW	0380H
	DW	0380H
	DW	0380H
	DW	0380H
	DW	0380H
	DW	0380H
	DW	0380H
	DW	0380H
	DW	0380H
	DW	0380H
	DW	0380H
	DW	0380H
	DW	0380H
	DW	0380H
	DW	0380H
	DW	0380H
	DW	0380H
	DW	0380H
	DW	0380H
	DW	0380H
	DW	0380H
	DW	0380H
	DW	0380H
	DW	0380H
	DW	0380H
	DW	0380H
	DW	0380H
	DW	0380H
	DW	0380H
	DW	0380H
	DW	0380H
	DW	0380H
	DW	0380H
	DW	0380H
	DW	0380H
	DW	0380H
	DW	0380H
	DW	0380H
	DW	0380H
	DW	0380H
	DW	0380H
	DW	0380H
	DW	0380H
	DW	0380H
	DW	0380H
	DW	0380H
	DW	0380H
	DW	0380H
	DW	0380H
	DW	0380H
	DW	0380H
	DW	0380H
	DW	0380H
	DW	0380H
	DW	0380H
	DW	0380H
	DW	0380H
	DW	0380H
	DW	0380H
	DW	0380H
	DW	0380H
	DW	0380H
	DW	0380H
	DW	0380H
	DW	0380H
	DW	0380H
	DW	0380H
	DW	0380H
	DW	0380H
	DW	0380H
	DW	0380H
	DW	0380H
	DW	0380H
	DW	0380H
	DW	0380H
	DW	0380H
	DW	0380H
	DW	0380H
	DW	0380H
	DW	0380H
	DW	0380H
	DW	0380H
	DW	0380H
	DW	0380H
	DW	0380H
	DW	0380H
	DW	0380H
	DW	0380H
	DW	0380H
	DW	0380H
	DW	0380H
	DW	0380H
	DW	0380H
	DW	0380H
	DW	0380H
	DW	0380H
	DW	0380H
	DW	0380H
	DW	0380H
	DW	0380H
	DW	03a0H
	DW	0380H
	DW	0200H
	DW	01304H
	DW	0ba2H
	DW	03a0H
	DW	03a0H
	DW	03a0H
	DW	03a0H
	DW	03a0H
	DW	03a0H
	DW	03a0H
	DW	03a0H
	DW	03a0H
	DW	03a0H
	DW	03a0H
	DW	03a0H
	DW	03a0H
	DW	03a0H
	DW	03a0H
	DW	03a0H
	DW	03a0H
	DW	03a0H
	DW	03a0H
	DW	03a0H
	DW	03a0H
	DW	03a0H
	DW	03a0H
	DW	03a0H
	DW	03a0H
	DW	03a0H
	DW	03a0H
	DW	03a0H
	DW	03a0H
	DW	03a0H
	DW	03a0H
	DW	03a0H
	DW	03a0H
	DW	03a0H
	DW	03a0H
	DW	03a0H
	DW	03a0H
	DW	03a0H
	DW	03a0H
	DW	03a0H
	DW	03a0H
	DW	03a0H
	DW	03a0H
	DW	03a0H
	DW	03a0H
	DW	03a0H
	DW	03a0H
	DW	03a0H
	DW	03a0H
	DW	03a0H
	DW	03a0H
	DW	03a0H
	DW	03a0H
	DW	03a0H
	DW	03a0H
	DW	03a0H
	DW	03a0H
	DW	03a0H
	DW	03a0H
	DW	03a0H
	DW	03a0H
	DW	03a0H
	DW	03a0H
	DW	03a0H
	DW	03a0H
	DW	03a0H
	DW	03a0H
	DW	03a0H
	DW	03a0H
	DW	03a0H
	DW	03a0H
	DW	03a0H
	DW	03a0H
	DW	03a0H
	DW	03a0H
	DW	03a0H
	DW	03a0H
	DW	03a0H
	DW	03a0H
	DW	03a0H
	DW	03a0H
	DW	03a0H
	DW	03a0H
	DW	03a0H
	DW	03a0H
	DW	03a0H
	DW	03a0H
	DW	03a0H
	DW	03a0H
	DW	03a0H
	DW	03a0H
	DW	03a0H
	DW	03a0H
	DW	03a0H
	DW	03a0H
	DW	03a0H
	DW	03a0H
	DW	03a0H
	DW	03a0H
	DW	03a0H
	DW	03a0H
	DW	03a0H
	DW	03a0H
	DW	03a0H
	DW	03a0H
	DW	03a0H
	DW	0200H
	DW	01304H
	DW	0bc2H
	DW	03c0H
	DW	03c0H
	DW	03c0H
	DW	03c0H
	DW	03c0H
	DW	03c0H
	DW	03c0H
	DW	03c0H
	DW	03c0H
	DW	03c0H
	DW	03c0H
	DW	03c0H
	DW	03c0H
	DW	03c0H
	DW	03c0H
	DW	03c0H
	DW	03c0H
	DW	03c0H
	DW	03c0H
	DW	03c0H
	DW	03c0H
	DW	03c0H
	DW	03c0H
	DW	03c0H
	DW	03c0H
	DW	03c0H
	DW	03c0H
	DW	03c0H
	DW	03c0H
	DW	03c0H
	DW	03c0H
	DW	03c0H
	DW	03c0H
	DW	03c0H
	DW	03c0H
	DW	03c0H
	DW	03c0H
	DW	03c0H
	DW	03c0H
	DW	03c0H
	DW	03c0H
	DW	03c0H
	DW	03c0H
	DW	03c0H
	DW	03c0H
	DW	03c0H
	DW	03c0H
	DW	03c0H
	DW	03c0H
	DW	03c0H
	DW	03c0H
	DW	03c0H
	DW	03c0H
	DW	03c0H
	DW	03c0H
	DW	03c0H
	DW	03c0H
	DW	03c0H
	DW	03c0H
	DW	03c0H
	DW	03c0H
	DW	03c0H
	DW	03c0H
	DW	03c0H
	DW	03c0H
	DW	03c0H
	DW	03c0H
	DW	03c0H
	DW	03c0H
	DW	03c0H
	DW	03c0H
	DW	03c0H
	DW	03c0H
	DW	03c0H
	DW	03c0H
	DW	03c0H
	DW	03c0H
	DW	03c0H
	DW	03c0H
	DW	03c0H
	DW	03c0H
	DW	03c0H
	DW	03c0H
	DW	03c0H
	DW	03c0H
	DW	03c0H
	DW	03c0H
	DW	03c0H
	DW	03c0H
	DW	03c0H
	DW	03c0H
	DW	03c0H
	DW	03c0H
	DW	03c0H
	DW	03c0H
	DW	03c0H
	DW	03c0H
	DW	03c0H
	DW	03c0H
	DW	03c0H
	DW	03c0H
	DW	03c0H
	DW	03c0H
	DW	03c0H
	DW	03c0H
	DW	03a0H
	DW	0220H
	DW	01324H
	DW	0bc2H
	DW	03c0H
	DW	03c0H
	DW	03c0H
	DW	03c0H
	DW	03c0H
	DW	03c0H
	DW	03c0H
	DW	03c0H
	DW	03c0H
	DW	03c0H
	DW	03c0H
	DW	03c0H
	DW	03c0H
	DW	03c0H
	DW	03c0H
	DW	03c0H
	DW	03c0H
	DW	03c0H
	DW	03c0H
	DW	03c0H
	DW	03c0H
	DW	03c0H
	DW	03c0H
	DW	03c0H
	DW	03c0H
	DW	03c0H
	DW	03c0H
	DW	03c0H
	DW	03c0H
	DW	03c0H
	DW	03c0H
	DW	03c0H
	DW	03c0H
	DW	03c0H
	DW	03c0H
	DW	03c0H
	DW	03c0H
	DW	03c0H
	DW	03c0H
	DW	03c0H
	DW	03c0H
	DW	03c0H
	DW	03c0H
	DW	03c0H
	DW	03c0H
	DW	03c0H
	DW	03c0H
	DW	03c0H
	DW	03c0H
	DW	03c0H
	DW	03c0H
	DW	03c0H
	DW	03c0H
	DW	03c0H
	DW	03c0H
	DW	03c0H
	DW	03c0H
	DW	03c0H
	DW	03c0H
	DW	03c0H
	DW	03c0H
	DW	03c0H
	DW	03c0H
	DW	03c0H
	DW	03c0H
	DW	03c0H
	DW	03c0H
	DW	03c0H
	DW	03c0H
	DW	03c0H
	DW	03c0H
	DW	03c0H
	DW	03c0H
	DW	03c0H
	DW	03c0H
	DW	03c0H
	DW	03c0H
	DW	03c0H
	DW	03c0H
	DW	03c0H
	DW	03c0H
	DW	03c0H
	DW	03c0H
	DW	03c0H
	DW	03c0H
	DW	03c0H
	DW	03c0H
	DW	03c0H
	DW	03c0H
	DW	03c0H
	DW	03c0H
	DW	03c0H
	DW	03c0H
	DW	03c0H
	DW	03c0H
	DW	03c0H
	DW	03c0H
	DW	03c0H
	DW	03c0H
	DW	03c0H
	DW	03c0H
	DW	03c0H
	DW	03c0H
	DW	03c0H
	DW	03e0H
	DW	03c0H
	DW	0220H
	DW	01324H
	DW	0be2H
	DW	03e0H
	DW	03e0H
	DW	03e0H
	DW	03e0H
	DW	03e0H
	DW	03e0H
	DW	03e0H
	DW	03e0H
	DW	03e0H
	DW	03e0H
	DW	03e0H
	DW	03e0H
	DW	03e0H
	DW	03e0H
	DW	03e0H
	DW	03e0H
	DW	03e0H
	DW	03e0H
	DW	03e0H
	DW	03e0H
	DW	03e0H
	DW	03e0H
	DW	03e0H
	DW	03e0H
	DW	03e0H
	DW	03e0H
	DW	03e0H
	DW	03e0H
	DW	03e0H
	DW	03e0H
	DW	03e0H
	DW	03e0H
	DW	03e0H
	DW	03e0H
	DW	03e0H
	DW	03e0H
	DW	03e0H
	DW	03e0H
	DW	03e0H
	DW	03e0H
	DW	03e0H
	DW	03e0H
	DW	03e0H
	DW	03e0H
	DW	03e0H
	DW	03e0H
	DW	03e0H
	DW	03e0H
	DW	03e0H
	DW	03e0H
	DW	03e0H
	DW	03e0H
	DW	03e0H
	DW	03e0H
	DW	03e0H
	DW	03e0H
	DW	03e0H
	DW	03e0H
	DW	03e0H
	DW	03e0H
	DW	03e0H
	DW	03e0H
	DW	03e0H
	DW	03e0H
	DW	03e0H
	DW	03e0H
	DW	03e0H
	DW	03e0H
	DW	03e0H
	DW	03e0H
	DW	03e0H
	DW	03e0H
	DW	03e0H
	DW	03e0H
	DW	03e0H
	DW	03e0H
	DW	03e0H
	DW	03e0H
	DW	03e0H
	DW	03e0H
	DW	03e0H
	DW	03e0H
	DW	03e0H
	DW	03e0H
	DW	03e0H
	DW	03e0H
	DW	03e0H
	DW	03e0H
	DW	03e0H
	DW	03e0H
	DW	03e0H
	DW	03e0H
	DW	03e0H
	DW	03e0H
	DW	03e0H
	DW	03e0H
	DW	03e0H
	DW	03e0H
	DW	03e0H
	DW	03e0H
	DW	03e0H
	DW	03e0H
	DW	03e0H
	DW	03e0H
	DW	03e0H
	DW	03e0H
	DW	0220H
	DW	01324H
	DW	0be2H
	DW	03e0H
	DW	03e0H
	DW	03e0H
	DW	03e0H
	DW	03e0H
	DW	03e0H
	DW	03e0H
	DW	03e0H
	DW	03e0H
	DW	03e0H
	DW	03e0H
	DW	03e0H
	DW	03e0H
	DW	03e0H
	DW	03e0H
	DW	03e0H
	DW	03e0H
	DW	03e0H
	DW	03e0H
	DW	03e0H
	DW	03e0H
	DW	03e0H
	DW	03e0H
	DW	03e0H
	DW	03e0H
	DW	03e0H
	DW	03e0H
	DW	03e0H
	DW	03e0H
	DW	03e0H
	DW	03e0H
	DW	03e0H
	DW	03e0H
	DW	03e0H
	DW	03e0H
	DW	03e0H
	DW	03e0H
	DW	03e0H
	DW	03e0H
	DW	03e0H
	DW	03e0H
	DW	03e0H
	DW	03e0H
	DW	03e0H
	DW	03e0H
	DW	03e0H
	DW	03e0H
	DW	03e0H
	DW	03e0H
	DW	03e0H
	DW	03e0H
	DW	03e0H
	DW	03e0H
	DW	03e0H
	DW	03e0H
	DW	03e0H
	DW	03e0H
	DW	03e0H
	DW	03e0H
	DW	03e0H
	DW	03e0H
	DW	03e0H
	DW	03e0H
	DW	03e0H
	DW	03e0H
	DW	03e0H
	DW	03e0H
	DW	03e0H
	DW	03e0H
	DW	03e0H
	DW	03e0H
	DW	03e0H
	DW	03e0H
	DW	03e0H
	DW	03e0H
	DW	03e0H
	DW	03e0H
	DW	03e0H
	DW	03e0H
	DW	03e0H
	DW	03e0H
	DW	03e0H
	DW	03e0H
	DW	03e0H
	DW	03e0H
	DW	03e0H
	DW	03e0H
	DW	03e0H
	DW	03e0H
	DW	03e0H
	DW	03e0H
	DW	03e0H
	DW	03e0H
	DW	03e0H
	DW	03e0H
	DW	03e0H
	DW	03e0H
	DW	03e0H
	DW	03e0H
	DW	03e0H
	DW	03e0H
	DW	03e0H
	DW	03e0H
	DW	03e0H
	DW	03e0H
	DW	03e0H
	DW	0240H
	DW	01324H
	DW	0be2H
	DW	03e0H
	DW	03e0H
	DW	03e0H
	DW	03e0H
	DW	03e0H
	DW	03e0H
	DW	03e0H
	DW	03e0H
	DW	03e0H
	DW	03e0H
	DW	03e0H
	DW	03e0H
	DW	03e0H
	DW	03e0H
	DW	03e0H
	DW	03e0H
	DW	03e0H
	DW	03e0H
	DW	03e0H
	DW	03e0H
	DW	03e0H
	DW	03e0H
	DW	03e0H
	DW	03e0H
	DW	03e0H
	DW	03e0H
	DW	03e0H
	DW	03e0H
	DW	03e0H
	DW	03e0H
	DW	03e0H
	DW	03e0H
	DW	03e0H
	DW	03e0H
	DW	03e0H
	DW	03e0H
	DW	03e0H
	DW	03e0H
	DW	03e0H
	DW	03e0H
	DW	03e0H
	DW	03e0H
	DW	03e0H
	DW	03e0H
	DW	03e0H
	DW	03e0H
	DW	03e0H
	DW	03e0H
	DW	03e0H
	DW	03e0H
	DW	03e0H
	DW	03e0H
	DW	03e0H
	DW	03e0H
	DW	03e0H
	DW	03e0H
	DW	03e0H
	DW	03e0H
	DW	03e0H
	DW	03e0H
	DW	03e0H
	DW	03e0H
	DW	03e0H
	DW	03e0H
	DW	03e0H
	DW	03e0H
	DW	03e0H
	DW	03e0H
	DW	03e0H
	DW	03e0H
	DW	03e0H
	DW	03e0H
	DW	03e0H
	DW	03e0H
	DW	03e0H
	DW	03e0H
	DW	03e0H
	DW	03e0H
	DW	03e0H
	DW	03e0H
	DW	03e0H
	DW	03e0H
	DW	03e0H
	DW	03e0H
	DW	03e0H
	DW	03e0H
	DW	03e0H
	DW	03e0H
	DW	03e0H
	DW	03e0H
	DW	03e0H
	DW	03e0H
	DW	03e0H
	DW	03e0H
	DW	03e0H
	DW	03e0H
	DW	03e0H
	DW	03e0H
	DW	03e0H
	DW	03e0H
	DW	03e0H
	DW	03e0H
	DW	03e0H
	DW	03e0H
	DW	03e0H
	DW	03e0H
	DW	0240H
	DW	01324H
	DW	0be2H
	DW	03e0H
	DW	03e0H
	DW	03e0H
	DW	03e0H
	DW	03e0H
	DW	03e0H
	DW	03e0H
	DW	03e0H
	DW	03e0H
	DW	03e0H
	DW	03e0H
	DW	03e0H
	DW	03e0H
	DW	03e0H
	DW	03e0H
	DW	03e0H
	DW	03e0H
	DW	03e0H
	DW	03e0H
	DW	03e0H
	DW	03e0H
	DW	03e0H
	DW	03e0H
	DW	03e0H
	DW	03e0H
	DW	03e0H
	DW	03e0H
	DW	03e0H
	DW	03e0H
	DW	03e0H
	DW	03e0H
	DW	03e0H
	DW	03e0H
	DW	03e0H
	DW	03e0H
	DW	03e0H
	DW	03e0H
	DW	03e0H
	DW	03e0H
	DW	03e0H
	DW	03e0H
	DW	03e0H
	DW	03e0H
	DW	03e0H
	DW	03e0H
	DW	03e0H
	DW	03e0H
	DW	03e0H
	DW	03e0H
	DW	03e0H
	DW	03e0H
	DW	03e0H
	DW	03e0H
	DW	03e0H
	DW	03e0H
	DW	03e0H
	DW	03e0H
	DW	03e0H
	DW	03e0H
	DW	03e0H
	DW	03e0H
	DW	03e0H
	DW	03e0H
	DW	03e0H
	DW	03e0H
	DW	03e0H
	DW	03e0H
	DW	03e0H
	DW	03e0H
	DW	03e0H
	DW	03e0H
	DW	03e0H
	DW	03e0H
	DW	03e0H
	DW	03e0H
	DW	03e0H
	DW	03e0H
	DW	03e0H
	DW	03e0H
	DW	03e0H
	DW	03e0H
	DW	03e0H
	DW	03e0H
	DW	03e0H
	DW	03e0H
	DW	03e0H
	DW	03e0H
	DW	03e0H
	DW	03e0H
	DW	03e0H
	DW	03e0H
	DW	03e0H
	DW	03e0H
	DW	03e0H
	DW	03e0H
	DW	03e0H
	DW	03e0H
	DW	03e0H
	DW	03e0H
	DW	03e0H
	DW	03e0H
	DW	03e0H
	DW	03e0H
	DW	03e0H
	DW	03e0H
	DW	03e0H
	DW	0240H
	DW	01324H
	DW	0be2H
	DW	03e0H
	DW	03e0H
	DW	03e0H
	DW	03e0H
	DW	03e0H
	DW	03e0H
	DW	03e0H
	DW	03e0H
	DW	03e0H
	DW	03e0H
	DW	03e0H
	DW	03e0H
	DW	03e0H
	DW	03e0H
	DW	03e0H
	DW	03e0H
	DW	03e0H
	DW	03e0H
	DW	03e0H
	DW	03e0H
	DW	03e0H
	DW	03e0H
	DW	03e0H
	DW	03e0H
	DW	03e0H
	DW	03e0H
	DW	03e0H
	DW	03e0H
	DW	03e0H
	DW	03e0H
	DW	03e0H
	DW	03e0H
	DW	03e0H
	DW	03e0H
	DW	03e0H
	DW	03e0H
	DW	03e0H
	DW	03e0H
	DW	03e0H
	DW	03e0H
	DW	03e0H
	DW	03e0H
	DW	03e0H
	DW	03e0H
	DW	03e0H
	DW	03e0H
	DW	03e0H
	DW	03e0H
	DW	03e0H
	DW	03e0H
	DW	03e0H
	DW	03e0H
	DW	03e0H
	DW	03e0H
	DW	03e0H
	DW	03e0H
	DW	03e0H
	DW	03e0H
	DW	03e0H
	DW	03e0H
	DW	03e0H
	DW	03e0H
	DW	03e0H
	DW	03e0H
	DW	03e0H
	DW	03e0H
	DW	03e0H
	DW	03e0H
	DW	03e0H
	DW	03e0H
	DW	03e0H
	DW	03e0H
	DW	03e0H
	DW	03e0H
	DW	03e0H
	DW	03e0H
	DW	03e0H
	DW	03e0H
	DW	03e0H
	DW	03e0H
	DW	03e0H
	DW	03e0H
	DW	03e0H
	DW	03e0H
	DW	03e0H
	DW	03e0H
	DW	03e0H
	DW	03e0H
	DW	03e0H
	DW	03e0H
	DW	03e0H
	DW	03e0H
	DW	03e0H
	DW	03e0H
	DW	03e0H
	DW	03e0H
	DW	03e0H
	DW	03e0H
	DW	03e0H
	DW	03e0H
	DW	03e0H
	DW	03e0H
	DW	03e0H
	DW	03e0H
	DW	03e0H
	DW	03e0H
	DW	0240H
	DW	01324H
	DW	0be2H
	DW	03e0H
	DW	03e0H
	DW	03e0H
	DW	03e0H
	DW	03e0H
	DW	03e0H
	DW	03e0H
	DW	03e0H
	DW	03e0H
	DW	03e0H
	DW	03e0H
	DW	03e0H
	DW	03e0H
	DW	03e0H
	DW	03e0H
	DW	03e0H
	DW	03e0H
	DW	03e0H
	DW	03e0H
	DW	03e0H
	DW	03e0H
	DW	03e0H
	DW	03e0H
	DW	03e0H
	DW	03e0H
	DW	03e0H
	DW	03e0H
	DW	03e0H
	DW	03e0H
	DW	03e0H
	DW	03e0H
	DW	03e0H
	DW	03e0H
	DW	03e0H
	DW	03e0H
	DW	03e0H
	DW	03e0H
	DW	03e0H
	DW	03e0H
	DW	03e0H
	DW	03e0H
	DW	03e0H
	DW	03e0H
	DW	03e0H
	DW	03e0H
	DW	03e0H
	DW	03e0H
	DW	03e0H
	DW	03e0H
	DW	03e0H
	DW	03e0H
	DW	03e0H
	DW	03e0H
	DW	03e0H
	DW	03e0H
	DW	03e0H
	DW	03e0H
	DW	03e0H
	DW	03e0H
	DW	03e0H
	DW	03e0H
	DW	03e0H
	DW	03e0H
	DW	03e0H
	DW	03e0H
	DW	03e0H
	DW	03e0H
	DW	03e0H
	DW	03e0H
	DW	03e0H
	DW	03e0H
	DW	03e0H
	DW	03e0H
	DW	03e0H
	DW	03e0H
	DW	03e0H
	DW	03e0H
	DW	03e0H
	DW	03e0H
	DW	03e0H
	DW	03e0H
	DW	03e0H
	DW	03e0H
	DW	03e0H
	DW	03e0H
	DW	03e0H
	DW	03e0H
	DW	03e0H
	DW	03e0H
	DW	03e0H
	DW	03e0H
	DW	03e0H
	DW	03e0H
	DW	03e0H
	DW	03e0H
	DW	03e0H
	DW	03e0H
	DW	03e0H
	DW	03e0H
	DW	03e0H
	DW	03e0H
	DW	03e0H
	DW	03e0H
	DW	03e0H
	DW	03e0H
	DW	03e0H
	DW	0240H
	DW	01324H
	DW	0be2H
	DW	03e0H
	DW	03e0H
	DW	03e0H
	DW	03e0H
	DW	03e0H
	DW	03e0H
	DW	03e0H
	DW	03e0H
	DW	03e0H
	DW	03e0H
	DW	03e0H
	DW	03e0H
	DW	03e0H
	DW	03e0H
	DW	03e0H
	DW	03e0H
	DW	03e0H
	DW	03e0H
	DW	03e0H
	DW	03e0H
	DW	03e0H
	DW	03e0H
	DW	03e0H
	DW	03e0H
	DW	03e0H
	DW	03e0H
	DW	03e0H
	DW	03e0H
	DW	03e0H
	DW	03e0H
	DW	03e0H
	DW	03e0H
	DW	03e0H
	DW	03e0H
	DW	03e0H
	DW	03e0H
	DW	03e0H
	DW	03e0H
	DW	03e0H
	DW	03e0H
	DW	03e0H
	DW	03e0H
	DW	03e0H
	DW	03e0H
	DW	03e0H
	DW	03e0H
	DW	03e0H
	DW	03e0H
	DW	03e0H
	DW	03e0H
	DW	03e0H
	DW	03e0H
	DW	03e0H
	DW	03e0H
	DW	03e0H
	DW	03e0H
	DW	03e0H
	DW	03e0H
	DW	03e0H
	DW	03e0H
	DW	03e0H
	DW	03e0H
	DW	03e0H
	DW	03e0H
	DW	03e0H
	DW	03e0H
	DW	03e0H
	DW	03e0H
	DW	03e0H
	DW	03e0H
	DW	03e0H
	DW	03e0H
	DW	03e0H
	DW	03e0H
	DW	03e0H
	DW	03e0H
	DW	03e0H
	DW	03e0H
	DW	03e0H
	DW	03e0H
	DW	03e0H
	DW	03e0H
	DW	03e0H
	DW	03e0H
	DW	03e0H
	DW	03e0H
	DW	03e0H
	DW	03e0H
	DW	03e0H
	DW	03e0H
	DW	03e0H
	DW	03e0H
	DW	03e0H
	DW	03e0H
	DW	03e0H
	DW	03e0H
	DW	03e0H
	DW	03e0H
	DW	03e0H
	DW	03e0H
	DW	03e0H
	DW	03e0H
	DW	03e0H
	DW	03e0H
	DW	03e0H
	DW	03e0H
	DW	0240H
	DW	01324H
	DW	0be2H
	DW	03e0H
	DW	03e0H
	DW	03e0H
	DW	03e0H
	DW	03e0H
	DW	03e0H
	DW	03e0H
	DW	03e0H
	DW	03e0H
	DW	03e0H
	DW	03e0H
	DW	03e0H
	DW	03e0H
	DW	03e0H
	DW	03e0H
	DW	03e0H
	DW	03e0H
	DW	03e0H
	DW	03e0H
	DW	03e0H
	DW	03e0H
	DW	03e0H
	DW	03e0H
	DW	03e0H
	DW	03e0H
	DW	03e0H
	DW	03e0H
	DW	03e0H
	DW	03e0H
	DW	03e0H
	DW	03e0H
	DW	03e0H
	DW	03e0H
	DW	03e0H
	DW	03e0H
	DW	03e0H
	DW	03e0H
	DW	03e0H
	DW	03e0H
	DW	03e0H
	DW	03e0H
	DW	03e0H
	DW	03e0H
	DW	03e0H
	DW	03e0H
	DW	03e0H
	DW	03e0H
	DW	03e0H
	DW	03e0H
	DW	03e0H
	DW	03e0H
	DW	03e0H
	DW	03e0H
	DW	03e0H
	DW	03e0H
	DW	03e0H
	DW	03e0H
	DW	03e0H
	DW	03e0H
	DW	03e0H
	DW	03e0H
	DW	03e0H
	DW	03e0H
	DW	03e0H
	DW	03e0H
	DW	03e0H
	DW	03e0H
	DW	03e0H
	DW	03e0H
	DW	03e0H
	DW	03e0H
	DW	03e0H
	DW	03e0H
	DW	03e0H
	DW	03e0H
	DW	03e0H
	DW	03e0H
	DW	03e0H
	DW	03e0H
	DW	03e0H
	DW	03e0H
	DW	03e0H
	DW	03e0H
	DW	03e0H
	DW	03e0H
	DW	03e0H
	DW	03e0H
	DW	03e0H
	DW	03e0H
	DW	03e0H
	DW	03e0H
	DW	03e0H
	DW	03e0H
	DW	03e0H
	DW	03e0H
	DW	03e0H
	DW	03e0H
	DW	03e0H
	DW	03e0H
	DW	03e0H
	DW	03e0H
	DW	03e0H
	DW	03e0H
	DW	03e0H
	DW	03e0H
	DW	03e0H
	DW	0240H
	DW	01324H
	DW	0be2H
	DW	03e0H
	DW	03e0H
	DW	03e0H
	DW	03e0H
	DW	03e0H
	DW	03e0H
	DW	03e0H
	DW	03e0H
	DW	03e0H
	DW	03e0H
	DW	03e0H
	DW	03e0H
	DW	03e0H
	DW	03e0H
	DW	03e0H
	DW	03e0H
	DW	03e0H
	DW	03e0H
	DW	03e0H
	DW	03e0H
	DW	03e0H
	DW	03e0H
	DW	03e0H
	DW	03e0H
	DW	03e0H
	DW	03e0H
	DW	03e0H
	DW	03e0H
	DW	03e0H
	DW	03e0H
	DW	03e0H
	DW	03e0H
	DW	03e0H
	DW	03e0H
	DW	03e0H
	DW	03e0H
	DW	03e0H
	DW	03e0H
	DW	03e0H
	DW	03e0H
	DW	03e0H
	DW	03e0H
	DW	03e0H
	DW	03e0H
	DW	03e0H
	DW	03e0H
	DW	03e0H
	DW	03e0H
	DW	03e0H
	DW	03e0H
	DW	03e0H
	DW	03e0H
	DW	03e0H
	DW	03e0H
	DW	03e0H
	DW	03e0H
	DW	03e0H
	DW	03e0H
	DW	03e0H
	DW	03e0H
	DW	03e0H
	DW	03e0H
	DW	03e0H
	DW	03e0H
	DW	03e0H
	DW	03e0H
	DW	03e0H
	DW	03e0H
	DW	03e0H
	DW	03e0H
	DW	03e0H
	DW	03e0H
	DW	03e0H
	DW	03e0H
	DW	03e0H
	DW	03e0H
	DW	03e0H
	DW	03e0H
	DW	03e0H
	DW	03e0H
	DW	03e0H
	DW	03e0H
	DW	03e0H
	DW	03e0H
	DW	03e0H
	DW	03e0H
	DW	03e0H
	DW	03e0H
	DW	03e0H
	DW	03e0H
	DW	03e0H
	DW	03e0H
	DW	03e0H
	DW	03e0H
	DW	03e0H
	DW	03e0H
	DW	03e0H
	DW	03e0H
	DW	03e0H
	DW	03e0H
	DW	03e0H
	DW	03e0H
	DW	03e0H
	DW	03e0H
	DW	03e0H
	DW	03e0H
	DW	0240H
	DW	01324H
	DW	0be2H
	DW	03e0H
	DW	03e0H
	DW	03e0H
	DW	03e0H
	DW	03e0H
	DW	03e0H
	DW	03e0H
	DW	03e0H
	DW	03e0H
	DW	03e0H
	DW	03e0H
	DW	03e0H
	DW	03e0H
	DW	03e0H
	DW	03e0H
	DW	03e0H
	DW	03e0H
	DW	03e0H
	DW	03e0H
	DW	03e0H
	DW	03e0H
	DW	03e0H
	DW	03e0H
	DW	03e0H
	DW	03e0H
	DW	03e0H
	DW	03e0H
	DW	03e0H
	DW	03e0H
	DW	03e0H
	DW	03e0H
	DW	03e0H
	DW	03e0H
	DW	03e0H
	DW	03e0H
	DW	03e0H
	DW	03e0H
	DW	03e0H
	DW	03e0H
	DW	03e0H
	DW	03e0H
	DW	03e0H
	DW	03e0H
	DW	03e0H
	DW	03e0H
	DW	03e0H
	DW	03e0H
	DW	03e0H
	DW	03e0H
	DW	03e0H
	DW	03e0H
	DW	03e0H
	DW	03e0H
	DW	03e0H
	DW	03e0H
	DW	03e0H
	DW	03e0H
	DW	03e0H
	DW	03e0H
	DW	03e0H
	DW	03e0H
	DW	03e0H
	DW	03e0H
	DW	03e0H
	DW	03e0H
	DW	03e0H
	DW	03e0H
	DW	03e0H
	DW	03e0H
	DW	03e0H
	DW	03e0H
	DW	03e0H
	DW	03e0H
	DW	03e0H
	DW	03e0H
	DW	03e0H
	DW	03e0H
	DW	03e0H
	DW	03e0H
	DW	03e0H
	DW	03e0H
	DW	03e0H
	DW	03e0H
	DW	03e0H
	DW	03e0H
	DW	03e0H
	DW	03e0H
	DW	03e0H
	DW	03e0H
	DW	03e0H
	DW	03e0H
	DW	03e0H
	DW	03e0H
	DW	03e0H
	DW	03e0H
	DW	03e0H
	DW	03e0H
	DW	03e0H
	DW	03e0H
	DW	03e0H
	DW	03e0H
	DW	03e0H
	DW	03e0H
	DW	03e0H
	DW	03e0H
	DW	03e0H
	DW	0240H
	DW	01324H
	DW	0be2H
	DW	03e0H
	DW	03e0H
	DW	03e0H
	DW	03e0H
	DW	03e0H
	DW	03e0H
	DW	03e0H
	DW	03e0H
	DW	03e0H
	DW	03e0H
	DW	03e0H
	DW	03e0H
	DW	03e0H
	DW	03e0H
	DW	03e0H
	DW	03e0H
	DW	03e0H
	DW	03e0H
	DW	03e0H
	DW	03e0H
	DW	03e0H
	DW	03e0H
	DW	03e0H
	DW	03e0H
	DW	03e0H
	DW	03e0H
	DW	03e0H
	DW	03e0H
	DW	03e0H
	DW	03e0H
	DW	03e0H
	DW	03e0H
	DW	03e0H
	DW	03e0H
	DW	03e0H
	DW	03e0H
	DW	03e0H
	DW	03e0H
	DW	03e0H
	DW	03e0H
	DW	03e0H
	DW	03e0H
	DW	03e0H
	DW	03e0H
	DW	03e0H
	DW	03e0H
	DW	03e0H
	DW	03e0H
	DW	03e0H
	DW	03e0H
	DW	03e0H
	DW	03e0H
	DW	03e0H
	DW	03e0H
	DW	03e0H
	DW	03e0H
	DW	03e0H
	DW	03e0H
	DW	03e0H
	DW	03e0H
	DW	03e0H
	DW	03e0H
	DW	03e0H
	DW	03e0H
	DW	03e0H
	DW	03e0H
	DW	03e0H
	DW	03e0H
	DW	03e0H
	DW	03e0H
	DW	03e0H
	DW	03e0H
	DW	03e0H
	DW	03e0H
	DW	03e0H
	DW	03e0H
	DW	03e0H
	DW	03e0H
	DW	03e0H
	DW	03e0H
	DW	03e0H
	DW	03e0H
	DW	03e0H
	DW	03e0H
	DW	03e0H
	DW	03e0H
	DW	03e0H
	DW	03e0H
	DW	03e0H
	DW	03e0H
	DW	03e0H
	DW	03e0H
	DW	03e0H
	DW	03e0H
	DW	03e0H
	DW	03e0H
	DW	03e0H
	DW	03e0H
	DW	03e0H
	DW	03e0H
	DW	03e0H
	DW	03e0H
	DW	03e0H
	DW	03e0H
	DW	03e0H
	DW	03e0H
	DW	0240H
	DW	01324H
	DW	0be2H
	DW	03e0H
	DW	03e0H
	DW	03e0H
	DW	03e0H
	DW	03e0H
	DW	03e0H
	DW	03e0H
	DW	03e0H
	DW	03e0H
	DW	03e0H
	DW	03e0H
	DW	03e0H
	DW	03e0H
	DW	03e0H
	DW	03e0H
	DW	03e0H
	DW	03e0H
	DW	03e0H
	DW	03e0H
	DW	03e0H
	DW	03e0H
	DW	03e0H
	DW	03e0H
	DW	03e0H
	DW	03e0H
	DW	03e0H
	DW	03e0H
	DW	03e0H
	DW	03e0H
	DW	03e0H
	DW	03e0H
	DW	03e0H
	DW	03e0H
	DW	03e0H
	DW	03e0H
	DW	03e0H
	DW	03e0H
	DW	03e0H
	DW	03e0H
	DW	03e0H
	DW	03e0H
	DW	03e0H
	DW	03e0H
	DW	03e0H
	DW	03e0H
	DW	03e0H
	DW	03e0H
	DW	03e0H
	DW	03e0H
	DW	03e0H
	DW	03e0H
	DW	03e0H
	DW	03e0H
	DW	03e0H
	DW	03e0H
	DW	03e0H
	DW	03e0H
	DW	03e0H
	DW	03e0H
	DW	03e0H
	DW	03e0H
	DW	03e0H
	DW	03e0H
	DW	03e0H
	DW	03e0H
	DW	03e0H
	DW	03e0H
	DW	03e0H
	DW	03e0H
	DW	03e0H
	DW	03e0H
	DW	03e0H
	DW	03e0H
	DW	03e0H
	DW	03e0H
	DW	03e0H
	DW	03e0H
	DW	03e0H
	DW	03e0H
	DW	03e0H
	DW	03e0H
	DW	03e0H
	DW	03e0H
	DW	03e0H
	DW	03e0H
	DW	03e0H
	DW	03e0H
	DW	03e0H
	DW	03e0H
	DW	03e0H
	DW	03e0H
	DW	03e0H
	DW	03e0H
	DW	03e0H
	DW	03e0H
	DW	03e0H
	DW	03e0H
	DW	03e0H
	DW	03e0H
	DW	03e0H
	DW	03e0H
	DW	03e0H
	DW	03e0H
	DW	03e0H
	DW	03e0H
	DW	03e0H
	DW	0240H
	DW	01324H
	DW	0be2H
	DW	03e0H
	DW	03e0H
	DW	03e0H
	DW	03e0H
	DW	03e0H
	DW	03e0H
	DW	03e0H
	DW	03e0H
	DW	03e0H
	DW	03e0H
	DW	03e0H
	DW	03e0H
	DW	03e0H
	DW	03e0H
	DW	03e0H
	DW	03e0H
	DW	03e0H
	DW	03e0H
	DW	03e0H
	DW	03e0H
	DW	03e0H
	DW	03e0H
	DW	03e0H
	DW	03e0H
	DW	03e0H
	DW	03e0H
	DW	03e0H
	DW	03e0H
	DW	03e0H
	DW	03e0H
	DW	03e0H
	DW	03e0H
	DW	03e0H
	DW	03e0H
	DW	03e0H
	DW	03e0H
	DW	03e0H
	DW	03e0H
	DW	03e0H
	DW	03e0H
	DW	03e0H
	DW	03e0H
	DW	03e0H
	DW	03e0H
	DW	03e0H
	DW	03e0H
	DW	03e0H
	DW	03e0H
	DW	03e0H
	DW	03e0H
	DW	03e0H
	DW	03e0H
	DW	03e0H
	DW	03e0H
	DW	03e0H
	DW	03e0H
	DW	03e0H
	DW	03e0H
	DW	03e0H
	DW	03e0H
	DW	03e0H
	DW	03e0H
	DW	03e0H
	DW	03e0H
	DW	03e0H
	DW	03e0H
	DW	03e0H
	DW	03e0H
	DW	03e0H
	DW	03e0H
	DW	03e0H
	DW	03e0H
	DW	03e0H
	DW	03e0H
	DW	03e0H
	DW	03e0H
	DW	03e0H
	DW	03e0H
	DW	03e0H
	DW	03e0H
	DW	03e0H
	DW	03e0H
	DW	03e0H
	DW	03e0H
	DW	03e0H
	DW	03e0H
	DW	03e0H
	DW	03e0H
	DW	03e0H
	DW	03e0H
	DW	03e0H
	DW	03e0H
	DW	03e0H
	DW	03e0H
	DW	03e0H
	DW	03e0H
	DW	03e0H
	DW	03e0H
	DW	03e0H
	DW	03e0H
	DW	03e0H
	DW	03e0H
	DW	03e0H
	DW	03e0H
	DW	03e0H
	DW	03e0H
	DW	0240H
	DW	01324H
	DW	0be2H
	DW	03e0H
	DW	03e0H
	DW	03e0H
	DW	03e0H
	DW	03e0H
	DW	03e0H
	DW	03e0H
	DW	03e0H
	DW	03e0H
	DW	03e0H
	DW	03e0H
	DW	03e0H
	DW	03e0H
	DW	03e0H
	DW	03e0H
	DW	03e0H
	DW	03e0H
	DW	03e0H
	DW	03e0H
	DW	03e0H
	DW	03e0H
	DW	03e0H
	DW	03e0H
	DW	03e0H
	DW	03e0H
	DW	03e0H
	DW	03e0H
	DW	03e0H
	DW	03e0H
	DW	03e0H
	DW	03e0H
	DW	03e0H
	DW	03e0H
	DW	03e0H
	DW	03e0H
	DW	03e0H
	DW	03e0H
	DW	03e0H
	DW	03e0H
	DW	03e0H
	DW	03e0H
	DW	03e0H
	DW	03e0H
	DW	03e0H
	DW	03e0H
	DW	03e0H
	DW	03e0H
	DW	03e0H
	DW	03e0H
	DW	03e0H
	DW	03e0H
	DW	03e0H
	DW	03e0H
	DW	03e0H
	DW	03e0H
	DW	03e0H
	DW	03e0H
	DW	03e0H
	DW	03e0H
	DW	03e0H
	DW	03e0H
	DW	03e0H
	DW	03e0H
	DW	03e0H
	DW	03e0H
	DW	03e0H
	DW	03e0H
	DW	03e0H
	DW	03e0H
	DW	03e0H
	DW	03e0H
	DW	03e0H
	DW	03e0H
	DW	03e0H
	DW	03e0H
	DW	03e0H
	DW	03e0H
	DW	03e0H
	DW	03e0H
	DW	03e0H
	DW	03e0H
	DW	03e0H
	DW	03e0H
	DW	03e0H
	DW	03e0H
	DW	03e0H
	DW	03e0H
	DW	03e0H
	DW	03e0H
	DW	03e0H
	DW	03e0H
	DW	03e0H
	DW	03e0H
	DW	03e0H
	DW	03e0H
	DW	03e0H
	DW	03e0H
	DW	03e0H
	DW	03e0H
	DW	03e0H
	DW	03e0H
	DW	03e0H
	DW	03e0H
	DW	03e0H
	DW	03e0H
	DW	03e0H
	DW	0240H
	DW	01324H
	DW	0be2H
	DW	03e0H
	DW	03e0H
	DW	03e0H
	DW	03e0H
	DW	03e0H
	DW	03e0H
	DW	03e0H
	DW	03e0H
	DW	03e0H
	DW	03e0H
	DW	03e0H
	DW	03e0H
	DW	03e0H
	DW	03e0H
	DW	03e0H
	DW	03e0H
	DW	03e0H
	DW	03e0H
	DW	03e0H
	DW	03e0H
	DW	03e0H
	DW	03e0H
	DW	03e0H
	DW	03e0H
	DW	03e0H
	DW	03e0H
	DW	03e0H
	DW	03e0H
	DW	03e0H
	DW	03e0H
	DW	03e0H
	DW	03e0H
	DW	03e0H
	DW	03e0H
	DW	03e0H
	DW	03e0H
	DW	03e0H
	DW	03e0H
	DW	03e0H
	DW	03e0H
	DW	03e0H
	DW	03e0H
	DW	03e0H
	DW	03e0H
	DW	03e0H
	DW	03e0H
	DW	03e0H
	DW	03e0H
	DW	03e0H
	DW	03e0H
	DW	03e0H
	DW	03e0H
	DW	03e0H
	DW	03e0H
	DW	03e0H
	DW	03e0H
	DW	03e0H
	DW	03e0H
	DW	03e0H
	DW	03e0H
	DW	03e0H
	DW	03e0H
	DW	03e0H
	DW	03e0H
	DW	03e0H
	DW	03e0H
	DW	03e0H
	DW	03e0H
	DW	03e0H
	DW	03e0H
	DW	03e0H
	DW	03e0H
	DW	03e0H
	DW	03e0H
	DW	03e0H
	DW	03e0H
	DW	03e0H
	DW	03e0H
	DW	03e0H
	DW	03e0H
	DW	03e0H
	DW	03e0H
	DW	03e0H
	DW	03e0H
	DW	03e0H
	DW	03e0H
	DW	03e0H
	DW	03e0H
	DW	03e0H
	DW	03e0H
	DW	03e0H
	DW	03e0H
	DW	03e0H
	DW	03e0H
	DW	03e0H
	DW	03e0H
	DW	03e0H
	DW	03e0H
	DW	03e0H
	DW	03e0H
	DW	03e0H
	DW	03e0H
	DW	03e0H
	DW	03e0H
	DW	03e0H
	DW	03e0H
	DW	0240H
	DW	01324H
	DW	0be2H
	DW	03e0H
	DW	03e0H
	DW	03e0H
	DW	03e0H
	DW	03e0H
	DW	03e0H
	DW	03e0H
	DW	03e0H
	DW	03e0H
	DW	03e0H
	DW	03e0H
	DW	03e0H
	DW	03e0H
	DW	03e0H
	DW	03e0H
	DW	03e0H
	DW	03e0H
	DW	03e0H
	DW	03e0H
	DW	03e0H
	DW	03e0H
	DW	03e0H
	DW	03e0H
	DW	03e0H
	DW	03e0H
	DW	03e0H
	DW	03e0H
	DW	03e0H
	DW	03e0H
	DW	03e0H
	DW	03e0H
	DW	03e0H
	DW	03e0H
	DW	03e0H
	DW	03e0H
	DW	03e0H
	DW	03e0H
	DW	03e0H
	DW	03e0H
	DW	03e0H
	DW	03e0H
	DW	03e0H
	DW	03e0H
	DW	03e0H
	DW	03e0H
	DW	03e0H
	DW	03e0H
	DW	03e0H
	DW	03e0H
	DW	03e0H
	DW	03e0H
	DW	03e0H
	DW	03e0H
	DW	03e0H
	DW	03e0H
	DW	03e0H
	DW	03e0H
	DW	03e0H
	DW	03e0H
	DW	03e0H
	DW	03e0H
	DW	03e0H
	DW	03e0H
	DW	03e0H
	DW	03e0H
	DW	03e0H
	DW	03e0H
	DW	03e0H
	DW	03e0H
	DW	03e0H
	DW	03e0H
	DW	03e0H
	DW	03e0H
	DW	03e0H
	DW	03e0H
	DW	03e0H
	DW	03e0H
	DW	03e0H
	DW	03e0H
	DW	03e0H
	DW	03e0H
	DW	03e0H
	DW	03e0H
	DW	03e0H
	DW	03e0H
	DW	03e0H
	DW	03e0H
	DW	03e0H
	DW	03e0H
	DW	03e0H
	DW	03e0H
	DW	03e0H
	DW	03e0H
	DW	03e0H
	DW	03e0H
	DW	03e0H
	DW	03e0H
	DW	03e0H
	DW	03e0H
	DW	03e0H
	DW	03e0H
	DW	03e0H
	DW	03e0H
	DW	03e0H
	DW	03e0H
	DW	03e0H
	DW	0240H
	DW	01324H
	DW	0be2H
	DW	03e0H
	DW	03e0H
	DW	03e0H
	DW	03e0H
	DW	03e0H
	DW	03e0H
	DW	03e0H
	DW	03e0H
	DW	03e0H
	DW	03e0H
	DW	03e0H
	DW	03e0H
	DW	03e0H
	DW	03e0H
	DW	03e0H
	DW	03e0H
	DW	03e0H
	DW	03e0H
	DW	03e0H
	DW	03e0H
	DW	03e0H
	DW	03e0H
	DW	03e0H
	DW	03e0H
	DW	03e0H
	DW	03e0H
	DW	03e0H
	DW	03e0H
	DW	03e0H
	DW	03e0H
	DW	03e0H
	DW	03e0H
	DW	03e0H
	DW	03e0H
	DW	03e0H
	DW	03e0H
	DW	03e0H
	DW	03e0H
	DW	03e0H
	DW	03e0H
	DW	03e0H
	DW	03e0H
	DW	03e0H
	DW	03e0H
	DW	03e0H
	DW	03e0H
	DW	03e0H
	DW	03e0H
	DW	03e0H
	DW	03e0H
	DW	03e0H
	DW	03e0H
	DW	03e0H
	DW	03e0H
	DW	03e0H
	DW	03e0H
	DW	03e0H
	DW	03e0H
	DW	03e0H
	DW	03e0H
	DW	03e0H
	DW	03e0H
	DW	03e0H
	DW	03e0H
	DW	03e0H
	DW	03e0H
	DW	03e0H
	DW	03e0H
	DW	03e0H
	DW	03e0H
	DW	03e0H
	DW	03e0H
	DW	03e0H
	DW	03e0H
	DW	03e0H
	DW	03e0H
	DW	03e0H
	DW	03e0H
	DW	03e0H
	DW	03e0H
	DW	03e0H
	DW	03e0H
	DW	03e0H
	DW	03e0H
	DW	03e0H
	DW	03e0H
	DW	03e0H
	DW	03e0H
	DW	03e0H
	DW	03e0H
	DW	03e0H
	DW	03e0H
	DW	03e0H
	DW	03e0H
	DW	03e0H
	DW	03e0H
	DW	03e0H
	DW	03e0H
	DW	03e0H
	DW	03e0H
	DW	03e0H
	DW	03e0H
	DW	03e0H
	DW	03e0H
	DW	03e0H
	DW	03e0H
	DW	0240H
	DW	01324H
	DW	0be2H
	DW	03e0H
	DW	03e0H
	DW	03e0H
	DW	03e0H
	DW	03e0H
	DW	03e0H
	DW	03e0H
	DW	03e0H
	DW	03e0H
	DW	03e0H
	DW	03e0H
	DW	03e0H
	DW	03e0H
	DW	03e0H
	DW	03e0H
	DW	03e0H
	DW	03e0H
	DW	03e0H
	DW	03e0H
	DW	03e0H
	DW	03e0H
	DW	03e0H
	DW	03e0H
	DW	03e0H
	DW	03e0H
	DW	03e0H
	DW	03e0H
	DW	03e0H
	DW	03e0H
	DW	03e0H
	DW	03e0H
	DW	03e0H
	DW	03e0H
	DW	03e0H
	DW	03e0H
	DW	03e0H
	DW	03e0H
	DW	03e0H
	DW	03e0H
	DW	03e0H
	DW	03e0H
	DW	03e0H
	DW	03e0H
	DW	03e0H
	DW	03e0H
	DW	03e0H
	DW	03e0H
	DW	03e0H
	DW	03e0H
	DW	03e0H
	DW	03e0H
	DW	03e0H
	DW	03e0H
	DW	03e0H
	DW	03e0H
	DW	03e0H
	DW	03e0H
	DW	03e0H
	DW	03e0H
	DW	03e0H
	DW	03e0H
	DW	03e0H
	DW	03e0H
	DW	03e0H
	DW	03e0H
	DW	03e0H
	DW	03e0H
	DW	03e0H
	DW	03e0H
	DW	03e0H
	DW	03e0H
	DW	03e0H
	DW	03e0H
	DW	03e0H
	DW	03e0H
	DW	03e0H
	DW	03e0H
	DW	03e0H
	DW	03e0H
	DW	03e0H
	DW	03e0H
	DW	03e0H
	DW	03e0H
	DW	03e0H
	DW	03e0H
	DW	03e0H
	DW	03e0H
	DW	03e0H
	DW	03e0H
	DW	03e0H
	DW	03e0H
	DW	03e0H
	DW	03e0H
	DW	03e0H
	DW	03e0H
	DW	03e0H
	DW	03e0H
	DW	03e0H
	DW	03e0H
	DW	03e0H
	DW	03e0H
	DW	03e0H
	DW	03e0H
	DW	03e0H
	DW	03e0H
	DW	03e0H
	DW	0240H
	DW	01324H
	DW	0be2H
	DW	03e0H
	DW	03e0H
	DW	03e0H
	DW	03e0H
	DW	03e0H
	DW	03e0H
	DW	03e0H
	DW	03e0H
	DW	03e0H
	DW	03e0H
	DW	03e0H
	DW	03e0H
	DW	03e0H
	DW	03e0H
	DW	03e0H
	DW	03e0H
	DW	03e0H
	DW	03e0H
	DW	03e0H
	DW	03e0H
	DW	03e0H
	DW	03e0H
	DW	03e0H
	DW	03e0H
	DW	03e0H
	DW	03e0H
	DW	03e0H
	DW	03e0H
	DW	03e0H
	DW	03e0H
	DW	03e0H
	DW	03e0H
	DW	03e0H
	DW	03e0H
	DW	03e0H
	DW	03e0H
	DW	03e0H
	DW	03e0H
	DW	03e0H
	DW	03e0H
	DW	03e0H
	DW	03e0H
	DW	03e0H
	DW	03e0H
	DW	03e0H
	DW	03e0H
	DW	03e0H
	DW	03e0H
	DW	03e0H
	DW	03e0H
	DW	03e0H
	DW	03e0H
	DW	03e0H
	DW	03e0H
	DW	03e0H
	DW	03e0H
	DW	03e0H
	DW	03e0H
	DW	03e0H
	DW	03e0H
	DW	03e0H
	DW	03e0H
	DW	03e0H
	DW	03e0H
	DW	03e0H
	DW	03e0H
	DW	03e0H
	DW	03e0H
	DW	03e0H
	DW	03e0H
	DW	03e0H
	DW	03e0H
	DW	03e0H
	DW	03e0H
	DW	03e0H
	DW	03e0H
	DW	03e0H
	DW	03e0H
	DW	03e0H
	DW	03e0H
	DW	03e0H
	DW	03e0H
	DW	03e0H
	DW	03e0H
	DW	03e0H
	DW	03e0H
	DW	03e0H
	DW	03e0H
	DW	03e0H
	DW	03e0H
	DW	03e0H
	DW	03e0H
	DW	03e0H
	DW	03e0H
	DW	03e0H
	DW	03e0H
	DW	03e0H
	DW	03e0H
	DW	03e0H
	DW	03e0H
	DW	03e0H
	DW	03e0H
	DW	03e0H
	DW	03e0H
	DW	03e0H
	DW	03e0H
	DW	0240H
	DW	01324H
	DW	0be2H
	DW	03e0H
	DW	03e0H
	DW	03e0H
	DW	03e0H
	DW	03e0H
	DW	03e0H
	DW	03e0H
	DW	03e0H
	DW	03e0H
	DW	03e0H
	DW	03e0H
	DW	03e0H
	DW	03e0H
	DW	03e0H
	DW	03e0H
	DW	03e0H
	DW	03e0H
	DW	03e0H
	DW	03e0H
	DW	03e0H
	DW	03e0H
	DW	03e0H
	DW	03e0H
	DW	03e0H
	DW	03e0H
	DW	03e0H
	DW	03e0H
	DW	03e0H
	DW	03e0H
	DW	03e0H
	DW	03e0H
	DW	03e0H
	DW	03e0H
	DW	03e0H
	DW	03e0H
	DW	03e0H
	DW	03e0H
	DW	03e0H
	DW	03e0H
	DW	03e0H
	DW	03e0H
	DW	03e0H
	DW	03e0H
	DW	03e0H
	DW	03e0H
	DW	03e0H
	DW	03e0H
	DW	03e0H
	DW	03e0H
	DW	03e0H
	DW	03e0H
	DW	03e0H
	DW	03e0H
	DW	03e0H
	DW	03e0H
	DW	03e0H
	DW	03e0H
	DW	03e0H
	DW	03e0H
	DW	03e0H
	DW	03e0H
	DW	03e0H
	DW	03e0H
	DW	03e0H
	DW	03e0H
	DW	03e0H
	DW	03e0H
	DW	03e0H
	DW	03e0H
	DW	03e0H
	DW	03e0H
	DW	03e0H
	DW	03e0H
	DW	03e0H
	DW	03e0H
	DW	03e0H
	DW	03e0H
	DW	03e0H
	DW	03e0H
	DW	03e0H
	DW	03e0H
	DW	03e0H
	DW	03e0H
	DW	03e0H
	DW	03e0H
	DW	03e0H
	DW	03e0H
	DW	03e0H
	DW	03e0H
	DW	03e0H
	DW	03e0H
	DW	03e0H
	DW	03e0H
	DW	03e0H
	DW	03e0H
	DW	03e0H
	DW	03e0H
	DW	03e0H
	DW	03e0H
	DW	03e0H
	DW	03e0H
	DW	03e0H
	DW	03e0H
	DW	03e0H
	DW	03e0H
	DW	03e0H
	DW	0240H
	DW	01324H
	DW	0be2H
	DW	03e0H
	DW	03e0H
	DW	03e0H
	DW	03e0H
	DW	03e0H
	DW	03e0H
	DW	03e0H
	DW	03e0H
	DW	03e0H
	DW	03e0H
	DW	03e0H
	DW	03e0H
	DW	03e0H
	DW	03e0H
	DW	03e0H
	DW	03e0H
	DW	03e0H
	DW	03e0H
	DW	03e0H
	DW	03e0H
	DW	03e0H
	DW	03e0H
	DW	03e0H
	DW	03e0H
	DW	03e0H
	DW	03e0H
	DW	03e0H
	DW	03e0H
	DW	03e0H
	DW	03e0H
	DW	03e0H
	DW	03e0H
	DW	03e0H
	DW	03e0H
	DW	03e0H
	DW	03e0H
	DW	03e0H
	DW	03e0H
	DW	03e0H
	DW	03e0H
	DW	03e0H
	DW	03e0H
	DW	03e0H
	DW	03e0H
	DW	03e0H
	DW	03e0H
	DW	03e0H
	DW	03e0H
	DW	03e0H
	DW	03e0H
	DW	03e0H
	DW	03e0H
	DW	03e0H
	DW	03e0H
	DW	03e0H
	DW	03e0H
	DW	03e0H
	DW	03e0H
	DW	03e0H
	DW	03e0H
	DW	03e0H
	DW	03e0H
	DW	03e0H
	DW	03e0H
	DW	03e0H
	DW	03e0H
	DW	03e0H
	DW	03e0H
	DW	03e0H
	DW	03e0H
	DW	03e0H
	DW	03e0H
	DW	03e0H
	DW	03e0H
	DW	03e0H
	DW	03e0H
	DW	03e0H
	DW	03e0H
	DW	03e0H
	DW	03e0H
	DW	03e0H
	DW	03e0H
	DW	03e0H
	DW	03e0H
	DW	03e0H
	DW	03e0H
	DW	03e0H
	DW	03e0H
	DW	03e0H
	DW	03e0H
	DW	03e0H
	DW	03e0H
	DW	03e0H
	DW	03e0H
	DW	03e0H
	DW	03e0H
	DW	03e0H
	DW	03e0H
	DW	03e0H
	DW	03e0H
	DW	03e0H
	DW	03e0H
	DW	03e0H
	DW	03e0H
	DW	03e0H
	DW	03e0H
	DW	0240H
	DW	01324H
	DW	0be2H
	DW	03e0H
	DW	03e0H
	DW	03e0H
	DW	03e0H
	DW	03e0H
	DW	03e0H
	DW	03e0H
	DW	03e0H
	DW	03e0H
	DW	03e0H
	DW	03e0H
	DW	03e0H
	DW	03e0H
	DW	03e0H
	DW	03e0H
	DW	03e0H
	DW	03e0H
	DW	03e0H
	DW	03e0H
	DW	03e0H
	DW	03e0H
	DW	03e0H
	DW	03e0H
	DW	03e0H
	DW	03e0H
	DW	03e0H
	DW	03e0H
	DW	03e0H
	DW	03e0H
	DW	03e0H
	DW	03e0H
	DW	03e0H
	DW	03e0H
	DW	03e0H
	DW	03e0H
	DW	03e0H
	DW	03e0H
	DW	03e0H
	DW	03e0H
	DW	03e0H
	DW	03e0H
	DW	03e0H
	DW	03e0H
	DW	03e0H
	DW	03e0H
	DW	03e0H
	DW	03e0H
	DW	03e0H
	DW	03e0H
	DW	03e0H
	DW	03e0H
	DW	03e0H
	DW	03e0H
	DW	03e0H
	DW	03e0H
	DW	03e0H
	DW	03e0H
	DW	03e0H
	DW	03e0H
	DW	03e0H
	DW	03e0H
	DW	03e0H
	DW	03e0H
	DW	03e0H
	DW	03e0H
	DW	03e0H
	DW	03e0H
	DW	03e0H
	DW	03e0H
	DW	03e0H
	DW	03e0H
	DW	03e0H
	DW	03e0H
	DW	03e0H
	DW	03e0H
	DW	03e0H
	DW	03e0H
	DW	03e0H
	DW	03e0H
	DW	03e0H
	DW	03e0H
	DW	03e0H
	DW	03e0H
	DW	03e0H
	DW	03e0H
	DW	03e0H
	DW	03e0H
	DW	03e0H
	DW	03e0H
	DW	03e0H
	DW	03e0H
	DW	03e0H
	DW	03e0H
	DW	03e0H
	DW	03e0H
	DW	03e0H
	DW	03e0H
	DW	03e0H
	DW	03e0H
	DW	03e0H
	DW	03e0H
	DW	03e0H
	DW	03e0H
	DW	03e0H
	DW	03e0H
	DW	03e0H
	DW	0240H
	DW	06e1H
	DW	07c1H
	DW	03c0H
	DW	03c0H
	DW	03c0H
	DW	03c0H
	DW	03c0H
	DW	03c0H
	DW	03c0H
	DW	03c0H
	DW	03c0H
	DW	03c0H
	DW	03c0H
	DW	03c0H
	DW	03c0H
	DW	03c0H
	DW	03c0H
	DW	03c0H
	DW	03c0H
	DW	03c0H
	DW	03c0H
	DW	03c0H
	DW	03c0H
	DW	03c0H
	DW	03c0H
	DW	03c0H
	DW	03c0H
	DW	03c0H
	DW	03c0H
	DW	03c0H
	DW	03c0H
	DW	03c0H
	DW	03c0H
	DW	03c0H
	DW	03c0H
	DW	03c0H
	DW	03c0H
	DW	03c0H
	DW	03c0H
	DW	03c0H
	DW	03c0H
	DW	03c0H
	DW	03c0H
	DW	03c0H
	DW	03c0H
	DW	03c0H
	DW	03c0H
	DW	03c0H
	DW	03c0H
	DW	03c0H
	DW	03c0H
	DW	03c0H
	DW	03c0H
	DW	03c0H
	DW	03c0H
	DW	03c0H
	DW	03c0H
	DW	03c0H
	DW	03c0H
	DW	03c0H
	DW	03c0H
	DW	03c0H
	DW	03c0H
	DW	03c0H
	DW	03c0H
	DW	03c0H
	DW	03c0H
	DW	03c0H
	DW	03c0H
	DW	03c0H
	DW	03c0H
	DW	03c0H
	DW	03c0H
	DW	03c0H
	DW	03c0H
	DW	03c0H
	DW	03c0H
	DW	03c0H
	DW	03c0H
	DW	03c0H
	DW	03c0H
	DW	03c0H
	DW	03c0H
	DW	03c0H
	DW	03c0H
	DW	03c0H
	DW	03c0H
	DW	03c0H
	DW	03c0H
	DW	03c0H
	DW	03c0H
	DW	03c0H
	DW	03c0H
	DW	03c0H
	DW	03c0H
	DW	03c0H
	DW	03c0H
	DW	03c0H
	DW	03c0H
	DW	03c0H
	DW	03c0H
	DW	03c0H
	DW	03c0H
	DW	03c0H
	DW	03c0H
	DW	03c0H
	DW	03c0H
	DW	03a0H
	DW	01c0H
	DW	0120H
	DW	02c0H
	DW	0340H
	DW	0380H
	DW	0380H
	DW	0380H
	DW	0380H
	DW	0380H
	DW	0380H
	DW	0380H
	DW	0380H
	DW	0380H
	DW	0380H
	DW	0380H
	DW	0380H
	DW	0380H
	DW	0380H
	DW	0380H
	DW	0380H
	DW	0380H
	DW	0380H
	DW	0380H
	DW	0380H
	DW	0380H
	DW	0380H
	DW	0380H
	DW	0380H
	DW	0380H
	DW	0380H
	DW	0380H
	DW	0380H
	DW	0380H
	DW	0380H
	DW	0380H
	DW	0380H
	DW	0380H
	DW	0380H
	DW	0380H
	DW	0380H
	DW	0380H
	DW	0380H
	DW	0380H
	DW	0380H
	DW	0380H
	DW	0380H
	DW	0380H
	DW	0380H
	DW	0380H
	DW	0380H
	DW	0380H
	DW	0380H
	DW	0380H
	DW	0380H
	DW	0380H
	DW	0380H
	DW	0380H
	DW	0380H
	DW	0380H
	DW	0380H
	DW	0380H
	DW	0380H
	DW	0380H
	DW	0380H
	DW	0380H
	DW	0380H
	DW	0380H
	DW	0380H
	DW	0380H
	DW	0380H
	DW	0380H
	DW	0380H
	DW	0380H
	DW	0380H
	DW	0380H
	DW	0380H
	DW	0380H
	DW	0380H
	DW	0380H
	DW	0380H
	DW	0380H
	DW	0380H
	DW	0380H
	DW	0380H
	DW	0380H
	DW	0380H
	DW	0380H
	DW	0380H
	DW	0380H
	DW	0380H
	DW	0380H
	DW	0380H
	DW	0380H
	DW	0380H
	DW	0380H
	DW	0380H
	DW	0380H
	DW	0380H
	DW	0380H
	DW	0380H
	DW	0380H
	DW	0380H
	DW	0380H
	DW	0380H
	DW	0380H
	DW	0380H
	DW	0380H
	DW	0340H
	DW	0260H
	DW	0a0H
	DW	00H
	DW	0c0H
	DW	0160H
	DW	01c0H
	DW	01c0H
	DW	01c0H
	DW	01c0H
	DW	01c0H
	DW	01c0H
	DW	01c0H
	DW	01c0H
	DW	01c0H
	DW	01c0H
	DW	01c0H
	DW	01c0H
	DW	01c0H
	DW	01c0H
	DW	01c0H
	DW	01c0H
	DW	01c0H
	DW	01c0H
	DW	01c0H
	DW	01c0H
	DW	01c0H
	DW	01c0H
	DW	01c0H
	DW	01c0H
	DW	01c0H
	DW	01c0H
	DW	01c0H
	DW	01c0H
	DW	01c0H
	DW	01c0H
	DW	01c0H
	DW	01c0H
	DW	01c0H
	DW	01c0H
	DW	01c0H
	DW	01c0H
	DW	01c0H
	DW	01c0H
	DW	01c0H
	DW	01c0H
	DW	01c0H
	DW	01c0H
	DW	01c0H
	DW	01c0H
	DW	01c0H
	DW	01c0H
	DW	01c0H
	DW	01c0H
	DW	01c0H
	DW	01c0H
	DW	01c0H
	DW	01c0H
	DW	01c0H
	DW	01c0H
	DW	01c0H
	DW	01c0H
	DW	01c0H
	DW	01c0H
	DW	01c0H
	DW	01c0H
	DW	01c0H
	DW	01c0H
	DW	01c0H
	DW	01c0H
	DW	01c0H
	DW	01c0H
	DW	01c0H
	DW	01c0H
	DW	01c0H
	DW	01c0H
	DW	01c0H
	DW	01c0H
	DW	01c0H
	DW	01c0H
	DW	01c0H
	DW	01c0H
	DW	01c0H
	DW	01c0H
	DW	01c0H
	DW	01c0H
	DW	01c0H
	DW	01c0H
	DW	01c0H
	DW	01c0H
	DW	01c0H
	DW	01c0H
	DW	01c0H
	DW	01c0H
	DW	01c0H
	DW	01c0H
	DW	01c0H
	DW	01c0H
	DW	01c0H
	DW	01c0H
	DW	01c0H
	DW	01c0H
	DW	01c0H
	DW	01c0H
	DW	01c0H
	DW	01c0H
	DW	01c0H
	DW	01c0H
	DW	01c0H
	DW	0140H
	DW	080H
	DW	00H
_bmSave	DW	06dH
	DW	028H
	DW	0daH
	DW	010H
	DD	FLAT:_acSave
	DD	00H
	DD	FLAT:_GUI_BitmapMethods555
CONST	ENDS
END
