; Listing generated by Microsoft (R) Optimizing Compiler Version 16.00.40219.01 

	TITLE	C:\DUII\DUII\Graphics\StartFinishText.c
	.686P
	.XMM
	include listing.inc
	.model	flat

INCLUDELIB LIBCMT
INCLUDELIB OLDNAMES

PUBLIC	_bmStartFinishText
CONST	SEGMENT
_ColorsStartFinishText DD 00H
	DD	0414141H
	DD	041fefeH
	DD	0222222H
	DD	03efafeH
	DD	0393939H
	DD	03e3e3eH
	DD	02c2c2cH
	DD	01c1c1cH
	DD	090909H
	DD	0161616H
	DD	03efefeH
	DD	03d3535H
	DD	050505H
	DD	0e0e0eH
	DD	0194142H
	DD	0121212H
	DD	0b0303H
	DD	0262626H
	DD	0313232H
	DD	0353535H
	DD	02a2a2aH
	DD	030bdc1H
	DD	0165456H
	DD	02aa4a7H
	DD	050000H
	DD	0124445H
	DD	0d1111H
	DD	031c4c8H
	DD	0130c0cH
	DD	0191414H
	DD	030c1c5H
	DD	03cf1f5H
	DD	044ffffH
	DD	0134b4cH
	DD	02aa5a8H
	DD	040b0bH
	DD	03df4f9H
	DD	0d3334H
	DD	01e7a7cH
	DD	0b2223H
	DD	03d3939H
	DD	032c8ccH
	DD	03ae9edH
	DD	03ceef2H
	DD	0c2a2bH
	DD	0113c3cH
	DD	01b6a6cH
	DD	038e2e5H
	DD	091b1bH
	DD	0151111H
	DD	02aa9acH
	DD	035d2d5H
	DD	0d0909H
	DD	028a1a4H
	DD	02cb1b5H
	DD	035d5d8H
	DD	03ae6eaH
	DD	0403d3dH
	DD	036d9ddH
	DD	03aedf1H
	DD	0211d1dH
	DD	02ebabdH
	DD	02ebcc0H
	DD	033cdd1H
	DD	038dde1H
	DD	0393535H
	DD	0196061H
	DD	0259496H
	DD	02cadb0H
	DD	010404H
	DD	051313H
	DD	0121a1bH
	DD	01c6264H
	DD	0217e81H
	DD	0248d90H
	DD	0249194H
	DD	0269698H
	DD	03df4f6H
	DD	0100404H
	DD	0e393aH
	DD	017595aH
	DD	0195c5eH
	DD	01d7274H
	DD	0218284H
	DD	0228688H
	DD	0279a9cH
	DD	0289da0H
	DD	02db6b9H
	DD	02ebcbeH
	DD	03ef8faH
	DD	071a1bH
	DD	0251e1eH
	DD	0112b2bH
	DD	0282525H
	DD	0352d2dH
	DD	0353232H
	DD	0194344H
	DD	0144e50H
	DD	0249092H
	DD	036dde1H
	DD	03cedefH
	DD	0180c0cH
	DD	0211a1aH
	DD	01d2c2dH
	DD	01e3536H
	DD	019393aH
	DD	01d393aH
	DD	02d2525H
	DD	0242828H
	DD	0144648H
	DD	0185859H
	DD	0185e60H
	DD	0196465H
	DD	01d6e70H
	DD	01d7071H
	DD	0208082H
	DD	027989bH
	DD	0269c9dH
	DD	02caaadH
	DD	02cb0b2H
	DD	02db5b6H
	DD	035d1d2H
	DD	03aeceeH
	DD	040fafdH
	DD	080807H
	DD	0102525H
	DD	0113234H
	DD	01d3031H
	DD	01c3c3dH
	DD	0322929H
	DD	03b3c3cH
	DD	0184445H
	DD	0195052H
	DD	0175758H
	DD	0196164H
	DD	01a6668H
	DD	0207a7cH
	DD	0207c7eH
	DD	0228586H
	DD	022888bH
	DD	02aa8aaH
	DD	02eb8baH
	DD	03ce9eaH
	DD	03df1f3H
	DD	0a0d0dH
	DD	0c0f10H
	DD	071718H
	DD	0271515H
	DD	02a1e1eH
	DD	0132f30H
	DD	0113232H
	DD	0103436H
	DD	0183131H
	DD	01e3738H
	DD	0183d3eH
	DD	0242222H
	DD	0252728H
	DD	0232a2aH
	DD	0312727H
	DD	0342b2aH
	DD	0342c2bH
	DD	0302f2fH
	DD	0393232H
	DD	0153f40H
	DD	01a3f40H
	DD	01a4d4eH
	DD	01c595bH
	DD	03f4040H
	DD	01e7476H
	DD	0207375H
	DD	0238a8cH
	DD	0248a8cH
	DD	0238c8eH
	DD	0248c8fH
	DD	0289d9fH
	DD	028a0a3H
	DD	02cacafH
	DD	030bbbeH
	DD	032d0d4H
	DD	036d4d5H
	DD	035e1e2H
	DD	035e1e5H
	DD	039e8ebH
	DD	03cebecH
	DD	03ceff4H
	DD	03ef7fcH
	DD	040f8faH
	DD	0d0c0bH
	DD	091718H
	DD	0171413H
	DD	0101314H
	DD	0121415H
	DD	01b1817H
	DD	0281717H
	DD	0241b1bH
	DD	0291b1bH
	DD	028201fH
	DD	0b2628H
	DD	0112020H
	DD	0152425H
	DD	0182121H
	DD	01f2424H
	DD	01a2e2eH
	DD	0f3738H
	DD	01c3334H
	DD	01d3b3cH
	DD	0222727H
	DD	0292222H
	DD	02d2423H
	DD	02f2a29H
	DD	0212f30H
	DD	0243031H
	DD	0223737H
	DD	02b3131H
	DD	02c3132H
	DD	02b3535H
	DD	02f3434H
	DD	03e3433H
	DD	03e3837H
	DD	0103f40H
	DD	01c4041H
	DD	01b4849H
	DD	01c4849H
	DD	01a4a4cH
	DD	01e5051H
	DD	01c5355H
	DD	0195557H
	DD	01e5657H
	DD	0195758H
	DD	01c6062H
	DD	01e7679H
	DD	01e7779H
	DD	0217272H
	DD	0207575H
	DD	022797aH
	DD	0444242H
	DD	01f8282H
	DD	0279da0H
	DD	027a2a5H
	DD	02bacadH
	DD	02bb2b5H
	DD	02bb5b9H
	DD	02fc5c9H
	DD	032c9caH
	DD	034c9ccH
	DD	033d3d3H
	DD	033d5d5H
	DD	033d4d9H
	DD	038dadbH
	DD	037dbe0H
	DD	036dfe4H
	DD	037e6e7H
	DD	038e7ecH
	DD	03bebf0H
	DD	03cf3f8H
_PalStartFinishText DD 0100H
	DB	00H
	ORG $+3
	DD	FLAT:_ColorsStartFinishText
_bmStartFinishText DW 0159H
	DW	023H
	DW	0159H
	DW	08H
	DD	FLAT:_acStartFinishText
	DD	FLAT:_PalStartFinishText
	ORG $+4
_acStartFinishText DB 03H
	DB	03H
	DB	03H
	DB	03H
	DB	03H
	DB	03H
	DB	03H
	DB	03H
	DB	03H
	DB	03H
	DB	03H
	DB	03H
	DB	03H
	DB	03H
	DB	03H
	DB	03H
	DB	03H
	DB	03H
	DB	03H
	DB	03H
	DB	03H
	DB	03H
	DB	03H
	DB	03H
	DB	03H
	DB	03H
	DB	03H
	DB	03H
	DB	03H
	DB	03H
	DB	03H
	DB	03H
	DB	03H
	DB	03H
	DB	03H
	DB	03H
	DB	03H
	DB	03H
	DB	03H
	DB	03H
	DB	03H
	DB	03H
	DB	03H
	DB	03H
	DB	03H
	DB	03H
	DB	03H
	DB	03H
	DB	03H
	DB	03H
	DB	03H
	DB	03H
	DB	03H
	DB	03H
	DB	03H
	DB	03H
	DB	03H
	DB	03H
	DB	03H
	DB	03H
	DB	03H
	DB	03H
	DB	03H
	DB	03H
	DB	03H
	DB	03H
	DB	03H
	DB	03H
	DB	03H
	DB	03H
	DB	03H
	DB	03H
	DB	03H
	DB	03H
	DB	03H
	DB	03H
	DB	03H
	DB	03H
	DB	03H
	DB	03H
	DB	03H
	DB	03H
	DB	03H
	DB	03H
	DB	03H
	DB	03H
	DB	03H
	DB	03H
	DB	03H
	DB	03H
	DB	03H
	DB	03H
	DB	03H
	DB	03H
	DB	03H
	DB	03H
	DB	03H
	DB	03H
	DB	03H
	DB	03H
	DB	03H
	DB	03H
	DB	03H
	DB	03H
	DB	03H
	DB	03H
	DB	03H
	DB	03H
	DB	03H
	DB	03H
	DB	03H
	DB	03H
	DB	03H
	DB	03H
	DB	03H
	DB	03H
	DB	03H
	DB	03H
	DB	03H
	DB	03H
	DB	03H
	DB	03H
	DB	03H
	DB	03H
	DB	03H
	DB	03H
	DB	03H
	DB	03H
	DB	03H
	DB	03H
	DB	03H
	DB	03H
	DB	03H
	DB	03H
	DB	03H
	DB	03H
	DB	03H
	DB	03H
	DB	03H
	DB	03H
	DB	03H
	DB	03H
	DB	03H
	DB	03H
	DB	03H
	DB	03H
	DB	03H
	DB	03H
	DB	03H
	DB	03H
	DB	03H
	DB	03H
	DB	03H
	DB	03H
	DB	03H
	DB	03H
	DB	03H
	DB	03H
	DB	03H
	DB	03H
	DB	03H
	DB	03H
	DB	03H
	DB	03H
	DB	03H
	DB	03H
	DB	03H
	DB	03H
	DB	03H
	DB	03H
	DB	03H
	DB	03H
	DB	03H
	DB	03H
	DB	03H
	DB	03H
	DB	03H
	DB	03H
	DB	03H
	DB	03H
	DB	03H
	DB	03H
	DB	03H
	DB	03H
	DB	03H
	DB	03H
	DB	03H
	DB	03H
	DB	03H
	DB	03H
	DB	03H
	DB	03H
	DB	03H
	DB	03H
	DB	03H
	DB	03H
	DB	03H
	DB	03H
	DB	03H
	DB	03H
	DB	03H
	DB	03H
	DB	03H
	DB	03H
	DB	03H
	DB	03H
	DB	03H
	DB	03H
	DB	03H
	DB	03H
	DB	03H
	DB	03H
	DB	03H
	DB	03H
	DB	03H
	DB	03H
	DB	03H
	DB	03H
	DB	03H
	DB	03H
	DB	03H
	DB	03H
	DB	03H
	DB	03H
	DB	03H
	DB	03H
	DB	03H
	DB	03H
	DB	03H
	DB	03H
	DB	03H
	DB	03H
	DB	03H
	DB	03H
	DB	03H
	DB	03H
	DB	03H
	DB	03H
	DB	03H
	DB	03H
	DB	03H
	DB	03H
	DB	03H
	DB	03H
	DB	03H
	DB	03H
	DB	03H
	DB	03H
	DB	03H
	DB	03H
	DB	03H
	DB	03H
	DB	03H
	DB	03H
	DB	03H
	DB	03H
	DB	03H
	DB	03H
	DB	03H
	DB	03H
	DB	03H
	DB	03H
	DB	03H
	DB	03H
	DB	03H
	DB	03H
	DB	03H
	DB	03H
	DB	03H
	DB	03H
	DB	03H
	DB	03H
	DB	03H
	DB	03H
	DB	03H
	DB	03H
	DB	03H
	DB	03H
	DB	03H
	DB	03H
	DB	03H
	DB	03H
	DB	03H
	DB	03H
	DB	03H
	DB	03H
	DB	03H
	DB	03H
	DB	03H
	DB	03H
	DB	03H
	DB	03H
	DB	03H
	DB	03H
	DB	03H
	DB	03H
	DB	03H
	DB	03H
	DB	03H
	DB	03H
	DB	03H
	DB	03H
	DB	03H
	DB	03H
	DB	03H
	DB	03H
	DB	03H
	DB	03H
	DB	03H
	DB	03H
	DB	03H
	DB	03H
	DB	03H
	DB	03H
	DB	03H
	DB	03H
	DB	03H
	DB	03H
	DB	03H
	DB	03H
	DB	03H
	DB	03H
	DB	03H
	DB	03H
	DB	03H
	DB	03H
	DB	03H
	DB	03H
	DB	03H
	DB	03H
	DB	03H
	DB	03H
	DB	03H
	DB	03H
	DB	03H
	DB	03H
	DB	03H
	DB	03H
	DB	03H
	DB	03H
	DB	03H
	DB	03H
	DB	03H
	DB	03H
	DB	03H
	DB	03H
	DB	03H
	DB	03H
	DB	03H
	DB	03H
	DB	03H
	DB	03H
	DB	03H
	DB	03H
	DB	03H
	DB	03H
	DB	03H
	DB	03H
	DB	03H
	DB	03H
	DB	03H
	DB	03H
	DB	03H
	DB	03H
	DB	03H
	DB	03H
	DB	03H
	DB	03H
	DB	03H
	DB	03H
	DB	03H
	DB	03H
	DB	03H
	DB	03H
	DB	03H
	DB	03H
	DB	03H
	DB	03H
	DB	03H
	DB	03H
	DB	03H
	DB	03H
	DB	03H
	DB	03H
	DB	03H
	DB	03H
	DB	03H
	DB	03H
	DB	03H
	DB	03H
	DB	03H
	DB	03H
	DB	03H
	DB	03H
	DB	03H
	DB	03H
	DB	03H
	DB	03H
	DB	03H
	DB	03H
	DB	03H
	DB	03H
	DB	03H
	DB	03H
	DB	03H
	DB	03H
	DB	03H
	DB	03H
	DB	03H
	DB	03H
	DB	03H
	DB	03H
	DB	03H
	DB	03H
	DB	03H
	DB	03H
	DB	03H
	DB	03H
	DB	03H
	DB	03H
	DB	03H
	DB	03H
	DB	03H
	DB	03H
	DB	03H
	DB	03H
	DB	03H
	DB	03H
	DB	03H
	DB	03H
	DB	03H
	DB	03H
	DB	03H
	DB	03H
	DB	03H
	DB	03H
	DB	03H
	DB	03H
	DB	03H
	DB	03H
	DB	03H
	DB	03H
	DB	03H
	DB	03H
	DB	03H
	DB	03H
	DB	03H
	DB	03H
	DB	03H
	DB	03H
	DB	03H
	DB	03H
	DB	03H
	DB	03H
	DB	03H
	DB	03H
	DB	03H
	DB	03H
	DB	03H
	DB	03H
	DB	03H
	DB	03H
	DB	03H
	DB	03H
	DB	03H
	DB	03H
	DB	03H
	DB	03H
	DB	03H
	DB	03H
	DB	03H
	DB	03H
	DB	03H
	DB	03H
	DB	03H
	DB	03H
	DB	03H
	DB	03H
	DB	03H
	DB	03H
	DB	03H
	DB	03H
	DB	03H
	DB	03H
	DB	03H
	DB	03H
	DB	03H
	DB	03H
	DB	03H
	DB	03H
	DB	03H
	DB	03H
	DB	03H
	DB	03H
	DB	03H
	DB	03H
	DB	03H
	DB	03H
	DB	03H
	DB	03H
	DB	03H
	DB	03H
	DB	03H
	DB	03H
	DB	03H
	DB	03H
	DB	03H
	DB	03H
	DB	03H
	DB	03H
	DB	03H
	DB	03H
	DB	03H
	DB	03H
	DB	03H
	DB	03H
	DB	03H
	DB	03H
	DB	03H
	DB	03H
	DB	03H
	DB	03H
	DB	03H
	DB	03H
	DB	03H
	DB	03H
	DB	03H
	DB	03H
	DB	03H
	DB	03H
	DB	03H
	DB	03H
	DB	03H
	DB	03H
	DB	03H
	DB	03H
	DB	03H
	DB	03H
	DB	03H
	DB	03H
	DB	03H
	DB	03H
	DB	03H
	DB	03H
	DB	03H
	DB	03H
	DB	03H
	DB	03H
	DB	03H
	DB	03H
	DB	03H
	DB	03H
	DB	03H
	DB	03H
	DB	03H
	DB	03H
	DB	03H
	DB	03H
	DB	03H
	DB	03H
	DB	03H
	DB	03H
	DB	03H
	DB	03H
	DB	03H
	DB	03H
	DB	03H
	DB	03H
	DB	03H
	DB	03H
	DB	03H
	DB	03H
	DB	03H
	DB	03H
	DB	03H
	DB	03H
	DB	03H
	DB	03H
	DB	03H
	DB	03H
	DB	03H
	DB	03H
	DB	03H
	DB	03H
	DB	03H
	DB	03H
	DB	03H
	DB	03H
	DB	03H
	DB	03H
	DB	03H
	DB	03H
	DB	03H
	DB	03H
	DB	03H
	DB	03H
	DB	03H
	DB	03H
	DB	03H
	DB	03H
	DB	03H
	DB	03H
	DB	03H
	DB	03H
	DB	03H
	DB	03H
	DB	03H
	DB	03H
	DB	03H
	DB	03H
	DB	03H
	DB	03H
	DB	03H
	DB	03H
	DB	03H
	DB	03H
	DB	03H
	DB	03H
	DB	03H
	DB	03H
	DB	03H
	DB	03H
	DB	03H
	DB	03H
	DB	03H
	DB	03H
	DB	03H
	DB	03H
	DB	03H
	DB	03H
	DB	03H
	DB	03H
	DB	03H
	DB	03H
	DB	03H
	DB	03H
	DB	03H
	DB	03H
	DB	03H
	DB	03H
	DB	03H
	DB	03H
	DB	03H
	DB	03H
	DB	03H
	DB	03H
	DB	03H
	DB	03H
	DB	03H
	DB	03H
	DB	03H
	DB	03H
	DB	03H
	DB	03H
	DB	03H
	DB	03H
	DB	03H
	DB	03H
	DB	03H
	DB	03H
	DB	03H
	DB	03H
	DB	03H
	DB	03H
	DB	03H
	DB	03H
	DB	03H
	DB	03H
	DB	03H
	DB	03H
	DB	03H
	DB	03H
	DB	03H
	DB	03H
	DB	03H
	DB	03H
	DB	03H
	DB	03H
	DB	03H
	DB	03H
	DB	03H
	DB	03H
	DB	03H
	DB	03H
	DB	03H
	DB	03H
	DB	03H
	DB	03H
	DB	03H
	DB	03H
	DB	07H
	DB	07H
	DB	07H
	DB	07H
	DB	07H
	DB	07H
	DB	07H
	DB	07H
	DB	07H
	DB	07H
	DB	07H
	DB	07H
	DB	07H
	DB	07H
	DB	07H
	DB	07H
	DB	07H
	DB	07H
	DB	07H
	DB	07H
	DB	07H
	DB	07H
	DB	07H
	DB	07H
	DB	07H
	DB	07H
	DB	07H
	DB	07H
	DB	07H
	DB	07H
	DB	07H
	DB	07H
	DB	07H
	DB	07H
	DB	07H
	DB	07H
	DB	07H
	DB	07H
	DB	07H
	DB	07H
	DB	07H
	DB	07H
	DB	07H
	DB	07H
	DB	07H
	DB	07H
	DB	07H
	DB	07H
	DB	07H
	DB	07H
	DB	07H
	DB	07H
	DB	07H
	DB	07H
	DB	07H
	DB	07H
	DB	07H
	DB	07H
	DB	07H
	DB	07H
	DB	07H
	DB	07H
	DB	07H
	DB	07H
	DB	07H
	DB	07H
	DB	07H
	DB	07H
	DB	07H
	DB	07H
	DB	07H
	DB	07H
	DB	07H
	DB	07H
	DB	07H
	DB	07H
	DB	07H
	DB	07H
	DB	07H
	DB	07H
	DB	07H
	DB	07H
	DB	07H
	DB	07H
	DB	07H
	DB	07H
	DB	07H
	DB	07H
	DB	07H
	DB	07H
	DB	07H
	DB	07H
	DB	07H
	DB	07H
	DB	07H
	DB	07H
	DB	07H
	DB	07H
	DB	07H
	DB	07H
	DB	07H
	DB	07H
	DB	07H
	DB	07H
	DB	07H
	DB	07H
	DB	07H
	DB	07H
	DB	07H
	DB	07H
	DB	07H
	DB	07H
	DB	07H
	DB	07H
	DB	07H
	DB	07H
	DB	07H
	DB	07H
	DB	07H
	DB	07H
	DB	07H
	DB	07H
	DB	07H
	DB	07H
	DB	07H
	DB	07H
	DB	07H
	DB	07H
	DB	07H
	DB	07H
	DB	07H
	DB	07H
	DB	07H
	DB	07H
	DB	07H
	DB	07H
	DB	07H
	DB	07H
	DB	07H
	DB	07H
	DB	07H
	DB	07H
	DB	07H
	DB	07H
	DB	07H
	DB	07H
	DB	07H
	DB	07H
	DB	07H
	DB	07H
	DB	07H
	DB	07H
	DB	07H
	DB	07H
	DB	07H
	DB	07H
	DB	07H
	DB	07H
	DB	07H
	DB	07H
	DB	07H
	DB	07H
	DB	07H
	DB	07H
	DB	07H
	DB	07H
	DB	07H
	DB	07H
	DB	07H
	DB	07H
	DB	07H
	DB	07H
	DB	07H
	DB	07H
	DB	07H
	DB	07H
	DB	07H
	DB	07H
	DB	07H
	DB	07H
	DB	07H
	DB	07H
	DB	07H
	DB	07H
	DB	07H
	DB	07H
	DB	07H
	DB	07H
	DB	07H
	DB	07H
	DB	07H
	DB	07H
	DB	07H
	DB	07H
	DB	07H
	DB	07H
	DB	07H
	DB	07H
	DB	07H
	DB	07H
	DB	07H
	DB	07H
	DB	07H
	DB	07H
	DB	07H
	DB	07H
	DB	07H
	DB	07H
	DB	07H
	DB	07H
	DB	07H
	DB	07H
	DB	07H
	DB	07H
	DB	07H
	DB	07H
	DB	07H
	DB	07H
	DB	07H
	DB	07H
	DB	07H
	DB	07H
	DB	07H
	DB	07H
	DB	07H
	DB	07H
	DB	07H
	DB	07H
	DB	07H
	DB	07H
	DB	07H
	DB	07H
	DB	07H
	DB	07H
	DB	07H
	DB	07H
	DB	07H
	DB	07H
	DB	07H
	DB	07H
	DB	07H
	DB	07H
	DB	07H
	DB	07H
	DB	07H
	DB	07H
	DB	07H
	DB	07H
	DB	07H
	DB	07H
	DB	07H
	DB	07H
	DB	07H
	DB	07H
	DB	07H
	DB	07H
	DB	07H
	DB	07H
	DB	07H
	DB	07H
	DB	07H
	DB	07H
	DB	07H
	DB	07H
	DB	07H
	DB	07H
	DB	07H
	DB	07H
	DB	07H
	DB	07H
	DB	07H
	DB	07H
	DB	07H
	DB	07H
	DB	07H
	DB	07H
	DB	07H
	DB	07H
	DB	07H
	DB	07H
	DB	07H
	DB	07H
	DB	07H
	DB	07H
	DB	07H
	DB	07H
	DB	07H
	DB	07H
	DB	07H
	DB	07H
	DB	07H
	DB	07H
	DB	07H
	DB	07H
	DB	07H
	DB	07H
	DB	07H
	DB	07H
	DB	07H
	DB	07H
	DB	07H
	DB	07H
	DB	07H
	DB	07H
	DB	07H
	DB	07H
	DB	07H
	DB	07H
	DB	07H
	DB	07H
	DB	07H
	DB	07H
	DB	07H
	DB	07H
	DB	07H
	DB	07H
	DB	07H
	DB	07H
	DB	07H
	DB	07H
	DB	07H
	DB	07H
	DB	07H
	DB	07H
	DB	07H
	DB	07H
	DB	07H
	DB	07H
	DB	07H
	DB	07H
	DB	07H
	DB	07H
	DB	07H
	DB	07H
	DB	07H
	DB	07H
	DB	07H
	DB	07H
	DB	07H
	DB	07H
	DB	07H
	DB	07H
	DB	07H
	DB	07H
	DB	07H
	DB	05H
	DB	05H
	DB	05H
	DB	05H
	DB	05H
	DB	05H
	DB	05H
	DB	05H
	DB	05H
	DB	05H
	DB	05H
	DB	05H
	DB	05H
	DB	05H
	DB	05H
	DB	05H
	DB	05H
	DB	05H
	DB	05H
	DB	05H
	DB	05H
	DB	05H
	DB	05H
	DB	05H
	DB	05H
	DB	05H
	DB	05H
	DB	05H
	DB	05H
	DB	05H
	DB	05H
	DB	05H
	DB	05H
	DB	05H
	DB	05H
	DB	05H
	DB	05H
	DB	05H
	DB	05H
	DB	05H
	DB	05H
	DB	05H
	DB	05H
	DB	05H
	DB	05H
	DB	05H
	DB	05H
	DB	05H
	DB	05H
	DB	05H
	DB	05H
	DB	05H
	DB	05H
	DB	05H
	DB	05H
	DB	05H
	DB	05H
	DB	05H
	DB	05H
	DB	05H
	DB	05H
	DB	05H
	DB	05H
	DB	05H
	DB	05H
	DB	05H
	DB	05H
	DB	05H
	DB	05H
	DB	05H
	DB	05H
	DB	05H
	DB	05H
	DB	05H
	DB	05H
	DB	05H
	DB	05H
	DB	05H
	DB	05H
	DB	05H
	DB	05H
	DB	05H
	DB	05H
	DB	05H
	DB	05H
	DB	05H
	DB	05H
	DB	05H
	DB	05H
	DB	05H
	DB	05H
	DB	05H
	DB	05H
	DB	05H
	DB	05H
	DB	05H
	DB	05H
	DB	05H
	DB	05H
	DB	05H
	DB	05H
	DB	05H
	DB	05H
	DB	05H
	DB	05H
	DB	05H
	DB	05H
	DB	05H
	DB	05H
	DB	05H
	DB	05H
	DB	05H
	DB	05H
	DB	05H
	DB	05H
	DB	05H
	DB	05H
	DB	05H
	DB	05H
	DB	05H
	DB	05H
	DB	05H
	DB	05H
	DB	05H
	DB	05H
	DB	05H
	DB	05H
	DB	05H
	DB	05H
	DB	05H
	DB	05H
	DB	05H
	DB	05H
	DB	05H
	DB	05H
	DB	05H
	DB	05H
	DB	05H
	DB	05H
	DB	05H
	DB	05H
	DB	05H
	DB	05H
	DB	05H
	DB	05H
	DB	05H
	DB	05H
	DB	05H
	DB	05H
	DB	05H
	DB	05H
	DB	05H
	DB	05H
	DB	05H
	DB	05H
	DB	05H
	DB	05H
	DB	05H
	DB	05H
	DB	05H
	DB	05H
	DB	05H
	DB	05H
	DB	05H
	DB	05H
	DB	05H
	DB	05H
	DB	05H
	DB	05H
	DB	05H
	DB	05H
	DB	05H
	DB	05H
	DB	05H
	DB	05H
	DB	05H
	DB	05H
	DB	05H
	DB	05H
	DB	05H
	DB	05H
	DB	05H
	DB	05H
	DB	05H
	DB	05H
	DB	05H
	DB	05H
	DB	05H
	DB	05H
	DB	05H
	DB	05H
	DB	05H
	DB	05H
	DB	05H
	DB	05H
	DB	05H
	DB	05H
	DB	05H
	DB	05H
	DB	05H
	DB	05H
	DB	05H
	DB	05H
	DB	05H
	DB	05H
	DB	05H
	DB	05H
	DB	05H
	DB	05H
	DB	05H
	DB	05H
	DB	05H
	DB	05H
	DB	05H
	DB	05H
	DB	05H
	DB	05H
	DB	05H
	DB	05H
	DB	05H
	DB	05H
	DB	05H
	DB	05H
	DB	05H
	DB	05H
	DB	05H
	DB	05H
	DB	05H
	DB	05H
	DB	05H
	DB	05H
	DB	05H
	DB	05H
	DB	05H
	DB	05H
	DB	05H
	DB	05H
	DB	05H
	DB	05H
	DB	05H
	DB	05H
	DB	05H
	DB	05H
	DB	05H
	DB	05H
	DB	05H
	DB	05H
	DB	05H
	DB	05H
	DB	05H
	DB	05H
	DB	05H
	DB	05H
	DB	05H
	DB	05H
	DB	05H
	DB	05H
	DB	05H
	DB	05H
	DB	05H
	DB	05H
	DB	05H
	DB	05H
	DB	05H
	DB	05H
	DB	05H
	DB	05H
	DB	05H
	DB	05H
	DB	05H
	DB	05H
	DB	05H
	DB	05H
	DB	05H
	DB	05H
	DB	05H
	DB	05H
	DB	05H
	DB	05H
	DB	05H
	DB	05H
	DB	05H
	DB	05H
	DB	05H
	DB	05H
	DB	05H
	DB	05H
	DB	05H
	DB	05H
	DB	05H
	DB	05H
	DB	05H
	DB	05H
	DB	05H
	DB	05H
	DB	05H
	DB	05H
	DB	05H
	DB	05H
	DB	05H
	DB	05H
	DB	05H
	DB	05H
	DB	05H
	DB	05H
	DB	05H
	DB	05H
	DB	05H
	DB	05H
	DB	05H
	DB	05H
	DB	05H
	DB	05H
	DB	05H
	DB	05H
	DB	05H
	DB	05H
	DB	05H
	DB	05H
	DB	05H
	DB	05H
	DB	05H
	DB	05H
	DB	05H
	DB	05H
	DB	05H
	DB	05H
	DB	05H
	DB	05H
	DB	05H
	DB	05H
	DB	05H
	DB	05H
	DB	05H
	DB	05H
	DB	05H
	DB	05H
	DB	05H
	DB	05H
	DB	05H
	DB	05H
	DB	05H
	DB	05H
	DB	05H
	DB	05H
	DB	01H
	DB	01H
	DB	01H
	DB	01H
	DB	01H
	DB	01H
	DB	01H
	DB	01H
	DB	01H
	DB	01H
	DB	01H
	DB	01H
	DB	01H
	DB	01H
	DB	01H
	DB	01H
	DB	01H
	DB	01H
	DB	01H
	DB	01H
	DB	01H
	DB	01H
	DB	01H
	DB	01H
	DB	01H
	DB	01H
	DB	01H
	DB	01H
	DB	01H
	DB	01H
	DB	01H
	DB	01H
	DB	01H
	DB	01H
	DB	01H
	DB	01H
	DB	01H
	DB	01H
	DB	01H
	DB	01H
	DB	01H
	DB	01H
	DB	01H
	DB	01H
	DB	01H
	DB	01H
	DB	01H
	DB	01H
	DB	01H
	DB	01H
	DB	01H
	DB	01H
	DB	01H
	DB	01H
	DB	01H
	DB	01H
	DB	01H
	DB	01H
	DB	01H
	DB	01H
	DB	01H
	DB	01H
	DB	01H
	DB	01H
	DB	01H
	DB	01H
	DB	01H
	DB	01H
	DB	01H
	DB	01H
	DB	01H
	DB	01H
	DB	01H
	DB	01H
	DB	01H
	DB	01H
	DB	01H
	DB	01H
	DB	01H
	DB	01H
	DB	01H
	DB	01H
	DB	01H
	DB	01H
	DB	01H
	DB	01H
	DB	01H
	DB	01H
	DB	01H
	DB	01H
	DB	01H
	DB	01H
	DB	01H
	DB	01H
	DB	01H
	DB	01H
	DB	01H
	DB	01H
	DB	01H
	DB	01H
	DB	01H
	DB	01H
	DB	01H
	DB	01H
	DB	01H
	DB	01H
	DB	01H
	DB	01H
	DB	01H
	DB	01H
	DB	01H
	DB	01H
	DB	01H
	DB	01H
	DB	01H
	DB	01H
	DB	01H
	DB	01H
	DB	01H
	DB	01H
	DB	01H
	DB	01H
	DB	01H
	DB	01H
	DB	01H
	DB	01H
	DB	01H
	DB	01H
	DB	01H
	DB	01H
	DB	01H
	DB	01H
	DB	01H
	DB	01H
	DB	01H
	DB	01H
	DB	01H
	DB	01H
	DB	01H
	DB	01H
	DB	01H
	DB	01H
	DB	01H
	DB	01H
	DB	01H
	DB	01H
	DB	01H
	DB	01H
	DB	01H
	DB	01H
	DB	01H
	DB	01H
	DB	01H
	DB	01H
	DB	01H
	DB	01H
	DB	01H
	DB	01H
	DB	01H
	DB	01H
	DB	01H
	DB	01H
	DB	01H
	DB	01H
	DB	01H
	DB	01H
	DB	01H
	DB	01H
	DB	01H
	DB	01H
	DB	01H
	DB	01H
	DB	01H
	DB	01H
	DB	01H
	DB	01H
	DB	01H
	DB	01H
	DB	01H
	DB	01H
	DB	01H
	DB	01H
	DB	01H
	DB	01H
	DB	01H
	DB	01H
	DB	01H
	DB	01H
	DB	01H
	DB	01H
	DB	01H
	DB	01H
	DB	01H
	DB	01H
	DB	01H
	DB	01H
	DB	01H
	DB	01H
	DB	01H
	DB	01H
	DB	01H
	DB	01H
	DB	01H
	DB	01H
	DB	01H
	DB	01H
	DB	01H
	DB	01H
	DB	01H
	DB	01H
	DB	01H
	DB	01H
	DB	01H
	DB	01H
	DB	01H
	DB	01H
	DB	01H
	DB	01H
	DB	01H
	DB	01H
	DB	01H
	DB	01H
	DB	01H
	DB	01H
	DB	01H
	DB	01H
	DB	01H
	DB	01H
	DB	01H
	DB	01H
	DB	01H
	DB	01H
	DB	01H
	DB	01H
	DB	01H
	DB	01H
	DB	01H
	DB	01H
	DB	01H
	DB	01H
	DB	01H
	DB	01H
	DB	01H
	DB	01H
	DB	01H
	DB	01H
	DB	01H
	DB	01H
	DB	01H
	DB	01H
	DB	01H
	DB	01H
	DB	01H
	DB	01H
	DB	01H
	DB	01H
	DB	01H
	DB	01H
	DB	01H
	DB	01H
	DB	01H
	DB	01H
	DB	01H
	DB	01H
	DB	01H
	DB	01H
	DB	01H
	DB	01H
	DB	01H
	DB	01H
	DB	01H
	DB	01H
	DB	01H
	DB	01H
	DB	01H
	DB	01H
	DB	01H
	DB	01H
	DB	01H
	DB	01H
	DB	01H
	DB	01H
	DB	01H
	DB	01H
	DB	01H
	DB	01H
	DB	01H
	DB	01H
	DB	01H
	DB	01H
	DB	01H
	DB	01H
	DB	01H
	DB	01H
	DB	01H
	DB	01H
	DB	01H
	DB	01H
	DB	01H
	DB	01H
	DB	01H
	DB	01H
	DB	01H
	DB	01H
	DB	01H
	DB	01H
	DB	01H
	DB	01H
	DB	01H
	DB	01H
	DB	01H
	DB	01H
	DB	01H
	DB	01H
	DB	01H
	DB	01H
	DB	01H
	DB	01H
	DB	01H
	DB	01H
	DB	01H
	DB	01H
	DB	01H
	DB	01H
	DB	01H
	DB	01H
	DB	01H
	DB	01H
	DB	01H
	DB	01H
	DB	01H
	DB	01H
	DB	01H
	DB	01H
	DB	01H
	DB	01H
	DB	01H
	DB	01H
	DB	01H
	DB	01H
	DB	01H
	DB	01H
	DB	01H
	DB	01H
	DB	01H
	DB	01H
	DB	01H
	DB	01H
	DB	01H
	DB	01H
	DB	01H
	DB	01H
	DB	01H
	DB	01H
	DB	01H
	DB	01H
	DB	01H
	DB	01H
	DB	01H
	DB	01H
	DB	01H
	DB	01H
	DB	01H
	DB	01H
	DB	01H
	DB	01H
	DB	01H
	DB	01H
	DB	01H
	DB	01H
	DB	01H
	DB	01H
	DB	01H
	DB	01H
	DB	01H
	DB	01H
	DB	01H
	DB	01H
	DB	01H
	DB	01H
	DB	01H
	DB	01H
	DB	01H
	DB	01H
	DB	01H
	DB	01H
	DB	01H
	DB	01H
	DB	01H
	DB	01H
	DB	01H
	DB	01H
	DB	01H
	DB	01H
	DB	01H
	DB	01H
	DB	01H
	DB	01H
	DB	01H
	DB	01H
	DB	01H
	DB	01H
	DB	01H
	DB	01H
	DB	01H
	DB	01H
	DB	01H
	DB	01H
	DB	01H
	DB	01H
	DB	01H
	DB	01H
	DB	01H
	DB	01H
	DB	01H
	DB	01H
	DB	01H
	DB	01H
	DB	01H
	DB	01H
	DB	01H
	DB	01H
	DB	01H
	DB	01H
	DB	01H
	DB	01H
	DB	01H
	DB	01H
	DB	0ecH
	DB	01H
	DB	01H
	DB	01H
	DB	01H
	DB	01H
	DB	01H
	DB	01H
	DB	01H
	DB	01H
	DB	01H
	DB	01H
	DB	01H
	DB	01H
	DB	01H
	DB	01H
	DB	01H
	DB	01H
	DB	01H
	DB	01H
	DB	01H
	DB	01H
	DB	01H
	DB	01H
	DB	01H
	DB	01H
	DB	01H
	DB	01H
	DB	01H
	DB	01H
	DB	01H
	DB	01H
	DB	01H
	DB	01H
	DB	01H
	DB	01H
	DB	01H
	DB	01H
	DB	01H
	DB	01H
	DB	01H
	DB	01H
	DB	01H
	DB	01H
	DB	01H
	DB	01H
	DB	01H
	DB	01H
	DB	01H
	DB	01H
	DB	01H
	DB	01H
	DB	01H
	DB	01H
	DB	01H
	DB	01H
	DB	01H
	DB	01H
	DB	01H
	DB	01H
	DB	01H
	DB	01H
	DB	01H
	DB	01H
	DB	01H
	DB	01H
	DB	01H
	DB	01H
	DB	01H
	DB	01H
	DB	01H
	DB	01H
	DB	01H
	DB	01H
	DB	01H
	DB	01H
	DB	01H
	DB	01H
	DB	01H
	DB	01H
	DB	01H
	DB	01H
	DB	01H
	DB	01H
	DB	01H
	DB	01H
	DB	01H
	DB	01H
	DB	01H
	DB	01H
	DB	01H
	DB	01H
	DB	01H
	DB	01H
	DB	01H
	DB	01H
	DB	01H
	DB	01H
	DB	01H
	DB	01H
	DB	01H
	DB	01H
	DB	01H
	DB	01H
	DB	01H
	DB	01H
	DB	01H
	DB	01H
	DB	01H
	DB	01H
	DB	01H
	DB	01H
	DB	01H
	DB	01H
	DB	01H
	DB	01H
	DB	01H
	DB	01H
	DB	01H
	DB	01H
	DB	01H
	DB	01H
	DB	01H
	DB	01H
	DB	01H
	DB	01H
	DB	01H
	DB	01H
	DB	01H
	DB	01H
	DB	01H
	DB	01H
	DB	01H
	DB	01H
	DB	01H
	DB	01H
	DB	01H
	DB	01H
	DB	01H
	DB	01H
	DB	01H
	DB	01H
	DB	01H
	DB	01H
	DB	01H
	DB	01H
	DB	01H
	DB	01H
	DB	01H
	DB	01H
	DB	01H
	DB	01H
	DB	01H
	DB	01H
	DB	01H
	DB	01H
	DB	01H
	DB	01H
	DB	01H
	DB	01H
	DB	01H
	DB	01H
	DB	01H
	DB	01H
	DB	01H
	DB	01H
	DB	01H
	DB	01H
	DB	01H
	DB	01H
	DB	01H
	DB	01H
	DB	01H
	DB	01H
	DB	01H
	DB	01H
	DB	01H
	DB	01H
	DB	01H
	DB	01H
	DB	01H
	DB	01H
	DB	01H
	DB	01H
	DB	01H
	DB	01H
	DB	01H
	DB	01H
	DB	01H
	DB	01H
	DB	01H
	DB	01H
	DB	01H
	DB	01H
	DB	01H
	DB	01H
	DB	01H
	DB	01H
	DB	01H
	DB	01H
	DB	01H
	DB	01H
	DB	01H
	DB	01H
	DB	01H
	DB	01H
	DB	01H
	DB	01H
	DB	01H
	DB	01H
	DB	01H
	DB	01H
	DB	01H
	DB	01H
	DB	01H
	DB	01H
	DB	01H
	DB	01H
	DB	01H
	DB	01H
	DB	01H
	DB	01H
	DB	01H
	DB	01H
	DB	01H
	DB	01H
	DB	01H
	DB	01H
	DB	01H
	DB	01H
	DB	01H
	DB	01H
	DB	01H
	DB	01H
	DB	01H
	DB	01H
	DB	01H
	DB	01H
	DB	01H
	DB	01H
	DB	01H
	DB	01H
	DB	01H
	DB	01H
	DB	01H
	DB	01H
	DB	01H
	DB	01H
	DB	01H
	DB	01H
	DB	01H
	DB	01H
	DB	01H
	DB	01H
	DB	01H
	DB	01H
	DB	01H
	DB	01H
	DB	01H
	DB	01H
	DB	01H
	DB	01H
	DB	01H
	DB	01H
	DB	01H
	DB	01H
	DB	01H
	DB	01H
	DB	01H
	DB	01H
	DB	01H
	DB	01H
	DB	01H
	DB	01H
	DB	01H
	DB	01H
	DB	01H
	DB	01H
	DB	01H
	DB	01H
	DB	01H
	DB	01H
	DB	01H
	DB	01H
	DB	01H
	DB	01H
	DB	01H
	DB	01H
	DB	01H
	DB	01H
	DB	01H
	DB	01H
	DB	01H
	DB	01H
	DB	01H
	DB	01H
	DB	01H
	DB	01H
	DB	01H
	DB	01H
	DB	01H
	DB	01H
	DB	01H
	DB	01H
	DB	01H
	DB	01H
	DB	01H
	DB	01H
	DB	01H
	DB	01H
	DB	01H
	DB	01H
	DB	01H
	DB	01H
	DB	01H
	DB	01H
	DB	01H
	DB	01H
	DB	01H
	DB	01H
	DB	01H
	DB	01H
	DB	01H
	DB	01H
	DB	01H
	DB	01H
	DB	01H
	DB	01H
	DB	01H
	DB	01H
	DB	01H
	DB	01H
	DB	01H
	DB	01H
	DB	01H
	DB	01H
	DB	01H
	DB	01H
	DB	01H
	DB	01H
	DB	01H
	DB	01H
	DB	01H
	DB	01H
	DB	01H
	DB	01H
	DB	0ecH
	DB	0ecH
	DB	01H
	DB	01H
	DB	01H
	DB	01H
	DB	01H
	DB	01H
	DB	01H
	DB	01H
	DB	01H
	DB	01H
	DB	01H
	DB	01H
	DB	01H
	DB	01H
	DB	01H
	DB	01H
	DB	01H
	DB	01H
	DB	01H
	DB	01H
	DB	01H
	DB	01H
	DB	01H
	DB	01H
	DB	01H
	DB	01H
	DB	01H
	DB	01H
	DB	01H
	DB	01H
	DB	01H
	DB	01H
	DB	01H
	DB	01H
	DB	01H
	DB	01H
	DB	01H
	DB	01H
	DB	01H
	DB	01H
	DB	01H
	DB	01H
	DB	01H
	DB	01H
	DB	01H
	DB	01H
	DB	01H
	DB	01H
	DB	01H
	DB	01H
	DB	01H
	DB	01H
	DB	01H
	DB	01H
	DB	01H
	DB	01H
	DB	01H
	DB	01H
	DB	01H
	DB	01H
	DB	01H
	DB	01H
	DB	01H
	DB	01H
	DB	01H
	DB	01H
	DB	01H
	DB	01H
	DB	01H
	DB	01H
	DB	01H
	DB	01H
	DB	01H
	DB	01H
	DB	01H
	DB	01H
	DB	01H
	DB	01H
	DB	01H
	DB	01H
	DB	01H
	DB	01H
	DB	01H
	DB	01H
	DB	01H
	DB	01H
	DB	01H
	DB	01H
	DB	01H
	DB	01H
	DB	01H
	DB	01H
	DB	01H
	DB	01H
	DB	01H
	DB	01H
	DB	01H
	DB	01H
	DB	01H
	DB	01H
	DB	01H
	DB	01H
	DB	01H
	DB	01H
	DB	01H
	DB	01H
	DB	01H
	DB	01H
	DB	01H
	DB	01H
	DB	01H
	DB	01H
	DB	01H
	DB	01H
	DB	01H
	DB	01H
	DB	01H
	DB	01H
	DB	01H
	DB	01H
	DB	01H
	DB	01H
	DB	01H
	DB	01H
	DB	01H
	DB	01H
	DB	01H
	DB	01H
	DB	01H
	DB	01H
	DB	01H
	DB	01H
	DB	01H
	DB	01H
	DB	01H
	DB	01H
	DB	01H
	DB	01H
	DB	01H
	DB	01H
	DB	01H
	DB	01H
	DB	01H
	DB	01H
	DB	01H
	DB	01H
	DB	01H
	DB	01H
	DB	01H
	DB	01H
	DB	01H
	DB	01H
	DB	01H
	DB	01H
	DB	01H
	DB	01H
	DB	01H
	DB	01H
	DB	01H
	DB	01H
	DB	01H
	DB	01H
	DB	01H
	DB	01H
	DB	01H
	DB	01H
	DB	01H
	DB	01H
	DB	01H
	DB	01H
	DB	01H
	DB	01H
	DB	01H
	DB	01H
	DB	01H
	DB	01H
	DB	01H
	DB	01H
	DB	01H
	DB	01H
	DB	01H
	DB	01H
	DB	01H
	DB	01H
	DB	01H
	DB	01H
	DB	01H
	DB	01H
	DB	01H
	DB	01H
	DB	01H
	DB	01H
	DB	01H
	DB	01H
	DB	01H
	DB	01H
	DB	01H
	DB	01H
	DB	01H
	DB	01H
	DB	01H
	DB	01H
	DB	01H
	DB	01H
	DB	01H
	DB	01H
	DB	01H
	DB	01H
	DB	01H
	DB	01H
	DB	01H
	DB	01H
	DB	01H
	DB	01H
	DB	01H
	DB	01H
	DB	01H
	DB	01H
	DB	01H
	DB	01H
	DB	01H
	DB	01H
	DB	01H
	DB	01H
	DB	01H
	DB	01H
	DB	01H
	DB	01H
	DB	01H
	DB	01H
	DB	01H
	DB	01H
	DB	01H
	DB	01H
	DB	01H
	DB	01H
	DB	01H
	DB	01H
	DB	01H
	DB	01H
	DB	01H
	DB	01H
	DB	01H
	DB	01H
	DB	01H
	DB	01H
	DB	01H
	DB	01H
	DB	01H
	DB	01H
	DB	01H
	DB	01H
	DB	01H
	DB	01H
	DB	01H
	DB	01H
	DB	01H
	DB	01H
	DB	01H
	DB	0a8H
	DB	0a8H
	DB	0a8H
	DB	0a8H
	DB	0a8H
	DB	0a8H
	DB	0a8H
	DB	0a8H
	DB	0a8H
	DB	0a8H
	DB	0a8H
	DB	0a8H
	DB	0a8H
	DB	0a8H
	DB	0a8H
	DB	0a8H
	DB	0a8H
	DB	0a8H
	DB	0a8H
	DB	0a8H
	DB	0a8H
	DB	0a8H
	DB	0a8H
	DB	0a8H
	DB	0a8H
	DB	0a8H
	DB	0a8H
	DB	0a8H
	DB	0a8H
	DB	0a8H
	DB	0a8H
	DB	0a8H
	DB	0a8H
	DB	0a8H
	DB	0a8H
	DB	0a8H
	DB	0a8H
	DB	0a8H
	DB	0a8H
	DB	0a8H
	DB	0a8H
	DB	0a8H
	DB	0a8H
	DB	0a8H
	DB	0a8H
	DB	0a8H
	DB	0a8H
	DB	0a8H
	DB	0a8H
	DB	0a8H
	DB	0a8H
	DB	0a8H
	DB	0a8H
	DB	0a8H
	DB	0a8H
	DB	0a8H
	DB	0a8H
	DB	0a8H
	DB	0a8H
	DB	0a8H
	DB	0a8H
	DB	0a8H
	DB	0a8H
	DB	0a8H
	DB	0a8H
	DB	0a8H
	DB	0a8H
	DB	0a8H
	DB	0a8H
	DB	0a8H
	DB	0a8H
	DB	0a8H
	DB	0a8H
	DB	0a8H
	DB	0a8H
	DB	0a8H
	DB	0a8H
	DB	0a8H
	DB	0a8H
	DB	0a8H
	DB	0a8H
	DB	01H
	DB	013H
	DB	080H
	DB	06dH
	DB	0d2H
	DB	083H
	DB	0a8H
	DB	0a8H
	DB	0a8H
	DB	0a8H
	DB	0a8H
	DB	0a8H
	DB	0a8H
	DB	0a8H
	DB	0a8H
	DB	0a8H
	DB	0a8H
	DB	0a8H
	DB	0a8H
	DB	0a8H
	DB	0a8H
	DB	0a8H
	DB	0a8H
	DB	0a8H
	DB	0a8H
	DB	0a8H
	DB	0a8H
	DB	0a8H
	DB	0a8H
	DB	0a8H
	DB	0a8H
	DB	0a8H
	DB	0a8H
	DB	0a8H
	DB	0a8H
	DB	0a8H
	DB	0a8H
	DB	0a8H
	DB	0a8H
	DB	0a8H
	DB	0a8H
	DB	0a8H
	DB	0a8H
	DB	0a8H
	DB	0a8H
	DB	0a8H
	DB	0a8H
	DB	0a8H
	DB	0a8H
	DB	0a8H
	DB	0a8H
	DB	0a8H
	DB	0a8H
	DB	0a8H
	DB	0a8H
	DB	0a8H
	DB	0a8H
	DB	0a8H
	DB	0a8H
	DB	0a8H
	DB	0a8H
	DB	0a8H
	DB	0a8H
	DB	0a8H
	DB	0a8H
	DB	0a8H
	DB	0a8H
	DB	0a8H
	DB	0a8H
	DB	0a8H
	DB	0a8H
	DB	0a8H
	DB	0a8H
	DB	0a8H
	DB	0a8H
	DB	0a8H
	DB	0a8H
	DB	0a8H
	DB	0a8H
	DB	0a8H
	DB	0a8H
	DB	0a8H
	DB	0a8H
	DB	0a8H
	DB	0a8H
	DB	0a8H
	DB	0a8H
	DB	0a8H
	DB	0a8H
	DB	0a8H
	DB	0a8H
	DB	0a8H
	DB	0a8H
	DB	0a8H
	DB	0a8H
	DB	0a8H
	DB	0a8H
	DB	0a8H
	DB	0a8H
	DB	0a8H
	DB	0a8H
	DB	0a8H
	DB	0a8H
	DB	0a8H
	DB	0a8H
	DB	0a8H
	DB	0a8H
	DB	0a8H
	DB	0a8H
	DB	0a8H
	DB	0a8H
	DB	0a8H
	DB	0a8H
	DB	0a8H
	DB	0a8H
	DB	0a8H
	DB	0a8H
	DB	0a8H
	DB	0a8H
	DB	0a8H
	DB	0a8H
	DB	0a8H
	DB	0a8H
	DB	0a8H
	DB	0a8H
	DB	0a8H
	DB	0a8H
	DB	0a8H
	DB	0a8H
	DB	0a8H
	DB	0a8H
	DB	0a8H
	DB	0a8H
	DB	0a8H
	DB	0a8H
	DB	0a8H
	DB	0a8H
	DB	0a8H
	DB	0a8H
	DB	0a8H
	DB	0a8H
	DB	0a8H
	DB	0a8H
	DB	0a8H
	DB	0a8H
	DB	0a8H
	DB	0a8H
	DB	0a8H
	DB	0a8H
	DB	0a8H
	DB	0a8H
	DB	0a8H
	DB	0a8H
	DB	0a8H
	DB	0a8H
	DB	0a8H
	DB	0a8H
	DB	0a8H
	DB	0a8H
	DB	0a8H
	DB	0a8H
	DB	0a8H
	DB	0a8H
	DB	0a8H
	DB	0a8H
	DB	0a8H
	DB	0a8H
	DB	0a8H
	DB	0a8H
	DB	0a8H
	DB	0a8H
	DB	0a8H
	DB	0a8H
	DB	0a8H
	DB	0a8H
	DB	0a8H
	DB	0a8H
	DB	0a8H
	DB	0a8H
	DB	0a8H
	DB	0a8H
	DB	0a8H
	DB	0a8H
	DB	0a8H
	DB	0a8H
	DB	0a8H
	DB	0a8H
	DB	0a8H
	DB	0a8H
	DB	0a8H
	DB	0a8H
	DB	0a8H
	DB	0a8H
	DB	0a8H
	DB	0a8H
	DB	0a8H
	DB	0a8H
	DB	0a8H
	DB	0a8H
	DB	0a8H
	DB	0a8H
	DB	0a8H
	DB	0a8H
	DB	0a8H
	DB	0a8H
	DB	0a8H
	DB	0a8H
	DB	0a8H
	DB	0a8H
	DB	0a8H
	DB	0a8H
	DB	0a8H
	DB	0a8H
	DB	0a8H
	DB	0a8H
	DB	0a8H
	DB	0a8H
	DB	0a8H
	DB	0a8H
	DB	0a8H
	DB	0a8H
	DB	0a8H
	DB	0a8H
	DB	0a8H
	DB	0a8H
	DB	0a8H
	DB	0a8H
	DB	0a8H
	DB	0a8H
	DB	0a8H
	DB	0a8H
	DB	0a8H
	DB	0a8H
	DB	0a8H
	DB	0a8H
	DB	0a8H
	DB	0a8H
	DB	0a8H
	DB	0a8H
	DB	0a8H
	DB	0a8H
	DB	0a8H
	DB	0a8H
	DB	0a8H
	DB	0a8H
	DB	0a8H
	DB	0a8H
	DB	0a8H
	DB	0a8H
	DB	0a8H
	DB	0a8H
	DB	0a8H
	DB	0a8H
	DB	0a8H
	DB	0a8H
	DB	0a8H
	DB	0a8H
	DB	0a8H
	DB	0a8H
	DB	0a8H
	DB	0a8H
	DB	0a8H
	DB	0a8H
	DB	0a8H
	DB	06H
	DB	06H
	DB	06H
	DB	06H
	DB	06H
	DB	06H
	DB	06H
	DB	06H
	DB	06H
	DB	06H
	DB	06H
	DB	06H
	DB	06H
	DB	06H
	DB	06H
	DB	06H
	DB	06H
	DB	06H
	DB	06H
	DB	06H
	DB	06H
	DB	06H
	DB	06H
	DB	06H
	DB	06H
	DB	06H
	DB	06H
	DB	06H
	DB	06H
	DB	06H
	DB	06H
	DB	06H
	DB	06H
	DB	06H
	DB	06H
	DB	06H
	DB	06H
	DB	06H
	DB	06H
	DB	06H
	DB	06H
	DB	06H
	DB	06H
	DB	06H
	DB	06H
	DB	06H
	DB	06H
	DB	06H
	DB	06H
	DB	06H
	DB	06H
	DB	06H
	DB	06H
	DB	06H
	DB	06H
	DB	06H
	DB	06H
	DB	06H
	DB	06H
	DB	0a8H
	DB	06H
	DB	0dbH
	DB	0cH
	DB	0cH
	DB	0cH
	DB	0cH
	DB	0cH
	DB	0cH
	DB	0cH
	DB	0cH
	DB	0cH
	DB	0cH
	DB	0cH
	DB	0cH
	DB	029H
	DB	0a8H
	DB	06H
	DB	06H
	DB	06H
	DB	06H
	DB	0a8H
	DB	0cH
	DB	0ddH
	DB	0b6H
	DB	02aH
	DB	044H
	DB	0d5H
	DB	0daH
	DB	0cH
	DB	0cH
	DB	0cH
	DB	0cH
	DB	0cH
	DB	0cH
	DB	0cH
	DB	0cH
	DB	0cH
	DB	0cH
	DB	0cH
	DB	0cH
	DB	0cH
	DB	0cH
	DB	0cH
	DB	03aH
	DB	06H
	DB	06H
	DB	06H
	DB	06H
	DB	06H
	DB	06H
	DB	06H
	DB	06H
	DB	06H
	DB	0a8H
	DB	03aH
	DB	0dbH
	DB	0cH
	DB	0cH
	DB	0cH
	DB	0cH
	DB	0cH
	DB	0cH
	DB	0cH
	DB	0cH
	DB	0cH
	DB	0dbH
	DB	06H
	DB	06H
	DB	06H
	DB	0a8H
	DB	03aH
	DB	0dbH
	DB	0cH
	DB	0cH
	DB	0cH
	DB	0cH
	DB	0cH
	DB	0cH
	DB	0cH
	DB	0cH
	DB	0cH
	DB	03aH
	DB	0a8H
	DB	06H
	DB	06H
	DB	06H
	DB	06H
	DB	0a8H
	DB	03aH
	DB	029H
	DB	0cH
	DB	0cH
	DB	0cH
	DB	0cH
	DB	0cH
	DB	0cH
	DB	0cH
	DB	0cH
	DB	0cH
	DB	0dbH
	DB	0a8H
	DB	0a8H
	DB	06H
	DB	03aH
	DB	0cH
	DB	0cH
	DB	0cH
	DB	0cH
	DB	0cH
	DB	0cH
	DB	0cH
	DB	0cH
	DB	0cH
	DB	0cH
	DB	0cH
	DB	0cH
	DB	0cH
	DB	0dbH
	DB	03aH
	DB	0a8H
	DB	06H
	DB	03aH
	DB	0cH
	DB	0cH
	DB	0cH
	DB	0cH
	DB	0cH
	DB	0cH
	DB	0cH
	DB	0cH
	DB	0cH
	DB	0cH
	DB	0cH
	DB	0cH
	DB	0cH
	DB	0cH
	DB	03aH
	DB	0a8H
	DB	06H
	DB	06H
	DB	06H
	DB	0dbH
	DB	0cH
	DB	0cH
	DB	0cH
	DB	029H
	DB	029H
	DB	0cH
	DB	0cH
	DB	0cH
	DB	0cH
	DB	0cH
	DB	0cH
	DB	0cH
	DB	0cH
	DB	0cH
	DB	0cH
	DB	0cH
	DB	0cH
	DB	0cH
	DB	0dbH
	DB	03aH
	DB	06H
	DB	06H
	DB	06H
	DB	06H
	DB	0cH
	DB	0cH
	DB	0cH
	DB	0cH
	DB	0cH
	DB	0cH
	DB	0cH
	DB	0cH
	DB	0cH
	DB	0cH
	DB	0cH
	DB	0cH
	DB	0dbH
	DB	03aH
	DB	0a8H
	DB	06H
	DB	06H
	DB	0dbH
	DB	0cH
	DB	0cH
	DB	0cH
	DB	0cH
	DB	0cH
	DB	0cH
	DB	0cH
	DB	0cH
	DB	0cH
	DB	0cH
	DB	0cH
	DB	0cH
	DB	0cH
	DB	0cH
	DB	0cH
	DB	06H
	DB	06H
	DB	0a8H
	DB	03aH
	DB	0dbH
	DB	0cH
	DB	0cH
	DB	0cH
	DB	0cH
	DB	0cH
	DB	0cH
	DB	0cH
	DB	0cH
	DB	0cH
	DB	029H
	DB	0a8H
	DB	06H
	DB	06H
	DB	06H
	DB	06H
	DB	0a8H
	DB	03aH
	DB	0dbH
	DB	0cH
	DB	0cH
	DB	0cH
	DB	0cH
	DB	0cH
	DB	0cH
	DB	0cH
	DB	0cH
	DB	0cH
	DB	0cH
	DB	0cH
	DB	0cH
	DB	03aH
	DB	06H
	DB	06H
	DB	06H
	DB	06H
	DB	06H
	DB	06H
	DB	06H
	DB	06H
	DB	06H
	DB	06H
	DB	06H
	DB	06H
	DB	06H
	DB	06H
	DB	06H
	DB	06H
	DB	06H
	DB	06H
	DB	06H
	DB	06H
	DB	06H
	DB	06H
	DB	06H
	DB	06H
	DB	06H
	DB	06H
	DB	06H
	DB	06H
	DB	06H
	DB	06H
	DB	06H
	DB	06H
	DB	06H
	DB	06H
	DB	06H
	DB	06H
	DB	06H
	DB	06H
	DB	06H
	DB	06H
	DB	06H
	DB	06H
	DB	06H
	DB	06H
	DB	06H
	DB	06H
	DB	06H
	DB	06H
	DB	06H
	DB	06H
	DB	083H
	DB	083H
	DB	083H
	DB	083H
	DB	083H
	DB	083H
	DB	083H
	DB	083H
	DB	083H
	DB	083H
	DB	083H
	DB	083H
	DB	083H
	DB	083H
	DB	083H
	DB	083H
	DB	083H
	DB	083H
	DB	083H
	DB	083H
	DB	083H
	DB	083H
	DB	083H
	DB	083H
	DB	083H
	DB	083H
	DB	083H
	DB	083H
	DB	083H
	DB	083H
	DB	083H
	DB	083H
	DB	083H
	DB	083H
	DB	083H
	DB	083H
	DB	083H
	DB	083H
	DB	083H
	DB	083H
	DB	083H
	DB	083H
	DB	083H
	DB	083H
	DB	083H
	DB	083H
	DB	083H
	DB	083H
	DB	083H
	DB	083H
	DB	083H
	DB	083H
	DB	083H
	DB	083H
	DB	083H
	DB	083H
	DB	083H
	DB	083H
	DB	083H
	DB	0a1H
	DB	012H
	DB	06bH
	DB	0fH
	DB	0fH
	DB	0fH
	DB	0fH
	DB	0fH
	DB	0fH
	DB	0fH
	DB	0fH
	DB	0fH
	DB	0fH
	DB	0fH
	DB	061H
	DB	09aH
	DB	060H
	DB	083H
	DB	083H
	DB	083H
	DB	083H
	DB	06H
	DB	05cH
	DB	0efH
	DB	02H
	DB	021H
	DB	034H
	DB	0c8H
	DB	099H
	DB	061H
	DB	0fH
	DB	0fH
	DB	0fH
	DB	0fH
	DB	0fH
	DB	0fH
	DB	0fH
	DB	0fH
	DB	0fH
	DB	0fH
	DB	0fH
	DB	0fH
	DB	0fH
	DB	0fH
	DB	0d8H
	DB	083H
	DB	083H
	DB	083H
	DB	083H
	DB	083H
	DB	083H
	DB	083H
	DB	083H
	DB	06H
	DB	0a0H
	DB	012H
	DB	09aH
	DB	0fH
	DB	0fH
	DB	0fH
	DB	0fH
	DB	0fH
	DB	0fH
	DB	0fH
	DB	0fH
	DB	0fH
	DB	0a5H
	DB	0d9H
	DB	083H
	DB	083H
	DB	0a0H
	DB	09dH
	DB	06bH
	DB	0fH
	DB	0fH
	DB	0fH
	DB	0fH
	DB	0fH
	DB	0fH
	DB	0fH
	DB	0fH
	DB	0a5H
	DB	0d3H
	DB	09fH
	DB	029H
	DB	083H
	DB	083H
	DB	06H
	DB	05fH
	DB	05eH
	DB	069H
	DB	0a5H
	DB	0fH
	DB	0fH
	DB	0fH
	DB	0fH
	DB	0fH
	DB	0fH
	DB	0fH
	DB	0fH
	DB	069H
	DB	05eH
	DB	042H
	DB	029H
	DB	0d4H
	DB	0fH
	DB	0fH
	DB	0fH
	DB	0fH
	DB	0fH
	DB	0fH
	DB	0fH
	DB	0fH
	DB	0fH
	DB	0fH
	DB	0fH
	DB	0fH
	DB	0fH
	DB	06bH
	DB	09dH
	DB	05fH
	DB	03aH
	DB	0d6H
	DB	09bH
	DB	0fH
	DB	0fH
	DB	0fH
	DB	0fH
	DB	0fH
	DB	0fH
	DB	0fH
	DB	0fH
	DB	0fH
	DB	0fH
	DB	0fH
	DB	0fH
	DB	081H
	DB	09eH
	DB	0a1H
	DB	083H
	DB	083H
	DB	013H
	DB	06aH
	DB	0fH
	DB	0fH
	DB	061H
	DB	0cdH
	DB	080H
	DB	061H
	DB	0fH
	DB	0fH
	DB	0fH
	DB	0fH
	DB	0fH
	DB	0fH
	DB	0fH
	DB	0fH
	DB	0fH
	DB	0fH
	DB	0fH
	DB	0fH
	DB	069H
	DB	05eH
	DB	0cH
	DB	083H
	DB	06H
	DB	012H
	DB	0a4H
	DB	0fH
	DB	0fH
	DB	0fH
	DB	0fH
	DB	0fH
	DB	0fH
	DB	0fH
	DB	0fH
	DB	0fH
	DB	0fH
	DB	0fH
	DB	081H
	DB	06dH
	DB	0a1H
	DB	06H
	DB	013H
	DB	06aH
	DB	0fH
	DB	0fH
	DB	0fH
	DB	0fH
	DB	0fH
	DB	0fH
	DB	0fH
	DB	0fH
	DB	0fH
	DB	0fH
	DB	0fH
	DB	0fH
	DB	0fH
	DB	0fH
	DB	09bH
	DB	0d7H
	DB	029H
	DB	09fH
	DB	09eH
	DB	0ceH
	DB	0fH
	DB	0fH
	DB	0fH
	DB	0fH
	DB	0fH
	DB	0fH
	DB	0fH
	DB	0fH
	DB	0a5H
	DB	080H
	DB	0d1H
	DB	029H
	DB	083H
	DB	083H
	DB	029H
	DB	09fH
	DB	09eH
	DB	081H
	DB	0fH
	DB	0fH
	DB	0fH
	DB	0fH
	DB	0fH
	DB	0fH
	DB	0fH
	DB	0fH
	DB	0fH
	DB	0fH
	DB	0fH
	DB	084H
	DB	068H
	DB	05H
	DB	083H
	DB	083H
	DB	083H
	DB	083H
	DB	083H
	DB	083H
	DB	083H
	DB	083H
	DB	083H
	DB	083H
	DB	083H
	DB	083H
	DB	083H
	DB	083H
	DB	083H
	DB	083H
	DB	083H
	DB	083H
	DB	083H
	DB	083H
	DB	083H
	DB	083H
	DB	083H
	DB	083H
	DB	083H
	DB	083H
	DB	083H
	DB	083H
	DB	083H
	DB	083H
	DB	083H
	DB	083H
	DB	083H
	DB	083H
	DB	083H
	DB	083H
	DB	083H
	DB	083H
	DB	083H
	DB	083H
	DB	083H
	DB	083H
	DB	083H
	DB	083H
	DB	083H
	DB	083H
	DB	083H
	DB	083H
	DB	083H
	DB	05H
	DB	05H
	DB	05H
	DB	05H
	DB	05H
	DB	05H
	DB	05H
	DB	05H
	DB	05H
	DB	05H
	DB	05H
	DB	05H
	DB	05H
	DB	05H
	DB	05H
	DB	05H
	DB	05H
	DB	05H
	DB	05H
	DB	05H
	DB	05H
	DB	05H
	DB	05H
	DB	05H
	DB	05H
	DB	05H
	DB	05H
	DB	05H
	DB	05H
	DB	05H
	DB	05H
	DB	05H
	DB	05H
	DB	05H
	DB	05H
	DB	05H
	DB	05H
	DB	05H
	DB	05H
	DB	05H
	DB	05H
	DB	05H
	DB	05H
	DB	05H
	DB	05H
	DB	05H
	DB	05H
	DB	05H
	DB	05H
	DB	05H
	DB	05H
	DB	05H
	DB	05H
	DB	05H
	DB	05H
	DB	05H
	DB	05H
	DB	05H
	DB	0d0H
	DB	0e2H
	DB	0f2H
	DB	03cH
	DB	0bH
	DB	0bH
	DB	0bH
	DB	0bH
	DB	0bH
	DB	0bH
	DB	0bH
	DB	0bH
	DB	0bH
	DB	0bH
	DB	0bH
	DB	02H
	DB	0abH
	DB	0c5H
	DB	083H
	DB	05H
	DB	05H
	DB	05H
	DB	0a0H
	DB	0a6H
	DB	0bH
	DB	02H
	DB	02H
	DB	0e5H
	DB	0eH
	DB	0f6H
	DB	02H
	DB	0bH
	DB	0bH
	DB	0bH
	DB	0bH
	DB	0bH
	DB	0bH
	DB	0bH
	DB	0bH
	DB	0bH
	DB	0bH
	DB	0bH
	DB	0bH
	DB	02H
	DB	07bH
	DB	06aH
	DB	060H
	DB	05H
	DB	05H
	DB	05H
	DB	05H
	DB	05H
	DB	05H
	DB	060H
	DB	05cH
	DB	0a7H
	DB	03eH
	DB	02bH
	DB	0bH
	DB	0bH
	DB	0bH
	DB	0bH
	DB	0bH
	DB	0bH
	DB	0bH
	DB	0bH
	DB	02H
	DB	0f7H
	DB	068H
	DB	05fH
	DB	03H
	DB	049H
	DB	03fH
	DB	03cH
	DB	0bH
	DB	0bH
	DB	0bH
	DB	0bH
	DB	0bH
	DB	0bH
	DB	0bH
	DB	0bH
	DB	04H
	DB	0f8H
	DB	089H
	DB	06dH
	DB	042H
	DB	05H
	DB	05cH
	DB	0dfH
	DB	033H
	DB	030H
	DB	04H
	DB	0bH
	DB	0bH
	DB	0bH
	DB	0bH
	DB	0bH
	DB	0bH
	DB	0bH
	DB	0bH
	DB	0fdH
	DB	0eeH
	DB	0cbH
	DB	0c2H
	DB	053H
	DB	02H
	DB	0bH
	DB	0bH
	DB	0bH
	DB	0bH
	DB	0bH
	DB	0bH
	DB	0bH
	DB	0bH
	DB	0bH
	DB	0bH
	DB	0bH
	DB	02H
	DB	02cH
	DB	03fH
	DB	0e1H
	DB	0c2H
	DB	0e4H
	DB	04H
	DB	02H
	DB	0bH
	DB	0bH
	DB	0bH
	DB	0bH
	DB	0bH
	DB	0bH
	DB	0bH
	DB	0bH
	DB	0bH
	DB	0bH
	DB	0bH
	DB	025H
	DB	02aH
	DB	0a7H
	DB	05cH
	DB	0a3H
	DB	069H
	DB	0b5H
	DB	02H
	DB	0bH
	DB	021H
	DB	0edH
	DB	044H
	DB	02H
	DB	0bH
	DB	0bH
	DB	0bH
	DB	0bH
	DB	0bH
	DB	0bH
	DB	0bH
	DB	0bH
	DB	0bH
	DB	0bH
	DB	0bH
	DB	0bH
	DB	02bH
	DB	0efH
	DB	099H
	DB	082H
	DB	0a3H
	DB	061H
	DB	0bH
	DB	0bH
	DB	0bH
	DB	0bH
	DB	0bH
	DB	0bH
	DB	0bH
	DB	0bH
	DB	0bH
	DB	0bH
	DB	0bH
	DB	0bH
	DB	025H
	DB	03fH
	DB	0a6H
	DB	095H
	DB	09aH
	DB	0fcH
	DB	02H
	DB	0bH
	DB	0bH
	DB	0bH
	DB	0bH
	DB	0bH
	DB	0bH
	DB	0bH
	DB	0bH
	DB	0bH
	DB	0bH
	DB	0bH
	DB	0bH
	DB	02H
	DB	0b5H
	DB	0aH
	DB	0cfH
	DB	0aaH
	DB	02aH
	DB	02cH
	DB	02H
	DB	0bH
	DB	0bH
	DB	0bH
	DB	0bH
	DB	0bH
	DB	0bH
	DB	0bH
	DB	0bH
	DB	0fbH
	DB	054H
	DB	06dH
	DB	042H
	DB	042H
	DB	03H
	DB	072H
	DB	0f3H
	DB	0ffH
	DB	0bH
	DB	0bH
	DB	0bH
	DB	0bH
	DB	0bH
	DB	0bH
	DB	0bH
	DB	0bH
	DB	0bH
	DB	0bH
	DB	0bH
	DB	02H
	DB	085H
	DB	082H
	DB	05H
	DB	05H
	DB	05H
	DB	05H
	DB	05H
	DB	05H
	DB	05H
	DB	05H
	DB	05H
	DB	05H
	DB	05H
	DB	05H
	DB	05H
	DB	05H
	DB	05H
	DB	05H
	DB	05H
	DB	05H
	DB	05H
	DB	05H
	DB	05H
	DB	05H
	DB	05H
	DB	05H
	DB	05H
	DB	05H
	DB	05H
	DB	05H
	DB	05H
	DB	05H
	DB	05H
	DB	05H
	DB	05H
	DB	05H
	DB	05H
	DB	05H
	DB	05H
	DB	05H
	DB	05H
	DB	05H
	DB	05H
	DB	05H
	DB	05H
	DB	05H
	DB	05H
	DB	05H
	DB	05H
	DB	05H
	DB	05H
	DB	014H
	DB	014H
	DB	014H
	DB	014H
	DB	014H
	DB	014H
	DB	014H
	DB	014H
	DB	014H
	DB	014H
	DB	014H
	DB	014H
	DB	014H
	DB	014H
	DB	014H
	DB	014H
	DB	014H
	DB	014H
	DB	014H
	DB	014H
	DB	014H
	DB	014H
	DB	014H
	DB	014H
	DB	014H
	DB	014H
	DB	014H
	DB	014H
	DB	014H
	DB	014H
	DB	014H
	DB	014H
	DB	014H
	DB	014H
	DB	014H
	DB	014H
	DB	014H
	DB	014H
	DB	014H
	DB	014H
	DB	014H
	DB	014H
	DB	014H
	DB	014H
	DB	014H
	DB	014H
	DB	014H
	DB	014H
	DB	014H
	DB	014H
	DB	014H
	DB	014H
	DB	014H
	DB	014H
	DB	014H
	DB	014H
	DB	060H
	DB	03dH
	DB	04aH
	DB	0baH
	DB	021H
	DB	02H
	DB	04H
	DB	04H
	DB	04H
	DB	04H
	DB	04H
	DB	04H
	DB	04H
	DB	04H
	DB	04H
	DB	04H
	DB	04H
	DB	0bH
	DB	085H
	DB	05cH
	DB	013H
	DB	014H
	DB	014H
	DB	042H
	DB	03dH
	DB	0f1H
	DB	02H
	DB	02H
	DB	059H
	DB	019H
	DB	07fH
	DB	0b9H
	DB	02H
	DB	04H
	DB	04H
	DB	04H
	DB	04H
	DB	04H
	DB	04H
	DB	04H
	DB	04H
	DB	04H
	DB	04H
	DB	04H
	DB	04H
	DB	02H
	DB	040H
	DB	0beH
	DB	0a2H
	DB	014H
	DB	014H
	DB	014H
	DB	014H
	DB	014H
	DB	05fH
	DB	0c9H
	DB	076H
	DB	04H
	DB	02H
	DB	02H
	DB	04H
	DB	04H
	DB	04H
	DB	04H
	DB	04H
	DB	04H
	DB	04H
	DB	04H
	DB	02H
	DB	037H
	DB	066H
	DB	068H
	DB	0f0H
	DB	0bH
	DB	02H
	DB	02H
	DB	04H
	DB	04H
	DB	04H
	DB	04H
	DB	04H
	DB	04H
	DB	04H
	DB	04H
	DB	04H
	DB	02H
	DB	02H
	DB	044H
	DB	03dH
	DB	08H
	DB	027H
	DB	025H
	DB	02H
	DB	02H
	DB	04H
	DB	04H
	DB	04H
	DB	04H
	DB	04H
	DB	04H
	DB	04H
	DB	04H
	DB	04H
	DB	02H
	DB	021H
	DB	02aH
	DB	0bfH
	DB	063H
	DB	021H
	DB	04H
	DB	04H
	DB	04H
	DB	04H
	DB	04H
	DB	04H
	DB	04H
	DB	04H
	DB	04H
	DB	04H
	DB	04H
	DB	04H
	DB	02H
	DB	02H
	DB	0ffH
	DB	02eH
	DB	072H
	DB	02H
	DB	04H
	DB	04H
	DB	04H
	DB	04H
	DB	04H
	DB	04H
	DB	04H
	DB	04H
	DB	04H
	DB	04H
	DB	04H
	DB	04H
	DB	02H
	DB	02H
	DB	04H
	DB	049H
	DB	094H
	DB	0deH
	DB	0bH
	DB	04H
	DB	02H
	DB	02H
	DB	086H
	DB	01cH
	DB	02H
	DB	04H
	DB	04H
	DB	04H
	DB	04H
	DB	04H
	DB	04H
	DB	04H
	DB	04H
	DB	04H
	DB	04H
	DB	04H
	DB	04H
	DB	02H
	DB	021H
	DB	0b3H
	DB	068H
	DB	0c4H
	DB	0ebH
	DB	02H
	DB	04H
	DB	04H
	DB	04H
	DB	04H
	DB	04H
	DB	04H
	DB	04H
	DB	04H
	DB	04H
	DB	04H
	DB	04H
	DB	0bH
	DB	02H
	DB	04eH
	DB	084H
	DB	0a4H
	DB	02H
	DB	04H
	DB	04H
	DB	04H
	DB	04H
	DB	04H
	DB	04H
	DB	04H
	DB	04H
	DB	04H
	DB	04H
	DB	04H
	DB	04H
	DB	04H
	DB	02H
	DB	036H
	DB	07eH
	DB	01fH
	DB	02H
	DB	02H
	DB	02H
	DB	04H
	DB	04H
	DB	04H
	DB	04H
	DB	04H
	DB	04H
	DB	04H
	DB	04H
	DB	04H
	DB	02H
	DB	02H
	DB	04cH
	DB	0c3H
	DB	0caH
	DB	023H
	DB	02H
	DB	02H
	DB	02H
	DB	04H
	DB	04H
	DB	04H
	DB	04H
	DB	04H
	DB	04H
	DB	04H
	DB	04H
	DB	04H
	DB	04H
	DB	02H
	DB	030H
	DB	099H
	DB	06cH
	DB	014H
	DB	014H
	DB	014H
	DB	014H
	DB	014H
	DB	014H
	DB	014H
	DB	014H
	DB	014H
	DB	014H
	DB	014H
	DB	014H
	DB	014H
	DB	014H
	DB	014H
	DB	014H
	DB	014H
	DB	014H
	DB	014H
	DB	014H
	DB	014H
	DB	014H
	DB	014H
	DB	014H
	DB	014H
	DB	014H
	DB	014H
	DB	014H
	DB	014H
	DB	014H
	DB	014H
	DB	014H
	DB	014H
	DB	014H
	DB	014H
	DB	014H
	DB	014H
	DB	014H
	DB	014H
	DB	014H
	DB	014H
	DB	014H
	DB	014H
	DB	014H
	DB	014H
	DB	014H
	DB	014H
	DB	014H
	DB	014H
	DB	013H
	DB	013H
	DB	013H
	DB	013H
	DB	013H
	DB	013H
	DB	013H
	DB	013H
	DB	013H
	DB	013H
	DB	013H
	DB	013H
	DB	013H
	DB	013H
	DB	013H
	DB	013H
	DB	013H
	DB	013H
	DB	013H
	DB	013H
	DB	013H
	DB	013H
	DB	013H
	DB	013H
	DB	013H
	DB	013H
	DB	013H
	DB	013H
	DB	013H
	DB	013H
	DB	013H
	DB	013H
	DB	013H
	DB	013H
	DB	013H
	DB	013H
	DB	013H
	DB	013H
	DB	013H
	DB	013H
	DB	013H
	DB	013H
	DB	013H
	DB	013H
	DB	013H
	DB	013H
	DB	013H
	DB	013H
	DB	013H
	DB	013H
	DB	013H
	DB	013H
	DB	013H
	DB	013H
	DB	013H
	DB	013H
	DB	05cH
	DB	04aH
	DB	02H
	DB	02H
	DB	04H
	DB	02H
	DB	02H
	DB	02H
	DB	02H
	DB	02H
	DB	02H
	DB	02H
	DB	02H
	DB	02H
	DB	02H
	DB	02H
	DB	02H
	DB	05aH
	DB	07eH
	DB	067H
	DB	0a2H
	DB	013H
	DB	013H
	DB	0d1H
	DB	0e0H
	DB	0bH
	DB	02H
	DB	02H
	DB	022H
	DB	011H
	DB	085H
	DB	02H
	DB	04H
	DB	04H
	DB	04H
	DB	02H
	DB	02H
	DB	02H
	DB	02H
	DB	02H
	DB	02H
	DB	02H
	DB	02H
	DB	02H
	DB	02H
	DB	021H
	DB	056H
	DB	035H
	DB	012H
	DB	013H
	DB	013H
	DB	013H
	DB	013H
	DB	060H
	DB	08H
	DB	0efH
	DB	021H
	DB	04H
	DB	04H
	DB	02H
	DB	02H
	DB	02H
	DB	02H
	DB	02H
	DB	02H
	DB	02H
	DB	02H
	DB	02H
	DB	021H
	DB	054H
	DB	011H
	DB	03eH
	DB	021H
	DB	04H
	DB	04H
	DB	02H
	DB	02H
	DB	02H
	DB	02H
	DB	02H
	DB	02H
	DB	02H
	DB	02H
	DB	02H
	DB	04H
	DB	04H
	DB	02H
	DB	05aH
	DB	098H
	DB	073H
	DB	02H
	DB	02H
	DB	04H
	DB	02H
	DB	02H
	DB	02H
	DB	02H
	DB	02H
	DB	02H
	DB	02H
	DB	02H
	DB	02H
	DB	04H
	DB	04H
	DB	04H
	DB	02H
	DB	074H
	DB	058H
	DB	02H
	DB	04H
	DB	04H
	DB	02H
	DB	02H
	DB	02H
	DB	02H
	DB	02H
	DB	02H
	DB	02H
	DB	02H
	DB	02H
	DB	04H
	DB	04H
	DB	04H
	DB	02H
	DB	03eH
	DB	057H
	DB	02H
	DB	04H
	DB	04H
	DB	02H
	DB	02H
	DB	02H
	DB	02H
	DB	02H
	DB	02H
	DB	02H
	DB	02H
	DB	02H
	DB	04H
	DB	04H
	DB	04H
	DB	02H
	DB	03bH
	DB	0c0H
	DB	0e9H
	DB	02H
	DB	04H
	DB	02H
	DB	039H
	DB	022H
	DB	030H
	DB	02H
	DB	04H
	DB	04H
	DB	02H
	DB	02H
	DB	02H
	DB	02H
	DB	02H
	DB	02H
	DB	02H
	DB	02H
	DB	02H
	DB	04H
	DB	04H
	DB	04H
	DB	021H
	DB	0acH
	DB	04fH
	DB	08dH
	DB	021H
	DB	02H
	DB	02H
	DB	02H
	DB	02H
	DB	02H
	DB	02H
	DB	02H
	DB	02H
	DB	02H
	DB	02H
	DB	04H
	DB	04H
	DB	04H
	DB	02H
	DB	03eH
	DB	04aH
	DB	021H
	DB	02H
	DB	02H
	DB	02H
	DB	02H
	DB	04H
	DB	04H
	DB	04H
	DB	04H
	DB	02H
	DB	02H
	DB	02H
	DB	02H
	DB	02H
	DB	021H
	DB	0adH
	DB	0f4H
	DB	02H
	DB	04H
	DB	04H
	DB	02H
	DB	02H
	DB	02H
	DB	02H
	DB	02H
	DB	02H
	DB	02H
	DB	02H
	DB	02H
	DB	04H
	DB	04H
	DB	02H
	DB	02cH
	DB	02eH
	DB	036H
	DB	02H
	DB	04H
	DB	04H
	DB	02H
	DB	02H
	DB	02H
	DB	02H
	DB	02H
	DB	02H
	DB	02H
	DB	02H
	DB	02H
	DB	02H
	DB	02H
	DB	021H
	DB	01cH
	DB	092H
	DB	09cH
	DB	0a2H
	DB	013H
	DB	013H
	DB	013H
	DB	013H
	DB	013H
	DB	013H
	DB	013H
	DB	013H
	DB	013H
	DB	013H
	DB	013H
	DB	013H
	DB	013H
	DB	013H
	DB	013H
	DB	013H
	DB	013H
	DB	013H
	DB	013H
	DB	013H
	DB	013H
	DB	013H
	DB	013H
	DB	013H
	DB	013H
	DB	013H
	DB	013H
	DB	013H
	DB	013H
	DB	013H
	DB	013H
	DB	013H
	DB	013H
	DB	013H
	DB	013H
	DB	013H
	DB	013H
	DB	013H
	DB	013H
	DB	013H
	DB	013H
	DB	013H
	DB	013H
	DB	013H
	DB	013H
	DB	013H
	DB	013H
	DB	013H
	DB	0a2H
	DB	0a2H
	DB	0a2H
	DB	0a2H
	DB	0a2H
	DB	0a2H
	DB	0a2H
	DB	0a2H
	DB	0a2H
	DB	0a2H
	DB	0a2H
	DB	0a2H
	DB	0a2H
	DB	0a2H
	DB	0a2H
	DB	0a2H
	DB	0a2H
	DB	0a2H
	DB	0a2H
	DB	0a2H
	DB	0a2H
	DB	0a2H
	DB	0a2H
	DB	0a2H
	DB	0a2H
	DB	0a2H
	DB	0a2H
	DB	0a2H
	DB	0a2H
	DB	0a2H
	DB	0a2H
	DB	0a2H
	DB	0a2H
	DB	0a2H
	DB	0a2H
	DB	0a2H
	DB	0a2H
	DB	0a2H
	DB	0a2H
	DB	0a2H
	DB	0a2H
	DB	0a2H
	DB	0a2H
	DB	0a2H
	DB	0a2H
	DB	0a2H
	DB	0a2H
	DB	0a2H
	DB	0a2H
	DB	0a2H
	DB	0a2H
	DB	0a2H
	DB	0a2H
	DB	0a2H
	DB	0a2H
	DB	06cH
	DB	06aH
	DB	02cH
	DB	02H
	DB	04H
	DB	02H
	DB	04eH
	DB	01fH
	DB	016H
	DB	016H
	DB	016H
	DB	016H
	DB	016H
	DB	016H
	DB	016H
	DB	016H
	DB	016H
	DB	01cH
	DB	076H
	DB	01bH
	DB	08H
	DB	07H
	DB	0a2H
	DB	0a2H
	DB	08H
	DB	059H
	DB	02H
	DB	02H
	DB	08eH
	DB	07dH
	DB	035H
	DB	0acH
	DB	02H
	DB	04H
	DB	04H
	DB	04eH
	DB	016H
	DB	016H
	DB	016H
	DB	016H
	DB	016H
	DB	016H
	DB	016H
	DB	016H
	DB	016H
	DB	016H
	DB	02aH
	DB	086H
	DB	01dH
	DB	012H
	DB	0a2H
	DB	0a2H
	DB	0a2H
	DB	0a2H
	DB	0c5H
	DB	049H
	DB	02H
	DB	04H
	DB	04H
	DB	02H
	DB	0b9H
	DB	01fH
	DB	016H
	DB	016H
	DB	016H
	DB	016H
	DB	016H
	DB	016H
	DB	016H
	DB	01fH
	DB	026H
	DB	073H
	DB	02H
	DB	04H
	DB	04H
	DB	02H
	DB	02bH
	DB	01fH
	DB	016H
	DB	016H
	DB	016H
	DB	016H
	DB	016H
	DB	01fH
	DB	04eH
	DB	04H
	DB	04H
	DB	04H
	DB	02H
	DB	036H
	DB	0b8H
	DB	02H
	DB	04H
	DB	02H
	DB	0baH
	DB	02aH
	DB	03fH
	DB	016H
	DB	016H
	DB	016H
	DB	016H
	DB	016H
	DB	039H
	DB	02H
	DB	04H
	DB	04H
	DB	02H
	DB	038H
	DB	0b9H
	DB	04H
	DB	04H
	DB	04H
	DB	03bH
	DB	03fH
	DB	016H
	DB	016H
	DB	016H
	DB	016H
	DB	016H
	DB	0b2H
	DB	038H
	DB	04H
	DB	04H
	DB	04H
	DB	04H
	DB	05aH
	DB	02cH
	DB	04H
	DB	04H
	DB	02H
	DB	030H
	DB	0b2H
	DB	016H
	DB	016H
	DB	016H
	DB	016H
	DB	016H
	DB	03fH
	DB	040H
	DB	07cH
	DB	04H
	DB	04H
	DB	02H
	DB	04eH
	DB	02eH
	DB	036H
	DB	02H
	DB	04H
	DB	02H
	DB	0f5H
	DB	051H
	DB	02H
	DB	02H
	DB	04H
	DB	04H
	DB	040H
	DB	0b2H
	DB	016H
	DB	016H
	DB	016H
	DB	016H
	DB	016H
	DB	016H
	DB	030H
	DB	02H
	DB	04H
	DB	04H
	DB	02H
	DB	0b2H
	DB	092H
	DB	04cH
	DB	0f4H
	DB	016H
	DB	016H
	DB	016H
	DB	016H
	DB	016H
	DB	016H
	DB	016H
	DB	016H
	DB	03fH
	DB	0f5H
	DB	07cH
	DB	04H
	DB	04H
	DB	04H
	DB	05aH
	DB	076H
	DB	016H
	DB	016H
	DB	016H
	DB	016H
	DB	01cH
	DB	025H
	DB	04H
	DB	04H
	DB	02H
	DB	0faH
	DB	03fH
	DB	016H
	DB	016H
	DB	016H
	DB	01fH
	DB	038H
	DB	02H
	DB	04H
	DB	04H
	DB	02H
	DB	03bH
	DB	0b2H
	DB	016H
	DB	016H
	DB	016H
	DB	016H
	DB	016H
	DB	01fH
	DB	04eH
	DB	02H
	DB	04H
	DB	04H
	DB	02H
	DB	0f0H
	DB	05aH
	DB	04H
	DB	04H
	DB	02H
	DB	039H
	DB	016H
	DB	016H
	DB	016H
	DB	016H
	DB	016H
	DB	016H
	DB	016H
	DB	016H
	DB	016H
	DB	016H
	DB	02aH
	DB	08aH
	DB	011H
	DB	03H
	DB	07H
	DB	0a2H
	DB	0a2H
	DB	0a2H
	DB	0a2H
	DB	0a2H
	DB	0a2H
	DB	0a2H
	DB	0a2H
	DB	0a2H
	DB	0a2H
	DB	0a2H
	DB	0a2H
	DB	0a2H
	DB	0a2H
	DB	0a2H
	DB	0a2H
	DB	0a2H
	DB	0a2H
	DB	0a2H
	DB	0a2H
	DB	0a2H
	DB	0a2H
	DB	0a2H
	DB	0a2H
	DB	0a2H
	DB	0a2H
	DB	0a2H
	DB	0a2H
	DB	0a2H
	DB	0a2H
	DB	0a2H
	DB	0a2H
	DB	0a2H
	DB	0a2H
	DB	0a2H
	DB	0a2H
	DB	0a2H
	DB	0a2H
	DB	0a2H
	DB	0a2H
	DB	0a2H
	DB	0a2H
	DB	0a2H
	DB	0a2H
	DB	0a2H
	DB	0a2H
	DB	0a2H
	DB	0a2H
	DB	07H
	DB	07H
	DB	07H
	DB	07H
	DB	07H
	DB	07H
	DB	07H
	DB	07H
	DB	07H
	DB	07H
	DB	07H
	DB	07H
	DB	07H
	DB	07H
	DB	07H
	DB	07H
	DB	07H
	DB	07H
	DB	07H
	DB	07H
	DB	07H
	DB	07H
	DB	07H
	DB	07H
	DB	07H
	DB	07H
	DB	07H
	DB	07H
	DB	07H
	DB	07H
	DB	07H
	DB	07H
	DB	07H
	DB	07H
	DB	07H
	DB	07H
	DB	07H
	DB	07H
	DB	07H
	DB	07H
	DB	07H
	DB	07H
	DB	07H
	DB	07H
	DB	07H
	DB	07H
	DB	07H
	DB	07H
	DB	07H
	DB	07H
	DB	07H
	DB	07H
	DB	07H
	DB	07H
	DB	07H
	DB	067H
	DB	0eaH
	DB	02H
	DB	04H
	DB	02H
	DB	025H
	DB	017H
	DB	019H
	DB	0dH
	DB	07dH
	DB	07dH
	DB	07dH
	DB	07dH
	DB	07dH
	DB	07dH
	DB	09H
	DB	09H
	DB	09H
	DB	09H
	DB	010H
	DB	03H
	DB	015H
	DB	07H
	DB	0c3H
	DB	052H
	DB	02H
	DB	02H
	DB	04H
	DB	0dcH
	DB	04fH
	DB	0bcH
	DB	03eH
	DB	02H
	DB	04H
	DB	02H
	DB	0f5H
	DB	019H
	DB	0dH
	DB	07dH
	DB	07dH
	DB	07dH
	DB	07dH
	DB	07dH
	DB	07dH
	DB	09H
	DB	09H
	DB	09H
	DB	035H
	DB	0c1H
	DB	012H
	DB	07H
	DB	07H
	DB	07H
	DB	07H
	DB	01eH
	DB	079H
	DB	02H
	DB	04H
	DB	02H
	DB	030H
	DB	07fH
	DB	0dH
	DB	07dH
	DB	09H
	DB	09H
	DB	09H
	DB	09H
	DB	09H
	DB	09H
	DB	011H
	DB	07dH
	DB	0f4H
	DB	02H
	DB	04H
	DB	02H
	DB	034H
	DB	0c6H
	DB	019H
	DB	07dH
	DB	09H
	DB	09H
	DB	09H
	DB	07dH
	DB	019H
	DB	027H
	DB	02H
	DB	04H
	DB	04H
	DB	04H
	DB	07bH
	DB	07cH
	DB	04H
	DB	04H
	DB	0baH
	DB	017H
	DB	019H
	DB	07dH
	DB	07dH
	DB	09H
	DB	09H
	DB	09H
	DB	019H
	DB	02eH
	DB	020H
	DB	02H
	DB	04H
	DB	04H
	DB	02cH
	DB	04H
	DB	04H
	DB	04H
	DB	02H
	DB	017H
	DB	019H
	DB	07dH
	DB	09H
	DB	09H
	DB	09H
	DB	09H
	DB	07dH
	DB	092H
	DB	0f5H
	DB	02H
	DB	04H
	DB	04H
	DB	04H
	DB	02H
	DB	04H
	DB	04H
	DB	02H
	DB	04aH
	DB	019H
	DB	07dH
	DB	09H
	DB	09H
	DB	09H
	DB	09H
	DB	07dH
	DB	07dH
	DB	0b1H
	DB	02H
	DB	04H
	DB	02H
	DB	02cH
	DB	026H
	DB	040H
	DB	02H
	DB	04H
	DB	02H
	DB	075H
	DB	027H
	DB	021H
	DB	04H
	DB	02H
	DB	0feH
	DB	02dH
	DB	019H
	DB	07dH
	DB	09H
	DB	09H
	DB	09H
	DB	09H
	DB	019H
	DB	098H
	DB	0feH
	DB	02H
	DB	04H
	DB	02H
	DB	078H
	DB	01bH
	DB	0aH
	DB	010H
	DB	0bcH
	DB	07dH
	DB	07dH
	DB	07dH
	DB	07dH
	DB	07dH
	DB	07dH
	DB	07dH
	DB	011H
	DB	019H
	DB	045H
	DB	02H
	DB	04H
	DB	02H
	DB	0b9H
	DB	028H
	DB	07dH
	DB	09H
	DB	09H
	DB	019H
	DB	02eH
	DB	020H
	DB	02H
	DB	04H
	DB	021H
	DB	070H
	DB	019H
	DB	07dH
	DB	09H
	DB	019H
	DB	031H
	DB	041H
	DB	02H
	DB	04H
	DB	02H
	DB	078H
	DB	024H
	DB	019H
	DB	07dH
	DB	07dH
	DB	07dH
	DB	07dH
	DB	07dH
	DB	019H
	DB	074H
	DB	02H
	DB	04H
	DB	04H
	DB	04H
	DB	05aH
	DB	04H
	DB	04H
	DB	02H
	DB	041H
	DB	02dH
	DB	019H
	DB	07dH
	DB	07dH
	DB	07dH
	DB	07dH
	DB	07dH
	DB	07dH
	DB	07dH
	DB	09H
	DB	09H
	DB	07dH
	DB	09H
	DB	0aH
	DB	03H
	DB	07H
	DB	07H
	DB	07H
	DB	07H
	DB	07H
	DB	07H
	DB	07H
	DB	07H
	DB	07H
	DB	07H
	DB	07H
	DB	07H
	DB	07H
	DB	07H
	DB	07H
	DB	07H
	DB	07H
	DB	07H
	DB	07H
	DB	07H
	DB	07H
	DB	07H
	DB	07H
	DB	07H
	DB	07H
	DB	07H
	DB	07H
	DB	07H
	DB	07H
	DB	07H
	DB	07H
	DB	07H
	DB	07H
	DB	07H
	DB	07H
	DB	07H
	DB	07H
	DB	07H
	DB	07H
	DB	07H
	DB	07H
	DB	07H
	DB	07H
	DB	07H
	DB	07H
	DB	07H
	DB	07H
	DB	07H
	DB	07H
	DB	012H
	DB	012H
	DB	012H
	DB	012H
	DB	012H
	DB	012H
	DB	012H
	DB	012H
	DB	012H
	DB	012H
	DB	012H
	DB	012H
	DB	012H
	DB	012H
	DB	012H
	DB	012H
	DB	012H
	DB	012H
	DB	012H
	DB	012H
	DB	012H
	DB	012H
	DB	012H
	DB	012H
	DB	012H
	DB	012H
	DB	012H
	DB	012H
	DB	012H
	DB	012H
	DB	012H
	DB	012H
	DB	012H
	DB	012H
	DB	012H
	DB	012H
	DB	012H
	DB	012H
	DB	012H
	DB	012H
	DB	012H
	DB	012H
	DB	012H
	DB	012H
	DB	012H
	DB	012H
	DB	012H
	DB	012H
	DB	012H
	DB	012H
	DB	012H
	DB	012H
	DB	012H
	DB	012H
	DB	09dH
	DB	0c1H
	DB	04cH
	DB	02H
	DB	04H
	DB	02H
	DB	0feH
	DB	07fH
	DB	07dH
	DB	092H
	DB	01bH
	DB	01bH
	DB	01bH
	DB	01bH
	DB	01bH
	DB	0eH
	DB	011H
	DB	01dH
	DB	0c1H
	DB	0aH
	DB	08H
	DB	03H
	DB	012H
	DB	05eH
	DB	048H
	DB	01fH
	DB	02H
	DB	02H
	DB	08dH
	DB	019H
	DB	032H
	DB	048H
	DB	041H
	DB	02H
	DB	04H
	DB	02H
	DB	063H
	DB	019H
	DB	0eH
	DB	01bH
	DB	01bH
	DB	01bH
	DB	01bH
	DB	01bH
	DB	01bH
	DB	0bfH
	DB	0aH
	DB	0aH
	DB	0aH
	DB	08H
	DB	012H
	DB	012H
	DB	012H
	DB	012H
	DB	05eH
	DB	048H
	DB	064H
	DB	02H
	DB	04H
	DB	02H
	DB	04cH
	DB	019H
	DB	0eH
	DB	0aH
	DB	0aH
	DB	0aH
	DB	0aH
	DB	0aH
	DB	0aH
	DB	0aH
	DB	066H
	DB	096H
	DB	039H
	DB	02H
	DB	04H
	DB	021H
	DB	027H
	DB	019H
	DB	010H
	DB	0aH
	DB	0aH
	DB	0aH
	DB	0aH
	DB	0aH
	DB	04fH
	DB	071H
	DB	02H
	DB	04H
	DB	04H
	DB	020H
	DB	02cH
	DB	04H
	DB	04H
	DB	02H
	DB	03fH
	DB	09H
	DB	0bcH
	DB	0beH
	DB	0aH
	DB	0aH
	DB	0aH
	DB	0aH
	DB	032H
	DB	05dH
	DB	0b7H
	DB	02H
	DB	04H
	DB	04H
	DB	039H
	DB	0baH
	DB	04H
	DB	04H
	DB	025H
	DB	028H
	DB	035H
	DB	0aH
	DB	0aH
	DB	0aH
	DB	0aH
	DB	0aH
	DB	0c1H
	DB	09H
	DB	03fH
	DB	02H
	DB	04H
	DB	04H
	DB	04H
	DB	04H
	DB	04H
	DB	04H
	DB	02H
	DB	01aH
	DB	04fH
	DB	0beH
	DB	0aH
	DB	0aH
	DB	0aH
	DB	0aH
	DB	0aH
	DB	035H
	DB	04dH
	DB	02H
	DB	04H
	DB	02H
	DB	034H
	DB	02dH
	DB	02bH
	DB	02H
	DB	04H
	DB	02H
	DB	02fH
	DB	057H
	DB	02H
	DB	04H
	DB	02H
	DB	0f4H
	DB	09H
	DB	01dH
	DB	0aH
	DB	0aH
	DB	0aH
	DB	0aH
	DB	0aH
	DB	032H
	DB	07eH
	DB	030H
	DB	02H
	DB	04H
	DB	021H
	DB	074H
	DB	011H
	DB	067H
	DB	066H
	DB	04fH
	DB	01bH
	DB	01bH
	DB	01bH
	DB	01bH
	DB	01bH
	DB	01bH
	DB	01bH
	DB	01bH
	DB	011H
	DB	037H
	DB	02H
	DB	04H
	DB	02H
	DB	016H
	DB	092H
	DB	032H
	DB	0aH
	DB	0aH
	DB	04fH
	DB	02fH
	DB	02H
	DB	04H
	DB	02H
	DB	025H
	DB	098H
	DB	011H
	DB	0aH
	DB	0aH
	DB	01dH
	DB	0a4H
	DB	04H
	DB	02H
	DB	04H
	DB	02H
	DB	070H
	DB	019H
	DB	0eH
	DB	01bH
	DB	01bH
	DB	01bH
	DB	01bH
	DB	0eH
	DB	0bdH
	DB	077H
	DB	02H
	DB	04H
	DB	02H
	DB	034H
	DB	034H
	DB	02H
	DB	04H
	DB	02H
	DB	02aH
	DB	0bdH
	DB	09H
	DB	01bH
	DB	01bH
	DB	01bH
	DB	01bH
	DB	01bH
	DB	01bH
	DB	0bcH
	DB	011H
	DB	032H
	DB	0c1H
	DB	0aH
	DB	08H
	DB	09cH
	DB	012H
	DB	012H
	DB	012H
	DB	012H
	DB	012H
	DB	012H
	DB	012H
	DB	012H
	DB	012H
	DB	012H
	DB	012H
	DB	012H
	DB	012H
	DB	012H
	DB	012H
	DB	012H
	DB	012H
	DB	012H
	DB	012H
	DB	012H
	DB	012H
	DB	012H
	DB	012H
	DB	012H
	DB	012H
	DB	012H
	DB	012H
	DB	012H
	DB	012H
	DB	012H
	DB	012H
	DB	012H
	DB	012H
	DB	012H
	DB	012H
	DB	012H
	DB	012H
	DB	012H
	DB	012H
	DB	012H
	DB	012H
	DB	012H
	DB	012H
	DB	012H
	DB	012H
	DB	012H
	DB	012H
	DB	012H
	DB	012H
	DB	03H
	DB	03H
	DB	03H
	DB	03H
	DB	03H
	DB	03H
	DB	03H
	DB	03H
	DB	03H
	DB	03H
	DB	03H
	DB	03H
	DB	03H
	DB	03H
	DB	03H
	DB	03H
	DB	03H
	DB	03H
	DB	03H
	DB	03H
	DB	03H
	DB	03H
	DB	03H
	DB	03H
	DB	03H
	DB	03H
	DB	03H
	DB	03H
	DB	03H
	DB	03H
	DB	03H
	DB	03H
	DB	03H
	DB	03H
	DB	03H
	DB	03H
	DB	03H
	DB	03H
	DB	03H
	DB	03H
	DB	03H
	DB	03H
	DB	03H
	DB	03H
	DB	03H
	DB	03H
	DB	03H
	DB	03H
	DB	03H
	DB	03H
	DB	03H
	DB	03H
	DB	03H
	DB	03H
	DB	09cH
	DB	01eH
	DB	088H
	DB	02H
	DB	04H
	DB	04H
	DB	02H
	DB	0fbH
	DB	01fH
	DB	01cH
	DB	01cH
	DB	01cH
	DB	01cH
	DB	01cH
	DB	01cH
	DB	01cH
	DB	0f0H
	DB	085H
	DB	01dH
	DB	03dH
	DB	03H
	DB	03H
	DB	09cH
	DB	01eH
	DB	0e6H
	DB	02H
	DB	02H
	DB	04eH
	DB	02eH
	DB	011H
	DB	032H
	DB	084H
	DB	020H
	DB	02H
	DB	04H
	DB	02H
	DB	0faH
	DB	01fH
	DB	01cH
	DB	01cH
	DB	01cH
	DB	01cH
	DB	01cH
	DB	01cH
	DB	0b3H
	DB	051H
	DB	01eH
	DB	03H
	DB	03H
	DB	03H
	DB	03H
	DB	03H
	DB	03H
	DB	03H
	DB	067H
	DB	084H
	DB	020H
	DB	02H
	DB	04H
	DB	021H
	DB	051H
	DB	011H
	DB	0c1H
	DB	03H
	DB	03H
	DB	03H
	DB	03H
	DB	03H
	DB	03H
	DB	03H
	DB	01eH
	DB	0a6H
	DB	02H
	DB	04H
	DB	02H
	DB	04H
	DB	062H
	DB	011H
	DB	08H
	DB	03H
	DB	03H
	DB	03H
	DB	03H
	DB	03H
	DB	032H
	DB	044H
	DB	021H
	DB	04H
	DB	04H
	DB	0b9H
	DB	0b9H
	DB	04H
	DB	04H
	DB	021H
	DB	0abH
	DB	019H
	DB	0aH
	DB	03dH
	DB	03H
	DB	03H
	DB	03H
	DB	03H
	DB	01eH
	DB	052H
	DB	0bH
	DB	02H
	DB	04H
	DB	025H
	DB	02cH
	DB	04H
	DB	04H
	DB	02H
	DB	01fH
	DB	09H
	DB	04fH
	DB	066H
	DB	032H
	DB	032H
	DB	032H
	DB	032H
	DB	066H
	DB	05dH
	DB	02bH
	DB	02H
	DB	04H
	DB	04H
	DB	04H
	DB	04H
	DB	04H
	DB	02H
	DB	02cH
	DB	031H
	DB	01dH
	DB	08H
	DB	03H
	DB	03H
	DB	03H
	DB	03H
	DB	03H
	DB	010H
	DB	0b3H
	DB	02H
	DB	04H
	DB	02H
	DB	057H
	DB	017H
	DB	02H
	DB	02H
	DB	04H
	DB	02H
	DB	017H
	DB	040H
	DB	02H
	DB	04H
	DB	02H
	DB	0efH
	DB	019H
	DB	0c1H
	DB	03dH
	DB	03H
	DB	03H
	DB	03H
	DB	03H
	DB	01eH
	DB	06eH
	DB	02H
	DB	04H
	DB	02H
	DB	04H
	DB	017H
	DB	019H
	DB	0c7H
	DB	0aaH
	DB	079H
	DB	02aH
	DB	01cH
	DB	01cH
	DB	01cH
	DB	01cH
	DB	01cH
	DB	01cH
	DB	01cH
	DB	02aH
	DB	020H
	DB	02H
	DB	04H
	DB	021H
	DB	063H
	DB	011H
	DB	0c1H
	DB	03H
	DB	03H
	DB	032H
	DB	04dH
	DB	021H
	DB	04H
	DB	02H
	DB	038H
	DB	0bdH
	DB	032H
	DB	03dH
	DB	03H
	DB	01eH
	DB	02fH
	DB	02H
	DB	04H
	DB	04H
	DB	04H
	DB	034H
	DB	01cH
	DB	01cH
	DB	01cH
	DB	01cH
	DB	01cH
	DB	01cH
	DB	01fH
	DB	038H
	DB	02H
	DB	04H
	DB	02H
	DB	02H
	DB	01aH
	DB	04dH
	DB	021H
	DB	04H
	DB	04H
	DB	04H
	DB	034H
	DB	01fH
	DB	01cH
	DB	01cH
	DB	01cH
	DB	01cH
	DB	01cH
	DB	01cH
	DB	01fH
	DB	056H
	DB	07fH
	DB	032H
	DB	03H
	DB	03H
	DB	03H
	DB	03H
	DB	03H
	DB	03H
	DB	03H
	DB	03H
	DB	03H
	DB	03H
	DB	03H
	DB	03H
	DB	03H
	DB	03H
	DB	03H
	DB	03H
	DB	03H
	DB	03H
	DB	03H
	DB	03H
	DB	03H
	DB	03H
	DB	03H
	DB	03H
	DB	03H
	DB	03H
	DB	03H
	DB	03H
	DB	03H
	DB	03H
	DB	03H
	DB	03H
	DB	03H
	DB	03H
	DB	03H
	DB	03H
	DB	03H
	DB	03H
	DB	03H
	DB	03H
	DB	03H
	DB	03H
	DB	03H
	DB	03H
	DB	03H
	DB	03H
	DB	03H
	DB	03H
	DB	03H
	DB	03H
	DB	03H
	DB	03H
	DB	03dH
	DB	03dH
	DB	03dH
	DB	03dH
	DB	03dH
	DB	03dH
	DB	03dH
	DB	03dH
	DB	03dH
	DB	03dH
	DB	03dH
	DB	03dH
	DB	03dH
	DB	03dH
	DB	03dH
	DB	03dH
	DB	03dH
	DB	03dH
	DB	03dH
	DB	03dH
	DB	03dH
	DB	03dH
	DB	03dH
	DB	03dH
	DB	03dH
	DB	03dH
	DB	03dH
	DB	03dH
	DB	03dH
	DB	03dH
	DB	03dH
	DB	03dH
	DB	03dH
	DB	03dH
	DB	03dH
	DB	03dH
	DB	03dH
	DB	03dH
	DB	03dH
	DB	03dH
	DB	03dH
	DB	03dH
	DB	03dH
	DB	03dH
	DB	03dH
	DB	03dH
	DB	03dH
	DB	03dH
	DB	03dH
	DB	03dH
	DB	03dH
	DB	03dH
	DB	03dH
	DB	03dH
	DB	03dH
	DB	067H
	DB	048H
	DB	01fH
	DB	021H
	DB	02H
	DB	04H
	DB	02H
	DB	02H
	DB	02H
	DB	02H
	DB	02H
	DB	02H
	DB	02H
	DB	02H
	DB	02H
	DB	021H
	DB	0bH
	DB	0a9H
	DB	01dH
	DB	03H
	DB	03dH
	DB	067H
	DB	048H
	DB	0b4H
	DB	02H
	DB	02H
	DB	076H
	DB	019H
	DB	010H
	DB	01dH
	DB	072H
	DB	02H
	DB	04H
	DB	04H
	DB	04H
	DB	02H
	DB	02H
	DB	02H
	DB	02H
	DB	02H
	DB	02H
	DB	02H
	DB	02H
	DB	021H
	DB	085H
	DB	066H
	DB	03dH
	DB	03dH
	DB	03dH
	DB	03dH
	DB	03dH
	DB	03dH
	DB	03H
	DB	066H
	DB	072H
	DB	02H
	DB	04H
	DB	02H
	DB	025H
	DB	098H
	DB	04fH
	DB	08H
	DB	03dH
	DB	03dH
	DB	03dH
	DB	03dH
	DB	03dH
	DB	03dH
	DB	03dH
	DB	032H
	DB	08aH
	DB	02H
	DB	04H
	DB	02H
	DB	039H
	DB	028H
	DB	01dH
	DB	08H
	DB	03dH
	DB	03dH
	DB	03dH
	DB	03dH
	DB	03dH
	DB	048H
	DB	016H
	DB	02H
	DB	04H
	DB	04H
	DB	020H
	DB	025H
	DB	04H
	DB	04H
	DB	02H
	DB	070H
	DB	011H
	DB	08H
	DB	03dH
	DB	03dH
	DB	03dH
	DB	03dH
	DB	03H
	DB	066H
	DB	054H
	DB	021H
	DB	04H
	DB	04H
	DB	020H
	DB	04eH
	DB	04H
	DB	04H
	DB	02H
	DB	01fH
	DB	052H
	DB	0e6H
	DB	049H
	DB	049H
	DB	049H
	DB	049H
	DB	0e6H
	DB	02fH
	DB	0f5H
	DB	02H
	DB	04H
	DB	04H
	DB	07cH
	DB	0baH
	DB	04H
	DB	04H
	DB	02H
	DB	01fH
	DB	091H
	DB	032H
	DB	08H
	DB	03dH
	DB	03dH
	DB	03dH
	DB	03dH
	DB	067H
	DB	096H
	DB	0b7H
	DB	02H
	DB	04H
	DB	021H
	DB	02fH
	DB	08aH
	DB	021H
	DB	04H
	DB	02H
	DB	041H
	DB	062H
	DB	025H
	DB	04H
	DB	04H
	DB	02H
	DB	072H
	DB	011H
	DB	08H
	DB	03dH
	DB	03dH
	DB	03dH
	DB	03dH
	DB	03dH
	DB	032H
	DB	0aaH
	DB	02H
	DB	04H
	DB	02H
	DB	0b8H
	DB	031H
	DB	0dcH
	DB	064H
	DB	02H
	DB	021H
	DB	02H
	DB	02H
	DB	02H
	DB	02H
	DB	02H
	DB	02H
	DB	02H
	DB	02H
	DB	02H
	DB	02H
	DB	04H
	DB	04H
	DB	02H
	DB	088H
	DB	019H
	DB	08H
	DB	03dH
	DB	03dH
	DB	048H
	DB	02aH
	DB	02H
	DB	04H
	DB	02H
	DB	079H
	DB	019H
	DB	0aH
	DB	03dH
	DB	03H
	DB	032H
	DB	0b0H
	DB	02H
	DB	04H
	DB	04H
	DB	04H
	DB	02H
	DB	02H
	DB	02H
	DB	02H
	DB	02H
	DB	02H
	DB	02H
	DB	02H
	DB	02H
	DB	02H
	DB	021H
	DB	04eH
	DB	088H
	DB	00H
	DB	07fH
	DB	039H
	DB	02H
	DB	0bH
	DB	04H
	DB	02H
	DB	02H
	DB	02H
	DB	02H
	DB	02H
	DB	02H
	DB	02H
	DB	02H
	DB	02H
	DB	021H
	DB	07bH
	DB	06eH
	DB	01eH
	DB	03H
	DB	03dH
	DB	03dH
	DB	03dH
	DB	03dH
	DB	03dH
	DB	03dH
	DB	03dH
	DB	03dH
	DB	03dH
	DB	03dH
	DB	03dH
	DB	03dH
	DB	03dH
	DB	03dH
	DB	03dH
	DB	03dH
	DB	03dH
	DB	03dH
	DB	03dH
	DB	03dH
	DB	03dH
	DB	03dH
	DB	03dH
	DB	03dH
	DB	03dH
	DB	03dH
	DB	03dH
	DB	03dH
	DB	03dH
	DB	03dH
	DB	03dH
	DB	03dH
	DB	03dH
	DB	03dH
	DB	03dH
	DB	03dH
	DB	03dH
	DB	03dH
	DB	03dH
	DB	03dH
	DB	03dH
	DB	03dH
	DB	03dH
	DB	03dH
	DB	03dH
	DB	03dH
	DB	03dH
	DB	03dH
	DB	03dH
	DB	03dH
	DB	08H
	DB	08H
	DB	08H
	DB	08H
	DB	08H
	DB	08H
	DB	08H
	DB	08H
	DB	08H
	DB	08H
	DB	08H
	DB	08H
	DB	08H
	DB	08H
	DB	08H
	DB	08H
	DB	08H
	DB	08H
	DB	08H
	DB	08H
	DB	08H
	DB	08H
	DB	08H
	DB	08H
	DB	08H
	DB	08H
	DB	08H
	DB	08H
	DB	08H
	DB	08H
	DB	08H
	DB	08H
	DB	08H
	DB	08H
	DB	08H
	DB	08H
	DB	08H
	DB	08H
	DB	08H
	DB	08H
	DB	08H
	DB	08H
	DB	08H
	DB	08H
	DB	08H
	DB	08H
	DB	08H
	DB	08H
	DB	08H
	DB	08H
	DB	08H
	DB	08H
	DB	08H
	DB	08H
	DB	08H
	DB	08H
	DB	032H
	DB	028H
	DB	037H
	DB	04eH
	DB	021H
	DB	021H
	DB	021H
	DB	021H
	DB	021H
	DB	021H
	DB	021H
	DB	021H
	DB	02H
	DB	04H
	DB	04H
	DB	02H
	DB	090H
	DB	09bH
	DB	0beH
	DB	08H
	DB	01dH
	DB	02fH
	DB	02H
	DB	02H
	DB	065H
	DB	02dH
	DB	019H
	DB	010H
	DB	01dH
	DB	04dH
	DB	02H
	DB	04H
	DB	04H
	DB	02H
	DB	021H
	DB	021H
	DB	021H
	DB	021H
	DB	021H
	DB	021H
	DB	021H
	DB	021H
	DB	0b8H
	DB	02dH
	DB	01dH
	DB	0c1H
	DB	08H
	DB	08H
	DB	08H
	DB	08H
	DB	08H
	DB	08H
	DB	01dH
	DB	04dH
	DB	02H
	DB	04H
	DB	02H
	DB	038H
	DB	0bdH
	DB	0bcH
	DB	0c1H
	DB	08H
	DB	08H
	DB	08H
	DB	08H
	DB	08H
	DB	08H
	DB	08H
	DB	0bcH
	DB	037H
	DB	02H
	DB	04H
	DB	02H
	DB	040H
	DB	0dH
	DB	010H
	DB	0c1H
	DB	08H
	DB	08H
	DB	08H
	DB	08H
	DB	0c1H
	DB	07eH
	DB	03cH
	DB	02H
	DB	04H
	DB	04H
	DB	02cH
	DB	04H
	DB	04H
	DB	02H
	DB	0b9H
	DB	098H
	DB	011H
	DB	0c1H
	DB	08H
	DB	08H
	DB	08H
	DB	08H
	DB	0c1H
	DB	010H
	DB	045H
	DB	02H
	DB	04H
	DB	04H
	DB	020H
	DB	020H
	DB	04H
	DB	04H
	DB	04H
	DB	02H
	DB	02H
	DB	02H
	DB	02H
	DB	02H
	DB	02H
	DB	02H
	DB	02H
	DB	02H
	DB	02H
	DB	04H
	DB	04H
	DB	02H
	DB	0f5H
	DB	0faH
	DB	02H
	DB	04H
	DB	021H
	DB	04dH
	DB	019H
	DB	010H
	DB	08H
	DB	08H
	DB	08H
	DB	08H
	DB	08H
	DB	066H
	DB	0e3H
	DB	04H
	DB	02H
	DB	04H
	DB	02H
	DB	06eH
	DB	018H
	DB	02H
	DB	04H
	DB	02H
	DB	08eH
	DB	087H
	DB	02H
	DB	04H
	DB	04H
	DB	02H
	DB	02eH
	DB	011H
	DB	0aH
	DB	08H
	DB	08H
	DB	08H
	DB	08H
	DB	08H
	DB	01dH
	DB	018H
	DB	02H
	DB	04H
	DB	02H
	DB	02aH
	DB	062H
	DB	090H
	DB	02H
	DB	04H
	DB	02H
	DB	021H
	DB	021H
	DB	021H
	DB	021H
	DB	021H
	DB	021H
	DB	021H
	DB	021H
	DB	02H
	DB	04H
	DB	04H
	DB	02H
	DB	020H
	DB	050H
	DB	011H
	DB	0c1H
	DB	08H
	DB	0c1H
	DB	07eH
	DB	02cH
	DB	02H
	DB	04H
	DB	02H
	DB	055H
	DB	019H
	DB	0aH
	DB	08H
	DB	08H
	DB	0eH
	DB	034H
	DB	02H
	DB	04H
	DB	04H
	DB	02H
	DB	021H
	DB	021H
	DB	021H
	DB	021H
	DB	021H
	DB	021H
	DB	021H
	DB	021H
	DB	021H
	DB	02cH
	DB	037H
	DB	026H
	DB	019H
	DB	0bcH
	DB	011H
	DB	01aH
	DB	02aH
	DB	02H
	DB	021H
	DB	021H
	DB	021H
	DB	021H
	DB	021H
	DB	021H
	DB	021H
	DB	021H
	DB	02H
	DB	04H
	DB	04H
	DB	02H
	DB	034H
	DB	048H
	DB	0c1H
	DB	08H
	DB	08H
	DB	08H
	DB	08H
	DB	08H
	DB	08H
	DB	08H
	DB	08H
	DB	08H
	DB	08H
	DB	08H
	DB	08H
	DB	08H
	DB	08H
	DB	08H
	DB	08H
	DB	08H
	DB	08H
	DB	08H
	DB	08H
	DB	08H
	DB	08H
	DB	08H
	DB	08H
	DB	08H
	DB	08H
	DB	08H
	DB	08H
	DB	08H
	DB	08H
	DB	08H
	DB	08H
	DB	08H
	DB	08H
	DB	08H
	DB	08H
	DB	08H
	DB	08H
	DB	08H
	DB	08H
	DB	08H
	DB	08H
	DB	08H
	DB	08H
	DB	08H
	DB	08H
	DB	08H
	DB	08H
	DB	08H
	DB	08H
	DB	0aH
	DB	0aH
	DB	0aH
	DB	0aH
	DB	0aH
	DB	0aH
	DB	0aH
	DB	0aH
	DB	0aH
	DB	0aH
	DB	0aH
	DB	0aH
	DB	0aH
	DB	0aH
	DB	0aH
	DB	0aH
	DB	0aH
	DB	0aH
	DB	0aH
	DB	0aH
	DB	0aH
	DB	0aH
	DB	0aH
	DB	0aH
	DB	0aH
	DB	0aH
	DB	0aH
	DB	0aH
	DB	0aH
	DB	0aH
	DB	0aH
	DB	0aH
	DB	0aH
	DB	0aH
	DB	0aH
	DB	0aH
	DB	0aH
	DB	0aH
	DB	0aH
	DB	0aH
	DB	0aH
	DB	0aH
	DB	0aH
	DB	0aH
	DB	0aH
	DB	0aH
	DB	0aH
	DB	0aH
	DB	0aH
	DB	0aH
	DB	0aH
	DB	0aH
	DB	0aH
	DB	0aH
	DB	0aH
	DB	0aH
	DB	0c1H
	DB	01dH
	DB	09H
	DB	026H
	DB	01aH
	DB	01aH
	DB	01aH
	DB	01aH
	DB	01aH
	DB	01aH
	DB	01aH
	DB	0dcH
	DB	08bH
	DB	04H
	DB	04H
	DB	04H
	DB	021H
	DB	027H
	DB	011H
	DB	0beH
	DB	0bdH
	DB	03bH
	DB	02H
	DB	02H
	DB	044H
	DB	00H
	DB	0eH
	DB	032H
	DB	0bfH
	DB	01fH
	DB	02H
	DB	04H
	DB	02H
	DB	01cH
	DB	050H
	DB	01aH
	DB	01aH
	DB	01aH
	DB	01aH
	DB	01aH
	DB	01aH
	DB	06eH
	DB	050H
	DB	024H
	DB	0eH
	DB	0aH
	DB	0aH
	DB	0aH
	DB	0aH
	DB	0aH
	DB	0aH
	DB	0beH
	DB	0bfH
	DB	01fH
	DB	02H
	DB	04H
	DB	02H
	DB	078H
	DB	019H
	DB	0eH
	DB	0aH
	DB	0aH
	DB	0aH
	DB	0aH
	DB	0aH
	DB	0aH
	DB	0aH
	DB	0aH
	DB	01bH
	DB	0faH
	DB	02H
	DB	04H
	DB	02H
	DB	044H
	DB	019H
	DB	010H
	DB	0aH
	DB	0aH
	DB	0aH
	DB	0aH
	DB	0aH
	DB	01dH
	DB	01aH
	DB	0bH
	DB	04H
	DB	04H
	DB	07cH
	DB	02bH
	DB	04H
	DB	04H
	DB	02H
	DB	03bH
	DB	024H
	DB	0eH
	DB	0aH
	DB	0aH
	DB	0aH
	DB	0aH
	DB	0aH
	DB	0beH
	DB	048H
	DB	0faH
	DB	02H
	DB	04H
	DB	04H
	DB	02bH
	DB	0baH
	DB	04H
	DB	04H
	DB	04H
	DB	04H
	DB	04H
	DB	04H
	DB	04H
	DB	04H
	DB	04H
	DB	04H
	DB	04H
	DB	04H
	DB	04H
	DB	02H
	DB	02H
	DB	0b2H
	DB	062H
	DB	020H
	DB	02H
	DB	04H
	DB	02H
	DB	071H
	DB	019H
	DB	010H
	DB	0aH
	DB	0aH
	DB	0aH
	DB	0aH
	DB	0c1H
	DB	04fH
	DB	027H
	DB	021H
	DB	04H
	DB	02H
	DB	030H
	DB	0ccH
	DB	038H
	DB	02H
	DB	04H
	DB	02H
	DB	04bH
	DB	055H
	DB	02H
	DB	04H
	DB	02H
	DB	030H
	DB	093H
	DB	035H
	DB	0aH
	DB	0aH
	DB	0aH
	DB	0aH
	DB	0aH
	DB	0aH
	DB	091H
	DB	038H
	DB	02H
	DB	04H
	DB	02H
	DB	016H
	DB	041H
	DB	02H
	DB	04H
	DB	02H
	DB	058H
	DB	06eH
	DB	01aH
	DB	01aH
	DB	01aH
	DB	01aH
	DB	01aH
	DB	01aH
	DB	0dcH
	DB	037H
	DB	02H
	DB	04H
	DB	02H
	DB	041H
	DB	091H
	DB	0bcH
	DB	0aH
	DB	0c1H
	DB	01dH
	DB	062H
	DB	02H
	DB	04H
	DB	04H
	DB	02H
	DB	022H
	DB	011H
	DB	010H
	DB	0aH
	DB	032H
	DB	05dH
	DB	02bH
	DB	02H
	DB	04H
	DB	02H
	DB	04bH
	DB	02eH
	DB	01aH
	DB	01aH
	DB	01aH
	DB	01aH
	DB	01aH
	DB	01aH
	DB	06eH
	DB	01aH
	DB	02dH
	DB	046H
	DB	019H
	DB	09H
	DB	01bH
	DB	0aH
	DB	035H
	DB	01bH
	DB	050H
	DB	06eH
	DB	01aH
	DB	01aH
	DB	01aH
	DB	01aH
	DB	01aH
	DB	01aH
	DB	01aH
	DB	077H
	DB	02H
	DB	04H
	DB	04H
	DB	02H
	DB	0a4H
	DB	01dH
	DB	0aH
	DB	0aH
	DB	0aH
	DB	0aH
	DB	0aH
	DB	0aH
	DB	0aH
	DB	0aH
	DB	0aH
	DB	0aH
	DB	0aH
	DB	0aH
	DB	0aH
	DB	0aH
	DB	0aH
	DB	0aH
	DB	0aH
	DB	0aH
	DB	0aH
	DB	0aH
	DB	0aH
	DB	0aH
	DB	0aH
	DB	0aH
	DB	0aH
	DB	0aH
	DB	0aH
	DB	0aH
	DB	0aH
	DB	0aH
	DB	0aH
	DB	0aH
	DB	0aH
	DB	0aH
	DB	0aH
	DB	0aH
	DB	0aH
	DB	0aH
	DB	0aH
	DB	0aH
	DB	0aH
	DB	0aH
	DB	0aH
	DB	0aH
	DB	0aH
	DB	0aH
	DB	0aH
	DB	0aH
	DB	0aH
	DB	0aH
	DB	010H
	DB	010H
	DB	010H
	DB	010H
	DB	010H
	DB	010H
	DB	010H
	DB	010H
	DB	010H
	DB	010H
	DB	010H
	DB	010H
	DB	010H
	DB	010H
	DB	010H
	DB	010H
	DB	010H
	DB	010H
	DB	010H
	DB	010H
	DB	010H
	DB	010H
	DB	010H
	DB	010H
	DB	010H
	DB	010H
	DB	010H
	DB	010H
	DB	010H
	DB	010H
	DB	010H
	DB	010H
	DB	010H
	DB	010H
	DB	010H
	DB	010H
	DB	010H
	DB	010H
	DB	010H
	DB	010H
	DB	010H
	DB	010H
	DB	010H
	DB	010H
	DB	010H
	DB	010H
	DB	010H
	DB	010H
	DB	010H
	DB	010H
	DB	010H
	DB	010H
	DB	010H
	DB	010H
	DB	010H
	DB	010H
	DB	04fH
	DB	04fH
	DB	011H
	DB	019H
	DB	00H
	DB	00H
	DB	00H
	DB	00H
	DB	00H
	DB	00H
	DB	00H
	DB	00H
	DB	02dH
	DB	0b9H
	DB	02H
	DB	04H
	DB	021H
	DB	08aH
	DB	019H
	DB	011H
	DB	089H
	DB	02H
	DB	02H
	DB	065H
	DB	0c6H
	DB	019H
	DB	0eH
	DB	01dH
	DB	0c7H
	DB	02cH
	DB	02H
	DB	04H
	DB	02H
	DB	054H
	DB	00H
	DB	019H
	DB	019H
	DB	019H
	DB	019H
	DB	019H
	DB	019H
	DB	019H
	DB	019H
	DB	09H
	DB	0eH
	DB	010H
	DB	010H
	DB	010H
	DB	010H
	DB	010H
	DB	010H
	DB	01dH
	DB	028H
	DB	020H
	DB	02H
	DB	04H
	DB	02H
	DB	04bH
	DB	00H
	DB	011H
	DB	04fH
	DB	04fH
	DB	04fH
	DB	04fH
	DB	04fH
	DB	04fH
	DB	04fH
	DB	011H
	DB	07fH
	DB	0b9H
	DB	02H
	DB	04H
	DB	021H
	DB	02fH
	DB	00H
	DB	011H
	DB	04fH
	DB	04fH
	DB	04fH
	DB	04fH
	DB	04fH
	DB	019H
	DB	04bH
	DB	02H
	DB	04H
	DB	04H
	DB	025H
	DB	025H
	DB	04H
	DB	04H
	DB	02H
	DB	08eH
	DB	00H
	DB	019H
	DB	011H
	DB	04fH
	DB	04fH
	DB	04fH
	DB	04fH
	DB	011H
	DB	06eH
	DB	02H
	DB	04H
	DB	04H
	DB	07cH
	DB	0b7H
	DB	04H
	DB	04H
	DB	04H
	DB	02H
	DB	02H
	DB	04H
	DB	04H
	DB	04H
	DB	04H
	DB	04H
	DB	02H
	DB	021H
	DB	021H
	DB	02H
	DB	0b9H
	DB	055H
	DB	046H
	DB	017H
	DB	021H
	DB	04H
	DB	02H
	DB	02cH
	DB	026H
	DB	019H
	DB	011H
	DB	04fH
	DB	04fH
	DB	04fH
	DB	04fH
	DB	011H
	DB	091H
	DB	03fH
	DB	02H
	DB	04H
	DB	02H
	DB	016H
	DB	0ccH
	DB	04H
	DB	04H
	DB	04H
	DB	02H
	DB	087H
	DB	037H
	DB	02H
	DB	04H
	DB	02H
	DB	058H
	DB	09H
	DB	035H
	DB	010H
	DB	010H
	DB	010H
	DB	010H
	DB	010H
	DB	01dH
	DB	097H
	DB	065H
	DB	02H
	DB	04H
	DB	02H
	DB	039H
	DB	07cH
	DB	04H
	DB	04H
	DB	04H
	DB	028H
	DB	00H
	DB	00H
	DB	00H
	DB	00H
	DB	00H
	DB	00H
	DB	00H
	DB	00H
	DB	0f4H
	DB	02H
	DB	04H
	DB	02H
	DB	058H
	DB	019H
	DB	0eH
	DB	010H
	DB	0c0H
	DB	011H
	DB	04aH
	DB	02H
	DB	04H
	DB	02H
	DB	025H
	DB	028H
	DB	011H
	DB	010H
	DB	010H
	DB	04fH
	DB	06fH
	DB	04H
	DB	02H
	DB	04H
	DB	021H
	DB	022H
	DB	00H
	DB	00H
	DB	00H
	DB	00H
	DB	00H
	DB	00H
	DB	00H
	DB	00H
	DB	00H
	DB	00H
	DB	019H
	DB	07dH
	DB	01bH
	DB	0eH
	DB	04fH
	DB	04fH
	DB	011H
	DB	019H
	DB	00H
	DB	00H
	DB	00H
	DB	00H
	DB	00H
	DB	00H
	DB	00H
	DB	00H
	DB	043H
	DB	02H
	DB	04H
	DB	04H
	DB	02H
	DB	01aH
	DB	011H
	DB	010H
	DB	010H
	DB	010H
	DB	010H
	DB	010H
	DB	010H
	DB	010H
	DB	010H
	DB	010H
	DB	010H
	DB	010H
	DB	010H
	DB	010H
	DB	010H
	DB	010H
	DB	010H
	DB	010H
	DB	010H
	DB	010H
	DB	010H
	DB	010H
	DB	010H
	DB	010H
	DB	010H
	DB	010H
	DB	010H
	DB	010H
	DB	010H
	DB	010H
	DB	010H
	DB	010H
	DB	010H
	DB	010H
	DB	010H
	DB	010H
	DB	010H
	DB	010H
	DB	010H
	DB	010H
	DB	010H
	DB	010H
	DB	010H
	DB	010H
	DB	010H
	DB	010H
	DB	010H
	DB	010H
	DB	010H
	DB	010H
	DB	010H
	DB	0eH
	DB	0eH
	DB	0eH
	DB	0eH
	DB	0eH
	DB	0eH
	DB	0eH
	DB	0eH
	DB	0eH
	DB	0eH
	DB	0eH
	DB	0eH
	DB	0eH
	DB	0eH
	DB	0eH
	DB	0eH
	DB	0eH
	DB	0eH
	DB	0eH
	DB	0eH
	DB	0eH
	DB	0eH
	DB	0eH
	DB	0eH
	DB	0eH
	DB	0eH
	DB	0eH
	DB	0eH
	DB	0eH
	DB	0eH
	DB	0eH
	DB	0eH
	DB	0eH
	DB	0eH
	DB	0eH
	DB	0eH
	DB	0eH
	DB	0eH
	DB	0eH
	DB	0eH
	DB	0eH
	DB	0eH
	DB	0eH
	DB	0eH
	DB	0eH
	DB	0eH
	DB	0eH
	DB	0eH
	DB	0eH
	DB	0eH
	DB	0eH
	DB	0eH
	DB	0eH
	DB	0eH
	DB	01bH
	DB	07dH
	DB	022H
	DB	06fH
	DB	086H
	DB	086H
	DB	017H
	DB	017H
	DB	017H
	DB	017H
	DB	017H
	DB	017H
	DB	017H
	DB	051H
	DB	01fH
	DB	02H
	DB	04H
	DB	02H
	DB	05aH
	DB	01aH
	DB	019H
	DB	028H
	DB	0fcH
	DB	02H
	DB	02H
	DB	074H
	DB	00H
	DB	07dH
	DB	0eH
	DB	011H
	DB	022H
	DB	02H
	DB	04H
	DB	04H
	DB	02H
	DB	062H
	DB	019H
	DB	09H
	DB	0bcH
	DB	0bcH
	DB	0bcH
	DB	0bcH
	DB	0bcH
	DB	0bcH
	DB	0bcH
	DB	0eH
	DB	0eH
	DB	0eH
	DB	0eH
	DB	0eH
	DB	0eH
	DB	0eH
	DB	0eH
	DB	04fH
	DB	02eH
	DB	02H
	DB	04H
	DB	04H
	DB	02H
	DB	041H
	DB	043H
	DB	017H
	DB	086H
	DB	086H
	DB	086H
	DB	086H
	DB	086H
	DB	086H
	DB	086H
	DB	062H
	DB	04bH
	DB	04H
	DB	04H
	DB	04H
	DB	02H
	DB	040H
	DB	052H
	DB	017H
	DB	086H
	DB	086H
	DB	086H
	DB	086H
	DB	085H
	DB	08cH
	DB	04eH
	DB	02H
	DB	04H
	DB	02H
	DB	07aH
	DB	07bH
	DB	02H
	DB	04H
	DB	02H
	DB	02cH
	DB	053H
	DB	062H
	DB	086H
	DB	086H
	DB	086H
	DB	086H
	DB	017H
	DB	02fH
	DB	0fbH
	DB	02H
	DB	04H
	DB	02H
	DB	065H
	DB	039H
	DB	04H
	DB	04H
	DB	04H
	DB	02bH
	DB	065H
	DB	02H
	DB	04H
	DB	04H
	DB	04H
	DB	04H
	DB	016H
	DB	076H
	DB	057H
	DB	0a9H
	DB	0c6H
	DB	00H
	DB	00H
	DB	075H
	DB	02H
	DB	04H
	DB	02H
	DB	0feH
	DB	043H
	DB	017H
	DB	017H
	DB	086H
	DB	086H
	DB	086H
	DB	017H
	DB	017H
	DB	033H
	DB	02H
	DB	04H
	DB	04H
	DB	021H
	DB	054H
	DB	051H
	DB	02H
	DB	04H
	DB	04H
	DB	05aH
	DB	017H
	DB	03bH
	DB	02H
	DB	04H
	DB	021H
	DB	08cH
	DB	00H
	DB	0bcH
	DB	0eH
	DB	0eH
	DB	0eH
	DB	0eH
	DB	0eH
	DB	011H
	DB	052H
	DB	02H
	DB	04H
	DB	04H
	DB	020H
	DB	0b9H
	DB	04H
	DB	04H
	DB	04H
	DB	02H
	DB	0adH
	DB	062H
	DB	017H
	DB	017H
	DB	017H
	DB	017H
	DB	017H
	DB	017H
	DB	087H
	DB	065H
	DB	02H
	DB	04H
	DB	02H
	DB	054H
	DB	019H
	DB	0bcH
	DB	0eH
	DB	0eH
	DB	019H
	DB	079H
	DB	02H
	DB	04H
	DB	02H
	DB	040H
	DB	047H
	DB	07dH
	DB	0eH
	DB	0eH
	DB	019H
	DB	0e8H
	DB	021H
	DB	04H
	DB	04H
	DB	02H
	DB	033H
	DB	062H
	DB	017H
	DB	017H
	DB	017H
	DB	017H
	DB	017H
	DB	017H
	DB	017H
	DB	017H
	DB	017H
	DB	051H
	DB	096H
	DB	035H
	DB	0bdH
	DB	017H
	DB	086H
	DB	086H
	DB	086H
	DB	017H
	DB	017H
	DB	017H
	DB	017H
	DB	017H
	DB	017H
	DB	017H
	DB	02fH
	DB	0fbH
	DB	02H
	DB	04H
	DB	02H
	DB	030H
	DB	05bH
	DB	011H
	DB	0eH
	DB	0eH
	DB	0eH
	DB	0eH
	DB	0eH
	DB	0eH
	DB	0eH
	DB	0eH
	DB	0eH
	DB	0eH
	DB	0eH
	DB	0eH
	DB	0eH
	DB	0eH
	DB	0eH
	DB	0eH
	DB	0eH
	DB	0eH
	DB	0eH
	DB	0eH
	DB	0eH
	DB	0eH
	DB	0eH
	DB	0eH
	DB	0eH
	DB	0eH
	DB	0eH
	DB	0eH
	DB	0eH
	DB	0eH
	DB	0eH
	DB	0eH
	DB	0eH
	DB	0eH
	DB	0eH
	DB	0eH
	DB	0eH
	DB	0eH
	DB	0eH
	DB	0eH
	DB	0eH
	DB	0eH
	DB	0eH
	DB	0eH
	DB	0eH
	DB	0eH
	DB	0eH
	DB	0eH
	DB	0eH
	DB	0eH
	DB	0bcH
	DB	0bcH
	DB	0bcH
	DB	0bcH
	DB	0bcH
	DB	0bcH
	DB	0bcH
	DB	0bcH
	DB	0bcH
	DB	0bcH
	DB	0bcH
	DB	0bcH
	DB	0bcH
	DB	0bcH
	DB	0bcH
	DB	0bcH
	DB	0bcH
	DB	0bcH
	DB	0bcH
	DB	0bcH
	DB	0bcH
	DB	0bcH
	DB	0bcH
	DB	0bcH
	DB	0bcH
	DB	0bcH
	DB	0bcH
	DB	0bcH
	DB	0bcH
	DB	0bcH
	DB	0bcH
	DB	0bcH
	DB	0bcH
	DB	0bcH
	DB	0bcH
	DB	0bcH
	DB	0bcH
	DB	0bcH
	DB	0bcH
	DB	0bcH
	DB	0bcH
	DB	0bcH
	DB	0bcH
	DB	0bcH
	DB	0bcH
	DB	0bcH
	DB	0bcH
	DB	0bcH
	DB	0bcH
	DB	0bcH
	DB	0bcH
	DB	0bcH
	DB	0bcH
	DB	0bcH
	DB	07dH
	DB	031H
	DB	08fH
	DB	021H
	DB	021H
	DB	021H
	DB	021H
	DB	021H
	DB	021H
	DB	021H
	DB	021H
	DB	021H
	DB	021H
	DB	021H
	DB	02H
	DB	04H
	DB	04H
	DB	021H
	DB	037H
	DB	00H
	DB	00H
	DB	055H
	DB	02H
	DB	02H
	DB	030H
	DB	093H
	DB	019H
	DB	09H
	DB	0bcH
	DB	019H
	DB	08aH
	DB	02H
	DB	04H
	DB	04H
	DB	0baH
	DB	028H
	DB	019H
	DB	09H
	DB	0bcH
	DB	0bcH
	DB	0bcH
	DB	0bcH
	DB	0bcH
	DB	0bcH
	DB	0bcH
	DB	0bcH
	DB	0bcH
	DB	0bcH
	DB	0bcH
	DB	0bcH
	DB	0bcH
	DB	0bcH
	DB	0bcH
	DB	011H
	DB	02dH
	DB	0baH
	DB	02H
	DB	04H
	DB	04H
	DB	02H
	DB	021H
	DB	021H
	DB	021H
	DB	021H
	DB	021H
	DB	021H
	DB	021H
	DB	021H
	DB	021H
	DB	021H
	DB	01cH
	DB	039H
	DB	02H
	DB	04H
	DB	04H
	DB	02H
	DB	021H
	DB	021H
	DB	021H
	DB	021H
	DB	021H
	DB	021H
	DB	021H
	DB	02H
	DB	02H
	DB	04H
	DB	02H
	DB	07cH
	DB	062H
	DB	07aH
	DB	02H
	DB	04H
	DB	04H
	DB	04H
	DB	021H
	DB	021H
	DB	021H
	DB	021H
	DB	021H
	DB	021H
	DB	021H
	DB	021H
	DB	02H
	DB	04H
	DB	04H
	DB	021H
	DB	04dH
	DB	03bH
	DB	02H
	DB	04H
	DB	02H
	DB	063H
	DB	0dcH
	DB	0f9H
	DB	02H
	DB	04H
	DB	04H
	DB	02H
	DB	01cH
	DB	02dH
	DB	00H
	DB	00H
	DB	00H
	DB	0dH
	DB	019H
	DB	02aH
	DB	02H
	DB	04H
	DB	04H
	DB	04H
	DB	021H
	DB	021H
	DB	021H
	DB	021H
	DB	021H
	DB	021H
	DB	021H
	DB	021H
	DB	02H
	DB	04H
	DB	04H
	DB	02H
	DB	030H
	DB	024H
	DB	04cH
	DB	02H
	DB	04H
	DB	02H
	DB	0b4H
	DB	017H
	DB	04H
	DB	04H
	DB	04H
	DB	02H
	DB	043H
	DB	00H
	DB	09H
	DB	0bcH
	DB	0bcH
	DB	0bcH
	DB	0bcH
	DB	0bcH
	DB	019H
	DB	055H
	DB	021H
	DB	04H
	DB	02H
	DB	034H
	DB	08eH
	DB	02H
	DB	04H
	DB	04H
	DB	04H
	DB	02H
	DB	021H
	DB	021H
	DB	021H
	DB	021H
	DB	021H
	DB	021H
	DB	021H
	DB	021H
	DB	07cH
	DB	04H
	DB	04H
	DB	02H
	DB	062H
	DB	00H
	DB	09H
	DB	0bcH
	DB	07dH
	DB	0bdH
	DB	034H
	DB	02H
	DB	04H
	DB	021H
	DB	076H
	DB	00H
	DB	07dH
	DB	0bcH
	DB	0bcH
	DB	019H
	DB	043H
	DB	02H
	DB	04H
	DB	04H
	DB	04H
	DB	02H
	DB	021H
	DB	021H
	DB	021H
	DB	021H
	DB	021H
	DB	021H
	DB	021H
	DB	021H
	DB	021H
	DB	021H
	DB	021H
	DB	049H
	DB	019H
	DB	022H
	DB	021H
	DB	021H
	DB	021H
	DB	021H
	DB	021H
	DB	021H
	DB	021H
	DB	021H
	DB	021H
	DB	021H
	DB	021H
	DB	021H
	DB	02H
	DB	04H
	DB	02H
	DB	021H
	DB	027H
	DB	00H
	DB	07dH
	DB	0bcH
	DB	0bcH
	DB	0bcH
	DB	0bcH
	DB	0bcH
	DB	0bcH
	DB	0bcH
	DB	0bcH
	DB	0bcH
	DB	0bcH
	DB	0bcH
	DB	0bcH
	DB	0bcH
	DB	0bcH
	DB	0bcH
	DB	0bcH
	DB	0bcH
	DB	0bcH
	DB	0bcH
	DB	0bcH
	DB	0bcH
	DB	0bcH
	DB	0bcH
	DB	0bcH
	DB	0bcH
	DB	0bcH
	DB	0bcH
	DB	0bcH
	DB	0bcH
	DB	0bcH
	DB	0bcH
	DB	0bcH
	DB	0bcH
	DB	0bcH
	DB	0bcH
	DB	0bcH
	DB	0bcH
	DB	0bcH
	DB	0bcH
	DB	0bcH
	DB	0bcH
	DB	0bcH
	DB	0bcH
	DB	0bcH
	DB	0bcH
	DB	0bcH
	DB	0bcH
	DB	0bcH
	DB	0bcH
	DB	0bcH
	DB	07dH
	DB	07dH
	DB	07dH
	DB	07dH
	DB	07dH
	DB	07dH
	DB	07dH
	DB	07dH
	DB	07dH
	DB	07dH
	DB	07dH
	DB	07dH
	DB	07dH
	DB	07dH
	DB	07dH
	DB	07dH
	DB	07dH
	DB	07dH
	DB	07dH
	DB	07dH
	DB	07dH
	DB	07dH
	DB	07dH
	DB	07dH
	DB	07dH
	DB	07dH
	DB	07dH
	DB	07dH
	DB	07dH
	DB	07dH
	DB	07dH
	DB	07dH
	DB	07dH
	DB	07dH
	DB	07dH
	DB	07dH
	DB	07dH
	DB	07dH
	DB	07dH
	DB	07dH
	DB	07dH
	DB	07dH
	DB	07dH
	DB	07dH
	DB	07dH
	DB	07dH
	DB	07dH
	DB	07dH
	DB	07dH
	DB	07dH
	DB	07dH
	DB	07dH
	DB	07dH
	DB	07dH
	DB	019H
	DB	022H
	DB	0baH
	DB	02H
	DB	04H
	DB	04H
	DB	04H
	DB	04H
	DB	04H
	DB	04H
	DB	04H
	DB	04H
	DB	04H
	DB	04H
	DB	04H
	DB	02H
	DB	021H
	DB	038H
	DB	05bH
	DB	00H
	DB	028H
	DB	039H
	DB	02H
	DB	021H
	DB	027H
	DB	00H
	DB	0dH
	DB	07dH
	DB	07dH
	DB	00H
	DB	078H
	DB	02H
	DB	04H
	DB	02H
	DB	0f5H
	DB	024H
	DB	019H
	DB	07dH
	DB	07dH
	DB	07dH
	DB	07dH
	DB	07dH
	DB	07dH
	DB	07dH
	DB	07dH
	DB	07dH
	DB	07dH
	DB	07dH
	DB	07dH
	DB	07dH
	DB	07dH
	DB	07dH
	DB	07dH
	DB	07dH
	DB	0dH
	DB	0b0H
	DB	021H
	DB	04H
	DB	04H
	DB	04H
	DB	04H
	DB	04H
	DB	04H
	DB	04H
	DB	04H
	DB	04H
	DB	04H
	DB	04H
	DB	02H
	DB	0baH
	DB	022H
	DB	077H
	DB	021H
	DB	04H
	DB	04H
	DB	04H
	DB	04H
	DB	04H
	DB	04H
	DB	04H
	DB	04H
	DB	04H
	DB	04H
	DB	04H
	DB	04H
	DB	02H
	DB	02H
	DB	053H
	DB	00H
	DB	0a9H
	DB	021H
	DB	02H
	DB	04H
	DB	04H
	DB	04H
	DB	04H
	DB	04H
	DB	04H
	DB	04H
	DB	04H
	DB	04H
	DB	04H
	DB	04H
	DB	02H
	DB	021H
	DB	036H
	DB	06eH
	DB	0b9H
	DB	02H
	DB	04H
	DB	021H
	DB	086H
	DB	00H
	DB	031H
	DB	03fH
	DB	021H
	DB	04H
	DB	04H
	DB	02H
	DB	04eH
	DB	027H
	DB	046H
	DB	019H
	DB	019H
	DB	028H
	DB	039H
	DB	02H
	DB	04H
	DB	04H
	DB	04H
	DB	04H
	DB	04H
	DB	04H
	DB	04H
	DB	04H
	DB	04H
	DB	04H
	DB	04H
	DB	04H
	DB	02H
	DB	021H
	DB	02bH
	DB	01aH
	DB	00H
	DB	01fH
	DB	02H
	DB	04H
	DB	02H
	DB	036H
	DB	02fH
	DB	02H
	DB	04H
	DB	02H
	DB	065H
	DB	02dH
	DB	019H
	DB	07dH
	DB	07dH
	DB	07dH
	DB	07dH
	DB	07dH
	DB	0dH
	DB	09H
	DB	079H
	DB	02H
	DB	04H
	DB	02H
	DB	079H
	DB	050H
	DB	0bbH
	DB	02H
	DB	04H
	DB	04H
	DB	04H
	DB	04H
	DB	04H
	DB	04H
	DB	04H
	DB	04H
	DB	04H
	DB	04H
	DB	04H
	DB	04H
	DB	04H
	DB	02H
	DB	0feH
	DB	02dH
	DB	00H
	DB	07dH
	DB	07dH
	DB	019H
	DB	026H
	DB	025H
	DB	02H
	DB	04H
	DB	02H
	DB	073H
	DB	00H
	DB	0dH
	DB	07dH
	DB	07dH
	DB	0dH
	DB	047H
	DB	07aH
	DB	02H
	DB	04H
	DB	04H
	DB	04H
	DB	04H
	DB	04H
	DB	04H
	DB	04H
	DB	04H
	DB	04H
	DB	04H
	DB	04H
	DB	04H
	DB	02H
	DB	0baH
	DB	0ccH
	DB	00H
	DB	089H
	DB	021H
	DB	04H
	DB	04H
	DB	04H
	DB	04H
	DB	04H
	DB	04H
	DB	04H
	DB	04H
	DB	04H
	DB	04H
	DB	04H
	DB	04H
	DB	02H
	DB	021H
	DB	08dH
	DB	046H
	DB	019H
	DB	0dH
	DB	07dH
	DB	07dH
	DB	07dH
	DB	07dH
	DB	07dH
	DB	07dH
	DB	07dH
	DB	07dH
	DB	07dH
	DB	07dH
	DB	07dH
	DB	07dH
	DB	07dH
	DB	07dH
	DB	07dH
	DB	07dH
	DB	07dH
	DB	07dH
	DB	07dH
	DB	07dH
	DB	07dH
	DB	07dH
	DB	07dH
	DB	07dH
	DB	07dH
	DB	07dH
	DB	07dH
	DB	07dH
	DB	07dH
	DB	07dH
	DB	07dH
	DB	07dH
	DB	07dH
	DB	07dH
	DB	07dH
	DB	07dH
	DB	07dH
	DB	07dH
	DB	07dH
	DB	07dH
	DB	07dH
	DB	07dH
	DB	07dH
	DB	07dH
	DB	07dH
	DB	07dH
	DB	07dH
	DB	07dH
	DB	07dH
	DB	07dH
	DB	0dH
	DB	0dH
	DB	0dH
	DB	0dH
	DB	0dH
	DB	0dH
	DB	0dH
	DB	0dH
	DB	0dH
	DB	0dH
	DB	0dH
	DB	0dH
	DB	0dH
	DB	0dH
	DB	0dH
	DB	0dH
	DB	0dH
	DB	0dH
	DB	0dH
	DB	0dH
	DB	0dH
	DB	0dH
	DB	0dH
	DB	0dH
	DB	0dH
	DB	0dH
	DB	0dH
	DB	0dH
	DB	0dH
	DB	0dH
	DB	0dH
	DB	0dH
	DB	0dH
	DB	0dH
	DB	0dH
	DB	0dH
	DB	0dH
	DB	0dH
	DB	0dH
	DB	0dH
	DB	0dH
	DB	0dH
	DB	0dH
	DB	0dH
	DB	0dH
	DB	0dH
	DB	0dH
	DB	0dH
	DB	0dH
	DB	0dH
	DB	0dH
	DB	0dH
	DB	0dH
	DB	0dH
	DB	00H
	DB	08aH
	DB	021H
	DB	02H
	DB	02H
	DB	02H
	DB	02H
	DB	02H
	DB	02H
	DB	02H
	DB	02H
	DB	02H
	DB	02H
	DB	02H
	DB	021H
	DB	07cH
	DB	036H
	DB	05bH
	DB	00H
	DB	00H
	DB	04cH
	DB	02H
	DB	02H
	DB	0f9H
	DB	047H
	DB	00H
	DB	0dH
	DB	0dH
	DB	019H
	DB	047H
	DB	0b4H
	DB	021H
	DB	02H
	DB	021H
	DB	0afH
	DB	00H
	DB	019H
	DB	0dH
	DB	0dH
	DB	0dH
	DB	0dH
	DB	0dH
	DB	0dH
	DB	0dH
	DB	0dH
	DB	0dH
	DB	0dH
	DB	0dH
	DB	0dH
	DB	0dH
	DB	0dH
	DB	0dH
	DB	0dH
	DB	0dH
	DB	019H
	DB	05bH
	DB	037H
	DB	02H
	DB	02H
	DB	02H
	DB	02H
	DB	02H
	DB	02H
	DB	02H
	DB	02H
	DB	02H
	DB	02H
	DB	02H
	DB	021H
	DB	0b8H
	DB	093H
	DB	05bH
	DB	01cH
	DB	02H
	DB	02H
	DB	02H
	DB	02H
	DB	02H
	DB	02H
	DB	02H
	DB	02H
	DB	02H
	DB	02H
	DB	02H
	DB	02H
	DB	034H
	DB	062H
	DB	00H
	DB	00H
	DB	024H
	DB	044H
	DB	02H
	DB	021H
	DB	02H
	DB	02H
	DB	02H
	DB	02H
	DB	02H
	DB	02H
	DB	02H
	DB	02H
	DB	02H
	DB	02H
	DB	0feH
	DB	027H
	DB	00H
	DB	02fH
	DB	021H
	DB	02H
	DB	021H
	DB	07cH
	DB	098H
	DB	00H
	DB	00H
	DB	024H
	DB	075H
	DB	02H
	DB	02H
	DB	02H
	DB	021H
	DB	021H
	DB	016H
	DB	02dH
	DB	00H
	DB	062H
	DB	02H
	DB	021H
	DB	02H
	DB	02H
	DB	02H
	DB	02H
	DB	02H
	DB	02H
	DB	02H
	DB	02H
	DB	02H
	DB	02H
	DB	02H
	DB	02H
	DB	02H
	DB	08eH
	DB	02dH
	DB	00H
	DB	0c6H
	DB	08fH
	DB	021H
	DB	02H
	DB	021H
	DB	054H
	DB	04dH
	DB	021H
	DB	02H
	DB	021H
	DB	041H
	DB	046H
	DB	019H
	DB	0dH
	DB	0dH
	DB	0dH
	DB	0dH
	DB	0dH
	DB	019H
	DB	05bH
	DB	0b8H
	DB	021H
	DB	02H
	DB	021H
	DB	056H
	DB	00H
	DB	053H
	DB	07cH
	DB	021H
	DB	02H
	DB	02H
	DB	02H
	DB	02H
	DB	02H
	DB	02H
	DB	02H
	DB	02H
	DB	02H
	DB	02H
	DB	02H
	DB	02H
	DB	021H
	DB	07aH
	DB	024H
	DB	00H
	DB	0dH
	DB	0dH
	DB	00H
	DB	051H
	DB	021H
	DB	02H
	DB	021H
	DB	0bbH
	DB	0dcH
	DB	00H
	DB	0dH
	DB	0dH
	DB	0dH
	DB	0dH
	DB	00H
	DB	0ccH
	DB	038H
	DB	021H
	DB	02H
	DB	02H
	DB	02H
	DB	02H
	DB	02H
	DB	02H
	DB	02H
	DB	02H
	DB	02H
	DB	02H
	DB	02H
	DB	021H
	DB	0f9H
	DB	093H
	DB	00H
	DB	079H
	DB	021H
	DB	02H
	DB	02H
	DB	02H
	DB	02H
	DB	02H
	DB	02H
	DB	02H
	DB	02H
	DB	02H
	DB	02H
	DB	02H
	DB	021H
	DB	065H
	DB	08aH
	DB	046H
	DB	00H
	DB	046H
	DB	0dH
	DB	0dH
	DB	0dH
	DB	0dH
	DB	0dH
	DB	0dH
	DB	0dH
	DB	0dH
	DB	0dH
	DB	0dH
	DB	0dH
	DB	0dH
	DB	0dH
	DB	0dH
	DB	0dH
	DB	0dH
	DB	0dH
	DB	0dH
	DB	0dH
	DB	0dH
	DB	0dH
	DB	0dH
	DB	0dH
	DB	0dH
	DB	0dH
	DB	0dH
	DB	0dH
	DB	0dH
	DB	0dH
	DB	0dH
	DB	0dH
	DB	0dH
	DB	0dH
	DB	0dH
	DB	0dH
	DB	0dH
	DB	0dH
	DB	0dH
	DB	0dH
	DB	0dH
	DB	0dH
	DB	0dH
	DB	0dH
	DB	0dH
	DB	0dH
	DB	0dH
	DB	0dH
	DB	0dH
	DB	0dH
	DB	0dH
	DB	0dH
	DB	046H
	DB	046H
	DB	046H
	DB	046H
	DB	046H
	DB	046H
	DB	046H
	DB	046H
	DB	046H
	DB	046H
	DB	046H
	DB	046H
	DB	046H
	DB	046H
	DB	046H
	DB	046H
	DB	046H
	DB	046H
	DB	046H
	DB	046H
	DB	046H
	DB	046H
	DB	046H
	DB	046H
	DB	046H
	DB	046H
	DB	046H
	DB	046H
	DB	046H
	DB	046H
	DB	046H
	DB	046H
	DB	046H
	DB	046H
	DB	046H
	DB	046H
	DB	046H
	DB	046H
	DB	046H
	DB	046H
	DB	046H
	DB	046H
	DB	046H
	DB	046H
	DB	046H
	DB	046H
	DB	046H
	DB	046H
	DB	046H
	DB	046H
	DB	046H
	DB	046H
	DB	046H
	DB	00H
	DB	00H
	DB	071H
	DB	045H
	DB	018H
	DB	018H
	DB	018H
	DB	018H
	DB	018H
	DB	018H
	DB	018H
	DB	018H
	DB	018H
	DB	018H
	DB	023H
	DB	074H
	DB	0ccH
	DB	00H
	DB	00H
	DB	00H
	DB	026H
	DB	090H
	DB	02H
	DB	02H
	DB	02fH
	DB	00H
	DB	00H
	DB	046H
	DB	046H
	DB	00H
	DB	031H
	DB	056H
	DB	08dH
	DB	018H
	DB	045H
	DB	062H
	DB	00H
	DB	046H
	DB	046H
	DB	046H
	DB	046H
	DB	046H
	DB	046H
	DB	046H
	DB	046H
	DB	046H
	DB	046H
	DB	046H
	DB	046H
	DB	046H
	DB	046H
	DB	046H
	DB	046H
	DB	046H
	DB	046H
	DB	046H
	DB	00H
	DB	046H
	DB	022H
	DB	044H
	DB	08dH
	DB	018H
	DB	018H
	DB	018H
	DB	018H
	DB	018H
	DB	018H
	DB	018H
	DB	018H
	DB	033H
	DB	063H
	DB	00H
	DB	00H
	DB	024H
	DB	017H
	DB	04dH
	DB	023H
	DB	018H
	DB	018H
	DB	018H
	DB	018H
	DB	018H
	DB	018H
	DB	023H
	DB	04bH
	DB	022H
	DB	024H
	DB	00H
	DB	00H
	DB	00H
	DB	00H
	DB	00H
	DB	050H
	DB	08cH
	DB	08dH
	DB	018H
	DB	018H
	DB	018H
	DB	018H
	DB	018H
	DB	018H
	DB	023H
	DB	057H
	DB	070H
	DB	031H
	DB	00H
	DB	00H
	DB	070H
	DB	078H
	DB	018H
	DB	033H
	DB	063H
	DB	047H
	DB	00H
	DB	046H
	DB	00H
	DB	00H
	DB	043H
	DB	0b1H
	DB	018H
	DB	018H
	DB	023H
	DB	037H
	DB	08cH
	DB	024H
	DB	06eH
	DB	0b1H
	DB	023H
	DB	018H
	DB	018H
	DB	018H
	DB	018H
	DB	018H
	DB	018H
	DB	018H
	DB	018H
	DB	018H
	DB	023H
	DB	023H
	DB	04aH
	DB	02eH
	DB	046H
	DB	00H
	DB	00H
	DB	0c6H
	DB	08dH
	DB	023H
	DB	023H
	DB	033H
	DB	0dcH
	DB	08aH
	DB	033H
	DB	018H
	DB	077H
	DB	0a9H
	DB	00H
	DB	00H
	DB	046H
	DB	046H
	DB	046H
	DB	046H
	DB	046H
	DB	00H
	DB	028H
	DB	023H
	DB	023H
	DB	018H
	DB	033H
	DB	06eH
	DB	00H
	DB	00H
	DB	026H
	DB	055H
	DB	023H
	DB	018H
	DB	018H
	DB	018H
	DB	018H
	DB	018H
	DB	018H
	DB	018H
	DB	018H
	DB	018H
	DB	018H
	DB	018H
	DB	045H
	DB	0e7H
	DB	00H
	DB	00H
	DB	046H
	DB	046H
	DB	00H
	DB	017H
	DB	045H
	DB	018H
	DB	08dH
	DB	075H
	DB	093H
	DB	00H
	DB	046H
	DB	046H
	DB	046H
	DB	046H
	DB	046H
	DB	00H
	DB	047H
	DB	043H
	DB	0afH
	DB	023H
	DB	018H
	DB	018H
	DB	018H
	DB	018H
	DB	018H
	DB	018H
	DB	018H
	DB	018H
	DB	018H
	DB	0b1H
	DB	027H
	DB	00H
	DB	00H
	DB	0aeH
	DB	033H
	DB	018H
	DB	018H
	DB	018H
	DB	018H
	DB	018H
	DB	018H
	DB	018H
	DB	018H
	DB	018H
	DB	023H
	DB	0b0H
	DB	073H
	DB	028H
	DB	00H
	DB	00H
	DB	00H
	DB	046H
	DB	046H
	DB	046H
	DB	046H
	DB	046H
	DB	046H
	DB	046H
	DB	046H
	DB	046H
	DB	046H
	DB	046H
	DB	046H
	DB	046H
	DB	046H
	DB	046H
	DB	046H
	DB	046H
	DB	046H
	DB	046H
	DB	046H
	DB	046H
	DB	046H
	DB	046H
	DB	046H
	DB	046H
	DB	046H
	DB	046H
	DB	046H
	DB	046H
	DB	046H
	DB	046H
	DB	046H
	DB	046H
	DB	046H
	DB	046H
	DB	046H
	DB	046H
	DB	046H
	DB	046H
	DB	046H
	DB	046H
	DB	046H
	DB	046H
	DB	046H
	DB	046H
	DB	046H
	DB	046H
	DB	046H
	DB	046H
	DB	046H
	DB	046H
	DB	046H
	DB	00H
	DB	00H
	DB	00H
	DB	00H
	DB	00H
	DB	00H
	DB	00H
	DB	00H
	DB	00H
	DB	00H
	DB	00H
	DB	00H
	DB	00H
	DB	00H
	DB	00H
	DB	00H
	DB	00H
	DB	00H
	DB	00H
	DB	00H
	DB	00H
	DB	00H
	DB	00H
	DB	00H
	DB	00H
	DB	00H
	DB	00H
	DB	00H
	DB	00H
	DB	00H
	DB	00H
	DB	00H
	DB	00H
	DB	00H
	DB	00H
	DB	00H
	DB	00H
	DB	00H
	DB	00H
	DB	00H
	DB	00H
	DB	00H
	DB	00H
	DB	00H
	DB	00H
	DB	00H
	DB	00H
	DB	00H
	DB	00H
	DB	00H
	DB	00H
	DB	00H
	DB	00H
	DB	00H
	DB	00H
	DB	00H
	DB	00H
	DB	00H
	DB	00H
	DB	00H
	DB	00H
	DB	00H
	DB	00H
	DB	00H
	DB	00H
	DB	00H
	DB	00H
	DB	00H
	DB	00H
	DB	00H
	DB	00H
	DB	00H
	DB	00H
	DB	08bH
	DB	02H
	DB	021H
	DB	07aH
	DB	024H
	DB	00H
	DB	00H
	DB	00H
	DB	00H
	DB	00H
	DB	00H
	DB	00H
	DB	00H
	DB	00H
	DB	00H
	DB	00H
	DB	00H
	DB	00H
	DB	00H
	DB	00H
	DB	00H
	DB	00H
	DB	00H
	DB	00H
	DB	00H
	DB	00H
	DB	00H
	DB	00H
	DB	00H
	DB	00H
	DB	00H
	DB	00H
	DB	00H
	DB	00H
	DB	00H
	DB	00H
	DB	00H
	DB	00H
	DB	00H
	DB	00H
	DB	00H
	DB	00H
	DB	00H
	DB	00H
	DB	00H
	DB	00H
	DB	00H
	DB	00H
	DB	00H
	DB	00H
	DB	00H
	DB	00H
	DB	00H
	DB	00H
	DB	00H
	DB	00H
	DB	00H
	DB	00H
	DB	00H
	DB	00H
	DB	00H
	DB	00H
	DB	00H
	DB	00H
	DB	00H
	DB	00H
	DB	00H
	DB	00H
	DB	00H
	DB	00H
	DB	00H
	DB	00H
	DB	00H
	DB	00H
	DB	00H
	DB	00H
	DB	00H
	DB	00H
	DB	00H
	DB	00H
	DB	00H
	DB	00H
	DB	00H
	DB	00H
	DB	00H
	DB	00H
	DB	00H
	DB	00H
	DB	00H
	DB	00H
	DB	00H
	DB	00H
	DB	00H
	DB	00H
	DB	00H
	DB	00H
	DB	00H
	DB	00H
	DB	00H
	DB	00H
	DB	00H
	DB	00H
	DB	00H
	DB	00H
	DB	00H
	DB	00H
	DB	00H
	DB	00H
	DB	00H
	DB	00H
	DB	00H
	DB	00H
	DB	00H
	DB	00H
	DB	00H
	DB	00H
	DB	00H
	DB	00H
	DB	00H
	DB	00H
	DB	00H
	DB	00H
	DB	00H
	DB	00H
	DB	00H
	DB	00H
	DB	00H
	DB	00H
	DB	00H
	DB	00H
	DB	00H
	DB	00H
	DB	00H
	DB	00H
	DB	00H
	DB	00H
	DB	00H
	DB	00H
	DB	00H
	DB	00H
	DB	00H
	DB	00H
	DB	00H
	DB	00H
	DB	00H
	DB	00H
	DB	00H
	DB	00H
	DB	00H
	DB	00H
	DB	00H
	DB	00H
	DB	00H
	DB	00H
	DB	00H
	DB	00H
	DB	00H
	DB	00H
	DB	00H
	DB	00H
	DB	00H
	DB	00H
	DB	00H
	DB	00H
	DB	00H
	DB	00H
	DB	00H
	DB	00H
	DB	00H
	DB	00H
	DB	00H
	DB	00H
	DB	00H
	DB	00H
	DB	00H
	DB	00H
	DB	00H
	DB	00H
	DB	00H
	DB	00H
	DB	00H
	DB	00H
	DB	00H
	DB	00H
	DB	00H
	DB	00H
	DB	00H
	DB	00H
	DB	00H
	DB	00H
	DB	00H
	DB	00H
	DB	00H
	DB	00H
	DB	00H
	DB	00H
	DB	00H
	DB	00H
	DB	00H
	DB	00H
	DB	00H
	DB	00H
	DB	00H
	DB	00H
	DB	00H
	DB	00H
	DB	00H
	DB	00H
	DB	00H
	DB	00H
	DB	00H
	DB	00H
	DB	00H
	DB	00H
	DB	00H
	DB	00H
	DB	00H
	DB	00H
	DB	00H
	DB	00H
	DB	00H
	DB	00H
	DB	00H
	DB	00H
	DB	00H
	DB	00H
	DB	00H
	DB	00H
	DB	00H
	DB	00H
	DB	00H
	DB	00H
	DB	00H
	DB	00H
	DB	00H
	DB	00H
	DB	00H
	DB	00H
	DB	00H
	DB	00H
	DB	00H
	DB	00H
	DB	00H
	DB	00H
	DB	00H
	DB	00H
	DB	00H
	DB	00H
	DB	00H
	DB	00H
	DB	00H
	DB	00H
	DB	00H
	DB	00H
	DB	00H
	DB	00H
	DB	00H
	DB	00H
	DB	00H
	DB	00H
	DB	00H
	DB	00H
	DB	00H
	DB	00H
	DB	00H
	DB	00H
	DB	00H
	DB	00H
	DB	00H
	DB	00H
	DB	00H
	DB	00H
	DB	00H
	DB	00H
	DB	00H
	DB	00H
	DB	00H
	DB	00H
	DB	00H
	DB	00H
	DB	00H
	DB	00H
	DB	00H
	DB	00H
	DB	00H
	DB	00H
	DB	00H
	DB	00H
	DB	00H
	DB	00H
	DB	00H
	DB	00H
	DB	00H
	DB	00H
	DB	00H
	DB	00H
	DB	00H
	DB	00H
	DB	00H
	DB	00H
	DB	00H
	DB	00H
	DB	00H
	DB	00H
	DB	00H
	DB	00H
	DB	00H
	DB	00H
	DB	00H
	DB	00H
	DB	00H
	DB	00H
	DB	00H
	DB	00H
	DB	00H
	DB	00H
	DB	00H
	DB	00H
	DB	00H
	DB	00H
	DB	00H
	DB	00H
	DB	00H
	DB	00H
	DB	00H
	DB	00H
	DB	00H
	DB	00H
	DB	00H
	DB	00H
	DB	00H
	DB	00H
	DB	00H
	DB	00H
	DB	00H
	DB	00H
	DB	00H
	DB	00H
	DB	00H
	DB	00H
	DB	00H
	DB	00H
	DB	00H
	DB	00H
	DB	00H
	DB	024H
	DB	026H
	DB	0e8H
	DB	06eH
	DB	00H
	DB	00H
	DB	00H
	DB	00H
	DB	00H
	DB	00H
	DB	00H
	DB	00H
	DB	00H
	DB	00H
	DB	00H
	DB	00H
	DB	00H
	DB	00H
	DB	00H
	DB	00H
	DB	00H
	DB	00H
	DB	00H
	DB	00H
	DB	00H
	DB	00H
	DB	00H
	DB	00H
	DB	00H
	DB	00H
	DB	00H
	DB	00H
	DB	00H
	DB	00H
	DB	00H
	DB	00H
	DB	00H
	DB	00H
	DB	00H
	DB	00H
	DB	00H
	DB	00H
	DB	00H
	DB	00H
	DB	00H
	DB	00H
	DB	00H
	DB	00H
	DB	00H
	DB	00H
	DB	00H
	DB	00H
	DB	00H
	DB	00H
	DB	00H
	DB	00H
	DB	00H
	DB	00H
	DB	00H
	DB	00H
	DB	00H
	DB	00H
	DB	00H
	DB	00H
	DB	00H
	DB	00H
	DB	00H
	DB	00H
	DB	00H
	DB	00H
	DB	00H
	DB	00H
	DB	00H
	DB	00H
	DB	00H
	DB	00H
	DB	00H
	DB	00H
	DB	00H
	DB	00H
	DB	00H
	DB	00H
	DB	00H
	DB	00H
	DB	00H
	DB	00H
	DB	00H
	DB	00H
	DB	00H
	DB	00H
	DB	00H
	DB	00H
	DB	00H
	DB	00H
	DB	00H
	DB	00H
	DB	00H
	DB	00H
	DB	00H
	DB	00H
	DB	00H
	DB	00H
	DB	00H
	DB	00H
	DB	00H
	DB	00H
	DB	00H
	DB	00H
	DB	00H
	DB	00H
	DB	00H
	DB	00H
	DB	00H
	DB	00H
	DB	00H
	DB	00H
	DB	00H
	DB	00H
	DB	00H
	DB	00H
	DB	00H
	DB	00H
	DB	00H
	DB	00H
	DB	00H
	DB	00H
	DB	00H
	DB	00H
	DB	00H
	DB	00H
	DB	00H
	DB	00H
	DB	00H
	DB	00H
	DB	00H
	DB	00H
	DB	00H
	DB	00H
	DB	00H
	DB	00H
	DB	00H
	DB	00H
	DB	00H
	DB	00H
	DB	00H
	DB	00H
	DB	00H
	DB	00H
	DB	00H
	DB	00H
	DB	00H
	DB	00H
	DB	00H
	DB	00H
	DB	00H
	DB	00H
	DB	00H
	DB	00H
	DB	00H
	DB	00H
	DB	00H
	DB	00H
	DB	00H
	DB	00H
	DB	00H
	DB	00H
	DB	00H
	DB	00H
	DB	00H
	DB	00H
	DB	00H
	DB	00H
	DB	00H
	DB	00H
	DB	00H
	DB	00H
	DB	00H
	DB	00H
	DB	00H
	DB	00H
	DB	00H
	DB	00H
	DB	00H
	DB	00H
	DB	00H
	DB	00H
	DB	00H
	DB	00H
	DB	00H
	DB	00H
	DB	00H
	DB	00H
	DB	00H
	DB	00H
	DB	00H
	DB	00H
	DB	00H
	DB	00H
	DB	00H
	DB	00H
	DB	00H
	DB	00H
	DB	00H
	DB	00H
	DB	00H
	DB	00H
	DB	00H
	DB	00H
	DB	00H
	DB	00H
	DB	00H
	DB	00H
	DB	00H
	DB	00H
	DB	00H
	DB	00H
	DB	00H
	DB	00H
	DB	00H
	DB	00H
	DB	00H
	DB	00H
	DB	00H
	DB	00H
	DB	00H
	DB	00H
	DB	00H
	DB	00H
	DB	00H
	DB	00H
	DB	00H
	DB	00H
	DB	00H
	DB	00H
	DB	00H
	DB	00H
	DB	00H
	DB	00H
	DB	00H
	DB	00H
	DB	00H
	DB	00H
	DB	00H
	DB	00H
	DB	00H
	DB	00H
	DB	00H
	DB	00H
	DB	00H
	DB	00H
	DB	00H
	DB	00H
	DB	00H
	DB	00H
	DB	00H
	DB	00H
	DB	00H
	DB	00H
	DB	00H
	DB	00H
	DB	00H
	DB	00H
	DB	00H
	DB	00H
	DB	00H
	DB	00H
	DB	00H
	DB	00H
	DB	00H
	DB	00H
	DB	00H
	DB	00H
	DB	00H
	DB	00H
	DB	00H
	DB	00H
	DB	00H
	DB	00H
	DB	00H
	DB	00H
	DB	00H
	DB	00H
	DB	00H
	DB	00H
	DB	00H
	DB	00H
	DB	00H
	DB	00H
	DB	00H
	DB	00H
	DB	00H
	DB	00H
	DB	00H
	DB	00H
	DB	00H
	DB	00H
	DB	00H
	DB	00H
	DB	00H
	DB	00H
	DB	00H
	DB	00H
	DB	00H
	DB	00H
	DB	00H
	DB	00H
	DB	00H
	DB	00H
	DB	00H
	DB	00H
	DB	00H
	DB	00H
	DB	00H
	DB	00H
	DB	00H
	DB	00H
	DB	00H
	DB	00H
	DB	00H
	DB	00H
	DB	00H
	DB	00H
	DB	00H
	DB	00H
	DB	00H
	DB	00H
	DB	00H
	DB	00H
	DB	00H
	DB	00H
	DB	00H
	DB	00H
	DB	00H
	DB	00H
	DB	00H
	DB	00H
	DB	00H
	DB	00H
	DB	00H
	DB	00H
	DB	00H
	DB	00H
	DB	00H
	DB	00H
	DB	00H
	DB	00H
	DB	00H
	DB	00H
	DB	00H
	DB	00H
	DB	00H
	DB	00H
	DB	00H
	DB	00H
	DB	00H
	DB	00H
	DB	00H
	DB	00H
	DB	00H
	DB	00H
	DB	00H
	DB	00H
	DB	00H
	DB	00H
	DB	00H
	DB	00H
	DB	00H
	DB	00H
	DB	00H
	DB	00H
	DB	00H
	DB	00H
	DB	00H
	DB	00H
	DB	00H
	DB	00H
	DB	00H
	DB	00H
	DB	00H
	DB	00H
	DB	00H
	DB	00H
	DB	00H
	DB	00H
	DB	00H
	DB	00H
	DB	00H
	DB	00H
	DB	00H
	DB	00H
	DB	00H
	DB	00H
	DB	00H
	DB	00H
	DB	00H
	DB	00H
	DB	00H
	DB	00H
	DB	00H
	DB	00H
	DB	00H
	DB	00H
	DB	00H
	DB	00H
	DB	00H
	DB	00H
	DB	00H
	DB	00H
	DB	00H
	DB	00H
	DB	00H
	DB	00H
	DB	00H
	DB	00H
	DB	00H
	DB	00H
	DB	00H
	DB	00H
	DB	00H
	DB	00H
	DB	00H
	DB	00H
	DB	00H
	DB	00H
	DB	00H
	DB	00H
	DB	00H
	DB	00H
	DB	00H
	DB	00H
	DB	00H
	DB	00H
	DB	00H
	DB	00H
	DB	00H
	DB	00H
	DB	00H
	DB	00H
	DB	00H
	DB	00H
	DB	00H
	DB	00H
	DB	00H
	DB	00H
	DB	00H
	DB	00H
	DB	00H
	DB	00H
	DB	00H
	DB	00H
	DB	00H
	DB	00H
	DB	00H
	DB	00H
	DB	00H
	DB	00H
	DB	00H
	DB	00H
	DB	00H
	DB	00H
	DB	00H
	DB	00H
	DB	00H
	DB	00H
	DB	00H
	DB	00H
	DB	00H
	DB	00H
	DB	00H
	DB	00H
	DB	00H
	DB	00H
	DB	00H
	DB	00H
	DB	00H
	DB	00H
	DB	00H
	DB	00H
	DB	00H
	DB	00H
	DB	00H
	DB	00H
	DB	00H
	DB	00H
	DB	00H
	DB	00H
	DB	00H
	DB	00H
	DB	00H
	DB	00H
	DB	00H
	DB	00H
	DB	00H
	DB	00H
	DB	00H
	DB	00H
	DB	00H
	DB	00H
	DB	00H
	DB	00H
	DB	00H
	DB	00H
	DB	00H
	DB	00H
	DB	00H
	DB	00H
	DB	00H
	DB	00H
	DB	00H
	DB	00H
	DB	00H
	DB	00H
	DB	00H
	DB	00H
	DB	00H
	DB	00H
	DB	00H
	DB	00H
	DB	00H
	DB	00H
	DB	00H
	DB	00H
	DB	00H
	DB	00H
	DB	00H
	DB	00H
	DB	00H
	DB	00H
	DB	00H
	DB	00H
	DB	00H
	DB	00H
	DB	00H
	DB	00H
	DB	00H
	DB	00H
	DB	00H
	DB	00H
	DB	00H
	DB	00H
	DB	00H
	DB	00H
	DB	00H
	DB	00H
	DB	00H
	DB	00H
	DB	00H
	DB	00H
	DB	00H
	DB	00H
	DB	00H
	DB	00H
	DB	00H
	DB	00H
	DB	00H
	DB	00H
	DB	00H
	DB	00H
	DB	00H
	DB	00H
	DB	00H
	DB	00H
	DB	00H
	DB	00H
	DB	00H
	DB	00H
	DB	00H
	DB	00H
	DB	00H
	DB	00H
	DB	00H
	DB	00H
	DB	00H
	DB	00H
	DB	00H
	DB	00H
	DB	00H
	DB	00H
	DB	00H
	DB	00H
	DB	00H
	DB	00H
	DB	00H
	DB	00H
	DB	00H
	DB	00H
	DB	00H
	DB	00H
	DB	00H
	DB	00H
	DB	00H
	DB	00H
	DB	00H
	DB	00H
	DB	00H
	DB	00H
	DB	00H
	DB	00H
	DB	00H
	DB	00H
	DB	00H
	DB	00H
	DB	00H
	DB	00H
	DB	00H
	DB	00H
	DB	00H
	DB	00H
	DB	00H
	DB	00H
	DB	00H
	DB	00H
	DB	00H
	DB	00H
	DB	00H
	DB	00H
	DB	00H
	DB	00H
	DB	00H
	DB	00H
	DB	00H
	DB	00H
	DB	00H
	DB	00H
	DB	00H
	DB	00H
	DB	00H
	DB	00H
	DB	00H
	DB	00H
	DB	00H
	DB	00H
	DB	00H
	DB	00H
	DB	00H
	DB	00H
	DB	00H
	DB	00H
	DB	00H
	DB	00H
	DB	00H
	DB	00H
	DB	00H
	DB	00H
	DB	00H
	DB	00H
	DB	00H
	DB	00H
	DB	00H
	DB	00H
	DB	00H
	DB	00H
	DB	00H
	DB	00H
	DB	00H
	DB	00H
	DB	00H
	DB	00H
	DB	00H
	DB	00H
	DB	00H
	DB	00H
	DB	00H
	DB	00H
	DB	00H
	DB	00H
	DB	00H
	DB	00H
	DB	00H
	DB	00H
	DB	00H
	DB	00H
	DB	00H
	DB	00H
	DB	00H
	DB	00H
	DB	00H
	DB	00H
	DB	00H
	DB	00H
	DB	00H
	DB	00H
	DB	00H
	DB	00H
	DB	00H
	DB	00H
	DB	00H
	DB	00H
	DB	00H
	DB	00H
	DB	00H
	DB	00H
	DB	00H
	DB	00H
	DB	00H
	DB	00H
	DB	00H
	DB	00H
	DB	00H
	DB	00H
	DB	00H
	DB	00H
	DB	00H
	DB	00H
	DB	00H
	DB	00H
	DB	00H
	DB	00H
	DB	00H
	DB	00H
	DB	00H
	DB	00H
	DB	00H
	DB	00H
	DB	00H
	DB	00H
	DB	00H
	DB	00H
	DB	00H
	DB	00H
	DB	00H
	DB	00H
	DB	00H
	DB	00H
	DB	00H
	DB	00H
	DB	00H
	DB	00H
	DB	00H
	DB	00H
	DB	00H
	DB	00H
	DB	00H
	DB	00H
	DB	00H
	DB	00H
	DB	00H
	DB	00H
	DB	00H
	DB	00H
	DB	00H
	DB	00H
	DB	00H
	DB	00H
	DB	00H
	DB	00H
	DB	00H
	DB	00H
	DB	00H
	DB	00H
	DB	00H
	DB	00H
	DB	00H
	DB	00H
	DB	00H
	DB	00H
	DB	00H
	DB	00H
	DB	00H
	DB	00H
	DB	00H
	DB	00H
	DB	00H
	DB	00H
	DB	00H
	DB	00H
	DB	00H
	DB	00H
	DB	00H
	DB	00H
	DB	00H
	DB	00H
	DB	00H
	DB	00H
	DB	00H
	DB	00H
	DB	00H
	DB	00H
	DB	00H
	DB	00H
	DB	00H
	DB	00H
	DB	00H
	DB	00H
	DB	00H
	DB	00H
	DB	00H
	DB	00H
	DB	00H
	DB	00H
	DB	00H
	DB	00H
	DB	00H
	DB	00H
	DB	00H
	DB	00H
	DB	00H
	DB	00H
	DB	00H
	DB	00H
	DB	00H
	DB	00H
	DB	00H
	DB	00H
	DB	00H
	DB	00H
	DB	00H
	DB	00H
	DB	00H
	DB	00H
	DB	00H
	DB	00H
	DB	00H
	DB	00H
	DB	00H
	DB	00H
	DB	00H
	DB	00H
	DB	00H
	DB	00H
	DB	00H
	DB	00H
	DB	00H
	DB	00H
	DB	00H
	DB	00H
	DB	00H
	DB	00H
	DB	00H
	DB	00H
	DB	00H
	DB	00H
	DB	00H
	DB	00H
	DB	00H
	DB	00H
	DB	00H
	DB	00H
	DB	00H
	DB	00H
	DB	00H
	DB	00H
	DB	00H
	DB	00H
	DB	00H
	DB	00H
	DB	00H
	DB	00H
	DB	00H
	DB	00H
	DB	00H
	DB	00H
	DB	00H
	DB	00H
	DB	00H
	DB	00H
	DB	00H
	DB	00H
	DB	00H
	DB	00H
	DB	00H
	DB	00H
	DB	00H
	DB	00H
	DB	00H
	DB	00H
	DB	00H
	DB	00H
	DB	00H
	DB	00H
	DB	00H
	DB	00H
	DB	00H
	DB	00H
	DB	00H
	DB	00H
	DB	00H
	DB	00H
	DB	00H
	DB	00H
	DB	00H
	DB	00H
	DB	00H
	DB	00H
	DB	00H
	DB	00H
	DB	00H
	DB	00H
	DB	00H
	DB	00H
	DB	00H
	DB	00H
	DB	00H
	DB	00H
	DB	00H
	DB	00H
	DB	00H
	DB	00H
	DB	00H
	DB	00H
	DB	00H
	DB	00H
	DB	00H
	DB	00H
	DB	00H
	DB	00H
	DB	00H
	DB	00H
	DB	00H
	DB	00H
	DB	00H
	DB	00H
	DB	00H
	DB	00H
	DB	00H
	DB	00H
	DB	00H
	DB	00H
	DB	00H
	DB	00H
	DB	00H
	DB	00H
	DB	00H
	DB	00H
	DB	00H
	DB	00H
	DB	00H
	DB	00H
	DB	00H
	DB	00H
	DB	00H
	DB	00H
	DB	00H
	DB	00H
	DB	00H
	DB	00H
	DB	00H
	DB	00H
	DB	00H
	DB	00H
	DB	00H
	DB	00H
	DB	00H
	DB	00H
	DB	00H
	DB	00H
	DB	00H
	DB	00H
	DB	00H
	DB	00H
	DB	00H
	DB	00H
	DB	00H
	DB	00H
	DB	00H
	DB	00H
	DB	00H
	DB	00H
	DB	00H
	DB	00H
	DB	00H
	DB	00H
	DB	00H
	DB	00H
	DB	00H
	DB	00H
	DB	00H
	DB	00H
	DB	00H
	DB	00H
	DB	00H
	DB	00H
	DB	00H
	DB	00H
	DB	00H
	DB	00H
	DB	00H
	DB	00H
	DB	00H
	DB	00H
	DB	00H
	DB	00H
	DB	00H
	DB	00H
	DB	00H
	DB	00H
	DB	00H
	DB	00H
	DB	00H
	DB	00H
	DB	00H
	DB	00H
	DB	00H
	DB	00H
	DB	00H
	DB	00H
	DB	00H
	DB	00H
	DB	00H
	DB	00H
	DB	00H
	DB	00H
	DB	00H
	DB	00H
	DB	00H
	DB	00H
	DB	00H
	DB	00H
	DB	00H
	DB	00H
	DB	00H
	DB	00H
	DB	00H
	DB	00H
	DB	00H
	DB	00H
	DB	00H
	DB	00H
	DB	00H
	DB	00H
	DB	00H
	DB	00H
	DB	00H
	DB	00H
	DB	00H
	DB	00H
	DB	00H
	DB	00H
	DB	00H
	DB	00H
	DB	00H
	DB	00H
	DB	00H
	DB	00H
	DB	00H
	DB	00H
	DB	00H
	DB	00H
	DB	00H
	DB	00H
	DB	00H
	DB	00H
	DB	00H
	DB	00H
	DB	00H
	DB	00H
	DB	00H
	DB	00H
	DB	00H
	DB	00H
	DB	00H
	DB	00H
	DB	00H
	DB	00H
	DB	00H
	DB	00H
	DB	00H
	DB	00H
	DB	00H
	DB	00H
	DB	00H
	DB	00H
	DB	00H
	DB	00H
	DB	00H
	DB	00H
	DB	00H
	DB	00H
	DB	00H
	DB	00H
	DB	00H
	DB	00H
	DB	00H
	DB	00H
	DB	00H
	DB	00H
	DB	00H
	DB	00H
	DB	00H
	DB	00H
	DB	00H
	DB	00H
	DB	00H
	DB	00H
	DB	00H
	DB	00H
	DB	00H
	DB	00H
	DB	00H
	DB	00H
	DB	00H
	DB	00H
	DB	00H
	DB	00H
	DB	00H
	DB	00H
	DB	00H
	DB	00H
	DB	00H
	DB	00H
	DB	00H
	DB	00H
	DB	00H
	DB	00H
	DB	00H
	DB	00H
	DB	00H
	DB	00H
	DB	00H
	DB	00H
	DB	00H
	DB	00H
	DB	00H
	DB	00H
	DB	00H
	DB	00H
	DB	00H
	DB	00H
	DB	00H
	DB	00H
	DB	00H
	DB	00H
	DB	00H
	DB	00H
	DB	00H
	DB	00H
	DB	00H
	DB	00H
	DB	00H
	DB	00H
	DB	00H
	DB	00H
	DB	00H
	DB	00H
	DB	00H
	DB	00H
	DB	00H
	DB	00H
	DB	00H
	DB	00H
	DB	00H
	DB	00H
	DB	00H
	DB	00H
	DB	00H
	DB	00H
	DB	00H
	DB	00H
	DB	00H
	DB	00H
	DB	00H
	DB	00H
	DB	00H
	DB	00H
	DB	00H
	DB	00H
	DB	00H
	DB	00H
	DB	00H
	DB	00H
	DB	00H
	DB	00H
	DB	00H
	DB	00H
	DB	00H
	DB	00H
	DB	00H
	DB	00H
	DB	00H
	DB	00H
	DB	00H
	DB	00H
	DB	00H
	DB	00H
	DB	00H
	DB	00H
	DB	00H
	DB	00H
	DB	00H
	DB	00H
	DB	00H
	DB	00H
	DB	00H
	DB	00H
	DB	00H
	DB	00H
	DB	00H
	DB	00H
	DB	00H
	DB	00H
	DB	00H
	DB	00H
	DB	00H
	DB	00H
	DB	00H
	DB	00H
	DB	00H
	DB	00H
	DB	00H
	DB	00H
	DB	00H
	DB	00H
	DB	00H
	DB	00H
	DB	00H
	DB	00H
	DB	00H
	DB	00H
	DB	00H
	DB	00H
	DB	00H
	DB	00H
	DB	00H
	DB	00H
	DB	00H
	DB	00H
	DB	00H
	DB	00H
	DB	00H
	DB	00H
	DB	00H
	DB	00H
	DB	00H
	DB	00H
	DB	00H
	DB	00H
	DB	00H
	DB	00H
	DB	00H
	DB	00H
	DB	00H
	DB	00H
	DB	00H
	DB	00H
	DB	00H
	DB	00H
	DB	00H
	DB	00H
	DB	00H
	DB	00H
	DB	00H
	DB	00H
	DB	00H
	DB	00H
	DB	00H
	DB	00H
	DB	00H
	DB	00H
	DB	00H
	DB	00H
	DB	00H
	DB	00H
	DB	00H
	DB	00H
	DB	00H
	DB	00H
	DB	00H
	DB	00H
	DB	00H
	DB	00H
	DB	00H
	DB	00H
	DB	00H
	DB	00H
	DB	00H
	DB	00H
	DB	00H
	DB	00H
	DB	00H
	DB	00H
	DB	00H
	DB	00H
	DB	00H
	DB	00H
	DB	00H
	DB	00H
	DB	00H
	DB	00H
	DB	00H
	DB	00H
	DB	00H
	DB	00H
	DB	00H
	DB	00H
	DB	00H
	DB	00H
	DB	00H
	DB	00H
	DB	00H
	DB	00H
	DB	00H
	DB	00H
	DB	00H
	DB	00H
	DB	00H
	DB	00H
	DB	00H
	DB	00H
	DB	00H
	DB	00H
	DB	00H
	DB	00H
	DB	00H
	DB	00H
	DB	00H
	DB	00H
	DB	00H
	DB	00H
	DB	00H
	DB	00H
	DB	00H
	DB	00H
	DB	00H
	DB	00H
	DB	00H
	DB	00H
	DB	00H
	DB	00H
	DB	00H
	DB	00H
	DB	00H
	DB	00H
	DB	00H
	DB	00H
	DB	00H
	DB	00H
	DB	00H
	DB	00H
	DB	00H
	DB	00H
	DB	00H
	DB	00H
	DB	00H
	DB	00H
	DB	00H
	DB	00H
	DB	00H
	DB	00H
	DB	00H
	DB	00H
	DB	00H
	DB	00H
	DB	00H
	DB	00H
	DB	00H
	DB	00H
	DB	00H
	DB	00H
	DB	00H
	DB	00H
	DB	00H
	DB	00H
	DB	00H
	DB	00H
	DB	00H
	DB	00H
	DB	00H
	DB	00H
	DB	00H
	DB	00H
	DB	00H
	DB	00H
	DB	00H
	DB	00H
	DB	00H
	DB	00H
	DB	00H
	DB	00H
	DB	00H
	DB	00H
	DB	00H
	DB	00H
	DB	00H
	DB	00H
	DB	00H
	DB	00H
	DB	00H
	DB	00H
	DB	00H
	DB	00H
	DB	00H
	DB	00H
	DB	00H
	DB	00H
	DB	00H
	DB	00H
	DB	00H
	DB	00H
	DB	00H
	DB	00H
	DB	00H
	DB	00H
	DB	00H
	DB	00H
	DB	00H
	DB	00H
	DB	00H
	DB	00H
	DB	00H
	DB	00H
	DB	00H
	DB	00H
	DB	00H
	DB	00H
	DB	00H
	DB	00H
	DB	00H
	DB	00H
	DB	00H
	DB	00H
	DB	00H
	DB	00H
	DB	00H
	DB	00H
	DB	00H
	DB	00H
	DB	00H
	DB	00H
	DB	00H
	DB	00H
	DB	00H
	DB	00H
	DB	00H
	DB	00H
	DB	00H
	DB	00H
	DB	00H
	DB	00H
	DB	00H
	DB	00H
	DB	00H
	DB	00H
	DB	00H
	DB	00H
	DB	00H
	DB	00H
	DB	00H
	DB	00H
	DB	00H
	DB	00H
	DB	00H
	DB	00H
	DB	00H
	DB	00H
	DB	00H
	DB	00H
	DB	00H
	DB	00H
	DB	00H
	DB	00H
	DB	00H
	DB	00H
	DB	00H
	DB	00H
	DB	00H
	DB	00H
	DB	00H
	DB	00H
	DB	00H
	DB	00H
	DB	00H
	DB	00H
	DB	00H
	DB	00H
	DB	00H
	DB	00H
	DB	00H
	DB	00H
	DB	00H
	DB	00H
	DB	00H
	DB	00H
	DB	00H
	DB	00H
	DB	00H
	DB	00H
	DB	00H
	DB	00H
	DB	00H
	DB	00H
	DB	00H
	DB	00H
	DB	00H
	DB	00H
	DB	00H
	DB	00H
	DB	00H
	DB	00H
	DB	00H
	DB	00H
	DB	00H
	DB	00H
	DB	00H
	DB	00H
	DB	00H
	DB	00H
	DB	00H
	DB	00H
	DB	00H
	DB	00H
	DB	00H
	DB	00H
	DB	00H
	DB	00H
	DB	00H
	DB	00H
	DB	00H
	DB	00H
	DB	00H
	DB	00H
	DB	00H
	DB	00H
	DB	00H
	DB	00H
	DB	00H
	DB	00H
	DB	00H
	DB	00H
	DB	00H
	DB	00H
	DB	00H
	DB	00H
	DB	00H
	DB	00H
	DB	00H
	DB	00H
	DB	00H
	DB	00H
	DB	00H
	DB	00H
	DB	00H
	DB	00H
	DB	00H
	DB	00H
	DB	00H
	DB	00H
	DB	00H
	DB	00H
	DB	00H
	DB	00H
	DB	00H
	DB	00H
	DB	00H
	DB	00H
	DB	00H
	DB	00H
	DB	00H
	DB	00H
	DB	00H
	DB	00H
	DB	00H
	DB	00H
	DB	00H
	DB	00H
	DB	00H
	DB	00H
	DB	00H
	DB	00H
	DB	00H
	DB	00H
	DB	00H
	DB	00H
	DB	00H
	DB	00H
	DB	00H
	DB	00H
	DB	00H
	DB	00H
	DB	00H
	DB	00H
	DB	00H
	DB	00H
	DB	00H
	DB	00H
	DB	00H
	DB	00H
	DB	00H
	DB	00H
	DB	00H
	DB	00H
	DB	00H
	DB	00H
	DB	00H
	DB	00H
	DB	00H
	DB	00H
	DB	00H
	DB	00H
	DB	00H
	DB	00H
	DB	00H
	DB	00H
	DB	00H
	DB	00H
	DB	00H
	DB	00H
	DB	00H
	DB	00H
	DB	00H
	DB	00H
	DB	00H
	DB	00H
	DB	00H
	DB	00H
	DB	00H
	DB	00H
	DB	00H
	DB	00H
	DB	00H
	DB	00H
	DB	00H
	DB	00H
	DB	00H
	DB	00H
	DB	00H
	DB	00H
	DB	00H
	DB	00H
	DB	00H
	DB	00H
	DB	00H
	DB	00H
	DB	00H
	DB	00H
	DB	00H
	DB	00H
	DB	00H
	DB	00H
	DB	00H
	DB	00H
	DB	00H
	DB	00H
	DB	00H
	DB	00H
	DB	00H
	DB	00H
	DB	00H
	DB	00H
	DB	00H
	DB	00H
	DB	00H
	DB	00H
	DB	00H
	DB	00H
	DB	00H
	DB	00H
	DB	00H
	DB	00H
	DB	00H
	DB	00H
	DB	00H
	DB	00H
	DB	00H
	DB	00H
	DB	00H
	DB	00H
	DB	00H
	DB	00H
	DB	00H
	DB	00H
	DB	00H
	DB	00H
	DB	00H
	DB	00H
	DB	00H
	DB	00H
	DB	00H
	DB	00H
	DB	00H
	DB	00H
	DB	00H
	DB	00H
	DB	00H
	DB	00H
	DB	00H
	DB	00H
	DB	00H
	DB	00H
	DB	00H
	DB	00H
	DB	00H
	DB	00H
	DB	00H
	DB	00H
	DB	00H
	DB	00H
	DB	00H
	DB	00H
	DB	00H
	DB	00H
	DB	00H
	DB	00H
	DB	00H
	DB	00H
	DB	00H
	DB	00H
	DB	00H
	DB	00H
	DB	00H
	DB	00H
	DB	00H
	DB	00H
	DB	00H
	DB	00H
	DB	00H
	DB	00H
	DB	00H
	DB	00H
	DB	00H
	DB	00H
	DB	00H
	DB	00H
	DB	00H
	DB	00H
	DB	00H
	DB	00H
	DB	00H
	DB	00H
	DB	00H
	DB	00H
	DB	00H
	DB	00H
	DB	00H
	DB	00H
	DB	00H
	DB	00H
	DB	00H
	DB	00H
	DB	00H
	DB	00H
	DB	00H
	DB	00H
	DB	00H
	DB	00H
	DB	00H
	DB	00H
	DB	00H
	DB	00H
	DB	00H
	DB	00H
	DB	00H
	DB	00H
	DB	00H
	DB	00H
	DB	00H
	DB	00H
	DB	00H
	DB	00H
	DB	00H
	DB	00H
	DB	00H
	DB	00H
	DB	00H
	DB	00H
	DB	00H
	DB	00H
	DB	00H
	DB	00H
	DB	00H
	DB	00H
	DB	00H
	DB	00H
	DB	00H
	DB	00H
	DB	00H
	DB	00H
	DB	00H
	DB	00H
	DB	00H
	DB	00H
	DB	00H
	DB	00H
	DB	00H
	DB	00H
	DB	00H
	DB	00H
	DB	00H
	DB	00H
	DB	00H
	DB	00H
	DB	00H
	DB	00H
	DB	00H
	DB	00H
	DB	00H
	DB	00H
	DB	00H
	DB	00H
	DB	00H
	DB	00H
	DB	00H
	DB	00H
	DB	00H
	DB	00H
	DB	00H
	DB	00H
	DB	00H
	DB	00H
	DB	00H
	DB	00H
	DB	00H
	DB	00H
	DB	00H
	DB	00H
	DB	00H
	DB	00H
	DB	00H
	DB	00H
	DB	00H
	DB	00H
	DB	00H
	DB	00H
	DB	00H
	DB	00H
	DB	00H
	DB	00H
	DB	00H
	DB	00H
	DB	00H
	DB	00H
	DB	00H
	DB	00H
	DB	00H
	DB	00H
	DB	00H
	DB	00H
	DB	00H
	DB	00H
	DB	00H
	DB	00H
	DB	00H
	DB	00H
	DB	00H
	DB	00H
	DB	00H
	DB	00H
	DB	00H
	DB	00H
	DB	00H
	DB	00H
	DB	00H
	DB	00H
	DB	00H
	DB	00H
	DB	00H
	DB	00H
	DB	00H
	DB	00H
	DB	00H
	DB	00H
	DB	00H
	DB	00H
	DB	00H
	DB	00H
	DB	00H
	DB	00H
	DB	00H
	DB	00H
	DB	00H
	DB	00H
	DB	00H
	DB	00H
	DB	00H
	DB	00H
	DB	00H
	DB	00H
	DB	00H
	DB	00H
	DB	00H
	DB	00H
	DB	00H
	DB	00H
	DB	00H
	DB	00H
	DB	00H
	DB	00H
	DB	00H
	DB	00H
	DB	00H
	DB	00H
	DB	00H
	DB	00H
	DB	00H
	DB	00H
	DB	00H
	DB	00H
	DB	00H
	DB	00H
	DB	00H
	DB	00H
	DB	00H
	DB	00H
	DB	00H
	DB	00H
	DB	00H
	DB	00H
	DB	00H
	DB	00H
	DB	00H
	DB	00H
	DB	00H
	DB	00H
	DB	00H
	DB	00H
	DB	00H
	DB	00H
	DB	00H
	DB	00H
	DB	00H
	DB	00H
	DB	00H
	DB	00H
	DB	00H
	DB	00H
	DB	00H
	DB	00H
	DB	00H
	DB	00H
	DB	00H
	DB	00H
	DB	00H
	DB	00H
	DB	00H
	DB	00H
	DB	00H
	DB	00H
	DB	00H
	DB	00H
	DB	00H
	DB	00H
	DB	00H
	DB	00H
	DB	00H
	DB	00H
	DB	00H
	DB	00H
	DB	00H
	DB	00H
	DB	00H
	DB	00H
	DB	00H
	DB	00H
	DB	00H
	DB	00H
	DB	00H
	DB	00H
	DB	00H
	DB	00H
	DB	00H
	DB	00H
	DB	00H
	DB	00H
	DB	00H
	DB	00H
	DB	00H
	DB	00H
	DB	00H
	DB	00H
	DB	00H
	DB	00H
	DB	00H
	DB	00H
	DB	00H
	DB	00H
	DB	00H
	DB	00H
	DB	00H
	DB	00H
	DB	00H
	DB	00H
	DB	00H
	DB	00H
	DB	00H
	DB	00H
	DB	00H
	DB	00H
	DB	00H
	DB	00H
	DB	00H
	DB	00H
	DB	00H
	DB	00H
	DB	00H
	DB	00H
	DB	00H
	DB	00H
	DB	00H
	DB	00H
	DB	00H
	DB	00H
	DB	00H
	DB	00H
	DB	00H
	DB	00H
	DB	00H
	DB	00H
	DB	00H
	DB	00H
	DB	00H
	DB	00H
	DB	00H
	DB	00H
	DB	00H
	DB	00H
	DB	00H
	DB	00H
	DB	00H
	DB	00H
	DB	00H
	DB	00H
	DB	00H
	DB	00H
	DB	00H
	DB	00H
	DB	00H
	DB	00H
	DB	00H
	DB	00H
	DB	00H
	DB	00H
	DB	00H
	DB	00H
	DB	00H
	DB	00H
	DB	00H
	DB	00H
	DB	00H
	DB	00H
	DB	00H
	DB	00H
	DB	00H
	DB	00H
	DB	00H
	DB	00H
	DB	00H
	DB	00H
	DB	00H
	DB	00H
	DB	00H
	DB	00H
	DB	00H
	DB	00H
	DB	00H
	DB	00H
	DB	00H
	DB	00H
	DB	00H
	DB	00H
	DB	00H
	DB	00H
	DB	00H
	DB	00H
	DB	00H
	DB	00H
	DB	00H
	DB	00H
	DB	00H
	DB	00H
	DB	00H
	DB	00H
	DB	00H
	DB	00H
	DB	00H
	DB	00H
	DB	00H
	DB	00H
	DB	00H
	DB	00H
	DB	00H
	DB	00H
	DB	00H
	DB	00H
	DB	00H
	DB	00H
	DB	00H
	DB	00H
	DB	00H
	DB	00H
	DB	00H
	DB	00H
	DB	00H
	DB	00H
	DB	00H
	DB	00H
	DB	00H
	DB	00H
	DB	00H
	DB	00H
	DB	00H
	DB	00H
	DB	00H
	DB	00H
	DB	00H
	DB	00H
	DB	00H
	DB	00H
	DB	00H
	DB	00H
	DB	00H
	DB	00H
	DB	00H
	DB	00H
	DB	00H
	DB	00H
	DB	00H
	DB	00H
	DB	00H
	DB	00H
	DB	00H
	DB	00H
	DB	00H
	DB	00H
	DB	00H
	DB	00H
	DB	00H
	DB	00H
	DB	00H
	DB	00H
	DB	00H
	DB	00H
	DB	00H
	DB	00H
	DB	00H
	DB	00H
	DB	00H
	DB	00H
	DB	00H
	DB	00H
	DB	00H
	DB	00H
	DB	00H
	DB	00H
	DB	00H
	DB	00H
	DB	00H
	DB	00H
	DB	00H
	DB	00H
	DB	00H
	DB	00H
	DB	00H
	DB	00H
	DB	00H
	DB	00H
	DB	00H
	DB	00H
	DB	00H
	DB	00H
	DB	00H
	DB	00H
	DB	00H
	DB	00H
	DB	00H
	DB	00H
	DB	00H
	DB	00H
	DB	00H
	DB	00H
	DB	00H
	DB	00H
	DB	00H
	DB	00H
	DB	00H
	DB	00H
	DB	00H
	DB	00H
	DB	00H
	DB	00H
	DB	00H
	DB	00H
	DB	00H
	DB	00H
	DB	00H
	DB	00H
	DB	00H
	DB	00H
	DB	00H
	DB	00H
	DB	00H
	DB	00H
	DB	00H
	DB	00H
	DB	00H
	DB	00H
	DB	00H
	DB	00H
	DB	00H
	DB	00H
	DB	00H
	DB	00H
	DB	00H
	DB	00H
	DB	00H
	DB	00H
	DB	00H
	DB	00H
	DB	00H
	DB	00H
	DB	00H
	DB	00H
	DB	00H
	DB	00H
	DB	00H
	DB	00H
	DB	00H
	DB	00H
	DB	00H
	DB	00H
	DB	00H
	DB	00H
	DB	00H
	DB	00H
	DB	00H
	DB	00H
	DB	00H
	DB	00H
	DB	00H
	DB	00H
	DB	00H
	DB	00H
	DB	00H
	DB	00H
	DB	00H
	DB	00H
	DB	00H
	DB	00H
	DB	00H
	DB	00H
	DB	00H
	DB	00H
	DB	00H
	DB	00H
	DB	00H
	DB	00H
	DB	00H
	DB	00H
	DB	00H
	DB	00H
	DB	00H
	DB	00H
	DB	00H
	DB	00H
	DB	00H
	DB	00H
	DB	00H
	DB	00H
	DB	00H
	DB	00H
	DB	00H
	DB	00H
	DB	00H
	DB	00H
	DB	00H
	DB	00H
	DB	00H
	DB	00H
	DB	00H
	DB	00H
	DB	00H
	DB	00H
	DB	00H
	DB	00H
	DB	00H
	DB	00H
	DB	00H
	DB	00H
	DB	00H
	DB	00H
	DB	00H
	DB	00H
	DB	00H
	DB	00H
	DB	00H
	DB	00H
	DB	00H
	DB	00H
	DB	00H
	DB	00H
	DB	00H
	DB	00H
	DB	00H
	DB	00H
	DB	00H
	DB	00H
	DB	00H
	DB	00H
	DB	00H
	DB	00H
	DB	00H
	DB	00H
	DB	00H
	DB	00H
	DB	00H
	DB	00H
	DB	00H
	DB	00H
	DB	00H
	DB	00H
	DB	00H
	DB	00H
	DB	00H
	DB	00H
	DB	00H
	DB	00H
	DB	00H
	DB	00H
	DB	00H
	DB	00H
	DB	00H
	DB	00H
	DB	00H
	DB	00H
	DB	00H
	DB	00H
	DB	00H
	DB	00H
	DB	00H
	DB	00H
	DB	00H
	DB	00H
	DB	00H
	DB	00H
	DB	00H
	DB	00H
	DB	00H
	DB	00H
	DB	00H
	DB	00H
	DB	00H
	DB	00H
	DB	00H
	DB	00H
	DB	00H
	DB	00H
	DB	00H
	DB	00H
	DB	00H
	DB	00H
	DB	00H
	DB	00H
	DB	00H
	DB	00H
	DB	00H
	DB	00H
	DB	00H
	DB	00H
	DB	00H
	DB	00H
	DB	00H
	DB	00H
	DB	00H
	DB	00H
	DB	00H
	DB	00H
	DB	00H
	DB	00H
	DB	00H
	DB	00H
	DB	00H
	DB	00H
	DB	00H
	DB	00H
	DB	00H
	DB	00H
	DB	00H
	DB	00H
	DB	00H
	DB	00H
	DB	00H
	DB	00H
	DB	00H
	DB	00H
	DB	00H
	DB	00H
	DB	00H
	DB	00H
	DB	00H
	DB	00H
	DB	00H
	DB	00H
	DB	00H
	DB	00H
	DB	00H
	DB	00H
	DB	00H
	DB	00H
	DB	00H
	DB	00H
	DB	00H
	DB	00H
	DB	00H
	DB	00H
	DB	00H
	DB	00H
	DB	00H
	DB	00H
	DB	00H
	DB	00H
	DB	00H
	DB	00H
	DB	00H
	DB	00H
	DB	00H
	DB	00H
	DB	00H
	DB	00H
	DB	00H
	DB	00H
	DB	00H
	DB	00H
	DB	00H
	DB	00H
	DB	00H
	DB	00H
	DB	00H
	DB	00H
	DB	00H
	DB	00H
	DB	00H
	DB	00H
	DB	00H
	DB	00H
	DB	00H
	DB	00H
	DB	00H
	DB	00H
	DB	00H
	DB	00H
	DB	00H
	DB	00H
	DB	00H
	DB	00H
	DB	00H
	DB	00H
	DB	00H
	DB	00H
	DB	00H
	DB	00H
	DB	00H
	DB	00H
	DB	00H
	DB	00H
	DB	00H
	DB	00H
	DB	00H
	DB	00H
	DB	00H
	DB	00H
	DB	00H
	DB	00H
	DB	00H
	DB	00H
	DB	00H
	DB	00H
	DB	00H
	DB	00H
	DB	00H
	DB	00H
	DB	00H
	DB	00H
	DB	00H
	DB	00H
	DB	00H
	DB	00H
	DB	00H
	DB	00H
	DB	00H
	DB	00H
	DB	00H
	DB	00H
	DB	00H
	DB	00H
	DB	00H
	DB	00H
	DB	00H
	DB	00H
	DB	00H
	DB	00H
	DB	00H
	DB	00H
	DB	00H
	DB	00H
	DB	00H
	DB	00H
	DB	00H
	DB	00H
	DB	00H
	DB	00H
	DB	00H
	DB	00H
	DB	00H
	DB	00H
	DB	00H
	DB	00H
	DB	00H
	DB	00H
	DB	00H
	DB	00H
	DB	00H
	DB	00H
	DB	00H
	DB	00H
	DB	00H
	DB	00H
	DB	00H
	DB	00H
	DB	00H
	DB	00H
	DB	00H
	DB	00H
	DB	00H
	DB	00H
	DB	00H
	DB	00H
	DB	00H
	DB	00H
	DB	00H
	DB	00H
	DB	00H
	DB	00H
	DB	00H
	DB	00H
	DB	00H
	DB	00H
	DB	00H
	DB	00H
	DB	00H
	DB	00H
	DB	00H
	DB	00H
	DB	00H
	DB	00H
	DB	00H
	DB	00H
	DB	00H
	DB	00H
	DB	00H
	DB	00H
	DB	00H
	DB	00H
	DB	00H
	DB	00H
	DB	00H
	DB	00H
	DB	00H
	DB	00H
	DB	00H
	DB	00H
	DB	00H
	DB	00H
	DB	00H
	DB	00H
	DB	00H
	DB	00H
	DB	00H
	DB	00H
	DB	00H
	DB	00H
	DB	00H
	DB	00H
	DB	00H
	DB	00H
	DB	00H
	DB	00H
	DB	00H
	DB	00H
	DB	00H
	DB	00H
	DB	00H
	DB	00H
	DB	00H
	DB	00H
	DB	00H
	DB	00H
	DB	00H
	DB	00H
	DB	00H
	DB	00H
	DB	00H
	DB	00H
	DB	00H
	DB	00H
	DB	00H
	DB	00H
	DB	00H
	DB	00H
	DB	00H
	DB	00H
	DB	00H
	DB	00H
	DB	00H
	DB	00H
	DB	00H
	DB	00H
	DB	00H
	DB	00H
	DB	00H
	DB	00H
	DB	00H
	DB	00H
	DB	00H
	DB	00H
	DB	00H
	DB	00H
	DB	00H
	DB	00H
	DB	00H
	DB	00H
	DB	00H
	DB	00H
	DB	00H
	DB	00H
	DB	00H
	DB	00H
	DB	00H
	DB	00H
	DB	00H
	DB	00H
	DB	00H
	DB	00H
	DB	00H
	DB	00H
	DB	00H
	DB	00H
	DB	00H
	DB	00H
	DB	00H
	DB	00H
	DB	00H
	DB	00H
	DB	00H
	DB	00H
	DB	00H
	DB	00H
	DB	00H
	DB	00H
	DB	00H
	DB	00H
	DB	00H
	DB	00H
	DB	00H
	DB	00H
	DB	00H
	DB	00H
	DB	00H
	DB	00H
	DB	00H
	DB	00H
	DB	00H
	DB	00H
	DB	00H
	DB	00H
	DB	00H
	DB	00H
	DB	00H
	DB	00H
	DB	00H
	DB	00H
	DB	00H
	DB	00H
	DB	00H
	DB	00H
	DB	00H
	DB	00H
	DB	00H
	DB	00H
	DB	00H
	DB	00H
	DB	00H
	DB	00H
	DB	00H
	DB	00H
	DB	00H
	DB	00H
	DB	00H
	DB	00H
	DB	00H
	DB	00H
	DB	00H
	DB	00H
	DB	00H
	DB	00H
	DB	00H
	DB	00H
	DB	00H
	DB	00H
	DB	00H
CONST	ENDS
END
