; Listing generated by Microsoft (R) Optimizing Compiler Version 16.00.40219.01 

	TITLE	C:\DUII\DUII\Graphics\StartFinish.c
	.686P
	.XMM
	include listing.inc
	.model	flat

INCLUDELIB LIBCMT
INCLUDELIB OLDNAMES

PUBLIC	_bmStartFinish
CONST	SEGMENT
_ColorsStartFinish DD 00H
	DD	0fefefeH
	DD	0d7d8d7H
	DD	016140bH
	DD	0c8c8c7H
	DD	0b8b8b6H
	DD	0e3e3e3H
	DD	0778b93H
	DD	07b9299H
	DD	0f6f7H
	DD	0171815H
	DD	0a7a7a6H
	DD	06a6865H
	DD	0989997H
	DD	074868aH
	DD	0888986H
	DD	0797875H
	DD	0869ba3H
	DD	0859599H
	DD	0575855H
	DD	0474745H
	DD	075726bH
	DD	0657679H
	DD	0272825H
	DD	0575349H
	DD	0947757H
	DD	08ba2a8H
	DD	0383836H
	DD	0687c82H
	DD	06c8289H
	DD	087837aH
	DD	068635bH
	DD	036352aH
	DD	0576768H
	DD	094a5a9H
	DD	0140906H
	DD	0484439H
	DD	0726c67H
	DD	057071H
	DD	027251aH
	DD	08d6848H
	DD	0926b4aH
	DD	0ced0H
	DD	0584939H
	DD	0231b16H
	DD	0837c76H
	DD	01b2624H
	DD	0928c86H
	DD	0475656H
	DD	0acaeH
	DD	096abb3H
	DD	0887a65H
	DD	095928bH
	DD	0384646H
	DD	0534c45H
	DD	041919H
	DD	0635c56H
	DD	0342b26H
	DD	0b3b1acH
	DD	0433c36H
	DD	02a3835H
	DD	0a3a29cH
	DD	0897459H
	DD	09799H
	DD	065656H
	DD	0726957H
	DD	01a231bH
	DD	05c7176H
	DD	0cdd0ccH
	DD	028332bH
	DD	0a19b98H
	DD	09bb2baH
	DD	05a6d72H
	DD	0d0d1ceH
	DD	0655b47H
	DD	0b1aeaaH
	DD	0c3c2bdH
	DD	021190dH
	DD	0968163H
	DD	0a120aH
	DD	073738H
	DD	074647H
	DD	0937d62H
	DD	018889H
	DD	0aab3b4H
	DD	0264746H
	DD	0868d92H
	DD	072526H
	DD	09a815eH
	DD	0c1bdbbH
	DD	058513dH
	DD	0abb0adH
	DD	039423bH
	DD	0395353H
	DD	06b716aH
	DD	0184546H
	DD	04a524bH
	DD	068614cH
	DD	07d97a0H
	DD	0bdc0bcH
	DD	0dbe2e2H
	DD	05b615bH
	DD	095704eH
	DD	09ba29bH
	DD	0bcc4c3H
	DD	0230b0aH
	DD	0443a29H
	DD	08c6e51H
	DD	0e1e2ddH
	DD	073654dH
	DD	0727d83H
	DD	0bec0H
	DD	08a918cH
	DD	0979ea2H
	DD	033291cH
	DD	0163636H
	DD	0155758H
	DD	07b715aH
	DD	0616e71H
	DD	04b5c61H
	DD	04c6263H
	DD	07c817dH
	DD	092897dH
	DD	0ced1d0H
	DD	0dee0dcH
	DD	027f80H
	DD	0d1cdcaH
	DD	0e9f4f5H
	DD	01a1e20H
	DD	02a5454H
	DD	0464954H
	DD	028e90H
	DD	09fa1H
	DD	0e1dddaH
	DD	040c11H
	DD	02a413bH
	DD	0936c52H
	DD	08f8064H
	DD	08da5b1H
	DD	0351a17H
	DD	0193428H
	DD	0496258H
	DD	0a07c57H
	DD	0a4acb2H
	DD	0a6bac2H
	DD	0bdbec0H
	DD	0cbcdd3H
	DD	0dcdee6H
	DD	083426H
	DD	0282b32H
	DD	0432c2cH
	DD	03d5449H
	DD	0316666H
	DD	0545c62H
	DD	06a8795H
	DD	0c3b6acH
	DD	0e9f4e5H
	DD	071f20H
	DD	072f30H
	DD	0523935H
	DD	060563bH
	DD	075c41H
	DD	01c5848H
	DD	065f60H
	DD	05c716cH
	DD	08d3425H
	DD	08a5953H
	DD	0a65645H
	DD	06e807eH
	DD	0a0805dH
	DD	097917dH
	DD	0789389H
	DD	0dee1H
	DD	08488abH
	DD	09ba6c9H
	DD	0bed6cdH
	DD	0dbf3e7H
	DD	0320e0eH
	DD	08301dH
	DD	02f301fH
	DD	0101f32H
	DD	01f2e31H
	DD	051371dH
	DD	0533c2fH
	DD	01e573eH
	DD	03c412eH
	DD	041422cH
	DD	05e562fH
	DD	0686437H
	DD	0726136H
	DD	01a244eH
	DD	033f40H
	DD	0183f40H
	DD	02d3749H
	DD	0343c40H
	DD	0283b54H
	DD	0233175H
	DD	0503e41H
	DD	07d3852H
	DD	0d4f50H
	DD	0114f50H
	DD	02a5341H
	DD	03f4d54H
	DD	0e6d4cH
	DD	01d6253H
	DD	0117a55H
	DD	02e426aH
	DD	0235f61H
	DD	03f5060H
	DD	0715e47H
	DD	048537aH
	DD	0515e7bH
	DD	0794d6eH
	DD	06d5f61H
	DD	08e341cH
	DD	0a7452eH
	DD	0a24c3aH
	DD	08e704eH
	DD	0ae6349H
	DD	08a6c77H
	DD	0917f7eH
	DD	0a5717fH
	DD	0b27f74H
	DD	02815cH
	DD	0bf8569H
	DD	0b28971H
	DD	0847f81H
	DD	07d8cb6H
	DD	07cb4a3H
	DD	0b09782H
	DD	0b6a899H
	DD	0b7b29bH
	DD	0a09fa0H
	DD	0c5b599H
	DD	094c1aaH
	DD	09cceb9H
	DD	08892c7H
	DD	093bed7H
	DD	0afb4d3H
	DD	0c0bfc0H
	DD	0afc0c1H
	DD	0b9e0cfH
	DD	0b7d5e2H
	DD	0d1cfd3H
	DD	0e5c9cfH
	DD	0e0cdd1H
	DD	0cae2d0H
	DD	0c0f1dbH
	DD	0ced7e1H
	DD	0c5d5f5H
	DD	0e0dfe0H
	DD	0c5f4e9H
	DD	0dbe5f1H
	DD	0dff3f1H
	DD	0f6eeefH
	DD	0f3eff0H
_PalStartFinish DD 0100H
	DB	00H
	ORG $+3
	DD	FLAT:_ColorsStartFinish
_bmStartFinish DW 0b2H
	DW	073H
	DW	0b2H
	DW	08H
	DD	FLAT:_acStartFinish
	DD	FLAT:_PalStartFinish
	ORG $+4
_acStartFinish DB 00H
	DB	00H
	DB	00H
	DB	00H
	DB	00H
	DB	00H
	DB	00H
	DB	00H
	DB	00H
	DB	00H
	DB	00H
	DB	00H
	DB	00H
	DB	00H
	DB	00H
	DB	00H
	DB	00H
	DB	00H
	DB	00H
	DB	00H
	DB	00H
	DB	00H
	DB	00H
	DB	00H
	DB	00H
	DB	00H
	DB	00H
	DB	00H
	DB	00H
	DB	00H
	DB	00H
	DB	00H
	DB	00H
	DB	00H
	DB	00H
	DB	00H
	DB	00H
	DB	00H
	DB	00H
	DB	00H
	DB	00H
	DB	00H
	DB	00H
	DB	00H
	DB	00H
	DB	00H
	DB	00H
	DB	00H
	DB	00H
	DB	00H
	DB	00H
	DB	00H
	DB	00H
	DB	00H
	DB	00H
	DB	00H
	DB	00H
	DB	00H
	DB	00H
	DB	00H
	DB	00H
	DB	00H
	DB	00H
	DB	00H
	DB	00H
	DB	00H
	DB	00H
	DB	00H
	DB	00H
	DB	00H
	DB	00H
	DB	00H
	DB	00H
	DB	00H
	DB	00H
	DB	00H
	DB	00H
	DB	00H
	DB	00H
	DB	00H
	DB	00H
	DB	00H
	DB	00H
	DB	00H
	DB	00H
	DB	00H
	DB	00H
	DB	00H
	DB	00H
	DB	00H
	DB	00H
	DB	00H
	DB	00H
	DB	00H
	DB	00H
	DB	00H
	DB	00H
	DB	00H
	DB	00H
	DB	00H
	DB	00H
	DB	00H
	DB	00H
	DB	00H
	DB	00H
	DB	00H
	DB	00H
	DB	00H
	DB	00H
	DB	00H
	DB	00H
	DB	00H
	DB	00H
	DB	00H
	DB	00H
	DB	00H
	DB	00H
	DB	00H
	DB	00H
	DB	00H
	DB	00H
	DB	00H
	DB	00H
	DB	00H
	DB	00H
	DB	00H
	DB	00H
	DB	00H
	DB	00H
	DB	00H
	DB	00H
	DB	00H
	DB	00H
	DB	00H
	DB	00H
	DB	00H
	DB	00H
	DB	00H
	DB	00H
	DB	00H
	DB	00H
	DB	00H
	DB	00H
	DB	00H
	DB	00H
	DB	00H
	DB	00H
	DB	00H
	DB	00H
	DB	00H
	DB	00H
	DB	00H
	DB	00H
	DB	00H
	DB	00H
	DB	00H
	DB	00H
	DB	00H
	DB	00H
	DB	00H
	DB	00H
	DB	00H
	DB	00H
	DB	00H
	DB	00H
	DB	00H
	DB	00H
	DB	00H
	DB	00H
	DB	00H
	DB	00H
	DB	00H
	DB	00H
	DB	00H
	DB	00H
	DB	00H
	DB	00H
	DB	00H
	DB	00H
	DB	00H
	DB	00H
	DB	00H
	DB	00H
	DB	00H
	DB	00H
	DB	00H
	DB	00H
	DB	00H
	DB	00H
	DB	00H
	DB	00H
	DB	00H
	DB	00H
	DB	00H
	DB	00H
	DB	00H
	DB	00H
	DB	00H
	DB	00H
	DB	00H
	DB	00H
	DB	00H
	DB	00H
	DB	00H
	DB	00H
	DB	00H
	DB	00H
	DB	00H
	DB	00H
	DB	00H
	DB	00H
	DB	00H
	DB	00H
	DB	00H
	DB	00H
	DB	00H
	DB	00H
	DB	00H
	DB	00H
	DB	00H
	DB	00H
	DB	00H
	DB	00H
	DB	00H
	DB	00H
	DB	00H
	DB	00H
	DB	00H
	DB	00H
	DB	00H
	DB	00H
	DB	00H
	DB	00H
	DB	00H
	DB	00H
	DB	00H
	DB	00H
	DB	00H
	DB	00H
	DB	00H
	DB	00H
	DB	00H
	DB	00H
	DB	00H
	DB	00H
	DB	00H
	DB	00H
	DB	00H
	DB	00H
	DB	00H
	DB	00H
	DB	00H
	DB	00H
	DB	00H
	DB	00H
	DB	00H
	DB	00H
	DB	00H
	DB	00H
	DB	00H
	DB	00H
	DB	00H
	DB	00H
	DB	00H
	DB	00H
	DB	00H
	DB	00H
	DB	00H
	DB	00H
	DB	00H
	DB	00H
	DB	00H
	DB	00H
	DB	00H
	DB	00H
	DB	00H
	DB	00H
	DB	00H
	DB	00H
	DB	00H
	DB	00H
	DB	00H
	DB	00H
	DB	00H
	DB	00H
	DB	00H
	DB	00H
	DB	00H
	DB	00H
	DB	00H
	DB	00H
	DB	00H
	DB	00H
	DB	00H
	DB	00H
	DB	00H
	DB	00H
	DB	00H
	DB	00H
	DB	00H
	DB	00H
	DB	00H
	DB	00H
	DB	00H
	DB	00H
	DB	00H
	DB	00H
	DB	00H
	DB	00H
	DB	00H
	DB	00H
	DB	00H
	DB	00H
	DB	00H
	DB	00H
	DB	00H
	DB	00H
	DB	00H
	DB	00H
	DB	00H
	DB	00H
	DB	00H
	DB	00H
	DB	00H
	DB	00H
	DB	00H
	DB	00H
	DB	00H
	DB	00H
	DB	00H
	DB	00H
	DB	00H
	DB	00H
	DB	00H
	DB	00H
	DB	00H
	DB	00H
	DB	00H
	DB	00H
	DB	00H
	DB	00H
	DB	00H
	DB	00H
	DB	00H
	DB	00H
	DB	00H
	DB	00H
	DB	00H
	DB	00H
	DB	00H
	DB	00H
	DB	00H
	DB	00H
	DB	00H
	DB	00H
	DB	00H
	DB	00H
	DB	00H
	DB	00H
	DB	00H
	DB	00H
	DB	00H
	DB	00H
	DB	00H
	DB	00H
	DB	00H
	DB	00H
	DB	00H
	DB	00H
	DB	00H
	DB	00H
	DB	00H
	DB	00H
	DB	00H
	DB	00H
	DB	00H
	DB	00H
	DB	00H
	DB	00H
	DB	00H
	DB	00H
	DB	00H
	DB	00H
	DB	00H
	DB	00H
	DB	00H
	DB	00H
	DB	00H
	DB	00H
	DB	00H
	DB	00H
	DB	00H
	DB	00H
	DB	00H
	DB	00H
	DB	00H
	DB	00H
	DB	00H
	DB	00H
	DB	00H
	DB	00H
	DB	00H
	DB	00H
	DB	00H
	DB	00H
	DB	00H
	DB	00H
	DB	00H
	DB	00H
	DB	00H
	DB	00H
	DB	00H
	DB	00H
	DB	00H
	DB	00H
	DB	00H
	DB	00H
	DB	00H
	DB	00H
	DB	00H
	DB	00H
	DB	00H
	DB	00H
	DB	00H
	DB	00H
	DB	00H
	DB	00H
	DB	00H
	DB	00H
	DB	00H
	DB	00H
	DB	00H
	DB	00H
	DB	00H
	DB	00H
	DB	00H
	DB	00H
	DB	00H
	DB	00H
	DB	00H
	DB	00H
	DB	00H
	DB	00H
	DB	00H
	DB	00H
	DB	00H
	DB	00H
	DB	00H
	DB	00H
	DB	00H
	DB	00H
	DB	00H
	DB	00H
	DB	00H
	DB	00H
	DB	00H
	DB	00H
	DB	00H
	DB	00H
	DB	00H
	DB	00H
	DB	00H
	DB	00H
	DB	00H
	DB	00H
	DB	00H
	DB	00H
	DB	00H
	DB	00H
	DB	00H
	DB	00H
	DB	00H
	DB	00H
	DB	00H
	DB	00H
	DB	00H
	DB	00H
	DB	00H
	DB	00H
	DB	00H
	DB	00H
	DB	00H
	DB	00H
	DB	00H
	DB	00H
	DB	00H
	DB	00H
	DB	00H
	DB	00H
	DB	00H
	DB	00H
	DB	00H
	DB	00H
	DB	00H
	DB	00H
	DB	00H
	DB	00H
	DB	00H
	DB	00H
	DB	00H
	DB	00H
	DB	00H
	DB	00H
	DB	00H
	DB	00H
	DB	00H
	DB	00H
	DB	00H
	DB	00H
	DB	00H
	DB	00H
	DB	00H
	DB	00H
	DB	00H
	DB	00H
	DB	00H
	DB	00H
	DB	00H
	DB	00H
	DB	00H
	DB	00H
	DB	00H
	DB	00H
	DB	00H
	DB	00H
	DB	00H
	DB	00H
	DB	00H
	DB	00H
	DB	00H
	DB	00H
	DB	00H
	DB	00H
	DB	00H
	DB	00H
	DB	00H
	DB	00H
	DB	00H
	DB	00H
	DB	00H
	DB	00H
	DB	00H
	DB	00H
	DB	00H
	DB	00H
	DB	00H
	DB	00H
	DB	00H
	DB	00H
	DB	00H
	DB	00H
	DB	00H
	DB	00H
	DB	00H
	DB	00H
	DB	00H
	DB	00H
	DB	00H
	DB	00H
	DB	00H
	DB	00H
	DB	00H
	DB	00H
	DB	00H
	DB	00H
	DB	00H
	DB	00H
	DB	00H
	DB	00H
	DB	00H
	DB	00H
	DB	00H
	DB	00H
	DB	00H
	DB	00H
	DB	00H
	DB	00H
	DB	00H
	DB	00H
	DB	00H
	DB	00H
	DB	00H
	DB	00H
	DB	00H
	DB	00H
	DB	00H
	DB	00H
	DB	00H
	DB	00H
	DB	00H
	DB	00H
	DB	00H
	DB	00H
	DB	00H
	DB	00H
	DB	00H
	DB	00H
	DB	00H
	DB	00H
	DB	00H
	DB	00H
	DB	00H
	DB	00H
	DB	00H
	DB	00H
	DB	00H
	DB	00H
	DB	00H
	DB	00H
	DB	00H
	DB	00H
	DB	00H
	DB	00H
	DB	00H
	DB	00H
	DB	00H
	DB	00H
	DB	00H
	DB	00H
	DB	00H
	DB	00H
	DB	00H
	DB	00H
	DB	00H
	DB	00H
	DB	00H
	DB	00H
	DB	00H
	DB	00H
	DB	00H
	DB	00H
	DB	00H
	DB	00H
	DB	00H
	DB	00H
	DB	00H
	DB	00H
	DB	00H
	DB	00H
	DB	00H
	DB	00H
	DB	00H
	DB	00H
	DB	00H
	DB	00H
	DB	00H
	DB	00H
	DB	00H
	DB	00H
	DB	00H
	DB	00H
	DB	00H
	DB	00H
	DB	00H
	DB	00H
	DB	00H
	DB	00H
	DB	00H
	DB	00H
	DB	00H
	DB	00H
	DB	00H
	DB	00H
	DB	00H
	DB	00H
	DB	00H
	DB	00H
	DB	00H
	DB	00H
	DB	00H
	DB	00H
	DB	00H
	DB	00H
	DB	00H
	DB	00H
	DB	00H
	DB	00H
	DB	00H
	DB	00H
	DB	00H
	DB	00H
	DB	00H
	DB	00H
	DB	00H
	DB	00H
	DB	00H
	DB	00H
	DB	00H
	DB	00H
	DB	00H
	DB	00H
	DB	00H
	DB	00H
	DB	00H
	DB	00H
	DB	00H
	DB	00H
	DB	00H
	DB	00H
	DB	00H
	DB	00H
	DB	00H
	DB	00H
	DB	00H
	DB	00H
	DB	00H
	DB	00H
	DB	00H
	DB	00H
	DB	00H
	DB	00H
	DB	00H
	DB	00H
	DB	00H
	DB	00H
	DB	00H
	DB	00H
	DB	00H
	DB	00H
	DB	00H
	DB	00H
	DB	00H
	DB	00H
	DB	00H
	DB	00H
	DB	00H
	DB	00H
	DB	00H
	DB	00H
	DB	00H
	DB	00H
	DB	00H
	DB	00H
	DB	00H
	DB	00H
	DB	00H
	DB	00H
	DB	00H
	DB	00H
	DB	00H
	DB	00H
	DB	00H
	DB	00H
	DB	00H
	DB	00H
	DB	00H
	DB	00H
	DB	00H
	DB	00H
	DB	00H
	DB	00H
	DB	00H
	DB	00H
	DB	00H
	DB	00H
	DB	00H
	DB	00H
	DB	00H
	DB	00H
	DB	00H
	DB	00H
	DB	00H
	DB	00H
	DB	00H
	DB	00H
	DB	00H
	DB	00H
	DB	00H
	DB	00H
	DB	00H
	DB	00H
	DB	00H
	DB	00H
	DB	00H
	DB	00H
	DB	00H
	DB	00H
	DB	00H
	DB	00H
	DB	00H
	DB	00H
	DB	00H
	DB	00H
	DB	00H
	DB	00H
	DB	00H
	DB	00H
	DB	00H
	DB	00H
	DB	00H
	DB	00H
	DB	00H
	DB	00H
	DB	00H
	DB	00H
	DB	00H
	DB	00H
	DB	00H
	DB	00H
	DB	00H
	DB	00H
	DB	00H
	DB	00H
	DB	00H
	DB	00H
	DB	00H
	DB	00H
	DB	00H
	DB	00H
	DB	00H
	DB	00H
	DB	00H
	DB	00H
	DB	00H
	DB	00H
	DB	00H
	DB	00H
	DB	00H
	DB	00H
	DB	00H
	DB	00H
	DB	00H
	DB	00H
	DB	00H
	DB	00H
	DB	00H
	DB	00H
	DB	00H
	DB	00H
	DB	00H
	DB	00H
	DB	00H
	DB	00H
	DB	00H
	DB	00H
	DB	00H
	DB	00H
	DB	00H
	DB	00H
	DB	00H
	DB	00H
	DB	00H
	DB	00H
	DB	00H
	DB	00H
	DB	00H
	DB	00H
	DB	00H
	DB	00H
	DB	00H
	DB	00H
	DB	00H
	DB	00H
	DB	00H
	DB	00H
	DB	00H
	DB	00H
	DB	00H
	DB	00H
	DB	00H
	DB	00H
	DB	00H
	DB	00H
	DB	00H
	DB	00H
	DB	00H
	DB	00H
	DB	00H
	DB	00H
	DB	00H
	DB	00H
	DB	00H
	DB	00H
	DB	00H
	DB	00H
	DB	00H
	DB	00H
	DB	00H
	DB	00H
	DB	00H
	DB	00H
	DB	00H
	DB	00H
	DB	00H
	DB	00H
	DB	00H
	DB	00H
	DB	00H
	DB	00H
	DB	00H
	DB	00H
	DB	00H
	DB	00H
	DB	00H
	DB	00H
	DB	00H
	DB	00H
	DB	00H
	DB	00H
	DB	00H
	DB	00H
	DB	00H
	DB	00H
	DB	00H
	DB	00H
	DB	00H
	DB	00H
	DB	00H
	DB	00H
	DB	00H
	DB	00H
	DB	00H
	DB	00H
	DB	00H
	DB	00H
	DB	00H
	DB	00H
	DB	00H
	DB	00H
	DB	00H
	DB	00H
	DB	00H
	DB	00H
	DB	00H
	DB	00H
	DB	00H
	DB	00H
	DB	00H
	DB	00H
	DB	00H
	DB	00H
	DB	00H
	DB	00H
	DB	00H
	DB	00H
	DB	00H
	DB	00H
	DB	00H
	DB	00H
	DB	00H
	DB	00H
	DB	00H
	DB	00H
	DB	00H
	DB	00H
	DB	00H
	DB	00H
	DB	00H
	DB	00H
	DB	00H
	DB	00H
	DB	00H
	DB	00H
	DB	00H
	DB	00H
	DB	00H
	DB	00H
	DB	00H
	DB	00H
	DB	00H
	DB	00H
	DB	00H
	DB	00H
	DB	00H
	DB	00H
	DB	00H
	DB	00H
	DB	00H
	DB	00H
	DB	00H
	DB	00H
	DB	00H
	DB	00H
	DB	00H
	DB	00H
	DB	00H
	DB	00H
	DB	00H
	DB	00H
	DB	00H
	DB	00H
	DB	00H
	DB	00H
	DB	00H
	DB	00H
	DB	00H
	DB	00H
	DB	00H
	DB	00H
	DB	00H
	DB	00H
	DB	00H
	DB	00H
	DB	00H
	DB	00H
	DB	00H
	DB	00H
	DB	00H
	DB	00H
	DB	00H
	DB	00H
	DB	00H
	DB	00H
	DB	00H
	DB	00H
	DB	00H
	DB	00H
	DB	00H
	DB	00H
	DB	00H
	DB	00H
	DB	00H
	DB	00H
	DB	00H
	DB	00H
	DB	00H
	DB	00H
	DB	00H
	DB	00H
	DB	00H
	DB	00H
	DB	00H
	DB	00H
	DB	00H
	DB	00H
	DB	00H
	DB	00H
	DB	00H
	DB	00H
	DB	00H
	DB	00H
	DB	00H
	DB	00H
	DB	00H
	DB	00H
	DB	00H
	DB	00H
	DB	00H
	DB	00H
	DB	00H
	DB	00H
	DB	00H
	DB	00H
	DB	00H
	DB	00H
	DB	00H
	DB	00H
	DB	00H
	DB	00H
	DB	00H
	DB	00H
	DB	00H
	DB	00H
	DB	00H
	DB	00H
	DB	00H
	DB	00H
	DB	00H
	DB	00H
	DB	00H
	DB	00H
	DB	00H
	DB	00H
	DB	00H
	DB	00H
	DB	00H
	DB	00H
	DB	00H
	DB	00H
	DB	00H
	DB	00H
	DB	00H
	DB	00H
	DB	00H
	DB	00H
	DB	00H
	DB	00H
	DB	00H
	DB	0aH
	DB	01bH
	DB	03bH
	DB	03bH
	DB	03bH
	DB	03bH
	DB	024H
	DB	014H
	DB	014H
	DB	014H
	DB	014H
	DB	014H
	DB	014H
	DB	014H
	DB	014H
	DB	035H
	DB	035H
	DB	05cH
	DB	0c2H
	DB	0c2H
	DB	03cH
	DB	03cH
	DB	03cH
	DB	045H
	DB	017H
	DB	017H
	DB	02eH
	DB	017H
	DB	017H
	DB	045H
	DB	045H
	DB	017H
	DB	017H
	DB	042H
	DB	042H
	DB	042H
	DB	042H
	DB	042H
	DB	042H
	DB	042H
	DB	042H
	DB	045H
	DB	01bH
	DB	01bH
	DB	045H
	DB	017H
	DB	017H
	DB	027H
	DB	042H
	DB	0aH
	DB	042H
	DB	02eH
	DB	017H
	DB	020H
	DB	01bH
	DB	024H
	DB	036H
	DB	018H
	DB	018H
	DB	018H
	DB	018H
	DB	018H
	DB	018H
	DB	018H
	DB	018H
	DB	018H
	DB	018H
	DB	018H
	DB	05aH
	DB	05aH
	DB	05aH
	DB	05aH
	DB	05aH
	DB	05aH
	DB	05aH
	DB	05aH
	DB	05aH
	DB	05aH
	DB	05aH
	DB	05aH
	DB	05aH
	DB	05aH
	DB	05aH
	DB	05aH
	DB	05aH
	DB	05aH
	DB	05aH
	DB	05aH
	DB	05aH
	DB	05aH
	DB	05aH
	DB	05aH
	DB	05aH
	DB	05aH
	DB	05aH
	DB	05aH
	DB	05aH
	DB	05aH
	DB	05aH
	DB	05aH
	DB	05aH
	DB	05aH
	DB	02bH
	DB	02bH
	DB	02bH
	DB	02bH
	DB	02bH
	DB	02bH
	DB	02bH
	DB	02bH
	DB	02bH
	DB	02bH
	DB	02bH
	DB	02bH
	DB	02bH
	DB	02bH
	DB	02bH
	DB	02bH
	DB	02bH
	DB	02bH
	DB	02bH
	DB	02bH
	DB	02bH
	DB	02bH
	DB	02bH
	DB	02bH
	DB	02bH
	DB	02bH
	DB	02bH
	DB	02bH
	DB	02bH
	DB	02bH
	DB	02bH
	DB	02bH
	DB	02bH
	DB	02bH
	DB	02bH
	DB	02bH
	DB	02bH
	DB	02bH
	DB	02bH
	DB	02bH
	DB	02bH
	DB	02bH
	DB	02bH
	DB	02bH
	DB	02bH
	DB	02bH
	DB	02bH
	DB	02bH
	DB	02bH
	DB	02bH
	DB	02bH
	DB	02bH
	DB	02bH
	DB	02bH
	DB	02bH
	DB	02bH
	DB	02bH
	DB	02bH
	DB	06aH
	DB	023H
	DB	00H
	DB	00H
	DB	00H
	DB	00H
	DB	00H
	DB	00H
	DB	00H
	DB	00H
	DB	00H
	DB	00H
	DB	00H
	DB	00H
	DB	00H
	DB	00H
	DB	00H
	DB	017H
	DB	014H
	DB	014H
	DB	036H
	DB	036H
	DB	018H
	DB	018H
	DB	038H
	DB	038H
	DB	038H
	DB	038H
	DB	01fH
	DB	01fH
	DB	0cH
	DB	0cH
	DB	025H
	DB	05eH
	DB	05eH
	DB	010H
	DB	010H
	DB	016H
	DB	016H
	DB	076H
	DB	0a4H
	DB	021H
	DB	021H
	DB	077H
	DB	030H
	DB	05dH
	DB	035H
	DB	0c2H
	DB	0c2H
	DB	0c2H
	DB	0c2H
	DB	045H
	DB	02eH
	DB	0aH
	DB	0aH
	DB	0aH
	DB	0aH
	DB	0aH
	DB	0aH
	DB	045H
	DB	05cH
	DB	060H
	DB	060H
	DB	060H
	DB	060H
	DB	014H
	DB	05cH
	DB	045H
	DB	042H
	DB	042H
	DB	042H
	DB	042H
	DB	045H
	DB	0b9H
	DB	036H
	DB	04aH
	DB	061H
	DB	061H
	DB	061H
	DB	061H
	DB	061H
	DB	061H
	DB	041H
	DB	075H
	DB	089H
	DB	04eH
	DB	04eH
	DB	04eH
	DB	04eH
	DB	04eH
	DB	04eH
	DB	0a9H
	DB	058H
	DB	058H
	DB	058H
	DB	0a9H
	DB	0a9H
	DB	0a9H
	DB	0a9H
	DB	058H
	DB	058H
	DB	058H
	DB	058H
	DB	058H
	DB	058H
	DB	058H
	DB	058H
	DB	058H
	DB	058H
	DB	058H
	DB	058H
	DB	0a9H
	DB	0a9H
	DB	0a9H
	DB	0a9H
	DB	0a9H
	DB	08eH
	DB	08eH
	DB	08eH
	DB	08eH
	DB	08eH
	DB	08eH
	DB	08eH
	DB	08eH
	DB	08eH
	DB	08eH
	DB	08eH
	DB	066H
	DB	066H
	DB	066H
	DB	029H
	DB	029H
	DB	029H
	DB	029H
	DB	029H
	DB	029H
	DB	029H
	DB	029H
	DB	029H
	DB	029H
	DB	029H
	DB	029H
	DB	029H
	DB	029H
	DB	029H
	DB	029H
	DB	029H
	DB	029H
	DB	029H
	DB	029H
	DB	029H
	DB	029H
	DB	029H
	DB	029H
	DB	029H
	DB	029H
	DB	029H
	DB	029H
	DB	066H
	DB	066H
	DB	066H
	DB	066H
	DB	066H
	DB	066H
	DB	066H
	DB	066H
	DB	066H
	DB	066H
	DB	029H
	DB	029H
	DB	029H
	DB	029H
	DB	029H
	DB	029H
	DB	066H
	DB	066H
	DB	066H
	DB	066H
	DB	019H
	DB	06bH
	DB	03H
	DB	00H
	DB	00H
	DB	00H
	DB	00H
	DB	00H
	DB	00H
	DB	00H
	DB	00H
	DB	00H
	DB	00H
	DB	00H
	DB	00H
	DB	00H
	DB	080H
	DB	016H
	DB	021H
	DB	099H
	DB	030H
	DB	014H
	DB	014H
	DB	024H
	DB	024H
	DB	024H
	DB	024H
	DB	036H
	DB	018H
	DB	018H
	DB	018H
	DB	04aH
	DB	038H
	DB	018H
	DB	036H
	DB	036H
	DB	013H
	DB	038H
	DB	01fH
	DB	0cH
	DB	025H
	DB	015H
	DB	015H
	DB	010H
	DB	016H
	DB	016H
	DB	016H
	DB	016H
	DB	016H
	DB	048H
	DB	021H
	DB	078H
	DB	030H
	DB	05dH
	DB	035H
	DB	05cH
	DB	03cH
	DB	0b5H
	DB	0b5H
	DB	02eH
	DB	02eH
	DB	08cH
	DB	0b5H
	DB	095H
	DB	03cH
	DB	0c2H
	DB	020H
	DB	045H
	DB	045H
	DB	03cH
	DB	045H
	DB	02eH
	DB	042H
	DB	0aH
	DB	0aH
	DB	042H
	DB	042H
	DB	027H
	DB	027H
	DB	042H
	DB	042H
	DB	042H
	DB	027H
	DB	0b3H
	DB	0baH
	DB	05aH
	DB	06dH
	DB	033H
	DB	033H
	DB	033H
	DB	03eH
	DB	019H
	DB	019H
	DB	019H
	DB	019H
	DB	058H
	DB	058H
	DB	058H
	DB	058H
	DB	058H
	DB	058H
	DB	058H
	DB	058H
	DB	058H
	DB	058H
	DB	058H
	DB	058H
	DB	052H
	DB	052H
	DB	058H
	DB	058H
	DB	058H
	DB	052H
	DB	058H
	DB	019H
	DB	019H
	DB	019H
	DB	019H
	DB	019H
	DB	019H
	DB	019H
	DB	019H
	DB	019H
	DB	019H
	DB	066H
	DB	066H
	DB	066H
	DB	066H
	DB	066H
	DB	029H
	DB	028H
	DB	028H
	DB	028H
	DB	028H
	DB	028H
	DB	028H
	DB	028H
	DB	028H
	DB	028H
	DB	028H
	DB	028H
	DB	028H
	DB	028H
	DB	028H
	DB	028H
	DB	028H
	DB	028H
	DB	028H
	DB	028H
	DB	028H
	DB	028H
	DB	028H
	DB	028H
	DB	028H
	DB	028H
	DB	028H
	DB	029H
	DB	029H
	DB	029H
	DB	029H
	DB	029H
	DB	029H
	DB	029H
	DB	029H
	DB	029H
	DB	029H
	DB	029H
	DB	029H
	DB	028H
	DB	028H
	DB	028H
	DB	029H
	DB	029H
	DB	029H
	DB	029H
	DB	0d9H
	DB	0d9H
	DB	0d9H
	DB	0d9H
	DB	019H
	DB	0a0H
	DB	00H
	DB	00H
	DB	00H
	DB	00H
	DB	00H
	DB	00H
	DB	00H
	DB	00H
	DB	00H
	DB	00H
	DB	00H
	DB	00H
	DB	00H
	DB	02eH
	DB	0eH
	DB	0a8H
	DB	0a8H
	DB	06eH
	DB	0a8H
	DB	0a8H
	DB	016H
	DB	076H
	DB	021H
	DB	099H
	DB	013H
	DB	030H
	DB	018H
	DB	018H
	DB	018H
	DB	018H
	DB	014H
	DB	020H
	DB	02cH
	DB	0aH
	DB	017H
	DB	03bH
	DB	036H
	DB	018H
	DB	018H
	DB	018H
	DB	018H
	DB	013H
	DB	013H
	DB	065H
	DB	01fH
	DB	0cH
	DB	010H
	DB	079H
	DB	070H
	DB	0dH
	DB	0dH
	DB	0dH
	DB	0e8H
	DB	0e8H
	DB	0dH
	DB	070H
	DB	0eH
	DB	021H
	DB	045H
	DB	01bH
	DB	097H
	DB	035H
	DB	087H
	DB	03cH
	DB	02eH
	DB	02eH
	DB	02eH
	DB	017H
	DB	017H
	DB	017H
	DB	042H
	DB	0aH
	DB	0aH
	DB	0aH
	DB	0aH
	DB	0aH
	DB	0aH
	DB	03H
	DB	04fH
	DB	04fH
	DB	04fH
	DB	04fH
	DB	04fH
	DB	042H
	DB	020H
	DB	0b9H
	DB	024H
	DB	05aH
	DB	0a0H
	DB	0a0H
	DB	05aH
	DB	05aH
	DB	04aH
	DB	06dH
	DB	075H
	DB	03eH
	DB	03eH
	DB	03eH
	DB	03eH
	DB	03eH
	DB	03eH
	DB	03eH
	DB	03eH
	DB	052H
	DB	089H
	DB	089H
	DB	04eH
	DB	04eH
	DB	052H
	DB	052H
	DB	052H
	DB	052H
	DB	058H
	DB	058H
	DB	052H
	DB	052H
	DB	058H
	DB	019H
	DB	019H
	DB	019H
	DB	019H
	DB	019H
	DB	019H
	DB	019H
	DB	066H
	DB	066H
	DB	029H
	DB	029H
	DB	028H
	DB	028H
	DB	028H
	DB	028H
	DB	028H
	DB	028H
	DB	028H
	DB	028H
	DB	028H
	DB	028H
	DB	028H
	DB	028H
	DB	028H
	DB	028H
	DB	028H
	DB	028H
	DB	028H
	DB	028H
	DB	028H
	DB	028H
	DB	028H
	DB	028H
	DB	028H
	DB	029H
	DB	029H
	DB	029H
	DB	029H
	DB	029H
	DB	066H
	DB	066H
	DB	066H
	DB	066H
	DB	066H
	DB	066H
	DB	066H
	DB	0d9H
	DB	0d9H
	DB	0d9H
	DB	029H
	DB	0d9H
	DB	0d9H
	DB	0d9H
	DB	0d9H
	DB	0d9H
	DB	0d9H
	DB	0d9H
	DB	019H
	DB	019H
	DB	019H
	DB	0d1H
	DB	00H
	DB	00H
	DB	00H
	DB	00H
	DB	00H
	DB	00H
	DB	00H
	DB	00H
	DB	00H
	DB	00H
	DB	00H
	DB	00H
	DB	00H
	DB	02eH
	DB	06eH
	DB	0a8H
	DB	0a8H
	DB	0a8H
	DB	0a8H
	DB	0a8H
	DB	0a8H
	DB	0a8H
	DB	01dH
	DB	06eH
	DB	06eH
	DB	06eH
	DB	0a8H
	DB	0a8H
	DB	016H
	DB	076H
	DB	076H
	DB	013H
	DB	014H
	DB	01bH
	DB	045H
	DB	045H
	DB	039H
	DB	039H
	DB	01bH
	DB	03bH
	DB	024H
	DB	024H
	DB	014H
	DB	036H
	DB	018H
	DB	018H
	DB	01fH
	DB	038H
	DB	018H
	DB	018H
	DB	018H
	DB	018H
	DB	038H
	DB	02dH
	DB	04cH
	DB	06H
	DB	06H
	DB	02H
	DB	05bH
	DB	08dH
	DB	09fH
	DB	0dcH
	DB	0e2H
	DB	021H
	DB	0a4H
	DB	048H
	DB	030H
	DB	030H
	DB	05dH
	DB	035H
	DB	055H
	DB	087H
	DB	03cH
	DB	045H
	DB	08cH
	DB	02eH
	DB	042H
	DB	042H
	DB	042H
	DB	0aH
	DB	0aH
	DB	04fH
	DB	04fH
	DB	04fH
	DB	04fH
	DB	04fH
	DB	04fH
	DB	0aH
	DB	042H
	DB	017H
	DB	0b3H
	DB	0b3H
	DB	0b3H
	DB	020H
	DB	0baH
	DB	024H
	DB	02bH
	DB	05aH
	DB	05aH
	DB	024H
	DB	02bH
	DB	05aH
	DB	04aH
	DB	06dH
	DB	075H
	DB	033H
	DB	089H
	DB	089H
	DB	089H
	DB	089H
	DB	089H
	DB	052H
	DB	04eH
	DB	04eH
	DB	052H
	DB	04eH
	DB	04eH
	DB	058H
	DB	058H
	DB	058H
	DB	058H
	DB	019H
	DB	019H
	DB	019H
	DB	019H
	DB	066H
	DB	088H
	DB	0d9H
	DB	028H
	DB	028H
	DB	028H
	DB	028H
	DB	028H
	DB	028H
	DB	028H
	DB	028H
	DB	028H
	DB	028H
	DB	028H
	DB	028H
	DB	028H
	DB	028H
	DB	028H
	DB	028H
	DB	028H
	DB	028H
	DB	028H
	DB	028H
	DB	028H
	DB	028H
	DB	028H
	DB	029H
	DB	029H
	DB	0d9H
	DB	066H
	DB	0d9H
	DB	066H
	DB	019H
	DB	066H
	DB	066H
	DB	066H
	DB	019H
	DB	066H
	DB	0d9H
	DB	0d9H
	DB	0d9H
	DB	0d9H
	DB	0d9H
	DB	0d9H
	DB	0d9H
	DB	0d9H
	DB	06bH
	DB	088H
	DB	019H
	DB	019H
	DB	019H
	DB	052H
	DB	0d1H
	DB	00H
	DB	00H
	DB	00H
	DB	00H
	DB	00H
	DB	00H
	DB	00H
	DB	00H
	DB	00H
	DB	00H
	DB	00H
	DB	00H
	DB	00H
	DB	02eH
	DB	0eH
	DB	0eH
	DB	0eH
	DB	0eH
	DB	0eH
	DB	0eH
	DB	0eH
	DB	0eH
	DB	056H
	DB	056H
	DB	07H
	DB	0eH
	DB	0eH
	DB	0eH
	DB	0eH
	DB	0eH
	DB	07H
	DB	08H
	DB	08H
	DB	07H
	DB	0abH
	DB	0eH
	DB	016H
	DB	021H
	DB	013H
	DB	030H
	DB	013H
	DB	038H
	DB	01fH
	DB	038H
	DB	04aH
	DB	018H
	DB	036H
	DB	0b3H
	DB	04fH
	DB	023H
	DB	023H
	DB	023H
	DB	03H
	DB	04fH
	DB	042H
	DB	0e8H
	DB	06H
	DB	01H
	DB	01H
	DB	07fH
	DB	0e4H
	DB	08dH
	DB	0cH
	DB	010H
	DB	015H
	DB	01aH
	DB	054H
	DB	0eH
	DB	01cH
	DB	01cH
	DB	01cH
	DB	016H
	DB	043H
	DB	048H
	DB	021H
	DB	078H
	DB	030H
	DB	0caH
	DB	035H
	DB	0c2H
	DB	03cH
	DB	045H
	DB	0b5H
	DB	02eH
	DB	042H
	DB	0aH
	DB	0aH
	DB	0aH
	DB	0aH
	DB	042H
	DB	027H
	DB	027H
	DB	027H
	DB	027H
	DB	027H
	DB	027H
	DB	0b3H
	DB	0b3H
	DB	0b3H
	DB	0b3H
	DB	0b3H
	DB	020H
	DB	0b9H
	DB	024H
	DB	04aH
	DB	041H
	DB	075H
	DB	033H
	DB	089H
	DB	089H
	DB	089H
	DB	089H
	DB	04eH
	DB	04eH
	DB	04eH
	DB	04eH
	DB	04eH
	DB	04eH
	DB	04eH
	DB	052H
	DB	052H
	DB	019H
	DB	019H
	DB	019H
	DB	019H
	DB	019H
	DB	066H
	DB	0d9H
	DB	06bH
	DB	0d9H
	DB	028H
	DB	028H
	DB	028H
	DB	028H
	DB	028H
	DB	028H
	DB	028H
	DB	028H
	DB	029H
	DB	029H
	DB	028H
	DB	028H
	DB	028H
	DB	028H
	DB	028H
	DB	028H
	DB	028H
	DB	029H
	DB	029H
	DB	028H
	DB	0d9H
	DB	0d9H
	DB	0d9H
	DB	066H
	DB	019H
	DB	019H
	DB	019H
	DB	019H
	DB	019H
	DB	019H
	DB	019H
	DB	019H
	DB	019H
	DB	088H
	DB	088H
	DB	0d9H
	DB	06bH
	DB	0d9H
	DB	0d9H
	DB	06bH
	DB	06bH
	DB	06bH
	DB	019H
	DB	019H
	DB	019H
	DB	019H
	DB	052H
	DB	0d1H
	DB	00H
	DB	00H
	DB	00H
	DB	00H
	DB	00H
	DB	00H
	DB	00H
	DB	00H
	DB	00H
	DB	00H
	DB	00H
	DB	00H
	DB	00H
	DB	02eH
	DB	06eH
	DB	01cH
	DB	01cH
	DB	06eH
	DB	06eH
	DB	06eH
	DB	0eH
	DB	0eH
	DB	07H
	DB	07H
	DB	07H
	DB	07H
	DB	07H
	DB	056H
	DB	056H
	DB	056H
	DB	07H
	DB	08H
	DB	08H
	DB	012H
	DB	012H
	DB	012H
	DB	08H
	DB	07H
	DB	0eH
	DB	0fH
	DB	0fH
	DB	015H
	DB	038H
	DB	018H
	DB	036H
	DB	018H
	DB	036H
	DB	039H
	DB	02cH
	DB	039H
	DB	020H
	DB	072H
	DB	039H
	DB	020H
	DB	03H
	DB	045H
	DB	04bH
	DB	02fH
	DB	02fH
	DB	0bH
	DB	063H
	DB	067H
	DB	013H
	DB	03bH
	DB	024H
	DB	018H
	DB	063H
	DB	085H
	DB	02fH
	DB	010H
	DB	079H
	DB	079H
	DB	079H
	DB	079H
	DB	0eH
	DB	06eH
	DB	01dH
	DB	01cH
	DB	01cH
	DB	016H
	DB	043H
	DB	043H
	DB	021H
	DB	078H
	DB	077H
	DB	05dH
	DB	05dH
	DB	087H
	DB	087H
	DB	03cH
	DB	03cH
	DB	045H
	DB	045H
	DB	020H
	DB	045H
	DB	0b3H
	DB	0b3H
	DB	0b3H
	DB	0b3H
	DB	0b3H
	DB	0b3H
	DB	0b3H
	DB	072H
	DB	020H
	DB	036H
	DB	018H
	DB	04aH
	DB	061H
	DB	041H
	DB	041H
	DB	041H
	DB	041H
	DB	075H
	DB	075H
	DB	03eH
	DB	033H
	DB	089H
	DB	089H
	DB	052H
	DB	052H
	DB	052H
	DB	052H
	DB	019H
	DB	019H
	DB	019H
	DB	019H
	DB	019H
	DB	06bH
	DB	06bH
	DB	06bH
	DB	06bH
	DB	06bH
	DB	06bH
	DB	06bH
	DB	06bH
	DB	06bH
	DB	06bH
	DB	0d9H
	DB	0d9H
	DB	0d9H
	DB	029H
	DB	029H
	DB	029H
	DB	029H
	DB	029H
	DB	0d9H
	DB	0d9H
	DB	066H
	DB	066H
	DB	088H
	DB	088H
	DB	019H
	DB	019H
	DB	019H
	DB	019H
	DB	019H
	DB	019H
	DB	058H
	DB	019H
	DB	019H
	DB	019H
	DB	019H
	DB	019H
	DB	019H
	DB	019H
	DB	0d9H
	DB	0d9H
	DB	0d9H
	DB	0d9H
	DB	06bH
	DB	03eH
	DB	019H
	DB	019H
	DB	019H
	DB	019H
	DB	019H
	DB	052H
	DB	0d1H
	DB	00H
	DB	00H
	DB	00H
	DB	00H
	DB	00H
	DB	00H
	DB	00H
	DB	00H
	DB	00H
	DB	00H
	DB	00H
	DB	00H
	DB	00H
	DB	02eH
	DB	01dH
	DB	01cH
	DB	01cH
	DB	01dH
	DB	01dH
	DB	01dH
	DB	01dH
	DB	01dH
	DB	01dH
	DB	01dH
	DB	06eH
	DB	01dH
	DB	0eH
	DB	0eH
	DB	0eH
	DB	0eH
	DB	0eH
	DB	07H
	DB	07H
	DB	07H
	DB	08H
	DB	08H
	DB	0eH
	DB	010H
	DB	02dH
	DB	02dH
	DB	034H
	DB	034H
	DB	02dH
	DB	038H
	DB	013H
	DB	060H
	DB	01bH
	DB	03H
	DB	02cH
	DB	024H
	DB	014H
	DB	020H
	DB	0b3H
	DB	020H
	DB	039H
	DB	00H
	DB	01fH
	DB	038H
	DB	00H
	DB	00H
	DB	023H
	DB	04dH
	DB	0b3H
	DB	06aH
	DB	06aH
	DB	04dH
	DB	027H
	DB	04aH
	DB	06dH
	DB	061H
	DB	05eH
	DB	025H
	DB	025H
	DB	015H
	DB	015H
	DB	010H
	DB	010H
	DB	010H
	DB	010H
	DB	06eH
	DB	06eH
	DB	06eH
	DB	06eH
	DB	0eH
	DB	0eH
	DB	01dH
	DB	01cH
	DB	01cH
	DB	043H
	DB	048H
	DB	048H
	DB	078H
	DB	08dH
	DB	030H
	DB	097H
	DB	035H
	DB	05cH
	DB	01bH
	DB	03cH
	DB	045H
	DB	020H
	DB	045H
	DB	045H
	DB	045H
	DB	020H
	DB	024H
	DB	014H
	DB	018H
	DB	038H
	DB	01fH
	DB	038H
	DB	036H
	DB	05aH
	DB	05aH
	DB	05aH
	DB	05aH
	DB	04aH
	DB	061H
	DB	041H
	DB	041H
	DB	075H
	DB	075H
	DB	075H
	DB	075H
	DB	03eH
	DB	03eH
	DB	03eH
	DB	03eH
	DB	03eH
	DB	03eH
	DB	03eH
	DB	03eH
	DB	03eH
	DB	03eH
	DB	03eH
	DB	03eH
	DB	06bH
	DB	03eH
	DB	019H
	DB	019H
	DB	019H
	DB	06bH
	DB	06bH
	DB	06bH
	DB	06bH
	DB	06bH
	DB	019H
	DB	019H
	DB	019H
	DB	019H
	DB	019H
	DB	052H
	DB	052H
	DB	052H
	DB	04eH
	DB	04eH
	DB	04eH
	DB	052H
	DB	052H
	DB	052H
	DB	052H
	DB	052H
	DB	052H
	DB	052H
	DB	019H
	DB	019H
	DB	019H
	DB	019H
	DB	019H
	DB	019H
	DB	019H
	DB	019H
	DB	052H
	DB	019H
	DB	052H
	DB	052H
	DB	04eH
	DB	0d1H
	DB	00H
	DB	00H
	DB	00H
	DB	00H
	DB	00H
	DB	00H
	DB	00H
	DB	00H
	DB	00H
	DB	00H
	DB	00H
	DB	00H
	DB	00H
	DB	02eH
	DB	0eH
	DB	01cH
	DB	01dH
	DB	01dH
	DB	01dH
	DB	01dH
	DB	0eH
	DB	0eH
	DB	0eH
	DB	0eH
	DB	0eH
	DB	0eH
	DB	0eH
	DB	0eH
	DB	0eH
	DB	0eH
	DB	0eH
	DB	0eH
	DB	07H
	DB	07H
	DB	0eH
	DB	016H
	DB	010H
	DB	02fH
	DB	04bH
	DB	059H
	DB	04cH
	DB	04cH
	DB	059H
	DB	09bH
	DB	03dH
	DB	0fH
	DB	065H
	DB	045H
	DB	017H
	DB	014H
	DB	060H
	DB	0b3H
	DB	0aH
	DB	03H
	DB	017H
	DB	018H
	DB	014H
	DB	046H
	DB	020H
	DB	00H
	DB	023H
	DB	023H
	DB	072H
	DB	05aH
	DB	04aH
	DB	024H
	DB	027H
	DB	04dH
	DB	0bbH
	DB	0bcH
	DB	061H
	DB	025H
	DB	0cH
	DB	0cH
	DB	025H
	DB	025H
	DB	025H
	DB	0cH
	DB	0cH
	DB	025H
	DB	025H
	DB	015H
	DB	015H
	DB	010H
	DB	010H
	DB	079H
	DB	079H
	DB	079H
	DB	06eH
	DB	06eH
	DB	0eH
	DB	0eH
	DB	0a8H
	DB	01cH
	DB	01cH
	DB	01cH
	DB	016H
	DB	016H
	DB	043H
	DB	0a4H
	DB	078H
	DB	030H
	DB	097H
	DB	035H
	DB	03cH
	DB	045H
	DB	045H
	DB	045H
	DB	045H
	DB	01bH
	DB	05cH
	DB	03bH
	DB	05cH
	DB	0b9H
	DB	0b9H
	DB	0b9H
	DB	0baH
	DB	024H
	DB	018H
	DB	04aH
	DB	04aH
	DB	018H
	DB	05aH
	DB	0a0H
	DB	04aH
	DB	06dH
	DB	06dH
	DB	06dH
	DB	06dH
	DB	041H
	DB	06dH
	DB	06dH
	DB	06dH
	DB	06dH
	DB	075H
	DB	03eH
	DB	03eH
	DB	052H
	DB	052H
	DB	052H
	DB	03eH
	DB	03eH
	DB	03eH
	DB	03eH
	DB	03eH
	DB	03eH
	DB	03eH
	DB	052H
	DB	052H
	DB	052H
	DB	052H
	DB	089H
	DB	089H
	DB	089H
	DB	089H
	DB	089H
	DB	089H
	DB	089H
	DB	033H
	DB	089H
	DB	052H
	DB	089H
	DB	089H
	DB	052H
	DB	052H
	DB	052H
	DB	052H
	DB	052H
	DB	052H
	DB	052H
	DB	052H
	DB	052H
	DB	052H
	DB	052H
	DB	089H
	DB	052H
	DB	052H
	DB	061H
	DB	00H
	DB	00H
	DB	00H
	DB	00H
	DB	00H
	DB	00H
	DB	00H
	DB	00H
	DB	00H
	DB	00H
	DB	00H
	DB	00H
	DB	00H
	DB	02eH
	DB	07H
	DB	0eH
	DB	0eH
	DB	0eH
	DB	0eH
	DB	0eH
	DB	0eH
	DB	0eH
	DB	0eH
	DB	07H
	DB	07H
	DB	07H
	DB	07H
	DB	07H
	DB	07H
	DB	07H
	DB	07H
	DB	07H
	DB	07H
	DB	07H
	DB	016H
	DB	065H
	DB	014H
	DB	020H
	DB	0cH
	DB	068H
	DB	06H
	DB	06H
	DB	07cH
	DB	02H
	DB	049H
	DB	02H
	DB	02H
	DB	0f3H
	DB	04H
	DB	0efH
	DB	05bH
	DB	079H
	DB	060H
	DB	02cH
	DB	04fH
	DB	020H
	DB	017H
	DB	060H
	DB	034H
	DB	04fH
	DB	00H
	DB	00H
	DB	00H
	DB	04dH
	DB	027H
	DB	072H
	DB	072H
	DB	03H
	DB	027H
	DB	0a0H
	DB	0bdH
	DB	04aH
	DB	0cH
	DB	0cH
	DB	0cH
	DB	0cH
	DB	0cH
	DB	0cH
	DB	0cH
	DB	0cH
	DB	0cH
	DB	0cH
	DB	0cH
	DB	0cH
	DB	0cH
	DB	0cH
	DB	025H
	DB	025H
	DB	025H
	DB	015H
	DB	015H
	DB	010H
	DB	010H
	DB	079H
	DB	079H
	DB	0fH
	DB	070H
	DB	070H
	DB	0dH
	DB	067H
	DB	071H
	DB	071H
	DB	071H
	DB	012H
	DB	056H
	DB	0eH
	DB	0a8H
	DB	0a4H
	DB	078H
	DB	030H
	DB	035H
	DB	0c2H
	DB	03cH
	DB	03cH
	DB	045H
	DB	045H
	DB	020H
	DB	0b9H
	DB	014H
	DB	018H
	DB	018H
	DB	018H
	DB	018H
	DB	018H
	DB	018H
	DB	02bH
	DB	05aH
	DB	05aH
	DB	05aH
	DB	05aH
	DB	05aH
	DB	05aH
	DB	04aH
	DB	04aH
	DB	041H
	DB	075H
	DB	033H
	DB	033H
	DB	033H
	DB	033H
	DB	033H
	DB	033H
	DB	033H
	DB	033H
	DB	033H
	DB	033H
	DB	089H
	DB	089H
	DB	089H
	DB	089H
	DB	03eH
	DB	041H
	DB	06dH
	DB	061H
	DB	04aH
	DB	05aH
	DB	05aH
	DB	04aH
	DB	061H
	DB	075H
	DB	03eH
	DB	033H
	DB	033H
	DB	089H
	DB	089H
	DB	089H
	DB	033H
	DB	033H
	DB	033H
	DB	03eH
	DB	075H
	DB	03eH
	DB	033H
	DB	033H
	DB	033H
	DB	033H
	DB	033H
	DB	04aH
	DB	00H
	DB	00H
	DB	00H
	DB	00H
	DB	00H
	DB	00H
	DB	00H
	DB	00H
	DB	00H
	DB	00H
	DB	00H
	DB	00H
	DB	00H
	DB	02eH
	DB	07H
	DB	0eH
	DB	0eH
	DB	07H
	DB	07H
	DB	07H
	DB	07H
	DB	07H
	DB	07H
	DB	07H
	DB	07H
	DB	07H
	DB	07H
	DB	07H
	DB	07H
	DB	07H
	DB	07H
	DB	07H
	DB	07H
	DB	01cH
	DB	021H
	DB	05cH
	DB	0aH
	DB	04fH
	DB	00H
	DB	014H
	DB	063H
	DB	09cH
	DB	06H
	DB	04H
	DB	046H
	DB	02fH
	DB	034H
	DB	0e8H
	DB	0bH
	DB	03dH
	DB	09bH
	DB	07eH
	DB	07eH
	DB	0aaH
	DB	020H
	DB	04fH
	DB	02eH
	DB	05cH
	DB	0bH
	DB	04bH
	DB	02fH
	DB	015H
	DB	038H
	DB	014H
	DB	020H
	DB	042H
	DB	0aH
	DB	023H
	DB	023H
	DB	0b1H
	DB	0b6H
	DB	0b6H
	DB	06dH
	DB	015H
	DB	016H
	DB	076H
	DB	021H
	DB	01fH
	DB	01fH
	DB	01fH
	DB	0d5H
	DB	021H
	DB	0cH
	DB	0cH
	DB	0cH
	DB	0cH
	DB	0cH
	DB	0cH
	DB	0cH
	DB	0cH
	DB	0cH
	DB	0cH
	DB	025H
	DB	0cH
	DB	025H
	DB	025H
	DB	015H
	DB	010H
	DB	02dH
	DB	01eH
	DB	02fH
	DB	034H
	DB	034H
	DB	034H
	DB	034H
	DB	0dH
	DB	0dH
	DB	0dH
	DB	0dH
	DB	0dH
	DB	0dH
	DB	070H
	DB	0fH
	DB	0a8H
	DB	0a4H
	DB	021H
	DB	08dH
	DB	097H
	DB	05cH
	DB	087H
	DB	03cH
	DB	03cH
	DB	045H
	DB	020H
	DB	020H
	DB	020H
	DB	020H
	DB	020H
	DB	020H
	DB	020H
	DB	020H
	DB	020H
	DB	0baH
	DB	024H
	DB	05aH
	DB	061H
	DB	041H
	DB	041H
	DB	061H
	DB	061H
	DB	061H
	DB	06dH
	DB	041H
	DB	041H
	DB	075H
	DB	033H
	DB	033H
	DB	033H
	DB	075H
	DB	06dH
	DB	018H
	DB	024H
	DB	06aH
	DB	0b3H
	DB	027H
	DB	04dH
	DB	027H
	DB	020H
	DB	024H
	DB	04aH
	DB	06dH
	DB	041H
	DB	041H
	DB	041H
	DB	041H
	DB	061H
	DB	061H
	DB	04aH
	DB	04aH
	DB	04aH
	DB	04aH
	DB	061H
	DB	041H
	DB	075H
	DB	075H
	DB	075H
	DB	075H
	DB	018H
	DB	00H
	DB	00H
	DB	00H
	DB	00H
	DB	00H
	DB	00H
	DB	00H
	DB	00H
	DB	00H
	DB	00H
	DB	00H
	DB	00H
	DB	00H
	DB	02eH
	DB	07H
	DB	0eH
	DB	07H
	DB	0eH
	DB	07H
	DB	07H
	DB	07H
	DB	07H
	DB	07H
	DB	07H
	DB	07H
	DB	07H
	DB	07H
	DB	07H
	DB	07H
	DB	08H
	DB	08H
	DB	08H
	DB	08H
	DB	06eH
	DB	021H
	DB	0c2H
	DB	02eH
	DB	042H
	DB	0aH
	DB	0aH
	DB	045H
	DB	013H
	DB	015H
	DB	05eH
	DB	018H
	DB	030H
	DB	076H
	DB	015H
	DB	025H
	DB	05aH
	DB	05aH
	DB	04aH
	DB	0b7H
	DB	0b7H
	DB	082H
	DB	0d3H
	DB	0e3H
	DB	0aeH
	DB	092H
	DB	093H
	DB	0f9H
	DB	093H
	DB	06H
	DB	085H
	DB	02H
	DB	044H
	DB	0afH
	DB	067H
	DB	089H
	DB	0a6H
	DB	0c6H
	DB	0d4H
	DB	0ddH
	DB	0deH
	DB	0aaH
	DB	067H
	DB	0bH
	DB	011H
	DB	0eH
	DB	0a8H
	DB	05eH
	DB	065H
	DB	038H
	DB	013H
	DB	013H
	DB	013H
	DB	038H
	DB	01fH
	DB	01fH
	DB	0cH
	DB	0cH
	DB	0cH
	DB	0cH
	DB	0cH
	DB	025H
	DB	025H
	DB	0cH
	DB	0cH
	DB	0cH
	DB	0cH
	DB	0cH
	DB	0cH
	DB	025H
	DB	05eH
	DB	015H
	DB	010H
	DB	010H
	DB	02dH
	DB	02dH
	DB	01eH
	DB	01eH
	DB	02fH
	DB	034H
	DB	034H
	DB	070H
	DB	070H
	DB	0fH
	DB	0eH
	DB	0a8H
	DB	016H
	DB	043H
	DB	021H
	DB	078H
	DB	030H
	DB	097H
	DB	035H
	DB	087H
	DB	03cH
	DB	045H
	DB	02eH
	DB	02eH
	DB	042H
	DB	042H
	DB	027H
	DB	027H
	DB	0b3H
	DB	020H
	DB	020H
	DB	020H
	DB	039H
	DB	020H
	DB	0baH
	DB	024H
	DB	036H
	DB	05aH
	DB	018H
	DB	018H
	DB	018H
	DB	024H
	DB	020H
	DB	027H
	DB	0aH
	DB	04fH
	DB	04fH
	DB	04fH
	DB	04fH
	DB	03H
	DB	027H
	DB	0b9H
	DB	024H
	DB	05aH
	DB	05aH
	DB	05aH
	DB	05aH
	DB	05aH
	DB	024H
	DB	020H
	DB	027H
	DB	04dH
	DB	027H
	DB	0b3H
	DB	06aH
	DB	024H
	DB	018H
	DB	061H
	DB	06dH
	DB	041H
	DB	018H
	DB	00H
	DB	00H
	DB	00H
	DB	00H
	DB	00H
	DB	00H
	DB	00H
	DB	00H
	DB	00H
	DB	00H
	DB	00H
	DB	00H
	DB	00H
	DB	02eH
	DB	0eH
	DB	06eH
	DB	0eH
	DB	0eH
	DB	0eH
	DB	0eH
	DB	07H
	DB	07H
	DB	07H
	DB	07H
	DB	07H
	DB	07H
	DB	07H
	DB	07H
	DB	07H
	DB	08H
	DB	08H
	DB	08H
	DB	012H
	DB	07H
	DB	076H
	DB	082H
	DB	095H
	DB	0aH
	DB	0aH
	DB	04fH
	DB	00H
	DB	00H
	DB	00H
	DB	00H
	DB	00H
	DB	04fH
	DB	094H
	DB	0b8H
	DB	097H
	DB	036H
	DB	061H
	DB	04aH
	DB	036H
	DB	018H
	DB	0d0H
	DB	0ceH
	DB	0c4H
	DB	0d2H
	DB	0fH
	DB	012H
	DB	0ecH
	DB	0eeH
	DB	07bH
	DB	02H
	DB	02H
	DB	02H
	DB	085H
	DB	049H
	DB	06cH
	DB	064H
	DB	0f2H
	DB	0aeH
	DB	0adH
	DB	0dbH
	DB	0d7H
	DB	0d6H
	DB	0a9H
	DB	04cH
	DB	092H
	DB	0adH
	DB	09aH
	DB	071H
	DB	01dH
	DB	01dH
	DB	016H
	DB	076H
	DB	021H
	DB	013H
	DB	013H
	DB	013H
	DB	013H
	DB	038H
	DB	038H
	DB	038H
	DB	01fH
	DB	01fH
	DB	0cH
	DB	0cH
	DB	0cH
	DB	0cH
	DB	0cH
	DB	0cH
	DB	0cH
	DB	0cH
	DB	0cH
	DB	0cH
	DB	0cH
	DB	025H
	DB	025H
	DB	025H
	DB	015H
	DB	015H
	DB	010H
	DB	010H
	DB	010H
	DB	02dH
	DB	0e2H
	DB	0e2H
	DB	079H
	DB	079H
	DB	079H
	DB	06eH
	DB	06eH
	DB	06eH
	DB	0a8H
	DB	01cH
	DB	016H
	DB	043H
	DB	021H
	DB	077H
	DB	05dH
	DB	035H
	DB	087H
	DB	03cH
	DB	0b5H
	DB	08cH
	DB	08cH
	DB	02eH
	DB	02eH
	DB	02eH
	DB	042H
	DB	042H
	DB	02eH
	DB	017H
	DB	02eH
	DB	042H
	DB	042H
	DB	042H
	DB	0aH
	DB	03H
	DB	04fH
	DB	00H
	DB	00H
	DB	00H
	DB	023H
	DB	04fH
	DB	03H
	DB	027H
	DB	020H
	DB	0b9H
	DB	0b9H
	DB	020H
	DB	020H
	DB	020H
	DB	020H
	DB	027H
	DB	0aH
	DB	04fH
	DB	00H
	DB	00H
	DB	03H
	DB	027H
	DB	020H
	DB	0baH
	DB	02bH
	DB	05aH
	DB	04aH
	DB	024H
	DB	00H
	DB	00H
	DB	00H
	DB	00H
	DB	00H
	DB	00H
	DB	00H
	DB	00H
	DB	00H
	DB	00H
	DB	00H
	DB	00H
	DB	00H
	DB	02eH
	DB	07H
	DB	0eH
	DB	0eH
	DB	0eH
	DB	079H
	DB	079H
	DB	0e2H
	DB	0fH
	DB	0fH
	DB	0fH
	DB	0fH
	DB	02fH
	DB	056H
	DB	056H
	DB	056H
	DB	056H
	DB	070H
	DB	070H
	DB	070H
	DB	0e2H
	DB	0cH
	DB	060H
	DB	017H
	DB	0aH
	DB	042H
	DB	0aH
	DB	04fH
	DB	04fH
	DB	04fH
	DB	04fH
	DB	023H
	DB	023H
	DB	023H
	DB	094H
	DB	0a1H
	DB	0b8H
	DB	036H
	DB	082H
	DB	036H
	DB	065H
	DB	030H
	DB	0c1H
	DB	0beH
	DB	082H
	DB	06aH
	DB	069H
	DB	039H
	DB	038H
	DB	046H
	DB	05H
	DB	02H
	DB	06H
	DB	07eH
	DB	05bH
	DB	0f3H
	DB	07cH
	DB	09cH
	DB	09cH
	DB	09cH
	DB	06H
	DB	09bH
	DB	088H
	DB	0a5H
	DB	0a7H
	DB	0e5H
	DB	071H
	DB	0edH
	DB	093H
	DB	07eH
	DB	0abH
	DB	08H
	DB	08H
	DB	08H
	DB	08H
	DB	0abH
	DB	0eH
	DB	0a8H
	DB	076H
	DB	021H
	DB	099H
	DB	013H
	DB	030H
	DB	018H
	DB	013H
	DB	038H
	DB	038H
	DB	01fH
	DB	01fH
	DB	0cH
	DB	0cH
	DB	0cH
	DB	0cH
	DB	0cH
	DB	0cH
	DB	0cH
	DB	0cH
	DB	0cH
	DB	0cH
	DB	0cH
	DB	025H
	DB	025H
	DB	025H
	DB	025H
	DB	015H
	DB	010H
	DB	010H
	DB	02dH
	DB	02dH
	DB	01eH
	DB	01eH
	DB	01eH
	DB	079H
	DB	079H
	DB	079H
	DB	0a8H
	DB	05eH
	DB	076H
	DB	076H
	DB	076H
	DB	0a4H
	DB	021H
	DB	078H
	DB	078H
	DB	077H
	DB	05dH
	DB	035H
	DB	087H
	DB	03cH
	DB	0b5H
	DB	08cH
	DB	02eH
	DB	042H
	DB	0aH
	DB	0aH
	DB	037H
	DB	0aH
	DB	04fH
	DB	04fH
	DB	023H
	DB	04fH
	DB	04fH
	DB	04fH
	DB	04fH
	DB	03H
	DB	0aH
	DB	042H
	DB	042H
	DB	02cH
	DB	0aH
	DB	0aH
	DB	03H
	DB	04fH
	DB	00H
	DB	00H
	DB	00H
	DB	00H
	DB	04fH
	DB	03H
	DB	027H
	DB	0b9H
	DB	024H
	DB	02bH
	DB	05aH
	DB	024H
	DB	00H
	DB	00H
	DB	00H
	DB	00H
	DB	00H
	DB	00H
	DB	00H
	DB	00H
	DB	00H
	DB	00H
	DB	00H
	DB	00H
	DB	00H
	DB	02eH
	DB	08H
	DB	07H
	DB	07H
	DB	07H
	DB	08H
	DB	08H
	DB	056H
	DB	056H
	DB	056H
	DB	0fH
	DB	0fH
	DB	0e2H
	DB	01eH
	DB	02dH
	DB	02dH
	DB	02dH
	DB	02dH
	DB	033H
	DB	033H
	DB	025H
	DB	018H
	DB	03bH
	DB	02cH
	DB	0aH
	DB	0aH
	DB	03H
	DB	04fH
	DB	00H
	DB	00H
	DB	04fH
	DB	04dH
	DB	02cH
	DB	08bH
	DB	02cH
	DB	08cH
	DB	0c9H
	DB	045H
	DB	039H
	DB	036H
	DB	065H
	DB	099H
	DB	0d0H
	DB	0c3H
	DB	0d0H
	DB	0c2H
	DB	086H
	DB	00H
	DB	023H
	DB	027H
	DB	080H
	DB	05cH
	DB	05bH
	DB	01H
	DB	06H
	DB	044H
	DB	04H
	DB	06H
	DB	0afH
	DB	097H
	DB	01fH
	DB	059H
	DB	0f5H
	DB	09bH
	DB	0e9H
	DB	0e1H
	DB	0daH
	DB	0e0H
	DB	0f6H
	DB	0f4H
	DB	0dH
	DB	08dH
	DB	022H
	DB	01aH
	DB	062H
	DB	011H
	DB	062H
	DB	062H
	DB	062H
	DB	062H
	DB	08H
	DB	07H
	DB	0eH
	DB	0a8H
	DB	016H
	DB	048H
	DB	021H
	DB	065H
	DB	013H
	DB	013H
	DB	013H
	DB	013H
	DB	038H
	DB	038H
	DB	01fH
	DB	01fH
	DB	0cH
	DB	0cH
	DB	0cH
	DB	0cH
	DB	0cH
	DB	0cH
	DB	0cH
	DB	025H
	DB	025H
	DB	025H
	DB	025H
	DB	025H
	DB	0cH
	DB	025H
	DB	025H
	DB	015H
	DB	015H
	DB	02dH
	DB	02dH
	DB	01eH
	DB	01eH
	DB	01eH
	DB	01eH
	DB	0e2H
	DB	079H
	DB	010H
	DB	010H
	DB	010H
	DB	016H
	DB	016H
	DB	043H
	DB	043H
	DB	048H
	DB	021H
	DB	078H
	DB	08dH
	DB	05dH
	DB	035H
	DB	087H
	DB	03cH
	DB	08cH
	DB	08cH
	DB	02eH
	DB	042H
	DB	042H
	DB	042H
	DB	0aH
	DB	0aH
	DB	03H
	DB	03H
	DB	03H
	DB	04fH
	DB	03H
	DB	03H
	DB	03H
	DB	03H
	DB	03H
	DB	03H
	DB	03H
	DB	03H
	DB	04fH
	DB	04fH
	DB	03H
	DB	02cH
	DB	0b3H
	DB	020H
	DB	020H
	DB	03bH
	DB	020H
	DB	00H
	DB	00H
	DB	00H
	DB	00H
	DB	00H
	DB	00H
	DB	00H
	DB	00H
	DB	00H
	DB	00H
	DB	00H
	DB	00H
	DB	00H
	DB	02eH
	DB	07H
	DB	01dH
	DB	01dH
	DB	01dH
	DB	01dH
	DB	01dH
	DB	0eH
	DB	0eH
	DB	0eH
	DB	01cH
	DB	016H
	DB	0cH
	DB	013H
	DB	018H
	DB	018H
	DB	036H
	DB	02bH
	DB	0b7H
	DB	06aH
	DB	072H
	DB	072H
	DB	027H
	DB	02cH
	DB	03H
	DB	03H
	DB	03H
	DB	04fH
	DB	04fH
	DB	00H
	DB	023H
	DB	02cH
	DB	04dH
	DB	02cH
	DB	02cH
	DB	027H
	DB	039H
	DB	01bH
	DB	06aH
	DB	024H
	DB	036H
	DB	036H
	DB	03bH
	DB	03bH
	DB	014H
	DB	095H
	DB	0b4H
	DB	095H
	DB	00H
	DB	04fH
	DB	080H
	DB	0aH
	DB	04fH
	DB	0e8H
	DB	01H
	DB	049H
	DB	0efH
	DB	07eH
	DB	044H
	DB	0ccH
	DB	00H
	DB	08cH
	DB	054H
	DB	0ffH
	DB	0fdH
	DB	0b0H
	DB	0e7H
	DB	0d8H
	DB	0a7H
	DB	04cH
	DB	07fH
	DB	05eH
	DB	076H
	DB	05H
	DB	05H
	DB	054H
	DB	054H
	DB	08fH
	DB	022H
	DB	01aH
	DB	011H
	DB	062H
	DB	062H
	DB	062H
	DB	062H
	DB	062H
	DB	062H
	DB	08H
	DB	07H
	DB	0eH
	DB	01cH
	DB	076H
	DB	021H
	DB	099H
	DB	013H
	DB	060H
	DB	060H
	DB	018H
	DB	013H
	DB	038H
	DB	01fH
	DB	0cH
	DB	0cH
	DB	0cH
	DB	0cH
	DB	025H
	DB	025H
	DB	0cH
	DB	0cH
	DB	0cH
	DB	0cH
	DB	0cH
	DB	041H
	DB	041H
	DB	041H
	DB	075H
	DB	015H
	DB	015H
	DB	02dH
	DB	01eH
	DB	07aH
	DB	07aH
	DB	02fH
	DB	07aH
	DB	07aH
	DB	01eH
	DB	079H
	DB	010H
	DB	010H
	DB	010H
	DB	016H
	DB	016H
	DB	076H
	DB	076H
	DB	076H
	DB	048H
	DB	021H
	DB	078H
	DB	030H
	DB	05dH
	DB	035H
	DB	087H
	DB	03cH
	DB	045H
	DB	02eH
	DB	02eH
	DB	02eH
	DB	042H
	DB	080H
	DB	042H
	DB	042H
	DB	042H
	DB	042H
	DB	042H
	DB	042H
	DB	0aH
	DB	0aH
	DB	03H
	DB	04fH
	DB	04fH
	DB	04fH
	DB	04fH
	DB	03H
	DB	0aH
	DB	0aH
	DB	00H
	DB	00H
	DB	00H
	DB	00H
	DB	00H
	DB	00H
	DB	00H
	DB	00H
	DB	00H
	DB	00H
	DB	00H
	DB	00H
	DB	00H
	DB	080H
	DB	01cH
	DB	01cH
	DB	01cH
	DB	01cH
	DB	01cH
	DB	01cH
	DB	01cH
	DB	01cH
	DB	01cH
	DB	01cH
	DB	01cH
	DB	01dH
	DB	01dH
	DB	09aH
	DB	01dH
	DB	01cH
	DB	099H
	DB	014H
	DB	0b3H
	DB	04dH
	DB	04dH
	DB	04dH
	DB	04dH
	DB	03H
	DB	03H
	DB	04fH
	DB	00H
	DB	00H
	DB	00H
	DB	023H
	DB	03H
	DB	04dH
	DB	04dH
	DB	02cH
	DB	08bH
	DB	039H
	DB	05cH
	DB	020H
	DB	039H
	DB	096H
	DB	036H
	DB	09fH
	DB	02bH
	DB	024H
	DB	08bH
	DB	08bH
	DB	04dH
	DB	0aH
	DB	03cH
	DB	02eH
	DB	0aH
	DB	04fH
	DB	0aH
	DB	07bH
	DB	06H
	DB	05bH
	DB	03aH
	DB	04H
	DB	0f0H
	DB	0a2H
	DB	037H
	DB	0b5H
	DB	0f8H
	DB	06H
	DB	093H
	DB	01H
	DB	0b0H
	DB	0aaH
	DB	0a5H
	DB	03aH
	DB	07fH
	DB	034H
	DB	070H
	DB	046H
	DB	04bH
	DB	05H
	DB	059H
	DB	091H
	DB	05H
	DB	054H
	DB	054H
	DB	08fH
	DB	022H
	DB	01aH
	DB	011H
	DB	012H
	DB	062H
	DB	08H
	DB	08H
	DB	08H
	DB	08H
	DB	08H
	DB	08H
	DB	07H
	DB	0eH
	DB	01cH
	DB	016H
	DB	048H
	DB	021H
	DB	065H
	DB	065H
	DB	065H
	DB	065H
	DB	065H
	DB	01fH
	DB	01fH
	DB	01fH
	DB	0cH
	DB	0cH
	DB	041H
	DB	041H
	DB	0cH
	DB	041H
	DB	041H
	DB	025H
	DB	025H
	DB	015H
	DB	033H
	DB	02dH
	DB	01eH
	DB	07aH
	DB	07aH
	DB	0aaH
	DB	0aaH
	DB	0aaH
	DB	02fH
	DB	02fH
	DB	07aH
	DB	07aH
	DB	01eH
	DB	01eH
	DB	02dH
	DB	02dH
	DB	010H
	DB	010H
	DB	010H
	DB	016H
	DB	016H
	DB	016H
	DB	016H
	DB	076H
	DB	076H
	DB	021H
	DB	078H
	DB	077H
	DB	030H
	DB	0caH
	DB	035H
	DB	03cH
	DB	0b5H
	DB	0b5H
	DB	02eH
	DB	042H
	DB	042H
	DB	0aH
	DB	0aH
	DB	0aH
	DB	0aH
	DB	0aH
	DB	03H
	DB	03H
	DB	03H
	DB	0aH
	DB	0aH
	DB	00H
	DB	00H
	DB	00H
	DB	00H
	DB	00H
	DB	00H
	DB	00H
	DB	00H
	DB	00H
	DB	00H
	DB	00H
	DB	00H
	DB	00H
	DB	080H
	DB	016H
	DB	043H
	DB	043H
	DB	016H
	DB	016H
	DB	01cH
	DB	01cH
	DB	01dH
	DB	01dH
	DB	01dH
	DB	01dH
	DB	09aH
	DB	0eH
	DB	07H
	DB	07H
	DB	0eH
	DB	01cH
	DB	021H
	DB	0caH
	DB	045H
	DB	0aH
	DB	04fH
	DB	00H
	DB	00H
	DB	00H
	DB	00H
	DB	00H
	DB	00H
	DB	00H
	DB	00H
	DB	00H
	DB	00H
	DB	00H
	DB	023H
	DB	03H
	DB	03H
	DB	02cH
	DB	020H
	DB	01bH
	DB	039H
	DB	096H
	DB	039H
	DB	013H
	DB	038H
	DB	06aH
	DB	08bH
	DB	00H
	DB	03cH
	DB	080H
	DB	0aH
	DB	042H
	DB	04fH
	DB	00H
	DB	05eH
	DB	01H
	DB	03aH
	DB	03dH
	DB	05bH
	DB	0f5H
	DB	0afH
	DB	016H
	DB	087H
	DB	054H
	DB	01H
	DB	09cH
	DB	07fH
	DB	07fH
	DB	0fbH
	DB	033H
	DB	04aH
	DB	03dH
	DB	0f6H
	DB	049H
	DB	0cH
	DB	01fH
	DB	02dH
	DB	02fH
	DB	0dH
	DB	03dH
	DB	0bH
	DB	04bH
	DB	03aH
	DB	05H
	DB	05H
	DB	05H
	DB	05H
	DB	054H
	DB	08fH
	DB	032H
	DB	01aH
	DB	011H
	DB	012H
	DB	08H
	DB	08H
	DB	08H
	DB	08H
	DB	08H
	DB	08H
	DB	08H
	DB	07H
	DB	0eH
	DB	01dH
	DB	0a8H
	DB	016H
	DB	0a4H
	DB	099H
	DB	099H
	DB	013H
	DB	013H
	DB	01fH
	DB	0cH
	DB	025H
	DB	015H
	DB	015H
	DB	015H
	DB	015H
	DB	015H
	DB	010H
	DB	02dH
	DB	01eH
	DB	07aH
	DB	02fH
	DB	034H
	DB	034H
	DB	0aaH
	DB	07aH
	DB	07aH
	DB	01eH
	DB	02dH
	DB	02dH
	DB	010H
	DB	033H
	DB	033H
	DB	033H
	DB	02dH
	DB	02dH
	DB	02dH
	DB	02dH
	DB	02dH
	DB	010H
	DB	010H
	DB	010H
	DB	05eH
	DB	05eH
	DB	05eH
	DB	021H
	DB	099H
	DB	013H
	DB	013H
	DB	030H
	DB	030H
	DB	097H
	DB	035H
	DB	0c2H
	DB	087H
	DB	03cH
	DB	045H
	DB	02eH
	DB	02eH
	DB	02eH
	DB	042H
	DB	042H
	DB	02eH
	DB	042H
	DB	00H
	DB	00H
	DB	00H
	DB	00H
	DB	00H
	DB	00H
	DB	00H
	DB	00H
	DB	00H
	DB	00H
	DB	00H
	DB	00H
	DB	00H
	DB	080H
	DB	01cH
	DB	016H
	DB	016H
	DB	016H
	DB	016H
	DB	016H
	DB	01cH
	DB	01cH
	DB	01cH
	DB	01cH
	DB	01dH
	DB	01dH
	DB	01dH
	DB	0eH
	DB	09aH
	DB	09aH
	DB	07H
	DB	08H
	DB	08H
	DB	0eH
	DB	016H
	DB	021H
	DB	0caH
	DB	03cH
	DB	042H
	DB	04fH
	DB	00H
	DB	00H
	DB	00H
	DB	00H
	DB	00H
	DB	00H
	DB	00H
	DB	00H
	DB	00H
	DB	086H
	DB	0a1H
	DB	0cdH
	DB	087H
	DB	017H
	DB	01bH
	DB	03bH
	DB	0c5H
	DB	018H
	DB	096H
	DB	069H
	DB	03H
	DB	03cH
	DB	0aH
	DB	03cH
	DB	03cH
	DB	0aH
	DB	00H
	DB	03cH
	DB	06H
	DB	04cH
	DB	0fH
	DB	010H
	DB	034H
	DB	068H
	DB	0feH
	DB	0fcH
	DB	0ffH
	DB	01H
	DB	01H
	DB	01H
	DB	0ffH
	DB	0fcH
	DB	0fdH
	DB	0f1H
	DB	0a6H
	DB	0e6H
	DB	01H
	DB	034H
	DB	072H
	DB	03bH
	DB	024H
	DB	013H
	DB	0cH
	DB	010H
	DB	01eH
	DB	02fH
	DB	0dH
	DB	046H
	DB	03dH
	DB	0bH
	DB	0bH
	DB	03aH
	DB	05H
	DB	05H
	DB	05H
	DB	05H
	DB	054H
	DB	08fH
	DB	022H
	DB	071H
	DB	011H
	DB	012H
	DB	012H
	DB	08H
	DB	08H
	DB	08H
	DB	08H
	DB	08H
	DB	08H
	DB	08H
	DB	012H
	DB	07H
	DB	0eH
	DB	0a8H
	DB	05eH
	DB	05eH
	DB	0cH
	DB	05eH
	DB	010H
	DB	02dH
	DB	01eH
	DB	01eH
	DB	07aH
	DB	02fH
	DB	034H
	DB	034H
	DB	0dH
	DB	0dH
	DB	034H
	DB	034H
	DB	07aH
	DB	01eH
	DB	02dH
	DB	033H
	DB	015H
	DB	015H
	DB	075H
	DB	025H
	DB	015H
	DB	033H
	DB	033H
	DB	02dH
	DB	01eH
	DB	01eH
	DB	01eH
	DB	01eH
	DB	01eH
	DB	02dH
	DB	010H
	DB	025H
	DB	01fH
	DB	01fH
	DB	038H
	DB	013H
	DB	013H
	DB	013H
	DB	013H
	DB	065H
	DB	099H
	DB	021H
	DB	021H
	DB	078H
	DB	077H
	DB	030H
	DB	097H
	DB	035H
	DB	05cH
	DB	045H
	DB	00H
	DB	00H
	DB	00H
	DB	00H
	DB	00H
	DB	00H
	DB	00H
	DB	00H
	DB	00H
	DB	00H
	DB	00H
	DB	00H
	DB	00H
	DB	080H
	DB	016H
	DB	043H
	DB	016H
	DB	016H
	DB	01cH
	DB	01cH
	DB	01dH
	DB	01dH
	DB	01dH
	DB	01dH
	DB	01dH
	DB	01dH
	DB	0eH
	DB	0eH
	DB	07H
	DB	07H
	DB	07H
	DB	07H
	DB	08H
	DB	062H
	DB	062H
	DB	062H
	DB	011H
	DB	011H
	DB	08H
	DB	0eH
	DB	016H
	DB	021H
	DB	030H
	DB	0c2H
	DB	02eH
	DB	04fH
	DB	00H
	DB	00H
	DB	00H
	DB	094H
	DB	0dfH
	DB	0cbH
	DB	02eH
	DB	027H
	DB	060H
	DB	0cH
	DB	065H
	DB	013H
	DB	0c5H
	DB	04dH
	DB	0aH
	DB	020H
	DB	0aH
	DB	042H
	DB	0aH
	DB	02eH
	DB	04fH
	DB	080H
	DB	068H
	DB	013H
	DB	05cH
	DB	0fH
	DB	034H
	DB	079H
	DB	060H
	DB	0cH
	DB	0e2H
	DB	0bH
	DB	0bH
	DB	04H
	DB	07fH
	DB	064H
	DB	06H
	DB	01H
	DB	0afH
	DB	088H
	DB	0f7H
	DB	04cH
	DB	024H
	DB	036H
	DB	038H
	DB	0cH
	DB	015H
	DB	010H
	DB	02dH
	DB	01eH
	DB	01eH
	DB	0fH
	DB	0fH
	DB	02fH
	DB	02fH
	DB	034H
	DB	034H
	DB	0dH
	DB	046H
	DB	03dH
	DB	0bH
	DB	05bH
	DB	05bH
	DB	0bH
	DB	022H
	DB	071H
	DB	012H
	DB	012H
	DB	08H
	DB	08H
	DB	08H
	DB	012H
	DB	08H
	DB	0eH
	DB	0eH
	DB	056H
	DB	012H
	DB	071H
	DB	0bH
	DB	0bH
	DB	0bH
	DB	0dH
	DB	0fH
	DB	079H
	DB	0fH
	DB	070H
	DB	034H
	DB	0dH
	DB	0dH
	DB	0dH
	DB	0dH
	DB	034H
	DB	034H
	DB	034H
	DB	02fH
	DB	07aH
	DB	01eH
	DB	02dH
	DB	015H
	DB	015H
	DB	015H
	DB	015H
	DB	02dH
	DB	01eH
	DB	01eH
	DB	01eH
	DB	01eH
	DB	01eH
	DB	01eH
	DB	01eH
	DB	01eH
	DB	01eH
	DB	02dH
	DB	02dH
	DB	015H
	DB	015H
	DB	025H
	DB	041H
	DB	01fH
	DB	01fH
	DB	038H
	DB	038H
	DB	013H
	DB	013H
	DB	013H
	DB	013H
	DB	099H
	DB	099H
	DB	077H
	DB	030H
	DB	030H
	DB	05cH
	DB	00H
	DB	00H
	DB	00H
	DB	00H
	DB	00H
	DB	00H
	DB	00H
	DB	00H
	DB	00H
	DB	00H
	DB	00H
	DB	00H
	DB	00H
	DB	080H
	DB	01cH
	DB	016H
	DB	01cH
	DB	01cH
	DB	01cH
	DB	01dH
	DB	01dH
	DB	0eH
	DB	07H
	DB	07H
	DB	08H
	DB	08H
	DB	08H
	DB	08H
	DB	08H
	DB	08H
	DB	08H
	DB	08H
	DB	062H
	DB	062H
	DB	011H
	DB	011H
	DB	011H
	DB	011H
	DB	011H
	DB	01aH
	DB	08aH
	DB	08aH
	DB	08aH
	DB	08aH
	DB	011H
	DB	0eH
	DB	021H
	DB	0caH
	DB	03cH
	DB	08cH
	DB	0b2H
	DB	04fH
	DB	04fH
	DB	03cH
	DB	0cH
	DB	025H
	DB	025H
	DB	025H
	DB	09fH
	DB	023H
	DB	03H
	DB	027H
	DB	03H
	DB	042H
	DB	017H
	DB	0aH
	DB	04fH
	DB	080H
	DB	044H
	DB	05cH
	DB	00H
	DB	065H
	DB	067H
	DB	0bH
	DB	0fH
	DB	02dH
	DB	01eH
	DB	03dH
	DB	03dH
	DB	0bH
	DB	064H
	DB	09cH
	DB	02H
	DB	064H
	DB	0ebH
	DB	06dH
	DB	0eaH
	DB	0e8H
	DB	025H
	DB	025H
	DB	015H
	DB	02dH
	DB	01eH
	DB	02fH
	DB	02fH
	DB	034H
	DB	02fH
	DB	02fH
	DB	0fH
	DB	01eH
	DB	01eH
	DB	01eH
	DB	0fH
	DB	0fH
	DB	070H
	DB	070H
	DB	056H
	DB	012H
	DB	012H
	DB	012H
	DB	012H
	DB	08H
	DB	062H
	DB	062H
	DB	062H
	DB	062H
	DB	011H
	DB	022H
	DB	08fH
	DB	054H
	DB	08fH
	DB	0e8H
	DB	0fH
	DB	010H
	DB	065H
	DB	013H
	DB	065H
	DB	015H
	DB	0fH
	DB	0dH
	DB	0dH
	DB	046H
	DB	03dH
	DB	0bH
	DB	0bH
	DB	03aH
	DB	059H
	DB	063H
	DB	05H
	DB	0bH
	DB	0e8H
	DB	034H
	DB	02fH
	DB	01eH
	DB	01eH
	DB	02dH
	DB	02dH
	DB	02dH
	DB	01eH
	DB	07aH
	DB	02fH
	DB	02fH
	DB	07aH
	DB	07aH
	DB	07aH
	DB	07aH
	DB	01eH
	DB	01eH
	DB	02dH
	DB	010H
	DB	015H
	DB	025H
	DB	025H
	DB	041H
	DB	041H
	DB	041H
	DB	041H
	DB	041H
	DB	041H
	DB	025H
	DB	041H
	DB	01fH
	DB	01fH
	DB	01fH
	DB	065H
	DB	013H
	DB	013H
	DB	05cH
	DB	00H
	DB	00H
	DB	00H
	DB	00H
	DB	00H
	DB	00H
	DB	00H
	DB	00H
	DB	00H
	DB	00H
	DB	00H
	DB	00H
	DB	00H
	DB	02eH
	DB	07H
	DB	07H
	DB	07H
	DB	07H
	DB	07H
	DB	07H
	DB	07H
	DB	07H
	DB	07H
	DB	07H
	DB	07H
	DB	07H
	DB	07H
	DB	07H
	DB	08H
	DB	07H
	DB	07H
	DB	07H
	DB	07H
	DB	08H
	DB	08H
	DB	08H
	DB	08H
	DB	08H
	DB	011H
	DB	011H
	DB	011H
	DB	011H
	DB	01aH
	DB	01aH
	DB	08aH
	DB	032H
	DB	047H
	DB	047H
	DB	08aH
	DB	062H
	DB	01cH
	DB	099H
	DB	035H
	DB	045H
	DB	027H
	DB	017H
	DB	020H
	DB	03bH
	DB	03H
	DB	023H
	DB	023H
	DB	02cH
	DB	03H
	DB	03H
	DB	03H
	DB	0aH
	DB	04fH
	DB	017H
	DB	07bH
	DB	01bH
	DB	00H
	DB	042H
	DB	013H
	DB	05eH
	DB	05eH
	DB	067H
	DB	07bH
	DB	064H
	DB	02H
	DB	02H
	DB	044H
	DB	044H
	DB	05H
	DB	0bH
	DB	0abH
	DB	024H
	DB	097H
	DB	060H
	DB	02dH
	DB	02dH
	DB	02dH
	DB	02dH
	DB	02dH
	DB	01eH
	DB	01eH
	DB	02fH
	DB	034H
	DB	034H
	DB	0dH
	DB	0dH
	DB	012H
	DB	012H
	DB	012H
	DB	012H
	DB	012H
	DB	012H
	DB	012H
	DB	012H
	DB	08H
	DB	08H
	DB	08H
	DB	08H
	DB	012H
	DB	011H
	DB	012H
	DB	07H
	DB	0a8H
	DB	076H
	DB	0cH
	DB	0cH
	DB	025H
	DB	02dH
	DB	046H
	DB	09bH
	DB	04cH
	DB	059H
	DB	04bH
	DB	034H
	DB	0fH
	DB	0fH
	DB	02fH
	DB	034H
	DB	0dH
	DB	0dH
	DB	034H
	DB	0e2H
	DB	010H
	DB	010H
	DB	0e2H
	DB	070H
	DB	070H
	DB	070H
	DB	0fH
	DB	010H
	DB	0cH
	DB	0cH
	DB	015H
	DB	010H
	DB	01eH
	DB	07aH
	DB	02fH
	DB	02fH
	DB	02fH
	DB	02fH
	DB	0aaH
	DB	02fH
	DB	07aH
	DB	01eH
	DB	02dH
	DB	010H
	DB	015H
	DB	025H
	DB	041H
	DB	01fH
	DB	01fH
	DB	041H
	DB	041H
	DB	041H
	DB	025H
	DB	075H
	DB	075H
	DB	015H
	DB	015H
	DB	015H
	DB	015H
	DB	015H
	DB	010H
	DB	013H
	DB	00H
	DB	00H
	DB	00H
	DB	00H
	DB	00H
	DB	00H
	DB	00H
	DB	00H
	DB	00H
	DB	00H
	DB	00H
	DB	00H
	DB	00H
	DB	02eH
	DB	08H
	DB	07H
	DB	07H
	DB	07H
	DB	0eH
	DB	0eH
	DB	0eH
	DB	0eH
	DB	0eH
	DB	07H
	DB	07H
	DB	07H
	DB	07H
	DB	07H
	DB	07H
	DB	07H
	DB	07H
	DB	0eH
	DB	0eH
	DB	0eH
	DB	0eH
	DB	07H
	DB	07H
	DB	07H
	DB	012H
	DB	012H
	DB	011H
	DB	011H
	DB	01aH
	DB	01aH
	DB	022H
	DB	08aH
	DB	08aH
	DB	08aH
	DB	032H
	DB	032H
	DB	032H
	DB	047H
	DB	032H
	DB	011H
	DB	016H
	DB	035H
	DB	02eH
	DB	04fH
	DB	00H
	DB	00H
	DB	00H
	DB	04fH
	DB	0aH
	DB	03H
	DB	0aH
	DB	0aH
	DB	00H
	DB	080H
	DB	07bH
	DB	0cH
	DB	04fH
	DB	03H
	DB	014H
	DB	01bH
	DB	014H
	DB	05cH
	DB	0fH
	DB	0bH
	DB	01bH
	DB	0aH
	DB	045H
	DB	0cH
	DB	01bH
	DB	03H
	DB	04fH
	DB	03H
	DB	03cH
	DB	05eH
	DB	01eH
	DB	01eH
	DB	0e2H
	DB	01eH
	DB	01eH
	DB	01eH
	DB	01eH
	DB	0e2H
	DB	0fH
	DB	056H
	DB	056H
	DB	012H
	DB	011H
	DB	01aH
	DB	01aH
	DB	01aH
	DB	01aH
	DB	011H
	DB	011H
	DB	011H
	DB	011H
	DB	062H
	DB	012H
	DB	011H
	DB	01aH
	DB	022H
	DB	071H
	DB	071H
	DB	012H
	DB	079H
	DB	05eH
	DB	036H
	DB	039H
	DB	04dH
	DB	03H
	DB	04dH
	DB	072H
	DB	024H
	DB	01fH
	DB	01eH
	DB	034H
	DB	02fH
	DB	0fH
	DB	02dH
	DB	010H
	DB	015H
	DB	01eH
	DB	046H
	DB	04bH
	DB	05H
	DB	03aH
	DB	04bH
	DB	0bH
	DB	0bH
	DB	0bH
	DB	0bH
	DB	0bH
	DB	067H
	DB	0dH
	DB	0dH
	DB	0dH
	DB	046H
	DB	046H
	DB	046H
	DB	0dH
	DB	0dH
	DB	034H
	DB	07aH
	DB	02dH
	DB	015H
	DB	015H
	DB	025H
	DB	025H
	DB	041H
	DB	041H
	DB	01fH
	DB	041H
	DB	041H
	DB	01fH
	DB	01fH
	DB	025H
	DB	025H
	DB	015H
	DB	015H
	DB	015H
	DB	015H
	DB	015H
	DB	015H
	DB	015H
	DB	018H
	DB	00H
	DB	00H
	DB	00H
	DB	00H
	DB	00H
	DB	00H
	DB	00H
	DB	00H
	DB	00H
	DB	00H
	DB	00H
	DB	00H
	DB	00H
	DB	02eH
	DB	08H
	DB	07H
	DB	07H
	DB	07H
	DB	07H
	DB	07H
	DB	07H
	DB	0eH
	DB	07H
	DB	07H
	DB	07H
	DB	07H
	DB	07H
	DB	07H
	DB	07H
	DB	07H
	DB	07H
	DB	08H
	DB	08H
	DB	08H
	DB	08H
	DB	07H
	DB	08H
	DB	07H
	DB	07H
	DB	08H
	DB	08H
	DB	062H
	DB	062H
	DB	011H
	DB	011H
	DB	011H
	DB	01aH
	DB	01aH
	DB	01aH
	DB	01aH
	DB	01aH
	DB	01aH
	DB	01aH
	DB	08aH
	DB	08aH
	DB	01aH
	DB	062H
	DB	01dH
	DB	021H
	DB	035H
	DB	02eH
	DB	04fH
	DB	00H
	DB	04fH
	DB	04fH
	DB	00H
	DB	00H
	DB	04fH
	DB	0bH
	DB	03aH
	DB	046H
	DB	025H
	DB	015H
	DB	018H
	DB	03bH
	DB	065H
	DB	070H
	DB	063H
	DB	014H
	DB	00H
	DB	017H
	DB	05eH
	DB	017H
	DB	042H
	DB	014H
	DB	05eH
	DB	065H
	DB	0e2H
	DB	02fH
	DB	0fH
	DB	070H
	DB	0fH
	DB	0fH
	DB	070H
	DB	056H
	DB	056H
	DB	08H
	DB	08H
	DB	08H
	DB	062H
	DB	062H
	DB	062H
	DB	062H
	DB	011H
	DB	011H
	DB	011H
	DB	01aH
	DB	01aH
	DB	01aH
	DB	011H
	DB	08H
	DB	07H
	DB	0eH
	DB	07H
	DB	070H
	DB	0dH
	DB	03dH
	DB	04bH
	DB	04bH
	DB	04bH
	DB	0bH
	DB	046H
	DB	0fH
	DB	025H
	DB	013H
	DB	03bH
	DB	020H
	DB	024H
	DB	038H
	DB	05eH
	DB	010H
	DB	02dH
	DB	02dH
	DB	025H
	DB	018H
	DB	03bH
	DB	020H
	DB	03bH
	DB	036H
	DB	01fH
	DB	025H
	DB	015H
	DB	015H
	DB	025H
	DB	0cH
	DB	0cH
	DB	010H
	DB	034H
	DB	03dH
	DB	0bH
	DB	0bH
	DB	05bH
	DB	03aH
	DB	05H
	DB	05H
	DB	05H
	DB	03aH
	DB	03dH
	DB	034H
	DB	01eH
	DB	033H
	DB	075H
	DB	041H
	DB	01fH
	DB	041H
	DB	041H
	DB	041H
	DB	041H
	DB	075H
	DB	015H
	DB	015H
	DB	010H
	DB	010H
	DB	02dH
	DB	02dH
	DB	02dH
	DB	02dH
	DB	013H
	DB	00H
	DB	00H
	DB	00H
	DB	00H
	DB	00H
	DB	00H
	DB	00H
	DB	00H
	DB	00H
	DB	00H
	DB	00H
	DB	00H
	DB	00H
	DB	02eH
	DB	08H
	DB	07H
	DB	07H
	DB	07H
	DB	08H
	DB	08H
	DB	08H
	DB	08H
	DB	07H
	DB	07H
	DB	07H
	DB	07H
	DB	07H
	DB	08H
	DB	08H
	DB	08H
	DB	08H
	DB	08H
	DB	08H
	DB	08H
	DB	08H
	DB	08H
	DB	08H
	DB	08H
	DB	08H
	DB	08H
	DB	08H
	DB	08H
	DB	08H
	DB	08H
	DB	08H
	DB	062H
	DB	062H
	DB	062H
	DB	062H
	DB	011H
	DB	011H
	DB	011H
	DB	011H
	DB	011H
	DB	011H
	DB	011H
	DB	01aH
	DB	01aH
	DB	01aH
	DB	01aH
	DB	062H
	DB	0eH
	DB	048H
	DB	0caH
	DB	03cH
	DB	080H
	DB	086H
	DB	086H
	DB	095H
	DB	01bH
	DB	018H
	DB	05eH
	DB	015H
	DB	015H
	DB	05eH
	DB	01fH
	DB	02fH
	DB	05H
	DB	03aH
	DB	05eH
	DB	060H
	DB	0cH
	DB	013H
	DB	060H
	DB	014H
	DB	014H
	DB	0cH
	DB	0dH
	DB	0dH
	DB	012H
	DB	012H
	DB	012H
	DB	08H
	DB	08H
	DB	08H
	DB	062H
	DB	062H
	DB	062H
	DB	062H
	DB	062H
	DB	062H
	DB	011H
	DB	011H
	DB	011H
	DB	011H
	DB	011H
	DB	011H
	DB	011H
	DB	08H
	DB	01dH
	DB	016H
	DB	021H
	DB	030H
	DB	05cH
	DB	039H
	DB	027H
	DB	039H
	DB	03bH
	DB	018H
	DB	0cH
	DB	01eH
	DB	034H
	DB	0bH
	DB	03aH
	DB	03aH
	DB	0bH
	DB	0dH
	DB	01eH
	DB	010H
	DB	010H
	DB	02dH
	DB	02fH
	DB	046H
	DB	04bH
	DB	05H
	DB	05H
	DB	0bH
	DB	034H
	DB	02dH
	DB	010H
	DB	02dH
	DB	01eH
	DB	02fH
	DB	034H
	DB	034H
	DB	034H
	DB	010H
	DB	01fH
	DB	060H
	DB	018H
	DB	038H
	DB	01fH
	DB	0cH
	DB	0cH
	DB	0cH
	DB	0cH
	DB	0cH
	DB	05eH
	DB	015H
	DB	010H
	DB	010H
	DB	015H
	DB	0cH
	DB	038H
	DB	018H
	DB	018H
	DB	038H
	DB	01fH
	DB	0cH
	DB	015H
	DB	015H
	DB	02dH
	DB	02dH
	DB	02dH
	DB	02dH
	DB	02dH
	DB	02dH
	DB	038H
	DB	00H
	DB	00H
	DB	00H
	DB	00H
	DB	00H
	DB	00H
	DB	00H
	DB	00H
	DB	00H
	DB	00H
	DB	00H
	DB	00H
	DB	00H
	DB	02eH
	DB	08H
	DB	07H
	DB	07H
	DB	07H
	DB	07H
	DB	07H
	DB	08H
	DB	08H
	DB	08H
	DB	08H
	DB	08H
	DB	08H
	DB	08H
	DB	08H
	DB	08H
	DB	08H
	DB	08H
	DB	08H
	DB	08H
	DB	08H
	DB	08H
	DB	08H
	DB	07H
	DB	08H
	DB	08H
	DB	08H
	DB	08H
	DB	08H
	DB	062H
	DB	062H
	DB	062H
	DB	062H
	DB	062H
	DB	062H
	DB	011H
	DB	011H
	DB	01aH
	DB	01aH
	DB	01aH
	DB	01aH
	DB	01aH
	DB	08aH
	DB	01aH
	DB	01aH
	DB	08aH
	DB	08aH
	DB	032H
	DB	032H
	DB	047H
	DB	047H
	DB	032H
	DB	01aH
	DB	07H
	DB	01cH
	DB	078H
	DB	0caH
	DB	087H
	DB	02eH
	DB	080H
	DB	0aH
	DB	02eH
	DB	045H
	DB	020H
	DB	05cH
	DB	014H
	DB	05cH
	DB	045H
	DB	045H
	DB	05cH
	DB	014H
	DB	013H
	DB	0a8H
	DB	0dH
	DB	071H
	DB	01aH
	DB	011H
	DB	011H
	DB	062H
	DB	062H
	DB	062H
	DB	062H
	DB	062H
	DB	062H
	DB	011H
	DB	011H
	DB	011H
	DB	011H
	DB	01aH
	DB	01aH
	DB	01aH
	DB	01aH
	DB	01aH
	DB	01aH
	DB	011H
	DB	012H
	DB	07H
	DB	0a8H
	DB	065H
	DB	014H
	DB	020H
	DB	02cH
	DB	03H
	DB	023H
	DB	023H
	DB	023H
	DB	03H
	DB	03H
	DB	027H
	DB	020H
	DB	014H
	DB	038H
	DB	025H
	DB	025H
	DB	0cH
	DB	038H
	DB	036H
	DB	01bH
	DB	027H
	DB	02cH
	DB	0b3H
	DB	024H
	DB	038H
	DB	015H
	DB	02fH
	DB	046H
	DB	046H
	DB	034H
	DB	07aH
	DB	01eH
	DB	02dH
	DB	01eH
	DB	034H
	DB	03dH
	DB	03aH
	DB	059H
	DB	063H
	DB	05H
	DB	04bH
	DB	0bH
	DB	0bH
	DB	04bH
	DB	04bH
	DB	04bH
	DB	0bH
	DB	067H
	DB	0dH
	DB	070H
	DB	0fH
	DB	0fH
	DB	0e2H
	DB	010H
	DB	010H
	DB	010H
	DB	02dH
	DB	02dH
	DB	02dH
	DB	02dH
	DB	01eH
	DB	01eH
	DB	01eH
	DB	01eH
	DB	01eH
	DB	01eH
	DB	038H
	DB	00H
	DB	00H
	DB	00H
	DB	00H
	DB	00H
	DB	00H
	DB	00H
	DB	00H
	DB	00H
	DB	00H
	DB	00H
	DB	00H
	DB	00H
	DB	02eH
	DB	07H
	DB	07H
	DB	0eH
	DB	07H
	DB	07H
	DB	07H
	DB	08H
	DB	08H
	DB	08H
	DB	08H
	DB	08H
	DB	08H
	DB	062H
	DB	08H
	DB	08H
	DB	08H
	DB	08H
	DB	08H
	DB	08H
	DB	08H
	DB	08H
	DB	08H
	DB	07H
	DB	07H
	DB	07H
	DB	07H
	DB	07H
	DB	07H
	DB	08H
	DB	08H
	DB	062H
	DB	011H
	DB	011H
	DB	011H
	DB	011H
	DB	011H
	DB	011H
	DB	011H
	DB	01aH
	DB	01aH
	DB	01aH
	DB	01aH
	DB	01aH
	DB	01aH
	DB	08aH
	DB	08aH
	DB	022H
	DB	08aH
	DB	08aH
	DB	022H
	DB	032H
	DB	032H
	DB	047H
	DB	047H
	DB	047H
	DB	047H
	DB	047H
	DB	08aH
	DB	062H
	DB	0eH
	DB	01cH
	DB	043H
	DB	048H
	DB	043H
	DB	0a8H
	DB	0eH
	DB	070H
	DB	071H
	DB	0bH
	DB	08fH
	DB	08fH
	DB	032H
	DB	022H
	DB	01aH
	DB	01aH
	DB	01aH
	DB	01aH
	DB	01aH
	DB	01aH
	DB	01aH
	DB	01aH
	DB	01aH
	DB	01aH
	DB	01aH
	DB	01aH
	DB	01aH
	DB	01aH
	DB	01aH
	DB	08aH
	DB	08aH
	DB	01aH
	DB	011H
	DB	011H
	DB	012H
	DB	012H
	DB	070H
	DB	0fH
	DB	0fH
	DB	0fH
	DB	02dH
	DB	025H
	DB	038H
	DB	036H
	DB	0b9H
	DB	0b3H
	DB	02cH
	DB	03H
	DB	03H
	DB	023H
	DB	023H
	DB	04dH
	DB	017H
	DB	03bH
	DB	036H
	DB	018H
	DB	018H
	DB	036H
	DB	03bH
	DB	072H
	DB	02cH
	DB	03H
	DB	023H
	DB	03H
	DB	04dH
	DB	027H
	DB	020H
	DB	024H
	DB	018H
	DB	018H
	DB	036H
	DB	03bH
	DB	072H
	DB	02cH
	DB	027H
	DB	020H
	DB	036H
	DB	0cH
	DB	010H
	DB	01eH
	DB	01eH
	DB	02dH
	DB	010H
	DB	010H
	DB	010H
	DB	02dH
	DB	034H
	DB	0bH
	DB	04bH
	DB	03aH
	DB	03aH
	DB	04bH
	DB	04bH
	DB	03aH
	DB	05H
	DB	05H
	DB	05H
	DB	05H
	DB	05H
	DB	05H
	DB	05H
	DB	05H
	DB	05H
	DB	03aH
	DB	010H
	DB	00H
	DB	00H
	DB	00H
	DB	00H
	DB	00H
	DB	00H
	DB	00H
	DB	00H
	DB	00H
	DB	00H
	DB	00H
	DB	00H
	DB	00H
	DB	02eH
	DB	07H
	DB	07H
	DB	0eH
	DB	07H
	DB	07H
	DB	07H
	DB	08H
	DB	08H
	DB	08H
	DB	08H
	DB	08H
	DB	08H
	DB	08H
	DB	08H
	DB	08H
	DB	08H
	DB	08H
	DB	08H
	DB	08H
	DB	08H
	DB	08H
	DB	08H
	DB	08H
	DB	07H
	DB	07H
	DB	07H
	DB	07H
	DB	07H
	DB	07H
	DB	08H
	DB	08H
	DB	062H
	DB	011H
	DB	011H
	DB	01aH
	DB	01aH
	DB	01aH
	DB	01aH
	DB	01aH
	DB	01aH
	DB	01aH
	DB	01aH
	DB	01aH
	DB	01aH
	DB	01aH
	DB	01aH
	DB	01aH
	DB	022H
	DB	022H
	DB	032H
	DB	032H
	DB	032H
	DB	032H
	DB	032H
	DB	032H
	DB	032H
	DB	032H
	DB	032H
	DB	032H
	DB	047H
	DB	047H
	DB	047H
	DB	047H
	DB	047H
	DB	032H
	DB	08aH
	DB	01aH
	DB	01aH
	DB	01aH
	DB	01aH
	DB	01aH
	DB	01aH
	DB	08aH
	DB	08aH
	DB	01aH
	DB	01aH
	DB	01aH
	DB	01aH
	DB	01aH
	DB	01aH
	DB	01aH
	DB	01aH
	DB	01aH
	DB	01aH
	DB	01aH
	DB	01aH
	DB	01aH
	DB	011H
	DB	012H
	DB	012H
	DB	012H
	DB	012H
	DB	0dH
	DB	0dH
	DB	0dH
	DB	034H
	DB	034H
	DB	034H
	DB	02fH
	DB	02fH
	DB	02fH
	DB	02fH
	DB	02fH
	DB	0fH
	DB	01eH
	DB	015H
	DB	01fH
	DB	018H
	DB	024H
	DB	020H
	DB	0b9H
	DB	024H
	DB	018H
	DB	038H
	DB	025H
	DB	010H
	DB	0fH
	DB	02fH
	DB	0fH
	DB	02dH
	DB	025H
	DB	038H
	DB	014H
	DB	020H
	DB	027H
	DB	02cH
	DB	072H
	DB	024H
	DB	018H
	DB	01fH
	DB	025H
	DB	015H
	DB	025H
	DB	038H
	DB	036H
	DB	020H
	DB	027H
	DB	04dH
	DB	027H
	DB	03bH
	DB	036H
	DB	018H
	DB	018H
	DB	036H
	DB	03bH
	DB	020H
	DB	039H
	DB	039H
	DB	020H
	DB	024H
	DB	036H
	DB	018H
	DB	013H
	DB	018H
	DB	036H
	DB	036H
	DB	036H
	DB	013H
	DB	01fH
	DB	015H
	DB	010H
	DB	02dH
	DB	01eH
	DB	01fH
	DB	00H
	DB	00H
	DB	00H
	DB	00H
	DB	00H
	DB	00H
	DB	00H
	DB	00H
	DB	00H
	DB	00H
	DB	00H
	DB	00H
	DB	00H
	DB	02eH
	DB	07H
	DB	0eH
	DB	0eH
	DB	0eH
	DB	07H
	DB	07H
	DB	07H
	DB	07H
	DB	07H
	DB	08H
	DB	08H
	DB	08H
	DB	08H
	DB	08H
	DB	08H
	DB	08H
	DB	07H
	DB	07H
	DB	07H
	DB	07H
	DB	07H
	DB	07H
	DB	07H
	DB	07H
	DB	08H
	DB	08H
	DB	08H
	DB	08H
	DB	08H
	DB	08H
	DB	08H
	DB	062H
	DB	011H
	DB	011H
	DB	011H
	DB	011H
	DB	011H
	DB	01aH
	DB	01aH
	DB	01aH
	DB	01aH
	DB	01aH
	DB	01aH
	DB	01aH
	DB	022H
	DB	022H
	DB	022H
	DB	022H
	DB	022H
	DB	032H
	DB	032H
	DB	032H
	DB	032H
	DB	032H
	DB	032H
	DB	032H
	DB	08aH
	DB	01aH
	DB	01aH
	DB	011H
	DB	062H
	DB	062H
	DB	062H
	DB	062H
	DB	011H
	DB	011H
	DB	01aH
	DB	01aH
	DB	01aH
	DB	01aH
	DB	011H
	DB	062H
	DB	08H
	DB	08H
	DB	08H
	DB	062H
	DB	011H
	DB	011H
	DB	01aH
	DB	011H
	DB	01aH
	DB	01aH
	DB	01aH
	DB	01aH
	DB	01aH
	DB	011H
	DB	08H
	DB	0eH
	DB	016H
	DB	021H
	DB	030H
	DB	014H
	DB	03bH
	DB	03bH
	DB	018H
	DB	0cH
	DB	02dH
	DB	02fH
	DB	034H
	DB	0dH
	DB	0dH
	DB	034H
	DB	070H
	DB	0fH
	DB	0fH
	DB	0fH
	DB	0fH
	DB	02fH
	DB	0fH
	DB	02dH
	DB	015H
	DB	041H
	DB	01fH
	DB	01fH
	DB	025H
	DB	015H
	DB	01eH
	DB	07aH
	DB	02fH
	DB	02fH
	DB	02fH
	DB	0fH
	DB	0fH
	DB	01eH
	DB	02dH
	DB	015H
	DB	0cH
	DB	01fH
	DB	01fH
	DB	025H
	DB	010H
	DB	0fH
	DB	0dH
	DB	03dH
	DB	03dH
	DB	046H
	DB	034H
	DB	01eH
	DB	025H
	DB	01fH
	DB	041H
	DB	015H
	DB	02dH
	DB	07aH
	DB	034H
	DB	046H
	DB	046H
	DB	02fH
	DB	010H
	DB	01fH
	DB	038H
	DB	01fH
	DB	01fH
	DB	0cH
	DB	025H
	DB	0cH
	DB	01fH
	DB	013H
	DB	036H
	DB	036H
	DB	036H
	DB	036H
	DB	018H
	DB	03bH
	DB	00H
	DB	00H
	DB	00H
	DB	00H
	DB	00H
	DB	00H
	DB	00H
	DB	00H
	DB	00H
	DB	00H
	DB	00H
	DB	00H
	DB	00H
	DB	080H
	DB	0eH
	DB	01dH
	DB	01dH
	DB	0eH
	DB	0eH
	DB	07H
	DB	07H
	DB	07H
	DB	07H
	DB	07H
	DB	07H
	DB	07H
	DB	07H
	DB	07H
	DB	07H
	DB	07H
	DB	07H
	DB	07H
	DB	07H
	DB	07H
	DB	07H
	DB	07H
	DB	07H
	DB	07H
	DB	07H
	DB	08H
	DB	08H
	DB	062H
	DB	062H
	DB	062H
	DB	011H
	DB	011H
	DB	011H
	DB	011H
	DB	012H
	DB	012H
	DB	011H
	DB	011H
	DB	01aH
	DB	022H
	DB	022H
	DB	032H
	DB	032H
	DB	032H
	DB	032H
	DB	032H
	DB	032H
	DB	032H
	DB	032H
	DB	032H
	DB	032H
	DB	08aH
	DB	01aH
	DB	08aH
	DB	01aH
	DB	011H
	DB	011H
	DB	062H
	DB	062H
	DB	062H
	DB	08H
	DB	08H
	DB	08H
	DB	08H
	DB	08H
	DB	08H
	DB	08H
	DB	062H
	DB	062H
	DB	011H
	DB	011H
	DB	01aH
	DB	01aH
	DB	011H
	DB	062H
	DB	08H
	DB	07H
	DB	07H
	DB	08H
	DB	011H
	DB	01aH
	DB	01aH
	DB	01aH
	DB	011H
	DB	012H
	DB	0eH
	DB	016H
	DB	021H
	DB	030H
	DB	05cH
	DB	017H
	DB	04dH
	DB	03H
	DB	03H
	DB	03H
	DB	03H
	DB	02cH
	DB	0b3H
	DB	03bH
	DB	013H
	DB	025H
	DB	02dH
	DB	0fH
	DB	034H
	DB	0dH
	DB	034H
	DB	034H
	DB	02fH
	DB	0e2H
	DB	015H
	DB	0cH
	DB	038H
	DB	036H
	DB	03bH
	DB	039H
	DB	027H
	DB	020H
	DB	024H
	DB	018H
	DB	01fH
	DB	025H
	DB	010H
	DB	02dH
	DB	01eH
	DB	01eH
	DB	01eH
	DB	010H
	DB	025H
	DB	0cH
	DB	038H
	DB	013H
	DB	018H
	DB	013H
	DB	01fH
	DB	015H
	DB	01eH
	DB	034H
	DB	046H
	DB	046H
	DB	046H
	DB	034H
	DB	07aH
	DB	02dH
	DB	010H
	DB	010H
	DB	02dH
	DB	02fH
	DB	046H
	DB	0bH
	DB	03aH
	DB	03aH
	DB	04bH
	DB	0bH
	DB	046H
	DB	0dH
	DB	046H
	DB	046H
	DB	03dH
	DB	0bH
	DB	0bH
	DB	0bH
	DB	03dH
	DB	0bH
	DB	010H
	DB	00H
	DB	00H
	DB	00H
	DB	00H
	DB	00H
	DB	00H
	DB	00H
	DB	00H
	DB	00H
	DB	00H
	DB	00H
	DB	00H
	DB	00H
	DB	080H
	DB	01dH
	DB	01dH
	DB	01dH
	DB	0eH
	DB	0eH
	DB	0eH
	DB	07H
	DB	07H
	DB	07H
	DB	07H
	DB	07H
	DB	08H
	DB	07H
	DB	07H
	DB	07H
	DB	07H
	DB	08H
	DB	07H
	DB	07H
	DB	07H
	DB	07H
	DB	07H
	DB	07H
	DB	07H
	DB	08H
	DB	08H
	DB	062H
	DB	062H
	DB	062H
	DB	062H
	DB	011H
	DB	011H
	DB	011H
	DB	011H
	DB	011H
	DB	011H
	DB	011H
	DB	011H
	DB	01aH
	DB	01aH
	DB	022H
	DB	022H
	DB	032H
	DB	047H
	DB	047H
	DB	047H
	DB	047H
	DB	032H
	DB	032H
	DB	08aH
	DB	01aH
	DB	01aH
	DB	01aH
	DB	01aH
	DB	011H
	DB	011H
	DB	011H
	DB	062H
	DB	062H
	DB	08H
	DB	08H
	DB	062H
	DB	062H
	DB	062H
	DB	062H
	DB	062H
	DB	062H
	DB	062H
	DB	062H
	DB	062H
	DB	062H
	DB	011H
	DB	011H
	DB	01aH
	DB	01aH
	DB	08aH
	DB	08aH
	DB	01aH
	DB	01aH
	DB	011H
	DB	062H
	DB	07H
	DB	01dH
	DB	016H
	DB	021H
	DB	013H
	DB	014H
	DB	020H
	DB	027H
	DB	04dH
	DB	03H
	DB	03H
	DB	04dH
	DB	04dH
	DB	04dH
	DB	04dH
	DB	03H
	DB	03H
	DB	03H
	DB	03H
	DB	03H
	DB	04dH
	DB	0b3H
	DB	03bH
	DB	018H
	DB	025H
	DB	02dH
	DB	0e2H
	DB	010H
	DB	015H
	DB	01fH
	DB	018H
	DB	03bH
	DB	039H
	DB	02cH
	DB	04dH
	DB	04dH
	DB	04dH
	DB	04dH
	DB	04dH
	DB	02cH
	DB	072H
	DB	06aH
	DB	02bH
	DB	038H
	DB	025H
	DB	015H
	DB	025H
	DB	01fH
	DB	013H
	DB	036H
	DB	06aH
	DB	072H
	DB	04dH
	DB	04dH
	DB	027H
	DB	020H
	DB	024H
	DB	018H
	DB	0cH
	DB	02dH
	DB	01eH
	DB	02dH
	DB	015H
	DB	041H
	DB	038H
	DB	036H
	DB	03bH
	DB	03bH
	DB	024H
	DB	04aH
	DB	025H
	DB	01eH
	DB	02fH
	DB	02fH
	DB	07aH
	DB	02dH
	DB	010H
	DB	015H
	DB	025H
	DB	015H
	DB	010H
	DB	02fH
	DB	025H
	DB	00H
	DB	00H
	DB	00H
	DB	00H
	DB	00H
	DB	00H
	DB	00H
	DB	00H
	DB	00H
	DB	00H
	DB	00H
	DB	00H
	DB	00H
	DB	080H
	DB	01dH
	DB	01dH
	DB	01dH
	DB	0eH
	DB	0eH
	DB	0eH
	DB	0eH
	DB	0eH
	DB	0eH
	DB	0eH
	DB	0eH
	DB	0eH
	DB	0eH
	DB	0eH
	DB	0eH
	DB	0eH
	DB	0eH
	DB	0eH
	DB	07H
	DB	07H
	DB	07H
	DB	07H
	DB	08H
	DB	08H
	DB	08H
	DB	062H
	DB	062H
	DB	011H
	DB	01aH
	DB	01aH
	DB	01aH
	DB	01aH
	DB	01aH
	DB	01aH
	DB	022H
	DB	022H
	DB	022H
	DB	022H
	DB	022H
	DB	08aH
	DB	022H
	DB	022H
	DB	022H
	DB	022H
	DB	022H
	DB	08aH
	DB	08aH
	DB	08aH
	DB	01aH
	DB	01aH
	DB	01aH
	DB	011H
	DB	011H
	DB	062H
	DB	08H
	DB	08H
	DB	08H
	DB	08H
	DB	08H
	DB	08H
	DB	062H
	DB	062H
	DB	062H
	DB	011H
	DB	011H
	DB	011H
	DB	01aH
	DB	01aH
	DB	01aH
	DB	01aH
	DB	01aH
	DB	01aH
	DB	01aH
	DB	01aH
	DB	08aH
	DB	08aH
	DB	032H
	DB	08aH
	DB	01aH
	DB	01aH
	DB	01aH
	DB	022H
	DB	071H
	DB	0dH
	DB	0fH
	DB	05eH
	DB	013H
	DB	01bH
	DB	02cH
	DB	023H
	DB	023H
	DB	023H
	DB	03H
	DB	03H
	DB	04dH
	DB	04dH
	DB	04dH
	DB	04dH
	DB	04dH
	DB	04dH
	DB	04dH
	DB	03H
	DB	03H
	DB	03H
	DB	03H
	DB	03H
	DB	02cH
	DB	0b9H
	DB	036H
	DB	018H
	DB	018H
	DB	036H
	DB	03bH
	DB	027H
	DB	04dH
	DB	03H
	DB	03H
	DB	04dH
	DB	04dH
	DB	04dH
	DB	04dH
	DB	04dH
	DB	04dH
	DB	04dH
	DB	04dH
	DB	02cH
	DB	072H
	DB	06aH
	DB	024H
	DB	02bH
	DB	024H
	DB	03bH
	DB	020H
	DB	027H
	DB	04dH
	DB	03H
	DB	03H
	DB	03H
	DB	03H
	DB	04dH
	DB	027H
	DB	072H
	DB	020H
	DB	024H
	DB	036H
	DB	036H
	DB	036H
	DB	03bH
	DB	039H
	DB	02cH
	DB	03H
	DB	03H
	DB	04dH
	DB	027H
	DB	020H
	DB	03bH
	DB	0c5H
	DB	036H
	DB	036H
	DB	036H
	DB	03bH
	DB	039H
	DB	027H
	DB	02cH
	DB	00H
	DB	00H
	DB	00H
	DB	00H
	DB	00H
	DB	00H
	DB	00H
	DB	00H
	DB	00H
	DB	00H
	DB	00H
	DB	00H
	DB	00H
	DB	080H
	DB	01cH
	DB	01cH
	DB	01cH
	DB	01dH
	DB	01dH
	DB	01dH
	DB	01dH
	DB	01dH
	DB	01dH
	DB	01dH
	DB	01dH
	DB	01dH
	DB	01dH
	DB	01dH
	DB	01dH
	DB	01dH
	DB	0eH
	DB	0eH
	DB	0eH
	DB	07H
	DB	07H
	DB	08H
	DB	08H
	DB	08H
	DB	062H
	DB	062H
	DB	062H
	DB	011H
	DB	011H
	DB	01aH
	DB	01aH
	DB	01aH
	DB	01aH
	DB	022H
	DB	022H
	DB	032H
	DB	032H
	DB	032H
	DB	08aH
	DB	08aH
	DB	08aH
	DB	022H
	DB	01aH
	DB	01aH
	DB	01aH
	DB	011H
	DB	011H
	DB	062H
	DB	062H
	DB	08H
	DB	08H
	DB	07H
	DB	07H
	DB	07H
	DB	0eH
	DB	01dH
	DB	01dH
	DB	07H
	DB	07H
	DB	07H
	DB	08H
	DB	08H
	DB	062H
	DB	011H
	DB	01aH
	DB	032H
	DB	047H
	DB	047H
	DB	047H
	DB	047H
	DB	047H
	DB	047H
	DB	047H
	DB	047H
	DB	047H
	DB	047H
	DB	032H
	DB	032H
	DB	022H
	DB	032H
	DB	08fH
	DB	05bH
	DB	054H
	DB	063H
	DB	04H
	DB	07bH
	DB	049H
	DB	04H
	DB	03aH
	DB	034H
	DB	0cH
	DB	014H
	DB	0b3H
	DB	03H
	DB	023H
	DB	023H
	DB	023H
	DB	03H
	DB	04dH
	DB	04dH
	DB	04dH
	DB	04dH
	DB	04dH
	DB	04dH
	DB	03H
	DB	04dH
	DB	0b3H
	DB	03bH
	DB	018H
	DB	0cH
	DB	010H
	DB	079H
	DB	01eH
	DB	079H
	DB	025H
	DB	018H
	DB	03bH
	DB	017H
	DB	04dH
	DB	03H
	DB	03H
	DB	03H
	DB	04dH
	DB	04dH
	DB	04dH
	DB	04dH
	DB	04dH
	DB	027H
	DB	06aH
	DB	02bH
	DB	018H
	DB	038H
	DB	038H
	DB	038H
	DB	018H
	DB	024H
	DB	020H
	DB	072H
	DB	027H
	DB	04dH
	DB	03H
	DB	03H
	DB	03H
	DB	02cH
	DB	0b3H
	DB	03bH
	DB	024H
	DB	036H
	DB	036H
	DB	036H
	DB	024H
	DB	06aH
	DB	072H
	DB	02cH
	DB	04dH
	DB	03H
	DB	03H
	DB	02cH
	DB	039H
	DB	03bH
	DB	024H
	DB	024H
	DB	024H
	DB	039H
	DB	00H
	DB	00H
	DB	00H
	DB	00H
	DB	00H
	DB	00H
	DB	00H
	DB	00H
	DB	00H
	DB	00H
	DB	00H
	DB	00H
	DB	00H
	DB	080H
	DB	01cH
	DB	016H
	DB	016H
	DB	01cH
	DB	01cH
	DB	01cH
	DB	01cH
	DB	01cH
	DB	01dH
	DB	01dH
	DB	01dH
	DB	01dH
	DB	01dH
	DB	0eH
	DB	0eH
	DB	07H
	DB	07H
	DB	07H
	DB	07H
	DB	07H
	DB	07H
	DB	08H
	DB	08H
	DB	062H
	DB	062H
	DB	062H
	DB	062H
	DB	062H
	DB	011H
	DB	011H
	DB	011H
	DB	011H
	DB	011H
	DB	011H
	DB	011H
	DB	01aH
	DB	01aH
	DB	011H
	DB	011H
	DB	011H
	DB	011H
	DB	011H
	DB	062H
	DB	062H
	DB	08H
	DB	08H
	DB	08H
	DB	07H
	DB	07H
	DB	0eH
	DB	01dH
	DB	01dH
	DB	0eH
	DB	0eH
	DB	07H
	DB	07H
	DB	07H
	DB	08H
	DB	08H
	DB	08H
	DB	08H
	DB	08H
	DB	08H
	DB	062H
	DB	011H
	DB	01aH
	DB	08aH
	DB	032H
	DB	047H
	DB	047H
	DB	047H
	DB	047H
	DB	047H
	DB	047H
	DB	047H
	DB	032H
	DB	08fH
	DB	08fH
	DB	054H
	DB	054H
	DB	05H
	DB	063H
	DB	063H
	DB	04cH
	DB	04cH
	DB	04cH
	DB	068H
	DB	04H
	DB	044H
	DB	0f3H
	DB	07bH
	DB	04H
	DB	05H
	DB	067H
	DB	010H
	DB	018H
	DB	020H
	DB	02cH
	DB	03H
	DB	023H
	DB	023H
	DB	03H
	DB	03H
	DB	04dH
	DB	03H
	DB	027H
	DB	024H
	DB	018H
	DB	0cH
	DB	010H
	DB	0fH
	DB	0dH
	DB	0e8H
	DB	0e8H
	DB	0bH
	DB	03dH
	DB	046H
	DB	034H
	DB	02dH
	DB	025H
	DB	018H
	DB	03bH
	DB	039H
	DB	02cH
	DB	03H
	DB	03H
	DB	03H
	DB	02cH
	DB	039H
	DB	024H
	DB	018H
	DB	038H
	DB	0cH
	DB	02dH
	DB	07aH
	DB	02fH
	DB	01eH
	DB	02dH
	DB	025H
	DB	038H
	DB	036H
	DB	03bH
	DB	0b3H
	DB	02cH
	DB	02cH
	DB	027H
	DB	020H
	DB	024H
	DB	018H
	DB	01fH
	DB	025H
	DB	015H
	DB	015H
	DB	025H
	DB	038H
	DB	018H
	DB	03bH
	DB	039H
	DB	027H
	DB	072H
	DB	020H
	DB	024H
	DB	018H
	DB	024H
	DB	00H
	DB	00H
	DB	00H
	DB	00H
	DB	00H
	DB	00H
	DB	00H
	DB	00H
	DB	00H
	DB	00H
	DB	00H
	DB	00H
	DB	00H
	DB	080H
	DB	043H
	DB	048H
	DB	048H
	DB	043H
	DB	043H
	DB	043H
	DB	016H
	DB	01cH
	DB	01cH
	DB	01cH
	DB	01cH
	DB	01cH
	DB	01dH
	DB	01dH
	DB	0eH
	DB	0eH
	DB	0eH
	DB	07H
	DB	07H
	DB	07H
	DB	07H
	DB	08H
	DB	08H
	DB	08H
	DB	08H
	DB	062H
	DB	011H
	DB	011H
	DB	011H
	DB	011H
	DB	011H
	DB	011H
	DB	011H
	DB	011H
	DB	012H
	DB	012H
	DB	012H
	DB	08H
	DB	08H
	DB	062H
	DB	062H
	DB	062H
	DB	062H
	DB	08H
	DB	08H
	DB	08H
	DB	07H
	DB	07H
	DB	0eH
	DB	01dH
	DB	01cH
	DB	01dH
	DB	01dH
	DB	0eH
	DB	08H
	DB	062H
	DB	011H
	DB	01aH
	DB	01aH
	DB	022H
	DB	022H
	DB	01aH
	DB	01aH
	DB	01aH
	DB	01aH
	DB	01aH
	DB	01aH
	DB	01aH
	DB	08aH
	DB	032H
	DB	032H
	DB	047H
	DB	047H
	DB	047H
	DB	047H
	DB	054H
	DB	0f0H
	DB	0f0H
	DB	091H
	DB	091H
	DB	04H
	DB	04H
	DB	044H
	DB	044H
	DB	07eH
	DB	04H
	DB	04cH
	DB	04cH
	DB	063H
	DB	05H
	DB	091H
	DB	0efH
	DB	04H
	DB	044H
	DB	0f3H
	DB	07bH
	DB	04cH
	DB	0bH
	DB	0fH
	DB	01fH
	DB	014H
	DB	017H
	DB	03H
	DB	023H
	DB	03H
	DB	020H
	DB	018H
	DB	0cH
	DB	010H
	DB	070H
	DB	0dH
	DB	03dH
	DB	0bH
	DB	03dH
	DB	03dH
	DB	0e8H
	DB	0e8H
	DB	0e8H
	DB	03dH
	DB	0bH
	DB	0e8H
	DB	046H
	DB	034H
	DB	01eH
	DB	025H
	DB	018H
	DB	03bH
	DB	039H
	DB	020H
	DB	03bH
	DB	036H
	DB	013H
	DB	038H
	DB	0cH
	DB	015H
	DB	02dH
	DB	02dH
	DB	01eH
	DB	0fH
	DB	02fH
	DB	02fH
	DB	07aH
	DB	02dH
	DB	015H
	DB	01fH
	DB	018H
	DB	036H
	DB	036H
	DB	036H
	DB	018H
	DB	038H
	DB	01fH
	DB	025H
	DB	010H
	DB	02dH
	DB	02dH
	DB	010H
	DB	010H
	DB	025H
	DB	01fH
	DB	038H
	DB	018H
	DB	018H
	DB	03bH
	DB	00H
	DB	00H
	DB	00H
	DB	00H
	DB	00H
	DB	00H
	DB	00H
	DB	00H
	DB	00H
	DB	00H
	DB	00H
	DB	00H
	DB	00H
	DB	080H
	DB	043H
	DB	048H
	DB	043H
	DB	043H
	DB	043H
	DB	043H
	DB	016H
	DB	01cH
	DB	01cH
	DB	01cH
	DB	01dH
	DB	01dH
	DB	01dH
	DB	01dH
	DB	01dH
	DB	01dH
	DB	01dH
	DB	01dH
	DB	0eH
	DB	0eH
	DB	07H
	DB	07H
	DB	07H
	DB	08H
	DB	08H
	DB	062H
	DB	062H
	DB	062H
	DB	062H
	DB	062H
	DB	062H
	DB	08H
	DB	08H
	DB	08H
	DB	08H
	DB	08H
	DB	08H
	DB	08H
	DB	08H
	DB	08H
	DB	062H
	DB	062H
	DB	062H
	DB	08H
	DB	08H
	DB	07H
	DB	07H
	DB	0eH
	DB	01dH
	DB	01dH
	DB	01dH
	DB	01dH
	DB	01dH
	DB	01dH
	DB	0eH
	DB	07H
	DB	07H
	DB	08H
	DB	011H
	DB	01aH
	DB	022H
	DB	032H
	DB	047H
	DB	047H
	DB	047H
	DB	032H
	DB	032H
	DB	032H
	DB	047H
	DB	047H
	DB	047H
	DB	047H
	DB	090H
	DB	0f0H
	DB	068H
	DB	04H
	DB	04H
	DB	04H
	DB	044H
	DB	049H
	DB	02H
	DB	049H
	DB	049H
	DB	049H
	DB	044H
	DB	044H
	DB	07eH
	DB	07eH
	DB	044H
	DB	044H
	DB	04H
	DB	04H
	DB	04cH
	DB	0efH
	DB	063H
	DB	0efH
	DB	04cH
	DB	04H
	DB	049H
	DB	049H
	DB	044H
	DB	063H
	DB	03dH
	DB	0e2H
	DB	0cH
	DB	0cH
	DB	015H
	DB	079H
	DB	070H
	DB	0e8H
	DB	05bH
	DB	05H
	DB	03aH
	DB	04bH
	DB	0bH
	DB	0bH
	DB	03dH
	DB	03dH
	DB	0e8H
	DB	067H
	DB	067H
	DB	067H
	DB	046H
	DB	0e8H
	DB	0e8H
	DB	0e8H
	DB	0dH
	DB	034H
	DB	01eH
	DB	015H
	DB	025H
	DB	015H
	DB	015H
	DB	02dH
	DB	07aH
	DB	02fH
	DB	0fH
	DB	0e2H
	DB	079H
	DB	010H
	DB	010H
	DB	02dH
	DB	02dH
	DB	01eH
	DB	01eH
	DB	01eH
	DB	01eH
	DB	02dH
	DB	025H
	DB	0cH
	DB	01fH
	DB	01fH
	DB	01fH
	DB	025H
	DB	015H
	DB	010H
	DB	02dH
	DB	010H
	DB	010H
	DB	010H
	DB	010H
	DB	010H
	DB	010H
	DB	036H
	DB	00H
	DB	00H
	DB	00H
	DB	00H
	DB	00H
	DB	00H
	DB	00H
	DB	00H
	DB	00H
	DB	00H
	DB	00H
	DB	00H
	DB	00H
	DB	080H
	DB	016H
	DB	043H
	DB	043H
	DB	016H
	DB	016H
	DB	01cH
	DB	01cH
	DB	01cH
	DB	01cH
	DB	01cH
	DB	01dH
	DB	01dH
	DB	01dH
	DB	01dH
	DB	01dH
	DB	01dH
	DB	0eH
	DB	0eH
	DB	07H
	DB	07H
	DB	07H
	DB	08H
	DB	08H
	DB	062H
	DB	062H
	DB	062H
	DB	062H
	DB	08H
	DB	08H
	DB	08H
	DB	08H
	DB	07H
	DB	07H
	DB	07H
	DB	07H
	DB	07H
	DB	08H
	DB	08H
	DB	08H
	DB	08H
	DB	08H
	DB	08H
	DB	07H
	DB	07H
	DB	07H
	DB	07H
	DB	0eH
	DB	07H
	DB	07H
	DB	07H
	DB	07H
	DB	07H
	DB	07H
	DB	07H
	DB	07H
	DB	08H
	DB	08H
	DB	08H
	DB	08H
	DB	011H
	DB	01aH
	DB	032H
	DB	047H
	DB	090H
	DB	090H
	DB	090H
	DB	090H
	DB	090H
	DB	047H
	DB	032H
	DB	01aH
	DB	011H
	DB	012H
	DB	071H
	DB	0e8H
	DB	054H
	DB	04H
	DB	02H
	DB	0faH
	DB	07cH
	DB	07cH
	DB	02H
	DB	02H
	DB	02H
	DB	049H
	DB	049H
	DB	049H
	DB	07bH
	DB	049H
	DB	044H
	DB	049H
	DB	044H
	DB	044H
	DB	044H
	DB	04H
	DB	04cH
	DB	063H
	DB	05H
	DB	03aH
	DB	03aH
	DB	05H
	DB	063H
	DB	04H
	DB	04H
	DB	063H
	DB	04bH
	DB	067H
	DB	034H
	DB	034H
	DB	0dH
	DB	0bH
	DB	05H
	DB	063H
	DB	05H
	DB	05H
	DB	03aH
	DB	05bH
	DB	05bH
	DB	0bH
	DB	0bH
	DB	0e8H
	DB	0e8H
	DB	067H
	DB	046H
	DB	0dH
	DB	0dH
	DB	0dH
	DB	046H
	DB	034H
	DB	0fH
	DB	010H
	DB	025H
	DB	01fH
	DB	038H
	DB	04aH
	DB	038H
	DB	025H
	DB	01eH
	DB	02fH
	DB	02fH
	DB	07aH
	DB	01eH
	DB	02dH
	DB	010H
	DB	015H
	DB	015H
	DB	015H
	DB	015H
	DB	025H
	DB	01fH
	DB	038H
	DB	018H
	DB	036H
	DB	024H
	DB	024H
	DB	024H
	DB	036H
	DB	038H
	DB	025H
	DB	015H
	DB	010H
	DB	02dH
	DB	01eH
	DB	013H
	DB	00H
	DB	00H
	DB	00H
	DB	00H
	DB	00H
	DB	00H
	DB	00H
	DB	00H
	DB	00H
	DB	00H
	DB	00H
	DB	00H
	DB	00H
	DB	080H
	DB	043H
	DB	043H
	DB	043H
	DB	016H
	DB	016H
	DB	016H
	DB	016H
	DB	01cH
	DB	01cH
	DB	01dH
	DB	01dH
	DB	01dH
	DB	01dH
	DB	01dH
	DB	0eH
	DB	0eH
	DB	07H
	DB	07H
	DB	08H
	DB	08H
	DB	08H
	DB	08H
	DB	08H
	DB	08H
	DB	08H
	DB	08H
	DB	07H
	DB	07H
	DB	07H
	DB	07H
	DB	07H
	DB	0eH
	DB	07H
	DB	07H
	DB	07H
	DB	08H
	DB	08H
	DB	08H
	DB	08H
	DB	08H
	DB	08H
	DB	08H
	DB	08H
	DB	08H
	DB	08H
	DB	08H
	DB	08H
	DB	08H
	DB	08H
	DB	07H
	DB	07H
	DB	07H
	DB	07H
	DB	07H
	DB	08H
	DB	062H
	DB	011H
	DB	01aH
	DB	01aH
	DB	01aH
	DB	01aH
	DB	01aH
	DB	032H
	DB	047H
	DB	047H
	DB	047H
	DB	047H
	DB	032H
	DB	01aH
	DB	08H
	DB	01dH
	DB	076H
	DB	060H
	DB	045H
	DB	042H
	DB	017H
	DB	014H
	DB	015H
	DB	046H
	DB	059H
	DB	0f3H
	DB	085H
	DB	07cH
	DB	07cH
	DB	02H
	DB	049H
	DB	0f3H
	DB	0f3H
	DB	0f3H
	DB	0f3H
	DB	049H
	DB	049H
	DB	049H
	DB	044H
	DB	044H
	DB	04H
	DB	04H
	DB	04H
	DB	04cH
	DB	063H
	DB	05H
	DB	05H
	DB	0bH
	DB	03dH
	DB	034H
	DB	0fH
	DB	010H
	DB	01fH
	DB	024H
	DB	017H
	DB	020H
	DB	036H
	DB	05eH
	DB	02fH
	DB	0bH
	DB	03aH
	DB	05H
	DB	063H
	DB	05H
	DB	05H
	DB	05bH
	DB	0bH
	DB	0bH
	DB	0bH
	DB	0bH
	DB	03dH
	DB	03dH
	DB	03dH
	DB	046H
	DB	02fH
	DB	02dH
	DB	015H
	DB	01fH
	DB	036H
	DB	020H
	DB	02cH
	DB	04dH
	DB	027H
	DB	039H
	DB	024H
	DB	018H
	DB	01fH
	DB	015H
	DB	02dH
	DB	01eH
	DB	01eH
	DB	01eH
	DB	02dH
	DB	010H
	DB	025H
	DB	038H
	DB	018H
	DB	024H
	DB	03bH
	DB	020H
	DB	027H
	DB	0aH
	DB	03H
	DB	02cH
	DB	039H
	DB	01bH
	DB	014H
	DB	038H
	DB	036H
	DB	00H
	DB	00H
	DB	00H
	DB	00H
	DB	00H
	DB	00H
	DB	00H
	DB	00H
	DB	00H
	DB	00H
	DB	00H
	DB	00H
	DB	00H
	DB	080H
	DB	076H
	DB	048H
	DB	076H
	DB	043H
	DB	043H
	DB	016H
	DB	01cH
	DB	01cH
	DB	01cH
	DB	01dH
	DB	07H
	DB	07H
	DB	07H
	DB	08H
	DB	08H
	DB	08H
	DB	062H
	DB	062H
	DB	062H
	DB	08H
	DB	08H
	DB	08H
	DB	07H
	DB	08H
	DB	08H
	DB	07H
	DB	07H
	DB	07H
	DB	07H
	DB	07H
	DB	07H
	DB	08H
	DB	08H
	DB	08H
	DB	08H
	DB	08H
	DB	08H
	DB	08H
	DB	08H
	DB	08H
	DB	08H
	DB	062H
	DB	062H
	DB	062H
	DB	062H
	DB	062H
	DB	011H
	DB	011H
	DB	011H
	DB	011H
	DB	012H
	DB	012H
	DB	012H
	DB	012H
	DB	011H
	DB	01aH
	DB	01aH
	DB	01aH
	DB	01aH
	DB	01aH
	DB	08aH
	DB	08aH
	DB	08aH
	DB	08aH
	DB	01aH
	DB	011H
	DB	08H
	DB	0eH
	DB	016H
	DB	021H
	DB	014H
	DB	045H
	DB	0aH
	DB	03H
	DB	023H
	DB	023H
	DB	023H
	DB	023H
	DB	03H
	DB	017H
	DB	036H
	DB	010H
	DB	067H
	DB	063H
	DB	02H
	DB	07cH
	DB	07cH
	DB	02H
	DB	02H
	DB	02H
	DB	049H
	DB	049H
	DB	049H
	DB	049H
	DB	044H
	DB	044H
	DB	04H
	DB	04H
	DB	04H
	DB	04H
	DB	04H
	DB	04H
	DB	05H
	DB	0bH
	DB	0dH
	DB	0e2H
	DB	0cH
	DB	014H
	DB	027H
	DB	03H
	DB	023H
	DB	023H
	DB	023H
	DB	03H
	DB	027H
	DB	01bH
	DB	018H
	DB	015H
	DB	034H
	DB	0bH
	DB	05H
	DB	05H
	DB	063H
	DB	05H
	DB	03aH
	DB	03aH
	DB	04bH
	DB	04bH
	DB	0bH
	DB	046H
	DB	02fH
	DB	010H
	DB	0cH
	DB	013H
	DB	024H
	DB	039H
	DB	02cH
	DB	04dH
	DB	04dH
	DB	04dH
	DB	04dH
	DB	04dH
	DB	02cH
	DB	027H
	DB	020H
	DB	036H
	DB	038H
	DB	025H
	DB	02dH
	DB	01eH
	DB	02dH
	DB	015H
	DB	01fH
	DB	018H
	DB	024H
	DB	020H
	DB	039H
	DB	02cH
	DB	03H
	DB	03H
	DB	03H
	DB	03H
	DB	03H
	DB	03H
	DB	00H
	DB	00H
	DB	00H
	DB	00H
	DB	00H
	DB	00H
	DB	00H
	DB	00H
	DB	00H
	DB	00H
	DB	00H
	DB	00H
	DB	00H
	DB	0aH
	DB	0a4H
	DB	021H
	DB	021H
	DB	076H
	DB	016H
	DB	016H
	DB	016H
	DB	016H
	DB	043H
	DB	076H
	DB	016H
	DB	016H
	DB	01cH
	DB	01cH
	DB	016H
	DB	016H
	DB	01cH
	DB	06eH
	DB	01dH
	DB	01dH
	DB	01dH
	DB	01dH
	DB	01dH
	DB	01dH
	DB	01dH
	DB	01dH
	DB	01dH
	DB	01dH
	DB	01dH
	DB	01dH
	DB	01dH
	DB	01dH
	DB	01cH
	DB	01cH
	DB	01cH
	DB	01dH
	DB	01dH
	DB	01dH
	DB	0eH
	DB	0eH
	DB	0eH
	DB	0eH
	DB	0eH
	DB	07H
	DB	07H
	DB	08H
	DB	08H
	DB	08H
	DB	08H
	DB	08H
	DB	012H
	DB	011H
	DB	01aH
	DB	022H
	DB	022H
	DB	022H
	DB	022H
	DB	022H
	DB	022H
	DB	022H
	DB	022H
	DB	08aH
	DB	011H
	DB	08H
	DB	07H
	DB	01cH
	DB	048H
	DB	030H
	DB	0c2H
	DB	042H
	DB	03H
	DB	04fH
	DB	03H
	DB	03H
	DB	03H
	DB	03H
	DB	03H
	DB	03H
	DB	03H
	DB	023H
	DB	023H
	DB	023H
	DB	03H
	DB	017H
	DB	014H
	DB	015H
	DB	046H
	DB	0efH
	DB	02H
	DB	07cH
	DB	07cH
	DB	07cH
	DB	02H
	DB	0f3H
	DB	049H
	DB	044H
	DB	044H
	DB	044H
	DB	04H
	DB	04H
	DB	04H
	DB	0efH
	DB	03aH
	DB	03dH
	DB	034H
	DB	02dH
	DB	01fH
	DB	020H
	DB	04dH
	DB	03H
	DB	03H
	DB	03H
	DB	03H
	DB	03H
	DB	023H
	DB	023H
	DB	023H
	DB	023H
	DB	03H
	DB	027H
	DB	01bH
	DB	013H
	DB	02dH
	DB	0dH
	DB	04bH
	DB	05H
	DB	059H
	DB	059H
	DB	05H
	DB	04bH
	DB	0dH
	DB	0fH
	DB	015H
	DB	038H
	DB	036H
	DB	020H
	DB	02cH
	DB	04dH
	DB	04dH
	DB	04dH
	DB	04dH
	DB	04dH
	DB	04dH
	DB	04dH
	DB	04dH
	DB	03H
	DB	04dH
	DB	02cH
	DB	072H
	DB	03bH
	DB	036H
	DB	01fH
	DB	01fH
	DB	01fH
	DB	038H
	DB	036H
	DB	03bH
	DB	020H
	DB	027H
	DB	04dH
	DB	04dH
	DB	04dH
	DB	04dH
	DB	03H
	DB	00H
	DB	00H
	DB	00H
	DB	00H
	DB	00H
	DB	00H
	DB	00H
	DB	00H
	DB	00H
	DB	00H
	DB	00H
	DB	00H
	DB	00H
	DB	0aH
	DB	065H
	DB	065H
	DB	021H
	DB	076H
	DB	076H
	DB	016H
	DB	0a8H
	DB	0a8H
	DB	0a8H
	DB	01cH
	DB	01cH
	DB	01cH
	DB	016H
	DB	016H
	DB	048H
	DB	021H
	DB	078H
	DB	099H
	DB	078H
	DB	077H
	DB	077H
	DB	099H
	DB	021H
	DB	021H
	DB	021H
	DB	048H
	DB	076H
	DB	016H
	DB	01cH
	DB	01dH
	DB	01dH
	DB	0eH
	DB	0eH
	DB	01dH
	DB	0eH
	DB	0eH
	DB	07H
	DB	0eH
	DB	0eH
	DB	01dH
	DB	01dH
	DB	01dH
	DB	01dH
	DB	0eH
	DB	07H
	DB	07H
	DB	07H
	DB	08H
	DB	062H
	DB	011H
	DB	011H
	DB	01aH
	DB	01aH
	DB	022H
	DB	022H
	DB	022H
	DB	032H
	DB	032H
	DB	032H
	DB	032H
	DB	011H
	DB	08H
	DB	0eH
	DB	016H
	DB	021H
	DB	030H
	DB	03cH
	DB	042H
	DB	04fH
	DB	04fH
	DB	03H
	DB	03H
	DB	03H
	DB	03H
	DB	03H
	DB	03H
	DB	03H
	DB	03H
	DB	03H
	DB	03H
	DB	03H
	DB	03H
	DB	023H
	DB	023H
	DB	00H
	DB	00H
	DB	03H
	DB	017H
	DB	036H
	DB	015H
	DB	067H
	DB	04cH
	DB	02H
	DB	0faH
	DB	0faH
	DB	02H
	DB	02H
	DB	0f3H
	DB	049H
	DB	049H
	DB	04H
	DB	063H
	DB	04bH
	DB	0dH
	DB	01eH
	DB	0cH
	DB	024H
	DB	02cH
	DB	03H
	DB	03H
	DB	03H
	DB	03H
	DB	03H
	DB	03H
	DB	03H
	DB	03H
	DB	03H
	DB	03H
	DB	03H
	DB	023H
	DB	023H
	DB	023H
	DB	023H
	DB	03H
	DB	017H
	DB	014H
	DB	0cH
	DB	0fH
	DB	03dH
	DB	04bH
	DB	0bH
	DB	034H
	DB	01eH
	DB	025H
	DB	013H
	DB	03bH
	DB	027H
	DB	04dH
	DB	04dH
	DB	04dH
	DB	04dH
	DB	04dH
	DB	04dH
	DB	04dH
	DB	04dH
	DB	04dH
	DB	04dH
	DB	04dH
	DB	04dH
	DB	03H
	DB	03H
	DB	04dH
	DB	027H
	DB	020H
	DB	024H
	DB	024H
	DB	024H
	DB	03bH
	DB	039H
	DB	02cH
	DB	03H
	DB	03H
	DB	03H
	DB	03H
	DB	00H
	DB	00H
	DB	00H
	DB	00H
	DB	00H
	DB	00H
	DB	00H
	DB	00H
	DB	00H
	DB	00H
	DB	00H
	DB	00H
	DB	00H
	DB	0aH
	DB	065H
	DB	021H
	DB	021H
	DB	076H
	DB	076H
	DB	016H
	DB	016H
	DB	01cH
	DB	01cH
	DB	01dH
	DB	0eH
	DB	07H
	DB	08H
	DB	08H
	DB	08H
	DB	012H
	DB	012H
	DB	08H
	DB	07H
	DB	0eH
	DB	0eH
	DB	06eH
	DB	016H
	DB	0a4H
	DB	099H
	DB	077H
	DB	030H
	DB	0caH
	DB	0caH
	DB	0caH
	DB	035H
	DB	035H
	DB	035H
	DB	0caH
	DB	030H
	DB	099H
	DB	021H
	DB	048H
	DB	016H
	DB	01dH
	DB	07H
	DB	07H
	DB	07H
	DB	08H
	DB	08H
	DB	011H
	DB	011H
	DB	01aH
	DB	01aH
	DB	022H
	DB	022H
	DB	032H
	DB	022H
	DB	022H
	DB	022H
	DB	032H
	DB	032H
	DB	01aH
	DB	011H
	DB	08H
	DB	01dH
	DB	016H
	DB	048H
	DB	060H
	DB	020H
	DB	042H
	DB	03H
	DB	03H
	DB	03H
	DB	03H
	DB	03H
	DB	03H
	DB	03H
	DB	03H
	DB	03H
	DB	03H
	DB	03H
	DB	03H
	DB	03H
	DB	03H
	DB	03H
	DB	03H
	DB	03H
	DB	03H
	DB	03H
	DB	03H
	DB	023H
	DB	023H
	DB	00H
	DB	00H
	DB	03H
	DB	017H
	DB	014H
	DB	015H
	DB	046H
	DB	063H
	DB	049H
	DB	02H
	DB	07cH
	DB	02H
	DB	04H
	DB	05H
	DB	0bH
	DB	034H
	DB	02dH
	DB	013H
	DB	0b3H
	DB	03H
	DB	03H
	DB	03H
	DB	03H
	DB	03H
	DB	03H
	DB	03H
	DB	03H
	DB	03H
	DB	03H
	DB	03H
	DB	03H
	DB	03H
	DB	03H
	DB	03H
	DB	03H
	DB	03H
	DB	023H
	DB	023H
	DB	023H
	DB	03H
	DB	02cH
	DB	020H
	DB	018H
	DB	0cH
	DB	025H
	DB	0cH
	DB	013H
	DB	024H
	DB	027H
	DB	03H
	DB	03H
	DB	03H
	DB	04dH
	DB	04dH
	DB	04dH
	DB	04dH
	DB	04dH
	DB	04dH
	DB	04dH
	DB	04dH
	DB	04dH
	DB	04dH
	DB	04dH
	DB	04dH
	DB	04dH
	DB	027H
	DB	06aH
	DB	036H
	DB	018H
	DB	038H
	DB	01fH
	DB	038H
	DB	018H
	DB	024H
	DB	020H
	DB	0aH
	DB	00H
	DB	00H
	DB	00H
	DB	00H
	DB	00H
	DB	00H
	DB	00H
	DB	00H
	DB	00H
	DB	00H
	DB	00H
	DB	00H
	DB	00H
	DB	0aH
	DB	0a4H
	DB	0a4H
	DB	048H
	DB	043H
	DB	043H
	DB	016H
	DB	016H
	DB	016H
	DB	01cH
	DB	01cH
	DB	01dH
	DB	01dH
	DB	01dH
	DB	0eH
	DB	07H
	DB	07H
	DB	08H
	DB	08H
	DB	08H
	DB	08H
	DB	08H
	DB	062H
	DB	062H
	DB	011H
	DB	011H
	DB	011H
	DB	01aH
	DB	011H
	DB	012H
	DB	056H
	DB	0eH
	DB	06eH
	DB	076H
	DB	013H
	DB	014H
	DB	05cH
	DB	03cH
	DB	017H
	DB	017H
	DB	095H
	DB	03cH
	DB	035H
	DB	082H
	DB	099H
	DB	016H
	DB	0eH
	DB	08H
	DB	011H
	DB	022H
	DB	032H
	DB	032H
	DB	032H
	DB	032H
	DB	032H
	DB	08aH
	DB	011H
	DB	08H
	DB	01dH
	DB	016H
	DB	0a4H
	DB	099H
	DB	014H
	DB	045H
	DB	042H
	DB	03H
	DB	03H
	DB	03H
	DB	03H
	DB	03H
	DB	03H
	DB	03H
	DB	0aH
	DB	03H
	DB	03H
	DB	03H
	DB	03H
	DB	03H
	DB	03H
	DB	03H
	DB	03H
	DB	03H
	DB	03H
	DB	03H
	DB	03H
	DB	03H
	DB	03H
	DB	03H
	DB	03H
	DB	03H
	DB	03H
	DB	04fH
	DB	04fH
	DB	00H
	DB	00H
	DB	04fH
	DB	042H
	DB	01bH
	DB	01fH
	DB	0fH
	DB	0dH
	DB	0dH
	DB	034H
	DB	0fH
	DB	02dH
	DB	01fH
	DB	020H
	DB	03H
	DB	03H
	DB	03H
	DB	03H
	DB	03H
	DB	03H
	DB	03H
	DB	03H
	DB	03H
	DB	03H
	DB	03H
	DB	03H
	DB	03H
	DB	03H
	DB	03H
	DB	03H
	DB	03H
	DB	03H
	DB	03H
	DB	03H
	DB	03H
	DB	03H
	DB	03H
	DB	023H
	DB	072H
	DB	036H
	DB	01fH
	DB	015H
	DB	010H
	DB	010H
	DB	01fH
	DB	014H
	DB	039H
	DB	04dH
	DB	023H
	DB	023H
	DB	023H
	DB	03H
	DB	04dH
	DB	04dH
	DB	04dH
	DB	04dH
	DB	04dH
	DB	04dH
	DB	04dH
	DB	04dH
	DB	04dH
	DB	04dH
	DB	027H
	DB	020H
	DB	024H
	DB	018H
	DB	01fH
	DB	015H
	DB	02dH
	DB	0fH
	DB	02fH
	DB	038H
	DB	00H
	DB	00H
	DB	00H
	DB	00H
	DB	00H
	DB	00H
	DB	00H
	DB	00H
	DB	00H
	DB	00H
	DB	00H
	DB	00H
	DB	00H
	DB	0aH
	DB	048H
	DB	048H
	DB	048H
	DB	048H
	DB	048H
	DB	043H
	DB	016H
	DB	01cH
	DB	01cH
	DB	01cH
	DB	01cH
	DB	01dH
	DB	01dH
	DB	0eH
	DB	07H
	DB	07H
	DB	07H
	DB	07H
	DB	07H
	DB	08H
	DB	08H
	DB	08H
	DB	08H
	DB	08H
	DB	08H
	DB	062H
	DB	062H
	DB	011H
	DB	062H
	DB	08H
	DB	08H
	DB	07H
	DB	06eH
	DB	016H
	DB	076H
	DB	021H
	DB	099H
	DB	030H
	DB	0caH
	DB	035H
	DB	0c2H
	DB	03cH
	DB	045H
	DB	017H
	DB	02eH
	DB	080H
	DB	080H
	DB	02eH
	DB	095H
	DB	03cH
	DB	0c2H
	DB	0caH
	DB	030H
	DB	030H
	DB	030H
	DB	0caH
	DB	0caH
	DB	0caH
	DB	014H
	DB	01bH
	DB	042H
	DB	0aH
	DB	03H
	DB	03H
	DB	0aH
	DB	0aH
	DB	0aH
	DB	0aH
	DB	0aH
	DB	0aH
	DB	0aH
	DB	03H
	DB	03H
	DB	03H
	DB	03H
	DB	03H
	DB	03H
	DB	03H
	DB	03H
	DB	03H
	DB	03H
	DB	03H
	DB	03H
	DB	03H
	DB	03H
	DB	03H
	DB	03H
	DB	03H
	DB	03H
	DB	03H
	DB	03H
	DB	03H
	DB	03H
	DB	03H
	DB	03H
	DB	023H
	DB	023H
	DB	023H
	DB	017H
	DB	060H
	DB	0cH
	DB	05eH
	DB	05eH
	DB	01fH
	DB	024H
	DB	0aH
	DB	023H
	DB	023H
	DB	023H
	DB	023H
	DB	03H
	DB	03H
	DB	03H
	DB	03H
	DB	03H
	DB	03H
	DB	03H
	DB	03H
	DB	03H
	DB	03H
	DB	03H
	DB	03H
	DB	03H
	DB	03H
	DB	03H
	DB	03H
	DB	03H
	DB	03H
	DB	03H
	DB	03H
	DB	027H
	DB	03bH
	DB	018H
	DB	015H
	DB	0fH
	DB	03dH
	DB	05H
	DB	04cH
	DB	05H
	DB	03dH
	DB	01eH
	DB	01fH
	DB	03bH
	DB	027H
	DB	03H
	DB	023H
	DB	023H
	DB	03H
	DB	03H
	DB	04dH
	DB	04dH
	DB	04dH
	DB	04dH
	DB	04dH
	DB	04dH
	DB	02cH
	DB	020H
	DB	024H
	DB	018H
	DB	038H
	DB	0cH
	DB	015H
	DB	01eH
	DB	01fH
	DB	00H
	DB	00H
	DB	00H
	DB	00H
	DB	00H
	DB	00H
	DB	00H
	DB	00H
	DB	00H
	DB	00H
	DB	00H
	DB	00H
	DB	00H
	DB	0aH
	DB	021H
	DB	021H
	DB	021H
	DB	048H
	DB	043H
	DB	043H
	DB	016H
	DB	01cH
	DB	01cH
	DB	01cH
	DB	06eH
	DB	01dH
	DB	0eH
	DB	01dH
	DB	0eH
	DB	0eH
	DB	0eH
	DB	07H
	DB	08H
	DB	08H
	DB	062H
	DB	08H
	DB	08H
	DB	08H
	DB	062H
	DB	08H
	DB	08H
	DB	07H
	DB	07H
	DB	01dH
	DB	01cH
	DB	043H
	DB	048H
	DB	021H
	DB	048H
	DB	016H
	DB	016H
	DB	01cH
	DB	07H
	DB	01aH
	DB	032H
	DB	022H
	DB	022H
	DB	011H
	DB	012H
	DB	0eH
	DB	016H
	DB	021H
	DB	099H
	DB	077H
	DB	030H
	DB	035H
	DB	05cH
	DB	035H
	DB	01bH
	DB	02eH
	DB	0aH
	DB	0aH
	DB	03H
	DB	04fH
	DB	04fH
	DB	03H
	DB	03H
	DB	0aH
	DB	0aH
	DB	03H
	DB	03H
	DB	03H
	DB	03H
	DB	0aH
	DB	0aH
	DB	0aH
	DB	03H
	DB	03H
	DB	0aH
	DB	03H
	DB	03H
	DB	03H
	DB	03H
	DB	03H
	DB	03H
	DB	03H
	DB	03H
	DB	03H
	DB	03H
	DB	03H
	DB	03H
	DB	03H
	DB	03H
	DB	03H
	DB	03H
	DB	03H
	DB	03H
	DB	03H
	DB	03H
	DB	03H
	DB	03H
	DB	017H
	DB	018H
	DB	015H
	DB	070H
	DB	03dH
	DB	04bH
	DB	05H
	DB	063H
	DB	0bH
	DB	01eH
	DB	013H
	DB	020H
	DB	03H
	DB	023H
	DB	00H
	DB	023H
	DB	023H
	DB	03H
	DB	03H
	DB	03H
	DB	03H
	DB	03H
	DB	03H
	DB	03H
	DB	03H
	DB	03H
	DB	03H
	DB	03H
	DB	03H
	DB	03H
	DB	03H
	DB	03H
	DB	03H
	DB	02cH
	DB	020H
	DB	036H
	DB	038H
	DB	0cH
	DB	010H
	DB	02fH
	DB	03dH
	DB	03aH
	DB	059H
	DB	04cH
	DB	04H
	DB	059H
	DB	04bH
	DB	034H
	DB	015H
	DB	036H
	DB	020H
	DB	02cH
	DB	03H
	DB	023H
	DB	023H
	DB	03H
	DB	03H
	DB	03H
	DB	03H
	DB	04dH
	DB	039H
	DB	024H
	DB	018H
	DB	038H
	DB	025H
	DB	010H
	DB	038H
	DB	00H
	DB	00H
	DB	00H
	DB	00H
	DB	00H
	DB	00H
	DB	00H
	DB	00H
	DB	00H
	DB	00H
	DB	00H
	DB	00H
	DB	00H
	DB	080H
	DB	016H
	DB	048H
	DB	021H
	DB	048H
	DB	043H
	DB	043H
	DB	016H
	DB	016H
	DB	016H
	DB	016H
	DB	01cH
	DB	01cH
	DB	01cH
	DB	01dH
	DB	01dH
	DB	0eH
	DB	07H
	DB	08H
	DB	062H
	DB	062H
	DB	011H
	DB	011H
	DB	011H
	DB	011H
	DB	011H
	DB	011H
	DB	062H
	DB	062H
	DB	08H
	DB	0eH
	DB	01cH
	DB	01cH
	DB	01cH
	DB	01dH
	DB	0eH
	DB	01dH
	DB	01dH
	DB	07H
	DB	062H
	DB	01aH
	DB	011H
	DB	011H
	DB	011H
	DB	062H
	DB	062H
	DB	062H
	DB	062H
	DB	062H
	DB	08H
	DB	07H
	DB	07H
	DB	012H
	DB	067H
	DB	05bH
	DB	054H
	DB	05bH
	DB	03dH
	DB	046H
	DB	02fH
	DB	0cH
	DB	03bH
	DB	02cH
	DB	04fH
	DB	03H
	DB	03H
	DB	0aH
	DB	0aH
	DB	0aH
	DB	03H
	DB	03H
	DB	03H
	DB	0aH
	DB	0aH
	DB	0aH
	DB	03H
	DB	03H
	DB	0aH
	DB	0aH
	DB	03H
	DB	03H
	DB	03H
	DB	03H
	DB	03H
	DB	03H
	DB	03H
	DB	03H
	DB	03H
	DB	03H
	DB	03H
	DB	03H
	DB	03H
	DB	03H
	DB	03H
	DB	03H
	DB	03H
	DB	04fH
	DB	027H
	DB	060H
	DB	015H
	DB	0fH
	DB	03dH
	DB	05bH
	DB	0efH
	DB	0f3H
	DB	07cH
	DB	0faH
	DB	06H
	DB	07cH
	DB	044H
	DB	05bH
	DB	0fH
	DB	013H
	DB	020H
	DB	0aH
	DB	023H
	DB	00H
	DB	023H
	DB	023H
	DB	03H
	DB	03H
	DB	03H
	DB	03H
	DB	03H
	DB	03H
	DB	03H
	DB	03H
	DB	03H
	DB	03H
	DB	03H
	DB	03H
	DB	04dH
	DB	020H
	DB	018H
	DB	015H
	DB	01eH
	DB	02fH
	DB	034H
	DB	0dH
	DB	046H
	DB	0dH
	DB	0dH
	DB	0dH
	DB	03dH
	DB	05bH
	DB	05H
	DB	063H
	DB	063H
	DB	05H
	DB	03dH
	DB	01eH
	DB	01fH
	DB	03bH
	DB	027H
	DB	03H
	DB	023H
	DB	023H
	DB	023H
	DB	04dH
	DB	072H
	DB	024H
	DB	018H
	DB	01fH
	DB	015H
	DB	013H
	DB	00H
	DB	00H
	DB	00H
	DB	00H
	DB	00H
	DB	00H
	DB	00H
	DB	00H
	DB	00H
	DB	00H
	DB	00H
	DB	00H
	DB	00H
	DB	017H
	DB	070H
	DB	0abH
	DB	06eH
	DB	01cH
	DB	01cH
	DB	01cH
	DB	01cH
	DB	01cH
	DB	01cH
	DB	01cH
	DB	01cH
	DB	01cH
	DB	01cH
	DB	01cH
	DB	01dH
	DB	01dH
	DB	0eH
	DB	07H
	DB	08H
	DB	08H
	DB	08H
	DB	08H
	DB	062H
	DB	062H
	DB	08H
	DB	08H
	DB	0eH
	DB	01dH
	DB	01cH
	DB	043H
	DB	021H
	DB	021H
	DB	021H
	DB	021H
	DB	043H
	DB	016H
	DB	01cH
	DB	08H
	DB	01aH
	DB	01aH
	DB	011H
	DB	011H
	DB	062H
	DB	08H
	DB	07H
	DB	07H
	DB	01dH
	DB	01cH
	DB	01dH
	DB	056H
	DB	071H
	DB	0bH
	DB	054H
	DB	063H
	DB	04H
	DB	02H
	DB	06H
	DB	06H
	DB	06H
	DB	02H
	DB	04cH
	DB	046H
	DB	025H
	DB	024H
	DB	02cH
	DB	04fH
	DB	023H
	DB	03H
	DB	03H
	DB	0aH
	DB	03H
	DB	03H
	DB	0aH
	DB	0aH
	DB	0aH
	DB	0aH
	DB	0aH
	DB	0aH
	DB	0aH
	DB	0aH
	DB	0aH
	DB	03H
	DB	03H
	DB	03H
	DB	03H
	DB	03H
	DB	03H
	DB	03H
	DB	03H
	DB	03H
	DB	03H
	DB	03H
	DB	03H
	DB	03H
	DB	04fH
	DB	03H
	DB	020H
	DB	065H
	DB	079H
	DB	0dH
	DB	05bH
	DB	0efH
	DB	049H
	DB	02H
	DB	02H
	DB	0f3H
	DB	049H
	DB	049H
	DB	02H
	DB	07cH
	DB	06cH
	DB	085H
	DB	07eH
	DB	03aH
	DB	0fH
	DB	038H
	DB	020H
	DB	0aH
	DB	023H
	DB	023H
	DB	023H
	DB	023H
	DB	03H
	DB	03H
	DB	03H
	DB	03H
	DB	03H
	DB	03H
	DB	03H
	DB	03H
	DB	03H
	DB	027H
	DB	036H
	DB	01fH
	DB	02dH
	DB	034H
	DB	03dH
	DB	04bH
	DB	05H
	DB	05H
	DB	04bH
	DB	03dH
	DB	0dH
	DB	070H
	DB	070H
	DB	070H
	DB	034H
	DB	046H
	DB	04bH
	DB	05H
	DB	059H
	DB	05H
	DB	0bH
	DB	034H
	DB	025H
	DB	018H
	DB	020H
	DB	02cH
	DB	03H
	DB	027H
	DB	01bH
	DB	036H
	DB	01fH
	DB	036H
	DB	00H
	DB	00H
	DB	00H
	DB	00H
	DB	00H
	DB	00H
	DB	00H
	DB	00H
	DB	00H
	DB	00H
	DB	00H
	DB	00H
	DB	00H
	DB	017H
	DB	0e8H
	DB	0dH
	DB	056H
	DB	0eH
	DB	01dH
	DB	016H
	DB	016H
	DB	016H
	DB	016H
	DB	01cH
	DB	01cH
	DB	01cH
	DB	01cH
	DB	01cH
	DB	01cH
	DB	01dH
	DB	01dH
	DB	07H
	DB	07H
	DB	0eH
	DB	01dH
	DB	01dH
	DB	07H
	DB	07H
	DB	01dH
	DB	01cH
	DB	048H
	DB	048H
	DB	043H
	DB	043H
	DB	078H
	DB	097H
	DB	035H
	DB	099H
	DB	016H
	DB	0a8H
	DB	0a8H
	DB	0a8H
	DB	0abH
	DB	012H
	DB	012H
	DB	012H
	DB	012H
	DB	07H
	DB	01dH
	DB	0a8H
	DB	0a8H
	DB	056H
	DB	071H
	DB	0bH
	DB	05H
	DB	091H
	DB	044H
	DB	02H
	DB	07cH
	DB	0faH
	DB	06cH
	DB	0faH
	DB	06H
	DB	06H
	DB	06H
	DB	06H
	DB	07cH
	DB	04H
	DB	03dH
	DB	015H
	DB	03bH
	DB	0aH
	DB	04fH
	DB	04fH
	DB	03H
	DB	03H
	DB	03H
	DB	03H
	DB	03H
	DB	03H
	DB	03H
	DB	03H
	DB	03H
	DB	0aH
	DB	0aH
	DB	03H
	DB	03H
	DB	03H
	DB	03H
	DB	03H
	DB	03H
	DB	03H
	DB	03H
	DB	03H
	DB	03H
	DB	03H
	DB	03H
	DB	03H
	DB	03H
	DB	0b3H
	DB	018H
	DB	0cH
	DB	079H
	DB	070H
	DB	0e8H
	DB	05H
	DB	04cH
	DB	04H
	DB	044H
	DB	049H
	DB	049H
	DB	049H
	DB	049H
	DB	044H
	DB	044H
	DB	049H
	DB	02H
	DB	02H
	DB	07cH
	DB	02H
	DB	07eH
	DB	04bH
	DB	01eH
	DB	018H
	DB	020H
	DB	03H
	DB	023H
	DB	023H
	DB	023H
	DB	023H
	DB	03H
	DB	03H
	DB	03H
	DB	03H
	DB	03H
	DB	02cH
	DB	024H
	DB	038H
	DB	015H
	DB	0fH
	DB	0dH
	DB	0bH
	DB	03aH
	DB	059H
	DB	059H
	DB	059H
	DB	05H
	DB	05H
	DB	04bH
	DB	0bH
	DB	0dH
	DB	034H
	DB	0fH
	DB	0fH
	DB	02fH
	DB	0dH
	DB	03dH
	DB	04bH
	DB	05H
	DB	05H
	DB	04bH
	DB	046H
	DB	01eH
	DB	01fH
	DB	018H
	DB	036H
	DB	018H
	DB	024H
	DB	00H
	DB	00H
	DB	00H
	DB	00H
	DB	00H
	DB	00H
	DB	00H
	DB	00H
	DB	00H
	DB	00H
	DB	00H
	DB	00H
	DB	00H
	DB	017H
	DB	05bH
	DB	0e8H
	DB	012H
	DB	070H
	DB	0eH
	DB	0eH
	DB	0a8H
	DB	016H
	DB	043H
	DB	043H
	DB	016H
	DB	01cH
	DB	01cH
	DB	01cH
	DB	01dH
	DB	01cH
	DB	01dH
	DB	01dH
	DB	01dH
	DB	01dH
	DB	01dH
	DB	01dH
	DB	01dH
	DB	01cH
	DB	01dH
	DB	0eH
	DB	0eH
	DB	01cH
	DB	043H
	DB	021H
	DB	078H
	DB	030H
	DB	0caH
	DB	0caH
	DB	030H
	DB	021H
	DB	076H
	DB	0a8H
	DB	0fH
	DB	0dH
	DB	071H
	DB	0dH
	DB	012H
	DB	056H
	DB	056H
	DB	0dH
	DB	0e8H
	DB	05bH
	DB	05H
	DB	068H
	DB	044H
	DB	02H
	DB	064H
	DB	0faH
	DB	0faH
	DB	0faH
	DB	0faH
	DB	0faH
	DB	0faH
	DB	0faH
	DB	06H
	DB	06H
	DB	06H
	DB	06H
	DB	06H
	DB	07cH
	DB	04cH
	DB	03dH
	DB	05eH
	DB	01bH
	DB	0aH
	DB	023H
	DB	023H
	DB	03H
	DB	03H
	DB	03H
	DB	0aH
	DB	03H
	DB	03H
	DB	03H
	DB	03H
	DB	03H
	DB	03H
	DB	03H
	DB	03H
	DB	03H
	DB	03H
	DB	03H
	DB	03H
	DB	03H
	DB	03H
	DB	03H
	DB	03H
	DB	04fH
	DB	017H
	DB	013H
	DB	010H
	DB	070H
	DB	067H
	DB	0bH
	DB	05H
	DB	063H
	DB	063H
	DB	05H
	DB	05H
	DB	05H
	DB	063H
	DB	04cH
	DB	04H
	DB	044H
	DB	049H
	DB	049H
	DB	044H
	DB	044H
	DB	044H
	DB	049H
	DB	049H
	DB	02H
	DB	02H
	DB	02H
	DB	04H
	DB	04bH
	DB	01eH
	DB	038H
	DB	020H
	DB	0aH
	DB	023H
	DB	023H
	DB	023H
	DB	03H
	DB	03H
	DB	04dH
	DB	06aH
	DB	013H
	DB	015H
	DB	01eH
	DB	034H
	DB	03dH
	DB	03aH
	DB	05H
	DB	05H
	DB	05H
	DB	05H
	DB	05H
	DB	05H
	DB	05H
	DB	05H
	DB	05H
	DB	03aH
	DB	0bH
	DB	046H
	DB	034H
	DB	0fH
	DB	0fH
	DB	0fH
	DB	02fH
	DB	034H
	DB	03dH
	DB	04bH
	DB	03aH
	DB	04bH
	DB	046H
	DB	02fH
	DB	038H
	DB	00H
	DB	00H
	DB	00H
	DB	00H
	DB	00H
	DB	00H
	DB	00H
	DB	00H
	DB	00H
	DB	00H
	DB	00H
	DB	00H
	DB	00H
	DB	017H
	DB	054H
	DB	05bH
	DB	0bH
	DB	067H
	DB	0dH
	DB	070H
	DB	056H
	DB	0eH
	DB	01cH
	DB	043H
	DB	043H
	DB	043H
	DB	016H
	DB	016H
	DB	01cH
	DB	01cH
	DB	01cH
	DB	01cH
	DB	01cH
	DB	01cH
	DB	016H
	DB	043H
	DB	048H
	DB	021H
	DB	078H
	DB	077H
	DB	030H
	DB	035H
	DB	035H
	DB	030H
	DB	077H
	DB	021H
	DB	048H
	DB	021H
	DB	048H
	DB	048H
	DB	043H
	DB	016H
	DB	016H
	DB	06eH
	DB	06eH
	DB	0a8H
	DB	070H
	DB	071H
	DB	05bH
	DB	05H
	DB	091H
	DB	04H
	DB	0f3H
	DB	07cH
	DB	06H
	DB	06H
	DB	06H
	DB	06H
	DB	06H
	DB	06H
	DB	06H
	DB	06H
	DB	06H
	DB	06H
	DB	0faH
	DB	0faH
	DB	0faH
	DB	0faH
	DB	0faH
	DB	06H
	DB	06H
	DB	06H
	DB	0faH
	DB	04H
	DB	046H
	DB	01fH
	DB	020H
	DB	0aH
	DB	023H
	DB	04fH
	DB	03H
	DB	03H
	DB	03H
	DB	03H
	DB	03H
	DB	03H
	DB	03H
	DB	03H
	DB	03H
	DB	03H
	DB	03H
	DB	03H
	DB	03H
	DB	03H
	DB	03H
	DB	03H
	DB	04fH
	DB	027H
	DB	060H
	DB	015H
	DB	070H
	DB	0bH
	DB	05H
	DB	04H
	DB	049H
	DB	02H
	DB	049H
	DB	04H
	DB	04cH
	DB	063H
	DB	03aH
	DB	05bH
	DB	05bH
	DB	03aH
	DB	05H
	DB	04cH
	DB	04H
	DB	049H
	DB	049H
	DB	049H
	DB	049H
	DB	044H
	DB	044H
	DB	07bH
	DB	0f3H
	DB	0f3H
	DB	02H
	DB	02H
	DB	04H
	DB	04bH
	DB	0fH
	DB	013H
	DB	020H
	DB	03H
	DB	023H
	DB	023H
	DB	027H
	DB	036H
	DB	01fH
	DB	02dH
	DB	02fH
	DB	046H
	DB	04bH
	DB	059H
	DB	0efH
	DB	059H
	DB	05H
	DB	05H
	DB	03aH
	DB	03aH
	DB	03aH
	DB	03aH
	DB	03aH
	DB	05H
	DB	05H
	DB	05H
	DB	03aH
	DB	0bH
	DB	046H
	DB	034H
	DB	0fH
	DB	02dH
	DB	02dH
	DB	01eH
	DB	02fH
	DB	034H
	DB	0dH
	DB	0cH
	DB	00H
	DB	00H
	DB	00H
	DB	00H
	DB	00H
	DB	00H
	DB	00H
	DB	00H
	DB	00H
	DB	00H
	DB	00H
	DB	00H
	DB	00H
	DB	017H
	DB	0bH
	DB	05bH
	DB	03aH
	DB	05bH
	DB	05bH
	DB	0bH
	DB	071H
	DB	071H
	DB	070H
	DB	0eH
	DB	016H
	DB	043H
	DB	048H
	DB	043H
	DB	016H
	DB	01cH
	DB	016H
	DB	016H
	DB	043H
	DB	048H
	DB	021H
	DB	021H
	DB	021H
	DB	078H
	DB	078H
	DB	077H
	DB	021H
	DB	043H
	DB	01cH
	DB	01dH
	DB	0eH
	DB	0eH
	DB	0eH
	DB	056H
	DB	056H
	DB	056H
	DB	0eH
	DB	0a8H
	DB	016H
	DB	016H
	DB	0a8H
	DB	0fH
	DB	0dH
	DB	0bH
	DB	05H
	DB	068H
	DB	07bH
	DB	07cH
	DB	06H
	DB	06H
	DB	06H
	DB	06H
	DB	06H
	DB	06H
	DB	06H
	DB	06H
	DB	06H
	DB	06H
	DB	06H
	DB	06H
	DB	0faH
	DB	0faH
	DB	0faH
	DB	0faH
	DB	0faH
	DB	0faH
	DB	0faH
	DB	06H
	DB	06H
	DB	06H
	DB	06H
	DB	07cH
	DB	04H
	DB	03dH
	DB	015H
	DB	03bH
	DB	0aH
	DB	04fH
	DB	023H
	DB	03H
	DB	03H
	DB	03H
	DB	03H
	DB	03H
	DB	03H
	DB	03H
	DB	03H
	DB	03H
	DB	03H
	DB	03H
	DB	03H
	DB	03H
	DB	0aH
	DB	03bH
	DB	0cH
	DB	0fH
	DB	0e8H
	DB	03aH
	DB	04H
	DB	02H
	DB	02H
	DB	02H
	DB	02H
	DB	02H
	DB	049H
	DB	044H
	DB	04H
	DB	04cH
	DB	063H
	DB	03aH
	DB	05bH
	DB	0bH
	DB	05bH
	DB	03aH
	DB	063H
	DB	04H
	DB	044H
	DB	049H
	DB	049H
	DB	049H
	DB	07bH
	DB	044H
	DB	04H
	DB	04H
	DB	044H
	DB	0f3H
	DB	0f3H
	DB	049H
	DB	04cH
	DB	04bH
	DB	01eH
	DB	013H
	DB	03bH
	DB	024H
	DB	013H
	DB	025H
	DB	01eH
	DB	034H
	DB	0bH
	DB	03aH
	DB	059H
	DB	059H
	DB	059H
	DB	05H
	DB	05H
	DB	05H
	DB	03aH
	DB	04bH
	DB	0bH
	DB	0bH
	DB	0bH
	DB	04bH
	DB	04bH
	DB	04bH
	DB	03aH
	DB	03aH
	DB	04bH
	DB	0bH
	DB	03dH
	DB	034H
	DB	0fH
	DB	01eH
	DB	01eH
	DB	013H
	DB	00H
	DB	00H
	DB	00H
	DB	00H
	DB	00H
	DB	00H
	DB	00H
	DB	00H
	DB	00H
	DB	00H
	DB	00H
	DB	00H
	DB	00H
	DB	017H
	DB	0e8H
	DB	0bH
	DB	05bH
	DB	03aH
	DB	05H
	DB	05H
	DB	054H
	DB	0bH
	DB	0e8H
	DB	0dH
	DB	056H
	DB	0eH
	DB	016H
	DB	048H
	DB	078H
	DB	077H
	DB	030H
	DB	030H
	DB	030H
	DB	030H
	DB	0caH
	DB	0caH
	DB	030H
	DB	077H
	DB	021H
	DB	016H
	DB	01dH
	DB	0eH
	DB	07H
	DB	07H
	DB	07H
	DB	056H
	DB	070H
	DB	070H
	DB	070H
	DB	0fH
	DB	079H
	DB	0fH
	DB	070H
	DB	0dH
	DB	0bH
	DB	05bH
	DB	05H
	DB	068H
	DB	07bH
	DB	07cH
	DB	06H
	DB	06H
	DB	06H
	DB	06H
	DB	06H
	DB	06H
	DB	06H
	DB	06H
	DB	06H
	DB	06H
	DB	06H
	DB	06H
	DB	06H
	DB	06H
	DB	0faH
	DB	0faH
	DB	0faH
	DB	0faH
	DB	0faH
	DB	0faH
	DB	0faH
	DB	07cH
	DB	07cH
	DB	07cH
	DB	07cH
	DB	07cH
	DB	06H
	DB	06H
	DB	06cH
	DB	049H
	DB	04bH
	DB	010H
	DB	036H
	DB	027H
	DB	04fH
	DB	04fH
	DB	03H
	DB	03H
	DB	03H
	DB	03H
	DB	03H
	DB	03H
	DB	03H
	DB	03H
	DB	03H
	DB	03H
	DB	020H
	DB	01fH
	DB	079H
	DB	0dH
	DB	05bH
	DB	063H
	DB	049H
	DB	02H
	DB	02H
	DB	02H
	DB	02H
	DB	02H
	DB	02H
	DB	02H
	DB	0f3H
	DB	049H
	DB	044H
	DB	04H
	DB	04H
	DB	063H
	DB	063H
	DB	05H
	DB	03aH
	DB	05bH
	DB	03aH
	DB	05H
	DB	063H
	DB	04H
	DB	044H
	DB	07bH
	DB	07bH
	DB	049H
	DB	044H
	DB	04H
	DB	04H
	DB	04H
	DB	04H
	DB	044H
	DB	0f3H
	DB	049H
	DB	059H
	DB	0bH
	DB	034H
	DB	0fH
	DB	0fH
	DB	034H
	DB	03dH
	DB	03aH
	DB	059H
	DB	059H
	DB	05H
	DB	05H
	DB	05H
	DB	05H
	DB	05H
	DB	05H
	DB	05H
	DB	03aH
	DB	04bH
	DB	0bH
	DB	0bH
	DB	03dH
	DB	03dH
	DB	03dH
	DB	03dH
	DB	03dH
	DB	0bH
	DB	0bH
	DB	0bH
	DB	0bH
	DB	0bH
	DB	015H
	DB	00H
	DB	00H
	DB	00H
	DB	00H
	DB	00H
	DB	00H
	DB	00H
	DB	00H
	DB	00H
	DB	00H
	DB	00H
	DB	00H
	DB	00H
	DB	080H
	DB	0dH
	DB	071H
	DB	0e8H
	DB	0bH
	DB	03aH
	DB	05H
	DB	05H
	DB	05H
	DB	03aH
	DB	0bH
	DB	0e8H
	DB	0dH
	DB	0fH
	DB	016H
	DB	021H
	DB	030H
	DB	030H
	DB	030H
	DB	030H
	DB	077H
	DB	078H
	DB	021H
	DB	043H
	DB	016H
	DB	01cH
	DB	01dH
	DB	01dH
	DB	01dH
	DB	01dH
	DB	0eH
	DB	0eH
	DB	056H
	DB	056H
	DB	079H
	DB	079H
	DB	0e2H
	DB	070H
	DB	0e8H
	DB	05bH
	DB	05H
	DB	0efH
	DB	044H
	DB	02H
	DB	0faH
	DB	06H
	DB	06H
	DB	06H
	DB	06H
	DB	06H
	DB	0faH
	DB	0faH
	DB	06H
	DB	06H
	DB	06H
	DB	06H
	DB	06H
	DB	06H
	DB	06H
	DB	06H
	DB	06H
	DB	06H
	DB	06H
	DB	06H
	DB	06H
	DB	0faH
	DB	0faH
	DB	0faH
	DB	0faH
	DB	0faH
	DB	07cH
	DB	07cH
	DB	02H
	DB	02H
	DB	02H
	DB	0faH
	DB	06H
	DB	06H
	DB	06H
	DB	02H
	DB	05H
	DB	0fH
	DB	018H
	DB	0b3H
	DB	03H
	DB	023H
	DB	03H
	DB	03H
	DB	03H
	DB	03H
	DB	03H
	DB	03H
	DB	027H
	DB	060H
	DB	015H
	DB	034H
	DB	0bH
	DB	05H
	DB	04H
	DB	02H
	DB	07cH
	DB	02H
	DB	02H
	DB	02H
	DB	02H
	DB	02H
	DB	02H
	DB	02H
	DB	02H
	DB	02H
	DB	049H
	DB	049H
	DB	049H
	DB	044H
	DB	04H
	DB	04H
	DB	04H
	DB	04cH
	DB	05H
	DB	03aH
	DB	05bH
	DB	05bH
	DB	03aH
	DB	05H
	DB	04cH
	DB	04H
	DB	044H
	DB	044H
	DB	04H
	DB	04H
	DB	04H
	DB	04cH
	DB	0efH
	DB	091H
	DB	05H
	DB	0bH
	DB	0dH
	DB	02fH
	DB	0e2H
	DB	079H
	DB	0fH
	DB	03dH
	DB	05H
	DB	04H
	DB	04H
	DB	04cH
	DB	0efH
	DB	05H
	DB	05H
	DB	05H
	DB	05H
	DB	05H
	DB	05H
	DB	05H
	DB	03aH
	DB	04bH
	DB	0bH
	DB	0bH
	DB	0e8H
	DB	0dH
	DB	0dH
	DB	0dH
	DB	046H
	DB	0bH
	DB	010H
	DB	00H
	DB	00H
	DB	00H
	DB	00H
	DB	00H
	DB	00H
	DB	00H
	DB	00H
	DB	00H
	DB	00H
	DB	00H
	DB	00H
	DB	00H
	DB	080H
	DB	056H
	DB	012H
	DB	0dH
	DB	071H
	DB	0bH
	DB	05bH
	DB	03aH
	DB	05H
	DB	059H
	DB	05H
	DB	03aH
	DB	0bH
	DB	0e8H
	DB	071H
	DB	0dH
	DB	056H
	DB	06eH
	DB	016H
	DB	016H
	DB	01cH
	DB	01cH
	DB	01dH
	DB	01dH
	DB	01cH
	DB	01cH
	DB	01cH
	DB	01cH
	DB	016H
	DB	016H
	DB	016H
	DB	016H
	DB	076H
	DB	076H
	DB	076H
	DB	079H
	DB	012H
	DB	0bH
	DB	03aH
	DB	05H
	DB	04H
	DB	0f3H
	DB	0faH
	DB	06H
	DB	06H
	DB	06H
	DB	0faH
	DB	06H
	DB	06H
	DB	06H
	DB	06H
	DB	06H
	DB	06H
	DB	06H
	DB	06H
	DB	06H
	DB	0faH
	DB	0faH
	DB	06H
	DB	06H
	DB	06H
	DB	06H
	DB	06H
	DB	06H
	DB	06H
	DB	0faH
	DB	0faH
	DB	06H
	DB	06H
	DB	0faH
	DB	0faH
	DB	0faH
	DB	07cH
	DB	07cH
	DB	07cH
	DB	07cH
	DB	02H
	DB	02H
	DB	07cH
	DB	0faH
	DB	06H
	DB	06H
	DB	085H
	DB	059H
	DB	034H
	DB	013H
	DB	039H
	DB	03H
	DB	03H
	DB	03H
	DB	03H
	DB	02cH
	DB	014H
	DB	05eH
	DB	0fH
	DB	0e8H
	DB	03aH
	DB	04cH
	DB	02H
	DB	07cH
	DB	07cH
	DB	07cH
	DB	02H
	DB	02H
	DB	02H
	DB	02H
	DB	02H
	DB	02H
	DB	02H
	DB	02H
	DB	02H
	DB	02H
	DB	02H
	DB	049H
	DB	049H
	DB	049H
	DB	049H
	DB	049H
	DB	049H
	DB	044H
	DB	04H
	DB	063H
	DB	05H
	DB	0bH
	DB	03dH
	DB	0e8H
	DB	0bH
	DB	05H
	DB	0efH
	DB	04H
	DB	04H
	DB	04H
	DB	04H
	DB	0efH
	DB	05H
	DB	0bH
	DB	0dH
	DB	0fH
	DB	015H
	DB	013H
	DB	03bH
	DB	017H
	DB	020H
	DB	018H
	DB	010H
	DB	0dH
	DB	03aH
	DB	04cH
	DB	04H
	DB	04cH
	DB	059H
	DB	05H
	DB	05H
	DB	05H
	DB	05H
	DB	05H
	DB	05H
	DB	03aH
	DB	03aH
	DB	03aH
	DB	0bH
	DB	0bH
	DB	046H
	DB	03dH
	DB	015H
	DB	00H
	DB	00H
	DB	00H
	DB	00H
	DB	00H
	DB	00H
	DB	00H
	DB	00H
	DB	00H
	DB	00H
	DB	00H
	DB	00H
	DB	00H
	DB	080H
	DB	016H
	DB	06eH
	DB	0eH
	DB	056H
	DB	012H
	DB	071H
	DB	0bH
	DB	05bH
	DB	05bH
	DB	05H
	DB	059H
	DB	059H
	DB	05H
	DB	05bH
	DB	05bH
	DB	0e8H
	DB	0dH
	DB	012H
	DB	07H
	DB	01dH
	DB	01cH
	DB	01cH
	DB	01cH
	DB	01cH
	DB	01cH
	DB	016H
	DB	043H
	DB	043H
	DB	043H
	DB	048H
	DB	021H
	DB	076H
	DB	079H
	DB	0dH
	DB	0bH
	DB	05H
	DB	0efH
	DB	044H
	DB	02H
	DB	0faH
	DB	06H
	DB	06H
	DB	06H
	DB	06H
	DB	06H
	DB	06H
	DB	06H
	DB	06H
	DB	06H
	DB	06H
	DB	06H
	DB	06H
	DB	06H
	DB	06H
	DB	06H
	DB	06H
	DB	06H
	DB	06H
	DB	06H
	DB	06H
	DB	06H
	DB	06H
	DB	06H
	DB	06H
	DB	06H
	DB	06H
	DB	06H
	DB	06H
	DB	06H
	DB	06H
	DB	06H
	DB	0faH
	DB	0faH
	DB	0faH
	DB	07cH
	DB	07cH
	DB	07cH
	DB	02H
	DB	02H
	DB	02H
	DB	07cH
	DB	07cH
	DB	06H
	DB	06H
	DB	07cH
	DB	04cH
	DB	034H
	DB	038H
	DB	020H
	DB	042H
	DB	03bH
	DB	0cH
	DB	070H
	DB	0bH
	DB	05H
	DB	04H
	DB	02H
	DB	07cH
	DB	07cH
	DB	07cH
	DB	07cH
	DB	07cH
	DB	02H
	DB	02H
	DB	02H
	DB	02H
	DB	02H
	DB	02H
	DB	02H
	DB	02H
	DB	02H
	DB	02H
	DB	02H
	DB	02H
	DB	02H
	DB	049H
	DB	02H
	DB	02H
	DB	049H
	DB	049H
	DB	049H
	DB	044H
	DB	04H
	DB	063H
	DB	05H
	DB	0bH
	DB	0e8H
	DB	0e8H
	DB	0bH
	DB	05bH
	DB	05H
	DB	0efH
	DB	04H
	DB	04H
	DB	063H
	DB	04bH
	DB	0dH
	DB	01eH
	DB	01fH
	DB	014H
	DB	020H
	DB	02cH
	DB	03H
	DB	03H
	DB	0aH
	DB	039H
	DB	014H
	DB	025H
	DB	034H
	DB	04bH
	DB	059H
	DB	04cH
	DB	0efH
	DB	059H
	DB	05H
	DB	05H
	DB	03aH
	DB	03aH
	DB	03aH
	DB	03aH
	DB	03aH
	DB	03aH
	DB	05H
	DB	0e2H
	DB	00H
	DB	00H
	DB	00H
	DB	00H
	DB	00H
	DB	00H
	DB	00H
	DB	00H
	DB	00H
	DB	00H
	DB	00H
	DB	00H
	DB	00H
	DB	080H
	DB	016H
	DB	016H
	DB	016H
	DB	0a8H
	DB	0eH
	DB	056H
	DB	012H
	DB	0dH
	DB	071H
	DB	0bH
	DB	05bH
	DB	05H
	DB	063H
	DB	091H
	DB	063H
	DB	05H
	DB	05bH
	DB	0bH
	DB	071H
	DB	012H
	DB	0eH
	DB	01cH
	DB	01cH
	DB	01cH
	DB	01cH
	DB	01cH
	DB	016H
	DB	043H
	DB	076H
	DB	016H
	DB	0fH
	DB	067H
	DB	0bH
	DB	05H
	DB	0efH
	DB	044H
	DB	02H
	DB	0faH
	DB	0faH
	DB	0faH
	DB	0faH
	DB	07cH
	DB	07cH
	DB	0faH
	DB	0faH
	DB	0faH
	DB	06H
	DB	06H
	DB	06H
	DB	06H
	DB	06H
	DB	06H
	DB	06H
	DB	06H
	DB	06H
	DB	06H
	DB	06H
	DB	06H
	DB	06H
	DB	06H
	DB	06H
	DB	06H
	DB	06H
	DB	06H
	DB	06H
	DB	06H
	DB	06H
	DB	06H
	DB	06H
	DB	06H
	DB	0faH
	DB	0faH
	DB	0faH
	DB	0faH
	DB	06H
	DB	06H
	DB	0faH
	DB	0faH
	DB	0faH
	DB	07cH
	DB	07cH
	DB	02H
	DB	07cH
	DB	07cH
	DB	0faH
	DB	06H
	DB	09cH
	DB	06H
	DB	04H
	DB	04bH
	DB	0dH
	DB	0dH
	DB	0bH
	DB	05H
	DB	04H
	DB	02H
	DB	06H
	DB	06H
	DB	06H
	DB	06H
	DB	06cH
	DB	07cH
	DB	07cH
	DB	02H
	DB	07cH
	DB	02H
	DB	02H
	DB	02H
	DB	02H
	DB	02H
	DB	02H
	DB	02H
	DB	02H
	DB	02H
	DB	02H
	DB	02H
	DB	02H
	DB	02H
	DB	02H
	DB	02H
	DB	0f3H
	DB	0f3H
	DB	049H
	DB	049H
	DB	044H
	DB	04H
	DB	04cH
	DB	063H
	DB	05H
	DB	05bH
	DB	0bH
	DB	0bH
	DB	05bH
	DB	03aH
	DB	03aH
	DB	04bH
	DB	0bH
	DB	046H
	DB	0fH
	DB	015H
	DB	018H
	DB	020H
	DB	027H
	DB	017H
	DB	027H
	DB	027H
	DB	02cH
	DB	0aH
	DB	02cH
	DB	039H
	DB	014H
	DB	025H
	DB	02fH
	DB	0bH
	DB	059H
	DB	04cH
	DB	04cH
	DB	059H
	DB	05H
	DB	05H
	DB	03aH
	DB	03aH
	DB	05H
	DB	0e2H
	DB	00H
	DB	00H
	DB	00H
	DB	00H
	DB	00H
	DB	00H
	DB	00H
	DB	00H
	DB	00H
	DB	00H
	DB	00H
	DB	00H
	DB	00H
	DB	080H
	DB	016H
	DB	016H
	DB	016H
	DB	016H
	DB	016H
	DB	06eH
	DB	07H
	DB	012H
	DB	071H
	DB	0e8H
	DB	05bH
	DB	054H
	DB	05H
	DB	068H
	DB	04H
	DB	04H
	DB	063H
	DB	05H
	DB	05bH
	DB	0bH
	DB	071H
	DB	056H
	DB	06eH
	DB	016H
	DB	0a4H
	DB	021H
	DB	076H
	DB	06eH
	DB	056H
	DB	067H
	DB	05bH
	DB	05H
	DB	04H
	DB	0f3H
	DB	02H
	DB	07cH
	DB	0faH
	DB	07cH
	DB	07cH
	DB	0faH
	DB	0faH
	DB	07cH
	DB	0faH
	DB	0faH
	DB	0faH
	DB	0faH
	DB	06H
	DB	06H
	DB	06H
	DB	06H
	DB	06H
	DB	06H
	DB	06H
	DB	06H
	DB	06H
	DB	06H
	DB	06H
	DB	06H
	DB	06H
	DB	06H
	DB	06H
	DB	06H
	DB	06H
	DB	06H
	DB	06H
	DB	06H
	DB	06H
	DB	06H
	DB	06H
	DB	06H
	DB	0faH
	DB	0faH
	DB	0faH
	DB	0faH
	DB	06H
	DB	0faH
	DB	0faH
	DB	06H
	DB	06H
	DB	06H
	DB	06H
	DB	06H
	DB	0faH
	DB	0faH
	DB	07cH
	DB	07cH
	DB	0faH
	DB	06H
	DB	06H
	DB	06H
	DB	02H
	DB	049H
	DB	044H
	DB	044H
	DB	02H
	DB	06H
	DB	09cH
	DB	06H
	DB	06H
	DB	06H
	DB	06H
	DB	06cH
	DB	06cH
	DB	07cH
	DB	07cH
	DB	07cH
	DB	07cH
	DB	02H
	DB	02H
	DB	02H
	DB	02H
	DB	02H
	DB	02H
	DB	02H
	DB	02H
	DB	02H
	DB	02H
	DB	02H
	DB	02H
	DB	02H
	DB	0f3H
	DB	049H
	DB	0f3H
	DB	049H
	DB	049H
	DB	049H
	DB	049H
	DB	049H
	DB	044H
	DB	04H
	DB	04cH
	DB	0efH
	DB	05H
	DB	05H
	DB	05bH
	DB	03dH
	DB	0dH
	DB	02fH
	DB	0e2H
	DB	010H
	DB	0cH
	DB	014H
	DB	020H
	DB	039H
	DB	020H
	DB	020H
	DB	020H
	DB	020H
	DB	020H
	DB	039H
	DB	017H
	DB	017H
	DB	039H
	DB	01bH
	DB	018H
	DB	015H
	DB	034H
	DB	0bH
	DB	059H
	DB	04cH
	DB	04cH
	DB	059H
	DB	059H
	DB	0fH
	DB	00H
	DB	00H
	DB	00H
	DB	00H
	DB	00H
	DB	00H
	DB	00H
	DB	00H
	DB	00H
	DB	00H
	DB	00H
	DB	00H
	DB	00H
	DB	080H
	DB	0a8H
	DB	06eH
	DB	06eH
	DB	06eH
	DB	06eH
	DB	06eH
	DB	0eH
	DB	056H
	DB	071H
	DB	071H
	DB	0bH
	DB	05bH
	DB	054H
	DB	05H
	DB	068H
	DB	04H
	DB	04H
	DB	068H
	DB	063H
	DB	05H
	DB	05bH
	DB	0bH
	DB	0dH
	DB	0fH
	DB	010H
	DB	079H
	DB	070H
	DB	0e8H
	DB	05bH
	DB	05H
	DB	04H
	DB	0f3H
	DB	07cH
	DB	0faH
	DB	0faH
	DB	07cH
	DB	0faH
	DB	0faH
	DB	0faH
	DB	0faH
	DB	0faH
	DB	0faH
	DB	06H
	DB	06H
	DB	06H
	DB	06H
	DB	06H
	DB	06H
	DB	06H
	DB	06H
	DB	06H
	DB	06H
	DB	06H
	DB	06H
	DB	06H
	DB	06H
	DB	06H
	DB	06H
	DB	06H
	DB	06H
	DB	06H
	DB	0faH
	DB	0faH
	DB	0faH
	DB	0faH
	DB	06H
	DB	06cH
	DB	06cH
	DB	06cH
	DB	06H
	DB	0faH
	DB	0faH
	DB	0faH
	DB	0faH
	DB	07cH
	DB	07cH
	DB	07cH
	DB	07cH
	DB	0faH
	DB	0faH
	DB	0faH
	DB	06H
	DB	06H
	DB	06H
	DB	06H
	DB	0faH
	DB	0faH
	DB	0faH
	DB	02H
	DB	0f3H
	DB	04H
	DB	05H
	DB	05bH
	DB	0dH
	DB	0fH
	DB	0dH
	DB	05H
	DB	02H
	DB	06H
	DB	06H
	DB	06H
	DB	06H
	DB	0faH
	DB	0faH
	DB	07cH
	DB	07cH
	DB	07cH
	DB	02H
	DB	02H
	DB	02H
	DB	02H
	DB	02H
	DB	02H
	DB	02H
	DB	02H
	DB	02H
	DB	02H
	DB	02H
	DB	02H
	DB	02H
	DB	02H
	DB	0f3H
	DB	049H
	DB	049H
	DB	049H
	DB	049H
	DB	049H
	DB	049H
	DB	049H
	DB	049H
	DB	049H
	DB	044H
	DB	044H
	DB	04H
	DB	04H
	DB	05H
	DB	04bH
	DB	046H
	DB	0fH
	DB	010H
	DB	0cH
	DB	018H
	DB	024H
	DB	01bH
	DB	01bH
	DB	01bH
	DB	01bH
	DB	03bH
	DB	03bH
	DB	03bH
	DB	03bH
	DB	03bH
	DB	03bH
	DB	01bH
	DB	020H
	DB	020H
	DB	01bH
	DB	024H
	DB	013H
	DB	015H
	DB	034H
	DB	0bH
	DB	04cH
	DB	034H
	DB	00H
	DB	00H
	DB	00H
	DB	00H
	DB	00H
	DB	00H
	DB	00H
	DB	00H
	DB	00H
	DB	00H
	DB	00H
	DB	00H
	DB	00H
	DB	080H
	DB	0eH
	DB	0eH
	DB	0eH
	DB	07H
	DB	07H
	DB	07H
	DB	07H
	DB	07H
	DB	056H
	DB	012H
	DB	071H
	DB	0e8H
	DB	05bH
	DB	054H
	DB	05H
	DB	063H
	DB	04H
	DB	04H
	DB	044H
	DB	04H
	DB	0efH
	DB	05H
	DB	05H
	DB	05H
	DB	063H
	DB	091H
	DB	091H
	DB	0efH
	DB	04H
	DB	0f3H
	DB	02H
	DB	07cH
	DB	085H
	DB	07cH
	DB	07cH
	DB	02H
	DB	02H
	DB	07cH
	DB	07cH
	DB	07cH
	DB	07cH
	DB	07cH
	DB	07cH
	DB	0faH
	DB	0faH
	DB	0faH
	DB	0faH
	DB	0faH
	DB	0faH
	DB	0faH
	DB	0faH
	DB	0faH
	DB	0faH
	DB	0faH
	DB	0faH
	DB	0faH
	DB	0faH
	DB	0faH
	DB	0faH
	DB	0faH
	DB	0faH
	DB	0faH
	DB	0faH
	DB	0faH
	DB	0faH
	DB	0faH
	DB	07cH
	DB	07cH
	DB	07cH
	DB	0faH
	DB	0faH
	DB	0faH
	DB	07cH
	DB	07cH
	DB	02H
	DB	02H
	DB	02H
	DB	0f3H
	DB	0f3H
	DB	049H
	DB	0f3H
	DB	02H
	DB	07cH
	DB	0faH
	DB	07cH
	DB	07cH
	DB	0faH
	DB	07cH
	DB	02H
	DB	044H
	DB	04cH
	DB	05H
	DB	0e8H
	DB	079H
	DB	013H
	DB	024H
	DB	060H
	DB	0cH
	DB	034H
	DB	05H
	DB	0f3H
	DB	0faH
	DB	06H
	DB	0faH
	DB	0faH
	DB	07cH
	DB	07cH
	DB	02H
	DB	02H
	DB	02H
	DB	02H
	DB	02H
	DB	02H
	DB	02H
	DB	02H
	DB	02H
	DB	049H
	DB	049H
	DB	049H
	DB	049H
	DB	049H
	DB	049H
	DB	049H
	DB	049H
	DB	049H
	DB	049H
	DB	049H
	DB	044H
	DB	044H
	DB	049H
	DB	049H
	DB	049H
	DB	049H
	DB	049H
	DB	044H
	DB	04H
	DB	05H
	DB	04bH
	DB	03dH
	DB	034H
	DB	079H
	DB	0cH
	DB	018H
	DB	014H
	DB	014H
	DB	014H
	DB	014H
	DB	014H
	DB	014H
	DB	014H
	DB	014H
	DB	014H
	DB	014H
	DB	014H
	DB	014H
	DB	014H
	DB	014H
	DB	024H
	DB	024H
	DB	03bH
	DB	024H
	DB	036H
	DB	01fH
	DB	013H
	DB	00H
	DB	00H
	DB	00H
	DB	00H
	DB	00H
	DB	00H
	DB	00H
	DB	00H
	DB	00H
	DB	00H
	DB	00H
	DB	00H
	DB	00H
	DB	080H
	DB	056H
	DB	07H
	DB	07H
	DB	056H
	DB	056H
	DB	012H
	DB	012H
	DB	056H
	DB	056H
	DB	056H
	DB	012H
	DB	071H
	DB	0bH
	DB	0bH
	DB	05bH
	DB	054H
	DB	05H
	DB	0efH
	DB	04H
	DB	04H
	DB	044H
	DB	04H
	DB	04H
	DB	044H
	DB	07bH
	DB	07bH
	DB	0f3H
	DB	07bH
	DB	0f3H
	DB	0f3H
	DB	02H
	DB	02H
	DB	02H
	DB	02H
	DB	02H
	DB	02H
	DB	02H
	DB	02H
	DB	02H
	DB	02H
	DB	02H
	DB	02H
	DB	02H
	DB	02H
	DB	02H
	DB	02H
	DB	02H
	DB	02H
	DB	02H
	DB	02H
	DB	02H
	DB	07cH
	DB	07cH
	DB	07cH
	DB	07cH
	DB	07cH
	DB	07cH
	DB	07cH
	DB	07cH
	DB	07cH
	DB	02H
	DB	02H
	DB	02H
	DB	02H
	DB	02H
	DB	02H
	DB	02H
	DB	02H
	DB	02H
	DB	02H
	DB	02H
	DB	02H
	DB	02H
	DB	02H
	DB	02H
	DB	02H
	DB	02H
	DB	02H
	DB	049H
	DB	044H
	DB	049H
	DB	0f3H
	DB	0f3H
	DB	02H
	DB	02H
	DB	02H
	DB	02H
	DB	0f3H
	DB	044H
	DB	04cH
	DB	05H
	DB	05bH
	DB	070H
	DB	0cH
	DB	013H
	DB	018H
	DB	060H
	DB	014H
	DB	014H
	DB	013H
	DB	05eH
	DB	070H
	DB	03aH
	DB	044H
	DB	07cH
	DB	0faH
	DB	0faH
	DB	02H
	DB	02H
	DB	02H
	DB	02H
	DB	02H
	DB	0f3H
	DB	0f3H
	DB	0f3H
	DB	049H
	DB	049H
	DB	049H
	DB	049H
	DB	049H
	DB	044H
	DB	044H
	DB	044H
	DB	044H
	DB	044H
	DB	044H
	DB	044H
	DB	044H
	DB	044H
	DB	044H
	DB	044H
	DB	044H
	DB	044H
	DB	044H
	DB	044H
	DB	04H
	DB	04cH
	DB	05H
	DB	04bH
	DB	0e8H
	DB	034H
	DB	02dH
	DB	01fH
	DB	018H
	DB	018H
	DB	018H
	DB	018H
	DB	018H
	DB	018H
	DB	018H
	DB	018H
	DB	018H
	DB	018H
	DB	018H
	DB	018H
	DB	018H
	DB	018H
	DB	018H
	DB	018H
	DB	018H
	DB	018H
	DB	036H
	DB	036H
	DB	01bH
	DB	00H
	DB	00H
	DB	00H
	DB	00H
	DB	00H
	DB	00H
	DB	00H
	DB	00H
	DB	00H
	DB	00H
	DB	00H
	DB	00H
	DB	00H
	DB	02eH
	DB	056H
	DB	056H
	DB	056H
	DB	056H
	DB	012H
	DB	012H
	DB	012H
	DB	012H
	DB	012H
	DB	012H
	DB	012H
	DB	012H
	DB	071H
	DB	071H
	DB	0bH
	DB	0bH
	DB	05bH
	DB	054H
	DB	05H
	DB	0efH
	DB	04H
	DB	04H
	DB	04H
	DB	044H
	DB	044H
	DB	044H
	DB	044H
	DB	049H
	DB	049H
	DB	049H
	DB	049H
	DB	049H
	DB	049H
	DB	049H
	DB	049H
	DB	049H
	DB	0f3H
	DB	0f3H
	DB	0f3H
	DB	0f3H
	DB	0f3H
	DB	0f3H
	DB	0f3H
	DB	0f3H
	DB	0f3H
	DB	02H
	DB	02H
	DB	0f3H
	DB	02H
	DB	02H
	DB	02H
	DB	02H
	DB	02H
	DB	02H
	DB	02H
	DB	02H
	DB	02H
	DB	02H
	DB	02H
	DB	02H
	DB	02H
	DB	02H
	DB	02H
	DB	02H
	DB	02H
	DB	02H
	DB	0f3H
	DB	0f3H
	DB	02H
	DB	0f3H
	DB	0f3H
	DB	02H
	DB	0f3H
	DB	0f3H
	DB	049H
	DB	049H
	DB	049H
	DB	049H
	DB	049H
	DB	049H
	DB	049H
	DB	049H
	DB	0f3H
	DB	0f3H
	DB	0f3H
	DB	0f3H
	DB	044H
	DB	04H
	DB	0efH
	DB	05H
	DB	03aH
	DB	0dH
	DB	010H
	DB	065H
	DB	013H
	DB	013H
	DB	013H
	DB	013H
	DB	013H
	DB	013H
	DB	013H
	DB	018H
	DB	013H
	DB	0cH
	DB	0e2H
	DB	0e8H
	DB	0efH
	DB	049H
	DB	02H
	DB	02H
	DB	0f3H
	DB	07bH
	DB	07bH
	DB	044H
	DB	044H
	DB	07bH
	DB	044H
	DB	044H
	DB	044H
	DB	044H
	DB	044H
	DB	04H
	DB	04H
	DB	04H
	DB	04H
	DB	04H
	DB	04H
	DB	04H
	DB	04H
	DB	04H
	DB	04H
	DB	04H
	DB	04H
	DB	04H
	DB	04H
	DB	04H
	DB	0efH
	DB	05H
	DB	03aH
	DB	0bH
	DB	0dH
	DB	0fH
	DB	015H
	DB	065H
	DB	013H
	DB	013H
	DB	013H
	DB	013H
	DB	013H
	DB	013H
	DB	013H
	DB	013H
	DB	013H
	DB	013H
	DB	013H
	DB	013H
	DB	013H
	DB	013H
	DB	013H
	DB	013H
	DB	013H
	DB	013H
	DB	038H
	DB	024H
	DB	00H
	DB	00H
	DB	00H
	DB	00H
	DB	00H
	DB	00H
	DB	00H
	DB	00H
	DB	00H
	DB	00H
	DB	00H
	DB	00H
	DB	00H
	DB	02eH
	DB	012H
	DB	056H
	DB	056H
	DB	056H
	DB	056H
	DB	056H
	DB	056H
	DB	056H
	DB	012H
	DB	012H
	DB	012H
	DB	012H
	DB	012H
	DB	012H
	DB	012H
	DB	0dH
	DB	071H
	DB	0e8H
	DB	0bH
	DB	05bH
	DB	054H
	DB	05H
	DB	091H
	DB	0efH
	DB	04H
	DB	04H
	DB	04H
	DB	04H
	DB	04H
	DB	04H
	DB	04H
	DB	04H
	DB	04H
	DB	04H
	DB	04H
	DB	04H
	DB	04H
	DB	04H
	DB	04H
	DB	044H
	DB	044H
	DB	044H
	DB	044H
	DB	044H
	DB	044H
	DB	044H
	DB	044H
	DB	044H
	DB	044H
	DB	044H
	DB	044H
	DB	044H
	DB	044H
	DB	044H
	DB	044H
	DB	044H
	DB	044H
	DB	044H
	DB	044H
	DB	044H
	DB	044H
	DB	044H
	DB	044H
	DB	044H
	DB	044H
	DB	044H
	DB	044H
	DB	044H
	DB	044H
	DB	044H
	DB	044H
	DB	044H
	DB	044H
	DB	044H
	DB	044H
	DB	044H
	DB	044H
	DB	044H
	DB	044H
	DB	044H
	DB	044H
	DB	044H
	DB	044H
	DB	044H
	DB	044H
	DB	04H
	DB	04H
	DB	0efH
	DB	05H
	DB	05bH
	DB	03dH
	DB	0e2H
	DB	0cH
	DB	01fH
	DB	01fH
	DB	01fH
	DB	01fH
	DB	01fH
	DB	01fH
	DB	01fH
	DB	01fH
	DB	01fH
	DB	065H
	DB	065H
	DB	065H
	DB	065H
	DB	0cH
	DB	010H
	DB	0dH
	DB	03aH
	DB	04H
	DB	044H
	DB	044H
	DB	044H
	DB	04H
	DB	04H
	DB	04H
	DB	04H
	DB	04H
	DB	04H
	DB	04H
	DB	04H
	DB	04H
	DB	0efH
	DB	0efH
	DB	0efH
	DB	0efH
	DB	0efH
	DB	0efH
	DB	0efH
	DB	0efH
	DB	0efH
	DB	0efH
	DB	0efH
	DB	0efH
	DB	0efH
	DB	059H
	DB	05H
	DB	04bH
	DB	0bH
	DB	0e8H
	DB	034H
	DB	0e2H
	DB	025H
	DB	01fH
	DB	01fH
	DB	01fH
	DB	01fH
	DB	01fH
	DB	01fH
	DB	01fH
	DB	01fH
	DB	01fH
	DB	0cH
	DB	01fH
	DB	01fH
	DB	01fH
	DB	01fH
	DB	01fH
	DB	01fH
	DB	01fH
	DB	01fH
	DB	0cH
	DB	014H
	DB	00H
	DB	00H
	DB	00H
	DB	00H
	DB	00H
	DB	00H
	DB	00H
	DB	00H
	DB	00H
	DB	00H
	DB	00H
	DB	00H
	DB	00H
	DB	02eH
	DB	056H
	DB	056H
	DB	056H
	DB	056H
	DB	056H
	DB	056H
	DB	056H
	DB	0dH
	DB	071H
	DB	071H
	DB	071H
	DB	071H
	DB	071H
	DB	0dH
	DB	070H
	DB	070H
	DB	070H
	DB	0dH
	DB	0e8H
	DB	0bH
	DB	05bH
	DB	05bH
	DB	05H
	DB	063H
	DB	0efH
	DB	0efH
	DB	0efH
	DB	0efH
	DB	0efH
	DB	091H
	DB	091H
	DB	091H
	DB	091H
	DB	0efH
	DB	0efH
	DB	0efH
	DB	0efH
	DB	0efH
	DB	0efH
	DB	0efH
	DB	0efH
	DB	0efH
	DB	0efH
	DB	0efH
	DB	0efH
	DB	0efH
	DB	0efH
	DB	0efH
	DB	0efH
	DB	04H
	DB	04H
	DB	044H
	DB	044H
	DB	04H
	DB	04H
	DB	0efH
	DB	04H
	DB	044H
	DB	044H
	DB	044H
	DB	044H
	DB	04H
	DB	04H
	DB	04cH
	DB	04cH
	DB	04cH
	DB	04H
	DB	04H
	DB	044H
	DB	04H
	DB	04H
	DB	04H
	DB	0efH
	DB	04cH
	DB	04cH
	DB	04cH
	DB	04cH
	DB	04cH
	DB	04H
	DB	04H
	DB	044H
	DB	044H
	DB	04H
	DB	04H
	DB	0efH
	DB	091H
	DB	05H
	DB	05H
	DB	05bH
	DB	0bH
	DB	070H
	DB	010H
	DB	0cH
	DB	0cH
	DB	0cH
	DB	0cH
	DB	05eH
	DB	05eH
	DB	05eH
	DB	05eH
	DB	05eH
	DB	05eH
	DB	0cH
	DB	0cH
	DB	0cH
	DB	0cH
	DB	0cH
	DB	0cH
	DB	0cH
	DB	0cH
	DB	010H
	DB	034H
	DB	0bH
	DB	091H
	DB	04H
	DB	04H
	DB	04H
	DB	04H
	DB	04H
	DB	0efH
	DB	091H
	DB	0efH
	DB	091H
	DB	063H
	DB	063H
	DB	063H
	DB	063H
	DB	05H
	DB	05H
	DB	05H
	DB	05H
	DB	05H
	DB	05H
	DB	05H
	DB	05H
	DB	05H
	DB	05H
	DB	03aH
	DB	05bH
	DB	0bH
	DB	0e8H
	DB	0dH
	DB	0fH
	DB	010H
	DB	05eH
	DB	0cH
	DB	0cH
	DB	0cH
	DB	0cH
	DB	0cH
	DB	0cH
	DB	0cH
	DB	0cH
	DB	05eH
	DB	05eH
	DB	05eH
	DB	05eH
	DB	025H
	DB	025H
	DB	025H
	DB	05eH
	DB	025H
	DB	015H
	DB	060H
	DB	00H
	DB	00H
	DB	00H
	DB	00H
	DB	00H
	DB	00H
	DB	00H
	DB	00H
	DB	00H
	DB	00H
	DB	00H
	DB	00H
	DB	00H
	DB	017H
	DB	0dH
	DB	012H
	DB	012H
	DB	012H
	DB	012H
	DB	012H
	DB	0dH
	DB	0fH
	DB	0d5H
	DB	0d5H
	DB	0d5H
	DB	0d5H
	DB	0d5H
	DB	038H
	DB	010H
	DB	0fH
	DB	079H
	DB	0e2H
	DB	070H
	DB	0dH
	DB	0dH
	DB	0e8H
	DB	0bH
	DB	05bH
	DB	03aH
	DB	05H
	DB	05H
	DB	05H
	DB	05H
	DB	05H
	DB	05H
	DB	05H
	DB	05H
	DB	05H
	DB	05H
	DB	05H
	DB	05H
	DB	05H
	DB	05H
	DB	05H
	DB	05H
	DB	05H
	DB	05H
	DB	05H
	DB	05H
	DB	05H
	DB	05H
	DB	05H
	DB	05H
	DB	05H
	DB	046H
	DB	0dcH
	DB	0dcH
	DB	034H
	DB	03aH
	DB	063H
	DB	03aH
	DB	0dcH
	DB	0dcH
	DB	0dcH
	DB	0dcH
	DB	02fH
	DB	04bH
	DB	063H
	DB	05H
	DB	0efH
	DB	0bH
	DB	0dcH
	DB	0dcH
	DB	0dcH
	DB	046H
	DB	05H
	DB	05H
	DB	05H
	DB	05H
	DB	05H
	DB	05H
	DB	063H
	DB	03aH
	DB	034H
	DB	0dcH
	DB	0dcH
	DB	046H
	DB	05H
	DB	05H
	DB	03aH
	DB	05bH
	DB	0bH
	DB	0e8H
	DB	034H
	DB	079H
	DB	015H
	DB	015H
	DB	015H
	DB	015H
	DB	015H
	DB	015H
	DB	015H
	DB	015H
	DB	015H
	DB	015H
	DB	015H
	DB	015H
	DB	015H
	DB	015H
	DB	015H
	DB	015H
	DB	015H
	DB	05eH
	DB	05eH
	DB	05eH
	DB	05eH
	DB	0cH
	DB	018H
	DB	0d5H
	DB	0dH
	DB	0bH
	DB	0dcH
	DB	0dcH
	DB	0bH
	DB	05H
	DB	05H
	DB	05H
	DB	03aH
	DB	03aH
	DB	03aH
	DB	03aH
	DB	03aH
	DB	03aH
	DB	03aH
	DB	03aH
	DB	03aH
	DB	05bH
	DB	05bH
	DB	05bH
	DB	03aH
	DB	05bH
	DB	0bH
	DB	0bH
	DB	0bH
	DB	03dH
	DB	0dH
	DB	02fH
	DB	0e2H
	DB	010H
	DB	015H
	DB	015H
	DB	015H
	DB	015H
	DB	015H
	DB	015H
	DB	015H
	DB	015H
	DB	015H
	DB	015H
	DB	015H
	DB	015H
	DB	015H
	DB	015H
	DB	015H
	DB	015H
	DB	015H
	DB	010H
	DB	013H
	DB	00H
	DB	00H
	DB	00H
	DB	00H
	DB	00H
	DB	00H
	DB	00H
	DB	00H
	DB	00H
	DB	00H
	DB	00H
	DB	00H
	DB	00H
	DB	017H
	DB	070H
	DB	056H
	DB	056H
	DB	056H
	DB	070H
	DB	056H
	DB	0fH
	DB	098H
	DB	083H
	DB	03fH
	DB	084H
	DB	084H
	DB	084H
	DB	03fH
	DB	087H
	DB	02dH
	DB	010H
	DB	015H
	DB	010H
	DB	079H
	DB	0fH
	DB	070H
	DB	0dH
	DB	0dH
	DB	046H
	DB	010H
	DB	035H
	DB	0fH
	DB	04bH
	DB	0bH
	DB	0bH
	DB	0bH
	DB	0bH
	DB	0bH
	DB	0bH
	DB	0bH
	DB	0bH
	DB	0bH
	DB	0bH
	DB	0bH
	DB	0bH
	DB	0bH
	DB	0bH
	DB	0bH
	DB	0bH
	DB	0bH
	DB	0bH
	DB	05bH
	DB	0dH
	DB	077H
	DB	07dH
	DB	03fH
	DB	084H
	DB	053H
	DB	098H
	DB	03dH
	DB	05eH
	DB	07dH
	DB	03fH
	DB	084H
	DB	084H
	DB	083H
	DB	0cfH
	DB	010H
	DB	04bH
	DB	065H
	DB	0cfH
	DB	03fH
	DB	084H
	DB	03fH
	DB	026H
	DB	021H
	DB	03aH
	DB	0bH
	DB	0bH
	DB	0bH
	DB	04bH
	DB	0e2H
	DB	098H
	DB	053H
	DB	03fH
	DB	03fH
	DB	07dH
	DB	021H
	DB	0bH
	DB	0e8H
	DB	0e8H
	DB	0dH
	DB	034H
	DB	0e2H
	DB	010H
	DB	015H
	DB	015H
	DB	015H
	DB	015H
	DB	015H
	DB	015H
	DB	015H
	DB	015H
	DB	015H
	DB	015H
	DB	015H
	DB	015H
	DB	015H
	DB	015H
	DB	015H
	DB	015H
	DB	015H
	DB	015H
	DB	015H
	DB	015H
	DB	010H
	DB	03cH
	DB	083H
	DB	083H
	DB	035H
	DB	05dH
	DB	03fH
	DB	053H
	DB	030H
	DB	05bH
	DB	0bH
	DB	0bH
	DB	0bH
	DB	0bH
	DB	0bH
	DB	0bH
	DB	0bH
	DB	0bH
	DB	0bH
	DB	0bH
	DB	0bH
	DB	0bH
	DB	0e8H
	DB	0e8H
	DB	0e8H
	DB	0e8H
	DB	0e8H
	DB	046H
	DB	0cH
	DB	055H
	DB	079H
	DB	02fH
	DB	0e2H
	DB	010H
	DB	015H
	DB	015H
	DB	015H
	DB	015H
	DB	015H
	DB	015H
	DB	015H
	DB	015H
	DB	015H
	DB	015H
	DB	015H
	DB	015H
	DB	015H
	DB	015H
	DB	015H
	DB	015H
	DB	015H
	DB	010H
	DB	013H
	DB	00H
	DB	00H
	DB	00H
	DB	00H
	DB	00H
	DB	00H
	DB	00H
	DB	00H
	DB	00H
	DB	00H
	DB	00H
	DB	00H
	DB	00H
	DB	017H
	DB	0fH
	DB	0e2H
	DB	0e2H
	DB	0fH
	DB	0fH
	DB	0fH
	DB	010H
	DB	0cfH
	DB	09H
	DB	09H
	DB	0acH
	DB	0acH
	DB	0acH
	DB	02aH
	DB	087H
	DB	010H
	DB	025H
	DB	025H
	DB	015H
	DB	015H
	DB	015H
	DB	02dH
	DB	0e2H
	DB	0fH
	DB	060H
	DB	083H
	DB	084H
	DB	013H
	DB	046H
	DB	0dH
	DB	067H
	DB	046H
	DB	046H
	DB	046H
	DB	046H
	DB	0e8H
	DB	0dH
	DB	0dH
	DB	046H
	DB	046H
	DB	046H
	DB	046H
	DB	046H
	DB	067H
	DB	0dH
	DB	0dH
	DB	0e8H
	DB	02fH
	DB	098H
	DB	02aH
	DB	09H
	DB	09H
	DB	09H
	DB	09H
	DB	083H
	DB	015H
	DB	099H
	DB	02aH
	DB	09H
	DB	0acH
	DB	02aH
	DB	09H
	DB	09H
	DB	0cfH
	DB	024H
	DB	084H
	DB	09H
	DB	09H
	DB	09H
	DB	09H
	DB	0acH
	DB	035H
	DB	03dH
	DB	0dH
	DB	0dH
	DB	0e8H
	DB	015H
	DB	026H
	DB	09H
	DB	09H
	DB	09H
	DB	09H
	DB	0acH
	DB	035H
	DB	046H
	DB	0dH
	DB	034H
	DB	0fH
	DB	02dH
	DB	010H
	DB	015H
	DB	015H
	DB	015H
	DB	015H
	DB	010H
	DB	015H
	DB	025H
	DB	025H
	DB	015H
	DB	015H
	DB	015H
	DB	015H
	DB	025H
	DB	025H
	DB	015H
	DB	015H
	DB	025H
	DB	015H
	DB	015H
	DB	015H
	DB	025H
	DB	015H
	DB	087H
	DB	09H
	DB	0acH
	DB	055H
	DB	055H
	DB	0acH
	DB	0acH
	DB	01bH
	DB	079H
	DB	0e2H
	DB	0fH
	DB	0dH
	DB	046H
	DB	0dH
	DB	0dH
	DB	0dH
	DB	0dH
	DB	0dH
	DB	0dH
	DB	046H
	DB	0dH
	DB	0dH
	DB	0dH
	DB	0dH
	DB	0dH
	DB	034H
	DB	035H
	DB	084H
	DB	083H
	DB	038H
	DB	0fH
	DB	079H
	DB	010H
	DB	015H
	DB	025H
	DB	025H
	DB	015H
	DB	015H
	DB	015H
	DB	015H
	DB	015H
	DB	015H
	DB	025H
	DB	025H
	DB	015H
	DB	015H
	DB	015H
	DB	015H
	DB	015H
	DB	015H
	DB	015H
	DB	013H
	DB	00H
	DB	00H
	DB	00H
	DB	00H
	DB	00H
	DB	00H
	DB	00H
	DB	00H
	DB	00H
	DB	00H
	DB	00H
	DB	00H
	DB	00H
	DB	02eH
	DB	079H
	DB	010H
	DB	010H
	DB	010H
	DB	010H
	DB	010H
	DB	025H
	DB	0cfH
	DB	09H
	DB	09H
	DB	0c7H
	DB	0aH
	DB	02eH
	DB	080H
	DB	05cH
	DB	060H
	DB	055H
	DB	035H
	DB	0c5H
	DB	035H
	DB	055H
	DB	014H
	DB	0cH
	DB	014H
	DB	026H
	DB	09H
	DB	02aH
	DB	05fH
	DB	030H
	DB	0e2H
	DB	02dH
	DB	013H
	DB	05dH
	DB	081H
	DB	030H
	DB	015H
	DB	070H
	DB	0fH
	DB	077H
	DB	081H
	DB	030H
	DB	013H
	DB	05dH
	DB	010H
	DB	070H
	DB	0fH
	DB	02fH
	DB	0caH
	DB	02aH
	DB	09H
	DB	031H
	DB	050H
	DB	057H
	DB	0bfH
	DB	0c0H
	DB	010H
	DB	030H
	DB	02aH
	DB	09H
	DB	07dH
	DB	023H
	DB	031H
	DB	09H
	DB	06fH
	DB	040H
	DB	09H
	DB	02aH
	DB	050H
	DB	08cH
	DB	09eH
	DB	050H
	DB	060H
	DB	070H
	DB	070H
	DB	070H
	DB	02dH
	DB	0cfH
	DB	09H
	DB	09H
	DB	03fH
	DB	09eH
	DB	09eH
	DB	09eH
	DB	014H
	DB	0fH
	DB	025H
	DB	060H
	DB	081H
	DB	081H
	DB	035H
	DB	013H
	DB	05eH
	DB	05eH
	DB	025H
	DB	018H
	DB	035H
	DB	055H
	DB	055H
	DB	035H
	DB	038H
	DB	015H
	DB	038H
	DB	055H
	DB	055H
	DB	060H
	DB	035H
	DB	035H
	DB	0cH
	DB	0cH
	DB	014H
	DB	055H
	DB	035H
	DB	08cH
	DB	09H
	DB	0acH
	DB	055H
	DB	014H
	DB	0c7H
	DB	051H
	DB	05cH
	DB	065H
	DB	055H
	DB	055H
	DB	014H
	DB	060H
	DB	081H
	DB	05dH
	DB	025H
	DB	070H
	DB	070H
	DB	010H
	DB	013H
	DB	05dH
	DB	081H
	DB	05dH
	DB	0d5H
	DB	0e2H
	DB	082H
	DB	07dH
	DB	09H
	DB	031H
	DB	05fH
	DB	030H
	DB	010H
	DB	01fH
	DB	035H
	DB	055H
	DB	055H
	DB	035H
	DB	038H
	DB	05eH
	DB	05eH
	DB	018H
	DB	035H
	DB	055H
	DB	055H
	DB	014H
	DB	0cH
	DB	05eH
	DB	0cH
	DB	0cH
	DB	0cH
	DB	05eH
	DB	013H
	DB	00H
	DB	00H
	DB	00H
	DB	00H
	DB	00H
	DB	00H
	DB	00H
	DB	00H
	DB	00H
	DB	00H
	DB	00H
	DB	00H
	DB	00H
	DB	080H
	DB	010H
	DB	05eH
	DB	05eH
	DB	05eH
	DB	05eH
	DB	05eH
	DB	038H
	DB	074H
	DB	09H
	DB	09H
	DB	050H
	DB	08bH
	DB	039H
	DB	01bH
	DB	03bH
	DB	074H
	DB	09H
	DB	031H
	DB	07dH
	DB	09H
	DB	09H
	DB	031H
	DB	045H
	DB	074H
	DB	09H
	DB	09H
	DB	09H
	DB	09H
	DB	053H
	DB	0c5H
	DB	0a2H
	DB	031H
	DB	09H
	DB	09H
	DB	02aH
	DB	0a3H
	DB	013H
	DB	013H
	DB	083H
	DB	09H
	DB	07dH
	DB	084H
	DB	06fH
	DB	014H
	DB	0e2H
	DB	010H
	DB	025H
	DB	0a3H
	DB	09H
	DB	0acH
	DB	09dH
	DB	027H
	DB	01bH
	DB	020H
	DB	03bH
	DB	0cH
	DB	035H
	DB	02aH
	DB	09H
	DB	07dH
	DB	0b1H
	DB	026H
	DB	09H
	DB	02aH
	DB	053H
	DB	09H
	DB	02aH
	DB	0aH
	DB	08bH
	DB	096H
	DB	020H
	DB	060H
	DB	010H
	DB	010H
	DB	079H
	DB	018H
	DB	031H
	DB	09H
	DB	06fH
	DB	03H
	DB	017H
	DB	020H
	DB	039H
	DB	018H
	DB	014H
	DB	0a3H
	DB	02aH
	DB	09H
	DB	09H
	DB	02aH
	DB	026H
	DB	03bH
	DB	0cH
	DB	01bH
	DB	026H
	DB	02aH
	DB	09H
	DB	09H
	DB	06fH
	DB	074H
	DB	013H
	DB	03bH
	DB	06fH
	DB	09H
	DB	026H
	DB	02aH
	DB	084H
	DB	03bH
	DB	035H
	DB	031H
	DB	09H
	DB	0acH
	DB	03fH
	DB	09H
	DB	0acH
	DB	073H
	DB	05fH
	DB	0acH
	DB	02aH
	DB	045H
	DB	05cH
	DB	031H
	DB	09H
	DB	026H
	DB	06fH
	DB	09H
	DB	0acH
	DB	0a3H
	DB	038H
	DB	025H
	DB	081H
	DB	06fH
	DB	0acH
	DB	09H
	DB	0acH
	DB	07dH
	DB	096H
	DB	026H
	DB	09H
	DB	09H
	DB	09H
	DB	09H
	DB	026H
	DB	09fH
	DB	074H
	DB	06fH
	DB	09H
	DB	09H
	DB	06fH
	DB	040H
	DB	036H
	DB	014H
	DB	026H
	DB	02aH
	DB	09H
	DB	0acH
	DB	03fH
	DB	014H
	DB	0cH
	DB	01fH
	DB	01fH
	DB	01fH
	DB	0cH
	DB	060H
	DB	00H
	DB	00H
	DB	00H
	DB	00H
	DB	00H
	DB	00H
	DB	00H
	DB	00H
	DB	00H
	DB	00H
	DB	00H
	DB	00H
	DB	00H
	DB	080H
	DB	0cH
	DB	065H
	DB	065H
	DB	065H
	DB	065H
	DB	065H
	DB	018H
	DB	074H
	DB	09H
	DB	09H
	DB	026H
	DB	05fH
	DB	05fH
	DB	035H
	DB	036H
	DB	074H
	DB	09H
	DB	09H
	DB	031H
	DB	03fH
	DB	09H
	DB	09H
	DB	0a3H
	DB	095H
	DB	083H
	DB	09H
	DB	02aH
	DB	0a3H
	DB	073H
	DB	0b5H
	DB	02aH
	DB	09H
	DB	07dH
	DB	026H
	DB	09H
	DB	09H
	DB	074H
	DB	03bH
	DB	084H
	DB	09H
	DB	0acH
	DB	09H
	DB	06fH
	DB	01bH
	DB	05eH
	DB	05eH
	DB	036H
	DB	083H
	DB	09H
	DB	084H
	DB	02cH
	DB	014H
	DB	03bH
	DB	03bH
	DB	01bH
	DB	036H
	DB	035H
	DB	02aH
	DB	09H
	DB	07dH
	DB	069H
	DB	084H
	DB	09H
	DB	02aH
	DB	050H
	DB	09H
	DB	09H
	DB	02aH
	DB	026H
	DB	055H
	DB	0c5H
	DB	01fH
	DB	0cH
	DB	0cH
	DB	0cH
	DB	055H
	DB	0acH
	DB	09H
	DB	026H
	DB	02cH
	DB	013H
	DB	065H
	DB	065H
	DB	018H
	DB	040H
	DB	09H
	DB	09H
	DB	026H
	DB	026H
	DB	09H
	DB	09H
	DB	0a3H
	DB	096H
	DB	026H
	DB	09H
	DB	0acH
	DB	0a3H
	DB	07dH
	DB	09H
	DB	09H
	DB	0c8H
	DB	072H
	DB	02aH
	DB	09H
	DB	0acH
	DB	09H
	DB	084H
	DB	02cH
	DB	084H
	DB	09H
	DB	02aH
	DB	026H
	DB	02aH
	DB	09H
	DB	0acH
	DB	073H
	DB	05fH
	DB	09H
	DB	0acH
	DB	045H
	DB	01bH
	DB	06fH
	DB	09H
	DB	0acH
	DB	03fH
	DB	06fH
	DB	09H
	DB	02aH
	DB	095H
	DB	038H
	DB	055H
	DB	07dH
	DB	040H
	DB	0a3H
	DB	02aH
	DB	09H
	DB	0c8H
	DB	087H
	DB	084H
	DB	09H
	DB	06fH
	DB	040H
	DB	073H
	DB	0c0H
	DB	0acH
	DB	09H
	DB	026H
	DB	07dH
	DB	09H
	DB	0acH
	DB	087H
	DB	0c0H
	DB	09H
	DB	06fH
	DB	0c7H
	DB	0a3H
	DB	0a3H
	DB	024H
	DB	065H
	DB	013H
	DB	013H
	DB	013H
	DB	065H
	DB	014H
	DB	00H
	DB	00H
	DB	00H
	DB	00H
	DB	00H
	DB	00H
	DB	00H
	DB	00H
	DB	00H
	DB	00H
	DB	00H
	DB	00H
	DB	00H
	DB	0aH
	DB	013H
	DB	060H
	DB	060H
	DB	060H
	DB	060H
	DB	060H
	DB	0c5H
	DB	074H
	DB	09H
	DB	09H
	DB	09H
	DB	09H
	DB	09H
	DB	0c8H
	DB	09fH
	DB	074H
	DB	09H
	DB	02aH
	DB	0aH
	DB	023H
	DB	084H
	DB	09H
	DB	07dH
	DB	08bH
	DB	0c7H
	DB	09H
	DB	06fH
	DB	023H
	DB	069H
	DB	026H
	DB	09H
	DB	031H
	DB	023H
	DB	023H
	DB	053H
	DB	09H
	DB	083H
	DB	027H
	DB	084H
	DB	09H
	DB	09H
	DB	026H
	DB	09dH
	DB	01bH
	DB	013H
	DB	065H
	DB	01bH
	DB	084H
	DB	09H
	DB	053H
	DB	039H
	DB	087H
	DB	031H
	DB	031H
	DB	031H
	DB	0a3H
	DB	095H
	DB	02aH
	DB	09H
	DB	02aH
	DB	06fH
	DB	09H
	DB	09H
	DB	0a3H
	DB	023H
	DB	026H
	DB	09H
	DB	09H
	DB	09H
	DB	0acH
	DB	0a3H
	DB	03bH
	DB	065H
	DB	013H
	DB	013H
	DB	0c0H
	DB	09H
	DB	09H
	DB	040H
	DB	020H
	DB	013H
	DB	013H
	DB	065H
	DB	020H
	DB	06fH
	DB	09H
	DB	07dH
	DB	023H
	DB	023H
	DB	026H
	DB	09H
	DB	06fH
	DB	09dH
	DB	0acH
	DB	09H
	DB	0a3H
	DB	023H
	DB	023H
	DB	03fH
	DB	09H
	DB	03fH
	DB	023H
	DB	02aH
	DB	09H
	DB	0acH
	DB	040H
	DB	09dH
	DB	02eH
	DB	0acH
	DB	09H
	DB	051H
	DB	023H
	DB	050H
	DB	09H
	DB	0acH
	DB	073H
	DB	0c0H
	DB	09H
	DB	0acH
	DB	02eH
	DB	020H
	DB	06fH
	DB	09H
	DB	0a3H
	DB	023H
	DB	050H
	DB	09H
	DB	0acH
	DB	017H
	DB	036H
	DB	095H
	DB	040H
	DB	083H
	DB	0a3H
	DB	084H
	DB	09H
	DB	07dH
	DB	096H
	DB	0a3H
	DB	09H
	DB	084H
	DB	023H
	DB	02cH
	DB	083H
	DB	09H
	DB	053H
	DB	023H
	DB	023H
	DB	084H
	DB	09H
	DB	026H
	DB	0bfH
	DB	09H
	DB	031H
	DB	057H
	DB	023H
	DB	069H
	DB	05cH
	DB	060H
	DB	060H
	DB	060H
	DB	060H
	DB	060H
	DB	05cH
	DB	00H
	DB	00H
	DB	00H
	DB	00H
	DB	00H
	DB	00H
	DB	00H
	DB	00H
	DB	00H
	DB	00H
	DB	00H
	DB	00H
	DB	00H
	DB	0aH
	DB	014H
	DB	014H
	DB	014H
	DB	014H
	DB	014H
	DB	014H
	DB	03bH
	DB	0c7H
	DB	09H
	DB	09H
	DB	053H
	DB	0a3H
	DB	0a3H
	DB	0b5H
	DB	096H
	DB	040H
	DB	09H
	DB	06fH
	DB	0aH
	DB	02cH
	DB	03fH
	DB	09H
	DB	026H
	DB	08bH
	DB	074H
	DB	09H
	DB	06fH
	DB	080H
	DB	027H
	DB	03fH
	DB	09H
	DB	0acH
	DB	06fH
	DB	06fH
	DB	0acH
	DB	09H
	DB	031H
	DB	023H
	DB	084H
	DB	09H
	DB	03fH
	DB	023H
	DB	02cH
	DB	01bH
	DB	014H
	DB	014H
	DB	020H
	DB	084H
	DB	09H
	DB	083H
	DB	039H
	DB	03cH
	DB	03fH
	DB	0acH
	DB	09H
	DB	083H
	DB	02eH
	DB	02aH
	DB	09H
	DB	0acH
	DB	02aH
	DB	031H
	DB	040H
	DB	023H
	DB	020H
	DB	02cH
	DB	09eH
	DB	083H
	DB	09H
	DB	09H
	DB	09H
	DB	05fH
	DB	024H
	DB	014H
	DB	014H
	DB	073H
	DB	0acH
	DB	09H
	DB	0a3H
	DB	020H
	DB	014H
	DB	014H
	DB	014H
	DB	0b5H
	DB	0acH
	DB	09H
	DB	040H
	DB	02cH
	DB	039H
	DB	0c7H
	DB	09H
	DB	0acH
	DB	050H
	DB	09H
	DB	09H
	DB	09eH
	DB	017H
	DB	072H
	DB	026H
	DB	09H
	DB	02aH
	DB	00H
	DB	02aH
	DB	09H
	DB	07dH
	DB	023H
	DB	04dH
	DB	0c0H
	DB	09H
	DB	09H
	DB	09eH
	DB	017H
	DB	02eH
	DB	09H
	DB	0acH
	DB	09eH
	DB	0c0H
	DB	09H
	DB	0acH
	DB	080H
	DB	017H
	DB	06fH
	DB	09H
	DB	040H
	DB	04dH
	DB	051H
	DB	09H
	DB	0acH
	DB	080H
	DB	095H
	DB	031H
	DB	09H
	DB	031H
	DB	084H
	DB	09H
	DB	09H
	DB	07dH
	DB	08bH
	DB	026H
	DB	09H
	DB	084H
	DB	02cH
	DB	017H
	DB	031H
	DB	09H
	DB	0acH
	DB	06fH
	DB	06fH
	DB	0acH
	DB	09H
	DB	03fH
	DB	04fH
	DB	02aH
	DB	09H
	DB	09H
	DB	02aH
	DB	0a3H
	DB	017H
	DB	014H
	DB	014H
	DB	014H
	DB	014H
	DB	014H
	DB	01bH
	DB	00H
	DB	00H
	DB	00H
	DB	00H
	DB	00H
	DB	00H
	DB	00H
	DB	00H
	DB	00H
	DB	00H
	DB	00H
	DB	00H
	DB	00H
	DB	03H
	DB	01bH
	DB	01bH
	DB	01bH
	DB	01bH
	DB	01bH
	DB	01bH
	DB	039H
	DB	0c7H
	DB	09H
	DB	09H
	DB	050H
	DB	023H
	DB	023H
	DB	080H
	DB	039H
	DB	040H
	DB	09H
	DB	06fH
	DB	080H
	DB	027H
	DB	03fH
	DB	09H
	DB	026H
	DB	069H
	DB	040H
	DB	09H
	DB	06fH
	DB	080H
	DB	017H
	DB	084H
	DB	09H
	DB	031H
	DB	026H
	DB	07dH
	DB	07dH
	DB	026H
	DB	0c7H
	DB	03H
	DB	084H
	DB	09H
	DB	026H
	DB	069H
	DB	020H
	DB	01bH
	DB	01bH
	DB	01bH
	DB	039H
	DB	026H
	DB	09H
	DB	06fH
	DB	080H
	DB	01bH
	DB	069H
	DB	07dH
	DB	09H
	DB	083H
	DB	0aH
	DB	02aH
	DB	09H
	DB	07dH
	DB	00H
	DB	023H
	DB	023H
	DB	080H
	DB	01bH
	DB	01bH
	DB	02cH
	DB	023H
	DB	0bfH
	DB	09H
	DB	09H
	DB	07dH
	DB	039H
	DB	05cH
	DB	01bH
	DB	017H
	DB	06fH
	DB	09H
	DB	083H
	DB	02cH
	DB	05cH
	DB	01bH
	DB	01bH
	DB	02eH
	DB	0acH
	DB	09H
	DB	040H
	DB	017H
	DB	039H
	DB	0c7H
	DB	09H
	DB	0acH
	DB	050H
	DB	09H
	DB	09H
	DB	050H
	DB	039H
	DB	039H
	DB	026H
	DB	09H
	DB	02aH
	DB	00H
	DB	02aH
	DB	09H
	DB	0c7H
	DB	0aH
	DB	039H
	DB	05fH
	DB	09H
	DB	09H
	DB	09eH
	DB	039H
	DB	02eH
	DB	09H
	DB	0acH
	DB	057H
	DB	050H
	DB	09H
	DB	0acH
	DB	0aH
	DB	017H
	DB	06fH
	DB	09H
	DB	040H
	DB	08bH
	DB	05fH
	DB	09H
	DB	0acH
	DB	023H
	DB	040H
	DB	09H
	DB	06fH
	DB	04fH
	DB	023H
	DB	031H
	DB	09H
	DB	07dH
	DB	069H
	DB	026H
	DB	09H
	DB	084H
	DB	02cH
	DB	017H
	DB	06fH
	DB	09H
	DB	084H
	DB	026H
	DB	07dH
	DB	026H
	DB	026H
	DB	051H
	DB	02cH
	DB	02eH
	DB	07dH
	DB	06fH
	DB	09H
	DB	09H
	DB	0c7H
	DB	039H
	DB	01bH
	DB	01bH
	DB	01bH
	DB	01bH
	DB	045H
	DB	00H
	DB	00H
	DB	00H
	DB	00H
	DB	00H
	DB	00H
	DB	00H
	DB	00H
	DB	00H
	DB	00H
	DB	00H
	DB	00H
	DB	00H
	DB	04fH
	DB	095H
	DB	095H
	DB	095H
	DB	095H
	DB	095H
	DB	095H
	DB	027H
	DB	0c7H
	DB	09H
	DB	09H
	DB	050H
	DB	023H
	DB	069H
	DB	069H
	DB	02cH
	DB	040H
	DB	09H
	DB	06fH
	DB	0aH
	DB	02cH
	DB	03fH
	DB	09H
	DB	026H
	DB	069H
	DB	040H
	DB	09H
	DB	06fH
	DB	023H
	DB	069H
	DB	026H
	DB	09H
	DB	03fH
	DB	00H
	DB	023H
	DB	023H
	DB	00H
	DB	023H
	DB	0aH
	DB	084H
	DB	09H
	DB	026H
	DB	069H
	DB	095H
	DB	095H
	DB	095H
	DB	095H
	DB	027H
	DB	051H
	DB	09H
	DB	09H
	DB	051H
	DB	069H
	DB	023H
	DB	083H
	DB	09H
	DB	083H
	DB	04fH
	DB	02aH
	DB	09H
	DB	07dH
	DB	023H
	DB	0aH
	DB	080H
	DB	017H
	DB	017H
	DB	02eH
	DB	02cH
	DB	023H
	DB	057H
	DB	0acH
	DB	09H
	DB	026H
	DB	02cH
	DB	095H
	DB	095H
	DB	02cH
	DB	07dH
	DB	09H
	DB	0acH
	DB	050H
	DB	069H
	DB	04dH
	DB	02eH
	DB	03H
	DB	06fH
	DB	09H
	DB	053H
	DB	069H
	DB	069H
	DB	07dH
	DB	09H
	DB	06fH
	DB	086H
	DB	02aH
	DB	09H
	DB	0a3H
	DB	069H
	DB	069H
	DB	03fH
	DB	09H
	DB	03fH
	DB	00H
	DB	02aH
	DB	09H
	DB	040H
	DB	02cH
	DB	039H
	DB	02eH
	DB	0acH
	DB	09H
	DB	0a3H
	DB	023H
	DB	040H
	DB	09H
	DB	0acH
	DB	057H
	DB	050H
	DB	09H
	DB	0acH
	DB	0aH
	DB	080H
	DB	06fH
	DB	09H
	DB	040H
	DB	069H
	DB	051H
	DB	09H
	DB	0acH
	DB	023H
	DB	026H
	DB	09H
	DB	031H
	DB	023H
	DB	023H
	DB	03fH
	DB	09H
	DB	07dH
	DB	023H
	DB	026H
	DB	09H
	DB	084H
	DB	023H
	DB	069H
	DB	083H
	DB	09H
	DB	07dH
	DB	00H
	DB	023H
	DB	023H
	DB	00H
	DB	023H
	DB	02cH
	DB	069H
	DB	023H
	DB	00H
	DB	031H
	DB	09H
	DB	026H
	DB	02cH
	DB	095H
	DB	095H
	DB	095H
	DB	095H
	DB	017H
	DB	00H
	DB	00H
	DB	00H
	DB	00H
	DB	00H
	DB	00H
	DB	00H
	DB	00H
	DB	00H
	DB	00H
	DB	00H
	DB	00H
	DB	00H
	DB	04fH
	DB	02eH
	DB	080H
	DB	080H
	DB	080H
	DB	080H
	DB	080H
	DB	02cH
	DB	051H
	DB	09H
	DB	09H
	DB	084H
	DB	07dH
	DB	053H
	DB	053H
	DB	0aH
	DB	0c7H
	DB	09H
	DB	06fH
	DB	0aH
	DB	03H
	DB	084H
	DB	09H
	DB	026H
	DB	023H
	DB	09eH
	DB	09H
	DB	09H
	DB	07dH
	DB	040H
	DB	057H
	DB	0acH
	DB	09H
	DB	084H
	DB	0a3H
	DB	07dH
	DB	031H
	DB	09eH
	DB	023H
	DB	084H
	DB	09H
	DB	026H
	DB	069H
	DB	02eH
	DB	080H
	DB	080H
	DB	080H
	DB	080H
	DB	03H
	DB	03fH
	DB	09H
	DB	09H
	DB	031H
	DB	031H
	DB	09H
	DB	09H
	DB	0a3H
	DB	04fH
	DB	0acH
	DB	09H
	DB	07dH
	DB	023H
	DB	080H
	DB	02eH
	DB	02cH
	DB	040H
	DB	0acH
	DB	031H
	DB	084H
	DB	02aH
	DB	09H
	DB	0acH
	DB	057H
	DB	0aH
	DB	02eH
	DB	080H
	DB	02cH
	DB	09dH
	DB	02aH
	DB	09H
	DB	0acH
	DB	031H
	DB	031H
	DB	02aH
	DB	09dH
	DB	051H
	DB	09H
	DB	09H
	DB	07dH
	DB	07dH
	DB	09H
	DB	09H
	DB	040H
	DB	023H
	DB	0a3H
	DB	09H
	DB	0acH
	DB	026H
	DB	083H
	DB	09H
	DB	09H
	DB	0bfH
	DB	00H
	DB	02aH
	DB	09H
	DB	040H
	DB	03H
	DB	017H
	DB	03H
	DB	084H
	DB	09H
	DB	0acH
	DB	031H
	DB	0acH
	DB	09H
	DB	0acH
	DB	057H
	DB	050H
	DB	09H
	DB	09H
	DB	04fH
	DB	0aH
	DB	06fH
	DB	09H
	DB	040H
	DB	023H
	DB	0bfH
	DB	09H
	DB	0acH
	DB	023H
	DB	0bfH
	DB	09H
	DB	09H
	DB	07dH
	DB	07dH
	DB	09H
	DB	09H
	DB	07dH
	DB	023H
	DB	051H
	DB	09H
	DB	0acH
	DB	07dH
	DB	051H
	DB	050H
	DB	09H
	DB	09H
	DB	083H
	DB	0a3H
	DB	053H
	DB	031H
	DB	037H
	DB	050H
	DB	03fH
	DB	0a3H
	DB	07dH
	DB	0acH
	DB	09H
	DB	051H
	DB	03H
	DB	080H
	DB	080H
	DB	080H
	DB	080H
	DB	080H
	DB	00H
	DB	00H
	DB	00H
	DB	00H
	DB	00H
	DB	00H
	DB	00H
	DB	00H
	DB	00H
	DB	00H
	DB	00H
	DB	00H
	DB	00H
	DB	086H
	DB	0aH
	DB	0aH
	DB	0aH
	DB	0aH
	DB	0aH
	DB	0aH
	DB	03H
	DB	0bfH
	DB	0acH
	DB	0acH
	DB	09H
	DB	09H
	DB	09H
	DB	09H
	DB	037H
	DB	051H
	DB	09H
	DB	031H
	DB	04fH
	DB	023H
	DB	083H
	DB	09H
	DB	026H
	DB	023H
	DB	023H
	DB	0a3H
	DB	0acH
	DB	09H
	DB	084H
	DB	023H
	DB	09eH
	DB	031H
	DB	0acH
	DB	09H
	DB	0acH
	DB	084H
	DB	09dH
	DB	023H
	DB	083H
	DB	09H
	DB	0a3H
	DB	023H
	DB	0aH
	DB	0aH
	DB	0aH
	DB	0aH
	DB	0aH
	DB	03H
	DB	086H
	DB	07dH
	DB	02aH
	DB	09H
	DB	09H
	DB	06fH
	DB	040H
	DB	00H
	DB	086H
	DB	06fH
	DB	09H
	DB	026H
	DB	023H
	DB	0aH
	DB	0aH
	DB	023H
	DB	0bfH
	DB	06fH
	DB	09H
	DB	09H
	DB	0acH
	DB	031H
	DB	0bfH
	DB	00H
	DB	0aH
	DB	0aH
	DB	0aH
	DB	0aH
	DB	023H
	DB	09dH
	DB	083H
	DB	0acH
	DB	09H
	DB	09H
	DB	031H
	DB	057H
	DB	023H
	DB	051H
	DB	06fH
	DB	09H
	DB	09H
	DB	02aH
	DB	0a3H
	DB	00H
	DB	04fH
	DB	023H
	DB	0a3H
	DB	02aH
	DB	09H
	DB	09H
	DB	06fH
	DB	051H
	DB	00H
	DB	00H
	DB	06fH
	DB	09H
	DB	051H
	DB	023H
	DB	0aH
	DB	03H
	DB	09dH
	DB	031H
	DB	09H
	DB	0acH
	DB	026H
	DB	0acH
	DB	02aH
	DB	09dH
	DB	09eH
	DB	0acH
	DB	0acH
	DB	04fH
	DB	04fH
	DB	031H
	DB	09H
	DB	051H
	DB	023H
	DB	050H
	DB	0acH
	DB	02aH
	DB	04fH
	DB	04fH
	DB	026H
	DB	0acH
	DB	09H
	DB	03fH
	DB	083H
	DB	09H
	DB	026H
	DB	023H
	DB	023H
	DB	07dH
	DB	0acH
	DB	09H
	DB	083H
	DB	00H
	DB	0bfH
	DB	06fH
	DB	09H
	DB	09H
	DB	0acH
	DB	03fH
	DB	04fH
	DB	0bfH
	DB	02aH
	DB	0acH
	DB	09H
	DB	02aH
	DB	0a3H
	DB	00H
	DB	0aH
	DB	0aH
	DB	0aH
	DB	0aH
	DB	0aH
	DB	0aH
	DB	00H
	DB	00H
	DB	00H
	DB	00H
	DB	00H
	DB	00H
	DB	00H
	DB	00H
	DB	00H
	DB	00H
	DB	00H
	DB	00H
	DB	00H
	DB	00H
	DB	04fH
	DB	04fH
	DB	04fH
	DB	04fH
	DB	04fH
	DB	04fH
	DB	04fH
	DB	04fH
	DB	037H
	DB	037H
	DB	09dH
	DB	09dH
	DB	09dH
	DB	037H
	DB	04fH
	DB	086H
	DB	09dH
	DB	037H
	DB	04fH
	DB	04fH
	DB	037H
	DB	09dH
	DB	086H
	DB	04fH
	DB	04fH
	DB	00H
	DB	037H
	DB	09dH
	DB	086H
	DB	04fH
	DB	00H
	DB	00H
	DB	037H
	DB	09dH
	DB	037H
	DB	00H
	DB	00H
	DB	04fH
	DB	037H
	DB	09dH
	DB	086H
	DB	04fH
	DB	04fH
	DB	04fH
	DB	04fH
	DB	04fH
	DB	04fH
	DB	04fH
	DB	04fH
	DB	00H
	DB	086H
	DB	09dH
	DB	037H
	DB	00H
	DB	00H
	DB	00H
	DB	04fH
	DB	037H
	DB	09dH
	DB	086H
	DB	04fH
	DB	04fH
	DB	04fH
	DB	04fH
	DB	023H
	DB	086H
	DB	037H
	DB	09dH
	DB	037H
	DB	00H
	DB	00H
	DB	04fH
	DB	04fH
	DB	04fH
	DB	04fH
	DB	04fH
	DB	04fH
	DB	023H
	DB	00H
	DB	086H
	DB	09dH
	DB	037H
	DB	00H
	DB	00H
	DB	04fH
	DB	00H
	DB	00H
	DB	037H
	DB	09dH
	DB	086H
	DB	00H
	DB	00H
	DB	04fH
	DB	04fH
	DB	00H
	DB	086H
	DB	09dH
	DB	037H
	DB	00H
	DB	00H
	DB	086H
	DB	04fH
	DB	037H
	DB	09dH
	DB	086H
	DB	04fH
	DB	04fH
	DB	04fH
	DB	023H
	DB	086H
	DB	09dH
	DB	086H
	DB	00H
	DB	037H
	DB	037H
	DB	086H
	DB	04fH
	DB	09dH
	DB	037H
	DB	086H
	DB	04fH
	DB	037H
	DB	09dH
	DB	086H
	DB	04fH
	DB	04fH
	DB	037H
	DB	037H
	DB	086H
	DB	04fH
	DB	00H
	DB	037H
	DB	09dH
	DB	00H
	DB	086H
	DB	09dH
	DB	086H
	DB	04fH
	DB	04fH
	DB	00H
	DB	037H
	DB	037H
	DB	086H
	DB	04fH
	DB	00H
	DB	00H
	DB	037H
	DB	09dH
	DB	086H
	DB	00H
	DB	04fH
	DB	04fH
	DB	086H
	DB	09dH
	DB	09dH
	DB	086H
	DB	00H
	DB	00H
	DB	04fH
	DB	04fH
	DB	04fH
	DB	04fH
	DB	04fH
	DB	04fH
	DB	00H
	DB	00H
	DB	00H
	DB	00H
	DB	00H
	DB	00H
	DB	00H
	DB	00H
	DB	00H
	DB	00H
	DB	00H
	DB	00H
	DB	00H
	DB	00H
	DB	00H
	DB	00H
	DB	00H
	DB	00H
	DB	00H
	DB	00H
	DB	00H
	DB	00H
	DB	00H
	DB	00H
	DB	00H
	DB	00H
	DB	00H
	DB	00H
	DB	00H
	DB	00H
	DB	00H
	DB	00H
	DB	00H
	DB	00H
	DB	00H
	DB	00H
	DB	00H
	DB	00H
	DB	00H
	DB	00H
	DB	00H
	DB	00H
	DB	00H
	DB	00H
	DB	00H
	DB	00H
	DB	00H
	DB	00H
	DB	00H
	DB	00H
	DB	00H
	DB	00H
	DB	00H
	DB	00H
	DB	00H
	DB	00H
	DB	00H
	DB	00H
	DB	00H
	DB	00H
	DB	00H
	DB	00H
	DB	00H
	DB	00H
	DB	00H
	DB	00H
	DB	00H
	DB	00H
	DB	00H
	DB	00H
	DB	00H
	DB	00H
	DB	00H
	DB	00H
	DB	00H
	DB	00H
	DB	00H
	DB	00H
	DB	00H
	DB	00H
	DB	00H
	DB	00H
	DB	00H
	DB	00H
	DB	00H
	DB	00H
	DB	00H
	DB	00H
	DB	00H
	DB	00H
	DB	00H
	DB	00H
	DB	00H
	DB	00H
	DB	00H
	DB	00H
	DB	00H
	DB	00H
	DB	00H
	DB	00H
	DB	00H
	DB	00H
	DB	00H
	DB	00H
	DB	00H
	DB	00H
	DB	00H
	DB	00H
	DB	00H
	DB	00H
	DB	00H
	DB	00H
	DB	00H
	DB	00H
	DB	00H
	DB	00H
	DB	00H
	DB	00H
	DB	00H
	DB	00H
	DB	00H
	DB	00H
	DB	00H
	DB	00H
	DB	00H
	DB	00H
	DB	00H
	DB	00H
	DB	00H
	DB	00H
	DB	00H
	DB	00H
	DB	00H
	DB	00H
	DB	00H
	DB	00H
	DB	00H
	DB	00H
	DB	00H
	DB	00H
	DB	00H
	DB	00H
	DB	00H
	DB	00H
	DB	00H
	DB	00H
	DB	00H
	DB	00H
	DB	00H
	DB	00H
	DB	00H
	DB	00H
	DB	00H
	DB	00H
	DB	00H
	DB	00H
	DB	00H
	DB	00H
	DB	00H
	DB	00H
	DB	00H
	DB	00H
	DB	00H
	DB	00H
	DB	00H
	DB	00H
	DB	00H
	DB	00H
	DB	00H
	DB	00H
	DB	00H
	DB	00H
	DB	00H
	DB	00H
	DB	00H
	DB	00H
	DB	00H
	DB	00H
	DB	00H
	DB	00H
	DB	00H
	DB	00H
	DB	00H
	DB	00H
	DB	00H
	DB	00H
	DB	00H
	DB	00H
	DB	00H
	DB	00H
	DB	00H
	DB	00H
	DB	00H
	DB	00H
	DB	00H
	DB	00H
	DB	00H
	DB	00H
	DB	00H
	DB	00H
	DB	00H
	DB	00H
	DB	00H
	DB	00H
	DB	00H
	DB	00H
	DB	00H
	DB	00H
	DB	00H
	DB	00H
	DB	00H
	DB	00H
	DB	00H
	DB	00H
	DB	00H
	DB	00H
	DB	00H
	DB	00H
	DB	00H
	DB	00H
	DB	00H
	DB	00H
	DB	00H
	DB	00H
	DB	00H
	DB	00H
	DB	00H
	DB	00H
	DB	00H
	DB	00H
	DB	00H
	DB	00H
	DB	00H
	DB	00H
	DB	00H
	DB	00H
	DB	00H
	DB	00H
	DB	00H
	DB	00H
	DB	00H
	DB	00H
	DB	00H
	DB	00H
	DB	00H
	DB	00H
	DB	00H
	DB	00H
	DB	00H
	DB	00H
	DB	00H
	DB	00H
	DB	00H
	DB	00H
	DB	00H
	DB	00H
	DB	00H
	DB	00H
	DB	00H
	DB	00H
	DB	00H
	DB	00H
	DB	00H
	DB	00H
	DB	00H
	DB	00H
	DB	00H
	DB	00H
	DB	00H
	DB	00H
	DB	00H
	DB	00H
	DB	00H
	DB	00H
	DB	00H
	DB	00H
	DB	00H
	DB	00H
	DB	00H
	DB	00H
	DB	00H
	DB	00H
	DB	00H
	DB	00H
	DB	00H
	DB	00H
	DB	00H
	DB	00H
	DB	00H
	DB	00H
	DB	00H
	DB	00H
	DB	00H
	DB	00H
	DB	00H
	DB	00H
	DB	00H
	DB	00H
	DB	00H
	DB	00H
	DB	00H
	DB	00H
	DB	00H
	DB	00H
	DB	00H
	DB	00H
	DB	00H
	DB	00H
	DB	00H
	DB	00H
	DB	00H
	DB	00H
	DB	00H
	DB	00H
	DB	00H
	DB	00H
	DB	00H
	DB	00H
	DB	00H
	DB	00H
	DB	00H
	DB	00H
	DB	00H
	DB	00H
	DB	00H
	DB	00H
	DB	00H
	DB	00H
	DB	00H
	DB	00H
	DB	00H
	DB	00H
	DB	00H
	DB	00H
	DB	00H
	DB	00H
	DB	00H
	DB	00H
	DB	00H
	DB	00H
	DB	00H
	DB	00H
	DB	00H
	DB	00H
	DB	00H
	DB	00H
	DB	00H
	DB	00H
	DB	00H
	DB	00H
	DB	00H
	DB	00H
	DB	00H
	DB	00H
	DB	00H
	DB	00H
	DB	00H
	DB	00H
	DB	00H
	DB	00H
	DB	00H
	DB	00H
	DB	00H
	DB	00H
	DB	00H
	DB	00H
	DB	00H
	DB	00H
	DB	00H
	DB	00H
	DB	00H
	DB	00H
	DB	00H
	DB	00H
	DB	00H
	DB	00H
	DB	00H
	DB	00H
	DB	00H
	DB	00H
	DB	00H
	DB	00H
	DB	00H
	DB	00H
	DB	00H
	DB	00H
	DB	00H
	DB	00H
	DB	00H
	DB	00H
	DB	00H
	DB	00H
	DB	00H
	DB	00H
	DB	00H
	DB	00H
	DB	00H
	DB	00H
	DB	00H
	DB	00H
	DB	00H
	DB	00H
	DB	00H
	DB	00H
	DB	00H
	DB	00H
	DB	00H
	DB	00H
	DB	00H
	DB	00H
	DB	00H
	DB	00H
	DB	00H
	DB	00H
	DB	00H
	DB	00H
	DB	00H
	DB	00H
	DB	00H
	DB	00H
	DB	00H
	DB	00H
	DB	00H
	DB	00H
	DB	00H
	DB	00H
	DB	00H
	DB	00H
	DB	00H
	DB	00H
	DB	00H
	DB	00H
	DB	00H
	DB	00H
	DB	00H
	DB	00H
	DB	00H
	DB	00H
	DB	00H
	DB	00H
	DB	00H
	DB	00H
	DB	00H
	DB	00H
	DB	00H
	DB	00H
	DB	00H
	DB	00H
	DB	00H
	DB	00H
	DB	00H
	DB	00H
	DB	00H
	DB	00H
	DB	00H
	DB	00H
	DB	00H
	DB	00H
	DB	00H
	DB	00H
	DB	00H
	DB	00H
	DB	00H
	DB	00H
	DB	00H
	DB	00H
	DB	00H
	DB	00H
	DB	00H
	DB	00H
	DB	00H
	DB	00H
	DB	00H
	DB	00H
	DB	00H
	DB	00H
	DB	00H
	DB	00H
	DB	00H
	DB	00H
	DB	00H
	DB	00H
	DB	00H
	DB	00H
	DB	00H
	DB	00H
	DB	00H
	DB	00H
	DB	00H
	DB	00H
	DB	00H
	DB	00H
	DB	00H
	DB	00H
	DB	00H
	DB	00H
	DB	00H
	DB	00H
	DB	00H
	DB	00H
	DB	00H
	DB	00H
	DB	00H
	DB	00H
	DB	00H
	DB	00H
	DB	00H
	DB	00H
	DB	00H
	DB	00H
	DB	00H
	DB	00H
	DB	00H
	DB	00H
	DB	00H
	DB	00H
	DB	00H
	DB	00H
	DB	00H
	DB	00H
	DB	00H
	DB	00H
	DB	00H
	DB	00H
	DB	00H
	DB	00H
	DB	00H
	DB	00H
	DB	00H
	DB	00H
	DB	00H
	DB	00H
	DB	00H
	DB	00H
	DB	00H
	DB	00H
	DB	00H
	DB	00H
	DB	00H
	DB	00H
	DB	00H
	DB	00H
	DB	00H
	DB	00H
	DB	00H
	DB	00H
	DB	00H
	DB	00H
	DB	00H
	DB	00H
	DB	00H
	DB	00H
	DB	00H
	DB	00H
	DB	00H
	DB	00H
	DB	00H
	DB	00H
	DB	00H
	DB	00H
	DB	00H
	DB	00H
	DB	00H
	DB	00H
	DB	00H
	DB	00H
	DB	00H
	DB	00H
	DB	00H
	DB	00H
	DB	00H
	DB	00H
	DB	00H
	DB	00H
	DB	00H
	DB	00H
	DB	00H
	DB	00H
	DB	00H
	DB	00H
	DB	00H
	DB	00H
	DB	00H
	DB	00H
	DB	00H
	DB	00H
	DB	00H
	DB	00H
	DB	00H
	DB	00H
	DB	00H
	DB	00H
	DB	00H
	DB	00H
	DB	00H
	DB	00H
	DB	00H
	DB	00H
	DB	00H
	DB	00H
	DB	00H
	DB	00H
	DB	00H
	DB	00H
	DB	00H
	DB	00H
	DB	00H
	DB	00H
	DB	00H
	DB	00H
	DB	00H
	DB	00H
	DB	00H
	DB	00H
	DB	00H
	DB	00H
	DB	00H
	DB	00H
	DB	00H
	DB	00H
	DB	00H
	DB	00H
	DB	00H
	DB	00H
	DB	00H
	DB	00H
	DB	00H
	DB	00H
	DB	00H
	DB	00H
	DB	00H
	DB	00H
	DB	00H
	DB	00H
	DB	00H
	DB	00H
	DB	00H
	DB	00H
	DB	00H
	DB	00H
	DB	00H
	DB	00H
	DB	00H
	DB	00H
	DB	00H
	DB	00H
	DB	00H
	DB	00H
	DB	00H
	DB	00H
	DB	00H
	DB	00H
	DB	00H
	DB	00H
	DB	00H
	DB	00H
	DB	00H
	DB	00H
	DB	00H
	DB	00H
	DB	00H
	DB	00H
	DB	00H
	DB	00H
	DB	00H
	DB	00H
	DB	00H
	DB	00H
	DB	00H
	DB	00H
	DB	00H
	DB	00H
	DB	00H
	DB	00H
	DB	00H
	DB	00H
	DB	00H
	DB	00H
	DB	00H
	DB	00H
	DB	00H
	DB	00H
	DB	00H
	DB	00H
	DB	00H
	DB	00H
	DB	00H
	DB	00H
	DB	00H
	DB	00H
	DB	00H
	DB	00H
	DB	00H
	DB	00H
	DB	00H
	DB	00H
	DB	00H
	DB	00H
	DB	00H
	DB	00H
	DB	00H
	DB	00H
	DB	00H
	DB	00H
	DB	00H
	DB	00H
	DB	00H
	DB	00H
	DB	00H
	DB	00H
	DB	00H
	DB	00H
	DB	00H
	DB	00H
	DB	00H
	DB	00H
	DB	00H
	DB	00H
	DB	00H
	DB	00H
	DB	00H
	DB	00H
	DB	00H
	DB	00H
	DB	00H
	DB	00H
	DB	00H
	DB	00H
	DB	00H
	DB	00H
	DB	00H
	DB	00H
	DB	00H
	DB	00H
	DB	00H
	DB	00H
	DB	00H
	DB	00H
	DB	00H
	DB	00H
	DB	00H
	DB	00H
	DB	00H
	DB	00H
	DB	00H
	DB	00H
	DB	00H
	DB	00H
	DB	00H
	DB	00H
	DB	00H
	DB	00H
	DB	00H
	DB	00H
	DB	00H
	DB	00H
	DB	00H
	DB	00H
	DB	00H
	DB	00H
	DB	00H
	DB	00H
	DB	00H
	DB	00H
	DB	00H
	DB	00H
	DB	00H
	DB	00H
	DB	00H
	DB	00H
	DB	00H
	DB	00H
	DB	00H
	DB	00H
	DB	00H
	DB	00H
	DB	00H
	DB	00H
	DB	00H
	DB	00H
	DB	00H
	DB	00H
	DB	00H
	DB	00H
	DB	00H
	DB	00H
	DB	00H
	DB	00H
	DB	00H
	DB	00H
	DB	00H
	DB	00H
	DB	00H
	DB	00H
	DB	00H
	DB	00H
	DB	00H
	DB	00H
	DB	00H
	DB	00H
	DB	00H
	DB	00H
	DB	00H
	DB	00H
	DB	00H
	DB	00H
	DB	00H
	DB	00H
	DB	00H
	DB	00H
	DB	00H
	DB	00H
	DB	00H
	DB	00H
	DB	00H
	DB	00H
	DB	00H
	DB	00H
	DB	00H
	DB	00H
	DB	00H
	DB	00H
	DB	00H
	DB	00H
	DB	00H
	DB	00H
	DB	00H
	DB	00H
	DB	00H
	DB	00H
	DB	00H
	DB	00H
	DB	00H
	DB	00H
	DB	00H
	DB	00H
	DB	00H
	DB	00H
	DB	00H
	DB	00H
	DB	00H
	DB	00H
	DB	00H
	DB	00H
	DB	00H
	DB	00H
	DB	00H
	DB	00H
	DB	00H
	DB	00H
	DB	00H
	DB	00H
	DB	00H
	DB	00H
	DB	00H
	DB	00H
	DB	00H
	DB	00H
	DB	00H
	DB	00H
	DB	00H
	DB	00H
	DB	00H
	DB	00H
	DB	00H
	DB	00H
	DB	00H
	DB	00H
	DB	00H
	DB	00H
	DB	00H
	DB	00H
	DB	00H
	DB	00H
	DB	00H
	DB	00H
	DB	00H
	DB	00H
	DB	00H
	DB	00H
	DB	00H
	DB	00H
	DB	00H
	DB	00H
	DB	00H
	DB	00H
	DB	00H
	DB	00H
	DB	00H
	DB	00H
	DB	00H
	DB	00H
	DB	00H
	DB	00H
	DB	00H
	DB	00H
	DB	00H
	DB	00H
	DB	00H
	DB	00H
	DB	00H
	DB	00H
	DB	00H
	DB	00H
	DB	00H
	DB	00H
	DB	00H
	DB	00H
	DB	00H
	DB	00H
	DB	00H
	DB	00H
	DB	00H
	DB	00H
	DB	00H
	DB	00H
	DB	00H
	DB	00H
	DB	00H
	DB	00H
	DB	00H
	DB	00H
	DB	00H
	DB	00H
	DB	00H
	DB	00H
	DB	00H
	DB	00H
	DB	00H
	DB	00H
	DB	00H
	DB	00H
	DB	00H
	DB	00H
	DB	00H
	DB	00H
	DB	00H
	DB	00H
	DB	00H
	DB	00H
	DB	00H
	DB	00H
	DB	00H
	DB	00H
	DB	00H
	DB	00H
	DB	00H
	DB	00H
	DB	00H
	DB	00H
	DB	00H
	DB	00H
	DB	00H
	DB	00H
	DB	00H
	DB	00H
	DB	00H
	DB	00H
	DB	00H
	DB	00H
	DB	00H
	DB	00H
	DB	00H
	DB	00H
	DB	00H
	DB	00H
	DB	00H
	DB	00H
	DB	00H
	DB	00H
	DB	00H
	DB	00H
	DB	00H
	DB	00H
	DB	00H
	DB	00H
	DB	00H
	DB	00H
	DB	00H
	DB	00H
	DB	00H
	DB	00H
	DB	00H
	DB	00H
	DB	00H
	DB	00H
	DB	00H
	DB	00H
	DB	00H
	DB	00H
	DB	00H
	DB	00H
	DB	00H
	DB	00H
	DB	00H
	DB	00H
	DB	00H
	DB	00H
	DB	00H
	DB	00H
	DB	00H
	DB	00H
	DB	00H
	DB	00H
	DB	00H
	DB	00H
	DB	00H
	DB	00H
	DB	00H
	DB	00H
	DB	00H
	DB	00H
	DB	00H
	DB	00H
	DB	00H
	DB	00H
	DB	00H
	DB	00H
	DB	00H
	DB	00H
	DB	00H
	DB	00H
	DB	00H
	DB	00H
	DB	00H
	DB	00H
	DB	00H
	DB	00H
	DB	00H
	DB	00H
	DB	00H
	DB	00H
	DB	00H
	DB	00H
	DB	00H
	DB	00H
	DB	00H
	DB	00H
	DB	00H
	DB	00H
	DB	00H
	DB	00H
	DB	00H
	DB	00H
	DB	00H
	DB	00H
	DB	00H
	DB	00H
	DB	00H
	DB	00H
	DB	00H
	DB	00H
	DB	00H
	DB	00H
	DB	00H
	DB	00H
	DB	00H
	DB	00H
	DB	00H
	DB	00H
	DB	00H
	DB	00H
	DB	00H
	DB	00H
	DB	00H
	DB	00H
	DB	00H
	DB	00H
	DB	00H
	DB	00H
	DB	00H
	DB	00H
	DB	00H
	DB	00H
	DB	00H
	DB	00H
	DB	00H
	DB	00H
	DB	00H
	DB	00H
	DB	00H
	DB	00H
	DB	00H
	DB	00H
	DB	00H
	DB	00H
	DB	00H
	DB	00H
	DB	00H
	DB	00H
	DB	00H
	DB	00H
	DB	00H
	DB	00H
	DB	00H
	DB	00H
	DB	00H
	DB	04fH
	DB	095H
	DB	05cH
	DB	05cH
	DB	095H
	DB	0aH
	DB	00H
	DB	00H
	DB	00H
	DB	00H
	DB	00H
	DB	00H
	DB	00H
	DB	00H
	DB	00H
	DB	00H
	DB	00H
	DB	00H
	DB	00H
	DB	00H
	DB	00H
	DB	00H
	DB	00H
	DB	00H
	DB	00H
	DB	00H
	DB	00H
	DB	00H
	DB	00H
	DB	00H
	DB	00H
	DB	00H
	DB	00H
	DB	00H
	DB	00H
	DB	00H
	DB	00H
	DB	00H
	DB	00H
	DB	00H
	DB	00H
	DB	00H
	DB	00H
	DB	00H
	DB	00H
	DB	00H
	DB	00H
	DB	00H
	DB	00H
	DB	00H
	DB	00H
	DB	00H
	DB	00H
	DB	00H
	DB	00H
	DB	00H
	DB	00H
	DB	00H
	DB	00H
	DB	00H
	DB	00H
	DB	00H
	DB	00H
	DB	00H
	DB	017H
	DB	014H
	DB	05cH
	DB	04fH
	DB	080H
	DB	05cH
	DB	05cH
	DB	05cH
	DB	05cH
	DB	05cH
	DB	05cH
	DB	05cH
	DB	05cH
	DB	05cH
	DB	05cH
	DB	095H
	DB	00H
	DB	00H
	DB	017H
	DB	05cH
	DB	05cH
	DB	05cH
	DB	0aH
	DB	00H
	DB	00H
	DB	00H
	DB	00H
	DB	00H
	DB	00H
	DB	00H
	DB	00H
	DB	00H
	DB	00H
	DB	00H
	DB	00H
	DB	00H
	DB	00H
	DB	00H
	DB	00H
	DB	00H
	DB	00H
	DB	00H
	DB	01bH
	DB	05cH
	DB	05cH
	DB	01bH
	DB	00H
	DB	00H
	DB	00H
	DB	00H
	DB	00H
	DB	00H
	DB	00H
	DB	00H
	DB	00H
	DB	00H
	DB	00H
	DB	00H
	DB	00H
	DB	00H
	DB	00H
	DB	017H
	DB	05cH
	DB	05cH
	DB	05cH
	DB	03H
	DB	00H
	DB	00H
	DB	00H
	DB	00H
	DB	00H
	DB	00H
	DB	00H
	DB	00H
	DB	00H
	DB	00H
	DB	00H
	DB	00H
	DB	00H
	DB	00H
	DB	00H
	DB	00H
	DB	00H
	DB	00H
	DB	00H
	DB	00H
	DB	00H
	DB	00H
	DB	00H
	DB	00H
	DB	00H
	DB	00H
	DB	00H
	DB	00H
	DB	00H
	DB	00H
	DB	00H
	DB	00H
	DB	00H
	DB	00H
	DB	00H
	DB	00H
	DB	00H
	DB	00H
	DB	00H
	DB	00H
	DB	00H
	DB	00H
	DB	00H
	DB	00H
	DB	00H
	DB	00H
	DB	05cH
	DB	0bH
	DB	06H
	DB	01H
	DB	01H
	DB	01H
	DB	01H
	DB	0ffH
	DB	04H
	DB	013H
	DB	00H
	DB	00H
	DB	00H
	DB	00H
	DB	00H
	DB	00H
	DB	01fH
	DB	095H
	DB	00H
	DB	00H
	DB	00H
	DB	00H
	DB	00H
	DB	00H
	DB	00H
	DB	00H
	DB	00H
	DB	00H
	DB	00H
	DB	00H
	DB	00H
	DB	00H
	DB	00H
	DB	00H
	DB	00H
	DB	00H
	DB	00H
	DB	00H
	DB	00H
	DB	00H
	DB	00H
	DB	00H
	DB	00H
	DB	00H
	DB	00H
	DB	00H
	DB	00H
	DB	00H
	DB	00H
	DB	00H
	DB	00H
	DB	0aH
	DB	0cH
	DB	03H
	DB	00H
	DB	00H
	DB	00H
	DB	00H
	DB	00H
	DB	00H
	DB	00H
	DB	00H
	DB	00H
	DB	00H
	DB	00H
	DB	04fH
	DB	049H
	DB	01H
	DB	02H
	DB	00H
	DB	0e2H
	DB	01H
	DB	01H
	DB	01H
	DB	01H
	DB	01H
	DB	01H
	DB	01H
	DB	01H
	DB	01H
	DB	01H
	DB	04H
	DB	00H
	DB	00H
	DB	0e8H
	DB	01H
	DB	01H
	DB	01H
	DB	060H
	DB	00H
	DB	00H
	DB	00H
	DB	00H
	DB	00H
	DB	00H
	DB	00H
	DB	00H
	DB	00H
	DB	00H
	DB	00H
	DB	00H
	DB	00H
	DB	00H
	DB	00H
	DB	00H
	DB	00H
	DB	00H
	DB	0aH
	DB	07cH
	DB	01H
	DB	01H
	DB	06H
	DB	00H
	DB	00H
	DB	00H
	DB	00H
	DB	00H
	DB	00H
	DB	00H
	DB	00H
	DB	00H
	DB	00H
	DB	00H
	DB	00H
	DB	00H
	DB	00H
	DB	00H
	DB	0dH
	DB	01H
	DB	01H
	DB	01H
	DB	060H
	DB	00H
	DB	00H
	DB	00H
	DB	00H
	DB	00H
	DB	00H
	DB	00H
	DB	00H
	DB	00H
	DB	00H
	DB	00H
	DB	00H
	DB	00H
	DB	00H
	DB	00H
	DB	00H
	DB	00H
	DB	00H
	DB	00H
	DB	00H
	DB	00H
	DB	00H
	DB	00H
	DB	00H
	DB	00H
	DB	00H
	DB	00H
	DB	00H
	DB	00H
	DB	00H
	DB	00H
	DB	00H
	DB	00H
	DB	00H
	DB	00H
	DB	00H
	DB	00H
	DB	00H
	DB	00H
	DB	00H
	DB	00H
	DB	00H
	DB	00H
	DB	00H
	DB	00H
	DB	0fH
	DB	01H
	DB	01H
	DB	01H
	DB	01H
	DB	01H
	DB	01H
	DB	01H
	DB	01H
	DB	01H
	DB	079H
	DB	00H
	DB	00H
	DB	00H
	DB	00H
	DB	095H
	DB	03aH
	DB	01H
	DB	014H
	DB	00H
	DB	00H
	DB	00H
	DB	00H
	DB	00H
	DB	00H
	DB	00H
	DB	00H
	DB	00H
	DB	00H
	DB	00H
	DB	00H
	DB	00H
	DB	00H
	DB	00H
	DB	00H
	DB	00H
	DB	00H
	DB	00H
	DB	00H
	DB	00H
	DB	00H
	DB	00H
	DB	00H
	DB	00H
	DB	00H
	DB	00H
	DB	00H
	DB	00H
	DB	00H
	DB	00H
	DB	00H
	DB	013H
	DB	0faH
	DB	02H
	DB	0aH
	DB	00H
	DB	00H
	DB	00H
	DB	00H
	DB	00H
	DB	00H
	DB	00H
	DB	00H
	DB	00H
	DB	00H
	DB	00H
	DB	0cH
	DB	01H
	DB	01H
	DB	010H
	DB	00H
	DB	0fH
	DB	01H
	DB	01H
	DB	01H
	DB	01H
	DB	01H
	DB	01H
	DB	01H
	DB	01H
	DB	01H
	DB	01H
	DB	049H
	DB	00H
	DB	00H
	DB	0e8H
	DB	01H
	DB	01H
	DB	01H
	DB	013H
	DB	00H
	DB	00H
	DB	00H
	DB	00H
	DB	00H
	DB	00H
	DB	00H
	DB	00H
	DB	00H
	DB	00H
	DB	00H
	DB	00H
	DB	00H
	DB	00H
	DB	00H
	DB	00H
	DB	00H
	DB	00H
	DB	0aH
	DB	07cH
	DB	01H
	DB	01H
	DB	06H
	DB	00H
	DB	00H
	DB	00H
	DB	00H
	DB	00H
	DB	00H
	DB	00H
	DB	00H
	DB	00H
	DB	00H
	DB	00H
	DB	00H
	DB	00H
	DB	00H
	DB	00H
	DB	0dH
	DB	01H
	DB	01H
	DB	01H
	DB	060H
	DB	00H
	DB	00H
	DB	00H
	DB	00H
	DB	00H
	DB	00H
	DB	00H
	DB	00H
	DB	00H
	DB	00H
	DB	00H
	DB	00H
	DB	00H
	DB	00H
	DB	00H
	DB	00H
	DB	00H
	DB	00H
	DB	00H
	DB	00H
	DB	00H
	DB	00H
	DB	00H
	DB	00H
	DB	00H
	DB	00H
	DB	00H
	DB	00H
	DB	00H
	DB	00H
	DB	00H
	DB	00H
	DB	00H
	DB	00H
	DB	00H
	DB	00H
	DB	00H
	DB	00H
	DB	00H
	DB	00H
	DB	00H
	DB	00H
	DB	00H
	DB	00H
	DB	05eH
	DB	01H
	DB	01H
	DB	01H
	DB	0ffH
	DB	04H
	DB	0e8H
	DB	0e8H
	DB	05H
	DB	02H
	DB	0ffH
	DB	060H
	DB	00H
	DB	00H
	DB	00H
	DB	0cH
	DB	01H
	DB	01H
	DB	01H
	DB	05cH
	DB	00H
	DB	00H
	DB	00H
	DB	00H
	DB	00H
	DB	00H
	DB	00H
	DB	00H
	DB	00H
	DB	00H
	DB	00H
	DB	00H
	DB	00H
	DB	00H
	DB	00H
	DB	00H
	DB	00H
	DB	00H
	DB	00H
	DB	00H
	DB	00H
	DB	00H
	DB	00H
	DB	00H
	DB	00H
	DB	00H
	DB	00H
	DB	00H
	DB	00H
	DB	00H
	DB	00H
	DB	0bH
	DB	01H
	DB	01H
	DB	02H
	DB	0aH
	DB	00H
	DB	00H
	DB	00H
	DB	00H
	DB	00H
	DB	00H
	DB	00H
	DB	00H
	DB	00H
	DB	00H
	DB	04fH
	DB	0f3H
	DB	01H
	DB	07cH
	DB	0aH
	DB	00H
	DB	0fH
	DB	01H
	DB	01H
	DB	01H
	DB	07cH
	DB	0dH
	DB	0e8H
	DB	0e8H
	DB	0e8H
	DB	0e8H
	DB	0e8H
	DB	079H
	DB	00H
	DB	00H
	DB	010H
	DB	044H
	DB	0efH
	DB	0efH
	DB	05cH
	DB	00H
	DB	00H
	DB	00H
	DB	00H
	DB	00H
	DB	00H
	DB	00H
	DB	00H
	DB	00H
	DB	00H
	DB	00H
	DB	00H
	DB	00H
	DB	00H
	DB	00H
	DB	00H
	DB	00H
	DB	00H
	DB	03H
	DB	0bH
	DB	04H
	DB	04H
	DB	03aH
	DB	00H
	DB	00H
	DB	00H
	DB	00H
	DB	00H
	DB	00H
	DB	00H
	DB	00H
	DB	00H
	DB	00H
	DB	00H
	DB	00H
	DB	00H
	DB	00H
	DB	00H
	DB	0dH
	DB	01H
	DB	01H
	DB	01H
	DB	060H
	DB	00H
	DB	00H
	DB	00H
	DB	00H
	DB	00H
	DB	00H
	DB	00H
	DB	00H
	DB	00H
	DB	00H
	DB	00H
	DB	00H
	DB	00H
	DB	00H
	DB	00H
	DB	00H
	DB	00H
	DB	00H
	DB	00H
	DB	00H
	DB	00H
	DB	00H
	DB	00H
	DB	00H
	DB	00H
	DB	00H
	DB	00H
	DB	00H
	DB	00H
	DB	00H
	DB	00H
	DB	00H
	DB	00H
	DB	00H
	DB	00H
	DB	00H
	DB	00H
	DB	00H
	DB	00H
	DB	00H
	DB	00H
	DB	00H
	DB	00H
	DB	00H
	DB	02H
	DB	01H
	DB	01H
	DB	0ffH
	DB	014H
	DB	00H
	DB	00H
	DB	00H
	DB	00H
	DB	00H
	DB	080H
	DB	04fH
	DB	00H
	DB	00H
	DB	00H
	DB	0e8H
	DB	01H
	DB	01H
	DB	01H
	DB	05cH
	DB	00H
	DB	00H
	DB	00H
	DB	00H
	DB	00H
	DB	00H
	DB	00H
	DB	00H
	DB	00H
	DB	00H
	DB	00H
	DB	00H
	DB	00H
	DB	00H
	DB	00H
	DB	00H
	DB	00H
	DB	00H
	DB	00H
	DB	00H
	DB	00H
	DB	00H
	DB	00H
	DB	00H
	DB	00H
	DB	00H
	DB	00H
	DB	00H
	DB	00H
	DB	00H
	DB	04fH
	DB	0ffH
	DB	01H
	DB	01H
	DB	02H
	DB	03H
	DB	00H
	DB	00H
	DB	00H
	DB	00H
	DB	00H
	DB	00H
	DB	00H
	DB	00H
	DB	00H
	DB	00H
	DB	065H
	DB	01H
	DB	01H
	DB	010H
	DB	00H
	DB	00H
	DB	0fH
	DB	01H
	DB	01H
	DB	01H
	DB	0e8H
	DB	00H
	DB	00H
	DB	00H
	DB	00H
	DB	00H
	DB	00H
	DB	00H
	DB	00H
	DB	00H
	DB	00H
	DB	00H
	DB	00H
	DB	00H
	DB	00H
	DB	00H
	DB	00H
	DB	00H
	DB	00H
	DB	00H
	DB	00H
	DB	00H
	DB	00H
	DB	00H
	DB	00H
	DB	00H
	DB	00H
	DB	00H
	DB	00H
	DB	00H
	DB	00H
	DB	00H
	DB	00H
	DB	00H
	DB	00H
	DB	00H
	DB	00H
	DB	00H
	DB	00H
	DB	00H
	DB	00H
	DB	00H
	DB	00H
	DB	00H
	DB	00H
	DB	00H
	DB	00H
	DB	00H
	DB	00H
	DB	00H
	DB	00H
	DB	00H
	DB	00H
	DB	0dH
	DB	01H
	DB	01H
	DB	01H
	DB	060H
	DB	00H
	DB	00H
	DB	00H
	DB	00H
	DB	00H
	DB	00H
	DB	00H
	DB	00H
	DB	00H
	DB	00H
	DB	00H
	DB	00H
	DB	00H
	DB	00H
	DB	00H
	DB	00H
	DB	00H
	DB	00H
	DB	00H
	DB	00H
	DB	00H
	DB	00H
	DB	00H
	DB	00H
	DB	00H
	DB	00H
	DB	00H
	DB	00H
	DB	00H
	DB	00H
	DB	00H
	DB	00H
	DB	00H
	DB	00H
	DB	00H
	DB	00H
	DB	00H
	DB	00H
	DB	00H
	DB	00H
	DB	00H
	DB	00H
	DB	00H
	DB	080H
	DB	0ffH
	DB	01H
	DB	01H
	DB	04H
	DB	00H
	DB	00H
	DB	00H
	DB	00H
	DB	00H
	DB	00H
	DB	00H
	DB	00H
	DB	00H
	DB	0cH
	DB	05H
	DB	06H
	DB	01H
	DB	01H
	DB	01H
	DB	04H
	DB	05bH
	DB	063H
	DB	095H
	DB	00H
	DB	00H
	DB	00H
	DB	080H
	DB	013H
	DB	070H
	DB	063H
	DB	02H
	DB	07cH
	DB	04H
	DB	0dH
	DB	01bH
	DB	00H
	DB	00H
	DB	00H
	DB	00H
	DB	04fH
	DB	0dH
	DB	05H
	DB	05H
	DB	0e8H
	DB	04fH
	DB	017H
	DB	05bH
	DB	07cH
	DB	013H
	DB	070H
	DB	063H
	DB	01H
	DB	01H
	DB	01H
	DB	0ffH
	DB	05H
	DB	05H
	DB	0dH
	DB	04fH
	DB	00H
	DB	00H
	DB	00H
	DB	00H
	DB	00H
	DB	00H
	DB	04fH
	DB	049H
	DB	01H
	DB	0faH
	DB	0aH
	DB	00H
	DB	00H
	DB	0fH
	DB	01H
	DB	01H
	DB	01H
	DB	0bH
	DB	00H
	DB	00H
	DB	00H
	DB	00H
	DB	00H
	DB	00H
	DB	00H
	DB	00H
	DB	00H
	DB	015H
	DB	063H
	DB	03aH
	DB	03aH
	DB	01bH
	DB	00H
	DB	00H
	DB	04fH
	DB	0e8H
	DB	05H
	DB	05H
	DB	05eH
	DB	00H
	DB	017H
	DB	0fH
	DB	04H
	DB	07cH
	DB	04H
	DB	0cH
	DB	00H
	DB	00H
	DB	00H
	DB	00H
	DB	04fH
	DB	0dH
	DB	05H
	DB	05H
	DB	0e8H
	DB	00H
	DB	00H
	DB	00H
	DB	00H
	DB	04fH
	DB	013H
	DB	034H
	DB	03aH
	DB	05H
	DB	0e8H
	DB	05eH
	DB	017H
	DB	00H
	DB	00H
	DB	00H
	DB	0dH
	DB	01H
	DB	01H
	DB	01H
	DB	014H
	DB	00H
	DB	013H
	DB	05bH
	DB	02H
	DB	02H
	DB	067H
	DB	017H
	DB	00H
	DB	00H
	DB	00H
	DB	00H
	DB	00H
	DB	00H
	DB	00H
	DB	00H
	DB	00H
	DB	00H
	DB	00H
	DB	00H
	DB	00H
	DB	00H
	DB	00H
	DB	00H
	DB	00H
	DB	00H
	DB	00H
	DB	00H
	DB	00H
	DB	00H
	DB	00H
	DB	00H
	DB	00H
	DB	00H
	DB	00H
	DB	00H
	DB	00H
	DB	00H
	DB	00H
	DB	00H
	DB	00H
	DB	00H
	DB	00H
	DB	00H
	DB	080H
	DB	0ffH
	DB	01H
	DB	01H
	DB	0ffH
	DB	05cH
	DB	00H
	DB	00H
	DB	00H
	DB	00H
	DB	00H
	DB	00H
	DB	00H
	DB	00H
	DB	0e8H
	DB	01H
	DB	01H
	DB	01H
	DB	01H
	DB	01H
	DB	01H
	DB	01H
	DB	01H
	DB	05cH
	DB	00H
	DB	00H
	DB	04fH
	DB	04H
	DB	01H
	DB	01H
	DB	01H
	DB	01H
	DB	01H
	DB	01H
	DB	01H
	DB	01H
	DB	010H
	DB	00H
	DB	00H
	DB	00H
	DB	04fH
	DB	02H
	DB	01H
	DB	01H
	DB	02H
	DB	014H
	DB	02H
	DB	01H
	DB	01H
	DB	05eH
	DB	049H
	DB	01H
	DB	01H
	DB	01H
	DB	01H
	DB	01H
	DB	01H
	DB	01H
	DB	02H
	DB	0aH
	DB	00H
	DB	00H
	DB	00H
	DB	00H
	DB	00H
	DB	00H
	DB	065H
	DB	01H
	DB	01H
	DB	010H
	DB	00H
	DB	00H
	DB	00H
	DB	0fH
	DB	01H
	DB	01H
	DB	01H
	DB	0bH
	DB	00H
	DB	00H
	DB	00H
	DB	00H
	DB	00H
	DB	00H
	DB	00H
	DB	00H
	DB	00H
	DB	0e8H
	DB	01H
	DB	01H
	DB	01H
	DB	013H
	DB	00H
	DB	00H
	DB	0aH
	DB	06H
	DB	01H
	DB	01H
	DB	0bH
	DB	013H
	DB	0ffH
	DB	01H
	DB	01H
	DB	01H
	DB	01H
	DB	01H
	DB	0e2H
	DB	00H
	DB	00H
	DB	00H
	DB	0aH
	DB	07cH
	DB	01H
	DB	01H
	DB	06H
	DB	00H
	DB	00H
	DB	00H
	DB	080H
	DB	04H
	DB	01H
	DB	01H
	DB	01H
	DB	01H
	DB	01H
	DB	01H
	DB	0f3H
	DB	00H
	DB	00H
	DB	00H
	DB	0dH
	DB	01H
	DB	01H
	DB	01H
	DB	013H
	DB	0e8H
	DB	01H
	DB	01H
	DB	01H
	DB	01H
	DB	01H
	DB	044H
	DB	04fH
	DB	00H
	DB	00H
	DB	00H
	DB	00H
	DB	00H
	DB	00H
	DB	00H
	DB	00H
	DB	00H
	DB	00H
	DB	00H
	DB	00H
	DB	00H
	DB	00H
	DB	00H
	DB	00H
	DB	00H
	DB	00H
	DB	00H
	DB	00H
	DB	00H
	DB	00H
	DB	00H
	DB	00H
	DB	00H
	DB	00H
	DB	00H
	DB	00H
	DB	00H
	DB	00H
	DB	00H
	DB	00H
	DB	00H
	DB	00H
	DB	00H
	DB	00H
	DB	07cH
	DB	01H
	DB	01H
	DB	01H
	DB	0faH
	DB	0cH
	DB	0aH
	DB	00H
	DB	00H
	DB	00H
	DB	00H
	DB	00H
	DB	00H
	DB	010H
	DB	049H
	DB	09cH
	DB	01H
	DB	01H
	DB	01H
	DB	02H
	DB	04H
	DB	0f3H
	DB	020H
	DB	00H
	DB	00H
	DB	04fH
	DB	04H
	DB	0ffH
	DB	0efH
	DB	0bH
	DB	0bH
	DB	04H
	DB	01H
	DB	01H
	DB	01H
	DB	01H
	DB	01bH
	DB	00H
	DB	00H
	DB	04fH
	DB	02H
	DB	01H
	DB	01H
	DB	07cH
	DB	0efH
	DB	01H
	DB	01H
	DB	01H
	DB	0cH
	DB	0e8H
	DB	049H
	DB	01H
	DB	01H
	DB	01H
	DB	0ffH
	DB	044H
	DB	044H
	DB	0bH
	DB	04fH
	DB	00H
	DB	00H
	DB	00H
	DB	00H
	DB	00H
	DB	00H
	DB	0efH
	DB	01H
	DB	0faH
	DB	0aH
	DB	00H
	DB	00H
	DB	00H
	DB	0fH
	DB	01H
	DB	01H
	DB	01H
	DB	0e8H
	DB	00H
	DB	00H
	DB	00H
	DB	00H
	DB	00H
	DB	00H
	DB	00H
	DB	00H
	DB	00H
	DB	0e8H
	DB	01H
	DB	01H
	DB	01H
	DB	060H
	DB	00H
	DB	00H
	DB	0aH
	DB	0faH
	DB	01H
	DB	01H
	DB	0ffH
	DB	06H
	DB	01H
	DB	01H
	DB	01H
	DB	01H
	DB	01H
	DB	01H
	DB	06H
	DB	080H
	DB	00H
	DB	00H
	DB	0aH
	DB	07cH
	DB	01H
	DB	01H
	DB	06H
	DB	00H
	DB	00H
	DB	00H
	DB	05H
	DB	01H
	DB	01H
	DB	07cH
	DB	0dH
	DB	0fH
	DB	034H
	DB	0efH
	DB	0bH
	DB	00H
	DB	00H
	DB	00H
	DB	0dH
	DB	01H
	DB	01H
	DB	01H
	DB	07cH
	DB	01H
	DB	01H
	DB	01H
	DB	01H
	DB	01H
	DB	01H
	DB	01H
	DB	0cH
	DB	00H
	DB	00H
	DB	00H
	DB	00H
	DB	00H
	DB	00H
	DB	00H
	DB	00H
	DB	00H
	DB	00H
	DB	00H
	DB	00H
	DB	00H
	DB	00H
	DB	00H
	DB	00H
	DB	00H
	DB	00H
	DB	00H
	DB	00H
	DB	00H
	DB	00H
	DB	00H
	DB	00H
	DB	00H
	DB	00H
	DB	00H
	DB	00H
	DB	00H
	DB	00H
	DB	00H
	DB	00H
	DB	00H
	DB	00H
	DB	00H
	DB	00H
	DB	0e2H
	DB	01H
	DB	01H
	DB	01H
	DB	01H
	DB	01H
	DB	06H
	DB	0bH
	DB	014H
	DB	00H
	DB	00H
	DB	00H
	DB	00H
	DB	00H
	DB	00H
	DB	0e8H
	DB	01H
	DB	01H
	DB	01H
	DB	014H
	DB	00H
	DB	04fH
	DB	00H
	DB	00H
	DB	00H
	DB	00H
	DB	020H
	DB	080H
	DB	00H
	DB	00H
	DB	00H
	DB	00H
	DB	010H
	DB	01H
	DB	01H
	DB	01H
	DB	0dH
	DB	00H
	DB	00H
	DB	04fH
	DB	02H
	DB	01H
	DB	01H
	DB	01H
	DB	01H
	DB	01H
	DB	01H
	DB	07cH
	DB	014H
	DB	00H
	DB	0aH
	DB	0ffH
	DB	01H
	DB	01H
	DB	02H
	DB	080H
	DB	00H
	DB	04fH
	DB	00H
	DB	00H
	DB	00H
	DB	00H
	DB	00H
	DB	00H
	DB	060H
	DB	01H
	DB	01H
	DB	010H
	DB	00H
	DB	00H
	DB	00H
	DB	00H
	DB	0fH
	DB	01H
	DB	01H
	DB	01H
	DB	063H
	DB	01bH
	DB	014H
	DB	014H
	DB	014H
	DB	014H
	DB	04fH
	DB	00H
	DB	00H
	DB	00H
	DB	0e8H
	DB	01H
	DB	01H
	DB	01H
	DB	060H
	DB	00H
	DB	00H
	DB	0aH
	DB	0faH
	DB	01H
	DB	01H
	DB	01H
	DB	049H
	DB	013H
	DB	017H
	DB	0cH
	DB	0ffH
	DB	01H
	DB	01H
	DB	01H
	DB	01bH
	DB	00H
	DB	00H
	DB	0aH
	DB	07cH
	DB	01H
	DB	01H
	DB	06H
	DB	00H
	DB	00H
	DB	017H
	DB	01H
	DB	01H
	DB	07cH
	DB	0aH
	DB	00H
	DB	00H
	DB	00H
	DB	00H
	DB	04fH
	DB	00H
	DB	00H
	DB	00H
	DB	0dH
	DB	01H
	DB	01H
	DB	01H
	DB	0ffH
	DB	010H
	DB	017H
	DB	017H
	DB	03aH
	DB	01H
	DB	01H
	DB	01H
	DB	0dH
	DB	00H
	DB	00H
	DB	00H
	DB	00H
	DB	00H
	DB	00H
	DB	00H
	DB	00H
	DB	00H
	DB	00H
	DB	00H
	DB	00H
	DB	00H
	DB	00H
	DB	00H
	DB	00H
	DB	00H
	DB	00H
	DB	00H
	DB	00H
	DB	00H
	DB	00H
	DB	00H
	DB	00H
	DB	00H
	DB	00H
	DB	00H
	DB	00H
	DB	00H
	DB	00H
	DB	00H
	DB	00H
	DB	00H
	DB	00H
	DB	00H
	DB	00H
	DB	0aH
	DB	04H
	DB	01H
	DB	01H
	DB	01H
	DB	01H
	DB	01H
	DB	01H
	DB	01H
	DB	03aH
	DB	017H
	DB	00H
	DB	00H
	DB	00H
	DB	00H
	DB	067H
	DB	01H
	DB	01H
	DB	01H
	DB	05cH
	DB	00H
	DB	00H
	DB	00H
	DB	00H
	DB	00H
	DB	00H
	DB	00H
	DB	00H
	DB	03H
	DB	0aH
	DB	0aH
	DB	00H
	DB	017H
	DB	0ffH
	DB	01H
	DB	01H
	DB	05H
	DB	00H
	DB	00H
	DB	04fH
	DB	02H
	DB	01H
	DB	01H
	DB	01H
	DB	01H
	DB	04H
	DB	014H
	DB	04fH
	DB	00H
	DB	00H
	DB	04fH
	DB	0ffH
	DB	01H
	DB	01H
	DB	02H
	DB	03H
	DB	00H
	DB	00H
	DB	00H
	DB	00H
	DB	00H
	DB	00H
	DB	00H
	DB	00H
	DB	04H
	DB	01H
	DB	0faH
	DB	0aH
	DB	00H
	DB	00H
	DB	00H
	DB	00H
	DB	0fH
	DB	01H
	DB	01H
	DB	01H
	DB	01H
	DB	01H
	DB	01H
	DB	01H
	DB	01H
	DB	01H
	DB	020H
	DB	00H
	DB	00H
	DB	00H
	DB	0e8H
	DB	01H
	DB	01H
	DB	01H
	DB	060H
	DB	00H
	DB	00H
	DB	0aH
	DB	0faH
	DB	01H
	DB	01H
	DB	06H
	DB	080H
	DB	00H
	DB	00H
	DB	00H
	DB	0dH
	DB	01H
	DB	01H
	DB	01H
	DB	013H
	DB	00H
	DB	00H
	DB	0aH
	DB	07cH
	DB	01H
	DB	01H
	DB	06H
	DB	00H
	DB	00H
	DB	05cH
	DB	01H
	DB	01H
	DB	0faH
	DB	080H
	DB	00H
	DB	00H
	DB	00H
	DB	00H
	DB	00H
	DB	00H
	DB	00H
	DB	00H
	DB	0dH
	DB	01H
	DB	01H
	DB	01H
	DB	0cH
	DB	00H
	DB	00H
	DB	00H
	DB	014H
	DB	01H
	DB	01H
	DB	01H
	DB	0bH
	DB	00H
	DB	00H
	DB	00H
	DB	00H
	DB	00H
	DB	00H
	DB	00H
	DB	00H
	DB	00H
	DB	00H
	DB	00H
	DB	00H
	DB	00H
	DB	00H
	DB	00H
	DB	00H
	DB	00H
	DB	00H
	DB	00H
	DB	00H
	DB	00H
	DB	00H
	DB	00H
	DB	00H
	DB	00H
	DB	00H
	DB	00H
	DB	00H
	DB	00H
	DB	00H
	DB	00H
	DB	00H
	DB	00H
	DB	00H
	DB	00H
	DB	00H
	DB	00H
	DB	0aH
	DB	0e8H
	DB	01H
	DB	01H
	DB	01H
	DB	01H
	DB	01H
	DB	01H
	DB	01H
	DB	07cH
	DB	017H
	DB	00H
	DB	00H
	DB	00H
	DB	0e8H
	DB	01H
	DB	01H
	DB	01H
	DB	05cH
	DB	00H
	DB	00H
	DB	00H
	DB	00H
	DB	00H
	DB	00H
	DB	065H
	DB	063H
	DB	0ffH
	DB	01H
	DB	01H
	DB	03aH
	DB	065H
	DB	0ffH
	DB	01H
	DB	01H
	DB	0efH
	DB	00H
	DB	00H
	DB	04fH
	DB	02H
	DB	01H
	DB	01H
	DB	01H
	DB	04H
	DB	0aH
	DB	00H
	DB	00H
	DB	00H
	DB	00H
	DB	04fH
	DB	0ffH
	DB	01H
	DB	01H
	DB	02H
	DB	0aH
	DB	00H
	DB	00H
	DB	00H
	DB	00H
	DB	00H
	DB	00H
	DB	00H
	DB	060H
	DB	01H
	DB	01H
	DB	0fH
	DB	00H
	DB	00H
	DB	00H
	DB	00H
	DB	00H
	DB	0fH
	DB	01H
	DB	01H
	DB	01H
	DB	01H
	DB	01H
	DB	01H
	DB	01H
	DB	01H
	DB	01H
	DB	020H
	DB	00H
	DB	00H
	DB	00H
	DB	0e8H
	DB	01H
	DB	01H
	DB	01H
	DB	060H
	DB	00H
	DB	00H
	DB	0aH
	DB	0faH
	DB	01H
	DB	01H
	DB	02H
	DB	04fH
	DB	00H
	DB	00H
	DB	00H
	DB	070H
	DB	01H
	DB	01H
	DB	01H
	DB	060H
	DB	00H
	DB	00H
	DB	0aH
	DB	07cH
	DB	01H
	DB	01H
	DB	06H
	DB	00H
	DB	00H
	DB	017H
	DB	01H
	DB	01H
	DB	01H
	DB	06H
	DB	070H
	DB	060H
	DB	03H
	DB	00H
	DB	00H
	DB	00H
	DB	00H
	DB	00H
	DB	0dH
	DB	01H
	DB	01H
	DB	01H
	DB	014H
	DB	00H
	DB	00H
	DB	00H
	DB	05cH
	DB	01H
	DB	01H
	DB	01H
	DB	0bH
	DB	00H
	DB	00H
	DB	00H
	DB	00H
	DB	00H
	DB	00H
	DB	00H
	DB	00H
	DB	00H
	DB	00H
	DB	00H
	DB	00H
	DB	00H
	DB	00H
	DB	00H
	DB	00H
	DB	00H
	DB	00H
	DB	00H
	DB	00H
	DB	00H
	DB	00H
	DB	00H
	DB	00H
	DB	00H
	DB	00H
	DB	00H
	DB	00H
	DB	00H
	DB	00H
	DB	00H
	DB	00H
	DB	00H
	DB	00H
	DB	00H
	DB	00H
	DB	00H
	DB	00H
	DB	00H
	DB	01bH
	DB	0e8H
	DB	0ffH
	DB	01H
	DB	01H
	DB	01H
	DB	01H
	DB	01H
	DB	03aH
	DB	00H
	DB	00H
	DB	00H
	DB	0e8H
	DB	01H
	DB	01H
	DB	01H
	DB	05cH
	DB	00H
	DB	00H
	DB	00H
	DB	00H
	DB	00H
	DB	070H
	DB	01H
	DB	01H
	DB	01H
	DB	0ffH
	DB	0f3H
	DB	0ffH
	DB	01H
	DB	01H
	DB	01H
	DB	01H
	DB	0efH
	DB	00H
	DB	00H
	DB	04fH
	DB	02H
	DB	01H
	DB	01H
	DB	01H
	DB	060H
	DB	00H
	DB	00H
	DB	00H
	DB	00H
	DB	00H
	DB	04fH
	DB	0ffH
	DB	01H
	DB	01H
	DB	02H
	DB	0aH
	DB	00H
	DB	00H
	DB	00H
	DB	00H
	DB	00H
	DB	00H
	DB	00H
	DB	0efH
	DB	01H
	DB	0ffH
	DB	080H
	DB	00H
	DB	00H
	DB	00H
	DB	00H
	DB	00H
	DB	0fH
	DB	01H
	DB	01H
	DB	01H
	DB	02H
	DB	034H
	DB	0dH
	DB	0dH
	DB	0dH
	DB	067H
	DB	080H
	DB	00H
	DB	00H
	DB	00H
	DB	0e8H
	DB	01H
	DB	01H
	DB	01H
	DB	060H
	DB	00H
	DB	00H
	DB	0aH
	DB	0faH
	DB	01H
	DB	01H
	DB	02H
	DB	04fH
	DB	00H
	DB	00H
	DB	00H
	DB	070H
	DB	01H
	DB	01H
	DB	01H
	DB	060H
	DB	00H
	DB	00H
	DB	0aH
	DB	07cH
	DB	01H
	DB	01H
	DB	06H
	DB	00H
	DB	00H
	DB	00H
	DB	063H
	DB	01H
	DB	01H
	DB	01H
	DB	01H
	DB	01H
	DB	06H
	DB	0fH
	DB	04fH
	DB	00H
	DB	00H
	DB	00H
	DB	0dH
	DB	01H
	DB	01H
	DB	01H
	DB	060H
	DB	00H
	DB	00H
	DB	00H
	DB	014H
	DB	01H
	DB	01H
	DB	01H
	DB	0bH
	DB	00H
	DB	00H
	DB	00H
	DB	00H
	DB	00H
	DB	00H
	DB	00H
	DB	00H
	DB	00H
	DB	00H
	DB	00H
	DB	00H
	DB	00H
	DB	00H
	DB	00H
	DB	00H
	DB	00H
	DB	00H
	DB	00H
	DB	00H
	DB	00H
	DB	00H
	DB	00H
	DB	00H
	DB	00H
	DB	00H
	DB	00H
	DB	00H
	DB	00H
	DB	00H
	DB	00H
	DB	00H
	DB	00H
	DB	00H
	DB	00H
	DB	00H
	DB	00H
	DB	00H
	DB	00H
	DB	00H
	DB	00H
	DB	080H
	DB	0fH
	DB	01H
	DB	01H
	DB	01H
	DB	01H
	DB	01H
	DB	095H
	DB	00H
	DB	00H
	DB	0e8H
	DB	01H
	DB	01H
	DB	01H
	DB	05cH
	DB	00H
	DB	00H
	DB	00H
	DB	00H
	DB	065H
	DB	01H
	DB	01H
	DB	01H
	DB	0bH
	DB	080H
	DB	00H
	DB	080H
	DB	0efH
	DB	01H
	DB	01H
	DB	01H
	DB	0efH
	DB	00H
	DB	00H
	DB	04fH
	DB	02H
	DB	01H
	DB	01H
	DB	06H
	DB	080H
	DB	00H
	DB	00H
	DB	00H
	DB	00H
	DB	00H
	DB	04fH
	DB	0ffH
	DB	01H
	DB	01H
	DB	02H
	DB	0aH
	DB	00H
	DB	00H
	DB	00H
	DB	00H
	DB	00H
	DB	00H
	DB	060H
	DB	01H
	DB	01H
	DB	0fH
	DB	00H
	DB	00H
	DB	00H
	DB	00H
	DB	00H
	DB	00H
	DB	0fH
	DB	01H
	DB	01H
	DB	01H
	DB	0e8H
	DB	00H
	DB	00H
	DB	00H
	DB	00H
	DB	00H
	DB	00H
	DB	00H
	DB	00H
	DB	00H
	DB	0e8H
	DB	01H
	DB	01H
	DB	01H
	DB	060H
	DB	00H
	DB	00H
	DB	0aH
	DB	0faH
	DB	01H
	DB	01H
	DB	02H
	DB	04fH
	DB	00H
	DB	00H
	DB	00H
	DB	070H
	DB	01H
	DB	01H
	DB	01H
	DB	060H
	DB	00H
	DB	00H
	DB	0aH
	DB	07cH
	DB	01H
	DB	01H
	DB	06H
	DB	00H
	DB	00H
	DB	00H
	DB	095H
	DB	07cH
	DB	01H
	DB	01H
	DB	01H
	DB	01H
	DB	01H
	DB	01H
	DB	04H
	DB	0aH
	DB	00H
	DB	00H
	DB	0dH
	DB	01H
	DB	01H
	DB	01H
	DB	060H
	DB	00H
	DB	00H
	DB	00H
	DB	014H
	DB	01H
	DB	01H
	DB	01H
	DB	0bH
	DB	00H
	DB	00H
	DB	00H
	DB	00H
	DB	00H
	DB	00H
	DB	00H
	DB	00H
	DB	00H
	DB	00H
	DB	00H
	DB	00H
	DB	00H
	DB	00H
	DB	00H
	DB	00H
	DB	00H
	DB	00H
	DB	00H
	DB	00H
	DB	00H
	DB	00H
	DB	00H
	DB	00H
	DB	00H
	DB	00H
	DB	00H
	DB	00H
	DB	00H
	DB	00H
	DB	00H
	DB	00H
	DB	00H
	DB	00H
	DB	00H
	DB	00H
	DB	00H
	DB	00H
	DB	00H
	DB	00H
	DB	00H
	DB	00H
	DB	00H
	DB	05eH
	DB	01H
	DB	01H
	DB	01H
	DB	01H
	DB	065H
	DB	00H
	DB	00H
	DB	0e8H
	DB	01H
	DB	01H
	DB	01H
	DB	05cH
	DB	00H
	DB	00H
	DB	00H
	DB	00H
	DB	05H
	DB	01H
	DB	01H
	DB	0ffH
	DB	017H
	DB	00H
	DB	00H
	DB	00H
	DB	060H
	DB	01H
	DB	01H
	DB	01H
	DB	0efH
	DB	00H
	DB	00H
	DB	04fH
	DB	02H
	DB	01H
	DB	01H
	DB	0faH
	DB	0aH
	DB	00H
	DB	00H
	DB	00H
	DB	00H
	DB	00H
	DB	04fH
	DB	0ffH
	DB	01H
	DB	01H
	DB	02H
	DB	0aH
	DB	00H
	DB	00H
	DB	00H
	DB	00H
	DB	00H
	DB	00H
	DB	05H
	DB	01H
	DB	06H
	DB	080H
	DB	00H
	DB	00H
	DB	00H
	DB	00H
	DB	00H
	DB	00H
	DB	0fH
	DB	01H
	DB	01H
	DB	01H
	DB	0bH
	DB	00H
	DB	00H
	DB	00H
	DB	00H
	DB	00H
	DB	00H
	DB	00H
	DB	00H
	DB	00H
	DB	0e8H
	DB	01H
	DB	01H
	DB	01H
	DB	060H
	DB	00H
	DB	00H
	DB	0aH
	DB	0faH
	DB	01H
	DB	01H
	DB	02H
	DB	04fH
	DB	00H
	DB	00H
	DB	00H
	DB	070H
	DB	01H
	DB	01H
	DB	01H
	DB	060H
	DB	00H
	DB	00H
	DB	0aH
	DB	07cH
	DB	01H
	DB	01H
	DB	06H
	DB	00H
	DB	00H
	DB	00H
	DB	00H
	DB	080H
	DB	0fH
	DB	02H
	DB	01H
	DB	01H
	DB	01H
	DB	01H
	DB	01H
	DB	079H
	DB	00H
	DB	00H
	DB	0dH
	DB	01H
	DB	01H
	DB	01H
	DB	060H
	DB	00H
	DB	00H
	DB	00H
	DB	014H
	DB	01H
	DB	01H
	DB	01H
	DB	0bH
	DB	00H
	DB	00H
	DB	00H
	DB	00H
	DB	00H
	DB	00H
	DB	00H
	DB	00H
	DB	00H
	DB	00H
	DB	00H
	DB	00H
	DB	00H
	DB	00H
	DB	00H
	DB	00H
	DB	00H
	DB	00H
	DB	00H
	DB	00H
	DB	00H
	DB	00H
	DB	00H
	DB	00H
	DB	00H
	DB	00H
	DB	00H
	DB	00H
	DB	00H
	DB	00H
	DB	00H
	DB	00H
	DB	00H
	DB	00H
	DB	00H
	DB	00H
	DB	00H
	DB	00H
	DB	00H
	DB	00H
	DB	00H
	DB	00H
	DB	00H
	DB	0aH
	DB	06H
	DB	01H
	DB	01H
	DB	01H
	DB	0cH
	DB	00H
	DB	00H
	DB	0e8H
	DB	01H
	DB	01H
	DB	01H
	DB	05cH
	DB	00H
	DB	00H
	DB	00H
	DB	00H
	DB	06H
	DB	01H
	DB	01H
	DB	02H
	DB	0aH
	DB	00H
	DB	00H
	DB	00H
	DB	017H
	DB	0ffH
	DB	01H
	DB	01H
	DB	0efH
	DB	00H
	DB	00H
	DB	04fH
	DB	02H
	DB	01H
	DB	01H
	DB	0faH
	DB	0aH
	DB	00H
	DB	00H
	DB	00H
	DB	00H
	DB	00H
	DB	04fH
	DB	0ffH
	DB	01H
	DB	01H
	DB	02H
	DB	03H
	DB	00H
	DB	00H
	DB	00H
	DB	00H
	DB	00H
	DB	014H
	DB	01H
	DB	01H
	DB	0fH
	DB	00H
	DB	00H
	DB	00H
	DB	00H
	DB	00H
	DB	00H
	DB	00H
	DB	0fH
	DB	01H
	DB	01H
	DB	01H
	DB	0bH
	DB	00H
	DB	00H
	DB	00H
	DB	00H
	DB	00H
	DB	00H
	DB	00H
	DB	00H
	DB	00H
	DB	0e8H
	DB	01H
	DB	01H
	DB	01H
	DB	060H
	DB	00H
	DB	00H
	DB	0aH
	DB	0faH
	DB	01H
	DB	01H
	DB	02H
	DB	04fH
	DB	00H
	DB	00H
	DB	00H
	DB	070H
	DB	01H
	DB	01H
	DB	01H
	DB	060H
	DB	00H
	DB	00H
	DB	0aH
	DB	07cH
	DB	01H
	DB	01H
	DB	06H
	DB	00H
	DB	00H
	DB	00H
	DB	00H
	DB	00H
	DB	00H
	DB	04fH
	DB	01bH
	DB	03aH
	DB	01H
	DB	01H
	DB	01H
	DB	05H
	DB	00H
	DB	00H
	DB	0dH
	DB	01H
	DB	01H
	DB	01H
	DB	060H
	DB	00H
	DB	00H
	DB	00H
	DB	014H
	DB	01H
	DB	01H
	DB	01H
	DB	0bH
	DB	00H
	DB	00H
	DB	00H
	DB	00H
	DB	00H
	DB	00H
	DB	00H
	DB	00H
	DB	00H
	DB	00H
	DB	00H
	DB	00H
	DB	00H
	DB	00H
	DB	00H
	DB	00H
	DB	00H
	DB	00H
	DB	00H
	DB	00H
	DB	00H
	DB	00H
	DB	00H
	DB	00H
	DB	00H
	DB	00H
	DB	00H
	DB	00H
	DB	00H
	DB	00H
	DB	00H
	DB	00H
	DB	00H
	DB	00H
	DB	00H
	DB	00H
	DB	00H
	DB	00H
	DB	00H
	DB	00H
	DB	00H
	DB	00H
	DB	00H
	DB	095H
	DB	01H
	DB	01H
	DB	01H
	DB	01H
	DB	014H
	DB	00H
	DB	00H
	DB	067H
	DB	01H
	DB	01H
	DB	01H
	DB	05cH
	DB	00H
	DB	00H
	DB	00H
	DB	00H
	DB	06H
	DB	01H
	DB	01H
	DB	09cH
	DB	02eH
	DB	00H
	DB	00H
	DB	00H
	DB	05cH
	DB	01H
	DB	01H
	DB	01H
	DB	0efH
	DB	00H
	DB	00H
	DB	04fH
	DB	02H
	DB	01H
	DB	01H
	DB	0faH
	DB	0aH
	DB	00H
	DB	00H
	DB	00H
	DB	00H
	DB	00H
	DB	04fH
	DB	0ffH
	DB	01H
	DB	01H
	DB	02H
	DB	0aH
	DB	00H
	DB	00H
	DB	00H
	DB	00H
	DB	00H
	DB	05H
	DB	01H
	DB	06H
	DB	080H
	DB	00H
	DB	00H
	DB	00H
	DB	00H
	DB	00H
	DB	00H
	DB	00H
	DB	0fH
	DB	01H
	DB	01H
	DB	01H
	DB	0bH
	DB	00H
	DB	00H
	DB	00H
	DB	00H
	DB	00H
	DB	00H
	DB	00H
	DB	00H
	DB	00H
	DB	0e8H
	DB	01H
	DB	01H
	DB	01H
	DB	060H
	DB	00H
	DB	00H
	DB	0aH
	DB	0faH
	DB	01H
	DB	01H
	DB	02H
	DB	04fH
	DB	00H
	DB	00H
	DB	00H
	DB	070H
	DB	01H
	DB	01H
	DB	01H
	DB	060H
	DB	00H
	DB	00H
	DB	0aH
	DB	07cH
	DB	01H
	DB	01H
	DB	06H
	DB	00H
	DB	00H
	DB	00H
	DB	00H
	DB	00H
	DB	00H
	DB	00H
	DB	00H
	DB	04fH
	DB	04H
	DB	01H
	DB	01H
	DB	04H
	DB	04fH
	DB	00H
	DB	0dH
	DB	01H
	DB	01H
	DB	01H
	DB	060H
	DB	00H
	DB	00H
	DB	00H
	DB	014H
	DB	01H
	DB	01H
	DB	01H
	DB	0bH
	DB	00H
	DB	00H
	DB	00H
	DB	00H
	DB	00H
	DB	00H
	DB	00H
	DB	00H
	DB	00H
	DB	00H
	DB	00H
	DB	00H
	DB	00H
	DB	00H
	DB	00H
	DB	00H
	DB	00H
	DB	00H
	DB	00H
	DB	00H
	DB	00H
	DB	00H
	DB	00H
	DB	00H
	DB	00H
	DB	00H
	DB	00H
	DB	00H
	DB	00H
	DB	00H
	DB	00H
	DB	00H
	DB	00H
	DB	00H
	DB	00H
	DB	00H
	DB	0dH
	DB	0fH
	DB	014H
	DB	02eH
	DB	080H
	DB	080H
	DB	014H
	DB	091H
	DB	01H
	DB	01H
	DB	01H
	DB	0faH
	DB	03H
	DB	00H
	DB	00H
	DB	010H
	DB	01H
	DB	01H
	DB	01H
	DB	070H
	DB	00H
	DB	00H
	DB	00H
	DB	00H
	DB	0efH
	DB	01H
	DB	01H
	DB	01H
	DB	079H
	DB	00H
	DB	00H
	DB	00H
	DB	0bH
	DB	01H
	DB	01H
	DB	01H
	DB	0efH
	DB	00H
	DB	00H
	DB	04fH
	DB	02H
	DB	01H
	DB	01H
	DB	0faH
	DB	0aH
	DB	00H
	DB	00H
	DB	00H
	DB	00H
	DB	00H
	DB	00H
	DB	04H
	DB	01H
	DB	01H
	DB	01H
	DB	014H
	DB	00H
	DB	00H
	DB	00H
	DB	00H
	DB	014H
	DB	01H
	DB	01H
	DB	0fH
	DB	00H
	DB	00H
	DB	00H
	DB	00H
	DB	00H
	DB	00H
	DB	00H
	DB	00H
	DB	0fH
	DB	01H
	DB	01H
	DB	01H
	DB	0bH
	DB	00H
	DB	00H
	DB	00H
	DB	00H
	DB	00H
	DB	00H
	DB	00H
	DB	00H
	DB	00H
	DB	0e8H
	DB	01H
	DB	01H
	DB	01H
	DB	060H
	DB	00H
	DB	00H
	DB	0aH
	DB	0faH
	DB	01H
	DB	01H
	DB	02H
	DB	04fH
	DB	00H
	DB	00H
	DB	00H
	DB	070H
	DB	01H
	DB	01H
	DB	01H
	DB	060H
	DB	00H
	DB	00H
	DB	0aH
	DB	07cH
	DB	01H
	DB	01H
	DB	06H
	DB	00H
	DB	00H
	DB	086H
	DB	0aH
	DB	00H
	DB	00H
	DB	00H
	DB	00H
	DB	04fH
	DB	044H
	DB	01H
	DB	01H
	DB	0bH
	DB	00H
	DB	00H
	DB	0dH
	DB	01H
	DB	01H
	DB	01H
	DB	060H
	DB	00H
	DB	00H
	DB	00H
	DB	014H
	DB	01H
	DB	01H
	DB	01H
	DB	0bH
	DB	00H
	DB	00H
	DB	00H
	DB	00H
	DB	00H
	DB	00H
	DB	00H
	DB	00H
	DB	00H
	DB	00H
	DB	00H
	DB	00H
	DB	00H
	DB	00H
	DB	00H
	DB	00H
	DB	00H
	DB	00H
	DB	00H
	DB	00H
	DB	00H
	DB	00H
	DB	00H
	DB	00H
	DB	00H
	DB	00H
	DB	00H
	DB	00H
	DB	00H
	DB	00H
	DB	00H
	DB	00H
	DB	00H
	DB	00H
	DB	00H
	DB	04fH
	DB	06H
	DB	01H
	DB	01H
	DB	0ffH
	DB	06H
	DB	0ffH
	DB	01H
	DB	01H
	DB	01H
	DB	01H
	DB	01H
	DB	0cH
	DB	00H
	DB	00H
	DB	00H
	DB	01bH
	DB	0ffH
	DB	01H
	DB	01H
	DB	01H
	DB	04H
	DB	0efH
	DB	079H
	DB	00H
	DB	010H
	DB	01H
	DB	01H
	DB	01H
	DB	01H
	DB	044H
	DB	03aH
	DB	07cH
	DB	01H
	DB	01H
	DB	01H
	DB	01H
	DB	0efH
	DB	00H
	DB	00H
	DB	04fH
	DB	02H
	DB	01H
	DB	01H
	DB	0faH
	DB	0aH
	DB	00H
	DB	00H
	DB	00H
	DB	00H
	DB	00H
	DB	00H
	DB	079H
	DB	01H
	DB	01H
	DB	01H
	DB	0ffH
	DB	05H
	DB	04H
	DB	01bH
	DB	00H
	DB	03aH
	DB	01H
	DB	0ffH
	DB	080H
	DB	00H
	DB	00H
	DB	00H
	DB	00H
	DB	00H
	DB	00H
	DB	00H
	DB	00H
	DB	0fH
	DB	01H
	DB	01H
	DB	01H
	DB	0bH
	DB	00H
	DB	00H
	DB	00H
	DB	00H
	DB	00H
	DB	00H
	DB	00H
	DB	00H
	DB	00H
	DB	0e8H
	DB	01H
	DB	01H
	DB	01H
	DB	060H
	DB	00H
	DB	00H
	DB	0aH
	DB	0faH
	DB	01H
	DB	01H
	DB	02H
	DB	04fH
	DB	00H
	DB	00H
	DB	00H
	DB	070H
	DB	01H
	DB	01H
	DB	01H
	DB	060H
	DB	00H
	DB	00H
	DB	0aH
	DB	07cH
	DB	01H
	DB	01H
	DB	06H
	DB	00H
	DB	00H
	DB	01bH
	DB	06H
	DB	0dH
	DB	060H
	DB	014H
	DB	0cH
	DB	04H
	DB	01H
	DB	01H
	DB	01H
	DB	013H
	DB	00H
	DB	00H
	DB	0dH
	DB	01H
	DB	01H
	DB	01H
	DB	060H
	DB	00H
	DB	00H
	DB	00H
	DB	014H
	DB	01H
	DB	01H
	DB	01H
	DB	0bH
	DB	00H
	DB	00H
	DB	00H
	DB	00H
	DB	00H
	DB	00H
	DB	00H
	DB	00H
	DB	00H
	DB	00H
	DB	00H
	DB	00H
	DB	00H
	DB	00H
	DB	00H
	DB	00H
	DB	00H
	DB	00H
	DB	00H
	DB	00H
	DB	00H
	DB	00H
	DB	00H
	DB	00H
	DB	00H
	DB	00H
	DB	00H
	DB	00H
	DB	00H
	DB	00H
	DB	00H
	DB	00H
	DB	00H
	DB	00H
	DB	00H
	DB	095H
	DB	0ffH
	DB	01H
	DB	01H
	DB	01H
	DB	01H
	DB	01H
	DB	01H
	DB	01H
	DB	01H
	DB	0ffH
	DB	05eH
	DB	00H
	DB	00H
	DB	00H
	DB	00H
	DB	00H
	DB	010H
	DB	01H
	DB	01H
	DB	01H
	DB	01H
	DB	01H
	DB	02H
	DB	00H
	DB	04fH
	DB	03aH
	DB	01H
	DB	01H
	DB	01H
	DB	01H
	DB	01H
	DB	01H
	DB	015H
	DB	06H
	DB	01H
	DB	01H
	DB	0efH
	DB	00H
	DB	00H
	DB	04fH
	DB	02H
	DB	01H
	DB	01H
	DB	06H
	DB	0aH
	DB	00H
	DB	00H
	DB	00H
	DB	00H
	DB	00H
	DB	00H
	DB	04fH
	DB	05H
	DB	01H
	DB	01H
	DB	01H
	DB	01H
	DB	01H
	DB	079H
	DB	01bH
	DB	01H
	DB	01H
	DB	034H
	DB	00H
	DB	00H
	DB	00H
	DB	00H
	DB	00H
	DB	00H
	DB	00H
	DB	00H
	DB	00H
	DB	0fH
	DB	01H
	DB	01H
	DB	01H
	DB	0bH
	DB	00H
	DB	00H
	DB	00H
	DB	00H
	DB	00H
	DB	00H
	DB	00H
	DB	00H
	DB	00H
	DB	0e8H
	DB	01H
	DB	01H
	DB	01H
	DB	013H
	DB	00H
	DB	00H
	DB	0aH
	DB	06H
	DB	01H
	DB	01H
	DB	02H
	DB	04fH
	DB	00H
	DB	00H
	DB	00H
	DB	034H
	DB	01H
	DB	01H
	DB	01H
	DB	013H
	DB	00H
	DB	00H
	DB	0aH
	DB	07cH
	DB	01H
	DB	01H
	DB	06H
	DB	00H
	DB	00H
	DB	0cH
	DB	01H
	DB	01H
	DB	01H
	DB	01H
	DB	01H
	DB	01H
	DB	01H
	DB	01H
	DB	0e2H
	DB	00H
	DB	00H
	DB	00H
	DB	0dH
	DB	01H
	DB	01H
	DB	01H
	DB	060H
	DB	00H
	DB	00H
	DB	00H
	DB	014H
	DB	01H
	DB	01H
	DB	01H
	DB	0bH
	DB	00H
	DB	00H
	DB	00H
	DB	00H
	DB	00H
	DB	00H
	DB	00H
	DB	00H
	DB	00H
	DB	00H
	DB	00H
	DB	00H
	DB	00H
	DB	00H
	DB	00H
	DB	00H
	DB	00H
	DB	00H
	DB	00H
	DB	00H
	DB	00H
	DB	00H
	DB	00H
	DB	00H
	DB	00H
	DB	00H
	DB	00H
	DB	00H
	DB	00H
	DB	00H
	DB	00H
	DB	00H
	DB	00H
	DB	00H
	DB	00H
	DB	00H
	DB	095H
	DB	015H
	DB	0dH
	DB	03aH
	DB	04H
	DB	0efH
	DB	063H
	DB	0e8H
	DB	05eH
	DB	080H
	DB	00H
	DB	00H
	DB	00H
	DB	00H
	DB	00H
	DB	00H
	DB	00H
	DB	013H
	DB	05bH
	DB	04H
	DB	0efH
	DB	0e8H
	DB	065H
	DB	00H
	DB	00H
	DB	04fH
	DB	0cH
	DB	05bH
	DB	04H
	DB	063H
	DB	0dH
	DB	01bH
	DB	00H
	DB	0dH
	DB	04H
	DB	044H
	DB	034H
	DB	00H
	DB	00H
	DB	04fH
	DB	0bH
	DB	04H
	DB	04H
	DB	05bH
	DB	04fH
	DB	00H
	DB	00H
	DB	00H
	DB	00H
	DB	00H
	DB	00H
	DB	00H
	DB	04fH
	DB	079H
	DB	063H
	DB	04H
	DB	05H
	DB	070H
	DB	020H
	DB	0e8H
	DB	01H
	DB	0ffH
	DB	095H
	DB	00H
	DB	00H
	DB	00H
	DB	00H
	DB	00H
	DB	00H
	DB	00H
	DB	00H
	DB	00H
	DB	0cH
	DB	044H
	DB	0efH
	DB	04H
	DB	079H
	DB	00H
	DB	00H
	DB	00H
	DB	00H
	DB	00H
	DB	00H
	DB	00H
	DB	00H
	DB	00H
	DB	010H
	DB	044H
	DB	04H
	DB	0efH
	DB	05cH
	DB	00H
	DB	00H
	DB	04fH
	DB	05bH
	DB	04H
	DB	04H
	DB	0bH
	DB	04fH
	DB	00H
	DB	00H
	DB	00H
	DB	05eH
	DB	044H
	DB	0efH
	DB	04H
	DB	05cH
	DB	00H
	DB	00H
	DB	03H
	DB	0bH
	DB	04H
	DB	04H
	DB	03aH
	DB	00H
	DB	00H
	DB	080H
	DB	0fH
	DB	063H
	DB	07cH
	DB	06H
	DB	0faH
	DB	04H
	DB	0dH
	DB	01bH
	DB	00H
	DB	00H
	DB	00H
	DB	00H
	DB	010H
	DB	044H
	DB	0efH
	DB	04H
	DB	01bH
	DB	00H
	DB	00H
	DB	00H
	DB	020H
	DB	04H
	DB	0efH
	DB	044H
	DB	079H
	DB	00H
	DB	00H
	DB	00H
	DB	00H
	DB	00H
	DB	00H
	DB	00H
	DB	00H
	DB	00H
	DB	00H
	DB	00H
	DB	00H
	DB	00H
	DB	00H
	DB	00H
	DB	00H
	DB	00H
	DB	00H
	DB	00H
	DB	00H
	DB	00H
	DB	00H
	DB	00H
	DB	00H
	DB	00H
	DB	00H
	DB	00H
	DB	00H
	DB	00H
	DB	00H
	DB	00H
	DB	00H
	DB	00H
	DB	00H
	DB	00H
	DB	00H
	DB	00H
	DB	00H
	DB	00H
	DB	00H
	DB	04fH
	DB	04fH
	DB	00H
	DB	00H
	DB	00H
	DB	00H
	DB	00H
	DB	00H
	DB	00H
	DB	00H
	DB	00H
	DB	00H
	DB	00H
	DB	00H
	DB	00H
	DB	04fH
	DB	00H
	DB	00H
	DB	00H
	DB	00H
	DB	00H
	DB	00H
	DB	00H
	DB	00H
	DB	04fH
	DB	00H
	DB	00H
	DB	00H
	DB	00H
	DB	00H
	DB	04fH
	DB	04fH
	DB	00H
	DB	00H
	DB	00H
	DB	00H
	DB	086H
	DB	04fH
	DB	04fH
	DB	086H
	DB	00H
	DB	00H
	DB	00H
	DB	00H
	DB	00H
	DB	00H
	DB	00H
	DB	00H
	DB	00H
	DB	00H
	DB	00H
	DB	04fH
	DB	00H
	DB	00H
	DB	01bH
	DB	01H
	DB	01H
	DB	0dH
	DB	00H
	DB	00H
	DB	00H
	DB	00H
	DB	00H
	DB	00H
	DB	00H
	DB	00H
	DB	00H
	DB	00H
	DB	00H
	DB	04fH
	DB	04fH
	DB	04fH
	DB	00H
	DB	00H
	DB	00H
	DB	00H
	DB	00H
	DB	00H
	DB	00H
	DB	00H
	DB	00H
	DB	00H
	DB	00H
	DB	04fH
	DB	04fH
	DB	04fH
	DB	00H
	DB	00H
	DB	00H
	DB	00H
	DB	086H
	DB	04fH
	DB	04fH
	DB	086H
	DB	00H
	DB	00H
	DB	00H
	DB	00H
	DB	00H
	DB	04fH
	DB	04fH
	DB	04fH
	DB	00H
	DB	00H
	DB	00H
	DB	00H
	DB	086H
	DB	04fH
	DB	04fH
	DB	086H
	DB	00H
	DB	00H
	DB	00H
	DB	00H
	DB	00H
	DB	03H
	DB	0aH
	DB	0aH
	DB	04fH
	DB	00H
	DB	00H
	DB	00H
	DB	00H
	DB	00H
	DB	00H
	DB	00H
	DB	04fH
	DB	04fH
	DB	04fH
	DB	00H
	DB	00H
	DB	00H
	DB	00H
	DB	00H
	DB	04fH
	DB	04fH
	DB	04fH
	DB	00H
	DB	00H
	DB	00H
	DB	00H
	DB	00H
	DB	00H
	DB	00H
	DB	00H
	DB	00H
	DB	00H
	DB	00H
	DB	00H
	DB	00H
	DB	00H
	DB	00H
	DB	00H
	DB	00H
	DB	00H
	DB	00H
	DB	00H
	DB	00H
	DB	00H
	DB	00H
	DB	00H
	DB	00H
	DB	00H
	DB	00H
	DB	00H
	DB	00H
	DB	00H
	DB	00H
	DB	00H
	DB	00H
	DB	00H
	DB	00H
	DB	00H
	DB	00H
	DB	00H
	DB	00H
	DB	00H
	DB	00H
	DB	00H
	DB	00H
	DB	00H
	DB	00H
	DB	00H
	DB	00H
	DB	00H
	DB	00H
	DB	00H
	DB	00H
	DB	00H
	DB	00H
	DB	00H
	DB	00H
	DB	00H
	DB	00H
	DB	00H
	DB	00H
	DB	00H
	DB	00H
	DB	00H
	DB	00H
	DB	00H
	DB	00H
	DB	00H
	DB	00H
	DB	00H
	DB	00H
	DB	00H
	DB	00H
	DB	00H
	DB	00H
	DB	00H
	DB	00H
	DB	00H
	DB	00H
	DB	00H
	DB	00H
	DB	00H
	DB	00H
	DB	00H
	DB	00H
	DB	00H
	DB	00H
	DB	00H
	DB	00H
	DB	00H
	DB	00H
	DB	00H
	DB	00H
	DB	00H
	DB	00H
	DB	00H
	DB	00H
	DB	015H
	DB	04H
	DB	063H
	DB	017H
	DB	00H
	DB	00H
	DB	00H
	DB	00H
	DB	00H
	DB	00H
	DB	00H
	DB	00H
	DB	00H
	DB	00H
	DB	00H
	DB	00H
	DB	00H
	DB	00H
	DB	00H
	DB	00H
	DB	00H
	DB	00H
	DB	00H
	DB	00H
	DB	00H
	DB	00H
	DB	00H
	DB	00H
	DB	00H
	DB	00H
	DB	00H
	DB	00H
	DB	00H
	DB	00H
	DB	00H
	DB	00H
	DB	00H
	DB	00H
	DB	00H
	DB	00H
	DB	00H
	DB	00H
	DB	00H
	DB	00H
	DB	00H
	DB	00H
	DB	00H
	DB	00H
	DB	00H
	DB	00H
	DB	00H
	DB	00H
	DB	00H
	DB	00H
	DB	00H
	DB	00H
	DB	00H
	DB	00H
	DB	00H
	DB	00H
	DB	00H
	DB	00H
	DB	00H
	DB	00H
	DB	00H
	DB	00H
	DB	00H
	DB	00H
	DB	00H
	DB	00H
	DB	00H
	DB	00H
	DB	00H
	DB	00H
	DB	00H
	DB	00H
	DB	00H
	DB	00H
	DB	00H
	DB	00H
	DB	00H
	DB	00H
	DB	00H
	DB	00H
	DB	00H
	DB	00H
	DB	00H
	DB	00H
	DB	00H
	DB	00H
	DB	00H
	DB	00H
	DB	00H
	DB	00H
	DB	00H
	DB	00H
	DB	00H
	DB	00H
	DB	00H
	DB	00H
	DB	00H
	DB	00H
	DB	00H
	DB	00H
	DB	00H
	DB	00H
	DB	00H
	DB	00H
	DB	00H
	DB	00H
	DB	00H
	DB	00H
	DB	00H
	DB	00H
	DB	00H
	DB	00H
	DB	00H
	DB	00H
	DB	00H
	DB	00H
	DB	00H
	DB	00H
	DB	00H
	DB	00H
	DB	00H
	DB	00H
	DB	00H
	DB	00H
	DB	00H
	DB	00H
	DB	00H
	DB	00H
	DB	00H
	DB	00H
	DB	00H
	DB	00H
	DB	00H
	DB	00H
	DB	00H
	DB	00H
	DB	00H
	DB	00H
	DB	00H
	DB	00H
	DB	00H
	DB	00H
	DB	00H
	DB	00H
	DB	00H
	DB	00H
	DB	00H
	DB	00H
	DB	00H
	DB	00H
	DB	00H
	DB	00H
	DB	00H
	DB	00H
	DB	00H
	DB	00H
	DB	00H
	DB	00H
	DB	00H
	DB	00H
	DB	00H
	DB	00H
	DB	00H
	DB	00H
	DB	00H
	DB	00H
	DB	00H
	DB	00H
	DB	00H
	DB	00H
	DB	00H
	DB	00H
	DB	00H
	DB	00H
	DB	00H
	DB	00H
	DB	00H
	DB	00H
	DB	00H
	DB	00H
	DB	00H
	DB	00H
	DB	00H
	DB	00H
	DB	00H
	DB	00H
	DB	00H
	DB	00H
	DB	00H
	DB	00H
	DB	00H
	DB	00H
	DB	00H
	DB	00H
	DB	00H
	DB	00H
	DB	00H
	DB	00H
	DB	00H
	DB	00H
	DB	00H
	DB	00H
	DB	00H
	DB	00H
	DB	00H
	DB	00H
	DB	00H
	DB	00H
	DB	00H
	DB	00H
	DB	00H
	DB	00H
	DB	00H
	DB	00H
	DB	00H
	DB	00H
	DB	00H
	DB	00H
	DB	00H
	DB	00H
	DB	00H
	DB	00H
	DB	00H
	DB	00H
	DB	00H
	DB	00H
	DB	00H
	DB	00H
	DB	00H
	DB	00H
	DB	00H
	DB	00H
	DB	00H
	DB	00H
	DB	00H
	DB	00H
	DB	00H
	DB	00H
	DB	00H
	DB	00H
	DB	00H
	DB	00H
	DB	00H
	DB	00H
	DB	00H
	DB	00H
	DB	00H
	DB	00H
	DB	00H
	DB	00H
	DB	00H
	DB	00H
	DB	00H
	DB	00H
	DB	00H
	DB	00H
	DB	00H
	DB	00H
	DB	00H
	DB	00H
	DB	00H
	DB	00H
	DB	00H
	DB	00H
	DB	00H
	DB	00H
	DB	00H
	DB	00H
	DB	00H
	DB	00H
	DB	00H
	DB	00H
	DB	00H
	DB	00H
	DB	00H
	DB	00H
	DB	00H
	DB	00H
	DB	00H
	DB	00H
	DB	00H
	DB	00H
	DB	00H
	DB	00H
	DB	00H
	DB	00H
	DB	00H
	DB	00H
	DB	00H
	DB	00H
	DB	00H
	DB	00H
	DB	00H
	DB	00H
	DB	00H
	DB	00H
	DB	00H
	DB	00H
	DB	00H
	DB	00H
	DB	00H
	DB	00H
	DB	00H
	DB	00H
	DB	00H
	DB	00H
	DB	00H
	DB	00H
	DB	00H
	DB	00H
	DB	00H
	DB	00H
	DB	00H
	DB	00H
	DB	00H
	DB	00H
	DB	00H
	DB	00H
	DB	00H
	DB	00H
	DB	00H
	DB	00H
	DB	00H
	DB	00H
	DB	00H
	DB	00H
	DB	00H
	DB	00H
	DB	00H
	DB	00H
	DB	00H
	DB	00H
	DB	00H
	DB	00H
	DB	00H
	DB	00H
	DB	00H
	DB	00H
	DB	00H
	DB	00H
	DB	00H
	DB	00H
	DB	00H
	DB	00H
	DB	00H
	DB	00H
	DB	00H
	DB	00H
	DB	00H
	DB	00H
	DB	00H
	DB	00H
	DB	00H
	DB	00H
	DB	00H
	DB	00H
	DB	00H
	DB	00H
	DB	00H
	DB	00H
	DB	00H
	DB	00H
	DB	00H
	DB	00H
	DB	00H
	DB	00H
	DB	00H
	DB	00H
	DB	00H
	DB	00H
	DB	00H
	DB	00H
	DB	00H
	DB	00H
	DB	00H
	DB	00H
	DB	00H
	DB	00H
	DB	00H
	DB	00H
	DB	00H
	DB	00H
	DB	00H
	DB	00H
	DB	00H
	DB	00H
	DB	00H
	DB	00H
	DB	00H
	DB	00H
	DB	00H
	DB	00H
	DB	00H
	DB	00H
	DB	00H
	DB	00H
	DB	00H
	DB	00H
	DB	00H
	DB	00H
	DB	00H
	DB	00H
	DB	00H
	DB	00H
	DB	00H
	DB	00H
	DB	00H
	DB	00H
	DB	00H
	DB	00H
	DB	00H
	DB	00H
	DB	00H
	DB	00H
	DB	00H
	DB	00H
	DB	00H
	DB	00H
	DB	00H
	DB	00H
	DB	00H
	DB	00H
	DB	00H
	DB	00H
	DB	00H
	DB	00H
	DB	00H
	DB	00H
	DB	00H
	DB	00H
	DB	00H
	DB	00H
	DB	00H
	DB	00H
	DB	00H
	DB	00H
	DB	00H
	DB	00H
	DB	00H
	DB	00H
	DB	00H
	DB	00H
	DB	00H
	DB	00H
	DB	00H
	DB	00H
	DB	00H
	DB	00H
	DB	00H
	DB	00H
	DB	00H
	DB	00H
	DB	00H
	DB	00H
	DB	00H
	DB	00H
	DB	00H
	DB	00H
	DB	00H
	DB	00H
	DB	00H
	DB	00H
	DB	00H
	DB	00H
	DB	00H
	DB	00H
	DB	00H
	DB	00H
	DB	00H
	DB	00H
	DB	00H
	DB	00H
	DB	00H
	DB	00H
	DB	00H
	DB	00H
	DB	00H
	DB	00H
	DB	00H
	DB	00H
	DB	00H
	DB	00H
	DB	00H
	DB	00H
	DB	00H
	DB	00H
	DB	00H
	DB	00H
	DB	00H
	DB	00H
	DB	00H
	DB	00H
	DB	00H
	DB	00H
	DB	00H
	DB	00H
	DB	00H
	DB	00H
	DB	00H
	DB	00H
	DB	00H
	DB	00H
	DB	00H
	DB	00H
	DB	00H
	DB	00H
	DB	00H
	DB	00H
	DB	00H
	DB	00H
	DB	00H
	DB	00H
	DB	00H
	DB	00H
	DB	00H
	DB	00H
	DB	00H
	DB	00H
	DB	00H
	DB	00H
	DB	00H
	DB	00H
	DB	00H
	DB	00H
	DB	00H
	DB	00H
	DB	00H
	DB	00H
	DB	00H
	DB	00H
	DB	00H
	DB	00H
	DB	00H
	DB	00H
	DB	00H
	DB	00H
	DB	00H
	DB	00H
	DB	00H
	DB	00H
	DB	00H
	DB	00H
	DB	00H
	DB	00H
	DB	00H
	DB	00H
	DB	00H
	DB	00H
	DB	00H
	DB	00H
	DB	00H
	DB	00H
	DB	00H
	DB	00H
	DB	00H
	DB	00H
	DB	00H
	DB	00H
	DB	00H
	DB	00H
	DB	00H
	DB	00H
	DB	00H
	DB	00H
	DB	00H
	DB	00H
	DB	00H
	DB	00H
	DB	00H
	DB	00H
	DB	00H
	DB	00H
	DB	00H
	DB	00H
	DB	00H
	DB	00H
	DB	00H
	DB	00H
	DB	00H
	DB	00H
	DB	00H
	DB	00H
	DB	00H
	DB	00H
	DB	00H
	DB	00H
	DB	00H
	DB	00H
	DB	00H
	DB	00H
	DB	00H
	DB	00H
	DB	00H
	DB	00H
	DB	00H
	DB	00H
	DB	00H
	DB	00H
	DB	00H
	DB	00H
	DB	00H
	DB	00H
	DB	00H
	DB	00H
	DB	00H
	DB	00H
	DB	00H
	DB	00H
	DB	00H
	DB	00H
	DB	00H
	DB	00H
	DB	00H
	DB	00H
	DB	00H
	DB	00H
	DB	00H
	DB	00H
	DB	00H
	DB	00H
	DB	00H
	DB	00H
	DB	00H
	DB	00H
	DB	00H
	DB	00H
	DB	00H
	DB	00H
	DB	00H
	DB	00H
	DB	00H
	DB	00H
	DB	00H
	DB	00H
	DB	00H
	DB	00H
	DB	00H
	DB	00H
	DB	00H
	DB	00H
	DB	00H
	DB	00H
	DB	00H
	DB	00H
	DB	00H
	DB	00H
	DB	00H
	DB	00H
	DB	00H
	DB	00H
	DB	00H
	DB	00H
	DB	00H
	DB	00H
	DB	00H
	DB	00H
	DB	00H
	DB	00H
	DB	00H
	DB	00H
	DB	00H
	DB	00H
	DB	00H
	DB	00H
	DB	00H
	DB	00H
	DB	00H
	DB	00H
	DB	00H
	DB	00H
	DB	00H
	DB	00H
	DB	00H
	DB	00H
	DB	00H
	DB	00H
	DB	00H
	DB	00H
	DB	00H
	DB	00H
	DB	00H
	DB	00H
	DB	00H
	DB	00H
	DB	00H
	DB	00H
	DB	00H
	DB	00H
	DB	00H
	DB	00H
	DB	00H
	DB	00H
	DB	00H
	DB	00H
	DB	00H
	DB	00H
	DB	00H
	DB	00H
	DB	00H
	DB	00H
	DB	00H
	DB	00H
	DB	00H
	DB	00H
	DB	00H
	DB	00H
	DB	00H
	DB	00H
	DB	00H
	DB	00H
	DB	00H
	DB	00H
	DB	00H
	DB	00H
	DB	00H
	DB	00H
	DB	00H
	DB	00H
	DB	00H
	DB	00H
	DB	00H
	DB	00H
	DB	00H
	DB	00H
	DB	00H
	DB	00H
	DB	00H
	DB	00H
	DB	00H
	DB	00H
	DB	00H
	DB	00H
	DB	00H
	DB	00H
	DB	00H
	DB	00H
	DB	00H
	DB	00H
	DB	00H
	DB	00H
	DB	00H
	DB	00H
	DB	00H
	DB	00H
	DB	00H
	DB	00H
	DB	00H
	DB	00H
	DB	00H
	DB	00H
	DB	00H
	DB	00H
	DB	00H
	DB	00H
	DB	00H
	DB	00H
	DB	00H
	DB	00H
	DB	00H
	DB	00H
	DB	00H
	DB	00H
	DB	00H
	DB	00H
	DB	00H
	DB	00H
	DB	00H
	DB	00H
	DB	00H
	DB	00H
	DB	00H
	DB	00H
	DB	00H
	DB	00H
	DB	00H
	DB	00H
	DB	00H
	DB	00H
	DB	00H
	DB	00H
	DB	00H
	DB	00H
	DB	00H
	DB	00H
	DB	00H
	DB	00H
	DB	00H
	DB	00H
	DB	00H
	DB	00H
	DB	00H
	DB	00H
	DB	00H
	DB	00H
	DB	00H
	DB	00H
	DB	00H
	DB	00H
	DB	00H
	DB	00H
	DB	00H
	DB	00H
	DB	00H
	DB	00H
	DB	00H
	DB	00H
	DB	00H
	DB	00H
	DB	00H
	DB	00H
	DB	00H
	DB	00H
	DB	00H
	DB	00H
	DB	00H
	DB	00H
	DB	00H
	DB	00H
	DB	00H
	DB	00H
	DB	00H
	DB	00H
	DB	00H
	DB	00H
	DB	00H
	DB	00H
	DB	00H
	DB	00H
	DB	00H
	DB	00H
	DB	00H
	DB	00H
	DB	00H
	DB	00H
	DB	00H
	DB	00H
	DB	00H
	DB	00H
	DB	00H
	DB	00H
	DB	00H
	DB	00H
	DB	00H
	DB	00H
	DB	00H
	DB	00H
	DB	00H
	DB	00H
	DB	00H
	DB	00H
	DB	00H
	DB	00H
	DB	00H
	DB	00H
	DB	00H
	DB	00H
	DB	00H
	DB	00H
	DB	00H
	DB	00H
	DB	00H
	DB	00H
	DB	00H
	DB	00H
	DB	00H
	DB	00H
	DB	00H
	DB	00H
	DB	00H
	DB	00H
	DB	00H
	DB	00H
	DB	00H
	DB	00H
	DB	00H
	DB	00H
	DB	00H
	DB	00H
	DB	00H
	DB	00H
	DB	00H
	DB	00H
	DB	00H
	DB	00H
	DB	00H
	DB	00H
	DB	00H
	DB	00H
	DB	00H
	DB	00H
	DB	00H
	DB	00H
	DB	00H
	DB	00H
	DB	00H
	DB	00H
	DB	00H
	DB	00H
	DB	00H
	DB	00H
	DB	00H
	DB	00H
	DB	00H
	DB	00H
	DB	00H
	DB	00H
	DB	00H
	DB	00H
	DB	00H
	DB	00H
	DB	00H
	DB	00H
	DB	00H
	DB	00H
	DB	00H
	DB	00H
	DB	00H
	DB	00H
	DB	00H
	DB	00H
	DB	00H
	DB	00H
	DB	00H
	DB	00H
	DB	00H
	DB	00H
	DB	00H
	DB	00H
	DB	00H
	DB	00H
	DB	00H
	DB	00H
	DB	00H
	DB	00H
	DB	00H
	DB	00H
	DB	00H
	DB	00H
	DB	00H
	DB	00H
	DB	00H
	DB	00H
	DB	00H
	DB	00H
	DB	00H
	DB	00H
	DB	00H
	DB	00H
	DB	00H
	DB	00H
	DB	00H
	DB	00H
	DB	00H
	DB	00H
	DB	00H
	DB	00H
	DB	00H
	DB	00H
	DB	00H
	DB	00H
	DB	00H
	DB	00H
	DB	00H
	DB	00H
	DB	00H
	DB	00H
	DB	00H
	DB	00H
	DB	00H
	DB	00H
	DB	00H
	DB	00H
	DB	00H
	DB	00H
	DB	00H
	DB	00H
	DB	00H
	DB	00H
	DB	00H
	DB	00H
	DB	00H
	DB	00H
	DB	00H
	DB	00H
	DB	00H
	DB	00H
CONST	ENDS
END
