; Listing generated by Microsoft (R) Optimizing Compiler Version 16.00.40219.01 

	TITLE	C:\DUII\DUII\Graphics\StdGreenButton.c
	.686P
	.XMM
	include listing.inc
	.model	flat

INCLUDELIB LIBCMT
INCLUDELIB OLDNAMES

PUBLIC	_bmStdGreenButton
CONST	SEGMENT
_ColorsStdGreenButton DD 0ff00H
	DD	0fb00H
	DD	01c104H
	DD	01ce03H
	DD	01c804H
	DD	01d403H
	DD	01db02H
	DD	01e102H
	DD	0e702H
	DD	0ed01H
	DD	0f201H
	DD	0f701H
	DD	0fe00H
	DD	01bc04H
	DD	01b705H
	DD	0f300H
	DD	01b205H
	DD	0ca00H
	DD	01af05H
	DD	0df00H
	DD	01ac05H
	DD	0fc00H
	DD	00H
	DD	0cd00H
	DD	0ce00H
	DD	01ad05H
	DD	01a105H
	DD	01ae05H
	DD	01b305H
	DD	01ba05H
	DD	0cc00H
	DD	0100H
	DD	0300H
	DD	0800H
	DD	0b00H
	DD	0d00H
	DD	01900H
	DD	02201H
	DD	02400H
	DD	02601H
	DD	02802H
	DD	02d01H
	DD	03b00H
	DD	04100H
	DD	04c02H
	DD	05102H
	DD	05800H
	DD	015803H
	DD	015f03H
	DD	017303H
	DD	017704H
	DD	07c00H
	DD	017f03H
	DD	08500H
	DD	08700H
	DD	018e03H
	DD	018904H
	DD	019503H
	DD	019504H
	DD	09b00H
	DD	01a103H
	DD	01a303H
	DD	0a400H
	DD	0a700H
	DD	01a502H
	DD	01a602H
	DD	01a705H
	DD	01aa02H
	DD	01ab02H
	DD	0b002H
	DD	01b002H
	DD	0b400H
	DD	0b502H
	DD	01b502H
	DD	01b605H
	DD	0bb01H
	DD	0ba02H
	DD	0bc00H
	DD	0bf00H
	DD	0be01H
	DD	0bf01H
	DD	01b804H
	DD	01bb05H
	DD	01bd04H
	DD	01bc05H
	DD	01bf04H
	DD	0c201H
	DD	0c301H
	DD	0c500H
	DD	0c700H
	DD	0c701H
	DD	01c205H
	DD	01c604H
	DD	01c704H
	DD	0cb00H
	DD	0cf00H
	DD	01cc03H
	DD	01ca04H
	DD	01cf04H
	DD	0d200H
	DD	01d203H
	DD	01d503H
	DD	0d900H
	DD	01d802H
	DD	01db03H
	DD	01de02H
	DD	0e000H
	DD	0e100H
	DD	01e202H
	DD	0e400H
	DD	0e700H
	DD	0e402H
	DD	0ea00H
	DD	0ea01H
	DD	01e902H
	DD	0ec00H
	DD	0ed00H
	DD	0ef01H
	DD	0ef02H
	DD	0f400H
	DD	0f401H
	DD	0f501H
	DD	0f800H
	DD	0fa01H
	DD	0ff01H
_PalStdGreenButton DD 07dH
	DB	00H
	ORG $+3
	DD	FLAT:_ColorsStdGreenButton
_acStdGreenButton DB 016H
	DB	016H
	DB	016H
	DB	021H
	DB	02fH
	DB	03aH
	DB	014H
	DB	019H
	DB	014H
	DB	014H
	DB	014H
	DB	014H
	DB	014H
	DB	014H
	DB	014H
	DB	014H
	DB	014H
	DB	014H
	DB	014H
	DB	014H
	DB	014H
	DB	014H
	DB	014H
	DB	014H
	DB	014H
	DB	014H
	DB	014H
	DB	014H
	DB	014H
	DB	014H
	DB	014H
	DB	014H
	DB	014H
	DB	014H
	DB	014H
	DB	014H
	DB	014H
	DB	014H
	DB	014H
	DB	014H
	DB	014H
	DB	014H
	DB	014H
	DB	014H
	DB	014H
	DB	014H
	DB	014H
	DB	014H
	DB	014H
	DB	014H
	DB	014H
	DB	014H
	DB	014H
	DB	014H
	DB	014H
	DB	014H
	DB	014H
	DB	014H
	DB	014H
	DB	014H
	DB	014H
	DB	014H
	DB	014H
	DB	014H
	DB	014H
	DB	014H
	DB	014H
	DB	014H
	DB	014H
	DB	014H
	DB	014H
	DB	014H
	DB	014H
	DB	014H
	DB	014H
	DB	014H
	DB	014H
	DB	014H
	DB	014H
	DB	014H
	DB	014H
	DB	014H
	DB	014H
	DB	014H
	DB	014H
	DB	014H
	DB	014H
	DB	014H
	DB	014H
	DB	014H
	DB	014H
	DB	014H
	DB	014H
	DB	014H
	DB	014H
	DB	014H
	DB	014H
	DB	014H
	DB	014H
	DB	014H
	DB	014H
	DB	014H
	DB	014H
	DB	014H
	DB	014H
	DB	014H
	DB	014H
	DB	014H
	DB	014H
	DB	014H
	DB	014H
	DB	014H
	DB	014H
	DB	014H
	DB	014H
	DB	014H
	DB	014H
	DB	014H
	DB	014H
	DB	014H
	DB	014H
	DB	014H
	DB	014H
	DB	014H
	DB	014H
	DB	014H
	DB	014H
	DB	014H
	DB	014H
	DB	014H
	DB	014H
	DB	014H
	DB	014H
	DB	014H
	DB	014H
	DB	014H
	DB	014H
	DB	014H
	DB	014H
	DB	014H
	DB	014H
	DB	014H
	DB	014H
	DB	014H
	DB	014H
	DB	014H
	DB	014H
	DB	014H
	DB	014H
	DB	014H
	DB	014H
	DB	014H
	DB	014H
	DB	014H
	DB	014H
	DB	014H
	DB	014H
	DB	014H
	DB	014H
	DB	014H
	DB	01bH
	DB	01aH
	DB	032H
	DB	028H
	DB	016H
	DB	016H
	DB	016H
	DB	016H
	DB	016H
	DB	025H
	DB	034H
	DB	014H
	DB	019H
	DB	012H
	DB	012H
	DB	012H
	DB	012H
	DB	012H
	DB	012H
	DB	012H
	DB	012H
	DB	012H
	DB	012H
	DB	012H
	DB	012H
	DB	012H
	DB	012H
	DB	012H
	DB	012H
	DB	012H
	DB	012H
	DB	012H
	DB	012H
	DB	012H
	DB	012H
	DB	012H
	DB	012H
	DB	012H
	DB	012H
	DB	012H
	DB	012H
	DB	012H
	DB	012H
	DB	012H
	DB	012H
	DB	012H
	DB	012H
	DB	012H
	DB	012H
	DB	012H
	DB	012H
	DB	012H
	DB	012H
	DB	012H
	DB	012H
	DB	012H
	DB	012H
	DB	012H
	DB	012H
	DB	012H
	DB	012H
	DB	012H
	DB	012H
	DB	012H
	DB	012H
	DB	012H
	DB	012H
	DB	012H
	DB	012H
	DB	012H
	DB	012H
	DB	012H
	DB	012H
	DB	012H
	DB	012H
	DB	012H
	DB	012H
	DB	012H
	DB	012H
	DB	012H
	DB	012H
	DB	012H
	DB	012H
	DB	012H
	DB	012H
	DB	012H
	DB	012H
	DB	012H
	DB	012H
	DB	012H
	DB	012H
	DB	012H
	DB	012H
	DB	012H
	DB	012H
	DB	012H
	DB	012H
	DB	012H
	DB	012H
	DB	012H
	DB	012H
	DB	012H
	DB	012H
	DB	012H
	DB	012H
	DB	012H
	DB	012H
	DB	012H
	DB	012H
	DB	012H
	DB	012H
	DB	012H
	DB	012H
	DB	012H
	DB	012H
	DB	012H
	DB	012H
	DB	012H
	DB	012H
	DB	012H
	DB	012H
	DB	012H
	DB	012H
	DB	012H
	DB	012H
	DB	012H
	DB	012H
	DB	012H
	DB	012H
	DB	012H
	DB	012H
	DB	012H
	DB	012H
	DB	012H
	DB	012H
	DB	012H
	DB	012H
	DB	012H
	DB	012H
	DB	012H
	DB	012H
	DB	012H
	DB	012H
	DB	012H
	DB	012H
	DB	012H
	DB	012H
	DB	012H
	DB	012H
	DB	012H
	DB	012H
	DB	012H
	DB	012H
	DB	012H
	DB	012H
	DB	012H
	DB	012H
	DB	012H
	DB	012H
	DB	012H
	DB	012H
	DB	012H
	DB	012H
	DB	012H
	DB	012H
	DB	012H
	DB	012H
	DB	012H
	DB	01bH
	DB	019H
	DB	01aH
	DB	02dH
	DB	016H
	DB	016H
	DB	016H
	DB	027H
	DB	042H
	DB	052H
	DB	01cH
	DB	01cH
	DB	010H
	DB	010H
	DB	010H
	DB	010H
	DB	010H
	DB	010H
	DB	010H
	DB	010H
	DB	010H
	DB	010H
	DB	010H
	DB	010H
	DB	010H
	DB	010H
	DB	010H
	DB	010H
	DB	010H
	DB	010H
	DB	010H
	DB	010H
	DB	010H
	DB	010H
	DB	010H
	DB	010H
	DB	010H
	DB	010H
	DB	010H
	DB	010H
	DB	010H
	DB	010H
	DB	010H
	DB	010H
	DB	010H
	DB	010H
	DB	010H
	DB	010H
	DB	010H
	DB	010H
	DB	010H
	DB	010H
	DB	010H
	DB	010H
	DB	010H
	DB	010H
	DB	010H
	DB	010H
	DB	010H
	DB	010H
	DB	010H
	DB	010H
	DB	010H
	DB	010H
	DB	010H
	DB	010H
	DB	010H
	DB	010H
	DB	010H
	DB	010H
	DB	010H
	DB	010H
	DB	010H
	DB	010H
	DB	010H
	DB	010H
	DB	010H
	DB	010H
	DB	010H
	DB	010H
	DB	010H
	DB	010H
	DB	010H
	DB	010H
	DB	010H
	DB	010H
	DB	010H
	DB	010H
	DB	010H
	DB	010H
	DB	010H
	DB	010H
	DB	010H
	DB	010H
	DB	010H
	DB	010H
	DB	010H
	DB	010H
	DB	010H
	DB	010H
	DB	010H
	DB	010H
	DB	010H
	DB	010H
	DB	010H
	DB	010H
	DB	010H
	DB	010H
	DB	010H
	DB	010H
	DB	010H
	DB	010H
	DB	010H
	DB	010H
	DB	010H
	DB	010H
	DB	010H
	DB	010H
	DB	010H
	DB	010H
	DB	010H
	DB	010H
	DB	010H
	DB	010H
	DB	010H
	DB	010H
	DB	010H
	DB	010H
	DB	010H
	DB	010H
	DB	010H
	DB	010H
	DB	010H
	DB	010H
	DB	010H
	DB	010H
	DB	010H
	DB	010H
	DB	010H
	DB	010H
	DB	010H
	DB	010H
	DB	010H
	DB	010H
	DB	010H
	DB	010H
	DB	010H
	DB	010H
	DB	010H
	DB	010H
	DB	010H
	DB	010H
	DB	010H
	DB	010H
	DB	010H
	DB	010H
	DB	010H
	DB	010H
	DB	010H
	DB	010H
	DB	010H
	DB	010H
	DB	010H
	DB	010H
	DB	010H
	DB	010H
	DB	010H
	DB	010H
	DB	010H
	DB	04aH
	DB	054H
	DB	030H
	DB	016H
	DB	022H
	DB	038H
	DB	05bH
	DB	0eH
	DB	0eH
	DB	0eH
	DB	0eH
	DB	0eH
	DB	0eH
	DB	0eH
	DB	0eH
	DB	0eH
	DB	0eH
	DB	0eH
	DB	0eH
	DB	0eH
	DB	0eH
	DB	0eH
	DB	0eH
	DB	0eH
	DB	0eH
	DB	0eH
	DB	0eH
	DB	0eH
	DB	0eH
	DB	0eH
	DB	0eH
	DB	0eH
	DB	0eH
	DB	0eH
	DB	0eH
	DB	0eH
	DB	0eH
	DB	0eH
	DB	0eH
	DB	0eH
	DB	0eH
	DB	0eH
	DB	0eH
	DB	0eH
	DB	0eH
	DB	0eH
	DB	0eH
	DB	0eH
	DB	0eH
	DB	0eH
	DB	0eH
	DB	0eH
	DB	0eH
	DB	0eH
	DB	0eH
	DB	0eH
	DB	0eH
	DB	0eH
	DB	0eH
	DB	0eH
	DB	0eH
	DB	0eH
	DB	0eH
	DB	0eH
	DB	0eH
	DB	0eH
	DB	0eH
	DB	0eH
	DB	0eH
	DB	0eH
	DB	0eH
	DB	0eH
	DB	0eH
	DB	0eH
	DB	0eH
	DB	0eH
	DB	0eH
	DB	0eH
	DB	0eH
	DB	0eH
	DB	0eH
	DB	0eH
	DB	0eH
	DB	0eH
	DB	0eH
	DB	0eH
	DB	0eH
	DB	0eH
	DB	0eH
	DB	0eH
	DB	0eH
	DB	0eH
	DB	0eH
	DB	0eH
	DB	0eH
	DB	0eH
	DB	0eH
	DB	0eH
	DB	0eH
	DB	0eH
	DB	0eH
	DB	0eH
	DB	0eH
	DB	0eH
	DB	0eH
	DB	0eH
	DB	0eH
	DB	0eH
	DB	0eH
	DB	0eH
	DB	0eH
	DB	0eH
	DB	0eH
	DB	0eH
	DB	0eH
	DB	0eH
	DB	0eH
	DB	0eH
	DB	0eH
	DB	0eH
	DB	0eH
	DB	0eH
	DB	0eH
	DB	0eH
	DB	0eH
	DB	0eH
	DB	0eH
	DB	0eH
	DB	0eH
	DB	0eH
	DB	0eH
	DB	0eH
	DB	0eH
	DB	0eH
	DB	0eH
	DB	0eH
	DB	0eH
	DB	0eH
	DB	0eH
	DB	0eH
	DB	0eH
	DB	0eH
	DB	0eH
	DB	0eH
	DB	0eH
	DB	0eH
	DB	0eH
	DB	0eH
	DB	0eH
	DB	0eH
	DB	0eH
	DB	0eH
	DB	0eH
	DB	0eH
	DB	0eH
	DB	0eH
	DB	0eH
	DB	0eH
	DB	0eH
	DB	0eH
	DB	0eH
	DB	0eH
	DB	0eH
	DB	0eH
	DB	0eH
	DB	0eH
	DB	0eH
	DB	0eH
	DB	01dH
	DB	01dH
	DB	029H
	DB	02cH
	DB	051H
	DB	053H
	DB	0dH
	DB	0dH
	DB	0dH
	DB	0dH
	DB	0dH
	DB	0dH
	DB	0dH
	DB	0dH
	DB	0dH
	DB	0dH
	DB	0dH
	DB	0dH
	DB	0dH
	DB	0dH
	DB	0dH
	DB	0dH
	DB	0dH
	DB	0dH
	DB	0dH
	DB	0dH
	DB	0dH
	DB	0dH
	DB	0dH
	DB	0dH
	DB	0dH
	DB	0dH
	DB	0dH
	DB	0dH
	DB	0dH
	DB	0dH
	DB	0dH
	DB	0dH
	DB	0dH
	DB	0dH
	DB	0dH
	DB	0dH
	DB	0dH
	DB	0dH
	DB	0dH
	DB	0dH
	DB	0dH
	DB	0dH
	DB	0dH
	DB	0dH
	DB	0dH
	DB	0dH
	DB	0dH
	DB	0dH
	DB	0dH
	DB	0dH
	DB	0dH
	DB	0dH
	DB	0dH
	DB	0dH
	DB	0dH
	DB	0dH
	DB	0dH
	DB	0dH
	DB	0dH
	DB	0dH
	DB	0dH
	DB	0dH
	DB	0dH
	DB	0dH
	DB	0dH
	DB	0dH
	DB	0dH
	DB	0dH
	DB	0dH
	DB	0dH
	DB	0dH
	DB	0dH
	DB	0dH
	DB	0dH
	DB	0dH
	DB	0dH
	DB	0dH
	DB	0dH
	DB	0dH
	DB	0dH
	DB	0dH
	DB	0dH
	DB	0dH
	DB	0dH
	DB	0dH
	DB	0dH
	DB	0dH
	DB	0dH
	DB	0dH
	DB	0dH
	DB	0dH
	DB	0dH
	DB	0dH
	DB	0dH
	DB	0dH
	DB	0dH
	DB	0dH
	DB	0dH
	DB	0dH
	DB	0dH
	DB	0dH
	DB	0dH
	DB	0dH
	DB	0dH
	DB	0dH
	DB	0dH
	DB	0dH
	DB	0dH
	DB	0dH
	DB	0dH
	DB	0dH
	DB	0dH
	DB	0dH
	DB	0dH
	DB	0dH
	DB	0dH
	DB	0dH
	DB	0dH
	DB	0dH
	DB	0dH
	DB	0dH
	DB	0dH
	DB	0dH
	DB	0dH
	DB	0dH
	DB	0dH
	DB	0dH
	DB	0dH
	DB	0dH
	DB	0dH
	DB	0dH
	DB	0dH
	DB	0dH
	DB	0dH
	DB	0dH
	DB	0dH
	DB	0dH
	DB	0dH
	DB	0dH
	DB	0dH
	DB	0dH
	DB	0dH
	DB	0dH
	DB	0dH
	DB	0dH
	DB	0dH
	DB	0dH
	DB	0dH
	DB	0dH
	DB	0dH
	DB	0dH
	DB	0dH
	DB	0dH
	DB	0dH
	DB	0dH
	DB	0dH
	DB	0dH
	DB	0dH
	DB	0dH
	DB	0dH
	DB	0dH
	DB	0dH
	DB	05dH
	DB	031H
	DB	037H
	DB	055H
	DB	02H
	DB	02H
	DB	02H
	DB	02H
	DB	02H
	DB	02H
	DB	02H
	DB	02H
	DB	02H
	DB	02H
	DB	02H
	DB	02H
	DB	02H
	DB	02H
	DB	02H
	DB	02H
	DB	02H
	DB	02H
	DB	02H
	DB	02H
	DB	02H
	DB	02H
	DB	02H
	DB	02H
	DB	02H
	DB	02H
	DB	02H
	DB	02H
	DB	02H
	DB	02H
	DB	02H
	DB	02H
	DB	02H
	DB	02H
	DB	02H
	DB	02H
	DB	02H
	DB	02H
	DB	02H
	DB	02H
	DB	02H
	DB	02H
	DB	02H
	DB	02H
	DB	02H
	DB	02H
	DB	02H
	DB	02H
	DB	02H
	DB	02H
	DB	02H
	DB	02H
	DB	02H
	DB	02H
	DB	02H
	DB	02H
	DB	02H
	DB	02H
	DB	02H
	DB	02H
	DB	02H
	DB	02H
	DB	02H
	DB	02H
	DB	02H
	DB	02H
	DB	02H
	DB	02H
	DB	02H
	DB	02H
	DB	02H
	DB	02H
	DB	02H
	DB	02H
	DB	02H
	DB	02H
	DB	02H
	DB	02H
	DB	02H
	DB	02H
	DB	02H
	DB	02H
	DB	02H
	DB	02H
	DB	02H
	DB	02H
	DB	02H
	DB	02H
	DB	02H
	DB	02H
	DB	02H
	DB	02H
	DB	02H
	DB	02H
	DB	02H
	DB	02H
	DB	02H
	DB	02H
	DB	02H
	DB	02H
	DB	02H
	DB	02H
	DB	02H
	DB	02H
	DB	02H
	DB	02H
	DB	02H
	DB	02H
	DB	02H
	DB	02H
	DB	02H
	DB	02H
	DB	02H
	DB	02H
	DB	02H
	DB	02H
	DB	02H
	DB	02H
	DB	02H
	DB	02H
	DB	02H
	DB	02H
	DB	02H
	DB	02H
	DB	02H
	DB	02H
	DB	02H
	DB	02H
	DB	02H
	DB	02H
	DB	02H
	DB	02H
	DB	02H
	DB	02H
	DB	02H
	DB	02H
	DB	02H
	DB	02H
	DB	02H
	DB	02H
	DB	02H
	DB	02H
	DB	02H
	DB	02H
	DB	02H
	DB	02H
	DB	02H
	DB	02H
	DB	02H
	DB	02H
	DB	02H
	DB	02H
	DB	02H
	DB	02H
	DB	02H
	DB	02H
	DB	02H
	DB	02H
	DB	02H
	DB	02H
	DB	02H
	DB	02H
	DB	02H
	DB	061H
	DB	039H
	DB	03dH
	DB	05cH
	DB	04H
	DB	04H
	DB	04H
	DB	04H
	DB	04H
	DB	04H
	DB	04H
	DB	04H
	DB	04H
	DB	04H
	DB	04H
	DB	04H
	DB	04H
	DB	04H
	DB	04H
	DB	04H
	DB	04H
	DB	04H
	DB	04H
	DB	04H
	DB	04H
	DB	04H
	DB	04H
	DB	04H
	DB	04H
	DB	04H
	DB	04H
	DB	04H
	DB	04H
	DB	04H
	DB	04H
	DB	04H
	DB	04H
	DB	04H
	DB	04H
	DB	04H
	DB	04H
	DB	04H
	DB	04H
	DB	04H
	DB	04H
	DB	04H
	DB	04H
	DB	04H
	DB	04H
	DB	04H
	DB	04H
	DB	04H
	DB	04H
	DB	04H
	DB	04H
	DB	04H
	DB	04H
	DB	04H
	DB	04H
	DB	04H
	DB	04H
	DB	04H
	DB	04H
	DB	04H
	DB	04H
	DB	04H
	DB	04H
	DB	04H
	DB	04H
	DB	04H
	DB	04H
	DB	04H
	DB	04H
	DB	04H
	DB	04H
	DB	04H
	DB	04H
	DB	04H
	DB	04H
	DB	04H
	DB	04H
	DB	04H
	DB	04H
	DB	04H
	DB	04H
	DB	04H
	DB	04H
	DB	04H
	DB	04H
	DB	04H
	DB	04H
	DB	04H
	DB	04H
	DB	04H
	DB	04H
	DB	04H
	DB	04H
	DB	04H
	DB	04H
	DB	04H
	DB	04H
	DB	04H
	DB	04H
	DB	04H
	DB	04H
	DB	04H
	DB	04H
	DB	04H
	DB	04H
	DB	04H
	DB	04H
	DB	04H
	DB	04H
	DB	04H
	DB	04H
	DB	04H
	DB	04H
	DB	04H
	DB	04H
	DB	04H
	DB	04H
	DB	04H
	DB	04H
	DB	04H
	DB	04H
	DB	04H
	DB	04H
	DB	04H
	DB	04H
	DB	04H
	DB	04H
	DB	04H
	DB	04H
	DB	04H
	DB	04H
	DB	04H
	DB	04H
	DB	04H
	DB	04H
	DB	04H
	DB	04H
	DB	04H
	DB	04H
	DB	04H
	DB	04H
	DB	04H
	DB	04H
	DB	04H
	DB	04H
	DB	04H
	DB	04H
	DB	04H
	DB	04H
	DB	04H
	DB	04H
	DB	04H
	DB	04H
	DB	04H
	DB	04H
	DB	04H
	DB	04H
	DB	04H
	DB	04H
	DB	04H
	DB	04H
	DB	04H
	DB	04H
	DB	062H
	DB	03cH
	DB	041H
	DB	060H
	DB	03H
	DB	03H
	DB	03H
	DB	03H
	DB	03H
	DB	03H
	DB	03H
	DB	03H
	DB	03H
	DB	03H
	DB	03H
	DB	03H
	DB	03H
	DB	03H
	DB	03H
	DB	03H
	DB	03H
	DB	03H
	DB	03H
	DB	03H
	DB	03H
	DB	03H
	DB	03H
	DB	03H
	DB	03H
	DB	03H
	DB	03H
	DB	03H
	DB	03H
	DB	03H
	DB	03H
	DB	03H
	DB	03H
	DB	03H
	DB	03H
	DB	03H
	DB	03H
	DB	03H
	DB	03H
	DB	03H
	DB	03H
	DB	03H
	DB	03H
	DB	03H
	DB	03H
	DB	03H
	DB	03H
	DB	03H
	DB	03H
	DB	03H
	DB	03H
	DB	03H
	DB	03H
	DB	03H
	DB	03H
	DB	03H
	DB	03H
	DB	03H
	DB	03H
	DB	03H
	DB	03H
	DB	03H
	DB	03H
	DB	03H
	DB	03H
	DB	03H
	DB	03H
	DB	03H
	DB	03H
	DB	03H
	DB	03H
	DB	03H
	DB	03H
	DB	03H
	DB	03H
	DB	03H
	DB	03H
	DB	03H
	DB	03H
	DB	03H
	DB	03H
	DB	03H
	DB	03H
	DB	03H
	DB	03H
	DB	03H
	DB	03H
	DB	03H
	DB	03H
	DB	03H
	DB	03H
	DB	03H
	DB	03H
	DB	03H
	DB	03H
	DB	03H
	DB	03H
	DB	03H
	DB	03H
	DB	03H
	DB	03H
	DB	03H
	DB	03H
	DB	03H
	DB	03H
	DB	03H
	DB	03H
	DB	03H
	DB	03H
	DB	03H
	DB	03H
	DB	03H
	DB	03H
	DB	03H
	DB	03H
	DB	03H
	DB	03H
	DB	03H
	DB	03H
	DB	03H
	DB	03H
	DB	03H
	DB	03H
	DB	03H
	DB	03H
	DB	03H
	DB	03H
	DB	03H
	DB	03H
	DB	03H
	DB	03H
	DB	03H
	DB	03H
	DB	03H
	DB	03H
	DB	03H
	DB	03H
	DB	03H
	DB	03H
	DB	03H
	DB	03H
	DB	03H
	DB	03H
	DB	03H
	DB	03H
	DB	03H
	DB	03H
	DB	03H
	DB	03H
	DB	03H
	DB	03H
	DB	03H
	DB	03H
	DB	03H
	DB	03H
	DB	03H
	DB	03H
	DB	03H
	DB	03H
	DB	03H
	DB	03H
	DB	03H
	DB	03H
	DB	065H
	DB	040H
	DB	044H
	DB	064H
	DB	05H
	DB	05H
	DB	05H
	DB	05H
	DB	05H
	DB	05H
	DB	05H
	DB	05H
	DB	05H
	DB	05H
	DB	05H
	DB	05H
	DB	05H
	DB	05H
	DB	05H
	DB	05H
	DB	05H
	DB	05H
	DB	05H
	DB	05H
	DB	05H
	DB	05H
	DB	05H
	DB	05H
	DB	05H
	DB	05H
	DB	05H
	DB	05H
	DB	05H
	DB	05H
	DB	05H
	DB	05H
	DB	05H
	DB	05H
	DB	05H
	DB	05H
	DB	05H
	DB	05H
	DB	05H
	DB	05H
	DB	05H
	DB	05H
	DB	05H
	DB	05H
	DB	05H
	DB	05H
	DB	05H
	DB	05H
	DB	05H
	DB	05H
	DB	05H
	DB	05H
	DB	05H
	DB	05H
	DB	05H
	DB	05H
	DB	05H
	DB	05H
	DB	05H
	DB	05H
	DB	05H
	DB	05H
	DB	05H
	DB	05H
	DB	05H
	DB	05H
	DB	05H
	DB	05H
	DB	05H
	DB	05H
	DB	05H
	DB	05H
	DB	05H
	DB	05H
	DB	05H
	DB	05H
	DB	05H
	DB	05H
	DB	05H
	DB	05H
	DB	05H
	DB	05H
	DB	05H
	DB	05H
	DB	05H
	DB	05H
	DB	05H
	DB	05H
	DB	05H
	DB	05H
	DB	05H
	DB	05H
	DB	05H
	DB	05H
	DB	05H
	DB	05H
	DB	05H
	DB	05H
	DB	05H
	DB	05H
	DB	05H
	DB	05H
	DB	05H
	DB	05H
	DB	05H
	DB	05H
	DB	05H
	DB	05H
	DB	05H
	DB	05H
	DB	05H
	DB	05H
	DB	05H
	DB	05H
	DB	05H
	DB	05H
	DB	05H
	DB	05H
	DB	05H
	DB	05H
	DB	05H
	DB	05H
	DB	05H
	DB	05H
	DB	05H
	DB	05H
	DB	05H
	DB	05H
	DB	05H
	DB	05H
	DB	05H
	DB	05H
	DB	05H
	DB	05H
	DB	05H
	DB	05H
	DB	05H
	DB	05H
	DB	05H
	DB	05H
	DB	05H
	DB	05H
	DB	05H
	DB	05H
	DB	05H
	DB	05H
	DB	05H
	DB	05H
	DB	05H
	DB	05H
	DB	05H
	DB	05H
	DB	05H
	DB	05H
	DB	05H
	DB	05H
	DB	05H
	DB	05H
	DB	05H
	DB	05H
	DB	05H
	DB	05H
	DB	05H
	DB	068H
	DB	043H
	DB	045H
	DB	067H
	DB	06H
	DB	06H
	DB	06H
	DB	06H
	DB	06H
	DB	06H
	DB	06H
	DB	06H
	DB	06H
	DB	06H
	DB	06H
	DB	06H
	DB	06H
	DB	06H
	DB	06H
	DB	06H
	DB	06H
	DB	06H
	DB	06H
	DB	06H
	DB	06H
	DB	06H
	DB	06H
	DB	06H
	DB	06H
	DB	06H
	DB	06H
	DB	06H
	DB	06H
	DB	06H
	DB	06H
	DB	06H
	DB	06H
	DB	06H
	DB	06H
	DB	06H
	DB	06H
	DB	06H
	DB	06H
	DB	06H
	DB	06H
	DB	06H
	DB	06H
	DB	06H
	DB	06H
	DB	06H
	DB	06H
	DB	06H
	DB	06H
	DB	06H
	DB	06H
	DB	06H
	DB	06H
	DB	06H
	DB	06H
	DB	06H
	DB	06H
	DB	06H
	DB	06H
	DB	06H
	DB	06H
	DB	06H
	DB	06H
	DB	06H
	DB	06H
	DB	06H
	DB	06H
	DB	06H
	DB	06H
	DB	06H
	DB	06H
	DB	06H
	DB	06H
	DB	06H
	DB	06H
	DB	06H
	DB	06H
	DB	06H
	DB	06H
	DB	06H
	DB	06H
	DB	06H
	DB	06H
	DB	06H
	DB	06H
	DB	06H
	DB	06H
	DB	06H
	DB	06H
	DB	06H
	DB	06H
	DB	06H
	DB	06H
	DB	06H
	DB	06H
	DB	06H
	DB	06H
	DB	06H
	DB	06H
	DB	06H
	DB	06H
	DB	06H
	DB	06H
	DB	06H
	DB	06H
	DB	06H
	DB	06H
	DB	06H
	DB	06H
	DB	06H
	DB	06H
	DB	06H
	DB	06H
	DB	06H
	DB	06H
	DB	06H
	DB	06H
	DB	06H
	DB	06H
	DB	06H
	DB	06H
	DB	06H
	DB	06H
	DB	06H
	DB	06H
	DB	06H
	DB	06H
	DB	06H
	DB	06H
	DB	06H
	DB	06H
	DB	06H
	DB	06H
	DB	06H
	DB	06H
	DB	06H
	DB	06H
	DB	06H
	DB	06H
	DB	06H
	DB	06H
	DB	06H
	DB	06H
	DB	06H
	DB	06H
	DB	06H
	DB	06H
	DB	06H
	DB	06H
	DB	06H
	DB	06H
	DB	06H
	DB	06H
	DB	06H
	DB	06H
	DB	06H
	DB	06H
	DB	06H
	DB	06H
	DB	06H
	DB	06H
	DB	06H
	DB	06H
	DB	06cH
	DB	046H
	DB	048H
	DB	069H
	DB	07H
	DB	07H
	DB	07H
	DB	07H
	DB	07H
	DB	07H
	DB	07H
	DB	07H
	DB	07H
	DB	07H
	DB	07H
	DB	07H
	DB	07H
	DB	07H
	DB	07H
	DB	07H
	DB	07H
	DB	07H
	DB	07H
	DB	07H
	DB	07H
	DB	07H
	DB	07H
	DB	07H
	DB	07H
	DB	07H
	DB	07H
	DB	07H
	DB	07H
	DB	07H
	DB	07H
	DB	07H
	DB	07H
	DB	07H
	DB	07H
	DB	07H
	DB	07H
	DB	07H
	DB	07H
	DB	07H
	DB	07H
	DB	07H
	DB	07H
	DB	07H
	DB	07H
	DB	07H
	DB	07H
	DB	07H
	DB	07H
	DB	07H
	DB	07H
	DB	07H
	DB	07H
	DB	07H
	DB	07H
	DB	07H
	DB	07H
	DB	07H
	DB	07H
	DB	07H
	DB	07H
	DB	07H
	DB	07H
	DB	07H
	DB	07H
	DB	07H
	DB	07H
	DB	07H
	DB	07H
	DB	07H
	DB	07H
	DB	07H
	DB	07H
	DB	07H
	DB	07H
	DB	07H
	DB	07H
	DB	07H
	DB	07H
	DB	07H
	DB	07H
	DB	07H
	DB	07H
	DB	07H
	DB	07H
	DB	07H
	DB	07H
	DB	07H
	DB	07H
	DB	07H
	DB	07H
	DB	07H
	DB	07H
	DB	07H
	DB	07H
	DB	07H
	DB	07H
	DB	07H
	DB	07H
	DB	07H
	DB	07H
	DB	07H
	DB	07H
	DB	07H
	DB	07H
	DB	07H
	DB	07H
	DB	07H
	DB	07H
	DB	07H
	DB	07H
	DB	07H
	DB	07H
	DB	07H
	DB	07H
	DB	07H
	DB	07H
	DB	07H
	DB	07H
	DB	07H
	DB	07H
	DB	07H
	DB	07H
	DB	07H
	DB	07H
	DB	07H
	DB	07H
	DB	07H
	DB	07H
	DB	07H
	DB	07H
	DB	07H
	DB	07H
	DB	07H
	DB	07H
	DB	07H
	DB	07H
	DB	07H
	DB	07H
	DB	07H
	DB	07H
	DB	07H
	DB	07H
	DB	07H
	DB	07H
	DB	07H
	DB	07H
	DB	07H
	DB	07H
	DB	07H
	DB	07H
	DB	07H
	DB	07H
	DB	07H
	DB	07H
	DB	07H
	DB	07H
	DB	07H
	DB	07H
	DB	07H
	DB	07H
	DB	07H
	DB	07H
	DB	072H
	DB	049H
	DB	04bH
	DB	06fH
	DB	08H
	DB	08H
	DB	08H
	DB	08H
	DB	08H
	DB	08H
	DB	08H
	DB	08H
	DB	08H
	DB	08H
	DB	08H
	DB	08H
	DB	08H
	DB	08H
	DB	08H
	DB	08H
	DB	08H
	DB	08H
	DB	08H
	DB	08H
	DB	08H
	DB	08H
	DB	08H
	DB	08H
	DB	08H
	DB	08H
	DB	08H
	DB	08H
	DB	08H
	DB	08H
	DB	08H
	DB	08H
	DB	08H
	DB	08H
	DB	08H
	DB	08H
	DB	08H
	DB	08H
	DB	08H
	DB	08H
	DB	08H
	DB	08H
	DB	08H
	DB	08H
	DB	08H
	DB	08H
	DB	08H
	DB	08H
	DB	08H
	DB	08H
	DB	08H
	DB	08H
	DB	08H
	DB	08H
	DB	08H
	DB	08H
	DB	08H
	DB	08H
	DB	08H
	DB	08H
	DB	08H
	DB	08H
	DB	08H
	DB	08H
	DB	08H
	DB	08H
	DB	08H
	DB	08H
	DB	08H
	DB	08H
	DB	08H
	DB	08H
	DB	08H
	DB	08H
	DB	08H
	DB	08H
	DB	08H
	DB	08H
	DB	08H
	DB	08H
	DB	08H
	DB	08H
	DB	08H
	DB	08H
	DB	08H
	DB	08H
	DB	08H
	DB	08H
	DB	08H
	DB	08H
	DB	08H
	DB	08H
	DB	08H
	DB	08H
	DB	08H
	DB	08H
	DB	08H
	DB	08H
	DB	08H
	DB	08H
	DB	08H
	DB	08H
	DB	08H
	DB	08H
	DB	08H
	DB	08H
	DB	08H
	DB	08H
	DB	08H
	DB	08H
	DB	08H
	DB	08H
	DB	08H
	DB	08H
	DB	08H
	DB	08H
	DB	08H
	DB	08H
	DB	08H
	DB	08H
	DB	08H
	DB	08H
	DB	08H
	DB	08H
	DB	08H
	DB	08H
	DB	08H
	DB	08H
	DB	08H
	DB	08H
	DB	08H
	DB	08H
	DB	08H
	DB	08H
	DB	08H
	DB	08H
	DB	08H
	DB	08H
	DB	08H
	DB	08H
	DB	08H
	DB	08H
	DB	08H
	DB	08H
	DB	08H
	DB	08H
	DB	08H
	DB	08H
	DB	08H
	DB	08H
	DB	08H
	DB	08H
	DB	08H
	DB	08H
	DB	08H
	DB	08H
	DB	08H
	DB	08H
	DB	08H
	DB	08H
	DB	08H
	DB	08H
	DB	08H
	DB	076H
	DB	04cH
	DB	050H
	DB	071H
	DB	09H
	DB	09H
	DB	09H
	DB	09H
	DB	09H
	DB	09H
	DB	09H
	DB	09H
	DB	09H
	DB	09H
	DB	09H
	DB	09H
	DB	09H
	DB	09H
	DB	09H
	DB	09H
	DB	09H
	DB	09H
	DB	09H
	DB	09H
	DB	09H
	DB	09H
	DB	09H
	DB	09H
	DB	09H
	DB	09H
	DB	09H
	DB	09H
	DB	09H
	DB	09H
	DB	09H
	DB	09H
	DB	09H
	DB	09H
	DB	09H
	DB	09H
	DB	09H
	DB	09H
	DB	09H
	DB	09H
	DB	09H
	DB	09H
	DB	09H
	DB	09H
	DB	09H
	DB	09H
	DB	09H
	DB	09H
	DB	09H
	DB	09H
	DB	09H
	DB	09H
	DB	09H
	DB	09H
	DB	09H
	DB	09H
	DB	09H
	DB	09H
	DB	09H
	DB	09H
	DB	09H
	DB	09H
	DB	09H
	DB	09H
	DB	09H
	DB	09H
	DB	09H
	DB	09H
	DB	09H
	DB	09H
	DB	09H
	DB	09H
	DB	09H
	DB	09H
	DB	09H
	DB	09H
	DB	09H
	DB	09H
	DB	09H
	DB	09H
	DB	09H
	DB	09H
	DB	09H
	DB	09H
	DB	09H
	DB	09H
	DB	09H
	DB	09H
	DB	09H
	DB	09H
	DB	09H
	DB	09H
	DB	09H
	DB	09H
	DB	09H
	DB	09H
	DB	09H
	DB	09H
	DB	09H
	DB	09H
	DB	09H
	DB	09H
	DB	09H
	DB	09H
	DB	09H
	DB	09H
	DB	09H
	DB	09H
	DB	09H
	DB	09H
	DB	09H
	DB	09H
	DB	09H
	DB	09H
	DB	09H
	DB	09H
	DB	09H
	DB	09H
	DB	09H
	DB	09H
	DB	09H
	DB	09H
	DB	09H
	DB	09H
	DB	09H
	DB	09H
	DB	09H
	DB	09H
	DB	09H
	DB	09H
	DB	09H
	DB	09H
	DB	09H
	DB	09H
	DB	09H
	DB	09H
	DB	09H
	DB	09H
	DB	09H
	DB	09H
	DB	09H
	DB	09H
	DB	09H
	DB	09H
	DB	09H
	DB	09H
	DB	09H
	DB	09H
	DB	09H
	DB	09H
	DB	09H
	DB	09H
	DB	09H
	DB	09H
	DB	09H
	DB	09H
	DB	09H
	DB	09H
	DB	09H
	DB	09H
	DB	09H
	DB	09H
	DB	09H
	DB	079H
	DB	04fH
	DB	057H
	DB	075H
	DB	0aH
	DB	0aH
	DB	0aH
	DB	0aH
	DB	0aH
	DB	0aH
	DB	0aH
	DB	0aH
	DB	0aH
	DB	0aH
	DB	0aH
	DB	0aH
	DB	0aH
	DB	0aH
	DB	0aH
	DB	0aH
	DB	0aH
	DB	0aH
	DB	0aH
	DB	0aH
	DB	0aH
	DB	0aH
	DB	0aH
	DB	0aH
	DB	0aH
	DB	0aH
	DB	0aH
	DB	0aH
	DB	0aH
	DB	0aH
	DB	0aH
	DB	0aH
	DB	0aH
	DB	0aH
	DB	0aH
	DB	0aH
	DB	0aH
	DB	0aH
	DB	0aH
	DB	0aH
	DB	0aH
	DB	0aH
	DB	0aH
	DB	0aH
	DB	0aH
	DB	0aH
	DB	0aH
	DB	0aH
	DB	0aH
	DB	0aH
	DB	0aH
	DB	0aH
	DB	0aH
	DB	0aH
	DB	0aH
	DB	0aH
	DB	0aH
	DB	0aH
	DB	0aH
	DB	0aH
	DB	0aH
	DB	0aH
	DB	0aH
	DB	0aH
	DB	0aH
	DB	0aH
	DB	0aH
	DB	0aH
	DB	0aH
	DB	0aH
	DB	0aH
	DB	0aH
	DB	0aH
	DB	0aH
	DB	0aH
	DB	0aH
	DB	0aH
	DB	0aH
	DB	0aH
	DB	0aH
	DB	0aH
	DB	0aH
	DB	0aH
	DB	0aH
	DB	0aH
	DB	0aH
	DB	0aH
	DB	0aH
	DB	0aH
	DB	0aH
	DB	0aH
	DB	0aH
	DB	0aH
	DB	0aH
	DB	0aH
	DB	0aH
	DB	0aH
	DB	0aH
	DB	0aH
	DB	0aH
	DB	0aH
	DB	0aH
	DB	0aH
	DB	0aH
	DB	0aH
	DB	0aH
	DB	0aH
	DB	0aH
	DB	0aH
	DB	0aH
	DB	0aH
	DB	0aH
	DB	0aH
	DB	0aH
	DB	0aH
	DB	0aH
	DB	0aH
	DB	0aH
	DB	0aH
	DB	0aH
	DB	0aH
	DB	0aH
	DB	0aH
	DB	0aH
	DB	0aH
	DB	0aH
	DB	0aH
	DB	0aH
	DB	0aH
	DB	0aH
	DB	0aH
	DB	0aH
	DB	0aH
	DB	0aH
	DB	0aH
	DB	0aH
	DB	0aH
	DB	0aH
	DB	0aH
	DB	0aH
	DB	0aH
	DB	0aH
	DB	0aH
	DB	0aH
	DB	0aH
	DB	0aH
	DB	0aH
	DB	0aH
	DB	0aH
	DB	0aH
	DB	0aH
	DB	0aH
	DB	0aH
	DB	0aH
	DB	0aH
	DB	0aH
	DB	0aH
	DB	0aH
	DB	0aH
	DB	0aH
	DB	0aH
	DB	0aH
	DB	0aH
	DB	07bH
	DB	056H
	DB	059H
	DB	078H
	DB	0bH
	DB	0bH
	DB	0bH
	DB	0bH
	DB	0bH
	DB	0bH
	DB	0bH
	DB	0bH
	DB	0bH
	DB	0bH
	DB	0bH
	DB	0bH
	DB	0bH
	DB	0bH
	DB	0bH
	DB	0bH
	DB	0bH
	DB	0bH
	DB	0bH
	DB	0bH
	DB	0bH
	DB	0bH
	DB	0bH
	DB	0bH
	DB	0bH
	DB	0bH
	DB	0bH
	DB	0bH
	DB	0bH
	DB	0bH
	DB	0bH
	DB	0bH
	DB	0bH
	DB	0bH
	DB	0bH
	DB	0bH
	DB	0bH
	DB	0bH
	DB	0bH
	DB	0bH
	DB	0bH
	DB	0bH
	DB	0bH
	DB	0bH
	DB	0bH
	DB	0bH
	DB	0bH
	DB	0bH
	DB	0bH
	DB	0bH
	DB	0bH
	DB	0bH
	DB	0bH
	DB	0bH
	DB	0bH
	DB	0bH
	DB	0bH
	DB	0bH
	DB	0bH
	DB	0bH
	DB	0bH
	DB	0bH
	DB	0bH
	DB	0bH
	DB	0bH
	DB	0bH
	DB	0bH
	DB	0bH
	DB	0bH
	DB	0bH
	DB	0bH
	DB	0bH
	DB	0bH
	DB	0bH
	DB	0bH
	DB	0bH
	DB	0bH
	DB	0bH
	DB	0bH
	DB	0bH
	DB	0bH
	DB	0bH
	DB	0bH
	DB	0bH
	DB	0bH
	DB	0bH
	DB	0bH
	DB	0bH
	DB	0bH
	DB	0bH
	DB	0bH
	DB	0bH
	DB	0bH
	DB	0bH
	DB	0bH
	DB	0bH
	DB	0bH
	DB	0bH
	DB	0bH
	DB	0bH
	DB	0bH
	DB	0bH
	DB	0bH
	DB	0bH
	DB	0bH
	DB	0bH
	DB	0bH
	DB	0bH
	DB	0bH
	DB	0bH
	DB	0bH
	DB	0bH
	DB	0bH
	DB	0bH
	DB	0bH
	DB	0bH
	DB	0bH
	DB	0bH
	DB	0bH
	DB	0bH
	DB	0bH
	DB	0bH
	DB	0bH
	DB	0bH
	DB	0bH
	DB	0bH
	DB	0bH
	DB	0bH
	DB	0bH
	DB	0bH
	DB	0bH
	DB	0bH
	DB	0bH
	DB	0bH
	DB	0bH
	DB	0bH
	DB	0bH
	DB	0bH
	DB	0bH
	DB	0bH
	DB	0bH
	DB	0bH
	DB	0bH
	DB	0bH
	DB	0bH
	DB	0bH
	DB	0bH
	DB	0bH
	DB	0bH
	DB	0bH
	DB	0bH
	DB	0bH
	DB	0bH
	DB	0bH
	DB	0bH
	DB	0bH
	DB	0bH
	DB	0bH
	DB	0bH
	DB	0bH
	DB	0bH
	DB	0bH
	DB	0bH
	DB	07cH
	DB	05aH
	DB	05eH
	DB	07aH
	DB	01H
	DB	01H
	DB	01H
	DB	01H
	DB	01H
	DB	01H
	DB	01H
	DB	01H
	DB	01H
	DB	01H
	DB	01H
	DB	01H
	DB	01H
	DB	01H
	DB	01H
	DB	01H
	DB	01H
	DB	01H
	DB	01H
	DB	01H
	DB	01H
	DB	01H
	DB	01H
	DB	01H
	DB	01H
	DB	01H
	DB	01H
	DB	01H
	DB	01H
	DB	01H
	DB	01H
	DB	01H
	DB	01H
	DB	01H
	DB	01H
	DB	01H
	DB	01H
	DB	01H
	DB	01H
	DB	01H
	DB	01H
	DB	01H
	DB	01H
	DB	01H
	DB	01H
	DB	01H
	DB	01H
	DB	01H
	DB	01H
	DB	01H
	DB	01H
	DB	01H
	DB	01H
	DB	01H
	DB	01H
	DB	01H
	DB	01H
	DB	01H
	DB	01H
	DB	01H
	DB	01H
	DB	01H
	DB	01H
	DB	01H
	DB	01H
	DB	01H
	DB	01H
	DB	01H
	DB	01H
	DB	01H
	DB	01H
	DB	01H
	DB	01H
	DB	01H
	DB	01H
	DB	01H
	DB	01H
	DB	01H
	DB	01H
	DB	01H
	DB	01H
	DB	01H
	DB	01H
	DB	01H
	DB	01H
	DB	01H
	DB	01H
	DB	01H
	DB	01H
	DB	01H
	DB	01H
	DB	01H
	DB	01H
	DB	01H
	DB	01H
	DB	01H
	DB	01H
	DB	01H
	DB	01H
	DB	01H
	DB	01H
	DB	01H
	DB	01H
	DB	01H
	DB	01H
	DB	01H
	DB	01H
	DB	01H
	DB	01H
	DB	01H
	DB	01H
	DB	01H
	DB	01H
	DB	01H
	DB	01H
	DB	01H
	DB	01H
	DB	01H
	DB	01H
	DB	01H
	DB	01H
	DB	01H
	DB	01H
	DB	01H
	DB	01H
	DB	01H
	DB	01H
	DB	01H
	DB	01H
	DB	01H
	DB	01H
	DB	01H
	DB	01H
	DB	01H
	DB	01H
	DB	01H
	DB	01H
	DB	01H
	DB	01H
	DB	01H
	DB	01H
	DB	01H
	DB	01H
	DB	01H
	DB	01H
	DB	01H
	DB	01H
	DB	01H
	DB	01H
	DB	01H
	DB	01H
	DB	01H
	DB	01H
	DB	01H
	DB	01H
	DB	01H
	DB	01H
	DB	01H
	DB	01H
	DB	01H
	DB	01H
	DB	01H
	DB	01H
	DB	00H
	DB	011H
	DB	017H
	DB	01H
	DB	0cH
	DB	0cH
	DB	0cH
	DB	0cH
	DB	0cH
	DB	0cH
	DB	0cH
	DB	0cH
	DB	0cH
	DB	0cH
	DB	0cH
	DB	0cH
	DB	0cH
	DB	0cH
	DB	0cH
	DB	0cH
	DB	0cH
	DB	0cH
	DB	0cH
	DB	0cH
	DB	0cH
	DB	0cH
	DB	0cH
	DB	0cH
	DB	0cH
	DB	0cH
	DB	0cH
	DB	0cH
	DB	0cH
	DB	0cH
	DB	0cH
	DB	0cH
	DB	0cH
	DB	0cH
	DB	0cH
	DB	0cH
	DB	0cH
	DB	0cH
	DB	0cH
	DB	0cH
	DB	0cH
	DB	0cH
	DB	0cH
	DB	0cH
	DB	0cH
	DB	0cH
	DB	0cH
	DB	0cH
	DB	0cH
	DB	0cH
	DB	0cH
	DB	0cH
	DB	0cH
	DB	0cH
	DB	0cH
	DB	0cH
	DB	0cH
	DB	0cH
	DB	0cH
	DB	0cH
	DB	0cH
	DB	0cH
	DB	0cH
	DB	0cH
	DB	0cH
	DB	0cH
	DB	0cH
	DB	0cH
	DB	0cH
	DB	0cH
	DB	0cH
	DB	0cH
	DB	0cH
	DB	0cH
	DB	0cH
	DB	0cH
	DB	0cH
	DB	0cH
	DB	0cH
	DB	0cH
	DB	0cH
	DB	0cH
	DB	0cH
	DB	0cH
	DB	0cH
	DB	0cH
	DB	0cH
	DB	0cH
	DB	0cH
	DB	0cH
	DB	0cH
	DB	0cH
	DB	0cH
	DB	0cH
	DB	0cH
	DB	0cH
	DB	0cH
	DB	0cH
	DB	0cH
	DB	0cH
	DB	0cH
	DB	0cH
	DB	0cH
	DB	0cH
	DB	0cH
	DB	0cH
	DB	0cH
	DB	0cH
	DB	0cH
	DB	0cH
	DB	0cH
	DB	0cH
	DB	0cH
	DB	0cH
	DB	0cH
	DB	0cH
	DB	0cH
	DB	0cH
	DB	0cH
	DB	0cH
	DB	0cH
	DB	0cH
	DB	0cH
	DB	0cH
	DB	0cH
	DB	0cH
	DB	0cH
	DB	0cH
	DB	0cH
	DB	0cH
	DB	0cH
	DB	0cH
	DB	0cH
	DB	0cH
	DB	0cH
	DB	0cH
	DB	0cH
	DB	0cH
	DB	0cH
	DB	0cH
	DB	0cH
	DB	0cH
	DB	0cH
	DB	0cH
	DB	0cH
	DB	0cH
	DB	0cH
	DB	0cH
	DB	0cH
	DB	0cH
	DB	0cH
	DB	0cH
	DB	0cH
	DB	0cH
	DB	0cH
	DB	0cH
	DB	0cH
	DB	0cH
	DB	0cH
	DB	0cH
	DB	0cH
	DB	0cH
	DB	0cH
	DB	00H
	DB	01eH
	DB	018H
	DB	015H
	DB	00H
	DB	00H
	DB	00H
	DB	00H
	DB	00H
	DB	00H
	DB	00H
	DB	00H
	DB	00H
	DB	00H
	DB	00H
	DB	00H
	DB	00H
	DB	00H
	DB	00H
	DB	00H
	DB	00H
	DB	00H
	DB	00H
	DB	00H
	DB	00H
	DB	00H
	DB	00H
	DB	00H
	DB	00H
	DB	00H
	DB	00H
	DB	00H
	DB	00H
	DB	00H
	DB	00H
	DB	00H
	DB	00H
	DB	00H
	DB	00H
	DB	00H
	DB	00H
	DB	00H
	DB	00H
	DB	00H
	DB	00H
	DB	00H
	DB	00H
	DB	00H
	DB	00H
	DB	00H
	DB	00H
	DB	00H
	DB	00H
	DB	00H
	DB	00H
	DB	00H
	DB	00H
	DB	00H
	DB	00H
	DB	00H
	DB	00H
	DB	00H
	DB	00H
	DB	00H
	DB	00H
	DB	00H
	DB	00H
	DB	00H
	DB	00H
	DB	00H
	DB	00H
	DB	00H
	DB	00H
	DB	00H
	DB	00H
	DB	00H
	DB	00H
	DB	00H
	DB	00H
	DB	00H
	DB	00H
	DB	00H
	DB	00H
	DB	00H
	DB	00H
	DB	00H
	DB	00H
	DB	00H
	DB	00H
	DB	00H
	DB	00H
	DB	00H
	DB	00H
	DB	00H
	DB	00H
	DB	00H
	DB	00H
	DB	00H
	DB	00H
	DB	00H
	DB	00H
	DB	00H
	DB	00H
	DB	00H
	DB	00H
	DB	00H
	DB	00H
	DB	00H
	DB	00H
	DB	00H
	DB	00H
	DB	00H
	DB	00H
	DB	00H
	DB	00H
	DB	00H
	DB	00H
	DB	00H
	DB	00H
	DB	00H
	DB	00H
	DB	00H
	DB	00H
	DB	00H
	DB	00H
	DB	00H
	DB	00H
	DB	00H
	DB	00H
	DB	00H
	DB	00H
	DB	00H
	DB	00H
	DB	00H
	DB	00H
	DB	00H
	DB	00H
	DB	00H
	DB	00H
	DB	00H
	DB	00H
	DB	00H
	DB	00H
	DB	00H
	DB	00H
	DB	00H
	DB	00H
	DB	00H
	DB	00H
	DB	00H
	DB	00H
	DB	00H
	DB	00H
	DB	00H
	DB	00H
	DB	00H
	DB	00H
	DB	00H
	DB	00H
	DB	00H
	DB	00H
	DB	00H
	DB	00H
	DB	00H
	DB	00H
	DB	00H
	DB	00H
	DB	00H
	DB	017H
	DB	018H
	DB	015H
	DB	00H
	DB	00H
	DB	00H
	DB	00H
	DB	00H
	DB	00H
	DB	00H
	DB	00H
	DB	00H
	DB	00H
	DB	00H
	DB	00H
	DB	00H
	DB	00H
	DB	00H
	DB	00H
	DB	00H
	DB	00H
	DB	00H
	DB	00H
	DB	00H
	DB	00H
	DB	00H
	DB	00H
	DB	00H
	DB	00H
	DB	00H
	DB	00H
	DB	00H
	DB	00H
	DB	00H
	DB	00H
	DB	00H
	DB	00H
	DB	00H
	DB	00H
	DB	00H
	DB	00H
	DB	00H
	DB	00H
	DB	00H
	DB	00H
	DB	00H
	DB	00H
	DB	00H
	DB	00H
	DB	00H
	DB	00H
	DB	00H
	DB	00H
	DB	00H
	DB	00H
	DB	00H
	DB	00H
	DB	00H
	DB	00H
	DB	00H
	DB	00H
	DB	00H
	DB	00H
	DB	00H
	DB	00H
	DB	00H
	DB	00H
	DB	00H
	DB	00H
	DB	00H
	DB	00H
	DB	00H
	DB	00H
	DB	00H
	DB	00H
	DB	00H
	DB	00H
	DB	00H
	DB	00H
	DB	00H
	DB	00H
	DB	00H
	DB	00H
	DB	00H
	DB	00H
	DB	00H
	DB	00H
	DB	00H
	DB	00H
	DB	00H
	DB	00H
	DB	00H
	DB	00H
	DB	00H
	DB	00H
	DB	00H
	DB	00H
	DB	00H
	DB	00H
	DB	00H
	DB	00H
	DB	00H
	DB	00H
	DB	00H
	DB	00H
	DB	00H
	DB	00H
	DB	00H
	DB	00H
	DB	00H
	DB	00H
	DB	00H
	DB	00H
	DB	00H
	DB	00H
	DB	00H
	DB	00H
	DB	00H
	DB	00H
	DB	00H
	DB	00H
	DB	00H
	DB	00H
	DB	00H
	DB	00H
	DB	00H
	DB	00H
	DB	00H
	DB	00H
	DB	00H
	DB	00H
	DB	00H
	DB	00H
	DB	00H
	DB	00H
	DB	00H
	DB	00H
	DB	00H
	DB	00H
	DB	00H
	DB	00H
	DB	00H
	DB	00H
	DB	00H
	DB	00H
	DB	00H
	DB	00H
	DB	00H
	DB	00H
	DB	00H
	DB	00H
	DB	00H
	DB	00H
	DB	00H
	DB	00H
	DB	00H
	DB	00H
	DB	00H
	DB	00H
	DB	00H
	DB	00H
	DB	00H
	DB	00H
	DB	00H
	DB	00H
	DB	00H
	DB	00H
	DB	017H
	DB	018H
	DB	015H
	DB	00H
	DB	00H
	DB	00H
	DB	00H
	DB	00H
	DB	00H
	DB	00H
	DB	00H
	DB	00H
	DB	00H
	DB	00H
	DB	00H
	DB	00H
	DB	00H
	DB	00H
	DB	00H
	DB	00H
	DB	00H
	DB	00H
	DB	00H
	DB	00H
	DB	00H
	DB	00H
	DB	00H
	DB	00H
	DB	00H
	DB	00H
	DB	00H
	DB	00H
	DB	00H
	DB	00H
	DB	00H
	DB	00H
	DB	00H
	DB	00H
	DB	00H
	DB	00H
	DB	00H
	DB	00H
	DB	00H
	DB	00H
	DB	00H
	DB	00H
	DB	00H
	DB	00H
	DB	00H
	DB	00H
	DB	00H
	DB	00H
	DB	00H
	DB	00H
	DB	00H
	DB	00H
	DB	00H
	DB	00H
	DB	00H
	DB	00H
	DB	00H
	DB	00H
	DB	00H
	DB	00H
	DB	00H
	DB	00H
	DB	00H
	DB	00H
	DB	00H
	DB	00H
	DB	00H
	DB	00H
	DB	00H
	DB	00H
	DB	00H
	DB	00H
	DB	00H
	DB	00H
	DB	00H
	DB	00H
	DB	00H
	DB	00H
	DB	00H
	DB	00H
	DB	00H
	DB	00H
	DB	00H
	DB	00H
	DB	00H
	DB	00H
	DB	00H
	DB	00H
	DB	00H
	DB	00H
	DB	00H
	DB	00H
	DB	00H
	DB	00H
	DB	00H
	DB	00H
	DB	00H
	DB	00H
	DB	00H
	DB	00H
	DB	00H
	DB	00H
	DB	00H
	DB	00H
	DB	00H
	DB	00H
	DB	00H
	DB	00H
	DB	00H
	DB	00H
	DB	00H
	DB	00H
	DB	00H
	DB	00H
	DB	00H
	DB	00H
	DB	00H
	DB	00H
	DB	00H
	DB	00H
	DB	00H
	DB	00H
	DB	00H
	DB	00H
	DB	00H
	DB	00H
	DB	00H
	DB	00H
	DB	00H
	DB	00H
	DB	00H
	DB	00H
	DB	00H
	DB	00H
	DB	00H
	DB	00H
	DB	00H
	DB	00H
	DB	00H
	DB	00H
	DB	00H
	DB	00H
	DB	00H
	DB	00H
	DB	00H
	DB	00H
	DB	00H
	DB	00H
	DB	00H
	DB	00H
	DB	00H
	DB	00H
	DB	00H
	DB	00H
	DB	00H
	DB	00H
	DB	00H
	DB	00H
	DB	00H
	DB	00H
	DB	00H
	DB	00H
	DB	00H
	DB	017H
	DB	018H
	DB	015H
	DB	00H
	DB	00H
	DB	00H
	DB	00H
	DB	00H
	DB	00H
	DB	00H
	DB	00H
	DB	00H
	DB	00H
	DB	00H
	DB	00H
	DB	00H
	DB	00H
	DB	00H
	DB	00H
	DB	00H
	DB	00H
	DB	00H
	DB	00H
	DB	00H
	DB	00H
	DB	00H
	DB	00H
	DB	00H
	DB	00H
	DB	00H
	DB	00H
	DB	00H
	DB	00H
	DB	00H
	DB	00H
	DB	00H
	DB	00H
	DB	00H
	DB	00H
	DB	00H
	DB	00H
	DB	00H
	DB	00H
	DB	00H
	DB	00H
	DB	00H
	DB	00H
	DB	00H
	DB	00H
	DB	00H
	DB	00H
	DB	00H
	DB	00H
	DB	00H
	DB	00H
	DB	00H
	DB	00H
	DB	00H
	DB	00H
	DB	00H
	DB	00H
	DB	00H
	DB	00H
	DB	00H
	DB	00H
	DB	00H
	DB	00H
	DB	00H
	DB	00H
	DB	00H
	DB	00H
	DB	00H
	DB	00H
	DB	00H
	DB	00H
	DB	00H
	DB	00H
	DB	00H
	DB	00H
	DB	00H
	DB	00H
	DB	00H
	DB	00H
	DB	00H
	DB	00H
	DB	00H
	DB	00H
	DB	00H
	DB	00H
	DB	00H
	DB	00H
	DB	00H
	DB	00H
	DB	00H
	DB	00H
	DB	00H
	DB	00H
	DB	00H
	DB	00H
	DB	00H
	DB	00H
	DB	00H
	DB	00H
	DB	00H
	DB	00H
	DB	00H
	DB	00H
	DB	00H
	DB	00H
	DB	00H
	DB	00H
	DB	00H
	DB	00H
	DB	00H
	DB	00H
	DB	00H
	DB	00H
	DB	00H
	DB	00H
	DB	00H
	DB	00H
	DB	00H
	DB	00H
	DB	00H
	DB	00H
	DB	00H
	DB	00H
	DB	00H
	DB	00H
	DB	00H
	DB	00H
	DB	00H
	DB	00H
	DB	00H
	DB	00H
	DB	00H
	DB	00H
	DB	00H
	DB	00H
	DB	00H
	DB	00H
	DB	00H
	DB	00H
	DB	00H
	DB	00H
	DB	00H
	DB	00H
	DB	00H
	DB	00H
	DB	00H
	DB	00H
	DB	00H
	DB	00H
	DB	00H
	DB	00H
	DB	00H
	DB	00H
	DB	00H
	DB	00H
	DB	00H
	DB	00H
	DB	00H
	DB	00H
	DB	00H
	DB	00H
	DB	00H
	DB	00H
	DB	017H
	DB	018H
	DB	015H
	DB	00H
	DB	00H
	DB	00H
	DB	00H
	DB	00H
	DB	00H
	DB	00H
	DB	00H
	DB	00H
	DB	00H
	DB	00H
	DB	00H
	DB	00H
	DB	00H
	DB	00H
	DB	00H
	DB	00H
	DB	00H
	DB	00H
	DB	00H
	DB	00H
	DB	00H
	DB	00H
	DB	00H
	DB	00H
	DB	00H
	DB	00H
	DB	00H
	DB	00H
	DB	00H
	DB	00H
	DB	00H
	DB	00H
	DB	00H
	DB	00H
	DB	00H
	DB	00H
	DB	00H
	DB	00H
	DB	00H
	DB	00H
	DB	00H
	DB	00H
	DB	00H
	DB	00H
	DB	00H
	DB	00H
	DB	00H
	DB	00H
	DB	00H
	DB	00H
	DB	00H
	DB	00H
	DB	00H
	DB	00H
	DB	00H
	DB	00H
	DB	00H
	DB	00H
	DB	00H
	DB	00H
	DB	00H
	DB	00H
	DB	00H
	DB	00H
	DB	00H
	DB	00H
	DB	00H
	DB	00H
	DB	00H
	DB	00H
	DB	00H
	DB	00H
	DB	00H
	DB	00H
	DB	00H
	DB	00H
	DB	00H
	DB	00H
	DB	00H
	DB	00H
	DB	00H
	DB	00H
	DB	00H
	DB	00H
	DB	00H
	DB	00H
	DB	00H
	DB	00H
	DB	00H
	DB	00H
	DB	00H
	DB	00H
	DB	00H
	DB	00H
	DB	00H
	DB	00H
	DB	00H
	DB	00H
	DB	00H
	DB	00H
	DB	00H
	DB	00H
	DB	00H
	DB	00H
	DB	00H
	DB	00H
	DB	00H
	DB	00H
	DB	00H
	DB	00H
	DB	00H
	DB	00H
	DB	00H
	DB	00H
	DB	00H
	DB	00H
	DB	00H
	DB	00H
	DB	00H
	DB	00H
	DB	00H
	DB	00H
	DB	00H
	DB	00H
	DB	00H
	DB	00H
	DB	00H
	DB	00H
	DB	00H
	DB	00H
	DB	00H
	DB	00H
	DB	00H
	DB	00H
	DB	00H
	DB	00H
	DB	00H
	DB	00H
	DB	00H
	DB	00H
	DB	00H
	DB	00H
	DB	00H
	DB	00H
	DB	00H
	DB	00H
	DB	00H
	DB	00H
	DB	00H
	DB	00H
	DB	00H
	DB	00H
	DB	00H
	DB	00H
	DB	00H
	DB	00H
	DB	00H
	DB	00H
	DB	00H
	DB	00H
	DB	00H
	DB	00H
	DB	00H
	DB	017H
	DB	018H
	DB	015H
	DB	00H
	DB	00H
	DB	00H
	DB	00H
	DB	00H
	DB	00H
	DB	00H
	DB	00H
	DB	00H
	DB	00H
	DB	00H
	DB	00H
	DB	00H
	DB	00H
	DB	00H
	DB	00H
	DB	00H
	DB	00H
	DB	00H
	DB	00H
	DB	00H
	DB	00H
	DB	00H
	DB	00H
	DB	00H
	DB	00H
	DB	00H
	DB	00H
	DB	00H
	DB	00H
	DB	00H
	DB	00H
	DB	00H
	DB	00H
	DB	00H
	DB	00H
	DB	00H
	DB	00H
	DB	00H
	DB	00H
	DB	00H
	DB	00H
	DB	00H
	DB	00H
	DB	00H
	DB	00H
	DB	00H
	DB	00H
	DB	00H
	DB	00H
	DB	00H
	DB	00H
	DB	00H
	DB	00H
	DB	00H
	DB	00H
	DB	00H
	DB	00H
	DB	00H
	DB	00H
	DB	00H
	DB	00H
	DB	00H
	DB	00H
	DB	00H
	DB	00H
	DB	00H
	DB	00H
	DB	00H
	DB	00H
	DB	00H
	DB	00H
	DB	00H
	DB	00H
	DB	00H
	DB	00H
	DB	00H
	DB	00H
	DB	00H
	DB	00H
	DB	00H
	DB	00H
	DB	00H
	DB	00H
	DB	00H
	DB	00H
	DB	00H
	DB	00H
	DB	00H
	DB	00H
	DB	00H
	DB	00H
	DB	00H
	DB	00H
	DB	00H
	DB	00H
	DB	00H
	DB	00H
	DB	00H
	DB	00H
	DB	00H
	DB	00H
	DB	00H
	DB	00H
	DB	00H
	DB	00H
	DB	00H
	DB	00H
	DB	00H
	DB	00H
	DB	00H
	DB	00H
	DB	00H
	DB	00H
	DB	00H
	DB	00H
	DB	00H
	DB	00H
	DB	00H
	DB	00H
	DB	00H
	DB	00H
	DB	00H
	DB	00H
	DB	00H
	DB	00H
	DB	00H
	DB	00H
	DB	00H
	DB	00H
	DB	00H
	DB	00H
	DB	00H
	DB	00H
	DB	00H
	DB	00H
	DB	00H
	DB	00H
	DB	00H
	DB	00H
	DB	00H
	DB	00H
	DB	00H
	DB	00H
	DB	00H
	DB	00H
	DB	00H
	DB	00H
	DB	00H
	DB	00H
	DB	00H
	DB	00H
	DB	00H
	DB	00H
	DB	00H
	DB	00H
	DB	00H
	DB	00H
	DB	00H
	DB	00H
	DB	00H
	DB	00H
	DB	00H
	DB	00H
	DB	017H
	DB	018H
	DB	015H
	DB	00H
	DB	00H
	DB	00H
	DB	00H
	DB	00H
	DB	00H
	DB	00H
	DB	00H
	DB	00H
	DB	00H
	DB	00H
	DB	00H
	DB	00H
	DB	00H
	DB	00H
	DB	00H
	DB	00H
	DB	00H
	DB	00H
	DB	00H
	DB	00H
	DB	00H
	DB	00H
	DB	00H
	DB	00H
	DB	00H
	DB	00H
	DB	00H
	DB	00H
	DB	00H
	DB	00H
	DB	00H
	DB	00H
	DB	00H
	DB	00H
	DB	00H
	DB	00H
	DB	00H
	DB	00H
	DB	00H
	DB	00H
	DB	00H
	DB	00H
	DB	00H
	DB	00H
	DB	00H
	DB	00H
	DB	00H
	DB	00H
	DB	00H
	DB	00H
	DB	00H
	DB	00H
	DB	00H
	DB	00H
	DB	00H
	DB	00H
	DB	00H
	DB	00H
	DB	00H
	DB	00H
	DB	00H
	DB	00H
	DB	00H
	DB	00H
	DB	00H
	DB	00H
	DB	00H
	DB	00H
	DB	00H
	DB	00H
	DB	00H
	DB	00H
	DB	00H
	DB	00H
	DB	00H
	DB	00H
	DB	00H
	DB	00H
	DB	00H
	DB	00H
	DB	00H
	DB	00H
	DB	00H
	DB	00H
	DB	00H
	DB	00H
	DB	00H
	DB	00H
	DB	00H
	DB	00H
	DB	00H
	DB	00H
	DB	00H
	DB	00H
	DB	00H
	DB	00H
	DB	00H
	DB	00H
	DB	00H
	DB	00H
	DB	00H
	DB	00H
	DB	00H
	DB	00H
	DB	00H
	DB	00H
	DB	00H
	DB	00H
	DB	00H
	DB	00H
	DB	00H
	DB	00H
	DB	00H
	DB	00H
	DB	00H
	DB	00H
	DB	00H
	DB	00H
	DB	00H
	DB	00H
	DB	00H
	DB	00H
	DB	00H
	DB	00H
	DB	00H
	DB	00H
	DB	00H
	DB	00H
	DB	00H
	DB	00H
	DB	00H
	DB	00H
	DB	00H
	DB	00H
	DB	00H
	DB	00H
	DB	00H
	DB	00H
	DB	00H
	DB	00H
	DB	00H
	DB	00H
	DB	00H
	DB	00H
	DB	00H
	DB	00H
	DB	00H
	DB	00H
	DB	00H
	DB	00H
	DB	00H
	DB	00H
	DB	00H
	DB	00H
	DB	00H
	DB	00H
	DB	00H
	DB	00H
	DB	00H
	DB	00H
	DB	00H
	DB	00H
	DB	00H
	DB	017H
	DB	018H
	DB	015H
	DB	00H
	DB	00H
	DB	00H
	DB	00H
	DB	00H
	DB	00H
	DB	00H
	DB	00H
	DB	00H
	DB	00H
	DB	00H
	DB	00H
	DB	00H
	DB	00H
	DB	00H
	DB	00H
	DB	00H
	DB	00H
	DB	00H
	DB	00H
	DB	00H
	DB	00H
	DB	00H
	DB	00H
	DB	00H
	DB	00H
	DB	00H
	DB	00H
	DB	00H
	DB	00H
	DB	00H
	DB	00H
	DB	00H
	DB	00H
	DB	00H
	DB	00H
	DB	00H
	DB	00H
	DB	00H
	DB	00H
	DB	00H
	DB	00H
	DB	00H
	DB	00H
	DB	00H
	DB	00H
	DB	00H
	DB	00H
	DB	00H
	DB	00H
	DB	00H
	DB	00H
	DB	00H
	DB	00H
	DB	00H
	DB	00H
	DB	00H
	DB	00H
	DB	00H
	DB	00H
	DB	00H
	DB	00H
	DB	00H
	DB	00H
	DB	00H
	DB	00H
	DB	00H
	DB	00H
	DB	00H
	DB	00H
	DB	00H
	DB	00H
	DB	00H
	DB	00H
	DB	00H
	DB	00H
	DB	00H
	DB	00H
	DB	00H
	DB	00H
	DB	00H
	DB	00H
	DB	00H
	DB	00H
	DB	00H
	DB	00H
	DB	00H
	DB	00H
	DB	00H
	DB	00H
	DB	00H
	DB	00H
	DB	00H
	DB	00H
	DB	00H
	DB	00H
	DB	00H
	DB	00H
	DB	00H
	DB	00H
	DB	00H
	DB	00H
	DB	00H
	DB	00H
	DB	00H
	DB	00H
	DB	00H
	DB	00H
	DB	00H
	DB	00H
	DB	00H
	DB	00H
	DB	00H
	DB	00H
	DB	00H
	DB	00H
	DB	00H
	DB	00H
	DB	00H
	DB	00H
	DB	00H
	DB	00H
	DB	00H
	DB	00H
	DB	00H
	DB	00H
	DB	00H
	DB	00H
	DB	00H
	DB	00H
	DB	00H
	DB	00H
	DB	00H
	DB	00H
	DB	00H
	DB	00H
	DB	00H
	DB	00H
	DB	00H
	DB	00H
	DB	00H
	DB	00H
	DB	00H
	DB	00H
	DB	00H
	DB	00H
	DB	00H
	DB	00H
	DB	00H
	DB	00H
	DB	00H
	DB	00H
	DB	00H
	DB	00H
	DB	00H
	DB	00H
	DB	00H
	DB	00H
	DB	00H
	DB	00H
	DB	00H
	DB	00H
	DB	00H
	DB	00H
	DB	017H
	DB	018H
	DB	015H
	DB	00H
	DB	00H
	DB	00H
	DB	00H
	DB	00H
	DB	00H
	DB	00H
	DB	00H
	DB	00H
	DB	00H
	DB	00H
	DB	00H
	DB	00H
	DB	00H
	DB	00H
	DB	00H
	DB	00H
	DB	00H
	DB	00H
	DB	00H
	DB	00H
	DB	00H
	DB	00H
	DB	00H
	DB	00H
	DB	00H
	DB	00H
	DB	00H
	DB	00H
	DB	00H
	DB	00H
	DB	00H
	DB	00H
	DB	00H
	DB	00H
	DB	00H
	DB	00H
	DB	00H
	DB	00H
	DB	00H
	DB	00H
	DB	00H
	DB	00H
	DB	00H
	DB	00H
	DB	00H
	DB	00H
	DB	00H
	DB	00H
	DB	00H
	DB	00H
	DB	00H
	DB	00H
	DB	00H
	DB	00H
	DB	00H
	DB	00H
	DB	00H
	DB	00H
	DB	00H
	DB	00H
	DB	00H
	DB	00H
	DB	00H
	DB	00H
	DB	00H
	DB	00H
	DB	00H
	DB	00H
	DB	00H
	DB	00H
	DB	00H
	DB	00H
	DB	00H
	DB	00H
	DB	00H
	DB	00H
	DB	00H
	DB	00H
	DB	00H
	DB	00H
	DB	00H
	DB	00H
	DB	00H
	DB	00H
	DB	00H
	DB	00H
	DB	00H
	DB	00H
	DB	00H
	DB	00H
	DB	00H
	DB	00H
	DB	00H
	DB	00H
	DB	00H
	DB	00H
	DB	00H
	DB	00H
	DB	00H
	DB	00H
	DB	00H
	DB	00H
	DB	00H
	DB	00H
	DB	00H
	DB	00H
	DB	00H
	DB	00H
	DB	00H
	DB	00H
	DB	00H
	DB	00H
	DB	00H
	DB	00H
	DB	00H
	DB	00H
	DB	00H
	DB	00H
	DB	00H
	DB	00H
	DB	00H
	DB	00H
	DB	00H
	DB	00H
	DB	00H
	DB	00H
	DB	00H
	DB	00H
	DB	00H
	DB	00H
	DB	00H
	DB	00H
	DB	00H
	DB	00H
	DB	00H
	DB	00H
	DB	00H
	DB	00H
	DB	00H
	DB	00H
	DB	00H
	DB	00H
	DB	00H
	DB	00H
	DB	00H
	DB	00H
	DB	00H
	DB	00H
	DB	00H
	DB	00H
	DB	00H
	DB	00H
	DB	00H
	DB	00H
	DB	00H
	DB	00H
	DB	00H
	DB	00H
	DB	00H
	DB	00H
	DB	00H
	DB	00H
	DB	00H
	DB	017H
	DB	018H
	DB	015H
	DB	00H
	DB	00H
	DB	00H
	DB	00H
	DB	00H
	DB	00H
	DB	00H
	DB	00H
	DB	00H
	DB	00H
	DB	00H
	DB	00H
	DB	00H
	DB	00H
	DB	00H
	DB	00H
	DB	00H
	DB	00H
	DB	00H
	DB	00H
	DB	00H
	DB	00H
	DB	00H
	DB	00H
	DB	00H
	DB	00H
	DB	00H
	DB	00H
	DB	00H
	DB	00H
	DB	00H
	DB	00H
	DB	00H
	DB	00H
	DB	00H
	DB	00H
	DB	00H
	DB	00H
	DB	00H
	DB	00H
	DB	00H
	DB	00H
	DB	00H
	DB	00H
	DB	00H
	DB	00H
	DB	00H
	DB	00H
	DB	00H
	DB	00H
	DB	00H
	DB	00H
	DB	00H
	DB	00H
	DB	00H
	DB	00H
	DB	00H
	DB	00H
	DB	00H
	DB	00H
	DB	00H
	DB	00H
	DB	00H
	DB	00H
	DB	00H
	DB	00H
	DB	00H
	DB	00H
	DB	00H
	DB	00H
	DB	00H
	DB	00H
	DB	00H
	DB	00H
	DB	00H
	DB	00H
	DB	00H
	DB	00H
	DB	00H
	DB	00H
	DB	00H
	DB	00H
	DB	00H
	DB	00H
	DB	00H
	DB	00H
	DB	00H
	DB	00H
	DB	00H
	DB	00H
	DB	00H
	DB	00H
	DB	00H
	DB	00H
	DB	00H
	DB	00H
	DB	00H
	DB	00H
	DB	00H
	DB	00H
	DB	00H
	DB	00H
	DB	00H
	DB	00H
	DB	00H
	DB	00H
	DB	00H
	DB	00H
	DB	00H
	DB	00H
	DB	00H
	DB	00H
	DB	00H
	DB	00H
	DB	00H
	DB	00H
	DB	00H
	DB	00H
	DB	00H
	DB	00H
	DB	00H
	DB	00H
	DB	00H
	DB	00H
	DB	00H
	DB	00H
	DB	00H
	DB	00H
	DB	00H
	DB	00H
	DB	00H
	DB	00H
	DB	00H
	DB	00H
	DB	00H
	DB	00H
	DB	00H
	DB	00H
	DB	00H
	DB	00H
	DB	00H
	DB	00H
	DB	00H
	DB	00H
	DB	00H
	DB	00H
	DB	00H
	DB	00H
	DB	00H
	DB	00H
	DB	00H
	DB	00H
	DB	00H
	DB	00H
	DB	00H
	DB	00H
	DB	00H
	DB	00H
	DB	00H
	DB	00H
	DB	00H
	DB	00H
	DB	00H
	DB	00H
	DB	017H
	DB	018H
	DB	015H
	DB	00H
	DB	00H
	DB	00H
	DB	00H
	DB	00H
	DB	00H
	DB	00H
	DB	00H
	DB	00H
	DB	00H
	DB	00H
	DB	00H
	DB	00H
	DB	00H
	DB	00H
	DB	00H
	DB	00H
	DB	00H
	DB	00H
	DB	00H
	DB	00H
	DB	00H
	DB	00H
	DB	00H
	DB	00H
	DB	00H
	DB	00H
	DB	00H
	DB	00H
	DB	00H
	DB	00H
	DB	00H
	DB	00H
	DB	00H
	DB	00H
	DB	00H
	DB	00H
	DB	00H
	DB	00H
	DB	00H
	DB	00H
	DB	00H
	DB	00H
	DB	00H
	DB	00H
	DB	00H
	DB	00H
	DB	00H
	DB	00H
	DB	00H
	DB	00H
	DB	00H
	DB	00H
	DB	00H
	DB	00H
	DB	00H
	DB	00H
	DB	00H
	DB	00H
	DB	00H
	DB	00H
	DB	00H
	DB	00H
	DB	00H
	DB	00H
	DB	00H
	DB	00H
	DB	00H
	DB	00H
	DB	00H
	DB	00H
	DB	00H
	DB	00H
	DB	00H
	DB	00H
	DB	00H
	DB	00H
	DB	00H
	DB	00H
	DB	00H
	DB	00H
	DB	00H
	DB	00H
	DB	00H
	DB	00H
	DB	00H
	DB	00H
	DB	00H
	DB	00H
	DB	00H
	DB	00H
	DB	00H
	DB	00H
	DB	00H
	DB	00H
	DB	00H
	DB	00H
	DB	00H
	DB	00H
	DB	00H
	DB	00H
	DB	00H
	DB	00H
	DB	00H
	DB	00H
	DB	00H
	DB	00H
	DB	00H
	DB	00H
	DB	00H
	DB	00H
	DB	00H
	DB	00H
	DB	00H
	DB	00H
	DB	00H
	DB	00H
	DB	00H
	DB	00H
	DB	00H
	DB	00H
	DB	00H
	DB	00H
	DB	00H
	DB	00H
	DB	00H
	DB	00H
	DB	00H
	DB	00H
	DB	00H
	DB	00H
	DB	00H
	DB	00H
	DB	00H
	DB	00H
	DB	00H
	DB	00H
	DB	00H
	DB	00H
	DB	00H
	DB	00H
	DB	00H
	DB	00H
	DB	00H
	DB	00H
	DB	00H
	DB	00H
	DB	00H
	DB	00H
	DB	00H
	DB	00H
	DB	00H
	DB	00H
	DB	00H
	DB	00H
	DB	00H
	DB	00H
	DB	00H
	DB	00H
	DB	00H
	DB	00H
	DB	00H
	DB	00H
	DB	00H
	DB	017H
	DB	018H
	DB	015H
	DB	00H
	DB	00H
	DB	00H
	DB	00H
	DB	00H
	DB	00H
	DB	00H
	DB	00H
	DB	00H
	DB	00H
	DB	00H
	DB	00H
	DB	00H
	DB	00H
	DB	00H
	DB	00H
	DB	00H
	DB	00H
	DB	00H
	DB	00H
	DB	00H
	DB	00H
	DB	00H
	DB	00H
	DB	00H
	DB	00H
	DB	00H
	DB	00H
	DB	00H
	DB	00H
	DB	00H
	DB	00H
	DB	00H
	DB	00H
	DB	00H
	DB	00H
	DB	00H
	DB	00H
	DB	00H
	DB	00H
	DB	00H
	DB	00H
	DB	00H
	DB	00H
	DB	00H
	DB	00H
	DB	00H
	DB	00H
	DB	00H
	DB	00H
	DB	00H
	DB	00H
	DB	00H
	DB	00H
	DB	00H
	DB	00H
	DB	00H
	DB	00H
	DB	00H
	DB	00H
	DB	00H
	DB	00H
	DB	00H
	DB	00H
	DB	00H
	DB	00H
	DB	00H
	DB	00H
	DB	00H
	DB	00H
	DB	00H
	DB	00H
	DB	00H
	DB	00H
	DB	00H
	DB	00H
	DB	00H
	DB	00H
	DB	00H
	DB	00H
	DB	00H
	DB	00H
	DB	00H
	DB	00H
	DB	00H
	DB	00H
	DB	00H
	DB	00H
	DB	00H
	DB	00H
	DB	00H
	DB	00H
	DB	00H
	DB	00H
	DB	00H
	DB	00H
	DB	00H
	DB	00H
	DB	00H
	DB	00H
	DB	00H
	DB	00H
	DB	00H
	DB	00H
	DB	00H
	DB	00H
	DB	00H
	DB	00H
	DB	00H
	DB	00H
	DB	00H
	DB	00H
	DB	00H
	DB	00H
	DB	00H
	DB	00H
	DB	00H
	DB	00H
	DB	00H
	DB	00H
	DB	00H
	DB	00H
	DB	00H
	DB	00H
	DB	00H
	DB	00H
	DB	00H
	DB	00H
	DB	00H
	DB	00H
	DB	00H
	DB	00H
	DB	00H
	DB	00H
	DB	00H
	DB	00H
	DB	00H
	DB	00H
	DB	00H
	DB	00H
	DB	00H
	DB	00H
	DB	00H
	DB	00H
	DB	00H
	DB	00H
	DB	00H
	DB	00H
	DB	00H
	DB	00H
	DB	00H
	DB	00H
	DB	00H
	DB	00H
	DB	00H
	DB	00H
	DB	00H
	DB	00H
	DB	00H
	DB	00H
	DB	00H
	DB	00H
	DB	00H
	DB	00H
	DB	017H
	DB	018H
	DB	015H
	DB	00H
	DB	00H
	DB	00H
	DB	00H
	DB	00H
	DB	00H
	DB	00H
	DB	00H
	DB	00H
	DB	00H
	DB	00H
	DB	00H
	DB	00H
	DB	00H
	DB	00H
	DB	00H
	DB	00H
	DB	00H
	DB	00H
	DB	00H
	DB	00H
	DB	00H
	DB	00H
	DB	00H
	DB	00H
	DB	00H
	DB	00H
	DB	00H
	DB	00H
	DB	00H
	DB	00H
	DB	00H
	DB	00H
	DB	00H
	DB	00H
	DB	00H
	DB	00H
	DB	00H
	DB	00H
	DB	00H
	DB	00H
	DB	00H
	DB	00H
	DB	00H
	DB	00H
	DB	00H
	DB	00H
	DB	00H
	DB	00H
	DB	00H
	DB	00H
	DB	00H
	DB	00H
	DB	00H
	DB	00H
	DB	00H
	DB	00H
	DB	00H
	DB	00H
	DB	00H
	DB	00H
	DB	00H
	DB	00H
	DB	00H
	DB	00H
	DB	00H
	DB	00H
	DB	00H
	DB	00H
	DB	00H
	DB	00H
	DB	00H
	DB	00H
	DB	00H
	DB	00H
	DB	00H
	DB	00H
	DB	00H
	DB	00H
	DB	00H
	DB	00H
	DB	00H
	DB	00H
	DB	00H
	DB	00H
	DB	00H
	DB	00H
	DB	00H
	DB	00H
	DB	00H
	DB	00H
	DB	00H
	DB	00H
	DB	00H
	DB	00H
	DB	00H
	DB	00H
	DB	00H
	DB	00H
	DB	00H
	DB	00H
	DB	00H
	DB	00H
	DB	00H
	DB	00H
	DB	00H
	DB	00H
	DB	00H
	DB	00H
	DB	00H
	DB	00H
	DB	00H
	DB	00H
	DB	00H
	DB	00H
	DB	00H
	DB	00H
	DB	00H
	DB	00H
	DB	00H
	DB	00H
	DB	00H
	DB	00H
	DB	00H
	DB	00H
	DB	00H
	DB	00H
	DB	00H
	DB	00H
	DB	00H
	DB	00H
	DB	00H
	DB	00H
	DB	00H
	DB	00H
	DB	00H
	DB	00H
	DB	00H
	DB	00H
	DB	00H
	DB	00H
	DB	00H
	DB	00H
	DB	00H
	DB	00H
	DB	00H
	DB	00H
	DB	00H
	DB	00H
	DB	00H
	DB	00H
	DB	00H
	DB	00H
	DB	00H
	DB	00H
	DB	00H
	DB	00H
	DB	00H
	DB	00H
	DB	00H
	DB	00H
	DB	00H
	DB	00H
	DB	00H
	DB	017H
	DB	018H
	DB	015H
	DB	00H
	DB	00H
	DB	00H
	DB	00H
	DB	00H
	DB	00H
	DB	00H
	DB	00H
	DB	00H
	DB	00H
	DB	00H
	DB	00H
	DB	00H
	DB	00H
	DB	00H
	DB	00H
	DB	00H
	DB	00H
	DB	00H
	DB	00H
	DB	00H
	DB	00H
	DB	00H
	DB	00H
	DB	00H
	DB	00H
	DB	00H
	DB	00H
	DB	00H
	DB	00H
	DB	00H
	DB	00H
	DB	00H
	DB	00H
	DB	00H
	DB	00H
	DB	00H
	DB	00H
	DB	00H
	DB	00H
	DB	00H
	DB	00H
	DB	00H
	DB	00H
	DB	00H
	DB	00H
	DB	00H
	DB	00H
	DB	00H
	DB	00H
	DB	00H
	DB	00H
	DB	00H
	DB	00H
	DB	00H
	DB	00H
	DB	00H
	DB	00H
	DB	00H
	DB	00H
	DB	00H
	DB	00H
	DB	00H
	DB	00H
	DB	00H
	DB	00H
	DB	00H
	DB	00H
	DB	00H
	DB	00H
	DB	00H
	DB	00H
	DB	00H
	DB	00H
	DB	00H
	DB	00H
	DB	00H
	DB	00H
	DB	00H
	DB	00H
	DB	00H
	DB	00H
	DB	00H
	DB	00H
	DB	00H
	DB	00H
	DB	00H
	DB	00H
	DB	00H
	DB	00H
	DB	00H
	DB	00H
	DB	00H
	DB	00H
	DB	00H
	DB	00H
	DB	00H
	DB	00H
	DB	00H
	DB	00H
	DB	00H
	DB	00H
	DB	00H
	DB	00H
	DB	00H
	DB	00H
	DB	00H
	DB	00H
	DB	00H
	DB	00H
	DB	00H
	DB	00H
	DB	00H
	DB	00H
	DB	00H
	DB	00H
	DB	00H
	DB	00H
	DB	00H
	DB	00H
	DB	00H
	DB	00H
	DB	00H
	DB	00H
	DB	00H
	DB	00H
	DB	00H
	DB	00H
	DB	00H
	DB	00H
	DB	00H
	DB	00H
	DB	00H
	DB	00H
	DB	00H
	DB	00H
	DB	00H
	DB	00H
	DB	00H
	DB	00H
	DB	00H
	DB	00H
	DB	00H
	DB	00H
	DB	00H
	DB	00H
	DB	00H
	DB	00H
	DB	00H
	DB	00H
	DB	00H
	DB	00H
	DB	00H
	DB	00H
	DB	00H
	DB	00H
	DB	00H
	DB	00H
	DB	00H
	DB	00H
	DB	00H
	DB	00H
	DB	00H
	DB	00H
	DB	017H
	DB	018H
	DB	015H
	DB	00H
	DB	00H
	DB	00H
	DB	00H
	DB	00H
	DB	00H
	DB	00H
	DB	00H
	DB	00H
	DB	00H
	DB	00H
	DB	00H
	DB	00H
	DB	00H
	DB	00H
	DB	00H
	DB	00H
	DB	00H
	DB	00H
	DB	00H
	DB	00H
	DB	00H
	DB	00H
	DB	00H
	DB	00H
	DB	00H
	DB	00H
	DB	00H
	DB	00H
	DB	00H
	DB	00H
	DB	00H
	DB	00H
	DB	00H
	DB	00H
	DB	00H
	DB	00H
	DB	00H
	DB	00H
	DB	00H
	DB	00H
	DB	00H
	DB	00H
	DB	00H
	DB	00H
	DB	00H
	DB	00H
	DB	00H
	DB	00H
	DB	00H
	DB	00H
	DB	00H
	DB	00H
	DB	00H
	DB	00H
	DB	00H
	DB	00H
	DB	00H
	DB	00H
	DB	00H
	DB	00H
	DB	00H
	DB	00H
	DB	00H
	DB	00H
	DB	00H
	DB	00H
	DB	00H
	DB	00H
	DB	00H
	DB	00H
	DB	00H
	DB	00H
	DB	00H
	DB	00H
	DB	00H
	DB	00H
	DB	00H
	DB	00H
	DB	00H
	DB	00H
	DB	00H
	DB	00H
	DB	00H
	DB	00H
	DB	00H
	DB	00H
	DB	00H
	DB	00H
	DB	00H
	DB	00H
	DB	00H
	DB	00H
	DB	00H
	DB	00H
	DB	00H
	DB	00H
	DB	00H
	DB	00H
	DB	00H
	DB	00H
	DB	00H
	DB	00H
	DB	00H
	DB	00H
	DB	00H
	DB	00H
	DB	00H
	DB	00H
	DB	00H
	DB	00H
	DB	00H
	DB	00H
	DB	00H
	DB	00H
	DB	00H
	DB	00H
	DB	00H
	DB	00H
	DB	00H
	DB	00H
	DB	00H
	DB	00H
	DB	00H
	DB	00H
	DB	00H
	DB	00H
	DB	00H
	DB	00H
	DB	00H
	DB	00H
	DB	00H
	DB	00H
	DB	00H
	DB	00H
	DB	00H
	DB	00H
	DB	00H
	DB	00H
	DB	00H
	DB	00H
	DB	00H
	DB	00H
	DB	00H
	DB	00H
	DB	00H
	DB	00H
	DB	00H
	DB	00H
	DB	00H
	DB	00H
	DB	00H
	DB	00H
	DB	00H
	DB	00H
	DB	00H
	DB	00H
	DB	00H
	DB	00H
	DB	00H
	DB	00H
	DB	00H
	DB	00H
	DB	00H
	DB	017H
	DB	018H
	DB	015H
	DB	00H
	DB	00H
	DB	00H
	DB	00H
	DB	00H
	DB	00H
	DB	00H
	DB	00H
	DB	00H
	DB	00H
	DB	00H
	DB	00H
	DB	00H
	DB	00H
	DB	00H
	DB	00H
	DB	00H
	DB	00H
	DB	00H
	DB	00H
	DB	00H
	DB	00H
	DB	00H
	DB	00H
	DB	00H
	DB	00H
	DB	00H
	DB	00H
	DB	00H
	DB	00H
	DB	00H
	DB	00H
	DB	00H
	DB	00H
	DB	00H
	DB	00H
	DB	00H
	DB	00H
	DB	00H
	DB	00H
	DB	00H
	DB	00H
	DB	00H
	DB	00H
	DB	00H
	DB	00H
	DB	00H
	DB	00H
	DB	00H
	DB	00H
	DB	00H
	DB	00H
	DB	00H
	DB	00H
	DB	00H
	DB	00H
	DB	00H
	DB	00H
	DB	00H
	DB	00H
	DB	00H
	DB	00H
	DB	00H
	DB	00H
	DB	00H
	DB	00H
	DB	00H
	DB	00H
	DB	00H
	DB	00H
	DB	00H
	DB	00H
	DB	00H
	DB	00H
	DB	00H
	DB	00H
	DB	00H
	DB	00H
	DB	00H
	DB	00H
	DB	00H
	DB	00H
	DB	00H
	DB	00H
	DB	00H
	DB	00H
	DB	00H
	DB	00H
	DB	00H
	DB	00H
	DB	00H
	DB	00H
	DB	00H
	DB	00H
	DB	00H
	DB	00H
	DB	00H
	DB	00H
	DB	00H
	DB	00H
	DB	00H
	DB	00H
	DB	00H
	DB	00H
	DB	00H
	DB	00H
	DB	00H
	DB	00H
	DB	00H
	DB	00H
	DB	00H
	DB	00H
	DB	00H
	DB	00H
	DB	00H
	DB	00H
	DB	00H
	DB	00H
	DB	00H
	DB	00H
	DB	00H
	DB	00H
	DB	00H
	DB	00H
	DB	00H
	DB	00H
	DB	00H
	DB	00H
	DB	00H
	DB	00H
	DB	00H
	DB	00H
	DB	00H
	DB	00H
	DB	00H
	DB	00H
	DB	00H
	DB	00H
	DB	00H
	DB	00H
	DB	00H
	DB	00H
	DB	00H
	DB	00H
	DB	00H
	DB	00H
	DB	00H
	DB	00H
	DB	00H
	DB	00H
	DB	00H
	DB	00H
	DB	00H
	DB	00H
	DB	00H
	DB	00H
	DB	00H
	DB	00H
	DB	00H
	DB	00H
	DB	00H
	DB	00H
	DB	00H
	DB	00H
	DB	017H
	DB	05fH
	DB	015H
	DB	00H
	DB	00H
	DB	00H
	DB	00H
	DB	00H
	DB	00H
	DB	00H
	DB	00H
	DB	00H
	DB	00H
	DB	00H
	DB	00H
	DB	00H
	DB	00H
	DB	00H
	DB	00H
	DB	00H
	DB	00H
	DB	00H
	DB	00H
	DB	00H
	DB	00H
	DB	00H
	DB	00H
	DB	00H
	DB	00H
	DB	00H
	DB	00H
	DB	00H
	DB	00H
	DB	00H
	DB	00H
	DB	00H
	DB	00H
	DB	00H
	DB	00H
	DB	00H
	DB	00H
	DB	00H
	DB	00H
	DB	00H
	DB	00H
	DB	00H
	DB	00H
	DB	00H
	DB	00H
	DB	00H
	DB	00H
	DB	00H
	DB	00H
	DB	00H
	DB	00H
	DB	00H
	DB	00H
	DB	00H
	DB	00H
	DB	00H
	DB	00H
	DB	00H
	DB	00H
	DB	00H
	DB	00H
	DB	00H
	DB	00H
	DB	00H
	DB	00H
	DB	00H
	DB	00H
	DB	00H
	DB	00H
	DB	00H
	DB	00H
	DB	00H
	DB	00H
	DB	00H
	DB	00H
	DB	00H
	DB	00H
	DB	00H
	DB	00H
	DB	00H
	DB	00H
	DB	00H
	DB	00H
	DB	00H
	DB	00H
	DB	00H
	DB	00H
	DB	00H
	DB	00H
	DB	00H
	DB	00H
	DB	00H
	DB	00H
	DB	00H
	DB	00H
	DB	00H
	DB	00H
	DB	00H
	DB	00H
	DB	00H
	DB	00H
	DB	00H
	DB	00H
	DB	00H
	DB	00H
	DB	00H
	DB	00H
	DB	00H
	DB	00H
	DB	00H
	DB	00H
	DB	00H
	DB	00H
	DB	00H
	DB	00H
	DB	00H
	DB	00H
	DB	00H
	DB	00H
	DB	00H
	DB	00H
	DB	00H
	DB	00H
	DB	00H
	DB	00H
	DB	00H
	DB	00H
	DB	00H
	DB	00H
	DB	00H
	DB	00H
	DB	00H
	DB	00H
	DB	00H
	DB	00H
	DB	00H
	DB	00H
	DB	00H
	DB	00H
	DB	00H
	DB	00H
	DB	00H
	DB	00H
	DB	00H
	DB	00H
	DB	00H
	DB	00H
	DB	00H
	DB	00H
	DB	00H
	DB	00H
	DB	00H
	DB	00H
	DB	00H
	DB	00H
	DB	00H
	DB	00H
	DB	00H
	DB	00H
	DB	00H
	DB	00H
	DB	00H
	DB	00H
	DB	017H
	DB	018H
	DB	015H
	DB	00H
	DB	00H
	DB	00H
	DB	00H
	DB	00H
	DB	00H
	DB	00H
	DB	00H
	DB	00H
	DB	00H
	DB	00H
	DB	00H
	DB	00H
	DB	00H
	DB	00H
	DB	00H
	DB	00H
	DB	00H
	DB	00H
	DB	00H
	DB	00H
	DB	00H
	DB	00H
	DB	00H
	DB	00H
	DB	00H
	DB	00H
	DB	00H
	DB	00H
	DB	00H
	DB	00H
	DB	00H
	DB	00H
	DB	00H
	DB	00H
	DB	00H
	DB	00H
	DB	00H
	DB	00H
	DB	00H
	DB	00H
	DB	00H
	DB	00H
	DB	00H
	DB	00H
	DB	00H
	DB	00H
	DB	00H
	DB	00H
	DB	00H
	DB	00H
	DB	00H
	DB	00H
	DB	00H
	DB	00H
	DB	00H
	DB	00H
	DB	00H
	DB	00H
	DB	00H
	DB	00H
	DB	00H
	DB	00H
	DB	00H
	DB	00H
	DB	00H
	DB	00H
	DB	00H
	DB	00H
	DB	00H
	DB	00H
	DB	00H
	DB	00H
	DB	00H
	DB	00H
	DB	00H
	DB	00H
	DB	00H
	DB	00H
	DB	00H
	DB	00H
	DB	00H
	DB	00H
	DB	00H
	DB	00H
	DB	00H
	DB	00H
	DB	00H
	DB	00H
	DB	00H
	DB	00H
	DB	00H
	DB	00H
	DB	00H
	DB	00H
	DB	00H
	DB	00H
	DB	00H
	DB	00H
	DB	00H
	DB	00H
	DB	00H
	DB	00H
	DB	00H
	DB	00H
	DB	00H
	DB	00H
	DB	00H
	DB	00H
	DB	00H
	DB	00H
	DB	00H
	DB	00H
	DB	00H
	DB	00H
	DB	00H
	DB	00H
	DB	00H
	DB	00H
	DB	00H
	DB	00H
	DB	00H
	DB	00H
	DB	00H
	DB	00H
	DB	00H
	DB	00H
	DB	00H
	DB	00H
	DB	00H
	DB	00H
	DB	00H
	DB	00H
	DB	00H
	DB	00H
	DB	00H
	DB	00H
	DB	00H
	DB	00H
	DB	00H
	DB	00H
	DB	00H
	DB	00H
	DB	00H
	DB	00H
	DB	00H
	DB	00H
	DB	00H
	DB	00H
	DB	00H
	DB	00H
	DB	00H
	DB	00H
	DB	00H
	DB	00H
	DB	00H
	DB	00H
	DB	00H
	DB	00H
	DB	00H
	DB	00H
	DB	00H
	DB	00H
	DB	00H
	DB	01eH
	DB	03eH
	DB	015H
	DB	00H
	DB	00H
	DB	00H
	DB	00H
	DB	00H
	DB	00H
	DB	00H
	DB	00H
	DB	00H
	DB	00H
	DB	00H
	DB	00H
	DB	00H
	DB	00H
	DB	00H
	DB	00H
	DB	00H
	DB	00H
	DB	00H
	DB	00H
	DB	00H
	DB	00H
	DB	00H
	DB	00H
	DB	00H
	DB	00H
	DB	00H
	DB	00H
	DB	00H
	DB	00H
	DB	00H
	DB	00H
	DB	00H
	DB	00H
	DB	00H
	DB	00H
	DB	00H
	DB	00H
	DB	00H
	DB	00H
	DB	00H
	DB	00H
	DB	00H
	DB	00H
	DB	00H
	DB	00H
	DB	00H
	DB	00H
	DB	00H
	DB	00H
	DB	00H
	DB	00H
	DB	00H
	DB	00H
	DB	00H
	DB	00H
	DB	00H
	DB	00H
	DB	00H
	DB	00H
	DB	00H
	DB	00H
	DB	00H
	DB	00H
	DB	00H
	DB	00H
	DB	00H
	DB	00H
	DB	00H
	DB	00H
	DB	00H
	DB	00H
	DB	00H
	DB	00H
	DB	00H
	DB	00H
	DB	00H
	DB	00H
	DB	00H
	DB	00H
	DB	00H
	DB	00H
	DB	00H
	DB	00H
	DB	00H
	DB	00H
	DB	00H
	DB	00H
	DB	00H
	DB	00H
	DB	00H
	DB	00H
	DB	00H
	DB	00H
	DB	00H
	DB	00H
	DB	00H
	DB	00H
	DB	00H
	DB	00H
	DB	00H
	DB	00H
	DB	00H
	DB	00H
	DB	00H
	DB	00H
	DB	00H
	DB	00H
	DB	00H
	DB	00H
	DB	00H
	DB	00H
	DB	00H
	DB	00H
	DB	00H
	DB	00H
	DB	00H
	DB	00H
	DB	00H
	DB	00H
	DB	00H
	DB	00H
	DB	00H
	DB	00H
	DB	00H
	DB	00H
	DB	00H
	DB	00H
	DB	00H
	DB	00H
	DB	00H
	DB	00H
	DB	00H
	DB	00H
	DB	00H
	DB	00H
	DB	00H
	DB	00H
	DB	00H
	DB	00H
	DB	00H
	DB	00H
	DB	00H
	DB	00H
	DB	00H
	DB	00H
	DB	00H
	DB	00H
	DB	00H
	DB	00H
	DB	00H
	DB	00H
	DB	00H
	DB	00H
	DB	00H
	DB	00H
	DB	00H
	DB	00H
	DB	00H
	DB	00H
	DB	00H
	DB	00H
	DB	00H
	DB	00H
	DB	04dH
	DB	02bH
	DB	074H
	DB	00H
	DB	00H
	DB	00H
	DB	00H
	DB	00H
	DB	00H
	DB	00H
	DB	00H
	DB	00H
	DB	00H
	DB	00H
	DB	00H
	DB	00H
	DB	00H
	DB	00H
	DB	00H
	DB	00H
	DB	00H
	DB	00H
	DB	00H
	DB	00H
	DB	00H
	DB	00H
	DB	00H
	DB	00H
	DB	00H
	DB	00H
	DB	00H
	DB	00H
	DB	00H
	DB	00H
	DB	00H
	DB	00H
	DB	00H
	DB	00H
	DB	00H
	DB	00H
	DB	00H
	DB	00H
	DB	00H
	DB	00H
	DB	00H
	DB	00H
	DB	00H
	DB	00H
	DB	00H
	DB	00H
	DB	00H
	DB	00H
	DB	00H
	DB	00H
	DB	00H
	DB	00H
	DB	00H
	DB	00H
	DB	00H
	DB	00H
	DB	00H
	DB	00H
	DB	00H
	DB	00H
	DB	00H
	DB	00H
	DB	00H
	DB	00H
	DB	00H
	DB	00H
	DB	00H
	DB	00H
	DB	00H
	DB	00H
	DB	00H
	DB	00H
	DB	00H
	DB	00H
	DB	00H
	DB	00H
	DB	00H
	DB	00H
	DB	00H
	DB	00H
	DB	00H
	DB	00H
	DB	00H
	DB	00H
	DB	00H
	DB	00H
	DB	00H
	DB	00H
	DB	00H
	DB	00H
	DB	00H
	DB	00H
	DB	00H
	DB	00H
	DB	00H
	DB	00H
	DB	00H
	DB	00H
	DB	00H
	DB	00H
	DB	00H
	DB	00H
	DB	00H
	DB	00H
	DB	00H
	DB	00H
	DB	00H
	DB	00H
	DB	00H
	DB	00H
	DB	00H
	DB	00H
	DB	00H
	DB	00H
	DB	00H
	DB	00H
	DB	00H
	DB	00H
	DB	00H
	DB	00H
	DB	00H
	DB	00H
	DB	00H
	DB	00H
	DB	00H
	DB	00H
	DB	00H
	DB	00H
	DB	00H
	DB	00H
	DB	00H
	DB	00H
	DB	00H
	DB	00H
	DB	00H
	DB	00H
	DB	00H
	DB	00H
	DB	00H
	DB	00H
	DB	00H
	DB	00H
	DB	00H
	DB	00H
	DB	00H
	DB	00H
	DB	00H
	DB	00H
	DB	00H
	DB	00H
	DB	00H
	DB	00H
	DB	00H
	DB	00H
	DB	00H
	DB	00H
	DB	00H
	DB	00H
	DB	00H
	DB	00H
	DB	00H
	DB	00H
	DB	00H
	DB	033H
	DB	01fH
	DB	035H
	DB	00H
	DB	077H
	DB	0fH
	DB	0fH
	DB	0fH
	DB	0fH
	DB	0fH
	DB	0fH
	DB	0fH
	DB	0fH
	DB	0fH
	DB	0fH
	DB	0fH
	DB	0fH
	DB	0fH
	DB	0fH
	DB	0fH
	DB	0fH
	DB	0fH
	DB	0fH
	DB	0fH
	DB	0fH
	DB	0fH
	DB	0fH
	DB	0fH
	DB	0fH
	DB	0fH
	DB	0fH
	DB	0fH
	DB	0fH
	DB	0fH
	DB	0fH
	DB	0fH
	DB	0fH
	DB	0fH
	DB	0fH
	DB	0fH
	DB	0fH
	DB	0fH
	DB	0fH
	DB	0fH
	DB	0fH
	DB	0fH
	DB	0fH
	DB	0fH
	DB	0fH
	DB	0fH
	DB	0fH
	DB	0fH
	DB	0fH
	DB	0fH
	DB	0fH
	DB	0fH
	DB	0fH
	DB	0fH
	DB	0fH
	DB	0fH
	DB	0fH
	DB	0fH
	DB	0fH
	DB	0fH
	DB	0fH
	DB	0fH
	DB	0fH
	DB	0fH
	DB	0fH
	DB	0fH
	DB	0fH
	DB	0fH
	DB	0fH
	DB	0fH
	DB	0fH
	DB	0fH
	DB	0fH
	DB	0fH
	DB	0fH
	DB	0fH
	DB	0fH
	DB	0fH
	DB	0fH
	DB	0fH
	DB	0fH
	DB	0fH
	DB	0fH
	DB	0fH
	DB	0fH
	DB	0fH
	DB	0fH
	DB	0fH
	DB	0fH
	DB	0fH
	DB	0fH
	DB	0fH
	DB	0fH
	DB	0fH
	DB	0fH
	DB	0fH
	DB	0fH
	DB	0fH
	DB	0fH
	DB	0fH
	DB	0fH
	DB	0fH
	DB	0fH
	DB	0fH
	DB	0fH
	DB	0fH
	DB	0fH
	DB	0fH
	DB	0fH
	DB	0fH
	DB	0fH
	DB	0fH
	DB	0fH
	DB	0fH
	DB	0fH
	DB	0fH
	DB	0fH
	DB	0fH
	DB	0fH
	DB	0fH
	DB	0fH
	DB	0fH
	DB	0fH
	DB	0fH
	DB	0fH
	DB	0fH
	DB	0fH
	DB	0fH
	DB	0fH
	DB	0fH
	DB	0fH
	DB	0fH
	DB	0fH
	DB	0fH
	DB	0fH
	DB	0fH
	DB	0fH
	DB	0fH
	DB	0fH
	DB	0fH
	DB	0fH
	DB	0fH
	DB	0fH
	DB	0fH
	DB	0fH
	DB	0fH
	DB	0fH
	DB	0fH
	DB	0fH
	DB	0fH
	DB	0fH
	DB	0fH
	DB	0fH
	DB	0fH
	DB	0fH
	DB	0fH
	DB	0fH
	DB	0fH
	DB	0fH
	DB	0fH
	DB	0fH
	DB	015H
	DB	066H
	DB	024H
	DB	016H
	DB	023H
	DB	03bH
	DB	070H
	DB	06eH
	DB	06bH
	DB	013H
	DB	013H
	DB	013H
	DB	013H
	DB	013H
	DB	013H
	DB	013H
	DB	013H
	DB	013H
	DB	013H
	DB	013H
	DB	013H
	DB	013H
	DB	013H
	DB	013H
	DB	013H
	DB	013H
	DB	013H
	DB	013H
	DB	013H
	DB	013H
	DB	013H
	DB	013H
	DB	013H
	DB	013H
	DB	013H
	DB	013H
	DB	013H
	DB	013H
	DB	013H
	DB	013H
	DB	013H
	DB	013H
	DB	013H
	DB	013H
	DB	013H
	DB	013H
	DB	013H
	DB	013H
	DB	013H
	DB	013H
	DB	013H
	DB	013H
	DB	013H
	DB	013H
	DB	013H
	DB	013H
	DB	013H
	DB	013H
	DB	013H
	DB	013H
	DB	013H
	DB	013H
	DB	013H
	DB	013H
	DB	013H
	DB	013H
	DB	013H
	DB	013H
	DB	013H
	DB	013H
	DB	013H
	DB	013H
	DB	013H
	DB	013H
	DB	013H
	DB	013H
	DB	013H
	DB	013H
	DB	013H
	DB	013H
	DB	013H
	DB	013H
	DB	013H
	DB	013H
	DB	013H
	DB	013H
	DB	013H
	DB	013H
	DB	013H
	DB	013H
	DB	013H
	DB	013H
	DB	013H
	DB	013H
	DB	013H
	DB	013H
	DB	013H
	DB	013H
	DB	013H
	DB	013H
	DB	013H
	DB	013H
	DB	013H
	DB	013H
	DB	013H
	DB	013H
	DB	013H
	DB	013H
	DB	013H
	DB	013H
	DB	013H
	DB	013H
	DB	013H
	DB	013H
	DB	013H
	DB	013H
	DB	013H
	DB	013H
	DB	013H
	DB	013H
	DB	013H
	DB	013H
	DB	013H
	DB	013H
	DB	013H
	DB	013H
	DB	013H
	DB	013H
	DB	013H
	DB	013H
	DB	013H
	DB	013H
	DB	013H
	DB	013H
	DB	013H
	DB	013H
	DB	013H
	DB	013H
	DB	013H
	DB	013H
	DB	013H
	DB	013H
	DB	013H
	DB	013H
	DB	013H
	DB	013H
	DB	013H
	DB	013H
	DB	013H
	DB	013H
	DB	013H
	DB	013H
	DB	013H
	DB	013H
	DB	013H
	DB	013H
	DB	013H
	DB	013H
	DB	013H
	DB	013H
	DB	013H
	DB	013H
	DB	013H
	DB	013H
	DB	06aH
	DB	06dH
	DB	073H
	DB	063H
	DB	02aH
	DB	016H
	DB	016H
	DB	016H
	DB	020H
	DB	02eH
	DB	03fH
	DB	04eH
	DB	011H
	DB	011H
	DB	011H
	DB	011H
	DB	011H
	DB	011H
	DB	011H
	DB	011H
	DB	011H
	DB	011H
	DB	011H
	DB	011H
	DB	011H
	DB	011H
	DB	011H
	DB	011H
	DB	011H
	DB	011H
	DB	011H
	DB	011H
	DB	011H
	DB	011H
	DB	011H
	DB	011H
	DB	011H
	DB	011H
	DB	011H
	DB	011H
	DB	011H
	DB	011H
	DB	011H
	DB	011H
	DB	011H
	DB	011H
	DB	011H
	DB	011H
	DB	011H
	DB	011H
	DB	011H
	DB	011H
	DB	011H
	DB	011H
	DB	011H
	DB	011H
	DB	011H
	DB	011H
	DB	011H
	DB	011H
	DB	011H
	DB	011H
	DB	011H
	DB	011H
	DB	011H
	DB	011H
	DB	011H
	DB	011H
	DB	011H
	DB	011H
	DB	011H
	DB	011H
	DB	011H
	DB	011H
	DB	011H
	DB	011H
	DB	011H
	DB	011H
	DB	011H
	DB	011H
	DB	011H
	DB	011H
	DB	011H
	DB	011H
	DB	011H
	DB	011H
	DB	011H
	DB	011H
	DB	011H
	DB	011H
	DB	011H
	DB	011H
	DB	011H
	DB	011H
	DB	011H
	DB	011H
	DB	011H
	DB	011H
	DB	011H
	DB	011H
	DB	011H
	DB	011H
	DB	011H
	DB	011H
	DB	011H
	DB	011H
	DB	011H
	DB	011H
	DB	011H
	DB	011H
	DB	011H
	DB	011H
	DB	011H
	DB	011H
	DB	011H
	DB	011H
	DB	011H
	DB	011H
	DB	011H
	DB	011H
	DB	011H
	DB	011H
	DB	011H
	DB	011H
	DB	011H
	DB	011H
	DB	011H
	DB	011H
	DB	011H
	DB	011H
	DB	011H
	DB	011H
	DB	011H
	DB	011H
	DB	011H
	DB	011H
	DB	011H
	DB	011H
	DB	011H
	DB	011H
	DB	011H
	DB	011H
	DB	011H
	DB	011H
	DB	011H
	DB	011H
	DB	011H
	DB	011H
	DB	011H
	DB	011H
	DB	011H
	DB	011H
	DB	011H
	DB	011H
	DB	011H
	DB	011H
	DB	011H
	DB	011H
	DB	011H
	DB	011H
	DB	011H
	DB	011H
	DB	011H
	DB	011H
	DB	011H
	DB	011H
	DB	011H
	DB	058H
	DB	047H
	DB	036H
	DB	026H
	DB	016H
	DB	016H
_bmStdGreenButton DW 0a7H
	DW	028H
	DW	0a7H
	DW	08H
	DD	FLAT:_acStdGreenButton
	DD	FLAT:_PalStdGreenButton
	ORG $+4
CONST	ENDS
END
