; Listing generated by Microsoft (R) Optimizing Compiler Version 16.00.40219.01 

	TITLE	C:\DUII\DUII\Graphics\threewayarrow.c
	.686P
	.XMM
	include listing.inc
	.model	flat

INCLUDELIB LIBCMT
INCLUDELIB OLDNAMES

PUBLIC	_bmthreewayarrow
EXTRN	_GUI_BitmapMethods8888:BYTE
CONST	SEGMENT
_acthreewayarrow DD 0ff000000H
	DD	0ff000000H
	DD	0ff000000H
	DD	0ff000000H
	DD	0ff000000H
	DD	00H
	DD	00H
	DD	00H
	DD	00H
	DD	00H
	DD	00H
	DD	0ff000000H
	DD	0ff000000H
	DD	0ff000000H
	DD	0ff000000H
	DD	0ff000000H
	DD	0ff000000H
	DD	0ff000000H
	DD	0ff000000H
	DD	0ff000000H
	DD	0ff000000H
	DD	0ff000000H
	DD	0ff000000H
	DD	0ff000000H
	DD	0ff000000H
	DD	0ff000000H
	DD	0ff000000H
	DD	0ff000000H
	DD	0ff000000H
	DD	0ff000000H
	DD	0ff000000H
	DD	0ff000000H
	DD	00H
	DD	00H
	DD	00H
	DD	00H
	DD	00H
	DD	00H
	DD	00H
	DD	00H
	DD	00H
	DD	00H
	DD	00H
	DD	00H
	DD	00H
	DD	0ff000000H
	DD	0ff000000H
	DD	0ff000000H
	DD	0ff000000H
	DD	0ff000000H
	DD	0ff000000H
	DD	0ff000000H
	DD	0ff000000H
	DD	0ff000000H
	DD	0ff000000H
	DD	0ff000000H
	DD	0ff000000H
	DD	0ff000000H
	DD	0ff000000H
	DD	0ff000000H
	DD	00H
	DD	00H
	DD	00H
	DD	00H
	DD	00H
	DD	00H
	DD	00H
	DD	00H
	DD	02d2dH
	DD	02d2dH
	DD	00H
	DD	00H
	DD	00H
	DD	00H
	DD	00H
	DD	00H
	DD	00H
	DD	0ff000000H
	DD	0ff000000H
	DD	0ff000000H
	DD	0ff000000H
	DD	0ff000000H
	DD	0ff000000H
	DD	0ff000000H
	DD	0ff000000H
	DD	0ff000000H
	DD	0ff000000H
	DD	0ff000000H
	DD	0ff000000H
	DD	0ff000000H
	DD	00H
	DD	00H
	DD	00H
	DD	00H
	DD	00H
	DD	00H
	DD	00H
	DD	00H
	DD	0c1c1H
	DD	0ffffH
	DD	02d2dH
	DD	00H
	DD	00H
	DD	00H
	DD	00H
	DD	00H
	DD	00H
	DD	00H
	DD	00H
	DD	0ff000000H
	DD	0ff000000H
	DD	0ff000000H
	DD	0ff000000H
	DD	0ff000000H
	DD	0ff000000H
	DD	0ff000000H
	DD	0ff000000H
	DD	0ff000000H
	DD	0ff000000H
	DD	0ff000000H
	DD	00H
	DD	00H
	DD	00H
	DD	00H
	DD	00H
	DD	00H
	DD	00H
	DD	05b5bH
	DD	0ffffH
	DD	0ffffH
	DD	09393H
	DD	00H
	DD	00H
	DD	00H
	DD	00H
	DD	00H
	DD	00H
	DD	00H
	DD	00H
	DD	00H
	DD	00H
	DD	0ff000000H
	DD	0ff000000H
	DD	0ff000000H
	DD	0ff000000H
	DD	0ff000000H
	DD	0ff000000H
	DD	0ff000000H
	DD	0ff000000H
	DD	0ff000000H
	DD	00H
	DD	00H
	DD	00H
	DD	00H
	DD	00H
	DD	00H
	DD	01615H
	DD	0d5d5H
	DD	0ffffH
	DD	0ffffH
	DD	0ffffH
	DD	02d2dH
	DD	050712H
	DD	00H
	DD	00H
	DD	00H
	DD	00H
	DD	00H
	DD	00H
	DD	00H
	DD	00H
	DD	00H
	DD	0ff000000H
	DD	0ff000000H
	DD	0ff000000H
	DD	0ff000000H
	DD	0ff000000H
	DD	0ff000000H
	DD	0ff000000H
	DD	0ff000000H
	DD	00H
	DD	00H
	DD	00H
	DD	00H
	DD	00H
	DD	00H
	DD	09393H
	DD	0ffffH
	DD	0ffffH
	DD	0ffffH
	DD	0ffffH
	DD	0d5d5H
	DD	00H
	DD	00H
	DD	00H
	DD	00H
	DD	00H
	DD	00H
	DD	00H
	DD	00H
	DD	00H
	DD	00H
	DD	00H
	DD	0ff000000H
	DD	0ff000000H
	DD	0ff000000H
	DD	0ff000000H
	DD	0ff000000H
	DD	0ff000000H
	DD	0ff000000H
	DD	00H
	DD	00H
	DD	00H
	DD	00H
	DD	00H
	DD	02d2dH
	DD	0e2e2H
	DD	0ffffH
	DD	0ffffH
	DD	0ffffH
	DD	0ffffH
	DD	0ffffH
	DD	05b5bH
	DD	00H
	DD	00H
	DD	00H
	DD	00H
	DD	00H
	DD	00H
	DD	00H
	DD	00H
	DD	00H
	DD	00H
	DD	0212022H
	DD	0ff000000H
	DD	0ff000000H
	DD	0ff000000H
	DD	0ff000000H
	DD	0ff000000H
	DD	0ff000000H
	DD	00H
	DD	00H
	DD	00H
	DD	00H
	DD	00H
	DD	09393H
	DD	0ffffH
	DD	0ffffH
	DD	0ffffH
	DD	0ffffH
	DD	0ffffH
	DD	0ffffH
	DD	0d5d5H
	DD	01615H
	DD	00H
	DD	00H
	DD	00H
	DD	00H
	DD	00H
	DD	00H
	DD	00H
	DD	0151513H
	DD	064668bH
	DD	08a8dccH
	DD	064668bH
	DD	0ff000000H
	DD	0ff000000H
	DD	0ff000000H
	DD	0ff000000H
	DD	0ff000000H
	DD	00H
	DD	00H
	DD	00H
	DD	00H
	DD	02d2dH
	DD	0ffffH
	DD	0ffffH
	DD	0ffffH
	DD	0ffffH
	DD	0ffffH
	DD	0ffffH
	DD	0ffffH
	DD	0ffffH
	DD	09393H
	DD	00H
	DD	00H
	DD	00H
	DD	00H
	DD	00H
	DD	050712H
	DD	04c4c5aH
	DD	08a8dccH
	DD	08589e8H
	DD	0444adaH
	DD	03039d8H
	DD	0161b67H
	DD	0ff000000H
	DD	0ff000000H
	DD	0ff000000H
	DD	0ff000000H
	DD	00H
	DD	00H
	DD	00H
	DD	050712H
	DD	0d5d5H
	DD	0ffffH
	DD	0ffffH
	DD	0ffffH
	DD	0ffffH
	DD	0ffffH
	DD	0ffffH
	DD	0ffffH
	DD	0ffffH
	DD	0f2f2H
	DD	02d2dH
	DD	00H
	DD	00H
	DD	00H
	DD	04c4c5aH
	DD	07c7fafH
	DD	08589e8H
	DD	06165e0H
	DD	03037d0H
	DD	03037d0H
	DD	03037d0H
	DD	03037d0H
	DD	010144eH
	DD	0ff000000H
	DD	0ff000000H
	DD	0ff000000H
	DD	00H
	DD	00H
	DD	00H
	DD	01615H
	DD	09393H
	DD	0c1c1H
	DD	0c1c1H
	DD	0c1c1H
	DD	0c1c1H
	DD	0c1c1H
	DD	0c1c1H
	DD	0c1c1H
	DD	0c1c1H
	DD	09393H
	DD	01615H
	DD	00H
	DD	0303035H
	DD	07c7fafH
	DD	08a8dccH
	DD	06165e0H
	DD	0444adaH
	DD	03037d0H
	DD	03037d0H
	DD	03037d0H
	DD	03037d0H
	DD	03037d0H
	DD	02630afH
	DD	050712H
	DD	0ff000000H
	DD	0ff000000H
	DD	00H
	DD	00H
	DD	00H
	DD	00H
	DD	00H
	DD	00H
	DD	00H
	DD	00H
	DD	00H
	DD	00H
	DD	00H
	DD	00H
	DD	00H
	DD	00H
	DD	0212022H
	DD	064668bH
	DD	08a8dccH
	DD	06b74f3H
	DD	0444adaH
	DD	03037d0H
	DD	03037d0H
	DD	03037d0H
	DD	03037d0H
	DD	03037d0H
	DD	03037d0H
	DD	03037d0H
	DD	03039d8H
	DD	0161b67H
	DD	0ff000000H
	DD	0ff000000H
	DD	00H
	DD	00H
	DD	00H
	DD	00H
	DD	00H
	DD	00H
	DD	00H
	DD	00H
	DD	00H
	DD	00H
	DD	00H
	DD	00H
	DD	0151513H
	DD	064668bH
	DD	08a8dccH
	DD	0767ff4H
	DD	04853edH
	DD	0444adaH
	DD	03037d0H
	DD	03039d8H
	DD	03039d8H
	DD	03039d8H
	DD	02a34d7H
	DD	02a34d7H
	DD	03039d8H
	DD	03039d8H
	DD	03039d8H
	DD	02630afH
	DD	050712H
	DD	0ff000000H
	DD	00H
	DD	00H
	DD	00H
	DD	00H
	DD	00H
	DD	00H
	DD	00H
	DD	00H
	DD	00H
	DD	00H
	DD	00H
	DD	04c4c5aH
	DD	08a8dccH
	DD	08589e8H
	DD	04853edH
	DD	0444adaH
	DD	0444adaH
	DD	02a34d7H
	DD	03039d8H
	DD	03039d8H
	DD	03039d8H
	DD	02a34d7H
	DD	02e3be0H
	DD	0444adaH
	DD	03039d8H
	DD	03039d8H
	DD	02e3be0H
	DD	03039d8H
	DD	010144eH
	DD	0ff000000H
	DD	00H
	DD	00H
	DD	00H
	DD	00H
	DD	00H
	DD	00H
	DD	00H
	DD	00H
	DD	00H
	DD	0303035H
	DD	07c7fafH
	DD	08f97f5H
	DD	05863f1H
	DD	02e3be0H
	DD	06165e0H
	DD	0d7d9fbH
	DD	08589e8H
	DD	02430dbH
	DD	02e3be0H
	DD	02835e4H
	DD	02430dbH
	DD	04853edH
	DD	0bbbff8H
	DD	0b5b9f8H
	DD	02430dbH
	DD	02e3be0H
	DD	02e3be0H
	DD	02e3be0H
	DD	01d2691H
	DD	0ff000000H
	DD	00H
	DD	00H
	DD	00H
	DD	00H
	DD	00H
	DD	00H
	DD	00H
	DD	0303035H
	DD	064668bH
	DD	08f97f5H
	DD	06b74f3H
	DD	03945eaH
	DD	04853edH
	DD	0acb1f6H
	DD	0ffffffH
	DD	0ffffffH
	DD	08991f4H
	DD	0222fe1H
	DD	02430dbH
	DD	03945eaH
	DD	08f97f5H
	DD	0f2f3feH
	DD	0ffffffH
	DD	0b5b9f8H
	DD	0222fe1H
	DD	02e3be0H
	DD	02e3be0H
	DD	02f3de9H
	DD	02733c7H
	DD	050712H
	DD	00H
	DD	00H
	DD	00H
	DD	00H
	DD	00H
	DD	0151513H
	DD	064668bH
	DD	08e93e4H
	DD	0767ff4H
	DD	04853edH
	DD	03945eaH
	DD	08f97f5H
	DD	0eff0feH
	DD	0ffffffH
	DD	0ffffffH
	DD	0d7d9fbH
	DD	04853edH
	DD	02835e4H
	DD	0767ff4H
	DD	0d7d9fbH
	DD	0ffffffH
	DD	0ffffffH
	DD	0ffffffH
	DD	0b5b9f8H
	DD	02431e4H
	DD	02f3de9H
	DD	02f3de9H
	DD	02f3de9H
	DD	03037d0H
	DD	010144eH
	DD	00H
	DD	00H
	DD	00H
	DD	0151513H
	DD	04c4c5aH
	DD	08a8dccH
	DD	0828bf5H
	DD	04853edH
	DD	03945eaH
	DD	0767ff4H
	DD	0d7d9fbH
	DD	0ffffffH
	DD	0ffffffH
	DD	0e7e9fdH
	DD	0828bf5H
	DD	02835e4H
	DD	05863f1H
	DD	0c6cafaH
	DD	0ffffffH
	DD	0ffffffH
	DD	0ffffffH
	DD	0ffffffH
	DD	0ffffffH
	DD	0b5b9f8H
	DD	02432edH
	DD	02f3de9H
	DD	02f3de9H
	DD	02f3de9H
	DD	02e3be0H
	DD	0161b67H
	DD	00H
	DD	00H
	DD	04c4c5aH
	DD	07c7fafH
	DD	08991f4H
	DD	05863f1H
	DD	0303eeeH
	DD	05863f1H
	DD	0bbbff8H
	DD	0ffffffH
	DD	0ffffffH
	DD	0fafbffH
	DD	0a7adf8H
	DD	03945eaH
	DD	03945eaH
	DD	0a0a7f8H
	DD	0fafbffH
	DD	0fafbffH
	DD	0ffffffH
	DD	0ffffffH
	DD	0ffffffH
	DD	0ffffffH
	DD	0ffffffH
	DD	0b5b9f8H
	DD	02432edH
	DD	02f3de9H
	DD	0303eeeH
	DD	0303eeeH
	DD	02f3de9H
	DD	018207cH
	DD	0212022H
	DD	064668bH
	DD	08f97f5H
	DD	06b74f3H
	DD	03945eaH
	DD	04853edH
	DD	0a0a7f8H
	DD	0f2f3feH
	DD	0ffffffH
	DD	0ffffffH
	DD	0c6cafaH
	DD	05863f1H
	DD	02b3aeeH
	DD	0828bf5H
	DD	0e7e9fdH
	DD	0ffffffH
	DD	0ffffffH
	DD	0ffffffH
	DD	0ffffffH
	DD	0ffffffH
	DD	0ffffffH
	DD	0ffffffH
	DD	0ffffffH
	DD	0b5b9f8H
	DD	02432edH
	DD	0303eeeH
	DD	0303eeeH
	DD	0303eeeH
	DD	0303eeeH
	DD	018207cH
	DD	07c7fafH
	DD	0767ff4H
	DD	04853edH
	DD	04853edH
	DD	0828bf5H
	DD	0e7e9fdH
	DD	0ffffffH
	DD	0ffffffH
	DD	0d7d9fbH
	DD	0767ff4H
	DD	0303eeeH
	DD	06b74f3H
	DD	0d7d9fbH
	DD	0fafbffH
	DD	0ffffffH
	DD	0ffffffH
	DD	0ffffffH
	DD	0ffffffH
	DD	0ffffffH
	DD	0ffffffH
	DD	0ffffffH
	DD	0ffffffH
	DD	0ffffffH
	DD	0b5b9f8H
	DD	02432edH
	DD	0303eeeH
	DD	0303eeeH
	DD	0303eeeH
	DD	02f3de9H
	DD	01d2691H
	DD	02630afH
	DD	04853edH
	DD	02b3aeeH
	DD	05863f1H
	DD	0d7d9fbH
	DD	0ffffffH
	DD	0ffffffH
	DD	0ffffffH
	DD	0acb1f6H
	DD	02b3aeeH
	DD	0303eeeH
	DD	0bbbff8H
	DD	0ffffffH
	DD	0ffffffH
	DD	0ffffffH
	DD	0ffffffH
	DD	0ffffffH
	DD	0ffffffH
	DD	0ffffffH
	DD	0ffffffH
	DD	0ffffffH
	DD	0ffffffH
	DD	0ffffffH
	DD	0b5b9f8H
	DD	02432edH
	DD	0303eeeH
	DD	0303eeeH
	DD	0303eeeH
	DD	02f3de9H
	DD	01d2691H
	DD	090c2cH
	DD	018207cH
	DD	02a34d7H
	DD	02835e4H
	DD	03945eaH
	DD	08f97f5H
	DD	0eff0feH
	DD	0ffffffH
	DD	0ffffffH
	DD	0d7d9fbH
	DD	06b74f3H
	DD	02b3aeeH
	DD	0767ff4H
	DD	0d7d9fbH
	DD	0ffffffH
	DD	0ffffffH
	DD	0ffffffH
	DD	0ffffffH
	DD	0ffffffH
	DD	0ffffffH
	DD	0ffffffH
	DD	0ffffffH
	DD	0ffffffH
	DD	0b5b9f8H
	DD	02432edH
	DD	0303eeeH
	DD	0303eeeH
	DD	0303eeeH
	DD	02f3de9H
	DD	018207cH
	DD	00H
	DD	00H
	DD	010144eH
	DD	01d2691H
	DD	02a34d7H
	DD	02432edH
	DD	04853edH
	DD	0b5b9f8H
	DD	0ffffffH
	DD	0ffffffH
	DD	0ffffffH
	DD	0b5b9f8H
	DD	04853edH
	DD	0303eeeH
	DD	08f97f5H
	DD	0f2f3feH
	DD	0ffffffH
	DD	0ffffffH
	DD	0ffffffH
	DD	0ffffffH
	DD	0ffffffH
	DD	0ffffffH
	DD	0ffffffH
	DD	0b5b9f8H
	DD	02432edH
	DD	0303eeeH
	DD	0303eeeH
	DD	0303eeeH
	DD	02e3be0H
	DD	018207cH
	DD	00H
	DD	00H
	DD	00H
	DD	050712H
	DD	0161b67H
	DD	02630afH
	DD	02430dbH
	DD	02937ecH
	DD	06b74f3H
	DD	0d7d9fbH
	DD	0fafbffH
	DD	0ffffffH
	DD	0f2f3feH
	DD	08991f4H
	DD	02b3aeeH
	DD	04853edH
	DD	0b5b9f8H
	DD	0ffffffH
	DD	0ffffffH
	DD	0ffffffH
	DD	0ffffffH
	DD	0ffffffH
	DD	0ffffffH
	DD	0b5b9f8H
	DD	02432edH
	DD	0303eeeH
	DD	0303eeeH
	DD	0303eeeH
	DD	03039d8H
	DD	0161b67H
	DD	00H
	DD	00H
	DD	00H
	DD	00H
	DD	00H
	DD	050712H
	DD	018207cH
	DD	02630afH
	DD	02430dbH
	DD	0303eeeH
	DD	0828bf5H
	DD	0e7e9fdH
	DD	0ffffffH
	DD	0ffffffH
	DD	0d7d9fbH
	DD	06b74f3H
	DD	02937ecH
	DD	06b74f3H
	DD	0d7d9fbH
	DD	0ffffffH
	DD	0ffffffH
	DD	0ffffffH
	DD	0ffffffH
	DD	0b5b9f8H
	DD	02432edH
	DD	0303eeeH
	DD	0303eeeH
	DD	0303eeeH
	DD	02733c7H
	DD	010144eH
	DD	00H
	DD	00H
	DD	00H
	DD	00H
	DD	00H
	DD	00H
	DD	00H
	DD	090c2cH
	DD	01d2691H
	DD	02733c7H
	DD	0222fe1H
	DD	04853edH
	DD	0a0a7f8H
	DD	0fafbffH
	DD	0ffffffH
	DD	0ffffffH
	DD	06b74f3H
	DD	01c2becH
	DD	0303eeeH
	DD	08991f4H
	DD	0e7e9fdH
	DD	0ffffffH
	DD	0ffffffH
	DD	0b5b9f8H
	DD	02432edH
	DD	0303eeeH
	DD	0303eeeH
	DD	02f3de9H
	DD	02630afH
	DD	090c2cH
	DD	00H
	DD	00H
	DD	00H
	DD	00H
	DD	00H
	DD	00H
	DD	00H
	DD	00H
	DD	00H
	DD	010144eH
	DD	01d2691H
	DD	02733c7H
	DD	02835e4H
	DD	05863f1H
	DD	0c6cafaH
	DD	0ffffffH
	DD	08f97f5H
	DD	02432edH
	DD	0303eeeH
	DD	02432edH
	DD	04853edH
	DD	0acb1f6H
	DD	0ffffffH
	DD	0bbbff8H
	DD	02432edH
	DD	0303eeeH
	DD	0303eeeH
	DD	02e3be0H
	DD	01d2691H
	DD	050712H
	DD	00H
	DD	00H
	DD	00H
	DD	00H
	DD	00H
	DD	00H
	DD	00H
	DD	00H
	DD	00H
	DD	00H
	DD	050712H
	DD	010144eH
	DD	02630afH
	DD	02430dbH
	DD	02e3be0H
	DD	0828bf5H
	DD	0767ff4H
	DD	02432edH
	DD	0303eeeH
	DD	0303eeeH
	DD	02b3aeeH
	DD	02937ecH
	DD	06b74f3H
	DD	0828bf5H
	DD	02b3aeeH
	DD	0303eeeH
	DD	0303eeeH
	DD	03037d0H
	DD	0161b67H
	DD	0ff000000H
	DD	00H
	DD	00H
	DD	00H
	DD	00H
	DD	00H
	DD	00H
	DD	00H
	DD	00H
	DD	00H
	DD	00H
	DD	00H
	DD	00H
	DD	050712H
	DD	0161b67H
	DD	02630afH
	DD	02430dbH
	DD	02b3aeeH
	DD	0303eeeH
	DD	0303eeeH
	DD	0303eeeH
	DD	0303eeeH
	DD	0303eeeH
	DD	02937ecH
	DD	02b3aeeH
	DD	0303eeeH
	DD	0303eeeH
	DD	02f3de9H
	DD	02630afH
	DD	090c2cH
	DD	0ff000000H
	DD	00H
	DD	00H
	DD	00H
	DD	00H
	DD	00H
	DD	00H
	DD	00H
	DD	00H
	DD	00H
	DD	00H
	DD	00H
	DD	00H
	DD	00H
	DD	00H
	DD	090c2cH
	DD	018207cH
	DD	02733c7H
	DD	02e3be0H
	DD	0303eeeH
	DD	0303eeeH
	DD	0303eeeH
	DD	0303eeeH
	DD	0303eeeH
	DD	0303eeeH
	DD	0303eeeH
	DD	0303eeeH
	DD	03039d8H
	DD	018207cH
	DD	00H
	DD	0ff000000H
	DD	00H
	DD	00H
	DD	00H
	DD	00H
	DD	01615H
	DD	02d2dH
	DD	02d2dH
	DD	02d2dH
	DD	02d2dH
	DD	02d2dH
	DD	02d2dH
	DD	02d2dH
	DD	02d2dH
	DD	01615H
	DD	00H
	DD	00H
	DD	090c2cH
	DD	01d2691H
	DD	02733c7H
	DD	02e3be0H
	DD	02f3de9H
	DD	02f3de9H
	DD	02f3de9H
	DD	0303eeeH
	DD	02f3de9H
	DD	02e3be0H
	DD	02630afH
	DD	090c2cH
	DD	0ff000000H
	DD	0ff000000H
	DD	00H
	DD	00H
	DD	00H
	DD	01615H
	DD	0d5d5H
	DD	0ffffH
	DD	0ffffH
	DD	0ffffH
	DD	0ffffH
	DD	0ffffH
	DD	0ffffH
	DD	0ffffH
	DD	0ffffH
	DD	0f2f2H
	DD	02d2dH
	DD	00H
	DD	00H
	DD	00H
	DD	010144eH
	DD	01d2691H
	DD	02733c7H
	DD	03039d8H
	DD	02e3be0H
	DD	02e3be0H
	DD	02e3be0H
	DD	02630afH
	DD	0161b67H
	DD	00H
	DD	0ff000000H
	DD	0ff000000H
	DD	00H
	DD	00H
	DD	00H
	DD	00H
	DD	09393H
	DD	0ffffH
	DD	0ffffH
	DD	0ffffH
	DD	0ffffH
	DD	0ffffH
	DD	0ffffH
	DD	0ffffH
	DD	0ffffH
	DD	0d5d5H
	DD	01615H
	DD	00H
	DD	00H
	DD	00H
	DD	00H
	DD	050712H
	DD	010144eH
	DD	01d2691H
	DD	02733c7H
	DD	02733c7H
	DD	02733c7H
	DD	0161b67H
	DD	050712H
	DD	0ff000000H
	DD	0ff000000H
	DD	0ff000000H
	DD	00H
	DD	00H
	DD	00H
	DD	00H
	DD	01615H
	DD	0e2e2H
	DD	0ffffH
	DD	0ffffH
	DD	0ffffH
	DD	0ffffH
	DD	0ffffH
	DD	0ffffH
	DD	0ffffH
	DD	05b5bH
	DD	00H
	DD	00H
	DD	00H
	DD	00H
	DD	00H
	DD	00H
	DD	00H
	DD	050712H
	DD	0161b67H
	DD	01d2691H
	DD	0161b67H
	DD	050712H
	DD	0ff000000H
	DD	0ff000000H
	DD	0ff000000H
	DD	0ff000000H
	DD	00H
	DD	00H
	DD	00H
	DD	00H
	DD	00H
	DD	05b5bH
	DD	0ffffH
	DD	0ffffH
	DD	0ffffH
	DD	0ffffH
	DD	0ffffH
	DD	0f2f2H
	DD	0c1c1H
	DD	00H
	DD	00H
	DD	00H
	DD	00H
	DD	00H
	DD	00H
	DD	00H
	DD	00H
	DD	00H
	DD	00H
	DD	090c2cH
	DD	050712H
	DD	0ff000000H
	DD	0ff000000H
	DD	0ff000000H
	DD	0ff000000H
	DD	0ff000000H
	DD	00H
	DD	00H
	DD	00H
	DD	00H
	DD	00H
	DD	01615H
	DD	0d5d5H
	DD	0ffffH
	DD	0ffffH
	DD	0ffffH
	DD	0ffffH
	DD	0f2f2H
	DD	02d2dH
	DD	00H
	DD	00H
	DD	00H
	DD	00H
	DD	00H
	DD	00H
	DD	00H
	DD	00H
	DD	00H
	DD	00H
	DD	00H
	DD	0ff000000H
	DD	0ff000000H
	DD	0ff000000H
	DD	0ff000000H
	DD	0ff000000H
	DD	0ff000000H
	DD	00H
	DD	00H
	DD	00H
	DD	00H
	DD	00H
	DD	00H
	DD	02d2dH
	DD	0ffffH
	DD	0ffffH
	DD	0ffffH
	DD	0ffffH
	DD	09393H
	DD	00H
	DD	00H
	DD	00H
	DD	00H
	DD	00H
	DD	00H
	DD	00H
	DD	00H
	DD	00H
	DD	00H
	DD	00H
	DD	0ff000000H
	DD	0ff000000H
	DD	0ff000000H
	DD	0ff000000H
	DD	0ff000000H
	DD	0ff000000H
	DD	0ff000000H
	DD	00H
	DD	00H
	DD	00H
	DD	00H
	DD	00H
	DD	00H
	DD	00H
	DD	0c1c1H
	DD	0ffffH
	DD	0ffffH
	DD	0e2e2H
	DD	01615H
	DD	00H
	DD	00H
	DD	00H
	DD	00H
	DD	00H
	DD	00H
	DD	00H
	DD	00H
	DD	00H
	DD	00H
	DD	0ff000000H
	DD	0ff000000H
	DD	0ff000000H
	DD	0ff000000H
	DD	0ff000000H
	DD	0ff000000H
	DD	0ff000000H
	DD	0ff000000H
	DD	00H
	DD	00H
	DD	00H
	DD	00H
	DD	00H
	DD	00H
	DD	00H
	DD	02d2dH
	DD	0f2f2H
	DD	0ffffH
	DD	05b5bH
	DD	00H
	DD	00H
	DD	00H
	DD	00H
	DD	00H
	DD	00H
	DD	00H
	DD	00H
	DD	00H
	DD	0ff000000H
	DD	0ff000000H
	DD	0ff000000H
	DD	0ff000000H
	DD	0ff000000H
	DD	0ff000000H
	DD	0ff000000H
	DD	0ff000000H
	DD	0ff000000H
	DD	0ff000000H
	DD	00H
	DD	00H
	DD	00H
	DD	00H
	DD	00H
	DD	00H
	DD	00H
	DD	00H
	DD	09393H
	DD	0c1c1H
	DD	050712H
	DD	00H
	DD	00H
	DD	00H
	DD	00H
	DD	00H
	DD	00H
	DD	00H
	DD	00H
	DD	0ff000000H
	DD	0ff000000H
	DD	0ff000000H
	DD	0ff000000H
	DD	0ff000000H
	DD	0ff000000H
	DD	0ff000000H
	DD	0ff000000H
	DD	0ff000000H
	DD	0ff000000H
	DD	0ff000000H
	DD	00H
	DD	00H
	DD	00H
	DD	00H
	DD	00H
	DD	00H
	DD	00H
	DD	00H
	DD	00H
	DD	00H
	DD	00H
	DD	00H
	DD	00H
	DD	00H
	DD	00H
	DD	00H
	DD	00H
	DD	0ff000000H
	DD	0ff000000H
	DD	0ff000000H
	DD	0ff000000H
	DD	0ff000000H
	DD	0ff000000H
	DD	0ff000000H
	DD	0ff000000H
	DD	0ff000000H
	DD	0ff000000H
	DD	0ff000000H
	DD	0ff000000H
	DD	0ff000000H
	DD	0ff000000H
	DD	0ff000000H
	DD	0ff000000H
	DD	00H
	DD	00H
	DD	00H
	DD	00H
	DD	00H
	DD	00H
	DD	00H
	DD	00H
	DD	00H
	DD	00H
	DD	00H
	DD	0ff000000H
	DD	0ff000000H
	DD	0ff000000H
	DD	0ff000000H
	DD	0ff000000H
	DD	0ff000000H
	DD	0ff000000H
	DD	0ff000000H
	DD	0ff000000H
	DD	0ff000000H
	DD	0ff000000H
	DD	0ff000000H
	DD	0ff000000H
	DD	0ff000000H
	DD	0ff000000H
	DD	0ff000000H
_bmthreewayarrow DW 01eH
	DW	02cH
	DW	078H
	DW	020H
	DD	FLAT:_acthreewayarrow
	DD	00H
	DD	FLAT:_GUI_BitmapMethods8888
CONST	ENDS
END
