; Listing generated by Microsoft (R) Optimizing Compiler Version 16.00.40219.01 

	TITLE	C:\DUII\DUII\Graphics\Time.c
	.686P
	.XMM
	include listing.inc
	.model	flat

INCLUDELIB LIBCMT
INCLUDELIB OLDNAMES

PUBLIC	_bmTime
CONST	SEGMENT
_ColorsTime DD	00H
	DD	08060cH
	DD	0fefefeH
	DD	02a2a2aH
	DD	0333433H
	DD	090909H
	DD	02c2b33H
	DD	01d1d1dH
	DD	0212121H
	DD	034323aH
	DD	050505H
	DD	0111111H
	DD	0252525H
	DD	03c3a42H
	DD	020204H
	DD	025232bH
	DD	0c0c0dH
	DD	060509H
	DD	03d3d3dH
	DD	0191919H
	DD	028262eH
	DD	05a5a5aH
	DD	0151515H
	DD	0c9c9c9H
	DD	0515152H
	DD	0383838H
	DD	01c1a23H
	DD	0696969H
	DD	0434249H
	DD	0919191H
	DD	0e0d11H
	DD	0484848H
	DD	0646262H
	DD	0a0a0cH
	DD	014131bH
	DD	0383636H
	DD	02f302fH
	DD	038363eH
	DD	0403e45H
	DD	030302fH
	DD	0d3d2d3H
	DD	04c4a51H
	DD	0181816H
	DD	0434244H
	DD	0201e25H
	DD	0e3e2e4H
	DD	0171817H
	DD	03a383eH
	DD	0dbdbdbH
	DD	0747274H
	DD	0ebeaebH
	DD	0f4f3f4H
	DD	0c4c3c4H
	DD	0222026H
	DD	0302e35H
	DD	0848484H
	DD	0211e28H
	DD	0616161H
	DD	0adadadH
	DD	0514e53H
	DD	0a1a1a1H
	DD	054535aH
	DD	018161dH
	DD	048464aH
	DD	05c5b62H
	DD	0a9a9a9H
	DD	06e6c6dH
	DD	06d6c71H
	DD	0757379H
	DD	0b5b5b5H
	DD	028261dH
	DD	04d4d4dH
	DD	0656465H
	DD	0505d6H
	DD	011109aH
	DD	08d8d8dH
	DD	0111015H
	DD	01a191dH
	DD	0282825H
	DD	0656469H
	DD	0858489H
	DD	0929195H
	DD	0b1b1b1H
	DD	0191620H
	DD	0605e63H
	DD	0706e71H
	DD	07d7d7dH
	DD	07d7c81H
	DD	0a9a5a5H
	DD	0a6a5a9H
	DD	0bebdbeH
	DD	0e9e5e3H
	DD	0100e14H
	DD	0302e38H
	DD	04a484dH
	DD	0817e81H
	DD	08d8a8dH
	DD	0959596H
	DD	09d9ca1H
	DD	0adacb0H
	DD	0bab9bcH
	DD	0797879H
	DD	0feH
	DD	0949295H
	DD	0969499H
	DD	09a999dH
	DD	0b2b1b4H
	DD	0b6b5b8H
	DD	0b9b8baH
	DD	0c5c5c8H
	DD	0dedee0H
	DD	0242225H
	DD	0282630H
	DD	03c3a3eH
	DD	059565bH
	DD	0787576H
	DD	0828186H
	DD	098969aH
	DD	0a1a0a5H
	DD	022201dH
	DD	068666bH
	DD	07d7a7cH
	DD	0807c7eH
	DD	0848285H
	DD	088868aH
	DD	08c888aH
	DD	08e8c91H
	DD	09d9999H
	DD	0a5a4a5H
	DD	0b1aeadH
	DD	0b4b2b5H
	DD	0b8b5b4H
	DD	0bebab9H
	DD	0bebdc0H
	DD	078767aH
	DD	0888586H
	DD	0918e91H
	DD	0a19d9eH
	DD	0a5a2a2H
	DD	0aaa9adH
	DD	0c1bdbcH
	DD	0d9d4d2H
	DD	0e2dedbH
	DD	0f1edeaH
	DD	0faf5f2H
	DD	0fdf9f5H
	DD	040206H
	DD	0393640H
	DD	0191569H
	DD	04c494dH
	DD	06c6a6cH
	DD	07c787aH
	DD	08a8989H
	DD	0908c8eH
	DD	0989595H
	DD	09d9d9dH
	DD	0a09ea2H
	DD	0aeaaaaH
	DD	0c9c5c3H
	DD	0d1cdcbH
	DD	0d6d5d8H
	DD	0e0dfe1H
	DD	0f6f2edH
	DD	0626065H
	DD	0656265H
	DD	06a696dH
	DD	07a797dH
	DD	09a9899H
	DD	0b0aeb1H
	DD	0b6b2b2H
	DD	0bbb8b6H
	DD	0bcbbbdH
	DD	0232423H
	DD	0252422H
	DD	0282726H
	DD	0848182H
	DD	08a888dH
	DD	0949292H
	DD	0a5a2a5H
	DD	0acaaaeH
	DD	0b8b7baH
	DD	0d5d0ceH
	DD	0dcd8d5H
	DD	0e5e1deH
	DD	0ede9e6H
	DD	0b0c0cH
	DD	01f201fH
	DD	0373837H
	DD	0393835H
	DD	03c3c3bH
	DD	0828081H
	DD	0d8d7d9H
	DD	0e6e6e8H
	DD	0f0eef0H
	DD	0c0a0fH
	DD	0110e19H
	DD	0f1010H
	DD	0141413H
	DD	01b1c1bH
	DD	01c1c1bH
	DD	01c1b1eH
	DD	0252221H
	DD	0272827H
	DD	01d1a52H
	DD	0171167H
	DD	0413f48H
	DD	060605fH
	DD	0706f6fH
	DD	0202e2H
	DD	0a9a8a6H
	DD	0a8a7aaH
	DD	0c4c0bfH
	DD	0ccc8c7H
	DD	0c8c6c9H
	DD	0d0ced2H
	DD	040403H
	DD	070808H
	DD	010100fH
	DD	0141317H
	DD	0131414H
	DD	0110f3bH
	DD	01e1c3dH
	DD	01f2020H
	DD	03b3c3bH
	DD	0403f3fH
	DD	0191664H
	DD	01a1861H
	DD	017116aH
	DD	0484747H
	DD	0484847H
	DD	04c4b4bH
	DD	0585857H
	DD	0646462H
	DD	0686867H
	DD	06d6b6bH
	DD	08078dH
	DD	0100f91H
	DD	0110f9cH
	DD	0100fa0H
	DD	06a6888H
	DD	05250a8H
	DD	07372a1H
	DD	0404d8H
	DD	0f2H
	DD	04a49cdH
	DD	0989897H
	DD	0a7a4a3H
	DD	0abacabH
	DD	0b3b0afH
	DD	0bfbcbbH
	DD	0c1bfc1H
	DD	0cecdd1H
	DD	0e7e8e7H
	DD	0e8e7e8H
	DD	0f5f4f8H
	DD	0f9f7faH
_PalTime DD	0100H
	DB	00H
	ORG $+3
	DD	FLAT:_ColorsTime
_bmTime	DW	07fH
	DW	073H
	DW	07fH
	DW	08H
	DD	FLAT:_acTime
	DD	FLAT:_PalTime
	ORG $+4
_acTime	DB	00H
	DB	00H
	DB	00H
	DB	00H
	DB	00H
	DB	00H
	DB	00H
	DB	00H
	DB	00H
	DB	00H
	DB	00H
	DB	00H
	DB	00H
	DB	00H
	DB	00H
	DB	00H
	DB	00H
	DB	00H
	DB	00H
	DB	00H
	DB	00H
	DB	00H
	DB	00H
	DB	00H
	DB	00H
	DB	00H
	DB	00H
	DB	00H
	DB	00H
	DB	00H
	DB	00H
	DB	00H
	DB	00H
	DB	00H
	DB	00H
	DB	00H
	DB	00H
	DB	00H
	DB	00H
	DB	00H
	DB	00H
	DB	00H
	DB	00H
	DB	00H
	DB	00H
	DB	00H
	DB	00H
	DB	00H
	DB	00H
	DB	00H
	DB	00H
	DB	00H
	DB	00H
	DB	00H
	DB	00H
	DB	00H
	DB	00H
	DB	00H
	DB	00H
	DB	00H
	DB	00H
	DB	00H
	DB	00H
	DB	00H
	DB	00H
	DB	00H
	DB	00H
	DB	00H
	DB	00H
	DB	00H
	DB	00H
	DB	00H
	DB	00H
	DB	00H
	DB	00H
	DB	00H
	DB	00H
	DB	00H
	DB	00H
	DB	00H
	DB	00H
	DB	00H
	DB	00H
	DB	00H
	DB	00H
	DB	00H
	DB	00H
	DB	00H
	DB	00H
	DB	00H
	DB	00H
	DB	00H
	DB	00H
	DB	00H
	DB	00H
	DB	00H
	DB	00H
	DB	00H
	DB	00H
	DB	00H
	DB	00H
	DB	00H
	DB	00H
	DB	00H
	DB	00H
	DB	00H
	DB	00H
	DB	00H
	DB	00H
	DB	00H
	DB	00H
	DB	00H
	DB	00H
	DB	00H
	DB	00H
	DB	00H
	DB	00H
	DB	00H
	DB	00H
	DB	00H
	DB	00H
	DB	00H
	DB	00H
	DB	00H
	DB	00H
	DB	00H
	DB	00H
	DB	00H
	DB	00H
	DB	00H
	DB	00H
	DB	00H
	DB	00H
	DB	00H
	DB	00H
	DB	00H
	DB	00H
	DB	00H
	DB	00H
	DB	00H
	DB	00H
	DB	00H
	DB	00H
	DB	00H
	DB	00H
	DB	00H
	DB	00H
	DB	00H
	DB	00H
	DB	00H
	DB	00H
	DB	00H
	DB	00H
	DB	00H
	DB	00H
	DB	00H
	DB	00H
	DB	00H
	DB	00H
	DB	00H
	DB	00H
	DB	00H
	DB	00H
	DB	00H
	DB	00H
	DB	00H
	DB	00H
	DB	00H
	DB	00H
	DB	00H
	DB	00H
	DB	00H
	DB	00H
	DB	00H
	DB	00H
	DB	00H
	DB	00H
	DB	00H
	DB	00H
	DB	00H
	DB	00H
	DB	00H
	DB	00H
	DB	00H
	DB	00H
	DB	00H
	DB	00H
	DB	00H
	DB	00H
	DB	00H
	DB	00H
	DB	00H
	DB	00H
	DB	00H
	DB	00H
	DB	00H
	DB	00H
	DB	00H
	DB	00H
	DB	00H
	DB	00H
	DB	00H
	DB	00H
	DB	00H
	DB	00H
	DB	00H
	DB	00H
	DB	00H
	DB	00H
	DB	00H
	DB	00H
	DB	00H
	DB	00H
	DB	00H
	DB	00H
	DB	00H
	DB	00H
	DB	00H
	DB	00H
	DB	00H
	DB	00H
	DB	00H
	DB	00H
	DB	00H
	DB	00H
	DB	00H
	DB	00H
	DB	00H
	DB	00H
	DB	00H
	DB	00H
	DB	00H
	DB	00H
	DB	00H
	DB	00H
	DB	00H
	DB	00H
	DB	00H
	DB	00H
	DB	00H
	DB	00H
	DB	00H
	DB	00H
	DB	00H
	DB	00H
	DB	00H
	DB	00H
	DB	00H
	DB	00H
	DB	00H
	DB	00H
	DB	00H
	DB	00H
	DB	00H
	DB	00H
	DB	00H
	DB	00H
	DB	00H
	DB	00H
	DB	00H
	DB	00H
	DB	00H
	DB	00H
	DB	00H
	DB	00H
	DB	00H
	DB	00H
	DB	00H
	DB	00H
	DB	00H
	DB	00H
	DB	00H
	DB	00H
	DB	00H
	DB	00H
	DB	00H
	DB	00H
	DB	00H
	DB	00H
	DB	00H
	DB	00H
	DB	00H
	DB	00H
	DB	00H
	DB	00H
	DB	00H
	DB	00H
	DB	00H
	DB	00H
	DB	00H
	DB	00H
	DB	00H
	DB	00H
	DB	00H
	DB	00H
	DB	00H
	DB	00H
	DB	00H
	DB	00H
	DB	00H
	DB	00H
	DB	00H
	DB	00H
	DB	00H
	DB	00H
	DB	00H
	DB	00H
	DB	00H
	DB	00H
	DB	00H
	DB	00H
	DB	00H
	DB	00H
	DB	00H
	DB	00H
	DB	00H
	DB	00H
	DB	00H
	DB	00H
	DB	00H
	DB	00H
	DB	00H
	DB	00H
	DB	00H
	DB	00H
	DB	00H
	DB	00H
	DB	00H
	DB	00H
	DB	00H
	DB	00H
	DB	00H
	DB	00H
	DB	00H
	DB	00H
	DB	00H
	DB	00H
	DB	00H
	DB	00H
	DB	00H
	DB	00H
	DB	00H
	DB	00H
	DB	00H
	DB	00H
	DB	00H
	DB	00H
	DB	00H
	DB	00H
	DB	00H
	DB	00H
	DB	00H
	DB	00H
	DB	00H
	DB	00H
	DB	00H
	DB	00H
	DB	00H
	DB	00H
	DB	00H
	DB	00H
	DB	00H
	DB	00H
	DB	00H
	DB	00H
	DB	00H
	DB	00H
	DB	00H
	DB	00H
	DB	00H
	DB	00H
	DB	00H
	DB	00H
	DB	00H
	DB	00H
	DB	00H
	DB	00H
	DB	00H
	DB	00H
	DB	00H
	DB	00H
	DB	00H
	DB	00H
	DB	00H
	DB	00H
	DB	00H
	DB	00H
	DB	00H
	DB	00H
	DB	00H
	DB	00H
	DB	00H
	DB	00H
	DB	00H
	DB	00H
	DB	00H
	DB	00H
	DB	00H
	DB	00H
	DB	00H
	DB	00H
	DB	00H
	DB	00H
	DB	00H
	DB	00H
	DB	00H
	DB	00H
	DB	00H
	DB	00H
	DB	00H
	DB	00H
	DB	00H
	DB	00H
	DB	00H
	DB	00H
	DB	00H
	DB	00H
	DB	00H
	DB	00H
	DB	00H
	DB	00H
	DB	00H
	DB	00H
	DB	00H
	DB	00H
	DB	00H
	DB	00H
	DB	00H
	DB	00H
	DB	00H
	DB	00H
	DB	00H
	DB	00H
	DB	00H
	DB	00H
	DB	0aH
	DB	02eH
	DB	0dfH
	DB	039H
	DB	05fH
	DB	061H
	DB	0d1H
	DB	06aH
	DB	052H
	DB	052H
	DB	06aH
	DB	03aH
	DB	09bH
	DB	098H
	DB	0cfH
	DB	047H
	DB	0cH
	DB	010H
	DB	00H
	DB	00H
	DB	00H
	DB	00H
	DB	00H
	DB	00H
	DB	00H
	DB	00H
	DB	00H
	DB	00H
	DB	00H
	DB	00H
	DB	00H
	DB	00H
	DB	00H
	DB	00H
	DB	00H
	DB	00H
	DB	00H
	DB	00H
	DB	00H
	DB	00H
	DB	00H
	DB	00H
	DB	00H
	DB	00H
	DB	00H
	DB	00H
	DB	00H
	DB	00H
	DB	00H
	DB	00H
	DB	00H
	DB	00H
	DB	00H
	DB	00H
	DB	00H
	DB	00H
	DB	00H
	DB	00H
	DB	00H
	DB	00H
	DB	00H
	DB	00H
	DB	00H
	DB	00H
	DB	00H
	DB	00H
	DB	00H
	DB	00H
	DB	00H
	DB	00H
	DB	00H
	DB	00H
	DB	00H
	DB	00H
	DB	00H
	DB	00H
	DB	00H
	DB	00H
	DB	00H
	DB	00H
	DB	00H
	DB	00H
	DB	00H
	DB	00H
	DB	00H
	DB	00H
	DB	00H
	DB	00H
	DB	00H
	DB	00H
	DB	00H
	DB	00H
	DB	00H
	DB	00H
	DB	00H
	DB	00H
	DB	00H
	DB	00H
	DB	00H
	DB	00H
	DB	00H
	DB	00H
	DB	00H
	DB	00H
	DB	00H
	DB	00H
	DB	00H
	DB	00H
	DB	00H
	DB	00H
	DB	00H
	DB	00H
	DB	00H
	DB	00H
	DB	00H
	DB	00H
	DB	00H
	DB	00H
	DB	00H
	DB	00H
	DB	00H
	DB	00H
	DB	00H
	DB	00H
	DB	0bH
	DB	0e6H
	DB	087H
	DB	05aH
	DB	0fcH
	DB	02H
	DB	02H
	DB	02H
	DB	02H
	DB	02H
	DB	02H
	DB	02H
	DB	02H
	DB	02H
	DB	02H
	DB	02H
	DB	02H
	DB	02H
	DB	02H
	DB	0feH
	DB	028H
	DB	03cH
	DB	048H
	DB	03H
	DB	00H
	DB	00H
	DB	00H
	DB	00H
	DB	00H
	DB	00H
	DB	00H
	DB	00H
	DB	00H
	DB	00H
	DB	00H
	DB	00H
	DB	00H
	DB	00H
	DB	00H
	DB	00H
	DB	00H
	DB	00H
	DB	00H
	DB	00H
	DB	00H
	DB	00H
	DB	00H
	DB	00H
	DB	00H
	DB	00H
	DB	00H
	DB	00H
	DB	00H
	DB	00H
	DB	00H
	DB	00H
	DB	00H
	DB	00H
	DB	00H
	DB	00H
	DB	00H
	DB	00H
	DB	00H
	DB	00H
	DB	00H
	DB	00H
	DB	00H
	DB	00H
	DB	00H
	DB	00H
	DB	00H
	DB	00H
	DB	00H
	DB	00H
	DB	00H
	DB	00H
	DB	00H
	DB	00H
	DB	00H
	DB	00H
	DB	00H
	DB	0d8H
	DB	0caH
	DB	03H
	DB	03H
	DB	03H
	DB	03H
	DB	03H
	DB	03H
	DB	03H
	DB	03H
	DB	03H
	DB	03H
	DB	03H
	DB	03H
	DB	03H
	DB	03H
	DB	03H
	DB	03H
	DB	03H
	DB	03H
	DB	03H
	DB	03H
	DB	03H
	DB	03H
	DB	03H
	DB	03H
	DB	03H
	DB	03H
	DB	03H
	DB	03H
	DB	03H
	DB	03H
	DB	03H
	DB	03H
	DB	03H
	DB	03H
	DB	03H
	DB	03H
	DB	03H
	DB	03H
	DB	03H
	DB	0caH
	DB	0cH
	DB	024H
	DB	047H
	DB	061H
	DB	030H
	DB	02H
	DB	02H
	DB	02H
	DB	02H
	DB	02H
	DB	02H
	DB	02H
	DB	02H
	DB	02H
	DB	02H
	DB	02H
	DB	02H
	DB	02H
	DB	02H
	DB	02H
	DB	02H
	DB	02H
	DB	02H
	DB	02H
	DB	02H
	DB	02H
	DB	02H
	DB	0c1H
	DB	06cH
	DB	01bH
	DB	019H
	DB	0caH
	DB	0caH
	DB	03H
	DB	03H
	DB	03H
	DB	03H
	DB	03H
	DB	03H
	DB	03H
	DB	03H
	DB	03H
	DB	03H
	DB	03H
	DB	03H
	DB	03H
	DB	03H
	DB	03H
	DB	03H
	DB	03H
	DB	03H
	DB	03H
	DB	03H
	DB	03H
	DB	03H
	DB	03H
	DB	03H
	DB	03H
	DB	03H
	DB	03H
	DB	03H
	DB	03H
	DB	03H
	DB	03H
	DB	03H
	DB	03H
	DB	03H
	DB	03H
	DB	03H
	DB	03H
	DB	03H
	DB	03H
	DB	03H
	DB	03H
	DB	0caH
	DB	0b9H
	DB	00H
	DB	00H
	DB	00H
	DB	00H
	DB	00H
	DB	00H
	DB	00H
	DB	00H
	DB	0caH
	DB	0f7H
	DB	0fbH
	DB	017H
	DB	017H
	DB	017H
	DB	017H
	DB	017H
	DB	017H
	DB	017H
	DB	017H
	DB	017H
	DB	017H
	DB	017H
	DB	017H
	DB	017H
	DB	017H
	DB	017H
	DB	017H
	DB	017H
	DB	017H
	DB	017H
	DB	017H
	DB	017H
	DB	017H
	DB	017H
	DB	017H
	DB	017H
	DB	017H
	DB	017H
	DB	017H
	DB	017H
	DB	017H
	DB	017H
	DB	017H
	DB	017H
	DB	017H
	DB	017H
	DB	017H
	DB	017H
	DB	0d5H
	DB	034H
	DB	017H
	DB	030H
	DB	033H
	DB	02H
	DB	02H
	DB	02H
	DB	02H
	DB	02H
	DB	02H
	DB	02H
	DB	02H
	DB	02H
	DB	02H
	DB	02H
	DB	02H
	DB	02H
	DB	02H
	DB	02H
	DB	02H
	DB	02H
	DB	02H
	DB	02H
	DB	02H
	DB	02H
	DB	02H
	DB	02H
	DB	02H
	DB	02H
	DB	02H
	DB	02H
	DB	02H
	DB	02H
	DB	0fcH
	DB	028H
	DB	034H
	DB	034H
	DB	017H
	DB	017H
	DB	017H
	DB	017H
	DB	017H
	DB	017H
	DB	017H
	DB	017H
	DB	017H
	DB	017H
	DB	017H
	DB	017H
	DB	017H
	DB	017H
	DB	017H
	DB	017H
	DB	017H
	DB	017H
	DB	017H
	DB	017H
	DB	017H
	DB	017H
	DB	017H
	DB	017H
	DB	017H
	DB	017H
	DB	017H
	DB	017H
	DB	017H
	DB	017H
	DB	017H
	DB	017H
	DB	017H
	DB	017H
	DB	017H
	DB	017H
	DB	017H
	DB	017H
	DB	017H
	DB	0d5H
	DB	0f7H
	DB	0dfH
	DB	00H
	DB	00H
	DB	00H
	DB	00H
	DB	00H
	DB	00H
	DB	0eH
	DB	098H
	DB	06bH
	DB	061H
	DB	01dH
	DB	01dH
	DB	01dH
	DB	01dH
	DB	01dH
	DB	01dH
	DB	01dH
	DB	01dH
	DB	01dH
	DB	01dH
	DB	01dH
	DB	01dH
	DB	01dH
	DB	01dH
	DB	01dH
	DB	01dH
	DB	01dH
	DB	01dH
	DB	01dH
	DB	01dH
	DB	01dH
	DB	01dH
	DB	01dH
	DB	01dH
	DB	01dH
	DB	01dH
	DB	01dH
	DB	01dH
	DB	01dH
	DB	01dH
	DB	01dH
	DB	01dH
	DB	01dH
	DB	01dH
	DB	01dH
	DB	01dH
	DB	098H
	DB	061H
	DB	017H
	DB	0feH
	DB	02H
	DB	02H
	DB	02H
	DB	02H
	DB	02H
	DB	02H
	DB	02H
	DB	02H
	DB	02H
	DB	02H
	DB	02H
	DB	02H
	DB	02H
	DB	0ffH
	DB	032H
	DB	0c0H
	DB	0fcH
	DB	0fdH
	DB	0ffH
	DB	02H
	DB	02H
	DB	02H
	DB	02H
	DB	02H
	DB	02H
	DB	02H
	DB	02H
	DB	02H
	DB	02H
	DB	02H
	DB	02H
	DB	02H
	DB	02H
	DB	0a1H
	DB	0f7H
	DB	098H
	DB	04bH
	DB	01dH
	DB	01dH
	DB	01dH
	DB	01dH
	DB	01dH
	DB	01dH
	DB	01dH
	DB	01dH
	DB	01dH
	DB	01dH
	DB	01dH
	DB	01dH
	DB	01dH
	DB	01dH
	DB	01dH
	DB	01dH
	DB	01dH
	DB	01dH
	DB	01dH
	DB	01dH
	DB	01dH
	DB	01dH
	DB	01dH
	DB	01dH
	DB	01dH
	DB	01dH
	DB	01dH
	DB	01dH
	DB	01dH
	DB	01dH
	DB	01dH
	DB	01dH
	DB	01dH
	DB	01dH
	DB	01dH
	DB	01dH
	DB	01dH
	DB	0b1H
	DB	03cH
	DB	065H
	DB	0d8H
	DB	00H
	DB	00H
	DB	00H
	DB	00H
	DB	00H
	DB	0c5H
	DB	04bH
	DB	031H
	DB	01bH
	DB	01bH
	DB	01bH
	DB	01bH
	DB	01bH
	DB	01bH
	DB	01bH
	DB	01bH
	DB	01bH
	DB	01bH
	DB	01bH
	DB	01bH
	DB	01bH
	DB	01bH
	DB	01bH
	DB	01bH
	DB	01bH
	DB	01bH
	DB	01bH
	DB	01bH
	DB	01bH
	DB	01bH
	DB	01bH
	DB	01bH
	DB	01bH
	DB	01bH
	DB	01bH
	DB	01bH
	DB	01bH
	DB	01bH
	DB	01bH
	DB	01bH
	DB	01bH
	DB	01bH
	DB	01bH
	DB	048H
	DB	048H
	DB	0f5H
	DB	06eH
	DB	02H
	DB	02H
	DB	02H
	DB	02H
	DB	02H
	DB	02H
	DB	02H
	DB	02H
	DB	02H
	DB	033H
	DB	028H
	DB	041H
	DB	07aH
	DB	0e7H
	DB	0dfH
	DB	024H
	DB	02cH
	DB	013H
	DB	04dH
	DB	0c8H
	DB	03H
	DB	04H
	DB	05eH
	DB	031H
	DB	075H
	DB	0d5H
	DB	032H
	DB	02H
	DB	02H
	DB	02H
	DB	02H
	DB	02H
	DB	02H
	DB	02H
	DB	02H
	DB	02H
	DB	033H
	DB	06cH
	DB	031H
	DB	039H
	DB	0e9H
	DB	01bH
	DB	01bH
	DB	01bH
	DB	01bH
	DB	01bH
	DB	01bH
	DB	01bH
	DB	01bH
	DB	01bH
	DB	01bH
	DB	01bH
	DB	01bH
	DB	01bH
	DB	01bH
	DB	01bH
	DB	01bH
	DB	01bH
	DB	01bH
	DB	01bH
	DB	01bH
	DB	01bH
	DB	01bH
	DB	01bH
	DB	01bH
	DB	01bH
	DB	01bH
	DB	01bH
	DB	01bH
	DB	01bH
	DB	01bH
	DB	01bH
	DB	01bH
	DB	01bH
	DB	01bH
	DB	01bH
	DB	01bH
	DB	042H
	DB	0ceH
	DB	0bH
	DB	00H
	DB	00H
	DB	00H
	DB	00H
	DB	00H
	DB	0bH
	DB	065H
	DB	048H
	DB	020H
	DB	020H
	DB	020H
	DB	020H
	DB	020H
	DB	020H
	DB	020H
	DB	020H
	DB	020H
	DB	020H
	DB	020H
	DB	020H
	DB	020H
	DB	020H
	DB	020H
	DB	020H
	DB	020H
	DB	020H
	DB	020H
	DB	020H
	DB	020H
	DB	020H
	DB	020H
	DB	020H
	DB	020H
	DB	020H
	DB	020H
	DB	020H
	DB	020H
	DB	020H
	DB	020H
	DB	020H
	DB	020H
	DB	020H
	DB	015H
	DB	031H
	DB	017H
	DB	02H
	DB	02H
	DB	02H
	DB	02H
	DB	02H
	DB	02H
	DB	02H
	DB	02H
	DB	0c1H
	DB	045H
	DB	096H
	DB	024H
	DB	021H
	DB	00H
	DB	00H
	DB	092H
	DB	01eH
	DB	022H
	DB	03eH
	DB	014H
	DB	014H
	DB	0c8H
	DB	03eH
	DB	04cH
	DB	01H
	DB	00H
	DB	00H
	DB	0eH
	DB	0baH
	DB	018H
	DB	069H
	DB	06eH
	DB	02H
	DB	02H
	DB	02H
	DB	02H
	DB	02H
	DB	02H
	DB	02H
	DB	02H
	DB	0fdH
	DB	0f5H
	DB	0ceH
	DB	0ceH
	DB	020H
	DB	020H
	DB	020H
	DB	020H
	DB	020H
	DB	020H
	DB	020H
	DB	020H
	DB	020H
	DB	020H
	DB	020H
	DB	020H
	DB	020H
	DB	020H
	DB	020H
	DB	020H
	DB	020H
	DB	020H
	DB	020H
	DB	020H
	DB	020H
	DB	020H
	DB	020H
	DB	020H
	DB	020H
	DB	020H
	DB	020H
	DB	020H
	DB	020H
	DB	020H
	DB	020H
	DB	020H
	DB	020H
	DB	020H
	DB	020H
	DB	048H
	DB	018H
	DB	010H
	DB	00H
	DB	00H
	DB	00H
	DB	00H
	DB	00H
	DB	0c4H
	DB	0cfH
	DB	015H
	DB	015H
	DB	015H
	DB	015H
	DB	015H
	DB	015H
	DB	015H
	DB	015H
	DB	015H
	DB	015H
	DB	015H
	DB	015H
	DB	015H
	DB	015H
	DB	015H
	DB	015H
	DB	015H
	DB	015H
	DB	015H
	DB	015H
	DB	015H
	DB	015H
	DB	015H
	DB	015H
	DB	015H
	DB	015H
	DB	015H
	DB	015H
	DB	015H
	DB	015H
	DB	015H
	DB	015H
	DB	015H
	DB	0e7H
	DB	018H
	DB	04bH
	DB	0fdH
	DB	02H
	DB	02H
	DB	02H
	DB	02H
	DB	02H
	DB	02H
	DB	02H
	DB	030H
	DB	05fH
	DB	0caH
	DB	00H
	DB	00H
	DB	0c2H
	DB	035H
	DB	09H
	DB	0cdH
	DB	029H
	DB	05eH
	DB	029H
	DB	01cH
	DB	062H
	DB	082H
	DB	01cH
	DB	03bH
	DB	03fH
	DB	029H
	DB	01cH
	DB	02fH
	DB	06H
	DB	022H
	DB	0eH
	DB	00H
	DB	0dbH
	DB	015H
	DB	0abH
	DB	0ffH
	DB	02H
	DB	02H
	DB	02H
	DB	02H
	DB	02H
	DB	02H
	DB	02H
	DB	06cH
	DB	039H
	DB	018H
	DB	015H
	DB	015H
	DB	015H
	DB	015H
	DB	015H
	DB	015H
	DB	015H
	DB	015H
	DB	015H
	DB	015H
	DB	015H
	DB	015H
	DB	015H
	DB	015H
	DB	015H
	DB	015H
	DB	015H
	DB	015H
	DB	015H
	DB	015H
	DB	015H
	DB	015H
	DB	015H
	DB	015H
	DB	015H
	DB	015H
	DB	015H
	DB	015H
	DB	015H
	DB	015H
	DB	015H
	DB	015H
	DB	015H
	DB	015H
	DB	015H
	DB	0e6H
	DB	010H
	DB	00H
	DB	00H
	DB	00H
	DB	00H
	DB	00H
	DB	0c4H
	DB	0e9H
	DB	018H
	DB	018H
	DB	018H
	DB	018H
	DB	018H
	DB	018H
	DB	018H
	DB	018H
	DB	018H
	DB	018H
	DB	018H
	DB	018H
	DB	018H
	DB	018H
	DB	018H
	DB	018H
	DB	018H
	DB	018H
	DB	018H
	DB	018H
	DB	018H
	DB	018H
	DB	018H
	DB	018H
	DB	018H
	DB	018H
	DB	018H
	DB	018H
	DB	018H
	DB	018H
	DB	018H
	DB	018H
	DB	047H
	DB	047H
	DB	0d1H
	DB	02H
	DB	02H
	DB	02H
	DB	02H
	DB	02H
	DB	02H
	DB	02H
	DB	0bfH
	DB	01bH
	DB	01eH
	DB	00H
	DB	01eH
	DB	06H
	DB	026H
	DB	05eH
	DB	03bH
	DB	029H
	DB	029H
	DB	05eH
	DB	0a5H
	DB	054H
	DB	0dH
	DB	076H
	DB	064H
	DB	093H
	DB	03dH
	DB	031H
	DB	03bH
	DB	029H
	DB	029H
	DB	03bH
	DB	029H
	DB	0cdH
	DB	025H
	DB	0c8H
	DB	00H
	DB	0eH
	DB	012H
	DB	03aH
	DB	0ffH
	DB	02H
	DB	02H
	DB	02H
	DB	02H
	DB	02H
	DB	02H
	DB	0bfH
	DB	01bH
	DB	0e4H
	DB	018H
	DB	018H
	DB	018H
	DB	018H
	DB	018H
	DB	018H
	DB	018H
	DB	018H
	DB	018H
	DB	018H
	DB	018H
	DB	018H
	DB	018H
	DB	018H
	DB	018H
	DB	018H
	DB	018H
	DB	018H
	DB	018H
	DB	018H
	DB	018H
	DB	018H
	DB	018H
	DB	018H
	DB	018H
	DB	018H
	DB	018H
	DB	018H
	DB	018H
	DB	018H
	DB	018H
	DB	018H
	DB	018H
	DB	018H
	DB	02bH
	DB	0b9H
	DB	00H
	DB	00H
	DB	00H
	DB	00H
	DB	00H
	DB	010H
	DB	0ceH
	DB	0e6H
	DB	01fH
	DB	01fH
	DB	01fH
	DB	01fH
	DB	01fH
	DB	01fH
	DB	01fH
	DB	01fH
	DB	01fH
	DB	01fH
	DB	01fH
	DB	01fH
	DB	01fH
	DB	01fH
	DB	01fH
	DB	01fH
	DB	01fH
	DB	01fH
	DB	01fH
	DB	01fH
	DB	01fH
	DB	01fH
	DB	01fH
	DB	01fH
	DB	01fH
	DB	01fH
	DB	01fH
	DB	01fH
	DB	01fH
	DB	01fH
	DB	02bH
	DB	047H
	DB	064H
	DB	02H
	DB	02H
	DB	02H
	DB	02H
	DB	02H
	DB	02H
	DB	032H
	DB	065H
	DB	0bH
	DB	00H
	DB	022H
	DB	025H
	DB	03fH
	DB	029H
	DB	03dH
	DB	029H
	DB	026H
	DB	09cH
	DB	07cH
	DB	025H
	DB	085H
	DB	09cH
	DB	05dH
	DB	076H
	DB	0b4H
	DB	09H
	DB	044H
	DB	06eH
	DB	01cH
	DB	060H
	DB	063H
	DB	026H
	DB	03dH
	DB	040H
	DB	029H
	DB	029H
	DB	026H
	DB	014H
	DB	092H
	DB	00H
	DB	01fH
	DB	06dH
	DB	02H
	DB	02H
	DB	02H
	DB	02H
	DB	02H
	DB	02H
	DB	032H
	DB	031H
	DB	0e0H
	DB	0e4H
	DB	01fH
	DB	01fH
	DB	01fH
	DB	01fH
	DB	01fH
	DB	01fH
	DB	01fH
	DB	01fH
	DB	01fH
	DB	01fH
	DB	01fH
	DB	01fH
	DB	01fH
	DB	01fH
	DB	01fH
	DB	01fH
	DB	01fH
	DB	01fH
	DB	01fH
	DB	01fH
	DB	01fH
	DB	01fH
	DB	01fH
	DB	01fH
	DB	01fH
	DB	01fH
	DB	01fH
	DB	01fH
	DB	01fH
	DB	01fH
	DB	01fH
	DB	01fH
	DB	0dfH
	DB	05H
	DB	00H
	DB	00H
	DB	00H
	DB	00H
	DB	00H
	DB	010H
	DB	0e7H
	DB	0e0H
	DB	0e0H
	DB	0e0H
	DB	0e0H
	DB	0e0H
	DB	0e0H
	DB	0e0H
	DB	0e0H
	DB	0e0H
	DB	0e0H
	DB	0e0H
	DB	0e0H
	DB	0e0H
	DB	0e0H
	DB	0e0H
	DB	0e0H
	DB	0e0H
	DB	0e0H
	DB	0e0H
	DB	0e0H
	DB	0e0H
	DB	0e0H
	DB	0e0H
	DB	0e0H
	DB	0e0H
	DB	0e0H
	DB	0e0H
	DB	0e0H
	DB	0e0H
	DB	0e0H
	DB	019H
	DB	0e6H
	DB	017H
	DB	02H
	DB	02H
	DB	02H
	DB	02H
	DB	02H
	DB	02H
	DB	082H
	DB	0caH
	DB	00H
	DB	03eH
	DB	09H
	DB	029H
	DB	029H
	DB	03dH
	DB	0dH
	DB	059H
	DB	076H
	DB	05dH
	DB	0d2H
	DB	0d5H
	DB	09H
	DB	059H
	DB	0b3H
	DB	05dH
	DB	076H
	DB	06bH
	DB	05dH
	DB	057H
	DB	017H
	DB	0dH
	DB	064H
	DB	0d2H
	DB	05dH
	DB	0d2H
	DB	06bH
	DB	0dH
	DB	03bH
	DB	03dH
	DB	029H
	DB	0cdH
	DB	014H
	DB	0eH
	DB	0d8H
	DB	073H
	DB	033H
	DB	02H
	DB	02H
	DB	02H
	DB	02H
	DB	02H
	DB	033H
	DB	056H
	DB	023H
	DB	012H
	DB	0e0H
	DB	0e0H
	DB	0e0H
	DB	0e0H
	DB	0e0H
	DB	0e0H
	DB	0e0H
	DB	0e0H
	DB	0e0H
	DB	0e0H
	DB	0e0H
	DB	0e0H
	DB	0e0H
	DB	0e0H
	DB	0e0H
	DB	0e0H
	DB	0e0H
	DB	0e0H
	DB	0e0H
	DB	0e0H
	DB	0e0H
	DB	0e0H
	DB	0e0H
	DB	0e0H
	DB	0e0H
	DB	0e0H
	DB	0e0H
	DB	0e0H
	DB	0e0H
	DB	0e0H
	DB	0e0H
	DB	04H
	DB	05H
	DB	00H
	DB	00H
	DB	00H
	DB	00H
	DB	00H
	DB	010H
	DB	018H
	DB	019H
	DB	023H
	DB	019H
	DB	019H
	DB	019H
	DB	019H
	DB	019H
	DB	019H
	DB	019H
	DB	019H
	DB	019H
	DB	019H
	DB	019H
	DB	019H
	DB	019H
	DB	019H
	DB	019H
	DB	019H
	DB	019H
	DB	019H
	DB	019H
	DB	019H
	DB	019H
	DB	019H
	DB	019H
	DB	019H
	DB	019H
	DB	019H
	DB	019H
	DB	027H
	DB	02bH
	DB	017H
	DB	02H
	DB	02H
	DB	02H
	DB	02H
	DB	02H
	DB	0feH
	DB	073H
	DB	092H
	DB	011H
	DB	06H
	DB	0d5H
	DB	074H
	DB	09H
	DB	04fH
	DB	028H
	DB	029H
	DB	050H
	DB	0a1H
	DB	026H
	DB	04fH
	DB	07cH
	DB	0cdH
	DB	03bH
	DB	03bH
	DB	093H
	DB	09cH
	DB	06bH
	DB	025H
	DB	029H
	DB	03bH
	DB	01cH
	DB	0a6H
	DB	0a3H
	DB	026H
	DB	028H
	DB	074H
	DB	09H
	DB	0faH
	DB	067H
	DB	09H
	DB	054H
	DB	028H
	DB	03bH
	DB	0daH
	DB	00H
	DB	0bbH
	DB	0fbH
	DB	02H
	DB	02H
	DB	02H
	DB	02H
	DB	02H
	DB	0feH
	DB	065H
	DB	03H
	DB	019H
	DB	019H
	DB	019H
	DB	019H
	DB	019H
	DB	019H
	DB	019H
	DB	019H
	DB	019H
	DB	019H
	DB	019H
	DB	019H
	DB	019H
	DB	019H
	DB	019H
	DB	019H
	DB	019H
	DB	019H
	DB	019H
	DB	019H
	DB	019H
	DB	019H
	DB	019H
	DB	019H
	DB	019H
	DB	019H
	DB	019H
	DB	019H
	DB	019H
	DB	019H
	DB	019H
	DB	024H
	DB	0d8H
	DB	00H
	DB	00H
	DB	00H
	DB	00H
	DB	00H
	DB	0b9H
	DB	0e6H
	DB	04H
	DB	024H
	DB	027H
	DB	027H
	DB	027H
	DB	027H
	DB	027H
	DB	027H
	DB	027H
	DB	027H
	DB	027H
	DB	027H
	DB	027H
	DB	027H
	DB	027H
	DB	027H
	DB	027H
	DB	027H
	DB	027H
	DB	027H
	DB	027H
	DB	027H
	DB	027H
	DB	027H
	DB	027H
	DB	027H
	DB	027H
	DB	027H
	DB	03H
	DB	023H
	DB	034H
	DB	02H
	DB	02H
	DB	02H
	DB	02H
	DB	02H
	DB	02dH
	DB	02bH
	DB	00H
	DB	03eH
	DB	026H
	DB	026H
	DB	076H
	DB	02dH
	DB	01cH
	DB	0dH
	DB	0a0H
	DB	051H
	DB	0cdH
	DB	055H
	DB	05eH
	DB	026H
	DB	0dH
	DB	01cH
	DB	0cdH
	DB	0cdH
	DB	025H
	DB	09cH
	DB	06cH
	DB	09H
	DB	01cH
	DB	0cdH
	DB	01cH
	DB	0dH
	DB	026H
	DB	01cH
	DB	0a3H
	DB	01cH
	DB	054H
	DB	02dH
	DB	040H
	DB	09H
	DB	085H
	DB	0fbH
	DB	01cH
	DB	01cH
	DB	06H
	DB	0eH
	DB	01eH
	DB	03cH
	DB	02H
	DB	02H
	DB	02H
	DB	02H
	DB	02H
	DB	0ffH
	DB	01bH
	DB	0cH
	DB	027H
	DB	027H
	DB	027H
	DB	027H
	DB	027H
	DB	027H
	DB	027H
	DB	027H
	DB	027H
	DB	027H
	DB	027H
	DB	027H
	DB	027H
	DB	027H
	DB	027H
	DB	027H
	DB	027H
	DB	027H
	DB	027H
	DB	027H
	DB	027H
	DB	027H
	DB	027H
	DB	027H
	DB	027H
	DB	027H
	DB	027H
	DB	027H
	DB	027H
	DB	027H
	DB	0aeH
	DB	0d8H
	DB	00H
	DB	00H
	DB	00H
	DB	00H
	DB	00H
	DB	05H
	DB	02bH
	DB	03H
	DB	0caH
	DB	03H
	DB	03H
	DB	03H
	DB	03H
	DB	03H
	DB	03H
	DB	03H
	DB	03H
	DB	03H
	DB	03H
	DB	03H
	DB	03H
	DB	03H
	DB	03H
	DB	03H
	DB	03H
	DB	03H
	DB	03H
	DB	03H
	DB	03H
	DB	03H
	DB	03H
	DB	03H
	DB	03H
	DB	03H
	DB	0cH
	DB	0aeH
	DB	052H
	DB	02H
	DB	02H
	DB	02H
	DB	02H
	DB	02H
	DB	028H
	DB	03H
	DB	00H
	DB	014H
	DB	01cH
	DB	0cdH
	DB	02fH
	DB	01cH
	DB	02dH
	DB	062H
	DB	05dH
	DB	040H
	DB	040H
	DB	0dH
	DB	093H
	DB	0cdH
	DB	01cH
	DB	01cH
	DB	01cH
	DB	01cH
	DB	01cH
	DB	0dH
	DB	04fH
	DB	043H
	DB	0dH
	DB	01cH
	DB	01cH
	DB	01cH
	DB	01cH
	DB	01cH
	DB	01cH
	DB	0dH
	DB	026H
	DB	029H
	DB	054H
	DB	025H
	DB	055H
	DB	033H
	DB	0a3H
	DB	09H
	DB	01cH
	DB	05eH
	DB	02fH
	DB	021H
	DB	00H
	DB	060H
	DB	02H
	DB	02H
	DB	02H
	DB	02H
	DB	02H
	DB	032H
	DB	018H
	DB	0baH
	DB	03H
	DB	03H
	DB	03H
	DB	03H
	DB	03H
	DB	03H
	DB	03H
	DB	03H
	DB	03H
	DB	03H
	DB	03H
	DB	03H
	DB	03H
	DB	03H
	DB	03H
	DB	03H
	DB	03H
	DB	03H
	DB	03H
	DB	03H
	DB	03H
	DB	03H
	DB	03H
	DB	03H
	DB	03H
	DB	03H
	DB	03H
	DB	03H
	DB	03H
	DB	08H
	DB	0aH
	DB	00H
	DB	00H
	DB	00H
	DB	00H
	DB	00H
	DB	05H
	DB	0e0H
	DB	0acH
	DB	08H
	DB	08H
	DB	08H
	DB	08H
	DB	08H
	DB	08H
	DB	08H
	DB	08H
	DB	08H
	DB	08H
	DB	08H
	DB	08H
	DB	08H
	DB	08H
	DB	08H
	DB	08H
	DB	08H
	DB	08H
	DB	08H
	DB	08H
	DB	08H
	DB	08H
	DB	08H
	DB	08H
	DB	08H
	DB	08H
	DB	02aH
	DB	04bH
	DB	02H
	DB	02H
	DB	02H
	DB	02H
	DB	02H
	DB	028H
	DB	08H
	DB	00H
	DB	036H
	DB	01cH
	DB	0dH
	DB	0b2H
	DB	050H
	DB	06H
	DB	057H
	DB	0c1H
	DB	03dH
	DB	09H
	DB	026H
	DB	0cdH
	DB	0cdH
	DB	0cdH
	DB	0cdH
	DB	0cdH
	DB	0cdH
	DB	0cdH
	DB	0cdH
	DB	01cH
	DB	0dH
	DB	0dH
	DB	01cH
	DB	0cdH
	DB	0cdH
	DB	0cdH
	DB	0cdH
	DB	0cdH
	DB	0cdH
	DB	0cdH
	DB	0cdH
	DB	026H
	DB	093H
	DB	026H
	DB	030H
	DB	063H
	DB	036H
	DB	078H
	DB	06dH
	DB	029H
	DB	0dH
	DB	026H
	DB	0daH
	DB	00H
	DB	037H
	DB	02H
	DB	02H
	DB	02H
	DB	02H
	DB	02H
	DB	030H
	DB	023H
	DB	0c6H
	DB	08H
	DB	08H
	DB	08H
	DB	08H
	DB	08H
	DB	08H
	DB	08H
	DB	08H
	DB	08H
	DB	08H
	DB	08H
	DB	08H
	DB	08H
	DB	08H
	DB	08H
	DB	08H
	DB	08H
	DB	08H
	DB	08H
	DB	08H
	DB	08H
	DB	08H
	DB	08H
	DB	08H
	DB	08H
	DB	08H
	DB	08H
	DB	0acH
	DB	0c7H
	DB	0aH
	DB	00H
	DB	00H
	DB	00H
	DB	00H
	DB	00H
	DB	05H
	DB	019H
	DB	0baH
	DB	0c7H
	DB	07H
	DB	07H
	DB	07H
	DB	07H
	DB	07H
	DB	07H
	DB	07H
	DB	07H
	DB	07H
	DB	07H
	DB	07H
	DB	07H
	DB	07H
	DB	07H
	DB	07H
	DB	07H
	DB	07H
	DB	07H
	DB	07H
	DB	07H
	DB	07H
	DB	07H
	DB	07H
	DB	07H
	DB	0bH
	DB	0ceH
	DB	0ffH
	DB	02H
	DB	02H
	DB	02H
	DB	02H
	DB	0a0H
	DB	0acH
	DB	0eH
	DB	05dH
	DB	01cH
	DB	0cdH
	DB	09H
	DB	050H
	DB	032H
	DB	03dH
	DB	09H
	DB	017H
	DB	085H
	DB	093H
	DB	026H
	DB	026H
	DB	026H
	DB	026H
	DB	026H
	DB	026H
	DB	026H
	DB	026H
	DB	026H
	DB	026H
	DB	026H
	DB	026H
	DB	026H
	DB	026H
	DB	026H
	DB	026H
	DB	026H
	DB	026H
	DB	026H
	DB	026H
	DB	026H
	DB	026H
	DB	09H
	DB	051H
	DB	032H
	DB	03fH
	DB	0dH
	DB	0fbH
	DB	0d2H
	DB	09H
	DB	072H
	DB	05eH
	DB	026H
	DB	03eH
	DB	00H
	DB	037H
	DB	02H
	DB	02H
	DB	02H
	DB	02H
	DB	02H
	DB	045H
	DB	0c6H
	DB	013H
	DB	07H
	DB	07H
	DB	07H
	DB	07H
	DB	07H
	DB	07H
	DB	07H
	DB	07H
	DB	07H
	DB	07H
	DB	07H
	DB	07H
	DB	07H
	DB	07H
	DB	07H
	DB	07H
	DB	07H
	DB	07H
	DB	07H
	DB	07H
	DB	07H
	DB	07H
	DB	07H
	DB	07H
	DB	07H
	DB	07H
	DB	07H
	DB	02eH
	DB	0d7H
	DB	00H
	DB	00H
	DB	00H
	DB	00H
	DB	00H
	DB	05H
	DB	04H
	DB	013H
	DB	02aH
	DB	02aH
	DB	02aH
	DB	02aH
	DB	02aH
	DB	02aH
	DB	02aH
	DB	02aH
	DB	02aH
	DB	02aH
	DB	02aH
	DB	02aH
	DB	02aH
	DB	02aH
	DB	02aH
	DB	02aH
	DB	02aH
	DB	02aH
	DB	02aH
	DB	02aH
	DB	02aH
	DB	02aH
	DB	02aH
	DB	02aH
	DB	0bH
	DB	027H
	DB	06eH
	DB	02H
	DB	02H
	DB	02H
	DB	02H
	DB	0a1H
	DB	024H
	DB	00H
	DB	05dH
	DB	026H
	DB	029H
	DB	034H
	DB	078H
	DB	09H
	DB	086H
	DB	03bH
	DB	09H
	DB	0a3H
	DB	06aH
	DB	01cH
	DB	0dH
	DB	026H
	DB	026H
	DB	026H
	DB	026H
	DB	026H
	DB	026H
	DB	026H
	DB	026H
	DB	026H
	DB	0dH
	DB	0dH
	DB	026H
	DB	026H
	DB	026H
	DB	026H
	DB	026H
	DB	026H
	DB	026H
	DB	026H
	DB	026H
	DB	026H
	DB	09H
	DB	063H
	DB	074H
	DB	09H
	DB	026H
	DB	04fH
	DB	0dH
	DB	0a6H
	DB	0fdH
	DB	072H
	DB	093H
	DB	026H
	DB	0daH
	DB	00H
	DB	061H
	DB	02H
	DB	02H
	DB	02H
	DB	02H
	DB	02H
	DB	056H
	DB	010H
	DB	02aH
	DB	02aH
	DB	02aH
	DB	02aH
	DB	02aH
	DB	02aH
	DB	02aH
	DB	02aH
	DB	02aH
	DB	02aH
	DB	02aH
	DB	02aH
	DB	02aH
	DB	02aH
	DB	02aH
	DB	02aH
	DB	02aH
	DB	02aH
	DB	02aH
	DB	02aH
	DB	02aH
	DB	02aH
	DB	02aH
	DB	02aH
	DB	02aH
	DB	02aH
	DB	02aH
	DB	0c5H
	DB	0d7H
	DB	00H
	DB	00H
	DB	00H
	DB	00H
	DB	00H
	DB	0d8H
	DB	027H
	DB	0c5H
	DB	0bH
	DB	0bH
	DB	0bH
	DB	0bH
	DB	0bH
	DB	0bH
	DB	0bH
	DB	0bH
	DB	0bH
	DB	0bH
	DB	0bH
	DB	0bH
	DB	0bH
	DB	0bH
	DB	0bH
	DB	0bH
	DB	0bH
	DB	0bH
	DB	0bH
	DB	0bH
	DB	0bH
	DB	0bH
	DB	0bH
	DB	0d9H
	DB	010H
	DB	041H
	DB	02H
	DB	02H
	DB	02H
	DB	02H
	DB	0ffH
	DB	0e4H
	DB	00H
	DB	06H
	DB	026H
	DB	09H
	DB	09H
	DB	076H
	DB	0a0H
	DB	0cdH
	DB	05dH
	DB	0dH
	DB	026H
	DB	02fH
	DB	0dH
	DB	0dH
	DB	0dH
	DB	0dH
	DB	0dH
	DB	0dH
	DB	0dH
	DB	0dH
	DB	0dH
	DB	0dH
	DB	0dH
	DB	0dH
	DB	026H
	DB	01cH
	DB	0dH
	DB	0dH
	DB	0dH
	DB	0dH
	DB	0dH
	DB	0dH
	DB	0dH
	DB	0dH
	DB	0dH
	DB	0dH
	DB	0dH
	DB	0dH
	DB	02fH
	DB	0dH
	DB	0dH
	DB	09H
	DB	093H
	DB	085H
	DB	07cH
	DB	06H
	DB	0cdH
	DB	01cH
	DB	0dH
	DB	01eH
	DB	011H
	DB	06cH
	DB	02H
	DB	02H
	DB	02H
	DB	02H
	DB	0c1H
	DB	0bdH
	DB	05H
	DB	0bH
	DB	0bH
	DB	0bH
	DB	0bH
	DB	0bH
	DB	0bH
	DB	0bH
	DB	0bH
	DB	0bH
	DB	0bH
	DB	0bH
	DB	0bH
	DB	0bH
	DB	0bH
	DB	0bH
	DB	0bH
	DB	0bH
	DB	0bH
	DB	0bH
	DB	0bH
	DB	0bH
	DB	0bH
	DB	0bH
	DB	0bH
	DB	0bH
	DB	0bH
	DB	0d9H
	DB	0d7H
	DB	00H
	DB	00H
	DB	00H
	DB	00H
	DB	00H
	DB	0d8H
	DB	03H
	DB	010H
	DB	0b9H
	DB	010H
	DB	010H
	DB	010H
	DB	010H
	DB	010H
	DB	010H
	DB	010H
	DB	010H
	DB	010H
	DB	010H
	DB	010H
	DB	010H
	DB	010H
	DB	010H
	DB	010H
	DB	010H
	DB	010H
	DB	010H
	DB	010H
	DB	010H
	DB	010H
	DB	010H
	DB	00H
	DB	0e7H
	DB	02H
	DB	02H
	DB	02H
	DB	02H
	DB	02H
	DB	073H
	DB	00H
	DB	035H
	DB	0dH
	DB	03dH
	DB	052H
	DB	029H
	DB	09H
	DB	040H
	DB	026H
	DB	0dH
	DB	0dH
	DB	0dH
	DB	0dH
	DB	093H
	DB	0dH
	DB	0dH
	DB	0dH
	DB	0dH
	DB	0dH
	DB	0dH
	DB	0dH
	DB	0dH
	DB	0dH
	DB	0dH
	DB	05dH
	DB	0b0H
	DB	017H
	DB	025H
	DB	0dH
	DB	0dH
	DB	0dH
	DB	0dH
	DB	0dH
	DB	0dH
	DB	0dH
	DB	0dH
	DB	0dH
	DB	0dH
	DB	093H
	DB	0dH
	DB	0dH
	DB	0dH
	DB	0dH
	DB	0dH
	DB	026H
	DB	09H
	DB	040H
	DB	030H
	DB	055H
	DB	09H
	DB	025H
	DB	092H
	DB	08H
	DB	06eH
	DB	02H
	DB	02H
	DB	02H
	DB	02H
	DB	06bH
	DB	010H
	DB	05H
	DB	010H
	DB	010H
	DB	010H
	DB	010H
	DB	010H
	DB	010H
	DB	010H
	DB	010H
	DB	010H
	DB	010H
	DB	010H
	DB	010H
	DB	010H
	DB	010H
	DB	010H
	DB	010H
	DB	010H
	DB	010H
	DB	010H
	DB	010H
	DB	010H
	DB	010H
	DB	010H
	DB	010H
	DB	010H
	DB	05H
	DB	00H
	DB	00H
	DB	00H
	DB	00H
	DB	00H
	DB	00H
	DB	0d8H
	DB	0aeH
	DB	05H
	DB	0d8H
	DB	0d8H
	DB	0d8H
	DB	0d8H
	DB	0d8H
	DB	0d8H
	DB	0d8H
	DB	0d8H
	DB	0d8H
	DB	0d8H
	DB	0d8H
	DB	0d8H
	DB	0d8H
	DB	0d8H
	DB	0d8H
	DB	0d8H
	DB	0d8H
	DB	0d8H
	DB	0d8H
	DB	0d8H
	DB	0d8H
	DB	0d8H
	DB	0d7H
	DB	0c4H
	DB	0fbH
	DB	02H
	DB	02H
	DB	02H
	DB	02H
	DB	045H
	DB	0eH
	DB	0daH
	DB	0dH
	DB	036H
	DB	093H
	DB	034H
	DB	0fbH
	DB	025H
	DB	05dH
	DB	02fH
	DB	0dH
	DB	0dH
	DB	0dH
	DB	0dH
	DB	0dH
	DB	0dH
	DB	0dH
	DB	0dH
	DB	0dH
	DB	0dH
	DB	0dH
	DB	0dH
	DB	0dH
	DB	0dH
	DB	0dH
	DB	036H
	DB	069H
	DB	0fdH
	DB	093H
	DB	093H
	DB	0dH
	DB	0dH
	DB	0dH
	DB	0dH
	DB	0dH
	DB	0dH
	DB	0dH
	DB	0dH
	DB	0dH
	DB	0dH
	DB	0dH
	DB	0dH
	DB	0dH
	DB	0dH
	DB	0dH
	DB	025H
	DB	09H
	DB	082H
	DB	08bH
	DB	09H
	DB	036H
	DB	0dH
	DB	06H
	DB	00H
	DB	03dH
	DB	02H
	DB	02H
	DB	02H
	DB	02H
	DB	02H
	DB	015H
	DB	00H
	DB	0d8H
	DB	0d8H
	DB	0d8H
	DB	0d8H
	DB	0d8H
	DB	0d8H
	DB	0d8H
	DB	0d8H
	DB	0d8H
	DB	0d8H
	DB	0d8H
	DB	0d8H
	DB	0d8H
	DB	0d8H
	DB	0d8H
	DB	0d8H
	DB	0d8H
	DB	0d8H
	DB	0d8H
	DB	0d8H
	DB	0d8H
	DB	0d8H
	DB	0d8H
	DB	0d8H
	DB	0d8H
	DB	0d8H
	DB	00H
	DB	00H
	DB	00H
	DB	00H
	DB	00H
	DB	00H
	DB	011H
	DB	0acH
	DB	0d8H
	DB	0d7H
	DB	0aH
	DB	0aH
	DB	0aH
	DB	0aH
	DB	0aH
	DB	0aH
	DB	0aH
	DB	0aH
	DB	0aH
	DB	0aH
	DB	0aH
	DB	0aH
	DB	0aH
	DB	0aH
	DB	0aH
	DB	0aH
	DB	0aH
	DB	0aH
	DB	0aH
	DB	0aH
	DB	0aH
	DB	00H
	DB	042H
	DB	02H
	DB	02H
	DB	02H
	DB	02H
	DB	0c1H
	DB	027H
	DB	092H
	DB	09H
	DB	0dH
	DB	051H
	DB	040H
	DB	09H
	DB	0a5H
	DB	02fH
	DB	02fH
	DB	02fH
	DB	02fH
	DB	02fH
	DB	02fH
	DB	02fH
	DB	02fH
	DB	02fH
	DB	02fH
	DB	02fH
	DB	02fH
	DB	02fH
	DB	02fH
	DB	02fH
	DB	02fH
	DB	02fH
	DB	02fH
	DB	06H
	DB	068H
	DB	02dH
	DB	025H
	DB	025H
	DB	02fH
	DB	02fH
	DB	02fH
	DB	02fH
	DB	02fH
	DB	02fH
	DB	02fH
	DB	02fH
	DB	02fH
	DB	02fH
	DB	02fH
	DB	02fH
	DB	02fH
	DB	02fH
	DB	02fH
	DB	02fH
	DB	093H
	DB	01cH
	DB	09H
	DB	03fH
	DB	063H
	DB	040H
	DB	025H
	DB	01aH
	DB	00H
	DB	08aH
	DB	02H
	DB	02H
	DB	02H
	DB	02H
	DB	0fbH
	DB	010H
	DB	00H
	DB	0aH
	DB	0aH
	DB	0aH
	DB	0aH
	DB	0aH
	DB	0aH
	DB	0aH
	DB	0aH
	DB	0aH
	DB	0aH
	DB	0aH
	DB	0aH
	DB	0aH
	DB	0aH
	DB	0aH
	DB	0aH
	DB	0aH
	DB	0aH
	DB	0aH
	DB	0aH
	DB	0aH
	DB	0aH
	DB	0aH
	DB	0aH
	DB	0d7H
	DB	00H
	DB	00H
	DB	00H
	DB	00H
	DB	00H
	DB	00H
	DB	0aH
	DB	08H
	DB	0d7H
	DB	00H
	DB	0eH
	DB	0eH
	DB	0eH
	DB	0eH
	DB	0eH
	DB	0eH
	DB	0eH
	DB	0eH
	DB	0eH
	DB	0eH
	DB	0eH
	DB	0eH
	DB	0eH
	DB	0eH
	DB	0eH
	DB	0eH
	DB	0eH
	DB	0eH
	DB	0eH
	DB	0eH
	DB	00H
	DB	0bH
	DB	0bfH
	DB	02H
	DB	02H
	DB	02H
	DB	02H
	DB	07aH
	DB	00H
	DB	01aH
	DB	09H
	DB	09H
	DB	076H
	DB	0c1H
	DB	040H
	DB	014H
	DB	025H
	DB	025H
	DB	025H
	DB	025H
	DB	025H
	DB	025H
	DB	025H
	DB	025H
	DB	025H
	DB	025H
	DB	025H
	DB	025H
	DB	025H
	DB	025H
	DB	025H
	DB	025H
	DB	025H
	DB	025H
	DB	06H
	DB	068H
	DB	02dH
	DB	025H
	DB	025H
	DB	025H
	DB	025H
	DB	025H
	DB	025H
	DB	025H
	DB	025H
	DB	025H
	DB	025H
	DB	025H
	DB	025H
	DB	025H
	DB	025H
	DB	025H
	DB	025H
	DB	025H
	DB	025H
	DB	025H
	DB	09H
	DB	025H
	DB	06dH
	DB	06dH
	DB	03fH
	DB	06H
	DB	036H
	DB	011H
	DB	0cH
	DB	0c0H
	DB	02H
	DB	02H
	DB	02H
	DB	02H
	DB	020H
	DB	00H
	DB	0eH
	DB	0eH
	DB	0eH
	DB	0eH
	DB	0eH
	DB	0eH
	DB	0eH
	DB	0eH
	DB	0eH
	DB	0eH
	DB	0eH
	DB	0eH
	DB	0eH
	DB	0eH
	DB	0eH
	DB	0eH
	DB	0eH
	DB	0eH
	DB	0eH
	DB	0eH
	DB	0eH
	DB	0eH
	DB	0eH
	DB	0eH
	DB	00H
	DB	00H
	DB	00H
	DB	00H
	DB	00H
	DB	00H
	DB	00H
	DB	0aH
	DB	08H
	DB	0eH
	DB	00H
	DB	00H
	DB	00H
	DB	00H
	DB	00H
	DB	00H
	DB	00H
	DB	00H
	DB	00H
	DB	00H
	DB	00H
	DB	00H
	DB	00H
	DB	00H
	DB	00H
	DB	00H
	DB	00H
	DB	00H
	DB	00H
	DB	00H
	DB	00H
	DB	00H
	DB	01bH
	DB	02H
	DB	02H
	DB	02H
	DB	02H
	DB	0bfH
	DB	010H
	DB	014H
	DB	08bH
	DB	072H
	DB	014H
	DB	014H
	DB	078H
	DB	05eH
	DB	09H
	DB	025H
	DB	025H
	DB	025H
	DB	025H
	DB	025H
	DB	025H
	DB	025H
	DB	025H
	DB	025H
	DB	025H
	DB	025H
	DB	025H
	DB	025H
	DB	025H
	DB	025H
	DB	025H
	DB	025H
	DB	025H
	DB	070H
	DB	061H
	DB	02dH
	DB	09H
	DB	09H
	DB	025H
	DB	025H
	DB	025H
	DB	025H
	DB	025H
	DB	025H
	DB	025H
	DB	025H
	DB	025H
	DB	025H
	DB	025H
	DB	025H
	DB	025H
	DB	025H
	DB	025H
	DB	025H
	DB	025H
	DB	09H
	DB	025H
	DB	040H
	DB	036H
	DB	0fH
	DB	040H
	DB	034H
	DB	03bH
	DB	00H
	DB	079H
	DB	02H
	DB	02H
	DB	02H
	DB	02H
	DB	0d5H
	DB	011H
	DB	00H
	DB	00H
	DB	00H
	DB	00H
	DB	00H
	DB	00H
	DB	00H
	DB	00H
	DB	00H
	DB	00H
	DB	00H
	DB	00H
	DB	00H
	DB	00H
	DB	00H
	DB	00H
	DB	00H
	DB	00H
	DB	00H
	DB	00H
	DB	00H
	DB	00H
	DB	00H
	DB	00H
	DB	00H
	DB	00H
	DB	00H
	DB	00H
	DB	00H
	DB	00H
	DB	00H
	DB	0aH
	DB	08H
	DB	0eH
	DB	00H
	DB	00H
	DB	00H
	DB	00H
	DB	00H
	DB	00H
	DB	00H
	DB	00H
	DB	00H
	DB	00H
	DB	00H
	DB	00H
	DB	00H
	DB	00H
	DB	00H
	DB	00H
	DB	00H
	DB	00H
	DB	00H
	DB	00H
	DB	00H
	DB	05H
	DB	034H
	DB	02H
	DB	02H
	DB	02H
	DB	02H
	DB	0cfH
	DB	00H
	DB	09H
	DB	085H
	DB	033H
	DB	076H
	DB	0dH
	DB	01aH
	DB	036H
	DB	09H
	DB	09H
	DB	09H
	DB	09H
	DB	09H
	DB	09H
	DB	09H
	DB	09H
	DB	09H
	DB	09H
	DB	09H
	DB	09H
	DB	09H
	DB	09H
	DB	09H
	DB	09H
	DB	09H
	DB	09H
	DB	09H
	DB	014H
	DB	068H
	DB	0a1H
	DB	09H
	DB	09H
	DB	09H
	DB	09H
	DB	09H
	DB	09H
	DB	09H
	DB	09H
	DB	09H
	DB	09H
	DB	09H
	DB	09H
	DB	09H
	DB	09H
	DB	09H
	DB	09H
	DB	09H
	DB	09H
	DB	09H
	DB	09H
	DB	09H
	DB	02cH
	DB	026H
	DB	0d2H
	DB	033H
	DB	0abH
	DB	03fH
	DB	021H
	DB	02eH
	DB	0a1H
	DB	02H
	DB	02H
	DB	02H
	DB	02H
	DB	047H
	DB	00H
	DB	00H
	DB	00H
	DB	00H
	DB	00H
	DB	00H
	DB	00H
	DB	00H
	DB	00H
	DB	00H
	DB	00H
	DB	00H
	DB	00H
	DB	00H
	DB	00H
	DB	00H
	DB	00H
	DB	00H
	DB	00H
	DB	00H
	DB	00H
	DB	00H
	DB	00H
	DB	00H
	DB	00H
	DB	00H
	DB	00H
	DB	00H
	DB	00H
	DB	00H
	DB	00H
	DB	0aH
	DB	08H
	DB	0eH
	DB	00H
	DB	00H
	DB	00H
	DB	00H
	DB	00H
	DB	00H
	DB	00H
	DB	00H
	DB	00H
	DB	00H
	DB	00H
	DB	00H
	DB	00H
	DB	00H
	DB	00H
	DB	00H
	DB	00H
	DB	00H
	DB	00H
	DB	00H
	DB	00H
	DB	02bH
	DB	02H
	DB	02H
	DB	02H
	DB	02H
	DB	030H
	DB	016H
	DB	05cH
	DB	09H
	DB	014H
	DB	078H
	DB	028H
	DB	0fdH
	DB	074H
	DB	025H
	DB	09H
	DB	09H
	DB	09H
	DB	09H
	DB	09H
	DB	09H
	DB	09H
	DB	09H
	DB	09H
	DB	09H
	DB	09H
	DB	09H
	DB	09H
	DB	09H
	DB	09H
	DB	09H
	DB	09H
	DB	09H
	DB	09H
	DB	014H
	DB	067H
	DB	0a1H
	DB	05dH
	DB	05dH
	DB	09H
	DB	09H
	DB	09H
	DB	09H
	DB	09H
	DB	09H
	DB	09H
	DB	09H
	DB	09H
	DB	09H
	DB	09H
	DB	09H
	DB	09H
	DB	09H
	DB	09H
	DB	09H
	DB	09H
	DB	05dH
	DB	025H
	DB	07cH
	DB	032H
	DB	0d6H
	DB	054H
	DB	0fH
	DB	036H
	DB	014H
	DB	00H
	DB	056H
	DB	02H
	DB	02H
	DB	02H
	DB	02H
	DB	041H
	DB	00H
	DB	00H
	DB	00H
	DB	00H
	DB	00H
	DB	00H
	DB	00H
	DB	00H
	DB	00H
	DB	00H
	DB	00H
	DB	00H
	DB	00H
	DB	00H
	DB	00H
	DB	00H
	DB	00H
	DB	00H
	DB	00H
	DB	00H
	DB	00H
	DB	00H
	DB	00H
	DB	00H
	DB	00H
	DB	00H
	DB	00H
	DB	00H
	DB	00H
	DB	00H
	DB	00H
	DB	0aH
	DB	08H
	DB	0eH
	DB	00H
	DB	00H
	DB	00H
	DB	00H
	DB	00H
	DB	00H
	DB	00H
	DB	00H
	DB	00H
	DB	00H
	DB	00H
	DB	00H
	DB	00H
	DB	00H
	DB	00H
	DB	00H
	DB	00H
	DB	00H
	DB	00H
	DB	00H
	DB	00H
	DB	0f5H
	DB	02H
	DB	02H
	DB	02H
	DB	02H
	DB	037H
	DB	00H
	DB	014H
	DB	025H
	DB	09H
	DB	01aH
	DB	06H
	DB	074H
	DB	0c1H
	DB	075H
	DB	014H
	DB	09H
	DB	09H
	DB	09H
	DB	09H
	DB	09H
	DB	09H
	DB	09H
	DB	09H
	DB	09H
	DB	09H
	DB	09H
	DB	09H
	DB	09H
	DB	09H
	DB	09H
	DB	09H
	DB	09H
	DB	09H
	DB	0fH
	DB	067H
	DB	0a1H
	DB	05dH
	DB	05dH
	DB	09H
	DB	09H
	DB	09H
	DB	09H
	DB	09H
	DB	09H
	DB	09H
	DB	09H
	DB	09H
	DB	09H
	DB	09H
	DB	09H
	DB	09H
	DB	09H
	DB	09H
	DB	09H
	DB	09H
	DB	014H
	DB	050H
	DB	0fdH
	DB	057H
	DB	06H
	DB	01aH
	DB	0dH
	DB	026H
	DB	05dH
	DB	01H
	DB	0cH
	DB	032H
	DB	02H
	DB	02H
	DB	02H
	DB	032H
	DB	08H
	DB	00H
	DB	00H
	DB	00H
	DB	00H
	DB	00H
	DB	00H
	DB	00H
	DB	00H
	DB	00H
	DB	00H
	DB	00H
	DB	00H
	DB	00H
	DB	00H
	DB	00H
	DB	00H
	DB	00H
	DB	00H
	DB	00H
	DB	00H
	DB	00H
	DB	00H
	DB	00H
	DB	00H
	DB	00H
	DB	00H
	DB	00H
	DB	00H
	DB	00H
	DB	00H
	DB	0aH
	DB	08H
	DB	0eH
	DB	00H
	DB	00H
	DB	00H
	DB	00H
	DB	00H
	DB	00H
	DB	00H
	DB	00H
	DB	00H
	DB	00H
	DB	00H
	DB	00H
	DB	00H
	DB	00H
	DB	00H
	DB	00H
	DB	00H
	DB	00H
	DB	00H
	DB	00H
	DB	0bH
	DB	0b6H
	DB	02H
	DB	091H
	DB	02H
	DB	090H
	DB	024H
	DB	01H
	DB	06H
	DB	01cH
	DB	017H
	DB	09cH
	DB	0dH
	DB	038H
	DB	026H
	DB	03fH
	DB	05dH
	DB	05dH
	DB	05dH
	DB	05dH
	DB	05dH
	DB	05dH
	DB	05dH
	DB	05dH
	DB	05dH
	DB	05dH
	DB	05dH
	DB	05dH
	DB	05dH
	DB	05dH
	DB	05dH
	DB	05dH
	DB	05dH
	DB	05dH
	DB	05dH
	DB	0fH
	DB	051H
	DB	0a1H
	DB	036H
	DB	036H
	DB	05dH
	DB	05dH
	DB	05dH
	DB	05dH
	DB	05dH
	DB	05dH
	DB	05dH
	DB	05dH
	DB	05dH
	DB	05dH
	DB	05dH
	DB	05dH
	DB	05dH
	DB	05dH
	DB	05dH
	DB	05dH
	DB	05dH
	DB	036H
	DB	026H
	DB	0dH
	DB	0fH
	DB	06H
	DB	07cH
	DB	0c0H
	DB	0a6H
	DB	070H
	DB	02cH
	DB	00H
	DB	041H
	DB	02H
	DB	091H
	DB	02H
	DB	02H
	DB	0e8H
	DB	00H
	DB	00H
	DB	00H
	DB	00H
	DB	00H
	DB	00H
	DB	00H
	DB	00H
	DB	00H
	DB	00H
	DB	00H
	DB	00H
	DB	00H
	DB	00H
	DB	00H
	DB	00H
	DB	00H
	DB	00H
	DB	00H
	DB	00H
	DB	00H
	DB	00H
	DB	00H
	DB	00H
	DB	00H
	DB	00H
	DB	00H
	DB	00H
	DB	00H
	DB	00H
	DB	0aH
	DB	08H
	DB	0eH
	DB	00H
	DB	00H
	DB	00H
	DB	00H
	DB	00H
	DB	00H
	DB	00H
	DB	00H
	DB	00H
	DB	00H
	DB	00H
	DB	00H
	DB	00H
	DB	00H
	DB	00H
	DB	00H
	DB	00H
	DB	00H
	DB	00H
	DB	00H
	DB	02bH
	DB	091H
	DB	02H
	DB	090H
	DB	02H
	DB	045H
	DB	0eH
	DB	01aH
	DB	05dH
	DB	06H
	DB	04fH
	DB	082H
	DB	029H
	DB	06H
	DB	06H
	DB	06H
	DB	036H
	DB	036H
	DB	036H
	DB	036H
	DB	036H
	DB	036H
	DB	036H
	DB	036H
	DB	036H
	DB	036H
	DB	036H
	DB	036H
	DB	036H
	DB	036H
	DB	036H
	DB	036H
	DB	036H
	DB	036H
	DB	036H
	DB	035H
	DB	051H
	DB	0a1H
	DB	06H
	DB	06H
	DB	036H
	DB	036H
	DB	036H
	DB	036H
	DB	036H
	DB	036H
	DB	036H
	DB	036H
	DB	036H
	DB	036H
	DB	036H
	DB	036H
	DB	036H
	DB	036H
	DB	036H
	DB	036H
	DB	036H
	DB	05dH
	DB	06H
	DB	06H
	DB	036H
	DB	06H
	DB	07cH
	DB	043H
	DB	014H
	DB	06H
	DB	06H
	DB	00H
	DB	0e7H
	DB	02H
	DB	090H
	DB	091H
	DB	02H
	DB	0d1H
	DB	00H
	DB	00H
	DB	00H
	DB	00H
	DB	00H
	DB	00H
	DB	00H
	DB	00H
	DB	00H
	DB	00H
	DB	00H
	DB	00H
	DB	00H
	DB	00H
	DB	00H
	DB	00H
	DB	00H
	DB	00H
	DB	00H
	DB	00H
	DB	00H
	DB	00H
	DB	00H
	DB	00H
	DB	00H
	DB	00H
	DB	00H
	DB	00H
	DB	00H
	DB	00H
	DB	0aH
	DB	08H
	DB	0eH
	DB	00H
	DB	00H
	DB	00H
	DB	00H
	DB	00H
	DB	00H
	DB	00H
	DB	00H
	DB	00H
	DB	00H
	DB	00H
	DB	00H
	DB	00H
	DB	00H
	DB	00H
	DB	00H
	DB	00H
	DB	00H
	DB	00H
	DB	00H
	DB	079H
	DB	02H
	DB	090H
	DB	0a2H
	DB	02H
	DB	0eaH
	DB	00H
	DB	014H
	DB	09H
	DB	05eH
	DB	038H
	DB	038H
	DB	06H
	DB	036H
	DB	036H
	DB	036H
	DB	036H
	DB	036H
	DB	036H
	DB	036H
	DB	036H
	DB	036H
	DB	036H
	DB	036H
	DB	036H
	DB	036H
	DB	036H
	DB	036H
	DB	036H
	DB	036H
	DB	036H
	DB	036H
	DB	036H
	DB	036H
	DB	036H
	DB	038H
	DB	088H
	DB	0a1H
	DB	06H
	DB	06H
	DB	036H
	DB	036H
	DB	036H
	DB	036H
	DB	036H
	DB	036H
	DB	036H
	DB	036H
	DB	036H
	DB	036H
	DB	036H
	DB	036H
	DB	036H
	DB	036H
	DB	036H
	DB	036H
	DB	036H
	DB	036H
	DB	036H
	DB	036H
	DB	036H
	DB	036H
	DB	0fH
	DB	025H
	DB	07bH
	DB	040H
	DB	06H
	DB	05cH
	DB	03eH
	DB	08eH
	DB	091H
	DB	0a2H
	DB	02H
	DB	08dH
	DB	02eH
	DB	00H
	DB	00H
	DB	00H
	DB	00H
	DB	00H
	DB	00H
	DB	00H
	DB	00H
	DB	00H
	DB	00H
	DB	00H
	DB	00H
	DB	00H
	DB	00H
	DB	00H
	DB	00H
	DB	00H
	DB	00H
	DB	00H
	DB	00H
	DB	00H
	DB	00H
	DB	00H
	DB	00H
	DB	00H
	DB	00H
	DB	00H
	DB	00H
	DB	00H
	DB	0aH
	DB	08H
	DB	0eH
	DB	00H
	DB	00H
	DB	00H
	DB	00H
	DB	00H
	DB	00H
	DB	00H
	DB	00H
	DB	00H
	DB	00H
	DB	00H
	DB	00H
	DB	00H
	DB	00H
	DB	00H
	DB	00H
	DB	00H
	DB	00H
	DB	00H
	DB	00H
	DB	09dH
	DB	02H
	DB	08fH
	DB	0a2H
	DB	0b8H
	DB	04H
	DB	011H
	DB	014H
	DB	01cH
	DB	0a0H
	DB	017H
	DB	03fH
	DB	014H
	DB	06H
	DB	06H
	DB	06H
	DB	06H
	DB	06H
	DB	06H
	DB	06H
	DB	06H
	DB	06H
	DB	06H
	DB	06H
	DB	06H
	DB	06H
	DB	06H
	DB	06H
	DB	06H
	DB	06H
	DB	06H
	DB	06H
	DB	06H
	DB	06H
	DB	06H
	DB	038H
	DB	051H
	DB	0a1H
	DB	06H
	DB	06H
	DB	06H
	DB	06H
	DB	06H
	DB	06H
	DB	06H
	DB	06H
	DB	06H
	DB	06H
	DB	06H
	DB	06H
	DB	06H
	DB	06H
	DB	06H
	DB	06H
	DB	06H
	DB	06H
	DB	06H
	DB	06H
	DB	06H
	DB	06H
	DB	06H
	DB	06H
	DB	036H
	DB	082H
	DB	028H
	DB	040H
	DB	014H
	DB	01aH
	DB	00H
	DB	0f6H
	DB	091H
	DB	08fH
	DB	090H
	DB	08fH
	DB	0dfH
	DB	00H
	DB	00H
	DB	00H
	DB	00H
	DB	00H
	DB	00H
	DB	00H
	DB	00H
	DB	00H
	DB	00H
	DB	00H
	DB	00H
	DB	00H
	DB	00H
	DB	00H
	DB	00H
	DB	00H
	DB	00H
	DB	00H
	DB	00H
	DB	00H
	DB	00H
	DB	00H
	DB	00H
	DB	00H
	DB	00H
	DB	00H
	DB	00H
	DB	00H
	DB	0aH
	DB	08H
	DB	0eH
	DB	00H
	DB	00H
	DB	00H
	DB	00H
	DB	00H
	DB	00H
	DB	00H
	DB	00H
	DB	00H
	DB	00H
	DB	00H
	DB	00H
	DB	00H
	DB	00H
	DB	00H
	DB	00H
	DB	00H
	DB	00H
	DB	00H
	DB	0bH
	DB	0b5H
	DB	090H
	DB	0b8H
	DB	0a2H
	DB	0d4H
	DB	0c2H
	DB	022H
	DB	036H
	DB	014H
	DB	026H
	DB	055H
	DB	0dH
	DB	070H
	DB	06H
	DB	06H
	DB	06H
	DB	06H
	DB	06H
	DB	06H
	DB	06H
	DB	06H
	DB	06H
	DB	06H
	DB	06H
	DB	06H
	DB	06H
	DB	06H
	DB	06H
	DB	06H
	DB	06H
	DB	06H
	DB	06H
	DB	06H
	DB	06H
	DB	06H
	DB	02cH
	DB	088H
	DB	06eH
	DB	070H
	DB	06H
	DB	06H
	DB	06H
	DB	06H
	DB	06H
	DB	06H
	DB	06H
	DB	06H
	DB	06H
	DB	06H
	DB	06H
	DB	06H
	DB	06H
	DB	06H
	DB	06H
	DB	06H
	DB	06H
	DB	06H
	DB	06H
	DB	06H
	DB	06H
	DB	06H
	DB	06H
	DB	06H
	DB	093H
	DB	038H
	DB	053H
	DB	06H
	DB	014H
	DB	00H
	DB	042H
	DB	090H
	DB	0b8H
	DB	08fH
	DB	091H
	DB	020H
	DB	00H
	DB	00H
	DB	00H
	DB	00H
	DB	00H
	DB	00H
	DB	00H
	DB	00H
	DB	00H
	DB	00H
	DB	00H
	DB	00H
	DB	00H
	DB	00H
	DB	00H
	DB	00H
	DB	00H
	DB	00H
	DB	00H
	DB	00H
	DB	00H
	DB	00H
	DB	00H
	DB	00H
	DB	00H
	DB	00H
	DB	00H
	DB	00H
	DB	00H
	DB	0aH
	DB	08H
	DB	0eH
	DB	00H
	DB	00H
	DB	00H
	DB	00H
	DB	00H
	DB	00H
	DB	00H
	DB	00H
	DB	00H
	DB	00H
	DB	00H
	DB	00H
	DB	00H
	DB	00H
	DB	00H
	DB	00H
	DB	00H
	DB	00H
	DB	00H
	DB	04H
	DB	0b7H
	DB	08fH
	DB	0b7H
	DB	0a2H
	DB	07fH
	DB	00H
	DB	02cH
	DB	06H
	DB	029H
	DB	02fH
	DB	02cH
	DB	014H
	DB	06H
	DB	06H
	DB	06H
	DB	06H
	DB	06H
	DB	06H
	DB	06H
	DB	06H
	DB	06H
	DB	06H
	DB	06H
	DB	06H
	DB	06H
	DB	06H
	DB	06H
	DB	06H
	DB	06H
	DB	06H
	DB	06H
	DB	06H
	DB	06H
	DB	06H
	DB	06H
	DB	01aH
	DB	088H
	DB	06eH
	DB	014H
	DB	014H
	DB	06H
	DB	06H
	DB	06H
	DB	06H
	DB	06H
	DB	06H
	DB	06H
	DB	06H
	DB	06H
	DB	06H
	DB	06H
	DB	06H
	DB	06H
	DB	06H
	DB	06H
	DB	06H
	DB	06H
	DB	06H
	DB	06H
	DB	06H
	DB	06H
	DB	06H
	DB	014H
	DB	06H
	DB	04fH
	DB	067H
	DB	01cH
	DB	0fH
	DB	092H
	DB	0e0H
	DB	0b8H
	DB	05bH
	DB	05bH
	DB	090H
	DB	087H
	DB	00H
	DB	00H
	DB	00H
	DB	00H
	DB	00H
	DB	00H
	DB	00H
	DB	00H
	DB	00H
	DB	00H
	DB	00H
	DB	00H
	DB	00H
	DB	00H
	DB	00H
	DB	00H
	DB	00H
	DB	00H
	DB	00H
	DB	00H
	DB	00H
	DB	00H
	DB	00H
	DB	00H
	DB	00H
	DB	00H
	DB	00H
	DB	00H
	DB	00H
	DB	0aH
	DB	08H
	DB	0eH
	DB	00H
	DB	00H
	DB	00H
	DB	00H
	DB	00H
	DB	00H
	DB	00H
	DB	00H
	DB	00H
	DB	00H
	DB	00H
	DB	00H
	DB	00H
	DB	00H
	DB	00H
	DB	00H
	DB	00H
	DB	00H
	DB	00H
	DB	018H
	DB	05bH
	DB	05bH
	DB	08eH
	DB	0a2H
	DB	073H
	DB	00H
	DB	038H
	DB	06H
	DB	08bH
	DB	0c0H
	DB	055H
	DB	02cH
	DB	070H
	DB	070H
	DB	070H
	DB	070H
	DB	070H
	DB	070H
	DB	070H
	DB	070H
	DB	070H
	DB	070H
	DB	070H
	DB	070H
	DB	070H
	DB	070H
	DB	070H
	DB	070H
	DB	070H
	DB	070H
	DB	070H
	DB	070H
	DB	070H
	DB	070H
	DB	070H
	DB	01aH
	DB	07eH
	DB	06eH
	DB	014H
	DB	014H
	DB	014H
	DB	070H
	DB	070H
	DB	070H
	DB	070H
	DB	070H
	DB	070H
	DB	070H
	DB	070H
	DB	070H
	DB	070H
	DB	070H
	DB	070H
	DB	070H
	DB	070H
	DB	070H
	DB	070H
	DB	070H
	DB	070H
	DB	070H
	DB	070H
	DB	070H
	DB	0fH
	DB	0dH
	DB	085H
	DB	0a8H
	DB	0cdH
	DB	014H
	DB	01eH
	DB	08H
	DB	08dH
	DB	05bH
	DB	0b7H
	DB	08fH
	DB	058H
	DB	00H
	DB	00H
	DB	00H
	DB	00H
	DB	00H
	DB	00H
	DB	00H
	DB	00H
	DB	00H
	DB	00H
	DB	00H
	DB	00H
	DB	00H
	DB	00H
	DB	00H
	DB	00H
	DB	00H
	DB	00H
	DB	00H
	DB	00H
	DB	00H
	DB	00H
	DB	00H
	DB	00H
	DB	00H
	DB	00H
	DB	00H
	DB	00H
	DB	00H
	DB	0aH
	DB	08H
	DB	0eH
	DB	00H
	DB	0eH
	DB	0eH
	DB	0eH
	DB	0eH
	DB	0eH
	DB	0eH
	DB	0eH
	DB	0eH
	DB	0eH
	DB	0eH
	DB	0eH
	DB	0eH
	DB	0eH
	DB	0eH
	DB	0eH
	DB	0eH
	DB	0eH
	DB	00H
	DB	020H
	DB	0b8H
	DB	08eH
	DB	030H
	DB	05bH
	DB	03bH
	DB	00H
	DB	014H
	DB	014H
	DB	02cH
	DB	026H
	DB	0dH
	DB	0fH
	DB	014H
	DB	014H
	DB	014H
	DB	014H
	DB	014H
	DB	014H
	DB	014H
	DB	014H
	DB	014H
	DB	014H
	DB	014H
	DB	014H
	DB	014H
	DB	014H
	DB	014H
	DB	014H
	DB	014H
	DB	014H
	DB	014H
	DB	014H
	DB	014H
	DB	014H
	DB	014H
	DB	01aH
	DB	07eH
	DB	06eH
	DB	0fH
	DB	035H
	DB	02cH
	DB	0fH
	DB	014H
	DB	014H
	DB	014H
	DB	014H
	DB	014H
	DB	014H
	DB	014H
	DB	014H
	DB	014H
	DB	014H
	DB	014H
	DB	014H
	DB	014H
	DB	014H
	DB	014H
	DB	014H
	DB	014H
	DB	014H
	DB	014H
	DB	014H
	DB	014H
	DB	070H
	DB	02cH
	DB	05cH
	DB	01aH
	DB	06H
	DB	022H
	DB	0c2H
	DB	0aaH
	DB	05bH
	DB	030H
	DB	05bH
	DB	0aaH
	DB	0eH
	DB	00H
	DB	0eH
	DB	0eH
	DB	0eH
	DB	0eH
	DB	0eH
	DB	0eH
	DB	0eH
	DB	0eH
	DB	0eH
	DB	0eH
	DB	0eH
	DB	0eH
	DB	0eH
	DB	0eH
	DB	0eH
	DB	0eH
	DB	0eH
	DB	0eH
	DB	0eH
	DB	0eH
	DB	00H
	DB	00H
	DB	00H
	DB	00H
	DB	00H
	DB	00H
	DB	00H
	DB	011H
	DB	0acH
	DB	0eH
	DB	00H
	DB	0eH
	DB	0eH
	DB	0eH
	DB	0eH
	DB	0eH
	DB	0eH
	DB	0eH
	DB	0eH
	DB	0eH
	DB	0eH
	DB	0eH
	DB	0eH
	DB	0eH
	DB	0eH
	DB	0eH
	DB	0eH
	DB	0eH
	DB	00H
	DB	042H
	DB	05bH
	DB	0b6H
	DB	0b6H
	DB	08eH
	DB	02fH
	DB	00H
	DB	04cH
	DB	0cdH
	DB	07eH
	DB	0a5H
	DB	06H
	DB	0fH
	DB	014H
	DB	014H
	DB	014H
	DB	014H
	DB	014H
	DB	014H
	DB	014H
	DB	014H
	DB	014H
	DB	014H
	DB	014H
	DB	014H
	DB	014H
	DB	014H
	DB	014H
	DB	014H
	DB	014H
	DB	014H
	DB	014H
	DB	014H
	DB	014H
	DB	014H
	DB	014H
	DB	022H
	DB	0b0H
	DB	0a1H
	DB	053H
	DB	06H
	DB	0b4H
	DB	04fH
	DB	01aH
	DB	014H
	DB	014H
	DB	014H
	DB	014H
	DB	014H
	DB	014H
	DB	014H
	DB	014H
	DB	014H
	DB	014H
	DB	014H
	DB	014H
	DB	014H
	DB	014H
	DB	014H
	DB	014H
	DB	014H
	DB	014H
	DB	014H
	DB	014H
	DB	035H
	DB	072H
	DB	069H
	DB	044H
	DB	0fH
	DB	04dH
	DB	00H
	DB	058H
	DB	0b7H
	DB	08dH
	DB	0b7H
	DB	0d3H
	DB	0aH
	DB	00H
	DB	0eH
	DB	0eH
	DB	0eH
	DB	0eH
	DB	0eH
	DB	0eH
	DB	0eH
	DB	0eH
	DB	0eH
	DB	0eH
	DB	0eH
	DB	0eH
	DB	0eH
	DB	0eH
	DB	0eH
	DB	0eH
	DB	0eH
	DB	0eH
	DB	0eH
	DB	0eH
	DB	0eH
	DB	00H
	DB	00H
	DB	00H
	DB	00H
	DB	00H
	DB	00H
	DB	011H
	DB	0acH
	DB	0eH
	DB	00H
	DB	0eH
	DB	0eH
	DB	0eH
	DB	0eH
	DB	0eH
	DB	0eH
	DB	0eH
	DB	0eH
	DB	0eH
	DB	0eH
	DB	0eH
	DB	0eH
	DB	0eH
	DB	0eH
	DB	0eH
	DB	0eH
	DB	0eH
	DB	00H
	DB	0cfH
	DB	05bH
	DB	08dH
	DB	08dH
	DB	0b5H
	DB	03H
	DB	0eH
	DB	0eH
	DB	036H
	DB	06aH
	DB	082H
	DB	025H
	DB	035H
	DB	014H
	DB	014H
	DB	014H
	DB	014H
	DB	014H
	DB	014H
	DB	014H
	DB	014H
	DB	014H
	DB	014H
	DB	014H
	DB	014H
	DB	014H
	DB	014H
	DB	014H
	DB	014H
	DB	04eH
	DB	04eH
	DB	04eH
	DB	04eH
	DB	04eH
	DB	0aeH
	DB	035H
	DB	035H
	DB	069H
	DB	0d5H
	DB	0dH
	DB	0d5H
	DB	0a1H
	DB	026H
	DB	038H
	DB	014H
	DB	014H
	DB	014H
	DB	014H
	DB	014H
	DB	014H
	DB	014H
	DB	014H
	DB	014H
	DB	014H
	DB	014H
	DB	014H
	DB	014H
	DB	014H
	DB	014H
	DB	014H
	DB	014H
	DB	014H
	DB	014H
	DB	014H
	DB	01aH
	DB	0a6H
	DB	0abH
	DB	044H
	DB	053H
	DB	0c2H
	DB	00H
	DB	01dH
	DB	08eH
	DB	0b5H
	DB	0b6H
	DB	0d3H
	DB	0aH
	DB	00H
	DB	0eH
	DB	0eH
	DB	0eH
	DB	0eH
	DB	0eH
	DB	0eH
	DB	0eH
	DB	0eH
	DB	0eH
	DB	0eH
	DB	0eH
	DB	0eH
	DB	0eH
	DB	0eH
	DB	0eH
	DB	0eH
	DB	0eH
	DB	0eH
	DB	0eH
	DB	0eH
	DB	0eH
	DB	00H
	DB	00H
	DB	00H
	DB	00H
	DB	00H
	DB	00H
	DB	0aH
	DB	06fH
	DB	0aH
	DB	0eH
	DB	0eH
	DB	0eH
	DB	0eH
	DB	0eH
	DB	0eH
	DB	0eH
	DB	0eH
	DB	0eH
	DB	0eH
	DB	0eH
	DB	0eH
	DB	0eH
	DB	0eH
	DB	0eH
	DB	0eH
	DB	0eH
	DB	0eH
	DB	00H
	DB	0cfH
	DB	08eH
	DB	09fH
	DB	08dH
	DB	09eH
	DB	035H
	DB	00H
	DB	00H
	DB	00H
	DB	00H
	DB	011H
	DB	03eH
	DB	053H
	DB	035H
	DB	0fH
	DB	0fH
	DB	0fH
	DB	0fH
	DB	0fH
	DB	0fH
	DB	0fH
	DB	0fH
	DB	0fH
	DB	0fH
	DB	0fH
	DB	0fH
	DB	0fH
	DB	0fH
	DB	0fH
	DB	0cbH
	DB	094H
	DB	094H
	DB	094H
	DB	094H
	DB	0ddH
	DB	03H
	DB	063H
	DB	0feH
	DB	0c0H
	DB	06dH
	DB	0faH
	DB	0bcH
	DB	02aH
	DB	046H
	DB	046H
	DB	046H
	DB	046H
	DB	046H
	DB	046H
	DB	046H
	DB	046H
	DB	046H
	DB	046H
	DB	046H
	DB	046H
	DB	046H
	DB	046H
	DB	046H
	DB	0adH
	DB	0fH
	DB	0fH
	DB	0fH
	DB	0fH
	DB	01aH
	DB	053H
	DB	022H
	DB	01H
	DB	00H
	DB	00H
	DB	011H
	DB	00H
	DB	07aH
	DB	0b6H
	DB	09fH
	DB	08dH
	DB	084H
	DB	011H
	DB	00H
	DB	0eH
	DB	0eH
	DB	0eH
	DB	0eH
	DB	0eH
	DB	0eH
	DB	0eH
	DB	0eH
	DB	0eH
	DB	0eH
	DB	0eH
	DB	0eH
	DB	0eH
	DB	0eH
	DB	0eH
	DB	0eH
	DB	0eH
	DB	0eH
	DB	0eH
	DB	0eH
	DB	0eH
	DB	00H
	DB	00H
	DB	00H
	DB	00H
	DB	00H
	DB	00H
	DB	011H
	DB	06fH
	DB	0aH
	DB	0eH
	DB	0eH
	DB	0eH
	DB	0eH
	DB	0eH
	DB	0eH
	DB	0eH
	DB	0eH
	DB	0eH
	DB	0eH
	DB	0eH
	DB	0eH
	DB	0eH
	DB	0eH
	DB	0eH
	DB	0eH
	DB	0eH
	DB	0eH
	DB	00H
	DB	0cfH
	DB	0b6H
	DB	0d4H
	DB	0b5H
	DB	0f9H
	DB	04dH
	DB	04cH
	DB	078H
	DB	055H
	DB	043H
	DB	096H
	DB	044H
	DB	057H
	DB	09H
	DB	035H
	DB	0fH
	DB	0fH
	DB	0fH
	DB	0fH
	DB	0fH
	DB	0fH
	DB	0fH
	DB	0fH
	DB	0fH
	DB	0fH
	DB	0fH
	DB	0fH
	DB	0adH
	DB	0e2H
	DB	066H
	DB	066H
	DB	066H
	DB	066H
	DB	066H
	DB	0d0H
	DB	0f0H
	DB	091H
	DB	02H
	DB	02H
	DB	0b8H
	DB	0efH
	DB	0ebH
	DB	0edH
	DB	04aH
	DB	04aH
	DB	04aH
	DB	04aH
	DB	04aH
	DB	04aH
	DB	04aH
	DB	04aH
	DB	04aH
	DB	04aH
	DB	04aH
	DB	04aH
	DB	04aH
	DB	04aH
	DB	0eeH
	DB	094H
	DB	06fH
	DB	0fH
	DB	035H
	DB	070H
	DB	044H
	DB	0b0H
	DB	057H
	DB	055H
	DB	043H
	DB	055H
	DB	06fH
	DB	00H
	DB	073H
	DB	08dH
	DB	0d4H
	DB	0b5H
	DB	0aaH
	DB	011H
	DB	0eH
	DB	0eH
	DB	0eH
	DB	0eH
	DB	0eH
	DB	0eH
	DB	0eH
	DB	0eH
	DB	0eH
	DB	0eH
	DB	0eH
	DB	0eH
	DB	0eH
	DB	0eH
	DB	0eH
	DB	0eH
	DB	0eH
	DB	0eH
	DB	0eH
	DB	0eH
	DB	0eH
	DB	0eH
	DB	00H
	DB	00H
	DB	00H
	DB	00H
	DB	00H
	DB	00H
	DB	0d8H
	DB	06fH
	DB	0aH
	DB	0eH
	DB	0eH
	DB	0eH
	DB	0eH
	DB	0eH
	DB	0eH
	DB	0eH
	DB	0eH
	DB	0eH
	DB	0eH
	DB	0eH
	DB	0eH
	DB	0eH
	DB	0eH
	DB	0eH
	DB	0eH
	DB	0eH
	DB	0eH
	DB	00H
	DB	042H
	DB	08dH
	DB	09eH
	DB	09fH
	DB	0aaH
	DB	0daH
	DB	06fH
	DB	06aH
	DB	0abH
	DB	064H
	DB	064H
	DB	064H
	DB	082H
	DB	036H
	DB	022H
	DB	0fH
	DB	0fH
	DB	0fH
	DB	035H
	DB	035H
	DB	035H
	DB	035H
	DB	035H
	DB	035H
	DB	035H
	DB	035H
	DB	035H
	DB	0c9H
	DB	0e1H
	DB	066H
	DB	066H
	DB	066H
	DB	066H
	DB	066H
	DB	0f3H
	DB	0f4H
	DB	0a2H
	DB	02H
	DB	02H
	DB	0b7H
	DB	0f1H
	DB	049H
	DB	0f2H
	DB	049H
	DB	049H
	DB	049H
	DB	049H
	DB	049H
	DB	049H
	DB	049H
	DB	049H
	DB	049H
	DB	049H
	DB	049H
	DB	049H
	DB	049H
	DB	049H
	DB	0d0H
	DB	0ecH
	DB	0c9H
	DB	0fH
	DB	02cH
	DB	06H
	DB	0d2H
	DB	05aH
	DB	0b4H
	DB	06cH
	DB	064H
	DB	085H
	DB	026H
	DB	00H
	DB	031H
	DB	0b5H
	DB	09eH
	DB	0d4H
	DB	0a9H
	DB	0d8H
	DB	0eH
	DB	0eH
	DB	0eH
	DB	0eH
	DB	0eH
	DB	0eH
	DB	0eH
	DB	0eH
	DB	0eH
	DB	0eH
	DB	0eH
	DB	0eH
	DB	0eH
	DB	0eH
	DB	0eH
	DB	0eH
	DB	0eH
	DB	0eH
	DB	0eH
	DB	0eH
	DB	0eH
	DB	0eH
	DB	00H
	DB	00H
	DB	00H
	DB	00H
	DB	00H
	DB	00H
	DB	0d8H
	DB	0cH
	DB	011H
	DB	0eH
	DB	0aH
	DB	0aH
	DB	0aH
	DB	0aH
	DB	0aH
	DB	0aH
	DB	0aH
	DB	0aH
	DB	0aH
	DB	0aH
	DB	0aH
	DB	0aH
	DB	0aH
	DB	0aH
	DB	0aH
	DB	0aH
	DB	0aH
	DB	00H
	DB	0eaH
	DB	09fH
	DB	0d3H
	DB	09eH
	DB	083H
	DB	02cH
	DB	00H
	DB	0eH
	DB	00H
	DB	00H
	DB	00H
	DB	0eH
	DB	0eH
	DB	092H
	DB	01H
	DB	01eH
	DB	03eH
	DB	02cH
	DB	0fH
	DB	0fH
	DB	035H
	DB	035H
	DB	035H
	DB	035H
	DB	035H
	DB	035H
	DB	035H
	DB	035H
	DB	035H
	DB	0cbH
	DB	0e3H
	DB	0ccH
	DB	0ccH
	DB	0e3H
	DB	0dcH
	DB	0e0H
	DB	06dH
	DB	02dH
	DB	030H
	DB	063H
	DB	05eH
	DB	01aH
	DB	035H
	DB	035H
	DB	035H
	DB	035H
	DB	035H
	DB	035H
	DB	035H
	DB	035H
	DB	035H
	DB	035H
	DB	035H
	DB	035H
	DB	035H
	DB	035H
	DB	035H
	DB	035H
	DB	06fH
	DB	035H
	DB	01aH
	DB	022H
	DB	01H
	DB	0eH
	DB	00H
	DB	00H
	DB	00H
	DB	00H
	DB	00H
	DB	011H
	DB	00H
	DB	073H
	DB	09fH
	DB	0d3H
	DB	09eH
	DB	081H
	DB	05H
	DB	0eH
	DB	0aH
	DB	0aH
	DB	0aH
	DB	0aH
	DB	0aH
	DB	0aH
	DB	0aH
	DB	0aH
	DB	0aH
	DB	0aH
	DB	0aH
	DB	0aH
	DB	0aH
	DB	0aH
	DB	0aH
	DB	0aH
	DB	0aH
	DB	0aH
	DB	0aH
	DB	0aH
	DB	0aH
	DB	00H
	DB	00H
	DB	00H
	DB	00H
	DB	00H
	DB	00H
	DB	0d8H
	DB	0cH
	DB	0d8H
	DB	0aH
	DB	0aH
	DB	0aH
	DB	0aH
	DB	0aH
	DB	0aH
	DB	0aH
	DB	0aH
	DB	0aH
	DB	0aH
	DB	0aH
	DB	0aH
	DB	0aH
	DB	0aH
	DB	0aH
	DB	0aH
	DB	0aH
	DB	0aH
	DB	00H
	DB	01bH
	DB	0d4H
	DB	0f9H
	DB	0d3H
	DB	084H
	DB	0caH
	DB	0eH
	DB	092H
	DB	05cH
	DB	0e0H
	DB	095H
	DB	05cH
	DB	092H
	DB	01H
	DB	01H
	DB	011H
	DB	011H
	DB	021H
	DB	04cH
	DB	03eH
	DB	02cH
	DB	038H
	DB	038H
	DB	038H
	DB	038H
	DB	038H
	DB	038H
	DB	038H
	DB	02cH
	DB	077H
	DB	077H
	DB	077H
	DB	077H
	DB	02aH
	DB	0adH
	DB	017H
	DB	06bH
	DB	074H
	DB	062H
	DB	03fH
	DB	02cH
	DB	02cH
	DB	035H
	DB	035H
	DB	035H
	DB	035H
	DB	035H
	DB	035H
	DB	035H
	DB	035H
	DB	035H
	DB	035H
	DB	035H
	DB	035H
	DB	035H
	DB	035H
	DB	035H
	DB	0c8H
	DB	03eH
	DB	05cH
	DB	01H
	DB	011H
	DB	01H
	DB	011H
	DB	0eH
	DB	04H
	DB	047H
	DB	0fH
	DB	092H
	DB	01H
	DB	0eH
	DB	0beH
	DB	0d4H
	DB	0f9H
	DB	0d3H
	DB	09dH
	DB	05H
	DB	0aH
	DB	0aH
	DB	0aH
	DB	0aH
	DB	0aH
	DB	0aH
	DB	0aH
	DB	0aH
	DB	0aH
	DB	0aH
	DB	0aH
	DB	0aH
	DB	0aH
	DB	0aH
	DB	0aH
	DB	0aH
	DB	0aH
	DB	0aH
	DB	0aH
	DB	0aH
	DB	0aH
	DB	0aH
	DB	00H
	DB	00H
	DB	00H
	DB	00H
	DB	00H
	DB	00H
	DB	0d8H
	DB	0caH
	DB	05H
	DB	0aH
	DB	011H
	DB	011H
	DB	011H
	DB	011H
	DB	011H
	DB	011H
	DB	011H
	DB	011H
	DB	011H
	DB	011H
	DB	011H
	DB	011H
	DB	011H
	DB	011H
	DB	011H
	DB	011H
	DB	011H
	DB	00H
	DB	020H
	DB	0d3H
	DB	0aaH
	DB	084H
	DB	08cH
	DB	036H
	DB	0eH
	DB	0eH
	DB	06H
	DB	0abH
	DB	0d2H
	DB	04dH
	DB	0eH
	DB	01H
	DB	01H
	DB	01H
	DB	01H
	DB	01H
	DB	011H
	DB	01H
	DB	021H
	DB	05cH
	DB	022H
	DB	0c8H
	DB	01aH
	DB	038H
	DB	038H
	DB	038H
	DB	038H
	DB	038H
	DB	038H
	DB	038H
	DB	03eH
	DB	038H
	DB	0d5H
	DB	030H
	DB	0fH
	DB	05fH
	DB	0bfH
	DB	03eH
	DB	01aH
	DB	02cH
	DB	02cH
	DB	02cH
	DB	02cH
	DB	02cH
	DB	038H
	DB	038H
	DB	038H
	DB	038H
	DB	038H
	DB	038H
	DB	02cH
	DB	01aH
	DB	03eH
	DB	0daH
	DB	01eH
	DB	01H
	DB	011H
	DB	01H
	DB	01H
	DB	01H
	DB	01H
	DB	01H
	DB	00H
	DB	01bH
	DB	06dH
	DB	044H
	DB	00H
	DB	01H
	DB	0eH
	DB	060H
	DB	0d3H
	DB	0aaH
	DB	0f9H
	DB	0f6H
	DB	05H
	DB	0aH
	DB	011H
	DB	011H
	DB	011H
	DB	011H
	DB	011H
	DB	011H
	DB	011H
	DB	011H
	DB	011H
	DB	011H
	DB	011H
	DB	011H
	DB	011H
	DB	011H
	DB	011H
	DB	011H
	DB	011H
	DB	011H
	DB	011H
	DB	011H
	DB	0aH
	DB	00H
	DB	00H
	DB	00H
	DB	00H
	DB	00H
	DB	00H
	DB	0d8H
	DB	0caH
	DB	05H
	DB	011H
	DB	0d8H
	DB	0d8H
	DB	0d8H
	DB	0d8H
	DB	0d8H
	DB	0d8H
	DB	0d8H
	DB	0d8H
	DB	0d8H
	DB	0d8H
	DB	0d8H
	DB	0d8H
	DB	0d8H
	DB	0d8H
	DB	0d8H
	DB	0d8H
	DB	0d8H
	DB	00H
	DB	0e7H
	DB	084H
	DB	083H
	DB	083H
	DB	084H
	DB	026H
	DB	00H
	DB	01H
	DB	021H
	DB	0aH
	DB	00H
	DB	092H
	DB	01H
	DB	01H
	DB	01H
	DB	01H
	DB	01H
	DB	01H
	DB	01H
	DB	01H
	DB	01H
	DB	011H
	DB	011H
	DB	01H
	DB	021H
	DB	01eH
	DB	04cH
	DB	022H
	DB	03eH
	DB	01aH
	DB	01aH
	DB	022H
	DB	038H
	DB	0fbH
	DB	06eH
	DB	036H
	DB	011H
	DB	060H
	DB	02dH
	DB	01aH
	DB	01aH
	DB	02cH
	DB	02cH
	DB	02cH
	DB	02cH
	DB	02cH
	DB	01aH
	DB	01aH
	DB	04dH
	DB	03eH
	DB	022H
	DB	04cH
	DB	01eH
	DB	01H
	DB	01H
	DB	011H
	DB	01H
	DB	01H
	DB	01H
	DB	01H
	DB	01H
	DB	01H
	DB	01H
	DB	01H
	DB	01H
	DB	00H
	DB	00H
	DB	01H
	DB	01H
	DB	011H
	DB	021H
	DB	09aH
	DB	084H
	DB	0a9H
	DB	0aaH
	DB	0a7H
	DB	05H
	DB	011H
	DB	0d8H
	DB	0d8H
	DB	0d8H
	DB	0d8H
	DB	0d8H
	DB	0d8H
	DB	0d8H
	DB	0d8H
	DB	0d8H
	DB	0d8H
	DB	0d8H
	DB	0d8H
	DB	0d8H
	DB	0d8H
	DB	0d8H
	DB	0d8H
	DB	0d8H
	DB	0d8H
	DB	0d8H
	DB	0d8H
	DB	011H
	DB	00H
	DB	00H
	DB	00H
	DB	00H
	DB	00H
	DB	00H
	DB	0d8H
	DB	0caH
	DB	021H
	DB	0d8H
	DB	05H
	DB	05H
	DB	05H
	DB	05H
	DB	05H
	DB	05H
	DB	05H
	DB	05H
	DB	05H
	DB	05H
	DB	05H
	DB	05H
	DB	05H
	DB	05H
	DB	05H
	DB	05H
	DB	05H
	DB	00H
	DB	01fH
	DB	0a9H
	DB	0f8H
	DB	081H
	DB	084H
	DB	015H
	DB	00H
	DB	01H
	DB	011H
	DB	06H
	DB	055H
	DB	03fH
	DB	0eH
	DB	01H
	DB	01H
	DB	01H
	DB	01H
	DB	01H
	DB	01H
	DB	01H
	DB	01H
	DB	01H
	DB	01H
	DB	01H
	DB	01H
	DB	01H
	DB	011H
	DB	011H
	DB	01H
	DB	021H
	DB	00H
	DB	0c8H
	DB	0fbH
	DB	028H
	DB	02cH
	DB	01H
	DB	01H
	DB	040H
	DB	075H
	DB	05cH
	DB	04cH
	DB	04cH
	DB	04cH
	DB	04cH
	DB	05cH
	DB	01eH
	DB	0c2H
	DB	021H
	DB	01H
	DB	01H
	DB	011H
	DB	011H
	DB	01H
	DB	01H
	DB	01H
	DB	01H
	DB	01H
	DB	01H
	DB	01H
	DB	01H
	DB	01H
	DB	01H
	DB	01H
	DB	092H
	DB	03eH
	DB	075H
	DB	05fH
	DB	0c8H
	DB	092H
	DB	092H
	DB	04dH
	DB	0f6H
	DB	0a9H
	DB	081H
	DB	083H
	DB	087H
	DB	05H
	DB	0d8H
	DB	05H
	DB	05H
	DB	05H
	DB	05H
	DB	05H
	DB	05H
	DB	05H
	DB	05H
	DB	05H
	DB	05H
	DB	05H
	DB	05H
	DB	05H
	DB	05H
	DB	05H
	DB	05H
	DB	05H
	DB	05H
	DB	05H
	DB	05H
	DB	0d8H
	DB	00H
	DB	00H
	DB	00H
	DB	00H
	DB	00H
	DB	00H
	DB	0d8H
	DB	0caH
	DB	0b9H
	DB	05H
	DB	05H
	DB	05H
	DB	05H
	DB	05H
	DB	05H
	DB	05H
	DB	05H
	DB	05H
	DB	05H
	DB	05H
	DB	05H
	DB	05H
	DB	05H
	DB	05H
	DB	05H
	DB	05H
	DB	05H
	DB	0eH
	DB	027H
	DB	0d1H
	DB	081H
	DB	09dH
	DB	083H
	DB	031H
	DB	0eH
	DB	01H
	DB	0eH
	DB	0a6H
	DB	0a8H
	DB	03fH
	DB	0eH
	DB	01H
	DB	01H
	DB	01H
	DB	01H
	DB	01H
	DB	01H
	DB	01H
	DB	01H
	DB	01H
	DB	01H
	DB	01H
	DB	01H
	DB	01H
	DB	01H
	DB	01H
	DB	01H
	DB	00H
	DB	07H
	DB	0d6H
	DB	028H
	DB	013H
	DB	00H
	DB	01H
	DB	01H
	DB	011H
	DB	092H
	DB	011H
	DB	011H
	DB	011H
	DB	01H
	DB	01H
	DB	01H
	DB	01H
	DB	01H
	DB	01H
	DB	01H
	DB	01H
	DB	01H
	DB	01H
	DB	01H
	DB	01H
	DB	01H
	DB	01H
	DB	01H
	DB	01H
	DB	01H
	DB	01H
	DB	01H
	DB	01H
	DB	01H
	DB	011H
	DB	0c2H
	DB	015H
	DB	07bH
	DB	0caH
	DB	0eH
	DB	0eH
	DB	06H
	DB	03aH
	DB	081H
	DB	09dH
	DB	0a9H
	DB	042H
	DB	011H
	DB	05H
	DB	05H
	DB	05H
	DB	05H
	DB	05H
	DB	05H
	DB	05H
	DB	05H
	DB	05H
	DB	05H
	DB	05H
	DB	05H
	DB	05H
	DB	05H
	DB	05H
	DB	05H
	DB	05H
	DB	05H
	DB	05H
	DB	05H
	DB	05H
	DB	0d8H
	DB	00H
	DB	00H
	DB	00H
	DB	00H
	DB	00H
	DB	00H
	DB	0d8H
	DB	03H
	DB	010H
	DB	05H
	DB	021H
	DB	021H
	DB	021H
	DB	021H
	DB	021H
	DB	021H
	DB	021H
	DB	021H
	DB	021H
	DB	021H
	DB	021H
	DB	021H
	DB	021H
	DB	021H
	DB	021H
	DB	021H
	DB	021H
	DB	0d8H
	DB	013H
	DB	07fH
	DB	09dH
	DB	058H
	DB	081H
	DB	060H
	DB	0c2H
	DB	0c2H
	DB	01H
	DB	01H
	DB	00H
	DB	00H
	DB	011H
	DB	01H
	DB	01H
	DB	01H
	DB	01H
	DB	01H
	DB	01H
	DB	01H
	DB	01H
	DB	01H
	DB	01H
	DB	01H
	DB	01H
	DB	01H
	DB	01H
	DB	01H
	DB	00H
	DB	07H
	DB	0bfH
	DB	0a0H
	DB	04dH
	DB	00H
	DB	01H
	DB	01H
	DB	01H
	DB	01H
	DB	011H
	DB	01H
	DB	01H
	DB	01H
	DB	01H
	DB	01H
	DB	01H
	DB	01H
	DB	01H
	DB	01H
	DB	01H
	DB	01H
	DB	01H
	DB	01H
	DB	01H
	DB	01H
	DB	01H
	DB	01H
	DB	01H
	DB	01H
	DB	01H
	DB	01H
	DB	01H
	DB	01H
	DB	01H
	DB	01H
	DB	010H
	DB	0eH
	DB	00H
	DB	011H
	DB	021H
	DB	092H
	DB	095H
	DB	0f8H
	DB	0d1H
	DB	058H
	DB	0f8H
	DB	018H
	DB	0eH
	DB	021H
	DB	021H
	DB	021H
	DB	021H
	DB	021H
	DB	021H
	DB	021H
	DB	021H
	DB	021H
	DB	021H
	DB	021H
	DB	021H
	DB	021H
	DB	021H
	DB	021H
	DB	021H
	DB	021H
	DB	021H
	DB	021H
	DB	021H
	DB	021H
	DB	05H
	DB	0eH
	DB	00H
	DB	00H
	DB	00H
	DB	00H
	DB	00H
	DB	0d8H
	DB	03H
	DB	010H
	DB	021H
	DB	0b9H
	DB	0b9H
	DB	0b9H
	DB	0b9H
	DB	0b9H
	DB	0b9H
	DB	0b9H
	DB	0b9H
	DB	0b9H
	DB	0b9H
	DB	0b9H
	DB	0b9H
	DB	0b9H
	DB	0b9H
	DB	0b9H
	DB	0b9H
	DB	0b9H
	DB	021H
	DB	010H
	DB	07aH
	DB	0d1H
	DB	08aH
	DB	058H
	DB	089H
	DB	035H
	DB	0c2H
	DB	01H
	DB	011H
	DB	0e6H
	DB	069H
	DB	0dH
	DB	00H
	DB	01H
	DB	01H
	DB	01H
	DB	01H
	DB	01H
	DB	01H
	DB	01H
	DB	01H
	DB	01H
	DB	01H
	DB	01H
	DB	01H
	DB	01H
	DB	0eH
	DB	04dH
	DB	0a0H
	DB	0d6H
	DB	0c8H
	DB	00H
	DB	01H
	DB	01H
	DB	01H
	DB	01H
	DB	01H
	DB	01H
	DB	01H
	DB	01H
	DB	01H
	DB	01H
	DB	01H
	DB	01H
	DB	01H
	DB	01H
	DB	01H
	DB	01H
	DB	01H
	DB	01H
	DB	01H
	DB	01H
	DB	01H
	DB	01H
	DB	01H
	DB	01H
	DB	01H
	DB	01H
	DB	01H
	DB	01H
	DB	01H
	DB	011H
	DB	01H
	DB	067H
	DB	08bH
	DB	04H
	DB	0eH
	DB	01eH
	DB	01H
	DB	042H
	DB	09dH
	DB	08aH
	DB	0f6H
	DB	08aH
	DB	04H
	DB	0aH
	DB	0b9H
	DB	0b9H
	DB	0b9H
	DB	0b9H
	DB	0b9H
	DB	0b9H
	DB	0b9H
	DB	0b9H
	DB	0b9H
	DB	0b9H
	DB	0b9H
	DB	0b9H
	DB	0b9H
	DB	0b9H
	DB	0b9H
	DB	0b9H
	DB	0b9H
	DB	0b9H
	DB	0b9H
	DB	0b9H
	DB	0b9H
	DB	05H
	DB	00H
	DB	00H
	DB	00H
	DB	00H
	DB	00H
	DB	00H
	DB	0d8H
	DB	03H
	DB	01eH
	DB	0b9H
	DB	010H
	DB	010H
	DB	010H
	DB	010H
	DB	010H
	DB	010H
	DB	010H
	DB	010H
	DB	010H
	DB	010H
	DB	010H
	DB	010H
	DB	010H
	DB	010H
	DB	010H
	DB	010H
	DB	010H
	DB	010H
	DB	0d8H
	DB	0ceH
	DB	058H
	DB	089H
	DB	089H
	DB	058H
	DB	02bH
	DB	0c2H
	DB	01eH
	DB	021H
	DB	04bH
	DB	056H
	DB	02eH
	DB	0eH
	DB	01H
	DB	01H
	DB	01H
	DB	01H
	DB	01H
	DB	01H
	DB	01H
	DB	01H
	DB	01H
	DB	01H
	DB	01H
	DB	01H
	DB	092H
	DB	04cH
	DB	0d6H
	DB	028H
	DB	013H
	DB	00H
	DB	01H
	DB	01H
	DB	01H
	DB	01H
	DB	01H
	DB	01H
	DB	01H
	DB	01H
	DB	01H
	DB	01H
	DB	01H
	DB	01H
	DB	01H
	DB	01H
	DB	01H
	DB	01H
	DB	01H
	DB	01H
	DB	01H
	DB	01H
	DB	01H
	DB	01H
	DB	01H
	DB	01H
	DB	01H
	DB	01H
	DB	01H
	DB	01H
	DB	01H
	DB	01H
	DB	01H
	DB	0eH
	DB	0caH
	DB	044H
	DB	0dH
	DB	0eH
	DB	022H
	DB	04cH
	DB	060H
	DB	08aH
	DB	089H
	DB	08aH
	DB	01dH
	DB	07H
	DB	05H
	DB	010H
	DB	010H
	DB	010H
	DB	010H
	DB	010H
	DB	010H
	DB	010H
	DB	010H
	DB	010H
	DB	010H
	DB	010H
	DB	010H
	DB	010H
	DB	010H
	DB	010H
	DB	010H
	DB	010H
	DB	010H
	DB	010H
	DB	010H
	DB	010H
	DB	021H
	DB	0eH
	DB	00H
	DB	00H
	DB	00H
	DB	00H
	DB	00H
	DB	0d8H
	DB	03H
	DB	0c4H
	DB	010H
	DB	010H
	DB	010H
	DB	010H
	DB	010H
	DB	010H
	DB	010H
	DB	010H
	DB	010H
	DB	010H
	DB	010H
	DB	010H
	DB	010H
	DB	010H
	DB	010H
	DB	010H
	DB	010H
	DB	010H
	DB	010H
	DB	0d8H
	DB	023H
	DB	089H
	DB	07fH
	DB	07fH
	DB	08aH
	DB	042H
	DB	0c2H
	DB	053H
	DB	01H
	DB	0eH
	DB	00H
	DB	071H
	DB	02cH
	DB	011H
	DB	01H
	DB	01H
	DB	01H
	DB	01H
	DB	01H
	DB	01H
	DB	01H
	DB	01H
	DB	01H
	DB	01H
	DB	01H
	DB	092H
	DB	04dH
	DB	01dH
	DB	035H
	DB	00H
	DB	01H
	DB	01H
	DB	01H
	DB	01H
	DB	01H
	DB	01H
	DB	01H
	DB	01H
	DB	01H
	DB	01H
	DB	01H
	DB	01H
	DB	01H
	DB	01H
	DB	01H
	DB	01H
	DB	01H
	DB	01H
	DB	01H
	DB	01H
	DB	01H
	DB	01H
	DB	01H
	DB	01H
	DB	01H
	DB	01H
	DB	01H
	DB	01H
	DB	01H
	DB	01H
	DB	01H
	DB	01H
	DB	09H
	DB	0bH
	DB	00H
	DB	0eH
	DB	022H
	DB	05cH
	DB	036H
	DB	089H
	DB	07fH
	DB	07fH
	DB	03cH
	DB	031H
	DB	021H
	DB	010H
	DB	010H
	DB	010H
	DB	010H
	DB	010H
	DB	010H
	DB	010H
	DB	010H
	DB	010H
	DB	010H
	DB	010H
	DB	010H
	DB	010H
	DB	010H
	DB	010H
	DB	010H
	DB	010H
	DB	010H
	DB	010H
	DB	010H
	DB	010H
	DB	010H
	DB	0b9H
	DB	0eH
	DB	00H
	DB	00H
	DB	00H
	DB	00H
	DB	00H
	DB	0d8H
	DB	024H
	DB	0bH
	DB	01eH
	DB	0c4H
	DB	0c4H
	DB	0c4H
	DB	0c4H
	DB	0c4H
	DB	0c4H
	DB	0c4H
	DB	0c4H
	DB	0c4H
	DB	0c4H
	DB	0c4H
	DB	0c4H
	DB	0c4H
	DB	0c4H
	DB	0c4H
	DB	0c4H
	DB	0c4H
	DB	0c4H
	DB	010H
	DB	0c6H
	DB	087H
	DB	07fH
	DB	09aH
	DB	0a7H
	DB	01dH
	DB	06fH
	DB	053H
	DB	04cH
	DB	021H
	DB	09cH
	DB	06dH
	DB	04H
	DB	00H
	DB	00H
	DB	0eH
	DB	01H
	DB	01H
	DB	01H
	DB	01H
	DB	01H
	DB	01H
	DB	01H
	DB	01H
	DB	01H
	DB	01H
	DB	011H
	DB	00H
	DB	092H
	DB	01H
	DB	01H
	DB	01H
	DB	01H
	DB	01H
	DB	01H
	DB	01H
	DB	01H
	DB	01H
	DB	01H
	DB	01H
	DB	01H
	DB	01H
	DB	01H
	DB	01H
	DB	01H
	DB	01H
	DB	01H
	DB	01H
	DB	01H
	DB	01H
	DB	01H
	DB	01H
	DB	01H
	DB	01H
	DB	01H
	DB	01H
	DB	01H
	DB	01H
	DB	011H
	DB	00H
	DB	00H
	DB	01H
	DB	061H
	DB	017H
	DB	02fH
	DB	0eH
	DB	02cH
	DB	05cH
	DB	048H
	DB	089H
	DB	09aH
	DB	09aH
	DB	09bH
	DB	0e6H
	DB	05H
	DB	0c4H
	DB	0c4H
	DB	0c4H
	DB	0c4H
	DB	0c4H
	DB	0c4H
	DB	0c4H
	DB	0c4H
	DB	0c4H
	DB	0c4H
	DB	0c4H
	DB	0c4H
	DB	0c4H
	DB	0c4H
	DB	0c4H
	DB	0c4H
	DB	0c4H
	DB	0c4H
	DB	0c4H
	DB	0c4H
	DB	0c4H
	DB	0c4H
	DB	010H
	DB	0eH
	DB	00H
	DB	00H
	DB	00H
	DB	00H
	DB	00H
	DB	0d8H
	DB	024H
	DB	0bH
	DB	0c4H
	DB	0c4H
	DB	0c4H
	DB	0c4H
	DB	0c4H
	DB	0c4H
	DB	0c4H
	DB	0c4H
	DB	0c4H
	DB	0c4H
	DB	0c4H
	DB	0c4H
	DB	0c4H
	DB	0c4H
	DB	0c4H
	DB	0c4H
	DB	0c4H
	DB	0c4H
	DB	0c4H
	DB	0c4H
	DB	0b9H
	DB	048H
	DB	0a7H
	DB	0b1H
	DB	0b1H
	DB	07fH
	DB	03dH
	DB	022H
	DB	02cH
	DB	05cH
	DB	0e0H
	DB	0daH
	DB	00H
	DB	010H
	DB	057H
	DB	055H
	DB	00H
	DB	01H
	DB	01H
	DB	01H
	DB	01H
	DB	01H
	DB	01H
	DB	01H
	DB	01H
	DB	01H
	DB	01H
	DB	01H
	DB	01H
	DB	01H
	DB	01H
	DB	01H
	DB	01H
	DB	01H
	DB	01H
	DB	01H
	DB	01H
	DB	01H
	DB	01H
	DB	01H
	DB	01H
	DB	01H
	DB	01H
	DB	01H
	DB	01H
	DB	01H
	DB	01H
	DB	01H
	DB	01H
	DB	01H
	DB	01H
	DB	01H
	DB	01H
	DB	01H
	DB	01H
	DB	01H
	DB	01H
	DB	00H
	DB	03bH
	DB	041H
	DB	0caH
	DB	00H
	DB	011H
	DB	05eH
	DB	0fH
	DB	022H
	DB	01aH
	DB	0fH
	DB	07dH
	DB	09aH
	DB	0b1H
	DB	067H
	DB	099H
	DB	0cH
	DB	010H
	DB	0c4H
	DB	0c4H
	DB	0c4H
	DB	0c4H
	DB	0c4H
	DB	0c4H
	DB	0c4H
	DB	0c4H
	DB	0c4H
	DB	0c4H
	DB	0c4H
	DB	0c4H
	DB	0c4H
	DB	0c4H
	DB	0c4H
	DB	0c4H
	DB	0c4H
	DB	0c4H
	DB	0c4H
	DB	0c4H
	DB	0c4H
	DB	0c4H
	DB	010H
	DB	0eH
	DB	00H
	DB	00H
	DB	00H
	DB	00H
	DB	00H
	DB	0d8H
	DB	027H
	DB	0dbH
	DB	0bH
	DB	0bH
	DB	0bH
	DB	0bH
	DB	0bH
	DB	0bH
	DB	0bH
	DB	0bH
	DB	0bH
	DB	0bH
	DB	0bH
	DB	0bH
	DB	0bH
	DB	0bH
	DB	0bH
	DB	0bH
	DB	0bH
	DB	0bH
	DB	0bH
	DB	0bH
	DB	010H
	DB	019H
	DB	01dH
	DB	099H
	DB	099H
	DB	0b1H
	DB	05fH
	DB	014H
	DB	01aH
	DB	01aH
	DB	0eH
	DB	00H
	DB	029H
	DB	0a0H
	DB	0a0H
	DB	03bH
	DB	00H
	DB	01H
	DB	01H
	DB	01H
	DB	01H
	DB	01H
	DB	01H
	DB	01H
	DB	01H
	DB	01H
	DB	01H
	DB	01H
	DB	01H
	DB	01H
	DB	01H
	DB	01H
	DB	01H
	DB	01H
	DB	01H
	DB	01H
	DB	01H
	DB	01H
	DB	01H
	DB	01H
	DB	01H
	DB	01H
	DB	01H
	DB	01H
	DB	01H
	DB	01H
	DB	01H
	DB	01H
	DB	01H
	DB	01H
	DB	01H
	DB	01H
	DB	01H
	DB	01H
	DB	01H
	DB	01H
	DB	01H
	DB	0eH
	DB	06fH
	DB	0a8H
	DB	032H
	DB	050H
	DB	05cH
	DB	00H
	DB	04cH
	DB	038H
	DB	04dH
	DB	072H
	DB	09aH
	DB	099H
	DB	099H
	DB	067H
	DB	01bH
	DB	0bH
	DB	0bH
	DB	0bH
	DB	0bH
	DB	0bH
	DB	0bH
	DB	0bH
	DB	0bH
	DB	0bH
	DB	0bH
	DB	0bH
	DB	0bH
	DB	0bH
	DB	0bH
	DB	0bH
	DB	0bH
	DB	0bH
	DB	0bH
	DB	0bH
	DB	0bH
	DB	0bH
	DB	0bH
	DB	0bH
	DB	0bH
	DB	0c4H
	DB	0d7H
	DB	00H
	DB	00H
	DB	00H
	DB	00H
	DB	00H
	DB	0d8H
	DB	027H
	DB	016H
	DB	0bH
	DB	0c5H
	DB	0c5H
	DB	0c5H
	DB	0c5H
	DB	0c5H
	DB	0c5H
	DB	0c5H
	DB	0c5H
	DB	0c5H
	DB	0c5H
	DB	0c5H
	DB	0c5H
	DB	0c5H
	DB	0c5H
	DB	0c5H
	DB	0c5H
	DB	0c5H
	DB	0c5H
	DB	0c5H
	DB	0bH
	DB	013H
	DB	073H
	DB	099H
	DB	07dH
	DB	07dH
	DB	088H
	DB	03dH
	DB	01aH
	DB	01aH
	DB	026H
	DB	082H
	DB	032H
	DB	065H
	DB	0b9H
	DB	00H
	DB	01H
	DB	01H
	DB	01H
	DB	01H
	DB	01H
	DB	01H
	DB	01H
	DB	01H
	DB	01H
	DB	01H
	DB	01H
	DB	01H
	DB	01H
	DB	01H
	DB	01H
	DB	01H
	DB	01H
	DB	01H
	DB	01H
	DB	01H
	DB	01H
	DB	01H
	DB	01H
	DB	01H
	DB	01H
	DB	01H
	DB	01H
	DB	01H
	DB	01H
	DB	01H
	DB	01H
	DB	01H
	DB	01H
	DB	01H
	DB	01H
	DB	01H
	DB	01H
	DB	01H
	DB	01H
	DB	01H
	DB	01H
	DB	01H
	DB	092H
	DB	00H
	DB	0e4H
	DB	017H
	DB	030H
	DB	078H
	DB	0fH
	DB	053H
	DB	09H
	DB	05fH
	DB	099H
	DB	07dH
	DB	060H
	DB	099H
	DB	012H
	DB	010H
	DB	0c5H
	DB	0c5H
	DB	0c5H
	DB	0c5H
	DB	0c5H
	DB	0c5H
	DB	0c5H
	DB	0c5H
	DB	0c5H
	DB	0c5H
	DB	0c5H
	DB	0c5H
	DB	0c5H
	DB	0c5H
	DB	0c5H
	DB	0c5H
	DB	0c5H
	DB	0c5H
	DB	0c5H
	DB	0c5H
	DB	0c5H
	DB	0c5H
	DB	0c5H
	DB	0c4H
	DB	0eH
	DB	00H
	DB	00H
	DB	00H
	DB	00H
	DB	00H
	DB	0d8H
	DB	04H
	DB	016H
	DB	0c5H
	DB	0c5H
	DB	0c5H
	DB	0c5H
	DB	0c5H
	DB	0c5H
	DB	0c5H
	DB	0c5H
	DB	0c5H
	DB	0c5H
	DB	0c5H
	DB	0c5H
	DB	0c5H
	DB	0c5H
	DB	0c5H
	DB	0c5H
	DB	0c5H
	DB	0c5H
	DB	0c5H
	DB	0c5H
	DB	0c5H
	DB	0c4H
	DB	0e6H
	DB	060H
	DB	087H
	DB	087H
	DB	07dH
	DB	079H
	DB	09H
	DB	05dH
	DB	06eH
	DB	0b3H
	DB	035H
	DB	00H
	DB	0bH
	DB	05cH
	DB	01H
	DB	01H
	DB	01H
	DB	01H
	DB	01H
	DB	01H
	DB	01H
	DB	01H
	DB	01H
	DB	01H
	DB	01H
	DB	01H
	DB	01H
	DB	01H
	DB	01H
	DB	01H
	DB	01H
	DB	01H
	DB	01H
	DB	01H
	DB	01H
	DB	01H
	DB	01H
	DB	01H
	DB	01H
	DB	01H
	DB	01H
	DB	01H
	DB	01H
	DB	01H
	DB	01H
	DB	01H
	DB	01H
	DB	01H
	DB	01H
	DB	01H
	DB	01H
	DB	01H
	DB	01H
	DB	01H
	DB	01H
	DB	01H
	DB	01H
	DB	011H
	DB	00H
	DB	011H
	DB	055H
	DB	06eH
	DB	03dH
	DB	01aH
	DB	0a3H
	DB	07dH
	DB	087H
	DB	087H
	DB	07dH
	DB	031H
	DB	013H
	DB	0c5H
	DB	0c5H
	DB	0c5H
	DB	0c5H
	DB	0c5H
	DB	0c5H
	DB	0c5H
	DB	0c5H
	DB	0c5H
	DB	0c5H
	DB	0c5H
	DB	0c5H
	DB	0c5H
	DB	0c5H
	DB	0c5H
	DB	0c5H
	DB	0c5H
	DB	0c5H
	DB	0c5H
	DB	0c5H
	DB	0c5H
	DB	0c5H
	DB	0c5H
	DB	0c5H
	DB	0c4H
	DB	0d7H
	DB	00H
	DB	00H
	DB	00H
	DB	00H
	DB	00H
	DB	0d8H
	DB	04H
	DB	02eH
	DB	016H
	DB	016H
	DB	016H
	DB	016H
	DB	016H
	DB	016H
	DB	016H
	DB	016H
	DB	016H
	DB	016H
	DB	016H
	DB	016H
	DB	016H
	DB	016H
	DB	016H
	DB	016H
	DB	016H
	DB	016H
	DB	016H
	DB	016H
	DB	016H
	DB	0c5H
	DB	08H
	DB	073H
	DB	087H
	DB	0afH
	DB	0afH
	DB	087H
	DB	01bH
	DB	09H
	DB	025H
	DB	053H
	DB	0c2H
	DB	071H
	DB	085H
	DB	03fH
	DB	00H
	DB	01H
	DB	01H
	DB	01H
	DB	01H
	DB	01H
	DB	01H
	DB	01H
	DB	01H
	DB	01H
	DB	01H
	DB	01H
	DB	01H
	DB	01H
	DB	01H
	DB	01H
	DB	01H
	DB	01H
	DB	01H
	DB	01H
	DB	01H
	DB	01H
	DB	01H
	DB	01H
	DB	01H
	DB	01H
	DB	01H
	DB	01H
	DB	01H
	DB	01H
	DB	01H
	DB	01H
	DB	01H
	DB	01H
	DB	01H
	DB	01H
	DB	01H
	DB	01H
	DB	01H
	DB	01H
	DB	01H
	DB	0eH
	DB	03eH
	DB	080H
	DB	047H
	DB	0c2H
	DB	022H
	DB	0fH
	DB	0fH
	DB	03bH
	DB	05fH
	DB	037H
	DB	0afH
	DB	0afH
	DB	07cH
	DB	0e4H
	DB	0bH
	DB	016H
	DB	016H
	DB	016H
	DB	016H
	DB	016H
	DB	016H
	DB	016H
	DB	016H
	DB	016H
	DB	016H
	DB	016H
	DB	016H
	DB	016H
	DB	016H
	DB	016H
	DB	016H
	DB	016H
	DB	016H
	DB	016H
	DB	016H
	DB	016H
	DB	016H
	DB	016H
	DB	016H
	DB	0bH
	DB	0d7H
	DB	00H
	DB	00H
	DB	00H
	DB	00H
	DB	00H
	DB	05H
	DB	04H
	DB	013H
	DB	02eH
	DB	02eH
	DB	02eH
	DB	02eH
	DB	02eH
	DB	02eH
	DB	02eH
	DB	02eH
	DB	02eH
	DB	02eH
	DB	02eH
	DB	02eH
	DB	02eH
	DB	02eH
	DB	02eH
	DB	02eH
	DB	02eH
	DB	02eH
	DB	02eH
	DB	02eH
	DB	02eH
	DB	02eH
	DB	0bH
	DB	01fH
	DB	07bH
	DB	07aH
	DB	07aH
	DB	07aH
	DB	05fH
	DB	0a3H
	DB	01aH
	DB	01aH
	DB	01aH
	DB	075H
	DB	031H
	DB	0eH
	DB	0eH
	DB	01H
	DB	01H
	DB	01H
	DB	01H
	DB	01H
	DB	01H
	DB	01H
	DB	01H
	DB	01H
	DB	01H
	DB	01H
	DB	01H
	DB	01H
	DB	01H
	DB	01H
	DB	01H
	DB	01H
	DB	01H
	DB	01H
	DB	01H
	DB	01H
	DB	01H
	DB	01H
	DB	01H
	DB	01H
	DB	01H
	DB	01H
	DB	01H
	DB	01H
	DB	01H
	DB	01H
	DB	01H
	DB	01H
	DB	01H
	DB	01H
	DB	01H
	DB	01H
	DB	01H
	DB	01H
	DB	01H
	DB	011H
	DB	00H
	DB	0ceH
	DB	06dH
	DB	025H
	DB	01aH
	DB	022H
	DB	01cH
	DB	086H
	DB	0beH
	DB	07aH
	DB	07aH
	DB	0afH
	DB	055H
	DB	0baH
	DB	016H
	DB	02eH
	DB	02eH
	DB	02eH
	DB	02eH
	DB	02eH
	DB	02eH
	DB	02eH
	DB	02eH
	DB	02eH
	DB	02eH
	DB	02eH
	DB	02eH
	DB	02eH
	DB	02eH
	DB	02eH
	DB	02eH
	DB	02eH
	DB	02eH
	DB	02eH
	DB	02eH
	DB	02eH
	DB	02eH
	DB	02eH
	DB	02eH
	DB	0c5H
	DB	0d7H
	DB	00H
	DB	00H
	DB	00H
	DB	00H
	DB	00H
	DB	05H
	DB	023H
	DB	013H
	DB	02eH
	DB	02eH
	DB	02eH
	DB	02eH
	DB	02eH
	DB	02eH
	DB	02eH
	DB	02eH
	DB	02eH
	DB	02eH
	DB	02eH
	DB	02eH
	DB	02eH
	DB	02eH
	DB	02eH
	DB	02eH
	DB	02eH
	DB	02eH
	DB	02eH
	DB	02eH
	DB	02eH
	DB	02eH
	DB	016H
	DB	0deH
	DB	042H
	DB	07aH
	DB	097H
	DB	097H
	DB	05fH
	DB	07bH
	DB	072H
	DB	053H
	DB	038H
	DB	038H
	DB	05cH
	DB	014H
	DB	09bH
	DB	0caH
	DB	0eH
	DB	01H
	DB	01H
	DB	01H
	DB	01H
	DB	01H
	DB	01H
	DB	01H
	DB	01H
	DB	01H
	DB	01H
	DB	01H
	DB	01H
	DB	01H
	DB	01H
	DB	01H
	DB	01H
	DB	01H
	DB	01H
	DB	01H
	DB	01H
	DB	01H
	DB	01H
	DB	01H
	DB	01H
	DB	01H
	DB	01H
	DB	01H
	DB	01H
	DB	01H
	DB	01H
	DB	01H
	DB	01H
	DB	01H
	DB	01H
	DB	01H
	DB	01H
	DB	011H
	DB	00H
	DB	056H
	DB	055H
	DB	01H
	DB	06H
	DB	0fH
	DB	053H
	DB	09H
	DB	044H
	DB	079H
	DB	097H
	DB	097H
	DB	097H
	DB	07aH
	DB	02bH
	DB	0c5H
	DB	02eH
	DB	02eH
	DB	02eH
	DB	02eH
	DB	02eH
	DB	02eH
	DB	02eH
	DB	02eH
	DB	02eH
	DB	02eH
	DB	02eH
	DB	02eH
	DB	02eH
	DB	02eH
	DB	02eH
	DB	02eH
	DB	02eH
	DB	02eH
	DB	02eH
	DB	02eH
	DB	02eH
	DB	02eH
	DB	02eH
	DB	02eH
	DB	02eH
	DB	0c5H
	DB	0d7H
	DB	00H
	DB	00H
	DB	00H
	DB	00H
	DB	00H
	DB	05H
	DB	0bbH
	DB	0c7H
	DB	013H
	DB	013H
	DB	013H
	DB	013H
	DB	013H
	DB	013H
	DB	013H
	DB	013H
	DB	013H
	DB	013H
	DB	013H
	DB	013H
	DB	013H
	DB	013H
	DB	013H
	DB	013H
	DB	013H
	DB	013H
	DB	013H
	DB	013H
	DB	013H
	DB	013H
	DB	013H
	DB	016H
	DB	0e0H
	DB	097H
	DB	073H
	DB	073H
	DB	07aH
	DB	087H
	DB	0b0H
	DB	05eH
	DB	03eH
	DB	02cH
	DB	038H
	DB	064H
	DB	075H
	DB	011H
	DB	00H
	DB	011H
	DB	01H
	DB	01H
	DB	01H
	DB	01H
	DB	01H
	DB	01H
	DB	01H
	DB	01H
	DB	01H
	DB	01H
	DB	01H
	DB	01H
	DB	01H
	DB	01H
	DB	01H
	DB	01H
	DB	01H
	DB	01H
	DB	01H
	DB	01H
	DB	01H
	DB	01H
	DB	01H
	DB	01H
	DB	01H
	DB	01H
	DB	01H
	DB	01H
	DB	01H
	DB	01H
	DB	01H
	DB	01H
	DB	01H
	DB	01H
	DB	01H
	DB	092H
	DB	00H
	DB	026H
	DB	0bfH
	DB	040H
	DB	022H
	DB	01aH
	DB	0fH
	DB	086H
	DB	079H
	DB	073H
	DB	073H
	DB	073H
	DB	097H
	DB	020H
	DB	07H
	DB	013H
	DB	013H
	DB	013H
	DB	013H
	DB	013H
	DB	013H
	DB	013H
	DB	013H
	DB	013H
	DB	013H
	DB	013H
	DB	013H
	DB	013H
	DB	013H
	DB	013H
	DB	013H
	DB	013H
	DB	013H
	DB	013H
	DB	013H
	DB	013H
	DB	013H
	DB	013H
	DB	013H
	DB	013H
	DB	013H
	DB	016H
	DB	0d7H
	DB	00H
	DB	00H
	DB	00H
	DB	00H
	DB	00H
	DB	05H
	DB	019H
	DB	07H
	DB	0c6H
	DB	0c7H
	DB	0c7H
	DB	0c7H
	DB	0c7H
	DB	0c7H
	DB	0c7H
	DB	0c7H
	DB	0c7H
	DB	0c7H
	DB	0c7H
	DB	0c7H
	DB	0c7H
	DB	0c7H
	DB	0c7H
	DB	0c7H
	DB	0c7H
	DB	0c7H
	DB	0c7H
	DB	0c7H
	DB	0c7H
	DB	0c7H
	DB	0c7H
	DB	0c6H
	DB	0c6H
	DB	015H
	DB	073H
	DB	073H
	DB	079H
	DB	07bH
	DB	099H
	DB	051H
	DB	0dH
	DB	022H
	DB	038H
	DB	0dH
	DB	01aH
	DB	0fH
	DB	069H
	DB	036H
	DB	00H
	DB	011H
	DB	01H
	DB	011H
	DB	00H
	DB	01H
	DB	01H
	DB	01H
	DB	01H
	DB	01H
	DB	01H
	DB	01H
	DB	01H
	DB	01H
	DB	01H
	DB	01H
	DB	01H
	DB	01H
	DB	01H
	DB	01H
	DB	01H
	DB	01H
	DB	01H
	DB	01H
	DB	01H
	DB	01H
	DB	01H
	DB	01H
	DB	01H
	DB	00H
	DB	0aH
	DB	01H
	DB	01H
	DB	092H
	DB	0eH
	DB	050H
	DB	054H
	DB	05cH
	DB	09H
	DB	036H
	DB	01aH
	DB	01aH
	DB	086H
	DB	07bH
	DB	031H
	DB	031H
	DB	031H
	DB	031H
	DB	055H
	DB	027H
	DB	02eH
	DB	0c7H
	DB	0c7H
	DB	0c7H
	DB	0c7H
	DB	0c7H
	DB	0c7H
	DB	0c7H
	DB	0c7H
	DB	0c7H
	DB	0c7H
	DB	0c7H
	DB	0c7H
	DB	0c7H
	DB	0c7H
	DB	0c7H
	DB	0c7H
	DB	0c7H
	DB	0c7H
	DB	0c7H
	DB	0c7H
	DB	0c7H
	DB	0c7H
	DB	0c7H
	DB	0c7H
	DB	0c7H
	DB	07H
	DB	02eH
	DB	0d7H
	DB	00H
	DB	00H
	DB	00H
	DB	00H
	DB	00H
	DB	05H
	DB	019H
	DB	0baH
	DB	0c6H
	DB	07H
	DB	07H
	DB	07H
	DB	07H
	DB	07H
	DB	07H
	DB	07H
	DB	07H
	DB	07H
	DB	07H
	DB	07H
	DB	07H
	DB	07H
	DB	07H
	DB	07H
	DB	07H
	DB	07H
	DB	07H
	DB	07H
	DB	07H
	DB	07H
	DB	07H
	DB	07H
	DB	013H
	DB	03H
	DB	01bH
	DB	031H
	DB	079H
	DB	07bH
	DB	07dH
	DB	0a7H
	DB	069H
	DB	09H
	DB	022H
	DB	01aH
	DB	03eH
	DB	059H
	DB	034H
	DB	053H
	DB	035H
	DB	04cH
	DB	0eH
	DB	013H
	DB	018H
	DB	021H
	DB	011H
	DB	01H
	DB	01H
	DB	01H
	DB	01H
	DB	01H
	DB	01H
	DB	01H
	DB	01H
	DB	01H
	DB	01H
	DB	01H
	DB	01H
	DB	01H
	DB	01H
	DB	01H
	DB	01H
	DB	01H
	DB	01H
	DB	01H
	DB	01H
	DB	01H
	DB	011H
	DB	05eH
	DB	08H
	DB	0eH
	DB	01H
	DB	04cH
	DB	011H
	DB	043H
	DB	02dH
	DB	026H
	DB	03eH
	DB	01aH
	DB	03eH
	DB	044H
	DB	088H
	DB	042H
	DB	055H
	DB	055H
	DB	055H
	DB	031H
	DB	01fH
	DB	013H
	DB	07H
	DB	07H
	DB	07H
	DB	07H
	DB	07H
	DB	07H
	DB	07H
	DB	07H
	DB	07H
	DB	07H
	DB	07H
	DB	07H
	DB	07H
	DB	07H
	DB	07H
	DB	07H
	DB	07H
	DB	07H
	DB	07H
	DB	07H
	DB	07H
	DB	07H
	DB	07H
	DB	07H
	DB	07H
	DB	07H
	DB	07H
	DB	02eH
	DB	0d7H
	DB	00H
	DB	00H
	DB	00H
	DB	00H
	DB	00H
	DB	05H
	DB	0dfH
	DB	0deH
	DB	07H
	DB	07H
	DB	07H
	DB	07H
	DB	07H
	DB	07H
	DB	07H
	DB	07H
	DB	07H
	DB	07H
	DB	07H
	DB	07H
	DB	07H
	DB	07H
	DB	07H
	DB	07H
	DB	07H
	DB	07H
	DB	07H
	DB	07H
	DB	07H
	DB	07H
	DB	07H
	DB	07H
	DB	07H
	DB	013H
	DB	0dfH
	DB	042H
	DB	065H
	DB	07bH
	DB	07dH
	DB	088H
	DB	059H
	DB	0b2H
	DB	06H
	DB	022H
	DB	038H
	DB	029H
	DB	014H
	DB	026H
	DB	0a0H
	DB	01cH
	DB	00H
	DB	061H
	DB	05aH
	DB	0eH
	DB	011H
	DB	01H
	DB	01H
	DB	01H
	DB	01H
	DB	01H
	DB	01H
	DB	01H
	DB	01H
	DB	01H
	DB	01H
	DB	01H
	DB	01H
	DB	01H
	DB	01H
	DB	01H
	DB	01H
	DB	01H
	DB	01H
	DB	01H
	DB	01H
	DB	01H
	DB	00H
	DB	08bH
	DB	080H
	DB	00H
	DB	035H
	DB	034H
	DB	03dH
	DB	0c3H
	DB	029H
	DB	036H
	DB	01aH
	DB	022H
	DB	086H
	DB	09cH
	DB	01bH
	DB	096H
	DB	096H
	DB	096H
	DB	055H
	DB	015H
	DB	0deH
	DB	07H
	DB	07H
	DB	07H
	DB	07H
	DB	07H
	DB	07H
	DB	07H
	DB	07H
	DB	07H
	DB	07H
	DB	07H
	DB	07H
	DB	07H
	DB	07H
	DB	07H
	DB	07H
	DB	07H
	DB	07H
	DB	07H
	DB	07H
	DB	07H
	DB	07H
	DB	07H
	DB	07H
	DB	07H
	DB	07H
	DB	07H
	DB	0baH
	DB	013H
	DB	0d7H
	DB	00H
	DB	00H
	DB	00H
	DB	00H
	DB	00H
	DB	05H
	DB	0bdH
	DB	08H
	DB	07H
	DB	0baH
	DB	0baH
	DB	0baH
	DB	0baH
	DB	0baH
	DB	0baH
	DB	0baH
	DB	0baH
	DB	0baH
	DB	0baH
	DB	0baH
	DB	0baH
	DB	0baH
	DB	0baH
	DB	0baH
	DB	0baH
	DB	0baH
	DB	0baH
	DB	0baH
	DB	0baH
	DB	0baH
	DB	0baH
	DB	0baH
	DB	0baH
	DB	07H
	DB	07H
	DB	0e6H
	DB	042H
	DB	07aH
	DB	060H
	DB	088H
	DB	075H
	DB	06aH
	DB	06aH
	DB	0dH
	DB	022H
	DB	01aH
	DB	022H
	DB	051H
	DB	062H
	DB	0c3H
	DB	029H
	DB	033H
	DB	05eH
	DB	0eH
	DB	011H
	DB	01H
	DB	011H
	DB	01H
	DB	01H
	DB	01H
	DB	01H
	DB	01H
	DB	01H
	DB	01H
	DB	011H
	DB	011H
	DB	01H
	DB	01H
	DB	01H
	DB	01H
	DB	01H
	DB	01H
	DB	01H
	DB	011H
	DB	011H
	DB	011H
	DB	0eH
	DB	09H
	DB	032H
	DB	072H
	DB	0c3H
	DB	07eH
	DB	0abH
	DB	038H
	DB	053H
	DB	01aH
	DB	053H
	DB	07cH
	DB	0b3H
	DB	078H
	DB	048H
	DB	078H
	DB	078H
	DB	096H
	DB	0a3H
	DB	03H
	DB	0c7H
	DB	0baH
	DB	0baH
	DB	0baH
	DB	0baH
	DB	0baH
	DB	0baH
	DB	0baH
	DB	0baH
	DB	0baH
	DB	0baH
	DB	0baH
	DB	0baH
	DB	0baH
	DB	0baH
	DB	0baH
	DB	0baH
	DB	0baH
	DB	0baH
	DB	0baH
	DB	0baH
	DB	0baH
	DB	0baH
	DB	0baH
	DB	0baH
	DB	0baH
	DB	0baH
	DB	0baH
	DB	0deH
	DB	013H
	DB	0d7H
	DB	00H
	DB	00H
	DB	00H
	DB	00H
	DB	00H
	DB	05H
	DB	0bdH
	DB	08H
	DB	0baH
	DB	0deH
	DB	0deH
	DB	0deH
	DB	0deH
	DB	0deH
	DB	0deH
	DB	0deH
	DB	0deH
	DB	0deH
	DB	0deH
	DB	0deH
	DB	0deH
	DB	0deH
	DB	0deH
	DB	0deH
	DB	0deH
	DB	0deH
	DB	0deH
	DB	0deH
	DB	0deH
	DB	0deH
	DB	0deH
	DB	0deH
	DB	0deH
	DB	0deH
	DB	0baH
	DB	08H
	DB	03bH
	DB	042H
	DB	087H
	DB	0b1H
	DB	075H
	DB	062H
	DB	0abH
	DB	017H
	DB	03bH
	DB	05cH
	DB	0fH
	DB	036H
	DB	0fH
	DB	053H
	DB	06dH
	DB	063H
	DB	022H
	DB	09H
	DB	036H
	DB	03eH
	DB	01eH
	DB	01eH
	DB	021H
	DB	01H
	DB	011H
	DB	011H
	DB	011H
	DB	011H
	DB	01eH
	DB	01eH
	DB	011H
	DB	011H
	DB	011H
	DB	011H
	DB	01H
	DB	01H
	DB	0c2H
	DB	0c2H
	DB	022H
	DB	035H
	DB	014H
	DB	03eH
	DB	062H
	DB	028H
	DB	038H
	DB	0fH
	DB	026H
	DB	070H
	DB	053H
	DB	038H
	DB	076H
	DB	06aH
	DB	0a4H
	DB	054H
	DB	0a4H
	DB	0a4H
	DB	048H
	DB	0a4H
	DB	027H
	DB	07H
	DB	0deH
	DB	0deH
	DB	0deH
	DB	0deH
	DB	0deH
	DB	0deH
	DB	0deH
	DB	0deH
	DB	0deH
	DB	0deH
	DB	0deH
	DB	0deH
	DB	0deH
	DB	0deH
	DB	0deH
	DB	0deH
	DB	0deH
	DB	0deH
	DB	0deH
	DB	0deH
	DB	0deH
	DB	0deH
	DB	0deH
	DB	0deH
	DB	0deH
	DB	0deH
	DB	0deH
	DB	0deH
	DB	08H
	DB	0c6H
	DB	0aH
	DB	00H
	DB	00H
	DB	00H
	DB	00H
	DB	00H
	DB	05H
	DB	012H
	DB	0acH
	DB	08H
	DB	08H
	DB	08H
	DB	08H
	DB	08H
	DB	08H
	DB	08H
	DB	08H
	DB	08H
	DB	08H
	DB	08H
	DB	08H
	DB	08H
	DB	08H
	DB	08H
	DB	08H
	DB	08H
	DB	08H
	DB	08H
	DB	08H
	DB	08H
	DB	08H
	DB	08H
	DB	08H
	DB	08H
	DB	08H
	DB	08H
	DB	0baH
	DB	0cH
	DB	018H
	DB	055H
	DB	088H
	DB	069H
	DB	03cH
	DB	059H
	DB	0faH
	DB	0a1H
	DB	086H
	DB	03eH
	DB	02cH
	DB	01aH
	DB	043H
	DB	032H
	DB	093H
	DB	01aH
	DB	0abH
	DB	057H
	DB	02cH
	DB	0dH
	DB	06H
	DB	038H
	DB	03eH
	DB	02cH
	DB	053H
	DB	03eH
	DB	01H
	DB	086H
	DB	067H
	DB	01H
	DB	03eH
	DB	03eH
	DB	01aH
	DB	053H
	DB	01aH
	DB	014H
	DB	025H
	DB	0fH
	DB	0a5H
	DB	06bH
	DB	038H
	DB	05dH
	DB	0c0H
	DB	05fH
	DB	053H
	DB	0fH
	DB	022H
	DB	026H
	DB	06dH
	DB	0b3H
	DB	015H
	DB	040H
	DB	054H
	DB	054H
	DB	039H
	DB	020H
	DB	019H
	DB	07H
	DB	08H
	DB	08H
	DB	08H
	DB	08H
	DB	08H
	DB	08H
	DB	08H
	DB	08H
	DB	08H
	DB	08H
	DB	08H
	DB	08H
	DB	08H
	DB	08H
	DB	08H
	DB	08H
	DB	08H
	DB	08H
	DB	08H
	DB	08H
	DB	08H
	DB	08H
	DB	08H
	DB	08H
	DB	08H
	DB	08H
	DB	08H
	DB	08H
	DB	08H
	DB	0acH
	DB	0c7H
	DB	0aH
	DB	00H
	DB	00H
	DB	00H
	DB	00H
	DB	00H
	DB	05H
	DB	0e0H
	DB	0cH
	DB	08H
	DB	0acH
	DB	0acH
	DB	0acH
	DB	0acH
	DB	0acH
	DB	0acH
	DB	0acH
	DB	0acH
	DB	0acH
	DB	0acH
	DB	0acH
	DB	0acH
	DB	0acH
	DB	0acH
	DB	0acH
	DB	0acH
	DB	0acH
	DB	0acH
	DB	0acH
	DB	0acH
	DB	0acH
	DB	0acH
	DB	0acH
	DB	0acH
	DB	0acH
	DB	0acH
	DB	0acH
	DB	0deH
	DB	0cH
	DB	03bH
	DB	042H
	DB	061H
	DB	080H
	DB	08bH
	DB	0a8H
	DB	034H
	DB	033H
	DB	082H
	DB	036H
	DB	022H
	DB	0a0H
	DB	0b0H
	DB	022H
	DB	029H
	DB	0a0H
	DB	0dH
	DB	0dH
	DB	0fbH
	DB	01cH
	DB	05dH
	DB	0a3H
	DB	036H
	DB	036H
	DB	05dH
	DB	02cH
	DB	067H
	DB	0a8H
	DB	01aH
	DB	036H
	DB	06H
	DB	070H
	DB	03bH
	DB	03fH
	DB	0fH
	DB	06bH
	DB	0a5H
	DB	09H
	DB	02dH
	DB	072H
	DB	022H
	DB	057H
	DB	0a1H
	DB	014H
	DB	022H
	DB	086H
	DB	0a1H
	DB	061H
	DB	018H
	DB	015H
	DB	040H
	DB	040H
	DB	040H
	DB	054H
	DB	019H
	DB	07H
	DB	0acH
	DB	0acH
	DB	0acH
	DB	0acH
	DB	0acH
	DB	0acH
	DB	0acH
	DB	0acH
	DB	0acH
	DB	0acH
	DB	0acH
	DB	0acH
	DB	0acH
	DB	0acH
	DB	0acH
	DB	0acH
	DB	0acH
	DB	0acH
	DB	0acH
	DB	0acH
	DB	0acH
	DB	0acH
	DB	0acH
	DB	0acH
	DB	0acH
	DB	0acH
	DB	0acH
	DB	0acH
	DB	0acH
	DB	0acH
	DB	0acH
	DB	07H
	DB	0aH
	DB	00H
	DB	00H
	DB	00H
	DB	00H
	DB	00H
	DB	05H
	DB	0e0H
	DB	0cH
	DB	0acH
	DB	0acH
	DB	0acH
	DB	0acH
	DB	0acH
	DB	0acH
	DB	0acH
	DB	0acH
	DB	0acH
	DB	0acH
	DB	0acH
	DB	0acH
	DB	0acH
	DB	0acH
	DB	0acH
	DB	0acH
	DB	0acH
	DB	0acH
	DB	0acH
	DB	0acH
	DB	0acH
	DB	0acH
	DB	0acH
	DB	0acH
	DB	0acH
	DB	0acH
	DB	0acH
	DB	0acH
	DB	0acH
	DB	08H
	DB	0cH
	DB	03fH
	DB	078H
	DB	069H
	DB	0a8H
	DB	06aH
	DB	064H
	DB	034H
	DB	0c1H
	DB	0c0H
	DB	031H
	DB	03bH
	DB	038H
	DB	070H
	DB	025H
	DB	03fH
	DB	038H
	DB	044H
	DB	0fbH
	DB	038H
	DB	0a5H
	DB	0bfH
	DB	0fH
	DB	07eH
	DB	057H
	DB	022H
	DB	067H
	DB	0b3H
	DB	022H
	DB	044H
	DB	051H
	DB	03eH
	DB	076H
	DB	059H
	DB	022H
	DB	069H
	DB	06bH
	DB	01aH
	DB	072H
	DB	0cdH
	DB	070H
	DB	014H
	DB	03fH
	DB	029H
	DB	05aH
	DB	028H
	DB	055H
	DB	029H
	DB	072H
	DB	015H
	DB	072H
	DB	015H
	DB	072H
	DB	04H
	DB	0baH
	DB	0acH
	DB	0acH
	DB	0acH
	DB	0acH
	DB	0acH
	DB	0acH
	DB	0acH
	DB	0acH
	DB	0acH
	DB	0acH
	DB	0acH
	DB	0acH
	DB	0acH
	DB	0acH
	DB	0acH
	DB	0acH
	DB	0acH
	DB	0acH
	DB	0acH
	DB	0acH
	DB	0acH
	DB	0acH
	DB	0acH
	DB	0acH
	DB	0acH
	DB	0acH
	DB	0acH
	DB	0acH
	DB	0acH
	DB	0acH
	DB	0acH
	DB	0cH
	DB	07H
	DB	0aH
	DB	00H
	DB	00H
	DB	00H
	DB	00H
	DB	00H
	DB	05H
	DB	02bH
	DB	0caH
	DB	0cH
	DB	0cH
	DB	0cH
	DB	0cH
	DB	0cH
	DB	0cH
	DB	0cH
	DB	0cH
	DB	0cH
	DB	0cH
	DB	0cH
	DB	0cH
	DB	0cH
	DB	0cH
	DB	0cH
	DB	0cH
	DB	0cH
	DB	0cH
	DB	0cH
	DB	0cH
	DB	0cH
	DB	0cH
	DB	0cH
	DB	0cH
	DB	0cH
	DB	0cH
	DB	0cH
	DB	0cH
	DB	0cH
	DB	0acH
	DB	0baH
	DB	0deH
	DB	0e0H
	DB	0a3H
	DB	075H
	DB	06cH
	DB	05aH
	DB	034H
	DB	017H
	DB	0c0H
	DB	02H
	DB	0faH
	DB	040H
	DB	01aH
	DB	01aH
	DB	014H
	DB	05dH
	DB	0cdH
	DB	029H
	DB	038H
	DB	074H
	DB	08bH
	DB	01aH
	DB	034H
	DB	074H
	DB	022H
	DB	068H
	DB	063H
	DB	022H
	DB	074H
	DB	0d6H
	DB	01aH
	DB	044H
	DB	064H
	DB	014H
	DB	0cdH
	DB	03dH
	DB	05dH
	DB	070H
	DB	038H
	DB	03eH
	DB	02fH
	DB	069H
	DB	02dH
	DB	062H
	DB	018H
	DB	047H
	DB	03dH
	DB	03dH
	DB	03dH
	DB	072H
	DB	018H
	DB	03H
	DB	0c7H
	DB	0acH
	DB	0cH
	DB	0cH
	DB	0cH
	DB	0cH
	DB	0cH
	DB	0cH
	DB	0cH
	DB	0cH
	DB	0cH
	DB	0cH
	DB	0cH
	DB	0cH
	DB	0cH
	DB	0cH
	DB	0cH
	DB	0cH
	DB	0cH
	DB	0cH
	DB	0cH
	DB	0cH
	DB	0cH
	DB	0cH
	DB	0cH
	DB	0cH
	DB	0cH
	DB	0cH
	DB	0cH
	DB	0cH
	DB	0cH
	DB	0cH
	DB	0cH
	DB	0caH
	DB	0baH
	DB	0aH
	DB	00H
	DB	00H
	DB	00H
	DB	00H
	DB	00H
	DB	05H
	DB	02bH
	DB	03H
	DB	0caH
	DB	0caH
	DB	0caH
	DB	0caH
	DB	0caH
	DB	0caH
	DB	0caH
	DB	0caH
	DB	0caH
	DB	0caH
	DB	0caH
	DB	0caH
	DB	0caH
	DB	0caH
	DB	0caH
	DB	0caH
	DB	0caH
	DB	0caH
	DB	0caH
	DB	0caH
	DB	0caH
	DB	0caH
	DB	0caH
	DB	0caH
	DB	0caH
	DB	0caH
	DB	0caH
	DB	0caH
	DB	0aeH
	DB	0cH
	DB	08H
	DB	07H
	DB	013H
	DB	04H
	DB	03dH
	DB	0b0H
	DB	0faH
	DB	017H
	DB	0fbH
	DB	0a0H
	DB	02dH
	DB	02H
	DB	02H
	DB	017H
	DB	0a5H
	DB	014H
	DB	053H
	DB	038H
	DB	070H
	DB	09H
	DB	093H
	DB	093H
	DB	05dH
	DB	043H
	DB	029H
	DB	038H
	DB	068H
	DB	063H
	DB	02cH
	DB	029H
	DB	044H
	DB	05dH
	DB	025H
	DB	026H
	DB	09H
	DB	036H
	DB	038H
	DB	01aH
	DB	01aH
	DB	029H
	DB	08bH
	DB	02dH
	DB	06aH
	DB	054H
	DB	01cH
	DB	03bH
	DB	018H
	DB	03bH
	DB	03bH
	DB	03dH
	DB	01fH
	DB	0acH
	DB	013H
	DB	08H
	DB	0acH
	DB	0aeH
	DB	0caH
	DB	0caH
	DB	0caH
	DB	0caH
	DB	0caH
	DB	0caH
	DB	0caH
	DB	0caH
	DB	0caH
	DB	0caH
	DB	0caH
	DB	0caH
	DB	0caH
	DB	0caH
	DB	0caH
	DB	0caH
	DB	0caH
	DB	0caH
	DB	0caH
	DB	0caH
	DB	0caH
	DB	0caH
	DB	0caH
	DB	0caH
	DB	0caH
	DB	0caH
	DB	0caH
	DB	0caH
	DB	0caH
	DB	0caH
	DB	03H
	DB	08H
	DB	0aH
	DB	00H
	DB	00H
	DB	00H
	DB	00H
	DB	00H
	DB	021H
	DB	02bH
	DB	03H
	DB	0caH
	DB	03H
	DB	03H
	DB	03H
	DB	03H
	DB	03H
	DB	03H
	DB	03H
	DB	03H
	DB	03H
	DB	03H
	DB	03H
	DB	03H
	DB	03H
	DB	03H
	DB	03H
	DB	03H
	DB	03H
	DB	03H
	DB	03H
	DB	03H
	DB	03H
	DB	03H
	DB	03H
	DB	03H
	DB	03H
	DB	03H
	DB	0caH
	DB	0caH
	DB	0aeH
	DB	0acH
	DB	0baH
	DB	013H
	DB	016H
	DB	0caH
	DB	01cH
	DB	031H
	DB	06cH
	DB	0bfH
	DB	06eH
	DB	02dH
	DB	032H
	DB	0ffH
	DB	02H
	DB	02H
	DB	0a1H
	DB	0a7H
	DB	03dH
	DB	06H
	DB	01aH
	DB	01aH
	DB	038H
	DB	06H
	DB	014H
	DB	036H
	DB	070H
	DB	075H
	DB	082H
	DB	014H
	DB	05dH
	DB	070H
	DB	036H
	DB	014H
	DB	01aH
	DB	01aH
	DB	035H
	DB	01cH
	DB	074H
	DB	0d5H
	DB	030H
	DB	08bH
	DB	054H
	DB	02bH
	DB	05eH
	DB	03bH
	DB	03bH
	DB	03bH
	DB	03bH
	DB	018H
	DB	02fH
	DB	0c6H
	DB	02eH
	DB	07H
	DB	08H
	DB	0cH
	DB	0caH
	DB	0caH
	DB	03H
	DB	03H
	DB	03H
	DB	03H
	DB	03H
	DB	03H
	DB	03H
	DB	03H
	DB	03H
	DB	03H
	DB	03H
	DB	03H
	DB	03H
	DB	03H
	DB	03H
	DB	03H
	DB	03H
	DB	03H
	DB	03H
	DB	03H
	DB	03H
	DB	03H
	DB	03H
	DB	03H
	DB	03H
	DB	03H
	DB	03H
	DB	03H
	DB	03H
	DB	03H
	DB	08H
	DB	0aH
	DB	00H
	DB	00H
	DB	00H
	DB	00H
	DB	00H
	DB	0b9H
	DB	0e4H
	DB	03H
	DB	03H
	DB	03H
	DB	03H
	DB	03H
	DB	03H
	DB	03H
	DB	03H
	DB	03H
	DB	03H
	DB	03H
	DB	03H
	DB	03H
	DB	03H
	DB	03H
	DB	03H
	DB	03H
	DB	03H
	DB	03H
	DB	03H
	DB	03H
	DB	03H
	DB	03H
	DB	03H
	DB	03H
	DB	03H
	DB	03H
	DB	03H
	DB	03H
	DB	03H
	DB	03H
	DB	0cH
	DB	08H
	DB	07H
	DB	013H
	DB	016H
	DB	07H
	DB	04H
	DB	03dH
	DB	068H
	DB	0bfH
	DB	0c1H
	DB	033H
	DB	0ffH
	DB	02H
	DB	0ffH
	DB	033H
	DB	02H
	DB	0feH
	DB	06eH
	DB	064H
	DB	050H
	DB	054H
	DB	026H
	DB	025H
	DB	014H
	DB	01aH
	DB	01cH
	DB	029H
	DB	053H
	DB	0fH
	DB	036H
	DB	026H
	DB	03bH
	DB	0a6H
	DB	059H
	DB	028H
	DB	0bfH
	DB	034H
	DB	050H
	DB	03bH
	DB	0e0H
	DB	03fH
	DB	095H
	DB	095H
	DB	095H
	DB	095H
	DB	03bH
	DB	03fH
	DB	03H
	DB	016H
	DB	02eH
	DB	0c7H
	DB	0deH
	DB	0acH
	DB	0caH
	DB	03H
	DB	03H
	DB	03H
	DB	03H
	DB	03H
	DB	03H
	DB	03H
	DB	03H
	DB	03H
	DB	03H
	DB	03H
	DB	03H
	DB	03H
	DB	03H
	DB	03H
	DB	03H
	DB	03H
	DB	03H
	DB	03H
	DB	03H
	DB	03H
	DB	03H
	DB	03H
	DB	03H
	DB	03H
	DB	03H
	DB	03H
	DB	03H
	DB	03H
	DB	03H
	DB	03H
	DB	03H
	DB	0acH
	DB	0aH
	DB	00H
	DB	00H
	DB	00H
	DB	00H
	DB	00H
	DB	0b9H
	DB	0e5H
	DB	024H
	DB	03H
	DB	03H
	DB	03H
	DB	03H
	DB	03H
	DB	03H
	DB	03H
	DB	03H
	DB	03H
	DB	03H
	DB	03H
	DB	03H
	DB	03H
	DB	03H
	DB	03H
	DB	03H
	DB	03H
	DB	03H
	DB	03H
	DB	03H
	DB	03H
	DB	03H
	DB	03H
	DB	03H
	DB	03H
	DB	03H
	DB	03H
	DB	03H
	DB	03H
	DB	03H
	DB	0caH
	DB	0cH
	DB	08H
	DB	07H
	DB	013H
	DB	02eH
	DB	02eH
	DB	06fH
	DB	019H
	DB	0a3H
	DB	0a8H
	DB	0c1H
	DB	02H
	DB	02H
	DB	0c1H
	DB	02dH
	DB	0a0H
	DB	0fbH
	DB	0d6H
	DB	0bfH
	DB	0a1H
	DB	0c1H
	DB	032H
	DB	02dH
	DB	0fbH
	DB	05aH
	DB	045H
	DB	045H
	DB	0abH
	DB	034H
	DB	0a0H
	DB	0a1H
	DB	06eH
	DB	05aH
	DB	09cH
	DB	044H
	DB	03bH
	DB	071H
	DB	071H
	DB	02bH
	DB	03fH
	DB	03fH
	DB	03fH
	DB	03fH
	DB	05eH
	DB	03fH
	DB	04H
	DB	07H
	DB	016H
	DB	013H
	DB	0c7H
	DB	0baH
	DB	06fH
	DB	0caH
	DB	03H
	DB	03H
	DB	03H
	DB	03H
	DB	03H
	DB	03H
	DB	03H
	DB	03H
	DB	03H
	DB	03H
	DB	03H
	DB	03H
	DB	03H
	DB	03H
	DB	03H
	DB	03H
	DB	03H
	DB	03H
	DB	03H
	DB	03H
	DB	03H
	DB	03H
	DB	03H
	DB	03H
	DB	03H
	DB	03H
	DB	03H
	DB	03H
	DB	03H
	DB	03H
	DB	03H
	DB	03H
	DB	024H
	DB	0cH
	DB	0aH
	DB	00H
	DB	00H
	DB	00H
	DB	00H
	DB	00H
	DB	0b9H
	DB	01fH
	DB	024H
	DB	03H
	DB	024H
	DB	024H
	DB	024H
	DB	024H
	DB	024H
	DB	024H
	DB	024H
	DB	024H
	DB	024H
	DB	024H
	DB	024H
	DB	024H
	DB	024H
	DB	024H
	DB	024H
	DB	024H
	DB	024H
	DB	024H
	DB	024H
	DB	024H
	DB	024H
	DB	024H
	DB	024H
	DB	024H
	DB	024H
	DB	024H
	DB	024H
	DB	024H
	DB	024H
	DB	03H
	DB	03H
	DB	0cH
	DB	08H
	DB	07H
	DB	07H
	DB	0c6H
	DB	02eH
	DB	0c6H
	DB	0aeH
	DB	025H
	DB	04fH
	DB	06aH
	DB	032H
	DB	033H
	DB	0c0H
	DB	028H
	DB	034H
	DB	06bH
	DB	059H
	DB	069H
	DB	067H
	DB	07eH
	DB	051H
	DB	068H
	DB	088H
	DB	07cH
	DB	05fH
	DB	086H
	DB	031H
	DB	048H
	DB	03bH
	DB	02bH
	DB	071H
	DB	025H
	DB	02fH
	DB	026H
	DB	01cH
	DB	01cH
	DB	01cH
	DB	01cH
	DB	01cH
	DB	03fH
	DB	01cH
	DB	019H
	DB	08H
	DB	02eH
	DB	013H
	DB	0c6H
	DB	07H
	DB	0deH
	DB	0acH
	DB	0caH
	DB	03H
	DB	03H
	DB	024H
	DB	024H
	DB	024H
	DB	024H
	DB	024H
	DB	024H
	DB	024H
	DB	024H
	DB	024H
	DB	024H
	DB	024H
	DB	024H
	DB	024H
	DB	024H
	DB	024H
	DB	024H
	DB	024H
	DB	024H
	DB	024H
	DB	024H
	DB	024H
	DB	024H
	DB	024H
	DB	024H
	DB	024H
	DB	024H
	DB	024H
	DB	024H
	DB	024H
	DB	024H
	DB	024H
	DB	024H
	DB	0cH
	DB	0aH
	DB	00H
	DB	00H
	DB	00H
	DB	00H
	DB	00H
	DB	0b9H
	DB	0e6H
	DB	027H
	DB	024H
	DB	024H
	DB	024H
	DB	024H
	DB	024H
	DB	024H
	DB	024H
	DB	024H
	DB	024H
	DB	024H
	DB	024H
	DB	024H
	DB	024H
	DB	024H
	DB	024H
	DB	024H
	DB	024H
	DB	024H
	DB	024H
	DB	024H
	DB	024H
	DB	024H
	DB	024H
	DB	024H
	DB	024H
	DB	024H
	DB	024H
	DB	024H
	DB	024H
	DB	024H
	DB	024H
	DB	03H
	DB	03H
	DB	0cH
	DB	0acH
	DB	0deH
	DB	07H
	DB	0c7H
	DB	0c6H
	DB	013H
	DB	07H
	DB	06fH
	DB	036H
	DB	03dH
	DB	050H
	DB	0a8H
	DB	034H
	DB	034H
	DB	06bH
	DB	0d2H
	DB	069H
	DB	07eH
	DB	0beH
	DB	031H
	DB	048H
	DB	072H
	DB	03bH
	DB	01cH
	DB	02fH
	DB	019H
	DB	02fH
	DB	0e0H
	DB	026H
	DB	026H
	DB	026H
	DB	026H
	DB	026H
	DB	026H
	DB	026H
	DB	02bH
	DB	02bH
	DB	0e0H
	DB	04H
	DB	0acH
	DB	013H
	DB	013H
	DB	0c7H
	DB	07H
	DB	0baH
	DB	08H
	DB	0cH
	DB	0caH
	DB	03H
	DB	024H
	DB	024H
	DB	024H
	DB	024H
	DB	024H
	DB	024H
	DB	024H
	DB	024H
	DB	024H
	DB	024H
	DB	024H
	DB	024H
	DB	024H
	DB	024H
	DB	024H
	DB	024H
	DB	024H
	DB	024H
	DB	024H
	DB	024H
	DB	024H
	DB	024H
	DB	024H
	DB	024H
	DB	024H
	DB	024H
	DB	024H
	DB	024H
	DB	024H
	DB	024H
	DB	024H
	DB	024H
	DB	024H
	DB	027H
	DB	0caH
	DB	0d8H
	DB	00H
	DB	00H
	DB	00H
	DB	00H
	DB	00H
	DB	0b9H
	DB	0e6H
	DB	04H
	DB	027H
	DB	027H
	DB	027H
	DB	027H
	DB	027H
	DB	027H
	DB	027H
	DB	027H
	DB	027H
	DB	027H
	DB	027H
	DB	027H
	DB	027H
	DB	027H
	DB	027H
	DB	027H
	DB	027H
	DB	027H
	DB	027H
	DB	027H
	DB	027H
	DB	027H
	DB	027H
	DB	027H
	DB	027H
	DB	027H
	DB	027H
	DB	027H
	DB	027H
	DB	027H
	DB	027H
	DB	024H
	DB	024H
	DB	03H
	DB	0caH
	DB	0cH
	DB	0acH
	DB	08H
	DB	0baH
	DB	07H
	DB	0c7H
	DB	013H
	DB	0c6H
	DB	0deH
	DB	0cH
	DB	09H
	DB	03bH
	DB	096H
	DB	074H
	DB	07eH
	DB	060H
	DB	07cH
	DB	079H
	DB	031H
	DB	04fH
	DB	015H
	DB	03bH
	DB	01cH
	DB	0dH
	DB	0dH
	DB	0dH
	DB	0dH
	DB	0dH
	DB	071H
	DB	0dH
	DB	012H
	DB	026H
	DB	0e0H
	DB	0dH
	DB	09H
	DB	03H
	DB	0deH
	DB	013H
	DB	0c6H
	DB	0c7H
	DB	07H
	DB	0deH
	DB	08H
	DB	0acH
	DB	0caH
	DB	03H
	DB	03H
	DB	024H
	DB	027H
	DB	027H
	DB	027H
	DB	027H
	DB	027H
	DB	027H
	DB	027H
	DB	027H
	DB	027H
	DB	027H
	DB	027H
	DB	027H
	DB	027H
	DB	027H
	DB	027H
	DB	027H
	DB	027H
	DB	027H
	DB	027H
	DB	027H
	DB	027H
	DB	027H
	DB	027H
	DB	027H
	DB	027H
	DB	027H
	DB	027H
	DB	027H
	DB	027H
	DB	027H
	DB	027H
	DB	027H
	DB	027H
	DB	04H
	DB	0caH
	DB	0d8H
	DB	00H
	DB	00H
	DB	00H
	DB	00H
	DB	00H
	DB	0b9H
	DB	047H
	DB	04H
	DB	04H
	DB	04H
	DB	04H
	DB	04H
	DB	04H
	DB	04H
	DB	04H
	DB	04H
	DB	04H
	DB	04H
	DB	04H
	DB	04H
	DB	04H
	DB	04H
	DB	04H
	DB	04H
	DB	04H
	DB	04H
	DB	04H
	DB	04H
	DB	04H
	DB	04H
	DB	04H
	DB	04H
	DB	04H
	DB	04H
	DB	04H
	DB	04H
	DB	04H
	DB	04H
	DB	04H
	DB	04H
	DB	027H
	DB	024H
	DB	024H
	DB	03H
	DB	0caH
	DB	0cH
	DB	0acH
	DB	08H
	DB	0deH
	DB	0baH
	DB	07H
	DB	0c7H
	DB	07H
	DB	07H
	DB	08H
	DB	0cH
	DB	06H
	DB	02fH
	DB	02bH
	DB	029H
	DB	018H
	DB	03bH
	DB	03bH
	DB	095H
	DB	01cH
	DB	0dH
	DB	02fH
	DB	071H
	DB	071H
	DB	071H
	DB	071H
	DB	071H
	DB	02fH
	DB	023H
	DB	027H
	DB	03H
	DB	08H
	DB	07H
	DB	0c7H
	DB	07H
	DB	0baH
	DB	0deH
	DB	08H
	DB	0acH
	DB	0cH
	DB	0caH
	DB	03H
	DB	03H
	DB	024H
	DB	027H
	DB	04H
	DB	04H
	DB	04H
	DB	04H
	DB	04H
	DB	04H
	DB	04H
	DB	04H
	DB	04H
	DB	04H
	DB	04H
	DB	04H
	DB	04H
	DB	04H
	DB	04H
	DB	04H
	DB	04H
	DB	04H
	DB	04H
	DB	04H
	DB	04H
	DB	04H
	DB	04H
	DB	04H
	DB	04H
	DB	04H
	DB	04H
	DB	04H
	DB	04H
	DB	04H
	DB	04H
	DB	04H
	DB	04H
	DB	04H
	DB	04H
	DB	03H
	DB	0d8H
	DB	00H
	DB	00H
	DB	00H
	DB	00H
	DB	00H
	DB	010H
	DB	047H
	DB	023H
	DB	04H
	DB	04H
	DB	04H
	DB	04H
	DB	04H
	DB	04H
	DB	04H
	DB	04H
	DB	04H
	DB	04H
	DB	04H
	DB	04H
	DB	04H
	DB	04H
	DB	04H
	DB	04H
	DB	04H
	DB	04H
	DB	04H
	DB	04H
	DB	04H
	DB	04H
	DB	04H
	DB	04H
	DB	04H
	DB	04H
	DB	04H
	DB	04H
	DB	04H
	DB	04H
	DB	04H
	DB	04H
	DB	04H
	DB	04H
	DB	027H
	DB	027H
	DB	024H
	DB	03H
	DB	03H
	DB	0caH
	DB	0cH
	DB	0cH
	DB	0acH
	DB	08H
	DB	08H
	DB	0deH
	DB	0baH
	DB	07H
	DB	0baH
	DB	0deH
	DB	08H
	DB	06fH
	DB	0caH
	DB	03H
	DB	03H
	DB	027H
	DB	036H
	DB	036H
	DB	036H
	DB	036H
	DB	024H
	DB	024H
	DB	0caH
	DB	0cH
	DB	08H
	DB	0deH
	DB	07H
	DB	07H
	DB	0baH
	DB	08H
	DB	08H
	DB	0acH
	DB	0acH
	DB	0cH
	DB	0caH
	DB	03H
	DB	03H
	DB	03H
	DB	024H
	DB	027H
	DB	04H
	DB	04H
	DB	04H
	DB	04H
	DB	04H
	DB	04H
	DB	04H
	DB	04H
	DB	04H
	DB	04H
	DB	04H
	DB	04H
	DB	04H
	DB	04H
	DB	04H
	DB	04H
	DB	04H
	DB	04H
	DB	04H
	DB	04H
	DB	04H
	DB	04H
	DB	04H
	DB	04H
	DB	04H
	DB	04H
	DB	04H
	DB	04H
	DB	04H
	DB	04H
	DB	04H
	DB	04H
	DB	04H
	DB	04H
	DB	04H
	DB	04H
	DB	023H
	DB	03H
	DB	0d8H
	DB	00H
	DB	00H
	DB	00H
	DB	00H
	DB	00H
	DB	010H
	DB	018H
	DB	019H
	DB	023H
	DB	023H
	DB	023H
	DB	023H
	DB	023H
	DB	023H
	DB	023H
	DB	023H
	DB	023H
	DB	023H
	DB	023H
	DB	023H
	DB	023H
	DB	023H
	DB	023H
	DB	023H
	DB	023H
	DB	023H
	DB	023H
	DB	023H
	DB	023H
	DB	023H
	DB	023H
	DB	023H
	DB	023H
	DB	023H
	DB	023H
	DB	023H
	DB	023H
	DB	023H
	DB	0bbH
	DB	023H
	DB	023H
	DB	023H
	DB	04H
	DB	04H
	DB	04H
	DB	027H
	DB	027H
	DB	024H
	DB	03H
	DB	03H
	DB	03H
	DB	0caH
	DB	0caH
	DB	0cH
	DB	0cH
	DB	0cH
	DB	0acH
	DB	08H
	DB	08H
	DB	08H
	DB	08H
	DB	08H
	DB	0baH
	DB	08H
	DB	08H
	DB	08H
	DB	08H
	DB	0deH
	DB	0deH
	DB	08H
	DB	08H
	DB	08H
	DB	08H
	DB	08H
	DB	0acH
	DB	0cH
	DB	0cH
	DB	0aeH
	DB	0caH
	DB	03H
	DB	03H
	DB	03H
	DB	024H
	DB	024H
	DB	027H
	DB	027H
	DB	04H
	DB	04H
	DB	023H
	DB	023H
	DB	023H
	DB	0bbH
	DB	023H
	DB	023H
	DB	023H
	DB	023H
	DB	023H
	DB	023H
	DB	023H
	DB	023H
	DB	023H
	DB	023H
	DB	023H
	DB	023H
	DB	023H
	DB	023H
	DB	023H
	DB	023H
	DB	023H
	DB	023H
	DB	023H
	DB	023H
	DB	023H
	DB	023H
	DB	023H
	DB	023H
	DB	023H
	DB	023H
	DB	023H
	DB	023H
	DB	023H
	DB	023H
	DB	023H
	DB	023H
	DB	019H
	DB	03H
	DB	0d8H
	DB	00H
	DB	00H
	DB	00H
	DB	00H
	DB	00H
	DB	05H
	DB	01fH
	DB	019H
	DB	019H
	DB	019H
	DB	019H
	DB	019H
	DB	019H
	DB	019H
	DB	019H
	DB	019H
	DB	019H
	DB	019H
	DB	019H
	DB	019H
	DB	019H
	DB	019H
	DB	019H
	DB	019H
	DB	019H
	DB	019H
	DB	019H
	DB	019H
	DB	019H
	DB	019H
	DB	019H
	DB	019H
	DB	019H
	DB	019H
	DB	019H
	DB	019H
	DB	019H
	DB	019H
	DB	019H
	DB	019H
	DB	019H
	DB	0bbH
	DB	0bbH
	DB	0bbH
	DB	0bbH
	DB	04H
	DB	04H
	DB	04H
	DB	027H
	DB	027H
	DB	024H
	DB	024H
	DB	024H
	DB	03H
	DB	03H
	DB	03H
	DB	03H
	DB	0caH
	DB	0caH
	DB	0caH
	DB	0caH
	DB	0caH
	DB	0caH
	DB	0caH
	DB	0caH
	DB	0caH
	DB	0caH
	DB	0caH
	DB	0caH
	DB	0caH
	DB	0caH
	DB	0caH
	DB	0caH
	DB	0caH
	DB	03H
	DB	03H
	DB	03H
	DB	03H
	DB	024H
	DB	024H
	DB	027H
	DB	027H
	DB	04H
	DB	04H
	DB	04H
	DB	023H
	DB	0bbH
	DB	0bbH
	DB	0bbH
	DB	0bbH
	DB	019H
	DB	019H
	DB	019H
	DB	019H
	DB	019H
	DB	019H
	DB	019H
	DB	019H
	DB	019H
	DB	019H
	DB	019H
	DB	019H
	DB	019H
	DB	019H
	DB	019H
	DB	019H
	DB	019H
	DB	019H
	DB	019H
	DB	019H
	DB	019H
	DB	019H
	DB	019H
	DB	019H
	DB	019H
	DB	019H
	DB	019H
	DB	019H
	DB	019H
	DB	019H
	DB	019H
	DB	019H
	DB	019H
	DB	019H
	DB	019H
	DB	03H
	DB	0d8H
	DB	00H
	DB	00H
	DB	00H
	DB	00H
	DB	00H
	DB	0d7H
	DB	024H
	DB	0dfH
	DB	012H
	DB	012H
	DB	012H
	DB	012H
	DB	012H
	DB	012H
	DB	012H
	DB	012H
	DB	012H
	DB	012H
	DB	012H
	DB	012H
	DB	012H
	DB	012H
	DB	012H
	DB	012H
	DB	012H
	DB	012H
	DB	012H
	DB	012H
	DB	012H
	DB	012H
	DB	012H
	DB	012H
	DB	012H
	DB	012H
	DB	012H
	DB	012H
	DB	012H
	DB	012H
	DB	012H
	DB	012H
	DB	012H
	DB	012H
	DB	012H
	DB	012H
	DB	0bdH
	DB	0bdH
	DB	0dfH
	DB	0dfH
	DB	019H
	DB	019H
	DB	019H
	DB	0bbH
	DB	023H
	DB	04H
	DB	04H
	DB	04H
	DB	04H
	DB	04H
	DB	027H
	DB	027H
	DB	027H
	DB	027H
	DB	027H
	DB	027H
	DB	027H
	DB	027H
	DB	027H
	DB	027H
	DB	027H
	DB	027H
	DB	027H
	DB	027H
	DB	04H
	DB	04H
	DB	04H
	DB	04H
	DB	04H
	DB	023H
	DB	0bbH
	DB	0bbH
	DB	019H
	DB	019H
	DB	0dfH
	DB	0dfH
	DB	0dfH
	DB	0bdH
	DB	0bdH
	DB	012H
	DB	012H
	DB	012H
	DB	012H
	DB	012H
	DB	012H
	DB	012H
	DB	012H
	DB	012H
	DB	012H
	DB	012H
	DB	012H
	DB	012H
	DB	012H
	DB	012H
	DB	012H
	DB	012H
	DB	012H
	DB	012H
	DB	012H
	DB	012H
	DB	012H
	DB	012H
	DB	012H
	DB	012H
	DB	012H
	DB	012H
	DB	012H
	DB	012H
	DB	012H
	DB	012H
	DB	012H
	DB	012H
	DB	012H
	DB	012H
	DB	012H
	DB	012H
	DB	023H
	DB	0c7H
	DB	0d7H
	DB	00H
	DB	00H
	DB	00H
	DB	00H
	DB	00H
	DB	00H
	DB	0c4H
	DB	03H
	DB	04H
	DB	023H
	DB	0bbH
	DB	0bbH
	DB	0bbH
	DB	0bbH
	DB	0bbH
	DB	0bbH
	DB	0bbH
	DB	0bbH
	DB	0bbH
	DB	0bbH
	DB	0bbH
	DB	0bbH
	DB	0bbH
	DB	0bbH
	DB	0bbH
	DB	0bbH
	DB	0bbH
	DB	0bbH
	DB	0bbH
	DB	0bbH
	DB	0bbH
	DB	0bbH
	DB	0bbH
	DB	0bbH
	DB	0bbH
	DB	0bbH
	DB	0bbH
	DB	0bbH
	DB	0bbH
	DB	0bbH
	DB	0bbH
	DB	0bbH
	DB	0bbH
	DB	023H
	DB	023H
	DB	023H
	DB	023H
	DB	023H
	DB	04H
	DB	04H
	DB	04H
	DB	04H
	DB	04H
	DB	04H
	DB	04H
	DB	04H
	DB	027H
	DB	027H
	DB	027H
	DB	027H
	DB	027H
	DB	027H
	DB	027H
	DB	027H
	DB	027H
	DB	027H
	DB	027H
	DB	027H
	DB	027H
	DB	027H
	DB	027H
	DB	027H
	DB	027H
	DB	027H
	DB	027H
	DB	04H
	DB	04H
	DB	04H
	DB	04H
	DB	04H
	DB	04H
	DB	04H
	DB	023H
	DB	023H
	DB	023H
	DB	023H
	DB	023H
	DB	0bbH
	DB	0bbH
	DB	0bbH
	DB	0bbH
	DB	0bbH
	DB	0bbH
	DB	0bbH
	DB	0bbH
	DB	0bbH
	DB	0bbH
	DB	0bbH
	DB	0bbH
	DB	0bbH
	DB	0bbH
	DB	0bbH
	DB	0bbH
	DB	0bbH
	DB	0bbH
	DB	0bbH
	DB	0bbH
	DB	0bbH
	DB	0bbH
	DB	0bbH
	DB	0bbH
	DB	0bbH
	DB	0bbH
	DB	0bbH
	DB	0bbH
	DB	0bbH
	DB	0bbH
	DB	0bbH
	DB	0bbH
	DB	0bbH
	DB	0bbH
	DB	0bbH
	DB	023H
	DB	027H
	DB	0baH
	DB	05H
	DB	00H
	DB	00H
	DB	00H
	DB	00H
	DB	00H
	DB	00H
	DB	00H
	DB	00H
	DB	0aH
	DB	05H
	DB	0b9H
	DB	0b9H
	DB	0b9H
	DB	0b9H
	DB	0b9H
	DB	0b9H
	DB	0b9H
	DB	0b9H
	DB	0b9H
	DB	0b9H
	DB	0b9H
	DB	0b9H
	DB	0b9H
	DB	0b9H
	DB	0b9H
	DB	0b9H
	DB	0b9H
	DB	0b9H
	DB	0b9H
	DB	0b9H
	DB	0b9H
	DB	0b9H
	DB	0b9H
	DB	0b9H
	DB	0b9H
	DB	0b9H
	DB	0b9H
	DB	0b9H
	DB	0b9H
	DB	0b9H
	DB	0b9H
	DB	0b9H
	DB	0b9H
	DB	0b9H
	DB	0b9H
	DB	0b9H
	DB	0b9H
	DB	0b9H
	DB	0b9H
	DB	0b9H
	DB	0b9H
	DB	0b9H
	DB	0b9H
	DB	0b9H
	DB	0b9H
	DB	0b9H
	DB	0b9H
	DB	0b9H
	DB	0b9H
	DB	0b9H
	DB	0b9H
	DB	0b9H
	DB	0b9H
	DB	0b9H
	DB	0b9H
	DB	0b9H
	DB	0b9H
	DB	0b9H
	DB	0b9H
	DB	0b9H
	DB	0b9H
	DB	0b9H
	DB	0b9H
	DB	0b9H
	DB	0b9H
	DB	0b9H
	DB	0b9H
	DB	0b9H
	DB	0b9H
	DB	0b9H
	DB	0b9H
	DB	0b9H
	DB	0b9H
	DB	0b9H
	DB	0b9H
	DB	0b9H
	DB	0b9H
	DB	0b9H
	DB	0b9H
	DB	0b9H
	DB	0b9H
	DB	0b9H
	DB	0b9H
	DB	0b9H
	DB	0b9H
	DB	0b9H
	DB	0b9H
	DB	0b9H
	DB	0b9H
	DB	0b9H
	DB	0b9H
	DB	0b9H
	DB	0b9H
	DB	0b9H
	DB	0b9H
	DB	0b9H
	DB	0b9H
	DB	0b9H
	DB	0b9H
	DB	0b9H
	DB	0b9H
	DB	0b9H
	DB	0b9H
	DB	0b9H
	DB	0b9H
	DB	0b9H
	DB	0b9H
	DB	0b9H
	DB	0b9H
	DB	0b9H
	DB	0b9H
	DB	0b9H
	DB	0b9H
	DB	0b9H
	DB	05H
	DB	0aH
	DB	00H
	DB	00H
	DB	00H
	DB	00H
	DB	00H
	DB	00H
	DB	00H
	DB	00H
	DB	00H
	DB	00H
	DB	00H
	DB	00H
	DB	00H
	DB	00H
	DB	00H
	DB	00H
	DB	00H
	DB	00H
	DB	00H
	DB	00H
	DB	00H
	DB	00H
	DB	00H
	DB	00H
	DB	00H
	DB	00H
	DB	00H
	DB	00H
	DB	00H
	DB	00H
	DB	00H
	DB	00H
	DB	00H
	DB	00H
	DB	00H
	DB	00H
	DB	00H
	DB	00H
	DB	00H
	DB	00H
	DB	00H
	DB	00H
	DB	00H
	DB	00H
	DB	00H
	DB	00H
	DB	00H
	DB	00H
	DB	00H
	DB	00H
	DB	00H
	DB	00H
	DB	00H
	DB	00H
	DB	00H
	DB	00H
	DB	00H
	DB	00H
	DB	00H
	DB	00H
	DB	00H
	DB	00H
	DB	00H
	DB	00H
	DB	00H
	DB	00H
	DB	00H
	DB	00H
	DB	00H
	DB	00H
	DB	00H
	DB	00H
	DB	00H
	DB	00H
	DB	00H
	DB	00H
	DB	00H
	DB	00H
	DB	00H
	DB	00H
	DB	00H
	DB	00H
	DB	00H
	DB	00H
	DB	00H
	DB	00H
	DB	00H
	DB	00H
	DB	00H
	DB	00H
	DB	00H
	DB	00H
	DB	00H
	DB	00H
	DB	00H
	DB	00H
	DB	00H
	DB	00H
	DB	00H
	DB	00H
	DB	00H
	DB	00H
	DB	00H
	DB	00H
	DB	00H
	DB	00H
	DB	00H
	DB	00H
	DB	00H
	DB	00H
	DB	00H
	DB	00H
	DB	00H
	DB	00H
	DB	00H
	DB	00H
	DB	00H
	DB	00H
	DB	00H
	DB	00H
	DB	00H
	DB	00H
	DB	00H
	DB	00H
	DB	00H
	DB	00H
	DB	00H
	DB	00H
	DB	00H
	DB	00H
	DB	00H
	DB	00H
	DB	00H
	DB	00H
	DB	00H
	DB	00H
	DB	00H
	DB	00H
	DB	00H
	DB	00H
	DB	00H
	DB	00H
	DB	00H
	DB	00H
	DB	00H
	DB	00H
	DB	00H
	DB	00H
	DB	00H
	DB	00H
	DB	00H
	DB	00H
	DB	00H
	DB	00H
	DB	00H
	DB	00H
	DB	00H
	DB	00H
	DB	00H
	DB	00H
	DB	00H
	DB	00H
	DB	00H
	DB	00H
	DB	00H
	DB	00H
	DB	00H
	DB	00H
	DB	00H
	DB	00H
	DB	00H
	DB	00H
	DB	00H
	DB	00H
	DB	00H
	DB	00H
	DB	00H
	DB	00H
	DB	00H
	DB	00H
	DB	00H
	DB	00H
	DB	00H
	DB	00H
	DB	00H
	DB	00H
	DB	00H
	DB	00H
	DB	00H
	DB	00H
	DB	00H
	DB	00H
	DB	00H
	DB	00H
	DB	00H
	DB	00H
	DB	00H
	DB	00H
	DB	00H
	DB	00H
	DB	00H
	DB	00H
	DB	00H
	DB	00H
	DB	00H
	DB	00H
	DB	00H
	DB	00H
	DB	00H
	DB	00H
	DB	00H
	DB	00H
	DB	00H
	DB	00H
	DB	00H
	DB	00H
	DB	00H
	DB	00H
	DB	00H
	DB	00H
	DB	00H
	DB	00H
	DB	00H
	DB	00H
	DB	00H
	DB	00H
	DB	00H
	DB	00H
	DB	00H
	DB	00H
	DB	00H
	DB	00H
	DB	00H
	DB	00H
	DB	00H
	DB	00H
	DB	00H
	DB	00H
	DB	00H
	DB	00H
	DB	00H
	DB	00H
	DB	00H
	DB	00H
	DB	00H
	DB	00H
	DB	00H
	DB	00H
	DB	00H
	DB	00H
	DB	00H
	DB	00H
	DB	00H
	DB	00H
	DB	00H
	DB	00H
	DB	00H
	DB	00H
	DB	00H
	DB	00H
	DB	00H
	DB	00H
	DB	00H
	DB	00H
	DB	00H
	DB	00H
	DB	00H
	DB	00H
	DB	00H
	DB	00H
	DB	00H
	DB	00H
	DB	00H
	DB	00H
	DB	00H
	DB	00H
	DB	00H
	DB	00H
	DB	00H
	DB	00H
	DB	00H
	DB	00H
	DB	00H
	DB	00H
	DB	00H
	DB	00H
	DB	00H
	DB	00H
	DB	00H
	DB	00H
	DB	00H
	DB	00H
	DB	00H
	DB	00H
	DB	00H
	DB	00H
	DB	00H
	DB	00H
	DB	00H
	DB	00H
	DB	00H
	DB	00H
	DB	00H
	DB	00H
	DB	00H
	DB	00H
	DB	00H
	DB	00H
	DB	00H
	DB	00H
	DB	00H
	DB	00H
	DB	00H
	DB	00H
	DB	00H
	DB	00H
	DB	00H
	DB	00H
	DB	00H
	DB	00H
	DB	00H
	DB	00H
	DB	00H
	DB	00H
	DB	00H
	DB	00H
	DB	00H
	DB	00H
	DB	00H
	DB	00H
	DB	00H
	DB	00H
	DB	00H
	DB	00H
	DB	00H
	DB	00H
	DB	00H
	DB	00H
	DB	00H
	DB	00H
	DB	00H
	DB	00H
	DB	00H
	DB	00H
	DB	00H
	DB	00H
	DB	00H
	DB	00H
	DB	00H
	DB	00H
	DB	00H
	DB	00H
	DB	00H
	DB	00H
	DB	00H
	DB	00H
	DB	00H
	DB	00H
	DB	00H
	DB	00H
	DB	00H
	DB	00H
	DB	00H
	DB	00H
	DB	00H
	DB	00H
	DB	00H
	DB	00H
	DB	00H
	DB	00H
	DB	00H
	DB	00H
	DB	00H
	DB	00H
	DB	00H
	DB	00H
	DB	00H
	DB	00H
	DB	00H
	DB	00H
	DB	00H
	DB	00H
	DB	00H
	DB	00H
	DB	00H
	DB	00H
	DB	00H
	DB	00H
	DB	00H
	DB	00H
	DB	00H
	DB	00H
	DB	00H
	DB	00H
	DB	00H
	DB	00H
	DB	00H
	DB	00H
	DB	00H
	DB	00H
	DB	00H
	DB	00H
	DB	00H
	DB	00H
	DB	00H
	DB	00H
	DB	00H
	DB	00H
	DB	00H
	DB	00H
	DB	00H
	DB	00H
	DB	00H
	DB	00H
	DB	00H
	DB	00H
	DB	00H
	DB	00H
	DB	00H
	DB	00H
	DB	00H
	DB	00H
	DB	00H
	DB	00H
	DB	00H
	DB	00H
	DB	00H
	DB	00H
	DB	00H
	DB	00H
	DB	00H
	DB	00H
	DB	00H
	DB	00H
	DB	00H
	DB	00H
	DB	00H
	DB	00H
	DB	00H
	DB	00H
	DB	00H
	DB	00H
	DB	00H
	DB	00H
	DB	00H
	DB	00H
	DB	00H
	DB	00H
	DB	00H
	DB	00H
	DB	00H
	DB	00H
	DB	00H
	DB	00H
	DB	00H
	DB	00H
	DB	00H
	DB	00H
	DB	00H
	DB	00H
	DB	00H
	DB	00H
	DB	00H
	DB	00H
	DB	00H
	DB	00H
	DB	00H
	DB	00H
	DB	00H
	DB	00H
	DB	00H
	DB	00H
	DB	00H
	DB	00H
	DB	00H
	DB	00H
	DB	00H
	DB	00H
	DB	00H
	DB	00H
	DB	00H
	DB	00H
	DB	00H
	DB	00H
	DB	00H
	DB	00H
	DB	00H
	DB	00H
	DB	00H
	DB	00H
	DB	00H
	DB	00H
	DB	00H
	DB	00H
	DB	00H
	DB	00H
	DB	00H
	DB	00H
	DB	00H
	DB	00H
	DB	00H
	DB	00H
	DB	00H
	DB	00H
	DB	00H
	DB	00H
	DB	00H
	DB	00H
	DB	00H
	DB	00H
	DB	00H
	DB	00H
	DB	00H
	DB	00H
	DB	00H
	DB	00H
	DB	00H
	DB	00H
	DB	00H
	DB	00H
	DB	00H
	DB	00H
	DB	00H
	DB	00H
	DB	00H
	DB	00H
	DB	00H
	DB	00H
	DB	00H
	DB	00H
	DB	00H
	DB	00H
	DB	00H
	DB	00H
	DB	00H
	DB	00H
	DB	00H
	DB	00H
	DB	00H
	DB	00H
	DB	00H
	DB	00H
	DB	00H
	DB	00H
	DB	00H
	DB	00H
	DB	023H
	DB	0e9H
	DB	039H
	DB	039H
	DB	039H
	DB	039H
	DB	039H
	DB	039H
	DB	039H
	DB	039H
	DB	039H
	DB	048H
	DB	018H
	DB	00H
	DB	0bH
	DB	048H
	DB	039H
	DB	048H
	DB	02bH
	DB	00H
	DB	00H
	DB	00H
	DB	00H
	DB	00H
	DB	00H
	DB	00H
	DB	00H
	DB	00H
	DB	00H
	DB	00H
	DB	00H
	DB	00H
	DB	00H
	DB	00H
	DB	00H
	DB	00H
	DB	00H
	DB	00H
	DB	00H
	DB	00H
	DB	00H
	DB	00H
	DB	00H
	DB	00H
	DB	00H
	DB	00H
	DB	00H
	DB	00H
	DB	00H
	DB	00H
	DB	00H
	DB	00H
	DB	00H
	DB	00H
	DB	00H
	DB	00H
	DB	00H
	DB	00H
	DB	00H
	DB	00H
	DB	00H
	DB	00H
	DB	00H
	DB	00H
	DB	00H
	DB	00H
	DB	00H
	DB	00H
	DB	00H
	DB	00H
	DB	00H
	DB	00H
	DB	00H
	DB	00H
	DB	00H
	DB	00H
	DB	00H
	DB	00H
	DB	00H
	DB	00H
	DB	00H
	DB	00H
	DB	00H
	DB	00H
	DB	00H
	DB	00H
	DB	00H
	DB	00H
	DB	00H
	DB	00H
	DB	00H
	DB	00H
	DB	00H
	DB	00H
	DB	00H
	DB	00H
	DB	00H
	DB	00H
	DB	00H
	DB	00H
	DB	00H
	DB	00H
	DB	00H
	DB	00H
	DB	00H
	DB	00H
	DB	00H
	DB	00H
	DB	00H
	DB	00H
	DB	00H
	DB	00H
	DB	00H
	DB	00H
	DB	00H
	DB	00H
	DB	00H
	DB	00H
	DB	00H
	DB	00H
	DB	00H
	DB	00H
	DB	00H
	DB	00H
	DB	00H
	DB	00H
	DB	00H
	DB	088H
	DB	02H
	DB	02H
	DB	02H
	DB	02H
	DB	02H
	DB	02H
	DB	02H
	DB	02H
	DB	02H
	DB	02H
	DB	02H
	DB	0a0H
	DB	00H
	DB	03H
	DB	02H
	DB	02H
	DB	02H
	DB	052H
	DB	00H
	DB	00H
	DB	00H
	DB	00H
	DB	00H
	DB	00H
	DB	00H
	DB	00H
	DB	00H
	DB	00H
	DB	00H
	DB	00H
	DB	00H
	DB	00H
	DB	00H
	DB	00H
	DB	00H
	DB	00H
	DB	00H
	DB	00H
	DB	00H
	DB	00H
	DB	00H
	DB	00H
	DB	00H
	DB	00H
	DB	00H
	DB	00H
	DB	00H
	DB	00H
	DB	00H
	DB	00H
	DB	00H
	DB	00H
	DB	00H
	DB	00H
	DB	00H
	DB	00H
	DB	00H
	DB	00H
	DB	00H
	DB	00H
	DB	00H
	DB	00H
	DB	00H
	DB	00H
	DB	00H
	DB	00H
	DB	00H
	DB	00H
	DB	00H
	DB	00H
	DB	00H
	DB	00H
	DB	00H
	DB	00H
	DB	00H
	DB	00H
	DB	00H
	DB	00H
	DB	00H
	DB	00H
	DB	00H
	DB	00H
	DB	00H
	DB	00H
	DB	00H
	DB	00H
	DB	00H
	DB	00H
	DB	00H
	DB	00H
	DB	00H
	DB	00H
	DB	00H
	DB	00H
	DB	00H
	DB	00H
	DB	00H
	DB	00H
	DB	00H
	DB	00H
	DB	00H
	DB	00H
	DB	00H
	DB	00H
	DB	00H
	DB	00H
	DB	00H
	DB	00H
	DB	00H
	DB	00H
	DB	00H
	DB	00H
	DB	00H
	DB	00H
	DB	00H
	DB	00H
	DB	00H
	DB	00H
	DB	00H
	DB	00H
	DB	00H
	DB	00H
	DB	00H
	DB	00H
	DB	00H
	DB	00H
	DB	088H
	DB	02H
	DB	02H
	DB	02H
	DB	02H
	DB	02H
	DB	02H
	DB	02H
	DB	02H
	DB	02H
	DB	02H
	DB	02H
	DB	0bfH
	DB	00H
	DB	03H
	DB	02H
	DB	02H
	DB	02H
	DB	052H
	DB	00H
	DB	00H
	DB	00H
	DB	00H
	DB	00H
	DB	00H
	DB	00H
	DB	00H
	DB	00H
	DB	00H
	DB	00H
	DB	00H
	DB	00H
	DB	00H
	DB	00H
	DB	00H
	DB	00H
	DB	00H
	DB	00H
	DB	00H
	DB	00H
	DB	00H
	DB	00H
	DB	00H
	DB	00H
	DB	00H
	DB	00H
	DB	00H
	DB	00H
	DB	00H
	DB	00H
	DB	00H
	DB	00H
	DB	00H
	DB	00H
	DB	00H
	DB	00H
	DB	00H
	DB	00H
	DB	00H
	DB	00H
	DB	00H
	DB	00H
	DB	00H
	DB	00H
	DB	00H
	DB	00H
	DB	00H
	DB	00H
	DB	00H
	DB	00H
	DB	00H
	DB	00H
	DB	00H
	DB	00H
	DB	00H
	DB	00H
	DB	00H
	DB	00H
	DB	00H
	DB	00H
	DB	00H
	DB	00H
	DB	00H
	DB	00H
	DB	00H
	DB	00H
	DB	00H
	DB	00H
	DB	00H
	DB	00H
	DB	00H
	DB	00H
	DB	00H
	DB	00H
	DB	00H
	DB	00H
	DB	00H
	DB	00H
	DB	00H
	DB	00H
	DB	00H
	DB	00H
	DB	00H
	DB	00H
	DB	00H
	DB	00H
	DB	00H
	DB	00H
	DB	00H
	DB	00H
	DB	00H
	DB	00H
	DB	00H
	DB	00H
	DB	00H
	DB	00H
	DB	00H
	DB	00H
	DB	00H
	DB	00H
	DB	00H
	DB	00H
	DB	00H
	DB	00H
	DB	00H
	DB	00H
	DB	00H
	DB	02bH
	DB	0beH
	DB	065H
	DB	0cfH
	DB	041H
	DB	02H
	DB	02H
	DB	02H
	DB	0fcH
	DB	073H
	DB	065H
	DB	056H
	DB	048H
	DB	00H
	DB	0c6H
	DB	08aH
	DB	09bH
	DB	080H
	DB	096H
	DB	00H
	DB	00H
	DB	00H
	DB	00H
	DB	00H
	DB	00H
	DB	00H
	DB	00H
	DB	00H
	DB	00H
	DB	00H
	DB	00H
	DB	00H
	DB	00H
	DB	00H
	DB	00H
	DB	00H
	DB	00H
	DB	00H
	DB	00H
	DB	00H
	DB	00H
	DB	00H
	DB	00H
	DB	00H
	DB	00H
	DB	00H
	DB	00H
	DB	00H
	DB	00H
	DB	00H
	DB	00H
	DB	00H
	DB	00H
	DB	00H
	DB	00H
	DB	00H
	DB	00H
	DB	00H
	DB	00H
	DB	00H
	DB	00H
	DB	00H
	DB	00H
	DB	00H
	DB	00H
	DB	00H
	DB	00H
	DB	00H
	DB	00H
	DB	00H
	DB	00H
	DB	00H
	DB	00H
	DB	00H
	DB	00H
	DB	00H
	DB	00H
	DB	00H
	DB	00H
	DB	00H
	DB	00H
	DB	00H
	DB	00H
	DB	00H
	DB	00H
	DB	00H
	DB	00H
	DB	00H
	DB	00H
	DB	00H
	DB	00H
	DB	00H
	DB	00H
	DB	00H
	DB	00H
	DB	00H
	DB	00H
	DB	00H
	DB	00H
	DB	00H
	DB	00H
	DB	00H
	DB	00H
	DB	00H
	DB	00H
	DB	00H
	DB	00H
	DB	00H
	DB	00H
	DB	00H
	DB	00H
	DB	00H
	DB	00H
	DB	00H
	DB	00H
	DB	00H
	DB	00H
	DB	00H
	DB	00H
	DB	00H
	DB	00H
	DB	00H
	DB	00H
	DB	00H
	DB	00H
	DB	00H
	DB	00H
	DB	00H
	DB	00H
	DB	00H
	DB	00H
	DB	015H
	DB	02H
	DB	02H
	DB	02H
	DB	028H
	DB	00H
	DB	00H
	DB	00H
	DB	00H
	DB	00H
	DB	00H
	DB	00H
	DB	00H
	DB	00H
	DB	00H
	DB	00H
	DB	00H
	DB	00H
	DB	00H
	DB	00H
	DB	00H
	DB	00H
	DB	00H
	DB	00H
	DB	00H
	DB	0aH
	DB	0c6H
	DB	0c5H
	DB	00H
	DB	00H
	DB	00H
	DB	00H
	DB	00H
	DB	00H
	DB	0c4H
	DB	013H
	DB	0d8H
	DB	00H
	DB	00H
	DB	00H
	DB	00H
	DB	00H
	DB	00H
	DB	00H
	DB	00H
	DB	00H
	DB	0d7H
	DB	0cH
	DB	019H
	DB	0bbH
	DB	02eH
	DB	00H
	DB	00H
	DB	00H
	DB	00H
	DB	00H
	DB	00H
	DB	00H
	DB	00H
	DB	00H
	DB	00H
	DB	00H
	DB	00H
	DB	00H
	DB	00H
	DB	00H
	DB	00H
	DB	00H
	DB	00H
	DB	00H
	DB	00H
	DB	00H
	DB	00H
	DB	00H
	DB	00H
	DB	00H
	DB	00H
	DB	00H
	DB	00H
	DB	00H
	DB	00H
	DB	00H
	DB	00H
	DB	00H
	DB	00H
	DB	00H
	DB	00H
	DB	00H
	DB	00H
	DB	00H
	DB	00H
	DB	00H
	DB	00H
	DB	00H
	DB	00H
	DB	00H
	DB	00H
	DB	00H
	DB	00H
	DB	00H
	DB	00H
	DB	00H
	DB	00H
	DB	00H
	DB	00H
	DB	00H
	DB	00H
	DB	00H
	DB	00H
	DB	00H
	DB	00H
	DB	00H
	DB	00H
	DB	00H
	DB	00H
	DB	00H
	DB	00H
	DB	00H
	DB	00H
	DB	00H
	DB	00H
	DB	00H
	DB	00H
	DB	00H
	DB	00H
	DB	00H
	DB	00H
	DB	015H
	DB	02H
	DB	02H
	DB	02H
	DB	028H
	DB	00H
	DB	00H
	DB	00H
	DB	00H
	DB	00H
	DB	0caH
	DB	06eH
	DB	0bfH
	DB	0a1H
	DB	0b1H
	DB	00H
	DB	00H
	DB	00H
	DB	0cfH
	DB	02dH
	DB	030H
	DB	017H
	DB	02eH
	DB	016H
	DB	04bH
	DB	0bfH
	DB	0fdH
	DB	0fdH
	DB	05aH
	DB	0bbH
	DB	00H
	DB	0d7H
	DB	020H
	DB	017H
	DB	0c0H
	DB	0fdH
	DB	028H
	DB	0ceH
	DB	00H
	DB	00H
	DB	00H
	DB	00H
	DB	00H
	DB	00H
	DB	010H
	DB	0cfH
	DB	0d6H
	DB	0c1H
	DB	0ffH
	DB	0ffH
	DB	0fdH
	DB	05aH
	DB	0e6H
	DB	00H
	DB	00H
	DB	00H
	DB	00H
	DB	00H
	DB	00H
	DB	00H
	DB	00H
	DB	00H
	DB	00H
	DB	00H
	DB	00H
	DB	00H
	DB	00H
	DB	00H
	DB	00H
	DB	00H
	DB	00H
	DB	00H
	DB	00H
	DB	00H
	DB	00H
	DB	00H
	DB	00H
	DB	00H
	DB	00H
	DB	00H
	DB	00H
	DB	00H
	DB	00H
	DB	00H
	DB	00H
	DB	00H
	DB	00H
	DB	00H
	DB	00H
	DB	00H
	DB	00H
	DB	00H
	DB	00H
	DB	00H
	DB	00H
	DB	00H
	DB	00H
	DB	00H
	DB	00H
	DB	00H
	DB	00H
	DB	00H
	DB	00H
	DB	00H
	DB	00H
	DB	00H
	DB	00H
	DB	00H
	DB	00H
	DB	00H
	DB	00H
	DB	00H
	DB	00H
	DB	00H
	DB	00H
	DB	00H
	DB	00H
	DB	00H
	DB	00H
	DB	00H
	DB	00H
	DB	00H
	DB	00H
	DB	00H
	DB	00H
	DB	00H
	DB	00H
	DB	015H
	DB	02H
	DB	02H
	DB	02H
	DB	028H
	DB	00H
	DB	00H
	DB	00H
	DB	00H
	DB	00H
	DB	024H
	DB	02H
	DB	02H
	DB	02H
	DB	052H
	DB	00H
	DB	00H
	DB	00H
	DB	037H
	DB	02H
	DB	02H
	DB	02H
	DB	018H
	DB	0fbH
	DB	02H
	DB	02H
	DB	02H
	DB	02H
	DB	02H
	DB	0c0H
	DB	0acH
	DB	04bH
	DB	02H
	DB	02H
	DB	02H
	DB	02H
	DB	02H
	DB	02H
	DB	039H
	DB	00H
	DB	00H
	DB	00H
	DB	00H
	DB	016H
	DB	05aH
	DB	02H
	DB	02H
	DB	02H
	DB	0feH
	DB	0ffH
	DB	02H
	DB	02H
	DB	02H
	DB	031H
	DB	00H
	DB	00H
	DB	00H
	DB	00H
	DB	00H
	DB	00H
	DB	00H
	DB	00H
	DB	00H
	DB	00H
	DB	00H
	DB	00H
	DB	00H
	DB	00H
	DB	00H
	DB	00H
	DB	00H
	DB	00H
	DB	00H
	DB	00H
	DB	00H
	DB	00H
	DB	00H
	DB	00H
	DB	00H
	DB	00H
	DB	00H
	DB	00H
	DB	00H
	DB	00H
	DB	00H
	DB	00H
	DB	00H
	DB	00H
	DB	00H
	DB	00H
	DB	00H
	DB	00H
	DB	00H
	DB	00H
	DB	00H
	DB	00H
	DB	00H
	DB	00H
	DB	00H
	DB	00H
	DB	00H
	DB	00H
	DB	00H
	DB	00H
	DB	00H
	DB	00H
	DB	00H
	DB	00H
	DB	00H
	DB	00H
	DB	00H
	DB	00H
	DB	00H
	DB	00H
	DB	00H
	DB	00H
	DB	00H
	DB	00H
	DB	00H
	DB	00H
	DB	00H
	DB	00H
	DB	00H
	DB	00H
	DB	00H
	DB	00H
	DB	00H
	DB	015H
	DB	02H
	DB	02H
	DB	02H
	DB	028H
	DB	00H
	DB	00H
	DB	00H
	DB	00H
	DB	00H
	DB	024H
	DB	02H
	DB	02H
	DB	02H
	DB	03aH
	DB	00H
	DB	00H
	DB	00H
	DB	037H
	DB	02H
	DB	02H
	DB	02H
	DB	02dH
	DB	02H
	DB	0c1H
	DB	0c1H
	DB	02H
	DB	02H
	DB	02H
	DB	02H
	DB	0bfH
	DB	033H
	DB	02H
	DB	0fdH
	DB	02H
	DB	02H
	DB	02H
	DB	02H
	DB	030H
	DB	010H
	DB	00H
	DB	00H
	DB	00H
	DB	0f7H
	DB	02H
	DB	02H
	DB	0feH
	DB	031H
	DB	08H
	DB	0bbH
	DB	05aH
	DB	02H
	DB	02H
	DB	02H
	DB	047H
	DB	00H
	DB	00H
	DB	00H
	DB	00H
	DB	00H
	DB	00H
	DB	00H
	DB	00H
	DB	00H
	DB	00H
	DB	00H
	DB	00H
	DB	00H
	DB	00H
	DB	00H
	DB	00H
	DB	00H
	DB	00H
	DB	00H
	DB	00H
	DB	00H
	DB	00H
	DB	00H
	DB	00H
	DB	00H
	DB	00H
	DB	00H
	DB	00H
	DB	00H
	DB	00H
	DB	00H
	DB	00H
	DB	00H
	DB	00H
	DB	00H
	DB	00H
	DB	00H
	DB	00H
	DB	00H
	DB	00H
	DB	00H
	DB	00H
	DB	00H
	DB	00H
	DB	00H
	DB	00H
	DB	00H
	DB	00H
	DB	00H
	DB	00H
	DB	00H
	DB	00H
	DB	00H
	DB	00H
	DB	00H
	DB	00H
	DB	00H
	DB	00H
	DB	00H
	DB	00H
	DB	00H
	DB	00H
	DB	00H
	DB	00H
	DB	00H
	DB	00H
	DB	00H
	DB	00H
	DB	00H
	DB	00H
	DB	00H
	DB	00H
	DB	015H
	DB	02H
	DB	02H
	DB	02H
	DB	028H
	DB	00H
	DB	00H
	DB	00H
	DB	00H
	DB	00H
	DB	024H
	DB	02H
	DB	02H
	DB	02H
	DB	03aH
	DB	00H
	DB	00H
	DB	00H
	DB	037H
	DB	02H
	DB	02H
	DB	02H
	DB	0fdH
	DB	0e7H
	DB	016H
	DB	013H
	DB	03cH
	DB	02H
	DB	02H
	DB	02H
	DB	02H
	DB	03aH
	DB	03H
	DB	0bH
	DB	0e4H
	DB	0c0H
	DB	02H
	DB	02H
	DB	0ffH
	DB	0dfH
	DB	00H
	DB	00H
	DB	01fH
	DB	02H
	DB	02H
	DB	02H
	DB	01dH
	DB	00H
	DB	00H
	DB	00H
	DB	08H
	DB	032H
	DB	02H
	DB	02H
	DB	045H
	DB	0eH
	DB	00H
	DB	00H
	DB	00H
	DB	00H
	DB	00H
	DB	00H
	DB	00H
	DB	00H
	DB	00H
	DB	00H
	DB	00H
	DB	00H
	DB	00H
	DB	00H
	DB	00H
	DB	00H
	DB	00H
	DB	00H
	DB	00H
	DB	00H
	DB	00H
	DB	00H
	DB	00H
	DB	00H
	DB	00H
	DB	00H
	DB	00H
	DB	00H
	DB	00H
	DB	00H
	DB	00H
	DB	00H
	DB	00H
	DB	00H
	DB	00H
	DB	00H
	DB	00H
	DB	00H
	DB	00H
	DB	00H
	DB	00H
	DB	00H
	DB	00H
	DB	00H
	DB	00H
	DB	00H
	DB	00H
	DB	00H
	DB	00H
	DB	00H
	DB	00H
	DB	00H
	DB	00H
	DB	00H
	DB	00H
	DB	00H
	DB	00H
	DB	00H
	DB	00H
	DB	00H
	DB	00H
	DB	00H
	DB	00H
	DB	00H
	DB	00H
	DB	00H
	DB	00H
	DB	00H
	DB	00H
	DB	00H
	DB	00H
	DB	015H
	DB	02H
	DB	02H
	DB	02H
	DB	028H
	DB	00H
	DB	00H
	DB	00H
	DB	00H
	DB	00H
	DB	024H
	DB	02H
	DB	02H
	DB	02H
	DB	03aH
	DB	00H
	DB	00H
	DB	00H
	DB	037H
	DB	02H
	DB	02H
	DB	02H
	DB	01bH
	DB	00H
	DB	00H
	DB	00H
	DB	04H
	DB	0ffH
	DB	02H
	DB	02H
	DB	017H
	DB	010H
	DB	00H
	DB	00H
	DB	00H
	DB	03cH
	DB	02H
	DB	02H
	DB	02H
	DB	018H
	DB	00H
	DB	00H
	DB	09bH
	DB	02H
	DB	02H
	DB	02H
	DB	04H
	DB	00H
	DB	00H
	DB	00H
	DB	00H
	DB	080H
	DB	02H
	DB	02H
	DB	033H
	DB	0deH
	DB	00H
	DB	00H
	DB	00H
	DB	00H
	DB	00H
	DB	00H
	DB	00H
	DB	00H
	DB	00H
	DB	00H
	DB	00H
	DB	00H
	DB	00H
	DB	00H
	DB	00H
	DB	00H
	DB	00H
	DB	00H
	DB	00H
	DB	00H
	DB	00H
	DB	00H
	DB	00H
	DB	00H
	DB	00H
	DB	00H
	DB	00H
	DB	00H
	DB	00H
	DB	00H
	DB	00H
	DB	00H
	DB	00H
	DB	00H
	DB	00H
	DB	00H
	DB	00H
	DB	00H
	DB	00H
	DB	00H
	DB	00H
	DB	00H
	DB	00H
	DB	00H
	DB	00H
	DB	00H
	DB	00H
	DB	00H
	DB	00H
	DB	00H
	DB	00H
	DB	00H
	DB	00H
	DB	00H
	DB	00H
	DB	00H
	DB	00H
	DB	00H
	DB	00H
	DB	00H
	DB	00H
	DB	00H
	DB	00H
	DB	00H
	DB	00H
	DB	00H
	DB	00H
	DB	00H
	DB	00H
	DB	00H
	DB	00H
	DB	015H
	DB	02H
	DB	02H
	DB	02H
	DB	028H
	DB	00H
	DB	00H
	DB	00H
	DB	00H
	DB	00H
	DB	024H
	DB	02H
	DB	02H
	DB	02H
	DB	03aH
	DB	00H
	DB	00H
	DB	00H
	DB	037H
	DB	02H
	DB	02H
	DB	02H
	DB	0e7H
	DB	00H
	DB	00H
	DB	00H
	DB	027H
	DB	0ffH
	DB	02H
	DB	02H
	DB	052H
	DB	00H
	DB	00H
	DB	00H
	DB	00H
	DB	03cH
	DB	02H
	DB	02H
	DB	02H
	DB	018H
	DB	00H
	DB	05H
	DB	028H
	DB	02H
	DB	02H
	DB	032H
	DB	07H
	DB	00H
	DB	00H
	DB	00H
	DB	00H
	DB	065H
	DB	02H
	DB	02H
	DB	02H
	DB	0bdH
	DB	00H
	DB	00H
	DB	00H
	DB	00H
	DB	00H
	DB	00H
	DB	00H
	DB	00H
	DB	00H
	DB	00H
	DB	00H
	DB	00H
	DB	00H
	DB	00H
	DB	00H
	DB	00H
	DB	00H
	DB	00H
	DB	00H
	DB	00H
	DB	00H
	DB	00H
	DB	00H
	DB	00H
	DB	00H
	DB	00H
	DB	00H
	DB	00H
	DB	00H
	DB	00H
	DB	00H
	DB	00H
	DB	00H
	DB	00H
	DB	00H
	DB	00H
	DB	00H
	DB	00H
	DB	00H
	DB	00H
	DB	00H
	DB	00H
	DB	00H
	DB	00H
	DB	00H
	DB	00H
	DB	00H
	DB	00H
	DB	00H
	DB	00H
	DB	00H
	DB	00H
	DB	00H
	DB	00H
	DB	00H
	DB	00H
	DB	00H
	DB	00H
	DB	00H
	DB	00H
	DB	00H
	DB	00H
	DB	00H
	DB	00H
	DB	00H
	DB	00H
	DB	00H
	DB	00H
	DB	00H
	DB	00H
	DB	00H
	DB	015H
	DB	02H
	DB	02H
	DB	02H
	DB	028H
	DB	00H
	DB	00H
	DB	00H
	DB	00H
	DB	00H
	DB	024H
	DB	02H
	DB	02H
	DB	02H
	DB	03aH
	DB	00H
	DB	00H
	DB	00H
	DB	037H
	DB	02H
	DB	02H
	DB	02H
	DB	015H
	DB	00H
	DB	00H
	DB	00H
	DB	04H
	DB	0ffH
	DB	02H
	DB	02H
	DB	045H
	DB	00H
	DB	00H
	DB	00H
	DB	00H
	DB	03cH
	DB	02H
	DB	02H
	DB	02H
	DB	018H
	DB	00H
	DB	0bH
	DB	033H
	DB	02H
	DB	02H
	DB	02H
	DB	0a1H
	DB	030H
	DB	06eH
	DB	06eH
	DB	030H
	DB	032H
	DB	02H
	DB	02H
	DB	02H
	DB	018H
	DB	00H
	DB	00H
	DB	00H
	DB	00H
	DB	00H
	DB	00H
	DB	00H
	DB	00H
	DB	00H
	DB	00H
	DB	00H
	DB	00H
	DB	00H
	DB	00H
	DB	00H
	DB	00H
	DB	00H
	DB	00H
	DB	00H
	DB	00H
	DB	00H
	DB	00H
	DB	00H
	DB	00H
	DB	00H
	DB	00H
	DB	00H
	DB	00H
	DB	00H
	DB	00H
	DB	00H
	DB	00H
	DB	00H
	DB	00H
	DB	00H
	DB	00H
	DB	00H
	DB	00H
	DB	00H
	DB	00H
	DB	00H
	DB	00H
	DB	00H
	DB	00H
	DB	00H
	DB	00H
	DB	00H
	DB	00H
	DB	00H
	DB	00H
	DB	00H
	DB	00H
	DB	00H
	DB	00H
	DB	00H
	DB	00H
	DB	00H
	DB	00H
	DB	00H
	DB	00H
	DB	00H
	DB	00H
	DB	00H
	DB	00H
	DB	00H
	DB	00H
	DB	00H
	DB	00H
	DB	00H
	DB	00H
	DB	00H
	DB	015H
	DB	02H
	DB	02H
	DB	02H
	DB	028H
	DB	00H
	DB	00H
	DB	00H
	DB	00H
	DB	00H
	DB	024H
	DB	02H
	DB	02H
	DB	02H
	DB	03aH
	DB	00H
	DB	00H
	DB	00H
	DB	037H
	DB	02H
	DB	02H
	DB	02H
	DB	015H
	DB	00H
	DB	00H
	DB	00H
	DB	04H
	DB	0ffH
	DB	02H
	DB	02H
	DB	045H
	DB	00H
	DB	00H
	DB	00H
	DB	00H
	DB	03cH
	DB	02H
	DB	02H
	DB	02H
	DB	018H
	DB	00H
	DB	0c5H
	DB	033H
	DB	02H
	DB	02H
	DB	02H
	DB	02H
	DB	02H
	DB	02H
	DB	02H
	DB	02H
	DB	02H
	DB	0ffH
	DB	0ffH
	DB	02H
	DB	047H
	DB	00H
	DB	00H
	DB	00H
	DB	00H
	DB	00H
	DB	00H
	DB	00H
	DB	00H
	DB	00H
	DB	00H
	DB	00H
	DB	00H
	DB	00H
	DB	00H
	DB	00H
	DB	00H
	DB	00H
	DB	00H
	DB	00H
	DB	00H
	DB	00H
	DB	00H
	DB	00H
	DB	00H
	DB	00H
	DB	00H
	DB	00H
	DB	00H
	DB	00H
	DB	00H
	DB	00H
	DB	00H
	DB	00H
	DB	00H
	DB	00H
	DB	00H
	DB	00H
	DB	00H
	DB	00H
	DB	00H
	DB	00H
	DB	00H
	DB	00H
	DB	00H
	DB	00H
	DB	00H
	DB	00H
	DB	00H
	DB	00H
	DB	00H
	DB	00H
	DB	00H
	DB	00H
	DB	00H
	DB	00H
	DB	00H
	DB	00H
	DB	00H
	DB	00H
	DB	00H
	DB	00H
	DB	00H
	DB	00H
	DB	00H
	DB	00H
	DB	00H
	DB	00H
	DB	00H
	DB	00H
	DB	00H
	DB	00H
	DB	015H
	DB	02H
	DB	02H
	DB	02H
	DB	028H
	DB	00H
	DB	00H
	DB	00H
	DB	00H
	DB	00H
	DB	024H
	DB	02H
	DB	02H
	DB	02H
	DB	03aH
	DB	00H
	DB	00H
	DB	00H
	DB	037H
	DB	02H
	DB	02H
	DB	02H
	DB	015H
	DB	00H
	DB	00H
	DB	00H
	DB	04H
	DB	0ffH
	DB	02H
	DB	02H
	DB	045H
	DB	00H
	DB	00H
	DB	00H
	DB	00H
	DB	03cH
	DB	02H
	DB	02H
	DB	02H
	DB	018H
	DB	00H
	DB	0bH
	DB	0c1H
	DB	02H
	DB	02H
	DB	0bfH
	DB	047H
	DB	02bH
	DB	02bH
	DB	02bH
	DB	02bH
	DB	02bH
	DB	02bH
	DB	02bH
	DB	0e4H
	DB	016H
	DB	00H
	DB	00H
	DB	00H
	DB	00H
	DB	00H
	DB	00H
	DB	00H
	DB	00H
	DB	00H
	DB	00H
	DB	00H
	DB	00H
	DB	00H
	DB	00H
	DB	00H
	DB	00H
	DB	00H
	DB	00H
	DB	00H
	DB	00H
	DB	00H
	DB	00H
	DB	00H
	DB	00H
	DB	00H
	DB	00H
	DB	00H
	DB	00H
	DB	00H
	DB	00H
	DB	00H
	DB	00H
	DB	00H
	DB	00H
	DB	00H
	DB	00H
	DB	00H
	DB	00H
	DB	00H
	DB	00H
	DB	00H
	DB	00H
	DB	00H
	DB	00H
	DB	00H
	DB	00H
	DB	00H
	DB	00H
	DB	00H
	DB	00H
	DB	00H
	DB	00H
	DB	00H
	DB	00H
	DB	00H
	DB	00H
	DB	00H
	DB	00H
	DB	00H
	DB	00H
	DB	00H
	DB	00H
	DB	00H
	DB	00H
	DB	00H
	DB	00H
	DB	00H
	DB	00H
	DB	00H
	DB	00H
	DB	00H
	DB	015H
	DB	02H
	DB	02H
	DB	02H
	DB	028H
	DB	00H
	DB	00H
	DB	00H
	DB	00H
	DB	00H
	DB	024H
	DB	02H
	DB	02H
	DB	02H
	DB	03aH
	DB	00H
	DB	00H
	DB	00H
	DB	037H
	DB	02H
	DB	02H
	DB	02H
	DB	015H
	DB	00H
	DB	00H
	DB	00H
	DB	04H
	DB	0ffH
	DB	02H
	DB	02H
	DB	045H
	DB	00H
	DB	00H
	DB	00H
	DB	00H
	DB	03cH
	DB	02H
	DB	02H
	DB	02H
	DB	018H
	DB	00H
	DB	05H
	DB	0fbH
	DB	02H
	DB	02H
	DB	02dH
	DB	013H
	DB	00H
	DB	00H
	DB	00H
	DB	00H
	DB	00H
	DB	00H
	DB	00H
	DB	00H
	DB	00H
	DB	00H
	DB	00H
	DB	00H
	DB	00H
	DB	00H
	DB	00H
	DB	00H
	DB	00H
	DB	00H
	DB	00H
	DB	00H
	DB	00H
	DB	00H
	DB	00H
	DB	00H
	DB	00H
	DB	00H
	DB	00H
	DB	00H
	DB	00H
	DB	00H
	DB	00H
	DB	00H
	DB	00H
	DB	00H
	DB	00H
	DB	00H
	DB	00H
	DB	00H
	DB	00H
	DB	00H
	DB	00H
	DB	00H
	DB	00H
	DB	00H
	DB	00H
	DB	00H
	DB	00H
	DB	00H
	DB	00H
	DB	00H
	DB	00H
	DB	00H
	DB	00H
	DB	00H
	DB	00H
	DB	00H
	DB	00H
	DB	00H
	DB	00H
	DB	00H
	DB	00H
	DB	00H
	DB	00H
	DB	00H
	DB	00H
	DB	00H
	DB	00H
	DB	00H
	DB	00H
	DB	00H
	DB	00H
	DB	00H
	DB	00H
	DB	00H
	DB	00H
	DB	00H
	DB	00H
	DB	00H
	DB	00H
	DB	00H
	DB	015H
	DB	02H
	DB	02H
	DB	02H
	DB	028H
	DB	00H
	DB	00H
	DB	00H
	DB	00H
	DB	00H
	DB	024H
	DB	02H
	DB	02H
	DB	02H
	DB	03aH
	DB	00H
	DB	00H
	DB	00H
	DB	037H
	DB	02H
	DB	02H
	DB	02H
	DB	015H
	DB	00H
	DB	00H
	DB	00H
	DB	04H
	DB	0ffH
	DB	02H
	DB	02H
	DB	045H
	DB	00H
	DB	00H
	DB	00H
	DB	00H
	DB	03cH
	DB	02H
	DB	02H
	DB	02H
	DB	018H
	DB	00H
	DB	00H
	DB	04bH
	DB	02H
	DB	02H
	DB	02H
	DB	015H
	DB	00H
	DB	00H
	DB	00H
	DB	00H
	DB	00H
	DB	00H
	DB	00H
	DB	00H
	DB	00H
	DB	00H
	DB	00H
	DB	00H
	DB	00H
	DB	00H
	DB	00H
	DB	00H
	DB	00H
	DB	00H
	DB	00H
	DB	00H
	DB	00H
	DB	00H
	DB	00H
	DB	00H
	DB	00H
	DB	00H
	DB	00H
	DB	00H
	DB	00H
	DB	00H
	DB	00H
	DB	00H
	DB	00H
	DB	00H
	DB	00H
	DB	00H
	DB	00H
	DB	00H
	DB	00H
	DB	00H
	DB	00H
	DB	00H
	DB	00H
	DB	00H
	DB	00H
	DB	00H
	DB	00H
	DB	00H
	DB	00H
	DB	00H
	DB	00H
	DB	00H
	DB	00H
	DB	00H
	DB	00H
	DB	00H
	DB	00H
	DB	00H
	DB	00H
	DB	00H
	DB	00H
	DB	00H
	DB	00H
	DB	00H
	DB	00H
	DB	00H
	DB	00H
	DB	00H
	DB	00H
	DB	00H
	DB	00H
	DB	00H
	DB	00H
	DB	00H
	DB	00H
	DB	00H
	DB	00H
	DB	00H
	DB	00H
	DB	00H
	DB	015H
	DB	02H
	DB	02H
	DB	02H
	DB	028H
	DB	00H
	DB	00H
	DB	00H
	DB	00H
	DB	00H
	DB	024H
	DB	02H
	DB	02H
	DB	02H
	DB	03aH
	DB	00H
	DB	00H
	DB	00H
	DB	037H
	DB	02H
	DB	02H
	DB	02H
	DB	015H
	DB	00H
	DB	00H
	DB	00H
	DB	04H
	DB	0ffH
	DB	02H
	DB	02H
	DB	045H
	DB	00H
	DB	00H
	DB	00H
	DB	00H
	DB	03cH
	DB	02H
	DB	02H
	DB	02H
	DB	018H
	DB	00H
	DB	00H
	DB	04H
	DB	033H
	DB	02H
	DB	02H
	DB	0fdH
	DB	02bH
	DB	00H
	DB	00H
	DB	00H
	DB	0aH
	DB	0dfH
	DB	073H
	DB	0d8H
	DB	00H
	DB	00H
	DB	00H
	DB	00H
	DB	00H
	DB	00H
	DB	00H
	DB	00H
	DB	00H
	DB	00H
	DB	00H
	DB	00H
	DB	00H
	DB	00H
	DB	00H
	DB	00H
	DB	00H
	DB	00H
	DB	00H
	DB	00H
	DB	00H
	DB	00H
	DB	00H
	DB	00H
	DB	00H
	DB	00H
	DB	00H
	DB	00H
	DB	00H
	DB	00H
	DB	00H
	DB	00H
	DB	00H
	DB	00H
	DB	00H
	DB	00H
	DB	00H
	DB	00H
	DB	00H
	DB	00H
	DB	00H
	DB	00H
	DB	00H
	DB	00H
	DB	00H
	DB	00H
	DB	00H
	DB	00H
	DB	00H
	DB	00H
	DB	00H
	DB	00H
	DB	00H
	DB	00H
	DB	00H
	DB	00H
	DB	00H
	DB	00H
	DB	00H
	DB	00H
	DB	00H
	DB	00H
	DB	00H
	DB	00H
	DB	00H
	DB	00H
	DB	00H
	DB	00H
	DB	00H
	DB	00H
	DB	00H
	DB	00H
	DB	015H
	DB	02H
	DB	02H
	DB	02H
	DB	028H
	DB	00H
	DB	00H
	DB	00H
	DB	00H
	DB	00H
	DB	024H
	DB	02H
	DB	02H
	DB	02H
	DB	03aH
	DB	00H
	DB	00H
	DB	00H
	DB	037H
	DB	02H
	DB	02H
	DB	02H
	DB	015H
	DB	00H
	DB	00H
	DB	00H
	DB	04H
	DB	0ffH
	DB	02H
	DB	02H
	DB	045H
	DB	00H
	DB	00H
	DB	00H
	DB	00H
	DB	03cH
	DB	02H
	DB	02H
	DB	02H
	DB	018H
	DB	00H
	DB	00H
	DB	00H
	DB	056H
	DB	02H
	DB	02H
	DB	02H
	DB	0feH
	DB	028H
	DB	045H
	DB	05aH
	DB	06eH
	DB	0ffH
	DB	02H
	DB	02bH
	DB	00H
	DB	00H
	DB	00H
	DB	00H
	DB	00H
	DB	00H
	DB	00H
	DB	00H
	DB	00H
	DB	00H
	DB	00H
	DB	00H
	DB	00H
	DB	00H
	DB	00H
	DB	00H
	DB	00H
	DB	00H
	DB	00H
	DB	00H
	DB	00H
	DB	00H
	DB	00H
	DB	00H
	DB	00H
	DB	00H
	DB	00H
	DB	00H
	DB	00H
	DB	00H
	DB	00H
	DB	00H
	DB	00H
	DB	00H
	DB	00H
	DB	00H
	DB	00H
	DB	00H
	DB	00H
	DB	00H
	DB	00H
	DB	00H
	DB	00H
	DB	00H
	DB	00H
	DB	00H
	DB	00H
	DB	00H
	DB	00H
	DB	00H
	DB	00H
	DB	00H
	DB	00H
	DB	00H
	DB	00H
	DB	00H
	DB	00H
	DB	00H
	DB	00H
	DB	00H
	DB	00H
	DB	00H
	DB	00H
	DB	00H
	DB	00H
	DB	00H
	DB	00H
	DB	00H
	DB	00H
	DB	00H
	DB	00H
	DB	00H
	DB	015H
	DB	02H
	DB	02H
	DB	02H
	DB	028H
	DB	00H
	DB	00H
	DB	00H
	DB	00H
	DB	00H
	DB	024H
	DB	02H
	DB	02H
	DB	02H
	DB	052H
	DB	00H
	DB	00H
	DB	00H
	DB	087H
	DB	02H
	DB	02H
	DB	02H
	DB	0ceH
	DB	00H
	DB	00H
	DB	00H
	DB	04H
	DB	0ffH
	DB	02H
	DB	02H
	DB	06bH
	DB	00H
	DB	00H
	DB	00H
	DB	00H
	DB	03cH
	DB	02H
	DB	02H
	DB	02H
	DB	018H
	DB	00H
	DB	00H
	DB	00H
	DB	00H
	DB	073H
	DB	0feH
	DB	02H
	DB	02H
	DB	02H
	DB	02H
	DB	02H
	DB	02H
	DB	02H
	DB	030H
	DB	0e0H
	DB	00H
	DB	00H
	DB	00H
	DB	00H
	DB	00H
	DB	00H
	DB	00H
	DB	00H
	DB	00H
	DB	00H
	DB	00H
	DB	00H
	DB	00H
	DB	00H
	DB	00H
	DB	00H
	DB	00H
	DB	00H
	DB	00H
	DB	00H
	DB	00H
	DB	00H
	DB	00H
	DB	00H
	DB	00H
	DB	00H
	DB	00H
	DB	00H
	DB	00H
	DB	00H
	DB	00H
	DB	00H
	DB	00H
	DB	00H
	DB	00H
	DB	00H
	DB	00H
	DB	00H
	DB	00H
	DB	00H
	DB	00H
	DB	00H
	DB	00H
	DB	00H
	DB	00H
	DB	00H
	DB	00H
	DB	00H
	DB	00H
	DB	00H
	DB	00H
	DB	00H
	DB	00H
	DB	00H
	DB	00H
	DB	00H
	DB	00H
	DB	00H
	DB	00H
	DB	00H
	DB	00H
	DB	00H
	DB	00H
	DB	00H
	DB	00H
	DB	00H
	DB	00H
	DB	00H
	DB	00H
	DB	00H
	DB	00H
	DB	00H
	DB	019H
	DB	03aH
	DB	08aH
	DB	041H
	DB	087H
	DB	00H
	DB	00H
	DB	00H
	DB	00H
	DB	00H
	DB	07H
	DB	041H
	DB	08aH
	DB	041H
	DB	0cfH
	DB	00H
	DB	00H
	DB	00H
	DB	0e7H
	DB	0f7H
	DB	08aH
	DB	041H
	DB	0dfH
	DB	00H
	DB	00H
	DB	00H
	DB	0deH
	DB	089H
	DB	080H
	DB	0f7H
	DB	031H
	DB	00H
	DB	00H
	DB	00H
	DB	00H
	DB	048H
	DB	03aH
	DB	080H
	DB	08aH
	DB	04H
	DB	00H
	DB	00H
	DB	00H
	DB	00H
	DB	00H
	DB	03H
	DB	056H
	DB	041H
	DB	034H
	DB	034H
	DB	0a8H
	DB	04bH
	DB	0e7H
	DB	010H
	DB	00H
	DB	00H
	DB	00H
	DB	00H
	DB	00H
	DB	00H
	DB	00H
	DB	00H
	DB	00H
	DB	00H
	DB	00H
	DB	00H
	DB	00H
	DB	00H
	DB	00H
	DB	00H
	DB	00H
	DB	00H
	DB	00H
	DB	00H
	DB	00H
	DB	00H
	DB	00H
	DB	00H
	DB	00H
	DB	00H
	DB	00H
	DB	00H
	DB	00H
	DB	00H
	DB	00H
	DB	00H
	DB	00H
	DB	00H
	DB	00H
	DB	00H
	DB	00H
	DB	00H
	DB	00H
	DB	00H
	DB	00H
	DB	00H
	DB	00H
	DB	00H
	DB	00H
	DB	00H
	DB	00H
	DB	00H
	DB	00H
	DB	00H
	DB	00H
	DB	00H
	DB	00H
	DB	00H
	DB	00H
	DB	00H
	DB	00H
	DB	00H
	DB	00H
	DB	00H
	DB	00H
	DB	00H
	DB	00H
	DB	00H
	DB	00H
	DB	00H
	DB	00H
	DB	00H
	DB	00H
	DB	00H
	DB	00H
	DB	00H
	DB	00H
	DB	00H
	DB	00H
	DB	00H
	DB	00H
	DB	00H
	DB	00H
	DB	00H
	DB	00H
	DB	00H
	DB	00H
	DB	00H
	DB	00H
	DB	00H
	DB	00H
	DB	00H
	DB	00H
	DB	00H
	DB	00H
	DB	00H
	DB	00H
	DB	00H
	DB	00H
	DB	00H
	DB	00H
	DB	00H
	DB	00H
	DB	00H
	DB	00H
	DB	00H
	DB	00H
	DB	00H
	DB	00H
	DB	00H
	DB	00H
	DB	00H
	DB	00H
	DB	00H
	DB	00H
	DB	00H
	DB	00H
	DB	00H
	DB	00H
	DB	00H
	DB	00H
	DB	00H
	DB	00H
	DB	00H
	DB	00H
	DB	0d8H
	DB	05H
	DB	0d7H
	DB	00H
	DB	00H
	DB	00H
	DB	00H
	DB	00H
	DB	00H
	DB	00H
	DB	00H
	DB	00H
	DB	00H
	DB	00H
	DB	00H
	DB	00H
	DB	00H
	DB	00H
	DB	00H
	DB	00H
	DB	00H
	DB	00H
	DB	00H
	DB	00H
	DB	00H
	DB	00H
	DB	00H
	DB	00H
	DB	00H
	DB	00H
	DB	00H
	DB	00H
	DB	00H
	DB	00H
	DB	00H
	DB	00H
	DB	00H
	DB	00H
	DB	00H
	DB	00H
	DB	00H
	DB	00H
	DB	00H
	DB	00H
	DB	00H
	DB	00H
	DB	00H
	DB	00H
	DB	00H
	DB	00H
	DB	00H
	DB	00H
	DB	00H
	DB	00H
	DB	00H
	DB	00H
	DB	00H
	DB	00H
	DB	00H
	DB	00H
	DB	00H
	DB	00H
	DB	00H
	DB	00H
	DB	00H
	DB	00H
	DB	00H
	DB	00H
	DB	00H
	DB	00H
	DB	00H
	DB	00H
	DB	00H
	DB	00H
	DB	00H
	DB	00H
	DB	00H
	DB	00H
	DB	00H
	DB	00H
	DB	00H
	DB	00H
	DB	00H
	DB	00H
	DB	00H
	DB	00H
	DB	00H
	DB	00H
	DB	00H
	DB	00H
	DB	00H
	DB	00H
	DB	00H
	DB	00H
	DB	00H
	DB	00H
	DB	00H
	DB	00H
	DB	00H
	DB	00H
	DB	00H
	DB	00H
	DB	00H
	DB	00H
	DB	00H
	DB	00H
	DB	00H
	DB	00H
	DB	00H
	DB	00H
	DB	00H
	DB	00H
	DB	00H
	DB	00H
	DB	00H
	DB	00H
	DB	00H
	DB	00H
	DB	00H
	DB	00H
	DB	00H
	DB	00H
	DB	00H
	DB	00H
	DB	00H
	DB	00H
	DB	00H
	DB	00H
	DB	00H
	DB	00H
	DB	00H
	DB	00H
	DB	00H
	DB	00H
	DB	00H
	DB	00H
	DB	00H
	DB	00H
	DB	00H
	DB	00H
	DB	00H
	DB	00H
	DB	00H
	DB	00H
	DB	00H
	DB	00H
	DB	00H
	DB	00H
	DB	00H
	DB	00H
	DB	00H
	DB	00H
	DB	00H
	DB	00H
	DB	00H
	DB	00H
	DB	00H
	DB	00H
	DB	00H
	DB	00H
	DB	00H
	DB	00H
	DB	00H
	DB	00H
	DB	00H
	DB	00H
	DB	00H
	DB	00H
	DB	00H
	DB	00H
	DB	00H
	DB	00H
	DB	00H
	DB	00H
	DB	00H
	DB	00H
	DB	00H
	DB	00H
	DB	00H
	DB	00H
	DB	00H
	DB	00H
	DB	00H
	DB	00H
	DB	00H
	DB	00H
	DB	00H
	DB	00H
	DB	00H
	DB	00H
	DB	00H
	DB	00H
	DB	00H
	DB	00H
	DB	00H
	DB	00H
	DB	00H
	DB	00H
	DB	00H
	DB	00H
	DB	00H
	DB	00H
	DB	00H
	DB	00H
	DB	00H
	DB	00H
	DB	00H
	DB	00H
	DB	00H
	DB	00H
	DB	00H
	DB	00H
	DB	00H
	DB	00H
	DB	00H
	DB	00H
	DB	00H
	DB	00H
	DB	00H
	DB	00H
	DB	00H
	DB	00H
	DB	00H
	DB	00H
	DB	00H
	DB	00H
	DB	00H
	DB	00H
	DB	00H
	DB	00H
	DB	00H
	DB	00H
	DB	00H
	DB	00H
	DB	00H
	DB	00H
	DB	00H
	DB	00H
	DB	00H
	DB	00H
	DB	00H
	DB	00H
	DB	00H
	DB	00H
	DB	00H
	DB	00H
	DB	00H
	DB	00H
	DB	00H
	DB	00H
	DB	00H
	DB	00H
	DB	00H
	DB	00H
	DB	00H
	DB	00H
	DB	00H
	DB	00H
	DB	00H
	DB	00H
	DB	00H
	DB	00H
	DB	00H
	DB	00H
	DB	00H
	DB	00H
	DB	00H
	DB	00H
	DB	00H
	DB	00H
	DB	00H
	DB	00H
	DB	00H
	DB	00H
	DB	00H
	DB	00H
	DB	00H
	DB	00H
	DB	00H
	DB	00H
	DB	00H
	DB	00H
	DB	00H
	DB	00H
	DB	00H
	DB	00H
	DB	00H
	DB	00H
	DB	00H
	DB	00H
	DB	00H
	DB	00H
	DB	00H
	DB	00H
	DB	00H
	DB	00H
	DB	00H
	DB	00H
	DB	00H
	DB	00H
	DB	00H
	DB	00H
	DB	00H
	DB	00H
	DB	00H
	DB	00H
	DB	00H
	DB	00H
	DB	00H
	DB	00H
	DB	00H
	DB	00H
	DB	00H
	DB	00H
	DB	00H
	DB	00H
	DB	00H
	DB	00H
	DB	00H
	DB	00H
	DB	00H
	DB	00H
	DB	00H
	DB	00H
	DB	00H
	DB	00H
	DB	00H
	DB	00H
	DB	00H
	DB	00H
	DB	00H
	DB	00H
	DB	00H
	DB	00H
	DB	00H
	DB	00H
	DB	00H
	DB	00H
	DB	00H
	DB	00H
	DB	00H
	DB	00H
	DB	00H
	DB	00H
	DB	00H
	DB	00H
	DB	00H
	DB	00H
	DB	00H
	DB	00H
	DB	00H
	DB	00H
	DB	00H
	DB	00H
	DB	00H
	DB	00H
	DB	00H
	DB	00H
	DB	00H
	DB	00H
	DB	00H
	DB	00H
	DB	00H
	DB	00H
	DB	00H
	DB	00H
	DB	00H
	DB	00H
	DB	00H
	DB	00H
	DB	00H
	DB	00H
	DB	00H
	DB	00H
	DB	00H
	DB	00H
	DB	00H
	DB	00H
	DB	00H
	DB	00H
	DB	00H
	DB	00H
	DB	00H
	DB	00H
	DB	00H
	DB	00H
	DB	00H
	DB	00H
	DB	00H
	DB	00H
	DB	00H
	DB	00H
	DB	00H
	DB	00H
	DB	00H
	DB	00H
	DB	00H
	DB	00H
	DB	00H
	DB	00H
	DB	00H
	DB	00H
	DB	00H
	DB	00H
	DB	00H
	DB	00H
	DB	00H
	DB	00H
	DB	00H
	DB	00H
	DB	00H
	DB	00H
	DB	00H
	DB	00H
	DB	00H
	DB	00H
	DB	00H
	DB	00H
	DB	00H
	DB	00H
	DB	00H
	DB	00H
	DB	00H
	DB	00H
	DB	00H
	DB	00H
	DB	00H
	DB	00H
	DB	00H
	DB	00H
	DB	00H
	DB	00H
	DB	00H
	DB	00H
	DB	00H
	DB	00H
	DB	00H
	DB	00H
	DB	00H
	DB	00H
	DB	00H
	DB	00H
	DB	00H
	DB	00H
	DB	00H
	DB	00H
	DB	00H
	DB	00H
	DB	00H
	DB	00H
	DB	00H
	DB	00H
	DB	00H
	DB	00H
	DB	00H
	DB	00H
	DB	00H
	DB	00H
	DB	00H
	DB	00H
	DB	00H
	DB	00H
	DB	00H
	DB	00H
	DB	00H
	DB	00H
	DB	00H
	DB	00H
	DB	00H
	DB	00H
	DB	00H
	DB	00H
	DB	00H
	DB	00H
	DB	00H
	DB	00H
	DB	00H
	DB	00H
	DB	00H
	DB	00H
	DB	00H
	DB	00H
	DB	00H
	DB	00H
	DB	00H
	DB	00H
	DB	00H
	DB	00H
	DB	00H
	DB	00H
	DB	00H
	DB	00H
	DB	00H
	DB	00H
	DB	00H
	DB	00H
	DB	00H
	DB	00H
	DB	00H
	DB	00H
	DB	00H
	DB	00H
	DB	00H
	DB	00H
	DB	00H
	DB	00H
	DB	00H
	DB	00H
	DB	00H
	DB	00H
	DB	00H
	DB	00H
	DB	00H
	DB	00H
	DB	00H
	DB	00H
	DB	00H
	DB	00H
	DB	00H
	DB	00H
	DB	00H
	DB	00H
	DB	00H
	DB	00H
	DB	00H
	DB	00H
	DB	00H
	DB	00H
	DB	00H
	DB	00H
	DB	00H
	DB	00H
	DB	00H
	DB	00H
	DB	00H
	DB	00H
	DB	00H
	DB	00H
	DB	00H
	DB	00H
	DB	00H
	DB	00H
	DB	00H
	DB	00H
	DB	00H
	DB	00H
	DB	00H
	DB	00H
	DB	00H
	DB	00H
	DB	00H
	DB	00H
	DB	00H
	DB	00H
	DB	00H
	DB	00H
	DB	00H
	DB	00H
	DB	00H
	DB	00H
	DB	00H
	DB	00H
	DB	00H
	DB	00H
	DB	00H
	DB	00H
	DB	00H
	DB	00H
	DB	00H
	DB	00H
	DB	00H
	DB	00H
	DB	00H
	DB	00H
	DB	00H
	DB	00H
	DB	00H
	DB	00H
	DB	00H
	DB	00H
	DB	00H
	DB	00H
	DB	00H
	DB	00H
	DB	00H
	DB	00H
	DB	00H
	DB	00H
	DB	00H
	DB	00H
	DB	00H
	DB	00H
	DB	00H
	DB	00H
	DB	00H
	DB	00H
	DB	00H
	DB	00H
	DB	00H
	DB	00H
	DB	00H
	DB	00H
	DB	00H
	DB	00H
	DB	00H
	DB	00H
	DB	00H
	DB	00H
	DB	00H
	DB	00H
	DB	00H
	DB	00H
	DB	00H
	DB	00H
	DB	00H
	DB	00H
	DB	00H
	DB	00H
	DB	00H
	DB	00H
	DB	00H
	DB	00H
	DB	00H
	DB	00H
	DB	00H
	DB	00H
	DB	00H
	DB	00H
	DB	00H
	DB	00H
	DB	00H
	DB	00H
	DB	00H
	DB	00H
	DB	00H
	DB	00H
	DB	00H
	DB	00H
	DB	00H
	DB	00H
	DB	00H
	DB	00H
	DB	00H
	DB	00H
	DB	00H
	DB	00H
	DB	00H
	DB	00H
	DB	00H
	DB	00H
	DB	00H
	DB	00H
	DB	00H
	DB	00H
	DB	00H
	DB	00H
	DB	00H
	DB	00H
	DB	00H
	DB	00H
	DB	00H
	DB	00H
	DB	00H
	DB	00H
	DB	00H
	DB	00H
	DB	00H
	DB	00H
	DB	00H
	DB	00H
	DB	00H
	DB	00H
	DB	00H
	DB	00H
	DB	00H
	DB	00H
	DB	00H
	DB	00H
	DB	00H
	DB	00H
	DB	00H
	DB	00H
	DB	00H
	DB	00H
	DB	00H
	DB	00H
	DB	00H
	DB	00H
	DB	00H
	DB	00H
	DB	00H
	DB	00H
	DB	00H
	DB	00H
	DB	00H
	DB	00H
	DB	00H
	DB	00H
	DB	00H
	DB	00H
	DB	00H
	DB	00H
	DB	00H
	DB	00H
	DB	00H
	DB	00H
	DB	00H
	DB	00H
	DB	00H
	DB	00H
	DB	00H
	DB	00H
	DB	00H
	DB	00H
	DB	00H
	DB	00H
	DB	00H
	DB	00H
	DB	00H
	DB	00H
	DB	00H
	DB	00H
	DB	00H
	DB	00H
	DB	00H
	DB	00H
	DB	00H
	DB	00H
	DB	00H
	DB	00H
	DB	00H
	DB	00H
	DB	00H
	DB	00H
	DB	00H
	DB	00H
	DB	00H
	DB	00H
	DB	00H
	DB	00H
	DB	00H
	DB	00H
	DB	00H
	DB	00H
	DB	00H
	DB	00H
	DB	00H
	DB	00H
	DB	00H
	DB	00H
	DB	00H
	DB	00H
	DB	00H
	DB	00H
	DB	00H
	DB	00H
	DB	00H
	DB	00H
	DB	00H
	DB	00H
	DB	00H
	DB	00H
	DB	00H
	DB	00H
	DB	00H
	DB	00H
	DB	00H
	DB	00H
	DB	00H
	DB	00H
	DB	00H
	DB	00H
	DB	00H
	DB	00H
	DB	00H
	DB	00H
	DB	00H
	DB	00H
	DB	00H
	DB	00H
	DB	00H
	DB	00H
	DB	00H
	DB	00H
	DB	00H
	DB	00H
	DB	00H
	DB	00H
	DB	00H
	DB	00H
	DB	00H
	DB	00H
	DB	00H
	DB	00H
	DB	00H
	DB	00H
	DB	00H
	DB	00H
	DB	00H
	DB	00H
	DB	00H
	DB	00H
	DB	00H
CONST	ENDS
END
