; Listing generated by Microsoft (R) Optimizing Compiler Version 16.00.40219.01 

	TITLE	C:\DUII\DUII\Graphics\TimeSlip.c
	.686P
	.XMM
	include listing.inc
	.model	flat

INCLUDELIB LIBCMT
INCLUDELIB OLDNAMES

PUBLIC	_bmTimeSlip
CONST	SEGMENT
_ColorsTimeSlip DD 0eaf0e7H
	DD	0f3fcfaH
	DD	0eaf5f3H
	DD	0ecf8f6H
	DD	0e5f3f1H
	DD	0dcebeaH
	DD	0e3f0eeH
	DD	0f9fefdH
	DD	0e1edebH
	DD	0d5e2e3H
	DD	0d9e5e5H
	DD	0eefaf8H
	DD	0d1dcddH
	DD	020202H
	DD	0b0b0bH
	DD	0cdd9dbH
	DD	0131213H
	DD	0cbd5d9H
	DD	0dae8e6H
	DD	0f0f9f6H
	DD	0d2dee0H
	DD	0c9d3d5H
	DD	0c3cdd1H
	DD	0191919H
	DD	01d1d1dH
	DD	0ecefedH
	DD	0323132H
	DD	0c6d0d4H
	DD	0212121H
	DD	0c1cacdH
	DD	0def0edH
	DD	0bcc5caH
	DD	02d2d2dH
	DD	0343434H
	DD	0252525H
	DD	0292929H
	DD	03d3d3dH
	DD	0393939H
	DD	0d9e6e8H
	DD	0414141H
	DD	0bac2c4H
	DD	0494949H
	DD	09ba3a2H
	DD	0a3abaaH
	DD	0454546H
	DD	0616464H
	DD	0b4bbbaH
	DD	0d6e6e8H
	DD	0bec8ccH
	DD	0b4bcc2H
	DD	0abb3b2H
	DD	0cedce0H
	DD	0d6e8e8H
	DD	08c9292H
	DD	0e6f8f4H
	DD	07c8282H
	DD	0e8f2edH
	DD	0747a7aH
	DD	0595c5cH
	DD	0858b8aH
	DD	0949b9bH
	DD	0d4e0deH
	DD	0989d9cH
	DD	04e5151H
	DD	0656969H
	DD	0c6d3d8H
	DD	0def1f1H
	DD	0242324H
	DD	0525555H
	DD	0555959H
	DD	05e6162H
	DD	0898e8cH
	DD	0e2e9e5H
	DD	0100f10H
	DD	0181716H
	DD	01c1b1cH
	DD	0343233H
	DD	0201f20H
	DD	0343433H
	DD	0181718H
	DD	0343234H
	DD	0545656H
	DD	0100f0fH
	DD	0282628H
	DD	02c2b2cH
	DD	04c4d4dH
	DD	0383738H
	DD	06c7170H
	DD	0707574H
	DD	0a0a5a4H
	DD	0adb4bbH
	DD	04a4c4cH
	DD	0696d6dH
	DD	0818584H
	DD	0b6c0c3H
	DD	0c4d0ceH
	DD	0181817H
	DD	0201f1fH
	DD	0302f30H
	DD	0403f3fH
	DD	0515254H
	DD	07a7d7aH
	DD	0929594H
	DD	0aeb9b9H
	DD	0d6e8e6H
	DD	0f0f6f5H
	DD	0242222H
	DD	03b3d3cH
	DD	0424545H
	DD	0464848H
	DD	04a4c4aH
	DD	0505152H
	DD	0929896H
	DD	0a1a8a6H
	DD	0a9aeadH
	DD	02a2b2cH
	DD	05b5e60H
	DD	0636668H
	DD	0bac0bdH
	DD	0c8cdcbH
	DD	080707H
	DD	010100fH
	DD	0f0f10H
	DD	0171718H
	DD	01c1b1aH
	DD	01f1f20H
	DD	02c2b2aH
	DD	0323434H
	DD	03c3a3aH
	DD	0403f40H
	DD	04c4b4cH
	DD	0646867H
	DD	0626868H
	DD	082827dH
	DD	0aab0aeH
	DD	0b8bebcH
	DD	0c1c5c4H
	DD	0cdd8d5H
	DD	0d1d6d5H
	DD	0d1d8d6H
	DD	0d8dddcH
	DD	080708H
	DD	0171818H
	DD	01b1b1cH
	DD	0232324H
	DD	0222424H
	DD	02a2827H
	DD	02b2c2cH
	DD	02e2e30H
	DD	02f3030H
	DD	0373938H
	DD	03a3c3aH
	DD	03c3b3cH
	DD	03e4040H
	DD	0464847H
	DD	0494b4cH
	DD	04d4e50H
	DD	0545658H
	DD	05c605eH
	DD	066696cH
	DD	06b6f71H
	DD	06e7276H
	DD	0727876H
	DD	07a7a76H
	DD	0838886H
	DD	08c8c85H
	DD	09a9a93H
	DD	09ba09eH
	DD	0959ca1H
	DD	096a0a0H
	DD	09ea6aaH
	DD	0b2b3aaH
	DD	0b0b8b6H
	DD	0b5c0beH
	DD	0b8bfc5H
	DD	0c4c9c6H
	DD	0c0c6caH
	DD	0c8d0cdH
	DD	0d9e1dfH
	DD	0e9eeecH
	DD	080807H
	DD	0171817H
	DD	01c1c1aH
	DD	01b1c1cH
	DD	01f2020H
	DD	0272523H
	DD	0282627H
	DD	0272728H
	DD	0302f2fH
	DD	0333433H
	DD	0383737H
	DD	0383836H
	DD	0363738H
	DD	03a3b3cH
	DD	03e403eH
	DD	040403fH
	DD	03d3f40H
	DD	0575c5bH
	DD	0656c6bH
	DD	0666d6cH
	DD	06e706fH
	DD	06b7271H
	DD	06e7474H
	DD	07a7f81H
	DD	081868bH
	DD	08a908dH
	DD	094938dH
	DD	08c9298H
	DD	0a4a59dH
	DD	09ea8a6H
	DD	09ea8a8H
	DD	0b2b7b5H
	DD	0bcbdb4H
	DD	0c8cfd1H
	DD	0dceef0H
	DD	070708H
	DD	01b1c1bH
	DD	020201fH
	DD	0232423H
	DD	0272827H
	DD	02c2c2bH
	DD	0333334H
	DD	0373837H
	DD	0444343H
	DD	0444543H
	DD	0414344H
	DD	0444344H
	DD	0484847H
	DD	0474748H
	DD	04c4b49H
	DD	051514eH
	DD	0535553H
	DD	0575553H
	DD	057595cH
	DD	06b6c67H
	DD	0696b6bH
	DD	06c6e6bH
	DD	0716f6dH
	DD	06d7473H
	DD	0879090H
	DD	0999fa3H
	DD	0aeafa6H
	DD	0a0a7aeH
	DD	0a7b0afH
	DD	0a5afb0H
	DD	0adb8b7H
	DD	0c1c2b8H
	DD	0afb8c0H
	DD	0bec8c6H
	DD	0bfcad0H
	DD	0d0d7d9H
	DD	0d9dfe1H
	DD	0e1e5e4H
	DD	0e2eff2H
	DD	0f4f7f8H
	DD	0e2e8deH
_PalTimeSlip DD	0100H
	DB	00H
	ORG $+3
	DD	FLAT:_ColorsTimeSlip
_bmTimeSlip DW	0deH
	DW	0cfH
	DW	0deH
	DW	08H
	DD	FLAT:_acTimeSlip
	DD	FLAT:_PalTimeSlip
	ORG $+4
_acTimeSlip DB	01cH
	DB	02cH
	DB	020H
	DB	043H
	DB	082H
	DB	0bbH
	DB	0bbH
	DB	082H
	DB	043H
	DB	020H
	DB	029H
	DB	018H
	DB	021H
	DB	02cH
	DB	08fH
	DB	025H
	DB	027H
	DB	04bH
	DB	027H
	DB	024H
	DB	07dH
	DB	0e4H
	DB	025H
	DB	01cH
	DB	029H
	DB	0bcH
	DB	01cH
	DB	029H
	DB	023H
	DB	043H
	DB	029H
	DB	022H
	DB	020H
	DB	082H
	DB	01cH
	DB	01aH
	DB	029H
	DB	018H
	DB	056H
	DB	027H
	DB	017H
	DB	024H
	DB	024H
	DB	017H
	DB	027H
	DB	056H
	DB	018H
	DB	029H
	DB	01aH
	DB	01cH
	DB	082H
	DB	020H
	DB	022H
	DB	029H
	DB	022H
	DB	023H
	DB	029H
	DB	01cH
	DB	0bcH
	DB	0e4H
	DB	07dH
	DB	0beH
	DB	02cH
	DB	018H
	DB	024H
	DB	027H
	DB	04bH
	DB	027H
	DB	025H
	DB	08fH
	DB	02cH
	DB	021H
	DB	018H
	DB	029H
	DB	020H
	DB	043H
	DB	082H
	DB	0bbH
	DB	0bbH
	DB	082H
	DB	043H
	DB	020H
	DB	029H
	DB	018H
	DB	021H
	DB	02cH
	DB	08fH
	DB	025H
	DB	027H
	DB	04bH
	DB	027H
	DB	024H
	DB	018H
	DB	02cH
	DB	0beH
	DB	07dH
	DB	0e4H
	DB	094H
	DB	01cH
	DB	029H
	DB	023H
	DB	022H
	DB	029H
	DB	022H
	DB	020H
	DB	082H
	DB	01cH
	DB	01aH
	DB	029H
	DB	018H
	DB	056H
	DB	027H
	DB	017H
	DB	024H
	DB	024H
	DB	017H
	DB	027H
	DB	056H
	DB	018H
	DB	029H
	DB	01aH
	DB	04dH
	DB	082H
	DB	020H
	DB	022H
	DB	029H
	DB	022H
	DB	023H
	DB	029H
	DB	01cH
	DB	0bcH
	DB	0e4H
	DB	07dH
	DB	0beH
	DB	02cH
	DB	018H
	DB	024H
	DB	027H
	DB	04bH
	DB	027H
	DB	025H
	DB	08fH
	DB	02cH
	DB	021H
	DB	018H
	DB	029H
	DB	020H
	DB	043H
	DB	082H
	DB	0bbH
	DB	0bbH
	DB	082H
	DB	043H
	DB	020H
	DB	029H
	DB	018H
	DB	021H
	DB	02cH
	DB	08fH
	DB	025H
	DB	027H
	DB	04bH
	DB	027H
	DB	024H
	DB	018H
	DB	02cH
	DB	0beH
	DB	07dH
	DB	0e4H
	DB	094H
	DB	01cH
	DB	029H
	DB	023H
	DB	022H
	DB	029H
	DB	022H
	DB	020H
	DB	082H
	DB	01cH
	DB	01aH
	DB	029H
	DB	018H
	DB	056H
	DB	027H
	DB	017H
	DB	024H
	DB	024H
	DB	017H
	DB	027H
	DB	056H
	DB	018H
	DB	029H
	DB	01aH
	DB	01cH
	DB	082H
	DB	020H
	DB	022H
	DB	029H
	DB	022H
	DB	023H
	DB	029H
	DB	01cH
	DB	0bcH
	DB	0e4H
	DB	07dH
	DB	0beH
	DB	02cH
	DB	018H
	DB	024H
	DB	027H
	DB	04bH
	DB	027H
	DB	025H
	DB	08fH
	DB	02cH
	DB	021H
	DB	018H
	DB	029H
	DB	020H
	DB	043H
	DB	082H
	DB	023H
	DB	021H
	DB	01aH
	DB	0bdH
	DB	021H
	DB	01aH
	DB	04cH
	DB	04cH
	DB	01aH
	DB	021H
	DB	0bdH
	DB	01aH
	DB	021H
	DB	04cH
	DB	01aH
	DB	021H
	DB	01aH
	DB	01aH
	DB	021H
	DB	01aH
	DB	01aH
	DB	021H
	DB	04cH
	DB	04cH
	DB	021H
	DB	01aH
	DB	04cH
	DB	021H
	DB	01aH
	DB	04eH
	DB	04eH
	DB	01aH
	DB	021H
	DB	0bdH
	DB	01aH
	DB	021H
	DB	04cH
	DB	01aH
	DB	021H
	DB	04cH
	DB	01aH
	DB	021H
	DB	01aH
	DB	01aH
	DB	021H
	DB	01aH
	DB	01aH
	DB	021H
	DB	01aH
	DB	01aH
	DB	0bdH
	DB	094H
	DB	062H
	DB	01aH
	DB	094H
	DB	01aH
	DB	01aH
	DB	062H
	DB	0bdH
	DB	01aH
	DB	062H
	DB	04eH
	DB	01aH
	DB	01aH
	DB	021H
	DB	01aH
	DB	01aH
	DB	021H
	DB	01aH
	DB	01aH
	DB	021H
	DB	01aH
	DB	04cH
	DB	021H
	DB	01aH
	DB	0bdH
	DB	04eH
	DB	01aH
	DB	0bdH
	DB	0bdH
	DB	01aH
	DB	021H
	DB	0bdH
	DB	01aH
	DB	04eH
	DB	04cH
	DB	01aH
	DB	021H
	DB	01aH
	DB	01aH
	DB	021H
	DB	01aH
	DB	01aH
	DB	021H
	DB	01aH
	DB	01aH
	DB	021H
	DB	01aH
	DB	04cH
	DB	021H
	DB	01aH
	DB	0bdH
	DB	04eH
	DB	01aH
	DB	021H
	DB	0bdH
	DB	01aH
	DB	021H
	DB	04cH
	DB	01aH
	DB	021H
	DB	01aH
	DB	01aH
	DB	04eH
	DB	01aH
	DB	01aH
	DB	04eH
	DB	01aH
	DB	01aH
	DB	0bdH
	DB	01aH
	DB	01aH
	DB	021H
	DB	021H
	DB	021H
	DB	0bdH
	DB	01aH
	DB	04eH
	DB	021H
	DB	01aH
	DB	021H
	DB	0bdH
	DB	01aH
	DB	021H
	DB	04cH
	DB	01aH
	DB	021H
	DB	01aH
	DB	01aH
	DB	021H
	DB	01aH
	DB	01aH
	DB	021H
	DB	01aH
	DB	04cH
	DB	021H
	DB	01aH
	DB	0bdH
	DB	021H
	DB	01aH
	DB	04cH
	DB	04cH
	DB	01aH
	DB	021H
	DB	0bdH
	DB	01aH
	DB	021H
	DB	04cH
	DB	01aH
	DB	021H
	DB	01aH
	DB	01aH
	DB	021H
	DB	01aH
	DB	01aH
	DB	021H
	DB	01aH
	DB	04cH
	DB	021H
	DB	01aH
	DB	04cH
	DB	021H
	DB	01aH
	DB	04eH
	DB	04eH
	DB	01aH
	DB	021H
	DB	0bdH
	DB	01aH
	DB	021H
	DB	04cH
	DB	01aH
	DB	021H
	DB	04cH
	DB	01aH
	DB	021H
	DB	04cH
	DB	01aH
	DB	021H
	DB	01aH
	DB	04cH
	DB	021H
	DB	01aH
	DB	04cH
	DB	021H
	DB	01aH
	DB	0bdH
	DB	021H
	DB	01aH
	DB	04eH
	DB	021H
	DB	01aH
	DB	021H
	DB	0bdH
	DB	01aH
	DB	021H
	DB	04cH
	DB	01aH
	DB	021H
	DB	01aH
	DB	01aH
	DB	021H
	DB	01aH
	DB	01aH
	DB	021H
	DB	01aH
	DB	04cH
	DB	021H
	DB	01aH
	DB	0bdH
	DB	021H
	DB	01aH
	DB	04cH
	DB	024H
	DB	090H
	DB	04cH
	DB	080H
	DB	018H
	DB	0beH
	DB	056H
	DB	07dH
	DB	098H
	DB	04cH
	DB	01cH
	DB	063H
	DB	094H
	DB	043H
	DB	027H
	DB	062H
	DB	023H
	DB	081H
	DB	022H
	DB	023H
	DB	081H
	DB	043H
	DB	020H
	DB	063H
	DB	01cH
	DB	04cH
	DB	024H
	DB	01cH
	DB	0c0H
	DB	025H
	DB	04dH
	DB	025H
	DB	021H
	DB	018H
	DB	098H
	DB	0bcH
	DB	018H
	DB	080H
	DB	053H
	DB	04dH
	DB	024H
	DB	022H
	DB	022H
	DB	024H
	DB	01cH
	DB	092H
	DB	080H
	DB	018H
	DB	094H
	DB	024H
	DB	022H
	DB	024H
	DB	09aH
	DB	020H
	DB	0e2H
	DB	0c4H
	DB	0bbH
	DB	063H
	DB	01aH
	DB	07dH
	DB	080H
	DB	023H
	DB	061H
	DB	080H
	DB	022H
	DB	01cH
	DB	025H
	DB	04dH
	DB	022H
	DB	098H
	DB	04dH
	DB	054H
	DB	098H
	DB	07dH
	DB	01aH
	DB	025H
	DB	018H
	DB	021H
	DB	021H
	DB	04bH
	DB	056H
	DB	062H
	DB	018H
	DB	098H
	DB	020H
	DB	01cH
	DB	024H
	DB	053H
	DB	06aH
	DB	024H
	DB	043H
	DB	0bbH
	DB	024H
	DB	01cH
	DB	020H
	DB	063H
	DB	090H
	DB	021H
	DB	024H
	DB	01cH
	DB	0c0H
	DB	025H
	DB	061H
	DB	056H
	DB	01aH
	DB	018H
	DB	025H
	DB	020H
	DB	018H
	DB	024H
	DB	054H
	DB	022H
	DB	027H
	DB	023H
	DB	023H
	DB	027H
	DB	022H
	DB	062H
	DB	0e2H
	DB	0bbH
	DB	021H
	DB	02cH
	DB	062H
	DB	081H
	DB	081H
	DB	090H
	DB	025H
	DB	0c0H
	DB	07dH
	DB	098H
	DB	01aH
	DB	01cH
	DB	063H
	DB	020H
	DB	090H
	DB	063H
	DB	023H
	DB	022H
	DB	081H
	DB	022H
	DB	054H
	DB	027H
	DB	090H
	DB	094H
	DB	063H
	DB	01cH
	DB	04cH
	DB	080H
	DB	018H
	DB	0beH
	DB	0beH
	DB	018H
	DB	080H
	DB	050H
	DB	01cH
	DB	063H
	DB	094H
	DB	090H
	DB	027H
	DB	054H
	DB	022H
	DB	081H
	DB	022H
	DB	023H
	DB	063H
	DB	090H
	DB	020H
	DB	063H
	DB	01cH
	DB	04cH
	DB	024H
	DB	04dH
	DB	0c0H
	DB	025H
	DB	061H
	DB	025H
	DB	021H
	DB	061H
	DB	098H
	DB	062H
	DB	04dH
	DB	063H
	DB	054H
	DB	022H
	DB	027H
	DB	023H
	DB	023H
	DB	0e1H
	DB	022H
	DB	020H
	DB	063H
	DB	01cH
	DB	062H
	DB	024H
	DB	061H
	DB	021H
	DB	025H
	DB	04dH
	DB	025H
	DB	0beH
	DB	01cH
	DB	024H
	DB	04cH
	DB	01cH
	DB	063H
	DB	020H
	DB	090H
	DB	063H
	DB	023H
	DB	022H
	DB	081H
	DB	022H
	DB	054H
	DB	027H
	DB	043H
	DB	0bcH
	DB	063H
	DB	01cH
	DB	04cH
	DB	080H
	DB	018H
	DB	0beH
	DB	01cH
	DB	024H
	DB	054H
	DB	090H
	DB	027H
	DB	0baH
	DB	023H
	DB	02cH
	DB	053H
	DB	095H
	DB	027H
	DB	090H
	DB	025H
	DB	05bH
	DB	01aH
	DB	06dH
	DB	09aH
	DB	022H
	DB	063H
	DB	098H
	DB	043H
	DB	024H
	DB	01aH
	DB	04dH
	DB	024H
	DB	054H
	DB	01cH
	DB	024H
	DB	053H
	DB	022H
	DB	063H
	DB	090H
	DB	022H
	DB	024H
	DB	01cH
	DB	01aH
	DB	09bH
	DB	0c1H
	DB	051H
	DB	040H
	DB	0c5H
	DB	05cH
	DB	057H
	DB	084H
	DB	037H
	DB	0cbH
	DB	039H
	DB	035H
	DB	066H
	DB	070H
	DB	032H
	DB	0acH
	DB	0adH
	DB	0f8H
	DB	067H
	DB	032H
	DB	032H
	DB	0d1H
	DB	02aH
	DB	02aH
	DB	047H
	DB	0cdH
	DB	047H
	DB	039H
	DB	037H
	DB	039H
	DB	046H
	DB	040H
	DB	02dH
	DB	03fH
	DB	074H
	DB	055H
	DB	06bH
	DB	044H
	DB	06cH
	DB	0c4H
	DB	051H
	DB	027H
	DB	0e1H
	DB	045H
	DB	09aH
	DB	051H
	DB	05cH
	DB	045H
	DB	074H
	DB	02dH
	DB	0e1H
	DB	029H
	DB	09aH
	DB	073H
	DB	027H
	DB	024H
	DB	073H
	DB	02cH
	DB	081H
	DB	01aH
	DB	082H
	DB	0c4H
	DB	0c0H
	DB	055H
	DB	0c0H
	DB	01aH
	DB	05bH
	DB	0c0H
	DB	099H
	DB	051H
	DB	06cH
	DB	06fH
	DB	02dH
	DB	045H
	DB	057H
	DB	0cbH
	DB	0caH
	DB	037H
	DB	03bH
	DB	037H
	DB	035H
	DB	035H
	DB	047H
	DB	03eH
	DB	037H
	DB	09fH
	DB	039H
	DB	040H
	DB	046H
	DB	074H
	DB	054H
	DB	023H
	DB	024H
	DB	01cH
	DB	023H
	DB	025H
	DB	018H
	DB	020H
	DB	056H
	DB	018H
	DB	01aH
	DB	0c0H
	DB	04bH
	DB	0beH
	DB	01aH
	DB	04bH
	DB	025H
	DB	054H
	DB	04bH
	DB	080H
	DB	0baH
	DB	061H
	DB	098H
	DB	06aH
	DB	06aH
	DB	098H
	DB	061H
	DB	053H
	DB	080H
	DB	08fH
	DB	023H
	DB	021H
	DB	017H
	DB	0bcH
	DB	021H
	DB	08fH
	DB	021H
	DB	01aH
	DB	08fH
	DB	0beH
	DB	020H
	DB	018H
	DB	025H
	DB	0bbH
	DB	018H
	DB	0beH
	DB	01cH
	DB	018H
	DB	025H
	DB	04dH
	DB	022H
	DB	080H
	DB	018H
	DB	07eH
	DB	080H
	DB	04bH
	DB	020H
	DB	021H
	DB	04fH
	DB	062H
	DB	062H
	DB	04fH
	DB	021H
	DB	020H
	DB	017H
	DB	025H
	DB	023H
	DB	018H
	DB	024H
	DB	0bbH
	DB	06aH
	DB	024H
	DB	090H
	DB	0bbH
	DB	063H
	DB	01cH
	DB	054H
	DB	024H
	DB	04dH
	DB	01aH
	DB	098H
	DB	07dH
	DB	0c0H
	DB	025H
	DB	018H
	DB	025H
	DB	021H
	DB	018H
	DB	098H
	DB	0bcH
	DB	07dH
	DB	063H
	DB	054H
	DB	090H
	DB	027H
	DB	053H
	DB	01aH
	DB	023H
	DB	094H
	DB	01aH
	DB	053H
	DB	062H
	DB	01aH
	DB	023H
	DB	062H
	DB	020H
	DB	0baH
	DB	021H
	DB	0c0H
	DB	021H
	DB	024H
	DB	021H
	DB	062H
	DB	025H
	DB	01aH
	DB	0bdH
	DB	025H
	DB	054H
	DB	054H
	DB	062H
	DB	0baH
	DB	020H
	DB	01aH
	DB	01aH
	DB	024H
	DB	025H
	DB	062H
	DB	024H
	DB	045H
	DB	039H
	DB	03bH
	DB	02aH
	DB	087H
	DB	01dH
	DB	0cH
	DB	09H
	DB	068H
	DB	068H
	DB	012H
	DB	05H
	DB	08H
	DB	06H
	DB	06H
	DB	02H
	DB	03H
	DB	02H
	DB	02H
	DB	036H
	DB	03H
	DB	03H
	DB	036H
	DB	036H
	DB	036H
	DB	03H
	DB	0bH
	DB	01H
	DB	0bH
	DB	0bH
	DB	03H
	DB	02H
	DB	06H
	DB	05H
	DB	09H
	DB	03dH
	DB	0cH
	DB	011H
	DB	01bH
	DB	028H
	DB	067H
	DB	067H
	DB	032H
	DB	032H
	DB	067H
	DB	067H
	DB	067H
	DB	05eH
	DB	028H
	DB	05fH
	DB	0fH
	DB	011H
	DB	015H
	DB	05fH
	DB	01fH
	DB	05eH
	DB	067H
	DB	02bH
	DB	0d1H
	DB	0a9H
	DB	03cH
	DB	0a9H
	DB	02aH
	DB	02aH
	DB	02bH
	DB	0d1H
	DB	02aH
	DB	0a9H
	DB	070H
	DB	070H
	DB	02aH
	DB	02bH
	DB	032H
	DB	02eH
	DB	0adH
	DB	030H
	DB	01bH
	DB	015H
	DB	0fH
	DB	0fH
	DB	0fH
	DB	0fH
	DB	014H
	DB	014H
	DB	026H
	DB	04H
	DB	02H
	DB	04H
	DB	012H
	DB	01fH
	DB	05aH
	DB	0f2H
	DB	0aaH
	DB	0f0H
	DB	0ccH
	DB	037H
	DB	03bH
	DB	0cbH
	DB	0a1H
	DB	09fH
	DB	02dH
	DB	02dH
	DB	074H
	DB	03aH
	DB	045H
	DB	09dH
	DB	051H
	DB	06fH
	DB	03fH
	DB	064H
	DB	064H
	DB	06fH
	DB	064H
	DB	064H
	DB	09dH
	DB	051H
	DB	051H
	DB	0e9H
	DB	09dH
	DB	06fH
	DB	09cH
	DB	055H
	DB	064H
	DB	046H
	DB	075H
	DB	075H
	DB	074H
	DB	074H
	DB	046H
	DB	074H
	DB	09cH
	DB	06dH
	DB	09bH
	DB	055H
	DB	09bH
	DB	064H
	DB	075H
	DB	05cH
	DB	0a0H
	DB	039H
	DB	0a1H
	DB	0a0H
	DB	0a1H
	DB	05cH
	DB	040H
	DB	075H
	DB	02dH
	DB	02dH
	DB	02dH
	DB	046H
	DB	075H
	DB	046H
	DB	045H
	DB	051H
	DB	064H
	DB	06fH
	DB	06fH
	DB	044H
	DB	064H
	DB	09cH
	DB	05bH
	DB	0e4H
	DB	0e1H
	DB	027H
	DB	024H
	DB	0ddH
	DB	01aH
	DB	054H
	DB	043H
	DB	020H
	DB	054H
	DB	022H
	DB	0bcH
	DB	07eH
	DB	0baH
	DB	01aH
	DB	023H
	DB	053H
	DB	01aH
	DB	053H
	DB	023H
	DB	01aH
	DB	0baH
	DB	020H
	DB	0bdH
	DB	023H
	DB	094H
	DB	01aH
	DB	053H
	DB	062H
	DB	021H
	DB	04dH
	DB	020H
	DB	04cH
	DB	018H
	DB	062H
	DB	054H
	DB	08fH
	DB	063H
	DB	06dH
	DB	0e1H
	DB	03aH
	DB	09bH
	DB	024H
	DB	051H
	DB	0c4H
	DB	023H
	DB	021H
	DB	090H
	DB	073H
	DB	027H
	DB	020H
	DB	020H
	DB	02cH
	DB	096H
	DB	029H
	DB	045H
	DB	06fH
	DB	057H
	DB	0cbH
	DB	05dH
	DB	0acH
	DB	0cH
	DB	06H
	DB	03H
	DB	03H
	DB	0bH
	DB	01H
	DB	01H
	DB	036H
	DB	036H
	DB	036H
	DB	02H
	DB	02H
	DB	04H
	DB	02H
	DB	02H
	DB	02H
	DB	02H
	DB	06H
	DB	08H
	DB	01eH
	DB	01eH
	DB	08H
	DB	01eH
	DB	06H
	DB	04H
	DB	04H
	DB	02H
	DB	02H
	DB	0bH
	DB	013H
	DB	0bH
	DB	013H
	DB	0bH
	DB	01H
	DB	01H
	DB	03H
	DB	04H
	DB	01eH
	DB	026H
	DB	02fH
	DB	014H
	DB	033H
	DB	026H
	DB	026H
	DB	02fH
	DB	026H
	DB	05H
	DB	034H
	DB	026H
	DB	02fH
	DB	02fH
	DB	02fH
	DB	09H
	DB	09H
	DB	09H
	DB	02fH
	DB	05H
	DB	01eH
	DB	01eH
	DB	01eH
	DB	042H
	DB	01eH
	DB	042H
	DB	04H
	DB	06H
	DB	04H
	DB	06H
	DB	0d6H
	DB	08H
	DB	05H
	DB	034H
	DB	05H
	DB	05H
	DB	05H
	DB	04H
	DB	036H
	DB	02H
	DB	04H
	DB	05H
	DB	02fH
	DB	0aH
	DB	09H
	DB	0aH
	DB	02H
	DB	07H
	DB	07H
	DB	01H
	DB	02H
	DB	06H
	DB	012H
	DB	016H
	DB	01fH
	DB	028H
	DB	031H
	DB	031H
	DB	05aH
	DB	0f7H
	DB	0aeH
	DB	031H
	DB	0aeH
	DB	030H
	DB	028H
	DB	05eH
	DB	028H
	DB	0aeH
	DB	05eH
	DB	01fH
	DB	031H
	DB	031H
	DB	030H
	DB	01fH
	DB	01fH
	DB	01fH
	DB	05eH
	DB	01fH
	DB	028H
	DB	031H
	DB	01fH
	DB	030H
	DB	01fH
	DB	01dH
	DB	01fH
	DB	028H
	DB	016H
	DB	016H
	DB	0aeH
	DB	0aeH
	DB	0aeH
	DB	028H
	DB	030H
	DB	02eH
	DB	05aH
	DB	031H
	DB	031H
	DB	05eH
	DB	028H
	DB	01fH
	DB	0f9H
	DB	016H
	DB	016H
	DB	041H
	DB	041H
	DB	01bH
	DB	041H
	DB	041H
	DB	01bH
	DB	01bH
	DB	016H
	DB	0f9H
	DB	016H
	DB	0f9H
	DB	030H
	DB	01dH
	DB	01fH
	DB	0aeH
	DB	01fH
	DB	05eH
	DB	0aeH
	DB	01fH
	DB	0aeH
	DB	0aeH
	DB	0aeH
	DB	031H
	DB	05eH
	DB	031H
	DB	05aH
	DB	0f2H
	DB	0ccH
	DB	075H
	DB	05cH
	DB	0e9H
	DB	0c4H
	DB	027H
	DB	020H
	DB	043H
	DB	024H
	DB	01aH
	DB	094H
	DB	0e1H
	DB	094H
	DB	01aH
	DB	027H
	DB	0bbH
	DB	054H
	DB	0c0H
	DB	07dH
	DB	020H
	DB	04cH
	DB	018H
	DB	094H
	DB	018H
	DB	025H
	DB	0bbH
	DB	061H
	DB	024H
	DB	01cH
	DB	02cH
	DB	0d2H
	DB	028H
	DB	015H
	DB	0fH
	DB	05fH
	DB	05fH
	DB	05fH
	DB	05fH
	DB	05fH
	DB	0adH
	DB	03eH
	DB	03cH
	DB	037H
	DB	03aH
	DB	039H
	DB	0efH
	DB	0f4H
	DB	028H
	DB	028H
	DB	0f8H
	DB	0cH
	DB	012H
	DB	04H
	DB	0bH
	DB	0bH
	DB	0bH
	DB	03H
	DB	036H
	DB	036H
	DB	036H
	DB	03H
	DB	03H
	DB	02H
	DB	036H
	DB	036H
	DB	04H
	DB	02H
	DB	02H
	DB	02H
	DB	02H
	DB	03H
	DB	02H
	DB	04H
	DB	06H
	DB	06H
	DB	06H
	DB	05H
	DB	06H
	DB	06H
	DB	04H
	DB	04H
	DB	06H
	DB	06H
	DB	04H
	DB	02H
	DB	03H
	DB	01H
	DB	01H
	DB	01H
	DB	01H
	DB	01H
	DB	07H
	DB	07H
	DB	0bH
	DB	02H
	DB	05H
	DB	0cH
	DB	01bH
	DB	01bH
	DB	015H
	DB	041H
	DB	011H
	DB	0cH
	DB	014H
	DB	014H
	DB	014H
	DB	014H
	DB	0fH
	DB	0fH
	DB	033H
	DB	09H
	DB	02fH
	DB	012H
	DB	012H
	DB	05H
	DB	05H
	DB	05H
	DB	0d6H
	DB	01eH
	DB	01eH
	DB	01eH
	DB	08H
	DB	012H
	DB	026H
	DB	034H
	DB	05H
	DB	05H
	DB	01eH
	DB	04H
	DB	03H
	DB	03H
	DB	03H
	DB	013H
	DB	013H
	DB	01H
	DB	01H
	DB	07H
	DB	07H
	DB	07H
	DB	07H
	DB	03H
	DB	02H
	DB	04H
	DB	08H
	DB	04H
	DB	03H
	DB	03H
	DB	0bH
	DB	03H
	DB	038H
	DB	0aH
	DB	0fH
	DB	0cH
	DB	09H
	DB	014H
	DB	0fH
	DB	011H
	DB	011H
	DB	011H
	DB	041H
	DB	015H
	DB	011H
	DB	0fH
	DB	0cH
	DB	014H
	DB	014H
	DB	0cH
	DB	014H
	DB	014H
	DB	0cH
	DB	0fH
	DB	0cH
	DB	0fH
	DB	011H
	DB	011H
	DB	0cH
	DB	0fH
	DB	01bH
	DB	030H
	DB	028H
	DB	01fH
	DB	01dH
	DB	016H
	DB	016H
	DB	0f9H
	DB	01dH
	DB	0f9H
	DB	0f9H
	DB	01dH
	DB	01dH
	DB	030H
	DB	030H
	DB	030H
	DB	030H
	DB	01fH
	DB	0f9H
	DB	01bH
	DB	016H
	DB	016H
	DB	01bH
	DB	041H
	DB	041H
	DB	01bH
	DB	01bH
	DB	01bH
	DB	016H
	DB	016H
	DB	016H
	DB	01bH
	DB	016H
	DB	016H
	DB	01bH
	DB	01bH
	DB	01bH
	DB	01bH
	DB	01bH
	DB	041H
	DB	011H
	DB	011H
	DB	041H
	DB	041H
	DB	041H
	DB	011H
	DB	041H
	DB	030H
	DB	05eH
	DB	0f7H
	DB	0f2H
	DB	0f0H
	DB	0a8H
	DB	0cfH
	DB	0a8H
	DB	03cH
	DB	0cfH
	DB	0f2H
	DB	0f2H
	DB	0f0H
	DB	0f2H
	DB	046H
	DB	04aH
	DB	080H
	DB	0bbH
	DB	061H
	DB	024H
	DB	043H
	DB	062H
	DB	01cH
	DB	054H
	DB	0bcH
	DB	018H
	DB	054H
	DB	03eH
	DB	06H
	DB	04H
	DB	036H
	DB	036H
	DB	036H
	DB	036H
	DB	036H
	DB	03H
	DB	0bH
	DB	01H
	DB	01H
	DB	0bH
	DB	01eH
	DB	03dH
	DB	03dH
	DB	06H
	DB	04H
	DB	01eH
	DB	06H
	DB	04H
	DB	036H
	DB	03H
	DB	01H
	DB	0bH
	DB	036H
	DB	04H
	DB	06H
	DB	04H
	DB	042H
	DB	042H
	DB	04H
	DB	03H
	DB	03H
	DB	02H
	DB	02H
	DB	02H
	DB	03H
	DB	01H
	DB	01H
	DB	01H
	DB	0bH
	DB	013H
	DB	03H
	DB	04H
	DB	06H
	DB	06H
	DB	06H
	DB	04H
	DB	06H
	DB	06H
	DB	08H
	DB	05H
	DB	05H
	DB	06H
	DB	02H
	DB	03H
	DB	01H
	DB	01H
	DB	07H
	DB	01H
	DB	01H
	DB	01H
	DB	01H
	DB	07H
	DB	07H
	DB	01H
	DB	04H
	DB	014H
	DB	015H
	DB	01bH
	DB	01bH
	DB	016H
	DB	01bH
	DB	041H
	DB	041H
	DB	011H
	DB	0fH
	DB	0fH
	DB	0fH
	DB	014H
	DB	0aH
	DB	02fH
	DB	02fH
	DB	0aH
	DB	0aH
	DB	012H
	DB	05H
	DB	05H
	DB	05H
	DB	01eH
	DB	08H
	DB	05H
	DB	02fH
	DB	09H
	DB	014H
	DB	09H
	DB	08H
	DB	03H
	DB	07H
	DB	01H
	DB	01H
	DB	01H
	DB	07H
	DB	07H
	DB	07H
	DB	07H
	DB	07H
	DB	07H
	DB	01H
	DB	0bH
	DB	03H
	DB	02H
	DB	04H
	DB	04H
	DB	04H
	DB	02H
	DB	03H
	DB	0bH
	DB	03H
	DB	03H
	DB	03H
	DB	03H
	DB	0bH
	DB	01H
	DB	01H
	DB	01H
	DB	0bH
	DB	03H
	DB	04H
	DB	08H
	DB	05H
	DB	0aH
	DB	014H
	DB	0cH
	DB	0cH
	DB	014H
	DB	014H
	DB	014H
	DB	09H
	DB	09H
	DB	0aH
	DB	09H
	DB	09H
	DB	012H
	DB	05H
	DB	012H
	DB	014H
	DB	011H
	DB	0faH
	DB	0aH
	DB	012H
	DB	0aH
	DB	0cH
	DB	0fH
	DB	011H
	DB	011H
	DB	015H
	DB	01bH
	DB	016H
	DB	016H
	DB	016H
	DB	016H
	DB	01bH
	DB	016H
	DB	016H
	DB	0f9H
	DB	0f9H
	DB	030H
	DB	01fH
	DB	01fH
	DB	0f9H
	DB	016H
	DB	016H
	DB	016H
	DB	0f9H
	DB	016H
	DB	016H
	DB	016H
	DB	016H
	DB	016H
	DB	016H
	DB	01bH
	DB	01bH
	DB	01bH
	DB	01bH
	DB	011H
	DB	041H
	DB	015H
	DB	01bH
	DB	015H
	DB	01bH
	DB	01bH
	DB	041H
	DB	041H
	DB	041H
	DB	011H
	DB	0fH
	DB	011H
	DB	011H
	DB	011H
	DB	011H
	DB	041H
	DB	015H
	DB	041H
	DB	041H
	DB	041H
	DB	041H
	DB	033H
	DB	037H
	DB	023H
	DB	01cH
	DB	054H
	DB	0bcH
	DB	07dH
	DB	020H
	DB	054H
	DB	06aH
	DB	023H
	DB	054H
	DB	061H
	DB	020H
	DB	032H
	DB	02H
	DB	04H
	DB	036H
	DB	036H
	DB	036H
	DB	04H
	DB	02H
	DB	02H
	DB	04H
	DB	036H
	DB	036H
	DB	02H
	DB	03H
	DB	03H
	DB	02H
	DB	04H
	DB	06H
	DB	05H
	DB	05H
	DB	01eH
	DB	01eH
	DB	04H
	DB	03H
	DB	0bH
	DB	03H
	DB	036H
	DB	04H
	DB	06H
	DB	01eH
	DB	01eH
	DB	01eH
	DB	04H
	DB	02H
	DB	036H
	DB	03H
	DB	01H
	DB	01H
	DB	01H
	DB	07H
	DB	01H
	DB	01H
	DB	013H
	DB	013H
	DB	02H
	DB	05H
	DB	012H
	DB	05H
	DB	05H
	DB	05H
	DB	08H
	DB	08H
	DB	05H
	DB	08H
	DB	06H
	DB	02H
	DB	03H
	DB	013H
	DB	01H
	DB	01H
	DB	013H
	DB	0bH
	DB	0bH
	DB	0bH
	DB	0bH
	DB	03H
	DB	036H
	DB	04H
	DB	05H
	DB	012H
	DB	06H
	DB	06H
	DB	08H
	DB	05H
	DB	09H
	DB	011H
	DB	041H
	DB	0fH
	DB	033H
	DB	09H
	DB	09H
	DB	0aH
	DB	026H
	DB	026H
	DB	0aH
	DB	0aH
	DB	026H
	DB	012H
	DB	012H
	DB	05H
	DB	05H
	DB	026H
	DB	012H
	DB	026H
	DB	014H
	DB	09H
	DB	08H
	DB	03H
	DB	0bH
	DB	0bH
	DB	07H
	DB	07H
	DB	07H
	DB	07H
	DB	07H
	DB	07H
	DB	07H
	DB	07H
	DB	03H
	DB	01eH
	DB	04H
	DB	013H
	DB	0bH
	DB	02H
	DB	02H
	DB	03H
	DB	03H
	DB	02H
	DB	03H
	DB	02H
	DB	02H
	DB	03H
	DB	013H
	DB	013H
	DB	013H
	DB	01H
	DB	07H
	DB	07H
	DB	07H
	DB	07H
	DB	07H
	DB	07H
	DB	07H
	DB	01H
	DB	01H
	DB	013H
	DB	013H
	DB	03H
	DB	02H
	DB	02H
	DB	02H
	DB	02H
	DB	04H
	DB	04H
	DB	04H
	DB	04H
	DB	08H
	DB	06H
	DB	03H
	DB	013H
	DB	0bH
	DB	03H
	DB	03H
	DB	03H
	DB	02H
	DB	04H
	DB	04H
	DB	06H
	DB	08H
	DB	08H
	DB	05H
	DB	026H
	DB	012H
	DB	012H
	DB	0aH
	DB	0aH
	DB	05H
	DB	0aH
	DB	09H
	DB	0cH
	DB	011H
	DB	016H
	DB	016H
	DB	016H
	DB	01bH
	DB	01bH
	DB	015H
	DB	011H
	DB	015H
	DB	011H
	DB	011H
	DB	011H
	DB	0fH
	DB	0fH
	DB	0fH
	DB	0fH
	DB	0fH
	DB	011H
	DB	011H
	DB	041H
	DB	011H
	DB	011H
	DB	0fH
	DB	011H
	DB	011H
	DB	0fH
	DB	033H
	DB	033H
	DB	0fH
	DB	0fH
	DB	0fH
	DB	0fH
	DB	0fH
	DB	0fH
	DB	011H
	DB	011H
	DB	0fH
	DB	0fH
	DB	09H
	DB	0cbH
	DB	043H
	DB	01cH
	DB	023H
	DB	054H
	DB	01cH
	DB	023H
	DB	017H
	DB	04cH
	DB	090H
	DB	08fH
	DB	021H
	DB	023H
	DB	087H
	DB	07H
	DB	01H
	DB	01H
	DB	01H
	DB	01H
	DB	03H
	DB	03H
	DB	02H
	DB	02H
	DB	04H
	DB	04H
	DB	04H
	DB	06H
	DB	06H
	DB	04H
	DB	04H
	DB	04H
	DB	08H
	DB	05H
	DB	05H
	DB	05H
	DB	06H
	DB	04H
	DB	036H
	DB	03H
	DB	03H
	DB	03H
	DB	03H
	DB	0bH
	DB	01H
	DB	0bH
	DB	02H
	DB	02H
	DB	01H
	DB	07H
	DB	07H
	DB	07H
	DB	01H
	DB	01H
	DB	01H
	DB	01H
	DB	01H
	DB	01H
	DB	01H
	DB	03H
	DB	06H
	DB	08H
	DB	08H
	DB	08H
	DB	06H
	DB	06H
	DB	04H
	DB	06H
	DB	06H
	DB	04H
	DB	03H
	DB	0bH
	DB	0bH
	DB	0bH
	DB	0bH
	DB	0bH
	DB	013H
	DB	03H
	DB	04H
	DB	04H
	DB	06H
	DB	06H
	DB	06H
	DB	06H
	DB	05H
	DB	01eH
	DB	04H
	DB	02H
	DB	0bH
	DB	0bH
	DB	02H
	DB	08H
	DB	026H
	DB	02fH
	DB	09H
	DB	0cH
	DB	0cH
	DB	033H
	DB	014H
	DB	014H
	DB	014H
	DB	014H
	DB	09H
	DB	026H
	DB	05H
	DB	026H
	DB	0aH
	DB	014H
	DB	012H
	DB	04H
	DB	03H
	DB	0bH
	DB	0bH
	DB	0bH
	DB	01H
	DB	07H
	DB	07H
	DB	07H
	DB	07H
	DB	07H
	DB	07H
	DB	03H
	DB	06H
	DB	05H
	DB	01eH
	DB	04H
	DB	0bH
	DB	02H
	DB	02H
	DB	01H
	DB	01H
	DB	0bH
	DB	02H
	DB	03H
	DB	0bH
	DB	0bH
	DB	0bH
	DB	013H
	DB	013H
	DB	01H
	DB	01H
	DB	01H
	DB	07H
	DB	07H
	DB	07H
	DB	07H
	DB	07H
	DB	07H
	DB	07H
	DB	07H
	DB	07H
	DB	07H
	DB	07H
	DB	07H
	DB	07H
	DB	07H
	DB	07H
	DB	07H
	DB	07H
	DB	07H
	DB	069H
	DB	013H
	DB	01H
	DB	02H
	DB	08H
	DB	06H
	DB	04H
	DB	04H
	DB	038H
	DB	02H
	DB	02H
	DB	02H
	DB	02H
	DB	02H
	DB	036H
	DB	04H
	DB	04H
	DB	04H
	DB	04H
	DB	04H
	DB	04H
	DB	04H
	DB	03H
	DB	03H
	DB	04H
	DB	04H
	DB	08H
	DB	05H
	DB	05H
	DB	05H
	DB	08H
	DB	06H
	DB	08H
	DB	06H
	DB	08H
	DB	08H
	DB	08H
	DB	05H
	DB	08H
	DB	06H
	DB	06H
	DB	08H
	DB	05H
	DB	05H
	DB	05H
	DB	05H
	DB	05H
	DB	05H
	DB	05H
	DB	05H
	DB	012H
	DB	05H
	DB	05H
	DB	026H
	DB	02fH
	DB	09H
	DB	09H
	DB	02fH
	DB	026H
	DB	026H
	DB	026H
	DB	05H
	DB	04H
	DB	0cbH
	DB	052H
	DB	021H
	DB	090H
	DB	08fH
	DB	056H
	DB	061H
	DB	020H
	DB	04bH
	DB	0bbH
	DB	054H
	DB	04aH
	DB	0bdH
	DB	0b1H
	DB	07H
	DB	07H
	DB	07H
	DB	07H
	DB	07H
	DB	01H
	DB	01H
	DB	0bH
	DB	03H
	DB	02H
	DB	04H
	DB	04H
	DB	04H
	DB	04H
	DB	02H
	DB	04H
	DB	06H
	DB	01eH
	DB	05H
	DB	05H
	DB	05H
	DB	01eH
	DB	04H
	DB	02H
	DB	03H
	DB	03H
	DB	0bH
	DB	01H
	DB	01H
	DB	0bH
	DB	036H
	DB	03H
	DB	07H
	DB	07H
	DB	07H
	DB	01H
	DB	01H
	DB	0bH
	DB	01H
	DB	01H
	DB	01H
	DB	01H
	DB	01H
	DB	01H
	DB	01H
	DB	03H
	DB	02H
	DB	04H
	DB	04H
	DB	04H
	DB	02H
	DB	02H
	DB	02H
	DB	04H
	DB	02H
	DB	03H
	DB	0bH
	DB	03H
	DB	03H
	DB	0bH
	DB	03H
	DB	02H
	DB	02H
	DB	04H
	DB	04H
	DB	06H
	DB	04H
	DB	02H
	DB	02H
	DB	06H
	DB	01eH
	DB	06H
	DB	06H
	DB	04H
	DB	013H
	DB	01H
	DB	01H
	DB	01H
	DB	01H
	DB	01H
	DB	038H
	DB	012H
	DB	014H
	DB	0fH
	DB	011H
	DB	011H
	DB	011H
	DB	011H
	DB	0fH
	DB	09H
	DB	09H
	DB	033H
	DB	026H
	DB	02H
	DB	03H
	DB	013H
	DB	013H
	DB	01H
	DB	0bH
	DB	0bH
	DB	0bH
	DB	01H
	DB	01H
	DB	01H
	DB	01H
	DB	0bH
	DB	036H
	DB	04H
	DB	06H
	DB	05H
	DB	05H
	DB	04H
	DB	02H
	DB	02H
	DB	01H
	DB	01H
	DB	01H
	DB	013H
	DB	01H
	DB	01H
	DB	01H
	DB	0bH
	DB	0bH
	DB	013H
	DB	01H
	DB	01H
	DB	01H
	DB	01H
	DB	01H
	DB	07H
	DB	07H
	DB	07H
	DB	07H
	DB	07H
	DB	07H
	DB	07H
	DB	07H
	DB	07H
	DB	07H
	DB	07H
	DB	07H
	DB	07H
	DB	07H
	DB	07H
	DB	01H
	DB	013H
	DB	02H
	DB	08H
	DB	06H
	DB	08H
	DB	08H
	DB	06H
	DB	04H
	DB	06H
	DB	04H
	DB	06H
	DB	06H
	DB	06H
	DB	04H
	DB	04H
	DB	04H
	DB	04H
	DB	036H
	DB	02H
	DB	02H
	DB	06H
	DB	06H
	DB	08H
	DB	01eH
	DB	05H
	DB	06H
	DB	04H
	DB	04H
	DB	04H
	DB	036H
	DB	036H
	DB	02H
	DB	03H
	DB	02H
	DB	02H
	DB	03H
	DB	03H
	DB	03H
	DB	02H
	DB	02H
	DB	02H
	DB	03H
	DB	0bH
	DB	03H
	DB	03H
	DB	03H
	DB	03H
	DB	03H
	DB	02H
	DB	04H
	DB	04H
	DB	04H
	DB	04H
	DB	02H
	DB	04H
	DB	04H
	DB	04H
	DB	04H
	DB	04H
	DB	04H
	DB	04H
	DB	03H
	DB	07H
	DB	047H
	DB	043H
	DB	08fH
	DB	0bbH
	DB	054H
	DB	017H
	DB	023H
	DB	022H
	DB	01cH
	DB	043H
	DB	022H
	DB	018H
	DB	01aH
	DB	0afH
	DB	07H
	DB	07H
	DB	07H
	DB	07H
	DB	07H
	DB	07H
	DB	07H
	DB	01H
	DB	0bH
	DB	013H
	DB	03H
	DB	02H
	DB	04H
	DB	02H
	DB	02H
	DB	04H
	DB	02H
	DB	04H
	DB	06H
	DB	05H
	DB	05H
	DB	01eH
	DB	04H
	DB	036H
	DB	03H
	DB	0bH
	DB	0bH
	DB	0bH
	DB	03H
	DB	06H
	DB	06H
	DB	04H
	DB	02H
	DB	0bH
	DB	0bH
	DB	0bH
	DB	01H
	DB	01H
	DB	01H
	DB	01H
	DB	01H
	DB	01H
	DB	01H
	DB	01H
	DB	01H
	DB	0bH
	DB	03H
	DB	03H
	DB	03H
	DB	02H
	DB	03H
	DB	03H
	DB	03H
	DB	03H
	DB	0bH
	DB	0bH
	DB	03H
	DB	03H
	DB	03H
	DB	03H
	DB	03H
	DB	036H
	DB	02H
	DB	04H
	DB	04H
	DB	06H
	DB	036H
	DB	03H
	DB	03H
	DB	03H
	DB	02H
	DB	06H
	DB	04H
	DB	02H
	DB	02H
	DB	013H
	DB	013H
	DB	01H
	DB	07H
	DB	07H
	DB	07H
	DB	07H
	DB	01H
	DB	02H
	DB	08H
	DB	09H
	DB	0cH
	DB	0fH
	DB	011H
	DB	0fH
	DB	09H
	DB	08H
	DB	01H
	DB	01H
	DB	0bH
	DB	01H
	DB	01H
	DB	01H
	DB	01H
	DB	0bH
	DB	0bH
	DB	0bH
	DB	0bH
	DB	0bH
	DB	0bH
	DB	0bH
	DB	01H
	DB	0bH
	DB	03H
	DB	06H
	DB	05H
	DB	05H
	DB	06H
	DB	03H
	DB	01H
	DB	01H
	DB	01H
	DB	01H
	DB	01H
	DB	01H
	DB	01H
	DB	01H
	DB	0bH
	DB	0bH
	DB	01H
	DB	01H
	DB	01H
	DB	01H
	DB	07H
	DB	07H
	DB	07H
	DB	07H
	DB	07H
	DB	07H
	DB	07H
	DB	07H
	DB	07H
	DB	07H
	DB	07H
	DB	07H
	DB	01H
	DB	01H
	DB	013H
	DB	06H
	DB	08H
	DB	05H
	DB	012H
	DB	05H
	DB	05H
	DB	06H
	DB	06H
	DB	04H
	DB	04H
	DB	04H
	DB	06H
	DB	06H
	DB	06H
	DB	06H
	DB	06H
	DB	04H
	DB	04H
	DB	04H
	DB	03H
	DB	0bH
	DB	07H
	DB	01H
	DB	01H
	DB	02H
	DB	02H
	DB	04H
	DB	06H
	DB	04H
	DB	04H
	DB	06H
	DB	06H
	DB	04H
	DB	04H
	DB	04H
	DB	02H
	DB	02H
	DB	02H
	DB	02H
	DB	03H
	DB	04H
	DB	04H
	DB	04H
	DB	06H
	DB	04H
	DB	04H
	DB	04H
	DB	04H
	DB	04H
	DB	04H
	DB	04H
	DB	04H
	DB	036H
	DB	036H
	DB	04H
	DB	02H
	DB	03H
	DB	03H
	DB	03H
	DB	036H
	DB	04H
	DB	02H
	DB	04H
	DB	02H
	DB	01H
	DB	03bH
	DB	017H
	DB	01cH
	DB	043H
	DB	022H
	DB	01cH
	DB	043H
	DB	04aH
	DB	054H
	DB	018H
	DB	04aH
	DB	07eH
	DB	093H
	DB	0acH
	DB	02H
	DB	03H
	DB	01H
	DB	01H
	DB	07H
	DB	07H
	DB	07H
	DB	01H
	DB	01H
	DB	01H
	DB	01H
	DB	013H
	DB	0bH
	DB	03H
	DB	02H
	DB	03H
	DB	04H
	DB	04H
	DB	06H
	DB	05H
	DB	0aH
	DB	05H
	DB	06H
	DB	06H
	DB	036H
	DB	03H
	DB	04H
	DB	036H
	DB	04H
	DB	01eH
	DB	06H
	DB	04H
	DB	04H
	DB	036H
	DB	036H
	DB	036H
	DB	03H
	DB	03H
	DB	03H
	DB	0bH
	DB	01H
	DB	01H
	DB	01H
	DB	01H
	DB	01H
	DB	07H
	DB	07H
	DB	01H
	DB	01H
	DB	01H
	DB	0bH
	DB	03H
	DB	01H
	DB	01H
	DB	01H
	DB	0bH
	DB	03H
	DB	03H
	DB	03H
	DB	02H
	DB	036H
	DB	02H
	DB	04H
	DB	01eH
	DB	06H
	DB	04H
	DB	03H
	DB	0bH
	DB	01H
	DB	01H
	DB	0bH
	DB	02H
	DB	04H
	DB	04H
	DB	02H
	DB	013H
	DB	013H
	DB	01H
	DB	01H
	DB	01H
	DB	07H
	DB	07H
	DB	07H
	DB	07H
	DB	07H
	DB	07H
	DB	01H
	DB	013H
	DB	02H
	DB	05H
	DB	08H
	DB	01H
	DB	01H
	DB	01H
	DB	01H
	DB	01H
	DB	01H
	DB	0bH
	DB	0bH
	DB	0bH
	DB	0bH
	DB	01H
	DB	01H
	DB	0bH
	DB	03H
	DB	0bH
	DB	01H
	DB	01H
	DB	01H
	DB	013H
	DB	04H
	DB	08H
	DB	06H
	DB	03H
	DB	013H
	DB	013H
	DB	01H
	DB	07H
	DB	01H
	DB	01H
	DB	01H
	DB	01H
	DB	07H
	DB	07H
	DB	07H
	DB	07H
	DB	07H
	DB	07H
	DB	07H
	DB	07H
	DB	07H
	DB	07H
	DB	07H
	DB	01H
	DB	01H
	DB	01H
	DB	07H
	DB	01H
	DB	07H
	DB	01H
	DB	0bH
	DB	03H
	DB	04H
	DB	05H
	DB	05H
	DB	05H
	DB	06H
	DB	06H
	DB	06H
	DB	06H
	DB	06H
	DB	08H
	DB	05H
	DB	08H
	DB	06H
	DB	06H
	DB	06H
	DB	04H
	DB	04H
	DB	04H
	DB	02H
	DB	03H
	DB	03H
	DB	0bH
	DB	01H
	DB	07H
	DB	07H
	DB	07H
	DB	07H
	DB	07H
	DB	01H
	DB	01H
	DB	01H
	DB	0bH
	DB	02H
	DB	03H
	DB	02H
	DB	02H
	DB	02H
	DB	04H
	DB	04H
	DB	04H
	DB	04H
	DB	04H
	DB	04H
	DB	04H
	DB	04H
	DB	04H
	DB	04H
	DB	04H
	DB	04H
	DB	06H
	DB	08H
	DB	06H
	DB	04H
	DB	04H
	DB	04H
	DB	04H
	DB	04H
	DB	04H
	DB	04H
	DB	04H
	DB	02H
	DB	02H
	DB	04H
	DB	02H
	DB	02H
	DB	0bH
	DB	039H
	DB	0eH
	DB	020H
	DB	018H
	DB	04aH
	DB	0bcH
	DB	08fH
	DB	023H
	DB	07bH
	DB	090H
	DB	023H
	DB	07aH
	DB	021H
	DB	076H
	DB	08H
	DB	01eH
	DB	042H
	DB	036H
	DB	01H
	DB	07H
	DB	07H
	DB	07H
	DB	07H
	DB	01H
	DB	01H
	DB	0bH
	DB	0bH
	DB	0bH
	DB	013H
	DB	03H
	DB	04H
	DB	04H
	DB	04H
	DB	04H
	DB	05H
	DB	026H
	DB	05H
	DB	042H
	DB	04H
	DB	04H
	DB	04H
	DB	04H
	DB	08H
	DB	01eH
	DB	04H
	DB	04H
	DB	04H
	DB	04H
	DB	036H
	DB	036H
	DB	036H
	DB	02H
	DB	02H
	DB	03H
	DB	03H
	DB	01H
	DB	01H
	DB	01H
	DB	01H
	DB	07H
	DB	07H
	DB	07H
	DB	07H
	DB	01H
	DB	01H
	DB	03H
	DB	0bH
	DB	07H
	DB	01H
	DB	01H
	DB	0bH
	DB	0bH
	DB	03H
	DB	036H
	DB	04H
	DB	04H
	DB	04H
	DB	04H
	DB	04H
	DB	03H
	DB	0bH
	DB	0bH
	DB	0bH
	DB	0bH
	DB	01H
	DB	01H
	DB	0bH
	DB	03H
	DB	02H
	DB	03H
	DB	0bH
	DB	01H
	DB	01H
	DB	01H
	DB	07H
	DB	07H
	DB	01H
	DB	07H
	DB	07H
	DB	07H
	DB	07H
	DB	07H
	DB	07H
	DB	07H
	DB	02H
	DB	08H
	DB	02H
	DB	01H
	DB	01H
	DB	0bH
	DB	0bH
	DB	0bH
	DB	03H
	DB	03H
	DB	03H
	DB	03H
	DB	03H
	DB	03H
	DB	03H
	DB	03H
	DB	0bH
	DB	01H
	DB	01H
	DB	01H
	DB	03H
	DB	02H
	DB	03H
	DB	02H
	DB	02H
	DB	03H
	DB	01H
	DB	07H
	DB	07H
	DB	07H
	DB	07H
	DB	07H
	DB	07H
	DB	07H
	DB	07H
	DB	07H
	DB	07H
	DB	01H
	DB	01H
	DB	01H
	DB	01H
	DB	01H
	DB	01H
	DB	01H
	DB	01H
	DB	01H
	DB	01H
	DB	01H
	DB	01H
	DB	03H
	DB	02H
	DB	04H
	DB	04H
	DB	06H
	DB	08H
	DB	04H
	DB	04H
	DB	06H
	DB	08H
	DB	06H
	DB	06H
	DB	08H
	DB	08H
	DB	06H
	DB	06H
	DB	06H
	DB	06H
	DB	04H
	DB	036H
	DB	02H
	DB	03H
	DB	02H
	DB	02H
	DB	0bH
	DB	0bH
	DB	07H
	DB	07H
	DB	07H
	DB	07H
	DB	07H
	DB	07H
	DB	07H
	DB	07H
	DB	07H
	DB	07H
	DB	07H
	DB	07H
	DB	07H
	DB	01H
	DB	01H
	DB	01H
	DB	0bH
	DB	013H
	DB	03H
	DB	03H
	DB	03H
	DB	0bH
	DB	0bH
	DB	04H
	DB	04H
	DB	06H
	DB	01eH
	DB	08H
	DB	01eH
	DB	08H
	DB	06H
	DB	06H
	DB	06H
	DB	06H
	DB	01eH
	DB	01eH
	DB	01eH
	DB	06H
	DB	04H
	DB	02H
	DB	02H
	DB	03H
	DB	06H
	DB	02dH
	DB	090H
	DB	04aH
	DB	090H
	DB	023H
	DB	010H
	DB	022H
	DB	018H
	DB	04dH
	DB	061H
	DB	018H
	DB	04bH
	DB	094H
	DB	087H
	DB	04H
	DB	04H
	DB	04H
	DB	06H
	DB	04H
	DB	03H
	DB	01H
	DB	07H
	DB	07H
	DB	07H
	DB	07H
	DB	01H
	DB	01H
	DB	01H
	DB	01H
	DB	0bH
	DB	03H
	DB	02H
	DB	036H
	DB	04H
	DB	06H
	DB	05H
	DB	06H
	DB	04H
	DB	04H
	DB	04H
	DB	04H
	DB	05H
	DB	05H
	DB	04H
	DB	04H
	DB	06H
	DB	06H
	DB	04H
	DB	036H
	DB	036H
	DB	02H
	DB	02H
	DB	04H
	DB	04H
	DB	04H
	DB	036H
	DB	03H
	DB	03H
	DB	0bH
	DB	03H
	DB	013H
	DB	013H
	DB	013H
	DB	0bH
	DB	01H
	DB	01H
	DB	07H
	DB	07H
	DB	01H
	DB	01H
	DB	0bH
	DB	0bH
	DB	03H
	DB	02H
	DB	036H
	DB	036H
	DB	036H
	DB	02H
	DB	03H
	DB	0bH
	DB	01H
	DB	01H
	DB	0bH
	DB	01H
	DB	01H
	DB	01H
	DB	01H
	DB	01H
	DB	03H
	DB	03H
	DB	0bH
	DB	0bH
	DB	01H
	DB	01H
	DB	01H
	DB	01H
	DB	07H
	DB	07H
	DB	07H
	DB	07H
	DB	07H
	DB	07H
	DB	01H
	DB	013H
	DB	013H
	DB	03H
	DB	02H
	DB	04H
	DB	06H
	DB	08H
	DB	08H
	DB	05H
	DB	026H
	DB	026H
	DB	02fH
	DB	09H
	DB	012H
	DB	04H
	DB	036H
	DB	03H
	DB	03H
	DB	01H
	DB	01H
	DB	01H
	DB	01H
	DB	013H
	DB	013H
	DB	03H
	DB	03H
	DB	03H
	DB	0bH
	DB	01H
	DB	01H
	DB	01H
	DB	01H
	DB	01H
	DB	013H
	DB	0bH
	DB	01H
	DB	01H
	DB	01H
	DB	01H
	DB	07H
	DB	07H
	DB	07H
	DB	07H
	DB	01H
	DB	01H
	DB	01H
	DB	01H
	DB	01H
	DB	01H
	DB	03H
	DB	02H
	DB	02H
	DB	02H
	DB	02H
	DB	02H
	DB	02H
	DB	04H
	DB	04H
	DB	06H
	DB	06H
	DB	06H
	DB	06H
	DB	06H
	DB	06H
	DB	06H
	DB	06H
	DB	06H
	DB	04H
	DB	04H
	DB	04H
	DB	02H
	DB	02H
	DB	03H
	DB	03H
	DB	013H
	DB	0bH
	DB	01H
	DB	07H
	DB	07H
	DB	07H
	DB	01H
	DB	01H
	DB	01H
	DB	07H
	DB	07H
	DB	07H
	DB	07H
	DB	07H
	DB	07H
	DB	07H
	DB	07H
	DB	07H
	DB	07H
	DB	07H
	DB	07H
	DB	07H
	DB	07H
	DB	07H
	DB	01H
	DB	01H
	DB	0bH
	DB	0bH
	DB	03H
	DB	03H
	DB	02H
	DB	04H
	DB	06H
	DB	01eH
	DB	0d6H
	DB	01eH
	DB	0d6H
	DB	01eH
	DB	06H
	DB	06H
	DB	06H
	DB	04H
	DB	04H
	DB	0bH
	DB	03dH
	DB	06cH
	DB	04fH
	DB	04dH
	DB	061H
	DB	018H
	DB	01cH
	DB	018H
	DB	07bH
	DB	022H
	DB	08fH
	DB	07bH
	DB	090H
	DB	023H
	DB	0adH
	DB	08H
	DB	06H
	DB	036H
	DB	04H
	DB	04H
	DB	04H
	DB	036H
	DB	03H
	DB	01H
	DB	07H
	DB	07H
	DB	07H
	DB	07H
	DB	07H
	DB	01H
	DB	01H
	DB	01H
	DB	03H
	DB	02H
	DB	036H
	DB	04H
	DB	06H
	DB	05H
	DB	05H
	DB	05H
	DB	05H
	DB	08H
	DB	06H
	DB	06H
	DB	06H
	DB	04H
	DB	04H
	DB	04H
	DB	04H
	DB	036H
	DB	036H
	DB	04H
	DB	036H
	DB	04H
	DB	04H
	DB	036H
	DB	04H
	DB	04H
	DB	04H
	DB	04H
	DB	04H
	DB	06H
	DB	06H
	DB	04H
	DB	06H
	DB	06H
	DB	03H
	DB	01H
	DB	07H
	DB	01H
	DB	01H
	DB	01H
	DB	01H
	DB	0bH
	DB	03H
	DB	03H
	DB	02H
	DB	03H
	DB	0bH
	DB	0bH
	DB	0bH
	DB	01H
	DB	01H
	DB	01H
	DB	01H
	DB	01H
	DB	01H
	DB	01H
	DB	01H
	DB	01H
	DB	01H
	DB	0bH
	DB	0bH
	DB	01H
	DB	01H
	DB	01H
	DB	01H
	DB	07H
	DB	07H
	DB	07H
	DB	07H
	DB	07H
	DB	01H
	DB	02H
	DB	08H
	DB	02H
	DB	06H
	DB	0aH
	DB	014H
	DB	0fH
	DB	0fH
	DB	011H
	DB	015H
	DB	015H
	DB	041H
	DB	041H
	DB	011H
	DB	0fH
	DB	0aH
	DB	04H
	DB	03H
	DB	03H
	DB	0bH
	DB	01H
	DB	01H
	DB	01H
	DB	01H
	DB	01H
	DB	0bH
	DB	01H
	DB	0bH
	DB	04H
	DB	08H
	DB	05H
	DB	08H
	DB	05H
	DB	05H
	DB	05H
	DB	06H
	DB	04H
	DB	03H
	DB	0bH
	DB	01H
	DB	01H
	DB	01H
	DB	01H
	DB	01H
	DB	0bH
	DB	03H
	DB	0bH
	DB	0bH
	DB	0bH
	DB	0bH
	DB	0bH
	DB	03H
	DB	03H
	DB	03H
	DB	03H
	DB	02H
	DB	02H
	DB	02H
	DB	02H
	DB	02H
	DB	04H
	DB	04H
	DB	04H
	DB	06H
	DB	06H
	DB	04H
	DB	04H
	DB	04H
	DB	04H
	DB	04H
	DB	04H
	DB	04H
	DB	02H
	DB	013H
	DB	013H
	DB	01H
	DB	0bH
	DB	03H
	DB	0bH
	DB	01H
	DB	07H
	DB	01H
	DB	07H
	DB	07H
	DB	01H
	DB	07H
	DB	07H
	DB	07H
	DB	07H
	DB	07H
	DB	07H
	DB	07H
	DB	07H
	DB	01H
	DB	01H
	DB	01H
	DB	07H
	DB	07H
	DB	07H
	DB	07H
	DB	07H
	DB	07H
	DB	01H
	DB	01H
	DB	07H
	DB	01H
	DB	01H
	DB	01H
	DB	0bH
	DB	02H
	DB	04H
	DB	04H
	DB	06H
	DB	06H
	DB	06H
	DB	04H
	DB	04H
	DB	01eH
	DB	03H
	DB	015H
	DB	025H
	DB	049H
	DB	022H
	DB	08fH
	DB	07bH
	DB	0bbH
	DB	017H
	DB	0baH
	DB	010H
	DB	061H
	DB	022H
	DB	0eH
	DB	023H
	DB	0f8H
	DB	08H
	DB	012H
	DB	01eH
	DB	04H
	DB	036H
	DB	04H
	DB	04H
	DB	04H
	DB	036H
	DB	0bH
	DB	07H
	DB	07H
	DB	07H
	DB	07H
	DB	07H
	DB	01H
	DB	01H
	DB	01H
	DB	03H
	DB	03H
	DB	02H
	DB	04H
	DB	05H
	DB	02fH
	DB	05H
	DB	06H
	DB	026H
	DB	05H
	DB	042H
	DB	06H
	DB	04H
	DB	06H
	DB	06H
	DB	04H
	DB	04H
	DB	04H
	DB	04H
	DB	02H
	DB	02H
	DB	036H
	DB	04H
	DB	04H
	DB	06H
	DB	01eH
	DB	08H
	DB	08H
	DB	08H
	DB	06H
	DB	05H
	DB	05H
	DB	02H
	DB	03H
	DB	03H
	DB	01H
	DB	01H
	DB	07H
	DB	01H
	DB	01H
	DB	01H
	DB	0bH
	DB	03H
	DB	03H
	DB	01H
	DB	01H
	DB	01H
	DB	01H
	DB	01H
	DB	01H
	DB	01H
	DB	01H
	DB	01H
	DB	01H
	DB	01H
	DB	01H
	DB	07H
	DB	01H
	DB	01H
	DB	01H
	DB	01H
	DB	01H
	DB	01H
	DB	07H
	DB	07H
	DB	07H
	DB	07H
	DB	07H
	DB	01H
	DB	01H
	DB	01H
	DB	01H
	DB	01H
	DB	013H
	DB	05H
	DB	09H
	DB	0cH
	DB	011H
	DB	01bH
	DB	01bH
	DB	01bH
	DB	01bH
	DB	01bH
	DB	01bH
	DB	01bH
	DB	015H
	DB	09H
	DB	01eH
	DB	03H
	DB	0bH
	DB	01H
	DB	01H
	DB	01H
	DB	01H
	DB	01H
	DB	01H
	DB	013H
	DB	04H
	DB	01eH
	DB	05H
	DB	05H
	DB	05H
	DB	05H
	DB	08H
	DB	05H
	DB	05H
	DB	05H
	DB	01eH
	DB	04H
	DB	03H
	DB	03H
	DB	03H
	DB	03H
	DB	03H
	DB	03H
	DB	0bH
	DB	0bH
	DB	03H
	DB	03H
	DB	03H
	DB	0bH
	DB	0bH
	DB	0bH
	DB	03H
	DB	03H
	DB	02H
	DB	02H
	DB	02H
	DB	02H
	DB	02H
	DB	02H
	DB	036H
	DB	04H
	DB	04H
	DB	04H
	DB	04H
	DB	04H
	DB	02H
	DB	04H
	DB	02H
	DB	02H
	DB	02H
	DB	03H
	DB	013H
	DB	01H
	DB	01H
	DB	013H
	DB	03H
	DB	02H
	DB	0bH
	DB	07H
	DB	07H
	DB	07H
	DB	01H
	DB	01H
	DB	07H
	DB	01H
	DB	01H
	DB	07H
	DB	07H
	DB	07H
	DB	07H
	DB	01H
	DB	01H
	DB	01H
	DB	01H
	DB	07H
	DB	07H
	DB	07H
	DB	07H
	DB	07H
	DB	07H
	DB	07H
	DB	07H
	DB	07H
	DB	07H
	DB	07H
	DB	07H
	DB	07H
	DB	01H
	DB	01H
	DB	0bH
	DB	03H
	DB	02H
	DB	04H
	DB	036H
	DB	04H
	DB	04H
	DB	03H
	DB	01dH
	DB	0c1H
	DB	043H
	DB	010H
	DB	061H
	DB	022H
	DB	052H
	DB	01cH
	DB	04fH
	DB	018H
	DB	017H
	DB	04fH
	DB	04bH
	DB	01cH
	DB	0afH
	DB	06H
	DB	0aH
	DB	02fH
	DB	05H
	DB	06H
	DB	02H
	DB	02H
	DB	036H
	DB	042H
	DB	042H
	DB	036H
	DB	01H
	DB	07H
	DB	07H
	DB	07H
	DB	07H
	DB	07H
	DB	01H
	DB	01H
	DB	0bH
	DB	0bH
	DB	02H
	DB	06H
	DB	05H
	DB	06H
	DB	013H
	DB	02H
	DB	05H
	DB	05H
	DB	08H
	DB	08H
	DB	06H
	DB	01eH
	DB	06H
	DB	06H
	DB	04H
	DB	036H
	DB	02H
	DB	02H
	DB	036H
	DB	04H
	DB	06H
	DB	06H
	DB	05H
	DB	05H
	DB	08H
	DB	06H
	DB	05H
	DB	05H
	DB	04H
	DB	013H
	DB	03H
	DB	04H
	DB	03H
	DB	01H
	DB	01H
	DB	01H
	DB	01H
	DB	01H
	DB	01H
	DB	01H
	DB	01H
	DB	01H
	DB	01H
	DB	01H
	DB	01H
	DB	01H
	DB	01H
	DB	01H
	DB	01H
	DB	01H
	DB	01H
	DB	01H
	DB	01H
	DB	01H
	DB	07H
	DB	07H
	DB	07H
	DB	07H
	DB	07H
	DB	07H
	DB	07H
	DB	07H
	DB	01H
	DB	03H
	DB	03H
	DB	01H
	DB	07H
	DB	07H
	DB	07H
	DB	07H
	DB	07H
	DB	013H
	DB	05H
	DB	02fH
	DB	09H
	DB	014H
	DB	0cH
	DB	0fH
	DB	0fH
	DB	011H
	DB	011H
	DB	011H
	DB	01bH
	DB	011H
	DB	014H
	DB	05H
	DB	03H
	DB	01H
	DB	01H
	DB	07H
	DB	07H
	DB	07H
	DB	01H
	DB	02H
	DB	02H
	DB	02H
	DB	04H
	DB	04H
	DB	04H
	DB	01eH
	DB	01eH
	DB	01eH
	DB	05H
	DB	01eH
	DB	04H
	DB	036H
	DB	03H
	DB	03H
	DB	0bH
	DB	0bH
	DB	03H
	DB	03H
	DB	03H
	DB	03H
	DB	0bH
	DB	0bH
	DB	0bH
	DB	0bH
	DB	0bH
	DB	0bH
	DB	03H
	DB	013H
	DB	03H
	DB	03H
	DB	03H
	DB	03H
	DB	03H
	DB	03H
	DB	03H
	DB	03H
	DB	02H
	DB	02H
	DB	04H
	DB	04H
	DB	04H
	DB	038H
	DB	02H
	DB	03H
	DB	013H
	DB	013H
	DB	0bH
	DB	01H
	DB	01H
	DB	0bH
	DB	0bH
	DB	0bH
	DB	03H
	DB	0bH
	DB	01H
	DB	07H
	DB	01H
	DB	01H
	DB	01H
	DB	01H
	DB	07H
	DB	07H
	DB	01H
	DB	01H
	DB	01H
	DB	01H
	DB	01H
	DB	01H
	DB	01H
	DB	01H
	DB	01H
	DB	07H
	DB	07H
	DB	07H
	DB	07H
	DB	07H
	DB	07H
	DB	07H
	DB	07H
	DB	07H
	DB	07H
	DB	07H
	DB	07H
	DB	07H
	DB	01H
	DB	01H
	DB	01H
	DB	013H
	DB	03H
	DB	02H
	DB	036H
	DB	03H
	DB	0cH
	DB	024H
	DB	010H
	DB	061H
	DB	017H
	DB	04fH
	DB	061H
	DB	017H
	DB	04aH
	DB	018H
	DB	017H
	DB	04aH
	DB	018H
	DB	04aH
	DB	0f8H
	DB	02H
	DB	05H
	DB	026H
	DB	026H
	DB	05H
	DB	01eH
	DB	04H
	DB	036H
	DB	04H
	DB	04H
	DB	042H
	DB	01eH
	DB	04H
	DB	0bH
	DB	07H
	DB	07H
	DB	07H
	DB	07H
	DB	01H
	DB	01H
	DB	01H
	DB	01H
	DB	01H
	DB	03H
	DB	03H
	DB	03H
	DB	013H
	DB	03H
	DB	08H
	DB	06H
	DB	01eH
	DB	01eH
	DB	01eH
	DB	01eH
	DB	06H
	DB	06H
	DB	04H
	DB	04H
	DB	06H
	DB	01eH
	DB	01eH
	DB	05H
	DB	012H
	DB	012H
	DB	05H
	DB	05H
	DB	05H
	DB	05H
	DB	04H
	DB	03H
	DB	0bH
	DB	013H
	DB	02H
	DB	02H
	DB	0bH
	DB	01H
	DB	01H
	DB	01H
	DB	01H
	DB	01H
	DB	01H
	DB	07H
	DB	07H
	DB	07H
	DB	01H
	DB	01H
	DB	01H
	DB	01H
	DB	01H
	DB	01H
	DB	01H
	DB	01H
	DB	07H
	DB	07H
	DB	07H
	DB	07H
	DB	07H
	DB	07H
	DB	07H
	DB	07H
	DB	0bH
	DB	02H
	DB	04H
	DB	04H
	DB	04H
	DB	06H
	DB	06H
	DB	04H
	DB	04H
	DB	04H
	DB	04H
	DB	069H
	DB	07H
	DB	01H
	DB	03H
	DB	04H
	DB	06H
	DB	08H
	DB	05H
	DB	012H
	DB	09H
	DB	014H
	DB	0cH
	DB	015H
	DB	015H
	DB	011H
	DB	0fH
	DB	09H
	DB	01eH
	DB	0bH
	DB	07H
	DB	07H
	DB	07H
	DB	07H
	DB	01H
	DB	01H
	DB	0bH
	DB	0bH
	DB	03H
	DB	02H
	DB	02H
	DB	04H
	DB	06H
	DB	01eH
	DB	06H
	DB	04H
	DB	036H
	DB	03H
	DB	03H
	DB	03H
	DB	03H
	DB	04H
	DB	04H
	DB	036H
	DB	03H
	DB	0bH
	DB	0bH
	DB	0bH
	DB	0bH
	DB	0bH
	DB	0bH
	DB	01H
	DB	013H
	DB	03H
	DB	0bH
	DB	0bH
	DB	03H
	DB	03H
	DB	03H
	DB	0bH
	DB	03H
	DB	013H
	DB	03H
	DB	02H
	DB	02H
	DB	02H
	DB	02H
	DB	03H
	DB	013H
	DB	01H
	DB	01H
	DB	01H
	DB	01H
	DB	01H
	DB	01H
	DB	0bH
	DB	013H
	DB	0bH
	DB	03H
	DB	0bH
	DB	01H
	DB	01H
	DB	01H
	DB	01H
	DB	01H
	DB	07H
	DB	01H
	DB	01H
	DB	01H
	DB	01H
	DB	01H
	DB	01H
	DB	01H
	DB	01H
	DB	01H
	DB	01H
	DB	01H
	DB	01H
	DB	07H
	DB	07H
	DB	07H
	DB	07H
	DB	07H
	DB	07H
	DB	07H
	DB	07H
	DB	07H
	DB	07H
	DB	01H
	DB	01H
	DB	07H
	DB	07H
	DB	07H
	DB	07H
	DB	01H
	DB	0bH
	DB	01H
	DB	03dH
	DB	025H
	DB	052H
	DB	061H
	DB	017H
	DB	04aH
	DB	061H
	DB	07bH
	DB	04dH
	DB	052H
	DB	017H
	DB	061H
	DB	0eH
	DB	010H
	DB	032H
	DB	0bH
	DB	04H
	DB	06H
	DB	01eH
	DB	01eH
	DB	06H
	DB	04H
	DB	04H
	DB	036H
	DB	036H
	DB	02H
	DB	04H
	DB	04H
	DB	04H
	DB	03H
	DB	01H
	DB	07H
	DB	07H
	DB	07H
	DB	07H
	DB	07H
	DB	01H
	DB	013H
	DB	02H
	DB	02H
	DB	03H
	DB	0bH
	DB	03H
	DB	04H
	DB	01eH
	DB	01eH
	DB	08H
	DB	08H
	DB	01eH
	DB	08H
	DB	08H
	DB	08H
	DB	06H
	DB	08H
	DB	05H
	DB	012H
	DB	0aH
	DB	08H
	DB	06H
	DB	06H
	DB	05H
	DB	08H
	DB	04H
	DB	0bH
	DB	013H
	DB	013H
	DB	01H
	DB	01H
	DB	03H
	DB	03H
	DB	01H
	DB	01H
	DB	01H
	DB	01H
	DB	01H
	DB	07H
	DB	07H
	DB	07H
	DB	07H
	DB	07H
	DB	01H
	DB	07H
	DB	07H
	DB	01H
	DB	01H
	DB	07H
	DB	07H
	DB	01H
	DB	07H
	DB	07H
	DB	07H
	DB	07H
	DB	01H
	DB	0bH
	DB	04H
	DB	01eH
	DB	034H
	DB	068H
	DB	02fH
	DB	0aH
	DB	0aH
	DB	09H
	DB	02fH
	DB	0aH
	DB	05H
	DB	02H
	DB	013H
	DB	013H
	DB	01H
	DB	01H
	DB	0bH
	DB	0bH
	DB	03H
	DB	02H
	DB	04H
	DB	06H
	DB	01eH
	DB	0aH
	DB	015H
	DB	016H
	DB	01bH
	DB	011H
	DB	0cH
	DB	09H
	DB	01eH
	DB	01H
	DB	07H
	DB	07H
	DB	07H
	DB	07H
	DB	07H
	DB	07H
	DB	07H
	DB	01H
	DB	01H
	DB	01H
	DB	03H
	DB	03H
	DB	04H
	DB	04H
	DB	01eH
	DB	06H
	DB	04H
	DB	042H
	DB	042H
	DB	06H
	DB	04H
	DB	036H
	DB	03H
	DB	0bH
	DB	0bH
	DB	0bH
	DB	03H
	DB	03H
	DB	02H
	DB	03H
	DB	03H
	DB	03H
	DB	0bH
	DB	01H
	DB	01H
	DB	0bH
	DB	03H
	DB	03H
	DB	03H
	DB	03H
	DB	03H
	DB	0bH
	DB	0bH
	DB	03H
	DB	03H
	DB	03H
	DB	0bH
	DB	01H
	DB	01H
	DB	01H
	DB	01H
	DB	0bH
	DB	0bH
	DB	0bH
	DB	01H
	DB	03H
	DB	03H
	DB	03H
	DB	03H
	DB	03H
	DB	0bH
	DB	01H
	DB	01H
	DB	01H
	DB	01H
	DB	01H
	DB	01H
	DB	0bH
	DB	01H
	DB	01H
	DB	0bH
	DB	01H
	DB	01H
	DB	01H
	DB	01H
	DB	01H
	DB	01H
	DB	01H
	DB	07H
	DB	07H
	DB	07H
	DB	01H
	DB	07H
	DB	07H
	DB	07H
	DB	07H
	DB	01H
	DB	01H
	DB	01H
	DB	01H
	DB	07H
	DB	07H
	DB	07H
	DB	07H
	DB	07H
	DB	07H
	DB	08bH
	DB	0bdH
	DB	018H
	DB	07aH
	DB	017H
	DB	061H
	DB	0eH
	DB	04bH
	DB	010H
	DB	04bH
	DB	04aH
	DB	010H
	DB	04bH
	DB	049H
	DB	066H
	DB	0bH
	DB	04H
	DB	06H
	DB	06H
	DB	06H
	DB	06H
	DB	04H
	DB	04H
	DB	036H
	DB	03H
	DB	03H
	DB	03H
	DB	03H
	DB	036H
	DB	036H
	DB	02H
	DB	0bH
	DB	07H
	DB	07H
	DB	07H
	DB	07H
	DB	07H
	DB	07H
	DB	01H
	DB	03H
	DB	03H
	DB	03H
	DB	03H
	DB	02H
	DB	04H
	DB	08H
	DB	08H
	DB	08H
	DB	05H
	DB	05H
	DB	05H
	DB	01eH
	DB	06H
	DB	08H
	DB	05H
	DB	05H
	DB	06H
	DB	06H
	DB	06H
	DB	08H
	DB	06H
	DB	02H
	DB	0bH
	DB	01H
	DB	0bH
	DB	03H
	DB	0bH
	DB	01H
	DB	0bH
	DB	03H
	DB	03H
	DB	0bH
	DB	0bH
	DB	0bH
	DB	01H
	DB	07H
	DB	01H
	DB	07H
	DB	07H
	DB	07H
	DB	01H
	DB	01H
	DB	07H
	DB	07H
	DB	01H
	DB	01H
	DB	01H
	DB	01H
	DB	01H
	DB	01H
	DB	0bH
	DB	02H
	DB	04H
	DB	08H
	DB	05H
	DB	01eH
	DB	05H
	DB	05H
	DB	02fH
	DB	02fH
	DB	09H
	DB	09H
	DB	09H
	DB	014H
	DB	012H
	DB	04H
	DB	01H
	DB	07H
	DB	07H
	DB	07H
	DB	01H
	DB	01H
	DB	01H
	DB	01H
	DB	01H
	DB	03H
	DB	02H
	DB	04H
	DB	026H
	DB	0cH
	DB	0fH
	DB	0cH
	DB	09H
	DB	05H
	DB	06H
	DB	04H
	DB	04H
	DB	02H
	DB	03H
	DB	07H
	DB	07H
	DB	07H
	DB	07H
	DB	07H
	DB	07H
	DB	07H
	DB	07H
	DB	01H
	DB	01H
	DB	03H
	DB	04H
	DB	06H
	DB	026H
	DB	05H
	DB	04H
	DB	02H
	DB	013H
	DB	0bH
	DB	01H
	DB	01H
	DB	01H
	DB	0bH
	DB	03H
	DB	02H
	DB	02H
	DB	02H
	DB	04H
	DB	04H
	DB	02H
	DB	03H
	DB	01H
	DB	01H
	DB	0bH
	DB	013H
	DB	0bH
	DB	03H
	DB	03H
	DB	03H
	DB	013H
	DB	013H
	DB	01H
	DB	01H
	DB	013H
	DB	01H
	DB	01H
	DB	01H
	DB	0bH
	DB	03H
	DB	03H
	DB	03H
	DB	03H
	DB	03H
	DB	03H
	DB	02H
	DB	036H
	DB	036H
	DB	04H
	DB	036H
	DB	0bH
	DB	0bH
	DB	0bH
	DB	01H
	DB	0bH
	DB	0bH
	DB	01H
	DB	01H
	DB	01H
	DB	0bH
	DB	0bH
	DB	0bH
	DB	0bH
	DB	01H
	DB	0bH
	DB	01H
	DB	01H
	DB	01H
	DB	01H
	DB	07H
	DB	01H
	DB	01H
	DB	01H
	DB	01H
	DB	01H
	DB	07H
	DB	01H
	DB	01H
	DB	01H
	DB	07H
	DB	07H
	DB	01H
	DB	07H
	DB	07H
	DB	08bH
	DB	073H
	DB	052H
	DB	04bH
	DB	04aH
	DB	010H
	DB	018H
	DB	04aH
	DB	010H
	DB	04fH
	DB	04aH
	DB	010H
	DB	04aH
	DB	079H
	DB	035H
	DB	03H
	DB	04H
	DB	04H
	DB	04H
	DB	04H
	DB	04H
	DB	04H
	DB	036H
	DB	036H
	DB	03H
	DB	0bH
	DB	0bH
	DB	0bH
	DB	0bH
	DB	03H
	DB	03H
	DB	036H
	DB	036H
	DB	0bH
	DB	07H
	DB	07H
	DB	07H
	DB	07H
	DB	07H
	DB	0bH
	DB	0bH
	DB	013H
	DB	0bH
	DB	03H
	DB	02H
	DB	04H
	DB	06H
	DB	04H
	DB	04H
	DB	06H
	DB	08H
	DB	06H
	DB	06H
	DB	06H
	DB	05H
	DB	06H
	DB	04H
	DB	06H
	DB	06H
	DB	06H
	DB	06H
	DB	02H
	DB	01H
	DB	0bH
	DB	01H
	DB	01H
	DB	03H
	DB	02H
	DB	02H
	DB	03H
	DB	03H
	DB	03H
	DB	02H
	DB	03H
	DB	01H
	DB	01H
	DB	01H
	DB	01H
	DB	01H
	DB	07H
	DB	07H
	DB	01H
	DB	01H
	DB	01H
	DB	01H
	DB	01H
	DB	0bH
	DB	03H
	DB	02H
	DB	06H
	DB	01eH
	DB	01eH
	DB	08H
	DB	01eH
	DB	06H
	DB	01eH
	DB	08H
	DB	05H
	DB	012H
	DB	0aH
	DB	0aH
	DB	09H
	DB	09H
	DB	09H
	DB	06H
	DB	06H
	DB	05H
	DB	06H
	DB	0bH
	DB	01H
	DB	07H
	DB	01H
	DB	01H
	DB	01H
	DB	013H
	DB	013H
	DB	02H
	DB	02H
	DB	04H
	DB	026H
	DB	09H
	DB	0aH
	DB	05H
	DB	012H
	DB	09H
	DB	033H
	DB	014H
	DB	09H
	DB	09H
	DB	09H
	DB	026H
	DB	06H
	DB	02H
	DB	01H
	DB	07H
	DB	07H
	DB	07H
	DB	07H
	DB	07H
	DB	07H
	DB	01H
	DB	02H
	DB	04H
	DB	0bH
	DB	0bH
	DB	0bH
	DB	01H
	DB	01H
	DB	01H
	DB	01H
	DB	0bH
	DB	03H
	DB	03H
	DB	03H
	DB	03H
	DB	03H
	DB	03H
	DB	036H
	DB	02H
	DB	03H
	DB	03H
	DB	0bH
	DB	01H
	DB	01H
	DB	0bH
	DB	03H
	DB	03H
	DB	013H
	DB	01H
	DB	07H
	DB	07H
	DB	01H
	DB	01H
	DB	03H
	DB	0bH
	DB	03H
	DB	02H
	DB	02H
	DB	04H
	DB	04H
	DB	04H
	DB	04H
	DB	04H
	DB	04H
	DB	04H
	DB	04H
	DB	042H
	DB	01eH
	DB	042H
	DB	04H
	DB	03H
	DB	01H
	DB	0bH
	DB	0bH
	DB	03H
	DB	03H
	DB	0bH
	DB	0bH
	DB	0bH
	DB	0bH
	DB	0bH
	DB	01H
	DB	01H
	DB	01H
	DB	01H
	DB	0bH
	DB	0bH
	DB	01H
	DB	01H
	DB	01H
	DB	01H
	DB	01H
	DB	01H
	DB	01H
	DB	01H
	DB	01H
	DB	01H
	DB	01H
	DB	01H
	DB	01H
	DB	01H
	DB	07H
	DB	0b1H
	DB	090H
	DB	052H
	DB	017H
	DB	04aH
	DB	010H
	DB	017H
	DB	010H
	DB	017H
	DB	052H
	DB	04aH
	DB	017H
	DB	0eH
	DB	010H
	DB	03eH
	DB	0bH
	DB	04H
	DB	04H
	DB	02H
	DB	02H
	DB	03H
	DB	03H
	DB	02H
	DB	03H
	DB	03H
	DB	03H
	DB	03H
	DB	0bH
	DB	0bH
	DB	03H
	DB	0bH
	DB	0bH
	DB	03H
	DB	03H
	DB	03H
	DB	0bH
	DB	07H
	DB	07H
	DB	07H
	DB	07H
	DB	01H
	DB	01H
	DB	0bH
	DB	0bH
	DB	03H
	DB	02H
	DB	06H
	DB	06H
	DB	04H
	DB	06H
	DB	06H
	DB	06H
	DB	06H
	DB	06H
	DB	04H
	DB	04H
	DB	06H
	DB	06H
	DB	01eH
	DB	06H
	DB	02H
	DB	03H
	DB	03H
	DB	03H
	DB	013H
	DB	0bH
	DB	03H
	DB	03H
	DB	03H
	DB	03H
	DB	0bH
	DB	0bH
	DB	0bH
	DB	01H
	DB	01H
	DB	01H
	DB	01H
	DB	01H
	DB	01H
	DB	01H
	DB	01H
	DB	01H
	DB	0bH
	DB	03H
	DB	03H
	DB	02H
	DB	06H
	DB	01eH
	DB	05H
	DB	05H
	DB	08H
	DB	08H
	DB	08H
	DB	08H
	DB	01eH
	DB	08H
	DB	05H
	DB	05H
	DB	012H
	DB	05H
	DB	012H
	DB	0aH
	DB	0aH
	DB	012H
	DB	026H
	DB	0aH
	DB	0aH
	DB	05H
	DB	05H
	DB	04H
	DB	0bH
	DB	01H
	DB	01H
	DB	01H
	DB	013H
	DB	03H
	DB	02H
	DB	02H
	DB	03H
	DB	06H
	DB	014H
	DB	09H
	DB	09H
	DB	014H
	DB	0fH
	DB	015H
	DB	01bH
	DB	016H
	DB	0f9H
	DB	030H
	DB	0f9H
	DB	041H
	DB	0cH
	DB	02fH
	DB	01eH
	DB	02H
	DB	01H
	DB	07H
	DB	07H
	DB	07H
	DB	01H
	DB	02H
	DB	01H
	DB	01H
	DB	01H
	DB	01H
	DB	01H
	DB	01H
	DB	01H
	DB	01H
	DB	0bH
	DB	0bH
	DB	0bH
	DB	0bH
	DB	03H
	DB	03H
	DB	03H
	DB	03H
	DB	0bH
	DB	013H
	DB	0bH
	DB	01H
	DB	01H
	DB	01H
	DB	01H
	DB	0bH
	DB	013H
	DB	013H
	DB	01H
	DB	01H
	DB	07H
	DB	07H
	DB	01H
	DB	04H
	DB	01eH
	DB	06H
	DB	08H
	DB	01eH
	DB	01eH
	DB	01eH
	DB	01eH
	DB	01eH
	DB	04H
	DB	06H
	DB	08H
	DB	08H
	DB	05H
	DB	05H
	DB	05H
	DB	05H
	DB	01eH
	DB	02H
	DB	03H
	DB	0bH
	DB	0bH
	DB	0bH
	DB	0bH
	DB	0bH
	DB	01H
	DB	01H
	DB	01H
	DB	01H
	DB	01H
	DB	03H
	DB	036H
	DB	036H
	DB	02H
	DB	036H
	DB	0bH
	DB	01H
	DB	01H
	DB	01H
	DB	01H
	DB	01H
	DB	01H
	DB	01H
	DB	01H
	DB	01H
	DB	01H
	DB	01H
	DB	01H
	DB	07H
	DB	02eH
	DB	017H
	DB	017H
	DB	0eH
	DB	04aH
	DB	017H
	DB	0eH
	DB	04fH
	DB	052H
	DB	017H
	DB	010H
	DB	052H
	DB	07cH
	DB	049H
	DB	03eH
	DB	01H
	DB	02H
	DB	02H
	DB	036H
	DB	02H
	DB	02H
	DB	03H
	DB	0bH
	DB	03H
	DB	03H
	DB	03H
	DB	03H
	DB	03H
	DB	03H
	DB	0bH
	DB	0bH
	DB	0bH
	DB	0bH
	DB	03H
	DB	03H
	DB	02H
	DB	03H
	DB	0bH
	DB	07H
	DB	07H
	DB	07H
	DB	01H
	DB	01H
	DB	0bH
	DB	03H
	DB	03H
	DB	04H
	DB	06H
	DB	06H
	DB	02H
	DB	02H
	DB	02H
	DB	04H
	DB	04H
	DB	04H
	DB	06H
	DB	08H
	DB	08H
	DB	06H
	DB	0bH
	DB	01H
	DB	0bH
	DB	013H
	DB	03H
	DB	03H
	DB	03H
	DB	0bH
	DB	0bH
	DB	01H
	DB	01H
	DB	01H
	DB	07H
	DB	07H
	DB	01H
	DB	01H
	DB	0bH
	DB	0bH
	DB	0bH
	DB	0bH
	DB	01H
	DB	0bH
	DB	03H
	DB	04H
	DB	01eH
	DB	05H
	DB	034H
	DB	012H
	DB	05H
	DB	05H
	DB	05H
	DB	05H
	DB	01eH
	DB	01eH
	DB	08H
	DB	08H
	DB	05H
	DB	05H
	DB	012H
	DB	05H
	DB	05H
	DB	05H
	DB	05H
	DB	05H
	DB	08H
	DB	09H
	DB	09H
	DB	09H
	DB	0aH
	DB	012H
	DB	08H
	DB	04H
	DB	02H
	DB	013H
	DB	0bH
	DB	013H
	DB	0bH
	DB	0bH
	DB	013H
	DB	03H
	DB	02H
	DB	08H
	DB	015H
	DB	011H
	DB	0cH
	DB	015H
	DB	01dH
	DB	01dH
	DB	015H
	DB	0fH
	DB	09H
	DB	05H
	DB	04H
	DB	0bH
	DB	01H
	DB	02H
	DB	04H
	DB	036H
	DB	0bH
	DB	01H
	DB	01H
	DB	02H
	DB	01H
	DB	01H
	DB	01H
	DB	01H
	DB	01H
	DB	0bH
	DB	0bH
	DB	0bH
	DB	0bH
	DB	0bH
	DB	0bH
	DB	0bH
	DB	0bH
	DB	0bH
	DB	0bH
	DB	03H
	DB	03H
	DB	0bH
	DB	0bH
	DB	01H
	DB	0bH
	DB	0bH
	DB	01H
	DB	01H
	DB	01H
	DB	01H
	DB	013H
	DB	0bH
	DB	013H
	DB	0bH
	DB	01H
	DB	01H
	DB	0bH
	DB	04H
	DB	05H
	DB	012H
	DB	012H
	DB	034H
	DB	012H
	DB	05H
	DB	05H
	DB	05H
	DB	05H
	DB	05H
	DB	026H
	DB	026H
	DB	034H
	DB	02fH
	DB	034H
	DB	012H
	DB	05H
	DB	06H
	DB	03H
	DB	01H
	DB	01H
	DB	01H
	DB	01H
	DB	01H
	DB	07H
	DB	01H
	DB	03H
	DB	04H
	DB	04H
	DB	04H
	DB	04H
	DB	04H
	DB	04H
	DB	04H
	DB	036H
	DB	03H
	DB	0bH
	DB	0bH
	DB	0bH
	DB	01H
	DB	01H
	DB	01H
	DB	01H
	DB	0bH
	DB	01H
	DB	01H
	DB	07H
	DB	071H
	DB	010H
	DB	0eH
	DB	07cH
	DB	010H
	DB	052H
	DB	04bH
	DB	010H
	DB	010H
	DB	010H
	DB	010H
	DB	010H
	DB	049H
	DB	049H
	DB	059H
	DB	01H
	DB	04H
	DB	04H
	DB	04H
	DB	02H
	DB	036H
	DB	03H
	DB	03H
	DB	03H
	DB	03H
	DB	03H
	DB	03H
	DB	03H
	DB	0bH
	DB	0bH
	DB	0bH
	DB	03H
	DB	0bH
	DB	0bH
	DB	03H
	DB	03H
	DB	03H
	DB	036H
	DB	03H
	DB	01H
	DB	01H
	DB	01H
	DB	01H
	DB	0bH
	DB	03H
	DB	013H
	DB	03H
	DB	06H
	DB	04H
	DB	04H
	DB	02H
	DB	02H
	DB	02H
	DB	02H
	DB	04H
	DB	04H
	DB	06H
	DB	06H
	DB	069H
	DB	01H
	DB	01H
	DB	01H
	DB	0bH
	DB	0bH
	DB	03H
	DB	0bH
	DB	0bH
	DB	013H
	DB	0bH
	DB	0bH
	DB	01H
	DB	07H
	DB	01H
	DB	0bH
	DB	0bH
	DB	03H
	DB	03H
	DB	03H
	DB	036H
	DB	04H
	DB	04H
	DB	01eH
	DB	034H
	DB	02fH
	DB	02fH
	DB	026H
	DB	026H
	DB	02fH
	DB	026H
	DB	05H
	DB	05H
	DB	08H
	DB	08H
	DB	08H
	DB	06H
	DB	08H
	DB	05H
	DB	08H
	DB	08H
	DB	08H
	DB	08H
	DB	08H
	DB	06H
	DB	04H
	DB	08H
	DB	026H
	DB	09H
	DB	09H
	DB	0aH
	DB	012H
	DB	05H
	DB	06H
	DB	04H
	DB	03H
	DB	0bH
	DB	01H
	DB	01H
	DB	01H
	DB	0bH
	DB	013H
	DB	013H
	DB	08H
	DB	014H
	DB	0fH
	DB	011H
	DB	0cH
	DB	0aH
	DB	08H
	DB	04H
	DB	036H
	DB	0bH
	DB	01H
	DB	0bH
	DB	02H
	DB	06H
	DB	09H
	DB	09H
	DB	034H
	DB	01eH
	DB	036H
	DB	02H
	DB	06H
	DB	04H
	DB	03H
	DB	03H
	DB	03H
	DB	03H
	DB	03H
	DB	0bH
	DB	0bH
	DB	0bH
	DB	01H
	DB	0bH
	DB	0bH
	DB	0bH
	DB	0bH
	DB	013H
	DB	0bH
	DB	0bH
	DB	01H
	DB	01H
	DB	0bH
	DB	01H
	DB	01H
	DB	01H
	DB	01H
	DB	01H
	DB	01H
	DB	0bH
	DB	0bH
	DB	013H
	DB	01H
	DB	07H
	DB	07H
	DB	07H
	DB	01H
	DB	03H
	DB	04H
	DB	06H
	DB	01eH
	DB	05H
	DB	012H
	DB	012H
	DB	05H
	DB	05H
	DB	05H
	DB	05H
	DB	08H
	DB	05H
	DB	05H
	DB	01eH
	DB	01eH
	DB	01eH
	DB	06H
	DB	03H
	DB	01H
	DB	01H
	DB	07H
	DB	01H
	DB	0bH
	DB	04H
	DB	04H
	DB	042H
	DB	06H
	DB	04H
	DB	042H
	DB	06H
	DB	06H
	DB	042H
	DB	04H
	DB	04H
	DB	036H
	DB	036H
	DB	036H
	DB	03H
	DB	03H
	DB	0bH
	DB	0bH
	DB	0bH
	DB	0bH
	DB	01H
	DB	07H
	DB	070H
	DB	052H
	DB	049H
	DB	010H
	DB	010H
	DB	010H
	DB	010H
	DB	010H
	DB	04aH
	DB	0eH
	DB	010H
	DB	04aH
	DB	08dH
	DB	04aH
	DB	072H
	DB	03H
	DB	04H
	DB	02H
	DB	02H
	DB	02H
	DB	036H
	DB	02H
	DB	03H
	DB	0bH
	DB	0bH
	DB	03H
	DB	03H
	DB	03H
	DB	03H
	DB	0bH
	DB	03H
	DB	036H
	DB	03H
	DB	0bH
	DB	0bH
	DB	03H
	DB	03H
	DB	03H
	DB	036H
	DB	036H
	DB	0bH
	DB	07H
	DB	07H
	DB	01H
	DB	013H
	DB	0bH
	DB	03H
	DB	04H
	DB	06H
	DB	06H
	DB	04H
	DB	04H
	DB	04H
	DB	04H
	DB	06H
	DB	06H
	DB	06H
	DB	02H
	DB	01H
	DB	013H
	DB	03H
	DB	013H
	DB	03H
	DB	02H
	DB	03H
	DB	03H
	DB	03H
	DB	03H
	DB	03H
	DB	03H
	DB	0bH
	DB	03H
	DB	03H
	DB	0bH
	DB	0bH
	DB	0bH
	DB	03H
	DB	02H
	DB	06H
	DB	01eH
	DB	05H
	DB	05H
	DB	05H
	DB	02fH
	DB	012H
	DB	0aH
	DB	026H
	DB	026H
	DB	026H
	DB	05H
	DB	012H
	DB	05H
	DB	01eH
	DB	06H
	DB	08H
	DB	05H
	DB	05H
	DB	05H
	DB	05H
	DB	012H
	DB	05H
	DB	06H
	DB	04H
	DB	02H
	DB	04H
	DB	06H
	DB	012H
	DB	026H
	DB	012H
	DB	012H
	DB	012H
	DB	05H
	DB	08H
	DB	04H
	DB	03H
	DB	0bH
	DB	0bH
	DB	01H
	DB	01H
	DB	013H
	DB	01H
	DB	013H
	DB	06H
	DB	0aH
	DB	05H
	DB	06H
	DB	04H
	DB	03H
	DB	01H
	DB	013H
	DB	01H
	DB	0bH
	DB	02H
	DB	06H
	DB	06H
	DB	08H
	DB	0cH
	DB	0fH
	DB	014H
	DB	09H
	DB	08H
	DB	0aH
	DB	011H
	DB	09H
	DB	06H
	DB	04H
	DB	036H
	DB	036H
	DB	03H
	DB	0bH
	DB	0bH
	DB	01H
	DB	0bH
	DB	0bH
	DB	0bH
	DB	0bH
	DB	0bH
	DB	01H
	DB	01H
	DB	01H
	DB	01H
	DB	01H
	DB	01H
	DB	01H
	DB	01H
	DB	01H
	DB	01H
	DB	01H
	DB	01H
	DB	01H
	DB	01H
	DB	01H
	DB	01H
	DB	07H
	DB	07H
	DB	07H
	DB	07H
	DB	01H
	DB	01H
	DB	03H
	DB	04H
	DB	04H
	DB	04H
	DB	04H
	DB	04H
	DB	04H
	DB	06H
	DB	06H
	DB	01eH
	DB	01eH
	DB	01eH
	DB	01eH
	DB	08H
	DB	01eH
	DB	06H
	DB	036H
	DB	0bH
	DB	0bH
	DB	02H
	DB	04H
	DB	042H
	DB	01eH
	DB	05H
	DB	01eH
	DB	042H
	DB	042H
	DB	01eH
	DB	01eH
	DB	06H
	DB	01eH
	DB	01eH
	DB	01eH
	DB	042H
	DB	04H
	DB	036H
	DB	036H
	DB	03H
	DB	03H
	DB	03H
	DB	0bH
	DB	0bH
	DB	01H
	DB	03bH
	DB	052H
	DB	04aH
	DB	0eH
	DB	010H
	DB	04aH
	DB	0eH
	DB	010H
	DB	0eH
	DB	04aH
	DB	052H
	DB	0eH
	DB	010H
	DB	04bH
	DB	028H
	DB	0bH
	DB	02H
	DB	04H
	DB	04H
	DB	04H
	DB	02H
	DB	02H
	DB	02H
	DB	03H
	DB	0bH
	DB	0bH
	DB	03H
	DB	03H
	DB	03H
	DB	03H
	DB	03H
	DB	03H
	DB	03H
	DB	03H
	DB	03H
	DB	0bH
	DB	0bH
	DB	03H
	DB	03H
	DB	03H
	DB	03H
	DB	01H
	DB	07H
	DB	01H
	DB	01H
	DB	0bH
	DB	03H
	DB	02H
	DB	04H
	DB	04H
	DB	06H
	DB	04H
	DB	04H
	DB	06H
	DB	01eH
	DB	05H
	DB	02H
	DB	01H
	DB	013H
	DB	013H
	DB	03H
	DB	03H
	DB	02H
	DB	02H
	DB	02H
	DB	02H
	DB	02H
	DB	02H
	DB	02H
	DB	03H
	DB	036H
	DB	04H
	DB	04H
	DB	03H
	DB	0bH
	DB	02H
	DB	06H
	DB	05H
	DB	05H
	DB	05H
	DB	05H
	DB	05H
	DB	05H
	DB	05H
	DB	012H
	DB	012H
	DB	012H
	DB	012H
	DB	012H
	DB	012H
	DB	012H
	DB	0aH
	DB	026H
	DB	05H
	DB	012H
	DB	05H
	DB	05H
	DB	0aH
	DB	012H
	DB	08H
	DB	06H
	DB	02H
	DB	02H
	DB	02H
	DB	02H
	DB	02H
	DB	04H
	DB	05H
	DB	05H
	DB	012H
	DB	026H
	DB	05H
	DB	05H
	DB	08H
	DB	06H
	DB	02H
	DB	02H
	DB	02H
	DB	02H
	DB	04H
	DB	06H
	DB	03H
	DB	01H
	DB	02H
	DB	04H
	DB	08H
	DB	05H
	DB	06H
	DB	03H
	DB	0bH
	DB	013H
	DB	03H
	DB	04H
	DB	04H
	DB	02H
	DB	03H
	DB	04H
	DB	0aH
	DB	026H
	DB	014H
	DB	011H
	DB	014H
	DB	011H
	DB	01bH
	DB	0fH
	DB	014H
	DB	02fH
	DB	05H
	DB	08H
	DB	04H
	DB	03H
	DB	03H
	DB	01H
	DB	07H
	DB	01H
	DB	07H
	DB	07H
	DB	01H
	DB	01H
	DB	01H
	DB	01H
	DB	01H
	DB	01H
	DB	01H
	DB	01H
	DB	01H
	DB	01H
	DB	01H
	DB	01H
	DB	01H
	DB	01H
	DB	01H
	DB	01H
	DB	01H
	DB	01H
	DB	01H
	DB	07H
	DB	01H
	DB	01H
	DB	0bH
	DB	01H
	DB	01H
	DB	01H
	DB	01H
	DB	0bH
	DB	0bH
	DB	0bH
	DB	03H
	DB	036H
	DB	04H
	DB	06H
	DB	01eH
	DB	05H
	DB	05H
	DB	05H
	DB	05H
	DB	01eH
	DB	02H
	DB	04H
	DB	06H
	DB	01eH
	DB	05H
	DB	05H
	DB	0d6H
	DB	05H
	DB	05H
	DB	05H
	DB	05H
	DB	05H
	DB	05H
	DB	05H
	DB	05H
	DB	05H
	DB	05H
	DB	01eH
	DB	04H
	DB	04H
	DB	02H
	DB	02H
	DB	036H
	DB	03H
	DB	03H
	DB	0a4H
	DB	0eH
	DB	08dH
	DB	04aH
	DB	052H
	DB	0eH
	DB	04aH
	DB	052H
	DB	049H
	DB	052H
	DB	052H
	DB	049H
	DB	08dH
	DB	022H
	DB	015H
	DB	0bH
	DB	04H
	DB	04H
	DB	04H
	DB	04H
	DB	02H
	DB	02H
	DB	03H
	DB	03H
	DB	03H
	DB	03H
	DB	03H
	DB	03H
	DB	03H
	DB	03H
	DB	03H
	DB	03H
	DB	03H
	DB	03H
	DB	03H
	DB	0bH
	DB	0bH
	DB	0bH
	DB	03H
	DB	0bH
	DB	0bH
	DB	0bH
	DB	01H
	DB	01H
	DB	01H
	DB	013H
	DB	03H
	DB	02H
	DB	04H
	DB	04H
	DB	04H
	DB	08H
	DB	08H
	DB	06H
	DB	06H
	DB	04H
	DB	013H
	DB	03H
	DB	013H
	DB	0bH
	DB	03H
	DB	02H
	DB	02H
	DB	02H
	DB	02H
	DB	04H
	DB	04H
	DB	04H
	DB	04H
	DB	04H
	DB	04H
	DB	06H
	DB	02H
	DB	02H
	DB	06H
	DB	05H
	DB	05H
	DB	05H
	DB	05H
	DB	05H
	DB	08H
	DB	06H
	DB	01eH
	DB	08H
	DB	05H
	DB	05H
	DB	05H
	DB	026H
	DB	012H
	DB	026H
	DB	05H
	DB	012H
	DB	012H
	DB	012H
	DB	012H
	DB	012H
	DB	026H
	DB	05H
	DB	06H
	DB	04H
	DB	02H
	DB	02H
	DB	03H
	DB	03H
	DB	03H
	DB	0bH
	DB	03H
	DB	04H
	DB	08H
	DB	05H
	DB	026H
	DB	012H
	DB	012H
	DB	012H
	DB	05H
	DB	08H
	DB	05H
	DB	0aH
	DB	012H
	DB	08H
	DB	02H
	DB	01H
	DB	01H
	DB	01H
	DB	013H
	DB	013H
	DB	06H
	DB	012H
	DB	08H
	DB	04H
	DB	02H
	DB	02H
	DB	02H
	DB	03H
	DB	03H
	DB	02H
	DB	03H
	DB	08H
	DB	01bH
	DB	016H
	DB	01bH
	DB	011H
	DB	011H
	DB	015H
	DB	015H
	DB	011H
	DB	033H
	DB	014H
	DB	09H
	DB	02fH
	DB	012H
	DB	05H
	DB	06H
	DB	03H
	DB	07H
	DB	07H
	DB	07H
	DB	07H
	DB	07H
	DB	07H
	DB	07H
	DB	07H
	DB	01H
	DB	01H
	DB	01H
	DB	01H
	DB	0bH
	DB	0bH
	DB	01H
	DB	01H
	DB	01H
	DB	01H
	DB	01H
	DB	0bH
	DB	03H
	DB	03H
	DB	0bH
	DB	01H
	DB	01H
	DB	07H
	DB	07H
	DB	07H
	DB	01H
	DB	01H
	DB	01H
	DB	07H
	DB	07H
	DB	07H
	DB	07H
	DB	07H
	DB	01H
	DB	013H
	DB	02H
	DB	04H
	DB	04H
	DB	04H
	DB	06H
	DB	04H
	DB	03H
	DB	04H
	DB	05H
	DB	05H
	DB	01eH
	DB	05H
	DB	012H
	DB	02fH
	DB	026H
	DB	034H
	DB	05H
	DB	05H
	DB	05H
	DB	05H
	DB	05H
	DB	05H
	DB	05H
	DB	01eH
	DB	042H
	DB	01eH
	DB	06H
	DB	06H
	DB	042H
	DB	04H
	DB	037H
	DB	0eH
	DB	052H
	DB	052H
	DB	052H
	DB	049H
	DB	052H
	DB	079H
	DB	049H
	DB	0eH
	DB	052H
	DB	049H
	DB	0dH
	DB	023H
	DB	08aH
	DB	0bH
	DB	04H
	DB	02H
	DB	04H
	DB	02H
	DB	02H
	DB	03H
	DB	03H
	DB	036H
	DB	03H
	DB	036H
	DB	02H
	DB	03H
	DB	03H
	DB	02H
	DB	036H
	DB	036H
	DB	02H
	DB	03H
	DB	03H
	DB	03H
	DB	0bH
	DB	01H
	DB	01H
	DB	0bH
	DB	03H
	DB	0bH
	DB	0bH
	DB	01H
	DB	01H
	DB	0bH
	DB	03H
	DB	02H
	DB	04H
	DB	02H
	DB	04H
	DB	06H
	DB	06H
	DB	06H
	DB	06H
	DB	013H
	DB	03H
	DB	02H
	DB	02H
	DB	02H
	DB	04H
	DB	02H
	DB	04H
	DB	02H
	DB	04H
	DB	04H
	DB	06H
	DB	06H
	DB	06H
	DB	01eH
	DB	06H
	DB	03H
	DB	01H
	DB	036H
	DB	01eH
	DB	01eH
	DB	05H
	DB	01eH
	DB	06H
	DB	06H
	DB	06H
	DB	06H
	DB	06H
	DB	06H
	DB	01eH
	DB	01eH
	DB	01eH
	DB	08H
	DB	05H
	DB	05H
	DB	05H
	DB	012H
	DB	012H
	DB	012H
	DB	05H
	DB	05H
	DB	05H
	DB	06H
	DB	038H
	DB	038H
	DB	02H
	DB	03H
	DB	03H
	DB	0bH
	DB	0bH
	DB	0bH
	DB	013H
	DB	013H
	DB	02H
	DB	06H
	DB	05H
	DB	05H
	DB	05H
	DB	08H
	DB	06H
	DB	09H
	DB	014H
	DB	09H
	DB	09H
	DB	06H
	DB	03H
	DB	013H
	DB	01H
	DB	07H
	DB	07H
	DB	07H
	DB	03H
	DB	08H
	DB	012H
	DB	05H
	DB	04H
	DB	02H
	DB	03H
	DB	02H
	DB	02H
	DB	04H
	DB	06H
	DB	026H
	DB	0fH
	DB	01bH
	DB	0fH
	DB	0fH
	DB	011H
	DB	016H
	DB	01bH
	DB	01bH
	DB	01bH
	DB	01bH
	DB	015H
	DB	011H
	DB	0fH
	DB	0cH
	DB	014H
	DB	0aH
	DB	05H
	DB	08H
	DB	02H
	DB	0bH
	DB	07H
	DB	07H
	DB	07H
	DB	07H
	DB	07H
	DB	07H
	DB	07H
	DB	01H
	DB	01H
	DB	01H
	DB	01H
	DB	01H
	DB	01H
	DB	01H
	DB	01H
	DB	01H
	DB	0bH
	DB	03H
	DB	04H
	DB	03H
	DB	07H
	DB	07H
	DB	07H
	DB	07H
	DB	07H
	DB	07H
	DB	07H
	DB	07H
	DB	07H
	DB	07H
	DB	07H
	DB	07H
	DB	07H
	DB	07H
	DB	07H
	DB	07H
	DB	07H
	DB	01H
	DB	0bH
	DB	04H
	DB	06H
	DB	06H
	DB	01eH
	DB	06H
	DB	08H
	DB	05H
	DB	05H
	DB	05H
	DB	026H
	DB	034H
	DB	026H
	DB	026H
	DB	026H
	DB	05H
	DB	05H
	DB	05H
	DB	05H
	DB	05H
	DB	05H
	DB	05H
	DB	05H
	DB	01eH
	DB	01eH
	DB	04H
	DB	0cbH
	DB	0eH
	DB	049H
	DB	0eH
	DB	052H
	DB	049H
	DB	0eH
	DB	049H
	DB	08dH
	DB	010H
	DB	0eH
	DB	0eH
	DB	0eH
	DB	020H
	DB	03dH
	DB	03H
	DB	04H
	DB	04H
	DB	036H
	DB	02H
	DB	02H
	DB	02H
	DB	03H
	DB	03H
	DB	03H
	DB	02H
	DB	03H
	DB	03H
	DB	03H
	DB	02H
	DB	02H
	DB	03H
	DB	03H
	DB	03H
	DB	0bH
	DB	0bH
	DB	03H
	DB	0bH
	DB	0bH
	DB	0bH
	DB	0bH
	DB	0bH
	DB	0bH
	DB	0bH
	DB	01H
	DB	01H
	DB	013H
	DB	03H
	DB	02H
	DB	02H
	DB	02H
	DB	06H
	DB	05H
	DB	06H
	DB	013H
	DB	01H
	DB	03H
	DB	03H
	DB	02H
	DB	02H
	DB	02H
	DB	02H
	DB	04H
	DB	04H
	DB	04H
	DB	04H
	DB	06H
	DB	04H
	DB	06H
	DB	06H
	DB	03H
	DB	01H
	DB	02H
	DB	06H
	DB	04H
	DB	04H
	DB	04H
	DB	04H
	DB	06H
	DB	06H
	DB	06H
	DB	04H
	DB	06H
	DB	06H
	DB	01eH
	DB	01eH
	DB	06H
	DB	08H
	DB	08H
	DB	06H
	DB	06H
	DB	06H
	DB	08H
	DB	05H
	DB	012H
	DB	08H
	DB	04H
	DB	04H
	DB	06H
	DB	038H
	DB	04H
	DB	02H
	DB	03H
	DB	03H
	DB	013H
	DB	013H
	DB	013H
	DB	013H
	DB	013H
	DB	03H
	DB	04H
	DB	06H
	DB	06H
	DB	08H
	DB	012H
	DB	0aH
	DB	09H
	DB	05H
	DB	02H
	DB	013H
	DB	03H
	DB	02H
	DB	02H
	DB	013H
	DB	01H
	DB	01H
	DB	07H
	DB	013H
	DB	06H
	DB	05H
	DB	01eH
	DB	04H
	DB	03H
	DB	02H
	DB	02H
	DB	04H
	DB	05H
	DB	05H
	DB	05H
	DB	03dH
	DB	0cH
	DB	014H
	DB	014H
	DB	011H
	DB	030H
	DB	01fH
	DB	01fH
	DB	01fH
	DB	01fH
	DB	030H
	DB	01dH
	DB	016H
	DB	015H
	DB	0fH
	DB	0fH
	DB	014H
	DB	09H
	DB	09H
	DB	02fH
	DB	05H
	DB	08H
	DB	06H
	DB	04H
	DB	03H
	DB	01H
	DB	07H
	DB	07H
	DB	07H
	DB	07H
	DB	07H
	DB	07H
	DB	01H
	DB	01H
	DB	07H
	DB	01H
	DB	03H
	DB	013H
	DB	07H
	DB	07H
	DB	07H
	DB	07H
	DB	07H
	DB	07H
	DB	07H
	DB	07H
	DB	07H
	DB	07H
	DB	07H
	DB	07H
	DB	07H
	DB	01H
	DB	0bH
	DB	04H
	DB	08H
	DB	0aH
	DB	026H
	DB	026H
	DB	09H
	DB	0aH
	DB	012H
	DB	01eH
	DB	04H
	DB	06H
	DB	05H
	DB	012H
	DB	05H
	DB	05H
	DB	05H
	DB	05H
	DB	05H
	DB	08H
	DB	05H
	DB	05H
	DB	05H
	DB	05H
	DB	05H
	DB	026H
	DB	05H
	DB	05H
	DB	05H
	DB	01eH
	DB	05H
	DB	02dH
	DB	08dH
	DB	08dH
	DB	010H
	DB	0eH
	DB	0eH
	DB	010H
	DB	0eH
	DB	052H
	DB	0eH
	DB	052H
	DB	052H
	DB	0dH
	DB	06bH
	DB	06H
	DB	02H
	DB	04H
	DB	06H
	DB	06H
	DB	036H
	DB	036H
	DB	04H
	DB	02H
	DB	03H
	DB	036H
	DB	02H
	DB	02H
	DB	02H
	DB	036H
	DB	02H
	DB	03H
	DB	03H
	DB	03H
	DB	03H
	DB	03H
	DB	03H
	DB	0bH
	DB	0bH
	DB	0bH
	DB	0bH
	DB	0bH
	DB	0bH
	DB	03H
	DB	0bH
	DB	01H
	DB	01H
	DB	0bH
	DB	0bH
	DB	0bH
	DB	03H
	DB	02H
	DB	04H
	DB	04H
	DB	013H
	DB	01H
	DB	03H
	DB	02H
	DB	02H
	DB	02H
	DB	02H
	DB	02H
	DB	02H
	DB	04H
	DB	04H
	DB	06H
	DB	04H
	DB	06H
	DB	06H
	DB	02H
	DB	013H
	DB	0bH
	DB	02H
	DB	04H
	DB	03H
	DB	0bH
	DB	0bH
	DB	0bH
	DB	013H
	DB	03H
	DB	02H
	DB	04H
	DB	06H
	DB	06H
	DB	06H
	DB	04H
	DB	06H
	DB	04H
	DB	04H
	DB	06H
	DB	06H
	DB	06H
	DB	06H
	DB	06H
	DB	08H
	DB	08H
	DB	06H
	DB	04H
	DB	04H
	DB	04H
	DB	04H
	DB	02H
	DB	02H
	DB	03H
	DB	03H
	DB	013H
	DB	013H
	DB	01H
	DB	01H
	DB	01H
	DB	01H
	DB	013H
	DB	02H
	DB	06H
	DB	05H
	DB	09H
	DB	012H
	DB	02H
	DB	01H
	DB	07H
	DB	07H
	DB	07H
	DB	07H
	DB	013H
	DB	02H
	DB	013H
	DB	07H
	DB	07H
	DB	07H
	DB	07H
	DB	02H
	DB	08H
	DB	05H
	DB	06H
	DB	02H
	DB	02H
	DB	08H
	DB	08H
	DB	08H
	DB	08H
	DB	05H
	DB	012H
	DB	012H
	DB	05H
	DB	012H
	DB	014H
	DB	015H
	DB	0d5H
	DB	016H
	DB	01dH
	DB	01dH
	DB	01dH
	DB	0f9H
	DB	016H
	DB	01bH
	DB	015H
	DB	0cH
	DB	014H
	DB	014H
	DB	033H
	DB	011H
	DB	01bH
	DB	016H
	DB	01bH
	DB	011H
	DB	014H
	DB	04H
	DB	03H
	DB	03H
	DB	013H
	DB	03H
	DB	02H
	DB	04H
	DB	03H
	DB	01H
	DB	01H
	DB	01H
	DB	07H
	DB	07H
	DB	01H
	DB	01H
	DB	01H
	DB	01H
	DB	01H
	DB	07H
	DB	07H
	DB	07H
	DB	07H
	DB	0bH
	DB	02H
	DB	01eH
	DB	02fH
	DB	014H
	DB	014H
	DB	09H
	DB	0cH
	DB	01bH
	DB	016H
	DB	041H
	DB	0cH
	DB	014H
	DB	0aH
	DB	05H
	DB	05H
	DB	05H
	DB	05H
	DB	012H
	DB	05H
	DB	05H
	DB	05H
	DB	05H
	DB	05H
	DB	05H
	DB	05H
	DB	01eH
	DB	05H
	DB	012H
	DB	05H
	DB	026H
	DB	05H
	DB	034H
	DB	05H
	DB	02fH
	DB	044H
	DB	078H
	DB	052H
	DB	0eH
	DB	052H
	DB	052H
	DB	0eH
	DB	052H
	DB	052H
	DB	0eH
	DB	0eH
	DB	052H
	DB	0dH
	DB	029H
	DB	0feH
	DB	03H
	DB	04H
	DB	04H
	DB	04H
	DB	02H
	DB	02H
	DB	036H
	DB	02H
	DB	03H
	DB	036H
	DB	04H
	DB	04H
	DB	036H
	DB	036H
	DB	036H
	DB	036H
	DB	03H
	DB	03H
	DB	03H
	DB	03H
	DB	03H
	DB	03H
	DB	03H
	DB	03H
	DB	036H
	DB	04H
	DB	04H
	DB	03H
	DB	03H
	DB	0bH
	DB	01H
	DB	01H
	DB	01H
	DB	01H
	DB	0bH
	DB	02H
	DB	04H
	DB	013H
	DB	0bH
	DB	03H
	DB	02H
	DB	02H
	DB	02H
	DB	04H
	DB	04H
	DB	04H
	DB	06H
	DB	06H
	DB	06H
	DB	06H
	DB	04H
	DB	04H
	DB	04H
	DB	04H
	DB	02H
	DB	02H
	DB	03H
	DB	0bH
	DB	01H
	DB	01H
	DB	01H
	DB	01H
	DB	01H
	DB	01H
	DB	013H
	DB	0bH
	DB	02H
	DB	02H
	DB	02H
	DB	04H
	DB	04H
	DB	04H
	DB	04H
	DB	04H
	DB	06H
	DB	06H
	DB	08H
	DB	06H
	DB	06H
	DB	04H
	DB	04H
	DB	04H
	DB	06H
	DB	04H
	DB	04H
	DB	04H
	DB	04H
	DB	04H
	DB	02H
	DB	03H
	DB	013H
	DB	013H
	DB	01H
	DB	01H
	DB	01H
	DB	01H
	DB	013H
	DB	04H
	DB	06H
	DB	06H
	DB	03H
	DB	07H
	DB	07H
	DB	07H
	DB	07H
	DB	01H
	DB	013H
	DB	01H
	DB	013H
	DB	04H
	DB	02H
	DB	03H
	DB	013H
	DB	01H
	DB	07H
	DB	01H
	DB	013H
	DB	04H
	DB	06H
	DB	05H
	DB	05H
	DB	05H
	DB	05H
	DB	012H
	DB	08H
	DB	06H
	DB	04H
	DB	04H
	DB	02H
	DB	02H
	DB	06H
	DB	05H
	DB	0aH
	DB	03dH
	DB	011H
	DB	01bH
	DB	016H
	DB	01dH
	DB	01dH
	DB	01bH
	DB	011H
	DB	0fH
	DB	0fH
	DB	011H
	DB	011H
	DB	015H
	DB	01bH
	DB	01bH
	DB	01bH
	DB	011H
	DB	011H
	DB	014H
	DB	09H
	DB	09H
	DB	09H
	DB	014H
	DB	033H
	DB	0fH
	DB	09H
	DB	04H
	DB	01H
	DB	01H
	DB	01H
	DB	01H
	DB	01H
	DB	01H
	DB	01H
	DB	01H
	DB	0bH
	DB	0bH
	DB	0bH
	DB	03H
	DB	04H
	DB	04H
	DB	04H
	DB	04H
	DB	06H
	DB	06H
	DB	08H
	DB	05H
	DB	09H
	DB	0fH
	DB	015H
	DB	011H
	DB	0fH
	DB	014H
	DB	09H
	DB	0aH
	DB	05H
	DB	08H
	DB	06H
	DB	01eH
	DB	08H
	DB	05H
	DB	05H
	DB	05H
	DB	012H
	DB	05H
	DB	012H
	DB	012H
	DB	0aH
	DB	026H
	DB	026H
	DB	0aH
	DB	02fH
	DB	034H
	DB	05H
	DB	084H
	DB	08dH
	DB	0eH
	DB	0eH
	DB	0eH
	DB	052H
	DB	08dH
	DB	0eH
	DB	078H
	DB	052H
	DB	0eH
	DB	08dH
	DB	078H
	DB	09cH
	DB	0feH
	DB	013H
	DB	03H
	DB	02H
	DB	02H
	DB	02H
	DB	02H
	DB	03H
	DB	036H
	DB	04H
	DB	04H
	DB	04H
	DB	04H
	DB	036H
	DB	036H
	DB	02H
	DB	02H
	DB	03H
	DB	03H
	DB	03H
	DB	03H
	DB	036H
	DB	036H
	DB	036H
	DB	04H
	DB	04H
	DB	06H
	DB	01eH
	DB	04H
	DB	02H
	DB	04H
	DB	03H
	DB	01H
	DB	07H
	DB	01H
	DB	013H
	DB	02H
	DB	03H
	DB	013H
	DB	0bH
	DB	03H
	DB	02H
	DB	02H
	DB	03H
	DB	02H
	DB	02H
	DB	04H
	DB	04H
	DB	02H
	DB	02H
	DB	02H
	DB	02H
	DB	03H
	DB	02H
	DB	036H
	DB	06H
	DB	06H
	DB	03H
	DB	01H
	DB	01H
	DB	01H
	DB	01H
	DB	01H
	DB	01H
	DB	01H
	DB	01H
	DB	0bH
	DB	013H
	DB	03H
	DB	03H
	DB	03H
	DB	03H
	DB	02H
	DB	04H
	DB	04H
	DB	04H
	DB	04H
	DB	04H
	DB	06H
	DB	04H
	DB	04H
	DB	06H
	DB	04H
	DB	04H
	DB	04H
	DB	04H
	DB	04H
	DB	04H
	DB	02H
	DB	02H
	DB	03H
	DB	02H
	DB	013H
	DB	01H
	DB	01H
	DB	01H
	DB	01H
	DB	07H
	DB	01H
	DB	01H
	DB	01H
	DB	01H
	DB	01H
	DB	07H
	DB	07H
	DB	01H
	DB	0bH
	DB	013H
	DB	0bH
	DB	013H
	DB	03H
	DB	06H
	DB	06H
	DB	04H
	DB	02H
	DB	013H
	DB	07H
	DB	07H
	DB	02H
	DB	09H
	DB	011H
	DB	0fH
	DB	0cH
	DB	0fH
	DB	0fH
	DB	08H
	DB	03H
	DB	03H
	DB	013H
	DB	013H
	DB	02H
	DB	02H
	DB	03H
	DB	02H
	DB	04H
	DB	06H
	DB	05H
	DB	09H
	DB	0cH
	DB	015H
	DB	01dH
	DB	01dH
	DB	030H
	DB	01dH
	DB	0f9H
	DB	01dH
	DB	016H
	DB	01bH
	DB	016H
	DB	016H
	DB	01bH
	DB	01bH
	DB	015H
	DB	011H
	DB	011H
	DB	041H
	DB	016H
	DB	01dH
	DB	016H
	DB	01bH
	DB	014H
	DB	09H
	DB	026H
	DB	05H
	DB	08H
	DB	04H
	DB	04H
	DB	02H
	DB	0bH
	DB	03H
	DB	02H
	DB	036H
	DB	03H
	DB	0bH
	DB	01H
	DB	01H
	DB	01H
	DB	01H
	DB	0bH
	DB	02H
	DB	06H
	DB	08H
	DB	08H
	DB	0aH
	DB	09H
	DB	014H
	DB	014H
	DB	09H
	DB	09H
	DB	0aH
	DB	08H
	DB	06H
	DB	06H
	DB	06H
	DB	01eH
	DB	05H
	DB	05H
	DB	05H
	DB	026H
	DB	012H
	DB	05H
	DB	012H
	DB	026H
	DB	02fH
	DB	02fH
	DB	02fH
	DB	05H
	DB	05H
	DB	0a2H
	DB	0eH
	DB	078H
	DB	052H
	DB	0eH
	DB	08dH
	DB	079H
	DB	08dH
	DB	0eH
	DB	08dH
	DB	0eH
	DB	0eH
	DB	0dH
	DB	0e7H
	DB	0feH
	DB	03H
	DB	02H
	DB	02H
	DB	04H
	DB	04H
	DB	04H
	DB	04H
	DB	04H
	DB	04H
	DB	02H
	DB	036H
	DB	036H
	DB	02H
	DB	036H
	DB	02H
	DB	02H
	DB	036H
	DB	03H
	DB	03H
	DB	03H
	DB	036H
	DB	04H
	DB	06H
	DB	042H
	DB	01eH
	DB	08H
	DB	05H
	DB	05H
	DB	04H
	DB	02H
	DB	04H
	DB	04H
	DB	04H
	DB	04H
	DB	02H
	DB	013H
	DB	01H
	DB	01H
	DB	01H
	DB	01H
	DB	01H
	DB	013H
	DB	01H
	DB	013H
	DB	03H
	DB	03H
	DB	03H
	DB	03H
	DB	03H
	DB	03H
	DB	02H
	DB	03H
	DB	03H
	DB	0bH
	DB	03H
	DB	02H
	DB	03H
	DB	01H
	DB	01H
	DB	01H
	DB	01H
	DB	01H
	DB	01H
	DB	01H
	DB	01H
	DB	01H
	DB	01H
	DB	03H
	DB	03H
	DB	03H
	DB	03H
	DB	02H
	DB	03H
	DB	02H
	DB	02H
	DB	02H
	DB	04H
	DB	04H
	DB	04H
	DB	02H
	DB	04H
	DB	04H
	DB	04H
	DB	036H
	DB	02H
	DB	02H
	DB	02H
	DB	03H
	DB	02H
	DB	03H
	DB	02H
	DB	013H
	DB	01H
	DB	01H
	DB	01H
	DB	01H
	DB	07H
	DB	07H
	DB	013H
	DB	03H
	DB	01H
	DB	07H
	DB	01H
	DB	01H
	DB	01H
	DB	01H
	DB	01H
	DB	01H
	DB	01H
	DB	01H
	DB	013H
	DB	03H
	DB	03H
	DB	03H
	DB	013H
	DB	02H
	DB	06H
	DB	04H
	DB	04H
	DB	0aH
	DB	0fH
	DB	0fH
	DB	0cH
	DB	08H
	DB	03H
	DB	013H
	DB	013H
	DB	01H
	DB	01H
	DB	01H
	DB	01H
	DB	07H
	DB	01H
	DB	01H
	DB	013H
	DB	013H
	DB	03H
	DB	02H
	DB	06H
	DB	05H
	DB	0b2H
	DB	0faH
	DB	01bH
	DB	01bH
	DB	015H
	DB	011H
	DB	0fH
	DB	011H
	DB	01bH
	DB	01dH
	DB	030H
	DB	030H
	DB	030H
	DB	030H
	DB	030H
	DB	01dH
	DB	016H
	DB	015H
	DB	011H
	DB	011H
	DB	0fH
	DB	011H
	DB	015H
	DB	011H
	DB	011H
	DB	041H
	DB	015H
	DB	014H
	DB	06H
	DB	036H
	DB	04H
	DB	04H
	DB	04H
	DB	04H
	DB	02H
	DB	03H
	DB	0bH
	DB	0bH
	DB	03H
	DB	03H
	DB	04H
	DB	04H
	DB	04H
	DB	06H
	DB	06H
	DB	08H
	DB	05H
	DB	05H
	DB	05H
	DB	06H
	DB	06H
	DB	08H
	DB	08H
	DB	01eH
	DB	08H
	DB	05H
	DB	05H
	DB	012H
	DB	012H
	DB	05H
	DB	012H
	DB	05H
	DB	05H
	DB	05H
	DB	01eH
	DB	042H
	DB	05H
	DB	0eeH
	DB	052H
	DB	0eH
	DB	08dH
	DB	0eH
	DB	0eH
	DB	078H
	DB	0eH
	DB	0eH
	DB	08dH
	DB	0eH
	DB	0eH
	DB	0dH
	DB	045H
	DB	0bH
	DB	04H
	DB	04H
	DB	04H
	DB	04H
	DB	04H
	DB	04H
	DB	06H
	DB	04H
	DB	04H
	DB	04H
	DB	04H
	DB	04H
	DB	036H
	DB	036H
	DB	036H
	DB	036H
	DB	036H
	DB	036H
	DB	03H
	DB	03H
	DB	036H
	DB	04H
	DB	04H
	DB	04H
	DB	04H
	DB	04H
	DB	06H
	DB	01eH
	DB	01eH
	DB	02H
	DB	01H
	DB	01H
	DB	03H
	DB	03H
	DB	01H
	DB	07H
	DB	01H
	DB	01H
	DB	01H
	DB	01H
	DB	07H
	DB	01H
	DB	01H
	DB	01H
	DB	013H
	DB	013H
	DB	01H
	DB	0bH
	DB	0bH
	DB	013H
	DB	02H
	DB	02H
	DB	02H
	DB	02H
	DB	02H
	DB	03H
	DB	02H
	DB	036H
	DB	0bH
	DB	01H
	DB	07H
	DB	07H
	DB	01H
	DB	01H
	DB	01H
	DB	01H
	DB	01H
	DB	01H
	DB	0bH
	DB	03H
	DB	03H
	DB	013H
	DB	013H
	DB	013H
	DB	03H
	DB	02H
	DB	02H
	DB	04H
	DB	04H
	DB	06H
	DB	04H
	DB	04H
	DB	02H
	DB	02H
	DB	03H
	DB	03H
	DB	03H
	DB	02H
	DB	02H
	DB	03H
	DB	03H
	DB	0bH
	DB	01H
	DB	013H
	DB	013H
	DB	02H
	DB	06H
	DB	08H
	DB	08H
	DB	01H
	DB	01H
	DB	03H
	DB	03H
	DB	0bH
	DB	01H
	DB	07H
	DB	07H
	DB	07H
	DB	07H
	DB	01H
	DB	01H
	DB	01H
	DB	07H
	DB	01H
	DB	03H
	DB	06H
	DB	01eH
	DB	06H
	DB	04H
	DB	06H
	DB	0aH
	DB	09H
	DB	05H
	DB	036H
	DB	03H
	DB	03H
	DB	013H
	DB	013H
	DB	01H
	DB	01H
	DB	01H
	DB	01H
	DB	013H
	DB	013H
	DB	013H
	DB	0bH
	DB	013H
	DB	013H
	DB	013H
	DB	013H
	DB	013H
	DB	02H
	DB	04H
	DB	04H
	DB	02H
	DB	06H
	DB	04H
	DB	04H
	DB	06H
	DB	08H
	DB	03dH
	DB	01bH
	DB	016H
	DB	016H
	DB	0d5H
	DB	01bH
	DB	015H
	DB	015H
	DB	01bH
	DB	016H
	DB	016H
	DB	041H
	DB	01bH
	DB	0f9H
	DB	0f9H
	DB	01bH
	DB	011H
	DB	041H
	DB	041H
	DB	02fH
	DB	04H
	DB	04H
	DB	01eH
	DB	0aH
	DB	09H
	DB	09H
	DB	0aH
	DB	012H
	DB	06H
	DB	02H
	DB	02H
	DB	03H
	DB	03H
	DB	069H
	DB	013H
	DB	03H
	DB	02H
	DB	02H
	DB	03H
	DB	04H
	DB	06H
	DB	06H
	DB	06H
	DB	06H
	DB	08H
	DB	05H
	DB	05H
	DB	05H
	DB	05H
	DB	05H
	DB	05H
	DB	08H
	DB	06H
	DB	06H
	DB	06H
	DB	036H
	DB	04H
	DB	039H
	DB	049H
	DB	0b4H
	DB	08dH
	DB	0eH
	DB	0eH
	DB	08dH
	DB	0eH
	DB	078H
	DB	0eH
	DB	08dH
	DB	078H
	DB	078H
	DB	09eH
	DB	0bH
	DB	06H
	DB	06H
	DB	06H
	DB	06H
	DB	06H
	DB	04H
	DB	04H
	DB	04H
	DB	04H
	DB	04H
	DB	04H
	DB	04H
	DB	036H
	DB	036H
	DB	036H
	DB	02H
	DB	036H
	DB	04H
	DB	036H
	DB	03H
	DB	03H
	DB	02H
	DB	03H
	DB	036H
	DB	02H
	DB	04H
	DB	04H
	DB	04H
	DB	06H
	DB	04H
	DB	03H
	DB	07H
	DB	07H
	DB	07H
	DB	07H
	DB	07H
	DB	07H
	DB	07H
	DB	07H
	DB	07H
	DB	07H
	DB	07H
	DB	07H
	DB	01H
	DB	01H
	DB	01H
	DB	01H
	DB	01H
	DB	01H
	DB	013H
	DB	01H
	DB	013H
	DB	03H
	DB	03H
	DB	03H
	DB	02H
	DB	036H
	DB	036H
	DB	036H
	DB	0bH
	DB	01H
	DB	07H
	DB	07H
	DB	07H
	DB	07H
	DB	01H
	DB	01H
	DB	07H
	DB	01H
	DB	01H
	DB	01H
	DB	01H
	DB	01H
	DB	01H
	DB	03H
	DB	0bH
	DB	03H
	DB	03H
	DB	02H
	DB	04H
	DB	04H
	DB	04H
	DB	02H
	DB	02H
	DB	03H
	DB	03H
	DB	03H
	DB	0bH
	DB	013H
	DB	013H
	DB	013H
	DB	0bH
	DB	01H
	DB	03H
	DB	04H
	DB	01eH
	DB	08H
	DB	08H
	DB	04H
	DB	04H
	DB	06H
	DB	06H
	DB	02H
	DB	03H
	DB	0bH
	DB	01H
	DB	01H
	DB	07H
	DB	07H
	DB	07H
	DB	07H
	DB	07H
	DB	07H
	DB	013H
	DB	04H
	DB	04H
	DB	06H
	DB	06H
	DB	06H
	DB	08H
	DB	05H
	DB	06H
	DB	03H
	DB	013H
	DB	013H
	DB	013H
	DB	013H
	DB	013H
	DB	013H
	DB	03H
	DB	03H
	DB	03H
	DB	02H
	DB	02H
	DB	02H
	DB	02H
	DB	02H
	DB	03H
	DB	02H
	DB	02H
	DB	02H
	DB	03H
	DB	0bH
	DB	01H
	DB	01H
	DB	01H
	DB	01H
	DB	01H
	DB	01H
	DB	01H
	DB	013H
	DB	02H
	DB	06H
	DB	08H
	DB	06H
	DB	08H
	DB	05H
	DB	012H
	DB	0aH
	DB	014H
	DB	011H
	DB	015H
	DB	0cH
	DB	0b2H
	DB	0aH
	DB	026H
	DB	05H
	DB	05H
	DB	09H
	DB	0fH
	DB	014H
	DB	02fH
	DB	09H
	DB	05H
	DB	05H
	DB	012H
	DB	0aH
	DB	09H
	DB	09H
	DB	0aH
	DB	05H
	DB	08H
	DB	06H
	DB	04H
	DB	02H
	DB	02H
	DB	02H
	DB	02H
	DB	04H
	DB	06H
	DB	06H
	DB	06H
	DB	04H
	DB	06H
	DB	06H
	DB	06H
	DB	06H
	DB	06H
	DB	04H
	DB	04H
	DB	02H
	DB	02H
	DB	02H
	DB	02H
	DB	03H
	DB	01H
	DB	01H
	DB	0cdH
	DB	052H
	DB	0dH
	DB	0eH
	DB	08dH
	DB	078H
	DB	0eH
	DB	08dH
	DB	08dH
	DB	078H
	DB	08dH
	DB	08dH
	DB	0dH
	DB	0c5H
	DB	0feH
	DB	06H
	DB	01eH
	DB	08H
	DB	01eH
	DB	04H
	DB	06H
	DB	04H
	DB	04H
	DB	04H
	DB	04H
	DB	04H
	DB	04H
	DB	04H
	DB	04H
	DB	04H
	DB	04H
	DB	036H
	DB	036H
	DB	04H
	DB	036H
	DB	02H
	DB	03H
	DB	036H
	DB	036H
	DB	036H
	DB	036H
	DB	02H
	DB	02H
	DB	02H
	DB	02H
	DB	04H
	DB	0bH
	DB	07H
	DB	07H
	DB	07H
	DB	07H
	DB	07H
	DB	07H
	DB	07H
	DB	07H
	DB	07H
	DB	07H
	DB	07H
	DB	07H
	DB	07H
	DB	07H
	DB	07H
	DB	01H
	DB	01H
	DB	01H
	DB	01H
	DB	01H
	DB	01H
	DB	0bH
	DB	03H
	DB	036H
	DB	036H
	DB	03H
	DB	03H
	DB	03H
	DB	0bH
	DB	01H
	DB	07H
	DB	07H
	DB	07H
	DB	07H
	DB	07H
	DB	07H
	DB	07H
	DB	07H
	DB	01H
	DB	01H
	DB	07H
	DB	01H
	DB	01H
	DB	01H
	DB	0bH
	DB	0bH
	DB	03H
	DB	02H
	DB	02H
	DB	02H
	DB	02H
	DB	03H
	DB	0bH
	DB	013H
	DB	013H
	DB	01H
	DB	01H
	DB	01H
	DB	013H
	DB	013H
	DB	0bH
	DB	03H
	DB	04H
	DB	04H
	DB	04H
	DB	02H
	DB	02H
	DB	04H
	DB	04H
	DB	04H
	DB	02H
	DB	02H
	DB	03H
	DB	0bH
	DB	01H
	DB	07H
	DB	07H
	DB	07H
	DB	07H
	DB	01H
	DB	02H
	DB	04H
	DB	06H
	DB	06H
	DB	06H
	DB	05H
	DB	05H
	DB	08H
	DB	08H
	DB	013H
	DB	07H
	DB	01H
	DB	01H
	DB	01H
	DB	013H
	DB	069H
	DB	03H
	DB	02H
	DB	03H
	DB	02H
	DB	02H
	DB	02H
	DB	02H
	DB	02H
	DB	03H
	DB	02H
	DB	02H
	DB	04H
	DB	02H
	DB	03H
	DB	03H
	DB	03H
	DB	013H
	DB	01H
	DB	01H
	DB	01H
	DB	013H
	DB	03H
	DB	02H
	DB	03H
	DB	02H
	DB	04H
	DB	038H
	DB	02H
	DB	036H
	DB	04H
	DB	04H
	DB	04H
	DB	02H
	DB	013H
	DB	01H
	DB	07H
	DB	07H
	DB	07H
	DB	07H
	DB	07H
	DB	07H
	DB	02H
	DB	014H
	DB	016H
	DB	011H
	DB	09H
	DB	08H
	DB	04H
	DB	04H
	DB	04H
	DB	06H
	DB	06H
	DB	06H
	DB	08H
	DB	08H
	DB	06H
	DB	06H
	DB	06H
	DB	06H
	DB	05H
	DB	01eH
	DB	04H
	DB	06H
	DB	06H
	DB	04H
	DB	04H
	DB	04H
	DB	04H
	DB	04H
	DB	03H
	DB	0bH
	DB	01H
	DB	0bH
	DB	01H
	DB	01H
	DB	01H
	DB	01H
	DB	07H
	DB	07H
	DB	035H
	DB	052H
	DB	078H
	DB	078H
	DB	08dH
	DB	08dH
	DB	078H
	DB	08dH
	DB	078H
	DB	078H
	DB	078H
	DB	078H
	DB	0dH
	DB	099H
	DB	06H
	DB	04H
	DB	08H
	DB	05H
	DB	05H
	DB	08H
	DB	08H
	DB	01eH
	DB	06H
	DB	06H
	DB	06H
	DB	06H
	DB	06H
	DB	04H
	DB	04H
	DB	04H
	DB	036H
	DB	04H
	DB	04H
	DB	036H
	DB	04H
	DB	04H
	DB	02H
	DB	036H
	DB	036H
	DB	02H
	DB	036H
	DB	02H
	DB	03H
	DB	03H
	DB	0bH
	DB	013H
	DB	01H
	DB	07H
	DB	01H
	DB	01H
	DB	07H
	DB	07H
	DB	07H
	DB	07H
	DB	07H
	DB	07H
	DB	07H
	DB	07H
	DB	07H
	DB	07H
	DB	07H
	DB	07H
	DB	07H
	DB	07H
	DB	07H
	DB	01H
	DB	01H
	DB	01H
	DB	01H
	DB	0bH
	DB	03H
	DB	03H
	DB	0bH
	DB	0bH
	DB	0bH
	DB	0bH
	DB	0bH
	DB	01H
	DB	01H
	DB	07H
	DB	07H
	DB	07H
	DB	07H
	DB	01H
	DB	01H
	DB	01H
	DB	01H
	DB	01H
	DB	01H
	DB	01H
	DB	01H
	DB	01H
	DB	01H
	DB	013H
	DB	069H
	DB	013H
	DB	02H
	DB	02H
	DB	03H
	DB	02H
	DB	02H
	DB	02H
	DB	02H
	DB	03H
	DB	03H
	DB	0bH
	DB	03H
	DB	02H
	DB	036H
	DB	04H
	DB	04H
	DB	04H
	DB	02H
	DB	02H
	DB	06H
	DB	03H
	DB	03H
	DB	03H
	DB	03H
	DB	01H
	DB	01H
	DB	07H
	DB	01H
	DB	01H
	DB	07H
	DB	07H
	DB	01H
	DB	013H
	DB	02H
	DB	04H
	DB	01eH
	DB	08H
	DB	026H
	DB	09H
	DB	09H
	DB	038H
	DB	01H
	DB	013H
	DB	013H
	DB	03H
	DB	03H
	DB	03H
	DB	02H
	DB	06H
	DB	04H
	DB	02H
	DB	02H
	DB	02H
	DB	02H
	DB	02H
	DB	03H
	DB	02H
	DB	02H
	DB	02H
	DB	02H
	DB	02H
	DB	02H
	DB	069H
	DB	03H
	DB	03H
	DB	03H
	DB	03H
	DB	03H
	DB	02H
	DB	02H
	DB	03H
	DB	02H
	DB	02H
	DB	02H
	DB	04H
	DB	04H
	DB	04H
	DB	04H
	DB	04H
	DB	02H
	DB	01H
	DB	07H
	DB	07H
	DB	07H
	DB	07H
	DB	07H
	DB	07H
	DB	01H
	DB	02H
	DB	04H
	DB	02H
	DB	06H
	DB	05H
	DB	09H
	DB	09H
	DB	08H
	DB	04H
	DB	04H
	DB	02H
	DB	02H
	DB	02H
	DB	0bH
	DB	0bH
	DB	02H
	DB	06H
	DB	06H
	DB	06H
	DB	06H
	DB	04H
	DB	06H
	DB	04H
	DB	04H
	DB	04H
	DB	04H
	DB	03H
	DB	0bH
	DB	0bH
	DB	01H
	DB	01H
	DB	01H
	DB	07H
	DB	07H
	DB	07H
	DB	07H
	DB	07H
	DB	07H
	DB	07H
	DB	047H
	DB	0eH
	DB	0dH
	DB	078H
	DB	078H
	DB	078H
	DB	078H
	DB	078H
	DB	0dH
	DB	078H
	DB	078H
	DB	0dH
	DB	0dH
	DB	07fH
	DB	08H
	DB	03H
	DB	06H
	DB	05H
	DB	012H
	DB	012H
	DB	05H
	DB	05H
	DB	01eH
	DB	01eH
	DB	01eH
	DB	08H
	DB	08H
	DB	06H
	DB	06H
	DB	01eH
	DB	04H
	DB	04H
	DB	036H
	DB	036H
	DB	036H
	DB	036H
	DB	02H
	DB	03H
	DB	02H
	DB	03H
	DB	02H
	DB	03H
	DB	03H
	DB	03H
	DB	0bH
	DB	0bH
	DB	03H
	DB	0bH
	DB	0bH
	DB	0bH
	DB	03H
	DB	03H
	DB	0bH
	DB	01H
	DB	01H
	DB	01H
	DB	01H
	DB	07H
	DB	07H
	DB	07H
	DB	07H
	DB	07H
	DB	07H
	DB	07H
	DB	07H
	DB	07H
	DB	01H
	DB	01H
	DB	01H
	DB	0bH
	DB	0bH
	DB	01H
	DB	01H
	DB	01H
	DB	0bH
	DB	0bH
	DB	0bH
	DB	03H
	DB	0bH
	DB	01H
	DB	07H
	DB	01H
	DB	01H
	DB	01H
	DB	01H
	DB	01H
	DB	01H
	DB	01H
	DB	01H
	DB	01H
	DB	013H
	DB	013H
	DB	01H
	DB	01H
	DB	013H
	DB	02H
	DB	02H
	DB	02H
	DB	04H
	DB	04H
	DB	04H
	DB	02H
	DB	03H
	DB	03H
	DB	013H
	DB	013H
	DB	03H
	DB	02H
	DB	04H
	DB	04H
	DB	01eH
	DB	042H
	DB	02H
	DB	02H
	DB	04H
	DB	03H
	DB	0bH
	DB	013H
	DB	0bH
	DB	01H
	DB	01H
	DB	07H
	DB	07H
	DB	01H
	DB	0bH
	DB	02H
	DB	04H
	DB	02H
	DB	02H
	DB	04H
	DB	08H
	DB	05H
	DB	0aH
	DB	0fH
	DB	0aH
	DB	02H
	DB	04H
	DB	06H
	DB	08H
	DB	06H
	DB	02H
	DB	02H
	DB	03H
	DB	03H
	DB	03H
	DB	03H
	DB	013H
	DB	013H
	DB	013H
	DB	0bH
	DB	013H
	DB	03H
	DB	03H
	DB	02H
	DB	02H
	DB	03H
	DB	02H
	DB	02H
	DB	04H
	DB	04H
	DB	04H
	DB	02H
	DB	02H
	DB	02H
	DB	02H
	DB	02H
	DB	03H
	DB	03H
	DB	02H
	DB	04H
	DB	06H
	DB	06H
	DB	04H
	DB	013H
	DB	01H
	DB	01H
	DB	07H
	DB	07H
	DB	07H
	DB	07H
	DB	01H
	DB	03H
	DB	04H
	DB	06H
	DB	04H
	DB	02H
	DB	03H
	DB	02H
	DB	08H
	DB	0aH
	DB	05H
	DB	02H
	DB	03H
	DB	03H
	DB	013H
	DB	0bH
	DB	013H
	DB	03H
	DB	02H
	DB	04H
	DB	04H
	DB	04H
	DB	04H
	DB	02H
	DB	02H
	DB	02H
	DB	03H
	DB	0bH
	DB	013H
	DB	01H
	DB	01H
	DB	01H
	DB	01H
	DB	01H
	DB	01H
	DB	07H
	DB	07H
	DB	07H
	DB	07H
	DB	07H
	DB	07H
	DB	07H
	DB	0a4H
	DB	0eH
	DB	0dH
	DB	08dH
	DB	078H
	DB	0dH
	DB	08dH
	DB	078H
	DB	078H
	DB	0dH
	DB	078H
	DB	078H
	DB	0dH
	DB	01cH
	DB	08cH
	DB	07H
	DB	02H
	DB	04H
	DB	01eH
	DB	012H
	DB	012H
	DB	05H
	DB	026H
	DB	026H
	DB	012H
	DB	012H
	DB	05H
	DB	05H
	DB	01eH
	DB	01eH
	DB	01eH
	DB	06H
	DB	04H
	DB	04H
	DB	036H
	DB	036H
	DB	03H
	DB	03H
	DB	03H
	DB	03H
	DB	03H
	DB	03H
	DB	0bH
	DB	03H
	DB	03H
	DB	03H
	DB	02H
	DB	03H
	DB	0bH
	DB	0bH
	DB	03H
	DB	03H
	DB	03H
	DB	0bH
	DB	0bH
	DB	0bH
	DB	0bH
	DB	03H
	DB	0bH
	DB	01H
	DB	07H
	DB	01H
	DB	07H
	DB	07H
	DB	07H
	DB	01H
	DB	01H
	DB	01H
	DB	01H
	DB	01H
	DB	01H
	DB	01H
	DB	01H
	DB	01H
	DB	0bH
	DB	03H
	DB	0bH
	DB	0bH
	DB	0bH
	DB	0bH
	DB	01H
	DB	01H
	DB	01H
	DB	01H
	DB	01H
	DB	01H
	DB	01H
	DB	0bH
	DB	0bH
	DB	01H
	DB	01H
	DB	013H
	DB	013H
	DB	03H
	DB	02H
	DB	02H
	DB	02H
	DB	02H
	DB	02H
	DB	03H
	DB	03H
	DB	03H
	DB	013H
	DB	0bH
	DB	03H
	DB	03H
	DB	02H
	DB	02H
	DB	04H
	DB	04H
	DB	06H
	DB	06H
	DB	02H
	DB	02H
	DB	02H
	DB	03H
	DB	013H
	DB	01H
	DB	01H
	DB	01H
	DB	07H
	DB	01H
	DB	01H
	DB	02H
	DB	06H
	DB	05H
	DB	034H
	DB	02fH
	DB	012H
	DB	012H
	DB	05H
	DB	0aH
	DB	0fH
	DB	0aH
	DB	02H
	DB	04H
	DB	06H
	DB	06H
	DB	06H
	DB	02H
	DB	02H
	DB	013H
	DB	01H
	DB	01H
	DB	07H
	DB	07H
	DB	07H
	DB	07H
	DB	07H
	DB	01H
	DB	07H
	DB	01H
	DB	01H
	DB	01H
	DB	013H
	DB	013H
	DB	013H
	DB	0bH
	DB	069H
	DB	02H
	DB	02H
	DB	03H
	DB	02H
	DB	02H
	DB	02H
	DB	036H
	DB	04H
	DB	06H
	DB	06H
	DB	06H
	DB	06H
	DB	02H
	DB	013H
	DB	01H
	DB	01H
	DB	01H
	DB	07H
	DB	07H
	DB	07H
	DB	01H
	DB	03H
	DB	02H
	DB	04H
	DB	04H
	DB	04H
	DB	04H
	DB	02H
	DB	03H
	DB	02H
	DB	08H
	DB	05H
	DB	04H
	DB	01H
	DB	01H
	DB	01H
	DB	0bH
	DB	02H
	DB	02H
	DB	02H
	DB	03H
	DB	03H
	DB	0bH
	DB	03H
	DB	013H
	DB	0bH
	DB	01H
	DB	01H
	DB	01H
	DB	01H
	DB	01H
	DB	07H
	DB	07H
	DB	07H
	DB	07H
	DB	07H
	DB	07H
	DB	07H
	DB	07H
	DB	07H
	DB	07H
	DB	07H
	DB	01H
	DB	065H
	DB	0eH
	DB	078H
	DB	0dH
	DB	078H
	DB	078H
	DB	0dH
	DB	078H
	DB	0dH
	DB	078H
	DB	0dH
	DB	0dH
	DB	0dH
	DB	010H
	DB	088H
	DB	07H
	DB	01H
	DB	0bH
	DB	03H
	DB	04H
	DB	05H
	DB	05H
	DB	05H
	DB	05H
	DB	012H
	DB	026H
	DB	012H
	DB	012H
	DB	05H
	DB	05H
	DB	05H
	DB	05H
	DB	06H
	DB	04H
	DB	04H
	DB	036H
	DB	02H
	DB	02H
	DB	0bH
	DB	013H
	DB	013H
	DB	013H
	DB	03H
	DB	03H
	DB	02H
	DB	02H
	DB	036H
	DB	03H
	DB	0bH
	DB	0bH
	DB	0bH
	DB	0bH
	DB	0bH
	DB	0bH
	DB	0bH
	DB	0bH
	DB	0bH
	DB	0bH
	DB	01H
	DB	01H
	DB	01H
	DB	01H
	DB	07H
	DB	07H
	DB	07H
	DB	01H
	DB	01H
	DB	01H
	DB	07H
	DB	07H
	DB	07H
	DB	01H
	DB	0bH
	DB	0bH
	DB	03H
	DB	03H
	DB	03H
	DB	03H
	DB	0bH
	DB	0bH
	DB	0bH
	DB	0bH
	DB	01H
	DB	01H
	DB	01H
	DB	01H
	DB	01H
	DB	0bH
	DB	0bH
	DB	0bH
	DB	0bH
	DB	03H
	DB	02H
	DB	02H
	DB	02H
	DB	03H
	DB	02H
	DB	03H
	DB	03H
	DB	013H
	DB	03H
	DB	03H
	DB	03H
	DB	03H
	DB	03H
	DB	02H
	DB	04H
	DB	06H
	DB	06H
	DB	01eH
	DB	06H
	DB	04H
	DB	02H
	DB	03H
	DB	0bH
	DB	01H
	DB	01H
	DB	07H
	DB	07H
	DB	01H
	DB	01H
	DB	03H
	DB	06H
	DB	05H
	DB	012H
	DB	026H
	DB	09H
	DB	09H
	DB	014H
	DB	0cH
	DB	09H
	DB	014H
	DB	09H
	DB	04H
	DB	02H
	DB	04H
	DB	04H
	DB	02H
	DB	02H
	DB	02H
	DB	04H
	DB	04H
	DB	02H
	DB	013H
	DB	01H
	DB	01H
	DB	01H
	DB	07H
	DB	07H
	DB	07H
	DB	07H
	DB	07H
	DB	07H
	DB	07H
	DB	07H
	DB	07H
	DB	07H
	DB	07H
	DB	07H
	DB	01H
	DB	0bH
	DB	03H
	DB	03H
	DB	02H
	DB	04H
	DB	04H
	DB	06H
	DB	06H
	DB	04H
	DB	06H
	DB	02H
	DB	0bH
	DB	01H
	DB	01H
	DB	01H
	DB	07H
	DB	07H
	DB	07H
	DB	01H
	DB	03H
	DB	02H
	DB	04H
	DB	04H
	DB	02H
	DB	02H
	DB	02H
	DB	02H
	DB	013H
	DB	0bH
	DB	01H
	DB	06H
	DB	05H
	DB	06H
	DB	03H
	DB	0bH
	DB	0bH
	DB	0bH
	DB	013H
	DB	013H
	DB	013H
	DB	013H
	DB	01H
	DB	01H
	DB	01H
	DB	07H
	DB	07H
	DB	07H
	DB	07H
	DB	07H
	DB	07H
	DB	07H
	DB	07H
	DB	07H
	DB	07H
	DB	07H
	DB	07H
	DB	07H
	DB	07H
	DB	07H
	DB	01H
	DB	07H
	DB	0bH
	DB	0a2H
	DB	0eH
	DB	0dH
	DB	078H
	DB	0dH
	DB	0dH
	DB	078H
	DB	0dH
	DB	0dH
	DB	0dH
	DB	0dH
	DB	0dH
	DB	0dH
	DB	08dH
	DB	02eH
	DB	07H
	DB	07H
	DB	07H
	DB	01H
	DB	01H
	DB	013H
	DB	06H
	DB	05H
	DB	01eH
	DB	08H
	DB	026H
	DB	09H
	DB	09H
	DB	09H
	DB	0aH
	DB	026H
	DB	05H
	DB	05H
	DB	05H
	DB	06H
	DB	04H
	DB	036H
	DB	02H
	DB	03H
	DB	03H
	DB	0bH
	DB	013H
	DB	0bH
	DB	0bH
	DB	03H
	DB	03H
	DB	03H
	DB	03H
	DB	0bH
	DB	0bH
	DB	0bH
	DB	0bH
	DB	0bH
	DB	0bH
	DB	0bH
	DB	01H
	DB	01H
	DB	01H
	DB	01H
	DB	01H
	DB	01H
	DB	01H
	DB	01H
	DB	01H
	DB	07H
	DB	07H
	DB	07H
	DB	07H
	DB	07H
	DB	07H
	DB	07H
	DB	01H
	DB	01H
	DB	0bH
	DB	0bH
	DB	0bH
	DB	0bH
	DB	0bH
	DB	03H
	DB	03H
	DB	03H
	DB	03H
	DB	0bH
	DB	0bH
	DB	0bH
	DB	0bH
	DB	0bH
	DB	01H
	DB	0bH
	DB	03H
	DB	03H
	DB	02H
	DB	02H
	DB	03H
	DB	02H
	DB	02H
	DB	03H
	DB	03H
	DB	03H
	DB	013H
	DB	03H
	DB	03H
	DB	03H
	DB	03H
	DB	03H
	DB	04H
	DB	08H
	DB	08H
	DB	08H
	DB	08H
	DB	06H
	DB	02H
	DB	03H
	DB	03H
	DB	01H
	DB	01H
	DB	07H
	DB	07H
	DB	07H
	DB	01H
	DB	02H
	DB	04H
	DB	034H
	DB	0aH
	DB	0aH
	DB	0aH
	DB	09H
	DB	09H
	DB	014H
	DB	014H
	DB	0cH
	DB	09H
	DB	04H
	DB	04H
	DB	06H
	DB	04H
	DB	04H
	DB	04H
	DB	02H
	DB	02H
	DB	02H
	DB	02H
	DB	02H
	DB	03H
	DB	03H
	DB	013H
	DB	01H
	DB	01H
	DB	01H
	DB	01H
	DB	01H
	DB	07H
	DB	07H
	DB	07H
	DB	07H
	DB	07H
	DB	07H
	DB	07H
	DB	07H
	DB	07H
	DB	01H
	DB	01H
	DB	013H
	DB	03H
	DB	02H
	DB	04H
	DB	04H
	DB	02H
	DB	04H
	DB	03H
	DB	0bH
	DB	01H
	DB	01H
	DB	07H
	DB	07H
	DB	07H
	DB	07H
	DB	07H
	DB	0bH
	DB	036H
	DB	04H
	DB	04H
	DB	02H
	DB	03H
	DB	03H
	DB	013H
	DB	01H
	DB	01H
	DB	01H
	DB	07H
	DB	01H
	DB	02H
	DB	04H
	DB	0bH
	DB	013H
	DB	01H
	DB	01H
	DB	01H
	DB	01H
	DB	01H
	DB	01H
	DB	07H
	DB	07H
	DB	07H
	DB	07H
	DB	07H
	DB	07H
	DB	07H
	DB	07H
	DB	07H
	DB	07H
	DB	07H
	DB	07H
	DB	07H
	DB	07H
	DB	07H
	DB	01H
	DB	01H
	DB	0bH
	DB	0bH
	DB	0bH
	DB	01eH
	DB	0c7H
	DB	0eH
	DB	0dH
	DB	078H
	DB	0dH
	DB	0dH
	DB	078H
	DB	0dH
	DB	0dH
	DB	0dH
	DB	0dH
	DB	0dH
	DB	0dH
	DB	078H
	DB	02bH
	DB	07H
	DB	01H
	DB	01H
	DB	07H
	DB	01H
	DB	07H
	DB	01H
	DB	0bH
	DB	06H
	DB	05H
	DB	026H
	DB	02fH
	DB	09H
	DB	014H
	DB	014H
	DB	09H
	DB	09H
	DB	0aH
	DB	05H
	DB	05H
	DB	01eH
	DB	04H
	DB	04H
	DB	02H
	DB	03H
	DB	0bH
	DB	0bH
	DB	01H
	DB	01H
	DB	0bH
	DB	013H
	DB	03H
	DB	03H
	DB	03H
	DB	03H
	DB	03H
	DB	03H
	DB	03H
	DB	03H
	DB	0bH
	DB	0bH
	DB	0bH
	DB	0bH
	DB	0bH
	DB	0bH
	DB	0bH
	DB	03H
	DB	03H
	DB	02H
	DB	02H
	DB	03H
	DB	0bH
	DB	01H
	DB	01H
	DB	01H
	DB	07H
	DB	07H
	DB	07H
	DB	01H
	DB	0bH
	DB	0bH
	DB	0bH
	DB	0bH
	DB	03H
	DB	036H
	DB	03H
	DB	03H
	DB	03H
	DB	03H
	DB	03H
	DB	03H
	DB	03H
	DB	02H
	DB	02H
	DB	03H
	DB	03H
	DB	02H
	DB	02H
	DB	02H
	DB	02H
	DB	02H
	DB	03H
	DB	03H
	DB	0bH
	DB	0bH
	DB	03H
	DB	03H
	DB	02H
	DB	04H
	DB	06H
	DB	05H
	DB	05H
	DB	08H
	DB	08H
	DB	08H
	DB	02H
	DB	03H
	DB	0bH
	DB	0bH
	DB	01H
	DB	01H
	DB	01H
	DB	01H
	DB	01H
	DB	07H
	DB	01H
	DB	0bH
	DB	02H
	DB	01eH
	DB	05H
	DB	012H
	DB	0aH
	DB	09H
	DB	014H
	DB	014H
	DB	0aH
	DB	02H
	DB	04H
	DB	04H
	DB	04H
	DB	06H
	DB	04H
	DB	02H
	DB	02H
	DB	03H
	DB	0bH
	DB	013H
	DB	013H
	DB	013H
	DB	0bH
	DB	03H
	DB	02H
	DB	04H
	DB	02H
	DB	02H
	DB	04H
	DB	04H
	DB	04H
	DB	04H
	DB	04H
	DB	06H
	DB	06H
	DB	06H
	DB	04H
	DB	06H
	DB	06H
	DB	04H
	DB	02H
	DB	03H
	DB	02H
	DB	04H
	DB	04H
	DB	06H
	DB	03H
	DB	01H
	DB	01H
	DB	07H
	DB	07H
	DB	07H
	DB	07H
	DB	07H
	DB	01H
	DB	03H
	DB	04H
	DB	04H
	DB	04H
	DB	04H
	DB	02H
	DB	02H
	DB	04H
	DB	02H
	DB	03H
	DB	03H
	DB	03H
	DB	03H
	DB	01H
	DB	07H
	DB	01H
	DB	01H
	DB	01H
	DB	07H
	DB	07H
	DB	01H
	DB	01H
	DB	07H
	DB	07H
	DB	07H
	DB	07H
	DB	07H
	DB	07H
	DB	07H
	DB	07H
	DB	07H
	DB	07H
	DB	07H
	DB	07H
	DB	07H
	DB	07H
	DB	07H
	DB	01H
	DB	03H
	DB	04H
	DB	01eH
	DB	05H
	DB	05H
	DB	034H
	DB	011H
	DB	03aH
	DB	08dH
	DB	0dH
	DB	0dH
	DB	0dH
	DB	0dH
	DB	0dH
	DB	0dH
	DB	0dH
	DB	0dH
	DB	0dH
	DB	0dH
	DB	0dH
	DB	08eH
	DB	059H
	DB	07H
	DB	01H
	DB	01H
	DB	01H
	DB	07H
	DB	01H
	DB	01H
	DB	07H
	DB	07H
	DB	0bH
	DB	02H
	DB	06H
	DB	05H
	DB	026H
	DB	09H
	DB	014H
	DB	0cH
	DB	014H
	DB	0aH
	DB	012H
	DB	05H
	DB	08H
	DB	04H
	DB	036H
	DB	03H
	DB	03H
	DB	0bH
	DB	0bH
	DB	0bH
	DB	03H
	DB	02H
	DB	03H
	DB	02H
	DB	036H
	DB	036H
	DB	036H
	DB	036H
	DB	036H
	DB	036H
	DB	036H
	DB	036H
	DB	036H
	DB	03H
	DB	03H
	DB	036H
	DB	036H
	DB	036H
	DB	036H
	DB	036H
	DB	036H
	DB	04H
	DB	04H
	DB	04H
	DB	036H
	DB	02H
	DB	02H
	DB	03H
	DB	0bH
	DB	0bH
	DB	0bH
	DB	0bH
	DB	0bH
	DB	03H
	DB	036H
	DB	03H
	DB	03H
	DB	02H
	DB	036H
	DB	03H
	DB	03H
	DB	036H
	DB	03H
	DB	02H
	DB	02H
	DB	02H
	DB	02H
	DB	02H
	DB	02H
	DB	02H
	DB	02H
	DB	02H
	DB	03H
	DB	0bH
	DB	0bH
	DB	03H
	DB	02H
	DB	04H
	DB	06H
	DB	06H
	DB	05H
	DB	012H
	DB	012H
	DB	012H
	DB	08H
	DB	02H
	DB	013H
	DB	013H
	DB	01H
	DB	01H
	DB	01H
	DB	03H
	DB	02H
	DB	0bH
	DB	01H
	DB	0bH
	DB	03H
	DB	03H
	DB	03H
	DB	02H
	DB	04H
	DB	08H
	DB	05H
	DB	0aH
	DB	09H
	DB	012H
	DB	04H
	DB	02H
	DB	02H
	DB	02H
	DB	02H
	DB	04H
	DB	02H
	DB	013H
	DB	01H
	DB	01H
	DB	0bH
	DB	0bH
	DB	03H
	DB	02H
	DB	02H
	DB	04H
	DB	04H
	DB	04H
	DB	06H
	DB	06H
	DB	08H
	DB	012H
	DB	09H
	DB	0cH
	DB	0cH
	DB	0cH
	DB	0cH
	DB	0cH
	DB	0fH
	DB	0cH
	DB	014H
	DB	0cH
	DB	014H
	DB	09H
	DB	012H
	DB	012H
	DB	05H
	DB	02H
	DB	01H
	DB	01H
	DB	01H
	DB	07H
	DB	07H
	DB	07H
	DB	07H
	DB	0bH
	DB	04H
	DB	01eH
	DB	05H
	DB	01eH
	DB	01eH
	DB	06H
	DB	04H
	DB	04H
	DB	036H
	DB	04H
	DB	04H
	DB	04H
	DB	02H
	DB	03H
	DB	03H
	DB	0bH
	DB	01H
	DB	07H
	DB	07H
	DB	07H
	DB	07H
	DB	07H
	DB	07H
	DB	07H
	DB	07H
	DB	07H
	DB	07H
	DB	07H
	DB	07H
	DB	07H
	DB	07H
	DB	07H
	DB	07H
	DB	07H
	DB	07H
	DB	01H
	DB	03H
	DB	04H
	DB	05H
	DB	02fH
	DB	014H
	DB	011H
	DB	011H
	DB	041H
	DB	041H
	DB	030H
	DB	044H
	DB	0b4H
	DB	0dH
	DB	0dH
	DB	0dH
	DB	0dH
	DB	0dH
	DB	0dH
	DB	0dH
	DB	0dH
	DB	0dH
	DB	0dH
	DB	0dH
	DB	0b7H
	DB	02aH
	DB	01H
	DB	01H
	DB	01H
	DB	07H
	DB	01H
	DB	07H
	DB	07H
	DB	07H
	DB	07H
	DB	07H
	DB	07H
	DB	01H
	DB	03H
	DB	04H
	DB	08H
	DB	02fH
	DB	014H
	DB	011H
	DB	0fH
	DB	09H
	DB	0aH
	DB	0aH
	DB	0aH
	DB	05H
	DB	01eH
	DB	06H
	DB	04H
	DB	02H
	DB	02H
	DB	02H
	DB	04H
	DB	02H
	DB	036H
	DB	04H
	DB	04H
	DB	042H
	DB	01eH
	DB	01eH
	DB	08H
	DB	01eH
	DB	01eH
	DB	01eH
	DB	01eH
	DB	04H
	DB	04H
	DB	04H
	DB	042H
	DB	06H
	DB	06H
	DB	01eH
	DB	01eH
	DB	05H
	DB	05H
	DB	034H
	DB	02fH
	DB	02fH
	DB	02fH
	DB	02fH
	DB	05H
	DB	05H
	DB	05H
	DB	08H
	DB	08H
	DB	01eH
	DB	04H
	DB	01eH
	DB	06H
	DB	04H
	DB	04H
	DB	06H
	DB	04H
	DB	02H
	DB	0bH
	DB	03H
	DB	02H
	DB	02H
	DB	02H
	DB	02H
	DB	04H
	DB	02H
	DB	03H
	DB	0bH
	DB	01H
	DB	02H
	DB	04H
	DB	06H
	DB	06H
	DB	08H
	DB	012H
	DB	026H
	DB	0aH
	DB	026H
	DB	06H
	DB	01H
	DB	07H
	DB	07H
	DB	07H
	DB	01H
	DB	01H
	DB	02H
	DB	04H
	DB	0bH
	DB	01H
	DB	0bH
	DB	036H
	DB	036H
	DB	03H
	DB	03H
	DB	03H
	DB	02H
	DB	06H
	DB	08H
	DB	026H
	DB	05H
	DB	02H
	DB	02H
	DB	02H
	DB	03H
	DB	013H
	DB	01H
	DB	01H
	DB	013H
	DB	02H
	DB	04H
	DB	06H
	DB	02H
	DB	03H
	DB	02H
	DB	04H
	DB	02H
	DB	02H
	DB	06H
	DB	08H
	DB	05H
	DB	05H
	DB	012H
	DB	0aH
	DB	09H
	DB	09H
	DB	09H
	DB	09H
	DB	09H
	DB	014H
	DB	014H
	DB	014H
	DB	0cH
	DB	0cH
	DB	0cH
	DB	0cH
	DB	0aH
	DB	04H
	DB	013H
	DB	07H
	DB	07H
	DB	07H
	DB	07H
	DB	07H
	DB	07H
	DB	07H
	DB	0bH
	DB	04H
	DB	042H
	DB	04H
	DB	06H
	DB	06H
	DB	04H
	DB	02H
	DB	02H
	DB	02H
	DB	02H
	DB	03H
	DB	03H
	DB	03H
	DB	0bH
	DB	0bH
	DB	01H
	DB	01H
	DB	01H
	DB	01H
	DB	07H
	DB	07H
	DB	07H
	DB	07H
	DB	07H
	DB	07H
	DB	07H
	DB	07H
	DB	07H
	DB	07H
	DB	07H
	DB	07H
	DB	013H
	DB	06H
	DB	01eH
	DB	05H
	DB	034H
	DB	09H
	DB	014H
	DB	0fH
	DB	0fH
	DB	041H
	DB	01bH
	DB	01bH
	DB	015H
	DB	01bH
	DB	041H
	DB	030H
	DB	044H
	DB	0b4H
	DB	0dH
	DB	0dH
	DB	0dH
	DB	0dH
	DB	0dH
	DB	0dH
	DB	0dH
	DB	0dH
	DB	0dH
	DB	0dH
	DB	078H
	DB	04aH
	DB	02aH
	DB	01H
	DB	03H
	DB	01H
	DB	01H
	DB	01H
	DB	07H
	DB	01H
	DB	07H
	DB	07H
	DB	07H
	DB	07H
	DB	07H
	DB	07H
	DB	07H
	DB	01H
	DB	03H
	DB	04H
	DB	012H
	DB	014H
	DB	011H
	DB	0fH
	DB	0cH
	DB	033H
	DB	09H
	DB	09H
	DB	0aH
	DB	012H
	DB	05H
	DB	06H
	DB	04H
	DB	06H
	DB	01eH
	DB	05H
	DB	05H
	DB	05H
	DB	05H
	DB	05H
	DB	05H
	DB	05H
	DB	05H
	DB	026H
	DB	02fH
	DB	02fH
	DB	026H
	DB	026H
	DB	02fH
	DB	02fH
	DB	012H
	DB	0aH
	DB	0aH
	DB	09H
	DB	09H
	DB	09H
	DB	014H
	DB	014H
	DB	014H
	DB	0cH
	DB	0fH
	DB	0fH
	DB	011H
	DB	011H
	DB	011H
	DB	014H
	DB	012H
	DB	05H
	DB	01eH
	DB	06H
	DB	04H
	DB	04H
	DB	036H
	DB	036H
	DB	02H
	DB	03H
	DB	0bH
	DB	0bH
	DB	0bH
	DB	03H
	DB	02H
	DB	02H
	DB	02H
	DB	013H
	DB	03H
	DB	06H
	DB	01eH
	DB	05H
	DB	05H
	DB	05H
	DB	0aH
	DB	09H
	DB	0aH
	DB	06H
	DB	03H
	DB	07H
	DB	07H
	DB	07H
	DB	07H
	DB	07H
	DB	07H
	DB	07H
	DB	07H
	DB	01H
	DB	01H
	DB	0bH
	DB	036H
	DB	02H
	DB	03H
	DB	03H
	DB	03H
	DB	03H
	DB	02H
	DB	04H
	DB	04H
	DB	04H
	DB	0bH
	DB	01H
	DB	0bH
	DB	01H
	DB	07H
	DB	07H
	DB	07H
	DB	07H
	DB	07H
	DB	07H
	DB	01H
	DB	03H
	DB	02H
	DB	02H
	DB	04H
	DB	06H
	DB	04H
	DB	04H
	DB	06H
	DB	08H
	DB	05H
	DB	012H
	DB	0aH
	DB	09H
	DB	09H
	DB	0aH
	DB	0aH
	DB	0aH
	DB	09H
	DB	09H
	DB	0aH
	DB	0aH
	DB	012H
	DB	08H
	DB	06H
	DB	04H
	DB	02H
	DB	013H
	DB	07H
	DB	07H
	DB	07H
	DB	07H
	DB	07H
	DB	07H
	DB	07H
	DB	0bH
	DB	036H
	DB	036H
	DB	036H
	DB	04H
	DB	02H
	DB	03H
	DB	03H
	DB	0bH
	DB	013H
	DB	013H
	DB	03H
	DB	0bH
	DB	01H
	DB	01H
	DB	07H
	DB	07H
	DB	07H
	DB	01H
	DB	01H
	DB	01H
	DB	07H
	DB	07H
	DB	07H
	DB	07H
	DB	07H
	DB	07H
	DB	07H
	DB	01H
	DB	0bH
	DB	036H
	DB	06H
	DB	034H
	DB	09H
	DB	033H
	DB	0fH
	DB	0fH
	DB	0fH
	DB	011H
	DB	041H
	DB	011H
	DB	041H
	DB	041H
	DB	011H
	DB	0fH
	DB	0fH
	DB	011H
	DB	014H
	DB	015H
	DB	064H
	DB	08dH
	DB	0dH
	DB	0dH
	DB	0dH
	DB	0dH
	DB	0dH
	DB	0dH
	DB	0dH
	DB	0dH
	DB	0dH
	DB	0dH
	DB	0eH
	DB	010H
	DB	035H
	DB	0bH
	DB	036H
	DB	02H
	DB	0bH
	DB	01H
	DB	01H
	DB	01H
	DB	07H
	DB	07H
	DB	07H
	DB	07H
	DB	07H
	DB	07H
	DB	07H
	DB	07H
	DB	07H
	DB	07H
	DB	01H
	DB	069H
	DB	012H
	DB	011H
	DB	015H
	DB	041H
	DB	011H
	DB	0fH
	DB	0cH
	DB	014H
	DB	09H
	DB	0aH
	DB	012H
	DB	05H
	DB	05H
	DB	026H
	DB	05H
	DB	05H
	DB	05H
	DB	05H
	DB	026H
	DB	09H
	DB	09H
	DB	014H
	DB	014H
	DB	014H
	DB	0cH
	DB	014H
	DB	09H
	DB	09H
	DB	09H
	DB	09H
	DB	014H
	DB	0cH
	DB	0cH
	DB	0fH
	DB	0fH
	DB	0fH
	DB	011H
	DB	015H
	DB	01bH
	DB	016H
	DB	01dH
	DB	030H
	DB	030H
	DB	01bH
	DB	0fH
	DB	014H
	DB	05H
	DB	01eH
	DB	04H
	DB	02H
	DB	03H
	DB	03H
	DB	02H
	DB	02H
	DB	02H
	DB	013H
	DB	01H
	DB	0bH
	DB	03H
	DB	02H
	DB	04H
	DB	06H
	DB	05H
	DB	0aH
	DB	09H
	DB	02fH
	DB	0aH
	DB	09H
	DB	09H
	DB	05H
	DB	013H
	DB	07H
	DB	07H
	DB	07H
	DB	07H
	DB	07H
	DB	07H
	DB	07H
	DB	07H
	DB	07H
	DB	07H
	DB	07H
	DB	01H
	DB	0bH
	DB	0bH
	DB	0bH
	DB	03H
	DB	0bH
	DB	03H
	DB	04H
	DB	04H
	DB	04H
	DB	03H
	DB	01H
	DB	01H
	DB	01H
	DB	01H
	DB	01H
	DB	07H
	DB	07H
	DB	07H
	DB	07H
	DB	07H
	DB	01H
	DB	01H
	DB	01H
	DB	06H
	DB	09H
	DB	09H
	DB	09H
	DB	09H
	DB	09H
	DB	0aH
	DB	05H
	DB	08H
	DB	012H
	DB	033H
	DB	033H
	DB	09H
	DB	0aH
	DB	0aH
	DB	0aH
	DB	05H
	DB	08H
	DB	06H
	DB	02H
	DB	03H
	DB	03H
	DB	013H
	DB	01H
	DB	0bH
	DB	02H
	DB	03H
	DB	01H
	DB	01H
	DB	07H
	DB	07H
	DB	07H
	DB	01H
	DB	03H
	DB	03H
	DB	03H
	DB	03H
	DB	03H
	DB	0bH
	DB	01H
	DB	01H
	DB	01H
	DB	01H
	DB	01H
	DB	01H
	DB	07H
	DB	07H
	DB	07H
	DB	07H
	DB	07H
	DB	07H
	DB	07H
	DB	07H
	DB	07H
	DB	07H
	DB	07H
	DB	07H
	DB	07H
	DB	01H
	DB	0bH
	DB	036H
	DB	04H
	DB	01eH
	DB	05H
	DB	09H
	DB	014H
	DB	09H
	DB	09H
	DB	033H
	DB	0fH
	DB	0fH
	DB	0fH
	DB	0fH
	DB	0fH
	DB	0fH
	DB	0cH
	DB	014H
	DB	014H
	DB	014H
	DB	0aH
	DB	01eH
	DB	0fH
	DB	03fH
	DB	0eH
	DB	0dH
	DB	0dH
	DB	0dH
	DB	0dH
	DB	0dH
	DB	0dH
	DB	0dH
	DB	0dH
	DB	0dH
	DB	0dH
	DB	052H
	DB	010H
	DB	0efH
	DB	036H
	DB	04H
	DB	036H
	DB	02H
	DB	0bH
	DB	01H
	DB	01H
	DB	01H
	DB	01H
	DB	07H
	DB	07H
	DB	07H
	DB	07H
	DB	07H
	DB	07H
	DB	07H
	DB	07H
	DB	07H
	DB	07H
	DB	07H
	DB	02H
	DB	05H
	DB	09H
	DB	011H
	DB	015H
	DB	011H
	DB	011H
	DB	0fH
	DB	0cH
	DB	014H
	DB	09H
	DB	0aH
	DB	0aH
	DB	0aH
	DB	0aH
	DB	09H
	DB	09H
	DB	014H
	DB	0cH
	DB	0fH
	DB	0fH
	DB	0fH
	DB	011H
	DB	0fH
	DB	011H
	DB	0fH
	DB	0cH
	DB	0cH
	DB	0fH
	DB	0fH
	DB	0fH
	DB	011H
	DB	011H
	DB	011H
	DB	011H
	DB	01bH
	DB	016H
	DB	01dH
	DB	0f9H
	DB	016H
	DB	015H
	DB	011H
	DB	011H
	DB	01bH
	DB	016H
	DB	015H
	DB	0fH
	DB	09H
	DB	05H
	DB	04H
	DB	04H
	DB	04H
	DB	04H
	DB	04H
	DB	04H
	DB	02H
	DB	013H
	DB	013H
	DB	0bH
	DB	02H
	DB	012H
	DB	09H
	DB	09H
	DB	09H
	DB	09H
	DB	09H
	DB	012H
	DB	02H
	DB	07H
	DB	07H
	DB	07H
	DB	07H
	DB	07H
	DB	07H
	DB	01H
	DB	01H
	DB	0bH
	DB	0bH
	DB	01H
	DB	07H
	DB	07H
	DB	03H
	DB	02H
	DB	0bH
	DB	01H
	DB	0bH
	DB	0bH
	DB	06H
	DB	05H
	DB	02H
	DB	0bH
	DB	01H
	DB	07H
	DB	07H
	DB	01H
	DB	01H
	DB	01H
	DB	01H
	DB	0bH
	DB	02H
	DB	04H
	DB	08H
	DB	05H
	DB	0aH
	DB	05H
	DB	05H
	DB	09H
	DB	0fH
	DB	0fH
	DB	0fH
	DB	0fH
	DB	0cH
	DB	09H
	DB	0aH
	DB	0aH
	DB	09H
	DB	09H
	DB	012H
	DB	05H
	DB	08H
	DB	04H
	DB	02H
	DB	02H
	DB	03H
	DB	03H
	DB	03H
	DB	069H
	DB	013H
	DB	01H
	DB	01H
	DB	03H
	DB	02H
	DB	013H
	DB	01H
	DB	01H
	DB	01H
	DB	01H
	DB	0bH
	DB	03H
	DB	03H
	DB	0bH
	DB	01H
	DB	01H
	DB	01H
	DB	01H
	DB	01H
	DB	01H
	DB	01H
	DB	07H
	DB	07H
	DB	07H
	DB	07H
	DB	07H
	DB	07H
	DB	07H
	DB	07H
	DB	07H
	DB	07H
	DB	07H
	DB	01H
	DB	01H
	DB	0bH
	DB	03H
	DB	06H
	DB	01eH
	DB	05H
	DB	05H
	DB	026H
	DB	09H
	DB	09H
	DB	09H
	DB	09H
	DB	09H
	DB	09H
	DB	09H
	DB	014H
	DB	014H
	DB	0cH
	DB	0cH
	DB	014H
	DB	09H
	DB	0aH
	DB	0aH
	DB	05H
	DB	08H
	DB	04H
	DB	0cH
	DB	09bH
	DB	052H
	DB	0dH
	DB	0dH
	DB	0dH
	DB	0dH
	DB	0dH
	DB	0dH
	DB	0dH
	DB	0dH
	DB	0dH
	DB	0dH
	DB	0b4H
	DB	04fH
	DB	0f3H
	DB	03H
	DB	04H
	DB	036H
	DB	03H
	DB	0bH
	DB	0bH
	DB	01H
	DB	01H
	DB	01H
	DB	07H
	DB	01H
	DB	07H
	DB	07H
	DB	07H
	DB	07H
	DB	07H
	DB	07H
	DB	07H
	DB	07H
	DB	07H
	DB	07H
	DB	07H
	DB	01H
	DB	02H
	DB	05H
	DB	09H
	DB	0cH
	DB	0cH
	DB	014H
	DB	09H
	DB	014H
	DB	014H
	DB	09H
	DB	014H
	DB	0cH
	DB	0cH
	DB	0fH
	DB	0fH
	DB	0fH
	DB	0fH
	DB	0fH
	DB	0fH
	DB	015H
	DB	01bH
	DB	01bH
	DB	016H
	DB	016H
	DB	011H
	DB	011H
	DB	015H
	DB	01bH
	DB	01bH
	DB	01bH
	DB	016H
	DB	01dH
	DB	0f9H
	DB	016H
	DB	015H
	DB	0cH
	DB	0aH
	DB	0aH
	DB	0aH
	DB	03dH
	DB	0fH
	DB	01bH
	DB	01dH
	DB	030H
	DB	016H
	DB	041H
	DB	0fH
	DB	0aH
	DB	06H
	DB	01eH
	DB	06H
	DB	06H
	DB	06H
	DB	04H
	DB	02H
	DB	02H
	DB	03H
	DB	04H
	DB	0aH
	DB	09H
	DB	05H
	DB	06H
	DB	03H
	DB	01H
	DB	07H
	DB	07H
	DB	07H
	DB	07H
	DB	07H
	DB	01H
	DB	0bH
	DB	0bH
	DB	013H
	DB	01H
	DB	01H
	DB	01H
	DB	01H
	DB	03H
	DB	05H
	DB	09H
	DB	09H
	DB	05H
	DB	06H
	DB	04H
	DB	06H
	DB	03H
	DB	01H
	DB	07H
	DB	07H
	DB	07H
	DB	07H
	DB	01H
	DB	01H
	DB	01H
	DB	02H
	DB	06H
	DB	06H
	DB	08H
	DB	08H
	DB	08H
	DB	05H
	DB	09H
	DB	09H
	DB	0aH
	DB	09H
	DB	0cH
	DB	0cH
	DB	014H
	DB	0fH
	DB	011H
	DB	0fH
	DB	09H
	DB	05H
	DB	08H
	DB	06H
	DB	02H
	DB	03H
	DB	03H
	DB	01H
	DB	013H
	DB	0bH
	DB	013H
	DB	013H
	DB	013H
	DB	0bH
	DB	013H
	DB	01H
	DB	013H
	DB	01H
	DB	01H
	DB	01H
	DB	07H
	DB	01H
	DB	0bH
	DB	0bH
	DB	01H
	DB	01H
	DB	0bH
	DB	01H
	DB	01H
	DB	01H
	DB	07H
	DB	07H
	DB	07H
	DB	07H
	DB	07H
	DB	07H
	DB	07H
	DB	07H
	DB	07H
	DB	07H
	DB	07H
	DB	01H
	DB	013H
	DB	0bH
	DB	0bH
	DB	0bH
	DB	0bH
	DB	0bH
	DB	036H
	DB	06H
	DB	05H
	DB	026H
	DB	012H
	DB	09H
	DB	09H
	DB	09H
	DB	09H
	DB	0aH
	DB	0aH
	DB	0aH
	DB	0aH
	DB	09H
	DB	09H
	DB	09H
	DB	09H
	DB	02fH
	DB	034H
	DB	05H
	DB	05H
	DB	01eH
	DB	01eH
	DB	036H
	DB	09H
	DB	09cH
	DB	0eH
	DB	0dH
	DB	0dH
	DB	0dH
	DB	0dH
	DB	0dH
	DB	0dH
	DB	0dH
	DB	0dH
	DB	0dH
	DB	0dH
	DB	0dH
	DB	022H
	DB	028H
	DB	03H
	DB	036H
	DB	03H
	DB	03H
	DB	0bH
	DB	0bH
	DB	0bH
	DB	0bH
	DB	01H
	DB	01H
	DB	01H
	DB	07H
	DB	07H
	DB	07H
	DB	07H
	DB	07H
	DB	07H
	DB	07H
	DB	07H
	DB	07H
	DB	07H
	DB	07H
	DB	07H
	DB	07H
	DB	01H
	DB	02H
	DB	08H
	DB	0aH
	DB	09H
	DB	014H
	DB	09H
	DB	03dH
	DB	0cH
	DB	0fH
	DB	011H
	DB	0fH
	DB	0fH
	DB	0fH
	DB	0cH
	DB	0fH
	DB	0fH
	DB	0fH
	DB	0cH
	DB	0cH
	DB	0fH
	DB	011H
	DB	015H
	DB	015H
	DB	0fH
	DB	0cH
	DB	0cH
	DB	0cH
	DB	0cH
	DB	014H
	DB	0aH
	DB	06H
	DB	03H
	DB	013H
	DB	01H
	DB	0bH
	DB	013H
	DB	02H
	DB	04H
	DB	06H
	DB	08H
	DB	012H
	DB	0cH
	DB	015H
	DB	016H
	DB	016H
	DB	01bH
	DB	014H
	DB	08H
	DB	08H
	DB	08H
	DB	05H
	DB	08H
	DB	08H
	DB	05H
	DB	0aH
	DB	09H
	DB	05H
	DB	02H
	DB	01H
	DB	01H
	DB	07H
	DB	07H
	DB	07H
	DB	07H
	DB	01H
	DB	03H
	DB	03H
	DB	03H
	DB	03H
	DB	013H
	DB	0bH
	DB	01H
	DB	01H
	DB	03H
	DB	01eH
	DB	05H
	DB	05H
	DB	09H
	DB	011H
	DB	011H
	DB	0fH
	DB	033H
	DB	06H
	DB	01H
	DB	07H
	DB	07H
	DB	07H
	DB	07H
	DB	01H
	DB	07H
	DB	07H
	DB	07H
	DB	07H
	DB	01H
	DB	01H
	DB	01H
	DB	013H
	DB	03H
	DB	03H
	DB	069H
	DB	02H
	DB	06H
	DB	06H
	DB	06H
	DB	05H
	DB	0aH
	DB	014H
	DB	014H
	DB	0aH
	DB	038H
	DB	03H
	DB	0bH
	DB	01H
	DB	01H
	DB	01H
	DB	01H
	DB	01H
	DB	01H
	DB	01H
	DB	01H
	DB	01H
	DB	01H
	DB	013H
	DB	013H
	DB	01H
	DB	0bH
	DB	0bH
	DB	01H
	DB	01H
	DB	07H
	DB	0bH
	DB	03H
	DB	01H
	DB	01H
	DB	0bH
	DB	0bH
	DB	01H
	DB	01H
	DB	01H
	DB	01H
	DB	07H
	DB	07H
	DB	07H
	DB	07H
	DB	07H
	DB	07H
	DB	01H
	DB	0bH
	DB	02H
	DB	05H
	DB	09H
	DB	014H
	DB	09H
	DB	06H
	DB	03H
	DB	03H
	DB	036H
	DB	036H
	DB	036H
	DB	04H
	DB	05H
	DB	05H
	DB	012H
	DB	034H
	DB	026H
	DB	09H
	DB	0aH
	DB	09H
	DB	09H
	DB	0aH
	DB	0aH
	DB	0aH
	DB	026H
	DB	05H
	DB	05H
	DB	01eH
	DB	08H
	DB	01eH
	DB	04H
	DB	04H
	DB	02H
	DB	06H
	DB	084H
	DB	08dH
	DB	0dH
	DB	0dH
	DB	0dH
	DB	0dH
	DB	0dH
	DB	0dH
	DB	0dH
	DB	0dH
	DB	0dH
	DB	0dH
	DB	0dH
	DB	095H
	DB	05fH
	DB	03H
	DB	02H
	DB	02H
	DB	03H
	DB	03H
	DB	0bH
	DB	0bH
	DB	0bH
	DB	0bH
	DB	0bH
	DB	0bH
	DB	01H
	DB	01H
	DB	01H
	DB	01H
	DB	07H
	DB	01H
	DB	07H
	DB	07H
	DB	07H
	DB	07H
	DB	07H
	DB	07H
	DB	07H
	DB	07H
	DB	07H
	DB	01H
	DB	02H
	DB	012H
	DB	0fH
	DB	0cH
	DB	014H
	DB	014H
	DB	09H
	DB	0aH
	DB	0aH
	DB	09H
	DB	0aH
	DB	0aH
	DB	0aH
	DB	0aH
	DB	0aH
	DB	012H
	DB	05H
	DB	05H
	DB	05H
	DB	05H
	DB	012H
	DB	012H
	DB	08H
	DB	06H
	DB	06H
	DB	04H
	DB	01H
	DB	07H
	DB	07H
	DB	01H
	DB	0bH
	DB	03H
	DB	02H
	DB	04H
	DB	06H
	DB	06H
	DB	06H
	DB	08H
	DB	05H
	DB	05H
	DB	0aH
	DB	0cH
	DB	0fH
	DB	011H
	DB	01bH
	DB	011H
	DB	0aH
	DB	012H
	DB	05H
	DB	05H
	DB	05H
	DB	012H
	DB	0aH
	DB	02H
	DB	07H
	DB	07H
	DB	07H
	DB	07H
	DB	07H
	DB	07H
	DB	01H
	DB	03H
	DB	04H
	DB	04H
	DB	02H
	DB	03H
	DB	0bH
	DB	0bH
	DB	0bH
	DB	0bH
	DB	02H
	DB	026H
	DB	09H
	DB	09H
	DB	012H
	DB	05H
	DB	09H
	DB	0fH
	DB	0cH
	DB	08H
	DB	01H
	DB	01H
	DB	01H
	DB	01H
	DB	01H
	DB	01H
	DB	01H
	DB	01H
	DB	01H
	DB	07H
	DB	07H
	DB	01H
	DB	01H
	DB	01H
	DB	01H
	DB	01H
	DB	01H
	DB	01H
	DB	07H
	DB	01H
	DB	03H
	DB	02H
	DB	02H
	DB	04H
	DB	04H
	DB	01H
	DB	07H
	DB	07H
	DB	07H
	DB	07H
	DB	07H
	DB	07H
	DB	07H
	DB	07H
	DB	07H
	DB	07H
	DB	07H
	DB	07H
	DB	07H
	DB	01H
	DB	01H
	DB	01H
	DB	07H
	DB	01H
	DB	03H
	DB	01H
	DB	01H
	DB	03H
	DB	036H
	DB	036H
	DB	036H
	DB	04H
	DB	04H
	DB	02H
	DB	0bH
	DB	0bH
	DB	01H
	DB	01H
	DB	01H
	DB	01H
	DB	0bH
	DB	02H
	DB	06H
	DB	026H
	DB	09H
	DB	033H
	DB	011H
	DB	011H
	DB	0cH
	DB	09H
	DB	09H
	DB	026H
	DB	04H
	DB	036H
	DB	03H
	DB	03H
	DB	03H
	DB	02H
	DB	04H
	DB	08H
	DB	08H
	DB	05H
	DB	012H
	DB	012H
	DB	012H
	DB	026H
	DB	012H
	DB	05H
	DB	05H
	DB	05H
	DB	01eH
	DB	0d6H
	DB	06H
	DB	06H
	DB	04H
	DB	04H
	DB	04H
	DB	02H
	DB	03H
	DB	03H
	DB	0a2H
	DB	078H
	DB	0dH
	DB	0dH
	DB	0dH
	DB	0dH
	DB	0dH
	DB	0dH
	DB	0dH
	DB	0dH
	DB	0dH
	DB	0dH
	DB	0dH
	DB	024H
	DB	0aH
	DB	03H
	DB	02H
	DB	02H
	DB	02H
	DB	03H
	DB	03H
	DB	0bH
	DB	0bH
	DB	0bH
	DB	0bH
	DB	0bH
	DB	0bH
	DB	01H
	DB	01H
	DB	01H
	DB	01H
	DB	01H
	DB	01H
	DB	01H
	DB	07H
	DB	07H
	DB	07H
	DB	07H
	DB	07H
	DB	07H
	DB	07H
	DB	07H
	DB	07H
	DB	07H
	DB	02H
	DB	0aH
	DB	014H
	DB	012H
	DB	06H
	DB	03H
	DB	03H
	DB	03H
	DB	03H
	DB	03H
	DB	069H
	DB	03H
	DB	03H
	DB	02H
	DB	038H
	DB	04H
	DB	02H
	DB	036H
	DB	02H
	DB	02H
	DB	02H
	DB	02H
	DB	02H
	DB	013H
	DB	01H
	DB	01H
	DB	01H
	DB	01H
	DB	03H
	DB	02H
	DB	02H
	DB	02H
	DB	02H
	DB	04H
	DB	06H
	DB	08H
	DB	08H
	DB	08H
	DB	05H
	DB	012H
	DB	09H
	DB	014H
	DB	0fH
	DB	0fH
	DB	014H
	DB	05H
	DB	08H
	DB	012H
	DB	09H
	DB	08H
	DB	01H
	DB	07H
	DB	07H
	DB	07H
	DB	07H
	DB	07H
	DB	07H
	DB	01H
	DB	03H
	DB	03H
	DB	03H
	DB	02H
	DB	02H
	DB	02H
	DB	03H
	DB	0bH
	DB	02H
	DB	08H
	DB	09H
	DB	014H
	DB	0cH
	DB	0fH
	DB	011H
	DB	033H
	DB	012H
	DB	02H
	DB	07H
	DB	07H
	DB	01H
	DB	013H
	DB	0bH
	DB	0bH
	DB	0bH
	DB	01H
	DB	01H
	DB	0bH
	DB	013H
	DB	01H
	DB	01H
	DB	01H
	DB	01H
	DB	01H
	DB	01H
	DB	01H
	DB	01H
	DB	013H
	DB	01H
	DB	01H
	DB	01H
	DB	013H
	DB	03H
	DB	0bH
	DB	07H
	DB	07H
	DB	07H
	DB	07H
	DB	07H
	DB	07H
	DB	07H
	DB	07H
	DB	07H
	DB	07H
	DB	07H
	DB	07H
	DB	07H
	DB	07H
	DB	07H
	DB	07H
	DB	07H
	DB	07H
	DB	07H
	DB	07H
	DB	01H
	DB	01H
	DB	02H
	DB	09H
	DB	09H
	DB	02fH
	DB	014H
	DB	0cH
	DB	014H
	DB	014H
	DB	09H
	DB	0aH
	DB	09H
	DB	014H
	DB	0fH
	DB	0fH
	DB	011H
	DB	015H
	DB	01bH
	DB	01bH
	DB	015H
	DB	011H
	DB	011H
	DB	0cH
	DB	09H
	DB	012H
	DB	034H
	DB	05H
	DB	06H
	DB	036H
	DB	03H
	DB	0bH
	DB	013H
	DB	013H
	DB	03H
	DB	02H
	DB	06H
	DB	08H
	DB	05H
	DB	05H
	DB	05H
	DB	05H
	DB	05H
	DB	05H
	DB	01eH
	DB	06H
	DB	04H
	DB	04H
	DB	04H
	DB	02H
	DB	02H
	DB	03H
	DB	03H
	DB	03H
	DB	0bH
	DB	01H
	DB	035H
	DB	078H
	DB	0dH
	DB	0dH
	DB	0dH
	DB	0dH
	DB	0dH
	DB	0dH
	DB	0dH
	DB	0dH
	DB	0dH
	DB	0dH
	DB	0dH
	DB	09cH
	DB	02H
	DB	03H
	DB	02H
	DB	03H
	DB	03H
	DB	03H
	DB	03H
	DB	03H
	DB	03H
	DB	03H
	DB	0bH
	DB	03H
	DB	0bH
	DB	0bH
	DB	0bH
	DB	0bH
	DB	01H
	DB	01H
	DB	01H
	DB	01H
	DB	01H
	DB	01H
	DB	07H
	DB	07H
	DB	07H
	DB	07H
	DB	07H
	DB	07H
	DB	07H
	DB	07H
	DB	07H
	DB	07H
	DB	03H
	DB	04H
	DB	08H
	DB	06H
	DB	04H
	DB	02H
	DB	03H
	DB	0bH
	DB	01H
	DB	01H
	DB	013H
	DB	013H
	DB	013H
	DB	013H
	DB	03H
	DB	03H
	DB	069H
	DB	03H
	DB	02H
	DB	02H
	DB	0bH
	DB	01H
	DB	01H
	DB	07H
	DB	07H
	DB	01H
	DB	07H
	DB	07H
	DB	07H
	DB	07H
	DB	07H
	DB	07H
	DB	07H
	DB	07H
	DB	07H
	DB	01H
	DB	01H
	DB	03H
	DB	04H
	DB	08H
	DB	0aH
	DB	033H
	DB	0fH
	DB	0cH
	DB	0aH
	DB	06H
	DB	08H
	DB	08H
	DB	038H
	DB	02H
	DB	01H
	DB	07H
	DB	07H
	DB	07H
	DB	01H
	DB	01H
	DB	01H
	DB	01H
	DB	01H
	DB	013H
	DB	013H
	DB	0bH
	DB	03H
	DB	08H
	DB	0cH
	DB	011H
	DB	011H
	DB	011H
	DB	011H
	DB	015H
	DB	0cH
	DB	012H
	DB	04H
	DB	02H
	DB	03H
	DB	01H
	DB	07H
	DB	01H
	DB	0bH
	DB	0bH
	DB	0bH
	DB	0bH
	DB	03H
	DB	02H
	DB	03H
	DB	03H
	DB	03H
	DB	013H
	DB	013H
	DB	013H
	DB	0bH
	DB	0bH
	DB	01H
	DB	01H
	DB	01H
	DB	01H
	DB	01H
	DB	013H
	DB	0bH
	DB	07H
	DB	07H
	DB	07H
	DB	07H
	DB	07H
	DB	07H
	DB	07H
	DB	07H
	DB	07H
	DB	07H
	DB	07H
	DB	07H
	DB	07H
	DB	07H
	DB	07H
	DB	07H
	DB	07H
	DB	07H
	DB	07H
	DB	07H
	DB	07H
	DB	07H
	DB	0bH
	DB	06H
	DB	012H
	DB	0fH
	DB	011H
	DB	01bH
	DB	01bH
	DB	015H
	DB	01dH
	DB	030H
	DB	01fH
	DB	030H
	DB	01dH
	DB	016H
	DB	0f9H
	DB	016H
	DB	016H
	DB	01bH
	DB	01bH
	DB	015H
	DB	011H
	DB	0cH
	DB	0aH
	DB	012H
	DB	026H
	DB	012H
	DB	01eH
	DB	06H
	DB	04H
	DB	036H
	DB	03H
	DB	013H
	DB	0bH
	DB	0bH
	DB	0bH
	DB	02H
	DB	06H
	DB	08H
	DB	08H
	DB	08H
	DB	08H
	DB	08H
	DB	04H
	DB	04H
	DB	02H
	DB	02H
	DB	02H
	DB	03H
	DB	03H
	DB	0bH
	DB	013H
	DB	0bH
	DB	01H
	DB	01H
	DB	07H
	DB	072H
	DB	0eH
	DB	0dH
	DB	0dH
	DB	0dH
	DB	0dH
	DB	0dH
	DB	0dH
	DB	0dH
	DB	0dH
	DB	0dH
	DB	0dH
	DB	0dH
	DB	045H
	DB	03H
	DB	03H
	DB	02H
	DB	03H
	DB	03H
	DB	02H
	DB	03H
	DB	03H
	DB	036H
	DB	03H
	DB	03H
	DB	03H
	DB	03H
	DB	0bH
	DB	0bH
	DB	0bH
	DB	0bH
	DB	0bH
	DB	01H
	DB	01H
	DB	01H
	DB	01H
	DB	01H
	DB	01H
	DB	07H
	DB	07H
	DB	07H
	DB	07H
	DB	07H
	DB	01H
	DB	01H
	DB	07H
	DB	07H
	DB	01H
	DB	03H
	DB	02H
	DB	02H
	DB	02H
	DB	04H
	DB	02H
	DB	03H
	DB	013H
	DB	013H
	DB	013H
	DB	013H
	DB	01H
	DB	013H
	DB	03H
	DB	03H
	DB	013H
	DB	03H
	DB	03H
	DB	01H
	DB	01H
	DB	01H
	DB	07H
	DB	07H
	DB	01H
	DB	07H
	DB	07H
	DB	07H
	DB	07H
	DB	07H
	DB	07H
	DB	07H
	DB	07H
	DB	07H
	DB	07H
	DB	07H
	DB	07H
	DB	07H
	DB	01H
	DB	013H
	DB	08H
	DB	09H
	DB	0cH
	DB	0fH
	DB	0fH
	DB	014H
	DB	05H
	DB	012H
	DB	05H
	DB	06H
	DB	04H
	DB	01H
	DB	01H
	DB	01H
	DB	07H
	DB	07H
	DB	07H
	DB	07H
	DB	07H
	DB	01H
	DB	06H
	DB	014H
	DB	041H
	DB	015H
	DB	015H
	DB	011H
	DB	0cH
	DB	09H
	DB	05H
	DB	06H
	DB	06H
	DB	012H
	DB	014H
	DB	09H
	DB	012H
	DB	04H
	DB	01H
	DB	01H
	DB	0bH
	DB	03H
	DB	04H
	DB	04H
	DB	04H
	DB	04H
	DB	04H
	DB	02H
	DB	02H
	DB	02H
	DB	02H
	DB	03H
	DB	03H
	DB	0bH
	DB	013H
	DB	03H
	DB	03H
	DB	013H
	DB	013H
	DB	01H
	DB	07H
	DB	07H
	DB	07H
	DB	07H
	DB	01H
	DB	07H
	DB	07H
	DB	07H
	DB	07H
	DB	07H
	DB	07H
	DB	07H
	DB	07H
	DB	07H
	DB	07H
	DB	07H
	DB	07H
	DB	07H
	DB	07H
	DB	01H
	DB	07H
	DB	07H
	DB	01H
	DB	01H
	DB	03H
	DB	09H
	DB	014H
	DB	0aH
	DB	012H
	DB	0aH
	DB	0aH
	DB	0cH
	DB	011H
	DB	011H
	DB	011H
	DB	015H
	DB	011H
	DB	011H
	DB	015H
	DB	011H
	DB	0fH
	DB	0fH
	DB	0cH
	DB	014H
	DB	09H
	DB	012H
	DB	012H
	DB	05H
	DB	05H
	DB	01eH
	DB	01eH
	DB	04H
	DB	03H
	DB	03H
	DB	03H
	DB	03H
	DB	013H
	DB	03H
	DB	04H
	DB	08H
	DB	06H
	DB	04H
	DB	04H
	DB	02H
	DB	03H
	DB	0bH
	DB	0bH
	DB	01H
	DB	01H
	DB	01H
	DB	01H
	DB	0bH
	DB	01H
	DB	01H
	DB	01H
	DB	01H
	DB	07H
	DB	088H
	DB	010H
	DB	0dH
	DB	0dH
	DB	0dH
	DB	0dH
	DB	0dH
	DB	0dH
	DB	0dH
	DB	0dH
	DB	0dH
	DB	0dH
	DB	0dH
	DB	0a0H
	DB	01H
	DB	02H
	DB	02H
	DB	03H
	DB	02H
	DB	02H
	DB	036H
	DB	036H
	DB	036H
	DB	036H
	DB	036H
	DB	036H
	DB	036H
	DB	04H
	DB	04H
	DB	036H
	DB	03H
	DB	03H
	DB	03H
	DB	0bH
	DB	0bH
	DB	0bH
	DB	01H
	DB	01H
	DB	01H
	DB	07H
	DB	07H
	DB	07H
	DB	07H
	DB	07H
	DB	07H
	DB	07H
	DB	01H
	DB	01H
	DB	01H
	DB	01H
	DB	01H
	DB	013H
	DB	013H
	DB	03H
	DB	013H
	DB	013H
	DB	013H
	DB	013H
	DB	069H
	DB	013H
	DB	01H
	DB	0bH
	DB	0bH
	DB	0bH
	DB	01H
	DB	07H
	DB	07H
	DB	07H
	DB	07H
	DB	01H
	DB	01H
	DB	07H
	DB	07H
	DB	01H
	DB	01H
	DB	07H
	DB	07H
	DB	07H
	DB	07H
	DB	07H
	DB	07H
	DB	07H
	DB	07H
	DB	07H
	DB	07H
	DB	07H
	DB	01H
	DB	01H
	DB	03H
	DB	08H
	DB	0aH
	DB	012H
	DB	03H
	DB	0bH
	DB	04H
	DB	06H
	DB	06H
	DB	04H
	DB	02H
	DB	01H
	DB	01H
	DB	01H
	DB	01H
	DB	01H
	DB	03H
	DB	08H
	DB	09H
	DB	0cH
	DB	014H
	DB	09H
	DB	0aH
	DB	05H
	DB	08H
	DB	04H
	DB	06H
	DB	06H
	DB	06H
	DB	05H
	DB	0aH
	DB	09H
	DB	0cH
	DB	0cH
	DB	014H
	DB	05H
	DB	04H
	DB	04H
	DB	05H
	DB	05H
	DB	05H
	DB	05H
	DB	05H
	DB	01eH
	DB	06H
	DB	04H
	DB	04H
	DB	036H
	DB	036H
	DB	036H
	DB	03H
	DB	02H
	DB	02H
	DB	02H
	DB	02H
	DB	013H
	DB	01H
	DB	01H
	DB	01H
	DB	02H
	DB	08H
	DB	04H
	DB	02H
	DB	02H
	DB	03H
	DB	03H
	DB	03H
	DB	03H
	DB	0bH
	DB	01H
	DB	07H
	DB	01H
	DB	0bH
	DB	0bH
	DB	01H
	DB	01H
	DB	01H
	DB	0bH
	DB	0bH
	DB	0bH
	DB	04H
	DB	034H
	DB	04H
	DB	02H
	DB	06H
	DB	04H
	DB	04H
	DB	04H
	DB	06H
	DB	06H
	DB	012H
	DB	0aH
	DB	09H
	DB	09H
	DB	09H
	DB	0aH
	DB	0aH
	DB	0aH
	DB	012H
	DB	012H
	DB	012H
	DB	05H
	DB	012H
	DB	0aH
	DB	012H
	DB	05H
	DB	05H
	DB	01eH
	DB	06H
	DB	04H
	DB	03H
	DB	03H
	DB	03H
	DB	02H
	DB	04H
	DB	06H
	DB	06H
	DB	02H
	DB	0bH
	DB	01H
	DB	01H
	DB	01H
	DB	01H
	DB	01H
	DB	01H
	DB	01H
	DB	01H
	DB	01H
	DB	01H
	DB	01H
	DB	01H
	DB	01H
	DB	01H
	DB	07H
	DB	08bH
	DB	0daH
	DB	0dH
	DB	0dH
	DB	0dH
	DB	0dH
	DB	0dH
	DB	0dH
	DB	0dH
	DB	0dH
	DB	0dH
	DB	0dH
	DB	078H
	DB	05dH
	DB	01H
	DB	02H
	DB	02H
	DB	02H
	DB	04H
	DB	04H
	DB	04H
	DB	04H
	DB	036H
	DB	036H
	DB	0fdH
	DB	06H
	DB	042H
	DB	042H
	DB	042H
	DB	04H
	DB	06H
	DB	036H
	DB	036H
	DB	03H
	DB	0bH
	DB	0bH
	DB	01H
	DB	01H
	DB	01H
	DB	01H
	DB	01H
	DB	07H
	DB	07H
	DB	07H
	DB	07H
	DB	01H
	DB	01H
	DB	07H
	DB	07H
	DB	07H
	DB	07H
	DB	07H
	DB	07H
	DB	07H
	DB	01H
	DB	01H
	DB	01H
	DB	01H
	DB	013H
	DB	013H
	DB	01H
	DB	01H
	DB	01H
	DB	01H
	DB	07H
	DB	07H
	DB	07H
	DB	07H
	DB	01H
	DB	07H
	DB	07H
	DB	07H
	DB	07H
	DB	07H
	DB	07H
	DB	07H
	DB	07H
	DB	07H
	DB	07H
	DB	07H
	DB	07H
	DB	07H
	DB	07H
	DB	07H
	DB	07H
	DB	01H
	DB	01H
	DB	01H
	DB	01H
	DB	01H
	DB	01H
	DB	07H
	DB	07H
	DB	01H
	DB	01H
	DB	013H
	DB	01H
	DB	0bH
	DB	0bH
	DB	01H
	DB	07H
	DB	07H
	DB	0bH
	DB	036H
	DB	04H
	DB	04H
	DB	02H
	DB	02H
	DB	02H
	DB	02H
	DB	02H
	DB	02H
	DB	036H
	DB	036H
	DB	04H
	DB	06H
	DB	08H
	DB	012H
	DB	0aH
	DB	09H
	DB	014H
	DB	0cH
	DB	011H
	DB	015H
	DB	015H
	DB	0cH
	DB	014H
	DB	014H
	DB	09H
	DB	09H
	DB	05H
	DB	05H
	DB	05H
	DB	06H
	DB	04H
	DB	04H
	DB	036H
	DB	036H
	DB	04H
	DB	02H
	DB	04H
	DB	04H
	DB	04H
	DB	02H
	DB	01H
	DB	03H
	DB	06H
	DB	012H
	DB	0cH
	DB	0fH
	DB	09H
	DB	0aH
	DB	012H
	DB	05H
	DB	05H
	DB	01eH
	DB	01eH
	DB	06H
	DB	04H
	DB	03H
	DB	02H
	DB	06H
	DB	06H
	DB	03H
	DB	03H
	DB	03H
	DB	036H
	DB	01eH
	DB	068H
	DB	04H
	DB	01H
	DB	01H
	DB	01H
	DB	01H
	DB	013H
	DB	03H
	DB	02H
	DB	02H
	DB	04H
	DB	04H
	DB	08H
	DB	08H
	DB	05H
	DB	05H
	DB	01eH
	DB	08H
	DB	08H
	DB	05H
	DB	05H
	DB	08H
	DB	08H
	DB	026H
	DB	0aH
	DB	05H
	DB	05H
	DB	05H
	DB	026H
	DB	01eH
	DB	02H
	DB	0bH
	DB	0bH
	DB	02H
	DB	04H
	DB	04H
	DB	01H
	DB	07H
	DB	07H
	DB	07H
	DB	07H
	DB	07H
	DB	07H
	DB	07H
	DB	07H
	DB	01H
	DB	07H
	DB	07H
	DB	01H
	DB	01H
	DB	07H
	DB	07H
	DB	07H
	DB	07H
	DB	0fcH
	DB	0bdH
	DB	0dH
	DB	0dH
	DB	0dH
	DB	0dH
	DB	0dH
	DB	0dH
	DB	0dH
	DB	0dH
	DB	0dH
	DB	0dH
	DB	0b4H
	DB	03bH
	DB	07H
	DB	03H
	DB	03H
	DB	02H
	DB	04H
	DB	04H
	DB	04H
	DB	036H
	DB	04H
	DB	04H
	DB	042H
	DB	01eH
	DB	01eH
	DB	01eH
	DB	06H
	DB	01eH
	DB	06H
	DB	04H
	DB	04H
	DB	04H
	DB	036H
	DB	03H
	DB	03H
	DB	03H
	DB	0bH
	DB	01H
	DB	07H
	DB	01H
	DB	01H
	DB	07H
	DB	07H
	DB	07H
	DB	07H
	DB	07H
	DB	07H
	DB	07H
	DB	07H
	DB	07H
	DB	07H
	DB	07H
	DB	07H
	DB	07H
	DB	07H
	DB	07H
	DB	07H
	DB	01H
	DB	01H
	DB	01H
	DB	07H
	DB	07H
	DB	01H
	DB	03H
	DB	04H
	DB	06H
	DB	06H
	DB	02H
	DB	03H
	DB	0bH
	DB	01H
	DB	07H
	DB	07H
	DB	07H
	DB	07H
	DB	07H
	DB	07H
	DB	07H
	DB	07H
	DB	07H
	DB	07H
	DB	01H
	DB	01H
	DB	013H
	DB	013H
	DB	01H
	DB	01H
	DB	07H
	DB	07H
	DB	01H
	DB	07H
	DB	07H
	DB	07H
	DB	07H
	DB	03H
	DB	01H
	DB	07H
	DB	01H
	DB	07H
	DB	01H
	DB	01H
	DB	01H
	DB	01H
	DB	01H
	DB	0bH
	DB	0bH
	DB	03H
	DB	02H
	DB	03H
	DB	02H
	DB	02H
	DB	02H
	DB	04H
	DB	06H
	DB	08H
	DB	08H
	DB	08H
	DB	05H
	DB	0aH
	DB	0cH
	DB	011H
	DB	01bH
	DB	01bH
	DB	011H
	DB	0aH
	DB	02H
	DB	069H
	DB	013H
	DB	069H
	DB	02H
	DB	04H
	DB	04H
	DB	04H
	DB	04H
	DB	04H
	DB	04H
	DB	04H
	DB	04H
	DB	06H
	DB	04H
	DB	04H
	DB	02H
	DB	04H
	DB	08H
	DB	026H
	DB	09H
	DB	0aH
	DB	0fH
	DB	015H
	DB	0cH
	DB	014H
	DB	09H
	DB	026H
	DB	012H
	DB	012H
	DB	012H
	DB	012H
	DB	05H
	DB	05H
	DB	0aH
	DB	05H
	DB	036H
	DB	036H
	DB	05H
	DB	0aH
	DB	05H
	DB	069H
	DB	07H
	DB	07H
	DB	07H
	DB	07H
	DB	07H
	DB	07H
	DB	07H
	DB	01H
	DB	01H
	DB	013H
	DB	03H
	DB	02H
	DB	04H
	DB	06H
	DB	06H
	DB	05H
	DB	08H
	DB	08H
	DB	08H
	DB	08H
	DB	05H
	DB	08H
	DB	08H
	DB	09H
	DB	014H
	DB	033H
	DB	011H
	DB	0fH
	DB	011H
	DB	0cH
	DB	012H
	DB	03H
	DB	07H
	DB	03H
	DB	01H
	DB	07H
	DB	07H
	DB	07H
	DB	07H
	DB	07H
	DB	07H
	DB	07H
	DB	07H
	DB	07H
	DB	07H
	DB	07H
	DB	07H
	DB	07H
	DB	01H
	DB	01H
	DB	01H
	DB	01H
	DB	07H
	DB	048H
	DB	024H
	DB	0dH
	DB	0dH
	DB	0dH
	DB	0dH
	DB	0dH
	DB	0dH
	DB	0dH
	DB	0dH
	DB	0dH
	DB	0dH
	DB	0b4H
	DB	03bH
	DB	07H
	DB	03H
	DB	02H
	DB	04H
	DB	04H
	DB	04H
	DB	04H
	DB	04H
	DB	04H
	DB	04H
	DB	01eH
	DB	01eH
	DB	01eH
	DB	05H
	DB	05H
	DB	05H
	DB	05H
	DB	026H
	DB	05H
	DB	01eH
	DB	01eH
	DB	01eH
	DB	06H
	DB	04H
	DB	03H
	DB	0bH
	DB	0bH
	DB	01H
	DB	01H
	DB	01H
	DB	07H
	DB	07H
	DB	07H
	DB	07H
	DB	07H
	DB	07H
	DB	07H
	DB	07H
	DB	07H
	DB	07H
	DB	07H
	DB	07H
	DB	07H
	DB	07H
	DB	07H
	DB	07H
	DB	07H
	DB	07H
	DB	07H
	DB	01H
	DB	02H
	DB	08H
	DB	08H
	DB	08H
	DB	08H
	DB	05H
	DB	05H
	DB	05H
	DB	01eH
	DB	04H
	DB	02H
	DB	0bH
	DB	03H
	DB	02H
	DB	02H
	DB	02H
	DB	013H
	DB	01H
	DB	07H
	DB	01H
	DB	01H
	DB	01H
	DB	01H
	DB	07H
	DB	07H
	DB	07H
	DB	07H
	DB	07H
	DB	07H
	DB	07H
	DB	07H
	DB	07H
	DB	01H
	DB	02H
	DB	01H
	DB	07H
	DB	07H
	DB	01H
	DB	01H
	DB	01H
	DB	01H
	DB	01H
	DB	01H
	DB	01H
	DB	013H
	DB	013H
	DB	0bH
	DB	03H
	DB	03H
	DB	02H
	DB	02H
	DB	04H
	DB	04H
	DB	06H
	DB	06H
	DB	08H
	DB	05H
	DB	012H
	DB	026H
	DB	026H
	DB	05H
	DB	06H
	DB	08H
	DB	05H
	DB	06H
	DB	02H
	DB	01H
	DB	07H
	DB	07H
	DB	07H
	DB	01H
	DB	01H
	DB	013H
	DB	013H
	DB	03H
	DB	03H
	DB	013H
	DB	01H
	DB	07H
	DB	07H
	DB	01H
	DB	03H
	DB	08H
	DB	05H
	DB	08H
	DB	012H
	DB	0cH
	DB	011H
	DB	011H
	DB	0fH
	DB	0cH
	DB	09H
	DB	0aH
	DB	09H
	DB	014H
	DB	0cH
	DB	0aH
	DB	08H
	DB	03H
	DB	03H
	DB	01eH
	DB	06H
	DB	01H
	DB	07H
	DB	07H
	DB	07H
	DB	07H
	DB	07H
	DB	07H
	DB	07H
	DB	07H
	DB	07H
	DB	07H
	DB	07H
	DB	07H
	DB	01H
	DB	01H
	DB	013H
	DB	013H
	DB	02H
	DB	06H
	DB	05H
	DB	05H
	DB	08H
	DB	06H
	DB	06H
	DB	06H
	DB	05H
	DB	0fH
	DB	030H
	DB	01fH
	DB	028H
	DB	01fH
	DB	0aeH
	DB	01fH
	DB	01fH
	DB	030H
	DB	0fH
	DB	02H
	DB	07H
	DB	07H
	DB	07H
	DB	07H
	DB	07H
	DB	07H
	DB	07H
	DB	07H
	DB	07H
	DB	07H
	DB	07H
	DB	07H
	DB	07H
	DB	07H
	DB	07H
	DB	07H
	DB	07H
	DB	07H
	DB	07H
	DB	069H
	DB	09aH
	DB	0dH
	DB	0dH
	DB	0dH
	DB	0dH
	DB	0dH
	DB	0dH
	DB	0dH
	DB	0dH
	DB	0dH
	DB	0dH
	DB	0eH
	DB	035H
	DB	07H
	DB	0bH
	DB	03H
	DB	02H
	DB	02H
	DB	036H
	DB	04H
	DB	036H
	DB	04H
	DB	01eH
	DB	01eH
	DB	01eH
	DB	05H
	DB	05H
	DB	05H
	DB	05H
	DB	05H
	DB	034H
	DB	034H
	DB	02fH
	DB	026H
	DB	012H
	DB	01eH
	DB	06H
	DB	036H
	DB	03H
	DB	036H
	DB	0bH
	DB	01H
	DB	01H
	DB	01H
	DB	01H
	DB	07H
	DB	07H
	DB	07H
	DB	07H
	DB	07H
	DB	07H
	DB	07H
	DB	07H
	DB	07H
	DB	07H
	DB	07H
	DB	07H
	DB	07H
	DB	07H
	DB	07H
	DB	07H
	DB	07H
	DB	01H
	DB	013H
	DB	013H
	DB	03H
	DB	0bH
	DB	013H
	DB	03H
	DB	02H
	DB	02H
	DB	06H
	DB	06H
	DB	06H
	DB	08H
	DB	06H
	DB	01eH
	DB	01eH
	DB	012H
	DB	05H
	DB	04H
	DB	01H
	DB	07H
	DB	07H
	DB	07H
	DB	07H
	DB	07H
	DB	07H
	DB	07H
	DB	07H
	DB	07H
	DB	07H
	DB	07H
	DB	07H
	DB	07H
	DB	07H
	DB	07H
	DB	01H
	DB	01H
	DB	0bH
	DB	07H
	DB	07H
	DB	07H
	DB	07H
	DB	07H
	DB	07H
	DB	01H
	DB	01H
	DB	01H
	DB	013H
	DB	03H
	DB	0bH
	DB	03H
	DB	02H
	DB	02H
	DB	02H
	DB	04H
	DB	06H
	DB	08H
	DB	06H
	DB	06H
	DB	06H
	DB	04H
	DB	04H
	DB	02H
	DB	04H
	DB	06H
	DB	01eH
	DB	01eH
	DB	08H
	DB	04H
	DB	02H
	DB	0bH
	DB	07H
	DB	07H
	DB	07H
	DB	07H
	DB	07H
	DB	07H
	DB	07H
	DB	07H
	DB	07H
	DB	07H
	DB	07H
	DB	013H
	DB	02H
	DB	04H
	DB	08H
	DB	08H
	DB	0aH
	DB	014H
	DB	0faH
	DB	011H
	DB	015H
	DB	015H
	DB	011H
	DB	0fH
	DB	0cH
	DB	09H
	DB	06H
	DB	02H
	DB	03H
	DB	03H
	DB	01H
	DB	07H
	DB	01H
	DB	0bH
	DB	0bH
	DB	01H
	DB	07H
	DB	07H
	DB	07H
	DB	07H
	DB	07H
	DB	07H
	DB	07H
	DB	07H
	DB	07H
	DB	07H
	DB	07H
	DB	07H
	DB	07H
	DB	07H
	DB	01H
	DB	02H
	DB	08H
	DB	08H
	DB	08H
	DB	06H
	DB	06H
	DB	0aH
	DB	0fH
	DB	011H
	DB	011H
	DB	011H
	DB	01bH
	DB	01dH
	DB	01fH
	DB	01fH
	DB	01fH
	DB	011H
	DB	05H
	DB	02H
	DB	07H
	DB	07H
	DB	07H
	DB	07H
	DB	07H
	DB	07H
	DB	07H
	DB	07H
	DB	07H
	DB	07H
	DB	07H
	DB	07H
	DB	07H
	DB	07H
	DB	07H
	DB	07H
	DB	01H
	DB	07H
	DB	07H
	DB	05bH
	DB	0dH
	DB	0dH
	DB	0dH
	DB	0dH
	DB	0dH
	DB	0dH
	DB	0dH
	DB	0dH
	DB	0dH
	DB	0dH
	DB	010H
	DB	03eH
	DB	07H
	DB	03H
	DB	0bH
	DB	01H
	DB	013H
	DB	0bH
	DB	03H
	DB	03H
	DB	036H
	DB	04H
	DB	04H
	DB	06H
	DB	01eH
	DB	01eH
	DB	01eH
	DB	05H
	DB	05H
	DB	05H
	DB	05H
	DB	02fH
	DB	02fH
	DB	012H
	DB	05H
	DB	01eH
	DB	06H
	DB	04H
	DB	036H
	DB	03H
	DB	03H
	DB	03H
	DB	03H
	DB	0bH
	DB	01H
	DB	01H
	DB	01H
	DB	01H
	DB	01H
	DB	01H
	DB	01H
	DB	01H
	DB	01H
	DB	01H
	DB	07H
	DB	01H
	DB	01H
	DB	01H
	DB	01H
	DB	01H
	DB	01H
	DB	01H
	DB	01H
	DB	01H
	DB	013H
	DB	01H
	DB	01H
	DB	01H
	DB	013H
	DB	07H
	DB	01H
	DB	02H
	DB	08H
	DB	012H
	DB	05H
	DB	05H
	DB	05H
	DB	012H
	DB	09H
	DB	09H
	DB	01eH
	DB	01H
	DB	07H
	DB	07H
	DB	07H
	DB	07H
	DB	07H
	DB	07H
	DB	07H
	DB	07H
	DB	07H
	DB	07H
	DB	07H
	DB	07H
	DB	07H
	DB	01H
	DB	05H
	DB	034H
	DB	05H
	DB	04H
	DB	0bH
	DB	01H
	DB	01H
	DB	07H
	DB	01H
	DB	01H
	DB	01H
	DB	01H
	DB	01H
	DB	0bH
	DB	013H
	DB	02H
	DB	02H
	DB	02H
	DB	02H
	DB	038H
	DB	06H
	DB	06H
	DB	04H
	DB	02H
	DB	02H
	DB	02H
	DB	02H
	DB	02H
	DB	02H
	DB	02H
	DB	04H
	DB	04H
	DB	04H
	DB	04H
	DB	06H
	DB	04H
	DB	036H
	DB	03H
	DB	0bH
	DB	01H
	DB	01H
	DB	01H
	DB	01H
	DB	01H
	DB	03H
	DB	04H
	DB	05H
	DB	05H
	DB	04H
	DB	02H
	DB	04H
	DB	06H
	DB	06H
	DB	0aH
	DB	0b2H
	DB	03dH
	DB	014H
	DB	014H
	DB	014H
	DB	03dH
	DB	08H
	DB	03H
	DB	01H
	DB	01H
	DB	0bH
	DB	02H
	DB	02H
	DB	036H
	DB	036H
	DB	04H
	DB	04H
	DB	04H
	DB	0bH
	DB	01H
	DB	01H
	DB	01H
	DB	01H
	DB	07H
	DB	07H
	DB	07H
	DB	07H
	DB	07H
	DB	07H
	DB	07H
	DB	07H
	DB	07H
	DB	07H
	DB	01H
	DB	013H
	DB	04H
	DB	08H
	DB	012H
	DB	05H
	DB	08H
	DB	04H
	DB	04H
	DB	06H
	DB	04H
	DB	02H
	DB	02H
	DB	08H
	DB	05H
	DB	06H
	DB	02H
	DB	04H
	DB	06H
	DB	03H
	DB	07H
	DB	07H
	DB	07H
	DB	07H
	DB	07H
	DB	07H
	DB	07H
	DB	07H
	DB	07H
	DB	07H
	DB	07H
	DB	07H
	DB	07H
	DB	07H
	DB	07H
	DB	07H
	DB	07H
	DB	07H
	DB	02cH
	DB	0dH
	DB	0dH
	DB	0dH
	DB	0dH
	DB	0dH
	DB	0dH
	DB	0dH
	DB	0dH
	DB	0dH
	DB	0dH
	DB	07cH
	DB	059H
	DB	01H
	DB	06H
	DB	03H
	DB	01H
	DB	01H
	DB	01H
	DB	01H
	DB	01H
	DB	0bH
	DB	0bH
	DB	03H
	DB	02H
	DB	036H
	DB	04H
	DB	01eH
	DB	01eH
	DB	05H
	DB	05H
	DB	026H
	DB	012H
	DB	026H
	DB	012H
	DB	05H
	DB	01eH
	DB	01eH
	DB	06H
	DB	042H
	DB	04H
	DB	036H
	DB	036H
	DB	036H
	DB	04H
	DB	036H
	DB	036H
	DB	036H
	DB	03H
	DB	03H
	DB	02H
	DB	03H
	DB	03H
	DB	03H
	DB	036H
	DB	04H
	DB	08H
	DB	08H
	DB	06H
	DB	06H
	DB	04H
	DB	04H
	DB	03H
	DB	03H
	DB	03H
	DB	0bH
	DB	01H
	DB	03H
	DB	02H
	DB	08H
	DB	05H
	DB	014H
	DB	033H
	DB	033H
	DB	09H
	DB	09H
	DB	09H
	DB	012H
	DB	05H
	DB	012H
	DB	09H
	DB	09H
	DB	012H
	DB	03H
	DB	01H
	DB	01H
	DB	07H
	DB	07H
	DB	07H
	DB	07H
	DB	07H
	DB	07H
	DB	01H
	DB	01H
	DB	01H
	DB	01H
	DB	01H
	DB	08H
	DB	033H
	DB	09H
	DB	068H
	DB	05H
	DB	04H
	DB	0bH
	DB	01H
	DB	01H
	DB	07H
	DB	01H
	DB	01H
	DB	01H
	DB	013H
	DB	013H
	DB	03H
	DB	03H
	DB	03H
	DB	02H
	DB	04H
	DB	06H
	DB	02H
	DB	02H
	DB	02H
	DB	02H
	DB	03H
	DB	0bH
	DB	03H
	DB	03H
	DB	03H
	DB	02H
	DB	02H
	DB	02H
	DB	02H
	DB	02H
	DB	02H
	DB	02H
	DB	036H
	DB	036H
	DB	036H
	DB	02H
	DB	03H
	DB	036H
	DB	04H
	DB	01eH
	DB	01eH
	DB	05H
	DB	05H
	DB	04H
	DB	02H
	DB	03H
	DB	03H
	DB	04H
	DB	05H
	DB	0aH
	DB	012H
	DB	05H
	DB	05H
	DB	08H
	DB	04H
	DB	03H
	DB	03H
	DB	0bH
	DB	0bH
	DB	04H
	DB	012H
	DB	012H
	DB	012H
	DB	012H
	DB	05H
	DB	05H
	DB	01eH
	DB	06H
	DB	04H
	DB	03H
	DB	03H
	DB	03H
	DB	0bH
	DB	07H
	DB	07H
	DB	07H
	DB	07H
	DB	07H
	DB	01H
	DB	01H
	DB	01H
	DB	01H
	DB	01H
	DB	01H
	DB	01H
	DB	01H
	DB	02H
	DB	02H
	DB	04H
	DB	02H
	DB	02H
	DB	02H
	DB	02H
	DB	03H
	DB	03H
	DB	04H
	DB	06H
	DB	06H
	DB	02H
	DB	04H
	DB	02H
	DB	04H
	DB	04H
	DB	0bH
	DB	01H
	DB	01H
	DB	01H
	DB	0bH
	DB	03H
	DB	02H
	DB	02H
	DB	069H
	DB	013H
	DB	01H
	DB	01H
	DB	01H
	DB	01H
	DB	07H
	DB	07H
	DB	07H
	DB	0c3H
	DB	0dH
	DB	0dH
	DB	0dH
	DB	0dH
	DB	0dH
	DB	0dH
	DB	0dH
	DB	0dH
	DB	0dH
	DB	0dH
	DB	01cH
	DB	03eH
	DB	05H
	DB	012H
	DB	06H
	DB	013H
	DB	01H
	DB	01H
	DB	01H
	DB	01H
	DB	01H
	DB	01H
	DB	01H
	DB	013H
	DB	0bH
	DB	0bH
	DB	03H
	DB	02H
	DB	04H
	DB	06H
	DB	06H
	DB	05H
	DB	05H
	DB	05H
	DB	01eH
	DB	06H
	DB	06H
	DB	01eH
	DB	042H
	DB	042H
	DB	01eH
	DB	01eH
	DB	04H
	DB	01eH
	DB	01eH
	DB	01eH
	DB	01eH
	DB	01eH
	DB	01eH
	DB	01eH
	DB	01eH
	DB	01eH
	DB	05H
	DB	09H
	DB	0fH
	DB	0fH
	DB	0fH
	DB	0fH
	DB	011H
	DB	011H
	DB	041H
	DB	015H
	DB	0cH
	DB	0aH
	DB	0aH
	DB	0cH
	DB	015H
	DB	015H
	DB	011H
	DB	011H
	DB	0fH
	DB	014H
	DB	026H
	DB	026H
	DB	014H
	DB	014H
	DB	09H
	DB	02fH
	DB	02fH
	DB	09H
	DB	09H
	DB	09H
	DB	012H
	DB	04H
	DB	04H
	DB	04H
	DB	036H
	DB	03H
	DB	0bH
	DB	03H
	DB	0bH
	DB	0bH
	DB	0bH
	DB	01H
	DB	0bH
	DB	0bH
	DB	03H
	DB	05H
	DB	02fH
	DB	0aH
	DB	0aH
	DB	034H
	DB	01eH
	DB	02H
	DB	013H
	DB	01H
	DB	01H
	DB	01H
	DB	01H
	DB	01H
	DB	0bH
	DB	013H
	DB	03H
	DB	02H
	DB	02H
	DB	02H
	DB	038H
	DB	02H
	DB	02H
	DB	03H
	DB	03H
	DB	0bH
	DB	0bH
	DB	03H
	DB	03H
	DB	03H
	DB	03H
	DB	03H
	DB	03H
	DB	03H
	DB	03H
	DB	03H
	DB	02H
	DB	02H
	DB	036H
	DB	036H
	DB	02H
	DB	03H
	DB	02H
	DB	04H
	DB	04H
	DB	04H
	DB	06H
	DB	04H
	DB	02H
	DB	03H
	DB	013H
	DB	03H
	DB	02H
	DB	04H
	DB	05H
	DB	0aH
	DB	02fH
	DB	05H
	DB	08H
	DB	02H
	DB	02H
	DB	02H
	DB	04H
	DB	06H
	DB	012H
	DB	02fH
	DB	0aH
	DB	026H
	DB	05H
	DB	01eH
	DB	06H
	DB	01eH
	DB	01eH
	DB	042H
	DB	04H
	DB	04H
	DB	036H
	DB	04H
	DB	02H
	DB	01H
	DB	07H
	DB	01H
	DB	07H
	DB	07H
	DB	07H
	DB	07H
	DB	01H
	DB	01H
	DB	01H
	DB	07H
	DB	07H
	DB	07H
	DB	07H
	DB	07H
	DB	07H
	DB	07H
	DB	01H
	DB	01H
	DB	02H
	DB	02H
	DB	04H
	DB	06H
	DB	06H
	DB	04H
	DB	02H
	DB	04H
	DB	04H
	DB	05H
	DB	02fH
	DB	04H
	DB	03H
	DB	06H
	DB	02fH
	DB	09H
	DB	033H
	DB	011H
	DB	041H
	DB	011H
	DB	0fH
	DB	033H
	DB	09H
	DB	09H
	DB	026H
	DB	05H
	DB	02H
	DB	024H
	DB	0dH
	DB	0dH
	DB	0dH
	DB	0dH
	DB	0dH
	DB	0dH
	DB	0dH
	DB	0dH
	DB	0dH
	DB	0dH
	DB	06aH
	DB	066H
	DB	09H
	DB	0aH
	DB	01eH
	DB	04H
	DB	03H
	DB	0bH
	DB	01H
	DB	0bH
	DB	0bH
	DB	01H
	DB	01H
	DB	01H
	DB	01H
	DB	01H
	DB	01H
	DB	07H
	DB	07H
	DB	01H
	DB	0bH
	DB	0bH
	DB	03H
	DB	06H
	DB	05H
	DB	05H
	DB	05H
	DB	0d6H
	DB	01eH
	DB	01eH
	DB	01eH
	DB	05H
	DB	05H
	DB	05H
	DB	02fH
	DB	026H
	DB	026H
	DB	02fH
	DB	0aH
	DB	09H
	DB	014H
	DB	0fH
	DB	015H
	DB	015H
	DB	01bH
	DB	01bH
	DB	016H
	DB	016H
	DB	016H
	DB	030H
	DB	0f9H
	DB	01bH
	DB	011H
	DB	0cH
	DB	03dH
	DB	012H
	DB	05H
	DB	08H
	DB	06H
	DB	02H
	DB	013H
	DB	07H
	DB	07H
	DB	01H
	DB	013H
	DB	02H
	DB	04H
	DB	06H
	DB	01eH
	DB	09H
	DB	033H
	DB	014H
	DB	014H
	DB	09H
	DB	0aH
	DB	02fH
	DB	05H
	DB	05H
	DB	01eH
	DB	04H
	DB	04H
	DB	036H
	DB	036H
	DB	03H
	DB	0bH
	DB	03H
	DB	02H
	DB	04H
	DB	012H
	DB	05H
	DB	012H
	DB	0aH
	DB	0aH
	DB	05H
	DB	06H
	DB	02H
	DB	0bH
	DB	01H
	DB	01H
	DB	0bH
	DB	013H
	DB	03H
	DB	02H
	DB	04H
	DB	04H
	DB	02H
	DB	02H
	DB	02H
	DB	03H
	DB	02H
	DB	03H
	DB	0bH
	DB	013H
	DB	013H
	DB	0bH
	DB	013H
	DB	013H
	DB	013H
	DB	0bH
	DB	0bH
	DB	0bH
	DB	013H
	DB	02H
	DB	02H
	DB	03H
	DB	03H
	DB	03H
	DB	03H
	DB	02H
	DB	02H
	DB	02H
	DB	02H
	DB	02H
	DB	03H
	DB	01H
	DB	013H
	DB	04H
	DB	06H
	DB	02H
	DB	04H
	DB	04H
	DB	08H
	DB	0aH
	DB	05H
	DB	04H
	DB	02H
	DB	04H
	DB	06H
	DB	06H
	DB	05H
	DB	012H
	DB	02fH
	DB	0aH
	DB	05H
	DB	08H
	DB	06H
	DB	04H
	DB	04H
	DB	042H
	DB	042H
	DB	04H
	DB	04H
	DB	04H
	DB	04H
	DB	06H
	DB	03H
	DB	01H
	DB	07H
	DB	01H
	DB	07H
	DB	07H
	DB	07H
	DB	01H
	DB	01H
	DB	01H
	DB	07H
	DB	07H
	DB	07H
	DB	07H
	DB	07H
	DB	07H
	DB	07H
	DB	07H
	DB	07H
	DB	02H
	DB	06H
	DB	02H
	DB	02H
	DB	06H
	DB	02H
	DB	02H
	DB	06H
	DB	01eH
	DB	05H
	DB	02fH
	DB	02fH
	DB	05H
	DB	034H
	DB	034H
	DB	02fH
	DB	09H
	DB	014H
	DB	0fH
	DB	016H
	DB	0f9H
	DB	0f9H
	DB	0f9H
	DB	016H
	DB	016H
	DB	01bH
	DB	08cH
	DB	024H
	DB	0dH
	DB	0dH
	DB	0dH
	DB	0dH
	DB	0dH
	DB	0dH
	DB	0dH
	DB	0dH
	DB	0dH
	DB	0dH
	DB	0b9H
	DB	059H
	DB	08H
	DB	012H
	DB	05H
	DB	06H
	DB	02H
	DB	03H
	DB	0bH
	DB	0bH
	DB	03H
	DB	0bH
	DB	0bH
	DB	01H
	DB	0bH
	DB	0bH
	DB	0bH
	DB	0bH
	DB	0bH
	DB	01H
	DB	0bH
	DB	0bH
	DB	013H
	DB	02H
	DB	026H
	DB	09H
	DB	09H
	DB	0aH
	DB	05H
	DB	05H
	DB	08H
	DB	05H
	DB	026H
	DB	026H
	DB	0aH
	DB	09H
	DB	014H
	DB	0cH
	DB	0fH
	DB	015H
	DB	016H
	DB	016H
	DB	016H
	DB	01bH
	DB	015H
	DB	011H
	DB	0cH
	DB	03dH
	DB	0aH
	DB	08H
	DB	02H
	DB	013H
	DB	013H
	DB	013H
	DB	013H
	DB	0bH
	DB	01H
	DB	01H
	DB	01H
	DB	01H
	DB	01H
	DB	01H
	DB	01H
	DB	07H
	DB	07H
	DB	07H
	DB	07H
	DB	07H
	DB	01H
	DB	013H
	DB	08H
	DB	0fH
	DB	011H
	DB	033H
	DB	014H
	DB	014H
	DB	014H
	DB	014H
	DB	014H
	DB	0aH
	DB	05H
	DB	01eH
	DB	04H
	DB	036H
	DB	02H
	DB	03H
	DB	03H
	DB	02H
	DB	012H
	DB	0aH
	DB	05H
	DB	012H
	DB	026H
	DB	02fH
	DB	068H
	DB	05H
	DB	06H
	DB	02H
	DB	013H
	DB	01H
	DB	013H
	DB	0bH
	DB	02H
	DB	04H
	DB	06H
	DB	04H
	DB	02H
	DB	02H
	DB	02H
	DB	03H
	DB	013H
	DB	0bH
	DB	0bH
	DB	0bH
	DB	013H
	DB	013H
	DB	013H
	DB	0bH
	DB	03H
	DB	0bH
	DB	0bH
	DB	03H
	DB	0bH
	DB	03H
	DB	02H
	DB	036H
	DB	02H
	DB	036H
	DB	03H
	DB	03H
	DB	02H
	DB	02H
	DB	013H
	DB	013H
	DB	02H
	DB	05H
	DB	05H
	DB	04H
	DB	04H
	DB	04H
	DB	04H
	DB	04H
	DB	08H
	DB	05H
	DB	05H
	DB	012H
	DB	05H
	DB	01eH
	DB	05H
	DB	012H
	DB	0aH
	DB	026H
	DB	012H
	DB	05H
	DB	08H
	DB	06H
	DB	04H
	DB	04H
	DB	042H
	DB	042H
	DB	04H
	DB	04H
	DB	036H
	DB	036H
	DB	06H
	DB	06H
	DB	0bH
	DB	07H
	DB	07H
	DB	07H
	DB	07H
	DB	01H
	DB	01H
	DB	01H
	DB	01H
	DB	01H
	DB	07H
	DB	07H
	DB	07H
	DB	07H
	DB	07H
	DB	07H
	DB	01H
	DB	0bH
	DB	03H
	DB	02H
	DB	03H
	DB	0bH
	DB	02H
	DB	04H
	DB	0aH
	DB	0fH
	DB	011H
	DB	014H
	DB	08H
	DB	03H
	DB	013H
	DB	01H
	DB	0bH
	DB	0bH
	DB	02H
	DB	04H
	DB	06H
	DB	026H
	DB	033H
	DB	041H
	DB	01bH
	DB	01bH
	DB	01bH
	DB	01bH
	DB	0faH
	DB	097H
	DB	0dH
	DB	0dH
	DB	0dH
	DB	0dH
	DB	0dH
	DB	0dH
	DB	0dH
	DB	0dH
	DB	0dH
	DB	0dH
	DB	06aH
	DB	032H
	DB	04H
	DB	0aH
	DB	012H
	DB	06H
	DB	03H
	DB	03H
	DB	036H
	DB	03H
	DB	03H
	DB	03H
	DB	03H
	DB	03H
	DB	03H
	DB	03H
	DB	02H
	DB	04H
	DB	06H
	DB	06H
	DB	06H
	DB	06H
	DB	08H
	DB	06H
	DB	012H
	DB	09H
	DB	09H
	DB	09H
	DB	09H
	DB	0aH
	DB	08H
	DB	06H
	DB	01eH
	DB	05H
	DB	09H
	DB	014H
	DB	033H
	DB	0fH
	DB	0cH
	DB	0cH
	DB	0cH
	DB	0cH
	DB	09H
	DB	0aH
	DB	05H
	DB	06H
	DB	04H
	DB	03H
	DB	01H
	DB	01H
	DB	07H
	DB	07H
	DB	07H
	DB	01H
	DB	01H
	DB	01H
	DB	01H
	DB	01H
	DB	01H
	DB	01H
	DB	01H
	DB	01H
	DB	01H
	DB	01H
	DB	01H
	DB	01H
	DB	07H
	DB	07H
	DB	07H
	DB	07H
	DB	01H
	DB	02H
	DB	0aH
	DB	011H
	DB	0fH
	DB	0cH
	DB	0cH
	DB	014H
	DB	033H
	DB	014H
	DB	068H
	DB	05H
	DB	01eH
	DB	04H
	DB	03H
	DB	01H
	DB	0bH
	DB	013H
	DB	06H
	DB	0aH
	DB	0aH
	DB	026H
	DB	012H
	DB	012H
	DB	012H
	DB	0aH
	DB	05H
	DB	08H
	DB	04H
	DB	02H
	DB	0bH
	DB	0bH
	DB	03H
	DB	04H
	DB	02H
	DB	03H
	DB	069H
	DB	013H
	DB	013H
	DB	013H
	DB	013H
	DB	01H
	DB	01H
	DB	0bH
	DB	0bH
	DB	013H
	DB	0bH
	DB	013H
	DB	013H
	DB	0bH
	DB	03H
	DB	03H
	DB	03H
	DB	03H
	DB	036H
	DB	036H
	DB	036H
	DB	04H
	DB	04H
	DB	03H
	DB	013H
	DB	013H
	DB	03H
	DB	08H
	DB	012H
	DB	05H
	DB	06H
	DB	04H
	DB	02H
	DB	02H
	DB	02H
	DB	02H
	DB	02H
	DB	08H
	DB	011H
	DB	0fH
	DB	0aH
	DB	05H
	DB	012H
	DB	012H
	DB	05H
	DB	05H
	DB	05H
	DB	05H
	DB	05H
	DB	08H
	DB	08H
	DB	06H
	DB	06H
	DB	04H
	DB	04H
	DB	04H
	DB	04H
	DB	036H
	DB	04H
	DB	06H
	DB	04H
	DB	0bH
	DB	07H
	DB	07H
	DB	01H
	DB	01H
	DB	01H
	DB	07H
	DB	07H
	DB	07H
	DB	07H
	DB	07H
	DB	07H
	DB	07H
	DB	01H
	DB	01H
	DB	01H
	DB	013H
	DB	0bH
	DB	02H
	DB	02H
	DB	04H
	DB	0aH
	DB	015H
	DB	0f9H
	DB	016H
	DB	01bH
	DB	015H
	DB	01bH
	DB	0fH
	DB	08H
	DB	01H
	DB	07H
	DB	07H
	DB	07H
	DB	07H
	DB	07H
	DB	07H
	DB	01H
	DB	02H
	DB	0aH
	DB	011H
	DB	041H
	DB	01bH
	DB	0faH
	DB	080H
	DB	0dH
	DB	0dH
	DB	0dH
	DB	0dH
	DB	0dH
	DB	0dH
	DB	0dH
	DB	0dH
	DB	0dH
	DB	0dH
	DB	0b9H
	DB	0d3H
	DB	036H
	DB	012H
	DB	05H
	DB	05H
	DB	04H
	DB	02H
	DB	03H
	DB	03H
	DB	03H
	DB	03H
	DB	02H
	DB	02H
	DB	03H
	DB	03H
	DB	036H
	DB	04H
	DB	01eH
	DB	08H
	DB	08H
	DB	05H
	DB	012H
	DB	05H
	DB	05H
	DB	09H
	DB	014H
	DB	09H
	DB	014H
	DB	014H
	DB	09H
	DB	05H
	DB	08H
	DB	05H
	DB	05H
	DB	05H
	DB	02fH
	DB	02fH
	DB	08H
	DB	08H
	DB	06H
	DB	06H
	DB	06H
	DB	02H
	DB	03H
	DB	01H
	DB	01H
	DB	01H
	DB	07H
	DB	07H
	DB	01H
	DB	07H
	DB	07H
	DB	01H
	DB	01H
	DB	01H
	DB	01H
	DB	07H
	DB	07H
	DB	07H
	DB	07H
	DB	01H
	DB	01H
	DB	01H
	DB	07H
	DB	07H
	DB	01H
	DB	01H
	DB	01H
	DB	0bH
	DB	01H
	DB	01H
	DB	01H
	DB	04H
	DB	012H
	DB	0aH
	DB	012H
	DB	012H
	DB	026H
	DB	09H
	DB	068H
	DB	02fH
	DB	05H
	DB	04H
	DB	04H
	DB	0bH
	DB	01H
	DB	01H
	DB	013H
	DB	05H
	DB	0aH
	DB	012H
	DB	05H
	DB	012H
	DB	012H
	DB	012H
	DB	012H
	DB	0aH
	DB	012H
	DB	08H
	DB	04H
	DB	013H
	DB	0bH
	DB	0bH
	DB	013H
	DB	03H
	DB	013H
	DB	01H
	DB	01H
	DB	01H
	DB	01H
	DB	01H
	DB	013H
	DB	013H
	DB	013H
	DB	013H
	DB	03H
	DB	03H
	DB	02H
	DB	02H
	DB	04H
	DB	036H
	DB	04H
	DB	04H
	DB	036H
	DB	04H
	DB	06H
	DB	06H
	DB	01eH
	DB	08H
	DB	06H
	DB	04H
	DB	03H
	DB	02H
	DB	04H
	DB	04H
	DB	02H
	DB	02H
	DB	02H
	DB	04H
	DB	06H
	DB	06H
	DB	08H
	DB	05H
	DB	012H
	DB	0cH
	DB	0cH
	DB	0aH
	DB	09H
	DB	012H
	DB	05H
	DB	05H
	DB	05H
	DB	05H
	DB	012H
	DB	05H
	DB	05H
	DB	08H
	DB	06H
	DB	06H
	DB	04H
	DB	04H
	DB	04H
	DB	04H
	DB	04H
	DB	01eH
	DB	05H
	DB	042H
	DB	0bH
	DB	01H
	DB	01H
	DB	01H
	DB	07H
	DB	07H
	DB	07H
	DB	07H
	DB	07H
	DB	07H
	DB	07H
	DB	07H
	DB	07H
	DB	01H
	DB	01H
	DB	01H
	DB	01H
	DB	03H
	DB	08H
	DB	0aH
	DB	09H
	DB	015H
	DB	011H
	DB	0fH
	DB	0cH
	DB	09H
	DB	09H
	DB	011H
	DB	01bH
	DB	014H
	DB	04H
	DB	07H
	DB	07H
	DB	07H
	DB	07H
	DB	07H
	DB	07H
	DB	07H
	DB	07H
	DB	01H
	DB	06H
	DB	09H
	DB	0faH
	DB	098H
	DB	0dH
	DB	0dH
	DB	0dH
	DB	0dH
	DB	0dH
	DB	0dH
	DB	0dH
	DB	0dH
	DB	0dH
	DB	0dH
	DB	092H
	DB	087H
	DB	03H
	DB	08H
	DB	08H
	DB	06H
	DB	04H
	DB	02H
	DB	0bH
	DB	03H
	DB	03H
	DB	03H
	DB	03H
	DB	03H
	DB	02H
	DB	02H
	DB	03H
	DB	04H
	DB	06H
	DB	06H
	DB	08H
	DB	05H
	DB	05H
	DB	05H
	DB	06H
	DB	08H
	DB	09H
	DB	09H
	DB	09H
	DB	09H
	DB	09H
	DB	09H
	DB	05H
	DB	08H
	DB	06H
	DB	04H
	DB	04H
	DB	04H
	DB	06H
	DB	06H
	DB	04H
	DB	02H
	DB	04H
	DB	02H
	DB	013H
	DB	01H
	DB	07H
	DB	07H
	DB	07H
	DB	07H
	DB	07H
	DB	07H
	DB	07H
	DB	07H
	DB	01H
	DB	01H
	DB	07H
	DB	01H
	DB	01H
	DB	01H
	DB	01H
	DB	01H
	DB	07H
	DB	07H
	DB	07H
	DB	01H
	DB	01H
	DB	01H
	DB	01H
	DB	01H
	DB	0bH
	DB	0bH
	DB	01H
	DB	01H
	DB	0bH
	DB	04H
	DB	04H
	DB	036H
	DB	03H
	DB	02H
	DB	04H
	DB	06H
	DB	05H
	DB	06H
	DB	04H
	DB	03H
	DB	03H
	DB	0bH
	DB	07H
	DB	03H
	DB	0aH
	DB	0aH
	DB	0aH
	DB	09H
	DB	09H
	DB	09H
	DB	09H
	DB	09H
	DB	09H
	DB	09H
	DB	012H
	DB	08H
	DB	02H
	DB	013H
	DB	01H
	DB	03H
	DB	04H
	DB	04H
	DB	03H
	DB	02H
	DB	04H
	DB	04H
	DB	04H
	DB	04H
	DB	04H
	DB	04H
	DB	04H
	DB	04H
	DB	04H
	DB	04H
	DB	04H
	DB	04H
	DB	04H
	DB	06H
	DB	06H
	DB	01eH
	DB	01eH
	DB	05H
	DB	05H
	DB	05H
	DB	05H
	DB	034H
	DB	08H
	DB	02H
	DB	013H
	DB	02H
	DB	02H
	DB	02H
	DB	02H
	DB	02H
	DB	038H
	DB	06H
	DB	05H
	DB	05H
	DB	05H
	DB	08H
	DB	09H
	DB	0cH
	DB	014H
	DB	09H
	DB	0aH
	DB	0aH
	DB	05H
	DB	012H
	DB	05H
	DB	05H
	DB	08H
	DB	05H
	DB	08H
	DB	05H
	DB	01eH
	DB	01eH
	DB	06H
	DB	06H
	DB	06H
	DB	01eH
	DB	01eH
	DB	06H
	DB	02H
	DB	0bH
	DB	0bH
	DB	07H
	DB	07H
	DB	07H
	DB	07H
	DB	07H
	DB	07H
	DB	01H
	DB	07H
	DB	07H
	DB	07H
	DB	07H
	DB	01H
	DB	07H
	DB	07H
	DB	07H
	DB	01H
	DB	03H
	DB	02H
	DB	06H
	DB	08H
	DB	0aH
	DB	09H
	DB	09H
	DB	014H
	DB	011H
	DB	011H
	DB	0fH
	DB	033H
	DB	01eH
	DB	07H
	DB	07H
	DB	07H
	DB	07H
	DB	07H
	DB	07H
	DB	07H
	DB	07H
	DB	07H
	DB	07H
	DB	0fcH
	DB	06bH
	DB	0dH
	DB	0dH
	DB	0dH
	DB	0dH
	DB	0dH
	DB	0dH
	DB	0dH
	DB	0dH
	DB	0dH
	DB	0dH
	DB	092H
	DB	088H
	DB	0bH
	DB	06H
	DB	04H
	DB	038H
	DB	06H
	DB	06H
	DB	036H
	DB	0bH
	DB	0bH
	DB	0bH
	DB	03H
	DB	03H
	DB	02H
	DB	02H
	DB	04H
	DB	04H
	DB	04H
	DB	04H
	DB	04H
	DB	06H
	DB	04H
	DB	04H
	DB	04H
	DB	04H
	DB	05H
	DB	0aH
	DB	09H
	DB	09H
	DB	09H
	DB	09H
	DB	05H
	DB	06H
	DB	02H
	DB	02H
	DB	04H
	DB	04H
	DB	06H
	DB	06H
	DB	08H
	DB	06H
	DB	04H
	DB	06H
	DB	08H
	DB	06H
	DB	02H
	DB	03H
	DB	0bH
	DB	01H
	DB	01H
	DB	07H
	DB	07H
	DB	07H
	DB	07H
	DB	07H
	DB	01H
	DB	01H
	DB	01H
	DB	01H
	DB	01H
	DB	01H
	DB	01H
	DB	01H
	DB	01H
	DB	01H
	DB	01H
	DB	01H
	DB	01H
	DB	01H
	DB	01H
	DB	01H
	DB	01H
	DB	013H
	DB	013H
	DB	03H
	DB	02H
	DB	03H
	DB	0bH
	DB	01H
	DB	01H
	DB	07H
	DB	07H
	DB	01H
	DB	0bH
	DB	04H
	DB	01eH
	DB	06H
	DB	04H
	DB	03H
	DB	08H
	DB	0cH
	DB	014H
	DB	09H
	DB	09H
	DB	09H
	DB	014H
	DB	09H
	DB	09H
	DB	014H
	DB	0cH
	DB	0fH
	DB	014H
	DB	012H
	DB	05H
	DB	08H
	DB	06H
	DB	06H
	DB	012H
	DB	012H
	DB	012H
	DB	05H
	DB	05H
	DB	08H
	DB	06H
	DB	06H
	DB	06H
	DB	06H
	DB	04H
	DB	02H
	DB	02H
	DB	03H
	DB	02H
	DB	04H
	DB	036H
	DB	04H
	DB	02H
	DB	04H
	DB	02H
	DB	04H
	DB	04H
	DB	02H
	DB	03H
	DB	02H
	DB	03H
	DB	02H
	DB	04H
	DB	04H
	DB	04H
	DB	04H
	DB	02H
	DB	02H
	DB	04H
	DB	06H
	DB	08H
	DB	06H
	DB	04H
	DB	0aH
	DB	0cH
	DB	0cH
	DB	09H
	DB	09H
	DB	0aH
	DB	05H
	DB	05H
	DB	08H
	DB	08H
	DB	05H
	DB	05H
	DB	01eH
	DB	08H
	DB	08H
	DB	08H
	DB	06H
	DB	01eH
	DB	06H
	DB	04H
	DB	0bH
	DB	0bH
	DB	0bH
	DB	01H
	DB	07H
	DB	07H
	DB	07H
	DB	07H
	DB	01H
	DB	01H
	DB	01H
	DB	01H
	DB	07H
	DB	07H
	DB	07H
	DB	07H
	DB	07H
	DB	07H
	DB	07H
	DB	07H
	DB	01H
	DB	01H
	DB	0bH
	DB	02H
	DB	06H
	DB	08H
	DB	09H
	DB	011H
	DB	011H
	DB	0fH
	DB	033H
	DB	0fH
	DB	033H
	DB	06H
	DB	01H
	DB	07H
	DB	07H
	DB	07H
	DB	07H
	DB	07H
	DB	07H
	DB	07H
	DB	07H
	DB	0fcH
	DB	024H
	DB	0dH
	DB	0dH
	DB	0dH
	DB	0dH
	DB	0dH
	DB	0dH
	DB	0dH
	DB	0dH
	DB	0dH
	DB	0dH
	DB	022H
	DB	0afH
	DB	01H
	DB	04H
	DB	02H
	DB	02H
	DB	02H
	DB	036H
	DB	036H
	DB	036H
	DB	03H
	DB	03H
	DB	036H
	DB	03H
	DB	03H
	DB	03H
	DB	02H
	DB	02H
	DB	02H
	DB	02H
	DB	02H
	DB	02H
	DB	03H
	DB	02H
	DB	02H
	DB	02H
	DB	06H
	DB	0aH
	DB	0aH
	DB	09H
	DB	014H
	DB	0cH
	DB	014H
	DB	014H
	DB	0aH
	DB	012H
	DB	026H
	DB	0aH
	DB	05H
	DB	08H
	DB	08H
	DB	06H
	DB	04H
	DB	04H
	DB	04H
	DB	06H
	DB	06H
	DB	06H
	DB	04H
	DB	04H
	DB	04H
	DB	02H
	DB	03H
	DB	0bH
	DB	01H
	DB	01H
	DB	01H
	DB	01H
	DB	01H
	DB	07H
	DB	01H
	DB	01H
	DB	01H
	DB	01H
	DB	01H
	DB	01H
	DB	01H
	DB	01H
	DB	01H
	DB	01H
	DB	01H
	DB	01H
	DB	01H
	DB	01H
	DB	01H
	DB	0bH
	DB	0bH
	DB	0bH
	DB	01H
	DB	01H
	DB	07H
	DB	07H
	DB	07H
	DB	07H
	DB	03H
	DB	04H
	DB	04H
	DB	04H
	DB	06H
	DB	04H
	DB	04H
	DB	05H
	DB	09H
	DB	014H
	DB	09H
	DB	09H
	DB	09H
	DB	0cH
	DB	0cH
	DB	014H
	DB	0cH
	DB	014H
	DB	0fH
	DB	0fH
	DB	0fH
	DB	0fH
	DB	0fH
	DB	0fH
	DB	0fH
	DB	014H
	DB	09H
	DB	0aH
	DB	012H
	DB	05H
	DB	05H
	DB	06H
	DB	06H
	DB	06H
	DB	06H
	DB	04H
	DB	04H
	DB	04H
	DB	06H
	DB	08H
	DB	04H
	DB	02H
	DB	02H
	DB	02H
	DB	03H
	DB	03H
	DB	0bH
	DB	01H
	DB	013H
	DB	013H
	DB	0bH
	DB	03H
	DB	04H
	DB	08H
	DB	05H
	DB	012H
	DB	05H
	DB	06H
	DB	04H
	DB	04H
	DB	02H
	DB	06H
	DB	08H
	DB	08H
	DB	0aH
	DB	0fH
	DB	011H
	DB	0fH
	DB	0aH
	DB	05H
	DB	05H
	DB	05H
	DB	012H
	DB	05H
	DB	05H
	DB	08H
	DB	06H
	DB	06H
	DB	08H
	DB	01eH
	DB	01eH
	DB	04H
	DB	03H
	DB	0bH
	DB	01H
	DB	01H
	DB	07H
	DB	07H
	DB	07H
	DB	01H
	DB	03H
	DB	03H
	DB	0bH
	DB	01H
	DB	01H
	DB	01H
	DB	01H
	DB	07H
	DB	07H
	DB	07H
	DB	07H
	DB	07H
	DB	07H
	DB	07H
	DB	07H
	DB	07H
	DB	07H
	DB	01H
	DB	013H
	DB	06H
	DB	0aH
	DB	0cH
	DB	0fH
	DB	0fH
	DB	033H
	DB	0fH
	DB	033H
	DB	06H
	DB	01H
	DB	01H
	DB	01H
	DB	07H
	DB	07H
	DB	07H
	DB	07H
	DB	07H
	DB	048H
	DB	027H
	DB	0dH
	DB	0dH
	DB	0dH
	DB	0dH
	DB	0dH
	DB	0dH
	DB	0dH
	DB	0dH
	DB	0dH
	DB	078H
	DB	06aH
	DB	076H
	DB	01H
	DB	04H
	DB	06H
	DB	04H
	DB	04H
	DB	04H
	DB	04H
	DB	036H
	DB	036H
	DB	036H
	DB	036H
	DB	02H
	DB	03H
	DB	03H
	DB	02H
	DB	03H
	DB	03H
	DB	02H
	DB	02H
	DB	03H
	DB	03H
	DB	02H
	DB	03H
	DB	02H
	DB	02H
	DB	08H
	DB	026H
	DB	0aH
	DB	0aH
	DB	09H
	DB	014H
	DB	0cH
	DB	0cH
	DB	09H
	DB	0aH
	DB	05H
	DB	08H
	DB	08H
	DB	06H
	DB	04H
	DB	02H
	DB	02H
	DB	02H
	DB	02H
	DB	02H
	DB	02H
	DB	02H
	DB	036H
	DB	036H
	DB	02H
	DB	03H
	DB	02H
	DB	02H
	DB	02H
	DB	02H
	DB	02H
	DB	03H
	DB	0bH
	DB	0bH
	DB	0bH
	DB	03H
	DB	03H
	DB	03H
	DB	03H
	DB	03H
	DB	013H
	DB	01H
	DB	01H
	DB	01H
	DB	01H
	DB	01H
	DB	01H
	DB	01H
	DB	01H
	DB	013H
	DB	0bH
	DB	01H
	DB	01H
	DB	01H
	DB	01H
	DB	0bH
	DB	0bH
	DB	01H
	DB	07H
	DB	07H
	DB	01H
	DB	01H
	DB	01H
	DB	013H
	DB	03H
	DB	06H
	DB	012H
	DB	09H
	DB	09H
	DB	09H
	DB	014H
	DB	0cH
	DB	0cH
	DB	09H
	DB	05H
	DB	0aH
	DB	08H
	DB	02H
	DB	04H
	DB	0aH
	DB	03dH
	DB	03dH
	DB	014H
	DB	09H
	DB	09H
	DB	0aH
	DB	05H
	DB	05H
	DB	08H
	DB	04H
	DB	04H
	DB	04H
	DB	04H
	DB	04H
	DB	04H
	DB	04H
	DB	06H
	DB	08H
	DB	01eH
	DB	06H
	DB	06H
	DB	04H
	DB	02H
	DB	0bH
	DB	03H
	DB	02H
	DB	04H
	DB	06H
	DB	06H
	DB	06H
	DB	08H
	DB	0aH
	DB	0aH
	DB	08H
	DB	04H
	DB	04H
	DB	038H
	DB	02H
	DB	02H
	DB	0aH
	DB	014H
	DB	09H
	DB	09H
	DB	014H
	DB	0cH
	DB	09H
	DB	012H
	DB	08H
	DB	05H
	DB	05H
	DB	05H
	DB	05H
	DB	05H
	DB	05H
	DB	08H
	DB	01eH
	DB	01eH
	DB	04H
	DB	02H
	DB	03H
	DB	03H
	DB	03H
	DB	03H
	DB	0bH
	DB	03H
	DB	036H
	DB	04H
	DB	036H
	DB	03H
	DB	03H
	DB	03H
	DB	03H
	DB	0bH
	DB	0bH
	DB	01H
	DB	07H
	DB	07H
	DB	07H
	DB	07H
	DB	07H
	DB	07H
	DB	07H
	DB	07H
	DB	07H
	DB	07H
	DB	01H
	DB	07H
	DB	01H
	DB	08H
	DB	014H
	DB	014H
	DB	033H
	DB	0fH
	DB	033H
	DB	09H
	DB	06H
	DB	03H
	DB	0bH
	DB	01H
	DB	07H
	DB	07H
	DB	07H
	DB	07H
	DB	0b3H
	DB	0e0H
	DB	0dH
	DB	0dH
	DB	0dH
	DB	0dH
	DB	0dH
	DB	0dH
	DB	0dH
	DB	0dH
	DB	0dH
	DB	0eH
	DB	01cH
	DB	088H
	DB	07H
	DB	02H
	DB	04H
	DB	06H
	DB	06H
	DB	01eH
	DB	06H
	DB	04H
	DB	04H
	DB	04H
	DB	04H
	DB	036H
	DB	036H
	DB	03H
	DB	0bH
	DB	03H
	DB	036H
	DB	03H
	DB	013H
	DB	0bH
	DB	0bH
	DB	03H
	DB	03H
	DB	0bH
	DB	03H
	DB	02H
	DB	06H
	DB	08H
	DB	05H
	DB	08H
	DB	05H
	DB	05H
	DB	012H
	DB	05H
	DB	06H
	DB	06H
	DB	06H
	DB	06H
	DB	02H
	DB	02H
	DB	02H
	DB	02H
	DB	02H
	DB	03H
	DB	03H
	DB	0bH
	DB	013H
	DB	03H
	DB	0bH
	DB	0bH
	DB	0bH
	DB	0bH
	DB	013H
	DB	03H
	DB	02H
	DB	02H
	DB	03H
	DB	0bH
	DB	03H
	DB	03H
	DB	02H
	DB	04H
	DB	04H
	DB	04H
	DB	04H
	DB	036H
	DB	03H
	DB	013H
	DB	01H
	DB	01H
	DB	01H
	DB	01H
	DB	01H
	DB	01H
	DB	01H
	DB	0bH
	DB	0bH
	DB	01H
	DB	0bH
	DB	03H
	DB	03H
	DB	03H
	DB	03H
	DB	01H
	DB	01H
	DB	01H
	DB	01H
	DB	01H
	DB	01H
	DB	013H
	DB	02H
	DB	04H
	DB	06H
	DB	08H
	DB	05H
	DB	012H
	DB	0aH
	DB	0aH
	DB	05H
	DB	06H
	DB	0feH
	DB	07H
	DB	07H
	DB	07H
	DB	07H
	DB	013H
	DB	04H
	DB	05H
	DB	09H
	DB	09H
	DB	09H
	DB	012H
	DB	05H
	DB	08H
	DB	06H
	DB	04H
	DB	04H
	DB	04H
	DB	02H
	DB	02H
	DB	04H
	DB	01eH
	DB	01eH
	DB	01eH
	DB	06H
	DB	02H
	DB	06H
	DB	012H
	DB	09H
	DB	09H
	DB	012H
	DB	01eH
	DB	05H
	DB	026H
	DB	09H
	DB	03dH
	DB	05H
	DB	04H
	DB	04H
	DB	04H
	DB	02H
	DB	03H
	DB	013H
	DB	03H
	DB	08H
	DB	012H
	DB	08H
	DB	06H
	DB	04H
	DB	08H
	DB	09H
	DB	014H
	DB	09H
	DB	09H
	DB	0aH
	DB	012H
	DB	012H
	DB	012H
	DB	012H
	DB	012H
	DB	05H
	DB	01eH
	DB	04H
	DB	02H
	DB	03H
	DB	03H
	DB	036H
	DB	036H
	DB	04H
	DB	042H
	DB	042H
	DB	04H
	DB	04H
	DB	04H
	DB	04H
	DB	04H
	DB	02H
	DB	03H
	DB	03H
	DB	0bH
	DB	01H
	DB	07H
	DB	07H
	DB	07H
	DB	07H
	DB	07H
	DB	02H
	DB	02H
	DB	01H
	DB	07H
	DB	07H
	DB	01H
	DB	01H
	DB	0bH
	DB	06H
	DB	0fH
	DB	0fH
	DB	0fH
	DB	0fH
	DB	0fH
	DB	09H
	DB	01eH
	DB	04H
	DB	03H
	DB	0bH
	DB	07H
	DB	07H
	DB	07H
	DB	019H
	DB	09aH
	DB	0dH
	DB	0dH
	DB	0dH
	DB	0dH
	DB	0dH
	DB	0dH
	DB	0dH
	DB	0dH
	DB	0dH
	DB	0eH
	DB	092H
	DB	0afH
	DB	0bH
	DB	04H
	DB	06H
	DB	08H
	DB	01eH
	DB	01eH
	DB	01eH
	DB	04H
	DB	06H
	DB	01eH
	DB	042H
	DB	04H
	DB	04H
	DB	02H
	DB	03H
	DB	03H
	DB	03H
	DB	0bH
	DB	03H
	DB	0bH
	DB	0bH
	DB	03H
	DB	03H
	DB	0bH
	DB	013H
	DB	03H
	DB	02H
	DB	04H
	DB	06H
	DB	06H
	DB	06H
	DB	06H
	DB	06H
	DB	04H
	DB	02H
	DB	02H
	DB	02H
	DB	03H
	DB	013H
	DB	013H
	DB	013H
	DB	03H
	DB	013H
	DB	013H
	DB	013H
	DB	01H
	DB	01H
	DB	01H
	DB	01H
	DB	01H
	DB	01H
	DB	01H
	DB	013H
	DB	03H
	DB	03H
	DB	0bH
	DB	0bH
	DB	03H
	DB	03H
	DB	0bH
	DB	02H
	DB	036H
	DB	02H
	DB	02H
	DB	036H
	DB	036H
	DB	036H
	DB	04H
	DB	02H
	DB	03H
	DB	013H
	DB	01H
	DB	01H
	DB	07H
	DB	07H
	DB	01H
	DB	0bH
	DB	0bH
	DB	0bH
	DB	0bH
	DB	03H
	DB	03H
	DB	036H
	DB	03H
	DB	01H
	DB	01H
	DB	07H
	DB	01H
	DB	01H
	DB	013H
	DB	03H
	DB	02H
	DB	04H
	DB	04H
	DB	04H
	DB	04H
	DB	04H
	DB	02H
	DB	03H
	DB	07H
	DB	07H
	DB	07H
	DB	07H
	DB	07H
	DB	07H
	DB	07H
	DB	01H
	DB	03H
	DB	06H
	DB	08H
	DB	012H
	DB	012H
	DB	012H
	DB	012H
	DB	05H
	DB	08H
	DB	01eH
	DB	04H
	DB	036H
	DB	06H
	DB	08H
	DB	08H
	DB	08H
	DB	05H
	DB	0aH
	DB	0cH
	DB	015H
	DB	011H
	DB	0fH
	DB	011H
	DB	011H
	DB	0fH
	DB	0aH
	DB	08H
	DB	05H
	DB	06H
	DB	03H
	DB	02H
	DB	03H
	DB	013H
	DB	01H
	DB	07H
	DB	07H
	DB	07H
	DB	07H
	DB	01H
	DB	01H
	DB	03H
	DB	02H
	DB	02H
	DB	04H
	DB	012H
	DB	09H
	DB	09H
	DB	09H
	DB	0aH
	DB	0aH
	DB	0aH
	DB	026H
	DB	0aH
	DB	068H
	DB	08H
	DB	02H
	DB	02H
	DB	02H
	DB	04H
	DB	04H
	DB	04H
	DB	04H
	DB	06H
	DB	06H
	DB	04H
	DB	04H
	DB	04H
	DB	02H
	DB	036H
	DB	036H
	DB	036H
	DB	02H
	DB	036H
	DB	04H
	DB	04H
	DB	01eH
	DB	05H
	DB	026H
	DB	09H
	DB	05H
	DB	01H
	DB	07H
	DB	07H
	DB	07H
	DB	07H
	DB	07H
	DB	07H
	DB	01H
	DB	06H
	DB	0fH
	DB	011H
	DB	011H
	DB	011H
	DB	011H
	DB	09H
	DB	05H
	DB	01eH
	DB	04H
	DB	036H
	DB	0bH
	DB	07H
	DB	069H
	DB	0e3H
	DB	0dH
	DB	0dH
	DB	0dH
	DB	0dH
	DB	0dH
	DB	0dH
	DB	0dH
	DB	0dH
	DB	0dH
	DB	078H
	DB	080H
	DB	0afH
	DB	09H
	DB	09H
	DB	0aH
	DB	05H
	DB	08H
	DB	01eH
	DB	01eH
	DB	08H
	DB	01eH
	DB	01eH
	DB	08H
	DB	08H
	DB	06H
	DB	06H
	DB	04H
	DB	03H
	DB	013H
	DB	013H
	DB	013H
	DB	013H
	DB	013H
	DB	01H
	DB	01H
	DB	01H
	DB	01H
	DB	01H
	DB	03H
	DB	04H
	DB	02H
	DB	04H
	DB	02H
	DB	02H
	DB	03H
	DB	0bH
	DB	0bH
	DB	03H
	DB	013H
	DB	01H
	DB	01H
	DB	01H
	DB	01H
	DB	01H
	DB	01H
	DB	01H
	DB	01H
	DB	01H
	DB	07H
	DB	07H
	DB	07H
	DB	01H
	DB	01H
	DB	0bH
	DB	0bH
	DB	0bH
	DB	0bH
	DB	0bH
	DB	0bH
	DB	03H
	DB	0bH
	DB	03H
	DB	036H
	DB	036H
	DB	02H
	DB	02H
	DB	03H
	DB	03H
	DB	03H
	DB	03H
	DB	02H
	DB	02H
	DB	03H
	DB	02H
	DB	03H
	DB	01H
	DB	07H
	DB	01H
	DB	0bH
	DB	0bH
	DB	0bH
	DB	03H
	DB	03H
	DB	03H
	DB	03H
	DB	03H
	DB	01H
	DB	01H
	DB	01H
	DB	01H
	DB	01H
	DB	013H
	DB	069H
	DB	03H
	DB	02H
	DB	02H
	DB	02H
	DB	02H
	DB	013H
	DB	013H
	DB	01H
	DB	0bH
	DB	01H
	DB	07H
	DB	07H
	DB	07H
	DB	07H
	DB	07H
	DB	07H
	DB	07H
	DB	01H
	DB	02H
	DB	08H
	DB	05H
	DB	0aH
	DB	02fH
	DB	0aH
	DB	05H
	DB	08H
	DB	06H
	DB	08H
	DB	0aH
	DB	09H
	DB	014H
	DB	0cH
	DB	011H
	DB	01bH
	DB	01bH
	DB	0fH
	DB	014H
	DB	09H
	DB	0aH
	DB	05H
	DB	08H
	DB	0b3H
	DB	0feH
	DB	07H
	DB	01H
	DB	01H
	DB	01H
	DB	01H
	DB	07H
	DB	07H
	DB	07H
	DB	07H
	DB	07H
	DB	07H
	DB	07H
	DB	07H
	DB	01H
	DB	01H
	DB	03H
	DB	02H
	DB	02H
	DB	06H
	DB	012H
	DB	0aH
	DB	0aH
	DB	0aH
	DB	012H
	DB	02fH
	DB	068H
	DB	08H
	DB	03H
	DB	0bH
	DB	02H
	DB	02H
	DB	036H
	DB	036H
	DB	04H
	DB	04H
	DB	04H
	DB	04H
	DB	04H
	DB	036H
	DB	036H
	DB	02H
	DB	02H
	DB	036H
	DB	04H
	DB	01eH
	DB	05H
	DB	02fH
	DB	09H
	DB	033H
	DB	0fH
	DB	041H
	DB	014H
	DB	02H
	DB	01H
	DB	01H
	DB	07H
	DB	07H
	DB	07H
	DB	07H
	DB	07H
	DB	07H
	DB	07H
	DB	02H
	DB	09H
	DB	041H
	DB	016H
	DB	01bH
	DB	011H
	DB	014H
	DB	09H
	DB	014H
	DB	033H
	DB	014H
	DB	09H
	DB	0fcH
	DB	02cH
	DB	0dH
	DB	0dH
	DB	0dH
	DB	0dH
	DB	0dH
	DB	0dH
	DB	0dH
	DB	0dH
	DB	0dH
	DB	0dH
	DB	0e5H
	DB	08bH
	DB	014H
	DB	033H
	DB	014H
	DB	09H
	DB	0aH
	DB	012H
	DB	05H
	DB	05H
	DB	05H
	DB	05H
	DB	05H
	DB	05H
	DB	05H
	DB	05H
	DB	05H
	DB	06H
	DB	04H
	DB	02H
	DB	03H
	DB	0bH
	DB	03H
	DB	013H
	DB	01H
	DB	01H
	DB	01H
	DB	01H
	DB	01H
	DB	013H
	DB	013H
	DB	03H
	DB	013H
	DB	01H
	DB	01H
	DB	01H
	DB	07H
	DB	01H
	DB	07H
	DB	07H
	DB	07H
	DB	07H
	DB	07H
	DB	07H
	DB	01H
	DB	01H
	DB	07H
	DB	07H
	DB	07H
	DB	07H
	DB	07H
	DB	01H
	DB	01H
	DB	01H
	DB	01H
	DB	01H
	DB	0bH
	DB	0bH
	DB	0bH
	DB	0bH
	DB	0bH
	DB	03H
	DB	03H
	DB	03H
	DB	013H
	DB	0bH
	DB	0bH
	DB	0bH
	DB	01H
	DB	0bH
	DB	01H
	DB	03H
	DB	02H
	DB	02H
	DB	0bH
	DB	01H
	DB	01H
	DB	01H
	DB	0bH
	DB	03H
	DB	03H
	DB	03H
	DB	0bH
	DB	0bH
	DB	0bH
	DB	03H
	DB	03H
	DB	013H
	DB	01H
	DB	01H
	DB	07H
	DB	01H
	DB	01H
	DB	013H
	DB	013H
	DB	03H
	DB	03H
	DB	03H
	DB	013H
	DB	01H
	DB	01H
	DB	01H
	DB	01H
	DB	01H
	DB	07H
	DB	07H
	DB	07H
	DB	07H
	DB	07H
	DB	07H
	DB	07H
	DB	07H
	DB	02H
	DB	05H
	DB	05H
	DB	012H
	DB	0aH
	DB	012H
	DB	05H
	DB	05H
	DB	09H
	DB	014H
	DB	0fH
	DB	0fH
	DB	0fH
	DB	014H
	DB	09H
	DB	08H
	DB	02H
	DB	03H
	DB	013H
	DB	01H
	DB	07H
	DB	07H
	DB	07H
	DB	07H
	DB	07H
	DB	01H
	DB	01H
	DB	01H
	DB	07H
	DB	07H
	DB	07H
	DB	07H
	DB	01H
	DB	01H
	DB	07H
	DB	07H
	DB	07H
	DB	07H
	DB	01H
	DB	01H
	DB	069H
	DB	02H
	DB	02H
	DB	04H
	DB	08H
	DB	012H
	DB	012H
	DB	012H
	DB	026H
	DB	06H
	DB	013H
	DB	03H
	DB	02H
	DB	02H
	DB	02H
	DB	06H
	DB	06H
	DB	06H
	DB	06H
	DB	06H
	DB	04H
	DB	036H
	DB	036H
	DB	04H
	DB	06H
	DB	08H
	DB	05H
	DB	0aH
	DB	09H
	DB	09H
	DB	014H
	DB	033H
	DB	0fH
	DB	011H
	DB	014H
	DB	06H
	DB	04H
	DB	02H
	DB	0bH
	DB	07H
	DB	07H
	DB	07H
	DB	07H
	DB	07H
	DB	07H
	DB	07H
	DB	07H
	DB	013H
	DB	05H
	DB	0fH
	DB	016H
	DB	016H
	DB	011H
	DB	011H
	DB	016H
	DB	030H
	DB	01fH
	DB	0f7H
	DB	0b0H
	DB	024H
	DB	0dH
	DB	0dH
	DB	0dH
	DB	0dH
	DB	0dH
	DB	0dH
	DB	0dH
	DB	0dH
	DB	0dH
	DB	078H
	DB	0e8H
	DB	048H
	DB	02H
	DB	014H
	DB	0cH
	DB	014H
	DB	09H
	DB	09H
	DB	014H
	DB	014H
	DB	09H
	DB	02fH
	DB	012H
	DB	012H
	DB	05H
	DB	05H
	DB	05H
	DB	012H
	DB	09H
	DB	09H
	DB	03dH
	DB	05H
	DB	04H
	DB	02H
	DB	02H
	DB	03H
	DB	013H
	DB	01H
	DB	07H
	DB	01H
	DB	013H
	DB	01H
	DB	07H
	DB	07H
	DB	07H
	DB	07H
	DB	07H
	DB	07H
	DB	07H
	DB	07H
	DB	07H
	DB	07H
	DB	07H
	DB	07H
	DB	07H
	DB	07H
	DB	07H
	DB	07H
	DB	07H
	DB	07H
	DB	07H
	DB	07H
	DB	07H
	DB	07H
	DB	01H
	DB	07H
	DB	01H
	DB	01H
	DB	0bH
	DB	03H
	DB	036H
	DB	04H
	DB	02H
	DB	02H
	DB	03H
	DB	03H
	DB	03H
	DB	03H
	DB	02H
	DB	04H
	DB	06H
	DB	04H
	DB	06H
	DB	02H
	DB	04H
	DB	04H
	DB	04H
	DB	04H
	DB	02H
	DB	03H
	DB	0bH
	DB	0bH
	DB	0bH
	DB	03H
	DB	03H
	DB	02H
	DB	04H
	DB	03H
	DB	0bH
	DB	01H
	DB	01H
	DB	01H
	DB	01H
	DB	013H
	DB	03H
	DB	03H
	DB	013H
	DB	01H
	DB	01H
	DB	07H
	DB	01H
	DB	01H
	DB	01H
	DB	01H
	DB	01H
	DB	07H
	DB	07H
	DB	07H
	DB	07H
	DB	07H
	DB	07H
	DB	07H
	DB	07H
	DB	013H
	DB	04H
	DB	06H
	DB	012H
	DB	0aH
	DB	05H
	DB	0aH
	DB	0cH
	DB	0cH
	DB	09H
	DB	05H
	DB	04H
	DB	03H
	DB	0bH
	DB	07H
	DB	07H
	DB	07H
	DB	07H
	DB	07H
	DB	07H
	DB	07H
	DB	07H
	DB	01H
	DB	01H
	DB	01H
	DB	07H
	DB	07H
	DB	07H
	DB	07H
	DB	07H
	DB	07H
	DB	07H
	DB	07H
	DB	07H
	DB	07H
	DB	07H
	DB	01H
	DB	01H
	DB	01H
	DB	01H
	DB	01H
	DB	01H
	DB	03H
	DB	02H
	DB	06H
	DB	08H
	DB	08H
	DB	06H
	DB	02H
	DB	03H
	DB	03H
	DB	036H
	DB	03H
	DB	04H
	DB	05H
	DB	09H
	DB	09H
	DB	05H
	DB	026H
	DB	014H
	DB	09H
	DB	05H
	DB	05H
	DB	01eH
	DB	05H
	DB	012H
	DB	02fH
	DB	09H
	DB	014H
	DB	0fH
	DB	011H
	DB	011H
	DB	014H
	DB	08H
	DB	06H
	DB	06H
	DB	04H
	DB	03H
	DB	03H
	DB	01H
	DB	07H
	DB	07H
	DB	07H
	DB	07H
	DB	07H
	DB	07H
	DB	07H
	DB	01H
	DB	04H
	DB	09H
	DB	016H
	DB	030H
	DB	016H
	DB	01fH
	DB	0aeH
	DB	031H
	DB	031H
	DB	0d5H
	DB	0deH
	DB	0dH
	DB	0dH
	DB	0dH
	DB	0dH
	DB	0dH
	DB	0dH
	DB	0dH
	DB	0dH
	DB	0dH
	DB	0eH
	DB	02dH
	DB	048H
	DB	01H
	DB	06H
	DB	0cH
	DB	0cH
	DB	014H
	DB	0cH
	DB	014H
	DB	09H
	DB	09H
	DB	026H
	DB	012H
	DB	012H
	DB	012H
	DB	0aH
	DB	0aH
	DB	09H
	DB	014H
	DB	014H
	DB	09H
	DB	09H
	DB	0aH
	DB	05H
	DB	08H
	DB	06H
	DB	04H
	DB	03H
	DB	01H
	DB	07H
	DB	01H
	DB	01H
	DB	07H
	DB	07H
	DB	07H
	DB	07H
	DB	07H
	DB	07H
	DB	07H
	DB	07H
	DB	07H
	DB	07H
	DB	07H
	DB	07H
	DB	07H
	DB	07H
	DB	07H
	DB	07H
	DB	07H
	DB	07H
	DB	01H
	DB	01H
	DB	01H
	DB	01H
	DB	01H
	DB	01H
	DB	0bH
	DB	02H
	DB	02H
	DB	04H
	DB	012H
	DB	0aH
	DB	08H
	DB	04H
	DB	042H
	DB	04H
	DB	04H
	DB	04H
	DB	06H
	DB	06H
	DB	01eH
	DB	06H
	DB	06H
	DB	08H
	DB	08H
	DB	05H
	DB	01eH
	DB	05H
	DB	05H
	DB	026H
	DB	05H
	DB	04H
	DB	02H
	DB	03H
	DB	03H
	DB	02H
	DB	02H
	DB	03H
	DB	08H
	DB	06H
	DB	06H
	DB	08H
	DB	06H
	DB	03H
	DB	01H
	DB	01H
	DB	01H
	DB	01H
	DB	07H
	DB	07H
	DB	07H
	DB	01H
	DB	07H
	DB	07H
	DB	07H
	DB	01H
	DB	07H
	DB	07H
	DB	07H
	DB	07H
	DB	07H
	DB	07H
	DB	07H
	DB	07H
	DB	07H
	DB	01H
	DB	02H
	DB	05H
	DB	09H
	DB	0fH
	DB	014H
	DB	08H
	DB	03H
	DB	01H
	DB	01H
	DB	01H
	DB	01H
	DB	01H
	DB	07H
	DB	07H
	DB	07H
	DB	07H
	DB	07H
	DB	07H
	DB	07H
	DB	01H
	DB	01H
	DB	07H
	DB	07H
	DB	07H
	DB	07H
	DB	07H
	DB	07H
	DB	07H
	DB	07H
	DB	07H
	DB	07H
	DB	01H
	DB	01H
	DB	07H
	DB	01H
	DB	01H
	DB	01H
	DB	01H
	DB	07H
	DB	07H
	DB	013H
	DB	02H
	DB	02H
	DB	04H
	DB	04H
	DB	06H
	DB	04H
	DB	02H
	DB	03H
	DB	06H
	DB	05H
	DB	01eH
	DB	05H
	DB	0aH
	DB	014H
	DB	09H
	DB	09H
	DB	01bH
	DB	01fH
	DB	030H
	DB	01dH
	DB	01bH
	DB	015H
	DB	011H
	DB	011H
	DB	015H
	DB	015H
	DB	0fH
	DB	09H
	DB	08H
	DB	06H
	DB	06H
	DB	06H
	DB	04H
	DB	04H
	DB	036H
	DB	03H
	DB	01H
	DB	01H
	DB	07H
	DB	07H
	DB	07H
	DB	07H
	DB	07H
	DB	07H
	DB	07H
	DB	01H
	DB	02H
	DB	0fH
	DB	01bH
	DB	0fH
	DB	0cH
	DB	09H
	DB	01eH
	DB	048H
	DB	094H
	DB	0dH
	DB	0dH
	DB	0dH
	DB	0dH
	DB	0dH
	DB	0dH
	DB	078H
	DB	078H
	DB	0dH
	DB	0eH
	DB	0edH
	DB	038H
	DB	01H
	DB	01H
	DB	06H
	DB	09H
	DB	014H
	DB	09H
	DB	09H
	DB	09H
	DB	09H
	DB	09H
	DB	09H
	DB	09H
	DB	09H
	DB	09H
	DB	09H
	DB	09H
	DB	09H
	DB	012H
	DB	012H
	DB	09H
	DB	09H
	DB	09H
	DB	09H
	DB	09H
	DB	0aH
	DB	05H
	DB	04H
	DB	013H
	DB	07H
	DB	07H
	DB	07H
	DB	07H
	DB	07H
	DB	07H
	DB	07H
	DB	07H
	DB	07H
	DB	07H
	DB	07H
	DB	07H
	DB	07H
	DB	07H
	DB	07H
	DB	01H
	DB	013H
	DB	03H
	DB	04H
	DB	01eH
	DB	012H
	DB	012H
	DB	06H
	DB	02H
	DB	04H
	DB	06H
	DB	08H
	DB	012H
	DB	09H
	DB	09H
	DB	09H
	DB	014H
	DB	014H
	DB	09H
	DB	012H
	DB	08H
	DB	08H
	DB	06H
	DB	06H
	DB	04H
	DB	04H
	DB	06H
	DB	06H
	DB	08H
	DB	05H
	DB	05H
	DB	08H
	DB	08H
	DB	05H
	DB	012H
	DB	0aH
	DB	026H
	DB	05H
	DB	01eH
	DB	06H
	DB	04H
	DB	06H
	DB	06H
	DB	08H
	DB	06H
	DB	02H
	DB	013H
	DB	01H
	DB	07H
	DB	07H
	DB	07H
	DB	07H
	DB	07H
	DB	07H
	DB	07H
	DB	07H
	DB	07H
	DB	07H
	DB	07H
	DB	07H
	DB	01H
	DB	01H
	DB	01H
	DB	07H
	DB	01H
	DB	07H
	DB	07H
	DB	07H
	DB	07H
	DB	07H
	DB	07H
	DB	07H
	DB	01H
	DB	06H
	DB	04H
	DB	013H
	DB	01H
	DB	01H
	DB	01H
	DB	01H
	DB	07H
	DB	07H
	DB	07H
	DB	07H
	DB	01H
	DB	07H
	DB	07H
	DB	07H
	DB	07H
	DB	01H
	DB	01H
	DB	07H
	DB	07H
	DB	07H
	DB	07H
	DB	07H
	DB	07H
	DB	07H
	DB	07H
	DB	07H
	DB	07H
	DB	07H
	DB	07H
	DB	07H
	DB	07H
	DB	07H
	DB	01H
	DB	01H
	DB	01H
	DB	01H
	DB	01H
	DB	01H
	DB	01H
	DB	0bH
	DB	0bH
	DB	02H
	DB	05H
	DB	08H
	DB	012H
	DB	09H
	DB	0aH
	DB	012H
	DB	06H
	DB	03H
	DB	03H
	DB	04H
	DB	06H
	DB	06H
	DB	012H
	DB	011H
	DB	01bH
	DB	01bH
	DB	01bH
	DB	016H
	DB	01bH
	DB	015H
	DB	0cH
	DB	0aH
	DB	08H
	DB	06H
	DB	06H
	DB	04H
	DB	04H
	DB	04H
	DB	04H
	DB	02H
	DB	03H
	DB	03H
	DB	0bH
	DB	01H
	DB	07H
	DB	07H
	DB	07H
	DB	07H
	DB	07H
	DB	07H
	DB	07H
	DB	07H
	DB	07H
	DB	01H
	DB	069H
	DB	0bH
	DB	01H
	DB	01H
	DB	07H
	DB	0fcH
	DB	0dbH
	DB	0dH
	DB	078H
	DB	078H
	DB	078H
	DB	078H
	DB	078H
	DB	078H
	DB	078H
	DB	0dH
	DB	052H
	DB	0a3H
	DB	038H
	DB	02H
	DB	02H
	DB	0bH
	DB	06H
	DB	08H
	DB	012H
	DB	0aH
	DB	0aH
	DB	09H
	DB	09H
	DB	09H
	DB	09H
	DB	09H
	DB	09H
	DB	09H
	DB	09H
	DB	012H
	DB	05H
	DB	05H
	DB	012H
	DB	012H
	DB	012H
	DB	0aH
	DB	012H
	DB	05H
	DB	08H
	DB	04H
	DB	01H
	DB	07H
	DB	07H
	DB	07H
	DB	07H
	DB	01H
	DB	01H
	DB	01H
	DB	01H
	DB	01H
	DB	01H
	DB	01H
	DB	01H
	DB	01H
	DB	01H
	DB	01H
	DB	03H
	DB	06H
	DB	05H
	DB	05H
	DB	026H
	DB	012H
	DB	09H
	DB	0fH
	DB	014H
	DB	09H
	DB	014H
	DB	09H
	DB	09H
	DB	014H
	DB	014H
	DB	09H
	DB	014H
	DB	0cH
	DB	0fH
	DB	0cH
	DB	014H
	DB	0aH
	DB	05H
	DB	01eH
	DB	06H
	DB	04H
	DB	04H
	DB	02H
	DB	02H
	DB	04H
	DB	06H
	DB	06H
	DB	06H
	DB	06H
	DB	08H
	DB	012H
	DB	0aH
	DB	09H
	DB	09H
	DB	012H
	DB	05H
	DB	05H
	DB	05H
	DB	02H
	DB	07H
	DB	01H
	DB	07H
	DB	07H
	DB	07H
	DB	07H
	DB	07H
	DB	07H
	DB	07H
	DB	07H
	DB	07H
	DB	07H
	DB	07H
	DB	07H
	DB	07H
	DB	01H
	DB	01H
	DB	01H
	DB	01H
	DB	01H
	DB	0bH
	DB	01H
	DB	01H
	DB	01H
	DB	07H
	DB	07H
	DB	07H
	DB	07H
	DB	07H
	DB	07H
	DB	07H
	DB	07H
	DB	01H
	DB	07H
	DB	07H
	DB	07H
	DB	07H
	DB	07H
	DB	07H
	DB	07H
	DB	07H
	DB	07H
	DB	07H
	DB	07H
	DB	07H
	DB	07H
	DB	07H
	DB	07H
	DB	07H
	DB	07H
	DB	07H
	DB	01H
	DB	01H
	DB	07H
	DB	07H
	DB	07H
	DB	07H
	DB	07H
	DB	07H
	DB	07H
	DB	07H
	DB	07H
	DB	07H
	DB	01H
	DB	07H
	DB	07H
	DB	01H
	DB	07H
	DB	07H
	DB	01H
	DB	01H
	DB	01H
	DB	03H
	DB	012H
	DB	0cH
	DB	0fH
	DB	0cH
	DB	08H
	DB	02H
	DB	04H
	DB	06H
	DB	08H
	DB	012H
	DB	09H
	DB	09H
	DB	05H
	DB	06H
	DB	038H
	DB	038H
	DB	038H
	DB	02H
	DB	02H
	DB	03H
	DB	03H
	DB	02H
	DB	04H
	DB	04H
	DB	04H
	DB	04H
	DB	04H
	DB	02H
	DB	02H
	DB	02H
	DB	03H
	DB	03H
	DB	0bH
	DB	0bH
	DB	01H
	DB	07H
	DB	07H
	DB	07H
	DB	07H
	DB	07H
	DB	07H
	DB	07H
	DB	07H
	DB	07H
	DB	07H
	DB	07H
	DB	07H
	DB	07H
	DB	08cH
	DB	07dH
	DB	0dH
	DB	078H
	DB	078H
	DB	078H
	DB	078H
	DB	078H
	DB	078H
	DB	078H
	DB	0dH
	DB	052H
	DB	085H
	DB	038H
	DB	05H
	DB	06H
	DB	02H
	DB	02H
	DB	04H
	DB	06H
	DB	08H
	DB	05H
	DB	05H
	DB	012H
	DB	0aH
	DB	0aH
	DB	012H
	DB	012H
	DB	0aH
	DB	026H
	DB	08H
	DB	06H
	DB	06H
	DB	06H
	DB	06H
	DB	08H
	DB	08H
	DB	06H
	DB	02H
	DB	013H
	DB	01H
	DB	07H
	DB	01H
	DB	01H
	DB	013H
	DB	01H
	DB	01H
	DB	0bH
	DB	01H
	DB	0bH
	DB	0bH
	DB	01H
	DB	0bH
	DB	03H
	DB	03H
	DB	03H
	DB	0bH
	DB	0bH
	DB	03H
	DB	02H
	DB	04H
	DB	04H
	DB	06H
	DB	06H
	DB	0aH
	DB	0fH
	DB	0fH
	DB	0cH
	DB	03dH
	DB	03dH
	DB	09H
	DB	09H
	DB	03dH
	DB	09H
	DB	014H
	DB	0fH
	DB	015H
	DB	01bH
	DB	015H
	DB	011H
	DB	0fH
	DB	014H
	DB	0aH
	DB	012H
	DB	05H
	DB	06H
	DB	06H
	DB	05H
	DB	05H
	DB	05H
	DB	08H
	DB	08H
	DB	012H
	DB	0cH
	DB	0fH
	DB	0cH
	DB	014H
	DB	012H
	DB	05H
	DB	08H
	DB	04H
	DB	04H
	DB	04H
	DB	06H
	DB	03H
	DB	0bH
	DB	01H
	DB	07H
	DB	07H
	DB	07H
	DB	07H
	DB	07H
	DB	07H
	DB	07H
	DB	07H
	DB	01H
	DB	01H
	DB	01H
	DB	0bH
	DB	0bH
	DB	0bH
	DB	01H
	DB	01H
	DB	01H
	DB	01H
	DB	01H
	DB	01H
	DB	07H
	DB	01H
	DB	01H
	DB	07H
	DB	07H
	DB	07H
	DB	07H
	DB	07H
	DB	07H
	DB	07H
	DB	07H
	DB	07H
	DB	07H
	DB	07H
	DB	07H
	DB	07H
	DB	01H
	DB	01H
	DB	01H
	DB	01H
	DB	07H
	DB	07H
	DB	07H
	DB	07H
	DB	07H
	DB	07H
	DB	07H
	DB	01H
	DB	01H
	DB	01H
	DB	01H
	DB	07H
	DB	07H
	DB	07H
	DB	07H
	DB	07H
	DB	07H
	DB	07H
	DB	07H
	DB	07H
	DB	07H
	DB	07H
	DB	07H
	DB	07H
	DB	07H
	DB	07H
	DB	07H
	DB	07H
	DB	07H
	DB	0feH
	DB	06H
	DB	05H
	DB	09H
	DB	011H
	DB	015H
	DB	015H
	DB	011H
	DB	0fH
	DB	0aH
	DB	05H
	DB	06H
	DB	08H
	DB	06H
	DB	02H
	DB	0bH
	DB	013H
	DB	01H
	DB	01H
	DB	013H
	DB	02H
	DB	02H
	DB	02H
	DB	036H
	DB	02H
	DB	04H
	DB	04H
	DB	036H
	DB	02H
	DB	03H
	DB	03H
	DB	03H
	DB	0bH
	DB	01H
	DB	01H
	DB	01H
	DB	07H
	DB	07H
	DB	07H
	DB	07H
	DB	07H
	DB	07H
	DB	07H
	DB	07H
	DB	07H
	DB	0bH
	DB	067H
	DB	010H
	DB	0dH
	DB	078H
	DB	078H
	DB	078H
	DB	078H
	DB	078H
	DB	078H
	DB	078H
	DB	078H
	DB	049H
	DB	0a5H
	DB	0b3H
	DB	05H
	DB	04H
	DB	02H
	DB	03H
	DB	04H
	DB	04H
	DB	02H
	DB	04H
	DB	04H
	DB	06H
	DB	06H
	DB	08H
	DB	08H
	DB	06H
	DB	06H
	DB	02H
	DB	02H
	DB	04H
	DB	04H
	DB	02H
	DB	04H
	DB	04H
	DB	04H
	DB	02H
	DB	01H
	DB	01H
	DB	07H
	DB	01H
	DB	01H
	DB	01H
	DB	01H
	DB	01H
	DB	01H
	DB	0bH
	DB	01H
	DB	0bH
	DB	0bH
	DB	0bH
	DB	02H
	DB	04H
	DB	04H
	DB	036H
	DB	03H
	DB	03H
	DB	0bH
	DB	0bH
	DB	01H
	DB	013H
	DB	02H
	DB	06H
	DB	06H
	DB	05H
	DB	09H
	DB	014H
	DB	014H
	DB	014H
	DB	014H
	DB	014H
	DB	0aH
	DB	012H
	DB	09H
	DB	014H
	DB	0cH
	DB	011H
	DB	015H
	DB	015H
	DB	015H
	DB	011H
	DB	0faH
	DB	0cH
	DB	014H
	DB	09H
	DB	0aH
	DB	012H
	DB	0aH
	DB	09H
	DB	0fH
	DB	011H
	DB	016H
	DB	01bH
	DB	011H
	DB	011H
	DB	011H
	DB	015H
	DB	011H
	DB	0cH
	DB	09H
	DB	09H
	DB	05H
	DB	038H
	DB	03H
	DB	0bH
	DB	03H
	DB	07H
	DB	07H
	DB	07H
	DB	07H
	DB	07H
	DB	07H
	DB	07H
	DB	01H
	DB	01H
	DB	01H
	DB	01H
	DB	01H
	DB	01H
	DB	01H
	DB	01H
	DB	01H
	DB	01H
	DB	01H
	DB	0bH
	DB	0bH
	DB	0bH
	DB	0bH
	DB	01H
	DB	07H
	DB	07H
	DB	07H
	DB	07H
	DB	07H
	DB	07H
	DB	07H
	DB	07H
	DB	07H
	DB	07H
	DB	01H
	DB	01H
	DB	0bH
	DB	03H
	DB	02H
	DB	04H
	DB	04H
	DB	03H
	DB	01H
	DB	01H
	DB	01H
	DB	01H
	DB	01H
	DB	03H
	DB	08H
	DB	01eH
	DB	04H
	DB	036H
	DB	03H
	DB	0bH
	DB	01H
	DB	01H
	DB	07H
	DB	07H
	DB	07H
	DB	07H
	DB	07H
	DB	07H
	DB	07H
	DB	07H
	DB	07H
	DB	07H
	DB	07H
	DB	07H
	DB	07H
	DB	01H
	DB	0bH
	DB	02H
	DB	011H
	DB	0f9H
	DB	01bH
	DB	015H
	DB	0cH
	DB	03dH
	DB	0aH
	DB	06H
	DB	04H
	DB	06H
	DB	08H
	DB	05H
	DB	08H
	DB	08H
	DB	06H
	DB	06H
	DB	04H
	DB	04H
	DB	02H
	DB	06H
	DB	04H
	DB	06H
	DB	04H
	DB	04H
	DB	04H
	DB	036H
	DB	036H
	DB	02H
	DB	03H
	DB	03H
	DB	03H
	DB	03H
	DB	0bH
	DB	0bH
	DB	01H
	DB	01H
	DB	07H
	DB	07H
	DB	07H
	DB	07H
	DB	07H
	DB	07H
	DB	03H
	DB	0d6H
	DB	071H
	DB	052H
	DB	0dH
	DB	078H
	DB	078H
	DB	078H
	DB	078H
	DB	078H
	DB	08dH
	DB	08dH
	DB	078H
	DB	010H
	DB	0ceH
	DB	038H
	DB	06H
	DB	02H
	DB	013H
	DB	0bH
	DB	03H
	DB	03H
	DB	03H
	DB	03H
	DB	02H
	DB	02H
	DB	02H
	DB	04H
	DB	04H
	DB	04H
	DB	04H
	DB	02H
	DB	03H
	DB	069H
	DB	03H
	DB	03H
	DB	02H
	DB	03H
	DB	03H
	DB	03H
	DB	01H
	DB	01H
	DB	01H
	DB	01H
	DB	01H
	DB	01H
	DB	01H
	DB	01H
	DB	01H
	DB	01H
	DB	0bH
	DB	0bH
	DB	0bH
	DB	0bH
	DB	03H
	DB	04H
	DB	04H
	DB	04H
	DB	036H
	DB	0bH
	DB	01H
	DB	01H
	DB	013H
	DB	02H
	DB	04H
	DB	04H
	DB	04H
	DB	04H
	DB	02H
	DB	04H
	DB	06H
	DB	05H
	DB	0aH
	DB	09H
	DB	03dH
	DB	0aH
	DB	012H
	DB	09H
	DB	09H
	DB	0aH
	DB	09H
	DB	0cH
	DB	011H
	DB	01bH
	DB	016H
	DB	0d5H
	DB	0d5H
	DB	016H
	DB	016H
	DB	01bH
	DB	01bH
	DB	016H
	DB	01dH
	DB	016H
	DB	0fH
	DB	09H
	DB	0cH
	DB	0fH
	DB	0cH
	DB	0faH
	DB	0faH
	DB	0cH
	DB	0cH
	DB	09H
	DB	06H
	DB	01H
	DB	07H
	DB	01H
	DB	0bH
	DB	01H
	DB	07H
	DB	07H
	DB	07H
	DB	01H
	DB	01H
	DB	01H
	DB	0bH
	DB	01H
	DB	01H
	DB	01H
	DB	0bH
	DB	0bH
	DB	01H
	DB	0bH
	DB	03H
	DB	03H
	DB	02H
	DB	036H
	DB	02H
	DB	02H
	DB	0bH
	DB	01H
	DB	01H
	DB	01H
	DB	0bH
	DB	01H
	DB	01H
	DB	01H
	DB	01H
	DB	01H
	DB	0bH
	DB	03H
	DB	03H
	DB	036H
	DB	036H
	DB	04H
	DB	042H
	DB	05H
	DB	05H
	DB	01eH
	DB	042H
	DB	04H
	DB	04H
	DB	04H
	DB	06H
	DB	01eH
	DB	01eH
	DB	01eH
	DB	042H
	DB	042H
	DB	04H
	DB	036H
	DB	03H
	DB	0bH
	DB	01H
	DB	01H
	DB	013H
	DB	02H
	DB	02H
	DB	03H
	DB	013H
	DB	01H
	DB	01H
	DB	01H
	DB	07H
	DB	07H
	DB	01H
	DB	01H
	DB	03H
	DB	03H
	DB	013H
	DB	038H
	DB	08H
	DB	06H
	DB	06H
	DB	08H
	DB	06H
	DB	06H
	DB	06H
	DB	06H
	DB	06H
	DB	06H
	DB	06H
	DB	04H
	DB	06H
	DB	08H
	DB	08H
	DB	08H
	DB	06H
	DB	08H
	DB	05H
	DB	01eH
	DB	06H
	DB	04H
	DB	06H
	DB	04H
	DB	036H
	DB	036H
	DB	04H
	DB	04H
	DB	036H
	DB	04H
	DB	036H
	DB	03H
	DB	03H
	DB	03H
	DB	0bH
	DB	0bH
	DB	01H
	DB	01H
	DB	0bH
	DB	02H
	DB	01eH
	DB	01H
	DB	02bH
	DB	0eH
	DB	078H
	DB	08dH
	DB	08dH
	DB	08dH
	DB	08dH
	DB	08dH
	DB	08dH
	DB	08dH
	DB	0d7H
	DB	010H
	DB	0a6H
	DB	038H
	DB	02H
	DB	03H
	DB	0bH
	DB	01H
	DB	01H
	DB	0bH
	DB	03H
	DB	02H
	DB	02H
	DB	03H
	DB	03H
	DB	03H
	DB	013H
	DB	03H
	DB	069H
	DB	013H
	DB	013H
	DB	013H
	DB	01H
	DB	013H
	DB	013H
	DB	013H
	DB	013H
	DB	03H
	DB	02H
	DB	02H
	DB	03H
	DB	013H
	DB	013H
	DB	01H
	DB	01H
	DB	0bH
	DB	0bH
	DB	0bH
	DB	03H
	DB	03H
	DB	03H
	DB	03H
	DB	0bH
	DB	0bH
	DB	02H
	DB	036H
	DB	02H
	DB	03H
	DB	03H
	DB	03H
	DB	02H
	DB	04H
	DB	04H
	DB	02H
	DB	02H
	DB	02H
	DB	02H
	DB	03H
	DB	013H
	DB	013H
	DB	03H
	DB	04H
	DB	05H
	DB	012H
	DB	012H
	DB	012H
	DB	012H
	DB	09H
	DB	09H
	DB	03dH
	DB	09H
	DB	03dH
	DB	0cH
	DB	0faH
	DB	011H
	DB	011H
	DB	011H
	DB	011H
	DB	011H
	DB	0cH
	DB	09H
	DB	012H
	DB	05H
	DB	05H
	DB	012H
	DB	0aH
	DB	0aH
	DB	012H
	DB	012H
	DB	08H
	DB	02H
	DB	013H
	DB	07H
	DB	07H
	DB	07H
	DB	07H
	DB	07H
	DB	07H
	DB	01H
	DB	0bH
	DB	02H
	DB	04H
	DB	04H
	DB	02H
	DB	04H
	DB	036H
	DB	02H
	DB	02H
	DB	02H
	DB	04H
	DB	04H
	DB	06H
	DB	06H
	DB	04H
	DB	04H
	DB	06H
	DB	06H
	DB	05H
	DB	06H
	DB	03H
	DB	04H
	DB	08H
	DB	06H
	DB	02H
	DB	02H
	DB	04H
	DB	04H
	DB	04H
	DB	01eH
	DB	01eH
	DB	01eH
	DB	0d6H
	DB	01eH
	DB	01eH
	DB	01eH
	DB	04H
	DB	06H
	DB	01eH
	DB	01eH
	DB	042H
	DB	06H
	DB	06H
	DB	04H
	DB	036H
	DB	04H
	DB	06H
	DB	04H
	DB	04H
	DB	04H
	DB	04H
	DB	03H
	DB	0bH
	DB	03H
	DB	04H
	DB	01eH
	DB	05H
	DB	04H
	DB	02H
	DB	02H
	DB	03H
	DB	03H
	DB	03H
	DB	0bH
	DB	01H
	DB	01H
	DB	01H
	DB	01H
	DB	01H
	DB	07H
	DB	07H
	DB	01H
	DB	03H
	DB	04H
	DB	04H
	DB	04H
	DB	06H
	DB	06H
	DB	06H
	DB	02H
	DB	02H
	DB	04H
	DB	04H
	DB	06H
	DB	06H
	DB	06H
	DB	06H
	DB	06H
	DB	06H
	DB	05H
	DB	08H
	DB	08H
	DB	08H
	DB	06H
	DB	04H
	DB	04H
	DB	04H
	DB	036H
	DB	036H
	DB	02H
	DB	04H
	DB	036H
	DB	036H
	DB	036H
	DB	03H
	DB	0bH
	DB	0bH
	DB	03H
	DB	03H
	DB	04H
	DB	06H
	DB	06H
	DB	01H
	DB	0a7H
	DB	0eH
	DB	078H
	DB	08dH
	DB	08dH
	DB	08dH
	DB	08dH
	DB	08dH
	DB	0eH
	DB	0eH
	DB	08dH
	DB	049H
	DB	0a6H
	DB	02H
	DB	02H
	DB	0bH
	DB	01H
	DB	01H
	DB	01H
	DB	01H
	DB	013H
	DB	013H
	DB	01H
	DB	01H
	DB	01H
	DB	01H
	DB	01H
	DB	01H
	DB	013H
	DB	013H
	DB	01H
	DB	01H
	DB	013H
	DB	01H
	DB	013H
	DB	01H
	DB	01H
	DB	069H
	DB	04H
	DB	06H
	DB	06H
	DB	02H
	DB	03H
	DB	0bH
	DB	0bH
	DB	0bH
	DB	03H
	DB	03H
	DB	03H
	DB	03H
	DB	036H
	DB	02H
	DB	0bH
	DB	0bH
	DB	0bH
	DB	03H
	DB	02H
	DB	03H
	DB	03H
	DB	02H
	DB	02H
	DB	02H
	DB	02H
	DB	02H
	DB	03H
	DB	02H
	DB	02H
	DB	03H
	DB	03H
	DB	03H
	DB	0bH
	DB	013H
	DB	013H
	DB	02H
	DB	038H
	DB	06H
	DB	06H
	DB	012H
	DB	09H
	DB	09H
	DB	0aH
	DB	05H
	DB	05H
	DB	08H
	DB	06H
	DB	04H
	DB	06H
	DB	08H
	DB	08H
	DB	06H
	DB	06H
	DB	06H
	DB	06H
	DB	06H
	DB	06H
	DB	06H
	DB	06H
	DB	04H
	DB	02H
	DB	069H
	DB	01H
	DB	013H
	DB	013H
	DB	01H
	DB	07H
	DB	07H
	DB	07H
	DB	01H
	DB	03H
	DB	02H
	DB	01eH
	DB	05H
	DB	05H
	DB	05H
	DB	05H
	DB	05H
	DB	012H
	DB	05H
	DB	012H
	DB	012H
	DB	068H
	DB	026H
	DB	026H
	DB	05H
	DB	08H
	DB	08H
	DB	05H
	DB	012H
	DB	09H
	DB	08H
	DB	08H
	DB	02H
	DB	0bH
	DB	036H
	DB	04H
	DB	04H
	DB	042H
	DB	04H
	DB	06H
	DB	01eH
	DB	01eH
	DB	05H
	DB	01eH
	DB	01eH
	DB	06H
	DB	04H
	DB	06H
	DB	06H
	DB	06H
	DB	06H
	DB	04H
	DB	04H
	DB	036H
	DB	02H
	DB	036H
	DB	04H
	DB	04H
	DB	036H
	DB	036H
	DB	03H
	DB	0bH
	DB	02H
	DB	01eH
	DB	01eH
	DB	06H
	DB	04H
	DB	06H
	DB	04H
	DB	04H
	DB	036H
	DB	03H
	DB	03H
	DB	0bH
	DB	01H
	DB	01H
	DB	013H
	DB	01H
	DB	01H
	DB	01H
	DB	0bH
	DB	013H
	DB	02H
	DB	02H
	DB	03H
	DB	02H
	DB	04H
	DB	04H
	DB	02H
	DB	02H
	DB	02H
	DB	04H
	DB	04H
	DB	04H
	DB	04H
	DB	06H
	DB	06H
	DB	06H
	DB	06H
	DB	08H
	DB	06H
	DB	06H
	DB	06H
	DB	06H
	DB	04H
	DB	04H
	DB	04H
	DB	02H
	DB	036H
	DB	04H
	DB	036H
	DB	036H
	DB	036H
	DB	03H
	DB	0bH
	DB	03H
	DB	03H
	DB	036H
	DB	04H
	DB	06H
	DB	01eH
	DB	042H
	DB	03H
	DB	03cH
	DB	0eH
	DB	08dH
	DB	0eH
	DB	0eH
	DB	0eH
	DB	0eH
	DB	0eH
	DB	0eH
	DB	0eH
	DB	0eH
	DB	052H
	DB	0a5H
	DB	013H
	DB	01H
	DB	01H
	DB	01H
	DB	01H
	DB	01H
	DB	01H
	DB	01H
	DB	07H
	DB	07H
	DB	07H
	DB	07H
	DB	07H
	DB	07H
	DB	07H
	DB	01H
	DB	01H
	DB	01H
	DB	01H
	DB	01H
	DB	01H
	DB	01H
	DB	01H
	DB	013H
	DB	03H
	DB	02H
	DB	06H
	DB	01eH
	DB	01eH
	DB	02H
	DB	0bH
	DB	0bH
	DB	03H
	DB	03H
	DB	03H
	DB	036H
	DB	036H
	DB	03H
	DB	036H
	DB	03H
	DB	03H
	DB	0bH
	DB	0bH
	DB	03H
	DB	03H
	DB	03H
	DB	02H
	DB	02H
	DB	04H
	DB	04H
	DB	04H
	DB	02H
	DB	02H
	DB	03H
	DB	069H
	DB	03H
	DB	02H
	DB	02H
	DB	02H
	DB	02H
	DB	02H
	DB	04H
	DB	06H
	DB	06H
	DB	06H
	DB	06H
	DB	08H
	DB	05H
	DB	012H
	DB	012H
	DB	05H
	DB	08H
	DB	04H
	DB	06H
	DB	06H
	DB	04H
	DB	02H
	DB	02H
	DB	02H
	DB	038H
	DB	02H
	DB	02H
	DB	02H
	DB	02H
	DB	03H
	DB	03H
	DB	013H
	DB	013H
	DB	013H
	DB	013H
	DB	0bH
	DB	01H
	DB	01H
	DB	01H
	DB	01H
	DB	01H
	DB	0bH
	DB	02H
	DB	04H
	DB	01eH
	DB	08H
	DB	05H
	DB	05H
	DB	026H
	DB	012H
	DB	012H
	DB	012H
	DB	012H
	DB	05H
	DB	05H
	DB	05H
	DB	05H
	DB	012H
	DB	09H
	DB	012H
	DB	09H
	DB	0cH
	DB	04H
	DB	01H
	DB	03H
	DB	036H
	DB	06H
	DB	04H
	DB	04H
	DB	04H
	DB	04H
	DB	04H
	DB	042H
	DB	042H
	DB	01eH
	DB	06H
	DB	04H
	DB	04H
	DB	06H
	DB	08H
	DB	06H
	DB	06H
	DB	04H
	DB	04H
	DB	02H
	DB	03H
	DB	0bH
	DB	02H
	DB	02H
	DB	02H
	DB	03H
	DB	03H
	DB	02H
	DB	01eH
	DB	01eH
	DB	04H
	DB	04H
	DB	02H
	DB	04H
	DB	04H
	DB	02H
	DB	02H
	DB	02H
	DB	03H
	DB	0bH
	DB	0bH
	DB	0bH
	DB	013H
	DB	0bH
	DB	0bH
	DB	0bH
	DB	0bH
	DB	013H
	DB	013H
	DB	03H
	DB	02H
	DB	02H
	DB	02H
	DB	03H
	DB	03H
	DB	03H
	DB	02H
	DB	02H
	DB	02H
	DB	02H
	DB	04H
	DB	04H
	DB	04H
	DB	04H
	DB	04H
	DB	08H
	DB	06H
	DB	06H
	DB	06H
	DB	01eH
	DB	01eH
	DB	06H
	DB	04H
	DB	04H
	DB	04H
	DB	036H
	DB	03H
	DB	02H
	DB	03H
	DB	0bH
	DB	03H
	DB	03H
	DB	036H
	DB	04H
	DB	04H
	DB	01eH
	DB	08H
	DB	01eH
	DB	036H
	DB	066H
	DB	052H
	DB	08dH
	DB	0eH
	DB	0eH
	DB	0eH
	DB	0eH
	DB	0eH
	DB	0eH
	DB	0eH
	DB	0eH
	DB	0eH
	DB	065H
	DB	01H
	DB	07H
	DB	07H
	DB	07H
	DB	07H
	DB	07H
	DB	07H
	DB	07H
	DB	07H
	DB	07H
	DB	07H
	DB	07H
	DB	07H
	DB	07H
	DB	07H
	DB	07H
	DB	07H
	DB	07H
	DB	01H
	DB	01H
	DB	07H
	DB	01H
	DB	07H
	DB	01H
	DB	01H
	DB	013H
	DB	02H
	DB	04H
	DB	01eH
	DB	05H
	DB	08H
	DB	036H
	DB	036H
	DB	02H
	DB	036H
	DB	04H
	DB	04H
	DB	036H
	DB	036H
	DB	036H
	DB	036H
	DB	03H
	DB	03H
	DB	02H
	DB	02H
	DB	02H
	DB	04H
	DB	04H
	DB	04H
	DB	02H
	DB	02H
	DB	02H
	DB	02H
	DB	03H
	DB	02H
	DB	02H
	DB	02H
	DB	02H
	DB	02H
	DB	02H
	DB	04H
	DB	04H
	DB	06H
	DB	06H
	DB	04H
	DB	04H
	DB	02H
	DB	02H
	DB	04H
	DB	06H
	DB	06H
	DB	04H
	DB	06H
	DB	04H
	DB	038H
	DB	04H
	DB	02H
	DB	03H
	DB	03H
	DB	03H
	DB	0bH
	DB	013H
	DB	013H
	DB	013H
	DB	013H
	DB	069H
	DB	013H
	DB	01H
	DB	01H
	DB	01H
	DB	01H
	DB	0bH
	DB	0bH
	DB	03H
	DB	0bH
	DB	01H
	DB	01H
	DB	013H
	DB	0bH
	DB	02H
	DB	02H
	DB	04H
	DB	06H
	DB	06H
	DB	06H
	DB	06H
	DB	06H
	DB	06H
	DB	01eH
	DB	01eH
	DB	08H
	DB	012H
	DB	0aH
	DB	0aH
	DB	05H
	DB	02H
	DB	02H
	DB	04H
	DB	04H
	DB	036H
	DB	036H
	DB	04H
	DB	06H
	DB	06H
	DB	042H
	DB	042H
	DB	06H
	DB	04H
	DB	042H
	DB	01eH
	DB	06H
	DB	04H
	DB	06H
	DB	06H
	DB	05H
	DB	05H
	DB	06H
	DB	06H
	DB	02H
	DB	03H
	DB	0bH
	DB	0bH
	DB	03H
	DB	02H
	DB	03H
	DB	03H
	DB	036H
	DB	01eH
	DB	01eH
	DB	06H
	DB	04H
	DB	02H
	DB	03H
	DB	02H
	DB	02H
	DB	02H
	DB	02H
	DB	03H
	DB	03H
	DB	0bH
	DB	03H
	DB	03H
	DB	03H
	DB	03H
	DB	02H
	DB	03H
	DB	0bH
	DB	01H
	DB	013H
	DB	03H
	DB	03H
	DB	0bH
	DB	01H
	DB	0bH
	DB	0bH
	DB	013H
	DB	013H
	DB	013H
	DB	013H
	DB	03H
	DB	03H
	DB	069H
	DB	02H
	DB	04H
	DB	06H
	DB	08H
	DB	08H
	DB	08H
	DB	08H
	DB	06H
	DB	06H
	DB	04H
	DB	04H
	DB	04H
	DB	036H
	DB	03H
	DB	03H
	DB	03H
	DB	03H
	DB	0bH
	DB	03H
	DB	036H
	DB	04H
	DB	04H
	DB	01eH
	DB	05H
	DB	05H
	DB	01eH
	DB	02H
	DB	0cdH
	DB	052H
	DB	0eH
	DB	0eH
	DB	0eH
	DB	0eH
	DB	0eH
	DB	0eH
	DB	052H
	DB	052H
	DB	052H
	DB	0eH
	DB	085H
	DB	0b3H
	DB	06H
	DB	03H
	DB	01H
	DB	01H
	DB	07H
	DB	07H
	DB	07H
	DB	07H
	DB	07H
	DB	07H
	DB	07H
	DB	07H
	DB	07H
	DB	07H
	DB	07H
	DB	07H
	DB	07H
	DB	07H
	DB	07H
	DB	07H
	DB	07H
	DB	07H
	DB	07H
	DB	07H
	DB	07H
	DB	01H
	DB	01H
	DB	02H
	DB	05H
	DB	012H
	DB	06H
	DB	036H
	DB	036H
	DB	036H
	DB	03H
	DB	036H
	DB	04H
	DB	036H
	DB	03H
	DB	03H
	DB	03H
	DB	02H
	DB	02H
	DB	02H
	DB	04H
	DB	04H
	DB	02H
	DB	03H
	DB	013H
	DB	01H
	DB	03H
	DB	02H
	DB	02H
	DB	02H
	DB	02H
	DB	02H
	DB	02H
	DB	02H
	DB	02H
	DB	02H
	DB	038H
	DB	06H
	DB	04H
	DB	04H
	DB	038H
	DB	04H
	DB	02H
	DB	02H
	DB	02H
	DB	04H
	DB	06H
	DB	05H
	DB	012H
	DB	05H
	DB	08H
	DB	08H
	DB	08H
	DB	06H
	DB	02H
	DB	03H
	DB	03H
	DB	069H
	DB	013H
	DB	013H
	DB	013H
	DB	013H
	DB	013H
	DB	013H
	DB	0bH
	DB	0bH
	DB	03H
	DB	03H
	DB	03H
	DB	03H
	DB	01H
	DB	01H
	DB	01H
	DB	01H
	DB	0bH
	DB	013H
	DB	02H
	DB	04H
	DB	04H
	DB	02H
	DB	04H
	DB	02H
	DB	04H
	DB	06H
	DB	04H
	DB	06H
	DB	06H
	DB	02H
	DB	01H
	DB	07H
	DB	07H
	DB	07H
	DB	04H
	DB	05H
	DB	01eH
	DB	04H
	DB	04H
	DB	04H
	DB	06H
	DB	06H
	DB	04H
	DB	04H
	DB	04H
	DB	04H
	DB	04H
	DB	04H
	DB	06H
	DB	08H
	DB	04H
	DB	04H
	DB	05H
	DB	01eH
	DB	042H
	DB	04H
	DB	02H
	DB	03H
	DB	0bH
	DB	01H
	DB	013H
	DB	03H
	DB	02H
	DB	06H
	DB	01eH
	DB	01eH
	DB	06H
	DB	04H
	DB	04H
	DB	02H
	DB	03H
	DB	03H
	DB	02H
	DB	02H
	DB	03H
	DB	0bH
	DB	01H
	DB	0bH
	DB	03H
	DB	02H
	DB	02H
	DB	03H
	DB	02H
	DB	02H
	DB	02H
	DB	02H
	DB	01H
	DB	013H
	DB	01H
	DB	01H
	DB	01H
	DB	01H
	DB	013H
	DB	01H
	DB	01H
	DB	013H
	DB	01H
	DB	013H
	DB	069H
	DB	013H
	DB	03H
	DB	02H
	DB	06H
	DB	06H
	DB	06H
	DB	06H
	DB	06H
	DB	06H
	DB	04H
	DB	02H
	DB	02H
	DB	03H
	DB	03H
	DB	013H
	DB	0bH
	DB	0bH
	DB	0bH
	DB	03H
	DB	036H
	DB	04H
	DB	06H
	DB	01eH
	DB	01eH
	DB	08H
	DB	06H
	DB	02H
	DB	0a4H
	DB	052H
	DB	0eH
	DB	052H
	DB	052H
	DB	052H
	DB	052H
	DB	052H
	DB	049H
	DB	049H
	DB	049H
	DB	08dH
	DB	0a3H
	DB	08cH
	DB	01bH
	DB	089H
	DB	03dH
	DB	012H
	DB	04H
	DB	0bH
	DB	07H
	DB	07H
	DB	07H
	DB	07H
	DB	07H
	DB	07H
	DB	07H
	DB	07H
	DB	07H
	DB	07H
	DB	07H
	DB	07H
	DB	07H
	DB	07H
	DB	07H
	DB	07H
	DB	07H
	DB	07H
	DB	07H
	DB	07H
	DB	07H
	DB	07H
	DB	01H
	DB	02H
	DB	08H
	DB	02H
	DB	03H
	DB	03H
	DB	03H
	DB	03H
	DB	03H
	DB	03H
	DB	036H
	DB	03H
	DB	01H
	DB	01H
	DB	013H
	DB	03H
	DB	013H
	DB	01H
	DB	01H
	DB	01H
	DB	01H
	DB	07H
	DB	01H
	DB	02H
	DB	02H
	DB	02H
	DB	02H
	DB	02H
	DB	02H
	DB	02H
	DB	02H
	DB	038H
	DB	02H
	DB	04H
	DB	06H
	DB	06H
	DB	04H
	DB	04H
	DB	04H
	DB	04H
	DB	04H
	DB	06H
	DB	012H
	DB	05H
	DB	08H
	DB	06H
	DB	08H
	DB	06H
	DB	06H
	DB	08H
	DB	08H
	DB	08H
	DB	04H
	DB	02H
	DB	02H
	DB	02H
	DB	069H
	DB	03H
	DB	0bH
	DB	03H
	DB	03H
	DB	03H
	DB	02H
	DB	03H
	DB	03H
	DB	03H
	DB	0bH
	DB	01H
	DB	01H
	DB	01H
	DB	01H
	DB	013H
	DB	03H
	DB	013H
	DB	013H
	DB	03H
	DB	03H
	DB	03H
	DB	03H
	DB	013H
	DB	013H
	DB	01H
	DB	07H
	DB	07H
	DB	07H
	DB	01H
	DB	04H
	DB	05H
	DB	0fH
	DB	016H
	DB	011H
	DB	09H
	DB	08H
	DB	04H
	DB	04H
	DB	04H
	DB	04H
	DB	04H
	DB	04H
	DB	04H
	DB	06H
	DB	06H
	DB	08H
	DB	04H
	DB	02H
	DB	03H
	DB	02H
	DB	06H
	DB	01eH
	DB	06H
	DB	04H
	DB	02H
	DB	0bH
	DB	01H
	DB	01H
	DB	02H
	DB	04H
	DB	01eH
	DB	06H
	DB	04H
	DB	02H
	DB	0bH
	DB	0bH
	DB	0bH
	DB	0bH
	DB	0bH
	DB	03H
	DB	03H
	DB	03H
	DB	0bH
	DB	0bH
	DB	0bH
	DB	03H
	DB	03H
	DB	03H
	DB	02H
	DB	06H
	DB	06H
	DB	04H
	DB	02H
	DB	013H
	DB	0bH
	DB	01H
	DB	013H
	DB	013H
	DB	01H
	DB	01H
	DB	0bH
	DB	013H
	DB	0bH
	DB	0bH
	DB	0bH
	DB	03H
	DB	03H
	DB	03H
	DB	02H
	DB	04H
	DB	06H
	DB	06H
	DB	04H
	DB	04H
	DB	04H
	DB	04H
	DB	02H
	DB	02H
	DB	03H
	DB	03H
	DB	03H
	DB	0bH
	DB	0bH
	DB	03H
	DB	04H
	DB	04H
	DB	06H
	DB	05H
	DB	05H
	DB	01eH
	DB	01eH
	DB	04H
	DB	08H
	DB	040H
	DB	049H
	DB	052H
	DB	049H
	DB	049H
	DB	049H
	DB	049H
	DB	049H
	DB	010H
	DB	010H
	DB	010H
	DB	08dH
	DB	0ecH
	DB	0b2H
	DB	0cH
	DB	014H
	DB	03dH
	DB	09H
	DB	012H
	DB	06H
	DB	0bH
	DB	07H
	DB	07H
	DB	01H
	DB	0bH
	DB	0bH
	DB	03H
	DB	03H
	DB	03H
	DB	03H
	DB	03H
	DB	02H
	DB	03H
	DB	03H
	DB	0bH
	DB	01H
	DB	07H
	DB	07H
	DB	07H
	DB	07H
	DB	07H
	DB	07H
	DB	01H
	DB	0bH
	DB	03H
	DB	02H
	DB	02H
	DB	02H
	DB	036H
	DB	03H
	DB	03H
	DB	03H
	DB	03H
	DB	03H
	DB	0bH
	DB	01H
	DB	07H
	DB	07H
	DB	07H
	DB	07H
	DB	07H
	DB	07H
	DB	01H
	DB	01H
	DB	01H
	DB	013H
	DB	02H
	DB	02H
	DB	02H
	DB	02H
	DB	04H
	DB	06H
	DB	06H
	DB	06H
	DB	06H
	DB	06H
	DB	08H
	DB	06H
	DB	06H
	DB	06H
	DB	04H
	DB	04H
	DB	06H
	DB	06H
	DB	08H
	DB	08H
	DB	06H
	DB	06H
	DB	02H
	DB	02H
	DB	02H
	DB	02H
	DB	04H
	DB	04H
	DB	06H
	DB	04H
	DB	04H
	DB	02H
	DB	02H
	DB	02H
	DB	02H
	DB	02H
	DB	03H
	DB	03H
	DB	036H
	DB	02H
	DB	03H
	DB	036H
	DB	03H
	DB	0bH
	DB	01H
	DB	01H
	DB	01H
	DB	01H
	DB	01H
	DB	01H
	DB	01H
	DB	01H
	DB	01H
	DB	01H
	DB	07H
	DB	07H
	DB	07H
	DB	07H
	DB	01H
	DB	02H
	DB	06H
	DB	05H
	DB	0aH
	DB	014H
	DB	014H
	DB	015H
	DB	01bH
	DB	011H
	DB	014H
	DB	0aH
	DB	05H
	DB	06H
	DB	04H
	DB	02H
	DB	02H
	DB	02H
	DB	04H
	DB	02H
	DB	01H
	DB	01H
	DB	0bH
	DB	01H
	DB	01H
	DB	0bH
	DB	03H
	DB	03H
	DB	03H
	DB	0bH
	DB	01H
	DB	01H
	DB	01H
	DB	03H
	DB	02H
	DB	013H
	DB	01H
	DB	07H
	DB	07H
	DB	07H
	DB	07H
	DB	07H
	DB	07H
	DB	07H
	DB	07H
	DB	01H
	DB	03H
	DB	03H
	DB	0bH
	DB	03H
	DB	03H
	DB	03H
	DB	02H
	DB	06H
	DB	04H
	DB	02H
	DB	03H
	DB	013H
	DB	013H
	DB	01H
	DB	01H
	DB	01H
	DB	01H
	DB	01H
	DB	013H
	DB	013H
	DB	01H
	DB	01H
	DB	0bH
	DB	0bH
	DB	013H
	DB	013H
	DB	013H
	DB	069H
	DB	02H
	DB	04H
	DB	04H
	DB	04H
	DB	04H
	DB	04H
	DB	02H
	DB	02H
	DB	0bH
	DB	0bH
	DB	03H
	DB	03H
	DB	03H
	DB	03H
	DB	04H
	DB	04H
	DB	06H
	DB	08H
	DB	05H
	DB	08H
	DB	05H
	DB	08H
	DB	04H
	DB	0cH
	DB	03fH
	DB	010H
	DB	049H
	DB	010H
	DB	010H
	DB	010H
	DB	010H
	DB	010H
	DB	010H
	DB	010H
	DB	010H
	DB	0eH
	DB	02dH
	DB	0b2H
	DB	05H
	DB	05H
	DB	08H
	DB	06H
	DB	02H
	DB	0bH
	DB	01H
	DB	01H
	DB	03H
	DB	036H
	DB	04H
	DB	042H
	DB	06H
	DB	042H
	DB	04H
	DB	06H
	DB	01eH
	DB	08H
	DB	012H
	DB	0aH
	DB	09H
	DB	09H
	DB	026H
	DB	06H
	DB	04H
	DB	04H
	DB	04H
	DB	04H
	DB	02H
	DB	02H
	DB	02H
	DB	042H
	DB	04H
	DB	04H
	DB	036H
	DB	036H
	DB	04H
	DB	04H
	DB	02H
	DB	03H
	DB	036H
	DB	03H
	DB	0bH
	DB	0bH
	DB	01H
	DB	01H
	DB	01H
	DB	013H
	DB	013H
	DB	03H
	DB	03H
	DB	069H
	DB	038H
	DB	06H
	DB	038H
	DB	06H
	DB	08H
	DB	08H
	DB	08H
	DB	08H
	DB	06H
	DB	04H
	DB	04H
	DB	06H
	DB	06H
	DB	038H
	DB	06H
	DB	06H
	DB	06H
	DB	08H
	DB	06H
	DB	06H
	DB	06H
	DB	06H
	DB	06H
	DB	06H
	DB	038H
	DB	02H
	DB	03H
	DB	069H
	DB	02H
	DB	04H
	DB	04H
	DB	04H
	DB	02H
	DB	02H
	DB	02H
	DB	03H
	DB	03H
	DB	03H
	DB	02H
	DB	02H
	DB	036H
	DB	036H
	DB	03H
	DB	03H
	DB	02H
	DB	02H
	DB	01H
	DB	01H
	DB	01H
	DB	07H
	DB	07H
	DB	07H
	DB	07H
	DB	07H
	DB	07H
	DB	07H
	DB	07H
	DB	01H
	DB	02H
	DB	06H
	DB	05H
	DB	0aH
	DB	014H
	DB	0cH
	DB	09H
	DB	0fH
	DB	01bH
	DB	015H
	DB	011H
	DB	0fH
	DB	0cH
	DB	09H
	DB	09H
	DB	0aH
	DB	05H
	DB	05H
	DB	06H
	DB	04H
	DB	06H
	DB	02H
	DB	02H
	DB	013H
	DB	07H
	DB	07H
	DB	07H
	DB	07H
	DB	07H
	DB	07H
	DB	07H
	DB	07H
	DB	07H
	DB	07H
	DB	07H
	DB	07H
	DB	07H
	DB	07H
	DB	07H
	DB	07H
	DB	07H
	DB	07H
	DB	07H
	DB	07H
	DB	07H
	DB	07H
	DB	01H
	DB	0bH
	DB	03H
	DB	03H
	DB	03H
	DB	03H
	DB	04H
	DB	04H
	DB	036H
	DB	02H
	DB	03H
	DB	013H
	DB	01H
	DB	03H
	DB	03H
	DB	03H
	DB	02H
	DB	02H
	DB	02H
	DB	03H
	DB	03H
	DB	013H
	DB	01H
	DB	0bH
	DB	01H
	DB	03H
	DB	03H
	DB	03H
	DB	02H
	DB	04H
	DB	02H
	DB	02H
	DB	02H
	DB	02H
	DB	03H
	DB	03H
	DB	03H
	DB	03H
	DB	0bH
	DB	0bH
	DB	03H
	DB	04H
	DB	04H
	DB	06H
	DB	01eH
	DB	01eH
	DB	05H
	DB	05H
	DB	01eH
	DB	01eH
	DB	036H
	DB	089H
	DB	05bH
	DB	04aH
	DB	010H
	DB	010H
	DB	010H
	DB	010H
	DB	010H
	DB	010H
	DB	010H
	DB	010H
	DB	04aH
	DB	052H
	DB	055H
	DB	03dH
	DB	04H
	DB	06H
	DB	04H
	DB	02H
	DB	03H
	DB	0bH
	DB	0bH
	DB	036H
	DB	04H
	DB	042H
	DB	06H
	DB	04H
	DB	06H
	DB	06H
	DB	05H
	DB	09H
	DB	014H
	DB	014H
	DB	0fH
	DB	0fH
	DB	0fH
	DB	011H
	DB	015H
	DB	015H
	DB	011H
	DB	011H
	DB	011H
	DB	0fH
	DB	0cH
	DB	09H
	DB	0aH
	DB	0d6H
	DB	036H
	DB	036H
	DB	036H
	DB	036H
	DB	04H
	DB	04H
	DB	04H
	DB	036H
	DB	036H
	DB	036H
	DB	036H
	DB	03H
	DB	03H
	DB	03H
	DB	03H
	DB	03H
	DB	02H
	DB	02H
	DB	03H
	DB	02H
	DB	04H
	DB	05H
	DB	05H
	DB	05H
	DB	05H
	DB	05H
	DB	05H
	DB	05H
	DB	08H
	DB	04H
	DB	04H
	DB	04H
	DB	04H
	DB	038H
	DB	06H
	DB	04H
	DB	038H
	DB	06H
	DB	06H
	DB	06H
	DB	06H
	DB	04H
	DB	06H
	DB	06H
	DB	06H
	DB	04H
	DB	02H
	DB	069H
	DB	013H
	DB	02H
	DB	02H
	DB	03H
	DB	013H
	DB	013H
	DB	013H
	DB	03H
	DB	013H
	DB	0bH
	DB	0bH
	DB	0bH
	DB	036H
	DB	036H
	DB	06H
	DB	012H
	DB	01eH
	DB	04H
	DB	03H
	DB	03H
	DB	01H
	DB	07H
	DB	07H
	DB	07H
	DB	07H
	DB	07H
	DB	07H
	DB	013H
	DB	02H
	DB	02H
	DB	02H
	DB	08H
	DB	09H
	DB	0cH
	DB	0fH
	DB	0fH
	DB	0cH
	DB	0cH
	DB	011H
	DB	015H
	DB	015H
	DB	01bH
	DB	015H
	DB	015H
	DB	0fH
	DB	0fH
	DB	011H
	DB	0fH
	DB	0fH
	DB	011H
	DB	011H
	DB	011H
	DB	0fH
	DB	014H
	DB	06H
	DB	0bH
	DB	01H
	DB	01H
	DB	01H
	DB	01H
	DB	0bH
	DB	03H
	DB	02H
	DB	03H
	DB	02H
	DB	02H
	DB	01eH
	DB	05H
	DB	05H
	DB	0d6H
	DB	06H
	DB	02H
	DB	0bH
	DB	01H
	DB	07H
	DB	07H
	DB	07H
	DB	07H
	DB	01H
	DB	0bH
	DB	03H
	DB	04H
	DB	02H
	DB	03H
	DB	0bH
	DB	01H
	DB	01H
	DB	03H
	DB	02H
	DB	04H
	DB	02H
	DB	02H
	DB	04H
	DB	02H
	DB	02H
	DB	02H
	DB	02H
	DB	03H
	DB	013H
	DB	01H
	DB	013H
	DB	013H
	DB	0bH
	DB	03H
	DB	02H
	DB	02H
	DB	04H
	DB	04H
	DB	02H
	DB	03H
	DB	03H
	DB	0bH
	DB	0bH
	DB	0bH
	DB	01H
	DB	03H
	DB	036H
	DB	036H
	DB	04H
	DB	01eH
	DB	01eH
	DB	01eH
	DB	01eH
	DB	01eH
	DB	01eH
	DB	06H
	DB	03H
	DB	0d5H
	DB	06eH
	DB	04aH
	DB	010H
	DB	010H
	DB	010H
	DB	010H
	DB	010H
	DB	010H
	DB	04aH
	DB	04aH
	DB	04aH
	DB	010H
	DB	0bdH
	DB	01dH
	DB	03H
	DB	04H
	DB	04H
	DB	02H
	DB	013H
	DB	03H
	DB	042H
	DB	0d6H
	DB	042H
	DB	0fdH
	DB	06H
	DB	06H
	DB	06H
	DB	05H
	DB	0aH
	DB	014H
	DB	0cH
	DB	0cH
	DB	0cH
	DB	0cH
	DB	0fH
	DB	0fH
	DB	011H
	DB	015H
	DB	01bH
	DB	015H
	DB	015H
	DB	0faH
	DB	0aH
	DB	012H
	DB	09H
	DB	012H
	DB	06H
	DB	06H
	DB	01eH
	DB	05H
	DB	06H
	DB	04H
	DB	04H
	DB	04H
	DB	04H
	DB	036H
	DB	036H
	DB	02H
	DB	03H
	DB	03H
	DB	03H
	DB	03H
	DB	03H
	DB	02H
	DB	02H
	DB	02H
	DB	04H
	DB	06H
	DB	012H
	DB	012H
	DB	012H
	DB	012H
	DB	05H
	DB	08H
	DB	08H
	DB	04H
	DB	02H
	DB	02H
	DB	06H
	DB	04H
	DB	038H
	DB	04H
	DB	04H
	DB	02H
	DB	02H
	DB	02H
	DB	02H
	DB	02H
	DB	02H
	DB	02H
	DB	02H
	DB	03H
	DB	013H
	DB	0bH
	DB	013H
	DB	013H
	DB	013H
	DB	013H
	DB	013H
	DB	01H
	DB	01H
	DB	01H
	DB	01H
	DB	01H
	DB	01H
	DB	036H
	DB	01eH
	DB	05H
	DB	01eH
	DB	03H
	DB	01H
	DB	01H
	DB	01H
	DB	01H
	DB	01H
	DB	03H
	DB	0bH
	DB	0bH
	DB	01H
	DB	0bH
	DB	04H
	DB	06H
	DB	01eH
	DB	08H
	DB	05H
	DB	0aH
	DB	014H
	DB	0cH
	DB	0cH
	DB	03dH
	DB	03dH
	DB	03dH
	DB	0faH
	DB	011H
	DB	015H
	DB	015H
	DB	01bH
	DB	01bH
	DB	015H
	DB	011H
	DB	0cH
	DB	0cH
	DB	011H
	DB	011H
	DB	015H
	DB	0fH
	DB	0aH
	DB	012H
	DB	0aH
	DB	02fH
	DB	012H
	DB	012H
	DB	026H
	DB	05H
	DB	026H
	DB	09H
	DB	033H
	DB	033H
	DB	033H
	DB	033H
	DB	014H
	DB	09H
	DB	02fH
	DB	034H
	DB	09H
	DB	0aH
	DB	05H
	DB	06H
	DB	06H
	DB	06H
	DB	04H
	DB	02H
	DB	03H
	DB	0bH
	DB	03H
	DB	0bH
	DB	01H
	DB	01H
	DB	01H
	DB	01H
	DB	01H
	DB	0bH
	DB	03H
	DB	03H
	DB	02H
	DB	03H
	DB	03H
	DB	03H
	DB	03H
	DB	03H
	DB	03H
	DB	03H
	DB	013H
	DB	0bH
	DB	0bH
	DB	013H
	DB	03H
	DB	03H
	DB	02H
	DB	02H
	DB	02H
	DB	04H
	DB	02H
	DB	03H
	DB	0bH
	DB	03H
	DB	0bH
	DB	01H
	DB	0bH
	DB	036H
	DB	04H
	DB	04H
	DB	01eH
	DB	01eH
	DB	01eH
	DB	01eH
	DB	06H
	DB	06H
	DB	042H
	DB	04H
	DB	03H
	DB	05fH
	DB	06dH
	DB	017H
	DB	04aH
	DB	04aH
	DB	04aH
	DB	04aH
	DB	04aH
	DB	04aH
	DB	017H
	DB	017H
	DB	017H
	DB	017H
	DB	0bbH
	DB	02bH
	DB	01H
	DB	02H
	DB	03H
	DB	013H
	DB	02H
	DB	04H
	DB	042H
	DB	0d6H
	DB	0d6H
	DB	0d6H
	DB	01eH
	DB	05H
	DB	012H
	DB	012H
	DB	05H
	DB	05H
	DB	012H
	DB	0aH
	DB	09H
	DB	014H
	DB	0fH
	DB	0fH
	DB	0fH
	DB	0cH
	DB	014H
	DB	09H
	DB	012H
	DB	08H
	DB	04H
	DB	02H
	DB	02H
	DB	04H
	DB	01eH
	DB	05H
	DB	0aH
	DB	012H
	DB	05H
	DB	01eH
	DB	01eH
	DB	04H
	DB	04H
	DB	04H
	DB	04H
	DB	04H
	DB	02H
	DB	03H
	DB	03H
	DB	02H
	DB	04H
	DB	04H
	DB	06H
	DB	04H
	DB	06H
	DB	04H
	DB	08H
	DB	012H
	DB	05H
	DB	08H
	DB	06H
	DB	02H
	DB	02H
	DB	02H
	DB	02H
	DB	038H
	DB	038H
	DB	06H
	DB	04H
	DB	04H
	DB	02H
	DB	02H
	DB	03H
	DB	02H
	DB	03H
	DB	069H
	DB	013H
	DB	013H
	DB	013H
	DB	0bH
	DB	013H
	DB	01H
	DB	01H
	DB	01H
	DB	01H
	DB	01H
	DB	0bH
	DB	01H
	DB	01H
	DB	01H
	DB	01H
	DB	01H
	DB	03H
	DB	02H
	DB	02H
	DB	03H
	DB	0bH
	DB	01H
	DB	07H
	DB	07H
	DB	07H
	DB	07H
	DB	07H
	DB	01H
	DB	07H
	DB	01H
	DB	02H
	DB	01eH
	DB	05H
	DB	05H
	DB	0aH
	DB	014H
	DB	0fH
	DB	0fH
	DB	0fH
	DB	0cH
	DB	0cH
	DB	014H
	DB	09H
	DB	0aH
	DB	03dH
	DB	0cH
	DB	0faH
	DB	011H
	DB	015H
	DB	015H
	DB	015H
	DB	015H
	DB	015H
	DB	011H
	DB	0fH
	DB	0cH
	DB	09H
	DB	05H
	DB	08H
	DB	012H
	DB	09H
	DB	014H
	DB	09H
	DB	02fH
	DB	026H
	DB	06H
	DB	0bH
	DB	0bH
	DB	03H
	DB	02H
	DB	02H
	DB	02H
	DB	03H
	DB	03H
	DB	036H
	DB	04H
	DB	06H
	DB	05H
	DB	026H
	DB	09H
	DB	09H
	DB	068H
	DB	05H
	DB	06H
	DB	04H
	DB	036H
	DB	013H
	DB	07H
	DB	07H
	DB	07H
	DB	07H
	DB	07H
	DB	07H
	DB	01H
	DB	013H
	DB	02H
	DB	03H
	DB	03H
	DB	01H
	DB	01H
	DB	01H
	DB	01H
	DB	0bH
	DB	013H
	DB	0bH
	DB	013H
	DB	013H
	DB	03H
	DB	03H
	DB	03H
	DB	03H
	DB	02H
	DB	02H
	DB	03H
	DB	02H
	DB	03H
	DB	0bH
	DB	0bH
	DB	0bH
	DB	03H
	DB	036H
	DB	036H
	DB	04H
	DB	01eH
	DB	01eH
	DB	01eH
	DB	01eH
	DB	01eH
	DB	06H
	DB	04H
	DB	06H
	DB	04H
	DB	0bH
	DB	0f8H
	DB	06cH
	DB	017H
	DB	060H
	DB	017H
	DB	017H
	DB	017H
	DB	017H
	DB	017H
	DB	017H
	DB	017H
	DB	017H
	DB	07cH
	DB	0baH
	DB	02aH
	DB	07H
	DB	03H
	DB	013H
	DB	04H
	DB	08H
	DB	05H
	DB	05H
	DB	034H
	DB	02fH
	DB	02fH
	DB	02fH
	DB	09H
	DB	014H
	DB	09H
	DB	012H
	DB	0aH
	DB	012H
	DB	0aH
	DB	09H
	DB	09H
	DB	0aH
	DB	08H
	DB	06H
	DB	06H
	DB	08H
	DB	06H
	DB	02H
	DB	02H
	DB	02H
	DB	02H
	DB	04H
	DB	04H
	DB	08H
	DB	05H
	DB	05H
	DB	06H
	DB	01eH
	DB	05H
	DB	01eH
	DB	01eH
	DB	01eH
	DB	06H
	DB	04H
	DB	04H
	DB	04H
	DB	06H
	DB	04H
	DB	02H
	DB	02H
	DB	036H
	DB	04H
	DB	04H
	DB	06H
	DB	038H
	DB	08H
	DB	08H
	DB	06H
	DB	02H
	DB	02H
	DB	03H
	DB	013H
	DB	069H
	DB	02H
	DB	04H
	DB	02H
	DB	02H
	DB	02H
	DB	02H
	DB	02H
	DB	02H
	DB	03H
	DB	069H
	DB	013H
	DB	013H
	DB	01H
	DB	01H
	DB	01H
	DB	01H
	DB	01H
	DB	01H
	DB	01H
	DB	07H
	DB	07H
	DB	07H
	DB	07H
	DB	01H
	DB	01H
	DB	0bH
	DB	03H
	DB	03H
	DB	0bH
	DB	01H
	DB	01H
	DB	01H
	DB	01H
	DB	0bH
	DB	03H
	DB	0bH
	DB	01H
	DB	01H
	DB	07H
	DB	01H
	DB	0bH
	DB	02H
	DB	05H
	DB	012H
	DB	09H
	DB	0fH
	DB	011H
	DB	01bH
	DB	01bH
	DB	015H
	DB	011H
	DB	0fH
	DB	0cH
	DB	014H
	DB	09H
	DB	012H
	DB	0aH
	DB	09H
	DB	0cH
	DB	0cH
	DB	0cH
	DB	0cH
	DB	089H
	DB	011H
	DB	011H
	DB	0faH
	DB	03dH
	DB	05H
	DB	08H
	DB	06H
	DB	08H
	DB	05H
	DB	09H
	DB	09H
	DB	09H
	DB	09H
	DB	05H
	DB	06H
	DB	02H
	DB	01H
	DB	01H
	DB	07H
	DB	07H
	DB	07H
	DB	01H
	DB	01H
	DB	0bH
	DB	0bH
	DB	03H
	DB	02H
	DB	08H
	DB	014H
	DB	09H
	DB	034H
	DB	05H
	DB	026H
	DB	01eH
	DB	04H
	DB	04H
	DB	04H
	DB	02H
	DB	03H
	DB	01H
	DB	01H
	DB	07H
	DB	07H
	DB	07H
	DB	07H
	DB	01H
	DB	03H
	DB	02H
	DB	03H
	DB	03H
	DB	01H
	DB	07H
	DB	07H
	DB	01H
	DB	01H
	DB	013H
	DB	013H
	DB	0bH
	DB	013H
	DB	0bH
	DB	0bH
	DB	03H
	DB	03H
	DB	03H
	DB	03H
	DB	0bH
	DB	01H
	DB	013H
	DB	02H
	DB	036H
	DB	04H
	DB	06H
	DB	01eH
	DB	01eH
	DB	01eH
	DB	01eH
	DB	01eH
	DB	01eH
	DB	06H
	DB	04H
	DB	04H
	DB	03H
	DB	0adH
	DB	027H
	DB	018H
	DB	017H
	DB	017H
	DB	017H
	DB	017H
	DB	017H
	DB	017H
	DB	04bH
	DB	04bH
	DB	018H
	DB	08fH
	DB	07eH
	DB	071H
	DB	01H
	DB	04H
	DB	08H
	DB	0aH
	DB	09H
	DB	09H
	DB	09H
	DB	09H
	DB	09H
	DB	014H
	DB	014H
	DB	033H
	DB	0fH
	DB	0fH
	DB	09H
	DB	02fH
	DB	014H
	DB	014H
	DB	0aH
	DB	04H
	DB	01H
	DB	01H
	DB	0bH
	DB	02H
	DB	03H
	DB	01H
	DB	013H
	DB	03H
	DB	02H
	DB	04H
	DB	04H
	DB	01eH
	DB	01eH
	DB	01eH
	DB	04H
	DB	04H
	DB	06H
	DB	04H
	DB	06H
	DB	01eH
	DB	01eH
	DB	06H
	DB	06H
	DB	06H
	DB	08H
	DB	05H
	DB	06H
	DB	04H
	DB	02H
	DB	013H
	DB	013H
	DB	069H
	DB	03H
	DB	02H
	DB	069H
	DB	069H
	DB	038H
	DB	02H
	DB	013H
	DB	013H
	DB	03H
	DB	03H
	DB	0bH
	DB	013H
	DB	0bH
	DB	01H
	DB	013H
	DB	013H
	DB	013H
	DB	01H
	DB	01H
	DB	01H
	DB	07H
	DB	01H
	DB	01H
	DB	07H
	DB	07H
	DB	07H
	DB	07H
	DB	01H
	DB	07H
	DB	07H
	DB	07H
	DB	07H
	DB	07H
	DB	07H
	DB	01H
	DB	0bH
	DB	03H
	DB	02H
	DB	03H
	DB	03H
	DB	03H
	DB	03H
	DB	03H
	DB	03H
	DB	03H
	DB	036H
	DB	03H
	DB	03H
	DB	0bH
	DB	013H
	DB	0bH
	DB	04H
	DB	08H
	DB	0aH
	DB	09H
	DB	03dH
	DB	03dH
	DB	03dH
	DB	03dH
	DB	03dH
	DB	0b2H
	DB	03dH
	DB	09H
	DB	09H
	DB	012H
	DB	05H
	DB	012H
	DB	0aH
	DB	0aH
	DB	09H
	DB	09H
	DB	014H
	DB	014H
	DB	09H
	DB	0aH
	DB	05H
	DB	08H
	DB	04H
	DB	02H
	DB	02H
	DB	013H
	DB	013H
	DB	013H
	DB	013H
	DB	013H
	DB	013H
	DB	013H
	DB	03H
	DB	0bH
	DB	01H
	DB	01H
	DB	01H
	DB	01H
	DB	01H
	DB	01H
	DB	07H
	DB	01H
	DB	01H
	DB	013H
	DB	02H
	DB	08H
	DB	012H
	DB	02fH
	DB	02fH
	DB	02fH
	DB	09H
	DB	09H
	DB	0aH
	DB	012H
	DB	026H
	DB	05H
	DB	01eH
	DB	01eH
	DB	08H
	DB	06H
	DB	04H
	DB	02H
	DB	01H
	DB	07H
	DB	07H
	DB	07H
	DB	013H
	DB	02H
	DB	03H
	DB	01H
	DB	01H
	DB	01H
	DB	01H
	DB	013H
	DB	0bH
	DB	01H
	DB	01H
	DB	013H
	DB	013H
	DB	02H
	DB	03H
	DB	02H
	DB	03H
	DB	0bH
	DB	013H
	DB	02H
	DB	02H
	DB	04H
	DB	01eH
	DB	01eH
	DB	01eH
	DB	01eH
	DB	01eH
	DB	08H
	DB	01eH
	DB	01eH
	DB	01eH
	DB	01eH
	DB	06H
	DB	036H
	DB	02eH
	DB	063H
	DB	01cH
	DB	08fH
	DB	04bH
	DB	04bH
	DB	04bH
	DB	04bH
	DB	04bH
	DB	04dH
	DB	04dH
	DB	01cH
	DB	018H
	DB	01aH
	DB	072H
	DB	03H
	DB	0aH
	DB	0cH
	DB	014H
	DB	0cH
	DB	014H
	DB	014H
	DB	014H
	DB	014H
	DB	0fH
	DB	011H
	DB	011H
	DB	0fH
	DB	011H
	DB	011H
	DB	011H
	DB	03dH
	DB	08H
	DB	013H
	DB	07H
	DB	07H
	DB	01H
	DB	03H
	DB	03H
	DB	03H
	DB	01H
	DB	01H
	DB	01H
	DB	01H
	DB	013H
	DB	02H
	DB	04H
	DB	04H
	DB	04H
	DB	02H
	DB	04H
	DB	04H
	DB	04H
	DB	04H
	DB	04H
	DB	06H
	DB	05H
	DB	026H
	DB	09H
	DB	0cH
	DB	0fH
	DB	03dH
	DB	012H
	DB	04H
	DB	013H
	DB	01H
	DB	07H
	DB	07H
	DB	07H
	DB	07H
	DB	07H
	DB	01H
	DB	01H
	DB	07H
	DB	07H
	DB	07H
	DB	07H
	DB	07H
	DB	07H
	DB	01H
	DB	01H
	DB	07H
	DB	07H
	DB	01H
	DB	07H
	DB	07H
	DB	07H
	DB	07H
	DB	07H
	DB	07H
	DB	07H
	DB	07H
	DB	07H
	DB	07H
	DB	07H
	DB	07H
	DB	07H
	DB	07H
	DB	07H
	DB	07H
	DB	07H
	DB	07H
	DB	07H
	DB	01H
	DB	0bH
	DB	03H
	DB	036H
	DB	036H
	DB	036H
	DB	036H
	DB	02H
	DB	03H
	DB	036H
	DB	036H
	DB	036H
	DB	03H
	DB	0bH
	DB	03H
	DB	0bH
	DB	0bH
	DB	013H
	DB	013H
	DB	02H
	DB	02H
	DB	02H
	DB	04H
	DB	038H
	DB	06H
	DB	08H
	DB	08H
	DB	05H
	DB	05H
	DB	05H
	DB	012H
	DB	0aH
	DB	0aH
	DB	012H
	DB	012H
	DB	012H
	DB	05H
	DB	05H
	DB	05H
	DB	05H
	DB	08H
	DB	06H
	DB	02H
	DB	013H
	DB	01H
	DB	01H
	DB	01H
	DB	07H
	DB	07H
	DB	07H
	DB	07H
	DB	01H
	DB	0bH
	DB	03H
	DB	0bH
	DB	0bH
	DB	0bH
	DB	0bH
	DB	0bH
	DB	0bH
	DB	0bH
	DB	02H
	DB	01eH
	DB	05H
	DB	05H
	DB	05H
	DB	012H
	DB	0aH
	DB	014H
	DB	014H
	DB	014H
	DB	014H
	DB	014H
	DB	0cH
	DB	033H
	DB	09H
	DB	026H
	DB	012H
	DB	012H
	DB	0aH
	DB	05H
	DB	06H
	DB	04H
	DB	02H
	DB	02H
	DB	069H
	DB	01H
	DB	01H
	DB	01H
	DB	01H
	DB	01H
	DB	01H
	DB	01H
	DB	01H
	DB	01H
	DB	01H
	DB	03H
	DB	03H
	DB	0bH
	DB	03H
	DB	02H
	DB	02H
	DB	013H
	DB	03H
	DB	04H
	DB	06H
	DB	01eH
	DB	01eH
	DB	01eH
	DB	06H
	DB	06H
	DB	06H
	DB	06H
	DB	01eH
	DB	01eH
	DB	05H
	DB	05H
	DB	05H
	DB	04H
	DB	0acH
	DB	027H
	DB	0bbH
	DB	061H
	DB	04dH
	DB	04dH
	DB	04dH
	DB	04dH
	DB	04dH
	DB	022H
	DB	022H
	DB	022H
	DB	01cH
	DB	0c2H
	DB	076H
	DB	0bH
	DB	02H
	DB	09H
	DB	011H
	DB	011H
	DB	0fH
	DB	0fH
	DB	0fH
	DB	011H
	DB	015H
	DB	015H
	DB	0fH
	DB	0fH
	DB	0fH
	DB	0cH
	DB	0aH
	DB	02H
	DB	01H
	DB	07H
	DB	01H
	DB	01H
	DB	01H
	DB	013H
	DB	03H
	DB	02H
	DB	02H
	DB	03H
	DB	01H
	DB	01H
	DB	01H
	DB	01H
	DB	01H
	DB	0bH
	DB	013H
	DB	02H
	DB	04H
	DB	04H
	DB	05H
	DB	012H
	DB	014H
	DB	0fH
	DB	011H
	DB	015H
	DB	01bH
	DB	015H
	DB	015H
	DB	015H
	DB	015H
	DB	0cH
	DB	0aH
	DB	08H
	DB	04H
	DB	02H
	DB	013H
	DB	013H
	DB	013H
	DB	013H
	DB	0feH
	DB	01H
	DB	01H
	DB	07H
	DB	07H
	DB	07H
	DB	07H
	DB	07H
	DB	07H
	DB	07H
	DB	07H
	DB	07H
	DB	07H
	DB	07H
	DB	07H
	DB	07H
	DB	07H
	DB	07H
	DB	07H
	DB	07H
	DB	07H
	DB	07H
	DB	07H
	DB	07H
	DB	01H
	DB	01H
	DB	03H
	DB	03H
	DB	03H
	DB	03H
	DB	02H
	DB	04H
	DB	06H
	DB	04H
	DB	04H
	DB	04H
	DB	036H
	DB	036H
	DB	036H
	DB	036H
	DB	036H
	DB	036H
	DB	036H
	DB	04H
	DB	04H
	DB	04H
	DB	02H
	DB	0bH
	DB	0bH
	DB	03H
	DB	02H
	DB	02H
	DB	04H
	DB	08H
	DB	05H
	DB	05H
	DB	05H
	DB	08H
	DB	08H
	DB	048H
	DB	048H
	DB	08H
	DB	08H
	DB	08H
	DB	08H
	DB	08H
	DB	08H
	DB	08H
	DB	06H
	DB	06H
	DB	02H
	DB	02H
	DB	069H
	DB	013H
	DB	03H
	DB	03H
	DB	069H
	DB	0bH
	DB	01H
	DB	01H
	DB	01H
	DB	01H
	DB	01H
	DB	0bH
	DB	03H
	DB	03H
	DB	03H
	DB	02H
	DB	02H
	DB	04H
	DB	01eH
	DB	05H
	DB	05H
	DB	05H
	DB	05H
	DB	08H
	DB	06H
	DB	01eH
	DB	05H
	DB	012H
	DB	09H
	DB	09H
	DB	09H
	DB	09H
	DB	014H
	DB	014H
	DB	014H
	DB	09H
	DB	012H
	DB	05H
	DB	08H
	DB	06H
	DB	01eH
	DB	01eH
	DB	05H
	DB	05H
	DB	026H
	DB	05H
	DB	06H
	DB	02H
	DB	013H
	DB	01H
	DB	01H
	DB	01H
	DB	01H
	DB	01H
	DB	01H
	DB	01H
	DB	013H
	DB	013H
	DB	013H
	DB	01H
	DB	0bH
	DB	02H
	DB	06H
	DB	05H
	DB	05H
	DB	01eH
	DB	01eH
	DB	08H
	DB	08H
	DB	05H
	DB	08H
	DB	01eH
	DB	05H
	DB	08H
	DB	08H
	DB	05H
	DB	05H
	DB	02H
	DB	0acH
	DB	0e1H
	DB	020H
	DB	043H
	DB	022H
	DB	022H
	DB	022H
	DB	022H
	DB	022H
	DB	023H
	DB	023H
	DB	023H
	DB	043H
	DB	06eH
	DB	0b1H
	DB	0bH
	DB	01H
	DB	013H
	DB	08H
	DB	03dH
	DB	0fH
	DB	0fH
	DB	0d5H
	DB	01bH
	DB	0faH
	DB	0cH
	DB	03dH
	DB	0aH
	DB	08H
	DB	02H
	DB	013H
	DB	013H
	DB	01H
	DB	01H
	DB	01H
	DB	01H
	DB	013H
	DB	03H
	DB	03H
	DB	02H
	DB	02H
	DB	03H
	DB	02H
	DB	03H
	DB	06H
	DB	09H
	DB	0fH
	DB	09H
	DB	012H
	DB	09H
	DB	011H
	DB	016H
	DB	016H
	DB	016H
	DB	016H
	DB	016H
	DB	016H
	DB	016H
	DB	01bH
	DB	011H
	DB	0fH
	DB	0cH
	DB	0cH
	DB	0cH
	DB	0fH
	DB	015H
	DB	015H
	DB	0faH
	DB	0fH
	DB	0cH
	DB	014H
	DB	09H
	DB	03dH
	DB	03dH
	DB	05H
	DB	04H
	DB	03H
	DB	01H
	DB	07H
	DB	01H
	DB	01H
	DB	013H
	DB	013H
	DB	069H
	DB	02H
	DB	02H
	DB	02H
	DB	069H
	DB	03H
	DB	01H
	DB	01H
	DB	03H
	DB	01eH
	DB	012H
	DB	05H
	DB	05H
	DB	012H
	DB	09H
	DB	014H
	DB	09H
	DB	012H
	DB	012H
	DB	012H
	DB	012H
	DB	05H
	DB	05H
	DB	01eH
	DB	042H
	DB	04H
	DB	036H
	DB	02H
	DB	036H
	DB	036H
	DB	036H
	DB	04H
	DB	04H
	DB	042H
	DB	04H
	DB	036H
	DB	036H
	DB	036H
	DB	02H
	DB	04H
	DB	08H
	DB	012H
	DB	0aH
	DB	0aH
	DB	0aH
	DB	012H
	DB	05H
	DB	05H
	DB	08H
	DB	08H
	DB	06H
	DB	04H
	DB	08H
	DB	08H
	DB	06H
	DB	06H
	DB	06H
	DB	08H
	DB	06H
	DB	04H
	DB	04H
	DB	04H
	DB	04H
	DB	04H
	DB	02H
	DB	03H
	DB	013H
	DB	013H
	DB	0bH
	DB	03H
	DB	0bH
	DB	03H
	DB	036H
	DB	036H
	DB	036H
	DB	04H
	DB	06H
	DB	06H
	DB	01eH
	DB	01eH
	DB	08H
	DB	05H
	DB	05H
	DB	05H
	DB	06H
	DB	06H
	DB	04H
	DB	06H
	DB	01eH
	DB	06H
	DB	06H
	DB	06H
	DB	08H
	DB	05H
	DB	05H
	DB	02fH
	DB	09H
	DB	09H
	DB	026H
	DB	05H
	DB	05H
	DB	05H
	DB	012H
	DB	012H
	DB	012H
	DB	05H
	DB	026H
	DB	09H
	DB	012H
	DB	06H
	DB	02H
	DB	03H
	DB	013H
	DB	01H
	DB	01H
	DB	01H
	DB	01H
	DB	01H
	DB	01H
	DB	01H
	DB	01H
	DB	01H
	DB	04H
	DB	06H
	DB	01eH
	DB	01eH
	DB	01eH
	DB	05H
	DB	05H
	DB	05H
	DB	05H
	DB	05H
	DB	08H
	DB	05H
	DB	05H
	DB	05H
	DB	012H
	DB	05H
	DB	013H
	DB	02bH
	DB	025H
	DB	094H
	DB	0bbH
	DB	023H
	DB	023H
	DB	023H
	DB	023H
	DB	023H
	DB	054H
	DB	054H
	DB	07eH
	DB	0baH
	DB	0e6H
	DB	089H
	DB	0bH
	DB	01H
	DB	013H
	DB	0bH
	DB	04H
	DB	0aH
	DB	0fH
	DB	0fH
	DB	014H
	DB	09H
	DB	0aH
	DB	08H
	DB	02H
	DB	03H
	DB	013H
	DB	0bH
	DB	01H
	DB	01H
	DB	01H
	DB	01H
	DB	0bH
	DB	03H
	DB	03H
	DB	069H
	DB	02H
	DB	02H
	DB	03H
	DB	04H
	DB	026H
	DB	014H
	DB	015H
	DB	0f9H
	DB	01fH
	DB	01fH
	DB	028H
	DB	01fH
	DB	030H
	DB	01dH
	DB	01dH
	DB	016H
	DB	0d5H
	DB	015H
	DB	015H
	DB	0fH
	DB	0cH
	DB	0fH
	DB	0cH
	DB	03dH
	DB	0fH
	DB	015H
	DB	011H
	DB	0faH
	DB	0faH
	DB	011H
	DB	015H
	DB	015H
	DB	0b2H
	DB	08H
	DB	05H
	DB	08H
	DB	06H
	DB	02H
	DB	02H
	DB	02H
	DB	04H
	DB	06H
	DB	012H
	DB	03dH
	DB	014H
	DB	09H
	DB	0aH
	DB	012H
	DB	05H
	DB	08H
	DB	08H
	DB	05H
	DB	0aH
	DB	09H
	DB	0cH
	DB	015H
	DB	015H
	DB	011H
	DB	014H
	DB	0aH
	DB	05H
	DB	05H
	DB	012H
	DB	012H
	DB	05H
	DB	05H
	DB	05H
	DB	01eH
	DB	06H
	DB	042H
	DB	06H
	DB	06H
	DB	04H
	DB	036H
	DB	04H
	DB	06H
	DB	01eH
	DB	01eH
	DB	05H
	DB	012H
	DB	012H
	DB	08H
	DB	05H
	DB	012H
	DB	012H
	DB	05H
	DB	05H
	DB	05H
	DB	08H
	DB	08H
	DB	05H
	DB	08H
	DB	08H
	DB	06H
	DB	06H
	DB	06H
	DB	06H
	DB	08H
	DB	08H
	DB	06H
	DB	06H
	DB	06H
	DB	06H
	DB	06H
	DB	06H
	DB	04H
	DB	06H
	DB	04H
	DB	02H
	DB	03H
	DB	03H
	DB	03H
	DB	03H
	DB	03H
	DB	02H
	DB	036H
	DB	036H
	DB	04H
	DB	04H
	DB	04H
	DB	04H
	DB	04H
	DB	04H
	DB	06H
	DB	08H
	DB	08H
	DB	06H
	DB	04H
	DB	04H
	DB	04H
	DB	04H
	DB	04H
	DB	04H
	DB	04H
	DB	04H
	DB	04H
	DB	04H
	DB	04H
	DB	06H
	DB	01eH
	DB	012H
	DB	0aH
	DB	026H
	DB	0aH
	DB	0aH
	DB	0aH
	DB	012H
	DB	05H
	DB	012H
	DB	05H
	DB	05H
	DB	012H
	DB	02fH
	DB	08H
	DB	08H
	DB	04H
	DB	03H
	DB	03H
	DB	01H
	DB	01H
	DB	01H
	DB	013H
	DB	01H
	DB	01H
	DB	02H
	DB	036H
	DB	02H
	DB	02H
	DB	04H
	DB	04H
	DB	06H
	DB	05H
	DB	05H
	DB	05H
	DB	05H
	DB	05H
	DB	05H
	DB	05H
	DB	05H
	DB	026H
	DB	09H
	DB	06H
	DB	0bH
	DB	02aH
	DB	054H
	DB	054H
	DB	054H
	DB	054H
	DB	054H
	DB	054H
	DB	054H
	DB	054H
	DB	020H
	DB	020H
	DB	0dcH
	DB	0bbH
	DB	03aH
	DB	089H
	DB	04H
	DB	02H
	DB	0bH
	DB	03H
	DB	03H
	DB	06H
	DB	0aH
	DB	0aH
	DB	05H
	DB	06H
	DB	04H
	DB	02H
	DB	03H
	DB	0bH
	DB	01H
	DB	01H
	DB	01H
	DB	01H
	DB	01H
	DB	01H
	DB	013H
	DB	0bH
	DB	03H
	DB	069H
	DB	02H
	DB	04H
	DB	06H
	DB	09H
	DB	033H
	DB	09H
	DB	012H
	DB	08H
	DB	06H
	DB	0fcH
	DB	05H
	DB	06H
	DB	06H
	DB	06H
	DB	06H
	DB	038H
	DB	02H
	DB	02H
	DB	02H
	DB	02H
	DB	02H
	DB	038H
	DB	08H
	DB	0aH
	DB	03dH
	DB	0cH
	DB	03dH
	DB	03dH
	DB	0cH
	DB	014H
	DB	0aH
	DB	04H
	DB	03H
	DB	03H
	DB	02H
	DB	04H
	DB	06H
	DB	08H
	DB	012H
	DB	09H
	DB	09H
	DB	09H
	DB	0aH
	DB	05H
	DB	09H
	DB	03dH
	DB	09H
	DB	0aH
	DB	0aH
	DB	0aH
	DB	0aH
	DB	0aH
	DB	0aH
	DB	09H
	DB	09H
	DB	0cH
	DB	011H
	DB	011H
	DB	0cH
	DB	09H
	DB	09H
	DB	0aH
	DB	0aH
	DB	0aH
	DB	0aH
	DB	09H
	DB	014H
	DB	0cH
	DB	0cH
	DB	0fH
	DB	011H
	DB	016H
	DB	030H
	DB	01bH
	DB	0fH
	DB	033H
	DB	033H
	DB	0fH
	DB	041H
	DB	01bH
	DB	01bH
	DB	0d5H
	DB	0d5H
	DB	011H
	DB	0cH
	DB	014H
	DB	09H
	DB	012H
	DB	08H
	DB	06H
	DB	038H
	DB	038H
	DB	06H
	DB	08H
	DB	06H
	DB	04H
	DB	04H
	DB	06H
	DB	06H
	DB	06H
	DB	06H
	DB	06H
	DB	06H
	DB	06H
	DB	06H
	DB	06H
	DB	04H
	DB	02H
	DB	02H
	DB	02H
	DB	02H
	DB	02H
	DB	02H
	DB	02H
	DB	03H
	DB	036H
	DB	036H
	DB	04H
	DB	04H
	DB	04H
	DB	04H
	DB	04H
	DB	04H
	DB	04H
	DB	04H
	DB	04H
	DB	02H
	DB	02H
	DB	04H
	DB	04H
	DB	06H
	DB	06H
	DB	04H
	DB	04H
	DB	06H
	DB	06H
	DB	06H
	DB	04H
	DB	04H
	DB	06H
	DB	08H
	DB	05H
	DB	012H
	DB	026H
	DB	09H
	DB	0aH
	DB	012H
	DB	05H
	DB	08H
	DB	08H
	DB	08H
	DB	05H
	DB	012H
	DB	05H
	DB	08H
	DB	06H
	DB	02H
	DB	03H
	DB	013H
	DB	01H
	DB	01H
	DB	01H
	DB	013H
	DB	02H
	DB	04H
	DB	04H
	DB	02H
	DB	02H
	DB	02H
	DB	04H
	DB	04H
	DB	04H
	DB	06H
	DB	01eH
	DB	08H
	DB	08H
	DB	05H
	DB	05H
	DB	05H
	DB	0aH
	DB	05H
	DB	03H
	DB	03H
	DB	02aH
	DB	020H
	DB	054H
	DB	020H
	DB	020H
	DB	020H
	DB	020H
	DB	020H
	DB	020H
	DB	0bbH
	DB	0bbH
	DB	07eH
	DB	07dH
	DB	0eaH
	DB	0b2H
	DB	0aH
	DB	03dH
	DB	012H
	DB	06H
	DB	04H
	DB	06H
	DB	06H
	DB	08H
	DB	04H
	DB	02H
	DB	03H
	DB	013H
	DB	01H
	DB	01H
	DB	01H
	DB	07H
	DB	07H
	DB	07H
	DB	01H
	DB	01H
	DB	013H
	DB	0bH
	DB	013H
	DB	013H
	DB	02H
	DB	05H
	DB	0aH
	DB	09H
	DB	08H
	DB	03H
	DB	01H
	DB	07H
	DB	07H
	DB	07H
	DB	07H
	DB	07H
	DB	01H
	DB	01H
	DB	07H
	DB	07H
	DB	01H
	DB	07H
	DB	07H
	DB	07H
	DB	07H
	DB	07H
	DB	07H
	DB	01H
	DB	013H
	DB	013H
	DB	02H
	DB	06H
	DB	06H
	DB	02H
	DB	01H
	DB	07H
	DB	01H
	DB	03H
	DB	02H
	DB	06H
	DB	08H
	DB	012H
	DB	09H
	DB	014H
	DB	0cH
	DB	0cH
	DB	014H
	DB	03dH
	DB	09H
	DB	09H
	DB	0b2H
	DB	09H
	DB	09H
	DB	09H
	DB	0aH
	DB	0aH
	DB	09H
	DB	09H
	DB	09H
	DB	014H
	DB	0cH
	DB	014H
	DB	014H
	DB	0faH
	DB	0cH
	DB	0cH
	DB	0cH
	DB	0fH
	DB	01bH
	DB	016H
	DB	01dH
	DB	030H
	DB	0aeH
	DB	031H
	DB	0aeH
	DB	01fH
	DB	030H
	DB	01fH
	DB	01fH
	DB	030H
	DB	01bH
	DB	014H
	DB	0aH
	DB	038H
	DB	069H
	DB	02H
	DB	02H
	DB	08H
	DB	0aH
	DB	012H
	DB	05H
	DB	05H
	DB	05H
	DB	05H
	DB	08H
	DB	08H
	DB	06H
	DB	06H
	DB	08H
	DB	08H
	DB	06H
	DB	06H
	DB	06H
	DB	06H
	DB	038H
	DB	04H
	DB	04H
	DB	06H
	DB	06H
	DB	06H
	DB	06H
	DB	06H
	DB	04H
	DB	02H
	DB	02H
	DB	03H
	DB	02H
	DB	036H
	DB	03H
	DB	036H
	DB	036H
	DB	036H
	DB	036H
	DB	02H
	DB	036H
	DB	04H
	DB	04H
	DB	02H
	DB	036H
	DB	02H
	DB	02H
	DB	02H
	DB	04H
	DB	04H
	DB	06H
	DB	06H
	DB	04H
	DB	04H
	DB	04H
	DB	06H
	DB	06H
	DB	06H
	DB	06H
	DB	08H
	DB	06H
	DB	08H
	DB	08H
	DB	05H
	DB	012H
	DB	012H
	DB	012H
	DB	012H
	DB	05H
	DB	08H
	DB	08H
	DB	08H
	DB	05H
	DB	05H
	DB	01eH
	DB	08H
	DB	06H
	DB	04H
	DB	02H
	DB	03H
	DB	01H
	DB	01H
	DB	02H
	DB	04H
	DB	04H
	DB	04H
	DB	04H
	DB	013H
	DB	03H
	DB	02H
	DB	02H
	DB	036H
	DB	04H
	DB	06H
	DB	08H
	DB	08H
	DB	08H
	DB	05H
	DB	05H
	DB	05H
	DB	02H
	DB	03H
	DB	01H
	DB	02bH
	DB	020H
	DB	0bbH
	DB	0bbH
	DB	0bbH
	DB	0bbH
	DB	0bbH
	DB	0bbH
	DB	0bbH
	DB	01cH
	DB	01cH
	DB	022H
	DB	04fH
	DB	065H
	DB	038H
	DB	08H
	DB	0aH
	DB	0fH
	DB	011H
	DB	033H
	DB	014H
	DB	08H
	DB	04H
	DB	02H
	DB	03H
	DB	013H
	DB	013H
	DB	01H
	DB	01H
	DB	07H
	DB	01H
	DB	01H
	DB	01H
	DB	01H
	DB	01H
	DB	01H
	DB	01H
	DB	01H
	DB	01H
	DB	01H
	DB	013H
	DB	013H
	DB	01H
	DB	07H
	DB	07H
	DB	07H
	DB	07H
	DB	01H
	DB	01H
	DB	01H
	DB	01H
	DB	01H
	DB	01H
	DB	01H
	DB	01H
	DB	01H
	DB	01H
	DB	01H
	DB	01H
	DB	01H
	DB	01H
	DB	07H
	DB	07H
	DB	07H
	DB	07H
	DB	07H
	DB	01H
	DB	01H
	DB	01H
	DB	01H
	DB	06H
	DB	08H
	DB	08H
	DB	08H
	DB	08H
	DB	012H
	DB	09H
	DB	03dH
	DB	09H
	DB	09H
	DB	0cH
	DB	0cH
	DB	014H
	DB	014H
	DB	0fH
	DB	0faH
	DB	0fH
	DB	09H
	DB	012H
	DB	0aH
	DB	09H
	DB	0cH
	DB	014H
	DB	014H
	DB	03dH
	DB	014H
	DB	014H
	DB	0cH
	DB	0fH
	DB	0fH
	DB	015H
	DB	0d5H
	DB	01dH
	DB	030H
	DB	030H
	DB	030H
	DB	01dH
	DB	01bH
	DB	0fH
	DB	09H
	DB	08H
	DB	0bH
	DB	069H
	DB	069H
	DB	013H
	DB	0feH
	DB	07H
	DB	07H
	DB	07H
	DB	01H
	DB	03H
	DB	04H
	DB	02H
	DB	02H
	DB	06H
	DB	06H
	DB	06H
	DB	06H
	DB	08H
	DB	08H
	DB	08H
	DB	08H
	DB	08H
	DB	06H
	DB	06H
	DB	06H
	DB	06H
	DB	06H
	DB	06H
	DB	06H
	DB	06H
	DB	08H
	DB	06H
	DB	06H
	DB	038H
	DB	04H
	DB	04H
	DB	038H
	DB	02H
	DB	02H
	DB	02H
	DB	03H
	DB	036H
	DB	036H
	DB	036H
	DB	036H
	DB	036H
	DB	02H
	DB	036H
	DB	02H
	DB	02H
	DB	02H
	DB	02H
	DB	02H
	DB	02H
	DB	02H
	DB	02H
	DB	04H
	DB	02H
	DB	04H
	DB	04H
	DB	04H
	DB	04H
	DB	04H
	DB	06H
	DB	08H
	DB	05H
	DB	05H
	DB	08H
	DB	08H
	DB	05H
	DB	05H
	DB	05H
	DB	05H
	DB	08H
	DB	05H
	DB	05H
	DB	012H
	DB	05H
	DB	05H
	DB	08H
	DB	08H
	DB	08H
	DB	05H
	DB	01eH
	DB	01eH
	DB	06H
	DB	04H
	DB	04H
	DB	04H
	DB	08H
	DB	05H
	DB	05H
	DB	08H
	DB	08H
	DB	06H
	DB	02H
	DB	0bH
	DB	0bH
	DB	03H
	DB	03H
	DB	02H
	DB	04H
	DB	06H
	DB	08H
	DB	05H
	DB	05H
	DB	012H
	DB	06H
	DB	013H
	DB	03H
	DB	01H
	DB	032H
	DB	073H
	DB	061H
	DB	01cH
	DB	01cH
	DB	01cH
	DB	01cH
	DB	01cH
	DB	01cH
	DB	01cH
	DB	01cH
	DB	090H
	DB	04fH
	DB	0a5H
	DB	038H
	DB	08H
	DB	06H
	DB	05H
	DB	033H
	DB	041H
	DB	014H
	DB	04H
	DB	02H
	DB	013H
	DB	01H
	DB	01H
	DB	01H
	DB	01H
	DB	01H
	DB	01H
	DB	0bH
	DB	03H
	DB	03H
	DB	013H
	DB	01H
	DB	01H
	DB	01H
	DB	07H
	DB	01H
	DB	01H
	DB	07H
	DB	07H
	DB	07H
	DB	07H
	DB	07H
	DB	07H
	DB	01H
	DB	01H
	DB	01H
	DB	01H
	DB	01H
	DB	01H
	DB	01H
	DB	01H
	DB	01H
	DB	01H
	DB	01H
	DB	01H
	DB	01H
	DB	07H
	DB	01H
	DB	01H
	DB	01H
	DB	01H
	DB	01H
	DB	01H
	DB	07H
	DB	07H
	DB	07H
	DB	069H
	DB	08H
	DB	09H
	DB	0faH
	DB	0fH
	DB	0cH
	DB	09H
	DB	09H
	DB	09H
	DB	0aH
	DB	012H
	DB	012H
	DB	0aH
	DB	0aH
	DB	09H
	DB	09H
	DB	0cH
	DB	0cH
	DB	0cH
	DB	03dH
	DB	0cH
	DB	0fH
	DB	0cH
	DB	0cH
	DB	0cH
	DB	03dH
	DB	03dH
	DB	0cH
	DB	0fH
	DB	0faH
	DB	015H
	DB	016H
	DB	01dH
	DB	016H
	DB	011H
	DB	0cH
	DB	0aH
	DB	08H
	DB	06H
	DB	02H
	DB	013H
	DB	013H
	DB	01H
	DB	07H
	DB	07H
	DB	07H
	DB	07H
	DB	07H
	DB	01H
	DB	01H
	DB	03H
	DB	04H
	DB	06H
	DB	06H
	DB	04H
	DB	038H
	DB	038H
	DB	06H
	DB	06H
	DB	06H
	DB	06H
	DB	08H
	DB	06H
	DB	06H
	DB	06H
	DB	038H
	DB	04H
	DB	06H
	DB	04H
	DB	06H
	DB	06H
	DB	06H
	DB	06H
	DB	06H
	DB	06H
	DB	06H
	DB	06H
	DB	04H
	DB	04H
	DB	02H
	DB	03H
	DB	02H
	DB	02H
	DB	036H
	DB	036H
	DB	036H
	DB	036H
	DB	036H
	DB	036H
	DB	02H
	DB	03H
	DB	02H
	DB	03H
	DB	03H
	DB	03H
	DB	03H
	DB	02H
	DB	02H
	DB	02H
	DB	04H
	DB	04H
	DB	04H
	DB	04H
	DB	04H
	DB	06H
	DB	06H
	DB	08H
	DB	05H
	DB	05H
	DB	05H
	DB	08H
	DB	05H
	DB	08H
	DB	08H
	DB	08H
	DB	05H
	DB	05H
	DB	012H
	DB	012H
	DB	05H
	DB	05H
	DB	08H
	DB	06H
	DB	06H
	DB	04H
	DB	04H
	DB	04H
	DB	06H
	DB	06H
	DB	05H
	DB	02fH
	DB	0aH
	DB	012H
	DB	012H
	DB	05H
	DB	05H
	DB	05H
	DB	06H
	DB	02H
	DB	013H
	DB	03H
	DB	02H
	DB	04H
	DB	04H
	DB	06H
	DB	08H
	DB	08H
	DB	05H
	DB	08H
	DB	02H
	DB	02H
	DB	02H
	DB	0bH
	DB	032H
	DB	054H
	DB	061H
	DB	01cH
	DB	01cH
	DB	01cH
	DB	01cH
	DB	01cH
	DB	01cH
	DB	061H
	DB	061H
	DB	01cH
	DB	08eH
	DB	0ceH
	DB	038H
	DB	05H
	DB	06H
	DB	06H
	DB	026H
	DB	05H
	DB	02H
	DB	03H
	DB	069H
	DB	01H
	DB	01H
	DB	01H
	DB	01H
	DB	013H
	DB	03H
	DB	02H
	DB	02H
	DB	02H
	DB	02H
	DB	03H
	DB	0bH
	DB	01H
	DB	07H
	DB	01H
	DB	01H
	DB	01H
	DB	07H
	DB	07H
	DB	07H
	DB	07H
	DB	07H
	DB	01H
	DB	01H
	DB	07H
	DB	01H
	DB	01H
	DB	01H
	DB	01H
	DB	01H
	DB	01H
	DB	01H
	DB	01H
	DB	01H
	DB	01H
	DB	01H
	DB	01H
	DB	01H
	DB	01H
	DB	01H
	DB	01H
	DB	01H
	DB	01H
	DB	07H
	DB	01H
	DB	02H
	DB	04H
	DB	03H
	DB	02H
	DB	06H
	DB	012H
	DB	0cH
	DB	0fH
	DB	014H
	DB	03dH
	DB	0aH
	DB	0aH
	DB	012H
	DB	012H
	DB	012H
	DB	05H
	DB	05H
	DB	09H
	DB	0cH
	DB	0cH
	DB	0fH
	DB	015H
	DB	015H
	DB	011H
	DB	0cH
	DB	09H
	DB	0aH
	DB	09H
	DB	0cH
	DB	0fH
	DB	011H
	DB	011H
	DB	0cH
	DB	03dH
	DB	0aH
	DB	05H
	DB	08H
	DB	04H
	DB	02H
	DB	02H
	DB	02H
	DB	03H
	DB	02H
	DB	0bH
	DB	01H
	DB	01H
	DB	01H
	DB	01H
	DB	01H
	DB	01H
	DB	0bH
	DB	03H
	DB	02H
	DB	02H
	DB	02H
	DB	04H
	DB	06H
	DB	038H
	DB	02H
	DB	04H
	DB	06H
	DB	06H
	DB	06H
	DB	06H
	DB	04H
	DB	04H
	DB	06H
	DB	06H
	DB	06H
	DB	06H
	DB	06H
	DB	08H
	DB	08H
	DB	06H
	DB	06H
	DB	04H
	DB	04H
	DB	04H
	DB	04H
	DB	02H
	DB	02H
	DB	02H
	DB	02H
	DB	04H
	DB	036H
	DB	02H
	DB	03H
	DB	036H
	DB	036H
	DB	036H
	DB	03H
	DB	03H
	DB	03H
	DB	03H
	DB	03H
	DB	03H
	DB	03H
	DB	03H
	DB	02H
	DB	02H
	DB	02H
	DB	04H
	DB	04H
	DB	06H
	DB	08H
	DB	08H
	DB	08H
	DB	06H
	DB	01eH
	DB	05H
	DB	08H
	DB	08H
	DB	08H
	DB	08H
	DB	05H
	DB	05H
	DB	012H
	DB	012H
	DB	012H
	DB	012H
	DB	012H
	DB	012H
	DB	05H
	DB	05H
	DB	08H
	DB	04H
	DB	06H
	DB	06H
	DB	05H
	DB	0aH
	DB	09H
	DB	09H
	DB	09H
	DB	09H
	DB	012H
	DB	05H
	DB	05H
	DB	05H
	DB	06H
	DB	04H
	DB	02H
	DB	03H
	DB	02H
	DB	04H
	DB	04H
	DB	06H
	DB	06H
	DB	08H
	DB	05H
	DB	02H
	DB	0bH
	DB	02H
	DB	02H
	DB	0bH
	DB	02eH
	DB	094H
	DB	018H
	DB	061H
	DB	061H
	DB	061H
	DB	061H
	DB	061H
	DB	061H
	DB	018H
	DB	018H
	DB	061H
	DB	04fH
	DB	0a6H
	DB	02H
	DB	08H
	DB	06H
	DB	01eH
	DB	05H
	DB	06H
	DB	02H
	DB	03H
	DB	013H
	DB	013H
	DB	01H
	DB	01H
	DB	013H
	DB	02H
	DB	04H
	DB	02H
	DB	02H
	DB	02H
	DB	036H
	DB	036H
	DB	03H
	DB	0bH
	DB	0bH
	DB	01H
	DB	01H
	DB	01H
	DB	07H
	DB	07H
	DB	07H
	DB	07H
	DB	01H
	DB	01H
	DB	01H
	DB	01H
	DB	01H
	DB	01H
	DB	01H
	DB	01H
	DB	01H
	DB	01H
	DB	01H
	DB	01H
	DB	01H
	DB	01H
	DB	01H
	DB	01H
	DB	01H
	DB	01H
	DB	01H
	DB	01H
	DB	013H
	DB	069H
	DB	02H
	DB	04H
	DB	04H
	DB	04H
	DB	02H
	DB	02H
	DB	02H
	DB	03H
	DB	04H
	DB	012H
	DB	0aH
	DB	0aH
	DB	012H
	DB	05H
	DB	08H
	DB	06H
	DB	06H
	DB	04H
	DB	04H
	DB	06H
	DB	08H
	DB	012H
	DB	03dH
	DB	0cH
	DB	0b2H
	DB	0aH
	DB	012H
	DB	05H
	DB	012H
	DB	0aH
	DB	0aH
	DB	012H
	DB	012H
	DB	05H
	DB	08H
	DB	06H
	DB	06H
	DB	04H
	DB	04H
	DB	038H
	DB	04H
	DB	02H
	DB	02H
	DB	02H
	DB	03H
	DB	03H
	DB	013H
	DB	01H
	DB	0bH
	DB	0bH
	DB	013H
	DB	0bH
	DB	01H
	DB	013H
	DB	013H
	DB	03H
	DB	02H
	DB	02H
	DB	04H
	DB	038H
	DB	04H
	DB	038H
	DB	06H
	DB	06H
	DB	06H
	DB	06H
	DB	06H
	DB	06H
	DB	08H
	DB	06H
	DB	06H
	DB	06H
	DB	06H
	DB	08H
	DB	06H
	DB	038H
	DB	04H
	DB	06H
	DB	04H
	DB	04H
	DB	038H
	DB	02H
	DB	02H
	DB	02H
	DB	036H
	DB	036H
	DB	036H
	DB	03H
	DB	036H
	DB	036H
	DB	036H
	DB	036H
	DB	02H
	DB	02H
	DB	02H
	DB	02H
	DB	03H
	DB	03H
	DB	03H
	DB	02H
	DB	03H
	DB	02H
	DB	02H
	DB	02H
	DB	06H
	DB	08H
	DB	08H
	DB	08H
	DB	06H
	DB	04H
	DB	06H
	DB	06H
	DB	06H
	DB	06H
	DB	06H
	DB	06H
	DB	08H
	DB	05H
	DB	012H
	DB	012H
	DB	05H
	DB	012H
	DB	012H
	DB	05H
	DB	08H
	DB	08H
	DB	08H
	DB	08H
	DB	012H
	DB	09H
	DB	09H
	DB	09H
	DB	09H
	DB	09H
	DB	014H
	DB	09H
	DB	05H
	DB	05H
	DB	05H
	DB	08H
	DB	06H
	DB	06H
	DB	04H
	DB	04H
	DB	04H
	DB	04H
	DB	04H
	DB	06H
	DB	06H
	DB	05H
	DB	08H
	DB	03H
	DB	03H
	DB	03H
	DB	03H
	DB	01H
	DB	028H
	DB	095H
	DB	08fH
	DB	018H
	DB	018H
	DB	018H
	DB	018H
	DB	018H
	DB	018H
	DB	04bH
	DB	018H
	DB	04bH
	DB	04bH
	DB	0d0H
	DB	038H
	DB	05H
	DB	05H
	DB	05H
	DB	026H
	DB	04H
	DB	013H
	DB	013H
	DB	01H
	DB	03H
	DB	02H
	DB	02H
	DB	02H
	DB	02H
	DB	02H
	DB	02H
	DB	02H
	DB	04H
	DB	04H
	DB	036H
	DB	036H
	DB	03H
	DB	0bH
	DB	013H
	DB	01H
	DB	07H
	DB	07H
	DB	07H
	DB	07H
	DB	01H
	DB	01H
	DB	01H
	DB	01H
	DB	01H
	DB	01H
	DB	01H
	DB	01H
	DB	01H
	DB	01H
	DB	013H
	DB	013H
	DB	01H
	DB	01H
	DB	01H
	DB	01H
	DB	07H
	DB	01H
	DB	07H
	DB	01H
	DB	01H
	DB	013H
	DB	02H
	DB	069H
	DB	03H
	DB	02H
	DB	02H
	DB	038H
	DB	04H
	DB	04H
	DB	06H
	DB	06H
	DB	038H
	DB	02H
	DB	03H
	DB	03H
	DB	02H
	DB	02H
	DB	03H
	DB	03H
	DB	03H
	DB	02H
	DB	02H
	DB	02H
	DB	08H
	DB	012H
	DB	08H
	DB	06H
	DB	038H
	DB	08H
	DB	08H
	DB	08H
	DB	08H
	DB	08H
	DB	06H
	DB	06H
	DB	06H
	DB	06H
	DB	04H
	DB	04H
	DB	04H
	DB	02H
	DB	038H
	DB	02H
	DB	04H
	DB	02H
	DB	02H
	DB	02H
	DB	02H
	DB	02H
	DB	0bH
	DB	0bH
	DB	03H
	DB	03H
	DB	0bH
	DB	0bH
	DB	0bH
	DB	03H
	DB	03H
	DB	03H
	DB	02H
	DB	02H
	DB	02H
	DB	04H
	DB	06H
	DB	06H
	DB	06H
	DB	08H
	DB	05H
	DB	06H
	DB	06H
	DB	06H
	DB	06H
	DB	04H
	DB	06H
	DB	06H
	DB	038H
	DB	04H
	DB	06H
	DB	06H
	DB	06H
	DB	04H
	DB	04H
	DB	04H
	DB	02H
	DB	03H
	DB	03H
	DB	03H
	DB	02H
	DB	036H
	DB	036H
	DB	02H
	DB	036H
	DB	036H
	DB	03H
	DB	02H
	DB	03H
	DB	03H
	DB	03H
	DB	03H
	DB	03H
	DB	03H
	DB	03H
	DB	02H
	DB	02H
	DB	04H
	DB	06H
	DB	06H
	DB	04H
	DB	08H
	DB	05H
	DB	05H
	DB	06H
	DB	04H
	DB	04H
	DB	04H
	DB	06H
	DB	08H
	DB	06H
	DB	06H
	DB	08H
	DB	05H
	DB	05H
	DB	012H
	DB	05H
	DB	08H
	DB	08H
	DB	08H
	DB	012H
	DB	09H
	DB	09H
	DB	09H
	DB	03dH
	DB	014H
	DB	09H
	DB	09H
	DB	09H
	DB	09H
	DB	012H
	DB	05H
	DB	05H
	DB	05H
	DB	08H
	DB	01eH
	DB	06H
	DB	04H
	DB	04H
	DB	04H
	DB	04H
	DB	04H
	DB	06H
	DB	08H
	DB	08H
	DB	069H
	DB	013H
	DB	03H
	DB	02H
	DB	02H
	DB	0bH
	DB	028H
	DB	020H
	DB	07cH
	DB	04bH
	DB	04bH
	DB	04bH
	DB	04bH
	DB	04bH
	DB	04bH
	DB	08fH
	DB	08fH
	DB	017H
	DB	018H
	DB	0f1H
	DB	038H
	DB	0aH
	DB	012H
	DB	02fH
	DB	0aH
	DB	02H
	DB	03H
	DB	04H
	DB	04H
	DB	06H
	DB	04H
	DB	04H
	DB	02H
	DB	02H
	DB	03H
	DB	02H
	DB	02H
	DB	02H
	DB	02H
	DB	02H
	DB	03H
	DB	03H
	DB	0bH
	DB	01H
	DB	07H
	DB	07H
	DB	07H
	DB	01H
	DB	0bH
	DB	03H
	DB	03H
	DB	0bH
	DB	01H
	DB	01H
	DB	0bH
	DB	01H
	DB	01H
	DB	01H
	DB	01H
	DB	01H
	DB	01H
	DB	01H
	DB	01H
	DB	01H
	DB	01H
	DB	01H
	DB	01H
	DB	01H
	DB	01H
	DB	01H
	DB	01H
	DB	01H
	DB	01H
	DB	013H
	DB	013H
	DB	069H
	DB	069H
	DB	02H
	DB	04H
	DB	06H
	DB	06H
	DB	06H
	DB	038H
	DB	03H
	DB	03H
	DB	013H
	DB	03H
	DB	069H
	DB	013H
	DB	069H
	DB	03H
	DB	04H
	DB	08H
	DB	08H
	DB	02H
	DB	02H
	DB	038H
	DB	04H
	DB	06H
	DB	06H
	DB	06H
	DB	06H
	DB	06H
	DB	038H
	DB	038H
	DB	06H
	DB	06H
	DB	06H
	DB	06H
	DB	06H
	DB	04H
	DB	02H
	DB	02H
	DB	04H
	DB	02H
	DB	02H
	DB	02H
	DB	02H
	DB	036H
	DB	02H
	DB	02H
	DB	03H
	DB	03H
	DB	01H
	DB	01H
	DB	0bH
	DB	03H
	DB	03H
	DB	069H
	DB	03H
	DB	02H
	DB	02H
	DB	02H
	DB	02H
	DB	04H
	DB	06H
	DB	06H
	DB	06H
	DB	06H
	DB	06H
	DB	06H
	DB	04H
	DB	04H
	DB	04H
	DB	04H
	DB	04H
	DB	08H
	DB	08H
	DB	08H
	DB	04H
	DB	04H
	DB	04H
	DB	02H
	DB	02H
	DB	02H
	DB	02H
	DB	036H
	DB	036H
	DB	036H
	DB	036H
	DB	036H
	DB	036H
	DB	036H
	DB	036H
	DB	036H
	DB	036H
	DB	02H
	DB	02H
	DB	02H
	DB	03H
	DB	02H
	DB	02H
	DB	02H
	DB	02H
	DB	04H
	DB	04H
	DB	04H
	DB	06H
	DB	06H
	DB	06H
	DB	06H
	DB	08H
	DB	06H
	DB	06H
	DB	06H
	DB	06H
	DB	06H
	DB	04H
	DB	06H
	DB	06H
	DB	08H
	DB	08H
	DB	05H
	DB	012H
	DB	08H
	DB	05H
	DB	0cH
	DB	0cH
	DB	014H
	DB	0cH
	DB	0cH
	DB	014H
	DB	014H
	DB	09H
	DB	09H
	DB	0aH
	DB	05H
	DB	08H
	DB	05H
	DB	05H
	DB	08H
	DB	08H
	DB	06H
	DB	06H
	DB	02H
	DB	04H
	DB	06H
	DB	06H
	DB	08H
	DB	05H
	DB	05H
	DB	04H
	DB	013H
	DB	0bH
	DB	03H
	DB	02H
	DB	02H
	DB	0bH
	DB	05fH
	DB	01aH
	DB	04fH
	DB	08fH
	DB	08fH
	DB	08fH
	DB	08fH
	DB	08fH
	DB	08fH
	DB	017H
	DB	017H
	DB	07bH
	DB	018H
	DB	0abH
	DB	048H
	DB	014H
	DB	09H
	DB	014H
	DB	02fH
	DB	038H
	DB	06H
	DB	06H
	DB	06H
	DB	06H
	DB	04H
	DB	04H
	DB	02H
	DB	02H
	DB	02H
	DB	02H
	DB	03H
	DB	0bH
	DB	0bH
	DB	01H
	DB	01H
	DB	01H
	DB	01H
	DB	01H
	DB	07H
	DB	01H
	DB	01H
	DB	0bH
	DB	03H
	DB	03H
	DB	03H
	DB	03H
	DB	0bH
	DB	01H
	DB	01H
	DB	01H
	DB	01H
	DB	01H
	DB	01H
	DB	01H
	DB	07H
	DB	07H
	DB	07H
	DB	01H
	DB	01H
	DB	01H
	DB	01H
	DB	01H
	DB	01H
	DB	01H
	DB	01H
	DB	07H
	DB	07H
	DB	01H
	DB	01H
	DB	013H
	DB	013H
	DB	03H
	DB	04H
	DB	06H
	DB	04H
	DB	04H
	DB	02H
	DB	02H
	DB	069H
	DB	03H
	DB	013H
	DB	069H
	DB	03H
	DB	01H
	DB	01H
	DB	013H
	DB	013H
	DB	013H
	DB	02H
	DB	02H
	DB	04H
	DB	04H
	DB	04H
	DB	04H
	DB	04H
	DB	06H
	DB	06H
	DB	06H
	DB	08H
	DB	08H
	DB	06H
	DB	08H
	DB	08H
	DB	06H
	DB	06H
	DB	038H
	DB	02H
	DB	02H
	DB	02H
	DB	02H
	DB	03H
	DB	02H
	DB	02H
	DB	02H
	DB	036H
	DB	02H
	DB	03H
	DB	0bH
	DB	0bH
	DB	0bH
	DB	013H
	DB	03H
	DB	013H
	DB	03H
	DB	02H
	DB	02H
	DB	038H
	DB	02H
	DB	04H
	DB	06H
	DB	06H
	DB	06H
	DB	06H
	DB	06H
	DB	06H
	DB	04H
	DB	04H
	DB	02H
	DB	02H
	DB	02H
	DB	02H
	DB	06H
	DB	06H
	DB	038H
	DB	04H
	DB	06H
	DB	06H
	DB	04H
	DB	04H
	DB	02H
	DB	036H
	DB	036H
	DB	036H
	DB	036H
	DB	036H
	DB	036H
	DB	036H
	DB	036H
	DB	036H
	DB	02H
	DB	03H
	DB	02H
	DB	02H
	DB	02H
	DB	02H
	DB	02H
	DB	02H
	DB	02H
	DB	02H
	DB	04H
	DB	04H
	DB	04H
	DB	04H
	DB	04H
	DB	06H
	DB	08H
	DB	08H
	DB	08H
	DB	06H
	DB	06H
	DB	06H
	DB	08H
	DB	06H
	DB	06H
	DB	06H
	DB	06H
	DB	06H
	DB	08H
	DB	08H
	DB	06H
	DB	05H
	DB	03dH
	DB	014H
	DB	09H
	DB	09H
	DB	09H
	DB	0aH
	DB	0aH
	DB	012H
	DB	08H
	DB	06H
	DB	06H
	DB	06H
	DB	06H
	DB	08H
	DB	05H
	DB	05H
	DB	08H
	DB	08H
	DB	04H
	DB	04H
	DB	06H
	DB	08H
	DB	05H
	DB	06H
	DB	03H
	DB	03H
	DB	03H
	DB	03H
	DB	013H
	DB	013H
	DB	0bH
	DB	0aH
	DB	03fH
	DB	04aH
	DB	017H
	DB	017H
	DB	017H
	DB	017H
	DB	017H
	DB	017H
	DB	04fH
	DB	04fH
	DB	04aH
	DB	04bH
	DB	0abH
	DB	048H
	DB	014H
	DB	09H
	DB	014H
	DB	05H
	DB	06H
	DB	08H
	DB	04H
	DB	04H
	DB	04H
	DB	02H
	DB	04H
	DB	02H
	DB	03H
	DB	03H
	DB	013H
	DB	0bH
	DB	0bH
	DB	01H
	DB	01H
	DB	01H
	DB	01H
	DB	01H
	DB	0bH
	DB	0bH
	DB	03H
	DB	03H
	DB	036H
	DB	036H
	DB	02H
	DB	03H
	DB	03H
	DB	0bH
	DB	0bH
	DB	0bH
	DB	0bH
	DB	01H
	DB	01H
	DB	01H
	DB	01H
	DB	01H
	DB	01H
	DB	01H
	DB	01H
	DB	01H
	DB	01H
	DB	01H
	DB	01H
	DB	01H
	DB	01H
	DB	01H
	DB	01H
	DB	01H
	DB	01H
	DB	01H
	DB	013H
	DB	02H
	DB	02H
	DB	038H
	DB	04H
	DB	02H
	DB	069H
	DB	03H
	DB	02H
	DB	04H
	DB	02H
	DB	02H
	DB	02H
	DB	03H
	DB	03H
	DB	013H
	DB	01H
	DB	01H
	DB	01H
	DB	01H
	DB	069H
	DB	069H
	DB	069H
	DB	02H
	DB	06H
	DB	04H
	DB	04H
	DB	06H
	DB	08H
	DB	06H
	DB	06H
	DB	06H
	DB	06H
	DB	06H
	DB	038H
	DB	04H
	DB	038H
	DB	02H
	DB	02H
	DB	02H
	DB	02H
	DB	02H
	DB	02H
	DB	02H
	DB	036H
	DB	036H
	DB	036H
	DB	03H
	DB	0bH
	DB	0bH
	DB	013H
	DB	013H
	DB	013H
	DB	013H
	DB	02H
	DB	02H
	DB	02H
	DB	04H
	DB	06H
	DB	038H
	DB	06H
	DB	06H
	DB	08H
	DB	08H
	DB	06H
	DB	038H
	DB	038H
	DB	038H
	DB	02H
	DB	02H
	DB	02H
	DB	02H
	DB	02H
	DB	06H
	DB	06H
	DB	04H
	DB	06H
	DB	04H
	DB	04H
	DB	02H
	DB	02H
	DB	02H
	DB	02H
	DB	036H
	DB	02H
	DB	036H
	DB	036H
	DB	03H
	DB	03H
	DB	03H
	DB	03H
	DB	03H
	DB	03H
	DB	03H
	DB	03H
	DB	02H
	DB	04H
	DB	02H
	DB	02H
	DB	02H
	DB	02H
	DB	04H
	DB	04H
	DB	02H
	DB	04H
	DB	04H
	DB	04H
	DB	06H
	DB	06H
	DB	06H
	DB	06H
	DB	04H
	DB	04H
	DB	04H
	DB	04H
	DB	04H
	DB	02H
	DB	02H
	DB	038H
	DB	04H
	DB	04H
	DB	02H
	DB	04H
	DB	08H
	DB	08H
	DB	06H
	DB	06H
	DB	06H
	DB	06H
	DB	06H
	DB	04H
	DB	04H
	DB	04H
	DB	06H
	DB	08H
	DB	05H
	DB	05H
	DB	012H
	DB	012H
	DB	05H
	DB	06H
	DB	04H
	DB	06H
	DB	05H
	DB	06H
	DB	0bH
	DB	01H
	DB	01H
	DB	01H
	DB	01H
	DB	01H
	DB	02H
	DB	04H
	DB	05H
	DB	05cH
	DB	04aH
	DB	07bH
	DB	04fH
	DB	04fH
	DB	04fH
	DB	04fH
	DB	04fH
	DB	07bH
	DB	07bH
	DB	010H
	DB	018H
	DB	0abH
	DB	048H
	DB	0aH
	DB	0aH
	DB	09H
	DB	08H
	DB	04H
	DB	04H
	DB	04H
	DB	04H
	DB	02H
	DB	04H
	DB	04H
	DB	02H
	DB	03H
	DB	0bH
	DB	0bH
	DB	0bH
	DB	0bH
	DB	0bH
	DB	0bH
	DB	03H
	DB	03H
	DB	03H
	DB	03H
	DB	02H
	DB	036H
	DB	036H
	DB	036H
	DB	036H
	DB	036H
	DB	036H
	DB	036H
	DB	036H
	DB	03H
	DB	013H
	DB	03H
	DB	0bH
	DB	01H
	DB	01H
	DB	01H
	DB	01H
	DB	0bH
	DB	0bH
	DB	0bH
	DB	0bH
	DB	01H
	DB	01H
	DB	01H
	DB	013H
	DB	0bH
	DB	0bH
	DB	013H
	DB	013H
	DB	013H
	DB	013H
	DB	0bH
	DB	03H
	DB	03H
	DB	02H
	DB	02H
	DB	03H
	DB	02H
	DB	06H
	DB	08H
	DB	08H
	DB	038H
	DB	02H
	DB	02H
	DB	02H
	DB	02H
	DB	02H
	DB	013H
	DB	013H
	DB	03H
	DB	013H
	DB	01H
	DB	0bH
	DB	03H
	DB	02H
	DB	02H
	DB	04H
	DB	04H
	DB	06H
	DB	06H
	DB	06H
	DB	038H
	DB	038H
	DB	06H
	DB	038H
	DB	02H
	DB	02H
	DB	02H
	DB	02H
	DB	02H
	DB	02H
	DB	02H
	DB	02H
	DB	02H
	DB	02H
	DB	02H
	DB	02H
	DB	02H
	DB	03H
	DB	0bH
	DB	0bH
	DB	0bH
	DB	01H
	DB	013H
	DB	0bH
	DB	02H
	DB	02H
	DB	02H
	DB	02H
	DB	04H
	DB	06H
	DB	06H
	DB	06H
	DB	06H
	DB	06H
	DB	06H
	DB	06H
	DB	06H
	DB	06H
	DB	06H
	DB	038H
	DB	04H
	DB	06H
	DB	04H
	DB	06H
	DB	06H
	DB	06H
	DB	04H
	DB	04H
	DB	038H
	DB	04H
	DB	02H
	DB	036H
	DB	036H
	DB	036H
	DB	036H
	DB	036H
	DB	036H
	DB	02H
	DB	03H
	DB	02H
	DB	02H
	DB	02H
	DB	02H
	DB	02H
	DB	02H
	DB	02H
	DB	02H
	DB	02H
	DB	02H
	DB	02H
	DB	02H
	DB	02H
	DB	04H
	DB	02H
	DB	02H
	DB	04H
	DB	02H
	DB	02H
	DB	04H
	DB	06H
	DB	038H
	DB	02H
	DB	04H
	DB	038H
	DB	04H
	DB	02H
	DB	02H
	DB	02H
	DB	03H
	DB	02H
	DB	02H
	DB	03H
	DB	0bH
	DB	013H
	DB	02H
	DB	02H
	DB	013H
	DB	03H
	DB	03H
	DB	03H
	DB	02H
	DB	02H
	DB	04H
	DB	06H
	DB	06H
	DB	08H
	DB	08H
	DB	05H
	DB	05H
	DB	08H
	DB	06H
	DB	04H
	DB	04H
	DB	06H
	DB	013H
	DB	07H
	DB	07H
	DB	01H
	DB	0bH
	DB	04H
	DB	06H
	DB	01eH
	DB	04H
	DB	05H
	DB	0ebH
	DB	010H
	DB	04aH
	DB	07bH
	DB	07bH
	DB	07bH
	DB	07bH
	DB	07bH
	DB	04aH
	DB	04aH
	DB	010H
	DB	018H
	DB	0d4H
	DB	048H
	DB	09H
	DB	026H
	DB	09H
	DB	08H
	DB	06H
	DB	06H
	DB	06H
	DB	06H
	DB	04H
	DB	04H
	DB	04H
	DB	04H
	DB	02H
	DB	03H
	DB	0bH
	DB	0bH
	DB	0bH
	DB	03H
	DB	03H
	DB	03H
	DB	036H
	DB	036H
	DB	036H
	DB	04H
	DB	04H
	DB	04H
	DB	04H
	DB	04H
	DB	04H
	DB	04H
	DB	04H
	DB	04H
	DB	036H
	DB	0bH
	DB	01H
	DB	0bH
	DB	0bH
	DB	0bH
	DB	0bH
	DB	0bH
	DB	0bH
	DB	0bH
	DB	0bH
	DB	0bH
	DB	0bH
	DB	0bH
	DB	0bH
	DB	013H
	DB	03H
	DB	03H
	DB	02H
	DB	04H
	DB	04H
	DB	04H
	DB	06H
	DB	06H
	DB	04H
	DB	04H
	DB	08H
	DB	05H
	DB	012H
	DB	05H
	DB	06H
	DB	038H
	DB	06H
	DB	06H
	DB	04H
	DB	06H
	DB	038H
	DB	04H
	DB	02H
	DB	02H
	DB	0fdH
	DB	013H
	DB	03H
	DB	03H
	DB	013H
	DB	02H
	DB	02H
	DB	02H
	DB	038H
	DB	038H
	DB	08H
	DB	08H
	DB	06H
	DB	038H
	DB	06H
	DB	038H
	DB	04H
	DB	04H
	DB	04H
	DB	04H
	DB	02H
	DB	02H
	DB	02H
	DB	02H
	DB	02H
	DB	02H
	DB	02H
	DB	02H
	DB	02H
	DB	02H
	DB	03H
	DB	013H
	DB	013H
	DB	01H
	DB	01H
	DB	013H
	DB	03H
	DB	02H
	DB	02H
	DB	06H
	DB	06H
	DB	06H
	DB	06H
	DB	06H
	DB	08H
	DB	06H
	DB	06H
	DB	08H
	DB	08H
	DB	08H
	DB	08H
	DB	08H
	DB	08H
	DB	08H
	DB	06H
	DB	06H
	DB	06H
	DB	06H
	DB	06H
	DB	038H
	DB	02H
	DB	04H
	DB	02H
	DB	02H
	DB	02H
	DB	04H
	DB	04H
	DB	036H
	DB	036H
	DB	03H
	DB	03H
	DB	02H
	DB	02H
	DB	02H
	DB	02H
	DB	02H
	DB	02H
	DB	03H
	DB	03H
	DB	03H
	DB	02H
	DB	02H
	DB	02H
	DB	02H
	DB	02H
	DB	03H
	DB	02H
	DB	02H
	DB	02H
	DB	02H
	DB	02H
	DB	02H
	DB	02H
	DB	02H
	DB	03H
	DB	013H
	DB	013H
	DB	013H
	DB	0bH
	DB	01H
	DB	01H
	DB	01H
	DB	013H
	DB	013H
	DB	01H
	DB	01H
	DB	01H
	DB	013H
	DB	0bH
	DB	01H
	DB	01H
	DB	013H
	DB	03H
	DB	013H
	DB	03H
	DB	02H
	DB	02H
	DB	02H
	DB	02H
	DB	04H
	DB	04H
	DB	06H
	DB	06H
	DB	04H
	DB	04H
	DB	013H
	DB	07H
	DB	07H
	DB	0bH
	DB	04H
	DB	0d6H
	DB	05H
	DB	08H
	DB	08H
	DB	06H
	DB	06H
	DB	039H
	DB	010H
	DB	010H
	DB	04aH
	DB	04aH
	DB	04aH
	DB	04aH
	DB	04aH
	DB	04aH
	DB	04aH
	DB	010H
	DB	018H
	DB	0f6H
	DB	048H
	DB	014H
	DB	09H
	DB	02fH
	DB	08H
	DB	08H
	DB	08H
	DB	06H
	DB	06H
	DB	04H
	DB	04H
	DB	04H
	DB	04H
	DB	04H
	DB	02H
	DB	02H
	DB	02H
	DB	036H
	DB	03H
	DB	036H
	DB	02H
	DB	036H
	DB	04H
	DB	04H
	DB	04H
	DB	04H
	DB	06H
	DB	04H
	DB	04H
	DB	04H
	DB	06H
	DB	04H
	DB	04H
	DB	04H
	DB	036H
	DB	03H
	DB	0bH
	DB	0bH
	DB	0bH
	DB	0bH
	DB	03H
	DB	03H
	DB	03H
	DB	0bH
	DB	0bH
	DB	0bH
	DB	03H
	DB	03H
	DB	03H
	DB	03H
	DB	02H
	DB	02H
	DB	04H
	DB	06H
	DB	06H
	DB	06H
	DB	06H
	DB	08H
	DB	06H
	DB	06H
	DB	08H
	DB	08H
	DB	04H
	DB	08H
	DB	08H
	DB	06H
	DB	06H
	DB	06H
	DB	08H
	DB	08H
	DB	08H
	DB	08H
	DB	08H
	DB	04H
	DB	038H
	DB	04H
	DB	02H
	DB	02H
	DB	02H
	DB	03H
	DB	02H
	DB	02H
	DB	02H
	DB	06H
	DB	08H
	DB	06H
	DB	06H
	DB	04H
	DB	06H
	DB	06H
	DB	04H
	DB	04H
	DB	02H
	DB	02H
	DB	02H
	DB	02H
	DB	02H
	DB	02H
	DB	02H
	DB	02H
	DB	04H
	DB	02H
	DB	02H
	DB	03H
	DB	0bH
	DB	01H
	DB	01H
	DB	01H
	DB	013H
	DB	03H
	DB	02H
	DB	02H
	DB	02H
	DB	038H
	DB	038H
	DB	08H
	DB	08H
	DB	08H
	DB	08H
	DB	08H
	DB	06H
	DB	08H
	DB	048H
	DB	08H
	DB	08H
	DB	08H
	DB	06H
	DB	06H
	DB	04H
	DB	04H
	DB	06H
	DB	06H
	DB	04H
	DB	04H
	DB	04H
	DB	02H
	DB	02H
	DB	04H
	DB	036H
	DB	03H
	DB	036H
	DB	036H
	DB	036H
	DB	03H
	DB	03H
	DB	02H
	DB	036H
	DB	02H
	DB	02H
	DB	02H
	DB	02H
	DB	02H
	DB	02H
	DB	03H
	DB	02H
	DB	02H
	DB	02H
	DB	02H
	DB	02H
	DB	02H
	DB	02H
	DB	02H
	DB	02H
	DB	03H
	DB	013H
	DB	013H
	DB	013H
	DB	01H
	DB	01H
	DB	07H
	DB	07H
	DB	07H
	DB	07H
	DB	07H
	DB	07H
	DB	07H
	DB	07H
	DB	07H
	DB	07H
	DB	07H
	DB	07H
	DB	01H
	DB	01H
	DB	01H
	DB	01H
	DB	01H
	DB	01H
	DB	013H
	DB	01H
	DB	01H
	DB	013H
	DB	013H
	DB	0bH
	DB	0bH
	DB	02H
	DB	03H
	DB	013H
	DB	01H
	DB	07H
	DB	01H
	DB	02H
	DB	04H
	DB	06H
	DB	04H
	DB	06H
	DB	06H
	DB	04H
	DB	04H
	DB	03H
	DB	02aH
	DB	04aH
	DB	010H
	DB	04aH
	DB	04aH
	DB	04aH
	DB	04aH
	DB	04aH
	DB	010H
	DB	010H
	DB	049H
	DB	0b6H
	DB	0d4H
	DB	048H
	DB	03dH
	DB	09H
	DB	05H
	DB	06H
	DB	06H
	DB	01eH
	DB	06H
	DB	04H
	DB	04H
	DB	04H
	DB	04H
	DB	02H
	DB	04H
	DB	02H
	DB	02H
	DB	036H
	DB	036H
	DB	036H
	DB	02H
	DB	036H
	DB	04H
	DB	04H
	DB	036H
	DB	04H
	DB	04H
	DB	04H
	DB	04H
	DB	036H
	DB	04H
	DB	04H
	DB	04H
	DB	06H
	DB	04H
	DB	04H
	DB	036H
	DB	03H
	DB	03H
	DB	0bH
	DB	03H
	DB	03H
	DB	03H
	DB	03H
	DB	0bH
	DB	0bH
	DB	03H
	DB	03H
	DB	03H
	DB	03H
	DB	0bH
	DB	013H
	DB	01H
	DB	0bH
	DB	03H
	DB	069H
	DB	013H
	DB	03H
	DB	03H
	DB	03H
	DB	03H
	DB	02H
	DB	08H
	DB	05H
	DB	012H
	DB	08H
	DB	08H
	DB	05H
	DB	012H
	DB	012H
	DB	012H
	DB	0aH
	DB	09H
	DB	0aH
	DB	05H
	DB	08H
	DB	06H
	DB	02H
	DB	038H
	DB	02H
	DB	069H
	DB	069H
	DB	013H
	DB	069H
	DB	02H
	DB	038H
	DB	08H
	DB	08H
	DB	06H
	DB	08H
	DB	06H
	DB	038H
	DB	038H
	DB	04H
	DB	04H
	DB	04H
	DB	04H
	DB	02H
	DB	02H
	DB	036H
	DB	04H
	DB	04H
	DB	02H
	DB	02H
	DB	02H
	DB	0bH
	DB	03H
	DB	0bH
	DB	013H
	DB	03H
	DB	03H
	DB	02H
	DB	02H
	DB	03H
	DB	02H
	DB	038H
	DB	06H
	DB	04H
	DB	04H
	DB	06H
	DB	08H
	DB	06H
	DB	08H
	DB	08H
	DB	08H
	DB	08H
	DB	06H
	DB	06H
	DB	06H
	DB	04H
	DB	06H
	DB	06H
	DB	06H
	DB	06H
	DB	06H
	DB	04H
	DB	02H
	DB	04H
	DB	036H
	DB	03H
	DB	03H
	DB	03H
	DB	03H
	DB	036H
	DB	036H
	DB	036H
	DB	03H
	DB	03H
	DB	03H
	DB	03H
	DB	03H
	DB	02H
	DB	02H
	DB	04H
	DB	02H
	DB	02H
	DB	02H
	DB	02H
	DB	03H
	DB	02H
	DB	02H
	DB	03H
	DB	069H
	DB	013H
	DB	01H
	DB	01H
	DB	01H
	DB	01H
	DB	01H
	DB	07H
	DB	07H
	DB	07H
	DB	07H
	DB	07H
	DB	07H
	DB	07H
	DB	07H
	DB	07H
	DB	07H
	DB	07H
	DB	07H
	DB	07H
	DB	01H
	DB	01H
	DB	07H
	DB	07H
	DB	07H
	DB	01H
	DB	07H
	DB	07H
	DB	07H
	DB	07H
	DB	07H
	DB	07H
	DB	07H
	DB	07H
	DB	07H
	DB	07H
	DB	07H
	DB	07H
	DB	01H
	DB	0bH
	DB	03H
	DB	0bH
	DB	03H
	DB	03H
	DB	03H
	DB	02H
	DB	02H
	DB	0bH
	DB	02bH
	DB	07bH
	DB	049H
	DB	010H
	DB	010H
	DB	010H
	DB	010H
	DB	010H
	DB	010H
	DB	010H
	DB	049H
	DB	04aH
	DB	0d0H
	DB	048H
	DB	0cH
	DB	09H
	DB	05H
	DB	06H
	DB	06H
	DB	04H
	DB	04H
	DB	06H
	DB	06H
	DB	04H
	DB	04H
	DB	04H
	DB	02H
	DB	04H
	DB	04H
	DB	036H
	DB	036H
	DB	04H
	DB	02H
	DB	036H
	DB	036H
	DB	04H
	DB	04H
	DB	04H
	DB	04H
	DB	036H
	DB	04H
	DB	036H
	DB	036H
	DB	036H
	DB	036H
	DB	04H
	DB	042H
	DB	042H
	DB	036H
	DB	036H
	DB	03H
	DB	03H
	DB	03H
	DB	03H
	DB	0bH
	DB	03H
	DB	03H
	DB	02H
	DB	03H
	DB	03H
	DB	03H
	DB	03H
	DB	01H
	DB	01H
	DB	01H
	DB	01H
	DB	01H
	DB	01H
	DB	01H
	DB	01H
	DB	01H
	DB	013H
	DB	03H
	DB	03H
	DB	02H
	DB	08H
	DB	05H
	DB	05H
	DB	05H
	DB	0aH
	DB	09H
	DB	09H
	DB	0b2H
	DB	09H
	DB	0aH
	DB	0aH
	DB	012H
	DB	012H
	DB	05H
	DB	06H
	DB	04H
	DB	038H
	DB	02H
	DB	02H
	DB	038H
	DB	02H
	DB	02H
	DB	038H
	DB	08H
	DB	08H
	DB	06H
	DB	06H
	DB	06H
	DB	04H
	DB	04H
	DB	04H
	DB	04H
	DB	02H
	DB	04H
	DB	02H
	DB	02H
	DB	02H
	DB	036H
	DB	036H
	DB	04H
	DB	04H
	DB	036H
	DB	03H
	DB	0bH
	DB	01H
	DB	01H
	DB	013H
	DB	013H
	DB	03H
	DB	03H
	DB	02H
	DB	02H
	DB	04H
	DB	06H
	DB	04H
	DB	04H
	DB	06H
	DB	06H
	DB	06H
	DB	06H
	DB	06H
	DB	04H
	DB	04H
	DB	06H
	DB	038H
	DB	06H
	DB	04H
	DB	04H
	DB	04H
	DB	06H
	DB	06H
	DB	06H
	DB	04H
	DB	04H
	DB	04H
	DB	036H
	DB	02H
	DB	02H
	DB	02H
	DB	03H
	DB	036H
	DB	036H
	DB	03H
	DB	03H
	DB	03H
	DB	03H
	DB	03H
	DB	03H
	DB	02H
	DB	02H
	DB	02H
	DB	04H
	DB	02H
	DB	02H
	DB	02H
	DB	02H
	DB	03H
	DB	03H
	DB	01H
	DB	01H
	DB	013H
	DB	01H
	DB	01H
	DB	01H
	DB	07H
	DB	01H
	DB	07H
	DB	07H
	DB	07H
	DB	07H
	DB	07H
	DB	07H
	DB	07H
	DB	07H
	DB	01H
	DB	01H
	DB	07H
	DB	07H
	DB	07H
	DB	07H
	DB	07H
	DB	07H
	DB	07H
	DB	07H
	DB	07H
	DB	07H
	DB	07H
	DB	07H
	DB	07H
	DB	07H
	DB	07H
	DB	07H
	DB	07H
	DB	07H
	DB	07H
	DB	07H
	DB	07H
	DB	07H
	DB	07H
	DB	07H
	DB	01H
	DB	01H
	DB	01H
	DB	01H
	DB	013H
	DB	013H
	DB	01H
	DB	071H
	DB	04aH
	DB	049H
	DB	010H
	DB	010H
	DB	010H
	DB	010H
	DB	010H
	DB	010H
	DB	010H
	DB	049H
	DB	07aH
	DB	0a5H
	DB	048H
	DB	09H
	DB	09H
	DB	0aH
	DB	08H
	DB	04H
	DB	04H
	DB	06H
	DB	04H
	DB	01eH
	DB	08H
	DB	06H
	DB	04H
	DB	04H
	DB	04H
	DB	04H
	DB	04H
	DB	04H
	DB	04H
	DB	04H
	DB	04H
	DB	036H
	DB	036H
	DB	036H
	DB	036H
	DB	036H
	DB	02H
	DB	036H
	DB	036H
	DB	036H
	DB	036H
	DB	02H
	DB	036H
	DB	036H
	DB	04H
	DB	04H
	DB	04H
	DB	036H
	DB	03H
	DB	03H
	DB	0bH
	DB	0bH
	DB	0bH
	DB	03H
	DB	036H
	DB	02H
	DB	036H
	DB	03H
	DB	03H
	DB	0bH
	DB	0bH
	DB	01H
	DB	01H
	DB	01H
	DB	01H
	DB	01H
	DB	013H
	DB	013H
	DB	013H
	DB	013H
	DB	013H
	DB	013H
	DB	02H
	DB	06H
	DB	08H
	DB	05H
	DB	012H
	DB	05H
	DB	05H
	DB	05H
	DB	05H
	DB	012H
	DB	0aH
	DB	05H
	DB	08H
	DB	08H
	DB	08H
	DB	06H
	DB	04H
	DB	04H
	DB	06H
	DB	08H
	DB	04H
	DB	038H
	DB	038H
	DB	06H
	DB	06H
	DB	04H
	DB	038H
	DB	02H
	DB	04H
	DB	04H
	DB	04H
	DB	04H
	DB	04H
	DB	04H
	DB	04H
	DB	04H
	DB	04H
	DB	04H
	DB	02H
	DB	04H
	DB	04H
	DB	036H
	DB	03H
	DB	0bH
	DB	01H
	DB	01H
	DB	013H
	DB	03H
	DB	03H
	DB	02H
	DB	02H
	DB	04H
	DB	038H
	DB	06H
	DB	06H
	DB	06H
	DB	06H
	DB	06H
	DB	08H
	DB	04H
	DB	02H
	DB	04H
	DB	06H
	DB	06H
	DB	038H
	DB	038H
	DB	038H
	DB	04H
	DB	04H
	DB	02H
	DB	02H
	DB	02H
	DB	04H
	DB	04H
	DB	06H
	DB	06H
	DB	06H
	DB	04H
	DB	04H
	DB	036H
	DB	03H
	DB	036H
	DB	03H
	DB	03H
	DB	02H
	DB	03H
	DB	03H
	DB	03H
	DB	02H
	DB	03H
	DB	03H
	DB	03H
	DB	03H
	DB	03H
	DB	03H
	DB	013H
	DB	013H
	DB	013H
	DB	01H
	DB	01H
	DB	01H
	DB	01H
	DB	01H
	DB	01H
	DB	07H
	DB	07H
	DB	01H
	DB	07H
	DB	07H
	DB	07H
	DB	07H
	DB	07H
	DB	01H
	DB	01H
	DB	07H
	DB	07H
	DB	07H
	DB	07H
	DB	07H
	DB	07H
	DB	07H
	DB	07H
	DB	07H
	DB	07H
	DB	07H
	DB	07H
	DB	07H
	DB	07H
	DB	07H
	DB	07H
	DB	07H
	DB	07H
	DB	07H
	DB	07H
	DB	07H
	DB	07H
	DB	07H
	DB	07H
	DB	07H
	DB	07H
	DB	07H
	DB	07H
	DB	07H
	DB	01H
	DB	0bH
	DB	03H
	DB	01H
	DB	0acH
	DB	04fH
	DB	052H
	DB	010H
	DB	010H
	DB	010H
	DB	010H
	DB	010H
	DB	049H
	DB	049H
	DB	07aH
	DB	0d7H
	DB	085H
	DB	00H
	DB	014H
	DB	033H
	DB	026H
	DB	06H
	DB	04H
	DB	06H
	DB	06H
	DB	06H
	DB	06H
	DB	08H
	DB	08H
	DB	08H
	DB	01eH
	DB	06H
	DB	06H
	DB	06H
	DB	06H
	DB	04H
	DB	04H
	DB	04H
	DB	036H
	DB	036H
	DB	04H
	DB	04H
	DB	036H
	DB	036H
	DB	03H
	DB	03H
	DB	0bH
	DB	03H
	DB	03H
	DB	03H
	DB	03H
	DB	03H
	DB	036H
	DB	05H
	DB	09H
	DB	09H
	DB	0aH
	DB	05H
	DB	05H
	DB	05H
	DB	08H
	DB	01eH
	DB	05H
	DB	05H
	DB	06H
	DB	06H
	DB	02H
	DB	03H
	DB	013H
	DB	01H
	DB	07H
	DB	07H
	DB	01H
	DB	01H
	DB	01H
	DB	01H
	DB	01H
	DB	01H
	DB	01H
	DB	01H
	DB	02H
	DB	06H
	DB	06H
	DB	038H
	DB	04H
	DB	06H
	DB	08H
	DB	05H
	DB	08H
	DB	08H
	DB	05H
	DB	06H
	DB	06H
	DB	06H
	DB	04H
	DB	06H
	DB	06H
	DB	06H
	DB	06H
	DB	08H
	DB	08H
	DB	038H
	DB	04H
	DB	02H
	DB	02H
	DB	02H
	DB	02H
	DB	02H
	DB	02H
	DB	04H
	DB	02H
	DB	02H
	DB	02H
	DB	02H
	DB	04H
	DB	04H
	DB	04H
	DB	06H
	DB	04H
	DB	04H
	DB	04H
	DB	03H
	DB	013H
	DB	0bH
	DB	013H
	DB	069H
	DB	02H
	DB	02H
	DB	02H
	DB	038H
	DB	04H
	DB	06H
	DB	06H
	DB	06H
	DB	06H
	DB	06H
	DB	06H
	DB	06H
	DB	04H
	DB	06H
	DB	06H
	DB	04H
	DB	038H
	DB	04H
	DB	038H
	DB	04H
	DB	04H
	DB	04H
	DB	02H
	DB	03H
	DB	02H
	DB	02H
	DB	06H
	DB	08H
	DB	01eH
	DB	01eH
	DB	042H
	DB	04H
	DB	036H
	DB	03H
	DB	03H
	DB	036H
	DB	02H
	DB	02H
	DB	03H
	DB	03H
	DB	02H
	DB	03H
	DB	03H
	DB	03H
	DB	03H
	DB	03H
	DB	03H
	DB	013H
	DB	01H
	DB	01H
	DB	01H
	DB	01H
	DB	01H
	DB	01H
	DB	01H
	DB	07H
	DB	07H
	DB	01H
	DB	07H
	DB	07H
	DB	07H
	DB	07H
	DB	07H
	DB	07H
	DB	07H
	DB	07H
	DB	07H
	DB	07H
	DB	07H
	DB	07H
	DB	07H
	DB	07H
	DB	07H
	DB	07H
	DB	07H
	DB	07H
	DB	07H
	DB	07H
	DB	07H
	DB	07H
	DB	07H
	DB	07H
	DB	07H
	DB	07H
	DB	07H
	DB	07H
	DB	07H
	DB	01H
	DB	013H
	DB	0feH
	DB	01H
	DB	01H
	DB	07H
	DB	01H
	DB	01H
	DB	0bH
	DB	03H
	DB	02H
	DB	02H
	DB	01H
	DB	0acH
	DB	060H
	DB	07aH
	DB	049H
	DB	049H
	DB	049H
	DB	049H
	DB	049H
	DB	049H
	DB	049H
	DB	049H
	DB	0dH
	DB	085H
	DB	038H
	DB	0cH
	DB	0fH
	DB	026H
	DB	06H
	DB	06H
	DB	04H
	DB	04H
	DB	06H
	DB	08H
	DB	08H
	DB	08H
	DB	08H
	DB	01eH
	DB	08H
	DB	06H
	DB	04H
	DB	06H
	DB	06H
	DB	04H
	DB	04H
	DB	04H
	DB	036H
	DB	04H
	DB	04H
	DB	04H
	DB	036H
	DB	03H
	DB	03H
	DB	02H
	DB	03H
	DB	013H
	DB	02H
	DB	04H
	DB	05H
	DB	09H
	DB	033H
	DB	014H
	DB	09H
	DB	014H
	DB	033H
	DB	0fH
	DB	0fH
	DB	0fH
	DB	0fH
	DB	0fH
	DB	0cH
	DB	014H
	DB	014H
	DB	09H
	DB	0aH
	DB	05H
	DB	08H
	DB	02H
	DB	013H
	DB	01H
	DB	01H
	DB	01H
	DB	01H
	DB	01H
	DB	01H
	DB	01H
	DB	03H
	DB	02H
	DB	04H
	DB	03H
	DB	069H
	DB	02H
	DB	038H
	DB	06H
	DB	06H
	DB	04H
	DB	02H
	DB	06H
	DB	06H
	DB	06H
	DB	06H
	DB	06H
	DB	08H
	DB	06H
	DB	06H
	DB	06H
	DB	06H
	DB	06H
	DB	04H
	DB	02H
	DB	02H
	DB	02H
	DB	02H
	DB	03H
	DB	013H
	DB	013H
	DB	013H
	DB	069H
	DB	03H
	DB	03H
	DB	069H
	DB	03H
	DB	03H
	DB	02H
	DB	02H
	DB	04H
	DB	06H
	DB	08H
	DB	04H
	DB	02H
	DB	03H
	DB	03H
	DB	03H
	DB	03H
	DB	03H
	DB	02H
	DB	06H
	DB	04H
	DB	04H
	DB	06H
	DB	06H
	DB	06H
	DB	06H
	DB	04H
	DB	04H
	DB	04H
	DB	04H
	DB	04H
	DB	038H
	DB	038H
	DB	038H
	DB	04H
	DB	04H
	DB	02H
	DB	02H
	DB	02H
	DB	04H
	DB	02H
	DB	04H
	DB	06H
	DB	06H
	DB	01eH
	DB	08H
	DB	06H
	DB	04H
	DB	04H
	DB	036H
	DB	03H
	DB	03H
	DB	02H
	DB	02H
	DB	02H
	DB	02H
	DB	02H
	DB	03H
	DB	03H
	DB	03H
	DB	03H
	DB	0bH
	DB	01H
	DB	01H
	DB	01H
	DB	07H
	DB	07H
	DB	07H
	DB	07H
	DB	07H
	DB	07H
	DB	07H
	DB	07H
	DB	07H
	DB	07H
	DB	07H
	DB	07H
	DB	07H
	DB	07H
	DB	07H
	DB	07H
	DB	07H
	DB	07H
	DB	07H
	DB	07H
	DB	07H
	DB	07H
	DB	07H
	DB	07H
	DB	07H
	DB	07H
	DB	07H
	DB	07H
	DB	07H
	DB	07H
	DB	07H
	DB	07H
	DB	01H
	DB	0bH
	DB	02H
	DB	04H
	DB	01eH
	DB	026H
	DB	09H
	DB	0fH
	DB	0fH
	DB	09H
	DB	05H
	DB	06H
	DB	04H
	DB	02H
	DB	02H
	DB	02H
	DB	02H
	DB	03H
	DB	07H
	DB	086H
	DB	04aH
	DB	0eH
	DB	049H
	DB	049H
	DB	049H
	DB	049H
	DB	049H
	DB	052H
	DB	052H
	DB	052H
	DB	0dH
	DB	0a3H
	DB	0b3H
	DB	0fH
	DB	0fH
	DB	05H
	DB	038H
	DB	04H
	DB	04H
	DB	04H
	DB	04H
	DB	06H
	DB	06H
	DB	06H
	DB	08H
	DB	06H
	DB	06H
	DB	01eH
	DB	01eH
	DB	01eH
	DB	01eH
	DB	06H
	DB	042H
	DB	04H
	DB	04H
	DB	036H
	DB	036H
	DB	036H
	DB	036H
	DB	04H
	DB	06H
	DB	01eH
	DB	01eH
	DB	01eH
	DB	02fH
	DB	033H
	DB	033H
	DB	033H
	DB	014H
	DB	09H
	DB	09H
	DB	09H
	DB	014H
	DB	014H
	DB	0fH
	DB	0fH
	DB	0cH
	DB	0fH
	DB	0fH
	DB	011H
	DB	011H
	DB	0fH
	DB	0fH
	DB	0fH
	DB	0cH
	DB	0b2H
	DB	08H
	DB	02H
	DB	03H
	DB	013H
	DB	03H
	DB	02H
	DB	02H
	DB	04H
	DB	06H
	DB	02H
	DB	03H
	DB	013H
	DB	02H
	DB	02H
	DB	04H
	DB	038H
	DB	06H
	DB	08H
	DB	06H
	DB	06H
	DB	08H
	DB	08H
	DB	08H
	DB	05H
	DB	05H
	DB	05H
	DB	05H
	DB	08H
	DB	04H
	DB	02H
	DB	02H
	DB	02H
	DB	02H
	DB	03H
	DB	013H
	DB	01H
	DB	01H
	DB	01H
	DB	01H
	DB	01H
	DB	01H
	DB	01H
	DB	01H
	DB	01H
	DB	01H
	DB	01H
	DB	01H
	DB	0bH
	DB	03H
	DB	04H
	DB	06H
	DB	04H
	DB	03H
	DB	03H
	DB	013H
	DB	0bH
	DB	069H
	DB	02H
	DB	02H
	DB	02H
	DB	02H
	DB	038H
	DB	04H
	DB	04H
	DB	04H
	DB	04H
	DB	038H
	DB	04H
	DB	02H
	DB	02H
	DB	02H
	DB	02H
	DB	02H
	DB	02H
	DB	04H
	DB	04H
	DB	04H
	DB	04H
	DB	04H
	DB	04H
	DB	04H
	DB	06H
	DB	06H
	DB	06H
	DB	01eH
	DB	01eH
	DB	042H
	DB	042H
	DB	036H
	DB	03H
	DB	03H
	DB	03H
	DB	03H
	DB	0bH
	DB	03H
	DB	03H
	DB	03H
	DB	0bH
	DB	01H
	DB	01H
	DB	01H
	DB	01H
	DB	07H
	DB	07H
	DB	07H
	DB	07H
	DB	07H
	DB	07H
	DB	07H
	DB	07H
	DB	07H
	DB	07H
	DB	07H
	DB	07H
	DB	07H
	DB	07H
	DB	07H
	DB	07H
	DB	07H
	DB	07H
	DB	07H
	DB	07H
	DB	07H
	DB	07H
	DB	07H
	DB	01H
	DB	01H
	DB	01H
	DB	01H
	DB	01H
	DB	01H
	DB	01H
	DB	0bH
	DB	0bH
	DB	0bH
	DB	03H
	DB	04H
	DB	01eH
	DB	05H
	DB	05H
	DB	02fH
	DB	09H
	DB	09H
	DB	014H
	DB	041H
	DB	016H
	DB	041H
	DB	0fH
	DB	033H
	DB	014H
	DB	09H
	DB	05H
	DB	08H
	DB	06H
	DB	07H
	DB	086H
	DB	04aH
	DB	0eH
	DB	052H
	DB	052H
	DB	052H
	DB	052H
	DB	052H
	DB	052H
	DB	052H
	DB	052H
	DB	08dH
	DB	0bfH
	DB	088H
	DB	0cH
	DB	014H
	DB	05H
	DB	04H
	DB	04H
	DB	04H
	DB	04H
	DB	06H
	DB	04H
	DB	04H
	DB	04H
	DB	06H
	DB	08H
	DB	08H
	DB	08H
	DB	06H
	DB	06H
	DB	01eH
	DB	042H
	DB	042H
	DB	04H
	DB	04H
	DB	036H
	DB	036H
	DB	036H
	DB	04H
	DB	042H
	DB	01eH
	DB	06H
	DB	06H
	DB	034H
	DB	09H
	DB	014H
	DB	014H
	DB	09H
	DB	09H
	DB	09H
	DB	09H
	DB	09H
	DB	09H
	DB	09H
	DB	09H
	DB	09H
	DB	0cH
	DB	014H
	DB	0cH
	DB	0fH
	DB	0cH
	DB	0fH
	DB	0cH
	DB	03dH
	DB	09H
	DB	09H
	DB	09H
	DB	012H
	DB	06H
	DB	04H
	DB	02H
	DB	069H
	DB	02H
	DB	02H
	DB	02H
	DB	069H
	DB	013H
	DB	013H
	DB	03H
	DB	03H
	DB	02H
	DB	04H
	DB	038H
	DB	08H
	DB	05H
	DB	08H
	DB	08H
	DB	08H
	DB	06H
	DB	08H
	DB	05H
	DB	08H
	DB	08H
	DB	06H
	DB	03H
	DB	013H
	DB	0bH
	DB	013H
	DB	013H
	DB	01H
	DB	01H
	DB	01H
	DB	01H
	DB	01H
	DB	01H
	DB	07H
	DB	01H
	DB	07H
	DB	07H
	DB	07H
	DB	01H
	DB	01H
	DB	01H
	DB	01H
	DB	01H
	DB	01H
	DB	0bH
	DB	0bH
	DB	03H
	DB	03H
	DB	03H
	DB	03H
	DB	03H
	DB	03H
	DB	02H
	DB	02H
	DB	04H
	DB	038H
	DB	04H
	DB	038H
	DB	02H
	DB	038H
	DB	06H
	DB	038H
	DB	02H
	DB	03H
	DB	03H
	DB	02H
	DB	02H
	DB	02H
	DB	04H
	DB	02H
	DB	02H
	DB	02H
	DB	04H
	DB	06H
	DB	04H
	DB	04H
	DB	04H
	DB	04H
	DB	06H
	DB	01eH
	DB	01eH
	DB	01eH
	DB	04H
	DB	03H
	DB	03H
	DB	03H
	DB	0bH
	DB	0bH
	DB	01H
	DB	01H
	DB	01H
	DB	07H
	DB	07H
	DB	07H
	DB	07H
	DB	07H
	DB	07H
	DB	07H
	DB	07H
	DB	07H
	DB	07H
	DB	07H
	DB	07H
	DB	07H
	DB	07H
	DB	07H
	DB	07H
	DB	07H
	DB	07H
	DB	01H
	DB	08H
	DB	05H
	DB	06H
	DB	04H
	DB	02H
	DB	02H
	DB	036H
	DB	036H
	DB	04H
	DB	04H
	DB	04H
	DB	04H
	DB	036H
	DB	036H
	DB	036H
	DB	036H
	DB	036H
	DB	036H
	DB	036H
	DB	036H
	DB	02H
	DB	04H
	DB	01eH
	DB	05H
	DB	05H
	DB	034H
	DB	09H
	DB	09H
	DB	026H
	DB	0aH
	DB	0cH
	DB	011H
	DB	011H
	DB	033H
	DB	09H
	DB	09H
	DB	012H
	DB	05H
	DB	036H
	DB	086H
	DB	017H
	DB	0eH
	DB	052H
	DB	052H
	DB	052H
	DB	052H
	DB	052H
	DB	0eH
	DB	0eH
	DB	0eH
	DB	0eH
	DB	060H
	DB	059H
	DB	09H
	DB	014H
	DB	05H
	DB	04H
	DB	02H
	DB	02H
	DB	02H
	DB	02H
	DB	02H
	DB	04H
	DB	04H
	DB	02H
	DB	04H
	DB	06H
	DB	04H
	DB	06H
	DB	06H
	DB	04H
	DB	01eH
	DB	01eH
	DB	01eH
	DB	042H
	DB	04H
	DB	04H
	DB	042H
	DB	01eH
	DB	042H
	DB	04H
	DB	04H
	DB	05H
	DB	012H
	DB	0aH
	DB	0aH
	DB	09H
	DB	09H
	DB	0aH
	DB	0aH
	DB	09H
	DB	09H
	DB	09H
	DB	09H
	DB	09H
	DB	03dH
	DB	03dH
	DB	03dH
	DB	014H
	DB	014H
	DB	03dH
	DB	03dH
	DB	03dH
	DB	09H
	DB	03dH
	DB	03dH
	DB	0cH
	DB	0cH
	DB	014H
	DB	012H
	DB	06H
	DB	02H
	DB	013H
	DB	069H
	DB	013H
	DB	01H
	DB	01H
	DB	013H
	DB	03H
	DB	013H
	DB	03H
	DB	03H
	DB	02H
	DB	04H
	DB	06H
	DB	06H
	DB	08H
	DB	08H
	DB	06H
	DB	08H
	DB	06H
	DB	06H
	DB	038H
	DB	02H
	DB	069H
	DB	01H
	DB	01H
	DB	01H
	DB	01H
	DB	01H
	DB	01H
	DB	07H
	DB	01H
	DB	07H
	DB	07H
	DB	07H
	DB	01H
	DB	01H
	DB	07H
	DB	07H
	DB	01H
	DB	01H
	DB	01H
	DB	01H
	DB	01H
	DB	01H
	DB	01H
	DB	0bH
	DB	0bH
	DB	03H
	DB	03H
	DB	03H
	DB	03H
	DB	02H
	DB	038H
	DB	06H
	DB	04H
	DB	04H
	DB	04H
	DB	04H
	DB	04H
	DB	02H
	DB	02H
	DB	02H
	DB	02H
	DB	02H
	DB	03H
	DB	03H
	DB	02H
	DB	02H
	DB	02H
	DB	03H
	DB	069H
	DB	02H
	DB	04H
	DB	04H
	DB	04H
	DB	04H
	DB	04H
	DB	04H
	DB	04H
	DB	04H
	DB	01eH
	DB	05H
	DB	0d6H
	DB	036H
	DB	03H
	DB	03H
	DB	0bH
	DB	01H
	DB	01H
	DB	01H
	DB	07H
	DB	07H
	DB	07H
	DB	07H
	DB	07H
	DB	07H
	DB	07H
	DB	07H
	DB	07H
	DB	07H
	DB	07H
	DB	07H
	DB	01H
	DB	01H
	DB	01H
	DB	01H
	DB	01H
	DB	0bH
	DB	03H
	DB	02H
	DB	04H
	DB	05H
	DB	0aH
	DB	0aH
	DB	012H
	DB	01eH
	DB	01eH
	DB	01eH
	DB	01eH
	DB	01eH
	DB	042H
	DB	042H
	DB	04H
	DB	04H
	DB	04H
	DB	04H
	DB	04H
	DB	04H
	DB	04H
	DB	04H
	DB	036H
	DB	02H
	DB	04H
	DB	06H
	DB	06H
	DB	01eH
	DB	05H
	DB	01eH
	DB	04H
	DB	01H
	DB	07H
	DB	02H
	DB	05H
	DB	02fH
	DB	068H
	DB	026H
	DB	05H
	DB	06H
	DB	0bH
	DB	0adH
	DB	018H
	DB	08dH
	DB	0eH
	DB	0eH
	DB	0eH
	DB	0eH
	DB	0eH
	DB	0eH
	DB	0eH
	DB	0eH
	DB	0eH
	DB	0b6H
	DB	066H
	DB	014H
	DB	033H
	DB	06H
	DB	02H
	DB	02H
	DB	02H
	DB	02H
	DB	02H
	DB	03H
	DB	02H
	DB	02H
	DB	04H
	DB	02H
	DB	02H
	DB	02H
	DB	02H
	DB	036H
	DB	036H
	DB	04H
	DB	06H
	DB	01eH
	DB	01eH
	DB	0d6H
	DB	05H
	DB	05H
	DB	05H
	DB	01eH
	DB	04H
	DB	05H
	DB	02fH
	DB	026H
	DB	05H
	DB	0aH
	DB	09H
	DB	014H
	DB	03dH
	DB	03dH
	DB	0aH
	DB	0aH
	DB	09H
	DB	09H
	DB	014H
	DB	0cH
	DB	014H
	DB	03dH
	DB	09H
	DB	09H
	DB	0aH
	DB	09H
	DB	03dH
	DB	03dH
	DB	0cH
	DB	0fH
	DB	0faH
	DB	011H
	DB	011H
	DB	015H
	DB	011H
	DB	0fH
	DB	0cH
	DB	08H
	DB	0bH
	DB	01H
	DB	01H
	DB	013H
	DB	03H
	DB	013H
	DB	013H
	DB	013H
	DB	02H
	DB	038H
	DB	04H
	DB	06H
	DB	05H
	DB	08H
	DB	08H
	DB	08H
	DB	04H
	DB	02H
	DB	03H
	DB	069H
	DB	03H
	DB	01H
	DB	07H
	DB	01H
	DB	01H
	DB	01H
	DB	07H
	DB	07H
	DB	07H
	DB	07H
	DB	07H
	DB	07H
	DB	07H
	DB	07H
	DB	01H
	DB	01H
	DB	01H
	DB	01H
	DB	01H
	DB	0bH
	DB	0bH
	DB	03H
	DB	02H
	DB	03H
	DB	03H
	DB	03H
	DB	013H
	DB	013H
	DB	03H
	DB	02H
	DB	02H
	DB	038H
	DB	04H
	DB	04H
	DB	04H
	DB	038H
	DB	04H
	DB	04H
	DB	02H
	DB	02H
	DB	02H
	DB	02H
	DB	069H
	DB	013H
	DB	013H
	DB	069H
	DB	013H
	DB	013H
	DB	03H
	DB	02H
	DB	02H
	DB	02H
	DB	03H
	DB	03H
	DB	03H
	DB	02H
	DB	02H
	DB	02H
	DB	036H
	DB	04H
	DB	01eH
	DB	06H
	DB	036H
	DB	03H
	DB	0bH
	DB	01H
	DB	01H
	DB	07H
	DB	07H
	DB	07H
	DB	07H
	DB	07H
	DB	07H
	DB	01H
	DB	0bH
	DB	0bH
	DB	03H
	DB	02H
	DB	04H
	DB	04H
	DB	036H
	DB	036H
	DB	036H
	DB	036H
	DB	036H
	DB	036H
	DB	036H
	DB	02H
	DB	0bH
	DB	02H
	DB	05H
	DB	012H
	DB	0aH
	DB	05H
	DB	05H
	DB	05H
	DB	08H
	DB	05H
	DB	01eH
	DB	01eH
	DB	06H
	DB	042H
	DB	06H
	DB	04H
	DB	06H
	DB	04H
	DB	04H
	DB	04H
	DB	04H
	DB	04H
	DB	04H
	DB	04H
	DB	06H
	DB	01eH
	DB	01eH
	DB	04H
	DB	04H
	DB	01eH
	DB	02H
	DB	07H
	DB	07H
	DB	01H
	DB	04H
	DB	01eH
	DB	05H
	DB	01eH
	DB	03H
	DB	0afH
	DB	0d9H
	DB	078H
	DB	0eH
	DB	0eH
	DB	0eH
	DB	0eH
	DB	0eH
	DB	0eH
	DB	0eH
	DB	0eH
	DB	052H
	DB	060H
	DB	0a4H
	DB	0fH
	DB	014H
	DB	04H
	DB	03H
	DB	02H
	DB	03H
	DB	03H
	DB	03H
	DB	03H
	DB	03H
	DB	03H
	DB	03H
	DB	013H
	DB	013H
	DB	0bH
	DB	0bH
	DB	0bH
	DB	0bH
	DB	0bH
	DB	0bH
	DB	03H
	DB	034H
	DB	033H
	DB	09H
	DB	012H
	DB	05H
	DB	05H
	DB	05H
	DB	026H
	DB	05H
	DB	05H
	DB	012H
	DB	0aH
	DB	09H
	DB	09H
	DB	014H
	DB	09H
	DB	09H
	DB	09H
	DB	09H
	DB	03dH
	DB	09H
	DB	09H
	DB	09H
	DB	09H
	DB	0aH
	DB	0aH
	DB	0b2H
	DB	09H
	DB	03dH
	DB	0cH
	DB	0cH
	DB	0cH
	DB	0fH
	DB	011H
	DB	011H
	DB	015H
	DB	015H
	DB	011H
	DB	0faH
	DB	0cH
	DB	0aH
	DB	08H
	DB	038H
	DB	03H
	DB	069H
	DB	03H
	DB	03H
	DB	069H
	DB	03H
	DB	02H
	DB	04H
	DB	08H
	DB	06H
	DB	06H
	DB	06H
	DB	06H
	DB	038H
	DB	03H
	DB	01H
	DB	01H
	DB	013H
	DB	013H
	DB	01H
	DB	07H
	DB	01H
	DB	01H
	DB	07H
	DB	07H
	DB	07H
	DB	07H
	DB	01H
	DB	01H
	DB	01H
	DB	01H
	DB	01H
	DB	01H
	DB	01H
	DB	01H
	DB	0bH
	DB	0bH
	DB	0bH
	DB	036H
	DB	04H
	DB	04H
	DB	04H
	DB	02H
	DB	03H
	DB	0bH
	DB	01H
	DB	013H
	DB	02H
	DB	02H
	DB	04H
	DB	04H
	DB	02H
	DB	02H
	DB	02H
	DB	02H
	DB	02H
	DB	03H
	DB	013H
	DB	069H
	DB	069H
	DB	0bH
	DB	01H
	DB	013H
	DB	01H
	DB	013H
	DB	013H
	DB	013H
	DB	013H
	DB	01H
	DB	01H
	DB	01H
	DB	01H
	DB	01H
	DB	01H
	DB	0bH
	DB	03H
	DB	03H
	DB	03H
	DB	04H
	DB	042H
	DB	036H
	DB	03H
	DB	0bH
	DB	01H
	DB	0bH
	DB	0bH
	DB	03H
	DB	03H
	DB	02H
	DB	06H
	DB	05H
	DB	026H
	DB	034H
	DB	034H
	DB	034H
	DB	034H
	DB	034H
	DB	01eH
	DB	04H
	DB	036H
	DB	03H
	DB	02H
	DB	03H
	DB	036H
	DB	03H
	DB	0bH
	DB	013H
	DB	04H
	DB	01eH
	DB	012H
	DB	0aH
	DB	05H
	DB	05H
	DB	05H
	DB	01eH
	DB	01eH
	DB	01eH
	DB	01eH
	DB	06H
	DB	01eH
	DB	06H
	DB	01eH
	DB	01eH
	DB	01eH
	DB	01eH
	DB	01eH
	DB	06H
	DB	04H
	DB	04H
	DB	04H
	DB	06H
	DB	06H
	DB	06H
	DB	01eH
	DB	06H
	DB	06H
	DB	04H
	DB	01H
	DB	07H
	DB	07H
	DB	07H
	DB	069H
	DB	01eH
	DB	042H
	DB	0d5H
	DB	018H
	DB	078H
	DB	0eH
	DB	0eH
	DB	0eH
	DB	0eH
	DB	0eH
	DB	0eH
	DB	0eH
	DB	08dH
	DB	052H
	DB	04aH
	DB	05dH
	DB	0fH
	DB	014H
	DB	04H
	DB	02H
	DB	03H
	DB	013H
	DB	01H
	DB	01H
	DB	01H
	DB	01H
	DB	01H
	DB	01H
	DB	01H
	DB	0bH
	DB	01H
	DB	01H
	DB	01H
	DB	01H
	DB	0bH
	DB	04H
	DB	02fH
	DB	02fH
	DB	09H
	DB	09H
	DB	09H
	DB	012H
	DB	05H
	DB	012H
	DB	012H
	DB	012H
	DB	012H
	DB	012H
	DB	012H
	DB	0aH
	DB	03dH
	DB	0cH
	DB	03dH
	DB	03dH
	DB	0cH
	DB	014H
	DB	09H
	DB	09H
	DB	0aH
	DB	09H
	DB	0aH
	DB	0aH
	DB	0aH
	DB	0aH
	DB	0aH
	DB	012H
	DB	012H
	DB	0aH
	DB	09H
	DB	09H
	DB	0aH
	DB	09H
	DB	09H
	DB	09H
	DB	09H
	DB	09H
	DB	09H
	DB	0cH
	DB	0cH
	DB	0aH
	DB	012H
	DB	08H
	DB	06H
	DB	06H
	DB	04H
	DB	038H
	DB	02H
	DB	04H
	DB	04H
	DB	04H
	DB	02H
	DB	02H
	DB	02H
	DB	02H
	DB	02H
	DB	069H
	DB	01H
	DB	01H
	DB	01H
	DB	01H
	DB	07H
	DB	07H
	DB	07H
	DB	07H
	DB	07H
	DB	07H
	DB	01H
	DB	01H
	DB	01H
	DB	0bH
	DB	01H
	DB	01H
	DB	0bH
	DB	0bH
	DB	0bH
	DB	0bH
	DB	03H
	DB	04H
	DB	04H
	DB	04H
	DB	06H
	DB	06H
	DB	04H
	DB	02H
	DB	03H
	DB	013H
	DB	01H
	DB	0bH
	DB	069H
	DB	02H
	DB	02H
	DB	038H
	DB	04H
	DB	02H
	DB	02H
	DB	03H
	DB	03H
	DB	013H
	DB	01H
	DB	013H
	DB	0bH
	DB	01H
	DB	01H
	DB	01H
	DB	01H
	DB	01H
	DB	01H
	DB	01H
	DB	01H
	DB	01H
	DB	01H
	DB	07H
	DB	07H
	DB	07H
	DB	07H
	DB	0bH
	DB	03H
	DB	04H
	DB	05H
	DB	0aH
	DB	02fH
	DB	026H
	DB	026H
	DB	026H
	DB	026H
	DB	034H
	DB	02fH
	DB	09H
	DB	09H
	DB	09H
	DB	02fH
	DB	012H
	DB	09H
	DB	02fH
	DB	02fH
	DB	05H
	DB	0d6H
	DB	01eH
	DB	06H
	DB	04H
	DB	036H
	DB	03H
	DB	03H
	DB	03H
	DB	03H
	DB	03H
	DB	0bH
	DB	013H
	DB	04H
	DB	05H
	DB	05H
	DB	05H
	DB	08H
	DB	05H
	DB	05H
	DB	08H
	DB	06H
	DB	06H
	DB	06H
	DB	01eH
	DB	01eH
	DB	01eH
	DB	01eH
	DB	01eH
	DB	01eH
	DB	01eH
	DB	06H
	DB	06H
	DB	06H
	DB	06H
	DB	08H
	DB	08H
	DB	06H
	DB	08H
	DB	08H
	DB	08H
	DB	01eH
	DB	04H
	DB	0bH
	DB	07H
	DB	07H
	DB	07H
	DB	07H
	DB	0bH
	DB	0d5H
	DB	04bH
	DB	078H
	DB	0eH
	DB	0eH
	DB	0eH
	DB	0eH
	DB	0eH
	DB	0eH
	DB	0eH
	DB	08dH
	DB	07aH
	DB	010H
	DB	03bH
	DB	011H
	DB	09H
	DB	02H
	DB	03H
	DB	03H
	DB	0bH
	DB	01H
	DB	01H
	DB	01H
	DB	01H
	DB	01H
	DB	01H
	DB	01H
	DB	01H
	DB	01H
	DB	0bH
	DB	0bH
	DB	03H
	DB	05H
	DB	09H
	DB	02fH
	DB	02fH
	DB	0aH
	DB	0aH
	DB	09H
	DB	0aH
	DB	026H
	DB	0aH
	DB	0aH
	DB	0aH
	DB	012H
	DB	012H
	DB	05H
	DB	05H
	DB	0b2H
	DB	03dH
	DB	0cH
	DB	0faH
	DB	0cH
	DB	0b2H
	DB	012H
	DB	05H
	DB	08H
	DB	05H
	DB	08H
	DB	05H
	DB	08H
	DB	08H
	DB	08H
	DB	08H
	DB	06H
	DB	08H
	DB	05H
	DB	05H
	DB	012H
	DB	012H
	DB	012H
	DB	05H
	DB	05H
	DB	08H
	DB	05H
	DB	09H
	DB	0cH
	DB	0cH
	DB	09H
	DB	0aH
	DB	05H
	DB	08H
	DB	06H
	DB	038H
	DB	06H
	DB	04H
	DB	04H
	DB	06H
	DB	04H
	DB	02H
	DB	02H
	DB	02H
	DB	03H
	DB	013H
	DB	013H
	DB	01H
	DB	01H
	DB	01H
	DB	07H
	DB	07H
	DB	07H
	DB	07H
	DB	07H
	DB	01H
	DB	01H
	DB	01H
	DB	0bH
	DB	0bH
	DB	0bH
	DB	0bH
	DB	03H
	DB	03H
	DB	03H
	DB	036H
	DB	042H
	DB	01eH
	DB	04H
	DB	04H
	DB	04H
	DB	04H
	DB	04H
	DB	04H
	DB	02H
	DB	02H
	DB	03H
	DB	01H
	DB	013H
	DB	02H
	DB	02H
	DB	02H
	DB	02H
	DB	03H
	DB	069H
	DB	013H
	DB	01H
	DB	01H
	DB	01H
	DB	01H
	DB	01H
	DB	01H
	DB	01H
	DB	01H
	DB	01H
	DB	07H
	DB	07H
	DB	07H
	DB	07H
	DB	01H
	DB	01H
	DB	0bH
	DB	03H
	DB	04H
	DB	05H
	DB	0aH
	DB	09H
	DB	014H
	DB	014H
	DB	011H
	DB	011H
	DB	0fH
	DB	0fH
	DB	033H
	DB	014H
	DB	014H
	DB	09H
	DB	09H
	DB	09H
	DB	02fH
	DB	02fH
	DB	026H
	DB	012H
	DB	05H
	DB	05H
	DB	05H
	DB	01eH
	DB	06H
	DB	04H
	DB	04H
	DB	04H
	DB	036H
	DB	03H
	DB	03H
	DB	0bH
	DB	0bH
	DB	01H
	DB	01H
	DB	03H
	DB	04H
	DB	05H
	DB	05H
	DB	05H
	DB	05H
	DB	05H
	DB	012H
	DB	05H
	DB	05H
	DB	05H
	DB	05H
	DB	08H
	DB	01eH
	DB	06H
	DB	04H
	DB	06H
	DB	06H
	DB	01eH
	DB	06H
	DB	06H
	DB	06H
	DB	05H
	DB	08H
	DB	08H
	DB	06H
	DB	08H
	DB	05H
	DB	08H
	DB	06H
	DB	06H
	DB	0bH
	DB	07H
	DB	07H
	DB	07H
	DB	07H
	DB	08bH
	DB	04bH
	DB	078H
	DB	0eH
	DB	0eH
	DB	0eH
	DB	0eH
	DB	0eH
	DB	08dH
	DB	08dH
	DB	08dH
	DB	0eH
	DB	079H
	DB	0cdH
	DB	01bH
	DB	05H
	DB	013H
	DB	013H
	DB	013H
	DB	01H
	DB	01H
	DB	01H
	DB	01H
	DB	07H
	DB	01H
	DB	01H
	DB	01H
	DB	01H
	DB	01H
	DB	03H
	DB	06H
	DB	02fH
	DB	02fH
	DB	02fH
	DB	02fH
	DB	0aH
	DB	0aH
	DB	09H
	DB	09H
	DB	09H
	DB	09H
	DB	09H
	DB	09H
	DB	0aH
	DB	012H
	DB	012H
	DB	08H
	DB	06H
	DB	08H
	DB	0aH
	DB	03dH
	DB	0aH
	DB	08H
	DB	08H
	DB	08H
	DB	06H
	DB	06H
	DB	04H
	DB	06H
	DB	038H
	DB	038H
	DB	038H
	DB	038H
	DB	038H
	DB	06H
	DB	08H
	DB	06H
	DB	06H
	DB	08H
	DB	06H
	DB	06H
	DB	06H
	DB	06H
	DB	06H
	DB	08H
	DB	012H
	DB	012H
	DB	0aH
	DB	0b2H
	DB	0aH
	DB	0aH
	DB	05H
	DB	08H
	DB	08H
	DB	06H
	DB	02H
	DB	02H
	DB	02H
	DB	02H
	DB	02H
	DB	069H
	DB	03H
	DB	013H
	DB	013H
	DB	013H
	DB	01H
	DB	01H
	DB	01H
	DB	07H
	DB	07H
	DB	07H
	DB	01H
	DB	01H
	DB	01H
	DB	01H
	DB	0bH
	DB	0bH
	DB	0bH
	DB	03H
	DB	03H
	DB	03H
	DB	036H
	DB	036H
	DB	04H
	DB	042H
	DB	042H
	DB	01eH
	DB	01eH
	DB	06H
	DB	06H
	DB	06H
	DB	06H
	DB	04H
	DB	04H
	DB	04H
	DB	02H
	DB	02H
	DB	06H
	DB	06H
	DB	02H
	DB	013H
	DB	01H
	DB	01H
	DB	01H
	DB	01H
	DB	01H
	DB	07H
	DB	07H
	DB	07H
	DB	07H
	DB	07H
	DB	07H
	DB	01H
	DB	013H
	DB	02H
	DB	02H
	DB	04H
	DB	08H
	DB	05H
	DB	02fH
	DB	014H
	DB	0fH
	DB	0fH
	DB	0cH
	DB	014H
	DB	09H
	DB	09H
	DB	014H
	DB	0fH
	DB	011H
	DB	0fH
	DB	0cH
	DB	0cH
	DB	014H
	DB	09H
	DB	09H
	DB	09H
	DB	068H
	DB	012H
	DB	012H
	DB	05H
	DB	08H
	DB	01eH
	DB	042H
	DB	01eH
	DB	06H
	DB	04H
	DB	04H
	DB	04H
	DB	036H
	DB	036H
	DB	03H
	DB	03H
	DB	0bH
	DB	013H
	DB	013H
	DB	0bH
	DB	03H
	DB	06H
	DB	05H
	DB	05H
	DB	05H
	DB	05H
	DB	05H
	DB	05H
	DB	012H
	DB	012H
	DB	05H
	DB	012H
	DB	05H
	DB	05H
	DB	05H
	DB	08H
	DB	06H
	DB	06H
	DB	01eH
	DB	08H
	DB	08H
	DB	08H
	DB	08H
	DB	08H
	DB	08H
	DB	08H
	DB	08H
	DB	01eH
	DB	08H
	DB	06H
	DB	06H
	DB	03H
	DB	07H
	DB	07H
	DB	07H
	DB	08bH
	DB	08fH
	DB	0dH
	DB	08dH
	DB	08dH
	DB	08dH
	DB	08dH
	DB	08dH
	DB	08dH
	DB	08dH
	DB	08dH
	DB	08dH
	DB	079H
	DB	0cdH
	DB	01bH
	DB	06H
	DB	02H
	DB	02H
	DB	01H
	DB	01H
	DB	0bH
	DB	01H
	DB	01H
	DB	01H
	DB	01H
	DB	01H
	DB	01H
	DB	0bH
	DB	036H
	DB	05H
	DB	09H
	DB	02fH
	DB	026H
	DB	02fH
	DB	0aH
	DB	0aH
	DB	0aH
	DB	09H
	DB	09H
	DB	03dH
	DB	03dH
	DB	09H
	DB	09H
	DB	014H
	DB	014H
	DB	09H
	DB	09H
	DB	0aH
	DB	012H
	DB	06H
	DB	0feH
	DB	01H
	DB	013H
	DB	03H
	DB	03H
	DB	02H
	DB	02H
	DB	02H
	DB	02H
	DB	06H
	DB	08H
	DB	06H
	DB	038H
	DB	06H
	DB	06H
	DB	038H
	DB	02H
	DB	02H
	DB	04H
	DB	04H
	DB	04H
	DB	04H
	DB	06H
	DB	06H
	DB	06H
	DB	06H
	DB	08H
	DB	012H
	DB	0aH
	DB	09H
	DB	0aH
	DB	0aH
	DB	05H
	DB	08H
	DB	06H
	DB	02H
	DB	02H
	DB	02H
	DB	02H
	DB	03H
	DB	03H
	DB	013H
	DB	013H
	DB	013H
	DB	013H
	DB	013H
	DB	013H
	DB	013H
	DB	01H
	DB	01H
	DB	01H
	DB	01H
	DB	0bH
	DB	0bH
	DB	0bH
	DB	03H
	DB	03H
	DB	03H
	DB	036H
	DB	036H
	DB	036H
	DB	036H
	DB	04H
	DB	01eH
	DB	042H
	DB	042H
	DB	01eH
	DB	01eH
	DB	01eH
	DB	01eH
	DB	06H
	DB	06H
	DB	06H
	DB	06H
	DB	06H
	DB	038H
	DB	03H
	DB	038H
	DB	038H
	DB	013H
	DB	01H
	DB	07H
	DB	07H
	DB	07H
	DB	07H
	DB	07H
	DB	01H
	DB	013H
	DB	03H
	DB	04H
	DB	06H
	DB	05H
	DB	0aH
	DB	09H
	DB	0cH
	DB	0fH
	DB	0fH
	DB	0fH
	DB	0fH
	DB	0fH
	DB	0fH
	DB	0cH
	DB	014H
	DB	014H
	DB	014H
	DB	014H
	DB	014H
	DB	09H
	DB	09H
	DB	014H
	DB	0fH
	DB	0fH
	DB	0fH
	DB	014H
	DB	09H
	DB	09H
	DB	09H
	DB	0aH
	DB	012H
	DB	05H
	DB	08H
	DB	08H
	DB	08H
	DB	06H
	DB	06H
	DB	06H
	DB	06H
	DB	04H
	DB	04H
	DB	04H
	DB	036H
	DB	036H
	DB	03H
	DB	0bH
	DB	0bH
	DB	0bH
	DB	01H
	DB	013H
	DB	02H
	DB	08H
	DB	08H
	DB	08H
	DB	05H
	DB	05H
	DB	05H
	DB	012H
	DB	0aH
	DB	012H
	DB	012H
	DB	012H
	DB	05H
	DB	012H
	DB	012H
	DB	05H
	DB	05H
	DB	05H
	DB	05H
	DB	05H
	DB	08H
	DB	08H
	DB	05H
	DB	08H
	DB	06H
	DB	06H
	DB	01eH
	DB	06H
	DB	06H
	DB	04H
	DB	06H
	DB	02H
	DB	07H
	DB	07H
	DB	08aH
	DB	017H
	DB	0dH
	DB	08dH
	DB	08dH
	DB	08dH
	DB	08dH
	DB	08dH
	DB	078H
	DB	078H
	DB	078H
	DB	078H
	DB	052H
	DB	035H
	DB	0fH
	DB	04H
	DB	03H
	DB	013H
	DB	01H
	DB	01H
	DB	01H
	DB	01H
	DB	0bH
	DB	0bH
	DB	0bH
	DB	03H
	DB	03H
	DB	01eH
	DB	02fH
	DB	09H
	DB	0aH
	DB	0aH
	DB	0aH
	DB	0aH
	DB	0aH
	DB	09H
	DB	0aH
	DB	09H
	DB	014H
	DB	014H
	DB	0cH
	DB	0cH
	DB	014H
	DB	09H
	DB	014H
	DB	0cH
	DB	0fH
	DB	011H
	DB	0aH
	DB	013H
	DB	07H
	DB	07H
	DB	01H
	DB	01H
	DB	013H
	DB	069H
	DB	02H
	DB	02H
	DB	02H
	DB	02H
	DB	02H
	DB	02H
	DB	02H
	DB	04H
	DB	02H
	DB	013H
	DB	03H
	DB	069H
	DB	03H
	DB	02H
	DB	02H
	DB	02H
	DB	04H
	DB	038H
	DB	04H
	DB	02H
	DB	03H
	DB	02H
	DB	038H
	DB	06H
	DB	05H
	DB	012H
	DB	08H
	DB	08H
	DB	04H
	DB	02H
	DB	02H
	DB	02H
	DB	03H
	DB	013H
	DB	013H
	DB	013H
	DB	013H
	DB	013H
	DB	013H
	DB	01H
	DB	01H
	DB	01H
	DB	01H
	DB	01H
	DB	01H
	DB	0bH
	DB	03H
	DB	03H
	DB	03H
	DB	036H
	DB	04H
	DB	04H
	DB	036H
	DB	04H
	DB	04H
	DB	04H
	DB	06H
	DB	06H
	DB	04H
	DB	04H
	DB	06H
	DB	08H
	DB	05H
	DB	05H
	DB	06H
	DB	04H
	DB	04H
	DB	02H
	DB	02H
	DB	02H
	DB	03H
	DB	013H
	DB	01H
	DB	07H
	DB	07H
	DB	01H
	DB	02H
	DB	08H
	DB	05H
	DB	0aH
	DB	014H
	DB	0fH
	DB	015H
	DB	01bH
	DB	016H
	DB	01dH
	DB	016H
	DB	016H
	DB	01bH
	DB	015H
	DB	015H
	DB	011H
	DB	011H
	DB	011H
	DB	011H
	DB	0cH
	DB	014H
	DB	09H
	DB	09H
	DB	09H
	DB	014H
	DB	09H
	DB	09H
	DB	0aH
	DB	012H
	DB	09H
	DB	09H
	DB	014H
	DB	09H
	DB	09H
	DB	026H
	DB	012H
	DB	05H
	DB	01eH
	DB	06H
	DB	04H
	DB	06H
	DB	04H
	DB	04H
	DB	01eH
	DB	01eH
	DB	04H
	DB	04H
	DB	04H
	DB	03H
	DB	02H
	DB	03H
	DB	0bH
	DB	0bH
	DB	013H
	DB	01H
	DB	013H
	DB	02H
	DB	02H
	DB	08H
	DB	05H
	DB	05H
	DB	05H
	DB	012H
	DB	012H
	DB	05H
	DB	02fH
	DB	0aH
	DB	0aH
	DB	0aH
	DB	0aH
	DB	012H
	DB	05H
	DB	05H
	DB	05H
	DB	08H
	DB	08H
	DB	05H
	DB	08H
	DB	08H
	DB	08H
	DB	08H
	DB	06H
	DB	06H
	DB	01eH
	DB	01eH
	DB	06H
	DB	06H
	DB	06H
	DB	03H
	DB	07H
	DB	08aH
	DB	07bH
	DB	0dH
	DB	078H
	DB	078H
	DB	078H
	DB	078H
	DB	078H
	DB	078H
	DB	078H
	DB	078H
	DB	078H
	DB	078H
	DB	035H
	DB	026H
	DB	0bH
	DB	01H
	DB	01H
	DB	01H
	DB	01H
	DB	01H
	DB	0bH
	DB	0bH
	DB	03H
	DB	03H
	DB	04H
	DB	05H
	DB	09H
	DB	09H
	DB	09H
	DB	09H
	DB	09H
	DB	09H
	DB	0aH
	DB	012H
	DB	0aH
	DB	0aH
	DB	012H
	DB	09H
	DB	0fH
	DB	0fH
	DB	0cH
	DB	03dH
	DB	0aH
	DB	09H
	DB	09H
	DB	09H
	DB	08H
	DB	03H
	DB	013H
	DB	013H
	DB	07H
	DB	07H
	DB	07H
	DB	07H
	DB	01H
	DB	01H
	DB	013H
	DB	013H
	DB	013H
	DB	013H
	DB	069H
	DB	03H
	DB	013H
	DB	01H
	DB	01H
	DB	01H
	DB	01H
	DB	01H
	DB	013H
	DB	01H
	DB	013H
	DB	01H
	DB	01H
	DB	01H
	DB	01H
	DB	01H
	DB	07H
	DB	07H
	DB	07H
	DB	01H
	DB	013H
	DB	013H
	DB	03H
	DB	069H
	DB	03H
	DB	013H
	DB	013H
	DB	01H
	DB	01H
	DB	01H
	DB	01H
	DB	01H
	DB	013H
	DB	01H
	DB	013H
	DB	01H
	DB	01H
	DB	0bH
	DB	03H
	DB	0bH
	DB	03H
	DB	03H
	DB	03H
	DB	04H
	DB	04H
	DB	04H
	DB	04H
	DB	04H
	DB	036H
	DB	04H
	DB	04H
	DB	042H
	DB	04H
	DB	036H
	DB	04H
	DB	08H
	DB	05H
	DB	05H
	DB	06H
	DB	04H
	DB	02H
	DB	02H
	DB	06H
	DB	012H
	DB	014H
	DB	011H
	DB	08H
	DB	013H
	DB	06H
	DB	012H
	DB	014H
	DB	011H
	DB	01bH
	DB	016H
	DB	016H
	DB	016H
	DB	016H
	DB	01dH
	DB	0d5H
	DB	0d5H
	DB	015H
	DB	015H
	DB	01bH
	DB	015H
	DB	011H
	DB	0faH
	DB	0fH
	DB	0fH
	DB	0cH
	DB	09H
	DB	09H
	DB	09H
	DB	09H
	DB	09H
	DB	09H
	DB	09H
	DB	0aH
	DB	012H
	DB	012H
	DB	012H
	DB	05H
	DB	012H
	DB	012H
	DB	012H
	DB	05H
	DB	05H
	DB	08H
	DB	06H
	DB	06H
	DB	04H
	DB	04H
	DB	04H
	DB	04H
	DB	04H
	DB	036H
	DB	04H
	DB	04H
	DB	036H
	DB	036H
	DB	03H
	DB	036H
	DB	036H
	DB	03H
	DB	03H
	DB	0bH
	DB	0bH
	DB	013H
	DB	013H
	DB	069H
	DB	04H
	DB	06H
	DB	08H
	DB	012H
	DB	0aH
	DB	09H
	DB	09H
	DB	03dH
	DB	09H
	DB	014H
	DB	09H
	DB	0aH
	DB	012H
	DB	05H
	DB	05H
	DB	01eH
	DB	08H
	DB	08H
	DB	05H
	DB	05H
	DB	08H
	DB	08H
	DB	05H
	DB	01eH
	DB	06H
	DB	06H
	DB	04H
	DB	06H
	DB	06H
	DB	01eH
	DB	04H
	DB	07H
	DB	08aH
	DB	017H
	DB	0dH
	DB	078H
	DB	078H
	DB	078H
	DB	078H
	DB	078H
	DB	078H
	DB	078H
	DB	078H
	DB	078H
	DB	0dH
	DB	03cH
	DB	04H
	DB	013H
	DB	01H
	DB	01H
	DB	07H
	DB	01H
	DB	0bH
	DB	03H
	DB	036H
	DB	04H
	DB	05H
	DB	09H
	DB	09H
	DB	0aH
	DB	0aH
	DB	09H
	DB	09H
	DB	0aH
	DB	012H
	DB	012H
	DB	012H
	DB	0aH
	DB	026H
	DB	012H
	DB	012H
	DB	0aH
	DB	09H
	DB	0aH
	DB	012H
	DB	0aH
	DB	09H
	DB	09H
	DB	08H
	DB	013H
	DB	01H
	DB	01H
	DB	01H
	DB	01H
	DB	07H
	DB	07H
	DB	07H
	DB	07H
	DB	07H
	DB	07H
	DB	01H
	DB	01H
	DB	01H
	DB	013H
	DB	013H
	DB	01H
	DB	01H
	DB	01H
	DB	01H
	DB	07H
	DB	01H
	DB	01H
	DB	01H
	DB	01H
	DB	07H
	DB	07H
	DB	07H
	DB	07H
	DB	07H
	DB	01H
	DB	07H
	DB	07H
	DB	07H
	DB	07H
	DB	07H
	DB	07H
	DB	07H
	DB	07H
	DB	07H
	DB	07H
	DB	07H
	DB	01H
	DB	01H
	DB	01H
	DB	01H
	DB	01H
	DB	01H
	DB	01H
	DB	0bH
	DB	013H
	DB	0bH
	DB	03H
	DB	013H
	DB	03H
	DB	03H
	DB	036H
	DB	036H
	DB	03H
	DB	03H
	DB	036H
	DB	04H
	DB	042H
	DB	01eH
	DB	05H
	DB	01eH
	DB	08H
	DB	012H
	DB	012H
	DB	012H
	DB	09H
	DB	09H
	DB	0fH
	DB	011H
	DB	015H
	DB	016H
	DB	030H
	DB	01fH
	DB	0b0H
	DB	015H
	DB	0cH
	DB	0fH
	DB	01bH
	DB	01bH
	DB	01bH
	DB	01bH
	DB	011H
	DB	011H
	DB	011H
	DB	0fH
	DB	03dH
	DB	0aH
	DB	012H
	DB	08H
	DB	08H
	DB	08H
	DB	012H
	DB	0b2H
	DB	0cH
	DB	014H
	DB	03dH
	DB	09H
	DB	012H
	DB	012H
	DB	012H
	DB	012H
	DB	05H
	DB	012H
	DB	012H
	DB	012H
	DB	026H
	DB	05H
	DB	05H
	DB	08H
	DB	08H
	DB	08H
	DB	06H
	DB	06H
	DB	08H
	DB	06H
	DB	04H
	DB	04H
	DB	04H
	DB	04H
	DB	04H
	DB	04H
	DB	04H
	DB	04H
	DB	036H
	DB	036H
	DB	02H
	DB	036H
	DB	036H
	DB	03H
	DB	03H
	DB	036H
	DB	036H
	DB	03H
	DB	0bH
	DB	013H
	DB	01H
	DB	01H
	DB	01H
	DB	0bH
	DB	06H
	DB	0aH
	DB	09H
	DB	09H
	DB	014H
	DB	09H
	DB	09H
	DB	09H
	DB	014H
	DB	03dH
	DB	09H
	DB	0aH
	DB	05H
	DB	05H
	DB	05H
	DB	05H
	DB	012H
	DB	05H
	DB	05H
	DB	05H
	DB	08H
	DB	08H
	DB	08H
	DB	08H
	DB	01eH
	DB	06H
	DB	04H
	DB	04H
	DB	04H
	DB	04H
	DB	0bH
	DB	077H
	DB	0d8H
	DB	0dH
	DB	078H
	DB	078H
	DB	078H
	DB	078H
	DB	078H
	DB	078H
	DB	078H
	DB	078H
	DB	078H
	DB	0dH
	DB	02bH
	DB	0bH
	DB	01H
	DB	01H
	DB	01H
	DB	07H
	DB	0bH
	DB	036H
	DB	042H
	DB	05H
	DB	034H
	DB	0aH
	DB	09H
	DB	09H
	DB	09H
	DB	09H
	DB	09H
	DB	09H
	DB	09H
	DB	012H
	DB	012H
	DB	012H
	DB	05H
	DB	05H
	DB	012H
	DB	012H
	DB	05H
	DB	05H
	DB	05H
	DB	012H
	DB	09H
	DB	012H
	DB	04H
	DB	013H
	DB	013H
	DB	01H
	DB	0bH
	DB	013H
	DB	01H
	DB	01H
	DB	07H
	DB	07H
	DB	07H
	DB	07H
	DB	07H
	DB	07H
	DB	01H
	DB	01H
	DB	01H
	DB	01H
	DB	01H
	DB	01H
	DB	01H
	DB	01H
	DB	01H
	DB	01H
	DB	01H
	DB	01H
	DB	01H
	DB	01H
	DB	07H
	DB	07H
	DB	07H
	DB	07H
	DB	07H
	DB	01H
	DB	07H
	DB	07H
	DB	07H
	DB	07H
	DB	07H
	DB	07H
	DB	07H
	DB	07H
	DB	07H
	DB	07H
	DB	07H
	DB	07H
	DB	07H
	DB	01H
	DB	01H
	DB	01H
	DB	01H
	DB	0bH
	DB	0bH
	DB	0bH
	DB	02H
	DB	04H
	DB	08H
	DB	01eH
	DB	06H
	DB	06H
	DB	05H
	DB	09H
	DB	0fH
	DB	011H
	DB	041H
	DB	041H
	DB	041H
	DB	01bH
	DB	015H
	DB	011H
	DB	0fH
	DB	0cH
	DB	015H
	DB	016H
	DB	016H
	DB	016H
	DB	01dH
	DB	016H
	DB	0d5H
	DB	015H
	DB	089H
	DB	0faH
	DB	015H
	DB	01dH
	DB	016H
	DB	0d5H
	DB	01bH
	DB	0faH
	DB	0cH
	DB	014H
	DB	0aH
	DB	012H
	DB	05H
	DB	08H
	DB	05H
	DB	05H
	DB	08H
	DB	06H
	DB	04H
	DB	06H
	DB	08H
	DB	012H
	DB	012H
	DB	05H
	DB	05H
	DB	05H
	DB	08H
	DB	05H
	DB	05H
	DB	05H
	DB	08H
	DB	05H
	DB	05H
	DB	05H
	DB	05H
	DB	08H
	DB	08H
	DB	06H
	DB	06H
	DB	04H
	DB	04H
	DB	04H
	DB	04H
	DB	04H
	DB	04H
	DB	04H
	DB	04H
	DB	04H
	DB	036H
	DB	036H
	DB	036H
	DB	02H
	DB	036H
	DB	02H
	DB	036H
	DB	036H
	DB	03H
	DB	03H
	DB	03H
	DB	0bH
	DB	0bH
	DB	01H
	DB	01H
	DB	01H
	DB	01H
	DB	01H
	DB	069H
	DB	01eH
	DB	012H
	DB	0aH
	DB	09H
	DB	09H
	DB	014H
	DB	09H
	DB	03dH
	DB	0cH
	DB	0fH
	DB	0fH
	DB	014H
	DB	0aH
	DB	05H
	DB	012H
	DB	012H
	DB	08H
	DB	08H
	DB	06H
	DB	06H
	DB	08H
	DB	08H
	DB	04H
	DB	04H
	DB	04H
	DB	04H
	DB	04H
	DB	04H
	DB	04H
	DB	0bH
	DB	077H
	DB	018H
	DB	0dH
	DB	078H
	DB	078H
	DB	078H
	DB	078H
	DB	078H
	DB	0dH
	DB	0dH
	DB	0dH
	DB	0dH
	DB	0dH
	DB	032H
	DB	07H
	DB	01H
	DB	01H
	DB	01H
	DB	0bH
	DB	036H
	DB	042H
	DB	0d6H
	DB	05H
	DB	012H
	DB	09H
	DB	09H
	DB	09H
	DB	09H
	DB	09H
	DB	09H
	DB	09H
	DB	0aH
	DB	012H
	DB	026H
	DB	012H
	DB	08H
	DB	08H
	DB	08H
	DB	05H
	DB	012H
	DB	0aH
	DB	0aH
	DB	09H
	DB	026H
	DB	06H
	DB	01H
	DB	01H
	DB	013H
	DB	013H
	DB	01H
	DB	01H
	DB	01H
	DB	01H
	DB	01H
	DB	07H
	DB	07H
	DB	07H
	DB	07H
	DB	07H
	DB	01H
	DB	01H
	DB	01H
	DB	01H
	DB	01H
	DB	01H
	DB	01H
	DB	01H
	DB	01H
	DB	01H
	DB	01H
	DB	01H
	DB	01H
	DB	01H
	DB	07H
	DB	07H
	DB	07H
	DB	07H
	DB	07H
	DB	07H
	DB	07H
	DB	07H
	DB	07H
	DB	07H
	DB	07H
	DB	07H
	DB	07H
	DB	07H
	DB	07H
	DB	07H
	DB	07H
	DB	07H
	DB	07H
	DB	07H
	DB	07H
	DB	07H
	DB	01H
	DB	0bH
	DB	04H
	DB	01eH
	DB	02fH
	DB	014H
	DB	033H
	DB	0fH
	DB	0fH
	DB	041H
	DB	01bH
	DB	016H
	DB	01bH
	DB	015H
	DB	041H
	DB	015H
	DB	015H
	DB	011H
	DB	011H
	DB	0fH
	DB	011H
	DB	0fH
	DB	0cH
	DB	0fH
	DB	0fH
	DB	0cH
	DB	0cH
	DB	014H
	DB	03dH
	DB	09H
	DB	09H
	DB	012H
	DB	09H
	DB	0b2H
	DB	012H
	DB	012H
	DB	05H
	DB	08H
	DB	08H
	DB	06H
	DB	06H
	DB	06H
	DB	08H
	DB	08H
	DB	08H
	DB	08H
	DB	05H
	DB	08H
	DB	06H
	DB	02H
	DB	02H
	DB	02H
	DB	04H
	DB	06H
	DB	08H
	DB	06H
	DB	06H
	DB	08H
	DB	08H
	DB	08H
	DB	08H
	DB	06H
	DB	08H
	DB	06H
	DB	08H
	DB	08H
	DB	04H
	DB	04H
	DB	04H
	DB	04H
	DB	04H
	DB	02H
	DB	02H
	DB	02H
	DB	02H
	DB	02H
	DB	02H
	DB	02H
	DB	02H
	DB	03H
	DB	03H
	DB	02H
	DB	036H
	DB	02H
	DB	036H
	DB	036H
	DB	036H
	DB	02H
	DB	03H
	DB	01H
	DB	0bH
	DB	01H
	DB	01H
	DB	013H
	DB	013H
	DB	03H
	DB	0bH
	DB	03H
	DB	04H
	DB	06H
	DB	08H
	DB	05H
	DB	05H
	DB	012H
	DB	012H
	DB	09H
	DB	014H
	DB	0fH
	DB	0fH
	DB	014H
	DB	0aH
	DB	012H
	DB	05H
	DB	08H
	DB	06H
	DB	06H
	DB	06H
	DB	06H
	DB	06H
	DB	06H
	DB	06H
	DB	04H
	DB	04H
	DB	04H
	DB	04H
	DB	04H
	DB	0bH
	DB	0afH
	DB	01cH
	DB	0dH
	DB	0dH
	DB	0dH
	DB	0dH
	DB	0dH
	DB	0dH
	DB	0dH
	DB	0dH
	DB	0dH
	DB	0dH
	DB	08dH
	DB	0afH
	DB	07H
	DB	01H
	DB	01H
	DB	01H
	DB	036H
	DB	042H
	DB	0d6H
	DB	05H
	DB	026H
	DB	012H
	DB	0aH
	DB	09H
	DB	0aH
	DB	026H
	DB	0aH
	DB	0aH
	DB	0aH
	DB	012H
	DB	05H
	DB	08H
	DB	08H
	DB	08H
	DB	05H
	DB	012H
	DB	012H
	DB	012H
	DB	012H
	DB	012H
	DB	08H
	DB	04H
	DB	03H
	DB	013H
	DB	01H
	DB	01H
	DB	01H
	DB	01H
	DB	01H
	DB	0bH
	DB	0bH
	DB	01H
	DB	07H
	DB	07H
	DB	07H
	DB	07H
	DB	07H
	DB	07H
	DB	01H
	DB	01H
	DB	01H
	DB	01H
	DB	01H
	DB	01H
	DB	07H
	DB	01H
	DB	01H
	DB	01H
	DB	07H
	DB	07H
	DB	07H
	DB	07H
	DB	07H
	DB	07H
	DB	07H
	DB	07H
	DB	07H
	DB	07H
	DB	07H
	DB	07H
	DB	07H
	DB	07H
	DB	07H
	DB	07H
	DB	07H
	DB	07H
	DB	01H
	DB	01H
	DB	01H
	DB	01H
	DB	01H
	DB	07H
	DB	07H
	DB	07H
	DB	0bH
	DB	05H
	DB	02fH
	DB	012H
	DB	012H
	DB	0aH
	DB	0cH
	DB	01bH
	DB	0fH
	DB	0cH
	DB	09H
	DB	05H
	DB	04H
	DB	02H
	DB	03H
	DB	02H
	DB	08H
	DB	09H
	DB	0fH
	DB	0fH
	DB	0cH
	DB	09H
	DB	09H
	DB	09H
	DB	014H
	DB	03dH
	DB	09H
	DB	0aH
	DB	012H
	DB	05H
	DB	06H
	DB	04H
	DB	04H
	DB	02H
	DB	013H
	DB	0bH
	DB	013H
	DB	02H
	DB	02H
	DB	02H
	DB	038H
	DB	038H
	DB	04H
	DB	04H
	DB	04H
	DB	04H
	DB	04H
	DB	02H
	DB	02H
	DB	02H
	DB	069H
	DB	069H
	DB	03H
	DB	04H
	DB	06H
	DB	06H
	DB	06H
	DB	04H
	DB	06H
	DB	038H
	DB	04H
	DB	04H
	DB	04H
	DB	04H
	DB	04H
	DB	02H
	DB	02H
	DB	02H
	DB	03H
	DB	069H
	DB	03H
	DB	013H
	DB	03H
	DB	02H
	DB	03H
	DB	03H
	DB	03H
	DB	03H
	DB	03H
	DB	03H
	DB	03H
	DB	03H
	DB	03H
	DB	03H
	DB	03H
	DB	036H
	DB	02H
	DB	02H
	DB	03H
	DB	0bH
	DB	0bH
	DB	0bH
	DB	03H
	DB	03H
	DB	03H
	DB	03H
	DB	069H
	DB	03H
	DB	02H
	DB	06H
	DB	06H
	DB	04H
	DB	04H
	DB	04H
	DB	04H
	DB	06H
	DB	08H
	DB	08H
	DB	09H
	DB	09H
	DB	09H
	DB	0aH
	DB	012H
	DB	05H
	DB	06H
	DB	06H
	DB	06H
	DB	06H
	DB	06H
	DB	06H
	DB	08H
	DB	06H
	DB	04H
	DB	04H
	DB	04H
	DB	01H
	DB	0afH
	DB	061H
	DB	0dH
	DB	0dH
	DB	0dH
	DB	0dH
	DB	0dH
	DB	0dH
	DB	0dH
	DB	0dH
	DB	0dH
	DB	0dH
	DB	010H
	DB	08cH
	DB	07H
	DB	01H
	DB	01H
	DB	03H
	DB	036H
	DB	05H
	DB	02fH
	DB	02fH
	DB	026H
	DB	012H
	DB	0aH
	DB	0aH
	DB	012H
	DB	05H
	DB	012H
	DB	012H
	DB	05H
	DB	08H
	DB	08H
	DB	05H
	DB	05H
	DB	012H
	DB	012H
	DB	05H
	DB	08H
	DB	06H
	DB	06H
	DB	04H
	DB	02H
	DB	013H
	DB	01H
	DB	01H
	DB	01H
	DB	01H
	DB	01H
	DB	01H
	DB	013H
	DB	0bH
	DB	01H
	DB	01H
	DB	01H
	DB	01H
	DB	07H
	DB	07H
	DB	07H
	DB	01H
	DB	01H
	DB	01H
	DB	01H
	DB	01H
	DB	01H
	DB	01H
	DB	07H
	DB	07H
	DB	01H
	DB	07H
	DB	07H
	DB	07H
	DB	07H
	DB	07H
	DB	07H
	DB	07H
	DB	07H
	DB	07H
	DB	07H
	DB	01H
	DB	0bH
	DB	02H
	DB	02H
	DB	03H
	DB	0bH
	DB	0bH
	DB	0bH
	DB	01H
	DB	01H
	DB	01H
	DB	0bH
	DB	01H
	DB	01H
	DB	01H
	DB	01H
	DB	0bH
	DB	0bH
	DB	01H
	DB	013H
	DB	06H
	DB	05H
	DB	09H
	DB	09H
	DB	09H
	DB	08H
	DB	02H
	DB	013H
	DB	01H
	DB	01H
	DB	01H
	DB	01H
	DB	013H
	DB	013H
	DB	02H
	DB	06H
	DB	05H
	DB	012H
	DB	012H
	DB	08H
	DB	05H
	DB	012H
	DB	012H
	DB	0aH
	DB	012H
	DB	08H
	DB	08H
	DB	04H
	DB	02H
	DB	03H
	DB	03H
	DB	013H
	DB	013H
	DB	013H
	DB	013H
	DB	013H
	DB	013H
	DB	013H
	DB	013H
	DB	013H
	DB	03H
	DB	03H
	DB	03H
	DB	03H
	DB	03H
	DB	03H
	DB	03H
	DB	013H
	DB	013H
	DB	013H
	DB	013H
	DB	03H
	DB	02H
	DB	02H
	DB	02H
	DB	02H
	DB	03H
	DB	03H
	DB	02H
	DB	03H
	DB	03H
	DB	03H
	DB	03H
	DB	013H
	DB	0bH
	DB	013H
	DB	0bH
	DB	013H
	DB	0bH
	DB	03H
	DB	013H
	DB	013H
	DB	013H
	DB	03H
	DB	03H
	DB	03H
	DB	03H
	DB	03H
	DB	03H
	DB	036H
	DB	036H
	DB	02H
	DB	036H
	DB	036H
	DB	02H
	DB	03H
	DB	03H
	DB	03H
	DB	03H
	DB	02H
	DB	03H
	DB	03H
	DB	03H
	DB	03H
	DB	03H
	DB	02H
	DB	04H
	DB	08H
	DB	08H
	DB	08H
	DB	06H
	DB	02H
	DB	013H
	DB	013H
	DB	02H
	DB	02H
	DB	02H
	DB	038H
	DB	05H
	DB	05H
	DB	08H
	DB	08H
	DB	06H
	DB	06H
	DB	01eH
	DB	08H
	DB	06H
	DB	06H
	DB	08H
	DB	01eH
	DB	06H
	DB	04H
	DB	01H
	DB	076H
	DB	07bH
	DB	0dH
	DB	0dH
	DB	0dH
	DB	0dH
	DB	0dH
	DB	0dH
	DB	0dH
	DB	0dH
	DB	0dH
	DB	0dH
	DB	096H
	DB	08H
	DB	07H
	DB	01H
	DB	013H
	DB	01eH
	DB	01eH
	DB	05H
	DB	09H
	DB	0cH
	DB	014H
	DB	09H
	DB	0aH
	DB	0aH
	DB	0aH
	DB	0aH
	DB	012H
	DB	05H
	DB	012H
	DB	012H
	DB	05H
	DB	08H
	DB	05H
	DB	05H
	DB	05H
	DB	05H
	DB	06H
	DB	02H
	DB	02H
	DB	02H
	DB	03H
	DB	013H
	DB	01H
	DB	01H
	DB	01H
	DB	01H
	DB	01H
	DB	01H
	DB	01H
	DB	01H
	DB	01H
	DB	01H
	DB	01H
	DB	01H
	DB	01H
	DB	07H
	DB	07H
	DB	07H
	DB	07H
	DB	01H
	DB	01H
	DB	01H
	DB	01H
	DB	01H
	DB	01H
	DB	07H
	DB	07H
	DB	07H
	DB	07H
	DB	01H
	DB	07H
	DB	07H
	DB	01H
	DB	01H
	DB	01H
	DB	01H
	DB	01H
	DB	01H
	DB	01H
	DB	013H
	DB	013H
	DB	03H
	DB	03H
	DB	03H
	DB	0bH
	DB	03H
	DB	02H
	DB	0bH
	DB	01H
	DB	0bH
	DB	0bH
	DB	0bH
	DB	0bH
	DB	03H
	DB	02H
	DB	02H
	DB	04H
	DB	08H
	DB	012H
	DB	0aH
	DB	08H
	DB	04H
	DB	04H
	DB	02H
	DB	0bH
	DB	01H
	DB	01H
	DB	0bH
	DB	01H
	DB	01H
	DB	07H
	DB	01H
	DB	01H
	DB	0bH
	DB	02H
	DB	038H
	DB	06H
	DB	06H
	DB	08H
	DB	012H
	DB	05H
	DB	08H
	DB	04H
	DB	04H
	DB	02H
	DB	069H
	DB	069H
	DB	03H
	DB	02H
	DB	069H
	DB	013H
	DB	01H
	DB	013H
	DB	013H
	DB	01H
	DB	01H
	DB	01H
	DB	013H
	DB	013H
	DB	013H
	DB	013H
	DB	013H
	DB	01H
	DB	01H
	DB	01H
	DB	01H
	DB	01H
	DB	01H
	DB	01H
	DB	013H
	DB	013H
	DB	0bH
	DB	0bH
	DB	013H
	DB	03H
	DB	013H
	DB	013H
	DB	013H
	DB	013H
	DB	013H
	DB	0bH
	DB	0bH
	DB	01H
	DB	01H
	DB	01H
	DB	01H
	DB	01H
	DB	01H
	DB	01H
	DB	01H
	DB	01H
	DB	0bH
	DB	0bH
	DB	0bH
	DB	03H
	DB	03H
	DB	036H
	DB	036H
	DB	02H
	DB	036H
	DB	036H
	DB	03H
	DB	036H
	DB	02H
	DB	02H
	DB	02H
	DB	04H
	DB	02H
	DB	02H
	DB	02H
	DB	02H
	DB	03H
	DB	02H
	DB	02H
	DB	08H
	DB	08H
	DB	08H
	DB	04H
	DB	02H
	DB	02H
	DB	013H
	DB	01H
	DB	03H
	DB	013H
	DB	01H
	DB	03H
	DB	02H
	DB	08H
	DB	05H
	DB	05H
	DB	05H
	DB	08H
	DB	05H
	DB	05H
	DB	08H
	DB	05H
	DB	05H
	DB	01eH
	DB	06H
	DB	0bH
	DB	02eH
	DB	010H
	DB	0dH
	DB	0dH
	DB	0dH
	DB	0dH
	DB	0dH
	DB	0dH
	DB	0dH
	DB	0dH
	DB	0dH
	DB	0dH
	DB	040H
	DB	0feH
	DB	07H
	DB	03H
	DB	06H
	DB	05H
	DB	05H
	DB	05H
	DB	012H
	DB	0aH
	DB	0cH
	DB	0cH
	DB	014H
	DB	09H
	DB	09H
	DB	09H
	DB	0aH
	DB	0aH
	DB	0aH
	DB	0aH
	DB	012H
	DB	05H
	DB	012H
	DB	012H
	DB	06H
	DB	04H
	DB	02H
	DB	02H
	DB	02H
	DB	013H
	DB	01H
	DB	01H
	DB	01H
	DB	01H
	DB	01H
	DB	01H
	DB	01H
	DB	01H
	DB	01H
	DB	01H
	DB	01H
	DB	0bH
	DB	013H
	DB	01H
	DB	01H
	DB	01H
	DB	07H
	DB	07H
	DB	07H
	DB	07H
	DB	07H
	DB	01H
	DB	01H
	DB	01H
	DB	01H
	DB	07H
	DB	07H
	DB	07H
	DB	07H
	DB	01H
	DB	01H
	DB	01H
	DB	01H
	DB	01H
	DB	0bH
	DB	01H
	DB	03H
	DB	02H
	DB	03H
	DB	01H
	DB	01H
	DB	01H
	DB	0bH
	DB	0bH
	DB	0bH
	DB	0bH
	DB	013H
	DB	02H
	DB	02H
	DB	036H
	DB	03H
	DB	03H
	DB	03H
	DB	04H
	DB	01eH
	DB	05H
	DB	06H
	DB	04H
	DB	04H
	DB	06H
	DB	06H
	DB	02H
	DB	02H
	DB	03H
	DB	03H
	DB	013H
	DB	01H
	DB	0bH
	DB	0bH
	DB	01H
	DB	01H
	DB	01H
	DB	07H
	DB	01H
	DB	01H
	DB	013H
	DB	02H
	DB	04H
	DB	06H
	DB	01eH
	DB	08H
	DB	04H
	DB	02H
	DB	03H
	DB	03H
	DB	03H
	DB	03H
	DB	069H
	DB	03H
	DB	069H
	DB	069H
	DB	013H
	DB	01H
	DB	01H
	DB	01H
	DB	01H
	DB	01H
	DB	01H
	DB	013H
	DB	01H
	DB	013H
	DB	013H
	DB	01H
	DB	01H
	DB	01H
	DB	01H
	DB	01H
	DB	01H
	DB	01H
	DB	01H
	DB	013H
	DB	01H
	DB	01H
	DB	01H
	DB	0bH
	DB	013H
	DB	01H
	DB	013H
	DB	013H
	DB	013H
	DB	0bH
	DB	0bH
	DB	01H
	DB	0bH
	DB	01H
	DB	01H
	DB	01H
	DB	01H
	DB	01H
	DB	01H
	DB	01H
	DB	0bH
	DB	0bH
	DB	0bH
	DB	0bH
	DB	03H
	DB	03H
	DB	03H
	DB	036H
	DB	036H
	DB	036H
	DB	036H
	DB	036H
	DB	04H
	DB	02H
	DB	02H
	DB	04H
	DB	04H
	DB	04H
	DB	04H
	DB	04H
	DB	04H
	DB	04H
	DB	02H
	DB	06H
	DB	08H
	DB	08H
	DB	06H
	DB	04H
	DB	02H
	DB	03H
	DB	013H
	DB	01H
	DB	01H
	DB	013H
	DB	013H
	DB	013H
	DB	03H
	DB	04H
	DB	08H
	DB	05H
	DB	05H
	DB	05H
	DB	05H
	DB	08H
	DB	08H
	DB	05H
	DB	05H
	DB	01eH
	DB	03H
	DB	0d3H
	DB	052H
	DB	0dH
	DB	0dH
	DB	0dH
	DB	0dH
	DB	0dH
	DB	0dH
	DB	0dH
	DB	0dH
	DB	0dH
	DB	0dH
	DB	065H
	DB	07H
	DB	013H
	DB	05H
	DB	012H
	DB	05H
	DB	034H
	DB	026H
	DB	012H
	DB	012H
	DB	012H
	DB	012H
	DB	0aH
	DB	0aH
	DB	0aH
	DB	0aH
	DB	012H
	DB	012H
	DB	012H
	DB	0aH
	DB	0aH
	DB	0aH
	DB	012H
	DB	08H
	DB	04H
	DB	02H
	DB	03H
	DB	03H
	DB	013H
	DB	01H
	DB	01H
	DB	01H
	DB	01H
	DB	01H
	DB	01H
	DB	01H
	DB	01H
	DB	01H
	DB	01H
	DB	01H
	DB	01H
	DB	01H
	DB	0bH
	DB	0bH
	DB	01H
	DB	0bH
	DB	01H
	DB	07H
	DB	07H
	DB	07H
	DB	07H
	DB	01H
	DB	01H
	DB	01H
	DB	01H
	DB	01H
	DB	01H
	DB	07H
	DB	01H
	DB	01H
	DB	01H
	DB	01H
	DB	0bH
	DB	03H
	DB	036H
	DB	04H
	DB	042H
	DB	06H
	DB	06H
	DB	04H
	DB	04H
	DB	02H
	DB	03H
	DB	02H
	DB	03H
	DB	03H
	DB	0bH
	DB	01H
	DB	0bH
	DB	013H
	DB	03H
