; Listing generated by Microsoft (R) Optimizing Compiler Version 16.00.40219.01 

	TITLE	C:\DUII\DUII\Graphics\TrackType.c
	.686P
	.XMM
	include listing.inc
	.model	flat

INCLUDELIB LIBCMT
INCLUDELIB OLDNAMES

PUBLIC	_bmTrackType
CONST	SEGMENT
_ColorsTrackType DD 00H
	DD	00H
	DD	00H
	DD	0fdfdfdH
	DD	011704H
	DD	02705H
	DD	02a2417H
	DD	01a1408H
	DD	04604H
	DD	0283a34H
	DD	0120b02H
	DD	03604H
	DD	0b02H
	DD	090400H
	DD	0a5a5a5H
	DD	010416H
	DD	0575756H
	DD	0171816H
	DD	0484235H
	DD	021190cH
	DD	0979797H
	DD	031423cH
	DD	0272827H
	DD	0393326H
	DD	0d0900H
	DD	010aH
	DD	01a2a25H
	DD	051815H
	DD	05406H
	DD	0231d12H
	DD	0e8e8e8H
	DD	0312a1dH
	DD	04b4b4bH
	DD	0b7b7b7H
	DD	0c7c6c7H
	DD	00H
	DD	022332cH
	DD	0413a2dH
	DD	020125H
	DD	0323232H
	DD	0434343H
	DD	0d8d7d8H
	DD	0fd00H
	DD	0727272H
	DD	0443d31H
	DD	013613H
	DD	03b3b3bH
	DD	02e403aH
	DD	0636363H
	DD	0b0b0bH
	DD	0332d22H
	DD	0b0bH
	DD	08b8b8bH
	DD	06b6b6bH
	DD	0838383H
	DD	0fdfdH
	DD	06800H
	DD	012924H
	DD	07a7a7aH
	DD	01735H
	DD	04d5653H
	DD	012519H
	DD	01142aH
	DD	06b7d77H
	DD	016241aH
	DD	0b0177H
	DD	070156H
	DD	090166H
	DD	0847d6fH
	DD	0c800H
	DD	01d3228H
	DD	01403a5H
	DD	020336H
	DD	0164518H
	DD	08400H
	DD	0d600H
	DD	0a9a9H
	DD	014371aH
	DD	040349H
	DD	015655H
	DD	016868H
	DD	0d0085H
	DD	0b7b7H
	DD	0d7d7H
	DD	010018bH
	DD	0110197H
	DD	01201b8H
	DD	0a600H
	DD	0b700H
	DD	017473H
	DD	09400H
	DD	0e600H
	DD	054613H
	DD	0264528H
	DD	0373546H
	DD	0485549H
	DD	0a0098H
	DD	01300c4H
	DD	0feH
	DD	0c8c8H
	DD	013737H
	DD	0333a35H
	DD	03c3a33H
	DD	017600H
	DD	0171627H
	DD	09595H
	DD	0282734H
	DD	0444945H
	DD	07b827bH
	DD	0b01a9H
	DD	0600b7H
	DD	08787H
	DD	0e8e8H
	DD	0a09ea0H
	DD	039351cH
	DD	0287328H
	DD	05b685bH
	DD	0747a74H
	DD	01dba1dH
	DD	0a00c7H
	DD	027361cH
	DD	062031H
	DD	0365536H
	DD	0464228H
	DD	055534bH
	DD	0605d58H
	DD	0838983H
	DD	025210dH
	DD	03a353bH
	DD	01a4622H
	DD	0524b3dH
	DD	014154bH
	DD	0272656H
	DD	0251974H
	DD	04646H
	DD	0374640H
	DD	0496448H
	DD	060605eH
	DD	0251887H
	DD	014220cH
	DD	0151438H
	DD	0383634H
	DD	0323c3bH
	DD	03145dH
	DD	0312862H
	DD	0626964H
	DD	0847e74H
	DD	09030cH
	DD	011370bH
	DD	0221b22H
	DD	0312f34H
	DD	036333aH
	DD	01c1274H
	DD	02a2179H
	DD	04a464aH
	DD	0464b4bH
	DD	058715aH
	DD	0677468H
	DD	074726dH
	DD	0767679H
	DD	025b524H
	DD	084817cH
	DD	0817b81H
	DD	0888786H
	DD	0c1bec1H
	DD	0e2dde1H
	DD	01c0f10H
	DD	0302dH
	DD	045114H
	DD	014571bH
	DD	041543H
	DD	0110c54H
	DD	0241a5aH
	DD	02f2a43H
	DD	0312b4aH
	DD	0261c60H
	DD	0494744H
	DD	04b4a46H
	DD	0514e4aH
	DD	04c4c54H
	DD	0514e54H
	DD	0585873H
	DD	0625e62H
	DD	05a6761H
	DD	06b6964H
	DD	0666568H
	DD	06a666aH
	DD	0706e6bH
	DD	068687cH
	DD	076797aH
	DD	07a7985H
	DD	0e3H
	DD	0868988H
	DD	0908e8eH
	DD	0918e91H
	DD	09f9fa0H
	DD	0b2aeb2H
	DD	0d0cad0H
	DD	0dfe0e0H
	DD	0f1f1e7H
	DD	0f1ecf1H
	DD	0170f3bH
	DD	0211a32H
	DD	017510eH
	DD	025421fH
	DD	0e6012H
	DD	07016H
	DD	0187717H
	DD	04e28H
	DD	05024H
	DD	0384122H
	DD	02f6034H
	DD	03f613aH
	DD	041643dH
	DD	01d1459H
	DD	043a4bH
	DD	0112e56H
	DD	06345aH
	DD	0302755H
	DD	0160a68H
	DD	01b0d7fH
	DD	052d6aH
	DD	01e206dH
	DD	028206eH
	DD	03b3d63H
	DD	03c5243H
	DD	01605fH
	DD	05b5a60H
	DD	05f7163H
	DD	0646968H
	DD	0706d70H
	DD	0787774H
	DD	0787877H
	DD	07b7778H
	DD	0807fH
	DD	05e8869H
	DD	06d807aH
	DD	091d84H
	DD	01b118bH
	DD	0e129cH
	DD	01e1298H
	DD	02011a0H
	DD	0dcH
	DD	0908fH
	DD	07e8080H
	DD	0dfe0H
	DD	0888887H
	DD	08a858aH
	DD	08f908fH
	DD	08f9090H
	DD	0b5b5acH
	DD	0c8c8beH
	DD	0bfc0c0H
	DD	0d2d2ceH
	DD	0e0e0dbH
	DD	00H
_PalTrackType DD 0100H
	DB	00H
	ORG $+3
	DD	FLAT:_ColorsTrackType
_bmTrackType DW	0b2H
	DW	073H
	DW	0b2H
	DW	08H
	DD	FLAT:_acTrackType
	DD	FLAT:_PalTrackType
	ORG $+4
_acTrackType DB	00H
	DB	00H
	DB	00H
	DB	00H
	DB	00H
	DB	00H
	DB	00H
	DB	00H
	DB	00H
	DB	00H
	DB	00H
	DB	00H
	DB	00H
	DB	00H
	DB	00H
	DB	00H
	DB	00H
	DB	00H
	DB	00H
	DB	00H
	DB	00H
	DB	00H
	DB	00H
	DB	00H
	DB	00H
	DB	00H
	DB	00H
	DB	00H
	DB	00H
	DB	00H
	DB	00H
	DB	00H
	DB	00H
	DB	00H
	DB	00H
	DB	00H
	DB	00H
	DB	00H
	DB	00H
	DB	00H
	DB	00H
	DB	00H
	DB	00H
	DB	00H
	DB	00H
	DB	00H
	DB	00H
	DB	00H
	DB	00H
	DB	00H
	DB	00H
	DB	00H
	DB	00H
	DB	00H
	DB	00H
	DB	00H
	DB	00H
	DB	00H
	DB	00H
	DB	00H
	DB	00H
	DB	00H
	DB	00H
	DB	00H
	DB	00H
	DB	00H
	DB	00H
	DB	00H
	DB	00H
	DB	00H
	DB	00H
	DB	00H
	DB	00H
	DB	00H
	DB	00H
	DB	00H
	DB	00H
	DB	00H
	DB	00H
	DB	00H
	DB	00H
	DB	00H
	DB	00H
	DB	00H
	DB	00H
	DB	00H
	DB	00H
	DB	00H
	DB	00H
	DB	00H
	DB	00H
	DB	00H
	DB	00H
	DB	00H
	DB	00H
	DB	00H
	DB	00H
	DB	00H
	DB	00H
	DB	00H
	DB	00H
	DB	00H
	DB	00H
	DB	00H
	DB	00H
	DB	00H
	DB	00H
	DB	00H
	DB	00H
	DB	00H
	DB	00H
	DB	00H
	DB	00H
	DB	00H
	DB	00H
	DB	00H
	DB	00H
	DB	00H
	DB	00H
	DB	00H
	DB	00H
	DB	00H
	DB	00H
	DB	00H
	DB	00H
	DB	00H
	DB	00H
	DB	00H
	DB	00H
	DB	00H
	DB	00H
	DB	00H
	DB	00H
	DB	00H
	DB	00H
	DB	00H
	DB	00H
	DB	00H
	DB	00H
	DB	00H
	DB	00H
	DB	00H
	DB	00H
	DB	00H
	DB	00H
	DB	00H
	DB	00H
	DB	00H
	DB	00H
	DB	00H
	DB	00H
	DB	00H
	DB	00H
	DB	00H
	DB	00H
	DB	00H
	DB	00H
	DB	00H
	DB	00H
	DB	00H
	DB	00H
	DB	00H
	DB	00H
	DB	00H
	DB	00H
	DB	00H
	DB	00H
	DB	00H
	DB	00H
	DB	00H
	DB	00H
	DB	00H
	DB	00H
	DB	00H
	DB	00H
	DB	00H
	DB	00H
	DB	00H
	DB	00H
	DB	00H
	DB	00H
	DB	00H
	DB	00H
	DB	00H
	DB	00H
	DB	00H
	DB	00H
	DB	00H
	DB	00H
	DB	00H
	DB	00H
	DB	00H
	DB	00H
	DB	00H
	DB	00H
	DB	00H
	DB	00H
	DB	00H
	DB	00H
	DB	00H
	DB	00H
	DB	00H
	DB	00H
	DB	00H
	DB	00H
	DB	00H
	DB	00H
	DB	00H
	DB	00H
	DB	00H
	DB	00H
	DB	00H
	DB	00H
	DB	00H
	DB	00H
	DB	00H
	DB	00H
	DB	00H
	DB	00H
	DB	00H
	DB	00H
	DB	00H
	DB	00H
	DB	00H
	DB	00H
	DB	00H
	DB	00H
	DB	00H
	DB	00H
	DB	00H
	DB	00H
	DB	00H
	DB	00H
	DB	00H
	DB	00H
	DB	00H
	DB	00H
	DB	00H
	DB	00H
	DB	00H
	DB	00H
	DB	00H
	DB	00H
	DB	00H
	DB	00H
	DB	00H
	DB	00H
	DB	00H
	DB	00H
	DB	00H
	DB	00H
	DB	00H
	DB	00H
	DB	00H
	DB	00H
	DB	00H
	DB	00H
	DB	00H
	DB	00H
	DB	00H
	DB	00H
	DB	00H
	DB	00H
	DB	00H
	DB	00H
	DB	00H
	DB	00H
	DB	00H
	DB	00H
	DB	00H
	DB	00H
	DB	00H
	DB	00H
	DB	00H
	DB	00H
	DB	00H
	DB	00H
	DB	00H
	DB	00H
	DB	00H
	DB	00H
	DB	00H
	DB	00H
	DB	00H
	DB	00H
	DB	00H
	DB	031H
	DB	02eH
	DB	035H
	DB	036H
	DB	0e7H
	DB	028H
	DB	031H
	DB	00H
	DB	00H
	DB	00H
	DB	00H
	DB	00H
	DB	00H
	DB	00H
	DB	00H
	DB	00H
	DB	00H
	DB	00H
	DB	00H
	DB	00H
	DB	00H
	DB	00H
	DB	00H
	DB	00H
	DB	00H
	DB	00H
	DB	00H
	DB	00H
	DB	00H
	DB	00H
	DB	00H
	DB	00H
	DB	00H
	DB	00H
	DB	00H
	DB	00H
	DB	00H
	DB	00H
	DB	00H
	DB	00H
	DB	00H
	DB	00H
	DB	00H
	DB	00H
	DB	00H
	DB	00H
	DB	00H
	DB	00H
	DB	00H
	DB	00H
	DB	00H
	DB	00H
	DB	00H
	DB	00H
	DB	00H
	DB	00H
	DB	00H
	DB	00H
	DB	00H
	DB	00H
	DB	00H
	DB	00H
	DB	00H
	DB	00H
	DB	00H
	DB	00H
	DB	00H
	DB	00H
	DB	00H
	DB	00H
	DB	00H
	DB	00H
	DB	00H
	DB	00H
	DB	00H
	DB	00H
	DB	00H
	DB	00H
	DB	00H
	DB	00H
	DB	00H
	DB	00H
	DB	00H
	DB	00H
	DB	00H
	DB	00H
	DB	00H
	DB	00H
	DB	00H
	DB	00H
	DB	00H
	DB	00H
	DB	00H
	DB	00H
	DB	00H
	DB	00H
	DB	00H
	DB	00H
	DB	00H
	DB	00H
	DB	00H
	DB	00H
	DB	00H
	DB	00H
	DB	00H
	DB	00H
	DB	00H
	DB	00H
	DB	00H
	DB	00H
	DB	00H
	DB	00H
	DB	00H
	DB	00H
	DB	00H
	DB	00H
	DB	00H
	DB	00H
	DB	00H
	DB	00H
	DB	00H
	DB	00H
	DB	00H
	DB	00H
	DB	00H
	DB	00H
	DB	00H
	DB	00H
	DB	00H
	DB	00H
	DB	00H
	DB	00H
	DB	00H
	DB	00H
	DB	00H
	DB	00H
	DB	00H
	DB	00H
	DB	00H
	DB	00H
	DB	00H
	DB	00H
	DB	00H
	DB	00H
	DB	00H
	DB	00H
	DB	00H
	DB	00H
	DB	00H
	DB	00H
	DB	00H
	DB	00H
	DB	00H
	DB	00H
	DB	00H
	DB	00H
	DB	00H
	DB	00H
	DB	00H
	DB	00H
	DB	00H
	DB	00H
	DB	00H
	DB	00H
	DB	00H
	DB	00H
	DB	00H
	DB	00H
	DB	00H
	DB	00H
	DB	00H
	DB	00H
	DB	00H
	DB	00H
	DB	00H
	DB	00H
	DB	00H
	DB	09aH
	DB	0c4H
	DB	0c8H
	DB	03H
	DB	03H
	DB	03H
	DB	03H
	DB	022H
	DB	035H
	DB	095H
	DB	00H
	DB	00H
	DB	00H
	DB	00H
	DB	00H
	DB	00H
	DB	00H
	DB	00H
	DB	00H
	DB	00H
	DB	00H
	DB	00H
	DB	00H
	DB	00H
	DB	00H
	DB	00H
	DB	00H
	DB	00H
	DB	00H
	DB	00H
	DB	00H
	DB	00H
	DB	00H
	DB	00H
	DB	00H
	DB	00H
	DB	00H
	DB	00H
	DB	00H
	DB	00H
	DB	00H
	DB	00H
	DB	00H
	DB	00H
	DB	00H
	DB	00H
	DB	00H
	DB	00H
	DB	00H
	DB	00H
	DB	00H
	DB	00H
	DB	00H
	DB	00H
	DB	00H
	DB	00H
	DB	00H
	DB	00H
	DB	00H
	DB	00H
	DB	00H
	DB	00H
	DB	00H
	DB	00H
	DB	00H
	DB	00H
	DB	00H
	DB	00H
	DB	00H
	DB	00H
	DB	00H
	DB	00H
	DB	00H
	DB	00H
	DB	00H
	DB	00H
	DB	00H
	DB	00H
	DB	00H
	DB	00H
	DB	00H
	DB	00H
	DB	00H
	DB	00H
	DB	00H
	DB	00H
	DB	00H
	DB	00H
	DB	0dH
	DB	031H
	DB	095H
	DB	027H
	DB	02eH
	DB	06bH
	DB	020H
	DB	020H
	DB	09aH
	DB	06bH
	DB	028H
	DB	027H
	DB	016H
	DB	011H
	DB	031H
	DB	0dH
	DB	00H
	DB	00H
	DB	00H
	DB	00H
	DB	00H
	DB	00H
	DB	00H
	DB	00H
	DB	00H
	DB	00H
	DB	00H
	DB	00H
	DB	00H
	DB	00H
	DB	00H
	DB	00H
	DB	00H
	DB	00H
	DB	00H
	DB	00H
	DB	00H
	DB	00H
	DB	00H
	DB	00H
	DB	00H
	DB	00H
	DB	00H
	DB	00H
	DB	00H
	DB	00H
	DB	00H
	DB	00H
	DB	00H
	DB	00H
	DB	00H
	DB	00H
	DB	00H
	DB	00H
	DB	00H
	DB	00H
	DB	00H
	DB	00H
	DB	00H
	DB	00H
	DB	00H
	DB	00H
	DB	00H
	DB	00H
	DB	00H
	DB	00H
	DB	00H
	DB	00H
	DB	00H
	DB	00H
	DB	00H
	DB	00H
	DB	00H
	DB	00H
	DB	00H
	DB	00H
	DB	00H
	DB	00H
	DB	00H
	DB	00H
	DB	00H
	DB	00H
	DB	00H
	DB	00H
	DB	00H
	DB	00H
	DB	00H
	DB	00H
	DB	031H
	DB	036H
	DB	0c8H
	DB	03H
	DB	03H
	DB	03H
	DB	03H
	DB	03H
	DB	03H
	DB	03H
	DB	03H
	DB	0feH
	DB	0a3H
	DB	027H
	DB	0dH
	DB	00H
	DB	00H
	DB	00H
	DB	00H
	DB	00H
	DB	00H
	DB	00H
	DB	00H
	DB	00H
	DB	00H
	DB	00H
	DB	00H
	DB	00H
	DB	00H
	DB	00H
	DB	00H
	DB	00H
	DB	00H
	DB	00H
	DB	00H
	DB	00H
	DB	00H
	DB	00H
	DB	00H
	DB	00H
	DB	00H
	DB	00H
	DB	00H
	DB	00H
	DB	00H
	DB	00H
	DB	00H
	DB	00H
	DB	00H
	DB	00H
	DB	00H
	DB	00H
	DB	00H
	DB	00H
	DB	00H
	DB	00H
	DB	00H
	DB	00H
	DB	00H
	DB	00H
	DB	00H
	DB	00H
	DB	00H
	DB	00H
	DB	00H
	DB	00H
	DB	00H
	DB	00H
	DB	00H
	DB	00H
	DB	00H
	DB	00H
	DB	00H
	DB	00H
	DB	00H
	DB	00H
	DB	00H
	DB	00H
	DB	00H
	DB	00H
	DB	00H
	DB	00H
	DB	00H
	DB	00H
	DB	00H
	DB	00H
	DB	031H
	DB	027H
	DB	089H
	DB	0c1H
	DB	0c4H
	DB	022H
	DB	029H
	DB	01eH
	DB	0c8H
	DB	0c8H
	DB	03H
	DB	03H
	DB	03H
	DB	0c8H
	DB	0c8H
	DB	01eH
	DB	029H
	DB	0c5H
	DB	0fcH
	DB	0c4H
	DB	0f8H
	DB	035H
	DB	06bH
	DB	016H
	DB	031H
	DB	00H
	DB	00H
	DB	00H
	DB	00H
	DB	00H
	DB	00H
	DB	00H
	DB	00H
	DB	00H
	DB	00H
	DB	00H
	DB	00H
	DB	00H
	DB	00H
	DB	00H
	DB	00H
	DB	00H
	DB	00H
	DB	00H
	DB	00H
	DB	00H
	DB	00H
	DB	00H
	DB	00H
	DB	00H
	DB	00H
	DB	00H
	DB	00H
	DB	00H
	DB	00H
	DB	00H
	DB	00H
	DB	00H
	DB	00H
	DB	00H
	DB	00H
	DB	00H
	DB	00H
	DB	00H
	DB	00H
	DB	00H
	DB	00H
	DB	00H
	DB	00H
	DB	00H
	DB	00H
	DB	00H
	DB	00H
	DB	00H
	DB	00H
	DB	00H
	DB	00H
	DB	00H
	DB	00H
	DB	00H
	DB	00H
	DB	00H
	DB	00H
	DB	00H
	DB	00H
	DB	00H
	DB	00H
	DB	00H
	DB	00H
	DB	00H
	DB	00H
	DB	031H
	DB	0c3H
	DB	03H
	DB	03H
	DB	03H
	DB	03H
	DB	03H
	DB	01eH
	DB	03H
	DB	03H
	DB	03H
	DB	03H
	DB	03H
	DB	03H
	DB	01eH
	DB	0eH
	DB	011H
	DB	00H
	DB	00H
	DB	00H
	DB	00H
	DB	00H
	DB	00H
	DB	00H
	DB	00H
	DB	00H
	DB	00H
	DB	00H
	DB	00H
	DB	00H
	DB	00H
	DB	00H
	DB	00H
	DB	00H
	DB	00H
	DB	00H
	DB	00H
	DB	00H
	DB	00H
	DB	00H
	DB	00H
	DB	00H
	DB	00H
	DB	00H
	DB	00H
	DB	00H
	DB	00H
	DB	00H
	DB	00H
	DB	00H
	DB	00H
	DB	00H
	DB	00H
	DB	00H
	DB	00H
	DB	00H
	DB	00H
	DB	00H
	DB	00H
	DB	00H
	DB	00H
	DB	00H
	DB	00H
	DB	00H
	DB	00H
	DB	00H
	DB	00H
	DB	00H
	DB	00H
	DB	00H
	DB	00H
	DB	00H
	DB	00H
	DB	00H
	DB	00H
	DB	00H
	DB	00H
	DB	00H
	DB	00H
	DB	00H
	DB	00H
	DB	00H
	DB	00H
	DB	00H
	DB	00H
	DB	095H
	DB	0e6H
	DB	021H
	DB	01eH
	DB	03H
	DB	03H
	DB	03H
	DB	03H
	DB	03H
	DB	03H
	DB	03H
	DB	03H
	DB	03H
	DB	03H
	DB	03H
	DB	03H
	DB	03H
	DB	03H
	DB	03H
	DB	03H
	DB	03H
	DB	03H
	DB	03H
	DB	03H
	DB	03H
	DB	0c6H
	DB	0fcH
	DB	014H
	DB	089H
	DB	016H
	DB	093H
	DB	00H
	DB	00H
	DB	00H
	DB	00H
	DB	00H
	DB	00H
	DB	00H
	DB	00H
	DB	00H
	DB	00H
	DB	00H
	DB	00H
	DB	00H
	DB	00H
	DB	00H
	DB	00H
	DB	00H
	DB	00H
	DB	00H
	DB	00H
	DB	00H
	DB	00H
	DB	00H
	DB	00H
	DB	00H
	DB	00H
	DB	00H
	DB	00H
	DB	00H
	DB	00H
	DB	00H
	DB	00H
	DB	00H
	DB	00H
	DB	00H
	DB	00H
	DB	00H
	DB	00H
	DB	00H
	DB	00H
	DB	00H
	DB	00H
	DB	00H
	DB	00H
	DB	00H
	DB	00H
	DB	00H
	DB	00H
	DB	00H
	DB	00H
	DB	00H
	DB	00H
	DB	00H
	DB	00H
	DB	00H
	DB	00H
	DB	00H
	DB	00H
	DB	00H
	DB	00H
	DB	00H
	DB	031H
	DB	0c3H
	DB	03H
	DB	03H
	DB	03H
	DB	03H
	DB	0fcH
	DB	0e6H
	DB	030H
	DB	030H
	DB	0eH
	DB	0c8H
	DB	03H
	DB	03H
	DB	03H
	DB	03H
	DB	0fbH
	DB	051H
	DB	06eH
	DB	042H
	DB	0fH
	DB	00H
	DB	00H
	DB	00H
	DB	00H
	DB	00H
	DB	00H
	DB	00H
	DB	00H
	DB	00H
	DB	00H
	DB	00H
	DB	00H
	DB	00H
	DB	00H
	DB	00H
	DB	00H
	DB	00H
	DB	00H
	DB	00H
	DB	00H
	DB	00H
	DB	00H
	DB	00H
	DB	00H
	DB	00H
	DB	00H
	DB	00H
	DB	00H
	DB	00H
	DB	00H
	DB	00H
	DB	00H
	DB	00H
	DB	00H
	DB	00H
	DB	00H
	DB	00H
	DB	00H
	DB	00H
	DB	00H
	DB	00H
	DB	00H
	DB	00H
	DB	00H
	DB	00H
	DB	00H
	DB	00H
	DB	00H
	DB	00H
	DB	00H
	DB	00H
	DB	00H
	DB	00H
	DB	00H
	DB	00H
	DB	00H
	DB	00H
	DB	00H
	DB	00H
	DB	00H
	DB	00H
	DB	00H
	DB	00H
	DB	00H
	DB	010H
	DB	029H
	DB	03H
	DB	03H
	DB	03H
	DB	03H
	DB	03H
	DB	03H
	DB	03H
	DB	03H
	DB	03H
	DB	03H
	DB	03H
	DB	03H
	DB	03H
	DB	03H
	DB	03H
	DB	03H
	DB	03H
	DB	03H
	DB	03H
	DB	03H
	DB	03H
	DB	03H
	DB	03H
	DB	03H
	DB	03H
	DB	03H
	DB	03H
	DB	03H
	DB	01eH
	DB	021H
	DB	0e8H
	DB	027H
	DB	011H
	DB	065H
	DB	03cH
	DB	03cH
	DB	03cH
	DB	03cH
	DB	03cH
	DB	03cH
	DB	03cH
	DB	03cH
	DB	03cH
	DB	03cH
	DB	03cH
	DB	03cH
	DB	03cH
	DB	03cH
	DB	03cH
	DB	03cH
	DB	03cH
	DB	03cH
	DB	03cH
	DB	03cH
	DB	03cH
	DB	03cH
	DB	03cH
	DB	03cH
	DB	03cH
	DB	03cH
	DB	03cH
	DB	03cH
	DB	03cH
	DB	03cH
	DB	03cH
	DB	03cH
	DB	03cH
	DB	03cH
	DB	03cH
	DB	03cH
	DB	03cH
	DB	03cH
	DB	03cH
	DB	03cH
	DB	03cH
	DB	03cH
	DB	03cH
	DB	03cH
	DB	088H
	DB	073H
	DB	073H
	DB	073H
	DB	073H
	DB	073H
	DB	073H
	DB	073H
	DB	0d5H
	DB	07cH
	DB	088H
	DB	0d4H
	DB	095H
	DB	014H
	DB	03H
	DB	03H
	DB	03H
	DB	03H
	DB	036H
	DB	0b2H
	DB	02bH
	DB	014H
	DB	0e6H
	DB	0b2H
	DB	0b4H
	DB	0c3H
	DB	0c6H
	DB	03H
	DB	0c7H
	DB	084H
	DB	0bfH
	DB	062H
	DB	062H
	DB	08fH
	DB	01cH
	DB	04H
	DB	016H
	DB	0b2H
	DB	07dH
	DB	010H
	DB	010H
	DB	010H
	DB	010H
	DB	010H
	DB	010H
	DB	010H
	DB	010H
	DB	010H
	DB	010H
	DB	010H
	DB	010H
	DB	010H
	DB	010H
	DB	010H
	DB	010H
	DB	010H
	DB	010H
	DB	010H
	DB	010H
	DB	010H
	DB	010H
	DB	010H
	DB	010H
	DB	010H
	DB	010H
	DB	010H
	DB	010H
	DB	010H
	DB	010H
	DB	010H
	DB	010H
	DB	010H
	DB	010H
	DB	010H
	DB	010H
	DB	010H
	DB	010H
	DB	010H
	DB	010H
	DB	07cH
	DB	08dH
	DB	031H
	DB	00H
	DB	00H
	DB	00H
	DB	00H
	DB	00H
	DB	00H
	DB	00H
	DB	00H
	DB	00H
	DB	00H
	DB	00H
	DB	00H
	DB	00H
	DB	00H
	DB	00H
	DB	0b2H
	DB	01eH
	DB	03H
	DB	03H
	DB	03H
	DB	03H
	DB	03H
	DB	03H
	DB	01eH
	DB	0fdH
	DB	0fcH
	DB	0c4H
	DB	0eH
	DB	0c3H
	DB	014H
	DB	014H
	DB	014H
	DB	0c3H
	DB	0c3H
	DB	0c4H
	DB	021H
	DB	022H
	DB	029H
	DB	0c8H
	DB	03H
	DB	03H
	DB	03H
	DB	03H
	DB	03H
	DB	03H
	DB	03H
	DB	03H
	DB	03H
	DB	03H
	DB	0c8H
	DB	0c4H
	DB	0e3H
	DB	09bH
	DB	0b7H
	DB	03fH
	DB	0ecH
	DB	03fH
	DB	03fH
	DB	03fH
	DB	03fH
	DB	03fH
	DB	03fH
	DB	03fH
	DB	03fH
	DB	03fH
	DB	03fH
	DB	03fH
	DB	03fH
	DB	03fH
	DB	03fH
	DB	03fH
	DB	03fH
	DB	03fH
	DB	03fH
	DB	03fH
	DB	03fH
	DB	03fH
	DB	03fH
	DB	03fH
	DB	03fH
	DB	03fH
	DB	03fH
	DB	03fH
	DB	03fH
	DB	03fH
	DB	03fH
	DB	03fH
	DB	03fH
	DB	03fH
	DB	03fH
	DB	03fH
	DB	03fH
	DB	03fH
	DB	03fH
	DB	03fH
	DB	0ecH
	DB	0ebH
	DB	076H
	DB	076H
	DB	076H
	DB	076H
	DB	076H
	DB	076H
	DB	076H
	DB	076H
	DB	0a0H
	DB	0a0H
	DB	0cfH
	DB	0f8H
	DB	03H
	DB	03H
	DB	03H
	DB	0c8H
	DB	089H
	DB	020H
	DB	0c3H
	DB	0eH
	DB	03aH
	DB	07cH
	DB	066H
	DB	032H
	DB	095H
	DB	02eH
	DB	034H
	DB	0bcH
	DB	06eH
	DB	062H
	DB	062H
	DB	0f2H
	DB	0ceH
	DB	02aH
	DB	04bH
	DB	038H
	DB	027H
	DB	07dH
	DB	09eH
	DB	044H
	DB	044H
	DB	044H
	DB	044H
	DB	044H
	DB	044H
	DB	044H
	DB	044H
	DB	044H
	DB	044H
	DB	044H
	DB	044H
	DB	044H
	DB	044H
	DB	044H
	DB	044H
	DB	044H
	DB	044H
	DB	044H
	DB	044H
	DB	044H
	DB	044H
	DB	044H
	DB	044H
	DB	044H
	DB	044H
	DB	044H
	DB	044H
	DB	044H
	DB	044H
	DB	044H
	DB	044H
	DB	044H
	DB	044H
	DB	044H
	DB	044H
	DB	044H
	DB	044H
	DB	044H
	DB	044H
	DB	0a1H
	DB	07dH
	DB	031H
	DB	00H
	DB	00H
	DB	00H
	DB	00H
	DB	00H
	DB	00H
	DB	00H
	DB	00H
	DB	00H
	DB	00H
	DB	00H
	DB	00H
	DB	031H
	DB	095H
	DB	0c5H
	DB	03H
	DB	03H
	DB	03H
	DB	03H
	DB	0fcH
	DB	0f4H
	DB	0e6H
	DB	010H
	DB	020H
	DB	028H
	DB	02eH
	DB	08dH
	DB	08dH
	DB	08dH
	DB	027H
	DB	027H
	DB	027H
	DB	08dH
	DB	08dH
	DB	02eH
	DB	028H
	DB	0b2H
	DB	030H
	DB	010H
	DB	0baH
	DB	014H
	DB	022H
	DB	01eH
	DB	03H
	DB	03H
	DB	03H
	DB	03H
	DB	03H
	DB	03H
	DB	03H
	DB	03H
	DB	0fcH
	DB	0e3H
	DB	01aH
	DB	046H
	DB	015H
	DB	087H
	DB	015H
	DB	015H
	DB	015H
	DB	015H
	DB	015H
	DB	015H
	DB	015H
	DB	015H
	DB	015H
	DB	015H
	DB	015H
	DB	015H
	DB	015H
	DB	015H
	DB	015H
	DB	015H
	DB	015H
	DB	015H
	DB	015H
	DB	015H
	DB	015H
	DB	015H
	DB	015H
	DB	015H
	DB	015H
	DB	015H
	DB	015H
	DB	015H
	DB	015H
	DB	015H
	DB	015H
	DB	015H
	DB	015H
	DB	015H
	DB	015H
	DB	015H
	DB	015H
	DB	015H
	DB	02fH
	DB	038H
	DB	038H
	DB	038H
	DB	038H
	DB	038H
	DB	038H
	DB	038H
	DB	038H
	DB	067H
	DB	08H
	DB	0e7H
	DB	03H
	DB	03H
	DB	03H
	DB	0c8H
	DB	010H
	DB	020H
	DB	0eH
	DB	0c3H
	DB	07dH
	DB	095H
	DB	068H
	DB	095H
	DB	06H
	DB	06H
	DB	01dH
	DB	01dH
	DB	0fH
	DB	043H
	DB	077H
	DB	062H
	DB	08fH
	DB	04bH
	DB	02aH
	DB	02aH
	DB	04aH
	DB	0a2H
	DB	036H
	DB	027H
	DB	06H
	DB	025H
	DB	012H
	DB	012H
	DB	012H
	DB	012H
	DB	012H
	DB	012H
	DB	012H
	DB	012H
	DB	012H
	DB	012H
	DB	012H
	DB	012H
	DB	012H
	DB	012H
	DB	012H
	DB	012H
	DB	012H
	DB	012H
	DB	012H
	DB	012H
	DB	012H
	DB	012H
	DB	012H
	DB	012H
	DB	012H
	DB	012H
	DB	012H
	DB	012H
	DB	012H
	DB	012H
	DB	012H
	DB	012H
	DB	012H
	DB	012H
	DB	012H
	DB	012H
	DB	012H
	DB	012H
	DB	082H
	DB	07cH
	DB	01fH
	DB	00H
	DB	00H
	DB	00H
	DB	00H
	DB	00H
	DB	00H
	DB	00H
	DB	00H
	DB	00H
	DB	00H
	DB	00H
	DB	011H
	DB	016H
	DB	0e6H
	DB	03H
	DB	03H
	DB	03H
	DB	0feH
	DB	0e3H
	DB	089H
	DB	035H
	DB	0a3H
	DB	0f9H
	DB	014H
	DB	014H
	DB	0f9H
	DB	0f9H
	DB	014H
	DB	014H
	DB	014H
	DB	014H
	DB	0c3H
	DB	0c3H
	DB	0c3H
	DB	0eH
	DB	0eH
	DB	071H
	DB	014H
	DB	02bH
	DB	030H
	DB	0b9H
	DB	08dH
	DB	02eH
	DB	030H
	DB	0c1H
	DB	0fcH
	DB	0c8H
	DB	03H
	DB	03H
	DB	03H
	DB	03H
	DB	03H
	DB	03H
	DB	022H
	DB	0b9H
	DB	01aH
	DB	024H
	DB	087H
	DB	015H
	DB	015H
	DB	015H
	DB	015H
	DB	015H
	DB	015H
	DB	015H
	DB	015H
	DB	015H
	DB	015H
	DB	015H
	DB	015H
	DB	015H
	DB	015H
	DB	015H
	DB	015H
	DB	015H
	DB	015H
	DB	015H
	DB	015H
	DB	015H
	DB	015H
	DB	015H
	DB	015H
	DB	015H
	DB	015H
	DB	015H
	DB	015H
	DB	015H
	DB	015H
	DB	015H
	DB	015H
	DB	015H
	DB	015H
	DB	015H
	DB	015H
	DB	015H
	DB	015H
	DB	0cdH
	DB	038H
	DB	038H
	DB	038H
	DB	038H
	DB	038H
	DB	038H
	DB	067H
	DB	01cH
	DB	0b4H
	DB	0c8H
	DB	03H
	DB	03H
	DB	0c8H
	DB	030H
	DB	020H
	DB	0eH
	DB	014H
	DB	05fH
	DB	08bH
	DB	0caH
	DB	06aH
	DB	017H
	DB	017H
	DB	032H
	DB	01fH
	DB	06H
	DB	06H
	DB	013H
	DB	068H
	DB	042H
	DB	01cH
	DB	02aH
	DB	02aH
	DB	045H
	DB	0e1H
	DB	03H
	DB	03H
	DB	0c6H
	DB	036H
	DB	027H
	DB	01fH
	DB	012H
	DB	012H
	DB	012H
	DB	012H
	DB	012H
	DB	012H
	DB	012H
	DB	012H
	DB	012H
	DB	012H
	DB	012H
	DB	012H
	DB	012H
	DB	012H
	DB	012H
	DB	012H
	DB	012H
	DB	012H
	DB	012H
	DB	012H
	DB	012H
	DB	012H
	DB	012H
	DB	012H
	DB	012H
	DB	012H
	DB	012H
	DB	012H
	DB	012H
	DB	012H
	DB	012H
	DB	012H
	DB	012H
	DB	012H
	DB	012H
	DB	012H
	DB	012H
	DB	012H
	DB	012H
	DB	01fH
	DB	00H
	DB	00H
	DB	00H
	DB	00H
	DB	00H
	DB	00H
	DB	00H
	DB	00H
	DB	00H
	DB	00H
	DB	00H
	DB	020H
	DB	0b4H
	DB	0c4H
	DB	03H
	DB	03H
	DB	03H
	DB	030H
	DB	020H
	DB	02bH
	DB	089H
	DB	0b1H
	DB	02eH
	DB	08dH
	DB	027H
	DB	046H
	DB	046H
	DB	046H
	DB	046H
	DB	046H
	DB	024H
	DB	05dH
	DB	02fH
	DB	0e1H
	DB	03cH
	DB	091H
	DB	075H
	DB	07eH
	DB	014H
	DB	0eH
	DB	0eH
	DB	071H
	DB	014H
	DB	034H
	DB	010H
	DB	020H
	DB	028H
	DB	0f4H
	DB	022H
	DB	03H
	DB	03H
	DB	03H
	DB	03H
	DB	03H
	DB	03H
	DB	0a4H
	DB	06bH
	DB	040H
	DB	02fH
	DB	087H
	DB	015H
	DB	015H
	DB	015H
	DB	015H
	DB	015H
	DB	015H
	DB	015H
	DB	015H
	DB	015H
	DB	015H
	DB	015H
	DB	015H
	DB	015H
	DB	015H
	DB	015H
	DB	015H
	DB	015H
	DB	015H
	DB	015H
	DB	015H
	DB	015H
	DB	015H
	DB	015H
	DB	015H
	DB	015H
	DB	015H
	DB	015H
	DB	015H
	DB	015H
	DB	015H
	DB	015H
	DB	015H
	DB	015H
	DB	015H
	DB	015H
	DB	015H
	DB	0cdH
	DB	038H
	DB	038H
	DB	038H
	DB	038H
	DB	038H
	DB	038H
	DB	01cH
	DB	05dH
	DB	0a5H
	DB	03H
	DB	03H
	DB	03H
	DB	0e7H
	DB	0b2H
	DB	0eH
	DB	014H
	DB	0b2H
	DB	01dH
	DB	01fH
	DB	017H
	DB	025H
	DB	07bH
	DB	02cH
	DB	025H
	DB	017H
	DB	017H
	DB	01fH
	DB	06H
	DB	06H
	DB	01dH
	DB	08bH
	DB	01cH
	DB	057H
	DB	0cdH
	DB	0c5H
	DB	03H
	DB	03H
	DB	03H
	DB	03H
	DB	0c6H
	DB	0f4H
	DB	032H
	DB	017H
	DB	012H
	DB	012H
	DB	012H
	DB	012H
	DB	012H
	DB	012H
	DB	012H
	DB	012H
	DB	012H
	DB	012H
	DB	012H
	DB	012H
	DB	012H
	DB	012H
	DB	012H
	DB	012H
	DB	012H
	DB	012H
	DB	012H
	DB	012H
	DB	012H
	DB	012H
	DB	012H
	DB	012H
	DB	012H
	DB	012H
	DB	012H
	DB	012H
	DB	012H
	DB	012H
	DB	012H
	DB	012H
	DB	012H
	DB	012H
	DB	012H
	DB	012H
	DB	012H
	DB	01fH
	DB	00H
	DB	00H
	DB	00H
	DB	00H
	DB	00H
	DB	00H
	DB	00H
	DB	00H
	DB	00H
	DB	00H
	DB	0dH
	DB	0e8H
	DB	010H
	DB	022H
	DB	03H
	DB	03H
	DB	029H
	DB	095H
	DB	06H
	DB	01dH
	DB	01dH
	DB	01dH
	DB	01dH
	DB	01dH
	DB	01dH
	DB	08bH
	DB	0bH
	DB	0bH
	DB	05H
	DB	05H
	DB	05H
	DB	05H
	DB	05H
	DB	05H
	DB	05H
	DB	05H
	DB	03dH
	DB	04dH
	DB	05dH
	DB	0e1H
	DB	0b7H
	DB	06cH
	DB	014H
	DB	071H
	DB	0eH
	DB	0eH
	DB	0a3H
	DB	0baH
	DB	02eH
	DB	0b9H
	DB	0eH
	DB	03H
	DB	03H
	DB	03H
	DB	03H
	DB	03H
	DB	0c8H
	DB	0a3H
	DB	01aH
	DB	01aH
	DB	015H
	DB	015H
	DB	015H
	DB	015H
	DB	015H
	DB	015H
	DB	015H
	DB	015H
	DB	015H
	DB	015H
	DB	015H
	DB	015H
	DB	015H
	DB	015H
	DB	015H
	DB	015H
	DB	015H
	DB	015H
	DB	015H
	DB	015H
	DB	015H
	DB	015H
	DB	015H
	DB	015H
	DB	015H
	DB	015H
	DB	015H
	DB	015H
	DB	015H
	DB	015H
	DB	015H
	DB	015H
	DB	015H
	DB	015H
	DB	015H
	DB	087H
	DB	0a9H
	DB	038H
	DB	038H
	DB	038H
	DB	038H
	DB	038H
	DB	038H
	DB	049H
	DB	0c5H
	DB	03H
	DB	03H
	DB	03H
	DB	0f9H
	DB	0b4H
	DB	0c3H
	DB	071H
	DB	010H
	DB	06H
	DB	032H
	DB	017H
	DB	07bH
	DB	02cH
	DB	099H
	DB	099H
	DB	012H
	DB	02cH
	DB	025H
	DB	025H
	DB	017H
	DB	032H
	DB	06H
	DB	095H
	DB	011H
	DB	031H
	DB	016H
	DB	0c3H
	DB	01eH
	DB	03H
	DB	03H
	DB	03H
	DB	03H
	DB	03H
	DB	0fcH
	DB	028H
	DB	01fH
	DB	012H
	DB	012H
	DB	012H
	DB	012H
	DB	012H
	DB	012H
	DB	012H
	DB	012H
	DB	012H
	DB	012H
	DB	012H
	DB	012H
	DB	012H
	DB	012H
	DB	012H
	DB	012H
	DB	012H
	DB	012H
	DB	012H
	DB	012H
	DB	012H
	DB	012H
	DB	012H
	DB	012H
	DB	012H
	DB	012H
	DB	02eH
	DB	012H
	DB	012H
	DB	012H
	DB	012H
	DB	012H
	DB	012H
	DB	012H
	DB	012H
	DB	012H
	DB	06H
	DB	00H
	DB	00H
	DB	00H
	DB	00H
	DB	00H
	DB	00H
	DB	00H
	DB	00H
	DB	00H
	DB	00H
	DB	095H
	DB	0f9H
	DB	010H
	DB	022H
	DB	03H
	DB	03H
	DB	029H
	DB	095H
	DB	013H
	DB	01fH
	DB	032H
	DB	032H
	DB	032H
	DB	017H
	DB	017H
	DB	078H
	DB	05cH
	DB	05cH
	DB	05cH
	DB	05cH
	DB	05cH
	DB	05cH
	DB	0bH
	DB	05H
	DB	05H
	DB	05H
	DB	05H
	DB	05H
	DB	04H
	DB	04H
	DB	05H
	DB	02dH
	DB	024H
	DB	05fH
	DB	02bH
	DB	0f9H
	DB	0eH
	DB	0eH
	DB	0c3H
	DB	0f4H
	DB	010H
	DB	0b2H
	DB	0c3H
	DB	0c8H
	DB	03H
	DB	03H
	DB	03H
	DB	03H
	DB	0c5H
	DB	09aH
	DB	040H
	DB	09H
	DB	015H
	DB	015H
	DB	015H
	DB	015H
	DB	015H
	DB	015H
	DB	015H
	DB	015H
	DB	015H
	DB	015H
	DB	015H
	DB	015H
	DB	015H
	DB	015H
	DB	015H
	DB	015H
	DB	015H
	DB	015H
	DB	015H
	DB	015H
	DB	015H
	DB	015H
	DB	015H
	DB	015H
	DB	015H
	DB	015H
	DB	015H
	DB	015H
	DB	015H
	DB	015H
	DB	015H
	DB	015H
	DB	015H
	DB	08eH
	DB	0a9H
	DB	038H
	DB	038H
	DB	038H
	DB	038H
	DB	038H
	DB	0bH
	DB	0eH
	DB	03H
	DB	03H
	DB	03H
	DB	0c4H
	DB	010H
	DB	0c3H
	DB	071H
	DB	089H
	DB	06H
	DB	01fH
	DB	017H
	DB	025H
	DB	090H
	DB	0f1H
	DB	0f1H
	DB	05eH
	DB	07bH
	DB	012H
	DB	012H
	DB	02cH
	DB	025H
	DB	025H
	DB	017H
	DB	032H
	DB	06H
	DB	06H
	DB	01dH
	DB	011H
	DB	02eH
	DB	0f9H
	DB	01eH
	DB	03H
	DB	03H
	DB	03H
	DB	03H
	DB	0c6H
	DB	02eH
	DB	032H
	DB	012H
	DB	012H
	DB	012H
	DB	012H
	DB	012H
	DB	012H
	DB	012H
	DB	012H
	DB	012H
	DB	012H
	DB	012H
	DB	012H
	DB	012H
	DB	012H
	DB	012H
	DB	012H
	DB	012H
	DB	012H
	DB	012H
	DB	012H
	DB	012H
	DB	012H
	DB	012H
	DB	012H
	DB	012H
	DB	015H
	DB	015H
	DB	015H
	DB	02fH
	DB	02eH
	DB	012H
	DB	012H
	DB	012H
	DB	012H
	DB	012H
	DB	06H
	DB	00H
	DB	00H
	DB	00H
	DB	00H
	DB	00H
	DB	00H
	DB	00H
	DB	00H
	DB	00H
	DB	00H
	DB	08dH
	DB	0eH
	DB	020H
	DB	0c3H
	DB	03H
	DB	03H
	DB	03H
	DB	03aH
	DB	0dH
	DB	01fH
	DB	025H
	DB	025H
	DB	025H
	DB	025H
	DB	025H
	DB	066H
	DB	05cH
	DB	08H
	DB	08H
	DB	0bH
	DB	05H
	DB	04dH
	DB	02eH
	DB	020H
	DB	010H
	DB	0e3H
	DB	010H
	DB	020H
	DB	02eH
	DB	095H
	DB	0cH
	DB	0cH
	DB	05H
	DB	05H
	DB	03dH
	DB	027H
	DB	010H
	DB	036H
	DB	0c3H
	DB	0eH
	DB	0c3H
	DB	034H
	DB	0b4H
	DB	010H
	DB	0fcH
	DB	03H
	DB	03H
	DB	03H
	DB	03H
	DB	03H
	DB	0f9H
	DB	095H
	DB	01aH
	DB	02fH
	DB	015H
	DB	02fH
	DB	02fH
	DB	02fH
	DB	02fH
	DB	02fH
	DB	02fH
	DB	02fH
	DB	02fH
	DB	02fH
	DB	02fH
	DB	02fH
	DB	02fH
	DB	02fH
	DB	02fH
	DB	02fH
	DB	02fH
	DB	02fH
	DB	02fH
	DB	02fH
	DB	02fH
	DB	02fH
	DB	02fH
	DB	02fH
	DB	02fH
	DB	02fH
	DB	02fH
	DB	02fH
	DB	02fH
	DB	02fH
	DB	02fH
	DB	08eH
	DB	05dH
	DB	038H
	DB	038H
	DB	038H
	DB	038H
	DB	08H
	DB	0a2H
	DB	03H
	DB	03H
	DB	03H
	DB	022H
	DB	02eH
	DB	014H
	DB	0eH
	DB	09dH
	DB	094H
	DB	04dH
	DB	017H
	DB	0aeH
	DB	0f0H
	DB	077H
	DB	061H
	DB	08aH
	DB	08aH
	DB	05eH
	DB	07bH
	DB	012H
	DB	07bH
	DB	02cH
	DB	02eH
	DB	0aeH
	DB	08dH
	DB	072H
	DB	032H
	DB	06H
	DB	06H
	DB	011H
	DB	031H
	DB	027H
	DB	014H
	DB	0c8H
	DB	03H
	DB	03H
	DB	03H
	DB	0fcH
	DB	027H
	DB	012H
	DB	02cH
	DB	012H
	DB	012H
	DB	012H
	DB	012H
	DB	012H
	DB	012H
	DB	012H
	DB	012H
	DB	012H
	DB	012H
	DB	012H
	DB	012H
	DB	012H
	DB	012H
	DB	012H
	DB	012H
	DB	012H
	DB	012H
	DB	012H
	DB	012H
	DB	012H
	DB	012H
	DB	015H
	DB	02fH
	DB	02fH
	DB	02fH
	DB	02fH
	DB	015H
	DB	012H
	DB	012H
	DB	012H
	DB	012H
	DB	012H
	DB	06H
	DB	00H
	DB	00H
	DB	00H
	DB	00H
	DB	00H
	DB	00H
	DB	00H
	DB	00H
	DB	00H
	DB	00H
	DB	028H
	DB	0c3H
	DB	0f4H
	DB	089H
	DB	03H
	DB	03H
	DB	03H
	DB	03H
	DB	0f9H
	DB	08dH
	DB	06H
	DB	06H
	DB	06H
	DB	06H
	DB	01fH
	DB	016H
	DB	024H
	DB	087H
	DB	091H
	DB	014H
	DB	0c5H
	DB	0a5H
	DB	0c8H
	DB	03H
	DB	03H
	DB	03H
	DB	03H
	DB	03H
	DB	0c8H
	DB	029H
	DB	0eH
	DB	0b4H
	DB	01bH
	DB	05H
	DB	02dH
	DB	040H
	DB	011H
	DB	01aH
	DB	020H
	DB	03aH
	DB	0c3H
	DB	0eH
	DB	0eH
	DB	09fH
	DB	08dH
	DB	034H
	DB	0c8H
	DB	03H
	DB	03H
	DB	03H
	DB	03H
	DB	0fdH
	DB	0b4H
	DB	011H
	DB	09H
	DB	015H
	DB	02fH
	DB	02fH
	DB	02fH
	DB	02fH
	DB	02fH
	DB	02fH
	DB	02fH
	DB	02fH
	DB	02fH
	DB	02fH
	DB	02fH
	DB	02fH
	DB	02fH
	DB	02fH
	DB	02fH
	DB	02fH
	DB	02fH
	DB	02fH
	DB	02fH
	DB	02fH
	DB	02fH
	DB	02fH
	DB	02fH
	DB	02fH
	DB	02fH
	DB	02fH
	DB	02fH
	DB	02fH
	DB	02fH
	DB	08eH
	DB	05dH
	DB	038H
	DB	038H
	DB	038H
	DB	01cH
	DB	03cH
	DB	0c8H
	DB	03H
	DB	03H
	DB	01eH
	DB	020H
	DB	0e7H
	DB	0eH
	DB	06cH
	DB	04dH
	DB	0bH
	DB	08H
	DB	0deH
	DB	061H
	DB	061H
	DB	061H
	DB	061H
	DB	061H
	DB	077H
	DB	047H
	DB	05eH
	DB	02cH
	DB	090H
	DB	047H
	DB	056H
	DB	056H
	DB	0dfH
	DB	05eH
	DB	097H
	DB	017H
	DB	032H
	DB	06H
	DB	06H
	DB	011H
	DB	031H
	DB	0b4H
	DB	0c6H
	DB	03H
	DB	03H
	DB	03H
	DB	035H
	DB	016H
	DB	082H
	DB	02cH
	DB	02cH
	DB	02cH
	DB	02cH
	DB	02cH
	DB	02cH
	DB	02cH
	DB	02cH
	DB	02cH
	DB	02cH
	DB	02cH
	DB	02cH
	DB	02cH
	DB	02cH
	DB	02cH
	DB	02cH
	DB	02cH
	DB	02cH
	DB	02cH
	DB	02cH
	DB	012H
	DB	066H
	DB	02fH
	DB	02fH
	DB	02fH
	DB	02fH
	DB	02fH
	DB	08eH
	DB	02cH
	DB	02cH
	DB	02cH
	DB	02cH
	DB	02cH
	DB	06H
	DB	00H
	DB	00H
	DB	00H
	DB	00H
	DB	00H
	DB	00H
	DB	00H
	DB	00H
	DB	00H
	DB	00H
	DB	027H
	DB	014H
	DB	0c3H
	DB	016H
	DB	0eH
	DB	03H
	DB	03H
	DB	03H
	DB	03H
	DB	01eH
	DB	022H
	DB	0fcH
	DB	0fcH
	DB	0fcH
	DB	022H
	DB	0c5H
	DB	0a5H
	DB	03H
	DB	03H
	DB	03H
	DB	03H
	DB	03H
	DB	03H
	DB	03H
	DB	03H
	DB	03H
	DB	03H
	DB	03H
	DB	03H
	DB	03H
	DB	03H
	DB	03H
	DB	021H
	DB	065H
	DB	05H
	DB	024H
	DB	01aH
	DB	040H
	DB	011H
	DB	040H
	DB	09bH
	DB	036H
	DB	0c3H
	DB	0eH
	DB	0c3H
	DB	0b4H
	DB	010H
	DB	022H
	DB	03H
	DB	03H
	DB	03H
	DB	03H
	DB	03H
	DB	014H
	DB	095H
	DB	040H
	DB	015H
	DB	02fH
	DB	02fH
	DB	02fH
	DB	02fH
	DB	02fH
	DB	02fH
	DB	02fH
	DB	02fH
	DB	02fH
	DB	02fH
	DB	02fH
	DB	02fH
	DB	02fH
	DB	02fH
	DB	02fH
	DB	02fH
	DB	02fH
	DB	02fH
	DB	02fH
	DB	02fH
	DB	02fH
	DB	02fH
	DB	02fH
	DB	02fH
	DB	02fH
	DB	02fH
	DB	02fH
	DB	02fH
	DB	02fH
	DB	02fH
	DB	038H
	DB	038H
	DB	01cH
	DB	024H
	DB	029H
	DB	03H
	DB	03H
	DB	03H
	DB	0e6H
	DB	035H
	DB	0eH
	DB	0c0H
	DB	0ccH
	DB	0bH
	DB	08H
	DB	01cH
	DB	0d1H
	DB	0ddH
	DB	0efH
	DB	056H
	DB	061H
	DB	061H
	DB	061H
	DB	061H
	DB	056H
	DB	047H
	DB	061H
	DB	061H
	DB	077H
	DB	061H
	DB	056H
	DB	077H
	DB	090H
	DB	07bH
	DB	025H
	DB	017H
	DB	032H
	DB	01fH
	DB	01dH
	DB	0dH
	DB	0b4H
	DB	0c8H
	DB	03H
	DB	03H
	DB	021H
	DB	028H
	DB	07dH
	DB	025H
	DB	02cH
	DB	02cH
	DB	02cH
	DB	02cH
	DB	02cH
	DB	02cH
	DB	02cH
	DB	02cH
	DB	02cH
	DB	02cH
	DB	02cH
	DB	02cH
	DB	02cH
	DB	02cH
	DB	02cH
	DB	02cH
	DB	02cH
	DB	02cH
	DB	02cH
	DB	02cH
	DB	08eH
	DB	02fH
	DB	02fH
	DB	02fH
	DB	02fH
	DB	02fH
	DB	065H
	DB	02cH
	DB	02cH
	DB	02cH
	DB	02cH
	DB	02cH
	DB	06H
	DB	00H
	DB	00H
	DB	00H
	DB	00H
	DB	00H
	DB	00H
	DB	00H
	DB	00H
	DB	00H
	DB	00H
	DB	011H
	DB	036H
	DB	0eH
	DB	036H
	DB	027H
	DB	021H
	DB	03H
	DB	03H
	DB	03H
	DB	03H
	DB	03H
	DB	03H
	DB	03H
	DB	03H
	DB	03H
	DB	03H
	DB	03H
	DB	03H
	DB	03H
	DB	03H
	DB	03H
	DB	03H
	DB	03H
	DB	03H
	DB	03H
	DB	03H
	DB	03H
	DB	03H
	DB	03H
	DB	03H
	DB	03H
	DB	03H
	DB	03H
	DB	01eH
	DB	028H
	DB	040H
	DB	09H
	DB	024H
	DB	01aH
	DB	040H
	DB	011H
	DB	016H
	DB	089H
	DB	014H
	DB	0eH
	DB	0eH
	DB	036H
	DB	027H
	DB	036H
	DB	0c8H
	DB	03H
	DB	03H
	DB	03H
	DB	03H
	DB	0c5H
	DB	0b4H
	DB	011H
	DB	024H
	DB	02fH
	DB	02fH
	DB	02fH
	DB	02fH
	DB	02fH
	DB	02fH
	DB	02fH
	DB	02fH
	DB	02fH
	DB	02fH
	DB	02fH
	DB	02fH
	DB	02fH
	DB	02fH
	DB	02fH
	DB	02fH
	DB	02fH
	DB	02fH
	DB	02fH
	DB	02fH
	DB	02fH
	DB	02fH
	DB	02fH
	DB	02fH
	DB	02fH
	DB	02fH
	DB	02fH
	DB	02fH
	DB	02fH
	DB	038H
	DB	038H
	DB	05H
	DB	014H
	DB	03H
	DB	03H
	DB	03H
	DB	0c3H
	DB	02eH
	DB	071H
	DB	014H
	DB	07aH
	DB	0bH
	DB	08H
	DB	01cH
	DB	01cH
	DB	038H
	DB	038H
	DB	01cH
	DB	0d0H
	DB	0d9H
	DB	0edH
	DB	056H
	DB	056H
	DB	061H
	DB	061H
	DB	061H
	DB	047H
	DB	08aH
	DB	0f1H
	DB	056H
	DB	0f0H
	DB	099H
	DB	090H
	DB	02eH
	DB	025H
	DB	025H
	DB	017H
	DB	032H
	DB	06H
	DB	0a6H
	DB	0c4H
	DB	03H
	DB	03H
	DB	0c8H
	DB	08dH
	DB	030H
	DB	012H
	DB	025H
	DB	02cH
	DB	02cH
	DB	02cH
	DB	02cH
	DB	02cH
	DB	02cH
	DB	02cH
	DB	02cH
	DB	02cH
	DB	02cH
	DB	02cH
	DB	02cH
	DB	02cH
	DB	02cH
	DB	02cH
	DB	02cH
	DB	02cH
	DB	02cH
	DB	02cH
	DB	02fH
	DB	02fH
	DB	02fH
	DB	02fH
	DB	02fH
	DB	02fH
	DB	065H
	DB	02cH
	DB	02cH
	DB	02cH
	DB	02cH
	DB	02cH
	DB	06H
	DB	00H
	DB	00H
	DB	00H
	DB	00H
	DB	00H
	DB	00H
	DB	00H
	DB	00H
	DB	00H
	DB	00H
	DB	00H
	DB	0b2H
	DB	0c3H
	DB	0eH
	DB	036H
	DB	016H
	DB	0f9H
	DB	01eH
	DB	03H
	DB	03H
	DB	03H
	DB	03H
	DB	03H
	DB	03H
	DB	03H
	DB	03H
	DB	03H
	DB	03H
	DB	0c8H
	DB	0c6H
	DB	022H
	DB	0c4H
	DB	0c1H
	DB	09fH
	DB	0baH
	DB	030H
	DB	0baH
	DB	0f4H
	DB	0c4H
	DB	0c6H
	DB	03H
	DB	03H
	DB	03H
	DB	03H
	DB	0a4H
	DB	040H
	DB	09H
	DB	09H
	DB	024H
	DB	024H
	DB	01aH
	DB	040H
	DB	011H
	DB	028H
	DB	036H
	DB	0c3H
	DB	0eH
	DB	014H
	DB	0e3H
	DB	0b0H
	DB	0fcH
	DB	03H
	DB	03H
	DB	03H
	DB	03H
	DB	0c8H
	DB	0c1H
	DB	016H
	DB	040H
	DB	09H
	DB	02fH
	DB	09H
	DB	09H
	DB	09H
	DB	09H
	DB	09H
	DB	09H
	DB	09H
	DB	09H
	DB	09H
	DB	09H
	DB	09H
	DB	09H
	DB	09H
	DB	09H
	DB	09H
	DB	09H
	DB	09H
	DB	09H
	DB	09H
	DB	09H
	DB	09H
	DB	09H
	DB	09H
	DB	09H
	DB	08eH
	DB	081H
	DB	038H
	DB	08H
	DB	020H
	DB	0c8H
	DB	03H
	DB	03H
	DB	029H
	DB	0b4H
	DB	014H
	DB	0eH
	DB	074H
	DB	0bH
	DB	08H
	DB	01cH
	DB	01cH
	DB	01cH
	DB	01cH
	DB	01cH
	DB	01cH
	DB	01cH
	DB	038H
	DB	038H
	DB	0d7H
	DB	056H
	DB	056H
	DB	047H
	DB	08aH
	DB	066H
	DB	080H
	DB	05eH
	DB	08aH
	DB	05eH
	DB	025H
	DB	05eH
	DB	02cH
	DB	025H
	DB	025H
	DB	025H
	DB	017H
	DB	017H
	DB	013H
	DB	0baH
	DB	03H
	DB	03H
	DB	03H
	DB	0b4H
	DB	02bH
	DB	07cH
	DB	017H
	DB	02cH
	DB	02cH
	DB	02cH
	DB	02cH
	DB	02cH
	DB	02cH
	DB	02cH
	DB	02cH
	DB	02cH
	DB	02cH
	DB	02cH
	DB	02cH
	DB	02cH
	DB	02cH
	DB	02cH
	DB	02cH
	DB	02cH
	DB	02cH
	DB	066H
	DB	09H
	DB	09H
	DB	09H
	DB	09H
	DB	09H
	DB	09H
	DB	065H
	DB	02cH
	DB	02cH
	DB	02cH
	DB	02cH
	DB	025H
	DB	06H
	DB	00H
	DB	00H
	DB	00H
	DB	00H
	DB	00H
	DB	00H
	DB	00H
	DB	00H
	DB	00H
	DB	00H
	DB	00H
	DB	031H
	DB	0b9H
	DB	0c3H
	DB	0eH
	DB	034H
	DB	020H
	DB	028H
	DB	02bH
	DB	0f8H
	DB	0c4H
	DB	0fcH
	DB	022H
	DB	0fcH
	DB	021H
	DB	0c3H
	DB	0a3H
	DB	02bH
	DB	010H
	DB	08dH
	DB	020H
	DB	035H
	DB	0baH
	DB	035H
	DB	035H
	DB	035H
	DB	0baH
	DB	0baH
	DB	027H
	DB	027H
	DB	035H
	DB	01eH
	DB	03H
	DB	03H
	DB	03H
	DB	09aH
	DB	01aH
	DB	09H
	DB	09H
	DB	09H
	DB	024H
	DB	046H
	DB	01aH
	DB	011H
	DB	016H
	DB	089H
	DB	014H
	DB	0eH
	DB	0eH
	DB	0e8H
	DB	028H
	DB	0f4H
	DB	0c8H
	DB	03H
	DB	03H
	DB	03H
	DB	03H
	DB	0c5H
	DB	0b2H
	DB	040H
	DB	024H
	DB	02fH
	DB	09H
	DB	09H
	DB	09H
	DB	09H
	DB	09H
	DB	09H
	DB	09H
	DB	09H
	DB	09H
	DB	09H
	DB	09H
	DB	09H
	DB	09H
	DB	09H
	DB	09H
	DB	09H
	DB	09H
	DB	09H
	DB	09H
	DB	09H
	DB	09H
	DB	09H
	DB	09H
	DB	08eH
	DB	081H
	DB	038H
	DB	05H
	DB	0c4H
	DB	03H
	DB	03H
	DB	03H
	DB	0e7H
	DB	0f4H
	DB	0eH
	DB	06cH
	DB	094H
	DB	0bH
	DB	08H
	DB	01cH
	DB	01cH
	DB	01cH
	DB	01cH
	DB	01cH
	DB	01cH
	DB	01cH
	DB	01cH
	DB	01cH
	DB	0a8H
	DB	06dH
	DB	099H
	DB	025H
	DB	066H
	DB	07bH
	DB	080H
	DB	05eH
	DB	056H
	DB	047H
	DB	0dfH
	DB	080H
	DB	025H
	DB	025H
	DB	025H
	DB	025H
	DB	025H
	DB	025H
	DB	01fH
	DB	010H
	DB	03H
	DB	03H
	DB	03H
	DB	089H
	DB	09fH
	DB	0b8H
	DB	017H
	DB	025H
	DB	025H
	DB	025H
	DB	025H
	DB	025H
	DB	025H
	DB	025H
	DB	025H
	DB	025H
	DB	025H
	DB	025H
	DB	025H
	DB	025H
	DB	025H
	DB	025H
	DB	02cH
	DB	02cH
	DB	025H
	DB	09H
	DB	09H
	DB	09H
	DB	09H
	DB	09H
	DB	09H
	DB	09H
	DB	09H
	DB	065H
	DB	025H
	DB	025H
	DB	025H
	DB	025H
	DB	06H
	DB	00H
	DB	00H
	DB	00H
	DB	00H
	DB	00H
	DB	00H
	DB	00H
	DB	00H
	DB	00H
	DB	00H
	DB	00H
	DB	00H
	DB	031H
	DB	089H
	DB	014H
	DB	0eH
	DB	0eH
	DB	014H
	DB	0b9H
	DB	020H
	DB	010H
	DB	010H
	DB	010H
	DB	010H
	DB	010H
	DB	010H
	DB	020H
	DB	0baH
	DB	034H
	DB	0c0H
	DB	07eH
	DB	06cH
	DB	06cH
	DB	06cH
	DB	07eH
	DB	0f9H
	DB	0c3H
	DB	0eH
	DB	071H
	DB	014H
	DB	027H
	DB	03aH
	DB	03H
	DB	03H
	DB	03H
	DB	0baH
	DB	01aH
	DB	09H
	DB	09H
	DB	09H
	DB	09H
	DB	024H
	DB	024H
	DB	01aH
	DB	040H
	DB	011H
	DB	02eH
	DB	036H
	DB	0c3H
	DB	0eH
	DB	014H
	DB	0b2H
	DB	010H
	DB	0fcH
	DB	03H
	DB	03H
	DB	03H
	DB	03H
	DB	0c8H
	DB	034H
	DB	011H
	DB	01aH
	DB	02fH
	DB	09H
	DB	09H
	DB	09H
	DB	09H
	DB	09H
	DB	09H
	DB	09H
	DB	09H
	DB	09H
	DB	09H
	DB	09H
	DB	09H
	DB	09H
	DB	09H
	DB	09H
	DB	09H
	DB	09H
	DB	09H
	DB	09H
	DB	09H
	DB	09H
	DB	09H
	DB	09H
	DB	09H
	DB	05cH
	DB	078H
	DB	0a5H
	DB	03H
	DB	03H
	DB	021H
	DB	020H
	DB	0eH
	DB	014H
	DB	05dH
	DB	0bH
	DB	08H
	DB	01cH
	DB	01cH
	DB	01cH
	DB	01cH
	DB	01cH
	DB	01cH
	DB	01cH
	DB	01cH
	DB	01cH
	DB	01cH
	DB	01cH
	DB	0d8H
	DB	05dH
	DB	0d2H
	DB	025H
	DB	025H
	DB	080H
	DB	0eeH
	DB	056H
	DB	056H
	DB	056H
	DB	06dH
	DB	0daH
	DB	025H
	DB	025H
	DB	025H
	DB	025H
	DB	025H
	DB	06H
	DB	07dH
	DB	03H
	DB	03H
	DB	03H
	DB	0e3H
	DB	03aH
	DB	09eH
	DB	017H
	DB	025H
	DB	025H
	DB	025H
	DB	025H
	DB	025H
	DB	025H
	DB	025H
	DB	025H
	DB	025H
	DB	025H
	DB	025H
	DB	025H
	DB	025H
	DB	025H
	DB	025H
	DB	0d2H
	DB	0cbH
	DB	05dH
	DB	09H
	DB	09H
	DB	09H
	DB	09H
	DB	09H
	DB	09H
	DB	09H
	DB	09H
	DB	09H
	DB	025H
	DB	025H
	DB	025H
	DB	025H
	DB	06H
	DB	00H
	DB	00H
	DB	00H
	DB	00H
	DB	00H
	DB	00H
	DB	00H
	DB	00H
	DB	00H
	DB	00H
	DB	00H
	DB	00H
	DB	00H
	DB	031H
	DB	0b1H
	DB	035H
	DB	0a3H
	DB	0c2H
	DB	0c3H
	DB	0eH
	DB	071H
	DB	014H
	DB	014H
	DB	0f9H
	DB	034H
	DB	03aH
	DB	0e4H
	DB	05fH
	DB	05dH
	DB	0ccH
	DB	04dH
	DB	05H
	DB	05H
	DB	05H
	DB	05H
	DB	04dH
	DB	05dH
	DB	074H
	DB	034H
	DB	0eH
	DB	030H
	DB	0f4H
	DB	03H
	DB	03H
	DB	03H
	DB	010H
	DB	01aH
	DB	09H
	DB	09H
	DB	09H
	DB	09H
	DB	09H
	DB	024H
	DB	024H
	DB	01aH
	DB	040H
	DB	011H
	DB	016H
	DB	030H
	DB	014H
	DB	0eH
	DB	0eH
	DB	09fH
	DB	08dH
	DB	0a3H
	DB	0c8H
	DB	03H
	DB	03H
	DB	03H
	DB	03H
	DB	021H
	DB	065H
	DB	011H
	DB	024H
	DB	09H
	DB	09H
	DB	09H
	DB	09H
	DB	09H
	DB	09H
	DB	09H
	DB	09H
	DB	09H
	DB	09H
	DB	09H
	DB	09H
	DB	09H
	DB	09H
	DB	09H
	DB	09H
	DB	09H
	DB	09H
	DB	09H
	DB	09H
	DB	09H
	DB	09H
	DB	09H
	DB	05cH
	DB	087H
	DB	0c8H
	DB	03H
	DB	03H
	DB	0eH
	DB	028H
	DB	0c2H
	DB	0e4H
	DB	0bH
	DB	08H
	DB	01cH
	DB	01cH
	DB	01cH
	DB	01cH
	DB	01cH
	DB	01cH
	DB	01cH
	DB	01cH
	DB	01cH
	DB	01cH
	DB	01cH
	DB	01cH
	DB	0cbH
	DB	0cbH
	DB	025H
	DB	025H
	DB	0daH
	DB	047H
	DB	056H
	DB	047H
	DB	047H
	DB	047H
	DB	06eH
	DB	085H
	DB	07bH
	DB	025H
	DB	025H
	DB	025H
	DB	025H
	DB	01dH
	DB	0eH
	DB	03H
	DB	03H
	DB	03H
	DB	028H
	DB	03aH
	DB	0e7H
	DB	032H
	DB	017H
	DB	025H
	DB	025H
	DB	025H
	DB	025H
	DB	025H
	DB	0ccH
	DB	049H
	DB	049H
	DB	049H
	DB	0a8H
	DB	081H
	DB	065H
	DB	09H
	DB	065H
	DB	05dH
	DB	038H
	DB	081H
	DB	09H
	DB	09H
	DB	09H
	DB	09H
	DB	09H
	DB	09H
	DB	09H
	DB	09H
	DB	09H
	DB	065H
	DB	025H
	DB	025H
	DB	025H
	DB	06H
	DB	00H
	DB	00H
	DB	00H
	DB	00H
	DB	00H
	DB	00H
	DB	00H
	DB	00H
	DB	00H
	DB	00H
	DB	00H
	DB	00H
	DB	00H
	DB	031H
	DB	01fH
	DB	011H
	DB	06H
	DB	027H
	DB	02eH
	DB	028H
	DB	028H
	DB	028H
	DB	08dH
	DB	032H
	DB	06H
	DB	011H
	DB	05H
	DB	05H
	DB	05H
	DB	05H
	DB	0bH
	DB	0bH
	DB	0bH
	DB	0bH
	DB	0bH
	DB	05H
	DB	05H
	DB	05H
	DB	0ccH
	DB	034H
	DB	010H
	DB	0c4H
	DB	03H
	DB	03H
	DB	0c8H
	DB	08dH
	DB	01aH
	DB	09H
	DB	09H
	DB	09H
	DB	09H
	DB	09H
	DB	09H
	DB	09H
	DB	024H
	DB	046H
	DB	01aH
	DB	011H
	DB	011H
	DB	028H
	DB	036H
	DB	0c3H
	DB	0eH
	DB	0c3H
	DB	020H
	DB	0b4H
	DB	022H
	DB	03H
	DB	03H
	DB	03H
	DB	03H
	DB	01eH
	DB	02bH
	DB	040H
	DB	01aH
	DB	09H
	DB	09H
	DB	09H
	DB	09H
	DB	09H
	DB	09H
	DB	09H
	DB	09H
	DB	09H
	DB	09H
	DB	09H
	DB	09H
	DB	09H
	DB	09H
	DB	09H
	DB	09H
	DB	09H
	DB	09H
	DB	09H
	DB	09H
	DB	09H
	DB	09H
	DB	05cH
	DB	05dH
	DB	01eH
	DB	03H
	DB	03H
	DB	0c8H
	DB	034H
	DB	09aH
	DB	040H
	DB	05H
	DB	08H
	DB	01cH
	DB	01cH
	DB	01cH
	DB	01cH
	DB	01cH
	DB	01cH
	DB	01cH
	DB	01cH
	DB	01cH
	DB	01cH
	DB	01cH
	DB	01cH
	DB	01cH
	DB	0ccH
	DB	025H
	DB	097H
	DB	047H
	DB	06dH
	DB	047H
	DB	047H
	DB	047H
	DB	047H
	DB	06dH
	DB	085H
	DB	0d2H
	DB	025H
	DB	025H
	DB	025H
	DB	06H
	DB	010H
	DB	03H
	DB	03H
	DB	03H
	DB	0fcH
	DB	02eH
	DB	0c3H
	DB	0bbH
	DB	032H
	DB	017H
	DB	025H
	DB	025H
	DB	025H
	DB	025H
	DB	0ccH
	DB	01cH
	DB	01cH
	DB	01cH
	DB	01cH
	DB	01cH
	DB	049H
	DB	09H
	DB	09H
	DB	09H
	DB	081H
	DB	01cH
	DB	049H
	DB	09H
	DB	09H
	DB	09H
	DB	09H
	DB	09H
	DB	09H
	DB	09H
	DB	09H
	DB	09H
	DB	08dH
	DB	025H
	DB	025H
	DB	025H
	DB	06H
	DB	00H
	DB	00H
	DB	00H
	DB	00H
	DB	00H
	DB	00H
	DB	00H
	DB	00H
	DB	00H
	DB	00H
	DB	00H
	DB	00H
	DB	00H
	DB	011H
	DB	02cH
	DB	06H
	DB	01dH
	DB	013H
	DB	011H
	DB	011H
	DB	011H
	DB	011H
	DB	011H
	DB	01dH
	DB	01dH
	DB	01dH
	DB	0bH
	DB	0bH
	DB	08H
	DB	08H
	DB	08H
	DB	08H
	DB	08H
	DB	08H
	DB	08H
	DB	08H
	DB	08H
	DB	0bH
	DB	094H
	DB	075H
	DB	016H
	DB	0fdH
	DB	03H
	DB	03H
	DB	029H
	DB	095H
	DB	01aH
	DB	09H
	DB	09H
	DB	09H
	DB	09H
	DB	09H
	DB	09H
	DB	09H
	DB	024H
	DB	024H
	DB	046H
	DB	01aH
	DB	040H
	DB	011H
	DB	016H
	DB	030H
	DB	014H
	DB	0c3H
	DB	0eH
	DB	036H
	DB	027H
	DB	0f6H
	DB	03H
	DB	03H
	DB	03H
	DB	03H
	DB	03H
	DB	021H
	DB	027H
	DB	011H
	DB	024H
	DB	09H
	DB	024H
	DB	09H
	DB	09H
	DB	09H
	DB	09H
	DB	09H
	DB	09H
	DB	09H
	DB	09H
	DB	09H
	DB	09H
	DB	09H
	DB	09H
	DB	09H
	DB	09H
	DB	09H
	DB	09H
	DB	09H
	DB	09H
	DB	05cH
	DB	04H
	DB	0eH
	DB	03H
	DB	03H
	DB	03H
	DB	03H
	DB	0c6H
	DB	071H
	DB	010H
	DB	04dH
	DB	08H
	DB	01cH
	DB	01cH
	DB	01cH
	DB	01cH
	DB	01cH
	DB	01cH
	DB	01cH
	DB	01cH
	DB	01cH
	DB	01cH
	DB	01cH
	DB	01cH
	DB	017H
	DB	017H
	DB	0afH
	DB	06dH
	DB	047H
	DB	047H
	DB	047H
	DB	047H
	DB	047H
	DB	06dH
	DB	098H
	DB	072H
	DB	025H
	DB	025H
	DB	017H
	DB	016H
	DB	022H
	DB	03H
	DB	03H
	DB	03H
	DB	030H
	DB	0b9H
	DB	0eH
	DB	07dH
	DB	01fH
	DB	017H
	DB	017H
	DB	025H
	DB	017H
	DB	049H
	DB	01cH
	DB	01cH
	DB	01cH
	DB	01cH
	DB	01cH
	DB	01cH
	DB	049H
	DB	09H
	DB	09H
	DB	081H
	DB	01cH
	DB	01cH
	DB	049H
	DB	09H
	DB	09H
	DB	09H
	DB	09H
	DB	09H
	DB	09H
	DB	09H
	DB	027H
	DB	025H
	DB	025H
	DB	017H
	DB	017H
	DB	017H
	DB	01dH
	DB	00H
	DB	00H
	DB	00H
	DB	00H
	DB	00H
	DB	00H
	DB	00H
	DB	00H
	DB	00H
	DB	00H
	DB	00H
	DB	00H
	DB	00H
	DB	011H
	DB	082H
	DB	032H
	DB	01fH
	DB	01fH
	DB	01fH
	DB	06H
	DB	06H
	DB	06H
	DB	01fH
	DB	01fH
	DB	01fH
	DB	078H
	DB	08H
	DB	08H
	DB	08H
	DB	08H
	DB	01cH
	DB	01cH
	DB	01cH
	DB	01cH
	DB	01cH
	DB	08H
	DB	08H
	DB	08H
	DB	081H
	DB	036H
	DB	02eH
	DB	01eH
	DB	03H
	DB	03H
	DB	021H
	DB	011H
	DB	024H
	DB	024H
	DB	024H
	DB	024H
	DB	024H
	DB	024H
	DB	024H
	DB	024H
	DB	024H
	DB	024H
	DB	024H
	DB	024H
	DB	01aH
	DB	01aH
	DB	011H
	DB	011H
	DB	06bH
	DB	0c0H
	DB	0c3H
	DB	0eH
	DB	014H
	DB	010H
	DB	0b4H
	DB	0c5H
	DB	03H
	DB	03H
	DB	03H
	DB	03H
	DB	01eH
	DB	02bH
	DB	011H
	DB	01aH
	DB	09H
	DB	024H
	DB	024H
	DB	024H
	DB	024H
	DB	024H
	DB	024H
	DB	024H
	DB	024H
	DB	024H
	DB	024H
	DB	024H
	DB	024H
	DB	024H
	DB	024H
	DB	024H
	DB	024H
	DB	024H
	DB	09H
	DB	049H
	DB	08H
	DB	016H
	DB	0a4H
	DB	03H
	DB	03H
	DB	03H
	DB	03H
	DB	03H
	DB	03H
	DB	0a4H
	DB	027H
	DB	0bH
	DB	01cH
	DB	01cH
	DB	01cH
	DB	01cH
	DB	01cH
	DB	01cH
	DB	01cH
	DB	01cH
	DB	01cH
	DB	01cH
	DB	05cH
	DB	017H
	DB	072H
	DB	098H
	DB	06dH
	DB	047H
	DB	047H
	DB	047H
	DB	047H
	DB	047H
	DB	055H
	DB	0adH
	DB	027H
	DB	017H
	DB	025H
	DB	01dH
	DB	02bH
	DB	03H
	DB	03H
	DB	03H
	DB	0c4H
	DB	08dH
	DB	0c3H
	DB	0f9H
	DB	066H
	DB	01fH
	DB	017H
	DB	017H
	DB	017H
	DB	049H
	DB	01cH
	DB	01cH
	DB	01cH
	DB	01cH
	DB	01cH
	DB	01cH
	DB	01cH
	DB	049H
	DB	09H
	DB	024H
	DB	01cH
	DB	01cH
	DB	01cH
	DB	049H
	DB	09H
	DB	024H
	DB	024H
	DB	024H
	DB	017H
	DB	017H
	DB	017H
	DB	017H
	DB	017H
	DB	017H
	DB	017H
	DB	017H
	DB	017H
	DB	01dH
	DB	00H
	DB	00H
	DB	00H
	DB	00H
	DB	00H
	DB	00H
	DB	00H
	DB	00H
	DB	00H
	DB	00H
	DB	00H
	DB	00H
	DB	00H
	DB	011H
	DB	082H
	DB	017H
	DB	017H
	DB	017H
	DB	032H
	DB	032H
	DB	032H
	DB	032H
	DB	032H
	DB	017H
	DB	017H
	DB	078H
	DB	01cH
	DB	01cH
	DB	01cH
	DB	01cH
	DB	01cH
	DB	01cH
	DB	01cH
	DB	01cH
	DB	01cH
	DB	01cH
	DB	01cH
	DB	08H
	DB	0d3H
	DB	0f6H
	DB	010H
	DB	03H
	DB	03H
	DB	03H
	DB	0f9H
	DB	01bH
	DB	09H
	DB	024H
	DB	024H
	DB	024H
	DB	024H
	DB	024H
	DB	024H
	DB	024H
	DB	024H
	DB	024H
	DB	024H
	DB	024H
	DB	024H
	DB	046H
	DB	01aH
	DB	040H
	DB	01bH
	DB	016H
	DB	0b9H
	DB	014H
	DB	0eH
	DB	0eH
	DB	0e7H
	DB	0b0H
	DB	0f6H
	DB	03H
	DB	03H
	DB	03H
	DB	03H
	DB	03H
	DB	021H
	DB	02eH
	DB	01bH
	DB	024H
	DB	024H
	DB	024H
	DB	024H
	DB	024H
	DB	024H
	DB	024H
	DB	024H
	DB	024H
	DB	024H
	DB	024H
	DB	024H
	DB	024H
	DB	024H
	DB	024H
	DB	024H
	DB	024H
	DB	024H
	DB	049H
	DB	01cH
	DB	0bH
	DB	040H
	DB	0a3H
	DB	01eH
	DB	03H
	DB	03H
	DB	03H
	DB	03H
	DB	03H
	DB	0c4H
	DB	040H
	DB	01cH
	DB	08H
	DB	01cH
	DB	01cH
	DB	01cH
	DB	01cH
	DB	01cH
	DB	01cH
	DB	01cH
	DB	01cH
	DB	0ccH
	DB	017H
	DB	017H
	DB	0dcH
	DB	047H
	DB	055H
	DB	055H
	DB	055H
	DB	055H
	DB	060H
	DB	0afH
	DB	098H
	DB	060H
	DB	0adH
	DB	01fH
	DB	027H
	DB	029H
	DB	03H
	DB	03H
	DB	01eH
	DB	0b2H
	DB	0f6H
	DB	0eH
	DB	089H
	DB	06H
	DB	032H
	DB	017H
	DB	017H
	DB	017H
	DB	049H
	DB	01cH
	DB	01cH
	DB	01cH
	DB	01cH
	DB	01cH
	DB	01cH
	DB	01cH
	DB	04dH
	DB	09H
	DB	046H
	DB	01cH
	DB	01cH
	DB	01cH
	DB	049H
	DB	024H
	DB	024H
	DB	024H
	DB	017H
	DB	017H
	DB	017H
	DB	017H
	DB	017H
	DB	017H
	DB	017H
	DB	017H
	DB	017H
	DB	017H
	DB	01dH
	DB	00H
	DB	00H
	DB	00H
	DB	00H
	DB	00H
	DB	00H
	DB	00H
	DB	00H
	DB	00H
	DB	00H
	DB	00H
	DB	00H
	DB	00H
	DB	011H
	DB	082H
	DB	017H
	DB	017H
	DB	017H
	DB	017H
	DB	017H
	DB	017H
	DB	017H
	DB	017H
	DB	017H
	DB	017H
	DB	0ccH
	DB	01cH
	DB	01cH
	DB	01cH
	DB	01cH
	DB	01cH
	DB	01cH
	DB	01cH
	DB	01cH
	DB	01cH
	DB	01cH
	DB	01cH
	DB	08H
	DB	088H
	DB	089H
	DB	0e6H
	DB	03H
	DB	03H
	DB	03H
	DB	035H
	DB	031H
	DB	024H
	DB	024H
	DB	024H
	DB	024H
	DB	024H
	DB	024H
	DB	024H
	DB	024H
	DB	024H
	DB	024H
	DB	024H
	DB	024H
	DB	024H
	DB	024H
	DB	046H
	DB	01aH
	DB	040H
	DB	011H
	DB	011H
	DB	06bH
	DB	0f6H
	DB	071H
	DB	0eH
	DB	014H
	DB	0b2H
	DB	089H
	DB	029H
	DB	03H
	DB	03H
	DB	03H
	DB	03H
	DB	01eH
	DB	0bbH
	DB	011H
	DB	01aH
	DB	024H
	DB	024H
	DB	024H
	DB	024H
	DB	024H
	DB	024H
	DB	024H
	DB	024H
	DB	024H
	DB	024H
	DB	024H
	DB	024H
	DB	024H
	DB	024H
	DB	024H
	DB	024H
	DB	05cH
	DB	01cH
	DB	01cH
	DB	0bH
	DB	04H
	DB	065H
	DB	0f4H
	DB	022H
	DB	03H
	DB	03H
	DB	03H
	DB	0c8H
	DB	080H
	DB	07aH
	DB	0a8H
	DB	08H
	DB	08H
	DB	08H
	DB	08H
	DB	08H
	DB	08H
	DB	08H
	DB	01cH
	DB	078H
	DB	017H
	DB	017H
	DB	0dcH
	DB	055H
	DB	055H
	DB	055H
	DB	055H
	DB	055H
	DB	055H
	DB	054H
	DB	060H
	DB	06dH
	DB	0afH
	DB	07fH
	DB	0a3H
	DB	03H
	DB	03H
	DB	03H
	DB	0f9H
	DB	0b4H
	DB	0eH
	DB	036H
	DB	032H
	DB	06H
	DB	032H
	DB	017H
	DB	017H
	DB	017H
	DB	049H
	DB	08H
	DB	08H
	DB	08H
	DB	08H
	DB	08H
	DB	08H
	DB	01cH
	DB	04dH
	DB	06aH
	DB	049H
	DB	01cH
	DB	01cH
	DB	01cH
	DB	049H
	DB	024H
	DB	017H
	DB	017H
	DB	017H
	DB	017H
	DB	017H
	DB	017H
	DB	017H
	DB	017H
	DB	017H
	DB	017H
	DB	017H
	DB	017H
	DB	01dH
	DB	00H
	DB	00H
	DB	00H
	DB	00H
	DB	00H
	DB	00H
	DB	00H
	DB	00H
	DB	00H
	DB	00H
	DB	00H
	DB	00H
	DB	00H
	DB	011H
	DB	082H
	DB	017H
	DB	017H
	DB	017H
	DB	017H
	DB	017H
	DB	017H
	DB	017H
	DB	017H
	DB	017H
	DB	017H
	DB	0cbH
	DB	01cH
	DB	01cH
	DB	01cH
	DB	01cH
	DB	01cH
	DB	01cH
	DB	01cH
	DB	01cH
	DB	01cH
	DB	01cH
	DB	08H
	DB	08H
	DB	0e4H
	DB	028H
	DB	0a3H
	DB	03H
	DB	03H
	DB	03H
	DB	0b2H
	DB	01bH
	DB	024H
	DB	024H
	DB	024H
	DB	024H
	DB	024H
	DB	024H
	DB	024H
	DB	024H
	DB	024H
	DB	024H
	DB	024H
	DB	024H
	DB	024H
	DB	024H
	DB	024H
	DB	046H
	DB	01aH
	DB	01aH
	DB	040H
	DB	01bH
	DB	016H
	DB	035H
	DB	0c3H
	DB	0c3H
	DB	0eH
	DB	0e8H
	DB	08dH
	DB	0c3H
	DB	03H
	DB	03H
	DB	03H
	DB	03H
	DB	03H
	DB	0eH
	DB	016H
	DB	011H
	DB	024H
	DB	024H
	DB	024H
	DB	024H
	DB	024H
	DB	024H
	DB	024H
	DB	024H
	DB	024H
	DB	024H
	DB	024H
	DB	024H
	DB	024H
	DB	024H
	DB	024H
	DB	08H
	DB	01cH
	DB	08H
	DB	08H
	DB	0bH
	DB	05H
	DB	04H
	DB	040H
	DB	0c3H
	DB	03H
	DB	03H
	DB	03H
	DB	09aH
	DB	035H
	DB	0d3H
	DB	08H
	DB	08H
	DB	08H
	DB	08H
	DB	08H
	DB	08H
	DB	08H
	DB	05cH
	DB	032H
	DB	017H
	DB	072H
	DB	098H
	DB	060H
	DB	055H
	DB	055H
	DB	055H
	DB	055H
	DB	055H
	DB	055H
	DB	055H
	DB	055H
	DB	0dbH
	DB	032H
	DB	0c6H
	DB	03H
	DB	03H
	DB	0c6H
	DB	028H
	DB	034H
	DB	071H
	DB	06bH
	DB	08bH
	DB	094H
	DB	049H
	DB	049H
	DB	049H
	DB	05cH
	DB	08H
	DB	08H
	DB	08H
	DB	08H
	DB	08H
	DB	08H
	DB	08H
	DB	08H
	DB	04dH
	DB	06aH
	DB	05cH
	DB	01cH
	DB	01cH
	DB	01cH
	DB	05cH
	DB	024H
	DB	017H
	DB	017H
	DB	017H
	DB	017H
	DB	017H
	DB	017H
	DB	017H
	DB	017H
	DB	017H
	DB	017H
	DB	017H
	DB	017H
	DB	01dH
	DB	00H
	DB	00H
	DB	00H
	DB	00H
	DB	00H
	DB	00H
	DB	00H
	DB	00H
	DB	00H
	DB	00H
	DB	00H
	DB	00H
	DB	00H
	DB	011H
	DB	082H
	DB	032H
	DB	017H
	DB	017H
	DB	017H
	DB	017H
	DB	017H
	DB	017H
	DB	017H
	DB	017H
	DB	032H
	DB	08H
	DB	08H
	DB	08H
	DB	08H
	DB	08H
	DB	08H
	DB	08H
	DB	08H
	DB	08H
	DB	08H
	DB	08H
	DB	08H
	DB	08H
	DB	06cH
	DB	020H
	DB	0eH
	DB	03H
	DB	03H
	DB	01eH
	DB	027H
	DB	01aH
	DB	046H
	DB	046H
	DB	046H
	DB	046H
	DB	046H
	DB	046H
	DB	046H
	DB	046H
	DB	046H
	DB	046H
	DB	046H
	DB	046H
	DB	046H
	DB	046H
	DB	046H
	DB	046H
	DB	046H
	DB	01aH
	DB	01aH
	DB	040H
	DB	01bH
	DB	011H
	DB	020H
	DB	034H
	DB	0c3H
	DB	0eH
	DB	036H
	DB	020H
	DB	0b9H
	DB	0c6H
	DB	03H
	DB	03H
	DB	03H
	DB	03H
	DB	0c6H
	DB	0baH
	DB	01bH
	DB	0bH
	DB	05cH
	DB	05cH
	DB	05cH
	DB	05cH
	DB	05cH
	DB	05cH
	DB	05cH
	DB	05cH
	DB	049H
	DB	024H
	DB	046H
	DB	046H
	DB	024H
	DB	05cH
	DB	08H
	DB	08H
	DB	08H
	DB	08H
	DB	0bH
	DB	05H
	DB	04H
	DB	0a3H
	DB	03H
	DB	03H
	DB	0c8H
	DB	028H
	DB	0a2H
	DB	09cH
	DB	08H
	DB	08H
	DB	08H
	DB	08H
	DB	08H
	DB	08H
	DB	08H
	DB	05cH
	DB	032H
	DB	017H
	DB	072H
	DB	0acH
	DB	060H
	DB	054H
	DB	054H
	DB	054H
	DB	054H
	DB	054H
	DB	054H
	DB	054H
	DB	055H
	DB	042H
	DB	0e7H
	DB	03H
	DB	03H
	DB	03H
	DB	0f4H
	DB	020H
	DB	0c4H
	DB	0e9H
	DB	040H
	DB	0bH
	DB	08H
	DB	08H
	DB	08H
	DB	08H
	DB	08H
	DB	08H
	DB	08H
	DB	08H
	DB	08H
	DB	08H
	DB	08H
	DB	08H
	DB	08H
	DB	04dH
	DB	06aH
	DB	05cH
	DB	01cH
	DB	08H
	DB	08H
	DB	08H
	DB	032H
	DB	017H
	DB	017H
	DB	017H
	DB	017H
	DB	017H
	DB	017H
	DB	017H
	DB	017H
	DB	017H
	DB	017H
	DB	017H
	DB	032H
	DB	01dH
	DB	00H
	DB	00H
	DB	00H
	DB	00H
	DB	00H
	DB	00H
	DB	00H
	DB	00H
	DB	00H
	DB	00H
	DB	00H
	DB	00H
	DB	00H
	DB	011H
	DB	082H
	DB	032H
	DB	032H
	DB	032H
	DB	032H
	DB	032H
	DB	032H
	DB	032H
	DB	032H
	DB	032H
	DB	078H
	DB	08H
	DB	08H
	DB	08H
	DB	08H
	DB	08H
	DB	08H
	DB	08H
	DB	08H
	DB	08H
	DB	08H
	DB	08H
	DB	08H
	DB	05cH
	DB	07eH
	DB	0b4H
	DB	022H
	DB	03H
	DB	03H
	DB	0fdH
	DB	011H
	DB	01aH
	DB	046H
	DB	046H
	DB	046H
	DB	046H
	DB	046H
	DB	046H
	DB	046H
	DB	046H
	DB	046H
	DB	046H
	DB	046H
	DB	046H
	DB	046H
	DB	046H
	DB	046H
	DB	046H
	DB	046H
	DB	046H
	DB	01aH
	DB	01aH
	DB	040H
	DB	011H
	DB	01bH
	DB	024H
	DB	035H
	DB	0c3H
	DB	0eH
	DB	0c3H
	DB	089H
	DB	09aH
	DB	0c3H
	DB	03H
	DB	03H
	DB	03H
	DB	03H
	DB	03H
	DB	0eH
	DB	078H
	DB	05H
	DB	08H
	DB	08H
	DB	08H
	DB	08H
	DB	08H
	DB	08H
	DB	08H
	DB	08H
	DB	08H
	DB	08H
	DB	08H
	DB	094H
	DB	08H
	DB	08H
	DB	08H
	DB	08H
	DB	08H
	DB	08H
	DB	0bH
	DB	04H
	DB	0c4H
	DB	03H
	DB	03H
	DB	029H
	DB	010H
	DB	071H
	DB	09cH
	DB	0bH
	DB	08H
	DB	08H
	DB	08H
	DB	08H
	DB	08H
	DB	08H
	DB	08H
	DB	078H
	DB	032H
	DB	072H
	DB	06aH
	DB	054H
	DB	054H
	DB	054H
	DB	054H
	DB	054H
	DB	054H
	DB	054H
	DB	054H
	DB	060H
	DB	04eH
	DB	0faH
	DB	03H
	DB	03H
	DB	01eH
	DB	02eH
	DB	0f8H
	DB	014H
	DB	02eH
	DB	05H
	DB	0bH
	DB	08H
	DB	08H
	DB	08H
	DB	08H
	DB	08H
	DB	08H
	DB	08H
	DB	08H
	DB	08H
	DB	08H
	DB	08H
	DB	08H
	DB	08H
	DB	04dH
	DB	024H
	DB	05cH
	DB	08H
	DB	08H
	DB	08H
	DB	046H
	DB	032H
	DB	032H
	DB	032H
	DB	032H
	DB	032H
	DB	032H
	DB	032H
	DB	032H
	DB	032H
	DB	032H
	DB	032H
	DB	032H
	DB	032H
	DB	01dH
	DB	00H
	DB	00H
	DB	00H
	DB	00H
	DB	00H
	DB	00H
	DB	00H
	DB	00H
	DB	00H
	DB	00H
	DB	00H
	DB	00H
	DB	00H
	DB	011H
	DB	082H
	DB	032H
	DB	032H
	DB	032H
	DB	032H
	DB	032H
	DB	032H
	DB	032H
	DB	032H
	DB	032H
	DB	032H
	DB	08H
	DB	08H
	DB	08H
	DB	08H
	DB	08H
	DB	08H
	DB	08H
	DB	08H
	DB	08H
	DB	08H
	DB	08H
	DB	08H
	DB	081H
	DB	02bH
	DB	027H
	DB	01eH
	DB	03H
	DB	03H
	DB	021H
	DB	031H
	DB	01aH
	DB	01aH
	DB	01aH
	DB	01aH
	DB	01aH
	DB	01aH
	DB	01aH
	DB	046H
	DB	046H
	DB	046H
	DB	046H
	DB	046H
	DB	046H
	DB	046H
	DB	01aH
	DB	01aH
	DB	046H
	DB	046H
	DB	046H
	DB	01aH
	DB	01aH
	DB	01aH
	DB	040H
	DB	040H
	DB	01bH
	DB	011H
	DB	020H
	DB	0f9H
	DB	0c3H
	DB	0eH
	DB	0f6H
	DB	02eH
	DB	09fH
	DB	01eH
	DB	03H
	DB	03H
	DB	03H
	DB	03H
	DB	0a5H
	DB	030H
	DB	05H
	DB	0bH
	DB	08H
	DB	08H
	DB	08H
	DB	08H
	DB	08H
	DB	08H
	DB	08H
	DB	08H
	DB	08H
	DB	08H
	DB	08H
	DB	08H
	DB	08H
	DB	08H
	DB	08H
	DB	08H
	DB	0bH
	DB	01aH
	DB	0c6H
	DB	03H
	DB	03H
	DB	0c4H
	DB	028H
	DB	0eH
	DB	088H
	DB	0bH
	DB	02dH
	DB	02dH
	DB	02dH
	DB	02dH
	DB	02dH
	DB	02dH
	DB	02dH
	DB	078H
	DB	032H
	DB	072H
	DB	0d6H
	DB	054H
	DB	051H
	DB	051H
	DB	051H
	DB	051H
	DB	051H
	DB	051H
	DB	054H
	DB	043H
	DB	095H
	DB	029H
	DB	03H
	DB	03H
	DB	0c4H
	DB	010H
	DB	0eH
	DB	02bH
	DB	05H
	DB	0bH
	DB	0bH
	DB	08H
	DB	08H
	DB	08H
	DB	08H
	DB	08H
	DB	08H
	DB	08H
	DB	08H
	DB	08H
	DB	08H
	DB	08H
	DB	08H
	DB	08H
	DB	04dH
	DB	016H
	DB	046H
	DB	046H
	DB	046H
	DB	046H
	DB	046H
	DB	032H
	DB	032H
	DB	032H
	DB	032H
	DB	032H
	DB	032H
	DB	032H
	DB	032H
	DB	032H
	DB	032H
	DB	032H
	DB	032H
	DB	032H
	DB	013H
	DB	00H
	DB	00H
	DB	00H
	DB	00H
	DB	00H
	DB	00H
	DB	00H
	DB	00H
	DB	00H
	DB	00H
	DB	00H
	DB	00H
	DB	00H
	DB	011H
	DB	012H
	DB	01fH
	DB	032H
	DB	032H
	DB	032H
	DB	032H
	DB	032H
	DB	032H
	DB	032H
	DB	032H
	DB	032H
	DB	094H
	DB	02dH
	DB	02dH
	DB	02dH
	DB	02dH
	DB	08H
	DB	08H
	DB	08H
	DB	08H
	DB	08H
	DB	08H
	DB	0bH
	DB	07aH
	DB	0e7H
	DB	020H
	DB	03H
	DB	03H
	DB	03H
	DB	014H
	DB	04H
	DB	01aH
	DB	01aH
	DB	01aH
	DB	01aH
	DB	01aH
	DB	01aH
	DB	01aH
	DB	01aH
	DB	01aH
	DB	01aH
	DB	01aH
	DB	01aH
	DB	01aH
	DB	01aH
	DB	01aH
	DB	01aH
	DB	01aH
	DB	01aH
	DB	01aH
	DB	01aH
	DB	01aH
	DB	01aH
	DB	01aH
	DB	01aH
	DB	040H
	DB	01bH
	DB	01bH
	DB	027H
	DB	02bH
	DB	0c3H
	DB	0eH
	DB	0eH
	DB	030H
	DB	08dH
	DB	0c4H
	DB	03H
	DB	03H
	DB	03H
	DB	03H
	DB	03H
	DB	071H
	DB	01aH
	DB	0bH
	DB	08H
	DB	08H
	DB	08H
	DB	08H
	DB	08H
	DB	08H
	DB	08H
	DB	08H
	DB	08H
	DB	08H
	DB	08H
	DB	08H
	DB	08H
	DB	08H
	DB	08H
	DB	0bH
	DB	06bH
	DB	0c8H
	DB	03H
	DB	03H
	DB	036H
	DB	0b0H
	DB	071H
	DB	07aH
	DB	0bH
	DB	02dH
	DB	0a7H
	DB	0a7H
	DB	0a7H
	DB	0a7H
	DB	0a7H
	DB	0a7H
	DB	01aH
	DB	01fH
	DB	016H
	DB	051H
	DB	051H
	DB	051H
	DB	051H
	DB	051H
	DB	051H
	DB	051H
	DB	051H
	DB	051H
	DB	068H
	DB	032H
	DB	0c8H
	DB	03H
	DB	03H
	DB	014H
	DB	089H
	DB	071H
	DB	087H
	DB	05H
	DB	0bH
	DB	08H
	DB	08H
	DB	08H
	DB	08H
	DB	08H
	DB	08H
	DB	08H
	DB	08H
	DB	08H
	DB	08H
	DB	08H
	DB	08H
	DB	08H
	DB	08H
	DB	04dH
	DB	01aH
	DB	01aH
	DB	01aH
	DB	01aH
	DB	01aH
	DB	01aH
	DB	01fH
	DB	01fH
	DB	01fH
	DB	032H
	DB	032H
	DB	032H
	DB	032H
	DB	032H
	DB	032H
	DB	032H
	DB	032H
	DB	032H
	DB	01fH
	DB	013H
	DB	00H
	DB	00H
	DB	00H
	DB	00H
	DB	00H
	DB	00H
	DB	00H
	DB	00H
	DB	00H
	DB	00H
	DB	00H
	DB	00H
	DB	00H
	DB	011H
	DB	012H
	DB	01fH
	DB	01fH
	DB	01fH
	DB	01fH
	DB	01fH
	DB	01fH
	DB	01fH
	DB	01fH
	DB	01fH
	DB	01fH
	DB	06aH
	DB	041H
	DB	041H
	DB	041H
	DB	041H
	DB	043H
	DB	043H
	DB	08fH
	DB	08fH
	DB	08fH
	DB	08fH
	DB	03bH
	DB	088H
	DB	02bH
	DB	035H
	DB	03H
	DB	03H
	DB	03H
	DB	02bH
	DB	05H
	DB	02dH
	DB	02dH
	DB	02dH
	DB	02dH
	DB	02dH
	DB	02dH
	DB	02dH
	DB	08H
	DB	08H
	DB	08H
	DB	08H
	DB	08H
	DB	08H
	DB	08H
	DB	08H
	DB	04dH
	DB	01aH
	DB	01aH
	DB	01aH
	DB	01aH
	DB	01aH
	DB	01aH
	DB	01aH
	DB	01aH
	DB	01aH
	DB	040H
	DB	011H
	DB	01bH
	DB	011H
	DB	0b3H
	DB	0f9H
	DB	0c3H
	DB	0eH
	DB	0e6H
	DB	02eH
	DB	0e7H
	DB	0c8H
	DB	03H
	DB	03H
	DB	03H
	DB	03H
	DB	029H
	DB	09aH
	DB	05H
	DB	08H
	DB	08H
	DB	08H
	DB	08H
	DB	08H
	DB	08H
	DB	08H
	DB	08H
	DB	08H
	DB	08H
	DB	08H
	DB	08H
	DB	08H
	DB	08H
	DB	05H
	DB	035H
	DB	03H
	DB	03H
	DB	03H
	DB	030H
	DB	036H
	DB	0f9H
	DB	049H
	DB	0bH
	DB	02dH
	DB	0a7H
	DB	039H
	DB	039H
	DB	039H
	DB	039H
	DB	0a7H
	DB	039H
	DB	078H
	DB	083H
	DB	051H
	DB	041H
	DB	041H
	DB	041H
	DB	041H
	DB	041H
	DB	041H
	DB	041H
	DB	0abH
	DB	01dH
	DB	0c2H
	DB	03H
	DB	03H
	DB	03H
	DB	0e8H
	DB	089H
	DB	014H
	DB	046H
	DB	05H
	DB	02dH
	DB	02dH
	DB	02dH
	DB	02dH
	DB	02dH
	DB	02dH
	DB	02dH
	DB	02dH
	DB	02dH
	DB	02dH
	DB	02dH
	DB	08H
	DB	08H
	DB	08H
	DB	0bH
	DB	02dH
	DB	02dH
	DB	02dH
	DB	02dH
	DB	039H
	DB	01aH
	DB	01aH
	DB	01aH
	DB	01aH
	DB	01fH
	DB	01fH
	DB	01fH
	DB	01fH
	DB	01fH
	DB	01fH
	DB	01fH
	DB	01fH
	DB	01fH
	DB	01fH
	DB	01fH
	DB	013H
	DB	00H
	DB	00H
	DB	00H
	DB	00H
	DB	00H
	DB	00H
	DB	00H
	DB	00H
	DB	00H
	DB	00H
	DB	00H
	DB	00H
	DB	00H
	DB	011H
	DB	012H
	DB	01fH
	DB	01fH
	DB	01fH
	DB	01fH
	DB	01fH
	DB	01fH
	DB	01fH
	DB	01fH
	DB	01fH
	DB	01fH
	DB	06aH
	DB	041H
	DB	041H
	DB	041H
	DB	041H
	DB	041H
	DB	041H
	DB	041H
	DB	051H
	DB	051H
	DB	051H
	DB	0aaH
	DB	0e4H
	DB	027H
	DB	0f9H
	DB	03H
	DB	03H
	DB	03H
	DB	0b4H
	DB	04H
	DB	02dH
	DB	02dH
	DB	02dH
	DB	02dH
	DB	02dH
	DB	02dH
	DB	02dH
	DB	08H
	DB	08H
	DB	08H
	DB	08H
	DB	08H
	DB	08H
	DB	08H
	DB	08H
	DB	04dH
	DB	01aH
	DB	01aH
	DB	01aH
	DB	01aH
	DB	01aH
	DB	01aH
	DB	01aH
	DB	01aH
	DB	01aH
	DB	01aH
	DB	040H
	DB	040H
	DB	01bH
	DB	031H
	DB	027H
	DB	0e7H
	DB	0c3H
	DB	0eH
	DB	0c3H
	DB	028H
	DB	020H
	DB	021H
	DB	03H
	DB	03H
	DB	03H
	DB	03H
	DB	0c8H
	DB	0e6H
	DB	05H
	DB	08H
	DB	08H
	DB	08H
	DB	08H
	DB	08H
	DB	08H
	DB	08H
	DB	08H
	DB	08H
	DB	08H
	DB	08H
	DB	08H
	DB	08H
	DB	05H
	DB	0c2H
	DB	03H
	DB	03H
	DB	0c8H
	DB	02eH
	DB	0c1H
	DB	06cH
	DB	094H
	DB	0bH
	DB	039H
	DB	039H
	DB	039H
	DB	039H
	DB	039H
	DB	039H
	DB	039H
	DB	02dH
	DB	02dH
	DB	02dH
	DB	039H
	DB	039H
	DB	039H
	DB	039H
	DB	039H
	DB	039H
	DB	039H
	DB	039H
	DB	01bH
	DB	0a3H
	DB	03H
	DB	03H
	DB	03H
	DB	01eH
	DB	010H
	DB	0c1H
	DB	0c0H
	DB	04dH
	DB	05H
	DB	02dH
	DB	02dH
	DB	02dH
	DB	02dH
	DB	02dH
	DB	02dH
	DB	02dH
	DB	02dH
	DB	02dH
	DB	02dH
	DB	02dH
	DB	0bH
	DB	0bH
	DB	0bH
	DB	0bH
	DB	02dH
	DB	02dH
	DB	02dH
	DB	02dH
	DB	039H
	DB	01aH
	DB	01aH
	DB	01aH
	DB	01aH
	DB	01fH
	DB	01fH
	DB	01fH
	DB	01fH
	DB	01fH
	DB	01fH
	DB	01fH
	DB	01fH
	DB	01fH
	DB	01fH
	DB	01fH
	DB	013H
	DB	00H
	DB	00H
	DB	00H
	DB	00H
	DB	00H
	DB	00H
	DB	00H
	DB	00H
	DB	00H
	DB	00H
	DB	00H
	DB	00H
	DB	00H
	DB	011H
	DB	012H
	DB	06H
	DB	01fH
	DB	01fH
	DB	01fH
	DB	01fH
	DB	01fH
	DB	01fH
	DB	01fH
	DB	01fH
	DB	01fH
	DB	016H
	DB	041H
	DB	041H
	DB	041H
	DB	041H
	DB	041H
	DB	041H
	DB	041H
	DB	041H
	DB	041H
	DB	041H
	DB	0aaH
	DB	075H
	DB	027H
	DB	0c4H
	DB	03H
	DB	03H
	DB	0c8H
	DB	08dH
	DB	05H
	DB	02dH
	DB	02dH
	DB	02dH
	DB	02dH
	DB	02dH
	DB	02dH
	DB	02dH
	DB	0bH
	DB	0bH
	DB	0bH
	DB	0bH
	DB	0bH
	DB	0bH
	DB	0bH
	DB	08H
	DB	040H
	DB	01aH
	DB	01aH
	DB	01aH
	DB	01aH
	DB	01aH
	DB	01aH
	DB	01aH
	DB	01aH
	DB	01aH
	DB	01aH
	DB	040H
	DB	040H
	DB	040H
	DB	011H
	DB	031H
	DB	011H
	DB	010H
	DB	0f9H
	DB	0eH
	DB	0eH
	DB	03aH
	DB	016H
	DB	03aH
	DB	0c8H
	DB	03H
	DB	03H
	DB	03H
	DB	03H
	DB	010H
	DB	05H
	DB	08H
	DB	0bH
	DB	0bH
	DB	0bH
	DB	0bH
	DB	0bH
	DB	0bH
	DB	0bH
	DB	0bH
	DB	0bH
	DB	0bH
	DB	0bH
	DB	05H
	DB	0c4H
	DB	03H
	DB	03H
	DB	029H
	DB	0b2H
	DB	071H
	DB	074H
	DB	05H
	DB	039H
	DB	039H
	DB	039H
	DB	039H
	DB	039H
	DB	039H
	DB	039H
	DB	039H
	DB	02dH
	DB	02dH
	DB	02dH
	DB	02dH
	DB	02dH
	DB	02dH
	DB	02dH
	DB	02dH
	DB	02dH
	DB	02dH
	DB	01bH
	DB	0f4H
	DB	03H
	DB	03H
	DB	03H
	DB	03H
	DB	036H
	DB	089H
	DB	0eH
	DB	02bH
	DB	03dH
	DB	05H
	DB	02dH
	DB	02dH
	DB	02dH
	DB	02dH
	DB	02dH
	DB	02dH
	DB	02dH
	DB	02dH
	DB	02dH
	DB	02dH
	DB	02dH
	DB	02dH
	DB	0bH
	DB	0bH
	DB	0bH
	DB	03dH
	DB	03dH
	DB	02dH
	DB	02dH
	DB	01aH
	DB	01fH
	DB	06H
	DB	06H
	DB	06H
	DB	01fH
	DB	01fH
	DB	01fH
	DB	01fH
	DB	01fH
	DB	01fH
	DB	01fH
	DB	01fH
	DB	01fH
	DB	01fH
	DB	01fH
	DB	013H
	DB	00H
	DB	00H
	DB	00H
	DB	00H
	DB	00H
	DB	00H
	DB	00H
	DB	00H
	DB	00H
	DB	00H
	DB	00H
	DB	00H
	DB	00H
	DB	011H
	DB	012H
	DB	06H
	DB	06H
	DB	06H
	DB	06H
	DB	06H
	DB	06H
	DB	06H
	DB	06H
	DB	06H
	DB	06H
	DB	016H
	DB	043H
	DB	041H
	DB	041H
	DB	041H
	DB	041H
	DB	041H
	DB	041H
	DB	041H
	DB	041H
	DB	043H
	DB	083H
	DB	07eH
	DB	028H
	DB	0c5H
	DB	03H
	DB	03H
	DB	0fdH
	DB	01aH
	DB	0bH
	DB	02dH
	DB	02dH
	DB	02dH
	DB	02dH
	DB	02dH
	DB	02dH
	DB	02dH
	DB	0bH
	DB	0bH
	DB	0bH
	DB	0bH
	DB	0bH
	DB	0bH
	DB	0bH
	DB	0bH
	DB	0bH
	DB	094H
	DB	094H
	DB	094H
	DB	094H
	DB	079H
	DB	079H
	DB	079H
	DB	079H
	DB	079H
	DB	079H
	DB	079H
	DB	079H
	DB	079H
	DB	079H
	DB	03eH
	DB	01bH
	DB	0fH
	DB	09H
	DB	09fH
	DB	0c3H
	DB	0eH
	DB	0c3H
	DB	0b2H
	DB	028H
	DB	0c5H
	DB	03H
	DB	03H
	DB	03H
	DB	022H
	DB	08bH
	DB	0bH
	DB	0bH
	DB	0bH
	DB	0bH
	DB	0bH
	DB	0bH
	DB	0bH
	DB	0bH
	DB	0bH
	DB	0bH
	DB	0bH
	DB	0bH
	DB	08bH
	DB	0a4H
	DB	03H
	DB	03H
	DB	021H
	DB	089H
	DB	0eH
	DB	05fH
	DB	05H
	DB	039H
	DB	039H
	DB	039H
	DB	039H
	DB	039H
	DB	039H
	DB	039H
	DB	039H
	DB	02dH
	DB	02dH
	DB	02dH
	DB	02dH
	DB	02dH
	DB	02dH
	DB	02dH
	DB	02dH
	DB	03dH
	DB	04H
	DB	035H
	DB	03H
	DB	03H
	DB	03H
	DB	03H
	DB	0c1H
	DB	08dH
	DB	014H
	DB	0c3H
	DB	0e1H
	DB	05H
	DB	02dH
	DB	02dH
	DB	02dH
	DB	02dH
	DB	02dH
	DB	02dH
	DB	02dH
	DB	02dH
	DB	02dH
	DB	02dH
	DB	02dH
	DB	02dH
	DB	0bH
	DB	0bH
	DB	0bH
	DB	0bH
	DB	02dH
	DB	094H
	DB	0bH
	DB	094H
	DB	06H
	DB	06H
	DB	06H
	DB	06H
	DB	06H
	DB	06H
	DB	06H
	DB	06H
	DB	06H
	DB	06H
	DB	06H
	DB	06H
	DB	06H
	DB	06H
	DB	06H
	DB	06H
	DB	07H
	DB	00H
	DB	00H
	DB	00H
	DB	00H
	DB	00H
	DB	00H
	DB	00H
	DB	00H
	DB	00H
	DB	00H
	DB	00H
	DB	00H
	DB	00H
	DB	011H
	DB	012H
	DB	06H
	DB	06H
	DB	06H
	DB	06H
	DB	06H
	DB	06H
	DB	06H
	DB	06H
	DB	06H
	DB	06H
	DB	0c9H
	DB	041H
	DB	043H
	DB	043H
	DB	043H
	DB	043H
	DB	043H
	DB	043H
	DB	043H
	DB	043H
	DB	043H
	DB	084H
	DB	034H
	DB	010H
	DB	0c6H
	DB	03H
	DB	03H
	DB	021H
	DB	01bH
	DB	02dH
	DB	02dH
	DB	02dH
	DB	02dH
	DB	02dH
	DB	02dH
	DB	02dH
	DB	02dH
	DB	0bH
	DB	0bH
	DB	0bH
	DB	0bH
	DB	0bH
	DB	0bH
	DB	0bH
	DB	0bH
	DB	0bH
	DB	0bH
	DB	0bH
	DB	0bH
	DB	0bH
	DB	079H
	DB	0aaH
	DB	03bH
	DB	03bH
	DB	03bH
	DB	03bH
	DB	03bH
	DB	03bH
	DB	03bH
	DB	03bH
	DB	03bH
	DB	03bH
	DB	03eH
	DB	0fH
	DB	03eH
	DB	03cH
	DB	014H
	DB	0eH
	DB	0c4H
	DB	020H
	DB	027H
	DB	01eH
	DB	03H
	DB	03H
	DB	0c8H
	DB	016H
	DB	05H
	DB	0bH
	DB	0bH
	DB	0bH
	DB	0bH
	DB	0bH
	DB	0bH
	DB	0bH
	DB	0bH
	DB	0bH
	DB	0bH
	DB	0bH
	DB	01aH
	DB	0fdH
	DB	03H
	DB	03H
	DB	0eH
	DB	010H
	DB	0c3H
	DB	015H
	DB	01bH
	DB	039H
	DB	039H
	DB	039H
	DB	039H
	DB	039H
	DB	039H
	DB	039H
	DB	039H
	DB	03dH
	DB	02dH
	DB	02dH
	DB	02dH
	DB	02dH
	DB	02dH
	DB	02dH
	DB	02dH
	DB	04H
	DB	028H
	DB	0c8H
	DB	03H
	DB	03H
	DB	03H
	DB	014H
	DB	028H
	DB	0c2H
	DB	0eH
	DB	091H
	DB	03dH
	DB	05H
	DB	02dH
	DB	02dH
	DB	02dH
	DB	02dH
	DB	02dH
	DB	02dH
	DB	02dH
	DB	02dH
	DB	02dH
	DB	02dH
	DB	02dH
	DB	02dH
	DB	0bH
	DB	0bH
	DB	0bH
	DB	0bH
	DB	0bH
	DB	094H
	DB	08bH
	DB	06H
	DB	06H
	DB	06H
	DB	06H
	DB	06H
	DB	06H
	DB	06H
	DB	06H
	DB	06H
	DB	06H
	DB	06H
	DB	06H
	DB	06H
	DB	06H
	DB	06H
	DB	06H
	DB	06H
	DB	07H
	DB	00H
	DB	00H
	DB	00H
	DB	00H
	DB	00H
	DB	00H
	DB	00H
	DB	00H
	DB	00H
	DB	00H
	DB	00H
	DB	00H
	DB	00H
	DB	011H
	DB	02cH
	DB	06H
	DB	06H
	DB	06H
	DB	06H
	DB	06H
	DB	06H
	DB	06H
	DB	06H
	DB	06H
	DB	06H
	DB	0abH
	DB	043H
	DB	043H
	DB	043H
	DB	043H
	DB	043H
	DB	043H
	DB	043H
	DB	043H
	DB	043H
	DB	042H
	DB	0e0H
	DB	091H
	DB	0b4H
	DB	03H
	DB	03H
	DB	03H
	DB	014H
	DB	04H
	DB	02dH
	DB	02dH
	DB	02dH
	DB	02dH
	DB	02dH
	DB	02dH
	DB	02dH
	DB	02dH
	DB	0bH
	DB	0bH
	DB	0bH
	DB	0bH
	DB	0bH
	DB	0bH
	DB	0bH
	DB	0bH
	DB	0bH
	DB	0bH
	DB	0bH
	DB	0bH
	DB	0bH
	DB	079H
	DB	03bH
	DB	03bH
	DB	03bH
	DB	03bH
	DB	03bH
	DB	03bH
	DB	03bH
	DB	03bH
	DB	03bH
	DB	03bH
	DB	03bH
	DB	03eH
	DB	03eH
	DB	0fH
	DB	0fH
	DB	08eH
	DB	0bdH
	DB	0e8H
	DB	0b4H
	DB	0f6H
	DB	0c8H
	DB	03H
	DB	03H
	DB	01eH
	DB	016H
	DB	05H
	DB	0bH
	DB	0bH
	DB	0bH
	DB	0bH
	DB	0bH
	DB	0bH
	DB	0bH
	DB	0bH
	DB	040H
	DB	040H
	DB	01bH
	DB	016H
	DB	0c6H
	DB	03H
	DB	03H
	DB	014H
	DB	0e3H
	DB	014H
	DB	024H
	DB	01bH
	DB	03dH
	DB	039H
	DB	039H
	DB	039H
	DB	039H
	DB	039H
	DB	039H
	DB	039H
	DB	03dH
	DB	02dH
	DB	02dH
	DB	02dH
	DB	02dH
	DB	02dH
	DB	02dH
	DB	05H
	DB	01bH
	DB	021H
	DB	03H
	DB	03H
	DB	03H
	DB	0c3H
	DB	089H
	DB	0c3H
	DB	0eH
	DB	0e5H
	DB	08bH
	DB	04H
	DB	05H
	DB	02dH
	DB	02dH
	DB	02dH
	DB	02dH
	DB	02dH
	DB	02dH
	DB	02dH
	DB	02dH
	DB	02dH
	DB	02dH
	DB	02dH
	DB	02dH
	DB	0bH
	DB	0bH
	DB	094H
	DB	06H
	DB	07fH
	DB	06H
	DB	06H
	DB	06H
	DB	06H
	DB	06H
	DB	06H
	DB	06H
	DB	06H
	DB	06H
	DB	06H
	DB	06H
	DB	06H
	DB	06H
	DB	06H
	DB	06H
	DB	06H
	DB	06H
	DB	06H
	DB	06H
	DB	07H
	DB	00H
	DB	00H
	DB	00H
	DB	00H
	DB	00H
	DB	00H
	DB	00H
	DB	00H
	DB	00H
	DB	00H
	DB	00H
	DB	00H
	DB	00H
	DB	011H
	DB	02cH
	DB	01dH
	DB	06H
	DB	06H
	DB	06H
	DB	06H
	DB	06H
	DB	06H
	DB	06H
	DB	06H
	DB	06H
	DB	095H
	DB	043H
	DB	043H
	DB	043H
	DB	043H
	DB	043H
	DB	043H
	DB	043H
	DB	043H
	DB	043H
	DB	042H
	DB	0b5H
	DB	089H
	DB	0b9H
	DB	03H
	DB	03H
	DB	03H
	DB	02bH
	DB	04H
	DB	05H
	DB	05H
	DB	05H
	DB	05H
	DB	05H
	DB	05H
	DB	05H
	DB	05H
	DB	0bH
	DB	0bH
	DB	0bH
	DB	0bH
	DB	0bH
	DB	0bH
	DB	0bH
	DB	0bH
	DB	0bH
	DB	0bH
	DB	0bH
	DB	0bH
	DB	0bH
	DB	079H
	DB	03bH
	DB	03bH
	DB	03bH
	DB	03bH
	DB	03bH
	DB	03bH
	DB	03bH
	DB	03bH
	DB	03bH
	DB	03bH
	DB	03bH
	DB	03bH
	DB	03bH
	DB	03eH
	DB	026H
	DB	019H
	DB	095H
	DB	030H
	DB	022H
	DB	03H
	DB	03H
	DB	03H
	DB	03H
	DB	0eH
	DB	04H
	DB	0bH
	DB	0bH
	DB	0bH
	DB	0bH
	DB	0bH
	DB	0bH
	DB	0bH
	DB	0bH
	DB	0bH
	DB	05H
	DB	040H
	DB	01bH
	DB	027H
	DB	01eH
	DB	03H
	DB	03H
	DB	0c2H
	DB	0e3H
	DB	0c2H
	DB	01aH
	DB	01bH
	DB	03dH
	DB	03dH
	DB	03dH
	DB	03dH
	DB	03dH
	DB	03dH
	DB	03dH
	DB	03dH
	DB	03dH
	DB	05H
	DB	05H
	DB	05H
	DB	05H
	DB	05H
	DB	02dH
	DB	05H
	DB	02eH
	DB	0c8H
	DB	03H
	DB	03H
	DB	0fcH
	DB	020H
	DB	0c3H
	DB	0c3H
	DB	0e5H
	DB	01bH
	DB	04H
	DB	05H
	DB	05H
	DB	05H
	DB	05H
	DB	02dH
	DB	02dH
	DB	02dH
	DB	05H
	DB	05H
	DB	05H
	DB	05H
	DB	05H
	DB	02dH
	DB	02dH
	DB	0bH
	DB	0bH
	DB	094H
	DB	06H
	DB	06H
	DB	06H
	DB	06H
	DB	06H
	DB	06H
	DB	06H
	DB	06H
	DB	06H
	DB	06H
	DB	06H
	DB	06H
	DB	06H
	DB	06H
	DB	06H
	DB	06H
	DB	06H
	DB	06H
	DB	06H
	DB	06H
	DB	06H
	DB	07H
	DB	00H
	DB	00H
	DB	00H
	DB	00H
	DB	00H
	DB	00H
	DB	00H
	DB	00H
	DB	00H
	DB	00H
	DB	00H
	DB	00H
	DB	00H
	DB	011H
	DB	025H
	DB	01dH
	DB	06H
	DB	06H
	DB	06H
	DB	06H
	DB	06H
	DB	06H
	DB	06H
	DB	06H
	DB	06H
	DB	07fH
	DB	0c9H
	DB	043H
	DB	043H
	DB	043H
	DB	043H
	DB	043H
	DB	043H
	DB	043H
	DB	042H
	DB	042H
	DB	0bcH
	DB	030H
	DB	0a3H
	DB	03H
	DB	03H
	DB	03H
	DB	020H
	DB	04H
	DB	05H
	DB	05H
	DB	05H
	DB	05H
	DB	05H
	DB	05H
	DB	05H
	DB	05H
	DB	0bH
	DB	0bH
	DB	0bH
	DB	0bH
	DB	0bH
	DB	0bH
	DB	0bH
	DB	0bH
	DB	0bH
	DB	0bH
	DB	0bH
	DB	0bH
	DB	0bH
	DB	03eH
	DB	03bH
	DB	03bH
	DB	03bH
	DB	03bH
	DB	03bH
	DB	03bH
	DB	03bH
	DB	03bH
	DB	03bH
	DB	03bH
	DB	03bH
	DB	03bH
	DB	03bH
	DB	026H
	DB	01bH
	DB	010H
	DB	022H
	DB	03H
	DB	03H
	DB	03H
	DB	03H
	DB	03H
	DB	0fdH
	DB	027H
	DB	04H
	DB	0bH
	DB	0bH
	DB	0bH
	DB	0bH
	DB	0bH
	DB	0bH
	DB	0bH
	DB	0bH
	DB	0bH
	DB	0bH
	DB	03dH
	DB	01bH
	DB	027H
	DB	01eH
	DB	03H
	DB	03H
	DB	0f9H
	DB	0e3H
	DB	0c1H
	DB	01aH
	DB	01bH
	DB	03dH
	DB	03dH
	DB	03dH
	DB	03dH
	DB	03dH
	DB	03dH
	DB	03dH
	DB	03dH
	DB	03dH
	DB	05H
	DB	05H
	DB	05H
	DB	05H
	DB	05H
	DB	05H
	DB	04H
	DB	035H
	DB	03H
	DB	03H
	DB	03H
	DB	0b9H
	DB	03aH
	DB	0eH
	DB	035H
	DB	01bH
	DB	04H
	DB	05H
	DB	05H
	DB	05H
	DB	05H
	DB	05H
	DB	05H
	DB	05H
	DB	05H
	DB	05H
	DB	05H
	DB	05H
	DB	05H
	DB	05H
	DB	05H
	DB	05H
	DB	05H
	DB	0bH
	DB	08bH
	DB	06H
	DB	06H
	DB	06H
	DB	06H
	DB	06H
	DB	06H
	DB	06H
	DB	06H
	DB	06H
	DB	06H
	DB	06H
	DB	06H
	DB	06H
	DB	06H
	DB	06H
	DB	06H
	DB	06H
	DB	06H
	DB	06H
	DB	06H
	DB	06H
	DB	07H
	DB	00H
	DB	00H
	DB	00H
	DB	00H
	DB	00H
	DB	00H
	DB	00H
	DB	00H
	DB	00H
	DB	00H
	DB	00H
	DB	00H
	DB	00H
	DB	011H
	DB	025H
	DB	01dH
	DB	01dH
	DB	01dH
	DB	01dH
	DB	01dH
	DB	01dH
	DB	01dH
	DB	01dH
	DB	01dH
	DB	01dH
	DB	07fH
	DB	095H
	DB	042H
	DB	042H
	DB	042H
	DB	042H
	DB	042H
	DB	042H
	DB	042H
	DB	042H
	DB	0abH
	DB	0beH
	DB	010H
	DB	0c4H
	DB	03H
	DB	03H
	DB	0c8H
	DB	027H
	DB	04H
	DB	05H
	DB	05H
	DB	05H
	DB	05H
	DB	05H
	DB	05H
	DB	05H
	DB	05H
	DB	05H
	DB	0bH
	DB	0bH
	DB	0bH
	DB	0bH
	DB	0bH
	DB	0bH
	DB	0bH
	DB	0bH
	DB	0bH
	DB	0bH
	DB	0bH
	DB	0bH
	DB	03eH
	DB	03bH
	DB	03bH
	DB	03bH
	DB	03bH
	DB	03bH
	DB	03bH
	DB	03bH
	DB	03bH
	DB	03bH
	DB	03bH
	DB	03bH
	DB	03eH
	DB	0fH
	DB	028H
	DB	021H
	DB	03H
	DB	03H
	DB	03H
	DB	03H
	DB	03H
	DB	03H
	DB	071H
	DB	016H
	DB	04H
	DB	05H
	DB	05H
	DB	05H
	DB	05H
	DB	05H
	DB	05H
	DB	05H
	DB	05H
	DB	05H
	DB	05H
	DB	05H
	DB	05H
	DB	01bH
	DB	016H
	DB	0c6H
	DB	03H
	DB	03H
	DB	014H
	DB	0e3H
	DB	034H
	DB	01aH
	DB	01bH
	DB	03dH
	DB	03dH
	DB	03dH
	DB	03dH
	DB	03dH
	DB	03dH
	DB	03dH
	DB	03dH
	DB	03dH
	DB	05H
	DB	05H
	DB	05H
	DB	05H
	DB	05H
	DB	05H
	DB	04H
	DB	0f4H
	DB	03H
	DB	03H
	DB	01eH
	DB	010H
	DB	014H
	DB	034H
	DB	01aH
	DB	04H
	DB	05H
	DB	05H
	DB	05H
	DB	0bH
	DB	05H
	DB	05H
	DB	05H
	DB	05H
	DB	0bH
	DB	040H
	DB	040H
	DB	040H
	DB	040H
	DB	03dH
	DB	0bH
	DB	05H
	DB	05H
	DB	05H
	DB	07fH
	DB	01dH
	DB	01dH
	DB	01dH
	DB	01dH
	DB	01dH
	DB	01dH
	DB	01dH
	DB	01dH
	DB	01dH
	DB	01dH
	DB	01dH
	DB	01dH
	DB	01dH
	DB	01dH
	DB	01dH
	DB	01dH
	DB	01dH
	DB	01dH
	DB	01dH
	DB	01dH
	DB	01dH
	DB	07H
	DB	00H
	DB	00H
	DB	00H
	DB	00H
	DB	00H
	DB	00H
	DB	00H
	DB	00H
	DB	00H
	DB	00H
	DB	00H
	DB	00H
	DB	00H
	DB	011H
	DB	025H
	DB	01dH
	DB	01dH
	DB	01dH
	DB	01dH
	DB	01dH
	DB	01dH
	DB	01dH
	DB	01dH
	DB	01dH
	DB	01dH
	DB	07fH
	DB	01dH
	DB	042H
	DB	042H
	DB	042H
	DB	042H
	DB	042H
	DB	042H
	DB	042H
	DB	04eH
	DB	083H
	DB	0beH
	DB	016H
	DB	0fdH
	DB	03H
	DB	03H
	DB	029H
	DB	040H
	DB	05H
	DB	05H
	DB	05H
	DB	05H
	DB	05H
	DB	05H
	DB	05H
	DB	05H
	DB	05H
	DB	05H
	DB	05H
	DB	05H
	DB	05H
	DB	05H
	DB	05H
	DB	05H
	DB	05H
	DB	05H
	DB	05H
	DB	05H
	DB	05H
	DB	05H
	DB	03eH
	DB	03bH
	DB	03eH
	DB	03eH
	DB	03eH
	DB	03eH
	DB	03eH
	DB	03eH
	DB	03eH
	DB	03bH
	DB	03eH
	DB	019H
	DB	027H
	DB	071H
	DB	0c8H
	DB	03H
	DB	03H
	DB	03H
	DB	03H
	DB	03H
	DB	0c4H
	DB	0b2H
	DB	031H
	DB	04H
	DB	05H
	DB	05H
	DB	05H
	DB	05H
	DB	05H
	DB	05H
	DB	05H
	DB	05H
	DB	05H
	DB	05H
	DB	05H
	DB	05H
	DB	05H
	DB	04H
	DB	095H
	DB	0fdH
	DB	03H
	DB	03H
	DB	0eH
	DB	089H
	DB	034H
	DB	01aH
	DB	01bH
	DB	03dH
	DB	03dH
	DB	03dH
	DB	03dH
	DB	03dH
	DB	03dH
	DB	03dH
	DB	03dH
	DB	03dH
	DB	05H
	DB	05H
	DB	05H
	DB	05H
	DB	05H
	DB	05H
	DB	04H
	DB	0a3H
	DB	03H
	DB	03H
	DB	0c6H
	DB	030H
	DB	071H
	DB	091H
	DB	04H
	DB	05H
	DB	05H
	DB	05H
	DB	05H
	DB	05H
	DB	05H
	DB	05H
	DB	05H
	DB	05H
	DB	05H
	DB	05H
	DB	011H
	DB	040H
	DB	011H
	DB	03dH
	DB	05H
	DB	05H
	DB	05H
	DB	08bH
	DB	01dH
	DB	01dH
	DB	01dH
	DB	01dH
	DB	01dH
	DB	01dH
	DB	01dH
	DB	01dH
	DB	01dH
	DB	01dH
	DB	01dH
	DB	01dH
	DB	01dH
	DB	01dH
	DB	01dH
	DB	01dH
	DB	01dH
	DB	01dH
	DB	01dH
	DB	01dH
	DB	01dH
	DB	01dH
	DB	07H
	DB	00H
	DB	00H
	DB	00H
	DB	00H
	DB	00H
	DB	00H
	DB	00H
	DB	00H
	DB	00H
	DB	00H
	DB	00H
	DB	00H
	DB	00H
	DB	011H
	DB	025H
	DB	0a6H
	DB	0aH
	DB	0a6H
	DB	01dH
	DB	01dH
	DB	01dH
	DB	01dH
	DB	01dH
	DB	01dH
	DB	01dH
	DB	07fH
	DB	01dH
	DB	04eH
	DB	042H
	DB	042H
	DB	042H
	DB	042H
	DB	042H
	DB	042H
	DB	04eH
	DB	0daH
	DB	0b9H
	DB	02eH
	DB	01eH
	DB	03H
	DB	03H
	DB	021H
	DB	04H
	DB	05H
	DB	05H
	DB	05H
	DB	05H
	DB	05H
	DB	05H
	DB	05H
	DB	05H
	DB	05H
	DB	05H
	DB	05H
	DB	05H
	DB	05H
	DB	05H
	DB	05H
	DB	05H
	DB	05H
	DB	05H
	DB	05H
	DB	05H
	DB	05H
	DB	05H
	DB	03eH
	DB	03eH
	DB	03eH
	DB	03eH
	DB	03eH
	DB	03eH
	DB	03eH
	DB	03eH
	DB	03eH
	DB	0fH
	DB	095H
	DB	03aH
	DB	01eH
	DB	03H
	DB	03H
	DB	03H
	DB	03H
	DB	03H
	DB	0c5H
	DB	0e3H
	DB	095H
	DB	01bH
	DB	04H
	DB	05H
	DB	05H
	DB	05H
	DB	05H
	DB	05H
	DB	05H
	DB	05H
	DB	05H
	DB	05H
	DB	05H
	DB	05H
	DB	05H
	DB	05H
	DB	05H
	DB	05H
	DB	011H
	DB	0fcH
	DB	03H
	DB	03H
	DB	022H
	DB	020H
	DB	036H
	DB	01aH
	DB	01bH
	DB	01bH
	DB	03dH
	DB	03dH
	DB	03dH
	DB	03dH
	DB	03dH
	DB	03dH
	DB	03dH
	DB	03dH
	DB	05H
	DB	05H
	DB	05H
	DB	05H
	DB	05H
	DB	05H
	DB	04H
	DB	0f4H
	DB	03H
	DB	03H
	DB	01eH
	DB	0b4H
	DB	014H
	DB	05fH
	DB	04H
	DB	05H
	DB	05H
	DB	05H
	DB	05H
	DB	05H
	DB	05H
	DB	05H
	DB	05H
	DB	05H
	DB	05H
	DB	05H
	DB	03dH
	DB	011H
	DB	011H
	DB	01bH
	DB	05H
	DB	05H
	DB	08bH
	DB	01dH
	DB	01dH
	DB	01dH
	DB	01dH
	DB	01dH
	DB	01dH
	DB	01dH
	DB	01dH
	DB	01dH
	DB	01dH
	DB	01dH
	DB	01dH
	DB	01dH
	DB	01dH
	DB	01dH
	DB	01dH
	DB	01dH
	DB	01dH
	DB	01dH
	DB	01dH
	DB	01dH
	DB	01dH
	DB	01dH
	DB	07H
	DB	00H
	DB	00H
	DB	00H
	DB	00H
	DB	00H
	DB	00H
	DB	00H
	DB	00H
	DB	00H
	DB	00H
	DB	00H
	DB	00H
	DB	00H
	DB	011H
	DB	01dH
	DB	05H
	DB	01cH
	DB	05H
	DB	0aH
	DB	01dH
	DB	013H
	DB	013H
	DB	013H
	DB	013H
	DB	013H
	DB	013H
	DB	013H
	DB	011H
	DB	04eH
	DB	04eH
	DB	042H
	DB	04eH
	DB	04eH
	DB	048H
	DB	048H
	DB	08cH
	DB	011H
	DB	0c3H
	DB	03H
	DB	03H
	DB	03H
	DB	034H
	DB	0cH
	DB	05H
	DB	05H
	DB	05H
	DB	05H
	DB	05H
	DB	05H
	DB	05H
	DB	05H
	DB	05H
	DB	05H
	DB	05H
	DB	05H
	DB	05H
	DB	05H
	DB	05H
	DB	05H
	DB	05H
	DB	05H
	DB	05H
	DB	05H
	DB	05H
	DB	05H
	DB	03eH
	DB	03eH
	DB	03eH
	DB	03eH
	DB	03eH
	DB	03eH
	DB	03eH
	DB	0fH
	DB	011H
	DB	035H
	DB	029H
	DB	03H
	DB	03H
	DB	03H
	DB	03H
	DB	03H
	DB	0c6H
	DB	0e8H
	DB	027H
	DB	016H
	DB	040H
	DB	04H
	DB	04H
	DB	05H
	DB	05H
	DB	05H
	DB	05H
	DB	05H
	DB	05H
	DB	05H
	DB	05H
	DB	05H
	DB	05H
	DB	05H
	DB	05H
	DB	05H
	DB	05H
	DB	05H
	DB	031H
	DB	071H
	DB	03H
	DB	03H
	DB	0c8H
	DB	0b2H
	DB	03aH
	DB	024H
	DB	01bH
	DB	011H
	DB	01bH
	DB	01bH
	DB	01bH
	DB	01bH
	DB	01bH
	DB	01bH
	DB	01bH
	DB	01bH
	DB	05H
	DB	05H
	DB	05H
	DB	05H
	DB	05H
	DB	05H
	DB	04H
	DB	0e8H
	DB	03H
	DB	03H
	DB	01eH
	DB	028H
	DB	0f9H
	DB	0e1H
	DB	04H
	DB	05H
	DB	05H
	DB	05H
	DB	05H
	DB	05H
	DB	05H
	DB	05H
	DB	05H
	DB	05H
	DB	05H
	DB	05H
	DB	05H
	DB	011H
	DB	01bH
	DB	01bH
	DB	05H
	DB	05H
	DB	013H
	DB	013H
	DB	013H
	DB	013H
	DB	013H
	DB	013H
	DB	013H
	DB	013H
	DB	013H
	DB	013H
	DB	013H
	DB	013H
	DB	013H
	DB	013H
	DB	013H
	DB	013H
	DB	013H
	DB	013H
	DB	013H
	DB	013H
	DB	013H
	DB	013H
	DB	013H
	DB	013H
	DB	0aH
	DB	00H
	DB	00H
	DB	00H
	DB	00H
	DB	00H
	DB	00H
	DB	00H
	DB	00H
	DB	00H
	DB	00H
	DB	00H
	DB	00H
	DB	00H
	DB	093H
	DB	0bH
	DB	04bH
	DB	02aH
	DB	04bH
	DB	08H
	DB	018H
	DB	0aH
	DB	0aH
	DB	0aH
	DB	0aH
	DB	0aH
	DB	0aH
	DB	0aH
	DB	0aH
	DB	0fH
	DB	048H
	DB	026H
	DB	068H
	DB	0adH
	DB	0b3H
	DB	0e3H
	DB	03aH
	DB	0fcH
	DB	03H
	DB	03H
	DB	03H
	DB	0c8H
	DB	06bH
	DB	0cH
	DB	05H
	DB	05H
	DB	05H
	DB	05H
	DB	05H
	DB	05H
	DB	05H
	DB	05H
	DB	05H
	DB	05H
	DB	05H
	DB	05H
	DB	05H
	DB	05H
	DB	05H
	DB	05H
	DB	05H
	DB	05H
	DB	05H
	DB	05H
	DB	05H
	DB	05H
	DB	03eH
	DB	03eH
	DB	03eH
	DB	03eH
	DB	03eH
	DB	0fH
	DB	0fH
	DB	010H
	DB	0fcH
	DB	03H
	DB	03H
	DB	03H
	DB	03H
	DB	03H
	DB	01eH
	DB	034H
	DB	016H
	DB	095H
	DB	040H
	DB	04H
	DB	04H
	DB	04H
	DB	05H
	DB	05H
	DB	05H
	DB	05H
	DB	05H
	DB	05H
	DB	05H
	DB	05H
	DB	05H
	DB	05H
	DB	05H
	DB	05H
	DB	05H
	DB	05H
	DB	05H
	DB	05H
	DB	033H
	DB	030H
	DB	03H
	DB	03H
	DB	03H
	DB	0c2H
	DB	010H
	DB	06bH
	DB	033H
	DB	01bH
	DB	01bH
	DB	01bH
	DB	01bH
	DB	01bH
	DB	01bH
	DB	01bH
	DB	01bH
	DB	05H
	DB	05H
	DB	05H
	DB	05H
	DB	05H
	DB	05H
	DB	05H
	DB	0cH
	DB	03aH
	DB	03H
	DB	03H
	DB	0c8H
	DB	0b4H
	DB	0c2H
	DB	05fH
	DB	04H
	DB	05H
	DB	05H
	DB	05H
	DB	05H
	DB	05H
	DB	05H
	DB	05H
	DB	05H
	DB	05H
	DB	05H
	DB	05H
	DB	05H
	DB	01bH
	DB	01bH
	DB	01bH
	DB	01bH
	DB	08bH
	DB	013H
	DB	013H
	DB	013H
	DB	013H
	DB	013H
	DB	013H
	DB	013H
	DB	013H
	DB	013H
	DB	013H
	DB	013H
	DB	013H
	DB	013H
	DB	013H
	DB	013H
	DB	013H
	DB	013H
	DB	013H
	DB	013H
	DB	013H
	DB	013H
	DB	013H
	DB	013H
	DB	013H
	DB	0aH
	DB	00H
	DB	00H
	DB	00H
	DB	00H
	DB	00H
	DB	00H
	DB	00H
	DB	00H
	DB	00H
	DB	00H
	DB	00H
	DB	00H
	DB	0dH
	DB	095H
	DB	01cH
	DB	02aH
	DB	02aH
	DB	02aH
	DB	02aH
	DB	0cdH
	DB	09aH
	DB	02eH
	DB	08dH
	DB	0b0H
	DB	010H
	DB	0b9H
	DB	0e6H
	DB	03aH
	DB	0c3H
	DB	0fcH
	DB	0fdH
	DB	0feH
	DB	0c7H
	DB	03H
	DB	03H
	DB	03H
	DB	03H
	DB	03H
	DB	03H
	DB	03H
	DB	071H
	DB	031H
	DB	04H
	DB	05H
	DB	05H
	DB	05H
	DB	05H
	DB	05H
	DB	05H
	DB	05H
	DB	05H
	DB	05H
	DB	05H
	DB	05H
	DB	05H
	DB	05H
	DB	05H
	DB	05H
	DB	05H
	DB	05H
	DB	05H
	DB	05H
	DB	05H
	DB	05H
	DB	05H
	DB	01bH
	DB	03eH
	DB	03eH
	DB	0fH
	DB	019H
	DB	02eH
	DB	0eH
	DB	03H
	DB	03H
	DB	03H
	DB	03H
	DB	03H
	DB	03H
	DB	0eH
	DB	028H
	DB	011H
	DB	068H
	DB	0fH
	DB	0cH
	DB	04H
	DB	04H
	DB	04H
	DB	05H
	DB	05H
	DB	05H
	DB	05H
	DB	05H
	DB	05H
	DB	05H
	DB	05H
	DB	05H
	DB	05H
	DB	05H
	DB	05H
	DB	05H
	DB	05H
	DB	05H
	DB	05H
	DB	033H
	DB	016H
	DB	029H
	DB	03H
	DB	03H
	DB	029H
	DB	028H
	DB	010H
	DB	01bH
	DB	01bH
	DB	01bH
	DB	01bH
	DB	01bH
	DB	01bH
	DB	01bH
	DB	01bH
	DB	04H
	DB	05H
	DB	05H
	DB	05H
	DB	05H
	DB	05H
	DB	05H
	DB	04H
	DB	031H
	DB	0c4H
	DB	03H
	DB	03H
	DB	01eH
	DB	0e3H
	DB	014H
	DB	010H
	DB	04H
	DB	05H
	DB	05H
	DB	05H
	DB	05H
	DB	05H
	DB	04H
	DB	05H
	DB	05H
	DB	05H
	DB	05H
	DB	05H
	DB	05H
	DB	05H
	DB	08bH
	DB	011H
	DB	01bH
	DB	08bH
	DB	013H
	DB	013H
	DB	013H
	DB	013H
	DB	013H
	DB	013H
	DB	013H
	DB	013H
	DB	013H
	DB	013H
	DB	013H
	DB	013H
	DB	013H
	DB	013H
	DB	013H
	DB	013H
	DB	013H
	DB	013H
	DB	013H
	DB	013H
	DB	013H
	DB	013H
	DB	013H
	DB	013H
	DB	0aH
	DB	00H
	DB	00H
	DB	00H
	DB	00H
	DB	00H
	DB	00H
	DB	00H
	DB	00H
	DB	00H
	DB	00H
	DB	00H
	DB	00H
	DB	096H
	DB	0f7H
	DB	04dH
	DB	04bH
	DB	02aH
	DB	02aH
	DB	058H
	DB	09cH
	DB	03H
	DB	03H
	DB	0c8H
	DB	03H
	DB	03H
	DB	03H
	DB	03H
	DB	03H
	DB	03H
	DB	03H
	DB	03H
	DB	03H
	DB	03H
	DB	03H
	DB	03H
	DB	03H
	DB	03H
	DB	03H
	DB	03H
	DB	0c4H
	DB	095H
	DB	033H
	DB	05H
	DB	04H
	DB	04H
	DB	04H
	DB	04H
	DB	04H
	DB	04H
	DB	04H
	DB	04H
	DB	04H
	DB	05H
	DB	05H
	DB	05H
	DB	05H
	DB	05H
	DB	05H
	DB	05H
	DB	05H
	DB	05H
	DB	05H
	DB	05H
	DB	05H
	DB	05H
	DB	01bH
	DB	0fH
	DB	019H
	DB	016H
	DB	014H
	DB	0c8H
	DB	03H
	DB	03H
	DB	03H
	DB	03H
	DB	03H
	DB	021H
	DB	010H
	DB	016H
	DB	095H
	DB	01bH
	DB	0fH
	DB	0fH
	DB	04H
	DB	04H
	DB	04H
	DB	04H
	DB	04H
	DB	04H
	DB	04H
	DB	04H
	DB	04H
	DB	04H
	DB	04H
	DB	04H
	DB	04H
	DB	04H
	DB	04H
	DB	04H
	DB	04H
	DB	04H
	DB	04H
	DB	04H
	DB	01bH
	DB	033H
	DB	0c2H
	DB	03H
	DB	03H
	DB	03H
	DB	089H
	DB	089H
	DB	024H
	DB	033H
	DB	01bH
	DB	01bH
	DB	01bH
	DB	01bH
	DB	01bH
	DB	01bH
	DB	05H
	DB	05H
	DB	05H
	DB	05H
	DB	05H
	DB	05H
	DB	04H
	DB	040H
	DB	014H
	DB	03H
	DB	03H
	DB	03H
	DB	0c4H
	DB	010H
	DB	0eH
	DB	03cH
	DB	04H
	DB	05H
	DB	05H
	DB	05H
	DB	05H
	DB	04H
	DB	04H
	DB	04H
	DB	04H
	DB	04H
	DB	04H
	DB	04H
	DB	04H
	DB	04H
	DB	04H
	DB	04H
	DB	04H
	DB	07H
	DB	013H
	DB	013H
	DB	013H
	DB	013H
	DB	013H
	DB	013H
	DB	013H
	DB	013H
	DB	013H
	DB	013H
	DB	013H
	DB	013H
	DB	013H
	DB	013H
	DB	013H
	DB	013H
	DB	013H
	DB	013H
	DB	013H
	DB	013H
	DB	013H
	DB	013H
	DB	013H
	DB	013H
	DB	0aH
	DB	00H
	DB	00H
	DB	00H
	DB	00H
	DB	00H
	DB	00H
	DB	00H
	DB	00H
	DB	00H
	DB	00H
	DB	00H
	DB	00H
	DB	0b9H
	DB	0c4H
	DB	0b6H
	DB	0bH
	DB	045H
	DB	045H
	DB	088H
	DB	0c8H
	DB	03H
	DB	03H
	DB	03H
	DB	03H
	DB	03H
	DB	03H
	DB	03H
	DB	03H
	DB	03H
	DB	03H
	DB	03H
	DB	03H
	DB	03H
	DB	03H
	DB	03H
	DB	03H
	DB	0c8H
	DB	022H
	DB	0e7H
	DB	011H
	DB	026H
	DB	048H
	DB	01bH
	DB	04H
	DB	04H
	DB	04H
	DB	04H
	DB	04H
	DB	04H
	DB	04H
	DB	04H
	DB	04H
	DB	04H
	DB	05H
	DB	05H
	DB	05H
	DB	05H
	DB	05H
	DB	05H
	DB	05H
	DB	05H
	DB	05H
	DB	05H
	DB	05H
	DB	04H
	DB	00H
	DB	095H
	DB	036H
	DB	01eH
	DB	03H
	DB	03H
	DB	03H
	DB	03H
	DB	03H
	DB	0fdH
	DB	0baH
	DB	027H
	DB	016H
	DB	01bH
	DB	0fH
	DB	0fH
	DB	0fH
	DB	0fH
	DB	04H
	DB	04H
	DB	04H
	DB	04H
	DB	04H
	DB	04H
	DB	04H
	DB	04H
	DB	04H
	DB	04H
	DB	04H
	DB	04H
	DB	04H
	DB	04H
	DB	04H
	DB	04H
	DB	04H
	DB	04H
	DB	04H
	DB	04H
	DB	01bH
	DB	0cH
	DB	06bH
	DB	0c8H
	DB	03H
	DB	03H
	DB	0c4H
	DB	020H
	DB	03cH
	DB	033H
	DB	01bH
	DB	01bH
	DB	01bH
	DB	01bH
	DB	01bH
	DB	04H
	DB	04H
	DB	04H
	DB	04H
	DB	04H
	DB	05H
	DB	04H
	DB	028H
	DB	0c5H
	DB	03H
	DB	03H
	DB	03H
	DB	03H
	DB	0b9H
	DB	0e8H
	DB	0eH
	DB	087H
	DB	04H
	DB	04H
	DB	04H
	DB	04H
	DB	04H
	DB	04H
	DB	04H
	DB	04H
	DB	04H
	DB	04H
	DB	04H
	DB	04H
	DB	04H
	DB	04H
	DB	04H
	DB	04H
	DB	08bH
	DB	07H
	DB	07H
	DB	07H
	DB	07H
	DB	07H
	DB	07H
	DB	07H
	DB	07H
	DB	07H
	DB	07H
	DB	07H
	DB	07H
	DB	07H
	DB	07H
	DB	07H
	DB	07H
	DB	07H
	DB	07H
	DB	07H
	DB	07H
	DB	07H
	DB	07H
	DB	07H
	DB	07H
	DB	07H
	DB	0aH
	DB	00H
	DB	00H
	DB	00H
	DB	00H
	DB	00H
	DB	00H
	DB	00H
	DB	00H
	DB	00H
	DB	00H
	DB	00H
	DB	00H
	DB	010H
	DB	0eH
	DB	0eH
	DB	0b9H
	DB	04dH
	DB	01bH
	DB	021H
	DB	03H
	DB	03H
	DB	03H
	DB	03H
	DB	03H
	DB	03H
	DB	03H
	DB	03H
	DB	0c8H
	DB	0c6H
	DB	0fdH
	DB	022H
	DB	021H
	DB	0eH
	DB	034H
	DB	02bH
	DB	010H
	DB	02eH
	DB	011H
	DB	019H
	DB	026H
	DB	048H
	DB	048H
	DB	048H
	DB	01bH
	DB	04H
	DB	04H
	DB	04H
	DB	04H
	DB	04H
	DB	04H
	DB	04H
	DB	04H
	DB	04H
	DB	04H
	DB	04H
	DB	04H
	DB	04H
	DB	04H
	DB	04H
	DB	04H
	DB	04H
	DB	04H
	DB	04H
	DB	04H
	DB	0cH
	DB	089H
	DB	029H
	DB	03H
	DB	03H
	DB	03H
	DB	03H
	DB	03H
	DB	0c6H
	DB	036H
	DB	027H
	DB	040H
	DB	01aH
	DB	033H
	DB	033H
	DB	033H
	DB	033H
	DB	01bH
	DB	01bH
	DB	04H
	DB	04H
	DB	04H
	DB	04H
	DB	04H
	DB	04H
	DB	04H
	DB	04H
	DB	04H
	DB	04H
	DB	04H
	DB	04H
	DB	04H
	DB	04H
	DB	04H
	DB	04H
	DB	04H
	DB	04H
	DB	04H
	DB	04H
	DB	01bH
	DB	033H
	DB	011H
	DB	021H
	DB	03H
	DB	03H
	DB	01eH
	DB	09aH
	DB	010H
	DB	040H
	DB	033H
	DB	01bH
	DB	01bH
	DB	04H
	DB	04H
	DB	04H
	DB	04H
	DB	04H
	DB	04H
	DB	04H
	DB	04H
	DB	087H
	DB	0c6H
	DB	03H
	DB	03H
	DB	03H
	DB	03H
	DB	036H
	DB	020H
	DB	0eH
	DB	034H
	DB	040H
	DB	04H
	DB	04H
	DB	04H
	DB	04H
	DB	04H
	DB	04H
	DB	04H
	DB	04H
	DB	04H
	DB	04H
	DB	04H
	DB	04H
	DB	04H
	DB	04H
	DB	04H
	DB	04H
	DB	07H
	DB	07H
	DB	07H
	DB	07H
	DB	07H
	DB	07H
	DB	07H
	DB	07H
	DB	07H
	DB	07H
	DB	07H
	DB	07H
	DB	07H
	DB	07H
	DB	07H
	DB	07H
	DB	07H
	DB	07H
	DB	07H
	DB	07H
	DB	07H
	DB	07H
	DB	07H
	DB	07H
	DB	07H
	DB	07H
	DB	0aH
	DB	00H
	DB	00H
	DB	00H
	DB	00H
	DB	00H
	DB	00H
	DB	00H
	DB	00H
	DB	00H
	DB	00H
	DB	00H
	DB	00H
	DB	011H
	DB	03aH
	DB	0eH
	DB	0eH
	DB	014H
	DB	0baH
	DB	02eH
	DB	010H
	DB	0e6H
	DB	0f6H
	DB	034H
	DB	0f4H
	DB	035H
	DB	089H
	DB	020H
	DB	08dH
	DB	028H
	DB	02eH
	DB	027H
	DB	016H
	DB	095H
	DB	020H
	DB	0e7H
	DB	030H
	DB	097H
	DB	0fH
	DB	026H
	DB	026H
	DB	048H
	DB	048H
	DB	048H
	DB	048H
	DB	0fH
	DB	04H
	DB	04H
	DB	04H
	DB	04H
	DB	04H
	DB	04H
	DB	04H
	DB	01bH
	DB	01bH
	DB	01bH
	DB	01bH
	DB	01bH
	DB	01bH
	DB	01bH
	DB	01bH
	DB	01bH
	DB	01bH
	DB	033H
	DB	011H
	DB	071H
	DB	03H
	DB	03H
	DB	03H
	DB	03H
	DB	03H
	DB	0c8H
	DB	014H
	DB	02eH
	DB	031H
	DB	040H
	DB	0cH
	DB	0cH
	DB	04H
	DB	04H
	DB	04H
	DB	04H
	DB	04H
	DB	04H
	DB	04H
	DB	04H
	DB	04H
	DB	04H
	DB	04H
	DB	04H
	DB	04H
	DB	04H
	DB	04H
	DB	04H
	DB	04H
	DB	04H
	DB	04H
	DB	04H
	DB	04H
	DB	04H
	DB	04H
	DB	04H
	DB	04H
	DB	04H
	DB	01bH
	DB	033H
	DB	0cH
	DB	035H
	DB	03H
	DB	03H
	DB	03H
	DB	03aH
	DB	0b4H
	DB	08eH
	DB	033H
	DB	033H
	DB	01bH
	DB	04H
	DB	04H
	DB	04H
	DB	04H
	DB	04H
	DB	04H
	DB	04H
	DB	0cH
	DB	0c4H
	DB	03H
	DB	03H
	DB	03H
	DB	0c6H
	DB	0e6H
	DB	0b0H
	DB	0c3H
	DB	0c3H
	DB	03cH
	DB	0cH
	DB	04H
	DB	04H
	DB	04H
	DB	04H
	DB	04H
	DB	04H
	DB	04H
	DB	04H
	DB	04H
	DB	04H
	DB	04H
	DB	04H
	DB	04H
	DB	04H
	DB	04H
	DB	04H
	DB	07H
	DB	07H
	DB	07H
	DB	07H
	DB	07H
	DB	07H
	DB	07H
	DB	07H
	DB	07H
	DB	07H
	DB	07H
	DB	07H
	DB	07H
	DB	07H
	DB	07H
	DB	07H
	DB	07H
	DB	07H
	DB	07H
	DB	07H
	DB	07H
	DB	07H
	DB	07H
	DB	07H
	DB	07H
	DB	07H
	DB	0aH
	DB	00H
	DB	00H
	DB	00H
	DB	00H
	DB	00H
	DB	00H
	DB	00H
	DB	00H
	DB	00H
	DB	00H
	DB	00H
	DB	00H
	DB	00H
	DB	011H
	DB	030H
	DB	0c1H
	DB	0c3H
	DB	0eH
	DB	0c3H
	DB	0f4H
	DB	0b4H
	DB	010H
	DB	010H
	DB	010H
	DB	010H
	DB	010H
	DB	010H
	DB	010H
	DB	034H
	DB	0f9H
	DB	034H
	DB	036H
	DB	09fH
	DB	035H
	DB	0b4H
	DB	06aH
	DB	026H
	DB	026H
	DB	026H
	DB	026H
	DB	048H
	DB	048H
	DB	048H
	DB	048H
	DB	048H
	DB	0fH
	DB	04H
	DB	04H
	DB	04H
	DB	04H
	DB	04H
	DB	04H
	DB	033H
	DB	0fH
	DB	0fH
	DB	0fH
	DB	0fH
	DB	0fH
	DB	0fH
	DB	0fH
	DB	0fH
	DB	033H
	DB	031H
	DB	071H
	DB	03H
	DB	03H
	DB	03H
	DB	03H
	DB	03H
	DB	071H
	DB	0b4H
	DB	027H
	DB	01aH
	DB	031H
	DB	0cH
	DB	0cH
	DB	04H
	DB	04H
	DB	04H
	DB	04H
	DB	033H
	DB	0fH
	DB	0fH
	DB	0fH
	DB	0fH
	DB	0fH
	DB	0fH
	DB	0fH
	DB	033H
	DB	04H
	DB	04H
	DB	04H
	DB	04H
	DB	04H
	DB	04H
	DB	04H
	DB	04H
	DB	04H
	DB	04H
	DB	04H
	DB	04H
	DB	04H
	DB	04H
	DB	033H
	DB	033H
	DB	0cH
	DB	016H
	DB	0c6H
	DB	03H
	DB	03H
	DB	0c5H
	DB	028H
	DB	010H
	DB	033H
	DB	033H
	DB	04H
	DB	04H
	DB	04H
	DB	04H
	DB	04H
	DB	033H
	DB	033H
	DB	0cH
	DB	031H
	DB	0c5H
	DB	03H
	DB	03H
	DB	0c5H
	DB	028H
	DB	0e6H
	DB	0eH
	DB	0c3H
	DB	010H
	DB	031H
	DB	0cH
	DB	04H
	DB	04H
	DB	04H
	DB	04H
	DB	04H
	DB	04H
	DB	04H
	DB	04H
	DB	04H
	DB	04H
	DB	04H
	DB	04H
	DB	04H
	DB	04H
	DB	04H
	DB	04H
	DB	07H
	DB	07H
	DB	07H
	DB	07H
	DB	07H
	DB	07H
	DB	07H
	DB	07H
	DB	07H
	DB	07H
	DB	07H
	DB	07H
	DB	07H
	DB	07H
	DB	07H
	DB	07H
	DB	07H
	DB	07H
	DB	07H
	DB	07H
	DB	07H
	DB	07H
	DB	07H
	DB	07H
	DB	07H
	DB	07H
	DB	0aH
	DB	00H
	DB	00H
	DB	00H
	DB	00H
	DB	00H
	DB	00H
	DB	00H
	DB	00H
	DB	00H
	DB	00H
	DB	00H
	DB	00H
	DB	00H
	DB	031H
	DB	011H
	DB	095H
	DB	0b2H
	DB	02bH
	DB	0a3H
	DB	0c1H
	DB	0f9H
	DB	034H
	DB	036H
	DB	0e8H
	DB	0bbH
	DB	07dH
	DB	0b2H
	DB	028H
	DB	08dH
	DB	016H
	DB	095H
	DB	011H
	DB	0fH
	DB	0fH
	DB	0fH
	DB	0fH
	DB	0fH
	DB	026H
	DB	026H
	DB	026H
	DB	026H
	DB	026H
	DB	026H
	DB	026H
	DB	026H
	DB	026H
	DB	0fH
	DB	04H
	DB	04H
	DB	04H
	DB	04H
	DB	04H
	DB	033H
	DB	033H
	DB	033H
	DB	033H
	DB	033H
	DB	033H
	DB	033H
	DB	033H
	DB	033H
	DB	019H
	DB	010H
	DB	03H
	DB	03H
	DB	03H
	DB	03H
	DB	022H
	DB	010H
	DB	040H
	DB	016H
	DB	011H
	DB	0cH
	DB	0cH
	DB	0cH
	DB	04H
	DB	04H
	DB	04H
	DB	04H
	DB	04H
	DB	033H
	DB	026H
	DB	026H
	DB	026H
	DB	026H
	DB	026H
	DB	026H
	DB	026H
	DB	0fH
	DB	04H
	DB	04H
	DB	04H
	DB	04H
	DB	04H
	DB	04H
	DB	04H
	DB	04H
	DB	04H
	DB	04H
	DB	04H
	DB	04H
	DB	04H
	DB	04H
	DB	033H
	DB	033H
	DB	033H
	DB	0cH
	DB	071H
	DB	03H
	DB	03H
	DB	03H
	DB	010H
	DB	0b4H
	DB	040H
	DB	033H
	DB	033H
	DB	033H
	DB	033H
	DB	033H
	DB	033H
	DB	033H
	DB	0cH
	DB	00H
	DB	03aH
	DB	03H
	DB	03H
	DB	03H
	DB	06bH
	DB	035H
	DB	0c4H
	DB	0f8H
	DB	028H
	DB	033H
	DB	0cH
	DB	033H
	DB	04H
	DB	04H
	DB	04H
	DB	04H
	DB	04H
	DB	04H
	DB	04H
	DB	04H
	DB	04H
	DB	04H
	DB	04H
	DB	04H
	DB	04H
	DB	04H
	DB	04H
	DB	04H
	DB	04H
	DB	07H
	DB	07H
	DB	07H
	DB	07H
	DB	07H
	DB	07H
	DB	07H
	DB	07H
	DB	07H
	DB	07H
	DB	07H
	DB	07H
	DB	07H
	DB	07H
	DB	07H
	DB	07H
	DB	07H
	DB	07H
	DB	07H
	DB	07H
	DB	07H
	DB	07H
	DB	07H
	DB	07H
	DB	07H
	DB	018H
	DB	00H
	DB	00H
	DB	00H
	DB	00H
	DB	00H
	DB	00H
	DB	00H
	DB	00H
	DB	00H
	DB	00H
	DB	00H
	DB	00H
	DB	00H
	DB	031H
	DB	01dH
	DB	0dH
	DB	0dH
	DB	0aH
	DB	011H
	DB	011H
	DB	011H
	DB	07H
	DB	031H
	DB	0aH
	DB	018H
	DB	0dH
	DB	0dH
	DB	0dH
	DB	0dH
	DB	0dH
	DB	0dH
	DB	0dH
	DB	0dH
	DB	0fH
	DB	0fH
	DB	026H
	DB	026H
	DB	026H
	DB	026H
	DB	026H
	DB	026H
	DB	026H
	DB	026H
	DB	026H
	DB	026H
	DB	026H
	DB	026H
	DB	0fH
	DB	04H
	DB	04H
	DB	033H
	DB	033H
	DB	033H
	DB	033H
	DB	033H
	DB	033H
	DB	033H
	DB	033H
	DB	033H
	DB	033H
	DB	011H
	DB	016H
	DB	021H
	DB	03H
	DB	03H
	DB	03H
	DB	014H
	DB	011H
	DB	011H
	DB	011H
	DB	0cH
	DB	0cH
	DB	0cH
	DB	0cH
	DB	04H
	DB	04H
	DB	04H
	DB	04H
	DB	04H
	DB	04H
	DB	033H
	DB	026H
	DB	026H
	DB	026H
	DB	026H
	DB	026H
	DB	026H
	DB	026H
	DB	033H
	DB	04H
	DB	04H
	DB	04H
	DB	04H
	DB	04H
	DB	04H
	DB	04H
	DB	04H
	DB	04H
	DB	04H
	DB	04H
	DB	04H
	DB	04H
	DB	04H
	DB	033H
	DB	033H
	DB	033H
	DB	00H
	DB	0b4H
	DB	03H
	DB	03H
	DB	03H
	DB	0c3H
	DB	027H
	DB	087H
	DB	0cH
	DB	033H
	DB	033H
	DB	033H
	DB	033H
	DB	033H
	DB	0cH
	DB	027H
	DB	071H
	DB	03H
	DB	03H
	DB	03H
	DB	0c4H
	DB	08dH
	DB	0c3H
	DB	0c0H
	DB	016H
	DB	00H
	DB	0cH
	DB	0cH
	DB	04H
	DB	04H
	DB	04H
	DB	04H
	DB	04H
	DB	04H
	DB	04H
	DB	04H
	DB	04H
	DB	04H
	DB	04H
	DB	04H
	DB	04H
	DB	04H
	DB	04H
	DB	04H
	DB	04H
	DB	04H
	DB	0aH
	DB	0aH
	DB	0aH
	DB	0aH
	DB	0aH
	DB	0aH
	DB	0aH
	DB	0aH
	DB	0aH
	DB	0aH
	DB	0aH
	DB	0aH
	DB	0aH
	DB	0aH
	DB	0aH
	DB	0aH
	DB	0aH
	DB	0aH
	DB	0aH
	DB	0aH
	DB	0aH
	DB	0aH
	DB	0aH
	DB	0aH
	DB	0aH
	DB	018H
	DB	00H
	DB	00H
	DB	00H
	DB	00H
	DB	00H
	DB	00H
	DB	00H
	DB	00H
	DB	00H
	DB	00H
	DB	00H
	DB	00H
	DB	00H
	DB	031H
	DB	06H
	DB	018H
	DB	018H
	DB	018H
	DB	0dH
	DB	0dH
	DB	0dH
	DB	0dH
	DB	0dH
	DB	018H
	DB	018H
	DB	018H
	DB	018H
	DB	018H
	DB	018H
	DB	0aH
	DB	0aH
	DB	0aH
	DB	0aH
	DB	031H
	DB	026H
	DB	026H
	DB	026H
	DB	026H
	DB	026H
	DB	026H
	DB	026H
	DB	026H
	DB	026H
	DB	026H
	DB	026H
	DB	026H
	DB	026H
	DB	026H
	DB	0fH
	DB	04H
	DB	033H
	DB	033H
	DB	033H
	DB	033H
	DB	033H
	DB	033H
	DB	033H
	DB	033H
	DB	033H
	DB	033H
	DB	09bH
	DB	02eH
	DB	01eH
	DB	03H
	DB	03H
	DB	022H
	DB	011H
	DB	00H
	DB	0cH
	DB	0cH
	DB	0cH
	DB	0cH
	DB	0cH
	DB	0cH
	DB	0cH
	DB	0cH
	DB	0cH
	DB	0cH
	DB	04H
	DB	04H
	DB	033H
	DB	026H
	DB	026H
	DB	026H
	DB	026H
	DB	026H
	DB	026H
	DB	026H
	DB	033H
	DB	04H
	DB	04H
	DB	04H
	DB	04H
	DB	04H
	DB	04H
	DB	04H
	DB	04H
	DB	04H
	DB	04H
	DB	04H
	DB	04H
	DB	04H
	DB	04H
	DB	033H
	DB	033H
	DB	033H
	DB	0cH
	DB	011H
	DB	0c5H
	DB	03H
	DB	03H
	DB	01eH
	DB	027H
	DB	020H
	DB	01bH
	DB	033H
	DB	033H
	DB	033H
	DB	0cH
	DB	00H
	DB	0e6H
	DB	0c8H
	DB	03H
	DB	03H
	DB	03H
	DB	0c8H
	DB	010H
	DB	0e6H
	DB	0eH
	DB	06bH
	DB	00H
	DB	0cH
	DB	0cH
	DB	0cH
	DB	04H
	DB	0cH
	DB	04H
	DB	04H
	DB	04H
	DB	04H
	DB	04H
	DB	04H
	DB	04H
	DB	04H
	DB	04H
	DB	04H
	DB	04H
	DB	04H
	DB	04H
	DB	04H
	DB	0cH
	DB	04H
	DB	0aH
	DB	0aH
	DB	0aH
	DB	0aH
	DB	0aH
	DB	0aH
	DB	0aH
	DB	0aH
	DB	0aH
	DB	0aH
	DB	0aH
	DB	0aH
	DB	0aH
	DB	0aH
	DB	0aH
	DB	0aH
	DB	0aH
	DB	0aH
	DB	0aH
	DB	0aH
	DB	0aH
	DB	0aH
	DB	0aH
	DB	0aH
	DB	0aH
	DB	018H
	DB	00H
	DB	00H
	DB	00H
	DB	00H
	DB	00H
	DB	00H
	DB	00H
	DB	00H
	DB	00H
	DB	00H
	DB	00H
	DB	00H
	DB	00H
	DB	031H
	DB	01fH
	DB	0aH
	DB	0aH
	DB	0aH
	DB	0aH
	DB	0aH
	DB	0aH
	DB	0aH
	DB	0aH
	DB	0aH
	DB	0aH
	DB	0aH
	DB	0aH
	DB	0aH
	DB	0aH
	DB	0aH
	DB	0aH
	DB	0aH
	DB	0aH
	DB	0aH
	DB	093H
	DB	026H
	DB	026H
	DB	026H
	DB	026H
	DB	026H
	DB	026H
	DB	026H
	DB	026H
	DB	026H
	DB	026H
	DB	026H
	DB	026H
	DB	026H
	DB	026H
	DB	0fH
	DB	033H
	DB	033H
	DB	033H
	DB	033H
	DB	033H
	DB	033H
	DB	033H
	DB	033H
	DB	019H
	DB	016H
	DB	03aH
	DB	089H
	DB	03H
	DB	03H
	DB	03H
	DB	036H
	DB	00H
	DB	0cH
	DB	0cH
	DB	0cH
	DB	0cH
	DB	0cH
	DB	0cH
	DB	0cH
	DB	0cH
	DB	0cH
	DB	0cH
	DB	0cH
	DB	0cH
	DB	0cH
	DB	033H
	DB	026H
	DB	0fH
	DB	0fH
	DB	0fH
	DB	0fH
	DB	0fH
	DB	026H
	DB	033H
	DB	04H
	DB	04H
	DB	04H
	DB	04H
	DB	04H
	DB	04H
	DB	04H
	DB	04H
	DB	04H
	DB	04H
	DB	04H
	DB	04H
	DB	04H
	DB	0cH
	DB	033H
	DB	033H
	DB	033H
	DB	033H
	DB	00H
	DB	0f4H
	DB	03H
	DB	03H
	DB	03H
	DB	02bH
	DB	028H
	DB	016H
	DB	0cH
	DB	033H
	DB	033H
	DB	00H
	DB	020H
	DB	0c8H
	DB	03H
	DB	03H
	DB	03H
	DB	0c8H
	DB	0e8H
	DB	0b9H
	DB	0eH
	DB	034H
	DB	011H
	DB	0cH
	DB	0cH
	DB	0cH
	DB	0cH
	DB	0cH
	DB	0cH
	DB	0cH
	DB	0cH
	DB	0cH
	DB	0cH
	DB	0cH
	DB	0cH
	DB	0cH
	DB	0cH
	DB	0cH
	DB	0cH
	DB	0cH
	DB	0cH
	DB	0cH
	DB	0cH
	DB	0cH
	DB	0cH
	DB	0aH
	DB	0aH
	DB	0aH
	DB	0aH
	DB	0aH
	DB	0aH
	DB	0aH
	DB	0aH
	DB	0aH
	DB	0aH
	DB	0aH
	DB	0aH
	DB	0aH
	DB	0aH
	DB	0aH
	DB	0aH
	DB	0aH
	DB	0aH
	DB	0aH
	DB	0aH
	DB	0aH
	DB	0aH
	DB	0aH
	DB	0aH
	DB	0aH
	DB	018H
	DB	00H
	DB	00H
	DB	00H
	DB	00H
	DB	00H
	DB	00H
	DB	00H
	DB	00H
	DB	00H
	DB	00H
	DB	00H
	DB	00H
	DB	00H
	DB	07H
	DB	01fH
	DB	0aH
	DB	0aH
	DB	0aH
	DB	0aH
	DB	0aH
	DB	0aH
	DB	0aH
	DB	0aH
	DB	0aH
	DB	0aH
	DB	0aH
	DB	0aH
	DB	0aH
	DB	0aH
	DB	0aH
	DB	0aH
	DB	0aH
	DB	0aH
	DB	0aH
	DB	031H
	DB	026H
	DB	026H
	DB	026H
	DB	026H
	DB	026H
	DB	026H
	DB	026H
	DB	026H
	DB	026H
	DB	026H
	DB	026H
	DB	026H
	DB	026H
	DB	026H
	DB	026H
	DB	0fH
	DB	033H
	DB	033H
	DB	033H
	DB	033H
	DB	033H
	DB	033H
	DB	033H
	DB	019H
	DB	03cH
	DB	0f6H
	DB	030H
	DB	03H
	DB	03H
	DB	03H
	DB	0e8H
	DB	00H
	DB	0cH
	DB	0cH
	DB	0cH
	DB	0cH
	DB	0cH
	DB	0cH
	DB	0cH
	DB	0cH
	DB	0cH
	DB	0cH
	DB	0cH
	DB	0cH
	DB	0cH
	DB	033H
	DB	0fH
	DB	0fH
	DB	0fH
	DB	0fH
	DB	0fH
	DB	0fH
	DB	0fH
	DB	033H
	DB	0cH
	DB	0cH
	DB	0cH
	DB	0cH
	DB	0cH
	DB	0cH
	DB	0cH
	DB	0cH
	DB	0cH
	DB	0cH
	DB	0cH
	DB	0cH
	DB	0cH
	DB	0cH
	DB	033H
	DB	033H
	DB	033H
	DB	033H
	DB	00H
	DB	08dH
	DB	01eH
	DB	03H
	DB	03H
	DB	0fcH
	DB	027H
	DB	03cH
	DB	0cH
	DB	033H
	DB	0cH
	DB	0cH
	DB	071H
	DB	03H
	DB	03H
	DB	03H
	DB	0c5H
	DB	089H
	DB	0b9H
	DB	0eH
	DB	071H
	DB	06bH
	DB	00H
	DB	0cH
	DB	0cH
	DB	0cH
	DB	0cH
	DB	0cH
	DB	0cH
	DB	0cH
	DB	0cH
	DB	0cH
	DB	0cH
	DB	0cH
	DB	0cH
	DB	0cH
	DB	0cH
	DB	0cH
	DB	0cH
	DB	0cH
	DB	0cH
	DB	0cH
	DB	0cH
	DB	0aH
	DB	0aH
	DB	0aH
	DB	0aH
	DB	0aH
	DB	0aH
	DB	0aH
	DB	0aH
	DB	0aH
	DB	0aH
	DB	0aH
	DB	0aH
	DB	0aH
	DB	0aH
	DB	0aH
	DB	0aH
	DB	0aH
	DB	0aH
	DB	0aH
	DB	0aH
	DB	0aH
	DB	0aH
	DB	0aH
	DB	0aH
	DB	0aH
	DB	0aH
	DB	0aH
	DB	0dH
	DB	00H
	DB	00H
	DB	00H
	DB	00H
	DB	00H
	DB	00H
	DB	00H
	DB	00H
	DB	00H
	DB	00H
	DB	00H
	DB	00H
	DB	00H
	DB	031H
	DB	01fH
	DB	018H
	DB	0aH
	DB	0aH
	DB	0aH
	DB	0aH
	DB	0aH
	DB	0aH
	DB	0aH
	DB	0aH
	DB	0aH
	DB	0aH
	DB	0aH
	DB	0aH
	DB	0aH
	DB	0aH
	DB	0aH
	DB	0aH
	DB	0aH
	DB	0aH
	DB	031H
	DB	0fH
	DB	0fH
	DB	0fH
	DB	0fH
	DB	0fH
	DB	0fH
	DB	0fH
	DB	0fH
	DB	0fH
	DB	0fH
	DB	0fH
	DB	0fH
	DB	0fH
	DB	0fH
	DB	0fH
	DB	0fH
	DB	0fH
	DB	033H
	DB	033H
	DB	033H
	DB	033H
	DB	033H
	DB	033H
	DB	033H
	DB	035H
	DB	0c1H
	DB	0b4H
	DB	03H
	DB	03H
	DB	03H
	DB	014H
	DB	00H
	DB	0cH
	DB	0cH
	DB	0cH
	DB	0cH
	DB	0cH
	DB	0cH
	DB	0cH
	DB	0cH
	DB	0cH
	DB	0cH
	DB	0cH
	DB	0cH
	DB	0cH
	DB	033H
	DB	0fH
	DB	0fH
	DB	0fH
	DB	0fH
	DB	0fH
	DB	0fH
	DB	0fH
	DB	033H
	DB	0cH
	DB	0cH
	DB	0cH
	DB	0cH
	DB	0cH
	DB	0cH
	DB	0cH
	DB	0cH
	DB	0cH
	DB	0cH
	DB	0cH
	DB	0cH
	DB	0cH
	DB	0cH
	DB	033H
	DB	033H
	DB	033H
	DB	033H
	DB	0cH
	DB	031H
	DB	0c4H
	DB	03H
	DB	03H
	DB	0c8H
	DB	0b4H
	DB	0b2H
	DB	011H
	DB	0cH
	DB	0cH
	DB	031H
	DB	0fcH
	DB	03H
	DB	03H
	DB	029H
	DB	010H
	DB	036H
	DB	0eH
	DB	014H
	DB	0b2H
	DB	0cH
	DB	0cH
	DB	0cH
	DB	0cH
	DB	0cH
	DB	0cH
	DB	0cH
	DB	0cH
	DB	0cH
	DB	0cH
	DB	0cH
	DB	0cH
	DB	0cH
	DB	0cH
	DB	0cH
	DB	0cH
	DB	0cH
	DB	0cH
	DB	0cH
	DB	0cH
	DB	018H
	DB	018H
	DB	0aH
	DB	0aH
	DB	0aH
	DB	0aH
	DB	0aH
	DB	0aH
	DB	0aH
	DB	0aH
	DB	0aH
	DB	0aH
	DB	0aH
	DB	0aH
	DB	0aH
	DB	0aH
	DB	0aH
	DB	0aH
	DB	0aH
	DB	0aH
	DB	0aH
	DB	0aH
	DB	0aH
	DB	0aH
	DB	0aH
	DB	0aH
	DB	0aH
	DB	0aH
	DB	0aH
	DB	0dH
	DB	00H
	DB	00H
	DB	00H
	DB	00H
	DB	00H
	DB	00H
	DB	00H
	DB	00H
	DB	00H
	DB	00H
	DB	00H
	DB	00H
	DB	00H
	DB	031H
	DB	06H
	DB	018H
	DB	018H
	DB	018H
	DB	018H
	DB	018H
	DB	018H
	DB	018H
	DB	018H
	DB	018H
	DB	018H
	DB	018H
	DB	018H
	DB	018H
	DB	018H
	DB	018H
	DB	018H
	DB	018H
	DB	018H
	DB	018H
	DB	018H
	DB	018H
	DB	093H
	DB	0fH
	DB	0fH
	DB	0fH
	DB	0fH
	DB	0fH
	DB	0fH
	DB	0fH
	DB	0fH
	DB	0fH
	DB	0fH
	DB	0fH
	DB	0fH
	DB	0fH
	DB	0fH
	DB	0fH
	DB	033H
	DB	033H
	DB	033H
	DB	033H
	DB	033H
	DB	019H
	DB	031H
	DB	09fH
	DB	0f9H
	DB	08dH
	DB	01eH
	DB	03H
	DB	03H
	DB	0a4H
	DB	031H
	DB	0cH
	DB	0cH
	DB	0cH
	DB	0cH
	DB	0cH
	DB	0cH
	DB	0cH
	DB	0cH
	DB	0cH
	DB	0cH
	DB	0cH
	DB	0cH
	DB	0cH
	DB	033H
	DB	0fH
	DB	0fH
	DB	0fH
	DB	0fH
	DB	0fH
	DB	0fH
	DB	0fH
	DB	0fH
	DB	0fH
	DB	033H
	DB	0cH
	DB	0cH
	DB	0cH
	DB	0cH
	DB	0cH
	DB	0cH
	DB	0cH
	DB	0cH
	DB	0cH
	DB	0cH
	DB	0cH
	DB	0cH
	DB	033H
	DB	0cH
	DB	0cH
	DB	0cH
	DB	0cH
	DB	00H
	DB	089H
	DB	03H
	DB	03H
	DB	03H
	DB	0f6H
	DB	0b4H
	DB	08eH
	DB	00H
	DB	0cH
	DB	031H
	DB	0c4H
	DB	03H
	DB	03H
	DB	0c5H
	DB	089H
	DB	0c3H
	DB	0f4H
	DB	027H
	DB	00H
	DB	00H
	DB	0cH
	DB	0cH
	DB	0cH
	DB	0cH
	DB	0cH
	DB	0cH
	DB	0cH
	DB	0cH
	DB	0cH
	DB	0cH
	DB	0cH
	DB	0cH
	DB	0cH
	DB	0cH
	DB	0cH
	DB	0cH
	DB	0cH
	DB	0cH
	DB	018H
	DB	018H
	DB	018H
	DB	018H
	DB	018H
	DB	018H
	DB	018H
	DB	018H
	DB	018H
	DB	018H
	DB	018H
	DB	018H
	DB	018H
	DB	018H
	DB	018H
	DB	018H
	DB	018H
	DB	018H
	DB	018H
	DB	018H
	DB	018H
	DB	018H
	DB	018H
	DB	018H
	DB	018H
	DB	018H
	DB	018H
	DB	018H
	DB	018H
	DB	018H
	DB	0dH
	DB	00H
	DB	00H
	DB	00H
	DB	00H
	DB	00H
	DB	00H
	DB	00H
	DB	00H
	DB	00H
	DB	00H
	DB	00H
	DB	00H
	DB	00H
	DB	031H
	DB	06H
	DB	018H
	DB	018H
	DB	018H
	DB	018H
	DB	018H
	DB	018H
	DB	018H
	DB	018H
	DB	018H
	DB	018H
	DB	018H
	DB	018H
	DB	018H
	DB	018H
	DB	018H
	DB	018H
	DB	018H
	DB	018H
	DB	018H
	DB	018H
	DB	018H
	DB	093H
	DB	093H
	DB	018H
	DB	0dH
	DB	093H
	DB	0fH
	DB	0fH
	DB	0fH
	DB	0fH
	DB	0fH
	DB	0fH
	DB	0fH
	DB	0fH
	DB	0fH
	DB	0fH
	DB	019H
	DB	019H
	DB	019H
	DB	019H
	DB	019H
	DB	019H
	DB	019H
	DB	033H
	DB	0e6H
	DB	0c3H
	DB	0b4H
	DB	0fcH
	DB	03H
	DB	03H
	DB	01eH
	DB	027H
	DB	00H
	DB	0cH
	DB	0cH
	DB	0cH
	DB	0cH
	DB	0cH
	DB	0cH
	DB	0cH
	DB	0cH
	DB	0cH
	DB	0cH
	DB	0cH
	DB	0cH
	DB	019H
	DB	0fH
	DB	0fH
	DB	0fH
	DB	0fH
	DB	0fH
	DB	0fH
	DB	0fH
	DB	0fH
	DB	0fH
	DB	0fH
	DB	0fH
	DB	0fH
	DB	019H
	DB	0cH
	DB	033H
	DB	033H
	DB	0cH
	DB	0cH
	DB	0cH
	DB	019H
	DB	0cH
	DB	0cH
	DB	0cH
	DB	0cH
	DB	0cH
	DB	0cH
	DB	0cH
	DB	00H
	DB	095H
	DB	029H
	DB	03H
	DB	03H
	DB	029H
	DB	02eH
	DB	010H
	DB	0cH
	DB	0cH
	DB	00H
	DB	0f8H
	DB	03H
	DB	03H
	DB	0c8H
	DB	0b2H
	DB	034H
	DB	08dH
	DB	00H
	DB	00H
	DB	0cH
	DB	0cH
	DB	0cH
	DB	0cH
	DB	0cH
	DB	0cH
	DB	0cH
	DB	0cH
	DB	0cH
	DB	0cH
	DB	0cH
	DB	0cH
	DB	0cH
	DB	0cH
	DB	0cH
	DB	0cH
	DB	0cH
	DB	0cH
	DB	018H
	DB	018H
	DB	018H
	DB	018H
	DB	018H
	DB	018H
	DB	018H
	DB	018H
	DB	018H
	DB	018H
	DB	018H
	DB	018H
	DB	018H
	DB	018H
	DB	018H
	DB	018H
	DB	018H
	DB	018H
	DB	018H
	DB	018H
	DB	018H
	DB	018H
	DB	018H
	DB	018H
	DB	018H
	DB	018H
	DB	018H
	DB	018H
	DB	018H
	DB	018H
	DB	018H
	DB	0dH
	DB	00H
	DB	00H
	DB	00H
	DB	00H
	DB	00H
	DB	00H
	DB	00H
	DB	00H
	DB	00H
	DB	00H
	DB	00H
	DB	00H
	DB	00H
	DB	031H
	DB	06H
	DB	0dH
	DB	018H
	DB	018H
	DB	018H
	DB	018H
	DB	018H
	DB	018H
	DB	018H
	DB	018H
	DB	018H
	DB	018H
	DB	018H
	DB	018H
	DB	018H
	DB	018H
	DB	018H
	DB	018H
	DB	018H
	DB	018H
	DB	018H
	DB	0dH
	DB	018H
	DB	0dH
	DB	018H
	DB	018H
	DB	093H
	DB	019H
	DB	0fH
	DB	0fH
	DB	0fH
	DB	0fH
	DB	0fH
	DB	0fH
	DB	0fH
	DB	0fH
	DB	019H
	DB	019H
	DB	019H
	DB	019H
	DB	019H
	DB	019H
	DB	019H
	DB	019H
	DB	00H
	DB	010H
	DB	0eH
	DB	0e3H
	DB	034H
	DB	03H
	DB	03H
	DB	03H
	DB	089H
	DB	00H
	DB	0cH
	DB	0cH
	DB	0cH
	DB	0cH
	DB	0cH
	DB	0cH
	DB	0cH
	DB	0cH
	DB	0cH
	DB	0cH
	DB	0cH
	DB	0cH
	DB	019H
	DB	019H
	DB	019H
	DB	019H
	DB	019H
	DB	019H
	DB	019H
	DB	019H
	DB	019H
	DB	019H
	DB	019H
	DB	019H
	DB	019H
	DB	0fH
	DB	0fH
	DB	0fH
	DB	0fH
	DB	019H
	DB	019H
	DB	019H
	DB	0fH
	DB	0fH
	DB	019H
	DB	019H
	DB	0cH
	DB	0cH
	DB	0cH
	DB	0cH
	DB	0cH
	DB	00H
	DB	0f9H
	DB	03H
	DB	03H
	DB	03H
	DB	0b9H
	DB	0b9H
	DB	040H
	DB	00H
	DB	00H
	DB	089H
	DB	03H
	DB	03H
	DB	03H
	DB	02bH
	DB	03aH
	DB	028H
	DB	00H
	DB	0cH
	DB	0cH
	DB	0cH
	DB	0cH
	DB	0cH
	DB	0cH
	DB	0cH
	DB	0cH
	DB	0cH
	DB	0cH
	DB	0cH
	DB	0cH
	DB	0cH
	DB	0cH
	DB	0cH
	DB	0cH
	DB	0dH
	DB	0dH
	DB	018H
	DB	018H
	DB	018H
	DB	018H
	DB	018H
	DB	018H
	DB	018H
	DB	018H
	DB	018H
	DB	018H
	DB	018H
	DB	018H
	DB	018H
	DB	018H
	DB	018H
	DB	018H
	DB	018H
	DB	018H
	DB	018H
	DB	018H
	DB	018H
	DB	018H
	DB	018H
	DB	018H
	DB	018H
	DB	018H
	DB	018H
	DB	018H
	DB	018H
	DB	018H
	DB	018H
	DB	018H
	DB	0dH
	DB	00H
	DB	00H
	DB	00H
	DB	00H
	DB	00H
	DB	00H
	DB	00H
	DB	00H
	DB	00H
	DB	00H
	DB	00H
	DB	00H
	DB	00H
	DB	031H
	DB	06H
	DB	0dH
	DB	0dH
	DB	0dH
	DB	0dH
	DB	0dH
	DB	0dH
	DB	0dH
	DB	0dH
	DB	0dH
	DB	0dH
	DB	0dH
	DB	0dH
	DB	0dH
	DB	0dH
	DB	0dH
	DB	0dH
	DB	0dH
	DB	0dH
	DB	0dH
	DB	0dH
	DB	0dH
	DB	0dH
	DB	0dH
	DB	0dH
	DB	0dH
	DB	093H
	DB	0dH
	DB	019H
	DB	019H
	DB	019H
	DB	019H
	DB	019H
	DB	019H
	DB	019H
	DB	019H
	DB	019H
	DB	019H
	DB	019H
	DB	019H
	DB	019H
	DB	019H
	DB	019H
	DB	019H
	DB	00H
	DB	02eH
	DB	0eH
	DB	010H
	DB	010H
	DB	03H
	DB	03H
	DB	03H
	DB	0c2H
	DB	00H
	DB	0cH
	DB	0cH
	DB	0cH
	DB	0cH
	DB	0cH
	DB	0cH
	DB	0cH
	DB	0cH
	DB	0cH
	DB	0cH
	DB	0cH
	DB	0cH
	DB	019H
	DB	019H
	DB	019H
	DB	019H
	DB	019H
	DB	019H
	DB	019H
	DB	019H
	DB	019H
	DB	019H
	DB	019H
	DB	019H
	DB	019H
	DB	019H
	DB	019H
	DB	019H
	DB	019H
	DB	019H
	DB	019H
	DB	019H
	DB	019H
	DB	019H
	DB	019H
	DB	019H
	DB	019H
	DB	0cH
	DB	0cH
	DB	0cH
	DB	0cH
	DB	00H
	DB	028H
	DB	03H
	DB	03H
	DB	03H
	DB	0eH
	DB	0b0H
	DB	06bH
	DB	00H
	DB	00H
	DB	02eH
	DB	0c8H
	DB	03H
	DB	03H
	DB	0f9H
	DB	09aH
	DB	030H
	DB	00H
	DB	00H
	DB	0cH
	DB	0cH
	DB	0cH
	DB	0cH
	DB	0cH
	DB	0cH
	DB	0cH
	DB	0cH
	DB	0cH
	DB	0cH
	DB	0cH
	DB	0cH
	DB	0cH
	DB	0cH
	DB	0cH
	DB	0dH
	DB	0dH
	DB	0dH
	DB	0dH
	DB	0dH
	DB	0dH
	DB	0dH
	DB	0dH
	DB	0dH
	DB	0dH
	DB	0dH
	DB	0dH
	DB	0dH
	DB	0dH
	DB	0dH
	DB	0dH
	DB	0dH
	DB	0dH
	DB	0dH
	DB	0dH
	DB	0dH
	DB	0dH
	DB	0dH
	DB	0dH
	DB	0dH
	DB	0dH
	DB	0dH
	DB	0dH
	DB	0dH
	DB	0dH
	DB	0dH
	DB	0dH
	DB	0dH
	DB	0dH
	DB	0dH
	DB	00H
	DB	00H
	DB	00H
	DB	00H
	DB	00H
	DB	00H
	DB	00H
	DB	00H
	DB	00H
	DB	00H
	DB	00H
	DB	00H
	DB	00H
	DB	031H
	DB	06H
	DB	0dH
	DB	0dH
	DB	0dH
	DB	0dH
	DB	0dH
	DB	0dH
	DB	0dH
	DB	0dH
	DB	0dH
	DB	0dH
	DB	0dH
	DB	0dH
	DB	0dH
	DB	0dH
	DB	0dH
	DB	0dH
	DB	0dH
	DB	0dH
	DB	0dH
	DB	0dH
	DB	0dH
	DB	0dH
	DB	0dH
	DB	0dH
	DB	0dH
	DB	093H
	DB	0dH
	DB	0dH
	DB	019H
	DB	019H
	DB	019H
	DB	019H
	DB	019H
	DB	019H
	DB	019H
	DB	019H
	DB	019H
	DB	019H
	DB	019H
	DB	019H
	DB	019H
	DB	019H
	DB	019H
	DB	00H
	DB	095H
	DB	0c2H
	DB	0c1H
	DB	0b0H
	DB	01eH
	DB	03H
	DB	03H
	DB	0fcH
	DB	031H
	DB	00H
	DB	0cH
	DB	0cH
	DB	0cH
	DB	0cH
	DB	0cH
	DB	0cH
	DB	0cH
	DB	0cH
	DB	0cH
	DB	0cH
	DB	0cH
	DB	019H
	DB	019H
	DB	019H
	DB	019H
	DB	019H
	DB	019H
	DB	019H
	DB	019H
	DB	019H
	DB	019H
	DB	019H
	DB	019H
	DB	019H
	DB	019H
	DB	019H
	DB	019H
	DB	019H
	DB	019H
	DB	019H
	DB	019H
	DB	019H
	DB	019H
	DB	019H
	DB	019H
	DB	0cH
	DB	0cH
	DB	0cH
	DB	0cH
	DB	0cH
	DB	00H
	DB	031H
	DB	0fcH
	DB	03H
	DB	03H
	DB	01eH
	DB	0e3H
	DB	030H
	DB	031H
	DB	00H
	DB	011H
	DB	029H
	DB	03H
	DB	03H
	DB	021H
	DB	0b2H
	DB	0e8H
	DB	031H
	DB	00H
	DB	00H
	DB	00H
	DB	00H
	DB	00H
	DB	00H
	DB	00H
	DB	00H
	DB	00H
	DB	0cH
	DB	0cH
	DB	0cH
	DB	0cH
	DB	0cH
	DB	0cH
	DB	0dH
	DB	0dH
	DB	0dH
	DB	0dH
	DB	0dH
	DB	0dH
	DB	0dH
	DB	0dH
	DB	0dH
	DB	0dH
	DB	0dH
	DB	0dH
	DB	0dH
	DB	0dH
	DB	0dH
	DB	0dH
	DB	0dH
	DB	0dH
	DB	0dH
	DB	0dH
	DB	0dH
	DB	0dH
	DB	0dH
	DB	0dH
	DB	0dH
	DB	0dH
	DB	0dH
	DB	0dH
	DB	0dH
	DB	0dH
	DB	0dH
	DB	0dH
	DB	0dH
	DB	0dH
	DB	0dH
	DB	00H
	DB	00H
	DB	00H
	DB	00H
	DB	00H
	DB	00H
	DB	00H
	DB	00H
	DB	00H
	DB	00H
	DB	00H
	DB	00H
	DB	00H
	DB	00H
	DB	031H
	DB	06H
	DB	0dH
	DB	0dH
	DB	0dH
	DB	0dH
	DB	0dH
	DB	0dH
	DB	0dH
	DB	0dH
	DB	0dH
	DB	0dH
	DB	0dH
	DB	0dH
	DB	0dH
	DB	0dH
	DB	0dH
	DB	0dH
	DB	0dH
	DB	0dH
	DB	0dH
	DB	0dH
	DB	0dH
	DB	0dH
	DB	0dH
	DB	0dH
	DB	0dH
	DB	0dH
	DB	0dH
	DB	0dH
	DB	00H
	DB	019H
	DB	019H
	DB	019H
	DB	019H
	DB	019H
	DB	019H
	DB	019H
	DB	019H
	DB	00H
	DB	00H
	DB	00H
	DB	00H
	DB	00H
	DB	00H
	DB	00H
	DB	031H
	DB	03aH
	DB	0eH
	DB	027H
	DB	0fcH
	DB	03H
	DB	03H
	DB	01eH
	DB	027H
	DB	00H
	DB	00H
	DB	00H
	DB	00H
	DB	00H
	DB	00H
	DB	00H
	DB	00H
	DB	00H
	DB	00H
	DB	00H
	DB	00H
	DB	019H
	DB	019H
	DB	019H
	DB	019H
	DB	019H
	DB	019H
	DB	019H
	DB	019H
	DB	019H
	DB	019H
	DB	019H
	DB	019H
	DB	019H
	DB	019H
	DB	019H
	DB	019H
	DB	019H
	DB	019H
	DB	019H
	DB	019H
	DB	019H
	DB	019H
	DB	019H
	DB	019H
	DB	00H
	DB	00H
	DB	00H
	DB	00H
	DB	00H
	DB	00H
	DB	00H
	DB	02bH
	DB	03H
	DB	03H
	DB	03H
	DB	0e8H
	DB	089H
	DB	016H
	DB	00H
	DB	0cH
	DB	0c4H
	DB	03H
	DB	03H
	DB	029H
	DB	010H
	DB	036H
	DB	011H
	DB	00H
	DB	00H
	DB	00H
	DB	00H
	DB	00H
	DB	00H
	DB	00H
	DB	00H
	DB	00H
	DB	00H
	DB	00H
	DB	00H
	DB	00H
	DB	00H
	DB	0dH
	DB	0dH
	DB	0dH
	DB	0dH
	DB	0dH
	DB	0dH
	DB	0dH
	DB	0dH
	DB	0dH
	DB	0dH
	DB	0dH
	DB	0dH
	DB	0dH
	DB	0dH
	DB	0dH
	DB	0dH
	DB	0dH
	DB	0dH
	DB	0dH
	DB	0dH
	DB	0dH
	DB	0dH
	DB	0dH
	DB	0dH
	DB	0dH
	DB	0dH
	DB	0dH
	DB	0dH
	DB	0dH
	DB	0dH
	DB	0dH
	DB	0dH
	DB	0dH
	DB	0dH
	DB	0dH
	DB	0dH
	DB	00H
	DB	00H
	DB	00H
	DB	00H
	DB	00H
	DB	00H
	DB	00H
	DB	00H
	DB	00H
	DB	00H
	DB	00H
	DB	00H
	DB	00H
	DB	00H
	DB	031H
	DB	06H
	DB	00H
	DB	0dH
	DB	0dH
	DB	0dH
	DB	0dH
	DB	0dH
	DB	0dH
	DB	0dH
	DB	0dH
	DB	0dH
	DB	0dH
	DB	0dH
	DB	0dH
	DB	0dH
	DB	0dH
	DB	0dH
	DB	0dH
	DB	0dH
	DB	0dH
	DB	0dH
	DB	0dH
	DB	0dH
	DB	0dH
	DB	0dH
	DB	0dH
	DB	0dH
	DB	0dH
	DB	0dH
	DB	0dH
	DB	0dH
	DB	00H
	DB	00H
	DB	00H
	DB	0dH
	DB	0dH
	DB	00H
	DB	00H
	DB	00H
	DB	00H
	DB	00H
	DB	00H
	DB	00H
	DB	00H
	DB	00H
	DB	00H
	DB	089H
	DB	0eH
	DB	028H
	DB	0f8H
	DB	03H
	DB	03H
	DB	03H
	DB	030H
	DB	00H
	DB	00H
	DB	00H
	DB	00H
	DB	00H
	DB	00H
	DB	00H
	DB	00H
	DB	00H
	DB	00H
	DB	00H
	DB	00H
	DB	00H
	DB	019H
	DB	019H
	DB	019H
	DB	019H
	DB	019H
	DB	019H
	DB	019H
	DB	019H
	DB	019H
	DB	019H
	DB	019H
	DB	019H
	DB	019H
	DB	019H
	DB	019H
	DB	019H
	DB	019H
	DB	019H
	DB	019H
	DB	019H
	DB	019H
	DB	019H
	DB	019H
	DB	00H
	DB	00H
	DB	00H
	DB	00H
	DB	00H
	DB	00H
	DB	00H
	DB	016H
	DB	01eH
	DB	03H
	DB	03H
	DB	0a4H
	DB	02eH
	DB	0b4H
	DB	00H
	DB	00H
	DB	0a3H
	DB	03H
	DB	03H
	DB	03H
	DB	020H
	DB	0e6H
	DB	027H
	DB	00H
	DB	00H
	DB	00H
	DB	00H
	DB	00H
	DB	00H
	DB	00H
	DB	00H
	DB	00H
	DB	00H
	DB	00H
	DB	00H
	DB	0dH
	DB	0dH
	DB	0dH
	DB	0dH
	DB	0dH
	DB	0dH
	DB	0dH
	DB	0dH
	DB	0dH
	DB	0dH
	DB	0dH
	DB	0dH
	DB	0dH
	DB	0dH
	DB	0dH
	DB	0dH
	DB	0dH
	DB	0dH
	DB	0dH
	DB	0dH
	DB	0dH
	DB	0dH
	DB	0dH
	DB	0dH
	DB	0dH
	DB	0dH
	DB	0dH
	DB	0dH
	DB	0dH
	DB	0dH
	DB	0dH
	DB	0dH
	DB	0dH
	DB	0dH
	DB	0dH
	DB	0dH
	DB	0dH
	DB	0dH
	DB	00H
	DB	00H
	DB	00H
	DB	00H
	DB	00H
	DB	00H
	DB	00H
	DB	00H
	DB	00H
	DB	00H
	DB	00H
	DB	00H
	DB	00H
	DB	00H
	DB	031H
	DB	06H
	DB	00H
	DB	00H
	DB	00H
	DB	00H
	DB	00H
	DB	00H
	DB	00H
	DB	00H
	DB	00H
	DB	00H
	DB	00H
	DB	00H
	DB	00H
	DB	00H
	DB	00H
	DB	00H
	DB	00H
	DB	00H
	DB	00H
	DB	00H
	DB	00H
	DB	00H
	DB	00H
	DB	00H
	DB	00H
	DB	00H
	DB	00H
	DB	00H
	DB	00H
	DB	00H
	DB	00H
	DB	00H
	DB	00H
	DB	00H
	DB	00H
	DB	00H
	DB	00H
	DB	00H
	DB	00H
	DB	00H
	DB	00H
	DB	00H
	DB	00H
	DB	00H
	DB	00H
	DB	02eH
	DB	0c3H
	DB	03aH
	DB	010H
	DB	03H
	DB	03H
	DB	03H
	DB	014H
	DB	00H
	DB	00H
	DB	00H
	DB	00H
	DB	00H
	DB	00H
	DB	00H
	DB	00H
	DB	00H
	DB	00H
	DB	00H
	DB	00H
	DB	019H
	DB	019H
	DB	019H
	DB	019H
	DB	019H
	DB	019H
	DB	019H
	DB	019H
	DB	019H
	DB	019H
	DB	019H
	DB	019H
	DB	019H
	DB	019H
	DB	019H
	DB	019H
	DB	019H
	DB	019H
	DB	019H
	DB	019H
	DB	019H
	DB	019H
	DB	019H
	DB	00H
	DB	00H
	DB	00H
	DB	00H
	DB	00H
	DB	00H
	DB	00H
	DB	00H
	DB	00H
	DB	0eH
	DB	03H
	DB	03H
	DB	0c8H
	DB	030H
	DB	030H
	DB	011H
	DB	00H
	DB	089H
	DB	03H
	DB	03H
	DB	03H
	DB	0e6H
	DB	09fH
	DB	06bH
	DB	00H
	DB	00H
	DB	00H
	DB	00H
	DB	00H
	DB	00H
	DB	00H
	DB	00H
	DB	00H
	DB	00H
	DB	00H
	DB	00H
	DB	00H
	DB	00H
	DB	00H
	DB	00H
	DB	00H
	DB	00H
	DB	00H
	DB	00H
	DB	00H
	DB	00H
	DB	00H
	DB	00H
	DB	00H
	DB	00H
	DB	00H
	DB	00H
	DB	00H
	DB	00H
	DB	00H
	DB	00H
	DB	00H
	DB	00H
	DB	00H
	DB	00H
	DB	00H
	DB	00H
	DB	00H
	DB	00H
	DB	00H
	DB	00H
	DB	00H
	DB	00H
	DB	00H
	DB	00H
	DB	00H
	DB	00H
	DB	00H
	DB	00H
	DB	00H
	DB	00H
	DB	00H
	DB	00H
	DB	00H
	DB	00H
	DB	00H
	DB	00H
	DB	00H
	DB	00H
	DB	00H
	DB	00H
	DB	00H
	DB	00H
	DB	031H
	DB	06H
	DB	00H
	DB	00H
	DB	00H
	DB	00H
	DB	00H
	DB	00H
	DB	00H
	DB	00H
	DB	00H
	DB	00H
	DB	00H
	DB	00H
	DB	00H
	DB	00H
	DB	00H
	DB	00H
	DB	00H
	DB	00H
	DB	00H
	DB	00H
	DB	00H
	DB	00H
	DB	00H
	DB	00H
	DB	00H
	DB	00H
	DB	00H
	DB	00H
	DB	00H
	DB	00H
	DB	00H
	DB	00H
	DB	00H
	DB	00H
	DB	00H
	DB	00H
	DB	00H
	DB	00H
	DB	00H
	DB	00H
	DB	00H
	DB	00H
	DB	00H
	DB	00H
	DB	00H
	DB	095H
	DB	014H
	DB	0f4H
	DB	096H
	DB	01eH
	DB	03H
	DB	03H
	DB	0c5H
	DB	011H
	DB	00H
	DB	00H
	DB	00H
	DB	00H
	DB	00H
	DB	00H
	DB	00H
	DB	00H
	DB	00H
	DB	00H
	DB	00H
	DB	00H
	DB	00H
	DB	00H
	DB	00H
	DB	00H
	DB	00H
	DB	00H
	DB	00H
	DB	00H
	DB	00H
	DB	00H
	DB	00H
	DB	00H
	DB	00H
	DB	00H
	DB	00H
	DB	00H
	DB	00H
	DB	00H
	DB	00H
	DB	00H
	DB	00H
	DB	00H
	DB	00H
	DB	00H
	DB	00H
	DB	00H
	DB	00H
	DB	00H
	DB	00H
	DB	00H
	DB	00H
	DB	010H
	DB	03H
	DB	03H
	DB	03H
	DB	014H
	DB	0b2H
	DB	02eH
	DB	00H
	DB	08dH
	DB	01eH
	DB	03H
	DB	03H
	DB	014H
	DB	0b0H
	DB	030H
	DB	00H
	DB	00H
	DB	00H
	DB	00H
	DB	00H
	DB	00H
	DB	00H
	DB	00H
	DB	00H
	DB	00H
	DB	00H
	DB	00H
	DB	00H
	DB	00H
	DB	00H
	DB	00H
	DB	00H
	DB	00H
	DB	00H
	DB	00H
	DB	00H
	DB	00H
	DB	00H
	DB	00H
	DB	00H
	DB	00H
	DB	00H
	DB	00H
	DB	00H
	DB	00H
	DB	00H
	DB	00H
	DB	00H
	DB	00H
	DB	00H
	DB	00H
	DB	00H
	DB	00H
	DB	00H
	DB	00H
	DB	00H
	DB	00H
	DB	00H
	DB	00H
	DB	00H
	DB	00H
	DB	00H
	DB	00H
	DB	00H
	DB	00H
	DB	00H
	DB	00H
	DB	00H
	DB	00H
	DB	00H
	DB	00H
	DB	00H
	DB	00H
	DB	00H
	DB	00H
	DB	00H
	DB	00H
	DB	00H
	DB	00H
	DB	031H
	DB	06H
	DB	00H
	DB	00H
	DB	00H
	DB	00H
	DB	00H
	DB	00H
	DB	00H
	DB	00H
	DB	00H
	DB	00H
	DB	00H
	DB	00H
	DB	00H
	DB	00H
	DB	00H
	DB	00H
	DB	00H
	DB	00H
	DB	00H
	DB	00H
	DB	00H
	DB	00H
	DB	00H
	DB	00H
	DB	00H
	DB	00H
	DB	00H
	DB	00H
	DB	00H
	DB	00H
	DB	00H
	DB	00H
	DB	00H
	DB	00H
	DB	00H
	DB	00H
	DB	00H
	DB	00H
	DB	00H
	DB	00H
	DB	00H
	DB	00H
	DB	00H
	DB	00H
	DB	00H
	DB	031H
	DB	09fH
	DB	0eH
	DB	028H
	DB	021H
	DB	03H
	DB	03H
	DB	0c8H
	DB	02eH
	DB	00H
	DB	00H
	DB	00H
	DB	00H
	DB	00H
	DB	00H
	DB	00H
	DB	00H
	DB	00H
	DB	00H
	DB	00H
	DB	00H
	DB	00H
	DB	00H
	DB	00H
	DB	00H
	DB	00H
	DB	00H
	DB	00H
	DB	00H
	DB	00H
	DB	00H
	DB	00H
	DB	00H
	DB	00H
	DB	00H
	DB	00H
	DB	00H
	DB	00H
	DB	00H
	DB	00H
	DB	00H
	DB	00H
	DB	00H
	DB	00H
	DB	00H
	DB	00H
	DB	00H
	DB	00H
	DB	00H
	DB	00H
	DB	00H
	DB	00H
	DB	011H
	DB	0fdH
	DB	03H
	DB	03H
	DB	0c6H
	DB	02eH
	DB	010H
	DB	00H
	DB	011H
	DB	0fdH
	DB	03H
	DB	03H
	DB	0fcH
	DB	08dH
	DB	0e7H
	DB	031H
	DB	00H
	DB	00H
	DB	00H
	DB	00H
	DB	00H
	DB	00H
	DB	00H
	DB	00H
	DB	00H
	DB	00H
	DB	00H
	DB	00H
	DB	00H
	DB	00H
	DB	00H
	DB	00H
	DB	00H
	DB	00H
	DB	00H
	DB	00H
	DB	00H
	DB	00H
	DB	00H
	DB	00H
	DB	00H
	DB	00H
	DB	00H
	DB	00H
	DB	00H
	DB	00H
	DB	00H
	DB	00H
	DB	00H
	DB	00H
	DB	00H
	DB	00H
	DB	00H
	DB	00H
	DB	00H
	DB	00H
	DB	00H
	DB	00H
	DB	00H
	DB	00H
	DB	00H
	DB	00H
	DB	00H
	DB	00H
	DB	00H
	DB	00H
	DB	00H
	DB	00H
	DB	00H
	DB	00H
	DB	00H
	DB	00H
	DB	00H
	DB	00H
	DB	00H
	DB	00H
	DB	00H
	DB	00H
	DB	00H
	DB	031H
	DB	01dH
	DB	00H
	DB	00H
	DB	00H
	DB	00H
	DB	00H
	DB	00H
	DB	00H
	DB	00H
	DB	00H
	DB	00H
	DB	00H
	DB	00H
	DB	00H
	DB	00H
	DB	00H
	DB	00H
	DB	00H
	DB	00H
	DB	00H
	DB	00H
	DB	00H
	DB	00H
	DB	00H
	DB	00H
	DB	00H
	DB	00H
	DB	00H
	DB	00H
	DB	00H
	DB	00H
	DB	00H
	DB	00H
	DB	00H
	DB	00H
	DB	00H
	DB	00H
	DB	00H
	DB	00H
	DB	00H
	DB	00H
	DB	00H
	DB	00H
	DB	00H
	DB	00H
	DB	00H
	DB	00H
	DB	010H
	DB	0c4H
	DB	02eH
	DB	0f4H
	DB	03H
	DB	03H
	DB	03H
	DB	02bH
	DB	00H
	DB	00H
	DB	00H
	DB	00H
	DB	00H
	DB	00H
	DB	00H
	DB	00H
	DB	00H
	DB	00H
	DB	00H
	DB	00H
	DB	00H
	DB	00H
	DB	00H
	DB	00H
	DB	00H
	DB	00H
	DB	00H
	DB	00H
	DB	00H
	DB	00H
	DB	00H
	DB	00H
	DB	00H
	DB	00H
	DB	00H
	DB	00H
	DB	00H
	DB	00H
	DB	00H
	DB	00H
	DB	00H
	DB	00H
	DB	00H
	DB	00H
	DB	00H
	DB	00H
	DB	00H
	DB	00H
	DB	00H
	DB	00H
	DB	00H
	DB	00H
	DB	036H
	DB	03H
	DB	03H
	DB	03H
	DB	02bH
	DB	089H
	DB	095H
	DB	00H
	DB	0c4H
	DB	03H
	DB	03H
	DB	029H
	DB	020H
	DB	036H
	DB	011H
	DB	00H
	DB	00H
	DB	00H
	DB	00H
	DB	00H
	DB	00H
	DB	00H
	DB	00H
	DB	00H
	DB	00H
	DB	00H
	DB	00H
	DB	00H
	DB	00H
	DB	00H
	DB	00H
	DB	00H
	DB	00H
	DB	00H
	DB	00H
	DB	00H
	DB	00H
	DB	00H
	DB	00H
	DB	00H
	DB	00H
	DB	00H
	DB	00H
	DB	00H
	DB	00H
	DB	00H
	DB	00H
	DB	00H
	DB	00H
	DB	00H
	DB	00H
	DB	00H
	DB	00H
	DB	00H
	DB	00H
	DB	00H
	DB	00H
	DB	00H
	DB	00H
	DB	00H
	DB	00H
	DB	00H
	DB	00H
	DB	00H
	DB	00H
	DB	00H
	DB	00H
	DB	00H
	DB	00H
	DB	00H
	DB	00H
	DB	00H
	DB	00H
	DB	00H
	DB	00H
	DB	00H
	DB	00H
	DB	00H
	DB	031H
	DB	01dH
	DB	00H
	DB	00H
	DB	00H
	DB	00H
	DB	00H
	DB	00H
	DB	00H
	DB	00H
	DB	00H
	DB	00H
	DB	00H
	DB	00H
	DB	00H
	DB	00H
	DB	00H
	DB	00H
	DB	00H
	DB	00H
	DB	00H
	DB	00H
	DB	00H
	DB	00H
	DB	00H
	DB	00H
	DB	00H
	DB	00H
	DB	00H
	DB	00H
	DB	00H
	DB	00H
	DB	00H
	DB	00H
	DB	00H
	DB	00H
	DB	00H
	DB	00H
	DB	00H
	DB	00H
	DB	00H
	DB	00H
	DB	00H
	DB	00H
	DB	00H
	DB	00H
	DB	00H
	DB	00H
	DB	08dH
	DB	0c3H
	DB	035H
	DB	020H
	DB	03H
	DB	03H
	DB	03H
	DB	021H
	DB	031H
	DB	00H
	DB	00H
	DB	00H
	DB	00H
	DB	00H
	DB	00H
	DB	00H
	DB	00H
	DB	00H
	DB	00H
	DB	00H
	DB	00H
	DB	019H
	DB	019H
	DB	00H
	DB	00H
	DB	00H
	DB	00H
	DB	00H
	DB	00H
	DB	00H
	DB	00H
	DB	00H
	DB	00H
	DB	00H
	DB	00H
	DB	00H
	DB	00H
	DB	00H
	DB	00H
	DB	00H
	DB	00H
	DB	00H
	DB	00H
	DB	00H
	DB	00H
	DB	00H
	DB	00H
	DB	00H
	DB	00H
	DB	00H
	DB	00H
	DB	00H
	DB	02eH
	DB	0c8H
	DB	03H
	DB	03H
	DB	0c3H
	DB	028H
	DB	0b4H
	DB	00H
	DB	036H
	DB	03H
	DB	03H
	DB	0c8H
	DB	0b2H
	DB	035H
	DB	027H
	DB	00H
	DB	00H
	DB	00H
	DB	00H
	DB	00H
	DB	00H
	DB	00H
	DB	00H
	DB	00H
	DB	00H
	DB	00H
	DB	00H
	DB	00H
	DB	00H
	DB	00H
	DB	00H
	DB	00H
	DB	00H
	DB	00H
	DB	00H
	DB	00H
	DB	00H
	DB	00H
	DB	00H
	DB	00H
	DB	00H
	DB	00H
	DB	00H
	DB	00H
	DB	00H
	DB	00H
	DB	00H
	DB	00H
	DB	00H
	DB	00H
	DB	00H
	DB	00H
	DB	00H
	DB	00H
	DB	00H
	DB	00H
	DB	00H
	DB	00H
	DB	00H
	DB	00H
	DB	00H
	DB	00H
	DB	00H
	DB	00H
	DB	00H
	DB	00H
	DB	00H
	DB	00H
	DB	00H
	DB	00H
	DB	00H
	DB	00H
	DB	00H
	DB	00H
	DB	00H
	DB	00H
	DB	00H
	DB	00H
	DB	031H
	DB	01dH
	DB	00H
	DB	00H
	DB	00H
	DB	00H
	DB	00H
	DB	00H
	DB	00H
	DB	00H
	DB	00H
	DB	00H
	DB	00H
	DB	00H
	DB	00H
	DB	00H
	DB	00H
	DB	00H
	DB	00H
	DB	00H
	DB	00H
	DB	00H
	DB	00H
	DB	00H
	DB	00H
	DB	00H
	DB	00H
	DB	00H
	DB	00H
	DB	00H
	DB	00H
	DB	00H
	DB	00H
	DB	00H
	DB	00H
	DB	00H
	DB	00H
	DB	00H
	DB	00H
	DB	00H
	DB	00H
	DB	00H
	DB	00H
	DB	00H
	DB	00H
	DB	00H
	DB	00H
	DB	00H
	DB	011H
	DB	0c1H
	DB	014H
	DB	016H
	DB	0fdH
	DB	03H
	DB	03H
	DB	0c8H
	DB	02eH
	DB	00H
	DB	00H
	DB	00H
	DB	00H
	DB	00H
	DB	00H
	DB	00H
	DB	00H
	DB	00H
	DB	00H
	DB	00H
	DB	043H
	DB	06eH
	DB	060H
	DB	026H
	DB	00H
	DB	00H
	DB	00H
	DB	00H
	DB	00H
	DB	00H
	DB	00H
	DB	00H
	DB	00H
	DB	00H
	DB	00H
	DB	00H
	DB	00H
	DB	00H
	DB	00H
	DB	00H
	DB	00H
	DB	00H
	DB	00H
	DB	00H
	DB	00H
	DB	00H
	DB	00H
	DB	00H
	DB	00H
	DB	00H
	DB	00H
	DB	00H
	DB	031H
	DB	022H
	DB	03H
	DB	03H
	DB	0fdH
	DB	0e3H
	DB	02bH
	DB	00H
	DB	0e3H
	DB	03H
	DB	03H
	DB	03H
	DB	0b9H
	DB	010H
	DB	09aH
	DB	00H
	DB	00H
	DB	00H
	DB	00H
	DB	00H
	DB	00H
	DB	00H
	DB	00H
	DB	00H
	DB	00H
	DB	00H
	DB	00H
	DB	00H
	DB	00H
	DB	00H
	DB	00H
	DB	00H
	DB	00H
	DB	00H
	DB	00H
	DB	00H
	DB	00H
	DB	00H
	DB	00H
	DB	00H
	DB	00H
	DB	00H
	DB	00H
	DB	00H
	DB	00H
	DB	00H
	DB	00H
	DB	00H
	DB	00H
	DB	00H
	DB	00H
	DB	00H
	DB	00H
	DB	00H
	DB	00H
	DB	00H
	DB	00H
	DB	00H
	DB	00H
	DB	00H
	DB	00H
	DB	00H
	DB	00H
	DB	00H
	DB	00H
	DB	00H
	DB	00H
	DB	00H
	DB	00H
	DB	00H
	DB	00H
	DB	00H
	DB	00H
	DB	00H
	DB	00H
	DB	00H
	DB	00H
	DB	00H
	DB	031H
	DB	01dH
	DB	00H
	DB	00H
	DB	00H
	DB	00H
	DB	00H
	DB	00H
	DB	00H
	DB	00H
	DB	00H
	DB	00H
	DB	00H
	DB	00H
	DB	00H
	DB	00H
	DB	00H
	DB	00H
	DB	00H
	DB	00H
	DB	00H
	DB	00H
	DB	00H
	DB	00H
	DB	00H
	DB	00H
	DB	00H
	DB	00H
	DB	00H
	DB	00H
	DB	00H
	DB	00H
	DB	00H
	DB	00H
	DB	00H
	DB	00H
	DB	00H
	DB	00H
	DB	00H
	DB	00H
	DB	00H
	DB	00H
	DB	00H
	DB	00H
	DB	00H
	DB	00H
	DB	00H
	DB	00H
	DB	0dH
	DB	0e6H
	DB	0eH
	DB	0b0H
	DB	0f4H
	DB	03H
	DB	03H
	DB	03H
	DB	0eH
	DB	031H
	DB	00H
	DB	00H
	DB	00H
	DB	00H
	DB	00H
	DB	00H
	DB	00H
	DB	031H
	DB	026H
	DB	077H
	DB	062H
	DB	062H
	DB	062H
	DB	051H
	DB	00H
	DB	00H
	DB	00H
	DB	00H
	DB	00H
	DB	00H
	DB	00H
	DB	00H
	DB	00H
	DB	00H
	DB	00H
	DB	00H
	DB	00H
	DB	00H
	DB	00H
	DB	00H
	DB	00H
	DB	00H
	DB	00H
	DB	00H
	DB	00H
	DB	00H
	DB	00H
	DB	00H
	DB	00H
	DB	00H
	DB	00H
	DB	00H
	DB	00H
	DB	0f9H
	DB	03H
	DB	03H
	DB	0c8H
	DB	030H
	DB	0f4H
	DB	011H
	DB	08dH
	DB	0c8H
	DB	03H
	DB	03H
	DB	034H
	DB	030H
	DB	030H
	DB	00H
	DB	00H
	DB	00H
	DB	00H
	DB	00H
	DB	00H
	DB	0cH
	DB	08H
	DB	038H
	DB	038H
	DB	0bH
	DB	0cH
	DB	04H
	DB	038H
	DB	08H
	DB	00H
	DB	00H
	DB	00H
	DB	00H
	DB	00H
	DB	00H
	DB	00H
	DB	00H
	DB	00H
	DB	00H
	DB	00H
	DB	00H
	DB	00H
	DB	00H
	DB	00H
	DB	00H
	DB	00H
	DB	00H
	DB	00H
	DB	00H
	DB	00H
	DB	00H
	DB	00H
	DB	00H
	DB	00H
	DB	00H
	DB	00H
	DB	00H
	DB	00H
	DB	00H
	DB	0bH
	DB	038H
	DB	0bH
	DB	00H
	DB	00H
	DB	00H
	DB	00H
	DB	00H
	DB	00H
	DB	00H
	DB	00H
	DB	00H
	DB	00H
	DB	00H
	DB	00H
	DB	00H
	DB	00H
	DB	00H
	DB	031H
	DB	01dH
	DB	00H
	DB	00H
	DB	00H
	DB	086H
	DB	04cH
	DB	053H
	DB	063H
	DB	059H
	DB	033H
	DB	00H
	DB	00H
	DB	00H
	DB	00H
	DB	00H
	DB	00H
	DB	00H
	DB	00H
	DB	00H
	DB	00H
	DB	00H
	DB	00H
	DB	00H
	DB	00H
	DB	00H
	DB	00H
	DB	00H
	DB	00H
	DB	00H
	DB	00H
	DB	00H
	DB	00H
	DB	00H
	DB	00H
	DB	00H
	DB	00H
	DB	00H
	DB	00H
	DB	00H
	DB	00H
	DB	00H
	DB	00H
	DB	00H
	DB	00H
	DB	00H
	DB	00H
	DB	00H
	DB	00H
	DB	020H
	DB	0eH
	DB	036H
	DB	028H
	DB	01eH
	DB	03H
	DB	03H
	DB	03H
	DB	03aH
	DB	00H
	DB	00H
	DB	00H
	DB	00H
	DB	00H
	DB	031H
	DB	0baH
	DB	029H
	DB	0b5H
	DB	06eH
	DB	062H
	DB	062H
	DB	062H
	DB	041H
	DB	00H
	DB	00H
	DB	00H
	DB	00H
	DB	00H
	DB	00H
	DB	00H
	DB	00H
	DB	00H
	DB	00H
	DB	00H
	DB	00H
	DB	00H
	DB	00H
	DB	00H
	DB	00H
	DB	00H
	DB	00H
	DB	00H
	DB	00H
	DB	00H
	DB	00H
	DB	00H
	DB	00H
	DB	00H
	DB	00H
	DB	00H
	DB	00H
	DB	00H
	DB	089H
	DB	03H
	DB	03H
	DB	03H
	DB	0b9H
	DB	0e6H
	DB	02eH
	DB	011H
	DB	029H
	DB	03H
	DB	03H
	DB	021H
	DB	08dH
	DB	0e6H
	DB	031H
	DB	00H
	DB	00H
	DB	00H
	DB	00H
	DB	05H
	DB	045H
	DB	02aH
	DB	02aH
	DB	02aH
	DB	02aH
	DB	05H
	DB	0bH
	DB	02aH
	DB	045H
	DB	0cH
	DB	00H
	DB	00H
	DB	00H
	DB	00H
	DB	00H
	DB	00H
	DB	00H
	DB	00H
	DB	00H
	DB	00H
	DB	00H
	DB	00H
	DB	00H
	DB	00H
	DB	00H
	DB	00H
	DB	00H
	DB	00H
	DB	00H
	DB	00H
	DB	00H
	DB	00H
	DB	00H
	DB	00H
	DB	00H
	DB	00H
	DB	00H
	DB	00H
	DB	00H
	DB	05aH
	DB	02aH
	DB	04aH
	DB	00H
	DB	00H
	DB	00H
	DB	00H
	DB	00H
	DB	00H
	DB	00H
	DB	00H
	DB	00H
	DB	00H
	DB	00H
	DB	00H
	DB	00H
	DB	00H
	DB	00H
	DB	031H
	DB	06H
	DB	00H
	DB	00H
	DB	050H
	DB	037H
	DB	070H
	DB	04cH
	DB	063H
	DB	037H
	DB	04cH
	DB	00H
	DB	00H
	DB	00H
	DB	00H
	DB	00H
	DB	00H
	DB	00H
	DB	00H
	DB	00H
	DB	00H
	DB	00H
	DB	00H
	DB	00H
	DB	00H
	DB	00H
	DB	00H
	DB	00H
	DB	00H
	DB	00H
	DB	00H
	DB	00H
	DB	00H
	DB	00H
	DB	00H
	DB	00H
	DB	00H
	DB	00H
	DB	00H
	DB	00H
	DB	00H
	DB	00H
	DB	00H
	DB	00H
	DB	00H
	DB	00H
	DB	00H
	DB	00H
	DB	00H
	DB	095H
	DB	0f9H
	DB	0eH
	DB	09aH
	DB	0a3H
	DB	03H
	DB	03H
	DB	03H
	DB	03H
	DB	014H
	DB	0b2H
	DB	028H
	DB	010H
	DB	0c1H
	DB	0c6H
	DB	03H
	DB	03H
	DB	0c7H
	DB	084H
	DB	0bfH
	DB	062H
	DB	060H
	DB	0fH
	DB	00H
	DB	00H
	DB	00H
	DB	00H
	DB	00H
	DB	00H
	DB	00H
	DB	00H
	DB	00H
	DB	00H
	DB	00H
	DB	00H
	DB	00H
	DB	00H
	DB	00H
	DB	00H
	DB	00H
	DB	00H
	DB	00H
	DB	00H
	DB	00H
	DB	00H
	DB	00H
	DB	00H
	DB	00H
	DB	00H
	DB	00H
	DB	00H
	DB	00H
	DB	028H
	DB	0c8H
	DB	03H
	DB	03H
	DB	0f6H
	DB	0e6H
	DB	010H
	DB	031H
	DB	021H
	DB	03H
	DB	03H
	DB	029H
	DB	096H
	DB	0e8H
	DB	011H
	DB	00H
	DB	00H
	DB	00H
	DB	04H
	DB	04bH
	DB	02aH
	DB	045H
	DB	038H
	DB	01cH
	DB	038H
	DB	0cH
	DB	0bH
	DB	02aH
	DB	045H
	DB	0cH
	DB	00H
	DB	00H
	DB	00H
	DB	00H
	DB	00H
	DB	00H
	DB	00H
	DB	00H
	DB	00H
	DB	00H
	DB	00H
	DB	00H
	DB	00H
	DB	00H
	DB	00H
	DB	00H
	DB	00H
	DB	00H
	DB	00H
	DB	00H
	DB	00H
	DB	00H
	DB	00H
	DB	00H
	DB	00H
	DB	00H
	DB	00H
	DB	00H
	DB	00H
	DB	05aH
	DB	02aH
	DB	04aH
	DB	00H
	DB	00H
	DB	00H
	DB	00H
	DB	00H
	DB	00H
	DB	00H
	DB	00H
	DB	00H
	DB	00H
	DB	00H
	DB	00H
	DB	00H
	DB	00H
	DB	00H
	DB	031H
	DB	06H
	DB	0dH
	DB	039H
	DB	070H
	DB	037H
	DB	064H
	DB	00H
	DB	033H
	DB	053H
	DB	037H
	DB	0e2H
	DB	0dH
	DB	01bH
	DB	064H
	DB	039H
	DB	033H
	DB	064H
	DB	064H
	DB	033H
	DB	0dH
	DB	0dH
	DB	00H
	DB	033H
	DB	0a7H
	DB	086H
	DB	0a7H
	DB	00H
	DB	00H
	DB	00H
	DB	01bH
	DB	086H
	DB	03dH
	DB	019H
	DB	0a7H
	DB	064H
	DB	01bH
	DB	0dH
	DB	0dH
	DB	0dH
	DB	0dH
	DB	0dH
	DB	0dH
	DB	0dH
	DB	0dH
	DB	0dH
	DB	0dH
	DB	0dH
	DB	00H
	DB	018H
	DB	035H
	DB	0eH
	DB	0f6H
	DB	095H
	DB	022H
	DB	03H
	DB	03H
	DB	03H
	DB	03H
	DB	03H
	DB	03H
	DB	03H
	DB	03H
	DB	03H
	DB	03H
	DB	03H
	DB	03H
	DB	0eH
	DB	04eH
	DB	04eH
	DB	00H
	DB	0dH
	DB	0dH
	DB	019H
	DB	019H
	DB	019H
	DB	019H
	DB	019H
	DB	019H
	DB	019H
	DB	019H
	DB	019H
	DB	019H
	DB	019H
	DB	019H
	DB	019H
	DB	019H
	DB	019H
	DB	0dH
	DB	0dH
	DB	0dH
	DB	0dH
	DB	0dH
	DB	0dH
	DB	0dH
	DB	0dH
	DB	0dH
	DB	0dH
	DB	0dH
	DB	0dH
	DB	00H
	DB	016H
	DB	0c6H
	DB	03H
	DB	03H
	DB	0c3H
	DB	035H
	DB	02bH
	DB	0dH
	DB	014H
	DB	03H
	DB	03H
	DB	0c8H
	DB	028H
	DB	036H
	DB	016H
	DB	00H
	DB	0dH
	DB	0dH
	DB	04aH
	DB	02aH
	DB	05bH
	DB	05H
	DB	00H
	DB	00H
	DB	00H
	DB	00H
	DB	08H
	DB	02aH
	DB	045H
	DB	0cH
	DB	0dH
	DB	0cH
	DB	038H
	DB	045H
	DB	05bH
	DB	045H
	DB	038H
	DB	0cH
	DB	0dH
	DB	0dH
	DB	038H
	DB	045H
	DB	05bH
	DB	058H
	DB	0bH
	DB	0dH
	DB	0dH
	DB	038H
	DB	045H
	DB	05bH
	DB	058H
	DB	08H
	DB	00H
	DB	0dH
	DB	0dH
	DB	0bH
	DB	058H
	DB	04bH
	DB	05aH
	DB	057H
	DB	02aH
	DB	04aH
	DB	00H
	DB	00H
	DB	00H
	DB	00H
	DB	00H
	DB	00H
	DB	00H
	DB	00H
	DB	00H
	DB	00H
	DB	00H
	DB	00H
	DB	00H
	DB	00H
	DB	00H
	DB	031H
	DB	06H
	DB	0dH
	DB	0e2H
	DB	037H
	DB	063H
	DB	033H
	DB	0dH
	DB	0dH
	DB	0eaH
	DB	037H
	DB	04cH
	DB	0dH
	DB	059H
	DB	037H
	DB	063H
	DB	052H
	DB	037H
	DB	037H
	DB	04cH
	DB	033H
	DB	00H
	DB	039H
	DB	052H
	DB	037H
	DB	037H
	DB	037H
	DB	04cH
	DB	01bH
	DB	00H
	DB	04fH
	DB	037H
	DB	052H
	DB	04cH
	DB	037H
	DB	037H
	DB	063H
	DB	01bH
	DB	0dH
	DB	018H
	DB	018H
	DB	018H
	DB	018H
	DB	018H
	DB	018H
	DB	018H
	DB	018H
	DB	018H
	DB	018H
	DB	0dH
	DB	027H
	DB	014H
	DB	0eH
	DB	02bH
	DB	02eH
	DB	022H
	DB	03H
	DB	03H
	DB	03H
	DB	03H
	DB	03H
	DB	03H
	DB	03H
	DB	03H
	DB	03H
	DB	029H
	DB	0c2H
	DB	020H
	DB	06H
	DB	0aH
	DB	018H
	DB	018H
	DB	018H
	DB	0dH
	DB	0fH
	DB	0fH
	DB	0fH
	DB	0fH
	DB	0fH
	DB	0fH
	DB	0fH
	DB	0fH
	DB	0fH
	DB	0fH
	DB	0fH
	DB	0fH
	DB	093H
	DB	018H
	DB	018H
	DB	018H
	DB	018H
	DB	018H
	DB	018H
	DB	018H
	DB	018H
	DB	018H
	DB	018H
	DB	018H
	DB	018H
	DB	018H
	DB	0dH
	DB	011H
	DB	022H
	DB	03H
	DB	03H
	DB	0c4H
	DB	030H
	DB	036H
	DB	031H
	DB	035H
	DB	03H
	DB	03H
	DB	03H
	DB	089H
	DB	0f4H
	DB	028H
	DB	0dH
	DB	018H
	DB	0dH
	DB	045H
	DB	02aH
	DB	057H
	DB	00H
	DB	019H
	DB	019H
	DB	019H
	DB	0dH
	DB	08H
	DB	02aH
	DB	045H
	DB	0cH
	DB	0dH
	DB	05aH
	DB	02aH
	DB	04bH
	DB	04aH
	DB	04bH
	DB	02aH
	DB	05aH
	DB	0dH
	DB	067H
	DB	02aH
	DB	058H
	DB	04aH
	DB	057H
	DB	08H
	DB	0dH
	DB	04aH
	DB	02aH
	DB	045H
	DB	05aH
	DB	05bH
	DB	02aH
	DB	01cH
	DB	0dH
	DB	05H
	DB	05bH
	DB	02aH
	DB	045H
	DB	045H
	DB	02aH
	DB	02aH
	DB	04aH
	DB	0dH
	DB	0dH
	DB	00H
	DB	00H
	DB	00H
	DB	00H
	DB	00H
	DB	00H
	DB	00H
	DB	00H
	DB	00H
	DB	00H
	DB	00H
	DB	00H
	DB	00H
	DB	07H
	DB	01fH
	DB	0dH
	DB	0f3H
	DB	037H
	DB	052H
	DB	0cH
	DB	0dH
	DB	0dH
	DB	059H
	DB	037H
	DB	053H
	DB	0dH
	DB	050H
	DB	037H
	DB	037H
	DB	069H
	DB	0eaH
	DB	070H
	DB	037H
	DB	050H
	DB	00H
	DB	052H
	DB	037H
	DB	0eaH
	DB	039H
	DB	04cH
	DB	037H
	DB	0f3H
	DB	00H
	DB	04fH
	DB	037H
	DB	037H
	DB	0f3H
	DB	059H
	DB	070H
	DB	037H
	DB	04fH
	DB	0dH
	DB	0aH
	DB	0aH
	DB	0aH
	DB	0aH
	DB	0aH
	DB	0aH
	DB	0aH
	DB	0aH
	DB	0aH
	DB	0aH
	DB	018H
	DB	0aH
	DB	089H
	DB	0c3H
	DB	0eH
	DB	02bH
	DB	016H
	DB	0f6H
	DB	029H
	DB	03H
	DB	03H
	DB	03H
	DB	0c8H
	DB	0fdH
	DB	0eH
	DB	089H
	DB	02eH
	DB	028H
	DB	02eH
	DB	011H
	DB	018H
	DB	0aH
	DB	0aH
	DB	0aH
	DB	0aH
	DB	031H
	DB	0fH
	DB	0fH
	DB	0fH
	DB	0fH
	DB	0fH
	DB	0fH
	DB	0fH
	DB	0fH
	DB	026H
	DB	0fH
	DB	0aH
	DB	0aH
	DB	0aH
	DB	0aH
	DB	0aH
	DB	0aH
	DB	0aH
	DB	0aH
	DB	0aH
	DB	0aH
	DB	0aH
	DB	0aH
	DB	0aH
	DB	0aH
	DB	0aH
	DB	0aH
	DB	031H
	DB	021H
	DB	03H
	DB	03H
	DB	0a4H
	DB	02eH
	DB	034H
	DB	07H
	DB	0b2H
	DB	03H
	DB	03H
	DB	03H
	DB	0e6H
	DB	028H
	DB	07dH
	DB	018H
	DB	0aH
	DB	04H
	DB	04bH
	DB	02aH
	DB	067H
	DB	019H
	DB	019H
	DB	0fH
	DB	0fH
	DB	0dH
	DB	08H
	DB	02aH
	DB	045H
	DB	0dH
	DB	0bH
	DB	02aH
	DB	05bH
	DB	05H
	DB	0dH
	DB	0bH
	DB	02aH
	DB	02aH
	DB	05H
	DB	057H
	DB	02aH
	DB	0bH
	DB	0dH
	DB	0dH
	DB	0dH
	DB	05H
	DB	02aH
	DB	05bH
	DB	04H
	DB	0dH
	DB	01cH
	DB	02aH
	DB	058H
	DB	0dH
	DB	067H
	DB	02aH
	DB	045H
	DB	0dH
	DB	0dH
	DB	045H
	DB	02aH
	DB	04aH
	DB	0dH
	DB	0dH
	DB	00H
	DB	00H
	DB	00H
	DB	00H
	DB	00H
	DB	00H
	DB	00H
	DB	00H
	DB	00H
	DB	00H
	DB	00H
	DB	00H
	DB	00H
	DB	07H
	DB	01fH
	DB	018H
	DB	069H
	DB	037H
	DB	052H
	DB	031H
	DB	0aH
	DB	0dH
	DB	059H
	DB	037H
	DB	0f5H
	DB	0cH
	DB	050H
	DB	037H
	DB	063H
	DB	0dH
	DB	0dH
	DB	069H
	DB	037H
	DB	069H
	DB	064H
	DB	037H
	DB	070H
	DB	039H
	DB	0cH
	DB	086H
	DB	037H
	DB	0f5H
	DB	00H
	DB	04fH
	DB	037H
	DB	052H
	DB	00H
	DB	00H
	DB	04cH
	DB	037H
	DB	050H
	DB	018H
	DB	0aH
	DB	07H
	DB	07H
	DB	07H
	DB	07H
	DB	07H
	DB	07H
	DB	07H
	DB	07H
	DB	07H
	DB	0aH
	DB	018H
	DB	01dH
	DB	0e7H
	DB	0c3H
	DB	0eH
	DB	0f6H
	DB	028H
	DB	028H
	DB	09aH
	DB	0b4H
	DB	020H
	DB	028H
	DB	028H
	DB	02eH
	DB	0b4H
	DB	02eH
	DB	095H
	DB	018H
	DB	018H
	DB	0aH
	DB	0aH
	DB	07H
	DB	07H
	DB	07H
	DB	07H
	DB	031H
	DB	026H
	DB	026H
	DB	026H
	DB	026H
	DB	026H
	DB	026H
	DB	026H
	DB	0fH
	DB	0aH
	DB	07H
	DB	07H
	DB	07H
	DB	07H
	DB	07H
	DB	07H
	DB	07H
	DB	07H
	DB	07H
	DB	07H
	DB	07H
	DB	07H
	DB	07H
	DB	07H
	DB	07H
	DB	0aH
	DB	031H
	DB	0c4H
	DB	03H
	DB	03H
	DB	0fdH
	DB	028H
	DB	034H
	DB	06H
	DB	08dH
	DB	0c8H
	DB	03H
	DB	03H
	DB	0f9H
	DB	06bH
	DB	0bbH
	DB	0aH
	DB	0aH
	DB	04H
	DB	04bH
	DB	02aH
	DB	067H
	DB	019H
	DB	0fH
	DB	0fH
	DB	026H
	DB	093H
	DB	08H
	DB	02aH
	DB	045H
	DB	0dH
	DB	067H
	DB	02aH
	DB	058H
	DB	0dH
	DB	018H
	DB	0dH
	DB	045H
	DB	02aH
	DB	01cH
	DB	038H
	DB	02aH
	DB	02aH
	DB	045H
	DB	038H
	DB	0dH
	DB	01cH
	DB	02aH
	DB	05bH
	DB	05aH
	DB	04aH
	DB	057H
	DB	02aH
	DB	05bH
	DB	0cH
	DB	057H
	DB	02aH
	DB	05aH
	DB	0dH
	DB	0dH
	DB	05aH
	DB	02aH
	DB	04aH
	DB	0dH
	DB	018H
	DB	00H
	DB	00H
	DB	00H
	DB	00H
	DB	00H
	DB	00H
	DB	00H
	DB	00H
	DB	00H
	DB	00H
	DB	00H
	DB	00H
	DB	00H
	DB	0a6H
	DB	017H
	DB	0aH
	DB	0f3H
	DB	037H
	DB	052H
	DB	031H
	DB	0aH
	DB	0aH
	DB	059H
	DB	037H
	DB	053H
	DB	0dH
	DB	050H
	DB	037H
	DB	04cH
	DB	0dH
	DB	0dH
	DB	059H
	DB	037H
	DB	04cH
	DB	04fH
	DB	037H
	DB	037H
	DB	053H
	DB	053H
	DB	053H
	DB	037H
	DB	070H
	DB	033H
	DB	04fH
	DB	037H
	DB	052H
	DB	0cH
	DB	0dH
	DB	04cH
	DB	037H
	DB	050H
	DB	018H
	DB	07H
	DB	07H
	DB	07H
	DB	07H
	DB	07H
	DB	07H
	DB	07H
	DB	07H
	DB	07H
	DB	07H
	DB	07H
	DB	07H
	DB	018H
	DB	01dH
	DB	089H
	DB	0c2H
	DB	0eH
	DB	0eH
	DB	0c3H
	DB	035H
	DB	0e3H
	DB	010H
	DB	0b2H
	DB	089H
	DB	066H
	DB	011H
	DB	018H
	DB	018H
	DB	0aH
	DB	07H
	DB	07H
	DB	07H
	DB	07H
	DB	07H
	DB	07H
	DB	07H
	DB	07H
	DB	026H
	DB	048H
	DB	048H
	DB	048H
	DB	048H
	DB	048H
	DB	048H
	DB	07H
	DB	07H
	DB	07H
	DB	07H
	DB	07H
	DB	07H
	DB	07H
	DB	07H
	DB	07H
	DB	07H
	DB	07H
	DB	07H
	DB	07H
	DB	07H
	DB	07H
	DB	07H
	DB	07H
	DB	07H
	DB	031H
	DB	0eH
	DB	03H
	DB	03H
	DB	029H
	DB	09aH
	DB	0f9H
	DB	017H
	DB	095H
	DB	029H
	DB	03H
	DB	03H
	DB	0eH
	DB	020H
	DB	0a1H
	DB	013H
	DB	07H
	DB	0aH
	DB	058H
	DB	02aH
	DB	057H
	DB	0fH
	DB	026H
	DB	026H
	DB	026H
	DB	0fH
	DB	08H
	DB	02aH
	DB	045H
	DB	0dH
	DB	04aH
	DB	02aH
	DB	058H
	DB	0dH
	DB	0aH
	DB	018H
	DB	045H
	DB	02aH
	DB	067H
	DB	0dH
	DB	067H
	DB	04bH
	DB	02aH
	DB	02aH
	DB	05aH
	DB	038H
	DB	02aH
	DB	05bH
	DB	057H
	DB	058H
	DB	057H
	DB	057H
	DB	05aH
	DB	0dH
	DB	057H
	DB	02aH
	DB	05aH
	DB	0dH
	DB	0dH
	DB	05aH
	DB	02aH
	DB	04aH
	DB	0dH
	DB	018H
	DB	00H
	DB	00H
	DB	00H
	DB	00H
	DB	00H
	DB	00H
	DB	00H
	DB	00H
	DB	00H
	DB	00H
	DB	00H
	DB	00H
	DB	00H
	DB	0a6H
	DB	017H
	DB	0aH
	DB	050H
	DB	037H
	DB	063H
	DB	031H
	DB	07H
	DB	0aH
	DB	06fH
	DB	037H
	DB	04cH
	DB	0dH
	DB	059H
	DB	037H
	DB	04cH
	DB	0dH
	DB	0dH
	DB	059H
	DB	037H
	DB	04cH
	DB	04fH
	DB	037H
	DB	053H
	DB	04fH
	DB	04fH
	DB	04fH
	DB	04fH
	DB	086H
	DB	00H
	DB	04fH
	DB	037H
	DB	052H
	DB	033H
	DB	0dH
	DB	04cH
	DB	037H
	DB	050H
	DB	018H
	DB	07H
	DB	013H
	DB	013H
	DB	013H
	DB	013H
	DB	013H
	DB	013H
	DB	013H
	DB	013H
	DB	013H
	DB	013H
	DB	07H
	DB	07H
	DB	0aH
	DB	0aH
	DB	027H
	DB	010H
	DB	035H
	DB	0e6H
	DB	0bbH
	DB	07dH
	DB	02eH
	DB	095H
	DB	018H
	DB	018H
	DB	0aH
	DB	07H
	DB	07H
	DB	07H
	DB	013H
	DB	013H
	DB	013H
	DB	013H
	DB	013H
	DB	013H
	DB	013H
	DB	013H
	DB	011H
	DB	04eH
	DB	048H
	DB	048H
	DB	048H
	DB	048H
	DB	03eH
	DB	013H
	DB	013H
	DB	013H
	DB	013H
	DB	013H
	DB	013H
	DB	013H
	DB	013H
	DB	013H
	DB	013H
	DB	013H
	DB	013H
	DB	013H
	DB	013H
	DB	013H
	DB	013H
	DB	013H
	DB	013H
	DB	031H
	DB	0eH
	DB	03H
	DB	03H
	DB	0c6H
	DB	0b2H
	DB	0f9H
	DB	012H
	DB	011H
	DB	0c5H
	DB	03H
	DB	03H
	DB	0c4H
	DB	020H
	DB	0c1H
	DB	06H
	DB	07H
	DB	0aH
	DB	04aH
	DB	02aH
	DB	05bH
	DB	04H
	DB	026H
	DB	026H
	DB	026H
	DB	026H
	DB	08H
	DB	02aH
	DB	045H
	DB	0dH
	DB	038H
	DB	02aH
	DB	04bH
	DB	0dH
	DB	0aH
	DB	04H
	DB	04bH
	DB	02aH
	DB	01cH
	DB	093H
	DB	093H
	DB	0dH
	DB	01cH
	DB	02aH
	DB	04bH
	DB	038H
	DB	02aH
	DB	045H
	DB	00H
	DB	0dH
	DB	0dH
	DB	0dH
	DB	0dH
	DB	0dH
	DB	057H
	DB	02aH
	DB	057H
	DB	0dH
	DB	0dH
	DB	058H
	DB	02aH
	DB	04aH
	DB	093H
	DB	0aH
	DB	00H
	DB	00H
	DB	00H
	DB	00H
	DB	00H
	DB	00H
	DB	00H
	DB	00H
	DB	00H
	DB	00H
	DB	00H
	DB	00H
	DB	00H
	DB	011H
	DB	025H
	DB	013H
	DB	039H
	DB	070H
	DB	037H
	DB	064H
	DB	0aH
	DB	031H
	DB	053H
	DB	037H
	DB	050H
	DB	0dH
	DB	059H
	DB	037H
	DB	053H
	DB	031H
	DB	0dH
	DB	04cH
	DB	037H
	DB	06fH
	DB	039H
	DB	070H
	DB	070H
	DB	03dH
	DB	00H
	DB	00H
	DB	0cH
	DB	033H
	DB	0dH
	DB	04fH
	DB	037H
	DB	052H
	DB	033H
	DB	018H
	DB	04cH
	DB	037H
	DB	050H
	DB	0aH
	DB	013H
	DB	01dH
	DB	01dH
	DB	01dH
	DB	01dH
	DB	01dH
	DB	01dH
	DB	01dH
	DB	01dH
	DB	01dH
	DB	01dH
	DB	01dH
	DB	013H
	DB	07H
	DB	07H
	DB	0aH
	DB	0aH
	DB	031H
	DB	07H
	DB	0aH
	DB	0aH
	DB	018H
	DB	0aH
	DB	07H
	DB	07H
	DB	07H
	DB	013H
	DB	013H
	DB	013H
	DB	01dH
	DB	01dH
	DB	01dH
	DB	01dH
	DB	01dH
	DB	01dH
	DB	01dH
	DB	07fH
	DB	01dH
	DB	04eH
	DB	04eH
	DB	04eH
	DB	04eH
	DB	04eH
	DB	068H
	DB	07fH
	DB	01dH
	DB	01dH
	DB	01dH
	DB	01dH
	DB	01dH
	DB	01dH
	DB	01dH
	DB	01dH
	DB	01dH
	DB	01dH
	DB	01dH
	DB	01dH
	DB	01dH
	DB	01dH
	DB	01dH
	DB	01dH
	DB	013H
	DB	031H
	DB	014H
	DB	03H
	DB	03H
	DB	01eH
	DB	010H
	DB	014H
	DB	0b0H
	DB	011H
	DB	0fdH
	DB	03H
	DB	03H
	DB	0c4H
	DB	020H
	DB	014H
	DB	032H
	DB	013H
	DB	013H
	DB	08bH
	DB	04bH
	DB	02aH
	DB	045H
	DB	038H
	DB	038H
	DB	05aH
	DB	01bH
	DB	0bH
	DB	02aH
	DB	045H
	DB	031H
	DB	04H
	DB	04bH
	DB	02aH
	DB	04aH
	DB	05H
	DB	05aH
	DB	02aH
	DB	04bH
	DB	0cH
	DB	08H
	DB	08H
	DB	05H
	DB	038H
	DB	02aH
	DB	04bH
	DB	04H
	DB	045H
	DB	02aH
	DB	04aH
	DB	05H
	DB	0bH
	DB	038H
	DB	0bH
	DB	093H
	DB	01cH
	DB	02aH
	DB	02aH
	DB	04aH
	DB	04aH
	DB	02aH
	DB	02aH
	DB	04aH
	DB	093H
	DB	0aH
	DB	00H
	DB	00H
	DB	00H
	DB	00H
	DB	00H
	DB	00H
	DB	00H
	DB	00H
	DB	00H
	DB	00H
	DB	00H
	DB	00H
	DB	00H
	DB	011H
	DB	025H
	DB	06H
	DB	07H
	DB	059H
	DB	037H
	DB	0f5H
	DB	06fH
	DB	063H
	DB	037H
	DB	052H
	DB	031H
	DB	0dH
	DB	059H
	DB	037H
	DB	037H
	DB	063H
	DB	052H
	DB	037H
	DB	037H
	DB	064H
	DB	00H
	DB	0f3H
	DB	037H
	DB	0f5H
	DB	0f3H
	DB	069H
	DB	053H
	DB	0e2H
	DB	0dH
	DB	04fH
	DB	037H
	DB	052H
	DB	033H
	DB	0aH
	DB	04cH
	DB	037H
	DB	050H
	DB	0aH
	DB	01dH
	DB	01dH
	DB	06H
	DB	06H
	DB	06H
	DB	06H
	DB	06H
	DB	06H
	DB	06H
	DB	06H
	DB	06H
	DB	01dH
	DB	01dH
	DB	01dH
	DB	01dH
	DB	013H
	DB	07H
	DB	07H
	DB	07H
	DB	07H
	DB	07H
	DB	013H
	DB	013H
	DB	01dH
	DB	01dH
	DB	01dH
	DB	01dH
	DB	01dH
	DB	01dH
	DB	06H
	DB	06H
	DB	06H
	DB	06H
	DB	06H
	DB	06H
	DB	06H
	DB	06H
	DB	07fH
	DB	08cH
	DB	042H
	DB	042H
	DB	042H
	DB	042H
	DB	08cH
	DB	07fH
	DB	06H
	DB	06H
	DB	06H
	DB	06H
	DB	06H
	DB	06H
	DB	06H
	DB	06H
	DB	06H
	DB	06H
	DB	06H
	DB	06H
	DB	06H
	DB	06H
	DB	06H
	DB	06H
	DB	06H
	DB	031H
	DB	034H
	DB	03H
	DB	03H
	DB	0c8H
	DB	010H
	DB	0e8H
	DB	027H
	DB	0b2H
	DB	0c8H
	DB	03H
	DB	03H
	DB	014H
	DB	028H
	DB	014H
	DB	017H
	DB	013H
	DB	06H
	DB	0a6H
	DB	0bH
	DB	058H
	DB	02aH
	DB	02aH
	DB	02aH
	DB	05bH
	DB	02dH
	DB	0bH
	DB	02aH
	DB	045H
	DB	031H
	DB	0a6H
	DB	0bH
	DB	045H
	DB	02aH
	DB	02aH
	DB	02aH
	DB	04bH
	DB	0bH
	DB	0dH
	DB	058H
	DB	02aH
	DB	02aH
	DB	02aH
	DB	05bH
	DB	08H
	DB	093H
	DB	0bH
	DB	045H
	DB	02aH
	DB	02aH
	DB	02aH
	DB	02aH
	DB	01cH
	DB	0a6H
	DB	0aH
	DB	057H
	DB	02aH
	DB	02aH
	DB	04bH
	DB	058H
	DB	02aH
	DB	04aH
	DB	093H
	DB	07H
	DB	00H
	DB	00H
	DB	00H
	DB	00H
	DB	00H
	DB	00H
	DB	00H
	DB	00H
	DB	00H
	DB	00H
	DB	00H
	DB	00H
	DB	00H
	DB	011H
	DB	02cH
	DB	06H
	DB	06H
	DB	07H
	DB	0e2H
	DB	052H
	DB	053H
	DB	063H
	DB	0eaH
	DB	01bH
	DB	0aH
	DB	0aH
	DB	059H
	DB	037H
	DB	052H
	DB	050H
	DB	053H
	DB	063H
	DB	04fH
	DB	0dH
	DB	031H
	DB	031H
	DB	050H
	DB	052H
	DB	053H
	DB	063H
	DB	04cH
	DB	064H
	DB	031H
	DB	086H
	DB	0f5H
	DB	0f3H
	DB	031H
	DB	031H
	DB	06fH
	DB	0f5H
	DB	04fH
	DB	0aH
	DB	01dH
	DB	06H
	DB	06H
	DB	06H
	DB	06H
	DB	06H
	DB	06H
	DB	06H
	DB	06H
	DB	06H
	DB	06H
	DB	06H
	DB	06H
	DB	06H
	DB	040H
	DB	01dH
	DB	01dH
	DB	01dH
	DB	01dH
	DB	01dH
	DB	01dH
	DB	06H
	DB	06H
	DB	06H
	DB	06H
	DB	06H
	DB	06H
	DB	06H
	DB	06H
	DB	06H
	DB	06H
	DB	06H
	DB	06H
	DB	06H
	DB	06H
	DB	06H
	DB	06H
	DB	06H
	DB	095H
	DB	08cH
	DB	0abH
	DB	043H
	DB	043H
	DB	0abH
	DB	06H
	DB	06H
	DB	06H
	DB	06H
	DB	06H
	DB	06H
	DB	06H
	DB	06H
	DB	06H
	DB	06H
	DB	06H
	DB	06H
	DB	06H
	DB	06H
	DB	06H
	DB	06H
	DB	06H
	DB	06H
	DB	018H
	DB	09fH
	DB	03H
	DB	03H
	DB	03H
	DB	0baH
	DB	02eH
	DB	03aH
	DB	0c6H
	DB	03H
	DB	03H
	DB	03H
	DB	035H
	DB	0e3H
	DB	014H
	DB	017H
	DB	01dH
	DB	06H
	DB	06H
	DB	0a6H
	DB	031H
	DB	0bH
	DB	01cH
	DB	08H
	DB	01bH
	DB	03eH
	DB	08bH
	DB	01cH
	DB	08H
	DB	07H
	DB	01dH
	DB	0a6H
	DB	031H
	DB	08H
	DB	01cH
	DB	08H
	DB	031H
	DB	031H
	DB	07H
	DB	08bH
	DB	08H
	DB	01cH
	DB	08H
	DB	04H
	DB	031H
	DB	07H
	DB	0a6H
	DB	031H
	DB	0bH
	DB	01cH
	DB	08H
	DB	08bH
	DB	0a6H
	DB	01dH
	DB	01dH
	DB	031H
	DB	08H
	DB	08H
	DB	031H
	DB	05H
	DB	01cH
	DB	05H
	DB	0a6H
	DB	07H
	DB	00H
	DB	00H
	DB	00H
	DB	00H
	DB	00H
	DB	00H
	DB	00H
	DB	00H
	DB	00H
	DB	00H
	DB	00H
	DB	00H
	DB	00H
	DB	031H
	DB	017H
	DB	01fH
	DB	01fH
	DB	06H
	DB	07H
	DB	031H
	DB	01bH
	DB	011H
	DB	0aH
	DB	07H
	DB	011H
	DB	07H
	DB	059H
	DB	037H
	DB	04cH
	DB	0dH
	DB	011H
	DB	011H
	DB	0aH
	DB	011H
	DB	011H
	DB	011H
	DB	031H
	DB	031H
	DB	01bH
	DB	01bH
	DB	0aH
	DB	011H
	DB	040H
	DB	040H
	DB	011H
	DB	01bH
	DB	011H
	DB	040H
	DB	040H
	DB	011H
	DB	011H
	DB	013H
	DB	06H
	DB	01fH
	DB	01fH
	DB	01fH
	DB	01fH
	DB	01fH
	DB	01fH
	DB	01fH
	DB	01fH
	DB	01fH
	DB	01fH
	DB	01fH
	DB	06H
	DB	06H
	DB	01aH
	DB	06H
	DB	01fH
	DB	06H
	DB	06H
	DB	06H
	DB	06H
	DB	01fH
	DB	01fH
	DB	01fH
	DB	01fH
	DB	01fH
	DB	01fH
	DB	01fH
	DB	01fH
	DB	01fH
	DB	01fH
	DB	01fH
	DB	01fH
	DB	01fH
	DB	01fH
	DB	01fH
	DB	01fH
	DB	01fH
	DB	01fH
	DB	01fH
	DB	06H
	DB	016H
	DB	083H
	DB	083H
	DB	01fH
	DB	06H
	DB	01fH
	DB	01fH
	DB	01fH
	DB	01fH
	DB	01fH
	DB	01fH
	DB	01fH
	DB	01fH
	DB	01fH
	DB	01fH
	DB	01fH
	DB	01fH
	DB	01fH
	DB	01fH
	DB	01fH
	DB	01fH
	DB	013H
	DB	010H
	DB	03H
	DB	03H
	DB	03H
	DB	01eH
	DB	0c8H
	DB	03H
	DB	03H
	DB	03H
	DB	03H
	DB	022H
	DB	028H
	DB	014H
	DB	0a3H
	DB	01fH
	DB	06H
	DB	01fH
	DB	01fH
	DB	06H
	DB	01dH
	DB	011H
	DB	026H
	DB	026H
	DB	048H
	DB	068H
	DB	01dH
	DB	0a6H
	DB	0a6H
	DB	011H
	DB	01dH
	DB	06H
	DB	01dH
	DB	0a6H
	DB	0a6H
	DB	0a6H
	DB	0a6H
	DB	07H
	DB	01dH
	DB	01dH
	DB	01dH
	DB	0a6H
	DB	0a6H
	DB	0a6H
	DB	07H
	DB	013H
	DB	01dH
	DB	01dH
	DB	0a6H
	DB	0a6H
	DB	0a6H
	DB	01dH
	DB	01dH
	DB	06H
	DB	06H
	DB	06H
	DB	0a6H
	DB	0a6H
	DB	0a6H
	DB	0a6H
	DB	0a6H
	DB	0a6H
	DB	013H
	DB	07H
	DB	00H
	DB	00H
	DB	00H
	DB	00H
	DB	00H
	DB	00H
	DB	00H
	DB	00H
	DB	00H
	DB	00H
	DB	00H
	DB	00H
	DB	00H
	DB	00H
	DB	01dH
	DB	06H
	DB	01fH
	DB	01fH
	DB	06H
	DB	01dH
	DB	013H
	DB	013H
	DB	01dH
	DB	01dH
	DB	01dH
	DB	013H
	DB	059H
	DB	037H
	DB	04cH
	DB	0dH
	DB	013H
	DB	013H
	DB	013H
	DB	01dH
	DB	06H
	DB	06H
	DB	040H
	DB	011H
	DB	011H
	DB	011H
	DB	011H
	DB	01dH
	DB	06H
	DB	06H
	DB	01dH
	DB	013H
	DB	01dH
	DB	06H
	DB	06H
	DB	011H
	DB	01bH
	DB	01dH
	DB	06H
	DB	01fH
	DB	01fH
	DB	01fH
	DB	01fH
	DB	01fH
	DB	01fH
	DB	01fH
	DB	01fH
	DB	01fH
	DB	01fH
	DB	01fH
	DB	01fH
	DB	01fH
	DB	01fH
	DB	01fH
	DB	01fH
	DB	01fH
	DB	01fH
	DB	01aH
	DB	01fH
	DB	01fH
	DB	01fH
	DB	01fH
	DB	01fH
	DB	01fH
	DB	01fH
	DB	01fH
	DB	01fH
	DB	01fH
	DB	01fH
	DB	01fH
	DB	01fH
	DB	01fH
	DB	01fH
	DB	01fH
	DB	01fH
	DB	01fH
	DB	01fH
	DB	01fH
	DB	01fH
	DB	01fH
	DB	01fH
	DB	01fH
	DB	01fH
	DB	01fH
	DB	01fH
	DB	01fH
	DB	01fH
	DB	01fH
	DB	01fH
	DB	01fH
	DB	01fH
	DB	01fH
	DB	01fH
	DB	01fH
	DB	01fH
	DB	01fH
	DB	01fH
	DB	01fH
	DB	01fH
	DB	01fH
	DB	06H
	DB	095H
	DB	029H
	DB	03H
	DB	03H
	DB	03H
	DB	03H
	DB	03H
	DB	03H
	DB	03H
	DB	021H
	DB	027H
	DB	0b9H
	DB	0c4H
	DB	0b8H
	DB	06H
	DB	06H
	DB	01fH
	DB	01fH
	DB	01fH
	DB	06H
	DB	06H
	DB	011H
	DB	03bH
	DB	0aaH
	DB	068H
	DB	06H
	DB	06H
	DB	01dH
	DB	01dH
	DB	06H
	DB	01fH
	DB	06H
	DB	06H
	DB	01dH
	DB	01dH
	DB	01dH
	DB	01dH
	DB	06H
	DB	06H
	DB	06H
	DB	06H
	DB	01dH
	DB	01dH
	DB	01dH
	DB	06H
	DB	01fH
	DB	06H
	DB	06H
	DB	01dH
	DB	01dH
	DB	01dH
	DB	01dH
	DB	06H
	DB	01fH
	DB	01fH
	DB	06H
	DB	01dH
	DB	01dH
	DB	01dH
	DB	01dH
	DB	01dH
	DB	07H
	DB	0dH
	DB	00H
	DB	00H
	DB	00H
	DB	00H
	DB	00H
	DB	00H
	DB	00H
	DB	00H
	DB	00H
	DB	00H
	DB	00H
	DB	00H
	DB	00H
	DB	00H
	DB	0dH
	DB	07H
	DB	07H
	DB	013H
	DB	013H
	DB	07H
	DB	07H
	DB	07H
	DB	07H
	DB	07H
	DB	07H
	DB	07H
	DB	01bH
	DB	0a7H
	DB	03dH
	DB	018H
	DB	07H
	DB	07H
	DB	07H
	DB	07H
	DB	07H
	DB	013H
	DB	07H
	DB	07H
	DB	031H
	DB	031H
	DB	031H
	DB	07H
	DB	07H
	DB	07H
	DB	07H
	DB	07H
	DB	07H
	DB	07H
	DB	013H
	DB	031H
	DB	01bH
	DB	01bH
	DB	07H
	DB	013H
	DB	013H
	DB	013H
	DB	013H
	DB	013H
	DB	013H
	DB	013H
	DB	013H
	DB	013H
	DB	013H
	DB	013H
	DB	013H
	DB	013H
	DB	013H
	DB	013H
	DB	013H
	DB	013H
	DB	07H
	DB	01bH
	DB	011H
	DB	013H
	DB	07H
	DB	013H
	DB	013H
	DB	013H
	DB	013H
	DB	013H
	DB	013H
	DB	013H
	DB	013H
	DB	013H
	DB	013H
	DB	013H
	DB	013H
	DB	013H
	DB	013H
	DB	013H
	DB	013H
	DB	013H
	DB	013H
	DB	013H
	DB	013H
	DB	013H
	DB	013H
	DB	013H
	DB	013H
	DB	013H
	DB	013H
	DB	013H
	DB	013H
	DB	013H
	DB	013H
	DB	013H
	DB	013H
	DB	013H
	DB	013H
	DB	013H
	DB	013H
	DB	013H
	DB	013H
	DB	013H
	DB	013H
	DB	018H
	DB	0b9H
	DB	03H
	DB	03H
	DB	03H
	DB	03H
	DB	03H
	DB	022H
	DB	035H
	DB	0b0H
	DB	0f4H
	DB	0eH
	DB	0f6H
	DB	032H
	DB	0aH
	DB	07H
	DB	013H
	DB	013H
	DB	013H
	DB	013H
	DB	07H
	DB	07H
	DB	026H
	DB	026H
	DB	011H
	DB	013H
	DB	07H
	DB	07H
	DB	07H
	DB	013H
	DB	013H
	DB	013H
	DB	07H
	DB	07H
	DB	07H
	DB	07H
	DB	07H
	DB	013H
	DB	013H
	DB	013H
	DB	07H
	DB	07H
	DB	07H
	DB	07H
	DB	013H
	DB	013H
	DB	013H
	DB	07H
	DB	07H
	DB	07H
	DB	07H
	DB	07H
	DB	013H
	DB	013H
	DB	013H
	DB	013H
	DB	07H
	DB	07H
	DB	07H
	DB	07H
	DB	07H
	DB	0dH
	DB	00H
	DB	00H
	DB	00H
	DB	00H
	DB	00H
	DB	00H
	DB	00H
	DB	00H
	DB	00H
	DB	00H
	DB	00H
	DB	00H
	DB	00H
	DB	00H
	DB	00H
	DB	00H
	DB	00H
	DB	00H
	DB	00H
	DB	00H
	DB	00H
	DB	00H
	DB	00H
	DB	00H
	DB	00H
	DB	00H
	DB	00H
	DB	00H
	DB	00H
	DB	00H
	DB	00H
	DB	00H
	DB	00H
	DB	00H
	DB	00H
	DB	00H
	DB	00H
	DB	00H
	DB	00H
	DB	00H
	DB	00H
	DB	00H
	DB	00H
	DB	00H
	DB	00H
	DB	00H
	DB	00H
	DB	00H
	DB	00H
	DB	00H
	DB	00H
	DB	00H
	DB	00H
	DB	00H
	DB	00H
	DB	00H
	DB	00H
	DB	00H
	DB	00H
	DB	00H
	DB	00H
	DB	00H
	DB	00H
	DB	00H
	DB	00H
	DB	00H
	DB	00H
	DB	00H
	DB	00H
	DB	00H
	DB	00H
	DB	00H
	DB	00H
	DB	00H
	DB	00H
	DB	00H
	DB	00H
	DB	00H
	DB	00H
	DB	00H
	DB	00H
	DB	00H
	DB	00H
	DB	00H
	DB	00H
	DB	00H
	DB	00H
	DB	00H
	DB	00H
	DB	00H
	DB	00H
	DB	00H
	DB	00H
	DB	00H
	DB	00H
	DB	00H
	DB	00H
	DB	00H
	DB	00H
	DB	00H
	DB	00H
	DB	00H
	DB	00H
	DB	00H
	DB	00H
	DB	00H
	DB	00H
	DB	00H
	DB	00H
	DB	00H
	DB	00H
	DB	00H
	DB	00H
	DB	00H
	DB	00H
	DB	00H
	DB	00H
	DB	00H
	DB	010H
	DB	0c4H
	DB	0fcH
	DB	014H
	DB	089H
	DB	09aH
	DB	0e8H
	DB	0eH
	DB	0c3H
	DB	035H
	DB	095H
	DB	00H
	DB	00H
	DB	00H
	DB	00H
	DB	00H
	DB	00H
	DB	00H
	DB	00H
	DB	00H
	DB	00H
	DB	00H
	DB	00H
	DB	00H
	DB	00H
	DB	00H
	DB	00H
	DB	00H
	DB	00H
	DB	00H
	DB	00H
	DB	00H
	DB	00H
	DB	00H
	DB	00H
	DB	00H
	DB	00H
	DB	00H
	DB	00H
	DB	00H
	DB	00H
	DB	00H
	DB	00H
	DB	00H
	DB	00H
	DB	00H
	DB	00H
	DB	00H
	DB	00H
	DB	00H
	DB	00H
	DB	00H
	DB	00H
	DB	00H
	DB	00H
	DB	00H
	DB	00H
	DB	00H
	DB	00H
	DB	00H
	DB	00H
	DB	00H
	DB	00H
	DB	00H
	DB	00H
	DB	00H
	DB	00H
	DB	00H
	DB	00H
	DB	00H
	DB	00H
	DB	00H
	DB	00H
	DB	00H
	DB	00H
	DB	00H
	DB	00H
	DB	00H
	DB	00H
	DB	00H
	DB	00H
	DB	00H
	DB	00H
	DB	00H
	DB	00H
	DB	00H
	DB	00H
	DB	00H
	DB	00H
	DB	00H
	DB	00H
	DB	00H
	DB	00H
	DB	00H
	DB	00H
	DB	00H
	DB	00H
	DB	00H
	DB	00H
	DB	00H
	DB	00H
	DB	00H
	DB	00H
	DB	00H
	DB	00H
	DB	00H
	DB	00H
	DB	00H
	DB	00H
	DB	00H
	DB	00H
	DB	00H
	DB	00H
	DB	00H
	DB	00H
	DB	00H
	DB	00H
	DB	00H
	DB	00H
	DB	00H
	DB	00H
	DB	00H
	DB	00H
	DB	00H
	DB	00H
	DB	00H
	DB	00H
	DB	00H
	DB	00H
	DB	00H
	DB	00H
	DB	00H
	DB	00H
	DB	00H
	DB	00H
	DB	00H
	DB	00H
	DB	00H
	DB	00H
	DB	00H
	DB	00H
	DB	00H
	DB	00H
	DB	00H
	DB	00H
	DB	00H
	DB	00H
	DB	00H
	DB	00H
	DB	00H
	DB	00H
	DB	00H
	DB	00H
	DB	00H
	DB	00H
	DB	00H
	DB	00H
	DB	00H
	DB	00H
	DB	00H
	DB	00H
	DB	00H
	DB	00H
	DB	00H
	DB	00H
	DB	00H
	DB	00H
	DB	00H
	DB	00H
	DB	00H
	DB	00H
	DB	00H
	DB	00H
	DB	00H
	DB	00H
	DB	00H
	DB	00H
	DB	00H
	DB	00H
	DB	0dH
	DB	02eH
	DB	010H
	DB	09fH
	DB	0c3H
	DB	014H
	DB	0e6H
	DB	08dH
	DB	0dH
	DB	00H
	DB	00H
	DB	00H
	DB	00H
	DB	00H
	DB	00H
	DB	00H
	DB	00H
	DB	00H
	DB	00H
	DB	00H
	DB	00H
	DB	00H
	DB	00H
	DB	00H
	DB	00H
	DB	00H
	DB	00H
	DB	00H
	DB	00H
	DB	00H
	DB	00H
	DB	00H
	DB	00H
	DB	00H
	DB	00H
	DB	00H
	DB	00H
	DB	00H
	DB	00H
	DB	00H
	DB	00H
	DB	00H
	DB	00H
	DB	00H
	DB	00H
	DB	00H
	DB	00H
	DB	00H
	DB	00H
	DB	00H
	DB	00H
	DB	00H
	DB	00H
	DB	00H
	DB	00H
	DB	00H
	DB	00H
	DB	00H
	DB	00H
	DB	00H
	DB	00H
	DB	00H
	DB	00H
	DB	00H
	DB	00H
	DB	00H
	DB	00H
	DB	00H
	DB	00H
	DB	00H
	DB	00H
	DB	00H
	DB	00H
	DB	00H
	DB	00H
	DB	00H
	DB	00H
	DB	00H
	DB	00H
	DB	00H
	DB	00H
	DB	00H
	DB	00H
	DB	00H
	DB	00H
	DB	00H
	DB	00H
	DB	00H
	DB	00H
	DB	00H
	DB	00H
	DB	00H
	DB	00H
	DB	00H
	DB	00H
	DB	00H
	DB	00H
	DB	00H
	DB	00H
	DB	00H
	DB	00H
	DB	00H
	DB	00H
	DB	00H
	DB	00H
	DB	00H
	DB	00H
	DB	00H
	DB	00H
	DB	00H
	DB	00H
	DB	00H
	DB	00H
	DB	00H
	DB	00H
	DB	00H
	DB	00H
	DB	00H
	DB	00H
	DB	00H
	DB	00H
	DB	00H
	DB	00H
	DB	00H
	DB	00H
	DB	00H
	DB	00H
	DB	00H
	DB	00H
	DB	00H
	DB	00H
	DB	00H
	DB	00H
	DB	00H
	DB	00H
	DB	00H
	DB	00H
	DB	00H
	DB	00H
	DB	00H
	DB	00H
	DB	00H
	DB	00H
	DB	00H
	DB	00H
	DB	00H
	DB	00H
	DB	00H
	DB	00H
	DB	00H
	DB	00H
	DB	00H
	DB	00H
	DB	00H
	DB	00H
	DB	00H
	DB	00H
	DB	00H
	DB	00H
	DB	00H
	DB	00H
	DB	00H
	DB	00H
	DB	00H
	DB	00H
	DB	00H
	DB	00H
	DB	00H
	DB	00H
	DB	00H
	DB	00H
	DB	00H
	DB	00H
	DB	00H
	DB	00H
	DB	00H
	DB	00H
	DB	00H
	DB	00H
	DB	031H
	DB	06bH
	DB	089H
	DB	0b2H
	DB	016H
	DB	0dH
	DB	00H
	DB	00H
	DB	00H
	DB	00H
	DB	00H
	DB	00H
	DB	00H
	DB	00H
	DB	00H
	DB	00H
	DB	00H
	DB	00H
	DB	00H
	DB	00H
	DB	00H
	DB	00H
	DB	00H
	DB	00H
	DB	00H
	DB	00H
	DB	00H
	DB	00H
	DB	00H
	DB	00H
	DB	00H
	DB	00H
	DB	00H
	DB	00H
	DB	00H
	DB	00H
	DB	00H
	DB	00H
	DB	00H
	DB	00H
	DB	00H
	DB	00H
	DB	00H
	DB	00H
	DB	00H
	DB	00H
	DB	00H
	DB	00H
	DB	00H
	DB	00H
	DB	00H
	DB	00H
	DB	00H
	DB	00H
	DB	00H
	DB	00H
	DB	00H
	DB	00H
	DB	00H
	DB	00H
	DB	00H
	DB	00H
	DB	00H
	DB	00H
	DB	00H
	DB	00H
	DB	00H
	DB	00H
	DB	00H
	DB	00H
	DB	00H
	DB	00H
	DB	00H
	DB	00H
	DB	00H
	DB	00H
	DB	00H
	DB	00H
	DB	00H
	DB	00H
	DB	00H
	DB	00H
	DB	00H
	DB	00H
	DB	00H
	DB	00H
	DB	00H
	DB	00H
	DB	00H
	DB	00H
	DB	00H
	DB	00H
	DB	00H
	DB	00H
	DB	00H
	DB	00H
	DB	00H
	DB	00H
	DB	00H
	DB	00H
	DB	00H
	DB	00H
	DB	00H
	DB	00H
	DB	00H
	DB	00H
	DB	00H
	DB	00H
	DB	00H
	DB	00H
	DB	00H
	DB	00H
	DB	00H
	DB	00H
	DB	00H
	DB	00H
	DB	00H
	DB	00H
	DB	00H
	DB	00H
	DB	00H
	DB	00H
	DB	00H
	DB	00H
	DB	00H
	DB	00H
	DB	00H
	DB	00H
	DB	00H
	DB	00H
	DB	00H
	DB	00H
	DB	00H
	DB	00H
	DB	00H
	DB	00H
	DB	00H
	DB	00H
	DB	00H
	DB	00H
	DB	00H
	DB	00H
	DB	00H
	DB	00H
	DB	00H
	DB	00H
	DB	00H
	DB	00H
	DB	00H
	DB	00H
	DB	00H
	DB	00H
	DB	00H
	DB	00H
	DB	00H
	DB	00H
	DB	00H
	DB	00H
	DB	00H
	DB	00H
	DB	00H
	DB	00H
	DB	00H
	DB	00H
	DB	00H
	DB	00H
	DB	00H
	DB	00H
	DB	00H
	DB	00H
	DB	00H
	DB	00H
	DB	00H
	DB	00H
	DB	00H
	DB	00H
	DB	00H
	DB	00H
	DB	00H
	DB	00H
	DB	00H
	DB	00H
	DB	00H
	DB	00H
	DB	00H
	DB	00H
	DB	00H
	DB	00H
	DB	00H
	DB	00H
	DB	00H
	DB	00H
	DB	00H
	DB	00H
	DB	00H
	DB	00H
	DB	00H
	DB	00H
	DB	00H
	DB	00H
	DB	00H
	DB	00H
	DB	00H
	DB	00H
	DB	00H
	DB	00H
	DB	00H
	DB	00H
	DB	00H
	DB	00H
	DB	00H
	DB	00H
	DB	00H
	DB	00H
	DB	00H
	DB	00H
	DB	00H
	DB	00H
	DB	00H
	DB	00H
	DB	00H
	DB	00H
	DB	00H
	DB	00H
	DB	00H
	DB	00H
	DB	00H
	DB	00H
	DB	00H
	DB	00H
	DB	00H
	DB	00H
	DB	00H
	DB	00H
	DB	00H
	DB	00H
	DB	00H
	DB	00H
	DB	00H
	DB	00H
	DB	00H
	DB	00H
	DB	00H
	DB	00H
	DB	00H
	DB	00H
	DB	00H
	DB	00H
	DB	00H
	DB	00H
	DB	00H
	DB	00H
	DB	00H
	DB	00H
	DB	00H
	DB	00H
	DB	00H
	DB	00H
	DB	00H
	DB	00H
	DB	00H
	DB	00H
	DB	00H
	DB	00H
	DB	00H
	DB	00H
	DB	00H
	DB	00H
	DB	00H
	DB	00H
	DB	00H
	DB	00H
	DB	00H
	DB	00H
	DB	00H
	DB	00H
	DB	00H
	DB	00H
	DB	00H
	DB	00H
	DB	00H
	DB	00H
	DB	00H
	DB	00H
	DB	00H
	DB	00H
	DB	00H
	DB	00H
	DB	00H
	DB	00H
	DB	00H
	DB	00H
	DB	00H
	DB	00H
	DB	00H
	DB	00H
	DB	00H
	DB	00H
	DB	00H
	DB	00H
	DB	00H
	DB	00H
	DB	00H
	DB	00H
	DB	00H
	DB	00H
	DB	00H
	DB	00H
	DB	00H
	DB	00H
	DB	00H
	DB	00H
	DB	00H
	DB	00H
	DB	00H
	DB	00H
	DB	00H
	DB	00H
	DB	00H
	DB	00H
	DB	00H
	DB	00H
	DB	00H
	DB	00H
	DB	00H
	DB	00H
	DB	00H
	DB	00H
	DB	00H
	DB	00H
	DB	00H
	DB	00H
	DB	00H
	DB	00H
	DB	00H
	DB	00H
	DB	00H
	DB	00H
	DB	00H
	DB	00H
	DB	00H
	DB	00H
	DB	00H
	DB	00H
	DB	00H
	DB	00H
	DB	00H
	DB	00H
	DB	00H
	DB	00H
	DB	00H
	DB	00H
	DB	00H
	DB	00H
	DB	00H
	DB	00H
	DB	00H
	DB	00H
	DB	00H
	DB	00H
	DB	00H
	DB	00H
	DB	00H
	DB	00H
	DB	00H
	DB	00H
	DB	00H
	DB	00H
	DB	00H
	DB	00H
	DB	00H
	DB	00H
	DB	00H
	DB	00H
	DB	00H
	DB	00H
	DB	00H
	DB	00H
	DB	00H
	DB	00H
	DB	00H
	DB	00H
	DB	00H
	DB	00H
	DB	00H
	DB	00H
	DB	00H
	DB	00H
	DB	00H
	DB	00H
	DB	00H
	DB	00H
	DB	00H
	DB	00H
	DB	00H
	DB	00H
	DB	00H
	DB	00H
	DB	00H
	DB	00H
	DB	00H
	DB	00H
	DB	00H
	DB	00H
	DB	00H
	DB	00H
	DB	00H
	DB	00H
	DB	00H
	DB	00H
	DB	00H
	DB	00H
	DB	00H
	DB	00H
	DB	00H
	DB	00H
	DB	00H
	DB	00H
	DB	00H
	DB	00H
	DB	00H
	DB	00H
	DB	00H
	DB	00H
	DB	00H
	DB	00H
	DB	00H
	DB	00H
	DB	00H
	DB	00H
	DB	00H
	DB	00H
	DB	00H
	DB	00H
	DB	00H
	DB	00H
	DB	00H
	DB	00H
	DB	00H
	DB	00H
	DB	00H
	DB	00H
	DB	00H
	DB	00H
	DB	00H
	DB	00H
	DB	02eH
	DB	0a4H
	DB	021H
	DB	021H
	DB	021H
	DB	021H
	DB	021H
	DB	021H
	DB	021H
	DB	021H
	DB	021H
	DB	021H
	DB	0c4H
	DB	095H
	DB	00H
	DB	00H
	DB	00H
	DB	00H
	DB	00H
	DB	00H
	DB	00H
	DB	00H
	DB	00H
	DB	00H
	DB	00H
	DB	00H
	DB	00H
	DB	00H
	DB	00H
	DB	00H
	DB	00H
	DB	00H
	DB	00H
	DB	00H
	DB	00H
	DB	00H
	DB	00H
	DB	00H
	DB	00H
	DB	00H
	DB	00H
	DB	00H
	DB	00H
	DB	00H
	DB	00H
	DB	00H
	DB	00H
	DB	00H
	DB	00H
	DB	00H
	DB	00H
	DB	00H
	DB	00H
	DB	095H
	DB	0c4H
	DB	021H
	DB	0fcH
	DB	036H
	DB	00H
	DB	00H
	DB	00H
	DB	00H
	DB	00H
	DB	00H
	DB	00H
	DB	00H
	DB	00H
	DB	00H
	DB	00H
	DB	00H
	DB	00H
	DB	00H
	DB	00H
	DB	014H
	DB	0fcH
	DB	021H
	DB	021H
	DB	021H
	DB	021H
	DB	021H
	DB	021H
	DB	021H
	DB	021H
	DB	021H
	DB	0fcH
	DB	02bH
	DB	00H
	DB	00H
	DB	00H
	DB	00H
	DB	00H
	DB	00H
	DB	00H
	DB	00H
	DB	00H
	DB	00H
	DB	00H
	DB	00H
	DB	00H
	DB	00H
	DB	00H
	DB	00H
	DB	00H
	DB	00H
	DB	00H
	DB	00H
	DB	00H
	DB	00H
	DB	00H
	DB	00H
	DB	00H
	DB	00H
	DB	00H
	DB	00H
	DB	00H
	DB	00H
	DB	00H
	DB	00H
	DB	00H
	DB	00H
	DB	00H
	DB	00H
	DB	00H
	DB	00H
	DB	00H
	DB	00H
	DB	00H
	DB	00H
	DB	00H
	DB	00H
	DB	00H
	DB	00H
	DB	00H
	DB	00H
	DB	00H
	DB	00H
	DB	00H
	DB	00H
	DB	00H
	DB	00H
	DB	00H
	DB	00H
	DB	00H
	DB	00H
	DB	00H
	DB	00H
	DB	00H
	DB	00H
	DB	00H
	DB	00H
	DB	00H
	DB	00H
	DB	00H
	DB	00H
	DB	00H
	DB	00H
	DB	00H
	DB	00H
	DB	00H
	DB	00H
	DB	00H
	DB	00H
	DB	00H
	DB	00H
	DB	00H
	DB	00H
	DB	00H
	DB	00H
	DB	00H
	DB	00H
	DB	00H
	DB	00H
	DB	00H
	DB	00H
	DB	00H
	DB	00H
	DB	00H
	DB	00H
	DB	0b4H
	DB	03H
	DB	03H
	DB	03H
	DB	03H
	DB	03H
	DB	03H
	DB	03H
	DB	03H
	DB	03H
	DB	03H
	DB	03H
	DB	03H
	DB	027H
	DB	00H
	DB	00H
	DB	00H
	DB	00H
	DB	00H
	DB	00H
	DB	00H
	DB	00H
	DB	00H
	DB	00H
	DB	00H
	DB	00H
	DB	00H
	DB	00H
	DB	00H
	DB	00H
	DB	00H
	DB	00H
	DB	00H
	DB	00H
	DB	00H
	DB	00H
	DB	00H
	DB	00H
	DB	00H
	DB	00H
	DB	00H
	DB	00H
	DB	00H
	DB	00H
	DB	00H
	DB	00H
	DB	00H
	DB	00H
	DB	00H
	DB	00H
	DB	00H
	DB	00H
	DB	00H
	DB	027H
	DB	03H
	DB	03H
	DB	03H
	DB	021H
	DB	00H
	DB	00H
	DB	00H
	DB	00H
	DB	00H
	DB	00H
	DB	00H
	DB	00H
	DB	00H
	DB	00H
	DB	00H
	DB	00H
	DB	00H
	DB	00H
	DB	00H
	DB	0c5H
	DB	03H
	DB	03H
	DB	03H
	DB	03H
	DB	03H
	DB	03H
	DB	03H
	DB	03H
	DB	03H
	DB	03H
	DB	03H
	DB	0eH
	DB	00H
	DB	00H
	DB	00H
	DB	00H
	DB	00H
	DB	00H
	DB	00H
	DB	00H
	DB	00H
	DB	00H
	DB	00H
	DB	00H
	DB	00H
	DB	00H
	DB	00H
	DB	00H
	DB	00H
	DB	00H
	DB	00H
	DB	00H
	DB	00H
	DB	00H
	DB	00H
	DB	00H
	DB	00H
	DB	00H
	DB	00H
	DB	00H
	DB	00H
	DB	00H
	DB	00H
	DB	00H
	DB	00H
	DB	00H
	DB	00H
	DB	00H
	DB	00H
	DB	00H
	DB	00H
	DB	00H
	DB	00H
	DB	00H
	DB	00H
	DB	00H
	DB	00H
	DB	00H
	DB	00H
	DB	00H
	DB	00H
	DB	00H
	DB	00H
	DB	00H
	DB	00H
	DB	00H
	DB	00H
	DB	00H
	DB	00H
	DB	00H
	DB	00H
	DB	00H
	DB	00H
	DB	00H
	DB	00H
	DB	00H
	DB	00H
	DB	00H
	DB	00H
	DB	00H
	DB	00H
	DB	00H
	DB	00H
	DB	00H
	DB	00H
	DB	00H
	DB	00H
	DB	00H
	DB	00H
	DB	00H
	DB	00H
	DB	00H
	DB	00H
	DB	00H
	DB	00H
	DB	00H
	DB	00H
	DB	00H
	DB	00H
	DB	00H
	DB	00H
	DB	00H
	DB	00H
	DB	00H
	DB	020H
	DB	03H
	DB	0c8H
	DB	0c8H
	DB	0c8H
	DB	03H
	DB	03H
	DB	03H
	DB	03H
	DB	0c8H
	DB	0c8H
	DB	0c8H
	DB	01eH
	DB	016H
	DB	00H
	DB	00H
	DB	00H
	DB	00H
	DB	00H
	DB	00H
	DB	00H
	DB	00H
	DB	00H
	DB	00H
	DB	00H
	DB	00H
	DB	00H
	DB	00H
	DB	00H
	DB	00H
	DB	00H
	DB	00H
	DB	00H
	DB	00H
	DB	00H
	DB	00H
	DB	00H
	DB	00H
	DB	00H
	DB	00H
	DB	00H
	DB	00H
	DB	00H
	DB	00H
	DB	00H
	DB	00H
	DB	00H
	DB	00H
	DB	00H
	DB	00H
	DB	00H
	DB	00H
	DB	00H
	DB	027H
	DB	03H
	DB	03H
	DB	03H
	DB	021H
	DB	00H
	DB	00H
	DB	00H
	DB	00H
	DB	00H
	DB	00H
	DB	00H
	DB	00H
	DB	00H
	DB	00H
	DB	00H
	DB	00H
	DB	00H
	DB	00H
	DB	00H
	DB	0a4H
	DB	03H
	DB	0c8H
	DB	0c8H
	DB	03H
	DB	03H
	DB	03H
	DB	03H
	DB	03H
	DB	0c8H
	DB	0c8H
	DB	03H
	DB	014H
	DB	00H
	DB	00H
	DB	00H
	DB	00H
	DB	00H
	DB	00H
	DB	00H
	DB	00H
	DB	00H
	DB	00H
	DB	00H
	DB	00H
	DB	00H
	DB	00H
	DB	00H
	DB	00H
	DB	00H
	DB	00H
	DB	00H
	DB	00H
	DB	00H
	DB	00H
	DB	00H
	DB	00H
	DB	00H
	DB	00H
	DB	00H
	DB	00H
	DB	00H
	DB	00H
	DB	00H
	DB	00H
	DB	00H
	DB	00H
	DB	00H
	DB	00H
	DB	00H
	DB	00H
	DB	00H
	DB	00H
	DB	00H
	DB	00H
	DB	00H
	DB	00H
	DB	00H
	DB	00H
	DB	00H
	DB	00H
	DB	00H
	DB	00H
	DB	00H
	DB	00H
	DB	00H
	DB	00H
	DB	00H
	DB	00H
	DB	00H
	DB	00H
	DB	00H
	DB	00H
	DB	00H
	DB	00H
	DB	00H
	DB	00H
	DB	00H
	DB	00H
	DB	00H
	DB	00H
	DB	00H
	DB	00H
	DB	00H
	DB	00H
	DB	00H
	DB	00H
	DB	00H
	DB	00H
	DB	00H
	DB	00H
	DB	00H
	DB	00H
	DB	00H
	DB	00H
	DB	00H
	DB	00H
	DB	00H
	DB	00H
	DB	00H
	DB	00H
	DB	00H
	DB	00H
	DB	00H
	DB	00H
	DB	031H
	DB	016H
	DB	016H
	DB	095H
	DB	0b0H
	DB	03H
	DB	03H
	DB	03H
	DB	03H
	DB	02eH
	DB	095H
	DB	016H
	DB	016H
	DB	093H
	DB	00H
	DB	00H
	DB	00H
	DB	00H
	DB	00H
	DB	00H
	DB	00H
	DB	00H
	DB	00H
	DB	00H
	DB	00H
	DB	00H
	DB	00H
	DB	00H
	DB	00H
	DB	00H
	DB	00H
	DB	00H
	DB	00H
	DB	00H
	DB	00H
	DB	00H
	DB	00H
	DB	00H
	DB	00H
	DB	00H
	DB	00H
	DB	00H
	DB	00H
	DB	00H
	DB	00H
	DB	00H
	DB	00H
	DB	00H
	DB	00H
	DB	00H
	DB	00H
	DB	00H
	DB	00H
	DB	027H
	DB	03H
	DB	03H
	DB	03H
	DB	021H
	DB	00H
	DB	00H
	DB	00H
	DB	00H
	DB	00H
	DB	00H
	DB	00H
	DB	00H
	DB	00H
	DB	00H
	DB	00H
	DB	00H
	DB	00H
	DB	00H
	DB	00H
	DB	095H
	DB	016H
	DB	016H
	DB	011H
	DB	0c4H
	DB	03H
	DB	03H
	DB	03H
	DB	0eH
	DB	011H
	DB	016H
	DB	016H
	DB	011H
	DB	00H
	DB	00H
	DB	00H
	DB	00H
	DB	00H
	DB	00H
	DB	00H
	DB	00H
	DB	00H
	DB	00H
	DB	00H
	DB	00H
	DB	00H
	DB	00H
	DB	00H
	DB	00H
	DB	00H
	DB	00H
	DB	00H
	DB	00H
	DB	00H
	DB	00H
	DB	00H
	DB	00H
	DB	00H
	DB	00H
	DB	00H
	DB	00H
	DB	00H
	DB	00H
	DB	00H
	DB	00H
	DB	00H
	DB	00H
	DB	00H
	DB	00H
	DB	00H
	DB	00H
	DB	00H
	DB	00H
	DB	00H
	DB	00H
	DB	00H
	DB	00H
	DB	00H
	DB	00H
	DB	00H
	DB	00H
	DB	00H
	DB	00H
	DB	00H
	DB	00H
	DB	00H
	DB	00H
	DB	00H
	DB	00H
	DB	00H
	DB	00H
	DB	00H
	DB	00H
	DB	00H
	DB	00H
	DB	00H
	DB	00H
	DB	00H
	DB	00H
	DB	00H
	DB	00H
	DB	00H
	DB	00H
	DB	00H
	DB	00H
	DB	00H
	DB	00H
	DB	00H
	DB	00H
	DB	00H
	DB	00H
	DB	00H
	DB	00H
	DB	00H
	DB	00H
	DB	00H
	DB	00H
	DB	00H
	DB	00H
	DB	00H
	DB	00H
	DB	00H
	DB	00H
	DB	00H
	DB	00H
	DB	00H
	DB	00H
	DB	00H
	DB	00H
	DB	016H
	DB	03H
	DB	03H
	DB	03H
	DB	03H
	DB	011H
	DB	00H
	DB	00H
	DB	00H
	DB	00H
	DB	031H
	DB	02eH
	DB	028H
	DB	028H
	DB	027H
	DB	00H
	DB	031H
	DB	020H
	DB	0b9H
	DB	011H
	DB	00H
	DB	00H
	DB	00H
	DB	00H
	DB	031H
	DB	027H
	DB	020H
	DB	0b9H
	DB	0baH
	DB	010H
	DB	016H
	DB	0dH
	DB	00H
	DB	00H
	DB	00H
	DB	00H
	DB	00H
	DB	00H
	DB	00H
	DB	0dH
	DB	027H
	DB	030H
	DB	0f6H
	DB	0f9H
	DB	036H
	DB	010H
	DB	095H
	DB	00H
	DB	00H
	DB	027H
	DB	03H
	DB	03H
	DB	03H
	DB	021H
	DB	00H
	DB	00H
	DB	00H
	DB	00H
	DB	016H
	DB	028H
	DB	028H
	DB	028H
	DB	0dH
	DB	00H
	DB	00H
	DB	00H
	DB	00H
	DB	00H
	DB	00H
	DB	00H
	DB	00H
	DB	00H
	DB	00H
	DB	0c3H
	DB	03H
	DB	03H
	DB	03H
	DB	014H
	DB	00H
	DB	00H
	DB	00H
	DB	031H
	DB	028H
	DB	028H
	DB	028H
	DB	02eH
	DB	031H
	DB	00H
	DB	00H
	DB	00H
	DB	00H
	DB	00H
	DB	00H
	DB	096H
	DB	028H
	DB	028H
	DB	016H
	DB	00H
	DB	095H
	DB	06bH
	DB	028H
	DB	028H
	DB	011H
	DB	00H
	DB	031H
	DB	08dH
	DB	028H
	DB	08dH
	DB	031H
	DB	00H
	DB	00H
	DB	00H
	DB	00H
	DB	00H
	DB	00H
	DB	00H
	DB	00H
	DB	095H
	DB	0e3H
	DB	036H
	DB	0f9H
	DB	0f4H
	DB	0b4H
	DB	011H
	DB	00H
	DB	00H
	DB	00H
	DB	00H
	DB	00H
	DB	00H
	DB	00H
	DB	00H
	DB	00H
	DB	00H
	DB	00H
	DB	00H
	DB	00H
	DB	00H
	DB	00H
	DB	00H
	DB	00H
	DB	00H
	DB	00H
	DB	00H
	DB	00H
	DB	00H
	DB	00H
	DB	00H
	DB	00H
	DB	00H
	DB	00H
	DB	00H
	DB	00H
	DB	00H
	DB	00H
	DB	00H
	DB	00H
	DB	00H
	DB	00H
	DB	00H
	DB	00H
	DB	00H
	DB	00H
	DB	00H
	DB	00H
	DB	00H
	DB	00H
	DB	00H
	DB	00H
	DB	00H
	DB	00H
	DB	00H
	DB	00H
	DB	00H
	DB	00H
	DB	00H
	DB	00H
	DB	00H
	DB	016H
	DB	03H
	DB	03H
	DB	03H
	DB	03H
	DB	011H
	DB	00H
	DB	00H
	DB	00H
	DB	00H
	DB	016H
	DB	0c8H
	DB	03H
	DB	03H
	DB	0fcH
	DB	011H
	DB	0c4H
	DB	03H
	DB	0c8H
	DB	08dH
	DB	00H
	DB	00H
	DB	031H
	DB	014H
	DB	029H
	DB	03H
	DB	03H
	DB	03H
	DB	03H
	DB	03H
	DB	0c8H
	DB	0eH
	DB	095H
	DB	00H
	DB	00H
	DB	00H
	DB	00H
	DB	00H
	DB	027H
	DB	021H
	DB	03H
	DB	03H
	DB	03H
	DB	03H
	DB	03H
	DB	03H
	DB	01eH
	DB	028H
	DB	00H
	DB	027H
	DB	03H
	DB	03H
	DB	03H
	DB	021H
	DB	00H
	DB	00H
	DB	00H
	DB	016H
	DB	0c6H
	DB	03H
	DB	03H
	DB	0c3H
	DB	00H
	DB	00H
	DB	00H
	DB	00H
	DB	00H
	DB	00H
	DB	00H
	DB	00H
	DB	00H
	DB	00H
	DB	00H
	DB	0c3H
	DB	03H
	DB	03H
	DB	03H
	DB	014H
	DB	00H
	DB	00H
	DB	00H
	DB	011H
	DB	029H
	DB	03H
	DB	03H
	DB	03H
	DB	089H
	DB	00H
	DB	00H
	DB	00H
	DB	00H
	DB	00H
	DB	031H
	DB	029H
	DB	03H
	DB	03H
	DB	0b4H
	DB	00H
	DB	0e6H
	DB	03H
	DB	03H
	DB	03H
	DB	020H
	DB	0b0H
	DB	0c5H
	DB	03H
	DB	03H
	DB	03H
	DB	029H
	DB	089H
	DB	00H
	DB	00H
	DB	00H
	DB	00H
	DB	00H
	DB	031H
	DB	036H
	DB	0c8H
	DB	03H
	DB	03H
	DB	03H
	DB	03H
	DB	03H
	DB	01eH
	DB	030H
	DB	00H
	DB	00H
	DB	00H
	DB	00H
	DB	00H
	DB	00H
	DB	00H
	DB	00H
	DB	00H
	DB	00H
	DB	00H
	DB	00H
	DB	00H
	DB	00H
	DB	00H
	DB	00H
	DB	00H
	DB	00H
	DB	00H
	DB	00H
	DB	00H
	DB	00H
	DB	00H
	DB	00H
	DB	00H
	DB	00H
	DB	00H
	DB	00H
	DB	00H
	DB	00H
	DB	00H
	DB	00H
	DB	00H
	DB	00H
	DB	00H
	DB	00H
	DB	00H
	DB	00H
	DB	00H
	DB	00H
	DB	00H
	DB	00H
	DB	00H
	DB	00H
	DB	00H
	DB	00H
	DB	00H
	DB	00H
	DB	00H
	DB	00H
	DB	00H
	DB	00H
	DB	00H
	DB	016H
	DB	03H
	DB	03H
	DB	03H
	DB	03H
	DB	011H
	DB	00H
	DB	00H
	DB	00H
	DB	00H
	DB	016H
	DB	0c8H
	DB	03H
	DB	03H
	DB	021H
	DB	0c3H
	DB	03H
	DB	03H
	DB	0c8H
	DB	08dH
	DB	00H
	DB	00H
	DB	031H
	DB	01eH
	DB	03H
	DB	03H
	DB	03H
	DB	03H
	DB	03H
	DB	03H
	DB	03H
	DB	03H
	DB	0fcH
	DB	0dH
	DB	00H
	DB	00H
	DB	00H
	DB	028H
	DB	01eH
	DB	03H
	DB	03H
	DB	03H
	DB	03H
	DB	01eH
	DB	01eH
	DB	03H
	DB	03H
	DB	09aH
	DB	00H
	DB	027H
	DB	03H
	DB	03H
	DB	03H
	DB	021H
	DB	00H
	DB	00H
	DB	031H
	DB	021H
	DB	03H
	DB	03H
	DB	0eH
	DB	0dH
	DB	00H
	DB	00H
	DB	00H
	DB	00H
	DB	00H
	DB	00H
	DB	00H
	DB	00H
	DB	00H
	DB	00H
	DB	00H
	DB	0c3H
	DB	03H
	DB	03H
	DB	03H
	DB	014H
	DB	00H
	DB	00H
	DB	00H
	DB	00H
	DB	0f6H
	DB	03H
	DB	03H
	DB	03H
	DB	0c4H
	DB	00H
	DB	00H
	DB	00H
	DB	00H
	DB	00H
	DB	010H
	DB	03H
	DB	03H
	DB	022H
	DB	031H
	DB	00H
	DB	0e6H
	DB	03H
	DB	03H
	DB	03H
	DB	0fcH
	DB	0c8H
	DB	03H
	DB	03H
	DB	03H
	DB	03H
	DB	03H
	DB	03H
	DB	089H
	DB	00H
	DB	00H
	DB	00H
	DB	0dH
	DB	0eH
	DB	03H
	DB	03H
	DB	03H
	DB	022H
	DB	0eH
	DB	0c6H
	DB	03H
	DB	03H
	DB	03H
	DB	0b9H
	DB	00H
	DB	00H
	DB	00H
	DB	00H
	DB	00H
	DB	00H
	DB	00H
	DB	00H
	DB	00H
	DB	00H
	DB	00H
	DB	00H
	DB	00H
	DB	00H
	DB	00H
	DB	00H
	DB	00H
	DB	00H
	DB	00H
	DB	00H
	DB	00H
	DB	00H
	DB	00H
	DB	00H
	DB	00H
	DB	00H
	DB	00H
	DB	00H
	DB	00H
	DB	00H
	DB	00H
	DB	00H
	DB	00H
	DB	00H
	DB	00H
	DB	00H
	DB	00H
	DB	00H
	DB	00H
	DB	00H
	DB	00H
	DB	00H
	DB	00H
	DB	00H
	DB	00H
	DB	00H
	DB	00H
	DB	00H
	DB	00H
	DB	00H
	DB	00H
	DB	00H
	DB	016H
	DB	03H
	DB	03H
	DB	03H
	DB	03H
	DB	011H
	DB	00H
	DB	00H
	DB	00H
	DB	00H
	DB	016H
	DB	0c8H
	DB	03H
	DB	03H
	DB	01eH
	DB	0c8H
	DB	03H
	DB	03H
	DB	0c8H
	DB	02eH
	DB	00H
	DB	00H
	DB	0dH
	DB	014H
	DB	03aH
	DB	02eH
	DB	016H
	DB	016H
	DB	0b2H
	DB	0c5H
	DB	03H
	DB	03H
	DB	03H
	DB	0b4H
	DB	00H
	DB	00H
	DB	011H
	DB	029H
	DB	03H
	DB	03H
	DB	03H
	DB	0fdH
	DB	028H
	DB	011H
	DB	011H
	DB	027H
	DB	034H
	DB	095H
	DB	00H
	DB	027H
	DB	03H
	DB	03H
	DB	03H
	DB	021H
	DB	00H
	DB	00H
	DB	014H
	DB	03H
	DB	03H
	DB	0fdH
	DB	011H
	DB	00H
	DB	00H
	DB	00H
	DB	00H
	DB	00H
	DB	00H
	DB	00H
	DB	00H
	DB	00H
	DB	00H
	DB	00H
	DB	00H
	DB	0c3H
	DB	03H
	DB	03H
	DB	03H
	DB	014H
	DB	00H
	DB	00H
	DB	00H
	DB	00H
	DB	016H
	DB	03H
	DB	03H
	DB	03H
	DB	03H
	DB	016H
	DB	00H
	DB	00H
	DB	00H
	DB	00H
	DB	0c4H
	DB	03H
	DB	03H
	DB	035H
	DB	00H
	DB	00H
	DB	0e6H
	DB	03H
	DB	03H
	DB	03H
	DB	03H
	DB	0c8H
	DB	0fcH
	DB	0fcH
	DB	0c8H
	DB	03H
	DB	03H
	DB	03H
	DB	029H
	DB	011H
	DB	00H
	DB	00H
	DB	0b9H
	DB	03H
	DB	03H
	DB	03H
	DB	0a3H
	DB	00H
	DB	00H
	DB	011H
	DB	022H
	DB	03H
	DB	03H
	DB	0c8H
	DB	016H
	DB	00H
	DB	00H
	DB	00H
	DB	00H
	DB	00H
	DB	00H
	DB	00H
	DB	00H
	DB	00H
	DB	00H
	DB	00H
	DB	00H
	DB	00H
	DB	00H
	DB	00H
	DB	00H
	DB	00H
	DB	00H
	DB	00H
	DB	00H
	DB	00H
	DB	00H
	DB	00H
	DB	00H
	DB	00H
	DB	00H
	DB	00H
	DB	00H
	DB	00H
	DB	00H
	DB	00H
	DB	00H
	DB	00H
	DB	00H
	DB	00H
	DB	00H
	DB	00H
	DB	00H
	DB	00H
	DB	00H
	DB	00H
	DB	00H
	DB	00H
	DB	00H
	DB	00H
	DB	00H
	DB	00H
	DB	00H
	DB	00H
	DB	00H
	DB	00H
	DB	016H
	DB	03H
	DB	03H
	DB	03H
	DB	03H
	DB	011H
	DB	00H
	DB	00H
	DB	00H
	DB	00H
	DB	016H
	DB	0c8H
	DB	03H
	DB	03H
	DB	03H
	DB	03H
	DB	0c8H
	DB	014H
	DB	0b4H
	DB	031H
	DB	00H
	DB	00H
	DB	00H
	DB	00H
	DB	00H
	DB	00H
	DB	00H
	DB	00H
	DB	00H
	DB	09aH
	DB	03H
	DB	03H
	DB	03H
	DB	014H
	DB	00H
	DB	00H
	DB	03aH
	DB	03H
	DB	03H
	DB	03H
	DB	01eH
	DB	016H
	DB	00H
	DB	00H
	DB	00H
	DB	00H
	DB	00H
	DB	00H
	DB	00H
	DB	027H
	DB	03H
	DB	03H
	DB	03H
	DB	021H
	DB	00H
	DB	0e6H
	DB	03H
	DB	03H
	DB	0c6H
	DB	096H
	DB	00H
	DB	00H
	DB	00H
	DB	00H
	DB	00H
	DB	00H
	DB	00H
	DB	00H
	DB	00H
	DB	00H
	DB	00H
	DB	00H
	DB	00H
	DB	0c3H
	DB	03H
	DB	03H
	DB	03H
	DB	014H
	DB	00H
	DB	00H
	DB	00H
	DB	00H
	DB	00H
	DB	0c4H
	DB	03H
	DB	03H
	DB	03H
	DB	0f4H
	DB	00H
	DB	00H
	DB	00H
	DB	027H
	DB	03H
	DB	03H
	DB	0c6H
	DB	011H
	DB	00H
	DB	00H
	DB	0e6H
	DB	03H
	DB	03H
	DB	03H
	DB	0c8H
	DB	020H
	DB	00H
	DB	00H
	DB	020H
	DB	03H
	DB	03H
	DB	03H
	DB	03H
	DB	0b2H
	DB	00H
	DB	093H
	DB	029H
	DB	03H
	DB	03H
	DB	0c6H
	DB	011H
	DB	00H
	DB	00H
	DB	00H
	DB	0b4H
	DB	03H
	DB	03H
	DB	03H
	DB	03aH
	DB	00H
	DB	00H
	DB	00H
	DB	00H
	DB	00H
	DB	00H
	DB	00H
	DB	00H
	DB	00H
	DB	00H
	DB	00H
	DB	00H
	DB	00H
	DB	00H
	DB	00H
	DB	00H
	DB	00H
	DB	00H
	DB	00H
	DB	00H
	DB	00H
	DB	00H
	DB	00H
	DB	00H
	DB	00H
	DB	00H
	DB	00H
	DB	00H
	DB	00H
	DB	00H
	DB	00H
	DB	00H
	DB	00H
	DB	00H
	DB	00H
	DB	00H
	DB	00H
	DB	00H
	DB	00H
	DB	00H
	DB	00H
	DB	00H
	DB	00H
	DB	00H
	DB	00H
	DB	00H
	DB	00H
	DB	00H
	DB	00H
	DB	00H
	DB	00H
	DB	016H
	DB	03H
	DB	03H
	DB	03H
	DB	03H
	DB	011H
	DB	00H
	DB	00H
	DB	00H
	DB	00H
	DB	016H
	DB	0c8H
	DB	03H
	DB	03H
	DB	03H
	DB	01eH
	DB	02eH
	DB	00H
	DB	00H
	DB	00H
	DB	00H
	DB	00H
	DB	00H
	DB	011H
	DB	030H
	DB	0f9H
	DB	0c3H
	DB	0a3H
	DB	02eH
	DB	02eH
	DB	03H
	DB	03H
	DB	03H
	DB	0c4H
	DB	00H
	DB	00H
	DB	022H
	DB	03H
	DB	03H
	DB	03H
	DB	0f9H
	DB	00H
	DB	00H
	DB	00H
	DB	00H
	DB	00H
	DB	00H
	DB	00H
	DB	00H
	DB	027H
	DB	03H
	DB	03H
	DB	03H
	DB	0c4H
	DB	0b0H
	DB	0c8H
	DB	03H
	DB	0c8H
	DB	028H
	DB	00H
	DB	00H
	DB	00H
	DB	00H
	DB	00H
	DB	00H
	DB	00H
	DB	00H
	DB	00H
	DB	00H
	DB	00H
	DB	00H
	DB	00H
	DB	00H
	DB	0c3H
	DB	03H
	DB	03H
	DB	03H
	DB	014H
	DB	00H
	DB	00H
	DB	00H
	DB	00H
	DB	00H
	DB	0b4H
	DB	03H
	DB	03H
	DB	03H
	DB	0c5H
	DB	00H
	DB	00H
	DB	00H
	DB	0c1H
	DB	03H
	DB	03H
	DB	036H
	DB	00H
	DB	00H
	DB	00H
	DB	0e6H
	DB	03H
	DB	03H
	DB	03H
	DB	0c4H
	DB	00H
	DB	00H
	DB	00H
	DB	00H
	DB	0c4H
	DB	03H
	DB	03H
	DB	03H
	DB	034H
	DB	00H
	DB	02eH
	DB	03H
	DB	03H
	DB	03H
	DB	0eH
	DB	00H
	DB	00H
	DB	00H
	DB	00H
	DB	011H
	DB	01eH
	DB	03H
	DB	03H
	DB	0c4H
	DB	00H
	DB	00H
	DB	00H
	DB	00H
	DB	00H
	DB	00H
	DB	00H
	DB	00H
	DB	00H
	DB	00H
	DB	00H
	DB	00H
	DB	00H
	DB	00H
	DB	00H
	DB	00H
	DB	00H
	DB	00H
	DB	00H
	DB	00H
	DB	00H
	DB	00H
	DB	00H
	DB	00H
	DB	00H
	DB	00H
	DB	00H
	DB	00H
	DB	00H
	DB	00H
	DB	00H
	DB	00H
	DB	00H
	DB	00H
	DB	00H
	DB	00H
	DB	00H
	DB	00H
	DB	00H
	DB	00H
	DB	00H
	DB	00H
	DB	00H
	DB	00H
	DB	00H
	DB	00H
	DB	00H
	DB	00H
	DB	00H
	DB	00H
	DB	00H
	DB	016H
	DB	03H
	DB	03H
	DB	03H
	DB	03H
	DB	011H
	DB	00H
	DB	00H
	DB	00H
	DB	00H
	DB	016H
	DB	0c8H
	DB	03H
	DB	03H
	DB	03H
	DB	010H
	DB	00H
	DB	00H
	DB	00H
	DB	00H
	DB	00H
	DB	00H
	DB	0b2H
	DB	0c6H
	DB	03H
	DB	03H
	DB	03H
	DB	03H
	DB	03H
	DB	0c5H
	DB	03H
	DB	03H
	DB	03H
	DB	0c4H
	DB	00H
	DB	011H
	DB	0c6H
	DB	03H
	DB	03H
	DB	03H
	DB	030H
	DB	00H
	DB	00H
	DB	00H
	DB	00H
	DB	00H
	DB	00H
	DB	00H
	DB	00H
	DB	027H
	DB	03H
	DB	03H
	DB	03H
	DB	029H
	DB	0c6H
	DB	03H
	DB	03H
	DB	0fcH
	DB	00H
	DB	00H
	DB	00H
	DB	00H
	DB	00H
	DB	00H
	DB	00H
	DB	00H
	DB	00H
	DB	00H
	DB	00H
	DB	00H
	DB	00H
	DB	00H
	DB	00H
	DB	0c3H
	DB	03H
	DB	03H
	DB	03H
	DB	014H
	DB	00H
	DB	00H
	DB	00H
	DB	00H
	DB	00H
	DB	0dH
	DB	029H
	DB	03H
	DB	03H
	DB	03H
	DB	028H
	DB	00H
	DB	011H
	DB	0c6H
	DB	03H
	DB	0c8H
	DB	016H
	DB	00H
	DB	00H
	DB	00H
	DB	0e6H
	DB	03H
	DB	03H
	DB	03H
	DB	036H
	DB	00H
	DB	00H
	DB	00H
	DB	00H
	DB	0f4H
	DB	03H
	DB	03H
	DB	03H
	DB	0c4H
	DB	00H
	DB	030H
	DB	03H
	DB	03H
	DB	03H
	DB	0c4H
	DB	02eH
	DB	028H
	DB	028H
	DB	028H
	DB	028H
	DB	01eH
	DB	03H
	DB	03H
	DB	0c5H
	DB	0dH
	DB	00H
	DB	00H
	DB	00H
	DB	00H
	DB	00H
	DB	00H
	DB	00H
	DB	00H
	DB	00H
	DB	00H
	DB	00H
	DB	00H
	DB	00H
	DB	00H
	DB	00H
	DB	00H
	DB	00H
	DB	00H
	DB	00H
	DB	00H
	DB	00H
	DB	00H
	DB	00H
	DB	00H
	DB	00H
	DB	00H
	DB	00H
	DB	00H
	DB	00H
	DB	00H
	DB	00H
	DB	00H
	DB	00H
	DB	00H
	DB	00H
	DB	00H
	DB	00H
	DB	00H
	DB	00H
	DB	00H
	DB	00H
	DB	00H
	DB	00H
	DB	00H
	DB	00H
	DB	00H
	DB	00H
	DB	00H
	DB	00H
	DB	00H
	DB	016H
	DB	03H
	DB	03H
	DB	03H
	DB	03H
	DB	011H
	DB	00H
	DB	00H
	DB	00H
	DB	00H
	DB	016H
	DB	0c8H
	DB	03H
	DB	03H
	DB	029H
	DB	011H
	DB	00H
	DB	00H
	DB	00H
	DB	00H
	DB	00H
	DB	028H
	DB	0c8H
	DB	03H
	DB	03H
	DB	029H
	DB	0e6H
	DB	09aH
	DB	0f8H
	DB	03H
	DB	03H
	DB	03H
	DB	03H
	DB	0c4H
	DB	00H
	DB	016H
	DB	0c8H
	DB	03H
	DB	03H
	DB	03H
	DB	020H
	DB	00H
	DB	00H
	DB	00H
	DB	00H
	DB	00H
	DB	00H
	DB	00H
	DB	00H
	DB	027H
	DB	03H
	DB	03H
	DB	03H
	DB	03H
	DB	03H
	DB	03H
	DB	03H
	DB	03H
	DB	0b2H
	DB	00H
	DB	00H
	DB	00H
	DB	00H
	DB	00H
	DB	00H
	DB	00H
	DB	00H
	DB	00H
	DB	00H
	DB	00H
	DB	00H
	DB	00H
	DB	00H
	DB	0c3H
	DB	03H
	DB	03H
	DB	03H
	DB	014H
	DB	00H
	DB	00H
	DB	00H
	DB	00H
	DB	00H
	DB	00H
	DB	03aH
	DB	03H
	DB	03H
	DB	03H
	DB	0c2H
	DB	00H
	DB	089H
	DB	03H
	DB	03H
	DB	0c3H
	DB	00H
	DB	00H
	DB	00H
	DB	00H
	DB	0e6H
	DB	03H
	DB	03H
	DB	03H
	DB	02bH
	DB	00H
	DB	00H
	DB	00H
	DB	00H
	DB	02bH
	DB	03H
	DB	03H
	DB	03H
	DB	0fcH
	DB	00H
	DB	0e7H
	DB	03H
	DB	03H
	DB	03H
	DB	03H
	DB	03H
	DB	03H
	DB	03H
	DB	03H
	DB	03H
	DB	03H
	DB	03H
	DB	03H
	DB	0fdH
	DB	031H
	DB	00H
	DB	00H
	DB	00H
	DB	00H
	DB	00H
	DB	00H
	DB	00H
	DB	00H
	DB	00H
	DB	00H
	DB	00H
	DB	00H
	DB	00H
	DB	00H
	DB	00H
	DB	00H
	DB	00H
	DB	00H
	DB	00H
	DB	00H
	DB	00H
	DB	00H
	DB	00H
	DB	00H
	DB	00H
	DB	00H
	DB	00H
	DB	00H
	DB	00H
	DB	00H
	DB	00H
	DB	00H
	DB	00H
	DB	00H
	DB	00H
	DB	00H
	DB	00H
	DB	00H
	DB	00H
	DB	00H
	DB	00H
	DB	00H
	DB	00H
	DB	00H
	DB	00H
	DB	00H
	DB	00H
	DB	00H
	DB	00H
	DB	00H
	DB	016H
	DB	03H
	DB	03H
	DB	03H
	DB	03H
	DB	011H
	DB	00H
	DB	00H
	DB	00H
	DB	00H
	DB	016H
	DB	0c8H
	DB	03H
	DB	03H
	DB	0fcH
	DB	00H
	DB	00H
	DB	00H
	DB	00H
	DB	00H
	DB	00H
	DB	021H
	DB	03H
	DB	03H
	DB	03H
	DB	02eH
	DB	00H
	DB	00H
	DB	00H
	DB	0a3H
	DB	03H
	DB	03H
	DB	03H
	DB	0c4H
	DB	00H
	DB	016H
	DB	01eH
	DB	03H
	DB	03H
	DB	03H
	DB	020H
	DB	00H
	DB	00H
	DB	00H
	DB	00H
	DB	00H
	DB	00H
	DB	00H
	DB	00H
	DB	027H
	DB	03H
	DB	03H
	DB	03H
	DB	03H
	DB	03H
	DB	03H
	DB	03H
	DB	03H
	DB	0c5H
	DB	031H
	DB	00H
	DB	00H
	DB	00H
	DB	00H
	DB	00H
	DB	00H
	DB	00H
	DB	00H
	DB	00H
	DB	00H
	DB	00H
	DB	00H
	DB	00H
	DB	0c3H
	DB	03H
	DB	03H
	DB	03H
	DB	014H
	DB	00H
	DB	00H
	DB	00H
	DB	00H
	DB	00H
	DB	00H
	DB	016H
	DB	0c8H
	DB	03H
	DB	03H
	DB	01eH
	DB	031H
	DB	0fcH
	DB	03H
	DB	03H
	DB	02eH
	DB	00H
	DB	00H
	DB	00H
	DB	00H
	DB	0e6H
	DB	03H
	DB	03H
	DB	03H
	DB	02bH
	DB	00H
	DB	00H
	DB	00H
	DB	00H
	DB	02bH
	DB	03H
	DB	03H
	DB	03H
	DB	0fcH
	DB	00H
	DB	0e7H
	DB	03H
	DB	03H
	DB	03H
	DB	0c6H
	DB	0fcH
	DB	022H
	DB	022H
	DB	022H
	DB	022H
	DB	022H
	DB	022H
	DB	0c5H
	DB	0c3H
	DB	0dH
	DB	00H
	DB	00H
	DB	00H
	DB	00H
	DB	00H
	DB	00H
	DB	00H
	DB	00H
	DB	00H
	DB	00H
	DB	00H
	DB	00H
	DB	00H
	DB	00H
	DB	00H
	DB	00H
	DB	00H
	DB	00H
	DB	00H
	DB	00H
	DB	00H
	DB	00H
	DB	00H
	DB	00H
	DB	00H
	DB	00H
	DB	00H
	DB	00H
	DB	00H
	DB	00H
	DB	00H
	DB	00H
	DB	00H
	DB	00H
	DB	00H
	DB	00H
	DB	00H
	DB	00H
	DB	00H
	DB	00H
	DB	00H
	DB	00H
	DB	00H
	DB	00H
	DB	00H
	DB	00H
	DB	00H
	DB	00H
	DB	00H
	DB	00H
	DB	016H
	DB	03H
	DB	03H
	DB	03H
	DB	03H
	DB	011H
	DB	00H
	DB	00H
	DB	00H
	DB	00H
	DB	016H
	DB	0c8H
	DB	03H
	DB	03H
	DB	0fcH
	DB	00H
	DB	00H
	DB	00H
	DB	00H
	DB	00H
	DB	011H
	DB	0c6H
	DB	03H
	DB	03H
	DB	029H
	DB	00H
	DB	00H
	DB	00H
	DB	00H
	DB	09aH
	DB	03H
	DB	03H
	DB	03H
	DB	0c4H
	DB	00H
	DB	011H
	DB	0c6H
	DB	03H
	DB	03H
	DB	03H
	DB	089H
	DB	00H
	DB	00H
	DB	00H
	DB	00H
	DB	00H
	DB	00H
	DB	00H
	DB	00H
	DB	027H
	DB	03H
	DB	03H
	DB	03H
	DB	03H
	DB	022H
	DB	0feH
	DB	03H
	DB	03H
	DB	03H
	DB	03aH
	DB	00H
	DB	00H
	DB	00H
	DB	00H
	DB	00H
	DB	00H
	DB	00H
	DB	00H
	DB	00H
	DB	00H
	DB	00H
	DB	00H
	DB	00H
	DB	0c3H
	DB	03H
	DB	03H
	DB	03H
	DB	014H
	DB	00H
	DB	00H
	DB	00H
	DB	00H
	DB	00H
	DB	00H
	DB	00H
	DB	0c4H
	DB	03H
	DB	03H
	DB	03H
	DB	0c3H
	DB	01eH
	DB	03H
	DB	021H
	DB	00H
	DB	00H
	DB	00H
	DB	00H
	DB	00H
	DB	0e6H
	DB	03H
	DB	03H
	DB	03H
	DB	0f4H
	DB	00H
	DB	00H
	DB	00H
	DB	00H
	DB	03aH
	DB	03H
	DB	03H
	DB	03H
	DB	0c4H
	DB	00H
	DB	0b9H
	DB	03H
	DB	03H
	DB	03H
	DB	03aH
	DB	00H
	DB	031H
	DB	031H
	DB	031H
	DB	031H
	DB	031H
	DB	031H
	DB	031H
	DB	093H
	DB	00H
	DB	00H
	DB	00H
	DB	00H
	DB	00H
	DB	00H
	DB	00H
	DB	00H
	DB	00H
	DB	00H
	DB	00H
	DB	00H
	DB	00H
	DB	00H
	DB	00H
	DB	00H
	DB	00H
	DB	00H
	DB	00H
	DB	00H
	DB	00H
	DB	00H
	DB	00H
	DB	00H
	DB	00H
	DB	00H
	DB	00H
	DB	00H
	DB	00H
	DB	00H
	DB	00H
	DB	00H
	DB	00H
	DB	00H
	DB	00H
	DB	00H
	DB	00H
	DB	00H
	DB	00H
	DB	00H
	DB	00H
	DB	00H
	DB	00H
	DB	00H
	DB	00H
	DB	00H
	DB	00H
	DB	00H
	DB	00H
	DB	00H
	DB	00H
	DB	016H
	DB	03H
	DB	03H
	DB	03H
	DB	03H
	DB	011H
	DB	00H
	DB	00H
	DB	00H
	DB	00H
	DB	016H
	DB	0c8H
	DB	03H
	DB	03H
	DB	0fcH
	DB	00H
	DB	00H
	DB	00H
	DB	00H
	DB	00H
	DB	016H
	DB	01eH
	DB	03H
	DB	03H
	DB	0fdH
	DB	00H
	DB	00H
	DB	00H
	DB	00H
	DB	028H
	DB	03H
	DB	03H
	DB	03H
	DB	0c4H
	DB	00H
	DB	00H
	DB	022H
	DB	03H
	DB	03H
	DB	03H
	DB	0f8H
	DB	00H
	DB	00H
	DB	00H
	DB	00H
	DB	00H
	DB	00H
	DB	00H
	DB	00H
	DB	027H
	DB	03H
	DB	03H
	DB	03H
	DB	0c6H
	DB	031H
	DB	0baH
	DB	03H
	DB	03H
	DB	03H
	DB	01eH
	DB	016H
	DB	00H
	DB	00H
	DB	00H
	DB	00H
	DB	00H
	DB	00H
	DB	00H
	DB	00H
	DB	00H
	DB	00H
	DB	00H
	DB	00H
	DB	0c3H
	DB	03H
	DB	03H
	DB	03H
	DB	014H
	DB	00H
	DB	00H
	DB	00H
	DB	00H
	DB	00H
	DB	00H
	DB	00H
	DB	0b4H
	DB	03H
	DB	03H
	DB	03H
	DB	03H
	DB	03H
	DB	03H
	DB	010H
	DB	00H
	DB	00H
	DB	00H
	DB	00H
	DB	00H
	DB	0e6H
	DB	03H
	DB	03H
	DB	03H
	DB	0c4H
	DB	00H
	DB	00H
	DB	00H
	DB	00H
	DB	0eH
	DB	03H
	DB	03H
	DB	03H
	DB	036H
	DB	00H
	DB	02eH
	DB	03H
	DB	03H
	DB	03H
	DB	0eH
	DB	00H
	DB	00H
	DB	00H
	DB	00H
	DB	00H
	DB	00H
	DB	00H
	DB	00H
	DB	00H
	DB	00H
	DB	00H
	DB	00H
	DB	00H
	DB	00H
	DB	00H
	DB	00H
	DB	00H
	DB	00H
	DB	00H
	DB	00H
	DB	00H
	DB	00H
	DB	00H
	DB	00H
	DB	00H
	DB	00H
	DB	00H
	DB	00H
	DB	00H
	DB	00H
	DB	00H
	DB	00H
	DB	00H
	DB	00H
	DB	00H
	DB	00H
	DB	00H
	DB	00H
	DB	00H
	DB	00H
	DB	00H
	DB	00H
	DB	00H
	DB	00H
	DB	00H
	DB	00H
	DB	00H
	DB	00H
	DB	00H
	DB	00H
	DB	00H
	DB	00H
	DB	00H
	DB	00H
	DB	00H
	DB	00H
	DB	00H
	DB	00H
	DB	00H
	DB	00H
	DB	016H
	DB	03H
	DB	03H
	DB	03H
	DB	03H
	DB	011H
	DB	00H
	DB	00H
	DB	00H
	DB	00H
	DB	016H
	DB	0c8H
	DB	03H
	DB	03H
	DB	0fcH
	DB	00H
	DB	00H
	DB	00H
	DB	00H
	DB	00H
	DB	011H
	DB	0c6H
	DB	03H
	DB	03H
	DB	0c8H
	DB	096H
	DB	00H
	DB	00H
	DB	00H
	DB	0e8H
	DB	03H
	DB	03H
	DB	03H
	DB	0c4H
	DB	00H
	DB	00H
	DB	03aH
	DB	03H
	DB	03H
	DB	03H
	DB	01eH
	DB	016H
	DB	00H
	DB	00H
	DB	00H
	DB	00H
	DB	00H
	DB	00H
	DB	00H
	DB	027H
	DB	03H
	DB	03H
	DB	03H
	DB	021H
	DB	00H
	DB	0dH
	DB	0c5H
	DB	03H
	DB	03H
	DB	03H
	DB	0c3H
	DB	00H
	DB	00H
	DB	00H
	DB	00H
	DB	00H
	DB	00H
	DB	00H
	DB	00H
	DB	00H
	DB	00H
	DB	00H
	DB	00H
	DB	0c3H
	DB	03H
	DB	03H
	DB	03H
	DB	014H
	DB	00H
	DB	00H
	DB	00H
	DB	00H
	DB	00H
	DB	00H
	DB	00H
	DB	031H
	DB	029H
	DB	03H
	DB	03H
	DB	03H
	DB	03H
	DB	029H
	DB	031H
	DB	00H
	DB	00H
	DB	00H
	DB	00H
	DB	00H
	DB	0e6H
	DB	03H
	DB	03H
	DB	03H
	DB	01eH
	DB	027H
	DB	00H
	DB	00H
	DB	027H
	DB	0c8H
	DB	03H
	DB	03H
	DB	03H
	DB	028H
	DB	00H
	DB	0dH
	DB	0c5H
	DB	03H
	DB	03H
	DB	0c8H
	DB	02eH
	DB	00H
	DB	00H
	DB	00H
	DB	00H
	DB	00H
	DB	00H
	DB	093H
	DB	00H
	DB	00H
	DB	00H
	DB	00H
	DB	00H
	DB	00H
	DB	00H
	DB	00H
	DB	00H
	DB	00H
	DB	00H
	DB	00H
	DB	00H
	DB	00H
	DB	00H
	DB	00H
	DB	00H
	DB	00H
	DB	00H
	DB	00H
	DB	00H
	DB	00H
	DB	00H
	DB	00H
	DB	00H
	DB	00H
	DB	00H
	DB	00H
	DB	00H
	DB	00H
	DB	00H
	DB	00H
	DB	00H
	DB	00H
	DB	00H
	DB	00H
	DB	00H
	DB	00H
	DB	00H
	DB	00H
	DB	00H
	DB	00H
	DB	00H
	DB	00H
	DB	00H
	DB	00H
	DB	00H
	DB	00H
	DB	00H
	DB	00H
	DB	00H
	DB	00H
	DB	016H
	DB	03H
	DB	03H
	DB	03H
	DB	03H
	DB	011H
	DB	00H
	DB	00H
	DB	00H
	DB	00H
	DB	016H
	DB	0c8H
	DB	03H
	DB	03H
	DB	0fcH
	DB	00H
	DB	00H
	DB	00H
	DB	00H
	DB	00H
	DB	00H
	DB	0fcH
	DB	03H
	DB	03H
	DB	03H
	DB	0c5H
	DB	010H
	DB	028H
	DB	0f4H
	DB	03H
	DB	03H
	DB	03H
	DB	03H
	DB	0c4H
	DB	00H
	DB	00H
	DB	011H
	DB	0c6H
	DB	03H
	DB	03H
	DB	03H
	DB	0fdH
	DB	09aH
	DB	016H
	DB	08dH
	DB	02bH
	DB	0fcH
	DB	028H
	DB	00H
	DB	027H
	DB	03H
	DB	03H
	DB	03H
	DB	021H
	DB	00H
	DB	00H
	DB	0b4H
	DB	03H
	DB	03H
	DB	03H
	DB	03H
	DB	06bH
	DB	00H
	DB	00H
	DB	00H
	DB	00H
	DB	00H
	DB	00H
	DB	00H
	DB	00H
	DB	00H
	DB	00H
	DB	00H
	DB	0c3H
	DB	03H
	DB	03H
	DB	03H
	DB	014H
	DB	00H
	DB	00H
	DB	00H
	DB	00H
	DB	00H
	DB	00H
	DB	00H
	DB	00H
	DB	03aH
	DB	03H
	DB	03H
	DB	03H
	DB	03H
	DB	0e6H
	DB	00H
	DB	00H
	DB	00H
	DB	00H
	DB	00H
	DB	00H
	DB	0e6H
	DB	03H
	DB	03H
	DB	03H
	DB	03H
	DB	0c6H
	DB	014H
	DB	014H
	DB	01eH
	DB	03H
	DB	03H
	DB	03H
	DB	022H
	DB	031H
	DB	00H
	DB	00H
	DB	089H
	DB	03H
	DB	03H
	DB	03H
	DB	0c6H
	DB	0baH
	DB	027H
	DB	096H
	DB	02eH
	DB	0b9H
	DB	0a4H
	DB	034H
	DB	00H
	DB	00H
	DB	00H
	DB	00H
	DB	00H
	DB	00H
	DB	00H
	DB	00H
	DB	00H
	DB	00H
	DB	00H
	DB	00H
	DB	00H
	DB	00H
	DB	00H
	DB	00H
	DB	00H
	DB	00H
	DB	00H
	DB	00H
	DB	00H
	DB	00H
	DB	00H
	DB	00H
	DB	00H
	DB	00H
	DB	00H
	DB	00H
	DB	00H
	DB	00H
	DB	00H
	DB	00H
	DB	00H
	DB	00H
	DB	00H
	DB	00H
	DB	00H
	DB	00H
	DB	00H
	DB	00H
	DB	00H
	DB	00H
	DB	00H
	DB	00H
	DB	00H
	DB	00H
	DB	00H
	DB	00H
	DB	00H
	DB	00H
	DB	00H
	DB	00H
	DB	016H
	DB	03H
	DB	03H
	DB	03H
	DB	03H
	DB	011H
	DB	00H
	DB	00H
	DB	00H
	DB	00H
	DB	016H
	DB	0c8H
	DB	03H
	DB	03H
	DB	0fcH
	DB	00H
	DB	00H
	DB	00H
	DB	00H
	DB	00H
	DB	00H
	DB	09aH
	DB	03H
	DB	03H
	DB	03H
	DB	03H
	DB	03H
	DB	03H
	DB	03H
	DB	0c5H
	DB	01eH
	DB	03H
	DB	03H
	DB	0c4H
	DB	00H
	DB	00H
	DB	00H
	DB	028H
	DB	01eH
	DB	03H
	DB	03H
	DB	03H
	DB	03H
	DB	03H
	DB	03H
	DB	03H
	DB	03H
	DB	09fH
	DB	00H
	DB	027H
	DB	03H
	DB	03H
	DB	03H
	DB	021H
	DB	00H
	DB	00H
	DB	00H
	DB	0c4H
	DB	03H
	DB	03H
	DB	03H
	DB	022H
	DB	031H
	DB	00H
	DB	00H
	DB	00H
	DB	00H
	DB	00H
	DB	00H
	DB	00H
	DB	00H
	DB	00H
	DB	00H
	DB	0c3H
	DB	03H
	DB	03H
	DB	03H
	DB	014H
	DB	00H
	DB	00H
	DB	00H
	DB	00H
	DB	00H
	DB	00H
	DB	00H
	DB	00H
	DB	016H
	DB	01eH
	DB	03H
	DB	03H
	DB	01eH
	DB	095H
	DB	00H
	DB	00H
	DB	00H
	DB	00H
	DB	00H
	DB	00H
	DB	0e6H
	DB	03H
	DB	03H
	DB	03H
	DB	0c5H
	DB	0c8H
	DB	03H
	DB	03H
	DB	03H
	DB	03H
	DB	03H
	DB	0c8H
	DB	09aH
	DB	00H
	DB	00H
	DB	00H
	DB	00H
	DB	0f6H
	DB	03H
	DB	03H
	DB	03H
	DB	03H
	DB	03H
	DB	03H
	DB	03H
	DB	03H
	DB	03H
	DB	0fdH
	DB	031H
	DB	00H
	DB	00H
	DB	00H
	DB	00H
	DB	00H
	DB	00H
	DB	00H
	DB	00H
	DB	00H
	DB	00H
	DB	00H
	DB	00H
	DB	00H
	DB	00H
	DB	00H
	DB	00H
	DB	00H
	DB	00H
	DB	00H
	DB	00H
	DB	00H
	DB	00H
	DB	00H
	DB	00H
	DB	00H
	DB	00H
	DB	00H
	DB	00H
	DB	00H
	DB	00H
	DB	00H
	DB	00H
	DB	00H
	DB	00H
	DB	00H
	DB	00H
	DB	00H
	DB	00H
	DB	00H
	DB	00H
	DB	00H
	DB	00H
	DB	00H
	DB	00H
	DB	00H
	DB	00H
	DB	00H
	DB	00H
	DB	00H
	DB	00H
	DB	00H
	DB	016H
	DB	03H
	DB	03H
	DB	03H
	DB	03H
	DB	011H
	DB	00H
	DB	00H
	DB	00H
	DB	00H
	DB	016H
	DB	0c8H
	DB	03H
	DB	03H
	DB	0fcH
	DB	00H
	DB	00H
	DB	00H
	DB	00H
	DB	00H
	DB	00H
	DB	00H
	DB	010H
	DB	029H
	DB	03H
	DB	03H
	DB	03H
	DB	01eH
	DB	0f4H
	DB	016H
	DB	0c6H
	DB	03H
	DB	03H
	DB	0c4H
	DB	00H
	DB	00H
	DB	00H
	DB	00H
	DB	096H
	DB	0c3H
	DB	0c8H
	DB	03H
	DB	03H
	DB	03H
	DB	03H
	DB	03H
	DB	0fcH
	DB	028H
	DB	00H
	DB	027H
	DB	03H
	DB	03H
	DB	03H
	DB	021H
	DB	00H
	DB	00H
	DB	00H
	DB	02eH
	DB	03H
	DB	03H
	DB	03H
	DB	03H
	DB	03aH
	DB	00H
	DB	00H
	DB	00H
	DB	00H
	DB	00H
	DB	00H
	DB	00H
	DB	00H
	DB	00H
	DB	00H
	DB	0c3H
	DB	03H
	DB	03H
	DB	03H
	DB	014H
	DB	00H
	DB	00H
	DB	00H
	DB	00H
	DB	00H
	DB	00H
	DB	00H
	DB	00H
	DB	00H
	DB	0fcH
	DB	03H
	DB	03H
	DB	0f9H
	DB	00H
	DB	00H
	DB	00H
	DB	00H
	DB	00H
	DB	00H
	DB	00H
	DB	0e6H
	DB	03H
	DB	03H
	DB	03H
	DB	02bH
	DB	09aH
	DB	0c5H
	DB	03H
	DB	03H
	DB	03H
	DB	029H
	DB	020H
	DB	00H
	DB	00H
	DB	00H
	DB	00H
	DB	00H
	DB	00H
	DB	030H
	DB	029H
	DB	03H
	DB	03H
	DB	03H
	DB	03H
	DB	03H
	DB	03H
	DB	021H
	DB	010H
	DB	00H
	DB	00H
	DB	00H
	DB	00H
	DB	00H
	DB	00H
	DB	00H
	DB	00H
	DB	00H
	DB	00H
	DB	00H
	DB	00H
	DB	00H
	DB	00H
	DB	00H
	DB	00H
	DB	00H
	DB	00H
	DB	00H
	DB	00H
	DB	00H
	DB	00H
	DB	00H
	DB	00H
	DB	00H
	DB	00H
	DB	00H
	DB	00H
	DB	00H
	DB	00H
	DB	00H
	DB	00H
	DB	00H
	DB	00H
	DB	00H
	DB	00H
	DB	00H
	DB	00H
	DB	00H
	DB	00H
	DB	00H
	DB	00H
	DB	00H
	DB	00H
	DB	00H
	DB	00H
	DB	00H
	DB	00H
	DB	00H
	DB	00H
	DB	00H
	DB	00H
	DB	031H
	DB	09aH
	DB	09aH
	DB	09aH
	DB	0b0H
	DB	093H
	DB	00H
	DB	00H
	DB	00H
	DB	00H
	DB	031H
	DB	028H
	DB	09aH
	DB	020H
	DB	08dH
	DB	00H
	DB	00H
	DB	00H
	DB	00H
	DB	00H
	DB	00H
	DB	00H
	DB	00H
	DB	031H
	DB	027H
	DB	020H
	DB	02eH
	DB	011H
	DB	00H
	DB	00H
	DB	02eH
	DB	020H
	DB	020H
	DB	027H
	DB	00H
	DB	00H
	DB	00H
	DB	00H
	DB	00H
	DB	00H
	DB	095H
	DB	09aH
	DB	0baH
	DB	0e6H
	DB	0b4H
	DB	095H
	DB	0dH
	DB	00H
	DB	00H
	DB	031H
	DB	06bH
	DB	09aH
	DB	020H
	DB	027H
	DB	00H
	DB	00H
	DB	00H
	DB	00H
	DB	08dH
	DB	020H
	DB	09aH
	DB	020H
	DB	02eH
	DB	00H
	DB	00H
	DB	00H
	DB	00H
	DB	00H
	DB	00H
	DB	00H
	DB	00H
	DB	00H
	DB	00H
	DB	096H
	DB	020H
	DB	09aH
	DB	020H
	DB	016H
	DB	00H
	DB	00H
	DB	00H
	DB	00H
	DB	00H
	DB	00H
	DB	00H
	DB	00H
	DB	095H
	DB	01eH
	DB	03H
	DB	03H
	DB	096H
	DB	00H
	DB	00H
	DB	00H
	DB	00H
	DB	00H
	DB	00H
	DB	00H
	DB	0e6H
	DB	03H
	DB	03H
	DB	03H
	DB	09fH
	DB	00H
	DB	031H
	DB	027H
	DB	020H
	DB	08dH
	DB	031H
	DB	00H
	DB	00H
	DB	00H
	DB	00H
	DB	00H
	DB	00H
	DB	00H
	DB	00H
	DB	031H
	DB	08dH
	DB	089H
	DB	0e6H
	DB	035H
	DB	028H
	DB	095H
	DB	0dH
	DB	00H
	DB	00H
	DB	00H
	DB	00H
	DB	00H
	DB	00H
	DB	00H
	DB	00H
	DB	00H
	DB	00H
	DB	00H
	DB	00H
	DB	00H
	DB	00H
	DB	00H
	DB	00H
	DB	00H
	DB	00H
	DB	00H
	DB	00H
	DB	00H
	DB	00H
	DB	00H
	DB	00H
	DB	00H
	DB	00H
	DB	00H
	DB	00H
	DB	00H
	DB	00H
	DB	00H
	DB	00H
	DB	00H
	DB	00H
	DB	00H
	DB	00H
	DB	00H
	DB	00H
	DB	00H
	DB	00H
	DB	00H
	DB	00H
	DB	00H
	DB	00H
	DB	00H
	DB	00H
	DB	00H
	DB	00H
	DB	00H
	DB	00H
	DB	00H
	DB	00H
	DB	00H
	DB	00H
	DB	00H
	DB	00H
	DB	00H
	DB	00H
	DB	00H
	DB	00H
	DB	00H
	DB	00H
	DB	00H
	DB	00H
	DB	00H
	DB	00H
	DB	00H
	DB	00H
	DB	00H
	DB	00H
	DB	00H
	DB	00H
	DB	00H
	DB	00H
	DB	00H
	DB	00H
	DB	00H
	DB	00H
	DB	00H
	DB	00H
	DB	00H
	DB	00H
	DB	00H
	DB	00H
	DB	00H
	DB	00H
	DB	00H
	DB	00H
	DB	00H
	DB	00H
	DB	00H
	DB	00H
	DB	00H
	DB	00H
	DB	00H
	DB	00H
	DB	00H
	DB	00H
	DB	00H
	DB	00H
	DB	00H
	DB	00H
	DB	00H
	DB	00H
	DB	00H
	DB	00H
	DB	00H
	DB	00H
	DB	00H
	DB	00H
	DB	00H
	DB	00H
	DB	00H
	DB	00H
	DB	00H
	DB	00H
	DB	00H
	DB	00H
	DB	00H
	DB	00H
	DB	00H
	DB	00H
	DB	00H
	DB	00H
	DB	00H
	DB	00H
	DB	00H
	DB	00H
	DB	00H
	DB	00H
	DB	00H
	DB	00H
	DB	00H
	DB	00H
	DB	00H
	DB	00H
	DB	00H
	DB	00H
	DB	00H
	DB	0a3H
	DB	03H
	DB	03H
	DB	0eH
	DB	00H
	DB	00H
	DB	00H
	DB	00H
	DB	00H
	DB	00H
	DB	00H
	DB	00H
	DB	0e6H
	DB	03H
	DB	03H
	DB	03H
	DB	09fH
	DB	00H
	DB	00H
	DB	00H
	DB	00H
	DB	00H
	DB	00H
	DB	00H
	DB	00H
	DB	00H
	DB	00H
	DB	00H
	DB	00H
	DB	00H
	DB	00H
	DB	00H
	DB	00H
	DB	00H
	DB	00H
	DB	00H
	DB	00H
	DB	00H
	DB	00H
	DB	00H
	DB	00H
	DB	00H
	DB	00H
	DB	00H
	DB	00H
	DB	00H
	DB	00H
	DB	00H
	DB	00H
	DB	00H
	DB	00H
	DB	00H
	DB	00H
	DB	00H
	DB	00H
	DB	00H
	DB	00H
	DB	00H
	DB	00H
	DB	00H
	DB	00H
	DB	00H
	DB	00H
	DB	00H
	DB	00H
	DB	00H
	DB	00H
	DB	00H
	DB	00H
	DB	00H
	DB	00H
	DB	00H
	DB	00H
	DB	00H
	DB	00H
	DB	00H
	DB	00H
	DB	00H
	DB	00H
	DB	00H
	DB	00H
	DB	00H
	DB	00H
	DB	00H
	DB	00H
	DB	00H
	DB	00H
	DB	00H
	DB	00H
	DB	00H
	DB	00H
	DB	00H
	DB	00H
	DB	00H
	DB	00H
	DB	00H
	DB	00H
	DB	00H
	DB	00H
	DB	00H
	DB	00H
	DB	00H
	DB	00H
	DB	00H
	DB	00H
	DB	00H
	DB	00H
	DB	00H
	DB	00H
	DB	00H
	DB	00H
	DB	00H
	DB	00H
	DB	00H
	DB	00H
	DB	00H
	DB	00H
	DB	00H
	DB	00H
	DB	00H
	DB	00H
	DB	00H
	DB	00H
	DB	00H
	DB	00H
	DB	00H
	DB	00H
	DB	00H
	DB	00H
	DB	00H
	DB	00H
	DB	00H
	DB	00H
	DB	00H
	DB	00H
	DB	00H
	DB	00H
	DB	00H
	DB	00H
	DB	00H
	DB	00H
	DB	00H
	DB	00H
	DB	00H
	DB	00H
	DB	00H
	DB	00H
	DB	00H
	DB	00H
	DB	00H
	DB	00H
	DB	00H
	DB	00H
	DB	00H
	DB	00H
	DB	00H
	DB	00H
	DB	00H
	DB	00H
	DB	00H
	DB	00H
	DB	00H
	DB	00H
	DB	00H
	DB	00H
	DB	00H
	DB	00H
	DB	00H
	DB	00H
	DB	00H
	DB	00H
	DB	00H
	DB	00H
	DB	00H
	DB	00H
	DB	00H
	DB	00H
	DB	011H
	DB	01eH
	DB	03H
	DB	03H
	DB	020H
	DB	00H
	DB	00H
	DB	00H
	DB	00H
	DB	00H
	DB	00H
	DB	00H
	DB	00H
	DB	0e6H
	DB	03H
	DB	03H
	DB	03H
	DB	09fH
	DB	00H
	DB	00H
	DB	00H
	DB	00H
	DB	00H
	DB	00H
	DB	00H
	DB	00H
	DB	00H
	DB	00H
	DB	00H
	DB	00H
	DB	00H
	DB	00H
	DB	00H
	DB	00H
	DB	00H
	DB	00H
	DB	00H
	DB	00H
	DB	00H
	DB	00H
	DB	00H
	DB	00H
	DB	00H
	DB	00H
	DB	00H
	DB	00H
	DB	00H
	DB	00H
	DB	00H
	DB	00H
	DB	00H
	DB	00H
	DB	00H
	DB	00H
	DB	00H
	DB	00H
	DB	00H
	DB	00H
	DB	00H
	DB	00H
	DB	00H
	DB	00H
	DB	00H
	DB	00H
	DB	00H
	DB	00H
	DB	00H
	DB	00H
	DB	00H
	DB	00H
	DB	00H
	DB	00H
	DB	00H
	DB	00H
	DB	00H
	DB	00H
	DB	00H
	DB	00H
	DB	00H
	DB	00H
	DB	00H
	DB	00H
	DB	00H
	DB	00H
	DB	00H
	DB	00H
	DB	00H
	DB	00H
	DB	00H
	DB	00H
	DB	00H
	DB	00H
	DB	00H
	DB	00H
	DB	00H
	DB	00H
	DB	00H
	DB	00H
	DB	00H
	DB	00H
	DB	00H
	DB	00H
	DB	00H
	DB	00H
	DB	00H
	DB	00H
	DB	00H
	DB	00H
	DB	00H
	DB	00H
	DB	00H
	DB	00H
	DB	00H
	DB	00H
	DB	00H
	DB	00H
	DB	00H
	DB	00H
	DB	00H
	DB	00H
	DB	00H
	DB	00H
	DB	00H
	DB	00H
	DB	00H
	DB	00H
	DB	00H
	DB	00H
	DB	00H
	DB	00H
	DB	00H
	DB	00H
	DB	00H
	DB	00H
	DB	00H
	DB	00H
	DB	00H
	DB	00H
	DB	00H
	DB	00H
	DB	00H
	DB	00H
	DB	00H
	DB	00H
	DB	00H
	DB	00H
	DB	00H
	DB	00H
	DB	00H
	DB	00H
	DB	00H
	DB	00H
	DB	00H
	DB	00H
	DB	00H
	DB	00H
	DB	00H
	DB	00H
	DB	00H
	DB	00H
	DB	00H
	DB	00H
	DB	00H
	DB	00H
	DB	00H
	DB	00H
	DB	00H
	DB	00H
	DB	00H
	DB	00H
	DB	00H
	DB	00H
	DB	00H
	DB	00H
	DB	00H
	DB	00H
	DB	00H
	DB	00H
	DB	0f4H
	DB	03H
	DB	03H
	DB	022H
	DB	00H
	DB	00H
	DB	00H
	DB	00H
	DB	00H
	DB	00H
	DB	00H
	DB	00H
	DB	00H
	DB	0e6H
	DB	03H
	DB	03H
	DB	03H
	DB	03aH
	DB	00H
	DB	00H
	DB	00H
	DB	00H
	DB	00H
	DB	00H
	DB	00H
	DB	00H
	DB	00H
	DB	00H
	DB	00H
	DB	00H
	DB	00H
	DB	00H
	DB	00H
	DB	00H
	DB	00H
	DB	00H
	DB	00H
	DB	00H
	DB	00H
	DB	00H
	DB	00H
	DB	00H
	DB	00H
	DB	00H
	DB	00H
	DB	00H
	DB	00H
	DB	00H
	DB	00H
	DB	00H
	DB	00H
	DB	00H
	DB	00H
	DB	00H
	DB	00H
	DB	00H
	DB	00H
	DB	00H
	DB	00H
	DB	00H
	DB	00H
	DB	00H
	DB	00H
	DB	00H
	DB	00H
	DB	00H
	DB	00H
	DB	00H
	DB	00H
	DB	00H
	DB	00H
	DB	00H
	DB	00H
	DB	00H
	DB	00H
	DB	00H
	DB	00H
	DB	00H
	DB	00H
	DB	00H
	DB	00H
	DB	00H
	DB	00H
	DB	00H
	DB	00H
	DB	00H
	DB	00H
	DB	00H
	DB	00H
	DB	00H
	DB	00H
	DB	00H
	DB	00H
	DB	00H
	DB	00H
	DB	00H
	DB	00H
	DB	00H
	DB	00H
	DB	00H
	DB	00H
	DB	00H
	DB	00H
	DB	00H
	DB	00H
	DB	00H
	DB	00H
	DB	00H
	DB	00H
	DB	00H
	DB	00H
	DB	00H
	DB	00H
	DB	00H
	DB	00H
	DB	00H
	DB	00H
	DB	00H
	DB	00H
	DB	00H
	DB	00H
	DB	00H
	DB	00H
	DB	00H
	DB	00H
	DB	00H
	DB	00H
	DB	00H
	DB	00H
	DB	00H
	DB	00H
	DB	00H
	DB	00H
	DB	00H
	DB	00H
	DB	00H
	DB	00H
	DB	00H
	DB	00H
	DB	00H
	DB	00H
	DB	00H
	DB	00H
	DB	00H
	DB	00H
	DB	00H
	DB	00H
	DB	00H
	DB	00H
	DB	00H
	DB	00H
	DB	00H
	DB	00H
	DB	00H
	DB	00H
	DB	00H
	DB	00H
	DB	00H
	DB	00H
	DB	00H
	DB	00H
	DB	00H
	DB	00H
	DB	00H
	DB	00H
	DB	00H
	DB	00H
	DB	00H
	DB	00H
	DB	00H
	DB	00H
	DB	00H
	DB	00H
	DB	00H
	DB	00H
	DB	00H
	DB	00H
	DB	00H
	DB	010H
	DB	09fH
	DB	0e8H
	DB	027H
	DB	00H
	DB	00H
	DB	00H
	DB	00H
	DB	00H
	DB	00H
	DB	00H
	DB	00H
	DB	00H
	DB	027H
	DB	0e8H
	DB	0e6H
	DB	02bH
	DB	027H
	DB	00H
	DB	00H
	DB	00H
	DB	00H
	DB	00H
	DB	00H
	DB	00H
	DB	00H
	DB	00H
	DB	00H
	DB	00H
	DB	00H
	DB	00H
	DB	00H
	DB	00H
	DB	00H
	DB	00H
	DB	00H
	DB	00H
	DB	00H
	DB	00H
	DB	00H
	DB	00H
	DB	00H
	DB	00H
	DB	00H
	DB	00H
	DB	00H
	DB	00H
	DB	00H
	DB	00H
	DB	00H
	DB	00H
	DB	00H
	DB	00H
	DB	00H
	DB	00H
	DB	00H
	DB	00H
	DB	00H
	DB	00H
	DB	00H
	DB	00H
	DB	00H
	DB	00H
	DB	00H
	DB	00H
	DB	00H
	DB	00H
	DB	00H
	DB	00H
	DB	00H
	DB	00H
	DB	00H
	DB	00H
	DB	00H
	DB	00H
	DB	00H
	DB	00H
	DB	00H
	DB	00H
	DB	00H
	DB	00H
	DB	00H
	DB	00H
	DB	00H
	DB	00H
	DB	00H
	DB	00H
	DB	00H
	DB	00H
	DB	00H
	DB	00H
	DB	00H
	DB	00H
	DB	00H
	DB	00H
	DB	00H
	DB	00H
	DB	00H
	DB	00H
	DB	00H
	DB	00H
	DB	00H
	DB	00H
	DB	00H
	DB	00H
	DB	00H
	DB	00H
	DB	00H
	DB	00H
	DB	00H
	DB	00H
	DB	00H
	DB	00H
	DB	00H
	DB	00H
	DB	00H
	DB	00H
	DB	00H
	DB	00H
	DB	00H
	DB	00H
	DB	00H
	DB	00H
	DB	00H
	DB	00H
	DB	00H
	DB	00H
	DB	00H
	DB	00H
	DB	00H
	DB	00H
	DB	00H
	DB	00H
	DB	00H
	DB	00H
	DB	00H
	DB	00H
	DB	00H
	DB	00H
	DB	00H
	DB	00H
	DB	00H
	DB	00H
	DB	00H
	DB	00H
	DB	00H
	DB	00H
	DB	00H
	DB	00H
	DB	00H
	DB	00H
	DB	00H
	DB	00H
	DB	00H
	DB	00H
	DB	00H
	DB	00H
	DB	00H
	DB	00H
	DB	00H
	DB	00H
	DB	00H
	DB	00H
	DB	00H
	DB	00H
	DB	00H
	DB	00H
	DB	00H
	DB	00H
	DB	00H
	DB	00H
	DB	00H
	DB	00H
	DB	00H
	DB	00H
	DB	00H
	DB	00H
	DB	00H
	DB	00H
	DB	00H
	DB	00H
	DB	00H
	DB	00H
	DB	00H
	DB	00H
	DB	00H
	DB	00H
	DB	00H
	DB	00H
	DB	00H
	DB	00H
	DB	00H
	DB	00H
	DB	00H
	DB	00H
	DB	00H
	DB	00H
	DB	00H
	DB	00H
	DB	00H
	DB	00H
	DB	00H
	DB	00H
	DB	00H
	DB	00H
	DB	00H
	DB	00H
	DB	00H
	DB	00H
	DB	00H
	DB	00H
	DB	00H
	DB	00H
	DB	00H
	DB	00H
	DB	00H
	DB	00H
	DB	00H
	DB	00H
	DB	00H
	DB	00H
	DB	00H
	DB	00H
	DB	00H
	DB	00H
	DB	00H
	DB	00H
	DB	00H
	DB	00H
	DB	00H
	DB	00H
	DB	00H
	DB	00H
	DB	00H
	DB	00H
	DB	00H
	DB	00H
	DB	00H
	DB	00H
	DB	00H
	DB	00H
	DB	00H
	DB	00H
	DB	00H
	DB	00H
	DB	00H
	DB	00H
	DB	00H
	DB	00H
	DB	00H
	DB	00H
	DB	00H
	DB	00H
	DB	00H
	DB	00H
	DB	00H
	DB	00H
	DB	00H
	DB	00H
	DB	00H
	DB	00H
	DB	00H
	DB	00H
	DB	00H
	DB	00H
	DB	00H
	DB	00H
	DB	00H
	DB	00H
	DB	00H
	DB	00H
	DB	00H
	DB	00H
	DB	00H
	DB	00H
	DB	00H
	DB	00H
	DB	00H
	DB	00H
	DB	00H
	DB	00H
	DB	00H
	DB	00H
	DB	00H
	DB	00H
	DB	00H
	DB	00H
	DB	00H
	DB	00H
	DB	00H
	DB	00H
	DB	00H
	DB	00H
	DB	00H
	DB	00H
	DB	00H
	DB	00H
	DB	00H
	DB	00H
	DB	00H
	DB	00H
	DB	00H
	DB	00H
	DB	00H
	DB	00H
	DB	00H
	DB	00H
	DB	00H
	DB	00H
	DB	00H
	DB	00H
	DB	00H
	DB	00H
	DB	00H
	DB	00H
	DB	00H
	DB	00H
	DB	00H
	DB	00H
	DB	00H
	DB	00H
	DB	00H
	DB	00H
	DB	00H
	DB	00H
	DB	00H
	DB	00H
	DB	00H
	DB	00H
	DB	00H
	DB	00H
	DB	00H
	DB	00H
	DB	00H
	DB	00H
	DB	00H
	DB	00H
	DB	00H
	DB	00H
	DB	00H
	DB	00H
	DB	00H
	DB	00H
	DB	00H
	DB	00H
	DB	00H
	DB	00H
	DB	00H
	DB	00H
	DB	00H
	DB	00H
	DB	00H
	DB	00H
	DB	00H
	DB	00H
	DB	00H
	DB	00H
	DB	00H
	DB	00H
	DB	00H
	DB	00H
	DB	00H
	DB	00H
	DB	00H
	DB	00H
	DB	00H
	DB	00H
	DB	00H
	DB	00H
	DB	00H
	DB	00H
	DB	00H
	DB	00H
	DB	00H
	DB	00H
	DB	00H
	DB	00H
	DB	00H
	DB	00H
	DB	00H
	DB	00H
	DB	00H
	DB	00H
	DB	00H
	DB	00H
	DB	00H
	DB	00H
	DB	00H
	DB	00H
	DB	00H
	DB	00H
	DB	00H
	DB	00H
	DB	00H
	DB	00H
	DB	00H
	DB	00H
	DB	00H
	DB	00H
	DB	00H
	DB	00H
	DB	00H
	DB	00H
	DB	00H
	DB	00H
	DB	00H
	DB	00H
	DB	00H
	DB	00H
	DB	00H
	DB	00H
	DB	00H
	DB	00H
	DB	00H
	DB	00H
	DB	00H
	DB	00H
	DB	00H
	DB	00H
CONST	ENDS
END
