; Listing generated by Microsoft (R) Optimizing Compiler Version 16.00.40219.01 

	TITLE	C:\DUII\DUII\TrackDetect.c
	.686P
	.XMM
	include listing.inc
	.model	flat

INCLUDELIB LIBCMT
INCLUDELIB OLDNAMES

PUBLIC	_numberOfShortListTracks
PUBLIC	_numberOfTracks
PUBLIC	_romTrackTable
_DATA	SEGMENT
COMM	_trackTable:BYTE:07788H
COMM	_trackShortList:DWORD:01a9H
_DATA	ENDS
_BSS	SEGMENT
_numberOfShortListTracks DD 01H DUP (?)
_BSS	ENDS
CONST	SEGMENT
_romTrackTable DB 'Adelaide', 00H
	ORG $+8
	ORG $+3
	DD	00H
	DQ	0c0417716ebd4cfd1r		; -34.9304
	DQ	0406153db0bbf50e3r		; 138.62
	DD	043a18000r			; 323
	ORG $+4
	DQ	00000000000000000r		; 0
	DQ	00000000000000000r		; 0
	DD	000000000r			; 0
	DD	00H
	DB	'Adria', 00H
	ORG $+11
	ORG $+3
	DD	00H
	DQ	0404685b951c5c572r		; 45.0447
	DQ	040284baa582dbe7fr		; 12.1478
	DD	000000000r			; 0
	ORG $+4
	DQ	00000000000000000r		; 0
	DQ	00000000000000000r		; 0
	DD	000000000r			; 0
	DD	00H
	DB	'Aintree', 00H
	ORG $+9
	ORG $+3
	DD	00H
	DQ	0404abcd573647babr		; 53.4753
	DQ	0c00785b18548a9bdr		; -2.94028
	DD	042b00000r			; 88
	ORG $+4
	DQ	00000000000000000r		; 0
	DQ	00000000000000000r		; 0
	DD	000000000r			; 0
	DD	00H
	DB	'Albacete', 00H
	ORG $+8
	ORG $+3
	DD	00H
	DQ	0404380a90cd423d9r		; 39.0052
	DQ	0bffcbad4b2745bf2r		; -1.79561
	DD	043a80000r			; 336
	ORG $+4
	DQ	00000000000000000r		; 0
	DQ	00000000000000000r		; 0
	DD	000000000r			; 0
	DD	00H
	DB	'Albi', 00H
	ORG $+12
	ORG $+3
	DD	00H
	DQ	04045f540fecdd0d9r		; 43.916
	DQ	04000f2ef911cf356r		; 2.11862
	DD	042f40000r			; 122
	ORG $+4
	DQ	00000000000000000r		; 0
	DQ	00000000000000000r		; 0
	DD	000000000r			; 0
	DD	00H
	DB	'Aldo Scribante', 00H
	ORG $+2
	ORG $+3
	DD	00H
	DQ	0c040e745e9185ceer		; -33.8068
	DQ	04039a5593e5fb720r		; 25.6459
	DD	0424c0000r			; 51
	ORG $+4
	DQ	00000000000000000r		; 0
	DQ	00000000000000000r		; 0
	DD	000000000r			; 0
	DD	00H
	DB	'Alfa Romeo', 00H
	ORG $+6
	ORG $+3
	DD	00H
	DQ	04046bd48d3ae685er		; 45.4788
	DQ	0402098da3c21187er		; 8.29854
	DD	041980000r			; 19
	ORG $+4
	DQ	00000000000000000r		; 0
	DQ	00000000000000000r		; 0
	DD	000000000r			; 0
	DD	00H
	DB	'AMP', 00H
	ORG $+13
	ORG $+3
	DD	00H
	DQ	04041377225b749aer		; 34.4332
	DQ	0c0550b47a17f4129r		; -84.1762
	DD	043110000r			; 145
	ORG $+4
	DQ	00000000000000000r		; 0
	DQ	00000000000000000r		; 0
	DD	000000000r			; 0
	DD	00H
	DB	'AMP North', 00H
	ORG $+7
	ORG $+3
	DD	00H
	DQ	0404137bd5992428dr		; 34.4355
	DQ	0c0550b8b65237048r		; -84.1804
	DD	042ea0000r			; 117
	ORG $+4
	DQ	00000000000000000r		; 0
	DQ	00000000000000000r		; 0
	DD	000000000r			; 0
	DD	00H
	DB	'AMP South', 00H
	ORG $+7
	ORG $+3
	DD	00H
	DQ	04041377225b749aer		; 34.4332
	DQ	0c0550b47a17f4129r		; -84.1762
	DD	043110000r			; 145
	ORG $+4
	DQ	00000000000000000r		; 0
	DQ	00000000000000000r		; 0
	DD	000000000r			; 0
	DD	00H
	DB	'AMS', 00H
	ORG $+13
	ORG $+3
	DD	00H
	DQ	04040b160e94ee393r		; 33.3858
	DQ	0c055144801f75105r		; -84.3169
	DD	043908000r			; 289
	ORG $+4
	DQ	00000000000000000r		; 0
	DQ	00000000000000000r		; 0
	DD	000000000r			; 0
	DD	01H
	DB	'Arizona', 00H
	ORG $+9
	ORG $+3
	DD	00H
	DQ	04040c2288051c9f7r		; 33.5169
	DQ	0c05c191333b96af0r		; -112.392
	DD	040800000r			; 4
	ORG $+4
	DQ	00000000000000000r		; 0
	DQ	00000000000000000r		; 0
	DD	000000000r			; 0
	DD	00H
	DB	'Arroyo Seco', 00H
	ORG $+5
	ORG $+3
	DD	00H
	DQ	040401e50bd87b56cr		; 32.2368
	DQ	0c05adb7fe4bcad9br		; -107.43
	DD	043968000r			; 301
	ORG $+4
	DQ	00000000000000000r		; 0
	DQ	00000000000000000r		; 0
	DD	000000000r			; 0
	DD	00H
	DB	'Asan', 00H
	ORG $+12
	ORG $+3
	DD	00H
	DQ	040410b6b76709fa5r		; 34.0892
	DQ	04060bb791819d239r		; 133.859
	DD	043110000r			; 145
	ORG $+4
	DQ	00000000000000000r		; 0
	DQ	00000000000000000r		; 0
	DD	000000000r			; 0
	DD	00H
	DB	'Ascari', 00H
	ORG $+10
	ORG $+3
	DD	00H
	DQ	040426994c0160525r		; 36.8249
	DQ	0c014555043e5321er		; -5.08331
	DD	042ea0000r			; 117
	ORG $+4
	DQ	00000000000000000r		; 0
	DQ	00000000000000000r		; 0
	DD	000000000r			; 0
	DD	00H
	DB	'Aspen', 00H
	ORG $+11
	ORG $+3
	DD	00H
	DQ	04043a219f3c70c99r		; 39.2664
	DQ	0c05ab852934acaffr		; -106.88
	DD	043370000r			; 183
	ORG $+4
	DQ	00000000000000000r		; 0
	DQ	00000000000000000r		; 0
	DD	000000000r			; 0
	DD	00H
	DB	'Assen', 00H
	ORG $+11
	ORG $+3
	DD	00H
	DQ	0404a7b2d01c0ca60r		; 52.9623
	DQ	0401a18adeebb341er		; 6.5241
	DD	0424c0000r			; 51
	ORG $+4
	DQ	00000000000000000r		; 0
	DQ	00000000000000000r		; 0
	DD	000000000r			; 0
	DD	00H
	DB	'Atlantic', 00H
	ORG $+8
	ORG $+3
	DD	00H
	DQ	04046929310129cbbr		; 45.1451
	DQ	0c04fb99a6b50b0f2r		; -63.45
	DD	0431f0000r			; 159
	ORG $+4
	DQ	00000000000000000r		; 0
	DQ	00000000000000000r		; 0
	DD	000000000r			; 0
	DD	00H
	DB	'Autobahn Full', 00H
	ORG $+3
	ORG $+3
	DD	00H
	DQ	04044ba707e175d14r		; 41.4566
	DQ	0c056080ea9e6eeb7r		; -88.1259
	DD	043948000r			; 297
	ORG $+4
	DQ	00000000000000000r		; 0
	DQ	00000000000000000r		; 0
	DD	000000000r			; 0
	DD	00H
	DB	'Autobahn North', 00H
	ORG $+2
	ORG $+3
	DD	00H
	DQ	04044ba707e175d14r		; 41.4566
	DQ	0c056080ea9e6eeb7r		; -88.1259
	DD	043948000r			; 297
	ORG $+4
	DQ	00000000000000000r		; 0
	DQ	00000000000000000r		; 0
	DD	000000000r			; 0
	DD	00H
	DB	'Autobahn South', 00H
	ORG $+2
	ORG $+3
	DD	00H
	DQ	04044ba445aa2e3c5r		; 41.4552
	DQ	0c056081eb4202d9dr		; -88.1269
	DD	042f40000r			; 122
	ORG $+4
	DQ	00000000000000000r		; 0
	DQ	00000000000000000r		; 0
	DD	000000000r			; 0
	DD	00H
	DB	'Autopolis', 00H
	ORG $+7
	ORG $+3
	DD	00H
	DQ	0404084cb3a2595bcr		; 33.0375
	DQ	040605f348f53c57ar		; 130.975
	DD	042f60000r			; 123
	ORG $+4
	DQ	00000000000000000r		; 0
	DQ	00000000000000000r		; 0
	DD	000000000r			; 0
	DD	00H
	DB	'Bahia Blanca', 00H
	ORG $+4
	ORG $+3
	DD	00H
	DQ	0c043574185058dder		; -38.6817
	DQ	0c04f16aa10e02214r		; -62.1771
	DD	0428c0000r			; 70
	ORG $+4
	DQ	00000000000000000r		; 0
	DQ	00000000000000000r		; 0
	DD	000000000r			; 0
	DD	00H
	DB	'Bahrain', 00H
	ORG $+9
	ORG $+3
	DD	00H
	DQ	0403a084e831ad213r		; 26.0324
	DQ	04049415568e820e6r		; 50.5104
	DD	040000000r			; 2
	ORG $+4
	DQ	00000000000000000r		; 0
	DQ	00000000000000000r		; 0
	DD	000000000r			; 0
	DD	00H
	DB	'Balcarce', 00H
	ORG $+8
	ORG $+3
	DD	00H
	DQ	0c042f104e618ce2dr		; -37.883
	DQ	0c04d22232096787dr		; -58.2667
	DD	043540000r			; 212
	ORG $+4
	DQ	00000000000000000r		; 0
	DQ	00000000000000000r		; 0
	DD	000000000r			; 0
	DD	00H
	DB	'Barbagallo', 00H
	ORG $+6
	ORG $+3
	DD	00H
	DQ	0c03faa07e5a78f26r		; -31.6642
	DQ	0405cf2536d655e29r		; 115.786
	DD	03f800000r			; 1
	ORG $+4
	DQ	00000000000000000r		; 0
	DQ	00000000000000000r		; 0
	DD	000000000r			; 0
	DD	00H
	DB	'Barber', 00H
	ORG $+10
	ORG $+3
	DD	00H
	DQ	04040c42cc2d6a9c5r		; 33.5326
	DQ	0c055a7a7e73a365dr		; -86.6196
	DD	042380000r			; 46
	ORG $+4
	DQ	00000000000000000r		; 0
	DQ	00000000000000000r		; 0
	DD	000000000r			; 0
	DD	00H
	DB	'Baskerville', 00H
	ORG $+5
	ORG $+3
	DD	00H
	DQ	0c0455f8ceb356da0r		; -42.7465
	DQ	04062696e7e62dc6er		; 147.295
	DD	042080000r			; 34
	ORG $+4
	DQ	00000000000000000r		; 0
	DQ	00000000000000000r		; 0
	DD	000000000r			; 0
	DD	00H
	DB	'Bathurst', 00H
	ORG $+8
	ORG $+3
	DD	00H
	DQ	0c040b83db3bfb58dr		; -33.4394
	DQ	04062b1dcfcc5b8dcr		; 149.558
	DD	0438c0000r			; 280
	ORG $+4
	DQ	00000000000000000r		; 0
	DQ	00000000000000000r		; 0
	DD	000000000r			; 0
	DD	00H
	DB	'Belle Isle', 00H
	ORG $+6
	ORG $+3
	DD	00H
	DQ	040452b2606fac604r		; 42.3371
	DQ	0c054bfe8c8abd5dcr		; -82.9986
	DD	042980000r			; 76
	ORG $+4
	DQ	00000000000000000r		; 0
	DQ	00000000000000000r		; 0
	DD	000000000r			; 0
	DD	00H
	DB	'Bedford', 00H
	ORG $+9
	ORG $+3
	DD	00H
	DQ	0404a1e18e757928er		; 52.2351
	DQ	0bfde5b5b70691ea8r		; -0.474326
	DD	0436a0000r			; 234
	ORG $+4
	DQ	00000000000000000r		; 0
	DQ	00000000000000000r		; 0
	DD	000000000r			; 0
	DD	00H
	DB	'Blackhawk', 00H
	ORG $+7
	ORG $+3
	DD	00H
	DQ	040453e7304039abfr		; 42.4879
	DQ	0c0564784c271fff8r		; -89.1175
	DD	03f800000r			; 1
	ORG $+4
	DQ	00000000000000000r		; 0
	DQ	00000000000000000r		; 0
	DD	000000000r			; 0
	DD	00H
	DB	'Blue-Grass', 00H
	ORG $+6
	ORG $+3
	DD	00H
	DQ	0404361e0ded288cer		; 38.7647
	DQ	0c055336cdf266ba5r		; -84.8035
	DD	042de0000r			; 111
	ORG $+4
	DQ	00000000000000000r		; 0
	DQ	00000000000000000r		; 0
	DD	000000000r			; 0
	DD	00H
	DB	'Bois-Guyon', 00H
	ORG $+6
	ORG $+3
	DD	00H
	DQ	0404861422467be55r		; 48.7598
	DQ	03ff5f18c9fb6134dr		; 1.37147
	DD	043a98000r			; 339
	ORG $+4
	DQ	00000000000000000r		; 0
	DQ	00000000000000000r		; 0
	DD	000000000r			; 0
	DD	00H
	DB	'BordeauxMerigna', 00H
	ORG $+1
	ORG $+3
	DD	00H
	DQ	040466be81450efddr		; 44.843
	DQ	0bfe73c8e25c810a5r		; -0.726142
	DD	041a80000r			; 21
	ORG $+4
	DQ	00000000000000000r		; 0
	DQ	00000000000000000r		; 0
	DD	000000000r			; 0
	DD	00H
	DB	'Brainerd', 00H
	ORG $+8
	ORG $+3
	DD	00H
	DQ	04047355bbbe878fbr		; 46.4169
	DQ	0c0579196744b2b77r		; -94.2748
	DD	042d00000r			; 104
	ORG $+4
	DQ	00000000000000000r		; 0
	DQ	00000000000000000r		; 0
	DD	000000000r			; 0
	DD	00H
	DB	'Brands Hatch', 00H
	ORG $+4
	ORG $+3
	DD	00H
	DQ	04049ae1e0c5a8156r		; 51.3603
	DQ	03fd0a8da7f3cf701r		; 0.260306
	DD	042820000r			; 65
	ORG $+4
	DQ	00000000000000000r		; 0
	DQ	00000000000000000r		; 0
	DD	000000000r			; 0
	DD	00H
	DB	'Brasilia', 00H
	ORG $+8
	ORG $+3
	DD	00H
	DQ	0c02f8baeab7995eer		; -15.7728
	DQ	0c047f33b6cbd987cr		; -47.9003
	DD	0428a0000r			; 69
	ORG $+4
	DQ	00000000000000000r		; 0
	DQ	00000000000000000r		; 0
	DD	000000000r			; 0
	DD	00H
	DB	'Bretagne', 00H
	ORG $+8
	ORG $+3
	DD	00H
	DQ	04047ac3b70ef5665r		; 47.3456
	DQ	0bffcc6f262888b54r		; -1.79857
	DD	0438d8000r			; 283
	ORG $+4
	DQ	00000000000000000r		; 0
	DQ	00000000000000000r		; 0
	DD	000000000r			; 0
	DD	00H
	DB	'Bristol', 00H
	ORG $+9
	ORG $+3
	DD	00H
	DQ	04042420c282c6ef4r		; 36.516
	DQ	0c05490650e779208r		; -82.2562
	DD	043a40000r			; 328
	ORG $+4
	DQ	00000000000000000r		; 0
	DQ	00000000000000000r		; 0
	DD	000000000r			; 0
	DD	01H
	DB	'Brno', 00H
	ORG $+12
	ORG $+3
	DD	00H
	DQ	0404899f6fd21ff2er		; 49.2028
	DQ	0403072089e34330dr		; 16.4454
	DD	043930000r			; 294
	ORG $+4
	DQ	00000000000000000r		; 0
	DQ	00000000000000000r		; 0
	DD	000000000r			; 0
	DD	00H
	DB	'Brooklands', 00H
	ORG $+6
	ORG $+3
	DD	00H
	DQ	04049ac31df761cbdr		; 51.3453
	DQ	0bfde1348b220791cr		; -0.469927
	DD	042dc0000r			; 110
	ORG $+4
	DQ	00000000000000000r		; 0
	DQ	00000000000000000r		; 0
	DD	000000000r			; 0
	DD	00H
	DB	'Buenos Aires', 00H
	ORG $+4
	ORG $+3
	DD	00H
	DQ	0c04158dc6e2a8006r		; -34.6942
	DQ	0c04d3b0ecb74ddf8r		; -58.4614
	DD	042080000r			; 34
	ORG $+4
	DQ	00000000000000000r		; 0
	DQ	00000000000000000r		; 0
	DD	000000000r			; 0
	DD	00H
	DB	'Bushy Park', 00H
	ORG $+6
	ORG $+3
	DD	00H
	DQ	0402a4700cd855971r		; 13.1387
	DQ	0c04dbbc68ec52a41r		; -59.467
	DD	0435a0000r			; 218
	ORG $+4
	DQ	00000000000000000r		; 0
	DQ	00000000000000000r		; 0
	DD	000000000r			; 0
	DD	00H
	DB	'Buttonwillow', 00H
	ORG $+4
	ORG $+3
	DD	00H
	DQ	04041be8ffb8b2639r		; 35.4888
	DQ	0c05de2d8be7296f6r		; -119.544
	DD	042ac0000r			; 86
	ORG $+4
	DQ	00000000000000000r		; 0
	DQ	00000000000000000r		; 0
	DD	000000000r			; 0
	DD	00H
	DB	'ButtonwillowCCW', 00H
	ORG $+1
	ORG $+3
	DD	00H
	DQ	04041be8ffb8b2639r		; 35.4888
	DQ	0c05de2d8be7296f6r		; -119.544
	DD	043850000r			; 266
	ORG $+4
	DQ	00000000000000000r		; 0
	DQ	00000000000000000r		; 0
	DD	000000000r			; 0
	DD	00H
	DB	'Cadwell Park', 00H
	ORG $+4
	ORG $+3
	DD	00H
	DQ	0404aa7b5e0f7fcfcr		; 53.3102
	DQ	0bfae748e4755ffe7r		; -0.059483
	DD	0434b0000r			; 203
	ORG $+4
	DQ	00000000000000000r		; 0
	DQ	00000000000000000r		; 0
	DD	000000000r			; 0
	DD	00H
	DB	'Calabogie', 00H
	ORG $+7
	ORG $+3
	DD	00H
	DQ	04046a69f40a2877fr		; 45.3017
	DQ	0c0532b07f66e86c6r		; -76.6724
	DD	0438a0000r			; 276
	ORG $+4
	DQ	00000000000000000r		; 0
	DQ	00000000000000000r		; 0
	DD	000000000r			; 0
	DD	00H
	DB	'Calabogie East', 00H
	ORG $+2
	ORG $+3
	DD	00H
	DQ	04046a69f40a2877fr		; 45.3017
	DQ	0c0532b07f66e86c6r		; -76.6724
	DD	0438a0000r			; 276
	ORG $+4
	DQ	00000000000000000r		; 0
	DQ	00000000000000000r		; 0
	DD	000000000r			; 0
	DD	00H
	DB	'Calabogie West', 00H
	ORG $+2
	ORG $+3
	DD	00H
	DQ	04046a703ea704bc2r		; 45.3048
	DQ	0c0532b4901d19158r		; -76.6763
	DD	043460000r			; 198
	ORG $+4
	DQ	00000000000000000r		; 0
	DQ	00000000000000000r		; 0
	DD	000000000r			; 0
	DD	00H
	DB	'Calafat', 00H
	ORG $+9
	ORG $+3
	DD	00H
	DQ	040447755cd91eeaar		; 40.9323
	DQ	03feadd52c16df3f9r		; 0.839517
	DD	042280000r			; 42
	ORG $+4
	DQ	00000000000000000r		; 0
	DQ	00000000000000000r		; 0
	DD	000000000r			; 0
	DD	00H
	DB	'Calder Oval', 00H
	ORG $+5
	ORG $+3
	DD	00H
	DQ	0c042d626a22b3893r		; -37.6731
	DQ	040621851ed9dfdacr		; 144.76
	DD	040000000r			; 2
	ORG $+4
	DQ	00000000000000000r		; 0
	DQ	00000000000000000r		; 0
	DD	000000000r			; 0
	DD	01H
	DB	'Calder Park', 00H
	ORG $+5
	ORG $+3
	DD	00H
	DQ	0c042d5c7ffde7211r		; -37.6702
	DQ	04062181c23b7952dr		; 144.753
	DD	043210000r			; 161
	ORG $+4
	DQ	00000000000000000r		; 0
	DQ	00000000000000000r		; 0
	DD	000000000r			; 0
	DD	00H
	DB	'California', 00H
	ORG $+6
	ORG $+3
	DD	00H
	DQ	040410b044f1a1987r		; 34.0861
	DQ	0c05d60089a027525r		; -117.501
	DD	042b00000r			; 88
	ORG $+4
	DQ	00000000000000000r		; 0
	DQ	00000000000000000r		; 0
	DD	000000000r			; 0
	DD	00H
	DB	'Campo Grande', 00H
	ORG $+4
	ORG $+3
	DD	00H
	DQ	0c03479d54da4ce81r		; -20.4759
	DQ	0c04b3ba6b50b0f28r		; -54.466
	DD	043ab8000r			; 343
	ORG $+4
	DQ	00000000000000000r		; 0
	DQ	00000000000000000r		; 0
	DD	000000000r			; 0
	DD	00H
	DB	'Carole', 00H
	ORG $+10
	ORG $+3
	DD	00H
	DQ	040487d4a2339c0ecr		; 48.9788
	DQ	040042ea3161a1db8r		; 2.52277
	DD	043b00000r			; 352
	ORG $+4
	DQ	00000000000000000r		; 0
	DQ	00000000000000000r		; 0
	DD	000000000r			; 0
	DD	00H
	DB	'Carolina MSP', 00H
	ORG $+4
	ORG $+3
	DD	00H
	DQ	040413e6dd69d3027r		; 34.4877
	DQ	0c05426355043e532r		; -80.597
	DD	043070000r			; 135
	ORG $+4
	DQ	00000000000000000r		; 0
	DQ	00000000000000000r		; 0
	DD	000000000r			; 0
	DD	00H
	DB	'Cartagena', 00H
	ORG $+7
	ORG $+3
	DD	00H
	DQ	04042d292a3055326r		; 37.6451
	DQ	0bff092934acaff6dr		; -1.03579
	DD	043a30000r			; 326
	ORG $+4
	DQ	00000000000000000r		; 0
	DQ	00000000000000000r		; 0
	DD	000000000r			; 0
	DD	00H
	DB	'Cascavel', 00H
	ORG $+8
	ORG $+3
	DD	00H
	DQ	0c038fb082491afc0r		; -24.9806
	DQ	0c04ab0fd438d1d8ar		; -53.3827
	DD	043910000r			; 290
	ORG $+4
	DQ	00000000000000000r		; 0
	DQ	00000000000000000r		; 0
	DD	000000000r			; 0
	DD	00H
	DB	'Castle Combe', 00H
	ORG $+4
	ORG $+3
	DD	00H
	DQ	04049bf12018a43bbr		; 51.4927
	DQ	0c001ba6b50b0f27cr		; -2.21603
	DD	042920000r			; 73
	ORG $+4
	DQ	00000000000000000r		; 0
	DQ	00000000000000000r		; 0
	DD	000000000r			; 0
	DD	00H
	DB	'Castrol', 00H
	ORG $+9
	ORG $+3
	DD	00H
	DQ	0404aaa97396d0918r		; 53.3327
	DQ	0c05c661ea35935fcr		; -113.596
	DD	042e40000r			; 114
	ORG $+4
	DQ	00000000000000000r		; 0
	DQ	00000000000000000r		; 0
	DD	000000000r			; 0
	DD	00H
	DB	'Catalunya', 00H
	ORG $+7
	ORG $+3
	DD	00H
	DQ	04044c8f6be37de94r		; 41.57
	DQ	0400216f86a098916r		; 2.26122
	DD	043540000r			; 212
	ORG $+4
	DQ	00000000000000000r		; 0
	DQ	00000000000000000r		; 0
	DD	000000000r			; 0
	DD	00H
	DB	'Central', 00H
	ORG $+9
	ORG $+3
	DD	00H
	DQ	04041832fa93af74dr		; 35.0249
	DQ	04060dd841cc532a5r		; 134.922
	DD	043520000r			; 210
	ORG $+4
	DQ	00000000000000000r		; 0
	DQ	00000000000000000r		; 0
	DD	000000000r			; 0
	DD	00H
	DB	'Charlotte', 00H
	ORG $+7
	ORG $+3
	DD	00H
	DQ	04041ad16fc9bc771r		; 35.3523
	DQ	0c0542be0ac7da1ecr		; -80.6856
	DD	043430000r			; 195
	ORG $+4
	DQ	00000000000000000r		; 0
	DQ	00000000000000000r		; 0
	DD	000000000r			; 0
	DD	01H
	DB	'Chicagoland', 00H
	ORG $+5
	ORG $+3
	DD	00H
	DQ	04044bc8f96e15875r		; 41.4731
	DQ	0c05603d4fdf3b646r		; -88.0599
	DD	0430c0000r			; 140
	ORG $+4
	DQ	00000000000000000r		; 0
	DQ	00000000000000000r		; 0
	DD	000000000r			; 0
	DD	01H
	DB	'Chimay', 00H
	ORG $+10
	ORG $+3
	DD	00H
	DQ	04049071465e89225r		; 50.0553
	DQ	04011374aba387592r		; 4.304
	DD	043750000r			; 245
	ORG $+4
	DQ	00000000000000000r		; 0
	DQ	00000000000000000r		; 0
	DD	000000000r			; 0
	DD	00H
	DB	'Chuckwalla', 00H
	ORG $+6
	ORG $+3
	DD	00H
	DQ	04040e0780fdc1616r		; 33.7537
	DQ	0c05cd4748a159818r		; -115.32
	DD	042180000r			; 38
	ORG $+4
	DQ	00000000000000000r		; 0
	DQ	00000000000000000r		; 0
	DD	000000000r			; 0
	DD	00H
	DB	'Chuckwalla CCW', 00H
	ORG $+2
	ORG $+3
	DD	00H
	DQ	04040e0780fdc1616r		; 33.7537
	DQ	0c05cd4748a159818r		; -115.32
	DD	0435a0000r			; 218
	ORG $+4
	DQ	00000000000000000r		; 0
	DQ	00000000000000000r		; 0
	DD	000000000r			; 0
	DD	00H
	DB	'ClermontFerrand', 00H
	ORG $+1
	ORG $+3
	DD	00H
	DQ	04046dec5b8dc5500r		; 45.7404
	DQ	04008359685122318r		; 3.02617
	DD	042780000r			; 62
	ORG $+4
	DQ	00000000000000000r		; 0
	DQ	00000000000000000r		; 0
	DD	000000000r			; 0
	DD	00H
	DB	'Comodoro', 00H
	ORG $+8
	ORG $+3
	DD	00H
	DQ	0c046f38cd20afa2fr		; -45.9027
	DQ	0c050e2cf4a558ea8r		; -67.5439
	DD	042c20000r			; 97
	ORG $+4
	DQ	00000000000000000r		; 0
	DQ	00000000000000000r		; 0
	DD	000000000r			; 0
	DD	00H
	DB	'Concordia', 00H
	ORG $+7
	ORG $+3
	DD	00H
	DQ	0c03f4ef5fd47bedbr		; -31.3084
	DQ	0c04d007d1351159cr		; -58.0038
	DD	042ca0000r			; 101
	ORG $+4
	DQ	00000000000000000r		; 0
	DQ	00000000000000000r		; 0
	DD	000000000r			; 0
	DD	00H
	DB	'Corvette Museum', 00H
	ORG $+1
	ORG $+3
	DD	00H
	DQ	04042801f75104d55r		; 37.001
	DQ	0c05597945f9df549r		; -86.3684
	DD	0436f0000r			; 239
	ORG $+4
	DQ	00000000000000000r		; 0
	DQ	00000000000000000r		; 0
	DD	000000000r			; 0
	DD	00H
	DB	'COTA', 00H
	ORG $+12
	ORG $+3
	DD	00H
	DQ	0403e21b9e8c47a18r		; 30.1317
	DQ	0c05868efae7924afr		; -97.6396
	DD	042fe0000r			; 127
	ORG $+4
	DQ	00000000000000000r		; 0
	DQ	00000000000000000r		; 0
	DD	000000000r			; 0
	DD	00H
	DB	'Croft', 00H
	ORG $+11
	ORG $+3
	DD	00H
	DQ	0404b3a49c2c1b110r		; 54.4554
	DQ	0bff8e3864cb5bb38r		; -1.55555
	DD	041700000r			; 15
	ORG $+4
	DQ	00000000000000000r		; 0
	DQ	00000000000000000r		; 0
	DD	000000000r			; 0
	DD	00H
	DB	'Croix enTernois', 00H
	ORG $+1
	ORG $+3
	DD	00H
	DQ	0404930814d72799ar		; 50.3789
	DQ	040025ebc83a96d4cr		; 2.29626
	DD	042840000r			; 66
	ORG $+4
	DQ	00000000000000000r		; 0
	DQ	00000000000000000r		; 0
	DD	000000000r			; 0
	DD	00H
	DB	'Darlington', 00H
	ORG $+6
	ORG $+3
	DD	00H
	DQ	040412597edc7ef17r		; 34.2937
	DQ	0c053f9fcc9ea9a3dr		; -79.9061
	DD	042d00000r			; 104
	ORG $+4
	DQ	00000000000000000r		; 0
	DQ	00000000000000000r		; 0
	DD	000000000r			; 0
	DD	01H
	DB	'Daytona', 00H
	ORG $+9
	ORG $+3
	DD	00H
	DQ	0403d300b5675579br		; 29.1877
	DQ	0c05444a8d64d7f0fr		; -81.0728
	DD	043550000r			; 213
	ORG $+4
	DQ	00000000000000000r		; 0
	DQ	00000000000000000r		; 0
	DD	000000000r			; 0
	DD	01H
	DB	'Daytona Road', 00H
	ORG $+4
	ORG $+3
	DD	00H
	DQ	0403d300b5675579br		; 29.1877
	DQ	0c05444a8d64d7f0fr		; -81.0728
	DD	043550000r			; 213
	ORG $+4
	DQ	00000000000000000r		; 0
	DQ	00000000000000000r		; 0
	DD	000000000r			; 0
	DD	00H
	DB	'Del Jar', 00H
	ORG $+9
	ORG $+3
	DD	00H
	DQ	040444eacf312b1b3r		; 40.6147
	DQ	0c00caa4fca42aed1r		; -3.58316
	DD	043220000r			; 162
	ORG $+4
	DQ	00000000000000000r		; 0
	DQ	00000000000000000r		; 0
	DD	000000000r			; 0
	DD	00H
	DB	'Dijon-Prenois', 00H
	ORG $+3
	ORG $+3
	DD	00H
	DQ	04047aeb31c219eb6r		; 47.3648
	DQ	0401399680e065300r		; 4.89981
	DD	042340000r			; 45
	ORG $+4
	DQ	00000000000000000r		; 0
	DQ	00000000000000000r		; 0
	DD	000000000r			; 0
	DD	00H
	DB	'Dominion', 00H
	ORG $+8
	ORG $+3
	DD	00H
	DQ	0404311bafd976ff4r		; 38.1385
	DQ	0c05360290257c915r		; -77.5025
	DD	042140000r			; 37
	ORG $+4
	DQ	00000000000000000r		; 0
	DQ	00000000000000000r		; 0
	DD	000000000r			; 0
	DD	00H
	DB	'Donington', 00H
	ORG $+7
	ORG $+3
	DD	00H
	DQ	0404a6a3779e9d0ear		; 52.8298
	DQ	0bff612aa5c5f7c67r		; -1.37956
	DD	0438c8000r			; 281
	ORG $+4
	DQ	00000000000000000r		; 0
	DQ	00000000000000000r		; 0
	DD	000000000r			; 0
	DD	00H
	DB	'Dover', 00H
	ORG $+11
	ORG $+3
	DD	00H
	DQ	04043986aca793576r		; 39.1908
	DQ	0c052e1d6fda836ebr		; -75.5287
	DD	043af8000r			; 351
	ORG $+4
	DQ	00000000000000000r		; 0
	DQ	00000000000000000r		; 0
	DD	000000000r			; 0
	DD	01H
	DB	'Dubai', 00H
	ORG $+11
	ORG $+3
	DD	00H
	DQ	040390c240b780347r		; 25.0474
	DQ	0404b9eaa9717df1ar		; 55.2396
	DD	043890000r			; 274
	ORG $+4
	DQ	00000000000000000r		; 0
	DQ	00000000000000000r		; 0
	DD	000000000r			; 0
	DD	00H
	DB	'Eagles Canyon', 00H
	ORG $+3
	ORG $+3
	DD	00H
	DQ	04040af0de8f6ceffr		; 33.3676
	DQ	0c0585b7fbefd0071r		; -97.4297
	DD	043998000r			; 307
	ORG $+4
	DQ	00000000000000000r		; 0
	DQ	00000000000000000r		; 0
	DD	000000000r			; 0
	DD	00H
	DB	'Eastern Creek', 00H
	ORG $+3
	ORG $+3
	DD	00H
	DQ	0c040e6e21101b003r		; -33.8038
	DQ	04062dbdea465a576r		; 150.871
	DD	0438c8000r			; 281
	ORG $+4
	DQ	00000000000000000r		; 0
	DQ	00000000000000000r		; 0
	DD	000000000r			; 0
	DD	00H
	DB	'Ebisu East', 00H
	ORG $+6
	ORG $+3
	DD	00H
	DQ	04042d27caea747d8r		; 37.6444
	DQ	040618bdc0767d34er		; 140.371
	DD	043950000r			; 298
	ORG $+4
	DQ	00000000000000000r		; 0
	DQ	00000000000000000r		; 0
	DD	000000000r			; 0
	DD	00H
	DB	'Ebisu North', 00H
	ORG $+5
	ORG $+3
	DD	00H
	DQ	04042d2bc27631b58r		; 37.6464
	DQ	040618ba706d50657r		; 140.364
	DD	043520000r			; 210
	ORG $+4
	DQ	00000000000000000r		; 0
	DQ	00000000000000000r		; 0
	DD	000000000r			; 0
	DD	00H
	DB	'Ebisu West', 00H
	ORG $+6
	ORG $+3
	DD	00H
	DQ	04042d1e7c06e19b9r		; 37.6399
	DQ	040618bdd41fa7653r		; 140.371
	DD	042ae0000r			; 87
	ORG $+4
	DQ	00000000000000000r		; 0
	DQ	00000000000000000r		; 0
	DD	000000000r			; 0
	DD	00H
	DB	'El Jabali', 00H
	ORG $+7
	ORG $+3
	DD	00H
	DQ	0402b9f4666ec9e23r		; 13.8111
	DQ	0c056551f31f46ed2r		; -89.33
	DD	042700000r			; 60
	ORG $+4
	DQ	00000000000000000r		; 0
	DQ	00000000000000000r		; 0
	DD	000000000r			; 0
	DD	00H
	DB	'Elvington', 00H
	ORG $+7
	ORG $+3
	DD	00H
	DQ	0404aff042528ae75r		; 53.9923
	DQ	0bfef9fe43675ddd3r		; -0.988268
	DD	0437b0000r			; 251
	ORG $+4
	DQ	00000000000000000r		; 0
	DQ	00000000000000000r		; 0
	DD	000000000r			; 0
	DD	00H
	DB	'Enna-Pergusa', 00H
	ORG $+4
	ORG $+3
	DD	00H
	DQ	04042c2943e100608r		; 37.5201
	DQ	0402c9c61522a6f3fr		; 14.3054
	DD	042700000r			; 60
	ORG $+4
	DQ	00000000000000000r		; 0
	DQ	00000000000000000r		; 0
	DD	000000000r			; 0
	DD	00H
	DB	'Estoril', 00H
	ORG $+9
	ORG $+3
	DD	00H
	DQ	040435fece5710881r		; 38.7494
	DQ	0c022c92af9a8cdear		; -9.39291
	DD	0434c0000r			; 204
	ORG $+4
	DQ	00000000000000000r		; 0
	DQ	00000000000000000r		; 0
	DD	000000000r			; 0
	DD	00H
	DB	'European MP', 00H
	ORG $+5
	ORG $+3
	DD	00H
	DQ	0403dd8f41f212d77r		; 29.8475
	DQ	0c05483a715831f04r		; -82.0571
	DD	043250000r			; 165
	ORG $+4
	DQ	00000000000000000r		; 0
	DQ	00000000000000000r		; 0
	DD	000000000r			; 0
	DD	00H
	DB	'Evergreen', 00H
	ORG $+7
	ORG $+3
	DD	00H
	DQ	04047ef42edbb59der		; 47.8692
	DQ	0c05e7f41461b6d44r		; -121.988
	DD	043350000r			; 181
	ORG $+4
	DQ	00000000000000000r		; 0
	DQ	00000000000000000r		; 0
	DD	000000000r			; 0
	DD	01H
	DB	'Fiorano', 00H
	ORG $+9
	ORG $+3
	DD	00H
	DQ	04046446961c36977r		; 44.5345
	DQ	04025b70c34c1a8acr		; 10.8575
	DD	042300000r			; 44
	ORG $+4
	DQ	00000000000000000r		; 0
	DQ	00000000000000000r		; 0
	DD	000000000r			; 0
	DD	00H
	DB	'Firebird East', 00H
	ORG $+3
	ORG $+3
	DD	00H
	DQ	04040a30b39192642r		; 33.2738
	DQ	0c05bfda761027957r		; -111.963
	DD	043140000r			; 148
	ORG $+4
	DQ	00000000000000000r		; 0
	DQ	00000000000000000r		; 0
	DD	000000000r			; 0
	DD	00H
	DB	'Firebird Main', 00H
	ORG $+3
	ORG $+3
	DD	00H
	DQ	04040a23e4abe6a33r		; 33.2675
	DQ	0c05bfdf60e0eb67cr		; -111.968
	DD	043130000r			; 147
	ORG $+4
	DQ	00000000000000000r		; 0
	DQ	00000000000000000r		; 0
	DD	000000000r			; 0
	DD	00H
	DB	'Firebird West', 00H
	ORG $+3
	ORG $+3
	DD	00H
	DQ	04040a26bc621b7e1r		; 33.2689
	DQ	0c05bfe34c1a8ac5cr		; -111.972
	DD	043430000r			; 195
	ORG $+4
	DQ	00000000000000000r		; 0
	DQ	00000000000000000r		; 0
	DD	000000000r			; 0
	DD	00H
	DB	'Ford Test', 00H
	ORG $+7
	ORG $+3
	DD	00H
	DQ	04045263148776816r		; 42.2984
	DQ	0c054ce759ab6d00br		; -83.2259
	DD	042ec0000r			; 118
	ORG $+4
	DQ	00000000000000000r		; 0
	DQ	00000000000000000r		; 0
	DD	000000000r			; 0
	DD	01H
	DB	'Fortaleza', 00H
	ORG $+7
	ORG $+3
	DD	00H
	DQ	0c00f0f0520d130e0r		; -3.88233
	DQ	0c0433ab9a176ddadr		; -38.4588
	DD	0438b8000r			; 279
	ORG $+4
	DQ	00000000000000000r		; 0
	DQ	00000000000000000r		; 0
	DD	000000000r			; 0
	DD	00H
	DB	'Fuji', 00H
	ORG $+12
	ORG $+3
	DD	00H
	DQ	04041afd97f62b6aer		; 35.3738
	DQ	040615dc067cf1c32r		; 138.93
	DD	0424c0000r			; 51
	ORG $+4
	DQ	00000000000000000r		; 0
	DQ	00000000000000000r		; 0
	DD	000000000r			; 0
	DD	00H
	DB	'Fundidora Park', 00H
	ORG $+2
	ORG $+3
	DD	00H
	DQ	04039ad845dc83233r		; 25.6778
	DQ	0c05912559b3d07c8r		; -100.286
	DD	043390000r			; 185
	ORG $+4
	DQ	00000000000000000r		; 0
	DQ	00000000000000000r		; 0
	DD	000000000r			; 0
	DD	00H
	DB	'G Villeneuve', 00H
	ORG $+4
	ORG $+3
	DD	00H
	DQ	04046c001bc98a223r		; 45.5001
	DQ	0c0526174299d883cr		; -73.5227
	DD	043290000r			; 169
	ORG $+4
	DQ	00000000000000000r		; 0
	DQ	00000000000000000r		; 0
	DD	000000000r			; 0
	DD	00H
	DB	'Gateway', 00H
	ORG $+9
	ORG $+3
	DD	00H
	DQ	040435341fa765343r		; 38.6505
	DQ	0c05688c3265add9cr		; -90.1369
	DD	043250000r			; 165
	ORG $+4
	DQ	00000000000000000r		; 0
	DQ	00000000000000000r		; 0
	DD	000000000r			; 0
	DD	00H
	DB	'General Roca', 00H
	ORG $+4
	ORG $+3
	DD	00H
	DQ	0c04389c7c5260f5er		; -39.0764
	DQ	0c050e5257c914b16r		; -67.5804
	DD	042c40000r			; 98
	ORG $+4
	DQ	00000000000000000r		; 0
	DQ	00000000000000000r		; 0
	DD	000000000r			; 0
	DD	00H
	DB	'Gimli', 00H
	ORG $+11
	ORG $+3
	DD	00H
	DQ	0404950e4fb97bb73r		; 50.632
	DQ	0c0584374a771c971r		; -97.054
	DD	043160000r			; 150
	ORG $+4
	DQ	00000000000000000r		; 0
	DQ	00000000000000000r		; 0
	DD	000000000r			; 0
	DD	00H
	DB	'Gingerman', 00H
	ORG $+7
	ORG $+3
	DD	00H
	DQ	04045343a9f383f0cr		; 42.408
	DQ	0c05588fd5454152br		; -86.1405
	DD	043b38000r			; 359
	ORG $+4
	DQ	00000000000000000r		; 0
	DQ	00000000000000000r		; 0
	DD	000000000r			; 0
	DD	00H
	DB	'Goiania', 00H
	ORG $+9
	ORG $+3
	DD	00H
	DQ	0c030b82a8869c66dr		; -16.7194
	DQ	0c04898b52c9d16fdr		; -49.193
	DD	0439e8000r			; 317
	ORG $+4
	DQ	00000000000000000r		; 0
	DQ	00000000000000000r		; 0
	DD	000000000r			; 0
	DD	00H
	DB	'Goodwood', 00H
	ORG $+8
	ORG $+3
	DD	00H
	DQ	040496dd18090b418r		; 50.858
	DQ	0bfe8158750c1b973r		; -0.752628
	DD	0432e0000r			; 174
	ORG $+4
	DQ	00000000000000000r		; 0
	DQ	00000000000000000r		; 0
	DD	000000000r			; 0
	DD	00H
	DB	'Goodyear', 00H
	ORG $+8
	ORG $+3
	DD	00H
	DQ	04045c313ad5bee3dr		; 43.524
	DQ	0400e5524399b2c41r		; 3.79157
	DD	042500000r			; 52
	ORG $+4
	DQ	00000000000000000r		; 0
	DQ	00000000000000000r		; 0
	DD	000000000r			; 0
	DD	00H
	DB	'Gotland Ring', 00H
	ORG $+4
	ORG $+3
	DD	00H
	DQ	0404ceb35f3d7d391r		; 57.8376
	DQ	04032d4afd5454153r		; 18.8308
	DD	043830000r			; 262
	ORG $+4
	DQ	00000000000000000r		; 0
	DQ	00000000000000000r		; 0
	DD	000000000r			; 0
	DD	00H
	DB	'Grand Bayou', 00H
	ORG $+5
	ORG $+3
	DD	00H
	DQ	0403e04b0e1b4bb5er		; 30.0183
	DQ	0c056c52c1b10fd7er		; -91.0808
	DD	042c20000r			; 97
	ORG $+4
	DQ	00000000000000000r		; 0
	DQ	00000000000000000r		; 0
	DD	000000000r			; 0
	DD	00H
	DB	'GrandSport', 00H
	ORG $+6
	ORG $+3
	DD	00H
	DQ	0403d53210be9424er		; 29.3247
	DQ	0c057c2f64cf8d717r		; -95.0463
	DD	0431e0000r			; 158
	ORG $+4
	DQ	00000000000000000r		; 0
	DQ	00000000000000000r		; 0
	DD	000000000r			; 0
	DD	00H
	DB	'Grattan', 00H
	ORG $+9
	ORG $+3
	DD	00H
	DQ	040458c4b87bdcf03r		; 43.0961
	DQ	0c055589873ffac1dr		; -85.3843
	DD	042980000r			; 76
	ORG $+4
	DQ	00000000000000000r		; 0
	DQ	00000000000000000r		; 0
	DD	000000000r			; 0
	DD	00H
	DB	'Hallett CCW', 00H
	ORG $+5
	ORG $+3
	DD	00H
	DQ	040421c3f2d3c792dr		; 36.2207
	DQ	0c05825c9107faa04r		; -96.5904
	DD	043b10000r			; 354
	ORG $+4
	DQ	00000000000000000r		; 0
	DQ	00000000000000000r		; 0
	DD	000000000r			; 0
	DD	00H
	DB	'Hallett CW', 00H
	ORG $+6
	ORG $+3
	DD	00H
	DQ	040421c3f2d3c792dr		; 36.2207
	DQ	0c05825c9107faa04r		; -96.5904
	DD	0432e0000r			; 174
	ORG $+4
	DQ	00000000000000000r		; 0
	DQ	00000000000000000r		; 0
	DD	000000000r			; 0
	DD	00H
	DB	'Harris Hill', 00H
	ORG $+5
	ORG $+3
	DD	00H
	DQ	0403deb3cc4ac6cdbr		; 29.9189
	DQ	0c05877e2b4959e62r		; -97.8732
	DD	042300000r			; 44
	ORG $+4
	DQ	00000000000000000r		; 0
	DQ	00000000000000000r		; 0
	DD	000000000r			; 0
	DD	00H
	DB	'Hastings', 00H
	ORG $+8
	ORG $+3
	DD	00H
	DQ	040444a41919ac797r		; 40.5801
	DQ	0c058967c1376d549r		; -98.3513
	DD	042b20000r			; 89
	ORG $+4
	DQ	00000000000000000r		; 0
	DQ	00000000000000000r		; 0
	DD	000000000r			; 0
	DD	00H
	DB	'Heartland Park', 00H
	ORG $+2
	ORG $+3
	DD	00H
	DQ	04043769c886162f1r		; 38.9267
	DQ	0c057eb4fdf3b645ar		; -95.6767
	DD	043330000r			; 179
	ORG $+4
	DQ	00000000000000000r		; 0
	DQ	00000000000000000r		; 0
	DD	000000000r			; 0
	DD	00H
	DB	'Heidbergring', 00H
	ORG $+4
	ORG $+3
	DD	00H
	DQ	0404ab9e4712e4085r		; 53.4523
	DQ	04024ba5fe974a340r		; 10.364
	DD	043400000r			; 192
	ORG $+4
	DQ	00000000000000000r		; 0
	DQ	00000000000000000r		; 0
	DD	000000000r			; 0
	DD	00H
	DB	'Hermanos Rodrig', 00H
	ORG $+1
	ORG $+3
	DD	00H
	DQ	0403367f92f2b66b6r		; 19.4061
	DQ	0c058c5f10667f90er		; -99.0928
	DD	042c40000r			; 98
	ORG $+4
	DQ	00000000000000000r		; 0
	DQ	00000000000000000r		; 0
	DD	000000000r			; 0
	DD	00H
	DB	'Hidden Valley', 00H
	ORG $+3
	ORG $+3
	DD	00H
	DQ	0c028e5883ba3443dr		; -12.4483
	DQ	040605d0cef672b88r		; 130.908
	DD	042840000r			; 66
	ORG $+4
	DQ	00000000000000000r		; 0
	DQ	00000000000000000r		; 0
	DD	000000000r			; 0
	DD	00H
	DB	'High Plains', 00H
	ORG $+5
	ORG $+3
	DD	00H
	DQ	04043de12be48a58br		; 39.7349
	DQ	0c059f936d22424a2r		; -103.894
	DD	042ca0000r			; 101
	ORG $+4
	DQ	00000000000000000r		; 0
	DQ	00000000000000000r		; 0
	DD	000000000r			; 0
	DD	00H
	DB	'Hockenheim', 00H
	ORG $+6
	ORG $+3
	DD	00H
	DQ	04048a9f4d37c1377r		; 49.3278
	DQ	0402121b5e95b78cdr		; 8.56584
	DD	043a70000r			; 334
	ORG $+4
	DQ	00000000000000000r		; 0
	DQ	00000000000000000r		; 0
	DD	000000000r			; 0
	DD	00H
	DB	'Hokkaido', 00H
	ORG $+8
	ORG $+3
	DD	00H
	DQ	0404575f6db940fedr		; 42.9216
	DQ	0406196dcebfec13cr		; 140.714
	DD	042d20000r			; 105
	ORG $+4
	DQ	00000000000000000r		; 0
	DQ	00000000000000000r		; 0
	DD	000000000r			; 0
	DD	00H
	DB	'Homestead', 00H
	ORG $+7
	ORG $+3
	DD	00H
	DQ	040397425bfad2999r		; 25.4537
	DQ	0c0541a38a7e73a36r		; -80.4097
	DD	043730000r			; 243
	ORG $+4
	DQ	00000000000000000r		; 0
	DQ	00000000000000000r		; 0
	DD	000000000r			; 0
	DD	01H
	DB	'Honda Proving', 00H
	ORG $+3
	ORG $+3
	DD	00H
	DQ	04041a1550ca1cef2r		; 35.2604
	DQ	0c05d7d5fc7e6b3ffr		; -117.959
	DD	0429c0000r			; 78
	ORG $+4
	DQ	00000000000000000r		; 0
	DQ	00000000000000000r		; 0
	DD	000000000r			; 0
	DD	00H
	DB	'HSR Kyushu', 00H
	ORG $+6
	ORG $+3
	DD	00H
	DQ	0404072e9b38d60a6r		; 32.8978
	DQ	040605c14727dcbder		; 130.877
	DD	043830000r			; 262
	ORG $+4
	DQ	00000000000000000r		; 0
	DQ	00000000000000000r		; 0
	DD	000000000r			; 0
	DD	00H
	DB	'Hullavington', 00H
	ORG $+4
	ORG $+3
	DD	00H
	DQ	04049c3ae0c176577r		; 51.5287
	DQ	0c001138ac18f81e9r		; -2.13454
	DD	043510000r			; 209
	ORG $+4
	DQ	00000000000000000r		; 0
	DQ	00000000000000000r		; 0
	DD	000000000r			; 0
	DD	00H
	DB	'Hungaroring', 00H
	ORG $+5
	ORG $+3
	DD	00H
	DQ	04047ca18d6909aedr		; 47.5789
	DQ	040333f980f55de59r		; 19.2484
	DD	0439a0000r			; 308
	ORG $+4
	DQ	00000000000000000r		; 0
	DQ	00000000000000000r		; 0
	DD	000000000r			; 0
	DD	00H
	DB	'Hutchinson Isle', 00H
	ORG $+1
	ORG $+3
	DD	00H
	DQ	040400ae4430b178br		; 32.0851
	DQ	0c05444b3c81908e6r		; -81.0735
	DD	042bc0000r			; 94
	ORG $+4
	DQ	00000000000000000r		; 0
	DQ	00000000000000000r		; 0
	DD	000000000r			; 0
	DD	00H
	DB	'Imola', 00H
	ORG $+11
	ORG $+3
	DD	00H
	DQ	040462c148344c37er		; 44.3444
	DQ	040276d74b407032ar		; 11.7138
	DD	0438c8000r			; 281
	ORG $+4
	DQ	00000000000000000r		; 0
	DQ	00000000000000000r		; 0
	DD	000000000r			; 0
	DD	00H
	DB	'IndeRanch CW', 00H
	ORG $+4
	ORG $+3
	DD	00H
	DQ	040401cdc33721d54r		; 32.2255
	DQ	0c05b805da6a44418r		; -110.006
	DD	042920000r			; 73
	ORG $+4
	DQ	00000000000000000r		; 0
	DQ	00000000000000000r		; 0
	DD	000000000r			; 0
	DD	00H
	DB	'IndeRanch CCW', 00H
	ORG $+3
	ORG $+3
	DD	00H
	DQ	040401cdc33721d54r		; 32.2255
	DQ	0c05b805da6a44418r		; -110.006
	DD	043840000r			; 264
	ORG $+4
	DQ	00000000000000000r		; 0
	DQ	00000000000000000r		; 0
	DD	000000000r			; 0
	DD	00H
	DB	'IndeRanchN CW', 00H
	ORG $+3
	ORG $+3
	DD	00H
	DQ	040401d81e8a2ec29r		; 32.2305
	DQ	0c05b80b0856e696ar		; -110.011
	DD	042100000r			; 36
	ORG $+4
	DQ	00000000000000000r		; 0
	DQ	00000000000000000r		; 0
	DD	000000000r			; 0
	DD	00H
	DB	'IndeRanchN CCW', 00H
	ORG $+2
	ORG $+3
	DD	00H
	DQ	040401d81e8a2ec29r		; 32.2305
	DQ	0c05b80b0856e696ar		; -110.011
	DD	0435a0000r			; 218
	ORG $+4
	DQ	00000000000000000r		; 0
	DQ	00000000000000000r		; 0
	DD	000000000r			; 0
	DD	00H
	DB	'IndeRanchS CW', 00H
	ORG $+3
	ORG $+3
	DD	00H
	DQ	040401cdc33721d54r		; 32.2255
	DQ	0c05b805da6a44418r		; -110.006
	DD	042920000r			; 73
	ORG $+4
	DQ	00000000000000000r		; 0
	DQ	00000000000000000r		; 0
	DD	000000000r			; 0
	DD	00H
	DB	'IndeRanchS CCW', 00H
	ORG $+2
	ORG $+3
	DD	00H
	DQ	040401cdc33721d54r		; 32.2255
	DQ	0c05b805da6a44418r		; -110.006
	DD	043840000r			; 264
	ORG $+4
	DQ	00000000000000000r		; 0
	DQ	00000000000000000r		; 0
	DD	000000000r			; 0
	DD	00H
	DB	'Indy Oval', 00H
	ORG $+7
	ORG $+3
	DD	00H
	DQ	04043e584d338f798r		; 39.7931
	DQ	0c0558f4a1f080304r		; -86.2389
	DD	043340000r			; 180
	ORG $+4
	DQ	00000000000000000r		; 0
	DQ	00000000000000000r		; 0
	DD	000000000r			; 0
	DD	01H
	DB	'Indy Roadcourse', 00H
	ORG $+1
	ORG $+3
	DD	00H
	DQ	04043e584d338f798r		; 39.7931
	DQ	0c0558f4a1f080304r		; -86.2389
	DD	043b38000r			; 359
	ORG $+4
	DQ	00000000000000000r		; 0
	DQ	00000000000000000r		; 0
	DD	000000000r			; 0
	DD	00H
	DB	'Interlagos', 00H
	ORG $+6
	ORG $+3
	DD	00H
	DQ	0c037b43b70ef5665r		; -23.704
	DQ	0c04759955f78359cr		; -46.6999
	DD	043250000r			; 165
	ORG $+4
	DQ	00000000000000000r		; 0
	DQ	00000000000000000r		; 0
	DD	000000000r			; 0
	DD	00H
	DB	'Interlomas', 00H
	ORG $+6
	ORG $+3
	DD	00H
	DQ	0c0434f741d084e83r		; -38.6207
	DQ	0c0521de3c536d656r		; -72.467
	DD	043930000r			; 294
	ORG $+4
	DQ	00000000000000000r		; 0
	DQ	00000000000000000r		; 0
	DD	000000000r			; 0
	DD	00H
	DB	'Irwindale', 00H
	ORG $+7
	ORG $+3
	DD	00H
	DQ	040410e17b95a2941r		; 34.1101
	DQ	0c05d7f33f42352ebr		; -117.988
	DD	043920000r			; 292
	ORG $+4
	DQ	00000000000000000r		; 0
	DQ	00000000000000000r		; 0
	DD	000000000r			; 0
	DD	01H
	DB	'Isla Grande', 00H
	ORG $+5
	ORG $+3
	DD	00H
	DQ	04032752c27a63737r		; 18.4577
	DQ	0c05085d18090b418r		; -66.0909
	DD	043838000r			; 263
	ORG $+4
	DQ	00000000000000000r		; 0
	DQ	00000000000000000r		; 0
	DD	000000000r			; 0
	DD	00H
	DB	'Jerez', 00H
	ORG $+11
	ORG $+3
	DD	00H
	DQ	04042dad698fe6927r		; 37.7097
	DQ	0c01821465e892253r		; -6.03249
	DD	043a88000r			; 337
	ORG $+4
	DQ	00000000000000000r		; 0
	DQ	00000000000000000r		; 0
	DD	000000000r			; 0
	DD	00H
	DB	'Johor', 00H
	ORG $+11
	ORG $+3
	DD	00H
	DQ	03ff7ae6d9be4cd75r		; 1.48009
	DQ	04059fa22291fb3far		; 103.908
	DD	043980000r			; 304
	ORG $+4
	DQ	00000000000000000r		; 0
	DQ	00000000000000000r		; 0
	DD	000000000r			; 0
	DD	00H
	DB	'Jyllandsringen', 00H
	ORG $+2
	ORG $+3
	DD	00H
	DQ	0404c1693c03bc4d2r		; 56.1764
	DQ	0402351f0c34c1a8br		; 9.66004
	DD	043938000r			; 295
	ORG $+4
	DQ	00000000000000000r		; 0
	DQ	00000000000000000r		; 0
	DD	000000000r			; 0
	DD	00H
	DB	'Kansas', 00H
	ORG $+10
	ORG $+3
	DD	00H
	DQ	040438eec28b2a6b1r		; 39.1166
	DQ	0c057b55e2046c765r		; -94.8339
	DD	043420000r			; 194
	ORG $+4
	DQ	00000000000000000r		; 0
	DQ	00000000000000000r		; 0
	DD	000000000r			; 0
	DD	01H
	DB	'Keevil', 00H
	ORG $+10
	ORG $+3
	DD	00H
	DQ	04049a79a49c2c1b1r		; 51.3094
	DQ	0c000f1233df2a9d6r		; -2.11774
	DD	0439a0000r			; 308
	ORG $+4
	DQ	00000000000000000r		; 0
	DQ	00000000000000000r		; 0
	DD	000000000r			; 0
	DD	00H
	DB	'Keimola', 00H
	ORG $+9
	ORG $+3
	DD	00H
	DQ	0404e28e8f29d40eer		; 60.3196
	DQ	04038d4fede97d06cr		; 24.832
	DD	043150000r			; 149
	ORG $+4
	DQ	00000000000000000r		; 0
	DQ	00000000000000000r		; 0
	DD	000000000r			; 0
	DD	00H
	DB	'Kentucky', 00H
	ORG $+8
	ORG $+3
	DD	00H
	DQ	040435b349be8ff32r		; 38.7125
	DQ	0c0553ac8323358f3r		; -84.9185
	DD	0435b0000r			; 219
	ORG $+4
	DQ	00000000000000000r		; 0
	DQ	00000000000000000r		; 0
	DD	000000000r			; 0
	DD	01H
	DB	'Kia Test', 00H
	ORG $+8
	ORG $+3
	DD	00H
	DQ	04041863925bb7b6cr		; 35.0486
	DQ	0c05d8216872b020cr		; -118.033
	DD	042800000r			; 64
	ORG $+4
	DQ	00000000000000000r		; 0
	DQ	00000000000000000r		; 0
	DD	000000000r			; 0
	DD	00H
	DB	'Kinnekulle', 00H
	ORG $+6
	ORG $+3
	DD	00H
	DQ	0404d4601d5c31594r		; 58.5469
	DQ	0402acb24c8366517r		; 13.3968
	DD	042ac0000r			; 86
	ORG $+4
	DQ	00000000000000000r		; 0
	DQ	00000000000000000r		; 0
	DD	000000000r			; 0
	DD	00H
	DB	'Knockhill', 00H
	ORG $+7
	ORG $+3
	DD	00H
	DQ	0404c10c204f2ae08r		; 56.1309
	DQ	0c00c0d7b634dad32r		; -3.50658
	DD	042c20000r			; 97
	ORG $+4
	DQ	00000000000000000r		; 0
	DQ	00000000000000000r		; 0
	DD	000000000r			; 0
	DD	00H
	DB	'Knutstorp', 00H
	ORG $+7
	ORG $+3
	DD	00H
	DQ	0404bfe4e054690der		; 55.9868
	DQ	0402a3acba732df50r		; 13.1148
	DD	043980000r			; 304
	ORG $+4
	DQ	00000000000000000r		; 0
	DQ	00000000000000000r		; 0
	DD	000000000r			; 0
	DD	00H
	DB	'Kyalami', 00H
	ORG $+9
	ORG $+3
	DD	00H
	DQ	0c039ffafb7e90ff9r		; -25.9988
	DQ	0403c11e4e69f05ear		; 28.0699
	DD	042280000r			; 42
	ORG $+4
	DQ	00000000000000000r		; 0
	DQ	00000000000000000r		; 0
	DD	000000000r			; 0
	DD	00H
	DB	'La Guacima', 00H
	ORG $+6
	ORG $+3
	DD	00H
	DQ	04023f2e74f2f123cr		; 9.97442
	DQ	0c0550fe0e736049fr		; -84.2481
	DD	03f800000r			; 1
	ORG $+4
	DQ	00000000000000000r		; 0
	DQ	00000000000000000r		; 0
	DD	000000000r			; 0
	DD	00H
	DB	'La Plata', 00H
	ORG $+8
	ORG $+3
	DD	00H
	DQ	0c0417d611ba3ca75r		; -34.9795
	DQ	0c04d1746ed245b29r		; -58.1819
	DD	043960000r			; 300
	ORG $+4
	DQ	00000000000000000r		; 0
	DQ	00000000000000000r		; 0
	DD	000000000r			; 0
	DD	00H
	DB	'Laguna Seca', 00H
	ORG $+5
	ORG $+3
	DD	00H
	DQ	040424b10f51ac9b0r		; 36.5865
	DQ	0c05e706c69b5a640r		; -121.757
	DD	043550000r			; 213
	ORG $+4
	DQ	00000000000000000r		; 0
	DQ	00000000000000000r		; 0
	DD	000000000r			; 0
	DD	00H
	DB	'Lakeside', 00H
	ORG $+8
	ORG $+3
	DD	00H
	DQ	0c03b3a7ce0fc2ebar		; -27.2285
	DQ	040631ee07a28bb0ar		; 152.965
	DD	0438f0000r			; 286
	ORG $+4
	DQ	00000000000000000r		; 0
	DQ	00000000000000000r		; 0
	DD	000000000r			; 0
	DD	00H
	DB	'Las Flores', 00H
	ORG $+6
	ORG $+3
	DD	00H
	DQ	0c04200d67fd3f5b6r		; -36.0065
	DQ	0c04d891b152f3c2er		; -59.0711
	DD	0433b0000r			; 187
	ORG $+4
	DQ	00000000000000000r		; 0
	DQ	00000000000000000r		; 0
	DD	000000000r			; 0
	DD	00H
	DB	'Las Vegas', 00H
	ORG $+7
	ORG $+3
	DD	00H
	DQ	040422322e1ac57e2r		; 36.2745
	DQ	0c05cc0cea28fe261r		; -115.013
	DD	043630000r			; 227
	ORG $+4
	DQ	00000000000000000r		; 0
	DQ	00000000000000000r		; 0
	DD	000000000r			; 0
	DD	01H
	DB	'Las Vegas Bike', 00H
	ORG $+2
	ORG $+3
	DD	00H
	DQ	0404222517e77d524r		; 36.2681
	DQ	0c05cc114163779ear		; -115.017
	DD	043200000r			; 160
	ORG $+4
	DQ	00000000000000000r		; 0
	DQ	00000000000000000r		; 0
	DD	000000000r			; 0
	DD	00H
	DB	'Las Vegas Inf', 00H
	ORG $+3
	ORG $+3
	DD	00H
	DQ	0404222da33bd9caer		; 36.2723
	DQ	0c05cc09f8c21e1d2r		; -115.01
	DD	042480000r			; 50
	ORG $+4
	DQ	00000000000000000r		; 0
	DQ	00000000000000000r		; 0
	DD	000000000r			; 0
	DD	00H
	DB	'Lausitzring', 00H
	ORG $+5
	ORG $+3
	DD	00H
	DQ	04049c4792d1287c2r		; 51.5349
	DQ	0402bdae4b0186120r		; 13.9275
	DD	0437d0000r			; 253
	ORG $+4
	DQ	00000000000000000r		; 0
	DQ	00000000000000000r		; 0
	DD	000000000r			; 0
	DD	00H
	DB	'Leconfield', 00H
	ORG $+6
	ORG $+3
	DD	00H
	DQ	0404aeffadafd1138r		; 53.8748
	DQ	0bfdc060780fdc161r		; -0.437868
	DD	0421c0000r			; 39
	ORG $+4
	DQ	00000000000000000r		; 0
	DQ	00000000000000000r		; 0
	DD	000000000r			; 0
	DD	00H
	DB	'Ledenon', 00H
	ORG $+9
	ORG $+3
	DD	00H
	DQ	04045f62acb85a4f0r		; 43.9232
	DQ	0401204467381d7dcr		; 4.50418
	DD	043400000r			; 192
	ORG $+4
	DQ	00000000000000000r		; 0
	DQ	00000000000000000r		; 0
	DD	000000000r			; 0
	DD	00H
	DB	'LeMans', 00H
	ORG $+10
	ORG $+3
	DD	00H
	DQ	04047f9951c5c5719r		; 47.9499
	DQ	03fca8fc0d2c386d3r		; 0.207512
	DD	040000000r			; 2
	ORG $+4
	DQ	00000000000000000r		; 0
	DQ	00000000000000000r		; 0
	DD	000000000r			; 0
	DD	00H
	DB	'Lime Rock', 00H
	ORG $+7
	ORG $+3
	DD	00H
	DQ	04044f6dcebfec13cr		; 41.9286
	DQ	0c05258623076c051r		; -73.381
	DD	042e60000r			; 115
	ORG $+4
	DQ	00000000000000000r		; 0
	DQ	00000000000000000r		; 0
	DD	000000000r			; 0
	DD	00H
	DB	'Llandow', 00H
	ORG $+9
	ORG $+3
	DD	00H
	DQ	04049b75b1c864884r		; 51.4325
	DQ	0c00bfacd5b6805a3r		; -3.49746
	DD	042b40000r			; 90
	ORG $+4
	DQ	00000000000000000r		; 0
	DQ	00000000000000000r		; 0
	DD	000000000r			; 0
	DD	00H
	DB	'Long Beach', 00H
	ORG $+6
	ORG $+3
	DD	00H
	DQ	04040e1b6ed677708r		; 33.7634
	DQ	0c05d8bde15ca6ca0r		; -118.185
	DD	0436a0000r			; 234
	ORG $+4
	DQ	00000000000000000r		; 0
	DQ	00000000000000000r		; 0
	DD	000000000r			; 0
	DD	00H
	DB	'Lotus Hethel', 00H
	ORG $+4
	ORG $+3
	DD	00H
	DQ	0404a47f11f926c7fr		; 52.562
	DQ	03ff2da91105e1c15r		; 1.17836
	DD	040c00000r			; 6
	ORG $+4
	DQ	00000000000000000r		; 0
	DQ	00000000000000000r		; 0
	DD	000000000r			; 0
	DD	00H
	DB	'Lydden Hill', 00H
	ORG $+5
	ORG $+3
	DD	00H
	DQ	0404996b3c3e74afdr		; 51.1774
	DQ	03ff32bb44e50c5ebr		; 1.19817
	DD	043940000r			; 296
	ORG $+4
	DQ	00000000000000000r		; 0
	DQ	00000000000000000r		; 0
	DD	000000000r			; 0
	DD	00H
	DB	'Macau', 00H
	ORG $+11
	ORG $+3
	DD	00H
	DQ	0403632db0dd82fd7r		; 22.1987
	DQ	0405c63c0010c6f7ar		; 113.559
	DD	0437d0000r			; 253
	ORG $+4
	DQ	00000000000000000r		; 0
	DQ	00000000000000000r		; 0
	DD	000000000r			; 0
	DD	00H
	DB	'Magione', 00H
	ORG $+9
	ORG $+3
	DD	00H
	DQ	0404590ccff21b3afr		; 43.1313
	DQ	040287a6ca03c4b0ar		; 12.2391
	DD	043a58000r			; 331
	ORG $+4
	DQ	00000000000000000r		; 0
	DQ	00000000000000000r		; 0
	DD	000000000r			; 0
	DD	00H
	DB	'Magny-Cours', 00H
	ORG $+5
	ORG $+3
	DD	00H
	DQ	040476e9a8049667br		; 46.8641
	DQ	040094f3dc054ef46r		; 3.16369
	DD	042500000r			; 52
	ORG $+4
	DQ	00000000000000000r		; 0
	DQ	00000000000000000r		; 0
	DD	000000000r			; 0
	DD	00H
	DB	'Mallala', 00H
	ORG $+9
	ORG $+3
	DD	00H
	DQ	0c041352599ed7c70r		; -34.4152
	DQ	04061502ff4ba51a0r		; 138.506
	DD	043878000r			; 271
	ORG $+4
	DQ	00000000000000000r		; 0
	DQ	00000000000000000r		; 0
	DD	000000000r			; 0
	DD	00H
	DB	'Mallory Park', 00H
	ORG $+4
	ORG $+3
	DD	00H
	DQ	0404a4ca077036c9cr		; 52.5986
	DQ	0bff5644fa05143bfr		; -1.33699
	DD	043330000r			; 179
	ORG $+4
	DQ	00000000000000000r		; 0
	DQ	00000000000000000r		; 0
	DD	000000000r			; 0
	DD	00H
	DB	'Manfield', 00H
	ORG $+8
	ORG $+3
	DD	00H
	DQ	0c0441e2e6644d877r		; -40.2358
	DQ	04065f1debb7739f3r		; 175.558
	DD	043978000r			; 303
	ORG $+4
	DQ	00000000000000000r		; 0
	DQ	00000000000000000r		; 0
	DD	000000000r			; 0
	DD	00H
	DB	'Mantorp Park', 00H
	ORG $+4
	ORG $+3
	DD	00H
	DQ	0404d2f3f0fe047d4r		; 58.3691
	DQ	0402e914a2b9d3cbcr		; 15.2838
	DD	042800000r			; 64
	ORG $+4
	DQ	00000000000000000r		; 0
	DQ	00000000000000000r		; 0
	DD	000000000r			; 0
	DD	00H
	DB	'Mar de Ajo', 00H
	ORG $+6
	ORG $+3
	DD	00H
	DQ	0c0425af3d3a1d324r		; -36.7106
	DQ	0c04c5c3686a4ca4fr		; -56.7204
	DD	0432d0000r			; 173
	ORG $+4
	DQ	00000000000000000r		; 0
	DQ	00000000000000000r		; 0
	DD	000000000r			; 0
	DD	00H
	DB	'Mar del Plata', 00H
	ORG $+3
	ORG $+3
	DD	00H
	DQ	0c042ff54a7f8012er		; -37.9948
	DQ	0c04cd1c1d6cf850er		; -57.6387
	DD	0429e0000r			; 79
	ORG $+4
	DQ	00000000000000000r		; 0
	DQ	00000000000000000r		; 0
	DD	000000000r			; 0
	DD	00H
	DB	'Martinsville', 00H
	ORG $+4
	ORG $+3
	DD	00H
	DQ	04042512e83a109d0r		; 36.6342
	DQ	0c053f68ba40d90e2r		; -79.8523
	DD	0434b0000r			; 203
	ORG $+4
	DQ	00000000000000000r		; 0
	DQ	00000000000000000r		; 0
	DD	000000000r			; 0
	DD	01H
	DB	'Mas du Clos', 00H
	ORG $+5
	ORG $+3
	DD	00H
	DQ	04046f7d2ae8e1d65r		; 45.9361
	DQ	0400269d6adf71eb0r		; 2.30168
	DD	043a38000r			; 327
	ORG $+4
	DQ	00000000000000000r		; 0
	DQ	00000000000000000r		; 0
	DD	000000000r			; 0
	DD	00H
	DB	'Megara', 00H
	ORG $+10
	ORG $+3
	DD	00H
	DQ	04042fe56b441bb8cr		; 37.987
	DQ	040375ce7685985adr		; 23.3629
	DD	042940000r			; 74
	ORG $+4
	DQ	00000000000000000r		; 0
	DQ	00000000000000000r		; 0
	DD	000000000r			; 0
	DD	00H
	DB	'Melbourne', 00H
	ORG $+7
	ORG $+3
	DD	00H
	DQ	0c042eccbd987c632r		; -37.85
	DQ	040621f00fba8826br		; 144.969
	DD	0439d8000r			; 315
	ORG $+4
	DQ	00000000000000000r		; 0
	DQ	00000000000000000r		; 0
	DD	000000000r			; 0
	DD	00H
	DB	'Memphis', 00H
	ORG $+9
	ORG $+3
	DD	00H
	DQ	04041a41e71044f1ar		; 35.2822
	DQ	0c0567c990afe60c4r		; -89.9468
	DD	042440000r			; 49
	ORG $+4
	DQ	00000000000000000r		; 0
	DQ	00000000000000000r		; 0
	DD	000000000r			; 0
	DD	01H
	DB	'Michigan', 00H
	ORG $+8
	ORG $+3
	DD	00H
	DQ	0404508a87e38eb03r		; 42.0676
	DQ	0c0550fa9d627bf62r		; -84.2447
	DD	043400000r			; 192
	ORG $+4
	DQ	00000000000000000r		; 0
	DQ	00000000000000000r		; 0
	DD	000000000r			; 0
	DD	01H
	DB	'Mid America', 00H
	ORG $+5
	ORG $+3
	DD	00H
	DQ	040448321ccd96207r		; 41.0245
	DQ	0c057f48f75536934r		; -95.8213
	DD	000000000r			; 0
	ORG $+4
	DQ	00000000000000000r		; 0
	DQ	00000000000000000r		; 0
	DD	000000000r			; 0
	DD	00H
	DB	'Mid Ohio', 00H
	ORG $+8
	ORG $+3
	DD	00H
	DQ	040445840c8472c0er		; 40.6895
	DQ	0c054a8a8049667b6r		; -82.6353
	DD	043880000r			; 272
	ORG $+4
	DQ	00000000000000000r		; 0
	DQ	00000000000000000r		; 0
	DD	000000000r			; 0
	DD	00H
	DB	'Miller East', 00H
	ORG $+5
	ORG $+3
	DD	00H
	DQ	040444aa48f96e158r		; 40.5831
	DQ	0c05c1816872b020cr		; -112.376
	DD	043870000r			; 270
	ORG $+4
	DQ	00000000000000000r		; 0
	DQ	00000000000000000r		; 0
	DD	000000000r			; 0
	DD	00H
	DB	'Miller Full', 00H
	ORG $+5
	ORG $+3
	DD	00H
	DQ	040444aa48f96e158r		; 40.5831
	DQ	0c05c1816872b020cr		; -112.376
	DD	043870000r			; 270
	ORG $+4
	DQ	00000000000000000r		; 0
	DQ	00000000000000000r		; 0
	DD	000000000r			; 0
	DD	00H
	DB	'Miller Outer', 00H
	ORG $+4
	ORG $+3
	DD	00H
	DQ	040444aa48f96e158r		; 40.5831
	DQ	0c05c1816872b020cr		; -112.376
	DD	043870000r			; 270
	ORG $+4
	DQ	00000000000000000r		; 0
	DQ	00000000000000000r		; 0
	DD	000000000r			; 0
	DD	00H
	DB	'Miller West', 00H
	ORG $+5
	ORG $+3
	DD	00H
	DQ	040444aa2d2fe3f36r		; 40.5831
	DQ	0c05c1879c842fa51r		; -112.382
	DD	043870000r			; 270
	ORG $+4
	DQ	00000000000000000r		; 0
	DQ	00000000000000000r		; 0
	DD	000000000r			; 0
	DD	00H
	DB	'Milwaukee Mile', 00H
	ORG $+2
	ORG $+3
	DD	00H
	DQ	04045829d6adf71ebr		; 43.0204
	DQ	0c05600d36b4c7f35r		; -88.0129
	DD	043340000r			; 180
	ORG $+4
	DQ	00000000000000000r		; 0
	DQ	00000000000000000r		; 0
	DD	000000000r			; 0
	DD	01H
	DB	'Misano', 00H
	ORG $+10
	ORG $+3
	DD	00H
	DQ	04045fb1e7d9988d3r		; 43.9619
	DQ	040295e317268d328r		; 12.684
	DD	0434c0000r			; 204
	ORG $+4
	DQ	00000000000000000r		; 0
	DQ	00000000000000000r		; 0
	DD	000000000r			; 0
	DD	00H
	DB	'Mission Raceway', 00H
	ORG $+1
	ORG $+3
	DD	00H
	DQ	0404890372e6a7696r		; 49.1267
	DQ	0c05e94d60e94ee39r		; -122.326
	DD	043940000r			; 296
	ORG $+4
	DQ	00000000000000000r		; 0
	DQ	00000000000000000r		; 0
	DD	000000000r			; 0
	DD	00H
	DB	'Monaco GP', 00H
	ORG $+7
	ORG $+3
	DD	00H
	DQ	04045de154c985f07r		; 43.735
	DQ	0401daf5903a7546dr		; 7.42124
	DD	043b08000r			; 353
	ORG $+4
	DQ	00000000000000000r		; 0
	DQ	00000000000000000r		; 0
	DD	000000000r			; 0
	DD	00H
	DB	'Mondello Park', 00H
	ORG $+3
	ORG $+3
	DD	00H
	DQ	0404aa0f3775b8130r		; 53.2574
	DQ	0c01afa697aeddce8r		; -6.74454
	DD	0431c0000r			; 156
	ORG $+4
	DQ	00000000000000000r		; 0
	DQ	00000000000000000r		; 0
	DD	000000000r			; 0
	DD	00H
	DB	'Monticello', 00H
	ORG $+6
	ORG $+3
	DD	00H
	DQ	04044cf56b8737974r		; 41.6198
	DQ	0c052aca3a4b5568fr		; -74.6975
	DD	042f80000r			; 124
	ORG $+4
	DQ	00000000000000000r		; 0
	DQ	00000000000000000r		; 0
	DD	000000000r			; 0
	DD	00H
	DB	'MontTremblant', 00H
	ORG $+3
	ORG $+3
	DD	00H
	DQ	0404718bead4f5904r		; 46.1933
	DQ	0c052a725204af923r		; -74.6116
	DD	042640000r			; 57
	ORG $+4
	DQ	00000000000000000r		; 0
	DQ	00000000000000000r		; 0
	DD	000000000r			; 0
	DD	00H
	DB	'MontTremblant N', 00H
	ORG $+1
	ORG $+3
	DD	00H
	DQ	0404718bead4f5904r		; 46.1933
	DQ	0c052a725204af923r		; -74.6116
	DD	042640000r			; 57
	ORG $+4
	DQ	00000000000000000r		; 0
	DQ	00000000000000000r		; 0
	DD	000000000r			; 0
	DD	00H
	DB	'MontTremblant S', 00H
	ORG $+1
	ORG $+3
	DD	00H
	DQ	04047181450efdc9cr		; 46.1881
	DQ	0c052a7227d028a1er		; -74.6115
	DD	043b10000r			; 354
	ORG $+4
	DQ	00000000000000000r		; 0
	DQ	00000000000000000r		; 0
	DD	000000000r			; 0
	DD	00H
	DB	'Monza', 00H
	ORG $+11
	ORG $+3
	DD	00H
	DQ	04046cf3a57eaa2a1r		; 45.619
	DQ	040228ffc9795b35br		; 9.28122
	DD	040c00000r			; 6
	ORG $+4
	DQ	00000000000000000r		; 0
	DQ	00000000000000000r		; 0
	DD	000000000r			; 0
	DD	00H
	DB	'Mosport', 00H
	ORG $+9
	ORG $+3
	DD	00H
	DQ	0404606f5019f3c71r		; 44.0544
	DQ	0c053ab2917507e9er		; -78.6744
	DD	042d60000r			; 107
	ORG $+4
	DQ	00000000000000000r		; 0
	DQ	00000000000000000r		; 0
	DD	000000000r			; 0
	DD	00H
	DB	'Most', 00H
	ORG $+12
	ORG $+3
	DD	00H
	DQ	04049427ce95faa8br		; 50.5194
	DQ	0402b372a5a469d73r		; 13.6077
	DD	0438c0000r			; 280
	ORG $+4
	DQ	00000000000000000r		; 0
	DQ	00000000000000000r		; 0
	DD	000000000r			; 0
	DD	00H
	DB	'Motegi', 00H
	ORG $+10
	ORG $+3
	DD	00H
	DQ	04042443a647fdc59r		; 36.533
	DQ	0406187413b9f127fr		; 140.227
	DD	043a58000r			; 331
	ORG $+4
	DQ	00000000000000000r		; 0
	DQ	00000000000000000r		; 0
	DD	000000000r			; 0
	DD	00H
	DB	'Motorland', 00H
	ORG $+7
	ORG $+3
	DD	00H
	DQ	0404167525cc42635r		; 34.8072
	DQ	04061102a7bd48cb5r		; 136.505
	DD	041c80000r			; 25
	ORG $+4
	DQ	00000000000000000r		; 0
	DQ	00000000000000000r		; 0
	DD	000000000r			; 0
	DD	00H
	DB	'MSR Cresson', 00H
	ORG $+5
	ORG $+3
	DD	00H
	DQ	0404042f5d35653car		; 32.5231
	DQ	0c05867606317268dr		; -97.6153
	DD	043580000r			; 216
	ORG $+4
	DQ	00000000000000000r		; 0
	DQ	00000000000000000r		; 0
	DD	000000000r			; 0
	DD	00H
	DB	'MSR Cresson CW', 00H
	ORG $+2
	ORG $+3
	DD	00H
	DQ	0404042f5d35653car		; 32.5231
	DQ	0c05867606317268dr		; -97.6153
	DD	042100000r			; 36
	ORG $+4
	DQ	00000000000000000r		; 0
	DQ	00000000000000000r		; 0
	DD	000000000r			; 0
	DD	00H
	DB	'MSR Houston', 00H
	ORG $+5
	ORG $+3
	DD	00H
	DQ	0403d47700474d9c7r		; 29.2791
	DQ	0c057db0895d0b73dr		; -95.4224
	DD	042ca0000r			; 101
	ORG $+4
	DQ	00000000000000000r		; 0
	DQ	00000000000000000r		; 0
	DD	000000000r			; 0
	DD	00H
	DB	'MSR Houston CW', 00H
	ORG $+2
	ORG $+3
	DD	00H
	DQ	0403d47700474d9c7r		; 29.2791
	DQ	0c057db0895d0b73dr		; -95.4224
	DD	0438c8000r			; 281
	ORG $+4
	DQ	00000000000000000r		; 0
	DQ	00000000000000000r		; 0
	DD	000000000r			; 0
	DD	00H
	DB	'Mugello', 00H
	ORG $+9
	ORG $+3
	DD	00H
	DQ	04045ffb1290257c9r		; 43.9976
	DQ	04026be38eb0318b9r		; 11.3715
	DD	041c00000r			; 24
	ORG $+4
	DQ	00000000000000000r		; 0
	DQ	00000000000000000r		; 0
	DD	000000000r			; 0
	DD	00H
	DB	'Myrtle Beach', 00H
	ORG $+4
	ORG $+3
	DD	00H
	DQ	04040df7b41bfbdf1r		; 33.7459
	DQ	0c053bcf6ec5b078er		; -78.9526
	DD	043010000r			; 129
	ORG $+4
	DQ	00000000000000000r		; 0
	DQ	00000000000000000r		; 0
	DD	000000000r			; 0
	DD	01H
	DB	'Nakayama', 00H
	ORG $+8
	ORG $+3
	DD	00H
	DQ	04041649d7ba6698cr		; 34.7861
	DQ	04060c5a8fc0d2c38r		; 134.177
	DD	041100000r			; 9
	ORG $+4
	DQ	00000000000000000r		; 0
	DQ	00000000000000000r		; 0
	DD	000000000r			; 0
	DD	00H
	DB	'Nashville', 00H
	ORG $+7
	ORG $+3
	DD	00H
	DQ	0404205eb4a66559fr		; 36.0462
	DQ	0c0559a3836a832bar		; -86.4097
	DD	0433c0000r			; 188
	ORG $+4
	DQ	00000000000000000r		; 0
	DQ	00000000000000000r		; 0
	DD	000000000r			; 0
	DD	01H
	DB	'Nasu Motors', 00H
	ORG $+5
	ORG $+3
	DD	00H
	DQ	040427c4302b40f67r		; 36.9708
	DQ	040618413a2df9379r		; 140.127
	DD	0437c0000r			; 252
	ORG $+4
	DQ	00000000000000000r		; 0
	DQ	00000000000000000r		; 0
	DD	000000000r			; 0
	DD	00H
	DB	'Nazereth', 00H
	ORG $+8
	ORG $+3
	DD	00H
	DQ	040445d1b8aa00193r		; 40.7274
	DQ	0c052d468943e1006r		; -75.3189
	DD	041d80000r			; 27
	ORG $+4
	DQ	00000000000000000r		; 0
	DQ	00000000000000000r		; 0
	DD	000000000r			; 0
	DD	01H
	DB	'NCCAR CCW', 00H
	ORG $+7
	ORG $+3
	DD	00H
	DQ	040423db877ab3248r		; 36.4822
	DQ	0c053651d81f10668r		; -77.5799
	DD	043320000r			; 178
	ORG $+4
	DQ	00000000000000000r		; 0
	DQ	00000000000000000r		; 0
	DD	000000000r			; 0
	DD	00H
	DB	'NCCAR CW', 00H
	ORG $+8
	ORG $+3
	DD	00H
	DQ	040423db877ab3248r		; 36.4822
	DQ	0c053651d81f10668r		; -77.5799
	DD	043b30000r			; 358
	ORG $+4
	DQ	00000000000000000r		; 0
	DQ	00000000000000000r		; 0
	DD	000000000r			; 0
	DD	00H
	DB	'Nelson Ledges', 00H
	ORG $+3
	ORG $+3
	DD	00H
	DQ	04044a74ee392e1efr		; 41.3071
	DQ	0c05440e73e681a9cr		; -81.0141
	DD	043330000r			; 179
	ORG $+4
	DQ	00000000000000000r		; 0
	DQ	00000000000000000r		; 0
	DD	000000000r			; 0
	DD	00H
	DB	'New Hampshire', 00H
	ORG $+3
	ORG $+3
	DD	00H
	DQ	04045ae795703f2d4r		; 43.3631
	DQ	0c051dd91a32b12d3r		; -71.462
	DD	043470000r			; 199
	ORG $+4
	DQ	00000000000000000r		; 0
	DQ	00000000000000000r		; 0
	DD	000000000r			; 0
	DD	01H
	DB	'Nihonkai', 00H
	ORG $+8
	ORG $+3
	DD	00H
	DQ	04042df58b827fa1ar		; 37.7449
	DQ	0406159a8a82a5615r		; 138.802
	DD	0427c0000r			; 63
	ORG $+4
	DQ	00000000000000000r		; 0
	DQ	00000000000000000r		; 0
	DD	000000000r			; 0
	DD	00H
	DB	'NJ Lightning', 00H
	ORG $+4
	ORG $+3
	DD	00H
	DQ	04043ae46b69db65fr		; 39.3615
	DQ	0c052c373f316e371r		; -75.054
	DD	043570000r			; 215
	ORG $+4
	DQ	00000000000000000r		; 0
	DQ	00000000000000000r		; 0
	DD	000000000r			; 0
	DD	00H
	DB	'NJ Thunderbolt', 00H
	ORG $+2
	ORG $+3
	DD	00H
	DQ	04043ae2c4d65e460r		; 39.3607
	DQ	0c052c4b649d388a9r		; -75.0736
	DD	043968000r			; 301
	ORG $+4
	DQ	00000000000000000r		; 0
	DQ	00000000000000000r		; 0
	DD	000000000r			; 0
	DD	00H
	DB	'Nogaro', 00H
	ORG $+10
	ORG $+3
	DD	00H
	DQ	04045e2a6117720c9r		; 43.7707
	DQ	0bfa4c660a2014728r		; -0.040576
	DD	043a20000r			; 324
	ORG $+4
	DQ	00000000000000000r		; 0
	DQ	00000000000000000r		; 0
	DD	000000000r			; 0
	DD	00H
	DB	'NOLA', 00H
	ORG $+12
	ORG $+3
	DD	00H
	DQ	0403de2a8eb463498r		; 29.8854
	DQ	0c0568cbf401c4fc2r		; -90.1992
	DD	0436c0000r			; 236
	ORG $+4
	DQ	00000000000000000r		; 0
	DQ	00000000000000000r		; 0
	DD	000000000r			; 0
	DD	00H
	DB	'North Florida', 00H
	ORG $+3
	ORG $+3
	DD	00H
	DQ	0403e932bfdb4cc25r		; 30.5749
	DQ	0c054ca02a3486f05r		; -83.1564
	DD	042600000r			; 56
	ORG $+4
	DQ	00000000000000000r		; 0
	DQ	00000000000000000r		; 0
	DD	000000000r			; 0
	DD	00H
	DB	'Nueve de Julio', 00H
	ORG $+2
	ORG $+3
	DD	00H
	DQ	0c041b7aaa3ad18d2r		; -35.4349
	DQ	0c04e74a369fcf3dcr		; -60.9112
	DD	043100000r			; 144
	ORG $+4
	DQ	00000000000000000r		; 0
	DQ	00000000000000000r		; 0
	DD	000000000r			; 0
	DD	00H
	DB	'Nurburgring', 00H
	ORG $+5
	ORG $+3
	DD	00H
	DQ	040492af2a5a469d7r		; 50.3355
	DQ	0401bca936c58eeafr		; 6.94783
	DD	043610000r			; 225
	ORG $+4
	DQ	00000000000000000r		; 0
	DQ	00000000000000000r		; 0
	DD	000000000r			; 0
	DD	00H
	DB	'Okayama', 00H
	ORG $+9
	ORG $+3
	DD	00H
	DQ	04041750795f676ear		; 34.9143
	DQ	04060c70192a73711r		; 134.219
	DD	043b20000r			; 356
	ORG $+4
	DQ	00000000000000000r		; 0
	DQ	00000000000000000r		; 0
	DD	000000000r			; 0
	DD	00H
	DB	'Oporto', 00H
	ORG $+10
	ORG $+3
	DD	00H
	DQ	040449635dedf1e08r		; 41.1735
	DQ	0c0215ed02cd39da1r		; -8.68518
	DD	043850000r			; 266
	ORG $+4
	DQ	00000000000000000r		; 0
	DQ	00000000000000000r		; 0
	DD	000000000r			; 0
	DD	00H
	DB	'Oran Park', 00H
	ORG $+7
	ORG $+3
	DD	00H
	DQ	0c04101015c209247r		; -34.0079
	DQ	04062d774d594f26br		; 150.733
	DD	042780000r			; 62
	ORG $+4
	DQ	00000000000000000r		; 0
	DQ	00000000000000000r		; 0
	DD	000000000r			; 0
	DD	00H
	DB	'Oregon Raceway', 00H
	ORG $+2
	ORG $+3
	DD	00H
	DQ	04046aea2a90cd424r		; 45.3643
	DQ	0c05e2fa73b42cc2dr		; -120.745
	DD	000000000r			; 0
	ORG $+4
	DQ	00000000000000000r		; 0
	DQ	00000000000000000r		; 0
	DD	000000000r			; 0
	DD	00H
	DB	'OReilly Indy', 00H
	ORG $+4
	ORG $+3
	DD	00H
	DQ	04043e8006d0d4995r		; 39.8125
	DQ	0c05595e0a41a261cr		; -86.3418
	DD	043330000r			; 179
	ORG $+4
	DQ	00000000000000000r		; 0
	DQ	00000000000000000r		; 0
	DD	000000000r			; 0
	DD	01H
	DB	'Oschersleben', 00H
	ORG $+4
	ORG $+3
	DD	00H
	DQ	0404a03865d7cb2d9r		; 52.0275
	DQ	040268e679463cfb3r		; 11.2781
	DD	043900000r			; 288
	ORG $+4
	DQ	00000000000000000r		; 0
	DQ	00000000000000000r		; 0
	DD	000000000r			; 0
	DD	00H
	DB	'Oulton Park', 00H
	ORG $+5
	ORG $+3
	DD	00H
	DQ	0404a970a3d70a3d7r		; 53.18
	DQ	0c004e708ede54b49r		; -2.61281
	DD	043290000r			; 169
	ORG $+4
	DQ	00000000000000000r		; 0
	DQ	00000000000000000r		; 0
	DD	000000000r			; 0
	DD	00H
	DB	'Pacific', 00H
	ORG $+9
	ORG $+3
	DD	00H
	DQ	04047a90b6b6e0d24r		; 47.3207
	DQ	0c05e89331a08bfc2r		; -122.144
	DD	0438a0000r			; 276
	ORG $+4
	DQ	00000000000000000r		; 0
	DQ	00000000000000000r		; 0
	DD	000000000r			; 0
	DD	00H
	DB	'Palm Beach', 00H
	ORG $+6
	ORG $+3
	DD	00H
	DQ	0403aebb320535c9er		; 26.9207
	DQ	0c0541392a737110er		; -80.3058
	DD	040a00000r			; 5
	ORG $+4
	DQ	00000000000000000r		; 0
	DQ	00000000000000000r		; 0
	DD	000000000r			; 0
	DD	00H
	DB	'Pau-Arnos', 00H
	ORG $+7
	ORG $+3
	DD	00H
	DQ	04045b93abc947065r		; 43.4471
	DQ	0bfe10b1bbcf4e875r		; -0.532606
	DD	043190000r			; 153
	ORG $+4
	DQ	00000000000000000r		; 0
	DQ	00000000000000000r		; 0
	DD	000000000r			; 0
	DD	00H
	DB	'Paul Ricard', 00H
	ORG $+5
	ORG $+3
	DD	00H
	DQ	04045a0265f0f5a10r		; 43.2512
	DQ	040172c111ada76d9r		; 5.79303
	DD	043998000r			; 307
	ORG $+4
	DQ	00000000000000000r		; 0
	DQ	00000000000000000r		; 0
	DD	000000000r			; 0
	DD	00H
	DB	'Pedro Cofino', 00H
	ORG $+4
	ORG $+3
	DD	00H
	DQ	0402cc3d2b6f19935r		; 14.3825
	DQ	0c056b4850df15a4br		; -90.8206
	DD	042820000r			; 65
	ORG $+4
	DQ	00000000000000000r		; 0
	DQ	00000000000000000r		; 0
	DD	000000000r			; 0
	DD	00H
	DB	'Pembrey', 00H
	ORG $+9
	ORG $+3
	DD	00H
	DQ	04049da59d99029aer		; 51.7059
	DQ	0c0114b9dc2f405f7r		; -4.32384
	DD	041f00000r			; 30
	ORG $+4
	DQ	00000000000000000r		; 0
	DQ	00000000000000000r		; 0
	DD	000000000r			; 0
	DD	00H
	DB	'Phakisa', 00H
	ORG $+9
	ORG $+3
	DD	00H
	DQ	0c03be79b56323bbcr		; -27.9047
	DQ	0403ab607b352a844r		; 26.7111
	DD	0432f0000r			; 175
	ORG $+4
	DQ	00000000000000000r		; 0
	DQ	00000000000000000r		; 0
	DD	000000000r			; 0
	DD	00H
	DB	'Phillip Island', 00H
	ORG $+2
	ORG $+3
	DD	00H
	DQ	0c043404d98394749r		; -38.5024
	DQ	04062276e19b90eaar		; 145.232
	DD	043220000r			; 162
	ORG $+4
	DQ	00000000000000000r		; 0
	DQ	00000000000000000r		; 0
	DD	000000000r			; 0
	DD	00H
	DB	'Phoenix', 00H
	ORG $+9
	ORG $+3
	DD	00H
	DQ	04040b020b3d4ae43r		; 33.376
	DQ	0c05c13ee45c358b0r		; -112.311
	DD	0437a0000r			; 250
	ORG $+4
	DQ	00000000000000000r		; 0
	DQ	00000000000000000r		; 0
	DD	000000000r			; 0
	DD	00H
	DB	'Pikes Peak CCW', 00H
	ORG $+2
	ORG $+3
	DD	00H
	DQ	040434ba46173b85fr		; 38.591
	DQ	0c05a2b6950fc71d6r		; -104.678
	DD	043140000r			; 148
	ORG $+4
	DQ	00000000000000000r		; 0
	DQ	00000000000000000r		; 0
	DD	000000000r			; 0
	DD	00H
	DB	'Pikes Peak CW', 00H
	ORG $+3
	ORG $+3
	DD	00H
	DQ	040434ba46173b85fr		; 38.591
	DQ	0c05a2b6950fc71d6r		; -104.678
	DD	043a70000r			; 334
	ORG $+4
	DQ	00000000000000000r		; 0
	DQ	00000000000000000r		; 0
	DD	000000000r			; 0
	DD	00H
	DB	'Pikes Peak Hill', 00H
	ORG $+1
	ORG $+3
	DD	00H
	DQ	0404375e4b44a1f08r		; 38.921
	DQ	0c05a42659d12cader		; -105.037
	DD	0432b0000r			; 171
	ORG $+4
	DQ	040436b7de939eaddr		; 38.8398
	DQ	0c05a42e59f2ba9d2r		; -105.045
	DD	042b60000r			; 91
	DD	02H
	DB	'PittRace', 00H
	ORG $+8
	ORG $+3
	DD	00H
	DQ	040446ce48e8a71der		; 40.8507
	DQ	0c0541641d8e86402r		; -80.3478
	DD	043780000r			; 248
	ORG $+4
	DQ	00000000000000000r		; 0
	DQ	00000000000000000r		; 0
	DD	000000000r			; 0
	DD	00H
	DB	'Pocono', 00H
	ORG $+10
	ORG $+3
	DD	00H
	DQ	0404486bc6a7ef9dbr		; 41.0526
	DQ	0c052e0c0d2c386d3r		; -75.5118
	DD	042e00000r			; 112
	ORG $+4
	DQ	00000000000000000r		; 0
	DQ	00000000000000000r		; 0
	DD	000000000r			; 0
	DD	01H
	DB	'Pocono E', 00H
	ORG $+8
	ORG $+3
	DD	00H
	DQ	04044874ca925fe97r		; 41.057
	DQ	0c052e04955b4677br		; -75.5045
	DD	043a18000r			; 323
	ORG $+4
	DQ	00000000000000000r		; 0
	DQ	00000000000000000r		; 0
	DD	000000000r			; 0
	DD	00H
	DB	'Pocono N', 00H
	ORG $+8
	ORG $+3
	DD	00H
	DQ	0404486fe4ffc9796r		; 41.0546
	DQ	0c052e0f0ed3d859dr		; -75.5147
	DD	041c80000r			; 25
	ORG $+4
	DQ	00000000000000000r		; 0
	DQ	00000000000000000r		; 0
	DD	000000000r			; 0
	DD	00H
	DB	'Pocono Road', 00H
	ORG $+5
	ORG $+3
	DD	00H
	DQ	0404486bc6a7ef9dbr		; 41.0526
	DQ	0c052e0c0d2c386d3r		; -75.5118
	DD	043920000r			; 292
	ORG $+4
	DQ	00000000000000000r		; 0
	DQ	00000000000000000r		; 0
	DD	000000000r			; 0
	DD	00H
	DB	'Pocono S', 00H
	ORG $+8
	ORG $+3
	DD	00H
	DQ	040448687a072d1afr		; 41.051
	DQ	0c052e04b1ee24357r		; -75.5046
	DD	042e80000r			; 116
	ORG $+4
	DQ	00000000000000000r		; 0
	DQ	00000000000000000r		; 0
	DD	000000000r			; 0
	DD	00H
	DB	'Portland', 00H
	ORG $+8
	ORG $+3
	DD	00H
	DQ	04046cc0aa64c2f83r		; 45.5941
	DQ	0c05eac37ef5a964fr		; -122.691
	DD	043918000r			; 291
	ORG $+4
	DQ	00000000000000000r		; 0
	DQ	00000000000000000r		; 0
	DD	000000000r			; 0
	DD	00H
	DB	'Prince George', 00H
	ORG $+3
	ORG $+3
	DD	00H
	DQ	0c040865785f8d2e5r		; -33.0495
	DQ	0403bdeba38759253r		; 27.87
	DD	041b80000r			; 23
	ORG $+4
	DQ	00000000000000000r		; 0
	DQ	00000000000000000r		; 0
	DD	000000000r			; 0
	DD	00H
	DB	'Puebla', 00H
	ORG $+10
	ORG $+3
	DD	00H
	DQ	040330720c8cd63ccr		; 19.0278
	DQ	0c0587f56b8737974r		; -97.9897
	DD	041f00000r			; 30
	ORG $+4
	DQ	00000000000000000r		; 0
	DQ	00000000000000000r		; 0
	DD	000000000r			; 0
	DD	01H
	DB	'Pueblo', 00H
	ORG $+10
	ORG $+3
	DD	00H
	DQ	0404326b0c026cc1dr		; 38.3023
	DQ	0c05a2b6705c896ddr		; -104.678
	DD	043ad8000r			; 347
	ORG $+4
	DQ	00000000000000000r		; 0
	DQ	00000000000000000r		; 0
	DD	000000000r			; 0
	DD	00H
	DB	'Pukekohe Park', 00H
	ORG $+3
	ORG $+3
	DD	00H
	DQ	0c0429be17e34b945r		; -37.2178
	DQ	04065dd556b00ffdar		; 174.917
	DD	043180000r			; 152
	ORG $+4
	DQ	00000000000000000r		; 0
	DQ	00000000000000000r		; 0
	DD	000000000r			; 0
	DD	00H
	DB	'Putnam Park', 00H
	ORG $+5
	ORG $+3
	DD	00H
	DQ	04043ca88effe2a3dr		; 39.5823
	DQ	0c055af822bbecaacr		; -86.7423
	DD	043850000r			; 266
	ORG $+4
	DQ	00000000000000000r		; 0
	DQ	00000000000000000r		; 0
	DD	000000000r			; 0
	DD	00H
	DB	'Qatar F1', 00H
	ORG $+8
	ORG $+3
	DD	00H
	DQ	040397d3b18dac259r		; 25.4892
	DQ	04049b98ad2567989r		; 51.4495
	DD	043a58000r			; 331
	ORG $+4
	DQ	00000000000000000r		; 0
	DQ	00000000000000000r		; 0
	DD	000000000r			; 0
	DD	00H
	DB	'Queensland', 00H
	ORG $+6
	ORG $+3
	DD	00H
	DQ	0c03bb0cdfaca361ar		; -27.6906
	DQ	0406314f2c3009b30r		; 152.655
	DD	043350000r			; 181
	ORG $+4
	DQ	00000000000000000r		; 0
	DQ	00000000000000000r		; 0
	DD	000000000r			; 0
	DD	00H
	DB	'Race City', 00H
	ORG $+7
	ORG $+3
	DD	00H
	DQ	04049790a99b6f5cbr		; 50.9456
	DQ	0c05c7b9a30984e40r		; -113.931
	DD	0433d0000r			; 189
	ORG $+4
	DQ	00000000000000000r		; 0
	DQ	00000000000000000r		; 0
	DD	000000000r			; 0
	DD	00H
	DB	'Red Bull Ring', 00H
	ORG $+3
	ORG $+3
	DD	00H
	DQ	040479c217d2849cbr		; 47.2198
	DQ	0402d8751ac9afe1er		; 14.7643
	DD	0437e0000r			; 254
	ORG $+4
	DQ	00000000000000000r		; 0
	DQ	00000000000000000r		; 0
	DD	000000000r			; 0
	DD	00H
	DB	'Richmond', 00H
	ORG $+8
	ORG $+3
	DD	00H
	DQ	04042cba908a265f1r		; 37.5911
	DQ	0c0535adbb9cf9a07r		; -77.4197
	DD	042a20000r			; 81
	ORG $+4
	DQ	00000000000000000r		; 0
	DQ	00000000000000000r		; 0
	DD	000000000r			; 0
	DD	01H
	DB	'Ridge', 00H
	ORG $+11
	ORG $+3
	DD	00H
	DQ	04047a09717df19d6r		; 47.2546
	DQ	0c05ecc3d35eb7458r		; -123.191
	DD	042b80000r			; 92
	ORG $+4
	DQ	00000000000000000r		; 0
	DQ	00000000000000000r		; 0
	DD	000000000r			; 0
	DD	00H
	DB	'Rijeka', 00H
	ORG $+10
	ORG $+3
	DD	00H
	DQ	04046b0fe047d3d43r		; 45.3828
	DQ	0402d04c1ebc83a97r		; 14.5093
	DD	043840000r			; 264
	ORG $+4
	DQ	00000000000000000r		; 0
	DQ	00000000000000000r		; 0
	DD	000000000r			; 0
	DD	00H
	DB	'Riverside Qu', 00H
	ORG $+4
	ORG $+3
	DD	00H
	DQ	0404750e44b6e935cr		; 46.632
	DQ	0c051f26e0d23d4f1r		; -71.788
	DD	042f60000r			; 123
	ORG $+4
	DQ	00000000000000000r		; 0
	DQ	00000000000000000r		; 0
	DD	000000000r			; 0
	DD	01H
	DB	'Road America', 00H
	ORG $+4
	ORG $+3
	DD	00H
	DQ	04045e621a719b4ddr		; 43.7979
	DQ	0c055ff55ef1fddecr		; -87.9896
	DD	043330000r			; 179
	ORG $+4
	DQ	00000000000000000r		; 0
	DQ	00000000000000000r		; 0
	DD	000000000r			; 0
	DD	00H
	DB	'Road America S', 00H
	ORG $+2
	ORG $+3
	DD	00H
	DQ	04045e6cc03793144r		; 43.8031
	DQ	0c055ff84c6a3bde0r		; -87.9925
	DD	043330000r			; 179
	ORG $+4
	DQ	00000000000000000r		; 0
	DQ	00000000000000000r		; 0
	DD	000000000r			; 0
	DD	00H
	DB	'Road Atlanta', 00H
	ORG $+4
	ORG $+3
	DD	00H
	DQ	04041133fc0096febr		; 34.1504
	DQ	0c054f41c6088d6d4r		; -83.8142
	DD	042f20000r			; 121
	ORG $+4
	DQ	00000000000000000r		; 0
	DQ	00000000000000000r		; 0
	DD	000000000r			; 0
	DD	00H
	DB	'Rockingham SC', 00H
	ORG $+3
	ORG $+3
	DD	00H
	DQ	040417ce90364388fr		; 34.9759
	DQ	0c053e718f3eccc47r		; -79.6109
	DD	043850000r			; 266
	ORG $+4
	DQ	00000000000000000r		; 0
	DQ	00000000000000000r		; 0
	DD	000000000r			; 0
	DD	01H
	DB	'Rockingham UK', 00H
	ORG $+3
	ORG $+3
	DD	00H
	DQ	0404a41e34b945309r		; 52.5147
	DQ	0bfe531c64ba94bber		; -0.662326
	DD	043210000r			; 161
	ORG $+4
	DQ	00000000000000000r		; 0
	DQ	00000000000000000r		; 0
	DD	000000000r			; 0
	DD	00H
	DB	'Roebling Road', 00H
	ORG $+3
	ORG $+3
	DD	00H
	DQ	040401561b2a27f1br		; 32.167
	DQ	0c05454a93293d103r		; -81.3228
	DD	0438f0000r			; 286
	ORG $+4
	DQ	00000000000000000r		; 0
	DQ	00000000000000000r		; 0
	DD	000000000r			; 0
	DD	00H
	DB	'Sachsenring', 00H
	ORG $+5
	ORG $+3
	DD	00H
	DQ	040496556da0168b6r		; 50.7917
	DQ	0402960637bd05af7r		; 12.6883
	DD	042600000r			; 56
	ORG $+4
	DQ	00000000000000000r		; 0
	DQ	00000000000000000r		; 0
	DD	000000000r			; 0
	DD	00H
	DB	'Salzburgring', 00H
	ORG $+4
	ORG $+3
	DD	00H
	DQ	04047e95a74c09c3dr		; 47.8231
	DQ	0402a568d10f51acar		; 13.169
	DD	043800000r			; 256
	ORG $+4
	DQ	00000000000000000r		; 0
	DQ	00000000000000000r		; 0
	DD	000000000r			; 0
	DD	00H
	DB	'Sanair', 00H
	ORG $+10
	ORG $+3
	DD	00H
	DQ	04046c3dc7abfb9bfr		; 45.5302
	DQ	0c05238612839042er		; -72.8809
	DD	043630000r			; 227
	ORG $+4
	DQ	00000000000000000r		; 0
	DQ	00000000000000000r		; 0
	DD	000000000r			; 0
	DD	01H
	DB	'Sandia', 00H
	ORG $+10
	ORG $+3
	DD	00H
	DQ	0404182a2a90cd424r		; 35.0206
	DQ	0c05ab6f76e6106abr		; -106.859
	DD	043350000r			; 181
	ORG $+4
	DQ	00000000000000000r		; 0
	DQ	00000000000000000r		; 0
	DD	000000000r			; 0
	DD	00H
	DB	'Sandown', 00H
	ORG $+9
	ORG $+3
	DD	00H
	DQ	0c042f9844d013a93r		; -37.9494
	DQ	040622542528ae74fr		; 145.164
	DD	043310000r			; 177
	ORG $+4
	DQ	00000000000000000r		; 0
	DQ	00000000000000000r		; 0
	DD	000000000r			; 0
	DD	00H
	DB	'S''Arenal', 00H
	ORG $+8
	ORG $+3
	DD	00H
	DQ	04043bf4ccab3edd9r		; 39.4945
	DQ	040065c1a47a9e2bdr		; 2.79497
	DD	0438f8000r			; 287
	ORG $+4
	DQ	00000000000000000r		; 0
	DQ	00000000000000000r		; 0
	DD	000000000r			; 0
	DD	00H
	DB	'Schenley Park', 00H
	ORG $+3
	ORG $+3
	DD	00H
	DQ	04044376d7625204br		; 40.433
	DQ	0c053fbdb7ae5796cr		; -79.9353
	DD	043800000r			; 256
	ORG $+4
	DQ	00000000000000000r		; 0
	DQ	00000000000000000r		; 0
	DD	000000000r			; 0
	DD	00H
	DB	'Sears Point', 00H
	ORG $+5
	ORG $+3
	DD	00H
	DQ	0404314ac7da1ec4er		; 38.1615
	DQ	0c05e9d1a08bfc222r		; -122.455
	DD	0439a8000r			; 309
	ORG $+4
	DQ	00000000000000000r		; 0
	DQ	00000000000000000r		; 0
	DD	000000000r			; 0
	DD	00H
	DB	'Sears Point NA', 00H
	ORG $+2
	ORG $+3
	DD	00H
	DQ	0404314ac7da1ec4er		; 38.1615
	DQ	0c05e9d1a08bfc222r		; -122.455
	DD	0439a8000r			; 309
	ORG $+4
	DQ	00000000000000000r		; 0
	DQ	00000000000000000r		; 0
	DD	000000000r			; 0
	DD	00H
	DB	'Sebring', 00H
	ORG $+9
	ORG $+3
	DD	00H
	DQ	0403b73418d6909afr		; 27.4502
	DQ	0c05456a37ac3eb7dr		; -81.3537
	DD	042b40000r			; 90
	ORG $+4
	DQ	00000000000000000r		; 0
	DQ	00000000000000000r		; 0
	DD	000000000r			; 0
	DD	00H
	DB	'Sebring Short', 00H
	ORG $+3
	ORG $+3
	DD	00H
	DQ	0403b74c4156e264er		; 27.4561
	DQ	0c05456a76d97b310r		; -81.354
	DD	042340000r			; 45
	ORG $+4
	DQ	00000000000000000r		; 0
	DQ	00000000000000000r		; 0
	DD	000000000r			; 0
	DD	00H
	DB	'Sendai', 00H
	ORG $+10
	ORG $+3
	DD	00H
	DQ	04043249eba6aca79r		; 38.2861
	DQ	0406193e687f455a8r		; 140.622
	DD	03f800000r			; 1
	ORG $+4
	DQ	00000000000000000r		; 0
	DQ	00000000000000000r		; 0
	DD	000000000r			; 0
	DD	00H
	DB	'Sentul', 00H
	ORG $+10
	ORG $+3
	DD	00H
	DQ	0c01a255432873bc9r		; -6.53645
	DQ	0405ab6ce7cd03537r		; 106.856
	DD	043a98000r			; 339
	ORG $+4
	DQ	00000000000000000r		; 0
	DQ	00000000000000000r		; 0
	DD	000000000r			; 0
	DD	00H
	DB	'Sepang', 00H
	ORG $+10
	ORG $+3
	DD	00H
	DQ	040061608d08919f0r		; 2.76076
	DQ	040596f41919ac797r		; 101.738
	DD	043850000r			; 266
	ORG $+4
	DQ	00000000000000000r		; 0
	DQ	00000000000000000r		; 0
	DD	000000000r			; 0
	DD	00H
	DB	'Shannonvlle Fab', 00H
	ORG $+1
	ORG $+3
	DD	00H
	DQ	040461cd38476f2a6r		; 44.2252
	DQ	0c0534a3aeee95747r		; -77.1598
	DD	043780000r			; 248
	ORG $+4
	DQ	00000000000000000r		; 0
	DQ	00000000000000000r		; 0
	DD	000000000r			; 0
	DD	00H
	DB	'Shannonvlle Lng', 00H
	ORG $+1
	ORG $+3
	DD	00H
	DQ	040461cd38476f2a6r		; 44.2252
	DQ	0c0534a3aeee95747r		; -77.1598
	DD	043780000r			; 248
	ORG $+4
	DQ	00000000000000000r		; 0
	DQ	00000000000000000r		; 0
	DD	000000000r			; 0
	DD	00H
	DB	'Shannonvlle Nel', 00H
	ORG $+1
	ORG $+3
	DD	00H
	DQ	040461cd38476f2a6r		; 44.2252
	DQ	0c0534a3aeee95747r		; -77.1598
	DD	043780000r			; 248
	ORG $+4
	DQ	00000000000000000r		; 0
	DQ	00000000000000000r		; 0
	DD	000000000r			; 0
	DD	00H
	DB	'Shannonvlle Pro', 00H
	ORG $+1
	ORG $+3
	DD	00H
	DQ	040461cd38476f2a6r		; 44.2252
	DQ	0c0534a3aeee95747r		; -77.1598
	DD	043780000r			; 248
	ORG $+4
	DQ	00000000000000000r		; 0
	DQ	00000000000000000r		; 0
	DD	000000000r			; 0
	DD	00H
	DB	'Silverstone', 00H
	ORG $+5
	ORG $+3
	DD	00H
	DQ	0404a0a12b5e529bbr		; 52.0787
	DQ	0bff04589acbc8c0dr		; -1.01698
	DD	042a80000r			; 84
	ORG $+4
	DQ	00000000000000000r		; 0
	DQ	00000000000000000r		; 0
	DD	000000000r			; 0
	DD	00H
	DB	'Slovakia', 00H
	ORG $+8
	ORG $+3
	DD	00H
	DQ	04048071183b60286r		; 48.0552
	DQ	0403191e3fbbd7b20r		; 17.5699
	DD	0434c0000r			; 204
	ORG $+4
	DQ	00000000000000000r		; 0
	DQ	00000000000000000r		; 0
	DD	000000000r			; 0
	DD	00H
	DB	'Snetterton', 00H
	ORG $+6
	ORG $+3
	DD	00H
	DQ	0404a3b506dd69d30r		; 52.4634
	DQ	03fee3b6cbd987c63r		; 0.944754
	DD	043850000r			; 266
	ORG $+4
	DQ	00000000000000000r		; 0
	DQ	00000000000000000r		; 0
	DD	000000000r			; 0
	DD	00H
	DB	'SpaFrancorchamp', 00H
	ORG $+1
	ORG $+3
	DD	00H
	DQ	0404938d84d338f7ar		; 50.4441
	DQ	04017df91600f3450r		; 5.96833
	DD	0430c0000r			; 140
	ORG $+4
	DQ	00000000000000000r		; 0
	DQ	00000000000000000r		; 0
	DD	000000000r			; 0
	DD	00H
	DB	'Spokane', 00H
	ORG $+9
	ORG $+3
	DD	00H
	DQ	04047d4d4e4c942d5r		; 47.6627
	DQ	0c05d648943e10060r		; -117.571
	DD	041c80000r			; 25
	ORG $+4
	DQ	00000000000000000r		; 0
	DQ	00000000000000000r		; 0
	DD	000000000r			; 0
	DD	00H
	DB	'Spokane Short', 00H
	ORG $+3
	ORG $+3
	DD	00H
	DQ	04047d4d4e4c942d5r		; 47.6627
	DQ	0c05d648943e10060r		; -117.571
	DD	041c80000r			; 25
	ORG $+4
	DQ	00000000000000000r		; 0
	DQ	00000000000000000r		; 0
	DD	000000000r			; 0
	DD	00H
	DB	'Spring Mtn 1.5', 00H
	ORG $+2
	ORG $+3
	DD	00H
	DQ	04042166d4801f751r		; 36.1752
	DQ	0c05cfa471b478423r		; -115.911
	DD	042c00000r			; 96
	ORG $+4
	DQ	00000000000000000r		; 0
	DQ	00000000000000000r		; 0
	DD	000000000r			; 0
	DD	00H
	DB	'Spring Mtn 2.2', 00H
	ORG $+2
	ORG $+3
	DD	00H
	DQ	04042159652bd3c36r		; 36.1687
	DQ	0c05cfa3daf8df7a5r		; -115.91
	DD	043a00000r			; 320
	ORG $+4
	DQ	00000000000000000r		; 0
	DQ	00000000000000000r		; 0
	DD	000000000r			; 0
	DD	00H
	DB	'Spring Mtn 2.3', 00H
	ORG $+2
	ORG $+3
	DD	00H
	DQ	04042166d4801f751r		; 36.1752
	DQ	0c05cfa471b478423r		; -115.911
	DD	042c00000r			; 96
	ORG $+4
	DQ	00000000000000000r		; 0
	DQ	00000000000000000r		; 0
	DD	000000000r			; 0
	DD	00H
	DB	'Spring Mtn 2.4', 00H
	ORG $+2
	ORG $+3
	DD	00H
	DQ	04042159652bd3c36r		; 36.1687
	DQ	0c05cfa3daf8df7a5r		; -115.91
	DD	043a00000r			; 320
	ORG $+4
	DQ	00000000000000000r		; 0
	DQ	00000000000000000r		; 0
	DD	000000000r			; 0
	DD	00H
	DB	'Spring Mtn 3.4', 00H
	ORG $+2
	ORG $+3
	DD	00H
	DQ	04042159652bd3c36r		; 36.1687
	DQ	0c05cfa3daf8df7a5r		; -115.91
	DD	043a00000r			; 320
	ORG $+4
	DQ	00000000000000000r		; 0
	DQ	00000000000000000r		; 0
	DD	000000000r			; 0
	DD	00H
	DB	'St-Eustac', 00H
	ORG $+7
	ORG $+3
	DD	00H
	DQ	04046c96851223183r		; 45.5735
	DQ	0c0527dd1782d3847r		; -73.9659
	DD	0431f0000r			; 159
	ORG $+4
	DQ	00000000000000000r		; 0
	DQ	00000000000000000r		; 0
	DD	000000000r			; 0
	DD	01H
	DB	'Stratotech Park', 00H
	ORG $+1
	ORG $+3
	DD	00H
	DQ	0404ade41919ac797r		; 53.7364
	DQ	0c05c4ef8f8a4c1ecr		; -113.234
	DD	043a50000r			; 330
	ORG $+4
	DQ	00000000000000000r		; 0
	DQ	00000000000000000r		; 0
	DD	000000000r			; 0
	DD	00H
	DB	'StreetWillowCW', 00H
	ORG $+2
	ORG $+3
	DD	00H
	DQ	040416ff9830e3cdar		; 34.8748
	DQ	0c05d908f1d3ed528r		; -118.259
	DD	043900000r			; 288
	ORG $+4
	DQ	00000000000000000r		; 0
	DQ	00000000000000000r		; 0
	DD	000000000r			; 0
	DD	00H
	DB	'StreetWillowCCW', 00H
	ORG $+1
	ORG $+3
	DD	00H
	DQ	040416ff9830e3cdar		; 34.8748
	DQ	0c05d908f1d3ed528r		; -118.259
	DD	042d80000r			; 108
	ORG $+4
	DQ	00000000000000000r		; 0
	DQ	00000000000000000r		; 0
	DD	000000000r			; 0
	DD	00H
	DB	'Sugo', 00H
	ORG $+12
	ORG $+3
	DD	00H
	DQ	04043123de6149c6fr		; 38.1425
	DQ	0406198c98c3b0c46r		; 140.775
	DD	042c40000r			; 98
	ORG $+4
	DQ	00000000000000000r		; 0
	DQ	00000000000000000r		; 0
	DD	000000000r			; 0
	DD	00H
	DB	'Summit Point', 00H
	ORG $+4
	ORG $+3
	DD	00H
	DQ	040439e1adea89763r		; 39.2352
	DQ	0c0537e0539fba451r		; -77.9691
	DD	043470000r			; 199
	ORG $+4
	DQ	00000000000000000r		; 0
	DQ	00000000000000000r		; 0
	DD	000000000r			; 0
	DD	00H
	DB	'Summit Pt Jeff', 00H
	ORG $+2
	ORG $+3
	DD	00H
	DQ	040439df84cad57bcr		; 39.2341
	DQ	0c0537e3b60285ec4r		; -77.9724
	DD	043430000r			; 195
	ORG $+4
	DQ	00000000000000000r		; 0
	DQ	00000000000000000r		; 0
	DD	000000000r			; 0
	DD	00H
	DB	'Summit Pt Shen', 00H
	ORG $+2
	ORG $+3
	DD	00H
	DQ	040439ee2541d8e86r		; 39.2413
	DQ	0c0537eb4245f5ad9r		; -77.9797
	DD	042bc0000r			; 94
	ORG $+4
	DQ	00000000000000000r		; 0
	DQ	00000000000000000r		; 0
	DD	000000000r			; 0
	DD	00H
	DB	'Suzuka', 00H
	ORG $+10
	ORG $+3
	DD	00H
	DQ	040416bee4e26d480r		; 34.8432
	DQ	04061114b51372a39r		; 136.54
	DD	0430c0000r			; 140
	ORG $+4
	DQ	00000000000000000r		; 0
	DQ	00000000000000000r		; 0
	DD	000000000r			; 0
	DD	00H
	DB	'Symmons Plains', 00H
	ORG $+2
	ORG $+3
	DD	00H
	DQ	0c044d42b27cbf6e4r		; -41.6576
	DQ	04062680027d88c1er		; 147.25
	DD	0432a0000r			; 170
	ORG $+4
	DQ	00000000000000000r		; 0
	DQ	00000000000000000r		; 0
	DD	000000000r			; 0
	DD	00H
	DB	'Talladega SS', 00H
	ORG $+4
	ORG $+3
	DD	00H
	DQ	04040c819008205ffr		; 33.5633
	DQ	0c055846df82b1f68r		; -86.0692
	DD	043100000r			; 144
	ORG $+4
	DQ	00000000000000000r		; 0
	DQ	00000000000000000r		; 0
	DD	000000000r			; 0
	DD	01H
	DB	'TalladegaGP', 00H
	ORG $+5
	ORG $+3
	DD	00H
	DQ	04040c09d388a8b09r		; 33.5048
	DQ	0c0558017c1bda512r		; -86.0015
	DD	042280000r			; 42
	ORG $+4
	DQ	00000000000000000r		; 0
	DQ	00000000000000000r		; 0
	DD	000000000r			; 0
	DD	00H
	DB	'TalladegaGP CCW', 00H
	ORG $+1
	ORG $+3
	DD	00H
	DQ	04040c09d388a8b09r		; 33.5048
	DQ	0c0558017c1bda512r		; -86.0015
	DD	0436e0000r			; 238
	ORG $+4
	DQ	00000000000000000r		; 0
	DQ	00000000000000000r		; 0
	DD	000000000r			; 0
	DD	00H
	DB	'Taupo', 00H
	ORG $+11
	ORG $+3
	DD	00H
	DQ	0c04354d2dcb1465fr		; -38.6627
	DQ	0406604b3b5393251r		; 176.147
	DD	0439d0000r			; 314
	ORG $+4
	DQ	00000000000000000r		; 0
	DQ	00000000000000000r		; 0
	DD	000000000r			; 0
	DD	00H
	DB	'Teretonga', 00H
	ORG $+7
	ORG $+3
	DD	00H
	DQ	0c04738704bc27632r		; -46.4409
	DQ	04065086b15f88fc9r		; 168.263
	DD	041300000r			; 11
	ORG $+4
	DQ	00000000000000000r		; 0
	DQ	00000000000000000r		; 0
	DD	000000000r			; 0
	DD	00H
	DB	'Texas MS', 00H
	ORG $+8
	ORG $+3
	DD	00H
	DQ	0404084c5eb313be2r		; 33.0373
	DQ	0c0585230f49491f3r		; -97.2842
	DD	043440000r			; 196
	ORG $+4
	DQ	00000000000000000r		; 0
	DQ	00000000000000000r		; 0
	DD	000000000r			; 0
	DD	01H
	DB	'Texas MS Road', 00H
	ORG $+3
	ORG $+3
	DD	00H
	DQ	0404084c5eb313be2r		; 33.0373
	DQ	0c0585230f49491f3r		; -97.2842
	DD	043440000r			; 196
	ORG $+4
	DQ	00000000000000000r		; 0
	DQ	00000000000000000r		; 0
	DD	000000000r			; 0
	DD	00H
	DB	'Texas World', 00H
	ORG $+5
	ORG $+3
	DD	00H
	DQ	0403e89bad3a604e2r		; 30.538
	DQ	0c0580e5d031055b9r		; -96.2244
	DD	043410000r			; 193
	ORG $+4
	DQ	00000000000000000r		; 0
	DQ	00000000000000000r		; 0
	DD	000000000r			; 0
	DD	00H
	DB	'Thailand', 00H
	ORG $+8
	ORG $+3
	DD	00H
	DQ	0402bd2600b029281r		; 13.9109
	DQ	040590abb01c92ddcr		; 100.168
	DD	0430b0000r			; 139
	ORG $+4
	DQ	00000000000000000r		; 0
	DQ	00000000000000000r		; 0
	DD	000000000r			; 0
	DD	00H
	DB	'Thompson', 00H
	ORG $+8
	ORG $+3
	DD	00H
	DQ	04044fd7d8cf398e9r		; 41.9804
	DQ	0c051f50b30b5aa71r		; -71.8288
	DD	043920000r			; 292
	ORG $+4
	DQ	00000000000000000r		; 0
	DQ	00000000000000000r		; 0
	DD	000000000r			; 0
	DD	00H
	DB	'Thruxton', 00H
	ORG $+8
	ORG $+3
	DD	00H
	DQ	040499a94a2b9d3ccr		; 51.2077
	DQ	0bff9be7afa722186r		; -1.609
	DD	043a80000r			; 336
	ORG $+4
	DQ	00000000000000000r		; 0
	DQ	00000000000000000r		; 0
	DD	000000000r			; 0
	DD	00H
	DB	'Thunderhill', 00H
	ORG $+5
	ORG $+3
	DD	00H
	DQ	04043c4ec4a4095f2r		; 39.5385
	DQ	0c05e9531ceaf251cr		; -122.331
	DD	043340000r			; 180
	ORG $+4
	DQ	00000000000000000r		; 0
	DQ	00000000000000000r		; 0
	DD	000000000r			; 0
	DD	00H
	DB	'Thunderhill W', 00H
	ORG $+3
	ORG $+3
	DD	00H
	DQ	04043c4cd423d9232r		; 39.5375
	DQ	0c05e95aeb3dd11ber		; -122.339
	DD	0437f0000r			; 255
	ORG $+4
	DQ	00000000000000000r		; 0
	DQ	00000000000000000r		; 0
	DD	000000000r			; 0
	DD	00H
	DB	'Tokachi', 00H
	ORG $+9
	ORG $+3
	DD	00H
	DQ	0404550b89d6adf72r		; 42.6306
	DQ	04061e95a66128390r		; 143.292
	DD	042c20000r			; 97
	ORG $+4
	DQ	00000000000000000r		; 0
	DQ	00000000000000000r		; 0
	DD	000000000r			; 0
	DD	00H
	DB	'Tonfanau', 00H
	ORG $+8
	ORG $+3
	DD	00H
	DQ	0404a4f1a975afaf8r		; 52.618
	DQ	0c0107818c5c9a34dr		; -4.11728
	DD	042780000r			; 62
	ORG $+4
	DQ	00000000000000000r		; 0
	DQ	00000000000000000r		; 0
	DD	000000000r			; 0
	DD	00H
	DB	'TopGearUKLaunch', 00H
	ORG $+1
	ORG $+3
	DD	00H
	DQ	040498f30a4e379b7r		; 51.1187
	DQ	0bfe12a737110e454r		; -0.536432
	DD	0437a0000r			; 250
	ORG $+4
	DQ	040498f30a4e379b7r		; 51.1187
	DQ	0bfe12a737110e454r		; -0.536432
	DD	0437a0000r			; 250
	DD	02H
	DB	'TopGearUKRoad', 00H
	ORG $+3
	ORG $+3
	DD	00H
	DQ	040498f30a4e379b7r		; 51.1187
	DQ	0bfe12a737110e454r		; -0.536432
	DD	0437a0000r			; 250
	ORG $+4
	DQ	00000000000000000r		; 0
	DQ	00000000000000000r		; 0
	DD	000000000r			; 0
	DD	00H
	DB	'TopGearUSLaunch', 00H
	ORG $+1
	ORG $+3
	DD	00H
	DQ	04040d5e236c15d2dr		; 33.671
	DQ	0c05d6effc115df65r		; -117.734
	DD	043340000r			; 180
	ORG $+4
	DQ	04040d5e28240b780r		; 33.671
	DQ	0c05d6eff7164c72ar		; -117.734
	DD	043340000r			; 180
	DD	02H
	DB	'TopGearUSRoad', 00H
	ORG $+3
	ORG $+3
	DD	00H
	DQ	04040d5e28240b780r		; 33.671
	DQ	0c05d6eff7164c72ar		; -117.734
	DD	043340000r			; 180
	ORG $+4
	DQ	00000000000000000r		; 0
	DQ	00000000000000000r		; 0
	DD	000000000r			; 0
	DD	00H
	DB	'Toronto', 00H
	ORG $+9
	ORG $+3
	DD	00H
	DQ	04045739103c8e25dr		; 42.9029
	DQ	0c053f6e974a3400cr		; -79.858
	DD	043ab0000r			; 342
	ORG $+4
	DQ	00000000000000000r		; 0
	DQ	00000000000000000r		; 0
	DD	000000000r			; 0
	DD	00H
	DB	'Toyota Test', 00H
	ORG $+5
	ORG $+3
	DD	00H
	DQ	0404616128bf3bea9r		; 44.1724
	DQ	04061c7d8b60f1b26r		; 142.245
	DD	043a00000r			; 320
	ORG $+4
	DQ	00000000000000000r		; 0
	DQ	00000000000000000r		; 0
	DD	000000000r			; 0
	DD	01H
	DB	'Trappes StQuent', 00H
	ORG $+1
	ORG $+3
	DD	00H
	DQ	04048613b42cc2d6br		; 48.7596
	DQ	03fffe3ee1bd1ed9er		; 1.99315
	DD	0434f0000r			; 207
	ORG $+4
	DQ	00000000000000000r		; 0
	DQ	00000000000000000r		; 0
	DD	000000000r			; 0
	DD	00H
	DB	'Traqmate AutoX', 00H
	ORG $+2
	ORG $+3
	DD	00H
	DQ	040410d0f94c87981r		; 34.102
	DQ	0c0550ef316e37154r		; -84.2336
	DD	042680000r			; 58
	ORG $+4
	DQ	040410d7a3db3bfb6r		; 34.1053
	DQ	0c0550ed56b00ffdar		; -84.2318
	DD	043510000r			; 209
	DD	02H
	DB	'Traqmate DragE', 00H
	ORG $+2
	ORG $+3
	DD	00H
	DQ	040410d0f94c87981r		; 34.102
	DQ	0c0550ef316e37154r		; -84.2336
	DD	042680000r			; 58
	ORG $+4
	DQ	040410d4202d9cf14r		; 34.1036
	DQ	0c0550edf0d413123r		; -84.2324
	DD	041900000r			; 18
	DD	03H
	DB	'Traqmate DragQ', 00H
	ORG $+2
	ORG $+3
	DD	00H
	DQ	040410d0f94c87981r		; 34.102
	DQ	0c0550ef316e37154r		; -84.2336
	DD	042680000r			; 58
	ORG $+4
	DQ	040410d9e30014f8br		; 34.1064
	DQ	0c0550eaf6837f7ber		; -84.2295
	DD	041900000r			; 18
	DD	05H
	DB	'Traqmate Test', 00H
	ORG $+3
	ORG $+3
	DD	00H
	DQ	040410da01eeed890r		; 34.1064
	DQ	0c0550f28dc981bebr		; -84.2369
	DD	043360000r			; 182
	ORG $+4
	DQ	00000000000000000r		; 0
	DQ	00000000000000000r		; 0
	DD	000000000r			; 0
	DD	00H
	DB	'Tsukuba', 00H
	ORG $+9
	ORG $+3
	DD	00H
	DQ	040421335e310dbf0r		; 36.1501
	DQ	040617d6b69db65edr		; 139.919
	DD	041500000r			; 13
	ORG $+4
	DQ	00000000000000000r		; 0
	DQ	00000000000000000r		; 0
	DD	000000000r			; 0
	DD	00H
	DB	'Tsukuba 1000', 00H
	ORG $+4
	ORG $+3
	DD	00H
	DQ	040421353586ca8a0r		; 36.151
	DQ	040617d97225b749br		; 139.925
	DD	043460000r			; 198
	ORG $+4
	DQ	00000000000000000r		; 0
	DQ	00000000000000000r		; 0
	DD	000000000r			; 0
	DD	00H
	DB	'Tsukuba Short', 00H
	ORG $+3
	ORG $+3
	DD	00H
	DQ	040421335e310dbf0r		; 36.1501
	DQ	040617d6b69db65edr		; 139.919
	DD	041500000r			; 13
	ORG $+4
	DQ	00000000000000000r		; 0
	DQ	00000000000000000r		; 0
	DD	000000000r			; 0
	DD	00H
	DB	'Val de Vienne', 00H
	ORG $+3
	ORG $+3
	DD	00H
	DQ	04047193fc86cebbcr		; 46.1973
	DQ	03fe456dc1a47a9e3r		; 0.635603
	DD	042d00000r			; 104
	ORG $+4
	DQ	00000000000000000r		; 0
	DQ	00000000000000000r		; 0
	DD	000000000r			; 0
	DD	00H
	DB	'Valencia', 00H
	ORG $+8
	ORG $+3
	DD	00H
	DQ	04043bde58e64b231r		; 39.4836
	DQ	0bfe431af3a14cec4r		; -0.631065
	DD	0425c0000r			; 55
	ORG $+4
	DQ	00000000000000000r		; 0
	DQ	00000000000000000r		; 0
	DD	000000000r			; 0
	DD	00H
	DB	'Vallelunga', 00H
	ORG $+6
	ORG $+3
	DD	00H
	DQ	04045142fcefaa476r		; 42.1577
	DQ	04028bced0b30b5aar		; 12.369
	DD	043af8000r			; 351
	ORG $+4
	DQ	00000000000000000r		; 0
	DQ	00000000000000000r		; 0
	DD	000000000r			; 0
	DD	00H
	DB	'Varano', 00H
	ORG $+10
	ORG $+3
	DD	00H
	DQ	0404657211cb039efr		; 44.6807
	DQ	040240ab40f66a551r		; 10.0209
	DD	042b80000r			; 92
	ORG $+4
	DQ	00000000000000000r		; 0
	DQ	00000000000000000r		; 0
	DD	000000000r			; 0
	DD	00H
	DB	'VIR Full', 00H
	ORG $+8
	ORG $+3
	DD	00H
	DQ	0404248d013a92a30r		; 36.5688
	DQ	0c053cd3c254a3c64r		; -79.2068
	DD	042a60000r			; 83
	ORG $+4
	DQ	00000000000000000r		; 0
	DQ	00000000000000000r		; 0
	DD	000000000r			; 0
	DD	00H
	DB	'VIR Grand', 00H
	ORG $+7
	ORG $+3
	DD	00H
	DQ	0404248d013a92a30r		; 36.5688
	DQ	0c053cd3c254a3c64r		; -79.2068
	DD	042a60000r			; 83
	ORG $+4
	DQ	00000000000000000r		; 0
	DQ	00000000000000000r		; 0
	DD	000000000r			; 0
	DD	00H
	DB	'VIR North', 00H
	ORG $+7
	ORG $+3
	DD	00H
	DQ	0404248d013a92a30r		; 36.5688
	DQ	0c053cd3c254a3c64r		; -79.2068
	DD	042a60000r			; 83
	ORG $+4
	DQ	00000000000000000r		; 0
	DQ	00000000000000000r		; 0
	DD	000000000r			; 0
	DD	00H
	DB	'VIR Patriot', 00H
	ORG $+5
	ORG $+3
	DD	00H
	DQ	0404247bc55864452r		; 36.5604
	DQ	0c053cd32f87ad081r		; -79.2062
	DD	042e80000r			; 116
	ORG $+4
	DQ	00000000000000000r		; 0
	DQ	00000000000000000r		; 0
	DD	000000000r			; 0
	DD	00H
	DB	'VIR South', 00H
	ORG $+7
	ORG $+3
	DD	00H
	DQ	0404246e92d55a3a1r		; 36.554
	DQ	0c053cd39d5e4a383r		; -79.2067
	DD	043a48000r			; 329
	ORG $+4
	DQ	00000000000000000r		; 0
	DQ	00000000000000000r		; 0
	DD	000000000r			; 0
	DD	00H
	DB	'Wakefield Park', 00H
	ORG $+2
	ORG $+3
	DD	00H
	DQ	0c0416b8a3b57c4e3r		; -34.8402
	DQ	04062b5eccc469510r		; 149.685
	DD	041900000r			; 18
	ORG $+4
	DQ	00000000000000000r		; 0
	DQ	00000000000000000r		; 0
	DD	000000000r			; 0
	DD	00H
	DB	'Waterford Hills', 00H
	ORG $+1
	ORG $+3
	DD	00H
	DQ	040455ab1bbcf4e87r		; 42.7085
	DQ	0c054d90a30db6a1fr		; -83.3912
	DD	0432c0000r			; 172
	ORG $+4
	DQ	00000000000000000r		; 0
	DQ	00000000000000000r		; 0
	DD	000000000r			; 0
	DD	00H
	DB	'Watkins Glen L', 00H
	ORG $+2
	ORG $+3
	DD	00H
	DQ	040452ba4a48f96e1r		; 42.341
	DQ	0c0533b736049ecb3r		; -76.9289
	DD	040800000r			; 4
	ORG $+4
	DQ	00000000000000000r		; 0
	DQ	00000000000000000r		; 0
	DD	000000000r			; 0
	DD	00H
	DB	'Watkins Glen S', 00H
	ORG $+2
	ORG $+3
	DD	00H
	DQ	040452ba4a48f96e1r		; 42.341
	DQ	0c0533b736049ecb3r		; -76.9289
	DD	040800000r			; 4
	ORG $+4
	DQ	00000000000000000r		; 0
	DQ	00000000000000000r		; 0
	DD	000000000r			; 0
	DD	00H
	DB	'Weissach', 00H
	ORG $+8
	ORG $+3
	DD	00H
	DQ	040486bee5eedcc21r		; 48.8432
	DQ	04021d04ddb5525ccr		; 8.90684
	DD	0439f8000r			; 319
	ORG $+4
	DQ	00000000000000000r		; 0
	DQ	00000000000000000r		; 0
	DD	000000000r			; 0
	DD	00H
	DB	'Willow Springs', 00H
	ORG $+2
	ORG $+3
	DD	00H
	DQ	040416f8db4890929r		; 34.8715
	DQ	0c05d90e03b3e9a70r		; -118.264
	DD	043980000r			; 304
	ORG $+4
	DQ	00000000000000000r		; 0
	DQ	00000000000000000r		; 0
	DD	000000000r			; 0
	DD	00H
	DB	'Winton', 00H
	ORG $+10
	ORG $+3
	DD	00H
	DQ	0c042422917507e9er		; -36.5169
	DQ	0406242b1bde82d7br		; 146.084
	DD	043110000r			; 145
	ORG $+4
	DQ	00000000000000000r		; 0
	DQ	00000000000000000r		; 0
	DD	000000000r			; 0
	DD	00H
	DB	'YZ Circuit', 00H
	ORG $+6
	ORG $+3
	DD	00H
	DQ	04041b7db8fde2ef5r		; 35.4364
	DQ	0406127de4c51116br		; 137.246
	DD	043aa8000r			; 341
	ORG $+4
	DQ	00000000000000000r		; 0
	DQ	00000000000000000r		; 0
	DD	000000000r			; 0
	DD	00H
	DB	'Zandvoort', 00H
	ORG $+7
	ORG $+3
	DD	00H
	DQ	0404a31c5de9c022ar		; 52.3889
	DQ	0401229bcfd4bf099r		; 4.54076
	DD	041b00000r			; 22
	ORG $+4
	DQ	00000000000000000r		; 0
	DQ	00000000000000000r		; 0
	DD	000000000r			; 0
	DD	00H
	DB	'Zhuhai', 00H
	ORG $+10
	ORG $+3
	DD	00H
	DQ	040365decc3e3193fr		; 22.3669
	DQ	0405c63d8a5482385r		; 113.56
	DD	043210000r			; 161
	ORG $+4
	DQ	00000000000000000r		; 0
	DQ	00000000000000000r		; 0
	DD	000000000r			; 0
	DD	00H
	DB	'Zolder', 00H
	ORG $+10
	ORG $+3
	DD	00H
	DQ	040497e9888f861a6r		; 50.989
	DQ	0401505dc8323358fr		; 5.25572
	DD	0436e0000r			; 238
	ORG $+4
	DQ	00000000000000000r		; 0
	DQ	00000000000000000r		; 0
	DD	000000000r			; 0
	DD	00H
	DB	'Zwartkops', 00H
	ORG $+7
	ORG $+3
	DD	00H
	DQ	0c039cf5d894812ber		; -25.81
	DQ	0403c1ccc6822ff09r		; 28.1125
	DD	043a68000r			; 333
	ORG $+4
	DQ	00000000000000000r		; 0
	DQ	00000000000000000r		; 0
	DD	000000000r			; 0
	DD	00H
	ORG $+720
CONST	ENDS
_DATA	SEGMENT
_numberOfTracks DD 0177H
$SG119607 DB	'\', 00H
	ORG $+2
$SG119609 DB	'rb', 00H
	ORG $+1
$SG119717 DB	'*.dat', 00H
	ORG $+2
$SG119747 DB	'..\..', 00H
_DATA	ENDS
PUBLIC	_ReadTracks
PUBLIC	_CreateTracks
EXTRN	_memset:PROC
EXTRN	__RTC_CheckEsp:PROC
EXTRN	__RTC_Shutdown:PROC
EXTRN	__RTC_InitBase:PROC
;	COMDAT rtc$TMZ
; File c:\duii\duii\trackdetect.c
rtc$TMZ	SEGMENT
__RTC_Shutdown.rtc$TMZ DD FLAT:__RTC_Shutdown
rtc$TMZ	ENDS
;	COMDAT rtc$IMZ
rtc$IMZ	SEGMENT
__RTC_InitBase.rtc$IMZ DD FLAT:__RTC_InitBase
; Function compile flags: /Odtp /RTCsu /ZI
rtc$IMZ	ENDS
;	COMDAT _CreateTracks
_TEXT	SEGMENT
_trackIndex$ = -8					; size = 4
_CreateTracks PROC					; COMDAT
; Line 501
	push	ebp
	mov	ebp, esp
	sub	esp, 204				; 000000ccH
	push	ebx
	push	esi
	push	edi
	lea	edi, DWORD PTR [ebp-204]
	mov	ecx, 51					; 00000033H
	mov	eax, -858993460				; ccccccccH
	rep stosd
; Line 505
	push	30600					; 00007788H
	push	0
	push	OFFSET _trackTable
	call	_memset
	add	esp, 12					; 0000000cH
; Line 508
	mov	DWORD PTR _trackIndex$[ebp], 0
	jmp	SHORT $LN3@CreateTrac
$LN2@CreateTrac:
	mov	eax, DWORD PTR _trackIndex$[ebp]
	add	eax, 1
	mov	DWORD PTR _trackIndex$[ebp], eax
$LN3@CreateTrac:
	cmp	DWORD PTR _trackIndex$[ebp], 375	; 00000177H
	jge	SHORT $LN1@CreateTrac
; Line 509
	mov	esi, DWORD PTR _trackIndex$[ebp]
	imul	esi, 72					; 00000048H
	add	esi, OFFSET _romTrackTable
	mov	edi, DWORD PTR _trackIndex$[ebp]
	imul	edi, 72					; 00000048H
	add	edi, OFFSET _trackTable
	mov	ecx, 18					; 00000012H
	rep movsd
	jmp	SHORT $LN2@CreateTrac
$LN1@CreateTrac:
; Line 512
	call	_ReadTracks
; Line 513
	pop	edi
	pop	esi
	pop	ebx
	add	esp, 204				; 000000ccH
	cmp	ebp, esp
	call	__RTC_CheckEsp
	mov	esp, ebp
	pop	ebp
	ret	0
_CreateTracks ENDP
_TEXT	ENDS
PUBLIC	_AddTrack
PUBLIC	__$ArrayPad$
EXTRN	_closedir:PROC
EXTRN	_fclose:PROC
EXTRN	_strlen:PROC
EXTRN	_verifyData:PROC
EXTRN	_fread:PROC
EXTRN	_fopen:PROC
EXTRN	_strcat:PROC
EXTRN	_strcpy:PROC
EXTRN	_ValidFileName:PROC
EXTRN	_readdir:PROC
EXTRN	_opendir:PROC
EXTRN	_TRACK_PATH:BYTE
EXTRN	___security_cookie:DWORD
EXTRN	@__security_check_cookie@4:PROC
EXTRN	@_RTC_CheckStackVars@8:PROC
EXTRN	__chkstk:PROC
; Function compile flags: /Odtp /RTCsu /ZI
;	COMDAT _ReadTracks
_TEXT	SEGMENT
_fullFileName$119606 = -5524				; size = 80
_ent$ = -5436						; size = 4
_dir$ = -5424						; size = 4
_pFile$ = -5412						; size = 4
_success$ = -5400					; size = 4
_newTrack$ = -5388					; size = 5280
_trackFileName$ = -100					; size = 80
_size$ = -12						; size = 4
__$ArrayPad$ = -4					; size = 4
_ReadTracks PROC					; COMDAT
; Line 520
	push	ebp
	mov	ebp, esp
	mov	eax, 5720				; 00001658H
	call	__chkstk
	push	ebx
	push	esi
	push	edi
	lea	edi, DWORD PTR [ebp-5720]
	mov	ecx, 1430				; 00000596H
	mov	eax, -858993460				; ccccccccH
	rep stosd
	mov	eax, DWORD PTR ___security_cookie
	xor	eax, ebp
	mov	DWORD PTR __$ArrayPad$[ebp], eax
; Line 524
	mov	DWORD PTR _success$[ebp], 0
; Line 538
	mov	DWORD PTR _numberOfTracks, 0
	jmp	SHORT $LN11@ReadTracks
$LN10@ReadTracks:
	mov	eax, DWORD PTR _numberOfTracks
	add	eax, 1
	mov	DWORD PTR _numberOfTracks, eax
$LN11@ReadTracks:
	cmp	DWORD PTR _numberOfTracks, 425		; 000001a9H
	jge	SHORT $LN9@ReadTracks
; Line 539
	mov	eax, DWORD PTR _numberOfTracks
	imul	eax, 72					; 00000048H
	movzx	ecx, BYTE PTR _trackTable[eax]
	test	ecx, ecx
	jne	SHORT $LN8@ReadTracks
; Line 540
	jmp	SHORT $LN9@ReadTracks
$LN8@ReadTracks:
; Line 541
	jmp	SHORT $LN10@ReadTracks
$LN9@ReadTracks:
; Line 543
	mov	DWORD PTR _size$[ebp], 5280		; 000014a0H
; Line 569
	push	OFFSET _TRACK_PATH
	call	_opendir
	add	esp, 4
	mov	DWORD PTR _dir$[ebp], eax
; Line 570
	cmp	DWORD PTR _dir$[ebp], 0
	je	$LN7@ReadTracks
$LN6@ReadTracks:
; Line 573
	mov	eax, DWORD PTR _dir$[ebp]
	push	eax
	call	_readdir
	add	esp, 4
	mov	DWORD PTR _ent$[ebp], eax
	cmp	DWORD PTR _ent$[ebp], 0
	je	$LN5@ReadTracks
; Line 575
	mov	eax, DWORD PTR _ent$[ebp]
	add	eax, 2
	push	eax
	call	_ValidFileName
	add	esp, 4
	movzx	ecx, al
	test	ecx, ecx
	je	$LN4@ReadTracks
; Line 579
	mov	eax, DWORD PTR _ent$[ebp]
	add	eax, 2
	push	eax
	lea	ecx, DWORD PTR _trackFileName$[ebp]
	push	ecx
	call	_strcpy
	add	esp, 8
; Line 580
	push	OFFSET _TRACK_PATH
	lea	eax, DWORD PTR _fullFileName$119606[ebp]
	push	eax
	call	_strcpy
	add	esp, 8
; Line 581
	push	OFFSET $SG119607
	lea	eax, DWORD PTR _fullFileName$119606[ebp]
	push	eax
	call	_strcat
	add	esp, 8
; Line 582
	lea	eax, DWORD PTR _trackFileName$[ebp]
	push	eax
	lea	ecx, DWORD PTR _fullFileName$119606[ebp]
	push	ecx
	call	_strcat
	add	esp, 8
; Line 584
	push	OFFSET $SG119609
	lea	eax, DWORD PTR _fullFileName$119606[ebp]
	push	eax
	call	_fopen
	add	esp, 8
	mov	DWORD PTR _pFile$[ebp], eax
	cmp	DWORD PTR _pFile$[ebp], 0
	je	SHORT $LN3@ReadTracks
; Line 585
	mov	eax, DWORD PTR _pFile$[ebp]
	push	eax
	push	1
	mov	ecx, DWORD PTR _size$[ebp]
	push	ecx
	lea	edx, DWORD PTR _newTrack$[ebp]
	push	edx
	call	_fread
	add	esp, 16					; 00000010H
	cmp	eax, 1
	jne	SHORT $LN3@ReadTracks
; Line 586
	push	0
	lea	eax, DWORD PTR _newTrack$[ebp]
	push	eax
	push	1
	call	_verifyData
	add	esp, 12					; 0000000cH
	movzx	ecx, al
	mov	DWORD PTR _success$[ebp], ecx
	cmp	DWORD PTR _success$[ebp], 0
	je	SHORT $LN3@ReadTracks
; Line 589
	lea	eax, DWORD PTR _trackFileName$[ebp]
	push	eax
	call	_strlen
	add	esp, 4
	mov	BYTE PTR _trackFileName$[ebp+eax-4], 0
; Line 591
	lea	eax, DWORD PTR _newTrack$[ebp]
	push	eax
	lea	ecx, DWORD PTR _trackFileName$[ebp]
	push	ecx
	call	_AddTrack
	add	esp, 8
$LN3@ReadTracks:
; Line 595
	mov	eax, DWORD PTR _pFile$[ebp]
	push	eax
	call	_fclose
	add	esp, 4
$LN4@ReadTracks:
; Line 597
	jmp	$LN6@ReadTracks
$LN5@ReadTracks:
; Line 598
	mov	eax, DWORD PTR _dir$[ebp]
	push	eax
	call	_closedir
	add	esp, 4
$LN7@ReadTracks:
; Line 632
	mov	eax, DWORD PTR _success$[ebp]
; Line 633
	push	edx
	mov	ecx, ebp
	push	eax
	lea	edx, DWORD PTR $LN18@ReadTracks
	call	@_RTC_CheckStackVars@8
	pop	eax
	pop	edx
	pop	edi
	pop	esi
	pop	ebx
	mov	ecx, DWORD PTR __$ArrayPad$[ebp]
	xor	ecx, ebp
	call	@__security_check_cookie@4
	add	esp, 5720				; 00001658H
	cmp	ebp, esp
	call	__RTC_CheckEsp
	mov	esp, ebp
	pop	ebp
	ret	0
	npad	2
$LN18@ReadTracks:
	DD	3
	DD	$LN17@ReadTracks
$LN17@ReadTracks:
	DD	-100					; ffffff9cH
	DD	80					; 00000050H
	DD	$LN14@ReadTracks
	DD	-5388					; ffffeaf4H
	DD	5280					; 000014a0H
	DD	$LN15@ReadTracks
	DD	-5524					; ffffea6cH
	DD	80					; 00000050H
	DD	$LN16@ReadTracks
$LN16@ReadTracks:
	DB	102					; 00000066H
	DB	117					; 00000075H
	DB	108					; 0000006cH
	DB	108					; 0000006cH
	DB	70					; 00000046H
	DB	105					; 00000069H
	DB	108					; 0000006cH
	DB	101					; 00000065H
	DB	78					; 0000004eH
	DB	97					; 00000061H
	DB	109					; 0000006dH
	DB	101					; 00000065H
	DB	0
$LN15@ReadTracks:
	DB	110					; 0000006eH
	DB	101					; 00000065H
	DB	119					; 00000077H
	DB	84					; 00000054H
	DB	114					; 00000072H
	DB	97					; 00000061H
	DB	99					; 00000063H
	DB	107					; 0000006bH
	DB	0
$LN14@ReadTracks:
	DB	116					; 00000074H
	DB	114					; 00000072H
	DB	97					; 00000061H
	DB	99					; 00000063H
	DB	107					; 0000006bH
	DB	70					; 00000046H
	DB	105					; 00000069H
	DB	108					; 0000006cH
	DB	101					; 00000065H
	DB	78					; 0000004eH
	DB	97					; 00000061H
	DB	109					; 0000006dH
	DB	101					; 00000065H
	DB	0
_ReadTracks ENDP
_TEXT	ENDS
PUBLIC	__$ArrayPad$
EXTRN	_strncmp:PROC
EXTRN	_tolower:PROC
EXTRN	__fltused:DWORD
; Function compile flags: /Odtp /RTCsu /ZI
;	COMDAT _AddTrack
_TEXT	SEGMENT
_newtrack$ = -104					; size = 17
_tabletrack$ = -76					; size = 17
_comparison$ = -48					; size = 4
_tempindex$ = -36					; size = 4
_nameindex$ = -24					; size = 4
_trackStored$ = -12					; size = 4
__$ArrayPad$ = -4					; size = 4
_addedName$ = 8						; size = 4
_addedTrack$ = 12					; size = 4
_AddTrack PROC						; COMDAT
; Line 640
	push	ebp
	mov	ebp, esp
	sub	esp, 300				; 0000012cH
	push	ebx
	push	esi
	push	edi
	lea	edi, DWORD PTR [ebp-300]
	mov	ecx, 75					; 0000004bH
	mov	eax, -858993460				; ccccccccH
	rep stosd
	mov	eax, DWORD PTR ___security_cookie
	xor	eax, ebp
	mov	DWORD PTR __$ArrayPad$[ebp], eax
; Line 641
	mov	DWORD PTR _trackStored$[ebp], 0
; Line 649
	mov	DWORD PTR _tempindex$[ebp], -1
$LN20@AddTrack:
; Line 651
	mov	eax, DWORD PTR _tempindex$[ebp]
	add	eax, 1
	mov	DWORD PTR _tempindex$[ebp], eax
; Line 652
	mov	eax, DWORD PTR _addedName$[ebp]
	add	eax, DWORD PTR _tempindex$[ebp]
	movzx	ecx, BYTE PTR [eax]
	push	ecx
	call	_tolower
	add	esp, 4
	mov	edx, DWORD PTR _tempindex$[ebp]
	mov	BYTE PTR _newtrack$[ebp+edx], al
; Line 653
	cmp	DWORD PTR _tempindex$[ebp], 16		; 00000010H
	jge	SHORT $LN17@AddTrack
	mov	eax, DWORD PTR _tempindex$[ebp]
	movzx	ecx, BYTE PTR _newtrack$[ebp+eax]
	test	ecx, ecx
	jne	SHORT $LN20@AddTrack
$LN17@AddTrack:
; Line 656
	mov	DWORD PTR _nameindex$[ebp], 0
	jmp	SHORT $LN16@AddTrack
$LN15@AddTrack:
	mov	eax, DWORD PTR _nameindex$[ebp]
	add	eax, 1
	mov	DWORD PTR _nameindex$[ebp], eax
$LN16@AddTrack:
	cmp	DWORD PTR _trackStored$[ebp], 0
	jne	$LN14@AddTrack
	mov	eax, DWORD PTR _nameindex$[ebp]
	cmp	eax, DWORD PTR _numberOfTracks
	jge	$LN14@AddTrack
; Line 658
	mov	DWORD PTR _tempindex$[ebp], -1
$LN13@AddTrack:
; Line 660
	mov	eax, DWORD PTR _tempindex$[ebp]
	add	eax, 1
	mov	DWORD PTR _tempindex$[ebp], eax
; Line 661
	mov	eax, DWORD PTR _nameindex$[ebp]
	imul	eax, 72					; 00000048H
	mov	ecx, DWORD PTR _tempindex$[ebp]
	movzx	edx, BYTE PTR _trackTable[eax+ecx]
	push	edx
	call	_tolower
	add	esp, 4
	mov	ecx, DWORD PTR _tempindex$[ebp]
	mov	BYTE PTR _tabletrack$[ebp+ecx], al
; Line 662
	cmp	DWORD PTR _tempindex$[ebp], 16		; 00000010H
	jge	SHORT $LN10@AddTrack
	mov	eax, DWORD PTR _tempindex$[ebp]
	movzx	ecx, BYTE PTR _tabletrack$[ebp+eax]
	test	ecx, ecx
	jne	SHORT $LN13@AddTrack
$LN10@AddTrack:
; Line 665
	push	16					; 00000010H
	lea	eax, DWORD PTR _newtrack$[ebp]
	push	eax
	lea	ecx, DWORD PTR _tabletrack$[ebp]
	push	ecx
	call	_strncmp
	add	esp, 12					; 0000000cH
	mov	DWORD PTR _comparison$[ebp], eax
	cmp	DWORD PTR _comparison$[ebp], 0
	jl	SHORT $LN9@AddTrack
; Line 667
	cmp	DWORD PTR _comparison$[ebp], 0
	je	SHORT $LN8@AddTrack
; Line 669
	mov	eax, DWORD PTR _nameindex$[ebp]
	cmp	eax, DWORD PTR _numberOfTracks
	je	SHORT $LN4@AddTrack
; Line 670
	mov	eax, DWORD PTR _numberOfTracks
	mov	DWORD PTR _tempindex$[ebp], eax
	jmp	SHORT $LN6@AddTrack
$LN5@AddTrack:
	mov	eax, DWORD PTR _tempindex$[ebp]
	sub	eax, 1
	mov	DWORD PTR _tempindex$[ebp], eax
$LN6@AddTrack:
	mov	eax, DWORD PTR _tempindex$[ebp]
	cmp	eax, DWORD PTR _nameindex$[ebp]
	jl	SHORT $LN4@AddTrack
; Line 671
	mov	esi, DWORD PTR _tempindex$[ebp]
	imul	esi, 72					; 00000048H
	add	esi, OFFSET _trackTable
	mov	edi, DWORD PTR _tempindex$[ebp]
	add	edi, 1
	imul	edi, 72					; 00000048H
	add	edi, OFFSET _trackTable
	mov	ecx, 18					; 00000012H
	rep movsd
; Line 672
	jmp	SHORT $LN5@AddTrack
$LN4@AddTrack:
; Line 675
	mov	eax, DWORD PTR _addedName$[ebp]
	push	eax
	mov	ecx, DWORD PTR _nameindex$[ebp]
	imul	ecx, 72					; 00000048H
	add	ecx, OFFSET _trackTable
	push	ecx
	call	_strcpy
	add	esp, 8
; Line 676
	mov	eax, DWORD PTR _numberOfTracks
	add	eax, 1
	mov	DWORD PTR _numberOfTracks, eax
$LN8@AddTrack:
; Line 679
	mov	DWORD PTR _trackStored$[ebp], 1
; Line 680
	jmp	SHORT $LN14@AddTrack
$LN9@AddTrack:
; Line 682
	jmp	$LN15@AddTrack
$LN14@AddTrack:
; Line 684
	mov	eax, DWORD PTR _nameindex$[ebp]
	cmp	eax, DWORD PTR _numberOfTracks
	jne	SHORT $LN3@AddTrack
; Line 685
	mov	eax, DWORD PTR _addedName$[ebp]
	push	eax
	mov	ecx, DWORD PTR _nameindex$[ebp]
	imul	ecx, 72					; 00000048H
	add	ecx, OFFSET _trackTable
	push	ecx
	call	_strcpy
	add	esp, 8
; Line 686
	mov	eax, DWORD PTR _numberOfTracks
	add	eax, 1
	mov	DWORD PTR _numberOfTracks, eax
; Line 687
	mov	DWORD PTR _trackStored$[ebp], 1
$LN3@AddTrack:
; Line 690
	cmp	DWORD PTR _trackStored$[ebp], 0
	je	$LN2@AddTrack
; Line 692
	mov	eax, DWORD PTR _nameindex$[ebp]
	imul	eax, 72					; 00000048H
	mov	DWORD PTR _trackTable[eax+20], 1
; Line 693
	mov	eax, DWORD PTR _nameindex$[ebp]
	imul	eax, 72					; 00000048H
	mov	ecx, DWORD PTR _addedTrack$[ebp]
	fld	QWORD PTR [ecx+16]
	fstp	QWORD PTR _trackTable[eax+24]
; Line 694
	mov	eax, DWORD PTR _nameindex$[ebp]
	imul	eax, 72					; 00000048H
	mov	ecx, DWORD PTR _addedTrack$[ebp]
	fld	QWORD PTR [ecx+24]
	fstp	QWORD PTR _trackTable[eax+32]
; Line 695
	mov	eax, DWORD PTR _nameindex$[ebp]
	imul	eax, 72					; 00000048H
	mov	ecx, DWORD PTR _addedTrack$[ebp]
	fld	DWORD PTR [ecx+36]
	fstp	DWORD PTR _trackTable[eax+40]
; Line 696
	mov	eax, DWORD PTR _nameindex$[ebp]
	imul	eax, 72					; 00000048H
	mov	ecx, DWORD PTR _addedTrack$[ebp]
	fld	QWORD PTR [ecx+40]
	fstp	QWORD PTR _trackTable[eax+48]
; Line 697
	mov	eax, DWORD PTR _nameindex$[ebp]
	imul	eax, 72					; 00000048H
	mov	ecx, DWORD PTR _addedTrack$[ebp]
	fld	QWORD PTR [ecx+48]
	fstp	QWORD PTR _trackTable[eax+56]
; Line 698
	mov	eax, DWORD PTR _nameindex$[ebp]
	imul	eax, 72					; 00000048H
	mov	ecx, DWORD PTR _addedTrack$[ebp]
	fld	DWORD PTR [ecx+60]
	fstp	DWORD PTR _trackTable[eax+64]
; Line 699
	mov	eax, DWORD PTR _nameindex$[ebp]
	imul	eax, 72					; 00000048H
	mov	ecx, DWORD PTR _addedTrack$[ebp]
	movzx	edx, BYTE PTR [ecx+64]
	mov	DWORD PTR _trackTable[eax+68], edx
; Line 701
	mov	eax, DWORD PTR _nameindex$[ebp]
	jmp	SHORT $LN1@AddTrack
; Line 703
	jmp	SHORT $LN1@AddTrack
$LN2@AddTrack:
; Line 704
	or	eax, -1
$LN1@AddTrack:
; Line 705
	push	edx
	mov	ecx, ebp
	push	eax
	lea	edx, DWORD PTR $LN26@AddTrack
	call	@_RTC_CheckStackVars@8
	pop	eax
	pop	edx
	pop	edi
	pop	esi
	pop	ebx
	mov	ecx, DWORD PTR __$ArrayPad$[ebp]
	xor	ecx, ebp
	call	@__security_check_cookie@4
	add	esp, 300				; 0000012cH
	cmp	ebp, esp
	call	__RTC_CheckEsp
	mov	esp, ebp
	pop	ebp
	ret	0
	npad	3
$LN26@AddTrack:
	DD	2
	DD	$LN25@AddTrack
$LN25@AddTrack:
	DD	-76					; ffffffb4H
	DD	17					; 00000011H
	DD	$LN23@AddTrack
	DD	-104					; ffffff98H
	DD	17					; 00000011H
	DD	$LN24@AddTrack
$LN24@AddTrack:
	DB	110					; 0000006eH
	DB	101					; 00000065H
	DB	119					; 00000077H
	DB	116					; 00000074H
	DB	114					; 00000072H
	DB	97					; 00000061H
	DB	99					; 00000063H
	DB	107					; 0000006bH
	DB	0
$LN23@AddTrack:
	DB	116					; 00000074H
	DB	97					; 00000061H
	DB	98					; 00000062H
	DB	108					; 0000006cH
	DB	101					; 00000065H
	DB	116					; 00000074H
	DB	114					; 00000072H
	DB	97					; 00000061H
	DB	99					; 00000063H
	DB	107					; 0000006bH
	DB	0
_AddTrack ENDP
_TEXT	ENDS
PUBLIC	_DeleteTrack
; Function compile flags: /Odtp /RTCsu /ZI
;	COMDAT _DeleteTrack
_TEXT	SEGMENT
_tempindex$ = -32					; size = 4
_nameindex$ = -20					; size = 4
_trackDeleted$ = -8					; size = 4
_deleteName$ = 8					; size = 4
_DeleteTrack PROC					; COMDAT
; Line 712
	push	ebp
	mov	ebp, esp
	sub	esp, 228				; 000000e4H
	push	ebx
	push	esi
	push	edi
	lea	edi, DWORD PTR [ebp-228]
	mov	ecx, 57					; 00000039H
	mov	eax, -858993460				; ccccccccH
	rep stosd
; Line 713
	mov	DWORD PTR _trackDeleted$[ebp], 0
; Line 718
	mov	DWORD PTR _nameindex$[ebp], 0
	jmp	SHORT $LN8@DeleteTrac
$LN7@DeleteTrac:
	mov	eax, DWORD PTR _nameindex$[ebp]
	add	eax, 1
	mov	DWORD PTR _nameindex$[ebp], eax
$LN8@DeleteTrac:
	cmp	DWORD PTR _trackDeleted$[ebp], 0
	jne	$LN6@DeleteTrac
	mov	eax, DWORD PTR _nameindex$[ebp]
	cmp	eax, DWORD PTR _numberOfTracks
	jge	$LN6@DeleteTrac
; Line 720
	push	16					; 00000010H
	mov	eax, DWORD PTR _deleteName$[ebp]
	push	eax
	mov	ecx, DWORD PTR _nameindex$[ebp]
	imul	ecx, 72					; 00000048H
	add	ecx, OFFSET _trackTable
	push	ecx
	call	_strncmp
	add	esp, 12					; 0000000cH
	test	eax, eax
	jne	$LN5@DeleteTrac
; Line 721
	mov	eax, DWORD PTR _nameindex$[ebp]
	imul	eax, 72					; 00000048H
	cmp	DWORD PTR _trackTable[eax+20], 0
	je	SHORT $LN5@DeleteTrac
; Line 723
	mov	eax, DWORD PTR _nameindex$[ebp]
	cmp	eax, DWORD PTR _numberOfTracks
	je	SHORT $LN3@DeleteTrac
; Line 726
	mov	eax, DWORD PTR _nameindex$[ebp]
	mov	DWORD PTR _tempindex$[ebp], eax
$LN2@DeleteTrac:
; Line 727
	mov	eax, DWORD PTR _tempindex$[ebp]
	cmp	eax, DWORD PTR _numberOfTracks
	jge	SHORT $LN1@DeleteTrac
; Line 728
	mov	esi, DWORD PTR _tempindex$[ebp]
	add	esi, 1
	imul	esi, 72					; 00000048H
	add	esi, OFFSET _trackTable
	mov	edi, DWORD PTR _tempindex$[ebp]
	imul	edi, 72					; 00000048H
	add	edi, OFFSET _trackTable
	mov	ecx, 18					; 00000012H
	rep movsd
; Line 729
	mov	eax, DWORD PTR _tempindex$[ebp]
	add	eax, 1
	mov	DWORD PTR _tempindex$[ebp], eax
; Line 730
	jmp	SHORT $LN2@DeleteTrac
$LN1@DeleteTrac:
; Line 731
	push	72					; 00000048H
	push	0
	mov	eax, DWORD PTR _tempindex$[ebp]
	imul	eax, 72					; 00000048H
	add	eax, OFFSET _trackTable
	push	eax
	call	_memset
	add	esp, 12					; 0000000cH
$LN3@DeleteTrac:
; Line 734
	mov	DWORD PTR _trackDeleted$[ebp], 1
; Line 735
	mov	eax, DWORD PTR _numberOfTracks
	sub	eax, 1
	mov	DWORD PTR _numberOfTracks, eax
$LN5@DeleteTrac:
; Line 738
	jmp	$LN7@DeleteTrac
$LN6@DeleteTrac:
; Line 739
	mov	eax, DWORD PTR _trackDeleted$[ebp]
; Line 740
	pop	edi
	pop	esi
	pop	ebx
	add	esp, 228				; 000000e4H
	cmp	ebp, esp
	call	__RTC_CheckEsp
	mov	esp, ebp
	pop	ebp
	ret	0
_DeleteTrack ENDP
_TEXT	ENDS
PUBLIC	__real@40cf400000000000
PUBLIC	__real@404ca5dc1a5d2372
PUBLIC	__real@40fb6f7000000000
PUBLIC	__real@0000000000000000
PUBLIC	_CurrentTrackInRange
EXTRN	_sqrt:PROC
EXTRN	_cos:PROC
EXTRN	_GetValue:PROC
EXTRN	_trackData:BYTE
;	COMDAT __real@40cf400000000000
CONST	SEGMENT
__real@40cf400000000000 DQ 040cf400000000000r	; 16000
CONST	ENDS
;	COMDAT __real@404ca5dc1a5d2372
CONST	SEGMENT
__real@404ca5dc1a5d2372 DQ 0404ca5dc1a5d2372r	; 57.2958
CONST	ENDS
;	COMDAT __real@40fb6f7000000000
CONST	SEGMENT
__real@40fb6f7000000000 DQ 040fb6f7000000000r	; 112375
CONST	ENDS
;	COMDAT __real@0000000000000000
CONST	SEGMENT
__real@0000000000000000 DQ 00000000000000000r	; 0
; Function compile flags: /Odtp /RTCsu /ZI
CONST	ENDS
;	COMDAT _CurrentTrackInRange
_TEXT	SEGMENT
tv169 = -272						; size = 8
$T119811 = -260						; size = 8
$T119812 = -244						; size = 8
_distance$ = -36					; size = 8
_fdeltalon$ = -20					; size = 4
_fdeltalat$ = -8					; size = 4
_CurrentTrackInRange PROC				; COMDAT
; Line 746
	push	ebp
	mov	ebp, esp
	sub	esp, 272				; 00000110H
	push	ebx
	push	esi
	push	edi
	lea	edi, DWORD PTR [ebp-272]
	mov	ecx, 68					; 00000044H
	mov	eax, -858993460				; ccccccccH
	rep stosd
; Line 751
	fldz
	fld	QWORD PTR _trackData+16
	fucompp
	fnstsw	ax
	test	ah, 68					; 00000044H
	jp	SHORT $LN3@CurrentTra
	fldz
	fld	QWORD PTR _trackData+24
	fucompp
	fnstsw	ax
	test	ah, 68					; 00000044H
	jp	SHORT $LN3@CurrentTra
; Line 752
	mov	eax, 1
	jmp	$LN1@CurrentTra
$LN3@CurrentTra:
; Line 755
	push	12					; 0000000cH
	call	_GetValue
	add	esp, 4
	mov	DWORD PTR $T119811[ebp], eax
	mov	DWORD PTR $T119811[ebp+4], edx
	fld	QWORD PTR $T119811[ebp]
	fsub	QWORD PTR _trackData+16
	fmul	QWORD PTR __real@40fb6f7000000000
	fstp	DWORD PTR _fdeltalat$[ebp]
; Line 756
	push	13					; 0000000dH
	call	_GetValue
	add	esp, 4
	mov	DWORD PTR $T119812[ebp], eax
	mov	DWORD PTR $T119812[ebp+4], edx
	fld	QWORD PTR $T119812[ebp]
	fsub	QWORD PTR _trackData+24
	fld	QWORD PTR _trackData+16
	fdiv	QWORD PTR __real@404ca5dc1a5d2372
	sub	esp, 8
	fstp	QWORD PTR [esp]
	fstp	QWORD PTR tv169[ebp]
	call	_cos
	add	esp, 8
	fmul	QWORD PTR __real@40fb6f7000000000
	fmul	QWORD PTR tv169[ebp]
	fstp	DWORD PTR _fdeltalon$[ebp]
; Line 759
	fld	DWORD PTR _fdeltalat$[ebp]
	fmul	DWORD PTR _fdeltalat$[ebp]
	fld	DWORD PTR _fdeltalon$[ebp]
	fmul	DWORD PTR _fdeltalon$[ebp]
	faddp	ST(1), ST(0)
	sub	esp, 8
	fstp	QWORD PTR [esp]
	call	_sqrt
	add	esp, 8
	fstp	QWORD PTR _distance$[ebp]
; Line 761
	fld	QWORD PTR __real@40cf400000000000
	fcomp	QWORD PTR _distance$[ebp]
	fnstsw	ax
	test	ah, 65					; 00000041H
	jne	SHORT $LN2@CurrentTra
; Line 762
	mov	eax, 1
	jmp	SHORT $LN1@CurrentTra
; Line 763
	jmp	SHORT $LN1@CurrentTra
$LN2@CurrentTra:
; Line 764
	xor	eax, eax
$LN1@CurrentTra:
; Line 766
	pop	edi
	pop	esi
	pop	ebx
	add	esp, 272				; 00000110H
	cmp	ebp, esp
	call	__RTC_CheckEsp
	mov	esp, ebp
	pop	ebp
	ret	0
_CurrentTrackInRange ENDP
_TEXT	ENDS
PUBLIC	__real@3fe921fb5449fbb2
PUBLIC	__real@408f400000000000
PUBLIC	__$ArrayPad$
PUBLIC	_GetClosestTracks
;	COMDAT __real@3fe921fb5449fbb2
CONST	SEGMENT
__real@3fe921fb5449fbb2 DQ 03fe921fb5449fbb2r	; 0.785398
CONST	ENDS
;	COMDAT __real@408f400000000000
CONST	SEGMENT
__real@408f400000000000 DQ 0408f400000000000r	; 1000
; Function compile flags: /Odtp /RTCsu /ZI
CONST	ENDS
;	COMDAT _GetClosestTracks
_TEXT	SEGMENT
tv322 = -7140						; size = 8
tv320 = -7132						; size = 8
tv142 = -7128						; size = 4
tv88 = -7128						; size = 4
tv77 = -7128						; size = 4
$T119826 = -7120					; size = 8
$T119829 = -7104					; size = 8
_distTable$ = -6896					; size = 6800
_moveindex$ = -88					; size = 4
_distindex$ = -76					; size = 4
_noTrackSF$ = -64					; size = 4
_distance$ = -52					; size = 8
_fdeltalon$ = -36					; size = 4
_fdeltalat$ = -24					; size = 4
_trackIdx$ = -12					; size = 4
__$ArrayPad$ = -4					; size = 4
_distkm$ = 8						; size = 4
_GetClosestTracks PROC					; COMDAT
; Line 785
	push	ebp
	mov	ebp, esp
	mov	eax, 7140				; 00001be4H
	call	__chkstk
	push	ebx
	push	esi
	push	edi
	lea	edi, DWORD PTR [ebp-7140]
	mov	ecx, 1785				; 000006f9H
	mov	eax, -858993460				; ccccccccH
	rep stosd
	mov	eax, DWORD PTR ___security_cookie
	xor	eax, ebp
	mov	DWORD PTR __$ArrayPad$[ebp], eax
; Line 794
	push	6800					; 00001a90H
	push	0
	lea	eax, DWORD PTR _distTable$[ebp]
	push	eax
	call	_memset
	add	esp, 12					; 0000000cH
; Line 795
	mov	DWORD PTR _numberOfShortListTracks, 0
; Line 798
	mov	DWORD PTR _trackIdx$[ebp], 0
	jmp	SHORT $LN24@GetClosest
$LN23@GetClosest:
	mov	eax, DWORD PTR _trackIdx$[ebp]
	add	eax, 1
	mov	DWORD PTR _trackIdx$[ebp], eax
$LN24@GetClosest:
	mov	eax, DWORD PTR _trackIdx$[ebp]
	cmp	eax, DWORD PTR _numberOfTracks
	jge	$LN22@GetClosest
; Line 799
	mov	eax, DWORD PTR _trackIdx$[ebp]
	imul	eax, 72					; 00000048H
	fldz
	fld	QWORD PTR _trackTable[eax+24]
	fucompp
	fnstsw	ax
	test	ah, 68					; 00000044H
	jp	SHORT $LN27@GetClosest
	mov	ecx, DWORD PTR _trackIdx$[ebp]
	imul	ecx, 72					; 00000048H
	fldz
	fld	QWORD PTR _trackTable[ecx+32]
	fucompp
	fnstsw	ax
	test	ah, 68					; 00000044H
	jp	SHORT $LN27@GetClosest
	mov	DWORD PTR tv77[ebp], 1
	jmp	SHORT $LN28@GetClosest
$LN27@GetClosest:
	mov	DWORD PTR tv77[ebp], 0
$LN28@GetClosest:
	mov	edx, DWORD PTR tv77[ebp]
	mov	DWORD PTR _noTrackSF$[ebp], edx
; Line 801
	push	13					; 0000000dH
	call	_GetValue
	add	esp, 4
	mov	DWORD PTR $T119826[ebp], eax
	mov	DWORD PTR $T119826[ebp+4], edx
	mov	eax, DWORD PTR _trackIdx$[ebp]
	imul	eax, 72					; 00000048H
	fld	QWORD PTR $T119826[ebp]
	fsub	QWORD PTR _trackTable[eax+32]
	fstp	DWORD PTR _fdeltalon$[ebp]
; Line 802
	fld	DWORD PTR _fdeltalon$[ebp]
	fcomp	QWORD PTR __real@0000000000000000
	fnstsw	ax
	test	ah, 1
	jne	SHORT $LN29@GetClosest
	fld	DWORD PTR _fdeltalon$[ebp]
	fstp	DWORD PTR tv88[ebp]
	jmp	SHORT $LN30@GetClosest
$LN29@GetClosest:
	fld	DWORD PTR _fdeltalon$[ebp]
	fchs
	fstp	DWORD PTR tv88[ebp]
$LN30@GetClosest:
	fld	DWORD PTR tv88[ebp]
	fstp	DWORD PTR _fdeltalon$[ebp]
; Line 803
	cmp	DWORD PTR _noTrackSF$[ebp], 0
	jne	SHORT $LN20@GetClosest
	fld	DWORD PTR _fdeltalon$[ebp]
	fild	DWORD PTR _distkm$[ebp]
	fmul	QWORD PTR __real@408f400000000000
	sub	esp, 8
	fld	QWORD PTR __real@3fe921fb5449fbb2
	fstp	QWORD PTR [esp]
	fxch	ST(1)
	fstp	QWORD PTR tv320[ebp]
	fstp	QWORD PTR tv322[ebp]
	call	_cos
	add	esp, 8
	fmul	QWORD PTR __real@40fb6f7000000000
	fdivr	QWORD PTR tv322[ebp]
	fcomp	QWORD PTR tv320[ebp]
	fnstsw	ax
	test	ah, 65					; 00000041H
	jne	$LN4@GetClosest
$LN20@GetClosest:
; Line 804
	push	12					; 0000000cH
	call	_GetValue
	add	esp, 4
	mov	DWORD PTR $T119829[ebp], eax
	mov	DWORD PTR $T119829[ebp+4], edx
	mov	eax, DWORD PTR _trackIdx$[ebp]
	imul	eax, 72					; 00000048H
	fld	QWORD PTR $T119829[ebp]
	fsub	QWORD PTR _trackTable[eax+24]
	fstp	DWORD PTR _fdeltalat$[ebp]
; Line 805
	fld	DWORD PTR _fdeltalat$[ebp]
	fcomp	QWORD PTR __real@0000000000000000
	fnstsw	ax
	test	ah, 1
	jne	SHORT $LN31@GetClosest
	fld	DWORD PTR _fdeltalat$[ebp]
	fstp	DWORD PTR tv142[ebp]
	jmp	SHORT $LN32@GetClosest
$LN31@GetClosest:
	fld	DWORD PTR _fdeltalat$[ebp]
	fchs
	fstp	DWORD PTR tv142[ebp]
$LN32@GetClosest:
	fld	DWORD PTR tv142[ebp]
	fstp	DWORD PTR _fdeltalat$[ebp]
; Line 806
	cmp	DWORD PTR _noTrackSF$[ebp], 0
	jne	SHORT $LN18@GetClosest
	fld	DWORD PTR _fdeltalat$[ebp]
	fild	DWORD PTR _distkm$[ebp]
	fmul	QWORD PTR __real@408f400000000000
	fdiv	QWORD PTR __real@40fb6f7000000000
	fcompp
	fnstsw	ax
	test	ah, 65					; 00000041H
	jne	$LN4@GetClosest
$LN18@GetClosest:
; Line 808
	cmp	DWORD PTR _noTrackSF$[ebp], 0
	je	SHORT $LN17@GetClosest
; Line 809
	fldz
	fstp	QWORD PTR _distance$[ebp]
; Line 811
	jmp	SHORT $LN16@GetClosest
$LN17@GetClosest:
; Line 813
	fld	DWORD PTR _fdeltalat$[ebp]
	fmul	QWORD PTR __real@40fb6f7000000000
	fstp	DWORD PTR _fdeltalat$[ebp]
; Line 814
	mov	eax, DWORD PTR _trackIdx$[ebp]
	imul	eax, 72					; 00000048H
	fld	QWORD PTR _trackTable[eax+24]
	fdiv	QWORD PTR __real@404ca5dc1a5d2372
	sub	esp, 8
	fstp	QWORD PTR [esp]
	call	_cos
	add	esp, 8
	fmul	QWORD PTR __real@40fb6f7000000000
	fmul	DWORD PTR _fdeltalon$[ebp]
	fstp	DWORD PTR _fdeltalon$[ebp]
; Line 816
	fld	DWORD PTR _fdeltalat$[ebp]
	fmul	DWORD PTR _fdeltalat$[ebp]
	fld	DWORD PTR _fdeltalon$[ebp]
	fmul	DWORD PTR _fdeltalon$[ebp]
	faddp	ST(1), ST(0)
	sub	esp, 8
	fstp	QWORD PTR [esp]
	call	_sqrt
	add	esp, 8
	fstp	QWORD PTR _distance$[ebp]
$LN16@GetClosest:
; Line 820
	fild	DWORD PTR _distkm$[ebp]
	fmul	QWORD PTR __real@408f400000000000
	fcomp	QWORD PTR _distance$[ebp]
	fnstsw	ax
	test	ah, 65					; 00000041H
	jne	$LN4@GetClosest
; Line 821
	cmp	DWORD PTR _numberOfShortListTracks, 0
	jne	SHORT $LN14@GetClosest
; Line 822
	fld	QWORD PTR _distance$[ebp]
	fstp	QWORD PTR _distTable$[ebp+8]
; Line 823
	mov	eax, DWORD PTR _trackIdx$[ebp]
	mov	DWORD PTR _distTable$[ebp], eax
; Line 824
	mov	DWORD PTR _numberOfShortListTracks, 1
; Line 826
	jmp	$LN4@GetClosest
$LN14@GetClosest:
; Line 827
	mov	DWORD PTR _distindex$[ebp], 0
	jmp	SHORT $LN12@GetClosest
$LN11@GetClosest:
	mov	eax, DWORD PTR _distindex$[ebp]
	add	eax, 1
	mov	DWORD PTR _distindex$[ebp], eax
$LN12@GetClosest:
	mov	eax, DWORD PTR _distindex$[ebp]
	cmp	eax, DWORD PTR _numberOfShortListTracks
	jge	SHORT $LN10@GetClosest
; Line 828
	mov	eax, DWORD PTR _distindex$[ebp]
	shl	eax, 4
	fld	QWORD PTR _distTable$[ebp+eax+8]
	fcomp	QWORD PTR _distance$[ebp]
	fnstsw	ax
	test	ah, 65					; 00000041H
	jne	SHORT $LN9@GetClosest
; Line 830
	mov	DWORD PTR _moveindex$[ebp], 424		; 000001a8H
	jmp	SHORT $LN8@GetClosest
$LN7@GetClosest:
	mov	eax, DWORD PTR _moveindex$[ebp]
	sub	eax, 1
	mov	DWORD PTR _moveindex$[ebp], eax
$LN8@GetClosest:
	mov	eax, DWORD PTR _moveindex$[ebp]
	cmp	eax, DWORD PTR _distindex$[ebp]
	jle	SHORT $LN6@GetClosest
; Line 831
	mov	eax, DWORD PTR _moveindex$[ebp]
	sub	eax, 1
	shl	eax, 4
	lea	ecx, DWORD PTR _distTable$[ebp+eax]
	mov	edx, DWORD PTR _moveindex$[ebp]
	shl	edx, 4
	lea	eax, DWORD PTR _distTable$[ebp+edx]
	mov	edx, DWORD PTR [ecx]
	mov	DWORD PTR [eax], edx
	mov	edx, DWORD PTR [ecx+4]
	mov	DWORD PTR [eax+4], edx
	mov	edx, DWORD PTR [ecx+8]
	mov	DWORD PTR [eax+8], edx
	mov	ecx, DWORD PTR [ecx+12]
	mov	DWORD PTR [eax+12], ecx
	jmp	SHORT $LN7@GetClosest
$LN6@GetClosest:
; Line 833
	jmp	SHORT $LN10@GetClosest
$LN9@GetClosest:
; Line 835
	jmp	SHORT $LN11@GetClosest
$LN10@GetClosest:
; Line 837
	mov	eax, DWORD PTR _numberOfShortListTracks
	add	eax, 1
	mov	DWORD PTR _numberOfShortListTracks, eax
	cmp	DWORD PTR _numberOfShortListTracks, 425	; 000001a9H
	jle	SHORT $LN5@GetClosest
; Line 838
	mov	DWORD PTR _numberOfShortListTracks, 425	; 000001a9H
; Line 839
	jmp	SHORT $LN4@GetClosest
$LN5@GetClosest:
; Line 841
	mov	eax, DWORD PTR _distindex$[ebp]
	shl	eax, 4
	fld	QWORD PTR _distance$[ebp]
	fstp	QWORD PTR _distTable$[ebp+eax+8]
; Line 842
	mov	eax, DWORD PTR _distindex$[ebp]
	shl	eax, 4
	mov	ecx, DWORD PTR _trackIdx$[ebp]
	mov	DWORD PTR _distTable$[ebp+eax], ecx
$LN4@GetClosest:
; Line 848
	jmp	$LN23@GetClosest
$LN22@GetClosest:
; Line 851
	mov	DWORD PTR _distindex$[ebp], 0
	jmp	SHORT $LN3@GetClosest
$LN2@GetClosest:
	mov	eax, DWORD PTR _distindex$[ebp]
	add	eax, 1
	mov	DWORD PTR _distindex$[ebp], eax
$LN3@GetClosest:
	cmp	DWORD PTR _distindex$[ebp], 425		; 000001a9H
	jge	SHORT $LN1@GetClosest
; Line 852
	mov	eax, DWORD PTR _distindex$[ebp]
	shl	eax, 4
	mov	ecx, DWORD PTR _distindex$[ebp]
	mov	edx, DWORD PTR _distTable$[ebp+eax]
	mov	DWORD PTR _trackShortList[ecx*4], edx
	jmp	SHORT $LN2@GetClosest
$LN1@GetClosest:
; Line 854
	push	edx
	mov	ecx, ebp
	push	eax
	lea	edx, DWORD PTR $LN35@GetClosest
	call	@_RTC_CheckStackVars@8
	pop	eax
	pop	edx
	pop	edi
	pop	esi
	pop	ebx
	mov	ecx, DWORD PTR __$ArrayPad$[ebp]
	xor	ecx, ebp
	call	@__security_check_cookie@4
	add	esp, 7140				; 00001be4H
	cmp	ebp, esp
	call	__RTC_CheckEsp
	mov	esp, ebp
	pop	ebp
	ret	0
	npad	3
$LN35@GetClosest:
	DD	1
	DD	$LN34@GetClosest
$LN34@GetClosest:
	DD	-6896					; ffffe510H
	DD	6800					; 00001a90H
	DD	$LN33@GetClosest
$LN33@GetClosest:
	DB	100					; 00000064H
	DB	105					; 00000069H
	DB	115					; 00000073H
	DB	116					; 00000074H
	DB	84					; 00000054H
	DB	97					; 00000061H
	DB	98					; 00000062H
	DB	108					; 0000006cH
	DB	101					; 00000065H
	DB	0
_GetClosestTracks ENDP
_TEXT	ENDS
PUBLIC	__real@3f40624dd2f1a9fc
PUBLIC	__real@3ff0000000000000
PUBLIC	__$ArrayPad$
PUBLIC	_UpdateSFLines
EXTRN	__imp__FindClose@4:PROC
EXTRN	__imp__FindNextFileA@8:PROC
EXTRN	__imp__DeleteFileA@4:PROC
EXTRN	__imp__CloseHandle@4:PROC
EXTRN	_fabs:PROC
EXTRN	__imp__ReadFile@20:PROC
EXTRN	__imp__OpenFile@12:PROC
EXTRN	_strcmp:PROC
EXTRN	__imp__FindFirstFileA@8:PROC
EXTRN	__imp__SetCurrentDirectoryA@4:PROC
;	COMDAT __real@3f40624dd2f1a9fc
CONST	SEGMENT
__real@3f40624dd2f1a9fc DQ 03f40624dd2f1a9fcr	; 0.0005
CONST	ENDS
;	COMDAT __real@3ff0000000000000
CONST	SEGMENT
__real@3ff0000000000000 DQ 03ff0000000000000r	; 1
; Function compile flags: /Odtp /RTCsu /ZI
CONST	ENDS
;	COMDAT _UpdateSFLines
_TEXT	SEGMENT
_trackData$119736 = -6016				; size = 5280
_bytesRead$119735 = -728				; size = 4
_sfDifferent$119734 = -716				; size = 4
_longDiff$119733 = -704					; size = 4
_latDiff$119732 = -692					; size = 4
_headDiff$119731 = -680					; size = 4
_fStruct$119728 = -668					; size = 136
_hFile$119727 = -524					; size = 4
_tempName$119722 = -512					; size = 150
_trackIndex$119721 = -352				; size = 4
_FindFileData$ = -340					; size = 320
_fh$ = -12						; size = 4
__$ArrayPad$ = -4					; size = 4
_UpdateSFLines PROC					; COMDAT
; Line 864
	push	ebp
	mov	ebp, esp
	mov	eax, 6212				; 00001844H
	call	__chkstk
	push	ebx
	push	esi
	push	edi
	lea	edi, DWORD PTR [ebp-6212]
	mov	ecx, 1553				; 00000611H
	mov	eax, -858993460				; ccccccccH
	rep stosd
	mov	eax, DWORD PTR ___security_cookie
	xor	eax, ebp
	mov	DWORD PTR __$ArrayPad$[ebp], eax
; Line 868
	mov	esi, esp
	push	OFFSET _TRACK_PATH
	call	DWORD PTR __imp__SetCurrentDirectoryA@4
	cmp	esi, esp
	call	__RTC_CheckEsp
	test	eax, eax
	je	$LN16@UpdateSFLi
; Line 870
	mov	esi, esp
	lea	eax, DWORD PTR _FindFileData$[ebp]
	push	eax
	push	OFFSET $SG119717
	call	DWORD PTR __imp__FindFirstFileA@8
	cmp	esi, esp
	call	__RTC_CheckEsp
	mov	DWORD PTR _fh$[ebp], eax
	cmp	DWORD PTR _fh$[ebp], -1
	je	$LN12@UpdateSFLi
$LN14@UpdateSFLi:
; Line 878
	lea	eax, DWORD PTR _FindFileData$[ebp+44]
	push	eax
	lea	ecx, DWORD PTR _tempName$119722[ebp]
	push	ecx
	call	_strcpy
	add	esp, 8
; Line 879
	lea	eax, DWORD PTR _tempName$119722[ebp]
	push	eax
	call	_strlen
	add	esp, 4
	mov	BYTE PTR _tempName$119722[ebp+eax-4], 0
; Line 882
	mov	DWORD PTR _trackIndex$119721[ebp], 0
	jmp	SHORT $LN11@UpdateSFLi
$LN10@UpdateSFLi:
	mov	eax, DWORD PTR _trackIndex$119721[ebp]
	add	eax, 1
	mov	DWORD PTR _trackIndex$119721[ebp], eax
$LN11@UpdateSFLi:
	cmp	DWORD PTR _trackIndex$119721[ebp], 375	; 00000177H
	jge	$LN9@UpdateSFLi
; Line 884
	mov	eax, DWORD PTR _trackIndex$119721[ebp]
	imul	eax, 72					; 00000048H
	add	eax, OFFSET _romTrackTable
	push	eax
	lea	ecx, DWORD PTR _tempName$119722[ebp]
	push	ecx
	call	_strcmp
	add	esp, 8
	test	eax, eax
	jne	$LN8@UpdateSFLi
; Line 889
	mov	esi, esp
	push	0
	lea	eax, DWORD PTR _fStruct$119728[ebp]
	push	eax
	lea	ecx, DWORD PTR _FindFileData$[ebp+44]
	push	ecx
	call	DWORD PTR __imp__OpenFile@12
	cmp	esi, esp
	call	__RTC_CheckEsp
	mov	DWORD PTR _hFile$119727[ebp], eax
	cmp	DWORD PTR _hFile$119727[ebp], -1
	je	$LN1@UpdateSFLi
; Line 897
	mov	esi, esp
	push	0
	lea	eax, DWORD PTR _bytesRead$119735[ebp]
	push	eax
	push	5280					; 000014a0H
	lea	ecx, DWORD PTR _trackData$119736[ebp]
	push	ecx
	mov	edx, DWORD PTR _hFile$119727[ebp]
	push	edx
	call	DWORD PTR __imp__ReadFile@20
	cmp	esi, esp
	call	__RTC_CheckEsp
	cmp	eax, 1
	jne	$LN6@UpdateSFLi
; Line 902
	mov	eax, DWORD PTR _trackIndex$119721[ebp]
	imul	eax, 72					; 00000048H
	fld	DWORD PTR _romTrackTable[eax+40]
	fsub	DWORD PTR _trackData$119736[ebp+36]
	sub	esp, 8
	fstp	QWORD PTR [esp]
	call	_fabs
	add	esp, 8
	fstp	DWORD PTR _headDiff$119731[ebp]
; Line 903
	mov	eax, DWORD PTR _trackIndex$119721[ebp]
	imul	eax, 72					; 00000048H
	fld	QWORD PTR _romTrackTable[eax+24]
	fsub	QWORD PTR _trackData$119736[ebp+16]
	sub	esp, 8
	fstp	QWORD PTR [esp]
	call	_fabs
	add	esp, 8
	fstp	DWORD PTR _latDiff$119732[ebp]
; Line 904
	mov	eax, DWORD PTR _trackIndex$119721[ebp]
	imul	eax, 72					; 00000048H
	fld	QWORD PTR _romTrackTable[eax+32]
	fsub	QWORD PTR _trackData$119736[ebp+24]
	sub	esp, 8
	fstp	QWORD PTR [esp]
	call	_fabs
	add	esp, 8
	fstp	DWORD PTR _longDiff$119733[ebp]
; Line 908
	fld	DWORD PTR _headDiff$119731[ebp]
	fcomp	QWORD PTR __real@3ff0000000000000
	fnstsw	ax
	test	ah, 65					; 00000041H
	je	SHORT $LN4@UpdateSFLi
	fld	DWORD PTR _latDiff$119732[ebp]
	fcomp	QWORD PTR __real@3f40624dd2f1a9fc
	fnstsw	ax
	test	ah, 65					; 00000041H
	je	SHORT $LN4@UpdateSFLi
	fld	DWORD PTR _longDiff$119733[ebp]
	fcomp	QWORD PTR __real@3f40624dd2f1a9fc
	fnstsw	ax
	test	ah, 65					; 00000041H
	jne	SHORT $LN5@UpdateSFLi
$LN4@UpdateSFLi:
; Line 910
	mov	DWORD PTR _sfDifferent$119734[ebp], 1
	jmp	SHORT $LN3@UpdateSFLi
$LN5@UpdateSFLi:
; Line 911
	mov	DWORD PTR _sfDifferent$119734[ebp], 0
$LN3@UpdateSFLi:
; Line 913
	jmp	SHORT $LN2@UpdateSFLi
$LN6@UpdateSFLi:
	mov	DWORD PTR _sfDifferent$119734[ebp], 0
$LN2@UpdateSFLi:
; Line 915
	mov	esi, esp
	mov	eax, DWORD PTR _hFile$119727[ebp]
	push	eax
	call	DWORD PTR __imp__CloseHandle@4
	cmp	esi, esp
	call	__RTC_CheckEsp
; Line 918
	cmp	DWORD PTR _sfDifferent$119734[ebp], 0
	je	SHORT $LN1@UpdateSFLi
; Line 919
	mov	esi, esp
	lea	eax, DWORD PTR _FindFileData$[ebp+44]
	push	eax
	call	DWORD PTR __imp__DeleteFileA@4
	cmp	esi, esp
	call	__RTC_CheckEsp
$LN1@UpdateSFLi:
; Line 921
	jmp	SHORT $LN9@UpdateSFLi
$LN8@UpdateSFLi:
; Line 923
	jmp	$LN10@UpdateSFLi
$LN9@UpdateSFLi:
; Line 925
	mov	esi, esp
	lea	eax, DWORD PTR _FindFileData$[ebp]
	push	eax
	mov	ecx, DWORD PTR _fh$[ebp]
	push	ecx
	call	DWORD PTR __imp__FindNextFileA@8
	cmp	esi, esp
	call	__RTC_CheckEsp
	test	eax, eax
	jne	$LN14@UpdateSFLi
$LN12@UpdateSFLi:
; Line 927
	mov	esi, esp
	mov	eax, DWORD PTR _fh$[ebp]
	push	eax
	call	DWORD PTR __imp__FindClose@4
	cmp	esi, esp
	call	__RTC_CheckEsp
$LN16@UpdateSFLi:
; Line 929
	mov	esi, esp
	push	OFFSET $SG119747
	call	DWORD PTR __imp__SetCurrentDirectoryA@4
	cmp	esi, esp
	call	__RTC_CheckEsp
; Line 930
	push	edx
	mov	ecx, ebp
	push	eax
	lea	edx, DWORD PTR $LN25@UpdateSFLi
	call	@_RTC_CheckStackVars@8
	pop	eax
	pop	edx
	pop	edi
	pop	esi
	pop	ebx
	mov	ecx, DWORD PTR __$ArrayPad$[ebp]
	xor	ecx, ebp
	call	@__security_check_cookie@4
	add	esp, 6212				; 00001844H
	cmp	ebp, esp
	call	__RTC_CheckEsp
	mov	esp, ebp
	pop	ebp
	ret	0
	npad	2
$LN25@UpdateSFLi:
	DD	5
	DD	$LN24@UpdateSFLi
$LN24@UpdateSFLi:
	DD	-340					; fffffeacH
	DD	320					; 00000140H
	DD	$LN19@UpdateSFLi
	DD	-512					; fffffe00H
	DD	150					; 00000096H
	DD	$LN20@UpdateSFLi
	DD	-668					; fffffd64H
	DD	136					; 00000088H
	DD	$LN21@UpdateSFLi
	DD	-728					; fffffd28H
	DD	4
	DD	$LN22@UpdateSFLi
	DD	-6016					; ffffe880H
	DD	5280					; 000014a0H
	DD	$LN23@UpdateSFLi
$LN23@UpdateSFLi:
	DB	116					; 00000074H
	DB	114					; 00000072H
	DB	97					; 00000061H
	DB	99					; 00000063H
	DB	107					; 0000006bH
	DB	68					; 00000044H
	DB	97					; 00000061H
	DB	116					; 00000074H
	DB	97					; 00000061H
	DB	0
$LN22@UpdateSFLi:
	DB	98					; 00000062H
	DB	121					; 00000079H
	DB	116					; 00000074H
	DB	101					; 00000065H
	DB	115					; 00000073H
	DB	82					; 00000052H
	DB	101					; 00000065H
	DB	97					; 00000061H
	DB	100					; 00000064H
	DB	0
$LN21@UpdateSFLi:
	DB	102					; 00000066H
	DB	83					; 00000053H
	DB	116					; 00000074H
	DB	114					; 00000072H
	DB	117					; 00000075H
	DB	99					; 00000063H
	DB	116					; 00000074H
	DB	0
$LN20@UpdateSFLi:
	DB	116					; 00000074H
	DB	101					; 00000065H
	DB	109					; 0000006dH
	DB	112					; 00000070H
	DB	78					; 0000004eH
	DB	97					; 00000061H
	DB	109					; 0000006dH
	DB	101					; 00000065H
	DB	0
$LN19@UpdateSFLi:
	DB	70					; 00000046H
	DB	105					; 00000069H
	DB	110					; 0000006eH
	DB	100					; 00000064H
	DB	70					; 00000046H
	DB	105					; 00000069H
	DB	108					; 0000006cH
	DB	101					; 00000065H
	DB	68					; 00000044H
	DB	97					; 00000061H
	DB	116					; 00000074H
	DB	97					; 00000061H
	DB	0
_UpdateSFLines ENDP
_TEXT	ENDS
END
