; Listing generated by Microsoft (R) Optimizing Compiler Version 16.00.40219.01 

	TITLE	C:\DUII\DUII\Graphics\TraqmateLogo.c
	.686P
	.XMM
	include listing.inc
	.model	flat

INCLUDELIB LIBCMT
INCLUDELIB OLDNAMES

PUBLIC	_bmTraqmateLogo
CONST	SEGMENT
_ColorsTraqmateLogo DD 0ff0000H
	DD	0ffH
	DD	080H
	DD	00H
	DD	02040H
	DD	020c0H
	DD	020e0H
	DD	020a0H
	DD	02060H
_PalTraqmateLogo DD 09H
	DB	01H
	ORG $+3
	DD	FLAT:_ColorsTraqmateLogo
_acTraqmateLogo DB 00H
	DB	042H
	DB	022H
	DB	022H
	DB	022H
	DB	022H
	DB	022H
	DB	022H
	DB	022H
	DB	022H
	DB	022H
	DB	022H
	DB	022H
	DB	022H
	DB	022H
	DB	022H
	DB	022H
	DB	022H
	DB	022H
	DB	022H
	DB	040H
	DB	00H
	DB	00H
	DB	032H
	DB	022H
	DB	022H
	DB	022H
	DB	022H
	DB	022H
	DB	022H
	DB	022H
	DB	083H
	DB	00H
	DB	00H
	DB	00H
	DB	00H
	DB	042H
	DB	022H
	DB	022H
	DB	022H
	DB	022H
	DB	022H
	DB	043H
	DB	00H
	DB	00H
	DB	032H
	DB	022H
	DB	022H
	DB	022H
	DB	022H
	DB	022H
	DB	022H
	DB	022H
	DB	022H
	DB	022H
	DB	022H
	DB	022H
	DB	040H
	DB	00H
	DB	00H
	DB	032H
	DB	022H
	DB	022H
	DB	022H
	DB	022H
	DB	022H
	DB	022H
	DB	022H
	DB	024H
	DB	00H
	DB	00H
	DB	022H
	DB	022H
	DB	022H
	DB	022H
	DB	022H
	DB	022H
	DB	022H
	DB	022H
	DB	022H
	DB	022H
	DB	00H
	DB	00H
	DB	038H
	DB	022H
	DB	022H
	DB	022H
	DB	022H
	DB	022H
	DB	022H
	DB	040H
	DB	00H
	DB	00H
	DB	03H
	DB	071H
	DB	011H
	DB	011H
	DB	011H
	DB	011H
	DB	011H
	DB	011H
	DB	011H
	DB	011H
	DB	011H
	DB	011H
	DB	011H
	DB	011H
	DB	011H
	DB	011H
	DB	011H
	DB	011H
	DB	011H
	DB	011H
	DB	015H
	DB	040H
	DB	00H
	DB	021H
	DB	011H
	DB	011H
	DB	011H
	DB	011H
	DB	011H
	DB	011H
	DB	011H
	DB	011H
	DB	073H
	DB	00H
	DB	00H
	DB	085H
	DB	011H
	DB	011H
	DB	011H
	DB	011H
	DB	011H
	DB	011H
	DB	016H
	DB	080H
	DB	00H
	DB	081H
	DB	011H
	DB	011H
	DB	011H
	DB	011H
	DB	011H
	DB	011H
	DB	011H
	DB	011H
	DB	011H
	DB	011H
	DB	011H
	DB	015H
	DB	040H
	DB	00H
	DB	021H
	DB	011H
	DB	011H
	DB	011H
	DB	011H
	DB	011H
	DB	011H
	DB	011H
	DB	011H
	DB	053H
	DB	03H
	DB	011H
	DB	011H
	DB	011H
	DB	011H
	DB	011H
	DB	011H
	DB	011H
	DB	011H
	DB	011H
	DB	011H
	DB	030H
	DB	045H
	DB	011H
	DB	011H
	DB	011H
	DB	011H
	DB	011H
	DB	011H
	DB	011H
	DB	015H
	DB	030H
	DB	00H
	DB	03H
	DB	061H
	DB	011H
	DB	011H
	DB	011H
	DB	011H
	DB	011H
	DB	011H
	DB	011H
	DB	011H
	DB	011H
	DB	011H
	DB	011H
	DB	011H
	DB	011H
	DB	011H
	DB	011H
	DB	011H
	DB	011H
	DB	011H
	DB	011H
	DB	013H
	DB	00H
	DB	051H
	DB	011H
	DB	011H
	DB	011H
	DB	011H
	DB	011H
	DB	011H
	DB	011H
	DB	011H
	DB	015H
	DB	030H
	DB	032H
	DB	011H
	DB	011H
	DB	011H
	DB	011H
	DB	011H
	DB	011H
	DB	011H
	DB	011H
	DB	014H
	DB	00H
	DB	021H
	DB	011H
	DB	011H
	DB	011H
	DB	011H
	DB	011H
	DB	011H
	DB	011H
	DB	011H
	DB	011H
	DB	011H
	DB	011H
	DB	011H
	DB	014H
	DB	00H
	DB	021H
	DB	011H
	DB	011H
	DB	011H
	DB	011H
	DB	011H
	DB	011H
	DB	011H
	DB	011H
	DB	016H
	DB	034H
	DB	011H
	DB	011H
	DB	011H
	DB	011H
	DB	011H
	DB	011H
	DB	011H
	DB	011H
	DB	011H
	DB	017H
	DB	032H
	DB	011H
	DB	011H
	DB	011H
	DB	011H
	DB	011H
	DB	011H
	DB	011H
	DB	011H
	DB	011H
	DB	053H
	DB	00H
	DB	03H
	DB	011H
	DB	011H
	DB	011H
	DB	011H
	DB	011H
	DB	011H
	DB	011H
	DB	011H
	DB	011H
	DB	011H
	DB	011H
	DB	011H
	DB	011H
	DB	011H
	DB	011H
	DB	011H
	DB	011H
	DB	011H
	DB	011H
	DB	011H
	DB	017H
	DB	03H
	DB	061H
	DB	011H
	DB	011H
	DB	011H
	DB	011H
	DB	011H
	DB	011H
	DB	011H
	DB	011H
	DB	011H
	DB	020H
	DB	021H
	DB	011H
	DB	011H
	DB	011H
	DB	011H
	DB	011H
	DB	011H
	DB	011H
	DB	011H
	DB	015H
	DB	030H
	DB	051H
	DB	011H
	DB	011H
	DB	011H
	DB	011H
	DB	011H
	DB	011H
	DB	011H
	DB	011H
	DB	011H
	DB	011H
	DB	011H
	DB	011H
	DB	015H
	DB	030H
	DB	061H
	DB	011H
	DB	011H
	DB	011H
	DB	011H
	DB	011H
	DB	011H
	DB	011H
	DB	011H
	DB	011H
	DB	022H
	DB	011H
	DB	011H
	DB	011H
	DB	011H
	DB	011H
	DB	011H
	DB	011H
	DB	011H
	DB	011H
	DB	012H
	DB	021H
	DB	011H
	DB	011H
	DB	011H
	DB	011H
	DB	011H
	DB	011H
	DB	011H
	DB	011H
	DB	011H
	DB	012H
	DB	00H
	DB	08H
	DB	011H
	DB	011H
	DB	011H
	DB	011H
	DB	011H
	DB	011H
	DB	011H
	DB	011H
	DB	011H
	DB	011H
	DB	011H
	DB	011H
	DB	011H
	DB	011H
	DB	011H
	DB	011H
	DB	011H
	DB	011H
	DB	011H
	DB	011H
	DB	011H
	DB	034H
	DB	011H
	DB	011H
	DB	011H
	DB	011H
	DB	011H
	DB	011H
	DB	011H
	DB	011H
	DB	011H
	DB	011H
	DB	052H
	DB	011H
	DB	011H
	DB	011H
	DB	011H
	DB	011H
	DB	011H
	DB	011H
	DB	011H
	DB	011H
	DB	011H
	DB	043H
	DB	011H
	DB	011H
	DB	011H
	DB	011H
	DB	011H
	DB	011H
	DB	011H
	DB	011H
	DB	011H
	DB	011H
	DB	011H
	DB	011H
	DB	011H
	DB	011H
	DB	033H
	DB	011H
	DB	011H
	DB	011H
	DB	011H
	DB	011H
	DB	011H
	DB	011H
	DB	011H
	DB	011H
	DB	011H
	DB	065H
	DB	011H
	DB	011H
	DB	011H
	DB	011H
	DB	011H
	DB	011H
	DB	011H
	DB	011H
	DB	011H
	DB	012H
	DB	011H
	DB	011H
	DB	011H
	DB	011H
	DB	011H
	DB	011H
	DB	011H
	DB	011H
	DB	011H
	DB	011H
	DB	015H
	DB	030H
	DB	04H
	DB	022H
	DB	022H
	DB	022H
	DB	071H
	DB	011H
	DB	011H
	DB	022H
	DB	022H
	DB	022H
	DB	025H
	DB	011H
	DB	011H
	DB	012H
	DB	022H
	DB	022H
	DB	022H
	DB	022H
	DB	022H
	DB	011H
	DB	011H
	DB	011H
	DB	033H
	DB	022H
	DB	022H
	DB	022H
	DB	022H
	DB	022H
	DB	022H
	DB	022H
	DB	071H
	DB	011H
	DB	011H
	DB	066H
	DB	011H
	DB	011H
	DB	015H
	DB	022H
	DB	022H
	DB	022H
	DB	022H
	DB	011H
	DB	011H
	DB	011H
	DB	044H
	DB	011H
	DB	011H
	DB	017H
	DB	022H
	DB	022H
	DB	026H
	DB	011H
	DB	011H
	DB	012H
	DB	022H
	DB	022H
	DB	011H
	DB	011H
	DB	011H
	DB	043H
	DB	022H
	DB	022H
	DB	022H
	DB	022H
	DB	022H
	DB	022H
	DB	022H
	DB	021H
	DB	011H
	DB	011H
	DB	012H
	DB	022H
	DB	022H
	DB	028H
	DB	061H
	DB	011H
	DB	011H
	DB	022H
	DB	022H
	DB	022H
	DB	026H
	DB	011H
	DB	011H
	DB	012H
	DB	022H
	DB	022H
	DB	022H
	DB	022H
	DB	025H
	DB	011H
	DB	011H
	DB	015H
	DB	030H
	DB	00H
	DB	00H
	DB	00H
	DB	00H
	DB	021H
	DB	011H
	DB	011H
	DB	030H
	DB	00H
	DB	00H
	DB	05H
	DB	011H
	DB	011H
	DB	063H
	DB	00H
	DB	00H
	DB	00H
	DB	00H
	DB	03H
	DB	051H
	DB	011H
	DB	011H
	DB	030H
	DB	00H
	DB	00H
	DB	00H
	DB	00H
	DB	00H
	DB	00H
	DB	00H
	DB	031H
	DB	011H
	DB	011H
	DB	011H
	DB	011H
	DB	011H
	DB	073H
	DB	00H
	DB	00H
	DB	00H
	DB	00H
	DB	071H
	DB	011H
	DB	011H
	DB	048H
	DB	011H
	DB	011H
	DB	018H
	DB	00H
	DB	00H
	DB	031H
	DB	011H
	DB	011H
	DB	050H
	DB	00H
	DB	00H
	DB	051H
	DB	011H
	DB	011H
	DB	040H
	DB	00H
	DB	00H
	DB	00H
	DB	00H
	DB	00H
	DB	00H
	DB	00H
	DB	01H
	DB	011H
	DB	011H
	DB	063H
	DB	00H
	DB	00H
	DB	03H
	DB	061H
	DB	011H
	DB	015H
	DB	00H
	DB	00H
	DB	00H
	DB	031H
	DB	011H
	DB	011H
	DB	070H
	DB	00H
	DB	00H
	DB	00H
	DB	00H
	DB	04H
	DB	011H
	DB	011H
	DB	017H
	DB	00H
	DB	00H
	DB	00H
	DB	00H
	DB	03H
	DB	051H
	DB	011H
	DB	016H
	DB	030H
	DB	00H
	DB	00H
	DB	031H
	DB	011H
	DB	011H
	DB	073H
	DB	00H
	DB	00H
	DB	00H
	DB	00H
	DB	03H
	DB	061H
	DB	011H
	DB	015H
	DB	00H
	DB	00H
	DB	00H
	DB	00H
	DB	00H
	DB	00H
	DB	00H
	DB	00H
	DB	041H
	DB	011H
	DB	011H
	DB	011H
	DB	011H
	DB	011H
	DB	040H
	DB	00H
	DB	00H
	DB	00H
	DB	00H
	DB	051H
	DB	011H
	DB	016H
	DB	032H
	DB	011H
	DB	011H
	DB	013H
	DB	00H
	DB	00H
	DB	041H
	DB	011H
	DB	011H
	DB	020H
	DB	00H
	DB	03H
	DB	051H
	DB	011H
	DB	016H
	DB	030H
	DB	00H
	DB	00H
	DB	00H
	DB	00H
	DB	00H
	DB	00H
	DB	00H
	DB	031H
	DB	011H
	DB	011H
	DB	073H
	DB	00H
	DB	00H
	DB	04H
	DB	011H
	DB	011H
	DB	012H
	DB	00H
	DB	00H
	DB	00H
	DB	021H
	DB	011H
	DB	011H
	DB	040H
	DB	00H
	DB	00H
	DB	00H
	DB	00H
	DB	032H
	DB	011H
	DB	011H
	DB	018H
	DB	00H
	DB	00H
	DB	00H
	DB	00H
	DB	03H
	DB	011H
	DB	011H
	DB	017H
	DB	00H
	DB	00H
	DB	00H
	DB	041H
	DB	011H
	DB	011H
	DB	020H
	DB	00H
	DB	00H
	DB	00H
	DB	00H
	DB	03H
	DB	011H
	DB	011H
	DB	012H
	DB	00H
	DB	04H
	DB	022H
	DB	022H
	DB	022H
	DB	022H
	DB	022H
	DB	022H
	DB	051H
	DB	011H
	DB	011H
	DB	011H
	DB	011H
	DB	011H
	DB	030H
	DB	00H
	DB	00H
	DB	00H
	DB	03H
	DB	061H
	DB	011H
	DB	015H
	DB	035H
	DB	011H
	DB	011H
	DB	063H
	DB	00H
	DB	00H
	DB	021H
	DB	011H
	DB	011H
	DB	040H
	DB	00H
	DB	03H
	DB	011H
	DB	011H
	DB	017H
	DB	00H
	DB	04H
	DB	022H
	DB	022H
	DB	022H
	DB	022H
	DB	022H
	DB	022H
	DB	051H
	DB	011H
	DB	011H
	DB	020H
	DB	00H
	DB	00H
	DB	02H
	DB	011H
	DB	011H
	DB	018H
	DB	00H
	DB	00H
	DB	00H
	DB	021H
	DB	011H
	DB	011H
	DB	052H
	DB	022H
	DB	022H
	DB	022H
	DB	022H
	DB	051H
	DB	011H
	DB	011H
	DB	053H
	DB	00H
	DB	00H
	DB	00H
	DB	00H
	DB	04H
	DB	011H
	DB	011H
	DB	012H
	DB	00H
	DB	00H
	DB	00H
	DB	021H
	DB	011H
	DB	011H
	DB	040H
	DB	00H
	DB	00H
	DB	00H
	DB	00H
	DB	032H
	DB	011H
	DB	011H
	DB	018H
	DB	04H
	DB	071H
	DB	011H
	DB	011H
	DB	011H
	DB	011H
	DB	011H
	DB	011H
	DB	011H
	DB	011H
	DB	011H
	DB	011H
	DB	011H
	DB	015H
	DB	030H
	DB	00H
	DB	00H
	DB	00H
	DB	04H
	DB	011H
	DB	011H
	DB	012H
	DB	031H
	DB	011H
	DB	011H
	DB	070H
	DB	00H
	DB	00H
	DB	071H
	DB	011H
	DB	011H
	DB	030H
	DB	00H
	DB	04H
	DB	011H
	DB	011H
	DB	012H
	DB	03H
	DB	021H
	DB	011H
	DB	011H
	DB	011H
	DB	011H
	DB	011H
	DB	011H
	DB	011H
	DB	011H
	DB	011H
	DB	040H
	DB	00H
	DB	00H
	DB	02H
	DB	011H
	DB	011H
	DB	013H
	DB	00H
	DB	00H
	DB	03H
	DB	051H
	DB	011H
	DB	011H
	DB	011H
	DB	011H
	DB	011H
	DB	011H
	DB	011H
	DB	011H
	DB	011H
	DB	016H
	DB	040H
	DB	00H
	DB	00H
	DB	00H
	DB	00H
	DB	02H
	DB	011H
	DB	011H
	DB	014H
	DB	00H
	DB	00H
	DB	00H
	DB	021H
	DB	011H
	DB	011H
	DB	022H
	DB	022H
	DB	022H
	DB	022H
	DB	022H
	DB	051H
	DB	011H
	DB	011H
	DB	013H
	DB	081H
	DB	011H
	DB	011H
	DB	011H
	DB	011H
	DB	011H
	DB	011H
	DB	011H
	DB	011H
	DB	011H
	DB	011H
	DB	011H
	DB	011H
	DB	012H
	DB	00H
	DB	00H
	DB	03H
	DB	030H
	DB	08H
	DB	011H
	DB	011H
	DB	014H
	DB	041H
	DB	011H
	DB	011H
	DB	020H
	DB	00H
	DB	03H
	DB	051H
	DB	011H
	DB	016H
	DB	030H
	DB	00H
	DB	02H
	DB	011H
	DB	011H
	DB	014H
	DB	041H
	DB	011H
	DB	011H
	DB	011H
	DB	011H
	DB	011H
	DB	011H
	DB	011H
	DB	011H
	DB	011H
	DB	011H
	DB	030H
	DB	00H
	DB	00H
	DB	05H
	DB	011H
	DB	011H
	DB	053H
	DB	00H
	DB	00H
	DB	03H
	DB	011H
	DB	011H
	DB	011H
	DB	011H
	DB	011H
	DB	011H
	DB	011H
	DB	011H
	DB	011H
	DB	011H
	DB	053H
	DB	00H
	DB	00H
	DB	00H
	DB	00H
	DB	00H
	DB	07H
	DB	011H
	DB	011H
	DB	013H
	DB	00H
	DB	00H
	DB	03H
	DB	061H
	DB	011H
	DB	011H
	DB	011H
	DB	011H
	DB	011H
	DB	011H
	DB	011H
	DB	011H
	DB	011H
	DB	011H
	DB	024H
	DB	011H
	DB	011H
	DB	011H
	DB	011H
	DB	011H
	DB	011H
	DB	011H
	DB	011H
	DB	011H
	DB	011H
	DB	011H
	DB	011H
	DB	011H
	DB	012H
	DB	00H
	DB	03H
	DB	021H
	DB	012H
	DB	02H
	DB	011H
	DB	011H
	DB	013H
	DB	021H
	DB	011H
	DB	011H
	DB	040H
	DB	00H
	DB	03H
	DB	011H
	DB	011H
	DB	017H
	DB	00H
	DB	00H
	DB	07H
	DB	011H
	DB	011H
	DB	014H
	DB	011H
	DB	011H
	DB	011H
	DB	011H
	DB	011H
	DB	011H
	DB	011H
	DB	011H
	DB	011H
	DB	011H
	DB	015H
	DB	00H
	DB	00H
	DB	00H
	DB	031H
	DB	011H
	DB	011H
	DB	070H
	DB	00H
	DB	00H
	DB	04H
	DB	011H
	DB	011H
	DB	011H
	DB	011H
	DB	011H
	DB	011H
	DB	011H
	DB	011H
	DB	011H
	DB	062H
	DB	030H
	DB	00H
	DB	00H
	DB	00H
	DB	00H
	DB	00H
	DB	036H
	DB	011H
	DB	011H
	DB	053H
	DB	00H
	DB	00H
	DB	03H
	DB	011H
	DB	011H
	DB	011H
	DB	011H
	DB	011H
	DB	011H
	DB	011H
	DB	011H
	DB	011H
	DB	011H
	DB	012H
	DB	036H
	DB	011H
	DB	011H
	DB	012H
	DB	022H
	DB	022H
	DB	022H
	DB	022H
	DB	022H
	DB	011H
	DB	011H
	DB	011H
	DB	011H
	DB	011H
	DB	014H
	DB	00H
	DB	04H
	DB	011H
	DB	011H
	DB	025H
	DB	011H
	DB	011H
	DB	063H
	DB	071H
	DB	011H
	DB	011H
	DB	030H
	DB	00H
	DB	04H
	DB	011H
	DB	011H
	DB	012H
	DB	00H
	DB	00H
	DB	036H
	DB	011H
	DB	011H
	DB	055H
	DB	011H
	DB	011H
	DB	012H
	DB	022H
	DB	022H
	DB	022H
	DB	022H
	DB	022H
	DB	011H
	DB	011H
	DB	012H
	DB	00H
	DB	00H
	DB	00H
	DB	041H
	DB	011H
	DB	011H
	DB	020H
	DB	00H
	DB	00H
	DB	02H
	DB	011H
	DB	011H
	DB	012H
	DB	022H
	DB	022H
	DB	022H
	DB	022H
	DB	022H
	DB	024H
	DB	030H
	DB	00H
	DB	00H
	DB	00H
	DB	00H
	DB	00H
	DB	00H
	DB	041H
	DB	011H
	DB	011H
	DB	020H
	DB	00H
	DB	00H
	DB	08H
	DB	011H
	DB	011H
	DB	011H
	DB	011H
	DB	011H
	DB	011H
	DB	011H
	DB	011H
	DB	011H
	DB	011H
	DB	020H
	DB	021H
	DB	011H
	DB	011H
	DB	080H
	DB	00H
	DB	00H
	DB	00H
	DB	00H
	DB	08H
	DB	011H
	DB	011H
	DB	011H
	DB	011H
	DB	011H
	DB	013H
	DB	00H
	DB	04H
	DB	011H
	DB	011H
	DB	011H
	DB	011H
	DB	011H
	DB	073H
	DB	061H
	DB	011H
	DB	015H
	DB	030H
	DB	00H
	DB	02H
	DB	011H
	DB	011H
	DB	014H
	DB	00H
	DB	00H
	DB	041H
	DB	011H
	DB	011H
	DB	011H
	DB	011H
	DB	011H
	DB	020H
	DB	00H
	DB	00H
	DB	00H
	DB	00H
	DB	04H
	DB	011H
	DB	011H
	DB	012H
	DB	00H
	DB	00H
	DB	00H
	DB	021H
	DB	011H
	DB	011H
	DB	040H
	DB	00H
	DB	00H
	DB	07H
	DB	011H
	DB	011H
	DB	013H
	DB	00H
	DB	00H
	DB	00H
	DB	00H
	DB	00H
	DB	00H
	DB	00H
	DB	00H
	DB	00H
	DB	00H
	DB	00H
	DB	00H
	DB	00H
	DB	081H
	DB	011H
	DB	011H
	DB	020H
	DB	00H
	DB	00H
	DB	02H
	DB	011H
	DB	011H
	DB	011H
	DB	011H
	DB	011H
	DB	011H
	DB	011H
	DB	011H
	DB	011H
	DB	074H
	DB	00H
	DB	071H
	DB	011H
	DB	011H
	DB	040H
	DB	00H
	DB	00H
	DB	00H
	DB	00H
	DB	02H
	DB	011H
	DB	011H
	DB	011H
	DB	011H
	DB	011H
	DB	013H
	DB	00H
	DB	03H
	DB	051H
	DB	011H
	DB	011H
	DB	011H
	DB	011H
	DB	023H
	DB	011H
	DB	011H
	DB	017H
	DB	00H
	DB	00H
	DB	07H
	DB	011H
	DB	011H
	DB	013H
	DB	00H
	DB	00H
	DB	081H
	DB	011H
	DB	011H
	DB	011H
	DB	011H
	DB	011H
	DB	080H
	DB	00H
	DB	00H
	DB	00H
	DB	00H
	DB	02H
	DB	011H
	DB	011H
	DB	014H
	DB	00H
	DB	00H
	DB	03H
	DB	071H
	DB	011H
	DB	011H
	DB	030H
	DB	00H
	DB	00H
	DB	06H
	DB	011H
	DB	011H
	DB	013H
	DB	00H
	DB	00H
	DB	00H
	DB	00H
	DB	00H
	DB	00H
	DB	00H
	DB	00H
	DB	00H
	DB	00H
	DB	00H
	DB	00H
	DB	00H
	DB	021H
	DB	011H
	DB	011H
	DB	040H
	DB	00H
	DB	00H
	DB	05H
	DB	011H
	DB	011H
	DB	015H
	DB	011H
	DB	011H
	DB	011H
	DB	012H
	DB	022H
	DB	043H
	DB	00H
	DB	00H
	DB	051H
	DB	011H
	DB	011H
	DB	062H
	DB	022H
	DB	022H
	DB	022H
	DB	022H
	DB	021H
	DB	011H
	DB	011H
	DB	011H
	DB	011H
	DB	011H
	DB	011H
	DB	022H
	DB	022H
	DB	051H
	DB	011H
	DB	011H
	DB	011H
	DB	011H
	DB	057H
	DB	011H
	DB	011H
	DB	012H
	DB	00H
	DB	00H
	DB	036H
	DB	011H
	DB	011H
	DB	053H
	DB	00H
	DB	00H
	DB	021H
	DB	011H
	DB	011H
	DB	011H
	DB	011H
	DB	011H
	DB	012H
	DB	022H
	DB	022H
	DB	022H
	DB	022H
	DB	026H
	DB	011H
	DB	011H
	DB	013H
	DB	00H
	DB	00H
	DB	03H
	DB	061H
	DB	011H
	DB	015H
	DB	00H
	DB	00H
	DB	00H
	DB	01H
	DB	011H
	DB	011H
	DB	015H
	DB	022H
	DB	022H
	DB	022H
	DB	022H
	DB	022H
	DB	022H
	DB	022H
	DB	040H
	DB	00H
	DB	00H
	DB	00H
	DB	00H
	DB	00H
	DB	051H
	DB	011H
	DB	011H
	DB	030H
	DB	00H
	DB	00H
	DB	036H
	DB	011H
	DB	011H
	DB	053H
	DB	021H
	DB	011H
	DB	011H
	DB	016H
	DB	040H
	DB	00H
	DB	00H
	DB	00H
	DB	071H
	DB	011H
	DB	011H
	DB	011H
	DB	011H
	DB	011H
	DB	011H
	DB	011H
	DB	011H
	DB	011H
	DB	011H
	DB	075H
	DB	011H
	DB	011H
	DB	011H
	DB	011H
	DB	011H
	DB	011H
	DB	011H
	DB	011H
	DB	011H
	DB	011H
	DB	011H
	DB	011H
	DB	011H
	DB	014H
	DB	00H
	DB	00H
	DB	041H
	DB	011H
	DB	011H
	DB	020H
	DB	00H
	DB	03H
	DB	051H
	DB	011H
	DB	016H
	DB	071H
	DB	011H
	DB	011H
	DB	011H
	DB	011H
	DB	011H
	DB	011H
	DB	011H
	DB	011H
	DB	011H
	DB	011H
	DB	050H
	DB	00H
	DB	00H
	DB	03H
	DB	011H
	DB	011H
	DB	012H
	DB	00H
	DB	00H
	DB	00H
	DB	05H
	DB	011H
	DB	011H
	DB	011H
	DB	011H
	DB	011H
	DB	011H
	DB	011H
	DB	011H
	DB	011H
	DB	011H
	DB	040H
	DB	00H
	DB	00H
	DB	00H
	DB	00H
	DB	03H
	DB	011H
	DB	011H
	DB	015H
	DB	030H
	DB	00H
	DB	00H
	DB	041H
	DB	011H
	DB	011H
	DB	020H
	DB	02H
	DB	011H
	DB	011H
	DB	011H
	DB	012H
	DB	030H
	DB	00H
	DB	00H
	DB	081H
	DB	011H
	DB	011H
	DB	011H
	DB	011H
	DB	011H
	DB	011H
	DB	011H
	DB	011H
	DB	011H
	DB	011H
	DB	022H
	DB	011H
	DB	011H
	DB	011H
	DB	011H
	DB	011H
	DB	011H
	DB	011H
	DB	011H
	DB	011H
	DB	011H
	DB	011H
	DB	011H
	DB	011H
	DB	013H
	DB	00H
	DB	00H
	DB	081H
	DB	011H
	DB	011H
	DB	020H
	DB	00H
	DB	03H
	DB	011H
	DB	011H
	DB	015H
	DB	041H
	DB	011H
	DB	011H
	DB	011H
	DB	011H
	DB	011H
	DB	011H
	DB	011H
	DB	011H
	DB	011H
	DB	011H
	DB	020H
	DB	00H
	DB	00H
	DB	08H
	DB	011H
	DB	011H
	DB	018H
	DB	00H
	DB	00H
	DB	00H
	DB	08H
	DB	011H
	DB	011H
	DB	011H
	DB	011H
	DB	011H
	DB	011H
	DB	011H
	DB	011H
	DB	011H
	DB	016H
	DB	030H
	DB	00H
	DB	00H
	DB	00H
	DB	00H
	DB	04H
	DB	011H
	DB	011H
	DB	012H
	DB	00H
	DB	00H
	DB	00H
	DB	081H
	DB	011H
	DB	011H
	DB	020H
	DB	00H
	DB	046H
	DB	011H
	DB	011H
	DB	011H
	DB	054H
	DB	00H
	DB	00H
	DB	037H
	DB	011H
	DB	011H
	DB	011H
	DB	011H
	DB	011H
	DB	011H
	DB	011H
	DB	011H
	DB	011H
	DB	011H
	DB	043H
	DB	071H
	DB	011H
	DB	011H
	DB	011H
	DB	011H
	DB	011H
	DB	011H
	DB	011H
	DB	011H
	DB	011H
	DB	011H
	DB	011H
	DB	011H
	DB	053H
	DB	00H
	DB	00H
	DB	021H
	DB	011H
	DB	011H
	DB	040H
	DB	00H
	DB	04H
	DB	011H
	DB	011H
	DB	012H
	DB	02H
	DB	011H
	DB	011H
	DB	011H
	DB	011H
	DB	011H
	DB	011H
	DB	011H
	DB	011H
	DB	011H
	DB	011H
	DB	080H
	DB	00H
	DB	00H
	DB	02H
	DB	011H
	DB	011H
	DB	014H
	DB	00H
	DB	00H
	DB	00H
	DB	03H
	DB	071H
	DB	011H
	DB	011H
	DB	011H
	DB	011H
	DB	011H
	DB	011H
	DB	011H
	DB	011H
	DB	017H
	DB	030H
	DB	00H
	DB	00H
	DB	00H
	DB	00H
	DB	02H
	DB	011H
	DB	011H
	DB	018H
	DB	00H
	DB	00H
	DB	00H
	DB	021H
	DB	011H
	DB	011H
	DB	040H
	DB	00H
	DB	03H
	DB	071H
	DB	011H
	DB	011H
	DB	011H
	DB	023H
	DB	00H
	DB	03H
	DB	021H
	DB	011H
	DB	011H
	DB	011H
	DB	011H
	DB	011H
	DB	011H
	DB	011H
	DB	011H
	DB	011H
	DB	030H
	DB	032H
	DB	011H
	DB	011H
	DB	011H
	DB	011H
	DB	011H
	DB	011H
	DB	011H
	DB	011H
	DB	011H
	DB	011H
	DB	011H
	DB	011H
	DB	020H
	DB	00H
	DB	03H
	DB	051H
	DB	011H
	DB	011H
	DB	030H
	DB	00H
	DB	02H
	DB	011H
	DB	011H
	DB	018H
	DB	00H
	DB	021H
	DB	011H
	DB	011H
	DB	011H
	DB	011H
	DB	011H
	DB	011H
	DB	011H
	DB	011H
	DB	011H
	DB	040H
	DB	00H
	DB	00H
	DB	035H
	DB	011H
	DB	011H
	DB	013H
	DB	00H
	DB	00H
	DB	00H
	DB	00H
	DB	032H
	DB	061H
	DB	011H
	DB	011H
	DB	011H
	DB	011H
	DB	011H
	DB	011H
	DB	011H
	DB	012H
	DB	00H
	DB	00H
	DB	00H
	DB	00H
	DB	00H
	DB	04H
	DB	022H
	DB	022H
	DB	023H
	DB	00H
	DB	00H
	DB	00H
	DB	042H
	DB	022H
	DB	028H
	DB	030H
	DB	00H
	DB	00H
	DB	038H
	DB	022H
	DB	022H
	DB	022H
	DB	023H
	DB	00H
	DB	00H
	DB	03H
	DB	082H
	DB	022H
	DB	022H
	DB	022H
	DB	022H
	DB	022H
	DB	022H
	DB	022H
	DB	024H
	DB	030H
	DB	00H
	DB	034H
	DB	022H
	DB	022H
	DB	022H
	DB	022H
	DB	022H
	DB	022H
	DB	022H
	DB	022H
	DB	022H
	DB	022H
	DB	022H
	DB	040H
	DB	00H
	DB	03H
	DB	082H
	DB	022H
	DB	024H
	DB	00H
	DB	00H
	DB	04H
	DB	022H
	DB	022H
	DB	023H
	DB	00H
	DB	03H
	DB	042H
	DB	022H
	DB	022H
	DB	022H
	DB	022H
	DB	022H
	DB	022H
	DB	022H
	DB	028H
	DB	030H
	DB	00H
	DB	00H
	DB	038H
	DB	022H
	DB	022H
	DB	083H
	DB	00H
	DB	00H
	DB	00H
	DB	00H
	DB	00H
	DB	034H
	DB	022H
	DB	022H
	DB	022H
	DB	022H
	DB	022H
	DB	022H
	DB	022H
	DB	023H
	DB	00H
	DB	00H
	DB	00H
	ORG $+3
_bmTraqmateLogo DW 0b9H
	DW	015H
	DW	05dH
	DW	04H
	DD	FLAT:_acTraqmateLogo
	DD	FLAT:_PalTraqmateLogo
	ORG $+4
CONST	ENDS
END
