; Listing generated by Microsoft (R) Optimizing Compiler Version 16.00.40219.01 

	TITLE	C:\DUII\DUII\Graphics\Units.c
	.686P
	.XMM
	include listing.inc
	.model	flat

INCLUDELIB LIBCMT
INCLUDELIB OLDNAMES

PUBLIC	_bmUnits
CONST	SEGMENT
_ColorsUnits DD	00H
	DD	0a090aH
	DD	0fefefeH
	DD	02a2a2aH
	DD	0343433H
	DD	0232322H
	DD	0121312H
	DD	01b1c1bH
	DD	03b3b3bH
	DD	0939393H
	DD	04a4a4aH
	DD	0c9c9c9H
	DD	0535352H
	DD	0646363H
	DD	0161816H
	DD	060608H
	DD	0424342H
	DD	05a5a5aH
	DD	06a6a69H
	DD	08a8a8aH
	DD	07c7c7cH
	DD	066fdH
	DD	02e302eH
	DD	0e6e6e6H
	DD	080608H
	DD	0181816H
	DD	0d8d8d8H
	DD	030302eH
	DD	087fbH
	DD	0383636H
	DD	0f0f10H
	DD	097feH
	DD	0d100cH
	DD	0acacacH
	DD	080503H
	DD	076fdH
	DD	01e201dH
	DD	0a1a1a1H
	DD	0b3b3b3H
	DD	0bbbcbbH
	DD	010110eH
	DD	0737373H
	DD	0848484H
	DD	060805H
	DD	0262825H
	DD	0a0a05H
	DD	0474847H
	DD	0c4c4c4H
	DD	05090aH
	DD	010a13H
	DD	020211eH
	DD	0159e9H
	DD	02a8fdH
	DD	09b9b9bH
	DD	01b39H
	DD	0383936H
	DD	03e403eH
	DD	02967H
	DD	0474848H
	DD	05cf5H
	DD	0282826H
	DD	01c45H
	DD	04577H
	DD	04999H
	DD	088eaH
	DD	0b1cH
	DD	0151b1aH
	DD	03345aH
	DD	03566H
	DD	013486H
	DD	048b4H
	DD	053d7H
	DD	069d6H
	DD	08b6feH
	DD	083dcfeH
	DD	0b1ebffH
	DD	0b4f0ffH
	DD	0d1110H
	DD	0363836H
	DD	0264bH
	DD	012458H
	DD	04e504eH
	DD	03a95H
	DD	055b4H
	DD	075c8H
	DD	077e7H
	DD	061d2feH
	DD	0121dH
	DD	0e23H
	DD	01132bH
	DD	02d77H
	DD	04687H
	DD	035687H
	DD	0345a7H
	DD	056a6H
	DD	053caH
	DD	068c8H
	DD	026c2ffH
	DD	04bcbfeH
	DD	0100f10H
	DD	041114H
	DD	0a131bH
	DD	022339H
	DD	0559aH
	DD	084e2ffH
	DD	0d9f2fcH
	DD	012235H
	DD	01c333aH
	DD	0282625H
	DD	013d76H
	DD	060605fH
	DD	016dbbH
	DD	04bc7H
	DD	077d4H
	DD	065e6H
	DD	038c6ffH
	DD	038c9ffH
	DD	0110e07H
	DD	01181eH
	DD	0a191cH
	DD	021b2bH
	DD	0c2b35H
	DD	0252828H
	DD	040413fH
	DD	0d394aH
	DD	0585857H
	DD	05f605fH
	DD	03ea5H
	DD	0a6288H
	DD	066897H
	DD	0227799H
	DD	0172b9H
	DD	014fd1H
	DD	0483bcH
	DD	062a1bcH
	DD	0286cdH
	DD	087ddH
	DD	017bdffH
	DD	018bcffH
	DD	032b4ebH
	DD	05bc1edH
	DD	04dd2ffH
	DD	079ccf0H
	DD	063d8ffH
	DD	0b3c8d1H
	DD	09acce1H
	DD	0c6dce6H
	DD	0d0e8f2H
	DD	0d6eef8H
	DD	0d1421H
	DD	061a25H
	DD	0c1e22H
	DD	09162bH
	DD	091f2cH
	DD	0101624H
	DD	0f2228H
	DD	0112124H
	DD	01e2120H
	DD	0182628H
	DD	01f2b2eH
	DD	0d2337H
	DD	0a263bH
	DD	042d3aH
	DD	0152e35H
	DD	010323eH
	DD	0272728H
	DD	0282729H
	DD	02e3433H
	DD	0383738H
	DD	0143845H
	DD	0103a4aH
	DD	0253a41H
	DD	01a4758H
	DD	0324146H
	DD	0214856H
	DD	010536eH
	DD	0b5473H
	DD	0214f62H
	DD	0275062H
	DD	0285464H
	DD	03c5a65H
	DD	021647fH
	DD	03e6a7dH
	DD	0484847H
	DD	050504fH
	DD	04f4f50H
	DD	04f5557H
	DD	0575758H
	DD	0605f5fH
	DD	04d646eH
	DD	0566063H
	DD	05f6060H
	DD	054707dH
	DD	0686867H
	DD	0706f6fH
	DD	06f706fH
	DD	070706fH
	DD	0787877H
	DD	0777778H
	DD	01a6d8eH
	DD	02e6b84H
	DD	0347088H
	DD	02d7896H
	DD	03a7d99H
	DD	061abH
	DD	0f76a1H
	DD	0e7cabH
	DD	01980acH
	DD	0348cb0H
	DD	02a90baH
	DD	0748186H
	DD	078878dH
	DD	0458aa8H
	DD	04392b4H
	DD	05f9eb7H
	DD	0789fb0H
	DD	05fa0bcH
	DD	07ca6b8H
	DD	01398d0H
	DD	01f9cd0H
	DD	03fa8d6H
	DD	03fabd9H
	DD	019febH
	DD	03a1efH
	DD	016b3f6H
	DD	017b7fcH
	DD	023b3eeH
	DD	023b5f3H
	DD	025baf9H
	DD	036bff5H
	DD	04ca2c7H
	DD	053b2dbH
	DD	062a5c2H
	DD	067aac6H
	DD	067acc8H
	DD	06db6d4H
	DD	06ebad9H
	DD	044b9eaH
	DD	018c3ffH
	DD	049c6f9H
	DD	05cc9f7H
	DD	076c7e9H
	DD	079caedH
	DD	0878887H
	DD	0888887H
	DD	0858888H
	DD	0979897H
	DD	095a7aeH
	DD	099abb3H
	DD	0b8b7b7H
	DD	0b7b8b7H
	DD	0bfc0bfH
	DD	0aadff7H
	DD	0aae1f8H
	DD	0d0cfd0H
	DD	0f0eff0H
_PalUnits DD	0100H
	DB	00H
	ORG $+3
	DD	FLAT:_ColorsUnits
_bmUnits DW	07fH
	DW	073H
	DW	07fH
	DW	08H
	DD	FLAT:_acUnits
	DD	FLAT:_PalUnits
	ORG $+4
_acUnits DB	00H
	DB	00H
	DB	00H
	DB	00H
	DB	00H
	DB	00H
	DB	00H
	DB	00H
	DB	00H
	DB	00H
	DB	00H
	DB	00H
	DB	00H
	DB	00H
	DB	00H
	DB	00H
	DB	00H
	DB	00H
	DB	00H
	DB	00H
	DB	00H
	DB	00H
	DB	00H
	DB	00H
	DB	00H
	DB	00H
	DB	00H
	DB	00H
	DB	00H
	DB	00H
	DB	00H
	DB	00H
	DB	00H
	DB	00H
	DB	00H
	DB	00H
	DB	00H
	DB	00H
	DB	00H
	DB	00H
	DB	00H
	DB	00H
	DB	00H
	DB	00H
	DB	00H
	DB	00H
	DB	00H
	DB	00H
	DB	00H
	DB	00H
	DB	00H
	DB	00H
	DB	00H
	DB	00H
	DB	00H
	DB	00H
	DB	00H
	DB	00H
	DB	00H
	DB	00H
	DB	00H
	DB	00H
	DB	00H
	DB	00H
	DB	00H
	DB	00H
	DB	00H
	DB	00H
	DB	00H
	DB	00H
	DB	00H
	DB	00H
	DB	00H
	DB	00H
	DB	00H
	DB	00H
	DB	00H
	DB	00H
	DB	00H
	DB	00H
	DB	00H
	DB	00H
	DB	00H
	DB	00H
	DB	00H
	DB	00H
	DB	00H
	DB	00H
	DB	00H
	DB	00H
	DB	00H
	DB	00H
	DB	00H
	DB	00H
	DB	00H
	DB	00H
	DB	00H
	DB	00H
	DB	00H
	DB	00H
	DB	00H
	DB	00H
	DB	00H
	DB	00H
	DB	00H
	DB	00H
	DB	00H
	DB	00H
	DB	00H
	DB	00H
	DB	00H
	DB	00H
	DB	00H
	DB	00H
	DB	00H
	DB	00H
	DB	00H
	DB	00H
	DB	00H
	DB	00H
	DB	00H
	DB	00H
	DB	00H
	DB	00H
	DB	00H
	DB	00H
	DB	00H
	DB	00H
	DB	00H
	DB	00H
	DB	00H
	DB	00H
	DB	00H
	DB	00H
	DB	00H
	DB	00H
	DB	00H
	DB	00H
	DB	00H
	DB	00H
	DB	00H
	DB	00H
	DB	00H
	DB	00H
	DB	00H
	DB	00H
	DB	00H
	DB	00H
	DB	00H
	DB	00H
	DB	00H
	DB	00H
	DB	00H
	DB	00H
	DB	00H
	DB	00H
	DB	00H
	DB	00H
	DB	00H
	DB	00H
	DB	00H
	DB	00H
	DB	00H
	DB	00H
	DB	00H
	DB	00H
	DB	00H
	DB	00H
	DB	00H
	DB	00H
	DB	00H
	DB	00H
	DB	00H
	DB	00H
	DB	00H
	DB	00H
	DB	00H
	DB	00H
	DB	00H
	DB	00H
	DB	00H
	DB	00H
	DB	00H
	DB	00H
	DB	00H
	DB	00H
	DB	00H
	DB	00H
	DB	00H
	DB	00H
	DB	00H
	DB	00H
	DB	00H
	DB	00H
	DB	00H
	DB	00H
	DB	00H
	DB	00H
	DB	00H
	DB	00H
	DB	00H
	DB	00H
	DB	00H
	DB	00H
	DB	00H
	DB	00H
	DB	00H
	DB	00H
	DB	00H
	DB	00H
	DB	00H
	DB	00H
	DB	00H
	DB	00H
	DB	00H
	DB	00H
	DB	00H
	DB	00H
	DB	00H
	DB	00H
	DB	00H
	DB	00H
	DB	00H
	DB	00H
	DB	00H
	DB	00H
	DB	00H
	DB	00H
	DB	00H
	DB	00H
	DB	00H
	DB	00H
	DB	00H
	DB	00H
	DB	00H
	DB	00H
	DB	00H
	DB	00H
	DB	00H
	DB	00H
	DB	00H
	DB	00H
	DB	00H
	DB	00H
	DB	00H
	DB	00H
	DB	00H
	DB	00H
	DB	00H
	DB	00H
	DB	00H
	DB	00H
	DB	00H
	DB	00H
	DB	00H
	DB	00H
	DB	00H
	DB	00H
	DB	00H
	DB	00H
	DB	00H
	DB	00H
	DB	00H
	DB	00H
	DB	00H
	DB	00H
	DB	00H
	DB	00H
	DB	00H
	DB	00H
	DB	00H
	DB	00H
	DB	00H
	DB	00H
	DB	00H
	DB	00H
	DB	00H
	DB	00H
	DB	00H
	DB	00H
	DB	00H
	DB	00H
	DB	00H
	DB	00H
	DB	00H
	DB	00H
	DB	00H
	DB	00H
	DB	00H
	DB	00H
	DB	00H
	DB	00H
	DB	00H
	DB	00H
	DB	00H
	DB	00H
	DB	00H
	DB	00H
	DB	00H
	DB	00H
	DB	00H
	DB	00H
	DB	00H
	DB	00H
	DB	00H
	DB	00H
	DB	00H
	DB	00H
	DB	00H
	DB	00H
	DB	00H
	DB	00H
	DB	00H
	DB	00H
	DB	00H
	DB	00H
	DB	00H
	DB	00H
	DB	00H
	DB	00H
	DB	00H
	DB	00H
	DB	00H
	DB	00H
	DB	00H
	DB	00H
	DB	00H
	DB	00H
	DB	00H
	DB	00H
	DB	00H
	DB	00H
	DB	00H
	DB	00H
	DB	00H
	DB	00H
	DB	00H
	DB	00H
	DB	00H
	DB	00H
	DB	00H
	DB	00H
	DB	00H
	DB	00H
	DB	00H
	DB	00H
	DB	00H
	DB	00H
	DB	00H
	DB	00H
	DB	00H
	DB	00H
	DB	00H
	DB	00H
	DB	00H
	DB	00H
	DB	00H
	DB	00H
	DB	00H
	DB	00H
	DB	00H
	DB	00H
	DB	00H
	DB	00H
	DB	00H
	DB	00H
	DB	00H
	DB	00H
	DB	00H
	DB	00H
	DB	00H
	DB	00H
	DB	00H
	DB	00H
	DB	00H
	DB	00H
	DB	00H
	DB	00H
	DB	00H
	DB	00H
	DB	00H
	DB	00H
	DB	00H
	DB	00H
	DB	00H
	DB	00H
	DB	00H
	DB	00H
	DB	00H
	DB	00H
	DB	00H
	DB	00H
	DB	00H
	DB	00H
	DB	00H
	DB	00H
	DB	00H
	DB	00H
	DB	00H
	DB	00H
	DB	00H
	DB	00H
	DB	00H
	DB	00H
	DB	00H
	DB	00H
	DB	00H
	DB	00H
	DB	00H
	DB	00H
	DB	00H
	DB	00H
	DB	00H
	DB	00H
	DB	00H
	DB	00H
	DB	00H
	DB	00H
	DB	00H
	DB	00H
	DB	00H
	DB	00H
	DB	00H
	DB	00H
	DB	00H
	DB	00H
	DB	00H
	DB	00H
	DB	00H
	DB	00H
	DB	00H
	DB	00H
	DB	00H
	DB	00H
	DB	00H
	DB	00H
	DB	00H
	DB	00H
	DB	00H
	DB	00H
	DB	00H
	DB	00H
	DB	00H
	DB	00H
	DB	00H
	DB	00H
	DB	00H
	DB	00H
	DB	00H
	DB	00H
	DB	00H
	DB	00H
	DB	00H
	DB	00H
	DB	00H
	DB	00H
	DB	00H
	DB	00H
	DB	00H
	DB	00H
	DB	00H
	DB	00H
	DB	00H
	DB	00H
	DB	00H
	DB	00H
	DB	00H
	DB	00H
	DB	00H
	DB	00H
	DB	00H
	DB	00H
	DB	00H
	DB	00H
	DB	00H
	DB	00H
	DB	00H
	DB	00H
	DB	00H
	DB	00H
	DB	00H
	DB	00H
	DB	00H
	DB	00H
	DB	00H
	DB	00H
	DB	00H
	DB	00H
	DB	00H
	DB	00H
	DB	00H
	DB	00H
	DB	00H
	DB	00H
	DB	00H
	DB	00H
	DB	00H
	DB	00H
	DB	00H
	DB	00H
	DB	00H
	DB	00H
	DB	00H
	DB	00H
	DB	00H
	DB	00H
	DB	00H
	DB	00H
	DB	00H
	DB	00H
	DB	00H
	DB	00H
	DB	00H
	DB	00H
	DB	00H
	DB	00H
	DB	00H
	DB	00H
	DB	00H
	DB	00H
	DB	00H
	DB	00H
	DB	00H
	DB	00H
	DB	00H
	DB	00H
	DB	00H
	DB	00H
	DB	00H
	DB	00H
	DB	00H
	DB	00H
	DB	00H
	DB	00H
	DB	00H
	DB	00H
	DB	00H
	DB	00H
	DB	00H
	DB	00H
	DB	00H
	DB	00H
	DB	00H
	DB	00H
	DB	00H
	DB	00H
	DB	00H
	DB	00H
	DB	00H
	DB	00H
	DB	00H
	DB	00H
	DB	00H
	DB	00H
	DB	00H
	DB	00H
	DB	00H
	DB	00H
	DB	00H
	DB	00H
	DB	00H
	DB	00H
	DB	00H
	DB	00H
	DB	00H
	DB	00H
	DB	00H
	DB	00H
	DB	00H
	DB	00H
	DB	00H
	DB	00H
	DB	00H
	DB	00H
	DB	00H
	DB	00H
	DB	00H
	DB	00H
	DB	00H
	DB	00H
	DB	00H
	DB	00H
	DB	00H
	DB	00H
	DB	00H
	DB	00H
	DB	00H
	DB	00H
	DB	00H
	DB	00H
	DB	00H
	DB	00H
	DB	00H
	DB	00H
	DB	00H
	DB	00H
	DB	00H
	DB	00H
	DB	00H
	DB	00H
	DB	00H
	DB	00H
	DB	00H
	DB	00H
	DB	00H
	DB	00H
	DB	00H
	DB	00H
	DB	00H
	DB	00H
	DB	00H
	DB	00H
	DB	00H
	DB	00H
	DB	00H
	DB	00H
	DB	00H
	DB	00H
	DB	00H
	DB	00H
	DB	00H
	DB	00H
	DB	00H
	DB	00H
	DB	00H
	DB	00H
	DB	00H
	DB	00H
	DB	00H
	DB	00H
	DB	00H
	DB	00H
	DB	00H
	DB	00H
	DB	00H
	DB	00H
	DB	00H
	DB	00H
	DB	00H
	DB	00H
	DB	0fH
	DB	0a5H
	DB	03H
	DB	03H
	DB	03H
	DB	03H
	DB	03H
	DB	03H
	DB	03H
	DB	03H
	DB	03H
	DB	03H
	DB	03H
	DB	03H
	DB	03H
	DB	03H
	DB	03H
	DB	03H
	DB	03H
	DB	03H
	DB	03H
	DB	03H
	DB	03H
	DB	03H
	DB	03H
	DB	03H
	DB	03H
	DB	03H
	DB	03H
	DB	03H
	DB	03H
	DB	03H
	DB	03H
	DB	03H
	DB	03H
	DB	03H
	DB	03H
	DB	03H
	DB	03H
	DB	03H
	DB	03H
	DB	03H
	DB	03H
	DB	03H
	DB	03H
	DB	03H
	DB	03H
	DB	03H
	DB	03H
	DB	03H
	DB	03H
	DB	03H
	DB	03H
	DB	03H
	DB	03H
	DB	03H
	DB	03H
	DB	03H
	DB	03H
	DB	03H
	DB	03H
	DB	03H
	DB	03H
	DB	03H
	DB	03H
	DB	03H
	DB	03H
	DB	03H
	DB	03H
	DB	03H
	DB	03H
	DB	03H
	DB	03H
	DB	03H
	DB	03H
	DB	03H
	DB	03H
	DB	03H
	DB	03H
	DB	03H
	DB	03H
	DB	03H
	DB	03H
	DB	03H
	DB	03H
	DB	03H
	DB	03H
	DB	03H
	DB	03H
	DB	03H
	DB	03H
	DB	03H
	DB	03H
	DB	03H
	DB	03H
	DB	03H
	DB	03H
	DB	03H
	DB	03H
	DB	03H
	DB	03H
	DB	03H
	DB	03H
	DB	03H
	DB	03H
	DB	03H
	DB	03H
	DB	03H
	DB	03H
	DB	03H
	DB	03H
	DB	03H
	DB	03H
	DB	03H
	DB	03H
	DB	03H
	DB	02cH
	DB	01H
	DB	00H
	DB	00H
	DB	00H
	DB	00H
	DB	00H
	DB	00H
	DB	00H
	DB	00H
	DB	0a5H
	DB	021H
	DB	0feH
	DB	0bH
	DB	0bH
	DB	0bH
	DB	0bH
	DB	0bH
	DB	0bH
	DB	0bH
	DB	0bH
	DB	0bH
	DB	0bH
	DB	0bH
	DB	0bH
	DB	0bH
	DB	0bH
	DB	0bH
	DB	0bH
	DB	0bH
	DB	0bH
	DB	0bH
	DB	0bH
	DB	0bH
	DB	0bH
	DB	0bH
	DB	0bH
	DB	0bH
	DB	0bH
	DB	0bH
	DB	0bH
	DB	0bH
	DB	0bH
	DB	0bH
	DB	0bH
	DB	0bH
	DB	0bH
	DB	0bH
	DB	0bH
	DB	0bH
	DB	0bH
	DB	0bH
	DB	0bH
	DB	0bH
	DB	0bH
	DB	0bH
	DB	0bH
	DB	0bH
	DB	0bH
	DB	0bH
	DB	0bH
	DB	0bH
	DB	0bH
	DB	0bH
	DB	0bH
	DB	0bH
	DB	0bH
	DB	0bH
	DB	0bH
	DB	0bH
	DB	0bH
	DB	0bH
	DB	0bH
	DB	0bH
	DB	0bH
	DB	0bH
	DB	0bH
	DB	0bH
	DB	0bH
	DB	0bH
	DB	0bH
	DB	0bH
	DB	0bH
	DB	0bH
	DB	0bH
	DB	0bH
	DB	0bH
	DB	0bH
	DB	0bH
	DB	0bH
	DB	0bH
	DB	0bH
	DB	0bH
	DB	0bH
	DB	0bH
	DB	0bH
	DB	0bH
	DB	0bH
	DB	0bH
	DB	0bH
	DB	0bH
	DB	0bH
	DB	0bH
	DB	0bH
	DB	0bH
	DB	0bH
	DB	0bH
	DB	0bH
	DB	0bH
	DB	0bH
	DB	0bH
	DB	0bH
	DB	0bH
	DB	0bH
	DB	0bH
	DB	0bH
	DB	0bH
	DB	0bH
	DB	0bH
	DB	0bH
	DB	0bH
	DB	0bH
	DB	0bH
	DB	0bH
	DB	0bH
	DB	0bH
	DB	0bH
	DB	0bH
	DB	021H
	DB	08H
	DB	00H
	DB	00H
	DB	00H
	DB	00H
	DB	00H
	DB	00H
	DB	00H
	DB	013H
	DB	0f9H
	DB	09H
	DB	09H
	DB	09H
	DB	09H
	DB	09H
	DB	09H
	DB	09H
	DB	09H
	DB	09H
	DB	09H
	DB	09H
	DB	09H
	DB	09H
	DB	09H
	DB	09H
	DB	09H
	DB	09H
	DB	09H
	DB	09H
	DB	09H
	DB	09H
	DB	09H
	DB	09H
	DB	09H
	DB	09H
	DB	09H
	DB	09H
	DB	09H
	DB	09H
	DB	09H
	DB	09H
	DB	013H
	DB	013H
	DB	013H
	DB	013H
	DB	013H
	DB	013H
	DB	013H
	DB	013H
	DB	013H
	DB	013H
	DB	013H
	DB	013H
	DB	013H
	DB	013H
	DB	013H
	DB	013H
	DB	013H
	DB	013H
	DB	013H
	DB	013H
	DB	013H
	DB	013H
	DB	013H
	DB	013H
	DB	013H
	DB	013H
	DB	013H
	DB	013H
	DB	013H
	DB	013H
	DB	013H
	DB	013H
	DB	013H
	DB	013H
	DB	013H
	DB	013H
	DB	013H
	DB	013H
	DB	013H
	DB	013H
	DB	013H
	DB	013H
	DB	013H
	DB	013H
	DB	013H
	DB	013H
	DB	013H
	DB	013H
	DB	013H
	DB	013H
	DB	013H
	DB	09H
	DB	013H
	DB	09H
	DB	09H
	DB	09H
	DB	09H
	DB	09H
	DB	09H
	DB	09H
	DB	09H
	DB	09H
	DB	09H
	DB	09H
	DB	09H
	DB	09H
	DB	09H
	DB	09H
	DB	09H
	DB	09H
	DB	09H
	DB	09H
	DB	09H
	DB	09H
	DB	09H
	DB	09H
	DB	09H
	DB	09H
	DB	09H
	DB	09H
	DB	09H
	DB	09H
	DB	09H
	DB	09H
	DB	09H
	DB	025H
	DB	0c5H
	DB	0fH
	DB	00H
	DB	00H
	DB	00H
	DB	00H
	DB	00H
	DB	06H
	DB	013H
	DB	029H
	DB	0c1H
	DB	012H
	DB	012H
	DB	012H
	DB	012H
	DB	012H
	DB	012H
	DB	012H
	DB	012H
	DB	012H
	DB	012H
	DB	012H
	DB	012H
	DB	012H
	DB	012H
	DB	012H
	DB	012H
	DB	012H
	DB	012H
	DB	012H
	DB	012H
	DB	012H
	DB	012H
	DB	012H
	DB	012H
	DB	012H
	DB	012H
	DB	012H
	DB	012H
	DB	0dH
	DB	0c1H
	DB	0c4H
	DB	0c5H
	DB	0f3H
	DB	013H
	DB	09H
	DB	09H
	DB	09H
	DB	09H
	DB	09H
	DB	09H
	DB	09H
	DB	09H
	DB	09H
	DB	09H
	DB	09H
	DB	09H
	DB	09H
	DB	09H
	DB	09H
	DB	09H
	DB	09H
	DB	09H
	DB	09H
	DB	09H
	DB	09H
	DB	09H
	DB	09H
	DB	09H
	DB	09H
	DB	09H
	DB	09H
	DB	09H
	DB	09H
	DB	09H
	DB	09H
	DB	09H
	DB	09H
	DB	09H
	DB	09H
	DB	09H
	DB	09H
	DB	09H
	DB	09H
	DB	09H
	DB	09H
	DB	09H
	DB	09H
	DB	09H
	DB	09H
	DB	09H
	DB	013H
	DB	014H
	DB	029H
	DB	012H
	DB	0dH
	DB	0c1H
	DB	012H
	DB	012H
	DB	012H
	DB	012H
	DB	012H
	DB	012H
	DB	012H
	DB	012H
	DB	012H
	DB	012H
	DB	012H
	DB	012H
	DB	012H
	DB	012H
	DB	012H
	DB	012H
	DB	012H
	DB	012H
	DB	012H
	DB	012H
	DB	012H
	DB	012H
	DB	012H
	DB	012H
	DB	012H
	DB	012H
	DB	012H
	DB	012H
	DB	012H
	DB	012H
	DB	07eH
	DB	06H
	DB	00H
	DB	00H
	DB	00H
	DB	00H
	DB	00H
	DB	06H
	DB	0c5H
	DB	0dH
	DB	0dH
	DB	0dH
	DB	0dH
	DB	0dH
	DB	0dH
	DB	0dH
	DB	0dH
	DB	0dH
	DB	0dH
	DB	0dH
	DB	0dH
	DB	0dH
	DB	0dH
	DB	0dH
	DB	0dH
	DB	0dH
	DB	0dH
	DB	0dH
	DB	0dH
	DB	0dH
	DB	0dH
	DB	0dH
	DB	0dH
	DB	0dH
	DB	0dH
	DB	0dH
	DB	0dH
	DB	0dH
	DB	0bcH
	DB	029H
	DB	0f4H
	DB	09H
	DB	09H
	DB	09H
	DB	09H
	DB	09H
	DB	09H
	DB	0f6H
	DB	0f6H
	DB	0f6H
	DB	0f6H
	DB	0f6H
	DB	0f6H
	DB	0f6H
	DB	0f6H
	DB	0f6H
	DB	0f6H
	DB	0f6H
	DB	0f6H
	DB	0f6H
	DB	0f6H
	DB	0f6H
	DB	0f6H
	DB	0f6H
	DB	0f6H
	DB	0f6H
	DB	0f6H
	DB	0f6H
	DB	0f6H
	DB	0f6H
	DB	0f6H
	DB	0f6H
	DB	0f6H
	DB	0f6H
	DB	0f6H
	DB	0f6H
	DB	0f6H
	DB	0f6H
	DB	0f6H
	DB	0f6H
	DB	0f6H
	DB	0f6H
	DB	0f6H
	DB	0f6H
	DB	0f6H
	DB	0f6H
	DB	0f6H
	DB	0f6H
	DB	09H
	DB	09H
	DB	09H
	DB	09H
	DB	09H
	DB	09H
	DB	013H
	DB	014H
	DB	0dH
	DB	06eH
	DB	0dH
	DB	0dH
	DB	0dH
	DB	0dH
	DB	0dH
	DB	0dH
	DB	0dH
	DB	0dH
	DB	0dH
	DB	0dH
	DB	0dH
	DB	0dH
	DB	0dH
	DB	0dH
	DB	0dH
	DB	0dH
	DB	0dH
	DB	0dH
	DB	0dH
	DB	0dH
	DB	0dH
	DB	0dH
	DB	0dH
	DB	0dH
	DB	0dH
	DB	0dH
	DB	0dH
	DB	0dH
	DB	0dH
	DB	0cH
	DB	01eH
	DB	00H
	DB	00H
	DB	00H
	DB	00H
	DB	00H
	DB	063H
	DB	0c2H
	DB	011H
	DB	011H
	DB	011H
	DB	011H
	DB	011H
	DB	011H
	DB	011H
	DB	011H
	DB	011H
	DB	011H
	DB	011H
	DB	011H
	DB	011H
	DB	011H
	DB	011H
	DB	011H
	DB	011H
	DB	011H
	DB	011H
	DB	011H
	DB	011H
	DB	011H
	DB	011H
	DB	011H
	DB	011H
	DB	011H
	DB	011H
	DB	0bbH
	DB	07eH
	DB	014H
	DB	0f3H
	DB	02aH
	DB	014H
	DB	014H
	DB	014H
	DB	014H
	DB	014H
	DB	014H
	DB	014H
	DB	014H
	DB	014H
	DB	014H
	DB	014H
	DB	014H
	DB	014H
	DB	014H
	DB	014H
	DB	014H
	DB	014H
	DB	014H
	DB	014H
	DB	014H
	DB	014H
	DB	014H
	DB	014H
	DB	014H
	DB	014H
	DB	014H
	DB	014H
	DB	014H
	DB	014H
	DB	014H
	DB	014H
	DB	014H
	DB	014H
	DB	014H
	DB	014H
	DB	014H
	DB	014H
	DB	014H
	DB	014H
	DB	014H
	DB	014H
	DB	014H
	DB	014H
	DB	014H
	DB	014H
	DB	014H
	DB	014H
	DB	014H
	DB	014H
	DB	014H
	DB	014H
	DB	014H
	DB	014H
	DB	014H
	DB	02aH
	DB	02aH
	DB	0c1H
	DB	0bbH
	DB	011H
	DB	011H
	DB	011H
	DB	011H
	DB	011H
	DB	011H
	DB	011H
	DB	011H
	DB	011H
	DB	011H
	DB	011H
	DB	011H
	DB	011H
	DB	011H
	DB	011H
	DB	011H
	DB	011H
	DB	011H
	DB	011H
	DB	011H
	DB	011H
	DB	011H
	DB	011H
	DB	011H
	DB	011H
	DB	011H
	DB	011H
	DB	011H
	DB	0aH
	DB	01H
	DB	00H
	DB	00H
	DB	00H
	DB	00H
	DB	00H
	DB	01eH
	DB	0c1H
	DB	0cH
	DB	0b8H
	DB	0b8H
	DB	0b8H
	DB	0b8H
	DB	0b8H
	DB	0b8H
	DB	0b8H
	DB	0b8H
	DB	0b8H
	DB	0b8H
	DB	0b8H
	DB	0b8H
	DB	0b8H
	DB	0b8H
	DB	0b8H
	DB	0b8H
	DB	0b8H
	DB	0b8H
	DB	0b8H
	DB	0b8H
	DB	0b8H
	DB	0b8H
	DB	0b8H
	DB	0b8H
	DB	0cH
	DB	051H
	DB	07dH
	DB	0c6H
	DB	0c5H
	DB	0c3H
	DB	0c2H
	DB	0c2H
	DB	012H
	DB	012H
	DB	0c1H
	DB	0c1H
	DB	0dH
	DB	0dH
	DB	0dH
	DB	0dH
	DB	0dH
	DB	0dH
	DB	0dH
	DB	0dH
	DB	0dH
	DB	0dH
	DB	0dH
	DB	0dH
	DB	0dH
	DB	0dH
	DB	0dH
	DB	0dH
	DB	0dH
	DB	0dH
	DB	0dH
	DB	0dH
	DB	0dH
	DB	0dH
	DB	0dH
	DB	0dH
	DB	0dH
	DB	0dH
	DB	0dH
	DB	0dH
	DB	0dH
	DB	0dH
	DB	0dH
	DB	0dH
	DB	0dH
	DB	0dH
	DB	0dH
	DB	0dH
	DB	0dH
	DB	0dH
	DB	0dH
	DB	0dH
	DB	0dH
	DB	0dH
	DB	0dH
	DB	0c1H
	DB	0c1H
	DB	0c1H
	DB	012H
	DB	012H
	DB	0c2H
	DB	0c2H
	DB	029H
	DB	014H
	DB	0dH
	DB	051H
	DB	0cH
	DB	0b8H
	DB	0b8H
	DB	0b8H
	DB	0b8H
	DB	0b8H
	DB	0b8H
	DB	0b8H
	DB	0b8H
	DB	0b8H
	DB	0b8H
	DB	0b8H
	DB	0b8H
	DB	0b8H
	DB	0b8H
	DB	0b8H
	DB	0b8H
	DB	0b8H
	DB	0b8H
	DB	0b8H
	DB	0b8H
	DB	0b8H
	DB	0b8H
	DB	0b8H
	DB	0b8H
	DB	0b8H
	DB	0cH
	DB	010H
	DB	01H
	DB	00H
	DB	00H
	DB	00H
	DB	00H
	DB	00H
	DB	01eH
	DB	06eH
	DB	0aH
	DB	03aH
	DB	03aH
	DB	03aH
	DB	03aH
	DB	03aH
	DB	03aH
	DB	03aH
	DB	03aH
	DB	03aH
	DB	03aH
	DB	03aH
	DB	03aH
	DB	03aH
	DB	03aH
	DB	03aH
	DB	03aH
	DB	03aH
	DB	03aH
	DB	03aH
	DB	03aH
	DB	03aH
	DB	03aH
	DB	03aH
	DB	03aH
	DB	02eH
	DB	0aH
	DB	012H
	DB	012H
	DB	0dH
	DB	07eH
	DB	07eH
	DB	011H
	DB	011H
	DB	07dH
	DB	07dH
	DB	07dH
	DB	0bbH
	DB	0bbH
	DB	0bbH
	DB	0bbH
	DB	0bbH
	DB	0bbH
	DB	0bbH
	DB	0bbH
	DB	0bbH
	DB	0bbH
	DB	0bbH
	DB	0bbH
	DB	0bbH
	DB	0bbH
	DB	0bbH
	DB	0bbH
	DB	0bbH
	DB	0bbH
	DB	0bbH
	DB	0bbH
	DB	0bbH
	DB	0bbH
	DB	0bbH
	DB	0bbH
	DB	0bbH
	DB	0bbH
	DB	0bbH
	DB	0bbH
	DB	0bbH
	DB	0bbH
	DB	0bbH
	DB	0bbH
	DB	0bbH
	DB	0bbH
	DB	0bbH
	DB	0bbH
	DB	0bbH
	DB	0bbH
	DB	0bbH
	DB	0bbH
	DB	0bbH
	DB	0bbH
	DB	0bbH
	DB	0bbH
	DB	0bbH
	DB	07dH
	DB	011H
	DB	011H
	DB	011H
	DB	0bcH
	DB	06eH
	DB	0c1H
	DB	0c2H
	DB	0bbH
	DB	010H
	DB	0b7H
	DB	03aH
	DB	03aH
	DB	03aH
	DB	03aH
	DB	03aH
	DB	03aH
	DB	03aH
	DB	03aH
	DB	03aH
	DB	03aH
	DB	03aH
	DB	03aH
	DB	03aH
	DB	03aH
	DB	03aH
	DB	03aH
	DB	03aH
	DB	03aH
	DB	03aH
	DB	03aH
	DB	03aH
	DB	03aH
	DB	03aH
	DB	03aH
	DB	0aH
	DB	08H
	DB	01H
	DB	00H
	DB	00H
	DB	00H
	DB	00H
	DB	00H
	DB	020H
	DB	07dH
	DB	07bH
	DB	038H
	DB	038H
	DB	038H
	DB	038H
	DB	038H
	DB	038H
	DB	038H
	DB	038H
	DB	038H
	DB	038H
	DB	038H
	DB	038H
	DB	038H
	DB	038H
	DB	038H
	DB	038H
	DB	038H
	DB	038H
	DB	038H
	DB	038H
	DB	038H
	DB	038H
	DB	038H
	DB	038H
	DB	08H
	DB	07dH
	DB	07eH
	DB	07dH
	DB	0cH
	DB	0cH
	DB	0cH
	DB	0b8H
	DB	0b8H
	DB	051H
	DB	051H
	DB	051H
	DB	051H
	DB	051H
	DB	051H
	DB	051H
	DB	051H
	DB	051H
	DB	051H
	DB	051H
	DB	051H
	DB	051H
	DB	051H
	DB	051H
	DB	051H
	DB	051H
	DB	051H
	DB	051H
	DB	051H
	DB	051H
	DB	051H
	DB	051H
	DB	051H
	DB	051H
	DB	051H
	DB	051H
	DB	051H
	DB	051H
	DB	051H
	DB	051H
	DB	051H
	DB	051H
	DB	051H
	DB	051H
	DB	051H
	DB	051H
	DB	051H
	DB	051H
	DB	051H
	DB	051H
	DB	051H
	DB	051H
	DB	051H
	DB	051H
	DB	051H
	DB	051H
	DB	051H
	DB	0b8H
	DB	0b8H
	DB	0b8H
	DB	0b8H
	DB	0cH
	DB	0cH
	DB	0bbH
	DB	011H
	DB	07eH
	DB	010H
	DB	038H
	DB	038H
	DB	038H
	DB	038H
	DB	038H
	DB	038H
	DB	038H
	DB	038H
	DB	038H
	DB	038H
	DB	038H
	DB	038H
	DB	038H
	DB	038H
	DB	038H
	DB	038H
	DB	038H
	DB	038H
	DB	038H
	DB	038H
	DB	038H
	DB	038H
	DB	038H
	DB	038H
	DB	038H
	DB	07bH
	DB	04H
	DB	01H
	DB	00H
	DB	00H
	DB	00H
	DB	00H
	DB	00H
	DB	01H
	DB	0b8H
	DB	08H
	DB	01dH
	DB	0a8H
	DB	0a8H
	DB	0a8H
	DB	0a8H
	DB	0a8H
	DB	0a8H
	DB	0a8H
	DB	0a8H
	DB	0a8H
	DB	0a8H
	DB	0a8H
	DB	0a8H
	DB	0a8H
	DB	0a8H
	DB	0a8H
	DB	0a8H
	DB	0a8H
	DB	0a8H
	DB	0a8H
	DB	0a8H
	DB	0a8H
	DB	0a8H
	DB	04H
	DB	010H
	DB	0cH
	DB	051H
	DB	0aH
	DB	03aH
	DB	0aH
	DB	0b7H
	DB	0aH
	DB	0aH
	DB	0aH
	DB	0aH
	DB	0aH
	DB	0aH
	DB	0aH
	DB	0b7H
	DB	03aH
	DB	03aH
	DB	03aH
	DB	03aH
	DB	02eH
	DB	02eH
	DB	03aH
	DB	02eH
	DB	02eH
	DB	02eH
	DB	02eH
	DB	03aH
	DB	02eH
	DB	02eH
	DB	02eH
	DB	03aH
	DB	03aH
	DB	03aH
	DB	03aH
	DB	03aH
	DB	03aH
	DB	03aH
	DB	03aH
	DB	02eH
	DB	03aH
	DB	02eH
	DB	02eH
	DB	03aH
	DB	03aH
	DB	03aH
	DB	02eH
	DB	02eH
	DB	02eH
	DB	03aH
	DB	03aH
	DB	03aH
	DB	03aH
	DB	03aH
	DB	0aH
	DB	0aH
	DB	0aH
	DB	0aH
	DB	0aH
	DB	0aH
	DB	0aH
	DB	03aH
	DB	03aH
	DB	02eH
	DB	03aH
	DB	051H
	DB	0cH
	DB	0aH
	DB	04H
	DB	0a8H
	DB	0a8H
	DB	0a8H
	DB	0a8H
	DB	0a8H
	DB	0a8H
	DB	0a8H
	DB	0a8H
	DB	0a8H
	DB	0a8H
	DB	0a8H
	DB	0a8H
	DB	0a8H
	DB	0a8H
	DB	0a8H
	DB	0a8H
	DB	0a8H
	DB	0a8H
	DB	0a8H
	DB	0a8H
	DB	0a8H
	DB	0a8H
	DB	0a8H
	DB	0a8H
	DB	0a8H
	DB	016H
	DB	018H
	DB	00H
	DB	00H
	DB	00H
	DB	00H
	DB	00H
	DB	01H
	DB	0aH
	DB	04H
	DB	016H
	DB	01bH
	DB	01bH
	DB	01bH
	DB	01bH
	DB	01bH
	DB	01bH
	DB	01bH
	DB	01bH
	DB	01bH
	DB	01bH
	DB	01bH
	DB	01bH
	DB	01bH
	DB	01bH
	DB	01bH
	DB	01bH
	DB	01bH
	DB	01bH
	DB	01bH
	DB	01bH
	DB	01bH
	DB	016H
	DB	016H
	DB	07bH
	DB	02eH
	DB	010H
	DB	038H
	DB	07bH
	DB	010H
	DB	010H
	DB	010H
	DB	010H
	DB	010H
	DB	010H
	DB	010H
	DB	010H
	DB	010H
	DB	010H
	DB	010H
	DB	010H
	DB	010H
	DB	010H
	DB	010H
	DB	010H
	DB	010H
	DB	010H
	DB	010H
	DB	010H
	DB	010H
	DB	010H
	DB	010H
	DB	010H
	DB	010H
	DB	010H
	DB	010H
	DB	010H
	DB	010H
	DB	010H
	DB	010H
	DB	010H
	DB	010H
	DB	010H
	DB	010H
	DB	010H
	DB	010H
	DB	010H
	DB	010H
	DB	010H
	DB	010H
	DB	010H
	DB	010H
	DB	010H
	DB	010H
	DB	010H
	DB	010H
	DB	010H
	DB	010H
	DB	010H
	DB	010H
	DB	010H
	DB	010H
	DB	010H
	DB	010H
	DB	010H
	DB	010H
	DB	07bH
	DB	038H
	DB	010H
	DB	010H
	DB	02eH
	DB	04H
	DB	016H
	DB	01bH
	DB	01bH
	DB	01bH
	DB	01bH
	DB	01bH
	DB	01bH
	DB	01bH
	DB	01bH
	DB	01bH
	DB	01bH
	DB	01bH
	DB	01bH
	DB	01bH
	DB	01bH
	DB	01bH
	DB	01bH
	DB	01bH
	DB	01bH
	DB	01bH
	DB	01bH
	DB	01bH
	DB	01bH
	DB	01bH
	DB	01bH
	DB	03cH
	DB	0fH
	DB	00H
	DB	00H
	DB	00H
	DB	00H
	DB	00H
	DB	01H
	DB	010H
	DB	03H
	DB	03cH
	DB	03H
	DB	03H
	DB	03H
	DB	03H
	DB	03H
	DB	03H
	DB	03H
	DB	03H
	DB	03H
	DB	03H
	DB	03H
	DB	03H
	DB	03H
	DB	03H
	DB	03H
	DB	03H
	DB	03H
	DB	03H
	DB	03H
	DB	03H
	DB	03H
	DB	03cH
	DB	03H
	DB	037H
	DB	037H
	DB	08H
	DB	037H
	DB	08H
	DB	08H
	DB	038H
	DB	038H
	DB	038H
	DB	038H
	DB	038H
	DB	038H
	DB	038H
	DB	038H
	DB	038H
	DB	038H
	DB	038H
	DB	038H
	DB	038H
	DB	038H
	DB	038H
	DB	038H
	DB	038H
	DB	038H
	DB	038H
	DB	038H
	DB	08H
	DB	08H
	DB	04eH
	DB	04H
	DB	04H
	DB	04eH
	DB	04eH
	DB	037H
	DB	037H
	DB	04eH
	DB	04H
	DB	04H
	DB	04H
	DB	037H
	DB	08H
	DB	038H
	DB	038H
	DB	038H
	DB	038H
	DB	038H
	DB	038H
	DB	038H
	DB	038H
	DB	038H
	DB	038H
	DB	038H
	DB	038H
	DB	038H
	DB	038H
	DB	038H
	DB	038H
	DB	038H
	DB	038H
	DB	038H
	DB	038H
	DB	08H
	DB	08H
	DB	037H
	DB	037H
	DB	08H
	DB	037H
	DB	01bH
	DB	02cH
	DB	03H
	DB	03H
	DB	03H
	DB	03H
	DB	03H
	DB	03H
	DB	03H
	DB	03H
	DB	03H
	DB	03H
	DB	03H
	DB	03H
	DB	03H
	DB	03H
	DB	03H
	DB	03H
	DB	03H
	DB	03H
	DB	03H
	DB	03H
	DB	03H
	DB	03H
	DB	03H
	DB	03H
	DB	05H
	DB	0fH
	DB	00H
	DB	00H
	DB	00H
	DB	00H
	DB	00H
	DB	01H
	DB	038H
	DB	05H
	DB	032H
	DB	05H
	DB	05H
	DB	05H
	DB	05H
	DB	05H
	DB	05H
	DB	05H
	DB	05H
	DB	05H
	DB	05H
	DB	05H
	DB	05H
	DB	05H
	DB	05H
	DB	05H
	DB	05H
	DB	05H
	DB	05H
	DB	05H
	DB	05H
	DB	05H
	DB	032H
	DB	03H
	DB	016H
	DB	01bH
	DB	04H
	DB	04H
	DB	04eH
	DB	037H
	DB	037H
	DB	08H
	DB	08H
	DB	08H
	DB	08H
	DB	08H
	DB	08H
	DB	037H
	DB	037H
	DB	037H
	DB	037H
	DB	037H
	DB	037H
	DB	037H
	DB	037H
	DB	037H
	DB	037H
	DB	037H
	DB	04H
	DB	01bH
	DB	04H
	DB	08H
	DB	0b8H
	DB	0c1H
	DB	014H
	DB	013H
	DB	09H
	DB	035H
	DB	035H
	DB	09H
	DB	0f5H
	DB	0c6H
	DB	06eH
	DB	0aH
	DB	037H
	DB	01bH
	DB	01bH
	DB	04eH
	DB	037H
	DB	037H
	DB	037H
	DB	037H
	DB	037H
	DB	037H
	DB	037H
	DB	037H
	DB	037H
	DB	037H
	DB	037H
	DB	08H
	DB	08H
	DB	08H
	DB	08H
	DB	08H
	DB	037H
	DB	037H
	DB	04eH
	DB	04H
	DB	04H
	DB	04H
	DB	016H
	DB	016H
	DB	032H
	DB	05H
	DB	05H
	DB	05H
	DB	05H
	DB	05H
	DB	05H
	DB	05H
	DB	05H
	DB	05H
	DB	05H
	DB	05H
	DB	05H
	DB	05H
	DB	05H
	DB	05H
	DB	05H
	DB	05H
	DB	05H
	DB	05H
	DB	05H
	DB	05H
	DB	05H
	DB	05H
	DB	05H
	DB	07H
	DB	0fH
	DB	00H
	DB	00H
	DB	00H
	DB	00H
	DB	00H
	DB	01H
	DB	037H
	DB	024H
	DB	07H
	DB	07H
	DB	07H
	DB	07H
	DB	07H
	DB	07H
	DB	07H
	DB	07H
	DB	07H
	DB	07H
	DB	07H
	DB	07H
	DB	07H
	DB	07H
	DB	07H
	DB	07H
	DB	07H
	DB	07H
	DB	07H
	DB	07H
	DB	07H
	DB	07H
	DB	07H
	DB	03cH
	DB	03H
	DB	03H
	DB	016H
	DB	016H
	DB	01bH
	DB	04H
	DB	04H
	DB	04H
	DB	04H
	DB	04H
	DB	04H
	DB	04H
	DB	04H
	DB	04H
	DB	04H
	DB	04H
	DB	04H
	DB	04H
	DB	04H
	DB	04H
	DB	04H
	DB	04H
	DB	016H
	DB	016H
	DB	08H
	DB	0beH
	DB	0d3H
	DB	0f8H
	DB	090H
	DB	092H
	DB	093H
	DB	094H
	DB	069H
	DB	069H
	DB	069H
	DB	069H
	DB	094H
	DB	093H
	DB	092H
	DB	090H
	DB	0f7H
	DB	0d2H
	DB	0baH
	DB	04H
	DB	03H
	DB	01bH
	DB	04H
	DB	04H
	DB	04H
	DB	04H
	DB	04H
	DB	04H
	DB	04H
	DB	04H
	DB	04H
	DB	04H
	DB	04H
	DB	04H
	DB	04H
	DB	04H
	DB	04H
	DB	04H
	DB	04H
	DB	016H
	DB	016H
	DB	016H
	DB	03H
	DB	03H
	DB	024H
	DB	07H
	DB	07H
	DB	07H
	DB	07H
	DB	07H
	DB	07H
	DB	07H
	DB	07H
	DB	07H
	DB	07H
	DB	07H
	DB	07H
	DB	07H
	DB	07H
	DB	07H
	DB	07H
	DB	07H
	DB	07H
	DB	07H
	DB	07H
	DB	07H
	DB	07H
	DB	07H
	DB	07H
	DB	0eH
	DB	022H
	DB	00H
	DB	00H
	DB	00H
	DB	00H
	DB	00H
	DB	01H
	DB	04H
	DB	07H
	DB	0eH
	DB	019H
	DB	019H
	DB	019H
	DB	019H
	DB	019H
	DB	019H
	DB	019H
	DB	019H
	DB	019H
	DB	019H
	DB	019H
	DB	019H
	DB	019H
	DB	019H
	DB	019H
	DB	019H
	DB	019H
	DB	019H
	DB	019H
	DB	019H
	DB	019H
	DB	0eH
	DB	02cH
	DB	03cH
	DB	03H
	DB	03H
	DB	03H
	DB	03H
	DB	016H
	DB	016H
	DB	016H
	DB	016H
	DB	01bH
	DB	016H
	DB	016H
	DB	016H
	DB	016H
	DB	016H
	DB	016H
	DB	016H
	DB	016H
	DB	016H
	DB	016H
	DB	03cH
	DB	07aH
	DB	0adH
	DB	0c0H
	DB	0d9H
	DB	091H
	DB	0fcH
	DB	04bH
	DB	04bH
	DB	04cH
	DB	04cH
	DB	04cH
	DB	04cH
	DB	04cH
	DB	04cH
	DB	04cH
	DB	04cH
	DB	04cH
	DB	04bH
	DB	04bH
	DB	04bH
	DB	0fdH
	DB	091H
	DB	0d7H
	DB	0bdH
	DB	0a7H
	DB	06cH
	DB	03H
	DB	016H
	DB	016H
	DB	016H
	DB	016H
	DB	016H
	DB	016H
	DB	016H
	DB	016H
	DB	016H
	DB	01bH
	DB	016H
	DB	016H
	DB	016H
	DB	016H
	DB	016H
	DB	03H
	DB	03H
	DB	03H
	DB	03cH
	DB	03cH
	DB	07H
	DB	0eH
	DB	019H
	DB	019H
	DB	019H
	DB	019H
	DB	019H
	DB	019H
	DB	019H
	DB	019H
	DB	019H
	DB	019H
	DB	019H
	DB	019H
	DB	019H
	DB	019H
	DB	019H
	DB	019H
	DB	019H
	DB	019H
	DB	019H
	DB	019H
	DB	019H
	DB	019H
	DB	019H
	DB	06H
	DB	00H
	DB	00H
	DB	00H
	DB	00H
	DB	00H
	DB	00H
	DB	018H
	DB	01bH
	DB	06H
	DB	028H
	DB	06H
	DB	06H
	DB	06H
	DB	06H
	DB	06H
	DB	06H
	DB	06H
	DB	06H
	DB	06H
	DB	06H
	DB	06H
	DB	06H
	DB	06H
	DB	06H
	DB	06H
	DB	06H
	DB	06H
	DB	06H
	DB	06H
	DB	06H
	DB	06H
	DB	06H
	DB	05H
	DB	05H
	DB	02cH
	DB	02cH
	DB	03cH
	DB	03cH
	DB	03H
	DB	03H
	DB	03H
	DB	03H
	DB	03H
	DB	03H
	DB	03H
	DB	03H
	DB	03H
	DB	03H
	DB	03H
	DB	03H
	DB	03H
	DB	03cH
	DB	09dH
	DB	06bH
	DB	0b6H
	DB	0e8H
	DB	0f2H
	DB	04aH
	DB	068H
	DB	068H
	DB	068H
	DB	04aH
	DB	08eH
	DB	0ecH
	DB	0eaH
	DB	086H
	DB	0d6H
	DB	086H
	DB	0e9H
	DB	0ebH
	DB	0f1H
	DB	04aH
	DB	068H
	DB	068H
	DB	04aH
	DB	04aH
	DB	04aH
	DB	08eH
	DB	0d8H
	DB	0b4H
	DB	03cH
	DB	05H
	DB	03H
	DB	03H
	DB	03H
	DB	03H
	DB	03H
	DB	03H
	DB	03H
	DB	03H
	DB	03H
	DB	03H
	DB	03H
	DB	03H
	DB	03H
	DB	03cH
	DB	02cH
	DB	03cH
	DB	02cH
	DB	02cH
	DB	05H
	DB	019H
	DB	028H
	DB	06H
	DB	06H
	DB	06H
	DB	06H
	DB	06H
	DB	06H
	DB	06H
	DB	06H
	DB	06H
	DB	06H
	DB	06H
	DB	06H
	DB	06H
	DB	06H
	DB	06H
	DB	06H
	DB	06H
	DB	06H
	DB	06H
	DB	06H
	DB	06H
	DB	06H
	DB	06H
	DB	01eH
	DB	00H
	DB	00H
	DB	00H
	DB	00H
	DB	00H
	DB	00H
	DB	0fH
	DB	03H
	DB	01eH
	DB	01H
	DB	01H
	DB	01H
	DB	01H
	DB	01H
	DB	01H
	DB	01H
	DB	01H
	DB	01H
	DB	01H
	DB	01H
	DB	01H
	DB	01H
	DB	01H
	DB	01H
	DB	01H
	DB	01H
	DB	01H
	DB	01H
	DB	01H
	DB	01H
	DB	01H
	DB	020H
	DB	024H
	DB	032H
	DB	05H
	DB	05H
	DB	05H
	DB	05H
	DB	05H
	DB	02cH
	DB	02cH
	DB	02cH
	DB	02cH
	DB	02cH
	DB	02cH
	DB	02cH
	DB	02cH
	DB	02cH
	DB	05H
	DB	02cH
	DB	032H
	DB	05H
	DB	0b2H
	DB	0d5H
	DB	08cH
	DB	056H
	DB	056H
	DB	08fH
	DB	056H
	DB	0e7H
	DB	0cbH
	DB	0b3H
	DB	06bH
	DB	09eH
	DB	07H
	DB	042H
	DB	042H
	DB	07H
	DB	042H
	DB	09cH
	DB	0a3H
	DB	0aeH
	DB	0c9H
	DB	0e6H
	DB	0f0H
	DB	08fH
	DB	056H
	DB	056H
	DB	056H
	DB	08cH
	DB	0d4H
	DB	0abH
	DB	07H
	DB	05H
	DB	05H
	DB	02cH
	DB	02cH
	DB	02cH
	DB	02cH
	DB	02cH
	DB	02cH
	DB	02cH
	DB	02cH
	DB	02cH
	DB	05H
	DB	05H
	DB	05H
	DB	05H
	DB	05H
	DB	05H
	DB	032H
	DB	06H
	DB	01H
	DB	01H
	DB	01H
	DB	01H
	DB	01H
	DB	01H
	DB	01H
	DB	01H
	DB	01H
	DB	01H
	DB	01H
	DB	01H
	DB	01H
	DB	01H
	DB	01H
	DB	01H
	DB	01H
	DB	01H
	DB	01H
	DB	01H
	DB	01H
	DB	01H
	DB	01H
	DB	01H
	DB	01H
	DB	00H
	DB	00H
	DB	00H
	DB	00H
	DB	00H
	DB	00H
	DB	0fH
	DB	03cH
	DB	01H
	DB	0fH
	DB	018H
	DB	018H
	DB	018H
	DB	018H
	DB	018H
	DB	018H
	DB	018H
	DB	018H
	DB	018H
	DB	018H
	DB	018H
	DB	018H
	DB	018H
	DB	018H
	DB	018H
	DB	018H
	DB	018H
	DB	018H
	DB	018H
	DB	018H
	DB	018H
	DB	01H
	DB	07H
	DB	024H
	DB	032H
	DB	032H
	DB	05H
	DB	05H
	DB	05H
	DB	05H
	DB	05H
	DB	05H
	DB	05H
	DB	05H
	DB	05H
	DB	05H
	DB	05H
	DB	05H
	DB	05H
	DB	07H
	DB	09fH
	DB	0c8H
	DB	0ddH
	DB	062H
	DB	062H
	DB	08dH
	DB	0efH
	DB	0d0H
	DB	0acH
	DB	097H
	DB	04dH
	DB	019H
	DB	07H
	DB	07H
	DB	07H
	DB	024H
	DB	032H
	DB	032H
	DB	07H
	DB	07H
	DB	019H
	DB	06H
	DB	04dH
	DB	077H
	DB	0a9H
	DB	0caH
	DB	0edH
	DB	08dH
	DB	062H
	DB	062H
	DB	062H
	DB	0dcH
	DB	0b1H
	DB	0eH
	DB	032H
	DB	05H
	DB	05H
	DB	05H
	DB	05H
	DB	05H
	DB	05H
	DB	05H
	DB	05H
	DB	05H
	DB	05H
	DB	05H
	DB	05H
	DB	05H
	DB	032H
	DB	024H
	DB	024H
	DB	06H
	DB	0fH
	DB	018H
	DB	018H
	DB	018H
	DB	018H
	DB	018H
	DB	018H
	DB	018H
	DB	018H
	DB	018H
	DB	018H
	DB	018H
	DB	018H
	DB	018H
	DB	018H
	DB	018H
	DB	018H
	DB	018H
	DB	018H
	DB	018H
	DB	018H
	DB	018H
	DB	018H
	DB	018H
	DB	0fH
	DB	00H
	DB	00H
	DB	00H
	DB	00H
	DB	00H
	DB	00H
	DB	0fH
	DB	05H
	DB	02bH
	DB	022H
	DB	022H
	DB	022H
	DB	022H
	DB	022H
	DB	022H
	DB	022H
	DB	022H
	DB	022H
	DB	022H
	DB	022H
	DB	022H
	DB	022H
	DB	022H
	DB	022H
	DB	022H
	DB	022H
	DB	022H
	DB	022H
	DB	022H
	DB	022H
	DB	022H
	DB	018H
	DB	07H
	DB	07H
	DB	024H
	DB	024H
	DB	032H
	DB	032H
	DB	032H
	DB	024H
	DB	032H
	DB	032H
	DB	032H
	DB	032H
	DB	032H
	DB	032H
	DB	024H
	DB	024H
	DB	019H
	DB	06bH
	DB	082H
	DB	08bH
	DB	073H
	DB	074H
	DB	074H
	DB	0d1H
	DB	0aaH
	DB	064H
	DB	04dH
	DB	07H
	DB	07H
	DB	0eH
	DB	019H
	DB	032H
	DB	03H
	DB	016H
	DB	024H
	DB	032H
	DB	03H
	DB	02cH
	DB	07H
	DB	0eH
	DB	0eH
	DB	042H
	DB	06H
	DB	064H
	DB	079H
	DB	082H
	DB	0e5H
	DB	074H
	DB	073H
	DB	073H
	DB	08bH
	DB	0b5H
	DB	019H
	DB	07H
	DB	032H
	DB	032H
	DB	032H
	DB	032H
	DB	032H
	DB	032H
	DB	032H
	DB	032H
	DB	032H
	DB	032H
	DB	032H
	DB	024H
	DB	024H
	DB	07H
	DB	07H
	DB	028H
	DB	00H
	DB	022H
	DB	022H
	DB	022H
	DB	022H
	DB	022H
	DB	022H
	DB	022H
	DB	022H
	DB	022H
	DB	022H
	DB	022H
	DB	022H
	DB	022H
	DB	022H
	DB	022H
	DB	022H
	DB	022H
	DB	022H
	DB	022H
	DB	022H
	DB	022H
	DB	022H
	DB	022H
	DB	022H
	DB	00H
	DB	00H
	DB	00H
	DB	00H
	DB	00H
	DB	00H
	DB	0fH
	DB	05H
	DB	022H
	DB	00H
	DB	00H
	DB	00H
	DB	00H
	DB	00H
	DB	00H
	DB	00H
	DB	00H
	DB	00H
	DB	00H
	DB	00H
	DB	00H
	DB	00H
	DB	00H
	DB	00H
	DB	00H
	DB	00H
	DB	00H
	DB	00H
	DB	00H
	DB	00H
	DB	00H
	DB	0fH
	DB	019H
	DB	07H
	DB	07H
	DB	07H
	DB	07H
	DB	07H
	DB	07H
	DB	07H
	DB	07H
	DB	07H
	DB	07H
	DB	024H
	DB	024H
	DB	07H
	DB	07H
	DB	0eH
	DB	0a4H
	DB	0cfH
	DB	0e3H
	DB	061H
	DB	061H
	DB	0e2H
	DB	0afH
	DB	031H
	DB	04dH
	DB	042H
	DB	0eH
	DB	019H
	DB	01bH
	DB	0bbH
	DB	014H
	DB	035H
	DB	027H
	DB	0f3H
	DB	06H
	DB	05H
	DB	09H
	DB	026H
	DB	0f6H
	DB	029H
	DB	02eH
	DB	032H
	DB	06H
	DB	0eH
	DB	06H
	DB	020H
	DB	07cH
	DB	0dbH
	DB	061H
	DB	061H
	DB	061H
	DB	0e4H
	DB	0c7H
	DB	0eH
	DB	019H
	DB	07H
	DB	024H
	DB	024H
	DB	07H
	DB	07H
	DB	07H
	DB	07H
	DB	07H
	DB	07H
	DB	07H
	DB	07H
	DB	07H
	DB	07H
	DB	07H
	DB	020H
	DB	00H
	DB	00H
	DB	00H
	DB	00H
	DB	00H
	DB	00H
	DB	00H
	DB	00H
	DB	00H
	DB	00H
	DB	00H
	DB	00H
	DB	00H
	DB	00H
	DB	00H
	DB	00H
	DB	00H
	DB	00H
	DB	00H
	DB	00H
	DB	00H
	DB	00H
	DB	00H
	DB	00H
	DB	00H
	DB	00H
	DB	00H
	DB	00H
	DB	00H
	DB	00H
	DB	00H
	DB	0fH
	DB	09dH
	DB	00H
	DB	00H
	DB	00H
	DB	00H
	DB	00H
	DB	00H
	DB	00H
	DB	00H
	DB	00H
	DB	00H
	DB	00H
	DB	00H
	DB	00H
	DB	00H
	DB	00H
	DB	00H
	DB	00H
	DB	00H
	DB	00H
	DB	00H
	DB	00H
	DB	00H
	DB	00H
	DB	0fH
	DB	0eH
	DB	0eH
	DB	019H
	DB	07H
	DB	07H
	DB	07H
	DB	07H
	DB	07H
	DB	07H
	DB	07H
	DB	07H
	DB	07H
	DB	07H
	DB	07H
	DB	06H
	DB	079H
	DB	0ceH
	DB	0e0H
	DB	08aH
	DB	0eeH
	DB	0daH
	DB	0a2H
	DB	02bH
	DB	0eH
	DB	06H
	DB	019H
	DB	038H
	DB	014H
	DB	0f9H
	DB	01aH
	DB	0ffH
	DB	02H
	DB	02H
	DB	026H
	DB	020H
	DB	032H
	DB	0faH
	DB	02H
	DB	02H
	DB	0ffH
	DB	01aH
	DB	021H
	DB	0c1H
	DB	02cH
	DB	028H
	DB	0eH
	DB	01H
	DB	076H
	DB	0cdH
	DB	089H
	DB	089H
	DB	08aH
	DB	0e1H
	DB	080H
	DB	06H
	DB	019H
	DB	07H
	DB	07H
	DB	07H
	DB	07H
	DB	07H
	DB	07H
	DB	07H
	DB	07H
	DB	07H
	DB	07H
	DB	07H
	DB	0eH
	DB	0eH
	DB	020H
	DB	00H
	DB	00H
	DB	00H
	DB	00H
	DB	00H
	DB	00H
	DB	00H
	DB	00H
	DB	00H
	DB	00H
	DB	00H
	DB	00H
	DB	00H
	DB	00H
	DB	00H
	DB	00H
	DB	00H
	DB	00H
	DB	00H
	DB	00H
	DB	00H
	DB	00H
	DB	00H
	DB	00H
	DB	00H
	DB	00H
	DB	00H
	DB	00H
	DB	00H
	DB	00H
	DB	00H
	DB	0fH
	DB	09dH
	DB	00H
	DB	00H
	DB	00H
	DB	00H
	DB	00H
	DB	00H
	DB	00H
	DB	00H
	DB	00H
	DB	00H
	DB	00H
	DB	00H
	DB	00H
	DB	00H
	DB	00H
	DB	00H
	DB	00H
	DB	00H
	DB	00H
	DB	00H
	DB	00H
	DB	00H
	DB	00H
	DB	0fH
	DB	0eH
	DB	0eH
	DB	0eH
	DB	0eH
	DB	0eH
	DB	0eH
	DB	0eH
	DB	0eH
	DB	0eH
	DB	0eH
	DB	0eH
	DB	0eH
	DB	019H
	DB	06H
	DB	09bH
	DB	081H
	DB	0dfH
	DB	049H
	DB	049H
	DB	085H
	DB	076H
	DB	01H
	DB	0eH
	DB	028H
	DB	016H
	DB	014H
	DB	02fH
	DB	0ffH
	DB	02H
	DB	02H
	DB	02H
	DB	02H
	DB	02H
	DB	021H
	DB	01H
	DB	024H
	DB	026H
	DB	02H
	DB	02H
	DB	02H
	DB	02H
	DB	02H
	DB	0ffH
	DB	027H
	DB	07eH
	DB	06H
	DB	04dH
	DB	04dH
	DB	030H
	DB	080H
	DB	049H
	DB	049H
	DB	049H
	DB	049H
	DB	0b0H
	DB	075H
	DB	019H
	DB	0eH
	DB	0eH
	DB	0eH
	DB	0eH
	DB	0eH
	DB	0eH
	DB	0eH
	DB	0eH
	DB	0eH
	DB	0eH
	DB	0eH
	DB	0eH
	DB	01H
	DB	00H
	DB	00H
	DB	00H
	DB	00H
	DB	00H
	DB	00H
	DB	00H
	DB	00H
	DB	00H
	DB	00H
	DB	00H
	DB	00H
	DB	00H
	DB	00H
	DB	00H
	DB	00H
	DB	00H
	DB	00H
	DB	00H
	DB	00H
	DB	00H
	DB	00H
	DB	00H
	DB	00H
	DB	00H
	DB	00H
	DB	00H
	DB	00H
	DB	00H
	DB	00H
	DB	00H
	DB	0fH
	DB	09dH
	DB	00H
	DB	00H
	DB	00H
	DB	00H
	DB	00H
	DB	00H
	DB	00H
	DB	00H
	DB	00H
	DB	00H
	DB	00H
	DB	00H
	DB	00H
	DB	00H
	DB	00H
	DB	00H
	DB	00H
	DB	00H
	DB	00H
	DB	00H
	DB	00H
	DB	00H
	DB	00H
	DB	022H
	DB	06H
	DB	06H
	DB	0eH
	DB	0eH
	DB	0eH
	DB	0eH
	DB	0eH
	DB	0eH
	DB	0eH
	DB	0eH
	DB	0eH
	DB	0eH
	DB	06H
	DB	042H
	DB	05cH
	DB	0deH
	DB	034H
	DB	049H
	DB	085H
	DB	064H
	DB	020H
	DB	06H
	DB	06H
	DB	0cH
	DB	021H
	DB	0ffH
	DB	02H
	DB	02H
	DB	02H
	DB	02H
	DB	02H
	DB	02H
	DB	02H
	DB	021H
	DB	00H
	DB	0eH
	DB	026H
	DB	02H
	DB	02H
	DB	02H
	DB	02H
	DB	02H
	DB	02H
	DB	02H
	DB	0ffH
	DB	025H
	DB	03H
	DB	01H
	DB	06H
	DB	02bH
	DB	05cH
	DB	034H
	DB	034H
	DB	034H
	DB	0dfH
	DB	07cH
	DB	075H
	DB	0eH
	DB	0eH
	DB	0eH
	DB	0eH
	DB	0eH
	DB	0eH
	DB	0eH
	DB	0eH
	DB	0eH
	DB	0eH
	DB	06H
	DB	06H
	DB	01H
	DB	00H
	DB	00H
	DB	00H
	DB	00H
	DB	00H
	DB	00H
	DB	00H
	DB	00H
	DB	00H
	DB	00H
	DB	00H
	DB	00H
	DB	00H
	DB	00H
	DB	00H
	DB	00H
	DB	00H
	DB	00H
	DB	00H
	DB	00H
	DB	00H
	DB	00H
	DB	00H
	DB	00H
	DB	00H
	DB	00H
	DB	00H
	DB	00H
	DB	00H
	DB	00H
	DB	00H
	DB	0fH
	DB	09dH
	DB	00H
	DB	00H
	DB	00H
	DB	00H
	DB	00H
	DB	00H
	DB	00H
	DB	00H
	DB	00H
	DB	00H
	DB	00H
	DB	00H
	DB	00H
	DB	00H
	DB	00H
	DB	00H
	DB	00H
	DB	00H
	DB	00H
	DB	00H
	DB	00H
	DB	00H
	DB	00H
	DB	02bH
	DB	028H
	DB	06H
	DB	06H
	DB	06H
	DB	06H
	DB	06H
	DB	06H
	DB	06H
	DB	06H
	DB	06H
	DB	06H
	DB	06H
	DB	075H
	DB	043H
	DB	088H
	DB	034H
	DB	034H
	DB	087H
	DB	076H
	DB	075H
	DB	028H
	DB	0eH
	DB	0c3H
	DB	0feH
	DB	02H
	DB	02H
	DB	02H
	DB	02H
	DB	02H
	DB	02H
	DB	02H
	DB	02H
	DB	02H
	DB	0feH
	DB	07H
	DB	03H
	DB	02fH
	DB	02H
	DB	02H
	DB	02H
	DB	02H
	DB	02H
	DB	02H
	DB	02H
	DB	02H
	DB	02H
	DB	02fH
	DB	08H
	DB	02bH
	DB	028H
	DB	02dH
	DB	081H
	DB	034H
	DB	034H
	DB	034H
	DB	087H
	DB	077H
	DB	028H
	DB	06H
	DB	06H
	DB	06H
	DB	06H
	DB	06H
	DB	06H
	DB	06H
	DB	06H
	DB	06H
	DB	06H
	DB	06H
	DB	01H
	DB	00H
	DB	00H
	DB	00H
	DB	00H
	DB	00H
	DB	00H
	DB	00H
	DB	00H
	DB	00H
	DB	00H
	DB	00H
	DB	00H
	DB	00H
	DB	00H
	DB	00H
	DB	00H
	DB	00H
	DB	00H
	DB	00H
	DB	00H
	DB	00H
	DB	00H
	DB	00H
	DB	00H
	DB	00H
	DB	00H
	DB	00H
	DB	00H
	DB	00H
	DB	00H
	DB	00H
	DB	0fH
	DB	09dH
	DB	00H
	DB	00H
	DB	00H
	DB	00H
	DB	00H
	DB	00H
	DB	00H
	DB	00H
	DB	00H
	DB	00H
	DB	00H
	DB	00H
	DB	00H
	DB	00H
	DB	00H
	DB	00H
	DB	00H
	DB	00H
	DB	00H
	DB	00H
	DB	00H
	DB	00H
	DB	00H
	DB	022H
	DB	028H
	DB	028H
	DB	06H
	DB	06H
	DB	06H
	DB	06H
	DB	06H
	DB	06H
	DB	06H
	DB	06H
	DB	06H
	DB	075H
	DB	099H
	DB	083H
	DB	01fH
	DB	034H
	DB	01fH
	DB	066H
	DB	075H
	DB	020H
	DB	0eH
	DB	029H
	DB	01aH
	DB	02H
	DB	02H
	DB	02H
	DB	02H
	DB	02H
	DB	02H
	DB	02H
	DB	02H
	DB	02H
	DB	02H
	DB	02H
	DB	027H
	DB	021H
	DB	017H
	DB	02H
	DB	02H
	DB	02H
	DB	02H
	DB	02H
	DB	02H
	DB	02H
	DB	02H
	DB	02H
	DB	02H
	DB	01aH
	DB	07bH
	DB	02bH
	DB	028H
	DB	064H
	DB	083H
	DB	034H
	DB	01fH
	DB	034H
	DB	05cH
	DB	02dH
	DB	06H
	DB	06H
	DB	06H
	DB	06H
	DB	06H
	DB	06H
	DB	06H
	DB	06H
	DB	06H
	DB	028H
	DB	06H
	DB	01H
	DB	00H
	DB	00H
	DB	00H
	DB	00H
	DB	00H
	DB	00H
	DB	00H
	DB	00H
	DB	00H
	DB	00H
	DB	00H
	DB	00H
	DB	00H
	DB	00H
	DB	00H
	DB	00H
	DB	00H
	DB	00H
	DB	00H
	DB	00H
	DB	00H
	DB	00H
	DB	00H
	DB	00H
	DB	00H
	DB	00H
	DB	00H
	DB	00H
	DB	00H
	DB	00H
	DB	00H
	DB	0fH
	DB	09dH
	DB	00H
	DB	00H
	DB	00H
	DB	00H
	DB	00H
	DB	00H
	DB	00H
	DB	00H
	DB	00H
	DB	00H
	DB	00H
	DB	00H
	DB	00H
	DB	00H
	DB	00H
	DB	00H
	DB	00H
	DB	00H
	DB	00H
	DB	00H
	DB	00H
	DB	00H
	DB	00H
	DB	022H
	DB	020H
	DB	028H
	DB	028H
	DB	028H
	DB	028H
	DB	028H
	DB	028H
	DB	028H
	DB	028H
	DB	028H
	DB	028H
	DB	030H
	DB	03eH
	DB	040H
	DB	01fH
	DB	01fH
	DB	03eH
	DB	022H
	DB	020H
	DB	028H
	DB	0c2H
	DB	01aH
	DB	02H
	DB	02H
	DB	02H
	DB	02H
	DB	02H
	DB	02H
	DB	02H
	DB	02H
	DB	02H
	DB	02H
	DB	02H
	DB	02H
	DB	02H
	DB	02H
	DB	02H
	DB	02H
	DB	02H
	DB	02H
	DB	02H
	DB	02H
	DB	02H
	DB	02H
	DB	02H
	DB	02H
	DB	02H
	DB	02H
	DB	01aH
	DB	04H
	DB	02bH
	DB	02dH
	DB	06aH
	DB	040H
	DB	01fH
	DB	01fH
	DB	040H
	DB	066H
	DB	075H
	DB	028H
	DB	028H
	DB	028H
	DB	028H
	DB	028H
	DB	028H
	DB	028H
	DB	028H
	DB	028H
	DB	028H
	DB	0fH
	DB	00H
	DB	00H
	DB	00H
	DB	00H
	DB	00H
	DB	00H
	DB	00H
	DB	00H
	DB	00H
	DB	00H
	DB	00H
	DB	00H
	DB	00H
	DB	00H
	DB	00H
	DB	00H
	DB	00H
	DB	00H
	DB	00H
	DB	00H
	DB	00H
	DB	00H
	DB	00H
	DB	00H
	DB	00H
	DB	00H
	DB	00H
	DB	00H
	DB	00H
	DB	00H
	DB	00H
	DB	0fH
	DB	09dH
	DB	00H
	DB	00H
	DB	00H
	DB	00H
	DB	00H
	DB	00H
	DB	00H
	DB	00H
	DB	00H
	DB	00H
	DB	00H
	DB	00H
	DB	00H
	DB	00H
	DB	00H
	DB	00H
	DB	00H
	DB	00H
	DB	00H
	DB	00H
	DB	00H
	DB	00H
	DB	00H
	DB	00H
	DB	020H
	DB	020H
	DB	020H
	DB	020H
	DB	020H
	DB	020H
	DB	020H
	DB	020H
	DB	020H
	DB	028H
	DB	02dH
	DB	06aH
	DB	054H
	DB	01fH
	DB	01fH
	DB	054H
	DB	030H
	DB	075H
	DB	02bH
	DB	0cH
	DB	0feH
	DB	02H
	DB	02H
	DB	02H
	DB	02H
	DB	02H
	DB	02H
	DB	02H
	DB	02H
	DB	02H
	DB	02H
	DB	02H
	DB	02H
	DB	02H
	DB	02H
	DB	02H
	DB	02H
	DB	02H
	DB	02H
	DB	02H
	DB	02H
	DB	02H
	DB	02H
	DB	02H
	DB	02H
	DB	02H
	DB	02H
	DB	02H
	DB	02H
	DB	027H
	DB	06H
	DB	02dH
	DB	022H
	DB	03eH
	DB	01fH
	DB	01fH
	DB	01fH
	DB	067H
	DB	022H
	DB	020H
	DB	020H
	DB	020H
	DB	020H
	DB	020H
	DB	020H
	DB	020H
	DB	020H
	DB	020H
	DB	020H
	DB	02bH
	DB	00H
	DB	00H
	DB	00H
	DB	00H
	DB	00H
	DB	00H
	DB	00H
	DB	00H
	DB	00H
	DB	00H
	DB	00H
	DB	00H
	DB	00H
	DB	00H
	DB	00H
	DB	00H
	DB	00H
	DB	00H
	DB	00H
	DB	00H
	DB	00H
	DB	00H
	DB	00H
	DB	00H
	DB	00H
	DB	00H
	DB	00H
	DB	00H
	DB	00H
	DB	00H
	DB	00H
	DB	0fH
	DB	09dH
	DB	00H
	DB	00H
	DB	00H
	DB	00H
	DB	00H
	DB	00H
	DB	00H
	DB	00H
	DB	00H
	DB	00H
	DB	00H
	DB	00H
	DB	00H
	DB	00H
	DB	00H
	DB	00H
	DB	00H
	DB	00H
	DB	00H
	DB	00H
	DB	00H
	DB	00H
	DB	00H
	DB	00H
	DB	020H
	DB	020H
	DB	020H
	DB	020H
	DB	020H
	DB	020H
	DB	020H
	DB	020H
	DB	020H
	DB	020H
	DB	030H
	DB	03eH
	DB	040H
	DB	01fH
	DB	01fH
	DB	04fH
	DB	022H
	DB	02bH
	DB	03H
	DB	026H
	DB	02H
	DB	02H
	DB	02H
	DB	02H
	DB	02H
	DB	02H
	DB	02H
	DB	0ffH
	DB	01aH
	DB	01aH
	DB	01aH
	DB	01aH
	DB	01aH
	DB	01aH
	DB	01aH
	DB	01aH
	DB	01aH
	DB	01aH
	DB	01aH
	DB	01aH
	DB	01aH
	DB	01aH
	DB	017H
	DB	02H
	DB	02H
	DB	02H
	DB	02H
	DB	02H
	DB	02H
	DB	02H
	DB	02aH
	DB	00H
	DB	02dH
	DB	064H
	DB	054H
	DB	01fH
	DB	01fH
	DB	040H
	DB	078H
	DB	02dH
	DB	020H
	DB	020H
	DB	020H
	DB	020H
	DB	020H
	DB	020H
	DB	020H
	DB	020H
	DB	020H
	DB	02bH
	DB	00H
	DB	00H
	DB	00H
	DB	00H
	DB	00H
	DB	00H
	DB	00H
	DB	00H
	DB	00H
	DB	00H
	DB	00H
	DB	00H
	DB	00H
	DB	00H
	DB	00H
	DB	00H
	DB	00H
	DB	00H
	DB	00H
	DB	00H
	DB	00H
	DB	00H
	DB	00H
	DB	00H
	DB	00H
	DB	00H
	DB	00H
	DB	00H
	DB	00H
	DB	00H
	DB	00H
	DB	0fH
	DB	09dH
	DB	00H
	DB	00H
	DB	00H
	DB	00H
	DB	00H
	DB	00H
	DB	00H
	DB	00H
	DB	00H
	DB	00H
	DB	00H
	DB	00H
	DB	00H
	DB	00H
	DB	00H
	DB	00H
	DB	00H
	DB	00H
	DB	00H
	DB	00H
	DB	00H
	DB	00H
	DB	00H
	DB	00H
	DB	01H
	DB	01H
	DB	020H
	DB	020H
	DB	020H
	DB	020H
	DB	020H
	DB	020H
	DB	020H
	DB	02dH
	DB	096H
	DB	06fH
	DB	01fH
	DB	01fH
	DB	06fH
	DB	0fH
	DB	02dH
	DB	01H
	DB	014H
	DB	0ffH
	DB	02H
	DB	02H
	DB	02H
	DB	02H
	DB	02H
	DB	02H
	DB	02H
	DB	0f9H
	DB	06H
	DB	0eH
	DB	0eH
	DB	0eH
	DB	0eH
	DB	0eH
	DB	0eH
	DB	0eH
	DB	0eH
	DB	0eH
	DB	0eH
	DB	0eH
	DB	0eH
	DB	020H
	DB	0dH
	DB	02H
	DB	02H
	DB	02H
	DB	02H
	DB	02H
	DB	02H
	DB	02H
	DB	0ffH
	DB	037H
	DB	022H
	DB	022H
	DB	044H
	DB	01fH
	DB	01fH
	DB	01fH
	DB	05bH
	DB	022H
	DB	020H
	DB	020H
	DB	020H
	DB	020H
	DB	020H
	DB	020H
	DB	020H
	DB	020H
	DB	020H
	DB	02bH
	DB	00H
	DB	00H
	DB	00H
	DB	00H
	DB	00H
	DB	00H
	DB	00H
	DB	00H
	DB	00H
	DB	00H
	DB	00H
	DB	00H
	DB	00H
	DB	00H
	DB	00H
	DB	00H
	DB	00H
	DB	00H
	DB	00H
	DB	00H
	DB	00H
	DB	00H
	DB	00H
	DB	00H
	DB	00H
	DB	00H
	DB	00H
	DB	00H
	DB	00H
	DB	00H
	DB	00H
	DB	0fH
	DB	05H
	DB	00H
	DB	00H
	DB	00H
	DB	00H
	DB	00H
	DB	00H
	DB	00H
	DB	00H
	DB	00H
	DB	00H
	DB	00H
	DB	00H
	DB	00H
	DB	00H
	DB	00H
	DB	00H
	DB	00H
	DB	00H
	DB	00H
	DB	00H
	DB	00H
	DB	00H
	DB	00H
	DB	00H
	DB	01H
	DB	01H
	DB	01H
	DB	01H
	DB	01H
	DB	01H
	DB	01H
	DB	01H
	DB	01H
	DB	022H
	DB	043H
	DB	040H
	DB	01fH
	DB	01fH
	DB	043H
	DB	022H
	DB	02bH
	DB	037H
	DB	0bH
	DB	02H
	DB	02H
	DB	02H
	DB	02H
	DB	02H
	DB	02H
	DB	02H
	DB	02H
	DB	021H
	DB	00H
	DB	02bH
	DB	02bH
	DB	02bH
	DB	02bH
	DB	02bH
	DB	02bH
	DB	02bH
	DB	02bH
	DB	02bH
	DB	02bH
	DB	02bH
	DB	02bH
	DB	00H
	DB	07bH
	DB	017H
	DB	02H
	DB	02H
	DB	02H
	DB	02H
	DB	02H
	DB	02H
	DB	02H
	DB	025H
	DB	00H
	DB	022H
	DB	057H
	DB	071H
	DB	01fH
	DB	01fH
	DB	054H
	DB	030H
	DB	02dH
	DB	01H
	DB	01H
	DB	01H
	DB	01H
	DB	01H
	DB	01H
	DB	01H
	DB	01H
	DB	02bH
	DB	00H
	DB	00H
	DB	00H
	DB	00H
	DB	00H
	DB	00H
	DB	00H
	DB	00H
	DB	00H
	DB	00H
	DB	00H
	DB	00H
	DB	00H
	DB	00H
	DB	00H
	DB	00H
	DB	00H
	DB	00H
	DB	00H
	DB	00H
	DB	00H
	DB	00H
	DB	00H
	DB	00H
	DB	00H
	DB	00H
	DB	00H
	DB	00H
	DB	00H
	DB	00H
	DB	00H
	DB	0fH
	DB	05H
	DB	00H
	DB	00H
	DB	00H
	DB	00H
	DB	00H
	DB	00H
	DB	00H
	DB	00H
	DB	00H
	DB	00H
	DB	00H
	DB	00H
	DB	00H
	DB	00H
	DB	00H
	DB	00H
	DB	00H
	DB	00H
	DB	00H
	DB	00H
	DB	00H
	DB	00H
	DB	00H
	DB	00H
	DB	01H
	DB	01H
	DB	01H
	DB	01H
	DB	01H
	DB	01H
	DB	01H
	DB	01H
	DB	01H
	DB	01H
	DB	05cH
	DB	01fH
	DB	01fH
	DB	088H
	DB	064H
	DB	02bH
	DB	02bH
	DB	014H
	DB	0ffH
	DB	02H
	DB	02H
	DB	02H
	DB	02H
	DB	02H
	DB	02H
	DB	02H
	DB	02H
	DB	021H
	DB	00H
	DB	00H
	DB	00H
	DB	00H
	DB	00H
	DB	00H
	DB	00H
	DB	00H
	DB	00H
	DB	00H
	DB	00H
	DB	00H
	DB	00H
	DB	00H
	DB	08H
	DB	017H
	DB	02H
	DB	02H
	DB	02H
	DB	02H
	DB	02H
	DB	02H
	DB	02H
	DB	0ffH
	DB	016H
	DB	00H
	DB	00H
	DB	05cH
	DB	01fH
	DB	01fH
	DB	01cH
	DB	066H
	DB	022H
	DB	01H
	DB	01H
	DB	01H
	DB	01H
	DB	01H
	DB	01H
	DB	01H
	DB	01H
	DB	02bH
	DB	00H
	DB	00H
	DB	00H
	DB	00H
	DB	00H
	DB	00H
	DB	00H
	DB	00H
	DB	00H
	DB	00H
	DB	00H
	DB	00H
	DB	00H
	DB	00H
	DB	00H
	DB	00H
	DB	00H
	DB	00H
	DB	00H
	DB	00H
	DB	00H
	DB	00H
	DB	00H
	DB	00H
	DB	00H
	DB	00H
	DB	00H
	DB	00H
	DB	00H
	DB	00H
	DB	00H
	DB	0fH
	DB	05H
	DB	0fH
	DB	00H
	DB	00H
	DB	00H
	DB	00H
	DB	00H
	DB	00H
	DB	00H
	DB	00H
	DB	00H
	DB	00H
	DB	00H
	DB	00H
	DB	00H
	DB	00H
	DB	00H
	DB	00H
	DB	00H
	DB	00H
	DB	00H
	DB	00H
	DB	00H
	DB	00H
	DB	00H
	DB	01H
	DB	01H
	DB	01H
	DB	01H
	DB	01H
	DB	01H
	DB	01H
	DB	01H
	DB	02dH
	DB	077H
	DB	06fH
	DB	01fH
	DB	01fH
	DB	05eH
	DB	022H
	DB	02bH
	DB	05H
	DB	0fbH
	DB	01aH
	DB	026H
	DB	0feH
	DB	0ffH
	DB	02H
	DB	02H
	DB	02H
	DB	02H
	DB	02H
	DB	02fH
	DB	037H
	DB	016H
	DB	016H
	DB	016H
	DB	016H
	DB	016H
	DB	016H
	DB	016H
	DB	016H
	DB	016H
	DB	016H
	DB	016H
	DB	016H
	DB	0a5H
	DB	0bfH
	DB	017H
	DB	02H
	DB	02H
	DB	02H
	DB	02H
	DB	02H
	DB	02H
	DB	02H
	DB	02H
	DB	014H
	DB	00H
	DB	022H
	DB	04fH
	DB	040H
	DB	01fH
	DB	01fH
	DB	06dH
	DB	00H
	DB	01H
	DB	01H
	DB	01H
	DB	01H
	DB	01H
	DB	01H
	DB	01H
	DB	01H
	DB	0fH
	DB	00H
	DB	00H
	DB	00H
	DB	00H
	DB	00H
	DB	00H
	DB	00H
	DB	00H
	DB	00H
	DB	00H
	DB	00H
	DB	00H
	DB	00H
	DB	00H
	DB	00H
	DB	00H
	DB	00H
	DB	00H
	DB	00H
	DB	00H
	DB	00H
	DB	00H
	DB	00H
	DB	00H
	DB	00H
	DB	00H
	DB	00H
	DB	00H
	DB	00H
	DB	00H
	DB	00H
	DB	0fH
	DB	05H
	DB	0fH
	DB	00H
	DB	00H
	DB	00H
	DB	00H
	DB	00H
	DB	00H
	DB	00H
	DB	00H
	DB	00H
	DB	00H
	DB	00H
	DB	00H
	DB	00H
	DB	00H
	DB	00H
	DB	00H
	DB	00H
	DB	00H
	DB	00H
	DB	00H
	DB	00H
	DB	00H
	DB	00H
	DB	01H
	DB	01H
	DB	01H
	DB	01H
	DB	01H
	DB	01H
	DB	01H
	DB	01H
	DB	022H
	DB	0a1H
	DB	071H
	DB	01fH
	DB	01fH
	DB	044H
	DB	022H
	DB	00H
	DB	051H
	DB	017H
	DB	02H
	DB	0fbH
	DB	0c4H
	DB	051H
	DB	029H
	DB	026H
	DB	0ffH
	DB	02H
	DB	02H
	DB	02H
	DB	017H
	DB	0bH
	DB	0feH
	DB	0feH
	DB	0feH
	DB	0feH
	DB	0feH
	DB	0feH
	DB	0feH
	DB	0feH
	DB	0feH
	DB	0feH
	DB	0feH
	DB	0bH
	DB	01aH
	DB	0ffH
	DB	02H
	DB	02H
	DB	02H
	DB	02H
	DB	02H
	DB	02H
	DB	02H
	DB	02H
	DB	0fbH
	DB	02bH
	DB	022H
	DB	057H
	DB	071H
	DB	01fH
	DB	01fH
	DB	05eH
	DB	00H
	DB	01H
	DB	01H
	DB	01H
	DB	01H
	DB	01H
	DB	01H
	DB	01H
	DB	01H
	DB	0fH
	DB	00H
	DB	00H
	DB	00H
	DB	00H
	DB	00H
	DB	00H
	DB	00H
	DB	00H
	DB	00H
	DB	00H
	DB	00H
	DB	00H
	DB	00H
	DB	00H
	DB	00H
	DB	00H
	DB	00H
	DB	00H
	DB	00H
	DB	00H
	DB	00H
	DB	00H
	DB	00H
	DB	00H
	DB	00H
	DB	00H
	DB	00H
	DB	00H
	DB	00H
	DB	00H
	DB	00H
	DB	0fH
	DB	05H
	DB	0fH
	DB	00H
	DB	00H
	DB	00H
	DB	00H
	DB	00H
	DB	00H
	DB	00H
	DB	00H
	DB	00H
	DB	00H
	DB	00H
	DB	00H
	DB	00H
	DB	00H
	DB	00H
	DB	00H
	DB	00H
	DB	00H
	DB	00H
	DB	00H
	DB	00H
	DB	00H
	DB	022H
	DB	01H
	DB	01H
	DB	01H
	DB	01H
	DB	01H
	DB	01H
	DB	01H
	DB	01H
	DB	022H
	DB	043H
	DB	040H
	DB	01fH
	DB	01cH
	DB	066H
	DB	022H
	DB	022H
	DB	014H
	DB	02H
	DB	02H
	DB	02H
	DB	0ffH
	DB	026H
	DB	0bbH
	DB	019H
	DB	07H
	DB	0cH
	DB	0f6H
	DB	0feH
	DB	02H
	DB	02H
	DB	02H
	DB	02H
	DB	02H
	DB	02H
	DB	02H
	DB	02H
	DB	02H
	DB	02H
	DB	02H
	DB	02H
	DB	02H
	DB	02H
	DB	02H
	DB	02H
	DB	02H
	DB	02H
	DB	02H
	DB	02H
	DB	02H
	DB	02H
	DB	02H
	DB	02H
	DB	017H
	DB	05H
	DB	00H
	DB	030H
	DB	0ccH
	DB	01fH
	DB	01fH
	DB	054H
	DB	030H
	DB	01H
	DB	01H
	DB	01H
	DB	01H
	DB	01H
	DB	01H
	DB	01H
	DB	01H
	DB	0fH
	DB	00H
	DB	00H
	DB	00H
	DB	00H
	DB	00H
	DB	00H
	DB	00H
	DB	00H
	DB	00H
	DB	00H
	DB	00H
	DB	00H
	DB	00H
	DB	00H
	DB	00H
	DB	00H
	DB	00H
	DB	00H
	DB	00H
	DB	00H
	DB	00H
	DB	00H
	DB	00H
	DB	00H
	DB	00H
	DB	00H
	DB	00H
	DB	00H
	DB	00H
	DB	00H
	DB	00H
	DB	0fH
	DB	05H
	DB	0fH
	DB	00H
	DB	00H
	DB	00H
	DB	00H
	DB	00H
	DB	00H
	DB	00H
	DB	00H
	DB	00H
	DB	00H
	DB	00H
	DB	00H
	DB	00H
	DB	00H
	DB	00H
	DB	00H
	DB	00H
	DB	00H
	DB	00H
	DB	00H
	DB	00H
	DB	00H
	DB	0fH
	DB	01H
	DB	01H
	DB	01H
	DB	01H
	DB	01H
	DB	01H
	DB	01H
	DB	01H
	DB	022H
	DB	03eH
	DB	01cH
	DB	01fH
	DB	055H
	DB	057H
	DB	022H
	DB	01H
	DB	025H
	DB	02H
	DB	02H
	DB	02H
	DB	02H
	DB	02H
	DB	0ffH
	DB	0fbH
	DB	012H
	DB	019H
	DB	00H
	DB	0fH
	DB	04H
	DB	0c4H
	DB	021H
	DB	017H
	DB	02H
	DB	0ffH
	DB	021H
	DB	026H
	DB	0ffH
	DB	02H
	DB	02H
	DB	02H
	DB	02H
	DB	02H
	DB	02H
	DB	02H
	DB	02H
	DB	02H
	DB	02H
	DB	02H
	DB	02H
	DB	02H
	DB	02H
	DB	02H
	DB	02H
	DB	02eH
	DB	00H
	DB	00H
	DB	05bH
	DB	01fH
	DB	01fH
	DB	088H
	DB	065H
	DB	02bH
	DB	01H
	DB	01H
	DB	01H
	DB	01H
	DB	01H
	DB	01H
	DB	01H
	DB	0fH
	DB	00H
	DB	00H
	DB	00H
	DB	00H
	DB	00H
	DB	00H
	DB	00H
	DB	00H
	DB	00H
	DB	00H
	DB	00H
	DB	00H
	DB	00H
	DB	00H
	DB	00H
	DB	00H
	DB	00H
	DB	00H
	DB	00H
	DB	00H
	DB	00H
	DB	00H
	DB	00H
	DB	00H
	DB	00H
	DB	00H
	DB	00H
	DB	00H
	DB	00H
	DB	00H
	DB	00H
	DB	0fH
	DB	05H
	DB	0fH
	DB	00H
	DB	0fH
	DB	0fH
	DB	0fH
	DB	0fH
	DB	0fH
	DB	0fH
	DB	0fH
	DB	0fH
	DB	0fH
	DB	0fH
	DB	0fH
	DB	0fH
	DB	0fH
	DB	0fH
	DB	0fH
	DB	0fH
	DB	0fH
	DB	0fH
	DB	0fH
	DB	0fH
	DB	0fH
	DB	0fH
	DB	01H
	DB	01H
	DB	01H
	DB	01H
	DB	01H
	DB	01H
	DB	01H
	DB	01H
	DB	02bH
	DB	05bH
	DB	01cH
	DB	01fH
	DB	071H
	DB	031H
	DB	00H
	DB	07H
	DB	0fbH
	DB	02H
	DB	02H
	DB	02H
	DB	02H
	DB	02H
	DB	02H
	DB	02H
	DB	02H
	DB	0feH
	DB	014H
	DB	03H
	DB	00H
	DB	00H
	DB	00H
	DB	07H
	DB	051H
	DB	03H
	DB	00H
	DB	00H
	DB	04eH
	DB	01aH
	DB	02H
	DB	02H
	DB	02H
	DB	02H
	DB	02H
	DB	02H
	DB	02H
	DB	02H
	DB	02H
	DB	02H
	DB	0ffH
	DB	01aH
	DB	01aH
	DB	01aH
	DB	017H
	DB	011H
	DB	00H
	DB	00H
	DB	06dH
	DB	01cH
	DB	01fH
	DB	040H
	DB	078H
	DB	022H
	DB	01H
	DB	01H
	DB	01H
	DB	01H
	DB	01H
	DB	01H
	DB	01H
	DB	0fH
	DB	00H
	DB	0fH
	DB	0fH
	DB	0fH
	DB	0fH
	DB	0fH
	DB	0fH
	DB	0fH
	DB	0fH
	DB	0fH
	DB	0fH
	DB	0fH
	DB	0fH
	DB	0fH
	DB	0fH
	DB	0fH
	DB	0fH
	DB	0fH
	DB	0fH
	DB	0fH
	DB	0fH
	DB	0fH
	DB	0fH
	DB	0fH
	DB	00H
	DB	00H
	DB	00H
	DB	00H
	DB	00H
	DB	00H
	DB	00H
	DB	0fH
	DB	05H
	DB	0fH
	DB	00H
	DB	0fH
	DB	0fH
	DB	0fH
	DB	0fH
	DB	0fH
	DB	0fH
	DB	0fH
	DB	0fH
	DB	0fH
	DB	0fH
	DB	0fH
	DB	0fH
	DB	0fH
	DB	0fH
	DB	0fH
	DB	0fH
	DB	0fH
	DB	0fH
	DB	0fH
	DB	0fH
	DB	0fH
	DB	0fH
	DB	01H
	DB	01H
	DB	01H
	DB	01H
	DB	01H
	DB	01H
	DB	01H
	DB	01H
	DB	0fH
	DB	067H
	DB	01cH
	DB	01fH
	DB	060H
	DB	0fH
	DB	022H
	DB	06H
	DB	010H
	DB	0cH
	DB	0cH
	DB	051H
	DB	013H
	DB	02H
	DB	02H
	DB	02H
	DB	02H
	DB	02H
	DB	02H
	DB	01aH
	DB	013H
	DB	08H
	DB	01H
	DB	00H
	DB	00H
	DB	00H
	DB	01H
	DB	01H
	DB	00H
	DB	011H
	DB	02H
	DB	02H
	DB	02H
	DB	02H
	DB	02H
	DB	02H
	DB	02H
	DB	02H
	DB	02H
	DB	0ffH
	DB	010H
	DB	01H
	DB	06H
	DB	06H
	DB	06H
	DB	063H
	DB	01H
	DB	00H
	DB	044H
	DB	01cH
	DB	01fH
	DB	01cH
	DB	036H
	DB	022H
	DB	01H
	DB	01H
	DB	01H
	DB	01H
	DB	01H
	DB	01H
	DB	01H
	DB	0fH
	DB	022H
	DB	0fH
	DB	0fH
	DB	0fH
	DB	0fH
	DB	0fH
	DB	0fH
	DB	0fH
	DB	0fH
	DB	0fH
	DB	0fH
	DB	0fH
	DB	0fH
	DB	0fH
	DB	0fH
	DB	0fH
	DB	0fH
	DB	0fH
	DB	0fH
	DB	0fH
	DB	0fH
	DB	0fH
	DB	0fH
	DB	0fH
	DB	022H
	DB	00H
	DB	00H
	DB	00H
	DB	00H
	DB	00H
	DB	00H
	DB	0fH
	DB	05H
	DB	0fH
	DB	0fH
	DB	0fH
	DB	0fH
	DB	0fH
	DB	0fH
	DB	0fH
	DB	0fH
	DB	0fH
	DB	0fH
	DB	0fH
	DB	0fH
	DB	0fH
	DB	0fH
	DB	0fH
	DB	0fH
	DB	0fH
	DB	0fH
	DB	0fH
	DB	0fH
	DB	0fH
	DB	0fH
	DB	0fH
	DB	0fH
	DB	01H
	DB	01H
	DB	01H
	DB	01H
	DB	01H
	DB	01H
	DB	01H
	DB	01H
	DB	0fH
	DB	067H
	DB	01cH
	DB	01fH
	DB	060H
	DB	0fH
	DB	02dH
	DB	0fH
	DB	00H
	DB	00H
	DB	00H
	DB	00H
	DB	01H
	DB	027H
	DB	02H
	DB	02H
	DB	02H
	DB	02H
	DB	02H
	DB	02H
	DB	02H
	DB	017H
	DB	025H
	DB	0aH
	DB	01H
	DB	01H
	DB	01H
	DB	01H
	DB	00H
	DB	03H
	DB	01aH
	DB	02H
	DB	02H
	DB	02H
	DB	02H
	DB	02H
	DB	02H
	DB	02H
	DB	02H
	DB	0ffH
	DB	03H
	DB	00H
	DB	00H
	DB	00H
	DB	00H
	DB	018H
	DB	01H
	DB	022H
	DB	043H
	DB	040H
	DB	01cH
	DB	01cH
	DB	0a1H
	DB	022H
	DB	01H
	DB	01H
	DB	01H
	DB	01H
	DB	01H
	DB	01H
	DB	01H
	DB	0fH
	DB	0fH
	DB	0fH
	DB	0fH
	DB	0fH
	DB	0fH
	DB	0fH
	DB	0fH
	DB	0fH
	DB	0fH
	DB	0fH
	DB	0fH
	DB	0fH
	DB	0fH
	DB	0fH
	DB	0fH
	DB	0fH
	DB	0fH
	DB	0fH
	DB	0fH
	DB	0fH
	DB	0fH
	DB	0fH
	DB	0fH
	DB	0fH
	DB	0fH
	DB	00H
	DB	00H
	DB	00H
	DB	00H
	DB	00H
	DB	00H
	DB	0fH
	DB	02cH
	DB	0fH
	DB	0fH
	DB	0fH
	DB	0fH
	DB	0fH
	DB	0fH
	DB	0fH
	DB	0fH
	DB	0fH
	DB	0fH
	DB	0fH
	DB	0fH
	DB	0fH
	DB	0fH
	DB	0fH
	DB	0fH
	DB	0fH
	DB	0fH
	DB	0fH
	DB	0fH
	DB	0fH
	DB	0fH
	DB	0fH
	DB	0fH
	DB	01H
	DB	01H
	DB	01H
	DB	01H
	DB	01H
	DB	01H
	DB	01H
	DB	01H
	DB	018H
	DB	067H
	DB	01cH
	DB	01fH
	DB	060H
	DB	0fH
	DB	022H
	DB	06H
	DB	0a8H
	DB	038H
	DB	08H
	DB	0a8H
	DB	0bbH
	DB	0bH
	DB	02H
	DB	02H
	DB	02H
	DB	02H
	DB	02H
	DB	02H
	DB	02H
	DB	02H
	DB	02H
	DB	0ffH
	DB	07bH
	DB	00H
	DB	01H
	DB	01H
	DB	00H
	DB	02eH
	DB	017H
	DB	02H
	DB	02H
	DB	02H
	DB	02H
	DB	02H
	DB	02H
	DB	02H
	DB	02H
	DB	02H
	DB	02fH
	DB	014H
	DB	029H
	DB	0c6H
	DB	014H
	DB	038H
	DB	00H
	DB	022H
	DB	043H
	DB	040H
	DB	01cH
	DB	01cH
	DB	0a0H
	DB	022H
	DB	01H
	DB	01H
	DB	01H
	DB	01H
	DB	01H
	DB	01H
	DB	01H
	DB	0fH
	DB	0fH
	DB	0fH
	DB	0fH
	DB	0fH
	DB	0fH
	DB	0fH
	DB	0fH
	DB	0fH
	DB	0fH
	DB	0fH
	DB	0fH
	DB	0fH
	DB	0fH
	DB	0fH
	DB	0fH
	DB	0fH
	DB	0fH
	DB	0fH
	DB	0fH
	DB	0fH
	DB	0fH
	DB	0fH
	DB	0fH
	DB	0fH
	DB	0fH
	DB	00H
	DB	00H
	DB	00H
	DB	00H
	DB	00H
	DB	00H
	DB	0fH
	DB	0a5H
	DB	018H
	DB	0fH
	DB	0fH
	DB	0fH
	DB	0fH
	DB	0fH
	DB	0fH
	DB	0fH
	DB	0fH
	DB	0fH
	DB	0fH
	DB	0fH
	DB	0fH
	DB	0fH
	DB	0fH
	DB	0fH
	DB	0fH
	DB	0fH
	DB	0fH
	DB	0fH
	DB	0fH
	DB	0fH
	DB	0fH
	DB	0fH
	DB	01H
	DB	01H
	DB	01H
	DB	01H
	DB	01H
	DB	01H
	DB	01H
	DB	01H
	DB	02bH
	DB	03fH
	DB	01cH
	DB	01cH
	DB	048H
	DB	031H
	DB	00H
	DB	07H
	DB	021H
	DB	01aH
	DB	01aH
	DB	01aH
	DB	017H
	DB	0ffH
	DB	02H
	DB	02H
	DB	02H
	DB	02H
	DB	02H
	DB	02H
	DB	02H
	DB	02H
	DB	02H
	DB	02H
	DB	027H
	DB	024H
	DB	00H
	DB	00H
	DB	05H
	DB	035H
	DB	0ffH
	DB	02H
	DB	02H
	DB	02H
	DB	02H
	DB	02H
	DB	02H
	DB	02H
	DB	02H
	DB	02H
	DB	02H
	DB	02H
	DB	0ffH
	DB	0ffH
	DB	02H
	DB	0bfH
	DB	00H
	DB	022H
	DB	044H
	DB	01cH
	DB	01cH
	DB	040H
	DB	078H
	DB	022H
	DB	01H
	DB	01H
	DB	01H
	DB	01H
	DB	01H
	DB	01H
	DB	01H
	DB	0fH
	DB	0fH
	DB	0fH
	DB	0fH
	DB	0fH
	DB	0fH
	DB	0fH
	DB	0fH
	DB	0fH
	DB	0fH
	DB	0fH
	DB	0fH
	DB	0fH
	DB	0fH
	DB	0fH
	DB	0fH
	DB	0fH
	DB	0fH
	DB	0fH
	DB	0fH
	DB	0fH
	DB	0fH
	DB	0fH
	DB	0fH
	DB	0fH
	DB	0fH
	DB	00H
	DB	00H
	DB	00H
	DB	00H
	DB	00H
	DB	00H
	DB	0fH
	DB	0a5H
	DB	01H
	DB	0fH
	DB	0fH
	DB	0fH
	DB	0fH
	DB	0fH
	DB	0fH
	DB	0fH
	DB	0fH
	DB	0fH
	DB	0fH
	DB	0fH
	DB	0fH
	DB	0fH
	DB	0fH
	DB	0fH
	DB	0fH
	DB	0fH
	DB	0fH
	DB	0fH
	DB	0fH
	DB	0fH
	DB	0fH
	DB	0fH
	DB	01H
	DB	01H
	DB	01H
	DB	01H
	DB	01H
	DB	01H
	DB	01H
	DB	01H
	DB	022H
	DB	05bH
	DB	01cH
	DB	01cH
	DB	055H
	DB	057H
	DB	00H
	DB	01eH
	DB	0f9H
	DB	02H
	DB	02H
	DB	02H
	DB	02H
	DB	02H
	DB	02H
	DB	02H
	DB	02H
	DB	02H
	DB	02H
	DB	02H
	DB	02H
	DB	02H
	DB	02H
	DB	02H
	DB	02H
	DB	02fH
	DB	014H
	DB	0c6H
	DB	021H
	DB	017H
	DB	02H
	DB	02H
	DB	02H
	DB	02H
	DB	02H
	DB	02H
	DB	02H
	DB	02H
	DB	02H
	DB	02H
	DB	02H
	DB	02H
	DB	02H
	DB	02H
	DB	02H
	DB	03aH
	DB	00H
	DB	022H
	DB	06dH
	DB	01cH
	DB	01cH
	DB	055H
	DB	057H
	DB	022H
	DB	01H
	DB	01H
	DB	01H
	DB	01H
	DB	01H
	DB	01H
	DB	01H
	DB	0fH
	DB	0fH
	DB	0fH
	DB	0fH
	DB	0fH
	DB	0fH
	DB	0fH
	DB	0fH
	DB	0fH
	DB	0fH
	DB	0fH
	DB	0fH
	DB	0fH
	DB	0fH
	DB	0fH
	DB	0fH
	DB	0fH
	DB	0fH
	DB	0fH
	DB	0fH
	DB	0fH
	DB	0fH
	DB	0fH
	DB	0fH
	DB	0fH
	DB	0fH
	DB	00H
	DB	00H
	DB	00H
	DB	00H
	DB	00H
	DB	00H
	DB	0fH
	DB	0a6H
	DB	01H
	DB	0fH
	DB	018H
	DB	018H
	DB	018H
	DB	018H
	DB	018H
	DB	018H
	DB	018H
	DB	018H
	DB	018H
	DB	018H
	DB	018H
	DB	018H
	DB	018H
	DB	018H
	DB	018H
	DB	018H
	DB	018H
	DB	018H
	DB	018H
	DB	018H
	DB	018H
	DB	0fH
	DB	01H
	DB	01H
	DB	01H
	DB	01H
	DB	01H
	DB	01H
	DB	01H
	DB	01H
	DB	00H
	DB	044H
	DB	01cH
	DB	01cH
	DB	01cH
	DB	036H
	DB	022H
	DB	00H
	DB	0f6H
	DB	02H
	DB	02H
	DB	02H
	DB	02H
	DB	02H
	DB	02H
	DB	02H
	DB	02H
	DB	02H
	DB	02H
	DB	02H
	DB	02H
	DB	02H
	DB	02H
	DB	02H
	DB	02H
	DB	02H
	DB	02H
	DB	0ffH
	DB	02H
	DB	02H
	DB	02H
	DB	02H
	DB	02H
	DB	02H
	DB	02H
	DB	02H
	DB	02H
	DB	02H
	DB	02H
	DB	02H
	DB	02H
	DB	02H
	DB	02H
	DB	02H
	DB	017H
	DB	02cH
	DB	00H
	DB	0fH
	DB	03fH
	DB	01cH
	DB	01cH
	DB	060H
	DB	030H
	DB	01H
	DB	01H
	DB	01H
	DB	01H
	DB	01H
	DB	01H
	DB	01H
	DB	01H
	DB	018H
	DB	0fH
	DB	018H
	DB	018H
	DB	018H
	DB	018H
	DB	018H
	DB	018H
	DB	018H
	DB	018H
	DB	018H
	DB	018H
	DB	018H
	DB	018H
	DB	018H
	DB	018H
	DB	018H
	DB	018H
	DB	018H
	DB	018H
	DB	018H
	DB	018H
	DB	018H
	DB	018H
	DB	018H
	DB	0fH
	DB	00H
	DB	00H
	DB	00H
	DB	00H
	DB	00H
	DB	00H
	DB	0fH
	DB	0a6H
	DB	01H
	DB	018H
	DB	01H
	DB	01H
	DB	01H
	DB	01H
	DB	01H
	DB	01H
	DB	01H
	DB	01H
	DB	01H
	DB	01H
	DB	01H
	DB	01H
	DB	01H
	DB	01H
	DB	01H
	DB	01H
	DB	01H
	DB	01H
	DB	01H
	DB	01H
	DB	01H
	DB	018H
	DB	01H
	DB	01H
	DB	01H
	DB	01H
	DB	01H
	DB	01H
	DB	01H
	DB	01H
	DB	022H
	DB	04fH
	DB	055H
	DB	01cH
	DB	01cH
	DB	043H
	DB	00H
	DB	00H
	DB	0c1H
	DB	02H
	DB	02H
	DB	02H
	DB	02H
	DB	02H
	DB	02H
	DB	02H
	DB	02H
	DB	02H
	DB	02H
	DB	02H
	DB	02H
	DB	02H
	DB	02H
	DB	02H
	DB	02H
	DB	02H
	DB	02H
	DB	02H
	DB	02H
	DB	02H
	DB	02H
	DB	02H
	DB	02H
	DB	02H
	DB	02H
	DB	02H
	DB	02H
	DB	02H
	DB	02H
	DB	02H
	DB	02H
	DB	02H
	DB	02H
	DB	02H
	DB	0bH
	DB	0fH
	DB	022H
	DB	031H
	DB	053H
	DB	01cH
	DB	01cH
	DB	05eH
	DB	00H
	DB	01H
	DB	01H
	DB	01H
	DB	01H
	DB	01H
	DB	01H
	DB	01H
	DB	01H
	DB	018H
	DB	01H
	DB	01H
	DB	01H
	DB	01H
	DB	01H
	DB	01H
	DB	01H
	DB	01H
	DB	01H
	DB	01H
	DB	01H
	DB	01H
	DB	01H
	DB	01H
	DB	01H
	DB	01H
	DB	01H
	DB	01H
	DB	01H
	DB	01H
	DB	01H
	DB	01H
	DB	01H
	DB	01H
	DB	0fH
	DB	00H
	DB	00H
	DB	00H
	DB	00H
	DB	00H
	DB	00H
	DB	0fH
	DB	03H
	DB	020H
	DB	01H
	DB	01H
	DB	01H
	DB	01H
	DB	01H
	DB	01H
	DB	01H
	DB	01H
	DB	01H
	DB	01H
	DB	01H
	DB	01H
	DB	01H
	DB	01H
	DB	01H
	DB	01H
	DB	01H
	DB	01H
	DB	01H
	DB	01H
	DB	01H
	DB	01H
	DB	018H
	DB	01H
	DB	01H
	DB	01H
	DB	01H
	DB	01H
	DB	01H
	DB	01H
	DB	01H
	DB	022H
	DB	059H
	DB	048H
	DB	01cH
	DB	01cH
	DB	03fH
	DB	00H
	DB	00H
	DB	04H
	DB	017H
	DB	02H
	DB	02H
	DB	02H
	DB	02H
	DB	02H
	DB	02H
	DB	02H
	DB	02H
	DB	02H
	DB	02H
	DB	02H
	DB	02H
	DB	02H
	DB	02H
	DB	02H
	DB	02H
	DB	02H
	DB	02H
	DB	02H
	DB	02H
	DB	02H
	DB	02H
	DB	02H
	DB	02H
	DB	02H
	DB	02H
	DB	02H
	DB	02H
	DB	02H
	DB	02H
	DB	02H
	DB	02H
	DB	02H
	DB	02H
	DB	014H
	DB	00H
	DB	022H
	DB	036H
	DB	048H
	DB	01cH
	DB	01cH
	DB	06dH
	DB	00H
	DB	01H
	DB	01H
	DB	01H
	DB	01H
	DB	01H
	DB	01H
	DB	01H
	DB	01H
	DB	01H
	DB	01H
	DB	01H
	DB	01H
	DB	01H
	DB	01H
	DB	01H
	DB	01H
	DB	01H
	DB	01H
	DB	01H
	DB	01H
	DB	01H
	DB	01H
	DB	01H
	DB	01H
	DB	01H
	DB	01H
	DB	01H
	DB	01H
	DB	01H
	DB	01H
	DB	01H
	DB	01H
	DB	01H
	DB	01H
	DB	00H
	DB	00H
	DB	00H
	DB	00H
	DB	00H
	DB	00H
	DB	0fH
	DB	03H
	DB	01eH
	DB	01H
	DB	01H
	DB	01H
	DB	01H
	DB	01H
	DB	01H
	DB	01H
	DB	01H
	DB	01H
	DB	01H
	DB	01H
	DB	01H
	DB	01H
	DB	01H
	DB	01H
	DB	01H
	DB	01H
	DB	01H
	DB	01H
	DB	01H
	DB	01H
	DB	01H
	DB	01H
	DB	01H
	DB	01H
	DB	01H
	DB	01H
	DB	01H
	DB	01H
	DB	01H
	DB	01H
	DB	018H
	DB	030H
	DB	053H
	DB	01cH
	DB	01cH
	DB	048H
	DB	031H
	DB	022H
	DB	01H
	DB	021H
	DB	02H
	DB	02H
	DB	02H
	DB	02H
	DB	02H
	DB	02H
	DB	02H
	DB	02H
	DB	02H
	DB	02H
	DB	02H
	DB	02H
	DB	02H
	DB	02H
	DB	02H
	DB	02H
	DB	02H
	DB	02H
	DB	02H
	DB	02H
	DB	02H
	DB	02H
	DB	02H
	DB	02H
	DB	02H
	DB	02H
	DB	02H
	DB	02H
	DB	02H
	DB	02H
	DB	02H
	DB	02H
	DB	02H
	DB	02H
	DB	04H
	DB	00H
	DB	022H
	DB	044H
	DB	055H
	DB	01cH
	DB	023H
	DB	036H
	DB	022H
	DB	01H
	DB	01H
	DB	01H
	DB	01H
	DB	01H
	DB	01H
	DB	01H
	DB	01H
	DB	01H
	DB	01H
	DB	01H
	DB	01H
	DB	01H
	DB	01H
	DB	01H
	DB	01H
	DB	01H
	DB	01H
	DB	01H
	DB	01H
	DB	01H
	DB	01H
	DB	01H
	DB	01H
	DB	01H
	DB	01H
	DB	01H
	DB	01H
	DB	01H
	DB	01H
	DB	01H
	DB	01H
	DB	01H
	DB	01H
	DB	00H
	DB	00H
	DB	00H
	DB	00H
	DB	00H
	DB	00H
	DB	0fH
	DB	03H
	DB	01eH
	DB	01H
	DB	020H
	DB	020H
	DB	020H
	DB	020H
	DB	020H
	DB	020H
	DB	020H
	DB	020H
	DB	020H
	DB	020H
	DB	020H
	DB	020H
	DB	020H
	DB	020H
	DB	020H
	DB	020H
	DB	020H
	DB	020H
	DB	020H
	DB	020H
	DB	020H
	DB	01H
	DB	01H
	DB	01H
	DB	01H
	DB	01H
	DB	01H
	DB	01H
	DB	01H
	DB	01H
	DB	01H
	DB	022H
	DB	06dH
	DB	023H
	DB	01cH
	DB	023H
	DB	04fH
	DB	00H
	DB	00H
	DB	011H
	DB	02H
	DB	02H
	DB	02H
	DB	02H
	DB	02H
	DB	02H
	DB	02H
	DB	02H
	DB	02H
	DB	02H
	DB	02H
	DB	02H
	DB	02H
	DB	02H
	DB	02H
	DB	02H
	DB	02H
	DB	02H
	DB	02H
	DB	02H
	DB	02H
	DB	02H
	DB	02H
	DB	02H
	DB	02H
	DB	02H
	DB	02H
	DB	02H
	DB	02H
	DB	02H
	DB	02H
	DB	02H
	DB	02H
	DB	021H
	DB	00H
	DB	022H
	DB	031H
	DB	03fH
	DB	023H
	DB	01cH
	DB	048H
	DB	031H
	DB	018H
	DB	01H
	DB	01H
	DB	01H
	DB	01H
	DB	01H
	DB	01H
	DB	01H
	DB	01H
	DB	01H
	DB	020H
	DB	020H
	DB	020H
	DB	020H
	DB	020H
	DB	020H
	DB	020H
	DB	020H
	DB	020H
	DB	020H
	DB	020H
	DB	020H
	DB	020H
	DB	020H
	DB	020H
	DB	020H
	DB	020H
	DB	020H
	DB	020H
	DB	020H
	DB	020H
	DB	020H
	DB	020H
	DB	020H
	DB	01H
	DB	00H
	DB	00H
	DB	00H
	DB	00H
	DB	00H
	DB	00H
	DB	0fH
	DB	016H
	DB	01eH
	DB	020H
	DB	020H
	DB	020H
	DB	020H
	DB	020H
	DB	020H
	DB	020H
	DB	020H
	DB	020H
	DB	020H
	DB	020H
	DB	020H
	DB	020H
	DB	020H
	DB	020H
	DB	020H
	DB	020H
	DB	020H
	DB	020H
	DB	020H
	DB	020H
	DB	020H
	DB	01H
	DB	01H
	DB	01H
	DB	01H
	DB	01H
	DB	01H
	DB	01H
	DB	01H
	DB	01H
	DB	01H
	DB	022H
	DB	0a0H
	DB	055H
	DB	023H
	DB	01cH
	DB	05eH
	DB	00H
	DB	0fH
	DB	01eH
	DB	027H
	DB	02H
	DB	02H
	DB	02H
	DB	02H
	DB	02H
	DB	02H
	DB	02H
	DB	02H
	DB	02H
	DB	02H
	DB	02H
	DB	02H
	DB	02H
	DB	02H
	DB	02H
	DB	02H
	DB	02H
	DB	02H
	DB	02H
	DB	02H
	DB	02H
	DB	02H
	DB	02H
	DB	02H
	DB	02H
	DB	02H
	DB	02H
	DB	02H
	DB	02H
	DB	02H
	DB	02H
	DB	02H
	DB	07bH
	DB	00H
	DB	022H
	DB	036H
	DB	048H
	DB	023H
	DB	01cH
	DB	05bH
	DB	00H
	DB	01H
	DB	01H
	DB	01H
	DB	01H
	DB	01H
	DB	01H
	DB	01H
	DB	01H
	DB	01H
	DB	01H
	DB	020H
	DB	020H
	DB	020H
	DB	020H
	DB	020H
	DB	020H
	DB	020H
	DB	020H
	DB	020H
	DB	020H
	DB	020H
	DB	020H
	DB	020H
	DB	020H
	DB	020H
	DB	020H
	DB	020H
	DB	020H
	DB	020H
	DB	020H
	DB	020H
	DB	020H
	DB	020H
	DB	020H
	DB	01H
	DB	00H
	DB	00H
	DB	00H
	DB	00H
	DB	00H
	DB	00H
	DB	018H
	DB	016H
	DB	06H
	DB	01eH
	DB	01eH
	DB	01eH
	DB	01eH
	DB	01eH
	DB	01eH
	DB	01eH
	DB	01eH
	DB	01eH
	DB	01eH
	DB	01eH
	DB	01eH
	DB	01eH
	DB	01eH
	DB	01eH
	DB	01eH
	DB	01eH
	DB	01eH
	DB	01eH
	DB	01eH
	DB	01eH
	DB	01eH
	DB	01H
	DB	01H
	DB	01H
	DB	01H
	DB	01H
	DB	01H
	DB	01H
	DB	01H
	DB	01H
	DB	01H
	DB	018H
	DB	0fH
	DB	053H
	DB	023H
	DB	023H
	DB	023H
	DB	03dH
	DB	022H
	DB	00H
	DB	0aH
	DB	0ffH
	DB	02H
	DB	02H
	DB	02H
	DB	02H
	DB	02H
	DB	02H
	DB	02H
	DB	02H
	DB	02H
	DB	02H
	DB	02H
	DB	02H
	DB	02H
	DB	02H
	DB	02H
	DB	02H
	DB	02H
	DB	02H
	DB	02H
	DB	02H
	DB	02H
	DB	02H
	DB	02H
	DB	02H
	DB	02H
	DB	02H
	DB	02H
	DB	02H
	DB	02H
	DB	02H
	DB	0f6H
	DB	00H
	DB	018H
	DB	030H
	DB	05bH
	DB	023H
	DB	023H
	DB	023H
	DB	036H
	DB	022H
	DB	01H
	DB	01H
	DB	01H
	DB	01H
	DB	01H
	DB	01H
	DB	01H
	DB	01H
	DB	01H
	DB	01H
	DB	01eH
	DB	01eH
	DB	01eH
	DB	01eH
	DB	01eH
	DB	01eH
	DB	01eH
	DB	01eH
	DB	01eH
	DB	01eH
	DB	01eH
	DB	01eH
	DB	01eH
	DB	01eH
	DB	01eH
	DB	01eH
	DB	01eH
	DB	01eH
	DB	01eH
	DB	01eH
	DB	01eH
	DB	01eH
	DB	01eH
	DB	01eH
	DB	020H
	DB	00H
	DB	00H
	DB	00H
	DB	00H
	DB	00H
	DB	00H
	DB	018H
	DB	016H
	DB	06H
	DB	01eH
	DB	063H
	DB	063H
	DB	063H
	DB	063H
	DB	063H
	DB	063H
	DB	063H
	DB	063H
	DB	063H
	DB	063H
	DB	063H
	DB	063H
	DB	063H
	DB	063H
	DB	063H
	DB	063H
	DB	063H
	DB	063H
	DB	063H
	DB	063H
	DB	063H
	DB	020H
	DB	01H
	DB	01H
	DB	01H
	DB	01H
	DB	01H
	DB	01H
	DB	01H
	DB	01H
	DB	01H
	DB	01H
	DB	022H
	DB	050H
	DB	023H
	DB	023H
	DB	023H
	DB	053H
	DB	0fH
	DB	022H
	DB	00H
	DB	09H
	DB	02H
	DB	02H
	DB	02H
	DB	02H
	DB	02H
	DB	02H
	DB	02H
	DB	02H
	DB	02H
	DB	02H
	DB	02H
	DB	02H
	DB	02H
	DB	02H
	DB	02H
	DB	02H
	DB	02H
	DB	02H
	DB	02H
	DB	02H
	DB	02H
	DB	02H
	DB	02H
	DB	02H
	DB	02H
	DB	02H
	DB	02H
	DB	02H
	DB	02H
	DB	01aH
	DB	019H
	DB	022H
	DB	022H
	DB	03dH
	DB	060H
	DB	023H
	DB	023H
	DB	05eH
	DB	00H
	DB	018H
	DB	01H
	DB	01H
	DB	01H
	DB	01H
	DB	01H
	DB	01H
	DB	01H
	DB	01H
	DB	01H
	DB	01H
	DB	063H
	DB	063H
	DB	063H
	DB	063H
	DB	063H
	DB	063H
	DB	063H
	DB	063H
	DB	063H
	DB	063H
	DB	063H
	DB	063H
	DB	063H
	DB	063H
	DB	063H
	DB	063H
	DB	063H
	DB	063H
	DB	063H
	DB	063H
	DB	063H
	DB	063H
	DB	063H
	DB	063H
	DB	020H
	DB	00H
	DB	00H
	DB	00H
	DB	00H
	DB	00H
	DB	00H
	DB	018H
	DB	01bH
	DB	06H
	DB	063H
	DB	06H
	DB	06H
	DB	06H
	DB	06H
	DB	06H
	DB	06H
	DB	06H
	DB	06H
	DB	06H
	DB	06H
	DB	06H
	DB	06H
	DB	06H
	DB	06H
	DB	06H
	DB	06H
	DB	06H
	DB	06H
	DB	06H
	DB	06H
	DB	06H
	DB	01eH
	DB	01H
	DB	01H
	DB	01H
	DB	01H
	DB	01H
	DB	01H
	DB	01H
	DB	01H
	DB	01H
	DB	01H
	DB	018H
	DB	031H
	DB	053H
	DB	023H
	DB	023H
	DB	023H
	DB	039H
	DB	00H
	DB	00H
	DB	063H
	DB	027H
	DB	02H
	DB	02H
	DB	02H
	DB	02H
	DB	02H
	DB	02H
	DB	02H
	DB	02H
	DB	02H
	DB	02H
	DB	02H
	DB	02H
	DB	02H
	DB	02H
	DB	02H
	DB	02H
	DB	02H
	DB	02H
	DB	02H
	DB	02H
	DB	02H
	DB	02H
	DB	02H
	DB	02H
	DB	02H
	DB	02H
	DB	02H
	DB	0ffH
	DB	038H
	DB	00H
	DB	022H
	DB	031H
	DB	03fH
	DB	023H
	DB	023H
	DB	023H
	DB	036H
	DB	022H
	DB	01H
	DB	01H
	DB	01H
	DB	01H
	DB	01H
	DB	01H
	DB	01H
	DB	01H
	DB	01H
	DB	01H
	DB	01H
	DB	06H
	DB	06H
	DB	06H
	DB	06H
	DB	06H
	DB	06H
	DB	06H
	DB	06H
	DB	06H
	DB	06H
	DB	06H
	DB	06H
	DB	06H
	DB	06H
	DB	06H
	DB	06H
	DB	06H
	DB	06H
	DB	06H
	DB	06H
	DB	06H
	DB	06H
	DB	06H
	DB	06H
	DB	01eH
	DB	00H
	DB	00H
	DB	00H
	DB	00H
	DB	00H
	DB	00H
	DB	018H
	DB	01bH
	DB	0eH
	DB	06H
	DB	06H
	DB	06H
	DB	06H
	DB	06H
	DB	06H
	DB	06H
	DB	06H
	DB	06H
	DB	06H
	DB	06H
	DB	06H
	DB	06H
	DB	06H
	DB	06H
	DB	06H
	DB	06H
	DB	06H
	DB	06H
	DB	06H
	DB	06H
	DB	06H
	DB	01eH
	DB	01H
	DB	01H
	DB	01H
	DB	01H
	DB	01H
	DB	01H
	DB	01H
	DB	01H
	DB	01H
	DB	01H
	DB	01H
	DB	022H
	DB	04fH
	DB	023H
	DB	023H
	DB	023H
	DB	072H
	DB	059H
	DB	00H
	DB	00H
	DB	05H
	DB	0feH
	DB	02H
	DB	02H
	DB	02H
	DB	02H
	DB	02H
	DB	02H
	DB	02H
	DB	02H
	DB	02H
	DB	02H
	DB	02H
	DB	02H
	DB	02H
	DB	02H
	DB	02H
	DB	02H
	DB	02H
	DB	02H
	DB	02H
	DB	02H
	DB	02H
	DB	02H
	DB	02H
	DB	02H
	DB	02H
	DB	0ffH
	DB	0cH
	DB	00H
	DB	0fH
	DB	00H
	DB	05aH
	DB	072H
	DB	023H
	DB	023H
	DB	03fH
	DB	00H
	DB	01H
	DB	01H
	DB	01H
	DB	01H
	DB	01H
	DB	01H
	DB	01H
	DB	01H
	DB	01H
	DB	01H
	DB	018H
	DB	01H
	DB	06H
	DB	06H
	DB	06H
	DB	06H
	DB	06H
	DB	06H
	DB	06H
	DB	06H
	DB	06H
	DB	06H
	DB	06H
	DB	06H
	DB	06H
	DB	06H
	DB	06H
	DB	06H
	DB	06H
	DB	06H
	DB	06H
	DB	06H
	DB	06H
	DB	06H
	DB	06H
	DB	06H
	DB	01eH
	DB	00H
	DB	00H
	DB	00H
	DB	00H
	DB	00H
	DB	00H
	DB	018H
	DB	04H
	DB	0eH
	DB	06H
	DB	06H
	DB	06H
	DB	06H
	DB	06H
	DB	06H
	DB	06H
	DB	06H
	DB	06H
	DB	06H
	DB	06H
	DB	06H
	DB	06H
	DB	06H
	DB	06H
	DB	06H
	DB	06H
	DB	06H
	DB	06H
	DB	06H
	DB	06H
	DB	0eH
	DB	063H
	DB	01H
	DB	01H
	DB	01H
	DB	01H
	DB	01H
	DB	01H
	DB	01H
	DB	01H
	DB	01H
	DB	01H
	DB	01H
	DB	01H
	DB	00H
	DB	03fH
	DB	023H
	DB	023H
	DB	023H
	DB	053H
	DB	031H
	DB	022H
	DB	00H
	DB	05H
	DB	02fH
	DB	02H
	DB	02H
	DB	02H
	DB	02H
	DB	02H
	DB	02H
	DB	02H
	DB	02H
	DB	02H
	DB	02H
	DB	02H
	DB	029H
	DB	0a8H
	DB	0feH
	DB	02H
	DB	02H
	DB	02H
	DB	02H
	DB	02H
	DB	02H
	DB	02H
	DB	02H
	DB	02H
	DB	0ffH
	DB	0b9H
	DB	00H
	DB	0fH
	DB	00H
	DB	04fH
	DB	05fH
	DB	023H
	DB	023H
	DB	072H
	DB	041H
	DB	022H
	DB	01H
	DB	01H
	DB	01H
	DB	01H
	DB	01H
	DB	01H
	DB	01H
	DB	01H
	DB	01H
	DB	01H
	DB	018H
	DB	01H
	DB	06H
	DB	06H
	DB	06H
	DB	06H
	DB	06H
	DB	06H
	DB	06H
	DB	06H
	DB	06H
	DB	06H
	DB	06H
	DB	06H
	DB	06H
	DB	06H
	DB	06H
	DB	06H
	DB	06H
	DB	06H
	DB	06H
	DB	06H
	DB	06H
	DB	06H
	DB	06H
	DB	06H
	DB	063H
	DB	00H
	DB	00H
	DB	00H
	DB	00H
	DB	00H
	DB	00H
	DB	018H
	DB	04H
	DB	019H
	DB	0eH
	DB	0eH
	DB	0eH
	DB	0eH
	DB	0eH
	DB	0eH
	DB	0eH
	DB	0eH
	DB	0eH
	DB	0eH
	DB	0eH
	DB	0eH
	DB	0eH
	DB	0eH
	DB	0eH
	DB	0eH
	DB	0eH
	DB	0eH
	DB	0eH
	DB	0eH
	DB	0eH
	DB	0eH
	DB	063H
	DB	01H
	DB	01H
	DB	01H
	DB	01H
	DB	01H
	DB	01H
	DB	01H
	DB	01H
	DB	01H
	DB	01H
	DB	01H
	DB	01H
	DB	022H
	DB	058H
	DB	047H
	DB	023H
	DB	023H
	DB	023H
	DB	03fH
	DB	0fH
	DB	022H
	DB	00H
	DB	0eH
	DB	025H
	DB	02H
	DB	02H
	DB	02H
	DB	02H
	DB	02H
	DB	02H
	DB	02H
	DB	02H
	DB	02H
	DB	0ffH
	DB	05H
	DB	00H
	DB	0c5H
	DB	02H
	DB	02H
	DB	02H
	DB	02H
	DB	02H
	DB	02H
	DB	02H
	DB	02H
	DB	0feH
	DB	01dH
	DB	00H
	DB	0fH
	DB	00H
	DB	036H
	DB	053H
	DB	015H
	DB	023H
	DB	023H
	DB	050H
	DB	022H
	DB	01H
	DB	01H
	DB	01H
	DB	01H
	DB	01H
	DB	01H
	DB	01H
	DB	01H
	DB	01H
	DB	01H
	DB	01H
	DB	018H
	DB	01H
	DB	0eH
	DB	0eH
	DB	0eH
	DB	0eH
	DB	0eH
	DB	0eH
	DB	0eH
	DB	0eH
	DB	0eH
	DB	0eH
	DB	0eH
	DB	0eH
	DB	0eH
	DB	0eH
	DB	0eH
	DB	0eH
	DB	0eH
	DB	0eH
	DB	0eH
	DB	0eH
	DB	0eH
	DB	0eH
	DB	0eH
	DB	0eH
	DB	06H
	DB	00H
	DB	00H
	DB	00H
	DB	00H
	DB	00H
	DB	00H
	DB	01H
	DB	04H
	DB	07H
	DB	0eH
	DB	0eH
	DB	0eH
	DB	0eH
	DB	0eH
	DB	0eH
	DB	0eH
	DB	0eH
	DB	0eH
	DB	0eH
	DB	0eH
	DB	0eH
	DB	0eH
	DB	0eH
	DB	0eH
	DB	0eH
	DB	0eH
	DB	0eH
	DB	0eH
	DB	0eH
	DB	0eH
	DB	019H
	DB	06H
	DB	01H
	DB	01H
	DB	01H
	DB	01H
	DB	01H
	DB	01H
	DB	01H
	DB	01H
	DB	01H
	DB	01H
	DB	01H
	DB	01H
	DB	01H
	DB	022H
	DB	03dH
	DB	072H
	DB	023H
	DB	015H
	DB	015H
	DB	052H
	DB	0fH
	DB	00H
	DB	00H
	DB	00H
	DB	0bcH
	DB	01aH
	DB	02H
	DB	02H
	DB	02H
	DB	02H
	DB	02H
	DB	02H
	DB	02H
	DB	0ffH
	DB	06cH
	DB	00H
	DB	012H
	DB	02H
	DB	02H
	DB	02H
	DB	02H
	DB	02H
	DB	02H
	DB	0ffH
	DB	013H
	DB	06H
	DB	00H
	DB	0fH
	DB	00H
	DB	036H
	DB	046H
	DB	015H
	DB	015H
	DB	023H
	DB	045H
	DB	022H
	DB	01H
	DB	01H
	DB	01H
	DB	01H
	DB	01H
	DB	01H
	DB	01H
	DB	01H
	DB	01H
	DB	01H
	DB	01H
	DB	01H
	DB	018H
	DB	020H
	DB	0eH
	DB	0eH
	DB	0eH
	DB	0eH
	DB	0eH
	DB	0eH
	DB	0eH
	DB	0eH
	DB	0eH
	DB	0eH
	DB	0eH
	DB	0eH
	DB	0eH
	DB	0eH
	DB	0eH
	DB	0eH
	DB	0eH
	DB	0eH
	DB	0eH
	DB	0eH
	DB	0eH
	DB	0eH
	DB	0eH
	DB	0eH
	DB	06H
	DB	00H
	DB	00H
	DB	00H
	DB	00H
	DB	00H
	DB	00H
	DB	01H
	DB	04eH
	DB	07H
	DB	0eH
	DB	019H
	DB	019H
	DB	019H
	DB	019H
	DB	019H
	DB	019H
	DB	019H
	DB	019H
	DB	019H
	DB	019H
	DB	019H
	DB	019H
	DB	019H
	DB	019H
	DB	019H
	DB	019H
	DB	019H
	DB	019H
	DB	019H
	DB	019H
	DB	019H
	DB	06H
	DB	01H
	DB	01H
	DB	01H
	DB	01H
	DB	01H
	DB	01H
	DB	01H
	DB	01H
	DB	01H
	DB	01H
	DB	01H
	DB	01H
	DB	01H
	DB	01H
	DB	00H
	DB	039H
	DB	015H
	DB	015H
	DB	015H
	DB	015H
	DB	07fH
	DB	041H
	DB	00H
	DB	0fH
	DB	00H
	DB	07H
	DB	02aH
	DB	01aH
	DB	02H
	DB	02H
	DB	02H
	DB	02H
	DB	02H
	DB	0ffH
	DB	06cH
	DB	00H
	DB	0c2H
	DB	02H
	DB	02H
	DB	02H
	DB	02H
	DB	0ffH
	DB	025H
	DB	01bH
	DB	00H
	DB	0fH
	DB	0fH
	DB	0fH
	DB	03dH
	DB	046H
	DB	015H
	DB	015H
	DB	023H
	DB	05dH
	DB	022H
	DB	018H
	DB	01H
	DB	01H
	DB	01H
	DB	01H
	DB	01H
	DB	01H
	DB	01H
	DB	01H
	DB	01H
	DB	01H
	DB	01H
	DB	01H
	DB	018H
	DB	020H
	DB	019H
	DB	019H
	DB	019H
	DB	019H
	DB	019H
	DB	019H
	DB	019H
	DB	019H
	DB	019H
	DB	019H
	DB	019H
	DB	019H
	DB	019H
	DB	019H
	DB	019H
	DB	019H
	DB	019H
	DB	019H
	DB	019H
	DB	019H
	DB	019H
	DB	019H
	DB	019H
	DB	019H
	DB	06H
	DB	00H
	DB	00H
	DB	00H
	DB	00H
	DB	00H
	DB	00H
	DB	01H
	DB	0a8H
	DB	07H
	DB	019H
	DB	07H
	DB	07H
	DB	07H
	DB	07H
	DB	07H
	DB	07H
	DB	07H
	DB	07H
	DB	07H
	DB	07H
	DB	07H
	DB	07H
	DB	07H
	DB	07H
	DB	07H
	DB	07H
	DB	07H
	DB	07H
	DB	07H
	DB	07H
	DB	07H
	DB	06H
	DB	01H
	DB	01H
	DB	01H
	DB	01H
	DB	01H
	DB	01H
	DB	01H
	DB	01H
	DB	01H
	DB	01H
	DB	01H
	DB	01H
	DB	01H
	DB	01H
	DB	01H
	DB	00H
	DB	05aH
	DB	015H
	DB	015H
	DB	015H
	DB	015H
	DB	070H
	DB	03dH
	DB	00H
	DB	022H
	DB	0fH
	DB	00H
	DB	0eH
	DB	0cH
	DB	025H
	DB	01aH
	DB	0ffH
	DB	02H
	DB	0ffH
	DB	0a6H
	DB	00H
	DB	029H
	DB	0ffH
	DB	017H
	DB	026H
	DB	012H
	DB	05H
	DB	00H
	DB	00H
	DB	0fH
	DB	00H
	DB	041H
	DB	05aH
	DB	05fH
	DB	015H
	DB	015H
	DB	015H
	DB	046H
	DB	030H
	DB	022H
	DB	01H
	DB	01H
	DB	01H
	DB	01H
	DB	01H
	DB	01H
	DB	01H
	DB	01H
	DB	01H
	DB	01H
	DB	01H
	DB	01H
	DB	01H
	DB	018H
	DB	01eH
	DB	07H
	DB	07H
	DB	07H
	DB	07H
	DB	07H
	DB	07H
	DB	07H
	DB	07H
	DB	07H
	DB	07H
	DB	07H
	DB	07H
	DB	07H
	DB	07H
	DB	07H
	DB	07H
	DB	07H
	DB	07H
	DB	07H
	DB	07H
	DB	07H
	DB	07H
	DB	07H
	DB	07H
	DB	0eH
	DB	00H
	DB	00H
	DB	00H
	DB	00H
	DB	00H
	DB	00H
	DB	01H
	DB	037H
	DB	024H
	DB	07H
	DB	07H
	DB	07H
	DB	07H
	DB	07H
	DB	07H
	DB	07H
	DB	07H
	DB	07H
	DB	07H
	DB	07H
	DB	07H
	DB	07H
	DB	07H
	DB	07H
	DB	07H
	DB	07H
	DB	07H
	DB	07H
	DB	07H
	DB	07H
	DB	07H
	DB	06H
	DB	01H
	DB	01H
	DB	01H
	DB	01H
	DB	01H
	DB	01H
	DB	01H
	DB	01H
	DB	01H
	DB	01H
	DB	01H
	DB	01H
	DB	01H
	DB	01H
	DB	01H
	DB	02dH
	DB	00H
	DB	039H
	DB	03bH
	DB	015H
	DB	015H
	DB	015H
	DB	033H
	DB	045H
	DB	058H
	DB	00H
	DB	022H
	DB	00H
	DB	00H
	DB	00H
	DB	020H
	DB	03H
	DB	02eH
	DB	0cH
	DB	06H
	DB	0fH
	DB	0a5H
	DB	04H
	DB	0eH
	DB	00H
	DB	00H
	DB	00H
	DB	022H
	DB	022H
	DB	030H
	DB	03dH
	DB	052H
	DB	033H
	DB	015H
	DB	015H
	DB	015H
	DB	05dH
	DB	0fH
	DB	022H
	DB	01H
	DB	01H
	DB	01H
	DB	01H
	DB	01H
	DB	01H
	DB	01H
	DB	01H
	DB	01H
	DB	01H
	DB	01H
	DB	01H
	DB	01H
	DB	01H
	DB	018H
	DB	01eH
	DB	07H
	DB	07H
	DB	07H
	DB	07H
	DB	07H
	DB	07H
	DB	07H
	DB	07H
	DB	07H
	DB	07H
	DB	07H
	DB	07H
	DB	07H
	DB	07H
	DB	07H
	DB	07H
	DB	07H
	DB	07H
	DB	07H
	DB	07H
	DB	07H
	DB	07H
	DB	07H
	DB	07H
	DB	0eH
	DB	022H
	DB	00H
	DB	00H
	DB	00H
	DB	00H
	DB	00H
	DB	01H
	DB	0a8H
	DB	024H
	DB	07H
	DB	07H
	DB	07H
	DB	07H
	DB	07H
	DB	07H
	DB	07H
	DB	07H
	DB	07H
	DB	07H
	DB	07H
	DB	07H
	DB	07H
	DB	07H
	DB	07H
	DB	07H
	DB	07H
	DB	07H
	DB	07H
	DB	07H
	DB	07H
	DB	024H
	DB	0eH
	DB	01H
	DB	01H
	DB	01H
	DB	01H
	DB	01H
	DB	01H
	DB	01H
	DB	01H
	DB	01H
	DB	01H
	DB	01H
	DB	01H
	DB	01H
	DB	01H
	DB	01H
	DB	01H
	DB	01H
	DB	00H
	DB	04fH
	DB	033H
	DB	015H
	DB	015H
	DB	015H
	DB	015H
	DB	070H
	DB	039H
	DB	058H
	DB	0fH
	DB	022H
	DB	022H
	DB	022H
	DB	00H
	DB	00H
	DB	00H
	DB	018H
	DB	01H
	DB	022H
	DB	00H
	DB	022H
	DB	022H
	DB	022H
	DB	022H
	DB	031H
	DB	03dH
	DB	045H
	DB	05fH
	DB	03bH
	DB	015H
	DB	015H
	DB	015H
	DB	045H
	DB	022H
	DB	022H
	DB	01H
	DB	01H
	DB	01H
	DB	01H
	DB	01H
	DB	01H
	DB	01H
	DB	01H
	DB	01H
	DB	01H
	DB	01H
	DB	01H
	DB	01H
	DB	01H
	DB	01H
	DB	018H
	DB	01eH
	DB	07H
	DB	07H
	DB	07H
	DB	07H
	DB	07H
	DB	07H
	DB	07H
	DB	07H
	DB	07H
	DB	07H
	DB	07H
	DB	07H
	DB	07H
	DB	07H
	DB	07H
	DB	07H
	DB	07H
	DB	07H
	DB	07H
	DB	07H
	DB	07H
	DB	07H
	DB	07H
	DB	07H
	DB	0eH
	DB	022H
	DB	00H
	DB	00H
	DB	00H
	DB	00H
	DB	00H
	DB	01H
	DB	08H
	DB	032H
	DB	07H
	DB	024H
	DB	024H
	DB	024H
	DB	024H
	DB	024H
	DB	024H
	DB	024H
	DB	024H
	DB	024H
	DB	024H
	DB	024H
	DB	024H
	DB	024H
	DB	024H
	DB	024H
	DB	024H
	DB	024H
	DB	024H
	DB	024H
	DB	024H
	DB	024H
	DB	0eH
	DB	01H
	DB	01H
	DB	01H
	DB	01H
	DB	01H
	DB	01H
	DB	01H
	DB	01H
	DB	01H
	DB	01H
	DB	01H
	DB	01H
	DB	01H
	DB	01H
	DB	01H
	DB	01H
	DB	01H
	DB	01H
	DB	022H
	DB	059H
	DB	046H
	DB	015H
	DB	015H
	DB	015H
	DB	015H
	DB	03bH
	DB	084H
	DB	052H
	DB	050H
	DB	098H
	DB	031H
	DB	0fH
	DB	022H
	DB	022H
	DB	022H
	DB	022H
	DB	022H
	DB	0fH
	DB	030H
	DB	041H
	DB	036H
	DB	039H
	DB	07fH
	DB	084H
	DB	03bH
	DB	015H
	DB	015H
	DB	015H
	DB	047H
	DB	03dH
	DB	00H
	DB	018H
	DB	01H
	DB	01H
	DB	01H
	DB	01H
	DB	01H
	DB	01H
	DB	01H
	DB	01H
	DB	01H
	DB	01H
	DB	01H
	DB	01H
	DB	01H
	DB	01H
	DB	01H
	DB	01H
	DB	018H
	DB	01eH
	DB	024H
	DB	024H
	DB	024H
	DB	024H
	DB	024H
	DB	024H
	DB	024H
	DB	024H
	DB	024H
	DB	024H
	DB	024H
	DB	024H
	DB	024H
	DB	024H
	DB	024H
	DB	024H
	DB	024H
	DB	024H
	DB	024H
	DB	024H
	DB	024H
	DB	024H
	DB	024H
	DB	024H
	DB	019H
	DB	022H
	DB	00H
	DB	00H
	DB	00H
	DB	00H
	DB	00H
	DB	01H
	DB	08H
	DB	05H
	DB	024H
	DB	024H
	DB	024H
	DB	024H
	DB	024H
	DB	024H
	DB	024H
	DB	024H
	DB	024H
	DB	024H
	DB	024H
	DB	024H
	DB	024H
	DB	024H
	DB	024H
	DB	024H
	DB	024H
	DB	024H
	DB	024H
	DB	024H
	DB	024H
	DB	032H
	DB	0eH
	DB	018H
	DB	01H
	DB	01H
	DB	01H
	DB	01H
	DB	01H
	DB	01H
	DB	01H
	DB	01H
	DB	01H
	DB	01H
	DB	01H
	DB	01H
	DB	01H
	DB	01H
	DB	01H
	DB	01H
	DB	01H
	DB	01H
	DB	022H
	DB	0fH
	DB	039H
	DB	047H
	DB	015H
	DB	015H
	DB	015H
	DB	015H
	DB	015H
	DB	033H
	DB	084H
	DB	05dH
	DB	045H
	DB	05aH
	DB	039H
	DB	050H
	DB	039H
	DB	039H
	DB	05aH
	DB	052H
	DB	046H
	DB	084H
	DB	033H
	DB	015H
	DB	015H
	DB	015H
	DB	015H
	DB	03bH
	DB	045H
	DB	031H
	DB	00H
	DB	01H
	DB	01H
	DB	01H
	DB	01H
	DB	01H
	DB	01H
	DB	01H
	DB	01H
	DB	01H
	DB	01H
	DB	01H
	DB	01H
	DB	01H
	DB	01H
	DB	01H
	DB	01H
	DB	01H
	DB	01H
	DB	0fH
	DB	063H
	DB	024H
	DB	024H
	DB	024H
	DB	024H
	DB	024H
	DB	024H
	DB	024H
	DB	024H
	DB	024H
	DB	024H
	DB	024H
	DB	024H
	DB	024H
	DB	024H
	DB	024H
	DB	024H
	DB	024H
	DB	024H
	DB	024H
	DB	024H
	DB	024H
	DB	024H
	DB	024H
	DB	032H
	DB	07H
	DB	022H
	DB	00H
	DB	00H
	DB	00H
	DB	00H
	DB	00H
	DB	01H
	DB	08H
	DB	05H
	DB	024H
	DB	032H
	DB	032H
	DB	032H
	DB	032H
	DB	032H
	DB	032H
	DB	032H
	DB	032H
	DB	032H
	DB	032H
	DB	032H
	DB	032H
	DB	032H
	DB	032H
	DB	032H
	DB	032H
	DB	032H
	DB	032H
	DB	032H
	DB	032H
	DB	05H
	DB	019H
	DB	01H
	DB	018H
	DB	01H
	DB	01H
	DB	01H
	DB	01H
	DB	01H
	DB	01H
	DB	01H
	DB	01H
	DB	01H
	DB	01H
	DB	01H
	DB	01H
	DB	01H
	DB	01H
	DB	01H
	DB	01H
	DB	01H
	DB	01H
	DB	018H
	DB	00H
	DB	041H
	DB	05aH
	DB	047H
	DB	015H
	DB	015H
	DB	015H
	DB	015H
	DB	015H
	DB	015H
	DB	03bH
	DB	03bH
	DB	03bH
	DB	033H
	DB	033H
	DB	03bH
	DB	03bH
	DB	03bH
	DB	015H
	DB	015H
	DB	015H
	DB	015H
	DB	015H
	DB	033H
	DB	052H
	DB	059H
	DB	00H
	DB	022H
	DB	01H
	DB	01H
	DB	01H
	DB	01H
	DB	01H
	DB	01H
	DB	01H
	DB	01H
	DB	01H
	DB	01H
	DB	01H
	DB	01H
	DB	01H
	DB	01H
	DB	01H
	DB	01H
	DB	01H
	DB	01H
	DB	01H
	DB	0fH
	DB	06H
	DB	032H
	DB	032H
	DB	032H
	DB	032H
	DB	032H
	DB	032H
	DB	032H
	DB	032H
	DB	032H
	DB	032H
	DB	032H
	DB	032H
	DB	032H
	DB	032H
	DB	032H
	DB	032H
	DB	032H
	DB	032H
	DB	032H
	DB	032H
	DB	032H
	DB	032H
	DB	032H
	DB	05H
	DB	07H
	DB	02bH
	DB	00H
	DB	00H
	DB	00H
	DB	00H
	DB	00H
	DB	01H
	DB	038H
	DB	05H
	DB	032H
	DB	05H
	DB	05H
	DB	05H
	DB	05H
	DB	05H
	DB	05H
	DB	05H
	DB	05H
	DB	05H
	DB	05H
	DB	05H
	DB	05H
	DB	05H
	DB	05H
	DB	05H
	DB	05H
	DB	05H
	DB	05H
	DB	05H
	DB	05H
	DB	05H
	DB	07H
	DB	01H
	DB	018H
	DB	01H
	DB	01H
	DB	01H
	DB	01H
	DB	01H
	DB	01H
	DB	01H
	DB	01H
	DB	01H
	DB	01H
	DB	01H
	DB	01H
	DB	01H
	DB	01H
	DB	01H
	DB	01H
	DB	01H
	DB	01H
	DB	01H
	DB	01H
	DB	022H
	DB	00H
	DB	031H
	DB	050H
	DB	046H
	DB	033H
	DB	015H
	DB	015H
	DB	015H
	DB	015H
	DB	015H
	DB	015H
	DB	015H
	DB	015H
	DB	015H
	DB	015H
	DB	015H
	DB	015H
	DB	015H
	DB	033H
	DB	070H
	DB	05aH
	DB	058H
	DB	00H
	DB	022H
	DB	01H
	DB	01H
	DB	01H
	DB	01H
	DB	01H
	DB	01H
	DB	01H
	DB	01H
	DB	01H
	DB	01H
	DB	01H
	DB	01H
	DB	01H
	DB	01H
	DB	01H
	DB	01H
	DB	01H
	DB	01H
	DB	01H
	DB	01H
	DB	018H
	DB	018H
	DB	0eH
	DB	05H
	DB	05H
	DB	05H
	DB	05H
	DB	05H
	DB	05H
	DB	05H
	DB	05H
	DB	05H
	DB	05H
	DB	05H
	DB	05H
	DB	05H
	DB	05H
	DB	05H
	DB	05H
	DB	05H
	DB	05H
	DB	05H
	DB	05H
	DB	05H
	DB	05H
	DB	05H
	DB	05H
	DB	07H
	DB	02bH
	DB	00H
	DB	00H
	DB	00H
	DB	00H
	DB	00H
	DB	01H
	DB	038H
	DB	02cH
	DB	05H
	DB	05H
	DB	05H
	DB	05H
	DB	05H
	DB	05H
	DB	05H
	DB	05H
	DB	05H
	DB	05H
	DB	05H
	DB	05H
	DB	05H
	DB	05H
	DB	05H
	DB	05H
	DB	05H
	DB	05H
	DB	05H
	DB	05H
	DB	05H
	DB	05H
	DB	05H
	DB	01eH
	DB	0fH
	DB	01H
	DB	01H
	DB	01H
	DB	01H
	DB	01H
	DB	01H
	DB	01H
	DB	01H
	DB	01H
	DB	01H
	DB	01H
	DB	01H
	DB	01H
	DB	01H
	DB	01H
	DB	01H
	DB	01H
	DB	01H
	DB	01H
	DB	01H
	DB	01H
	DB	01H
	DB	022H
	DB	022H
	DB	022H
	DB	041H
	DB	03dH
	DB	045H
	DB	07fH
	DB	070H
	DB	047H
	DB	033H
	DB	03bH
	DB	033H
	DB	033H
	DB	084H
	DB	046H
	DB	052H
	DB	050H
	DB	058H
	DB	00H
	DB	00H
	DB	022H
	DB	01H
	DB	01H
	DB	01H
	DB	01H
	DB	01H
	DB	01H
	DB	01H
	DB	01H
	DB	01H
	DB	01H
	DB	01H
	DB	01H
	DB	01H
	DB	01H
	DB	01H
	DB	01H
	DB	01H
	DB	01H
	DB	01H
	DB	01H
	DB	01H
	DB	01H
	DB	018H
	DB	018H
	DB	07H
	DB	05H
	DB	05H
	DB	05H
	DB	05H
	DB	05H
	DB	05H
	DB	05H
	DB	05H
	DB	05H
	DB	05H
	DB	05H
	DB	05H
	DB	05H
	DB	05H
	DB	05H
	DB	05H
	DB	05H
	DB	05H
	DB	05H
	DB	05H
	DB	05H
	DB	05H
	DB	05H
	DB	05H
	DB	07H
	DB	02bH
	DB	00H
	DB	00H
	DB	00H
	DB	00H
	DB	00H
	DB	01H
	DB	07bH
	DB	02cH
	DB	05H
	DB	05H
	DB	05H
	DB	05H
	DB	05H
	DB	05H
	DB	05H
	DB	05H
	DB	05H
	DB	05H
	DB	05H
	DB	05H
	DB	05H
	DB	05H
	DB	05H
	DB	05H
	DB	05H
	DB	05H
	DB	05H
	DB	05H
	DB	05H
	DB	05H
	DB	02cH
	DB	0eH
	DB	0fH
	DB	018H
	DB	01H
	DB	01H
	DB	01H
	DB	01H
	DB	01H
	DB	01H
	DB	01H
	DB	01H
	DB	01H
	DB	01H
	DB	01H
	DB	01H
	DB	01H
	DB	01H
	DB	01H
	DB	01H
	DB	01H
	DB	01H
	DB	01H
	DB	01H
	DB	01H
	DB	01H
	DB	01H
	DB	01H
	DB	022H
	DB	022H
	DB	00H
	DB	022H
	DB	0fH
	DB	031H
	DB	095H
	DB	09aH
	DB	095H
	DB	065H
	DB	030H
	DB	022H
	DB	00H
	DB	022H
	DB	022H
	DB	018H
	DB	01H
	DB	01H
	DB	01H
	DB	01H
	DB	01H
	DB	01H
	DB	01H
	DB	01H
	DB	01H
	DB	01H
	DB	01H
	DB	01H
	DB	01H
	DB	01H
	DB	01H
	DB	01H
	DB	01H
	DB	01H
	DB	01H
	DB	01H
	DB	01H
	DB	01H
	DB	01H
	DB	01H
	DB	0fH
	DB	01eH
	DB	05H
	DB	05H
	DB	05H
	DB	05H
	DB	05H
	DB	05H
	DB	05H
	DB	05H
	DB	05H
	DB	05H
	DB	05H
	DB	05H
	DB	05H
	DB	05H
	DB	05H
	DB	05H
	DB	05H
	DB	05H
	DB	05H
	DB	05H
	DB	05H
	DB	05H
	DB	05H
	DB	05H
	DB	02cH
	DB	024H
	DB	02bH
	DB	00H
	DB	00H
	DB	00H
	DB	00H
	DB	00H
	DB	01H
	DB	010H
	DB	0a5H
	DB	02cH
	DB	02cH
	DB	02cH
	DB	02cH
	DB	02cH
	DB	02cH
	DB	02cH
	DB	02cH
	DB	02cH
	DB	02cH
	DB	02cH
	DB	02cH
	DB	02cH
	DB	02cH
	DB	02cH
	DB	02cH
	DB	02cH
	DB	02cH
	DB	02cH
	DB	02cH
	DB	02cH
	DB	02cH
	DB	0a5H
	DB	032H
	DB	01H
	DB	0fH
	DB	018H
	DB	01H
	DB	01H
	DB	01H
	DB	01H
	DB	01H
	DB	01H
	DB	01H
	DB	01H
	DB	01H
	DB	01H
	DB	01H
	DB	01H
	DB	01H
	DB	01H
	DB	01H
	DB	01H
	DB	01H
	DB	01H
	DB	01H
	DB	01H
	DB	01H
	DB	01H
	DB	01H
	DB	01H
	DB	01H
	DB	01H
	DB	01H
	DB	01H
	DB	018H
	DB	022H
	DB	022H
	DB	022H
	DB	022H
	DB	01H
	DB	01H
	DB	01H
	DB	01H
	DB	01H
	DB	01H
	DB	01H
	DB	01H
	DB	01H
	DB	01H
	DB	01H
	DB	01H
	DB	01H
	DB	01H
	DB	01H
	DB	01H
	DB	01H
	DB	01H
	DB	01H
	DB	01H
	DB	01H
	DB	01H
	DB	01H
	DB	01H
	DB	01H
	DB	01H
	DB	01H
	DB	01H
	DB	018H
	DB	018H
	DB	0fH
	DB	019H
	DB	02cH
	DB	02cH
	DB	02cH
	DB	02cH
	DB	02cH
	DB	02cH
	DB	02cH
	DB	02cH
	DB	02cH
	DB	02cH
	DB	02cH
	DB	02cH
	DB	02cH
	DB	02cH
	DB	02cH
	DB	02cH
	DB	02cH
	DB	02cH
	DB	02cH
	DB	02cH
	DB	02cH
	DB	02cH
	DB	02cH
	DB	02cH
	DB	0a5H
	DB	032H
	DB	02bH
	DB	00H
	DB	00H
	DB	00H
	DB	00H
	DB	00H
	DB	01H
	DB	010H
	DB	03H
	DB	0a5H
	DB	0a5H
	DB	0a5H
	DB	0a5H
	DB	0a5H
	DB	0a5H
	DB	0a5H
	DB	0a5H
	DB	0a5H
	DB	0a5H
	DB	0a5H
	DB	0a5H
	DB	0a5H
	DB	0a5H
	DB	0a5H
	DB	0a5H
	DB	0a5H
	DB	0a5H
	DB	0a5H
	DB	0a5H
	DB	0a5H
	DB	0a5H
	DB	0a5H
	DB	0a5H
	DB	0eH
	DB	0fH
	DB	018H
	DB	018H
	DB	01H
	DB	01H
	DB	01H
	DB	01H
	DB	01H
	DB	01H
	DB	01H
	DB	01H
	DB	01H
	DB	01H
	DB	01H
	DB	01H
	DB	01H
	DB	01H
	DB	01H
	DB	01H
	DB	01H
	DB	01H
	DB	01H
	DB	01H
	DB	01H
	DB	01H
	DB	01H
	DB	01H
	DB	01H
	DB	01H
	DB	01H
	DB	01H
	DB	01H
	DB	01H
	DB	01H
	DB	01H
	DB	01H
	DB	01H
	DB	01H
	DB	01H
	DB	01H
	DB	01H
	DB	01H
	DB	01H
	DB	01H
	DB	01H
	DB	01H
	DB	01H
	DB	01H
	DB	01H
	DB	01H
	DB	01H
	DB	01H
	DB	01H
	DB	01H
	DB	01H
	DB	01H
	DB	01H
	DB	01H
	DB	01H
	DB	01H
	DB	01H
	DB	01H
	DB	018H
	DB	018H
	DB	0fH
	DB	01eH
	DB	02cH
	DB	03H
	DB	0a5H
	DB	0a5H
	DB	0a5H
	DB	0a5H
	DB	0a5H
	DB	0a5H
	DB	0a5H
	DB	0a5H
	DB	0a5H
	DB	0a5H
	DB	0a5H
	DB	0a5H
	DB	0a5H
	DB	0a5H
	DB	0a5H
	DB	0a5H
	DB	0a5H
	DB	0a5H
	DB	0a5H
	DB	0a5H
	DB	0a5H
	DB	0a5H
	DB	0a5H
	DB	03H
	DB	05H
	DB	0fH
	DB	00H
	DB	00H
	DB	00H
	DB	00H
	DB	00H
	DB	01H
	DB	010H
	DB	03H
	DB	03cH
	DB	03H
	DB	03H
	DB	03H
	DB	03H
	DB	03H
	DB	03H
	DB	03H
	DB	03H
	DB	03H
	DB	03H
	DB	03H
	DB	03H
	DB	03H
	DB	03H
	DB	03H
	DB	03H
	DB	03H
	DB	03H
	DB	03H
	DB	03H
	DB	03H
	DB	03H
	DB	03H
	DB	02cH
	DB	063H
	DB	0fH
	DB	018H
	DB	01H
	DB	01H
	DB	01H
	DB	01H
	DB	01H
	DB	01H
	DB	01H
	DB	01H
	DB	01H
	DB	01H
	DB	01H
	DB	01H
	DB	01H
	DB	01H
	DB	01H
	DB	01H
	DB	01H
	DB	01H
	DB	01H
	DB	01H
	DB	01H
	DB	01H
	DB	01H
	DB	01H
	DB	01H
	DB	01H
	DB	01H
	DB	01H
	DB	01H
	DB	01H
	DB	01H
	DB	01H
	DB	01H
	DB	01H
	DB	01H
	DB	01H
	DB	01H
	DB	01H
	DB	01H
	DB	01H
	DB	01H
	DB	01H
	DB	01H
	DB	01H
	DB	01H
	DB	01H
	DB	01H
	DB	01H
	DB	01H
	DB	01H
	DB	01H
	DB	01H
	DB	01H
	DB	01H
	DB	01H
	DB	01H
	DB	01H
	DB	01H
	DB	01H
	DB	018H
	DB	0fH
	DB	01H
	DB	024H
	DB	03H
	DB	03H
	DB	03H
	DB	03H
	DB	03H
	DB	03H
	DB	03H
	DB	03H
	DB	03H
	DB	03H
	DB	03H
	DB	03H
	DB	03H
	DB	03H
	DB	03H
	DB	03H
	DB	03H
	DB	03H
	DB	03H
	DB	03H
	DB	03H
	DB	03H
	DB	03H
	DB	03H
	DB	03H
	DB	03H
	DB	05H
	DB	0fH
	DB	00H
	DB	00H
	DB	00H
	DB	00H
	DB	00H
	DB	01H
	DB	02eH
	DB	016H
	DB	03H
	DB	03H
	DB	03H
	DB	03H
	DB	03H
	DB	03H
	DB	03H
	DB	03H
	DB	03H
	DB	03H
	DB	03H
	DB	03H
	DB	03H
	DB	03H
	DB	03H
	DB	03H
	DB	03H
	DB	03H
	DB	03H
	DB	03H
	DB	03H
	DB	03H
	DB	03H
	DB	03H
	DB	03H
	DB	05H
	DB	01eH
	DB	0fH
	DB	018H
	DB	018H
	DB	01H
	DB	01H
	DB	01H
	DB	01H
	DB	01H
	DB	01H
	DB	01H
	DB	01H
	DB	01H
	DB	01H
	DB	01H
	DB	01H
	DB	01H
	DB	01H
	DB	01H
	DB	01H
	DB	01H
	DB	01H
	DB	01H
	DB	01H
	DB	01H
	DB	01H
	DB	01H
	DB	01H
	DB	01H
	DB	01H
	DB	01H
	DB	01H
	DB	01H
	DB	01H
	DB	01H
	DB	01H
	DB	01H
	DB	01H
	DB	01H
	DB	01H
	DB	01H
	DB	01H
	DB	01H
	DB	01H
	DB	01H
	DB	01H
	DB	01H
	DB	01H
	DB	01H
	DB	01H
	DB	01H
	DB	01H
	DB	01H
	DB	01H
	DB	01H
	DB	01H
	DB	01H
	DB	01H
	DB	01H
	DB	018H
	DB	018H
	DB	0fH
	DB	018H
	DB	07H
	DB	03H
	DB	03H
	DB	03H
	DB	03H
	DB	03H
	DB	03H
	DB	03H
	DB	03H
	DB	03H
	DB	03H
	DB	03H
	DB	03H
	DB	03H
	DB	03H
	DB	03H
	DB	03H
	DB	03H
	DB	03H
	DB	03H
	DB	03H
	DB	03H
	DB	03H
	DB	03H
	DB	03H
	DB	03H
	DB	03H
	DB	03H
	DB	05H
	DB	0fH
	DB	00H
	DB	00H
	DB	00H
	DB	00H
	DB	00H
	DB	01H
	DB	0b7H
	DB	016H
	DB	03H
	DB	03H
	DB	03H
	DB	03H
	DB	03H
	DB	03H
	DB	03H
	DB	03H
	DB	03H
	DB	03H
	DB	03H
	DB	03H
	DB	03H
	DB	03H
	DB	03H
	DB	03H
	DB	03H
	DB	03H
	DB	03H
	DB	03H
	DB	03H
	DB	03H
	DB	03H
	DB	03H
	DB	03H
	DB	03H
	DB	032H
	DB	01eH
	DB	0fH
	DB	018H
	DB	018H
	DB	018H
	DB	018H
	DB	018H
	DB	018H
	DB	018H
	DB	018H
	DB	018H
	DB	018H
	DB	018H
	DB	018H
	DB	018H
	DB	018H
	DB	018H
	DB	018H
	DB	018H
	DB	018H
	DB	018H
	DB	018H
	DB	018H
	DB	018H
	DB	018H
	DB	018H
	DB	018H
	DB	018H
	DB	018H
	DB	018H
	DB	018H
	DB	018H
	DB	018H
	DB	018H
	DB	018H
	DB	018H
	DB	018H
	DB	018H
	DB	018H
	DB	018H
	DB	018H
	DB	018H
	DB	018H
	DB	018H
	DB	018H
	DB	018H
	DB	018H
	DB	018H
	DB	018H
	DB	018H
	DB	018H
	DB	018H
	DB	018H
	DB	018H
	DB	018H
	DB	018H
	DB	018H
	DB	018H
	DB	018H
	DB	0fH
	DB	01H
	DB	019H
	DB	0a5H
	DB	03H
	DB	03H
	DB	03H
	DB	03H
	DB	03H
	DB	03H
	DB	03H
	DB	03H
	DB	03H
	DB	03H
	DB	03H
	DB	03H
	DB	03H
	DB	03H
	DB	03H
	DB	03H
	DB	03H
	DB	03H
	DB	03H
	DB	03H
	DB	03H
	DB	03H
	DB	03H
	DB	03H
	DB	03H
	DB	03H
	DB	016H
	DB	05H
	DB	0fH
	DB	00H
	DB	00H
	DB	00H
	DB	00H
	DB	00H
	DB	01H
	DB	03aH
	DB	016H
	DB	03H
	DB	016H
	DB	016H
	DB	016H
	DB	016H
	DB	016H
	DB	016H
	DB	016H
	DB	016H
	DB	016H
	DB	016H
	DB	016H
	DB	016H
	DB	016H
	DB	016H
	DB	016H
	DB	016H
	DB	016H
	DB	016H
	DB	016H
	DB	016H
	DB	03H
	DB	03H
	DB	03H
	DB	03H
	DB	03cH
	DB	02cH
	DB	024H
	DB	063H
	DB	018H
	DB	0fH
	DB	018H
	DB	018H
	DB	018H
	DB	018H
	DB	018H
	DB	018H
	DB	018H
	DB	018H
	DB	018H
	DB	018H
	DB	018H
	DB	018H
	DB	018H
	DB	018H
	DB	018H
	DB	018H
	DB	018H
	DB	018H
	DB	018H
	DB	018H
	DB	018H
	DB	018H
	DB	018H
	DB	018H
	DB	018H
	DB	018H
	DB	018H
	DB	018H
	DB	018H
	DB	018H
	DB	018H
	DB	018H
	DB	018H
	DB	018H
	DB	018H
	DB	018H
	DB	018H
	DB	018H
	DB	018H
	DB	018H
	DB	018H
	DB	018H
	DB	018H
	DB	018H
	DB	018H
	DB	018H
	DB	018H
	DB	018H
	DB	018H
	DB	018H
	DB	018H
	DB	018H
	DB	018H
	DB	0fH
	DB	0fH
	DB	01H
	DB	019H
	DB	05H
	DB	02cH
	DB	0a5H
	DB	03H
	DB	03H
	DB	03H
	DB	03H
	DB	016H
	DB	016H
	DB	016H
	DB	016H
	DB	016H
	DB	016H
	DB	016H
	DB	016H
	DB	016H
	DB	016H
	DB	016H
	DB	016H
	DB	016H
	DB	016H
	DB	016H
	DB	016H
	DB	016H
	DB	016H
	DB	016H
	DB	016H
	DB	016H
	DB	016H
	DB	02cH
	DB	0fH
	DB	00H
	DB	00H
	DB	00H
	DB	00H
	DB	00H
	DB	01H
	DB	0aH
	DB	01bH
	DB	016H
	DB	016H
	DB	016H
	DB	016H
	DB	016H
	DB	016H
	DB	016H
	DB	016H
	DB	016H
	DB	016H
	DB	016H
	DB	016H
	DB	016H
	DB	016H
	DB	016H
	DB	016H
	DB	016H
	DB	016H
	DB	016H
	DB	016H
	DB	016H
	DB	016H
	DB	03H
	DB	03H
	DB	0a5H
	DB	02cH
	DB	05H
	DB	05H
	DB	07H
	DB	0eH
	DB	020H
	DB	01H
	DB	018H
	DB	0fH
	DB	0fH
	DB	0fH
	DB	0fH
	DB	0fH
	DB	0fH
	DB	0fH
	DB	0fH
	DB	0fH
	DB	0fH
	DB	0fH
	DB	018H
	DB	018H
	DB	018H
	DB	018H
	DB	018H
	DB	018H
	DB	018H
	DB	018H
	DB	018H
	DB	018H
	DB	018H
	DB	018H
	DB	018H
	DB	018H
	DB	018H
	DB	018H
	DB	018H
	DB	018H
	DB	018H
	DB	018H
	DB	018H
	DB	018H
	DB	018H
	DB	018H
	DB	018H
	DB	018H
	DB	018H
	DB	018H
	DB	0fH
	DB	0fH
	DB	0fH
	DB	0fH
	DB	0fH
	DB	0fH
	DB	0fH
	DB	0fH
	DB	0fH
	DB	0fH
	DB	0fH
	DB	018H
	DB	01H
	DB	06H
	DB	07H
	DB	05H
	DB	05H
	DB	02cH
	DB	03cH
	DB	03H
	DB	03H
	DB	016H
	DB	016H
	DB	016H
	DB	016H
	DB	016H
	DB	016H
	DB	016H
	DB	016H
	DB	016H
	DB	016H
	DB	016H
	DB	016H
	DB	016H
	DB	016H
	DB	016H
	DB	016H
	DB	016H
	DB	016H
	DB	016H
	DB	016H
	DB	016H
	DB	016H
	DB	016H
	DB	01bH
	DB	0a5H
	DB	0fH
	DB	00H
	DB	00H
	DB	00H
	DB	00H
	DB	00H
	DB	01H
	DB	0aH
	DB	04H
	DB	01bH
	DB	01bH
	DB	01bH
	DB	01bH
	DB	01bH
	DB	01bH
	DB	01bH
	DB	01bH
	DB	01bH
	DB	01bH
	DB	01bH
	DB	01bH
	DB	01bH
	DB	01bH
	DB	01bH
	DB	01bH
	DB	01bH
	DB	01bH
	DB	01bH
	DB	01bH
	DB	01bH
	DB	016H
	DB	016H
	DB	016H
	DB	03H
	DB	03H
	DB	03cH
	DB	02cH
	DB	05H
	DB	05H
	DB	07H
	DB	019H
	DB	06H
	DB	063H
	DB	020H
	DB	01H
	DB	01H
	DB	01H
	DB	01H
	DB	01H
	DB	01H
	DB	01H
	DB	018H
	DB	018H
	DB	018H
	DB	0fH
	DB	018H
	DB	0fH
	DB	0fH
	DB	0fH
	DB	0fH
	DB	0fH
	DB	0fH
	DB	0fH
	DB	0fH
	DB	0fH
	DB	0fH
	DB	0fH
	DB	0fH
	DB	0fH
	DB	0fH
	DB	0fH
	DB	0fH
	DB	0fH
	DB	0fH
	DB	0fH
	DB	0fH
	DB	0fH
	DB	0fH
	DB	0fH
	DB	018H
	DB	018H
	DB	018H
	DB	018H
	DB	01H
	DB	01H
	DB	01H
	DB	01H
	DB	01H
	DB	01H
	DB	020H
	DB	01eH
	DB	06H
	DB	0eH
	DB	07H
	DB	05H
	DB	05H
	DB	02cH
	DB	0a5H
	DB	03H
	DB	03H
	DB	016H
	DB	016H
	DB	016H
	DB	01bH
	DB	01bH
	DB	01bH
	DB	01bH
	DB	01bH
	DB	01bH
	DB	01bH
	DB	01bH
	DB	01bH
	DB	01bH
	DB	01bH
	DB	01bH
	DB	01bH
	DB	01bH
	DB	01bH
	DB	01bH
	DB	01bH
	DB	01bH
	DB	01bH
	DB	01bH
	DB	01bH
	DB	01bH
	DB	04H
	DB	03cH
	DB	0fH
	DB	00H
	DB	00H
	DB	00H
	DB	00H
	DB	00H
	DB	01H
	DB	051H
	DB	04H
	DB	04H
	DB	04H
	DB	04H
	DB	04H
	DB	04H
	DB	04H
	DB	04H
	DB	04H
	DB	04H
	DB	04H
	DB	04H
	DB	04H
	DB	04H
	DB	04H
	DB	04H
	DB	04H
	DB	04H
	DB	04H
	DB	04H
	DB	04H
	DB	04H
	DB	04H
	DB	04H
	DB	01bH
	DB	01bH
	DB	016H
	DB	016H
	DB	016H
	DB	03H
	DB	03H
	DB	03cH
	DB	02cH
	DB	05H
	DB	05H
	DB	032H
	DB	024H
	DB	07H
	DB	07H
	DB	07H
	DB	019H
	DB	019H
	DB	0eH
	DB	0eH
	DB	0eH
	DB	0eH
	DB	06H
	DB	06H
	DB	06H
	DB	06H
	DB	06H
	DB	06H
	DB	06H
	DB	06H
	DB	06H
	DB	06H
	DB	06H
	DB	06H
	DB	06H
	DB	06H
	DB	06H
	DB	06H
	DB	06H
	DB	06H
	DB	06H
	DB	06H
	DB	06H
	DB	06H
	DB	06H
	DB	06H
	DB	06H
	DB	0eH
	DB	0eH
	DB	0eH
	DB	0eH
	DB	019H
	DB	019H
	DB	07H
	DB	07H
	DB	07H
	DB	024H
	DB	032H
	DB	05H
	DB	02cH
	DB	02cH
	DB	03H
	DB	03H
	DB	03H
	DB	016H
	DB	016H
	DB	016H
	DB	01bH
	DB	01bH
	DB	04H
	DB	04H
	DB	04H
	DB	04H
	DB	04H
	DB	04H
	DB	04H
	DB	04H
	DB	04H
	DB	04H
	DB	04H
	DB	04H
	DB	04H
	DB	04H
	DB	04H
	DB	04H
	DB	04H
	DB	04H
	DB	04H
	DB	04H
	DB	04H
	DB	04H
	DB	04H
	DB	04H
	DB	04H
	DB	03H
	DB	0fH
	DB	00H
	DB	00H
	DB	00H
	DB	00H
	DB	00H
	DB	01H
	DB	051H
	DB	01dH
	DB	04H
	DB	04H
	DB	04H
	DB	04H
	DB	04H
	DB	04H
	DB	04H
	DB	04H
	DB	04H
	DB	04H
	DB	04H
	DB	04H
	DB	04H
	DB	04H
	DB	04H
	DB	04H
	DB	04H
	DB	04H
	DB	04H
	DB	04H
	DB	04H
	DB	04H
	DB	04H
	DB	04H
	DB	04H
	DB	04H
	DB	04H
	DB	04H
	DB	04H
	DB	04H
	DB	01bH
	DB	01bH
	DB	01bH
	DB	01bH
	DB	016H
	DB	016H
	DB	016H
	DB	03H
	DB	03H
	DB	03H
	DB	03H
	DB	03H
	DB	03cH
	DB	0a5H
	DB	0a5H
	DB	0a5H
	DB	02cH
	DB	02cH
	DB	02cH
	DB	02cH
	DB	02cH
	DB	06cH
	DB	02cH
	DB	02cH
	DB	02cH
	DB	05H
	DB	05H
	DB	05H
	DB	05H
	DB	05H
	DB	02cH
	DB	06cH
	DB	06cH
	DB	02cH
	DB	02cH
	DB	02cH
	DB	02cH
	DB	02cH
	DB	02cH
	DB	0a5H
	DB	03cH
	DB	0a5H
	DB	03H
	DB	03H
	DB	03H
	DB	03H
	DB	03H
	DB	016H
	DB	016H
	DB	016H
	DB	016H
	DB	01bH
	DB	01bH
	DB	01bH
	DB	01bH
	DB	04H
	DB	04H
	DB	04H
	DB	04H
	DB	04H
	DB	04H
	DB	04H
	DB	04H
	DB	04H
	DB	04H
	DB	04H
	DB	04H
	DB	04H
	DB	04H
	DB	04H
	DB	04H
	DB	04H
	DB	04H
	DB	04H
	DB	04H
	DB	04H
	DB	04H
	DB	04H
	DB	04H
	DB	04H
	DB	04H
	DB	04H
	DB	04H
	DB	04H
	DB	04H
	DB	04H
	DB	01dH
	DB	03H
	DB	0fH
	DB	00H
	DB	00H
	DB	00H
	DB	00H
	DB	00H
	DB	01H
	DB	0b8H
	DB	037H
	DB	01dH
	DB	01dH
	DB	01dH
	DB	01dH
	DB	01dH
	DB	01dH
	DB	01dH
	DB	01dH
	DB	01dH
	DB	01dH
	DB	01dH
	DB	01dH
	DB	01dH
	DB	01dH
	DB	01dH
	DB	01dH
	DB	01dH
	DB	01dH
	DB	01dH
	DB	01dH
	DB	01dH
	DB	01dH
	DB	01dH
	DB	04eH
	DB	04eH
	DB	01dH
	DB	01dH
	DB	04eH
	DB	04eH
	DB	04eH
	DB	01dH
	DB	01dH
	DB	01dH
	DB	01dH
	DB	01dH
	DB	01dH
	DB	01dH
	DB	04eH
	DB	04H
	DB	01dH
	DB	04H
	DB	04H
	DB	04H
	DB	04H
	DB	04H
	DB	04H
	DB	04H
	DB	04H
	DB	04H
	DB	04H
	DB	04H
	DB	04H
	DB	04H
	DB	04H
	DB	04H
	DB	04H
	DB	04H
	DB	04H
	DB	04H
	DB	04H
	DB	04H
	DB	04H
	DB	04H
	DB	04H
	DB	04H
	DB	04H
	DB	04H
	DB	04H
	DB	04H
	DB	04H
	DB	04H
	DB	04H
	DB	04H
	DB	04H
	DB	04eH
	DB	01dH
	DB	04H
	DB	01dH
	DB	01dH
	DB	01dH
	DB	01dH
	DB	04eH
	DB	01dH
	DB	04eH
	DB	01dH
	DB	04eH
	DB	01dH
	DB	01dH
	DB	01dH
	DB	01dH
	DB	04eH
	DB	04eH
	DB	01dH
	DB	01dH
	DB	01dH
	DB	01dH
	DB	01dH
	DB	01dH
	DB	01dH
	DB	01dH
	DB	01dH
	DB	01dH
	DB	01dH
	DB	01dH
	DB	01dH
	DB	01dH
	DB	01dH
	DB	01dH
	DB	01dH
	DB	01dH
	DB	01dH
	DB	01dH
	DB	01dH
	DB	01dH
	DB	01dH
	DB	01dH
	DB	037H
	DB	016H
	DB	018H
	DB	00H
	DB	00H
	DB	00H
	DB	00H
	DB	00H
	DB	01H
	DB	03aH
	DB	0a8H
	DB	0a8H
	DB	0a8H
	DB	0a8H
	DB	0a8H
	DB	0a8H
	DB	0a8H
	DB	0a8H
	DB	0a8H
	DB	0a8H
	DB	0a8H
	DB	0a8H
	DB	0a8H
	DB	0a8H
	DB	0a8H
	DB	0a8H
	DB	0a8H
	DB	0a8H
	DB	0a8H
	DB	0a8H
	DB	0a8H
	DB	0a8H
	DB	0a8H
	DB	0a8H
	DB	0a8H
	DB	0a8H
	DB	0a8H
	DB	0a8H
	DB	0a8H
	DB	0a8H
	DB	0a8H
	DB	0a8H
	DB	0a8H
	DB	0a8H
	DB	0a8H
	DB	0a8H
	DB	0a8H
	DB	0a8H
	DB	0a8H
	DB	0a8H
	DB	0a8H
	DB	0a8H
	DB	0a8H
	DB	0a8H
	DB	0a8H
	DB	0a8H
	DB	0a8H
	DB	0a8H
	DB	0a8H
	DB	0a8H
	DB	0a8H
	DB	0a8H
	DB	0a8H
	DB	0a8H
	DB	0a8H
	DB	0a8H
	DB	0a8H
	DB	0a8H
	DB	0a8H
	DB	0a8H
	DB	0a8H
	DB	0a8H
	DB	0a8H
	DB	0a8H
	DB	0a8H
	DB	0a8H
	DB	0a8H
	DB	0a8H
	DB	0a8H
	DB	0a8H
	DB	0a8H
	DB	0a8H
	DB	0a8H
	DB	0a8H
	DB	0a8H
	DB	0a8H
	DB	0a8H
	DB	0a8H
	DB	0a8H
	DB	0a8H
	DB	0a8H
	DB	0a8H
	DB	0a8H
	DB	0a8H
	DB	0a8H
	DB	0a8H
	DB	0a8H
	DB	0a8H
	DB	0a8H
	DB	0a8H
	DB	0a8H
	DB	0a8H
	DB	0a8H
	DB	0a8H
	DB	0a8H
	DB	0a8H
	DB	0a8H
	DB	0a8H
	DB	0a8H
	DB	0a8H
	DB	0a8H
	DB	0a8H
	DB	0a8H
	DB	0a8H
	DB	0a8H
	DB	0a8H
	DB	0a8H
	DB	0a8H
	DB	0a8H
	DB	0a8H
	DB	0a8H
	DB	0a8H
	DB	0a8H
	DB	0a8H
	DB	0a8H
	DB	0a8H
	DB	0a8H
	DB	0a8H
	DB	03H
	DB	0fH
	DB	00H
	DB	00H
	DB	00H
	DB	00H
	DB	00H
	DB	022H
	DB	016H
	DB	08H
	DB	038H
	DB	038H
	DB	038H
	DB	038H
	DB	038H
	DB	038H
	DB	038H
	DB	038H
	DB	038H
	DB	038H
	DB	038H
	DB	038H
	DB	038H
	DB	038H
	DB	038H
	DB	038H
	DB	038H
	DB	038H
	DB	038H
	DB	038H
	DB	038H
	DB	038H
	DB	038H
	DB	038H
	DB	038H
	DB	038H
	DB	038H
	DB	038H
	DB	038H
	DB	038H
	DB	038H
	DB	038H
	DB	038H
	DB	038H
	DB	038H
	DB	038H
	DB	038H
	DB	038H
	DB	038H
	DB	038H
	DB	038H
	DB	038H
	DB	038H
	DB	038H
	DB	038H
	DB	038H
	DB	038H
	DB	038H
	DB	038H
	DB	038H
	DB	038H
	DB	038H
	DB	038H
	DB	038H
	DB	038H
	DB	038H
	DB	038H
	DB	038H
	DB	038H
	DB	038H
	DB	038H
	DB	038H
	DB	038H
	DB	038H
	DB	038H
	DB	038H
	DB	038H
	DB	038H
	DB	038H
	DB	038H
	DB	038H
	DB	038H
	DB	038H
	DB	038H
	DB	038H
	DB	038H
	DB	038H
	DB	038H
	DB	038H
	DB	038H
	DB	038H
	DB	038H
	DB	038H
	DB	038H
	DB	038H
	DB	038H
	DB	038H
	DB	038H
	DB	038H
	DB	038H
	DB	038H
	DB	038H
	DB	038H
	DB	038H
	DB	038H
	DB	038H
	DB	038H
	DB	038H
	DB	038H
	DB	038H
	DB	038H
	DB	038H
	DB	038H
	DB	038H
	DB	038H
	DB	038H
	DB	038H
	DB	038H
	DB	038H
	DB	038H
	DB	038H
	DB	038H
	DB	038H
	DB	038H
	DB	038H
	DB	038H
	DB	01dH
	DB	07H
	DB	00H
	DB	00H
	DB	00H
	DB	00H
	DB	00H
	DB	00H
	DB	00H
	DB	01eH
	DB	03H
	DB	04H
	DB	01dH
	DB	04eH
	DB	04eH
	DB	04eH
	DB	04eH
	DB	04eH
	DB	04eH
	DB	04eH
	DB	04eH
	DB	04eH
	DB	04eH
	DB	04eH
	DB	04eH
	DB	04eH
	DB	04eH
	DB	04eH
	DB	04eH
	DB	04eH
	DB	04eH
	DB	04eH
	DB	04eH
	DB	04eH
	DB	04eH
	DB	04eH
	DB	04eH
	DB	04eH
	DB	04eH
	DB	04eH
	DB	04eH
	DB	04eH
	DB	04eH
	DB	04eH
	DB	04eH
	DB	04eH
	DB	04eH
	DB	04eH
	DB	04eH
	DB	04eH
	DB	04eH
	DB	04eH
	DB	04eH
	DB	04eH
	DB	04eH
	DB	04eH
	DB	04eH
	DB	04eH
	DB	04eH
	DB	04eH
	DB	04eH
	DB	04eH
	DB	04eH
	DB	04eH
	DB	04eH
	DB	04eH
	DB	04eH
	DB	04eH
	DB	04eH
	DB	04eH
	DB	04eH
	DB	04eH
	DB	04eH
	DB	04eH
	DB	04eH
	DB	04eH
	DB	04eH
	DB	04eH
	DB	04eH
	DB	04eH
	DB	04eH
	DB	04eH
	DB	04eH
	DB	04eH
	DB	04eH
	DB	04eH
	DB	04eH
	DB	04eH
	DB	04eH
	DB	04eH
	DB	04eH
	DB	04eH
	DB	04eH
	DB	04eH
	DB	04eH
	DB	04eH
	DB	04eH
	DB	04eH
	DB	04eH
	DB	04eH
	DB	04eH
	DB	04eH
	DB	04eH
	DB	04eH
	DB	04eH
	DB	04eH
	DB	04eH
	DB	04eH
	DB	04eH
	DB	04eH
	DB	04eH
	DB	04eH
	DB	04eH
	DB	04eH
	DB	04eH
	DB	04eH
	DB	04eH
	DB	04eH
	DB	04eH
	DB	04eH
	DB	04eH
	DB	04eH
	DB	04eH
	DB	04eH
	DB	04eH
	DB	01dH
	DB	01bH
	DB	024H
	DB	01H
	DB	00H
	DB	00H
	DB	00H
	DB	00H
	DB	00H
	DB	00H
	DB	00H
	DB	00H
	DB	02bH
	DB	01H
	DB	01H
	DB	01H
	DB	01H
	DB	01H
	DB	01H
	DB	01H
	DB	01H
	DB	01H
	DB	01H
	DB	01H
	DB	01H
	DB	01H
	DB	01H
	DB	01H
	DB	01H
	DB	01H
	DB	01H
	DB	01H
	DB	01H
	DB	01H
	DB	01H
	DB	01H
	DB	01H
	DB	01H
	DB	01H
	DB	01H
	DB	01H
	DB	01H
	DB	01H
	DB	01H
	DB	01H
	DB	01H
	DB	01H
	DB	01H
	DB	01H
	DB	01H
	DB	01H
	DB	01H
	DB	01H
	DB	01H
	DB	01H
	DB	01H
	DB	01H
	DB	01H
	DB	01H
	DB	01H
	DB	01H
	DB	01H
	DB	01H
	DB	01H
	DB	01H
	DB	01H
	DB	01H
	DB	01H
	DB	01H
	DB	01H
	DB	01H
	DB	01H
	DB	01H
	DB	01H
	DB	01H
	DB	01H
	DB	01H
	DB	01H
	DB	01H
	DB	01H
	DB	01H
	DB	01H
	DB	01H
	DB	01H
	DB	01H
	DB	01H
	DB	01H
	DB	01H
	DB	01H
	DB	01H
	DB	01H
	DB	01H
	DB	01H
	DB	01H
	DB	01H
	DB	01H
	DB	01H
	DB	01H
	DB	01H
	DB	01H
	DB	01H
	DB	01H
	DB	01H
	DB	01H
	DB	01H
	DB	01H
	DB	01H
	DB	01H
	DB	01H
	DB	01H
	DB	01H
	DB	01H
	DB	01H
	DB	01H
	DB	01H
	DB	01H
	DB	01H
	DB	01H
	DB	01H
	DB	01H
	DB	01H
	DB	01H
	DB	01H
	DB	01H
	DB	01H
	DB	01H
	DB	01H
	DB	01H
	DB	01H
	DB	02bH
	DB	00H
	DB	00H
	DB	00H
	DB	00H
	DB	00H
	DB	00H
	DB	00H
	DB	00H
	DB	00H
	DB	00H
	DB	00H
	DB	00H
	DB	00H
	DB	00H
	DB	00H
	DB	00H
	DB	00H
	DB	00H
	DB	00H
	DB	00H
	DB	00H
	DB	00H
	DB	00H
	DB	00H
	DB	00H
	DB	00H
	DB	00H
	DB	00H
	DB	00H
	DB	00H
	DB	00H
	DB	00H
	DB	00H
	DB	00H
	DB	00H
	DB	00H
	DB	00H
	DB	00H
	DB	00H
	DB	00H
	DB	00H
	DB	00H
	DB	00H
	DB	00H
	DB	00H
	DB	00H
	DB	00H
	DB	00H
	DB	00H
	DB	00H
	DB	00H
	DB	00H
	DB	00H
	DB	00H
	DB	00H
	DB	00H
	DB	00H
	DB	00H
	DB	00H
	DB	00H
	DB	00H
	DB	00H
	DB	00H
	DB	00H
	DB	00H
	DB	00H
	DB	00H
	DB	00H
	DB	00H
	DB	00H
	DB	00H
	DB	00H
	DB	00H
	DB	00H
	DB	00H
	DB	00H
	DB	00H
	DB	00H
	DB	00H
	DB	00H
	DB	00H
	DB	00H
	DB	00H
	DB	00H
	DB	00H
	DB	00H
	DB	00H
	DB	00H
	DB	00H
	DB	00H
	DB	00H
	DB	00H
	DB	00H
	DB	00H
	DB	00H
	DB	00H
	DB	00H
	DB	00H
	DB	00H
	DB	00H
	DB	00H
	DB	00H
	DB	00H
	DB	00H
	DB	00H
	DB	00H
	DB	00H
	DB	00H
	DB	00H
	DB	00H
	DB	00H
	DB	00H
	DB	00H
	DB	00H
	DB	00H
	DB	00H
	DB	00H
	DB	00H
	DB	00H
	DB	00H
	DB	00H
	DB	00H
	DB	00H
	DB	00H
	DB	00H
	DB	00H
	DB	00H
	DB	00H
	DB	00H
	DB	00H
	DB	00H
	DB	00H
	DB	00H
	DB	00H
	DB	00H
	DB	00H
	DB	00H
	DB	00H
	DB	00H
	DB	00H
	DB	00H
	DB	00H
	DB	00H
	DB	00H
	DB	00H
	DB	00H
	DB	00H
	DB	00H
	DB	00H
	DB	00H
	DB	00H
	DB	00H
	DB	00H
	DB	00H
	DB	00H
	DB	00H
	DB	00H
	DB	00H
	DB	00H
	DB	00H
	DB	00H
	DB	00H
	DB	00H
	DB	00H
	DB	00H
	DB	00H
	DB	00H
	DB	00H
	DB	00H
	DB	00H
	DB	00H
	DB	00H
	DB	00H
	DB	00H
	DB	00H
	DB	00H
	DB	00H
	DB	00H
	DB	00H
	DB	00H
	DB	00H
	DB	00H
	DB	00H
	DB	00H
	DB	00H
	DB	00H
	DB	00H
	DB	00H
	DB	00H
	DB	00H
	DB	00H
	DB	00H
	DB	00H
	DB	00H
	DB	00H
	DB	00H
	DB	00H
	DB	00H
	DB	00H
	DB	00H
	DB	00H
	DB	00H
	DB	00H
	DB	00H
	DB	00H
	DB	00H
	DB	00H
	DB	00H
	DB	00H
	DB	00H
	DB	00H
	DB	00H
	DB	00H
	DB	00H
	DB	00H
	DB	00H
	DB	00H
	DB	00H
	DB	00H
	DB	00H
	DB	00H
	DB	00H
	DB	00H
	DB	00H
	DB	00H
	DB	00H
	DB	00H
	DB	00H
	DB	00H
	DB	00H
	DB	00H
	DB	00H
	DB	00H
	DB	00H
	DB	00H
	DB	00H
	DB	00H
	DB	00H
	DB	00H
	DB	00H
	DB	00H
	DB	00H
	DB	00H
	DB	00H
	DB	00H
	DB	00H
	DB	00H
	DB	00H
	DB	00H
	DB	00H
	DB	00H
	DB	00H
	DB	00H
	DB	00H
	DB	00H
	DB	00H
	DB	00H
	DB	00H
	DB	00H
	DB	00H
	DB	00H
	DB	00H
	DB	00H
	DB	00H
	DB	00H
	DB	00H
	DB	00H
	DB	00H
	DB	00H
	DB	00H
	DB	00H
	DB	00H
	DB	00H
	DB	00H
	DB	00H
	DB	00H
	DB	00H
	DB	00H
	DB	00H
	DB	00H
	DB	00H
	DB	00H
	DB	00H
	DB	00H
	DB	00H
	DB	00H
	DB	00H
	DB	00H
	DB	00H
	DB	00H
	DB	00H
	DB	00H
	DB	00H
	DB	00H
	DB	00H
	DB	00H
	DB	00H
	DB	00H
	DB	00H
	DB	00H
	DB	00H
	DB	00H
	DB	00H
	DB	00H
	DB	00H
	DB	00H
	DB	00H
	DB	00H
	DB	00H
	DB	00H
	DB	00H
	DB	00H
	DB	00H
	DB	00H
	DB	00H
	DB	00H
	DB	00H
	DB	00H
	DB	00H
	DB	00H
	DB	00H
	DB	00H
	DB	00H
	DB	00H
	DB	00H
	DB	00H
	DB	00H
	DB	00H
	DB	00H
	DB	00H
	DB	00H
	DB	00H
	DB	00H
	DB	00H
	DB	00H
	DB	00H
	DB	00H
	DB	00H
	DB	00H
	DB	00H
	DB	00H
	DB	00H
	DB	00H
	DB	00H
	DB	00H
	DB	00H
	DB	00H
	DB	00H
	DB	00H
	DB	00H
	DB	00H
	DB	00H
	DB	00H
	DB	00H
	DB	00H
	DB	00H
	DB	00H
	DB	00H
	DB	00H
	DB	00H
	DB	00H
	DB	00H
	DB	00H
	DB	00H
	DB	00H
	DB	00H
	DB	00H
	DB	00H
	DB	00H
	DB	00H
	DB	00H
	DB	00H
	DB	00H
	DB	00H
	DB	00H
	DB	00H
	DB	00H
	DB	00H
	DB	00H
	DB	00H
	DB	00H
	DB	00H
	DB	00H
	DB	00H
	DB	00H
	DB	00H
	DB	00H
	DB	00H
	DB	00H
	DB	00H
	DB	00H
	DB	00H
	DB	00H
	DB	00H
	DB	00H
	DB	00H
	DB	00H
	DB	00H
	DB	00H
	DB	00H
	DB	00H
	DB	00H
	DB	00H
	DB	00H
	DB	00H
	DB	00H
	DB	00H
	DB	00H
	DB	00H
	DB	00H
	DB	00H
	DB	00H
	DB	00H
	DB	00H
	DB	00H
	DB	00H
	DB	00H
	DB	00H
	DB	00H
	DB	00H
	DB	00H
	DB	00H
	DB	00H
	DB	00H
	DB	00H
	DB	00H
	DB	00H
	DB	00H
	DB	00H
	DB	00H
	DB	00H
	DB	00H
	DB	00H
	DB	00H
	DB	00H
	DB	00H
	DB	00H
	DB	00H
	DB	00H
	DB	00H
	DB	00H
	DB	00H
	DB	00H
	DB	00H
	DB	00H
	DB	00H
	DB	00H
	DB	00H
	DB	00H
	DB	00H
	DB	00H
	DB	00H
	DB	00H
	DB	00H
	DB	00H
	DB	00H
	DB	00H
	DB	00H
	DB	00H
	DB	00H
	DB	00H
	DB	00H
	DB	00H
	DB	00H
	DB	00H
	DB	00H
	DB	00H
	DB	00H
	DB	00H
	DB	00H
	DB	00H
	DB	00H
	DB	00H
	DB	00H
	DB	00H
	DB	00H
	DB	00H
	DB	00H
	DB	00H
	DB	00H
	DB	00H
	DB	00H
	DB	00H
	DB	00H
	DB	00H
	DB	00H
	DB	00H
	DB	00H
	DB	00H
	DB	00H
	DB	00H
	DB	00H
	DB	00H
	DB	00H
	DB	00H
	DB	00H
	DB	00H
	DB	00H
	DB	00H
	DB	00H
	DB	00H
	DB	00H
	DB	00H
	DB	00H
	DB	00H
	DB	00H
	DB	00H
	DB	00H
	DB	00H
	DB	00H
	DB	00H
	DB	00H
	DB	00H
	DB	00H
	DB	00H
	DB	00H
	DB	00H
	DB	00H
	DB	00H
	DB	00H
	DB	00H
	DB	00H
	DB	00H
	DB	00H
	DB	00H
	DB	00H
	DB	00H
	DB	00H
	DB	00H
	DB	00H
	DB	00H
	DB	00H
	DB	00H
	DB	00H
	DB	00H
	DB	00H
	DB	00H
	DB	00H
	DB	00H
	DB	00H
	DB	00H
	DB	00H
	DB	00H
	DB	00H
	DB	00H
	DB	00H
	DB	00H
	DB	038H
	DB	0dH
	DB	06eH
	DB	0dH
	DB	04H
	DB	00H
	DB	00H
	DB	00H
	DB	00H
	DB	00H
	DB	06H
	DB	0dH
	DB	0dH
	DB	0cH
	DB	0fH
	DB	00H
	DB	00H
	DB	00H
	DB	00H
	DB	00H
	DB	00H
	DB	00H
	DB	00H
	DB	00H
	DB	00H
	DB	00H
	DB	00H
	DB	00H
	DB	00H
	DB	00H
	DB	00H
	DB	00H
	DB	00H
	DB	010H
	DB	0dH
	DB	06eH
	DB	0dH
	DB	06H
	DB	00H
	DB	00H
	DB	00H
	DB	00H
	DB	00H
	DB	00H
	DB	00H
	DB	00H
	DB	00H
	DB	00H
	DB	00H
	DB	00H
	DB	00H
	DB	00H
	DB	00H
	DB	00H
	DB	00H
	DB	00H
	DB	00H
	DB	00H
	DB	00H
	DB	00H
	DB	00H
	DB	00H
	DB	00H
	DB	00H
	DB	00H
	DB	00H
	DB	00H
	DB	00H
	DB	00H
	DB	00H
	DB	00H
	DB	00H
	DB	00H
	DB	00H
	DB	00H
	DB	00H
	DB	00H
	DB	00H
	DB	00H
	DB	00H
	DB	00H
	DB	00H
	DB	00H
	DB	00H
	DB	00H
	DB	00H
	DB	00H
	DB	00H
	DB	00H
	DB	00H
	DB	00H
	DB	00H
	DB	00H
	DB	00H
	DB	00H
	DB	00H
	DB	00H
	DB	00H
	DB	00H
	DB	00H
	DB	00H
	DB	00H
	DB	00H
	DB	00H
	DB	00H
	DB	00H
	DB	00H
	DB	00H
	DB	00H
	DB	00H
	DB	00H
	DB	00H
	DB	00H
	DB	00H
	DB	00H
	DB	00H
	DB	00H
	DB	00H
	DB	00H
	DB	00H
	DB	00H
	DB	00H
	DB	00H
	DB	00H
	DB	00H
	DB	00H
	DB	00H
	DB	025H
	DB	02H
	DB	02H
	DB	02H
	DB	013H
	DB	00H
	DB	00H
	DB	00H
	DB	00H
	DB	00H
	DB	016H
	DB	02H
	DB	02H
	DB	017H
	DB	06H
	DB	00H
	DB	00H
	DB	00H
	DB	00H
	DB	00H
	DB	00H
	DB	00H
	DB	00H
	DB	00H
	DB	00H
	DB	00H
	DB	00H
	DB	00H
	DB	00H
	DB	00H
	DB	00H
	DB	00H
	DB	00H
	DB	021H
	DB	02H
	DB	02H
	DB	02H
	DB	01bH
	DB	00H
	DB	00H
	DB	00H
	DB	00H
	DB	00H
	DB	0eH
	DB	02aH
	DB	0a5H
	DB	00H
	DB	00H
	DB	00H
	DB	00H
	DB	00H
	DB	00H
	DB	00H
	DB	00H
	DB	00H
	DB	00H
	DB	00H
	DB	00H
	DB	00H
	DB	00H
	DB	00H
	DB	00H
	DB	00H
	DB	00H
	DB	00H
	DB	00H
	DB	00H
	DB	00H
	DB	00H
	DB	00H
	DB	00H
	DB	00H
	DB	00H
	DB	00H
	DB	00H
	DB	00H
	DB	00H
	DB	00H
	DB	00H
	DB	00H
	DB	00H
	DB	00H
	DB	00H
	DB	00H
	DB	00H
	DB	00H
	DB	00H
	DB	00H
	DB	00H
	DB	00H
	DB	00H
	DB	00H
	DB	00H
	DB	00H
	DB	00H
	DB	00H
	DB	00H
	DB	00H
	DB	00H
	DB	00H
	DB	00H
	DB	00H
	DB	00H
	DB	00H
	DB	00H
	DB	00H
	DB	00H
	DB	00H
	DB	00H
	DB	00H
	DB	00H
	DB	00H
	DB	00H
	DB	00H
	DB	00H
	DB	00H
	DB	00H
	DB	00H
	DB	00H
	DB	00H
	DB	00H
	DB	00H
	DB	00H
	DB	00H
	DB	00H
	DB	00H
	DB	00H
	DB	025H
	DB	02H
	DB	02H
	DB	02H
	DB	0f4H
	DB	00H
	DB	00H
	DB	00H
	DB	00H
	DB	00H
	DB	016H
	DB	02H
	DB	02H
	DB	017H
	DB	06H
	DB	00H
	DB	00H
	DB	00H
	DB	00H
	DB	00H
	DB	00H
	DB	00H
	DB	00H
	DB	00H
	DB	00H
	DB	00H
	DB	00H
	DB	00H
	DB	00H
	DB	00H
	DB	00H
	DB	00H
	DB	00H
	DB	021H
	DB	02H
	DB	02H
	DB	02H
	DB	01bH
	DB	00H
	DB	00H
	DB	00H
	DB	022H
	DB	011H
	DB	017H
	DB	02H
	DB	016H
	DB	00H
	DB	00H
	DB	00H
	DB	00H
	DB	00H
	DB	00H
	DB	00H
	DB	00H
	DB	00H
	DB	00H
	DB	00H
	DB	00H
	DB	00H
	DB	00H
	DB	00H
	DB	00H
	DB	00H
	DB	00H
	DB	00H
	DB	00H
	DB	00H
	DB	00H
	DB	00H
	DB	00H
	DB	00H
	DB	00H
	DB	00H
	DB	00H
	DB	00H
	DB	00H
	DB	00H
	DB	00H
	DB	00H
	DB	00H
	DB	00H
	DB	00H
	DB	00H
	DB	00H
	DB	00H
	DB	00H
	DB	00H
	DB	00H
	DB	00H
	DB	00H
	DB	00H
	DB	00H
	DB	00H
	DB	00H
	DB	00H
	DB	00H
	DB	00H
	DB	00H
	DB	00H
	DB	00H
	DB	00H
	DB	00H
	DB	00H
	DB	00H
	DB	00H
	DB	00H
	DB	00H
	DB	00H
	DB	00H
	DB	00H
	DB	00H
	DB	00H
	DB	00H
	DB	00H
	DB	00H
	DB	00H
	DB	00H
	DB	00H
	DB	00H
	DB	00H
	DB	00H
	DB	00H
	DB	00H
	DB	00H
	DB	00H
	DB	00H
	DB	00H
	DB	025H
	DB	02H
	DB	02H
	DB	02H
	DB	0f4H
	DB	00H
	DB	00H
	DB	00H
	DB	00H
	DB	00H
	DB	016H
	DB	02H
	DB	02H
	DB	017H
	DB	06H
	DB	00H
	DB	00H
	DB	00H
	DB	00H
	DB	00H
	DB	00H
	DB	00H
	DB	00H
	DB	00H
	DB	00H
	DB	00H
	DB	00H
	DB	00H
	DB	00H
	DB	00H
	DB	00H
	DB	00H
	DB	00H
	DB	012H
	DB	025H
	DB	035H
	DB	025H
	DB	024H
	DB	00H
	DB	00H
	DB	00H
	DB	09H
	DB	02H
	DB	02H
	DB	0ffH
	DB	016H
	DB	00H
	DB	00H
	DB	00H
	DB	00H
	DB	00H
	DB	00H
	DB	00H
	DB	00H
	DB	00H
	DB	00H
	DB	00H
	DB	00H
	DB	00H
	DB	00H
	DB	00H
	DB	00H
	DB	00H
	DB	00H
	DB	00H
	DB	00H
	DB	00H
	DB	00H
	DB	00H
	DB	00H
	DB	00H
	DB	00H
	DB	00H
	DB	00H
	DB	00H
	DB	00H
	DB	00H
	DB	00H
	DB	00H
	DB	00H
	DB	00H
	DB	00H
	DB	00H
	DB	00H
	DB	00H
	DB	00H
	DB	00H
	DB	00H
	DB	00H
	DB	00H
	DB	00H
	DB	00H
	DB	00H
	DB	00H
	DB	00H
	DB	00H
	DB	00H
	DB	00H
	DB	00H
	DB	00H
	DB	00H
	DB	00H
	DB	00H
	DB	00H
	DB	00H
	DB	00H
	DB	00H
	DB	00H
	DB	00H
	DB	00H
	DB	00H
	DB	00H
	DB	00H
	DB	00H
	DB	00H
	DB	00H
	DB	00H
	DB	00H
	DB	00H
	DB	00H
	DB	00H
	DB	00H
	DB	00H
	DB	00H
	DB	00H
	DB	00H
	DB	00H
	DB	025H
	DB	02H
	DB	02H
	DB	02H
	DB	0f4H
	DB	00H
	DB	00H
	DB	00H
	DB	00H
	DB	00H
	DB	016H
	DB	02H
	DB	02H
	DB	017H
	DB	06H
	DB	00H
	DB	00H
	DB	00H
	DB	00H
	DB	00H
	DB	00H
	DB	00H
	DB	00H
	DB	00H
	DB	0fH
	DB	07H
	DB	063H
	DB	00H
	DB	00H
	DB	00H
	DB	00H
	DB	00H
	DB	00H
	DB	00H
	DB	00H
	DB	00H
	DB	00H
	DB	00H
	DB	00H
	DB	00H
	DB	00H
	DB	027H
	DB	02H
	DB	02H
	DB	0ffH
	DB	03H
	DB	00H
	DB	00H
	DB	00H
	DB	00H
	DB	00H
	DB	00H
	DB	00H
	DB	00H
	DB	00H
	DB	00H
	DB	00H
	DB	00H
	DB	00H
	DB	00H
	DB	00H
	DB	00H
	DB	00H
	DB	00H
	DB	00H
	DB	00H
	DB	00H
	DB	00H
	DB	00H
	DB	00H
	DB	00H
	DB	00H
	DB	00H
	DB	00H
	DB	00H
	DB	00H
	DB	00H
	DB	00H
	DB	00H
	DB	00H
	DB	00H
	DB	00H
	DB	00H
	DB	00H
	DB	00H
	DB	00H
	DB	00H
	DB	00H
	DB	00H
	DB	00H
	DB	00H
	DB	00H
	DB	00H
	DB	00H
	DB	00H
	DB	00H
	DB	00H
	DB	00H
	DB	00H
	DB	00H
	DB	00H
	DB	00H
	DB	00H
	DB	00H
	DB	00H
	DB	00H
	DB	00H
	DB	00H
	DB	00H
	DB	00H
	DB	00H
	DB	00H
	DB	00H
	DB	00H
	DB	00H
	DB	00H
	DB	00H
	DB	00H
	DB	00H
	DB	00H
	DB	00H
	DB	00H
	DB	00H
	DB	00H
	DB	00H
	DB	00H
	DB	00H
	DB	025H
	DB	02H
	DB	02H
	DB	02H
	DB	0f4H
	DB	00H
	DB	00H
	DB	00H
	DB	00H
	DB	00H
	DB	016H
	DB	02H
	DB	02H
	DB	017H
	DB	06H
	DB	00H
	DB	00H
	DB	0f6H
	DB	017H
	DB	01aH
	DB	021H
	DB	00H
	DB	0a5H
	DB	09H
	DB	01aH
	DB	017H
	DB	017H
	DB	021H
	DB	05H
	DB	00H
	DB	00H
	DB	00H
	DB	00H
	DB	09H
	DB	017H
	DB	01aH
	DB	017H
	DB	0a5H
	DB	00H
	DB	09H
	DB	017H
	DB	0ffH
	DB	02H
	DB	02H
	DB	02H
	DB	017H
	DB	01aH
	DB	0feH
	DB	02cH
	DB	00H
	DB	00H
	DB	01eH
	DB	012H
	DB	026H
	DB	01aH
	DB	01aH
	DB	0bH
	DB	035H
	DB	051H
	DB	00H
	DB	00H
	DB	00H
	DB	00H
	DB	00H
	DB	00H
	DB	00H
	DB	00H
	DB	00H
	DB	00H
	DB	00H
	DB	00H
	DB	00H
	DB	00H
	DB	00H
	DB	00H
	DB	00H
	DB	00H
	DB	00H
	DB	00H
	DB	00H
	DB	00H
	DB	00H
	DB	00H
	DB	00H
	DB	00H
	DB	00H
	DB	00H
	DB	00H
	DB	00H
	DB	00H
	DB	00H
	DB	00H
	DB	00H
	DB	00H
	DB	00H
	DB	00H
	DB	00H
	DB	00H
	DB	00H
	DB	00H
	DB	00H
	DB	00H
	DB	00H
	DB	00H
	DB	00H
	DB	00H
	DB	00H
	DB	00H
	DB	00H
	DB	00H
	DB	00H
	DB	00H
	DB	00H
	DB	00H
	DB	00H
	DB	00H
	DB	00H
	DB	00H
	DB	00H
	DB	00H
	DB	00H
	DB	00H
	DB	00H
	DB	00H
	DB	00H
	DB	00H
	DB	00H
	DB	025H
	DB	02H
	DB	02H
	DB	02H
	DB	0f4H
	DB	00H
	DB	00H
	DB	00H
	DB	00H
	DB	00H
	DB	016H
	DB	02H
	DB	02H
	DB	017H
	DB	06H
	DB	00H
	DB	00H
	DB	026H
	DB	02H
	DB	02H
	DB	01aH
	DB	0bbH
	DB	0ffH
	DB	02H
	DB	02H
	DB	02H
	DB	02H
	DB	02H
	DB	0bH
	DB	01H
	DB	00H
	DB	00H
	DB	00H
	DB	021H
	DB	02H
	DB	02H
	DB	02H
	DB	016H
	DB	00H
	DB	026H
	DB	02H
	DB	02H
	DB	02H
	DB	02H
	DB	02H
	DB	02H
	DB	02H
	DB	0ffH
	DB	016H
	DB	00H
	DB	02cH
	DB	0feH
	DB	02H
	DB	02H
	DB	02H
	DB	02H
	DB	02H
	DB	02H
	DB	017H
	DB	07H
	DB	00H
	DB	00H
	DB	00H
	DB	00H
	DB	00H
	DB	00H
	DB	00H
	DB	00H
	DB	00H
	DB	00H
	DB	00H
	DB	00H
	DB	00H
	DB	00H
	DB	00H
	DB	00H
	DB	00H
	DB	00H
	DB	00H
	DB	00H
	DB	00H
	DB	00H
	DB	00H
	DB	00H
	DB	00H
	DB	00H
	DB	00H
	DB	00H
	DB	00H
	DB	00H
	DB	00H
	DB	00H
	DB	00H
	DB	00H
	DB	00H
	DB	00H
	DB	00H
	DB	00H
	DB	00H
	DB	00H
	DB	00H
	DB	00H
	DB	00H
	DB	00H
	DB	00H
	DB	00H
	DB	00H
	DB	00H
	DB	00H
	DB	00H
	DB	00H
	DB	00H
	DB	00H
	DB	00H
	DB	00H
	DB	00H
	DB	00H
	DB	00H
	DB	00H
	DB	00H
	DB	00H
	DB	00H
	DB	00H
	DB	00H
	DB	00H
	DB	00H
	DB	00H
	DB	025H
	DB	02H
	DB	02H
	DB	02H
	DB	0f4H
	DB	00H
	DB	00H
	DB	00H
	DB	00H
	DB	00H
	DB	016H
	DB	02H
	DB	02H
	DB	017H
	DB	06H
	DB	00H
	DB	00H
	DB	026H
	DB	02H
	DB	02H
	DB	02H
	DB	0ffH
	DB	02H
	DB	0ffH
	DB	0ffH
	DB	02H
	DB	02H
	DB	02H
	DB	02H
	DB	051H
	DB	00H
	DB	00H
	DB	00H
	DB	021H
	DB	02H
	DB	02H
	DB	02H
	DB	016H
	DB	00H
	DB	029H
	DB	021H
	DB	017H
	DB	02H
	DB	02H
	DB	02H
	DB	0f9H
	DB	021H
	DB	025H
	DB	07H
	DB	00H
	DB	021H
	DB	02H
	DB	02H
	DB	0feH
	DB	0c5H
	DB	0dH
	DB	0c2H
	DB	035H
	DB	025H
	DB	022H
	DB	00H
	DB	00H
	DB	00H
	DB	00H
	DB	00H
	DB	00H
	DB	00H
	DB	00H
	DB	00H
	DB	00H
	DB	00H
	DB	00H
	DB	00H
	DB	00H
	DB	00H
	DB	00H
	DB	00H
	DB	00H
	DB	00H
	DB	00H
	DB	00H
	DB	00H
	DB	00H
	DB	00H
	DB	00H
	DB	00H
	DB	00H
	DB	00H
	DB	00H
	DB	00H
	DB	00H
	DB	00H
	DB	00H
	DB	00H
	DB	00H
	DB	00H
	DB	00H
	DB	00H
	DB	00H
	DB	00H
	DB	00H
	DB	00H
	DB	00H
	DB	00H
	DB	00H
	DB	00H
	DB	00H
	DB	00H
	DB	00H
	DB	00H
	DB	00H
	DB	00H
	DB	00H
	DB	00H
	DB	00H
	DB	00H
	DB	00H
	DB	00H
	DB	00H
	DB	00H
	DB	00H
	DB	00H
	DB	00H
	DB	00H
	DB	00H
	DB	00H
	DB	00H
	DB	025H
	DB	02H
	DB	02H
	DB	02H
	DB	0f4H
	DB	00H
	DB	00H
	DB	00H
	DB	00H
	DB	00H
	DB	016H
	DB	02H
	DB	02H
	DB	017H
	DB	06H
	DB	00H
	DB	00H
	DB	026H
	DB	02H
	DB	02H
	DB	02H
	DB	01aH
	DB	02eH
	DB	06H
	DB	0a5H
	DB	0fbH
	DB	02H
	DB	02H
	DB	02H
	DB	0c6H
	DB	00H
	DB	00H
	DB	00H
	DB	021H
	DB	02H
	DB	02H
	DB	02H
	DB	01bH
	DB	00H
	DB	00H
	DB	00H
	DB	027H
	DB	02H
	DB	02H
	DB	0ffH
	DB	03H
	DB	00H
	DB	00H
	DB	00H
	DB	032H
	DB	017H
	DB	02H
	DB	017H
	DB	07H
	DB	00H
	DB	00H
	DB	00H
	DB	00H
	DB	018H
	DB	00H
	DB	00H
	DB	00H
	DB	00H
	DB	00H
	DB	00H
	DB	00H
	DB	00H
	DB	00H
	DB	00H
	DB	00H
	DB	00H
	DB	00H
	DB	00H
	DB	00H
	DB	00H
	DB	00H
	DB	00H
	DB	00H
	DB	00H
	DB	00H
	DB	00H
	DB	00H
	DB	00H
	DB	00H
	DB	00H
	DB	00H
	DB	00H
	DB	00H
	DB	00H
	DB	00H
	DB	00H
	DB	00H
	DB	00H
	DB	00H
	DB	00H
	DB	00H
	DB	00H
	DB	00H
	DB	00H
	DB	00H
	DB	00H
	DB	00H
	DB	00H
	DB	00H
	DB	00H
	DB	00H
	DB	00H
	DB	00H
	DB	00H
	DB	00H
	DB	00H
	DB	00H
	DB	00H
	DB	00H
	DB	00H
	DB	00H
	DB	00H
	DB	00H
	DB	00H
	DB	00H
	DB	00H
	DB	00H
	DB	00H
	DB	00H
	DB	00H
	DB	00H
	DB	00H
	DB	025H
	DB	02H
	DB	02H
	DB	02H
	DB	0f4H
	DB	00H
	DB	00H
	DB	00H
	DB	00H
	DB	00H
	DB	016H
	DB	02H
	DB	02H
	DB	017H
	DB	06H
	DB	00H
	DB	00H
	DB	026H
	DB	02H
	DB	02H
	DB	02H
	DB	010H
	DB	00H
	DB	00H
	DB	00H
	DB	011H
	DB	02H
	DB	02H
	DB	02H
	DB	0f4H
	DB	00H
	DB	00H
	DB	00H
	DB	021H
	DB	02H
	DB	02H
	DB	02H
	DB	01bH
	DB	00H
	DB	00H
	DB	00H
	DB	027H
	DB	02H
	DB	02H
	DB	0ffH
	DB	03H
	DB	00H
	DB	00H
	DB	00H
	DB	03H
	DB	0ffH
	DB	02H
	DB	0ffH
	DB	03aH
	DB	00H
	DB	00H
	DB	00H
	DB	00H
	DB	00H
	DB	00H
	DB	00H
	DB	00H
	DB	00H
	DB	00H
	DB	00H
	DB	00H
	DB	00H
	DB	00H
	DB	00H
	DB	00H
	DB	00H
	DB	00H
	DB	00H
	DB	00H
	DB	00H
	DB	00H
	DB	00H
	DB	00H
	DB	00H
	DB	00H
	DB	00H
	DB	00H
	DB	00H
	DB	00H
	DB	00H
	DB	00H
	DB	00H
	DB	00H
	DB	00H
	DB	00H
	DB	00H
	DB	00H
	DB	00H
	DB	00H
	DB	00H
	DB	00H
	DB	00H
	DB	00H
	DB	00H
	DB	00H
	DB	00H
	DB	00H
	DB	00H
	DB	00H
	DB	00H
	DB	00H
	DB	00H
	DB	00H
	DB	00H
	DB	00H
	DB	00H
	DB	00H
	DB	00H
	DB	00H
	DB	00H
	DB	00H
	DB	00H
	DB	00H
	DB	00H
	DB	00H
	DB	00H
	DB	00H
	DB	00H
	DB	00H
	DB	00H
	DB	00H
	DB	00H
	DB	025H
	DB	02H
	DB	02H
	DB	02H
	DB	0f4H
	DB	00H
	DB	00H
	DB	00H
	DB	00H
	DB	00H
	DB	016H
	DB	02H
	DB	02H
	DB	017H
	DB	06H
	DB	00H
	DB	00H
	DB	026H
	DB	02H
	DB	02H
	DB	02H
	DB	01bH
	DB	00H
	DB	00H
	DB	00H
	DB	07dH
	DB	02H
	DB	02H
	DB	02H
	DB	0f3H
	DB	00H
	DB	00H
	DB	00H
	DB	021H
	DB	02H
	DB	02H
	DB	02H
	DB	01bH
	DB	00H
	DB	00H
	DB	00H
	DB	027H
	DB	02H
	DB	02H
	DB	0ffH
	DB	016H
	DB	00H
	DB	00H
	DB	00H
	DB	0eH
	DB	01aH
	DB	02H
	DB	02H
	DB	02H
	DB	027H
	DB	029H
	DB	01bH
	DB	00H
	DB	00H
	DB	00H
	DB	00H
	DB	00H
	DB	00H
	DB	00H
	DB	00H
	DB	00H
	DB	00H
	DB	00H
	DB	00H
	DB	00H
	DB	00H
	DB	00H
	DB	00H
	DB	00H
	DB	00H
	DB	00H
	DB	00H
	DB	00H
	DB	00H
	DB	00H
	DB	00H
	DB	00H
	DB	00H
	DB	00H
	DB	00H
	DB	00H
	DB	00H
	DB	00H
	DB	00H
	DB	00H
	DB	00H
	DB	00H
	DB	00H
	DB	00H
	DB	00H
	DB	00H
	DB	00H
	DB	00H
	DB	00H
	DB	00H
	DB	00H
	DB	00H
	DB	00H
	DB	00H
	DB	00H
	DB	00H
	DB	00H
	DB	00H
	DB	00H
	DB	00H
	DB	00H
	DB	00H
	DB	00H
	DB	00H
	DB	00H
	DB	00H
	DB	00H
	DB	00H
	DB	00H
	DB	00H
	DB	00H
	DB	00H
	DB	00H
	DB	00H
	DB	00H
	DB	00H
	DB	00H
	DB	025H
	DB	02H
	DB	02H
	DB	02H
	DB	0f4H
	DB	00H
	DB	00H
	DB	00H
	DB	00H
	DB	00H
	DB	016H
	DB	02H
	DB	02H
	DB	017H
	DB	06H
	DB	00H
	DB	00H
	DB	026H
	DB	02H
	DB	02H
	DB	02H
	DB	04H
	DB	00H
	DB	00H
	DB	00H
	DB	011H
	DB	02H
	DB	02H
	DB	02H
	DB	0f3H
	DB	00H
	DB	00H
	DB	00H
	DB	021H
	DB	02H
	DB	02H
	DB	02H
	DB	01bH
	DB	00H
	DB	00H
	DB	00H
	DB	027H
	DB	02H
	DB	02H
	DB	0ffH
	DB	016H
	DB	00H
	DB	00H
	DB	00H
	DB	00H
	DB	09H
	DB	02H
	DB	02H
	DB	02H
	DB	02H
	DB	02H
	DB	02H
	DB	027H
	DB	01bH
	DB	00H
	DB	00H
	DB	00H
	DB	00H
	DB	00H
	DB	00H
	DB	00H
	DB	00H
	DB	00H
	DB	00H
	DB	00H
	DB	00H
	DB	00H
	DB	00H
	DB	00H
	DB	00H
	DB	00H
	DB	00H
	DB	00H
	DB	00H
	DB	00H
	DB	00H
	DB	00H
	DB	00H
	DB	00H
	DB	00H
	DB	00H
	DB	00H
	DB	00H
	DB	00H
	DB	00H
	DB	00H
	DB	00H
	DB	00H
	DB	00H
	DB	00H
	DB	00H
	DB	00H
	DB	00H
	DB	00H
	DB	00H
	DB	00H
	DB	00H
	DB	00H
	DB	00H
	DB	00H
	DB	00H
	DB	00H
	DB	00H
	DB	00H
	DB	00H
	DB	00H
	DB	00H
	DB	00H
	DB	00H
	DB	00H
	DB	00H
	DB	00H
	DB	00H
	DB	00H
	DB	00H
	DB	00H
	DB	00H
	DB	00H
	DB	00H
	DB	00H
	DB	00H
	DB	00H
	DB	025H
	DB	02H
	DB	02H
	DB	02H
	DB	0f4H
	DB	00H
	DB	00H
	DB	00H
	DB	00H
	DB	00H
	DB	016H
	DB	02H
	DB	02H
	DB	017H
	DB	06H
	DB	00H
	DB	00H
	DB	026H
	DB	02H
	DB	02H
	DB	02H
	DB	04H
	DB	00H
	DB	00H
	DB	00H
	DB	011H
	DB	02H
	DB	02H
	DB	02H
	DB	0f3H
	DB	00H
	DB	00H
	DB	00H
	DB	021H
	DB	02H
	DB	02H
	DB	02H
	DB	01bH
	DB	00H
	DB	00H
	DB	00H
	DB	027H
	DB	02H
	DB	02H
	DB	0ffH
	DB	016H
	DB	00H
	DB	00H
	DB	00H
	DB	00H
	DB	06H
	DB	026H
	DB	02H
	DB	02H
	DB	02H
	DB	02H
	DB	02H
	DB	02H
	DB	0ffH
	DB	01bH
	DB	00H
	DB	00H
	DB	00H
	DB	00H
	DB	00H
	DB	00H
	DB	00H
	DB	00H
	DB	00H
	DB	00H
	DB	00H
	DB	00H
	DB	00H
	DB	00H
	DB	00H
	DB	00H
	DB	00H
	DB	00H
	DB	00H
	DB	00H
	DB	00H
	DB	00H
	DB	00H
	DB	00H
	DB	00H
	DB	00H
	DB	00H
	DB	00H
	DB	00H
	DB	00H
	DB	00H
	DB	00H
	DB	00H
	DB	00H
	DB	00H
	DB	00H
	DB	00H
	DB	00H
	DB	00H
	DB	00H
	DB	00H
	DB	00H
	DB	00H
	DB	00H
	DB	00H
	DB	00H
	DB	00H
	DB	00H
	DB	00H
	DB	00H
	DB	00H
	DB	00H
	DB	00H
	DB	00H
	DB	00H
	DB	00H
	DB	00H
	DB	00H
	DB	00H
	DB	00H
	DB	00H
	DB	00H
	DB	00H
	DB	00H
	DB	00H
	DB	00H
	DB	00H
	DB	025H
	DB	02H
	DB	02H
	DB	02H
	DB	0f3H
	DB	00H
	DB	00H
	DB	00H
	DB	00H
	DB	00H
	DB	016H
	DB	02H
	DB	02H
	DB	017H
	DB	06H
	DB	00H
	DB	00H
	DB	026H
	DB	02H
	DB	02H
	DB	02H
	DB	04H
	DB	00H
	DB	00H
	DB	00H
	DB	011H
	DB	02H
	DB	02H
	DB	02H
	DB	0f3H
	DB	00H
	DB	00H
	DB	00H
	DB	021H
	DB	02H
	DB	02H
	DB	02H
	DB	01bH
	DB	00H
	DB	00H
	DB	00H
	DB	027H
	DB	02H
	DB	02H
	DB	0ffH
	DB	016H
	DB	00H
	DB	00H
	DB	00H
	DB	00H
	DB	00H
	DB	00H
	DB	0cH
	DB	021H
	DB	017H
	DB	02H
	DB	02H
	DB	02H
	DB	02H
	DB	025H
	DB	00H
	DB	00H
	DB	00H
	DB	00H
	DB	00H
	DB	00H
	DB	00H
	DB	00H
	DB	00H
	DB	00H
	DB	00H
	DB	00H
	DB	00H
	DB	00H
	DB	00H
	DB	00H
	DB	00H
	DB	00H
	DB	00H
	DB	00H
	DB	00H
	DB	00H
	DB	00H
	DB	00H
	DB	00H
	DB	00H
	DB	00H
	DB	00H
	DB	00H
	DB	00H
	DB	00H
	DB	00H
	DB	00H
	DB	00H
	DB	00H
	DB	00H
	DB	00H
	DB	00H
	DB	00H
	DB	00H
	DB	00H
	DB	00H
	DB	00H
	DB	00H
	DB	00H
	DB	00H
	DB	00H
	DB	00H
	DB	00H
	DB	00H
	DB	00H
	DB	00H
	DB	00H
	DB	00H
	DB	00H
	DB	00H
	DB	00H
	DB	00H
	DB	00H
	DB	00H
	DB	00H
	DB	00H
	DB	00H
	DB	00H
	DB	00H
	DB	00H
	DB	00H
	DB	09H
	DB	02H
	DB	02H
	DB	02H
	DB	09H
	DB	00H
	DB	00H
	DB	00H
	DB	00H
	DB	00H
	DB	04H
	DB	02H
	DB	02H
	DB	017H
	DB	06H
	DB	00H
	DB	00H
	DB	026H
	DB	02H
	DB	02H
	DB	02H
	DB	04H
	DB	00H
	DB	00H
	DB	00H
	DB	011H
	DB	02H
	DB	02H
	DB	02H
	DB	0f3H
	DB	00H
	DB	00H
	DB	00H
	DB	021H
	DB	02H
	DB	02H
	DB	02H
	DB	01bH
	DB	00H
	DB	00H
	DB	00H
	DB	027H
	DB	02H
	DB	02H
	DB	0ffH
	DB	03H
	DB	00H
	DB	00H
	DB	00H
	DB	00H
	DB	00H
	DB	00H
	DB	00H
	DB	00H
	DB	0eH
	DB	014H
	DB	02H
	DB	02H
	DB	02H
	DB	017H
	DB	02bH
	DB	00H
	DB	00H
	DB	00H
	DB	00H
	DB	00H
	DB	00H
	DB	00H
	DB	00H
	DB	00H
	DB	00H
	DB	00H
	DB	00H
	DB	00H
	DB	00H
	DB	00H
	DB	00H
	DB	00H
	DB	00H
	DB	00H
	DB	00H
	DB	00H
	DB	00H
	DB	00H
	DB	00H
	DB	00H
	DB	00H
	DB	00H
	DB	00H
	DB	00H
	DB	00H
	DB	00H
	DB	00H
	DB	00H
	DB	00H
	DB	00H
	DB	00H
	DB	00H
	DB	00H
	DB	00H
	DB	00H
	DB	00H
	DB	00H
	DB	00H
	DB	00H
	DB	00H
	DB	00H
	DB	00H
	DB	00H
	DB	00H
	DB	00H
	DB	00H
	DB	00H
	DB	00H
	DB	00H
	DB	00H
	DB	00H
	DB	00H
	DB	00H
	DB	00H
	DB	00H
	DB	00H
	DB	00H
	DB	00H
	DB	00H
	DB	00H
	DB	00H
	DB	06eH
	DB	02H
	DB	02H
	DB	02H
	DB	01aH
	DB	01eH
	DB	00H
	DB	00H
	DB	00H
	DB	00H
	DB	02aH
	DB	02H
	DB	02H
	DB	0feH
	DB	00H
	DB	00H
	DB	00H
	DB	026H
	DB	02H
	DB	02H
	DB	02H
	DB	04H
	DB	00H
	DB	00H
	DB	00H
	DB	011H
	DB	02H
	DB	02H
	DB	02H
	DB	0f3H
	DB	00H
	DB	00H
	DB	00H
	DB	021H
	DB	02H
	DB	02H
	DB	02H
	DB	01bH
	DB	00H
	DB	00H
	DB	00H
	DB	0f9H
	DB	02H
	DB	02H
	DB	02H
	DB	04H
	DB	00H
	DB	00H
	DB	00H
	DB	00H
	DB	00H
	DB	00H
	DB	00H
	DB	00H
	DB	00H
	DB	00H
	DB	021H
	DB	02H
	DB	02H
	DB	017H
	DB	0fH
	DB	00H
	DB	00H
	DB	00H
	DB	00H
	DB	00H
	DB	00H
	DB	00H
	DB	00H
	DB	00H
	DB	00H
	DB	00H
	DB	00H
	DB	00H
	DB	00H
	DB	00H
	DB	00H
	DB	00H
	DB	00H
	DB	00H
	DB	00H
	DB	00H
	DB	00H
	DB	00H
	DB	00H
	DB	00H
	DB	00H
	DB	00H
	DB	00H
	DB	00H
	DB	00H
	DB	00H
	DB	00H
	DB	00H
	DB	00H
	DB	00H
	DB	00H
	DB	00H
	DB	00H
	DB	00H
	DB	00H
	DB	00H
	DB	00H
	DB	00H
	DB	00H
	DB	00H
	DB	00H
	DB	00H
	DB	00H
	DB	00H
	DB	00H
	DB	00H
	DB	00H
	DB	00H
	DB	00H
	DB	00H
	DB	00H
	DB	00H
	DB	00H
	DB	00H
	DB	00H
	DB	00H
	DB	00H
	DB	00H
	DB	00H
	DB	00H
	DB	00H
	DB	05H
	DB	017H
	DB	02H
	DB	02H
	DB	02H
	DB	0f9H
	DB	0cH
	DB	0a8H
	DB	07bH
	DB	014H
	DB	0ffH
	DB	02H
	DB	02H
	DB	02aH
	DB	00H
	DB	00H
	DB	00H
	DB	026H
	DB	02H
	DB	02H
	DB	02H
	DB	04H
	DB	00H
	DB	00H
	DB	00H
	DB	011H
	DB	02H
	DB	02H
	DB	02H
	DB	0f3H
	DB	00H
	DB	00H
	DB	00H
	DB	021H
	DB	02H
	DB	02H
	DB	02H
	DB	01bH
	DB	00H
	DB	00H
	DB	00H
	DB	0f6H
	DB	02H
	DB	02H
	DB	02H
	DB	013H
	DB	00H
	DB	00H
	DB	018H
	DB	01H
	DB	03H
	DB	00H
	DB	00H
	DB	00H
	DB	00H
	DB	018H
	DB	02fH
	DB	02H
	DB	02H
	DB	027H
	DB	00H
	DB	00H
	DB	00H
	DB	00H
	DB	00H
	DB	00H
	DB	00H
	DB	00H
	DB	00H
	DB	00H
	DB	00H
	DB	00H
	DB	00H
	DB	00H
	DB	00H
	DB	00H
	DB	00H
	DB	00H
	DB	00H
	DB	00H
	DB	00H
	DB	00H
	DB	00H
	DB	00H
	DB	00H
	DB	00H
	DB	00H
	DB	00H
	DB	00H
	DB	00H
	DB	00H
	DB	00H
	DB	00H
	DB	00H
	DB	00H
	DB	00H
	DB	00H
	DB	00H
	DB	00H
	DB	00H
	DB	00H
	DB	00H
	DB	00H
	DB	00H
	DB	00H
	DB	00H
	DB	00H
	DB	00H
	DB	00H
	DB	00H
	DB	00H
	DB	00H
	DB	00H
	DB	00H
	DB	00H
	DB	00H
	DB	00H
	DB	00H
	DB	00H
	DB	00H
	DB	00H
	DB	00H
	DB	00H
	DB	00H
	DB	00H
	DB	00H
	DB	00H
	DB	00H
	DB	0c2H
	DB	02H
	DB	02H
	DB	02H
	DB	02H
	DB	02H
	DB	0ffH
	DB	02H
	DB	02H
	DB	02H
	DB	02H
	DB	017H
	DB	07H
	DB	00H
	DB	00H
	DB	00H
	DB	026H
	DB	02H
	DB	02H
	DB	02H
	DB	04H
	DB	00H
	DB	00H
	DB	00H
	DB	011H
	DB	02H
	DB	02H
	DB	02H
	DB	0f3H
	DB	00H
	DB	00H
	DB	00H
	DB	021H
	DB	02H
	DB	02H
	DB	02H
	DB	01bH
	DB	00H
	DB	00H
	DB	00H
	DB	07bH
	DB	02H
	DB	02H
	DB	02H
	DB	02H
	DB	017H
	DB	017H
	DB	0c4H
	DB	024H
	DB	0ffH
	DB	02fH
	DB	014H
	DB	0c1H
	DB	02aH
	DB	01aH
	DB	02H
	DB	02H
	DB	02H
	DB	011H
	DB	00H
	DB	00H
	DB	00H
	DB	00H
	DB	00H
	DB	00H
	DB	00H
	DB	00H
	DB	00H
	DB	00H
	DB	00H
	DB	00H
	DB	00H
	DB	00H
	DB	00H
	DB	00H
	DB	00H
	DB	00H
	DB	00H
	DB	00H
	DB	00H
	DB	00H
	DB	00H
	DB	00H
	DB	00H
	DB	00H
	DB	00H
	DB	00H
	DB	00H
	DB	00H
	DB	00H
	DB	00H
	DB	00H
	DB	00H
	DB	00H
	DB	00H
	DB	00H
	DB	00H
	DB	00H
	DB	00H
	DB	00H
	DB	00H
	DB	00H
	DB	00H
	DB	00H
	DB	00H
	DB	00H
	DB	00H
	DB	00H
	DB	00H
	DB	00H
	DB	00H
	DB	00H
	DB	00H
	DB	00H
	DB	00H
	DB	00H
	DB	00H
	DB	00H
	DB	00H
	DB	00H
	DB	00H
	DB	00H
	DB	00H
	DB	00H
	DB	00H
	DB	00H
	DB	00H
	DB	00H
	DB	0dH
	DB	017H
	DB	02H
	DB	02H
	DB	02H
	DB	02H
	DB	02H
	DB	02H
	DB	02H
	DB	0fbH
	DB	016H
	DB	00H
	DB	00H
	DB	00H
	DB	00H
	DB	026H
	DB	02H
	DB	02H
	DB	02H
	DB	01dH
	DB	00H
	DB	00H
	DB	00H
	DB	011H
	DB	02H
	DB	02H
	DB	02H
	DB	0f4H
	DB	00H
	DB	00H
	DB	00H
	DB	026H
	DB	02H
	DB	02H
	DB	02H
	DB	01bH
	DB	00H
	DB	00H
	DB	00H
	DB	00H
	DB	0c6H
	DB	02H
	DB	02H
	DB	02H
	DB	02H
	DB	02H
	DB	021H
	DB	010H
	DB	02H
	DB	02H
	DB	02H
	DB	02H
	DB	02H
	DB	02H
	DB	02H
	DB	0ffH
	DB	0c6H
	DB	00H
	DB	00H
	DB	00H
	DB	00H
	DB	00H
	DB	00H
	DB	00H
	DB	00H
	DB	00H
	DB	00H
	DB	00H
	DB	00H
	DB	00H
	DB	00H
	DB	00H
	DB	00H
	DB	00H
	DB	00H
	DB	00H
	DB	00H
	DB	00H
	DB	00H
	DB	00H
	DB	00H
	DB	00H
	DB	00H
	DB	00H
	DB	00H
	DB	00H
	DB	00H
	DB	00H
	DB	00H
	DB	00H
	DB	00H
	DB	00H
	DB	00H
	DB	00H
	DB	00H
	DB	00H
	DB	00H
	DB	00H
	DB	00H
	DB	00H
	DB	00H
	DB	00H
	DB	00H
	DB	00H
	DB	00H
	DB	00H
	DB	00H
	DB	00H
	DB	00H
	DB	00H
	DB	00H
	DB	00H
	DB	00H
	DB	00H
	DB	00H
	DB	00H
	DB	00H
	DB	00H
	DB	00H
	DB	00H
	DB	00H
	DB	00H
	DB	00H
	DB	00H
	DB	00H
	DB	00H
	DB	00H
	DB	00H
	DB	06H
	DB	07dH
	DB	0f4H
	DB	025H
	DB	025H
	DB	035H
	DB	014H
	DB	08H
	DB	022H
	DB	00H
	DB	00H
	DB	00H
	DB	00H
	DB	00H
	DB	029H
	DB	021H
	DB	025H
	DB	025H
	DB	05H
	DB	00H
	DB	00H
	DB	00H
	DB	0a8H
	DB	021H
	DB	025H
	DB	021H
	DB	0bbH
	DB	00H
	DB	00H
	DB	00H
	DB	0c2H
	DB	021H
	DB	025H
	DB	021H
	DB	024H
	DB	00H
	DB	00H
	DB	00H
	DB	00H
	DB	00H
	DB	010H
	DB	09H
	DB	025H
	DB	025H
	DB	0c5H
	DB	04H
	DB	018H
	DB	011H
	DB	0f6H
	DB	027H
	DB	02fH
	DB	02fH
	DB	021H
	DB	014H
	DB	0a5H
	DB	00H
	DB	00H
	DB	00H
	DB	00H
	DB	00H
	DB	00H
	DB	00H
	DB	00H
	DB	00H
	DB	00H
	DB	00H
	DB	00H
	DB	00H
	DB	00H
	DB	00H
	DB	00H
	DB	00H
	DB	00H
	DB	00H
	DB	00H
	DB	00H
	DB	00H
	DB	00H
	DB	00H
	DB	00H
	DB	00H
	DB	00H
	DB	00H
	DB	00H
	DB	00H
	DB	00H
	DB	00H
	DB	00H
	DB	00H
	DB	00H
	DB	00H
	DB	00H
	DB	00H
	DB	00H
	DB	00H
	DB	00H
	DB	00H
	DB	00H
	DB	00H
	DB	00H
	DB	00H
	DB	00H
	DB	00H
	DB	00H
	DB	00H
	DB	00H
	DB	00H
	DB	00H
	DB	00H
	DB	00H
	DB	00H
	DB	00H
	DB	00H
	DB	00H
	DB	00H
	DB	00H
	DB	00H
	DB	00H
	DB	00H
	DB	00H
	DB	00H
	DB	00H
	DB	00H
	DB	00H
	DB	00H
	DB	00H
	DB	00H
	DB	00H
	DB	00H
	DB	00H
	DB	00H
	DB	00H
	DB	00H
	DB	00H
	DB	00H
	DB	00H
	DB	00H
	DB	00H
	DB	00H
	DB	00H
	DB	00H
	DB	00H
	DB	00H
	DB	00H
	DB	00H
	DB	00H
	DB	00H
	DB	00H
	DB	00H
	DB	00H
	DB	00H
	DB	00H
	DB	00H
	DB	00H
	DB	00H
	DB	00H
	DB	00H
	DB	00H
	DB	00H
	DB	00H
	DB	00H
	DB	00H
	DB	00H
	DB	00H
	DB	00H
	DB	00H
	DB	00H
	DB	00H
	DB	00H
	DB	00H
	DB	00H
	DB	00H
	DB	00H
	DB	00H
	DB	00H
	DB	00H
	DB	02bH
	DB	018H
	DB	018H
	DB	00H
	DB	00H
	DB	00H
	DB	00H
	DB	00H
	DB	00H
	DB	00H
	DB	00H
	DB	00H
	DB	00H
	DB	00H
	DB	00H
	DB	00H
	DB	00H
	DB	00H
	DB	00H
	DB	00H
	DB	00H
	DB	00H
	DB	00H
	DB	00H
	DB	00H
	DB	00H
	DB	00H
	DB	00H
	DB	00H
	DB	00H
	DB	00H
	DB	00H
	DB	00H
	DB	00H
	DB	00H
	DB	00H
	DB	00H
	DB	00H
	DB	00H
	DB	00H
	DB	00H
	DB	00H
	DB	00H
	DB	00H
	DB	00H
	DB	00H
	DB	00H
	DB	00H
	DB	00H
	DB	00H
	DB	00H
	DB	00H
	DB	00H
	DB	00H
	DB	00H
	DB	00H
	DB	00H
	DB	00H
	DB	00H
	DB	00H
	DB	00H
	DB	00H
	DB	00H
	DB	00H
	DB	00H
	DB	00H
	DB	00H
	DB	00H
	DB	00H
	DB	00H
	DB	00H
	DB	00H
	DB	00H
	DB	00H
	DB	00H
	DB	00H
	DB	00H
	DB	00H
	DB	00H
	DB	00H
	DB	00H
	DB	00H
	DB	00H
	DB	00H
	DB	00H
	DB	00H
	DB	00H
	DB	00H
	DB	00H
	DB	00H
	DB	00H
	DB	00H
	DB	00H
	DB	00H
	DB	00H
	DB	00H
	DB	00H
	DB	00H
	DB	00H
	DB	00H
	DB	00H
	DB	00H
	DB	00H
	DB	00H
	DB	00H
	DB	00H
	DB	00H
	DB	00H
	DB	00H
	DB	00H
	DB	00H
	DB	00H
	DB	00H
	DB	00H
	DB	00H
	DB	00H
	DB	00H
	DB	00H
	DB	00H
	DB	00H
	DB	00H
	DB	00H
	DB	00H
	DB	00H
	DB	00H
	DB	00H
	DB	00H
	DB	00H
	DB	00H
	DB	00H
	DB	00H
	DB	00H
	DB	00H
	DB	00H
	DB	00H
	DB	00H
	DB	00H
	DB	00H
	DB	00H
	DB	00H
	DB	00H
	DB	00H
	DB	00H
	DB	00H
	DB	00H
	DB	00H
	DB	00H
	DB	00H
	DB	00H
	DB	00H
	DB	00H
	DB	00H
	DB	00H
	DB	00H
	DB	00H
	DB	00H
	DB	00H
	DB	00H
	DB	00H
	DB	00H
	DB	00H
	DB	00H
	DB	00H
	DB	00H
	DB	00H
	DB	00H
	DB	00H
	DB	00H
	DB	00H
	DB	00H
	DB	00H
	DB	00H
	DB	00H
	DB	00H
	DB	00H
	DB	00H
	DB	00H
	DB	00H
	DB	00H
	DB	00H
	DB	00H
	DB	00H
	DB	00H
	DB	00H
	DB	00H
	DB	00H
	DB	00H
	DB	00H
	DB	00H
	DB	00H
	DB	00H
	DB	00H
	DB	00H
	DB	00H
	DB	00H
	DB	00H
	DB	00H
	DB	00H
	DB	00H
	DB	00H
	DB	00H
	DB	00H
	DB	00H
	DB	00H
	DB	00H
	DB	00H
	DB	00H
	DB	00H
	DB	00H
	DB	00H
	DB	00H
	DB	00H
	DB	00H
	DB	00H
	DB	00H
	DB	00H
	DB	00H
	DB	00H
	DB	00H
	DB	00H
	DB	00H
	DB	00H
	DB	00H
	DB	00H
	DB	00H
	DB	00H
	DB	00H
	DB	00H
	DB	00H
	DB	00H
	DB	00H
	DB	00H
	DB	00H
	DB	00H
	DB	00H
	DB	00H
	DB	00H
	DB	00H
	DB	00H
	DB	00H
	DB	00H
	DB	00H
	DB	00H
	DB	00H
	DB	00H
	DB	00H
	DB	00H
	DB	00H
	DB	00H
	DB	00H
	DB	00H
	DB	00H
	DB	00H
	DB	00H
	DB	00H
	DB	00H
	DB	00H
	DB	00H
	DB	00H
	DB	00H
	DB	00H
	DB	00H
	DB	00H
	DB	00H
	DB	00H
	DB	00H
	DB	00H
	DB	00H
	DB	00H
	DB	00H
	DB	00H
	DB	00H
	DB	00H
	DB	00H
	DB	00H
	DB	00H
	DB	00H
	DB	00H
	DB	00H
	DB	00H
	DB	00H
	DB	00H
	DB	00H
	DB	00H
	DB	00H
	DB	00H
	DB	00H
	DB	00H
	DB	00H
	DB	00H
	DB	00H
	DB	00H
	DB	00H
	DB	00H
	DB	00H
	DB	00H
	DB	00H
	DB	00H
	DB	00H
	DB	00H
	DB	00H
	DB	00H
	DB	00H
	DB	00H
	DB	00H
	DB	00H
	DB	00H
	DB	00H
	DB	00H
	DB	00H
	DB	00H
	DB	00H
	DB	00H
	DB	00H
	DB	00H
	DB	00H
	DB	00H
	DB	00H
	DB	00H
	DB	00H
	DB	00H
	DB	00H
	DB	00H
	DB	00H
	DB	00H
	DB	00H
	DB	00H
	DB	00H
	DB	00H
	DB	00H
	DB	00H
	DB	00H
	DB	00H
	DB	00H
	DB	00H
	DB	00H
	DB	00H
	DB	00H
	DB	00H
	DB	00H
	DB	00H
	DB	00H
	DB	00H
	DB	00H
	DB	00H
	DB	00H
	DB	00H
	DB	00H
	DB	00H
	DB	00H
	DB	00H
	DB	00H
	DB	00H
	DB	00H
	DB	00H
	DB	00H
	DB	00H
	DB	00H
	DB	00H
	DB	00H
	DB	00H
	DB	00H
	DB	00H
	DB	00H
	DB	00H
	DB	00H
	DB	00H
	DB	00H
	DB	00H
	DB	00H
	DB	00H
	DB	00H
	DB	00H
	DB	00H
	DB	00H
	DB	00H
	DB	00H
	DB	00H
	DB	00H
	DB	00H
	DB	00H
	DB	00H
	DB	00H
	DB	00H
	DB	00H
	DB	00H
	DB	00H
	DB	00H
	DB	00H
	DB	00H
	DB	00H
	DB	00H
	DB	00H
	DB	00H
	DB	00H
	DB	00H
	DB	00H
	DB	00H
	DB	00H
	DB	00H
	DB	00H
	DB	00H
	DB	00H
	DB	00H
	DB	00H
	DB	00H
	DB	00H
	DB	00H
	DB	00H
	DB	00H
	DB	00H
	DB	00H
	DB	00H
	DB	00H
	DB	00H
	DB	00H
	DB	00H
	DB	00H
	DB	00H
	DB	00H
	DB	00H
	DB	00H
	DB	00H
	DB	00H
	DB	00H
	DB	00H
	DB	00H
	DB	00H
	DB	00H
	DB	00H
	DB	00H
	DB	00H
	DB	00H
	DB	00H
	DB	00H
	DB	00H
	DB	00H
	DB	00H
	DB	00H
	DB	00H
	DB	00H
	DB	00H
	DB	00H
	DB	00H
	DB	00H
	DB	00H
	DB	00H
	DB	00H
	DB	00H
	DB	00H
	DB	00H
	DB	00H
	DB	00H
	DB	00H
	DB	00H
	DB	00H
	DB	00H
	DB	00H
	DB	00H
	DB	00H
	DB	00H
	DB	00H
	DB	00H
	DB	00H
	DB	00H
	DB	00H
	DB	00H
	DB	00H
	DB	00H
	DB	00H
	DB	00H
	DB	00H
	DB	00H
	DB	00H
	DB	00H
	DB	00H
	DB	00H
	DB	00H
	DB	00H
	DB	00H
	DB	00H
	DB	00H
	DB	00H
	DB	00H
	DB	00H
	DB	00H
	DB	00H
	DB	00H
	DB	00H
	DB	00H
	DB	00H
	DB	00H
	DB	00H
	DB	00H
	DB	00H
	DB	00H
	DB	00H
	DB	00H
	DB	00H
	DB	00H
	DB	00H
	DB	00H
	DB	00H
	DB	00H
	DB	00H
	DB	00H
	DB	00H
	DB	00H
	DB	00H
	DB	00H
	DB	00H
	DB	00H
	DB	00H
	DB	00H
	DB	00H
	DB	00H
	DB	00H
	DB	00H
	DB	00H
	DB	00H
	DB	00H
	DB	00H
	DB	00H
	DB	00H
	DB	00H
	DB	00H
	DB	00H
	DB	00H
	DB	00H
	DB	00H
	DB	00H
	DB	00H
	DB	00H
	DB	00H
	DB	00H
	DB	00H
	DB	00H
	DB	00H
	DB	00H
	DB	00H
	DB	00H
	DB	00H
	DB	00H
	DB	00H
	DB	00H
	DB	00H
	DB	00H
	DB	00H
	DB	00H
	DB	00H
	DB	00H
	DB	00H
	DB	00H
	DB	00H
	DB	00H
	DB	00H
	DB	00H
	DB	00H
	DB	00H
	DB	00H
	DB	00H
	DB	00H
	DB	00H
	DB	00H
	DB	00H
	DB	00H
	DB	00H
	DB	00H
	DB	00H
	DB	00H
	DB	00H
	DB	00H
	DB	00H
	DB	00H
	DB	00H
	DB	00H
	DB	00H
	DB	00H
	DB	00H
	DB	00H
	DB	00H
	DB	00H
	DB	00H
	DB	00H
	DB	00H
	DB	00H
	DB	00H
	DB	00H
	DB	00H
	DB	00H
	DB	00H
	DB	00H
	DB	00H
	DB	00H
	DB	00H
	DB	00H
	DB	00H
	DB	00H
	DB	00H
	DB	00H
	DB	00H
	DB	00H
	DB	00H
	DB	00H
	DB	00H
	DB	00H
	DB	00H
	DB	00H
	DB	00H
	DB	00H
	DB	00H
	DB	00H
	DB	00H
	DB	00H
	DB	00H
	DB	00H
	DB	00H
	DB	00H
	DB	00H
	DB	00H
	DB	00H
	DB	00H
	DB	00H
	DB	00H
	DB	00H
	DB	00H
	DB	00H
	DB	00H
	DB	00H
	DB	00H
	DB	00H
	DB	00H
	DB	00H
	DB	00H
	DB	00H
	DB	00H
	DB	00H
	DB	00H
	DB	00H
	DB	00H
	DB	00H
	DB	00H
	DB	00H
	DB	00H
	DB	00H
	DB	00H
	DB	00H
	DB	00H
	DB	00H
	DB	00H
	DB	00H
	DB	00H
	DB	00H
	DB	00H
	DB	00H
	DB	00H
	DB	00H
	DB	00H
	DB	00H
	DB	00H
	DB	00H
	DB	00H
	DB	00H
	DB	00H
	DB	00H
	DB	00H
	DB	00H
	DB	00H
	DB	00H
	DB	00H
	DB	00H
	DB	00H
	DB	00H
	DB	00H
	DB	00H
	DB	00H
	DB	00H
	DB	00H
	DB	00H
	DB	00H
	DB	00H
	DB	00H
	DB	00H
	DB	00H
	DB	00H
	DB	00H
	DB	00H
	DB	00H
	DB	00H
	DB	00H
	DB	00H
	DB	00H
	DB	00H
	DB	00H
	DB	00H
	DB	00H
	DB	00H
	DB	00H
	DB	00H
	DB	00H
	DB	00H
	DB	00H
	DB	00H
	DB	00H
	DB	00H
	DB	00H
	DB	00H
	DB	00H
	DB	00H
	DB	00H
	DB	00H
	DB	00H
	DB	00H
	DB	00H
	DB	00H
	DB	00H
	DB	00H
	DB	00H
	DB	00H
	DB	00H
	DB	00H
	DB	00H
	DB	00H
	DB	00H
	DB	00H
	DB	00H
	DB	00H
	DB	00H
	DB	00H
	DB	00H
	DB	00H
	DB	00H
	DB	00H
	DB	00H
	DB	00H
	DB	00H
	DB	00H
	DB	00H
	DB	00H
	DB	00H
	DB	00H
	DB	00H
	DB	00H
	DB	00H
	DB	00H
	DB	00H
	DB	00H
	DB	00H
	DB	00H
	DB	00H
	DB	00H
	DB	00H
	DB	00H
	DB	00H
	DB	00H
	DB	00H
	DB	00H
	DB	00H
	DB	00H
	DB	00H
	DB	00H
	DB	00H
	DB	00H
	DB	00H
	DB	00H
	DB	00H
	DB	00H
	DB	00H
	DB	00H
	DB	00H
	DB	00H
	DB	00H
	DB	00H
	DB	00H
	DB	00H
	DB	00H
	DB	00H
	DB	00H
	DB	00H
	DB	00H
	DB	00H
	DB	00H
	DB	00H
	DB	00H
	DB	00H
	DB	00H
	DB	00H
	DB	00H
	DB	00H
	DB	00H
	DB	00H
	DB	00H
	DB	00H
	DB	00H
	DB	00H
	DB	00H
	DB	00H
	DB	00H
	DB	00H
	DB	00H
	DB	00H
	DB	00H
CONST	ENDS
END
