; Listing generated by Microsoft (R) Optimizing Compiler Version 16.00.40219.01 

	TITLE	C:\DUII\DUII\Graphics\UniversalBackground&Center.c
	.686P
	.XMM
	include listing.inc
	.model	flat

INCLUDELIB LIBCMT
INCLUDELIB OLDNAMES

PUBLIC	_bmUniversalBackgroundCenter
EXTRN	_GUI_BitmapMethods555:BYTE
CONST	SEGMENT
_acUniversalBackgroundCenter DW 00H
	DW	00H
	DW	00H
	DW	00H
	DW	00H
	DW	00H
	DW	00H
	DW	00H
	DW	00H
	DW	00H
	DW	00H
	DW	00H
	DW	00H
	DW	00H
	DW	00H
	DW	00H
	DW	00H
	DW	00H
	DW	00H
	DW	00H
	DW	00H
	DW	00H
	DW	00H
	DW	00H
	DW	00H
	DW	00H
	DW	00H
	DW	00H
	DW	00H
	DW	00H
	DW	00H
	DW	00H
	DW	00H
	DW	00H
	DW	00H
	DW	00H
	DW	00H
	DW	00H
	DW	00H
	DW	00H
	DW	00H
	DW	00H
	DW	00H
	DW	00H
	DW	00H
	DW	00H
	DW	00H
	DW	00H
	DW	00H
	DW	00H
	DW	00H
	DW	00H
	DW	00H
	DW	00H
	DW	00H
	DW	00H
	DW	00H
	DW	00H
	DW	00H
	DW	00H
	DW	00H
	DW	00H
	DW	00H
	DW	00H
	DW	00H
	DW	00H
	DW	00H
	DW	00H
	DW	00H
	DW	00H
	DW	00H
	DW	00H
	DW	00H
	DW	00H
	DW	00H
	DW	00H
	DW	00H
	DW	00H
	DW	00H
	DW	00H
	DW	00H
	DW	00H
	DW	00H
	DW	00H
	DW	00H
	DW	00H
	DW	00H
	DW	00H
	DW	00H
	DW	00H
	DW	00H
	DW	00H
	DW	00H
	DW	00H
	DW	00H
	DW	00H
	DW	00H
	DW	00H
	DW	00H
	DW	0842H
	DW	0c63H
	DW	01084H
	DW	01ce7H
	DW	02529H
	DW	0294aH
	DW	0318cH
	DW	035adH
	DW	039ceH
	DW	03defH
	DW	04210H
	DW	04210H
	DW	04210H
	DW	04210H
	DW	04210H
	DW	04210H
	DW	03defH
	DW	039ceH
	DW	035adH
	DW	0318cH
	DW	02d6bH
	DW	02529H
	DW	02108H
	DW	018c6H
	DW	01084H
	DW	0c63H
	DW	0842H
	DW	0421H
	DW	00H
	DW	00H
	DW	00H
	DW	00H
	DW	00H
	DW	00H
	DW	00H
	DW	00H
	DW	00H
	DW	00H
	DW	00H
	DW	00H
	DW	00H
	DW	00H
	DW	00H
	DW	00H
	DW	00H
	DW	00H
	DW	00H
	DW	00H
	DW	00H
	DW	00H
	DW	00H
	DW	00H
	DW	00H
	DW	00H
	DW	00H
	DW	00H
	DW	00H
	DW	00H
	DW	00H
	DW	00H
	DW	00H
	DW	00H
	DW	00H
	DW	00H
	DW	00H
	DW	00H
	DW	00H
	DW	00H
	DW	00H
	DW	00H
	DW	00H
	DW	00H
	DW	00H
	DW	00H
	DW	00H
	DW	00H
	DW	00H
	DW	00H
	DW	00H
	DW	00H
	DW	00H
	DW	00H
	DW	00H
	DW	00H
	DW	00H
	DW	00H
	DW	00H
	DW	00H
	DW	00H
	DW	00H
	DW	00H
	DW	00H
	DW	00H
	DW	00H
	DW	00H
	DW	00H
	DW	00H
	DW	00H
	DW	00H
	DW	00H
	DW	00H
	DW	00H
	DW	00H
	DW	00H
	DW	00H
	DW	00H
	DW	00H
	DW	00H
	DW	00H
	DW	00H
	DW	00H
	DW	00H
	DW	00H
	DW	00H
	DW	00H
	DW	00H
	DW	00H
	DW	00H
	DW	00H
	DW	00H
	DW	00H
	DW	00H
	DW	00H
	DW	00H
	DW	00H
	DW	00H
	DW	00H
	DW	00H
	DW	00H
	DW	00H
	DW	00H
	DW	00H
	DW	00H
	DW	00H
	DW	00H
	DW	00H
	DW	00H
	DW	00H
	DW	00H
	DW	00H
	DW	00H
	DW	00H
	DW	00H
	DW	00H
	DW	00H
	DW	00H
	DW	00H
	DW	00H
	DW	00H
	DW	00H
	DW	00H
	DW	00H
	DW	00H
	DW	00H
	DW	00H
	DW	00H
	DW	00H
	DW	00H
	DW	00H
	DW	00H
	DW	00H
	DW	00H
	DW	00H
	DW	00H
	DW	00H
	DW	00H
	DW	00H
	DW	00H
	DW	00H
	DW	00H
	DW	00H
	DW	00H
	DW	00H
	DW	00H
	DW	00H
	DW	00H
	DW	00H
	DW	00H
	DW	00H
	DW	00H
	DW	00H
	DW	00H
	DW	00H
	DW	00H
	DW	00H
	DW	00H
	DW	00H
	DW	00H
	DW	00H
	DW	00H
	DW	00H
	DW	00H
	DW	00H
	DW	00H
	DW	00H
	DW	00H
	DW	00H
	DW	00H
	DW	00H
	DW	00H
	DW	00H
	DW	00H
	DW	00H
	DW	00H
	DW	00H
	DW	00H
	DW	00H
	DW	00H
	DW	00H
	DW	00H
	DW	00H
	DW	00H
	DW	00H
	DW	00H
	DW	00H
	DW	00H
	DW	00H
	DW	00H
	DW	00H
	DW	0842H
	DW	01084H
	DW	01ce7H
	DW	02529H
	DW	02d6bH
	DW	035adH
	DW	03defH
	DW	04210H
	DW	04631H
	DW	04a52H
	DW	04a52H
	DW	04a52H
	DW	04a52H
	DW	04a52H
	DW	04a52H
	DW	04631H
	DW	04631H
	DW	04631H
	DW	04631H
	DW	04631H
	DW	04631H
	DW	04210H
	DW	04210H
	DW	04210H
	DW	04210H
	DW	04210H
	DW	03defH
	DW	03defH
	DW	03defH
	DW	03defH
	DW	039ceH
	DW	035adH
	DW	0318cH
	DW	0294aH
	DW	02529H
	DW	01ce7H
	DW	018c6H
	DW	01084H
	DW	0c63H
	DW	0421H
	DW	00H
	DW	00H
	DW	00H
	DW	00H
	DW	00H
	DW	00H
	DW	00H
	DW	00H
	DW	00H
	DW	00H
	DW	00H
	DW	00H
	DW	00H
	DW	00H
	DW	00H
	DW	00H
	DW	00H
	DW	00H
	DW	00H
	DW	00H
	DW	00H
	DW	00H
	DW	00H
	DW	00H
	DW	00H
	DW	00H
	DW	00H
	DW	00H
	DW	00H
	DW	00H
	DW	00H
	DW	00H
	DW	00H
	DW	00H
	DW	00H
	DW	00H
	DW	00H
	DW	00H
	DW	00H
	DW	00H
	DW	00H
	DW	00H
	DW	00H
	DW	00H
	DW	00H
	DW	00H
	DW	00H
	DW	00H
	DW	00H
	DW	00H
	DW	00H
	DW	00H
	DW	00H
	DW	00H
	DW	00H
	DW	00H
	DW	00H
	DW	00H
	DW	00H
	DW	00H
	DW	00H
	DW	00H
	DW	00H
	DW	00H
	DW	00H
	DW	00H
	DW	00H
	DW	00H
	DW	00H
	DW	00H
	DW	00H
	DW	00H
	DW	00H
	DW	00H
	DW	00H
	DW	00H
	DW	00H
	DW	00H
	DW	00H
	DW	00H
	DW	00H
	DW	00H
	DW	00H
	DW	00H
	DW	00H
	DW	00H
	DW	00H
	DW	00H
	DW	00H
	DW	00H
	DW	00H
	DW	00H
	DW	00H
	DW	00H
	DW	00H
	DW	00H
	DW	00H
	DW	00H
	DW	00H
	DW	00H
	DW	00H
	DW	00H
	DW	00H
	DW	00H
	DW	00H
	DW	00H
	DW	00H
	DW	00H
	DW	00H
	DW	00H
	DW	00H
	DW	00H
	DW	00H
	DW	00H
	DW	00H
	DW	00H
	DW	00H
	DW	00H
	DW	00H
	DW	00H
	DW	00H
	DW	00H
	DW	00H
	DW	00H
	DW	00H
	DW	00H
	DW	00H
	DW	00H
	DW	00H
	DW	00H
	DW	00H
	DW	00H
	DW	00H
	DW	00H
	DW	00H
	DW	00H
	DW	00H
	DW	00H
	DW	00H
	DW	00H
	DW	00H
	DW	00H
	DW	00H
	DW	00H
	DW	00H
	DW	00H
	DW	00H
	DW	00H
	DW	00H
	DW	00H
	DW	00H
	DW	00H
	DW	00H
	DW	00H
	DW	00H
	DW	00H
	DW	00H
	DW	00H
	DW	00H
	DW	00H
	DW	00H
	DW	00H
	DW	00H
	DW	00H
	DW	00H
	DW	00H
	DW	00H
	DW	00H
	DW	00H
	DW	00H
	DW	00H
	DW	00H
	DW	00H
	DW	00H
	DW	00H
	DW	00H
	DW	00H
	DW	00H
	DW	00H
	DW	00H
	DW	0842H
	DW	018c6H
	DW	02529H
	DW	035adH
	DW	04210H
	DW	04a52H
	DW	04e73H
	DW	05294H
	DW	04e73H
	DW	04e73H
	DW	04e73H
	DW	04e73H
	DW	04e73H
	DW	04e73H
	DW	04a52H
	DW	04a52H
	DW	04a52H
	DW	04a52H
	DW	04a52H
	DW	04a52H
	DW	04a52H
	DW	04631H
	DW	04631H
	DW	04631H
	DW	04631H
	DW	04631H
	DW	04631H
	DW	04210H
	DW	04210H
	DW	04210H
	DW	04210H
	DW	04210H
	DW	03defH
	DW	03defH
	DW	03defH
	DW	03defH
	DW	03defH
	DW	039ceH
	DW	039ceH
	DW	039ceH
	DW	039ceH
	DW	035adH
	DW	035adH
	DW	0318cH
	DW	02d6bH
	DW	02529H
	DW	01ce7H
	DW	014a5H
	DW	0c63H
	DW	0421H
	DW	00H
	DW	00H
	DW	00H
	DW	00H
	DW	00H
	DW	00H
	DW	00H
	DW	00H
	DW	00H
	DW	00H
	DW	00H
	DW	00H
	DW	00H
	DW	00H
	DW	00H
	DW	00H
	DW	00H
	DW	00H
	DW	00H
	DW	00H
	DW	00H
	DW	00H
	DW	00H
	DW	00H
	DW	00H
	DW	00H
	DW	00H
	DW	00H
	DW	00H
	DW	00H
	DW	00H
	DW	00H
	DW	00H
	DW	00H
	DW	00H
	DW	00H
	DW	00H
	DW	00H
	DW	00H
	DW	00H
	DW	00H
	DW	00H
	DW	00H
	DW	00H
	DW	00H
	DW	00H
	DW	00H
	DW	00H
	DW	00H
	DW	00H
	DW	00H
	DW	00H
	DW	00H
	DW	00H
	DW	00H
	DW	00H
	DW	00H
	DW	00H
	DW	00H
	DW	00H
	DW	00H
	DW	00H
	DW	00H
	DW	00H
	DW	00H
	DW	00H
	DW	00H
	DW	00H
	DW	00H
	DW	00H
	DW	00H
	DW	00H
	DW	00H
	DW	00H
	DW	00H
	DW	00H
	DW	00H
	DW	00H
	DW	00H
	DW	00H
	DW	00H
	DW	00H
	DW	00H
	DW	00H
	DW	00H
	DW	00H
	DW	00H
	DW	00H
	DW	00H
	DW	00H
	DW	00H
	DW	00H
	DW	00H
	DW	00H
	DW	00H
	DW	00H
	DW	00H
	DW	00H
	DW	00H
	DW	00H
	DW	00H
	DW	00H
	DW	00H
	DW	00H
	DW	00H
	DW	00H
	DW	00H
	DW	00H
	DW	00H
	DW	00H
	DW	00H
	DW	00H
	DW	00H
	DW	00H
	DW	00H
	DW	00H
	DW	00H
	DW	00H
	DW	00H
	DW	00H
	DW	00H
	DW	00H
	DW	00H
	DW	00H
	DW	00H
	DW	00H
	DW	00H
	DW	00H
	DW	00H
	DW	00H
	DW	00H
	DW	00H
	DW	00H
	DW	00H
	DW	00H
	DW	00H
	DW	00H
	DW	00H
	DW	00H
	DW	00H
	DW	00H
	DW	00H
	DW	00H
	DW	00H
	DW	00H
	DW	00H
	DW	00H
	DW	00H
	DW	00H
	DW	00H
	DW	00H
	DW	00H
	DW	00H
	DW	00H
	DW	00H
	DW	00H
	DW	00H
	DW	00H
	DW	00H
	DW	00H
	DW	00H
	DW	00H
	DW	00H
	DW	00H
	DW	00H
	DW	00H
	DW	00H
	DW	00H
	DW	00H
	DW	00H
	DW	00H
	DW	0c63H
	DW	01ce7H
	DW	035adH
	DW	04210H
	DW	04e73H
	DW	056b5H
	DW	05294H
	DW	05294H
	DW	05294H
	DW	05294H
	DW	05294H
	DW	04e73H
	DW	04e73H
	DW	04e73H
	DW	04e73H
	DW	04e73H
	DW	04e73H
	DW	04e73H
	DW	04e73H
	DW	04e73H
	DW	04a52H
	DW	04a52H
	DW	04a52H
	DW	04a52H
	DW	04a52H
	DW	04a52H
	DW	04631H
	DW	04631H
	DW	04631H
	DW	04631H
	DW	04631H
	DW	04210H
	DW	04210H
	DW	04210H
	DW	04210H
	DW	04210H
	DW	03defH
	DW	03defH
	DW	03defH
	DW	03defH
	DW	03defH
	DW	039ceH
	DW	039ceH
	DW	039ceH
	DW	039ceH
	DW	035adH
	DW	035adH
	DW	035adH
	DW	035adH
	DW	0318cH
	DW	0318cH
	DW	0318cH
	DW	02d6bH
	DW	0294aH
	DW	02108H
	DW	014a5H
	DW	0c63H
	DW	0421H
	DW	00H
	DW	00H
	DW	00H
	DW	00H
	DW	00H
	DW	00H
	DW	00H
	DW	00H
	DW	00H
	DW	00H
	DW	00H
	DW	00H
	DW	00H
	DW	00H
	DW	00H
	DW	00H
	DW	00H
	DW	00H
	DW	00H
	DW	00H
	DW	00H
	DW	00H
	DW	00H
	DW	00H
	DW	00H
	DW	00H
	DW	00H
	DW	00H
	DW	00H
	DW	00H
	DW	00H
	DW	00H
	DW	00H
	DW	00H
	DW	00H
	DW	00H
	DW	00H
	DW	00H
	DW	00H
	DW	00H
	DW	00H
	DW	00H
	DW	00H
	DW	00H
	DW	00H
	DW	00H
	DW	00H
	DW	00H
	DW	00H
	DW	00H
	DW	00H
	DW	00H
	DW	00H
	DW	00H
	DW	00H
	DW	00H
	DW	00H
	DW	00H
	DW	00H
	DW	00H
	DW	00H
	DW	00H
	DW	00H
	DW	00H
	DW	00H
	DW	00H
	DW	00H
	DW	00H
	DW	00H
	DW	00H
	DW	00H
	DW	00H
	DW	00H
	DW	00H
	DW	00H
	DW	00H
	DW	00H
	DW	00H
	DW	00H
	DW	00H
	DW	00H
	DW	00H
	DW	00H
	DW	00H
	DW	00H
	DW	00H
	DW	00H
	DW	00H
	DW	00H
	DW	00H
	DW	00H
	DW	00H
	DW	00H
	DW	00H
	DW	00H
	DW	00H
	DW	00H
	DW	00H
	DW	00H
	DW	00H
	DW	00H
	DW	00H
	DW	00H
	DW	00H
	DW	00H
	DW	00H
	DW	00H
	DW	00H
	DW	00H
	DW	00H
	DW	00H
	DW	00H
	DW	00H
	DW	00H
	DW	00H
	DW	00H
	DW	00H
	DW	00H
	DW	00H
	DW	00H
	DW	00H
	DW	00H
	DW	00H
	DW	00H
	DW	00H
	DW	00H
	DW	00H
	DW	00H
	DW	00H
	DW	00H
	DW	00H
	DW	00H
	DW	00H
	DW	00H
	DW	00H
	DW	00H
	DW	00H
	DW	00H
	DW	00H
	DW	00H
	DW	00H
	DW	00H
	DW	00H
	DW	00H
	DW	00H
	DW	00H
	DW	00H
	DW	00H
	DW	00H
	DW	00H
	DW	00H
	DW	00H
	DW	00H
	DW	00H
	DW	00H
	DW	00H
	DW	00H
	DW	00H
	DW	00H
	DW	00H
	DW	00H
	DW	00H
	DW	00H
	DW	0842H
	DW	018c6H
	DW	0318cH
	DW	04210H
	DW	05294H
	DW	056b5H
	DW	056b5H
	DW	056b5H
	DW	05294H
	DW	05294H
	DW	05294H
	DW	05294H
	DW	05294H
	DW	05294H
	DW	05294H
	DW	05294H
	DW	05294H
	DW	04e73H
	DW	04e73H
	DW	04e73H
	DW	04e73H
	DW	04e73H
	DW	04e73H
	DW	04e73H
	DW	04e73H
	DW	04a52H
	DW	04a52H
	DW	04a52H
	DW	04a52H
	DW	04a52H
	DW	04a52H
	DW	04631H
	DW	04631H
	DW	04631H
	DW	04631H
	DW	04631H
	DW	04210H
	DW	04210H
	DW	04210H
	DW	04210H
	DW	04210H
	DW	03defH
	DW	03defH
	DW	03defH
	DW	03defH
	DW	039ceH
	DW	039ceH
	DW	039ceH
	DW	039ceH
	DW	039ceH
	DW	035adH
	DW	035adH
	DW	035adH
	DW	035adH
	DW	0318cH
	DW	0318cH
	DW	0318cH
	DW	0318cH
	DW	02d6bH
	DW	02d6bH
	DW	02d6bH
	DW	02529H
	DW	01ce7H
	DW	01084H
	DW	0842H
	DW	00H
	DW	00H
	DW	00H
	DW	00H
	DW	00H
	DW	00H
	DW	00H
	DW	00H
	DW	00H
	DW	00H
	DW	00H
	DW	00H
	DW	00H
	DW	00H
	DW	00H
	DW	00H
	DW	00H
	DW	00H
	DW	00H
	DW	00H
	DW	00H
	DW	00H
	DW	00H
	DW	00H
	DW	00H
	DW	00H
	DW	00H
	DW	00H
	DW	00H
	DW	00H
	DW	00H
	DW	00H
	DW	00H
	DW	00H
	DW	00H
	DW	00H
	DW	00H
	DW	00H
	DW	00H
	DW	00H
	DW	00H
	DW	00H
	DW	00H
	DW	00H
	DW	00H
	DW	00H
	DW	00H
	DW	00H
	DW	00H
	DW	00H
	DW	00H
	DW	00H
	DW	00H
	DW	00H
	DW	00H
	DW	00H
	DW	00H
	DW	00H
	DW	00H
	DW	00H
	DW	00H
	DW	00H
	DW	00H
	DW	00H
	DW	00H
	DW	00H
	DW	00H
	DW	00H
	DW	00H
	DW	00H
	DW	00H
	DW	00H
	DW	00H
	DW	00H
	DW	00H
	DW	00H
	DW	00H
	DW	00H
	DW	00H
	DW	00H
	DW	00H
	DW	00H
	DW	00H
	DW	00H
	DW	00H
	DW	00H
	DW	00H
	DW	00H
	DW	00H
	DW	00H
	DW	00H
	DW	00H
	DW	00H
	DW	00H
	DW	00H
	DW	00H
	DW	00H
	DW	00H
	DW	00H
	DW	00H
	DW	00H
	DW	00H
	DW	00H
	DW	00H
	DW	00H
	DW	00H
	DW	00H
	DW	00H
	DW	00H
	DW	00H
	DW	00H
	DW	00H
	DW	00H
	DW	00H
	DW	00H
	DW	00H
	DW	00H
	DW	00H
	DW	00H
	DW	00H
	DW	00H
	DW	00H
	DW	00H
	DW	00H
	DW	00H
	DW	00H
	DW	00H
	DW	00H
	DW	00H
	DW	00H
	DW	00H
	DW	00H
	DW	00H
	DW	00H
	DW	00H
	DW	00H
	DW	00H
	DW	00H
	DW	00H
	DW	00H
	DW	00H
	DW	00H
	DW	00H
	DW	00H
	DW	00H
	DW	00H
	DW	00H
	DW	00H
	DW	00H
	DW	00H
	DW	00H
	DW	00H
	DW	00H
	DW	00H
	DW	00H
	DW	00H
	DW	00H
	DW	0842H
	DW	02108H
	DW	039ceH
	DW	04e73H
	DW	056b5H
	DW	056b5H
	DW	056b5H
	DW	056b5H
	DW	056b5H
	DW	056b5H
	DW	056b5H
	DW	05294H
	DW	05294H
	DW	05294H
	DW	05294H
	DW	05294H
	DW	05294H
	DW	05294H
	DW	05294H
	DW	05294H
	DW	05294H
	DW	04e73H
	DW	04e73H
	DW	04e73H
	DW	04e73H
	DW	04e73H
	DW	04e73H
	DW	04e73H
	DW	04a52H
	DW	04a52H
	DW	04a52H
	DW	04a52H
	DW	04a52H
	DW	04a52H
	DW	04a52H
	DW	04631H
	DW	04631H
	DW	04631H
	DW	04631H
	DW	04631H
	DW	04210H
	DW	04210H
	DW	04210H
	DW	04210H
	DW	03defH
	DW	03defH
	DW	03defH
	DW	03defH
	DW	03defH
	DW	039ceH
	DW	039ceH
	DW	039ceH
	DW	039ceH
	DW	035adH
	DW	035adH
	DW	035adH
	DW	035adH
	DW	0318cH
	DW	0318cH
	DW	0318cH
	DW	0318cH
	DW	02d6bH
	DW	02d6bH
	DW	02d6bH
	DW	02d6bH
	DW	0294aH
	DW	0294aH
	DW	02529H
	DW	01ce7H
	DW	014a5H
	DW	0842H
	DW	00H
	DW	00H
	DW	00H
	DW	00H
	DW	00H
	DW	00H
	DW	00H
	DW	00H
	DW	00H
	DW	00H
	DW	00H
	DW	00H
	DW	00H
	DW	00H
	DW	00H
	DW	00H
	DW	00H
	DW	00H
	DW	00H
	DW	00H
	DW	00H
	DW	00H
	DW	00H
	DW	00H
	DW	00H
	DW	00H
	DW	00H
	DW	00H
	DW	00H
	DW	00H
	DW	00H
	DW	00H
	DW	00H
	DW	00H
	DW	00H
	DW	00H
	DW	00H
	DW	00H
	DW	00H
	DW	00H
	DW	00H
	DW	00H
	DW	00H
	DW	00H
	DW	00H
	DW	00H
	DW	00H
	DW	00H
	DW	00H
	DW	00H
	DW	00H
	DW	00H
	DW	00H
	DW	00H
	DW	00H
	DW	00H
	DW	00H
	DW	00H
	DW	00H
	DW	00H
	DW	00H
	DW	00H
	DW	00H
	DW	00H
	DW	00H
	DW	00H
	DW	00H
	DW	00H
	DW	00H
	DW	00H
	DW	00H
	DW	00H
	DW	00H
	DW	00H
	DW	00H
	DW	00H
	DW	00H
	DW	00H
	DW	00H
	DW	00H
	DW	00H
	DW	00H
	DW	00H
	DW	00H
	DW	00H
	DW	00H
	DW	00H
	DW	00H
	DW	00H
	DW	00H
	DW	00H
	DW	00H
	DW	00H
	DW	00H
	DW	00H
	DW	00H
	DW	00H
	DW	00H
	DW	00H
	DW	00H
	DW	00H
	DW	00H
	DW	00H
	DW	00H
	DW	00H
	DW	00H
	DW	00H
	DW	00H
	DW	00H
	DW	00H
	DW	00H
	DW	00H
	DW	00H
	DW	00H
	DW	00H
	DW	00H
	DW	00H
	DW	00H
	DW	00H
	DW	00H
	DW	00H
	DW	00H
	DW	00H
	DW	00H
	DW	00H
	DW	00H
	DW	00H
	DW	00H
	DW	00H
	DW	00H
	DW	00H
	DW	00H
	DW	00H
	DW	00H
	DW	00H
	DW	00H
	DW	00H
	DW	00H
	DW	00H
	DW	00H
	DW	00H
	DW	00H
	DW	00H
	DW	00H
	DW	00H
	DW	00H
	DW	00H
	DW	00H
	DW	00H
	DW	00H
	DW	00H
	DW	0842H
	DW	02108H
	DW	03defH
	DW	05294H
	DW	056b5H
	DW	056b5H
	DW	056b5H
	DW	056b5H
	DW	056b5H
	DW	056b5H
	DW	056b5H
	DW	056b5H
	DW	056b5H
	DW	056b5H
	DW	056b5H
	DW	056b5H
	DW	056b5H
	DW	05294H
	DW	05294H
	DW	05294H
	DW	05294H
	DW	05294H
	DW	05294H
	DW	05294H
	DW	05294H
	DW	04e73H
	DW	04e73H
	DW	04e73H
	DW	04e73H
	DW	04e73H
	DW	04e73H
	DW	04e73H
	DW	04a52H
	DW	04a52H
	DW	04a52H
	DW	04a52H
	DW	04a52H
	DW	04a52H
	DW	04631H
	DW	04631H
	DW	04631H
	DW	04631H
	DW	04631H
	DW	04631H
	DW	04210H
	DW	04210H
	DW	04210H
	DW	04210H
	DW	03defH
	DW	03defH
	DW	03defH
	DW	03defH
	DW	039ceH
	DW	039ceH
	DW	039ceH
	DW	039ceH
	DW	039ceH
	DW	035adH
	DW	035adH
	DW	035adH
	DW	0318cH
	DW	0318cH
	DW	0318cH
	DW	0318cH
	DW	02d6bH
	DW	02d6bH
	DW	02d6bH
	DW	02d6bH
	DW	0294aH
	DW	0294aH
	DW	0294aH
	DW	0294aH
	DW	02529H
	DW	02108H
	DW	01ce7H
	DW	01084H
	DW	0842H
	DW	00H
	DW	00H
	DW	00H
	DW	00H
	DW	00H
	DW	00H
	DW	00H
	DW	00H
	DW	00H
	DW	00H
	DW	00H
	DW	00H
	DW	00H
	DW	00H
	DW	00H
	DW	00H
	DW	00H
	DW	00H
	DW	00H
	DW	00H
	DW	00H
	DW	00H
	DW	00H
	DW	00H
	DW	00H
	DW	00H
	DW	00H
	DW	00H
	DW	00H
	DW	00H
	DW	00H
	DW	00H
	DW	00H
	DW	00H
	DW	00H
	DW	00H
	DW	00H
	DW	00H
	DW	00H
	DW	00H
	DW	00H
	DW	00H
	DW	00H
	DW	00H
	DW	00H
	DW	00H
	DW	00H
	DW	00H
	DW	00H
	DW	00H
	DW	00H
	DW	00H
	DW	00H
	DW	00H
	DW	00H
	DW	00H
	DW	00H
	DW	00H
	DW	00H
	DW	00H
	DW	00H
	DW	00H
	DW	00H
	DW	00H
	DW	00H
	DW	00H
	DW	00H
	DW	00H
	DW	00H
	DW	00H
	DW	00H
	DW	00H
	DW	00H
	DW	00H
	DW	00H
	DW	00H
	DW	00H
	DW	00H
	DW	00H
	DW	00H
	DW	00H
	DW	00H
	DW	00H
	DW	00H
	DW	00H
	DW	00H
	DW	00H
	DW	00H
	DW	00H
	DW	00H
	DW	00H
	DW	00H
	DW	00H
	DW	00H
	DW	00H
	DW	00H
	DW	00H
	DW	00H
	DW	00H
	DW	00H
	DW	00H
	DW	00H
	DW	00H
	DW	00H
	DW	00H
	DW	00H
	DW	00H
	DW	00H
	DW	00H
	DW	00H
	DW	00H
	DW	00H
	DW	00H
	DW	00H
	DW	00H
	DW	00H
	DW	00H
	DW	00H
	DW	00H
	DW	00H
	DW	00H
	DW	00H
	DW	00H
	DW	00H
	DW	00H
	DW	00H
	DW	00H
	DW	00H
	DW	00H
	DW	00H
	DW	00H
	DW	00H
	DW	00H
	DW	00H
	DW	00H
	DW	00H
	DW	00H
	DW	00H
	DW	00H
	DW	00H
	DW	00H
	DW	00H
	DW	00H
	DW	00H
	DW	00H
	DW	0421H
	DW	018c6H
	DW	035adH
	DW	05294H
	DW	05ad6H
	DW	05ad6H
	DW	056b5H
	DW	056b5H
	DW	056b5H
	DW	056b5H
	DW	056b5H
	DW	056b5H
	DW	056b5H
	DW	056b5H
	DW	056b5H
	DW	056b5H
	DW	056b5H
	DW	056b5H
	DW	056b5H
	DW	056b5H
	DW	05294H
	DW	05294H
	DW	05294H
	DW	05294H
	DW	05294H
	DW	05294H
	DW	05294H
	DW	05294H
	DW	05294H
	DW	04e73H
	DW	04e73H
	DW	04e73H
	DW	04e73H
	DW	04e73H
	DW	04e73H
	DW	04e73H
	DW	04e73H
	DW	04a52H
	DW	04a52H
	DW	04a52H
	DW	04a52H
	DW	04a52H
	DW	04631H
	DW	04631H
	DW	04631H
	DW	04631H
	DW	04631H
	DW	04210H
	DW	04210H
	DW	04210H
	DW	04210H
	DW	03defH
	DW	03defH
	DW	03defH
	DW	03defH
	DW	03defH
	DW	039ceH
	DW	039ceH
	DW	039ceH
	DW	039ceH
	DW	035adH
	DW	035adH
	DW	035adH
	DW	035adH
	DW	0318cH
	DW	0318cH
	DW	0318cH
	DW	02d6bH
	DW	02d6bH
	DW	02d6bH
	DW	02d6bH
	DW	0294aH
	DW	0294aH
	DW	0294aH
	DW	0294aH
	DW	02529H
	DW	02529H
	DW	02529H
	DW	02108H
	DW	02108H
	DW	018c6H
	DW	0c63H
	DW	0421H
	DW	00H
	DW	00H
	DW	00H
	DW	00H
	DW	00H
	DW	00H
	DW	00H
	DW	00H
	DW	00H
	DW	00H
	DW	00H
	DW	00H
	DW	00H
	DW	00H
	DW	00H
	DW	00H
	DW	00H
	DW	00H
	DW	00H
	DW	00H
	DW	00H
	DW	00H
	DW	00H
	DW	00H
	DW	00H
	DW	00H
	DW	00H
	DW	00H
	DW	00H
	DW	00H
	DW	00H
	DW	00H
	DW	00H
	DW	00H
	DW	00H
	DW	00H
	DW	00H
	DW	00H
	DW	00H
	DW	00H
	DW	00H
	DW	00H
	DW	00H
	DW	00H
	DW	00H
	DW	00H
	DW	00H
	DW	00H
	DW	00H
	DW	00H
	DW	00H
	DW	00H
	DW	00H
	DW	00H
	DW	00H
	DW	00H
	DW	00H
	DW	00H
	DW	00H
	DW	00H
	DW	00H
	DW	00H
	DW	00H
	DW	00H
	DW	00H
	DW	00H
	DW	00H
	DW	00H
	DW	00H
	DW	00H
	DW	00H
	DW	00H
	DW	00H
	DW	00H
	DW	00H
	DW	00H
	DW	00H
	DW	00H
	DW	00H
	DW	00H
	DW	00H
	DW	00H
	DW	00H
	DW	00H
	DW	00H
	DW	00H
	DW	00H
	DW	00H
	DW	00H
	DW	00H
	DW	00H
	DW	00H
	DW	00H
	DW	00H
	DW	00H
	DW	00H
	DW	00H
	DW	00H
	DW	00H
	DW	00H
	DW	00H
	DW	00H
	DW	00H
	DW	00H
	DW	00H
	DW	00H
	DW	00H
	DW	00H
	DW	00H
	DW	00H
	DW	00H
	DW	00H
	DW	00H
	DW	00H
	DW	00H
	DW	00H
	DW	00H
	DW	00H
	DW	00H
	DW	00H
	DW	00H
	DW	00H
	DW	00H
	DW	00H
	DW	00H
	DW	00H
	DW	00H
	DW	00H
	DW	00H
	DW	00H
	DW	00H
	DW	00H
	DW	00H
	DW	00H
	DW	00H
	DW	00H
	DW	00H
	DW	00H
	DW	00H
	DW	00H
	DW	0c63H
	DW	0294aH
	DW	04631H
	DW	05ad6H
	DW	05ad6H
	DW	05ad6H
	DW	05ad6H
	DW	05ad6H
	DW	056b5H
	DW	056b5H
	DW	056b5H
	DW	05ad6H
	DW	056b5H
	DW	056b5H
	DW	056b5H
	DW	056b5H
	DW	056b5H
	DW	056b5H
	DW	056b5H
	DW	056b5H
	DW	056b5H
	DW	056b5H
	DW	05294H
	DW	056b5H
	DW	05294H
	DW	05294H
	DW	05294H
	DW	05294H
	DW	05294H
	DW	05294H
	DW	05294H
	DW	05294H
	DW	04e73H
	DW	04e73H
	DW	04e73H
	DW	04e73H
	DW	04e73H
	DW	04e73H
	DW	04e73H
	DW	04a52H
	DW	04a52H
	DW	04a52H
	DW	04a52H
	DW	04a52H
	DW	04631H
	DW	04631H
	DW	04631H
	DW	04631H
	DW	04631H
	DW	04631H
	DW	04210H
	DW	04210H
	DW	04210H
	DW	04210H
	DW	03defH
	DW	03defH
	DW	03defH
	DW	03defH
	DW	039ceH
	DW	039ceH
	DW	039ceH
	DW	039ceH
	DW	035adH
	DW	035adH
	DW	035adH
	DW	035adH
	DW	0318cH
	DW	0318cH
	DW	0318cH
	DW	02d6bH
	DW	02d6bH
	DW	02d6bH
	DW	02d6bH
	DW	0294aH
	DW	0294aH
	DW	0294aH
	DW	0294aH
	DW	02529H
	DW	02529H
	DW	02529H
	DW	02108H
	DW	02108H
	DW	02108H
	DW	02108H
	DW	018c6H
	DW	01084H
	DW	0842H
	DW	00H
	DW	00H
	DW	00H
	DW	00H
	DW	00H
	DW	00H
	DW	00H
	DW	00H
	DW	00H
	DW	00H
	DW	00H
	DW	00H
	DW	00H
	DW	00H
	DW	00H
	DW	00H
	DW	00H
	DW	00H
	DW	00H
	DW	00H
	DW	00H
	DW	00H
	DW	00H
	DW	00H
	DW	00H
	DW	00H
	DW	00H
	DW	00H
	DW	00H
	DW	00H
	DW	00H
	DW	00H
	DW	00H
	DW	00H
	DW	00H
	DW	00H
	DW	00H
	DW	00H
	DW	00H
	DW	00H
	DW	00H
	DW	00H
	DW	00H
	DW	00H
	DW	00H
	DW	00H
	DW	00H
	DW	00H
	DW	00H
	DW	00H
	DW	00H
	DW	00H
	DW	00H
	DW	00H
	DW	00H
	DW	00H
	DW	00H
	DW	00H
	DW	00H
	DW	00H
	DW	00H
	DW	00H
	DW	00H
	DW	00H
	DW	00H
	DW	00H
	DW	00H
	DW	00H
	DW	00H
	DW	00H
	DW	00H
	DW	00H
	DW	00H
	DW	00H
	DW	00H
	DW	00H
	DW	00H
	DW	00H
	DW	00H
	DW	00H
	DW	00H
	DW	00H
	DW	00H
	DW	00H
	DW	00H
	DW	00H
	DW	00H
	DW	00H
	DW	00H
	DW	00H
	DW	00H
	DW	00H
	DW	00H
	DW	00H
	DW	00H
	DW	00H
	DW	00H
	DW	00H
	DW	00H
	DW	00H
	DW	00H
	DW	00H
	DW	00H
	DW	00H
	DW	00H
	DW	00H
	DW	00H
	DW	00H
	DW	00H
	DW	00H
	DW	00H
	DW	00H
	DW	00H
	DW	00H
	DW	00H
	DW	00H
	DW	00H
	DW	00H
	DW	00H
	DW	00H
	DW	00H
	DW	00H
	DW	00H
	DW	00H
	DW	00H
	DW	00H
	DW	00H
	DW	00H
	DW	00H
	DW	00H
	DW	00H
	DW	00H
	DW	00H
	DW	00H
	DW	00H
	DW	00H
	DW	014a5H
	DW	035adH
	DW	05294H
	DW	05ad6H
	DW	05ad6H
	DW	05ad6H
	DW	05ad6H
	DW	05ad6H
	DW	05ad6H
	DW	05ad6H
	DW	05ad6H
	DW	05ad6H
	DW	056b5H
	DW	056b5H
	DW	05ad6H
	DW	056b5H
	DW	056b5H
	DW	056b5H
	DW	056b5H
	DW	056b5H
	DW	056b5H
	DW	056b5H
	DW	056b5H
	DW	056b5H
	DW	056b5H
	DW	056b5H
	DW	056b5H
	DW	05294H
	DW	05294H
	DW	05294H
	DW	05294H
	DW	05294H
	DW	05294H
	DW	05294H
	DW	04e73H
	DW	04e73H
	DW	04e73H
	DW	04e73H
	DW	04e73H
	DW	04e73H
	DW	04e73H
	DW	04e73H
	DW	04e73H
	DW	04a52H
	DW	04a52H
	DW	04a52H
	DW	04a52H
	DW	04a52H
	DW	04631H
	DW	04631H
	DW	04631H
	DW	04631H
	DW	04210H
	DW	04210H
	DW	04210H
	DW	04210H
	DW	03defH
	DW	03defH
	DW	03defH
	DW	03defH
	DW	03defH
	DW	039ceH
	DW	039ceH
	DW	039ceH
	DW	039ceH
	DW	035adH
	DW	035adH
	DW	035adH
	DW	0318cH
	DW	0318cH
	DW	0318cH
	DW	02d6bH
	DW	02d6bH
	DW	02d6bH
	DW	02d6bH
	DW	0294aH
	DW	0294aH
	DW	0294aH
	DW	0294aH
	DW	02529H
	DW	02529H
	DW	02529H
	DW	02108H
	DW	02108H
	DW	02108H
	DW	02108H
	DW	01ce7H
	DW	01ce7H
	DW	018c6H
	DW	01084H
	DW	0c63H
	DW	0421H
	DW	00H
	DW	00H
	DW	00H
	DW	00H
	DW	00H
	DW	00H
	DW	00H
	DW	00H
	DW	00H
	DW	00H
	DW	00H
	DW	00H
	DW	00H
	DW	00H
	DW	00H
	DW	00H
	DW	00H
	DW	00H
	DW	00H
	DW	00H
	DW	00H
	DW	00H
	DW	00H
	DW	00H
	DW	00H
	DW	00H
	DW	00H
	DW	00H
	DW	00H
	DW	00H
	DW	00H
	DW	00H
	DW	00H
	DW	00H
	DW	00H
	DW	00H
	DW	00H
	DW	00H
	DW	00H
	DW	00H
	DW	00H
	DW	00H
	DW	00H
	DW	00H
	DW	00H
	DW	00H
	DW	00H
	DW	00H
	DW	00H
	DW	00H
	DW	00H
	DW	00H
	DW	00H
	DW	00H
	DW	00H
	DW	00H
	DW	00H
	DW	00H
	DW	00H
	DW	00H
	DW	00H
	DW	00H
	DW	00H
	DW	00H
	DW	00H
	DW	00H
	DW	00H
	DW	00H
	DW	00H
	DW	00H
	DW	00H
	DW	00H
	DW	00H
	DW	00H
	DW	00H
	DW	00H
	DW	00H
	DW	00H
	DW	00H
	DW	00H
	DW	00H
	DW	00H
	DW	00H
	DW	00H
	DW	00H
	DW	00H
	DW	00H
	DW	00H
	DW	00H
	DW	00H
	DW	00H
	DW	00H
	DW	00H
	DW	00H
	DW	00H
	DW	00H
	DW	00H
	DW	00H
	DW	00H
	DW	00H
	DW	00H
	DW	00H
	DW	00H
	DW	00H
	DW	00H
	DW	00H
	DW	00H
	DW	00H
	DW	00H
	DW	00H
	DW	00H
	DW	00H
	DW	00H
	DW	00H
	DW	00H
	DW	00H
	DW	00H
	DW	00H
	DW	00H
	DW	00H
	DW	00H
	DW	00H
	DW	00H
	DW	00H
	DW	00H
	DW	00H
	DW	00H
	DW	00H
	DW	00H
	DW	00H
	DW	00H
	DW	01ce7H
	DW	04210H
	DW	05ad6H
	DW	05ad6H
	DW	05ad6H
	DW	05ad6H
	DW	05ad6H
	DW	05ad6H
	DW	05ad6H
	DW	05ad6H
	DW	05ad6H
	DW	05ad6H
	DW	05ad6H
	DW	05ad6H
	DW	05ad6H
	DW	05ad6H
	DW	056b5H
	DW	056b5H
	DW	056b5H
	DW	056b5H
	DW	056b5H
	DW	056b5H
	DW	056b5H
	DW	056b5H
	DW	056b5H
	DW	056b5H
	DW	056b5H
	DW	056b5H
	DW	056b5H
	DW	05294H
	DW	05294H
	DW	05294H
	DW	05294H
	DW	05294H
	DW	056b5H
	DW	056b5H
	DW	056b5H
	DW	056b5H
	DW	05ad6H
	DW	05ad6H
	DW	05ad6H
	DW	05ad6H
	DW	05ad6H
	DW	05ad6H
	DW	05ad6H
	DW	05ad6H
	DW	05ad6H
	DW	05ad6H
	DW	05ad6H
	DW	05ad6H
	DW	056b5H
	DW	056b5H
	DW	056b5H
	DW	056b5H
	DW	05294H
	DW	05294H
	DW	04e73H
	DW	04a52H
	DW	04a52H
	DW	04631H
	DW	04210H
	DW	03defH
	DW	03defH
	DW	039ceH
	DW	039ceH
	DW	039ceH
	DW	035adH
	DW	035adH
	DW	035adH
	DW	035adH
	DW	035adH
	DW	0318cH
	DW	0318cH
	DW	0318cH
	DW	02d6bH
	DW	02d6bH
	DW	02d6bH
	DW	0294aH
	DW	0294aH
	DW	0294aH
	DW	0294aH
	DW	02529H
	DW	02529H
	DW	02529H
	DW	02108H
	DW	02108H
	DW	02108H
	DW	01ce7H
	DW	01ce7H
	DW	01ce7H
	DW	01ce7H
	DW	018c6H
	DW	018c6H
	DW	01084H
	DW	0842H
	DW	0421H
	DW	00H
	DW	00H
	DW	00H
	DW	00H
	DW	00H
	DW	00H
	DW	00H
	DW	00H
	DW	00H
	DW	00H
	DW	00H
	DW	00H
	DW	00H
	DW	00H
	DW	00H
	DW	00H
	DW	00H
	DW	00H
	DW	00H
	DW	00H
	DW	00H
	DW	00H
	DW	00H
	DW	00H
	DW	00H
	DW	00H
	DW	00H
	DW	00H
	DW	00H
	DW	00H
	DW	00H
	DW	00H
	DW	00H
	DW	00H
	DW	00H
	DW	00H
	DW	00H
	DW	00H
	DW	00H
	DW	00H
	DW	00H
	DW	00H
	DW	00H
	DW	00H
	DW	00H
	DW	00H
	DW	00H
	DW	00H
	DW	00H
	DW	00H
	DW	00H
	DW	00H
	DW	00H
	DW	00H
	DW	00H
	DW	00H
	DW	00H
	DW	00H
	DW	00H
	DW	00H
	DW	00H
	DW	00H
	DW	00H
	DW	00H
	DW	00H
	DW	00H
	DW	00H
	DW	00H
	DW	00H
	DW	00H
	DW	00H
	DW	00H
	DW	00H
	DW	00H
	DW	00H
	DW	00H
	DW	00H
	DW	00H
	DW	00H
	DW	00H
	DW	00H
	DW	00H
	DW	00H
	DW	00H
	DW	00H
	DW	00H
	DW	00H
	DW	00H
	DW	00H
	DW	00H
	DW	00H
	DW	00H
	DW	00H
	DW	00H
	DW	00H
	DW	00H
	DW	00H
	DW	00H
	DW	00H
	DW	00H
	DW	00H
	DW	00H
	DW	00H
	DW	00H
	DW	00H
	DW	00H
	DW	00H
	DW	00H
	DW	00H
	DW	00H
	DW	00H
	DW	00H
	DW	00H
	DW	00H
	DW	00H
	DW	00H
	DW	00H
	DW	00H
	DW	00H
	DW	00H
	DW	00H
	DW	00H
	DW	00H
	DW	00H
	DW	00H
	DW	00H
	DW	0421H
	DW	02108H
	DW	04631H
	DW	05ad6H
	DW	05ad6H
	DW	05ad6H
	DW	05ad6H
	DW	05ad6H
	DW	05ad6H
	DW	05ad6H
	DW	05ad6H
	DW	05ad6H
	DW	05ad6H
	DW	05ad6H
	DW	05ad6H
	DW	05ad6H
	DW	05ad6H
	DW	05ad6H
	DW	05ad6H
	DW	05ad6H
	DW	05ad6H
	DW	05ad6H
	DW	056b5H
	DW	056b5H
	DW	056b5H
	DW	056b5H
	DW	056b5H
	DW	056b5H
	DW	056b5H
	DW	056b5H
	DW	056b5H
	DW	05ad6H
	DW	05ad6H
	DW	05ef7H
	DW	05ef7H
	DW	05ef7H
	DW	05ef7H
	DW	05ef7H
	DW	05ef7H
	DW	05ad6H
	DW	05ad6H
	DW	056b5H
	DW	056b5H
	DW	05294H
	DW	05294H
	DW	04e73H
	DW	04e73H
	DW	04e73H
	DW	04e73H
	DW	04e73H
	DW	04e73H
	DW	04e73H
	DW	04e73H
	DW	04e73H
	DW	04e73H
	DW	04e73H
	DW	04e73H
	DW	05294H
	DW	05294H
	DW	056b5H
	DW	056b5H
	DW	056d5H
	DW	056b5H
	DW	056b5H
	DW	056b5H
	DW	05294H
	DW	04e73H
	DW	04a52H
	DW	04210H
	DW	03defH
	DW	039ceH
	DW	035adH
	DW	0318cH
	DW	0318cH
	DW	0318cH
	DW	0318cH
	DW	0318cH
	DW	0318cH
	DW	02d6bH
	DW	02d6bH
	DW	0294aH
	DW	0294aH
	DW	0294aH
	DW	0294aH
	DW	02529H
	DW	02529H
	DW	02529H
	DW	02108H
	DW	02108H
	DW	02108H
	DW	01ce7H
	DW	01ce7H
	DW	01ce7H
	DW	01ce7H
	DW	018c6H
	DW	018c6H
	DW	018c6H
	DW	014a5H
	DW	01084H
	DW	0842H
	DW	0421H
	DW	00H
	DW	00H
	DW	00H
	DW	00H
	DW	00H
	DW	00H
	DW	00H
	DW	00H
	DW	00H
	DW	00H
	DW	00H
	DW	00H
	DW	00H
	DW	00H
	DW	00H
	DW	00H
	DW	00H
	DW	00H
	DW	00H
	DW	00H
	DW	00H
	DW	00H
	DW	00H
	DW	00H
	DW	00H
	DW	00H
	DW	00H
	DW	00H
	DW	00H
	DW	00H
	DW	00H
	DW	00H
	DW	00H
	DW	00H
	DW	00H
	DW	00H
	DW	00H
	DW	00H
	DW	00H
	DW	00H
	DW	00H
	DW	00H
	DW	00H
	DW	00H
	DW	00H
	DW	00H
	DW	00H
	DW	00H
	DW	00H
	DW	00H
	DW	00H
	DW	00H
	DW	00H
	DW	00H
	DW	00H
	DW	00H
	DW	00H
	DW	00H
	DW	00H
	DW	00H
	DW	00H
	DW	00H
	DW	00H
	DW	00H
	DW	00H
	DW	00H
	DW	00H
	DW	00H
	DW	00H
	DW	00H
	DW	00H
	DW	00H
	DW	00H
	DW	00H
	DW	00H
	DW	00H
	DW	00H
	DW	00H
	DW	00H
	DW	00H
	DW	00H
	DW	00H
	DW	00H
	DW	00H
	DW	00H
	DW	00H
	DW	00H
	DW	00H
	DW	00H
	DW	00H
	DW	00H
	DW	00H
	DW	00H
	DW	00H
	DW	00H
	DW	00H
	DW	00H
	DW	00H
	DW	00H
	DW	00H
	DW	00H
	DW	00H
	DW	00H
	DW	00H
	DW	00H
	DW	00H
	DW	00H
	DW	00H
	DW	00H
	DW	00H
	DW	00H
	DW	00H
	DW	00H
	DW	00H
	DW	00H
	DW	00H
	DW	00H
	DW	00H
	DW	00H
	DW	00H
	DW	00H
	DW	00H
	DW	0421H
	DW	02108H
	DW	04a52H
	DW	05ad6H
	DW	05ad6H
	DW	05ad6H
	DW	05ad6H
	DW	05ad6H
	DW	05ad6H
	DW	05ad6H
	DW	05ad6H
	DW	05ad6H
	DW	05ad6H
	DW	05ad6H
	DW	05ad6H
	DW	05ad6H
	DW	05ad6H
	DW	05ad6H
	DW	05ad6H
	DW	05ad6H
	DW	05ad6H
	DW	05ad6H
	DW	05ad6H
	DW	05ad6H
	DW	05ad6H
	DW	056b5H
	DW	056b5H
	DW	05ad6H
	DW	05ad6H
	DW	05ad6H
	DW	05ef7H
	DW	06318H
	DW	05ef7H
	DW	05ef7H
	DW	05ad6H
	DW	056b5H
	DW	05294H
	DW	04e73H
	DW	04a52H
	DW	04631H
	DW	04210H
	DW	03defH
	DW	03defH
	DW	039ceH
	DW	039ceH
	DW	035adH
	DW	035adH
	DW	035adH
	DW	035adH
	DW	035adH
	DW	035adH
	DW	035adH
	DW	035adH
	DW	035adH
	DW	035adH
	DW	035adH
	DW	035adH
	DW	035adH
	DW	035adH
	DW	035adH
	DW	039ceH
	DW	039ceH
	DW	03defH
	DW	03defH
	DW	04210H
	DW	04631H
	DW	04a52H
	DW	04e73H
	DW	05294H
	DW	05294H
	DW	056b5H
	DW	056b5H
	DW	05294H
	DW	04e73H
	DW	04631H
	DW	03defH
	DW	039ceH
	DW	0318cH
	DW	0318cH
	DW	02d6bH
	DW	02d6bH
	DW	02d6bH
	DW	02d6bH
	DW	0294aH
	DW	0294aH
	DW	0294aH
	DW	02529H
	DW	02529H
	DW	02529H
	DW	02108H
	DW	02108H
	DW	02108H
	DW	01ce7H
	DW	01ce7H
	DW	01ce7H
	DW	018c6H
	DW	018c6H
	DW	018c6H
	DW	018c6H
	DW	014a5H
	DW	014a5H
	DW	014a5H
	DW	01084H
	DW	0842H
	DW	0421H
	DW	00H
	DW	00H
	DW	00H
	DW	00H
	DW	00H
	DW	00H
	DW	00H
	DW	00H
	DW	00H
	DW	00H
	DW	00H
	DW	00H
	DW	00H
	DW	00H
	DW	00H
	DW	00H
	DW	00H
	DW	00H
	DW	00H
	DW	00H
	DW	00H
	DW	00H
	DW	00H
	DW	00H
	DW	00H
	DW	00H
	DW	00H
	DW	00H
	DW	00H
	DW	00H
	DW	00H
	DW	00H
	DW	00H
	DW	00H
	DW	00H
	DW	00H
	DW	00H
	DW	00H
	DW	00H
	DW	00H
	DW	00H
	DW	00H
	DW	00H
	DW	00H
	DW	00H
	DW	00H
	DW	00H
	DW	00H
	DW	00H
	DW	00H
	DW	00H
	DW	00H
	DW	00H
	DW	00H
	DW	00H
	DW	00H
	DW	00H
	DW	00H
	DW	00H
	DW	00H
	DW	00H
	DW	00H
	DW	00H
	DW	00H
	DW	00H
	DW	00H
	DW	00H
	DW	00H
	DW	00H
	DW	00H
	DW	00H
	DW	00H
	DW	00H
	DW	00H
	DW	00H
	DW	00H
	DW	00H
	DW	00H
	DW	00H
	DW	00H
	DW	00H
	DW	00H
	DW	00H
	DW	00H
	DW	00H
	DW	00H
	DW	00H
	DW	00H
	DW	00H
	DW	00H
	DW	00H
	DW	00H
	DW	00H
	DW	00H
	DW	00H
	DW	00H
	DW	00H
	DW	00H
	DW	00H
	DW	00H
	DW	00H
	DW	00H
	DW	00H
	DW	00H
	DW	00H
	DW	00H
	DW	00H
	DW	00H
	DW	00H
	DW	00H
	DW	00H
	DW	00H
	DW	00H
	DW	00H
	DW	00H
	DW	00H
	DW	00H
	DW	00H
	DW	00H
	DW	01ce7H
	DW	04631H
	DW	05ef7H
	DW	05ad6H
	DW	05ad6H
	DW	05ad6H
	DW	05ad6H
	DW	05ad6H
	DW	05ad6H
	DW	05ad6H
	DW	05ad6H
	DW	05ad6H
	DW	05ad6H
	DW	05ad6H
	DW	05ad6H
	DW	05ad6H
	DW	05ad6H
	DW	05ad6H
	DW	05ad6H
	DW	05ad6H
	DW	05ad6H
	DW	05ad6H
	DW	05ad6H
	DW	05ad6H
	DW	05ad6H
	DW	05ad6H
	DW	05ef7H
	DW	05ef7H
	DW	06318H
	DW	05ef7H
	DW	05ef7H
	DW	056b5H
	DW	04e73H
	DW	04a52H
	DW	04631H
	DW	03defH
	DW	039ceH
	DW	035adH
	DW	035adH
	DW	035adH
	DW	0318dH
	DW	0318cH
	DW	0358dH
	DW	035adH
	DW	035adH
	DW	035adH
	DW	035adH
	DW	035adH
	DW	035adH
	DW	035adH
	DW	035adH
	DW	035adH
	DW	035adH
	DW	035adH
	DW	035adH
	DW	035adH
	DW	035adH
	DW	035adH
	DW	035adH
	DW	035adH
	DW	035adH
	DW	035adH
	DW	035adH
	DW	035adH
	DW	0318cH
	DW	0318cH
	DW	035adH
	DW	035adH
	DW	035adH
	DW	039ceH
	DW	039ceH
	DW	03defH
	DW	04210H
	DW	04a52H
	DW	04e73H
	DW	05294H
	DW	056b5H
	DW	05294H
	DW	04e73H
	DW	04631H
	DW	039ceH
	DW	0318cH
	DW	02d6bH
	DW	0294aH
	DW	0294aH
	DW	0294aH
	DW	0294aH
	DW	0294aH
	DW	02529H
	DW	02529H
	DW	02108H
	DW	02108H
	DW	02108H
	DW	01ce7H
	DW	01ce7H
	DW	01ce7H
	DW	018c6H
	DW	018c6H
	DW	018c6H
	DW	018c6H
	DW	014a5H
	DW	014a5H
	DW	014a5H
	DW	01084H
	DW	01084H
	DW	0c63H
	DW	0421H
	DW	0421H
	DW	00H
	DW	00H
	DW	00H
	DW	00H
	DW	00H
	DW	00H
	DW	00H
	DW	00H
	DW	00H
	DW	00H
	DW	00H
	DW	00H
	DW	00H
	DW	00H
	DW	00H
	DW	00H
	DW	00H
	DW	00H
	DW	00H
	DW	00H
	DW	00H
	DW	00H
	DW	00H
	DW	00H
	DW	00H
	DW	00H
	DW	00H
	DW	00H
	DW	00H
	DW	00H
	DW	00H
	DW	00H
	DW	00H
	DW	00H
	DW	00H
	DW	00H
	DW	00H
	DW	00H
	DW	00H
	DW	00H
	DW	00H
	DW	00H
	DW	00H
	DW	00H
	DW	00H
	DW	00H
	DW	00H
	DW	00H
	DW	00H
	DW	00H
	DW	00H
	DW	00H
	DW	00H
	DW	00H
	DW	00H
	DW	00H
	DW	00H
	DW	00H
	DW	00H
	DW	00H
	DW	00H
	DW	00H
	DW	00H
	DW	00H
	DW	00H
	DW	00H
	DW	00H
	DW	00H
	DW	00H
	DW	00H
	DW	00H
	DW	00H
	DW	00H
	DW	00H
	DW	00H
	DW	00H
	DW	00H
	DW	00H
	DW	00H
	DW	00H
	DW	00H
	DW	00H
	DW	00H
	DW	00H
	DW	00H
	DW	00H
	DW	00H
	DW	00H
	DW	00H
	DW	00H
	DW	00H
	DW	00H
	DW	00H
	DW	00H
	DW	00H
	DW	00H
	DW	00H
	DW	00H
	DW	00H
	DW	00H
	DW	00H
	DW	00H
	DW	00H
	DW	00H
	DW	00H
	DW	00H
	DW	00H
	DW	00H
	DW	00H
	DW	00H
	DW	00H
	DW	00H
	DW	00H
	DW	00H
	DW	00H
	DW	014a5H
	DW	04210H
	DW	05ad6H
	DW	05ad6H
	DW	05ad6H
	DW	05ad6H
	DW	05ad6H
	DW	05ad6H
	DW	05ad6H
	DW	05ad6H
	DW	05ad6H
	DW	05ad6H
	DW	05ad6H
	DW	05ad6H
	DW	05ad6H
	DW	05ad6H
	DW	05ad6H
	DW	05ad6H
	DW	05ad6H
	DW	05ad6H
	DW	05ad6H
	DW	05ad6H
	DW	05ad6H
	DW	05ad6H
	DW	05ef7H
	DW	05ef7H
	DW	06318H
	DW	06318H
	DW	05ef7H
	DW	056b5H
	DW	04e73H
	DW	04631H
	DW	03defH
	DW	039ceH
	DW	035adH
	DW	035adH
	DW	035adH
	DW	035adH
	DW	035adH
	DW	035adH
	DW	035adH
	DW	035adH
	DW	035adH
	DW	035adH
	DW	0318cH
	DW	02d6bH
	DW	02d6bH
	DW	02d6bH
	DW	0294aH
	DW	0294aH
	DW	02529H
	DW	02529H
	DW	02529H
	DW	02529H
	DW	02529H
	DW	02529H
	DW	02529H
	DW	02529H
	DW	02529H
	DW	02529H
	DW	02529H
	DW	0294aH
	DW	0294aH
	DW	02d6bH
	DW	02d6bH
	DW	0316bH
	DW	0318cH
	DW	035adH
	DW	035adH
	DW	035adH
	DW	035adH
	DW	035adH
	DW	035adH
	DW	035adH
	DW	035adH
	DW	035adH
	DW	035adH
	DW	039ceH
	DW	03defH
	DW	04631H
	DW	04e73H
	DW	05294H
	DW	05294H
	DW	04e73H
	DW	04631H
	DW	03defH
	DW	0318cH
	DW	0294aH
	DW	0294aH
	DW	02529H
	DW	02529H
	DW	02529H
	DW	02529H
	DW	02108H
	DW	02108H
	DW	01ce7H
	DW	01ce7H
	DW	01ce7H
	DW	018c6H
	DW	018c6H
	DW	018c6H
	DW	018c6H
	DW	014a5H
	DW	014a5H
	DW	014a5H
	DW	01084H
	DW	01084H
	DW	01084H
	DW	0c63H
	DW	0842H
	DW	0421H
	DW	00H
	DW	00H
	DW	00H
	DW	00H
	DW	00H
	DW	00H
	DW	00H
	DW	00H
	DW	00H
	DW	00H
	DW	00H
	DW	00H
	DW	00H
	DW	00H
	DW	00H
	DW	00H
	DW	00H
	DW	00H
	DW	00H
	DW	00H
	DW	00H
	DW	00H
	DW	00H
	DW	00H
	DW	00H
	DW	00H
	DW	00H
	DW	00H
	DW	00H
	DW	00H
	DW	00H
	DW	00H
	DW	00H
	DW	00H
	DW	00H
	DW	00H
	DW	00H
	DW	00H
	DW	00H
	DW	00H
	DW	00H
	DW	00H
	DW	00H
	DW	00H
	DW	00H
	DW	00H
	DW	00H
	DW	00H
	DW	00H
	DW	00H
	DW	00H
	DW	00H
	DW	00H
	DW	00H
	DW	00H
	DW	00H
	DW	00H
	DW	00H
	DW	00H
	DW	00H
	DW	00H
	DW	00H
	DW	00H
	DW	00H
	DW	00H
	DW	00H
	DW	00H
	DW	00H
	DW	00H
	DW	00H
	DW	00H
	DW	00H
	DW	00H
	DW	00H
	DW	00H
	DW	00H
	DW	00H
	DW	00H
	DW	00H
	DW	00H
	DW	00H
	DW	00H
	DW	00H
	DW	00H
	DW	00H
	DW	00H
	DW	00H
	DW	00H
	DW	00H
	DW	00H
	DW	00H
	DW	00H
	DW	00H
	DW	00H
	DW	00H
	DW	00H
	DW	00H
	DW	00H
	DW	00H
	DW	00H
	DW	00H
	DW	00H
	DW	00H
	DW	00H
	DW	00H
	DW	00H
	DW	00H
	DW	00H
	DW	00H
	DW	00H
	DW	00H
	DW	00H
	DW	0c63H
	DW	035adH
	DW	05ad6H
	DW	05ad6H
	DW	05ad6H
	DW	05ad6H
	DW	05ad6H
	DW	05ad6H
	DW	05ad6H
	DW	05ad6H
	DW	05ad6H
	DW	05ad6H
	DW	05ad6H
	DW	05ad6H
	DW	05ad6H
	DW	05ad6H
	DW	05ad6H
	DW	05ad6H
	DW	05ad6H
	DW	05ad6H
	DW	05ad6H
	DW	05ad6H
	DW	05ad6H
	DW	05ef7H
	DW	06318H
	DW	06318H
	DW	05ef7H
	DW	05ad6H
	DW	05294H
	DW	04a52H
	DW	03defH
	DW	039ceH
	DW	035adH
	DW	035adH
	DW	0318cH
	DW	035adH
	DW	035adH
	DW	035adH
	DW	035adH
	DW	02d6bH
	DW	02d6bH
	DW	02529H
	DW	01084H
	DW	0c63H
	DW	0c63H
	DW	0c63H
	DW	0841H
	DW	0420H
	DW	0420H
	DW	0420H
	DW	00H
	DW	00H
	DW	00H
	DW	00H
	DW	00H
	DW	00H
	DW	00H
	DW	00H
	DW	00H
	DW	00H
	DW	00H
	DW	00H
	DW	00H
	DW	00H
	DW	00H
	DW	0420H
	DW	0420H
	DW	0420H
	DW	0821H
	DW	0c63H
	DW	0c63H
	DW	0c63H
	DW	01084H
	DW	02529H
	DW	02d6bH
	DW	02d6bH
	DW	035adH
	DW	035adH
	DW	035adH
	DW	035adH
	DW	035adH
	DW	035adH
	DW	035adH
	DW	039ceH
	DW	03defH
	DW	04631H
	DW	04e73H
	DW	05294H
	DW	05294H
	DW	04631H
	DW	039ceH
	DW	02d6bH
	DW	02529H
	DW	02529H
	DW	02108H
	DW	02108H
	DW	02108H
	DW	02108H
	DW	01ce7H
	DW	01ce7H
	DW	01ce7H
	DW	018c6H
	DW	018c6H
	DW	018c6H
	DW	014a5H
	DW	014a5H
	DW	014a5H
	DW	01084H
	DW	01084H
	DW	0c63H
	DW	0c63H
	DW	0c63H
	DW	0842H
	DW	0421H
	DW	0421H
	DW	00H
	DW	00H
	DW	00H
	DW	00H
	DW	00H
	DW	00H
	DW	00H
	DW	00H
	DW	00H
	DW	00H
	DW	00H
	DW	00H
	DW	00H
	DW	00H
	DW	00H
	DW	00H
	DW	00H
	DW	00H
	DW	00H
	DW	00H
	DW	00H
	DW	00H
	DW	00H
	DW	00H
	DW	00H
	DW	00H
	DW	00H
	DW	00H
	DW	00H
	DW	00H
	DW	00H
	DW	00H
	DW	00H
	DW	00H
	DW	00H
	DW	00H
	DW	00H
	DW	00H
	DW	00H
	DW	00H
	DW	00H
	DW	00H
	DW	00H
	DW	00H
	DW	00H
	DW	00H
	DW	00H
	DW	00H
	DW	00H
	DW	00H
	DW	00H
	DW	00H
	DW	00H
	DW	00H
	DW	00H
	DW	00H
	DW	00H
	DW	00H
	DW	00H
	DW	00H
	DW	00H
	DW	00H
	DW	00H
	DW	00H
	DW	00H
	DW	00H
	DW	00H
	DW	00H
	DW	00H
	DW	00H
	DW	00H
	DW	00H
	DW	00H
	DW	00H
	DW	00H
	DW	00H
	DW	00H
	DW	00H
	DW	00H
	DW	00H
	DW	00H
	DW	00H
	DW	00H
	DW	00H
	DW	00H
	DW	00H
	DW	00H
	DW	00H
	DW	00H
	DW	00H
	DW	00H
	DW	00H
	DW	00H
	DW	00H
	DW	00H
	DW	00H
	DW	00H
	DW	00H
	DW	00H
	DW	00H
	DW	00H
	DW	00H
	DW	00H
	DW	00H
	DW	00H
	DW	00H
	DW	00H
	DW	00H
	DW	0421H
	DW	0294aH
	DW	05294H
	DW	05ad6H
	DW	05ad6H
	DW	05ad6H
	DW	05ad6H
	DW	05ad6H
	DW	05ad6H
	DW	05ad6H
	DW	05ad6H
	DW	05ad6H
	DW	05ad6H
	DW	05ad6H
	DW	05ad6H
	DW	05ad6H
	DW	05ad6H
	DW	05ad6H
	DW	05ad6H
	DW	05ad7H
	DW	05ad6H
	DW	05ed6H
	DW	05ef7H
	DW	06318H
	DW	06318H
	DW	05ef7H
	DW	05ad6H
	DW	04e73H
	DW	04631H
	DW	03defH
	DW	035adH
	DW	035adH
	DW	0318cH
	DW	035adH
	DW	035adH
	DW	035adH
	DW	0318cH
	DW	02d6bH
	DW	02529H
	DW	014c5H
	DW	01484H
	DW	00H
	DW	00H
	DW	00H
	DW	00H
	DW	00H
	DW	00H
	DW	00H
	DW	0402H
	DW	0405H
	DW	06H
	DW	08H
	DW	040aH
	DW	042bH
	DW	040cH
	DW	040cH
	DW	040cH
	DW	040dH
	DW	040dH
	DW	040dH
	DW	040dH
	DW	040eH
	DW	040cH
	DW	042cH
	DW	040cH
	DW	042aH
	DW	040aH
	DW	0408H
	DW	07H
	DW	05H
	DW	03H
	DW	00H
	DW	00H
	DW	00H
	DW	00H
	DW	00H
	DW	00H
	DW	00H
	DW	01084H
	DW	014a5H
	DW	01ce7H
	DW	02d6aH
	DW	0318dH
	DW	035adH
	DW	035adH
	DW	035adH
	DW	031acH
	DW	035adH
	DW	035adH
	DW	03defH
	DW	04610H
	DW	04a52H
	DW	05294H
	DW	04e73H
	DW	04630H
	DW	035adH
	DW	02549H
	DW	02108H
	DW	02108H
	DW	02108H
	DW	01ce7H
	DW	01ce7H
	DW	01ce7H
	DW	018c6H
	DW	018c6H
	DW	018c6H
	DW	014a5H
	DW	014a5H
	DW	014a5H
	DW	01084H
	DW	01084H
	DW	0c63H
	DW	0c63H
	DW	0c63H
	DW	0842H
	DW	0c63H
	DW	0842H
	DW	00H
	DW	0421H
	DW	00H
	DW	00H
	DW	00H
	DW	00H
	DW	00H
	DW	00H
	DW	00H
	DW	00H
	DW	00H
	DW	00H
	DW	00H
	DW	00H
	DW	00H
	DW	00H
	DW	00H
	DW	00H
	DW	00H
	DW	00H
	DW	00H
	DW	00H
	DW	00H
	DW	00H
	DW	00H
	DW	00H
	DW	00H
	DW	00H
	DW	00H
	DW	00H
	DW	00H
	DW	00H
	DW	00H
	DW	00H
	DW	00H
	DW	00H
	DW	00H
	DW	00H
	DW	00H
	DW	00H
	DW	00H
	DW	00H
	DW	00H
	DW	00H
	DW	00H
	DW	00H
	DW	00H
	DW	00H
	DW	00H
	DW	00H
	DW	00H
	DW	00H
	DW	00H
	DW	00H
	DW	00H
	DW	00H
	DW	00H
	DW	00H
	DW	00H
	DW	00H
	DW	00H
	DW	00H
	DW	00H
	DW	00H
	DW	00H
	DW	00H
	DW	00H
	DW	00H
	DW	00H
	DW	00H
	DW	00H
	DW	00H
	DW	00H
	DW	00H
	DW	00H
	DW	00H
	DW	00H
	DW	00H
	DW	00H
	DW	00H
	DW	00H
	DW	00H
	DW	00H
	DW	00H
	DW	00H
	DW	00H
	DW	00H
	DW	00H
	DW	00H
	DW	00H
	DW	00H
	DW	00H
	DW	00H
	DW	00H
	DW	00H
	DW	00H
	DW	00H
	DW	00H
	DW	00H
	DW	00H
	DW	00H
	DW	00H
	DW	00H
	DW	00H
	DW	00H
	DW	00H
	DW	00H
	DW	018c6H
	DW	04631H
	DW	05ad6H
	DW	05ad6H
	DW	05ad6H
	DW	05ad6H
	DW	05ad6H
	DW	05ad6H
	DW	05ad6H
	DW	05ad6H
	DW	05ad6H
	DW	05ef7H
	DW	05ad6H
	DW	05ad6H
	DW	05ad6H
	DW	05ef7H
	DW	05ef7H
	DW	05ef7H
	DW	05ef7H
	DW	05ad6H
	DW	05ef7H
	DW	05f17H
	DW	06318H
	DW	06318H
	DW	05ad6H
	DW	04e74H
	DW	04631H
	DW	03dceH
	DW	039adH
	DW	0318dH
	DW	035adH
	DW	035adH
	DW	039aeH
	DW	035adH
	DW	02d6bH
	DW	02108H
	DW	018c6H
	DW	0842H
	DW	020H
	DW	00H
	DW	00H
	DW	00H
	DW	01H
	DW	0425H
	DW	0408H
	DW	082dH
	DW	0832H
	DW	0434H
	DW	0437H
	DW	083aH
	DW	043dH
	DW	041fH
	DW	041fH
	DW	041fH
	DW	041fH
	DW	041fH
	DW	041fH
	DW	041fH
	DW	041fH
	DW	041fH
	DW	041fH
	DW	041fH
	DW	041fH
	DW	041fH
	DW	041fH
	DW	041fH
	DW	041fH
	DW	041fH
	DW	041fH
	DW	041fH
	DW	041dH
	DW	083aH
	DW	0837H
	DW	0435H
	DW	0832H
	DW	082eH
	DW	0429H
	DW	0425H
	DW	0402H
	DW	00H
	DW	00H
	DW	00H
	DW	00H
	DW	0421H
	DW	010a4H
	DW	02108H
	DW	02d6bH
	DW	035adH
	DW	035aeH
	DW	035adH
	DW	035adH
	DW	035adH
	DW	035adH
	DW	03defH
	DW	04631H
	DW	04a53H
	DW	04e73H
	DW	04a52H
	DW	039eeH
	DW	0294aH
	DW	02108H
	DW	01ce7H
	DW	01ce7H
	DW	01ce7H
	DW	018c6H
	DW	018c6H
	DW	018c6H
	DW	014a5H
	DW	014a5H
	DW	014a5H
	DW	01084H
	DW	01084H
	DW	0c63H
	DW	0c63H
	DW	0c63H
	DW	0c63H
	DW	0842H
	DW	0842H
	DW	0842H
	DW	00H
	DW	00H
	DW	00H
	DW	00H
	DW	00H
	DW	00H
	DW	00H
	DW	00H
	DW	00H
	DW	00H
	DW	00H
	DW	00H
	DW	00H
	DW	00H
	DW	00H
	DW	00H
	DW	00H
	DW	00H
	DW	00H
	DW	00H
	DW	00H
	DW	00H
	DW	00H
	DW	00H
	DW	00H
	DW	00H
	DW	00H
	DW	00H
	DW	00H
	DW	00H
	DW	00H
	DW	00H
	DW	00H
	DW	00H
	DW	00H
	DW	00H
	DW	00H
	DW	00H
	DW	00H
	DW	00H
	DW	00H
	DW	00H
	DW	00H
	DW	00H
	DW	00H
	DW	00H
	DW	00H
	DW	00H
	DW	00H
	DW	00H
	DW	00H
	DW	00H
	DW	00H
	DW	00H
	DW	00H
	DW	00H
	DW	00H
	DW	00H
	DW	00H
	DW	00H
	DW	00H
	DW	00H
	DW	00H
	DW	00H
	DW	00H
	DW	00H
	DW	00H
	DW	00H
	DW	00H
	DW	00H
	DW	00H
	DW	00H
	DW	00H
	DW	00H
	DW	00H
	DW	00H
	DW	00H
	DW	00H
	DW	00H
	DW	00H
	DW	00H
	DW	00H
	DW	00H
	DW	00H
	DW	00H
	DW	00H
	DW	00H
	DW	00H
	DW	00H
	DW	00H
	DW	00H
	DW	00H
	DW	00H
	DW	00H
	DW	00H
	DW	00H
	DW	00H
	DW	00H
	DW	00H
	DW	00H
	DW	00H
	DW	00H
	DW	00H
	DW	00H
	DW	0842H
	DW	0318cH
	DW	05ad6H
	DW	05ad6H
	DW	05ad6H
	DW	05ad6H
	DW	05ad6H
	DW	05ad6H
	DW	05ad6H
	DW	05ad6H
	DW	05ad6H
	DW	05ef7H
	DW	05ad6H
	DW	05ef7H
	DW	05ef7H
	DW	05ef7H
	DW	05ad6H
	DW	05ef7H
	DW	05ef7H
	DW	05ef7H
	DW	05ef7H
	DW	06318H
	DW	06318H
	DW	05ef7H
	DW	056b5H
	DW	04632H
	DW	03defH
	DW	035adH
	DW	0318cH
	DW	0318cH
	DW	035adH
	DW	035adH
	DW	02d6bH
	DW	02509H
	DW	01084H
	DW	0c63H
	DW	020H
	DW	00H
	DW	00H
	DW	00H
	DW	0405H
	DW	042aH
	DW	0850H
	DW	0435H
	DW	0839H
	DW	041dH
	DW	041fH
	DW	041fH
	DW	01fH
	DW	01fH
	DW	01fH
	DW	01fH
	DW	01fH
	DW	01fH
	DW	041fH
	DW	041eH
	DW	041eH
	DW	041eH
	DW	041eH
	DW	041eH
	DW	041dH
	DW	041dH
	DW	041eH
	DW	041dH
	DW	041dH
	DW	041eH
	DW	041eH
	DW	041eH
	DW	041fH
	DW	041fH
	DW	01fH
	DW	01fH
	DW	01fH
	DW	01fH
	DW	01fH
	DW	01fH
	DW	041fH
	DW	041fH
	DW	041fH
	DW	083dH
	DW	043aH
	DW	0436H
	DW	0831H
	DW	042aH
	DW	0425H
	DW	01H
	DW	00H
	DW	00H
	DW	00H
	DW	0c63H
	DW	01083H
	DW	02128H
	DW	02d6bH
	DW	035adH
	DW	035adH
	DW	0358dH
	DW	035adH
	DW	035adH
	DW	03defH
	DW	04631H
	DW	04e73H
	DW	04e73H
	DW	04210H
	DW	02d6bH
	DW	01ce7H
	DW	018c6H
	DW	018c6H
	DW	018c6H
	DW	018c6H
	DW	014a5H
	DW	014a5H
	DW	014a5H
	DW	01084H
	DW	01084H
	DW	0c63H
	DW	0c63H
	DW	0c63H
	DW	0842H
	DW	0842H
	DW	0842H
	DW	0421H
	DW	0421H
	DW	0421H
	DW	00H
	DW	0421H
	DW	00H
	DW	00H
	DW	00H
	DW	00H
	DW	00H
	DW	00H
	DW	00H
	DW	00H
	DW	00H
	DW	00H
	DW	00H
	DW	00H
	DW	00H
	DW	00H
	DW	00H
	DW	00H
	DW	00H
	DW	00H
	DW	00H
	DW	00H
	DW	00H
	DW	00H
	DW	00H
	DW	00H
	DW	00H
	DW	00H
	DW	00H
	DW	00H
	DW	00H
	DW	00H
	DW	00H
	DW	00H
	DW	00H
	DW	00H
	DW	00H
	DW	00H
	DW	00H
	DW	00H
	DW	00H
	DW	00H
	DW	00H
	DW	00H
	DW	00H
	DW	00H
	DW	00H
	DW	00H
	DW	00H
	DW	00H
	DW	00H
	DW	00H
	DW	00H
	DW	00H
	DW	00H
	DW	00H
	DW	00H
	DW	00H
	DW	00H
	DW	00H
	DW	00H
	DW	00H
	DW	00H
	DW	00H
	DW	00H
	DW	00H
	DW	00H
	DW	00H
	DW	00H
	DW	00H
	DW	00H
	DW	00H
	DW	00H
	DW	00H
	DW	00H
	DW	00H
	DW	00H
	DW	00H
	DW	00H
	DW	00H
	DW	00H
	DW	00H
	DW	00H
	DW	00H
	DW	00H
	DW	00H
	DW	00H
	DW	00H
	DW	00H
	DW	00H
	DW	00H
	DW	00H
	DW	00H
	DW	00H
	DW	00H
	DW	00H
	DW	00H
	DW	00H
	DW	00H
	DW	00H
	DW	00H
	DW	018c6H
	DW	04a52H
	DW	05ad6H
	DW	05ad6H
	DW	05ad6H
	DW	05ad6H
	DW	05ad6H
	DW	05ad6H
	DW	05ad6H
	DW	05ad6H
	DW	05ef7H
	DW	05ad6H
	DW	05ad6H
	DW	05ef7H
	DW	05ef7H
	DW	05ef7H
	DW	05ad6H
	DW	05ef7H
	DW	05ef7H
	DW	05ef7H
	DW	06318H
	DW	06318H
	DW	05ad6H
	DW	04e73H
	DW	04210H
	DW	039ceH
	DW	035adH
	DW	035adH
	DW	035adH
	DW	035adH
	DW	031acH
	DW	0294aH
	DW	014a5H
	DW	00H
	DW	00H
	DW	00H
	DW	00H
	DW	0424H
	DW	042aH
	DW	0832H
	DW	0437H
	DW	043cH
	DW	041fH
	DW	01fH
	DW	01fH
	DW	01fH
	DW	01fH
	DW	041fH
	DW	01fH
	DW	041fH
	DW	083aH
	DW	0c57H
	DW	0c56H
	DW	0c74H
	DW	01092H
	DW	018aeH
	DW	014acH
	DW	018cbH
	DW	018cbH
	DW	018caH
	DW	018caH
	DW	018c9H
	DW	018c9H
	DW	018c9H
	DW	018c9H
	DW	018c9H
	DW	018caH
	DW	018caH
	DW	018caH
	DW	018cbH
	DW	018ccH
	DW	014aeH
	DW	01092H
	DW	0c74H
	DW	0c56H
	DW	0c57H
	DW	083aH
	DW	041fH
	DW	01fH
	DW	01fH
	DW	041fH
	DW	01fH
	DW	01fH
	DW	041fH
	DW	041fH
	DW	041dH
	DW	0838H
	DW	0833H
	DW	042bH
	DW	0405H
	DW	00H
	DW	00H
	DW	00H
	DW	00H
	DW	014a5H
	DW	01d07H
	DW	0318cH
	DW	035adH
	DW	035adH
	DW	031acH
	DW	035adH
	DW	039ceH
	DW	04210H
	DW	04a52H
	DW	04e73H
	DW	04631H
	DW	0318cH
	DW	01ce7H
	DW	018c6H
	DW	014a5H
	DW	014a5H
	DW	014a5H
	DW	014a5H
	DW	01084H
	DW	01084H
	DW	0c63H
	DW	0c63H
	DW	0c63H
	DW	0842H
	DW	0842H
	DW	0842H
	DW	0842H
	DW	0421H
	DW	00H
	DW	0421H
	DW	00H
	DW	00H
	DW	00H
	DW	00H
	DW	00H
	DW	00H
	DW	00H
	DW	00H
	DW	00H
	DW	00H
	DW	00H
	DW	00H
	DW	00H
	DW	00H
	DW	00H
	DW	00H
	DW	00H
	DW	00H
	DW	00H
	DW	00H
	DW	00H
	DW	00H
	DW	00H
	DW	00H
	DW	00H
	DW	00H
	DW	00H
	DW	00H
	DW	00H
	DW	00H
	DW	00H
	DW	00H
	DW	00H
	DW	00H
	DW	00H
	DW	00H
	DW	00H
	DW	00H
	DW	00H
	DW	00H
	DW	00H
	DW	00H
	DW	00H
	DW	00H
	DW	00H
	DW	00H
	DW	00H
	DW	00H
	DW	00H
	DW	00H
	DW	00H
	DW	00H
	DW	00H
	DW	00H
	DW	00H
	DW	00H
	DW	00H
	DW	00H
	DW	00H
	DW	00H
	DW	00H
	DW	00H
	DW	00H
	DW	00H
	DW	00H
	DW	00H
	DW	00H
	DW	00H
	DW	00H
	DW	00H
	DW	00H
	DW	00H
	DW	00H
	DW	00H
	DW	00H
	DW	00H
	DW	00H
	DW	00H
	DW	00H
	DW	00H
	DW	00H
	DW	00H
	DW	00H
	DW	00H
	DW	00H
	DW	00H
	DW	00H
	DW	00H
	DW	00H
	DW	00H
	DW	00H
	DW	00H
	DW	00H
	DW	00H
	DW	00H
	DW	00H
	DW	00H
	DW	00H
	DW	0421H
	DW	0318cH
	DW	05ad6H
	DW	05ad6H
	DW	05ad6H
	DW	05ad6H
	DW	05ad6H
	DW	05ad6H
	DW	05ad6H
	DW	05ad6H
	DW	05ef7H
	DW	05ad6H
	DW	05ad6H
	DW	05ef7H
	DW	05ef7H
	DW	05ad6H
	DW	05ef7H
	DW	05ef7H
	DW	05ef7H
	DW	05ef7H
	DW	06318H
	DW	06318H
	DW	05ad6H
	DW	04a52H
	DW	03defH
	DW	035adH
	DW	035adH
	DW	035adH
	DW	035adH
	DW	035adH
	DW	02d6bH
	DW	018c6H
	DW	0421H
	DW	00H
	DW	00H
	DW	01H
	DW	0427H
	DW	082fH
	DW	0836H
	DW	081cH
	DW	041fH
	DW	041fH
	DW	01fH
	DW	01fH
	DW	01fH
	DW	01fH
	DW	041cH
	DW	0859H
	DW	0858H
	DW	01491H
	DW	014ccH
	DW	018caH
	DW	018e8H
	DW	01ce7H
	DW	01ce6H
	DW	01ce6H
	DW	01ce5H
	DW	01ce6H
	DW	01ce6H
	DW	01ce6H
	DW	01ce7H
	DW	01ce6H
	DW	01ce7H
	DW	01ce7H
	DW	01ce7H
	DW	01ce7H
	DW	01ce7H
	DW	01ce7H
	DW	01ce7H
	DW	01ce7H
	DW	01ce6H
	DW	01ce7H
	DW	01ce7H
	DW	01ce6H
	DW	01ce6H
	DW	01ce6H
	DW	01ce6H
	DW	01ce7H
	DW	01cc8H
	DW	018cbH
	DW	014ccH
	DW	014aeH
	DW	0c74H
	DW	0859H
	DW	083aH
	DW	041fH
	DW	01fH
	DW	01fH
	DW	01fH
	DW	01fH
	DW	041fH
	DW	041cH
	DW	0836H
	DW	0830H
	DW	0427H
	DW	01H
	DW	00H
	DW	00H
	DW	0421H
	DW	01cc6H
	DW	02d6aH
	DW	035adH
	DW	035adH
	DW	035adH
	DW	031adH
	DW	035adH
	DW	03defH
	DW	04a52H
	DW	04e73H
	DW	04631H
	DW	0318cH
	DW	01ce7H
	DW	014a5H
	DW	014a5H
	DW	014a5H
	DW	01084H
	DW	01084H
	DW	0c63H
	DW	0c63H
	DW	0c63H
	DW	0842H
	DW	0842H
	DW	0842H
	DW	0421H
	DW	0421H
	DW	0421H
	DW	0421H
	DW	00H
	DW	00H
	DW	00H
	DW	00H
	DW	00H
	DW	00H
	DW	00H
	DW	00H
	DW	00H
	DW	00H
	DW	00H
	DW	00H
	DW	00H
	DW	00H
	DW	00H
	DW	00H
	DW	00H
	DW	00H
	DW	00H
	DW	00H
	DW	00H
	DW	00H
	DW	00H
	DW	00H
	DW	00H
	DW	00H
	DW	00H
	DW	00H
	DW	00H
	DW	00H
	DW	00H
	DW	00H
	DW	00H
	DW	00H
	DW	00H
	DW	00H
	DW	00H
	DW	00H
	DW	00H
	DW	00H
	DW	00H
	DW	00H
	DW	00H
	DW	00H
	DW	00H
	DW	00H
	DW	00H
	DW	00H
	DW	00H
	DW	00H
	DW	00H
	DW	00H
	DW	00H
	DW	00H
	DW	00H
	DW	00H
	DW	00H
	DW	00H
	DW	00H
	DW	00H
	DW	00H
	DW	00H
	DW	00H
	DW	00H
	DW	00H
	DW	00H
	DW	00H
	DW	00H
	DW	00H
	DW	00H
	DW	00H
	DW	00H
	DW	00H
	DW	00H
	DW	00H
	DW	00H
	DW	00H
	DW	00H
	DW	00H
	DW	00H
	DW	00H
	DW	00H
	DW	00H
	DW	00H
	DW	00H
	DW	00H
	DW	00H
	DW	00H
	DW	00H
	DW	00H
	DW	00H
	DW	00H
	DW	00H
	DW	00H
	DW	00H
	DW	00H
	DW	00H
	DW	014a5H
	DW	04631H
	DW	05ad6H
	DW	05ad6H
	DW	05ad6H
	DW	05ad6H
	DW	05ad6H
	DW	05ad6H
	DW	05ad6H
	DW	05ad6H
	DW	05ad6H
	DW	05ad6H
	DW	05ef7H
	DW	05ef7H
	DW	05ef7H
	DW	05ef7H
	DW	05ef7H
	DW	05ef7H
	DW	05ef7H
	DW	06318H
	DW	06318H
	DW	056b5H
	DW	04a52H
	DW	03defH
	DW	035adH
	DW	0318cH
	DW	035adH
	DW	035adH
	DW	02d6bH
	DW	018c6H
	DW	0c63H
	DW	00H
	DW	00H
	DW	00H
	DW	0427H
	DW	0830H
	DW	0439H
	DW	041eH
	DW	01fH
	DW	01fH
	DW	01fH
	DW	01fH
	DW	041dH
	DW	043cH
	DW	0c74H
	DW	014afH
	DW	014aeH
	DW	018c9H
	DW	020e6H
	DW	01ce5H
	DW	01ce6H
	DW	01ce6H
	DW	01ce6H
	DW	01ce7H
	DW	01ce7H
	DW	01ce7H
	DW	01ce7H
	DW	01ce7H
	DW	01ce7H
	DW	01ce7H
	DW	01ce7H
	DW	01ce7H
	DW	01ce7H
	DW	01ce7H
	DW	01ce7H
	DW	01ce7H
	DW	01ce7H
	DW	01ce7H
	DW	01ce7H
	DW	01ce7H
	DW	01ce7H
	DW	01ce7H
	DW	01ce7H
	DW	01ce7H
	DW	01ce7H
	DW	01ce7H
	DW	01ce7H
	DW	01ce7H
	DW	01ce7H
	DW	01ce7H
	DW	01d06H
	DW	01ce6H
	DW	01ce6H
	DW	01ce6H
	DW	020e6H
	DW	01ce7H
	DW	018ccH
	DW	014afH
	DW	0c74H
	DW	043cH
	DW	041dH
	DW	041fH
	DW	01fH
	DW	041fH
	DW	041fH
	DW	041fH
	DW	0839H
	DW	0831H
	DW	0428H
	DW	01H
	DW	00H
	DW	00H
	DW	0c63H
	DW	018c6H
	DW	02d6bH
	DW	035adH
	DW	035adH
	DW	0318cH
	DW	035adH
	DW	039ceH
	DW	04631H
	DW	04e73H
	DW	04631H
	DW	02d6bH
	DW	018c6H
	DW	01084H
	DW	01084H
	DW	01084H
	DW	0c63H
	DW	0c63H
	DW	0c63H
	DW	0842H
	DW	0842H
	DW	0421H
	DW	0421H
	DW	0421H
	DW	0421H
	DW	00H
	DW	00H
	DW	00H
	DW	00H
	DW	00H
	DW	00H
	DW	00H
	DW	00H
	DW	00H
	DW	00H
	DW	00H
	DW	00H
	DW	00H
	DW	00H
	DW	00H
	DW	00H
	DW	00H
	DW	00H
	DW	00H
	DW	00H
	DW	00H
	DW	00H
	DW	00H
	DW	00H
	DW	00H
	DW	00H
	DW	00H
	DW	00H
	DW	00H
	DW	00H
	DW	00H
	DW	00H
	DW	00H
	DW	00H
	DW	00H
	DW	00H
	DW	00H
	DW	00H
	DW	00H
	DW	00H
	DW	00H
	DW	00H
	DW	00H
	DW	00H
	DW	00H
	DW	00H
	DW	00H
	DW	00H
	DW	00H
	DW	00H
	DW	00H
	DW	00H
	DW	00H
	DW	00H
	DW	00H
	DW	00H
	DW	00H
	DW	00H
	DW	00H
	DW	00H
	DW	00H
	DW	00H
	DW	00H
	DW	00H
	DW	00H
	DW	00H
	DW	00H
	DW	00H
	DW	00H
	DW	00H
	DW	00H
	DW	00H
	DW	00H
	DW	00H
	DW	00H
	DW	00H
	DW	00H
	DW	00H
	DW	00H
	DW	00H
	DW	00H
	DW	00H
	DW	00H
	DW	00H
	DW	00H
	DW	00H
	DW	00H
	DW	00H
	DW	00H
	DW	00H
	DW	00H
	DW	00H
	DW	00H
	DW	00H
	DW	00H
	DW	00H
	DW	00H
	DW	02529H
	DW	05294H
	DW	05ad6H
	DW	05ad6H
	DW	05ad6H
	DW	05ad6H
	DW	05ad6H
	DW	05ad6H
	DW	05ad6H
	DW	05ad6H
	DW	05ad6H
	DW	05ef7H
	DW	05ef7H
	DW	05ef7H
	DW	05ef7H
	DW	05ef7H
	DW	05ef7H
	DW	05ef7H
	DW	06318H
	DW	06318H
	DW	056b5H
	DW	04a52H
	DW	039ceH
	DW	035adH
	DW	0318cH
	DW	035adH
	DW	035adH
	DW	02d6bH
	DW	018c6H
	DW	020H
	DW	00H
	DW	00H
	DW	0424H
	DW	082fH
	DW	0838H
	DW	041eH
	DW	041fH
	DW	01fH
	DW	01fH
	DW	041fH
	DW	083bH
	DW	0c75H
	DW	01091H
	DW	018c9H
	DW	01ce7H
	DW	01ce6H
	DW	01ce6H
	DW	020e6H
	DW	01ce6H
	DW	01ce7H
	DW	01ce7H
	DW	01ce7H
	DW	01ce7H
	DW	01ce7H
	DW	01ce7H
	DW	01ce7H
	DW	01ce7H
	DW	01ce7H
	DW	020e7H
	DW	01ce7H
	DW	01ce7H
	DW	01ce7H
	DW	01ce7H
	DW	01ce7H
	DW	01ce7H
	DW	01ce7H
	DW	01ce7H
	DW	01ce7H
	DW	01ce7H
	DW	01ce7H
	DW	01ce7H
	DW	01ce7H
	DW	01ce7H
	DW	01ce7H
	DW	01ce7H
	DW	01ce7H
	DW	01ce7H
	DW	01ce7H
	DW	01ce7H
	DW	01ce7H
	DW	01ce7H
	DW	01ce7H
	DW	01ce7H
	DW	01ce7H
	DW	01ce7H
	DW	01ce7H
	DW	01ce7H
	DW	01ce6H
	DW	01ce6H
	DW	01ce6H
	DW	020e7H
	DW	01ce8H
	DW	014adH
	DW	0c74H
	DW	083bH
	DW	041fH
	DW	01fH
	DW	01fH
	DW	041fH
	DW	041eH
	DW	0839H
	DW	042fH
	DW	0425H
	DW	00H
	DW	00H
	DW	020H
	DW	018c5H
	DW	02d6bH
	DW	035adH
	DW	035adH
	DW	035adH
	DW	035adH
	DW	039ceH
	DW	04631H
	DW	04e73H
	DW	04631H
	DW	0294aH
	DW	014a5H
	DW	0c63H
	DW	0c63H
	DW	0c63H
	DW	0c63H
	DW	0842H
	DW	0842H
	DW	0421H
	DW	0421H
	DW	0421H
	DW	00H
	DW	00H
	DW	00H
	DW	00H
	DW	00H
	DW	00H
	DW	00H
	DW	00H
	DW	00H
	DW	00H
	DW	00H
	DW	00H
	DW	00H
	DW	00H
	DW	00H
	DW	00H
	DW	00H
	DW	00H
	DW	00H
	DW	00H
	DW	00H
	DW	00H
	DW	00H
	DW	00H
	DW	00H
	DW	00H
	DW	00H
	DW	00H
	DW	00H
	DW	00H
	DW	00H
	DW	00H
	DW	00H
	DW	00H
	DW	00H
	DW	00H
	DW	00H
	DW	00H
	DW	00H
	DW	00H
	DW	00H
	DW	00H
	DW	00H
	DW	00H
	DW	00H
	DW	00H
	DW	00H
	DW	00H
	DW	00H
	DW	00H
	DW	00H
	DW	00H
	DW	00H
	DW	00H
	DW	00H
	DW	00H
	DW	00H
	DW	00H
	DW	00H
	DW	00H
	DW	00H
	DW	00H
	DW	00H
	DW	00H
	DW	00H
	DW	00H
	DW	00H
	DW	00H
	DW	00H
	DW	00H
	DW	00H
	DW	00H
	DW	00H
	DW	00H
	DW	00H
	DW	00H
	DW	00H
	DW	00H
	DW	00H
	DW	00H
	DW	00H
	DW	00H
	DW	00H
	DW	00H
	DW	00H
	DW	00H
	DW	00H
	DW	00H
	DW	00H
	DW	00H
	DW	00H
	DW	00H
	DW	00H
	DW	00H
	DW	00H
	DW	00H
	DW	0421H
	DW	035adH
	DW	05ad6H
	DW	05ad6H
	DW	05ad6H
	DW	05ad6H
	DW	05ad6H
	DW	05ad6H
	DW	05ad6H
	DW	05ad6H
	DW	05ad6H
	DW	05ad6H
	DW	05ef7H
	DW	05ef7H
	DW	05ef7H
	DW	05ef7H
	DW	05ef7H
	DW	05ef7H
	DW	06318H
	DW	06318H
	DW	05ad6H
	DW	04a52H
	DW	03defH
	DW	035adH
	DW	035adH
	DW	035adH
	DW	035adH
	DW	0294aH
	DW	014a5H
	DW	00H
	DW	00H
	DW	01H
	DW	0429H
	DW	0834H
	DW	043cH
	DW	01fH
	DW	01fH
	DW	01fH
	DW	041fH
	DW	083aH
	DW	01074H
	DW	018acH
	DW	01cc8H
	DW	01ce6H
	DW	01ce6H
	DW	01ce6H
	DW	01ce7H
	DW	01ce7H
	DW	01ce7H
	DW	01ce7H
	DW	01ce7H
	DW	01ce7H
	DW	01ce7H
	DW	01ce7H
	DW	01ce7H
	DW	01ce7H
	DW	01ce7H
	DW	01ce7H
	DW	01ce7H
	DW	01ce7H
	DW	01ce7H
	DW	01ce7H
	DW	01ce7H
	DW	01ce7H
	DW	01ce7H
	DW	01ce7H
	DW	01ce7H
	DW	01ce7H
	DW	01ce7H
	DW	01ce7H
	DW	01ce7H
	DW	01ce7H
	DW	01ce7H
	DW	01ce7H
	DW	01ce7H
	DW	01ce7H
	DW	01ce7H
	DW	01ce7H
	DW	01ce7H
	DW	01ce7H
	DW	01ce7H
	DW	01ce7H
	DW	01ce7H
	DW	01ce7H
	DW	01ce7H
	DW	01ce7H
	DW	01ce7H
	DW	01ce7H
	DW	01ce7H
	DW	01ce7H
	DW	01ce7H
	DW	01ce7H
	DW	01ce7H
	DW	01ce7H
	DW	01ce6H
	DW	01ce6H
	DW	01ce8H
	DW	014ccH
	DW	01074H
	DW	083aH
	DW	041fH
	DW	01fH
	DW	01fH
	DW	01fH
	DW	041dH
	DW	0835H
	DW	042aH
	DW	01H
	DW	00H
	DW	00H
	DW	014a5H
	DW	0294aH
	DW	035adH
	DW	035adH
	DW	035adH
	DW	035adH
	DW	039ceH
	DW	04631H
	DW	04a52H
	DW	03defH
	DW	02108H
	DW	0c63H
	DW	0c63H
	DW	0c63H
	DW	0842H
	DW	0842H
	DW	0842H
	DW	0421H
	DW	0421H
	DW	00H
	DW	00H
	DW	00H
	DW	00H
	DW	00H
	DW	00H
	DW	00H
	DW	00H
	DW	00H
	DW	00H
	DW	00H
	DW	00H
	DW	00H
	DW	00H
	DW	00H
	DW	00H
	DW	00H
	DW	00H
	DW	00H
	DW	00H
	DW	00H
	DW	00H
	DW	00H
	DW	00H
	DW	00H
	DW	00H
	DW	00H
	DW	00H
	DW	00H
	DW	00H
	DW	00H
	DW	00H
	DW	00H
	DW	00H
	DW	00H
	DW	00H
	DW	00H
	DW	00H
	DW	00H
	DW	00H
	DW	00H
	DW	00H
	DW	00H
	DW	00H
	DW	00H
	DW	00H
	DW	00H
	DW	00H
	DW	00H
	DW	00H
	DW	00H
	DW	00H
	DW	00H
	DW	00H
	DW	00H
	DW	00H
	DW	00H
	DW	00H
	DW	00H
	DW	00H
	DW	00H
	DW	00H
	DW	00H
	DW	00H
	DW	00H
	DW	00H
	DW	00H
	DW	00H
	DW	00H
	DW	00H
	DW	00H
	DW	00H
	DW	00H
	DW	00H
	DW	00H
	DW	00H
	DW	00H
	DW	00H
	DW	00H
	DW	00H
	DW	00H
	DW	00H
	DW	00H
	DW	00H
	DW	00H
	DW	00H
	DW	00H
	DW	00H
	DW	00H
	DW	00H
	DW	00H
	DW	00H
	DW	00H
	DW	00H
	DW	00H
	DW	0c63H
	DW	04631H
	DW	05ad6H
	DW	05ad6H
	DW	05ad6H
	DW	05ad6H
	DW	05ad6H
	DW	05ad6H
	DW	05ad6H
	DW	05ad6H
	DW	05ad6H
	DW	05ad6H
	DW	05ef7H
	DW	05ef7H
	DW	05ef6H
	DW	05ed7H
	DW	05ef7H
	DW	06318H
	DW	06318H
	DW	05af6H
	DW	04e73H
	DW	03defH
	DW	035adH
	DW	0358cH
	DW	035adH
	DW	0318cH
	DW	0294aH
	DW	01084H
	DW	00H
	DW	00H
	DW	03H
	DW	082eH
	DW	0439H
	DW	041fH
	DW	041fH
	DW	01fH
	DW	041fH
	DW	083bH
	DW	01073H
	DW	014adH
	DW	01ce7H
	DW	01ce5H
	DW	01ce6H
	DW	01ce7H
	DW	01ce7H
	DW	01ce7H
	DW	01ce7H
	DW	01ce7H
	DW	01ce7H
	DW	01ce7H
	DW	01ce7H
	DW	01ce7H
	DW	01ce7H
	DW	01ce7H
	DW	01ce7H
	DW	01ce7H
	DW	01ce7H
	DW	01ce7H
	DW	01ce7H
	DW	01ce7H
	DW	01ce7H
	DW	01ce7H
	DW	01ce7H
	DW	01ce7H
	DW	01ce7H
	DW	018c6H
	DW	018c6H
	DW	01ce7H
	DW	018c6H
	DW	018c6H
	DW	018c6H
	DW	018c6H
	DW	018c6H
	DW	018c6H
	DW	018c6H
	DW	018c6H
	DW	01ce7H
	DW	01ce7H
	DW	01ce7H
	DW	01ce7H
	DW	01ce7H
	DW	01ce7H
	DW	01ce7H
	DW	01ce7H
	DW	01ce7H
	DW	01ce7H
	DW	01ce7H
	DW	01ce7H
	DW	01ce7H
	DW	01ce7H
	DW	01ce7H
	DW	01ce7H
	DW	01ce7H
	DW	01ce7H
	DW	01ce7H
	DW	01ce7H
	DW	018e7H
	DW	01ce6H
	DW	020e7H
	DW	01ce6H
	DW	01ce8H
	DW	018acH
	DW	01073H
	DW	083bH
	DW	01fH
	DW	01fH
	DW	041fH
	DW	041fH
	DW	0439H
	DW	082eH
	DW	03H
	DW	00H
	DW	00H
	DW	01084H
	DW	0294aH
	DW	031adH
	DW	035adH
	DW	035adH
	DW	035adH
	DW	03defH
	DW	04631H
	DW	04a52H
	DW	039adH
	DW	018c6H
	DW	0842H
	DW	0842H
	DW	0842H
	DW	0421H
	DW	0421H
	DW	0421H
	DW	00H
	DW	00H
	DW	00H
	DW	00H
	DW	00H
	DW	00H
	DW	00H
	DW	00H
	DW	00H
	DW	00H
	DW	00H
	DW	00H
	DW	00H
	DW	00H
	DW	00H
	DW	00H
	DW	00H
	DW	00H
	DW	00H
	DW	00H
	DW	00H
	DW	00H
	DW	00H
	DW	00H
	DW	00H
	DW	00H
	DW	00H
	DW	00H
	DW	00H
	DW	00H
	DW	00H
	DW	00H
	DW	00H
	DW	00H
	DW	00H
	DW	00H
	DW	00H
	DW	00H
	DW	00H
	DW	00H
	DW	00H
	DW	00H
	DW	00H
	DW	00H
	DW	00H
	DW	00H
	DW	00H
	DW	00H
	DW	00H
	DW	00H
	DW	00H
	DW	00H
	DW	00H
	DW	00H
	DW	00H
	DW	00H
	DW	00H
	DW	00H
	DW	00H
	DW	00H
	DW	00H
	DW	00H
	DW	00H
	DW	00H
	DW	00H
	DW	00H
	DW	00H
	DW	00H
	DW	00H
	DW	00H
	DW	00H
	DW	00H
	DW	00H
	DW	00H
	DW	00H
	DW	00H
	DW	00H
	DW	00H
	DW	00H
	DW	00H
	DW	00H
	DW	00H
	DW	00H
	DW	00H
	DW	00H
	DW	00H
	DW	00H
	DW	00H
	DW	00H
	DW	00H
	DW	00H
	DW	00H
	DW	00H
	DW	00H
	DW	01ce7H
	DW	05294H
	DW	05ad6H
	DW	05ad6H
	DW	05ad6H
	DW	05ad6H
	DW	05ad6H
	DW	05ad6H
	DW	05ad6H
	DW	05ad6H
	DW	05ad6H
	DW	05ad6H
	DW	05ad6H
	DW	05ef7H
	DW	05ef7H
	DW	05ef7H
	DW	05f17H
	DW	06318H
	DW	05ef7H
	DW	05294H
	DW	04210H
	DW	035adH
	DW	035adH
	DW	035adH
	DW	035adH
	DW	02109H
	DW	0c63H
	DW	00H
	DW	00H
	DW	024H
	DW	0830H
	DW	083bH
	DW	041fH
	DW	01fH
	DW	01fH
	DW	01fH
	DW	0c57H
	DW	018adH
	DW	01ce7H
	DW	01ce6H
	DW	01ce6H
	DW	01ce7H
	DW	01ce7H
	DW	01ce7H
	DW	01ce7H
	DW	01ce7H
	DW	01ce7H
	DW	01ce7H
	DW	01ce7H
	DW	01ce7H
	DW	01ce7H
	DW	01ce7H
	DW	01ce7H
	DW	01ce7H
	DW	01ce7H
	DW	01ce7H
	DW	01ce7H
	DW	01ce7H
	DW	01ce7H
	DW	018c6H
	DW	018c6H
	DW	014a5H
	DW	0c63H
	DW	0842H
	DW	0842H
	DW	0421H
	DW	0421H
	DW	0421H
	DW	00H
	DW	00H
	DW	00H
	DW	00H
	DW	00H
	DW	00H
	DW	0421H
	DW	0421H
	DW	0421H
	DW	0421H
	DW	0842H
	DW	0842H
	DW	0c63H
	DW	01084H
	DW	018c6H
	DW	018c6H
	DW	01ce7H
	DW	01ce7H
	DW	01ce7H
	DW	01ce7H
	DW	01ce7H
	DW	01ce7H
	DW	01ce7H
	DW	01ce7H
	DW	01ce7H
	DW	01ce7H
	DW	01ce7H
	DW	01ce7H
	DW	01ce7H
	DW	01ce7H
	DW	01ce7H
	DW	01ce7H
	DW	01ce7H
	DW	01ce7H
	DW	01ce6H
	DW	01ce6H
	DW	01ce7H
	DW	014adH
	DW	0c57H
	DW	041fH
	DW	01fH
	DW	01fH
	DW	01fH
	DW	083bH
	DW	0431H
	DW	0425H
	DW	00H
	DW	00H
	DW	0c62H
	DW	02529H
	DW	035adH
	DW	035adH
	DW	0358cH
	DW	035adH
	DW	03defH
	DW	04a52H
	DW	04631H
	DW	0294bH
	DW	0c63H
	DW	0421H
	DW	0421H
	DW	0421H
	DW	0421H
	DW	00H
	DW	00H
	DW	00H
	DW	00H
	DW	00H
	DW	00H
	DW	00H
	DW	00H
	DW	00H
	DW	00H
	DW	00H
	DW	00H
	DW	00H
	DW	00H
	DW	00H
	DW	00H
	DW	00H
	DW	00H
	DW	00H
	DW	00H
	DW	00H
	DW	00H
	DW	00H
	DW	00H
	DW	00H
	DW	00H
	DW	00H
	DW	00H
	DW	00H
	DW	00H
	DW	00H
	DW	00H
	DW	00H
	DW	00H
	DW	00H
	DW	00H
	DW	00H
	DW	00H
	DW	00H
	DW	00H
	DW	00H
	DW	00H
	DW	00H
	DW	00H
	DW	00H
	DW	00H
	DW	00H
	DW	00H
	DW	00H
	DW	00H
	DW	00H
	DW	00H
	DW	00H
	DW	00H
	DW	00H
	DW	00H
	DW	00H
	DW	00H
	DW	00H
	DW	00H
	DW	00H
	DW	00H
	DW	00H
	DW	00H
	DW	00H
	DW	00H
	DW	00H
	DW	00H
	DW	00H
	DW	00H
	DW	00H
	DW	00H
	DW	00H
	DW	00H
	DW	00H
	DW	00H
	DW	00H
	DW	00H
	DW	00H
	DW	00H
	DW	00H
	DW	00H
	DW	00H
	DW	00H
	DW	00H
	DW	00H
	DW	00H
	DW	00H
	DW	00H
	DW	00H
	DW	00H
	DW	00H
	DW	00H
	DW	02529H
	DW	05ad6H
	DW	05ad6H
	DW	05ad6H
	DW	05ad6H
	DW	05ad6H
	DW	05ad6H
	DW	05ad6H
	DW	05ad6H
	DW	05ad6H
	DW	05ad6H
	DW	05ad6H
	DW	05ef7H
	DW	05ad6H
	DW	05ad6H
	DW	05ef7H
	DW	06318H
	DW	06318H
	DW	056b5H
	DW	04631H
	DW	039ceH
	DW	031acH
	DW	035adH
	DW	035adH
	DW	02d6bH
	DW	014a5H
	DW	00H
	DW	00H
	DW	0404H
	DW	0831H
	DW	043cH
	DW	041fH
	DW	01fH
	DW	01fH
	DW	083bH
	DW	01491H
	DW	018caH
	DW	01ce7H
	DW	01ce6H
	DW	01ce7H
	DW	01ce7H
	DW	01ce7H
	DW	01ce7H
	DW	01ce7H
	DW	01ce7H
	DW	01ce7H
	DW	01ce7H
	DW	01ce7H
	DW	01ce7H
	DW	01ce7H
	DW	01ce7H
	DW	01ce7H
	DW	01ce7H
	DW	01ce7H
	DW	018c6H
	DW	014a5H
	DW	014a5H
	DW	0c63H
	DW	0842H
	DW	0842H
	DW	0421H
	DW	00H
	DW	00H
	DW	00H
	DW	00H
	DW	00H
	DW	00H
	DW	00H
	DW	00H
	DW	00H
	DW	00H
	DW	00H
	DW	00H
	DW	00H
	DW	00H
	DW	00H
	DW	00H
	DW	00H
	DW	00H
	DW	00H
	DW	00H
	DW	00H
	DW	00H
	DW	00H
	DW	0421H
	DW	0421H
	DW	0842H
	DW	0c63H
	DW	014a5H
	DW	014a5H
	DW	018c6H
	DW	01ce7H
	DW	01ce7H
	DW	01ce7H
	DW	01ce7H
	DW	01ce7H
	DW	01ce7H
	DW	01ce7H
	DW	01ce7H
	DW	01ce7H
	DW	01ce7H
	DW	01ce7H
	DW	01ce7H
	DW	01ce7H
	DW	01ce7H
	DW	01ce7H
	DW	01ce6H
	DW	01ce7H
	DW	018c9H
	DW	01091H
	DW	083bH
	DW	01fH
	DW	01fH
	DW	041fH
	DW	041dH
	DW	0432H
	DW	0424H
	DW	00H
	DW	00H
	DW	010a5H
	DW	02d4bH
	DW	035adH
	DW	035adH
	DW	031adH
	DW	039cdH
	DW	04210H
	DW	04a52H
	DW	039efH
	DW	018c6H
	DW	0421H
	DW	0421H
	DW	0421H
	DW	00H
	DW	00H
	DW	00H
	DW	00H
	DW	00H
	DW	00H
	DW	00H
	DW	00H
	DW	00H
	DW	00H
	DW	00H
	DW	00H
	DW	00H
	DW	00H
	DW	00H
	DW	00H
	DW	00H
	DW	00H
	DW	00H
	DW	00H
	DW	00H
	DW	00H
	DW	00H
	DW	00H
	DW	00H
	DW	00H
	DW	00H
	DW	00H
	DW	00H
	DW	00H
	DW	00H
	DW	00H
	DW	00H
	DW	00H
	DW	00H
	DW	00H
	DW	00H
	DW	00H
	DW	00H
	DW	00H
	DW	00H
	DW	00H
	DW	00H
	DW	00H
	DW	00H
	DW	00H
	DW	00H
	DW	00H
	DW	00H
	DW	00H
	DW	00H
	DW	00H
	DW	00H
	DW	00H
	DW	00H
	DW	00H
	DW	00H
	DW	00H
	DW	00H
	DW	00H
	DW	00H
	DW	00H
	DW	00H
	DW	00H
	DW	00H
	DW	00H
	DW	00H
	DW	00H
	DW	00H
	DW	00H
	DW	00H
	DW	00H
	DW	00H
	DW	00H
	DW	00H
	DW	00H
	DW	00H
	DW	00H
	DW	00H
	DW	00H
	DW	00H
	DW	00H
	DW	00H
	DW	00H
	DW	00H
	DW	00H
	DW	00H
	DW	00H
	DW	00H
	DW	00H
	DW	00H
	DW	00H
	DW	0318cH
	DW	05ad6H
	DW	05ad6H
	DW	05ad6H
	DW	05ad6H
	DW	05ad6H
	DW	05ad6H
	DW	05ad6H
	DW	05ad6H
	DW	05ad6H
	DW	05ad6H
	DW	05ad6H
	DW	05ad6H
	DW	05ef7H
	DW	05ef7H
	DW	05ef7H
	DW	06318H
	DW	05af6H
	DW	04a53H
	DW	03dceH
	DW	035adH
	DW	031acH
	DW	035adH
	DW	02d6bH
	DW	018c6H
	DW	00H
	DW	00H
	DW	0404H
	DW	0431H
	DW	041cH
	DW	041fH
	DW	01fH
	DW	01fH
	DW	083aH
	DW	01090H
	DW	01ce8H
	DW	01ce6H
	DW	01ce6H
	DW	01ce7H
	DW	01ce7H
	DW	01ce7H
	DW	01ce7H
	DW	01ce7H
	DW	01ce7H
	DW	01ce7H
	DW	01ce7H
	DW	01ce7H
	DW	01ce7H
	DW	01ce7H
	DW	01ce7H
	DW	01ce7H
	DW	018c6H
	DW	014a5H
	DW	01084H
	DW	0842H
	DW	0421H
	DW	00H
	DW	00H
	DW	00H
	DW	00H
	DW	00H
	DW	00H
	DW	00H
	DW	00H
	DW	00H
	DW	00H
	DW	00H
	DW	0421H
	DW	0421H
	DW	0421H
	DW	0421H
	DW	0421H
	DW	0421H
	DW	0421H
	DW	0421H
	DW	0421H
	DW	0421H
	DW	0421H
	DW	0421H
	DW	0421H
	DW	00H
	DW	00H
	DW	00H
	DW	00H
	DW	00H
	DW	00H
	DW	00H
	DW	00H
	DW	00H
	DW	00H
	DW	00H
	DW	0421H
	DW	0842H
	DW	0c63H
	DW	014a5H
	DW	018c6H
	DW	01ce7H
	DW	01ce7H
	DW	01ce7H
	DW	01ce7H
	DW	01ce7H
	DW	01ce7H
	DW	01ce7H
	DW	01ce7H
	DW	01ce7H
	DW	01ce7H
	DW	01ce7H
	DW	01ce7H
	DW	01ce7H
	DW	01ce7H
	DW	01ce5H
	DW	01ce8H
	DW	01490H
	DW	083aH
	DW	01fH
	DW	041fH
	DW	041fH
	DW	041cH
	DW	0831H
	DW	0425H
	DW	00H
	DW	00H
	DW	014a5H
	DW	02d6bH
	DW	039adH
	DW	035adH
	DW	035adH
	DW	03defH
	DW	04631H
	DW	04631H
	DW	0294aH
	DW	0842H
	DW	00H
	DW	00H
	DW	00H
	DW	00H
	DW	00H
	DW	00H
	DW	00H
	DW	00H
	DW	00H
	DW	00H
	DW	00H
	DW	00H
	DW	00H
	DW	00H
	DW	00H
	DW	00H
	DW	00H
	DW	00H
	DW	00H
	DW	00H
	DW	00H
	DW	00H
	DW	00H
	DW	00H
	DW	00H
	DW	00H
	DW	00H
	DW	00H
	DW	00H
	DW	00H
	DW	00H
	DW	00H
	DW	00H
	DW	00H
	DW	00H
	DW	00H
	DW	00H
	DW	00H
	DW	00H
	DW	00H
	DW	00H
	DW	00H
	DW	00H
	DW	00H
	DW	00H
	DW	00H
	DW	00H
	DW	00H
	DW	00H
	DW	00H
	DW	00H
	DW	00H
	DW	00H
	DW	00H
	DW	00H
	DW	00H
	DW	00H
	DW	00H
	DW	00H
	DW	00H
	DW	00H
	DW	00H
	DW	00H
	DW	00H
	DW	00H
	DW	00H
	DW	00H
	DW	00H
	DW	00H
	DW	00H
	DW	00H
	DW	00H
	DW	00H
	DW	00H
	DW	00H
	DW	00H
	DW	00H
	DW	00H
	DW	00H
	DW	00H
	DW	00H
	DW	00H
	DW	00H
	DW	00H
	DW	00H
	DW	00H
	DW	00H
	DW	00H
	DW	00H
	DW	00H
	DW	00H
	DW	0421H
	DW	03defH
	DW	05ad6H
	DW	056b5H
	DW	05ad6H
	DW	05ad6H
	DW	05ad6H
	DW	05ad6H
	DW	05ad6H
	DW	05ad6H
	DW	05ad6H
	DW	05ad6H
	DW	05ad6H
	DW	05ad6H
	DW	05ad6H
	DW	05ef7H
	DW	06318H
	DW	06318H
	DW	05294H
	DW	04210H
	DW	035adH
	DW	0318cH
	DW	035adH
	DW	0318cH
	DW	018c6H
	DW	0421H
	DW	00H
	DW	02H
	DW	084eH
	DW	081cH
	DW	041fH
	DW	01fH
	DW	01fH
	DW	083bH
	DW	01490H
	DW	01cc8H
	DW	01ce6H
	DW	01ce7H
	DW	01ce7H
	DW	01ce7H
	DW	01ce7H
	DW	01ce7H
	DW	01ce7H
	DW	01ce7H
	DW	01ce7H
	DW	01ce7H
	DW	01ce7H
	DW	01ce7H
	DW	01ce7H
	DW	01cc7H
	DW	014a6H
	DW	01084H
	DW	0842H
	DW	0421H
	DW	00H
	DW	00H
	DW	00H
	DW	00H
	DW	00H
	DW	00H
	DW	00H
	DW	00H
	DW	0421H
	DW	0421H
	DW	0842H
	DW	0c63H
	DW	0c63H
	DW	01084H
	DW	01084H
	DW	01084H
	DW	01084H
	DW	01084H
	DW	01084H
	DW	014a5H
	DW	014a5H
	DW	014a5H
	DW	014a5H
	DW	014a5H
	DW	01084H
	DW	01084H
	DW	01084H
	DW	01084H
	DW	01084H
	DW	01084H
	DW	0c63H
	DW	0c63H
	DW	0842H
	DW	0421H
	DW	0421H
	DW	0421H
	DW	00H
	DW	00H
	DW	00H
	DW	00H
	DW	00H
	DW	00H
	DW	00H
	DW	00H
	DW	0842H
	DW	01083H
	DW	014a5H
	DW	01ce7H
	DW	01ce7H
	DW	01ce7H
	DW	01ce7H
	DW	01ce7H
	DW	01ce7H
	DW	01ce7H
	DW	01ce7H
	DW	01ce7H
	DW	01ce7H
	DW	01ce7H
	DW	01ce7H
	DW	01ce6H
	DW	01ce6H
	DW	01ce8H
	DW	01090H
	DW	083bH
	DW	01fH
	DW	01fH
	DW	01fH
	DW	081dH
	DW	0430H
	DW	022H
	DW	00H
	DW	0421H
	DW	018c6H
	DW	0318cH
	DW	035adH
	DW	0358cH
	DW	035adH
	DW	04210H
	DW	04a52H
	DW	039ceH
	DW	01084H
	DW	00H
	DW	00H
	DW	00H
	DW	00H
	DW	00H
	DW	00H
	DW	00H
	DW	00H
	DW	00H
	DW	00H
	DW	00H
	DW	00H
	DW	00H
	DW	00H
	DW	00H
	DW	0421H
	DW	00H
	DW	00H
	DW	00H
	DW	00H
	DW	00H
	DW	00H
	DW	00H
	DW	00H
	DW	00H
	DW	00H
	DW	00H
	DW	00H
	DW	00H
	DW	00H
	DW	00H
	DW	00H
	DW	00H
	DW	00H
	DW	00H
	DW	00H
	DW	00H
	DW	00H
	DW	00H
	DW	00H
	DW	00H
	DW	00H
	DW	00H
	DW	00H
	DW	00H
	DW	00H
	DW	00H
	DW	00H
	DW	00H
	DW	00H
	DW	00H
	DW	00H
	DW	00H
	DW	00H
	DW	00H
	DW	00H
	DW	00H
	DW	00H
	DW	00H
	DW	00H
	DW	00H
	DW	00H
	DW	00H
	DW	00H
	DW	00H
	DW	00H
	DW	00H
	DW	00H
	DW	00H
	DW	00H
	DW	00H
	DW	00H
	DW	00H
	DW	00H
	DW	00H
	DW	00H
	DW	00H
	DW	00H
	DW	00H
	DW	00H
	DW	00H
	DW	00H
	DW	00H
	DW	00H
	DW	00H
	DW	00H
	DW	00H
	DW	00H
	DW	00H
	DW	0421H
	DW	04631H
	DW	056b5H
	DW	056b5H
	DW	056b5H
	DW	05ad6H
	DW	05ad6H
	DW	05ad6H
	DW	05ad6H
	DW	05ad6H
	DW	05ad6H
	DW	05ad6H
	DW	05ad6H
	DW	05ad6H
	DW	05ef7H
	DW	05ef7H
	DW	06318H
	DW	05ef7H
	DW	04a52H
	DW	039ceH
	DW	035adH
	DW	031adH
	DW	035cdH
	DW	02d6bH
	DW	0863H
	DW	00H
	DW	00H
	DW	042aH
	DW	0439H
	DW	041fH
	DW	01fH
	DW	01fH
	DW	083aH
	DW	01490H
	DW	01ce8H
	DW	01ce6H
	DW	01ce7H
	DW	01ce7H
	DW	01ce7H
	DW	01ce7H
	DW	01ce7H
	DW	01ce7H
	DW	01ce7H
	DW	01ce7H
	DW	01ce7H
	DW	01ce7H
	DW	01ce7H
	DW	01ce7H
	DW	014a5H
	DW	0c63H
	DW	0421H
	DW	00H
	DW	00H
	DW	00H
	DW	00H
	DW	00H
	DW	00H
	DW	00H
	DW	0421H
	DW	0842H
	DW	0c63H
	DW	0c63H
	DW	01084H
	DW	01084H
	DW	014a5H
	DW	014a5H
	DW	014a5H
	DW	014a5H
	DW	014a5H
	DW	014a5H
	DW	014a5H
	DW	014a5H
	DW	014a5H
	DW	014a5H
	DW	014a5H
	DW	014a5H
	DW	014a5H
	DW	014a5H
	DW	014a5H
	DW	014a5H
	DW	014a5H
	DW	014a5H
	DW	014a5H
	DW	014a5H
	DW	014a5H
	DW	014a5H
	DW	014a5H
	DW	014a5H
	DW	014a5H
	DW	014a5H
	DW	01084H
	DW	01084H
	DW	0c63H
	DW	0842H
	DW	0421H
	DW	00H
	DW	00H
	DW	00H
	DW	00H
	DW	00H
	DW	00H
	DW	00H
	DW	0421H
	DW	0c63H
	DW	014a5H
	DW	01ce7H
	DW	01ce7H
	DW	01ce7H
	DW	01ce7H
	DW	01ce7H
	DW	01ce7H
	DW	01ce7H
	DW	018e7H
	DW	01ce7H
	DW	01ce7H
	DW	01ce7H
	DW	01ce7H
	DW	01ce6H
	DW	018e8H
	DW	01490H
	DW	0859H
	DW	041fH
	DW	01fH
	DW	041fH
	DW	043aH
	DW	082cH
	DW	00H
	DW	00H
	DW	0c62H
	DW	0294aH
	DW	039adH
	DW	031adH
	DW	035adH
	DW	039ceH
	DW	04631H
	DW	04210H
	DW	02108H
	DW	00H
	DW	00H
	DW	00H
	DW	00H
	DW	00H
	DW	00H
	DW	00H
	DW	00H
	DW	00H
	DW	00H
	DW	00H
	DW	00H
	DW	00H
	DW	00H
	DW	00H
	DW	0421H
	DW	00H
	DW	00H
	DW	00H
	DW	00H
	DW	00H
	DW	00H
	DW	00H
	DW	00H
	DW	00H
	DW	00H
	DW	00H
	DW	00H
	DW	00H
	DW	00H
	DW	00H
	DW	00H
	DW	00H
	DW	00H
	DW	00H
	DW	00H
	DW	00H
	DW	00H
	DW	00H
	DW	00H
	DW	00H
	DW	00H
	DW	00H
	DW	00H
	DW	00H
	DW	00H
	DW	00H
	DW	00H
	DW	00H
	DW	00H
	DW	00H
	DW	00H
	DW	00H
	DW	00H
	DW	00H
	DW	00H
	DW	00H
	DW	00H
	DW	00H
	DW	00H
	DW	00H
	DW	00H
	DW	00H
	DW	00H
	DW	00H
	DW	00H
	DW	00H
	DW	00H
	DW	00H
	DW	00H
	DW	00H
	DW	00H
	DW	00H
	DW	00H
	DW	00H
	DW	00H
	DW	00H
	DW	00H
	DW	00H
	DW	00H
	DW	00H
	DW	00H
	DW	00H
	DW	00H
	DW	00H
	DW	00H
	DW	00H
	DW	0842H
	DW	04a52H
	DW	056b5H
	DW	056b5H
	DW	056b5H
	DW	056b5H
	DW	05ad6H
	DW	05ad6H
	DW	05ad6H
	DW	05ad6H
	DW	05ad6H
	DW	05ad6H
	DW	05ad6H
	DW	05ad6H
	DW	05ad6H
	DW	05ef7H
	DW	06318H
	DW	056b5H
	DW	04210H
	DW	035adH
	DW	0318cH
	DW	035adH
	DW	0318dH
	DW	01cc7H
	DW	0420H
	DW	00H
	DW	0426H
	DW	0836H
	DW	041fH
	DW	01fH
	DW	041fH
	DW	083aH
	DW	01090H
	DW	01ce8H
	DW	01ce5H
	DW	01ce7H
	DW	01ce7H
	DW	01ce7H
	DW	01ce7H
	DW	01ce7H
	DW	01ce7H
	DW	01ce7H
	DW	01ce7H
	DW	01ce7H
	DW	01ce7H
	DW	01ce7H
	DW	014a5H
	DW	0c63H
	DW	0421H
	DW	00H
	DW	00H
	DW	00H
	DW	00H
	DW	00H
	DW	00H
	DW	0421H
	DW	0842H
	DW	0c63H
	DW	01084H
	DW	014a5H
	DW	014a5H
	DW	014a5H
	DW	014a5H
	DW	014a5H
	DW	014a5H
	DW	014a5H
	DW	014a5H
	DW	014a5H
	DW	014a5H
	DW	014a5H
	DW	014a5H
	DW	014a5H
	DW	014a5H
	DW	014a5H
	DW	014a5H
	DW	014a5H
	DW	014a5H
	DW	014a5H
	DW	014a5H
	DW	014a5H
	DW	014a5H
	DW	014a5H
	DW	014a5H
	DW	014a5H
	DW	014a5H
	DW	014a5H
	DW	014a5H
	DW	014a5H
	DW	014a5H
	DW	014a5H
	DW	014a5H
	DW	014a5H
	DW	014a5H
	DW	014a5H
	DW	014a5H
	DW	014a5H
	DW	01084H
	DW	0c63H
	DW	0c63H
	DW	0421H
	DW	00H
	DW	00H
	DW	00H
	DW	00H
	DW	00H
	DW	00H
	DW	0421H
	DW	0c63H
	DW	014a5H
	DW	01ce7H
	DW	01ce7H
	DW	01ce7H
	DW	01ce7H
	DW	01ce7H
	DW	01ce7H
	DW	018e7H
	DW	01ce7H
	DW	01ce7H
	DW	01ce7H
	DW	01ce7H
	DW	01ce6H
	DW	01ce6H
	DW	014afH
	DW	083aH
	DW	01fH
	DW	01fH
	DW	041fH
	DW	0837H
	DW	0427H
	DW	00H
	DW	00H
	DW	018c6H
	DW	0318cH
	DW	035adH
	DW	035adH
	DW	035adH
	DW	03defH
	DW	04a52H
	DW	0318cH
	DW	0842H
	DW	00H
	DW	00H
	DW	00H
	DW	00H
	DW	00H
	DW	00H
	DW	00H
	DW	00H
	DW	00H
	DW	00H
	DW	00H
	DW	00H
	DW	00H
	DW	00H
	DW	00H
	DW	00H
	DW	00H
	DW	00H
	DW	00H
	DW	00H
	DW	00H
	DW	00H
	DW	00H
	DW	00H
	DW	00H
	DW	00H
	DW	00H
	DW	00H
	DW	00H
	DW	00H
	DW	00H
	DW	00H
	DW	00H
	DW	00H
	DW	00H
	DW	00H
	DW	00H
	DW	00H
	DW	00H
	DW	00H
	DW	00H
	DW	00H
	DW	00H
	DW	00H
	DW	00H
	DW	00H
	DW	00H
	DW	00H
	DW	00H
	DW	00H
	DW	00H
	DW	00H
	DW	00H
	DW	00H
	DW	00H
	DW	00H
	DW	00H
	DW	00H
	DW	00H
	DW	00H
	DW	00H
	DW	00H
	DW	00H
	DW	00H
	DW	00H
	DW	00H
	DW	00H
	DW	00H
	DW	00H
	DW	00H
	DW	00H
	DW	00H
	DW	00H
	DW	00H
	DW	00H
	DW	00H
	DW	00H
	DW	00H
	DW	00H
	DW	00H
	DW	00H
	DW	00H
	DW	00H
	DW	00H
	DW	0842H
	DW	04e73H
	DW	056b5H
	DW	056b5H
	DW	056b5H
	DW	056b5H
	DW	056b5H
	DW	056b5H
	DW	05ad6H
	DW	05ad6H
	DW	05ad6H
	DW	05ad6H
	DW	05ad6H
	DW	05ad6H
	DW	05ad6H
	DW	06318H
	DW	05ef7H
	DW	04e73H
	DW	03defH
	DW	035adH
	DW	035adH
	DW	035adH
	DW	0294aH
	DW	0c63H
	DW	00H
	DW	00H
	DW	0830H
	DW	041dH
	DW	041fH
	DW	01fH
	DW	041dH
	DW	01091H
	DW	01ce8H
	DW	01ce6H
	DW	01ce7H
	DW	01ce7H
	DW	01ce7H
	DW	01ce7H
	DW	01ce7H
	DW	01ce7H
	DW	01ce7H
	DW	01ce7H
	DW	01ce7H
	DW	01ce7H
	DW	018c6H
	DW	01084H
	DW	0841H
	DW	00H
	DW	00H
	DW	00H
	DW	00H
	DW	00H
	DW	0421H
	DW	0842H
	DW	0c63H
	DW	01084H
	DW	014a5H
	DW	014a5H
	DW	014a5H
	DW	014a5H
	DW	014a5H
	DW	014a5H
	DW	014a5H
	DW	014a5H
	DW	014a5H
	DW	014a5H
	DW	014a5H
	DW	014a5H
	DW	014a5H
	DW	014a5H
	DW	014a5H
	DW	014a5H
	DW	014a5H
	DW	014a5H
	DW	014a5H
	DW	014a5H
	DW	014a5H
	DW	014a5H
	DW	014a5H
	DW	014a5H
	DW	014a5H
	DW	014a5H
	DW	014a5H
	DW	014a5H
	DW	014a5H
	DW	014a5H
	DW	014a5H
	DW	014a5H
	DW	014a5H
	DW	014a5H
	DW	014a5H
	DW	014a5H
	DW	014a5H
	DW	014a5H
	DW	014a5H
	DW	014a5H
	DW	014a5H
	DW	014a5H
	DW	014a5H
	DW	014a5H
	DW	014a5H
	DW	01084H
	DW	0c63H
	DW	0842H
	DW	0421H
	DW	00H
	DW	00H
	DW	00H
	DW	00H
	DW	00H
	DW	0421H
	DW	01084H
	DW	018c6H
	DW	01ce7H
	DW	01ce8H
	DW	01ce7H
	DW	01ce7H
	DW	01ce7H
	DW	01ce7H
	DW	01ce7H
	DW	01ce7H
	DW	01ce7H
	DW	01ce7H
	DW	01ce6H
	DW	01ce8H
	DW	01090H
	DW	083bH
	DW	01fH
	DW	01fH
	DW	041eH
	DW	0431H
	DW	02H
	DW	00H
	DW	0c63H
	DW	0294aH
	DW	035adH
	DW	035adH
	DW	035adH
	DW	03defH
	DW	04631H
	DW	039ceH
	DW	01084H
	DW	00H
	DW	00H
	DW	00H
	DW	00H
	DW	00H
	DW	00H
	DW	00H
	DW	00H
	DW	00H
	DW	00H
	DW	00H
	DW	00H
	DW	00H
	DW	00H
	DW	00H
	DW	00H
	DW	00H
	DW	00H
	DW	00H
	DW	00H
	DW	00H
	DW	00H
	DW	00H
	DW	00H
	DW	00H
	DW	00H
	DW	00H
	DW	00H
	DW	00H
	DW	00H
	DW	00H
	DW	00H
	DW	00H
	DW	00H
	DW	00H
	DW	00H
	DW	00H
	DW	00H
	DW	00H
	DW	00H
	DW	00H
	DW	00H
	DW	00H
	DW	00H
	DW	00H
	DW	00H
	DW	00H
	DW	00H
	DW	00H
	DW	00H
	DW	00H
	DW	00H
	DW	00H
	DW	00H
	DW	00H
	DW	00H
	DW	00H
	DW	00H
	DW	00H
	DW	00H
	DW	00H
	DW	00H
	DW	00H
	DW	00H
	DW	00H
	DW	00H
	DW	00H
	DW	00H
	DW	00H
	DW	00H
	DW	00H
	DW	00H
	DW	00H
	DW	00H
	DW	00H
	DW	00H
	DW	00H
	DW	00H
	DW	00H
	DW	00H
	DW	00H
	DW	00H
	DW	0c63H
	DW	04e73H
	DW	056b5H
	DW	056b5H
	DW	056b5H
	DW	056b5H
	DW	056b5H
	DW	056b5H
	DW	056b5H
	DW	05ad6H
	DW	05ad6H
	DW	05ad6H
	DW	05ad6H
	DW	05ad6H
	DW	05ef7H
	DW	06318H
	DW	05ed6H
	DW	04a52H
	DW	039ceH
	DW	035adH
	DW	035adH
	DW	0358cH
	DW	01ce8H
	DW	00H
	DW	00H
	DW	0427H
	DW	0838H
	DW	01fH
	DW	01fH
	DW	041fH
	DW	0c56H
	DW	01ccbH
	DW	01d06H
	DW	01ce7H
	DW	01ce7H
	DW	01ce7H
	DW	01ce7H
	DW	01ce7H
	DW	01ce7H
	DW	01ce7H
	DW	01ce7H
	DW	01ce7H
	DW	01ce7H
	DW	018c6H
	DW	0c63H
	DW	00H
	DW	00H
	DW	00H
	DW	00H
	DW	00H
	DW	0421H
	DW	0842H
	DW	0c63H
	DW	01084H
	DW	014a5H
	DW	014a5H
	DW	014a5H
	DW	014a5H
	DW	014a5H
	DW	014a5H
	DW	014a5H
	DW	014a5H
	DW	014a5H
	DW	014a5H
	DW	014a5H
	DW	014a5H
	DW	014a5H
	DW	014a5H
	DW	014a5H
	DW	014a5H
	DW	014a5H
	DW	014a5H
	DW	014a5H
	DW	014a5H
	DW	014a5H
	DW	014a5H
	DW	014a5H
	DW	014a5H
	DW	014a5H
	DW	014a5H
	DW	014a5H
	DW	014a5H
	DW	014a5H
	DW	014a5H
	DW	014a5H
	DW	014a5H
	DW	014a5H
	DW	014a5H
	DW	014a5H
	DW	014a5H
	DW	014a5H
	DW	014a5H
	DW	014a5H
	DW	014a5H
	DW	014a5H
	DW	014a5H
	DW	014a5H
	DW	014a5H
	DW	014a5H
	DW	014a5H
	DW	014a5H
	DW	014a5H
	DW	014a5H
	DW	014a5H
	DW	014a5H
	DW	014a5H
	DW	01084H
	DW	0842H
	DW	0421H
	DW	00H
	DW	00H
	DW	00H
	DW	00H
	DW	00H
	DW	0c63H
	DW	018c6H
	DW	01ce7H
	DW	01ce7H
	DW	01ce7H
	DW	01ce7H
	DW	01ce7H
	DW	01ce7H
	DW	01ce7H
	DW	01ce7H
	DW	01ce7H
	DW	01ce7H
	DW	01ce6H
	DW	018e8H
	DW	0c73H
	DW	041fH
	DW	01fH
	DW	041fH
	DW	0439H
	DW	0429H
	DW	00H
	DW	00H
	DW	014a5H
	DW	0318cH
	DW	035adH
	DW	031adH
	DW	039ceH
	DW	04210H
	DW	04210H
	DW	01ce7H
	DW	00H
	DW	00H
	DW	00H
	DW	00H
	DW	00H
	DW	00H
	DW	00H
	DW	00H
	DW	00H
	DW	00H
	DW	00H
	DW	00H
	DW	00H
	DW	00H
	DW	00H
	DW	00H
	DW	00H
	DW	00H
	DW	00H
	DW	00H
	DW	00H
	DW	00H
	DW	00H
	DW	00H
	DW	00H
	DW	00H
	DW	00H
	DW	00H
	DW	00H
	DW	00H
	DW	00H
	DW	00H
	DW	00H
	DW	00H
	DW	00H
	DW	00H
	DW	00H
	DW	00H
	DW	00H
	DW	00H
	DW	00H
	DW	00H
	DW	00H
	DW	00H
	DW	00H
	DW	00H
	DW	00H
	DW	00H
	DW	00H
	DW	00H
	DW	00H
	DW	00H
	DW	00H
	DW	00H
	DW	00H
	DW	00H
	DW	00H
	DW	00H
	DW	00H
	DW	00H
	DW	00H
	DW	00H
	DW	00H
	DW	00H
	DW	00H
	DW	00H
	DW	00H
	DW	00H
	DW	00H
	DW	00H
	DW	00H
	DW	00H
	DW	00H
	DW	00H
	DW	00H
	DW	00H
	DW	00H
	DW	00H
	DW	00H
	DW	00H
	DW	0c63H
	DW	04e73H
	DW	056b5H
	DW	056b5H
	DW	056b5H
	DW	056b5H
	DW	056b5H
	DW	056b5H
	DW	05ad6H
	DW	056b5H
	DW	05ad6H
	DW	05ad6H
	DW	05ad6H
	DW	05ad6H
	DW	05ef7H
	DW	06318H
	DW	05ab5H
	DW	04210H
	DW	035adH
	DW	0318cH
	DW	035adH
	DW	02d6bH
	DW	0c63H
	DW	00H
	DW	01H
	DW	0830H
	DW	041eH
	DW	041fH
	DW	01fH
	DW	083aH
	DW	018acH
	DW	01ce6H
	DW	01ce6H
	DW	01ce7H
	DW	01ce7H
	DW	01ce7H
	DW	01ce7H
	DW	01ce7H
	DW	01ce7H
	DW	01ce7H
	DW	01ce7H
	DW	01ce7H
	DW	014a5H
	DW	0842H
	DW	00H
	DW	00H
	DW	00H
	DW	00H
	DW	00H
	DW	0842H
	DW	0c63H
	DW	01084H
	DW	014a5H
	DW	014a5H
	DW	014a5H
	DW	014a5H
	DW	014a5H
	DW	014a5H
	DW	014a5H
	DW	014a5H
	DW	014a5H
	DW	014a5H
	DW	014a5H
	DW	014a5H
	DW	014a5H
	DW	014a5H
	DW	014a5H
	DW	014a5H
	DW	014a5H
	DW	014a5H
	DW	014a5H
	DW	014a5H
	DW	014a5H
	DW	014a5H
	DW	014a5H
	DW	014a5H
	DW	014a5H
	DW	014a5H
	DW	014a5H
	DW	014a5H
	DW	014a5H
	DW	014a5H
	DW	014a5H
	DW	014a5H
	DW	014a5H
	DW	014a5H
	DW	014a5H
	DW	014a5H
	DW	014a5H
	DW	014a5H
	DW	014a5H
	DW	014a5H
	DW	014a5H
	DW	014a5H
	DW	014a5H
	DW	014a5H
	DW	014a5H
	DW	014a5H
	DW	014a5H
	DW	014a5H
	DW	014a5H
	DW	014a5H
	DW	014a5H
	DW	014a5H
	DW	014a5H
	DW	014a5H
	DW	014a5H
	DW	014a5H
	DW	014a5H
	DW	014a5H
	DW	0c63H
	DW	0842H
	DW	00H
	DW	00H
	DW	00H
	DW	00H
	DW	00H
	DW	0842H
	DW	014a5H
	DW	01ce7H
	DW	01ce7H
	DW	01ce7H
	DW	01ce7H
	DW	01ce7H
	DW	01ce7H
	DW	01ce7H
	DW	01ce7H
	DW	01ce7H
	DW	01ce7H
	DW	01ce6H
	DW	018ccH
	DW	0839H
	DW	01fH
	DW	01fH
	DW	041eH
	DW	0431H
	DW	01H
	DW	00H
	DW	0c63H
	DW	02d6bH
	DW	035adH
	DW	031adH
	DW	035adH
	DW	04210H
	DW	04631H
	DW	0294aH
	DW	00H
	DW	00H
	DW	00H
	DW	00H
	DW	00H
	DW	00H
	DW	00H
	DW	00H
	DW	00H
	DW	00H
	DW	00H
	DW	00H
	DW	00H
	DW	00H
	DW	00H
	DW	00H
	DW	00H
	DW	00H
	DW	00H
	DW	00H
	DW	00H
	DW	00H
	DW	00H
	DW	00H
	DW	00H
	DW	00H
	DW	00H
	DW	00H
	DW	00H
	DW	00H
	DW	00H
	DW	00H
	DW	00H
	DW	00H
	DW	00H
	DW	00H
	DW	00H
	DW	00H
	DW	00H
	DW	00H
	DW	00H
	DW	00H
	DW	00H
	DW	00H
	DW	00H
	DW	00H
	DW	00H
	DW	00H
	DW	00H
	DW	00H
	DW	00H
	DW	00H
	DW	00H
	DW	00H
	DW	00H
	DW	00H
	DW	00H
	DW	00H
	DW	00H
	DW	00H
	DW	00H
	DW	00H
	DW	00H
	DW	00H
	DW	00H
	DW	00H
	DW	00H
	DW	00H
	DW	00H
	DW	00H
	DW	00H
	DW	00H
	DW	00H
	DW	00H
	DW	00H
	DW	00H
	DW	00H
	DW	00H
	DW	0842H
	DW	04e73H
	DW	056b5H
	DW	056b5H
	DW	056b5H
	DW	056b5H
	DW	056b5H
	DW	056b5H
	DW	056b5H
	DW	056b5H
	DW	05ad6H
	DW	05ad6H
	DW	05ad6H
	DW	05ad6H
	DW	05ef7H
	DW	06318H
	DW	05294H
	DW	03defH
	DW	035adH
	DW	0358dH
	DW	035adH
	DW	02508H
	DW	0420H
	DW	00H
	DW	0426H
	DW	0837H
	DW	041fH
	DW	01fH
	DW	041eH
	DW	01093H
	DW	018e8H
	DW	01ce6H
	DW	01ce7H
	DW	01ce7H
	DW	01ce7H
	DW	01ce7H
	DW	01ce7H
	DW	01ce7H
	DW	01ce7H
	DW	01ce7H
	DW	01ce7H
	DW	014a5H
	DW	0842H
	DW	00H
	DW	00H
	DW	00H
	DW	00H
	DW	0421H
	DW	0c63H
	DW	01084H
	DW	014a5H
	DW	014a5H
	DW	014a5H
	DW	014a5H
	DW	014a5H
	DW	014a5H
	DW	014a5H
	DW	014a5H
	DW	014a5H
	DW	014a5H
	DW	014a5H
	DW	014a5H
	DW	014a5H
	DW	014a5H
	DW	014a5H
	DW	014a5H
	DW	014a5H
	DW	014a5H
	DW	014a5H
	DW	014a5H
	DW	014a5H
	DW	014a5H
	DW	014a5H
	DW	014a5H
	DW	014a5H
	DW	014a5H
	DW	014a5H
	DW	014a5H
	DW	014a5H
	DW	014a5H
	DW	014a5H
	DW	014a5H
	DW	014a5H
	DW	014a5H
	DW	014a5H
	DW	014a5H
	DW	014a5H
	DW	014a5H
	DW	014a5H
	DW	014a5H
	DW	014a5H
	DW	014a5H
	DW	014a5H
	DW	014a5H
	DW	014a5H
	DW	014a5H
	DW	014a5H
	DW	014a5H
	DW	014a5H
	DW	014a5H
	DW	014a5H
	DW	014a5H
	DW	014a5H
	DW	014a5H
	DW	014a5H
	DW	014a5H
	DW	014a5H
	DW	014a5H
	DW	014a5H
	DW	014a5H
	DW	014a5H
	DW	014a5H
	DW	014a5H
	DW	01084H
	DW	0c63H
	DW	0421H
	DW	00H
	DW	00H
	DW	00H
	DW	00H
	DW	0842H
	DW	014a5H
	DW	01ce7H
	DW	01ce7H
	DW	01ce7H
	DW	01ce7H
	DW	01ce7H
	DW	01ce7H
	DW	01ce7H
	DW	01ce7H
	DW	01ce7H
	DW	01ce6H
	DW	018e8H
	DW	01092H
	DW	041dH
	DW	01fH
	DW	041fH
	DW	0839H
	DW	0426H
	DW	00H
	DW	0420H
	DW	02108H
	DW	035adH
	DW	035adH
	DW	035adH
	DW	03defH
	DW	04631H
	DW	02d6bH
	DW	0421H
	DW	00H
	DW	00H
	DW	00H
	DW	00H
	DW	00H
	DW	00H
	DW	00H
	DW	00H
	DW	00H
	DW	00H
	DW	00H
	DW	00H
	DW	00H
	DW	00H
	DW	00H
	DW	00H
	DW	00H
	DW	00H
	DW	00H
	DW	00H
	DW	00H
	DW	00H
	DW	00H
	DW	00H
	DW	00H
	DW	00H
	DW	00H
	DW	00H
	DW	00H
	DW	00H
	DW	00H
	DW	00H
	DW	00H
	DW	00H
	DW	00H
	DW	00H
	DW	00H
	DW	00H
	DW	00H
	DW	00H
	DW	00H
	DW	00H
	DW	00H
	DW	00H
	DW	00H
	DW	00H
	DW	00H
	DW	00H
	DW	00H
	DW	00H
	DW	00H
	DW	00H
	DW	00H
	DW	00H
	DW	00H
	DW	00H
	DW	00H
	DW	00H
	DW	00H
	DW	00H
	DW	00H
	DW	00H
	DW	00H
	DW	00H
	DW	00H
	DW	00H
	DW	00H
	DW	00H
	DW	00H
	DW	00H
	DW	00H
	DW	00H
	DW	00H
	DW	00H
	DW	00H
	DW	0842H
	DW	04a52H
	DW	056b5H
	DW	056b5H
	DW	056b5H
	DW	056b5H
	DW	056b5H
	DW	056b5H
	DW	056b5H
	DW	056b5H
	DW	056b5H
	DW	056b5H
	DW	05ad6H
	DW	05ad6H
	DW	05ef7H
	DW	05ef7H
	DW	04e73H
	DW	039ceH
	DW	0318cH
	DW	035adH
	DW	035adH
	DW	01ce7H
	DW	00H
	DW	00H
	DW	042cH
	DW	081dH
	DW	01fH
	DW	01fH
	DW	0839H
	DW	014aeH
	DW	020e6H
	DW	01ce6H
	DW	01ce7H
	DW	01ce7H
	DW	01ce7H
	DW	01ce7H
	DW	01ce7H
	DW	01ce7H
	DW	01ce7H
	DW	01ce8H
	DW	014a5H
	DW	0842H
	DW	00H
	DW	00H
	DW	00H
	DW	00H
	DW	0421H
	DW	0c63H
	DW	014a5H
	DW	014a5H
	DW	014a5H
	DW	014a5H
	DW	014a5H
	DW	014a5H
	DW	014a5H
	DW	014a5H
	DW	014a5H
	DW	014a5H
	DW	014a5H
	DW	014a5H
	DW	014a5H
	DW	014a5H
	DW	014a5H
	DW	014a5H
	DW	014a5H
	DW	014a5H
	DW	014a5H
	DW	014a5H
	DW	014a5H
	DW	014a5H
	DW	014a5H
	DW	014a5H
	DW	014a5H
	DW	014a5H
	DW	014a5H
	DW	014a5H
	DW	014a5H
	DW	014a5H
	DW	014a5H
	DW	014a5H
	DW	014a5H
	DW	014a5H
	DW	014a5H
	DW	014a5H
	DW	014a5H
	DW	014a5H
	DW	014a5H
	DW	014a5H
	DW	014a5H
	DW	014a5H
	DW	014a5H
	DW	014a5H
	DW	014a5H
	DW	014a5H
	DW	014a5H
	DW	014a5H
	DW	014a5H
	DW	014a5H
	DW	014a5H
	DW	014a5H
	DW	014a5H
	DW	014a5H
	DW	014a5H
	DW	014a5H
	DW	014a5H
	DW	014a5H
	DW	014a5H
	DW	014a5H
	DW	014a5H
	DW	014a5H
	DW	014a5H
	DW	014a5H
	DW	014a5H
	DW	014a5H
	DW	014a5H
	DW	014a5H
	DW	01084H
	DW	0c63H
	DW	0421H
	DW	00H
	DW	00H
	DW	00H
	DW	00H
	DW	0842H
	DW	014a5H
	DW	01ce7H
	DW	01ce7H
	DW	01ce7H
	DW	01ce7H
	DW	01ce7H
	DW	01ce7H
	DW	01ce7H
	DW	01ce7H
	DW	01ce6H
	DW	020e6H
	DW	018caH
	DW	0858H
	DW	01fH
	DW	01fH
	DW	081eH
	DW	042eH
	DW	00H
	DW	00H
	DW	018c6H
	DW	035adH
	DW	035adH
	DW	035adH
	DW	039ceH
	DW	04210H
	DW	035adH
	DW	0842H
	DW	00H
	DW	00H
	DW	00H
	DW	00H
	DW	00H
	DW	00H
	DW	00H
	DW	00H
	DW	00H
	DW	00H
	DW	00H
	DW	00H
	DW	00H
	DW	00H
	DW	00H
	DW	00H
	DW	00H
	DW	00H
	DW	00H
	DW	00H
	DW	00H
	DW	00H
	DW	00H
	DW	00H
	DW	00H
	DW	00H
	DW	00H
	DW	00H
	DW	00H
	DW	00H
	DW	00H
	DW	00H
	DW	00H
	DW	00H
	DW	00H
	DW	00H
	DW	00H
	DW	00H
	DW	00H
	DW	00H
	DW	00H
	DW	00H
	DW	00H
	DW	00H
	DW	00H
	DW	00H
	DW	00H
	DW	00H
	DW	00H
	DW	00H
	DW	00H
	DW	00H
	DW	00H
	DW	00H
	DW	00H
	DW	00H
	DW	00H
	DW	00H
	DW	00H
	DW	00H
	DW	00H
	DW	00H
	DW	00H
	DW	00H
	DW	00H
	DW	00H
	DW	00H
	DW	00H
	DW	00H
	DW	00H
	DW	00H
	DW	00H
	DW	00H
	DW	0842H
	DW	04a52H
	DW	05294H
	DW	05294H
	DW	056b5H
	DW	056b5H
	DW	056b5H
	DW	056b5H
	DW	056b5H
	DW	056b5H
	DW	056b5H
	DW	056b5H
	DW	05ad6H
	DW	05ad6H
	DW	05ef7H
	DW	05ef7H
	DW	04a52H
	DW	039ceH
	DW	0318cH
	DW	035adH
	DW	02d6bH
	DW	01084H
	DW	00H
	DW	01H
	DW	0832H
	DW	041fH
	DW	041fH
	DW	01eH
	DW	01074H
	DW	01ce7H
	DW	020e6H
	DW	01ce7H
	DW	01ce7H
	DW	01ce7H
	DW	01ce7H
	DW	01ce7H
	DW	01ce7H
	DW	01ce7H
	DW	01ce8H
	DW	018c6H
	DW	0c63H
	DW	00H
	DW	00H
	DW	00H
	DW	00H
	DW	0421H
	DW	0c63H
	DW	014a5H
	DW	014a5H
	DW	014a5H
	DW	014a5H
	DW	014a5H
	DW	014a5H
	DW	014a5H
	DW	014a5H
	DW	014a5H
	DW	014a5H
	DW	014a5H
	DW	014a5H
	DW	014a5H
	DW	014a5H
	DW	014a5H
	DW	014a5H
	DW	014a5H
	DW	014a5H
	DW	014a5H
	DW	014a5H
	DW	014a5H
	DW	014a5H
	DW	014a5H
	DW	014a5H
	DW	014a5H
	DW	014a5H
	DW	014a5H
	DW	014a5H
	DW	014a5H
	DW	014a5H
	DW	014a5H
	DW	014a5H
	DW	014a5H
	DW	014a5H
	DW	014a5H
	DW	014a5H
	DW	014a5H
	DW	014a5H
	DW	014a5H
	DW	014a5H
	DW	014a5H
	DW	014a5H
	DW	014a5H
	DW	014a5H
	DW	014a5H
	DW	014a5H
	DW	014a5H
	DW	014a5H
	DW	014a5H
	DW	014a5H
	DW	014a5H
	DW	014a5H
	DW	014a5H
	DW	014a5H
	DW	014a5H
	DW	014a5H
	DW	014a5H
	DW	014a5H
	DW	014a5H
	DW	014a5H
	DW	014a5H
	DW	014a5H
	DW	014a5H
	DW	014a5H
	DW	014a5H
	DW	014a5H
	DW	014a5H
	DW	014a5H
	DW	014a5H
	DW	014a5H
	DW	014a5H
	DW	014a5H
	DW	014a5H
	DW	01084H
	DW	0421H
	DW	00H
	DW	00H
	DW	00H
	DW	00H
	DW	0842H
	DW	018c6H
	DW	01ce7H
	DW	01ce7H
	DW	01ce7H
	DW	01ce7H
	DW	01ce7H
	DW	01ce7H
	DW	01ce7H
	DW	01ce7H
	DW	020e6H
	DW	01ce7H
	DW	01074H
	DW	041eH
	DW	01fH
	DW	041fH
	DW	0434H
	DW	02H
	DW	00H
	DW	01084H
	DW	02d6bH
	DW	035adH
	DW	035adH
	DW	039ceH
	DW	04210H
	DW	039ceH
	DW	01084H
	DW	00H
	DW	00H
	DW	00H
	DW	00H
	DW	00H
	DW	00H
	DW	00H
	DW	00H
	DW	00H
	DW	00H
	DW	00H
	DW	00H
	DW	00H
	DW	00H
	DW	00H
	DW	00H
	DW	00H
	DW	00H
	DW	00H
	DW	00H
	DW	00H
	DW	00H
	DW	00H
	DW	00H
	DW	00H
	DW	00H
	DW	00H
	DW	00H
	DW	00H
	DW	00H
	DW	00H
	DW	00H
	DW	00H
	DW	00H
	DW	00H
	DW	00H
	DW	00H
	DW	00H
	DW	00H
	DW	00H
	DW	00H
	DW	00H
	DW	00H
	DW	00H
	DW	00H
	DW	00H
	DW	00H
	DW	00H
	DW	00H
	DW	00H
	DW	00H
	DW	00H
	DW	00H
	DW	00H
	DW	00H
	DW	00H
	DW	00H
	DW	00H
	DW	00H
	DW	00H
	DW	00H
	DW	00H
	DW	00H
	DW	00H
	DW	00H
	DW	00H
	DW	00H
	DW	00H
	DW	00H
	DW	00H
	DW	00H
	DW	0421H
	DW	04210H
	DW	05294H
	DW	05294H
	DW	056b5H
	DW	056b5H
	DW	056b5H
	DW	056b5H
	DW	056b5H
	DW	056b5H
	DW	056b5H
	DW	056b5H
	DW	056b5H
	DW	05ad6H
	DW	05ef7H
	DW	05ad6H
	DW	04631H
	DW	035adH
	DW	0318cH
	DW	035adH
	DW	02d6bH
	DW	0842H
	DW	00H
	DW	0405H
	DW	0837H
	DW	041fH
	DW	01fH
	DW	083cH
	DW	018adH
	DW	01d06H
	DW	01ce7H
	DW	01ce7H
	DW	018e7H
	DW	01ce7H
	DW	01ce7H
	DW	01ce7H
	DW	01ce7H
	DW	01ce7H
	DW	018e7H
	DW	01084H
	DW	020H
	DW	00H
	DW	00H
	DW	00H
	DW	0421H
	DW	0c63H
	DW	014a5H
	DW	014a5H
	DW	014a5H
	DW	014a5H
	DW	014a5H
	DW	014a5H
	DW	014a5H
	DW	014a5H
	DW	014a5H
	DW	014a5H
	DW	014a5H
	DW	014a5H
	DW	014a5H
	DW	014a5H
	DW	014a5H
	DW	014a5H
	DW	014a5H
	DW	014a5H
	DW	014a5H
	DW	014a5H
	DW	014a5H
	DW	014a5H
	DW	014a5H
	DW	014a5H
	DW	014a5H
	DW	018c6H
	DW	018c6H
	DW	018c6H
	DW	01ce7H
	DW	01ce7H
	DW	01ce7H
	DW	01ce7H
	DW	01ce7H
	DW	01ce7H
	DW	01ce7H
	DW	01ce7H
	DW	01ce7H
	DW	01ce7H
	DW	01ce7H
	DW	01ce7H
	DW	01ce7H
	DW	01ce7H
	DW	01ce7H
	DW	01ce7H
	DW	01ce7H
	DW	01ce7H
	DW	01ce7H
	DW	01ce7H
	DW	01ce7H
	DW	018c6H
	DW	018c6H
	DW	018c6H
	DW	014a5H
	DW	014a5H
	DW	014a5H
	DW	014a5H
	DW	014a5H
	DW	014a5H
	DW	014a5H
	DW	014a5H
	DW	014a5H
	DW	014a5H
	DW	014a5H
	DW	014a5H
	DW	014a5H
	DW	014a5H
	DW	014a5H
	DW	014a5H
	DW	014a5H
	DW	014a5H
	DW	014a5H
	DW	014a5H
	DW	014a5H
	DW	014a5H
	DW	014a5H
	DW	014a5H
	DW	014a5H
	DW	01084H
	DW	0422H
	DW	00H
	DW	00H
	DW	00H
	DW	00H
	DW	0c63H
	DW	018c6H
	DW	01ce7H
	DW	01ce7H
	DW	01ce7H
	DW	01ce7H
	DW	01ce7H
	DW	01ce7H
	DW	018e7H
	DW	01ce7H
	DW	01ce5H
	DW	014adH
	DW	043bH
	DW	01fH
	DW	041fH
	DW	0839H
	DW	0426H
	DW	00H
	DW	0842H
	DW	0294aH
	DW	035adH
	DW	035adH
	DW	039ceH
	DW	04210H
	DW	03defH
	DW	01084H
	DW	00H
	DW	00H
	DW	00H
	DW	00H
	DW	00H
	DW	00H
	DW	00H
	DW	00H
	DW	00H
	DW	00H
	DW	00H
	DW	00H
	DW	00H
	DW	00H
	DW	00H
	DW	00H
	DW	00H
	DW	00H
	DW	00H
	DW	00H
	DW	00H
	DW	00H
	DW	00H
	DW	00H
	DW	00H
	DW	00H
	DW	00H
	DW	00H
	DW	00H
	DW	00H
	DW	00H
	DW	00H
	DW	00H
	DW	00H
	DW	00H
	DW	00H
	DW	00H
	DW	00H
	DW	00H
	DW	00H
	DW	00H
	DW	00H
	DW	00H
	DW	00H
	DW	00H
	DW	00H
	DW	00H
	DW	00H
	DW	00H
	DW	00H
	DW	00H
	DW	00H
	DW	00H
	DW	00H
	DW	00H
	DW	00H
	DW	00H
	DW	00H
	DW	00H
	DW	00H
	DW	00H
	DW	00H
	DW	00H
	DW	00H
	DW	00H
	DW	00H
	DW	00H
	DW	00H
	DW	00H
	DW	00H
	DW	039ceH
	DW	05294H
	DW	05294H
	DW	05294H
	DW	05294H
	DW	056b5H
	DW	056b5H
	DW	056b5H
	DW	056b5H
	DW	056b5H
	DW	056b5H
	DW	056b5H
	DW	056b5H
	DW	05ef7H
	DW	05ad6H
	DW	04210H
	DW	035adH
	DW	0318cH
	DW	035adH
	DW	0294aH
	DW	0421H
	DW	00H
	DW	0429H
	DW	083cH
	DW	01fH
	DW	01fH
	DW	0c56H
	DW	018caH
	DW	01ce6H
	DW	01ce7H
	DW	01ce7H
	DW	01ce7H
	DW	01ce7H
	DW	01ce7H
	DW	01ce7H
	DW	01ce7H
	DW	01ce7H
	DW	014a5H
	DW	0421H
	DW	00H
	DW	00H
	DW	00H
	DW	0421H
	DW	0c63H
	DW	014a5H
	DW	014a5H
	DW	014a5H
	DW	014a5H
	DW	014a5H
	DW	014a5H
	DW	014a5H
	DW	014a5H
	DW	014a5H
	DW	014a5H
	DW	014a5H
	DW	014a5H
	DW	014a5H
	DW	014a5H
	DW	014a5H
	DW	014a5H
	DW	014a5H
	DW	014a5H
	DW	014a5H
	DW	014a5H
	DW	014a5H
	DW	014a5H
	DW	018c6H
	DW	018c6H
	DW	01ce7H
	DW	01ce7H
	DW	01ce7H
	DW	01ce7H
	DW	01ce7H
	DW	01ce7H
	DW	01ce7H
	DW	01ce7H
	DW	01ce7H
	DW	01ce7H
	DW	01ce7H
	DW	01ce7H
	DW	01ce7H
	DW	01ce7H
	DW	01ce7H
	DW	01ce7H
	DW	01ce7H
	DW	01ce7H
	DW	01ce7H
	DW	01ce7H
	DW	01ce7H
	DW	01ce7H
	DW	01ce7H
	DW	01ce7H
	DW	01ce7H
	DW	01ce7H
	DW	01ce7H
	DW	01ce7H
	DW	01ce7H
	DW	01ce7H
	DW	01ce7H
	DW	01ce7H
	DW	01ce7H
	DW	018c6H
	DW	018c6H
	DW	014a5H
	DW	014a5H
	DW	014a5H
	DW	014a5H
	DW	014a5H
	DW	014a5H
	DW	014a5H
	DW	014a5H
	DW	014a5H
	DW	014a5H
	DW	014a5H
	DW	014a5H
	DW	014a5H
	DW	014a5H
	DW	014a5H
	DW	014a5H
	DW	014a5H
	DW	014a5H
	DW	014a5H
	DW	014a5H
	DW	014a5H
	DW	014a5H
	DW	0c63H
	DW	0421H
	DW	00H
	DW	00H
	DW	00H
	DW	0421H
	DW	014a5H
	DW	01ce7H
	DW	01ce7H
	DW	01ce7H
	DW	01ce7H
	DW	01ce7H
	DW	01ce7H
	DW	01ce7H
	DW	01ce7H
	DW	01ce6H
	DW	01ce8H
	DW	0c76H
	DW	01fH
	DW	01fH
	DW	041dH
	DW	042aH
	DW	00H
	DW	0421H
	DW	0294aH
	DW	035adH
	DW	035adH
	DW	035adH
	DW	03defH
	DW	03defH
	DW	014a5H
	DW	00H
	DW	00H
	DW	00H
	DW	00H
	DW	00H
	DW	00H
	DW	00H
	DW	00H
	DW	00H
	DW	00H
	DW	00H
	DW	00H
	DW	00H
	DW	00H
	DW	00H
	DW	00H
	DW	00H
	DW	00H
	DW	00H
	DW	00H
	DW	00H
	DW	00H
	DW	00H
	DW	00H
	DW	00H
	DW	00H
	DW	00H
	DW	00H
	DW	00H
	DW	00H
	DW	00H
	DW	00H
	DW	00H
	DW	00H
	DW	00H
	DW	00H
	DW	00H
	DW	00H
	DW	00H
	DW	00H
	DW	00H
	DW	00H
	DW	00H
	DW	00H
	DW	00H
	DW	00H
	DW	00H
	DW	00H
	DW	00H
	DW	00H
	DW	00H
	DW	00H
	DW	00H
	DW	00H
	DW	00H
	DW	00H
	DW	00H
	DW	00H
	DW	00H
	DW	00H
	DW	00H
	DW	00H
	DW	00H
	DW	00H
	DW	00H
	DW	00H
	DW	00H
	DW	00H
	DW	02d6bH
	DW	056b5H
	DW	05294H
	DW	05294H
	DW	05294H
	DW	05294H
	DW	056b5H
	DW	056b5H
	DW	056b5H
	DW	056b5H
	DW	056b5H
	DW	056b5H
	DW	05ad6H
	DW	05ef7H
	DW	056b5H
	DW	04210H
	DW	035adH
	DW	035adH
	DW	035adH
	DW	02108H
	DW	00H
	DW	00H
	DW	082dH
	DW	041eH
	DW	01fH
	DW	01fH
	DW	01073H
	DW	01ce6H
	DW	01ce6H
	DW	01ce7H
	DW	01ce7H
	DW	01ce7H
	DW	01ce7H
	DW	01ce7H
	DW	01ce7H
	DW	020e8H
	DW	018c6H
	DW	0c63H
	DW	00H
	DW	00H
	DW	00H
	DW	00H
	DW	0c63H
	DW	01084H
	DW	014a5H
	DW	014a5H
	DW	014a5H
	DW	014a5H
	DW	014a5H
	DW	014a5H
	DW	014a5H
	DW	014a5H
	DW	014a5H
	DW	014a5H
	DW	014a5H
	DW	014a5H
	DW	014a5H
	DW	014a5H
	DW	014a5H
	DW	014a5H
	DW	014a5H
	DW	014a5H
	DW	014a5H
	DW	014a5H
	DW	018c6H
	DW	01cc7H
	DW	01ce7H
	DW	01ce7H
	DW	01ce7H
	DW	01ce7H
	DW	01ce7H
	DW	01ce7H
	DW	01ce7H
	DW	01ce7H
	DW	01ce7H
	DW	01ce7H
	DW	01ce7H
	DW	01ce7H
	DW	01ce7H
	DW	01ce7H
	DW	01ce7H
	DW	01ce7H
	DW	01ce7H
	DW	01ce7H
	DW	01ce7H
	DW	01ce7H
	DW	01ce7H
	DW	01ce7H
	DW	01ce7H
	DW	01ce7H
	DW	01ce7H
	DW	01ce7H
	DW	01ce7H
	DW	01ce7H
	DW	01ce7H
	DW	01ce7H
	DW	01ce7H
	DW	01ce7H
	DW	01ce7H
	DW	01ce7H
	DW	01ce7H
	DW	01ce7H
	DW	01ce7H
	DW	01ce7H
	DW	01ce7H
	DW	01ce7H
	DW	018c6H
	DW	014a5H
	DW	014a5H
	DW	014a5H
	DW	014a5H
	DW	014a5H
	DW	014a5H
	DW	014a5H
	DW	014a5H
	DW	014a5H
	DW	014a5H
	DW	014a5H
	DW	014a5H
	DW	014a5H
	DW	014a5H
	DW	014a5H
	DW	014a5H
	DW	014a5H
	DW	014a5H
	DW	014a5H
	DW	014a5H
	DW	014a5H
	DW	0c63H
	DW	0421H
	DW	00H
	DW	00H
	DW	00H
	DW	0842H
	DW	018c6H
	DW	01ce7H
	DW	01ce7H
	DW	01ce7H
	DW	01ce7H
	DW	01ce7H
	DW	01ce7H
	DW	01ce7H
	DW	01ce6H
	DW	01ce6H
	DW	01073H
	DW	01fH
	DW	01fH
	DW	041eH
	DW	082eH
	DW	00H
	DW	00H
	DW	02108H
	DW	035adH
	DW	035adH
	DW	035adH
	DW	03defH
	DW	03defH
	DW	014a5H
	DW	00H
	DW	00H
	DW	00H
	DW	00H
	DW	00H
	DW	00H
	DW	00H
	DW	00H
	DW	00H
	DW	00H
	DW	00H
	DW	00H
	DW	00H
	DW	00H
	DW	00H
	DW	00H
	DW	00H
	DW	00H
	DW	00H
	DW	00H
	DW	00H
	DW	00H
	DW	00H
	DW	00H
	DW	00H
	DW	00H
	DW	00H
	DW	00H
	DW	00H
	DW	00H
	DW	00H
	DW	00H
	DW	00H
	DW	00H
	DW	00H
	DW	00H
	DW	00H
	DW	00H
	DW	00H
	DW	00H
	DW	00H
	DW	00H
	DW	00H
	DW	00H
	DW	00H
	DW	00H
	DW	00H
	DW	00H
	DW	00H
	DW	00H
	DW	00H
	DW	00H
	DW	00H
	DW	00H
	DW	00H
	DW	00H
	DW	00H
	DW	00H
	DW	00H
	DW	00H
	DW	00H
	DW	00H
	DW	00H
	DW	00H
	DW	00H
	DW	00H
	DW	02529H
	DW	056b5H
	DW	05294H
	DW	05294H
	DW	05294H
	DW	05294H
	DW	05294H
	DW	05294H
	DW	056b5H
	DW	056b5H
	DW	056b5H
	DW	056b5H
	DW	056b5H
	DW	05ef7H
	DW	05ab5H
	DW	04210H
	DW	035adH
	DW	035adH
	DW	035adH
	DW	01ce7H
	DW	00H
	DW	00H
	DW	0830H
	DW	041fH
	DW	01fH
	DW	041eH
	DW	01091H
	DW	01ce6H
	DW	01ce7H
	DW	01ce7H
	DW	01ce7H
	DW	01ce7H
	DW	01ce7H
	DW	01ce7H
	DW	01ce7H
	DW	01ce7H
	DW	014a5H
	DW	0421H
	DW	00H
	DW	00H
	DW	00H
	DW	0842H
	DW	01084H
	DW	014a5H
	DW	014a5H
	DW	014a5H
	DW	014a5H
	DW	014a5H
	DW	014a5H
	DW	014a5H
	DW	014a5H
	DW	014a5H
	DW	014a5H
	DW	014a5H
	DW	014a5H
	DW	014a5H
	DW	014a5H
	DW	014a5H
	DW	014a5H
	DW	014a5H
	DW	014a5H
	DW	014a5H
	DW	018c6H
	DW	01cc7H
	DW	01ce7H
	DW	01ce7H
	DW	01ce7H
	DW	01ce7H
	DW	01ce7H
	DW	01ce7H
	DW	01ce7H
	DW	01ce7H
	DW	01ce7H
	DW	01ce7H
	DW	01ce7H
	DW	01ce7H
	DW	01ce7H
	DW	01ce7H
	DW	01ce7H
	DW	01ce7H
	DW	01ce7H
	DW	01ce7H
	DW	01ce7H
	DW	01ce7H
	DW	01ce7H
	DW	01ce7H
	DW	01ce7H
	DW	01ce7H
	DW	01ce7H
	DW	01ce7H
	DW	01ce7H
	DW	01ce7H
	DW	01ce7H
	DW	01ce7H
	DW	01ce7H
	DW	01ce7H
	DW	01ce7H
	DW	01ce7H
	DW	01ce7H
	DW	01ce7H
	DW	01ce7H
	DW	01ce7H
	DW	01ce7H
	DW	01ce7H
	DW	01ce7H
	DW	01ce7H
	DW	01ce7H
	DW	01ce7H
	DW	01ce7H
	DW	01ce7H
	DW	018c6H
	DW	018c6H
	DW	014a5H
	DW	014a5H
	DW	014a5H
	DW	014a5H
	DW	014a5H
	DW	014a5H
	DW	014a5H
	DW	014a5H
	DW	014a5H
	DW	014a5H
	DW	014a5H
	DW	014a5H
	DW	014a5H
	DW	014a5H
	DW	014a5H
	DW	014a5H
	DW	014a5H
	DW	014a5H
	DW	01084H
	DW	0842H
	DW	00H
	DW	00H
	DW	00H
	DW	00H
	DW	01084H
	DW	01ce7H
	DW	01ce7H
	DW	01ce7H
	DW	01ce7H
	DW	01ce7H
	DW	01ce7H
	DW	01ce7H
	DW	01ce6H
	DW	01ce7H
	DW	014aeH
	DW	083cH
	DW	01fH
	DW	041fH
	DW	0832H
	DW	00H
	DW	00H
	DW	018c6H
	DW	031adH
	DW	035adH
	DW	035adH
	DW	03defH
	DW	03defH
	DW	014a5H
	DW	00H
	DW	00H
	DW	00H
	DW	00H
	DW	00H
	DW	00H
	DW	00H
	DW	00H
	DW	00H
	DW	00H
	DW	00H
	DW	00H
	DW	00H
	DW	00H
	DW	00H
	DW	00H
	DW	00H
	DW	00H
	DW	00H
	DW	00H
	DW	00H
	DW	00H
	DW	00H
	DW	00H
	DW	00H
	DW	00H
	DW	00H
	DW	00H
	DW	00H
	DW	00H
	DW	00H
	DW	00H
	DW	00H
	DW	00H
	DW	00H
	DW	00H
	DW	00H
	DW	00H
	DW	00H
	DW	00H
	DW	00H
	DW	00H
	DW	00H
	DW	00H
	DW	00H
	DW	00H
	DW	00H
	DW	00H
	DW	00H
	DW	00H
	DW	00H
	DW	00H
	DW	00H
	DW	00H
	DW	00H
	DW	00H
	DW	00H
	DW	00H
	DW	00H
	DW	00H
	DW	00H
	DW	00H
	DW	00H
	DW	00H
	DW	014a5H
	DW	05294H
	DW	05294H
	DW	05294H
	DW	05294H
	DW	05294H
	DW	05294H
	DW	05294H
	DW	056b5H
	DW	056b5H
	DW	056b5H
	DW	056b5H
	DW	056b5H
	DW	05ef7H
	DW	056b5H
	DW	04210H
	DW	035adH
	DW	035adH
	DW	031adH
	DW	018c6H
	DW	00H
	DW	01H
	DW	0433H
	DW	01fH
	DW	01fH
	DW	083bH
	DW	018acH
	DW	01ce6H
	DW	01ce7H
	DW	01ce7H
	DW	01ce7H
	DW	01ce7H
	DW	01ce7H
	DW	01ce7H
	DW	01ce7H
	DW	01ce7H
	DW	0c63H
	DW	00H
	DW	00H
	DW	00H
	DW	0421H
	DW	0c63H
	DW	014a5H
	DW	014a5H
	DW	014a5H
	DW	014a5H
	DW	014a5H
	DW	014a5H
	DW	014a5H
	DW	014a5H
	DW	014a5H
	DW	014a5H
	DW	014a5H
	DW	014a5H
	DW	014a5H
	DW	014a5H
	DW	014a5H
	DW	014a5H
	DW	014a5H
	DW	014a5H
	DW	018c6H
	DW	01ce7H
	DW	01ce7H
	DW	01ce7H
	DW	01ce7H
	DW	01ce7H
	DW	01ce7H
	DW	01ce7H
	DW	01ce7H
	DW	01ce7H
	DW	01ce7H
	DW	01ce7H
	DW	01ce7H
	DW	01ce7H
	DW	01ce7H
	DW	01ce7H
	DW	01ce7H
	DW	01ce7H
	DW	01ce7H
	DW	01ce7H
	DW	01ce7H
	DW	01ce7H
	DW	01ce7H
	DW	01ce7H
	DW	01ce7H
	DW	01ce7H
	DW	01ce7H
	DW	01ce7H
	DW	01ce7H
	DW	01ce7H
	DW	01ce7H
	DW	01ce7H
	DW	01ce7H
	DW	01ce7H
	DW	01ce7H
	DW	01ce7H
	DW	01ce7H
	DW	01ce7H
	DW	01ce7H
	DW	01ce7H
	DW	01ce7H
	DW	01ce7H
	DW	01ce7H
	DW	01ce7H
	DW	01ce7H
	DW	01ce7H
	DW	01ce7H
	DW	01ce7H
	DW	01ce7H
	DW	01ce7H
	DW	01ce7H
	DW	01ce7H
	DW	01ce7H
	DW	01ce7H
	DW	018c6H
	DW	018c6H
	DW	014a5H
	DW	014a5H
	DW	01084H
	DW	014a5H
	DW	014a5H
	DW	014a5H
	DW	014a5H
	DW	014a5H
	DW	014a5H
	DW	014a5H
	DW	014a5H
	DW	014a5H
	DW	014a5H
	DW	014a5H
	DW	014a5H
	DW	014a5H
	DW	014a5H
	DW	01084H
	DW	0421H
	DW	00H
	DW	00H
	DW	00H
	DW	0842H
	DW	018c6H
	DW	01ce7H
	DW	01ce7H
	DW	01ce7H
	DW	01ce7H
	DW	01ce7H
	DW	01ce7H
	DW	01ce7H
	DW	020e6H
	DW	018caH
	DW	083bH
	DW	01fH
	DW	041fH
	DW	0434H
	DW	02H
	DW	00H
	DW	018c6H
	DW	035adH
	DW	035adH
	DW	035adH
	DW	03defH
	DW	03defH
	DW	014a5H
	DW	00H
	DW	00H
	DW	00H
	DW	00H
	DW	00H
	DW	00H
	DW	00H
	DW	00H
	DW	00H
	DW	00H
	DW	00H
	DW	00H
	DW	00H
	DW	00H
	DW	00H
	DW	00H
	DW	00H
	DW	00H
	DW	00H
	DW	00H
	DW	00H
	DW	00H
	DW	00H
	DW	00H
	DW	00H
	DW	00H
	DW	00H
	DW	00H
	DW	00H
	DW	00H
	DW	00H
	DW	00H
	DW	00H
	DW	00H
	DW	00H
	DW	00H
	DW	00H
	DW	00H
	DW	00H
	DW	00H
	DW	00H
	DW	00H
	DW	00H
	DW	00H
	DW	00H
	DW	00H
	DW	00H
	DW	00H
	DW	00H
	DW	00H
	DW	00H
	DW	00H
	DW	00H
	DW	00H
	DW	00H
	DW	00H
	DW	00H
	DW	00H
	DW	00H
	DW	00H
	DW	00H
	DW	00H
	DW	0c63H
	DW	04a52H
	DW	05294H
	DW	05294H
	DW	05294H
	DW	05294H
	DW	05294H
	DW	05294H
	DW	05294H
	DW	05294H
	DW	056b5H
	DW	056b5H
	DW	056b5H
	DW	05ef7H
	DW	056b5H
	DW	04210H
	DW	035adH
	DW	035adH
	DW	035adH
	DW	018c6H
	DW	00H
	DW	02H
	DW	0435H
	DW	041fH
	DW	01fH
	DW	083aH
	DW	01ccaH
	DW	01ce6H
	DW	01ce7H
	DW	01ce7H
	DW	01ce7H
	DW	01ce7H
	DW	01ce7H
	DW	01ce7H
	DW	01ce7H
	DW	014a5H
	DW	0421H
	DW	00H
	DW	00H
	DW	00H
	DW	0842H
	DW	01084H
	DW	014a5H
	DW	014a5H
	DW	014a5H
	DW	014a5H
	DW	014a5H
	DW	014a5H
	DW	014a5H
	DW	014a5H
	DW	014a5H
	DW	014a5H
	DW	014a5H
	DW	014a5H
	DW	014a5H
	DW	01084H
	DW	014a5H
	DW	014a5H
	DW	018c6H
	DW	01ce7H
	DW	01ce7H
	DW	01ce7H
	DW	01ce7H
	DW	01ce7H
	DW	01ce7H
	DW	01ce7H
	DW	01ce7H
	DW	01ce7H
	DW	01ce7H
	DW	01ce7H
	DW	01ce7H
	DW	01ce7H
	DW	01ce7H
	DW	01ce7H
	DW	01ce7H
	DW	01ce7H
	DW	01ce7H
	DW	01ce7H
	DW	01ce7H
	DW	01ce7H
	DW	01ce7H
	DW	01ce7H
	DW	01ce7H
	DW	01ce7H
	DW	01ce7H
	DW	01ce7H
	DW	01ce7H
	DW	01ce7H
	DW	01ce7H
	DW	01ce7H
	DW	01ce7H
	DW	01ce7H
	DW	01ce7H
	DW	01ce7H
	DW	01ce7H
	DW	01ce7H
	DW	01ce7H
	DW	01ce7H
	DW	01ce7H
	DW	01ce7H
	DW	01ce7H
	DW	01ce7H
	DW	01ce7H
	DW	01ce7H
	DW	01ce7H
	DW	01ce7H
	DW	01ce7H
	DW	01ce7H
	DW	01ce7H
	DW	01ce7H
	DW	01ce7H
	DW	01ce7H
	DW	01ce7H
	DW	01ce7H
	DW	01ce7H
	DW	01ce7H
	DW	01ce7H
	DW	01ce7H
	DW	018c6H
	DW	014a5H
	DW	014a5H
	DW	014a5H
	DW	014a5H
	DW	014a5H
	DW	014a5H
	DW	014a5H
	DW	014a5H
	DW	014a5H
	DW	014a5H
	DW	014a5H
	DW	014a5H
	DW	014a5H
	DW	014a5H
	DW	014a5H
	DW	014a5H
	DW	014a5H
	DW	0842H
	DW	00H
	DW	00H
	DW	00H
	DW	0421H
	DW	014a5H
	DW	01ce7H
	DW	01ce7H
	DW	01ce7H
	DW	01ce7H
	DW	01ce7H
	DW	01ce7H
	DW	01ce7H
	DW	01ce6H
	DW	01cc9H
	DW	0839H
	DW	01fH
	DW	041fH
	DW	0837H
	DW	02H
	DW	00H
	DW	014a5H
	DW	0358dH
	DW	035adH
	DW	035adH
	DW	03defH
	DW	039ceH
	DW	01084H
	DW	00H
	DW	00H
	DW	00H
	DW	00H
	DW	00H
	DW	00H
	DW	00H
	DW	00H
	DW	00H
	DW	00H
	DW	00H
	DW	00H
	DW	00H
	DW	00H
	DW	00H
	DW	00H
	DW	00H
	DW	00H
	DW	00H
	DW	00H
	DW	00H
	DW	00H
	DW	00H
	DW	00H
	DW	00H
	DW	00H
	DW	00H
	DW	00H
	DW	00H
	DW	00H
	DW	00H
	DW	00H
	DW	00H
	DW	00H
	DW	00H
	DW	00H
	DW	00H
	DW	00H
	DW	00H
	DW	00H
	DW	00H
	DW	00H
	DW	00H
	DW	00H
	DW	00H
	DW	00H
	DW	00H
	DW	00H
	DW	00H
	DW	00H
	DW	00H
	DW	00H
	DW	00H
	DW	00H
	DW	00H
	DW	00H
	DW	00H
	DW	00H
	DW	00H
	DW	00H
	DW	0421H
	DW	04210H
	DW	04e73H
	DW	05294H
	DW	04e73H
	DW	05294H
	DW	05294H
	DW	05294H
	DW	05294H
	DW	05294H
	DW	056b5H
	DW	05294H
	DW	056b5H
	DW	05ef7H
	DW	05ad6H
	DW	04210H
	DW	035adH
	DW	031adH
	DW	035adH
	DW	014a5H
	DW	00H
	DW	02H
	DW	0836H
	DW	041fH
	DW	01fH
	DW	0839H
	DW	01ce9H
	DW	01ce6H
	DW	01ce7H
	DW	01ce7H
	DW	01ce7H
	DW	01ce7H
	DW	01ce7H
	DW	01ce7H
	DW	01ce7H
	DW	01084H
	DW	00H
	DW	00H
	DW	00H
	DW	00H
	DW	0c63H
	DW	014a5H
	DW	014a5H
	DW	014a5H
	DW	014a5H
	DW	014a5H
	DW	014a5H
	DW	014a5H
	DW	014a5H
	DW	014a5H
	DW	014a5H
	DW	014a5H
	DW	014a5H
	DW	014a5H
	DW	014a5H
	DW	014a5H
	DW	014a5H
	DW	018c6H
	DW	01ce7H
	DW	01ce7H
	DW	01ce7H
	DW	01ce7H
	DW	01ce7H
	DW	01ce7H
	DW	01ce7H
	DW	01ce7H
	DW	01ce7H
	DW	01ce7H
	DW	01ce7H
	DW	01ce7H
	DW	01ce7H
	DW	01ce7H
	DW	01ce7H
	DW	01ce7H
	DW	01ce7H
	DW	01ce7H
	DW	01ce7H
	DW	01ce7H
	DW	01ce7H
	DW	01ce7H
	DW	01ce7H
	DW	01ce7H
	DW	01ce7H
	DW	01ce7H
	DW	01ce7H
	DW	01ce7H
	DW	01ce7H
	DW	01ce7H
	DW	01ce7H
	DW	01ce7H
	DW	01ce7H
	DW	01ce7H
	DW	01ce7H
	DW	01ce7H
	DW	01ce7H
	DW	01ce7H
	DW	01ce7H
	DW	01ce7H
	DW	01ce7H
	DW	01ce7H
	DW	01ce7H
	DW	01ce7H
	DW	01ce7H
	DW	01ce7H
	DW	01ce7H
	DW	01ce7H
	DW	01ce7H
	DW	01ce7H
	DW	01ce7H
	DW	01ce7H
	DW	01ce7H
	DW	01ce7H
	DW	01ce7H
	DW	01ce7H
	DW	01ce7H
	DW	01ce7H
	DW	01ce7H
	DW	01ce7H
	DW	01ce7H
	DW	01ce7H
	DW	01ce7H
	DW	018c6H
	DW	014a5H
	DW	014a5H
	DW	014a5H
	DW	014a5H
	DW	014a5H
	DW	014a5H
	DW	014a5H
	DW	014a5H
	DW	014a5H
	DW	014a5H
	DW	014a5H
	DW	014a5H
	DW	014a5H
	DW	014a5H
	DW	014a5H
	DW	014a5H
	DW	01084H
	DW	0421H
	DW	00H
	DW	00H
	DW	00H
	DW	01084H
	DW	01ce7H
	DW	01ce7H
	DW	01ce7H
	DW	01ce7H
	DW	01ce7H
	DW	01ce7H
	DW	01ce7H
	DW	01ce6H
	DW	01ce9H
	DW	0839H
	DW	01fH
	DW	041fH
	DW	0837H
	DW	0423H
	DW	00H
	DW	014a5H
	DW	035adH
	DW	035adH
	DW	035adH
	DW	03defH
	DW	039ceH
	DW	01084H
	DW	00H
	DW	00H
	DW	00H
	DW	00H
	DW	00H
	DW	00H
	DW	00H
	DW	00H
	DW	00H
	DW	00H
	DW	00H
	DW	00H
	DW	00H
	DW	00H
	DW	00H
	DW	00H
	DW	00H
	DW	00H
	DW	00H
	DW	00H
	DW	00H
	DW	00H
	DW	00H
	DW	00H
	DW	00H
	DW	00H
	DW	00H
	DW	00H
	DW	00H
	DW	00H
	DW	00H
	DW	00H
	DW	00H
	DW	00H
	DW	00H
	DW	00H
	DW	00H
	DW	00H
	DW	00H
	DW	00H
	DW	00H
	DW	00H
	DW	00H
	DW	00H
	DW	00H
	DW	00H
	DW	00H
	DW	00H
	DW	00H
	DW	00H
	DW	00H
	DW	00H
	DW	00H
	DW	00H
	DW	00H
	DW	00H
	DW	00H
	DW	00H
	DW	00H
	DW	0318cH
	DW	04e73H
	DW	05294H
	DW	04e73H
	DW	05294H
	DW	04e73H
	DW	05294H
	DW	05294H
	DW	05294H
	DW	05294H
	DW	05294H
	DW	056b5H
	DW	05ad6H
	DW	05ad6H
	DW	04210H
	DW	035adH
	DW	035adH
	DW	035adH
	DW	018c6H
	DW	00H
	DW	02H
	DW	0837H
	DW	01fH
	DW	041fH
	DW	0c57H
	DW	018c8H
	DW	01ce6H
	DW	01ce7H
	DW	01ce7H
	DW	01ce7H
	DW	01ce7H
	DW	01ce7H
	DW	01ce7H
	DW	01ce7H
	DW	0c63H
	DW	00H
	DW	00H
	DW	00H
	DW	0421H
	DW	01084H
	DW	014a5H
	DW	014a5H
	DW	014a5H
	DW	014a5H
	DW	014a5H
	DW	014a5H
	DW	014a5H
	DW	014a5H
	DW	014a5H
	DW	014a5H
	DW	014a5H
	DW	014a5H
	DW	014a5H
	DW	014a5H
	DW	014a5H
	DW	018c6H
	DW	01ce7H
	DW	01ce7H
	DW	01ce7H
	DW	01ce7H
	DW	01ce7H
	DW	01ce7H
	DW	01ce7H
	DW	01ce7H
	DW	01ce7H
	DW	01ce7H
	DW	01ce7H
	DW	01ce7H
	DW	01ce7H
	DW	01ce7H
	DW	01ce7H
	DW	01ce7H
	DW	01ce7H
	DW	01ce7H
	DW	01ce7H
	DW	01ce7H
	DW	01ce7H
	DW	01ce7H
	DW	01ce7H
	DW	01ce7H
	DW	01ce7H
	DW	01ce7H
	DW	01ce7H
	DW	01ce7H
	DW	01ce7H
	DW	01ce7H
	DW	01ce7H
	DW	01ce7H
	DW	01ce7H
	DW	01ce7H
	DW	01ce7H
	DW	01ce7H
	DW	01ce7H
	DW	01ce7H
	DW	01ce7H
	DW	01ce7H
	DW	01ce7H
	DW	01ce7H
	DW	01ce7H
	DW	01ce7H
	DW	01ce7H
	DW	01ce7H
	DW	01ce7H
	DW	01ce7H
	DW	01ce7H
	DW	01ce7H
	DW	01ce7H
	DW	01ce7H
	DW	01ce7H
	DW	01ce7H
	DW	01ce7H
	DW	01ce7H
	DW	01ce7H
	DW	01ce7H
	DW	01ce7H
	DW	01ce7H
	DW	01ce7H
	DW	01ce7H
	DW	01ce7H
	DW	01ce7H
	DW	01ce7H
	DW	01ce7H
	DW	01ce7H
	DW	018c6H
	DW	014a5H
	DW	014a5H
	DW	014a5H
	DW	014a5H
	DW	014a5H
	DW	014a5H
	DW	014a5H
	DW	014a5H
	DW	014a5H
	DW	014a5H
	DW	014a5H
	DW	014a5H
	DW	014a5H
	DW	014a5H
	DW	014a5H
	DW	01084H
	DW	0842H
	DW	00H
	DW	00H
	DW	00H
	DW	0842H
	DW	018c7H
	DW	01ce7H
	DW	01ce7H
	DW	01ce7H
	DW	01ce7H
	DW	01ce7H
	DW	01ce7H
	DW	01ce6H
	DW	01cc9H
	DW	0c56H
	DW	01fH
	DW	01fH
	DW	0838H
	DW	0423H
	DW	00H
	DW	014a5H
	DW	035adH
	DW	035adH
	DW	035adH
	DW	03defH
	DW	039ceH
	DW	0c63H
	DW	00H
	DW	00H
	DW	00H
	DW	00H
	DW	00H
	DW	00H
	DW	00H
	DW	00H
	DW	00H
	DW	00H
	DW	00H
	DW	00H
	DW	0421H
	DW	00H
	DW	00H
	DW	00H
	DW	00H
	DW	00H
	DW	00H
	DW	00H
	DW	00H
	DW	00H
	DW	00H
	DW	00H
	DW	00H
	DW	00H
	DW	00H
	DW	00H
	DW	00H
	DW	00H
	DW	00H
	DW	00H
	DW	00H
	DW	00H
	DW	00H
	DW	00H
	DW	00H
	DW	00H
	DW	00H
	DW	00H
	DW	00H
	DW	00H
	DW	00H
	DW	00H
	DW	00H
	DW	00H
	DW	00H
	DW	00H
	DW	00H
	DW	00H
	DW	00H
	DW	00H
	DW	00H
	DW	00H
	DW	00H
	DW	00H
	DW	00H
	DW	02108H
	DW	04e73H
	DW	04e73H
	DW	04e73H
	DW	04e73H
	DW	05294H
	DW	05294H
	DW	05294H
	DW	05294H
	DW	05294H
	DW	05294H
	DW	05294H
	DW	05ad6H
	DW	05ad6H
	DW	04631H
	DW	035adH
	DW	035adH
	DW	035adH
	DW	018c6H
	DW	00H
	DW	02H
	DW	0437H
	DW	041fH
	DW	041fH
	DW	0c55H
	DW	01ce8H
	DW	01ce6H
	DW	01ce7H
	DW	01ce7H
	DW	01ce7H
	DW	01ce7H
	DW	01ce7H
	DW	01ce7H
	DW	018c6H
	DW	0842H
	DW	00H
	DW	00H
	DW	00H
	DW	0c63H
	DW	014a5H
	DW	014a5H
	DW	014a5H
	DW	014a5H
	DW	014a5H
	DW	014a5H
	DW	014a5H
	DW	014a5H
	DW	014a5H
	DW	014a5H
	DW	014a5H
	DW	014a5H
	DW	014a5H
	DW	014a5H
	DW	014a5H
	DW	018c6H
	DW	01ce7H
	DW	01ce7H
	DW	01ce7H
	DW	01ce7H
	DW	01ce7H
	DW	01ce7H
	DW	01ce7H
	DW	01ce7H
	DW	01ce7H
	DW	01ce7H
	DW	01ce7H
	DW	01ce7H
	DW	01ce7H
	DW	01ce7H
	DW	01ce7H
	DW	01ce7H
	DW	01ce7H
	DW	01ce7H
	DW	01ce7H
	DW	01ce7H
	DW	01ce7H
	DW	01ce7H
	DW	01ce7H
	DW	01ce7H
	DW	01ce7H
	DW	01ce7H
	DW	01ce7H
	DW	01ce7H
	DW	01ce7H
	DW	01ce7H
	DW	01ce7H
	DW	01ce7H
	DW	01ce7H
	DW	01ce7H
	DW	01ce7H
	DW	01ce7H
	DW	01ce7H
	DW	01ce7H
	DW	01ce7H
	DW	01ce7H
	DW	01ce7H
	DW	01ce7H
	DW	01ce7H
	DW	01ce7H
	DW	01ce7H
	DW	01ce7H
	DW	01ce7H
	DW	01ce7H
	DW	01ce7H
	DW	01ce7H
	DW	01ce7H
	DW	01ce7H
	DW	01ce7H
	DW	01ce7H
	DW	01ce7H
	DW	01ce7H
	DW	01ce7H
	DW	01ce7H
	DW	01ce7H
	DW	01ce7H
	DW	01ce7H
	DW	01ce7H
	DW	01ce7H
	DW	01ce7H
	DW	01ce7H
	DW	01ce7H
	DW	01ce7H
	DW	01ce7H
	DW	01ce7H
	DW	01ce7H
	DW	01ce7H
	DW	018c6H
	DW	014a5H
	DW	014a5H
	DW	014a5H
	DW	014a5H
	DW	014a5H
	DW	014a5H
	DW	014a5H
	DW	014a5H
	DW	014a5H
	DW	014a5H
	DW	014a5H
	DW	014a5H
	DW	014a5H
	DW	014a5H
	DW	014a5H
	DW	0c63H
	DW	00H
	DW	00H
	DW	00H
	DW	0421H
	DW	018c6H
	DW	01ce7H
	DW	01ce7H
	DW	01ce7H
	DW	01ce7H
	DW	01ce7H
	DW	01ce7H
	DW	01ce6H
	DW	01ce7H
	DW	0c74H
	DW	041fH
	DW	01fH
	DW	0838H
	DW	0423H
	DW	00H
	DW	014a6H
	DW	035adH
	DW	035adH
	DW	035adH
	DW	03defH
	DW	0318cH
	DW	0842H
	DW	00H
	DW	00H
	DW	00H
	DW	00H
	DW	00H
	DW	00H
	DW	00H
	DW	00H
	DW	00H
	DW	00H
	DW	00H
	DW	00H
	DW	00H
	DW	00H
	DW	00H
	DW	00H
	DW	00H
	DW	00H
	DW	00H
	DW	00H
	DW	00H
	DW	00H
	DW	00H
	DW	00H
	DW	00H
	DW	00H
	DW	00H
	DW	00H
	DW	00H
	DW	00H
	DW	00H
	DW	00H
	DW	00H
	DW	00H
	DW	00H
	DW	00H
	DW	00H
	DW	00H
	DW	00H
	DW	00H
	DW	00H
	DW	00H
	DW	00H
	DW	00H
	DW	00H
	DW	00H
	DW	00H
	DW	00H
	DW	00H
	DW	00H
	DW	00H
	DW	00H
	DW	00H
	DW	00H
	DW	00H
	DW	01084H
	DW	04a52H
	DW	04e73H
	DW	04e73H
	DW	04e73H
	DW	04e73H
	DW	04e73H
	DW	05294H
	DW	05294H
	DW	05294H
	DW	05294H
	DW	05294H
	DW	05ad6H
	DW	05ad6H
	DW	04a52H
	DW	035adH
	DW	0318cH
	DW	035adH
	DW	01ce7H
	DW	00H
	DW	01H
	DW	0836H
	DW	041fH
	DW	01fH
	DW	0c57H
	DW	01ce7H
	DW	01ce6H
	DW	01ce7H
	DW	01ce7H
	DW	01ce7H
	DW	01ce7H
	DW	01ce7H
	DW	01ce7H
	DW	018c6H
	DW	0421H
	DW	00H
	DW	00H
	DW	00H
	DW	0c63H
	DW	014a5H
	DW	014a5H
	DW	014a5H
	DW	014a5H
	DW	014a5H
	DW	014a5H
	DW	014a5H
	DW	014a5H
	DW	014a5H
	DW	014a5H
	DW	014a5H
	DW	014a5H
	DW	01084H
	DW	014a5H
	DW	018c6H
	DW	01ce7H
	DW	01ce7H
	DW	01ce7H
	DW	01ce7H
	DW	01ce7H
	DW	01ce7H
	DW	01ce7H
	DW	01ce7H
	DW	01ce7H
	DW	01ce7H
	DW	01ce7H
	DW	01ce7H
	DW	01ce7H
	DW	01ce7H
	DW	01ce7H
	DW	01ce7H
	DW	01ce7H
	DW	01ce7H
	DW	01ce7H
	DW	01ce7H
	DW	01ce7H
	DW	01ce7H
	DW	01ce7H
	DW	01ce7H
	DW	01ce7H
	DW	01ce7H
	DW	01ce7H
	DW	01ce7H
	DW	01ce7H
	DW	01ce7H
	DW	01ce7H
	DW	01ce7H
	DW	01ce7H
	DW	01ce7H
	DW	01ce7H
	DW	01ce7H
	DW	01ce7H
	DW	01ce7H
	DW	01ce7H
	DW	01ce7H
	DW	01ce7H
	DW	01ce7H
	DW	01ce7H
	DW	01ce7H
	DW	01ce7H
	DW	01ce7H
	DW	01ce7H
	DW	01ce7H
	DW	01ce7H
	DW	01ce7H
	DW	01ce7H
	DW	01ce7H
	DW	01ce7H
	DW	01ce7H
	DW	01ce7H
	DW	01ce7H
	DW	01ce7H
	DW	01ce7H
	DW	01ce7H
	DW	01ce7H
	DW	01ce7H
	DW	01ce7H
	DW	01ce7H
	DW	01ce7H
	DW	01ce7H
	DW	01ce7H
	DW	01ce7H
	DW	01ce7H
	DW	01ce7H
	DW	01ce7H
	DW	01ce7H
	DW	01ce7H
	DW	01ce7H
	DW	01ce7H
	DW	01ce7H
	DW	018c6H
	DW	014a5H
	DW	014a5H
	DW	014a5H
	DW	014a5H
	DW	014a5H
	DW	014a5H
	DW	014a5H
	DW	014a5H
	DW	014a5H
	DW	014a5H
	DW	014a5H
	DW	014a5H
	DW	014a5H
	DW	014a5H
	DW	01084H
	DW	0421H
	DW	00H
	DW	00H
	DW	0421H
	DW	014a5H
	DW	01ce7H
	DW	01ce7H
	DW	01ce7H
	DW	01ce7H
	DW	01ce7H
	DW	01ce7H
	DW	01ce7H
	DW	01ce6H
	DW	01073H
	DW	01fH
	DW	01fH
	DW	0837H
	DW	02H
	DW	00H
	DW	018c6H
	DW	035adH
	DW	035adH
	DW	035adH
	DW	03defH
	DW	0294aH
	DW	0421H
	DW	00H
	DW	00H
	DW	00H
	DW	00H
	DW	00H
	DW	00H
	DW	00H
	DW	00H
	DW	00H
	DW	00H
	DW	00H
	DW	00H
	DW	00H
	DW	00H
	DW	00H
	DW	00H
	DW	00H
	DW	00H
	DW	00H
	DW	00H
	DW	00H
	DW	00H
	DW	00H
	DW	00H
	DW	00H
	DW	00H
	DW	00H
	DW	00H
	DW	00H
	DW	00H
	DW	00H
	DW	00H
	DW	00H
	DW	00H
	DW	00H
	DW	00H
	DW	00H
	DW	00H
	DW	00H
	DW	00H
	DW	00H
	DW	00H
	DW	00H
	DW	00H
	DW	00H
	DW	00H
	DW	00H
	DW	00H
	DW	00H
	DW	00H
	DW	00H
	DW	00H
	DW	00H
	DW	0421H
	DW	03defH
	DW	04e73H
	DW	04e73H
	DW	04e73H
	DW	04e73H
	DW	04e73H
	DW	04e73H
	DW	04e73H
	DW	05294H
	DW	05294H
	DW	05294H
	DW	056b5H
	DW	05ad6H
	DW	04e73H
	DW	039ceH
	DW	035adH
	DW	035adH
	DW	01ce7H
	DW	00H
	DW	01H
	DW	0435H
	DW	041fH
	DW	01fH
	DW	0c56H
	DW	01cc9H
	DW	01ce7H
	DW	01ce7H
	DW	01ce7H
	DW	01ce7H
	DW	01ce7H
	DW	01ce7H
	DW	020e7H
	DW	014a5H
	DW	020H
	DW	00H
	DW	00H
	DW	0421H
	DW	01084H
	DW	014a5H
	DW	014a5H
	DW	014a5H
	DW	014a5H
	DW	014a5H
	DW	014a5H
	DW	014a5H
	DW	014a5H
	DW	014a5H
	DW	014a5H
	DW	014a5H
	DW	014a5H
	DW	014a5H
	DW	018c6H
	DW	01ce7H
	DW	01ce7H
	DW	01ce7H
	DW	01ce7H
	DW	01ce7H
	DW	01ce7H
	DW	01ce7H
	DW	01ce7H
	DW	01ce7H
	DW	01ce7H
	DW	01ce7H
	DW	01ce7H
	DW	01ce7H
	DW	01ce7H
	DW	01ce7H
	DW	01ce7H
	DW	01ce7H
	DW	01ce7H
	DW	01ce7H
	DW	01ce7H
	DW	01ce7H
	DW	01ce7H
	DW	01ce7H
	DW	01ce7H
	DW	01ce7H
	DW	01ce7H
	DW	01ce7H
	DW	01ce7H
	DW	01ce7H
	DW	01ce7H
	DW	01ce7H
	DW	01ce7H
	DW	01ce7H
	DW	01ce7H
	DW	01ce7H
	DW	01ce7H
	DW	01ce7H
	DW	01ce7H
	DW	01ce7H
	DW	01ce7H
	DW	01ce7H
	DW	01ce7H
	DW	01ce7H
	DW	01ce7H
	DW	01ce7H
	DW	01ce7H
	DW	01ce7H
	DW	01ce7H
	DW	01ce7H
	DW	01ce7H
	DW	01ce7H
	DW	01ce7H
	DW	01ce7H
	DW	01ce7H
	DW	01ce7H
	DW	01ce7H
	DW	01ce7H
	DW	01ce7H
	DW	01ce7H
	DW	01ce7H
	DW	01ce7H
	DW	01ce7H
	DW	01ce7H
	DW	01ce7H
	DW	01ce7H
	DW	01ce7H
	DW	01ce7H
	DW	01ce7H
	DW	01ce7H
	DW	01ce7H
	DW	01ce7H
	DW	01ce7H
	DW	01ce7H
	DW	01ce7H
	DW	01ce7H
	DW	01ce7H
	DW	01ce7H
	DW	01ce7H
	DW	01ce7H
	DW	018c6H
	DW	014a5H
	DW	014a5H
	DW	014a5H
	DW	014a5H
	DW	014a5H
	DW	014a5H
	DW	014a5H
	DW	014a5H
	DW	014a5H
	DW	014a5H
	DW	014a5H
	DW	014a5H
	DW	014a5H
	DW	01084H
	DW	0421H
	DW	00H
	DW	00H
	DW	00H
	DW	01084H
	DW	01ce7H
	DW	01ce8H
	DW	01ce7H
	DW	01ce7H
	DW	018e7H
	DW	01ce7H
	DW	01ce7H
	DW	01ce7H
	DW	01074H
	DW	01fH
	DW	01fH
	DW	0836H
	DW	0401H
	DW	00H
	DW	01ce7H
	DW	035adH
	DW	035adH
	DW	035adH
	DW	03defH
	DW	02529H
	DW	00H
	DW	00H
	DW	00H
	DW	00H
	DW	00H
	DW	00H
	DW	00H
	DW	00H
	DW	00H
	DW	00H
	DW	00H
	DW	00H
	DW	00H
	DW	00H
	DW	00H
	DW	00H
	DW	00H
	DW	00H
	DW	00H
	DW	00H
	DW	00H
	DW	00H
	DW	00H
	DW	00H
	DW	00H
	DW	00H
	DW	00H
	DW	00H
	DW	00H
	DW	00H
	DW	00H
	DW	00H
	DW	00H
	DW	00H
	DW	00H
	DW	00H
	DW	00H
	DW	00H
	DW	00H
	DW	00H
	DW	00H
	DW	00H
	DW	00H
	DW	00H
	DW	00H
	DW	00H
	DW	00H
	DW	00H
	DW	00H
	DW	00H
	DW	00H
	DW	00H
	DW	00H
	DW	0294aH
	DW	04e73H
	DW	04e73H
	DW	04e73H
	DW	04e73H
	DW	04e73H
	DW	04e73H
	DW	04e73H
	DW	05294H
	DW	05294H
	DW	05294H
	DW	05294H
	DW	05ad6H
	DW	04e73H
	DW	039ceH
	DW	0318cH
	DW	035adH
	DW	02929H
	DW	00H
	DW	00H
	DW	0434H
	DW	041fH
	DW	01fH
	DW	0858H
	DW	01ce7H
	DW	01ce6H
	DW	01ce7H
	DW	01ce7H
	DW	01ce7H
	DW	01ce7H
	DW	01ce7H
	DW	01ce7H
	DW	01084H
	DW	00H
	DW	00H
	DW	00H
	DW	0421H
	DW	01084H
	DW	014a5H
	DW	014a5H
	DW	014a5H
	DW	014a5H
	DW	014a5H
	DW	014a5H
	DW	014a5H
	DW	014a5H
	DW	014a5H
	DW	014a5H
	DW	014a5H
	DW	014a5H
	DW	014a5H
	DW	018c6H
	DW	01ce7H
	DW	01ce7H
	DW	01ce7H
	DW	01ce7H
	DW	01ce7H
	DW	01ce7H
	DW	01ce7H
	DW	01ce7H
	DW	01ce7H
	DW	01ce7H
	DW	01ce7H
	DW	01ce7H
	DW	01ce7H
	DW	01ce7H
	DW	01ce7H
	DW	01ce7H
	DW	01ce7H
	DW	01ce7H
	DW	01ce7H
	DW	01ce7H
	DW	01ce7H
	DW	01ce7H
	DW	01ce7H
	DW	01ce7H
	DW	01ce7H
	DW	01ce7H
	DW	01ce7H
	DW	01ce7H
	DW	01ce7H
	DW	01ce7H
	DW	01ce7H
	DW	01ce7H
	DW	01ce7H
	DW	01ce7H
	DW	01ce7H
	DW	01ce7H
	DW	01ce7H
	DW	01ce7H
	DW	01ce7H
	DW	01ce7H
	DW	01ce7H
	DW	01ce7H
	DW	01ce7H
	DW	01ce7H
	DW	01ce7H
	DW	01ce7H
	DW	01ce7H
	DW	01ce7H
	DW	01ce7H
	DW	01ce7H
	DW	01ce7H
	DW	01ce7H
	DW	01ce7H
	DW	01ce7H
	DW	01ce7H
	DW	01ce7H
	DW	01ce7H
	DW	01ce7H
	DW	01ce7H
	DW	01ce7H
	DW	01ce7H
	DW	01ce7H
	DW	01ce7H
	DW	01ce7H
	DW	01ce7H
	DW	01ce7H
	DW	01ce7H
	DW	01ce7H
	DW	01ce7H
	DW	01ce7H
	DW	01ce7H
	DW	01ce7H
	DW	01ce7H
	DW	01ce7H
	DW	01ce7H
	DW	01ce7H
	DW	01ce7H
	DW	01ce7H
	DW	01ce7H
	DW	01ce7H
	DW	01ce7H
	DW	018c6H
	DW	014a5H
	DW	014a5H
	DW	014a5H
	DW	014a5H
	DW	014a5H
	DW	014a5H
	DW	014a5H
	DW	014a5H
	DW	014a5H
	DW	014a5H
	DW	014a5H
	DW	014a5H
	DW	014a5H
	DW	014a5H
	DW	0842H
	DW	00H
	DW	00H
	DW	00H
	DW	01084H
	DW	01ce7H
	DW	01ce7H
	DW	01ce7H
	DW	01ce7H
	DW	01ce7H
	DW	01ce7H
	DW	01ce6H
	DW	01ce7H
	DW	0c75H
	DW	01fH
	DW	041fH
	DW	0835H
	DW	01H
	DW	00H
	DW	02108H
	DW	039adH
	DW	035adH
	DW	039ceH
	DW	03defH
	DW	01ce7H
	DW	00H
	DW	00H
	DW	00H
	DW	00H
	DW	00H
	DW	00H
	DW	00H
	DW	00H
	DW	00H
	DW	00H
	DW	00H
	DW	00H
	DW	0421H
	DW	00H
	DW	00H
	DW	00H
	DW	00H
	DW	00H
	DW	00H
	DW	00H
	DW	00H
	DW	00H
	DW	00H
	DW	00H
	DW	00H
	DW	00H
	DW	00H
	DW	00H
	DW	00H
	DW	00H
	DW	00H
	DW	00H
	DW	00H
	DW	00H
	DW	00H
	DW	00H
	DW	00H
	DW	00H
	DW	00H
	DW	00H
	DW	00H
	DW	00H
	DW	00H
	DW	00H
	DW	00H
	DW	00H
	DW	00H
	DW	00H
	DW	00H
	DW	00H
	DW	00H
	DW	014a5H
	DW	04a52H
	DW	04a52H
	DW	04e73H
	DW	04e73H
	DW	04e73H
	DW	04e73H
	DW	04e73H
	DW	04e73H
	DW	04e73H
	DW	04e73H
	DW	05294H
	DW	05ad6H
	DW	05294H
	DW	03defH
	DW	0318cH
	DW	035adH
	DW	0294aH
	DW	0421H
	DW	00H
	DW	0431H
	DW	041fH
	DW	01fH
	DW	0c39H
	DW	01cc8H
	DW	01ce6H
	DW	01ce7H
	DW	01ce7H
	DW	01ce7H
	DW	01ce7H
	DW	01ce7H
	DW	01ce7H
	DW	01084H
	DW	00H
	DW	00H
	DW	00H
	DW	0842H
	DW	014a5H
	DW	014a5H
	DW	014a5H
	DW	014a5H
	DW	014a5H
	DW	014a5H
	DW	014a5H
	DW	014a5H
	DW	014a5H
	DW	014a5H
	DW	014a5H
	DW	014a5H
	DW	014a5H
	DW	018c6H
	DW	01ce7H
	DW	01ce7H
	DW	01ce7H
	DW	01ce7H
	DW	01ce7H
	DW	01ce7H
	DW	01ce7H
	DW	01ce7H
	DW	01ce7H
	DW	01ce7H
	DW	01ce7H
	DW	01ce7H
	DW	01ce7H
	DW	01ce7H
	DW	01ce7H
	DW	01ce7H
	DW	01ce7H
	DW	01ce7H
	DW	01ce7H
	DW	01ce7H
	DW	01ce7H
	DW	01ce7H
	DW	01ce7H
	DW	01ce7H
	DW	01ce7H
	DW	01ce7H
	DW	01ce7H
	DW	01ce7H
	DW	01ce7H
	DW	01ce7H
	DW	01ce7H
	DW	01ce7H
	DW	01ce7H
	DW	01ce7H
	DW	01ce7H
	DW	01ce7H
	DW	01ce7H
	DW	01ce7H
	DW	01ce7H
	DW	01ce7H
	DW	01ce7H
	DW	01ce7H
	DW	01ce7H
	DW	01ce7H
	DW	01ce7H
	DW	01ce7H
	DW	01ce7H
	DW	01ce7H
	DW	01ce7H
	DW	01ce7H
	DW	01ce7H
	DW	01ce7H
	DW	01ce7H
	DW	01ce7H
	DW	01ce7H
	DW	01ce7H
	DW	01ce7H
	DW	01ce7H
	DW	01ce7H
	DW	01ce7H
	DW	01ce7H
	DW	01ce7H
	DW	01ce7H
	DW	01ce7H
	DW	01ce7H
	DW	01ce7H
	DW	01ce7H
	DW	01ce7H
	DW	01ce7H
	DW	01ce7H
	DW	01ce7H
	DW	01ce7H
	DW	01ce7H
	DW	01ce7H
	DW	01ce7H
	DW	01ce7H
	DW	01ce7H
	DW	01ce7H
	DW	01ce7H
	DW	01ce7H
	DW	01ce7H
	DW	01ce7H
	DW	01ce7H
	DW	01ce7H
	DW	01ce7H
	DW	018c6H
	DW	014a5H
	DW	014a5H
	DW	014a5H
	DW	014a5H
	DW	014a5H
	DW	014a5H
	DW	014a5H
	DW	014a5H
	DW	014a5H
	DW	014a5H
	DW	014a5H
	DW	014a5H
	DW	014a5H
	DW	0c63H
	DW	00H
	DW	00H
	DW	00H
	DW	01084H
	DW	01ce7H
	DW	01ce7H
	DW	01ce7H
	DW	01ce7H
	DW	01ce7H
	DW	01ce7H
	DW	01ce7H
	DW	01ce7H
	DW	0c58H
	DW	01fH
	DW	041fH
	DW	0432H
	DW	00H
	DW	0401H
	DW	0294aH
	DW	039adH
	DW	035adH
	DW	039ceH
	DW	039ceH
	DW	01084H
	DW	00H
	DW	00H
	DW	00H
	DW	00H
	DW	00H
	DW	00H
	DW	00H
	DW	00H
	DW	00H
	DW	00H
	DW	00H
	DW	00H
	DW	00H
	DW	00H
	DW	00H
	DW	00H
	DW	00H
	DW	00H
	DW	00H
	DW	00H
	DW	00H
	DW	00H
	DW	00H
	DW	00H
	DW	00H
	DW	00H
	DW	00H
	DW	00H
	DW	00H
	DW	00H
	DW	00H
	DW	00H
	DW	00H
	DW	00H
	DW	00H
	DW	00H
	DW	00H
	DW	00H
	DW	00H
	DW	00H
	DW	00H
	DW	00H
	DW	00H
	DW	00H
	DW	00H
	DW	00H
	DW	00H
	DW	00H
	DW	00H
	DW	0421H
	DW	03defH
	DW	04a52H
	DW	04a52H
	DW	04a52H
	DW	04e73H
	DW	04e73H
	DW	04e73H
	DW	04e73H
	DW	04e73H
	DW	04e73H
	DW	04e73H
	DW	056b5H
	DW	056b5H
	DW	04210H
	DW	035adH
	DW	035adH
	DW	0316cH
	DW	0842H
	DW	00H
	DW	042dH
	DW	041fH
	DW	01fH
	DW	083aH
	DW	018e9H
	DW	01ce6H
	DW	01ce7H
	DW	01ce7H
	DW	01ce7H
	DW	01ce7H
	DW	01ce7H
	DW	01ce7H
	DW	01084H
	DW	00H
	DW	00H
	DW	00H
	DW	0c63H
	DW	014a5H
	DW	014a5H
	DW	014a5H
	DW	014a5H
	DW	014a5H
	DW	014a5H
	DW	014a5H
	DW	014a5H
	DW	014a5H
	DW	014a5H
	DW	014a5H
	DW	014a5H
	DW	014a5H
	DW	018c6H
	DW	01ce7H
	DW	01ce7H
	DW	01ce7H
	DW	01ce7H
	DW	01ce7H
	DW	01ce7H
	DW	01ce7H
	DW	01ce7H
	DW	01ce7H
	DW	01ce7H
	DW	01ce7H
	DW	01ce7H
	DW	01ce7H
	DW	01ce7H
	DW	01ce7H
	DW	01ce7H
	DW	01ce7H
	DW	01ce7H
	DW	01ce7H
	DW	01ce7H
	DW	01ce7H
	DW	01ce7H
	DW	01ce7H
	DW	01ce7H
	DW	01ce7H
	DW	01ce7H
	DW	01ce7H
	DW	01ce7H
	DW	01ce7H
	DW	01ce7H
	DW	01ce7H
	DW	01ce7H
	DW	01ce7H
	DW	01ce7H
	DW	01ce7H
	DW	01ce7H
	DW	01ce7H
	DW	01ce7H
	DW	01ce7H
	DW	01ce7H
	DW	01ce7H
	DW	01ce7H
	DW	01ce7H
	DW	01ce7H
	DW	01ce7H
	DW	01ce7H
	DW	01ce7H
	DW	01ce7H
	DW	01ce7H
	DW	01ce7H
	DW	01ce7H
	DW	01ce7H
	DW	01ce7H
	DW	01ce7H
	DW	01ce7H
	DW	01ce7H
	DW	01ce7H
	DW	01ce7H
	DW	01ce7H
	DW	01ce7H
	DW	01ce7H
	DW	01ce7H
	DW	01ce7H
	DW	01ce7H
	DW	01ce7H
	DW	01ce7H
	DW	01ce7H
	DW	01ce7H
	DW	01ce7H
	DW	01ce7H
	DW	01ce7H
	DW	01ce7H
	DW	01ce7H
	DW	01ce7H
	DW	01ce7H
	DW	01ce7H
	DW	01ce7H
	DW	01ce7H
	DW	01ce7H
	DW	01ce7H
	DW	01ce7H
	DW	01ce7H
	DW	01ce7H
	DW	01ce7H
	DW	01ce7H
	DW	01ce7H
	DW	01ce7H
	DW	018c6H
	DW	014a5H
	DW	014a5H
	DW	014a5H
	DW	014a5H
	DW	014a5H
	DW	014a5H
	DW	014a5H
	DW	014a5H
	DW	014a5H
	DW	014a5H
	DW	014a5H
	DW	014a5H
	DW	014a5H
	DW	0c63H
	DW	00H
	DW	00H
	DW	00H
	DW	01084H
	DW	01ce7H
	DW	01ce7H
	DW	01ce7H
	DW	01ce7H
	DW	01ce7H
	DW	01ce7H
	DW	01ce6H
	DW	01cc9H
	DW	0839H
	DW	01fH
	DW	041fH
	DW	082eH
	DW	00H
	DW	0421H
	DW	02d6bH
	DW	035adH
	DW	035adH
	DW	039ceH
	DW	035adH
	DW	0842H
	DW	00H
	DW	00H
	DW	00H
	DW	00H
	DW	00H
	DW	00H
	DW	00H
	DW	00H
	DW	00H
	DW	00H
	DW	00H
	DW	00H
	DW	00H
	DW	00H
	DW	00H
	DW	00H
	DW	00H
	DW	00H
	DW	00H
	DW	00H
	DW	00H
	DW	00H
	DW	00H
	DW	00H
	DW	00H
	DW	00H
	DW	00H
	DW	00H
	DW	00H
	DW	00H
	DW	00H
	DW	00H
	DW	00H
	DW	00H
	DW	00H
	DW	00H
	DW	00H
	DW	00H
	DW	00H
	DW	00H
	DW	00H
	DW	00H
	DW	00H
	DW	00H
	DW	00H
	DW	00H
	DW	00H
	DW	00H
	DW	0294aH
	DW	04a52H
	DW	04a52H
	DW	04a52H
	DW	04a52H
	DW	04e73H
	DW	04e73H
	DW	04e73H
	DW	04e73H
	DW	04e73H
	DW	04e73H
	DW	056b5H
	DW	05ad6H
	DW	04631H
	DW	035adH
	DW	035adH
	DW	0318cH
	DW	0c63H
	DW	00H
	DW	042aH
	DW	041eH
	DW	01fH
	DW	083bH
	DW	01ccaH
	DW	01ce6H
	DW	01ce7H
	DW	01ce7H
	DW	01ce7H
	DW	01ce7H
	DW	01ce7H
	DW	01ce7H
	DW	01084H
	DW	00H
	DW	00H
	DW	00H
	DW	0c63H
	DW	014a5H
	DW	014a5H
	DW	014a5H
	DW	014a5H
	DW	014a5H
	DW	014a5H
	DW	014a5H
	DW	014a5H
	DW	014a5H
	DW	014a5H
	DW	014a5H
	DW	014a5H
	DW	014a5H
	DW	01ce7H
	DW	01ce7H
	DW	01ce7H
	DW	01ce7H
	DW	01ce7H
	DW	01ce7H
	DW	01ce7H
	DW	01ce7H
	DW	01ce7H
	DW	01ce7H
	DW	01ce7H
	DW	01ce7H
	DW	01ce7H
	DW	01ce7H
	DW	01ce7H
	DW	01ce7H
	DW	01ce7H
	DW	01ce7H
	DW	01ce7H
	DW	01ce7H
	DW	01ce7H
	DW	01ce7H
	DW	01ce7H
	DW	01ce7H
	DW	01ce7H
	DW	01ce7H
	DW	01ce7H
	DW	01ce7H
	DW	01ce7H
	DW	01ce7H
	DW	01ce7H
	DW	01ce7H
	DW	01ce7H
	DW	01ce7H
	DW	01ce7H
	DW	01ce7H
	DW	01ce7H
	DW	01ce7H
	DW	01ce7H
	DW	01ce7H
	DW	01ce7H
	DW	01ce7H
	DW	01ce7H
	DW	01ce7H
	DW	01ce7H
	DW	01ce7H
	DW	01ce7H
	DW	01ce7H
	DW	01ce7H
	DW	01ce7H
	DW	01ce7H
	DW	01ce7H
	DW	01ce7H
	DW	01ce7H
	DW	01ce7H
	DW	01ce7H
	DW	01ce7H
	DW	01ce7H
	DW	01ce7H
	DW	01ce7H
	DW	01ce7H
	DW	01ce7H
	DW	01ce7H
	DW	01ce7H
	DW	01ce7H
	DW	01ce7H
	DW	01ce7H
	DW	01ce7H
	DW	01ce7H
	DW	01ce7H
	DW	01ce7H
	DW	01ce7H
	DW	01ce7H
	DW	01ce7H
	DW	01ce7H
	DW	01ce7H
	DW	01ce7H
	DW	01ce7H
	DW	01ce7H
	DW	01ce7H
	DW	01ce7H
	DW	01ce7H
	DW	01ce7H
	DW	01ce7H
	DW	01ce7H
	DW	01ce7H
	DW	01ce7H
	DW	01ce7H
	DW	01ce7H
	DW	01ce7H
	DW	01ce7H
	DW	018c6H
	DW	014a5H
	DW	014a5H
	DW	014a5H
	DW	014a5H
	DW	014a5H
	DW	014a5H
	DW	014a5H
	DW	014a5H
	DW	014a5H
	DW	014a5H
	DW	014a5H
	DW	014a5H
	DW	0c63H
	DW	00H
	DW	00H
	DW	00H
	DW	0c63H
	DW	01ce7H
	DW	01ce7H
	DW	01ce7H
	DW	01ce7H
	DW	01ce7H
	DW	01ce7H
	DW	01ce6H
	DW	018c9H
	DW	083bH
	DW	01fH
	DW	041fH
	DW	082cH
	DW	00H
	DW	0c43H
	DW	0318cH
	DW	035adH
	DW	035adH
	DW	039ceH
	DW	0294aH
	DW	0421H
	DW	00H
	DW	00H
	DW	00H
	DW	00H
	DW	00H
	DW	00H
	DW	00H
	DW	00H
	DW	00H
	DW	00H
	DW	00H
	DW	00H
	DW	00H
	DW	00H
	DW	00H
	DW	00H
	DW	00H
	DW	00H
	DW	00H
	DW	00H
	DW	00H
	DW	00H
	DW	00H
	DW	00H
	DW	00H
	DW	00H
	DW	00H
	DW	00H
	DW	00H
	DW	00H
	DW	00H
	DW	00H
	DW	00H
	DW	00H
	DW	00H
	DW	00H
	DW	00H
	DW	00H
	DW	00H
	DW	00H
	DW	00H
	DW	00H
	DW	00H
	DW	00H
	DW	00H
	DW	00H
	DW	01084H
	DW	04a52H
	DW	04a52H
	DW	04a52H
	DW	04a52H
	DW	04a52H
	DW	04a52H
	DW	04a52H
	DW	04e73H
	DW	04e73H
	DW	04e73H
	DW	05294H
	DW	05ad6H
	DW	04a52H
	DW	035adH
	DW	035acH
	DW	035adH
	DW	018a6H
	DW	00H
	DW	0425H
	DW	081dH
	DW	01fH
	DW	041dH
	DW	018cbH
	DW	01ce6H
	DW	01ce7H
	DW	01ce7H
	DW	01ce7H
	DW	01ce7H
	DW	01ce7H
	DW	01ce7H
	DW	01084H
	DW	00H
	DW	00H
	DW	00H
	DW	0c63H
	DW	014a5H
	DW	014a5H
	DW	014a5H
	DW	014a5H
	DW	014a5H
	DW	014a5H
	DW	014a5H
	DW	014a5H
	DW	014a5H
	DW	014a5H
	DW	014a5H
	DW	014a5H
	DW	018c6H
	DW	01ce7H
	DW	01ce7H
	DW	01ce7H
	DW	01ce7H
	DW	01ce7H
	DW	01ce7H
	DW	01ce7H
	DW	01ce7H
	DW	01ce7H
	DW	01ce7H
	DW	01ce7H
	DW	01ce7H
	DW	01ce7H
	DW	01ce7H
	DW	01ce7H
	DW	01ce7H
	DW	01ce7H
	DW	01ce7H
	DW	01ce7H
	DW	01ce7H
	DW	01ce7H
	DW	01ce7H
	DW	01ce7H
	DW	01ce7H
	DW	01ce7H
	DW	01ce7H
	DW	01ce7H
	DW	01ce7H
	DW	01ce7H
	DW	01ce7H
	DW	01ce7H
	DW	01ce7H
	DW	01ce7H
	DW	01ce7H
	DW	01ce7H
	DW	01ce7H
	DW	01ce7H
	DW	01ce7H
	DW	01ce7H
	DW	01ce7H
	DW	01ce7H
	DW	01ce7H
	DW	01ce7H
	DW	01ce7H
	DW	01ce7H
	DW	01ce7H
	DW	01ce7H
	DW	01ce7H
	DW	01ce7H
	DW	01ce7H
	DW	01ce7H
	DW	01ce7H
	DW	01ce7H
	DW	01ce7H
	DW	01ce7H
	DW	01ce7H
	DW	01ce7H
	DW	01ce7H
	DW	01ce7H
	DW	01ce7H
	DW	01ce7H
	DW	01ce7H
	DW	01ce7H
	DW	01ce7H
	DW	01ce7H
	DW	01ce7H
	DW	01ce7H
	DW	01ce7H
	DW	01ce7H
	DW	01ce7H
	DW	01ce7H
	DW	01ce7H
	DW	01ce7H
	DW	01ce7H
	DW	01ce7H
	DW	01ce7H
	DW	01ce7H
	DW	01ce7H
	DW	01ce7H
	DW	01ce7H
	DW	01ce7H
	DW	01ce7H
	DW	01ce7H
	DW	01ce7H
	DW	01ce7H
	DW	01ce7H
	DW	01ce7H
	DW	01ce7H
	DW	01ce7H
	DW	01ce7H
	DW	01ce7H
	DW	01ce7H
	DW	01ce7H
	DW	018c6H
	DW	014a5H
	DW	01084H
	DW	014a5H
	DW	014a5H
	DW	014a5H
	DW	014a5H
	DW	014a5H
	DW	014a5H
	DW	014a5H
	DW	014a5H
	DW	014a5H
	DW	014a5H
	DW	0c63H
	DW	00H
	DW	00H
	DW	00H
	DW	01084H
	DW	01ce8H
	DW	01ce7H
	DW	01ce7H
	DW	01ce7H
	DW	01ce7H
	DW	01ce7H
	DW	01ce6H
	DW	018caH
	DW	083cH
	DW	01fH
	DW	041dH
	DW	0427H
	DW	00H
	DW	014a5H
	DW	035adH
	DW	035adH
	DW	035adH
	DW	039ceH
	DW	01ce7H
	DW	00H
	DW	00H
	DW	00H
	DW	00H
	DW	00H
	DW	00H
	DW	00H
	DW	00H
	DW	00H
	DW	00H
	DW	00H
	DW	00H
	DW	00H
	DW	00H
	DW	00H
	DW	00H
	DW	00H
	DW	00H
	DW	00H
	DW	00H
	DW	00H
	DW	00H
	DW	00H
	DW	00H
	DW	00H
	DW	00H
	DW	00H
	DW	00H
	DW	00H
	DW	00H
	DW	00H
	DW	00H
	DW	00H
	DW	00H
	DW	00H
	DW	00H
	DW	00H
	DW	00H
	DW	00H
	DW	00H
	DW	00H
	DW	00H
	DW	00H
	DW	00H
	DW	00H
	DW	00H
	DW	039ceH
	DW	04a52H
	DW	04a52H
	DW	04a52H
	DW	04a52H
	DW	04a52H
	DW	04a52H
	DW	04a52H
	DW	04e73H
	DW	04e73H
	DW	04e73H
	DW	05ad6H
	DW	05294H
	DW	039ceH
	DW	0318cH
	DW	035adH
	DW	02108H
	DW	00H
	DW	0402H
	DW	0839H
	DW	041fH
	DW	01fH
	DW	01091H
	DW	01ce6H
	DW	01ce7H
	DW	01ce7H
	DW	01ce7H
	DW	01ce7H
	DW	01ce7H
	DW	01d07H
	DW	01485H
	DW	00H
	DW	00H
	DW	00H
	DW	0c63H
	DW	014a5H
	DW	014a5H
	DW	014a5H
	DW	014a5H
	DW	014a5H
	DW	014a5H
	DW	014a5H
	DW	014a5H
	DW	014a5H
	DW	014a5H
	DW	014a5H
	DW	014a5H
	DW	018c6H
	DW	01ce7H
	DW	01ce7H
	DW	01ce7H
	DW	01ce7H
	DW	01ce7H
	DW	01ce7H
	DW	01ce7H
	DW	01ce7H
	DW	01ce7H
	DW	01ce7H
	DW	01ce7H
	DW	01ce7H
	DW	01ce7H
	DW	01ce7H
	DW	01ce7H
	DW	01ce7H
	DW	01ce7H
	DW	01ce7H
	DW	01ce7H
	DW	01ce7H
	DW	01ce7H
	DW	01ce7H
	DW	01ce7H
	DW	01ce7H
	DW	01ce7H
	DW	01ce7H
	DW	01ce7H
	DW	01ce7H
	DW	01ce7H
	DW	01ce7H
	DW	01ce7H
	DW	01ce7H
	DW	01ce7H
	DW	01ce7H
	DW	01ce7H
	DW	01ce7H
	DW	01ce7H
	DW	01ce7H
	DW	01ce7H
	DW	01ce7H
	DW	01ce7H
	DW	01ce7H
	DW	01ce7H
	DW	01ce7H
	DW	01ce7H
	DW	01ce7H
	DW	01ce7H
	DW	01ce7H
	DW	01ce7H
	DW	01ce7H
	DW	01ce7H
	DW	01ce7H
	DW	01ce7H
	DW	01ce7H
	DW	01ce7H
	DW	01ce7H
	DW	01ce7H
	DW	01ce7H
	DW	01ce7H
	DW	01ce7H
	DW	01ce7H
	DW	01ce7H
	DW	01ce7H
	DW	01ce7H
	DW	01ce7H
	DW	01ce7H
	DW	01ce7H
	DW	01ce7H
	DW	01ce7H
	DW	01ce7H
	DW	01ce7H
	DW	01ce7H
	DW	01ce7H
	DW	01ce7H
	DW	01ce7H
	DW	01ce7H
	DW	01ce7H
	DW	01ce7H
	DW	01ce7H
	DW	01ce7H
	DW	01ce7H
	DW	01ce7H
	DW	01ce7H
	DW	01ce7H
	DW	01ce7H
	DW	01ce7H
	DW	01ce7H
	DW	01ce7H
	DW	01ce7H
	DW	01ce7H
	DW	01ce7H
	DW	01ce7H
	DW	01ce7H
	DW	01ce7H
	DW	01ce7H
	DW	018c7H
	DW	014a5H
	DW	014a5H
	DW	014a5H
	DW	014a5H
	DW	014a5H
	DW	014a5H
	DW	014a5H
	DW	014a5H
	DW	014a5H
	DW	014a5H
	DW	014a5H
	DW	014a5H
	DW	0c63H
	DW	00H
	DW	00H
	DW	00H
	DW	01084H
	DW	01ce7H
	DW	018e7H
	DW	01ce7H
	DW	01ce7H
	DW	01ce7H
	DW	01ce7H
	DW	01ce6H
	DW	014adH
	DW	01fH
	DW	01fH
	DW	083aH
	DW	0403H
	DW	00H
	DW	02108H
	DW	035adH
	DW	035adH
	DW	039ceH
	DW	035adH
	DW	01084H
	DW	00H
	DW	00H
	DW	00H
	DW	00H
	DW	00H
	DW	00H
	DW	00H
	DW	00H
	DW	00H
	DW	00H
	DW	00H
	DW	00H
	DW	00H
	DW	00H
	DW	00H
	DW	00H
	DW	00H
	DW	00H
	DW	00H
	DW	00H
	DW	00H
	DW	00H
	DW	00H
	DW	00H
	DW	00H
	DW	00H
	DW	00H
	DW	00H
	DW	00H
	DW	00H
	DW	00H
	DW	00H
	DW	00H
	DW	00H
	DW	00H
	DW	00H
	DW	00H
	DW	00H
	DW	00H
	DW	00H
	DW	00H
	DW	00H
	DW	00H
	DW	00H
	DW	02108H
	DW	04a52H
	DW	04a52H
	DW	04a52H
	DW	04a52H
	DW	04a52H
	DW	04a52H
	DW	04a52H
	DW	04a52H
	DW	04a52H
	DW	04e73H
	DW	056b5H
	DW	056b5H
	DW	04210H
	DW	035adH
	DW	035adH
	DW	0294aH
	DW	00H
	DW	00H
	DW	0834H
	DW	01fH
	DW	01fH
	DW	01073H
	DW	01ce6H
	DW	01ce7H
	DW	01ce7H
	DW	01ce7H
	DW	01ce7H
	DW	01ce7H
	DW	02107H
	DW	010a5H
	DW	00H
	DW	00H
	DW	00H
	DW	0c63H
	DW	014a5H
	DW	014a5H
	DW	014a5H
	DW	014a5H
	DW	014a5H
	DW	014a5H
	DW	014a5H
	DW	014a5H
	DW	014a5H
	DW	014a5H
	DW	014a5H
	DW	014a5H
	DW	01ce7H
	DW	01ce7H
	DW	01ce7H
	DW	01ce7H
	DW	01ce7H
	DW	01ce7H
	DW	01ce7H
	DW	01ce7H
	DW	01ce7H
	DW	01ce7H
	DW	01ce7H
	DW	01ce7H
	DW	01ce7H
	DW	01ce7H
	DW	01ce7H
	DW	01ce7H
	DW	01ce7H
	DW	01ce7H
	DW	01ce7H
	DW	01ce7H
	DW	01ce7H
	DW	01ce7H
	DW	01ce7H
	DW	01ce7H
	DW	01ce7H
	DW	01ce7H
	DW	01ce7H
	DW	01ce7H
	DW	01ce7H
	DW	01ce7H
	DW	01ce7H
	DW	01ce7H
	DW	01ce7H
	DW	01ce7H
	DW	01ce7H
	DW	01ce7H
	DW	01ce7H
	DW	01ce7H
	DW	01ce7H
	DW	01ce7H
	DW	01ce7H
	DW	01ce7H
	DW	01ce7H
	DW	01ce7H
	DW	01ce7H
	DW	01ce7H
	DW	01ce7H
	DW	01ce7H
	DW	01ce7H
	DW	01ce7H
	DW	01ce7H
	DW	01ce7H
	DW	01ce7H
	DW	01ce7H
	DW	01ce7H
	DW	01ce7H
	DW	01ce7H
	DW	01ce7H
	DW	01ce7H
	DW	01ce7H
	DW	01ce7H
	DW	01ce7H
	DW	01ce7H
	DW	01ce7H
	DW	01ce7H
	DW	01ce7H
	DW	01ce7H
	DW	01ce7H
	DW	01ce7H
	DW	01ce7H
	DW	01ce7H
	DW	01ce7H
	DW	01ce7H
	DW	01ce7H
	DW	01ce7H
	DW	01ce7H
	DW	01ce7H
	DW	01ce7H
	DW	01ce7H
	DW	01ce7H
	DW	01ce7H
	DW	01ce7H
	DW	01ce7H
	DW	01ce7H
	DW	01ce7H
	DW	01ce7H
	DW	01ce7H
	DW	01ce7H
	DW	01ce7H
	DW	01ce7H
	DW	01ce7H
	DW	01ce7H
	DW	01ce7H
	DW	01ce7H
	DW	01ce7H
	DW	01ce7H
	DW	01ce7H
	DW	01ce7H
	DW	01ce7H
	DW	014a5H
	DW	014a5H
	DW	014a5H
	DW	014a5H
	DW	014a5H
	DW	014a5H
	DW	014a5H
	DW	014a5H
	DW	014a5H
	DW	014a5H
	DW	014a5H
	DW	014a5H
	DW	0c63H
	DW	00H
	DW	00H
	DW	00H
	DW	01084H
	DW	01ce7H
	DW	01ce7H
	DW	01ce7H
	DW	01ce7H
	DW	01ce7H
	DW	01ce7H
	DW	01ce6H
	DW	01072H
	DW	041fH
	DW	01fH
	DW	0835H
	DW	01H
	DW	00H
	DW	0294aH
	DW	035adH
	DW	035adH
	DW	039ceH
	DW	02d6bH
	DW	0421H
	DW	00H
	DW	00H
	DW	00H
	DW	00H
	DW	00H
	DW	00H
	DW	00H
	DW	00H
	DW	00H
	DW	00H
	DW	00H
	DW	00H
	DW	00H
	DW	00H
	DW	00H
	DW	00H
	DW	00H
	DW	00H
	DW	00H
	DW	00H
	DW	00H
	DW	00H
	DW	00H
	DW	00H
	DW	00H
	DW	00H
	DW	00H
	DW	00H
	DW	00H
	DW	00H
	DW	00H
	DW	00H
	DW	00H
	DW	00H
	DW	00H
	DW	00H
	DW	00H
	DW	00H
	DW	00H
	DW	00H
	DW	00H
	DW	00H
	DW	0842H
	DW	04210H
	DW	04631H
	DW	04631H
	DW	04a52H
	DW	04a52H
	DW	04a52H
	DW	04a52H
	DW	04a52H
	DW	04a52H
	DW	04a52H
	DW	05294H
	DW	05ad6H
	DW	04a52H
	DW	035adH
	DW	035adH
	DW	0318cH
	DW	0c63H
	DW	00H
	DW	082eH
	DW	041fH
	DW	01fH
	DW	0c56H
	DW	01ce6H
	DW	020e7H
	DW	01ce7H
	DW	01ce7H
	DW	01ce7H
	DW	01ce7H
	DW	01ce7H
	DW	014a5H
	DW	00H
	DW	00H
	DW	00H
	DW	0c63H
	DW	014a5H
	DW	014a5H
	DW	014a5H
	DW	014a5H
	DW	014a5H
	DW	014a5H
	DW	014a5H
	DW	014a5H
	DW	014a5H
	DW	014a5H
	DW	014a5H
	DW	014a5H
	DW	01ce7H
	DW	01ce7H
	DW	01ce7H
	DW	01ce7H
	DW	01ce7H
	DW	01ce7H
	DW	01ce7H
	DW	01ce7H
	DW	01ce7H
	DW	01ce7H
	DW	01ce7H
	DW	01ce7H
	DW	01ce7H
	DW	01ce7H
	DW	01ce7H
	DW	01ce7H
	DW	01ce7H
	DW	01ce7H
	DW	01ce7H
	DW	01ce7H
	DW	01ce7H
	DW	01ce7H
	DW	01ce7H
	DW	01ce7H
	DW	01ce7H
	DW	01ce7H
	DW	01ce7H
	DW	01ce7H
	DW	01ce7H
	DW	01ce7H
	DW	01ce7H
	DW	01ce7H
	DW	01ce7H
	DW	01ce7H
	DW	01ce7H
	DW	01ce7H
	DW	01ce7H
	DW	01ce7H
	DW	01ce7H
	DW	01ce7H
	DW	01ce7H
	DW	01ce7H
	DW	01ce7H
	DW	01ce7H
	DW	01ce7H
	DW	01ce7H
	DW	01ce7H
	DW	01ce7H
	DW	01ce7H
	DW	01ce7H
	DW	01ce7H
	DW	01ce7H
	DW	01ce7H
	DW	01ce7H
	DW	01ce7H
	DW	01ce7H
	DW	01ce7H
	DW	01ce7H
	DW	01ce7H
	DW	01ce7H
	DW	01ce7H
	DW	01ce7H
	DW	01ce7H
	DW	01ce7H
	DW	01ce7H
	DW	01ce7H
	DW	01ce7H
	DW	01ce7H
	DW	01ce7H
	DW	01ce7H
	DW	01ce7H
	DW	01ce7H
	DW	01ce7H
	DW	01ce7H
	DW	01ce7H
	DW	01ce7H
	DW	01ce7H
	DW	01ce7H
	DW	01ce7H
	DW	01ce7H
	DW	01ce7H
	DW	01ce7H
	DW	01ce7H
	DW	01ce7H
	DW	01ce7H
	DW	01ce7H
	DW	01ce7H
	DW	01ce7H
	DW	01ce7H
	DW	01ce7H
	DW	01ce7H
	DW	01ce7H
	DW	01ce7H
	DW	01ce7H
	DW	01ce7H
	DW	01ce7H
	DW	01ce7H
	DW	01ce7H
	DW	01ce7H
	DW	01ce7H
	DW	01ce7H
	DW	018c6H
	DW	014a5H
	DW	014a5H
	DW	014a5H
	DW	014a5H
	DW	014a5H
	DW	014a5H
	DW	014a5H
	DW	014a5H
	DW	014a5H
	DW	014a5H
	DW	014a5H
	DW	0c63H
	DW	00H
	DW	00H
	DW	00H
	DW	014a5H
	DW	01ce7H
	DW	01ce7H
	DW	01ce7H
	DW	01ce7H
	DW	01ce7H
	DW	01ce6H
	DW	01ce7H
	DW	01074H
	DW	01fH
	DW	041fH
	DW	042fH
	DW	00H
	DW	0c63H
	DW	0318cH
	DW	035adH
	DW	035adH
	DW	039ceH
	DW	02108H
	DW	00H
	DW	00H
	DW	00H
	DW	00H
	DW	00H
	DW	00H
	DW	00H
	DW	00H
	DW	00H
	DW	00H
	DW	00H
	DW	0421H
	DW	00H
	DW	00H
	DW	00H
	DW	00H
	DW	00H
	DW	00H
	DW	00H
	DW	00H
	DW	00H
	DW	00H
	DW	00H
	DW	00H
	DW	00H
	DW	00H
	DW	00H
	DW	00H
	DW	00H
	DW	00H
	DW	00H
	DW	00H
	DW	00H
	DW	00H
	DW	00H
	DW	00H
	DW	00H
	DW	00H
	DW	00H
	DW	00H
	DW	00H
	DW	00H
	DW	02d6bH
	DW	04631H
	DW	04631H
	DW	04631H
	DW	04631H
	DW	04a52H
	DW	04a52H
	DW	04a52H
	DW	04a52H
	DW	04a52H
	DW	04e52H
	DW	056b5H
	DW	04e73H
	DW	039ceH
	DW	0318cH
	DW	039adH
	DW	018e7H
	DW	00H
	DW	0426H
	DW	041dH
	DW	01fH
	DW	083cH
	DW	018caH
	DW	01ce6H
	DW	01ce7H
	DW	01ce7H
	DW	01ce7H
	DW	01ce7H
	DW	01ce7H
	DW	018c6H
	DW	0421H
	DW	00H
	DW	00H
	DW	0842H
	DW	014a5H
	DW	014a5H
	DW	014a5H
	DW	014a5H
	DW	014a5H
	DW	014a5H
	DW	014a5H
	DW	014a5H
	DW	014a5H
	DW	014a5H
	DW	014a5H
	DW	018c6H
	DW	01ce7H
	DW	01ce7H
	DW	01ce7H
	DW	01ce7H
	DW	01ce7H
	DW	01ce7H
	DW	01ce7H
	DW	01ce7H
	DW	01ce7H
	DW	01ce7H
	DW	01ce7H
	DW	01ce7H
	DW	01ce7H
	DW	01ce7H
	DW	01ce7H
	DW	01ce7H
	DW	01ce7H
	DW	01ce7H
	DW	01ce7H
	DW	01ce7H
	DW	01ce7H
	DW	01ce7H
	DW	01ce7H
	DW	01ce7H
	DW	01ce7H
	DW	01ce7H
	DW	01ce7H
	DW	01ce7H
	DW	01ce7H
	DW	01ce7H
	DW	01ce7H
	DW	01ce7H
	DW	01ce7H
	DW	01ce7H
	DW	01ce7H
	DW	01ce7H
	DW	01ce7H
	DW	01ce7H
	DW	01ce7H
	DW	01ce7H
	DW	01ce7H
	DW	01ce7H
	DW	01ce7H
	DW	01ce7H
	DW	01ce7H
	DW	01ce7H
	DW	01ce7H
	DW	01ce7H
	DW	01ce7H
	DW	01ce7H
	DW	01ce7H
	DW	01ce7H
	DW	01ce7H
	DW	01ce7H
	DW	01ce7H
	DW	01ce7H
	DW	01ce7H
	DW	01ce7H
	DW	01ce7H
	DW	01ce7H
	DW	01ce7H
	DW	01ce7H
	DW	01ce7H
	DW	01ce7H
	DW	01ce7H
	DW	01ce7H
	DW	01ce7H
	DW	01ce7H
	DW	01ce7H
	DW	01ce7H
	DW	01ce7H
	DW	01ce7H
	DW	01ce7H
	DW	01ce7H
	DW	01ce7H
	DW	01ce7H
	DW	01ce7H
	DW	01ce7H
	DW	01ce7H
	DW	01ce7H
	DW	01ce7H
	DW	01ce7H
	DW	01ce7H
	DW	01ce7H
	DW	01ce7H
	DW	01ce7H
	DW	01ce7H
	DW	01ce7H
	DW	01ce7H
	DW	01ce7H
	DW	01ce7H
	DW	01ce7H
	DW	01ce7H
	DW	01ce7H
	DW	01ce7H
	DW	01ce7H
	DW	01ce7H
	DW	01ce7H
	DW	01ce7H
	DW	01ce7H
	DW	01ce7H
	DW	01ce7H
	DW	01ce7H
	DW	018c6H
	DW	014a5H
	DW	014a5H
	DW	014a5H
	DW	014a5H
	DW	014a5H
	DW	014a5H
	DW	014a5H
	DW	014a5H
	DW	014a5H
	DW	014a5H
	DW	014a5H
	DW	0c63H
	DW	00H
	DW	00H
	DW	0421H
	DW	018c6H
	DW	01ce7H
	DW	01ce7H
	DW	01ce7H
	DW	01ce7H
	DW	01ce7H
	DW	01ce7H
	DW	01ce8H
	DW	083aH
	DW	041fH
	DW	041eH
	DW	0428H
	DW	00H
	DW	010a5H
	DW	035adH
	DW	035adH
	DW	035adH
	DW	035adH
	DW	01084H
	DW	00H
	DW	00H
	DW	00H
	DW	00H
	DW	00H
	DW	00H
	DW	00H
	DW	00H
	DW	00H
	DW	00H
	DW	00H
	DW	00H
	DW	00H
	DW	00H
	DW	00H
	DW	00H
	DW	00H
	DW	00H
	DW	00H
	DW	00H
	DW	00H
	DW	00H
	DW	00H
	DW	00H
	DW	00H
	DW	00H
	DW	00H
	DW	00H
	DW	00H
	DW	00H
	DW	00H
	DW	00H
	DW	00H
	DW	00H
	DW	00H
	DW	00H
	DW	00H
	DW	00H
	DW	00H
	DW	00H
	DW	01084H
	DW	04210H
	DW	04631H
	DW	04631H
	DW	04631H
	DW	04631H
	DW	04631H
	DW	04a52H
	DW	04a52H
	DW	04a52H
	DW	04a52H
	DW	05294H
	DW	05294H
	DW	03defH
	DW	035adH
	DW	035adH
	DW	02529H
	DW	00H
	DW	02H
	DW	0439H
	DW	01fH
	DW	041dH
	DW	018acH
	DW	01ce6H
	DW	01ce7H
	DW	01ce7H
	DW	01ce7H
	DW	01ce7H
	DW	01ce7H
	DW	01ce7H
	DW	0842H
	DW	00H
	DW	00H
	DW	0421H
	DW	014a5H
	DW	014a5H
	DW	014a5H
	DW	014a5H
	DW	014a5H
	DW	014a5H
	DW	014a5H
	DW	014a5H
	DW	014a5H
	DW	014a5H
	DW	014a5H
	DW	018c6H
	DW	01ce7H
	DW	01ce7H
	DW	01ce7H
	DW	01ce7H
	DW	01ce7H
	DW	01ce7H
	DW	01ce7H
	DW	01ce7H
	DW	01ce7H
	DW	01ce7H
	DW	01ce7H
	DW	01ce7H
	DW	01ce7H
	DW	01ce7H
	DW	01ce7H
	DW	01ce7H
	DW	01ce7H
	DW	01ce7H
	DW	01ce7H
	DW	01ce7H
	DW	01ce7H
	DW	01ce7H
	DW	01ce7H
	DW	01ce7H
	DW	01ce7H
	DW	01ce7H
	DW	01ce7H
	DW	01ce7H
	DW	01ce7H
	DW	01ce7H
	DW	01ce7H
	DW	01ce7H
	DW	01ce7H
	DW	01ce7H
	DW	01ce7H
	DW	01ce7H
	DW	01ce7H
	DW	01ce7H
	DW	01ce7H
	DW	01ce7H
	DW	01ce7H
	DW	01ce7H
	DW	01ce7H
	DW	01ce7H
	DW	01ce7H
	DW	01ce7H
	DW	01ce7H
	DW	01ce7H
	DW	01ce7H
	DW	01ce7H
	DW	01ce7H
	DW	01ce7H
	DW	01ce7H
	DW	01ce7H
	DW	01ce7H
	DW	01ce7H
	DW	01ce7H
	DW	01ce7H
	DW	01ce7H
	DW	01ce7H
	DW	01ce7H
	DW	01ce7H
	DW	01ce7H
	DW	01ce7H
	DW	01ce7H
	DW	01ce7H
	DW	01ce7H
	DW	01ce7H
	DW	01ce7H
	DW	01ce7H
	DW	01ce7H
	DW	01ce7H
	DW	01ce7H
	DW	01ce7H
	DW	01ce7H
	DW	01ce7H
	DW	01ce7H
	DW	01ce7H
	DW	01ce7H
	DW	01ce7H
	DW	01ce7H
	DW	01ce7H
	DW	01ce7H
	DW	01ce7H
	DW	01ce7H
	DW	01ce7H
	DW	01ce7H
	DW	01ce7H
	DW	01ce7H
	DW	01ce7H
	DW	01ce7H
	DW	01ce7H
	DW	01ce7H
	DW	01ce7H
	DW	01ce7H
	DW	01ce7H
	DW	01ce7H
	DW	01ce7H
	DW	01ce7H
	DW	01ce7H
	DW	01ce7H
	DW	01ce7H
	DW	01ce7H
	DW	01ce7H
	DW	01ce7H
	DW	018c6H
	DW	014a5H
	DW	014a5H
	DW	014a5H
	DW	014a5H
	DW	014a5H
	DW	014a5H
	DW	014a5H
	DW	014a5H
	DW	014a5H
	DW	014a5H
	DW	014a5H
	DW	0842H
	DW	00H
	DW	00H
	DW	0421H
	DW	018c6H
	DW	01ce7H
	DW	01ce7H
	DW	01ce7H
	DW	01ce7H
	DW	01ce7H
	DW	01ce6H
	DW	018ccH
	DW	041dH
	DW	01fH
	DW	083aH
	DW	0403H
	DW	00H
	DW	02108H
	DW	035adH
	DW	035adH
	DW	035adH
	DW	02d6bH
	DW	0421H
	DW	00H
	DW	00H
	DW	00H
	DW	00H
	DW	00H
	DW	00H
	DW	00H
	DW	00H
	DW	00H
	DW	00H
	DW	00H
	DW	00H
	DW	00H
	DW	00H
	DW	00H
	DW	00H
	DW	00H
	DW	00H
	DW	00H
	DW	00H
	DW	00H
	DW	00H
	DW	00H
	DW	00H
	DW	00H
	DW	00H
	DW	00H
	DW	00H
	DW	00H
	DW	00H
	DW	00H
	DW	00H
	DW	00H
	DW	00H
	DW	00H
	DW	00H
	DW	00H
	DW	00H
	DW	00H
	DW	0318cH
	DW	04631H
	DW	04631H
	DW	04631H
	DW	04631H
	DW	04631H
	DW	04631H
	DW	04631H
	DW	04a52H
	DW	04a52H
	DW	04e73H
	DW	056b5H
	DW	04a31H
	DW	035adH
	DW	035adH
	DW	02d6bH
	DW	0421H
	DW	00H
	DW	0831H
	DW	041fH
	DW	041fH
	DW	01093H
	DW	01ce5H
	DW	01ce7H
	DW	01ce7H
	DW	01ce7H
	DW	01ce7H
	DW	01ce7H
	DW	01ce7H
	DW	0c63H
	DW	00H
	DW	00H
	DW	0421H
	DW	01084H
	DW	014a5H
	DW	014a5H
	DW	014a5H
	DW	014a5H
	DW	014a5H
	DW	014a5H
	DW	014a5H
	DW	014a5H
	DW	014a5H
	DW	014a5H
	DW	018c6H
	DW	01ce7H
	DW	01ce7H
	DW	01ce7H
	DW	01ce7H
	DW	01ce7H
	DW	01ce7H
	DW	01ce7H
	DW	01ce7H
	DW	01ce7H
	DW	01ce7H
	DW	01ce7H
	DW	01ce7H
	DW	01ce7H
	DW	01ce7H
	DW	01ce7H
	DW	01ce7H
	DW	01ce7H
	DW	01ce7H
	DW	01ce7H
	DW	01ce7H
	DW	01ce7H
	DW	01ce7H
	DW	01ce7H
	DW	01ce7H
	DW	01ce7H
	DW	01ce7H
	DW	01ce7H
	DW	01ce7H
	DW	01ce7H
	DW	01ce7H
	DW	01ce7H
	DW	01ce7H
	DW	01ce7H
	DW	01ce7H
	DW	01ce7H
	DW	01ce7H
	DW	01ce7H
	DW	01ce7H
	DW	01ce7H
	DW	01ce7H
	DW	01ce7H
	DW	01ce7H
	DW	01ce7H
	DW	01ce7H
	DW	01ce7H
	DW	01ce7H
	DW	01ce7H
	DW	01ce7H
	DW	01ce7H
	DW	01ce7H
	DW	01ce7H
	DW	01ce7H
	DW	01ce7H
	DW	01ce7H
	DW	01ce7H
	DW	01ce7H
	DW	01ce7H
	DW	01ce7H
	DW	01ce7H
	DW	01ce7H
	DW	01ce7H
	DW	01ce7H
	DW	01ce7H
	DW	01ce7H
	DW	01ce7H
	DW	01ce7H
	DW	01ce7H
	DW	01ce7H
	DW	01ce7H
	DW	01ce7H
	DW	01ce7H
	DW	01ce7H
	DW	01ce7H
	DW	01ce7H
	DW	01ce7H
	DW	01ce7H
	DW	01ce7H
	DW	01ce7H
	DW	01ce7H
	DW	01ce7H
	DW	01ce7H
	DW	01ce7H
	DW	01ce7H
	DW	01ce7H
	DW	01ce7H
	DW	01ce7H
	DW	01ce7H
	DW	01ce7H
	DW	01ce7H
	DW	01ce7H
	DW	01ce7H
	DW	01ce7H
	DW	01ce7H
	DW	01ce7H
	DW	01ce7H
	DW	01ce7H
	DW	01ce7H
	DW	01ce7H
	DW	01ce7H
	DW	01ce7H
	DW	01ce7H
	DW	01ce7H
	DW	01ce7H
	DW	01ce7H
	DW	01ce7H
	DW	01ce7H
	DW	01ce7H
	DW	018c6H
	DW	014a5H
	DW	014a5H
	DW	014a5H
	DW	014a5H
	DW	014a5H
	DW	014a5H
	DW	014a5H
	DW	014a5H
	DW	014a5H
	DW	014a5H
	DW	014a5H
	DW	0842H
	DW	00H
	DW	00H
	DW	0842H
	DW	01ce7H
	DW	01ce7H
	DW	01ce7H
	DW	01ce7H
	DW	01ce7H
	DW	01ce7H
	DW	01d05H
	DW	01092H
	DW	041fH
	DW	01fH
	DW	0833H
	DW	00H
	DW	021H
	DW	0294aH
	DW	035adH
	DW	035adH
	DW	035adH
	DW	02108H
	DW	00H
	DW	00H
	DW	00H
	DW	00H
	DW	00H
	DW	00H
	DW	00H
	DW	00H
	DW	00H
	DW	00H
	DW	00H
	DW	0421H
	DW	00H
	DW	00H
	DW	00H
	DW	00H
	DW	00H
	DW	00H
	DW	00H
	DW	00H
	DW	00H
	DW	00H
	DW	00H
	DW	00H
	DW	00H
	DW	00H
	DW	00H
	DW	00H
	DW	00H
	DW	00H
	DW	00H
	DW	00H
	DW	00H
	DW	00H
	DW	00H
	DW	00H
	DW	00H
	DW	00H
	DW	014a5H
	DW	04210H
	DW	04631H
	DW	04631H
	DW	04631H
	DW	04631H
	DW	04631H
	DW	04631H
	DW	04631H
	DW	04a52H
	DW	04a52H
	DW	056b5H
	DW	05273H
	DW	039ceH
	DW	0358dH
	DW	035adH
	DW	018c6H
	DW	00H
	DW	0429H
	DW	041fH
	DW	01fH
	DW	0858H
	DW	018e8H
	DW	01ce7H
	DW	01ce7H
	DW	01ce7H
	DW	01ce7H
	DW	01ce7H
	DW	01ce7H
	DW	01084H
	DW	00H
	DW	00H
	DW	0421H
	DW	01084H
	DW	014a5H
	DW	014a5H
	DW	014a5H
	DW	014a5H
	DW	014a5H
	DW	014a5H
	DW	014a5H
	DW	014a5H
	DW	014a5H
	DW	014a5H
	DW	018c6H
	DW	01ce7H
	DW	01ce7H
	DW	01ce7H
	DW	01ce7H
	DW	01ce7H
	DW	01ce7H
	DW	01ce7H
	DW	01ce7H
	DW	01ce7H
	DW	01ce7H
	DW	01ce7H
	DW	01ce7H
	DW	01ce7H
	DW	01ce7H
	DW	01ce7H
	DW	01ce7H
	DW	01ce7H
	DW	01ce7H
	DW	01ce7H
	DW	01ce7H
	DW	01ce7H
	DW	01ce7H
	DW	01ce7H
	DW	01ce7H
	DW	01ce7H
	DW	01ce7H
	DW	01ce7H
	DW	01ce7H
	DW	01ce7H
	DW	01ce7H
	DW	01ce7H
	DW	01ce7H
	DW	01ce7H
	DW	01ce7H
	DW	01ce7H
	DW	01ce7H
	DW	01ce7H
	DW	01ce7H
	DW	01ce7H
	DW	01ce7H
	DW	01ce7H
	DW	01ce7H
	DW	01ce7H
	DW	01ce7H
	DW	01ce7H
	DW	01ce7H
	DW	01ce7H
	DW	01ce7H
	DW	01ce7H
	DW	01ce7H
	DW	01ce7H
	DW	01ce7H
	DW	01ce7H
	DW	01ce7H
	DW	01ce7H
	DW	01ce7H
	DW	01ce7H
	DW	01ce7H
	DW	01ce7H
	DW	01ce7H
	DW	01ce7H
	DW	01ce7H
	DW	01ce7H
	DW	01ce7H
	DW	01ce7H
	DW	01ce7H
	DW	01ce7H
	DW	01ce7H
	DW	01ce7H
	DW	01ce7H
	DW	01ce7H
	DW	01ce7H
	DW	01ce7H
	DW	01ce7H
	DW	01ce7H
	DW	01ce7H
	DW	01ce7H
	DW	01ce7H
	DW	01ce7H
	DW	01ce7H
	DW	01ce7H
	DW	01ce7H
	DW	01ce7H
	DW	01ce7H
	DW	01ce7H
	DW	01ce7H
	DW	01ce7H
	DW	01ce7H
	DW	01ce7H
	DW	01ce7H
	DW	01ce7H
	DW	01ce7H
	DW	01ce7H
	DW	01ce7H
	DW	01ce7H
	DW	01ce7H
	DW	01ce7H
	DW	01ce7H
	DW	01ce7H
	DW	01ce7H
	DW	01ce7H
	DW	01ce7H
	DW	01ce7H
	DW	01ce7H
	DW	01ce7H
	DW	01ce7H
	DW	01ce7H
	DW	01ce7H
	DW	01ce7H
	DW	018c6H
	DW	014a5H
	DW	014a5H
	DW	014a5H
	DW	014a5H
	DW	014a5H
	DW	014a5H
	DW	014a5H
	DW	014a5H
	DW	014a5H
	DW	014a5H
	DW	01084H
	DW	0421H
	DW	00H
	DW	00H
	DW	01084H
	DW	01ce7H
	DW	01ce7H
	DW	01ce7H
	DW	01ce7H
	DW	01ce7H
	DW	01ce7H
	DW	01ce7H
	DW	0858H
	DW	01fH
	DW	041fH
	DW	042bH
	DW	00H
	DW	0c63H
	DW	035adH
	DW	035adH
	DW	035adH
	DW	031acH
	DW	01084H
	DW	00H
	DW	00H
	DW	00H
	DW	00H
	DW	00H
	DW	00H
	DW	00H
	DW	00H
	DW	00H
	DW	00H
	DW	00H
	DW	00H
	DW	00H
	DW	00H
	DW	00H
	DW	00H
	DW	00H
	DW	00H
	DW	00H
	DW	00H
	DW	00H
	DW	00H
	DW	00H
	DW	00H
	DW	00H
	DW	00H
	DW	00H
	DW	00H
	DW	00H
	DW	00H
	DW	00H
	DW	00H
	DW	00H
	DW	00H
	DW	00H
	DW	00H
	DW	00H
	DW	035adH
	DW	04210H
	DW	04210H
	DW	04631H
	DW	04631H
	DW	04631H
	DW	04631H
	DW	04631H
	DW	04631H
	DW	04631H
	DW	04e73H
	DW	056b5H
	DW	04210H
	DW	035adH
	DW	035adH
	DW	02108H
	DW	00H
	DW	02H
	DW	083aH
	DW	01fH
	DW	041eH
	DW	018ccH
	DW	020e6H
	DW	01ce7H
	DW	01ce7H
	DW	01ce7H
	DW	01ce7H
	DW	01ce7H
	DW	014a5H
	DW	00H
	DW	00H
	DW	00H
	DW	0c63H
	DW	014a5H
	DW	014a5H
	DW	014a5H
	DW	014a5H
	DW	014a5H
	DW	014a5H
	DW	014a5H
	DW	014a5H
	DW	014a5H
	DW	014a5H
	DW	018c6H
	DW	01ce7H
	DW	01ce7H
	DW	01ce7H
	DW	01ce7H
	DW	01ce7H
	DW	01ce7H
	DW	01ce7H
	DW	01ce7H
	DW	01ce7H
	DW	01ce7H
	DW	01ce7H
	DW	01ce7H
	DW	01ce7H
	DW	01ce7H
	DW	01ce7H
	DW	01ce7H
	DW	01ce7H
	DW	01ce7H
	DW	01ce7H
	DW	01ce7H
	DW	01ce7H
	DW	01ce7H
	DW	01ce7H
	DW	01ce7H
	DW	01ce7H
	DW	01ce7H
	DW	01ce7H
	DW	01ce7H
	DW	01ce7H
	DW	01ce7H
	DW	01ce7H
	DW	01ce7H
	DW	01ce7H
	DW	01ce7H
	DW	01ce7H
	DW	01ce7H
	DW	01ce7H
	DW	01ce7H
	DW	01ce7H
	DW	01ce7H
	DW	01ce7H
	DW	01ce7H
	DW	01ce7H
	DW	01ce7H
	DW	01ce7H
	DW	01ce7H
	DW	01ce7H
	DW	01ce7H
	DW	01ce7H
	DW	01ce7H
	DW	01ce7H
	DW	01ce7H
	DW	01ce7H
	DW	01ce7H
	DW	01ce7H
	DW	01ce7H
	DW	01ce7H
	DW	01ce7H
	DW	01ce7H
	DW	01ce7H
	DW	01ce7H
	DW	01ce7H
	DW	01ce7H
	DW	01ce7H
	DW	01ce7H
	DW	01ce7H
	DW	01ce7H
	DW	01ce7H
	DW	01ce7H
	DW	01ce7H
	DW	01ce7H
	DW	01ce7H
	DW	01ce7H
	DW	01ce7H
	DW	01ce7H
	DW	01ce7H
	DW	01ce7H
	DW	01ce7H
	DW	01ce7H
	DW	01ce7H
	DW	01ce7H
	DW	01ce7H
	DW	01ce7H
	DW	01ce7H
	DW	01ce7H
	DW	01ce7H
	DW	01ce7H
	DW	01ce7H
	DW	01ce7H
	DW	01ce7H
	DW	01ce7H
	DW	01ce7H
	DW	01ce7H
	DW	01ce7H
	DW	01ce7H
	DW	01ce7H
	DW	01ce7H
	DW	01ce7H
	DW	01ce7H
	DW	01ce7H
	DW	01ce7H
	DW	01ce7H
	DW	01ce7H
	DW	01ce7H
	DW	01ce7H
	DW	01ce7H
	DW	01ce7H
	DW	01ce7H
	DW	01ce7H
	DW	01ce7H
	DW	01ce7H
	DW	018c6H
	DW	014a5H
	DW	014a5H
	DW	014a5H
	DW	014a5H
	DW	014a5H
	DW	014a5H
	DW	014a5H
	DW	014a5H
	DW	014a5H
	DW	014a5H
	DW	01084H
	DW	00H
	DW	00H
	DW	00H
	DW	014a5H
	DW	01ce7H
	DW	01ce7H
	DW	01ce7H
	DW	01ce7H
	DW	01ce7H
	DW	01ce6H
	DW	018acH
	DW	041eH
	DW	041fH
	DW	083cH
	DW	0424H
	DW	00H
	DW	01ce7H
	DW	035adH
	DW	035adH
	DW	035aeH
	DW	0294aH
	DW	00H
	DW	00H
	DW	00H
	DW	00H
	DW	00H
	DW	00H
	DW	00H
	DW	00H
	DW	00H
	DW	00H
	DW	00H
	DW	0421H
	DW	00H
	DW	00H
	DW	00H
	DW	00H
	DW	00H
	DW	00H
	DW	00H
	DW	00H
	DW	00H
	DW	00H
	DW	00H
	DW	00H
	DW	00H
	DW	00H
	DW	00H
	DW	00H
	DW	00H
	DW	00H
	DW	00H
	DW	00H
	DW	00H
	DW	00H
	DW	00H
	DW	00H
	DW	018c6H
	DW	04210H
	DW	04210H
	DW	04210H
	DW	04210H
	DW	04631H
	DW	04631H
	DW	04631H
	DW	04631H
	DW	04631H
	DW	04a52H
	DW	056b5H
	DW	04a52H
	DW	035adH
	DW	035adH
	DW	035adH
	DW	0842H
	DW	00H
	DW	0832H
	DW	01fH
	DW	01fH
	DW	01091H
	DW	020e6H
	DW	01ce7H
	DW	01ce7H
	DW	01ce7H
	DW	01ce7H
	DW	01ce7H
	DW	01ce7H
	DW	0421H
	DW	00H
	DW	00H
	DW	0c63H
	DW	014a5H
	DW	014a5H
	DW	014a5H
	DW	014a5H
	DW	014a5H
	DW	014a5H
	DW	014a5H
	DW	014a5H
	DW	014a5H
	DW	014a5H
	DW	018c6H
	DW	01ce7H
	DW	01ce7H
	DW	01ce7H
	DW	01ce7H
	DW	01ce7H
	DW	01ce7H
	DW	01ce7H
	DW	01ce7H
	DW	01ce7H
	DW	01ce7H
	DW	01ce7H
	DW	01ce7H
	DW	01ce7H
	DW	01ce7H
	DW	01ce7H
	DW	01ce7H
	DW	01ce7H
	DW	01ce7H
	DW	01ce7H
	DW	01ce7H
	DW	01ce7H
	DW	01ce7H
	DW	01ce7H
	DW	01ce7H
	DW	01ce7H
	DW	01ce7H
	DW	01ce7H
	DW	01ce7H
	DW	01ce7H
	DW	01ce7H
	DW	01ce7H
	DW	01ce7H
	DW	01ce7H
	DW	01ce7H
	DW	01ce7H
	DW	01ce7H
	DW	01ce7H
	DW	01ce7H
	DW	01ce7H
	DW	01ce7H
	DW	01ce7H
	DW	01ce7H
	DW	01ce7H
	DW	01ce7H
	DW	01ce7H
	DW	01ce7H
	DW	01ce7H
	DW	01ce7H
	DW	01ce7H
	DW	01ce7H
	DW	01ce7H
	DW	01ce7H
	DW	01ce7H
	DW	01ce7H
	DW	01ce7H
	DW	01ce7H
	DW	01ce7H
	DW	01ce7H
	DW	01ce7H
	DW	01ce7H
	DW	01ce7H
	DW	01ce7H
	DW	01ce7H
	DW	01ce7H
	DW	01ce7H
	DW	01ce7H
	DW	01ce7H
	DW	01ce7H
	DW	01ce7H
	DW	01ce7H
	DW	01ce7H
	DW	01ce7H
	DW	01ce7H
	DW	01ce7H
	DW	01ce7H
	DW	01ce7H
	DW	01ce7H
	DW	01ce7H
	DW	01ce7H
	DW	01ce7H
	DW	01ce7H
	DW	01ce7H
	DW	01ce7H
	DW	01ce7H
	DW	01ce7H
	DW	01ce7H
	DW	01ce7H
	DW	01ce7H
	DW	01ce7H
	DW	01ce7H
	DW	01ce7H
	DW	01ce7H
	DW	01ce7H
	DW	01ce7H
	DW	01ce7H
	DW	01ce7H
	DW	01ce7H
	DW	01ce7H
	DW	01ce7H
	DW	01ce7H
	DW	01ce7H
	DW	01ce7H
	DW	01ce7H
	DW	01ce7H
	DW	01ce7H
	DW	01ce7H
	DW	01ce7H
	DW	01ce7H
	DW	01ce7H
	DW	01ce7H
	DW	01ce7H
	DW	01ce7H
	DW	01ce7H
	DW	018c6H
	DW	014a5H
	DW	014a5H
	DW	014a5H
	DW	014a5H
	DW	014a5H
	DW	014a5H
	DW	014a5H
	DW	014a5H
	DW	014a5H
	DW	014a5H
	DW	0c63H
	DW	00H
	DW	00H
	DW	0421H
	DW	018c6H
	DW	01ce7H
	DW	01ce7H
	DW	01ce7H
	DW	01ce7H
	DW	01ce7H
	DW	020e6H
	DW	01090H
	DW	01fH
	DW	01fH
	DW	0833H
	DW	00H
	DW	00H
	DW	02d6bH
	DW	035adH
	DW	035adH
	DW	035adH
	DW	014a5H
	DW	00H
	DW	00H
	DW	00H
	DW	00H
	DW	00H
	DW	00H
	DW	00H
	DW	00H
	DW	00H
	DW	00H
	DW	00H
	DW	00H
	DW	00H
	DW	00H
	DW	00H
	DW	00H
	DW	00H
	DW	00H
	DW	00H
	DW	00H
	DW	00H
	DW	00H
	DW	00H
	DW	00H
	DW	00H
	DW	00H
	DW	00H
	DW	00H
	DW	00H
	DW	00H
	DW	00H
	DW	00H
	DW	00H
	DW	00H
	DW	0421H
	DW	0318cH
	DW	04210H
	DW	04210H
	DW	04210H
	DW	04210H
	DW	04210H
	DW	04631H
	DW	04631H
	DW	04631H
	DW	04631H
	DW	04e73H
	DW	05294H
	DW	03defH
	DW	035adH
	DW	035adH
	DW	01ce7H
	DW	00H
	DW	0427H
	DW	041eH
	DW	01fH
	DW	0859H
	DW	01ce8H
	DW	01ce7H
	DW	01ce7H
	DW	01ce7H
	DW	01ce7H
	DW	01ce7H
	DW	01ce7H
	DW	0c63H
	DW	00H
	DW	00H
	DW	0842H
	DW	014a5H
	DW	014a5H
	DW	014a5H
	DW	014a5H
	DW	014a5H
	DW	014a5H
	DW	014a5H
	DW	014a5H
	DW	014a5H
	DW	014a5H
	DW	014a5H
	DW	01ce7H
	DW	01ce7H
	DW	01ce7H
	DW	01ce7H
	DW	01ce7H
	DW	01ce7H
	DW	01ce7H
	DW	01ce7H
	DW	01ce7H
	DW	01ce7H
	DW	01ce7H
	DW	01ce7H
	DW	01ce7H
	DW	01ce7H
	DW	01ce7H
	DW	01ce7H
	DW	01ce7H
	DW	01ce7H
	DW	01ce7H
	DW	01ce7H
	DW	01ce7H
	DW	01ce7H
	DW	01ce7H
	DW	01ce7H
	DW	01ce7H
	DW	01ce7H
	DW	01ce7H
	DW	01ce7H
	DW	01ce7H
	DW	01ce7H
	DW	01ce7H
	DW	01ce7H
	DW	01ce7H
	DW	01ce7H
	DW	01ce7H
	DW	01ce7H
	DW	01ce7H
	DW	01ce7H
	DW	01ce7H
	DW	01ce7H
	DW	01ce7H
	DW	01ce7H
	DW	01ce7H
	DW	01ce7H
	DW	01ce7H
	DW	01ce7H
	DW	01ce7H
	DW	01ce7H
	DW	01ce7H
	DW	01ce7H
	DW	01ce7H
	DW	01ce7H
	DW	01ce7H
	DW	01ce7H
	DW	01ce7H
	DW	01ce7H
	DW	01ce7H
	DW	01ce7H
	DW	01ce7H
	DW	01ce7H
	DW	01ce7H
	DW	01ce7H
	DW	01ce7H
	DW	01ce7H
	DW	01ce7H
	DW	01ce7H
	DW	01ce7H
	DW	01ce7H
	DW	01ce7H
	DW	01ce7H
	DW	01ce7H
	DW	01ce7H
	DW	01ce7H
	DW	01ce7H
	DW	01ce7H
	DW	01ce7H
	DW	01ce7H
	DW	01ce7H
	DW	01ce7H
	DW	01ce7H
	DW	01ce7H
	DW	01ce7H
	DW	01ce7H
	DW	01ce7H
	DW	01ce7H
	DW	01ce7H
	DW	01ce7H
	DW	01ce7H
	DW	01ce7H
	DW	01ce7H
	DW	01ce7H
	DW	01ce7H
	DW	01ce7H
	DW	01ce7H
	DW	01ce7H
	DW	01ce7H
	DW	01ce7H
	DW	01ce7H
	DW	01ce7H
	DW	01ce7H
	DW	01ce7H
	DW	01ce7H
	DW	01ce7H
	DW	01ce7H
	DW	01ce7H
	DW	01ce7H
	DW	01ce7H
	DW	01ce7H
	DW	01ce7H
	DW	01ce7H
	DW	01ce7H
	DW	01ce7H
	DW	01ce7H
	DW	01ce7H
	DW	01ce7H
	DW	018a6H
	DW	014a5H
	DW	014a5H
	DW	014a5H
	DW	014a5H
	DW	014a5H
	DW	014a5H
	DW	014a5H
	DW	014a5H
	DW	014a5H
	DW	014a5H
	DW	0842H
	DW	00H
	DW	00H
	DW	0842H
	DW	01ce7H
	DW	01ce7H
	DW	01ce7H
	DW	01ce7H
	DW	01ce7H
	DW	01ce7H
	DW	01ce8H
	DW	0859H
	DW	01fH
	DW	041fH
	DW	0429H
	DW	00H
	DW	014a5H
	DW	035adH
	DW	031adH
	DW	035adH
	DW	02d6bH
	DW	0421H
	DW	00H
	DW	00H
	DW	00H
	DW	00H
	DW	00H
	DW	00H
	DW	00H
	DW	00H
	DW	00H
	DW	00H
	DW	00H
	DW	00H
	DW	00H
	DW	00H
	DW	00H
	DW	00H
	DW	00H
	DW	00H
	DW	00H
	DW	00H
	DW	00H
	DW	00H
	DW	00H
	DW	00H
	DW	00H
	DW	00H
	DW	00H
	DW	00H
	DW	00H
	DW	00H
	DW	00H
	DW	00H
	DW	00H
	DW	018c6H
	DW	04210H
	DW	04210H
	DW	04210H
	DW	04210H
	DW	04210H
	DW	04210H
	DW	04210H
	DW	04631H
	DW	04631H
	DW	04a52H
	DW	056b5H
	DW	04631H
	DW	035adH
	DW	035adH
	DW	0294bH
	DW	00H
	DW	00H
	DW	0838H
	DW	01fH
	DW	041eH
	DW	018cbH
	DW	01ce6H
	DW	01ce7H
	DW	01ce7H
	DW	01ce7H
	DW	018e7H
	DW	01ce7H
	DW	01084H
	DW	00H
	DW	00H
	DW	0421H
	DW	01084H
	DW	014a5H
	DW	014a5H
	DW	014a5H
	DW	014a5H
	DW	014a5H
	DW	014a5H
	DW	014a5H
	DW	014a5H
	DW	014a5H
	DW	014a5H
	DW	01ce7H
	DW	01ce7H
	DW	01ce7H
	DW	01ce7H
	DW	01ce7H
	DW	01ce7H
	DW	01ce7H
	DW	01ce7H
	DW	01ce7H
	DW	01ce7H
	DW	01ce7H
	DW	01ce7H
	DW	01ce7H
	DW	01ce7H
	DW	01ce7H
	DW	01ce7H
	DW	01ce7H
	DW	01ce7H
	DW	01ce7H
	DW	01ce7H
	DW	01ce7H
	DW	01ce7H
	DW	01ce7H
	DW	01ce7H
	DW	01ce7H
	DW	01ce7H
	DW	01ce7H
	DW	01ce7H
	DW	01ce7H
	DW	01ce7H
	DW	01ce7H
	DW	01ce7H
	DW	01ce7H
	DW	01ce7H
	DW	01ce7H
	DW	01ce7H
	DW	01ce7H
	DW	01ce7H
	DW	01ce7H
	DW	01ce7H
	DW	01ce7H
	DW	01ce7H
	DW	01ce7H
	DW	01ce7H
	DW	01ce7H
	DW	01ce7H
	DW	01ce7H
	DW	01ce7H
	DW	01ce7H
	DW	01ce7H
	DW	01ce7H
	DW	01ce7H
	DW	01ce7H
	DW	01ce7H
	DW	01ce7H
	DW	01ce7H
	DW	01ce7H
	DW	01ce7H
	DW	01ce7H
	DW	01ce7H
	DW	01ce7H
	DW	01ce7H
	DW	01ce7H
	DW	01ce7H
	DW	01ce7H
	DW	01ce7H
	DW	01ce7H
	DW	01ce7H
	DW	01ce7H
	DW	01ce7H
	DW	01ce7H
	DW	01ce7H
	DW	01ce7H
	DW	01ce7H
	DW	01ce7H
	DW	01ce7H
	DW	01ce7H
	DW	01ce7H
	DW	01ce7H
	DW	01ce7H
	DW	01ce7H
	DW	01ce7H
	DW	01ce7H
	DW	01ce7H
	DW	01ce7H
	DW	01ce7H
	DW	01ce7H
	DW	01ce7H
	DW	01ce7H
	DW	01ce7H
	DW	01ce7H
	DW	01ce7H
	DW	01ce7H
	DW	01ce7H
	DW	01ce7H
	DW	01ce7H
	DW	01ce7H
	DW	01ce7H
	DW	01ce7H
	DW	01ce7H
	DW	01ce7H
	DW	01ce7H
	DW	01ce7H
	DW	01ce7H
	DW	01ce7H
	DW	01ce7H
	DW	01ce7H
	DW	01ce7H
	DW	01ce7H
	DW	01ce7H
	DW	01ce7H
	DW	01ce7H
	DW	01ce7H
	DW	01ce7H
	DW	01ce7H
	DW	01ce7H
	DW	01ce7H
	DW	014a5H
	DW	014a5H
	DW	014a5H
	DW	014a5H
	DW	014a5H
	DW	014a5H
	DW	014a5H
	DW	014a5H
	DW	014a5H
	DW	014a5H
	DW	014a5H
	DW	0421H
	DW	00H
	DW	00H
	DW	01084H
	DW	01ce7H
	DW	01ce7H
	DW	01ce7H
	DW	01ce7H
	DW	01ce7H
	DW	01ce6H
	DW	018caH
	DW	041eH
	DW	041fH
	DW	0439H
	DW	0402H
	DW	00H
	DW	0294aH
	DW	035adH
	DW	035adH
	DW	035adH
	DW	01ce7H
	DW	00H
	DW	00H
	DW	00H
	DW	00H
	DW	00H
	DW	00H
	DW	00H
	DW	00H
	DW	00H
	DW	00H
	DW	00H
	DW	00H
	DW	00H
	DW	00H
	DW	00H
	DW	00H
	DW	00H
	DW	00H
	DW	00H
	DW	00H
	DW	00H
	DW	00H
	DW	00H
	DW	00H
	DW	00H
	DW	00H
	DW	00H
	DW	00H
	DW	00H
	DW	00H
	DW	00H
	DW	00H
	DW	00H
	DW	0318cH
	DW	04210H
	DW	03defH
	DW	04210H
	DW	04210H
	DW	04210H
	DW	04210H
	DW	04210H
	DW	04210H
	DW	04631H
	DW	04e73H
	DW	04e73H
	DW	039ceH
	DW	031adH
	DW	035acH
	DW	01084H
	DW	00H
	DW	082dH
	DW	041fH
	DW	01fH
	DW	0c75H
	DW	01ce6H
	DW	01ce7H
	DW	01ce7H
	DW	01ce7H
	DW	01ce7H
	DW	01ce7H
	DW	018c6H
	DW	00H
	DW	00H
	DW	00H
	DW	01084H
	DW	014a5H
	DW	014a5H
	DW	014a5H
	DW	014a5H
	DW	014a5H
	DW	014a5H
	DW	014a5H
	DW	014a5H
	DW	014a5H
	DW	014a5H
	DW	01ce7H
	DW	01ce7H
	DW	01ce7H
	DW	01ce7H
	DW	01ce7H
	DW	01ce7H
	DW	01ce7H
	DW	01ce7H
	DW	01ce7H
	DW	01ce7H
	DW	01ce7H
	DW	01ce7H
	DW	01ce7H
	DW	01ce7H
	DW	01ce7H
	DW	01ce7H
	DW	01ce7H
	DW	01ce7H
	DW	01ce7H
	DW	01ce7H
	DW	01ce7H
	DW	01ce7H
	DW	01ce7H
	DW	01ce7H
	DW	01ce7H
	DW	01ce7H
	DW	01ce7H
	DW	01ce7H
	DW	01ce7H
	DW	01ce7H
	DW	01ce7H
	DW	01ce7H
	DW	01ce7H
	DW	01ce7H
	DW	01ce7H
	DW	01ce7H
	DW	01ce7H
	DW	01ce7H
	DW	01ce7H
	DW	01ce7H
	DW	01ce7H
	DW	01ce7H
	DW	01ce7H
	DW	01ce7H
	DW	01ce7H
	DW	01ce7H
	DW	01ce7H
	DW	01ce7H
	DW	01ce7H
	DW	01ce7H
	DW	01ce7H
	DW	01ce7H
	DW	01ce7H
	DW	01ce7H
	DW	01ce7H
	DW	01ce7H
	DW	01ce7H
	DW	01ce7H
	DW	01ce7H
	DW	01ce7H
	DW	01ce7H
	DW	01ce7H
	DW	01ce7H
	DW	01ce7H
	DW	01ce7H
	DW	01ce7H
	DW	01ce7H
	DW	01ce7H
	DW	01ce7H
	DW	01ce7H
	DW	01ce7H
	DW	01ce7H
	DW	01ce7H
	DW	01ce7H
	DW	01ce7H
	DW	01ce7H
	DW	01ce7H
	DW	01ce7H
	DW	01ce7H
	DW	01ce7H
	DW	01ce7H
	DW	01ce7H
	DW	01ce7H
	DW	01ce7H
	DW	01ce7H
	DW	01ce7H
	DW	01ce7H
	DW	01ce7H
	DW	01ce7H
	DW	01ce7H
	DW	01ce7H
	DW	01ce7H
	DW	01ce7H
	DW	01ce7H
	DW	01ce7H
	DW	01ce7H
	DW	01ce7H
	DW	01ce7H
	DW	01ce7H
	DW	01ce7H
	DW	01ce7H
	DW	01ce7H
	DW	01ce7H
	DW	01ce7H
	DW	01ce7H
	DW	01ce7H
	DW	01ce7H
	DW	01ce7H
	DW	01ce7H
	DW	01ce7H
	DW	01ce7H
	DW	01ce7H
	DW	01ce7H
	DW	01ce7H
	DW	01ce7H
	DW	01ce7H
	DW	01ce7H
	DW	01ce7H
	DW	01ce7H
	DW	014a5H
	DW	014a5H
	DW	014a5H
	DW	014a5H
	DW	014a5H
	DW	014a5H
	DW	014a5H
	DW	014a5H
	DW	014a5H
	DW	014a5H
	DW	01084H
	DW	00H
	DW	00H
	DW	00H
	DW	018c6H
	DW	01ce7H
	DW	01ce7H
	DW	01ce7H
	DW	01ce7H
	DW	01ce7H
	DW	01ce6H
	DW	01073H
	DW	01fH
	DW	041fH
	DW	082eH
	DW	00H
	DW	01084H
	DW	035adH
	DW	035adH
	DW	035adH
	DW	02d6bH
	DW	0842H
	DW	00H
	DW	00H
	DW	00H
	DW	00H
	DW	00H
	DW	00H
	DW	00H
	DW	00H
	DW	00H
	DW	00H
	DW	00H
	DW	00H
	DW	00H
	DW	00H
	DW	00H
	DW	00H
	DW	00H
	DW	00H
	DW	00H
	DW	00H
	DW	00H
	DW	00H
	DW	00H
	DW	00H
	DW	00H
	DW	00H
	DW	00H
	DW	00H
	DW	00H
	DW	00H
	DW	00H
	DW	014a5H
	DW	03defH
	DW	03defH
	DW	03defH
	DW	03defH
	DW	04210H
	DW	04210H
	DW	04210H
	DW	04210H
	DW	04210H
	DW	04631H
	DW	05294H
	DW	04210H
	DW	035adH
	DW	035adH
	DW	01ce7H
	DW	00H
	DW	0403H
	DW	041bH
	DW	01fH
	DW	083dH
	DW	018caH
	DW	01ce6H
	DW	01ce7H
	DW	01ce7H
	DW	01ce7H
	DW	01ce7H
	DW	01ce7H
	DW	0842H
	DW	00H
	DW	00H
	DW	0842H
	DW	014a5H
	DW	014a5H
	DW	014a5H
	DW	014a5H
	DW	014a5H
	DW	014a5H
	DW	014a5H
	DW	014a5H
	DW	014a5H
	DW	014a5H
	DW	018c6H
	DW	01ce7H
	DW	01ce7H
	DW	01ce7H
	DW	01ce7H
	DW	01ce7H
	DW	01ce7H
	DW	01ce7H
	DW	01ce7H
	DW	01ce7H
	DW	01ce7H
	DW	01ce7H
	DW	01ce7H
	DW	01ce7H
	DW	01ce7H
	DW	01ce7H
	DW	01ce7H
	DW	01ce7H
	DW	01ce7H
	DW	01ce7H
	DW	01ce7H
	DW	01ce7H
	DW	01ce7H
	DW	01ce7H
	DW	01ce7H
	DW	01ce7H
	DW	01ce7H
	DW	01ce7H
	DW	01ce7H
	DW	01ce7H
	DW	01ce7H
	DW	01ce7H
	DW	01ce7H
	DW	01ce7H
	DW	01ce7H
	DW	01ce7H
	DW	01ce7H
	DW	01ce7H
	DW	01ce7H
	DW	01ce7H
	DW	01ce7H
	DW	01ce7H
	DW	01ce7H
	DW	01ce7H
	DW	01ce7H
	DW	01ce7H
	DW	01ce7H
	DW	01ce7H
	DW	01ce7H
	DW	01ce7H
	DW	01ce7H
	DW	01ce7H
	DW	01ce7H
	DW	01ce7H
	DW	01ce7H
	DW	01ce7H
	DW	01ce7H
	DW	01ce7H
	DW	01ce7H
	DW	01ce7H
	DW	01ce7H
	DW	01ce7H
	DW	01ce7H
	DW	01ce7H
	DW	01ce7H
	DW	01ce7H
	DW	01ce7H
	DW	01ce7H
	DW	01ce7H
	DW	01ce7H
	DW	01ce7H
	DW	01ce7H
	DW	01ce7H
	DW	01ce7H
	DW	01ce7H
	DW	01ce7H
	DW	01ce7H
	DW	01ce7H
	DW	01ce7H
	DW	01ce7H
	DW	01ce7H
	DW	01ce7H
	DW	01ce7H
	DW	01ce7H
	DW	01ce7H
	DW	01ce7H
	DW	01ce7H
	DW	01ce7H
	DW	01ce7H
	DW	01ce7H
	DW	01ce7H
	DW	01ce7H
	DW	01ce7H
	DW	01ce7H
	DW	01ce7H
	DW	01ce7H
	DW	01ce7H
	DW	01ce7H
	DW	01ce7H
	DW	01ce7H
	DW	01ce7H
	DW	01ce7H
	DW	01ce7H
	DW	01ce7H
	DW	01ce7H
	DW	01ce7H
	DW	01ce7H
	DW	01ce7H
	DW	01ce7H
	DW	01ce7H
	DW	01ce7H
	DW	01ce7H
	DW	01ce7H
	DW	01ce7H
	DW	01ce7H
	DW	01ce7H
	DW	01ce7H
	DW	01ce7H
	DW	01ce7H
	DW	01ce7H
	DW	01ce7H
	DW	014a5H
	DW	014a5H
	DW	014a5H
	DW	014a5H
	DW	014a5H
	DW	014a5H
	DW	014a5H
	DW	014a5H
	DW	014a5H
	DW	014a5H
	DW	0c63H
	DW	00H
	DW	00H
	DW	0842H
	DW	01ce7H
	DW	01ce7H
	DW	01ce7H
	DW	01ce7H
	DW	01ce7H
	DW	01ce7H
	DW	01ce7H
	DW	083aH
	DW	01fH
	DW	083cH
	DW	0424H
	DW	00H
	DW	02529H
	DW	035adH
	DW	035adH
	DW	035adH
	DW	01ce7H
	DW	00H
	DW	00H
	DW	00H
	DW	00H
	DW	00H
	DW	00H
	DW	00H
	DW	00H
	DW	00H
	DW	00H
	DW	00H
	DW	00H
	DW	00H
	DW	00H
	DW	00H
	DW	00H
	DW	00H
	DW	00H
	DW	00H
	DW	00H
	DW	00H
	DW	00H
	DW	00H
	DW	00H
	DW	00H
	DW	00H
	DW	00H
	DW	00H
	DW	00H
	DW	00H
	DW	00H
	DW	0294aH
	DW	03defH
	DW	03defH
	DW	03defH
	DW	03defH
	DW	03defH
	DW	04210H
	DW	04210H
	DW	04210H
	DW	04210H
	DW	04e73H
	DW	04e73H
	DW	039ceH
	DW	035adH
	DW	0318cH
	DW	0842H
	DW	00H
	DW	0830H
	DW	01fH
	DW	01fH
	DW	014aeH
	DW	01d06H
	DW	01ce7H
	DW	01ce7H
	DW	01ce7H
	DW	01ce7H
	DW	01ce7H
	DW	01084H
	DW	00H
	DW	00H
	DW	0421H
	DW	01084H
	DW	014a5H
	DW	014a5H
	DW	014a5H
	DW	014a5H
	DW	014a5H
	DW	014a5H
	DW	014a5H
	DW	014a5H
	DW	014a5H
	DW	018c6H
	DW	01ce7H
	DW	01ce7H
	DW	01ce7H
	DW	01ce7H
	DW	01ce7H
	DW	01ce7H
	DW	01ce7H
	DW	01ce7H
	DW	01ce7H
	DW	01ce7H
	DW	01ce7H
	DW	01ce7H
	DW	01ce7H
	DW	01ce7H
	DW	01ce7H
	DW	01ce7H
	DW	01ce7H
	DW	01ce7H
	DW	01ce7H
	DW	01ce7H
	DW	01ce7H
	DW	01ce7H
	DW	01ce7H
	DW	01ce7H
	DW	01ce7H
	DW	01ce7H
	DW	01ce7H
	DW	01ce7H
	DW	01ce7H
	DW	01ce7H
	DW	01ce7H
	DW	01ce7H
	DW	01ce7H
	DW	01ce7H
	DW	01ce7H
	DW	01ce7H
	DW	01ce7H
	DW	01ce7H
	DW	01ce7H
	DW	01ce7H
	DW	01ce7H
	DW	01ce7H
	DW	01ce7H
	DW	01ce7H
	DW	01ce7H
	DW	01ce7H
	DW	01ce7H
	DW	01ce7H
	DW	01ce7H
	DW	01ce7H
	DW	01ce7H
	DW	01ce7H
	DW	01ce7H
	DW	01ce7H
	DW	01ce7H
	DW	01ce7H
	DW	01ce7H
	DW	01ce7H
	DW	01ce7H
	DW	01ce7H
	DW	01ce7H
	DW	01ce7H
	DW	01ce7H
	DW	01ce7H
	DW	01ce7H
	DW	01ce7H
	DW	01ce7H
	DW	01ce7H
	DW	01ce7H
	DW	01ce7H
	DW	01ce7H
	DW	01ce7H
	DW	01ce7H
	DW	01ce7H
	DW	01ce7H
	DW	01ce7H
	DW	01ce7H
	DW	01ce7H
	DW	01ce7H
	DW	01ce7H
	DW	01ce7H
	DW	01ce7H
	DW	01ce7H
	DW	01ce7H
	DW	01ce7H
	DW	01ce7H
	DW	01ce7H
	DW	01ce7H
	DW	01ce7H
	DW	01ce7H
	DW	01ce7H
	DW	01ce7H
	DW	01ce7H
	DW	01ce7H
	DW	01ce7H
	DW	01ce7H
	DW	01ce7H
	DW	01ce7H
	DW	01ce7H
	DW	01ce7H
	DW	01ce7H
	DW	01ce7H
	DW	01ce7H
	DW	01ce7H
	DW	01ce7H
	DW	01ce7H
	DW	01ce7H
	DW	01ce7H
	DW	01ce7H
	DW	01ce7H
	DW	01ce7H
	DW	01ce7H
	DW	01ce7H
	DW	01ce7H
	DW	01ce7H
	DW	01ce7H
	DW	01ce7H
	DW	01ce7H
	DW	01ce7H
	DW	01ce7H
	DW	01ce7H
	DW	018c6H
	DW	014a5H
	DW	014a5H
	DW	014a5H
	DW	014a5H
	DW	014a5H
	DW	014a5H
	DW	014a5H
	DW	014a5H
	DW	014a5H
	DW	014a5H
	DW	0421H
	DW	00H
	DW	00H
	DW	01084H
	DW	01ce7H
	DW	01ce7H
	DW	01ce7H
	DW	01ce7H
	DW	01ce7H
	DW	01ce5H
	DW	014aeH
	DW	01fH
	DW	041fH
	DW	0833H
	DW	00H
	DW	0442H
	DW	0318cH
	DW	035adH
	DW	035adH
	DW	0316bH
	DW	0842H
	DW	00H
	DW	00H
	DW	00H
	DW	00H
	DW	00H
	DW	00H
	DW	00H
	DW	00H
	DW	00H
	DW	00H
	DW	00H
	DW	00H
	DW	00H
	DW	00H
	DW	00H
	DW	00H
	DW	00H
	DW	00H
	DW	00H
	DW	00H
	DW	00H
	DW	00H
	DW	00H
	DW	00H
	DW	00H
	DW	00H
	DW	00H
	DW	00H
	DW	00H
	DW	01084H
	DW	039ceH
	DW	03defH
	DW	03defH
	DW	03defH
	DW	03defH
	DW	03defH
	DW	03defH
	DW	04210H
	DW	04210H
	DW	04631H
	DW	05294H
	DW	04210H
	DW	035adH
	DW	035adH
	DW	0292aH
	DW	00H
	DW	0425H
	DW	041eH
	DW	01fH
	DW	0859H
	DW	01ce7H
	DW	01ce7H
	DW	01ce7H
	DW	01ce7H
	DW	01ce7H
	DW	01ce7H
	DW	018c6H
	DW	0421H
	DW	00H
	DW	00H
	DW	01084H
	DW	014a5H
	DW	014a5H
	DW	014a5H
	DW	014a5H
	DW	014a5H
	DW	014a5H
	DW	014a5H
	DW	014a5H
	DW	014a5H
	DW	014a5H
	DW	01ce7H
	DW	01ce7H
	DW	01ce7H
	DW	01ce7H
	DW	01ce7H
	DW	01ce7H
	DW	01ce7H
	DW	01ce7H
	DW	01ce7H
	DW	01ce7H
	DW	01ce7H
	DW	01ce7H
	DW	01ce7H
	DW	01ce7H
	DW	01ce7H
	DW	01ce7H
	DW	01ce7H
	DW	01ce7H
	DW	01ce7H
	DW	01ce7H
	DW	01ce7H
	DW	01ce7H
	DW	01ce7H
	DW	01ce7H
	DW	01ce7H
	DW	01ce7H
	DW	01ce7H
	DW	01ce7H
	DW	01ce7H
	DW	01ce7H
	DW	01ce7H
	DW	01ce7H
	DW	01ce7H
	DW	01ce7H
	DW	01ce7H
	DW	01ce7H
	DW	01ce7H
	DW	01ce7H
	DW	01ce7H
	DW	01ce7H
	DW	01ce7H
	DW	01ce7H
	DW	01ce7H
	DW	01ce7H
	DW	01ce7H
	DW	01ce7H
	DW	01ce7H
	DW	01ce7H
	DW	01ce7H
	DW	01ce7H
	DW	01ce7H
	DW	01ce7H
	DW	01ce7H
	DW	01ce7H
	DW	01ce7H
	DW	01ce7H
	DW	01ce7H
	DW	01ce7H
	DW	01ce7H
	DW	01ce7H
	DW	01ce7H
	DW	01ce7H
	DW	01ce7H
	DW	01ce7H
	DW	01ce7H
	DW	01ce7H
	DW	01ce7H
	DW	01ce7H
	DW	01ce7H
	DW	01ce7H
	DW	01ce7H
	DW	01ce7H
	DW	01ce7H
	DW	01ce7H
	DW	01ce7H
	DW	01ce7H
	DW	01ce7H
	DW	01ce7H
	DW	01ce7H
	DW	01ce7H
	DW	01ce7H
	DW	01ce7H
	DW	01ce7H
	DW	01ce7H
	DW	01ce7H
	DW	01ce7H
	DW	01ce7H
	DW	01ce7H
	DW	01ce7H
	DW	01ce7H
	DW	01ce7H
	DW	01ce7H
	DW	01ce7H
	DW	01ce7H
	DW	01ce7H
	DW	01ce7H
	DW	01ce7H
	DW	01ce7H
	DW	01ce7H
	DW	01ce7H
	DW	01ce7H
	DW	01ce7H
	DW	01ce7H
	DW	01ce7H
	DW	01ce7H
	DW	01ce7H
	DW	01ce7H
	DW	01ce7H
	DW	01ce7H
	DW	01ce7H
	DW	01ce7H
	DW	01ce7H
	DW	01ce7H
	DW	01ce7H
	DW	01ce7H
	DW	01ce7H
	DW	01ce7H
	DW	01ce7H
	DW	01ce7H
	DW	01ce7H
	DW	01ce7H
	DW	01ce7H
	DW	01ce7H
	DW	018c6H
	DW	014a5H
	DW	014a5H
	DW	014a5H
	DW	014a5H
	DW	014a5H
	DW	014a5H
	DW	014a5H
	DW	014a5H
	DW	014a5H
	DW	01084H
	DW	00H
	DW	00H
	DW	00H
	DW	018c6H
	DW	01ce7H
	DW	01ce7H
	DW	01ce7H
	DW	01ce7H
	DW	020e7H
	DW	018e7H
	DW	0859H
	DW	01fH
	DW	041eH
	DW	0426H
	DW	00H
	DW	01ce7H
	DW	035adH
	DW	031adH
	DW	035adH
	DW	01ce7H
	DW	00H
	DW	00H
	DW	00H
	DW	00H
	DW	00H
	DW	00H
	DW	00H
	DW	00H
	DW	00H
	DW	00H
	DW	00H
	DW	00H
	DW	00H
	DW	00H
	DW	00H
	DW	00H
	DW	00H
	DW	00H
	DW	00H
	DW	00H
	DW	00H
	DW	00H
	DW	00H
	DW	00H
	DW	00H
	DW	00H
	DW	00H
	DW	00H
	DW	00H
	DW	02529H
	DW	039ceH
	DW	03defH
	DW	03defH
	DW	03defH
	DW	03defH
	DW	03defH
	DW	03defH
	DW	03defH
	DW	04210H
	DW	04e73H
	DW	04e73H
	DW	039ceH
	DW	035adH
	DW	0318cH
	DW	0842H
	DW	00H
	DW	0433H
	DW	041fH
	DW	01fH
	DW	014aeH
	DW	01ce6H
	DW	01ce7H
	DW	01ce7H
	DW	01ce7H
	DW	01ce7H
	DW	01ce7H
	DW	0c63H
	DW	00H
	DW	00H
	DW	0842H
	DW	014a5H
	DW	014a5H
	DW	014a5H
	DW	014a5H
	DW	014a5H
	DW	014a5H
	DW	014a5H
	DW	014a5H
	DW	014a5H
	DW	014a5H
	DW	01ce7H
	DW	01ce7H
	DW	01ce7H
	DW	01ce7H
	DW	01ce7H
	DW	01ce7H
	DW	01ce7H
	DW	01ce7H
	DW	01ce7H
	DW	01ce7H
	DW	01ce7H
	DW	01ce7H
	DW	01ce7H
	DW	01ce7H
	DW	01ce7H
	DW	01ce7H
	DW	01ce7H
	DW	01ce7H
	DW	01ce7H
	DW	01ce7H
	DW	01ce7H
	DW	01ce7H
	DW	01ce7H
	DW	01ce7H
	DW	01ce7H
	DW	01ce7H
	DW	01ce7H
	DW	01ce7H
	DW	01ce7H
	DW	01ce7H
	DW	01ce7H
	DW	01ce7H
	DW	01ce7H
	DW	01ce7H
	DW	01ce7H
	DW	01ce7H
	DW	01ce7H
	DW	01ce7H
	DW	01ce7H
	DW	01ce7H
	DW	01ce7H
	DW	01ce7H
	DW	01ce7H
	DW	01ce7H
	DW	01ce7H
	DW	01ce7H
	DW	01ce7H
	DW	01ce7H
	DW	01ce7H
	DW	01ce7H
	DW	01ce7H
	DW	01ce7H
	DW	01ce7H
	DW	01ce7H
	DW	01ce7H
	DW	01ce7H
	DW	01ce7H
	DW	01ce7H
	DW	01ce7H
	DW	01ce7H
	DW	01ce7H
	DW	01ce7H
	DW	01ce7H
	DW	01ce7H
	DW	01ce7H
	DW	01ce7H
	DW	01ce7H
	DW	01ce7H
	DW	01ce7H
	DW	01ce7H
	DW	01ce7H
	DW	01ce7H
	DW	01ce7H
	DW	01ce7H
	DW	01ce7H
	DW	01ce7H
	DW	01ce7H
	DW	01ce7H
	DW	01ce7H
	DW	01ce7H
	DW	01ce7H
	DW	01ce7H
	DW	01ce7H
	DW	01ce7H
	DW	01ce7H
	DW	01ce7H
	DW	01ce7H
	DW	01ce7H
	DW	01ce7H
	DW	01ce7H
	DW	01ce7H
	DW	01ce7H
	DW	01ce7H
	DW	01ce7H
	DW	01ce7H
	DW	01ce7H
	DW	01ce7H
	DW	01ce7H
	DW	01ce7H
	DW	01ce7H
	DW	01ce7H
	DW	01ce7H
	DW	01ce7H
	DW	01ce7H
	DW	01ce7H
	DW	01ce7H
	DW	01ce7H
	DW	01ce7H
	DW	01ce7H
	DW	01ce7H
	DW	01ce7H
	DW	01ce7H
	DW	01ce7H
	DW	01ce7H
	DW	01ce7H
	DW	01ce7H
	DW	01ce7H
	DW	01ce7H
	DW	01ce7H
	DW	01ce7H
	DW	01ce7H
	DW	01ce7H
	DW	01ce7H
	DW	01ce7H
	DW	01ce7H
	DW	014a5H
	DW	014a5H
	DW	014a5H
	DW	014a5H
	DW	014a5H
	DW	014a5H
	DW	014a5H
	DW	014a5H
	DW	014a5H
	DW	014a5H
	DW	0842H
	DW	00H
	DW	00H
	DW	0c63H
	DW	01ce7H
	DW	01ce7H
	DW	01ce7H
	DW	01ce7H
	DW	01ce7H
	DW	01ce6H
	DW	014aeH
	DW	01fH
	DW	01fH
	DW	0834H
	DW	00H
	DW	0821H
	DW	0318cH
	DW	035adH
	DW	035adH
	DW	02d6bH
	DW	0c42H
	DW	00H
	DW	00H
	DW	00H
	DW	00H
	DW	00H
	DW	00H
	DW	00H
	DW	00H
	DW	00H
	DW	00H
	DW	0421H
	DW	00H
	DW	00H
	DW	00H
	DW	00H
	DW	00H
	DW	00H
	DW	00H
	DW	00H
	DW	00H
	DW	00H
	DW	00H
	DW	00H
	DW	00H
	DW	00H
	DW	00H
	DW	00H
	DW	0842H
	DW	035adH
	DW	039ceH
	DW	039ceH
	DW	03defH
	DW	03defH
	DW	03defH
	DW	03defH
	DW	03defH
	DW	03defH
	DW	04631H
	DW	05294H
	DW	04210H
	DW	035adH
	DW	035adH
	DW	01ce7H
	DW	00H
	DW	0426H
	DW	041eH
	DW	01fH
	DW	0859H
	DW	01ce7H
	DW	01ce7H
	DW	01ce7H
	DW	01ce7H
	DW	01ce7H
	DW	01ce7H
	DW	018a6H
	DW	00H
	DW	00H
	DW	00H
	DW	01084H
	DW	014a5H
	DW	014a5H
	DW	014a5H
	DW	014a5H
	DW	014a5H
	DW	014a5H
	DW	014a5H
	DW	014a5H
	DW	014a5H
	DW	018c6H
	DW	01ce7H
	DW	01ce7H
	DW	01ce7H
	DW	01ce7H
	DW	01ce7H
	DW	01ce7H
	DW	01ce7H
	DW	01ce7H
	DW	01ce7H
	DW	01ce7H
	DW	01ce7H
	DW	01ce7H
	DW	01ce7H
	DW	01ce7H
	DW	01ce7H
	DW	01ce7H
	DW	01ce7H
	DW	01ce7H
	DW	01ce7H
	DW	01ce7H
	DW	01ce7H
	DW	01ce7H
	DW	01ce7H
	DW	01ce7H
	DW	01ce7H
	DW	01ce7H
	DW	01ce7H
	DW	01ce7H
	DW	01ce7H
	DW	01ce7H
	DW	01ce7H
	DW	01ce7H
	DW	01ce7H
	DW	01ce7H
	DW	01ce7H
	DW	01ce7H
	DW	01ce7H
	DW	01ce7H
	DW	01ce7H
	DW	01ce7H
	DW	01ce7H
	DW	01ce7H
	DW	01ce7H
	DW	01ce7H
	DW	01ce7H
	DW	01ce7H
	DW	01ce7H
	DW	01ce7H
	DW	01ce7H
	DW	01ce7H
	DW	01ce7H
	DW	01ce7H
	DW	01ce7H
	DW	01ce7H
	DW	01ce7H
	DW	01ce7H
	DW	01ce7H
	DW	01ce7H
	DW	01ce7H
	DW	01ce7H
	DW	01ce7H
	DW	01ce7H
	DW	01ce7H
	DW	01ce7H
	DW	01ce7H
	DW	01ce7H
	DW	01ce7H
	DW	01ce7H
	DW	01ce7H
	DW	01ce7H
	DW	01ce7H
	DW	01ce7H
	DW	01ce7H
	DW	01ce7H
	DW	01ce7H
	DW	01ce7H
	DW	01ce7H
	DW	01ce7H
	DW	01ce7H
	DW	01ce7H
	DW	01ce7H
	DW	01ce7H
	DW	01ce7H
	DW	01ce7H
	DW	01ce7H
	DW	01ce7H
	DW	01ce7H
	DW	01ce7H
	DW	01ce7H
	DW	01ce7H
	DW	01ce7H
	DW	01ce7H
	DW	01ce7H
	DW	01ce7H
	DW	01ce7H
	DW	01ce7H
	DW	01ce7H
	DW	01ce7H
	DW	01ce7H
	DW	01ce7H
	DW	01ce7H
	DW	01ce7H
	DW	01ce7H
	DW	01ce7H
	DW	01ce7H
	DW	01ce7H
	DW	01ce7H
	DW	01ce7H
	DW	01ce7H
	DW	01ce7H
	DW	01ce7H
	DW	01ce7H
	DW	01ce7H
	DW	01ce7H
	DW	01ce7H
	DW	01ce7H
	DW	01ce7H
	DW	01ce7H
	DW	01ce7H
	DW	01ce7H
	DW	01ce7H
	DW	01ce7H
	DW	01ce7H
	DW	01ce7H
	DW	01ce7H
	DW	01ce7H
	DW	014a5H
	DW	014a5H
	DW	014a5H
	DW	014a5H
	DW	014a5H
	DW	014a5H
	DW	014a5H
	DW	014a5H
	DW	014a5H
	DW	014a5H
	DW	0421H
	DW	00H
	DW	00H
	DW	014a5H
	DW	01ce7H
	DW	01ce7H
	DW	01ce7H
	DW	01ce7H
	DW	01ce7H
	DW	01ce7H
	DW	0858H
	DW	01fH
	DW	041fH
	DW	0428H
	DW	00H
	DW	01ce7H
	DW	035adH
	DW	035adH
	DW	035adH
	DW	01ce7H
	DW	00H
	DW	00H
	DW	00H
	DW	00H
	DW	00H
	DW	00H
	DW	00H
	DW	00H
	DW	00H
	DW	00H
	DW	00H
	DW	00H
	DW	00H
	DW	00H
	DW	00H
	DW	00H
	DW	00H
	DW	00H
	DW	00H
	DW	00H
	DW	00H
	DW	00H
	DW	00H
	DW	00H
	DW	00H
	DW	00H
	DW	00H
	DW	01ce7H
	DW	039ceH
	DW	039ceH
	DW	039ceH
	DW	039ceH
	DW	03defH
	DW	03defH
	DW	03defH
	DW	03defH
	DW	03defH
	DW	04e73H
	DW	04e73H
	DW	039ceH
	DW	035adH
	DW	0318cH
	DW	0421H
	DW	00H
	DW	0433H
	DW	041fH
	DW	041fH
	DW	014aeH
	DW	01ce6H
	DW	01ce7H
	DW	01ce7H
	DW	01ce7H
	DW	01ce7H
	DW	01ce7H
	DW	0842H
	DW	00H
	DW	00H
	DW	0c63H
	DW	014a5H
	DW	014a5H
	DW	014a5H
	DW	014a5H
	DW	014a5H
	DW	014a5H
	DW	014a5H
	DW	014a5H
	DW	014a5H
	DW	018c6H
	DW	01ce7H
	DW	01ce7H
	DW	01ce7H
	DW	01ce7H
	DW	01ce7H
	DW	01ce7H
	DW	01ce7H
	DW	01ce7H
	DW	01ce7H
	DW	01ce7H
	DW	01ce7H
	DW	01ce7H
	DW	01ce7H
	DW	01ce7H
	DW	01ce7H
	DW	01ce7H
	DW	01ce7H
	DW	01ce7H
	DW	01ce7H
	DW	01ce7H
	DW	01ce7H
	DW	01ce7H
	DW	01ce7H
	DW	01ce7H
	DW	01ce7H
	DW	01ce7H
	DW	01ce7H
	DW	01ce7H
	DW	01ce7H
	DW	01ce7H
	DW	01ce7H
	DW	01ce7H
	DW	01ce7H
	DW	01ce7H
	DW	01ce7H
	DW	01ce7H
	DW	01ce7H
	DW	01ce7H
	DW	01ce7H
	DW	01ce7H
	DW	01ce7H
	DW	01ce7H
	DW	01ce7H
	DW	01ce7H
	DW	01ce7H
	DW	01ce7H
	DW	01ce7H
	DW	01ce7H
	DW	01ce7H
	DW	01ce7H
	DW	01ce7H
	DW	01ce7H
	DW	01ce7H
	DW	01ce7H
	DW	01ce7H
	DW	01ce7H
	DW	01ce7H
	DW	01ce7H
	DW	01ce7H
	DW	01ce7H
	DW	01ce7H
	DW	01ce7H
	DW	01ce7H
	DW	01ce7H
	DW	01ce7H
	DW	01ce7H
	DW	01ce7H
	DW	01ce7H
	DW	01ce7H
	DW	01ce7H
	DW	01ce7H
	DW	01ce7H
	DW	01ce7H
	DW	01ce7H
	DW	01ce7H
	DW	01ce7H
	DW	01ce7H
	DW	01ce7H
	DW	01ce7H
	DW	01ce7H
	DW	01ce7H
	DW	01ce7H
	DW	01ce7H
	DW	01ce7H
	DW	01ce7H
	DW	01ce7H
	DW	01ce7H
	DW	01ce7H
	DW	01ce7H
	DW	01ce7H
	DW	01ce7H
	DW	01ce7H
	DW	01ce7H
	DW	01ce7H
	DW	01ce7H
	DW	01ce7H
	DW	01ce7H
	DW	01ce7H
	DW	01ce7H
	DW	01ce7H
	DW	01ce7H
	DW	01ce7H
	DW	01ce7H
	DW	01ce7H
	DW	01ce7H
	DW	01ce7H
	DW	01ce7H
	DW	01ce7H
	DW	01ce7H
	DW	01ce7H
	DW	01ce7H
	DW	01ce7H
	DW	01ce7H
	DW	01ce7H
	DW	01ce7H
	DW	01ce7H
	DW	01ce7H
	DW	01ce7H
	DW	01ce7H
	DW	01ce7H
	DW	01ce7H
	DW	01ce7H
	DW	01ce7H
	DW	01ce7H
	DW	01ce7H
	DW	01ce7H
	DW	01ce7H
	DW	018c6H
	DW	014a5H
	DW	014a5H
	DW	014a5H
	DW	014a5H
	DW	014a5H
	DW	014a5H
	DW	014a5H
	DW	014a5H
	DW	014a5H
	DW	0c63H
	DW	00H
	DW	00H
	DW	0842H
	DW	01ce7H
	DW	01ce7H
	DW	01ce7H
	DW	01ce7H
	DW	01ce7H
	DW	01ce6H
	DW	018caH
	DW	041eH
	DW	041fH
	DW	0435H
	DW	00H
	DW	0421H
	DW	0358cH
	DW	035adH
	DW	031adH
	DW	02d6bH
	DW	0842H
	DW	00H
	DW	00H
	DW	00H
	DW	00H
	DW	00H
	DW	00H
	DW	00H
	DW	00H
	DW	00H
	DW	00H
	DW	00H
	DW	00H
	DW	00H
	DW	00H
	DW	00H
	DW	00H
	DW	00H
	DW	00H
	DW	00H
	DW	00H
	DW	00H
	DW	00H
	DW	00H
	DW	00H
	DW	00H
	DW	00H
	DW	02d6bH
	DW	039ceH
	DW	039ceH
	DW	039ceH
	DW	039ceH
	DW	039ceH
	DW	03defH
	DW	03defH
	DW	03defH
	DW	04210H
	DW	05294H
	DW	04631H
	DW	035adH
	DW	035adH
	DW	01ce7H
	DW	00H
	DW	0427H
	DW	041eH
	DW	01fH
	DW	0859H
	DW	01ce7H
	DW	01ce7H
	DW	01ce7H
	DW	01ce7H
	DW	01ce7H
	DW	01ce7H
	DW	014a5H
	DW	00H
	DW	00H
	DW	0421H
	DW	014a5H
	DW	014a5H
	DW	014a5H
	DW	014a5H
	DW	014a5H
	DW	014a5H
	DW	014a5H
	DW	014a5H
	DW	014a5H
	DW	014a5H
	DW	01ce7H
	DW	01ce7H
	DW	01ce7H
	DW	01ce7H
	DW	01ce7H
	DW	01ce7H
	DW	01ce7H
	DW	01ce7H
	DW	01ce7H
	DW	01ce7H
	DW	01ce7H
	DW	01ce7H
	DW	01ce7H
	DW	01ce7H
	DW	01ce7H
	DW	01ce7H
	DW	01ce7H
	DW	01ce7H
	DW	01ce7H
	DW	01ce7H
	DW	01ce7H
	DW	01ce7H
	DW	01ce7H
	DW	01ce7H
	DW	01ce7H
	DW	01ce7H
	DW	01ce7H
	DW	01ce7H
	DW	01ce7H
	DW	01ce7H
	DW	01ce7H
	DW	01ce7H
	DW	01ce7H
	DW	01ce7H
	DW	01ce7H
	DW	01ce7H
	DW	01ce7H
	DW	01ce7H
	DW	01ce7H
	DW	01ce7H
	DW	01ce7H
	DW	01ce7H
	DW	01ce7H
	DW	01ce7H
	DW	01ce7H
	DW	01ce7H
	DW	01ce7H
	DW	01ce7H
	DW	01ce7H
	DW	01ce7H
	DW	01ce7H
	DW	01ce7H
	DW	01ce7H
	DW	01ce7H
	DW	01ce7H
	DW	01ce7H
	DW	01ce7H
	DW	01ce7H
	DW	01ce7H
	DW	01ce7H
	DW	01ce7H
	DW	01ce7H
	DW	01ce7H
	DW	01ce7H
	DW	01ce7H
	DW	01ce7H
	DW	01ce7H
	DW	01ce7H
	DW	01ce7H
	DW	01ce7H
	DW	01ce7H
	DW	01ce7H
	DW	01ce7H
	DW	01ce7H
	DW	01ce7H
	DW	01ce7H
	DW	01ce7H
	DW	01ce7H
	DW	01ce7H
	DW	01ce7H
	DW	01ce7H
	DW	01ce7H
	DW	01ce7H
	DW	01ce7H
	DW	01ce7H
	DW	01ce7H
	DW	01ce7H
	DW	01ce7H
	DW	01ce7H
	DW	01ce7H
	DW	01ce7H
	DW	01ce7H
	DW	01ce7H
	DW	01ce7H
	DW	01ce7H
	DW	01ce7H
	DW	01ce7H
	DW	01ce7H
	DW	01ce7H
	DW	01ce7H
	DW	01ce7H
	DW	01ce7H
	DW	01ce7H
	DW	01ce7H
	DW	01ce7H
	DW	01ce7H
	DW	01ce7H
	DW	01ce7H
	DW	01ce7H
	DW	01ce7H
	DW	01ce7H
	DW	01ce7H
	DW	01ce7H
	DW	01ce7H
	DW	01ce7H
	DW	01ce7H
	DW	01ce7H
	DW	01ce7H
	DW	01ce7H
	DW	01ce7H
	DW	01ce7H
	DW	01ce7H
	DW	01ce7H
	DW	01ce7H
	DW	01ce7H
	DW	01ce7H
	DW	01ce7H
	DW	01ce7H
	DW	01ce7H
	DW	018c6H
	DW	014a5H
	DW	014a5H
	DW	014a5H
	DW	014a5H
	DW	014a5H
	DW	014a5H
	DW	014a5H
	DW	014a5H
	DW	014a5H
	DW	0842H
	DW	00H
	DW	00H
	DW	01084H
	DW	01ce7H
	DW	01ce7H
	DW	01ce7H
	DW	01ce7H
	DW	01ce7H
	DW	020e6H
	DW	0c74H
	DW	01fH
	DW	041eH
	DW	0428H
	DW	00H
	DW	01ce7H
	DW	035adH
	DW	031adH
	DW	0318dH
	DW	018c6H
	DW	00H
	DW	00H
	DW	00H
	DW	00H
	DW	00H
	DW	00H
	DW	00H
	DW	00H
	DW	00H
	DW	00H
	DW	00H
	DW	00H
	DW	00H
	DW	00H
	DW	00H
	DW	00H
	DW	00H
	DW	00H
	DW	00H
	DW	00H
	DW	00H
	DW	00H
	DW	00H
	DW	00H
	DW	00H
	DW	01084H
	DW	035adH
	DW	039ceH
	DW	039ceH
	DW	039ceH
	DW	039ceH
	DW	039ceH
	DW	039ceH
	DW	03defH
	DW	03deeH
	DW	04a52H
	DW	04e73H
	DW	039ceH
	DW	035adH
	DW	0318cH
	DW	0421H
	DW	00H
	DW	0833H
	DW	041fH
	DW	041fH
	DW	014adH
	DW	01ce6H
	DW	01ce7H
	DW	01ce7H
	DW	01ce7H
	DW	01ce7H
	DW	01ce7H
	DW	0842H
	DW	00H
	DW	00H
	DW	01084H
	DW	014a5H
	DW	014a5H
	DW	014a5H
	DW	014a5H
	DW	014a5H
	DW	014a5H
	DW	014a5H
	DW	014a5H
	DW	014a5H
	DW	018c6H
	DW	01ce7H
	DW	01ce7H
	DW	01ce7H
	DW	01ce7H
	DW	01ce7H
	DW	01ce7H
	DW	01ce7H
	DW	01ce7H
	DW	01ce7H
	DW	01ce7H
	DW	01ce7H
	DW	01ce7H
	DW	01ce7H
	DW	01ce7H
	DW	01ce7H
	DW	01ce7H
	DW	01ce7H
	DW	01ce7H
	DW	01ce7H
	DW	01ce7H
	DW	01ce7H
	DW	01ce7H
	DW	01ce7H
	DW	01ce7H
	DW	01ce7H
	DW	01ce7H
	DW	01ce7H
	DW	01ce7H
	DW	01ce7H
	DW	01ce7H
	DW	01ce7H
	DW	01ce7H
	DW	01ce7H
	DW	01ce7H
	DW	01ce7H
	DW	01ce7H
	DW	01ce7H
	DW	01ce7H
	DW	01ce7H
	DW	01ce7H
	DW	01ce7H
	DW	01ce7H
	DW	01ce7H
	DW	01ce7H
	DW	01ce7H
	DW	01ce7H
	DW	01ce7H
	DW	01ce7H
	DW	01ce7H
	DW	01ce7H
	DW	01ce7H
	DW	01ce7H
	DW	01ce7H
	DW	01ce7H
	DW	01ce7H
	DW	01ce7H
	DW	01ce7H
	DW	01ce7H
	DW	01ce7H
	DW	01ce7H
	DW	01ce7H
	DW	01ce7H
	DW	01ce7H
	DW	01ce7H
	DW	01ce7H
	DW	01ce7H
	DW	01ce7H
	DW	01ce7H
	DW	01ce7H
	DW	01ce7H
	DW	01ce7H
	DW	01ce7H
	DW	01ce7H
	DW	01ce7H
	DW	01ce7H
	DW	01ce7H
	DW	01ce7H
	DW	01ce7H
	DW	01ce7H
	DW	01ce7H
	DW	01ce7H
	DW	01ce7H
	DW	01ce7H
	DW	01ce7H
	DW	01ce7H
	DW	01ce7H
	DW	01ce7H
	DW	01ce7H
	DW	01ce7H
	DW	01ce7H
	DW	01ce7H
	DW	01ce7H
	DW	01ce7H
	DW	01ce7H
	DW	01ce7H
	DW	01ce7H
	DW	01ce7H
	DW	01ce7H
	DW	01ce7H
	DW	01ce7H
	DW	01ce7H
	DW	01ce7H
	DW	01ce7H
	DW	01ce7H
	DW	01ce7H
	DW	01ce7H
	DW	01ce7H
	DW	01ce7H
	DW	01ce7H
	DW	01ce7H
	DW	01ce7H
	DW	01ce7H
	DW	01ce7H
	DW	01ce7H
	DW	01ce7H
	DW	01ce7H
	DW	01ce7H
	DW	01ce7H
	DW	01ce7H
	DW	01ce7H
	DW	01ce7H
	DW	01ce7H
	DW	01ce7H
	DW	01ce7H
	DW	01ce7H
	DW	01ce7H
	DW	01ce7H
	DW	01ce7H
	DW	01ce7H
	DW	01ce7H
	DW	014a5H
	DW	014a5H
	DW	014a5H
	DW	014a5H
	DW	014a5H
	DW	014a5H
	DW	014a5H
	DW	014a5H
	DW	014a5H
	DW	01084H
	DW	00H
	DW	00H
	DW	0421H
	DW	01ce7H
	DW	01ce7H
	DW	01ce7H
	DW	01ce7H
	DW	01ce7H
	DW	01ce6H
	DW	014acH
	DW	041fH
	DW	01fH
	DW	0835H
	DW	00H
	DW	0842H
	DW	0318cH
	DW	035adH
	DW	035adH
	DW	0254aH
	DW	0421H
	DW	00H
	DW	00H
	DW	00H
	DW	00H
	DW	00H
	DW	00H
	DW	00H
	DW	00H
	DW	00H
	DW	00H
	DW	00H
	DW	00H
	DW	00H
	DW	00H
	DW	00H
	DW	00H
	DW	00H
	DW	00H
	DW	00H
	DW	00H
	DW	00H
	DW	00H
	DW	00H
	DW	00H
	DW	02108H
	DW	035adH
	DW	035adH
	DW	039ceH
	DW	039ceH
	DW	039ceH
	DW	039ceH
	DW	039ceH
	DW	039ceH
	DW	03defH
	DW	04e73H
	DW	04631H
	DW	035adH
	DW	035adH
	DW	01ce8H
	DW	00H
	DW	0404H
	DW	041dH
	DW	01fH
	DW	0839H
	DW	01ce7H
	DW	01ce6H
	DW	01ce7H
	DW	01ce7H
	DW	01ce7H
	DW	01ce7H
	DW	014a5H
	DW	00H
	DW	00H
	DW	0842H
	DW	014a5H
	DW	014a5H
	DW	014a5H
	DW	014a5H
	DW	014a5H
	DW	014a5H
	DW	014a5H
	DW	014a5H
	DW	014a5H
	DW	018c6H
	DW	01ce7H
	DW	01ce7H
	DW	01ce7H
	DW	01ce7H
	DW	01ce7H
	DW	01ce7H
	DW	01ce7H
	DW	01ce7H
	DW	01ce7H
	DW	01ce7H
	DW	01ce7H
	DW	01ce7H
	DW	01ce7H
	DW	01ce7H
	DW	01ce7H
	DW	01ce7H
	DW	01ce7H
	DW	01ce7H
	DW	01ce7H
	DW	01ce7H
	DW	01ce7H
	DW	01ce7H
	DW	01ce7H
	DW	01ce7H
	DW	01ce7H
	DW	01ce7H
	DW	01ce7H
	DW	01ce7H
	DW	01ce7H
	DW	01ce7H
	DW	01ce7H
	DW	01ce7H
	DW	01ce7H
	DW	01ce7H
	DW	01ce7H
	DW	01ce7H
	DW	01ce7H
	DW	01ce7H
	DW	01ce7H
	DW	01ce7H
	DW	01ce7H
	DW	01ce7H
	DW	01ce7H
	DW	01ce7H
	DW	01ce7H
	DW	01ce7H
	DW	01ce7H
	DW	01ce7H
	DW	01ce7H
	DW	01ce7H
	DW	01ce7H
	DW	01ce7H
	DW	01ce7H
	DW	01ce7H
	DW	01ce7H
	DW	01ce7H
	DW	01ce7H
	DW	01ce7H
	DW	01ce7H
	DW	01ce7H
	DW	01ce7H
	DW	01ce7H
	DW	01ce7H
	DW	01ce7H
	DW	01ce7H
	DW	01ce7H
	DW	01ce7H
	DW	01ce7H
	DW	01ce7H
	DW	01ce7H
	DW	01ce7H
	DW	01ce7H
	DW	01ce7H
	DW	01ce7H
	DW	01ce7H
	DW	01ce7H
	DW	01ce7H
	DW	01ce7H
	DW	01ce7H
	DW	01ce7H
	DW	01ce7H
	DW	01ce7H
	DW	01ce7H
	DW	01ce7H
	DW	01ce7H
	DW	01ce7H
	DW	01ce7H
	DW	01ce7H
	DW	01ce7H
	DW	01ce7H
	DW	01ce7H
	DW	01ce7H
	DW	01ce7H
	DW	01ce7H
	DW	01ce7H
	DW	01ce7H
	DW	01ce7H
	DW	01ce7H
	DW	01ce7H
	DW	01ce7H
	DW	01ce7H
	DW	01ce7H
	DW	01ce7H
	DW	01ce7H
	DW	01ce7H
	DW	01ce7H
	DW	01ce7H
	DW	01ce7H
	DW	01ce7H
	DW	01ce7H
	DW	01ce7H
	DW	01ce7H
	DW	01ce7H
	DW	01ce7H
	DW	01ce7H
	DW	01ce7H
	DW	01ce7H
	DW	01ce7H
	DW	01ce7H
	DW	01ce7H
	DW	01ce7H
	DW	01ce7H
	DW	01ce7H
	DW	01ce7H
	DW	01ce7H
	DW	01ce7H
	DW	01ce7H
	DW	01ce7H
	DW	01ce7H
	DW	01ce7H
	DW	01ce7H
	DW	018c6H
	DW	014a5H
	DW	014a5H
	DW	014a5H
	DW	014a5H
	DW	014a5H
	DW	014a5H
	DW	014a5H
	DW	014a5H
	DW	014a5H
	DW	0842H
	DW	00H
	DW	00H
	DW	01084H
	DW	01ce7H
	DW	01ce7H
	DW	01ce7H
	DW	01ce7H
	DW	01ce7H
	DW	018e7H
	DW	0859H
	DW	01fH
	DW	041eH
	DW	0426H
	DW	00H
	DW	01ce7H
	DW	039adH
	DW	035adH
	DW	0318cH
	DW	014a5H
	DW	00H
	DW	00H
	DW	00H
	DW	00H
	DW	00H
	DW	00H
	DW	00H
	DW	00H
	DW	00H
	DW	00H
	DW	00H
	DW	00H
	DW	00H
	DW	00H
	DW	00H
	DW	00H
	DW	00H
	DW	00H
	DW	00H
	DW	00H
	DW	00H
	DW	00H
	DW	00H
	DW	0421H
	DW	0318cH
	DW	035adH
	DW	035adH
	DW	035adH
	DW	035adH
	DW	039ceH
	DW	039ceH
	DW	039ceH
	DW	039ceH
	DW	04210H
	DW	05273H
	DW	03defH
	DW	035adH
	DW	035adH
	DW	0c63H
	DW	00H
	DW	0430H
	DW	01fH
	DW	01fH
	DW	014aeH
	DW	01ce6H
	DW	01ce7H
	DW	01ce7H
	DW	01ce7H
	DW	01ce7H
	DW	01ce7H
	DW	0421H
	DW	00H
	DW	00H
	DW	01084H
	DW	014a5H
	DW	014a5H
	DW	014a5H
	DW	014a5H
	DW	014a5H
	DW	014a5H
	DW	014a5H
	DW	014a5H
	DW	014a5H
	DW	01ce7H
	DW	01ce7H
	DW	01ce7H
	DW	01ce7H
	DW	01ce7H
	DW	01ce7H
	DW	01ce7H
	DW	01ce7H
	DW	01ce7H
	DW	01ce7H
	DW	01ce7H
	DW	01ce7H
	DW	01ce7H
	DW	01ce7H
	DW	01ce7H
	DW	01ce7H
	DW	01ce7H
	DW	01ce7H
	DW	01ce7H
	DW	01ce7H
	DW	01ce7H
	DW	01ce7H
	DW	01ce7H
	DW	01ce7H
	DW	01ce7H
	DW	01ce7H
	DW	01ce7H
	DW	01ce7H
	DW	01ce7H
	DW	01ce7H
	DW	01ce7H
	DW	01ce7H
	DW	01ce7H
	DW	01ce7H
	DW	01ce7H
	DW	01ce7H
	DW	01ce7H
	DW	01ce7H
	DW	01ce7H
	DW	01ce7H
	DW	01ce7H
	DW	01ce7H
	DW	01ce7H
	DW	01ce7H
	DW	01ce7H
	DW	01ce7H
	DW	01ce7H
	DW	01ce7H
	DW	01ce7H
	DW	01ce7H
	DW	01ce7H
	DW	01ce7H
	DW	01ce7H
	DW	01ce7H
	DW	01ce7H
	DW	01ce7H
	DW	01ce7H
	DW	01ce7H
	DW	01ce7H
	DW	01ce7H
	DW	01ce7H
	DW	01ce7H
	DW	01ce7H
	DW	01ce7H
	DW	01ce7H
	DW	01ce7H
	DW	01ce7H
	DW	01ce7H
	DW	01ce7H
	DW	01ce7H
	DW	01ce7H
	DW	01ce7H
	DW	01ce7H
	DW	01ce7H
	DW	01ce7H
	DW	01ce7H
	DW	01ce7H
	DW	01ce7H
	DW	01ce7H
	DW	01ce7H
	DW	01ce7H
	DW	01ce7H
	DW	01ce7H
	DW	01ce7H
	DW	01ce7H
	DW	01ce7H
	DW	01ce7H
	DW	01ce7H
	DW	01ce7H
	DW	01ce7H
	DW	01ce7H
	DW	01ce7H
	DW	01ce7H
	DW	01ce7H
	DW	01ce7H
	DW	01ce7H
	DW	01ce7H
	DW	01ce7H
	DW	01ce7H
	DW	01ce7H
	DW	01ce7H
	DW	01ce7H
	DW	01ce7H
	DW	01ce7H
	DW	01ce7H
	DW	01ce7H
	DW	01ce7H
	DW	01ce7H
	DW	01ce7H
	DW	01ce7H
	DW	01ce7H
	DW	01ce7H
	DW	01ce7H
	DW	01ce7H
	DW	01ce7H
	DW	01ce7H
	DW	01ce7H
	DW	01ce7H
	DW	01ce7H
	DW	01ce7H
	DW	01ce7H
	DW	01ce7H
	DW	01ce7H
	DW	01ce7H
	DW	01ce7H
	DW	01ce7H
	DW	01ce7H
	DW	01ce7H
	DW	01ce7H
	DW	01ce7H
	DW	01ce7H
	DW	01ce7H
	DW	01ce7H
	DW	014a5H
	DW	014a5H
	DW	014a5H
	DW	014a5H
	DW	014a5H
	DW	014a5H
	DW	014a5H
	DW	014a5H
	DW	014a5H
	DW	01084H
	DW	00H
	DW	00H
	DW	0421H
	DW	01ce7H
	DW	01ce7H
	DW	01ce7H
	DW	01ce7H
	DW	01ce7H
	DW	01ce6H
	DW	014aeH
	DW	041fH
	DW	01fH
	DW	0832H
	DW	00H
	DW	0c63H
	DW	035aeH
	DW	035adH
	DW	035adH
	DW	02508H
	DW	00H
	DW	00H
	DW	00H
	DW	00H
	DW	00H
	DW	00H
	DW	00H
	DW	00H
	DW	00H
	DW	00H
	DW	00H
	DW	00H
	DW	00H
	DW	00H
	DW	00H
	DW	00H
	DW	00H
	DW	00H
	DW	00H
	DW	00H
	DW	00H
	DW	00H
	DW	00H
	DW	014a5H
	DW	035adH
	DW	035adH
	DW	035adH
	DW	035adH
	DW	035adH
	DW	039ceH
	DW	039ceH
	DW	039ceH
	DW	039ceH
	DW	04a52H
	DW	04a52H
	DW	035ceH
	DW	035adH
	DW	0294aH
	DW	00H
	DW	0403H
	DW	043bH
	DW	01fH
	DW	0839H
	DW	01ce8H
	DW	01ce7H
	DW	01ce7H
	DW	01ce7H
	DW	01ce7H
	DW	01ce7H
	DW	014a5H
	DW	00H
	DW	00H
	DW	0842H
	DW	014a5H
	DW	014a5H
	DW	014a5H
	DW	014a5H
	DW	014a5H
	DW	014a5H
	DW	014a5H
	DW	014a5H
	DW	014a5H
	DW	018c6H
	DW	01ce7H
	DW	01ce7H
	DW	01ce7H
	DW	01ce7H
	DW	01ce7H
	DW	01ce7H
	DW	01ce7H
	DW	01ce7H
	DW	01ce7H
	DW	01ce7H
	DW	01ce7H
	DW	01ce7H
	DW	01ce7H
	DW	01ce7H
	DW	01ce7H
	DW	01ce7H
	DW	01ce7H
	DW	01ce7H
	DW	01ce7H
	DW	01ce7H
	DW	01ce7H
	DW	01ce7H
	DW	01ce7H
	DW	01ce7H
	DW	01ce7H
	DW	01ce7H
	DW	01ce7H
	DW	01ce7H
	DW	01ce7H
	DW	01ce7H
	DW	01ce7H
	DW	01ce7H
	DW	01ce7H
	DW	01ce7H
	DW	01ce7H
	DW	01ce7H
	DW	01ce7H
	DW	01ce7H
	DW	01ce7H
	DW	01ce7H
	DW	01ce7H
	DW	01ce7H
	DW	01ce7H
	DW	01ce7H
	DW	01ce7H
	DW	01ce7H
	DW	01ce7H
	DW	01ce7H
	DW	01ce7H
	DW	01ce7H
	DW	01ce7H
	DW	01ce7H
	DW	01ce7H
	DW	01ce7H
	DW	01ce7H
	DW	01ce7H
	DW	01ce7H
	DW	01ce7H
	DW	01ce7H
	DW	01ce7H
	DW	01ce7H
	DW	01ce7H
	DW	01ce7H
	DW	01ce7H
	DW	01ce7H
	DW	01ce7H
	DW	01ce7H
	DW	01ce7H
	DW	01ce7H
	DW	01ce7H
	DW	01ce7H
	DW	01ce7H
	DW	01ce7H
	DW	01ce7H
	DW	01ce7H
	DW	01ce7H
	DW	01ce7H
	DW	01ce7H
	DW	01ce7H
	DW	01ce7H
	DW	01ce7H
	DW	01ce7H
	DW	01ce7H
	DW	01ce7H
	DW	01ce7H
	DW	01ce7H
	DW	01ce7H
	DW	01ce7H
	DW	01ce7H
	DW	01ce7H
	DW	01ce7H
	DW	01ce7H
	DW	01ce7H
	DW	01ce7H
	DW	01ce7H
	DW	01ce7H
	DW	01ce7H
	DW	01ce7H
	DW	01ce7H
	DW	01ce7H
	DW	01ce7H
	DW	01ce7H
	DW	01ce7H
	DW	01ce7H
	DW	01ce7H
	DW	01ce7H
	DW	01ce7H
	DW	01ce7H
	DW	01ce7H
	DW	01ce7H
	DW	01ce7H
	DW	01ce7H
	DW	01ce7H
	DW	01ce7H
	DW	01ce7H
	DW	01ce7H
	DW	01ce7H
	DW	01ce7H
	DW	01ce7H
	DW	01ce7H
	DW	01ce7H
	DW	01ce7H
	DW	01ce7H
	DW	01ce7H
	DW	01ce7H
	DW	01ce7H
	DW	01ce7H
	DW	01ce7H
	DW	01ce7H
	DW	01ce7H
	DW	01ce7H
	DW	01ce7H
	DW	01ce7H
	DW	018c6H
	DW	014a5H
	DW	014a5H
	DW	014a5H
	DW	014a5H
	DW	014a5H
	DW	014a5H
	DW	014a5H
	DW	014a5H
	DW	014a5H
	DW	0842H
	DW	00H
	DW	00H
	DW	01084H
	DW	020e7H
	DW	01ce7H
	DW	01ce7H
	DW	01ce7H
	DW	01ce7H
	DW	01ce7H
	DW	0859H
	DW	01fH
	DW	041cH
	DW	04H
	DW	00H
	DW	0294aH
	DW	035adH
	DW	035adH
	DW	02d6bH
	DW	0c63H
	DW	00H
	DW	00H
	DW	00H
	DW	00H
	DW	00H
	DW	00H
	DW	00H
	DW	00H
	DW	00H
	DW	00H
	DW	00H
	DW	00H
	DW	00H
	DW	00H
	DW	00H
	DW	00H
	DW	00H
	DW	00H
	DW	00H
	DW	00H
	DW	00H
	DW	00H
	DW	02108H
	DW	0318cH
	DW	035adH
	DW	035adH
	DW	035adH
	DW	035adH
	DW	035adH
	DW	039ceH
	DW	035adH
	DW	03defH
	DW	04e73H
	DW	04210H
	DW	035acH
	DW	035adH
	DW	01ce7H
	DW	00H
	DW	042cH
	DW	041fH
	DW	01fH
	DW	014afH
	DW	01ce6H
	DW	01ce7H
	DW	018e7H
	DW	01ce7H
	DW	01ce7H
	DW	01ce7H
	DW	0842H
	DW	00H
	DW	00H
	DW	01084H
	DW	014a5H
	DW	014a5H
	DW	014a5H
	DW	014a5H
	DW	014a5H
	DW	014a5H
	DW	014a5H
	DW	014a5H
	DW	014a5H
	DW	01ce7H
	DW	01ce7H
	DW	01ce7H
	DW	01ce7H
	DW	01ce7H
	DW	01ce7H
	DW	01ce7H
	DW	01ce7H
	DW	01ce7H
	DW	01ce7H
	DW	01ce7H
	DW	01ce7H
	DW	01ce7H
	DW	01ce7H
	DW	01ce7H
	DW	01ce7H
	DW	01ce7H
	DW	01ce7H
	DW	01ce7H
	DW	01ce7H
	DW	01ce7H
	DW	01ce7H
	DW	01ce7H
	DW	01ce7H
	DW	01ce7H
	DW	01ce7H
	DW	01ce7H
	DW	01ce7H
	DW	01ce7H
	DW	01ce7H
	DW	01ce7H
	DW	01ce7H
	DW	01ce7H
	DW	01ce7H
	DW	01ce7H
	DW	01ce7H
	DW	01ce7H
	DW	01ce7H
	DW	01ce7H
	DW	01ce7H
	DW	01ce7H
	DW	01ce7H
	DW	01ce7H
	DW	01ce7H
	DW	01ce7H
	DW	01ce7H
	DW	01ce7H
	DW	01ce7H
	DW	01ce7H
	DW	01ce7H
	DW	01ce7H
	DW	01ce7H
	DW	01ce7H
	DW	01ce7H
	DW	01ce7H
	DW	01ce7H
	DW	01ce7H
	DW	01ce7H
	DW	01ce7H
	DW	01ce7H
	DW	01ce7H
	DW	01ce7H
	DW	01ce7H
	DW	01ce7H
	DW	01ce7H
	DW	01ce7H
	DW	01ce7H
	DW	01ce7H
	DW	01ce7H
	DW	01ce7H
	DW	01ce7H
	DW	01ce7H
	DW	01ce7H
	DW	01ce7H
	DW	01ce7H
	DW	01ce7H
	DW	01ce7H
	DW	01ce7H
	DW	01ce7H
	DW	01ce7H
	DW	01ce7H
	DW	01ce7H
	DW	01ce7H
	DW	01ce7H
	DW	01ce7H
	DW	01ce7H
	DW	01ce7H
	DW	01ce7H
	DW	01ce7H
	DW	01ce7H
	DW	01ce7H
	DW	01ce7H
	DW	01ce7H
	DW	01ce7H
	DW	01ce7H
	DW	01ce7H
	DW	01ce7H
	DW	01ce7H
	DW	01ce7H
	DW	01ce7H
	DW	01ce7H
	DW	01ce7H
	DW	01ce7H
	DW	01ce7H
	DW	01ce7H
	DW	01ce7H
	DW	01ce7H
	DW	01ce7H
	DW	01ce7H
	DW	01ce7H
	DW	01ce7H
	DW	01ce7H
	DW	01ce7H
	DW	01ce7H
	DW	01ce7H
	DW	01ce7H
	DW	01ce7H
	DW	01ce7H
	DW	01ce7H
	DW	01ce7H
	DW	01ce7H
	DW	01ce7H
	DW	01ce7H
	DW	01ce7H
	DW	01ce7H
	DW	01ce7H
	DW	01ce7H
	DW	01ce7H
	DW	01ce7H
	DW	01ce7H
	DW	01ce7H
	DW	01ce7H
	DW	01ce7H
	DW	01ce7H
	DW	01ce7H
	DW	014a5H
	DW	014a5H
	DW	014a5H
	DW	014a5H
	DW	014a5H
	DW	014a5H
	DW	014a5H
	DW	014a5H
	DW	014a5H
	DW	01084H
	DW	00H
	DW	00H
	DW	0421H
	DW	01ce7H
	DW	01ce7H
	DW	01ce7H
	DW	01ce7H
	DW	01ce7H
	DW	020e6H
	DW	014aeH
	DW	01fH
	DW	041fH
	DW	082eH
	DW	00H
	DW	010a5H
	DW	035adH
	DW	035adH
	DW	0318cH
	DW	01ce7H
	DW	00H
	DW	00H
	DW	00H
	DW	00H
	DW	00H
	DW	00H
	DW	00H
	DW	00H
	DW	00H
	DW	00H
	DW	0421H
	DW	00H
	DW	00H
	DW	00H
	DW	00H
	DW	00H
	DW	00H
	DW	00H
	DW	00H
	DW	00H
	DW	00H
	DW	0842H
	DW	02d6bH
	DW	0318cH
	DW	0318cH
	DW	035adH
	DW	035adH
	DW	035adH
	DW	035adH
	DW	035adH
	DW	035adH
	DW	04631H
	DW	04a73H
	DW	039ceH
	DW	031acH
	DW	0318cH
	DW	0821H
	DW	01H
	DW	0437H
	DW	01fH
	DW	041cH
	DW	01ce8H
	DW	01ce7H
	DW	01ce7H
	DW	01ce7H
	DW	01ce7H
	DW	01ce7H
	DW	014a5H
	DW	00H
	DW	00H
	DW	0421H
	DW	014a5H
	DW	014a5H
	DW	014a5H
	DW	014a5H
	DW	014a5H
	DW	014a5H
	DW	014a5H
	DW	014a5H
	DW	014a5H
	DW	018c6H
	DW	01ce7H
	DW	01ce7H
	DW	01ce7H
	DW	01ce7H
	DW	01ce7H
	DW	01ce7H
	DW	01ce7H
	DW	01ce7H
	DW	01ce7H
	DW	01ce7H
	DW	01ce7H
	DW	01ce7H
	DW	01ce7H
	DW	01ce7H
	DW	01ce7H
	DW	01ce7H
	DW	01ce7H
	DW	01ce7H
	DW	01ce7H
	DW	01ce7H
	DW	01ce7H
	DW	01ce7H
	DW	01ce7H
	DW	01ce7H
	DW	01ce7H
	DW	01ce7H
	DW	01ce7H
	DW	01ce7H
	DW	01ce7H
	DW	01ce7H
	DW	01ce7H
	DW	01ce7H
	DW	01ce7H
	DW	01ce7H
	DW	01ce7H
	DW	01ce7H
	DW	01ce7H
	DW	01ce7H
	DW	01ce7H
	DW	01ce7H
	DW	01ce7H
	DW	01ce7H
	DW	01ce7H
	DW	01ce7H
	DW	01ce7H
	DW	01ce7H
	DW	01ce7H
	DW	01ce7H
	DW	01ce7H
	DW	01ce7H
	DW	01ce7H
	DW	01ce7H
	DW	01ce7H
	DW	01ce7H
	DW	01ce7H
	DW	01ce7H
	DW	01ce7H
	DW	01ce7H
	DW	01ce7H
	DW	01ce7H
	DW	01ce7H
	DW	01ce7H
	DW	01ce7H
	DW	01ce7H
	DW	01ce7H
	DW	01ce7H
	DW	01ce7H
	DW	01ce7H
	DW	01ce7H
	DW	01ce7H
	DW	01ce7H
	DW	01ce7H
	DW	01ce7H
	DW	01ce7H
	DW	01ce7H
	DW	01ce7H
	DW	01ce7H
	DW	01ce7H
	DW	01ce7H
	DW	01ce7H
	DW	01ce7H
	DW	01ce7H
	DW	01ce7H
	DW	01ce7H
	DW	01ce7H
	DW	01ce7H
	DW	01ce7H
	DW	01ce7H
	DW	01ce7H
	DW	01ce7H
	DW	01ce7H
	DW	01ce7H
	DW	01ce7H
	DW	01ce7H
	DW	01ce7H
	DW	01ce7H
	DW	01ce7H
	DW	01ce7H
	DW	01ce7H
	DW	01ce7H
	DW	01ce7H
	DW	01ce7H
	DW	01ce7H
	DW	01ce7H
	DW	01ce7H
	DW	01ce7H
	DW	01ce7H
	DW	01ce7H
	DW	01ce7H
	DW	01ce7H
	DW	01ce7H
	DW	01ce7H
	DW	01ce7H
	DW	01ce7H
	DW	01ce7H
	DW	01ce7H
	DW	01ce7H
	DW	01ce7H
	DW	01ce7H
	DW	01ce7H
	DW	01ce7H
	DW	01ce7H
	DW	01ce7H
	DW	01ce7H
	DW	01ce7H
	DW	01ce7H
	DW	01ce7H
	DW	01ce7H
	DW	01ce7H
	DW	01ce7H
	DW	01ce7H
	DW	01ce7H
	DW	01ce7H
	DW	01ce7H
	DW	01ce7H
	DW	018c6H
	DW	014a5H
	DW	014a5H
	DW	014a5H
	DW	014a5H
	DW	014a5H
	DW	014a5H
	DW	014a5H
	DW	014a5H
	DW	014a5H
	DW	0842H
	DW	00H
	DW	00H
	DW	01084H
	DW	01ce8H
	DW	01ce7H
	DW	01ce7H
	DW	01ce7H
	DW	01ce7H
	DW	01ce7H
	DW	083aH
	DW	01fH
	DW	0839H
	DW	01H
	DW	00H
	DW	0294aH
	DW	035adH
	DW	0318cH
	DW	0294aH
	DW	0421H
	DW	00H
	DW	00H
	DW	00H
	DW	00H
	DW	00H
	DW	00H
	DW	00H
	DW	00H
	DW	00H
	DW	00H
	DW	00H
	DW	00H
	DW	00H
	DW	00H
	DW	00H
	DW	00H
	DW	00H
	DW	00H
	DW	00H
	DW	00H
	DW	014a5H
	DW	0318cH
	DW	0318cH
	DW	0318cH
	DW	0318cH
	DW	035adH
	DW	035adH
	DW	035adH
	DW	035adH
	DW	039ceH
	DW	04a52H
	DW	04631H
	DW	035adH
	DW	035adH
	DW	02108H
	DW	00H
	DW	0428H
	DW	041fH
	DW	01fH
	DW	01075H
	DW	01ce6H
	DW	01ce7H
	DW	01ce7H
	DW	01ce7H
	DW	01ce7H
	DW	01ce7H
	DW	0842H
	DW	00H
	DW	00H
	DW	0c63H
	DW	014a5H
	DW	014a5H
	DW	014a5H
	DW	014a5H
	DW	014a5H
	DW	014a5H
	DW	014a5H
	DW	014a5H
	DW	014a5H
	DW	01ce7H
	DW	01ce7H
	DW	01ce7H
	DW	01ce7H
	DW	01ce7H
	DW	01ce7H
	DW	01ce7H
	DW	01ce7H
	DW	01ce7H
	DW	01ce7H
	DW	01ce7H
	DW	01ce7H
	DW	01ce7H
	DW	01ce7H
	DW	01ce7H
	DW	01ce7H
	DW	01ce7H
	DW	01ce7H
	DW	01ce7H
	DW	01ce7H
	DW	01ce7H
	DW	01ce7H
	DW	01ce7H
	DW	01ce7H
	DW	01ce7H
	DW	01ce7H
	DW	01ce7H
	DW	01ce7H
	DW	01ce7H
	DW	01ce7H
	DW	01ce7H
	DW	01ce7H
	DW	01ce7H
	DW	01ce7H
	DW	01ce7H
	DW	01ce7H
	DW	01ce7H
	DW	01ce7H
	DW	01ce7H
	DW	01ce7H
	DW	01ce7H
	DW	01ce7H
	DW	01ce7H
	DW	01ce7H
	DW	01ce7H
	DW	01ce7H
	DW	01ce7H
	DW	01ce7H
	DW	01ce7H
	DW	01ce7H
	DW	01ce7H
	DW	01ce7H
	DW	01ce7H
	DW	01ce7H
	DW	01ce7H
	DW	01ce7H
	DW	01ce7H
	DW	01ce7H
	DW	01ce7H
	DW	01ce7H
	DW	01ce7H
	DW	01ce7H
	DW	01ce7H
	DW	01ce7H
	DW	01ce7H
	DW	01ce7H
	DW	01ce7H
	DW	01ce7H
	DW	01ce7H
	DW	01ce7H
	DW	01ce7H
	DW	01ce7H
	DW	01ce7H
	DW	01ce7H
	DW	01ce7H
	DW	01ce7H
	DW	01ce7H
	DW	01ce7H
	DW	01ce7H
	DW	01ce7H
	DW	01ce7H
	DW	01ce7H
	DW	01ce7H
	DW	01ce7H
	DW	01ce7H
	DW	01ce7H
	DW	01ce7H
	DW	01ce7H
	DW	01ce7H
	DW	01ce7H
	DW	01ce7H
	DW	01ce7H
	DW	01ce7H
	DW	01ce7H
	DW	01ce7H
	DW	01ce7H
	DW	01ce7H
	DW	01ce7H
	DW	01ce7H
	DW	01ce7H
	DW	01ce7H
	DW	01ce7H
	DW	01ce7H
	DW	01ce7H
	DW	01ce7H
	DW	01ce7H
	DW	01ce7H
	DW	01ce7H
	DW	01ce7H
	DW	01ce7H
	DW	01ce7H
	DW	01ce7H
	DW	01ce7H
	DW	01ce7H
	DW	01ce7H
	DW	01ce7H
	DW	01ce7H
	DW	01ce7H
	DW	01ce7H
	DW	01ce7H
	DW	01ce7H
	DW	01ce7H
	DW	01ce7H
	DW	01ce7H
	DW	01ce7H
	DW	01ce7H
	DW	01ce7H
	DW	01ce7H
	DW	01ce7H
	DW	01ce7H
	DW	01ce7H
	DW	01ce7H
	DW	01ce7H
	DW	01ce7H
	DW	01ce7H
	DW	01ce7H
	DW	01ce7H
	DW	014a5H
	DW	014a5H
	DW	014a5H
	DW	014a5H
	DW	014a5H
	DW	014a5H
	DW	014a5H
	DW	014a5H
	DW	014a5H
	DW	01084H
	DW	00H
	DW	00H
	DW	0822H
	DW	01ce7H
	DW	01ce7H
	DW	01ce7H
	DW	01ce7H
	DW	01ce7H
	DW	01ce5H
	DW	01091H
	DW	01fH
	DW	041fH
	DW	0429H
	DW	00H
	DW	018c6H
	DW	039adH
	DW	035adH
	DW	02d6bH
	DW	01084H
	DW	00H
	DW	00H
	DW	00H
	DW	00H
	DW	00H
	DW	00H
	DW	00H
	DW	00H
	DW	00H
	DW	00H
	DW	00H
	DW	00H
	DW	00H
	DW	00H
	DW	00H
	DW	00H
	DW	00H
	DW	00H
	DW	00H
	DW	00H
	DW	02108H
	DW	0318cH
	DW	0318cH
	DW	0318cH
	DW	0318cH
	DW	0318cH
	DW	035adH
	DW	035adH
	DW	035adH
	DW	03defH
	DW	04e73H
	DW	03defH
	DW	035adH
	DW	0318cH
	DW	0c62H
	DW	00H
	DW	0832H
	DW	01fH
	DW	01fH
	DW	014adH
	DW	01ce6H
	DW	01ce7H
	DW	01ce7H
	DW	01ce7H
	DW	01ce7H
	DW	018a6H
	DW	00H
	DW	00H
	DW	0421H
	DW	014a5H
	DW	014a5H
	DW	014a5H
	DW	014a5H
	DW	014a5H
	DW	014a5H
	DW	014a5H
	DW	014a5H
	DW	014a5H
	DW	018c6H
	DW	01ce7H
	DW	01ce7H
	DW	01ce7H
	DW	01ce7H
	DW	01ce7H
	DW	01ce7H
	DW	01ce7H
	DW	01ce7H
	DW	01ce7H
	DW	01ce7H
	DW	01ce7H
	DW	01ce7H
	DW	01ce7H
	DW	01ce7H
	DW	01ce7H
	DW	01ce7H
	DW	01ce7H
	DW	01ce7H
	DW	01ce7H
	DW	01ce7H
	DW	01ce7H
	DW	01ce7H
	DW	01ce7H
	DW	01ce7H
	DW	01ce7H
	DW	01ce7H
	DW	01ce7H
	DW	01ce7H
	DW	01ce7H
	DW	01ce7H
	DW	01ce7H
	DW	01ce7H
	DW	01ce7H
	DW	01ce7H
	DW	01ce7H
	DW	01ce7H
	DW	01ce7H
	DW	01ce7H
	DW	01ce7H
	DW	01ce7H
	DW	01ce7H
	DW	01ce7H
	DW	01ce7H
	DW	01ce7H
	DW	01ce7H
	DW	01ce7H
	DW	01ce7H
	DW	01ce7H
	DW	01ce7H
	DW	01ce7H
	DW	01ce7H
	DW	01ce7H
	DW	01ce7H
	DW	01ce7H
	DW	01ce7H
	DW	01ce7H
	DW	01ce7H
	DW	01ce7H
	DW	01ce7H
	DW	01ce7H
	DW	01ce7H
	DW	01ce7H
	DW	01ce7H
	DW	01ce7H
	DW	01ce7H
	DW	01ce7H
	DW	01ce7H
	DW	01ce7H
	DW	01ce7H
	DW	01ce7H
	DW	01ce7H
	DW	01ce7H
	DW	01ce7H
	DW	01ce7H
	DW	01ce7H
	DW	01ce7H
	DW	01ce7H
	DW	01ce7H
	DW	01ce7H
	DW	01ce7H
	DW	01ce7H
	DW	01ce7H
	DW	01ce7H
	DW	01ce7H
	DW	01ce7H
	DW	01ce7H
	DW	01ce7H
	DW	01ce7H
	DW	01ce7H
	DW	01ce7H
	DW	01ce7H
	DW	01ce7H
	DW	01ce7H
	DW	01ce7H
	DW	01ce7H
	DW	01ce7H
	DW	01ce7H
	DW	01ce7H
	DW	01ce7H
	DW	01ce7H
	DW	01ce7H
	DW	01ce7H
	DW	01ce7H
	DW	01ce7H
	DW	01ce7H
	DW	01ce7H
	DW	01ce7H
	DW	01ce7H
	DW	01ce7H
	DW	01ce7H
	DW	01ce7H
	DW	01ce7H
	DW	01ce7H
	DW	01ce7H
	DW	01ce7H
	DW	01ce7H
	DW	01ce7H
	DW	01ce7H
	DW	01ce7H
	DW	01ce7H
	DW	01ce7H
	DW	01ce7H
	DW	01ce7H
	DW	01ce7H
	DW	01ce7H
	DW	01ce7H
	DW	01ce7H
	DW	01ce7H
	DW	01ce7H
	DW	01ce7H
	DW	01ce7H
	DW	01ce7H
	DW	01ce7H
	DW	01ce7H
	DW	01ce7H
	DW	01ce7H
	DW	01ce7H
	DW	018c6H
	DW	014a5H
	DW	014a5H
	DW	014a5H
	DW	014a5H
	DW	014a5H
	DW	014a5H
	DW	014a5H
	DW	014a5H
	DW	014a5H
	DW	0842H
	DW	00H
	DW	00H
	DW	018a5H
	DW	01ce7H
	DW	01ce7H
	DW	01ce7H
	DW	01ce7H
	DW	01ce6H
	DW	018cbH
	DW	041eH
	DW	01fH
	DW	0834H
	DW	00H
	DW	0863H
	DW	0358cH
	DW	035adH
	DW	0318cH
	DW	01ce7H
	DW	00H
	DW	00H
	DW	00H
	DW	00H
	DW	00H
	DW	00H
	DW	00H
	DW	00H
	DW	00H
	DW	00H
	DW	00H
	DW	00H
	DW	00H
	DW	00H
	DW	00H
	DW	00H
	DW	00H
	DW	00H
	DW	00H
	DW	0421H
	DW	0294aH
	DW	0318cH
	DW	0318cH
	DW	0318cH
	DW	0318cH
	DW	0318cH
	DW	0318cH
	DW	035adH
	DW	035adH
	DW	04210H
	DW	04a52H
	DW	039ceH
	DW	035adH
	DW	0296bH
	DW	00H
	DW	0403H
	DW	083bH
	DW	01fH
	DW	083bH
	DW	01ce8H
	DW	01ce7H
	DW	01ce7H
	DW	01ce7H
	DW	01ce7H
	DW	01ce7H
	DW	0c63H
	DW	00H
	DW	00H
	DW	0c63H
	DW	014a5H
	DW	014a5H
	DW	014a5H
	DW	014a5H
	DW	014a5H
	DW	014a5H
	DW	014a5H
	DW	014a5H
	DW	014a5H
	DW	01ce7H
	DW	01ce7H
	DW	01ce7H
	DW	01ce7H
	DW	01ce7H
	DW	01ce7H
	DW	01ce7H
	DW	01ce7H
	DW	01ce7H
	DW	01ce7H
	DW	01ce7H
	DW	01ce7H
	DW	01ce7H
	DW	01ce7H
	DW	01ce7H
	DW	01ce7H
	DW	01ce7H
	DW	01ce7H
	DW	01ce7H
	DW	01ce7H
	DW	01ce7H
	DW	01ce7H
	DW	01ce7H
	DW	01ce7H
	DW	01ce7H
	DW	01ce7H
	DW	01ce7H
	DW	01ce7H
	DW	01ce7H
	DW	01ce7H
	DW	01ce7H
	DW	01ce7H
	DW	01ce7H
	DW	01ce7H
	DW	01ce7H
	DW	01ce7H
	DW	01ce7H
	DW	01ce7H
	DW	01ce7H
	DW	01ce7H
	DW	01ce7H
	DW	01ce7H
	DW	01ce7H
	DW	01ce7H
	DW	01ce7H
	DW	01ce7H
	DW	01ce7H
	DW	01ce7H
	DW	01ce7H
	DW	01ce7H
	DW	01ce7H
	DW	01ce7H
	DW	01ce7H
	DW	01ce7H
	DW	01ce7H
	DW	01ce7H
	DW	01ce7H
	DW	01ce7H
	DW	01ce7H
	DW	01ce7H
	DW	018c6H
	DW	014a5H
	DW	01084H
	DW	0c63H
	DW	0c63H
	DW	0842H
	DW	0842H
	DW	0842H
	DW	0842H
	DW	0842H
	DW	0842H
	DW	0842H
	DW	0842H
	DW	0842H
	DW	0c63H
	DW	0c63H
	DW	01084H
	DW	014a5H
	DW	018c6H
	DW	01ce7H
	DW	01ce7H
	DW	01ce7H
	DW	01ce7H
	DW	01ce7H
	DW	01ce7H
	DW	01ce7H
	DW	01ce7H
	DW	01ce7H
	DW	01ce7H
	DW	01ce7H
	DW	01ce7H
	DW	01ce7H
	DW	01ce7H
	DW	01ce7H
	DW	01ce7H
	DW	01ce7H
	DW	01ce7H
	DW	01ce7H
	DW	01ce7H
	DW	01ce7H
	DW	01ce7H
	DW	01ce7H
	DW	01ce7H
	DW	01ce7H
	DW	01ce7H
	DW	01ce7H
	DW	01ce7H
	DW	01ce7H
	DW	01ce7H
	DW	01ce7H
	DW	01ce7H
	DW	01ce7H
	DW	01ce7H
	DW	01ce7H
	DW	01ce7H
	DW	01ce7H
	DW	01ce7H
	DW	01ce7H
	DW	01ce7H
	DW	01ce7H
	DW	01ce7H
	DW	01ce7H
	DW	01ce7H
	DW	01ce7H
	DW	01ce7H
	DW	01ce7H
	DW	01ce7H
	DW	01ce7H
	DW	01ce7H
	DW	01ce7H
	DW	01ce7H
	DW	01ce7H
	DW	01ce7H
	DW	01ce7H
	DW	01ce7H
	DW	01ce7H
	DW	01ce7H
	DW	01ce7H
	DW	01ce7H
	DW	014a6H
	DW	01485H
	DW	014a5H
	DW	014a5H
	DW	014a5H
	DW	014a5H
	DW	014a5H
	DW	014a5H
	DW	014a5H
	DW	0c63H
	DW	00H
	DW	00H
	DW	0c63H
	DW	01ce7H
	DW	01ce7H
	DW	01ce7H
	DW	01ce7H
	DW	01ce7H
	DW	01ce6H
	DW	0c59H
	DW	01fH
	DW	043cH
	DW	0403H
	DW	00H
	DW	02d6bH
	DW	035adH
	DW	0318cH
	DW	0294aH
	DW	0421H
	DW	00H
	DW	00H
	DW	00H
	DW	00H
	DW	00H
	DW	00H
	DW	00H
	DW	00H
	DW	00H
	DW	00H
	DW	00H
	DW	00H
	DW	00H
	DW	00H
	DW	00H
	DW	00H
	DW	00H
	DW	00H
	DW	0c63H
	DW	02d6bH
	DW	02d6bH
	DW	02d6bH
	DW	02d6bH
	DW	0318cH
	DW	0318cH
	DW	0318cH
	DW	0318cH
	DW	035adH
	DW	04a52H
	DW	04631H
	DW	035adH
	DW	035adH
	DW	018c6H
	DW	00H
	DW	042aH
	DW	041fH
	DW	01fH
	DW	01090H
	DW	01ce6H
	DW	01ce7H
	DW	01ce7H
	DW	01ce7H
	DW	01ce7H
	DW	01cc7H
	DW	0421H
	DW	00H
	DW	0421H
	DW	01084H
	DW	014a5H
	DW	014a5H
	DW	014a5H
	DW	014a5H
	DW	014a5H
	DW	014a5H
	DW	014a5H
	DW	014a5H
	DW	018c6H
	DW	01ce7H
	DW	01ce7H
	DW	01ce7H
	DW	01ce7H
	DW	01ce7H
	DW	01ce7H
	DW	01ce7H
	DW	01ce7H
	DW	01ce7H
	DW	01ce7H
	DW	01ce7H
	DW	01ce7H
	DW	01ce7H
	DW	01ce7H
	DW	01ce7H
	DW	01ce7H
	DW	01ce7H
	DW	01ce7H
	DW	01ce7H
	DW	01ce7H
	DW	01ce7H
	DW	01ce7H
	DW	01ce7H
	DW	01ce7H
	DW	01ce7H
	DW	01ce7H
	DW	01ce7H
	DW	01ce7H
	DW	01ce7H
	DW	01ce7H
	DW	01ce7H
	DW	01ce7H
	DW	01ce7H
	DW	01ce7H
	DW	01ce7H
	DW	01ce7H
	DW	01ce7H
	DW	01ce7H
	DW	01ce7H
	DW	01ce7H
	DW	01ce7H
	DW	01ce7H
	DW	01ce7H
	DW	01ce7H
	DW	01ce7H
	DW	01ce7H
	DW	01ce7H
	DW	01ce7H
	DW	01ce7H
	DW	01ce7H
	DW	01ce7H
	DW	01ce7H
	DW	01ce7H
	DW	01ce7H
	DW	01ce7H
	DW	01ce7H
	DW	01ce7H
	DW	018c6H
	DW	014a5H
	DW	0c63H
	DW	0842H
	DW	0421H
	DW	0421H
	DW	0421H
	DW	0421H
	DW	0421H
	DW	0421H
	DW	0421H
	DW	0421H
	DW	0421H
	DW	0421H
	DW	0421H
	DW	0421H
	DW	0421H
	DW	0421H
	DW	0421H
	DW	0421H
	DW	0421H
	DW	0842H
	DW	0c63H
	DW	01084H
	DW	018c6H
	DW	01ce7H
	DW	01ce7H
	DW	01ce7H
	DW	01ce7H
	DW	01ce7H
	DW	01ce7H
	DW	01ce7H
	DW	01ce7H
	DW	01ce7H
	DW	01ce7H
	DW	01ce7H
	DW	01ce7H
	DW	01ce7H
	DW	01ce7H
	DW	01ce7H
	DW	01ce7H
	DW	01ce7H
	DW	01ce7H
	DW	01ce7H
	DW	01ce7H
	DW	01ce7H
	DW	01ce7H
	DW	01ce7H
	DW	01ce7H
	DW	01ce7H
	DW	01ce7H
	DW	01ce7H
	DW	01ce7H
	DW	01ce7H
	DW	01ce7H
	DW	01ce7H
	DW	01ce7H
	DW	01ce7H
	DW	01ce7H
	DW	01ce7H
	DW	01ce7H
	DW	01ce7H
	DW	01ce7H
	DW	01ce7H
	DW	01ce7H
	DW	01ce7H
	DW	01ce7H
	DW	01ce7H
	DW	01ce7H
	DW	01ce7H
	DW	01ce7H
	DW	01ce7H
	DW	01ce7H
	DW	01ce7H
	DW	01ce7H
	DW	01ce7H
	DW	01ce7H
	DW	01ce7H
	DW	01ce7H
	DW	01ce7H
	DW	01ce7H
	DW	01ce7H
	DW	018c7H
	DW	014a5H
	DW	014a5H
	DW	014a5H
	DW	014a5H
	DW	014a5H
	DW	014a5H
	DW	014a5H
	DW	014a5H
	DW	014a5H
	DW	0421H
	DW	00H
	DW	00H
	DW	018c6H
	DW	01ce7H
	DW	01ce7H
	DW	01ce7H
	DW	01ce7H
	DW	01ce6H
	DW	01090H
	DW	01fH
	DW	041fH
	DW	082cH
	DW	00H
	DW	02508H
	DW	035adH
	DW	035adH
	DW	02d6bH
	DW	01084H
	DW	00H
	DW	00H
	DW	00H
	DW	00H
	DW	00H
	DW	00H
	DW	00H
	DW	00H
	DW	00H
	DW	00H
	DW	00H
	DW	00H
	DW	00H
	DW	00H
	DW	00H
	DW	00H
	DW	00H
	DW	00H
	DW	018c6H
	DW	02d6bH
	DW	02d6bH
	DW	02d6bH
	DW	02d6bH
	DW	0318cH
	DW	0318cH
	DW	0318cH
	DW	0318cH
	DW	039ceH
	DW	04e73H
	DW	03defH
	DW	0358dH
	DW	035adH
	DW	0c63H
	DW	00H
	DW	0833H
	DW	01fH
	DW	041fH
	DW	01ccaH
	DW	01ce6H
	DW	01ce7H
	DW	01ce7H
	DW	01ce7H
	DW	01ce7H
	DW	014a5H
	DW	00H
	DW	00H
	DW	0842H
	DW	014a5H
	DW	014a5H
	DW	014a5H
	DW	014a5H
	DW	014a5H
	DW	014a5H
	DW	014a5H
	DW	014a5H
	DW	014a5H
	DW	01ce7H
	DW	01ce7H
	DW	01ce7H
	DW	01ce7H
	DW	01ce7H
	DW	01ce7H
	DW	01ce7H
	DW	01ce7H
	DW	01ce7H
	DW	01ce7H
	DW	01ce7H
	DW	01ce7H
	DW	01ce7H
	DW	01ce7H
	DW	01ce7H
	DW	01ce7H
	DW	01ce7H
	DW	01ce7H
	DW	01ce7H
	DW	01ce7H
	DW	01ce7H
	DW	01ce7H
	DW	01ce7H
	DW	01ce7H
	DW	01ce7H
	DW	01ce7H
	DW	01ce7H
	DW	01ce7H
	DW	01ce7H
	DW	01ce7H
	DW	01ce7H
	DW	01ce7H
	DW	01ce7H
	DW	01ce7H
	DW	01ce7H
	DW	01ce7H
	DW	01ce7H
	DW	01ce7H
	DW	01ce7H
	DW	01ce7H
	DW	01ce7H
	DW	01ce7H
	DW	01ce7H
	DW	01ce7H
	DW	01ce7H
	DW	01ce7H
	DW	01ce7H
	DW	01ce7H
	DW	01ce7H
	DW	01ce7H
	DW	01ce7H
	DW	01ce7H
	DW	01ce7H
	DW	01ce7H
	DW	01ce7H
	DW	01ce7H
	DW	018c6H
	DW	01084H
	DW	0842H
	DW	0421H
	DW	0421H
	DW	0421H
	DW	0421H
	DW	0421H
	DW	0421H
	DW	0421H
	DW	0421H
	DW	0421H
	DW	0421H
	DW	0421H
	DW	0421H
	DW	0421H
	DW	0421H
	DW	0421H
	DW	0421H
	DW	0421H
	DW	0421H
	DW	0421H
	DW	0421H
	DW	0421H
	DW	0421H
	DW	0421H
	DW	0842H
	DW	0c63H
	DW	014a5H
	DW	01ce7H
	DW	01ce7H
	DW	01ce7H
	DW	01ce7H
	DW	01ce7H
	DW	01ce7H
	DW	01ce7H
	DW	01ce7H
	DW	01ce7H
	DW	01ce7H
	DW	01ce7H
	DW	01ce7H
	DW	01ce7H
	DW	01ce7H
	DW	01ce7H
	DW	01ce7H
	DW	01ce7H
	DW	01ce7H
	DW	01ce7H
	DW	01ce7H
	DW	01ce7H
	DW	01ce7H
	DW	01ce7H
	DW	01ce7H
	DW	01ce7H
	DW	01ce7H
	DW	01ce7H
	DW	01ce7H
	DW	01ce7H
	DW	01ce7H
	DW	01ce7H
	DW	01ce7H
	DW	01ce7H
	DW	01ce7H
	DW	01ce7H
	DW	01ce7H
	DW	01ce7H
	DW	01ce7H
	DW	01ce7H
	DW	01ce7H
	DW	01ce7H
	DW	01ce7H
	DW	01ce7H
	DW	01ce7H
	DW	01ce7H
	DW	01ce7H
	DW	01ce7H
	DW	01ce7H
	DW	01ce7H
	DW	01ce7H
	DW	01ce7H
	DW	01ce7H
	DW	01ce7H
	DW	01ce7H
	DW	01ce7H
	DW	01ce7H
	DW	014a5H
	DW	014a5H
	DW	014a5H
	DW	014a5H
	DW	014a5H
	DW	014a5H
	DW	014a5H
	DW	014a5H
	DW	014a5H
	DW	0c63H
	DW	00H
	DW	00H
	DW	01084H
	DW	01ce7H
	DW	01ce7H
	DW	01ce7H
	DW	01ce7H
	DW	01ce6H
	DW	018c9H
	DW	043cH
	DW	01fH
	DW	0835H
	DW	00H
	DW	0c63H
	DW	035adH
	DW	035adH
	DW	0318cH
	DW	01ce7H
	DW	00H
	DW	00H
	DW	00H
	DW	00H
	DW	00H
	DW	00H
	DW	00H
	DW	00H
	DW	00H
	DW	00H
	DW	00H
	DW	00H
	DW	00H
	DW	00H
	DW	00H
	DW	00H
	DW	00H
	DW	00H
	DW	02108H
	DW	02d6bH
	DW	02d6bH
	DW	02d6bH
	DW	02d6bH
	DW	02d6bH
	DW	0318cH
	DW	0318cH
	DW	0318cH
	DW	04210H
	DW	04a52H
	DW	039ceH
	DW	035adH
	DW	0318bH
	DW	0821H
	DW	03H
	DW	081bH
	DW	01fH
	DW	0858H
	DW	01ce7H
	DW	01ce7H
	DW	01ce7H
	DW	01ce7H
	DW	01ce7H
	DW	01ce7H
	DW	0842H
	DW	00H
	DW	00H
	DW	01084H
	DW	014a5H
	DW	014a5H
	DW	014a5H
	DW	014a5H
	DW	014a5H
	DW	014a5H
	DW	014a5H
	DW	014a5H
	DW	018c6H
	DW	01ce7H
	DW	01ce7H
	DW	01ce7H
	DW	01ce7H
	DW	01ce7H
	DW	01ce7H
	DW	01ce7H
	DW	01ce7H
	DW	01ce7H
	DW	01ce7H
	DW	01ce7H
	DW	01ce7H
	DW	01ce7H
	DW	01ce7H
	DW	01ce7H
	DW	01ce7H
	DW	01ce7H
	DW	01ce7H
	DW	01ce7H
	DW	01ce7H
	DW	01ce7H
	DW	01ce7H
	DW	01ce7H
	DW	01ce7H
	DW	01ce7H
	DW	01ce7H
	DW	01ce7H
	DW	01ce7H
	DW	01ce7H
	DW	01ce7H
	DW	01ce7H
	DW	01ce7H
	DW	01ce7H
	DW	01ce7H
	DW	01ce7H
	DW	01ce7H
	DW	01ce7H
	DW	01ce7H
	DW	01ce7H
	DW	01ce7H
	DW	01ce7H
	DW	01ce7H
	DW	01ce7H
	DW	01ce7H
	DW	01ce7H
	DW	01ce7H
	DW	01ce7H
	DW	01ce7H
	DW	01ce7H
	DW	01ce7H
	DW	01ce7H
	DW	01ce7H
	DW	01ce7H
	DW	01ce7H
	DW	014a5H
	DW	0c63H
	DW	0842H
	DW	0421H
	DW	0421H
	DW	0421H
	DW	0421H
	DW	0421H
	DW	0421H
	DW	0421H
	DW	0421H
	DW	0421H
	DW	0421H
	DW	0421H
	DW	0421H
	DW	0421H
	DW	0421H
	DW	0421H
	DW	0421H
	DW	0421H
	DW	0421H
	DW	0421H
	DW	0421H
	DW	0421H
	DW	0421H
	DW	0421H
	DW	0421H
	DW	0842H
	DW	0421H
	DW	0421H
	DW	0421H
	DW	0842H
	DW	014a5H
	DW	01ce7H
	DW	01ce7H
	DW	01ce7H
	DW	01ce7H
	DW	01ce7H
	DW	01ce7H
	DW	01ce7H
	DW	01ce7H
	DW	01ce7H
	DW	01ce7H
	DW	01ce7H
	DW	01ce7H
	DW	01ce7H
	DW	01ce7H
	DW	01ce7H
	DW	01ce7H
	DW	01ce7H
	DW	01ce7H
	DW	01ce7H
	DW	01ce7H
	DW	01ce7H
	DW	01ce7H
	DW	01ce7H
	DW	01ce7H
	DW	01ce7H
	DW	01ce7H
	DW	01ce7H
	DW	01ce7H
	DW	01ce7H
	DW	01ce7H
	DW	01ce7H
	DW	01ce7H
	DW	01ce7H
	DW	01ce7H
	DW	01ce7H
	DW	01ce7H
	DW	01ce7H
	DW	01ce7H
	DW	01ce7H
	DW	01ce7H
	DW	01ce7H
	DW	01ce7H
	DW	01ce7H
	DW	01ce7H
	DW	01ce7H
	DW	01ce7H
	DW	01ce7H
	DW	01ce7H
	DW	01ce7H
	DW	01ce7H
	DW	01ce7H
	DW	01ce7H
	DW	01ce7H
	DW	01ce7H
	DW	018c6H
	DW	014a5H
	DW	014a5H
	DW	014a5H
	DW	014a5H
	DW	014a5H
	DW	014a5H
	DW	014a5H
	DW	014a5H
	DW	01084H
	DW	00H
	DW	00H
	DW	0842H
	DW	01ce7H
	DW	01ce7H
	DW	01ce7H
	DW	01ce7H
	DW	01ce7H
	DW	01ce6H
	DW	0c74H
	DW	01fH
	DW	041cH
	DW	0404H
	DW	00H
	DW	0294aH
	DW	035adH
	DW	0318cH
	DW	02529H
	DW	0421H
	DW	00H
	DW	00H
	DW	00H
	DW	00H
	DW	00H
	DW	00H
	DW	00H
	DW	00H
	DW	00H
	DW	0421H
	DW	00H
	DW	00H
	DW	00H
	DW	00H
	DW	00H
	DW	00H
	DW	0842H
	DW	0294aH
	DW	02d6bH
	DW	02d6bH
	DW	02d6bH
	DW	02d6bH
	DW	02d6bH
	DW	02d6bH
	DW	02d6bH
	DW	0318cH
	DW	04631H
	DW	04631H
	DW	035adH
	DW	035adH
	DW	02108H
	DW	00H
	DW	042aH
	DW	041fH
	DW	01fH
	DW	01491H
	DW	01ce6H
	DW	01ce7H
	DW	01ce7H
	DW	01ce7H
	DW	01ce7H
	DW	018c6H
	DW	00H
	DW	00H
	DW	0421H
	DW	014a5H
	DW	014a5H
	DW	014a5H
	DW	014a5H
	DW	014a5H
	DW	014a5H
	DW	014a5H
	DW	014a5H
	DW	014a5H
	DW	01ce7H
	DW	01ce7H
	DW	01ce7H
	DW	01ce7H
	DW	01ce7H
	DW	01ce7H
	DW	01ce7H
	DW	01ce7H
	DW	01ce7H
	DW	01ce7H
	DW	01ce7H
	DW	01ce7H
	DW	01ce7H
	DW	01ce7H
	DW	01ce7H
	DW	01ce7H
	DW	01ce7H
	DW	01ce7H
	DW	01ce7H
	DW	01ce7H
	DW	01ce7H
	DW	01ce7H
	DW	01ce7H
	DW	01ce7H
	DW	01ce7H
	DW	01ce7H
	DW	01ce7H
	DW	01ce7H
	DW	01ce7H
	DW	01ce7H
	DW	01ce7H
	DW	01ce7H
	DW	01ce7H
	DW	01ce7H
	DW	01ce7H
	DW	01ce7H
	DW	01ce7H
	DW	01ce7H
	DW	01ce7H
	DW	01ce7H
	DW	01ce7H
	DW	01ce7H
	DW	01ce7H
	DW	01ce7H
	DW	01ce7H
	DW	01ce7H
	DW	01ce7H
	DW	01ce7H
	DW	01ce7H
	DW	01ce7H
	DW	01ce7H
	DW	01ce7H
	DW	01ce7H
	DW	018c6H
	DW	01084H
	DW	0842H
	DW	0421H
	DW	0421H
	DW	0421H
	DW	0421H
	DW	0421H
	DW	0421H
	DW	0421H
	DW	0421H
	DW	0421H
	DW	0421H
	DW	0421H
	DW	0421H
	DW	0421H
	DW	0421H
	DW	0421H
	DW	0421H
	DW	0421H
	DW	0421H
	DW	0421H
	DW	0421H
	DW	0421H
	DW	0421H
	DW	0421H
	DW	0421H
	DW	0421H
	DW	0421H
	DW	0421H
	DW	0421H
	DW	0842H
	DW	0421H
	DW	0421H
	DW	0421H
	DW	0c63H
	DW	014a5H
	DW	01ce7H
	DW	01ce7H
	DW	01ce7H
	DW	01ce7H
	DW	01ce7H
	DW	01ce7H
	DW	01ce7H
	DW	01ce7H
	DW	01ce7H
	DW	01ce7H
	DW	01ce7H
	DW	01ce7H
	DW	01ce7H
	DW	01ce7H
	DW	01ce7H
	DW	01ce7H
	DW	01ce7H
	DW	01ce7H
	DW	01ce7H
	DW	01ce7H
	DW	01ce7H
	DW	01ce7H
	DW	01ce7H
	DW	01ce7H
	DW	01ce7H
	DW	01ce7H
	DW	01ce7H
	DW	01ce7H
	DW	01ce7H
	DW	01ce7H
	DW	01ce7H
	DW	01ce7H
	DW	01ce7H
	DW	01ce7H
	DW	01ce7H
	DW	01ce7H
	DW	01ce7H
	DW	01ce7H
	DW	01ce7H
	DW	01ce7H
	DW	01ce7H
	DW	01ce7H
	DW	01ce7H
	DW	01ce7H
	DW	01ce7H
	DW	01ce7H
	DW	01ce7H
	DW	01ce7H
	DW	01ce7H
	DW	01ce7H
	DW	01ce7H
	DW	01ce7H
	DW	01ce7H
	DW	014a5H
	DW	014a5H
	DW	014a5H
	DW	014a5H
	DW	014a5H
	DW	014a5H
	DW	014a5H
	DW	014a5H
	DW	014a5H
	DW	0842H
	DW	00H
	DW	00H
	DW	018c6H
	DW	01ce7H
	DW	01ce7H
	DW	01ce7H
	DW	01ce7H
	DW	01ce6H
	DW	014aeH
	DW	01fH
	DW	041fH
	DW	082cH
	DW	00H
	DW	01ce7H
	DW	035adH
	DW	035adH
	DW	02d6bH
	DW	0c63H
	DW	00H
	DW	00H
	DW	00H
	DW	00H
	DW	00H
	DW	00H
	DW	00H
	DW	00H
	DW	00H
	DW	00H
	DW	00H
	DW	00H
	DW	00H
	DW	00H
	DW	00H
	DW	00H
	DW	01084H
	DW	0294aH
	DW	0294aH
	DW	0294aH
	DW	02d6bH
	DW	02d6bH
	DW	02d6bH
	DW	02d6bH
	DW	02d6bH
	DW	035adH
	DW	04a52H
	DW	03defH
	DW	035adH
	DW	035acH
	DW	01084H
	DW	00H
	DW	0833H
	DW	01fH
	DW	041eH
	DW	018c9H
	DW	01ce6H
	DW	01ce7H
	DW	01ce7H
	DW	01ce7H
	DW	01ce7H
	DW	01084H
	DW	00H
	DW	00H
	DW	0c63H
	DW	014a5H
	DW	014a5H
	DW	014a5H
	DW	014a5H
	DW	014a5H
	DW	014a5H
	DW	014a5H
	DW	014a5H
	DW	018c6H
	DW	01ce7H
	DW	01ce7H
	DW	01ce7H
	DW	01ce7H
	DW	01ce7H
	DW	01ce7H
	DW	01ce7H
	DW	01ce7H
	DW	01ce7H
	DW	01ce7H
	DW	01ce7H
	DW	01ce7H
	DW	01ce7H
	DW	01ce7H
	DW	01ce7H
	DW	01ce7H
	DW	01ce7H
	DW	01ce7H
	DW	01ce7H
	DW	01ce7H
	DW	01ce7H
	DW	01ce7H
	DW	01ce7H
	DW	01ce7H
	DW	01ce7H
	DW	01ce7H
	DW	01ce7H
	DW	01ce7H
	DW	01ce7H
	DW	01ce7H
	DW	01ce7H
	DW	01ce7H
	DW	01ce7H
	DW	01ce7H
	DW	01ce7H
	DW	01ce7H
	DW	01ce7H
	DW	01ce7H
	DW	01ce7H
	DW	01ce7H
	DW	01ce7H
	DW	01ce7H
	DW	01ce7H
	DW	01ce7H
	DW	01ce7H
	DW	01ce7H
	DW	01ce7H
	DW	01ce7H
	DW	01ce7H
	DW	01ce7H
	DW	01ce7H
	DW	01ce7H
	DW	014a5H
	DW	0842H
	DW	0421H
	DW	0421H
	DW	0421H
	DW	0842H
	DW	0421H
	DW	0421H
	DW	0842H
	DW	0421H
	DW	0421H
	DW	0842H
	DW	0421H
	DW	0421H
	DW	0421H
	DW	0421H
	DW	0421H
	DW	0421H
	DW	0421H
	DW	0842H
	DW	0421H
	DW	0421H
	DW	0421H
	DW	0421H
	DW	0421H
	DW	0421H
	DW	0421H
	DW	0421H
	DW	0421H
	DW	0421H
	DW	0421H
	DW	0421H
	DW	0421H
	DW	0421H
	DW	0421H
	DW	0421H
	DW	0421H
	DW	0842H
	DW	01084H
	DW	018c6H
	DW	01ce7H
	DW	01ce7H
	DW	01ce7H
	DW	01ce7H
	DW	01ce7H
	DW	01ce7H
	DW	01ce7H
	DW	01ce7H
	DW	01ce7H
	DW	01ce7H
	DW	01ce7H
	DW	01ce7H
	DW	01ce7H
	DW	01ce7H
	DW	01ce7H
	DW	01ce7H
	DW	01ce7H
	DW	01ce7H
	DW	01ce7H
	DW	01ce7H
	DW	01ce7H
	DW	01ce7H
	DW	01ce7H
	DW	01ce7H
	DW	01ce7H
	DW	01ce7H
	DW	01ce7H
	DW	01ce7H
	DW	01ce7H
	DW	01ce7H
	DW	01ce7H
	DW	01ce7H
	DW	01ce7H
	DW	01ce7H
	DW	01ce7H
	DW	01ce7H
	DW	01ce7H
	DW	01ce7H
	DW	01ce7H
	DW	01ce7H
	DW	01ce7H
	DW	01ce7H
	DW	01ce7H
	DW	01ce7H
	DW	01ce7H
	DW	01ce7H
	DW	01ce7H
	DW	01ce7H
	DW	01ce7H
	DW	01ce7H
	DW	01ce7H
	DW	018c6H
	DW	014a5H
	DW	014a5H
	DW	014a5H
	DW	014a5H
	DW	014a5H
	DW	014a5H
	DW	014a5H
	DW	014a5H
	DW	0c63H
	DW	00H
	DW	00H
	DW	01084H
	DW	01ce7H
	DW	01ce7H
	DW	01ce7H
	DW	01ce7H
	DW	01ce7H
	DW	01ce7H
	DW	083cH
	DW	01fH
	DW	0434H
	DW	00H
	DW	0842H
	DW	035adH
	DW	035adH
	DW	0318cH
	DW	018c6H
	DW	00H
	DW	00H
	DW	00H
	DW	00H
	DW	00H
	DW	00H
	DW	00H
	DW	00H
	DW	00H
	DW	00H
	DW	00H
	DW	00H
	DW	00H
	DW	00H
	DW	00H
	DW	00H
	DW	018c6H
	DW	0294aH
	DW	0294aH
	DW	0294aH
	DW	0294aH
	DW	02d6bH
	DW	02d6bH
	DW	02d6bH
	DW	02d6bH
	DW	039ceH
	DW	04a52H
	DW	039ceH
	DW	035adH
	DW	0318cH
	DW	0420H
	DW	02H
	DW	083aH
	DW	01fH
	DW	0859H
	DW	01ce7H
	DW	01ce7H
	DW	01ce7H
	DW	01ce7H
	DW	01ce7H
	DW	01ce7H
	DW	0842H
	DW	00H
	DW	00H
	DW	01084H
	DW	014a5H
	DW	014a5H
	DW	014a5H
	DW	014a5H
	DW	014a5H
	DW	014a5H
	DW	014a5H
	DW	014a5H
	DW	018c6H
	DW	01ce7H
	DW	01ce7H
	DW	01ce7H
	DW	01ce7H
	DW	01ce7H
	DW	01ce7H
	DW	01ce7H
	DW	01ce7H
	DW	01ce7H
	DW	01ce7H
	DW	01ce7H
	DW	01ce7H
	DW	01ce7H
	DW	01ce7H
	DW	01ce7H
	DW	01ce7H
	DW	01ce7H
	DW	01ce7H
	DW	01ce7H
	DW	01ce7H
	DW	01ce7H
	DW	01ce7H
	DW	01ce7H
	DW	01ce7H
	DW	01ce7H
	DW	01ce7H
	DW	01ce7H
	DW	01ce7H
	DW	01ce7H
	DW	01ce7H
	DW	01ce7H
	DW	01ce7H
	DW	01ce7H
	DW	01ce7H
	DW	01ce7H
	DW	01ce7H
	DW	01ce7H
	DW	01ce7H
	DW	01ce7H
	DW	01ce7H
	DW	01ce7H
	DW	01ce7H
	DW	01ce7H
	DW	01ce7H
	DW	01ce7H
	DW	01ce7H
	DW	01ce7H
	DW	01ce7H
	DW	01ce7H
	DW	01ce7H
	DW	01ce7H
	DW	0c63H
	DW	0421H
	DW	0421H
	DW	0421H
	DW	0421H
	DW	0421H
	DW	0421H
	DW	0421H
	DW	0421H
	DW	0421H
	DW	0421H
	DW	0842H
	DW	0421H
	DW	0421H
	DW	0421H
	DW	0421H
	DW	0421H
	DW	0421H
	DW	0421H
	DW	0421H
	DW	0421H
	DW	0421H
	DW	0421H
	DW	0421H
	DW	0421H
	DW	0421H
	DW	0421H
	DW	0421H
	DW	0421H
	DW	0421H
	DW	0421H
	DW	0421H
	DW	0421H
	DW	0421H
	DW	0421H
	DW	0842H
	DW	0421H
	DW	0421H
	DW	0421H
	DW	0421H
	DW	0c63H
	DW	018c6H
	DW	01ce7H
	DW	01ce7H
	DW	01ce7H
	DW	01ce7H
	DW	01ce7H
	DW	01ce7H
	DW	01ce7H
	DW	01ce7H
	DW	01ce7H
	DW	01ce7H
	DW	01ce7H
	DW	01ce7H
	DW	01ce7H
	DW	01ce7H
	DW	01ce7H
	DW	01ce7H
	DW	01ce7H
	DW	01ce7H
	DW	01ce7H
	DW	01ce7H
	DW	01ce7H
	DW	01ce7H
	DW	01ce7H
	DW	01ce7H
	DW	01ce7H
	DW	01ce7H
	DW	01ce7H
	DW	01ce7H
	DW	01ce7H
	DW	01ce7H
	DW	01ce7H
	DW	01ce7H
	DW	01ce7H
	DW	01ce7H
	DW	01ce7H
	DW	01ce7H
	DW	01ce7H
	DW	01ce7H
	DW	01ce7H
	DW	01ce7H
	DW	01ce7H
	DW	01ce7H
	DW	01ce7H
	DW	01ce7H
	DW	01ce7H
	DW	01ce7H
	DW	01ce7H
	DW	01ce7H
	DW	01ce7H
	DW	01ce7H
	DW	01ce7H
	DW	014a5H
	DW	014a5H
	DW	014a5H
	DW	014a5H
	DW	014a5H
	DW	014a5H
	DW	014a5H
	DW	014a5H
	DW	01084H
	DW	00H
	DW	00H
	DW	0842H
	DW	01ce7H
	DW	01ce7H
	DW	01ce7H
	DW	01ce7H
	DW	01ce7H
	DW	01ce6H
	DW	0c74H
	DW	01fH
	DW	043bH
	DW	03H
	DW	020H
	DW	0318cH
	DW	035adH
	DW	0318cH
	DW	02108H
	DW	00H
	DW	00H
	DW	00H
	DW	00H
	DW	00H
	DW	00H
	DW	00H
	DW	00H
	DW	00H
	DW	00H
	DW	0421H
	DW	00H
	DW	00H
	DW	00H
	DW	00H
	DW	00H
	DW	01ce7H
	DW	02529H
	DW	0294aH
	DW	0294aH
	DW	0294aH
	DW	0294aH
	DW	02d6bH
	DW	02d6bH
	DW	02d6bH
	DW	04210H
	DW	04631H
	DW	035adH
	DW	035adH
	DW	02108H
	DW	00H
	DW	0428H
	DW	041fH
	DW	01fH
	DW	01490H
	DW	01ce6H
	DW	01ce7H
	DW	01ce7H
	DW	01ce7H
	DW	01ce7H
	DW	018c6H
	DW	0421H
	DW	00H
	DW	0421H
	DW	014a5H
	DW	014a5H
	DW	014a5H
	DW	014a5H
	DW	014a5H
	DW	014a5H
	DW	014a5H
	DW	014a5H
	DW	014a5H
	DW	01ce7H
	DW	01ce7H
	DW	01ce7H
	DW	01ce7H
	DW	01ce7H
	DW	01ce7H
	DW	01ce7H
	DW	01ce7H
	DW	01ce7H
	DW	01ce7H
	DW	01ce7H
	DW	01ce7H
	DW	01ce7H
	DW	01ce7H
	DW	01ce7H
	DW	01ce7H
	DW	01ce7H
	DW	01ce7H
	DW	01ce7H
	DW	01ce7H
	DW	01ce7H
	DW	01ce7H
	DW	01ce7H
	DW	01ce7H
	DW	01ce7H
	DW	01ce7H
	DW	01ce7H
	DW	01ce7H
	DW	01ce7H
	DW	01ce7H
	DW	01ce7H
	DW	01ce7H
	DW	01ce7H
	DW	01ce7H
	DW	01ce7H
	DW	01ce7H
	DW	01ce7H
	DW	01ce7H
	DW	01ce7H
	DW	01ce7H
	DW	01ce7H
	DW	01ce7H
	DW	01ce7H
	DW	01ce7H
	DW	01ce7H
	DW	01ce7H
	DW	01ce7H
	DW	01ce7H
	DW	01ce7H
	DW	01ce7H
	DW	018c6H
	DW	0c63H
	DW	0421H
	DW	0421H
	DW	0421H
	DW	0421H
	DW	0421H
	DW	0421H
	DW	0421H
	DW	0421H
	DW	0421H
	DW	0421H
	DW	0421H
	DW	0421H
	DW	0421H
	DW	0421H
	DW	0421H
	DW	0421H
	DW	0421H
	DW	0421H
	DW	0421H
	DW	0842H
	DW	0421H
	DW	0421H
	DW	0421H
	DW	0421H
	DW	0421H
	DW	0421H
	DW	0421H
	DW	0421H
	DW	0421H
	DW	0421H
	DW	0421H
	DW	0421H
	DW	0421H
	DW	0421H
	DW	0421H
	DW	0421H
	DW	0421H
	DW	0842H
	DW	0421H
	DW	0421H
	DW	0421H
	DW	0842H
	DW	014a5H
	DW	01ce7H
	DW	01ce7H
	DW	01ce7H
	DW	01ce7H
	DW	01ce7H
	DW	01ce7H
	DW	01ce7H
	DW	01ce7H
	DW	01ce7H
	DW	01ce7H
	DW	01ce7H
	DW	01ce7H
	DW	01ce7H
	DW	01ce7H
	DW	01ce7H
	DW	01ce7H
	DW	01ce7H
	DW	01ce7H
	DW	01ce7H
	DW	01ce7H
	DW	01ce7H
	DW	01ce7H
	DW	01ce7H
	DW	01ce7H
	DW	01ce7H
	DW	01ce7H
	DW	01ce7H
	DW	01ce7H
	DW	01ce7H
	DW	01ce7H
	DW	01ce7H
	DW	01ce7H
	DW	01ce7H
	DW	01ce7H
	DW	01ce7H
	DW	01ce7H
	DW	01ce7H
	DW	01ce7H
	DW	01ce7H
	DW	01ce7H
	DW	01ce7H
	DW	01ce7H
	DW	01ce7H
	DW	01ce7H
	DW	01ce7H
	DW	01ce7H
	DW	01ce7H
	DW	01ce7H
	DW	01ce7H
	DW	01ce7H
	DW	014a5H
	DW	01084H
	DW	014a5H
	DW	014a5H
	DW	014a5H
	DW	014a5H
	DW	014a5H
	DW	014a5H
	DW	014a5H
	DW	0842H
	DW	00H
	DW	00H
	DW	018c6H
	DW	01ce7H
	DW	01ce7H
	DW	01ce7H
	DW	01ce7H
	DW	01ce6H
	DW	0148fH
	DW	041fH
	DW	041fH
	DW	0429H
	DW	00H
	DW	02108H
	DW	035adH
	DW	0318cH
	DW	0294aH
	DW	0842H
	DW	00H
	DW	00H
	DW	00H
	DW	00H
	DW	00H
	DW	00H
	DW	00H
	DW	00H
	DW	00H
	DW	00H
	DW	00H
	DW	00H
	DW	00H
	DW	00H
	DW	0421H
	DW	02529H
	DW	02529H
	DW	0294aH
	DW	0294aH
	DW	0294aH
	DW	0294aH
	DW	0294aH
	DW	0294aH
	DW	02d6bH
	DW	04631H
	DW	04210H
	DW	035adH
	DW	035adH
	DW	014a5H
	DW	00H
	DW	042fH
	DW	041fH
	DW	041fH
	DW	014adH
	DW	01ce6H
	DW	01ce7H
	DW	01ce7H
	DW	01ce7H
	DW	01ce7H
	DW	014a5H
	DW	00H
	DW	00H
	DW	0c63H
	DW	014a5H
	DW	014a5H
	DW	014a5H
	DW	014a5H
	DW	014a5H
	DW	014a5H
	DW	014a5H
	DW	014a5H
	DW	018c6H
	DW	01ce7H
	DW	01ce7H
	DW	01ce7H
	DW	01ce7H
	DW	01ce7H
	DW	01ce7H
	DW	01ce7H
	DW	01ce7H
	DW	01ce7H
	DW	01ce7H
	DW	01ce7H
	DW	01ce7H
	DW	01ce7H
	DW	01ce7H
	DW	01ce7H
	DW	01ce7H
	DW	01ce7H
	DW	01ce7H
	DW	01ce7H
	DW	01ce7H
	DW	01ce7H
	DW	01ce7H
	DW	01ce7H
	DW	01ce7H
	DW	01ce7H
	DW	01ce7H
	DW	01ce7H
	DW	01ce7H
	DW	01ce7H
	DW	01ce7H
	DW	01ce7H
	DW	01ce7H
	DW	01ce7H
	DW	01ce7H
	DW	01ce7H
	DW	01ce7H
	DW	01ce7H
	DW	01ce7H
	DW	01ce7H
	DW	01ce7H
	DW	01ce7H
	DW	01ce7H
	DW	01ce7H
	DW	01ce7H
	DW	01ce7H
	DW	01ce7H
	DW	01ce7H
	DW	01ce7H
	DW	01ce7H
	DW	014a5H
	DW	0842H
	DW	0421H
	DW	0421H
	DW	0421H
	DW	0421H
	DW	0421H
	DW	0421H
	DW	0421H
	DW	0421H
	DW	0421H
	DW	0421H
	DW	0421H
	DW	0421H
	DW	0421H
	DW	0421H
	DW	0421H
	DW	0421H
	DW	0421H
	DW	0421H
	DW	0421H
	DW	0421H
	DW	0421H
	DW	0421H
	DW	0421H
	DW	0421H
	DW	0421H
	DW	0421H
	DW	0421H
	DW	0421H
	DW	0421H
	DW	0421H
	DW	0421H
	DW	0421H
	DW	0421H
	DW	0421H
	DW	0421H
	DW	0421H
	DW	0421H
	DW	0421H
	DW	0842H
	DW	0421H
	DW	0421H
	DW	0421H
	DW	0421H
	DW	0421H
	DW	01084H
	DW	01ce7H
	DW	01ce7H
	DW	01ce7H
	DW	01ce7H
	DW	01ce7H
	DW	01ce7H
	DW	01ce7H
	DW	01ce7H
	DW	01ce7H
	DW	01ce7H
	DW	01ce7H
	DW	01ce7H
	DW	01ce7H
	DW	01ce7H
	DW	01ce7H
	DW	01ce7H
	DW	01ce7H
	DW	01ce7H
	DW	01ce7H
	DW	01ce7H
	DW	01ce7H
	DW	01ce7H
	DW	01ce7H
	DW	01ce7H
	DW	01ce7H
	DW	01ce7H
	DW	01ce7H
	DW	01ce7H
	DW	01ce7H
	DW	01ce7H
	DW	01ce7H
	DW	01ce7H
	DW	01ce7H
	DW	01ce7H
	DW	01ce7H
	DW	01ce7H
	DW	01ce7H
	DW	01ce7H
	DW	01ce7H
	DW	01ce7H
	DW	01ce7H
	DW	01ce7H
	DW	01ce7H
	DW	01ce7H
	DW	01ce7H
	DW	01ce7H
	DW	01ce7H
	DW	01ce7H
	DW	01ce7H
	DW	018c6H
	DW	014a5H
	DW	014a5H
	DW	014a5H
	DW	014a5H
	DW	014a5H
	DW	014a5H
	DW	014a5H
	DW	014a5H
	DW	0c63H
	DW	00H
	DW	00H
	DW	01084H
	DW	01ce7H
	DW	01ce7H
	DW	01ce7H
	DW	01ce7H
	DW	01ce6H
	DW	014aeH
	DW	041fH
	DW	041fH
	DW	0431H
	DW	00H
	DW	014a5H
	DW	035adH
	DW	035adH
	DW	02d6bH
	DW	01084H
	DW	00H
	DW	00H
	DW	00H
	DW	00H
	DW	00H
	DW	00H
	DW	00H
	DW	00H
	DW	00H
	DW	0421H
	DW	00H
	DW	00H
	DW	00H
	DW	00H
	DW	0c63H
	DW	02529H
	DW	02529H
	DW	02529H
	DW	02529H
	DW	0294aH
	DW	0294aH
	DW	0294aH
	DW	0294aH
	DW	0318cH
	DW	04a52H
	DW	03defH
	DW	035adH
	DW	0318cH
	DW	0421H
	DW	00H
	DW	0836H
	DW	041fH
	DW	083bH
	DW	018e8H
	DW	01ce7H
	DW	01ce7H
	DW	01ce7H
	DW	01ce7H
	DW	01ce7H
	DW	0c63H
	DW	00H
	DW	00H
	DW	01084H
	DW	014a5H
	DW	014a5H
	DW	014a5H
	DW	014a5H
	DW	014a5H
	DW	014a5H
	DW	014a5H
	DW	014a5H
	DW	018c6H
	DW	01ce7H
	DW	01ce7H
	DW	01ce7H
	DW	01ce7H
	DW	01ce7H
	DW	01ce7H
	DW	01ce7H
	DW	01ce7H
	DW	01ce7H
	DW	01ce7H
	DW	01ce7H
	DW	01ce7H
	DW	01ce7H
	DW	01ce7H
	DW	01ce7H
	DW	01ce7H
	DW	01ce7H
	DW	01ce7H
	DW	01ce7H
	DW	01ce7H
	DW	01ce7H
	DW	01ce7H
	DW	01ce7H
	DW	01ce7H
	DW	01ce7H
	DW	01ce7H
	DW	01ce7H
	DW	01ce7H
	DW	01ce7H
	DW	01ce7H
	DW	01ce7H
	DW	01ce7H
	DW	01ce7H
	DW	01ce7H
	DW	01ce7H
	DW	01ce7H
	DW	01ce7H
	DW	01ce7H
	DW	01ce7H
	DW	01ce7H
	DW	01ce7H
	DW	01ce7H
	DW	01ce7H
	DW	01ce7H
	DW	01ce7H
	DW	01ce7H
	DW	01ce7H
	DW	01ce7H
	DW	014a5H
	DW	0842H
	DW	0421H
	DW	0842H
	DW	0421H
	DW	0842H
	DW	0421H
	DW	0421H
	DW	0842H
	DW	0421H
	DW	0421H
	DW	0842H
	DW	0421H
	DW	0421H
	DW	0421H
	DW	0421H
	DW	0421H
	DW	0421H
	DW	0842H
	DW	0842H
	DW	0842H
	DW	0c63H
	DW	0c63H
	DW	01084H
	DW	01084H
	DW	01084H
	DW	01084H
	DW	0c63H
	DW	0c63H
	DW	0842H
	DW	0842H
	DW	0842H
	DW	0421H
	DW	0421H
	DW	0421H
	DW	0421H
	DW	0421H
	DW	0421H
	DW	0421H
	DW	0421H
	DW	0421H
	DW	0421H
	DW	0421H
	DW	0842H
	DW	0421H
	DW	0421H
	DW	0421H
	DW	0421H
	DW	01084H
	DW	01ce7H
	DW	01ce7H
	DW	01ce7H
	DW	01ce7H
	DW	01ce7H
	DW	01ce7H
	DW	01ce7H
	DW	01ce7H
	DW	01ce7H
	DW	01ce7H
	DW	01ce7H
	DW	01ce7H
	DW	01ce7H
	DW	01ce7H
	DW	01ce7H
	DW	01ce7H
	DW	01ce7H
	DW	01ce7H
	DW	01ce7H
	DW	01ce7H
	DW	01ce7H
	DW	01ce7H
	DW	01ce7H
	DW	01ce7H
	DW	01ce7H
	DW	01ce7H
	DW	01ce7H
	DW	01ce7H
	DW	01ce7H
	DW	01ce7H
	DW	01ce7H
	DW	01ce7H
	DW	01ce7H
	DW	01ce7H
	DW	01ce7H
	DW	01ce7H
	DW	01ce7H
	DW	01ce7H
	DW	01ce7H
	DW	01ce7H
	DW	01ce7H
	DW	01ce7H
	DW	01ce7H
	DW	01ce7H
	DW	01ce7H
	DW	01ce7H
	DW	01ce7H
	DW	01ce7H
	DW	01ce7H
	DW	014a5H
	DW	014a5H
	DW	014a5H
	DW	014a5H
	DW	014a5H
	DW	014a5H
	DW	014a5H
	DW	014a5H
	DW	01084H
	DW	00H
	DW	00H
	DW	0842H
	DW	01ce7H
	DW	01ce7H
	DW	01ce7H
	DW	01ce7H
	DW	01ce6H
	DW	01ce8H
	DW	083bH
	DW	041fH
	DW	0437H
	DW	00H
	DW	0421H
	DW	0318bH
	DW	035adH
	DW	02d6cH
	DW	018c6H
	DW	00H
	DW	00H
	DW	00H
	DW	00H
	DW	00H
	DW	00H
	DW	00H
	DW	00H
	DW	00H
	DW	00H
	DW	00H
	DW	00H
	DW	00H
	DW	00H
	DW	014a5H
	DW	02108H
	DW	02529H
	DW	02529H
	DW	02529H
	DW	02529H
	DW	0294aH
	DW	0294aH
	DW	0294aH
	DW	035adH
	DW	04a52H
	DW	039ceH
	DW	035adH
	DW	02d6bH
	DW	00H
	DW	023H
	DW	043cH
	DW	01fH
	DW	0858H
	DW	01ce6H
	DW	01ce7H
	DW	01ce7H
	DW	01ce7H
	DW	01ce7H
	DW	01ce7H
	DW	0421H
	DW	00H
	DW	0421H
	DW	014a5H
	DW	014a5H
	DW	014a5H
	DW	014a5H
	DW	014a5H
	DW	014a5H
	DW	014a5H
	DW	014a5H
	DW	014a5H
	DW	01ce7H
	DW	01ce7H
	DW	01ce7H
	DW	01ce7H
	DW	01ce7H
	DW	01ce7H
	DW	01ce7H
	DW	01ce7H
	DW	01ce7H
	DW	01ce7H
	DW	01ce7H
	DW	01ce7H
	DW	01ce7H
	DW	01ce7H
	DW	01ce7H
	DW	01ce7H
	DW	01ce7H
	DW	01ce7H
	DW	01ce7H
	DW	01ce7H
	DW	01ce7H
	DW	01ce7H
	DW	01ce7H
	DW	01ce7H
	DW	01ce7H
	DW	01ce7H
	DW	01ce7H
	DW	01ce7H
	DW	01ce7H
	DW	01ce7H
	DW	01ce7H
	DW	01ce7H
	DW	01ce7H
	DW	01ce7H
	DW	01ce7H
	DW	01ce7H
	DW	01ce7H
	DW	01ce7H
	DW	01ce7H
	DW	01ce7H
	DW	01ce7H
	DW	01ce7H
	DW	01ce7H
	DW	01ce7H
	DW	01ce7H
	DW	01ce7H
	DW	01ce7H
	DW	01ce7H
	DW	014a5H
	DW	0842H
	DW	0421H
	DW	0421H
	DW	0421H
	DW	0421H
	DW	0421H
	DW	0421H
	DW	0421H
	DW	0421H
	DW	0842H
	DW	0421H
	DW	0421H
	DW	0421H
	DW	0421H
	DW	0421H
	DW	0421H
	DW	0842H
	DW	0c63H
	DW	01084H
	DW	014a5H
	DW	018c6H
	DW	01ce7H
	DW	01ce7H
	DW	01ce7H
	DW	01ce7H
	DW	01ce7H
	DW	01ce7H
	DW	01ce7H
	DW	01ce7H
	DW	018c6H
	DW	014a5H
	DW	01084H
	DW	0c63H
	DW	0842H
	DW	0842H
	DW	0421H
	DW	0421H
	DW	0421H
	DW	0421H
	DW	0421H
	DW	0421H
	DW	0421H
	DW	0421H
	DW	0421H
	DW	0421H
	DW	0421H
	DW	0842H
	DW	0421H
	DW	0421H
	DW	01084H
	DW	01ce7H
	DW	01ce7H
	DW	01ce7H
	DW	01ce7H
	DW	01ce7H
	DW	01ce7H
	DW	01ce7H
	DW	01ce7H
	DW	01ce7H
	DW	01ce7H
	DW	01ce7H
	DW	01ce7H
	DW	01ce7H
	DW	01ce7H
	DW	01ce7H
	DW	01ce7H
	DW	01ce7H
	DW	01ce7H
	DW	01ce7H
	DW	01ce7H
	DW	01ce7H
	DW	01ce7H
	DW	01ce7H
	DW	01ce7H
	DW	01ce7H
	DW	01ce7H
	DW	01ce7H
	DW	01ce7H
	DW	01ce7H
	DW	01ce7H
	DW	01ce7H
	DW	01ce7H
	DW	01ce7H
	DW	01ce7H
	DW	01ce7H
	DW	01ce7H
	DW	01ce7H
	DW	01ce7H
	DW	01ce7H
	DW	01ce7H
	DW	01ce7H
	DW	01ce7H
	DW	01ce7H
	DW	01ce7H
	DW	01ce7H
	DW	01ce7H
	DW	01ce7H
	DW	01ce7H
	DW	014a5H
	DW	014a5H
	DW	014a5H
	DW	014a5H
	DW	014a5H
	DW	014a5H
	DW	014a5H
	DW	014a5H
	DW	014a5H
	DW	0421H
	DW	00H
	DW	00H
	DW	018c6H
	DW	01ce7H
	DW	01ce7H
	DW	01ce7H
	DW	01ce7H
	DW	01ce5H
	DW	0c58H
	DW	01fH
	DW	041dH
	DW	0404H
	DW	00H
	DW	02d6bH
	DW	035adH
	DW	0318cH
	DW	02107H
	DW	00H
	DW	00H
	DW	00H
	DW	00H
	DW	00H
	DW	00H
	DW	00H
	DW	00H
	DW	00H
	DW	00H
	DW	00H
	DW	00H
	DW	00H
	DW	00H
	DW	018c6H
	DW	02108H
	DW	02529H
	DW	02529H
	DW	02529H
	DW	02529H
	DW	02529H
	DW	0294aH
	DW	0294aH
	DW	03defH
	DW	04631H
	DW	035adH
	DW	035adH
	DW	01ce7H
	DW	00H
	DW	0428H
	DW	041fH
	DW	01fH
	DW	01092H
	DW	01ce6H
	DW	01ce7H
	DW	01ce7H
	DW	01ce7H
	DW	01ce7H
	DW	014a5H
	DW	00H
	DW	00H
	DW	0842H
	DW	014a5H
	DW	014a5H
	DW	014a5H
	DW	014a5H
	DW	014a5H
	DW	014a5H
	DW	014a5H
	DW	014a5H
	DW	018c6H
	DW	01ce7H
	DW	01ce7H
	DW	01ce7H
	DW	01ce7H
	DW	01ce7H
	DW	01ce7H
	DW	01ce7H
	DW	01ce7H
	DW	01ce7H
	DW	01ce7H
	DW	01ce7H
	DW	01ce7H
	DW	01ce7H
	DW	01ce7H
	DW	01ce7H
	DW	01ce7H
	DW	01ce7H
	DW	01ce7H
	DW	01ce7H
	DW	01ce7H
	DW	01ce7H
	DW	01ce7H
	DW	01ce7H
	DW	01ce7H
	DW	01ce7H
	DW	01ce7H
	DW	01ce7H
	DW	01ce7H
	DW	01ce7H
	DW	01ce7H
	DW	01ce7H
	DW	01ce7H
	DW	01ce7H
	DW	01ce7H
	DW	01ce7H
	DW	01ce7H
	DW	01ce7H
	DW	01ce7H
	DW	01ce7H
	DW	01ce7H
	DW	01ce7H
	DW	01ce7H
	DW	01ce7H
	DW	01ce7H
	DW	01ce7H
	DW	01ce7H
	DW	01ce7H
	DW	018c6H
	DW	0842H
	DW	0421H
	DW	0421H
	DW	0421H
	DW	0842H
	DW	0842H
	DW	0421H
	DW	0842H
	DW	0421H
	DW	0421H
	DW	0421H
	DW	0421H
	DW	0842H
	DW	0421H
	DW	0421H
	DW	0842H
	DW	01084H
	DW	014a5H
	DW	018c6H
	DW	01ce7H
	DW	01ce7H
	DW	01ce7H
	DW	01ce7H
	DW	01ce7H
	DW	01ce7H
	DW	01ce7H
	DW	01ce7H
	DW	01ce7H
	DW	01ce7H
	DW	01ce7H
	DW	01ce7H
	DW	01ce7H
	DW	018c7H
	DW	018c6H
	DW	014a5H
	DW	01084H
	DW	0c63H
	DW	0842H
	DW	0421H
	DW	0421H
	DW	0421H
	DW	0421H
	DW	0421H
	DW	0421H
	DW	0842H
	DW	0421H
	DW	0421H
	DW	0421H
	DW	0421H
	DW	0421H
	DW	0421H
	DW	014a5H
	DW	01ce7H
	DW	01ce7H
	DW	01ce7H
	DW	01ce7H
	DW	01ce7H
	DW	01ce7H
	DW	01ce7H
	DW	01ce7H
	DW	01ce7H
	DW	01ce7H
	DW	01ce7H
	DW	01ce7H
	DW	01ce7H
	DW	01ce7H
	DW	01ce7H
	DW	01ce7H
	DW	01ce7H
	DW	01ce7H
	DW	01ce7H
	DW	01ce7H
	DW	01ce7H
	DW	01ce7H
	DW	01ce7H
	DW	01ce7H
	DW	01ce7H
	DW	01ce7H
	DW	01ce7H
	DW	01ce7H
	DW	01ce7H
	DW	01ce7H
	DW	01ce7H
	DW	01ce7H
	DW	01ce7H
	DW	01ce7H
	DW	01ce7H
	DW	01ce7H
	DW	01ce7H
	DW	01ce7H
	DW	01ce7H
	DW	01ce7H
	DW	01ce7H
	DW	01ce7H
	DW	01ce7H
	DW	01ce7H
	DW	01ce7H
	DW	01ce7H
	DW	01ce7H
	DW	018c6H
	DW	014a5H
	DW	014a5H
	DW	014a5H
	DW	014a5H
	DW	014a5H
	DW	014a5H
	DW	014a5H
	DW	014a5H
	DW	0c63H
	DW	00H
	DW	00H
	DW	014a5H
	DW	01ce7H
	DW	01ce7H
	DW	01ce7H
	DW	01ce7H
	DW	01d06H
	DW	01092H
	DW	01fH
	DW	041fH
	DW	0429H
	DW	00H
	DW	0292aH
	DW	035adH
	DW	0318cH
	DW	02529H
	DW	0421H
	DW	00H
	DW	00H
	DW	00H
	DW	00H
	DW	00H
	DW	00H
	DW	00H
	DW	00H
	DW	00H
	DW	0421H
	DW	00H
	DW	00H
	DW	00H
	DW	018c6H
	DW	02108H
	DW	02529H
	DW	02529H
	DW	02529H
	DW	02529H
	DW	02529H
	DW	02529H
	DW	0294aH
	DW	04210H
	DW	04210H
	DW	035adH
	DW	035adH
	DW	0c63H
	DW	00H
	DW	082eH
	DW	041fH
	DW	01fH
	DW	014acH
	DW	01ce6H
	DW	01ce7H
	DW	01ce7H
	DW	01ce7H
	DW	01ce7H
	DW	01084H
	DW	00H
	DW	00H
	DW	0c63H
	DW	014a5H
	DW	014a5H
	DW	014a5H
	DW	014a5H
	DW	014a5H
	DW	014a5H
	DW	014a5H
	DW	014a5H
	DW	018c6H
	DW	01ce7H
	DW	01ce7H
	DW	01ce7H
	DW	01ce7H
	DW	01ce7H
	DW	01ce7H
	DW	01ce7H
	DW	01ce7H
	DW	01ce7H
	DW	01ce7H
	DW	01ce7H
	DW	01ce7H
	DW	01ce7H
	DW	01ce7H
	DW	01ce7H
	DW	01ce7H
	DW	01ce7H
	DW	01ce7H
	DW	01ce7H
	DW	01ce7H
	DW	01ce7H
	DW	01ce7H
	DW	01ce7H
	DW	01ce7H
	DW	01ce7H
	DW	01ce7H
	DW	01ce7H
	DW	01ce7H
	DW	01ce7H
	DW	01ce7H
	DW	01ce7H
	DW	01ce7H
	DW	01ce7H
	DW	01ce7H
	DW	01ce7H
	DW	01ce7H
	DW	01ce7H
	DW	01ce7H
	DW	01ce7H
	DW	01ce7H
	DW	01ce7H
	DW	01ce7H
	DW	01ce7H
	DW	01ce7H
	DW	01ce7H
	DW	01ce7H
	DW	01ce7H
	DW	0c63H
	DW	0421H
	DW	0421H
	DW	0842H
	DW	0421H
	DW	0421H
	DW	0421H
	DW	0421H
	DW	0421H
	DW	0842H
	DW	0421H
	DW	0842H
	DW	0421H
	DW	0421H
	DW	0842H
	DW	0c63H
	DW	014a5H
	DW	018c6H
	DW	018c7H
	DW	01ce7H
	DW	01ce7H
	DW	01ce7H
	DW	01ce7H
	DW	01ce7H
	DW	01ce7H
	DW	01ce7H
	DW	01ce7H
	DW	01ce7H
	DW	01ce7H
	DW	01ce7H
	DW	01ce7H
	DW	01ce7H
	DW	01ce7H
	DW	01ce7H
	DW	01ce7H
	DW	01ce7H
	DW	018c6H
	DW	014a5H
	DW	01084H
	DW	0c63H
	DW	0842H
	DW	0421H
	DW	0421H
	DW	0421H
	DW	0842H
	DW	0421H
	DW	0421H
	DW	0842H
	DW	0421H
	DW	0421H
	DW	0842H
	DW	0421H
	DW	0421H
	DW	014a5H
	DW	01ce7H
	DW	01ce7H
	DW	01ce7H
	DW	01ce7H
	DW	01ce7H
	DW	01ce7H
	DW	01ce7H
	DW	01ce7H
	DW	01ce7H
	DW	01ce7H
	DW	01ce7H
	DW	01ce7H
	DW	01ce7H
	DW	01ce7H
	DW	01ce7H
	DW	01ce7H
	DW	01ce7H
	DW	01ce7H
	DW	01ce7H
	DW	01ce7H
	DW	01ce7H
	DW	01ce7H
	DW	01ce7H
	DW	01ce7H
	DW	01ce7H
	DW	01ce7H
	DW	01ce7H
	DW	01ce7H
	DW	01ce7H
	DW	01ce7H
	DW	01ce7H
	DW	01ce7H
	DW	01ce7H
	DW	01ce7H
	DW	01ce7H
	DW	01ce7H
	DW	01ce7H
	DW	01ce7H
	DW	01ce7H
	DW	01ce7H
	DW	01ce7H
	DW	01ce7H
	DW	01ce7H
	DW	01ce7H
	DW	01ce7H
	DW	01ce7H
	DW	01ce7H
	DW	014a5H
	DW	014a5H
	DW	014a5H
	DW	014a5H
	DW	014a5H
	DW	014a5H
	DW	014a5H
	DW	014a5H
	DW	0c63H
	DW	00H
	DW	00H
	DW	0c63H
	DW	01ce7H
	DW	01ce7H
	DW	01ce7H
	DW	01ce7H
	DW	020e6H
	DW	018cbH
	DW	01fH
	DW	01fH
	DW	0830H
	DW	00H
	DW	01cc6H
	DW	039adH
	DW	0318cH
	DW	0294aH
	DW	0c63H
	DW	00H
	DW	00H
	DW	00H
	DW	00H
	DW	00H
	DW	00H
	DW	00H
	DW	00H
	DW	00H
	DW	00H
	DW	00H
	DW	00H
	DW	0421H
	DW	01ce7H
	DW	02108H
	DW	02108H
	DW	02108H
	DW	02529H
	DW	02529H
	DW	02529H
	DW	02529H
	DW	02d6bH
	DW	04631H
	DW	04210H
	DW	035adH
	DW	035adH
	DW	0c63H
	DW	00H
	DW	0834H
	DW	041fH
	DW	041eH
	DW	018c9H
	DW	01ce7H
	DW	01ce7H
	DW	018e7H
	DW	01ce7H
	DW	01ce7H
	DW	0842H
	DW	00H
	DW	00H
	DW	01084H
	DW	014a5H
	DW	014a5H
	DW	014a5H
	DW	014a5H
	DW	014a5H
	DW	014a5H
	DW	014a5H
	DW	014a5H
	DW	01ce7H
	DW	01ce7H
	DW	01ce7H
	DW	01ce7H
	DW	01ce7H
	DW	01ce7H
	DW	01ce7H
	DW	01ce7H
	DW	01ce7H
	DW	01ce7H
	DW	01ce7H
	DW	01ce7H
	DW	01ce7H
	DW	01ce7H
	DW	01ce7H
	DW	01ce7H
	DW	01ce7H
	DW	01ce7H
	DW	01ce7H
	DW	01ce7H
	DW	01ce7H
	DW	01ce7H
	DW	01ce7H
	DW	01ce7H
	DW	01ce7H
	DW	01ce7H
	DW	01ce7H
	DW	01ce7H
	DW	01ce7H
	DW	01ce7H
	DW	01ce7H
	DW	01ce7H
	DW	01ce7H
	DW	01ce7H
	DW	01ce7H
	DW	01ce7H
	DW	01ce7H
	DW	01ce7H
	DW	01ce7H
	DW	01ce7H
	DW	01ce7H
	DW	01ce7H
	DW	01ce7H
	DW	01ce7H
	DW	01ce7H
	DW	01ce7H
	DW	01ce7H
	DW	0c63H
	DW	0421H
	DW	0421H
	DW	0421H
	DW	0421H
	DW	0421H
	DW	0842H
	DW	0421H
	DW	0421H
	DW	0421H
	DW	0421H
	DW	0421H
	DW	0421H
	DW	0842H
	DW	0c63H
	DW	01084H
	DW	018c6H
	DW	018c6H
	DW	01ce7H
	DW	01ce7H
	DW	01ce7H
	DW	01ce7H
	DW	01ce7H
	DW	01ce7H
	DW	01ce7H
	DW	01ce7H
	DW	01ce7H
	DW	01ce7H
	DW	01ce7H
	DW	01ce7H
	DW	01ce7H
	DW	01ce7H
	DW	01ce7H
	DW	01ce7H
	DW	01ce7H
	DW	01ce7H
	DW	01ce7H
	DW	01ce7H
	DW	018c6H
	DW	018c6H
	DW	014a5H
	DW	01084H
	DW	0842H
	DW	0842H
	DW	0421H
	DW	0421H
	DW	0421H
	DW	0421H
	DW	0842H
	DW	0421H
	DW	0421H
	DW	0421H
	DW	0421H
	DW	0421H
	DW	0842H
	DW	018c6H
	DW	01ce7H
	DW	01ce7H
	DW	01ce7H
	DW	01ce7H
	DW	01ce7H
	DW	01ce7H
	DW	01ce7H
	DW	01ce7H
	DW	01ce7H
	DW	01ce7H
	DW	01ce7H
	DW	01ce7H
	DW	01ce7H
	DW	01ce7H
	DW	01ce7H
	DW	01ce7H
	DW	01ce7H
	DW	01ce7H
	DW	01ce7H
	DW	01ce7H
	DW	01ce7H
	DW	01ce7H
	DW	01ce7H
	DW	01ce7H
	DW	01ce7H
	DW	01ce7H
	DW	01ce7H
	DW	01ce7H
	DW	01ce7H
	DW	01ce7H
	DW	01ce7H
	DW	01ce7H
	DW	01ce7H
	DW	01ce7H
	DW	01ce7H
	DW	01ce7H
	DW	01ce7H
	DW	01ce7H
	DW	01ce7H
	DW	01ce7H
	DW	01ce7H
	DW	01ce7H
	DW	01ce7H
	DW	01ce7H
	DW	01ce7H
	DW	01ce7H
	DW	014a5H
	DW	014a5H
	DW	014a5H
	DW	014a5H
	DW	014a5H
	DW	014a5H
	DW	014a5H
	DW	014a5H
	DW	01084H
	DW	00H
	DW	00H
	DW	0842H
	DW	01ce7H
	DW	01ce7H
	DW	01ce7H
	DW	01ce7H
	DW	01ce7H
	DW	01ce8H
	DW	083aH
	DW	041fH
	DW	0835H
	DW	00H
	DW	01063H
	DW	035adH
	DW	035adH
	DW	02d6bH
	DW	014a5H
	DW	00H
	DW	00H
	DW	00H
	DW	00H
	DW	00H
	DW	00H
	DW	00H
	DW	00H
	DW	00H
	DW	00H
	DW	00H
	DW	00H
	DW	0842H
	DW	01ce7H
	DW	02108H
	DW	02108H
	DW	02108H
	DW	02108H
	DW	02108H
	DW	02108H
	DW	02529H
	DW	02d6bH
	DW	04631H
	DW	03defH
	DW	035adH
	DW	031acH
	DW	0842H
	DW	00H
	DW	0438H
	DW	01fH
	DW	0c57H
	DW	01ce7H
	DW	01ce7H
	DW	01ce7H
	DW	01ce7H
	DW	01ce7H
	DW	01ce7H
	DW	0421H
	DW	00H
	DW	0421H
	DW	01084H
	DW	014a5H
	DW	014a5H
	DW	014a5H
	DW	014a5H
	DW	014a5H
	DW	014a5H
	DW	014a5H
	DW	014a5H
	DW	01ce7H
	DW	01ce7H
	DW	01ce7H
	DW	01ce7H
	DW	01ce7H
	DW	01ce7H
	DW	01ce7H
	DW	01ce7H
	DW	01ce7H
	DW	01ce7H
	DW	01ce7H
	DW	01ce7H
	DW	01ce7H
	DW	01ce7H
	DW	01ce7H
	DW	01ce7H
	DW	01ce7H
	DW	01ce7H
	DW	01ce7H
	DW	01ce7H
	DW	01ce7H
	DW	01ce7H
	DW	01ce7H
	DW	01ce7H
	DW	01ce7H
	DW	01ce7H
	DW	01ce7H
	DW	01ce7H
	DW	01ce7H
	DW	01ce7H
	DW	01ce7H
	DW	01ce7H
	DW	01ce7H
	DW	01ce7H
	DW	01ce7H
	DW	01ce7H
	DW	01ce7H
	DW	01ce7H
	DW	01ce7H
	DW	01ce7H
	DW	01ce7H
	DW	01ce7H
	DW	01ce7H
	DW	01ce7H
	DW	01ce7H
	DW	01ce7H
	DW	014a5H
	DW	0421H
	DW	0421H
	DW	0421H
	DW	0421H
	DW	0421H
	DW	0842H
	DW	0421H
	DW	0421H
	DW	0421H
	DW	0421H
	DW	0421H
	DW	0421H
	DW	0842H
	DW	0c63H
	DW	014a5H
	DW	018c6H
	DW	01cc7H
	DW	01ce7H
	DW	01ce7H
	DW	01ce7H
	DW	01ce7H
	DW	01ce7H
	DW	01ce7H
	DW	01ce7H
	DW	01ce7H
	DW	01ce7H
	DW	01ce7H
	DW	01ce7H
	DW	01ce7H
	DW	01ce7H
	DW	01ce7H
	DW	01ce7H
	DW	01ce7H
	DW	01ce7H
	DW	01ce7H
	DW	01ce7H
	DW	01ce7H
	DW	01ce7H
	DW	01ce7H
	DW	01ce7H
	DW	018c6H
	DW	014a5H
	DW	014a5H
	DW	0c63H
	DW	0842H
	DW	0421H
	DW	0842H
	DW	0421H
	DW	0421H
	DW	0842H
	DW	0421H
	DW	0421H
	DW	0421H
	DW	0421H
	DW	0421H
	DW	0c63H
	DW	01ce7H
	DW	01ce7H
	DW	01ce7H
	DW	01ce7H
	DW	01ce7H
	DW	01ce7H
	DW	01ce7H
	DW	01ce7H
	DW	01ce7H
	DW	01ce7H
	DW	01ce7H
	DW	01ce7H
	DW	01ce7H
	DW	01ce7H
	DW	01ce7H
	DW	01ce7H
	DW	01ce7H
	DW	01ce7H
	DW	01ce7H
	DW	01ce7H
	DW	01ce7H
	DW	01ce7H
	DW	01ce7H
	DW	01ce7H
	DW	01ce7H
	DW	01ce7H
	DW	01ce7H
	DW	01ce7H
	DW	01ce7H
	DW	01ce7H
	DW	01ce7H
	DW	01ce7H
	DW	01ce7H
	DW	01ce7H
	DW	01ce7H
	DW	01ce7H
	DW	01ce7H
	DW	01ce7H
	DW	01ce7H
	DW	01ce7H
	DW	01ce7H
	DW	01ce7H
	DW	01ce7H
	DW	01ce7H
	DW	01ce7H
	DW	01ce7H
	DW	018c6H
	DW	014a5H
	DW	014a5H
	DW	014a5H
	DW	014a5H
	DW	014a5H
	DW	014a5H
	DW	014a5H
	DW	014a5H
	DW	0421H
	DW	00H
	DW	0421H
	DW	018c6H
	DW	01ce7H
	DW	01ce7H
	DW	01ce7H
	DW	01ce7H
	DW	01ce6H
	DW	0c76H
	DW	041fH
	DW	083aH
	DW	02H
	DW	0441H
	DW	0318cH
	DW	035adH
	DW	02d6bH
	DW	014a5H
	DW	00H
	DW	00H
	DW	00H
	DW	00H
	DW	00H
	DW	00H
	DW	00H
	DW	00H
	DW	00H
	DW	00H
	DW	00H
	DW	00H
	DW	0c63H
	DW	01ce7H
	DW	02108H
	DW	02108H
	DW	02108H
	DW	02108H
	DW	02108H
	DW	02108H
	DW	02108H
	DW	0318cH
	DW	04631H
	DW	039ceH
	DW	035adH
	DW	02d6bH
	DW	020H
	DW	0405H
	DW	043cH
	DW	01fH
	DW	0c74H
	DW	01ce6H
	DW	01ce7H
	DW	01ce7H
	DW	01ce7H
	DW	01ce7H
	DW	018c6H
	DW	00H
	DW	00H
	DW	0842H
	DW	014a5H
	DW	014a5H
	DW	014a5H
	DW	014a5H
	DW	014a5H
	DW	014a5H
	DW	014a5H
	DW	014a5H
	DW	018c6H
	DW	01ce7H
	DW	01ce7H
	DW	01ce7H
	DW	01ce7H
	DW	01ce7H
	DW	01ce7H
	DW	01ce7H
	DW	01ce7H
	DW	01ce7H
	DW	01ce7H
	DW	01ce7H
	DW	01ce7H
	DW	01ce7H
	DW	01ce7H
	DW	01ce7H
	DW	01ce7H
	DW	01ce7H
	DW	01ce7H
	DW	01ce7H
	DW	01ce7H
	DW	01ce7H
	DW	01ce7H
	DW	01ce7H
	DW	01ce7H
	DW	01ce7H
	DW	01ce7H
	DW	01ce7H
	DW	01ce7H
	DW	01ce7H
	DW	01ce7H
	DW	01ce7H
	DW	01ce7H
	DW	01ce7H
	DW	01ce7H
	DW	01ce7H
	DW	01ce7H
	DW	01ce7H
	DW	01ce7H
	DW	01ce7H
	DW	01ce7H
	DW	01ce7H
	DW	01ce7H
	DW	01ce7H
	DW	01ce7H
	DW	01ce7H
	DW	018c6H
	DW	0842H
	DW	0421H
	DW	0421H
	DW	0421H
	DW	0421H
	DW	0421H
	DW	0421H
	DW	0421H
	DW	0421H
	DW	0421H
	DW	0842H
	DW	0421H
	DW	0842H
	DW	01084H
	DW	014a5H
	DW	018c6H
	DW	01ce7H
	DW	01ce7H
	DW	01ce7H
	DW	01ce7H
	DW	01ce7H
	DW	01ce7H
	DW	01ce7H
	DW	01ce7H
	DW	01ce7H
	DW	01ce7H
	DW	01ce7H
	DW	01ce7H
	DW	01ce7H
	DW	01ce7H
	DW	01ce7H
	DW	01ce7H
	DW	01ce7H
	DW	01ce7H
	DW	01ce7H
	DW	01ce7H
	DW	01ce7H
	DW	01ce7H
	DW	01ce7H
	DW	01ce7H
	DW	01ce7H
	DW	01ce7H
	DW	018c6H
	DW	018c6H
	DW	014a5H
	DW	01084H
	DW	0842H
	DW	0421H
	DW	0421H
	DW	0421H
	DW	0421H
	DW	0421H
	DW	0421H
	DW	0421H
	DW	0421H
	DW	0421H
	DW	0421H
	DW	014a5H
	DW	01ce7H
	DW	01ce7H
	DW	01ce7H
	DW	01ce7H
	DW	01ce7H
	DW	01ce7H
	DW	01ce7H
	DW	01ce7H
	DW	01ce7H
	DW	01ce7H
	DW	01ce7H
	DW	01ce7H
	DW	01ce7H
	DW	01ce7H
	DW	01ce7H
	DW	01ce7H
	DW	01ce7H
	DW	01ce7H
	DW	01ce7H
	DW	01ce7H
	DW	01ce7H
	DW	01ce7H
	DW	01ce7H
	DW	01ce7H
	DW	01ce7H
	DW	01ce7H
	DW	01ce7H
	DW	01ce7H
	DW	01ce7H
	DW	01ce7H
	DW	01ce7H
	DW	01ce7H
	DW	01ce7H
	DW	01ce7H
	DW	01ce7H
	DW	01ce7H
	DW	01ce7H
	DW	01ce7H
	DW	01ce7H
	DW	01ce7H
	DW	01ce7H
	DW	01ce7H
	DW	01ce7H
	DW	01ce7H
	DW	01ce7H
	DW	018c6H
	DW	014a5H
	DW	014a5H
	DW	014a5H
	DW	014a5H
	DW	014a5H
	DW	014a5H
	DW	014a5H
	DW	014a5H
	DW	0842H
	DW	00H
	DW	00H
	DW	014a5H
	DW	01ce7H
	DW	01ce7H
	DW	01ce7H
	DW	01ce7H
	DW	01ce5H
	DW	01073H
	DW	01fH
	DW	041eH
	DW	0406H
	DW	00H
	DW	0294aH
	DW	035adH
	DW	0318cH
	DW	020e8H
	DW	0400H
	DW	00H
	DW	00H
	DW	00H
	DW	00H
	DW	00H
	DW	00H
	DW	00H
	DW	00H
	DW	00H
	DW	00H
	DW	00H
	DW	01084H
	DW	01ce7H
	DW	01ce7H
	DW	01ce7H
	DW	02108H
	DW	02108H
	DW	02108H
	DW	02108H
	DW	02108H
	DW	039ceH
	DW	04631H
	DW	035adH
	DW	035adH
	DW	02529H
	DW	00H
	DW	0429H
	DW	041fH
	DW	01fH
	DW	01091H
	DW	01d06H
	DW	01ce7H
	DW	01ce7H
	DW	01ce7H
	DW	01ce7H
	DW	014a5H
	DW	00H
	DW	00H
	DW	0c63H
	DW	014a5H
	DW	014a5H
	DW	014a5H
	DW	014a5H
	DW	014a5H
	DW	014a5H
	DW	014a5H
	DW	014a5H
	DW	018c6H
	DW	01ce7H
	DW	01ce7H
	DW	01ce7H
	DW	01ce7H
	DW	01ce7H
	DW	01ce7H
	DW	01ce7H
	DW	01ce7H
	DW	01ce7H
	DW	01ce7H
	DW	01ce7H
	DW	01ce7H
	DW	01ce7H
	DW	01ce7H
	DW	01ce7H
	DW	01ce7H
	DW	01ce7H
	DW	01ce7H
	DW	01ce7H
	DW	01ce7H
	DW	01ce7H
	DW	01ce7H
	DW	01ce7H
	DW	01ce7H
	DW	01ce7H
	DW	01ce7H
	DW	01ce7H
	DW	01ce7H
	DW	01ce7H
	DW	01ce7H
	DW	01ce7H
	DW	01ce7H
	DW	01ce7H
	DW	01ce7H
	DW	01ce7H
	DW	01ce7H
	DW	01ce7H
	DW	01ce7H
	DW	01ce7H
	DW	01ce7H
	DW	01ce7H
	DW	01ce7H
	DW	01ce7H
	DW	01ce7H
	DW	01ce7H
	DW	0c63H
	DW	0421H
	DW	0421H
	DW	0421H
	DW	0421H
	DW	0421H
	DW	0421H
	DW	0421H
	DW	0421H
	DW	0421H
	DW	0421H
	DW	0421H
	DW	0842H
	DW	01084H
	DW	018c6H
	DW	01cc7H
	DW	01ce7H
	DW	01ce7H
	DW	01ce7H
	DW	01ce7H
	DW	01ce7H
	DW	01ce7H
	DW	01ce7H
	DW	01ce7H
	DW	01ce7H
	DW	01ce7H
	DW	01ce7H
	DW	01ce7H
	DW	01ce7H
	DW	01ce7H
	DW	01ce7H
	DW	01ce7H
	DW	01ce7H
	DW	01ce7H
	DW	01ce7H
	DW	01ce7H
	DW	01ce7H
	DW	01ce7H
	DW	01ce7H
	DW	01ce7H
	DW	01ce7H
	DW	01ce7H
	DW	01ce7H
	DW	01ce7H
	DW	01cc7H
	DW	018c6H
	DW	014a5H
	DW	01084H
	DW	0c63H
	DW	0842H
	DW	0421H
	DW	0421H
	DW	0421H
	DW	0421H
	DW	0421H
	DW	0421H
	DW	0421H
	DW	0421H
	DW	0842H
	DW	018c6H
	DW	01ce7H
	DW	01ce7H
	DW	01ce7H
	DW	01ce7H
	DW	01ce7H
	DW	01ce7H
	DW	01ce7H
	DW	01ce7H
	DW	01ce7H
	DW	01ce7H
	DW	01ce7H
	DW	01ce7H
	DW	01ce7H
	DW	01ce7H
	DW	01ce7H
	DW	01ce7H
	DW	01ce7H
	DW	01ce7H
	DW	01ce7H
	DW	01ce7H
	DW	01ce7H
	DW	01ce7H
	DW	01ce7H
	DW	01ce7H
	DW	01ce7H
	DW	01ce7H
	DW	01ce7H
	DW	01ce7H
	DW	01ce7H
	DW	01ce7H
	DW	01ce7H
	DW	01ce7H
	DW	01ce7H
	DW	01ce7H
	DW	01ce7H
	DW	01ce7H
	DW	01ce7H
	DW	01ce7H
	DW	01ce7H
	DW	01ce7H
	DW	01ce7H
	DW	01ce7H
	DW	01ce7H
	DW	01ce7H
	DW	01cc7H
	DW	014a5H
	DW	014a5H
	DW	014a5H
	DW	014a5H
	DW	014a5H
	DW	014a5H
	DW	014a5H
	DW	014a5H
	DW	0c63H
	DW	00H
	DW	00H
	DW	01084H
	DW	01ce8H
	DW	01ce7H
	DW	01ce7H
	DW	01ce7H
	DW	020e6H
	DW	014adH
	DW	041fH
	DW	041fH
	DW	042aH
	DW	00H
	DW	02108H
	DW	039adH
	DW	0318cH
	DW	02108H
	DW	0421H
	DW	00H
	DW	00H
	DW	00H
	DW	00H
	DW	00H
	DW	00H
	DW	00H
	DW	00H
	DW	00H
	DW	00H
	DW	00H
	DW	01084H
	DW	01ce7H
	DW	01ce7H
	DW	01ce7H
	DW	01ce7H
	DW	01ce7H
	DW	02108H
	DW	02108H
	DW	02108H
	DW	039ceH
	DW	04210H
	DW	035adH
	DW	035adH
	DW	014a5H
	DW	00H
	DW	042dH
	DW	041fH
	DW	041eH
	DW	018cbH
	DW	01ce6H
	DW	01ce7H
	DW	01ce7H
	DW	01ce7H
	DW	01ce7H
	DW	0c63H
	DW	00H
	DW	00H
	DW	0c63H
	DW	014a5H
	DW	014a5H
	DW	014a5H
	DW	014a5H
	DW	014a5H
	DW	014a5H
	DW	014a5H
	DW	014a5H
	DW	01ce7H
	DW	01ce7H
	DW	01ce7H
	DW	01ce7H
	DW	01ce7H
	DW	01ce7H
	DW	01ce7H
	DW	01ce7H
	DW	01ce7H
	DW	01ce7H
	DW	01ce7H
	DW	01ce7H
	DW	01ce7H
	DW	01ce7H
	DW	01ce7H
	DW	01ce7H
	DW	01ce7H
	DW	01ce7H
	DW	01ce7H
	DW	01ce7H
	DW	01ce7H
	DW	01ce7H
	DW	01ce7H
	DW	01ce7H
	DW	01ce7H
	DW	01ce7H
	DW	01ce7H
	DW	01ce7H
	DW	01ce7H
	DW	01ce7H
	DW	01ce7H
	DW	01ce7H
	DW	01ce7H
	DW	01ce7H
	DW	01ce7H
	DW	01ce7H
	DW	01ce7H
	DW	01ce7H
	DW	01ce7H
	DW	01ce7H
	DW	01ce7H
	DW	01ce7H
	DW	01ce7H
	DW	01ce7H
	DW	01ce7H
	DW	014a5H
	DW	0842H
	DW	0421H
	DW	0421H
	DW	0842H
	DW	0421H
	DW	0421H
	DW	0421H
	DW	0421H
	DW	0842H
	DW	0421H
	DW	0421H
	DW	0842H
	DW	01084H
	DW	018c6H
	DW	018c7H
	DW	01ce7H
	DW	01ce7H
	DW	01ce7H
	DW	01ce7H
	DW	01ce7H
	DW	01ce7H
	DW	01ce7H
	DW	01ce7H
	DW	01ce7H
	DW	01ce7H
	DW	01ce7H
	DW	01ce7H
	DW	01ce7H
	DW	01ce7H
	DW	01ce7H
	DW	01ce7H
	DW	01ce7H
	DW	01ce7H
	DW	01ce7H
	DW	01ce7H
	DW	01ce7H
	DW	01ce7H
	DW	01ce7H
	DW	01ce7H
	DW	01ce7H
	DW	01ce7H
	DW	01ce7H
	DW	01ce7H
	DW	01ce7H
	DW	01ce7H
	DW	01cc7H
	DW	018c6H
	DW	014a5H
	DW	01084H
	DW	0c63H
	DW	0842H
	DW	0421H
	DW	0421H
	DW	0421H
	DW	0421H
	DW	0421H
	DW	0421H
	DW	0421H
	DW	0421H
	DW	01084H
	DW	01ce7H
	DW	01ce7H
	DW	01ce7H
	DW	01ce7H
	DW	01ce7H
	DW	01ce7H
	DW	01ce7H
	DW	01ce7H
	DW	01ce7H
	DW	01ce7H
	DW	01ce7H
	DW	01ce7H
	DW	01ce7H
	DW	01ce7H
	DW	01ce7H
	DW	01ce7H
	DW	01ce7H
	DW	01ce7H
	DW	01ce7H
	DW	01ce7H
	DW	01ce7H
	DW	01ce7H
	DW	01ce7H
	DW	01ce7H
	DW	01ce7H
	DW	01ce7H
	DW	01ce7H
	DW	01ce7H
	DW	01ce7H
	DW	01ce7H
	DW	01ce7H
	DW	01ce7H
	DW	01ce7H
	DW	01ce7H
	DW	01ce7H
	DW	01ce7H
	DW	01ce7H
	DW	01ce7H
	DW	01ce7H
	DW	01ce7H
	DW	01ce7H
	DW	01ce7H
	DW	01ce7H
	DW	01ce7H
	DW	01ce7H
	DW	014a5H
	DW	014a5H
	DW	014a5H
	DW	014a5H
	DW	014a5H
	DW	014a5H
	DW	014a5H
	DW	014a5H
	DW	01084H
	DW	00H
	DW	00H
	DW	0c63H
	DW	01ce7H
	DW	01ce7H
	DW	01ce7H
	DW	01ce7H
	DW	01ce7H
	DW	018caH
	DW	041eH
	DW	041fH
	DW	0830H
	DW	00H
	DW	01ce7H
	DW	035adH
	DW	0318cH
	DW	02529H
	DW	0422H
	DW	00H
	DW	00H
	DW	00H
	DW	00H
	DW	00H
	DW	00H
	DW	00H
	DW	00H
	DW	00H
	DW	0421H
	DW	00H
	DW	014a5H
	DW	018c6H
	DW	01ce7H
	DW	01ce7H
	DW	01ce7H
	DW	01ce7H
	DW	01ce7H
	DW	020e8H
	DW	02108H
	DW	03defH
	DW	04210H
	DW	035adH
	DW	0318cH
	DW	0421H
	DW	00H
	DW	0433H
	DW	041fH
	DW	041dH
	DW	01cc8H
	DW	01ce7H
	DW	01ce7H
	DW	01ce7H
	DW	01ce7H
	DW	01ce7H
	DW	0842H
	DW	00H
	DW	00H
	DW	01084H
	DW	014a5H
	DW	014a5H
	DW	014a5H
	DW	014a5H
	DW	014a5H
	DW	014a5H
	DW	014a5H
	DW	014a5H
	DW	01ce7H
	DW	01ce7H
	DW	01ce7H
	DW	01ce7H
	DW	01ce7H
	DW	01ce7H
	DW	01ce7H
	DW	01ce7H
	DW	01ce7H
	DW	01ce7H
	DW	01ce7H
	DW	01ce7H
	DW	01ce7H
	DW	01ce7H
	DW	01ce7H
	DW	01ce7H
	DW	01ce7H
	DW	01ce7H
	DW	01ce7H
	DW	01ce7H
	DW	01ce7H
	DW	01ce7H
	DW	01ce7H
	DW	01ce7H
	DW	01ce7H
	DW	01ce7H
	DW	01ce7H
	DW	01ce7H
	DW	01ce7H
	DW	01ce7H
	DW	01ce7H
	DW	01ce7H
	DW	01ce7H
	DW	01ce7H
	DW	01ce7H
	DW	01ce7H
	DW	01ce7H
	DW	01ce7H
	DW	01ce7H
	DW	01ce7H
	DW	01ce7H
	DW	01ce7H
	DW	01ce7H
	DW	01ce7H
	DW	01ce7H
	DW	0c63H
	DW	0421H
	DW	0421H
	DW	0421H
	DW	0421H
	DW	0421H
	DW	0421H
	DW	0421H
	DW	0421H
	DW	0421H
	DW	0421H
	DW	0842H
	DW	01084H
	DW	018c6H
	DW	01cc7H
	DW	01ce7H
	DW	01ce7H
	DW	01ce7H
	DW	01ce7H
	DW	01ce7H
	DW	01ce7H
	DW	01ce7H
	DW	01ce7H
	DW	01ce7H
	DW	01ce7H
	DW	01ce7H
	DW	01ce7H
	DW	01ce7H
	DW	01ce7H
	DW	01ce7H
	DW	01ce7H
	DW	01ce7H
	DW	01ce7H
	DW	01ce7H
	DW	01ce7H
	DW	01ce7H
	DW	01ce7H
	DW	01ce7H
	DW	01ce7H
	DW	01ce7H
	DW	01ce7H
	DW	01ce7H
	DW	01ce7H
	DW	01ce7H
	DW	01ce7H
	DW	01ce7H
	DW	01ce7H
	DW	01cc7H
	DW	018c6H
	DW	014a5H
	DW	01084H
	DW	0c63H
	DW	0842H
	DW	0421H
	DW	0421H
	DW	0421H
	DW	0421H
	DW	0421H
	DW	0421H
	DW	0421H
	DW	0842H
	DW	018c6H
	DW	01ce7H
	DW	01ce7H
	DW	01ce7H
	DW	01ce7H
	DW	01ce7H
	DW	01ce7H
	DW	01ce7H
	DW	01ce7H
	DW	01ce7H
	DW	01ce7H
	DW	01ce7H
	DW	01ce7H
	DW	01ce7H
	DW	01ce7H
	DW	01ce7H
	DW	01ce7H
	DW	01ce7H
	DW	01ce7H
	DW	01ce7H
	DW	01ce7H
	DW	01ce7H
	DW	01ce7H
	DW	01ce7H
	DW	01ce7H
	DW	01ce7H
	DW	01ce7H
	DW	01ce7H
	DW	01ce7H
	DW	01ce7H
	DW	01ce7H
	DW	01ce7H
	DW	01ce7H
	DW	01ce7H
	DW	01ce7H
	DW	01ce7H
	DW	01ce7H
	DW	01ce7H
	DW	01ce7H
	DW	01ce7H
	DW	01ce7H
	DW	01ce7H
	DW	01ce7H
	DW	01ce7H
	DW	01ce7H
	DW	018c6H
	DW	014a5H
	DW	014a5H
	DW	014a5H
	DW	014a5H
	DW	014a5H
	DW	014a5H
	DW	014a5H
	DW	01084H
	DW	0421H
	DW	00H
	DW	0842H
	DW	01ce7H
	DW	01ce7H
	DW	01ce7H
	DW	01ce7H
	DW	01ce7H
	DW	01ce7H
	DW	083cH
	DW	041fH
	DW	0414H
	DW	00H
	DW	018c5H
	DW	035adH
	DW	0318cH
	DW	0294aH
	DW	0c63H
	DW	00H
	DW	00H
	DW	00H
	DW	00H
	DW	00H
	DW	00H
	DW	00H
	DW	00H
	DW	00H
	DW	0421H
	DW	00H
	DW	014a5H
	DW	018c6H
	DW	01ce7H
	DW	01ce7H
	DW	01ce7H
	DW	01ce7H
	DW	01ce7H
	DW	01ce7H
	DW	02529H
	DW	04210H
	DW	041efH
	DW	035adH
	DW	0318cH
	DW	0421H
	DW	00H
	DW	0436H
	DW	01fH
	DW	081dH
	DW	01ce7H
	DW	01ce7H
	DW	01ce7H
	DW	01ce7H
	DW	01ce7H
	DW	01ce7H
	DW	0421H
	DW	00H
	DW	0421H
	DW	01084H
	DW	014a5H
	DW	014a5H
	DW	014a5H
	DW	014a5H
	DW	014a5H
	DW	014a5H
	DW	014a5H
	DW	018c6H
	DW	01ce7H
	DW	01ce7H
	DW	01ce7H
	DW	01ce7H
	DW	01ce7H
	DW	01ce7H
	DW	01ce7H
	DW	01ce7H
	DW	01ce7H
	DW	01ce7H
	DW	01ce7H
	DW	01ce7H
	DW	01ce7H
	DW	01ce7H
	DW	01ce7H
	DW	01ce7H
	DW	01ce7H
	DW	01ce7H
	DW	01ce7H
	DW	01ce7H
	DW	01ce7H
	DW	01ce7H
	DW	01ce7H
	DW	01ce7H
	DW	01ce7H
	DW	01ce7H
	DW	01ce7H
	DW	01ce7H
	DW	01ce7H
	DW	01ce7H
	DW	01ce7H
	DW	01ce7H
	DW	01ce7H
	DW	01ce7H
	DW	01ce7H
	DW	01ce7H
	DW	01ce7H
	DW	01ce7H
	DW	01ce7H
	DW	01ce7H
	DW	01ce7H
	DW	01ce7H
	DW	01ce7H
	DW	01ce7H
	DW	014a5H
	DW	0421H
	DW	0421H
	DW	0421H
	DW	0421H
	DW	0421H
	DW	0421H
	DW	0421H
	DW	0421H
	DW	0421H
	DW	0421H
	DW	0842H
	DW	01084H
	DW	018c6H
	DW	018c6H
	DW	01ce7H
	DW	01ce7H
	DW	01ce7H
	DW	01ce7H
	DW	01ce7H
	DW	01ce7H
	DW	01ce7H
	DW	01ce7H
	DW	01ce7H
	DW	01ce7H
	DW	01ce7H
	DW	01ce7H
	DW	01ce7H
	DW	01ce7H
	DW	01ce7H
	DW	01ce7H
	DW	01ce7H
	DW	01ce7H
	DW	01ce7H
	DW	01ce7H
	DW	01ce7H
	DW	01ce7H
	DW	01ce7H
	DW	01ce7H
	DW	01ce7H
	DW	01ce7H
	DW	01ce7H
	DW	01ce7H
	DW	01ce7H
	DW	01ce7H
	DW	01ce7H
	DW	01ce7H
	DW	01ce7H
	DW	01ce7H
	DW	01ce7H
	DW	018c6H
	DW	014a5H
	DW	01084H
	DW	0c63H
	DW	0842H
	DW	0842H
	DW	0842H
	DW	0421H
	DW	0421H
	DW	0421H
	DW	0421H
	DW	0421H
	DW	01084H
	DW	01ce7H
	DW	01ce7H
	DW	01ce7H
	DW	01ce7H
	DW	01ce7H
	DW	01ce7H
	DW	01ce7H
	DW	01ce7H
	DW	01ce7H
	DW	01ce7H
	DW	01ce7H
	DW	01ce7H
	DW	01ce7H
	DW	01ce7H
	DW	01ce7H
	DW	01ce7H
	DW	01ce7H
	DW	01ce7H
	DW	01ce7H
	DW	01ce7H
	DW	01ce7H
	DW	01ce7H
	DW	01ce7H
	DW	01ce7H
	DW	01ce7H
	DW	01ce7H
	DW	01ce7H
	DW	01ce7H
	DW	01ce7H
	DW	01ce7H
	DW	01ce7H
	DW	01ce7H
	DW	01ce7H
	DW	01ce7H
	DW	01ce7H
	DW	01ce7H
	DW	01ce7H
	DW	01ce7H
	DW	01ce7H
	DW	01ce7H
	DW	01ce7H
	DW	01ce7H
	DW	01ce7H
	DW	01ce7H
	DW	018c6H
	DW	014a5H
	DW	014a5H
	DW	014a5H
	DW	014a5H
	DW	014a5H
	DW	014a5H
	DW	014a5H
	DW	014a5H
	DW	0421H
	DW	00H
	DW	0421H
	DW	018c6H
	DW	01ce7H
	DW	01ce7H
	DW	01ce7H
	DW	01ce7H
	DW	01ce6H
	DW	0857H
	DW	01fH
	DW	0437H
	DW	00H
	DW	0421H
	DW	0318cH
	DW	035adH
	DW	0294bH
	DW	01084H
	DW	00H
	DW	00H
	DW	00H
	DW	00H
	DW	00H
	DW	00H
	DW	00H
	DW	00H
	DW	00H
	DW	00H
	DW	0421H
	DW	014a5H
	DW	018c6H
	DW	018c6H
	DW	018c6H
	DW	01ce7H
	DW	01ce7H
	DW	01ce7H
	DW	01ce7H
	DW	02529H
	DW	04631H
	DW	039ceH
	DW	035adH
	DW	0318cH
	DW	0420H
	DW	02H
	DW	0839H
	DW	01fH
	DW	0c57H
	DW	01ce7H
	DW	01ce7H
	DW	01ce7H
	DW	01ce7H
	DW	01ce8H
	DW	018c6H
	DW	0421H
	DW	00H
	DW	0842H
	DW	014a5H
	DW	014a5H
	DW	014a5H
	DW	014a5H
	DW	014a5H
	DW	014a5H
	DW	014a5H
	DW	014a5H
	DW	018c6H
	DW	01ce7H
	DW	01ce7H
	DW	01ce7H
	DW	01ce7H
	DW	01ce7H
	DW	01ce7H
	DW	01ce7H
	DW	01ce7H
	DW	01ce7H
	DW	01ce7H
	DW	01ce7H
	DW	01ce7H
	DW	01ce7H
	DW	01ce7H
	DW	01ce7H
	DW	01ce7H
	DW	01ce7H
	DW	01ce7H
	DW	01ce7H
	DW	01ce7H
	DW	01ce7H
	DW	01ce7H
	DW	01ce7H
	DW	01ce7H
	DW	01ce7H
	DW	01ce7H
	DW	01ce7H
	DW	01ce7H
	DW	01ce7H
	DW	01ce7H
	DW	01ce7H
	DW	01ce7H
	DW	01ce7H
	DW	01ce7H
	DW	01ce7H
	DW	01ce7H
	DW	01ce7H
	DW	01ce7H
	DW	01ce7H
	DW	01ce7H
	DW	01ce7H
	DW	01ce7H
	DW	01ce7H
	DW	01ce7H
	DW	0c63H
	DW	0421H
	DW	0421H
	DW	0842H
	DW	0421H
	DW	0421H
	DW	0421H
	DW	0421H
	DW	0421H
	DW	0421H
	DW	0421H
	DW	0c63H
	DW	014a5H
	DW	018c6H
	DW	01ce7H
	DW	01ce7H
	DW	01ce7H
	DW	01ce7H
	DW	01ce7H
	DW	01ce7H
	DW	01ce7H
	DW	01ce7H
	DW	01ce7H
	DW	01ce7H
	DW	01ce7H
	DW	01ce7H
	DW	01ce7H
	DW	01ce7H
	DW	01ce7H
	DW	01ce7H
	DW	01ce7H
	DW	01ce7H
	DW	01ce7H
	DW	01ce7H
	DW	01ce7H
	DW	01ce7H
	DW	01ce7H
	DW	01ce7H
	DW	01ce7H
	DW	01ce7H
	DW	01ce7H
	DW	01ce7H
	DW	01ce7H
	DW	01ce7H
	DW	01ce7H
	DW	01ce7H
	DW	01ce7H
	DW	01ce7H
	DW	01ce7H
	DW	01ce7H
	DW	01ce7H
	DW	018c6H
	DW	014a5H
	DW	01084H
	DW	0c63H
	DW	0842H
	DW	0842H
	DW	0842H
	DW	0842H
	DW	0842H
	DW	0842H
	DW	0842H
	DW	0842H
	DW	018c7H
	DW	01ce7H
	DW	01ce7H
	DW	01ce7H
	DW	01ce7H
	DW	01ce7H
	DW	01ce7H
	DW	01ce7H
	DW	01ce7H
	DW	01ce7H
	DW	01ce7H
	DW	01ce7H
	DW	01ce7H
	DW	01ce7H
	DW	01ce7H
	DW	01ce7H
	DW	01ce7H
	DW	01ce7H
	DW	01ce7H
	DW	01ce7H
	DW	01ce7H
	DW	01ce7H
	DW	01ce7H
	DW	01ce7H
	DW	01ce7H
	DW	01ce7H
	DW	01ce7H
	DW	01ce7H
	DW	01ce7H
	DW	01ce7H
	DW	01ce7H
	DW	01ce7H
	DW	01ce7H
	DW	01ce7H
	DW	01ce7H
	DW	01ce7H
	DW	01ce7H
	DW	01ce7H
	DW	01ce7H
	DW	01ce7H
	DW	01ce7H
	DW	01ce7H
	DW	01ce7H
	DW	01ce7H
	DW	018c6H
	DW	014a5H
	DW	014a5H
	DW	014a5H
	DW	014a5H
	DW	014a5H
	DW	014a5H
	DW	014a5H
	DW	014a5H
	DW	0842H
	DW	00H
	DW	00H
	DW	018c6H
	DW	01ce8H
	DW	01ce7H
	DW	01ce7H
	DW	01ce7H
	DW	01ce6H
	DW	01074H
	DW	01fH
	DW	083bH
	DW	03H
	DW	0420H
	DW	0318cH
	DW	035adH
	DW	02d6bH
	DW	010a4H
	DW	00H
	DW	00H
	DW	00H
	DW	00H
	DW	00H
	DW	00H
	DW	00H
	DW	00H
	DW	00H
	DW	00H
	DW	0421H
	DW	014a5H
	DW	018c6H
	DW	018c6H
	DW	018c6H
	DW	018c6H
	DW	018c6H
	DW	01ce7H
	DW	018c6H
	DW	02529H
	DW	04210H
	DW	039ceH
	DW	035adH
	DW	0294aH
	DW	00H
	DW	0426H
	DW	083cH
	DW	01fH
	DW	01073H
	DW	01ce6H
	DW	01ce7H
	DW	01ce7H
	DW	01ce7H
	DW	01ce8H
	DW	014a5H
	DW	00H
	DW	00H
	DW	0842H
	DW	014a5H
	DW	014a5H
	DW	014a5H
	DW	014a5H
	DW	014a5H
	DW	014a5H
	DW	014a5H
	DW	014a5H
	DW	018c6H
	DW	01ce7H
	DW	01ce7H
	DW	01ce7H
	DW	01ce7H
	DW	01ce7H
	DW	01ce7H
	DW	01ce7H
	DW	01ce7H
	DW	01ce7H
	DW	01ce7H
	DW	01ce7H
	DW	01ce7H
	DW	01ce7H
	DW	01ce7H
	DW	01ce7H
	DW	01ce7H
	DW	01ce7H
	DW	01ce7H
	DW	01ce7H
	DW	01ce7H
	DW	01ce7H
	DW	01ce7H
	DW	01ce7H
	DW	01ce7H
	DW	01ce7H
	DW	01ce7H
	DW	01ce7H
	DW	01ce7H
	DW	01ce7H
	DW	01ce7H
	DW	01ce7H
	DW	01ce7H
	DW	01ce7H
	DW	01ce7H
	DW	01ce7H
	DW	01ce7H
	DW	01ce7H
	DW	01ce7H
	DW	01ce7H
	DW	01ce7H
	DW	01ce7H
	DW	01ce7H
	DW	01ce7H
	DW	018c6H
	DW	0842H
	DW	0421H
	DW	0421H
	DW	0842H
	DW	0421H
	DW	0842H
	DW	0421H
	DW	0421H
	DW	0421H
	DW	0421H
	DW	0c63H
	DW	014a5H
	DW	018c6H
	DW	01ce7H
	DW	01ce7H
	DW	01ce7H
	DW	01ce7H
	DW	01ce7H
	DW	01ce7H
	DW	01ce7H
	DW	01ce7H
	DW	01ce7H
	DW	01ce7H
	DW	01ce7H
	DW	01ce7H
	DW	01ce7H
	DW	01ce7H
	DW	01ce7H
	DW	01ce7H
	DW	01ce7H
	DW	01ce7H
	DW	01ce7H
	DW	01ce7H
	DW	01ce7H
	DW	01ce7H
	DW	01ce7H
	DW	01ce7H
	DW	01ce7H
	DW	01ce7H
	DW	01ce7H
	DW	01ce7H
	DW	01ce7H
	DW	01ce7H
	DW	01ce7H
	DW	01ce7H
	DW	01ce7H
	DW	01ce7H
	DW	01ce7H
	DW	01ce7H
	DW	01ce7H
	DW	01ce7H
	DW	01ce7H
	DW	018c6H
	DW	014a5H
	DW	01084H
	DW	0c63H
	DW	0842H
	DW	0842H
	DW	0842H
	DW	0842H
	DW	0842H
	DW	0842H
	DW	0842H
	DW	014a5H
	DW	01ce7H
	DW	01ce7H
	DW	01ce7H
	DW	01ce7H
	DW	01ce7H
	DW	01ce7H
	DW	01ce7H
	DW	01ce7H
	DW	01ce7H
	DW	01ce7H
	DW	01ce7H
	DW	01ce7H
	DW	01ce7H
	DW	01ce7H
	DW	01ce7H
	DW	01ce7H
	DW	01ce7H
	DW	01ce7H
	DW	01ce7H
	DW	01ce7H
	DW	01ce7H
	DW	01ce7H
	DW	01ce7H
	DW	01ce7H
	DW	01ce7H
	DW	01ce7H
	DW	01ce7H
	DW	01ce7H
	DW	01ce7H
	DW	01ce7H
	DW	01ce7H
	DW	01ce7H
	DW	01ce7H
	DW	01ce7H
	DW	01ce7H
	DW	01ce7H
	DW	01ce7H
	DW	01ce7H
	DW	01ce7H
	DW	01ce7H
	DW	01ce7H
	DW	01ce7H
	DW	01ce7H
	DW	01ce7H
	DW	014a5H
	DW	014a5H
	DW	014a5H
	DW	014a5H
	DW	014a5H
	DW	014a5H
	DW	014a5H
	DW	014a5H
	DW	0c63H
	DW	00H
	DW	00H
	DW	014a5H
	DW	01ce7H
	DW	01ce7H
	DW	01ce7H
	DW	01ce7H
	DW	01ce6H
	DW	01091H
	DW	01fH
	DW	041dH
	DW	05H
	DW	0420H
	DW	0318cH
	DW	035adH
	DW	02d6bH
	DW	014a5H
	DW	00H
	DW	00H
	DW	00H
	DW	00H
	DW	00H
	DW	00H
	DW	00H
	DW	00H
	DW	00H
	DW	00H
	DW	0842H
	DW	014a5H
	DW	014a5H
	DW	018c6H
	DW	018c6H
	DW	018c6H
	DW	018c6H
	DW	018c6H
	DW	018c6H
	DW	0294aH
	DW	04231H
	DW	039ceH
	DW	035acH
	DW	0294aH
	DW	00H
	DW	042aH
	DW	043eH
	DW	01fH
	DW	01490H
	DW	01ce6H
	DW	01ce7H
	DW	01ce7H
	DW	01ce7H
	DW	01ce7H
	DW	014a5H
	DW	00H
	DW	00H
	DW	0c63H
	DW	014a5H
	DW	014a5H
	DW	014a5H
	DW	014a5H
	DW	014a5H
	DW	014a5H
	DW	014a5H
	DW	014a5H
	DW	01ce7H
	DW	01ce7H
	DW	01ce7H
	DW	01ce7H
	DW	01ce7H
	DW	01ce7H
	DW	01ce7H
	DW	01ce7H
	DW	01ce7H
	DW	01ce7H
	DW	01ce7H
	DW	01ce7H
	DW	01ce7H
	DW	01ce7H
	DW	01ce7H
	DW	01ce7H
	DW	01ce7H
	DW	01ce7H
	DW	01ce7H
	DW	01ce7H
	DW	01ce7H
	DW	01ce7H
	DW	01ce7H
	DW	01ce7H
	DW	01ce7H
	DW	01ce7H
	DW	01ce7H
	DW	01ce7H
	DW	01ce7H
	DW	01ce7H
	DW	01ce7H
	DW	01ce7H
	DW	01ce7H
	DW	01ce7H
	DW	01ce7H
	DW	01ce7H
	DW	01ce7H
	DW	01ce7H
	DW	01ce7H
	DW	01ce7H
	DW	01ce7H
	DW	01ce7H
	DW	01ce7H
	DW	01ce7H
	DW	01084H
	DW	0421H
	DW	0421H
	DW	0842H
	DW	0421H
	DW	0421H
	DW	0421H
	DW	0421H
	DW	0421H
	DW	0421H
	DW	0842H
	DW	01084H
	DW	018c6H
	DW	01ce7H
	DW	01ce7H
	DW	01ce7H
	DW	01ce7H
	DW	01ce7H
	DW	01ce7H
	DW	01ce7H
	DW	01ce7H
	DW	01ce7H
	DW	01ce7H
	DW	01ce7H
	DW	01ce7H
	DW	01ce7H
	DW	01ce7H
	DW	01ce7H
	DW	01ce7H
	DW	01ce7H
	DW	01ce7H
	DW	01ce7H
	DW	01ce7H
	DW	01ce7H
	DW	01ce7H
	DW	01ce7H
	DW	01ce7H
	DW	01ce7H
	DW	01ce7H
	DW	01ce7H
	DW	01ce7H
	DW	01ce7H
	DW	01ce7H
	DW	01ce7H
	DW	01ce7H
	DW	01ce7H
	DW	01ce7H
	DW	01ce7H
	DW	01ce7H
	DW	01ce7H
	DW	01ce7H
	DW	01ce7H
	DW	01ce7H
	DW	018c6H
	DW	018c6H
	DW	01084H
	DW	0c63H
	DW	0c63H
	DW	0c63H
	DW	0842H
	DW	0c63H
	DW	0842H
	DW	0842H
	DW	0842H
	DW	01084H
	DW	01ce7H
	DW	01ce7H
	DW	01ce7H
	DW	01ce7H
	DW	01ce7H
	DW	01ce7H
	DW	01ce7H
	DW	01ce7H
	DW	01ce7H
	DW	01ce7H
	DW	01ce7H
	DW	01ce7H
	DW	01ce7H
	DW	01ce7H
	DW	01ce7H
	DW	01ce7H
	DW	01ce7H
	DW	01ce7H
	DW	01ce7H
	DW	01ce7H
	DW	01ce7H
	DW	01ce7H
	DW	01ce7H
	DW	01ce7H
	DW	01ce7H
	DW	01ce7H
	DW	01ce7H
	DW	01ce7H
	DW	01ce7H
	DW	01ce7H
	DW	01ce7H
	DW	01ce7H
	DW	01ce7H
	DW	01ce7H
	DW	01ce7H
	DW	01ce7H
	DW	01ce7H
	DW	01ce7H
	DW	01ce7H
	DW	01ce7H
	DW	01ce7H
	DW	01ce7H
	DW	01ce7H
	DW	01ce7H
	DW	014a5H
	DW	014a5H
	DW	014a5H
	DW	014a5H
	DW	014a5H
	DW	014a5H
	DW	014a5H
	DW	014a5H
	DW	0c63H
	DW	00H
	DW	00H
	DW	01084H
	DW	01ce8H
	DW	01ce7H
	DW	01ce7H
	DW	01ce7H
	DW	01ce6H
	DW	014afH
	DW	01fH
	DW	041fH
	DW	07H
	DW	00H
	DW	02108H
	DW	035adH
	DW	0318cH
	DW	01ce7H
	DW	00H
	DW	00H
	DW	00H
	DW	00H
	DW	00H
	DW	00H
	DW	00H
	DW	00H
	DW	00H
	DW	00H
	DW	0842H
	DW	01084H
	DW	014a5H
	DW	014a5H
	DW	018c6H
	DW	018c6H
	DW	018c6H
	DW	018c6H
	DW	018c6H
	DW	0318cH
	DW	04631H
	DW	035adH
	DW	035acH
	DW	0294aH
	DW	00H
	DW	042cH
	DW	041fH
	DW	01fH
	DW	014afH
	DW	01ce6H
	DW	01ce7H
	DW	01ce7H
	DW	01ce7H
	DW	01ce7H
	DW	01084H
	DW	00H
	DW	00H
	DW	0c63H
	DW	014a5H
	DW	014a5H
	DW	014a5H
	DW	014a5H
	DW	014a5H
	DW	014a5H
	DW	014a5H
	DW	014a5H
	DW	01ce7H
	DW	01ce7H
	DW	01ce7H
	DW	01ce7H
	DW	01ce7H
	DW	01ce7H
	DW	01ce7H
	DW	01ce7H
	DW	01ce7H
	DW	01ce7H
	DW	01ce7H
	DW	01ce7H
	DW	01ce7H
	DW	01ce7H
	DW	01ce7H
	DW	01ce7H
	DW	01ce7H
	DW	01ce7H
	DW	01ce7H
	DW	01ce7H
	DW	01ce7H
	DW	01ce7H
	DW	01ce7H
	DW	01ce7H
	DW	01ce7H
	DW	01ce7H
	DW	01ce7H
	DW	01ce7H
	DW	01ce7H
	DW	01ce7H
	DW	01ce7H
	DW	01ce7H
	DW	01ce7H
	DW	01ce7H
	DW	01ce7H
	DW	01ce7H
	DW	01ce7H
	DW	01ce7H
	DW	01ce7H
	DW	01ce7H
	DW	01ce7H
	DW	01ce7H
	DW	01ce7H
	DW	01ce7H
	DW	0c63H
	DW	0421H
	DW	0421H
	DW	0421H
	DW	0421H
	DW	0842H
	DW	0421H
	DW	0421H
	DW	0421H
	DW	0421H
	DW	0c63H
	DW	018c6H
	DW	01ce7H
	DW	01ce7H
	DW	01ce7H
	DW	01ce7H
	DW	01ce7H
	DW	01ce7H
	DW	01ce7H
	DW	01ce7H
	DW	01ce7H
	DW	01ce7H
	DW	01ce7H
	DW	01ce7H
	DW	01ce7H
	DW	01ce7H
	DW	01ce7H
	DW	01ce7H
	DW	01ce7H
	DW	01ce7H
	DW	01ce7H
	DW	01ce7H
	DW	01ce7H
	DW	01ce7H
	DW	01ce7H
	DW	01ce7H
	DW	01ce7H
	DW	01ce7H
	DW	01ce7H
	DW	01ce7H
	DW	01ce7H
	DW	01ce7H
	DW	01ce7H
	DW	01ce7H
	DW	01ce7H
	DW	01ce7H
	DW	01ce7H
	DW	01ce7H
	DW	01ce7H
	DW	01ce7H
	DW	01ce7H
	DW	01ce7H
	DW	01ce7H
	DW	01ce7H
	DW	018c6H
	DW	014a5H
	DW	01084H
	DW	0c64H
	DW	0c63H
	DW	0c63H
	DW	0c63H
	DW	0c63H
	DW	0c63H
	DW	0c63H
	DW	0c63H
	DW	018c6H
	DW	01ce7H
	DW	01ce7H
	DW	01ce7H
	DW	01ce7H
	DW	01ce7H
	DW	01ce7H
	DW	01ce7H
	DW	01ce7H
	DW	01ce7H
	DW	01ce7H
	DW	01ce7H
	DW	01ce7H
	DW	01ce7H
	DW	01ce7H
	DW	01ce7H
	DW	01ce7H
	DW	01ce7H
	DW	01ce7H
	DW	01ce7H
	DW	01ce7H
	DW	01ce7H
	DW	01ce7H
	DW	01ce7H
	DW	01ce7H
	DW	01ce7H
	DW	01ce7H
	DW	01ce7H
	DW	01ce7H
	DW	01ce7H
	DW	01ce7H
	DW	01ce7H
	DW	01ce7H
	DW	01ce7H
	DW	01ce7H
	DW	01ce7H
	DW	01ce7H
	DW	01ce7H
	DW	01ce7H
	DW	01ce7H
	DW	01ce7H
	DW	01ce7H
	DW	01ce7H
	DW	01ce7H
	DW	014a5H
	DW	014a5H
	DW	014a5H
	DW	014a5H
	DW	014a5H
	DW	014a5H
	DW	014a5H
	DW	014a5H
	DW	01084H
	DW	00H
	DW	00H
	DW	01084H
	DW	01ce7H
	DW	01ce7H
	DW	01ce7H
	DW	01ce7H
	DW	01ce6H
	DW	014afH
	DW	01fH
	DW	041fH
	DW	042aH
	DW	00H
	DW	014a6H
	DW	035ceH
	DW	0318cH
	DW	01d08H
	DW	0421H
	DW	00H
	DW	00H
	DW	00H
	DW	00H
	DW	00H
	DW	00H
	DW	00H
	DW	00H
	DW	00H
	DW	0c63H
	DW	01084H
	DW	014a5H
	DW	014a5H
	DW	014a5H
	DW	014a5H
	DW	018c6H
	DW	018c6H
	DW	018c6H
	DW	035adH
	DW	04610H
	DW	035adH
	DW	035adH
	DW	02529H
	DW	00H
	DW	042eH
	DW	041fH
	DW	01fH
	DW	014afH
	DW	01ce6H
	DW	01ce7H
	DW	01ce7H
	DW	01ce7H
	DW	01ce8H
	DW	0c63H
	DW	00H
	DW	00H
	DW	01084H
	DW	014a5H
	DW	014a5H
	DW	014a5H
	DW	014a5H
	DW	014a5H
	DW	014a5H
	DW	014a5H
	DW	014a5H
	DW	01ce7H
	DW	01ce7H
	DW	01ce7H
	DW	01ce7H
	DW	01ce7H
	DW	01ce7H
	DW	01ce7H
	DW	01ce7H
	DW	01ce7H
	DW	01ce7H
	DW	01ce7H
	DW	01ce7H
	DW	01ce7H
	DW	01ce7H
	DW	01ce7H
	DW	01ce7H
	DW	01ce7H
	DW	01ce7H
	DW	01ce7H
	DW	01ce7H
	DW	01ce7H
	DW	01ce7H
	DW	01ce7H
	DW	01ce7H
	DW	01ce7H
	DW	01ce7H
	DW	01ce7H
	DW	01ce7H
	DW	01ce7H
	DW	01ce7H
	DW	01ce7H
	DW	01ce7H
	DW	01ce7H
	DW	01ce7H
	DW	01ce7H
	DW	01ce7H
	DW	01ce7H
	DW	01ce7H
	DW	01ce7H
	DW	01ce7H
	DW	01ce7H
	DW	01ce7H
	DW	01ce7H
	DW	018c6H
	DW	0842H
	DW	0421H
	DW	0421H
	DW	0421H
	DW	0421H
	DW	0421H
	DW	0421H
	DW	0421H
	DW	0421H
	DW	0842H
	DW	01084H
	DW	018c6H
	DW	01ce7H
	DW	01ce7H
	DW	01ce7H
	DW	01ce7H
	DW	01ce7H
	DW	01ce7H
	DW	01ce7H
	DW	01ce7H
	DW	01ce7H
	DW	01ce7H
	DW	01ce7H
	DW	01ce7H
	DW	01ce7H
	DW	01ce7H
	DW	01ce7H
	DW	01ce7H
	DW	01ce7H
	DW	01ce7H
	DW	01ce7H
	DW	01ce7H
	DW	01ce7H
	DW	01ce7H
	DW	01ce7H
	DW	01ce7H
	DW	01ce7H
	DW	01ce7H
	DW	01ce7H
	DW	01ce7H
	DW	01ce7H
	DW	01ce7H
	DW	01ce7H
	DW	01ce7H
	DW	01ce7H
	DW	01ce7H
	DW	01ce7H
	DW	01ce7H
	DW	01ce7H
	DW	01ce7H
	DW	01ce7H
	DW	01ce7H
	DW	01ce7H
	DW	01ce7H
	DW	01cc7H
	DW	018c6H
	DW	014a5H
	DW	01084H
	DW	01084H
	DW	0c63H
	DW	0c63H
	DW	0c63H
	DW	0c63H
	DW	0c63H
	DW	0c63H
	DW	014a5H
	DW	01ce7H
	DW	01ce7H
	DW	01ce7H
	DW	01ce7H
	DW	01ce7H
	DW	01ce7H
	DW	01ce7H
	DW	01ce7H
	DW	01ce7H
	DW	01ce7H
	DW	01ce7H
	DW	01ce7H
	DW	01ce7H
	DW	01ce7H
	DW	01ce7H
	DW	01ce7H
	DW	01ce7H
	DW	01ce7H
	DW	01ce7H
	DW	01ce7H
	DW	01ce7H
	DW	01ce7H
	DW	01ce7H
	DW	01ce7H
	DW	01ce7H
	DW	01ce7H
	DW	01ce7H
	DW	01ce7H
	DW	01ce7H
	DW	01ce7H
	DW	01ce7H
	DW	01ce7H
	DW	01ce7H
	DW	01ce7H
	DW	01ce7H
	DW	01ce7H
	DW	01ce7H
	DW	01ce7H
	DW	01ce7H
	DW	01ce7H
	DW	01ce7H
	DW	01ce7H
	DW	01ce7H
	DW	018c6H
	DW	014a5H
	DW	014a5H
	DW	014a5H
	DW	014a5H
	DW	014a5H
	DW	014a5H
	DW	014a5H
	DW	01084H
	DW	00H
	DW	00H
	DW	0c63H
	DW	01ce8H
	DW	01ce7H
	DW	01ce7H
	DW	01ce7H
	DW	01d06H
	DW	014aeH
	DW	01fH
	DW	041fH
	DW	084eH
	DW	00H
	DW	014a5H
	DW	035adH
	DW	0318cH
	DW	02108H
	DW	0421H
	DW	00H
	DW	00H
	DW	00H
	DW	00H
	DW	00H
	DW	00H
	DW	00H
	DW	00H
	DW	00H
	DW	0c63H
	DW	01084H
	DW	01084H
	DW	014a5H
	DW	014a5H
	DW	014a5H
	DW	014a5H
	DW	014a5H
	DW	018c6H
	DW	039ceH
	DW	04210H
	DW	035adH
	DW	035adH
	DW	01ce7H
	DW	00H
	DW	0430H
	DW	041fH
	DW	01fH
	DW	014aeH
	DW	01ce6H
	DW	01ce7H
	DW	01ce7H
	DW	01ce7H
	DW	01ce7H
	DW	0842H
	DW	00H
	DW	00H
	DW	01084H
	DW	014a5H
	DW	014a5H
	DW	014a5H
	DW	014a5H
	DW	014a5H
	DW	014a5H
	DW	014a5H
	DW	014a5H
	DW	01ce7H
	DW	01ce7H
	DW	01ce7H
	DW	01ce7H
	DW	01ce7H
	DW	01ce7H
	DW	01ce7H
	DW	01ce7H
	DW	01ce7H
	DW	01ce7H
	DW	01ce7H
	DW	01ce7H
	DW	01ce7H
	DW	01ce7H
	DW	01ce7H
	DW	01ce7H
	DW	01ce7H
	DW	01ce7H
	DW	01ce7H
	DW	01ce7H
	DW	01ce7H
	DW	01ce7H
	DW	01ce7H
	DW	01ce7H
	DW	01ce7H
	DW	01ce7H
	DW	01ce7H
	DW	01ce7H
	DW	01ce7H
	DW	01ce7H
	DW	01ce7H
	DW	01ce7H
	DW	01ce7H
	DW	01ce7H
	DW	01ce7H
	DW	01ce7H
	DW	01ce7H
	DW	01ce7H
	DW	01ce7H
	DW	01ce7H
	DW	01ce7H
	DW	01ce7H
	DW	01ce7H
	DW	014a5H
	DW	0842H
	DW	0421H
	DW	0421H
	DW	0421H
	DW	0421H
	DW	0421H
	DW	0421H
	DW	0421H
	DW	0421H
	DW	0c63H
	DW	014a5H
	DW	01ce7H
	DW	01ce7H
	DW	01ce7H
	DW	01ce7H
	DW	01ce7H
	DW	01ce7H
	DW	01ce7H
	DW	01ce7H
	DW	01ce7H
	DW	01ce7H
	DW	01ce7H
	DW	01ce7H
	DW	01ce7H
	DW	01ce7H
	DW	01ce7H
	DW	01ce7H
	DW	01ce7H
	DW	01ce7H
	DW	01ce7H
	DW	0294aH
	DW	0318cH
	DW	0318cH
	DW	0318cH
	DW	0294aH
	DW	02108H
	DW	01ce7H
	DW	01ce7H
	DW	01ce7H
	DW	01ce7H
	DW	01ce7H
	DW	01ce7H
	DW	01ce7H
	DW	01ce7H
	DW	01ce7H
	DW	01ce7H
	DW	01ce7H
	DW	01ce7H
	DW	01ce7H
	DW	01ce7H
	DW	01ce7H
	DW	01ce7H
	DW	01ce7H
	DW	01ce7H
	DW	01ce7H
	DW	018c7H
	DW	018c6H
	DW	014a5H
	DW	01084H
	DW	01084H
	DW	01084H
	DW	0c63H
	DW	0c64H
	DW	0c64H
	DW	0c63H
	DW	014a5H
	DW	01ce7H
	DW	01ce7H
	DW	01ce7H
	DW	01ce7H
	DW	01ce7H
	DW	01ce7H
	DW	01ce7H
	DW	01ce7H
	DW	01ce7H
	DW	01ce7H
	DW	01ce7H
	DW	01ce7H
	DW	01ce7H
	DW	01ce7H
	DW	01ce7H
	DW	01ce7H
	DW	01ce7H
	DW	01ce7H
	DW	01ce7H
	DW	01ce7H
	DW	01ce7H
	DW	01ce7H
	DW	01ce7H
	DW	01ce7H
	DW	01ce7H
	DW	01ce7H
	DW	01ce7H
	DW	01ce7H
	DW	01ce7H
	DW	01ce7H
	DW	01ce7H
	DW	01ce7H
	DW	01ce7H
	DW	01ce7H
	DW	01ce7H
	DW	01ce7H
	DW	01ce7H
	DW	01ce7H
	DW	01ce7H
	DW	01ce7H
	DW	01ce7H
	DW	01ce7H
	DW	01ce7H
	DW	018c6H
	DW	014a5H
	DW	014a5H
	DW	014a5H
	DW	014a5H
	DW	014a5H
	DW	014a5H
	DW	014a5H
	DW	01084H
	DW	0421H
	DW	00H
	DW	0c63H
	DW	020e8H
	DW	01ce7H
	DW	01ce7H
	DW	01ce7H
	DW	01ce6H
	DW	018adH
	DW	041fH
	DW	01fH
	DW	0851H
	DW	00H
	DW	014a5H
	DW	035adH
	DW	0318cH
	DW	02108H
	DW	0421H
	DW	00H
	DW	00H
	DW	00H
	DW	00H
	DW	00H
	DW	00H
	DW	00H
	DW	00H
	DW	00H
	DW	0c63H
	DW	01084H
	DW	01084H
	DW	014a5H
	DW	014a5H
	DW	014a5H
	DW	014a5H
	DW	014a5H
	DW	018c6H
	DW	035adH
	DW	03defH
	DW	035adH
	DW	035adH
	DW	01ce7H
	DW	00H
	DW	0832H
	DW	041fH
	DW	041dH
	DW	018cbH
	DW	01ce7H
	DW	01ce7H
	DW	01ce7H
	DW	01ce7H
	DW	01ce7H
	DW	0842H
	DW	00H
	DW	0421H
	DW	01084H
	DW	014a5H
	DW	014a5H
	DW	014a5H
	DW	014a5H
	DW	014a5H
	DW	014a5H
	DW	014a5H
	DW	014a5H
	DW	01ce7H
	DW	01ce7H
	DW	01ce7H
	DW	01ce7H
	DW	01ce7H
	DW	01ce7H
	DW	01ce7H
	DW	01ce7H
	DW	01ce7H
	DW	01ce7H
	DW	01ce7H
	DW	01ce7H
	DW	01ce7H
	DW	01ce7H
	DW	01ce7H
	DW	01ce7H
	DW	01ce7H
	DW	01ce7H
	DW	01ce7H
	DW	01ce7H
	DW	01ce7H
	DW	01ce7H
	DW	01ce7H
	DW	01ce7H
	DW	01ce7H
	DW	01ce7H
	DW	01ce7H
	DW	01ce7H
	DW	01ce7H
	DW	01ce7H
	DW	01ce7H
	DW	01ce7H
	DW	01ce7H
	DW	01ce7H
	DW	01ce7H
	DW	01ce7H
	DW	01ce7H
	DW	01ce7H
	DW	01ce7H
	DW	01ce7H
	DW	01ce7H
	DW	01ce7H
	DW	01ce7H
	DW	01084H
	DW	0421H
	DW	0421H
	DW	0421H
	DW	0421H
	DW	0421H
	DW	0421H
	DW	0421H
	DW	0421H
	DW	0842H
	DW	01084H
	DW	018c6H
	DW	01ce7H
	DW	01ce7H
	DW	01ce7H
	DW	01ce7H
	DW	01ce7H
	DW	01ce7H
	DW	01ce7H
	DW	01ce7H
	DW	01ce7H
	DW	01ce7H
	DW	01ce7H
	DW	01ce7H
	DW	01ce7H
	DW	01ce7H
	DW	01ce7H
	DW	01ce7H
	DW	01ce7H
	DW	02d6bH
	DW	03defH
	DW	039ceH
	DW	0294aH
	DW	02108H
	DW	01ce7H
	DW	02108H
	DW	02108H
	DW	02108H
	DW	01ce7H
	DW	01ce7H
	DW	01ce7H
	DW	01ce7H
	DW	01ce7H
	DW	01ce7H
	DW	01ce7H
	DW	01ce7H
	DW	01ce7H
	DW	01ce7H
	DW	01ce7H
	DW	01ce7H
	DW	01ce7H
	DW	01ce7H
	DW	01ce7H
	DW	01ce7H
	DW	01ce7H
	DW	01ce7H
	DW	01ce7H
	DW	018c6H
	DW	014a5H
	DW	014a5H
	DW	01084H
	DW	01084H
	DW	01084H
	DW	01084H
	DW	01084H
	DW	01084H
	DW	01084H
	DW	01ce7H
	DW	01ce7H
	DW	01ce7H
	DW	01ce7H
	DW	01ce7H
	DW	01ce7H
	DW	01ce7H
	DW	01ce7H
	DW	01ce7H
	DW	01ce7H
	DW	01ce7H
	DW	01ce7H
	DW	01ce7H
	DW	01ce7H
	DW	01ce7H
	DW	01ce7H
	DW	01ce7H
	DW	01ce7H
	DW	01ce7H
	DW	01ce7H
	DW	01ce7H
	DW	01ce7H
	DW	01ce7H
	DW	01ce7H
	DW	01ce7H
	DW	01ce7H
	DW	01ce7H
	DW	01ce7H
	DW	01ce7H
	DW	01ce7H
	DW	01ce7H
	DW	01ce7H
	DW	01ce7H
	DW	01ce7H
	DW	01ce7H
	DW	01ce7H
	DW	01ce7H
	DW	01ce7H
	DW	01ce7H
	DW	01ce7H
	DW	01ce7H
	DW	01ce7H
	DW	01ce7H
	DW	018c6H
	DW	014a5H
	DW	014a5H
	DW	014a5H
	DW	014a5H
	DW	014a5H
	DW	014a5H
	DW	014a5H
	DW	014a5H
	DW	0421H
	DW	00H
	DW	0c63H
	DW	02108H
	DW	01ce7H
	DW	01ce7H
	DW	01ce7H
	DW	01ce6H
	DW	018c8H
	DW	083bH
	DW	01fH
	DW	0834H
	DW	00H
	DW	010a4H
	DW	035adH
	DW	0318cH
	DW	02508H
	DW	0421H
	DW	00H
	DW	00H
	DW	00H
	DW	00H
	DW	00H
	DW	00H
	DW	00H
	DW	00H
	DW	00H
	DW	0c63H
	DW	01084H
	DW	01084H
	DW	01084H
	DW	01084H
	DW	014a5H
	DW	014a5H
	DW	014a5H
	DW	018c6H
	DW	035adH
	DW	03defH
	DW	035adH
	DW	035adH
	DW	01ce7H
	DW	00H
	DW	0413H
	DW	041fH
	DW	083aH
	DW	01ce7H
	DW	01ce7H
	DW	01ce7H
	DW	01ce7H
	DW	01ce7H
	DW	01ce7H
	DW	0842H
	DW	00H
	DW	0421H
	DW	014a5H
	DW	014a5H
	DW	014a5H
	DW	014a5H
	DW	014a5H
	DW	014a5H
	DW	014a5H
	DW	014a5H
	DW	014a5H
	DW	01ce7H
	DW	01ce7H
	DW	01ce7H
	DW	01ce7H
	DW	01ce7H
	DW	01ce7H
	DW	01ce7H
	DW	01ce7H
	DW	01ce7H
	DW	01ce7H
	DW	01ce7H
	DW	01ce7H
	DW	01ce7H
	DW	01ce7H
	DW	01ce7H
	DW	01ce7H
	DW	01ce7H
	DW	01ce7H
	DW	01ce7H
	DW	01ce7H
	DW	01ce7H
	DW	01ce7H
	DW	01ce7H
	DW	01ce7H
	DW	01ce7H
	DW	01ce7H
	DW	01ce7H
	DW	01ce7H
	DW	01ce7H
	DW	01ce7H
	DW	01ce7H
	DW	01ce7H
	DW	01ce7H
	DW	01ce7H
	DW	01ce7H
	DW	01ce7H
	DW	01ce7H
	DW	01ce7H
	DW	01ce7H
	DW	01ce7H
	DW	01ce7H
	DW	01ce7H
	DW	01ce7H
	DW	0c63H
	DW	0421H
	DW	0421H
	DW	0421H
	DW	0421H
	DW	0421H
	DW	0421H
	DW	0421H
	DW	0421H
	DW	0842H
	DW	014a5H
	DW	01ce7H
	DW	01ce7H
	DW	01ce7H
	DW	01ce7H
	DW	01ce7H
	DW	01ce7H
	DW	01ce7H
	DW	01ce7H
	DW	01ce7H
	DW	01ce7H
	DW	01ce7H
	DW	01ce7H
	DW	01ce7H
	DW	01ce7H
	DW	01ce7H
	DW	01ce7H
	DW	01ce7H
	DW	035adH
	DW	03defH
	DW	01ce7H
	DW	0421H
	DW	00H
	DW	00H
	DW	00H
	DW	00H
	DW	0421H
	DW	0c63H
	DW	014a5H
	DW	014a5H
	DW	01ce7H
	DW	01ce7H
	DW	01ce7H
	DW	01ce7H
	DW	01ce7H
	DW	01ce7H
	DW	01ce7H
	DW	01ce7H
	DW	01ce7H
	DW	01ce7H
	DW	01ce7H
	DW	01ce7H
	DW	01ce7H
	DW	01ce7H
	DW	01ce7H
	DW	01ce7H
	DW	01ce7H
	DW	01ce7H
	DW	018c6H
	DW	014a5H
	DW	01084H
	DW	01084H
	DW	01084H
	DW	01084H
	DW	01084H
	DW	01084H
	DW	01084H
	DW	018c6H
	DW	01ce7H
	DW	01ce7H
	DW	01ce7H
	DW	01ce7H
	DW	01ce7H
	DW	01ce7H
	DW	01ce7H
	DW	01ce7H
	DW	01ce7H
	DW	01ce7H
	DW	01ce7H
	DW	01ce7H
	DW	01ce7H
	DW	01ce7H
	DW	01ce7H
	DW	01ce7H
	DW	01ce7H
	DW	01ce7H
	DW	01ce7H
	DW	01ce7H
	DW	01ce7H
	DW	01ce7H
	DW	01ce7H
	DW	01ce7H
	DW	01ce7H
	DW	01ce7H
	DW	01ce7H
	DW	01ce7H
	DW	01ce7H
	DW	01ce7H
	DW	01ce7H
	DW	01ce7H
	DW	01ce7H
	DW	01ce7H
	DW	01ce7H
	DW	01ce7H
	DW	01ce7H
	DW	01ce7H
	DW	01ce7H
	DW	01ce7H
	DW	01ce7H
	DW	01ce7H
	DW	018c6H
	DW	014a5H
	DW	014a5H
	DW	014a5H
	DW	014a5H
	DW	014a5H
	DW	014a5H
	DW	014a5H
	DW	014a5H
	DW	0842H
	DW	00H
	DW	0c63H
	DW	02108H
	DW	01ce7H
	DW	01ce7H
	DW	01ce7H
	DW	01ce7H
	DW	01ce7H
	DW	083aH
	DW	01fH
	DW	0436H
	DW	00H
	DW	010a4H
	DW	035adH
	DW	0318cH
	DW	02529H
	DW	0842H
	DW	00H
	DW	00H
	DW	00H
	DW	00H
	DW	00H
	DW	00H
	DW	00H
	DW	00H
	DW	00H
	DW	0c63H
	DW	0c63H
	DW	01084H
	DW	01084H
	DW	01084H
	DW	01084H
	DW	01084H
	DW	01084H
	DW	014a5H
	DW	039ceH
	DW	03defH
	DW	035adH
	DW	035adH
	DW	01ce7H
	DW	00H
	DW	0414H
	DW	01fH
	DW	083aH
	DW	01ce7H
	DW	01ce7H
	DW	01ce7H
	DW	01ce7H
	DW	01ce7H
	DW	020e8H
	DW	0842H
	DW	00H
	DW	0421H
	DW	014a5H
	DW	014a5H
	DW	014a5H
	DW	014a5H
	DW	014a5H
	DW	014a5H
	DW	014a5H
	DW	014a5H
	DW	014a5H
	DW	01ce7H
	DW	01ce7H
	DW	01ce7H
	DW	01ce7H
	DW	01ce7H
	DW	01ce7H
	DW	01ce7H
	DW	01ce7H
	DW	01ce7H
	DW	01ce7H
	DW	01ce7H
	DW	01ce7H
	DW	01ce7H
	DW	01ce7H
	DW	01ce7H
	DW	01ce7H
	DW	01ce7H
	DW	01ce7H
	DW	01ce7H
	DW	01ce7H
	DW	01ce7H
	DW	01ce7H
	DW	01ce7H
	DW	01ce7H
	DW	01ce7H
	DW	01ce7H
	DW	01ce7H
	DW	01ce7H
	DW	01ce7H
	DW	01ce7H
	DW	01ce7H
	DW	01ce7H
	DW	01ce7H
	DW	01ce7H
	DW	01ce7H
	DW	01ce7H
	DW	01ce7H
	DW	01ce7H
	DW	01ce7H
	DW	01ce7H
	DW	01ce7H
	DW	01ce7H
	DW	01ce7H
	DW	0842H
	DW	0421H
	DW	0421H
	DW	0421H
	DW	0421H
	DW	0421H
	DW	0421H
	DW	0421H
	DW	0421H
	DW	0c63H
	DW	018c6H
	DW	01ce7H
	DW	01ce7H
	DW	01ce7H
	DW	01ce7H
	DW	01ce7H
	DW	01ce7H
	DW	01ce7H
	DW	01ce7H
	DW	01ce7H
	DW	01ce7H
	DW	01ce7H
	DW	01ce7H
	DW	01ce7H
	DW	01ce7H
	DW	01ce7H
	DW	01ce7H
	DW	0318cH
	DW	035adH
	DW	0c63H
	DW	00H
	DW	00H
	DW	00H
	DW	00H
	DW	00H
	DW	00H
	DW	00H
	DW	00H
	DW	0421H
	DW	0421H
	DW	01084H
	DW	01ce7H
	DW	01ce7H
	DW	01ce7H
	DW	01ce7H
	DW	01ce7H
	DW	01ce7H
	DW	01ce7H
	DW	01ce7H
	DW	01ce7H
	DW	01ce7H
	DW	01ce7H
	DW	01ce7H
	DW	01ce7H
	DW	01ce7H
	DW	01ce7H
	DW	01ce7H
	DW	01ce7H
	DW	018c6H
	DW	014a5H
	DW	014a5H
	DW	014a5H
	DW	014a5H
	DW	01084H
	DW	01084H
	DW	01084H
	DW	01084H
	DW	018c6H
	DW	01ce7H
	DW	01ce7H
	DW	01ce7H
	DW	01ce7H
	DW	01ce7H
	DW	01ce7H
	DW	01ce7H
	DW	01ce7H
	DW	01ce7H
	DW	01ce7H
	DW	01ce7H
	DW	01ce7H
	DW	01ce7H
	DW	01ce7H
	DW	01ce7H
	DW	01ce7H
	DW	01ce7H
	DW	01ce7H
	DW	01ce7H
	DW	01ce7H
	DW	01ce7H
	DW	01ce7H
	DW	01ce7H
	DW	01ce7H
	DW	01ce7H
	DW	01ce7H
	DW	01ce7H
	DW	01ce7H
	DW	01ce7H
	DW	01ce7H
	DW	01ce7H
	DW	01ce7H
	DW	01ce7H
	DW	01ce7H
	DW	01ce7H
	DW	01ce7H
	DW	01ce7H
	DW	01ce7H
	DW	01ce7H
	DW	01ce7H
	DW	01ce7H
	DW	01ce7H
	DW	018c6H
	DW	014a5H
	DW	014a5H
	DW	014a5H
	DW	014a5H
	DW	014a5H
	DW	014a5H
	DW	014a5H
	DW	014a5H
	DW	0842H
	DW	00H
	DW	0863H
	DW	02108H
	DW	01ce7H
	DW	01ce7H
	DW	01ce7H
	DW	01ce7H
	DW	01ce6H
	DW	083aH
	DW	01fH
	DW	0437H
	DW	00H
	DW	010a4H
	DW	035adH
	DW	0318cH
	DW	02529H
	DW	0843H
	DW	00H
	DW	00H
	DW	00H
	DW	00H
	DW	00H
	DW	00H
	DW	00H
	DW	00H
	DW	00H
	DW	0c63H
	DW	0c63H
	DW	0c63H
	DW	01084H
	DW	01084H
	DW	01084H
	DW	01084H
	DW	01084H
	DW	014a5H
	DW	039ceH
	DW	03defH
	DW	035adH
	DW	035adH
	DW	01ce7H
	DW	00H
	DW	0415H
	DW	01fH
	DW	0839H
	DW	01ce7H
	DW	01ce7H
	DW	01ce7H
	DW	01ce7H
	DW	01ce7H
	DW	020e8H
	DW	0842H
	DW	00H
	DW	0421H
	DW	014a5H
	DW	014a5H
	DW	014a5H
	DW	014a5H
	DW	014a5H
	DW	014a5H
	DW	014a5H
	DW	014a5H
	DW	018c6H
	DW	01ce7H
	DW	01ce7H
	DW	01ce7H
	DW	01ce7H
	DW	01ce7H
	DW	01ce7H
	DW	01ce7H
	DW	01ce7H
	DW	01ce7H
	DW	01ce7H
	DW	01ce7H
	DW	01ce7H
	DW	01ce7H
	DW	01ce7H
	DW	01ce7H
	DW	01ce7H
	DW	01ce7H
	DW	01ce7H
	DW	01ce7H
	DW	01ce7H
	DW	01ce7H
	DW	01ce7H
	DW	01ce7H
	DW	01ce7H
	DW	01ce7H
	DW	01ce7H
	DW	01ce7H
	DW	01ce7H
	DW	01ce7H
	DW	01ce7H
	DW	01ce7H
	DW	01ce7H
	DW	01ce7H
	DW	01ce7H
	DW	01ce7H
	DW	01ce7H
	DW	01ce7H
	DW	01ce7H
	DW	01ce7H
	DW	01ce7H
	DW	01ce7H
	DW	01ce7H
	DW	018c6H
	DW	0842H
	DW	0421H
	DW	0421H
	DW	0421H
	DW	0421H
	DW	0421H
	DW	0421H
	DW	0421H
	DW	0421H
	DW	01084H
	DW	018c6H
	DW	01ce7H
	DW	01ce7H
	DW	01ce7H
	DW	01ce7H
	DW	01ce7H
	DW	01ce7H
	DW	01ce7H
	DW	01ce7H
	DW	01ce7H
	DW	01ce7H
	DW	01ce7H
	DW	01ce7H
	DW	01ce7H
	DW	01ce7H
	DW	01ce7H
	DW	0294aH
	DW	035adH
	DW	0c63H
	DW	00H
	DW	00H
	DW	00H
	DW	00H
	DW	00H
	DW	00H
	DW	00H
	DW	00H
	DW	00H
	DW	00H
	DW	00H
	DW	00H
	DW	014a5H
	DW	01ce7H
	DW	01ce7H
	DW	01ce7H
	DW	01ce7H
	DW	01ce7H
	DW	01ce7H
	DW	01ce7H
	DW	01ce7H
	DW	01ce7H
	DW	01ce7H
	DW	01ce7H
	DW	01ce7H
	DW	01ce7H
	DW	01ce7H
	DW	01ce7H
	DW	01ce7H
	DW	01ce7H
	DW	018c6H
	DW	014a5H
	DW	014a5H
	DW	014a5H
	DW	014a5H
	DW	014a5H
	DW	014a5H
	DW	01084H
	DW	018c6H
	DW	01ce7H
	DW	01ce7H
	DW	01ce7H
	DW	01ce7H
	DW	01ce7H
	DW	01ce7H
	DW	01ce7H
	DW	01ce7H
	DW	01ce7H
	DW	01ce7H
	DW	01ce7H
	DW	01ce7H
	DW	01ce7H
	DW	01ce7H
	DW	01ce7H
	DW	01ce7H
	DW	01ce7H
	DW	01ce7H
	DW	01ce7H
	DW	01ce7H
	DW	01ce7H
	DW	01ce7H
	DW	01ce7H
	DW	01ce7H
	DW	01ce7H
	DW	01ce7H
	DW	01ce7H
	DW	01ce7H
	DW	01ce7H
	DW	01ce7H
	DW	01ce7H
	DW	01ce7H
	DW	01ce7H
	DW	01ce7H
	DW	01ce7H
	DW	01ce7H
	DW	01ce7H
	DW	01ce7H
	DW	01ce7H
	DW	01ce7H
	DW	01ce7H
	DW	01ce7H
	DW	018c6H
	DW	014a5H
	DW	014a5H
	DW	014a5H
	DW	014a5H
	DW	014a5H
	DW	014a5H
	DW	014a5H
	DW	014a5H
	DW	0842H
	DW	00H
	DW	0863H
	DW	02529H
	DW	01ce7H
	DW	01ce7H
	DW	01ce7H
	DW	01ce7H
	DW	01ce7H
	DW	083aH
	DW	01fH
	DW	0438H
	DW	00H
	DW	01084H
	DW	035adH
	DW	0318cH
	DW	02529H
	DW	0c63H
	DW	00H
	DW	00H
	DW	00H
	DW	00H
	DW	00H
	DW	00H
	DW	00H
	DW	00H
	DW	00H
	DW	0c63H
	DW	0c63H
	DW	0c63H
	DW	0c63H
	DW	0c63H
	DW	01084H
	DW	01084H
	DW	01084H
	DW	018c6H
	DW	039ceH
	DW	03defH
	DW	035adH
	DW	035adH
	DW	01ce7H
	DW	00H
	DW	0415H
	DW	01fH
	DW	0839H
	DW	01ce6H
	DW	01ce7H
	DW	01ce7H
	DW	01ce7H
	DW	01ce7H
	DW	01ce8H
	DW	0842H
	DW	00H
	DW	0421H
	DW	014a5H
	DW	014a5H
	DW	014a5H
	DW	014a5H
	DW	014a5H
	DW	014a5H
	DW	014a5H
	DW	014a5H
	DW	014a5H
	DW	01ce7H
	DW	01ce7H
	DW	01ce7H
	DW	01ce7H
	DW	01ce7H
	DW	01ce7H
	DW	01ce7H
	DW	01ce7H
	DW	01ce7H
	DW	01ce7H
	DW	01ce7H
	DW	01ce7H
	DW	01ce7H
	DW	01ce7H
	DW	01ce7H
	DW	01ce7H
	DW	01ce7H
	DW	01ce7H
	DW	01ce7H
	DW	01ce7H
	DW	01ce7H
	DW	01ce7H
	DW	01ce7H
	DW	01ce7H
	DW	01ce7H
	DW	01ce7H
	DW	01ce7H
	DW	01ce7H
	DW	01ce7H
	DW	01ce7H
	DW	01ce7H
	DW	01ce7H
	DW	01ce7H
	DW	01ce7H
	DW	01ce7H
	DW	01ce7H
	DW	01ce7H
	DW	01ce7H
	DW	01ce7H
	DW	01ce7H
	DW	01ce7H
	DW	01ce7H
	DW	018c6H
	DW	0421H
	DW	0421H
	DW	0421H
	DW	0421H
	DW	0421H
	DW	0421H
	DW	0421H
	DW	0421H
	DW	0842H
	DW	014a5H
	DW	01ce7H
	DW	01ce7H
	DW	01ce7H
	DW	01ce7H
	DW	01ce7H
	DW	01ce7H
	DW	01ce7H
	DW	01ce7H
	DW	01ce7H
	DW	01ce7H
	DW	01ce7H
	DW	01ce7H
	DW	01ce7H
	DW	01ce7H
	DW	01ce7H
	DW	01ce7H
	DW	0318cH
	DW	01ce7H
	DW	00H
	DW	00H
	DW	00H
	DW	00H
	DW	00H
	DW	00H
	DW	00H
	DW	00H
	DW	00H
	DW	00H
	DW	00H
	DW	00H
