; Listing generated by Microsoft (R) Optimizing Compiler Version 16.00.40219.01 

	TITLE	C:\DUII\DUII\Graphics\VehicleWeight.c
	.686P
	.XMM
	include listing.inc
	.model	flat

INCLUDELIB LIBCMT
INCLUDELIB OLDNAMES

PUBLIC	_bmVehicleWeight
CONST	SEGMENT
_ColorsVehicleWeight DD 00H
	DD	0414141H
	DD	0222222H
	DD	041fefeH
	DD	0393939H
	DD	03e3e3eH
	DD	03efafeH
	DD	0b0b0bH
	DD	02c2c2cH
	DD	0141414H
	DD	01a1a1aH
	DD	01e1e1eH
	DD	0323131H
	DD	0353535H
	DD	02a2a2aH
	DD	0262626H
	DD	03efefeH
	DD	03d3535H
	DD	029a3a6H
	DD	0184142H
	DD	0a0303H
	DD	0165455H
	DD	0124445H
	DD	030bdc1H
	DD	031c4c8H
	DD	0c1111H
	DD	0120c0bH
	DD	03e3939H
	DD	030c2c6H
	DD	03df5f9H
	DD	044ffffH
	DD	02baaadH
	DD	0a2323H
	DD	02aa6a9H
	DD	0d3233H
	DD	038e1e5H
	DD	03ae9edH
	DD	040b0bH
	DD	0e393aH
	DD	02c2929H
	DD	0259294H
	DD	035d5d9H
	DD	039e5e9H
	DD	03cf1f5H
	DD	032caceH
	DD	0181c1cH
	DD	034d2d5H
	DD	0a1c1cH
	DD	0103c3dH
	DD	016595bH
	DD	0238b8eH
	DD	0259699H
	DD	03ceef2H
	DD	01e7476H
	DD	0207c7eH
	DD	0269a9dH
	DD	02ebabeH
	DD	01d1818H
	DD	0122b2bH
	DD	0193d3dH
	DD	02d2525H
	DD	03a3636H
	DD	0194344H
	DD	032ccd0H
	DD	036dde1H
	DD	0191515H
	DD	0261d1cH
	DD	0123334H
	DD	01a6566H
	DD	0218284H
	DD	034ced2H
	DD	038dde1H
	DD	03df7fcH
	DD	061314H
	DD	0191111H
	DD	0211616H
	DD	0201e1eH
	DD	0353131H
	DD	0403e3eH
	DD	01c6c6eH
	DD	02db4b6H
	DD	02db6b9H
	DD	036daddH
	DD	03ef5f6H
	DD	01c1211H
	DD	0141a1aH
	DD	0221919H
	DD	0d2929H
	DD	0193132H
	DD	0292424H
	DD	0322a2aH
	DD	0154d4eH
	DD	0185d5eH
	DD	01a696aH
	DD	0248e91H
	DD	02caeb0H
	DD	02cb1b4H
	DD	02ebcc0H
	DD	03aedf1H
	DD	03ff8faH
	DD	0d2c2dH
	DD	0143c3dH
	DD	01c393aH
	DD	0252121H
	DD	0312d2dH
	DD	02e3030H
	DD	0124849H
	DD	015494aH
	DD	0165758H
	DD	01a6669H
	DD	01b6b6cH
	DD	01e7678H
	DD	01e787aH
	DD	0289b9eH
	DD	0269ea1H
	DD	0289da0H
	DD	02ebcbdH
	DD	02ec2c4H
	DD	031c0c2H
	DD	031c8caH
	DD	03cf0f2H
	DD	0100606H
	DD	071a1bH
	DD	01d1515H
	DD	0122525H
	DD	01e2526H
	DD	01d2929H
	DD	0192d2eH
	DD	0144e50H
	DD	0185a5cH
	DD	0195e60H
	DD	0196162H
	DD	01e7a7cH
	DD	01f7c7fH
	DD	0228588H
	DD	026989aH
	DD	029adb0H
	DD	03ae8eaH
	DD	0180d0cH
	DD	061718H
	DD	0251919H
	DD	0221c1bH
	DD	0b2929H
	DD	0192727H
	DD	0d2f30H
	DD	0123738H
	DD	01a3738H
	DD	01e3738H
	DD	0123a3bH
	DD	0103b3cH
	DD	0292020H
	DD	0302726H
	DD	0352c2cH
	DD	0203131H
	DD	0253636H
	DD	0203839H
	DD	0323434H
	DD	0103f40H
	DD	01a3f40H
	DD	01a4546H
	DD	0124748H
	DD	0134a4cH
	DD	0144a4cH
	DD	01c5758H
	DD	01d595aH
	DD	01a6264H
	DD	01d6264H
	DD	01d696bH
	DD	01b6d6dH
	DD	01d7071H
	DD	0206c6eH
	DD	0217174H
	DD	020797bH
	DD	0228587H
	DD	030bcbeH
	DD	036d5d6H
	DD	037dbe0H
	DD	03ceeefH
	DD	080807H
	DD	0e100fH
	DD	0d0f10H
	DD	0221413H
	DD	0271c1bH
	DD	0c1f20H
	DD	0b2728H
	DD	0c2b2cH
	DD	0182121H
	DD	01e2223H
	DD	01a2b2bH
	DD	01c2b2cH
	DD	01e2d2dH
	DD	0152f30H
	DD	01e2f30H
	DD	0f3738H
	DD	01f3132H
	DD	0183536H
	DD	01c3637H
	DD	0173a3bH
	DD	0193839H
	DD	01b3b3cH
	DD	01c3c3dH
	DD	0252728H
	DD	0222b2bH
	DD	0232b2cH
	DD	0222d2dH
	DD	0352a29H
	DD	0203334H
	DD	0203637H
	DD	02a3232H
	DD	0393333H
	DD	03b3433H
	DD	03e3837H
	DD	01c3f41H
	DD	01c4041H
	DD	0134c4dH
	DD	0184f50H
	DD	01b5253H
	DD	01b5354H
	DD	01b5657H
	DD	01b5859H
	DD	01e5a5cH
	DD	01c5d5fH
	DD	0214142H
	DD	01c6b6dH
	DD	01c6f71H
	DD	01d7374H
	DD	0207678H
	DD	0217b7dH
	DD	0207f81H
	DD	0208183H
	DD	0248082H
	DD	0248485H
	DD	02bb2b3H
	DD	02bb2b5H
	DD	02db8bbH
	DD	02fc1c3H
	DD	02ec4c4H
	DD	030c4c6H
	DD	034caccH
	DD	034d0d3H
	DD	032d3d4H
	DD	037dcdfH
	DD	035e2e4H
	DD	037e6e8H
	DD	037eaeaH
	DD	037eaecH
	DD	03ce8e9H
	DD	03cebedH
	DD	03aefefH
	DD	03bebf0H
	DD	03ceff4H
	DD	03af0f4H
	DD	03df3f8H
	DD	03bf5faH
	DD	041f7f7H
	DD	040fbfbH
_PalVehicleWeight DD 0100H
	DB	00H
	ORG $+3
	DD	FLAT:_ColorsVehicleWeight
_bmVehicleWeight DW 0159H
	DW	023H
	DW	0159H
	DW	08H
	DD	FLAT:_acVehicleWeight
	DD	FLAT:_PalVehicleWeight
	ORG $+4
_acVehicleWeight DB 02H
	DB	02H
	DB	02H
	DB	02H
	DB	02H
	DB	02H
	DB	02H
	DB	02H
	DB	02H
	DB	02H
	DB	02H
	DB	02H
	DB	02H
	DB	02H
	DB	02H
	DB	02H
	DB	02H
	DB	02H
	DB	02H
	DB	02H
	DB	02H
	DB	02H
	DB	02H
	DB	02H
	DB	02H
	DB	02H
	DB	02H
	DB	02H
	DB	02H
	DB	02H
	DB	02H
	DB	02H
	DB	02H
	DB	02H
	DB	02H
	DB	02H
	DB	02H
	DB	02H
	DB	02H
	DB	02H
	DB	02H
	DB	02H
	DB	02H
	DB	02H
	DB	02H
	DB	02H
	DB	02H
	DB	02H
	DB	02H
	DB	02H
	DB	02H
	DB	02H
	DB	02H
	DB	02H
	DB	02H
	DB	02H
	DB	02H
	DB	02H
	DB	02H
	DB	02H
	DB	02H
	DB	02H
	DB	02H
	DB	02H
	DB	02H
	DB	02H
	DB	02H
	DB	02H
	DB	02H
	DB	02H
	DB	02H
	DB	02H
	DB	02H
	DB	02H
	DB	02H
	DB	02H
	DB	02H
	DB	02H
	DB	02H
	DB	02H
	DB	02H
	DB	02H
	DB	02H
	DB	02H
	DB	02H
	DB	02H
	DB	02H
	DB	02H
	DB	02H
	DB	02H
	DB	02H
	DB	02H
	DB	02H
	DB	02H
	DB	02H
	DB	02H
	DB	02H
	DB	02H
	DB	02H
	DB	02H
	DB	02H
	DB	02H
	DB	02H
	DB	02H
	DB	02H
	DB	02H
	DB	02H
	DB	02H
	DB	02H
	DB	02H
	DB	02H
	DB	02H
	DB	02H
	DB	02H
	DB	02H
	DB	02H
	DB	02H
	DB	02H
	DB	02H
	DB	02H
	DB	02H
	DB	02H
	DB	02H
	DB	02H
	DB	02H
	DB	02H
	DB	02H
	DB	02H
	DB	02H
	DB	02H
	DB	02H
	DB	02H
	DB	02H
	DB	02H
	DB	02H
	DB	02H
	DB	02H
	DB	02H
	DB	02H
	DB	02H
	DB	02H
	DB	02H
	DB	02H
	DB	02H
	DB	02H
	DB	02H
	DB	02H
	DB	02H
	DB	02H
	DB	02H
	DB	02H
	DB	02H
	DB	02H
	DB	02H
	DB	02H
	DB	02H
	DB	02H
	DB	02H
	DB	02H
	DB	02H
	DB	02H
	DB	02H
	DB	02H
	DB	02H
	DB	02H
	DB	02H
	DB	02H
	DB	02H
	DB	02H
	DB	02H
	DB	02H
	DB	02H
	DB	02H
	DB	02H
	DB	02H
	DB	02H
	DB	02H
	DB	02H
	DB	02H
	DB	02H
	DB	02H
	DB	02H
	DB	02H
	DB	02H
	DB	02H
	DB	02H
	DB	02H
	DB	02H
	DB	02H
	DB	02H
	DB	02H
	DB	02H
	DB	02H
	DB	02H
	DB	02H
	DB	02H
	DB	02H
	DB	02H
	DB	02H
	DB	02H
	DB	02H
	DB	02H
	DB	02H
	DB	02H
	DB	02H
	DB	02H
	DB	02H
	DB	02H
	DB	02H
	DB	02H
	DB	02H
	DB	02H
	DB	02H
	DB	02H
	DB	02H
	DB	02H
	DB	02H
	DB	02H
	DB	02H
	DB	02H
	DB	02H
	DB	02H
	DB	02H
	DB	02H
	DB	02H
	DB	02H
	DB	02H
	DB	02H
	DB	02H
	DB	02H
	DB	02H
	DB	02H
	DB	02H
	DB	02H
	DB	02H
	DB	02H
	DB	02H
	DB	02H
	DB	02H
	DB	02H
	DB	02H
	DB	02H
	DB	02H
	DB	02H
	DB	02H
	DB	02H
	DB	02H
	DB	02H
	DB	02H
	DB	02H
	DB	02H
	DB	02H
	DB	02H
	DB	02H
	DB	02H
	DB	02H
	DB	02H
	DB	02H
	DB	02H
	DB	02H
	DB	02H
	DB	02H
	DB	02H
	DB	02H
	DB	02H
	DB	02H
	DB	02H
	DB	02H
	DB	02H
	DB	02H
	DB	02H
	DB	02H
	DB	02H
	DB	02H
	DB	02H
	DB	02H
	DB	02H
	DB	02H
	DB	02H
	DB	02H
	DB	02H
	DB	02H
	DB	02H
	DB	02H
	DB	02H
	DB	02H
	DB	02H
	DB	02H
	DB	02H
	DB	02H
	DB	02H
	DB	02H
	DB	02H
	DB	02H
	DB	02H
	DB	02H
	DB	02H
	DB	02H
	DB	02H
	DB	02H
	DB	02H
	DB	02H
	DB	02H
	DB	02H
	DB	02H
	DB	02H
	DB	02H
	DB	02H
	DB	02H
	DB	02H
	DB	02H
	DB	02H
	DB	02H
	DB	02H
	DB	02H
	DB	02H
	DB	02H
	DB	02H
	DB	02H
	DB	02H
	DB	02H
	DB	02H
	DB	02H
	DB	02H
	DB	02H
	DB	02H
	DB	02H
	DB	02H
	DB	02H
	DB	02H
	DB	02H
	DB	02H
	DB	02H
	DB	02H
	DB	02H
	DB	02H
	DB	02H
	DB	02H
	DB	02H
	DB	02H
	DB	02H
	DB	02H
	DB	02H
	DB	02H
	DB	02H
	DB	02H
	DB	02H
	DB	02H
	DB	02H
	DB	02H
	DB	02H
	DB	02H
	DB	02H
	DB	02H
	DB	02H
	DB	02H
	DB	02H
	DB	02H
	DB	02H
	DB	02H
	DB	02H
	DB	02H
	DB	02H
	DB	02H
	DB	02H
	DB	02H
	DB	02H
	DB	02H
	DB	02H
	DB	02H
	DB	02H
	DB	02H
	DB	02H
	DB	02H
	DB	02H
	DB	02H
	DB	02H
	DB	02H
	DB	02H
	DB	02H
	DB	02H
	DB	02H
	DB	02H
	DB	02H
	DB	02H
	DB	02H
	DB	02H
	DB	02H
	DB	02H
	DB	02H
	DB	02H
	DB	02H
	DB	02H
	DB	02H
	DB	02H
	DB	02H
	DB	02H
	DB	02H
	DB	02H
	DB	02H
	DB	02H
	DB	02H
	DB	02H
	DB	02H
	DB	02H
	DB	02H
	DB	02H
	DB	02H
	DB	02H
	DB	02H
	DB	02H
	DB	02H
	DB	02H
	DB	02H
	DB	02H
	DB	02H
	DB	02H
	DB	02H
	DB	02H
	DB	02H
	DB	02H
	DB	02H
	DB	02H
	DB	02H
	DB	02H
	DB	02H
	DB	02H
	DB	02H
	DB	02H
	DB	02H
	DB	02H
	DB	02H
	DB	02H
	DB	02H
	DB	02H
	DB	02H
	DB	02H
	DB	02H
	DB	02H
	DB	02H
	DB	02H
	DB	02H
	DB	02H
	DB	02H
	DB	02H
	DB	02H
	DB	02H
	DB	02H
	DB	02H
	DB	02H
	DB	02H
	DB	02H
	DB	02H
	DB	02H
	DB	02H
	DB	02H
	DB	02H
	DB	02H
	DB	02H
	DB	02H
	DB	02H
	DB	02H
	DB	02H
	DB	02H
	DB	02H
	DB	02H
	DB	02H
	DB	02H
	DB	02H
	DB	02H
	DB	02H
	DB	02H
	DB	02H
	DB	02H
	DB	02H
	DB	02H
	DB	02H
	DB	02H
	DB	02H
	DB	02H
	DB	02H
	DB	02H
	DB	02H
	DB	02H
	DB	02H
	DB	02H
	DB	02H
	DB	02H
	DB	02H
	DB	02H
	DB	02H
	DB	02H
	DB	02H
	DB	02H
	DB	02H
	DB	02H
	DB	02H
	DB	02H
	DB	02H
	DB	02H
	DB	02H
	DB	02H
	DB	02H
	DB	02H
	DB	02H
	DB	02H
	DB	02H
	DB	02H
	DB	02H
	DB	02H
	DB	02H
	DB	02H
	DB	02H
	DB	02H
	DB	02H
	DB	02H
	DB	02H
	DB	02H
	DB	02H
	DB	02H
	DB	02H
	DB	02H
	DB	02H
	DB	02H
	DB	02H
	DB	02H
	DB	02H
	DB	02H
	DB	02H
	DB	02H
	DB	02H
	DB	02H
	DB	02H
	DB	02H
	DB	02H
	DB	02H
	DB	02H
	DB	02H
	DB	02H
	DB	02H
	DB	02H
	DB	02H
	DB	02H
	DB	02H
	DB	02H
	DB	02H
	DB	02H
	DB	02H
	DB	02H
	DB	02H
	DB	02H
	DB	02H
	DB	02H
	DB	02H
	DB	02H
	DB	02H
	DB	02H
	DB	02H
	DB	02H
	DB	02H
	DB	02H
	DB	02H
	DB	02H
	DB	02H
	DB	02H
	DB	02H
	DB	02H
	DB	02H
	DB	02H
	DB	02H
	DB	02H
	DB	02H
	DB	02H
	DB	02H
	DB	02H
	DB	02H
	DB	02H
	DB	02H
	DB	02H
	DB	02H
	DB	02H
	DB	02H
	DB	02H
	DB	02H
	DB	02H
	DB	02H
	DB	02H
	DB	02H
	DB	02H
	DB	02H
	DB	02H
	DB	02H
	DB	02H
	DB	02H
	DB	02H
	DB	02H
	DB	02H
	DB	02H
	DB	02H
	DB	02H
	DB	02H
	DB	02H
	DB	02H
	DB	02H
	DB	02H
	DB	02H
	DB	02H
	DB	02H
	DB	02H
	DB	02H
	DB	02H
	DB	02H
	DB	02H
	DB	02H
	DB	02H
	DB	02H
	DB	02H
	DB	02H
	DB	02H
	DB	02H
	DB	02H
	DB	02H
	DB	02H
	DB	02H
	DB	02H
	DB	02H
	DB	02H
	DB	02H
	DB	02H
	DB	02H
	DB	02H
	DB	02H
	DB	02H
	DB	02H
	DB	02H
	DB	02H
	DB	02H
	DB	02H
	DB	02H
	DB	02H
	DB	02H
	DB	02H
	DB	02H
	DB	02H
	DB	02H
	DB	02H
	DB	02H
	DB	02H
	DB	02H
	DB	02H
	DB	02H
	DB	02H
	DB	02H
	DB	02H
	DB	02H
	DB	02H
	DB	02H
	DB	02H
	DB	02H
	DB	02H
	DB	02H
	DB	02H
	DB	02H
	DB	02H
	DB	02H
	DB	02H
	DB	02H
	DB	02H
	DB	02H
	DB	02H
	DB	02H
	DB	02H
	DB	02H
	DB	02H
	DB	02H
	DB	02H
	DB	02H
	DB	02H
	DB	02H
	DB	02H
	DB	02H
	DB	02H
	DB	02H
	DB	02H
	DB	02H
	DB	02H
	DB	02H
	DB	02H
	DB	02H
	DB	02H
	DB	08H
	DB	08H
	DB	08H
	DB	08H
	DB	08H
	DB	08H
	DB	08H
	DB	08H
	DB	08H
	DB	08H
	DB	08H
	DB	08H
	DB	08H
	DB	08H
	DB	08H
	DB	08H
	DB	08H
	DB	08H
	DB	08H
	DB	08H
	DB	08H
	DB	08H
	DB	08H
	DB	08H
	DB	08H
	DB	08H
	DB	08H
	DB	08H
	DB	08H
	DB	08H
	DB	08H
	DB	08H
	DB	08H
	DB	08H
	DB	08H
	DB	08H
	DB	08H
	DB	08H
	DB	08H
	DB	08H
	DB	08H
	DB	08H
	DB	08H
	DB	08H
	DB	08H
	DB	08H
	DB	08H
	DB	08H
	DB	08H
	DB	08H
	DB	08H
	DB	08H
	DB	08H
	DB	08H
	DB	08H
	DB	08H
	DB	08H
	DB	08H
	DB	08H
	DB	08H
	DB	08H
	DB	08H
	DB	08H
	DB	08H
	DB	08H
	DB	08H
	DB	08H
	DB	08H
	DB	08H
	DB	08H
	DB	08H
	DB	08H
	DB	08H
	DB	08H
	DB	08H
	DB	08H
	DB	08H
	DB	08H
	DB	08H
	DB	08H
	DB	08H
	DB	08H
	DB	08H
	DB	08H
	DB	08H
	DB	08H
	DB	08H
	DB	08H
	DB	08H
	DB	08H
	DB	08H
	DB	08H
	DB	08H
	DB	08H
	DB	08H
	DB	08H
	DB	08H
	DB	08H
	DB	08H
	DB	08H
	DB	08H
	DB	08H
	DB	08H
	DB	08H
	DB	08H
	DB	08H
	DB	08H
	DB	08H
	DB	08H
	DB	08H
	DB	08H
	DB	08H
	DB	08H
	DB	08H
	DB	08H
	DB	08H
	DB	08H
	DB	08H
	DB	08H
	DB	08H
	DB	08H
	DB	08H
	DB	08H
	DB	08H
	DB	08H
	DB	08H
	DB	08H
	DB	08H
	DB	08H
	DB	08H
	DB	08H
	DB	08H
	DB	08H
	DB	08H
	DB	08H
	DB	08H
	DB	08H
	DB	08H
	DB	08H
	DB	08H
	DB	08H
	DB	08H
	DB	08H
	DB	08H
	DB	08H
	DB	08H
	DB	08H
	DB	08H
	DB	08H
	DB	08H
	DB	08H
	DB	08H
	DB	08H
	DB	08H
	DB	08H
	DB	08H
	DB	08H
	DB	08H
	DB	08H
	DB	08H
	DB	08H
	DB	08H
	DB	08H
	DB	08H
	DB	08H
	DB	08H
	DB	08H
	DB	08H
	DB	08H
	DB	08H
	DB	08H
	DB	08H
	DB	08H
	DB	08H
	DB	08H
	DB	08H
	DB	08H
	DB	08H
	DB	08H
	DB	08H
	DB	08H
	DB	08H
	DB	08H
	DB	08H
	DB	08H
	DB	08H
	DB	08H
	DB	08H
	DB	08H
	DB	08H
	DB	08H
	DB	08H
	DB	08H
	DB	08H
	DB	08H
	DB	08H
	DB	08H
	DB	08H
	DB	08H
	DB	08H
	DB	08H
	DB	08H
	DB	08H
	DB	08H
	DB	08H
	DB	08H
	DB	08H
	DB	08H
	DB	08H
	DB	08H
	DB	08H
	DB	08H
	DB	08H
	DB	08H
	DB	08H
	DB	08H
	DB	08H
	DB	08H
	DB	08H
	DB	08H
	DB	08H
	DB	08H
	DB	08H
	DB	08H
	DB	08H
	DB	08H
	DB	08H
	DB	08H
	DB	08H
	DB	08H
	DB	08H
	DB	08H
	DB	08H
	DB	08H
	DB	08H
	DB	08H
	DB	08H
	DB	08H
	DB	08H
	DB	08H
	DB	08H
	DB	08H
	DB	08H
	DB	08H
	DB	08H
	DB	08H
	DB	08H
	DB	08H
	DB	08H
	DB	08H
	DB	08H
	DB	08H
	DB	08H
	DB	08H
	DB	08H
	DB	08H
	DB	08H
	DB	08H
	DB	08H
	DB	08H
	DB	08H
	DB	08H
	DB	08H
	DB	08H
	DB	08H
	DB	08H
	DB	08H
	DB	08H
	DB	08H
	DB	08H
	DB	08H
	DB	08H
	DB	08H
	DB	08H
	DB	08H
	DB	08H
	DB	08H
	DB	08H
	DB	08H
	DB	08H
	DB	08H
	DB	08H
	DB	08H
	DB	08H
	DB	08H
	DB	08H
	DB	08H
	DB	08H
	DB	08H
	DB	08H
	DB	08H
	DB	08H
	DB	08H
	DB	08H
	DB	08H
	DB	08H
	DB	08H
	DB	08H
	DB	08H
	DB	08H
	DB	08H
	DB	08H
	DB	08H
	DB	08H
	DB	08H
	DB	08H
	DB	08H
	DB	08H
	DB	08H
	DB	08H
	DB	08H
	DB	08H
	DB	08H
	DB	08H
	DB	08H
	DB	08H
	DB	08H
	DB	08H
	DB	08H
	DB	08H
	DB	08H
	DB	08H
	DB	08H
	DB	08H
	DB	08H
	DB	08H
	DB	08H
	DB	08H
	DB	08H
	DB	08H
	DB	08H
	DB	08H
	DB	08H
	DB	08H
	DB	08H
	DB	08H
	DB	08H
	DB	08H
	DB	08H
	DB	08H
	DB	08H
	DB	08H
	DB	08H
	DB	08H
	DB	08H
	DB	04H
	DB	04H
	DB	04H
	DB	04H
	DB	04H
	DB	04H
	DB	04H
	DB	04H
	DB	04H
	DB	04H
	DB	04H
	DB	04H
	DB	04H
	DB	04H
	DB	04H
	DB	04H
	DB	04H
	DB	04H
	DB	04H
	DB	04H
	DB	04H
	DB	04H
	DB	04H
	DB	04H
	DB	04H
	DB	04H
	DB	04H
	DB	04H
	DB	04H
	DB	04H
	DB	04H
	DB	04H
	DB	04H
	DB	04H
	DB	04H
	DB	04H
	DB	04H
	DB	04H
	DB	04H
	DB	04H
	DB	04H
	DB	04H
	DB	04H
	DB	04H
	DB	04H
	DB	04H
	DB	04H
	DB	04H
	DB	04H
	DB	04H
	DB	04H
	DB	04H
	DB	04H
	DB	04H
	DB	04H
	DB	04H
	DB	04H
	DB	04H
	DB	04H
	DB	04H
	DB	04H
	DB	04H
	DB	04H
	DB	04H
	DB	04H
	DB	04H
	DB	04H
	DB	04H
	DB	04H
	DB	04H
	DB	04H
	DB	04H
	DB	04H
	DB	04H
	DB	04H
	DB	04H
	DB	04H
	DB	04H
	DB	04H
	DB	04H
	DB	04H
	DB	04H
	DB	04H
	DB	04H
	DB	04H
	DB	04H
	DB	04H
	DB	04H
	DB	04H
	DB	04H
	DB	04H
	DB	04H
	DB	04H
	DB	04H
	DB	04H
	DB	04H
	DB	04H
	DB	04H
	DB	04H
	DB	04H
	DB	04H
	DB	04H
	DB	04H
	DB	04H
	DB	04H
	DB	04H
	DB	04H
	DB	04H
	DB	04H
	DB	04H
	DB	04H
	DB	04H
	DB	04H
	DB	04H
	DB	04H
	DB	04H
	DB	04H
	DB	04H
	DB	04H
	DB	04H
	DB	04H
	DB	04H
	DB	04H
	DB	04H
	DB	04H
	DB	04H
	DB	04H
	DB	04H
	DB	04H
	DB	04H
	DB	04H
	DB	04H
	DB	04H
	DB	04H
	DB	04H
	DB	04H
	DB	04H
	DB	04H
	DB	04H
	DB	04H
	DB	04H
	DB	04H
	DB	04H
	DB	04H
	DB	04H
	DB	04H
	DB	04H
	DB	04H
	DB	04H
	DB	04H
	DB	04H
	DB	04H
	DB	04H
	DB	04H
	DB	04H
	DB	04H
	DB	04H
	DB	04H
	DB	04H
	DB	04H
	DB	04H
	DB	04H
	DB	04H
	DB	04H
	DB	04H
	DB	04H
	DB	04H
	DB	04H
	DB	04H
	DB	04H
	DB	04H
	DB	04H
	DB	04H
	DB	04H
	DB	04H
	DB	04H
	DB	04H
	DB	04H
	DB	04H
	DB	04H
	DB	04H
	DB	04H
	DB	04H
	DB	04H
	DB	04H
	DB	04H
	DB	04H
	DB	04H
	DB	04H
	DB	04H
	DB	04H
	DB	04H
	DB	04H
	DB	04H
	DB	04H
	DB	04H
	DB	04H
	DB	04H
	DB	04H
	DB	04H
	DB	04H
	DB	04H
	DB	04H
	DB	04H
	DB	04H
	DB	04H
	DB	04H
	DB	04H
	DB	04H
	DB	04H
	DB	04H
	DB	04H
	DB	04H
	DB	04H
	DB	04H
	DB	04H
	DB	04H
	DB	04H
	DB	04H
	DB	04H
	DB	04H
	DB	04H
	DB	04H
	DB	04H
	DB	04H
	DB	04H
	DB	04H
	DB	04H
	DB	04H
	DB	04H
	DB	04H
	DB	04H
	DB	04H
	DB	04H
	DB	04H
	DB	04H
	DB	04H
	DB	04H
	DB	04H
	DB	04H
	DB	04H
	DB	04H
	DB	04H
	DB	04H
	DB	04H
	DB	04H
	DB	04H
	DB	04H
	DB	04H
	DB	04H
	DB	04H
	DB	04H
	DB	04H
	DB	04H
	DB	04H
	DB	04H
	DB	04H
	DB	04H
	DB	04H
	DB	04H
	DB	04H
	DB	04H
	DB	04H
	DB	04H
	DB	04H
	DB	04H
	DB	04H
	DB	04H
	DB	04H
	DB	04H
	DB	04H
	DB	04H
	DB	04H
	DB	04H
	DB	04H
	DB	04H
	DB	04H
	DB	04H
	DB	04H
	DB	04H
	DB	04H
	DB	04H
	DB	04H
	DB	04H
	DB	04H
	DB	04H
	DB	04H
	DB	04H
	DB	04H
	DB	04H
	DB	04H
	DB	04H
	DB	04H
	DB	04H
	DB	04H
	DB	04H
	DB	04H
	DB	04H
	DB	04H
	DB	04H
	DB	04H
	DB	04H
	DB	04H
	DB	04H
	DB	04H
	DB	04H
	DB	04H
	DB	04H
	DB	04H
	DB	04H
	DB	04H
	DB	04H
	DB	04H
	DB	04H
	DB	04H
	DB	04H
	DB	04H
	DB	04H
	DB	04H
	DB	04H
	DB	04H
	DB	04H
	DB	04H
	DB	04H
	DB	04H
	DB	04H
	DB	04H
	DB	04H
	DB	04H
	DB	04H
	DB	04H
	DB	04H
	DB	04H
	DB	04H
	DB	04H
	DB	04H
	DB	04H
	DB	04H
	DB	04H
	DB	04H
	DB	04H
	DB	04H
	DB	04H
	DB	04H
	DB	04H
	DB	01H
	DB	01H
	DB	01H
	DB	01H
	DB	01H
	DB	01H
	DB	01H
	DB	01H
	DB	01H
	DB	01H
	DB	01H
	DB	01H
	DB	01H
	DB	01H
	DB	01H
	DB	01H
	DB	01H
	DB	01H
	DB	01H
	DB	01H
	DB	01H
	DB	01H
	DB	01H
	DB	01H
	DB	01H
	DB	01H
	DB	01H
	DB	01H
	DB	01H
	DB	01H
	DB	01H
	DB	01H
	DB	01H
	DB	01H
	DB	01H
	DB	01H
	DB	01H
	DB	01H
	DB	01H
	DB	01H
	DB	01H
	DB	01H
	DB	01H
	DB	01H
	DB	01H
	DB	01H
	DB	01H
	DB	01H
	DB	01H
	DB	01H
	DB	01H
	DB	01H
	DB	01H
	DB	01H
	DB	01H
	DB	01H
	DB	01H
	DB	01H
	DB	01H
	DB	01H
	DB	01H
	DB	01H
	DB	01H
	DB	01H
	DB	01H
	DB	01H
	DB	01H
	DB	01H
	DB	01H
	DB	01H
	DB	01H
	DB	01H
	DB	01H
	DB	01H
	DB	01H
	DB	01H
	DB	01H
	DB	01H
	DB	01H
	DB	01H
	DB	01H
	DB	01H
	DB	01H
	DB	01H
	DB	01H
	DB	01H
	DB	01H
	DB	01H
	DB	01H
	DB	01H
	DB	01H
	DB	01H
	DB	01H
	DB	01H
	DB	01H
	DB	01H
	DB	01H
	DB	01H
	DB	01H
	DB	01H
	DB	01H
	DB	01H
	DB	01H
	DB	01H
	DB	01H
	DB	01H
	DB	01H
	DB	01H
	DB	01H
	DB	01H
	DB	01H
	DB	01H
	DB	01H
	DB	01H
	DB	01H
	DB	01H
	DB	01H
	DB	01H
	DB	01H
	DB	01H
	DB	01H
	DB	01H
	DB	01H
	DB	01H
	DB	01H
	DB	01H
	DB	01H
	DB	01H
	DB	01H
	DB	01H
	DB	01H
	DB	01H
	DB	01H
	DB	01H
	DB	01H
	DB	01H
	DB	01H
	DB	01H
	DB	01H
	DB	01H
	DB	01H
	DB	01H
	DB	01H
	DB	01H
	DB	01H
	DB	01H
	DB	01H
	DB	01H
	DB	01H
	DB	01H
	DB	01H
	DB	01H
	DB	01H
	DB	01H
	DB	01H
	DB	01H
	DB	01H
	DB	01H
	DB	01H
	DB	01H
	DB	01H
	DB	01H
	DB	01H
	DB	01H
	DB	01H
	DB	01H
	DB	01H
	DB	01H
	DB	01H
	DB	01H
	DB	01H
	DB	01H
	DB	01H
	DB	01H
	DB	01H
	DB	01H
	DB	01H
	DB	01H
	DB	01H
	DB	01H
	DB	01H
	DB	01H
	DB	01H
	DB	01H
	DB	01H
	DB	01H
	DB	01H
	DB	01H
	DB	01H
	DB	01H
	DB	01H
	DB	01H
	DB	01H
	DB	01H
	DB	01H
	DB	01H
	DB	01H
	DB	01H
	DB	01H
	DB	01H
	DB	01H
	DB	01H
	DB	01H
	DB	01H
	DB	01H
	DB	01H
	DB	01H
	DB	01H
	DB	01H
	DB	01H
	DB	01H
	DB	01H
	DB	01H
	DB	01H
	DB	01H
	DB	01H
	DB	01H
	DB	01H
	DB	01H
	DB	01H
	DB	01H
	DB	01H
	DB	01H
	DB	01H
	DB	01H
	DB	01H
	DB	01H
	DB	01H
	DB	01H
	DB	01H
	DB	01H
	DB	01H
	DB	01H
	DB	01H
	DB	01H
	DB	01H
	DB	01H
	DB	01H
	DB	01H
	DB	01H
	DB	01H
	DB	01H
	DB	01H
	DB	01H
	DB	01H
	DB	01H
	DB	01H
	DB	01H
	DB	01H
	DB	01H
	DB	01H
	DB	01H
	DB	01H
	DB	01H
	DB	01H
	DB	01H
	DB	01H
	DB	01H
	DB	01H
	DB	01H
	DB	01H
	DB	01H
	DB	01H
	DB	01H
	DB	01H
	DB	01H
	DB	01H
	DB	01H
	DB	01H
	DB	01H
	DB	01H
	DB	01H
	DB	01H
	DB	01H
	DB	01H
	DB	01H
	DB	01H
	DB	01H
	DB	01H
	DB	01H
	DB	01H
	DB	01H
	DB	01H
	DB	01H
	DB	01H
	DB	01H
	DB	01H
	DB	01H
	DB	01H
	DB	01H
	DB	01H
	DB	01H
	DB	01H
	DB	01H
	DB	01H
	DB	01H
	DB	01H
	DB	01H
	DB	01H
	DB	01H
	DB	01H
	DB	01H
	DB	01H
	DB	01H
	DB	01H
	DB	01H
	DB	01H
	DB	01H
	DB	01H
	DB	01H
	DB	01H
	DB	01H
	DB	01H
	DB	01H
	DB	01H
	DB	01H
	DB	01H
	DB	01H
	DB	01H
	DB	01H
	DB	01H
	DB	01H
	DB	01H
	DB	01H
	DB	01H
	DB	01H
	DB	01H
	DB	01H
	DB	01H
	DB	01H
	DB	01H
	DB	01H
	DB	01H
	DB	01H
	DB	01H
	DB	01H
	DB	01H
	DB	01H
	DB	01H
	DB	01H
	DB	01H
	DB	01H
	DB	01H
	DB	01H
	DB	01H
	DB	01H
	DB	01H
	DB	01H
	DB	01H
	DB	01H
	DB	01H
	DB	01H
	DB	01H
	DB	01H
	DB	01H
	DB	01H
	DB	01H
	DB	01H
	DB	01H
	DB	01H
	DB	01H
	DB	01H
	DB	01H
	DB	01H
	DB	01H
	DB	01H
	DB	01H
	DB	01H
	DB	01H
	DB	01H
	DB	01H
	DB	01H
	DB	01H
	DB	01H
	DB	01H
	DB	01H
	DB	01H
	DB	01H
	DB	01H
	DB	01H
	DB	01H
	DB	01H
	DB	01H
	DB	01H
	DB	01H
	DB	01H
	DB	01H
	DB	01H
	DB	01H
	DB	01H
	DB	01H
	DB	01H
	DB	01H
	DB	01H
	DB	01H
	DB	01H
	DB	01H
	DB	01H
	DB	01H
	DB	01H
	DB	01H
	DB	01H
	DB	01H
	DB	01H
	DB	01H
	DB	01H
	DB	01H
	DB	01H
	DB	01H
	DB	01H
	DB	01H
	DB	01H
	DB	01H
	DB	01H
	DB	01H
	DB	01H
	DB	01H
	DB	01H
	DB	01H
	DB	01H
	DB	01H
	DB	01H
	DB	01H
	DB	01H
	DB	01H
	DB	01H
	DB	01H
	DB	01H
	DB	01H
	DB	01H
	DB	01H
	DB	01H
	DB	01H
	DB	01H
	DB	01H
	DB	01H
	DB	01H
	DB	01H
	DB	01H
	DB	01H
	DB	01H
	DB	01H
	DB	01H
	DB	01H
	DB	01H
	DB	01H
	DB	01H
	DB	01H
	DB	01H
	DB	01H
	DB	01H
	DB	01H
	DB	01H
	DB	01H
	DB	01H
	DB	01H
	DB	01H
	DB	01H
	DB	01H
	DB	01H
	DB	01H
	DB	01H
	DB	01H
	DB	01H
	DB	01H
	DB	01H
	DB	01H
	DB	01H
	DB	01H
	DB	01H
	DB	01H
	DB	01H
	DB	01H
	DB	01H
	DB	01H
	DB	01H
	DB	01H
	DB	01H
	DB	01H
	DB	01H
	DB	01H
	DB	01H
	DB	01H
	DB	01H
	DB	01H
	DB	01H
	DB	01H
	DB	01H
	DB	01H
	DB	01H
	DB	01H
	DB	01H
	DB	01H
	DB	01H
	DB	01H
	DB	01H
	DB	01H
	DB	01H
	DB	01H
	DB	01H
	DB	01H
	DB	01H
	DB	01H
	DB	01H
	DB	01H
	DB	01H
	DB	01H
	DB	01H
	DB	01H
	DB	01H
	DB	01H
	DB	01H
	DB	01H
	DB	01H
	DB	01H
	DB	01H
	DB	01H
	DB	01H
	DB	01H
	DB	01H
	DB	01H
	DB	01H
	DB	01H
	DB	01H
	DB	01H
	DB	01H
	DB	01H
	DB	01H
	DB	01H
	DB	01H
	DB	01H
	DB	01H
	DB	01H
	DB	01H
	DB	01H
	DB	01H
	DB	01H
	DB	01H
	DB	01H
	DB	01H
	DB	01H
	DB	01H
	DB	01H
	DB	01H
	DB	01H
	DB	01H
	DB	01H
	DB	01H
	DB	01H
	DB	01H
	DB	01H
	DB	01H
	DB	01H
	DB	01H
	DB	01H
	DB	01H
	DB	01H
	DB	01H
	DB	01H
	DB	01H
	DB	01H
	DB	01H
	DB	01H
	DB	01H
	DB	01H
	DB	01H
	DB	01H
	DB	01H
	DB	01H
	DB	01H
	DB	01H
	DB	01H
	DB	01H
	DB	01H
	DB	01H
	DB	01H
	DB	01H
	DB	01H
	DB	01H
	DB	01H
	DB	01H
	DB	01H
	DB	01H
	DB	01H
	DB	01H
	DB	01H
	DB	01H
	DB	01H
	DB	01H
	DB	01H
	DB	01H
	DB	01H
	DB	01H
	DB	01H
	DB	01H
	DB	01H
	DB	01H
	DB	01H
	DB	01H
	DB	01H
	DB	01H
	DB	01H
	DB	01H
	DB	01H
	DB	01H
	DB	01H
	DB	01H
	DB	01H
	DB	01H
	DB	01H
	DB	01H
	DB	01H
	DB	01H
	DB	01H
	DB	01H
	DB	01H
	DB	01H
	DB	01H
	DB	01H
	DB	01H
	DB	01H
	DB	01H
	DB	01H
	DB	01H
	DB	01H
	DB	01H
	DB	01H
	DB	01H
	DB	01H
	DB	01H
	DB	01H
	DB	01H
	DB	01H
	DB	01H
	DB	01H
	DB	01H
	DB	01H
	DB	01H
	DB	01H
	DB	01H
	DB	01H
	DB	01H
	DB	01H
	DB	01H
	DB	01H
	DB	01H
	DB	01H
	DB	01H
	DB	01H
	DB	01H
	DB	01H
	DB	01H
	DB	01H
	DB	01H
	DB	01H
	DB	01H
	DB	01H
	DB	01H
	DB	01H
	DB	01H
	DB	01H
	DB	01H
	DB	01H
	DB	01H
	DB	01H
	DB	01H
	DB	01H
	DB	01H
	DB	01H
	DB	01H
	DB	01H
	DB	01H
	DB	01H
	DB	01H
	DB	01H
	DB	01H
	DB	01H
	DB	01H
	DB	01H
	DB	01H
	DB	01H
	DB	01H
	DB	01H
	DB	01H
	DB	01H
	DB	01H
	DB	01H
	DB	01H
	DB	01H
	DB	01H
	DB	01H
	DB	01H
	DB	01H
	DB	01H
	DB	01H
	DB	01H
	DB	01H
	DB	01H
	DB	01H
	DB	01H
	DB	01H
	DB	01H
	DB	01H
	DB	01H
	DB	01H
	DB	01H
	DB	01H
	DB	01H
	DB	01H
	DB	01H
	DB	01H
	DB	01H
	DB	01H
	DB	01H
	DB	01H
	DB	01H
	DB	01H
	DB	01H
	DB	01H
	DB	01H
	DB	01H
	DB	01H
	DB	01H
	DB	01H
	DB	01H
	DB	01H
	DB	01H
	DB	01H
	DB	01H
	DB	01H
	DB	01H
	DB	01H
	DB	01H
	DB	01H
	DB	01H
	DB	01H
	DB	01H
	DB	01H
	DB	01H
	DB	01H
	DB	01H
	DB	01H
	DB	01H
	DB	01H
	DB	01H
	DB	01H
	DB	01H
	DB	01H
	DB	01H
	DB	01H
	DB	01H
	DB	01H
	DB	01H
	DB	01H
	DB	01H
	DB	01H
	DB	01H
	DB	01H
	DB	01H
	DB	01H
	DB	01H
	DB	01H
	DB	01H
	DB	01H
	DB	01H
	DB	01H
	DB	01H
	DB	01H
	DB	01H
	DB	01H
	DB	01H
	DB	01H
	DB	01H
	DB	01H
	DB	01H
	DB	01H
	DB	01H
	DB	01H
	DB	01H
	DB	01H
	DB	01H
	DB	01H
	DB	01H
	DB	01H
	DB	01H
	DB	01H
	DB	01H
	DB	01H
	DB	01H
	DB	01H
	DB	01H
	DB	01H
	DB	01H
	DB	01H
	DB	01H
	DB	01H
	DB	01H
	DB	01H
	DB	01H
	DB	01H
	DB	01H
	DB	01H
	DB	01H
	DB	01H
	DB	01H
	DB	01H
	DB	01H
	DB	01H
	DB	01H
	DB	01H
	DB	01H
	DB	01H
	DB	01H
	DB	01H
	DB	01H
	DB	01H
	DB	01H
	DB	01H
	DB	01H
	DB	01H
	DB	01H
	DB	01H
	DB	01H
	DB	01H
	DB	01H
	DB	01H
	DB	01H
	DB	01H
	DB	01H
	DB	01H
	DB	01H
	DB	01H
	DB	01H
	DB	01H
	DB	01H
	DB	01H
	DB	01H
	DB	01H
	DB	01H
	DB	01H
	DB	01H
	DB	01H
	DB	01H
	DB	01H
	DB	01H
	DB	01H
	DB	01H
	DB	01H
	DB	01H
	DB	01H
	DB	01H
	DB	01H
	DB	01H
	DB	01H
	DB	01H
	DB	01H
	DB	01H
	DB	01H
	DB	01H
	DB	01H
	DB	01H
	DB	01H
	DB	01H
	DB	01H
	DB	01H
	DB	01H
	DB	01H
	DB	01H
	DB	01H
	DB	01H
	DB	01H
	DB	01H
	DB	01H
	DB	01H
	DB	01H
	DB	01H
	DB	01H
	DB	01H
	DB	01H
	DB	01H
	DB	01H
	DB	01H
	DB	01H
	DB	01H
	DB	01H
	DB	01H
	DB	01H
	DB	01H
	DB	01H
	DB	01H
	DB	01H
	DB	01H
	DB	01H
	DB	01H
	DB	01H
	DB	01H
	DB	01H
	DB	01H
	DB	01H
	DB	01H
	DB	01H
	DB	01H
	DB	01H
	DB	01H
	DB	01H
	DB	01H
	DB	01H
	DB	01H
	DB	01H
	DB	01H
	DB	01H
	DB	01H
	DB	01H
	DB	01H
	DB	01H
	DB	01H
	DB	01H
	DB	01H
	DB	01H
	DB	01H
	DB	01H
	DB	01H
	DB	01H
	DB	01H
	DB	01H
	DB	01H
	DB	01H
	DB	01H
	DB	01H
	DB	01H
	DB	01H
	DB	01H
	DB	01H
	DB	01H
	DB	01H
	DB	01H
	DB	01H
	DB	01H
	DB	01H
	DB	01H
	DB	01H
	DB	01H
	DB	01H
	DB	01H
	DB	01H
	DB	01H
	DB	01H
	DB	01H
	DB	01H
	DB	01H
	DB	01H
	DB	01H
	DB	01H
	DB	01H
	DB	01H
	DB	01H
	DB	01H
	DB	01H
	DB	01H
	DB	01H
	DB	01H
	DB	01H
	DB	01H
	DB	01H
	DB	01H
	DB	01H
	DB	01H
	DB	01H
	DB	01H
	DB	01H
	DB	01H
	DB	01H
	DB	01H
	DB	01H
	DB	01H
	DB	01H
	DB	01H
	DB	01H
	DB	01H
	DB	01H
	DB	01H
	DB	01H
	DB	01H
	DB	01H
	DB	01H
	DB	01H
	DB	01H
	DB	01H
	DB	01H
	DB	01H
	DB	01H
	DB	01H
	DB	01H
	DB	01H
	DB	01H
	DB	01H
	DB	01H
	DB	01H
	DB	01H
	DB	01H
	DB	01H
	DB	01H
	DB	01H
	DB	01H
	DB	01H
	DB	01H
	DB	01H
	DB	01H
	DB	01H
	DB	01H
	DB	01H
	DB	01H
	DB	01H
	DB	01H
	DB	01H
	DB	01H
	DB	01H
	DB	01H
	DB	01H
	DB	01H
	DB	01H
	DB	01H
	DB	01H
	DB	01H
	DB	01H
	DB	01H
	DB	01H
	DB	01H
	DB	01H
	DB	01H
	DB	01H
	DB	01H
	DB	01H
	DB	01H
	DB	01H
	DB	05H
	DB	05H
	DB	05H
	DB	05H
	DB	05H
	DB	05H
	DB	05H
	DB	05H
	DB	05H
	DB	05H
	DB	05H
	DB	05H
	DB	05H
	DB	05H
	DB	05H
	DB	05H
	DB	05H
	DB	05H
	DB	05H
	DB	05H
	DB	05H
	DB	05H
	DB	05H
	DB	05H
	DB	05H
	DB	05H
	DB	05H
	DB	05H
	DB	05H
	DB	05H
	DB	05H
	DB	05H
	DB	05H
	DB	05H
	DB	05H
	DB	05H
	DB	05H
	DB	05H
	DB	05H
	DB	05H
	DB	05H
	DB	05H
	DB	05H
	DB	05H
	DB	05H
	DB	05H
	DB	05H
	DB	05H
	DB	05H
	DB	05H
	DB	05H
	DB	05H
	DB	05H
	DB	05H
	DB	05H
	DB	05H
	DB	05H
	DB	05H
	DB	05H
	DB	05H
	DB	05H
	DB	05H
	DB	05H
	DB	05H
	DB	05H
	DB	05H
	DB	05H
	DB	05H
	DB	05H
	DB	05H
	DB	05H
	DB	05H
	DB	05H
	DB	05H
	DB	05H
	DB	05H
	DB	05H
	DB	05H
	DB	05H
	DB	05H
	DB	05H
	DB	05H
	DB	05H
	DB	05H
	DB	05H
	DB	05H
	DB	05H
	DB	05H
	DB	05H
	DB	05H
	DB	05H
	DB	05H
	DB	05H
	DB	05H
	DB	05H
	DB	05H
	DB	05H
	DB	05H
	DB	05H
	DB	05H
	DB	05H
	DB	05H
	DB	05H
	DB	05H
	DB	05H
	DB	05H
	DB	05H
	DB	05H
	DB	05H
	DB	05H
	DB	05H
	DB	05H
	DB	05H
	DB	05H
	DB	05H
	DB	05H
	DB	05H
	DB	05H
	DB	05H
	DB	05H
	DB	05H
	DB	05H
	DB	05H
	DB	05H
	DB	05H
	DB	05H
	DB	05H
	DB	05H
	DB	05H
	DB	05H
	DB	05H
	DB	05H
	DB	05H
	DB	05H
	DB	05H
	DB	05H
	DB	05H
	DB	05H
	DB	05H
	DB	05H
	DB	05H
	DB	05H
	DB	05H
	DB	05H
	DB	05H
	DB	05H
	DB	05H
	DB	05H
	DB	05H
	DB	05H
	DB	05H
	DB	05H
	DB	05H
	DB	05H
	DB	05H
	DB	05H
	DB	05H
	DB	05H
	DB	05H
	DB	05H
	DB	05H
	DB	05H
	DB	05H
	DB	05H
	DB	05H
	DB	05H
	DB	05H
	DB	05H
	DB	05H
	DB	05H
	DB	05H
	DB	05H
	DB	05H
	DB	05H
	DB	05H
	DB	05H
	DB	05H
	DB	05H
	DB	05H
	DB	05H
	DB	05H
	DB	05H
	DB	05H
	DB	05H
	DB	05H
	DB	05H
	DB	05H
	DB	05H
	DB	05H
	DB	05H
	DB	05H
	DB	05H
	DB	05H
	DB	05H
	DB	05H
	DB	05H
	DB	05H
	DB	05H
	DB	05H
	DB	05H
	DB	05H
	DB	05H
	DB	05H
	DB	05H
	DB	05H
	DB	05H
	DB	05H
	DB	05H
	DB	05H
	DB	05H
	DB	05H
	DB	05H
	DB	05H
	DB	05H
	DB	05H
	DB	05H
	DB	05H
	DB	05H
	DB	05H
	DB	05H
	DB	05H
	DB	05H
	DB	05H
	DB	05H
	DB	05H
	DB	05H
	DB	05H
	DB	05H
	DB	05H
	DB	05H
	DB	05H
	DB	05H
	DB	05H
	DB	05H
	DB	05H
	DB	05H
	DB	05H
	DB	05H
	DB	05H
	DB	05H
	DB	05H
	DB	05H
	DB	05H
	DB	05H
	DB	05H
	DB	05H
	DB	05H
	DB	05H
	DB	05H
	DB	05H
	DB	05H
	DB	05H
	DB	05H
	DB	05H
	DB	05H
	DB	05H
	DB	05H
	DB	05H
	DB	05H
	DB	05H
	DB	05H
	DB	05H
	DB	05H
	DB	05H
	DB	05H
	DB	05H
	DB	05H
	DB	05H
	DB	05H
	DB	05H
	DB	05H
	DB	05H
	DB	05H
	DB	05H
	DB	05H
	DB	05H
	DB	05H
	DB	05H
	DB	05H
	DB	05H
	DB	05H
	DB	05H
	DB	05H
	DB	05H
	DB	05H
	DB	05H
	DB	05H
	DB	05H
	DB	05H
	DB	05H
	DB	05H
	DB	05H
	DB	05H
	DB	05H
	DB	05H
	DB	05H
	DB	05H
	DB	05H
	DB	05H
	DB	05H
	DB	05H
	DB	05H
	DB	05H
	DB	05H
	DB	05H
	DB	05H
	DB	05H
	DB	05H
	DB	05H
	DB	05H
	DB	05H
	DB	05H
	DB	05H
	DB	05H
	DB	05H
	DB	05H
	DB	05H
	DB	05H
	DB	05H
	DB	05H
	DB	05H
	DB	05H
	DB	05H
	DB	05H
	DB	05H
	DB	05H
	DB	05H
	DB	05H
	DB	05H
	DB	05H
	DB	05H
	DB	05H
	DB	05H
	DB	05H
	DB	05H
	DB	05H
	DB	05H
	DB	05H
	DB	05H
	DB	05H
	DB	05H
	DB	05H
	DB	05H
	DB	05H
	DB	05H
	DB	05H
	DB	05H
	DB	05H
	DB	05H
	DB	05H
	DB	05H
	DB	05H
	DB	05H
	DB	05H
	DB	05H
	DB	05H
	DB	05H
	DB	05H
	DB	05H
	DB	05H
	DB	05H
	DB	05H
	DB	05H
	DB	05H
	DB	05H
	DB	05H
	DB	05H
	DB	05H
	DB	05H
	DB	05H
	DB	05H
	DB	05H
	DB	05H
	DB	05H
	DB	05H
	DB	05H
	DB	05H
	DB	05H
	DB	05H
	DB	05H
	DB	05H
	DB	05H
	DB	05H
	DB	05H
	DB	05H
	DB	05H
	DB	05H
	DB	05H
	DB	05H
	DB	05H
	DB	05H
	DB	05H
	DB	05H
	DB	05H
	DB	05H
	DB	05H
	DB	05H
	DB	05H
	DB	05H
	DB	05H
	DB	05H
	DB	05H
	DB	05H
	DB	05H
	DB	05H
	DB	01bH
	DB	011H
	DB	011H
	DB	011H
	DB	011H
	DB	01bH
	DB	05H
	DB	05H
	DB	05H
	DB	05H
	DB	05H
	DB	05H
	DB	05H
	DB	05H
	DB	011H
	DB	011H
	DB	011H
	DB	011H
	DB	01bH
	DB	05H
	DB	05H
	DB	05H
	DB	0d3H
	DB	011H
	DB	011H
	DB	011H
	DB	011H
	DB	011H
	DB	011H
	DB	011H
	DB	011H
	DB	011H
	DB	0d3H
	DB	04eH
	DB	05H
	DB	05H
	DB	01bH
	DB	011H
	DB	011H
	DB	011H
	DB	0d3H
	DB	05H
	DB	05H
	DB	05H
	DB	05H
	DB	05H
	DB	05H
	DB	05H
	DB	05H
	DB	05H
	DB	011H
	DB	011H
	DB	011H
	DB	011H
	DB	01bH
	DB	01bH
	DB	011H
	DB	011H
	DB	011H
	DB	011H
	DB	05H
	DB	05H
	DB	05H
	DB	05H
	DB	04eH
	DB	0d3H
	DB	011H
	DB	011H
	DB	011H
	DB	011H
	DB	011H
	DB	011H
	DB	011H
	DB	011H
	DB	011H
	DB	0d3H
	DB	04eH
	DB	011H
	DB	011H
	DB	011H
	DB	011H
	DB	01bH
	DB	05H
	DB	05H
	DB	05H
	DB	05H
	DB	05H
	DB	05H
	DB	05H
	DB	05H
	DB	05H
	DB	05H
	DB	05H
	DB	05H
	DB	01H
	DB	01bH
	DB	011H
	DB	011H
	DB	011H
	DB	011H
	DB	011H
	DB	011H
	DB	011H
	DB	011H
	DB	011H
	DB	011H
	DB	01bH
	DB	01H
	DB	05H
	DB	05H
	DB	05H
	DB	05H
	DB	05H
	DB	05H
	DB	05H
	DB	05H
	DB	05H
	DB	05H
	DB	0d3H
	DB	011H
	DB	011H
	DB	011H
	DB	01bH
	DB	05H
	DB	05H
	DB	05H
	DB	05H
	DB	0d3H
	DB	011H
	DB	011H
	DB	011H
	DB	0d3H
	DB	05H
	DB	05H
	DB	05H
	DB	05H
	DB	01bH
	DB	011H
	DB	011H
	DB	011H
	DB	0d3H
	DB	05H
	DB	05H
	DB	05H
	DB	05H
	DB	0d3H
	DB	011H
	DB	011H
	DB	011H
	DB	011H
	DB	011H
	DB	011H
	DB	011H
	DB	011H
	DB	011H
	DB	01bH
	DB	04eH
	DB	05H
	DB	05H
	DB	05H
	DB	0d3H
	DB	011H
	DB	011H
	DB	011H
	DB	01bH
	DB	05H
	DB	05H
	DB	05H
	DB	04eH
	DB	01bH
	DB	011H
	DB	011H
	DB	011H
	DB	011H
	DB	011H
	DB	011H
	DB	011H
	DB	011H
	DB	011H
	DB	011H
	DB	011H
	DB	011H
	DB	01bH
	DB	04eH
	DB	011H
	DB	011H
	DB	011H
	DB	011H
	DB	01bH
	DB	05H
	DB	05H
	DB	05H
	DB	05H
	DB	05H
	DB	05H
	DB	05H
	DB	05H
	DB	01bH
	DB	011H
	DB	011H
	DB	011H
	DB	011H
	DB	011H
	DB	011H
	DB	011H
	DB	011H
	DB	011H
	DB	011H
	DB	011H
	DB	011H
	DB	011H
	DB	011H
	DB	011H
	DB	011H
	DB	011H
	DB	011H
	DB	011H
	DB	0d3H
	DB	05H
	DB	05H
	DB	05H
	DB	05H
	DB	05H
	DB	05H
	DB	05H
	DB	05H
	DB	05H
	DB	05H
	DB	05H
	DB	05H
	DB	05H
	DB	05H
	DB	05H
	DB	05H
	DB	05H
	DB	05H
	DB	05H
	DB	05H
	DB	05H
	DB	05H
	DB	05H
	DB	05H
	DB	05H
	DB	05H
	DB	05H
	DB	05H
	DB	05H
	DB	05H
	DB	05H
	DB	05H
	DB	05H
	DB	05H
	DB	05H
	DB	05H
	DB	05H
	DB	05H
	DB	05H
	DB	05H
	DB	05H
	DB	05H
	DB	05H
	DB	05H
	DB	05H
	DB	05H
	DB	05H
	DB	05H
	DB	05H
	DB	05H
	DB	05H
	DB	05H
	DB	05H
	DB	05H
	DB	05H
	DB	05H
	DB	05H
	DB	05H
	DB	05H
	DB	05H
	DB	05H
	DB	05H
	DB	05H
	DB	05H
	DB	05H
	DB	05H
	DB	05H
	DB	04H
	DB	04H
	DB	04H
	DB	04H
	DB	04H
	DB	04H
	DB	04H
	DB	04H
	DB	04H
	DB	04H
	DB	04H
	DB	04H
	DB	04H
	DB	04H
	DB	04H
	DB	04H
	DB	04H
	DB	04H
	DB	04H
	DB	04H
	DB	04H
	DB	04H
	DB	04H
	DB	04H
	DB	04H
	DB	04H
	DB	04H
	DB	04H
	DB	04H
	DB	04H
	DB	04H
	DB	04H
	DB	04H
	DB	04H
	DB	04H
	DB	04H
	DB	04H
	DB	04H
	DB	04H
	DB	04H
	DB	04H
	DB	04H
	DB	04H
	DB	04H
	DB	04H
	DB	04H
	DB	04H
	DB	04H
	DB	04H
	DB	04H
	DB	04H
	DB	04H
	DB	04H
	DB	04H
	DB	04H
	DB	04H
	DB	04H
	DB	04H
	DB	04H
	DB	04H
	DB	09aH
	DB	013H
	DB	013H
	DB	013H
	DB	03eH
	DB	058H
	DB	04dH
	DB	05H
	DB	04H
	DB	04H
	DB	04H
	DB	05H
	DB	03dH
	DB	0caH
	DB	03eH
	DB	013H
	DB	013H
	DB	03eH
	DB	0deH
	DB	0dH
	DB	098H
	DB	0fH
	DB	093H
	DB	013H
	DB	013H
	DB	013H
	DB	013H
	DB	013H
	DB	013H
	DB	013H
	DB	013H
	DB	03eH
	DB	093H
	DB	059H
	DB	03dH
	DB	04dH
	DB	058H
	DB	03eH
	DB	013H
	DB	013H
	DB	0d5H
	DB	069H
	DB	05H
	DB	04H
	DB	04H
	DB	04H
	DB	04H
	DB	04H
	DB	05H
	DB	08H
	DB	0c5H
	DB	03eH
	DB	013H
	DB	013H
	DB	0cfH
	DB	0beH
	DB	03eH
	DB	013H
	DB	013H
	DB	03eH
	DB	0d0H
	DB	01bH
	DB	01bH
	DB	05aH
	DB	0c9H
	DB	066H
	DB	013H
	DB	013H
	DB	013H
	DB	013H
	DB	013H
	DB	013H
	DB	013H
	DB	013H
	DB	03eH
	DB	09eH
	DB	02dH
	DB	03bH
	DB	03eH
	DB	013H
	DB	013H
	DB	09bH
	DB	03dH
	DB	05H
	DB	04H
	DB	04H
	DB	04H
	DB	04H
	DB	04H
	DB	04H
	DB	04H
	DB	04H
	DB	05H
	DB	01bH
	DB	03cH
	DB	0ccH
	DB	0c8H
	DB	013H
	DB	013H
	DB	013H
	DB	013H
	DB	013H
	DB	013H
	DB	013H
	DB	013H
	DB	09eH
	DB	099H
	DB	097H
	DB	01bH
	DB	05H
	DB	04H
	DB	04H
	DB	04H
	DB	04H
	DB	04H
	DB	04H
	DB	05H
	DB	069H
	DB	0c7H
	DB	03eH
	DB	013H
	DB	03eH
	DB	092H
	DB	0cH
	DB	05H
	DB	05H
	DB	09cH
	DB	066H
	DB	013H
	DB	013H
	DB	03eH
	DB	0c6H
	DB	0cH
	DB	05H
	DB	05H
	DB	0dH
	DB	058H
	DB	03eH
	DB	013H
	DB	03eH
	DB	0c7H
	DB	09cH
	DB	01bH
	DB	097H
	DB	0cbH
	DB	0c8H
	DB	013H
	DB	013H
	DB	013H
	DB	013H
	DB	013H
	DB	013H
	DB	013H
	DB	013H
	DB	09eH
	DB	0c2H
	DB	03cH
	DB	01bH
	DB	05H
	DB	0cH
	DB	066H
	DB	013H
	DB	013H
	DB	03eH
	DB	092H
	DB	0cH
	DB	05H
	DB	0d1H
	DB	059H
	DB	0ceH
	DB	09eH
	DB	013H
	DB	013H
	DB	013H
	DB	013H
	DB	013H
	DB	013H
	DB	013H
	DB	013H
	DB	013H
	DB	013H
	DB	03eH
	DB	09bH
	DB	0bbH
	DB	013H
	DB	013H
	DB	013H
	DB	013H
	DB	09aH
	DB	04H
	DB	04H
	DB	04H
	DB	04H
	DB	04H
	DB	04H
	DB	04H
	DB	04H
	DB	099H
	DB	013H
	DB	013H
	DB	013H
	DB	013H
	DB	013H
	DB	013H
	DB	013H
	DB	013H
	DB	013H
	DB	013H
	DB	013H
	DB	013H
	DB	013H
	DB	013H
	DB	013H
	DB	013H
	DB	013H
	DB	013H
	DB	013H
	DB	0d4H
	DB	069H
	DB	05H
	DB	04H
	DB	04H
	DB	04H
	DB	04H
	DB	04H
	DB	04H
	DB	04H
	DB	04H
	DB	04H
	DB	04H
	DB	04H
	DB	04H
	DB	04H
	DB	04H
	DB	04H
	DB	04H
	DB	04H
	DB	04H
	DB	04H
	DB	04H
	DB	04H
	DB	04H
	DB	04H
	DB	04H
	DB	04H
	DB	04H
	DB	04H
	DB	04H
	DB	04H
	DB	04H
	DB	04H
	DB	04H
	DB	04H
	DB	04H
	DB	04H
	DB	04H
	DB	04H
	DB	04H
	DB	04H
	DB	04H
	DB	04H
	DB	04H
	DB	04H
	DB	04H
	DB	04H
	DB	04H
	DB	04H
	DB	04H
	DB	04H
	DB	04H
	DB	04H
	DB	04H
	DB	04H
	DB	04H
	DB	04H
	DB	04H
	DB	04H
	DB	04H
	DB	04H
	DB	04H
	DB	04H
	DB	04H
	DB	04H
	DB	04H
	DB	04H
	DB	04H
	DB	04H
	DB	04H
	DB	04H
	DB	04H
	DB	04H
	DB	04H
	DB	04H
	DB	04H
	DB	04H
	DB	04H
	DB	04H
	DB	04H
	DB	04H
	DB	04H
	DB	04H
	DB	04H
	DB	04H
	DB	04H
	DB	04H
	DB	04H
	DB	04H
	DB	04H
	DB	04H
	DB	04H
	DB	04H
	DB	04H
	DB	04H
	DB	04H
	DB	04H
	DB	04H
	DB	04H
	DB	04H
	DB	04H
	DB	04H
	DB	04H
	DB	04H
	DB	04H
	DB	04H
	DB	04H
	DB	04H
	DB	04H
	DB	04H
	DB	04H
	DB	04H
	DB	04H
	DB	04H
	DB	04H
	DB	04H
	DB	04H
	DB	04H
	DB	04H
	DB	04H
	DB	04H
	DB	04H
	DB	04H
	DB	04H
	DB	04H
	DB	04H
	DB	098H
	DB	0a3H
	DB	010H
	DB	010H
	DB	010H
	DB	03H
	DB	088H
	DB	04bH
	DB	01bH
	DB	04H
	DB	04H
	DB	04H
	DB	04H
	DB	067H
	DB	033H
	DB	03H
	DB	010H
	DB	010H
	DB	03H
	DB	04fH
	DB	08aH
	DB	0dcH
	DB	038H
	DB	024H
	DB	010H
	DB	010H
	DB	010H
	DB	010H
	DB	010H
	DB	010H
	DB	010H
	DB	010H
	DB	010H
	DB	024H
	DB	072H
	DB	0c0H
	DB	04bH
	DB	074H
	DB	03H
	DB	010H
	DB	03H
	DB	075H
	DB	07dH
	DB	03dH
	DB	04H
	DB	04H
	DB	04H
	DB	04H
	DB	04H
	DB	0d1H
	DB	0c4H
	DB	0f4H
	DB	03H
	DB	010H
	DB	01eH
	DB	0a8H
	DB	085H
	DB	03H
	DB	010H
	DB	03H
	DB	0f3H
	DB	066H
	DB	0cdH
	DB	02H
	DB	0a6H
	DB	061H
	DB	062H
	DB	010H
	DB	010H
	DB	010H
	DB	010H
	DB	010H
	DB	010H
	DB	010H
	DB	010H
	DB	03H
	DB	02cH
	DB	0b9H
	DB	0f8H
	DB	03H
	DB	010H
	DB	03H
	DB	035H
	DB	03cH
	DB	04H
	DB	04H
	DB	04H
	DB	04H
	DB	04H
	DB	04H
	DB	04H
	DB	04H
	DB	04H
	DB	05aH
	DB	08fH
	DB	036H
	DB	03fH
	DB	01dH
	DB	010H
	DB	010H
	DB	010H
	DB	010H
	DB	010H
	DB	010H
	DB	010H
	DB	010H
	DB	010H
	DB	052H
	DB	035H
	DB	02H
	DB	04H
	DB	04H
	DB	04H
	DB	04H
	DB	04H
	DB	04H
	DB	04H
	DB	03dH
	DB	07fH
	DB	0f5H
	DB	03H
	DB	010H
	DB	03H
	DB	033H
	DB	0b6H
	DB	04H
	DB	03dH
	DB	07eH
	DB	0f0H
	DB	03H
	DB	010H
	DB	03H
	DB	088H
	DB	056H
	DB	04H
	DB	04H
	DB	0fH
	DB	0e8H
	DB	03H
	DB	010H
	DB	03H
	DB	0ecH
	DB	041H
	DB	07dH
	DB	0e2H
	DB	02cH
	DB	01dH
	DB	010H
	DB	010H
	DB	010H
	DB	010H
	DB	010H
	DB	010H
	DB	010H
	DB	010H
	DB	010H
	DB	040H
	DB	0e3H
	DB	0bH
	DB	0d2H
	DB	0bdH
	DB	0f2H
	DB	03H
	DB	010H
	DB	03H
	DB	037H
	DB	0b6H
	DB	03cH
	DB	0c7H
	DB	072H
	DB	040H
	DB	010H
	DB	010H
	DB	010H
	DB	010H
	DB	010H
	DB	010H
	DB	010H
	DB	010H
	DB	010H
	DB	010H
	DB	010H
	DB	03H
	DB	0e7H
	DB	06bH
	DB	010H
	DB	010H
	DB	010H
	DB	010H
	DB	0d8H
	DB	05aH
	DB	04H
	DB	04H
	DB	04H
	DB	04H
	DB	04H
	DB	04H
	DB	067H
	DB	037H
	DB	03H
	DB	010H
	DB	010H
	DB	010H
	DB	010H
	DB	010H
	DB	010H
	DB	010H
	DB	010H
	DB	010H
	DB	010H
	DB	010H
	DB	010H
	DB	010H
	DB	010H
	DB	010H
	DB	010H
	DB	010H
	DB	03H
	DB	077H
	DB	07eH
	DB	03dH
	DB	04H
	DB	04H
	DB	04H
	DB	04H
	DB	04H
	DB	04H
	DB	04H
	DB	04H
	DB	04H
	DB	04H
	DB	04H
	DB	04H
	DB	04H
	DB	04H
	DB	04H
	DB	04H
	DB	04H
	DB	04H
	DB	04H
	DB	04H
	DB	04H
	DB	04H
	DB	04H
	DB	04H
	DB	04H
	DB	04H
	DB	04H
	DB	04H
	DB	04H
	DB	04H
	DB	04H
	DB	04H
	DB	04H
	DB	04H
	DB	04H
	DB	04H
	DB	04H
	DB	04H
	DB	04H
	DB	04H
	DB	04H
	DB	04H
	DB	04H
	DB	04H
	DB	04H
	DB	04H
	DB	04H
	DB	04H
	DB	04H
	DB	04H
	DB	04H
	DB	04H
	DB	04H
	DB	04H
	DB	04H
	DB	04H
	DB	04H
	DB	04H
	DB	04H
	DB	04H
	DB	04H
	DB	04H
	DB	04H
	DB	04H
	DB	04H
	DB	0dH
	DB	0dH
	DB	0dH
	DB	0dH
	DB	0dH
	DB	0dH
	DB	0dH
	DB	0dH
	DB	0dH
	DB	0dH
	DB	0dH
	DB	0dH
	DB	0dH
	DB	0dH
	DB	0dH
	DB	0dH
	DB	0dH
	DB	0dH
	DB	0dH
	DB	0dH
	DB	0dH
	DB	0dH
	DB	0dH
	DB	0dH
	DB	0dH
	DB	0dH
	DB	0dH
	DB	0dH
	DB	0dH
	DB	0dH
	DB	0dH
	DB	0dH
	DB	0dH
	DB	0dH
	DB	0dH
	DB	0dH
	DB	0dH
	DB	0dH
	DB	0dH
	DB	0dH
	DB	0dH
	DB	0dH
	DB	0dH
	DB	0dH
	DB	0dH
	DB	0dH
	DB	0dH
	DB	0dH
	DB	0dH
	DB	0dH
	DB	0dH
	DB	0dH
	DB	0dH
	DB	0dH
	DB	0dH
	DB	0dH
	DB	0dH
	DB	0dH
	DB	0dH
	DB	04dH
	DB	07fH
	DB	0fbH
	DB	03H
	DB	06H
	DB	03H
	DB	0edH
	DB	02dH
	DB	0cH
	DB	0dH
	DB	0dH
	DB	0dH
	DB	05aH
	DB	09fH
	DB	01dH
	DB	03H
	DB	06H
	DB	03H
	DB	05fH
	DB	019H
	DB	071H
	DB	06H
	DB	03H
	DB	03H
	DB	06H
	DB	06H
	DB	06H
	DB	06H
	DB	06H
	DB	06H
	DB	06H
	DB	06H
	DB	06H
	DB	03H
	DB	01eH
	DB	061H
	DB	03aH
	DB	029H
	DB	03H
	DB	06H
	DB	01eH
	DB	05eH
	DB	07bH
	DB	0cH
	DB	0dH
	DB	0dH
	DB	0dH
	DB	0dH
	DB	0dH
	DB	097H
	DB	0a4H
	DB	06H
	DB	03H
	DB	06H
	DB	03H
	DB	016H
	DB	072H
	DB	03H
	DB	06H
	DB	03H
	DB	0ebH
	DB	08aH
	DB	07eH
	DB	01fH
	DB	010H
	DB	03H
	DB	03H
	DB	06H
	DB	06H
	DB	06H
	DB	06H
	DB	06H
	DB	06H
	DB	06H
	DB	06H
	DB	03H
	DB	032H
	DB	0daH
	DB	06H
	DB	03H
	DB	06H
	DB	03H
	DB	09fH
	DB	042H
	DB	09cH
	DB	0dH
	DB	0dH
	DB	0dH
	DB	0dH
	DB	0dH
	DB	0dH
	DB	0dH
	DB	03cH
	DB	09eH
	DB	03fH
	DB	03H
	DB	03H
	DB	03H
	DB	06H
	DB	06H
	DB	06H
	DB	06H
	DB	06H
	DB	06H
	DB	06H
	DB	06H
	DB	06H
	DB	03H
	DB	03H
	DB	084H
	DB	042H
	DB	03dH
	DB	0dH
	DB	0dH
	DB	0dH
	DB	0dH
	DB	0dH
	DB	098H
	DB	09fH
	DB	06H
	DB	06H
	DB	06H
	DB	03H
	DB	0ddH
	DB	042H
	DB	09cH
	DB	04dH
	DB	058H
	DB	0fdH
	DB	06H
	DB	06H
	DB	03H
	DB	036H
	DB	04bH
	DB	09cH
	DB	0d1H
	DB	0bcH
	DB	023H
	DB	03H
	DB	06H
	DB	03H
	DB	05eH
	DB	03aH
	DB	077H
	DB	03H
	DB	03H
	DB	010H
	DB	06H
	DB	06H
	DB	06H
	DB	06H
	DB	06H
	DB	06H
	DB	06H
	DB	06H
	DB	06H
	DB	03H
	DB	03H
	DB	0adH
	DB	08cH
	DB	09eH
	DB	06H
	DB	06H
	DB	06H
	DB	010H
	DB	0a6H
	DB	08aH
	DB	0abH
	DB	0f5H
	DB	03H
	DB	03H
	DB	06H
	DB	06H
	DB	06H
	DB	06H
	DB	06H
	DB	06H
	DB	06H
	DB	06H
	DB	06H
	DB	06H
	DB	06H
	DB	03H
	DB	013H
	DB	0e6H
	DB	03H
	DB	06H
	DB	03H
	DB	034H
	DB	07cH
	DB	027H
	DB	0dH
	DB	0dH
	DB	0dH
	DB	0dH
	DB	0dH
	DB	04H
	DB	039H
	DB	077H
	DB	03H
	DB	06H
	DB	06H
	DB	06H
	DB	06H
	DB	06H
	DB	06H
	DB	06H
	DB	06H
	DB	06H
	DB	06H
	DB	06H
	DB	06H
	DB	06H
	DB	06H
	DB	06H
	DB	06H
	DB	06H
	DB	01eH
	DB	05eH
	DB	07bH
	DB	0cH
	DB	0dH
	DB	0dH
	DB	0dH
	DB	0dH
	DB	0dH
	DB	0dH
	DB	0dH
	DB	0dH
	DB	0dH
	DB	0dH
	DB	0dH
	DB	0dH
	DB	0dH
	DB	0dH
	DB	0dH
	DB	0dH
	DB	0dH
	DB	0dH
	DB	0dH
	DB	0dH
	DB	0dH
	DB	0dH
	DB	0dH
	DB	0dH
	DB	0dH
	DB	0dH
	DB	0dH
	DB	0dH
	DB	0dH
	DB	0dH
	DB	0dH
	DB	0dH
	DB	0dH
	DB	0dH
	DB	0dH
	DB	0dH
	DB	0dH
	DB	0dH
	DB	0dH
	DB	0dH
	DB	0dH
	DB	0dH
	DB	0dH
	DB	0dH
	DB	0dH
	DB	0dH
	DB	0dH
	DB	0dH
	DB	0dH
	DB	0dH
	DB	0dH
	DB	0dH
	DB	0dH
	DB	0dH
	DB	0dH
	DB	0dH
	DB	0dH
	DB	0dH
	DB	0dH
	DB	0dH
	DB	0dH
	DB	0dH
	DB	0dH
	DB	0dH
	DB	0dH
	DB	0cH
	DB	0cH
	DB	0cH
	DB	0cH
	DB	0cH
	DB	0cH
	DB	0cH
	DB	0cH
	DB	0cH
	DB	0cH
	DB	0cH
	DB	0cH
	DB	0cH
	DB	0cH
	DB	0cH
	DB	0cH
	DB	0cH
	DB	0cH
	DB	0cH
	DB	0cH
	DB	0cH
	DB	0cH
	DB	0cH
	DB	0cH
	DB	0cH
	DB	0cH
	DB	0cH
	DB	0cH
	DB	0cH
	DB	0cH
	DB	0cH
	DB	0cH
	DB	0cH
	DB	0cH
	DB	0cH
	DB	0cH
	DB	0cH
	DB	0cH
	DB	0cH
	DB	0cH
	DB	0cH
	DB	0cH
	DB	0cH
	DB	0cH
	DB	0cH
	DB	0cH
	DB	0cH
	DB	0cH
	DB	0cH
	DB	0cH
	DB	0cH
	DB	0cH
	DB	0cH
	DB	0cH
	DB	0cH
	DB	0cH
	DB	0cH
	DB	0cH
	DB	0cH
	DB	0cH
	DB	07dH
	DB	02cH
	DB	03H
	DB	06H
	DB	03H
	DB	0b0H
	DB	03aH
	DB	059H
	DB	0cH
	DB	0cH
	DB	04dH
	DB	039H
	DB	0e9H
	DB	03H
	DB	06H
	DB	03H
	DB	0b1H
	DB	090H
	DB	071H
	DB	01eH
	DB	06H
	DB	06H
	DB	03H
	DB	03H
	DB	03H
	DB	03H
	DB	03H
	DB	03H
	DB	03H
	DB	03H
	DB	03H
	DB	06H
	DB	06H
	DB	06H
	DB	063H
	DB	033H
	DB	034H
	DB	03H
	DB	06H
	DB	03H
	DB	06dH
	DB	01aH
	DB	08H
	DB	0cH
	DB	0cH
	DB	0cH
	DB	0cH
	DB	09cH
	DB	0b6H
	DB	036H
	DB	01eH
	DB	06H
	DB	03H
	DB	02aH
	DB	030H
	DB	029H
	DB	03H
	DB	06H
	DB	03H
	DB	087H
	DB	00H
	DB	038H
	DB	01eH
	DB	06H
	DB	06H
	DB	03H
	DB	03H
	DB	03H
	DB	03H
	DB	03H
	DB	03H
	DB	03H
	DB	03H
	DB	03H
	DB	01eH
	DB	080H
	DB	035H
	DB	01eH
	DB	06H
	DB	03H
	DB	023H
	DB	057H
	DB	039H
	DB	069H
	DB	09cH
	DB	0cH
	DB	0cH
	DB	0cH
	DB	0cH
	DB	09cH
	DB	05aH
	DB	0bfH
	DB	040H
	DB	03H
	DB	06H
	DB	06H
	DB	03H
	DB	03H
	DB	03H
	DB	03H
	DB	03H
	DB	03H
	DB	03H
	DB	03H
	DB	06H
	DB	06H
	DB	06H
	DB	03H
	DB	02aH
	DB	07fH
	DB	068H
	DB	09cH
	DB	0cH
	DB	0cH
	DB	0cH
	DB	0dH
	DB	096H
	DB	0abH
	DB	03H
	DB	06H
	DB	06H
	DB	048H
	DB	064H
	DB	039H
	DB	069H
	DB	03cH
	DB	0a4H
	DB	010H
	DB	06H
	DB	06H
	DB	03H
	DB	0a0H
	DB	04aH
	DB	08H
	DB	05aH
	DB	09eH
	DB	06H
	DB	06H
	DB	06H
	DB	06H
	DB	045H
	DB	0efH
	DB	01eH
	DB	06H
	DB	06H
	DB	03H
	DB	03H
	DB	03H
	DB	03H
	DB	03H
	DB	03H
	DB	03H
	DB	03H
	DB	03H
	DB	06H
	DB	06H
	DB	03H
	DB	02bH
	DB	0b7H
	DB	0aaH
	DB	03H
	DB	06H
	DB	06H
	DB	06H
	DB	0b8H
	DB	0a5H
	DB	03H
	DB	03H
	DB	06H
	DB	03H
	DB	03H
	DB	03H
	DB	03H
	DB	03H
	DB	03H
	DB	03H
	DB	03H
	DB	03H
	DB	03H
	DB	03H
	DB	03H
	DB	063H
	DB	049H
	DB	05fH
	DB	03H
	DB	06H
	DB	03H
	DB	01cH
	DB	09H
	DB	067H
	DB	069H
	DB	0cH
	DB	0cH
	DB	0cH
	DB	0cH
	DB	0cH
	DB	058H
	DB	02aH
	DB	03H
	DB	06H
	DB	06H
	DB	03H
	DB	03H
	DB	03H
	DB	03H
	DB	03H
	DB	03H
	DB	06H
	DB	06H
	DB	06H
	DB	06H
	DB	03H
	DB	03H
	DB	03H
	DB	03H
	DB	03H
	DB	01eH
	DB	06dH
	DB	01aH
	DB	0eH
	DB	0cH
	DB	0cH
	DB	0cH
	DB	0cH
	DB	0cH
	DB	0cH
	DB	0cH
	DB	0cH
	DB	0cH
	DB	0cH
	DB	0cH
	DB	0cH
	DB	0cH
	DB	0cH
	DB	0cH
	DB	0cH
	DB	0cH
	DB	0cH
	DB	0cH
	DB	0cH
	DB	0cH
	DB	0cH
	DB	0cH
	DB	0cH
	DB	0cH
	DB	0cH
	DB	0cH
	DB	0cH
	DB	0cH
	DB	0cH
	DB	0cH
	DB	0cH
	DB	0cH
	DB	0cH
	DB	0cH
	DB	0cH
	DB	0cH
	DB	0cH
	DB	0cH
	DB	0cH
	DB	0cH
	DB	0cH
	DB	0cH
	DB	0cH
	DB	0cH
	DB	0cH
	DB	0cH
	DB	0cH
	DB	0cH
	DB	0cH
	DB	0cH
	DB	0cH
	DB	0cH
	DB	0cH
	DB	0cH
	DB	0cH
	DB	0cH
	DB	0cH
	DB	0cH
	DB	0cH
	DB	0cH
	DB	0cH
	DB	0cH
	DB	0cH
	DB	0cH
	DB	069H
	DB	069H
	DB	069H
	DB	069H
	DB	069H
	DB	069H
	DB	069H
	DB	069H
	DB	069H
	DB	069H
	DB	069H
	DB	069H
	DB	069H
	DB	069H
	DB	069H
	DB	069H
	DB	069H
	DB	069H
	DB	069H
	DB	069H
	DB	069H
	DB	069H
	DB	069H
	DB	069H
	DB	069H
	DB	069H
	DB	069H
	DB	069H
	DB	069H
	DB	069H
	DB	069H
	DB	069H
	DB	069H
	DB	069H
	DB	069H
	DB	069H
	DB	069H
	DB	069H
	DB	069H
	DB	069H
	DB	069H
	DB	069H
	DB	069H
	DB	069H
	DB	069H
	DB	069H
	DB	069H
	DB	069H
	DB	069H
	DB	069H
	DB	069H
	DB	069H
	DB	069H
	DB	069H
	DB	069H
	DB	069H
	DB	069H
	DB	069H
	DB	069H
	DB	068H
	DB	04cH
	DB	072H
	DB	03H
	DB	06H
	DB	03H
	DB	02bH
	DB	091H
	DB	056H
	DB	069H
	DB	069H
	DB	042H
	DB	0ddH
	DB	03H
	DB	06H
	DB	06H
	DB	03H
	DB	0a9H
	DB	015H
	DB	03H
	DB	06H
	DB	06H
	DB	03H
	DB	02aH
	DB	017H
	DB	017H
	DB	017H
	DB	017H
	DB	017H
	DB	017H
	DB	017H
	DB	089H
	DB	03H
	DB	06H
	DB	06H
	DB	06H
	DB	053H
	DB	06H
	DB	06H
	DB	03H
	DB	0faH
	DB	094H
	DB	08aH
	DB	0eH
	DB	069H
	DB	069H
	DB	069H
	DB	069H
	DB	068H
	DB	0bH
	DB	01fH
	DB	03H
	DB	06H
	DB	03H
	DB	076H
	DB	0c1H
	DB	06H
	DB	06H
	DB	06H
	DB	03H
	DB	081H
	DB	04fH
	DB	03H
	DB	06H
	DB	06H
	DB	03H
	DB	024H
	DB	01cH
	DB	017H
	DB	017H
	DB	017H
	DB	017H
	DB	017H
	DB	017H
	DB	076H
	DB	017H
	DB	022H
	DB	01fH
	DB	03H
	DB	06H
	DB	03H
	DB	0ebH
	DB	07H
	DB	0bH
	DB	08H
	DB	069H
	DB	069H
	DB	069H
	DB	069H
	DB	069H
	DB	068H
	DB	0bH
	DB	01fH
	DB	03H
	DB	06H
	DB	06H
	DB	06H
	DB	02eH
	DB	061H
	DB	017H
	DB	017H
	DB	017H
	DB	017H
	DB	017H
	DB	077H
	DB	01dH
	DB	06H
	DB	06H
	DB	03H
	DB	01dH
	DB	06bH
	DB	08dH
	DB	069H
	DB	069H
	DB	069H
	DB	069H
	DB	069H
	DB	054H
	DB	021H
	DB	03H
	DB	06H
	DB	03H
	DB	02eH
	DB	08bH
	DB	039H
	DB	08H
	DB	04bH
	DB	032H
	DB	03H
	DB	06H
	DB	03H
	DB	024H
	DB	0b7H
	DB	041H
	DB	08H
	DB	042H
	DB	0aaH
	DB	03H
	DB	06H
	DB	06H
	DB	01dH
	DB	0eeH
	DB	03H
	DB	06H
	DB	06H
	DB	03H
	DB	029H
	DB	038H
	DB	017H
	DB	017H
	DB	017H
	DB	017H
	DB	017H
	DB	018H
	DB	0fcH
	DB	06H
	DB	06H
	DB	06H
	DB	03H
	DB	095H
	DB	071H
	DB	03H
	DB	06H
	DB	03H
	DB	02eH
	DB	0c1H
	DB	023H
	DB	03H
	DB	06H
	DB	03H
	DB	063H
	DB	03fH
	DB	017H
	DB	017H
	DB	017H
	DB	017H
	DB	017H
	DB	017H
	DB	017H
	DB	017H
	DB	017H
	DB	018H
	DB	033H
	DB	020H
	DB	029H
	DB	03H
	DB	06H
	DB	01eH
	DB	028H
	DB	079H
	DB	02H
	DB	08H
	DB	069H
	DB	069H
	DB	069H
	DB	069H
	DB	096H
	DB	0a3H
	DB	048H
	DB	03H
	DB	06H
	DB	06H
	DB	03fH
	DB	038H
	DB	017H
	DB	017H
	DB	038H
	DB	02cH
	DB	06H
	DB	06H
	DB	06H
	DB	06H
	DB	029H
	DB	038H
	DB	017H
	DB	017H
	DB	01cH
	DB	038H
	DB	091H
	DB	04aH
	DB	0eH
	DB	069H
	DB	069H
	DB	069H
	DB	069H
	DB	069H
	DB	069H
	DB	069H
	DB	069H
	DB	069H
	DB	069H
	DB	069H
	DB	069H
	DB	069H
	DB	069H
	DB	069H
	DB	069H
	DB	069H
	DB	069H
	DB	069H
	DB	069H
	DB	069H
	DB	069H
	DB	069H
	DB	069H
	DB	069H
	DB	069H
	DB	069H
	DB	069H
	DB	069H
	DB	069H
	DB	069H
	DB	069H
	DB	069H
	DB	069H
	DB	069H
	DB	069H
	DB	069H
	DB	069H
	DB	069H
	DB	069H
	DB	069H
	DB	069H
	DB	069H
	DB	069H
	DB	069H
	DB	069H
	DB	069H
	DB	069H
	DB	069H
	DB	069H
	DB	069H
	DB	069H
	DB	069H
	DB	069H
	DB	069H
	DB	069H
	DB	069H
	DB	069H
	DB	069H
	DB	069H
	DB	069H
	DB	069H
	DB	069H
	DB	069H
	DB	069H
	DB	08H
	DB	08H
	DB	08H
	DB	08H
	DB	08H
	DB	08H
	DB	08H
	DB	08H
	DB	08H
	DB	08H
	DB	08H
	DB	08H
	DB	08H
	DB	08H
	DB	08H
	DB	08H
	DB	08H
	DB	08H
	DB	08H
	DB	08H
	DB	08H
	DB	08H
	DB	08H
	DB	08H
	DB	08H
	DB	08H
	DB	08H
	DB	08H
	DB	08H
	DB	08H
	DB	08H
	DB	08H
	DB	08H
	DB	08H
	DB	08H
	DB	08H
	DB	08H
	DB	08H
	DB	08H
	DB	08H
	DB	08H
	DB	08H
	DB	08H
	DB	08H
	DB	08H
	DB	08H
	DB	08H
	DB	08H
	DB	08H
	DB	08H
	DB	08H
	DB	08H
	DB	08H
	DB	08H
	DB	08H
	DB	08H
	DB	08H
	DB	08H
	DB	08H
	DB	08H
	DB	04bH
	DB	035H
	DB	03H
	DB	06H
	DB	06H
	DB	03H
	DB	06bH
	DB	054H
	DB	0eH
	DB	027H
	DB	02dH
	DB	03fH
	DB	03H
	DB	06H
	DB	03H
	DB	077H
	DB	025H
	DB	050H
	DB	03H
	DB	06H
	DB	03H
	DB	0b0H
	DB	020H
	DB	014H
	DB	0b2H
	DB	0b2H
	DB	0b2H
	DB	0b2H
	DB	0b2H
	DB	014H
	DB	06aH
	DB	03H
	DB	06H
	DB	06H
	DB	03H
	DB	03H
	DB	06H
	DB	06H
	DB	03H
	DB	040H
	DB	0b4H
	DB	041H
	DB	059H
	DB	027H
	DB	027H
	DB	027H
	DB	027H
	DB	03cH
	DB	0baH
	DB	029H
	DB	03H
	DB	06H
	DB	03H
	DB	087H
	DB	015H
	DB	03H
	DB	06H
	DB	06H
	DB	06H
	DB	0c1H
	DB	076H
	DB	03H
	DB	06H
	DB	03H
	DB	02eH
	DB	057H
	DB	014H
	DB	0b2H
	DB	0b2H
	DB	0b2H
	DB	0b2H
	DB	0b2H
	DB	0b2H
	DB	0b2H
	DB	014H
	DB	08bH
	DB	023H
	DB	03H
	DB	06H
	DB	03H
	DB	073H
	DB	014H
	DB	02H
	DB	0eH
	DB	08H
	DB	08H
	DB	08H
	DB	08H
	DB	08H
	DB	03cH
	DB	0bfH
	DB	0fcH
	DB	06H
	DB	06H
	DB	03H
	DB	073H
	DB	0b2H
	DB	014H
	DB	0b2H
	DB	0b2H
	DB	0b2H
	DB	0b2H
	DB	0b2H
	DB	00H
	DB	033H
	DB	03H
	DB	06H
	DB	03H
	DB	078H
	DB	091H
	DB	039H
	DB	0eH
	DB	08H
	DB	08H
	DB	08H
	DB	027H
	DB	0baH
	DB	077H
	DB	03H
	DB	06H
	DB	03H
	DB	021H
	DB	07H
	DB	0bH
	DB	08H
	DB	041H
	DB	051H
	DB	03H
	DB	06H
	DB	03H
	DB	0ebH
	DB	019H
	DB	039H
	DB	08H
	DB	054H
	DB	072H
	DB	03H
	DB	06H
	DB	06H
	DB	048H
	DB	06H
	DB	06H
	DB	06H
	DB	03H
	DB	012H
	DB	025H
	DB	014H
	DB	0b2H
	DB	0b2H
	DB	0b2H
	DB	0b2H
	DB	0b2H
	DB	00H
	DB	05eH
	DB	03H
	DB	06H
	DB	06H
	DB	03H
	DB	022H
	DB	0aeH
	DB	03H
	DB	06H
	DB	03H
	DB	012H
	DB	06eH
	DB	01eH
	DB	06H
	DB	03H
	DB	06H
	DB	044H
	DB	014H
	DB	0b2H
	DB	0b2H
	DB	0b2H
	DB	0b2H
	DB	0b2H
	DB	0b2H
	DB	0b2H
	DB	0b2H
	DB	0b2H
	DB	0b2H
	DB	014H
	DB	091H
	DB	048H
	DB	03H
	DB	06H
	DB	03H
	DB	06eH
	DB	014H
	DB	067H
	DB	027H
	DB	027H
	DB	027H
	DB	027H
	DB	027H
	DB	0b5H
	DB	070H
	DB	03H
	DB	06H
	DB	03H
	DB	0f9H
	DB	064H
	DB	00H
	DB	0b2H
	DB	0b2H
	DB	00H
	DB	0a2H
	DB	03H
	DB	06H
	DB	03H
	DB	06H
	DB	015H
	DB	00H
	DB	0b2H
	DB	0b2H
	DB	0b2H
	DB	0b2H
	DB	0b3H
	DB	0aH
	DB	0c9H
	DB	08H
	DB	08H
	DB	08H
	DB	08H
	DB	08H
	DB	08H
	DB	08H
	DB	08H
	DB	08H
	DB	08H
	DB	08H
	DB	08H
	DB	08H
	DB	08H
	DB	08H
	DB	08H
	DB	08H
	DB	08H
	DB	08H
	DB	08H
	DB	08H
	DB	08H
	DB	08H
	DB	08H
	DB	08H
	DB	08H
	DB	08H
	DB	08H
	DB	08H
	DB	08H
	DB	08H
	DB	08H
	DB	08H
	DB	08H
	DB	08H
	DB	08H
	DB	08H
	DB	08H
	DB	08H
	DB	08H
	DB	08H
	DB	08H
	DB	08H
	DB	08H
	DB	08H
	DB	08H
	DB	08H
	DB	08H
	DB	08H
	DB	08H
	DB	08H
	DB	08H
	DB	08H
	DB	08H
	DB	08H
	DB	08H
	DB	08H
	DB	08H
	DB	08H
	DB	08H
	DB	08H
	DB	08H
	DB	08H
	DB	08H
	DB	08H
	DB	0fH
	DB	0fH
	DB	0fH
	DB	0fH
	DB	0fH
	DB	0fH
	DB	0fH
	DB	0fH
	DB	0fH
	DB	0fH
	DB	0fH
	DB	0fH
	DB	0fH
	DB	0fH
	DB	0fH
	DB	0fH
	DB	0fH
	DB	0fH
	DB	0fH
	DB	0fH
	DB	0fH
	DB	0fH
	DB	0fH
	DB	0fH
	DB	0fH
	DB	0fH
	DB	0fH
	DB	0fH
	DB	0fH
	DB	0fH
	DB	0fH
	DB	0fH
	DB	0fH
	DB	0fH
	DB	0fH
	DB	0fH
	DB	0fH
	DB	0fH
	DB	0fH
	DB	0fH
	DB	0fH
	DB	0fH
	DB	0fH
	DB	0fH
	DB	0fH
	DB	0fH
	DB	0fH
	DB	0fH
	DB	0fH
	DB	0fH
	DB	0fH
	DB	0fH
	DB	0fH
	DB	0fH
	DB	0fH
	DB	0fH
	DB	0fH
	DB	0fH
	DB	0fH
	DB	0c9H
	DB	056H
	DB	0d9H
	DB	048H
	DB	03H
	DB	06H
	DB	03H
	DB	0a7H
	DB	08aH
	DB	0fH
	DB	054H
	DB	0acH
	DB	03H
	DB	06H
	DB	03H
	DB	0ffH
	DB	016H
	DB	014H
	DB	023H
	DB	03H
	DB	06H
	DB	03H
	DB	028H
	DB	00H
	DB	07H
	DB	0b4H
	DB	0b3H
	DB	0b3H
	DB	0b3H
	DB	0b3H
	DB	07H
	DB	036H
	DB	03H
	DB	06H
	DB	03H
	DB	053H
	DB	02bH
	DB	06H
	DB	06H
	DB	03H
	DB	051H
	DB	0b2H
	DB	09H
	DB	02dH
	DB	02dH
	DB	02dH
	DB	02dH
	DB	02dH
	DB	041H
	DB	043H
	DB	06H
	DB	06H
	DB	06H
	DB	03H
	DB	05cH
	DB	05eH
	DB	03H
	DB	06H
	DB	03H
	DB	02eH
	DB	026H
	DB	02aH
	DB	03H
	DB	06H
	DB	01eH
	DB	084H
	DB	00H
	DB	0b3H
	DB	09H
	DB	041H
	DB	041H
	DB	041H
	DB	041H
	DB	041H
	DB	041H
	DB	04aH
	DB	043H
	DB	06H
	DB	06H
	DB	06H
	DB	03H
	DB	06dH
	DB	079H
	DB	04cH
	DB	0fH
	DB	0fH
	DB	0fH
	DB	0fH
	DB	0fH
	DB	0c9H
	DB	056H
	DB	0dbH
	DB	010H
	DB	06H
	DB	06H
	DB	03H
	DB	016H
	DB	014H
	DB	0b4H
	DB	0b4H
	DB	0b3H
	DB	0b3H
	DB	0b3H
	DB	0b3H
	DB	02fH
	DB	0aeH
	DB	03H
	DB	06H
	DB	03H
	DB	061H
	DB	0b2H
	DB	0aH
	DB	0fH
	DB	0fH
	DB	0fH
	DB	0fH
	DB	042H
	DB	0c3H
	DB	024H
	DB	03H
	DB	06H
	DB	01eH
	DB	070H
	DB	014H
	DB	0bH
	DB	067H
	DB	08fH
	DB	029H
	DB	03H
	DB	06H
	DB	01eH
	DB	028H
	DB	014H
	DB	0bH
	DB	0fH
	DB	0aH
	DB	075H
	DB	03H
	DB	06H
	DB	06H
	DB	06H
	DB	06H
	DB	06H
	DB	06H
	DB	03H
	DB	0a1H
	DB	00H
	DB	0b4H
	DB	0b4H
	DB	0b3H
	DB	0b3H
	DB	0b3H
	DB	0b3H
	DB	08bH
	DB	051H
	DB	03H
	DB	06H
	DB	03H
	DB	0aeH
	DB	064H
	DB	023H
	DB	03H
	DB	06H
	DB	01eH
	DB	035H
	DB	028H
	DB	03H
	DB	06H
	DB	03H
	DB	029H
	DB	00H
	DB	01aH
	DB	09H
	DB	041H
	DB	0b3H
	DB	0b3H
	DB	0b3H
	DB	0b3H
	DB	0b3H
	DB	0b3H
	DB	0b3H
	DB	0b3H
	DB	014H
	DB	05cH
	DB	03H
	DB	06H
	DB	03H
	DB	0fcH
	DB	09dH
	DB	0b2H
	DB	055H
	DB	02dH
	DB	02dH
	DB	02dH
	DB	02dH
	DB	02dH
	DB	09H
	DB	012H
	DB	03H
	DB	06H
	DB	03H
	DB	077H
	DB	07H
	DB	01aH
	DB	09H
	DB	041H
	DB	079H
	DB	0acH
	DB	03H
	DB	06H
	DB	03H
	DB	089H
	DB	0b7H
	DB	01aH
	DB	09H
	DB	041H
	DB	041H
	DB	041H
	DB	0aH
	DB	04cH
	DB	0fH
	DB	0fH
	DB	0fH
	DB	0fH
	DB	0fH
	DB	0fH
	DB	0fH
	DB	0fH
	DB	0fH
	DB	0fH
	DB	0fH
	DB	0fH
	DB	0fH
	DB	0fH
	DB	0fH
	DB	0fH
	DB	0fH
	DB	0fH
	DB	0fH
	DB	0fH
	DB	0fH
	DB	0fH
	DB	0fH
	DB	0fH
	DB	0fH
	DB	0fH
	DB	0fH
	DB	0fH
	DB	0fH
	DB	0fH
	DB	0fH
	DB	0fH
	DB	0fH
	DB	0fH
	DB	0fH
	DB	0fH
	DB	0fH
	DB	0fH
	DB	0fH
	DB	0fH
	DB	0fH
	DB	0fH
	DB	0fH
	DB	0fH
	DB	0fH
	DB	0fH
	DB	0fH
	DB	0fH
	DB	0fH
	DB	0fH
	DB	0fH
	DB	0fH
	DB	0fH
	DB	0fH
	DB	0fH
	DB	0fH
	DB	0fH
	DB	0fH
	DB	0fH
	DB	0fH
	DB	0fH
	DB	0fH
	DB	0fH
	DB	0fH
	DB	0fH
	DB	0fH
	DB	02H
	DB	02H
	DB	02H
	DB	02H
	DB	02H
	DB	02H
	DB	02H
	DB	02H
	DB	02H
	DB	02H
	DB	02H
	DB	02H
	DB	02H
	DB	02H
	DB	02H
	DB	02H
	DB	02H
	DB	02H
	DB	02H
	DB	02H
	DB	02H
	DB	02H
	DB	02H
	DB	02H
	DB	02H
	DB	02H
	DB	02H
	DB	02H
	DB	02H
	DB	02H
	DB	02H
	DB	02H
	DB	02H
	DB	02H
	DB	02H
	DB	02H
	DB	02H
	DB	02H
	DB	02H
	DB	02H
	DB	02H
	DB	02H
	DB	02H
	DB	02H
	DB	02H
	DB	02H
	DB	02H
	DB	02H
	DB	02H
	DB	02H
	DB	02H
	DB	02H
	DB	02H
	DB	02H
	DB	02H
	DB	02H
	DB	02H
	DB	02H
	DB	02H
	DB	02H
	DB	04cH
	DB	0bfH
	DB	089H
	DB	03H
	DB	06H
	DB	03H
	DB	032H
	DB	01aH
	DB	039H
	DB	0bfH
	DB	089H
	DB	03H
	DB	06H
	DB	03H
	DB	028H
	DB	00H
	DB	065H
	DB	02bH
	DB	03H
	DB	06H
	DB	03H
	DB	047H
	DB	01cH
	DB	018H
	DB	018H
	DB	018H
	DB	018H
	DB	018H
	DB	01cH
	DB	02cH
	DB	063H
	DB	03H
	DB	03H
	DB	03H
	DB	073H
	DB	023H
	DB	03H
	DB	06H
	DB	03H
	DB	02aH
	DB	018H
	DB	018H
	DB	01cH
	DB	01cH
	DB	01cH
	DB	01cH
	DB	01cH
	DB	01cH
	DB	029H
	DB	06H
	DB	06H
	DB	06H
	DB	06H
	DB	022H
	DB	074H
	DB	03H
	DB	06H
	DB	03H
	DB	012H
	DB	0a1H
	DB	03H
	DB	06H
	DB	03H
	DB	06H
	DB	05bH
	DB	014H
	DB	0aH
	DB	04cH
	DB	04cH
	DB	04cH
	DB	04cH
	DB	04cH
	DB	04cH
	DB	02H
	DB	04aH
	DB	0a7H
	DB	03H
	DB	06H
	DB	06H
	DB	06H
	DB	022H
	DB	01aH
	DB	0bH
	DB	02H
	DB	02H
	DB	02H
	DB	02H
	DB	02H
	DB	0fH
	DB	08aH
	DB	032H
	DB	03H
	DB	06H
	DB	06H
	DB	06H
	DB	02cH
	DB	018H
	DB	018H
	DB	018H
	DB	018H
	DB	018H
	DB	018H
	DB	01cH
	DB	0b0H
	DB	03H
	DB	06H
	DB	03H
	DB	053H
	DB	030H
	DB	014H
	DB	0aH
	DB	02H
	DB	02H
	DB	02H
	DB	02H
	DB	04bH
	DB	05bH
	DB	03H
	DB	06H
	DB	03H
	DB	048H
	DB	0a2H
	DB	079H
	DB	0bH
	DB	056H
	DB	065H
	DB	048H
	DB	03H
	DB	06H
	DB	03H
	DB	044H
	DB	014H
	DB	0aH
	DB	08dH
	DB	0bfH
	DB	02aH
	DB	03H
	DB	06H
	DB	06H
	DB	06H
	DB	06H
	DB	06H
	DB	06H
	DB	06H
	DB	0efH
	DB	01cH
	DB	018H
	DB	018H
	DB	018H
	DB	018H
	DB	018H
	DB	01cH
	DB	052H
	DB	03H
	DB	06H
	DB	03H
	DB	063H
	DB	026H
	DB	095H
	DB	03H
	DB	06H
	DB	03H
	DB	06H
	DB	015H
	DB	02cH
	DB	03H
	DB	06H
	DB	03H
	DB	012H
	DB	014H
	DB	041H
	DB	04cH
	DB	04aH
	DB	033H
	DB	02cH
	DB	018H
	DB	018H
	DB	018H
	DB	018H
	DB	018H
	DB	018H
	DB	01cH
	DB	02eH
	DB	03H
	DB	06H
	DB	06H
	DB	048H
	DB	02cH
	DB	01cH
	DB	01cH
	DB	01cH
	DB	01cH
	DB	01cH
	DB	01cH
	DB	01cH
	DB	077H
	DB	0faH
	DB	06H
	DB	06H
	DB	03H
	DB	012H
	DB	014H
	DB	0aH
	DB	0bH
	DB	02H
	DB	01aH
	DB	060H
	DB	03H
	DB	06H
	DB	03H
	DB	02cH
	DB	0b2H
	DB	041H
	DB	0bH
	DB	04cH
	DB	04cH
	DB	04cH
	DB	02H
	DB	02H
	DB	02H
	DB	02H
	DB	02H
	DB	02H
	DB	02H
	DB	02H
	DB	02H
	DB	02H
	DB	02H
	DB	02H
	DB	02H
	DB	02H
	DB	02H
	DB	02H
	DB	02H
	DB	02H
	DB	02H
	DB	02H
	DB	02H
	DB	02H
	DB	02H
	DB	02H
	DB	02H
	DB	02H
	DB	02H
	DB	02H
	DB	02H
	DB	02H
	DB	02H
	DB	02H
	DB	02H
	DB	02H
	DB	02H
	DB	02H
	DB	02H
	DB	02H
	DB	02H
	DB	02H
	DB	02H
	DB	02H
	DB	02H
	DB	02H
	DB	02H
	DB	02H
	DB	02H
	DB	02H
	DB	02H
	DB	02H
	DB	02H
	DB	02H
	DB	02H
	DB	02H
	DB	02H
	DB	02H
	DB	02H
	DB	02H
	DB	02H
	DB	02H
	DB	02H
	DB	02H
	DB	02H
	DB	02H
	DB	02H
	DB	02H
	DB	02H
	DB	02H
	DB	0bH
	DB	0bH
	DB	0bH
	DB	0bH
	DB	0bH
	DB	0bH
	DB	0bH
	DB	0bH
	DB	0bH
	DB	0bH
	DB	0bH
	DB	0bH
	DB	0bH
	DB	0bH
	DB	0bH
	DB	0bH
	DB	0bH
	DB	0bH
	DB	0bH
	DB	0bH
	DB	0bH
	DB	0bH
	DB	0bH
	DB	0bH
	DB	0bH
	DB	0bH
	DB	0bH
	DB	0bH
	DB	0bH
	DB	0bH
	DB	0bH
	DB	0bH
	DB	0bH
	DB	0bH
	DB	0bH
	DB	0bH
	DB	0bH
	DB	0bH
	DB	0bH
	DB	0bH
	DB	0bH
	DB	0bH
	DB	0bH
	DB	0bH
	DB	0bH
	DB	0bH
	DB	0bH
	DB	0bH
	DB	0bH
	DB	0bH
	DB	0bH
	DB	0bH
	DB	0bH
	DB	0bH
	DB	0bH
	DB	0bH
	DB	0bH
	DB	0bH
	DB	0bH
	DB	0bH
	DB	02H
	DB	0b3H
	DB	03fH
	DB	03H
	DB	06H
	DB	03H
	DB	05fH
	DB	0b2H
	DB	079H
	DB	071H
	DB	03H
	DB	06H
	DB	03H
	DB	052H
	DB	07aH
	DB	00H
	DB	0dfH
	DB	03H
	DB	06H
	DB	06H
	DB	06H
	DB	03H
	DB	03H
	DB	03H
	DB	03H
	DB	03H
	DB	03H
	DB	03H
	DB	03H
	DB	03H
	DB	03H
	DB	03H
	DB	03H
	DB	086H
	DB	0d6H
	DB	01dH
	DB	03H
	DB	06H
	DB	06H
	DB	03H
	DB	03H
	DB	03H
	DB	03H
	DB	03H
	DB	03H
	DB	03H
	DB	03H
	DB	03H
	DB	03H
	DB	06H
	DB	06H
	DB	03H
	DB	023H
	DB	095H
	DB	047H
	DB	03H
	DB	06H
	DB	01eH
	DB	036H
	DB	04fH
	DB	01eH
	DB	06H
	DB	03H
	DB	089H
	DB	020H
	DB	01aH
	DB	0aH
	DB	0bH
	DB	0bH
	DB	0bH
	DB	0bH
	DB	0bH
	DB	0bH
	DB	02H
	DB	079H
	DB	071H
	DB	03H
	DB	06H
	DB	03H
	DB	023H
	DB	08bH
	DB	01aH
	DB	0bH
	DB	0bH
	DB	0bH
	DB	0bH
	DB	0bH
	DB	0bH
	DB	04cH
	DB	01aH
	DB	0eaH
	DB	03H
	DB	06H
	DB	06H
	DB	06H
	DB	03H
	DB	03H
	DB	03H
	DB	03H
	DB	03H
	DB	03H
	DB	03H
	DB	03H
	DB	03H
	DB	03H
	DB	01eH
	DB	0f7H
	DB	06cH
	DB	00H
	DB	0b3H
	DB	0aH
	DB	0bH
	DB	0bH
	DB	0bH
	DB	04cH
	DB	04aH
	DB	0e3H
	DB	03H
	DB	06H
	DB	03H
	DB	089H
	DB	02fH
	DB	01aH
	DB	0bH
	DB	04aH
	DB	05cH
	DB	03H
	DB	06H
	DB	03H
	DB	02bH
	DB	030H
	DB	079H
	DB	0aH
	DB	054H
	DB	09fH
	DB	03H
	DB	06H
	DB	06H
	DB	06H
	DB	06H
	DB	06H
	DB	06H
	DB	06H
	DB	06H
	DB	03H
	DB	03H
	DB	03H
	DB	03H
	DB	03H
	DB	03H
	DB	03H
	DB	03H
	DB	03H
	DB	03H
	DB	01eH
	DB	078H
	DB	05cH
	DB	00H
	DB	06fH
	DB	01eH
	DB	06H
	DB	03H
	DB	02aH
	DB	080H
	DB	089H
	DB	03H
	DB	06H
	DB	01eH
	DB	04fH
	DB	014H
	DB	0aH
	DB	04cH
	DB	055H
	DB	023H
	DB	01eH
	DB	03H
	DB	03H
	DB	03H
	DB	03H
	DB	03H
	DB	03H
	DB	03H
	DB	01dH
	DB	06H
	DB	06H
	DB	06H
	DB	06H
	DB	03H
	DB	03H
	DB	03H
	DB	03H
	DB	03H
	DB	03H
	DB	03H
	DB	03H
	DB	03H
	DB	03H
	DB	06H
	DB	06H
	DB	03H
	DB	06fH
	DB	014H
	DB	0aH
	DB	0bH
	DB	04cH
	DB	055H
	DB	040H
	DB	03H
	DB	06H
	DB	03H
	DB	087H
	DB	014H
	DB	041H
	DB	0bH
	DB	0bH
	DB	0bH
	DB	0bH
	DB	0bH
	DB	0bH
	DB	0bH
	DB	0bH
	DB	0bH
	DB	0bH
	DB	0bH
	DB	0bH
	DB	0bH
	DB	0bH
	DB	0bH
	DB	0bH
	DB	0bH
	DB	0bH
	DB	0bH
	DB	0bH
	DB	0bH
	DB	0bH
	DB	0bH
	DB	0bH
	DB	0bH
	DB	0bH
	DB	0bH
	DB	0bH
	DB	0bH
	DB	0bH
	DB	0bH
	DB	0bH
	DB	0bH
	DB	0bH
	DB	0bH
	DB	0bH
	DB	0bH
	DB	0bH
	DB	0bH
	DB	0bH
	DB	0bH
	DB	0bH
	DB	0bH
	DB	0bH
	DB	0bH
	DB	0bH
	DB	0bH
	DB	0bH
	DB	0bH
	DB	0bH
	DB	0bH
	DB	0bH
	DB	0bH
	DB	0bH
	DB	0bH
	DB	0bH
	DB	0bH
	DB	0bH
	DB	0bH
	DB	0bH
	DB	0bH
	DB	0bH
	DB	0bH
	DB	0bH
	DB	0bH
	DB	0bH
	DB	0bH
	DB	0bH
	DB	0bH
	DB	0bH
	DB	0bH
	DB	0bH
	DB	0aH
	DB	0aH
	DB	0aH
	DB	0aH
	DB	0aH
	DB	0aH
	DB	0aH
	DB	0aH
	DB	0aH
	DB	0aH
	DB	0aH
	DB	0aH
	DB	0aH
	DB	0aH
	DB	0aH
	DB	0aH
	DB	0aH
	DB	0aH
	DB	0aH
	DB	0aH
	DB	0aH
	DB	0aH
	DB	0aH
	DB	0aH
	DB	0aH
	DB	0aH
	DB	0aH
	DB	0aH
	DB	0aH
	DB	0aH
	DB	0aH
	DB	0aH
	DB	0aH
	DB	0aH
	DB	0aH
	DB	0aH
	DB	0aH
	DB	0aH
	DB	0aH
	DB	0aH
	DB	0aH
	DB	0aH
	DB	0aH
	DB	0aH
	DB	0aH
	DB	0aH
	DB	0aH
	DB	0aH
	DB	0aH
	DB	0aH
	DB	0aH
	DB	0aH
	DB	0aH
	DB	0aH
	DB	0aH
	DB	0aH
	DB	0aH
	DB	0aH
	DB	0aH
	DB	0aH
	DB	0aH
	DB	01aH
	DB	072H
	DB	03H
	DB	06H
	DB	03H
	DB	02eH
	DB	00H
	DB	065H
	DB	063H
	DB	03H
	DB	06H
	DB	03H
	DB	031H
	DB	00H
	DB	014H
	DB	087H
	DB	01eH
	DB	06H
	DB	06H
	DB	03H
	DB	01eH
	DB	01eH
	DB	01eH
	DB	01eH
	DB	01eH
	DB	01eH
	DB	01eH
	DB	01eH
	DB	01eH
	DB	01dH
	DB	018H
	DB	06cH
	DB	00H
	DB	06fH
	DB	01eH
	DB	06H
	DB	06H
	DB	03H
	DB	01eH
	DB	01eH
	DB	01eH
	DB	01eH
	DB	01eH
	DB	01eH
	DB	01eH
	DB	01eH
	DB	03H
	DB	06H
	DB	06H
	DB	06H
	DB	03H
	DB	01fH
	DB	0a0H
	DB	03H
	DB	06H
	DB	03H
	DB	03H
	DB	015H
	DB	021H
	DB	03H
	DB	06H
	DB	03H
	DB	03fH
	DB	014H
	DB	0b3H
	DB	0aH
	DB	0aH
	DB	0aH
	DB	0aH
	DB	0aH
	DB	0aH
	DB	0aH
	DB	039H
	DB	09H
	DB	01cH
	DB	03H
	DB	06H
	DB	03H
	DB	060H
	DB	0b2H
	DB	0b3H
	DB	0aH
	DB	0aH
	DB	0aH
	DB	0aH
	DB	0aH
	DB	0aH
	DB	041H
	DB	07cH
	DB	052H
	DB	03H
	DB	06H
	DB	06H
	DB	03H
	DB	01eH
	DB	01eH
	DB	01eH
	DB	01eH
	DB	01eH
	DB	01eH
	DB	01eH
	DB	01eH
	DB	03H
	DB	0f9H
	DB	012H
	DB	0b9H
	DB	00H
	DB	07H
	DB	09H
	DB	0aH
	DB	0aH
	DB	0aH
	DB	0aH
	DB	0aH
	DB	01aH
	DB	060H
	DB	03H
	DB	06H
	DB	03H
	DB	02cH
	DB	014H
	DB	0b3H
	DB	0aH
	DB	01aH
	DB	028H
	DB	03H
	DB	06H
	DB	03H
	DB	023H
	DB	049H
	DB	0b3H
	DB	0aH
	DB	08aH
	DB	035H
	DB	03H
	DB	06H
	DB	06H
	DB	06H
	DB	06H
	DB	06H
	DB	06H
	DB	06H
	DB	03H
	DB	01eH
	DB	01eH
	DB	01eH
	DB	01eH
	DB	01eH
	DB	01eH
	DB	01eH
	DB	01eH
	DB	03H
	DB	0f9H
	DB	01fH
	DB	022H
	DB	00H
	DB	014H
	DB	01fH
	DB	03H
	DB	06H
	DB	03H
	DB	018H
	DB	031H
	DB	03H
	DB	06H
	DB	06H
	DB	03H
	DB	016H
	DB	014H
	DB	041H
	DB	04aH
	DB	0d7H
	DB	0ffH
	DB	01eH
	DB	01eH
	DB	01eH
	DB	06H
	DB	06H
	DB	06H
	DB	06H
	DB	02bH
	DB	01dH
	DB	06H
	DB	06H
	DB	06H
	DB	03H
	DB	01eH
	DB	01eH
	DB	01eH
	DB	01eH
	DB	01eH
	DB	01eH
	DB	01eH
	DB	01eH
	DB	03H
	DB	06H
	DB	06H
	DB	06H
	DB	03H
	DB	030H
	DB	014H
	DB	041H
	DB	0aH
	DB	04aH
	DB	065H
	DB	034H
	DB	03H
	DB	06H
	DB	01eH
	DB	044H
	DB	014H
	DB	041H
	DB	0aH
	DB	0aH
	DB	0aH
	DB	0aH
	DB	0aH
	DB	0aH
	DB	0aH
	DB	0aH
	DB	0aH
	DB	0aH
	DB	0aH
	DB	0aH
	DB	0aH
	DB	0aH
	DB	0aH
	DB	0aH
	DB	0aH
	DB	0aH
	DB	0aH
	DB	0aH
	DB	0aH
	DB	0aH
	DB	0aH
	DB	0aH
	DB	0aH
	DB	0aH
	DB	0aH
	DB	0aH
	DB	0aH
	DB	0aH
	DB	0aH
	DB	0aH
	DB	0aH
	DB	0aH
	DB	0aH
	DB	0aH
	DB	0aH
	DB	0aH
	DB	0aH
	DB	0aH
	DB	0aH
	DB	0aH
	DB	0aH
	DB	0aH
	DB	0aH
	DB	0aH
	DB	0aH
	DB	0aH
	DB	0aH
	DB	0aH
	DB	0aH
	DB	0aH
	DB	0aH
	DB	0aH
	DB	0aH
	DB	0aH
	DB	0aH
	DB	0aH
	DB	0aH
	DB	0aH
	DB	0aH
	DB	0aH
	DB	0aH
	DB	0aH
	DB	0aH
	DB	0aH
	DB	0aH
	DB	0aH
	DB	0aH
	DB	0aH
	DB	0aH
	DB	0aH
	DB	041H
	DB	041H
	DB	041H
	DB	041H
	DB	041H
	DB	041H
	DB	041H
	DB	041H
	DB	041H
	DB	041H
	DB	041H
	DB	041H
	DB	041H
	DB	041H
	DB	041H
	DB	041H
	DB	041H
	DB	041H
	DB	041H
	DB	041H
	DB	041H
	DB	041H
	DB	041H
	DB	041H
	DB	041H
	DB	041H
	DB	041H
	DB	041H
	DB	041H
	DB	041H
	DB	041H
	DB	041H
	DB	041H
	DB	041H
	DB	041H
	DB	041H
	DB	041H
	DB	041H
	DB	041H
	DB	041H
	DB	041H
	DB	041H
	DB	041H
	DB	041H
	DB	041H
	DB	041H
	DB	041H
	DB	041H
	DB	041H
	DB	041H
	DB	041H
	DB	041H
	DB	041H
	DB	041H
	DB	041H
	DB	041H
	DB	041H
	DB	041H
	DB	041H
	DB	041H
	DB	041H
	DB	01aH
	DB	0a9H
	DB	03H
	DB	06H
	DB	03H
	DB	023H
	DB	049H
	DB	050H
	DB	03H
	DB	06H
	DB	03H
	DB	021H
	DB	00H
	DB	0b2H
	DB	019H
	DB	01cH
	DB	03H
	DB	06H
	DB	03H
	DB	076H
	DB	026H
	DB	016H
	DB	016H
	DB	016H
	DB	016H
	DB	016H
	DB	016H
	DB	016H
	DB	016H
	DB	022H
	DB	025H
	DB	00H
	DB	00H
	DB	012H
	DB	03H
	DB	06H
	DB	03H
	DB	029H
	DB	0a0H
	DB	016H
	DB	016H
	DB	016H
	DB	016H
	DB	016H
	DB	016H
	DB	09dH
	DB	05cH
	DB	0f9H
	DB	03H
	DB	06H
	DB	01eH
	DB	085H
	DB	05cH
	DB	01eH
	DB	06H
	DB	03H
	DB	024H
	DB	090H
	DB	029H
	DB	03H
	DB	06H
	DB	03H
	DB	028H
	DB	00H
	DB	0b3H
	DB	041H
	DB	041H
	DB	041H
	DB	041H
	DB	041H
	DB	041H
	DB	041H
	DB	04aH
	DB	03aH
	DB	023H
	DB	03H
	DB	06H
	DB	01eH
	DB	0e5H
	DB	00H
	DB	0b3H
	DB	041H
	DB	041H
	DB	041H
	DB	041H
	DB	041H
	DB	041H
	DB	01aH
	DB	065H
	DB	048H
	DB	03H
	DB	06H
	DB	03H
	DB	045H
	DB	030H
	DB	016H
	DB	016H
	DB	016H
	DB	016H
	DB	016H
	DB	016H
	DB	0a0H
	DB	016H
	DB	0b8H
	DB	00H
	DB	00H
	DB	07H
	DB	0b3H
	DB	09H
	DB	041H
	DB	041H
	DB	041H
	DB	041H
	DB	041H
	DB	019H
	DB	0b0H
	DB	03H
	DB	06H
	DB	03H
	DB	028H
	DB	00H
	DB	0b3H
	DB	041H
	DB	07H
	DB	018H
	DB	03H
	DB	06H
	DB	03H
	DB	038H
	DB	00H
	DB	0b3H
	DB	041H
	DB	07H
	DB	05fH
	DB	03H
	DB	06H
	DB	06H
	DB	06H
	DB	06H
	DB	06H
	DB	06H
	DB	03H
	DB	032H
	DB	030H
	DB	016H
	DB	016H
	DB	016H
	DB	016H
	DB	016H
	DB	016H
	DB	0a0H
	DB	016H
	DB	0b8H
	DB	00H
	DB	00H
	DB	07H
	DB	0b2H
	DB	029H
	DB	03H
	DB	06H
	DB	03H
	DB	028H
	DB	085H
	DB	01eH
	DB	06H
	DB	03H
	DB	023H
	DB	0b7H
	DB	079H
	DB	09H
	DB	09H
	DB	07cH
	DB	06bH
	DB	0a0H
	DB	016H
	DB	0a1H
	DB	029H
	DB	03H
	DB	06H
	DB	03H
	DB	024H
	DB	0fcH
	DB	06H
	DB	06H
	DB	03H
	DB	070H
	DB	095H
	DB	016H
	DB	016H
	DB	016H
	DB	016H
	DB	016H
	DB	016H
	DB	0c1H
	DB	050H
	DB	03H
	DB	06H
	DB	03H
	DB	024H
	DB	02fH
	DB	0b2H
	DB	09H
	DB	0aH
	DB	079H
	DB	044H
	DB	03H
	DB	06H
	DB	03H
	DB	06H
	DB	0c1H
	DB	014H
	DB	09H
	DB	041H
	DB	041H
	DB	041H
	DB	041H
	DB	041H
	DB	041H
	DB	041H
	DB	041H
	DB	041H
	DB	041H
	DB	041H
	DB	041H
	DB	041H
	DB	041H
	DB	041H
	DB	041H
	DB	041H
	DB	041H
	DB	041H
	DB	041H
	DB	041H
	DB	041H
	DB	041H
	DB	041H
	DB	041H
	DB	041H
	DB	041H
	DB	041H
	DB	041H
	DB	041H
	DB	041H
	DB	041H
	DB	041H
	DB	041H
	DB	041H
	DB	041H
	DB	041H
	DB	041H
	DB	041H
	DB	041H
	DB	041H
	DB	041H
	DB	041H
	DB	041H
	DB	041H
	DB	041H
	DB	041H
	DB	041H
	DB	041H
	DB	041H
	DB	041H
	DB	041H
	DB	041H
	DB	041H
	DB	041H
	DB	041H
	DB	041H
	DB	041H
	DB	041H
	DB	041H
	DB	041H
	DB	041H
	DB	041H
	DB	041H
	DB	041H
	DB	041H
	DB	041H
	DB	041H
	DB	041H
	DB	041H
	DB	041H
	DB	041H
	DB	09H
	DB	09H
	DB	09H
	DB	09H
	DB	09H
	DB	09H
	DB	09H
	DB	09H
	DB	09H
	DB	09H
	DB	09H
	DB	09H
	DB	09H
	DB	09H
	DB	09H
	DB	09H
	DB	09H
	DB	09H
	DB	09H
	DB	09H
	DB	09H
	DB	09H
	DB	09H
	DB	09H
	DB	09H
	DB	09H
	DB	09H
	DB	09H
	DB	09H
	DB	09H
	DB	09H
	DB	09H
	DB	09H
	DB	09H
	DB	09H
	DB	09H
	DB	09H
	DB	09H
	DB	09H
	DB	09H
	DB	09H
	DB	09H
	DB	09H
	DB	09H
	DB	09H
	DB	09H
	DB	09H
	DB	09H
	DB	09H
	DB	09H
	DB	09H
	DB	09H
	DB	09H
	DB	09H
	DB	09H
	DB	09H
	DB	09H
	DB	09H
	DB	09H
	DB	09H
	DB	09H
	DB	079H
	DB	016H
	DB	03H
	DB	06H
	DB	03H
	DB	02aH
	DB	028H
	DB	063H
	DB	06H
	DB	03H
	DB	089H
	DB	0b8H
	DB	00H
	DB	0b2H
	DB	020H
	DB	02bH
	DB	03H
	DB	06H
	DB	03H
	DB	05eH
	DB	00H
	DB	00H
	DB	00H
	DB	00H
	DB	00H
	DB	00H
	DB	00H
	DB	00H
	DB	00H
	DB	00H
	DB	00H
	DB	014H
	DB	049H
	DB	046H
	DB	03H
	DB	06H
	DB	03H
	DB	012H
	DB	00H
	DB	00H
	DB	00H
	DB	00H
	DB	00H
	DB	00H
	DB	00H
	DB	00H
	DB	030H
	DB	03H
	DB	06H
	DB	06H
	DB	03H
	DB	06cH
	DB	037H
	DB	03H
	DB	06H
	DB	03H
	DB	03fH
	DB	026H
	DB	034H
	DB	03H
	DB	06H
	DB	01eH
	DB	06eH
	DB	00H
	DB	014H
	DB	014H
	DB	079H
	DB	079H
	DB	079H
	DB	079H
	DB	079H
	DB	079H
	DB	014H
	DB	09dH
	DB	03H
	DB	06H
	DB	03H
	DB	06H
	DB	015H
	DB	00H
	DB	014H
	DB	079H
	DB	079H
	DB	079H
	DB	079H
	DB	079H
	DB	079H
	DB	014H
	DB	082H
	DB	01eH
	DB	06H
	DB	03H
	DB	0fcH
	DB	095H
	DB	00H
	DB	00H
	DB	00H
	DB	00H
	DB	00H
	DB	00H
	DB	00H
	DB	00H
	DB	00H
	DB	00H
	DB	00H
	DB	0b2H
	DB	0b3H
	DB	09H
	DB	09H
	DB	09H
	DB	09H
	DB	09H
	DB	09H
	DB	01aH
	DB	094H
	DB	078H
	DB	03H
	DB	06H
	DB	01eH
	DB	06eH
	DB	00H
	DB	014H
	DB	014H
	DB	019H
	DB	023H
	DB	03H
	DB	06H
	DB	03H
	DB	070H
	DB	00H
	DB	014H
	DB	014H
	DB	014H
	DB	029H
	DB	03H
	DB	06H
	DB	06H
	DB	03H
	DB	06H
	DB	06H
	DB	06H
	DB	03H
	DB	030H
	DB	00H
	DB	00H
	DB	00H
	DB	00H
	DB	00H
	DB	00H
	DB	00H
	DB	00H
	DB	00H
	DB	00H
	DB	00H
	DB	0b2H
	DB	079H
	DB	043H
	DB	034H
	DB	03H
	DB	06H
	DB	03H
	DB	04fH
	DB	021H
	DB	03H
	DB	06H
	DB	03H
	DB	077H
	DB	0b2H
	DB	014H
	DB	014H
	DB	079H
	DB	014H
	DB	014H
	DB	00H
	DB	00H
	DB	020H
	DB	089H
	DB	03H
	DB	06H
	DB	06H
	DB	0faH
	DB	048H
	DB	06H
	DB	03H
	DB	034H
	DB	064H
	DB	00H
	DB	00H
	DB	00H
	DB	00H
	DB	00H
	DB	00H
	DB	00H
	DB	00H
	DB	0eaH
	DB	03H
	DB	06H
	DB	03H
	DB	038H
	DB	025H
	DB	07H
	DB	09H
	DB	09H
	DB	014H
	DB	05eH
	DB	01eH
	DB	06H
	DB	03H
	DB	052H
	DB	02fH
	DB	014H
	DB	0b3H
	DB	09H
	DB	09H
	DB	09H
	DB	09H
	DB	09H
	DB	09H
	DB	09H
	DB	09H
	DB	09H
	DB	09H
	DB	09H
	DB	09H
	DB	09H
	DB	09H
	DB	09H
	DB	09H
	DB	09H
	DB	09H
	DB	09H
	DB	09H
	DB	09H
	DB	09H
	DB	09H
	DB	09H
	DB	09H
	DB	09H
	DB	09H
	DB	09H
	DB	09H
	DB	09H
	DB	09H
	DB	09H
	DB	09H
	DB	09H
	DB	09H
	DB	09H
	DB	09H
	DB	09H
	DB	09H
	DB	09H
	DB	09H
	DB	09H
	DB	09H
	DB	09H
	DB	09H
	DB	09H
	DB	09H
	DB	09H
	DB	09H
	DB	09H
	DB	09H
	DB	09H
	DB	09H
	DB	09H
	DB	09H
	DB	09H
	DB	09H
	DB	09H
	DB	09H
	DB	09H
	DB	09H
	DB	09H
	DB	09H
	DB	09H
	DB	09H
	DB	09H
	DB	09H
	DB	09H
	DB	09H
	DB	09H
	DB	09H
	DB	09H
	DB	0b3H
	DB	0b3H
	DB	0b3H
	DB	0b3H
	DB	0b3H
	DB	0b3H
	DB	0b3H
	DB	0b3H
	DB	0b3H
	DB	0b3H
	DB	0b3H
	DB	0b3H
	DB	0b3H
	DB	0b3H
	DB	0b3H
	DB	0b3H
	DB	0b3H
	DB	0b3H
	DB	0b3H
	DB	0b3H
	DB	0b3H
	DB	0b3H
	DB	0b3H
	DB	0b3H
	DB	0b3H
	DB	0b3H
	DB	0b3H
	DB	0b3H
	DB	0b3H
	DB	0b3H
	DB	0b3H
	DB	0b3H
	DB	0b3H
	DB	0b3H
	DB	0b3H
	DB	0b3H
	DB	0b3H
	DB	0b3H
	DB	0b3H
	DB	0b3H
	DB	0b3H
	DB	0b3H
	DB	0b3H
	DB	0b3H
	DB	0b3H
	DB	0b3H
	DB	0b3H
	DB	0b3H
	DB	0b3H
	DB	0b3H
	DB	0b3H
	DB	0b3H
	DB	0b3H
	DB	0b3H
	DB	0b3H
	DB	0b3H
	DB	0b3H
	DB	0b3H
	DB	0b3H
	DB	0b3H
	DB	0b3H
	DB	079H
	DB	057H
	DB	02aH
	DB	03H
	DB	06H
	DB	048H
	DB	053H
	DB	03H
	DB	06H
	DB	03H
	DB	0e1H
	DB	00H
	DB	0b2H
	DB	014H
	DB	030H
	DB	03H
	DB	06H
	DB	06H
	DB	03H
	DB	046H
	DB	06cH
	DB	015H
	DB	015H
	DB	015H
	DB	015H
	DB	015H
	DB	015H
	DB	015H
	DB	015H
	DB	015H
	DB	031H
	DB	095H
	DB	020H
	DB	06H
	DB	06H
	DB	06H
	DB	03H
	DB	035H
	DB	00H
	DB	07H
	DB	07H
	DB	07H
	DB	07H
	DB	07H
	DB	07H
	DB	014H
	DB	06eH
	DB	01eH
	DB	06H
	DB	03H
	DB	034H
	DB	022H
	DB	046H
	DB	03H
	DB	06H
	DB	03H
	DB	071H
	DB	015H
	DB	03H
	DB	03H
	DB	06H
	DB	03H
	DB	046H
	DB	081H
	DB	015H
	DB	06cH
	DB	06cH
	DB	06cH
	DB	06cH
	DB	06cH
	DB	06cH
	DB	06cH
	DB	05bH
	DB	037H
	DB	03H
	DB	06H
	DB	03H
	DB	0fcH
	DB	035H
	DB	080H
	DB	06cH
	DB	06cH
	DB	06cH
	DB	06cH
	DB	06cH
	DB	06cH
	DB	06cH
	DB	080H
	DB	021H
	DB	03H
	DB	06H
	DB	06H
	DB	03H
	DB	071H
	DB	080H
	DB	015H
	DB	015H
	DB	015H
	DB	015H
	DB	015H
	DB	015H
	DB	015H
	DB	015H
	DB	015H
	DB	031H
	DB	057H
	DB	07H
	DB	0b3H
	DB	0b3H
	DB	0b3H
	DB	0b3H
	DB	0b3H
	DB	0b3H
	DB	014H
	DB	081H
	DB	03H
	DB	03H
	DB	06H
	DB	03H
	DB	046H
	DB	081H
	DB	015H
	DB	080H
	DB	036H
	DB	01dH
	DB	03H
	DB	06H
	DB	03H
	DB	032H
	DB	05bH
	DB	015H
	DB	015H
	DB	04fH
	DB	078H
	DB	03H
	DB	06H
	DB	03H
	DB	034H
	DB	06H
	DB	06H
	DB	06H
	DB	03H
	DB	012H
	DB	080H
	DB	015H
	DB	015H
	DB	015H
	DB	015H
	DB	015H
	DB	015H
	DB	015H
	DB	015H
	DB	015H
	DB	031H
	DB	090H
	DB	014H
	DB	082H
	DB	03H
	DB	06H
	DB	06H
	DB	03H
	DB	080H
	DB	02cH
	DB	03H
	DB	06H
	DB	03H
	DB	01dH
	DB	0e4H
	DB	080H
	DB	06cH
	DB	06cH
	DB	06cH
	DB	06cH
	DB	015H
	DB	05bH
	DB	0e5H
	DB	03H
	DB	06H
	DB	06H
	DB	048H
	DB	0fcH
	DB	06H
	DB	06H
	DB	03H
	DB	046H
	DB	025H
	DB	014H
	DB	07H
	DB	07H
	DB	07H
	DB	07H
	DB	07H
	DB	014H
	DB	0b7H
	DB	0b0H
	DB	03H
	DB	06H
	DB	01eH
	DB	05eH
	DB	00H
	DB	07H
	DB	0b3H
	DB	01aH
	DB	019H
	DB	076H
	DB	03H
	DB	06H
	DB	03H
	DB	061H
	DB	00H
	DB	07H
	DB	0b3H
	DB	0b3H
	DB	0b3H
	DB	0b3H
	DB	0b3H
	DB	0b3H
	DB	0b3H
	DB	0b3H
	DB	0b3H
	DB	0b3H
	DB	0b3H
	DB	0b3H
	DB	0b3H
	DB	0b3H
	DB	0b3H
	DB	0b3H
	DB	0b3H
	DB	0b3H
	DB	0b3H
	DB	0b3H
	DB	0b3H
	DB	0b3H
	DB	0b3H
	DB	0b3H
	DB	0b3H
	DB	0b3H
	DB	0b3H
	DB	0b3H
	DB	0b3H
	DB	0b3H
	DB	0b3H
	DB	0b3H
	DB	0b3H
	DB	0b3H
	DB	0b3H
	DB	0b3H
	DB	0b3H
	DB	0b3H
	DB	0b3H
	DB	0b3H
	DB	0b3H
	DB	0b3H
	DB	0b3H
	DB	0b3H
	DB	0b3H
	DB	0b3H
	DB	0b3H
	DB	0b3H
	DB	0b3H
	DB	0b3H
	DB	0b3H
	DB	0b3H
	DB	0b3H
	DB	0b3H
	DB	0b3H
	DB	0b3H
	DB	0b3H
	DB	0b3H
	DB	0b3H
	DB	0b3H
	DB	0b3H
	DB	0b3H
	DB	0b3H
	DB	0b3H
	DB	0b3H
	DB	0b3H
	DB	0b3H
	DB	0b3H
	DB	0b3H
	DB	0b3H
	DB	0b3H
	DB	0b3H
	DB	0b3H
	DB	07H
	DB	07H
	DB	07H
	DB	07H
	DB	07H
	DB	07H
	DB	07H
	DB	07H
	DB	07H
	DB	07H
	DB	07H
	DB	07H
	DB	07H
	DB	07H
	DB	07H
	DB	07H
	DB	07H
	DB	07H
	DB	07H
	DB	07H
	DB	07H
	DB	07H
	DB	07H
	DB	07H
	DB	07H
	DB	07H
	DB	07H
	DB	07H
	DB	07H
	DB	07H
	DB	07H
	DB	07H
	DB	07H
	DB	07H
	DB	07H
	DB	07H
	DB	07H
	DB	07H
	DB	07H
	DB	07H
	DB	07H
	DB	07H
	DB	07H
	DB	07H
	DB	07H
	DB	07H
	DB	07H
	DB	07H
	DB	07H
	DB	07H
	DB	07H
	DB	07H
	DB	07H
	DB	07H
	DB	07H
	DB	07H
	DB	07H
	DB	07H
	DB	07H
	DB	07H
	DB	07H
	DB	0b2H
	DB	025H
	DB	077H
	DB	03H
	DB	06H
	DB	06H
	DB	03H
	DB	06H
	DB	03H
	DB	076H
	DB	025H
	DB	00H
	DB	0b2H
	DB	014H
	DB	057H
	DB	06H
	DB	03H
	DB	06H
	DB	06H
	DB	03H
	DB	01eH
	DB	01eH
	DB	01eH
	DB	01eH
	DB	01eH
	DB	01eH
	DB	01eH
	DB	01eH
	DB	01eH
	DB	01eH
	DB	01eH
	DB	012H
	DB	06aH
	DB	03H
	DB	06H
	DB	06H
	DB	03H
	DB	016H
	DB	00H
	DB	07H
	DB	07H
	DB	07H
	DB	07H
	DB	07H
	DB	07H
	DB	014H
	DB	012H
	DB	03H
	DB	06H
	DB	03H
	DB	02eH
	DB	08eH
	DB	024H
	DB	03H
	DB	06H
	DB	01eH
	DB	044H
	DB	022H
	DB	053H
	DB	03H
	DB	06H
	DB	06H
	DB	03H
	DB	01eH
	DB	01eH
	DB	01eH
	DB	01eH
	DB	01eH
	DB	01eH
	DB	01eH
	DB	01eH
	DB	01eH
	DB	01eH
	DB	03H
	DB	06H
	DB	06H
	DB	06H
	DB	06H
	DB	03H
	DB	01eH
	DB	01eH
	DB	01eH
	DB	01eH
	DB	01eH
	DB	01eH
	DB	01eH
	DB	01eH
	DB	0feH
	DB	012H
	DB	03H
	DB	06H
	DB	06H
	DB	06H
	DB	03H
	DB	01eH
	DB	01eH
	DB	01eH
	DB	01eH
	DB	01eH
	DB	01eH
	DB	01eH
	DB	01eH
	DB	01eH
	DB	01eH
	DB	01eH
	DB	081H
	DB	014H
	DB	07H
	DB	07H
	DB	07H
	DB	07H
	DB	07H
	DB	07H
	DB	014H
	DB	09dH
	DB	053H
	DB	03H
	DB	06H
	DB	06H
	DB	03H
	DB	01eH
	DB	01eH
	DB	01eH
	DB	01eH
	DB	06H
	DB	06H
	DB	06H
	DB	06H
	DB	03H
	DB	01eH
	DB	01eH
	DB	01eH
	DB	01eH
	DB	06H
	DB	06H
	DB	06H
	DB	01dH
	DB	021H
	DB	063H
	DB	06H
	DB	06H
	DB	06H
	DB	03H
	DB	01eH
	DB	01eH
	DB	01eH
	DB	01eH
	DB	01eH
	DB	01eH
	DB	01eH
	DB	01eH
	DB	01eH
	DB	01eH
	DB	01eH
	DB	0a5H
	DB	00H
	DB	086H
	DB	01eH
	DB	06H
	DB	03H
	DB	0b0H
	DB	0b8H
	DB	051H
	DB	03H
	DB	06H
	DB	06H
	DB	06H
	DB	01eH
	DB	01eH
	DB	01eH
	DB	01eH
	DB	01eH
	DB	01eH
	DB	01eH
	DB	01eH
	DB	03H
	DB	06H
	DB	06H
	DB	06H
	DB	01dH
	DB	034H
	DB	06H
	DB	06H
	DB	03H
	DB	060H
	DB	00H
	DB	0b2H
	DB	07H
	DB	07H
	DB	07H
	DB	07H
	DB	07H
	DB	014H
	DB	030H
	DB	03H
	DB	03H
	DB	06H
	DB	03H
	DB	083H
	DB	00H
	DB	07H
	DB	07H
	DB	014H
	DB	0b7H
	DB	0f9H
	DB	03H
	DB	06H
	DB	03H
	DB	05eH
	DB	00H
	DB	0b2H
	DB	07H
	DB	07H
	DB	07H
	DB	07H
	DB	07H
	DB	07H
	DB	07H
	DB	07H
	DB	07H
	DB	07H
	DB	07H
	DB	07H
	DB	07H
	DB	07H
	DB	07H
	DB	07H
	DB	07H
	DB	07H
	DB	07H
	DB	07H
	DB	07H
	DB	07H
	DB	07H
	DB	07H
	DB	07H
	DB	07H
	DB	07H
	DB	07H
	DB	07H
	DB	07H
	DB	07H
	DB	07H
	DB	07H
	DB	07H
	DB	07H
	DB	07H
	DB	07H
	DB	07H
	DB	07H
	DB	07H
	DB	07H
	DB	07H
	DB	07H
	DB	07H
	DB	07H
	DB	07H
	DB	07H
	DB	07H
	DB	07H
	DB	07H
	DB	07H
	DB	07H
	DB	07H
	DB	07H
	DB	07H
	DB	07H
	DB	07H
	DB	07H
	DB	07H
	DB	07H
	DB	07H
	DB	07H
	DB	07H
	DB	07H
	DB	07H
	DB	07H
	DB	07H
	DB	07H
	DB	07H
	DB	07H
	DB	07H
	DB	07H
	DB	07H
	DB	0b2H
	DB	0b2H
	DB	0b2H
	DB	0b2H
	DB	0b2H
	DB	0b2H
	DB	0b2H
	DB	0b2H
	DB	0b2H
	DB	0b2H
	DB	0b2H
	DB	0b2H
	DB	0b2H
	DB	0b2H
	DB	0b2H
	DB	0b2H
	DB	0b2H
	DB	0b2H
	DB	0b2H
	DB	0b2H
	DB	0b2H
	DB	0b2H
	DB	0b2H
	DB	0b2H
	DB	0b2H
	DB	0b2H
	DB	0b2H
	DB	0b2H
	DB	0b2H
	DB	0b2H
	DB	0b2H
	DB	0b2H
	DB	0b2H
	DB	0b2H
	DB	0b2H
	DB	0b2H
	DB	0b2H
	DB	0b2H
	DB	0b2H
	DB	0b2H
	DB	0b2H
	DB	0b2H
	DB	0b2H
	DB	0b2H
	DB	0b2H
	DB	0b2H
	DB	0b2H
	DB	0b2H
	DB	0b2H
	DB	0b2H
	DB	0b2H
	DB	0b2H
	DB	0b2H
	DB	0b2H
	DB	0b2H
	DB	0b2H
	DB	0b2H
	DB	0b2H
	DB	0b2H
	DB	0b2H
	DB	0b2H
	DB	0b2H
	DB	00H
	DB	012H
	DB	03H
	DB	06H
	DB	06H
	DB	06H
	DB	03H
	DB	053H
	DB	095H
	DB	00H
	DB	0b2H
	DB	0b2H
	DB	0b2H
	DB	014H
	DB	072H
	DB	01eH
	DB	06H
	DB	06H
	DB	06H
	DB	06H
	DB	06H
	DB	06H
	DB	06H
	DB	06H
	DB	06H
	DB	06H
	DB	06H
	DB	06H
	DB	06H
	DB	03H
	DB	083H
	DB	045H
	DB	03H
	DB	06H
	DB	03H
	DB	024H
	DB	07aH
	DB	00H
	DB	0b2H
	DB	0b2H
	DB	0b2H
	DB	0b2H
	DB	0b2H
	DB	0b2H
	DB	00H
	DB	02eH
	DB	03H
	DB	06H
	DB	03H
	DB	037H
	DB	015H
	DB	03H
	DB	03H
	DB	06H
	DB	03H
	DB	09dH
	DB	00H
	DB	051H
	DB	01eH
	DB	06H
	DB	06H
	DB	06H
	DB	06H
	DB	06H
	DB	06H
	DB	06H
	DB	06H
	DB	06H
	DB	06H
	DB	06H
	DB	06H
	DB	06H
	DB	06H
	DB	06H
	DB	06H
	DB	06H
	DB	06H
	DB	06H
	DB	06H
	DB	06H
	DB	06H
	DB	06H
	DB	06H
	DB	06H
	DB	06H
	DB	03H
	DB	02eH
	DB	022H
	DB	047H
	DB	01eH
	DB	06H
	DB	06H
	DB	06H
	DB	06H
	DB	06H
	DB	06H
	DB	06H
	DB	06H
	DB	06H
	DB	06H
	DB	06H
	DB	06H
	DB	03H
	DB	024H
	DB	020H
	DB	00H
	DB	0b2H
	DB	0b2H
	DB	0b2H
	DB	0b2H
	DB	0b2H
	DB	0b2H
	DB	0b2H
	DB	0b2H
	DB	051H
	DB	01eH
	DB	06H
	DB	06H
	DB	06H
	DB	06H
	DB	06H
	DB	06H
	DB	06H
	DB	06H
	DB	06H
	DB	06H
	DB	06H
	DB	06H
	DB	06H
	DB	06H
	DB	06H
	DB	06H
	DB	06H
	DB	06H
	DB	03H
	DB	047H
	DB	0c1H
	DB	0afH
	DB	03H
	DB	06H
	DB	06H
	DB	06H
	DB	06H
	DB	06H
	DB	06H
	DB	06H
	DB	06H
	DB	06H
	DB	06H
	DB	06H
	DB	06H
	DB	06H
	DB	048H
	DB	0b8H
	DB	00H
	DB	050H
	DB	03H
	DB	06H
	DB	03H
	DB	017H
	DB	00H
	DB	082H
	DB	03H
	DB	03H
	DB	06H
	DB	06H
	DB	06H
	DB	06H
	DB	06H
	DB	06H
	DB	06H
	DB	06H
	DB	06H
	DB	06H
	DB	06H
	DB	06H
	DB	06H
	DB	06H
	DB	034H
	DB	01dH
	DB	06H
	DB	06H
	DB	03H
	DB	070H
	DB	00H
	DB	0b2H
	DB	0b2H
	DB	0b2H
	DB	0b2H
	DB	0b2H
	DB	0b2H
	DB	00H
	DB	0a5H
	DB	01eH
	DB	06H
	DB	03H
	DB	034H
	DB	090H
	DB	00H
	DB	0b2H
	DB	0b2H
	DB	00H
	DB	016H
	DB	03H
	DB	06H
	DB	06H
	DB	03H
	DB	06cH
	DB	00H
	DB	0b2H
	DB	0b2H
	DB	0b2H
	DB	0b2H
	DB	0b2H
	DB	0b2H
	DB	0b2H
	DB	0b2H
	DB	0b2H
	DB	0b2H
	DB	0b2H
	DB	0b2H
	DB	0b2H
	DB	0b2H
	DB	0b2H
	DB	0b2H
	DB	0b2H
	DB	0b2H
	DB	0b2H
	DB	0b2H
	DB	0b2H
	DB	0b2H
	DB	0b2H
	DB	0b2H
	DB	0b2H
	DB	0b2H
	DB	0b2H
	DB	0b2H
	DB	0b2H
	DB	0b2H
	DB	0b2H
	DB	0b2H
	DB	0b2H
	DB	0b2H
	DB	0b2H
	DB	0b2H
	DB	0b2H
	DB	0b2H
	DB	0b2H
	DB	0b2H
	DB	0b2H
	DB	0b2H
	DB	0b2H
	DB	0b2H
	DB	0b2H
	DB	0b2H
	DB	0b2H
	DB	0b2H
	DB	0b2H
	DB	0b2H
	DB	0b2H
	DB	0b2H
	DB	0b2H
	DB	0b2H
	DB	0b2H
	DB	0b2H
	DB	0b2H
	DB	0b2H
	DB	0b2H
	DB	0b2H
	DB	0b2H
	DB	0b2H
	DB	0b2H
	DB	0b2H
	DB	0b2H
	DB	0b2H
	DB	0b2H
	DB	0b2H
	DB	0b2H
	DB	0b2H
	DB	0b2H
	DB	0b2H
	DB	0b2H
	DB	0b2H
	DB	0b2H
	DB	0b2H
	DB	0b2H
	DB	0b2H
	DB	0b2H
	DB	0b2H
	DB	0b2H
	DB	0b2H
	DB	0b2H
	DB	0b2H
	DB	0b2H
	DB	0b2H
	DB	0b2H
	DB	0b2H
	DB	0b2H
	DB	0b2H
	DB	0b2H
	DB	0b2H
	DB	0b2H
	DB	0b2H
	DB	0b2H
	DB	0b2H
	DB	0b2H
	DB	0b2H
	DB	0b2H
	DB	0b2H
	DB	0b2H
	DB	0b2H
	DB	0b2H
	DB	0b2H
	DB	0b2H
	DB	0b2H
	DB	0b2H
	DB	0b2H
	DB	0b2H
	DB	0b2H
	DB	0b2H
	DB	0b2H
	DB	0b2H
	DB	0b2H
	DB	0b2H
	DB	0b2H
	DB	0b2H
	DB	0b2H
	DB	0b2H
	DB	0b2H
	DB	0b2H
	DB	0b2H
	DB	0b2H
	DB	0b2H
	DB	0b2H
	DB	0b2H
	DB	0b2H
	DB	0b2H
	DB	0b2H
	DB	0b2H
	DB	0b2H
	DB	0b2H
	DB	0b2H
	DB	0b2H
	DB	0b2H
	DB	0b2H
	DB	00H
	DB	035H
	DB	01eH
	DB	03H
	DB	03H
	DB	03H
	DB	01eH
	DB	0adH
	DB	00H
	DB	00H
	DB	014H
	DB	0b2H
	DB	0b2H
	DB	00H
	DB	07aH
	DB	060H
	DB	03H
	DB	03H
	DB	03H
	DB	03H
	DB	03H
	DB	03H
	DB	03H
	DB	03H
	DB	03H
	DB	03H
	DB	03H
	DB	03H
	DB	03H
	DB	03H
	DB	090H
	DB	050H
	DB	01eH
	DB	03H
	DB	01eH
	DB	076H
	DB	025H
	DB	00H
	DB	014H
	DB	0b2H
	DB	0b2H
	DB	0b2H
	DB	0b2H
	DB	00H
	DB	08eH
	DB	0b1H
	DB	01eH
	DB	03H
	DB	01eH
	DB	06eH
	DB	0e4H
	DB	01eH
	DB	03H
	DB	01eH
	DB	0f6H
	DB	020H
	DB	00H
	DB	0b7H
	DB	018H
	DB	03H
	DB	03H
	DB	03H
	DB	03H
	DB	03H
	DB	03H
	DB	03H
	DB	03H
	DB	03H
	DB	03H
	DB	03H
	DB	03H
	DB	03H
	DB	03H
	DB	03H
	DB	03H
	DB	03H
	DB	03H
	DB	03H
	DB	03H
	DB	03H
	DB	03H
	DB	03H
	DB	03H
	DB	03H
	DB	03H
	DB	01eH
	DB	05fH
	DB	00H
	DB	016H
	DB	023H
	DB	01eH
	DB	03H
	DB	03H
	DB	03H
	DB	03H
	DB	03H
	DB	03H
	DB	03H
	DB	03H
	DB	03H
	DB	03H
	DB	03H
	DB	01eH
	DB	0afH
	DB	00H
	DB	00H
	DB	014H
	DB	0b2H
	DB	0b2H
	DB	0b2H
	DB	0b2H
	DB	0b2H
	DB	0b2H
	DB	00H
	DB	0b7H
	DB	018H
	DB	03H
	DB	03H
	DB	03H
	DB	03H
	DB	03H
	DB	03H
	DB	03H
	DB	03H
	DB	03H
	DB	03H
	DB	03H
	DB	03H
	DB	03H
	DB	03H
	DB	03H
	DB	03H
	DB	03H
	DB	03H
	DB	01eH
	DB	076H
	DB	00H
	DB	095H
	DB	0f1H
	DB	01eH
	DB	03H
	DB	03H
	DB	03H
	DB	03H
	DB	03H
	DB	03H
	DB	03H
	DB	03H
	DB	03H
	DB	03H
	DB	03H
	DB	01eH
	DB	0afH
	DB	025H
	DB	049H
	DB	0f7H
	DB	01eH
	DB	03H
	DB	01eH
	DB	071H
	DB	00H
	DB	00H
	DB	045H
	DB	0ffH
	DB	01eH
	DB	03H
	DB	03H
	DB	03H
	DB	03H
	DB	03H
	DB	03H
	DB	03H
	DB	03H
	DB	03H
	DB	03H
	DB	03H
	DB	03H
	DB	03H
	DB	02bH
	DB	03H
	DB	03H
	DB	03H
	DB	01eH
	DB	016H
	DB	00H
	DB	014H
	DB	0b2H
	DB	0b2H
	DB	0b2H
	DB	0b2H
	DB	0b2H
	DB	00H
	DB	072H
	DB	01eH
	DB	03H
	DB	01eH
	DB	023H
	DB	025H
	DB	00H
	DB	014H
	DB	0b2H
	DB	00H
	DB	036H
	DB	01eH
	DB	03H
	DB	01eH
	DB	03H
	DB	0b8H
	DB	00H
	DB	014H
	DB	0b2H
	DB	0b2H
	DB	0b2H
	DB	0b2H
	DB	0b2H
	DB	0b2H
	DB	0b2H
	DB	0b2H
	DB	0b2H
	DB	0b2H
	DB	0b2H
	DB	0b2H
	DB	0b2H
	DB	0b2H
	DB	0b2H
	DB	0b2H
	DB	0b2H
	DB	0b2H
	DB	0b2H
	DB	0b2H
	DB	0b2H
	DB	0b2H
	DB	0b2H
	DB	0b2H
	DB	0b2H
	DB	0b2H
	DB	0b2H
	DB	0b2H
	DB	0b2H
	DB	0b2H
	DB	0b2H
	DB	0b2H
	DB	0b2H
	DB	0b2H
	DB	0b2H
	DB	0b2H
	DB	0b2H
	DB	0b2H
	DB	0b2H
	DB	0b2H
	DB	0b2H
	DB	0b2H
	DB	0b2H
	DB	0b2H
	DB	0b2H
	DB	0b2H
	DB	0b2H
	DB	0b2H
	DB	0b2H
	DB	0b2H
	DB	0b2H
	DB	0b2H
	DB	0b2H
	DB	0b2H
	DB	0b2H
	DB	0b2H
	DB	0b2H
	DB	0b2H
	DB	0b2H
	DB	0b2H
	DB	0b2H
	DB	0b2H
	DB	0b2H
	DB	0b2H
	DB	0b2H
	DB	0b2H
	DB	0b2H
	DB	0b2H
	DB	0b2H
	DB	0b2H
	DB	0b2H
	DB	0b2H
	DB	0b2H
	DB	00H
	DB	00H
	DB	00H
	DB	00H
	DB	00H
	DB	00H
	DB	00H
	DB	00H
	DB	00H
	DB	00H
	DB	00H
	DB	00H
	DB	00H
	DB	00H
	DB	00H
	DB	00H
	DB	00H
	DB	00H
	DB	00H
	DB	00H
	DB	00H
	DB	00H
	DB	00H
	DB	00H
	DB	00H
	DB	00H
	DB	00H
	DB	00H
	DB	00H
	DB	00H
	DB	00H
	DB	00H
	DB	00H
	DB	00H
	DB	00H
	DB	00H
	DB	00H
	DB	00H
	DB	00H
	DB	00H
	DB	00H
	DB	00H
	DB	00H
	DB	00H
	DB	00H
	DB	00H
	DB	00H
	DB	00H
	DB	00H
	DB	00H
	DB	00H
	DB	00H
	DB	00H
	DB	00H
	DB	00H
	DB	00H
	DB	00H
	DB	00H
	DB	00H
	DB	00H
	DB	00H
	DB	00H
	DB	00H
	DB	090H
	DB	021H
	DB	021H
	DB	012H
	DB	01fH
	DB	033H
	DB	08bH
	DB	00H
	DB	00H
	DB	00H
	DB	00H
	DB	00H
	DB	00H
	DB	00H
	DB	0b2H
	DB	06aH
	DB	033H
	DB	021H
	DB	012H
	DB	012H
	DB	012H
	DB	012H
	DB	012H
	DB	012H
	DB	012H
	DB	012H
	DB	012H
	DB	021H
	DB	087H
	DB	02fH
	DB	086H
	DB	01fH
	DB	012H
	DB	05fH
	DB	0a5H
	DB	00H
	DB	00H
	DB	00H
	DB	00H
	DB	00H
	DB	00H
	DB	00H
	DB	00H
	DB	022H
	DB	012H
	DB	021H
	DB	012H
	DB	05fH
	DB	022H
	DB	06dH
	DB	05fH
	DB	012H
	DB	01fH
	DB	086H
	DB	025H
	DB	00H
	DB	00H
	DB	025H
	DB	015H
	DB	033H
	DB	021H
	DB	012H
	DB	012H
	DB	012H
	DB	012H
	DB	012H
	DB	012H
	DB	012H
	DB	012H
	DB	012H
	DB	012H
	DB	012H
	DB	012H
	DB	012H
	DB	012H
	DB	012H
	DB	012H
	DB	012H
	DB	012H
	DB	012H
	DB	012H
	DB	012H
	DB	012H
	DB	012H
	DB	05fH
	DB	06cH
	DB	00H
	DB	00H
	DB	08bH
	DB	05dH
	DB	072H
	DB	021H
	DB	012H
	DB	012H
	DB	012H
	DB	012H
	DB	012H
	DB	012H
	DB	012H
	DB	012H
	DB	012H
	DB	01fH
	DB	06eH
	DB	00H
	DB	00H
	DB	00H
	DB	00H
	DB	00H
	DB	00H
	DB	00H
	DB	00H
	DB	00H
	DB	00H
	DB	00H
	DB	025H
	DB	015H
	DB	033H
	DB	021H
	DB	012H
	DB	012H
	DB	012H
	DB	012H
	DB	012H
	DB	012H
	DB	012H
	DB	012H
	DB	012H
	DB	012H
	DB	012H
	DB	012H
	DB	012H
	DB	012H
	DB	012H
	DB	05fH
	DB	05dH
	DB	00H
	DB	00H
	DB	08bH
	DB	044H
	DB	073H
	DB	021H
	DB	012H
	DB	012H
	DB	012H
	DB	012H
	DB	012H
	DB	012H
	DB	012H
	DB	012H
	DB	012H
	DB	05fH
	DB	0e0H
	DB	00H
	DB	02fH
	DB	021H
	DB	021H
	DB	012H
	DB	01fH
	DB	06aH
	DB	00H
	DB	00H
	DB	00H
	DB	022H
	DB	045H
	DB	012H
	DB	021H
	DB	012H
	DB	012H
	DB	012H
	DB	012H
	DB	012H
	DB	012H
	DB	012H
	DB	012H
	DB	012H
	DB	012H
	DB	012H
	DB	073H
	DB	012H
	DB	012H
	DB	021H
	DB	072H
	DB	049H
	DB	00H
	DB	00H
	DB	00H
	DB	00H
	DB	00H
	DB	00H
	DB	00H
	DB	00H
	DB	045H
	DB	01fH
	DB	012H
	DB	01fH
	DB	085H
	DB	00H
	DB	00H
	DB	00H
	DB	00H
	DB	00H
	DB	06eH
	DB	05fH
	DB	012H
	DB	021H
	DB	028H
	DB	025H
	DB	00H
	DB	00H
	DB	00H
	DB	00H
	DB	00H
	DB	00H
	DB	00H
	DB	00H
	DB	00H
	DB	00H
	DB	00H
	DB	00H
	DB	00H
	DB	00H
	DB	00H
	DB	00H
	DB	00H
	DB	00H
	DB	00H
	DB	00H
	DB	00H
	DB	00H
	DB	00H
	DB	00H
	DB	00H
	DB	00H
	DB	00H
	DB	00H
	DB	00H
	DB	00H
	DB	00H
	DB	00H
	DB	00H
	DB	00H
	DB	00H
	DB	00H
	DB	00H
	DB	00H
	DB	00H
	DB	00H
	DB	00H
	DB	00H
	DB	00H
	DB	00H
	DB	00H
	DB	00H
	DB	00H
	DB	00H
	DB	00H
	DB	00H
	DB	00H
	DB	00H
	DB	00H
	DB	00H
	DB	00H
	DB	00H
	DB	00H
	DB	00H
	DB	00H
	DB	00H
	DB	00H
	DB	00H
	DB	00H
	DB	00H
	DB	00H
	DB	00H
	DB	00H
	DB	00H
	DB	00H
	DB	00H
	DB	00H
	DB	00H
	DB	00H
	DB	00H
	DB	00H
	DB	00H
	DB	00H
	DB	00H
	DB	00H
	DB	00H
	DB	00H
	DB	00H
	DB	00H
	DB	00H
	DB	00H
	DB	00H
	DB	00H
	DB	00H
	DB	00H
	DB	00H
	DB	00H
	DB	00H
	DB	00H
	DB	00H
	DB	00H
	DB	00H
	DB	00H
	DB	00H
	DB	00H
	DB	00H
	DB	00H
	DB	00H
	DB	00H
	DB	00H
	DB	00H
	DB	00H
	DB	00H
	DB	00H
	DB	00H
	DB	00H
	DB	00H
	DB	00H
	DB	00H
	DB	00H
	DB	00H
	DB	00H
	DB	00H
	DB	00H
	DB	00H
	DB	00H
	DB	00H
	DB	00H
	DB	00H
	DB	00H
	DB	00H
	DB	00H
	DB	00H
	DB	00H
	DB	00H
	DB	00H
	DB	00H
	DB	00H
	DB	00H
	DB	00H
	DB	00H
	DB	00H
	DB	00H
	DB	00H
	DB	00H
	DB	00H
	DB	00H
	DB	00H
	DB	00H
	DB	00H
	DB	00H
	DB	00H
	DB	00H
	DB	00H
	DB	00H
	DB	00H
	DB	00H
	DB	00H
	DB	00H
	DB	00H
	DB	00H
	DB	00H
	DB	00H
	DB	00H
	DB	00H
	DB	00H
	DB	00H
	DB	00H
	DB	00H
	DB	00H
	DB	00H
	DB	00H
	DB	00H
	DB	00H
	DB	00H
	DB	00H
	DB	00H
	DB	00H
	DB	00H
	DB	00H
	DB	00H
	DB	00H
	DB	00H
	DB	00H
	DB	00H
	DB	00H
	DB	00H
	DB	00H
	DB	00H
	DB	00H
	DB	00H
	DB	00H
	DB	00H
	DB	00H
	DB	00H
	DB	00H
	DB	00H
	DB	00H
	DB	00H
	DB	00H
	DB	00H
	DB	00H
	DB	00H
	DB	00H
	DB	00H
	DB	00H
	DB	00H
	DB	00H
	DB	00H
	DB	00H
	DB	00H
	DB	00H
	DB	00H
	DB	00H
	DB	00H
	DB	00H
	DB	00H
	DB	00H
	DB	00H
	DB	00H
	DB	00H
	DB	00H
	DB	00H
	DB	00H
	DB	00H
	DB	00H
	DB	00H
	DB	00H
	DB	00H
	DB	00H
	DB	00H
	DB	00H
	DB	00H
	DB	00H
	DB	00H
	DB	00H
	DB	00H
	DB	00H
	DB	00H
	DB	00H
	DB	00H
	DB	00H
	DB	00H
	DB	00H
	DB	00H
	DB	00H
	DB	00H
	DB	00H
	DB	00H
	DB	00H
	DB	00H
	DB	00H
	DB	00H
	DB	00H
	DB	00H
	DB	00H
	DB	00H
	DB	00H
	DB	00H
	DB	00H
	DB	00H
	DB	00H
	DB	00H
	DB	00H
	DB	00H
	DB	00H
	DB	00H
	DB	00H
	DB	00H
	DB	00H
	DB	00H
	DB	00H
	DB	00H
	DB	00H
	DB	00H
	DB	00H
	DB	00H
	DB	00H
	DB	00H
	DB	00H
	DB	00H
	DB	00H
	DB	00H
	DB	00H
	DB	00H
	DB	00H
	DB	00H
	DB	00H
	DB	00H
	DB	00H
	DB	00H
	DB	00H
	DB	00H
	DB	00H
	DB	00H
	DB	00H
	DB	00H
	DB	00H
	DB	00H
	DB	00H
	DB	00H
	DB	00H
	DB	00H
	DB	00H
	DB	00H
	DB	00H
	DB	00H
	DB	00H
	DB	00H
	DB	00H
	DB	00H
	DB	00H
	DB	00H
	DB	00H
	DB	00H
	DB	00H
	DB	00H
	DB	00H
	DB	00H
	DB	00H
	DB	00H
	DB	00H
	DB	00H
	DB	00H
	DB	00H
	DB	00H
	DB	00H
	DB	00H
	DB	00H
	DB	00H
	DB	00H
	DB	00H
	DB	00H
	DB	00H
	DB	00H
	DB	00H
	DB	00H
	DB	00H
	DB	00H
	DB	00H
	DB	00H
	DB	00H
	DB	00H
	DB	00H
	DB	00H
	DB	00H
	DB	00H
	DB	00H
	DB	00H
	DB	00H
	DB	00H
	DB	00H
	DB	00H
	DB	00H
	DB	00H
	DB	00H
	DB	00H
	DB	00H
	DB	00H
	DB	00H
	DB	00H
	DB	00H
	DB	00H
	DB	00H
	DB	00H
	DB	00H
	DB	00H
	DB	00H
	DB	00H
	DB	00H
	DB	00H
	DB	00H
	DB	00H
	DB	00H
	DB	00H
	DB	00H
	DB	00H
	DB	00H
	DB	00H
	DB	00H
	DB	00H
	DB	00H
	DB	00H
	DB	00H
	DB	00H
	DB	00H
	DB	00H
	DB	00H
	DB	00H
	DB	00H
	DB	00H
	DB	00H
	DB	00H
	DB	00H
	DB	00H
	DB	00H
	DB	00H
	DB	00H
	DB	00H
	DB	00H
	DB	00H
	DB	00H
	DB	00H
	DB	00H
	DB	00H
	DB	00H
	DB	00H
	DB	00H
	DB	00H
	DB	00H
	DB	00H
	DB	00H
	DB	00H
	DB	00H
	DB	00H
	DB	00H
	DB	00H
	DB	00H
	DB	00H
	DB	00H
	DB	00H
	DB	00H
	DB	00H
	DB	00H
	DB	00H
	DB	00H
	DB	00H
	DB	00H
	DB	00H
	DB	00H
	DB	00H
	DB	00H
	DB	00H
	DB	00H
	DB	00H
	DB	00H
	DB	00H
	DB	00H
	DB	00H
	DB	00H
	DB	00H
	DB	00H
	DB	00H
	DB	00H
	DB	00H
	DB	00H
	DB	00H
	DB	00H
	DB	00H
	DB	00H
	DB	00H
	DB	00H
	DB	00H
	DB	00H
	DB	00H
	DB	00H
	DB	00H
	DB	00H
	DB	00H
	DB	00H
	DB	00H
	DB	00H
	DB	00H
	DB	00H
	DB	00H
	DB	00H
	DB	00H
	DB	00H
	DB	00H
	DB	00H
	DB	00H
	DB	00H
	DB	00H
	DB	00H
	DB	00H
	DB	00H
	DB	00H
	DB	00H
	DB	00H
	DB	00H
	DB	00H
	DB	00H
	DB	00H
	DB	00H
	DB	00H
	DB	00H
	DB	00H
	DB	00H
	DB	00H
	DB	00H
	DB	00H
	DB	00H
	DB	00H
	DB	00H
	DB	00H
	DB	00H
	DB	00H
	DB	00H
	DB	00H
	DB	00H
	DB	00H
	DB	00H
	DB	00H
	DB	00H
	DB	00H
	DB	00H
	DB	00H
	DB	00H
	DB	00H
	DB	00H
	DB	00H
	DB	00H
	DB	00H
	DB	00H
	DB	00H
	DB	00H
	DB	00H
	DB	00H
	DB	00H
	DB	00H
	DB	00H
	DB	00H
	DB	00H
	DB	00H
	DB	00H
	DB	00H
	DB	00H
	DB	00H
	DB	00H
	DB	00H
	DB	00H
	DB	00H
	DB	00H
	DB	00H
	DB	00H
	DB	00H
	DB	00H
	DB	00H
	DB	00H
	DB	00H
	DB	00H
	DB	00H
	DB	00H
	DB	00H
	DB	00H
	DB	00H
	DB	00H
	DB	00H
	DB	00H
	DB	00H
	DB	00H
	DB	00H
	DB	00H
	DB	00H
	DB	00H
	DB	00H
	DB	00H
	DB	00H
	DB	00H
	DB	00H
	DB	00H
	DB	00H
	DB	00H
	DB	00H
	DB	00H
	DB	00H
	DB	00H
	DB	00H
	DB	00H
	DB	00H
	DB	00H
	DB	00H
	DB	00H
	DB	00H
	DB	00H
	DB	00H
	DB	00H
	DB	00H
	DB	00H
	DB	00H
	DB	00H
	DB	00H
	DB	00H
	DB	00H
	DB	00H
	DB	00H
	DB	00H
	DB	00H
	DB	00H
	DB	00H
	DB	00H
	DB	00H
	DB	00H
	DB	00H
	DB	00H
	DB	00H
	DB	00H
	DB	00H
	DB	00H
	DB	00H
	DB	00H
	DB	00H
	DB	00H
	DB	00H
	DB	00H
	DB	00H
	DB	00H
	DB	00H
	DB	00H
	DB	00H
	DB	00H
	DB	00H
	DB	00H
	DB	00H
	DB	00H
	DB	00H
	DB	00H
	DB	00H
	DB	00H
	DB	00H
	DB	00H
	DB	00H
	DB	00H
	DB	00H
	DB	00H
	DB	00H
	DB	00H
	DB	00H
	DB	00H
	DB	00H
	DB	00H
	DB	00H
	DB	00H
	DB	00H
	DB	00H
	DB	00H
	DB	00H
	DB	00H
	DB	00H
	DB	00H
	DB	00H
	DB	00H
	DB	00H
	DB	00H
	DB	00H
	DB	00H
	DB	00H
	DB	00H
	DB	00H
	DB	00H
	DB	00H
	DB	00H
	DB	00H
	DB	00H
	DB	00H
	DB	00H
	DB	00H
	DB	00H
	DB	00H
	DB	00H
	DB	00H
	DB	00H
	DB	00H
	DB	00H
	DB	00H
	DB	00H
	DB	00H
	DB	00H
	DB	00H
	DB	00H
	DB	00H
	DB	00H
	DB	00H
	DB	00H
	DB	00H
	DB	00H
	DB	00H
	DB	00H
	DB	00H
	DB	00H
	DB	00H
	DB	00H
	DB	00H
	DB	00H
	DB	00H
	DB	00H
	DB	00H
	DB	00H
	DB	00H
	DB	00H
	DB	00H
	DB	00H
	DB	00H
	DB	00H
	DB	00H
	DB	00H
	DB	00H
	DB	00H
	DB	00H
	DB	00H
	DB	00H
	DB	00H
	DB	00H
	DB	00H
	DB	00H
	DB	00H
	DB	00H
	DB	00H
	DB	00H
	DB	00H
	DB	00H
	DB	00H
	DB	00H
	DB	00H
	DB	00H
	DB	00H
	DB	00H
	DB	00H
	DB	00H
	DB	00H
	DB	00H
	DB	00H
	DB	00H
	DB	00H
	DB	00H
	DB	00H
	DB	00H
	DB	00H
	DB	00H
	DB	00H
	DB	00H
	DB	00H
	DB	00H
	DB	00H
	DB	00H
	DB	00H
	DB	00H
	DB	00H
	DB	00H
	DB	00H
	DB	00H
	DB	00H
	DB	00H
	DB	00H
	DB	00H
	DB	00H
	DB	00H
	DB	00H
	DB	00H
	DB	00H
	DB	00H
	DB	00H
	DB	00H
	DB	00H
	DB	00H
	DB	00H
	DB	00H
	DB	00H
	DB	00H
	DB	00H
	DB	00H
	DB	00H
	DB	00H
	DB	00H
	DB	00H
	DB	00H
	DB	00H
	DB	00H
	DB	00H
	DB	00H
	DB	00H
	DB	00H
	DB	00H
	DB	00H
	DB	00H
	DB	00H
	DB	00H
	DB	00H
	DB	00H
	DB	00H
	DB	00H
	DB	00H
	DB	00H
	DB	00H
	DB	00H
	DB	00H
	DB	00H
	DB	00H
	DB	00H
	DB	00H
	DB	00H
	DB	00H
	DB	00H
	DB	00H
	DB	00H
	DB	00H
	DB	00H
	DB	00H
	DB	00H
	DB	00H
	DB	00H
	DB	00H
	DB	00H
	DB	00H
	DB	00H
	DB	00H
	DB	00H
	DB	00H
	DB	00H
	DB	00H
	DB	00H
	DB	00H
	DB	00H
	DB	00H
	DB	00H
	DB	00H
	DB	00H
	DB	00H
	DB	00H
	DB	00H
	DB	00H
	DB	00H
	DB	00H
	DB	00H
	DB	00H
	DB	00H
	DB	00H
	DB	00H
	DB	00H
	DB	00H
	DB	00H
	DB	00H
	DB	00H
	DB	00H
	DB	00H
	DB	00H
	DB	00H
	DB	00H
	DB	00H
	DB	00H
	DB	00H
	DB	00H
	DB	00H
	DB	00H
	DB	00H
	DB	00H
	DB	00H
	DB	00H
	DB	00H
	DB	00H
	DB	00H
	DB	00H
	DB	00H
	DB	00H
	DB	00H
	DB	00H
	DB	00H
	DB	00H
	DB	00H
	DB	00H
	DB	00H
	DB	00H
	DB	00H
	DB	00H
	DB	00H
	DB	00H
	DB	00H
	DB	00H
	DB	00H
	DB	00H
	DB	00H
	DB	00H
	DB	00H
	DB	00H
	DB	00H
	DB	00H
	DB	00H
	DB	00H
	DB	00H
	DB	00H
	DB	00H
	DB	00H
	DB	00H
	DB	00H
	DB	00H
	DB	00H
	DB	00H
	DB	00H
	DB	00H
	DB	00H
	DB	00H
	DB	00H
	DB	00H
	DB	00H
	DB	00H
	DB	00H
	DB	00H
	DB	00H
	DB	00H
	DB	00H
	DB	00H
	DB	00H
	DB	00H
	DB	00H
	DB	00H
	DB	00H
	DB	00H
	DB	00H
	DB	00H
	DB	00H
	DB	00H
	DB	00H
	DB	00H
	DB	00H
	DB	00H
	DB	00H
	DB	00H
	DB	00H
	DB	00H
	DB	00H
	DB	00H
	DB	00H
	DB	00H
	DB	00H
	DB	00H
	DB	00H
	DB	00H
	DB	00H
	DB	00H
	DB	00H
	DB	00H
	DB	00H
	DB	00H
	DB	00H
	DB	00H
	DB	00H
	DB	00H
	DB	00H
	DB	00H
	DB	00H
	DB	00H
	DB	00H
	DB	00H
	DB	00H
	DB	00H
	DB	00H
	DB	00H
	DB	00H
	DB	00H
	DB	00H
	DB	00H
	DB	00H
	DB	00H
	DB	00H
	DB	00H
	DB	00H
	DB	00H
	DB	00H
	DB	00H
	DB	00H
	DB	00H
	DB	00H
	DB	00H
	DB	00H
	DB	00H
	DB	00H
	DB	00H
	DB	00H
	DB	00H
	DB	00H
	DB	00H
	DB	00H
	DB	00H
	DB	00H
	DB	00H
	DB	00H
	DB	00H
	DB	00H
	DB	00H
	DB	00H
	DB	00H
	DB	00H
	DB	00H
	DB	00H
	DB	00H
	DB	00H
	DB	00H
	DB	00H
	DB	00H
	DB	00H
	DB	00H
	DB	00H
	DB	00H
	DB	00H
	DB	00H
	DB	00H
	DB	00H
	DB	00H
	DB	00H
	DB	00H
	DB	00H
	DB	00H
	DB	00H
	DB	00H
	DB	00H
	DB	00H
	DB	00H
	DB	00H
	DB	00H
	DB	00H
	DB	00H
	DB	00H
	DB	00H
	DB	00H
	DB	00H
	DB	00H
	DB	00H
	DB	00H
	DB	00H
	DB	00H
	DB	00H
	DB	00H
	DB	00H
	DB	00H
	DB	00H
	DB	00H
	DB	00H
	DB	00H
	DB	00H
	DB	00H
	DB	00H
	DB	00H
	DB	00H
	DB	00H
	DB	00H
	DB	00H
	DB	00H
	DB	00H
	DB	00H
	DB	00H
	DB	00H
	DB	00H
	DB	00H
	DB	00H
	DB	00H
	DB	00H
	DB	00H
	DB	00H
	DB	00H
	DB	00H
	DB	00H
	DB	00H
	DB	00H
	DB	00H
	DB	00H
	DB	00H
	DB	00H
	DB	00H
	DB	00H
	DB	00H
	DB	00H
	DB	00H
	DB	00H
	DB	00H
	DB	00H
	DB	00H
	DB	00H
	DB	00H
	DB	00H
	DB	00H
	DB	00H
	DB	00H
	DB	00H
	DB	00H
	DB	00H
	DB	00H
	DB	00H
	DB	00H
	DB	00H
	DB	00H
	DB	00H
	DB	00H
	DB	00H
	DB	00H
	DB	00H
	DB	00H
	DB	00H
	DB	00H
	DB	00H
	DB	00H
	DB	00H
	DB	00H
	DB	00H
	DB	00H
	DB	00H
	DB	00H
	DB	00H
	DB	00H
	DB	00H
	DB	00H
	DB	00H
	DB	00H
	DB	00H
	DB	00H
	DB	00H
	DB	00H
	DB	00H
	DB	00H
	DB	00H
	DB	00H
	DB	00H
	DB	00H
	DB	00H
	DB	00H
	DB	00H
	DB	00H
	DB	00H
	DB	00H
	DB	00H
	DB	00H
	DB	00H
	DB	00H
	DB	00H
	DB	00H
	DB	00H
	DB	00H
	DB	00H
	DB	00H
	DB	00H
	DB	00H
	DB	00H
	DB	00H
	DB	00H
	DB	00H
	DB	00H
	DB	00H
	DB	00H
	DB	00H
	DB	00H
	DB	00H
	DB	00H
	DB	00H
	DB	00H
	DB	00H
	DB	00H
	DB	00H
	DB	00H
	DB	00H
	DB	00H
	DB	00H
	DB	00H
	DB	00H
	DB	00H
	DB	00H
	DB	00H
	DB	00H
	DB	00H
	DB	00H
	DB	00H
	DB	00H
	DB	00H
	DB	00H
	DB	00H
	DB	00H
	DB	00H
	DB	00H
	DB	00H
	DB	00H
	DB	00H
	DB	00H
	DB	00H
	DB	00H
	DB	00H
	DB	00H
	DB	00H
	DB	00H
	DB	00H
	DB	00H
	DB	00H
	DB	00H
	DB	00H
	DB	00H
	DB	00H
	DB	00H
	DB	00H
	DB	00H
	DB	00H
	DB	00H
	DB	00H
	DB	00H
	DB	00H
	DB	00H
	DB	00H
	DB	00H
	DB	00H
	DB	00H
	DB	00H
	DB	00H
	DB	00H
	DB	00H
	DB	00H
	DB	00H
	DB	00H
	DB	00H
	DB	00H
	DB	00H
	DB	00H
	DB	00H
	DB	00H
	DB	00H
	DB	00H
	DB	00H
	DB	00H
	DB	00H
	DB	00H
	DB	00H
	DB	00H
	DB	00H
	DB	00H
	DB	00H
	DB	00H
	DB	00H
	DB	00H
	DB	00H
	DB	00H
	DB	00H
	DB	00H
	DB	00H
	DB	00H
	DB	00H
	DB	00H
	DB	00H
	DB	00H
	DB	00H
	DB	00H
	DB	00H
	DB	00H
	DB	00H
	DB	00H
	DB	00H
	DB	00H
	DB	00H
	DB	00H
	DB	00H
	DB	00H
	DB	00H
	DB	00H
	DB	00H
	DB	00H
	DB	00H
	DB	00H
	DB	00H
	DB	00H
	DB	00H
	DB	00H
	DB	00H
	DB	00H
	DB	00H
	DB	00H
	DB	00H
	DB	00H
	DB	00H
	DB	00H
	DB	00H
	DB	00H
	DB	00H
	DB	00H
	DB	00H
	DB	00H
	DB	00H
	DB	00H
	DB	00H
	DB	00H
	DB	00H
	DB	00H
	DB	00H
	DB	00H
	DB	00H
	DB	00H
	DB	00H
	DB	00H
	DB	00H
	DB	00H
	DB	00H
	DB	00H
	DB	00H
	DB	00H
	DB	00H
	DB	00H
	DB	00H
	DB	00H
	DB	00H
	DB	00H
	DB	00H
	DB	00H
	DB	00H
	DB	00H
	DB	00H
	DB	00H
	DB	00H
	DB	00H
	DB	00H
	DB	00H
	DB	00H
	DB	00H
	DB	00H
	DB	00H
	DB	00H
	DB	00H
	DB	00H
	DB	00H
	DB	00H
	DB	00H
	DB	00H
	DB	00H
	DB	00H
	DB	00H
	DB	00H
	DB	00H
	DB	00H
	DB	00H
	DB	00H
	DB	00H
	DB	00H
	DB	00H
	DB	00H
	DB	00H
	DB	00H
	DB	00H
	DB	00H
	DB	00H
	DB	00H
	DB	00H
	DB	00H
	DB	00H
	DB	00H
	DB	00H
	DB	00H
	DB	00H
	DB	00H
	DB	00H
	DB	00H
	DB	00H
	DB	00H
	DB	00H
	DB	00H
	DB	00H
	DB	00H
	DB	00H
	DB	00H
	DB	00H
	DB	00H
	DB	00H
	DB	00H
	DB	00H
	DB	00H
	DB	00H
	DB	00H
	DB	00H
	DB	00H
	DB	00H
	DB	00H
	DB	00H
	DB	00H
	DB	00H
	DB	00H
	DB	00H
	DB	00H
	DB	00H
	DB	00H
	DB	00H
	DB	00H
	DB	00H
	DB	00H
	DB	00H
	DB	00H
	DB	00H
	DB	00H
	DB	00H
	DB	00H
	DB	00H
	DB	00H
	DB	00H
	DB	00H
	DB	00H
	DB	00H
	DB	00H
	DB	00H
	DB	00H
	DB	00H
	DB	00H
	DB	00H
	DB	00H
	DB	00H
	DB	00H
	DB	00H
	DB	00H
	DB	00H
	DB	00H
	DB	00H
	DB	00H
	DB	00H
	DB	00H
	DB	00H
	DB	00H
	DB	00H
	DB	00H
	DB	00H
	DB	00H
	DB	00H
	DB	00H
	DB	00H
	DB	00H
	DB	00H
	DB	00H
	DB	00H
	DB	00H
	DB	00H
	DB	00H
	DB	00H
	DB	00H
	DB	00H
	DB	00H
	DB	00H
	DB	00H
	DB	00H
	DB	00H
	DB	00H
	DB	00H
	DB	00H
	DB	00H
	DB	00H
	DB	00H
	DB	00H
	DB	00H
	DB	00H
	DB	00H
	DB	00H
	DB	00H
	DB	00H
	DB	00H
	DB	00H
	DB	00H
	DB	00H
	DB	00H
	DB	00H
	DB	00H
	DB	00H
	DB	00H
	DB	00H
	DB	00H
	DB	00H
	DB	00H
	DB	00H
	DB	00H
	DB	00H
	DB	00H
	DB	00H
	DB	00H
	DB	00H
	DB	00H
	DB	00H
	DB	00H
	DB	00H
	DB	00H
	DB	00H
	DB	00H
	DB	00H
	DB	00H
	DB	00H
	DB	00H
	DB	00H
	DB	00H
	DB	00H
	DB	00H
	DB	00H
	DB	00H
	DB	00H
	DB	00H
	DB	00H
	DB	00H
	DB	00H
	DB	00H
	DB	00H
	DB	00H
	DB	00H
	DB	00H
	DB	00H
	DB	00H
	DB	00H
	DB	00H
	DB	00H
	DB	00H
	DB	00H
	DB	00H
	DB	00H
	DB	00H
	DB	00H
	DB	00H
	DB	00H
	DB	00H
	DB	00H
	DB	00H
	DB	00H
	DB	00H
	DB	00H
	DB	00H
	DB	00H
	DB	00H
	DB	00H
	DB	00H
	DB	00H
	DB	00H
	DB	00H
	DB	00H
	DB	00H
	DB	00H
	DB	00H
	DB	00H
	DB	00H
	DB	00H
	DB	00H
	DB	00H
	DB	00H
	DB	00H
	DB	00H
	DB	00H
	DB	00H
	DB	00H
	DB	00H
	DB	00H
	DB	00H
	DB	00H
	DB	00H
	DB	00H
	DB	00H
	DB	00H
	DB	00H
	DB	00H
	DB	00H
	DB	00H
	DB	00H
	DB	00H
	DB	00H
	DB	00H
	DB	00H
	DB	00H
	DB	00H
	DB	00H
	DB	00H
	DB	00H
	DB	00H
	DB	00H
	DB	00H
	DB	00H
	DB	00H
	DB	00H
	DB	00H
	DB	00H
	DB	00H
	DB	00H
	DB	00H
	DB	00H
	DB	00H
	DB	00H
	DB	00H
	DB	00H
	DB	00H
	DB	00H
	DB	00H
	DB	00H
	DB	00H
	DB	00H
	DB	00H
	DB	00H
	DB	00H
	DB	00H
	DB	00H
	DB	00H
	DB	00H
	DB	00H
	DB	00H
	DB	00H
	DB	00H
	DB	00H
	DB	00H
	DB	00H
	DB	00H
	DB	00H
	DB	00H
	DB	00H
	DB	00H
	DB	00H
	DB	00H
	DB	00H
	DB	00H
	DB	00H
	DB	00H
	DB	00H
	DB	00H
	DB	00H
	DB	00H
	DB	00H
	DB	00H
	DB	00H
	DB	00H
	DB	00H
	DB	00H
	DB	00H
	DB	00H
	DB	00H
	DB	00H
	DB	00H
	DB	00H
	DB	00H
	DB	00H
	DB	00H
	DB	00H
	DB	00H
	DB	00H
	DB	00H
	DB	00H
	DB	00H
	DB	00H
	DB	00H
	DB	00H
	DB	00H
	DB	00H
	DB	00H
	DB	00H
	DB	00H
	DB	00H
	DB	00H
	DB	00H
	DB	00H
	DB	00H
	DB	00H
	DB	00H
	DB	00H
	DB	00H
	DB	00H
	DB	00H
	DB	00H
	DB	00H
	DB	00H
	DB	00H
	DB	00H
	DB	00H
	DB	00H
	DB	00H
	DB	00H
	DB	00H
	DB	00H
	DB	00H
	DB	00H
	DB	00H
	DB	00H
	DB	00H
	DB	00H
	DB	00H
	DB	00H
	DB	00H
	DB	00H
	DB	00H
	DB	00H
	DB	00H
	DB	00H
	DB	00H
	DB	00H
	DB	00H
	DB	00H
	DB	00H
	DB	00H
	DB	00H
	DB	00H
	DB	00H
	DB	00H
	DB	00H
	DB	00H
	DB	00H
	DB	00H
	DB	00H
	DB	00H
	DB	00H
	DB	00H
	DB	00H
	DB	00H
	DB	00H
	DB	00H
	DB	00H
	DB	00H
	DB	00H
	DB	00H
	DB	00H
	DB	00H
	DB	00H
	DB	00H
	DB	00H
	DB	00H
	DB	00H
	DB	00H
	DB	00H
	DB	00H
	DB	00H
	DB	00H
	DB	00H
	DB	00H
	DB	00H
	DB	00H
	DB	00H
	DB	00H
	DB	00H
	DB	00H
	DB	00H
	DB	00H
	DB	00H
	DB	00H
	DB	00H
	DB	00H
	DB	00H
	DB	00H
	DB	00H
	DB	00H
	DB	00H
	DB	00H
	DB	00H
	DB	00H
	DB	00H
	DB	00H
	DB	00H
	DB	00H
	DB	00H
	DB	00H
	DB	00H
	DB	00H
	DB	00H
	DB	00H
	DB	00H
	DB	00H
	DB	00H
	DB	00H
	DB	00H
	DB	00H
	DB	00H
	DB	00H
	DB	00H
	DB	00H
	DB	00H
	DB	00H
	DB	00H
	DB	00H
	DB	00H
	DB	00H
	DB	00H
	DB	00H
	DB	00H
	DB	00H
	DB	00H
	DB	00H
	DB	00H
	DB	00H
	DB	00H
	DB	00H
	DB	00H
	DB	00H
	DB	00H
	DB	00H
	DB	00H
	DB	00H
	DB	00H
	DB	00H
	DB	00H
	DB	00H
	DB	00H
	DB	00H
	DB	00H
	DB	00H
	DB	00H
	DB	00H
	DB	00H
	DB	00H
	DB	00H
	DB	00H
	DB	00H
	DB	00H
	DB	00H
	DB	00H
	DB	00H
	DB	00H
	DB	00H
	DB	00H
	DB	00H
	DB	00H
	DB	00H
	DB	00H
	DB	00H
	DB	00H
	DB	00H
	DB	00H
	DB	00H
	DB	00H
	DB	00H
	DB	00H
	DB	00H
	DB	00H
	DB	00H
	DB	00H
	DB	00H
	DB	00H
	DB	00H
	DB	00H
	DB	00H
	DB	00H
	DB	00H
	DB	00H
	DB	00H
	DB	00H
	DB	00H
	DB	00H
	DB	00H
	DB	00H
	DB	00H
	DB	00H
	DB	00H
	DB	00H
	DB	00H
	DB	00H
	DB	00H
	DB	00H
	DB	00H
	DB	00H
	DB	00H
	DB	00H
	DB	00H
	DB	00H
	DB	00H
	DB	00H
	DB	00H
	DB	00H
	DB	00H
	DB	00H
	DB	00H
	DB	00H
	DB	00H
	DB	00H
	DB	00H
	DB	00H
	DB	00H
	DB	00H
	DB	00H
	DB	00H
	DB	00H
	DB	00H
	DB	00H
	DB	00H
	DB	00H
	DB	00H
	DB	00H
	DB	00H
	DB	00H
	DB	00H
	DB	00H
	DB	00H
	DB	00H
	DB	00H
	DB	00H
	DB	00H
	DB	00H
	DB	00H
	DB	00H
	DB	00H
	DB	00H
	DB	00H
	DB	00H
	DB	00H
	DB	00H
	DB	00H
	DB	00H
	DB	00H
	DB	00H
	DB	00H
	DB	00H
	DB	00H
	DB	00H
	DB	00H
	DB	00H
	DB	00H
	DB	00H
	DB	00H
	DB	00H
	DB	00H
	DB	00H
	DB	00H
	DB	00H
	DB	00H
	DB	00H
	DB	00H
	DB	00H
	DB	00H
	DB	00H
	DB	00H
	DB	00H
	DB	00H
	DB	00H
	DB	00H
	DB	00H
	DB	00H
	DB	00H
	DB	00H
	DB	00H
	DB	00H
	DB	00H
	DB	00H
	DB	00H
	DB	00H
	DB	00H
	DB	00H
	DB	00H
	DB	00H
	DB	00H
	DB	00H
	DB	00H
	DB	00H
	DB	00H
	DB	00H
	DB	00H
	DB	00H
	DB	00H
	DB	00H
	DB	00H
	DB	00H
	DB	00H
	DB	00H
	DB	00H
	DB	00H
	DB	00H
	DB	00H
	DB	00H
	DB	00H
	DB	00H
	DB	00H
	DB	00H
	DB	00H
	DB	00H
	DB	00H
	DB	00H
	DB	00H
	DB	00H
	DB	00H
	DB	00H
	DB	00H
	DB	00H
	DB	00H
	DB	00H
	DB	00H
	DB	00H
	DB	00H
	DB	00H
	DB	00H
	DB	00H
	DB	00H
	DB	00H
	DB	00H
	DB	00H
	DB	00H
	DB	00H
	DB	00H
	DB	00H
	DB	00H
	DB	00H
	DB	00H
	DB	00H
	DB	00H
	DB	00H
	DB	00H
	DB	00H
	DB	00H
	DB	00H
	DB	00H
	DB	00H
	DB	00H
	DB	00H
	DB	00H
	DB	00H
	DB	00H
	DB	00H
	DB	00H
	DB	00H
	DB	00H
	DB	00H
	DB	00H
	DB	00H
	DB	00H
	DB	00H
	DB	00H
	DB	00H
	DB	00H
	DB	00H
	DB	00H
	DB	00H
	DB	00H
	DB	00H
	DB	00H
	DB	00H
	DB	00H
	DB	00H
	DB	00H
	DB	00H
	DB	00H
	DB	00H
	DB	00H
	DB	00H
	DB	00H
	DB	00H
	DB	00H
	DB	00H
	DB	00H
	DB	00H
	DB	00H
	DB	00H
	DB	00H
	DB	00H
	DB	00H
	DB	00H
	DB	00H
	DB	00H
	DB	00H
	DB	00H
	DB	00H
	DB	00H
	DB	00H
	DB	00H
	DB	00H
	DB	00H
	DB	00H
	DB	00H
	DB	00H
	DB	00H
	DB	00H
	DB	00H
	DB	00H
	DB	00H
	DB	00H
	DB	00H
	DB	00H
	DB	00H
	DB	00H
	DB	00H
	DB	00H
	DB	00H
	DB	00H
	DB	00H
	DB	00H
	DB	00H
	DB	00H
	DB	00H
	DB	00H
	DB	00H
	DB	00H
	DB	00H
	DB	00H
	DB	00H
	DB	00H
	DB	00H
	DB	00H
	DB	00H
	DB	00H
	DB	00H
	DB	00H
	DB	00H
	DB	00H
	DB	00H
	DB	00H
	DB	00H
	DB	00H
	DB	00H
	DB	00H
	DB	00H
	DB	00H
	DB	00H
	DB	00H
	DB	00H
	DB	00H
	DB	00H
	DB	00H
	DB	00H
	DB	00H
	DB	00H
	DB	00H
	DB	00H
	DB	00H
	DB	00H
	DB	00H
	DB	00H
	DB	00H
	DB	00H
	DB	00H
	DB	00H
	DB	00H
	DB	00H
	DB	00H
	DB	00H
	DB	00H
	DB	00H
	DB	00H
	DB	00H
	DB	00H
	DB	00H
	DB	00H
	DB	00H
	DB	00H
	DB	00H
	DB	00H
	DB	00H
	DB	00H
	DB	00H
	DB	00H
	DB	00H
	DB	00H
	DB	00H
	DB	00H
	DB	00H
	DB	00H
	DB	00H
	DB	00H
	DB	00H
	DB	00H
	DB	00H
	DB	00H
	DB	00H
	DB	00H
	DB	00H
	DB	00H
	DB	00H
	DB	00H
	DB	00H
	DB	00H
	DB	00H
	DB	00H
	DB	00H
	DB	00H
	DB	00H
	DB	00H
	DB	00H
	DB	00H
	DB	00H
	DB	00H
	DB	00H
	DB	00H
	DB	00H
	DB	00H
	DB	00H
	DB	00H
	DB	00H
	DB	00H
	DB	00H
	DB	00H
	DB	00H
	DB	00H
	DB	00H
	DB	00H
	DB	00H
	DB	00H
	DB	00H
	DB	00H
	DB	00H
	DB	00H
	DB	00H
	DB	00H
	DB	00H
	DB	00H
	DB	00H
	DB	00H
	DB	00H
	DB	00H
	DB	00H
	DB	00H
	DB	00H
	DB	00H
	DB	00H
	DB	00H
	DB	00H
	DB	00H
	DB	00H
	DB	00H
	DB	00H
	DB	00H
	DB	00H
	DB	00H
	DB	00H
	DB	00H
	DB	00H
	DB	00H
	DB	00H
	DB	00H
	DB	00H
	DB	00H
	DB	00H
	DB	00H
	DB	00H
	DB	00H
	DB	00H
	DB	00H
	DB	00H
	DB	00H
	DB	00H
	DB	00H
	DB	00H
	DB	00H
	DB	00H
	DB	00H
	DB	00H
	DB	00H
	DB	00H
	DB	00H
	DB	00H
	DB	00H
	DB	00H
	DB	00H
	DB	00H
	DB	00H
	DB	00H
	DB	00H
	DB	00H
	DB	00H
	DB	00H
	DB	00H
	DB	00H
	DB	00H
	DB	00H
	DB	00H
	DB	00H
	DB	00H
	DB	00H
	DB	00H
	DB	00H
	DB	00H
	DB	00H
	DB	00H
	DB	00H
	DB	00H
	DB	00H
	DB	00H
	DB	00H
	DB	00H
	DB	00H
	DB	00H
	DB	00H
	DB	00H
	DB	00H
	DB	00H
	DB	00H
	DB	00H
	DB	00H
	DB	00H
	DB	00H
	DB	00H
	DB	00H
	DB	00H
	DB	00H
	DB	00H
	DB	00H
	DB	00H
	DB	00H
	DB	00H
	DB	00H
	DB	00H
	DB	00H
	DB	00H
	DB	00H
	DB	00H
	DB	00H
	DB	00H
	DB	00H
	DB	00H
	DB	00H
	DB	00H
	DB	00H
	DB	00H
	DB	00H
	DB	00H
	DB	00H
	DB	00H
	DB	00H
	DB	00H
	DB	00H
	DB	00H
	DB	00H
	DB	00H
	DB	00H
	DB	00H
	DB	00H
	DB	00H
	DB	00H
	DB	00H
	DB	00H
	DB	00H
	DB	00H
	DB	00H
	DB	00H
	DB	00H
	DB	00H
	DB	00H
	DB	00H
	DB	00H
	DB	00H
	DB	00H
	DB	00H
	DB	00H
	DB	00H
	DB	00H
	DB	00H
	DB	00H
	DB	00H
	DB	00H
	DB	00H
	DB	00H
	DB	00H
	DB	00H
	DB	00H
	DB	00H
	DB	00H
	DB	00H
	DB	00H
	DB	00H
	DB	00H
	DB	00H
	DB	00H
	DB	00H
	DB	00H
	DB	00H
	DB	00H
	DB	00H
	DB	00H
	DB	00H
	DB	00H
	DB	00H
	DB	00H
	DB	00H
	DB	00H
	DB	00H
	DB	00H
	DB	00H
	DB	00H
	DB	00H
	DB	00H
	DB	00H
	DB	00H
	DB	00H
	DB	00H
	DB	00H
	DB	00H
	DB	00H
	DB	00H
	DB	00H
	DB	00H
	DB	00H
	DB	00H
	DB	00H
	DB	00H
	DB	00H
	DB	00H
	DB	00H
	DB	00H
	DB	00H
	DB	00H
	DB	00H
	DB	00H
	DB	00H
	DB	00H
	DB	00H
	DB	00H
	DB	00H
	DB	00H
	DB	00H
	DB	00H
	DB	00H
	DB	00H
	DB	00H
	DB	00H
	DB	00H
	DB	00H
	DB	00H
	DB	00H
	DB	00H
	DB	00H
	DB	00H
	DB	00H
	DB	00H
	DB	00H
	DB	00H
	DB	00H
	DB	00H
	DB	00H
	DB	00H
	DB	00H
	DB	00H
	DB	00H
	DB	00H
	DB	00H
	DB	00H
	DB	00H
	DB	00H
	DB	00H
	DB	00H
	DB	00H
	DB	00H
	DB	00H
	DB	00H
	DB	00H
	DB	00H
	DB	00H
	DB	00H
	DB	00H
	DB	00H
	DB	00H
	DB	00H
	DB	00H
	DB	00H
	DB	00H
	DB	00H
	DB	00H
	DB	00H
	DB	00H
	DB	00H
	DB	00H
	DB	00H
	DB	00H
	DB	00H
	DB	00H
	DB	00H
	DB	00H
	DB	00H
	DB	00H
	DB	00H
	DB	00H
	DB	00H
	DB	00H
	DB	00H
	DB	00H
	DB	00H
	DB	00H
	DB	00H
	DB	00H
	DB	00H
	DB	00H
	DB	00H
	DB	00H
	DB	00H
	DB	00H
	DB	00H
	DB	00H
	DB	00H
	DB	00H
	DB	00H
	DB	00H
	DB	00H
	DB	00H
	DB	00H
	DB	00H
	DB	00H
	DB	00H
	DB	00H
	DB	00H
	DB	00H
	DB	00H
	DB	00H
	DB	00H
	DB	00H
	DB	00H
	DB	00H
	DB	00H
	DB	00H
	DB	00H
	DB	00H
	DB	00H
	DB	00H
	DB	00H
	DB	00H
	DB	00H
	DB	00H
	DB	00H
	DB	00H
	DB	00H
	DB	00H
	DB	00H
	DB	00H
	DB	00H
	DB	00H
	DB	00H
	DB	00H
	DB	00H
	DB	00H
	DB	00H
	DB	00H
	DB	00H
	DB	00H
	DB	00H
	DB	00H
	DB	00H
	DB	00H
	DB	00H
	DB	00H
	DB	00H
	DB	00H
	DB	00H
	DB	00H
	DB	00H
	DB	00H
	DB	00H
	DB	00H
	DB	00H
	DB	00H
	DB	00H
	DB	00H
	DB	00H
	DB	00H
	DB	00H
	DB	00H
	DB	00H
	DB	00H
	DB	00H
	DB	00H
	DB	00H
	DB	00H
	DB	00H
	DB	00H
	DB	00H
	DB	00H
	DB	00H
	DB	00H
	DB	00H
	DB	00H
	DB	00H
	DB	00H
	DB	00H
	DB	00H
	DB	00H
	DB	00H
	DB	00H
	DB	00H
	DB	00H
	DB	00H
	DB	00H
	DB	00H
	DB	00H
	DB	00H
	DB	00H
	DB	00H
	DB	00H
	DB	00H
	DB	00H
	DB	00H
	DB	00H
	DB	00H
	DB	00H
	DB	00H
	DB	00H
	DB	00H
	DB	00H
	DB	00H
	DB	00H
	DB	00H
	DB	00H
	DB	00H
	DB	00H
	DB	00H
	DB	00H
	DB	00H
	DB	00H
	DB	00H
	DB	00H
	DB	00H
	DB	00H
	DB	00H
	DB	00H
	DB	00H
	DB	00H
	DB	00H
	DB	00H
	DB	00H
	DB	00H
	DB	00H
	DB	00H
	DB	00H
	DB	00H
	DB	00H
	DB	00H
	DB	00H
	DB	00H
	DB	00H
	DB	00H
	DB	00H
	DB	00H
	DB	00H
	DB	00H
	DB	00H
	DB	00H
	DB	00H
	DB	00H
	DB	00H
	DB	00H
	DB	00H
	DB	00H
	DB	00H
	DB	00H
	DB	00H
	DB	00H
	DB	00H
	DB	00H
	DB	00H
	DB	00H
	DB	00H
	DB	00H
	DB	00H
	DB	00H
	DB	00H
	DB	00H
	DB	00H
	DB	00H
	DB	00H
	DB	00H
	DB	00H
	DB	00H
	DB	00H
	DB	00H
	DB	00H
	DB	00H
	DB	00H
	DB	00H
	DB	00H
	DB	00H
	DB	00H
	DB	00H
	DB	00H
	DB	00H
	DB	00H
	DB	00H
	DB	00H
	DB	00H
	DB	00H
	DB	00H
	DB	00H
	DB	00H
	DB	00H
	DB	00H
	DB	00H
	DB	00H
	DB	00H
	DB	00H
	DB	00H
	DB	00H
	DB	00H
	DB	00H
	DB	00H
	DB	00H
	DB	00H
	DB	00H
	DB	00H
	DB	00H
	DB	00H
	DB	00H
	DB	00H
	DB	00H
	DB	00H
	DB	00H
	DB	00H
	DB	00H
	DB	00H
	DB	00H
	DB	00H
	DB	00H
	DB	00H
	DB	00H
	DB	00H
	DB	00H
	DB	00H
	DB	00H
	DB	00H
	DB	00H
	DB	00H
	DB	00H
	DB	00H
	DB	00H
	DB	00H
	DB	00H
	DB	00H
	DB	00H
	DB	00H
	DB	00H
	DB	00H
	DB	00H
	DB	00H
	DB	00H
	DB	00H
	DB	00H
	DB	00H
	DB	00H
	DB	00H
	DB	00H
	DB	00H
	DB	00H
	DB	00H
	DB	00H
	DB	00H
	DB	00H
	DB	00H
	DB	00H
	DB	00H
	DB	00H
	DB	00H
	DB	00H
	DB	00H
	DB	00H
	DB	00H
	DB	00H
	DB	00H
	DB	00H
	DB	00H
	DB	00H
	DB	00H
	DB	00H
	DB	00H
	DB	00H
	DB	00H
	DB	00H
	DB	00H
	DB	00H
	DB	00H
	DB	00H
	DB	00H
	DB	00H
	DB	00H
	DB	00H
	DB	00H
	DB	00H
	DB	00H
	DB	00H
	DB	00H
	DB	00H
	DB	00H
	DB	00H
	DB	00H
	DB	00H
	DB	00H
	DB	00H
	DB	00H
	DB	00H
	DB	00H
	DB	00H
	DB	00H
	DB	00H
	DB	00H
	DB	00H
	DB	00H
	DB	00H
	DB	00H
	DB	00H
	DB	00H
	DB	00H
	DB	00H
	DB	00H
	DB	00H
	DB	00H
	DB	00H
	DB	00H
	DB	00H
	DB	00H
	DB	00H
	DB	00H
	DB	00H
	DB	00H
	DB	00H
	DB	00H
	DB	00H
	DB	00H
	DB	00H
	DB	00H
	DB	00H
	DB	00H
	DB	00H
	DB	00H
	DB	00H
	DB	00H
	DB	00H
	DB	00H
	DB	00H
	DB	00H
	DB	00H
	DB	00H
	DB	00H
	DB	00H
	DB	00H
	DB	00H
	DB	00H
	DB	00H
	DB	00H
	DB	00H
	DB	00H
	DB	00H
	DB	00H
	DB	00H
	DB	00H
	DB	00H
	DB	00H
	DB	00H
	DB	00H
	DB	00H
	DB	00H
	DB	00H
	DB	00H
	DB	00H
	DB	00H
	DB	00H
	DB	00H
	DB	00H
	DB	00H
	DB	00H
	DB	00H
	DB	00H
	DB	00H
	DB	00H
	DB	00H
	DB	00H
	DB	00H
	DB	00H
	DB	00H
	DB	00H
	DB	00H
	DB	00H
	DB	00H
	DB	00H
	DB	00H
	DB	00H
	DB	00H
	DB	00H
	DB	00H
	DB	00H
	DB	00H
	DB	00H
	DB	00H
	DB	00H
	DB	00H
	DB	00H
	DB	00H
	DB	00H
	DB	00H
	DB	00H
	DB	00H
	DB	00H
	DB	00H
	DB	00H
	DB	00H
	DB	00H
	DB	00H
	DB	00H
	DB	00H
	DB	00H
	DB	00H
	DB	00H
	DB	00H
	DB	00H
	DB	00H
	DB	00H
	DB	00H
	DB	00H
	DB	00H
	DB	00H
	DB	00H
	DB	00H
	DB	00H
	DB	00H
	DB	00H
	DB	00H
	DB	00H
	DB	00H
	DB	00H
	DB	00H
	DB	00H
	DB	00H
	DB	00H
	DB	00H
	DB	00H
	DB	00H
	DB	00H
	DB	00H
	DB	00H
	DB	00H
	DB	00H
	DB	00H
	DB	00H
	DB	00H
	DB	00H
	DB	00H
	DB	00H
	DB	00H
	DB	00H
	DB	00H
	DB	00H
	DB	00H
	DB	00H
	DB	00H
	DB	00H
	DB	00H
	DB	00H
	DB	00H
	DB	00H
	DB	00H
	DB	00H
	DB	00H
	DB	00H
	DB	00H
	DB	00H
	DB	00H
	DB	00H
	DB	00H
	DB	00H
	DB	00H
	DB	00H
	DB	00H
	DB	00H
	DB	00H
	DB	00H
	DB	00H
	DB	00H
	DB	00H
	DB	00H
	DB	00H
	DB	00H
	DB	00H
	DB	00H
	DB	00H
	DB	00H
	DB	00H
	DB	00H
	DB	00H
	DB	00H
	DB	00H
	DB	00H
	DB	00H
	DB	00H
	DB	00H
	DB	00H
	DB	00H
	DB	00H
	DB	00H
	DB	00H
	DB	00H
	DB	00H
	DB	00H
	DB	00H
	DB	00H
	DB	00H
	DB	00H
	DB	00H
	DB	00H
	DB	00H
	DB	00H
	DB	00H
	DB	00H
	DB	00H
	DB	00H
	DB	00H
	DB	00H
	DB	00H
	DB	00H
	DB	00H
	DB	00H
	DB	00H
	DB	00H
	DB	00H
	DB	00H
	DB	00H
	DB	00H
	DB	00H
	DB	00H
	DB	00H
	DB	00H
	DB	00H
	DB	00H
	DB	00H
	DB	00H
	DB	00H
	DB	00H
	DB	00H
	DB	00H
	DB	00H
	DB	00H
	DB	00H
	DB	00H
	DB	00H
	DB	00H
	DB	00H
	DB	00H
	DB	00H
	DB	00H
	DB	00H
	DB	00H
	DB	00H
	DB	00H
	DB	00H
	DB	00H
	DB	00H
	DB	00H
	DB	00H
	DB	00H
	DB	00H
	DB	00H
	DB	00H
	DB	00H
	DB	00H
	DB	00H
	DB	00H
	DB	00H
	DB	00H
	DB	00H
	DB	00H
	DB	00H
	DB	00H
	DB	00H
	DB	00H
	DB	00H
	DB	00H
	DB	00H
	DB	00H
	DB	00H
	DB	00H
	DB	00H
	DB	00H
	DB	00H
	DB	00H
	DB	00H
	DB	00H
	DB	00H
	DB	00H
	DB	00H
	DB	00H
	DB	00H
	DB	00H
	DB	00H
	DB	00H
	DB	00H
	DB	00H
	DB	00H
	DB	00H
	DB	00H
	DB	00H
	DB	00H
	DB	00H
	DB	00H
	DB	00H
	DB	00H
	DB	00H
	DB	00H
	DB	00H
	DB	00H
	DB	00H
	DB	00H
	DB	00H
	DB	00H
	DB	00H
	DB	00H
	DB	00H
	DB	00H
	DB	00H
	DB	00H
	DB	00H
	DB	00H
	DB	00H
	DB	00H
	DB	00H
	DB	00H
	DB	00H
	DB	00H
	DB	00H
	DB	00H
	DB	00H
	DB	00H
	DB	00H
	DB	00H
	DB	00H
	DB	00H
	DB	00H
	DB	00H
	DB	00H
	DB	00H
	DB	00H
	DB	00H
	DB	00H
	DB	00H
	DB	00H
	DB	00H
	DB	00H
	DB	00H
	DB	00H
	DB	00H
	DB	00H
	DB	00H
	DB	00H
	DB	00H
	DB	00H
	DB	00H
	DB	00H
	DB	00H
	DB	00H
	DB	00H
	DB	00H
	DB	00H
	DB	00H
	DB	00H
	DB	00H
	DB	00H
	DB	00H
	DB	00H
	DB	00H
	DB	00H
	DB	00H
	DB	00H
	DB	00H
	DB	00H
	DB	00H
	DB	00H
	DB	00H
	DB	00H
	DB	00H
	DB	00H
	DB	00H
	DB	00H
	DB	00H
	DB	00H
	DB	00H
	DB	00H
	DB	00H
	DB	00H
	DB	00H
	DB	00H
	DB	00H
	DB	00H
	DB	00H
	DB	00H
	DB	00H
	DB	00H
	DB	00H
	DB	00H
	DB	00H
	DB	00H
	DB	00H
	DB	00H
	DB	00H
	DB	00H
	DB	00H
	DB	00H
	DB	00H
	DB	00H
	DB	00H
	DB	00H
	DB	00H
	DB	00H
	DB	00H
	DB	00H
	DB	00H
	DB	00H
	DB	00H
	DB	00H
	DB	00H
	DB	00H
	DB	00H
	DB	00H
	DB	00H
	DB	00H
	DB	00H
	DB	00H
	DB	00H
	DB	00H
	DB	00H
	DB	00H
	DB	00H
	DB	00H
	DB	00H
	DB	00H
	DB	00H
	DB	00H
	DB	00H
	DB	00H
	DB	00H
	DB	00H
CONST	ENDS
END
