; Listing generated by Microsoft (R) Optimizing Compiler Version 16.00.40219.01 

	TITLE	C:\DUII\DUII\Graphics\WaitingForCamera.c
	.686P
	.XMM
	include listing.inc
	.model	flat

INCLUDELIB LIBCMT
INCLUDELIB OLDNAMES

PUBLIC	_bmWaitingForCamera
CONST	SEGMENT
_ColorsWaitingForCamera DD 00H
	DD	0444343H
	DD	0343333H
	DD	02b2a2aH
	DD	0545454H
	DD	0595959H
	DD	0fcfbfbH
	DD	028f76aH
	DD	03b3a3aH
	DD	0131313H
	DD	04c4b4bH
	DD	0c0c0cH
	DD	01c1c1bH
	DD	0232322H
	DD	0e9e7e6H
	DD	0717172H
	DD	0383636H
	DD	0282626H
	DD	0e0d9d6H
	DD	0dad1ceH
	DD	0858585H
	DD	0d4cbc6H
	DD	0f0eeecH
	DD	0cac0baH
	DD	0d1c5bdH
	DD	0e5e0ddH
	DD	0d0c5c0H
	DD	0484646H
	DD	06c6b6bH
	DD	07a7979H
	DD	0403e3eH
	DD	0837a76H
	DD	0302e2eH
	DD	0dcdbdbH
	DD	0646363H
	DD	0484648H
	DD	08120bH
	DD	0201e1eH
	DD	025e863H
	DD	0756e6bH
	DD	0d4d3d2H
	DD	0a4a3a3H
	DD	0abababH
	DD	052a11H
	DD	0c3c3c2H
	DD	0cccacaH
	DD	0b4b3b3H
	DD	0140c12H
	DD	08b8a8aH
	DD	09c9b9bH
	DD	010100eH
	DD	032302eH
	DD	0939292H
	DD	0bcbabaH
	DD	0514e4dH
	DD	0148538H
	DD	022d65bH
	DD	0181816H
	DD	0c9c5c4H
	DD	019a947H
	DD	0d1cdccH
	DD	020a05H
	DD	0b5623H
	DD	080206H
	DD	0797574H
	DD	01b1419H
	DD	0110a0eH
	DD	053514H
	DD	0c0309H
	DD	0292826H
	DD	0d9d6d4H
	DD	0181216H
	DD	020201eH
	DD	0c1bdbcH
	DD	0595554H
	DD	0817d7cH
	DD	0231d21H
	DD	0696564H
	DD	0161816H
	DD	0332d31H
	DD	01cb74dH
	DD	02bff71H
	DD	0b9b5b4H
	DD	0898584H
	DD	03240eH
	DD	08461cH
	DD	020cb57H
	DD	0615d5cH
	DD	02b2429H
	DD	0918d8cH
	DD	03a3836H
	DD	0117a33H
	DD	0b1adacH
	DD	075706cH
	DD	042403eH
	DD	04a4846H
	DD	0999594H
	DD	01e201eH
	DD	0a9a5a4H
	DD	052514eH
	DD	0393638H
	DD	0ccc8c6H
	DD	0d6629H
	DD	0595856H
	DD	0189b42H
	DD	0413e40H
	DD	06b6866H
	DD	0a19d9bH
	DD	062605eH
	DD	0c5c0beH
	DD	0dbd8d6H
	DD	01dbc50H
	DD	01ec252H
	DD	0a4d20H
	DD	010732fH
	DD	083807eH
	DD	0bdb8b6H
	DD	0b5bbbdH
	DD	0353835H
	DD	07c7876H
	DD	0b4b0aeH
	DD	0bdc1c3H
	DD	02e302dH
	DD	0585758H
	DD	05a645aH
	DD	0666668H
	DD	0106c2dH
	DD	09c9896H
	DD	080806H
	DD	0262826H
	DD	060b08H
	DD	05e6260H
	DD	0f732eH
	DD	0565858H
	DD	016933eH
	DD	08d9392H
	DD	0aaa8a6H
	DD	0aeb2b4H
	DD	03e4040H
	DD	0656969H
	DD	0767879H
	DD	094908eH
	DD	0a5a9abH
	DD	0babec0H
	DD	0eff0f0H
	DD	0363838H
	DD	03d413cH
	DD	03a3c44H
	DD	0464848H
	DD	0504e50H
	DD	0565856H
	DD	09da2a3H
	DD	02f3031H
	DD	06e6e70H
	DD	07a857bH
	DD	0e1010H
	DD	0464945H
	DD	04e5050H
	DD	0667567H
	DD	07e8080H
	DD	0c5c8c9H
	DD	044322dH
	DD	0454648H
	DD	06b4a44H
	DD	0858b8aH
	DD	0adaeb0H
	DD	0ced0d1H
	DD	0151818H
	DD	0272828H
	DD	04a534bH
	DD	0848886H
	DD	08c8887H
	DD	0949698H
	DD	094999aH
	DD	0a3a09eH
	DD	0b1b6b8H
	DD	0d6d8d9H
	DD	0352a25H
	DD	0353638H
	DD	0575758H
	DD	06a534aH
	DD	05e5f60H
	DD	06e7072H
	DD	0767876H
	DD	0757678H
	DD	0837f80H
	DD	0869b87H
	DD	096a39cH
	DD	0a2a6a8H
	DD	0b4aba5H
	DD	0e0dfe0H
	DD	0e0f10H
	DD	01f2020H
	DD	0563d37H
	DD	0f7730H
	DD	04d4e50H
	DD	0686769H
	DD	0997570H
	DD	079917dH
	DD	07e7f80H
	DD	0949997H
	DD	09b9798H
	DD	0ba9b95H
	DD	09e9fa0H
	DD	0a9a7a8H
	DD	0bbb7b8H
	DD	0c5a19bH
	DD	0c3c6c8H
	DD	0dfc6c4H
	DD	0dfe0e0H
	DD	070608H
	DD	0151718H
	DD	01f1f20H
	DD	03a2d27H
	DD	030272dH
	DD	02f2f30H
	DD	08501fH
	DD	0363e61H
	DD	038416dH
	DD	0514940H
	DD	04e6152H
	DD	064685aH
	DD	078615eH
	DD	0676867H
	DD	07f6f63H
	DD	0706f70H
	DD	0797779H
	DD	0845f59H
	DD	090635dH
	DD	08a6b68H
	DD	0946d67H
	DD	0807773H
	DD	0a57872H
	DD	09a8179H
	DD	08a8788H
	DD	08e8f90H
	DD	0a18b81H
	DD	0b28984H
	DD	0b9948eH
	DD	08fa48eH
	DD	0a9b1afH
	DD	0b1afb0H
	DD	0b7b8b7H
	DD	0c4928bH
	DD	0c3a8a3H
	DD	0c0b6b1H
	DD	0c1bbb6H
	DD	0d9bbb8H
	DD	0d9ccc4H
	DD	0d1cfd0H
	DD	0d7d7d8H
	DD	0d8d7d8H
	DD	0eef0efH
	DD	0f5f2efH
	DD	0efeff0H
	DD	0f0eff0H
_PalWaitingForCamera DD 0100H
	DB	00H
	ORG $+3
	DD	FLAT:_ColorsWaitingForCamera
_bmWaitingForCamera DW 019fH
	DW	0a7H
	DW	019fH
	DW	08H
	DD	FLAT:_acWaitingForCamera
	DD	FLAT:_PalWaitingForCamera
	ORG $+4
_acWaitingForCamera DB 00H
	DB	00H
	DB	00H
	DB	00H
	DB	00H
	DB	00H
	DB	00H
	DB	00H
	DB	00H
	DB	00H
	DB	00H
	DB	00H
	DB	00H
	DB	00H
	DB	00H
	DB	00H
	DB	00H
	DB	00H
	DB	00H
	DB	00H
	DB	00H
	DB	00H
	DB	00H
	DB	00H
	DB	00H
	DB	00H
	DB	00H
	DB	00H
	DB	00H
	DB	00H
	DB	00H
	DB	00H
	DB	00H
	DB	00H
	DB	00H
	DB	00H
	DB	00H
	DB	00H
	DB	00H
	DB	00H
	DB	00H
	DB	00H
	DB	00H
	DB	00H
	DB	00H
	DB	00H
	DB	00H
	DB	00H
	DB	00H
	DB	00H
	DB	00H
	DB	00H
	DB	00H
	DB	00H
	DB	00H
	DB	00H
	DB	00H
	DB	00H
	DB	00H
	DB	00H
	DB	00H
	DB	00H
	DB	00H
	DB	00H
	DB	00H
	DB	00H
	DB	00H
	DB	00H
	DB	00H
	DB	00H
	DB	00H
	DB	00H
	DB	00H
	DB	00H
	DB	00H
	DB	00H
	DB	00H
	DB	00H
	DB	00H
	DB	00H
	DB	00H
	DB	00H
	DB	00H
	DB	00H
	DB	00H
	DB	00H
	DB	00H
	DB	00H
	DB	00H
	DB	00H
	DB	00H
	DB	00H
	DB	00H
	DB	00H
	DB	00H
	DB	00H
	DB	00H
	DB	00H
	DB	00H
	DB	00H
	DB	00H
	DB	00H
	DB	00H
	DB	00H
	DB	00H
	DB	00H
	DB	00H
	DB	00H
	DB	00H
	DB	00H
	DB	00H
	DB	00H
	DB	00H
	DB	00H
	DB	00H
	DB	00H
	DB	00H
	DB	00H
	DB	00H
	DB	00H
	DB	00H
	DB	00H
	DB	00H
	DB	00H
	DB	00H
	DB	00H
	DB	00H
	DB	00H
	DB	00H
	DB	00H
	DB	00H
	DB	00H
	DB	00H
	DB	00H
	DB	00H
	DB	00H
	DB	00H
	DB	00H
	DB	00H
	DB	00H
	DB	00H
	DB	00H
	DB	00H
	DB	00H
	DB	00H
	DB	00H
	DB	00H
	DB	00H
	DB	00H
	DB	00H
	DB	00H
	DB	00H
	DB	00H
	DB	00H
	DB	00H
	DB	00H
	DB	00H
	DB	00H
	DB	00H
	DB	00H
	DB	00H
	DB	00H
	DB	00H
	DB	00H
	DB	00H
	DB	00H
	DB	00H
	DB	00H
	DB	00H
	DB	00H
	DB	00H
	DB	00H
	DB	00H
	DB	00H
	DB	00H
	DB	00H
	DB	00H
	DB	00H
	DB	00H
	DB	00H
	DB	00H
	DB	00H
	DB	00H
	DB	00H
	DB	00H
	DB	00H
	DB	00H
	DB	00H
	DB	00H
	DB	00H
	DB	00H
	DB	00H
	DB	00H
	DB	00H
	DB	00H
	DB	00H
	DB	00H
	DB	00H
	DB	00H
	DB	00H
	DB	00H
	DB	00H
	DB	00H
	DB	00H
	DB	00H
	DB	00H
	DB	00H
	DB	00H
	DB	00H
	DB	00H
	DB	00H
	DB	00H
	DB	00H
	DB	00H
	DB	00H
	DB	00H
	DB	00H
	DB	00H
	DB	00H
	DB	00H
	DB	00H
	DB	00H
	DB	00H
	DB	00H
	DB	00H
	DB	00H
	DB	00H
	DB	00H
	DB	00H
	DB	00H
	DB	00H
	DB	00H
	DB	00H
	DB	00H
	DB	00H
	DB	00H
	DB	00H
	DB	00H
	DB	00H
	DB	00H
	DB	00H
	DB	00H
	DB	00H
	DB	00H
	DB	00H
	DB	00H
	DB	00H
	DB	00H
	DB	00H
	DB	00H
	DB	00H
	DB	00H
	DB	00H
	DB	00H
	DB	00H
	DB	00H
	DB	00H
	DB	00H
	DB	00H
	DB	00H
	DB	00H
	DB	00H
	DB	00H
	DB	00H
	DB	00H
	DB	00H
	DB	00H
	DB	00H
	DB	00H
	DB	00H
	DB	00H
	DB	00H
	DB	00H
	DB	00H
	DB	00H
	DB	00H
	DB	00H
	DB	00H
	DB	00H
	DB	00H
	DB	00H
	DB	00H
	DB	00H
	DB	00H
	DB	00H
	DB	00H
	DB	00H
	DB	00H
	DB	00H
	DB	00H
	DB	00H
	DB	00H
	DB	00H
	DB	00H
	DB	00H
	DB	00H
	DB	00H
	DB	00H
	DB	00H
	DB	00H
	DB	00H
	DB	00H
	DB	00H
	DB	00H
	DB	00H
	DB	00H
	DB	00H
	DB	00H
	DB	00H
	DB	00H
	DB	00H
	DB	00H
	DB	00H
	DB	00H
	DB	00H
	DB	00H
	DB	00H
	DB	00H
	DB	00H
	DB	00H
	DB	00H
	DB	00H
	DB	00H
	DB	00H
	DB	00H
	DB	00H
	DB	00H
	DB	00H
	DB	00H
	DB	00H
	DB	00H
	DB	00H
	DB	00H
	DB	00H
	DB	00H
	DB	00H
	DB	00H
	DB	00H
	DB	00H
	DB	00H
	DB	00H
	DB	00H
	DB	00H
	DB	00H
	DB	00H
	DB	00H
	DB	00H
	DB	00H
	DB	00H
	DB	00H
	DB	00H
	DB	00H
	DB	00H
	DB	00H
	DB	00H
	DB	00H
	DB	00H
	DB	00H
	DB	00H
	DB	00H
	DB	00H
	DB	00H
	DB	00H
	DB	00H
	DB	00H
	DB	00H
	DB	00H
	DB	00H
	DB	00H
	DB	00H
	DB	00H
	DB	00H
	DB	00H
	DB	00H
	DB	00H
	DB	00H
	DB	00H
	DB	00H
	DB	00H
	DB	00H
	DB	00H
	DB	00H
	DB	00H
	DB	00H
	DB	00H
	DB	00H
	DB	00H
	DB	00H
	DB	00H
	DB	00H
	DB	00H
	DB	00H
	DB	00H
	DB	00H
	DB	00H
	DB	00H
	DB	00H
	DB	00H
	DB	00H
	DB	00H
	DB	00H
	DB	00H
	DB	00H
	DB	00H
	DB	00H
	DB	00H
	DB	00H
	DB	00H
	DB	00H
	DB	00H
	DB	00H
	DB	00H
	DB	00H
	DB	00H
	DB	00H
	DB	00H
	DB	00H
	DB	00H
	DB	00H
	DB	00H
	DB	00H
	DB	00H
	DB	00H
	DB	00H
	DB	00H
	DB	00H
	DB	00H
	DB	00H
	DB	00H
	DB	00H
	DB	00H
	DB	00H
	DB	00H
	DB	00H
	DB	00H
	DB	00H
	DB	00H
	DB	00H
	DB	00H
	DB	00H
	DB	00H
	DB	00H
	DB	00H
	DB	00H
	DB	00H
	DB	00H
	DB	00H
	DB	00H
	DB	00H
	DB	00H
	DB	00H
	DB	00H
	DB	00H
	DB	00H
	DB	00H
	DB	00H
	DB	00H
	DB	00H
	DB	00H
	DB	00H
	DB	00H
	DB	00H
	DB	00H
	DB	00H
	DB	00H
	DB	00H
	DB	00H
	DB	00H
	DB	00H
	DB	00H
	DB	00H
	DB	00H
	DB	00H
	DB	00H
	DB	00H
	DB	00H
	DB	00H
	DB	00H
	DB	00H
	DB	00H
	DB	00H
	DB	00H
	DB	00H
	DB	00H
	DB	00H
	DB	00H
	DB	00H
	DB	00H
	DB	00H
	DB	00H
	DB	00H
	DB	00H
	DB	00H
	DB	00H
	DB	00H
	DB	00H
	DB	00H
	DB	00H
	DB	00H
	DB	00H
	DB	00H
	DB	00H
	DB	00H
	DB	00H
	DB	00H
	DB	00H
	DB	00H
	DB	00H
	DB	00H
	DB	00H
	DB	00H
	DB	00H
	DB	00H
	DB	00H
	DB	00H
	DB	00H
	DB	00H
	DB	00H
	DB	00H
	DB	00H
	DB	00H
	DB	00H
	DB	00H
	DB	00H
	DB	00H
	DB	00H
	DB	00H
	DB	00H
	DB	00H
	DB	00H
	DB	00H
	DB	00H
	DB	00H
	DB	00H
	DB	00H
	DB	00H
	DB	00H
	DB	00H
	DB	00H
	DB	00H
	DB	00H
	DB	00H
	DB	00H
	DB	00H
	DB	00H
	DB	00H
	DB	00H
	DB	00H
	DB	00H
	DB	00H
	DB	00H
	DB	00H
	DB	00H
	DB	00H
	DB	00H
	DB	00H
	DB	00H
	DB	00H
	DB	00H
	DB	00H
	DB	00H
	DB	00H
	DB	00H
	DB	00H
	DB	00H
	DB	00H
	DB	00H
	DB	00H
	DB	00H
	DB	00H
	DB	00H
	DB	00H
	DB	00H
	DB	00H
	DB	00H
	DB	00H
	DB	00H
	DB	00H
	DB	00H
	DB	00H
	DB	00H
	DB	00H
	DB	00H
	DB	00H
	DB	00H
	DB	00H
	DB	00H
	DB	00H
	DB	00H
	DB	00H
	DB	00H
	DB	00H
	DB	00H
	DB	00H
	DB	00H
	DB	00H
	DB	00H
	DB	00H
	DB	00H
	DB	00H
	DB	00H
	DB	00H
	DB	00H
	DB	00H
	DB	00H
	DB	00H
	DB	00H
	DB	00H
	DB	00H
	DB	00H
	DB	00H
	DB	00H
	DB	00H
	DB	00H
	DB	00H
	DB	00H
	DB	00H
	DB	00H
	DB	00H
	DB	00H
	DB	00H
	DB	00H
	DB	00H
	DB	00H
	DB	00H
	DB	00H
	DB	00H
	DB	00H
	DB	00H
	DB	00H
	DB	00H
	DB	00H
	DB	00H
	DB	00H
	DB	00H
	DB	00H
	DB	00H
	DB	00H
	DB	00H
	DB	00H
	DB	00H
	DB	00H
	DB	00H
	DB	00H
	DB	00H
	DB	00H
	DB	00H
	DB	00H
	DB	00H
	DB	00H
	DB	00H
	DB	00H
	DB	00H
	DB	00H
	DB	00H
	DB	00H
	DB	00H
	DB	00H
	DB	00H
	DB	00H
	DB	00H
	DB	00H
	DB	00H
	DB	00H
	DB	00H
	DB	00H
	DB	00H
	DB	00H
	DB	00H
	DB	00H
	DB	00H
	DB	00H
	DB	00H
	DB	00H
	DB	00H
	DB	00H
	DB	00H
	DB	00H
	DB	00H
	DB	00H
	DB	00H
	DB	00H
	DB	00H
	DB	00H
	DB	00H
	DB	00H
	DB	00H
	DB	00H
	DB	00H
	DB	00H
	DB	00H
	DB	00H
	DB	00H
	DB	00H
	DB	00H
	DB	00H
	DB	00H
	DB	00H
	DB	00H
	DB	00H
	DB	00H
	DB	00H
	DB	00H
	DB	00H
	DB	00H
	DB	00H
	DB	00H
	DB	00H
	DB	00H
	DB	00H
	DB	00H
	DB	00H
	DB	00H
	DB	00H
	DB	00H
	DB	00H
	DB	00H
	DB	00H
	DB	00H
	DB	00H
	DB	00H
	DB	00H
	DB	00H
	DB	00H
	DB	00H
	DB	00H
	DB	00H
	DB	00H
	DB	00H
	DB	00H
	DB	00H
	DB	00H
	DB	00H
	DB	00H
	DB	00H
	DB	00H
	DB	00H
	DB	00H
	DB	00H
	DB	00H
	DB	00H
	DB	00H
	DB	00H
	DB	00H
	DB	00H
	DB	00H
	DB	00H
	DB	00H
	DB	00H
	DB	00H
	DB	00H
	DB	00H
	DB	00H
	DB	00H
	DB	00H
	DB	00H
	DB	00H
	DB	00H
	DB	00H
	DB	00H
	DB	00H
	DB	00H
	DB	00H
	DB	00H
	DB	00H
	DB	00H
	DB	00H
	DB	00H
	DB	00H
	DB	00H
	DB	00H
	DB	00H
	DB	00H
	DB	00H
	DB	00H
	DB	00H
	DB	00H
	DB	00H
	DB	00H
	DB	00H
	DB	00H
	DB	00H
	DB	00H
	DB	00H
	DB	00H
	DB	00H
	DB	00H
	DB	00H
	DB	00H
	DB	00H
	DB	00H
	DB	00H
	DB	00H
	DB	00H
	DB	00H
	DB	00H
	DB	00H
	DB	00H
	DB	00H
	DB	00H
	DB	00H
	DB	00H
	DB	00H
	DB	00H
	DB	00H
	DB	00H
	DB	00H
	DB	00H
	DB	00H
	DB	00H
	DB	00H
	DB	00H
	DB	00H
	DB	00H
	DB	00H
	DB	00H
	DB	00H
	DB	00H
	DB	00H
	DB	00H
	DB	00H
	DB	00H
	DB	00H
	DB	00H
	DB	00H
	DB	00H
	DB	00H
	DB	00H
	DB	00H
	DB	00H
	DB	00H
	DB	00H
	DB	00H
	DB	00H
	DB	00H
	DB	00H
	DB	00H
	DB	00H
	DB	00H
	DB	00H
	DB	00H
	DB	00H
	DB	00H
	DB	00H
	DB	00H
	DB	00H
	DB	00H
	DB	00H
	DB	00H
	DB	00H
	DB	00H
	DB	00H
	DB	00H
	DB	00H
	DB	00H
	DB	00H
	DB	00H
	DB	00H
	DB	00H
	DB	00H
	DB	00H
	DB	00H
	DB	00H
	DB	00H
	DB	00H
	DB	00H
	DB	00H
	DB	00H
	DB	00H
	DB	00H
	DB	00H
	DB	00H
	DB	00H
	DB	00H
	DB	00H
	DB	00H
	DB	00H
	DB	00H
	DB	00H
	DB	00H
	DB	00H
	DB	00H
	DB	00H
	DB	00H
	DB	00H
	DB	00H
	DB	00H
	DB	00H
	DB	00H
	DB	00H
	DB	00H
	DB	00H
	DB	00H
	DB	00H
	DB	00H
	DB	00H
	DB	00H
	DB	00H
	DB	00H
	DB	00H
	DB	00H
	DB	00H
	DB	00H
	DB	00H
	DB	00H
	DB	00H
	DB	00H
	DB	00H
	DB	00H
	DB	00H
	DB	00H
	DB	00H
	DB	00H
	DB	00H
	DB	00H
	DB	00H
	DB	00H
	DB	00H
	DB	00H
	DB	00H
	DB	00H
	DB	00H
	DB	00H
	DB	00H
	DB	00H
	DB	00H
	DB	00H
	DB	00H
	DB	00H
	DB	00H
	DB	00H
	DB	00H
	DB	00H
	DB	00H
	DB	00H
	DB	00H
	DB	00H
	DB	00H
	DB	00H
	DB	00H
	DB	00H
	DB	00H
	DB	00H
	DB	00H
	DB	00H
	DB	00H
	DB	00H
	DB	00H
	DB	00H
	DB	00H
	DB	00H
	DB	00H
	DB	00H
	DB	00H
	DB	00H
	DB	00H
	DB	00H
	DB	00H
	DB	00H
	DB	00H
	DB	00H
	DB	00H
	DB	00H
	DB	00H
	DB	00H
	DB	00H
	DB	00H
	DB	00H
	DB	00H
	DB	00H
	DB	00H
	DB	00H
	DB	00H
	DB	00H
	DB	00H
	DB	00H
	DB	00H
	DB	00H
	DB	00H
	DB	00H
	DB	00H
	DB	00H
	DB	00H
	DB	00H
	DB	00H
	DB	00H
	DB	00H
	DB	00H
	DB	00H
	DB	00H
	DB	00H
	DB	00H
	DB	00H
	DB	00H
	DB	00H
	DB	00H
	DB	00H
	DB	00H
	DB	00H
	DB	00H
	DB	00H
	DB	00H
	DB	00H
	DB	00H
	DB	00H
	DB	00H
	DB	00H
	DB	00H
	DB	00H
	DB	00H
	DB	00H
	DB	00H
	DB	00H
	DB	00H
	DB	00H
	DB	00H
	DB	00H
	DB	00H
	DB	00H
	DB	00H
	DB	00H
	DB	00H
	DB	00H
	DB	00H
	DB	00H
	DB	00H
	DB	00H
	DB	00H
	DB	00H
	DB	00H
	DB	00H
	DB	00H
	DB	00H
	DB	00H
	DB	00H
	DB	00H
	DB	00H
	DB	00H
	DB	00H
	DB	00H
	DB	00H
	DB	00H
	DB	00H
	DB	00H
	DB	00H
	DB	00H
	DB	00H
	DB	00H
	DB	00H
	DB	00H
	DB	00H
	DB	00H
	DB	00H
	DB	00H
	DB	00H
	DB	00H
	DB	00H
	DB	00H
	DB	00H
	DB	00H
	DB	00H
	DB	00H
	DB	00H
	DB	00H
	DB	00H
	DB	00H
	DB	00H
	DB	00H
	DB	00H
	DB	00H
	DB	00H
	DB	00H
	DB	00H
	DB	00H
	DB	00H
	DB	00H
	DB	00H
	DB	00H
	DB	00H
	DB	00H
	DB	00H
	DB	00H
	DB	00H
	DB	00H
	DB	00H
	DB	00H
	DB	00H
	DB	00H
	DB	00H
	DB	00H
	DB	00H
	DB	00H
	DB	00H
	DB	00H
	DB	00H
	DB	00H
	DB	00H
	DB	00H
	DB	00H
	DB	00H
	DB	00H
	DB	00H
	DB	00H
	DB	00H
	DB	00H
	DB	00H
	DB	00H
	DB	00H
	DB	00H
	DB	00H
	DB	00H
	DB	00H
	DB	00H
	DB	00H
	DB	00H
	DB	00H
	DB	00H
	DB	00H
	DB	00H
	DB	00H
	DB	00H
	DB	00H
	DB	00H
	DB	00H
	DB	00H
	DB	00H
	DB	00H
	DB	00H
	DB	00H
	DB	00H
	DB	00H
	DB	00H
	DB	00H
	DB	00H
	DB	00H
	DB	00H
	DB	00H
	DB	00H
	DB	00H
	DB	00H
	DB	00H
	DB	00H
	DB	00H
	DB	00H
	DB	00H
	DB	00H
	DB	00H
	DB	00H
	DB	00H
	DB	00H
	DB	00H
	DB	00H
	DB	00H
	DB	00H
	DB	00H
	DB	00H
	DB	00H
	DB	00H
	DB	00H
	DB	00H
	DB	00H
	DB	00H
	DB	00H
	DB	00H
	DB	00H
	DB	00H
	DB	00H
	DB	00H
	DB	00H
	DB	00H
	DB	00H
	DB	00H
	DB	00H
	DB	00H
	DB	00H
	DB	00H
	DB	00H
	DB	00H
	DB	00H
	DB	00H
	DB	00H
	DB	00H
	DB	00H
	DB	00H
	DB	00H
	DB	00H
	DB	00H
	DB	00H
	DB	00H
	DB	00H
	DB	00H
	DB	00H
	DB	00H
	DB	00H
	DB	00H
	DB	00H
	DB	00H
	DB	00H
	DB	00H
	DB	00H
	DB	00H
	DB	00H
	DB	00H
	DB	00H
	DB	00H
	DB	00H
	DB	00H
	DB	00H
	DB	00H
	DB	00H
	DB	00H
	DB	00H
	DB	00H
	DB	00H
	DB	00H
	DB	00H
	DB	00H
	DB	00H
	DB	00H
	DB	00H
	DB	00H
	DB	00H
	DB	00H
	DB	00H
	DB	00H
	DB	00H
	DB	00H
	DB	00H
	DB	00H
	DB	00H
	DB	00H
	DB	00H
	DB	00H
	DB	00H
	DB	00H
	DB	00H
	DB	00H
	DB	00H
	DB	00H
	DB	00H
	DB	00H
	DB	00H
	DB	00H
	DB	00H
	DB	00H
	DB	00H
	DB	00H
	DB	00H
	DB	00H
	DB	00H
	DB	00H
	DB	00H
	DB	00H
	DB	00H
	DB	00H
	DB	00H
	DB	00H
	DB	00H
	DB	00H
	DB	00H
	DB	00H
	DB	00H
	DB	00H
	DB	00H
	DB	00H
	DB	00H
	DB	00H
	DB	00H
	DB	00H
	DB	00H
	DB	00H
	DB	00H
	DB	00H
	DB	00H
	DB	00H
	DB	00H
	DB	00H
	DB	00H
	DB	00H
	DB	00H
	DB	00H
	DB	00H
	DB	00H
	DB	00H
	DB	00H
	DB	00H
	DB	00H
	DB	00H
	DB	00H
	DB	00H
	DB	00H
	DB	00H
	DB	00H
	DB	00H
	DB	00H
	DB	00H
	DB	00H
	DB	00H
	DB	00H
	DB	00H
	DB	00H
	DB	00H
	DB	00H
	DB	00H
	DB	00H
	DB	00H
	DB	00H
	DB	00H
	DB	00H
	DB	00H
	DB	00H
	DB	00H
	DB	00H
	DB	00H
	DB	00H
	DB	00H
	DB	00H
	DB	00H
	DB	00H
	DB	00H
	DB	00H
	DB	00H
	DB	00H
	DB	00H
	DB	00H
	DB	00H
	DB	00H
	DB	00H
	DB	00H
	DB	00H
	DB	00H
	DB	00H
	DB	00H
	DB	00H
	DB	00H
	DB	00H
	DB	00H
	DB	00H
	DB	00H
	DB	00H
	DB	00H
	DB	00H
	DB	00H
	DB	00H
	DB	00H
	DB	00H
	DB	00H
	DB	00H
	DB	00H
	DB	00H
	DB	00H
	DB	00H
	DB	00H
	DB	00H
	DB	00H
	DB	00H
	DB	00H
	DB	00H
	DB	00H
	DB	00H
	DB	00H
	DB	00H
	DB	00H
	DB	00H
	DB	00H
	DB	00H
	DB	00H
	DB	00H
	DB	00H
	DB	00H
	DB	00H
	DB	00H
	DB	00H
	DB	00H
	DB	00H
	DB	00H
	DB	00H
	DB	00H
	DB	00H
	DB	00H
	DB	00H
	DB	00H
	DB	00H
	DB	00H
	DB	00H
	DB	00H
	DB	00H
	DB	00H
	DB	00H
	DB	00H
	DB	00H
	DB	00H
	DB	00H
	DB	00H
	DB	00H
	DB	00H
	DB	00H
	DB	00H
	DB	00H
	DB	00H
	DB	00H
	DB	00H
	DB	00H
	DB	00H
	DB	00H
	DB	00H
	DB	00H
	DB	00H
	DB	00H
	DB	00H
	DB	00H
	DB	00H
	DB	00H
	DB	00H
	DB	00H
	DB	00H
	DB	00H
	DB	00H
	DB	00H
	DB	00H
	DB	00H
	DB	00H
	DB	00H
	DB	00H
	DB	00H
	DB	00H
	DB	00H
	DB	00H
	DB	00H
	DB	00H
	DB	00H
	DB	00H
	DB	00H
	DB	00H
	DB	00H
	DB	00H
	DB	00H
	DB	00H
	DB	00H
	DB	00H
	DB	00H
	DB	00H
	DB	00H
	DB	00H
	DB	00H
	DB	00H
	DB	00H
	DB	00H
	DB	00H
	DB	00H
	DB	00H
	DB	00H
	DB	00H
	DB	00H
	DB	00H
	DB	00H
	DB	00H
	DB	00H
	DB	00H
	DB	00H
	DB	00H
	DB	00H
	DB	00H
	DB	00H
	DB	00H
	DB	00H
	DB	00H
	DB	00H
	DB	00H
	DB	00H
	DB	00H
	DB	00H
	DB	00H
	DB	00H
	DB	00H
	DB	00H
	DB	00H
	DB	00H
	DB	00H
	DB	00H
	DB	00H
	DB	00H
	DB	00H
	DB	00H
	DB	00H
	DB	00H
	DB	00H
	DB	00H
	DB	00H
	DB	00H
	DB	00H
	DB	00H
	DB	00H
	DB	00H
	DB	00H
	DB	00H
	DB	00H
	DB	00H
	DB	00H
	DB	00H
	DB	00H
	DB	00H
	DB	00H
	DB	00H
	DB	00H
	DB	00H
	DB	00H
	DB	00H
	DB	00H
	DB	00H
	DB	00H
	DB	00H
	DB	00H
	DB	00H
	DB	00H
	DB	00H
	DB	00H
	DB	00H
	DB	00H
	DB	00H
	DB	00H
	DB	00H
	DB	00H
	DB	00H
	DB	00H
	DB	00H
	DB	00H
	DB	00H
	DB	00H
	DB	00H
	DB	00H
	DB	00H
	DB	00H
	DB	00H
	DB	00H
	DB	00H
	DB	00H
	DB	00H
	DB	00H
	DB	00H
	DB	00H
	DB	00H
	DB	00H
	DB	00H
	DB	00H
	DB	00H
	DB	00H
	DB	00H
	DB	00H
	DB	00H
	DB	00H
	DB	00H
	DB	00H
	DB	00H
	DB	00H
	DB	00H
	DB	00H
	DB	00H
	DB	00H
	DB	00H
	DB	00H
	DB	00H
	DB	00H
	DB	00H
	DB	00H
	DB	00H
	DB	00H
	DB	00H
	DB	00H
	DB	00H
	DB	00H
	DB	00H
	DB	00H
	DB	00H
	DB	00H
	DB	00H
	DB	00H
	DB	00H
	DB	00H
	DB	00H
	DB	00H
	DB	00H
	DB	00H
	DB	00H
	DB	00H
	DB	00H
	DB	00H
	DB	00H
	DB	00H
	DB	00H
	DB	00H
	DB	00H
	DB	00H
	DB	00H
	DB	00H
	DB	00H
	DB	00H
	DB	00H
	DB	00H
	DB	00H
	DB	00H
	DB	00H
	DB	00H
	DB	00H
	DB	00H
	DB	00H
	DB	00H
	DB	00H
	DB	00H
	DB	00H
	DB	00H
	DB	00H
	DB	00H
	DB	00H
	DB	00H
	DB	00H
	DB	00H
	DB	00H
	DB	00H
	DB	00H
	DB	00H
	DB	00H
	DB	00H
	DB	00H
	DB	00H
	DB	00H
	DB	00H
	DB	00H
	DB	00H
	DB	00H
	DB	00H
	DB	00H
	DB	00H
	DB	00H
	DB	00H
	DB	00H
	DB	00H
	DB	00H
	DB	00H
	DB	00H
	DB	00H
	DB	00H
	DB	00H
	DB	00H
	DB	00H
	DB	00H
	DB	00H
	DB	00H
	DB	00H
	DB	00H
	DB	00H
	DB	00H
	DB	00H
	DB	00H
	DB	00H
	DB	00H
	DB	00H
	DB	00H
	DB	00H
	DB	00H
	DB	00H
	DB	00H
	DB	00H
	DB	00H
	DB	00H
	DB	00H
	DB	00H
	DB	00H
	DB	00H
	DB	00H
	DB	00H
	DB	00H
	DB	00H
	DB	00H
	DB	00H
	DB	00H
	DB	00H
	DB	00H
	DB	00H
	DB	00H
	DB	00H
	DB	00H
	DB	00H
	DB	00H
	DB	00H
	DB	00H
	DB	00H
	DB	00H
	DB	00H
	DB	00H
	DB	00H
	DB	00H
	DB	00H
	DB	00H
	DB	00H
	DB	00H
	DB	00H
	DB	00H
	DB	00H
	DB	00H
	DB	00H
	DB	00H
	DB	00H
	DB	00H
	DB	00H
	DB	00H
	DB	00H
	DB	00H
	DB	00H
	DB	00H
	DB	00H
	DB	00H
	DB	00H
	DB	00H
	DB	00H
	DB	00H
	DB	00H
	DB	00H
	DB	00H
	DB	00H
	DB	00H
	DB	00H
	DB	00H
	DB	00H
	DB	00H
	DB	00H
	DB	00H
	DB	00H
	DB	00H
	DB	00H
	DB	00H
	DB	00H
	DB	00H
	DB	00H
	DB	00H
	DB	00H
	DB	00H
	DB	00H
	DB	00H
	DB	00H
	DB	00H
	DB	00H
	DB	00H
	DB	00H
	DB	00H
	DB	00H
	DB	00H
	DB	00H
	DB	00H
	DB	00H
	DB	00H
	DB	00H
	DB	00H
	DB	00H
	DB	00H
	DB	00H
	DB	00H
	DB	00H
	DB	00H
	DB	00H
	DB	00H
	DB	00H
	DB	00H
	DB	00H
	DB	00H
	DB	00H
	DB	00H
	DB	00H
	DB	00H
	DB	00H
	DB	00H
	DB	00H
	DB	00H
	DB	00H
	DB	00H
	DB	00H
	DB	00H
	DB	00H
	DB	00H
	DB	00H
	DB	00H
	DB	00H
	DB	00H
	DB	00H
	DB	00H
	DB	00H
	DB	00H
	DB	00H
	DB	00H
	DB	00H
	DB	00H
	DB	00H
	DB	00H
	DB	00H
	DB	00H
	DB	00H
	DB	00H
	DB	00H
	DB	00H
	DB	00H
	DB	00H
	DB	00H
	DB	00H
	DB	00H
	DB	00H
	DB	00H
	DB	00H
	DB	00H
	DB	00H
	DB	00H
	DB	00H
	DB	00H
	DB	00H
	DB	00H
	DB	00H
	DB	00H
	DB	00H
	DB	00H
	DB	00H
	DB	00H
	DB	00H
	DB	00H
	DB	00H
	DB	00H
	DB	00H
	DB	00H
	DB	00H
	DB	00H
	DB	00H
	DB	00H
	DB	00H
	DB	00H
	DB	00H
	DB	00H
	DB	00H
	DB	00H
	DB	00H
	DB	00H
	DB	00H
	DB	00H
	DB	00H
	DB	00H
	DB	00H
	DB	00H
	DB	00H
	DB	00H
	DB	00H
	DB	00H
	DB	00H
	DB	00H
	DB	00H
	DB	00H
	DB	00H
	DB	00H
	DB	00H
	DB	00H
	DB	00H
	DB	00H
	DB	00H
	DB	00H
	DB	00H
	DB	00H
	DB	00H
	DB	00H
	DB	00H
	DB	00H
	DB	00H
	DB	00H
	DB	00H
	DB	00H
	DB	00H
	DB	00H
	DB	00H
	DB	00H
	DB	00H
	DB	00H
	DB	00H
	DB	00H
	DB	00H
	DB	00H
	DB	00H
	DB	00H
	DB	00H
	DB	00H
	DB	00H
	DB	00H
	DB	00H
	DB	00H
	DB	00H
	DB	00H
	DB	00H
	DB	00H
	DB	00H
	DB	00H
	DB	00H
	DB	00H
	DB	00H
	DB	00H
	DB	00H
	DB	00H
	DB	00H
	DB	00H
	DB	00H
	DB	00H
	DB	00H
	DB	00H
	DB	00H
	DB	00H
	DB	00H
	DB	00H
	DB	00H
	DB	00H
	DB	00H
	DB	00H
	DB	00H
	DB	00H
	DB	00H
	DB	00H
	DB	00H
	DB	00H
	DB	00H
	DB	00H
	DB	00H
	DB	00H
	DB	00H
	DB	00H
	DB	00H
	DB	00H
	DB	00H
	DB	00H
	DB	00H
	DB	00H
	DB	00H
	DB	00H
	DB	00H
	DB	00H
	DB	00H
	DB	00H
	DB	00H
	DB	00H
	DB	00H
	DB	00H
	DB	00H
	DB	00H
	DB	00H
	DB	00H
	DB	00H
	DB	00H
	DB	00H
	DB	00H
	DB	00H
	DB	00H
	DB	00H
	DB	00H
	DB	00H
	DB	00H
	DB	00H
	DB	00H
	DB	00H
	DB	00H
	DB	00H
	DB	00H
	DB	00H
	DB	00H
	DB	00H
	DB	00H
	DB	00H
	DB	00H
	DB	00H
	DB	00H
	DB	00H
	DB	00H
	DB	00H
	DB	00H
	DB	00H
	DB	00H
	DB	00H
	DB	00H
	DB	00H
	DB	00H
	DB	00H
	DB	00H
	DB	00H
	DB	00H
	DB	00H
	DB	00H
	DB	00H
	DB	00H
	DB	00H
	DB	00H
	DB	00H
	DB	00H
	DB	00H
	DB	00H
	DB	00H
	DB	00H
	DB	00H
	DB	00H
	DB	00H
	DB	00H
	DB	00H
	DB	00H
	DB	00H
	DB	00H
	DB	00H
	DB	00H
	DB	00H
	DB	00H
	DB	00H
	DB	00H
	DB	00H
	DB	00H
	DB	00H
	DB	00H
	DB	00H
	DB	00H
	DB	00H
	DB	00H
	DB	00H
	DB	00H
	DB	00H
	DB	00H
	DB	00H
	DB	00H
	DB	00H
	DB	00H
	DB	00H
	DB	00H
	DB	00H
	DB	00H
	DB	00H
	DB	00H
	DB	00H
	DB	00H
	DB	00H
	DB	00H
	DB	00H
	DB	00H
	DB	00H
	DB	00H
	DB	00H
	DB	00H
	DB	00H
	DB	00H
	DB	00H
	DB	00H
	DB	00H
	DB	00H
	DB	00H
	DB	00H
	DB	00H
	DB	00H
	DB	00H
	DB	00H
	DB	00H
	DB	00H
	DB	00H
	DB	00H
	DB	00H
	DB	00H
	DB	00H
	DB	00H
	DB	00H
	DB	00H
	DB	00H
	DB	00H
	DB	00H
	DB	00H
	DB	00H
	DB	00H
	DB	00H
	DB	00H
	DB	00H
	DB	00H
	DB	00H
	DB	00H
	DB	00H
	DB	00H
	DB	00H
	DB	00H
	DB	00H
	DB	00H
	DB	00H
	DB	00H
	DB	00H
	DB	00H
	DB	00H
	DB	00H
	DB	00H
	DB	00H
	DB	00H
	DB	00H
	DB	00H
	DB	00H
	DB	00H
	DB	00H
	DB	00H
	DB	00H
	DB	00H
	DB	00H
	DB	00H
	DB	00H
	DB	00H
	DB	00H
	DB	00H
	DB	00H
	DB	00H
	DB	00H
	DB	00H
	DB	00H
	DB	00H
	DB	00H
	DB	00H
	DB	00H
	DB	00H
	DB	00H
	DB	00H
	DB	00H
	DB	00H
	DB	00H
	DB	00H
	DB	00H
	DB	00H
	DB	00H
	DB	00H
	DB	00H
	DB	00H
	DB	00H
	DB	00H
	DB	00H
	DB	00H
	DB	00H
	DB	00H
	DB	00H
	DB	00H
	DB	00H
	DB	00H
	DB	00H
	DB	00H
	DB	00H
	DB	00H
	DB	00H
	DB	00H
	DB	00H
	DB	00H
	DB	00H
	DB	00H
	DB	00H
	DB	00H
	DB	00H
	DB	00H
	DB	00H
	DB	00H
	DB	00H
	DB	00H
	DB	00H
	DB	00H
	DB	00H
	DB	00H
	DB	00H
	DB	00H
	DB	00H
	DB	00H
	DB	00H
	DB	00H
	DB	00H
	DB	00H
	DB	00H
	DB	00H
	DB	00H
	DB	00H
	DB	00H
	DB	00H
	DB	00H
	DB	00H
	DB	00H
	DB	00H
	DB	00H
	DB	00H
	DB	00H
	DB	00H
	DB	00H
	DB	00H
	DB	00H
	DB	00H
	DB	00H
	DB	00H
	DB	00H
	DB	00H
	DB	00H
	DB	00H
	DB	00H
	DB	00H
	DB	00H
	DB	00H
	DB	00H
	DB	00H
	DB	00H
	DB	00H
	DB	00H
	DB	00H
	DB	00H
	DB	00H
	DB	00H
	DB	00H
	DB	00H
	DB	00H
	DB	00H
	DB	00H
	DB	00H
	DB	00H
	DB	00H
	DB	00H
	DB	00H
	DB	00H
	DB	00H
	DB	00H
	DB	00H
	DB	00H
	DB	00H
	DB	00H
	DB	00H
	DB	00H
	DB	00H
	DB	00H
	DB	00H
	DB	00H
	DB	00H
	DB	00H
	DB	00H
	DB	00H
	DB	00H
	DB	00H
	DB	00H
	DB	00H
	DB	00H
	DB	00H
	DB	00H
	DB	00H
	DB	00H
	DB	00H
	DB	00H
	DB	00H
	DB	00H
	DB	00H
	DB	00H
	DB	00H
	DB	00H
	DB	00H
	DB	00H
	DB	00H
	DB	00H
	DB	00H
	DB	00H
	DB	00H
	DB	00H
	DB	00H
	DB	00H
	DB	00H
	DB	00H
	DB	00H
	DB	00H
	DB	00H
	DB	00H
	DB	00H
	DB	00H
	DB	00H
	DB	00H
	DB	00H
	DB	00H
	DB	00H
	DB	00H
	DB	00H
	DB	00H
	DB	00H
	DB	00H
	DB	00H
	DB	00H
	DB	00H
	DB	00H
	DB	00H
	DB	00H
	DB	00H
	DB	00H
	DB	00H
	DB	00H
	DB	00H
	DB	00H
	DB	00H
	DB	00H
	DB	00H
	DB	00H
	DB	00H
	DB	00H
	DB	00H
	DB	00H
	DB	00H
	DB	00H
	DB	00H
	DB	00H
	DB	00H
	DB	00H
	DB	00H
	DB	00H
	DB	00H
	DB	00H
	DB	00H
	DB	00H
	DB	00H
	DB	00H
	DB	00H
	DB	00H
	DB	00H
	DB	00H
	DB	00H
	DB	00H
	DB	00H
	DB	00H
	DB	00H
	DB	00H
	DB	00H
	DB	00H
	DB	00H
	DB	00H
	DB	00H
	DB	00H
	DB	00H
	DB	00H
	DB	00H
	DB	00H
	DB	00H
	DB	00H
	DB	00H
	DB	00H
	DB	00H
	DB	00H
	DB	00H
	DB	00H
	DB	00H
	DB	00H
	DB	00H
	DB	00H
	DB	00H
	DB	00H
	DB	00H
	DB	00H
	DB	00H
	DB	00H
	DB	00H
	DB	00H
	DB	00H
	DB	00H
	DB	00H
	DB	00H
	DB	00H
	DB	00H
	DB	00H
	DB	00H
	DB	00H
	DB	00H
	DB	00H
	DB	00H
	DB	00H
	DB	00H
	DB	00H
	DB	00H
	DB	00H
	DB	00H
	DB	00H
	DB	00H
	DB	00H
	DB	00H
	DB	00H
	DB	00H
	DB	00H
	DB	00H
	DB	00H
	DB	00H
	DB	00H
	DB	00H
	DB	00H
	DB	00H
	DB	00H
	DB	00H
	DB	00H
	DB	00H
	DB	00H
	DB	00H
	DB	00H
	DB	00H
	DB	00H
	DB	00H
	DB	00H
	DB	00H
	DB	00H
	DB	00H
	DB	00H
	DB	00H
	DB	00H
	DB	00H
	DB	00H
	DB	00H
	DB	00H
	DB	00H
	DB	00H
	DB	00H
	DB	00H
	DB	00H
	DB	00H
	DB	00H
	DB	00H
	DB	00H
	DB	00H
	DB	00H
	DB	00H
	DB	00H
	DB	00H
	DB	00H
	DB	00H
	DB	00H
	DB	00H
	DB	00H
	DB	00H
	DB	00H
	DB	00H
	DB	00H
	DB	00H
	DB	00H
	DB	00H
	DB	00H
	DB	00H
	DB	00H
	DB	00H
	DB	00H
	DB	00H
	DB	00H
	DB	00H
	DB	00H
	DB	00H
	DB	00H
	DB	00H
	DB	00H
	DB	00H
	DB	00H
	DB	00H
	DB	00H
	DB	00H
	DB	00H
	DB	00H
	DB	00H
	DB	00H
	DB	00H
	DB	00H
	DB	00H
	DB	00H
	DB	00H
	DB	00H
	DB	00H
	DB	00H
	DB	00H
	DB	00H
	DB	00H
	DB	00H
	DB	00H
	DB	00H
	DB	00H
	DB	00H
	DB	00H
	DB	00H
	DB	00H
	DB	00H
	DB	00H
	DB	00H
	DB	00H
	DB	00H
	DB	00H
	DB	00H
	DB	00H
	DB	00H
	DB	00H
	DB	00H
	DB	00H
	DB	00H
	DB	00H
	DB	00H
	DB	00H
	DB	00H
	DB	00H
	DB	00H
	DB	00H
	DB	00H
	DB	00H
	DB	00H
	DB	00H
	DB	00H
	DB	00H
	DB	00H
	DB	00H
	DB	00H
	DB	00H
	DB	00H
	DB	00H
	DB	00H
	DB	00H
	DB	00H
	DB	00H
	DB	00H
	DB	00H
	DB	00H
	DB	00H
	DB	00H
	DB	00H
	DB	00H
	DB	00H
	DB	00H
	DB	00H
	DB	00H
	DB	00H
	DB	00H
	DB	00H
	DB	00H
	DB	00H
	DB	00H
	DB	00H
	DB	00H
	DB	00H
	DB	00H
	DB	00H
	DB	00H
	DB	00H
	DB	00H
	DB	00H
	DB	00H
	DB	00H
	DB	00H
	DB	00H
	DB	00H
	DB	00H
	DB	00H
	DB	00H
	DB	00H
	DB	00H
	DB	00H
	DB	00H
	DB	00H
	DB	00H
	DB	00H
	DB	00H
	DB	00H
	DB	00H
	DB	00H
	DB	00H
	DB	00H
	DB	00H
	DB	00H
	DB	00H
	DB	00H
	DB	00H
	DB	00H
	DB	00H
	DB	00H
	DB	00H
	DB	00H
	DB	00H
	DB	00H
	DB	00H
	DB	00H
	DB	00H
	DB	00H
	DB	00H
	DB	00H
	DB	00H
	DB	00H
	DB	00H
	DB	00H
	DB	00H
	DB	00H
	DB	00H
	DB	00H
	DB	00H
	DB	00H
	DB	00H
	DB	00H
	DB	00H
	DB	00H
	DB	00H
	DB	00H
	DB	00H
	DB	00H
	DB	00H
	DB	00H
	DB	00H
	DB	00H
	DB	00H
	DB	00H
	DB	00H
	DB	00H
	DB	00H
	DB	00H
	DB	00H
	DB	00H
	DB	00H
	DB	00H
	DB	00H
	DB	00H
	DB	00H
	DB	00H
	DB	00H
	DB	00H
	DB	00H
	DB	00H
	DB	00H
	DB	00H
	DB	00H
	DB	00H
	DB	00H
	DB	00H
	DB	00H
	DB	00H
	DB	00H
	DB	00H
	DB	00H
	DB	00H
	DB	00H
	DB	00H
	DB	00H
	DB	00H
	DB	00H
	DB	00H
	DB	00H
	DB	00H
	DB	00H
	DB	00H
	DB	00H
	DB	00H
	DB	00H
	DB	00H
	DB	00H
	DB	00H
	DB	00H
	DB	00H
	DB	00H
	DB	00H
	DB	00H
	DB	00H
	DB	00H
	DB	00H
	DB	00H
	DB	00H
	DB	00H
	DB	00H
	DB	00H
	DB	00H
	DB	00H
	DB	00H
	DB	00H
	DB	00H
	DB	00H
	DB	00H
	DB	00H
	DB	00H
	DB	00H
	DB	00H
	DB	00H
	DB	00H
	DB	00H
	DB	00H
	DB	00H
	DB	00H
	DB	00H
	DB	00H
	DB	00H
	DB	00H
	DB	00H
	DB	00H
	DB	00H
	DB	00H
	DB	00H
	DB	00H
	DB	00H
	DB	00H
	DB	00H
	DB	00H
	DB	00H
	DB	00H
	DB	00H
	DB	00H
	DB	00H
	DB	00H
	DB	00H
	DB	00H
	DB	00H
	DB	00H
	DB	00H
	DB	00H
	DB	00H
	DB	00H
	DB	00H
	DB	00H
	DB	00H
	DB	00H
	DB	00H
	DB	00H
	DB	00H
	DB	00H
	DB	00H
	DB	00H
	DB	00H
	DB	00H
	DB	00H
	DB	00H
	DB	00H
	DB	00H
	DB	00H
	DB	00H
	DB	00H
	DB	00H
	DB	00H
	DB	00H
	DB	00H
	DB	00H
	DB	00H
	DB	00H
	DB	00H
	DB	00H
	DB	00H
	DB	00H
	DB	00H
	DB	00H
	DB	00H
	DB	00H
	DB	00H
	DB	00H
	DB	00H
	DB	00H
	DB	00H
	DB	00H
	DB	00H
	DB	00H
	DB	00H
	DB	00H
	DB	00H
	DB	00H
	DB	00H
	DB	00H
	DB	00H
	DB	00H
	DB	00H
	DB	00H
	DB	00H
	DB	00H
	DB	00H
	DB	00H
	DB	00H
	DB	00H
	DB	00H
	DB	00H
	DB	00H
	DB	00H
	DB	00H
	DB	00H
	DB	00H
	DB	00H
	DB	00H
	DB	00H
	DB	00H
	DB	00H
	DB	00H
	DB	00H
	DB	00H
	DB	00H
	DB	00H
	DB	00H
	DB	00H
	DB	00H
	DB	00H
	DB	00H
	DB	00H
	DB	00H
	DB	00H
	DB	00H
	DB	00H
	DB	00H
	DB	00H
	DB	00H
	DB	00H
	DB	00H
	DB	00H
	DB	00H
	DB	00H
	DB	00H
	DB	00H
	DB	00H
	DB	00H
	DB	00H
	DB	00H
	DB	00H
	DB	00H
	DB	00H
	DB	00H
	DB	00H
	DB	00H
	DB	00H
	DB	00H
	DB	00H
	DB	00H
	DB	00H
	DB	00H
	DB	00H
	DB	00H
	DB	00H
	DB	00H
	DB	00H
	DB	00H
	DB	00H
	DB	00H
	DB	00H
	DB	00H
	DB	00H
	DB	00H
	DB	00H
	DB	00H
	DB	00H
	DB	00H
	DB	00H
	DB	00H
	DB	00H
	DB	00H
	DB	00H
	DB	00H
	DB	00H
	DB	00H
	DB	00H
	DB	00H
	DB	00H
	DB	00H
	DB	00H
	DB	00H
	DB	00H
	DB	00H
	DB	00H
	DB	00H
	DB	00H
	DB	00H
	DB	00H
	DB	00H
	DB	00H
	DB	00H
	DB	00H
	DB	00H
	DB	00H
	DB	00H
	DB	00H
	DB	00H
	DB	00H
	DB	00H
	DB	00H
	DB	00H
	DB	00H
	DB	00H
	DB	00H
	DB	00H
	DB	00H
	DB	00H
	DB	00H
	DB	00H
	DB	00H
	DB	00H
	DB	00H
	DB	00H
	DB	00H
	DB	00H
	DB	00H
	DB	00H
	DB	00H
	DB	00H
	DB	00H
	DB	00H
	DB	00H
	DB	00H
	DB	00H
	DB	00H
	DB	00H
	DB	00H
	DB	00H
	DB	00H
	DB	00H
	DB	00H
	DB	00H
	DB	00H
	DB	00H
	DB	00H
	DB	00H
	DB	00H
	DB	00H
	DB	00H
	DB	00H
	DB	00H
	DB	00H
	DB	00H
	DB	00H
	DB	00H
	DB	00H
	DB	00H
	DB	00H
	DB	00H
	DB	00H
	DB	00H
	DB	00H
	DB	00H
	DB	00H
	DB	00H
	DB	00H
	DB	00H
	DB	00H
	DB	00H
	DB	00H
	DB	00H
	DB	00H
	DB	00H
	DB	00H
	DB	00H
	DB	00H
	DB	00H
	DB	00H
	DB	00H
	DB	00H
	DB	00H
	DB	00H
	DB	00H
	DB	00H
	DB	00H
	DB	00H
	DB	00H
	DB	00H
	DB	00H
	DB	00H
	DB	00H
	DB	00H
	DB	00H
	DB	00H
	DB	00H
	DB	00H
	DB	00H
	DB	00H
	DB	00H
	DB	00H
	DB	00H
	DB	00H
	DB	00H
	DB	00H
	DB	00H
	DB	00H
	DB	00H
	DB	00H
	DB	00H
	DB	00H
	DB	00H
	DB	00H
	DB	00H
	DB	00H
	DB	00H
	DB	00H
	DB	00H
	DB	00H
	DB	00H
	DB	00H
	DB	00H
	DB	00H
	DB	00H
	DB	00H
	DB	00H
	DB	00H
	DB	00H
	DB	00H
	DB	00H
	DB	00H
	DB	00H
	DB	00H
	DB	00H
	DB	00H
	DB	00H
	DB	00H
	DB	00H
	DB	00H
	DB	00H
	DB	00H
	DB	00H
	DB	00H
	DB	00H
	DB	00H
	DB	00H
	DB	00H
	DB	00H
	DB	00H
	DB	00H
	DB	00H
	DB	00H
	DB	00H
	DB	00H
	DB	00H
	DB	00H
	DB	00H
	DB	00H
	DB	00H
	DB	00H
	DB	00H
	DB	00H
	DB	00H
	DB	00H
	DB	00H
	DB	00H
	DB	00H
	DB	00H
	DB	00H
	DB	00H
	DB	00H
	DB	00H
	DB	00H
	DB	00H
	DB	00H
	DB	00H
	DB	00H
	DB	00H
	DB	00H
	DB	00H
	DB	00H
	DB	00H
	DB	00H
	DB	00H
	DB	00H
	DB	00H
	DB	00H
	DB	00H
	DB	00H
	DB	00H
	DB	00H
	DB	00H
	DB	00H
	DB	00H
	DB	00H
	DB	00H
	DB	00H
	DB	00H
	DB	00H
	DB	00H
	DB	00H
	DB	00H
	DB	00H
	DB	00H
	DB	00H
	DB	00H
	DB	00H
	DB	00H
	DB	00H
	DB	00H
	DB	00H
	DB	00H
	DB	00H
	DB	00H
	DB	00H
	DB	00H
	DB	00H
	DB	00H
	DB	00H
	DB	00H
	DB	00H
	DB	00H
	DB	00H
	DB	00H
	DB	00H
	DB	00H
	DB	00H
	DB	00H
	DB	00H
	DB	00H
	DB	00H
	DB	00H
	DB	00H
	DB	00H
	DB	00H
	DB	00H
	DB	00H
	DB	00H
	DB	00H
	DB	00H
	DB	00H
	DB	00H
	DB	00H
	DB	00H
	DB	00H
	DB	00H
	DB	00H
	DB	00H
	DB	00H
	DB	00H
	DB	00H
	DB	00H
	DB	00H
	DB	00H
	DB	00H
	DB	00H
	DB	00H
	DB	00H
	DB	00H
	DB	00H
	DB	00H
	DB	00H
	DB	00H
	DB	00H
	DB	00H
	DB	00H
	DB	00H
	DB	00H
	DB	00H
	DB	00H
	DB	00H
	DB	00H
	DB	00H
	DB	00H
	DB	00H
	DB	00H
	DB	00H
	DB	00H
	DB	00H
	DB	00H
	DB	00H
	DB	00H
	DB	00H
	DB	00H
	DB	00H
	DB	00H
	DB	00H
	DB	00H
	DB	00H
	DB	00H
	DB	00H
	DB	00H
	DB	00H
	DB	00H
	DB	00H
	DB	00H
	DB	00H
	DB	00H
	DB	00H
	DB	00H
	DB	00H
	DB	00H
	DB	00H
	DB	00H
	DB	00H
	DB	00H
	DB	00H
	DB	00H
	DB	00H
	DB	00H
	DB	00H
	DB	00H
	DB	00H
	DB	00H
	DB	00H
	DB	00H
	DB	00H
	DB	00H
	DB	00H
	DB	00H
	DB	00H
	DB	00H
	DB	00H
	DB	00H
	DB	00H
	DB	00H
	DB	00H
	DB	00H
	DB	00H
	DB	00H
	DB	00H
	DB	00H
	DB	00H
	DB	00H
	DB	00H
	DB	00H
	DB	00H
	DB	00H
	DB	00H
	DB	00H
	DB	00H
	DB	00H
	DB	00H
	DB	00H
	DB	00H
	DB	00H
	DB	00H
	DB	00H
	DB	00H
	DB	00H
	DB	00H
	DB	00H
	DB	00H
	DB	00H
	DB	00H
	DB	00H
	DB	00H
	DB	00H
	DB	00H
	DB	00H
	DB	00H
	DB	00H
	DB	00H
	DB	00H
	DB	00H
	DB	00H
	DB	00H
	DB	00H
	DB	00H
	DB	00H
	DB	00H
	DB	00H
	DB	00H
	DB	00H
	DB	00H
	DB	00H
	DB	00H
	DB	00H
	DB	00H
	DB	00H
	DB	00H
	DB	00H
	DB	00H
	DB	00H
	DB	00H
	DB	00H
	DB	00H
	DB	00H
	DB	00H
	DB	00H
	DB	00H
	DB	00H
	DB	00H
	DB	00H
	DB	00H
	DB	00H
	DB	00H
	DB	00H
	DB	00H
	DB	00H
	DB	00H
	DB	00H
	DB	00H
	DB	00H
	DB	00H
	DB	00H
	DB	00H
	DB	00H
	DB	00H
	DB	00H
	DB	00H
	DB	00H
	DB	00H
	DB	00H
	DB	00H
	DB	00H
	DB	00H
	DB	00H
	DB	00H
	DB	00H
	DB	00H
	DB	00H
	DB	00H
	DB	00H
	DB	00H
	DB	00H
	DB	00H
	DB	00H
	DB	00H
	DB	00H
	DB	00H
	DB	00H
	DB	00H
	DB	00H
	DB	00H
	DB	00H
	DB	00H
	DB	00H
	DB	00H
	DB	00H
	DB	00H
	DB	00H
	DB	00H
	DB	00H
	DB	00H
	DB	00H
	DB	00H
	DB	00H
	DB	00H
	DB	00H
	DB	00H
	DB	00H
	DB	00H
	DB	00H
	DB	00H
	DB	00H
	DB	00H
	DB	00H
	DB	00H
	DB	00H
	DB	00H
	DB	00H
	DB	00H
	DB	00H
	DB	00H
	DB	00H
	DB	00H
	DB	00H
	DB	00H
	DB	00H
	DB	00H
	DB	00H
	DB	00H
	DB	00H
	DB	00H
	DB	00H
	DB	00H
	DB	00H
	DB	00H
	DB	00H
	DB	00H
	DB	00H
	DB	00H
	DB	00H
	DB	00H
	DB	00H
	DB	00H
	DB	00H
	DB	00H
	DB	00H
	DB	00H
	DB	00H
	DB	00H
	DB	00H
	DB	00H
	DB	00H
	DB	00H
	DB	00H
	DB	00H
	DB	00H
	DB	00H
	DB	00H
	DB	00H
	DB	00H
	DB	00H
	DB	00H
	DB	00H
	DB	00H
	DB	00H
	DB	00H
	DB	00H
	DB	00H
	DB	00H
	DB	00H
	DB	00H
	DB	00H
	DB	00H
	DB	00H
	DB	00H
	DB	00H
	DB	00H
	DB	00H
	DB	00H
	DB	00H
	DB	00H
	DB	00H
	DB	00H
	DB	00H
	DB	00H
	DB	00H
	DB	00H
	DB	00H
	DB	00H
	DB	00H
	DB	00H
	DB	00H
	DB	00H
	DB	00H
	DB	00H
	DB	00H
	DB	00H
	DB	00H
	DB	00H
	DB	00H
	DB	00H
	DB	00H
	DB	00H
	DB	00H
	DB	00H
	DB	00H
	DB	00H
	DB	00H
	DB	00H
	DB	00H
	DB	00H
	DB	00H
	DB	00H
	DB	00H
	DB	00H
	DB	00H
	DB	00H
	DB	00H
	DB	00H
	DB	00H
	DB	00H
	DB	00H
	DB	00H
	DB	00H
	DB	00H
	DB	00H
	DB	00H
	DB	00H
	DB	00H
	DB	00H
	DB	00H
	DB	00H
	DB	00H
	DB	00H
	DB	00H
	DB	00H
	DB	00H
	DB	00H
	DB	00H
	DB	00H
	DB	00H
	DB	00H
	DB	00H
	DB	00H
	DB	00H
	DB	00H
	DB	00H
	DB	00H
	DB	00H
	DB	00H
	DB	00H
	DB	00H
	DB	00H
	DB	00H
	DB	00H
	DB	00H
	DB	00H
	DB	00H
	DB	00H
	DB	00H
	DB	00H
	DB	00H
	DB	00H
	DB	00H
	DB	00H
	DB	00H
	DB	00H
	DB	00H
	DB	00H
	DB	00H
	DB	00H
	DB	00H
	DB	00H
	DB	00H
	DB	00H
	DB	00H
	DB	00H
	DB	00H
	DB	00H
	DB	00H
	DB	00H
	DB	00H
	DB	00H
	DB	00H
	DB	00H
	DB	00H
	DB	00H
	DB	00H
	DB	00H
	DB	00H
	DB	00H
	DB	00H
	DB	00H
	DB	00H
	DB	00H
	DB	00H
	DB	00H
	DB	00H
	DB	00H
	DB	00H
	DB	00H
	DB	00H
	DB	00H
	DB	00H
	DB	00H
	DB	00H
	DB	00H
	DB	00H
	DB	00H
	DB	00H
	DB	00H
	DB	00H
	DB	00H
	DB	00H
	DB	00H
	DB	00H
	DB	00H
	DB	00H
	DB	00H
	DB	00H
	DB	00H
	DB	00H
	DB	00H
	DB	00H
	DB	00H
	DB	00H
	DB	00H
	DB	00H
	DB	00H
	DB	00H
	DB	00H
	DB	00H
	DB	00H
	DB	00H
	DB	00H
	DB	00H
	DB	00H
	DB	00H
	DB	00H
	DB	00H
	DB	00H
	DB	00H
	DB	00H
	DB	00H
	DB	00H
	DB	00H
	DB	00H
	DB	00H
	DB	00H
	DB	00H
	DB	00H
	DB	00H
	DB	00H
	DB	00H
	DB	00H
	DB	00H
	DB	00H
	DB	00H
	DB	00H
	DB	00H
	DB	00H
	DB	00H
	DB	00H
	DB	00H
	DB	00H
	DB	00H
	DB	00H
	DB	00H
	DB	00H
	DB	00H
	DB	00H
	DB	00H
	DB	00H
	DB	00H
	DB	00H
	DB	00H
	DB	00H
	DB	00H
	DB	00H
	DB	00H
	DB	00H
	DB	00H
	DB	00H
	DB	00H
	DB	00H
	DB	00H
	DB	00H
	DB	00H
	DB	00H
	DB	00H
	DB	00H
	DB	00H
	DB	00H
	DB	00H
	DB	00H
	DB	00H
	DB	00H
	DB	00H
	DB	00H
	DB	00H
	DB	00H
	DB	00H
	DB	00H
	DB	00H
	DB	00H
	DB	00H
	DB	00H
	DB	00H
	DB	00H
	DB	00H
	DB	00H
	DB	00H
	DB	00H
	DB	00H
	DB	00H
	DB	00H
	DB	00H
	DB	00H
	DB	00H
	DB	00H
	DB	00H
	DB	00H
	DB	00H
	DB	00H
	DB	00H
	DB	00H
	DB	00H
	DB	00H
	DB	00H
	DB	00H
	DB	00H
	DB	00H
	DB	00H
	DB	00H
	DB	00H
	DB	00H
	DB	00H
	DB	00H
	DB	00H
	DB	00H
	DB	00H
	DB	00H
	DB	00H
	DB	00H
	DB	00H
	DB	00H
	DB	00H
	DB	00H
	DB	00H
	DB	00H
	DB	00H
	DB	00H
	DB	00H
	DB	00H
	DB	00H
	DB	00H
	DB	00H
	DB	00H
	DB	00H
	DB	00H
	DB	00H
	DB	00H
	DB	00H
	DB	00H
	DB	00H
	DB	00H
	DB	00H
	DB	00H
	DB	00H
	DB	00H
	DB	00H
	DB	00H
	DB	00H
	DB	00H
	DB	00H
	DB	00H
	DB	00H
	DB	00H
	DB	00H
	DB	00H
	DB	00H
	DB	00H
	DB	00H
	DB	00H
	DB	00H
	DB	00H
	DB	00H
	DB	00H
	DB	00H
	DB	00H
	DB	00H
	DB	00H
	DB	00H
	DB	00H
	DB	00H
	DB	00H
	DB	00H
	DB	00H
	DB	00H
	DB	00H
	DB	00H
	DB	00H
	DB	00H
	DB	00H
	DB	00H
	DB	00H
	DB	00H
	DB	00H
	DB	00H
	DB	00H
	DB	00H
	DB	00H
	DB	00H
	DB	00H
	DB	00H
	DB	00H
	DB	00H
	DB	00H
	DB	00H
	DB	00H
	DB	00H
	DB	00H
	DB	00H
	DB	00H
	DB	00H
	DB	00H
	DB	00H
	DB	00H
	DB	00H
	DB	00H
	DB	00H
	DB	00H
	DB	00H
	DB	00H
	DB	00H
	DB	00H
	DB	00H
	DB	00H
	DB	00H
	DB	00H
	DB	00H
	DB	00H
	DB	00H
	DB	00H
	DB	00H
	DB	00H
	DB	00H
	DB	00H
	DB	00H
	DB	00H
	DB	00H
	DB	00H
	DB	00H
	DB	00H
	DB	00H
	DB	00H
	DB	00H
	DB	00H
	DB	00H
	DB	00H
	DB	00H
	DB	00H
	DB	00H
	DB	00H
	DB	00H
	DB	00H
	DB	00H
	DB	00H
	DB	00H
	DB	00H
	DB	00H
	DB	00H
	DB	00H
	DB	00H
	DB	00H
	DB	00H
	DB	00H
	DB	00H
	DB	00H
	DB	00H
	DB	00H
	DB	00H
	DB	00H
	DB	00H
	DB	00H
	DB	00H
	DB	00H
	DB	00H
	DB	00H
	DB	00H
	DB	00H
	DB	00H
	DB	00H
	DB	00H
	DB	00H
	DB	00H
	DB	00H
	DB	00H
	DB	00H
	DB	00H
	DB	00H
	DB	00H
	DB	00H
	DB	00H
	DB	00H
	DB	00H
	DB	00H
	DB	00H
	DB	00H
	DB	00H
	DB	00H
	DB	00H
	DB	00H
	DB	00H
	DB	00H
	DB	00H
	DB	00H
	DB	00H
	DB	00H
	DB	00H
	DB	00H
	DB	00H
	DB	00H
	DB	00H
	DB	00H
	DB	00H
	DB	00H
	DB	00H
	DB	00H
	DB	00H
	DB	00H
	DB	00H
	DB	00H
	DB	00H
	DB	00H
	DB	00H
	DB	00H
	DB	00H
	DB	00H
	DB	00H
	DB	00H
	DB	00H
	DB	00H
	DB	00H
	DB	00H
	DB	00H
	DB	00H
	DB	00H
	DB	00H
	DB	00H
	DB	00H
	DB	00H
	DB	00H
	DB	00H
	DB	00H
	DB	00H
	DB	00H
	DB	00H
	DB	00H
	DB	00H
	DB	00H
	DB	00H
	DB	00H
	DB	00H
	DB	00H
	DB	00H
	DB	00H
	DB	00H
	DB	00H
	DB	00H
	DB	00H
	DB	00H
	DB	00H
	DB	00H
	DB	00H
	DB	00H
	DB	00H
	DB	00H
	DB	00H
	DB	00H
	DB	00H
	DB	00H
	DB	00H
	DB	00H
	DB	00H
	DB	00H
	DB	00H
	DB	00H
	DB	00H
	DB	00H
	DB	00H
	DB	00H
	DB	00H
	DB	00H
	DB	00H
	DB	00H
	DB	00H
	DB	00H
	DB	00H
	DB	00H
	DB	00H
	DB	00H
	DB	00H
	DB	00H
	DB	00H
	DB	00H
	DB	00H
	DB	00H
	DB	00H
	DB	00H
	DB	00H
	DB	00H
	DB	00H
	DB	00H
	DB	00H
	DB	00H
	DB	00H
	DB	00H
	DB	00H
	DB	00H
	DB	00H
	DB	00H
	DB	00H
	DB	00H
	DB	00H
	DB	00H
	DB	00H
	DB	00H
	DB	00H
	DB	00H
	DB	00H
	DB	00H
	DB	00H
	DB	00H
	DB	00H
	DB	00H
	DB	00H
	DB	00H
	DB	00H
	DB	00H
	DB	00H
	DB	00H
	DB	00H
	DB	00H
	DB	00H
	DB	00H
	DB	00H
	DB	00H
	DB	00H
	DB	00H
	DB	00H
	DB	00H
	DB	00H
	DB	00H
	DB	00H
	DB	00H
	DB	00H
	DB	00H
	DB	00H
	DB	00H
	DB	00H
	DB	00H
	DB	00H
	DB	00H
	DB	00H
	DB	00H
	DB	00H
	DB	00H
	DB	00H
	DB	00H
	DB	00H
	DB	00H
	DB	00H
	DB	00H
	DB	00H
	DB	00H
	DB	00H
	DB	00H
	DB	00H
	DB	00H
	DB	00H
	DB	00H
	DB	00H
	DB	00H
	DB	00H
	DB	00H
	DB	00H
	DB	00H
	DB	00H
	DB	00H
	DB	00H
	DB	00H
	DB	00H
	DB	00H
	DB	00H
	DB	00H
	DB	00H
	DB	00H
	DB	00H
	DB	00H
	DB	00H
	DB	00H
	DB	00H
	DB	00H
	DB	00H
	DB	00H
	DB	00H
	DB	00H
	DB	00H
	DB	00H
	DB	00H
	DB	00H
	DB	00H
	DB	00H
	DB	00H
	DB	00H
	DB	00H
	DB	00H
	DB	00H
	DB	00H
	DB	00H
	DB	00H
	DB	00H
	DB	00H
	DB	00H
	DB	00H
	DB	00H
	DB	00H
	DB	00H
	DB	00H
	DB	00H
	DB	00H
	DB	00H
	DB	00H
	DB	00H
	DB	00H
	DB	00H
	DB	00H
	DB	00H
	DB	00H
	DB	00H
	DB	00H
	DB	00H
	DB	00H
	DB	00H
	DB	00H
	DB	00H
	DB	00H
	DB	00H
	DB	00H
	DB	00H
	DB	00H
	DB	00H
	DB	00H
	DB	00H
	DB	00H
	DB	00H
	DB	00H
	DB	00H
	DB	00H
	DB	00H
	DB	00H
	DB	00H
	DB	00H
	DB	00H
	DB	00H
	DB	00H
	DB	00H
	DB	00H
	DB	00H
	DB	00H
	DB	00H
	DB	00H
	DB	00H
	DB	00H
	DB	00H
	DB	00H
	DB	00H
	DB	00H
	DB	00H
	DB	00H
	DB	00H
	DB	00H
	DB	00H
	DB	00H
	DB	00H
	DB	00H
	DB	00H
	DB	00H
	DB	00H
	DB	00H
	DB	00H
	DB	00H
	DB	00H
	DB	00H
	DB	00H
	DB	00H
	DB	00H
	DB	00H
	DB	00H
	DB	00H
	DB	00H
	DB	00H
	DB	00H
	DB	00H
	DB	00H
	DB	00H
	DB	00H
	DB	00H
	DB	00H
	DB	00H
	DB	00H
	DB	00H
	DB	00H
	DB	00H
	DB	00H
	DB	00H
	DB	00H
	DB	00H
	DB	00H
	DB	00H
	DB	00H
	DB	00H
	DB	00H
	DB	00H
	DB	00H
	DB	00H
	DB	00H
	DB	00H
	DB	00H
	DB	00H
	DB	00H
	DB	00H
	DB	00H
	DB	00H
	DB	00H
	DB	00H
	DB	00H
	DB	00H
	DB	00H
	DB	00H
	DB	00H
	DB	00H
	DB	00H
	DB	00H
	DB	00H
	DB	00H
	DB	00H
	DB	00H
	DB	00H
	DB	00H
	DB	00H
	DB	00H
	DB	00H
	DB	00H
	DB	00H
	DB	00H
	DB	00H
	DB	00H
	DB	00H
	DB	00H
	DB	00H
	DB	00H
	DB	00H
	DB	00H
	DB	00H
	DB	00H
	DB	00H
	DB	00H
	DB	00H
	DB	00H
	DB	00H
	DB	00H
	DB	00H
	DB	00H
	DB	00H
	DB	00H
	DB	00H
	DB	00H
	DB	00H
	DB	00H
	DB	00H
	DB	00H
	DB	00H
	DB	00H
	DB	00H
	DB	00H
	DB	00H
	DB	00H
	DB	00H
	DB	00H
	DB	00H
	DB	00H
	DB	00H
	DB	00H
	DB	00H
	DB	00H
	DB	00H
	DB	00H
	DB	00H
	DB	00H
	DB	00H
	DB	00H
	DB	00H
	DB	00H
	DB	00H
	DB	00H
	DB	00H
	DB	00H
	DB	00H
	DB	00H
	DB	00H
	DB	00H
	DB	00H
	DB	00H
	DB	00H
	DB	00H
	DB	00H
	DB	00H
	DB	00H
	DB	00H
	DB	00H
	DB	00H
	DB	00H
	DB	00H
	DB	00H
	DB	00H
	DB	00H
	DB	00H
	DB	00H
	DB	00H
	DB	00H
	DB	00H
	DB	00H
	DB	00H
	DB	00H
	DB	00H
	DB	00H
	DB	00H
	DB	00H
	DB	00H
	DB	00H
	DB	00H
	DB	00H
	DB	00H
	DB	00H
	DB	00H
	DB	00H
	DB	00H
	DB	00H
	DB	00H
	DB	00H
	DB	00H
	DB	00H
	DB	00H
	DB	00H
	DB	00H
	DB	00H
	DB	00H
	DB	00H
	DB	00H
	DB	00H
	DB	00H
	DB	00H
	DB	00H
	DB	00H
	DB	00H
	DB	00H
	DB	00H
	DB	00H
	DB	00H
	DB	00H
	DB	00H
	DB	00H
	DB	00H
	DB	00H
	DB	00H
	DB	00H
	DB	00H
	DB	00H
	DB	00H
	DB	00H
	DB	00H
	DB	00H
	DB	00H
	DB	00H
	DB	00H
	DB	00H
	DB	00H
	DB	00H
	DB	00H
	DB	00H
	DB	00H
	DB	00H
	DB	00H
	DB	00H
	DB	00H
	DB	00H
	DB	00H
	DB	00H
	DB	00H
	DB	00H
	DB	00H
	DB	00H
	DB	00H
	DB	00H
	DB	00H
	DB	00H
	DB	00H
	DB	00H
	DB	00H
	DB	00H
	DB	00H
	DB	00H
	DB	00H
	DB	00H
	DB	00H
	DB	00H
	DB	00H
	DB	00H
	DB	00H
	DB	00H
	DB	00H
	DB	00H
	DB	00H
	DB	00H
	DB	00H
	DB	00H
	DB	00H
	DB	00H
	DB	00H
	DB	00H
	DB	00H
	DB	00H
	DB	00H
	DB	00H
	DB	00H
	DB	00H
	DB	00H
	DB	00H
	DB	00H
	DB	00H
	DB	00H
	DB	00H
	DB	00H
	DB	00H
	DB	00H
	DB	00H
	DB	00H
	DB	00H
	DB	00H
	DB	00H
	DB	00H
	DB	00H
	DB	00H
	DB	00H
	DB	00H
	DB	00H
	DB	00H
	DB	00H
	DB	00H
	DB	00H
	DB	00H
	DB	00H
	DB	00H
	DB	00H
	DB	00H
	DB	00H
	DB	00H
	DB	00H
	DB	00H
	DB	00H
	DB	00H
	DB	00H
	DB	00H
	DB	00H
	DB	00H
	DB	00H
	DB	00H
	DB	00H
	DB	00H
	DB	00H
	DB	00H
	DB	00H
	DB	00H
	DB	00H
	DB	00H
	DB	00H
	DB	00H
	DB	00H
	DB	00H
	DB	00H
	DB	00H
	DB	00H
	DB	00H
	DB	00H
	DB	00H
	DB	00H
	DB	00H
	DB	00H
	DB	00H
	DB	00H
	DB	00H
	DB	00H
	DB	00H
	DB	00H
	DB	00H
	DB	00H
	DB	00H
	DB	00H
	DB	00H
	DB	00H
	DB	00H
	DB	00H
	DB	00H
	DB	00H
	DB	00H
	DB	00H
	DB	00H
	DB	00H
	DB	00H
	DB	00H
	DB	00H
	DB	00H
	DB	00H
	DB	00H
	DB	00H
	DB	00H
	DB	00H
	DB	00H
	DB	00H
	DB	00H
	DB	00H
	DB	00H
	DB	00H
	DB	00H
	DB	00H
	DB	00H
	DB	00H
	DB	00H
	DB	00H
	DB	00H
	DB	00H
	DB	00H
	DB	00H
	DB	00H
	DB	00H
	DB	00H
	DB	00H
	DB	00H
	DB	00H
	DB	00H
	DB	00H
	DB	00H
	DB	00H
	DB	00H
	DB	00H
	DB	00H
	DB	00H
	DB	00H
	DB	00H
	DB	00H
	DB	00H
	DB	00H
	DB	00H
	DB	00H
	DB	00H
	DB	00H
	DB	00H
	DB	00H
	DB	00H
	DB	00H
	DB	00H
	DB	00H
	DB	00H
	DB	00H
	DB	00H
	DB	00H
	DB	00H
	DB	00H
	DB	00H
	DB	00H
	DB	00H
	DB	00H
	DB	00H
	DB	00H
	DB	00H
	DB	00H
	DB	00H
	DB	00H
	DB	00H
	DB	00H
	DB	00H
	DB	00H
	DB	00H
	DB	00H
	DB	00H
	DB	00H
	DB	00H
	DB	00H
	DB	00H
	DB	00H
	DB	00H
	DB	00H
	DB	00H
	DB	00H
	DB	00H
	DB	00H
	DB	00H
	DB	00H
	DB	00H
	DB	00H
	DB	00H
	DB	00H
	DB	00H
	DB	00H
	DB	00H
	DB	00H
	DB	00H
	DB	00H
	DB	00H
	DB	00H
	DB	00H
	DB	00H
	DB	00H
	DB	00H
	DB	00H
	DB	00H
	DB	00H
	DB	00H
	DB	00H
	DB	00H
	DB	00H
	DB	00H
	DB	00H
	DB	00H
	DB	00H
	DB	00H
	DB	00H
	DB	00H
	DB	00H
	DB	00H
	DB	00H
	DB	00H
	DB	00H
	DB	00H
	DB	00H
	DB	00H
	DB	00H
	DB	00H
	DB	00H
	DB	00H
	DB	00H
	DB	00H
	DB	00H
	DB	00H
	DB	00H
	DB	00H
	DB	00H
	DB	00H
	DB	00H
	DB	00H
	DB	00H
	DB	00H
	DB	00H
	DB	00H
	DB	00H
	DB	00H
	DB	00H
	DB	00H
	DB	00H
	DB	00H
	DB	00H
	DB	00H
	DB	00H
	DB	00H
	DB	00H
	DB	00H
	DB	00H
	DB	00H
	DB	00H
	DB	00H
	DB	00H
	DB	00H
	DB	00H
	DB	00H
	DB	00H
	DB	00H
	DB	00H
	DB	00H
	DB	00H
	DB	00H
	DB	00H
	DB	00H
	DB	00H
	DB	00H
	DB	00H
	DB	00H
	DB	00H
	DB	00H
	DB	00H
	DB	00H
	DB	00H
	DB	00H
	DB	00H
	DB	00H
	DB	00H
	DB	00H
	DB	00H
	DB	00H
	DB	00H
	DB	00H
	DB	00H
	DB	00H
	DB	00H
	DB	00H
	DB	00H
	DB	00H
	DB	00H
	DB	00H
	DB	00H
	DB	00H
	DB	00H
	DB	00H
	DB	00H
	DB	00H
	DB	00H
	DB	00H
	DB	00H
	DB	00H
	DB	00H
	DB	00H
	DB	00H
	DB	00H
	DB	00H
	DB	00H
	DB	00H
	DB	00H
	DB	00H
	DB	00H
	DB	00H
	DB	00H
	DB	00H
	DB	00H
	DB	00H
	DB	00H
	DB	00H
	DB	00H
	DB	00H
	DB	00H
	DB	00H
	DB	00H
	DB	00H
	DB	00H
	DB	00H
	DB	00H
	DB	00H
	DB	00H
	DB	00H
	DB	00H
	DB	00H
	DB	00H
	DB	00H
	DB	00H
	DB	00H
	DB	00H
	DB	00H
	DB	00H
	DB	00H
	DB	00H
	DB	00H
	DB	00H
	DB	00H
	DB	00H
	DB	00H
	DB	00H
	DB	00H
	DB	00H
	DB	00H
	DB	00H
	DB	00H
	DB	00H
	DB	00H
	DB	00H
	DB	00H
	DB	00H
	DB	00H
	DB	00H
	DB	00H
	DB	00H
	DB	00H
	DB	00H
	DB	00H
	DB	00H
	DB	00H
	DB	00H
	DB	00H
	DB	00H
	DB	00H
	DB	00H
	DB	00H
	DB	00H
	DB	00H
	DB	00H
	DB	00H
	DB	00H
	DB	00H
	DB	00H
	DB	00H
	DB	00H
	DB	00H
	DB	00H
	DB	00H
	DB	00H
	DB	00H
	DB	00H
	DB	00H
	DB	00H
	DB	00H
	DB	00H
	DB	00H
	DB	00H
	DB	00H
	DB	00H
	DB	00H
	DB	00H
	DB	00H
	DB	00H
	DB	00H
	DB	00H
	DB	00H
	DB	00H
	DB	00H
	DB	00H
	DB	00H
	DB	00H
	DB	00H
	DB	00H
	DB	00H
	DB	00H
	DB	00H
	DB	00H
	DB	00H
	DB	00H
	DB	00H
	DB	00H
	DB	00H
	DB	00H
	DB	00H
	DB	00H
	DB	00H
	DB	00H
	DB	00H
	DB	00H
	DB	00H
	DB	00H
	DB	00H
	DB	00H
	DB	00H
	DB	00H
	DB	00H
	DB	00H
	DB	00H
	DB	00H
	DB	00H
	DB	00H
	DB	00H
	DB	00H
	DB	00H
	DB	00H
	DB	00H
	DB	00H
	DB	00H
	DB	00H
	DB	00H
	DB	00H
	DB	00H
	DB	00H
	DB	00H
	DB	00H
	DB	00H
	DB	00H
	DB	00H
	DB	00H
	DB	00H
	DB	00H
	DB	00H
	DB	00H
	DB	00H
	DB	00H
	DB	00H
	DB	00H
	DB	00H
	DB	00H
	DB	00H
	DB	00H
	DB	00H
	DB	00H
	DB	00H
	DB	00H
	DB	00H
	DB	00H
	DB	00H
	DB	00H
	DB	00H
	DB	00H
	DB	00H
	DB	00H
	DB	00H
	DB	00H
	DB	00H
	DB	00H
	DB	00H
	DB	00H
	DB	00H
	DB	00H
	DB	00H
	DB	00H
	DB	00H
	DB	00H
	DB	00H
	DB	00H
	DB	00H
	DB	00H
	DB	00H
	DB	00H
	DB	00H
	DB	00H
	DB	00H
	DB	00H
	DB	00H
	DB	00H
	DB	00H
	DB	00H
	DB	00H
	DB	00H
	DB	00H
	DB	00H
	DB	00H
	DB	00H
	DB	00H
	DB	00H
	DB	00H
	DB	00H
	DB	00H
	DB	00H
	DB	00H
	DB	00H
	DB	00H
	DB	00H
	DB	00H
	DB	00H
	DB	00H
	DB	00H
	DB	00H
	DB	00H
	DB	00H
	DB	00H
	DB	00H
	DB	00H
	DB	00H
	DB	00H
	DB	00H
	DB	00H
	DB	00H
	DB	00H
	DB	00H
	DB	00H
	DB	00H
	DB	00H
	DB	00H
	DB	00H
	DB	00H
	DB	00H
	DB	00H
	DB	00H
	DB	00H
	DB	00H
	DB	00H
	DB	00H
	DB	00H
	DB	00H
	DB	00H
	DB	00H
	DB	00H
	DB	00H
	DB	00H
	DB	00H
	DB	00H
	DB	00H
	DB	00H
	DB	00H
	DB	00H
	DB	00H
	DB	00H
	DB	00H
	DB	00H
	DB	00H
	DB	00H
	DB	00H
	DB	00H
	DB	00H
	DB	00H
	DB	00H
	DB	00H
	DB	00H
	DB	00H
	DB	00H
	DB	00H
	DB	00H
	DB	00H
	DB	00H
	DB	00H
	DB	00H
	DB	00H
	DB	00H
	DB	00H
	DB	00H
	DB	00H
	DB	00H
	DB	00H
	DB	00H
	DB	00H
	DB	00H
	DB	00H
	DB	00H
	DB	00H
	DB	00H
	DB	00H
	DB	00H
	DB	00H
	DB	00H
	DB	00H
	DB	00H
	DB	00H
	DB	00H
	DB	00H
	DB	00H
	DB	00H
	DB	00H
	DB	00H
	DB	00H
	DB	00H
	DB	00H
	DB	00H
	DB	00H
	DB	00H
	DB	00H
	DB	00H
	DB	00H
	DB	00H
	DB	00H
	DB	00H
	DB	00H
	DB	00H
	DB	00H
	DB	00H
	DB	00H
	DB	00H
	DB	00H
	DB	00H
	DB	00H
	DB	00H
	DB	00H
	DB	00H
	DB	00H
	DB	00H
	DB	00H
	DB	00H
	DB	00H
	DB	00H
	DB	00H
	DB	00H
	DB	00H
	DB	00H
	DB	00H
	DB	00H
	DB	00H
	DB	00H
	DB	00H
	DB	00H
	DB	00H
	DB	00H
	DB	00H
	DB	00H
	DB	00H
	DB	00H
	DB	00H
	DB	00H
	DB	00H
	DB	00H
	DB	00H
	DB	00H
	DB	00H
	DB	00H
	DB	00H
	DB	00H
	DB	00H
	DB	00H
	DB	00H
	DB	00H
	DB	00H
	DB	00H
	DB	00H
	DB	00H
	DB	00H
	DB	00H
	DB	00H
	DB	00H
	DB	00H
	DB	00H
	DB	00H
	DB	00H
	DB	00H
	DB	00H
	DB	00H
	DB	00H
	DB	00H
	DB	00H
	DB	00H
	DB	00H
	DB	00H
	DB	00H
	DB	00H
	DB	00H
	DB	00H
	DB	00H
	DB	00H
	DB	00H
	DB	00H
	DB	00H
	DB	00H
	DB	00H
	DB	00H
	DB	00H
	DB	00H
	DB	00H
	DB	00H
	DB	00H
	DB	00H
	DB	00H
	DB	00H
	DB	00H
	DB	00H
	DB	00H
	DB	00H
	DB	00H
	DB	00H
	DB	00H
	DB	00H
	DB	00H
	DB	00H
	DB	00H
	DB	00H
	DB	00H
	DB	00H
	DB	00H
	DB	00H
	DB	00H
	DB	00H
	DB	00H
	DB	00H
	DB	00H
	DB	00H
	DB	00H
	DB	00H
	DB	00H
	DB	00H
	DB	00H
	DB	00H
	DB	00H
	DB	00H
	DB	00H
	DB	00H
	DB	00H
	DB	00H
	DB	00H
	DB	00H
	DB	00H
	DB	00H
	DB	00H
	DB	00H
	DB	00H
	DB	00H
	DB	00H
	DB	00H
	DB	00H
	DB	00H
	DB	00H
	DB	00H
	DB	00H
	DB	00H
	DB	00H
	DB	00H
	DB	00H
	DB	00H
	DB	00H
	DB	00H
	DB	00H
	DB	00H
	DB	00H
	DB	00H
	DB	00H
	DB	00H
	DB	00H
	DB	00H
	DB	00H
	DB	00H
	DB	00H
	DB	00H
	DB	00H
	DB	00H
	DB	00H
	DB	00H
	DB	00H
	DB	00H
	DB	00H
	DB	00H
	DB	00H
	DB	00H
	DB	00H
	DB	00H
	DB	00H
	DB	00H
	DB	00H
	DB	00H
	DB	00H
	DB	00H
	DB	00H
	DB	00H
	DB	00H
	DB	00H
	DB	00H
	DB	00H
	DB	00H
	DB	00H
	DB	00H
	DB	00H
	DB	00H
	DB	00H
	DB	00H
	DB	00H
	DB	00H
	DB	00H
	DB	00H
	DB	00H
	DB	00H
	DB	00H
	DB	00H
	DB	00H
	DB	00H
	DB	00H
	DB	00H
	DB	00H
	DB	00H
	DB	00H
	DB	00H
	DB	00H
	DB	00H
	DB	00H
	DB	00H
	DB	00H
	DB	00H
	DB	00H
	DB	00H
	DB	00H
	DB	00H
	DB	00H
	DB	00H
	DB	00H
	DB	00H
	DB	00H
	DB	00H
	DB	00H
	DB	00H
	DB	00H
	DB	00H
	DB	00H
	DB	00H
	DB	00H
	DB	00H
	DB	00H
	DB	00H
	DB	00H
	DB	00H
	DB	00H
	DB	00H
	DB	00H
	DB	00H
	DB	00H
	DB	00H
	DB	00H
	DB	00H
	DB	00H
	DB	00H
	DB	00H
	DB	00H
	DB	00H
	DB	00H
	DB	00H
	DB	00H
	DB	00H
	DB	00H
	DB	00H
	DB	00H
	DB	00H
	DB	00H
	DB	00H
	DB	00H
	DB	00H
	DB	00H
	DB	00H
	DB	00H
	DB	00H
	DB	00H
	DB	00H
	DB	00H
	DB	00H
	DB	00H
	DB	00H
	DB	00H
	DB	00H
	DB	00H
	DB	00H
	DB	00H
	DB	00H
	DB	00H
	DB	00H
	DB	00H
	DB	00H
	DB	00H
	DB	00H
	DB	00H
	DB	00H
	DB	00H
	DB	00H
	DB	00H
	DB	00H
	DB	00H
	DB	00H
	DB	00H
	DB	00H
	DB	00H
	DB	00H
	DB	00H
	DB	00H
	DB	00H
	DB	00H
	DB	00H
	DB	00H
	DB	00H
	DB	00H
	DB	00H
	DB	00H
	DB	00H
	DB	00H
	DB	00H
	DB	00H
	DB	00H
	DB	00H
	DB	00H
	DB	00H
	DB	00H
	DB	00H
	DB	00H
	DB	00H
	DB	00H
	DB	00H
	DB	00H
	DB	00H
	DB	00H
	DB	00H
	DB	00H
	DB	00H
	DB	00H
	DB	00H
	DB	00H
	DB	00H
	DB	00H
	DB	00H
	DB	00H
	DB	00H
	DB	00H
	DB	00H
	DB	00H
	DB	00H
	DB	00H
	DB	00H
	DB	00H
	DB	00H
	DB	00H
	DB	00H
	DB	00H
	DB	00H
	DB	00H
	DB	00H
	DB	00H
	DB	00H
	DB	00H
	DB	00H
	DB	00H
	DB	00H
	DB	00H
	DB	00H
	DB	00H
	DB	00H
	DB	00H
	DB	00H
	DB	00H
	DB	00H
	DB	00H
	DB	00H
	DB	00H
	DB	00H
	DB	00H
	DB	00H
	DB	00H
	DB	00H
	DB	00H
	DB	00H
	DB	00H
	DB	00H
	DB	00H
	DB	00H
	DB	00H
	DB	00H
	DB	00H
	DB	00H
	DB	00H
	DB	00H
	DB	00H
	DB	00H
	DB	00H
	DB	00H
	DB	00H
	DB	00H
	DB	00H
	DB	00H
	DB	00H
	DB	00H
	DB	00H
	DB	00H
	DB	00H
	DB	00H
	DB	00H
	DB	00H
	DB	00H
	DB	00H
	DB	00H
	DB	00H
	DB	00H
	DB	00H
	DB	00H
	DB	00H
	DB	00H
	DB	00H
	DB	00H
	DB	00H
	DB	00H
	DB	00H
	DB	00H
	DB	00H
	DB	00H
	DB	00H
	DB	00H
	DB	00H
	DB	00H
	DB	00H
	DB	00H
	DB	00H
	DB	00H
	DB	00H
	DB	00H
	DB	00H
	DB	00H
	DB	00H
	DB	00H
	DB	00H
	DB	00H
	DB	00H
	DB	00H
	DB	00H
	DB	00H
	DB	00H
	DB	00H
	DB	00H
	DB	00H
	DB	00H
	DB	00H
	DB	00H
	DB	00H
	DB	00H
	DB	00H
	DB	00H
	DB	00H
	DB	00H
	DB	00H
	DB	00H
	DB	00H
	DB	00H
	DB	00H
	DB	00H
	DB	00H
	DB	00H
	DB	00H
	DB	00H
	DB	00H
	DB	00H
	DB	00H
	DB	00H
	DB	00H
	DB	00H
	DB	00H
	DB	00H
	DB	00H
	DB	00H
	DB	00H
	DB	00H
	DB	00H
	DB	00H
	DB	00H
	DB	00H
	DB	00H
	DB	00H
	DB	00H
	DB	00H
	DB	00H
	DB	00H
	DB	00H
	DB	00H
	DB	00H
	DB	00H
	DB	00H
	DB	00H
	DB	00H
	DB	00H
	DB	00H
	DB	00H
	DB	00H
	DB	00H
	DB	00H
	DB	00H
	DB	00H
	DB	00H
	DB	00H
	DB	00H
	DB	00H
	DB	00H
	DB	00H
	DB	00H
	DB	00H
	DB	00H
	DB	00H
	DB	00H
	DB	00H
	DB	00H
	DB	00H
	DB	00H
	DB	00H
	DB	00H
	DB	00H
	DB	00H
	DB	00H
	DB	00H
	DB	00H
	DB	00H
	DB	00H
	DB	00H
	DB	00H
	DB	00H
	DB	00H
	DB	00H
	DB	00H
	DB	00H
	DB	00H
	DB	00H
	DB	00H
	DB	00H
	DB	00H
	DB	00H
	DB	00H
	DB	00H
	DB	00H
	DB	00H
	DB	00H
	DB	00H
	DB	00H
	DB	00H
	DB	00H
	DB	00H
	DB	00H
	DB	00H
	DB	00H
	DB	00H
	DB	00H
	DB	00H
	DB	00H
	DB	00H
	DB	00H
	DB	00H
	DB	00H
	DB	00H
	DB	00H
	DB	00H
	DB	00H
	DB	00H
	DB	00H
	DB	00H
	DB	00H
	DB	00H
	DB	00H
	DB	00H
	DB	00H
	DB	00H
	DB	00H
	DB	00H
	DB	00H
	DB	00H
	DB	00H
	DB	00H
	DB	00H
	DB	00H
	DB	00H
	DB	00H
	DB	00H
	DB	00H
	DB	00H
	DB	00H
	DB	00H
	DB	00H
	DB	00H
	DB	00H
	DB	00H
	DB	00H
	DB	00H
	DB	00H
	DB	00H
	DB	00H
	DB	00H
	DB	00H
	DB	00H
	DB	00H
	DB	00H
	DB	00H
	DB	00H
	DB	00H
	DB	00H
	DB	00H
	DB	00H
	DB	00H
	DB	00H
	DB	00H
	DB	00H
	DB	00H
	DB	00H
	DB	00H
	DB	00H
	DB	00H
	DB	00H
	DB	00H
	DB	00H
	DB	00H
	DB	00H
	DB	00H
	DB	00H
	DB	00H
	DB	00H
	DB	00H
	DB	00H
	DB	00H
	DB	00H
	DB	00H
	DB	00H
	DB	00H
	DB	00H
	DB	00H
	DB	00H
	DB	00H
	DB	00H
	DB	00H
	DB	00H
	DB	00H
	DB	00H
	DB	00H
	DB	00H
	DB	00H
	DB	00H
	DB	00H
	DB	00H
	DB	00H
	DB	00H
	DB	00H
	DB	00H
	DB	00H
	DB	00H
	DB	00H
	DB	00H
	DB	00H
	DB	00H
	DB	00H
	DB	00H
	DB	00H
	DB	00H
	DB	00H
	DB	00H
	DB	00H
	DB	00H
	DB	00H
	DB	00H
	DB	00H
	DB	00H
	DB	00H
	DB	00H
	DB	00H
	DB	00H
	DB	00H
	DB	00H
	DB	00H
	DB	00H
	DB	00H
	DB	00H
	DB	00H
	DB	00H
	DB	00H
	DB	00H
	DB	00H
	DB	00H
	DB	00H
	DB	00H
	DB	00H
	DB	00H
	DB	00H
	DB	00H
	DB	00H
	DB	00H
	DB	00H
	DB	00H
	DB	00H
	DB	00H
	DB	00H
	DB	00H
	DB	00H
	DB	00H
	DB	00H
	DB	00H
	DB	00H
	DB	00H
	DB	00H
	DB	00H
	DB	00H
	DB	00H
	DB	00H
	DB	00H
	DB	00H
	DB	00H
	DB	00H
	DB	00H
	DB	00H
	DB	00H
	DB	00H
	DB	00H
	DB	00H
	DB	00H
	DB	00H
	DB	00H
	DB	00H
	DB	00H
	DB	00H
	DB	00H
	DB	00H
	DB	00H
	DB	00H
	DB	00H
	DB	00H
	DB	00H
	DB	00H
	DB	00H
	DB	00H
	DB	00H
	DB	00H
	DB	00H
	DB	00H
	DB	00H
	DB	00H
	DB	00H
	DB	00H
	DB	00H
	DB	00H
	DB	00H
	DB	00H
	DB	00H
	DB	00H
	DB	00H
	DB	00H
	DB	00H
	DB	00H
	DB	00H
	DB	00H
	DB	00H
	DB	00H
	DB	00H
	DB	00H
	DB	00H
	DB	00H
	DB	00H
	DB	00H
	DB	00H
	DB	00H
	DB	00H
	DB	00H
	DB	00H
	DB	00H
	DB	00H
	DB	00H
	DB	00H
	DB	00H
	DB	00H
	DB	00H
	DB	00H
	DB	00H
	DB	00H
	DB	00H
	DB	00H
	DB	00H
	DB	00H
	DB	00H
	DB	00H
	DB	00H
	DB	00H
	DB	00H
	DB	00H
	DB	00H
	DB	00H
	DB	00H
	DB	00H
	DB	00H
	DB	00H
	DB	00H
	DB	00H
	DB	00H
	DB	00H
	DB	00H
	DB	00H
	DB	00H
	DB	00H
	DB	00H
	DB	00H
	DB	00H
	DB	00H
	DB	00H
	DB	00H
	DB	00H
	DB	00H
	DB	00H
	DB	00H
	DB	00H
	DB	00H
	DB	00H
	DB	00H
	DB	00H
	DB	00H
	DB	00H
	DB	00H
	DB	00H
	DB	00H
	DB	00H
	DB	00H
	DB	00H
	DB	00H
	DB	00H
	DB	00H
	DB	00H
	DB	00H
	DB	00H
	DB	00H
	DB	00H
	DB	00H
	DB	00H
	DB	00H
	DB	00H
	DB	00H
	DB	00H
	DB	00H
	DB	00H
	DB	00H
	DB	00H
	DB	00H
	DB	00H
	DB	00H
	DB	00H
	DB	00H
	DB	00H
	DB	00H
	DB	00H
	DB	00H
	DB	00H
	DB	00H
	DB	00H
	DB	00H
	DB	00H
	DB	00H
	DB	00H
	DB	00H
	DB	00H
	DB	00H
	DB	00H
	DB	00H
	DB	00H
	DB	00H
	DB	00H
	DB	00H
	DB	00H
	DB	00H
	DB	00H
	DB	00H
	DB	00H
	DB	00H
	DB	00H
	DB	00H
	DB	00H
	DB	00H
	DB	00H
	DB	00H
	DB	00H
	DB	00H
	DB	00H
	DB	00H
	DB	00H
	DB	00H
	DB	00H
	DB	00H
	DB	00H
	DB	00H
	DB	00H
	DB	00H
	DB	00H
	DB	00H
	DB	00H
	DB	00H
	DB	00H
	DB	00H
	DB	00H
	DB	00H
	DB	00H
	DB	00H
	DB	00H
	DB	00H
	DB	00H
	DB	00H
	DB	00H
	DB	00H
	DB	00H
	DB	00H
	DB	00H
	DB	00H
	DB	00H
	DB	00H
	DB	00H
	DB	00H
	DB	00H
	DB	00H
	DB	00H
	DB	00H
	DB	00H
	DB	00H
	DB	00H
	DB	00H
	DB	00H
	DB	00H
	DB	00H
	DB	00H
	DB	00H
	DB	00H
	DB	00H
	DB	00H
	DB	00H
	DB	00H
	DB	00H
	DB	00H
	DB	00H
	DB	00H
	DB	00H
	DB	00H
	DB	00H
	DB	00H
	DB	00H
	DB	00H
	DB	00H
	DB	00H
	DB	00H
	DB	00H
	DB	00H
	DB	00H
	DB	00H
	DB	00H
	DB	00H
	DB	00H
	DB	00H
	DB	00H
	DB	00H
	DB	00H
	DB	00H
	DB	00H
	DB	00H
	DB	00H
	DB	00H
	DB	00H
	DB	00H
	DB	00H
	DB	00H
	DB	00H
	DB	00H
	DB	00H
	DB	00H
	DB	00H
	DB	00H
	DB	00H
	DB	00H
	DB	00H
	DB	00H
	DB	00H
	DB	00H
	DB	00H
	DB	00H
	DB	00H
	DB	00H
	DB	00H
	DB	00H
	DB	00H
	DB	00H
	DB	00H
	DB	00H
	DB	00H
	DB	00H
	DB	00H
	DB	00H
	DB	00H
	DB	00H
	DB	00H
	DB	00H
	DB	00H
	DB	00H
	DB	00H
	DB	00H
	DB	00H
	DB	00H
	DB	00H
	DB	00H
	DB	00H
	DB	00H
	DB	00H
	DB	00H
	DB	00H
	DB	00H
	DB	00H
	DB	00H
	DB	00H
	DB	00H
	DB	00H
	DB	00H
	DB	00H
	DB	00H
	DB	00H
	DB	00H
	DB	00H
	DB	00H
	DB	00H
	DB	00H
	DB	00H
	DB	00H
	DB	00H
	DB	00H
	DB	00H
	DB	00H
	DB	00H
	DB	00H
	DB	00H
	DB	00H
	DB	00H
	DB	00H
	DB	00H
	DB	00H
	DB	00H
	DB	00H
	DB	00H
	DB	00H
	DB	00H
	DB	00H
	DB	00H
	DB	00H
	DB	00H
	DB	00H
	DB	00H
	DB	00H
	DB	00H
	DB	00H
	DB	00H
	DB	00H
	DB	00H
	DB	00H
	DB	00H
	DB	00H
	DB	00H
	DB	00H
	DB	00H
	DB	00H
	DB	00H
	DB	00H
	DB	00H
	DB	00H
	DB	00H
	DB	00H
	DB	00H
	DB	00H
	DB	00H
	DB	00H
	DB	00H
	DB	00H
	DB	00H
	DB	00H
	DB	00H
	DB	00H
	DB	00H
	DB	00H
	DB	00H
	DB	00H
	DB	00H
	DB	00H
	DB	00H
	DB	00H
	DB	00H
	DB	00H
	DB	00H
	DB	00H
	DB	00H
	DB	00H
	DB	00H
	DB	00H
	DB	00H
	DB	00H
	DB	00H
	DB	00H
	DB	00H
	DB	00H
	DB	00H
	DB	00H
	DB	00H
	DB	00H
	DB	00H
	DB	00H
	DB	00H
	DB	00H
	DB	00H
	DB	00H
	DB	00H
	DB	00H
	DB	00H
	DB	00H
	DB	00H
	DB	00H
	DB	00H
	DB	00H
	DB	00H
	DB	00H
	DB	00H
	DB	00H
	DB	00H
	DB	00H
	DB	00H
	DB	00H
	DB	00H
	DB	00H
	DB	00H
	DB	00H
	DB	00H
	DB	00H
	DB	00H
	DB	00H
	DB	00H
	DB	00H
	DB	00H
	DB	00H
	DB	00H
	DB	00H
	DB	00H
	DB	00H
	DB	00H
	DB	00H
	DB	00H
	DB	00H
	DB	00H
	DB	00H
	DB	00H
	DB	00H
	DB	00H
	DB	00H
	DB	00H
	DB	00H
	DB	00H
	DB	00H
	DB	00H
	DB	00H
	DB	00H
	DB	00H
	DB	00H
	DB	00H
	DB	00H
	DB	00H
	DB	00H
	DB	00H
	DB	00H
	DB	00H
	DB	00H
	DB	00H
	DB	00H
	DB	00H
	DB	00H
	DB	00H
	DB	00H
	DB	00H
	DB	00H
	DB	00H
	DB	00H
	DB	00H
	DB	00H
	DB	00H
	DB	00H
	DB	00H
	DB	00H
	DB	00H
	DB	00H
	DB	00H
	DB	00H
	DB	00H
	DB	00H
	DB	00H
	DB	00H
	DB	00H
	DB	00H
	DB	00H
	DB	00H
	DB	00H
	DB	00H
	DB	00H
	DB	00H
	DB	00H
	DB	00H
	DB	00H
	DB	00H
	DB	00H
	DB	00H
	DB	00H
	DB	00H
	DB	00H
	DB	00H
	DB	00H
	DB	00H
	DB	00H
	DB	00H
	DB	00H
	DB	00H
	DB	00H
	DB	00H
	DB	00H
	DB	00H
	DB	00H
	DB	00H
	DB	00H
	DB	00H
	DB	00H
	DB	00H
	DB	00H
	DB	00H
	DB	00H
	DB	00H
	DB	00H
	DB	00H
	DB	00H
	DB	00H
	DB	00H
	DB	00H
	DB	00H
	DB	00H
	DB	00H
	DB	00H
	DB	00H
	DB	00H
	DB	00H
	DB	00H
	DB	00H
	DB	00H
	DB	00H
	DB	00H
	DB	00H
	DB	00H
	DB	00H
	DB	00H
	DB	00H
	DB	00H
	DB	00H
	DB	00H
	DB	00H
	DB	00H
	DB	00H
	DB	00H
	DB	00H
	DB	00H
	DB	00H
	DB	00H
	DB	00H
	DB	00H
	DB	00H
	DB	00H
	DB	00H
	DB	00H
	DB	00H
	DB	00H
	DB	00H
	DB	00H
	DB	00H
	DB	00H
	DB	00H
	DB	00H
	DB	00H
	DB	00H
	DB	00H
	DB	00H
	DB	00H
	DB	00H
	DB	00H
	DB	00H
	DB	00H
	DB	00H
	DB	00H
	DB	00H
	DB	00H
	DB	00H
	DB	00H
	DB	00H
	DB	00H
	DB	00H
	DB	00H
	DB	00H
	DB	00H
	DB	00H
	DB	00H
	DB	00H
	DB	00H
	DB	00H
	DB	00H
	DB	00H
	DB	00H
	DB	00H
	DB	00H
	DB	00H
	DB	00H
	DB	00H
	DB	00H
	DB	00H
	DB	00H
	DB	00H
	DB	00H
	DB	00H
	DB	00H
	DB	00H
	DB	00H
	DB	00H
	DB	00H
	DB	00H
	DB	00H
	DB	00H
	DB	00H
	DB	00H
	DB	00H
	DB	00H
	DB	00H
	DB	00H
	DB	00H
	DB	00H
	DB	00H
	DB	00H
	DB	00H
	DB	00H
	DB	00H
	DB	00H
	DB	00H
	DB	00H
	DB	00H
	DB	00H
	DB	00H
	DB	00H
	DB	00H
	DB	00H
	DB	00H
	DB	00H
	DB	00H
	DB	00H
	DB	00H
	DB	00H
	DB	00H
	DB	00H
	DB	00H
	DB	00H
	DB	00H
	DB	00H
	DB	00H
	DB	00H
	DB	00H
	DB	00H
	DB	00H
	DB	00H
	DB	00H
	DB	00H
	DB	00H
	DB	00H
	DB	00H
	DB	00H
	DB	00H
	DB	00H
	DB	00H
	DB	00H
	DB	00H
	DB	00H
	DB	00H
	DB	00H
	DB	00H
	DB	00H
	DB	00H
	DB	00H
	DB	00H
	DB	00H
	DB	00H
	DB	00H
	DB	00H
	DB	00H
	DB	00H
	DB	00H
	DB	00H
	DB	00H
	DB	00H
	DB	00H
	DB	00H
	DB	00H
	DB	00H
	DB	00H
	DB	00H
	DB	00H
	DB	00H
	DB	00H
	DB	00H
	DB	00H
	DB	00H
	DB	00H
	DB	00H
	DB	00H
	DB	00H
	DB	00H
	DB	00H
	DB	00H
	DB	00H
	DB	00H
	DB	00H
	DB	00H
	DB	00H
	DB	00H
	DB	00H
	DB	00H
	DB	00H
	DB	00H
	DB	00H
	DB	00H
	DB	00H
	DB	00H
	DB	00H
	DB	00H
	DB	00H
	DB	00H
	DB	00H
	DB	00H
	DB	00H
	DB	00H
	DB	00H
	DB	00H
	DB	00H
	DB	00H
	DB	00H
	DB	00H
	DB	00H
	DB	00H
	DB	00H
	DB	00H
	DB	00H
	DB	00H
	DB	00H
	DB	00H
	DB	00H
	DB	00H
	DB	00H
	DB	00H
	DB	00H
	DB	00H
	DB	00H
	DB	00H
	DB	00H
	DB	00H
	DB	00H
	DB	00H
	DB	00H
	DB	00H
	DB	00H
	DB	00H
	DB	00H
	DB	00H
	DB	00H
	DB	00H
	DB	00H
	DB	00H
	DB	00H
	DB	00H
	DB	00H
	DB	00H
	DB	00H
	DB	00H
	DB	00H
	DB	00H
	DB	00H
	DB	00H
	DB	00H
	DB	00H
	DB	00H
	DB	00H
	DB	00H
	DB	00H
	DB	00H
	DB	00H
	DB	00H
	DB	00H
	DB	00H
	DB	00H
	DB	00H
	DB	00H
	DB	00H
	DB	00H
	DB	00H
	DB	00H
	DB	00H
	DB	00H
	DB	00H
	DB	00H
	DB	00H
	DB	00H
	DB	00H
	DB	00H
	DB	00H
	DB	00H
	DB	00H
	DB	00H
	DB	00H
	DB	00H
	DB	00H
	DB	00H
	DB	00H
	DB	00H
	DB	00H
	DB	00H
	DB	00H
	DB	00H
	DB	00H
	DB	00H
	DB	00H
	DB	00H
	DB	00H
	DB	00H
	DB	00H
	DB	00H
	DB	00H
	DB	00H
	DB	00H
	DB	00H
	DB	00H
	DB	00H
	DB	00H
	DB	00H
	DB	00H
	DB	00H
	DB	00H
	DB	00H
	DB	00H
	DB	00H
	DB	00H
	DB	00H
	DB	00H
	DB	00H
	DB	00H
	DB	00H
	DB	00H
	DB	00H
	DB	00H
	DB	00H
	DB	00H
	DB	00H
	DB	00H
	DB	00H
	DB	00H
	DB	00H
	DB	00H
	DB	00H
	DB	00H
	DB	00H
	DB	00H
	DB	00H
	DB	00H
	DB	00H
	DB	00H
	DB	00H
	DB	00H
	DB	00H
	DB	00H
	DB	00H
	DB	00H
	DB	00H
	DB	00H
	DB	00H
	DB	00H
	DB	00H
	DB	00H
	DB	00H
	DB	00H
	DB	00H
	DB	00H
	DB	00H
	DB	00H
	DB	00H
	DB	00H
	DB	00H
	DB	00H
	DB	00H
	DB	00H
	DB	00H
	DB	00H
	DB	00H
	DB	00H
	DB	00H
	DB	00H
	DB	00H
	DB	00H
	DB	00H
	DB	00H
	DB	00H
	DB	00H
	DB	00H
	DB	00H
	DB	00H
	DB	00H
	DB	00H
	DB	00H
	DB	00H
	DB	00H
	DB	00H
	DB	00H
	DB	00H
	DB	00H
	DB	00H
	DB	00H
	DB	00H
	DB	00H
	DB	00H
	DB	00H
	DB	00H
	DB	00H
	DB	00H
	DB	00H
	DB	00H
	DB	00H
	DB	00H
	DB	00H
	DB	00H
	DB	00H
	DB	00H
	DB	00H
	DB	00H
	DB	00H
	DB	00H
	DB	00H
	DB	00H
	DB	00H
	DB	00H
	DB	00H
	DB	00H
	DB	00H
	DB	00H
	DB	00H
	DB	00H
	DB	00H
	DB	00H
	DB	00H
	DB	00H
	DB	00H
	DB	00H
	DB	00H
	DB	00H
	DB	00H
	DB	00H
	DB	00H
	DB	00H
	DB	00H
	DB	00H
	DB	00H
	DB	00H
	DB	00H
	DB	00H
	DB	00H
	DB	00H
	DB	00H
	DB	00H
	DB	00H
	DB	00H
	DB	00H
	DB	00H
	DB	00H
	DB	00H
	DB	00H
	DB	00H
	DB	00H
	DB	00H
	DB	00H
	DB	00H
	DB	00H
	DB	00H
	DB	00H
	DB	00H
	DB	00H
	DB	00H
	DB	00H
	DB	00H
	DB	00H
	DB	00H
	DB	00H
	DB	00H
	DB	00H
	DB	00H
	DB	00H
	DB	00H
	DB	00H
	DB	00H
	DB	00H
	DB	00H
	DB	00H
	DB	00H
	DB	00H
	DB	00H
	DB	00H
	DB	00H
	DB	00H
	DB	00H
	DB	00H
	DB	00H
	DB	00H
	DB	00H
	DB	00H
	DB	00H
	DB	00H
	DB	00H
	DB	00H
	DB	00H
	DB	00H
	DB	00H
	DB	00H
	DB	00H
	DB	00H
	DB	00H
	DB	00H
	DB	00H
	DB	00H
	DB	00H
	DB	00H
	DB	00H
	DB	00H
	DB	00H
	DB	00H
	DB	00H
	DB	00H
	DB	00H
	DB	00H
	DB	00H
	DB	00H
	DB	00H
	DB	00H
	DB	00H
	DB	00H
	DB	00H
	DB	00H
	DB	00H
	DB	00H
	DB	00H
	DB	00H
	DB	00H
	DB	00H
	DB	00H
	DB	00H
	DB	00H
	DB	00H
	DB	00H
	DB	00H
	DB	00H
	DB	00H
	DB	00H
	DB	00H
	DB	00H
	DB	00H
	DB	00H
	DB	00H
	DB	00H
	DB	00H
	DB	00H
	DB	00H
	DB	00H
	DB	00H
	DB	00H
	DB	00H
	DB	00H
	DB	00H
	DB	00H
	DB	00H
	DB	00H
	DB	00H
	DB	00H
	DB	00H
	DB	00H
	DB	00H
	DB	00H
	DB	00H
	DB	00H
	DB	00H
	DB	00H
	DB	00H
	DB	00H
	DB	00H
	DB	00H
	DB	00H
	DB	00H
	DB	00H
	DB	00H
	DB	00H
	DB	00H
	DB	00H
	DB	00H
	DB	00H
	DB	00H
	DB	00H
	DB	00H
	DB	00H
	DB	00H
	DB	00H
	DB	00H
	DB	00H
	DB	00H
	DB	00H
	DB	00H
	DB	00H
	DB	00H
	DB	00H
	DB	00H
	DB	00H
	DB	00H
	DB	00H
	DB	00H
	DB	00H
	DB	00H
	DB	00H
	DB	00H
	DB	00H
	DB	00H
	DB	00H
	DB	00H
	DB	00H
	DB	00H
	DB	00H
	DB	00H
	DB	00H
	DB	00H
	DB	00H
	DB	00H
	DB	00H
	DB	00H
	DB	00H
	DB	00H
	DB	00H
	DB	00H
	DB	00H
	DB	00H
	DB	00H
	DB	00H
	DB	00H
	DB	00H
	DB	00H
	DB	00H
	DB	00H
	DB	00H
	DB	00H
	DB	00H
	DB	00H
	DB	00H
	DB	00H
	DB	00H
	DB	00H
	DB	00H
	DB	00H
	DB	00H
	DB	00H
	DB	00H
	DB	00H
	DB	00H
	DB	00H
	DB	00H
	DB	00H
	DB	00H
	DB	00H
	DB	00H
	DB	00H
	DB	00H
	DB	00H
	DB	00H
	DB	00H
	DB	00H
	DB	00H
	DB	00H
	DB	00H
	DB	00H
	DB	00H
	DB	00H
	DB	00H
	DB	00H
	DB	00H
	DB	00H
	DB	00H
	DB	00H
	DB	00H
	DB	00H
	DB	00H
	DB	00H
	DB	00H
	DB	00H
	DB	00H
	DB	00H
	DB	00H
	DB	00H
	DB	00H
	DB	00H
	DB	00H
	DB	00H
	DB	00H
	DB	00H
	DB	00H
	DB	00H
	DB	00H
	DB	00H
	DB	00H
	DB	00H
	DB	00H
	DB	00H
	DB	00H
	DB	00H
	DB	00H
	DB	00H
	DB	00H
	DB	00H
	DB	00H
	DB	00H
	DB	00H
	DB	00H
	DB	00H
	DB	00H
	DB	00H
	DB	00H
	DB	00H
	DB	00H
	DB	00H
	DB	00H
	DB	00H
	DB	00H
	DB	00H
	DB	00H
	DB	00H
	DB	00H
	DB	00H
	DB	00H
	DB	00H
	DB	00H
	DB	00H
	DB	00H
	DB	00H
	DB	00H
	DB	00H
	DB	00H
	DB	00H
	DB	00H
	DB	00H
	DB	00H
	DB	00H
	DB	00H
	DB	00H
	DB	00H
	DB	00H
	DB	00H
	DB	00H
	DB	00H
	DB	00H
	DB	00H
	DB	00H
	DB	00H
	DB	00H
	DB	00H
	DB	00H
	DB	00H
	DB	00H
	DB	00H
	DB	00H
	DB	00H
	DB	00H
	DB	00H
	DB	00H
	DB	00H
	DB	00H
	DB	00H
	DB	00H
	DB	00H
	DB	00H
	DB	00H
	DB	00H
	DB	00H
	DB	00H
	DB	00H
	DB	00H
	DB	00H
	DB	00H
	DB	00H
	DB	00H
	DB	00H
	DB	00H
	DB	00H
	DB	00H
	DB	00H
	DB	00H
	DB	00H
	DB	00H
	DB	00H
	DB	00H
	DB	00H
	DB	00H
	DB	00H
	DB	00H
	DB	00H
	DB	00H
	DB	00H
	DB	00H
	DB	00H
	DB	00H
	DB	00H
	DB	00H
	DB	00H
	DB	00H
	DB	00H
	DB	00H
	DB	00H
	DB	00H
	DB	00H
	DB	00H
	DB	00H
	DB	00H
	DB	00H
	DB	00H
	DB	00H
	DB	00H
	DB	00H
	DB	00H
	DB	00H
	DB	00H
	DB	00H
	DB	00H
	DB	00H
	DB	00H
	DB	00H
	DB	00H
	DB	00H
	DB	00H
	DB	00H
	DB	00H
	DB	00H
	DB	00H
	DB	00H
	DB	00H
	DB	00H
	DB	00H
	DB	00H
	DB	00H
	DB	00H
	DB	00H
	DB	00H
	DB	00H
	DB	00H
	DB	00H
	DB	00H
	DB	00H
	DB	00H
	DB	00H
	DB	00H
	DB	00H
	DB	00H
	DB	00H
	DB	00H
	DB	00H
	DB	00H
	DB	00H
	DB	00H
	DB	00H
	DB	00H
	DB	00H
	DB	00H
	DB	00H
	DB	00H
	DB	00H
	DB	00H
	DB	00H
	DB	00H
	DB	00H
	DB	00H
	DB	00H
	DB	00H
	DB	00H
	DB	00H
	DB	00H
	DB	00H
	DB	00H
	DB	00H
	DB	00H
	DB	00H
	DB	00H
	DB	00H
	DB	00H
	DB	00H
	DB	00H
	DB	00H
	DB	00H
	DB	00H
	DB	00H
	DB	00H
	DB	00H
	DB	00H
	DB	00H
	DB	00H
	DB	00H
	DB	00H
	DB	00H
	DB	00H
	DB	00H
	DB	00H
	DB	00H
	DB	00H
	DB	00H
	DB	00H
	DB	00H
	DB	00H
	DB	00H
	DB	00H
	DB	00H
	DB	00H
	DB	00H
	DB	00H
	DB	00H
	DB	00H
	DB	00H
	DB	00H
	DB	00H
	DB	00H
	DB	00H
	DB	00H
	DB	00H
	DB	00H
	DB	00H
	DB	00H
	DB	00H
	DB	00H
	DB	00H
	DB	00H
	DB	00H
	DB	00H
	DB	00H
	DB	00H
	DB	00H
	DB	00H
	DB	00H
	DB	00H
	DB	00H
	DB	00H
	DB	00H
	DB	00H
	DB	00H
	DB	00H
	DB	00H
	DB	00H
	DB	00H
	DB	00H
	DB	00H
	DB	00H
	DB	00H
	DB	00H
	DB	00H
	DB	00H
	DB	00H
	DB	00H
	DB	00H
	DB	00H
	DB	00H
	DB	00H
	DB	00H
	DB	00H
	DB	00H
	DB	00H
	DB	00H
	DB	00H
	DB	00H
	DB	00H
	DB	00H
	DB	00H
	DB	00H
	DB	00H
	DB	00H
	DB	00H
	DB	00H
	DB	00H
	DB	00H
	DB	00H
	DB	00H
	DB	00H
	DB	00H
	DB	00H
	DB	00H
	DB	00H
	DB	00H
	DB	00H
	DB	00H
	DB	00H
	DB	00H
	DB	00H
	DB	00H
	DB	00H
	DB	00H
	DB	00H
	DB	00H
	DB	00H
	DB	00H
	DB	00H
	DB	00H
	DB	00H
	DB	00H
	DB	00H
	DB	00H
	DB	00H
	DB	00H
	DB	00H
	DB	00H
	DB	00H
	DB	00H
	DB	00H
	DB	00H
	DB	00H
	DB	00H
	DB	00H
	DB	00H
	DB	00H
	DB	00H
	DB	00H
	DB	00H
	DB	00H
	DB	00H
	DB	00H
	DB	00H
	DB	00H
	DB	00H
	DB	00H
	DB	00H
	DB	00H
	DB	00H
	DB	00H
	DB	00H
	DB	00H
	DB	00H
	DB	00H
	DB	00H
	DB	00H
	DB	00H
	DB	00H
	DB	00H
	DB	00H
	DB	00H
	DB	00H
	DB	00H
	DB	00H
	DB	00H
	DB	00H
	DB	00H
	DB	00H
	DB	00H
	DB	00H
	DB	00H
	DB	00H
	DB	00H
	DB	00H
	DB	00H
	DB	00H
	DB	00H
	DB	00H
	DB	00H
	DB	00H
	DB	00H
	DB	00H
	DB	00H
	DB	00H
	DB	00H
	DB	00H
	DB	00H
	DB	00H
	DB	00H
	DB	00H
	DB	00H
	DB	00H
	DB	00H
	DB	00H
	DB	00H
	DB	00H
	DB	00H
	DB	00H
	DB	00H
	DB	00H
	DB	00H
	DB	00H
	DB	00H
	DB	00H
	DB	00H
	DB	00H
	DB	00H
	DB	00H
	DB	00H
	DB	00H
	DB	00H
	DB	00H
	DB	00H
	DB	00H
	DB	00H
	DB	00H
	DB	00H
	DB	00H
	DB	00H
	DB	00H
	DB	00H
	DB	00H
	DB	00H
	DB	00H
	DB	00H
	DB	00H
	DB	00H
	DB	00H
	DB	00H
	DB	00H
	DB	00H
	DB	00H
	DB	00H
	DB	00H
	DB	00H
	DB	00H
	DB	00H
	DB	00H
	DB	00H
	DB	00H
	DB	00H
	DB	00H
	DB	00H
	DB	00H
	DB	00H
	DB	00H
	DB	00H
	DB	00H
	DB	00H
	DB	00H
	DB	00H
	DB	00H
	DB	00H
	DB	00H
	DB	00H
	DB	00H
	DB	00H
	DB	00H
	DB	00H
	DB	00H
	DB	00H
	DB	00H
	DB	00H
	DB	00H
	DB	00H
	DB	00H
	DB	00H
	DB	00H
	DB	00H
	DB	00H
	DB	00H
	DB	00H
	DB	00H
	DB	00H
	DB	00H
	DB	00H
	DB	00H
	DB	00H
	DB	00H
	DB	00H
	DB	00H
	DB	00H
	DB	00H
	DB	00H
	DB	00H
	DB	00H
	DB	00H
	DB	00H
	DB	00H
	DB	00H
	DB	00H
	DB	00H
	DB	00H
	DB	00H
	DB	00H
	DB	00H
	DB	00H
	DB	00H
	DB	00H
	DB	00H
	DB	00H
	DB	00H
	DB	00H
	DB	00H
	DB	00H
	DB	00H
	DB	00H
	DB	00H
	DB	00H
	DB	00H
	DB	00H
	DB	00H
	DB	00H
	DB	00H
	DB	00H
	DB	00H
	DB	00H
	DB	00H
	DB	00H
	DB	00H
	DB	00H
	DB	00H
	DB	00H
	DB	00H
	DB	00H
	DB	00H
	DB	00H
	DB	00H
	DB	00H
	DB	00H
	DB	00H
	DB	00H
	DB	00H
	DB	00H
	DB	00H
	DB	00H
	DB	00H
	DB	00H
	DB	00H
	DB	00H
	DB	00H
	DB	00H
	DB	00H
	DB	00H
	DB	00H
	DB	00H
	DB	00H
	DB	00H
	DB	00H
	DB	00H
	DB	00H
	DB	00H
	DB	00H
	DB	00H
	DB	00H
	DB	00H
	DB	00H
	DB	00H
	DB	00H
	DB	00H
	DB	00H
	DB	00H
	DB	00H
	DB	00H
	DB	00H
	DB	00H
	DB	00H
	DB	00H
	DB	00H
	DB	00H
	DB	00H
	DB	00H
	DB	00H
	DB	00H
	DB	00H
	DB	00H
	DB	00H
	DB	00H
	DB	00H
	DB	00H
	DB	00H
	DB	00H
	DB	00H
	DB	00H
	DB	00H
	DB	00H
	DB	00H
	DB	00H
	DB	00H
	DB	00H
	DB	00H
	DB	00H
	DB	00H
	DB	00H
	DB	00H
	DB	00H
	DB	00H
	DB	00H
	DB	00H
	DB	00H
	DB	00H
	DB	00H
	DB	00H
	DB	00H
	DB	00H
	DB	00H
	DB	00H
	DB	00H
	DB	00H
	DB	00H
	DB	00H
	DB	00H
	DB	00H
	DB	00H
	DB	00H
	DB	00H
	DB	00H
	DB	00H
	DB	00H
	DB	00H
	DB	00H
	DB	00H
	DB	00H
	DB	00H
	DB	00H
	DB	00H
	DB	00H
	DB	00H
	DB	00H
	DB	00H
	DB	00H
	DB	00H
	DB	00H
	DB	00H
	DB	00H
	DB	00H
	DB	00H
	DB	00H
	DB	00H
	DB	00H
	DB	00H
	DB	00H
	DB	00H
	DB	00H
	DB	00H
	DB	00H
	DB	00H
	DB	00H
	DB	00H
	DB	00H
	DB	00H
	DB	00H
	DB	00H
	DB	00H
	DB	00H
	DB	00H
	DB	00H
	DB	00H
	DB	00H
	DB	00H
	DB	00H
	DB	00H
	DB	00H
	DB	00H
	DB	00H
	DB	00H
	DB	00H
	DB	00H
	DB	00H
	DB	00H
	DB	00H
	DB	00H
	DB	00H
	DB	00H
	DB	00H
	DB	00H
	DB	00H
	DB	00H
	DB	00H
	DB	00H
	DB	00H
	DB	00H
	DB	00H
	DB	00H
	DB	00H
	DB	00H
	DB	00H
	DB	00H
	DB	00H
	DB	00H
	DB	00H
	DB	00H
	DB	00H
	DB	00H
	DB	00H
	DB	00H
	DB	00H
	DB	00H
	DB	00H
	DB	00H
	DB	00H
	DB	00H
	DB	00H
	DB	00H
	DB	00H
	DB	00H
	DB	00H
	DB	00H
	DB	00H
	DB	00H
	DB	00H
	DB	00H
	DB	00H
	DB	00H
	DB	00H
	DB	00H
	DB	00H
	DB	00H
	DB	00H
	DB	00H
	DB	00H
	DB	00H
	DB	00H
	DB	00H
	DB	00H
	DB	00H
	DB	00H
	DB	00H
	DB	00H
	DB	00H
	DB	00H
	DB	00H
	DB	00H
	DB	00H
	DB	00H
	DB	00H
	DB	00H
	DB	00H
	DB	00H
	DB	00H
	DB	00H
	DB	00H
	DB	00H
	DB	00H
	DB	00H
	DB	00H
	DB	00H
	DB	00H
	DB	00H
	DB	00H
	DB	00H
	DB	00H
	DB	00H
	DB	00H
	DB	00H
	DB	00H
	DB	00H
	DB	00H
	DB	00H
	DB	00H
	DB	00H
	DB	00H
	DB	00H
	DB	00H
	DB	00H
	DB	00H
	DB	00H
	DB	00H
	DB	00H
	DB	00H
	DB	00H
	DB	00H
	DB	00H
	DB	00H
	DB	00H
	DB	00H
	DB	00H
	DB	00H
	DB	00H
	DB	00H
	DB	00H
	DB	00H
	DB	00H
	DB	00H
	DB	00H
	DB	00H
	DB	00H
	DB	00H
	DB	00H
	DB	00H
	DB	00H
	DB	00H
	DB	00H
	DB	00H
	DB	00H
	DB	00H
	DB	00H
	DB	00H
	DB	00H
	DB	00H
	DB	00H
	DB	00H
	DB	00H
	DB	00H
	DB	00H
	DB	00H
	DB	00H
	DB	00H
	DB	00H
	DB	00H
	DB	00H
	DB	00H
	DB	00H
	DB	00H
	DB	00H
	DB	00H
	DB	00H
	DB	00H
	DB	00H
	DB	00H
	DB	00H
	DB	00H
	DB	00H
	DB	00H
	DB	00H
	DB	00H
	DB	00H
	DB	00H
	DB	00H
	DB	00H
	DB	00H
	DB	00H
	DB	00H
	DB	00H
	DB	00H
	DB	00H
	DB	00H
	DB	00H
	DB	00H
	DB	00H
	DB	00H
	DB	00H
	DB	00H
	DB	00H
	DB	00H
	DB	00H
	DB	00H
	DB	00H
	DB	00H
	DB	00H
	DB	00H
	DB	00H
	DB	00H
	DB	00H
	DB	00H
	DB	00H
	DB	00H
	DB	00H
	DB	00H
	DB	00H
	DB	00H
	DB	00H
	DB	00H
	DB	00H
	DB	00H
	DB	00H
	DB	00H
	DB	00H
	DB	00H
	DB	00H
	DB	00H
	DB	00H
	DB	00H
	DB	00H
	DB	00H
	DB	00H
	DB	00H
	DB	00H
	DB	00H
	DB	00H
	DB	00H
	DB	00H
	DB	00H
	DB	00H
	DB	00H
	DB	00H
	DB	00H
	DB	00H
	DB	00H
	DB	00H
	DB	00H
	DB	00H
	DB	00H
	DB	00H
	DB	00H
	DB	00H
	DB	00H
	DB	00H
	DB	00H
	DB	00H
	DB	00H
	DB	00H
	DB	00H
	DB	00H
	DB	00H
	DB	00H
	DB	00H
	DB	00H
	DB	00H
	DB	00H
	DB	00H
	DB	00H
	DB	00H
	DB	00H
	DB	00H
	DB	00H
	DB	00H
	DB	00H
	DB	00H
	DB	00H
	DB	00H
	DB	00H
	DB	00H
	DB	00H
	DB	00H
	DB	00H
	DB	00H
	DB	00H
	DB	00H
	DB	00H
	DB	00H
	DB	00H
	DB	00H
	DB	00H
	DB	00H
	DB	00H
	DB	00H
	DB	00H
	DB	00H
	DB	00H
	DB	00H
	DB	00H
	DB	00H
	DB	00H
	DB	00H
	DB	00H
	DB	00H
	DB	00H
	DB	00H
	DB	00H
	DB	00H
	DB	00H
	DB	00H
	DB	00H
	DB	00H
	DB	00H
	DB	00H
	DB	00H
	DB	00H
	DB	00H
	DB	00H
	DB	00H
	DB	00H
	DB	00H
	DB	00H
	DB	00H
	DB	00H
	DB	00H
	DB	00H
	DB	00H
	DB	00H
	DB	00H
	DB	00H
	DB	00H
	DB	00H
	DB	00H
	DB	00H
	DB	00H
	DB	00H
	DB	00H
	DB	00H
	DB	00H
	DB	00H
	DB	00H
	DB	00H
	DB	00H
	DB	00H
	DB	00H
	DB	00H
	DB	00H
	DB	00H
	DB	00H
	DB	00H
	DB	00H
	DB	00H
	DB	00H
	DB	00H
	DB	00H
	DB	00H
	DB	00H
	DB	00H
	DB	00H
	DB	00H
	DB	00H
	DB	00H
	DB	00H
	DB	00H
	DB	00H
	DB	00H
	DB	00H
	DB	00H
	DB	00H
	DB	00H
	DB	00H
	DB	00H
	DB	00H
	DB	00H
	DB	00H
	DB	00H
	DB	00H
	DB	00H
	DB	00H
	DB	00H
	DB	00H
	DB	00H
	DB	00H
	DB	00H
	DB	00H
	DB	00H
	DB	00H
	DB	00H
	DB	00H
	DB	00H
	DB	00H
	DB	00H
	DB	00H
	DB	00H
	DB	00H
	DB	00H
	DB	00H
	DB	00H
	DB	00H
	DB	00H
	DB	00H
	DB	00H
	DB	00H
	DB	00H
	DB	00H
	DB	00H
	DB	00H
	DB	00H
	DB	00H
	DB	00H
	DB	00H
	DB	00H
	DB	00H
	DB	00H
	DB	00H
	DB	00H
	DB	00H
	DB	00H
	DB	00H
	DB	00H
	DB	00H
	DB	00H
	DB	00H
	DB	00H
	DB	00H
	DB	00H
	DB	00H
	DB	00H
	DB	00H
	DB	00H
	DB	00H
	DB	00H
	DB	00H
	DB	00H
	DB	00H
	DB	00H
	DB	00H
	DB	00H
	DB	00H
	DB	00H
	DB	00H
	DB	00H
	DB	00H
	DB	00H
	DB	00H
	DB	00H
	DB	00H
	DB	00H
	DB	00H
	DB	00H
	DB	00H
	DB	00H
	DB	00H
	DB	00H
	DB	00H
	DB	00H
	DB	00H
	DB	00H
	DB	00H
	DB	00H
	DB	00H
	DB	00H
	DB	00H
	DB	00H
	DB	00H
	DB	00H
	DB	00H
	DB	00H
	DB	00H
	DB	00H
	DB	00H
	DB	00H
	DB	00H
	DB	00H
	DB	00H
	DB	00H
	DB	00H
	DB	00H
	DB	00H
	DB	00H
	DB	00H
	DB	00H
	DB	00H
	DB	00H
	DB	00H
	DB	00H
	DB	00H
	DB	00H
	DB	00H
	DB	00H
	DB	00H
	DB	00H
	DB	00H
	DB	00H
	DB	00H
	DB	00H
	DB	00H
	DB	00H
	DB	00H
	DB	00H
	DB	00H
	DB	00H
	DB	00H
	DB	00H
	DB	00H
	DB	00H
	DB	00H
	DB	00H
	DB	00H
	DB	00H
	DB	00H
	DB	00H
	DB	00H
	DB	00H
	DB	00H
	DB	00H
	DB	00H
	DB	00H
	DB	00H
	DB	00H
	DB	00H
	DB	00H
	DB	00H
	DB	00H
	DB	00H
	DB	00H
	DB	00H
	DB	00H
	DB	00H
	DB	00H
	DB	00H
	DB	00H
	DB	00H
	DB	00H
	DB	00H
	DB	00H
	DB	00H
	DB	00H
	DB	00H
	DB	00H
	DB	00H
	DB	00H
	DB	00H
	DB	00H
	DB	00H
	DB	00H
	DB	00H
	DB	00H
	DB	00H
	DB	00H
	DB	00H
	DB	00H
	DB	00H
	DB	00H
	DB	00H
	DB	00H
	DB	00H
	DB	00H
	DB	00H
	DB	00H
	DB	00H
	DB	00H
	DB	00H
	DB	00H
	DB	00H
	DB	00H
	DB	00H
	DB	00H
	DB	00H
	DB	00H
	DB	00H
	DB	00H
	DB	00H
	DB	00H
	DB	00H
	DB	00H
	DB	00H
	DB	00H
	DB	00H
	DB	00H
	DB	00H
	DB	00H
	DB	00H
	DB	00H
	DB	00H
	DB	00H
	DB	00H
	DB	00H
	DB	00H
	DB	00H
	DB	00H
	DB	00H
	DB	00H
	DB	00H
	DB	00H
	DB	00H
	DB	00H
	DB	00H
	DB	00H
	DB	00H
	DB	00H
	DB	00H
	DB	00H
	DB	00H
	DB	00H
	DB	00H
	DB	00H
	DB	00H
	DB	00H
	DB	00H
	DB	00H
	DB	00H
	DB	00H
	DB	00H
	DB	00H
	DB	00H
	DB	00H
	DB	00H
	DB	00H
	DB	00H
	DB	00H
	DB	00H
	DB	00H
	DB	00H
	DB	00H
	DB	00H
	DB	00H
	DB	00H
	DB	00H
	DB	00H
	DB	00H
	DB	00H
	DB	00H
	DB	00H
	DB	00H
	DB	00H
	DB	00H
	DB	00H
	DB	00H
	DB	00H
	DB	00H
	DB	00H
	DB	00H
	DB	00H
	DB	00H
	DB	00H
	DB	00H
	DB	00H
	DB	00H
	DB	00H
	DB	00H
	DB	00H
	DB	00H
	DB	00H
	DB	00H
	DB	00H
	DB	00H
	DB	00H
	DB	00H
	DB	00H
	DB	00H
	DB	00H
	DB	00H
	DB	00H
	DB	00H
	DB	00H
	DB	00H
	DB	00H
	DB	00H
	DB	00H
	DB	00H
	DB	00H
	DB	00H
	DB	00H
	DB	00H
	DB	00H
	DB	00H
	DB	00H
	DB	00H
	DB	00H
	DB	00H
	DB	00H
	DB	00H
	DB	00H
	DB	00H
	DB	00H
	DB	00H
	DB	00H
	DB	00H
	DB	00H
	DB	00H
	DB	00H
	DB	00H
	DB	00H
	DB	00H
	DB	00H
	DB	00H
	DB	00H
	DB	00H
	DB	00H
	DB	00H
	DB	00H
	DB	00H
	DB	00H
	DB	00H
	DB	00H
	DB	00H
	DB	00H
	DB	00H
	DB	00H
	DB	00H
	DB	00H
	DB	00H
	DB	00H
	DB	00H
	DB	00H
	DB	00H
	DB	00H
	DB	00H
	DB	00H
	DB	00H
	DB	00H
	DB	00H
	DB	00H
	DB	00H
	DB	00H
	DB	00H
	DB	00H
	DB	00H
	DB	00H
	DB	00H
	DB	00H
	DB	00H
	DB	00H
	DB	00H
	DB	00H
	DB	00H
	DB	00H
	DB	00H
	DB	00H
	DB	00H
	DB	00H
	DB	00H
	DB	00H
	DB	00H
	DB	00H
	DB	00H
	DB	00H
	DB	00H
	DB	00H
	DB	00H
	DB	00H
	DB	00H
	DB	00H
	DB	00H
	DB	00H
	DB	00H
	DB	00H
	DB	00H
	DB	00H
	DB	00H
	DB	00H
	DB	00H
	DB	00H
	DB	00H
	DB	00H
	DB	00H
	DB	00H
	DB	00H
	DB	00H
	DB	00H
	DB	00H
	DB	00H
	DB	00H
	DB	00H
	DB	00H
	DB	00H
	DB	00H
	DB	00H
	DB	00H
	DB	00H
	DB	00H
	DB	00H
	DB	00H
	DB	00H
	DB	00H
	DB	00H
	DB	00H
	DB	00H
	DB	00H
	DB	00H
	DB	00H
	DB	00H
	DB	00H
	DB	00H
	DB	00H
	DB	00H
	DB	00H
	DB	00H
	DB	00H
	DB	00H
	DB	00H
	DB	00H
	DB	00H
	DB	00H
	DB	00H
	DB	00H
	DB	00H
	DB	00H
	DB	00H
	DB	00H
	DB	00H
	DB	00H
	DB	00H
	DB	00H
	DB	00H
	DB	00H
	DB	00H
	DB	00H
	DB	00H
	DB	00H
	DB	00H
	DB	00H
	DB	00H
	DB	00H
	DB	00H
	DB	00H
	DB	00H
	DB	00H
	DB	00H
	DB	00H
	DB	00H
	DB	00H
	DB	00H
	DB	00H
	DB	00H
	DB	00H
	DB	00H
	DB	00H
	DB	00H
	DB	00H
	DB	00H
	DB	00H
	DB	00H
	DB	00H
	DB	00H
	DB	00H
	DB	00H
	DB	00H
	DB	00H
	DB	00H
	DB	00H
	DB	00H
	DB	00H
	DB	00H
	DB	00H
	DB	00H
	DB	00H
	DB	00H
	DB	00H
	DB	00H
	DB	00H
	DB	00H
	DB	00H
	DB	00H
	DB	00H
	DB	00H
	DB	00H
	DB	00H
	DB	00H
	DB	00H
	DB	00H
	DB	00H
	DB	00H
	DB	00H
	DB	00H
	DB	00H
	DB	00H
	DB	00H
	DB	00H
	DB	00H
	DB	00H
	DB	00H
	DB	00H
	DB	00H
	DB	00H
	DB	00H
	DB	00H
	DB	00H
	DB	00H
	DB	00H
	DB	00H
	DB	00H
	DB	00H
	DB	00H
	DB	00H
	DB	00H
	DB	00H
	DB	00H
	DB	00H
	DB	00H
	DB	00H
	DB	00H
	DB	00H
	DB	00H
	DB	00H
	DB	00H
	DB	00H
	DB	00H
	DB	00H
	DB	00H
	DB	00H
	DB	00H
	DB	00H
	DB	00H
	DB	00H
	DB	00H
	DB	00H
	DB	00H
	DB	00H
	DB	00H
	DB	00H
	DB	00H
	DB	00H
	DB	00H
	DB	00H
	DB	00H
	DB	00H
	DB	00H
	DB	00H
	DB	00H
	DB	00H
	DB	00H
	DB	00H
	DB	00H
	DB	00H
	DB	00H
	DB	00H
	DB	00H
	DB	00H
	DB	00H
	DB	00H
	DB	00H
	DB	00H
	DB	00H
	DB	00H
	DB	00H
	DB	00H
	DB	00H
	DB	00H
	DB	00H
	DB	00H
	DB	00H
	DB	00H
	DB	00H
	DB	00H
	DB	00H
	DB	00H
	DB	00H
	DB	00H
	DB	00H
	DB	00H
	DB	00H
	DB	00H
	DB	00H
	DB	00H
	DB	00H
	DB	00H
	DB	00H
	DB	00H
	DB	00H
	DB	00H
	DB	00H
	DB	00H
	DB	00H
	DB	00H
	DB	00H
	DB	00H
	DB	00H
	DB	00H
	DB	00H
	DB	00H
	DB	00H
	DB	00H
	DB	00H
	DB	00H
	DB	00H
	DB	00H
	DB	00H
	DB	00H
	DB	00H
	DB	00H
	DB	00H
	DB	00H
	DB	00H
	DB	00H
	DB	00H
	DB	00H
	DB	00H
	DB	00H
	DB	00H
	DB	00H
	DB	00H
	DB	00H
	DB	00H
	DB	00H
	DB	00H
	DB	00H
	DB	00H
	DB	00H
	DB	00H
	DB	00H
	DB	00H
	DB	00H
	DB	00H
	DB	00H
	DB	00H
	DB	00H
	DB	00H
	DB	00H
	DB	00H
	DB	00H
	DB	00H
	DB	00H
	DB	00H
	DB	00H
	DB	00H
	DB	00H
	DB	00H
	DB	00H
	DB	00H
	DB	00H
	DB	00H
	DB	00H
	DB	00H
	DB	00H
	DB	00H
	DB	00H
	DB	00H
	DB	00H
	DB	00H
	DB	00H
	DB	00H
	DB	00H
	DB	00H
	DB	00H
	DB	00H
	DB	00H
	DB	00H
	DB	00H
	DB	00H
	DB	00H
	DB	00H
	DB	00H
	DB	00H
	DB	00H
	DB	00H
	DB	00H
	DB	00H
	DB	00H
	DB	00H
	DB	00H
	DB	00H
	DB	00H
	DB	00H
	DB	00H
	DB	00H
	DB	00H
	DB	00H
	DB	00H
	DB	00H
	DB	00H
	DB	00H
	DB	00H
	DB	00H
	DB	00H
	DB	00H
	DB	00H
	DB	00H
	DB	00H
	DB	00H
	DB	00H
	DB	00H
	DB	00H
	DB	00H
	DB	00H
	DB	00H
	DB	00H
	DB	00H
	DB	00H
	DB	00H
	DB	00H
	DB	00H
	DB	00H
	DB	00H
	DB	00H
	DB	00H
	DB	00H
	DB	00H
	DB	00H
	DB	00H
	DB	00H
	DB	00H
	DB	00H
	DB	00H
	DB	00H
	DB	00H
	DB	00H
	DB	00H
	DB	00H
	DB	00H
	DB	00H
	DB	00H
	DB	00H
	DB	00H
	DB	00H
	DB	00H
	DB	00H
	DB	00H
	DB	00H
	DB	00H
	DB	00H
	DB	00H
	DB	00H
	DB	00H
	DB	00H
	DB	00H
	DB	00H
	DB	00H
	DB	00H
	DB	00H
	DB	00H
	DB	00H
	DB	00H
	DB	00H
	DB	00H
	DB	00H
	DB	00H
	DB	00H
	DB	00H
	DB	00H
	DB	00H
	DB	00H
	DB	00H
	DB	00H
	DB	00H
	DB	00H
	DB	00H
	DB	00H
	DB	00H
	DB	00H
	DB	00H
	DB	00H
	DB	00H
	DB	00H
	DB	00H
	DB	00H
	DB	00H
	DB	00H
	DB	00H
	DB	00H
	DB	00H
	DB	00H
	DB	00H
	DB	00H
	DB	00H
	DB	00H
	DB	00H
	DB	00H
	DB	00H
	DB	00H
	DB	00H
	DB	00H
	DB	00H
	DB	00H
	DB	00H
	DB	00H
	DB	00H
	DB	00H
	DB	00H
	DB	00H
	DB	00H
	DB	00H
	DB	00H
	DB	00H
	DB	00H
	DB	00H
	DB	00H
	DB	00H
	DB	00H
	DB	080H
	DB	00H
	DB	00H
	DB	00H
	DB	00H
	DB	00H
	DB	00H
	DB	00H
	DB	00H
	DB	00H
	DB	00H
	DB	00H
	DB	00H
	DB	00H
	DB	00H
	DB	00H
	DB	00H
	DB	00H
	DB	00H
	DB	00H
	DB	00H
	DB	00H
	DB	00H
	DB	00H
	DB	00H
	DB	00H
	DB	00H
	DB	00H
	DB	00H
	DB	00H
	DB	00H
	DB	00H
	DB	00H
	DB	00H
	DB	00H
	DB	00H
	DB	00H
	DB	00H
	DB	00H
	DB	00H
	DB	00H
	DB	00H
	DB	00H
	DB	00H
	DB	00H
	DB	00H
	DB	00H
	DB	00H
	DB	00H
	DB	00H
	DB	00H
	DB	00H
	DB	00H
	DB	00H
	DB	00H
	DB	00H
	DB	00H
	DB	00H
	DB	00H
	DB	00H
	DB	00H
	DB	00H
	DB	00H
	DB	00H
	DB	00H
	DB	00H
	DB	00H
	DB	00H
	DB	00H
	DB	00H
	DB	00H
	DB	00H
	DB	00H
	DB	00H
	DB	00H
	DB	00H
	DB	00H
	DB	00H
	DB	00H
	DB	00H
	DB	00H
	DB	00H
	DB	00H
	DB	00H
	DB	00H
	DB	00H
	DB	00H
	DB	00H
	DB	00H
	DB	00H
	DB	00H
	DB	00H
	DB	00H
	DB	00H
	DB	00H
	DB	00H
	DB	00H
	DB	00H
	DB	00H
	DB	00H
	DB	00H
	DB	00H
	DB	00H
	DB	00H
	DB	00H
	DB	00H
	DB	00H
	DB	00H
	DB	00H
	DB	00H
	DB	00H
	DB	00H
	DB	00H
	DB	00H
	DB	00H
	DB	00H
	DB	00H
	DB	00H
	DB	00H
	DB	00H
	DB	00H
	DB	00H
	DB	00H
	DB	00H
	DB	00H
	DB	00H
	DB	00H
	DB	00H
	DB	00H
	DB	00H
	DB	00H
	DB	00H
	DB	00H
	DB	00H
	DB	00H
	DB	00H
	DB	00H
	DB	00H
	DB	00H
	DB	00H
	DB	00H
	DB	00H
	DB	00H
	DB	00H
	DB	00H
	DB	00H
	DB	00H
	DB	00H
	DB	00H
	DB	00H
	DB	00H
	DB	00H
	DB	00H
	DB	00H
	DB	00H
	DB	00H
	DB	00H
	DB	00H
	DB	00H
	DB	00H
	DB	00H
	DB	00H
	DB	00H
	DB	00H
	DB	00H
	DB	00H
	DB	00H
	DB	00H
	DB	00H
	DB	00H
	DB	00H
	DB	00H
	DB	00H
	DB	00H
	DB	00H
	DB	00H
	DB	00H
	DB	00H
	DB	00H
	DB	00H
	DB	00H
	DB	00H
	DB	00H
	DB	00H
	DB	00H
	DB	00H
	DB	00H
	DB	00H
	DB	00H
	DB	00H
	DB	00H
	DB	00H
	DB	00H
	DB	00H
	DB	00H
	DB	00H
	DB	00H
	DB	00H
	DB	00H
	DB	00H
	DB	00H
	DB	00H
	DB	00H
	DB	00H
	DB	00H
	DB	00H
	DB	00H
	DB	00H
	DB	00H
	DB	00H
	DB	00H
	DB	00H
	DB	00H
	DB	00H
	DB	00H
	DB	00H
	DB	00H
	DB	00H
	DB	00H
	DB	00H
	DB	00H
	DB	00H
	DB	00H
	DB	00H
	DB	00H
	DB	00H
	DB	00H
	DB	00H
	DB	00H
	DB	00H
	DB	00H
	DB	00H
	DB	00H
	DB	00H
	DB	00H
	DB	00H
	DB	00H
	DB	00H
	DB	00H
	DB	00H
	DB	00H
	DB	00H
	DB	00H
	DB	00H
	DB	00H
	DB	00H
	DB	00H
	DB	00H
	DB	00H
	DB	00H
	DB	00H
	DB	00H
	DB	00H
	DB	00H
	DB	00H
	DB	00H
	DB	00H
	DB	00H
	DB	00H
	DB	00H
	DB	00H
	DB	00H
	DB	00H
	DB	00H
	DB	00H
	DB	00H
	DB	00H
	DB	00H
	DB	00H
	DB	00H
	DB	00H
	DB	00H
	DB	00H
	DB	00H
	DB	00H
	DB	00H
	DB	00H
	DB	00H
	DB	00H
	DB	00H
	DB	00H
	DB	00H
	DB	00H
	DB	00H
	DB	00H
	DB	00H
	DB	00H
	DB	00H
	DB	00H
	DB	00H
	DB	00H
	DB	00H
	DB	00H
	DB	00H
	DB	00H
	DB	00H
	DB	00H
	DB	00H
	DB	00H
	DB	00H
	DB	00H
	DB	00H
	DB	00H
	DB	00H
	DB	00H
	DB	00H
	DB	00H
	DB	00H
	DB	00H
	DB	00H
	DB	00H
	DB	00H
	DB	00H
	DB	00H
	DB	00H
	DB	00H
	DB	00H
	DB	00H
	DB	00H
	DB	00H
	DB	00H
	DB	00H
	DB	00H
	DB	00H
	DB	00H
	DB	00H
	DB	00H
	DB	00H
	DB	00H
	DB	00H
	DB	00H
	DB	00H
	DB	00H
	DB	00H
	DB	00H
	DB	00H
	DB	00H
	DB	00H
	DB	00H
	DB	00H
	DB	00H
	DB	00H
	DB	00H
	DB	00H
	DB	00H
	DB	00H
	DB	00H
	DB	00H
	DB	00H
	DB	00H
	DB	00H
	DB	00H
	DB	00H
	DB	00H
	DB	00H
	DB	00H
	DB	00H
	DB	00H
	DB	00H
	DB	00H
	DB	00H
	DB	00H
	DB	00H
	DB	00H
	DB	00H
	DB	00H
	DB	00H
	DB	00H
	DB	00H
	DB	00H
	DB	00H
	DB	00H
	DB	00H
	DB	00H
	DB	00H
	DB	00H
	DB	00H
	DB	00H
	DB	00H
	DB	00H
	DB	00H
	DB	00H
	DB	00H
	DB	00H
	DB	00H
	DB	00H
	DB	00H
	DB	00H
	DB	00H
	DB	00H
	DB	00H
	DB	00H
	DB	00H
	DB	00H
	DB	00H
	DB	00H
	DB	00H
	DB	00H
	DB	00H
	DB	00H
	DB	00H
	DB	00H
	DB	0d2H
	DB	0d2H
	DB	00H
	DB	080H
	DB	05eH
	DB	085H
	DB	0b5H
	DB	05eH
	DB	0dH
	DB	00H
	DB	00H
	DB	0d2H
	DB	098H
	DB	0b9H
	DB	01bH
	DB	0d2H
	DB	00H
	DB	00H
	DB	00H
	DB	00H
	DB	00H
	DB	00H
	DB	00H
	DB	00H
	DB	00H
	DB	00H
	DB	00H
	DB	00H
	DB	00H
	DB	00H
	DB	00H
	DB	00H
	DB	00H
	DB	00H
	DB	00H
	DB	00H
	DB	00H
	DB	00H
	DB	00H
	DB	00H
	DB	00H
	DB	00H
	DB	00H
	DB	00H
	DB	00H
	DB	00H
	DB	00H
	DB	00H
	DB	00H
	DB	00H
	DB	00H
	DB	00H
	DB	00H
	DB	00H
	DB	00H
	DB	00H
	DB	00H
	DB	00H
	DB	00H
	DB	00H
	DB	00H
	DB	00H
	DB	00H
	DB	00H
	DB	00H
	DB	00H
	DB	00H
	DB	00H
	DB	00H
	DB	00H
	DB	00H
	DB	00H
	DB	00H
	DB	00H
	DB	00H
	DB	00H
	DB	00H
	DB	00H
	DB	00H
	DB	00H
	DB	00H
	DB	00H
	DB	00H
	DB	00H
	DB	00H
	DB	00H
	DB	00H
	DB	00H
	DB	00H
	DB	00H
	DB	00H
	DB	00H
	DB	00H
	DB	00H
	DB	00H
	DB	00H
	DB	00H
	DB	00H
	DB	00H
	DB	00H
	DB	00H
	DB	00H
	DB	00H
	DB	00H
	DB	00H
	DB	00H
	DB	00H
	DB	00H
	DB	00H
	DB	00H
	DB	00H
	DB	00H
	DB	00H
	DB	00H
	DB	00H
	DB	00H
	DB	00H
	DB	00H
	DB	00H
	DB	00H
	DB	00H
	DB	00H
	DB	00H
	DB	00H
	DB	00H
	DB	00H
	DB	00H
	DB	00H
	DB	00H
	DB	00H
	DB	00H
	DB	00H
	DB	00H
	DB	00H
	DB	00H
	DB	00H
	DB	00H
	DB	00H
	DB	00H
	DB	00H
	DB	00H
	DB	00H
	DB	00H
	DB	00H
	DB	00H
	DB	00H
	DB	00H
	DB	00H
	DB	00H
	DB	00H
	DB	00H
	DB	00H
	DB	00H
	DB	00H
	DB	00H
	DB	00H
	DB	00H
	DB	00H
	DB	00H
	DB	00H
	DB	00H
	DB	00H
	DB	00H
	DB	00H
	DB	00H
	DB	00H
	DB	00H
	DB	00H
	DB	00H
	DB	00H
	DB	00H
	DB	00H
	DB	00H
	DB	00H
	DB	00H
	DB	00H
	DB	00H
	DB	00H
	DB	00H
	DB	00H
	DB	00H
	DB	00H
	DB	00H
	DB	00H
	DB	00H
	DB	00H
	DB	00H
	DB	00H
	DB	00H
	DB	00H
	DB	00H
	DB	00H
	DB	00H
	DB	00H
	DB	00H
	DB	00H
	DB	00H
	DB	00H
	DB	00H
	DB	00H
	DB	00H
	DB	00H
	DB	00H
	DB	00H
	DB	00H
	DB	00H
	DB	00H
	DB	00H
	DB	00H
	DB	00H
	DB	00H
	DB	00H
	DB	00H
	DB	00H
	DB	00H
	DB	00H
	DB	00H
	DB	00H
	DB	00H
	DB	00H
	DB	00H
	DB	00H
	DB	00H
	DB	00H
	DB	00H
	DB	00H
	DB	00H
	DB	00H
	DB	00H
	DB	00H
	DB	00H
	DB	00H
	DB	00H
	DB	00H
	DB	00H
	DB	00H
	DB	00H
	DB	00H
	DB	00H
	DB	00H
	DB	00H
	DB	00H
	DB	00H
	DB	00H
	DB	00H
	DB	00H
	DB	00H
	DB	00H
	DB	00H
	DB	00H
	DB	00H
	DB	00H
	DB	00H
	DB	00H
	DB	00H
	DB	00H
	DB	00H
	DB	00H
	DB	00H
	DB	00H
	DB	00H
	DB	00H
	DB	00H
	DB	00H
	DB	00H
	DB	00H
	DB	00H
	DB	00H
	DB	00H
	DB	00H
	DB	00H
	DB	00H
	DB	00H
	DB	00H
	DB	00H
	DB	00H
	DB	00H
	DB	00H
	DB	00H
	DB	00H
	DB	00H
	DB	00H
	DB	00H
	DB	00H
	DB	00H
	DB	00H
	DB	00H
	DB	00H
	DB	00H
	DB	00H
	DB	00H
	DB	00H
	DB	00H
	DB	00H
	DB	00H
	DB	00H
	DB	00H
	DB	00H
	DB	00H
	DB	00H
	DB	00H
	DB	00H
	DB	00H
	DB	00H
	DB	00H
	DB	00H
	DB	00H
	DB	00H
	DB	00H
	DB	00H
	DB	00H
	DB	00H
	DB	00H
	DB	00H
	DB	00H
	DB	00H
	DB	00H
	DB	00H
	DB	00H
	DB	00H
	DB	00H
	DB	00H
	DB	00H
	DB	00H
	DB	00H
	DB	00H
	DB	00H
	DB	00H
	DB	00H
	DB	00H
	DB	00H
	DB	00H
	DB	00H
	DB	00H
	DB	00H
	DB	00H
	DB	00H
	DB	00H
	DB	00H
	DB	00H
	DB	00H
	DB	00H
	DB	00H
	DB	00H
	DB	00H
	DB	00H
	DB	00H
	DB	00H
	DB	00H
	DB	00H
	DB	00H
	DB	00H
	DB	00H
	DB	00H
	DB	00H
	DB	00H
	DB	00H
	DB	00H
	DB	00H
	DB	00H
	DB	00H
	DB	00H
	DB	00H
	DB	00H
	DB	00H
	DB	00H
	DB	00H
	DB	00H
	DB	00H
	DB	00H
	DB	00H
	DB	00H
	DB	00H
	DB	00H
	DB	00H
	DB	00H
	DB	00H
	DB	00H
	DB	00H
	DB	00H
	DB	00H
	DB	00H
	DB	00H
	DB	00H
	DB	00H
	DB	00H
	DB	00H
	DB	00H
	DB	00H
	DB	00H
	DB	00H
	DB	00H
	DB	00H
	DB	00H
	DB	00H
	DB	00H
	DB	00H
	DB	00H
	DB	00H
	DB	00H
	DB	00H
	DB	00H
	DB	00H
	DB	00H
	DB	00H
	DB	00H
	DB	00H
	DB	00H
	DB	00H
	DB	00H
	DB	00H
	DB	080H
	DB	0cH
	DB	03H
	DB	08H
	DB	01bH
	DB	09cH
	DB	02H
	DB	010H
	DB	0aaH
	DB	01cH
	DB	040H
	DB	052H
	DB	052H
	DB	05fH
	DB	098H
	DB	022H
	DB	02eH
	DB	02eH
	DB	078H
	DB	01cH
	DB	00H
	DB	00H
	DB	00H
	DB	00H
	DB	00H
	DB	00H
	DB	00H
	DB	00H
	DB	00H
	DB	00H
	DB	00H
	DB	00H
	DB	00H
	DB	00H
	DB	00H
	DB	00H
	DB	00H
	DB	00H
	DB	00H
	DB	00H
	DB	00H
	DB	00H
	DB	00H
	DB	00H
	DB	00H
	DB	00H
	DB	00H
	DB	00H
	DB	00H
	DB	00H
	DB	00H
	DB	00H
	DB	00H
	DB	00H
	DB	00H
	DB	00H
	DB	00H
	DB	00H
	DB	00H
	DB	00H
	DB	00H
	DB	00H
	DB	00H
	DB	00H
	DB	00H
	DB	00H
	DB	00H
	DB	00H
	DB	00H
	DB	00H
	DB	00H
	DB	00H
	DB	00H
	DB	00H
	DB	00H
	DB	00H
	DB	00H
	DB	00H
	DB	00H
	DB	00H
	DB	00H
	DB	00H
	DB	00H
	DB	00H
	DB	00H
	DB	00H
	DB	00H
	DB	00H
	DB	00H
	DB	00H
	DB	00H
	DB	00H
	DB	00H
	DB	00H
	DB	00H
	DB	00H
	DB	00H
	DB	00H
	DB	00H
	DB	00H
	DB	00H
	DB	00H
	DB	00H
	DB	00H
	DB	00H
	DB	00H
	DB	00H
	DB	00H
	DB	00H
	DB	00H
	DB	00H
	DB	00H
	DB	00H
	DB	00H
	DB	00H
	DB	00H
	DB	00H
	DB	00H
	DB	00H
	DB	00H
	DB	00H
	DB	00H
	DB	00H
	DB	00H
	DB	00H
	DB	00H
	DB	00H
	DB	00H
	DB	00H
	DB	00H
	DB	00H
	DB	00H
	DB	00H
	DB	00H
	DB	00H
	DB	00H
	DB	00H
	DB	00H
	DB	00H
	DB	00H
	DB	00H
	DB	00H
	DB	00H
	DB	00H
	DB	00H
	DB	00H
	DB	00H
	DB	00H
	DB	00H
	DB	00H
	DB	00H
	DB	00H
	DB	00H
	DB	00H
	DB	00H
	DB	00H
	DB	00H
	DB	00H
	DB	00H
	DB	00H
	DB	00H
	DB	00H
	DB	00H
	DB	00H
	DB	00H
	DB	00H
	DB	00H
	DB	00H
	DB	00H
	DB	00H
	DB	00H
	DB	00H
	DB	00H
	DB	00H
	DB	00H
	DB	00H
	DB	00H
	DB	00H
	DB	00H
	DB	00H
	DB	00H
	DB	00H
	DB	00H
	DB	00H
	DB	00H
	DB	00H
	DB	00H
	DB	00H
	DB	00H
	DB	00H
	DB	00H
	DB	00H
	DB	00H
	DB	00H
	DB	00H
	DB	00H
	DB	00H
	DB	00H
	DB	00H
	DB	00H
	DB	00H
	DB	00H
	DB	00H
	DB	00H
	DB	00H
	DB	00H
	DB	00H
	DB	00H
	DB	00H
	DB	00H
	DB	00H
	DB	00H
	DB	00H
	DB	00H
	DB	00H
	DB	00H
	DB	00H
	DB	00H
	DB	00H
	DB	00H
	DB	00H
	DB	00H
	DB	00H
	DB	00H
	DB	00H
	DB	00H
	DB	00H
	DB	00H
	DB	00H
	DB	00H
	DB	00H
	DB	00H
	DB	00H
	DB	00H
	DB	00H
	DB	00H
	DB	00H
	DB	00H
	DB	00H
	DB	00H
	DB	00H
	DB	00H
	DB	00H
	DB	00H
	DB	00H
	DB	00H
	DB	00H
	DB	00H
	DB	00H
	DB	00H
	DB	00H
	DB	00H
	DB	00H
	DB	00H
	DB	00H
	DB	00H
	DB	00H
	DB	00H
	DB	00H
	DB	00H
	DB	00H
	DB	00H
	DB	00H
	DB	00H
	DB	00H
	DB	00H
	DB	00H
	DB	00H
	DB	00H
	DB	00H
	DB	00H
	DB	00H
	DB	00H
	DB	00H
	DB	00H
	DB	00H
	DB	00H
	DB	00H
	DB	00H
	DB	00H
	DB	00H
	DB	00H
	DB	00H
	DB	00H
	DB	00H
	DB	00H
	DB	00H
	DB	00H
	DB	00H
	DB	00H
	DB	00H
	DB	00H
	DB	00H
	DB	00H
	DB	00H
	DB	00H
	DB	00H
	DB	00H
	DB	00H
	DB	00H
	DB	00H
	DB	00H
	DB	00H
	DB	00H
	DB	00H
	DB	00H
	DB	00H
	DB	00H
	DB	00H
	DB	00H
	DB	00H
	DB	00H
	DB	00H
	DB	00H
	DB	00H
	DB	00H
	DB	00H
	DB	00H
	DB	00H
	DB	00H
	DB	00H
	DB	00H
	DB	00H
	DB	00H
	DB	00H
	DB	00H
	DB	00H
	DB	00H
	DB	00H
	DB	00H
	DB	00H
	DB	00H
	DB	00H
	DB	00H
	DB	00H
	DB	00H
	DB	00H
	DB	00H
	DB	00H
	DB	00H
	DB	00H
	DB	00H
	DB	00H
	DB	00H
	DB	00H
	DB	00H
	DB	00H
	DB	00H
	DB	00H
	DB	00H
	DB	00H
	DB	00H
	DB	00H
	DB	00H
	DB	00H
	DB	00H
	DB	00H
	DB	00H
	DB	00H
	DB	00H
	DB	00H
	DB	00H
	DB	00H
	DB	00H
	DB	00H
	DB	00H
	DB	00H
	DB	00H
	DB	00H
	DB	00H
	DB	00H
	DB	00H
	DB	00H
	DB	00H
	DB	00H
	DB	00H
	DB	00H
	DB	00H
	DB	00H
	DB	00H
	DB	00H
	DB	00H
	DB	00H
	DB	00H
	DB	00H
	DB	00H
	DB	00H
	DB	00H
	DB	00H
	DB	00H
	DB	00H
	DB	00H
	DB	00H
	DB	00H
	DB	00H
	DB	00H
	DB	00H
	DB	00H
	DB	00H
	DB	00H
	DB	00H
	DB	00H
	DB	00H
	DB	00H
	DB	00H
	DB	00H
	DB	00H
	DB	00H
	DB	00H
	DB	00H
	DB	00H
	DB	00H
	DB	00H
	DB	00H
	DB	0bfH
	DB	02H
	DB	08H
	DB	01eH
	DB	09cH
	DB	01H
	DB	091H
	DB	03H
	DB	07aH
	DB	091H
	DB	01eH
	DB	07aH
	DB	0aaH
	DB	062H
	DB	04H
	DB	01cH
	DB	022H
	DB	0c7H
	DB	035H
	DB	02dH
	DB	028H
	DB	022H
	DB	00H
	DB	00H
	DB	00H
	DB	00H
	DB	00H
	DB	00H
	DB	00H
	DB	00H
	DB	00H
	DB	00H
	DB	00H
	DB	00H
	DB	00H
	DB	00H
	DB	00H
	DB	00H
	DB	00H
	DB	00H
	DB	00H
	DB	00H
	DB	00H
	DB	0d2H
	DB	09H
	DB	081H
	DB	010H
	DB	01H
	DB	094H
	DB	01bH
	DB	08aH
	DB	02H
	DB	0dH
	DB	09H
	DB	03fH
	DB	00H
	DB	00H
	DB	00H
	DB	00H
	DB	00H
	DB	00H
	DB	00H
	DB	00H
	DB	00H
	DB	00H
	DB	00H
	DB	00H
	DB	00H
	DB	00H
	DB	00H
	DB	00H
	DB	00H
	DB	00H
	DB	00H
	DB	00H
	DB	00H
	DB	00H
	DB	00H
	DB	00H
	DB	00H
	DB	00H
	DB	00H
	DB	00H
	DB	00H
	DB	00H
	DB	00H
	DB	00H
	DB	00H
	DB	00H
	DB	00H
	DB	00H
	DB	00H
	DB	00H
	DB	00H
	DB	00H
	DB	00H
	DB	00H
	DB	00H
	DB	00H
	DB	00H
	DB	00H
	DB	00H
	DB	00H
	DB	00H
	DB	00H
	DB	00H
	DB	00H
	DB	00H
	DB	00H
	DB	00H
	DB	00H
	DB	00H
	DB	00H
	DB	00H
	DB	00H
	DB	00H
	DB	00H
	DB	00H
	DB	00H
	DB	00H
	DB	00H
	DB	00H
	DB	00H
	DB	00H
	DB	00H
	DB	00H
	DB	00H
	DB	00H
	DB	00H
	DB	00H
	DB	00H
	DB	00H
	DB	00H
	DB	00H
	DB	00H
	DB	00H
	DB	00H
	DB	00H
	DB	00H
	DB	00H
	DB	00H
	DB	00H
	DB	00H
	DB	00H
	DB	00H
	DB	00H
	DB	00H
	DB	00H
	DB	00H
	DB	00H
	DB	00H
	DB	00H
	DB	00H
	DB	00H
	DB	00H
	DB	00H
	DB	00H
	DB	00H
	DB	00H
	DB	00H
	DB	00H
	DB	00H
	DB	00H
	DB	00H
	DB	00H
	DB	00H
	DB	00H
	DB	00H
	DB	00H
	DB	00H
	DB	00H
	DB	00H
	DB	00H
	DB	00H
	DB	00H
	DB	00H
	DB	00H
	DB	00H
	DB	00H
	DB	00H
	DB	00H
	DB	00H
	DB	00H
	DB	00H
	DB	00H
	DB	00H
	DB	00H
	DB	00H
	DB	00H
	DB	00H
	DB	00H
	DB	00H
	DB	00H
	DB	00H
	DB	00H
	DB	00H
	DB	00H
	DB	00H
	DB	00H
	DB	00H
	DB	00H
	DB	00H
	DB	00H
	DB	00H
	DB	00H
	DB	00H
	DB	00H
	DB	00H
	DB	00H
	DB	00H
	DB	00H
	DB	00H
	DB	00H
	DB	00H
	DB	00H
	DB	00H
	DB	00H
	DB	00H
	DB	00H
	DB	00H
	DB	00H
	DB	00H
	DB	00H
	DB	00H
	DB	00H
	DB	00H
	DB	00H
	DB	00H
	DB	00H
	DB	00H
	DB	00H
	DB	00H
	DB	00H
	DB	00H
	DB	00H
	DB	00H
	DB	00H
	DB	00H
	DB	00H
	DB	00H
	DB	00H
	DB	00H
	DB	00H
	DB	00H
	DB	00H
	DB	00H
	DB	00H
	DB	00H
	DB	00H
	DB	00H
	DB	00H
	DB	00H
	DB	00H
	DB	00H
	DB	00H
	DB	00H
	DB	00H
	DB	00H
	DB	00H
	DB	00H
	DB	00H
	DB	00H
	DB	00H
	DB	00H
	DB	00H
	DB	00H
	DB	00H
	DB	00H
	DB	00H
	DB	00H
	DB	00H
	DB	00H
	DB	00H
	DB	00H
	DB	00H
	DB	00H
	DB	00H
	DB	00H
	DB	00H
	DB	00H
	DB	00H
	DB	00H
	DB	00H
	DB	00H
	DB	00H
	DB	00H
	DB	00H
	DB	00H
	DB	00H
	DB	00H
	DB	00H
	DB	00H
	DB	00H
	DB	00H
	DB	00H
	DB	00H
	DB	00H
	DB	00H
	DB	00H
	DB	00H
	DB	00H
	DB	00H
	DB	00H
	DB	00H
	DB	00H
	DB	00H
	DB	00H
	DB	00H
	DB	00H
	DB	00H
	DB	00H
	DB	00H
	DB	00H
	DB	00H
	DB	00H
	DB	00H
	DB	00H
	DB	00H
	DB	00H
	DB	00H
	DB	00H
	DB	00H
	DB	00H
	DB	00H
	DB	00H
	DB	00H
	DB	00H
	DB	00H
	DB	00H
	DB	00H
	DB	00H
	DB	00H
	DB	00H
	DB	00H
	DB	00H
	DB	00H
	DB	00H
	DB	00H
	DB	00H
	DB	00H
	DB	00H
	DB	00H
	DB	00H
	DB	00H
	DB	00H
	DB	00H
	DB	00H
	DB	00H
	DB	00H
	DB	00H
	DB	00H
	DB	00H
	DB	00H
	DB	00H
	DB	00H
	DB	00H
	DB	00H
	DB	00H
	DB	00H
	DB	00H
	DB	00H
	DB	00H
	DB	00H
	DB	00H
	DB	00H
	DB	00H
	DB	00H
	DB	00H
	DB	00H
	DB	00H
	DB	00H
	DB	00H
	DB	00H
	DB	00H
	DB	00H
	DB	00H
	DB	00H
	DB	00H
	DB	00H
	DB	00H
	DB	00H
	DB	00H
	DB	00H
	DB	00H
	DB	00H
	DB	00H
	DB	00H
	DB	00H
	DB	00H
	DB	00H
	DB	00H
	DB	00H
	DB	00H
	DB	00H
	DB	00H
	DB	00H
	DB	00H
	DB	00H
	DB	00H
	DB	00H
	DB	00H
	DB	00H
	DB	00H
	DB	00H
	DB	00H
	DB	00H
	DB	00H
	DB	00H
	DB	00H
	DB	00H
	DB	0d2H
	DB	04eH
	DB	0a8H
	DB	08H
	DB	094H
	DB	063H
	DB	067H
	DB	01bH
	DB	02H
	DB	033H
	DB	0d4H
	DB	0cH
	DB	0dH
	DB	08H
	DB	04H
	DB	057H
	DB	022H
	DB	0c4H
	DB	04dH
	DB	05H
	DB	083H
	DB	05H
	DB	05fH
	DB	0e1H
	DB	021H
	DB	090H
	DB	0d1H
	DB	091H
	DB	00H
	DB	00H
	DB	00H
	DB	00H
	DB	00H
	DB	00H
	DB	00H
	DB	00H
	DB	00H
	DB	00H
	DB	00H
	DB	00H
	DB	00H
	DB	00H
	DB	0d2H
	DB	09H
	DB	020H
	DB	036H
	DB	01cH
	DB	01dH
	DB	04bH
	DB	040H
	DB	0dfH
	DB	05H
	DB	04H
	DB	067H
	DB	057H
	DB	05H
	DB	05H
	DB	057H
	DB	096H
	DB	094H
	DB	0d7H
	DB	09H
	DB	00H
	DB	00H
	DB	00H
	DB	00H
	DB	00H
	DB	00H
	DB	00H
	DB	00H
	DB	00H
	DB	00H
	DB	00H
	DB	00H
	DB	00H
	DB	00H
	DB	00H
	DB	00H
	DB	00H
	DB	00H
	DB	00H
	DB	00H
	DB	00H
	DB	00H
	DB	00H
	DB	00H
	DB	00H
	DB	00H
	DB	00H
	DB	00H
	DB	00H
	DB	00H
	DB	00H
	DB	00H
	DB	00H
	DB	00H
	DB	00H
	DB	00H
	DB	00H
	DB	00H
	DB	00H
	DB	00H
	DB	00H
	DB	00H
	DB	00H
	DB	00H
	DB	00H
	DB	00H
	DB	00H
	DB	00H
	DB	00H
	DB	00H
	DB	00H
	DB	00H
	DB	00H
	DB	00H
	DB	00H
	DB	00H
	DB	00H
	DB	00H
	DB	00H
	DB	00H
	DB	00H
	DB	00H
	DB	00H
	DB	00H
	DB	00H
	DB	00H
	DB	00H
	DB	00H
	DB	00H
	DB	00H
	DB	00H
	DB	00H
	DB	00H
	DB	00H
	DB	00H
	DB	00H
	DB	00H
	DB	00H
	DB	00H
	DB	00H
	DB	00H
	DB	00H
	DB	00H
	DB	00H
	DB	00H
	DB	00H
	DB	00H
	DB	00H
	DB	00H
	DB	00H
	DB	00H
	DB	00H
	DB	00H
	DB	00H
	DB	00H
	DB	00H
	DB	00H
	DB	00H
	DB	00H
	DB	00H
	DB	00H
	DB	00H
	DB	00H
	DB	00H
	DB	00H
	DB	00H
	DB	00H
	DB	00H
	DB	00H
	DB	00H
	DB	00H
	DB	00H
	DB	00H
	DB	00H
	DB	00H
	DB	00H
	DB	00H
	DB	00H
	DB	00H
	DB	00H
	DB	00H
	DB	00H
	DB	00H
	DB	00H
	DB	00H
	DB	00H
	DB	00H
	DB	00H
	DB	00H
	DB	00H
	DB	00H
	DB	00H
	DB	00H
	DB	00H
	DB	00H
	DB	00H
	DB	00H
	DB	00H
	DB	00H
	DB	00H
	DB	00H
	DB	00H
	DB	00H
	DB	00H
	DB	00H
	DB	00H
	DB	00H
	DB	00H
	DB	00H
	DB	00H
	DB	00H
	DB	00H
	DB	00H
	DB	00H
	DB	00H
	DB	00H
	DB	00H
	DB	00H
	DB	00H
	DB	00H
	DB	00H
	DB	00H
	DB	00H
	DB	00H
	DB	00H
	DB	00H
	DB	00H
	DB	00H
	DB	00H
	DB	00H
	DB	00H
	DB	00H
	DB	00H
	DB	00H
	DB	00H
	DB	00H
	DB	00H
	DB	00H
	DB	00H
	DB	00H
	DB	00H
	DB	00H
	DB	00H
	DB	00H
	DB	00H
	DB	00H
	DB	00H
	DB	00H
	DB	00H
	DB	00H
	DB	00H
	DB	00H
	DB	00H
	DB	00H
	DB	00H
	DB	00H
	DB	00H
	DB	00H
	DB	00H
	DB	00H
	DB	00H
	DB	00H
	DB	00H
	DB	00H
	DB	00H
	DB	00H
	DB	00H
	DB	00H
	DB	00H
	DB	00H
	DB	00H
	DB	00H
	DB	00H
	DB	00H
	DB	00H
	DB	00H
	DB	00H
	DB	00H
	DB	00H
	DB	00H
	DB	00H
	DB	00H
	DB	00H
	DB	00H
	DB	00H
	DB	00H
	DB	00H
	DB	00H
	DB	00H
	DB	00H
	DB	00H
	DB	00H
	DB	00H
	DB	00H
	DB	00H
	DB	00H
	DB	00H
	DB	00H
	DB	00H
	DB	00H
	DB	00H
	DB	00H
	DB	00H
	DB	00H
	DB	00H
	DB	00H
	DB	00H
	DB	00H
	DB	00H
	DB	00H
	DB	00H
	DB	00H
	DB	00H
	DB	00H
	DB	00H
	DB	00H
	DB	00H
	DB	00H
	DB	00H
	DB	00H
	DB	00H
	DB	00H
	DB	00H
	DB	00H
	DB	00H
	DB	00H
	DB	00H
	DB	00H
	DB	00H
	DB	00H
	DB	00H
	DB	00H
	DB	00H
	DB	00H
	DB	00H
	DB	00H
	DB	00H
	DB	00H
	DB	00H
	DB	00H
	DB	00H
	DB	00H
	DB	00H
	DB	00H
	DB	00H
	DB	00H
	DB	00H
	DB	00H
	DB	00H
	DB	00H
	DB	00H
	DB	00H
	DB	00H
	DB	00H
	DB	00H
	DB	00H
	DB	00H
	DB	00H
	DB	00H
	DB	00H
	DB	00H
	DB	00H
	DB	00H
	DB	00H
	DB	00H
	DB	00H
	DB	00H
	DB	00H
	DB	00H
	DB	00H
	DB	00H
	DB	00H
	DB	00H
	DB	00H
	DB	00H
	DB	00H
	DB	00H
	DB	00H
	DB	00H
	DB	00H
	DB	00H
	DB	00H
	DB	00H
	DB	00H
	DB	00H
	DB	00H
	DB	00H
	DB	00H
	DB	00H
	DB	00H
	DB	00H
	DB	00H
	DB	00H
	DB	00H
	DB	00H
	DB	00H
	DB	00H
	DB	00H
	DB	00H
	DB	00H
	DB	00H
	DB	00H
	DB	00H
	DB	00H
	DB	00H
	DB	00H
	DB	00H
	DB	00H
	DB	00H
	DB	00H
	DB	04eH
	DB	03H
	DB	01H
	DB	096H
	DB	06cH
	DB	04dH
	DB	0dfH
	DB	06aH
	DB	0dfH
	DB	04dH
	DB	083H
	DB	05H
	DB	0b5H
	DB	04H
	DB	085H
	DB	022H
	DB	01cH
	DB	08bH
	DB	08bH
	DB	0c4H
	DB	07dH
	DB	022H
	DB	022H
	DB	022H
	DB	06cH
	DB	057H
	DB	036H
	DB	030H
	DB	028H
	DB	021H
	DB	034H
	DB	03fH
	DB	00H
	DB	00H
	DB	00H
	DB	00H
	DB	00H
	DB	00H
	DB	00H
	DB	00H
	DB	0d2H
	DB	0cH
	DB	02H
	DB	04H
	DB	040H
	DB	08dH
	DB	05cH
	DB	06dH
	DB	065H
	DB	03cH
	DB	03cH
	DB	03cH
	DB	03cH
	DB	06dH
	DB	02aH
	DB	014H
	DB	057H
	DB	0aH
	DB	095H
	DB	096H
	DB	04aH
	DB	096H
	DB	05H
	DB	05H
	DB	096H
	DB	08H
	DB	04eH
	DB	00H
	DB	00H
	DB	00H
	DB	00H
	DB	00H
	DB	00H
	DB	00H
	DB	00H
	DB	00H
	DB	00H
	DB	00H
	DB	00H
	DB	00H
	DB	00H
	DB	00H
	DB	00H
	DB	00H
	DB	00H
	DB	00H
	DB	00H
	DB	00H
	DB	00H
	DB	00H
	DB	00H
	DB	00H
	DB	00H
	DB	00H
	DB	00H
	DB	00H
	DB	00H
	DB	00H
	DB	00H
	DB	00H
	DB	00H
	DB	00H
	DB	00H
	DB	00H
	DB	00H
	DB	00H
	DB	00H
	DB	00H
	DB	00H
	DB	00H
	DB	00H
	DB	00H
	DB	00H
	DB	00H
	DB	00H
	DB	00H
	DB	00H
	DB	00H
	DB	00H
	DB	00H
	DB	00H
	DB	00H
	DB	00H
	DB	00H
	DB	00H
	DB	00H
	DB	00H
	DB	00H
	DB	00H
	DB	00H
	DB	00H
	DB	00H
	DB	00H
	DB	00H
	DB	00H
	DB	00H
	DB	00H
	DB	00H
	DB	00H
	DB	00H
	DB	00H
	DB	00H
	DB	00H
	DB	00H
	DB	00H
	DB	00H
	DB	00H
	DB	00H
	DB	00H
	DB	00H
	DB	00H
	DB	00H
	DB	00H
	DB	00H
	DB	00H
	DB	00H
	DB	00H
	DB	00H
	DB	00H
	DB	00H
	DB	00H
	DB	00H
	DB	00H
	DB	00H
	DB	00H
	DB	00H
	DB	00H
	DB	00H
	DB	00H
	DB	00H
	DB	00H
	DB	00H
	DB	00H
	DB	00H
	DB	00H
	DB	00H
	DB	00H
	DB	00H
	DB	00H
	DB	00H
	DB	00H
	DB	00H
	DB	00H
	DB	00H
	DB	00H
	DB	00H
	DB	00H
	DB	00H
	DB	00H
	DB	00H
	DB	00H
	DB	00H
	DB	00H
	DB	00H
	DB	00H
	DB	00H
	DB	00H
	DB	00H
	DB	00H
	DB	00H
	DB	00H
	DB	00H
	DB	00H
	DB	00H
	DB	00H
	DB	00H
	DB	00H
	DB	00H
	DB	00H
	DB	00H
	DB	00H
	DB	00H
	DB	00H
	DB	00H
	DB	00H
	DB	00H
	DB	00H
	DB	00H
	DB	00H
	DB	00H
	DB	00H
	DB	00H
	DB	00H
	DB	00H
	DB	00H
	DB	00H
	DB	00H
	DB	00H
	DB	00H
	DB	00H
	DB	00H
	DB	00H
	DB	00H
	DB	00H
	DB	00H
	DB	00H
	DB	00H
	DB	00H
	DB	00H
	DB	00H
	DB	00H
	DB	00H
	DB	00H
	DB	00H
	DB	00H
	DB	00H
	DB	00H
	DB	00H
	DB	00H
	DB	00H
	DB	00H
	DB	00H
	DB	00H
	DB	00H
	DB	00H
	DB	00H
	DB	00H
	DB	00H
	DB	00H
	DB	00H
	DB	00H
	DB	00H
	DB	00H
	DB	00H
	DB	00H
	DB	00H
	DB	00H
	DB	00H
	DB	00H
	DB	00H
	DB	00H
	DB	00H
	DB	00H
	DB	00H
	DB	00H
	DB	00H
	DB	00H
	DB	00H
	DB	00H
	DB	00H
	DB	00H
	DB	00H
	DB	00H
	DB	00H
	DB	00H
	DB	00H
	DB	00H
	DB	00H
	DB	00H
	DB	00H
	DB	00H
	DB	00H
	DB	00H
	DB	00H
	DB	00H
	DB	00H
	DB	00H
	DB	00H
	DB	00H
	DB	00H
	DB	00H
	DB	00H
	DB	00H
	DB	00H
	DB	00H
	DB	00H
	DB	00H
	DB	00H
	DB	00H
	DB	00H
	DB	00H
	DB	00H
	DB	00H
	DB	00H
	DB	00H
	DB	00H
	DB	00H
	DB	00H
	DB	00H
	DB	00H
	DB	00H
	DB	00H
	DB	00H
	DB	00H
	DB	00H
	DB	00H
	DB	00H
	DB	00H
	DB	00H
	DB	00H
	DB	00H
	DB	00H
	DB	00H
	DB	00H
	DB	00H
	DB	00H
	DB	00H
	DB	00H
	DB	00H
	DB	00H
	DB	00H
	DB	00H
	DB	00H
	DB	00H
	DB	00H
	DB	00H
	DB	00H
	DB	00H
	DB	00H
	DB	00H
	DB	00H
	DB	00H
	DB	00H
	DB	00H
	DB	00H
	DB	00H
	DB	00H
	DB	00H
	DB	00H
	DB	00H
	DB	00H
	DB	00H
	DB	00H
	DB	00H
	DB	00H
	DB	00H
	DB	00H
	DB	00H
	DB	00H
	DB	00H
	DB	00H
	DB	00H
	DB	00H
	DB	00H
	DB	00H
	DB	00H
	DB	00H
	DB	00H
	DB	00H
	DB	00H
	DB	00H
	DB	00H
	DB	00H
	DB	00H
	DB	00H
	DB	00H
	DB	00H
	DB	00H
	DB	00H
	DB	00H
	DB	00H
	DB	00H
	DB	00H
	DB	00H
	DB	00H
	DB	00H
	DB	00H
	DB	00H
	DB	00H
	DB	00H
	DB	00H
	DB	00H
	DB	00H
	DB	00H
	DB	00H
	DB	00H
	DB	00H
	DB	00H
	DB	00H
	DB	00H
	DB	00H
	DB	0d2H
	DB	04eH
	DB	02H
	DB	063H
	DB	0b5H
	DB	06cH
	DB	05H
	DB	04H
	DB	063H
	DB	063H
	DB	063H
	DB	04aH
	DB	067H
	DB	05H
	DB	057H
	DB	0b5H
	DB	0b5H
	DB	08bH
	DB	08bH
	DB	08bH
	DB	022H
	DB	022H
	DB	083H
	DB	0b5H
	DB	0b5H
	DB	0b5H
	DB	0b5H
	DB	0b5H
	DB	0b5H
	DB	0b5H
	DB	057H
	DB	05H
	DB	0e1H
	DB	014H
	DB	0eaH
	DB	039H
	DB	00H
	DB	00H
	DB	00H
	DB	032H
	DB	025H
	DB	08H
	DB	057H
	DB	04bH
	DB	06bH
	DB	052H
	DB	06dH
	DB	03cH
	DB	013H
	DB	013H
	DB	03cH
	DB	0f9H
	DB	0f9H
	DB	028H
	DB	028H
	DB	028H
	DB	046H
	DB	06eH
	DB	021H
	DB	0beH
	DB	03cH
	DB	029H
	DB	0c4H
	DB	094H
	DB	095H
	DB	07bH
	DB	04H
	DB	04H
	DB	096H
	DB	05H
	DB	04H
	DB	010H
	DB	0bfH
	DB	00H
	DB	00H
	DB	00H
	DB	00H
	DB	00H
	DB	00H
	DB	00H
	DB	00H
	DB	00H
	DB	00H
	DB	00H
	DB	00H
	DB	00H
	DB	00H
	DB	00H
	DB	00H
	DB	00H
	DB	00H
	DB	00H
	DB	00H
	DB	00H
	DB	00H
	DB	00H
	DB	00H
	DB	00H
	DB	00H
	DB	00H
	DB	00H
	DB	00H
	DB	00H
	DB	00H
	DB	00H
	DB	00H
	DB	00H
	DB	00H
	DB	00H
	DB	00H
	DB	00H
	DB	00H
	DB	00H
	DB	00H
	DB	00H
	DB	00H
	DB	00H
	DB	00H
	DB	00H
	DB	00H
	DB	00H
	DB	00H
	DB	00H
	DB	00H
	DB	00H
	DB	00H
	DB	00H
	DB	00H
	DB	00H
	DB	00H
	DB	00H
	DB	00H
	DB	00H
	DB	00H
	DB	00H
	DB	00H
	DB	00H
	DB	00H
	DB	00H
	DB	00H
	DB	00H
	DB	00H
	DB	00H
	DB	00H
	DB	00H
	DB	00H
	DB	00H
	DB	00H
	DB	00H
	DB	00H
	DB	00H
	DB	00H
	DB	00H
	DB	00H
	DB	00H
	DB	00H
	DB	00H
	DB	00H
	DB	00H
	DB	00H
	DB	00H
	DB	00H
	DB	00H
	DB	00H
	DB	00H
	DB	00H
	DB	00H
	DB	00H
	DB	00H
	DB	00H
	DB	00H
	DB	00H
	DB	00H
	DB	00H
	DB	00H
	DB	00H
	DB	00H
	DB	00H
	DB	00H
	DB	00H
	DB	00H
	DB	00H
	DB	00H
	DB	00H
	DB	00H
	DB	00H
	DB	00H
	DB	00H
	DB	00H
	DB	00H
	DB	00H
	DB	00H
	DB	00H
	DB	00H
	DB	00H
	DB	00H
	DB	00H
	DB	00H
	DB	00H
	DB	00H
	DB	00H
	DB	00H
	DB	00H
	DB	00H
	DB	00H
	DB	00H
	DB	00H
	DB	00H
	DB	00H
	DB	00H
	DB	00H
	DB	00H
	DB	00H
	DB	00H
	DB	00H
	DB	00H
	DB	00H
	DB	00H
	DB	00H
	DB	00H
	DB	00H
	DB	00H
	DB	00H
	DB	00H
	DB	00H
	DB	00H
	DB	00H
	DB	00H
	DB	00H
	DB	00H
	DB	00H
	DB	00H
	DB	00H
	DB	00H
	DB	00H
	DB	00H
	DB	00H
	DB	00H
	DB	00H
	DB	00H
	DB	00H
	DB	00H
	DB	00H
	DB	00H
	DB	00H
	DB	00H
	DB	00H
	DB	00H
	DB	00H
	DB	00H
	DB	00H
	DB	00H
	DB	00H
	DB	00H
	DB	00H
	DB	00H
	DB	00H
	DB	00H
	DB	00H
	DB	00H
	DB	00H
	DB	00H
	DB	00H
	DB	00H
	DB	00H
	DB	00H
	DB	00H
	DB	00H
	DB	00H
	DB	00H
	DB	00H
	DB	00H
	DB	00H
	DB	00H
	DB	00H
	DB	00H
	DB	00H
	DB	00H
	DB	00H
	DB	00H
	DB	00H
	DB	00H
	DB	00H
	DB	00H
	DB	00H
	DB	00H
	DB	00H
	DB	00H
	DB	00H
	DB	00H
	DB	00H
	DB	00H
	DB	00H
	DB	00H
	DB	00H
	DB	00H
	DB	00H
	DB	00H
	DB	00H
	DB	00H
	DB	00H
	DB	00H
	DB	00H
	DB	00H
	DB	00H
	DB	00H
	DB	00H
	DB	00H
	DB	00H
	DB	00H
	DB	00H
	DB	00H
	DB	00H
	DB	00H
	DB	00H
	DB	00H
	DB	00H
	DB	00H
	DB	00H
	DB	00H
	DB	00H
	DB	00H
	DB	00H
	DB	00H
	DB	00H
	DB	00H
	DB	00H
	DB	00H
	DB	00H
	DB	00H
	DB	00H
	DB	00H
	DB	00H
	DB	00H
	DB	00H
	DB	00H
	DB	00H
	DB	00H
	DB	00H
	DB	00H
	DB	00H
	DB	00H
	DB	00H
	DB	00H
	DB	00H
	DB	00H
	DB	00H
	DB	00H
	DB	00H
	DB	00H
	DB	00H
	DB	00H
	DB	00H
	DB	00H
	DB	00H
	DB	00H
	DB	00H
	DB	00H
	DB	00H
	DB	00H
	DB	00H
	DB	00H
	DB	00H
	DB	00H
	DB	00H
	DB	00H
	DB	00H
	DB	00H
	DB	00H
	DB	00H
	DB	00H
	DB	00H
	DB	00H
	DB	00H
	DB	00H
	DB	00H
	DB	00H
	DB	00H
	DB	00H
	DB	00H
	DB	00H
	DB	00H
	DB	00H
	DB	00H
	DB	00H
	DB	00H
	DB	00H
	DB	00H
	DB	00H
	DB	00H
	DB	00H
	DB	00H
	DB	00H
	DB	00H
	DB	00H
	DB	00H
	DB	00H
	DB	00H
	DB	00H
	DB	00H
	DB	00H
	DB	00H
	DB	00H
	DB	00H
	DB	00H
	DB	00H
	DB	00H
	DB	00H
	DB	00H
	DB	00H
	DB	00H
	DB	00H
	DB	00H
	DB	09H
	DB	098H
	DB	095H
	DB	022H
	DB	022H
	DB	067H
	DB	0aH
	DB	05eH
	DB	01eH
	DB	05eH
	DB	01H
	DB	01bH
	DB	05fH
	DB	036H
	DB	063H
	DB	063H
	DB	04H
	DB	04aH
	DB	04H
	DB	095H
	DB	09dH
	DB	04H
	DB	096H
	DB	04H
	DB	04H
	DB	04H
	DB	063H
	DB	063H
	DB	063H
	DB	095H
	DB	036H
	DB	09dH
	DB	04H
	DB	096H
	DB	05H
	DB	06aH
	DB	073H
	DB	053H
	DB	077H
	DB	05dH
	DB	059H
	DB	088H
	DB	049H
	DB	03cH
	DB	046H
	DB	046H
	DB	046H
	DB	046H
	DB	046H
	DB	028H
	DB	028H
	DB	046H
	DB	046H
	DB	046H
	DB	046H
	DB	06eH
	DB	06eH
	DB	06eH
	DB	021H
	DB	021H
	DB	021H
	DB	021H
	DB	0beH
	DB	0eH
	DB	0beH
	DB	02aH
	DB	022H
	DB	0aH
	DB	04H
	DB	04H
	DB	04H
	DB	063H
	DB	04H
	DB	04H
	DB	0aH
	DB	0a8H
	DB	00H
	DB	00H
	DB	00H
	DB	00H
	DB	00H
	DB	00H
	DB	00H
	DB	00H
	DB	00H
	DB	00H
	DB	00H
	DB	00H
	DB	00H
	DB	00H
	DB	00H
	DB	00H
	DB	00H
	DB	00H
	DB	00H
	DB	00H
	DB	00H
	DB	00H
	DB	00H
	DB	00H
	DB	00H
	DB	00H
	DB	00H
	DB	00H
	DB	00H
	DB	00H
	DB	00H
	DB	00H
	DB	00H
	DB	00H
	DB	00H
	DB	00H
	DB	00H
	DB	00H
	DB	00H
	DB	00H
	DB	00H
	DB	00H
	DB	00H
	DB	00H
	DB	00H
	DB	00H
	DB	00H
	DB	00H
	DB	09H
	DB	011H
	DB	098H
	DB	098H
	DB	098H
	DB	098H
	DB	098H
	DB	098H
	DB	098H
	DB	098H
	DB	098H
	DB	098H
	DB	098H
	DB	098H
	DB	098H
	DB	098H
	DB	098H
	DB	098H
	DB	098H
	DB	098H
	DB	098H
	DB	098H
	DB	098H
	DB	098H
	DB	098H
	DB	098H
	DB	098H
	DB	098H
	DB	098H
	DB	098H
	DB	098H
	DB	098H
	DB	098H
	DB	098H
	DB	098H
	DB	098H
	DB	098H
	DB	098H
	DB	098H
	DB	098H
	DB	098H
	DB	098H
	DB	098H
	DB	098H
	DB	098H
	DB	098H
	DB	098H
	DB	098H
	DB	098H
	DB	098H
	DB	098H
	DB	098H
	DB	098H
	DB	098H
	DB	098H
	DB	098H
	DB	098H
	DB	098H
	DB	098H
	DB	098H
	DB	098H
	DB	098H
	DB	098H
	DB	098H
	DB	098H
	DB	098H
	DB	098H
	DB	098H
	DB	098H
	DB	098H
	DB	098H
	DB	098H
	DB	098H
	DB	098H
	DB	098H
	DB	098H
	DB	098H
	DB	098H
	DB	098H
	DB	098H
	DB	098H
	DB	098H
	DB	098H
	DB	098H
	DB	098H
	DB	098H
	DB	098H
	DB	098H
	DB	098H
	DB	098H
	DB	098H
	DB	098H
	DB	098H
	DB	098H
	DB	098H
	DB	098H
	DB	098H
	DB	098H
	DB	098H
	DB	098H
	DB	098H
	DB	098H
	DB	098H
	DB	098H
	DB	098H
	DB	098H
	DB	098H
	DB	098H
	DB	098H
	DB	098H
	DB	098H
	DB	098H
	DB	098H
	DB	098H
	DB	098H
	DB	098H
	DB	098H
	DB	098H
	DB	098H
	DB	098H
	DB	098H
	DB	098H
	DB	098H
	DB	098H
	DB	098H
	DB	098H
	DB	098H
	DB	098H
	DB	098H
	DB	098H
	DB	098H
	DB	098H
	DB	098H
	DB	098H
	DB	098H
	DB	098H
	DB	098H
	DB	098H
	DB	098H
	DB	098H
	DB	098H
	DB	098H
	DB	098H
	DB	098H
	DB	098H
	DB	098H
	DB	098H
	DB	098H
	DB	098H
	DB	098H
	DB	098H
	DB	098H
	DB	098H
	DB	098H
	DB	098H
	DB	098H
	DB	098H
	DB	098H
	DB	098H
	DB	098H
	DB	098H
	DB	098H
	DB	098H
	DB	098H
	DB	098H
	DB	098H
	DB	098H
	DB	098H
	DB	098H
	DB	098H
	DB	098H
	DB	098H
	DB	098H
	DB	098H
	DB	098H
	DB	098H
	DB	098H
	DB	098H
	DB	098H
	DB	098H
	DB	098H
	DB	098H
	DB	098H
	DB	098H
	DB	098H
	DB	098H
	DB	098H
	DB	098H
	DB	098H
	DB	098H
	DB	098H
	DB	098H
	DB	098H
	DB	098H
	DB	098H
	DB	098H
	DB	098H
	DB	098H
	DB	098H
	DB	098H
	DB	098H
	DB	098H
	DB	098H
	DB	098H
	DB	098H
	DB	098H
	DB	098H
	DB	098H
	DB	098H
	DB	098H
	DB	098H
	DB	098H
	DB	098H
	DB	098H
	DB	098H
	DB	098H
	DB	098H
	DB	098H
	DB	098H
	DB	098H
	DB	098H
	DB	098H
	DB	098H
	DB	098H
	DB	098H
	DB	098H
	DB	098H
	DB	098H
	DB	098H
	DB	098H
	DB	098H
	DB	098H
	DB	098H
	DB	098H
	DB	098H
	DB	098H
	DB	098H
	DB	098H
	DB	098H
	DB	098H
	DB	098H
	DB	098H
	DB	098H
	DB	098H
	DB	098H
	DB	098H
	DB	098H
	DB	098H
	DB	098H
	DB	098H
	DB	098H
	DB	098H
	DB	098H
	DB	098H
	DB	098H
	DB	098H
	DB	098H
	DB	098H
	DB	098H
	DB	098H
	DB	098H
	DB	098H
	DB	098H
	DB	098H
	DB	098H
	DB	098H
	DB	098H
	DB	098H
	DB	098H
	DB	098H
	DB	098H
	DB	098H
	DB	098H
	DB	098H
	DB	098H
	DB	098H
	DB	098H
	DB	098H
	DB	098H
	DB	098H
	DB	098H
	DB	098H
	DB	098H
	DB	098H
	DB	098H
	DB	098H
	DB	098H
	DB	098H
	DB	098H
	DB	07aH
	DB	0a2H
	DB	06cH
	DB	04dH
	DB	06cH
	DB	063H
	DB	01H
	DB	05eH
	DB	05eH
	DB	05eH
	DB	01H
	DB	01H
	DB	01H
	DB	01bH
	DB	01bH
	DB	05fH
	DB	0aH
	DB	036H
	DB	036H
	DB	036H
	DB	036H
	DB	036H
	DB	05fH
	DB	01H
	DB	01bH
	DB	0aH
	DB	0aH
	DB	0aH
	DB	0aH
	DB	0aH
	DB	09dH
	DB	083H
	DB	0b7H
	DB	0ebH
	DB	062H
	DB	0cdH
	DB	02dH
	DB	06eH
	DB	012H
	DB	06eH
	DB	046H
	DB	046H
	DB	06eH
	DB	06eH
	DB	06eH
	DB	046H
	DB	046H
	DB	06eH
	DB	06eH
	DB	06eH
	DB	06eH
	DB	06eH
	DB	021H
	DB	021H
	DB	021H
	DB	021H
	DB	021H
	DB	021H
	DB	021H
	DB	021H
	DB	021H
	DB	021H
	DB	0beH
	DB	0beH
	DB	0beH
	DB	0beH
	DB	0eH
	DB	016H
	DB	0beH
	DB	014H
	DB	01H
	DB	04H
	DB	04H
	DB	063H
	DB	09dH
	DB	095H
	DB	095H
	DB	095H
	DB	010H
	DB	020H
	DB	020H
	DB	025H
	DB	0d2H
	DB	00H
	DB	00H
	DB	00H
	DB	00H
	DB	00H
	DB	00H
	DB	00H
	DB	00H
	DB	00H
	DB	00H
	DB	00H
	DB	00H
	DB	00H
	DB	00H
	DB	00H
	DB	00H
	DB	00H
	DB	00H
	DB	00H
	DB	00H
	DB	00H
	DB	00H
	DB	00H
	DB	00H
	DB	00H
	DB	00H
	DB	00H
	DB	00H
	DB	00H
	DB	00H
	DB	00H
	DB	00H
	DB	00H
	DB	00H
	DB	00H
	DB	00H
	DB	00H
	DB	00H
	DB	00H
	DB	00H
	DB	00H
	DB	0cH
	DB	0c3H
	DB	07dH
	DB	099H
	DB	0fH
	DB	0fH
	DB	0fH
	DB	0fH
	DB	0fH
	DB	0fH
	DB	0fH
	DB	0fH
	DB	0fH
	DB	0fH
	DB	0fH
	DB	0fH
	DB	0fH
	DB	0fH
	DB	0fH
	DB	0fH
	DB	0fH
	DB	0fH
	DB	0fH
	DB	0fH
	DB	0fH
	DB	0fH
	DB	0fH
	DB	0fH
	DB	0fH
	DB	0fH
	DB	0fH
	DB	0fH
	DB	0fH
	DB	0fH
	DB	0fH
	DB	0fH
	DB	0fH
	DB	0fH
	DB	0fH
	DB	0fH
	DB	0fH
	DB	0fH
	DB	0fH
	DB	0fH
	DB	0fH
	DB	0fH
	DB	0fH
	DB	0fH
	DB	0fH
	DB	0fH
	DB	0fH
	DB	0fH
	DB	0fH
	DB	0fH
	DB	0fH
	DB	0fH
	DB	0fH
	DB	0fH
	DB	0fH
	DB	0fH
	DB	0fH
	DB	0fH
	DB	0fH
	DB	0fH
	DB	0fH
	DB	0fH
	DB	0fH
	DB	0fH
	DB	0fH
	DB	0fH
	DB	0fH
	DB	0fH
	DB	0fH
	DB	0fH
	DB	0fH
	DB	0fH
	DB	0fH
	DB	0fH
	DB	0fH
	DB	0fH
	DB	0fH
	DB	0fH
	DB	0fH
	DB	0fH
	DB	0fH
	DB	0fH
	DB	0fH
	DB	0fH
	DB	0fH
	DB	0fH
	DB	0fH
	DB	0fH
	DB	0fH
	DB	0fH
	DB	0fH
	DB	0fH
	DB	0fH
	DB	0fH
	DB	0fH
	DB	0fH
	DB	0fH
	DB	0fH
	DB	0fH
	DB	0fH
	DB	0fH
	DB	0fH
	DB	0fH
	DB	0fH
	DB	0fH
	DB	0fH
	DB	0fH
	DB	0fH
	DB	0fH
	DB	0fH
	DB	0fH
	DB	0fH
	DB	0fH
	DB	0fH
	DB	0fH
	DB	0fH
	DB	0fH
	DB	0fH
	DB	0fH
	DB	0fH
	DB	0fH
	DB	0fH
	DB	0fH
	DB	0fH
	DB	0fH
	DB	0fH
	DB	0fH
	DB	0fH
	DB	0fH
	DB	0fH
	DB	0fH
	DB	0fH
	DB	0fH
	DB	0fH
	DB	0fH
	DB	0fH
	DB	0fH
	DB	0fH
	DB	0fH
	DB	0fH
	DB	0fH
	DB	0fH
	DB	0fH
	DB	0fH
	DB	0fH
	DB	0fH
	DB	0fH
	DB	0fH
	DB	0fH
	DB	0fH
	DB	0fH
	DB	0fH
	DB	0fH
	DB	0fH
	DB	0fH
	DB	0fH
	DB	0fH
	DB	0fH
	DB	0fH
	DB	0fH
	DB	0fH
	DB	0fH
	DB	0fH
	DB	0fH
	DB	0fH
	DB	0fH
	DB	0fH
	DB	0fH
	DB	0fH
	DB	0fH
	DB	0fH
	DB	0fH
	DB	0fH
	DB	0fH
	DB	0fH
	DB	0fH
	DB	0fH
	DB	0fH
	DB	0fH
	DB	0fH
	DB	0fH
	DB	0fH
	DB	0fH
	DB	0fH
	DB	0fH
	DB	0fH
	DB	0fH
	DB	0fH
	DB	0fH
	DB	0fH
	DB	0fH
	DB	0fH
	DB	0fH
	DB	0fH
	DB	0fH
	DB	0fH
	DB	0fH
	DB	0fH
	DB	0fH
	DB	0fH
	DB	0fH
	DB	0fH
	DB	0fH
	DB	0fH
	DB	0fH
	DB	0fH
	DB	0fH
	DB	0fH
	DB	0fH
	DB	0fH
	DB	0fH
	DB	0fH
	DB	0fH
	DB	0fH
	DB	0fH
	DB	0fH
	DB	0fH
	DB	0fH
	DB	0fH
	DB	0fH
	DB	0fH
	DB	0fH
	DB	0fH
	DB	0fH
	DB	0fH
	DB	0fH
	DB	0fH
	DB	0fH
	DB	0fH
	DB	0fH
	DB	0fH
	DB	0fH
	DB	0fH
	DB	0fH
	DB	0fH
	DB	0fH
	DB	0fH
	DB	0fH
	DB	0fH
	DB	0fH
	DB	0fH
	DB	0fH
	DB	0fH
	DB	0fH
	DB	0fH
	DB	0fH
	DB	0fH
	DB	0fH
	DB	0fH
	DB	0fH
	DB	0fH
	DB	0fH
	DB	0fH
	DB	0fH
	DB	0fH
	DB	0fH
	DB	0fH
	DB	0fH
	DB	0fH
	DB	0fH
	DB	0fH
	DB	0fH
	DB	0fH
	DB	0fH
	DB	0fH
	DB	0fH
	DB	0fH
	DB	0fH
	DB	0fH
	DB	0fH
	DB	0fH
	DB	0fH
	DB	0fH
	DB	0fH
	DB	0fH
	DB	0fH
	DB	0fH
	DB	0fH
	DB	0fH
	DB	0fH
	DB	0fH
	DB	0fH
	DB	0fH
	DB	0fH
	DB	01cH
	DB	022H
	DB	022H
	DB	06aH
	DB	04dH
	DB	05H
	DB	0aH
	DB	01H
	DB	01H
	DB	01H
	DB	01bH
	DB	01bH
	DB	05fH
	DB	0aH
	DB	0aH
	DB	0aH
	DB	0aH
	DB	0aH
	DB	05fH
	DB	0aH
	DB	0aH
	DB	0aH
	DB	0aH
	DB	0aH
	DB	05fH
	DB	01bH
	DB	01H
	DB	05eH
	DB	01H
	DB	0aH
	DB	09dH
	DB	0b3H
	DB	0dfH
	DB	0abH
	DB	06bH
	DB	062H
	DB	05cH
	DB	0bdH
	DB	078H
	DB	052H
	DB	06dH
	DB	03cH
	DB	019H
	DB	016H
	DB	0eH
	DB	0beH
	DB	06eH
	DB	021H
	DB	021H
	DB	021H
	DB	021H
	DB	021H
	DB	021H
	DB	021H
	DB	021H
	DB	0beH
	DB	0beH
	DB	021H
	DB	0beH
	DB	0beH
	DB	021H
	DB	0beH
	DB	0beH
	DB	0eH
	DB	0eH
	DB	0eH
	DB	0beH
	DB	028H
	DB	049H
	DB	029H
	DB	0eaH
	DB	0e1H
	DB	022H
	DB	067H
	DB	022H
	DB	01cH
	DB	06cH
	DB	0aH
	DB	01eH
	DB	01eH
	DB	08H
	DB	08H
	DB	095H
	DB	099H
	DB	0c4H
	DB	0b5H
	DB	02H
	DB	0d2H
	DB	00H
	DB	00H
	DB	00H
	DB	00H
	DB	00H
	DB	00H
	DB	00H
	DB	00H
	DB	00H
	DB	00H
	DB	00H
	DB	00H
	DB	00H
	DB	00H
	DB	00H
	DB	00H
	DB	00H
	DB	00H
	DB	00H
	DB	00H
	DB	00H
	DB	00H
	DB	00H
	DB	00H
	DB	00H
	DB	00H
	DB	00H
	DB	00H
	DB	00H
	DB	00H
	DB	00H
	DB	00H
	DB	00H
	DB	00H
	DB	00H
	DB	00H
	DB	00H
	DB	00H
	DB	0d7H
	DB	01cH
	DB	099H
	DB	07dH
	DB	06cH
	DB	0b5H
	DB	0b5H
	DB	0b5H
	DB	0b5H
	DB	0b5H
	DB	0b5H
	DB	0b5H
	DB	0b5H
	DB	0b5H
	DB	0b5H
	DB	0b5H
	DB	0b5H
	DB	0b5H
	DB	0b5H
	DB	0b5H
	DB	0b5H
	DB	0b5H
	DB	0b5H
	DB	0b5H
	DB	0b5H
	DB	0b5H
	DB	0b5H
	DB	0b5H
	DB	0b5H
	DB	0b5H
	DB	0b5H
	DB	0b5H
	DB	0b5H
	DB	0b5H
	DB	0b5H
	DB	0b5H
	DB	0b5H
	DB	0b5H
	DB	0b5H
	DB	0b5H
	DB	0b5H
	DB	0b5H
	DB	0b5H
	DB	0b5H
	DB	0b5H
	DB	0b5H
	DB	0b5H
	DB	0b5H
	DB	0b5H
	DB	0b5H
	DB	0b5H
	DB	0b5H
	DB	0b5H
	DB	0b5H
	DB	0b5H
	DB	0b5H
	DB	0b5H
	DB	0b5H
	DB	0b5H
	DB	0b5H
	DB	0b5H
	DB	0b5H
	DB	0b5H
	DB	0b5H
	DB	0b5H
	DB	0b5H
	DB	0b5H
	DB	0b5H
	DB	0b5H
	DB	0b5H
	DB	0b5H
	DB	0b5H
	DB	0b5H
	DB	0b5H
	DB	0b5H
	DB	0b5H
	DB	0b5H
	DB	0b5H
	DB	0b5H
	DB	0b5H
	DB	0b5H
	DB	0b5H
	DB	0b5H
	DB	0b5H
	DB	0b5H
	DB	0b5H
	DB	0b5H
	DB	0b5H
	DB	0b5H
	DB	0b5H
	DB	0b5H
	DB	0b5H
	DB	0b5H
	DB	0b5H
	DB	0b5H
	DB	0b5H
	DB	0b5H
	DB	0b5H
	DB	0b5H
	DB	0b5H
	DB	0b5H
	DB	0b5H
	DB	0b5H
	DB	0b5H
	DB	0b5H
	DB	0b5H
	DB	0b5H
	DB	0b5H
	DB	0b5H
	DB	0b5H
	DB	0b5H
	DB	0b5H
	DB	0b5H
	DB	0b5H
	DB	0b5H
	DB	0b5H
	DB	0b5H
	DB	0b5H
	DB	0b5H
	DB	0b5H
	DB	0b5H
	DB	0b5H
	DB	0b5H
	DB	0b5H
	DB	0b5H
	DB	0b5H
	DB	0b5H
	DB	0b5H
	DB	0b5H
	DB	0b5H
	DB	0b5H
	DB	0b5H
	DB	0b5H
	DB	0b5H
	DB	0b5H
	DB	0b5H
	DB	0b5H
	DB	0b5H
	DB	0b5H
	DB	0b5H
	DB	0b5H
	DB	0b5H
	DB	0b5H
	DB	0b5H
	DB	0b5H
	DB	0b5H
	DB	0b5H
	DB	0b5H
	DB	0b5H
	DB	0b5H
	DB	0b5H
	DB	0b5H
	DB	0b5H
	DB	0b5H
	DB	0b5H
	DB	0b5H
	DB	0b5H
	DB	0b5H
	DB	0b5H
	DB	0b5H
	DB	0b5H
	DB	0b5H
	DB	0b5H
	DB	0b5H
	DB	0b5H
	DB	0b5H
	DB	0b5H
	DB	0b5H
	DB	0b5H
	DB	0b5H
	DB	0b5H
	DB	0b5H
	DB	0b5H
	DB	0b5H
	DB	0b5H
	DB	0b5H
	DB	0b5H
	DB	0b5H
	DB	0b5H
	DB	0b5H
	DB	0b5H
	DB	0b5H
	DB	0b5H
	DB	0b5H
	DB	0b5H
	DB	0b5H
	DB	0b5H
	DB	0b5H
	DB	0b5H
	DB	0b5H
	DB	0b5H
	DB	0b5H
	DB	0b5H
	DB	0b5H
	DB	0b5H
	DB	0b5H
	DB	0b5H
	DB	0b5H
	DB	0b5H
	DB	0b5H
	DB	0b5H
	DB	0b5H
	DB	0b5H
	DB	0b5H
	DB	0b5H
	DB	0b5H
	DB	0b5H
	DB	0b5H
	DB	0b5H
	DB	0b5H
	DB	0b5H
	DB	0b5H
	DB	0b5H
	DB	0b5H
	DB	0b5H
	DB	0b5H
	DB	0b5H
	DB	0b5H
	DB	0b5H
	DB	0b5H
	DB	0b5H
	DB	0b5H
	DB	0b5H
	DB	0b5H
	DB	0b5H
	DB	0b5H
	DB	0b5H
	DB	0b5H
	DB	0b5H
	DB	0b5H
	DB	0b5H
	DB	0b5H
	DB	0b5H
	DB	0b5H
	DB	0b5H
	DB	0b5H
	DB	0b5H
	DB	0b5H
	DB	0b5H
	DB	0b5H
	DB	0b5H
	DB	0b5H
	DB	0b5H
	DB	0b5H
	DB	0b5H
	DB	0b5H
	DB	0b5H
	DB	0b5H
	DB	0b5H
	DB	0b5H
	DB	0b5H
	DB	0b5H
	DB	0b5H
	DB	0b5H
	DB	0b5H
	DB	0b5H
	DB	0b5H
	DB	0b5H
	DB	0b5H
	DB	0b5H
	DB	0b5H
	DB	0b5H
	DB	0b5H
	DB	0b5H
	DB	0b5H
	DB	0b5H
	DB	0b5H
	DB	0b5H
	DB	0b5H
	DB	0b5H
	DB	0b5H
	DB	0b5H
	DB	0b5H
	DB	0b5H
	DB	0b5H
	DB	0b5H
	DB	0b5H
	DB	0b5H
	DB	0b5H
	DB	0b5H
	DB	0b5H
	DB	0b5H
	DB	0b5H
	DB	0b5H
	DB	0b5H
	DB	0b5H
	DB	0b5H
	DB	0b5H
	DB	05H
	DB	05H
	DB	022H
	DB	04dH
	DB	067H
	DB	0aH
	DB	01H
	DB	01bH
	DB	05fH
	DB	0aH
	DB	0aH
	DB	036H
	DB	095H
	DB	063H
	DB	04H
	DB	04H
	DB	04H
	DB	04H
	DB	04H
	DB	04H
	DB	04H
	DB	04H
	DB	04H
	DB	063H
	DB	095H
	DB	0aH
	DB	0aH
	DB	0aH
	DB	04H
	DB	06cH
	DB	0fH
	DB	073H
	DB	059H
	DB	06bH
	DB	02eH
	DB	05cH
	DB	062H
	DB	0bdH
	DB	078H
	DB	078H
	DB	052H
	DB	074H
	DB	0f6H
	DB	06dH
	DB	03cH
	DB	019H
	DB	016H
	DB	016H
	DB	0eH
	DB	0beH
	DB	0beH
	DB	0beH
	DB	0beH
	DB	0beH
	DB	0beH
	DB	0beH
	DB	021H
	DB	0beH
	DB	0beH
	DB	0beH
	DB	0eH
	DB	0eH
	DB	0beH
	DB	028H
	DB	02cH
	DB	02aH
	DB	034H
	DB	01dH
	DB	022H
	DB	05H
	DB	067H
	DB	0b5H
	DB	0dfH
	DB	0fH
	DB	01dH
	DB	0c7H
	DB	0c7H
	DB	01cH
	DB	05aH
	DB	076H
	DB	076H
	DB	010H
	DB	05aH
	DB	08H
	DB	0b3H
	DB	022H
	DB	01cH
	DB	0fH
	DB	04H
	DB	0bH
	DB	00H
	DB	00H
	DB	00H
	DB	00H
	DB	00H
	DB	00H
	DB	00H
	DB	00H
	DB	00H
	DB	00H
	DB	00H
	DB	00H
	DB	00H
	DB	00H
	DB	00H
	DB	00H
	DB	00H
	DB	00H
	DB	00H
	DB	00H
	DB	00H
	DB	00H
	DB	00H
	DB	00H
	DB	00H
	DB	00H
	DB	00H
	DB	00H
	DB	00H
	DB	00H
	DB	00H
	DB	00H
	DB	00H
	DB	00H
	DB	00H
	DB	00H
	DB	0a8H
	DB	01cH
	DB	01cH
	DB	0b5H
	DB	05H
	DB	07bH
	DB	07bH
	DB	07bH
	DB	07bH
	DB	07bH
	DB	07bH
	DB	07bH
	DB	07bH
	DB	07bH
	DB	07bH
	DB	07bH
	DB	07bH
	DB	07bH
	DB	07bH
	DB	07bH
	DB	07bH
	DB	07bH
	DB	07bH
	DB	07bH
	DB	07bH
	DB	07bH
	DB	07bH
	DB	07bH
	DB	07bH
	DB	07bH
	DB	07bH
	DB	07bH
	DB	07bH
	DB	07bH
	DB	07bH
	DB	07bH
	DB	07bH
	DB	07bH
	DB	07bH
	DB	07bH
	DB	07bH
	DB	07bH
	DB	07bH
	DB	07bH
	DB	07bH
	DB	07bH
	DB	07bH
	DB	07bH
	DB	07bH
	DB	07bH
	DB	07bH
	DB	07bH
	DB	07bH
	DB	07bH
	DB	07bH
	DB	07bH
	DB	07bH
	DB	07bH
	DB	07bH
	DB	07bH
	DB	07bH
	DB	07bH
	DB	07bH
	DB	07bH
	DB	07bH
	DB	07bH
	DB	07bH
	DB	07bH
	DB	07bH
	DB	07bH
	DB	07bH
	DB	07bH
	DB	07bH
	DB	07bH
	DB	07bH
	DB	07bH
	DB	07bH
	DB	07bH
	DB	07bH
	DB	07bH
	DB	07bH
	DB	07bH
	DB	07bH
	DB	07bH
	DB	07bH
	DB	07bH
	DB	07bH
	DB	07bH
	DB	07bH
	DB	07bH
	DB	07bH
	DB	07bH
	DB	07bH
	DB	07bH
	DB	07bH
	DB	07bH
	DB	07bH
	DB	07bH
	DB	07bH
	DB	07bH
	DB	07bH
	DB	07bH
	DB	07bH
	DB	07bH
	DB	07bH
	DB	07bH
	DB	07bH
	DB	07bH
	DB	07bH
	DB	07bH
	DB	07bH
	DB	07bH
	DB	07bH
	DB	07bH
	DB	07bH
	DB	07bH
	DB	07bH
	DB	07bH
	DB	07bH
	DB	07bH
	DB	07bH
	DB	07bH
	DB	07bH
	DB	07bH
	DB	07bH
	DB	07bH
	DB	07bH
	DB	07bH
	DB	07bH
	DB	07bH
	DB	07bH
	DB	07bH
	DB	07bH
	DB	07bH
	DB	07bH
	DB	07bH
	DB	07bH
	DB	07bH
	DB	07bH
	DB	07bH
	DB	07bH
	DB	07bH
	DB	07bH
	DB	07bH
	DB	07bH
	DB	07bH
	DB	07bH
	DB	07bH
	DB	07bH
	DB	07bH
	DB	07bH
	DB	07bH
	DB	07bH
	DB	07bH
	DB	07bH
	DB	07bH
	DB	07bH
	DB	07bH
	DB	07bH
	DB	07bH
	DB	07bH
	DB	07bH
	DB	07bH
	DB	07bH
	DB	07bH
	DB	07bH
	DB	07bH
	DB	07bH
	DB	07bH
	DB	07bH
	DB	07bH
	DB	07bH
	DB	07bH
	DB	07bH
	DB	07bH
	DB	07bH
	DB	07bH
	DB	07bH
	DB	07bH
	DB	07bH
	DB	07bH
	DB	07bH
	DB	07bH
	DB	07bH
	DB	07bH
	DB	07bH
	DB	07bH
	DB	07bH
	DB	07bH
	DB	07bH
	DB	07bH
	DB	07bH
	DB	07bH
	DB	07bH
	DB	07bH
	DB	07bH
	DB	07bH
	DB	07bH
	DB	07bH
	DB	07bH
	DB	07bH
	DB	07bH
	DB	07bH
	DB	07bH
	DB	07bH
	DB	07bH
	DB	07bH
	DB	07bH
	DB	07bH
	DB	07bH
	DB	07bH
	DB	07bH
	DB	07bH
	DB	07bH
	DB	07bH
	DB	07bH
	DB	07bH
	DB	07bH
	DB	07bH
	DB	07bH
	DB	07bH
	DB	07bH
	DB	07bH
	DB	07bH
	DB	07bH
	DB	07bH
	DB	07bH
	DB	07bH
	DB	07bH
	DB	07bH
	DB	07bH
	DB	07bH
	DB	07bH
	DB	07bH
	DB	07bH
	DB	07bH
	DB	07bH
	DB	07bH
	DB	07bH
	DB	07bH
	DB	07bH
	DB	07bH
	DB	07bH
	DB	07bH
	DB	07bH
	DB	07bH
	DB	07bH
	DB	07bH
	DB	07bH
	DB	07bH
	DB	07bH
	DB	07bH
	DB	07bH
	DB	07bH
	DB	07bH
	DB	07bH
	DB	07bH
	DB	07bH
	DB	07bH
	DB	07bH
	DB	07bH
	DB	07bH
	DB	07bH
	DB	07bH
	DB	07bH
	DB	07bH
	DB	07bH
	DB	07bH
	DB	07bH
	DB	07bH
	DB	07bH
	DB	07bH
	DB	07bH
	DB	07bH
	DB	07bH
	DB	07bH
	DB	07bH
	DB	07bH
	DB	07bH
	DB	07bH
	DB	07bH
	DB	07bH
	DB	07bH
	DB	07bH
	DB	05H
	DB	05H
	DB	096H
	DB	04H
	DB	05H
	DB	04dH
	DB	06aH
	DB	067H
	DB	0aH
	DB	01bH
	DB	05fH
	DB	0aH
	DB	0aH
	DB	036H
	DB	095H
	DB	04H
	DB	04H
	DB	0b3H
	DB	05H
	DB	0b5H
	DB	0b5H
	DB	0b5H
	DB	0b5H
	DB	0b5H
	DB	05H
	DB	05H
	DB	05H
	DB	05H
	DB	057H
	DB	022H
	DB	05dH
	DB	077H
	DB	073H
	DB	059H
	DB	08dH
	DB	060H
	DB	06bH
	DB	029H
	DB	05cH
	DB	049H
	DB	03aH
	DB	06dH
	DB	03aH
	DB	065H
	DB	03cH
	DB	03cH
	DB	028H
	DB	028H
	DB	046H
	DB	06eH
	DB	06eH
	DB	021H
	DB	0eH
	DB	016H
	DB	016H
	DB	0eH
	DB	0beH
	DB	0beH
	DB	0eH
	DB	0eH
	DB	0eH
	DB	0eH
	DB	0beH
	DB	046H
	DB	02cH
	DB	0f1H
	DB	0acH
	DB	0c7H
	DB	06aH
	DB	057H
	DB	05H
	DB	057H
	DB	04dH
	DB	0e1H
	DB	01dH
	DB	04bH
	DB	09fH
	DB	0c7H
	DB	01dH
	DB	0fH
	DB	01cH
	DB	022H
	DB	01eH
	DB	039H
	DB	092H
	DB	01eH
	DB	08aH
	DB	08aH
	DB	08aH
	DB	0aH
	DB	05H
	DB	05H
	DB	022H
	DB	0e1H
	DB	0c3H
	DB	0d2H
	DB	00H
	DB	00H
	DB	00H
	DB	00H
	DB	00H
	DB	00H
	DB	00H
	DB	00H
	DB	00H
	DB	00H
	DB	00H
	DB	00H
	DB	00H
	DB	00H
	DB	00H
	DB	00H
	DB	00H
	DB	00H
	DB	00H
	DB	00H
	DB	00H
	DB	00H
	DB	00H
	DB	00H
	DB	00H
	DB	00H
	DB	00H
	DB	00H
	DB	00H
	DB	00H
	DB	00H
	DB	00H
	DB	00H
	DB	00H
	DB	0bH
	DB	022H
	DB	01cH
	DB	057H
	DB	07bH
	DB	05H
	DB	05H
	DB	05H
	DB	05H
	DB	05H
	DB	05H
	DB	05H
	DB	05H
	DB	05H
	DB	05H
	DB	05H
	DB	05H
	DB	05H
	DB	05H
	DB	05H
	DB	05H
	DB	05H
	DB	05H
	DB	05H
	DB	05H
	DB	05H
	DB	05H
	DB	05H
	DB	05H
	DB	05H
	DB	05H
	DB	05H
	DB	05H
	DB	05H
	DB	05H
	DB	05H
	DB	05H
	DB	05H
	DB	05H
	DB	05H
	DB	05H
	DB	05H
	DB	05H
	DB	05H
	DB	05H
	DB	05H
	DB	05H
	DB	05H
	DB	05H
	DB	05H
	DB	05H
	DB	05H
	DB	05H
	DB	05H
	DB	05H
	DB	05H
	DB	05H
	DB	05H
	DB	05H
	DB	05H
	DB	05H
	DB	05H
	DB	05H
	DB	05H
	DB	05H
	DB	05H
	DB	05H
	DB	05H
	DB	05H
	DB	05H
	DB	05H
	DB	05H
	DB	05H
	DB	05H
	DB	05H
	DB	05H
	DB	05H
	DB	05H
	DB	05H
	DB	05H
	DB	05H
	DB	05H
	DB	05H
	DB	05H
	DB	05H
	DB	05H
	DB	05H
	DB	05H
	DB	05H
	DB	05H
	DB	05H
	DB	05H
	DB	05H
	DB	05H
	DB	05H
	DB	05H
	DB	05H
	DB	05H
	DB	05H
	DB	05H
	DB	05H
	DB	05H
	DB	05H
	DB	05H
	DB	05H
	DB	05H
	DB	05H
	DB	05H
	DB	05H
	DB	05H
	DB	05H
	DB	05H
	DB	05H
	DB	05H
	DB	05H
	DB	05H
	DB	05H
	DB	05H
	DB	05H
	DB	05H
	DB	05H
	DB	05H
	DB	05H
	DB	05H
	DB	05H
	DB	05H
	DB	05H
	DB	05H
	DB	05H
	DB	05H
	DB	05H
	DB	05H
	DB	05H
	DB	05H
	DB	05H
	DB	05H
	DB	05H
	DB	05H
	DB	05H
	DB	05H
	DB	05H
	DB	05H
	DB	05H
	DB	05H
	DB	05H
	DB	05H
	DB	05H
	DB	05H
	DB	05H
	DB	05H
	DB	05H
	DB	05H
	DB	05H
	DB	05H
	DB	05H
	DB	05H
	DB	05H
	DB	05H
	DB	05H
	DB	05H
	DB	05H
	DB	05H
	DB	05H
	DB	05H
	DB	05H
	DB	05H
	DB	05H
	DB	05H
	DB	05H
	DB	05H
	DB	05H
	DB	05H
	DB	05H
	DB	05H
	DB	05H
	DB	05H
	DB	05H
	DB	05H
	DB	05H
	DB	05H
	DB	05H
	DB	05H
	DB	05H
	DB	05H
	DB	05H
	DB	05H
	DB	05H
	DB	05H
	DB	05H
	DB	05H
	DB	05H
	DB	05H
	DB	05H
	DB	05H
	DB	05H
	DB	05H
	DB	05H
	DB	05H
	DB	05H
	DB	05H
	DB	05H
	DB	05H
	DB	05H
	DB	05H
	DB	05H
	DB	05H
	DB	05H
	DB	05H
	DB	05H
	DB	05H
	DB	05H
	DB	05H
	DB	05H
	DB	05H
	DB	05H
	DB	05H
	DB	05H
	DB	05H
	DB	05H
	DB	05H
	DB	05H
	DB	05H
	DB	05H
	DB	05H
	DB	05H
	DB	05H
	DB	05H
	DB	05H
	DB	05H
	DB	05H
	DB	05H
	DB	05H
	DB	05H
	DB	05H
	DB	05H
	DB	05H
	DB	05H
	DB	05H
	DB	05H
	DB	05H
	DB	05H
	DB	05H
	DB	05H
	DB	05H
	DB	05H
	DB	05H
	DB	05H
	DB	05H
	DB	05H
	DB	05H
	DB	05H
	DB	05H
	DB	05H
	DB	05H
	DB	05H
	DB	05H
	DB	05H
	DB	05H
	DB	05H
	DB	05H
	DB	05H
	DB	05H
	DB	05H
	DB	05H
	DB	05H
	DB	05H
	DB	05H
	DB	05H
	DB	05H
	DB	05H
	DB	05H
	DB	05H
	DB	05H
	DB	05H
	DB	05H
	DB	05H
	DB	05H
	DB	05H
	DB	05H
	DB	05H
	DB	05H
	DB	05H
	DB	05H
	DB	05H
	DB	05H
	DB	085H
	DB	04H
	DB	05H
	DB	06aH
	DB	01cH
	DB	057H
	DB	0aH
	DB	05fH
	DB	0aH
	DB	036H
	DB	036H
	DB	063H
	DB	04H
	DB	04aH
	DB	067H
	DB	05H
	DB	0b5H
	DB	0b5H
	DB	06cH
	DB	0b5H
	DB	05H
	DB	05H
	DB	05H
	DB	0b5H
	DB	04dH
	DB	099H
	DB	040H
	DB	073H
	DB	07fH
	DB	06bH
	DB	060H
	DB	07fH
	DB	0aeH
	DB	088H
	DB	02eH
	DB	049H
	DB	03aH
	DB	015H
	DB	03cH
	DB	03cH
	DB	03cH
	DB	028H
	DB	046H
	DB	046H
	DB	06eH
	DB	021H
	DB	021H
	DB	0beH
	DB	0beH
	DB	0beH
	DB	0eH
	DB	0eH
	DB	0eH
	DB	0eH
	DB	0eH
	DB	016H
	DB	016H
	DB	0eH
	DB	021H
	DB	02dH
	DB	02eH
	DB	031H
	DB	014H
	DB	099H
	DB	06cH
	DB	05H
	DB	057H
	DB	022H
	DB	01cH
	DB	040H
	DB	04bH
	DB	09fH
	DB	09fH
	DB	0c7H
	DB	08cH
	DB	0fH
	DB	08bH
	DB	0b5H
	DB	085H
	DB	036H
	DB	01bH
	DB	01eH
	DB	025H
	DB	0bH
	DB	02H
	DB	08aH
	DB	08aH
	DB	08aH
	DB	08aH
	DB	0a2H
	DB	07bH
	DB	05H
	DB	05H
	DB	022H
	DB	0e1H
	DB	098H
	DB	00H
	DB	00H
	DB	00H
	DB	00H
	DB	00H
	DB	00H
	DB	00H
	DB	00H
	DB	00H
	DB	00H
	DB	00H
	DB	00H
	DB	00H
	DB	00H
	DB	00H
	DB	00H
	DB	00H
	DB	00H
	DB	00H
	DB	00H
	DB	00H
	DB	00H
	DB	00H
	DB	00H
	DB	00H
	DB	00H
	DB	00H
	DB	00H
	DB	00H
	DB	00H
	DB	00H
	DB	00H
	DB	00H
	DB	00H
	DB	07aH
	DB	0e1H
	DB	06cH
	DB	0b3H
	DB	07bH
	DB	07bH
	DB	07bH
	DB	07bH
	DB	07bH
	DB	07bH
	DB	07bH
	DB	07bH
	DB	07bH
	DB	07bH
	DB	07bH
	DB	07bH
	DB	07bH
	DB	07bH
	DB	07bH
	DB	07bH
	DB	07bH
	DB	07bH
	DB	07bH
	DB	07bH
	DB	07bH
	DB	07bH
	DB	07bH
	DB	07bH
	DB	07bH
	DB	07bH
	DB	07bH
	DB	07bH
	DB	07bH
	DB	07bH
	DB	07bH
	DB	07bH
	DB	07bH
	DB	07bH
	DB	07bH
	DB	07bH
	DB	07bH
	DB	07bH
	DB	07bH
	DB	07bH
	DB	07bH
	DB	07bH
	DB	07bH
	DB	07bH
	DB	07bH
	DB	07bH
	DB	07bH
	DB	07bH
	DB	07bH
	DB	07bH
	DB	07bH
	DB	07bH
	DB	07bH
	DB	07bH
	DB	07bH
	DB	07bH
	DB	07bH
	DB	07bH
	DB	07bH
	DB	07bH
	DB	07bH
	DB	07bH
	DB	07bH
	DB	07bH
	DB	07bH
	DB	07bH
	DB	07bH
	DB	07bH
	DB	07bH
	DB	07bH
	DB	07bH
	DB	07bH
	DB	07bH
	DB	07bH
	DB	07bH
	DB	07bH
	DB	07bH
	DB	07bH
	DB	07bH
	DB	07bH
	DB	07bH
	DB	07bH
	DB	07bH
	DB	07bH
	DB	07bH
	DB	07bH
	DB	07bH
	DB	07bH
	DB	07bH
	DB	07bH
	DB	07bH
	DB	07bH
	DB	07bH
	DB	07bH
	DB	07bH
	DB	07bH
	DB	07bH
	DB	07bH
	DB	07bH
	DB	07bH
	DB	07bH
	DB	07bH
	DB	07bH
	DB	07bH
	DB	07bH
	DB	07bH
	DB	07bH
	DB	07bH
	DB	07bH
	DB	07bH
	DB	07bH
	DB	07bH
	DB	07bH
	DB	07bH
	DB	07bH
	DB	07bH
	DB	07bH
	DB	07bH
	DB	07bH
	DB	07bH
	DB	07bH
	DB	07bH
	DB	07bH
	DB	07bH
	DB	07bH
	DB	07bH
	DB	07bH
	DB	07bH
	DB	07bH
	DB	07bH
	DB	07bH
	DB	07bH
	DB	07bH
	DB	07bH
	DB	07bH
	DB	07bH
	DB	07bH
	DB	07bH
	DB	07bH
	DB	07bH
	DB	07bH
	DB	07bH
	DB	07bH
	DB	07bH
	DB	07bH
	DB	07bH
	DB	07bH
	DB	07bH
	DB	07bH
	DB	07bH
	DB	07bH
	DB	07bH
	DB	07bH
	DB	07bH
	DB	07bH
	DB	07bH
	DB	07bH
	DB	07bH
	DB	07bH
	DB	07bH
	DB	07bH
	DB	07bH
	DB	07bH
	DB	07bH
	DB	07bH
	DB	07bH
	DB	07bH
	DB	07bH
	DB	07bH
	DB	07bH
	DB	07bH
	DB	07bH
	DB	07bH
	DB	07bH
	DB	07bH
	DB	07bH
	DB	07bH
	DB	07bH
	DB	07bH
	DB	07bH
	DB	07bH
	DB	07bH
	DB	07bH
	DB	07bH
	DB	07bH
	DB	07bH
	DB	07bH
	DB	07bH
	DB	07bH
	DB	07bH
	DB	07bH
	DB	07bH
	DB	07bH
	DB	07bH
	DB	07bH
	DB	07bH
	DB	07bH
	DB	07bH
	DB	07bH
	DB	07bH
	DB	07bH
	DB	07bH
	DB	07bH
	DB	07bH
	DB	07bH
	DB	07bH
	DB	07bH
	DB	07bH
	DB	07bH
	DB	07bH
	DB	07bH
	DB	07bH
	DB	07bH
	DB	07bH
	DB	07bH
	DB	07bH
	DB	07bH
	DB	07bH
	DB	07bH
	DB	07bH
	DB	07bH
	DB	07bH
	DB	07bH
	DB	07bH
	DB	07bH
	DB	07bH
	DB	07bH
	DB	07bH
	DB	07bH
	DB	07bH
	DB	07bH
	DB	07bH
	DB	07bH
	DB	07bH
	DB	07bH
	DB	07bH
	DB	07bH
	DB	07bH
	DB	07bH
	DB	07bH
	DB	07bH
	DB	07bH
	DB	07bH
	DB	07bH
	DB	07bH
	DB	07bH
	DB	07bH
	DB	07bH
	DB	07bH
	DB	07bH
	DB	07bH
	DB	07bH
	DB	07bH
	DB	07bH
	DB	07bH
	DB	07bH
	DB	07bH
	DB	07bH
	DB	07bH
	DB	07bH
	DB	07bH
	DB	07bH
	DB	07bH
	DB	07bH
	DB	07bH
	DB	07bH
	DB	07bH
	DB	07bH
	DB	07bH
	DB	07bH
	DB	07bH
	DB	07bH
	DB	07bH
	DB	07bH
	DB	07bH
	DB	07bH
	DB	07bH
	DB	05H
	DB	05H
	DB	05H
	DB	063H
	DB	067H
	DB	06aH
	DB	05dH
	DB	06cH
	DB	036H
	DB	0aH
	DB	036H
	DB	063H
	DB	063H
	DB	04H
	DB	04aH
	DB	067H
	DB	05H
	DB	057H
	DB	0b5H
	DB	0b5H
	DB	0b5H
	DB	06cH
	DB	0dfH
	DB	0b7H
	DB	030H
	DB	0ccH
	DB	02cH
	DB	0faH
	DB	0beH
	DB	0eH
	DB	0eH
	DB	046H
	DB	03aH
	DB	049H
	DB	0f6H
	DB	03aH
	DB	015H
	DB	03cH
	DB	03cH
	DB	0f9H
	DB	028H
	DB	046H
	DB	046H
	DB	06eH
	DB	021H
	DB	021H
	DB	0beH
	DB	0beH
	DB	0beH
	DB	0beH
	DB	0beH
	DB	0eH
	DB	0eH
	DB	0eH
	DB	0eH
	DB	0feH
	DB	0fdH
	DB	0fdH
	DB	016H
	DB	021H
	DB	0cfH
	DB	030H
	DB	0e1H
	DB	022H
	DB	05H
	DB	057H
	DB	06cH
	DB	06aH
	DB	0fH
	DB	01dH
	DB	09fH
	DB	0b9H
	DB	09fH
	DB	01dH
	DB	0b8H
	DB	099H
	DB	07dH
	DB	0b5H
	DB	04H
	DB	0aH
	DB	01H
	DB	05eH
	DB	01H
	DB	036H
	DB	022H
	DB	067H
	DB	039H
	DB	0bH
	DB	0c0H
	DB	08aH
	DB	01eH
	DB	01eH
	DB	01eH
	DB	08aH
	DB	04H
	DB	05H
	DB	07bH
	DB	05H
	DB	01cH
	DB	05H
	DB	0d2H
	DB	00H
	DB	00H
	DB	00H
	DB	00H
	DB	00H
	DB	00H
	DB	00H
	DB	00H
	DB	00H
	DB	00H
	DB	00H
	DB	00H
	DB	00H
	DB	00H
	DB	00H
	DB	00H
	DB	00H
	DB	00H
	DB	00H
	DB	00H
	DB	00H
	DB	00H
	DB	00H
	DB	00H
	DB	00H
	DB	00H
	DB	00H
	DB	00H
	DB	00H
	DB	00H
	DB	00H
	DB	00H
	DB	00H
	DB	0aH
	DB	099H
	DB	05H
	DB	0b3H
	DB	07bH
	DB	07bH
	DB	07bH
	DB	07bH
	DB	07bH
	DB	07bH
	DB	07bH
	DB	07bH
	DB	07bH
	DB	07bH
	DB	07bH
	DB	07bH
	DB	07bH
	DB	07bH
	DB	07bH
	DB	07bH
	DB	07bH
	DB	07bH
	DB	07bH
	DB	07bH
	DB	07bH
	DB	07bH
	DB	07bH
	DB	07bH
	DB	07bH
	DB	07bH
	DB	07bH
	DB	07bH
	DB	07bH
	DB	07bH
	DB	07bH
	DB	07bH
	DB	07bH
	DB	07bH
	DB	07bH
	DB	07bH
	DB	07bH
	DB	07bH
	DB	07bH
	DB	07bH
	DB	07bH
	DB	07bH
	DB	07bH
	DB	07bH
	DB	07bH
	DB	07bH
	DB	07bH
	DB	07bH
	DB	07bH
	DB	07bH
	DB	07bH
	DB	07bH
	DB	07bH
	DB	07bH
	DB	07bH
	DB	07bH
	DB	07bH
	DB	07bH
	DB	07bH
	DB	07bH
	DB	07bH
	DB	07bH
	DB	07bH
	DB	07bH
	DB	07bH
	DB	07bH
	DB	07bH
	DB	07bH
	DB	07bH
	DB	07bH
	DB	07bH
	DB	07bH
	DB	07bH
	DB	07bH
	DB	07bH
	DB	07bH
	DB	07bH
	DB	07bH
	DB	07bH
	DB	07bH
	DB	07bH
	DB	07bH
	DB	07bH
	DB	07bH
	DB	07bH
	DB	07bH
	DB	07bH
	DB	07bH
	DB	07bH
	DB	07bH
	DB	07bH
	DB	07bH
	DB	07bH
	DB	07bH
	DB	07bH
	DB	07bH
	DB	07bH
	DB	07bH
	DB	07bH
	DB	07bH
	DB	07bH
	DB	07bH
	DB	07bH
	DB	07bH
	DB	07bH
	DB	07bH
	DB	07bH
	DB	07bH
	DB	07bH
	DB	07bH
	DB	07bH
	DB	07bH
	DB	07bH
	DB	07bH
	DB	07bH
	DB	07bH
	DB	07bH
	DB	07bH
	DB	07bH
	DB	07bH
	DB	07bH
	DB	07bH
	DB	07bH
	DB	07bH
	DB	07bH
	DB	07bH
	DB	07bH
	DB	07bH
	DB	07bH
	DB	07bH
	DB	07bH
	DB	07bH
	DB	07bH
	DB	07bH
	DB	07bH
	DB	07bH
	DB	07bH
	DB	07bH
	DB	07bH
	DB	07bH
	DB	07bH
	DB	07bH
	DB	07bH
	DB	07bH
	DB	07bH
	DB	07bH
	DB	07bH
	DB	07bH
	DB	07bH
	DB	07bH
	DB	07bH
	DB	07bH
	DB	07bH
	DB	07bH
	DB	07bH
	DB	07bH
	DB	07bH
	DB	07bH
	DB	07bH
	DB	07bH
	DB	07bH
	DB	07bH
	DB	07bH
	DB	07bH
	DB	07bH
	DB	07bH
	DB	07bH
	DB	07bH
	DB	07bH
	DB	07bH
	DB	07bH
	DB	07bH
	DB	07bH
	DB	07bH
	DB	07bH
	DB	07bH
	DB	07bH
	DB	07bH
	DB	07bH
	DB	07bH
	DB	07bH
	DB	07bH
	DB	07bH
	DB	07bH
	DB	07bH
	DB	07bH
	DB	07bH
	DB	07bH
	DB	07bH
	DB	07bH
	DB	07bH
	DB	07bH
	DB	07bH
	DB	07bH
	DB	07bH
	DB	07bH
	DB	07bH
	DB	07bH
	DB	07bH
	DB	07bH
	DB	07bH
	DB	07bH
	DB	07bH
	DB	07bH
	DB	07bH
	DB	07bH
	DB	07bH
	DB	07bH
	DB	07bH
	DB	07bH
	DB	07bH
	DB	07bH
	DB	07bH
	DB	07bH
	DB	07bH
	DB	07bH
	DB	07bH
	DB	07bH
	DB	07bH
	DB	07bH
	DB	07bH
	DB	07bH
	DB	07bH
	DB	07bH
	DB	07bH
	DB	07bH
	DB	07bH
	DB	07bH
	DB	07bH
	DB	07bH
	DB	07bH
	DB	07bH
	DB	07bH
	DB	07bH
	DB	07bH
	DB	07bH
	DB	07bH
	DB	07bH
	DB	07bH
	DB	07bH
	DB	07bH
	DB	07bH
	DB	07bH
	DB	07bH
	DB	07bH
	DB	07bH
	DB	07bH
	DB	07bH
	DB	07bH
	DB	07bH
	DB	07bH
	DB	07bH
	DB	07bH
	DB	07bH
	DB	07bH
	DB	07bH
	DB	07bH
	DB	07bH
	DB	07bH
	DB	07bH
	DB	07bH
	DB	07bH
	DB	07bH
	DB	07bH
	DB	07bH
	DB	07bH
	DB	07bH
	DB	07bH
	DB	07bH
	DB	07bH
	DB	07bH
	DB	07bH
	DB	07bH
	DB	07bH
	DB	07bH
	DB	07bH
	DB	05H
	DB	07bH
	DB	063H
	DB	04H
	DB	06aH
	DB	040H
	DB	04dH
	DB	04H
	DB	036H
	DB	063H
	DB	04H
	DB	04aH
	DB	04aH
	DB	067H
	DB	067H
	DB	05H
	DB	05H
	DB	057H
	DB	0b5H
	DB	022H
	DB	06aH
	DB	04bH
	DB	06bH
	DB	078H
	DB	049H
	DB	02dH
	DB	03cH
	DB	021H
	DB	016H
	DB	06H
	DB	06H
	DB	06H
	DB	06H
	DB	03cH
	DB	015H
	DB	013H
	DB	028H
	DB	046H
	DB	046H
	DB	06eH
	DB	021H
	DB	021H
	DB	0beH
	DB	0beH
	DB	0beH
	DB	0beH
	DB	0beH
	DB	0beH
	DB	0eH
	DB	0eH
	DB	0eH
	DB	016H
	DB	0feH
	DB	090H
	DB	090H
	DB	016H
	DB	021H
	DB	02cH
	DB	062H
	DB	030H
	DB	0fH
	DB	04dH
	DB	06cH
	DB	04dH
	DB	0e1H
	DB	0e2H
	DB	04bH
	DB	0b9H
	DB	0b9H
	DB	09fH
	DB	01dH
	DB	0b8H
	DB	01cH
	DB	022H
	DB	05H
	DB	095H
	DB	01bH
	DB	05eH
	DB	05eH
	DB	0aH
	DB	067H
	DB	06aH
	DB	077H
	DB	0b9H
	DB	053H
	DB	053H
	DB	077H
	DB	020H
	DB	09bH
	DB	09H
	DB	010H
	DB	01eH
	DB	01eH
	DB	01eH
	DB	01eH
	DB	0aH
	DB	05H
	DB	07bH
	DB	0b3H
	DB	022H
	DB	099H
	DB	039H
	DB	00H
	DB	00H
	DB	00H
	DB	00H
	DB	00H
	DB	00H
	DB	00H
	DB	00H
	DB	00H
	DB	00H
	DB	00H
	DB	00H
	DB	00H
	DB	00H
	DB	00H
	DB	00H
	DB	00H
	DB	00H
	DB	00H
	DB	00H
	DB	00H
	DB	00H
	DB	00H
	DB	00H
	DB	00H
	DB	00H
	DB	00H
	DB	00H
	DB	00H
	DB	00H
	DB	00H
	DB	00H
	DB	03fH
	DB	0b3H
	DB	01cH
	DB	05H
	DB	07bH
	DB	07bH
	DB	07bH
	DB	07bH
	DB	07bH
	DB	07bH
	DB	07bH
	DB	07bH
	DB	07bH
	DB	07bH
	DB	07bH
	DB	07bH
	DB	07bH
	DB	07bH
	DB	07bH
	DB	07bH
	DB	07bH
	DB	07bH
	DB	07bH
	DB	07bH
	DB	07bH
	DB	07bH
	DB	07bH
	DB	07bH
	DB	07bH
	DB	07bH
	DB	07bH
	DB	07bH
	DB	07bH
	DB	07bH
	DB	07bH
	DB	07bH
	DB	07bH
	DB	07bH
	DB	07bH
	DB	07bH
	DB	07bH
	DB	07bH
	DB	07bH
	DB	07bH
	DB	07bH
	DB	07bH
	DB	07bH
	DB	07bH
	DB	07bH
	DB	07bH
	DB	07bH
	DB	07bH
	DB	07bH
	DB	07bH
	DB	07bH
	DB	07bH
	DB	07bH
	DB	07bH
	DB	07bH
	DB	07bH
	DB	07bH
	DB	07bH
	DB	07bH
	DB	07bH
	DB	07bH
	DB	07bH
	DB	07bH
	DB	07bH
	DB	07bH
	DB	07bH
	DB	07bH
	DB	07bH
	DB	07bH
	DB	07bH
	DB	07bH
	DB	07bH
	DB	07bH
	DB	07bH
	DB	07bH
	DB	07bH
	DB	07bH
	DB	07bH
	DB	07bH
	DB	07bH
	DB	07bH
	DB	07bH
	DB	07bH
	DB	07bH
	DB	07bH
	DB	07bH
	DB	07bH
	DB	07bH
	DB	07bH
	DB	07bH
	DB	07bH
	DB	07bH
	DB	07bH
	DB	07bH
	DB	07bH
	DB	07bH
	DB	07bH
	DB	07bH
	DB	07bH
	DB	07bH
	DB	07bH
	DB	07bH
	DB	07bH
	DB	07bH
	DB	07bH
	DB	07bH
	DB	07bH
	DB	07bH
	DB	07bH
	DB	07bH
	DB	07bH
	DB	07bH
	DB	07bH
	DB	07bH
	DB	07bH
	DB	07bH
	DB	07bH
	DB	07bH
	DB	07bH
	DB	07bH
	DB	07bH
	DB	07bH
	DB	07bH
	DB	07bH
	DB	07bH
	DB	07bH
	DB	07bH
	DB	07bH
	DB	07bH
	DB	07bH
	DB	07bH
	DB	07bH
	DB	07bH
	DB	07bH
	DB	07bH
	DB	07bH
	DB	07bH
	DB	07bH
	DB	07bH
	DB	07bH
	DB	07bH
	DB	07bH
	DB	07bH
	DB	07bH
	DB	07bH
	DB	07bH
	DB	07bH
	DB	07bH
	DB	07bH
	DB	07bH
	DB	07bH
	DB	07bH
	DB	07bH
	DB	07bH
	DB	07bH
	DB	07bH
	DB	07bH
	DB	07bH
	DB	07bH
	DB	07bH
	DB	07bH
	DB	07bH
	DB	07bH
	DB	07bH
	DB	07bH
	DB	07bH
	DB	07bH
	DB	07bH
	DB	07bH
	DB	07bH
	DB	07bH
	DB	07bH
	DB	07bH
	DB	07bH
	DB	07bH
	DB	07bH
	DB	07bH
	DB	07bH
	DB	07bH
	DB	07bH
	DB	07bH
	DB	07bH
	DB	07bH
	DB	07bH
	DB	07bH
	DB	07bH
	DB	07bH
	DB	07bH
	DB	07bH
	DB	07bH
	DB	07bH
	DB	07bH
	DB	07bH
	DB	07bH
	DB	07bH
	DB	07bH
	DB	07bH
	DB	07bH
	DB	07bH
	DB	07bH
	DB	07bH
	DB	07bH
	DB	07bH
	DB	07bH
	DB	07bH
	DB	07bH
	DB	07bH
	DB	07bH
	DB	07bH
	DB	07bH
	DB	07bH
	DB	07bH
	DB	07bH
	DB	07bH
	DB	07bH
	DB	07bH
	DB	07bH
	DB	07bH
	DB	07bH
	DB	07bH
	DB	07bH
	DB	07bH
	DB	07bH
	DB	07bH
	DB	07bH
	DB	07bH
	DB	07bH
	DB	07bH
	DB	07bH
	DB	07bH
	DB	07bH
	DB	07bH
	DB	07bH
	DB	07bH
	DB	07bH
	DB	07bH
	DB	07bH
	DB	07bH
	DB	07bH
	DB	07bH
	DB	07bH
	DB	07bH
	DB	07bH
	DB	07bH
	DB	07bH
	DB	07bH
	DB	07bH
	DB	07bH
	DB	07bH
	DB	07bH
	DB	07bH
	DB	07bH
	DB	07bH
	DB	07bH
	DB	07bH
	DB	07bH
	DB	07bH
	DB	07bH
	DB	07bH
	DB	07bH
	DB	07bH
	DB	07bH
	DB	07bH
	DB	07bH
	DB	07bH
	DB	07bH
	DB	07bH
	DB	07bH
	DB	07bH
	DB	07bH
	DB	07bH
	DB	07bH
	DB	07bH
	DB	07bH
	DB	07bH
	DB	05H
	DB	05H
	DB	04H
	DB	063H
	DB	022H
	DB	040H
	DB	027H
	DB	067H
	DB	036H
	DB	04H
	DB	04aH
	DB	04aH
	DB	04aH
	DB	04aH
	DB	05H
	DB	057H
	DB	06cH
	DB	06aH
	DB	0fH
	DB	01fH
	DB	053H
	DB	08dH
	DB	0aeH
	DB	078H
	DB	052H
	DB	074H
	DB	052H
	DB	078H
	DB	052H
	DB	049H
	DB	03aH
	DB	03cH
	DB	0eH
	DB	0ffH
	DB	06eH
	DB	028H
	DB	06eH
	DB	021H
	DB	021H
	DB	021H
	DB	0beH
	DB	0beH
	DB	0beH
	DB	019H
	DB	0beH
	DB	0beH
	DB	0eH
	DB	0eH
	DB	0eH
	DB	0eH
	DB	0fcH
	DB	090H
	DB	016H
	DB	0beH
	DB	02dH
	DB	0f1H
	DB	0acH
	DB	09fH
	DB	099H
	DB	022H
	DB	022H
	DB	01cH
	DB	0fH
	DB	01dH
	DB	09fH
	DB	0b9H
	DB	09fH
	DB	0c7H
	DB	08cH
	DB	0fH
	DB	01cH
	DB	022H
	DB	067H
	DB	0aH
	DB	01H
	DB	01H
	DB	01bH
	DB	04H
	DB	04dH
	DB	01dH
	DB	0eaH
	DB	08dH
	DB	08dH
	DB	0abH
	DB	0b9H
	DB	077H
	DB	040H
	DB	05dH
	DB	077H
	DB	0aH
	DB	09H
	DB	0bH
	DB	03H
	DB	08aH
	DB	08H
	DB	08H
	DB	08H
	DB	01H
	DB	05H
	DB	07bH
	DB	0b3H
	DB	0b5H
	DB	01cH
	DB	03H
	DB	00H
	DB	00H
	DB	00H
	DB	00H
	DB	00H
	DB	00H
	DB	00H
	DB	00H
	DB	00H
	DB	00H
	DB	00H
	DB	00H
	DB	00H
	DB	00H
	DB	00H
	DB	00H
	DB	00H
	DB	00H
	DB	00H
	DB	00H
	DB	00H
	DB	00H
	DB	00H
	DB	00H
	DB	00H
	DB	00H
	DB	00H
	DB	00H
	DB	00H
	DB	00H
	DB	00H
	DB	00H
	DB	0d2H
	DB	05H
	DB	01cH
	DB	05H
	DB	07bH
	DB	07bH
	DB	07bH
	DB	07bH
	DB	07bH
	DB	07bH
	DB	07bH
	DB	07bH
	DB	07bH
	DB	07bH
	DB	07bH
	DB	07bH
	DB	07bH
	DB	07bH
	DB	07bH
	DB	07bH
	DB	07bH
	DB	07bH
	DB	07bH
	DB	07bH
	DB	07bH
	DB	07bH
	DB	07bH
	DB	07bH
	DB	07bH
	DB	07bH
	DB	07bH
	DB	07bH
	DB	07bH
	DB	07bH
	DB	07bH
	DB	07bH
	DB	07bH
	DB	07bH
	DB	07bH
	DB	07bH
	DB	07bH
	DB	07bH
	DB	07bH
	DB	07bH
	DB	07bH
	DB	07bH
	DB	07bH
	DB	07bH
	DB	07bH
	DB	07bH
	DB	07bH
	DB	07bH
	DB	07bH
	DB	07bH
	DB	07bH
	DB	07bH
	DB	07bH
	DB	07bH
	DB	07bH
	DB	07bH
	DB	07bH
	DB	07bH
	DB	07bH
	DB	07bH
	DB	07bH
	DB	07bH
	DB	07bH
	DB	07bH
	DB	07bH
	DB	07bH
	DB	07bH
	DB	07bH
	DB	07bH
	DB	07bH
	DB	07bH
	DB	07bH
	DB	07bH
	DB	07bH
	DB	07bH
	DB	07bH
	DB	07bH
	DB	07bH
	DB	07bH
	DB	07bH
	DB	07bH
	DB	07bH
	DB	07bH
	DB	07bH
	DB	07bH
	DB	07bH
	DB	07bH
	DB	07bH
	DB	07bH
	DB	07bH
	DB	07bH
	DB	07bH
	DB	07bH
	DB	07bH
	DB	07bH
	DB	07bH
	DB	07bH
	DB	07bH
	DB	07bH
	DB	07bH
	DB	07bH
	DB	07bH
	DB	07bH
	DB	07bH
	DB	07bH
	DB	07bH
	DB	07bH
	DB	07bH
	DB	07bH
	DB	07bH
	DB	07bH
	DB	07bH
	DB	07bH
	DB	07bH
	DB	07bH
	DB	07bH
	DB	07bH
	DB	07bH
	DB	07bH
	DB	07bH
	DB	07bH
	DB	07bH
	DB	07bH
	DB	07bH
	DB	07bH
	DB	07bH
	DB	07bH
	DB	07bH
	DB	07bH
	DB	07bH
	DB	07bH
	DB	07bH
	DB	07bH
	DB	07bH
	DB	07bH
	DB	07bH
	DB	07bH
	DB	07bH
	DB	07bH
	DB	07bH
	DB	07bH
	DB	07bH
	DB	07bH
	DB	07bH
	DB	07bH
	DB	07bH
	DB	07bH
	DB	07bH
	DB	07bH
	DB	07bH
	DB	07bH
	DB	07bH
	DB	07bH
	DB	07bH
	DB	07bH
	DB	07bH
	DB	07bH
	DB	07bH
	DB	07bH
	DB	07bH
	DB	07bH
	DB	07bH
	DB	07bH
	DB	07bH
	DB	07bH
	DB	07bH
	DB	07bH
	DB	07bH
	DB	07bH
	DB	07bH
	DB	07bH
	DB	07bH
	DB	07bH
	DB	07bH
	DB	07bH
	DB	07bH
	DB	07bH
	DB	07bH
	DB	07bH
	DB	07bH
	DB	07bH
	DB	07bH
	DB	07bH
	DB	07bH
	DB	07bH
	DB	07bH
	DB	07bH
	DB	07bH
	DB	07bH
	DB	07bH
	DB	07bH
	DB	07bH
	DB	07bH
	DB	07bH
	DB	07bH
	DB	07bH
	DB	07bH
	DB	07bH
	DB	07bH
	DB	07bH
	DB	07bH
	DB	07bH
	DB	07bH
	DB	07bH
	DB	07bH
	DB	07bH
	DB	07bH
	DB	07bH
	DB	07bH
	DB	07bH
	DB	07bH
	DB	07bH
	DB	07bH
	DB	07bH
	DB	07bH
	DB	07bH
	DB	07bH
	DB	07bH
	DB	07bH
	DB	07bH
	DB	07bH
	DB	07bH
	DB	07bH
	DB	07bH
	DB	07bH
	DB	07bH
	DB	07bH
	DB	07bH
	DB	07bH
	DB	07bH
	DB	07bH
	DB	07bH
	DB	07bH
	DB	07bH
	DB	07bH
	DB	07bH
	DB	07bH
	DB	07bH
	DB	07bH
	DB	07bH
	DB	07bH
	DB	07bH
	DB	07bH
	DB	07bH
	DB	07bH
	DB	07bH
	DB	07bH
	DB	07bH
	DB	07bH
	DB	07bH
	DB	07bH
	DB	07bH
	DB	07bH
	DB	07bH
	DB	07bH
	DB	07bH
	DB	07bH
	DB	07bH
	DB	07bH
	DB	07bH
	DB	07bH
	DB	07bH
	DB	07bH
	DB	07bH
	DB	07bH
	DB	07bH
	DB	07bH
	DB	07bH
	DB	07bH
	DB	07bH
	DB	07bH
	DB	07bH
	DB	07bH
	DB	07bH
	DB	05H
	DB	04H
	DB	063H
	DB	057H
	DB	040H
	DB	077H
	DB	06cH
	DB	063H
	DB	036H
	DB	063H
	DB	04H
	DB	067H
	DB	022H
	DB	0e1H
	DB	04bH
	DB	07fH
	DB	062H
	DB	078H
	DB	078H
	DB	052H
	DB	074H
	DB	074H
	DB	052H
	DB	052H
	DB	0f5H
	DB	0f6H
	DB	049H
	DB	06dH
	DB	065H
	DB	015H
	DB	03cH
	DB	013H
	DB	046H
	DB	046H
	DB	06eH
	DB	049H
	DB	02cH
	DB	0beH
	DB	0eH
	DB	0beH
	DB	0beH
	DB	0eH
	DB	0eH
	DB	0eH
	DB	0eH
	DB	0eH
	DB	016H
	DB	0fcH
	DB	016H
	DB	0eH
	DB	021H
	DB	0cfH
	DB	02aH
	DB	059H
	DB	040H
	DB	04dH
	DB	022H
	DB	04dH
	DB	099H
	DB	0b7H
	DB	04bH
	DB	0b9H
	DB	09fH
	DB	09fH
	DB	01dH
	DB	0fH
	DB	099H
	DB	07dH
	DB	0b5H
	DB	04H
	DB	05fH
	DB	01H
	DB	01H
	DB	036H
	DB	057H
	DB	0b7H
	DB	030H
	DB	0c9H
	DB	06bH
	DB	031H
	DB	034H
	DB	0abH
	DB	053H
	DB	04bH
	DB	077H
	DB	077H
	DB	040H
	DB	05dH
	DB	027H
	DB	05dH
	DB	022H
	DB	048H
	DB	0bH
	DB	0cH
	DB	08H
	DB	010H
	DB	02H
	DB	0d7H
	DB	01eH
	DB	05H
	DB	07bH
	DB	0b3H
	DB	0b5H
	DB	099H
	DB	0d7H
	DB	00H
	DB	00H
	DB	00H
	DB	00H
	DB	00H
	DB	00H
	DB	00H
	DB	00H
	DB	00H
	DB	00H
	DB	00H
	DB	00H
	DB	00H
	DB	00H
	DB	00H
	DB	00H
	DB	00H
	DB	00H
	DB	00H
	DB	00H
	DB	00H
	DB	00H
	DB	00H
	DB	00H
	DB	00H
	DB	00H
	DB	00H
	DB	00H
	DB	00H
	DB	00H
	DB	00H
	DB	00H
	DB	0d2H
	DB	05H
	DB	01cH
	DB	05H
	DB	07bH
	DB	07bH
	DB	07bH
	DB	07bH
	DB	07bH
	DB	07bH
	DB	07bH
	DB	07bH
	DB	07bH
	DB	07bH
	DB	07bH
	DB	07bH
	DB	07bH
	DB	07bH
	DB	07bH
	DB	07bH
	DB	07bH
	DB	07bH
	DB	07bH
	DB	07bH
	DB	07bH
	DB	07bH
	DB	07bH
	DB	07bH
	DB	07bH
	DB	07bH
	DB	07bH
	DB	07bH
	DB	07bH
	DB	07bH
	DB	07bH
	DB	07bH
	DB	07bH
	DB	07bH
	DB	07bH
	DB	07bH
	DB	07bH
	DB	07bH
	DB	07bH
	DB	07bH
	DB	07bH
	DB	07bH
	DB	07bH
	DB	07bH
	DB	07bH
	DB	07bH
	DB	07bH
	DB	07bH
	DB	07bH
	DB	07bH
	DB	07bH
	DB	07bH
	DB	07bH
	DB	07bH
	DB	07bH
	DB	07bH
	DB	07bH
	DB	07bH
	DB	07bH
	DB	07bH
	DB	07bH
	DB	07bH
	DB	07bH
	DB	07bH
	DB	07bH
	DB	07bH
	DB	07bH
	DB	07bH
	DB	07bH
	DB	07bH
	DB	07bH
	DB	07bH
	DB	07bH
	DB	07bH
	DB	07bH
	DB	07bH
	DB	07bH
	DB	07bH
	DB	07bH
	DB	07bH
	DB	07bH
	DB	07bH
	DB	07bH
	DB	07bH
	DB	07bH
	DB	07bH
	DB	07bH
	DB	07bH
	DB	07bH
	DB	07bH
	DB	07bH
	DB	07bH
	DB	07bH
	DB	07bH
	DB	07bH
	DB	07bH
	DB	07bH
	DB	07bH
	DB	07bH
	DB	07bH
	DB	07bH
	DB	07bH
	DB	07bH
	DB	07bH
	DB	07bH
	DB	07bH
	DB	07bH
	DB	07bH
	DB	07bH
	DB	07bH
	DB	07bH
	DB	07bH
	DB	07bH
	DB	07bH
	DB	07bH
	DB	07bH
	DB	07bH
	DB	07bH
	DB	07bH
	DB	07bH
	DB	07bH
	DB	07bH
	DB	07bH
	DB	07bH
	DB	07bH
	DB	07bH
	DB	07bH
	DB	07bH
	DB	07bH
	DB	07bH
	DB	07bH
	DB	07bH
	DB	07bH
	DB	07bH
	DB	07bH
	DB	07bH
	DB	07bH
	DB	07bH
	DB	07bH
	DB	07bH
	DB	07bH
	DB	07bH
	DB	07bH
	DB	07bH
	DB	07bH
	DB	07bH
	DB	07bH
	DB	07bH
	DB	07bH
	DB	07bH
	DB	07bH
	DB	07bH
	DB	07bH
	DB	07bH
	DB	07bH
	DB	07bH
	DB	07bH
	DB	07bH
	DB	07bH
	DB	07bH
	DB	07bH
	DB	07bH
	DB	07bH
	DB	07bH
	DB	07bH
	DB	07bH
	DB	07bH
	DB	07bH
	DB	07bH
	DB	07bH
	DB	07bH
	DB	07bH
	DB	07bH
	DB	07bH
	DB	07bH
	DB	07bH
	DB	07bH
	DB	07bH
	DB	07bH
	DB	07bH
	DB	07bH
	DB	07bH
	DB	07bH
	DB	07bH
	DB	07bH
	DB	07bH
	DB	07bH
	DB	07bH
	DB	07bH
	DB	07bH
	DB	07bH
	DB	07bH
	DB	07bH
	DB	07bH
	DB	07bH
	DB	07bH
	DB	07bH
	DB	07bH
	DB	07bH
	DB	07bH
	DB	07bH
	DB	07bH
	DB	07bH
	DB	07bH
	DB	07bH
	DB	07bH
	DB	07bH
	DB	07bH
	DB	07bH
	DB	07bH
	DB	07bH
	DB	07bH
	DB	07bH
	DB	07bH
	DB	07bH
	DB	07bH
	DB	07bH
	DB	07bH
	DB	07bH
	DB	07bH
	DB	07bH
	DB	07bH
	DB	07bH
	DB	07bH
	DB	07bH
	DB	07bH
	DB	07bH
	DB	07bH
	DB	07bH
	DB	07bH
	DB	07bH
	DB	07bH
	DB	07bH
	DB	07bH
	DB	07bH
	DB	07bH
	DB	07bH
	DB	07bH
	DB	07bH
	DB	07bH
	DB	07bH
	DB	07bH
	DB	07bH
	DB	07bH
	DB	07bH
	DB	07bH
	DB	07bH
	DB	07bH
	DB	07bH
	DB	07bH
	DB	07bH
	DB	07bH
	DB	07bH
	DB	07bH
	DB	07bH
	DB	07bH
	DB	07bH
	DB	07bH
	DB	07bH
	DB	07bH
	DB	07bH
	DB	07bH
	DB	07bH
	DB	07bH
	DB	07bH
	DB	07bH
	DB	07bH
	DB	07bH
	DB	07bH
	DB	07bH
	DB	07bH
	DB	07bH
	DB	05H
	DB	085H
	DB	036H
	DB	063H
	DB	01cH
	DB	077H
	DB	06aH
	DB	04H
	DB	04aH
	DB	06aH
	DB	073H
	DB	034H
	DB	029H
	DB	05cH
	DB	052H
	DB	0f6H
	DB	03aH
	DB	03aH
	DB	0f9H
	DB	03cH
	DB	03aH
	DB	02dH
	DB	03cH
	DB	0f9H
	DB	0f9H
	DB	015H
	DB	015H
	DB	03cH
	DB	013H
	DB	046H
	DB	046H
	DB	06eH
	DB	012H
	DB	021H
	DB	0beH
	DB	0beH
	DB	0beH
	DB	0eH
	DB	03aH
	DB	02aH
	DB	028H
	DB	0ffH
	DB	0eH
	DB	0eH
	DB	0fcH
	DB	0ffH
	DB	016H
	DB	0d1H
	DB	0a6H
	DB	0f2H
	DB	0cbH
	DB	014H
	DB	0fH
	DB	0dfH
	DB	022H
	DB	06aH
	DB	0fH
	DB	01dH
	DB	0c7H
	DB	09fH
	DB	09fH
	DB	0c7H
	DB	08cH
	DB	0fH
	DB	01cH
	DB	083H
	DB	085H
	DB	0c3H
	DB	01bH
	DB	05eH
	DB	01bH
	DB	04aH
	DB	01cH
	DB	0b9H
	DB	0c9H
	DB	062H
	DB	088H
	DB	029H
	DB	031H
	DB	034H
	DB	0abH
	DB	053H
	DB	0b9H
	DB	0b9H
	DB	073H
	DB	04bH
	DB	077H
	DB	040H
	DB	05dH
	DB	01cH
	DB	06aH
	DB	06aH
	DB	04dH
	DB	02H
	DB	0bH
	DB	032H
	DB	020H
	DB	03H
	DB	03H
	DB	011H
	DB	08H
	DB	05H
	DB	07bH
	DB	0b3H
	DB	0b5H
	DB	099H
	DB	020H
	DB	00H
	DB	00H
	DB	00H
	DB	00H
	DB	00H
	DB	00H
	DB	00H
	DB	00H
	DB	00H
	DB	00H
	DB	00H
	DB	00H
	DB	00H
	DB	00H
	DB	00H
	DB	00H
	DB	00H
	DB	00H
	DB	00H
	DB	00H
	DB	00H
	DB	00H
	DB	00H
	DB	00H
	DB	00H
	DB	00H
	DB	00H
	DB	00H
	DB	00H
	DB	00H
	DB	00H
	DB	00H
	DB	0d2H
	DB	05H
	DB	01cH
	DB	07bH
	DB	0b3H
	DB	0b3H
	DB	0b3H
	DB	0b3H
	DB	0b3H
	DB	0b3H
	DB	0b3H
	DB	0b3H
	DB	0b3H
	DB	0b3H
	DB	0b3H
	DB	0b3H
	DB	0b3H
	DB	0b3H
	DB	0b3H
	DB	0b3H
	DB	0b3H
	DB	0b3H
	DB	0b3H
	DB	0b3H
	DB	0b3H
	DB	0b3H
	DB	0b3H
	DB	0b3H
	DB	0b3H
	DB	0b3H
	DB	0b3H
	DB	0b3H
	DB	0b3H
	DB	0b3H
	DB	0b3H
	DB	0b3H
	DB	0b3H
	DB	0b3H
	DB	0b3H
	DB	0b3H
	DB	0b3H
	DB	0b3H
	DB	0b3H
	DB	0b3H
	DB	0b3H
	DB	0b3H
	DB	0b3H
	DB	0b3H
	DB	0b3H
	DB	0b3H
	DB	0b3H
	DB	0b3H
	DB	0b3H
	DB	0b3H
	DB	0b3H
	DB	0b3H
	DB	0b3H
	DB	0b3H
	DB	0b3H
	DB	0b3H
	DB	0b3H
	DB	0b3H
	DB	0b3H
	DB	0b3H
	DB	0b3H
	DB	0b3H
	DB	0b3H
	DB	0b3H
	DB	0b3H
	DB	0b3H
	DB	0b3H
	DB	0b3H
	DB	0b3H
	DB	0b3H
	DB	0b3H
	DB	0b3H
	DB	0b3H
	DB	0b3H
	DB	0b3H
	DB	0b3H
	DB	0b3H
	DB	0b3H
	DB	0b3H
	DB	0b3H
	DB	0b3H
	DB	0b3H
	DB	0b3H
	DB	0b3H
	DB	0b3H
	DB	0b3H
	DB	0b3H
	DB	0b3H
	DB	0b3H
	DB	0b3H
	DB	0b3H
	DB	0b3H
	DB	0b3H
	DB	0b3H
	DB	0b3H
	DB	0b3H
	DB	0b3H
	DB	0b3H
	DB	0b3H
	DB	0b3H
	DB	0b3H
	DB	0b3H
	DB	0b3H
	DB	0b3H
	DB	0b3H
	DB	0b3H
	DB	0b3H
	DB	0b3H
	DB	0b3H
	DB	0b3H
	DB	0b3H
	DB	0b3H
	DB	0b3H
	DB	0b3H
	DB	0b3H
	DB	0b3H
	DB	0b3H
	DB	0b3H
	DB	0b3H
	DB	0b3H
	DB	0b3H
	DB	0b3H
	DB	0b3H
	DB	0b3H
	DB	0b3H
	DB	0b3H
	DB	0b3H
	DB	0b3H
	DB	0b3H
	DB	0b3H
	DB	0b3H
	DB	0b3H
	DB	0b3H
	DB	0b3H
	DB	0b3H
	DB	0b3H
	DB	0b3H
	DB	0b3H
	DB	0b3H
	DB	0b3H
	DB	0b3H
	DB	0b3H
	DB	0b3H
	DB	0b3H
	DB	0b3H
	DB	0b3H
	DB	0b3H
	DB	0b3H
	DB	0b3H
	DB	0b3H
	DB	0b3H
	DB	0b3H
	DB	0b3H
	DB	0b3H
	DB	0b3H
	DB	0b3H
	DB	0b3H
	DB	0b3H
	DB	0b3H
	DB	0b3H
	DB	0b3H
	DB	0b3H
	DB	0b3H
	DB	0b3H
	DB	0b3H
	DB	0b3H
	DB	0b3H
	DB	0b3H
	DB	0b3H
	DB	0b3H
	DB	0b3H
	DB	0b3H
	DB	0b3H
	DB	0b3H
	DB	0b3H
	DB	0b3H
	DB	0b3H
	DB	0b3H
	DB	0b3H
	DB	0b3H
	DB	0b3H
	DB	0b3H
	DB	0b3H
	DB	0b3H
	DB	0b3H
	DB	0b3H
	DB	0b3H
	DB	0b3H
	DB	0b3H
	DB	0b3H
	DB	0b3H
	DB	0b3H
	DB	0b3H
	DB	0b3H
	DB	0b3H
	DB	0b3H
	DB	0b3H
	DB	0b3H
	DB	0b3H
	DB	0b3H
	DB	0b3H
	DB	0b3H
	DB	0b3H
	DB	0b3H
	DB	0b3H
	DB	0b3H
	DB	0b3H
	DB	0b3H
	DB	0b3H
	DB	0b3H
	DB	0b3H
	DB	0b3H
	DB	0b3H
	DB	0b3H
	DB	0b3H
	DB	0b3H
	DB	0b3H
	DB	0b3H
	DB	0b3H
	DB	0b3H
	DB	0b3H
	DB	0b3H
	DB	0b3H
	DB	0b3H
	DB	0b3H
	DB	0b3H
	DB	0b3H
	DB	0b3H
	DB	0b3H
	DB	0b3H
	DB	0b3H
	DB	0b3H
	DB	0b3H
	DB	0b3H
	DB	0b3H
	DB	0b3H
	DB	0b3H
	DB	0b3H
	DB	0b3H
	DB	0b3H
	DB	0b3H
	DB	0b3H
	DB	0b3H
	DB	0b3H
	DB	0b3H
	DB	0b3H
	DB	0b3H
	DB	0b3H
	DB	0b3H
	DB	0b3H
	DB	0b3H
	DB	0b3H
	DB	0b3H
	DB	0b3H
	DB	0b3H
	DB	0b3H
	DB	0b3H
	DB	0b3H
	DB	0b3H
	DB	0b3H
	DB	0b3H
	DB	0b3H
	DB	0b3H
	DB	0b3H
	DB	0b3H
	DB	0b3H
	DB	0b3H
	DB	0b3H
	DB	0b3H
	DB	096H
	DB	096H
	DB	04H
	DB	0aH
	DB	0aH
	DB	022H
	DB	053H
	DB	034H
	DB	0ebH
	DB	034H
	DB	029H
	DB	02eH
	DB	02dH
	DB	021H
	DB	0d1H
	DB	0eH
	DB	06H
	DB	06H
	DB	0fdH
	DB	0ffH
	DB	0beH
	DB	0f9H
	DB	02dH
	DB	065H
	DB	065H
	DB	015H
	DB	03cH
	DB	046H
	DB	046H
	DB	046H
	DB	06eH
	DB	021H
	DB	021H
	DB	0beH
	DB	0beH
	DB	019H
	DB	0eH
	DB	0eH
	DB	0eH
	DB	0eH
	DB	0eH
	DB	0ffH
	DB	0eH
	DB	02aH
	DB	0a0H
	DB	016H
	DB	0fbH
	DB	02cH
	DB	02aH
	DB	034H
	DB	01dH
	DB	099H
	DB	0dfH
	DB	0dfH
	DB	099H
	DB	040H
	DB	01dH
	DB	0c7H
	DB	09fH
	DB	0c7H
	DB	08cH
	DB	0b8H
	DB	099H
	DB	07dH
	DB	0b5H
	DB	04H
	DB	0aH
	DB	01H
	DB	01H
	DB	0aH
	DB	0b5H
	DB	0e2H
	DB	0ebH
	DB	029H
	DB	05cH
	DB	05cH
	DB	0ccH
	DB	0aeH
	DB	07fH
	DB	034H
	DB	059H
	DB	059H
	DB	0abH
	DB	053H
	DB	053H
	DB	073H
	DB	04bH
	DB	077H
	DB	040H
	DB	05dH
	DB	01cH
	DB	06aH
	DB	04dH
	DB	06cH
	DB	057H
	DB	06cH
	DB	01H
	DB	09H
	DB	0bH
	DB	011H
	DB	0dH
	DB	025H
	DB	061H
	DB	01bH
	DB	05H
	DB	0b3H
	DB	096H
	DB	0b5H
	DB	099H
	DB	020H
	DB	00H
	DB	00H
	DB	00H
	DB	00H
	DB	00H
	DB	00H
	DB	00H
	DB	00H
	DB	00H
	DB	00H
	DB	00H
	DB	00H
	DB	00H
	DB	00H
	DB	00H
	DB	00H
	DB	00H
	DB	00H
	DB	00H
	DB	00H
	DB	00H
	DB	00H
	DB	00H
	DB	00H
	DB	00H
	DB	00H
	DB	00H
	DB	00H
	DB	00H
	DB	00H
	DB	00H
	DB	00H
	DB	0d2H
	DB	05H
	DB	01cH
	DB	07bH
	DB	0b3H
	DB	0b3H
	DB	0b3H
	DB	0b3H
	DB	0b3H
	DB	0b3H
	DB	0b3H
	DB	0b3H
	DB	0b3H
	DB	0b3H
	DB	0b3H
	DB	0b3H
	DB	07bH
	DB	05H
	DB	05H
	DB	05H
	DB	05H
	DB	05H
	DB	05H
	DB	05H
	DB	085H
	DB	0b3H
	DB	0b3H
	DB	0b3H
	DB	0b3H
	DB	0b3H
	DB	0b3H
	DB	0b3H
	DB	0b3H
	DB	0b3H
	DB	0b3H
	DB	0b3H
	DB	07bH
	DB	05H
	DB	05H
	DB	05H
	DB	05H
	DB	05H
	DB	0b3H
	DB	0b3H
	DB	0b3H
	DB	0b3H
	DB	0b3H
	DB	0b3H
	DB	0b3H
	DB	0b3H
	DB	0b3H
	DB	0b3H
	DB	0b3H
	DB	085H
	DB	05H
	DB	05H
	DB	05H
	DB	05H
	DB	05H
	DB	07bH
	DB	0b3H
	DB	0b3H
	DB	0b3H
	DB	0b3H
	DB	0b3H
	DB	0b3H
	DB	0b3H
	DB	0b3H
	DB	0b3H
	DB	0b3H
	DB	0b3H
	DB	0b3H
	DB	0b3H
	DB	0b3H
	DB	0b3H
	DB	0b3H
	DB	0b3H
	DB	0b3H
	DB	0b3H
	DB	0b3H
	DB	0b3H
	DB	0b3H
	DB	0b3H
	DB	0b3H
	DB	0b3H
	DB	0b3H
	DB	0b3H
	DB	0b3H
	DB	0b3H
	DB	0b3H
	DB	07bH
	DB	05H
	DB	05H
	DB	05H
	DB	05H
	DB	05H
	DB	05H
	DB	07bH
	DB	0b3H
	DB	0b3H
	DB	0b3H
	DB	0b3H
	DB	0b3H
	DB	0b3H
	DB	0b3H
	DB	0b3H
	DB	0b3H
	DB	0b3H
	DB	0b3H
	DB	0b3H
	DB	0b3H
	DB	0b3H
	DB	0b3H
	DB	0b3H
	DB	0b3H
	DB	0b3H
	DB	0b3H
	DB	0b3H
	DB	0b3H
	DB	0b3H
	DB	0b3H
	DB	0b3H
	DB	07bH
	DB	05H
	DB	05H
	DB	05H
	DB	05H
	DB	05H
	DB	05H
	DB	07bH
	DB	0b3H
	DB	0b3H
	DB	0b3H
	DB	0b3H
	DB	0b3H
	DB	0b3H
	DB	0b3H
	DB	0b3H
	DB	0b3H
	DB	0b3H
	DB	0b3H
	DB	0b3H
	DB	0b3H
	DB	0b3H
	DB	0b3H
	DB	0b3H
	DB	0b3H
	DB	0b3H
	DB	0b3H
	DB	0b3H
	DB	0b3H
	DB	0b3H
	DB	0b3H
	DB	0b3H
	DB	0b3H
	DB	0b3H
	DB	0b3H
	DB	0b3H
	DB	0b3H
	DB	0b3H
	DB	0b3H
	DB	0b3H
	DB	0b3H
	DB	0b3H
	DB	0b3H
	DB	0b3H
	DB	0b3H
	DB	0b3H
	DB	0b3H
	DB	0b3H
	DB	0b3H
	DB	0b3H
	DB	0b3H
	DB	0b3H
	DB	0b3H
	DB	0b3H
	DB	0b3H
	DB	0b3H
	DB	0b3H
	DB	0b3H
	DB	0b3H
	DB	0b3H
	DB	0b3H
	DB	0b3H
	DB	0b3H
	DB	0b3H
	DB	0b3H
	DB	0b3H
	DB	0b3H
	DB	0b3H
	DB	0b3H
	DB	0b3H
	DB	0b3H
	DB	0b3H
	DB	0b3H
	DB	0b3H
	DB	0b3H
	DB	0b3H
	DB	0b3H
	DB	0b3H
	DB	0b3H
	DB	0b3H
	DB	0b3H
	DB	0b3H
	DB	0b3H
	DB	0b3H
	DB	0b3H
	DB	0b3H
	DB	0b3H
	DB	0b3H
	DB	0b3H
	DB	0b3H
	DB	0b3H
	DB	0b3H
	DB	0b3H
	DB	0b3H
	DB	0b3H
	DB	0b3H
	DB	0b3H
	DB	0b3H
	DB	0b3H
	DB	0b3H
	DB	0b3H
	DB	0b3H
	DB	0b3H
	DB	0b3H
	DB	0b3H
	DB	0b3H
	DB	0b3H
	DB	0b3H
	DB	0b3H
	DB	0b3H
	DB	0b3H
	DB	0b3H
	DB	0b3H
	DB	0b3H
	DB	0b3H
	DB	0b3H
	DB	0b3H
	DB	0b3H
	DB	0b3H
	DB	0b3H
	DB	0b3H
	DB	0b3H
	DB	0b3H
	DB	0b3H
	DB	0b3H
	DB	0b3H
	DB	0b3H
	DB	0b3H
	DB	0b3H
	DB	0b3H
	DB	0b3H
	DB	0b3H
	DB	0b3H
	DB	0b3H
	DB	0b3H
	DB	0b3H
	DB	0b3H
	DB	0b3H
	DB	0b3H
	DB	0b3H
	DB	0b3H
	DB	0b3H
	DB	0b3H
	DB	0b3H
	DB	0b3H
	DB	0b3H
	DB	0b3H
	DB	0b3H
	DB	0b3H
	DB	096H
	DB	04H
	DB	04H
	DB	05H
	DB	022H
	DB	01dH
	DB	031H
	DB	02eH
	DB	035H
	DB	02cH
	DB	02dH
	DB	028H
	DB	0faH
	DB	0a6H
	DB	0a0H
	DB	02cH
	DB	079H
	DB	0cfH
	DB	0a6H
	DB	028H
	DB	0eH
	DB	0ffH
	DB	0fdH
	DB	06H
	DB	016H
	DB	06eH
	DB	046H
	DB	06eH
	DB	06eH
	DB	021H
	DB	021H
	DB	0beH
	DB	0beH
	DB	0beH
	DB	0eH
	DB	0eH
	DB	0eH
	DB	0eH
	DB	0eH
	DB	016H
	DB	016H
	DB	090H
	DB	0ffH
	DB	0eH
	DB	0beH
	DB	079H
	DB	099H
	DB	014H
	DB	0fH
	DB	0c4H
	DB	0dfH
	DB	01cH
	DB	0fH
	DB	0e2H
	DB	0c7H
	DB	0c7H
	DB	0c7H
	DB	01dH
	DB	0b8H
	DB	0b6H
	DB	08bH
	DB	083H
	DB	085H
	DB	0c3H
	DB	01bH
	DB	05eH
	DB	01bH
	DB	096H
	DB	01cH
	DB	014H
	DB	0cbH
	DB	02aH
	DB	02eH
	DB	0f1H
	DB	02aH
	DB	029H
	DB	031H
	DB	060H
	DB	060H
	DB	060H
	DB	08dH
	DB	059H
	DB	030H
	DB	0abH
	DB	053H
	DB	0b9H
	DB	04bH
	DB	077H
	DB	05dH
	DB	027H
	DB	01cH
	DB	022H
	DB	06cH
	DB	057H
	DB	057H
	DB	05H
	DB	04aH
	DB	067H
	DB	036H
	DB	025H
	DB	0bH
	DB	0cH
	DB	0cH
	DB	039H
	DB	0b2H
	DB	07bH
	DB	0b3H
	DB	0b3H
	DB	096H
	DB	0b5H
	DB	099H
	DB	020H
	DB	00H
	DB	00H
	DB	00H
	DB	00H
	DB	00H
	DB	00H
	DB	00H
	DB	00H
	DB	00H
	DB	00H
	DB	00H
	DB	00H
	DB	00H
	DB	00H
	DB	00H
	DB	00H
	DB	00H
	DB	00H
	DB	00H
	DB	00H
	DB	00H
	DB	00H
	DB	00H
	DB	00H
	DB	00H
	DB	00H
	DB	00H
	DB	00H
	DB	00H
	DB	00H
	DB	00H
	DB	00H
	DB	0d2H
	DB	05H
	DB	01cH
	DB	07bH
	DB	0b3H
	DB	0b3H
	DB	0b3H
	DB	0b3H
	DB	0b3H
	DB	0b3H
	DB	0b3H
	DB	0b3H
	DB	0b3H
	DB	0b3H
	DB	07bH
	DB	07bH
	DB	095H
	DB	0aH
	DB	0c3H
	DB	0c3H
	DB	0c3H
	DB	0c3H
	DB	0c3H
	DB	0c3H
	DB	096H
	DB	05H
	DB	0b3H
	DB	0b3H
	DB	0b3H
	DB	0b3H
	DB	0b3H
	DB	0b3H
	DB	0b3H
	DB	0b3H
	DB	07bH
	DB	05H
	DB	095H
	DB	0aH
	DB	0c3H
	DB	0c3H
	DB	0c3H
	DB	0c3H
	DB	07bH
	DB	07bH
	DB	0b3H
	DB	0b3H
	DB	0b3H
	DB	0b3H
	DB	0b3H
	DB	0b3H
	DB	0b3H
	DB	0b3H
	DB	05H
	DB	04aH
	DB	0c3H
	DB	0c3H
	DB	0c3H
	DB	0c3H
	DB	0aH
	DB	095H
	DB	05H
	DB	0b3H
	DB	0b3H
	DB	0b3H
	DB	0b3H
	DB	0b3H
	DB	0b3H
	DB	0b3H
	DB	0b3H
	DB	0b3H
	DB	0b3H
	DB	0b3H
	DB	0b3H
	DB	0b3H
	DB	0b3H
	DB	0b3H
	DB	0b3H
	DB	0b3H
	DB	0b3H
	DB	0b3H
	DB	0b3H
	DB	0b3H
	DB	0b3H
	DB	0b3H
	DB	0b3H
	DB	0b3H
	DB	0b3H
	DB	0b3H
	DB	0b3H
	DB	05H
	DB	04H
	DB	0aH
	DB	0c3H
	DB	0c3H
	DB	0c3H
	DB	0c3H
	DB	0aH
	DB	04H
	DB	05H
	DB	0b3H
	DB	0b3H
	DB	0b3H
	DB	0b3H
	DB	0b3H
	DB	0b3H
	DB	0b3H
	DB	0b3H
	DB	0b3H
	DB	0b3H
	DB	0b3H
	DB	07bH
	DB	05H
	DB	05H
	DB	0b3H
	DB	0b3H
	DB	0b3H
	DB	0b3H
	DB	0b3H
	DB	0b3H
	DB	0b3H
	DB	0b3H
	DB	05H
	DB	095H
	DB	0aH
	DB	0c3H
	DB	0c3H
	DB	0c3H
	DB	0c3H
	DB	0c3H
	DB	04H
	DB	05H
	DB	0b3H
	DB	0b3H
	DB	0b3H
	DB	0b3H
	DB	0b3H
	DB	0b3H
	DB	0b3H
	DB	0b3H
	DB	0b3H
	DB	0b3H
	DB	0b3H
	DB	0b3H
	DB	0b3H
	DB	0b3H
	DB	0b3H
	DB	0b3H
	DB	0b3H
	DB	0b3H
	DB	0b3H
	DB	0b3H
	DB	0b3H
	DB	0b3H
	DB	0b3H
	DB	0b3H
	DB	0b3H
	DB	0b3H
	DB	0b3H
	DB	0b3H
	DB	0b3H
	DB	0b3H
	DB	0b3H
	DB	0b3H
	DB	0b3H
	DB	0b3H
	DB	0b3H
	DB	0b3H
	DB	0b3H
	DB	0b3H
	DB	0b3H
	DB	0b3H
	DB	0b3H
	DB	0b3H
	DB	0b3H
	DB	0b3H
	DB	0b3H
	DB	0b3H
	DB	0b3H
	DB	0b3H
	DB	0b3H
	DB	0b3H
	DB	0b3H
	DB	0b3H
	DB	0b3H
	DB	0b3H
	DB	0b3H
	DB	0b3H
	DB	0b3H
	DB	0b3H
	DB	0b3H
	DB	0b3H
	DB	0b3H
	DB	0b3H
	DB	0b3H
	DB	0b3H
	DB	0b3H
	DB	0b3H
	DB	0b3H
	DB	0b3H
	DB	0b3H
	DB	0b3H
	DB	0b3H
	DB	0b3H
	DB	0b3H
	DB	0b3H
	DB	0b3H
	DB	0b3H
	DB	0b3H
	DB	0b3H
	DB	0b3H
	DB	0b3H
	DB	0b3H
	DB	0b3H
	DB	0b3H
	DB	0b3H
	DB	0b3H
	DB	0b3H
	DB	0b3H
	DB	0b3H
	DB	0b3H
	DB	0b3H
	DB	0b3H
	DB	0b3H
	DB	0b3H
	DB	0b3H
	DB	0b3H
	DB	0b3H
	DB	0b3H
	DB	0b3H
	DB	0b3H
	DB	0b3H
	DB	0b3H
	DB	0b3H
	DB	0b3H
	DB	0b3H
	DB	0b3H
	DB	0b3H
	DB	0b3H
	DB	0b3H
	DB	0b3H
	DB	0b3H
	DB	0b3H
	DB	0b3H
	DB	0b3H
	DB	0b3H
	DB	0b3H
	DB	0b3H
	DB	0b3H
	DB	0b3H
	DB	0b3H
	DB	0b3H
	DB	0b3H
	DB	0b3H
	DB	0b3H
	DB	0b3H
	DB	0b3H
	DB	0b3H
	DB	0b3H
	DB	0b3H
	DB	0b3H
	DB	0b3H
	DB	0b3H
	DB	0b3H
	DB	0b3H
	DB	0b3H
	DB	0b3H
	DB	096H
	DB	04H
	DB	063H
	DB	063H
	DB	063H
	DB	04H
	DB	0fH
	DB	029H
	DB	08fH
	DB	02dH
	DB	028H
	DB	0f9H
	DB	0a0H
	DB	049H
	DB	049H
	DB	078H
	DB	052H
	DB	02cH
	DB	0beH
	DB	0a6H
	DB	079H
	DB	079H
	DB	079H
	DB	08fH
	DB	079H
	DB	079H
	DB	0a6H
	DB	016H
	DB	0eH
	DB	0fdH
	DB	06H
	DB	0eH
	DB	0beH
	DB	0beH
	DB	0beH
	DB	0eH
	DB	0eH
	DB	0eH
	DB	0eH
	DB	016H
	DB	0feH
	DB	090H
	DB	090H
	DB	090H
	DB	0eH
	DB	0faH
	DB	049H
	DB	0cbH
	DB	014H
	DB	0fH
	DB	01cH
	DB	01cH
	DB	01cH
	DB	0b7H
	DB	01dH
	DB	0c7H
	DB	0c7H
	DB	0c7H
	DB	08cH
	DB	0fH
	DB	01cH
	DB	022H
	DB	05H
	DB	04H
	DB	0aH
	DB	01H
	DB	01H
	DB	0aH
	DB	06cH
	DB	01dH
	DB	034H
	DB	0ccH
	DB	02eH
	DB	0f2H
	DB	0f1H
	DB	02aH
	DB	029H
	DB	0aeH
	DB	0cbH
	DB	031H
	DB	031H
	DB	0c9H
	DB	060H
	DB	08dH
	DB	059H
	DB	0abH
	DB	053H
	DB	0b9H
	DB	04bH
	DB	04bH
	DB	040H
	DB	040H
	DB	01cH
	DB	04dH
	DB	057H
	DB	05H
	DB	022H
	DB	04aH
	DB	06aH
	DB	0aH
	DB	04aH
	DB	063H
	DB	063H
	DB	063H
	DB	03H
	DB	0bH
	DB	04eH
	DB	07aH
	DB	01eH
	DB	0b3H
	DB	07bH
	DB	0b3H
	DB	0b3H
	DB	096H
	DB	0b5H
	DB	099H
	DB	020H
	DB	00H
	DB	00H
	DB	00H
	DB	00H
	DB	00H
	DB	00H
	DB	00H
	DB	00H
	DB	00H
	DB	00H
	DB	00H
	DB	00H
	DB	00H
	DB	00H
	DB	00H
	DB	00H
	DB	00H
	DB	00H
	DB	00H
	DB	00H
	DB	00H
	DB	00H
	DB	00H
	DB	00H
	DB	00H
	DB	00H
	DB	00H
	DB	00H
	DB	00H
	DB	00H
	DB	00H
	DB	00H
	DB	0d2H
	DB	05H
	DB	01cH
	DB	07bH
	DB	0b3H
	DB	0b3H
	DB	0b3H
	DB	0b3H
	DB	0b3H
	DB	0b3H
	DB	0b3H
	DB	0b3H
	DB	0b3H
	DB	0b3H
	DB	096H
	DB	061H
	DB	0bH
	DB	082H
	DB	082H
	DB	082H
	DB	082H
	DB	082H
	DB	082H
	DB	082H
	DB	032H
	DB	0aH
	DB	05H
	DB	0b3H
	DB	0b3H
	DB	0b3H
	DB	0b3H
	DB	0b3H
	DB	0b3H
	DB	07bH
	DB	0b3H
	DB	045H
	DB	082H
	DB	082H
	DB	082H
	DB	082H
	DB	082H
	DB	082H
	DB	0d4H
	DB	04H
	DB	07bH
	DB	0b3H
	DB	0b3H
	DB	0b3H
	DB	0b3H
	DB	0b3H
	DB	0b3H
	DB	05H
	DB	0aH
	DB	032H
	DB	082H
	DB	082H
	DB	082H
	DB	082H
	DB	082H
	DB	0bH
	DB	03H
	DB	05H
	DB	0b3H
	DB	0b3H
	DB	0b3H
	DB	0b3H
	DB	0b3H
	DB	0b3H
	DB	0b3H
	DB	0b3H
	DB	0b3H
	DB	0b3H
	DB	0b3H
	DB	0b3H
	DB	0b3H
	DB	0b3H
	DB	0b3H
	DB	0b3H
	DB	0b3H
	DB	0b3H
	DB	0b3H
	DB	0b3H
	DB	0b3H
	DB	0b3H
	DB	0b3H
	DB	0b3H
	DB	0b3H
	DB	0b3H
	DB	05H
	DB	010H
	DB	0bH
	DB	082H
	DB	082H
	DB	082H
	DB	082H
	DB	082H
	DB	082H
	DB	0bH
	DB	08H
	DB	05H
	DB	0b3H
	DB	0b3H
	DB	0b3H
	DB	0b3H
	DB	0b3H
	DB	0b3H
	DB	0b3H
	DB	0b3H
	DB	0b3H
	DB	05H
	DB	0b3H
	DB	01H
	DB	05fH
	DB	05H
	DB	0b3H
	DB	0b3H
	DB	0b3H
	DB	0b3H
	DB	0b3H
	DB	0b3H
	DB	05H
	DB	03H
	DB	0bH
	DB	082H
	DB	082H
	DB	082H
	DB	082H
	DB	082H
	DB	082H
	DB	032H
	DB	023H
	DB	05H
	DB	0b3H
	DB	0b3H
	DB	0b3H
	DB	0b3H
	DB	0b3H
	DB	0b3H
	DB	0b3H
	DB	0b3H
	DB	0b3H
	DB	0b3H
	DB	0b3H
	DB	0b3H
	DB	0b3H
	DB	0b3H
	DB	0b3H
	DB	0b3H
	DB	0b3H
	DB	0b3H
	DB	0b3H
	DB	0b3H
	DB	0b3H
	DB	0b3H
	DB	0b3H
	DB	0b3H
	DB	0b3H
	DB	0b3H
	DB	0b3H
	DB	0b3H
	DB	0b3H
	DB	0b3H
	DB	0b3H
	DB	0b3H
	DB	0b3H
	DB	0b3H
	DB	0b3H
	DB	0b3H
	DB	0b3H
	DB	0b3H
	DB	0b3H
	DB	0b3H
	DB	0b3H
	DB	0b3H
	DB	0b3H
	DB	0b3H
	DB	0b3H
	DB	0b3H
	DB	0b3H
	DB	0b3H
	DB	0b3H
	DB	0b3H
	DB	0b3H
	DB	0b3H
	DB	0b3H
	DB	0b3H
	DB	0b3H
	DB	0b3H
	DB	0b3H
	DB	0b3H
	DB	0b3H
	DB	0b3H
	DB	0b3H
	DB	0b3H
	DB	0b3H
	DB	0b3H
	DB	0b3H
	DB	0b3H
	DB	0b3H
	DB	0b3H
	DB	0b3H
	DB	0b3H
	DB	0b3H
	DB	0b3H
	DB	0b3H
	DB	0b3H
	DB	0b3H
	DB	0b3H
	DB	0b3H
	DB	0b3H
	DB	0b3H
	DB	0b3H
	DB	0b3H
	DB	0b3H
	DB	0b3H
	DB	0b3H
	DB	0b3H
	DB	0b3H
	DB	0b3H
	DB	0b3H
	DB	0b3H
	DB	0b3H
	DB	0b3H
	DB	0b3H
	DB	0b3H
	DB	0b3H
	DB	0b3H
	DB	0b3H
	DB	0b3H
	DB	0b3H
	DB	0b3H
	DB	0b3H
	DB	0b3H
	DB	0b3H
	DB	0b3H
	DB	0b3H
	DB	0b3H
	DB	0b3H
	DB	0b3H
	DB	0b3H
	DB	0b3H
	DB	0b3H
	DB	0b3H
	DB	0b3H
	DB	0b3H
	DB	0b3H
	DB	0b3H
	DB	0b3H
	DB	0b3H
	DB	0b3H
	DB	0b3H
	DB	0b3H
	DB	0b3H
	DB	0b3H
	DB	0b3H
	DB	0b3H
	DB	0b3H
	DB	0b3H
	DB	0b3H
	DB	0b3H
	DB	0b3H
	DB	04H
	DB	04H
	DB	04H
	DB	063H
	DB	095H
	DB	04H
	DB	022H
	DB	0e2H
	DB	034H
	DB	02aH
	DB	02cH
	DB	0faH
	DB	0b0H
	DB	0a6H
	DB	02dH
	DB	0a0H
	DB	0a0H
	DB	02dH
	DB	02dH
	DB	0a6H
	DB	0a6H
	DB	02dH
	DB	02dH
	DB	0cfH
	DB	079H
	DB	079H
	DB	08fH
	DB	08fH
	DB	08fH
	DB	08fH
	DB	075H
	DB	075H
	DB	0eH
	DB	0feH
	DB	0eH
	DB	016H
	DB	06H
	DB	016H
	DB	0eH
	DB	016H
	DB	0fcH
	DB	0ffH
	DB	090H
	DB	0fcH
	DB	0eH
	DB	0fbH
	DB	0cfH
	DB	0ccH
	DB	0aaH
	DB	01cH
	DB	05H
	DB	05H
	DB	0e1H
	DB	0fH
	DB	0b7H
	DB	0c7H
	DB	0c7H
	DB	0c7H
	DB	08cH
	DB	0b8H
	DB	099H
	DB	08bH
	DB	0b5H
	DB	085H
	DB	0aH
	DB	01H
	DB	05eH
	DB	01H
	DB	04H
	DB	01cH
	DB	014H
	DB	0cbH
	DB	0f1H
	DB	0f2H
	DB	0f2H
	DB	0f1H
	DB	0ccH
	DB	029H
	DB	029H
	DB	0aeH
	DB	029H
	DB	0aeH
	DB	031H
	DB	0c9H
	DB	034H
	DB	08dH
	DB	059H
	DB	0abH
	DB	053H
	DB	0b9H
	DB	04bH
	DB	077H
	DB	040H
	DB	040H
	DB	01cH
	DB	027H
	DB	057H
	DB	06aH
	DB	04H
	DB	0dfH
	DB	0dfH
	DB	0c9H
	DB	0b9H
	DB	06cH
	DB	05fH
	DB	036H
	DB	0aH
	DB	0aH
	DB	0aH
	DB	010H
	DB	032H
	DB	0bH
	DB	023H
	DB	05H
	DB	0b3H
	DB	0b3H
	DB	0b3H
	DB	0b3H
	DB	04H
	DB	0b5H
	DB	099H
	DB	020H
	DB	00H
	DB	00H
	DB	00H
	DB	00H
	DB	00H
	DB	00H
	DB	00H
	DB	00H
	DB	00H
	DB	00H
	DB	00H
	DB	00H
	DB	00H
	DB	00H
	DB	00H
	DB	00H
	DB	00H
	DB	00H
	DB	00H
	DB	00H
	DB	00H
	DB	00H
	DB	00H
	DB	00H
	DB	00H
	DB	00H
	DB	00H
	DB	00H
	DB	00H
	DB	00H
	DB	00H
	DB	00H
	DB	0d2H
	DB	05H
	DB	0c4H
	DB	0b3H
	DB	096H
	DB	096H
	DB	096H
	DB	096H
	DB	096H
	DB	096H
	DB	096H
	DB	096H
	DB	096H
	DB	07bH
	DB	023H
	DB	03dH
	DB	068H
	DB	06fH
	DB	050H
	DB	050H
	DB	050H
	DB	050H
	DB	050H
	DB	06fH
	DB	02bH
	DB	0d6H
	DB	05H
	DB	096H
	DB	096H
	DB	096H
	DB	096H
	DB	096H
	DB	096H
	DB	05H
	DB	01H
	DB	03dH
	DB	03bH
	DB	06fH
	DB	050H
	DB	050H
	DB	050H
	DB	050H
	DB	024H
	DB	064H
	DB	05H
	DB	096H
	DB	096H
	DB	096H
	DB	096H
	DB	096H
	DB	096H
	DB	05H
	DB	04cH
	DB	043H
	DB	06fH
	DB	050H
	DB	050H
	DB	050H
	DB	06fH
	DB	037H
	DB	0bH
	DB	0aH
	DB	07bH
	DB	096H
	DB	096H
	DB	096H
	DB	096H
	DB	096H
	DB	096H
	DB	096H
	DB	096H
	DB	096H
	DB	096H
	DB	096H
	DB	096H
	DB	096H
	DB	096H
	DB	096H
	DB	096H
	DB	096H
	DB	096H
	DB	096H
	DB	096H
	DB	096H
	DB	096H
	DB	096H
	DB	096H
	DB	0b3H
	DB	05H
	DB	041H
	DB	0d8H
	DB	070H
	DB	050H
	DB	050H
	DB	050H
	DB	050H
	DB	070H
	DB	03eH
	DB	047H
	DB	04H
	DB	0b3H
	DB	096H
	DB	096H
	DB	096H
	DB	096H
	DB	096H
	DB	096H
	DB	0b3H
	DB	05H
	DB	01bH
	DB	047H
	DB	03dH
	DB	09bH
	DB	063H
	DB	07bH
	DB	096H
	DB	096H
	DB	096H
	DB	096H
	DB	0b3H
	DB	04H
	DB	0bH
	DB	05bH
	DB	070H
	DB	050H
	DB	050H
	DB	050H
	DB	050H
	DB	06fH
	DB	043H
	DB	058H
	DB	05H
	DB	04H
	DB	096H
	DB	096H
	DB	096H
	DB	096H
	DB	096H
	DB	096H
	DB	096H
	DB	096H
	DB	096H
	DB	096H
	DB	096H
	DB	096H
	DB	096H
	DB	096H
	DB	096H
	DB	096H
	DB	096H
	DB	096H
	DB	096H
	DB	096H
	DB	096H
	DB	096H
	DB	096H
	DB	096H
	DB	096H
	DB	096H
	DB	096H
	DB	096H
	DB	096H
	DB	096H
	DB	096H
	DB	096H
	DB	096H
	DB	096H
	DB	096H
	DB	096H
	DB	096H
	DB	096H
	DB	096H
	DB	096H
	DB	096H
	DB	096H
	DB	096H
	DB	096H
	DB	096H
	DB	096H
	DB	096H
	DB	096H
	DB	096H
	DB	096H
	DB	096H
	DB	096H
	DB	096H
	DB	096H
	DB	096H
	DB	096H
	DB	096H
	DB	096H
	DB	096H
	DB	096H
	DB	096H
	DB	096H
	DB	096H
	DB	096H
	DB	096H
	DB	096H
	DB	096H
	DB	096H
	DB	096H
	DB	096H
	DB	096H
	DB	096H
	DB	096H
	DB	096H
	DB	096H
	DB	096H
	DB	096H
	DB	096H
	DB	096H
	DB	096H
	DB	096H
	DB	096H
	DB	096H
	DB	096H
	DB	096H
	DB	096H
	DB	096H
	DB	096H
	DB	096H
	DB	096H
	DB	096H
	DB	096H
	DB	096H
	DB	096H
	DB	096H
	DB	096H
	DB	096H
	DB	096H
	DB	096H
	DB	096H
	DB	096H
	DB	096H
	DB	096H
	DB	096H
	DB	096H
	DB	096H
	DB	096H
	DB	096H
	DB	096H
	DB	096H
	DB	096H
	DB	096H
	DB	096H
	DB	096H
	DB	096H
	DB	096H
	DB	096H
	DB	096H
	DB	096H
	DB	096H
	DB	096H
	DB	096H
	DB	096H
	DB	096H
	DB	04H
	DB	04H
	DB	095H
	DB	095H
	DB	04H
	DB	05H
	DB	0b5H
	DB	01dH
	DB	034H
	DB	0f1H
	DB	03aH
	DB	0faH
	DB	0beH
	DB	0beH
	DB	0eH
	DB	0eH
	DB	0feH
	DB	016H
	DB	0d1H
	DB	0a6H
	DB	0a0H
	DB	0cfH
	DB	0cfH
	DB	0cfH
	DB	08fH
	DB	079H
	DB	08fH
	DB	075H
	DB	08fH
	DB	075H
	DB	08fH
	DB	08fH
	DB	075H
	DB	075H
	DB	075H
	DB	0afH
	DB	079H
	DB	0a6H
	DB	0eH
	DB	0eH
	DB	0eH
	DB	0fdH
	DB	0fdH
	DB	0eH
	DB	0faH
	DB	02cH
	DB	0a5H
	DB	031H
	DB	014H
	DB	099H
	DB	057H
	DB	057H
	DB	06cH
	DB	01cH
	DB	01cH
	DB	01H
	DB	036H
	DB	0b8H
	DB	0b8H
	DB	099H
	DB	08bH
	DB	083H
	DB	05H
	DB	095H
	DB	01bH
	DB	01H
	DB	01H
	DB	0aH
	DB	0b5H
	DB	0b7H
	DB	034H
	DB	0ccH
	DB	0f2H
	DB	035H
	DB	0f2H
	DB	0a5H
	DB	0ccH
	DB	029H
	DB	029H
	DB	029H
	DB	029H
	DB	0aeH
	DB	0cbH
	DB	0c9H
	DB	060H
	DB	034H
	DB	059H
	DB	030H
	DB	0abH
	DB	053H
	DB	073H
	DB	04bH
	DB	077H
	DB	040H
	DB	01cH
	DB	01cH
	DB	0fH
	DB	05H
	DB	04bH
	DB	031H
	DB	0eaH
	DB	09fH
	DB	049H
	DB	0c7H
	DB	057H
	DB	01H
	DB	088H
	DB	036H
	DB	0aH
	DB	05fH
	DB	01bH
	DB	01bH
	DB	01bH
	DB	08H
	DB	09H
	DB	082H
	DB	08H
	DB	05H
	DB	096H
	DB	096H
	DB	096H
	DB	096H
	DB	04H
	DB	0b5H
	DB	099H
	DB	020H
	DB	00H
	DB	00H
	DB	00H
	DB	00H
	DB	00H
	DB	00H
	DB	00H
	DB	00H
	DB	00H
	DB	00H
	DB	00H
	DB	00H
	DB	00H
	DB	00H
	DB	00H
	DB	00H
	DB	00H
	DB	00H
	DB	00H
	DB	00H
	DB	00H
	DB	00H
	DB	00H
	DB	00H
	DB	00H
	DB	00H
	DB	00H
	DB	00H
	DB	00H
	DB	00H
	DB	00H
	DB	00H
	DB	0d2H
	DB	05H
	DB	0c4H
	DB	0b3H
	DB	096H
	DB	096H
	DB	096H
	DB	096H
	DB	096H
	DB	096H
	DB	096H
	DB	096H
	DB	096H
	DB	0b3H
	DB	04H
	DB	044H
	DB	03bH
	DB	051H
	DB	051H
	DB	051H
	DB	051H
	DB	051H
	DB	051H
	DB	051H
	DB	05bH
	DB	042H
	DB	04H
	DB	04H
	DB	096H
	DB	096H
	DB	096H
	DB	096H
	DB	096H
	DB	05H
	DB	058H
	DB	055H
	DB	051H
	DB	051H
	DB	051H
	DB	051H
	DB	051H
	DB	051H
	DB	03eH
	DB	041H
	DB	04H
	DB	04H
	DB	096H
	DB	096H
	DB	096H
	DB	096H
	DB	096H
	DB	05H
	DB	042H
	DB	037H
	DB	051H
	DB	051H
	DB	051H
	DB	051H
	DB	051H
	DB	037H
	DB	042H
	DB	095H
	DB	04H
	DB	04H
	DB	096H
	DB	096H
	DB	096H
	DB	096H
	DB	096H
	DB	096H
	DB	096H
	DB	096H
	DB	096H
	DB	096H
	DB	096H
	DB	096H
	DB	096H
	DB	096H
	DB	096H
	DB	096H
	DB	096H
	DB	096H
	DB	096H
	DB	096H
	DB	096H
	DB	096H
	DB	096H
	DB	0b3H
	DB	0b3H
	DB	047H
	DB	05bH
	DB	051H
	DB	051H
	DB	051H
	DB	051H
	DB	051H
	DB	051H
	DB	037H
	DB	02fH
	DB	095H
	DB	04H
	DB	096H
	DB	096H
	DB	096H
	DB	096H
	DB	0b3H
	DB	05H
	DB	04H
	DB	0d6H
	DB	00H
	DB	03eH
	DB	03bH
	DB	054H
	DB	069H
	DB	07bH
	DB	096H
	DB	096H
	DB	096H
	DB	096H
	DB	0b3H
	DB	095H
	DB	0bH
	DB	03bH
	DB	051H
	DB	051H
	DB	051H
	DB	051H
	DB	051H
	DB	051H
	DB	03eH
	DB	04cH
	DB	04H
	DB	04H
	DB	096H
	DB	096H
	DB	096H
	DB	096H
	DB	096H
	DB	096H
	DB	096H
	DB	096H
	DB	096H
	DB	096H
	DB	096H
	DB	096H
	DB	096H
	DB	096H
	DB	096H
	DB	096H
	DB	096H
	DB	096H
	DB	096H
	DB	096H
	DB	096H
	DB	096H
	DB	096H
	DB	096H
	DB	096H
	DB	096H
	DB	096H
	DB	096H
	DB	096H
	DB	096H
	DB	096H
	DB	096H
	DB	096H
	DB	096H
	DB	096H
	DB	096H
	DB	096H
	DB	096H
	DB	096H
	DB	096H
	DB	096H
	DB	096H
	DB	096H
	DB	096H
	DB	096H
	DB	096H
	DB	096H
	DB	096H
	DB	096H
	DB	096H
	DB	096H
	DB	096H
	DB	096H
	DB	096H
	DB	096H
	DB	096H
	DB	096H
	DB	096H
	DB	096H
	DB	096H
	DB	096H
	DB	096H
	DB	096H
	DB	096H
	DB	096H
	DB	096H
	DB	096H
	DB	096H
	DB	096H
	DB	096H
	DB	096H
	DB	096H
	DB	096H
	DB	096H
	DB	096H
	DB	096H
	DB	096H
	DB	096H
	DB	096H
	DB	096H
	DB	096H
	DB	096H
	DB	096H
	DB	096H
	DB	096H
	DB	096H
	DB	096H
	DB	096H
	DB	096H
	DB	096H
	DB	096H
	DB	096H
	DB	096H
	DB	096H
	DB	096H
	DB	096H
	DB	096H
	DB	096H
	DB	096H
	DB	096H
	DB	096H
	DB	096H
	DB	096H
	DB	096H
	DB	096H
	DB	096H
	DB	096H
	DB	096H
	DB	096H
	DB	096H
	DB	096H
	DB	096H
	DB	096H
	DB	096H
	DB	096H
	DB	096H
	DB	096H
	DB	096H
	DB	096H
	DB	096H
	DB	04H
	DB	063H
	DB	095H
	DB	063H
	DB	04H
	DB	022H
	DB	01dH
	DB	034H
	DB	02eH
	DB	02dH
	DB	028H
	DB	0eH
	DB	016H
	DB	090H
	DB	090H
	DB	016H
	DB	0eH
	DB	0beH
	DB	0fbH
	DB	0f9H
	DB	028H
	DB	021H
	DB	016H
	DB	090H
	DB	0eH
	DB	079H
	DB	075H
	DB	075H
	DB	075H
	DB	08fH
	DB	075H
	DB	075H
	DB	075H
	DB	0afH
	DB	0afH
	DB	089H
	DB	0afH
	DB	075H
	DB	0cfH
	DB	0a6H
	DB	0b0H
	DB	0d1H
	DB	0eH
	DB	0beH
	DB	0eH
	DB	0eH
	DB	0acH
	DB	0fH
	DB	022H
	DB	067H
	DB	04aH
	DB	0aH
	DB	01bH
	DB	01cH
	DB	01dH
	DB	0c7H
	DB	0c7H
	DB	0c7H
	DB	01dH
	DB	0fH
	DB	08H
	DB	01eH
	DB	05H
	DB	0aH
	DB	01H
	DB	01eH
	DB	01H
	DB	063H
	DB	0dfH
	DB	09fH
	DB	0c9H
	DB	02aH
	DB	0f2H
	DB	0f2H
	DB	02eH
	DB	0f1H
	DB	02aH
	DB	0ccH
	DB	029H
	DB	029H
	DB	029H
	DB	029H
	DB	0cbH
	DB	0c9H
	DB	060H
	DB	034H
	DB	059H
	DB	030H
	DB	0abH
	DB	053H
	DB	0b9H
	DB	073H
	DB	04bH
	DB	077H
	DB	040H
	DB	05dH
	DB	027H
	DB	04dH
	DB	040H
	DB	030H
	DB	014H
	DB	08bH
	DB	029H
	DB	091H
	DB	0c9H
	DB	030H
	DB	014H
	DB	06dH
	DB	01dH
	DB	0dH
	DB	030H
	DB	04aH
	DB	01H
	DB	01H
	DB	01H
	DB	01H
	DB	05eH
	DB	01eH
	DB	039H
	DB	080H
	DB	07aH
	DB	05H
	DB	096H
	DB	096H
	DB	096H
	DB	096H
	DB	04H
	DB	0b5H
	DB	099H
	DB	020H
	DB	00H
	DB	00H
	DB	00H
	DB	00H
	DB	00H
	DB	00H
	DB	00H
	DB	00H
	DB	00H
	DB	00H
	DB	00H
	DB	00H
	DB	00H
	DB	00H
	DB	00H
	DB	00H
	DB	00H
	DB	00H
	DB	00H
	DB	00H
	DB	00H
	DB	00H
	DB	00H
	DB	00H
	DB	00H
	DB	00H
	DB	00H
	DB	00H
	DB	00H
	DB	00H
	DB	00H
	DB	00H
	DB	0d2H
	DB	05H
	DB	0c4H
	DB	0b3H
	DB	096H
	DB	096H
	DB	096H
	DB	096H
	DB	096H
	DB	096H
	DB	096H
	DB	096H
	DB	096H
	DB	096H
	DB	05H
	DB	025H
	DB	03eH
	DB	051H
	DB	07H
	DB	07H
	DB	07H
	DB	07H
	DB	07H
	DB	051H
	DB	050H
	DB	03fH
	DB	01H
	DB	04H
	DB	04H
	DB	096H
	DB	096H
	DB	096H
	DB	0b3H
	DB	04aH
	DB	042H
	DB	037H
	DB	051H
	DB	07H
	DB	07H
	DB	07H
	DB	07H
	DB	051H
	DB	03bH
	DB	03fH
	DB	01bH
	DB	04H
	DB	04H
	DB	096H
	DB	096H
	DB	096H
	DB	07bH
	DB	023H
	DB	024H
	DB	050H
	DB	051H
	DB	07H
	DB	07H
	DB	07H
	DB	07H
	DB	055H
	DB	041H
	DB	0aH
	DB	095H
	DB	04H
	DB	096H
	DB	096H
	DB	096H
	DB	096H
	DB	096H
	DB	096H
	DB	096H
	DB	096H
	DB	096H
	DB	096H
	DB	096H
	DB	096H
	DB	096H
	DB	096H
	DB	096H
	DB	096H
	DB	096H
	DB	096H
	DB	096H
	DB	096H
	DB	096H
	DB	096H
	DB	096H
	DB	0b3H
	DB	0b3H
	DB	047H
	DB	072H
	DB	051H
	DB	07H
	DB	07H
	DB	07H
	DB	07H
	DB	051H
	DB	05bH
	DB	042H
	DB	01bH
	DB	063H
	DB	04H
	DB	096H
	DB	096H
	DB	07bH
	DB	05H
	DB	01eH
	DB	044H
	DB	054H
	DB	03bH
	DB	051H
	DB	038H
	DB	024H
	DB	01eH
	DB	04H
	DB	04H
	DB	096H
	DB	096H
	DB	096H
	DB	0b3H
	DB	095H
	DB	0bH
	DB	03bH
	DB	051H
	DB	07H
	DB	07H
	DB	07H
	DB	07H
	DB	07H
	DB	03eH
	DB	041H
	DB	0aH
	DB	063H
	DB	04H
	DB	096H
	DB	096H
	DB	096H
	DB	096H
	DB	096H
	DB	096H
	DB	096H
	DB	096H
	DB	096H
	DB	096H
	DB	096H
	DB	096H
	DB	096H
	DB	096H
	DB	096H
	DB	096H
	DB	096H
	DB	096H
	DB	096H
	DB	096H
	DB	096H
	DB	096H
	DB	096H
	DB	096H
	DB	096H
	DB	096H
	DB	096H
	DB	096H
	DB	096H
	DB	096H
	DB	096H
	DB	096H
	DB	096H
	DB	096H
	DB	096H
	DB	096H
	DB	096H
	DB	096H
	DB	096H
	DB	096H
	DB	096H
	DB	096H
	DB	096H
	DB	096H
	DB	096H
	DB	096H
	DB	096H
	DB	096H
	DB	096H
	DB	096H
	DB	096H
	DB	096H
	DB	096H
	DB	096H
	DB	096H
	DB	096H
	DB	096H
	DB	096H
	DB	096H
	DB	096H
	DB	096H
	DB	096H
	DB	096H
	DB	096H
	DB	096H
	DB	096H
	DB	096H
	DB	096H
	DB	096H
	DB	096H
	DB	096H
	DB	096H
	DB	096H
	DB	096H
	DB	096H
	DB	096H
	DB	096H
	DB	096H
	DB	096H
	DB	096H
	DB	096H
	DB	096H
	DB	096H
	DB	096H
	DB	096H
	DB	096H
	DB	096H
	DB	096H
	DB	096H
	DB	096H
	DB	096H
	DB	096H
	DB	096H
	DB	096H
	DB	096H
	DB	096H
	DB	096H
	DB	096H
	DB	096H
	DB	096H
	DB	096H
	DB	096H
	DB	096H
	DB	096H
	DB	096H
	DB	096H
	DB	096H
	DB	096H
	DB	096H
	DB	096H
	DB	096H
	DB	096H
	DB	096H
	DB	096H
	DB	096H
	DB	096H
	DB	096H
	DB	04H
	DB	095H
	DB	04H
	DB	01cH
	DB	0eaH
	DB	0bcH
	DB	035H
	DB	02dH
	DB	028H
	DB	021H
	DB	0beH
	DB	0beH
	DB	016H
	DB	0fdH
	DB	0ffH
	DB	0fcH
	DB	0fcH
	DB	0fcH
	DB	0fcH
	DB	0fcH
	DB	0fcH
	DB	0eH
	DB	021H
	DB	028H
	DB	028H
	DB	0fbH
	DB	016H
	DB	090H
	DB	0d1H
	DB	0a0H
	DB	021H
	DB	075H
	DB	089H
	DB	0afH
	DB	075H
	DB	079H
	DB	02dH
	DB	0b0H
	DB	0d1H
	DB	0eH
	DB	016H
	DB	016H
	DB	0eH
	DB	0beH
	DB	028H
	DB	049H
	DB	0f2H
	DB	02eH
	DB	05eH
	DB	05fH
	DB	0aH
	DB	05fH
	DB	0aH
	DB	01eH
	DB	01bH
	DB	036H
	DB	06aH
	DB	0fH
	DB	01cH
	DB	022H
	DB	05H
	DB	04H
	DB	0aH
	DB	0dH
	DB	05eH
	DB	067H
	DB	099H
	DB	0aaH
	DB	031H
	DB	02aH
	DB	0f1H
	DB	02eH
	DB	0a5H
	DB	02aH
	DB	062H
	DB	062H
	DB	062H
	DB	062H
	DB	029H
	DB	0aeH
	DB	031H
	DB	0c9H
	DB	060H
	DB	034H
	DB	0ebH
	DB	030H
	DB	0eaH
	DB	053H
	DB	0b9H
	DB	04bH
	DB	01dH
	DB	077H
	DB	040H
	DB	0fH
	DB	05dH
	DB	01cH
	DB	06aH
	DB	04dH
	DB	04dH
	DB	05H
	DB	059H
	DB	0a0H
	DB	0f1H
	DB	0ebH
	DB	0f2H
	DB	08H
	DB	034H
	DB	030H
	DB	01dH
	DB	0aH
	DB	022H
	DB	05aH
	DB	01bH
	DB	05eH
	DB	01H
	DB	05eH
	DB	01eH
	DB	01eH
	DB	08H
	DB	08H
	DB	025H
	DB	080H
	DB	0c0H
	DB	0b3H
	DB	0b3H
	DB	096H
	DB	096H
	DB	096H
	DB	04H
	DB	0b5H
	DB	099H
	DB	020H
	DB	00H
	DB	00H
	DB	00H
	DB	00H
	DB	00H
	DB	00H
	DB	00H
	DB	00H
	DB	00H
	DB	00H
	DB	00H
	DB	00H
	DB	00H
	DB	00H
	DB	00H
	DB	00H
	DB	00H
	DB	00H
	DB	00H
	DB	00H
	DB	00H
	DB	00H
	DB	00H
	DB	00H
	DB	00H
	DB	00H
	DB	00H
	DB	00H
	DB	00H
	DB	00H
	DB	00H
	DB	00H
	DB	0d2H
	DB	05H
	DB	0c4H
	DB	096H
	DB	04H
	DB	04H
	DB	04H
	DB	04H
	DB	04H
	DB	04H
	DB	04H
	DB	04H
	DB	04H
	DB	04H
	DB	05H
	DB	010H
	DB	054H
	DB	07H
	DB	07H
	DB	07H
	DB	07H
	DB	07H
	DB	07H
	DB	07H
	DB	026H
	DB	054H
	DB	058H
	DB	095H
	DB	04H
	DB	04H
	DB	04H
	DB	04H
	DB	05H
	DB	01H
	DB	024H
	DB	056H
	DB	051H
	DB	07H
	DB	07H
	DB	07H
	DB	07H
	DB	07H
	DB	026H
	DB	054H
	DB	058H
	DB	095H
	DB	04H
	DB	04H
	DB	04H
	DB	04H
	DB	05H
	DB	064H
	DB	054H
	DB	026H
	DB	07H
	DB	07H
	DB	07H
	DB	07H
	DB	038H
	DB	024H
	DB	0dH
	DB	01H
	DB	0aH
	DB	04H
	DB	04H
	DB	04H
	DB	04H
	DB	04H
	DB	04H
	DB	04H
	DB	04H
	DB	04H
	DB	04H
	DB	04H
	DB	04H
	DB	04H
	DB	04H
	DB	04H
	DB	04H
	DB	04H
	DB	04H
	DB	04H
	DB	04H
	DB	04H
	DB	04H
	DB	04H
	DB	04H
	DB	096H
	DB	04H
	DB	047H
	DB	072H
	DB	051H
	DB	07H
	DB	07H
	DB	07H
	DB	07H
	DB	051H
	DB	037H
	DB	044H
	DB	01eH
	DB	0aH
	DB	04H
	DB	04H
	DB	07bH
	DB	0aH
	DB	04cH
	DB	03dH
	DB	07eH
	DB	026H
	DB	051H
	DB	051H
	DB	056H
	DB	024H
	DB	010H
	DB	095H
	DB	04H
	DB	04H
	DB	04H
	DB	04H
	DB	096H
	DB	095H
	DB	0bH
	DB	03bH
	DB	051H
	DB	07H
	DB	07H
	DB	07H
	DB	07H
	DB	07H
	DB	03eH
	DB	047H
	DB	01H
	DB	0c3H
	DB	04H
	DB	04H
	DB	04H
	DB	04H
	DB	04H
	DB	04H
	DB	04H
	DB	04H
	DB	04H
	DB	04H
	DB	04H
	DB	04H
	DB	04H
	DB	04H
	DB	04H
	DB	04H
	DB	04H
	DB	04H
	DB	04H
	DB	04H
	DB	04H
	DB	04H
	DB	04H
	DB	04H
	DB	04H
	DB	04H
	DB	04H
	DB	04H
	DB	04H
	DB	04H
	DB	04H
	DB	04H
	DB	04H
	DB	04H
	DB	04H
	DB	04H
	DB	04H
	DB	04H
	DB	04H
	DB	04H
	DB	04H
	DB	04H
	DB	04H
	DB	04H
	DB	04H
	DB	04H
	DB	04H
	DB	04H
	DB	04H
	DB	04H
	DB	04H
	DB	04H
	DB	04H
	DB	04H
	DB	04H
	DB	04H
	DB	04H
	DB	04H
	DB	04H
	DB	04H
	DB	04H
	DB	04H
	DB	04H
	DB	04H
	DB	04H
	DB	04H
	DB	04H
	DB	04H
	DB	04H
	DB	04H
	DB	04H
	DB	04H
	DB	04H
	DB	04H
	DB	04H
	DB	04H
	DB	04H
	DB	04H
	DB	04H
	DB	04H
	DB	04H
	DB	04H
	DB	04H
	DB	04H
	DB	04H
	DB	04H
	DB	04H
	DB	04H
	DB	04H
	DB	04H
	DB	04H
	DB	04H
	DB	04H
	DB	04H
	DB	04H
	DB	04H
	DB	04H
	DB	04H
	DB	04H
	DB	04H
	DB	04H
	DB	04H
	DB	04H
	DB	04H
	DB	04H
	DB	04H
	DB	04H
	DB	04H
	DB	04H
	DB	04H
	DB	04H
	DB	04H
	DB	04H
	DB	04H
	DB	04H
	DB	04H
	DB	04H
	DB	04H
	DB	04H
	DB	0b7H
	DB	0ccH
	DB	02dH
	DB	046H
	DB	0fbH
	DB	021H
	DB	021H
	DB	0beH
	DB	019H
	DB	0beH
	DB	021H
	DB	028H
	DB	028H
	DB	0d1H
	DB	090H
	DB	090H
	DB	016H
	DB	016H
	DB	0eH
	DB	016H
	DB	0eH
	DB	0eH
	DB	0beH
	DB	028H
	DB	046H
	DB	0f9H
	DB	021H
	DB	0fdH
	DB	03cH
	DB	065H
	DB	028H
	DB	028H
	DB	0d1H
	DB	0eH
	DB	016H
	DB	0ffH
	DB	016H
	DB	0eH
	DB	0beH
	DB	0b0H
	DB	028H
	DB	0a6H
	DB	02dH
	DB	03cH
	DB	0faH
	DB	02cH
	DB	05H
	DB	01bH
	DB	0aH
	DB	05fH
	DB	05fH
	DB	01H
	DB	010H
	DB	01H
	DB	05eH
	DB	05fH
	DB	04H
	DB	0aH
	DB	01H
	DB	01bH
	DB	04H
	DB	01cH
	DB	063H
	DB	03H
	DB	0cbH
	DB	0f1H
	DB	0ccH
	DB	062H
	DB	029H
	DB	029H
	DB	029H
	DB	0cbH
	DB	0cbH
	DB	0cbH
	DB	031H
	DB	031H
	DB	031H
	DB	060H
	DB	034H
	DB	0ebH
	DB	030H
	DB	0abH
	DB	053H
	DB	0b9H
	DB	04bH
	DB	01dH
	DB	077H
	DB	040H
	DB	05dH
	DB	05dH
	DB	027H
	DB	01cH
	DB	06aH
	DB	04dH
	DB	022H
	DB	06cH
	DB	057H
	DB	057H
	DB	04aH
	DB	04dH
	DB	087H
	DB	0cbH
	DB	031H
	DB	0c7H
	DB	0ccH
	DB	04bH
	DB	05fH
	DB	04aH
	DB	01eH
	DB	05eH
	DB	01H
	DB	01eH
	DB	01eH
	DB	01eH
	DB	08H
	DB	05aH
	DB	05aH
	DB	05aH
	DB	08H
	DB	0dH
	DB	080H
	DB	04eH
	DB	0c3H
	DB	0b3H
	DB	04H
	DB	04H
	DB	04H
	DB	04H
	DB	0b5H
	DB	099H
	DB	020H
	DB	00H
	DB	00H
	DB	00H
	DB	00H
	DB	00H
	DB	00H
	DB	00H
	DB	00H
	DB	00H
	DB	00H
	DB	00H
	DB	00H
	DB	00H
	DB	00H
	DB	00H
	DB	00H
	DB	00H
	DB	00H
	DB	00H
	DB	00H
	DB	00H
	DB	00H
	DB	00H
	DB	00H
	DB	00H
	DB	00H
	DB	00H
	DB	00H
	DB	00H
	DB	00H
	DB	00H
	DB	00H
	DB	0d2H
	DB	05H
	DB	0c4H
	DB	096H
	DB	04H
	DB	04H
	DB	04H
	DB	04H
	DB	04H
	DB	04H
	DB	04H
	DB	04H
	DB	04H
	DB	04H
	DB	07bH
	DB	01bH
	DB	082H
	DB	070H
	DB	051H
	DB	07H
	DB	07H
	DB	07H
	DB	07H
	DB	07H
	DB	051H
	DB	055H
	DB	047H
	DB	0aH
	DB	04H
	DB	04H
	DB	04H
	DB	04H
	DB	05H
	DB	0d6H
	DB	02bH
	DB	07H
	DB	07H
	DB	07H
	DB	07H
	DB	07H
	DB	07H
	DB	07H
	DB	051H
	DB	0d8H
	DB	047H
	DB	0aH
	DB	04H
	DB	04H
	DB	04H
	DB	04H
	DB	07bH
	DB	058H
	DB	055H
	DB	051H
	DB	07H
	DB	07H
	DB	07H
	DB	051H
	DB	03bH
	DB	00H
	DB	03H
	DB	01eH
	DB	0aH
	DB	04H
	DB	04H
	DB	04H
	DB	04H
	DB	04H
	DB	04H
	DB	04H
	DB	04H
	DB	04H
	DB	04H
	DB	04H
	DB	04H
	DB	04H
	DB	04H
	DB	04H
	DB	04H
	DB	04H
	DB	04H
	DB	04H
	DB	04H
	DB	04H
	DB	04H
	DB	04H
	DB	04H
	DB	096H
	DB	04H
	DB	047H
	DB	05bH
	DB	051H
	DB	051H
	DB	051H
	DB	051H
	DB	051H
	DB	051H
	DB	037H
	DB	044H
	DB	08H
	DB	0aH
	DB	04H
	DB	0b3H
	DB	063H
	DB	0bfH
	DB	043H
	DB	070H
	DB	051H
	DB	07H
	DB	07H
	DB	051H
	DB	056H
	DB	024H
	DB	020H
	DB	0aH
	DB	063H
	DB	04H
	DB	04H
	DB	04H
	DB	096H
	DB	095H
	DB	0bH
	DB	03bH
	DB	051H
	DB	051H
	DB	051H
	DB	051H
	DB	051H
	DB	051H
	DB	03eH
	DB	02fH
	DB	08aH
	DB	0aH
	DB	04H
	DB	04H
	DB	04H
	DB	04H
	DB	04H
	DB	04H
	DB	04H
	DB	04H
	DB	04H
	DB	04H
	DB	04H
	DB	04H
	DB	04H
	DB	04H
	DB	04H
	DB	04H
	DB	04H
	DB	04H
	DB	04H
	DB	04H
	DB	04H
	DB	04H
	DB	04H
	DB	04H
	DB	04H
	DB	04H
	DB	04H
	DB	04H
	DB	04H
	DB	04H
	DB	04H
	DB	04H
	DB	04H
	DB	04H
	DB	04H
	DB	04H
	DB	04H
	DB	04H
	DB	04H
	DB	04H
	DB	04H
	DB	04H
	DB	04H
	DB	04H
	DB	04H
	DB	04H
	DB	04H
	DB	04H
	DB	04H
	DB	04H
	DB	04H
	DB	04H
	DB	04H
	DB	04H
	DB	04H
	DB	04H
	DB	04H
	DB	04H
	DB	04H
	DB	04H
	DB	04H
	DB	04H
	DB	04H
	DB	04H
	DB	04H
	DB	04H
	DB	04H
	DB	04H
	DB	04H
	DB	04H
	DB	04H
	DB	04H
	DB	04H
	DB	04H
	DB	04H
	DB	04H
	DB	04H
	DB	04H
	DB	04H
	DB	04H
	DB	04H
	DB	04H
	DB	04H
	DB	04H
	DB	04H
	DB	04H
	DB	04H
	DB	04H
	DB	04H
	DB	04H
	DB	04H
	DB	04H
	DB	04H
	DB	04H
	DB	04H
	DB	04H
	DB	04H
	DB	04H
	DB	04H
	DB	04H
	DB	04H
	DB	04H
	DB	04H
	DB	04H
	DB	04H
	DB	04H
	DB	04H
	DB	04H
	DB	04H
	DB	04H
	DB	04H
	DB	04H
	DB	04H
	DB	04H
	DB	04H
	DB	04H
	DB	095H
	DB	05H
	DB	031H
	DB	03cH
	DB	028H
	DB	0f9H
	DB	03cH
	DB	028H
	DB	06eH
	DB	0beH
	DB	0eH
	DB	0eH
	DB	016H
	DB	0fdH
	DB	0fdH
	DB	0eH
	DB	0a6H
	DB	0cfH
	DB	021H
	DB	090H
	DB	0eH
	DB	0eH
	DB	0eH
	DB	0beH
	DB	0beH
	DB	0beH
	DB	021H
	DB	03cH
	DB	028H
	DB	028H
	DB	03cH
	DB	0eH
	DB	021H
	DB	0eH
	DB	090H
	DB	016H
	DB	0eH
	DB	0d1H
	DB	0faH
	DB	028H
	DB	028H
	DB	0f9H
	DB	028H
	DB	0fbH
	DB	0fbH
	DB	0fbH
	DB	021H
	DB	06eH
	DB	0beH
	DB	0c7H
	DB	08H
	DB	01bH
	DB	01H
	DB	01bH
	DB	08H
	DB	08H
	DB	01eH
	DB	08H
	DB	01bH
	DB	057H
	DB	05H
	DB	059H
	DB	031H
	DB	029H
	DB	0a5H
	DB	01dH
	DB	0cH
	DB	0b9H
	DB	0cbH
	DB	031H
	DB	031H
	DB	031H
	DB	0c9H
	DB	060H
	DB	034H
	DB	034H
	DB	0ebH
	DB	08dH
	DB	059H
	DB	030H
	DB	0eaH
	DB	053H
	DB	0b9H
	DB	04bH
	DB	01dH
	DB	077H
	DB	040H
	DB	0fH
	DB	0e1H
	DB	01cH
	DB	06aH
	DB	06aH
	DB	04dH
	DB	04dH
	DB	022H
	DB	057H
	DB	057H
	DB	05H
	DB	067H
	DB	04aH
	DB	04aH
	DB	036H
	DB	04dH
	DB	0c8H
	DB	09fH
	DB	04H
	DB	05aH
	DB	0aH
	DB	05eH
	DB	05eH
	DB	01eH
	DB	05eH
	DB	01eH
	DB	08H
	DB	08H
	DB	05aH
	DB	05aH
	DB	010H
	DB	010H
	DB	010H
	DB	02H
	DB	010H
	DB	03H
	DB	0bH
	DB	032H
	DB	023H
	DB	07bH
	DB	04H
	DB	04H
	DB	04H
	DB	04H
	DB	0b5H
	DB	099H
	DB	020H
	DB	00H
	DB	00H
	DB	00H
	DB	00H
	DB	00H
	DB	00H
	DB	00H
	DB	00H
	DB	00H
	DB	00H
	DB	00H
	DB	00H
	DB	00H
	DB	00H
	DB	00H
	DB	00H
	DB	00H
	DB	00H
	DB	00H
	DB	00H
	DB	00H
	DB	00H
	DB	00H
	DB	00H
	DB	00H
	DB	00H
	DB	00H
	DB	00H
	DB	00H
	DB	00H
	DB	00H
	DB	00H
	DB	0d2H
	DB	05H
	DB	0c4H
	DB	096H
	DB	04H
	DB	04H
	DB	04H
	DB	04H
	DB	04H
	DB	04H
	DB	04H
	DB	04H
	DB	04H
	DB	04H
	DB	096H
	DB	04H
	DB	042H
	DB	037H
	DB	051H
	DB	07H
	DB	07H
	DB	07H
	DB	07H
	DB	07H
	DB	051H
	DB	037H
	DB	044H
	DB	069H
	DB	095H
	DB	04H
	DB	04H
	DB	04H
	DB	085H
	DB	02fH
	DB	0c2H
	DB	051H
	DB	07H
	DB	07H
	DB	07H
	DB	07H
	DB	07H
	DB	07H
	DB	051H
	DB	068H
	DB	03fH
	DB	069H
	DB	095H
	DB	04H
	DB	04H
	DB	096H
	DB	096H
	DB	042H
	DB	037H
	DB	051H
	DB	07H
	DB	07H
	DB	07H
	DB	051H
	DB	066H
	DB	03fH
	DB	07aH
	DB	08aH
	DB	0c3H
	DB	04H
	DB	04H
	DB	04H
	DB	04H
	DB	04H
	DB	04H
	DB	096H
	DB	096H
	DB	0b3H
	DB	0b3H
	DB	07bH
	DB	07bH
	DB	07bH
	DB	0b3H
	DB	096H
	DB	096H
	DB	04H
	DB	04H
	DB	04H
	DB	04H
	DB	04H
	DB	04H
	DB	04H
	DB	04H
	DB	096H
	DB	0b3H
	DB	041H
	DB	03eH
	DB	070H
	DB	06fH
	DB	06fH
	DB	06fH
	DB	06fH
	DB	070H
	DB	066H
	DB	044H
	DB	091H
	DB	0aH
	DB	04H
	DB	05H
	DB	064H
	DB	054H
	DB	026H
	DB	051H
	DB	07H
	DB	07H
	DB	07H
	DB	051H
	DB	056H
	DB	024H
	DB	058H
	DB	01bH
	DB	063H
	DB	096H
	DB	04H
	DB	04H
	DB	096H
	DB	063H
	DB	0bH
	DB	05bH
	DB	070H
	DB	06fH
	DB	06fH
	DB	06fH
	DB	06fH
	DB	06fH
	DB	055H
	DB	02fH
	DB	01eH
	DB	0aH
	DB	04H
	DB	04H
	DB	04H
	DB	096H
	DB	096H
	DB	096H
	DB	096H
	DB	096H
	DB	096H
	DB	04H
	DB	04H
	DB	04H
	DB	04H
	DB	04H
	DB	04H
	DB	096H
	DB	0b3H
	DB	07bH
	DB	07bH
	DB	0b3H
	DB	096H
	DB	096H
	DB	04H
	DB	04H
	DB	04H
	DB	04H
	DB	04H
	DB	04H
	DB	04H
	DB	04H
	DB	04H
	DB	04H
	DB	04H
	DB	04H
	DB	04H
	DB	04H
	DB	04H
	DB	096H
	DB	0b3H
	DB	0b3H
	DB	07bH
	DB	07bH
	DB	0b3H
	DB	096H
	DB	04H
	DB	04H
	DB	04H
	DB	096H
	DB	096H
	DB	096H
	DB	096H
	DB	096H
	DB	096H
	DB	096H
	DB	04H
	DB	04H
	DB	04H
	DB	04H
	DB	04H
	DB	04H
	DB	04H
	DB	04H
	DB	04H
	DB	04H
	DB	04H
	DB	04H
	DB	04H
	DB	04H
	DB	04H
	DB	04H
	DB	04H
	DB	04H
	DB	04H
	DB	04H
	DB	04H
	DB	04H
	DB	04H
	DB	04H
	DB	04H
	DB	04H
	DB	04H
	DB	04H
	DB	04H
	DB	04H
	DB	04H
	DB	04H
	DB	04H
	DB	04H
	DB	04H
	DB	04H
	DB	04H
	DB	04H
	DB	04H
	DB	04H
	DB	04H
	DB	04H
	DB	04H
	DB	04H
	DB	04H
	DB	04H
	DB	04H
	DB	04H
	DB	04H
	DB	04H
	DB	04H
	DB	04H
	DB	04H
	DB	04H
	DB	04H
	DB	04H
	DB	04H
	DB	04H
	DB	04H
	DB	04H
	DB	04H
	DB	063H
	DB	022H
	DB	02eH
	DB	0fbH
	DB	028H
	DB	0f9H
	DB	028H
	DB	028H
	DB	0fbH
	DB	021H
	DB	0beH
	DB	0eH
	DB	0eH
	DB	016H
	DB	016H
	DB	016H
	DB	016H
	DB	016H
	DB	0d1H
	DB	08fH
	DB	0f2H
	DB	0beH
	DB	0eH
	DB	0beH
	DB	021H
	DB	021H
	DB	021H
	DB	021H
	DB	021H
	DB	02dH
	DB	03cH
	DB	0fbH
	DB	03cH
	DB	0fcH
	DB	0beH
	DB	021H
	DB	028H
	DB	028H
	DB	028H
	DB	0faH
	DB	0fbH
	DB	021H
	DB	021H
	DB	021H
	DB	021H
	DB	0beH
	DB	06eH
	DB	046H
	DB	028H
	DB	06eH
	DB	049H
	DB	01eH
	DB	08H
	DB	05eH
	DB	05eH
	DB	02H
	DB	08H
	DB	01eH
	DB	05aH
	DB	063H
	DB	04aH
	DB	0eaH
	DB	0ccH
	DB	031H
	DB	034H
	DB	060H
	DB	0fH
	DB	09H
	DB	0e1H
	DB	060H
	DB	0ebH
	DB	059H
	DB	059H
	DB	059H
	DB	030H
	DB	0abH
	DB	053H
	DB	014H
	DB	0b9H
	DB	073H
	DB	04bH
	DB	01dH
	DB	040H
	DB	040H
	DB	0e1H
	DB	027H
	DB	01cH
	DB	06aH
	DB	06aH
	DB	04dH
	DB	022H
	DB	06cH
	DB	057H
	DB	057H
	DB	05H
	DB	04aH
	DB	04aH
	DB	04H
	DB	063H
	DB	036H
	DB	036H
	DB	0aH
	DB	0aH
	DB	05fH
	DB	01H
	DB	05eH
	DB	01H
	DB	01bH
	DB	01eH
	DB	01eH
	DB	01eH
	DB	01eH
	DB	08H
	DB	08H
	DB	05aH
	DB	010H
	DB	010H
	DB	02H
	DB	02H
	DB	02H
	DB	02H
	DB	02H
	DB	02H
	DB	020H
	DB	032H
	DB	0bH
	DB	01H
	DB	07bH
	DB	04H
	DB	04H
	DB	04H
	DB	04H
	DB	0b5H
	DB	099H
	DB	020H
	DB	00H
	DB	00H
	DB	00H
	DB	00H
	DB	00H
	DB	00H
	DB	00H
	DB	00H
	DB	00H
	DB	00H
	DB	00H
	DB	00H
	DB	00H
	DB	00H
	DB	00H
	DB	00H
	DB	00H
	DB	00H
	DB	00H
	DB	00H
	DB	00H
	DB	00H
	DB	00H
	DB	00H
	DB	00H
	DB	00H
	DB	00H
	DB	00H
	DB	00H
	DB	00H
	DB	00H
	DB	00H
	DB	0d2H
	DB	05H
	DB	0c4H
	DB	04H
	DB	04H
	DB	04H
	DB	04H
	DB	04H
	DB	04H
	DB	04H
	DB	04H
	DB	04H
	DB	04H
	DB	04H
	DB	04H
	DB	05H
	DB	04cH
	DB	071H
	DB	07H
	DB	07H
	DB	07H
	DB	07H
	DB	07H
	DB	07H
	DB	051H
	DB	056H
	DB	00H
	DB	02H
	DB	0c3H
	DB	04H
	DB	04H
	DB	0b3H
	DB	0aH
	DB	03fH
	DB	06fH
	DB	051H
	DB	07H
	DB	07H
	DB	07H
	DB	07H
	DB	07H
	DB	07H
	DB	07H
	DB	038H
	DB	024H
	DB	03H
	DB	0c3H
	DB	04H
	DB	04H
	DB	0b3H
	DB	023H
	DB	080H
	DB	070H
	DB	051H
	DB	07H
	DB	07H
	DB	07H
	DB	07H
	DB	043H
	DB	02fH
	DB	02H
	DB	01H
	DB	095H
	DB	04H
	DB	04H
	DB	04H
	DB	096H
	DB	05H
	DB	05H
	DB	04H
	DB	095H
	DB	0c3H
	DB	01H
	DB	01eH
	DB	069H
	DB	069H
	DB	0aH
	DB	063H
	DB	04H
	DB	05H
	DB	096H
	DB	04H
	DB	04H
	DB	04H
	DB	04H
	DB	04H
	DB	04H
	DB	04H
	DB	07bH
	DB	01H
	DB	042H
	DB	00H
	DB	00H
	DB	00H
	DB	00H
	DB	00H
	DB	00H
	DB	03fH
	DB	0dH
	DB	08H
	DB	0aH
	DB	04H
	DB	07bH
	DB	010H
	DB	054H
	DB	026H
	DB	07H
	DB	07H
	DB	07H
	DB	07H
	DB	051H
	DB	056H
	DB	024H
	DB	011H
	DB	01H
	DB	095H
	DB	04H
	DB	07bH
	DB	096H
	DB	04H
	DB	07bH
	DB	08H
	DB	03fH
	DB	00H
	DB	00H
	DB	00H
	DB	00H
	DB	00H
	DB	00H
	DB	0bH
	DB	0a8H
	DB	01eH
	DB	0aH
	DB	04H
	DB	04H
	DB	07bH
	DB	04H
	DB	04H
	DB	04H
	DB	04H
	DB	04H
	DB	04H
	DB	0b3H
	DB	0b3H
	DB	04H
	DB	04H
	DB	05H
	DB	0b3H
	DB	063H
	DB	0aH
	DB	069H
	DB	01eH
	DB	01bH
	DB	095H
	DB	096H
	DB	05H
	DB	04H
	DB	04H
	DB	04H
	DB	04H
	DB	04H
	DB	04H
	DB	04H
	DB	04H
	DB	04H
	DB	04H
	DB	04H
	DB	04H
	DB	0b3H
	DB	05H
	DB	04H
	DB	095H
	DB	01H
	DB	01eH
	DB	01H
	DB	0aH
	DB	04H
	DB	05H
	DB	096H
	DB	0b3H
	DB	04H
	DB	04H
	DB	04H
	DB	04H
	DB	04H
	DB	04H
	DB	04H
	DB	07bH
	DB	04H
	DB	04H
	DB	04H
	DB	04H
	DB	04H
	DB	04H
	DB	04H
	DB	04H
	DB	04H
	DB	04H
	DB	04H
	DB	04H
	DB	04H
	DB	04H
	DB	04H
	DB	04H
	DB	04H
	DB	04H
	DB	04H
	DB	04H
	DB	04H
	DB	04H
	DB	04H
	DB	04H
	DB	04H
	DB	04H
	DB	04H
	DB	04H
	DB	04H
	DB	04H
	DB	04H
	DB	04H
	DB	04H
	DB	04H
	DB	04H
	DB	04H
	DB	04H
	DB	04H
	DB	04H
	DB	04H
	DB	04H
	DB	04H
	DB	04H
	DB	04H
	DB	04H
	DB	04H
	DB	04H
	DB	04H
	DB	04H
	DB	04H
	DB	04H
	DB	04H
	DB	04H
	DB	04H
	DB	04H
	DB	04H
	DB	04H
	DB	04H
	DB	04H
	DB	095H
	DB	01cH
	DB	02cH
	DB	021H
	DB	046H
	DB	06eH
	DB	046H
	DB	046H
	DB	046H
	DB	046H
	DB	021H
	DB	0beH
	DB	0eH
	DB	0eH
	DB	016H
	DB	016H
	DB	0eH
	DB	0eH
	DB	0beH
	DB	0beH
	DB	019H
	DB	065H
	DB	0cbH
	DB	065H
	DB	0beH
	DB	06eH
	DB	0fbH
	DB	0fbH
	DB	0fbH
	DB	0fbH
	DB	021H
	DB	02dH
	DB	03aH
	DB	021H
	DB	0faH
	DB	028H
	DB	046H
	DB	06eH
	DB	021H
	DB	021H
	DB	021H
	DB	021H
	DB	021H
	DB	0fbH
	DB	028H
	DB	03aH
	DB	05cH
	DB	03aH
	DB	06eH
	DB	028H
	DB	028H
	DB	046H
	DB	099H
	DB	03H
	DB	08H
	DB	05aH
	DB	02H
	DB	05aH
	DB	08H
	DB	010H
	DB	067H
	DB	063H
	DB	059H
	DB	034H
	DB	030H
	DB	0eaH
	DB	030H
	DB	0fH
	DB	09H
	DB	067H
	DB	0eaH
	DB	014H
	DB	0b9H
	DB	0b9H
	DB	073H
	DB	04bH
	DB	01dH
	DB	077H
	DB	040H
	DB	040H
	DB	05dH
	DB	027H
	DB	027H
	DB	01cH
	DB	06aH
	DB	04dH
	DB	04dH
	DB	022H
	DB	06cH
	DB	057H
	DB	05H
	DB	067H
	DB	04aH
	DB	04aH
	DB	04H
	DB	063H
	DB	036H
	DB	036H
	DB	0aH
	DB	0aH
	DB	05fH
	DB	01bH
	DB	01bH
	DB	01H
	DB	01H
	DB	05eH
	DB	05eH
	DB	01eH
	DB	01eH
	DB	08H
	DB	08H
	DB	05aH
	DB	010H
	DB	010H
	DB	010H
	DB	02H
	DB	02H
	DB	02H
	DB	033H
	DB	033H
	DB	033H
	DB	033H
	DB	020H
	DB	020H
	DB	020H
	DB	09H
	DB	0bH
	DB	01H
	DB	07bH
	DB	04H
	DB	04H
	DB	04H
	DB	04H
	DB	0b5H
	DB	099H
	DB	020H
	DB	00H
	DB	00H
	DB	00H
	DB	00H
	DB	00H
	DB	00H
	DB	00H
	DB	00H
	DB	00H
	DB	00H
	DB	00H
	DB	00H
	DB	00H
	DB	00H
	DB	00H
	DB	00H
	DB	00H
	DB	00H
	DB	00H
	DB	00H
	DB	00H
	DB	00H
	DB	00H
	DB	00H
	DB	00H
	DB	00H
	DB	00H
	DB	00H
	DB	00H
	DB	00H
	DB	00H
	DB	00H
	DB	0d2H
	DB	05H
	DB	0c4H
	DB	04H
	DB	04H
	DB	04H
	DB	04H
	DB	04H
	DB	04H
	DB	04H
	DB	04H
	DB	04H
	DB	04H
	DB	04H
	DB	04H
	DB	0b3H
	DB	08H
	DB	024H
	DB	026H
	DB	07H
	DB	07H
	DB	07H
	DB	07H
	DB	07H
	DB	07H
	DB	026H
	DB	043H
	DB	04cH
	DB	0aH
	DB	04H
	DB	04H
	DB	05H
	DB	04fH
	DB	02bH
	DB	026H
	DB	07H
	DB	07H
	DB	07H
	DB	07H
	DB	07H
	DB	07H
	DB	07H
	DB	07H
	DB	07H
	DB	071H
	DB	02fH
	DB	0aH
	DB	04H
	DB	04H
	DB	07bH
	DB	02H
	DB	02bH
	DB	026H
	DB	07H
	DB	07H
	DB	07H
	DB	051H
	DB	056H
	DB	082H
	DB	0cH
	DB	064H
	DB	023H
	DB	063H
	DB	04H
	DB	07bH
	DB	0b3H
	DB	0aH
	DB	010H
	DB	04cH
	DB	02fH
	DB	044H
	DB	00H
	DB	03dH
	DB	024H
	DB	024H
	DB	024H
	DB	00H
	DB	044H
	DB	041H
	DB	04fH
	DB	095H
	DB	07bH
	DB	04H
	DB	04H
	DB	04H
	DB	04H
	DB	04H
	DB	04H
	DB	096H
	DB	094H
	DB	0cH
	DB	042H
	DB	044H
	DB	044H
	DB	03fH
	DB	03fH
	DB	03fH
	DB	042H
	DB	020H
	DB	01H
	DB	01H
	DB	041H
	DB	047H
	DB	042H
	DB	054H
	DB	026H
	DB	07H
	DB	07H
	DB	07H
	DB	07H
	DB	051H
	DB	056H
	DB	03dH
	DB	044H
	DB	042H
	DB	02fH
	DB	047H
	DB	011H
	DB	095H
	DB	04H
	DB	0b3H
	DB	01eH
	DB	047H
	DB	042H
	DB	044H
	DB	03fH
	DB	03fH
	DB	03fH
	DB	03fH
	DB	09H
	DB	02H
	DB	01H
	DB	036H
	DB	04H
	DB	04H
	DB	033H
	DB	047H
	DB	047H
	DB	047H
	DB	047H
	DB	047H
	DB	02fH
	DB	0dH
	DB	0aH
	DB	05H
	DB	04H
	DB	064H
	DB	04cH
	DB	042H
	DB	00H
	DB	024H
	DB	024H
	DB	03dH
	DB	03fH
	DB	041H
	DB	01eH
	DB	0b3H
	DB	04H
	DB	04H
	DB	04H
	DB	04H
	DB	04H
	DB	04H
	DB	04H
	DB	04H
	DB	04H
	DB	04H
	DB	07bH
	DB	01bH
	DB	058H
	DB	02fH
	DB	03fH
	DB	03dH
	DB	024H
	DB	024H
	DB	00H
	DB	02fH
	DB	0d6H
	DB	04H
	DB	02H
	DB	047H
	DB	047H
	DB	047H
	DB	047H
	DB	047H
	DB	02fH
	DB	041H
	DB	01eH
	DB	0b3H
	DB	04H
	DB	04H
	DB	04H
	DB	04H
	DB	04H
	DB	04H
	DB	04H
	DB	04H
	DB	04H
	DB	04H
	DB	04H
	DB	04H
	DB	04H
	DB	04H
	DB	04H
	DB	04H
	DB	04H
	DB	04H
	DB	04H
	DB	04H
	DB	04H
	DB	04H
	DB	04H
	DB	04H
	DB	04H
	DB	04H
	DB	04H
	DB	04H
	DB	04H
	DB	04H
	DB	04H
	DB	04H
	DB	04H
	DB	04H
	DB	04H
	DB	04H
	DB	04H
	DB	04H
	DB	04H
	DB	04H
	DB	04H
	DB	04H
	DB	04H
	DB	04H
	DB	04H
	DB	04H
	DB	04H
	DB	04H
	DB	04H
	DB	04H
	DB	04H
	DB	04H
	DB	04H
	DB	04H
	DB	04H
	DB	04H
	DB	04H
	DB	095H
	DB	0b5H
	DB	035H
	DB	0beH
	DB	021H
	DB	021H
	DB	02dH
	DB	049H
	DB	035H
	DB	052H
	DB	078H
	DB	02eH
	DB	0cdH
	DB	02cH
	DB	0f9H
	DB	0beH
	DB	0eH
	DB	0eH
	DB	0beH
	DB	0beH
	DB	06eH
	DB	0f9H
	DB	046H
	DB	03cH
	DB	0c9H
	DB	052H
	DB	0beH
	DB	0fbH
	DB	046H
	DB	0fbH
	DB	0fbH
	DB	021H
	DB	0beH
	DB	02dH
	DB	049H
	DB	021H
	DB	021H
	DB	06eH
	DB	021H
	DB	021H
	DB	0fbH
	DB	0beH
	DB	0f9H
	DB	0cdH
	DB	0cbH
	DB	029H
	DB	060H
	DB	0eaH
	DB	060H
	DB	03aH
	DB	028H
	DB	03cH
	DB	0f9H
	DB	029H
	DB	07aH
	DB	010H
	DB	033H
	DB	010H
	DB	010H
	DB	010H
	DB	05aH
	DB	063H
	DB	04aH
	DB	059H
	DB	0eaH
	DB	053H
	DB	0b9H
	DB	0b9H
	DB	0e1H
	DB	032H
	DB	01bH
	DB	04bH
	DB	040H
	DB	040H
	DB	040H
	DB	0fH
	DB	05dH
	DB	0e1H
	DB	027H
	DB	01cH
	DB	06aH
	DB	06aH
	DB	04dH
	DB	04dH
	DB	022H
	DB	06cH
	DB	057H
	DB	05H
	DB	067H
	DB	04aH
	DB	04aH
	DB	063H
	DB	063H
	DB	036H
	DB	036H
	DB	0aH
	DB	05fH
	DB	05fH
	DB	01bH
	DB	01bH
	DB	01H
	DB	01H
	DB	05eH
	DB	05eH
	DB	05eH
	DB	01eH
	DB	01eH
	DB	08H
	DB	05aH
	DB	05aH
	DB	010H
	DB	010H
	DB	02H
	DB	010H
	DB	010H
	DB	02H
	DB	02H
	DB	033H
	DB	033H
	DB	020H
	DB	020H
	DB	020H
	DB	020H
	DB	03H
	DB	03H
	DB	07aH
	DB	09H
	DB	0bH
	DB	069H
	DB	0b3H
	DB	04H
	DB	04H
	DB	04H
	DB	04H
	DB	0b5H
	DB	099H
	DB	020H
	DB	00H
	DB	00H
	DB	00H
	DB	00H
	DB	00H
	DB	00H
	DB	00H
	DB	00H
	DB	00H
	DB	00H
	DB	00H
	DB	00H
	DB	00H
	DB	00H
	DB	00H
	DB	00H
	DB	00H
	DB	00H
	DB	00H
	DB	00H
	DB	00H
	DB	00H
	DB	00H
	DB	00H
	DB	00H
	DB	00H
	DB	00H
	DB	00H
	DB	00H
	DB	00H
	DB	00H
	DB	00H
	DB	0d2H
	DB	05H
	DB	0c4H
	DB	04H
	DB	04H
	DB	04H
	DB	04H
	DB	04H
	DB	04H
	DB	04H
	DB	04H
	DB	04H
	DB	04H
	DB	04H
	DB	04H
	DB	096H
	DB	0aH
	DB	03fH
	DB	050H
	DB	051H
	DB	07H
	DB	07H
	DB	07H
	DB	07H
	DB	07H
	DB	051H
	DB	066H
	DB	042H
	DB	01bH
	DB	095H
	DB	04H
	DB	096H
	DB	041H
	DB	066H
	DB	051H
	DB	07H
	DB	07H
	DB	07H
	DB	07H
	DB	07H
	DB	07H
	DB	07H
	DB	07H
	DB	051H
	DB	086H
	DB	03fH
	DB	069H
	DB	095H
	DB	04H
	DB	05H
	DB	04cH
	DB	0d8H
	DB	051H
	DB	07H
	DB	07H
	DB	07H
	DB	051H
	DB	068H
	DB	00H
	DB	03H
	DB	08H
	DB	0aH
	DB	04H
	DB	04H
	DB	010H
	DB	047H
	DB	0d2H
	DB	054H
	DB	055H
	DB	037H
	DB	03bH
	DB	056H
	DB	038H
	DB	038H
	DB	038H
	DB	038H
	DB	056H
	DB	03bH
	DB	07eH
	DB	054H
	DB	044H
	DB	04fH
	DB	0b3H
	DB	04H
	DB	04H
	DB	04H
	DB	04H
	DB	04H
	DB	0b3H
	DB	0cH
	DB	043H
	DB	037H
	DB	037H
	DB	037H
	DB	037H
	DB	037H
	DB	037H
	DB	055H
	DB	041H
	DB	036H
	DB	041H
	DB	055H
	DB	037H
	DB	05bH
	DB	086H
	DB	07H
	DB	07H
	DB	07H
	DB	07H
	DB	07H
	DB	07H
	DB	026H
	DB	037H
	DB	05bH
	DB	037H
	DB	037H
	DB	037H
	DB	054H
	DB	04fH
	DB	07bH
	DB	04H
	DB	032H
	DB	03eH
	DB	037H
	DB	037H
	DB	037H
	DB	037H
	DB	037H
	DB	037H
	DB	02bH
	DB	011H
	DB	0aH
	DB	095H
	DB	096H
	DB	069H
	DB	024H
	DB	072H
	DB	037H
	DB	05bH
	DB	05bH
	DB	05bH
	DB	037H
	DB	054H
	DB	0d6H
	DB	069H
	DB	042H
	DB	024H
	DB	03eH
	DB	068H
	DB	056H
	DB	038H
	DB	038H
	DB	038H
	DB	050H
	DB	03eH
	DB	03dH
	DB	011H
	DB	04H
	DB	04H
	DB	04H
	DB	04H
	DB	04H
	DB	04H
	DB	04H
	DB	04H
	DB	096H
	DB	04H
	DB	058H
	DB	0d2H
	DB	043H
	DB	037H
	DB	070H
	DB	038H
	DB	038H
	DB	038H
	DB	070H
	DB	05bH
	DB	054H
	DB	042H
	DB	082H
	DB	0c2H
	DB	037H
	DB	05bH
	DB	05bH
	DB	05bH
	DB	037H
	DB	03eH
	DB	0bH
	DB	063H
	DB	04H
	DB	04H
	DB	04H
	DB	04H
	DB	04H
	DB	04H
	DB	04H
	DB	04H
	DB	04H
	DB	04H
	DB	04H
	DB	04H
	DB	04H
	DB	04H
	DB	04H
	DB	04H
	DB	04H
	DB	04H
	DB	04H
	DB	04H
	DB	04H
	DB	04H
	DB	04H
	DB	04H
	DB	04H
	DB	04H
	DB	04H
	DB	04H
	DB	04H
	DB	04H
	DB	04H
	DB	04H
	DB	04H
	DB	04H
	DB	04H
	DB	04H
	DB	04H
	DB	04H
	DB	04H
	DB	04H
	DB	04H
	DB	04H
	DB	04H
	DB	04H
	DB	04H
	DB	04H
	DB	04H
	DB	04H
	DB	04H
	DB	04H
	DB	04H
	DB	04H
	DB	04H
	DB	04H
	DB	04H
	DB	04H
	DB	04H
	DB	04H
	DB	05cH
	DB	0beH
	DB	0beH
	DB	02dH
	DB	02aH
	DB	031H
	DB	030H
	DB	01dH
	DB	0e1H
	DB	0e1H
	DB	0fH
	DB	040H
	DB	0b7H
	DB	04bH
	DB	08dH
	DB	052H
	DB	06eH
	DB	0beH
	DB	06eH
	DB	028H
	DB	03cH
	DB	065H
	DB	065H
	DB	028H
	DB	0c9H
	DB	02aH
	DB	019H
	DB	06eH
	DB	021H
	DB	021H
	DB	021H
	DB	021H
	DB	0beH
	DB	02dH
	DB	06dH
	DB	06eH
	DB	046H
	DB	049H
	DB	0a5H
	DB	02eH
	DB	088H
	DB	031H
	DB	014H
	DB	029H
	DB	049H
	DB	034H
	DB	062H
	DB	0eaH
	DB	0f1H
	DB	028H
	DB	02dH
	DB	065H
	DB	06dH
	DB	01bH
	DB	045H
	DB	03H
	DB	02H
	DB	02H
	DB	033H
	DB	08H
	DB	05fH
	DB	06cH
	DB	053H
	DB	04bH
	DB	077H
	DB	040H
	DB	040H
	DB	06aH
	DB	09H
	DB	010H
	DB	01cH
	DB	01cH
	DB	06aH
	DB	06aH
	DB	06aH
	DB	06aH
	DB	04dH
	DB	022H
	DB	06cH
	DB	057H
	DB	057H
	DB	057H
	DB	05H
	DB	067H
	DB	04aH
	DB	04H
	DB	063H
	DB	063H
	DB	036H
	DB	036H
	DB	0aH
	DB	05fH
	DB	05fH
	DB	01bH
	DB	01bH
	DB	01bH
	DB	01H
	DB	01H
	DB	05eH
	DB	05eH
	DB	01eH
	DB	01eH
	DB	08H
	DB	08H
	DB	08H
	DB	05aH
	DB	05aH
	DB	010H
	DB	010H
	DB	010H
	DB	02H
	DB	033H
	DB	033H
	DB	033H
	DB	020H
	DB	020H
	DB	020H
	DB	020H
	DB	03H
	DB	03H
	DB	03H
	DB	03H
	DB	03H
	DB	03H
	DB	03H
	DB	039H
	DB	0bH
	DB	01H
	DB	0b3H
	DB	04H
	DB	04H
	DB	04H
	DB	04H
	DB	0b5H
	DB	099H
	DB	020H
	DB	00H
	DB	00H
	DB	00H
	DB	00H
	DB	00H
	DB	00H
	DB	00H
	DB	00H
	DB	00H
	DB	00H
	DB	00H
	DB	00H
	DB	00H
	DB	00H
	DB	00H
	DB	00H
	DB	00H
	DB	00H
	DB	00H
	DB	00H
	DB	00H
	DB	00H
	DB	00H
	DB	00H
	DB	00H
	DB	00H
	DB	00H
	DB	00H
	DB	00H
	DB	00H
	DB	00H
	DB	00H
	DB	0d2H
	DB	05H
	DB	0c4H
	DB	04H
	DB	04H
	DB	04H
	DB	04H
	DB	04H
	DB	04H
	DB	04H
	DB	04H
	DB	04H
	DB	04H
	DB	04H
	DB	04H
	DB	04H
	DB	04H
	DB	047H
	DB	07eH
	DB	051H
	DB	07H
	DB	07H
	DB	07H
	DB	07H
	DB	07H
	DB	051H
	DB	068H
	DB	0d2H
	DB	08H
	DB	0c3H
	DB	04H
	DB	0aH
	DB	0d2H
	DB	03bH
	DB	051H
	DB	07H
	DB	07H
	DB	07H
	DB	07H
	DB	07H
	DB	07H
	DB	07H
	DB	07H
	DB	07H
	DB	038H
	DB	03dH
	DB	020H
	DB	0c3H
	DB	04H
	DB	063H
	DB	02fH
	DB	037H
	DB	051H
	DB	07H
	DB	07H
	DB	07H
	DB	07H
	DB	03eH
	DB	044H
	DB	098H
	DB	08aH
	DB	0c3H
	DB	07bH
	DB	010H
	DB	03dH
	DB	07eH
	DB	050H
	DB	026H
	DB	051H
	DB	051H
	DB	051H
	DB	051H
	DB	051H
	DB	07H
	DB	07H
	DB	07H
	DB	051H
	DB	051H
	DB	051H
	DB	026H
	DB	037H
	DB	03dH
	DB	011H
	DB	096H
	DB	04H
	DB	04H
	DB	04H
	DB	04H
	DB	04H
	DB	047H
	DB	0c2H
	DB	051H
	DB	051H
	DB	051H
	DB	051H
	DB	051H
	DB	051H
	DB	037H
	DB	042H
	DB	095H
	DB	044H
	DB	086H
	DB	051H
	DB	051H
	DB	051H
	DB	07H
	DB	07H
	DB	07H
	DB	07H
	DB	07H
	DB	07H
	DB	07H
	DB	051H
	DB	051H
	DB	051H
	DB	051H
	DB	051H
	DB	03eH
	DB	04cH
	DB	04H
	DB	0aH
	DB	0bH
	DB	03bH
	DB	051H
	DB	051H
	DB	051H
	DB	051H
	DB	051H
	DB	051H
	DB	03eH
	DB	041H
	DB	095H
	DB	063H
	DB	0b3H
	DB	02H
	DB	02bH
	DB	026H
	DB	051H
	DB	051H
	DB	051H
	DB	051H
	DB	051H
	DB	066H
	DB	044H
	DB	080H
	DB	07eH
	DB	038H
	DB	051H
	DB	051H
	DB	051H
	DB	07H
	DB	07H
	DB	051H
	DB	051H
	DB	051H
	DB	050H
	DB	024H
	DB	011H
	DB	096H
	DB	04H
	DB	04H
	DB	04H
	DB	04H
	DB	04H
	DB	04H
	DB	04H
	DB	041H
	DB	054H
	DB	03bH
	DB	07H
	DB	051H
	DB	051H
	DB	051H
	DB	07H
	DB	07H
	DB	051H
	DB	051H
	DB	026H
	DB	055H
	DB	00H
	DB	07H
	DB	051H
	DB	051H
	DB	051H
	DB	051H
	DB	051H
	DB	050H
	DB	080H
	DB	01bH
	DB	04H
	DB	04H
	DB	04H
	DB	04H
	DB	04H
	DB	04H
	DB	04H
	DB	04H
	DB	04H
	DB	04H
	DB	04H
	DB	04H
	DB	04H
	DB	04H
	DB	04H
	DB	04H
	DB	04H
	DB	04H
	DB	04H
	DB	04H
	DB	04H
	DB	04H
	DB	04H
	DB	04H
	DB	04H
	DB	04H
	DB	04H
	DB	04H
	DB	04H
	DB	04H
	DB	04H
	DB	04H
	DB	04H
	DB	04H
	DB	04H
	DB	04H
	DB	04H
	DB	04H
	DB	04H
	DB	04H
	DB	04H
	DB	04H
	DB	04H
	DB	04H
	DB	04H
	DB	04H
	DB	04H
	DB	04H
	DB	04H
	DB	04H
	DB	04H
	DB	04H
	DB	04H
	DB	04H
	DB	04H
	DB	04H
	DB	095H
	DB	0c9H
	DB	0beH
	DB	021H
	DB	05cH
	DB	030H
	DB	04bH
	DB	022H
	DB	01cH
	DB	014H
	DB	0aeH
	DB	0cdH
	DB	03cH
	DB	046H
	DB	0f9H
	DB	035H
	DB	0c9H
	DB	01dH
	DB	0b9H
	DB	05cH
	DB	028H
	DB	03cH
	DB	065H
	DB	03aH
	DB	06dH
	DB	03aH
	DB	0f9H
	DB	034H
	DB	05cH
	DB	0eH
	DB	0beH
	DB	0beH
	DB	0beH
	DB	0beH
	DB	0eH
	DB	0eH
	DB	03aH
	DB	065H
	DB	021H
	DB	031H
	DB	0f1H
	DB	028H
	DB	060H
	DB	0acH
	DB	02aH
	DB	0aeH
	DB	031H
	DB	02aH
	DB	03aH
	DB	03aH
	DB	03cH
	DB	02dH
	DB	065H
	DB	03aH
	DB	03aH
	DB	0fH
	DB	025H
	DB	011H
	DB	033H
	DB	02H
	DB	020H
	DB	01eH
	DB	05eH
	DB	06aH
	DB	040H
	DB	05dH
	DB	027H
	DB	06aH
	DB	06aH
	DB	06cH
	DB	09H
	DB	03H
	DB	06cH
	DB	06cH
	DB	06cH
	DB	057H
	DB	057H
	DB	057H
	DB	05H
	DB	05H
	DB	067H
	DB	04aH
	DB	04aH
	DB	04H
	DB	063H
	DB	063H
	DB	036H
	DB	036H
	DB	0aH
	DB	05fH
	DB	05fH
	DB	01bH
	DB	01bH
	DB	01H
	DB	01H
	DB	05eH
	DB	05eH
	DB	01eH
	DB	01eH
	DB	01eH
	DB	08H
	DB	08H
	DB	08H
	DB	08H
	DB	05aH
	DB	05aH
	DB	010H
	DB	010H
	DB	02H
	DB	02H
	DB	033H
	DB	033H
	DB	033H
	DB	020H
	DB	07aH
	DB	020H
	DB	03H
	DB	03H
	DB	03H
	DB	03H
	DB	03H
	DB	045H
	DB	045H
	DB	045H
	DB	045H
	DB	045H
	DB	03H
	DB	039H
	DB	0bH
	DB	01H
	DB	0b3H
	DB	04H
	DB	04H
	DB	04H
	DB	04H
	DB	057H
	DB	099H
	DB	020H
	DB	00H
	DB	00H
	DB	00H
	DB	00H
	DB	00H
	DB	00H
	DB	00H
	DB	00H
	DB	00H
	DB	00H
	DB	00H
	DB	00H
	DB	00H
	DB	00H
	DB	00H
	DB	00H
	DB	00H
	DB	00H
	DB	00H
	DB	00H
	DB	00H
	DB	00H
	DB	00H
	DB	00H
	DB	00H
	DB	00H
	DB	00H
	DB	00H
	DB	00H
	DB	00H
	DB	00H
	DB	00H
	DB	0d2H
	DB	05H
	DB	0c4H
	DB	04H
	DB	04H
	DB	04H
	DB	04H
	DB	04H
	DB	04H
	DB	04H
	DB	04H
	DB	04H
	DB	04H
	DB	04H
	DB	04H
	DB	04H
	DB	05H
	DB	058H
	DB	043H
	DB	07H
	DB	07H
	DB	07H
	DB	07H
	DB	07H
	DB	07H
	DB	07H
	DB	038H
	DB	03dH
	DB	020H
	DB	0aH
	DB	04H
	DB	08H
	DB	024H
	DB	026H
	DB	07H
	DB	07H
	DB	07H
	DB	07H
	DB	07H
	DB	07H
	DB	07H
	DB	07H
	DB	07H
	DB	07H
	DB	07H
	DB	055H
	DB	041H
	DB	0aH
	DB	04H
	DB	023H
	DB	03fH
	DB	056H
	DB	07H
	DB	07H
	DB	07H
	DB	07H
	DB	026H
	DB	054H
	DB	041H
	DB	02H
	DB	01H
	DB	095H
	DB	07bH
	DB	04fH
	DB	054H
	DB	051H
	DB	051H
	DB	07H
	DB	07H
	DB	07H
	DB	07H
	DB	07H
	DB	07H
	DB	07H
	DB	07H
	DB	07H
	DB	07H
	DB	07H
	DB	07H
	DB	07H
	DB	051H
	DB	050H
	DB	03dH
	DB	058H
	DB	04H
	DB	04H
	DB	04H
	DB	04H
	DB	04H
	DB	047H
	DB	072H
	DB	051H
	DB	07H
	DB	07H
	DB	07H
	DB	07H
	DB	051H
	DB	05bH
	DB	042H
	DB	0aH
	DB	044H
	DB	037H
	DB	051H
	DB	07H
	DB	07H
	DB	07H
	DB	07H
	DB	07H
	DB	07H
	DB	07H
	DB	07H
	DB	07H
	DB	07H
	DB	07H
	DB	07H
	DB	07H
	DB	07H
	DB	03eH
	DB	041H
	DB	0c3H
	DB	0aH
	DB	0bH
	DB	03bH
	DB	051H
	DB	07H
	DB	07H
	DB	07H
	DB	07H
	DB	07H
	DB	03eH
	DB	041H
	DB	0aH
	DB	095H
	DB	0b3H
	DB	02H
	DB	02bH
	DB	026H
	DB	07H
	DB	07H
	DB	07H
	DB	07H
	DB	051H
	DB	05bH
	DB	03dH
	DB	050H
	DB	051H
	DB	051H
	DB	07H
	DB	07H
	DB	07H
	DB	07H
	DB	07H
	DB	07H
	DB	07H
	DB	07H
	DB	051H
	DB	03bH
	DB	00H
	DB	069H
	DB	04H
	DB	04H
	DB	04H
	DB	04H
	DB	04H
	DB	04H
	DB	041H
	DB	054H
	DB	038H
	DB	051H
	DB	07H
	DB	07H
	DB	07H
	DB	07H
	DB	07H
	DB	051H
	DB	051H
	DB	07H
	DB	051H
	DB	026H
	DB	03eH
	DB	026H
	DB	07H
	DB	07H
	DB	07H
	DB	07H
	DB	051H
	DB	03bH
	DB	0d2H
	DB	069H
	DB	095H
	DB	04H
	DB	04H
	DB	04H
	DB	04H
	DB	04H
	DB	04H
	DB	04H
	DB	04H
	DB	04H
	DB	04H
	DB	04H
	DB	04H
	DB	04H
	DB	04H
	DB	04H
	DB	04H
	DB	04H
	DB	04H
	DB	04H
	DB	04H
	DB	04H
	DB	04H
	DB	04H
	DB	04H
	DB	04H
	DB	04H
	DB	04H
	DB	04H
	DB	04H
	DB	04H
	DB	04H
	DB	04H
	DB	04H
	DB	04H
	DB	04H
	DB	04H
	DB	04H
	DB	04H
	DB	04H
	DB	04H
	DB	04H
	DB	04H
	DB	04H
	DB	04H
	DB	04H
	DB	04H
	DB	04H
	DB	04H
	DB	04H
	DB	04H
	DB	04H
	DB	04H
	DB	04H
	DB	04H
	DB	0aH
	DB	0e2H
	DB	06eH
	DB	021H
	DB	06bH
	DB	04bH
	DB	057H
	DB	07dH
	DB	031H
	DB	02cH
	DB	028H
	DB	02dH
	DB	02cH
	DB	03aH
	DB	028H
	DB	019H
	DB	0fdH
	DB	0fdH
	DB	019H
	DB	05cH
	DB	01dH
	DB	030H
	DB	06dH
	DB	065H
	DB	06dH
	DB	06dH
	DB	06dH
	DB	06dH
	DB	0f9H
	DB	0ebH
	DB	049H
	DB	0fcH
	DB	0eH
	DB	0eH
	DB	0eH
	DB	0eH
	DB	016H
	DB	0eH
	DB	049H
	DB	02dH
	DB	02dH
	DB	031H
	DB	06bH
	DB	0f1H
	DB	02dH
	DB	028H
	DB	03cH
	DB	0f9H
	DB	028H
	DB	03cH
	DB	03cH
	DB	02dH
	DB	065H
	DB	03aH
	DB	02cH
	DB	03aH
	DB	07fH
	DB	0dH
	DB	0dH
	DB	03H
	DB	020H
	DB	03H
	DB	08H
	DB	01eH
	DB	06aH
	DB	06aH
	DB	04dH
	DB	04dH
	DB	06cH
	DB	057H
	DB	057H
	DB	04eH
	DB	025H
	DB	04aH
	DB	067H
	DB	04aH
	DB	04aH
	DB	04aH
	DB	04aH
	DB	04H
	DB	063H
	DB	063H
	DB	036H
	DB	036H
	DB	0aH
	DB	0aH
	DB	05fH
	DB	05fH
	DB	05fH
	DB	01bH
	DB	01H
	DB	01H
	DB	05eH
	DB	05eH
	DB	01eH
	DB	01eH
	DB	01eH
	DB	08H
	DB	05aH
	DB	05aH
	DB	05aH
	DB	05aH
	DB	05aH
	DB	010H
	DB	010H
	DB	010H
	DB	02H
	DB	02H
	DB	033H
	DB	033H
	DB	033H
	DB	020H
	DB	020H
	DB	020H
	DB	03H
	DB	03H
	DB	03H
	DB	03H
	DB	045H
	DB	045H
	DB	045H
	DB	045H
	DB	045H
	DB	011H
	DB	011H
	DB	011H
	DB	081H
	DB	045H
	DB	0cH
	DB	0bH
	DB	01eH
	DB	096H
	DB	04H
	DB	04H
	DB	04H
	DB	04H
	DB	057H
	DB	099H
	DB	020H
	DB	00H
	DB	00H
	DB	00H
	DB	00H
	DB	00H
	DB	00H
	DB	00H
	DB	00H
	DB	00H
	DB	00H
	DB	00H
	DB	00H
	DB	00H
	DB	00H
	DB	00H
	DB	00H
	DB	00H
	DB	00H
	DB	00H
	DB	00H
	DB	00H
	DB	00H
	DB	00H
	DB	00H
	DB	00H
	DB	00H
	DB	00H
	DB	00H
	DB	00H
	DB	00H
	DB	00H
	DB	00H
	DB	0d2H
	DB	05H
	DB	0c4H
	DB	04H
	DB	04H
	DB	04H
	DB	04H
	DB	04H
	DB	04H
	DB	04H
	DB	04H
	DB	04H
	DB	04H
	DB	04H
	DB	04H
	DB	04H
	DB	096H
	DB	069H
	DB	024H
	DB	056H
	DB	051H
	DB	07H
	DB	07H
	DB	07H
	DB	07H
	DB	07H
	DB	07H
	DB	043H
	DB	041H
	DB	023H
	DB	04H
	DB	04cH
	DB	0d8H
	DB	07H
	DB	07H
	DB	07H
	DB	07H
	DB	07H
	DB	07H
	DB	07H
	DB	07H
	DB	07H
	DB	07H
	DB	07H
	DB	051H
	DB	086H
	DB	03fH
	DB	01H
	DB	04H
	DB	010H
	DB	054H
	DB	026H
	DB	07H
	DB	07H
	DB	07H
	DB	051H
	DB	050H
	DB	03dH
	DB	04cH
	DB	08H
	DB	023H
	DB	063H
	DB	0b3H
	DB	08H
	DB	024H
	DB	038H
	DB	07H
	DB	07H
	DB	051H
	DB	051H
	DB	051H
	DB	051H
	DB	051H
	DB	051H
	DB	051H
	DB	07H
	DB	07H
	DB	07H
	DB	07H
	DB	07H
	DB	07H
	DB	051H
	DB	068H
	DB	00H
	DB	069H
	DB	04H
	DB	04H
	DB	04H
	DB	04H
	DB	047H
	DB	072H
	DB	051H
	DB	07H
	DB	07H
	DB	07H
	DB	07H
	DB	051H
	DB	037H
	DB	044H
	DB	01H
	DB	044H
	DB	037H
	DB	051H
	DB	07H
	DB	07H
	DB	07H
	DB	07H
	DB	07H
	DB	07H
	DB	07H
	DB	07H
	DB	07H
	DB	07H
	DB	07H
	DB	07H
	DB	07H
	DB	07H
	DB	03eH
	DB	047H
	DB	01bH
	DB	023H
	DB	0bH
	DB	03bH
	DB	051H
	DB	07H
	DB	07H
	DB	07H
	DB	07H
	DB	07H
	DB	03eH
	DB	047H
	DB	01H
	DB	0aH
	DB	096H
	DB	02H
	DB	02bH
	DB	026H
	DB	07H
	DB	07H
	DB	07H
	DB	07H
	DB	051H
	DB	068H
	DB	086H
	DB	051H
	DB	07H
	DB	07H
	DB	07H
	DB	07H
	DB	07H
	DB	07H
	DB	07H
	DB	07H
	DB	07H
	DB	07H
	DB	07H
	DB	051H
	DB	055H
	DB	041H
	DB	095H
	DB	04H
	DB	04H
	DB	04H
	DB	096H
	DB	058H
	DB	054H
	DB	038H
	DB	051H
	DB	07H
	DB	07H
	DB	07H
	DB	07H
	DB	07H
	DB	07H
	DB	038H
	DB	056H
	DB	026H
	DB	051H
	DB	051H
	DB	026H
	DB	026H
	DB	07H
	DB	07H
	DB	07H
	DB	07H
	DB	051H
	DB	03bH
	DB	0d2H
	DB	064H
	DB	0aH
	DB	095H
	DB	04H
	DB	04H
	DB	04H
	DB	04H
	DB	04H
	DB	04H
	DB	04H
	DB	04H
	DB	04H
	DB	04H
	DB	04H
	DB	04H
	DB	04H
	DB	04H
	DB	04H
	DB	04H
	DB	04H
	DB	04H
	DB	04H
	DB	04H
	DB	04H
	DB	04H
	DB	04H
	DB	04H
	DB	04H
	DB	04H
	DB	04H
	DB	04H
	DB	04H
	DB	04H
	DB	04H
	DB	04H
	DB	04H
	DB	04H
	DB	04H
	DB	04H
	DB	04H
	DB	04H
	DB	04H
	DB	04H
	DB	04H
	DB	04H
	DB	04H
	DB	04H
	DB	04H
	DB	04H
	DB	04H
	DB	04H
	DB	04H
	DB	04H
	DB	04H
	DB	04H
	DB	063H
	DB	07bH
	DB	035H
	DB	021H
	DB	031H
	DB	04bH
	DB	063H
	DB	0fH
	DB	02dH
	DB	019H
	DB	0cdH
	DB	0dfH
	DB	0dfH
	DB	0acH
	DB	087H
	DB	0b8H
	DB	0a4H
	DB	031H
	DB	035H
	DB	021H
	DB	019H
	DB	013H
	DB	060H
	DB	01dH
	DB	078H
	DB	03aH
	DB	049H
	DB	06dH
	DB	06dH
	DB	03aH
	DB	0f9H
	DB	030H
	DB	046H
	DB	090H
	DB	0eH
	DB	016H
	DB	016H
	DB	016H
	DB	090H
	DB	0beH
	DB	0cdH
	DB	03cH
	DB	03aH
	DB	02cH
	DB	0f9H
	DB	03cH
	DB	03cH
	DB	03cH
	DB	02dH
	DB	02dH
	DB	02dH
	DB	02dH
	DB	065H
	DB	065H
	DB	03aH
	DB	06dH
	DB	02cH
	DB	052H
	DB	033H
	DB	061H
	DB	011H
	DB	03H
	DB	03H
	DB	02H
	DB	05eH
	DB	022H
	DB	057H
	DB	057H
	DB	057H
	DB	067H
	DB	067H
	DB	04aH
	DB	039H
	DB	039H
	DB	036H
	DB	063H
	DB	063H
	DB	036H
	DB	036H
	DB	036H
	DB	0aH
	DB	0aH
	DB	0aH
	DB	05fH
	DB	01bH
	DB	01bH
	DB	01bH
	DB	01H
	DB	01H
	DB	05eH
	DB	05eH
	DB	01eH
	DB	01eH
	DB	01eH
	DB	08H
	DB	08H
	DB	05aH
	DB	05aH
	DB	010H
	DB	010H
	DB	010H
	DB	010H
	DB	010H
	DB	02H
	DB	02H
	DB	02H
	DB	033H
	DB	020H
	DB	020H
	DB	020H
	DB	020H
	DB	020H
	DB	03H
	DB	03H
	DB	03H
	DB	03H
	DB	03H
	DB	045H
	DB	045H
	DB	011H
	DB	011H
	DB	011H
	DB	011H
	DB	081H
	DB	0dH
	DB	0dH
	DB	0dH
	DB	0dH
	DB	0a8H
	DB	0cH
	DB	080H
	DB	08H
	DB	096H
	DB	04H
	DB	04H
	DB	04H
	DB	04H
	DB	057H
	DB	099H
	DB	020H
	DB	00H
	DB	00H
	DB	00H
	DB	00H
	DB	00H
	DB	00H
	DB	00H
	DB	00H
	DB	00H
	DB	00H
	DB	00H
	DB	00H
	DB	00H
	DB	00H
	DB	00H
	DB	00H
	DB	00H
	DB	00H
	DB	00H
	DB	00H
	DB	00H
	DB	00H
	DB	00H
	DB	00H
	DB	00H
	DB	00H
	DB	00H
	DB	00H
	DB	00H
	DB	00H
	DB	00H
	DB	00H
	DB	0d2H
	DB	05H
	DB	0c4H
	DB	04H
	DB	04H
	DB	04H
	DB	04H
	DB	04H
	DB	04H
	DB	04H
	DB	04H
	DB	04H
	DB	04H
	DB	04H
	DB	04H
	DB	04H
	DB	04H
	DB	063H
	DB	044H
	DB	068H
	DB	051H
	DB	07H
	DB	07H
	DB	07H
	DB	07H
	DB	07H
	DB	051H
	DB	037H
	DB	044H
	DB	01H
	DB	0aH
	DB	042H
	DB	086H
	DB	051H
	DB	07H
	DB	07H
	DB	07H
	DB	038H
	DB	056H
	DB	07H
	DB	07H
	DB	07H
	DB	07H
	DB	07H
	DB	051H
	DB	056H
	DB	03dH
	DB	04fH
	DB	04H
	DB	041H
	DB	03eH
	DB	07H
	DB	07H
	DB	07H
	DB	07H
	DB	051H
	DB	05bH
	DB	03fH
	DB	03H
	DB	01eH
	DB	0aH
	DB	04H
	DB	04H
	DB	01bH
	DB	024H
	DB	070H
	DB	051H
	DB	026H
	DB	050H
	DB	037H
	DB	07eH
	DB	03eH
	DB	03eH
	DB	03eH
	DB	037H
	DB	056H
	DB	051H
	DB	07H
	DB	07H
	DB	07H
	DB	07H
	DB	07H
	DB	07H
	DB	055H
	DB	041H
	DB	095H
	DB	063H
	DB	04H
	DB	04H
	DB	047H
	DB	072H
	DB	051H
	DB	07H
	DB	07H
	DB	07H
	DB	07H
	DB	051H
	DB	037H
	DB	044H
	DB	01eH
	DB	044H
	DB	037H
	DB	07H
	DB	026H
	DB	026H
	DB	07H
	DB	07H
	DB	07H
	DB	07H
	DB	07H
	DB	07H
	DB	07H
	DB	026H
	DB	026H
	DB	026H
	DB	026H
	DB	026H
	DB	0d8H
	DB	02fH
	DB	08aH
	DB	01bH
	DB	0bH
	DB	03bH
	DB	051H
	DB	07H
	DB	07H
	DB	07H
	DB	07H
	DB	07H
	DB	03eH
	DB	02fH
	DB	01eH
	DB	0aH
	DB	04H
	DB	02H
	DB	02bH
	DB	026H
	DB	07H
	DB	07H
	DB	07H
	DB	07H
	DB	07H
	DB	026H
	DB	07H
	DB	07H
	DB	051H
	DB	051H
	DB	07H
	DB	051H
	DB	051H
	DB	07H
	DB	07H
	DB	07H
	DB	07H
	DB	07H
	DB	07H
	DB	051H
	DB	068H
	DB	03fH
	DB	01H
	DB	095H
	DB	04H
	DB	04H
	DB	01H
	DB	00H
	DB	03bH
	DB	051H
	DB	07H
	DB	07H
	DB	07H
	DB	07H
	DB	051H
	DB	038H
	DB	071H
	DB	024H
	DB	03dH
	DB	02bH
	DB	086H
	DB	07H
	DB	07H
	DB	07H
	DB	07H
	DB	07H
	DB	07H
	DB	07H
	DB	051H
	DB	03bH
	DB	03fH
	DB	098H
	DB	01bH
	DB	095H
	DB	04H
	DB	04H
	DB	04H
	DB	04H
	DB	04H
	DB	04H
	DB	04H
	DB	04H
	DB	04H
	DB	04H
	DB	04H
	DB	04H
	DB	04H
	DB	04H
	DB	04H
	DB	04H
	DB	04H
	DB	04H
	DB	04H
	DB	04H
	DB	04H
	DB	04H
	DB	04H
	DB	04H
	DB	04H
	DB	04H
	DB	04H
	DB	04H
	DB	04H
	DB	04H
	DB	04H
	DB	04H
	DB	04H
	DB	04H
	DB	04H
	DB	04H
	DB	04H
	DB	04H
	DB	04H
	DB	04H
	DB	04H
	DB	04H
	DB	04H
	DB	04H
	DB	04H
	DB	04H
	DB	04H
	DB	04H
	DB	04H
	DB	04H
	DB	04H
	DB	04H
	DB	0aH
	DB	0eaH
	DB	021H
	DB	062H
	DB	04bH
	DB	04H
	DB	0aH
	DB	03cH
	DB	019H
	DB	046H
	DB	0eH
	DB	0aaH
	DB	014H
	DB	0f0H
	DB	087H
	DB	0b7H
	DB	09fH
	DB	087H
	DB	0a4H
	DB	0a4H
	DB	049H
	DB	013H
	DB	015H
	DB	088H
	DB	040H
	DB	088H
	DB	06dH
	DB	049H
	DB	06dH
	DB	03aH
	DB	0f9H
	DB	03aH
	DB	034H
	DB	0fcH
	DB	090H
	DB	0feH
	DB	090H
	DB	090H
	DB	090H
	DB	0fdH
	DB	0faH
	DB	035H
	DB	028H
	DB	03cH
	DB	03cH
	DB	02dH
	DB	02dH
	DB	02dH
	DB	02dH
	DB	065H
	DB	065H
	DB	065H
	DB	03aH
	DB	03aH
	DB	03aH
	DB	03aH
	DB	06dH
	DB	03aH
	DB	04H
	DB	04eH
	DB	011H
	DB	03H
	DB	03H
	DB	020H
	DB	01bH
	DB	057H
	DB	04aH
	DB	04aH
	DB	04aH
	DB	04H
	DB	063H
	DB	036H
	DB	039H
	DB	09H
	DB	01bH
	DB	0aH
	DB	0aH
	DB	05fH
	DB	05fH
	DB	05fH
	DB	01bH
	DB	01H
	DB	01H
	DB	01H
	DB	05eH
	DB	05eH
	DB	05eH
	DB	01eH
	DB	01eH
	DB	01eH
	DB	08H
	DB	08H
	DB	05aH
	DB	05aH
	DB	010H
	DB	010H
	DB	02H
	DB	02H
	DB	02H
	DB	02H
	DB	02H
	DB	033H
	DB	033H
	DB	033H
	DB	020H
	DB	020H
	DB	020H
	DB	020H
	DB	03H
	DB	03H
	DB	03H
	DB	045H
	DB	03H
	DB	045H
	DB	011H
	DB	011H
	DB	045H
	DB	011H
	DB	081H
	DB	0dH
	DB	0dH
	DB	0dH
	DB	0dH
	DB	0dH
	DB	0dH
	DB	0dH
	DB	0dH
	DB	0dH
	DB	081H
	DB	0cH
	DB	080H
	DB	091H
	DB	04H
	DB	04H
	DB	04H
	DB	04H
	DB	063H
	DB	05H
	DB	099H
	DB	020H
	DB	00H
	DB	00H
	DB	00H
	DB	00H
	DB	00H
	DB	00H
	DB	00H
	DB	00H
	DB	00H
	DB	00H
	DB	00H
	DB	00H
	DB	00H
	DB	00H
	DB	00H
	DB	00H
	DB	00H
	DB	00H
	DB	00H
	DB	00H
	DB	00H
	DB	00H
	DB	00H
	DB	00H
	DB	00H
	DB	00H
	DB	00H
	DB	00H
	DB	00H
	DB	00H
	DB	00H
	DB	00H
	DB	0d2H
	DB	05H
	DB	0c4H
	DB	04H
	DB	04H
	DB	04H
	DB	04H
	DB	04H
	DB	04H
	DB	04H
	DB	04H
	DB	04H
	DB	04H
	DB	04H
	DB	04H
	DB	04H
	DB	04H
	DB	04H
	DB	041H
	DB	03eH
	DB	051H
	DB	07H
	DB	07H
	DB	07H
	DB	07H
	DB	07H
	DB	051H
	DB	06fH
	DB	0d2H
	DB	08H
	DB	064H
	DB	024H
	DB	038H
	DB	07H
	DB	07H
	DB	07H
	DB	051H
	DB	072H
	DB	037H
	DB	051H
	DB	07H
	DB	07H
	DB	07H
	DB	07H
	DB	07H
	DB	07H
	DB	043H
	DB	041H
	DB	0aH
	DB	044H
	DB	037H
	DB	051H
	DB	07H
	DB	07H
	DB	07H
	DB	07H
	DB	055H
	DB	042H
	DB	098H
	DB	01H
	DB	0aH
	DB	04H
	DB	04H
	DB	095H
	DB	0bH
	DB	066H
	DB	066H
	DB	024H
	DB	00H
	DB	03fH
	DB	03fH
	DB	03fH
	DB	044H
	DB	03fH
	DB	03fH
	DB	03dH
	DB	086H
	DB	051H
	DB	07H
	DB	07H
	DB	07H
	DB	07H
	DB	051H
	DB	086H
	DB	0d2H
	DB	01H
	DB	063H
	DB	04H
	DB	04H
	DB	047H
	DB	072H
	DB	051H
	DB	07H
	DB	07H
	DB	07H
	DB	07H
	DB	051H
	DB	037H
	DB	044H
	DB	08H
	DB	0dH
	DB	024H
	DB	02bH
	DB	054H
	DB	071H
	DB	026H
	DB	07H
	DB	07H
	DB	07H
	DB	07H
	DB	07H
	DB	038H
	DB	043H
	DB	054H
	DB	02bH
	DB	02bH
	DB	02bH
	DB	03dH
	DB	025H
	DB	01eH
	DB	01H
	DB	0bH
	DB	03bH
	DB	051H
	DB	07H
	DB	07H
	DB	07H
	DB	07H
	DB	07H
	DB	03eH
	DB	042H
	DB	08H
	DB	023H
	DB	04H
	DB	02H
	DB	02bH
	DB	026H
	DB	07H
	DB	07H
	DB	07H
	DB	07H
	DB	07H
	DB	07H
	DB	051H
	DB	07H
	DB	050H
	DB	072H
	DB	03eH
	DB	07eH
	DB	050H
	DB	07H
	DB	07H
	DB	07H
	DB	07H
	DB	07H
	DB	07H
	DB	051H
	DB	056H
	DB	03dH
	DB	010H
	DB	0aH
	DB	063H
	DB	0b3H
	DB	04cH
	DB	055H
	DB	07H
	DB	07H
	DB	07H
	DB	07H
	DB	07H
	DB	07H
	DB	026H
	DB	043H
	DB	00H
	DB	02fH
	DB	041H
	DB	02fH
	DB	00H
	DB	068H
	DB	051H
	DB	07H
	DB	07H
	DB	07H
	DB	07H
	DB	07H
	DB	051H
	DB	03bH
	DB	03fH
	DB	020H
	DB	01H
	DB	095H
	DB	04H
	DB	04H
	DB	04H
	DB	04H
	DB	04H
	DB	04H
	DB	04H
	DB	04H
	DB	04H
	DB	04H
	DB	04H
	DB	04H
	DB	04H
	DB	04H
	DB	04H
	DB	04H
	DB	04H
	DB	04H
	DB	04H
	DB	04H
	DB	04H
	DB	04H
	DB	04H
	DB	04H
	DB	04H
	DB	04H
	DB	04H
	DB	04H
	DB	04H
	DB	04H
	DB	04H
	DB	04H
	DB	04H
	DB	04H
	DB	04H
	DB	04H
	DB	04H
	DB	04H
	DB	04H
	DB	04H
	DB	04H
	DB	04H
	DB	04H
	DB	04H
	DB	04H
	DB	04H
	DB	04H
	DB	04H
	DB	04H
	DB	04H
	DB	04H
	DB	095H
	DB	05H
	DB	049H
	DB	049H
	DB	014H
	DB	06cH
	DB	05eH
	DB	05eH
	DB	07fH
	DB	019H
	DB	028H
	DB	06H
	DB	0bbH
	DB	0a4H
	DB	097H
	DB	087H
	DB	0b5H
	DB	01cH
	DB	09fH
	DB	0ebH
	DB	0aaH
	DB	0c8H
	DB	0a5H
	DB	02dH
	DB	06dH
	DB	05cH
	DB	040H
	DB	062H
	DB	03aH
	DB	06dH
	DB	065H
	DB	02dH
	DB	021H
	DB	02eH
	DB	0a5H
	DB	06H
	DB	090H
	DB	090H
	DB	090H
	DB	090H
	DB	0fdH
	DB	090H
	DB	0a0H
	DB	03aH
	DB	03cH
	DB	02dH
	DB	02dH
	DB	065H
	DB	065H
	DB	065H
	DB	065H
	DB	065H
	DB	065H
	DB	03aH
	DB	03aH
	DB	03aH
	DB	03aH
	DB	03aH
	DB	02dH
	DB	04bH
	DB	09H
	DB	0dH
	DB	011H
	DB	045H
	DB	020H
	DB	05fH
	DB	04aH
	DB	063H
	DB	036H
	DB	036H
	DB	0aH
	DB	0aH
	DB	0aH
	DB	039H
	DB	032H
	DB	05eH
	DB	01bH
	DB	01bH
	DB	01H
	DB	01H
	DB	01H
	DB	05eH
	DB	01eH
	DB	01eH
	DB	01eH
	DB	01eH
	DB	08H
	DB	08H
	DB	08H
	DB	05aH
	DB	05aH
	DB	010H
	DB	010H
	DB	010H
	DB	02H
	DB	02H
	DB	02H
	DB	02H
	DB	033H
	DB	033H
	DB	033H
	DB	020H
	DB	020H
	DB	020H
	DB	020H
	DB	03H
	DB	03H
	DB	03H
	DB	03H
	DB	045H
	DB	045H
	DB	045H
	DB	045H
	DB	011H
	DB	011H
	DB	011H
	DB	011H
	DB	0dH
	DB	0dH
	DB	0dH
	DB	0dH
	DB	0dH
	DB	0dH
	DB	0dH
	DB	0dH
	DB	0c0H
	DB	0dH
	DB	0dH
	DB	0dH
	DB	0dH
	DB	0cH
	DB	080H
	DB	08H
	DB	04H
	DB	04H
	DB	04H
	DB	04H
	DB	063H
	DB	05H
	DB	099H
	DB	020H
	DB	00H
	DB	00H
	DB	00H
	DB	00H
	DB	00H
	DB	00H
	DB	00H
	DB	00H
	DB	00H
	DB	00H
	DB	00H
	DB	00H
	DB	00H
	DB	00H
	DB	00H
	DB	00H
	DB	00H
	DB	00H
	DB	00H
	DB	00H
	DB	00H
	DB	00H
	DB	00H
	DB	00H
	DB	00H
	DB	00H
	DB	00H
	DB	00H
	DB	00H
	DB	00H
	DB	00H
	DB	00H
	DB	0d2H
	DB	05H
	DB	0c4H
	DB	04H
	DB	04H
	DB	04H
	DB	04H
	DB	04H
	DB	04H
	DB	04H
	DB	04H
	DB	04H
	DB	04H
	DB	04H
	DB	04H
	DB	04H
	DB	04H
	DB	0b3H
	DB	04fH
	DB	054H
	DB	07H
	DB	07H
	DB	07H
	DB	07H
	DB	07H
	DB	07H
	DB	07H
	DB	026H
	DB	054H
	DB	058H
	DB	04cH
	DB	043H
	DB	07H
	DB	07H
	DB	07H
	DB	07H
	DB	07H
	DB	02bH
	DB	043H
	DB	07H
	DB	07H
	DB	07H
	DB	07H
	DB	07H
	DB	07H
	DB	051H
	DB	05bH
	DB	042H
	DB	010H
	DB	024H
	DB	070H
	DB	051H
	DB	07H
	DB	07H
	DB	07H
	DB	038H
	DB	03dH
	DB	0cH
	DB	010H
	DB	01H
	DB	095H
	DB	04H
	DB	04H
	DB	04H
	DB	03H
	DB	0bH
	DB	047H
	DB	0dH
	DB	011H
	DB	011H
	DB	03H
	DB	033H
	DB	02H
	DB	02H
	DB	020H
	DB	041H
	DB	024H
	DB	038H
	DB	07H
	DB	07H
	DB	07H
	DB	07H
	DB	07H
	DB	038H
	DB	03dH
	DB	02H
	DB	0c3H
	DB	04H
	DB	04H
	DB	047H
	DB	072H
	DB	051H
	DB	07H
	DB	07H
	DB	07H
	DB	07H
	DB	051H
	DB	037H
	DB	044H
	DB	02H
	DB	01bH
	DB	010H
	DB	0d6H
	DB	041H
	DB	054H
	DB	026H
	DB	07H
	DB	07H
	DB	07H
	DB	07H
	DB	051H
	DB	056H
	DB	082H
	DB	044H
	DB	02fH
	DB	047H
	DB	047H
	DB	025H
	DB	098H
	DB	08aH
	DB	01bH
	DB	0bH
	DB	03bH
	DB	051H
	DB	07H
	DB	07H
	DB	07H
	DB	07H
	DB	07H
	DB	03eH
	DB	042H
	DB	08H
	DB	023H
	DB	04H
	DB	02H
	DB	02bH
	DB	026H
	DB	07H
	DB	07H
	DB	07H
	DB	07H
	DB	07H
	DB	07H
	DB	038H
	DB	071H
	DB	00H
	DB	03fH
	DB	044H
	DB	03fH
	DB	00H
	DB	086H
	DB	07H
	DB	07H
	DB	07H
	DB	07H
	DB	07H
	DB	07H
	DB	038H
	DB	054H
	DB	011H
	DB	023H
	DB	063H
	DB	05fH
	DB	0d2H
	DB	03bH
	DB	051H
	DB	07H
	DB	07H
	DB	07H
	DB	07H
	DB	051H
	DB	037H
	DB	00H
	DB	0cH
	DB	011H
	DB	020H
	DB	010H
	DB	047H
	DB	054H
	DB	026H
	DB	07H
	DB	07H
	DB	07H
	DB	07H
	DB	07H
	DB	051H
	DB	03bH
	DB	03fH
	DB	020H
	DB	01H
	DB	0c3H
	DB	04H
	DB	04H
	DB	04H
	DB	04H
	DB	04H
	DB	04H
	DB	04H
	DB	04H
	DB	04H
	DB	04H
	DB	04H
	DB	04H
	DB	04H
	DB	04H
	DB	04H
	DB	04H
	DB	04H
	DB	04H
	DB	04H
	DB	04H
	DB	04H
	DB	04H
	DB	04H
	DB	04H
	DB	04H
	DB	04H
	DB	04H
	DB	04H
	DB	04H
	DB	04H
	DB	04H
	DB	04H
	DB	04H
	DB	04H
	DB	04H
	DB	04H
	DB	04H
	DB	04H
	DB	04H
	DB	04H
	DB	04H
	DB	04H
	DB	04H
	DB	04H
	DB	04H
	DB	04H
	DB	04H
	DB	04H
	DB	04H
	DB	04H
	DB	04H
	DB	0aH
	DB	0b9H
	DB	0f9H
	DB	08dH
	DB	05dH
	DB	01eH
	DB	01bH
	DB	05eH
	DB	063H
	DB	065H
	DB	021H
	DB	028H
	DB	031H
	DB	0ebH
	DB	0bbH
	DB	0aaH
	DB	04H
	DB	022H
	DB	0fH
	DB	01dH
	DB	01dH
	DB	097H
	DB	0adH
	DB	02cH
	DB	0f9H
	DB	0f6H
	DB	05cH
	DB	01dH
	DB	052H
	DB	03aH
	DB	065H
	DB	03cH
	DB	028H
	DB	0beH
	DB	0cbH
	DB	0b0H
	DB	06H
	DB	0fdH
	DB	0fdH
	DB	090H
	DB	090H
	DB	0fdH
	DB	0beH
	DB	035H
	DB	02dH
	DB	065H
	DB	065H
	DB	065H
	DB	02dH
	DB	065H
	DB	065H
	DB	065H
	DB	065H
	DB	065H
	DB	065H
	DB	02dH
	DB	065H
	DB	03aH
	DB	03cH
	DB	029H
	DB	0cH
	DB	048H
	DB	011H
	DB	011H
	DB	033H
	DB	05fH
	DB	0aH
	DB	0aH
	DB	05fH
	DB	0aH
	DB	05fH
	DB	01bH
	DB	01eH
	DB	032H
	DB	080H
	DB	08H
	DB	05eH
	DB	05eH
	DB	01eH
	DB	01eH
	DB	01eH
	DB	08H
	DB	08H
	DB	08H
	DB	05aH
	DB	08H
	DB	05aH
	DB	010H
	DB	010H
	DB	02H
	DB	02H
	DB	02H
	DB	02H
	DB	02H
	DB	033H
	DB	033H
	DB	033H
	DB	020H
	DB	020H
	DB	020H
	DB	03H
	DB	03H
	DB	03H
	DB	03H
	DB	03H
	DB	045H
	DB	045H
	DB	045H
	DB	011H
	DB	011H
	DB	011H
	DB	011H
	DB	011H
	DB	011H
	DB	0dH
	DB	0dH
	DB	0dH
	DB	0dH
	DB	0dH
	DB	0dH
	DB	0dH
	DB	0c0H
	DB	0c0H
	DB	0c0H
	DB	048H
	DB	0c0H
	DB	0c0H
	DB	0c0H
	DB	0c0H
	DB	0dH
	DB	039H
	DB	080H
	DB	08H
	DB	04H
	DB	04H
	DB	04H
	DB	04H
	DB	063H
	DB	05H
	DB	099H
	DB	020H
	DB	00H
	DB	00H
	DB	00H
	DB	00H
	DB	00H
	DB	00H
	DB	00H
	DB	00H
	DB	00H
	DB	00H
	DB	00H
	DB	00H
	DB	00H
	DB	00H
	DB	00H
	DB	00H
	DB	00H
	DB	00H
	DB	00H
	DB	00H
	DB	00H
	DB	00H
	DB	00H
	DB	00H
	DB	00H
	DB	00H
	DB	00H
	DB	00H
	DB	00H
	DB	00H
	DB	00H
	DB	00H
	DB	0d2H
	DB	05H
	DB	0c4H
	DB	04H
	DB	063H
	DB	063H
	DB	063H
	DB	063H
	DB	063H
	DB	063H
	DB	063H
	DB	063H
	DB	063H
	DB	063H
	DB	063H
	DB	063H
	DB	063H
	DB	04H
	DB	01H
	DB	024H
	DB	06fH
	DB	051H
	DB	07H
	DB	07H
	DB	07H
	DB	07H
	DB	07H
	DB	051H
	DB	071H
	DB	02fH
	DB	044H
	DB	086H
	DB	051H
	DB	07H
	DB	07H
	DB	051H
	DB	056H
	DB	03dH
	DB	00H
	DB	038H
	DB	07H
	DB	07H
	DB	07H
	DB	07H
	DB	07H
	DB	051H
	DB	056H
	DB	0d2H
	DB	0cH
	DB	02bH
	DB	07H
	DB	07H
	DB	07H
	DB	07H
	DB	051H
	DB	03bH
	DB	00H
	DB	011H
	DB	08H
	DB	023H
	DB	095H
	DB	063H
	DB	063H
	DB	063H
	DB	04H
	DB	095H
	DB	01H
	DB	0d7H
	DB	041H
	DB	042H
	DB	044H
	DB	044H
	DB	02fH
	DB	04cH
	DB	010H
	DB	02H
	DB	024H
	DB	06fH
	DB	051H
	DB	07H
	DB	07H
	DB	07H
	DB	07H
	DB	07H
	DB	024H
	DB	011H
	DB	05fH
	DB	095H
	DB	04H
	DB	047H
	DB	072H
	DB	051H
	DB	07H
	DB	07H
	DB	07H
	DB	07H
	DB	051H
	DB	037H
	DB	044H
	DB	02H
	DB	01bH
	DB	095H
	DB	095H
	DB	058H
	DB	054H
	DB	026H
	DB	07H
	DB	07H
	DB	07H
	DB	07H
	DB	051H
	DB	056H
	DB	024H
	DB	041H
	DB	07aH
	DB	02H
	DB	02H
	DB	064H
	DB	01eH
	DB	01bH
	DB	023H
	DB	0bH
	DB	03bH
	DB	051H
	DB	07H
	DB	07H
	DB	07H
	DB	07H
	DB	07H
	DB	03eH
	DB	042H
	DB	08H
	DB	023H
	DB	04H
	DB	02H
	DB	02bH
	DB	026H
	DB	07H
	DB	07H
	DB	07H
	DB	07H
	DB	07H
	DB	026H
	DB	043H
	DB	03fH
	DB	039H
	DB	0dH
	DB	03H
	DB	020H
	DB	047H
	DB	024H
	DB	038H
	DB	07H
	DB	07H
	DB	07H
	DB	07H
	DB	07H
	DB	026H
	DB	02bH
	DB	025H
	DB	01H
	DB	04H
	DB	02H
	DB	054H
	DB	026H
	DB	07H
	DB	07H
	DB	07H
	DB	07H
	DB	07H
	DB	026H
	DB	054H
	DB	042H
	DB	0a8H
	DB	02H
	DB	01eH
	DB	01H
	DB	08H
	DB	03fH
	DB	03bH
	DB	051H
	DB	07H
	DB	07H
	DB	07H
	DB	07H
	DB	051H
	DB	03bH
	DB	03fH
	DB	020H
	DB	01H
	DB	0c3H
	DB	063H
	DB	063H
	DB	063H
	DB	063H
	DB	063H
	DB	063H
	DB	063H
	DB	063H
	DB	063H
	DB	063H
	DB	063H
	DB	063H
	DB	063H
	DB	063H
	DB	063H
	DB	063H
	DB	063H
	DB	063H
	DB	063H
	DB	063H
	DB	063H
	DB	063H
	DB	063H
	DB	063H
	DB	063H
	DB	063H
	DB	063H
	DB	063H
	DB	063H
	DB	063H
	DB	063H
	DB	063H
	DB	063H
	DB	063H
	DB	063H
	DB	063H
	DB	063H
	DB	063H
	DB	063H
	DB	063H
	DB	063H
	DB	063H
	DB	063H
	DB	063H
	DB	063H
	DB	063H
	DB	063H
	DB	063H
	DB	063H
	DB	063H
	DB	095H
	DB	04H
	DB	0f1H
	DB	0f1H
	DB	04bH
	DB	0aH
	DB	01eH
	DB	01bH
	DB	08H
	DB	02H
	DB	022H
	DB	01dH
	DB	059H
	DB	088H
	DB	06dH
	DB	03cH
	DB	06dH
	DB	0ccH
	DB	034H
	DB	014H
	DB	01dH
	DB	08cH
	DB	087H
	DB	0bbH
	DB	0f2H
	DB	0beH
	DB	03aH
	DB	06dH
	DB	062H
	DB	06cH
	DB	049H
	DB	03cH
	DB	0f9H
	DB	0faH
	DB	0beH
	DB	0fbH
	DB	097H
	DB	06H
	DB	0fdH
	DB	090H
	DB	090H
	DB	090H
	DB	090H
	DB	090H
	DB	0a0H
	DB	035H
	DB	03cH
	DB	065H
	DB	02dH
	DB	065H
	DB	065H
	DB	02dH
	DB	02dH
	DB	02dH
	DB	02dH
	DB	065H
	DB	035H
	DB	06dH
	DB	02dH
	DB	03cH
	DB	049H
	DB	03H
	DB	0cH
	DB	011H
	DB	011H
	DB	02H
	DB	05fH
	DB	05fH
	DB	01H
	DB	08H
	DB	033H
	DB	045H
	DB	0dH
	DB	03H
	DB	05aH
	DB	03H
	DB	033H
	DB	01eH
	DB	08H
	DB	08H
	DB	08H
	DB	05aH
	DB	010H
	DB	010H
	DB	010H
	DB	010H
	DB	02H
	DB	02H
	DB	02H
	DB	02H
	DB	033H
	DB	033H
	DB	033H
	DB	033H
	DB	033H
	DB	020H
	DB	07aH
	DB	03H
	DB	03H
	DB	03H
	DB	03H
	DB	03H
	DB	03H
	DB	045H
	DB	045H
	DB	045H
	DB	011H
	DB	011H
	DB	011H
	DB	011H
	DB	011H
	DB	081H
	DB	0dH
	DB	0dH
	DB	0dH
	DB	0dH
	DB	0c0H
	DB	0dH
	DB	0c0H
	DB	048H
	DB	048H
	DB	048H
	DB	048H
	DB	048H
	DB	048H
	DB	0c0H
	DB	0c0H
	DB	048H
	DB	048H
	DB	048H
	DB	0dH
	DB	039H
	DB	0bH
	DB	01eH
	DB	04H
	DB	063H
	DB	063H
	DB	063H
	DB	095H
	DB	05H
	DB	099H
	DB	020H
	DB	00H
	DB	00H
	DB	00H
	DB	00H
	DB	00H
	DB	00H
	DB	00H
	DB	00H
	DB	00H
	DB	00H
	DB	00H
	DB	00H
	DB	00H
	DB	00H
	DB	00H
	DB	00H
	DB	00H
	DB	00H
	DB	00H
	DB	00H
	DB	00H
	DB	00H
	DB	00H
	DB	00H
	DB	00H
	DB	00H
	DB	00H
	DB	00H
	DB	00H
	DB	00H
	DB	00H
	DB	00H
	DB	0d2H
	DB	05H
	DB	0c4H
	DB	04H
	DB	063H
	DB	063H
	DB	063H
	DB	063H
	DB	063H
	DB	063H
	DB	063H
	DB	063H
	DB	063H
	DB	063H
	DB	063H
	DB	063H
	DB	063H
	DB	063H
	DB	063H
	DB	042H
	DB	037H
	DB	051H
	DB	07H
	DB	07H
	DB	07H
	DB	07H
	DB	07H
	DB	051H
	DB	086H
	DB	03fH
	DB	03dH
	DB	056H
	DB	051H
	DB	07H
	DB	07H
	DB	051H
	DB	086H
	DB	00H
	DB	03fH
	DB	037H
	DB	051H
	DB	07H
	DB	07H
	DB	07H
	DB	07H
	DB	07H
	DB	026H
	DB	043H
	DB	03fH
	DB	066H
	DB	051H
	DB	07H
	DB	07H
	DB	07H
	DB	051H
	DB	066H
	DB	044H
	DB	03H
	DB	01eH
	DB	0aH
	DB	095H
	DB	063H
	DB	063H
	DB	04H
	DB	0c3H
	DB	058H
	DB	044H
	DB	03dH
	DB	043H
	DB	03eH
	DB	066H
	DB	066H
	DB	03eH
	DB	043H
	DB	03dH
	DB	044H
	DB	082H
	DB	070H
	DB	051H
	DB	07H
	DB	07H
	DB	07H
	DB	07H
	DB	07H
	DB	043H
	DB	0cH
	DB	01H
	DB	0c3H
	DB	063H
	DB	047H
	DB	072H
	DB	051H
	DB	07H
	DB	07H
	DB	07H
	DB	07H
	DB	051H
	DB	037H
	DB	044H
	DB	02H
	DB	01bH
	DB	0c3H
	DB	095H
	DB	020H
	DB	054H
	DB	026H
	DB	07H
	DB	07H
	DB	07H
	DB	07H
	DB	051H
	DB	056H
	DB	024H
	DB	025H
	DB	091H
	DB	08aH
	DB	01H
	DB	01H
	DB	023H
	DB	0aH
	DB	05fH
	DB	0bH
	DB	03bH
	DB	051H
	DB	07H
	DB	07H
	DB	07H
	DB	07H
	DB	07H
	DB	03eH
	DB	042H
	DB	08H
	DB	023H
	DB	04H
	DB	02H
	DB	02bH
	DB	026H
	DB	07H
	DB	07H
	DB	07H
	DB	07H
	DB	051H
	DB	038H
	DB	03dH
	DB	047H
	DB	0a8H
	DB	0d7H
	DB	010H
	DB	01eH
	DB	04fH
	DB	082H
	DB	056H
	DB	051H
	DB	07H
	DB	07H
	DB	07H
	DB	07H
	DB	026H
	DB	02bH
	DB	0cH
	DB	01H
	DB	095H
	DB	04cH
	DB	071H
	DB	051H
	DB	07H
	DB	07H
	DB	07H
	DB	07H
	DB	07H
	DB	056H
	DB	03dH
	DB	0cH
	DB	098H
	DB	01eH
	DB	023H
	DB	0c3H
	DB	063H
	DB	042H
	DB	037H
	DB	051H
	DB	07H
	DB	07H
	DB	07H
	DB	07H
	DB	051H
	DB	03bH
	DB	03fH
	DB	020H
	DB	01H
	DB	0c3H
	DB	063H
	DB	063H
	DB	063H
	DB	063H
	DB	063H
	DB	063H
	DB	063H
	DB	063H
	DB	063H
	DB	063H
	DB	063H
	DB	063H
	DB	063H
	DB	063H
	DB	063H
	DB	063H
	DB	063H
	DB	063H
	DB	063H
	DB	063H
	DB	063H
	DB	063H
	DB	063H
	DB	063H
	DB	063H
	DB	063H
	DB	063H
	DB	063H
	DB	063H
	DB	063H
	DB	063H
	DB	063H
	DB	063H
	DB	063H
	DB	063H
	DB	063H
	DB	063H
	DB	063H
	DB	063H
	DB	063H
	DB	063H
	DB	063H
	DB	063H
	DB	063H
	DB	063H
	DB	063H
	DB	063H
	DB	063H
	DB	063H
	DB	063H
	DB	0aH
	DB	0c4H
	DB	02cH
	DB	08dH
	DB	06aH
	DB	08H
	DB	01bH
	DB	01eH
	DB	098H
	DB	095H
	DB	095H
	DB	0aH
	DB	0aH
	DB	0c3H
	DB	0b3H
	DB	06aH
	DB	053H
	DB	088H
	DB	06dH
	DB	0f9H
	DB	0f9H
	DB	02cH
	DB	02aH
	DB	0a4H
	DB	0f1H
	DB	06eH
	DB	06eH
	DB	02eH
	DB	04H
	DB	03H
	DB	05dH
	DB	028H
	DB	028H
	DB	0fbH
	DB	021H
	DB	016H
	DB	02eH
	DB	0cfH
	DB	06H
	DB	090H
	DB	0fcH
	DB	0fcH
	DB	0fcH
	DB	0fcH
	DB	0beH
	DB	02eH
	DB	02dH
	DB	02dH
	DB	02dH
	DB	03cH
	DB	03cH
	DB	03aH
	DB	065H
	DB	03aH
	DB	02eH
	DB	0aeH
	DB	031H
	DB	035H
	DB	03cH
	DB	03cH
	DB	0f9H
	DB	01H
	DB	039H
	DB	011H
	DB	03H
	DB	08H
	DB	02H
	DB	0dH
	DB	048H
	DB	011H
	DB	033H
	DB	01eH
	DB	01bH
	DB	01bH
	DB	01bH
	DB	03H
	DB	020H
	DB	05aH
	DB	010H
	DB	010H
	DB	010H
	DB	02H
	DB	02H
	DB	02H
	DB	02H
	DB	033H
	DB	033H
	DB	033H
	DB	033H
	DB	020H
	DB	020H
	DB	020H
	DB	020H
	DB	03H
	DB	03H
	DB	03H
	DB	03H
	DB	03H
	DB	03H
	DB	03H
	DB	045H
	DB	045H
	DB	045H
	DB	011H
	DB	011H
	DB	011H
	DB	011H
	DB	0dH
	DB	0dH
	DB	0dH
	DB	0dH
	DB	0dH
	DB	0dH
	DB	0dH
	DB	0c0H
	DB	048H
	DB	048H
	DB	048H
	DB	048H
	DB	048H
	DB	025H
	DB	048H
	DB	048H
	DB	061H
	DB	061H
	DB	0cH
	DB	0cH
	DB	0cH
	DB	0cH
	DB	048H
	DB	0c0H
	DB	039H
	DB	0bH
	DB	08aH
	DB	04H
	DB	063H
	DB	063H
	DB	063H
	DB	095H
	DB	05H
	DB	099H
	DB	020H
	DB	00H
	DB	00H
	DB	00H
	DB	00H
	DB	00H
	DB	00H
	DB	00H
	DB	00H
	DB	00H
	DB	00H
	DB	00H
	DB	00H
	DB	00H
	DB	00H
	DB	00H
	DB	00H
	DB	00H
	DB	00H
	DB	00H
	DB	00H
	DB	00H
	DB	00H
	DB	00H
	DB	00H
	DB	00H
	DB	00H
	DB	00H
	DB	00H
	DB	00H
	DB	00H
	DB	00H
	DB	00H
	DB	0d2H
	DB	05H
	DB	0c4H
	DB	04H
	DB	063H
	DB	063H
	DB	063H
	DB	063H
	DB	063H
	DB	063H
	DB	063H
	DB	063H
	DB	063H
	DB	063H
	DB	063H
	DB	063H
	DB	063H
	DB	063H
	DB	04H
	DB	04cH
	DB	071H
	DB	07H
	DB	07H
	DB	07H
	DB	07H
	DB	07H
	DB	07H
	DB	051H
	DB	038H
	DB	00H
	DB	043H
	DB	026H
	DB	07H
	DB	07H
	DB	07H
	DB	07H
	DB	055H
	DB	042H
	DB	042H
	DB	055H
	DB	051H
	DB	07H
	DB	07H
	DB	07H
	DB	07H
	DB	07H
	DB	051H
	DB	05bH
	DB	00H
	DB	068H
	DB	051H
	DB	07H
	DB	07H
	DB	07H
	DB	07H
	DB	02bH
	DB	02fH
	DB	02H
	DB	05eH
	DB	0aH
	DB	063H
	DB	063H
	DB	04H
	DB	01eH
	DB	044H
	DB	054H
	DB	037H
	DB	038H
	DB	026H
	DB	051H
	DB	051H
	DB	051H
	DB	051H
	DB	026H
	DB	056H
	DB	07eH
	DB	03dH
	DB	06fH
	DB	051H
	DB	07H
	DB	07H
	DB	07H
	DB	07H
	DB	07H
	DB	043H
	DB	041H
	DB	069H
	DB	0aH
	DB	095H
	DB	047H
	DB	072H
	DB	051H
	DB	07H
	DB	07H
	DB	07H
	DB	07H
	DB	051H
	DB	037H
	DB	044H
	DB	02H
	DB	01bH
	DB	0c3H
	DB	04H
	DB	04fH
	DB	054H
	DB	026H
	DB	07H
	DB	07H
	DB	07H
	DB	07H
	DB	051H
	DB	056H
	DB	024H
	DB	04cH
	DB	01eH
	DB	023H
	DB	0aH
	DB	0c3H
	DB	036H
	DB	095H
	DB	0aH
	DB	0bH
	DB	03bH
	DB	051H
	DB	07H
	DB	07H
	DB	07H
	DB	07H
	DB	07H
	DB	03eH
	DB	042H
	DB	08H
	DB	023H
	DB	04H
	DB	02H
	DB	02bH
	DB	026H
	DB	07H
	DB	07H
	DB	07H
	DB	07H
	DB	051H
	DB	038H
	DB	024H
	DB	041H
	DB	02H
	DB	01eH
	DB	01bH
	DB	0aH
	DB	08H
	DB	024H
	DB	038H
	DB	051H
	DB	07H
	DB	07H
	DB	07H
	DB	07H
	DB	026H
	DB	02bH
	DB	041H
	DB	069H
	DB	0aH
	DB	02fH
	DB	05bH
	DB	051H
	DB	07H
	DB	07H
	DB	07H
	DB	07H
	DB	051H
	DB	03bH
	DB	03fH
	DB	0dH
	DB	08H
	DB	01bH
	DB	036H
	DB	095H
	DB	04H
	DB	041H
	DB	066H
	DB	051H
	DB	07H
	DB	07H
	DB	07H
	DB	07H
	DB	051H
	DB	03bH
	DB	03fH
	DB	020H
	DB	01H
	DB	0aH
	DB	063H
	DB	063H
	DB	063H
	DB	063H
	DB	063H
	DB	063H
	DB	063H
	DB	063H
	DB	063H
	DB	063H
	DB	063H
	DB	063H
	DB	063H
	DB	063H
	DB	063H
	DB	063H
	DB	063H
	DB	063H
	DB	063H
	DB	063H
	DB	063H
	DB	063H
	DB	063H
	DB	063H
	DB	063H
	DB	063H
	DB	063H
	DB	063H
	DB	063H
	DB	063H
	DB	063H
	DB	063H
	DB	063H
	DB	063H
	DB	063H
	DB	063H
	DB	063H
	DB	063H
	DB	063H
	DB	063H
	DB	063H
	DB	063H
	DB	063H
	DB	063H
	DB	063H
	DB	063H
	DB	063H
	DB	063H
	DB	063H
	DB	063H
	DB	0aH
	DB	030H
	DB	02eH
	DB	073H
	DB	0aH
	DB	01eH
	DB	01H
	DB	07aH
	DB	094H
	DB	095H
	DB	09dH
	DB	095H
	DB	095H
	DB	0aH
	DB	094H
	DB	069H
	DB	08H
	DB	08H
	DB	01H
	DB	067H
	DB	040H
	DB	060H
	DB	074H
	DB	02cH
	DB	03cH
	DB	021H
	DB	06eH
	DB	01cH
	DB	020H
	DB	08H
	DB	02H
	DB	06bH
	DB	021H
	DB	0faH
	DB	021H
	DB	0beH
	DB	0beH
	DB	0cbH
	DB	0fcH
	DB	090H
	DB	0fcH
	DB	0eH
	DB	0eH
	DB	0eH
	DB	0eH
	DB	049H
	DB	035H
	DB	03cH
	DB	065H
	DB	035H
	DB	078H
	DB	088H
	DB	062H
	DB	02cH
	DB	02eH
	DB	0f1H
	DB	02cH
	DB	0f9H
	DB	0f9H
	DB	028H
	DB	021H
	DB	022H
	DB	04eH
	DB	0dH
	DB	02H
	DB	010H
	DB	03H
	DB	010H
	DB	01bH
	DB	05fH
	DB	01H
	DB	01eH
	DB	05aH
	DB	010H
	DB	010H
	DB	045H
	DB	03H
	DB	02H
	DB	02H
	DB	02H
	DB	02H
	DB	02H
	DB	033H
	DB	033H
	DB	033H
	DB	020H
	DB	020H
	DB	020H
	DB	020H
	DB	07aH
	DB	03H
	DB	03H
	DB	03H
	DB	03H
	DB	045H
	DB	045H
	DB	03H
	DB	045H
	DB	011H
	DB	011H
	DB	011H
	DB	081H
	DB	011H
	DB	0dH
	DB	0dH
	DB	0dH
	DB	0dH
	DB	0dH
	DB	0dH
	DB	0dH
	DB	0c0H
	DB	048H
	DB	048H
	DB	048H
	DB	0c0H
	DB	025H
	DB	025H
	DB	048H
	DB	061H
	DB	061H
	DB	0cH
	DB	0cH
	DB	0cH
	DB	039H
	DB	039H
	DB	0dH
	DB	08H
	DB	095H
	DB	01H
	DB	0cH
	DB	0c0H
	DB	04eH
	DB	0bH
	DB	01H
	DB	04H
	DB	063H
	DB	063H
	DB	063H
	DB	095H
	DB	05H
	DB	099H
	DB	020H
	DB	00H
	DB	00H
	DB	00H
	DB	00H
	DB	00H
	DB	00H
	DB	00H
	DB	00H
	DB	00H
	DB	00H
	DB	00H
	DB	00H
	DB	00H
	DB	00H
	DB	00H
	DB	00H
	DB	00H
	DB	00H
	DB	00H
	DB	00H
	DB	00H
	DB	00H
	DB	00H
	DB	00H
	DB	00H
	DB	00H
	DB	00H
	DB	00H
	DB	00H
	DB	00H
	DB	00H
	DB	00H
	DB	0d2H
	DB	05H
	DB	0c4H
	DB	063H
	DB	095H
	DB	095H
	DB	095H
	DB	095H
	DB	095H
	DB	095H
	DB	095H
	DB	095H
	DB	095H
	DB	095H
	DB	095H
	DB	095H
	DB	095H
	DB	095H
	DB	04H
	DB	064H
	DB	024H
	DB	026H
	DB	07H
	DB	07H
	DB	07H
	DB	07H
	DB	07H
	DB	07H
	DB	026H
	DB	02bH
	DB	07eH
	DB	051H
	DB	07H
	DB	07H
	DB	07H
	DB	056H
	DB	03dH
	DB	0cH
	DB	04cH
	DB	024H
	DB	038H
	DB	051H
	DB	07H
	DB	07H
	DB	07H
	DB	07H
	DB	051H
	DB	050H
	DB	03dH
	DB	056H
	DB	051H
	DB	07H
	DB	07H
	DB	051H
	DB	070H
	DB	03dH
	DB	025H
	DB	010H
	DB	0a2H
	DB	0c3H
	DB	095H
	DB	04H
	DB	08H
	DB	03fH
	DB	066H
	DB	026H
	DB	051H
	DB	051H
	DB	07H
	DB	07H
	DB	07H
	DB	07H
	DB	07H
	DB	07H
	DB	051H
	DB	051H
	DB	06fH
	DB	038H
	DB	07H
	DB	07H
	DB	07H
	DB	07H
	DB	07H
	DB	07H
	DB	043H
	DB	041H
	DB	01eH
	DB	0aH
	DB	095H
	DB	047H
	DB	072H
	DB	051H
	DB	07H
	DB	07H
	DB	07H
	DB	07H
	DB	051H
	DB	037H
	DB	03fH
	DB	02H
	DB	01bH
	DB	0c3H
	DB	04H
	DB	02H
	DB	054H
	DB	026H
	DB	07H
	DB	07H
	DB	07H
	DB	07H
	DB	051H
	DB	056H
	DB	024H
	DB	0dH
	DB	069H
	DB	0aH
	DB	095H
	DB	095H
	DB	095H
	DB	063H
	DB	0aH
	DB	0bH
	DB	03bH
	DB	051H
	DB	07H
	DB	07H
	DB	07H
	DB	07H
	DB	07H
	DB	03eH
	DB	042H
	DB	08H
	DB	023H
	DB	04H
	DB	02H
	DB	02bH
	DB	026H
	DB	07H
	DB	07H
	DB	07H
	DB	07H
	DB	051H
	DB	038H
	DB	024H
	DB	025H
	DB	08H
	DB	01bH
	DB	0c3H
	DB	04H
	DB	069H
	DB	024H
	DB	038H
	DB	051H
	DB	07H
	DB	07H
	DB	07H
	DB	07H
	DB	026H
	DB	02bH
	DB	041H
	DB	069H
	DB	023H
	DB	044H
	DB	068H
	DB	051H
	DB	07H
	DB	07H
	DB	07H
	DB	07H
	DB	051H
	DB	086H
	DB	03fH
	DB	03H
	DB	01eH
	DB	0aH
	DB	095H
	DB	095H
	DB	04H
	DB	04cH
	DB	0d8H
	DB	07H
	DB	07H
	DB	07H
	DB	07H
	DB	07H
	DB	051H
	DB	03bH
	DB	03fH
	DB	020H
	DB	01H
	DB	0aH
	DB	095H
	DB	095H
	DB	095H
	DB	095H
	DB	095H
	DB	095H
	DB	095H
	DB	095H
	DB	095H
	DB	095H
	DB	095H
	DB	095H
	DB	095H
	DB	095H
	DB	095H
	DB	095H
	DB	095H
	DB	095H
	DB	095H
	DB	095H
	DB	095H
	DB	095H
	DB	095H
	DB	095H
	DB	095H
	DB	095H
	DB	095H
	DB	095H
	DB	095H
	DB	095H
	DB	095H
	DB	095H
	DB	095H
	DB	095H
	DB	095H
	DB	095H
	DB	095H
	DB	095H
	DB	095H
	DB	095H
	DB	095H
	DB	095H
	DB	095H
	DB	095H
	DB	095H
	DB	095H
	DB	095H
	DB	095H
	DB	095H
	DB	095H
	DB	063H
	DB	0ccH
	DB	0aeH
	DB	05dH
	DB	01eH
	DB	01H
	DB	02H
	DB	08H
	DB	095H
	DB	0aH
	DB	0aH
	DB	0aH
	DB	01H
	DB	01eH
	DB	05aH
	DB	091H
	DB	02H
	DB	02H
	DB	0d7H
	DB	07aH
	DB	0d7H
	DB	02H
	DB	08H
	DB	036H
	DB	06aH
	DB	030H
	DB	0abH
	DB	092H
	DB	08H
	DB	05aH
	DB	010H
	DB	05fH
	DB	03aH
	DB	021H
	DB	021H
	DB	021H
	DB	0eH
	DB	0cdH
	DB	0f2H
	DB	0fdH
	DB	0eH
	DB	0eH
	DB	0beH
	DB	0beH
	DB	0beH
	DB	0f9H
	DB	05cH
	DB	03cH
	DB	03cH
	DB	029H
	DB	0c9H
	DB	02eH
	DB	06dH
	DB	065H
	DB	078H
	DB	060H
	DB	0b9H
	DB	05cH
	DB	046H
	DB	0faH
	DB	0eH
	DB	014H
	DB	09H
	DB	011H
	DB	01H
	DB	02H
	DB	08H
	DB	05eH
	DB	05aH
	DB	010H
	DB	010H
	DB	010H
	DB	010H
	DB	010H
	DB	010H
	DB	045H
	DB	03H
	DB	02H
	DB	033H
	DB	033H
	DB	033H
	DB	033H
	DB	020H
	DB	020H
	DB	03H
	DB	03H
	DB	03H
	DB	03H
	DB	03H
	DB	03H
	DB	03H
	DB	045H
	DB	045H
	DB	045H
	DB	045H
	DB	011H
	DB	011H
	DB	011H
	DB	0dH
	DB	0dH
	DB	0dH
	DB	0dH
	DB	0dH
	DB	0dH
	DB	0dH
	DB	0dH
	DB	0c0H
	DB	048H
	DB	048H
	DB	048H
	DB	048H
	DB	025H
	DB	025H
	DB	048H
	DB	048H
	DB	061H
	DB	061H
	DB	0cH
	DB	0cH
	DB	0cH
	DB	039H
	DB	045H
	DB	03H
	DB	094H
	DB	0aH
	DB	04H
	DB	07dH
	DB	083H
	DB	085H
	DB	039H
	DB	025H
	DB	09H
	DB	032H
	DB	01bH
	DB	04H
	DB	095H
	DB	095H
	DB	095H
	DB	095H
	DB	05H
	DB	099H
	DB	020H
	DB	00H
	DB	00H
	DB	00H
	DB	00H
	DB	00H
	DB	00H
	DB	00H
	DB	00H
	DB	00H
	DB	00H
	DB	00H
	DB	00H
	DB	00H
	DB	00H
	DB	00H
	DB	00H
	DB	00H
	DB	00H
	DB	00H
	DB	00H
	DB	00H
	DB	00H
	DB	00H
	DB	00H
	DB	00H
	DB	00H
	DB	00H
	DB	00H
	DB	00H
	DB	00H
	DB	00H
	DB	00H
	DB	0d2H
	DB	05H
	DB	0c4H
	DB	063H
	DB	095H
	DB	095H
	DB	095H
	DB	095H
	DB	095H
	DB	095H
	DB	095H
	DB	095H
	DB	095H
	DB	095H
	DB	095H
	DB	095H
	DB	095H
	DB	095H
	DB	04H
	DB	05fH
	DB	03fH
	DB	050H
	DB	051H
	DB	07H
	DB	07H
	DB	07H
	DB	07H
	DB	07H
	DB	051H
	DB	07eH
	DB	03bH
	DB	051H
	DB	07H
	DB	07H
	DB	051H
	DB	037H
	DB	00H
	DB	011H
	DB	010H
	DB	03fH
	DB	068H
	DB	051H
	DB	07H
	DB	07H
	DB	07H
	DB	07H
	DB	07H
	DB	026H
	DB	03eH
	DB	026H
	DB	07H
	DB	07H
	DB	07H
	DB	051H
	DB	086H
	DB	00H
	DB	03H
	DB	08H
	DB	023H
	DB	095H
	DB	04H
	DB	01H
	DB	00H
	DB	0c2H
	DB	051H
	DB	07H
	DB	07H
	DB	07H
	DB	07H
	DB	07H
	DB	051H
	DB	07H
	DB	026H
	DB	026H
	DB	051H
	DB	051H
	DB	051H
	DB	07H
	DB	07H
	DB	07H
	DB	07H
	DB	07H
	DB	07H
	DB	07H
	DB	043H
	DB	041H
	DB	01eH
	DB	0aH
	DB	095H
	DB	047H
	DB	072H
	DB	051H
	DB	07H
	DB	07H
	DB	07H
	DB	07H
	DB	051H
	DB	037H
	DB	03fH
	DB	02H
	DB	01H
	DB	0c3H
	DB	04H
	DB	02H
	DB	054H
	DB	026H
	DB	07H
	DB	07H
	DB	07H
	DB	07H
	DB	051H
	DB	056H
	DB	024H
	DB	0dH
	DB	069H
	DB	0aH
	DB	095H
	DB	095H
	DB	095H
	DB	063H
	DB	0aH
	DB	0bH
	DB	03bH
	DB	051H
	DB	07H
	DB	07H
	DB	07H
	DB	07H
	DB	07H
	DB	03eH
	DB	042H
	DB	08H
	DB	01bH
	DB	04H
	DB	02H
	DB	02bH
	DB	026H
	DB	07H
	DB	07H
	DB	07H
	DB	07H
	DB	051H
	DB	038H
	DB	024H
	DB	0dH
	DB	069H
	DB	0aH
	DB	095H
	DB	04H
	DB	069H
	DB	024H
	DB	038H
	DB	051H
	DB	07H
	DB	07H
	DB	07H
	DB	07H
	DB	026H
	DB	02bH
	DB	041H
	DB	01eH
	DB	01bH
	DB	00H
	DB	06fH
	DB	051H
	DB	07H
	DB	07H
	DB	07H
	DB	07H
	DB	051H
	DB	05bH
	DB	03fH
	DB	020H
	DB	069H
	DB	0aH
	DB	095H
	DB	095H
	DB	04H
	DB	04cH
	DB	071H
	DB	07H
	DB	07H
	DB	07H
	DB	07H
	DB	07H
	DB	051H
	DB	03bH
	DB	03fH
	DB	020H
	DB	01H
	DB	0aH
	DB	095H
	DB	095H
	DB	095H
	DB	095H
	DB	095H
	DB	095H
	DB	095H
	DB	095H
	DB	095H
	DB	095H
	DB	095H
	DB	095H
	DB	095H
	DB	095H
	DB	095H
	DB	095H
	DB	095H
	DB	095H
	DB	095H
	DB	095H
	DB	095H
	DB	095H
	DB	095H
	DB	095H
	DB	095H
	DB	095H
	DB	095H
	DB	095H
	DB	095H
	DB	095H
	DB	095H
	DB	095H
	DB	095H
	DB	095H
	DB	095H
	DB	095H
	DB	095H
	DB	095H
	DB	095H
	DB	095H
	DB	095H
	DB	095H
	DB	095H
	DB	095H
	DB	095H
	DB	095H
	DB	095H
	DB	095H
	DB	095H
	DB	0aH
	DB	0b5H
	DB	0f1H
	DB	08dH
	DB	06cH
	DB	01eH
	DB	05eH
	DB	07aH
	DB	05fH
	DB	0aH
	DB	0aH
	DB	01bH
	DB	069H
	DB	092H
	DB	010H
	DB	07aH
	DB	011H
	DB	0dH
	DB	03H
	DB	0d7H
	DB	03H
	DB	03H
	DB	03H
	DB	091H
	DB	091H
	DB	02H
	DB	02H
	DB	02H
	DB	076H
	DB	01eH
	DB	08H
	DB	08H
	DB	033H
	DB	01dH
	DB	021H
	DB	046H
	DB	046H
	DB	046H
	DB	06eH
	DB	0acH
	DB	0beH
	DB	0beH
	DB	0beH
	DB	021H
	DB	0fbH
	DB	0fbH
	DB	046H
	DB	05cH
	DB	049H
	DB	046H
	DB	065H
	DB	02cH
	DB	0c9H
	DB	040H
	DB	05H
	DB	04aH
	DB	022H
	DB	09fH
	DB	031H
	DB	028H
	DB	0beH
	DB	0eH
	DB	029H
	DB	04eH
	DB	045H
	DB	04aH
	DB	02H
	DB	02H
	DB	08H
	DB	010H
	DB	010H
	DB	010H
	DB	010H
	DB	02H
	DB	02H
	DB	02H
	DB	045H
	DB	03H
	DB	033H
	DB	020H
	DB	020H
	DB	07aH
	DB	07aH
	DB	03H
	DB	03H
	DB	03H
	DB	03H
	DB	03H
	DB	045H
	DB	045H
	DB	045H
	DB	045H
	DB	011H
	DB	011H
	DB	081H
	DB	0dH
	DB	0dH
	DB	0dH
	DB	0dH
	DB	0dH
	DB	0dH
	DB	0dH
	DB	0dH
	DB	0c0H
	DB	0c0H
	DB	0c0H
	DB	048H
	DB	0d4H
	DB	048H
	DB	048H
	DB	025H
	DB	048H
	DB	025H
	DB	025H
	DB	0cH
	DB	0cH
	DB	039H
	DB	039H
	DB	0c0H
	DB	039H
	DB	07aH
	DB	085H
	DB	01eH
	DB	08aH
	DB	05H
	DB	0b5H
	DB	01cH
	DB	01eH
	DB	010H
	DB	03H
	DB	0cH
	DB	025H
	DB	09H
	DB	032H
	DB	01bH
	DB	04H
	DB	095H
	DB	095H
	DB	095H
	DB	095H
	DB	05H
	DB	099H
	DB	020H
	DB	00H
	DB	00H
	DB	00H
	DB	00H
	DB	00H
	DB	00H
	DB	00H
	DB	00H
	DB	00H
	DB	00H
	DB	00H
	DB	00H
	DB	00H
	DB	00H
	DB	00H
	DB	00H
	DB	00H
	DB	00H
	DB	00H
	DB	00H
	DB	00H
	DB	00H
	DB	00H
	DB	00H
	DB	00H
	DB	00H
	DB	00H
	DB	00H
	DB	00H
	DB	00H
	DB	00H
	DB	00H
	DB	0d2H
	DB	05H
	DB	0c4H
	DB	063H
	DB	095H
	DB	095H
	DB	095H
	DB	095H
	DB	095H
	DB	095H
	DB	095H
	DB	095H
	DB	095H
	DB	095H
	DB	095H
	DB	095H
	DB	095H
	DB	095H
	DB	063H
	DB	095H
	DB	047H
	DB	07eH
	DB	051H
	DB	07H
	DB	07H
	DB	07H
	DB	07H
	DB	07H
	DB	07H
	DB	056H
	DB	026H
	DB	07H
	DB	07H
	DB	07H
	DB	07H
	DB	055H
	DB	044H
	DB	020H
	DB	08aH
	DB	041H
	DB	055H
	DB	051H
	DB	07H
	DB	07H
	DB	07H
	DB	07H
	DB	07H
	DB	07H
	DB	056H
	DB	07H
	DB	07H
	DB	07H
	DB	07H
	DB	07H
	DB	0d8H
	DB	044H
	DB	020H
	DB	01eH
	DB	0aH
	DB	095H
	DB	04H
	DB	047H
	DB	071H
	DB	07H
	DB	07H
	DB	07H
	DB	07H
	DB	07H
	DB	07H
	DB	026H
	DB	05bH
	DB	02bH
	DB	054H
	DB	054H
	DB	055H
	DB	050H
	DB	051H
	DB	07H
	DB	07H
	DB	07H
	DB	07H
	DB	07H
	DB	07H
	DB	07H
	DB	043H
	DB	047H
	DB	01eH
	DB	023H
	DB	095H
	DB	047H
	DB	072H
	DB	051H
	DB	07H
	DB	07H
	DB	07H
	DB	07H
	DB	051H
	DB	037H
	DB	03fH
	DB	02H
	DB	01H
	DB	036H
	DB	04H
	DB	04fH
	DB	054H
	DB	026H
	DB	07H
	DB	07H
	DB	07H
	DB	07H
	DB	051H
	DB	056H
	DB	024H
	DB	04cH
	DB	069H
	DB	0aH
	DB	095H
	DB	095H
	DB	095H
	DB	063H
	DB	0aH
	DB	0bH
	DB	03bH
	DB	051H
	DB	07H
	DB	07H
	DB	07H
	DB	07H
	DB	07H
	DB	03eH
	DB	042H
	DB	08H
	DB	01bH
	DB	04H
	DB	04fH
	DB	02bH
	DB	026H
	DB	07H
	DB	07H
	DB	07H
	DB	07H
	DB	051H
	DB	038H
	DB	024H
	DB	0dH
	DB	08aH
	DB	0aH
	DB	095H
	DB	04H
	DB	069H
	DB	024H
	DB	038H
	DB	051H
	DB	07H
	DB	07H
	DB	07H
	DB	07H
	DB	026H
	DB	02bH
	DB	041H
	DB	01eH
	DB	01bH
	DB	00H
	DB	070H
	DB	051H
	DB	07H
	DB	07H
	DB	07H
	DB	07H
	DB	051H
	DB	037H
	DB	03fH
	DB	098H
	DB	01H
	DB	0aH
	DB	095H
	DB	095H
	DB	04H
	DB	04cH
	DB	071H
	DB	07H
	DB	07H
	DB	07H
	DB	07H
	DB	07H
	DB	051H
	DB	03bH
	DB	03fH
	DB	020H
	DB	01H
	DB	0aH
	DB	095H
	DB	095H
	DB	095H
	DB	095H
	DB	095H
	DB	095H
	DB	095H
	DB	095H
	DB	095H
	DB	095H
	DB	095H
	DB	095H
	DB	095H
	DB	095H
	DB	095H
	DB	095H
	DB	095H
	DB	095H
	DB	095H
	DB	095H
	DB	095H
	DB	095H
	DB	095H
	DB	095H
	DB	095H
	DB	095H
	DB	095H
	DB	095H
	DB	095H
	DB	095H
	DB	095H
	DB	095H
	DB	095H
	DB	095H
	DB	095H
	DB	095H
	DB	095H
	DB	095H
	DB	095H
	DB	095H
	DB	095H
	DB	095H
	DB	095H
	DB	095H
	DB	095H
	DB	095H
	DB	095H
	DB	095H
	DB	095H
	DB	0aH
	DB	0e1H
	DB	078H
	DB	053H
	DB	063H
	DB	08aH
	DB	02H
	DB	091H
	DB	0aH
	DB	01bH
	DB	01bH
	DB	01eH
	DB	01eH
	DB	03H
	DB	0cH
	DB	09H
	DB	09H
	DB	0cH
	DB	081H
	DB	07aH
	DB	011H
	DB	02H
	DB	07aH
	DB	0dH
	DB	02H
	DB	08H
	DB	091H
	DB	091H
	DB	02H
	DB	05aH
	DB	01eH
	DB	05aH
	DB	010H
	DB	08H
	DB	052H
	DB	046H
	DB	03cH
	DB	03cH
	DB	046H
	DB	088H
	DB	05cH
	DB	0beH
	DB	028H
	DB	028H
	DB	0f9H
	DB	03cH
	DB	03cH
	DB	0cdH
	DB	062H
	DB	046H
	DB	0beH
	DB	031H
	DB	05H
	DB	030H
	DB	0ccH
	DB	049H
	DB	02dH
	DB	03cH
	DB	065H
	DB	0f9H
	DB	0beH
	DB	0eH
	DB	049H
	DB	0cH
	DB	020H
	DB	057H
	DB	033H
	DB	033H
	DB	05aH
	DB	02H
	DB	02H
	DB	02H
	DB	02H
	DB	033H
	DB	033H
	DB	033H
	DB	011H
	DB	045H
	DB	020H
	DB	07aH
	DB	03H
	DB	03H
	DB	03H
	DB	03H
	DB	03H
	DB	045H
	DB	045H
	DB	045H
	DB	011H
	DB	011H
	DB	011H
	DB	011H
	DB	0dH
	DB	0dH
	DB	048H
	DB	0dH
	DB	0dH
	DB	0c0H
	DB	0c0H
	DB	0c0H
	DB	0c0H
	DB	048H
	DB	048H
	DB	025H
	DB	048H
	DB	048H
	DB	048H
	DB	025H
	DB	061H
	DB	025H
	DB	025H
	DB	0cH
	DB	0cH
	DB	0cH
	DB	061H
	DB	0dH
	DB	08H
	DB	04H
	DB	099H
	DB	0aH
	DB	04H
	DB	0b8H
	DB	08aH
	DB	0c3H
	DB	020H
	DB	0c0H
	DB	03H
	DB	039H
	DB	039H
	DB	039H
	DB	0cH
	DB	0cH
	DB	032H
	DB	09H
	DB	0aH
	DB	04H
	DB	095H
	DB	095H
	DB	095H
	DB	095H
	DB	05H
	DB	099H
	DB	020H
	DB	00H
	DB	00H
	DB	00H
	DB	00H
	DB	00H
	DB	00H
	DB	00H
	DB	00H
	DB	00H
	DB	00H
	DB	00H
	DB	00H
	DB	00H
	DB	00H
	DB	00H
	DB	00H
	DB	00H
	DB	00H
	DB	00H
	DB	00H
	DB	00H
	DB	00H
	DB	00H
	DB	00H
	DB	00H
	DB	00H
	DB	00H
	DB	00H
	DB	00H
	DB	00H
	DB	00H
	DB	00H
	DB	0d2H
	DB	05H
	DB	0c4H
	DB	095H
	DB	095H
	DB	095H
	DB	095H
	DB	095H
	DB	095H
	DB	095H
	DB	095H
	DB	095H
	DB	095H
	DB	095H
	DB	095H
	DB	095H
	DB	095H
	DB	095H
	DB	095H
	DB	04H
	DB	058H
	DB	043H
	DB	07H
	DB	07H
	DB	07H
	DB	07H
	DB	07H
	DB	07H
	DB	07H
	DB	07H
	DB	07H
	DB	07H
	DB	07H
	DB	051H
	DB	056H
	DB	03dH
	DB	0cH
	DB	02H
	DB	01bH
	DB	02H
	DB	024H
	DB	038H
	DB	07H
	DB	07H
	DB	07H
	DB	07H
	DB	07H
	DB	07H
	DB	07H
	DB	07H
	DB	07H
	DB	07H
	DB	07H
	DB	026H
	DB	024H
	DB	041H
	DB	02H
	DB	01H
	DB	0aH
	DB	04H
	DB	08H
	DB	03dH
	DB	056H
	DB	051H
	DB	07H
	DB	07H
	DB	07H
	DB	07H
	DB	07H
	DB	071H
	DB	00H
	DB	042H
	DB	02fH
	DB	047H
	DB	044H
	DB	03dH
	DB	050H
	DB	051H
	DB	07H
	DB	07H
	DB	07H
	DB	07H
	DB	07H
	DB	07H
	DB	043H
	DB	047H
	DB	08H
	DB	023H
	DB	095H
	DB	047H
	DB	072H
	DB	051H
	DB	07H
	DB	07H
	DB	07H
	DB	07H
	DB	051H
	DB	037H
	DB	03fH
	DB	02H
	DB	01H
	DB	0aH
	DB	04H
	DB	04fH
	DB	054H
	DB	026H
	DB	07H
	DB	07H
	DB	07H
	DB	07H
	DB	051H
	DB	056H
	DB	024H
	DB	04cH
	DB	08aH
	DB	0aH
	DB	095H
	DB	095H
	DB	095H
	DB	095H
	DB	023H
	DB	0bH
	DB	03bH
	DB	051H
	DB	07H
	DB	07H
	DB	07H
	DB	07H
	DB	07H
	DB	03eH
	DB	042H
	DB	08H
	DB	01bH
	DB	063H
	DB	04fH
	DB	02bH
	DB	026H
	DB	07H
	DB	07H
	DB	07H
	DB	07H
	DB	051H
	DB	038H
	DB	024H
	DB	0dH
	DB	01eH
	DB	0aH
	DB	095H
	DB	063H
	DB	01eH
	DB	024H
	DB	038H
	DB	051H
	DB	07H
	DB	07H
	DB	07H
	DB	07H
	DB	026H
	DB	02bH
	DB	041H
	DB	01eH
	DB	01bH
	DB	00H
	DB	070H
	DB	051H
	DB	07H
	DB	07H
	DB	07H
	DB	07H
	DB	051H
	DB	05bH
	DB	03fH
	DB	02H
	DB	01H
	DB	0aH
	DB	095H
	DB	095H
	DB	04H
	DB	04cH
	DB	071H
	DB	07H
	DB	07H
	DB	07H
	DB	07H
	DB	07H
	DB	051H
	DB	03bH
	DB	03fH
	DB	03H
	DB	01H
	DB	0aH
	DB	095H
	DB	095H
	DB	095H
	DB	095H
	DB	095H
	DB	095H
	DB	095H
	DB	095H
	DB	095H
	DB	095H
	DB	095H
	DB	095H
	DB	095H
	DB	095H
	DB	095H
	DB	095H
	DB	095H
	DB	095H
	DB	095H
	DB	095H
	DB	095H
	DB	095H
	DB	095H
	DB	095H
	DB	095H
	DB	095H
	DB	095H
	DB	095H
	DB	095H
	DB	095H
	DB	095H
	DB	095H
	DB	095H
	DB	095H
	DB	095H
	DB	095H
	DB	095H
	DB	095H
	DB	095H
	DB	095H
	DB	095H
	DB	095H
	DB	095H
	DB	095H
	DB	095H
	DB	095H
	DB	095H
	DB	095H
	DB	095H
	DB	0aH
	DB	014H
	DB	02aH
	DB	04bH
	DB	01bH
	DB	01eH
	DB	0d7H
	DB	01H
	DB	01bH
	DB	01H
	DB	01eH
	DB	01eH
	DB	011H
	DB	09H
	DB	032H
	DB	09H
	DB	0cH
	DB	0dH
	DB	03H
	DB	033H
	DB	02H
	DB	076H
	DB	05aH
	DB	02H
	DB	0dH
	DB	098H
	DB	091H
	DB	010H
	DB	010H
	DB	02H
	DB	08H
	DB	08H
	DB	010H
	DB	045H
	DB	0e1H
	DB	0f9H
	DB	03aH
	DB	03aH
	DB	03aH
	DB	03aH
	DB	0eaH
	DB	028H
	DB	03cH
	DB	065H
	DB	03aH
	DB	02cH
	DB	02cH
	DB	035H
	DB	060H
	DB	03cH
	DB	019H
	DB	0acH
	DB	02eH
	DB	046H
	DB	02dH
	DB	03cH
	DB	0f9H
	DB	0f9H
	DB	03cH
	DB	0fbH
	DB	016H
	DB	0eH
	DB	028H
	DB	03H
	DB	033H
	DB	05H
	DB	020H
	DB	020H
	DB	010H
	DB	033H
	DB	033H
	DB	033H
	DB	020H
	DB	033H
	DB	020H
	DB	020H
	DB	011H
	DB	081H
	DB	03H
	DB	03H
	DB	03H
	DB	03H
	DB	03H
	DB	045H
	DB	045H
	DB	011H
	DB	011H
	DB	011H
	DB	011H
	DB	0dH
	DB	0cH
	DB	039H
	DB	0cH
	DB	0a8H
	DB	03H
	DB	039H
	DB	0c0H
	DB	0c0H
	DB	0c0H
	DB	048H
	DB	048H
	DB	025H
	DB	025H
	DB	025H
	DB	061H
	DB	061H
	DB	0cH
	DB	061H
	DB	0cH
	DB	039H
	DB	061H
	DB	0dH
	DB	03H
	DB	0a2H
	DB	085H
	DB	01cH
	DB	0a2H
	DB	09dH
	DB	09dH
	DB	099H
	DB	04H
	DB	0dH
	DB	098H
	DB	025H
	DB	039H
	DB	039H
	DB	039H
	DB	0cH
	DB	0cH
	DB	0cH
	DB	0cH
	DB	0cH
	DB	0bH
	DB	04eH
	DB	0aH
	DB	095H
	DB	095H
	DB	095H
	DB	095H
	DB	0c3H
	DB	05H
	DB	099H
	DB	020H
	DB	00H
	DB	00H
	DB	00H
	DB	00H
	DB	00H
	DB	00H
	DB	00H
	DB	00H
	DB	00H
	DB	00H
	DB	00H
	DB	00H
	DB	00H
	DB	00H
	DB	00H
	DB	00H
	DB	00H
	DB	00H
	DB	00H
	DB	00H
	DB	00H
	DB	00H
	DB	00H
	DB	00H
	DB	00H
	DB	00H
	DB	00H
	DB	00H
	DB	00H
	DB	00H
	DB	00H
	DB	00H
	DB	0d2H
	DB	05H
	DB	0c4H
	DB	095H
	DB	095H
	DB	095H
	DB	095H
	DB	095H
	DB	095H
	DB	095H
	DB	095H
	DB	095H
	DB	095H
	DB	095H
	DB	095H
	DB	095H
	DB	095H
	DB	095H
	DB	095H
	DB	04H
	DB	01eH
	DB	024H
	DB	056H
	DB	051H
	DB	07H
	DB	07H
	DB	07H
	DB	07H
	DB	07H
	DB	07H
	DB	07H
	DB	07H
	DB	07H
	DB	051H
	DB	086H
	DB	00H
	DB	0dH
	DB	064H
	DB	01bH
	DB	023H
	DB	044H
	DB	068H
	DB	051H
	DB	07H
	DB	07H
	DB	07H
	DB	07H
	DB	07H
	DB	07H
	DB	07H
	DB	07H
	DB	07H
	DB	051H
	DB	050H
	DB	03dH
	DB	025H
	DB	010H
	DB	01H
	DB	0aH
	DB	04H
	DB	04cH
	DB	055H
	DB	051H
	DB	07H
	DB	07H
	DB	07H
	DB	07H
	DB	051H
	DB	03bH
	DB	00H
	DB	047H
	DB	0dH
	DB	03H
	DB	033H
	DB	02H
	DB	02fH
	DB	055H
	DB	051H
	DB	07H
	DB	07H
	DB	07H
	DB	07H
	DB	07H
	DB	07H
	DB	043H
	DB	047H
	DB	08H
	DB	023H
	DB	095H
	DB	047H
	DB	072H
	DB	051H
	DB	07H
	DB	07H
	DB	07H
	DB	07H
	DB	051H
	DB	037H
	DB	03fH
	DB	02H
	DB	01H
	DB	0aH
	DB	04H
	DB	04fH
	DB	054H
	DB	026H
	DB	07H
	DB	07H
	DB	07H
	DB	07H
	DB	051H
	DB	056H
	DB	024H
	DB	04cH
	DB	08aH
	DB	0aH
	DB	095H
	DB	095H
	DB	095H
	DB	095H
	DB	023H
	DB	0bH
	DB	03bH
	DB	051H
	DB	07H
	DB	07H
	DB	07H
	DB	07H
	DB	07H
	DB	03eH
	DB	042H
	DB	08H
	DB	01bH
	DB	063H
	DB	04fH
	DB	02bH
	DB	026H
	DB	07H
	DB	07H
	DB	07H
	DB	07H
	DB	051H
	DB	038H
	DB	024H
	DB	0dH
	DB	01eH
	DB	0aH
	DB	095H
	DB	063H
	DB	01eH
	DB	024H
	DB	038H
	DB	051H
	DB	07H
	DB	07H
	DB	07H
	DB	07H
	DB	026H
	DB	02bH
	DB	041H
	DB	01eH
	DB	01H
	DB	00H
	DB	06fH
	DB	051H
	DB	07H
	DB	07H
	DB	07H
	DB	07H
	DB	051H
	DB	037H
	DB	03fH
	DB	02H
	DB	01H
	DB	0aH
	DB	095H
	DB	095H
	DB	04H
	DB	04cH
	DB	03eH
	DB	07H
	DB	07H
	DB	07H
	DB	07H
	DB	07H
	DB	051H
	DB	03bH
	DB	03fH
	DB	03H
	DB	01H
	DB	0aH
	DB	095H
	DB	095H
	DB	095H
	DB	095H
	DB	095H
	DB	095H
	DB	095H
	DB	095H
	DB	095H
	DB	095H
	DB	095H
	DB	095H
	DB	095H
	DB	095H
	DB	095H
	DB	095H
	DB	095H
	DB	095H
	DB	095H
	DB	095H
	DB	095H
	DB	095H
	DB	095H
	DB	095H
	DB	095H
	DB	095H
	DB	095H
	DB	095H
	DB	095H
	DB	095H
	DB	095H
	DB	095H
	DB	095H
	DB	095H
	DB	095H
	DB	095H
	DB	095H
	DB	095H
	DB	095H
	DB	095H
	DB	095H
	DB	095H
	DB	095H
	DB	095H
	DB	095H
	DB	095H
	DB	095H
	DB	095H
	DB	095H
	DB	0aH
	DB	059H
	DB	062H
	DB	040H
	DB	08aH
	DB	08H
	DB	098H
	DB	01H
	DB	01H
	DB	069H
	DB	01eH
	DB	03H
	DB	09H
	DB	09H
	DB	032H
	DB	039H
	DB	0cH
	DB	081H
	DB	07aH
	DB	02H
	DB	02H
	DB	02H
	DB	076H
	DB	08H
	DB	02H
	DB	0dH
	DB	02H
	DB	091H
	DB	010H
	DB	076H
	DB	02H
	DB	01eH
	DB	010H
	DB	03H
	DB	010H
	DB	078H
	DB	03aH
	DB	06dH
	DB	049H
	DB	065H
	DB	059H
	DB	088H
	DB	02dH
	DB	049H
	DB	035H
	DB	035H
	DB	0cdH
	DB	035H
	DB	0aeH
	DB	052H
	DB	0eH
	DB	035H
	DB	0ebH
	DB	028H
	DB	0f9H
	DB	03aH
	DB	0f2H
	DB	029H
	DB	031H
	DB	02dH
	DB	016H
	DB	016H
	DB	0beH
	DB	091H
	DB	033H
	DB	04aH
	DB	020H
	DB	020H
	DB	010H
	DB	020H
	DB	020H
	DB	020H
	DB	020H
	DB	03H
	DB	03H
	DB	03H
	DB	011H
	DB	0dH
	DB	03H
	DB	045H
	DB	045H
	DB	045H
	DB	011H
	DB	011H
	DB	0dH
	DB	0dH
	DB	0cH
	DB	061H
	DB	0c0H
	DB	0dH
	DB	01eH
	DB	0c4H
	DB	034H
	DB	0f1H
	DB	0f2H
	DB	05H
	DB	04eH
	DB	048H
	DB	025H
	DB	025H
	DB	061H
	DB	025H
	DB	025H
	DB	0cH
	DB	0cH
	DB	0cH
	DB	0cH
	DB	04eH
	DB	03H
	DB	0d7H
	DB	09dH
	DB	01cH
	DB	07dH
	DB	01eH
	DB	094H
	DB	07dH
	DB	01H
	DB	08H
	DB	039H
	DB	08aH
	DB	03H
	DB	09H
	DB	09H
	DB	039H
	DB	039H
	DB	039H
	DB	039H
	DB	039H
	DB	039H
	DB	039H
	DB	0cH
	DB	0cH
	DB	0bH
	DB	0cH
	DB	095H
	DB	095H
	DB	095H
	DB	095H
	DB	095H
	DB	0c3H
	DB	05H
	DB	099H
	DB	020H
	DB	00H
	DB	00H
	DB	00H
	DB	00H
	DB	00H
	DB	00H
	DB	00H
	DB	00H
	DB	00H
	DB	00H
	DB	00H
	DB	00H
	DB	00H
	DB	00H
	DB	00H
	DB	00H
	DB	00H
	DB	00H
	DB	00H
	DB	00H
	DB	00H
	DB	00H
	DB	00H
	DB	00H
	DB	00H
	DB	00H
	DB	00H
	DB	00H
	DB	00H
	DB	00H
	DB	00H
	DB	00H
	DB	0d2H
	DB	05H
	DB	0c4H
	DB	095H
	DB	036H
	DB	036H
	DB	036H
	DB	036H
	DB	036H
	DB	036H
	DB	036H
	DB	036H
	DB	036H
	DB	036H
	DB	036H
	DB	036H
	DB	036H
	DB	036H
	DB	036H
	DB	036H
	DB	0aH
	DB	044H
	DB	068H
	DB	051H
	DB	07H
	DB	07H
	DB	07H
	DB	07H
	DB	07H
	DB	07H
	DB	07H
	DB	07H
	DB	07H
	DB	051H
	DB	055H
	DB	044H
	DB	03H
	DB	08H
	DB	023H
	DB	04H
	DB	041H
	DB	03eH
	DB	07H
	DB	07H
	DB	07H
	DB	07H
	DB	07H
	DB	07H
	DB	07H
	DB	07H
	DB	07H
	DB	07H
	DB	051H
	DB	0c2H
	DB	03fH
	DB	03H
	DB	08H
	DB	01bH
	DB	0c3H
	DB	095H
	DB	02fH
	DB	037H
	DB	051H
	DB	07H
	DB	07H
	DB	07H
	DB	07H
	DB	051H
	DB	07eH
	DB	03fH
	DB	0dH
	DB	020H
	DB	091H
	DB	01eH
	DB	01H
	DB	020H
	DB	024H
	DB	038H
	DB	07H
	DB	07H
	DB	07H
	DB	07H
	DB	07H
	DB	07H
	DB	043H
	DB	047H
	DB	08H
	DB	023H
	DB	036H
	DB	047H
	DB	072H
	DB	051H
	DB	07H
	DB	07H
	DB	07H
	DB	07H
	DB	051H
	DB	037H
	DB	03fH
	DB	02H
	DB	01H
	DB	0aH
	DB	063H
	DB	04fH
	DB	054H
	DB	026H
	DB	07H
	DB	07H
	DB	07H
	DB	07H
	DB	051H
	DB	056H
	DB	024H
	DB	04cH
	DB	08aH
	DB	0aH
	DB	036H
	DB	036H
	DB	036H
	DB	095H
	DB	023H
	DB	0bH
	DB	03bH
	DB	051H
	DB	07H
	DB	07H
	DB	07H
	DB	07H
	DB	07H
	DB	03eH
	DB	042H
	DB	08H
	DB	01bH
	DB	095H
	DB	04fH
	DB	02bH
	DB	026H
	DB	07H
	DB	07H
	DB	07H
	DB	07H
	DB	051H
	DB	038H
	DB	024H
	DB	04cH
	DB	01eH
	DB	0aH
	DB	036H
	DB	095H
	DB	01eH
	DB	024H
	DB	038H
	DB	051H
	DB	07H
	DB	07H
	DB	07H
	DB	07H
	DB	026H
	DB	02bH
	DB	041H
	DB	01eH
	DB	0a2H
	DB	044H
	DB	03bH
	DB	051H
	DB	07H
	DB	07H
	DB	07H
	DB	07H
	DB	051H
	DB	03bH
	DB	0d2H
	DB	0d7H
	DB	01H
	DB	0aH
	DB	036H
	DB	036H
	DB	063H
	DB	047H
	DB	07eH
	DB	051H
	DB	07H
	DB	07H
	DB	07H
	DB	07H
	DB	051H
	DB	03bH
	DB	03fH
	DB	03H
	DB	01H
	DB	0aH
	DB	036H
	DB	036H
	DB	036H
	DB	036H
	DB	036H
	DB	036H
	DB	036H
	DB	036H
	DB	036H
	DB	036H
	DB	036H
	DB	036H
	DB	036H
	DB	036H
	DB	036H
	DB	036H
	DB	036H
	DB	036H
	DB	036H
	DB	036H
	DB	036H
	DB	036H
	DB	036H
	DB	036H
	DB	036H
	DB	036H
	DB	036H
	DB	036H
	DB	036H
	DB	036H
	DB	036H
	DB	036H
	DB	036H
	DB	036H
	DB	036H
	DB	036H
	DB	036H
	DB	036H
	DB	036H
	DB	036H
	DB	036H
	DB	036H
	DB	036H
	DB	036H
	DB	036H
	DB	036H
	DB	036H
	DB	036H
	DB	036H
	DB	0aH
	DB	0c9H
	DB	029H
	DB	05dH
	DB	01eH
	DB	02H
	DB	08H
	DB	096H
	DB	01bH
	DB	01eH
	DB	010H
	DB	04eH
	DB	09H
	DB	0bfH
	DB	039H
	DB	0dH
	DB	0dH
	DB	061H
	DB	0dH
	DB	020H
	DB	02H
	DB	010H
	DB	02H
	DB	02H
	DB	010H
	DB	07aH
	DB	0dH
	DB	076H
	DB	076H
	DB	010H
	DB	02H
	DB	05aH
	DB	08H
	DB	07aH
	DB	025H
	DB	077H
	DB	03aH
	DB	049H
	DB	049H
	DB	06dH
	DB	088H
	DB	04bH
	DB	06dH
	DB	0f2H
	DB	02eH
	DB	02eH
	DB	02eH
	DB	02eH
	DB	02eH
	DB	0ccH
	DB	0eH
	DB	0eH
	DB	097H
	DB	034H
	DB	031H
	DB	0cbH
	DB	0f1H
	DB	0a0H
	DB	021H
	DB	016H
	DB	016H
	DB	0feH
	DB	0fcH
	DB	094H
	DB	020H
	DB	036H
	DB	020H
	DB	03H
	DB	02H
	DB	07aH
	DB	020H
	DB	03H
	DB	03H
	DB	03H
	DB	03H
	DB	03H
	DB	0dH
	DB	0dH
	DB	03H
	DB	011H
	DB	011H
	DB	0dH
	DB	0dH
	DB	0dH
	DB	0dH
	DB	0dH
	DB	01eH
	DB	08H
	DB	02H
	DB	0ccH
	DB	02cH
	DB	052H
	DB	0c9H
	DB	0c4H
	DB	029H
	DB	02aH
	DB	0dH
	DB	0cH
	DB	025H
	DB	0cH
	DB	0cH
	DB	0cH
	DB	0cH
	DB	0cH
	DB	0cH
	DB	039H
	DB	094H
	DB	0aH
	DB	022H
	DB	0b6H
	DB	09dH
	DB	01eH
	DB	01cH
	DB	045H
	DB	0c0H
	DB	048H
	DB	039H
	DB	09H
	DB	039H
	DB	039H
	DB	04eH
	DB	039H
	DB	039H
	DB	039H
	DB	039H
	DB	039H
	DB	039H
	DB	039H
	DB	039H
	DB	039H
	DB	0cH
	DB	039H
	DB	082H
	DB	081H
	DB	063H
	DB	036H
	DB	036H
	DB	036H
	DB	036H
	DB	036H
	DB	05H
	DB	099H
	DB	020H
	DB	00H
	DB	00H
	DB	00H
	DB	00H
	DB	00H
	DB	00H
	DB	00H
	DB	00H
	DB	00H
	DB	00H
	DB	00H
	DB	00H
	DB	00H
	DB	00H
	DB	00H
	DB	00H
	DB	00H
	DB	00H
	DB	00H
	DB	00H
	DB	00H
	DB	00H
	DB	00H
	DB	00H
	DB	00H
	DB	00H
	DB	00H
	DB	00H
	DB	00H
	DB	00H
	DB	00H
	DB	00H
	DB	0d2H
	DB	05H
	DB	0c4H
	DB	095H
	DB	0c3H
	DB	0c3H
	DB	0c3H
	DB	0c3H
	DB	0c3H
	DB	0c3H
	DB	0c3H
	DB	0c3H
	DB	0c3H
	DB	0c3H
	DB	0c3H
	DB	0c3H
	DB	0c3H
	DB	0c3H
	DB	0c3H
	DB	0c3H
	DB	095H
	DB	041H
	DB	03eH
	DB	051H
	DB	07H
	DB	07H
	DB	07H
	DB	07H
	DB	07H
	DB	07H
	DB	07H
	DB	07H
	DB	051H
	DB	038H
	DB	024H
	DB	047H
	DB	033H
	DB	069H
	DB	0aH
	DB	063H
	DB	010H
	DB	024H
	DB	026H
	DB	07H
	DB	07H
	DB	07H
	DB	07H
	DB	07H
	DB	07H
	DB	07H
	DB	07H
	DB	07H
	DB	07H
	DB	055H
	DB	042H
	DB	098H
	DB	01eH
	DB	05fH
	DB	095H
	DB	0aH
	DB	03fH
	DB	03bH
	DB	051H
	DB	07H
	DB	07H
	DB	07H
	DB	07H
	DB	07H
	DB	071H
	DB	044H
	DB	020H
	DB	08H
	DB	01H
	DB	0aH
	DB	036H
	DB	01eH
	DB	024H
	DB	06fH
	DB	051H
	DB	07H
	DB	07H
	DB	07H
	DB	07H
	DB	07H
	DB	043H
	DB	047H
	DB	08H
	DB	01bH
	DB	036H
	DB	047H
	DB	072H
	DB	051H
	DB	07H
	DB	07H
	DB	07H
	DB	07H
	DB	051H
	DB	037H
	DB	03fH
	DB	02H
	DB	01H
	DB	0aH
	DB	063H
	DB	04fH
	DB	054H
	DB	026H
	DB	07H
	DB	07H
	DB	07H
	DB	07H
	DB	051H
	DB	056H
	DB	024H
	DB	04cH
	DB	01eH
	DB	05fH
	DB	0c3H
	DB	0c3H
	DB	0c3H
	DB	095H
	DB	023H
	DB	0bH
	DB	03bH
	DB	051H
	DB	07H
	DB	07H
	DB	07H
	DB	07H
	DB	07H
	DB	03eH
	DB	042H
	DB	08H
	DB	01bH
	DB	095H
	DB	04fH
	DB	02bH
	DB	026H
	DB	07H
	DB	07H
	DB	07H
	DB	07H
	DB	051H
	DB	038H
	DB	024H
	DB	04cH
	DB	01eH
	DB	023H
	DB	0c3H
	DB	095H
	DB	01eH
	DB	024H
	DB	038H
	DB	051H
	DB	07H
	DB	07H
	DB	07H
	DB	07H
	DB	026H
	DB	02bH
	DB	041H
	DB	01eH
	DB	023H
	DB	02fH
	DB	037H
	DB	051H
	DB	07H
	DB	07H
	DB	07H
	DB	07H
	DB	051H
	DB	06fH
	DB	03dH
	DB	020H
	DB	01H
	DB	0aH
	DB	0c3H
	DB	0c3H
	DB	04H
	DB	042H
	DB	05bH
	DB	051H
	DB	07H
	DB	07H
	DB	07H
	DB	07H
	DB	051H
	DB	03bH
	DB	03fH
	DB	03H
	DB	069H
	DB	0aH
	DB	0c3H
	DB	095H
	DB	04H
	DB	04H
	DB	04H
	DB	04H
	DB	04H
	DB	04H
	DB	04H
	DB	063H
	DB	0c3H
	DB	0c3H
	DB	0c3H
	DB	0c3H
	DB	095H
	DB	04H
	DB	04H
	DB	04H
	DB	04H
	DB	04H
	DB	04H
	DB	04H
	DB	063H
	DB	0c3H
	DB	0c3H
	DB	0c3H
	DB	0c3H
	DB	063H
	DB	04H
	DB	04H
	DB	04H
	DB	04H
	DB	04H
	DB	04H
	DB	04H
	DB	04H
	DB	0c3H
	DB	0c3H
	DB	0c3H
	DB	0c3H
	DB	0c3H
	DB	0c3H
	DB	0c3H
	DB	0c3H
	DB	0c3H
	DB	0c3H
	DB	0c3H
	DB	0c3H
	DB	0c3H
	DB	0aH
	DB	0cbH
	DB	062H
	DB	06aH
	DB	092H
	DB	07aH
	DB	01bH
	DB	01dH
	DB	036H
	DB	08H
	DB	011H
	DB	09H
	DB	032H
	DB	032H
	DB	0c0H
	DB	011H
	DB	0c0H
	DB	09H
	DB	0bfH
	DB	09H
	DB	0cH
	DB	081H
	DB	01H
	DB	0aH
	DB	08H
	DB	05aH
	DB	011H
	DB	0a8H
	DB	076H
	DB	076H
	DB	02H
	DB	02H
	DB	01eH
	DB	02H
	DB	061H
	DB	05eH
	DB	0f6H
	DB	049H
	DB	049H
	DB	049H
	DB	06dH
	DB	01dH
	DB	088H
	DB	02eH
	DB	02eH
	DB	02eH
	DB	052H
	DB	052H
	DB	049H
	DB	05cH
	DB	0faH
	DB	016H
	DB	016H
	DB	028H
	DB	021H
	DB	016H
	DB	0ffH
	DB	0ffH
	DB	090H
	DB	0fcH
	DB	016H
	DB	0feH
	DB	0fdH
	DB	05H
	DB	045H
	DB	05fH
	DB	03H
	DB	03H
	DB	02H
	DB	03H
	DB	03H
	DB	03H
	DB	03H
	DB	045H
	DB	045H
	DB	045H
	DB	0dH
	DB	0dH
	DB	03H
	DB	0dH
	DB	061H
	DB	0c0H
	DB	0dH
	DB	0dH
	DB	0cH
	DB	091H
	DB	0faH
	DB	030H
	DB	02H
	DB	028H
	DB	0ebH
	DB	03H
	DB	025H
	DB	09H
	DB	030H
	DB	052H
	DB	0d7H
	DB	039H
	DB	0cH
	DB	0cH
	DB	0cH
	DB	0cH
	DB	0cH
	DB	0cH
	DB	0cH
	DB	09H
	DB	0b5H
	DB	0aH
	DB	08H
	DB	05H
	DB	081H
	DB	09H
	DB	039H
	DB	039H
	DB	039H
	DB	04eH
	DB	039H
	DB	039H
	DB	039H
	DB	04eH
	DB	04eH
	DB	04eH
	DB	04eH
	DB	04eH
	DB	04eH
	DB	04eH
	DB	039H
	DB	039H
	DB	039H
	DB	039H
	DB	039H
	DB	04eH
	DB	080H
	DB	02H
	DB	063H
	DB	0c3H
	DB	0c3H
	DB	0c3H
	DB	0c3H
	DB	0aH
	DB	05H
	DB	099H
	DB	020H
	DB	00H
	DB	00H
	DB	00H
	DB	00H
	DB	00H
	DB	00H
	DB	00H
	DB	00H
	DB	00H
	DB	00H
	DB	00H
	DB	00H
	DB	00H
	DB	00H
	DB	00H
	DB	00H
	DB	00H
	DB	00H
	DB	00H
	DB	00H
	DB	00H
	DB	00H
	DB	00H
	DB	00H
	DB	00H
	DB	00H
	DB	00H
	DB	00H
	DB	00H
	DB	00H
	DB	00H
	DB	00H
	DB	0d2H
	DB	05H
	DB	0c4H
	DB	095H
	DB	0c3H
	DB	0c3H
	DB	0c3H
	DB	0c3H
	DB	0c3H
	DB	0c3H
	DB	0c3H
	DB	0c3H
	DB	0c3H
	DB	0c3H
	DB	0c3H
	DB	0c3H
	DB	0c3H
	DB	0c3H
	DB	0c3H
	DB	0c3H
	DB	04H
	DB	04fH
	DB	054H
	DB	07H
	DB	07H
	DB	07H
	DB	07H
	DB	07H
	DB	07H
	DB	07H
	DB	07H
	DB	07H
	DB	051H
	DB	068H
	DB	00H
	DB	0dH
	DB	02H
	DB	01H
	DB	0aH
	DB	095H
	DB	01bH
	DB	03fH
	DB	068H
	DB	051H
	DB	07H
	DB	07H
	DB	07H
	DB	07H
	DB	07H
	DB	07H
	DB	07H
	DB	07H
	DB	038H
	DB	03dH
	DB	0cH
	DB	02H
	DB	01H
	DB	0aH
	DB	095H
	DB	0aH
	DB	00H
	DB	050H
	DB	051H
	DB	07H
	DB	07H
	DB	07H
	DB	07H
	DB	07H
	DB	071H
	DB	044H
	DB	02H
	DB	069H
	DB	0aH
	DB	036H
	DB	095H
	DB	069H
	DB	024H
	DB	06fH
	DB	051H
	DB	07H
	DB	07H
	DB	07H
	DB	07H
	DB	07H
	DB	043H
	DB	047H
	DB	08H
	DB	01bH
	DB	0c3H
	DB	047H
	DB	072H
	DB	051H
	DB	07H
	DB	07H
	DB	07H
	DB	07H
	DB	051H
	DB	037H
	DB	03fH
	DB	02H
	DB	01H
	DB	0aH
	DB	063H
	DB	04fH
	DB	054H
	DB	026H
	DB	07H
	DB	07H
	DB	07H
	DB	07H
	DB	051H
	DB	056H
	DB	024H
	DB	04cH
	DB	01eH
	DB	023H
	DB	0c3H
	DB	0c3H
	DB	0c3H
	DB	095H
	DB	023H
	DB	0bH
	DB	03bH
	DB	051H
	DB	07H
	DB	07H
	DB	07H
	DB	07H
	DB	07H
	DB	03eH
	DB	042H
	DB	08H
	DB	01H
	DB	095H
	DB	04fH
	DB	02bH
	DB	026H
	DB	07H
	DB	07H
	DB	07H
	DB	07H
	DB	051H
	DB	038H
	DB	024H
	DB	04cH
	DB	01eH
	DB	023H
	DB	0c3H
	DB	095H
	DB	01eH
	DB	024H
	DB	038H
	DB	051H
	DB	07H
	DB	07H
	DB	07H
	DB	07H
	DB	026H
	DB	02bH
	DB	041H
	DB	01eH
	DB	0aH
	DB	04cH
	DB	071H
	DB	051H
	DB	07H
	DB	07H
	DB	07H
	DB	07H
	DB	07H
	DB	026H
	DB	03dH
	DB	0dH
	DB	01H
	DB	0aH
	DB	0c3H
	DB	095H
	DB	023H
	DB	03fH
	DB	03bH
	DB	051H
	DB	07H
	DB	07H
	DB	07H
	DB	07H
	DB	051H
	DB	03bH
	DB	03fH
	DB	03H
	DB	069H
	DB	0aH
	DB	095H
	DB	069H
	DB	058H
	DB	058H
	DB	058H
	DB	058H
	DB	058H
	DB	058H
	DB	058H
	DB	08H
	DB	095H
	DB	0c3H
	DB	036H
	DB	095H
	DB	069H
	DB	0d6H
	DB	058H
	DB	058H
	DB	058H
	DB	058H
	DB	058H
	DB	058H
	DB	08H
	DB	095H
	DB	0c3H
	DB	0c3H
	DB	095H
	DB	01eH
	DB	058H
	DB	058H
	DB	058H
	DB	058H
	DB	058H
	DB	058H
	DB	058H
	DB	010H
	DB	095H
	DB	0c3H
	DB	0c3H
	DB	0c3H
	DB	0c3H
	DB	0c3H
	DB	0c3H
	DB	0c3H
	DB	0c3H
	DB	0c3H
	DB	0c3H
	DB	0c3H
	DB	0aH
	DB	04H
	DB	062H
	DB	088H
	DB	022H
	DB	08H
	DB	03H
	DB	057H
	DB	0e2H
	DB	05eH
	DB	076H
	DB	039H
	DB	032H
	DB	0bH
	DB	04eH
	DB	011H
	DB	011H
	DB	0cH
	DB	09H
	DB	09H
	DB	09H
	DB	0bfH
	DB	09H
	DB	09eH
	DB	0baH
	DB	083H
	DB	0a9H
	DB	09dH
	DB	081H
	DB	033H
	DB	010H
	DB	076H
	DB	02H
	DB	05aH
	DB	08H
	DB	0dH
	DB	0c0H
	DB	07fH
	DB	03aH
	DB	049H
	DB	049H
	DB	03cH
	DB	0c9H
	DB	08dH
	DB	035H
	DB	02eH
	DB	0f2H
	DB	035H
	DB	049H
	DB	02cH
	DB	02cH
	DB	02dH
	DB	0ffH
	DB	016H
	DB	090H
	DB	090H
	DB	0fcH
	DB	016H
	DB	016H
	DB	0fcH
	DB	0fcH
	DB	0fcH
	DB	0fcH
	DB	06H
	DB	01cH
	DB	0dH
	DB	01bH
	DB	045H
	DB	03H
	DB	033H
	DB	045H
	DB	045H
	DB	045H
	DB	045H
	DB	045H
	DB	011H
	DB	011H
	DB	0dH
	DB	0c0H
	DB	03H
	DB	0cH
	DB	083H
	DB	049H
	DB	01H
	DB	0cH
	DB	039H
	DB	091H
	DB	049H
	DB	04dH
	DB	02H
	DB	02dH
	DB	04bH
	DB	09H
	DB	0cH
	DB	0cH
	DB	034H
	DB	02eH
	DB	07aH
	DB	039H
	DB	0cH
	DB	0cH
	DB	0cH
	DB	0cH
	DB	0cH
	DB	0cH
	DB	0cH
	DB	039H
	DB	07aH
	DB	025H
	DB	09H
	DB	09H
	DB	039H
	DB	039H
	DB	039H
	DB	039H
	DB	039H
	DB	039H
	DB	04eH
	DB	04eH
	DB	04eH
	DB	04eH
	DB	04eH
	DB	04eH
	DB	04eH
	DB	04eH
	DB	04eH
	DB	04eH
	DB	04eH
	DB	04eH
	DB	039H
	DB	039H
	DB	039H
	DB	09H
	DB	0bH
	DB	01eH
	DB	095H
	DB	0c3H
	DB	0c3H
	DB	0c3H
	DB	0c3H
	DB	0aH
	DB	05H
	DB	099H
	DB	020H
	DB	00H
	DB	00H
	DB	00H
	DB	00H
	DB	00H
	DB	00H
	DB	00H
	DB	00H
	DB	00H
	DB	00H
	DB	00H
	DB	00H
	DB	00H
	DB	00H
	DB	00H
	DB	00H
	DB	00H
	DB	00H
	DB	00H
	DB	00H
	DB	00H
	DB	00H
	DB	00H
	DB	00H
	DB	00H
	DB	00H
	DB	00H
	DB	00H
	DB	00H
	DB	00H
	DB	00H
	DB	00H
	DB	0d2H
	DB	05H
	DB	0c4H
	DB	036H
	DB	036H
	DB	036H
	DB	036H
	DB	036H
	DB	036H
	DB	036H
	DB	036H
	DB	036H
	DB	036H
	DB	036H
	DB	036H
	DB	036H
	DB	036H
	DB	036H
	DB	036H
	DB	036H
	DB	095H
	DB	069H
	DB	082H
	DB	06fH
	DB	051H
	DB	07H
	DB	07H
	DB	07H
	DB	07H
	DB	07H
	DB	07H
	DB	07H
	DB	07H
	DB	055H
	DB	044H
	DB	03H
	DB	08H
	DB	01bH
	DB	0aH
	DB	0c3H
	DB	095H
	DB	041H
	DB	0d8H
	DB	051H
	DB	07H
	DB	07H
	DB	07H
	DB	07H
	DB	07H
	DB	07H
	DB	07H
	DB	051H
	DB	068H
	DB	00H
	DB	0dH
	DB	010H
	DB	01H
	DB	0aH
	DB	036H
	DB	0aH
	DB	03fH
	DB	050H
	DB	051H
	DB	07H
	DB	07H
	DB	07H
	DB	07H
	DB	051H
	DB	066H
	DB	03fH
	DB	010H
	DB	01H
	DB	0aH
	DB	036H
	DB	04H
	DB	064H
	DB	024H
	DB	038H
	DB	07H
	DB	07H
	DB	07H
	DB	07H
	DB	07H
	DB	07H
	DB	043H
	DB	047H
	DB	08H
	DB	01bH
	DB	0c3H
	DB	047H
	DB	072H
	DB	051H
	DB	07H
	DB	07H
	DB	07H
	DB	07H
	DB	051H
	DB	037H
	DB	03fH
	DB	02H
	DB	01H
	DB	0aH
	DB	095H
	DB	04fH
	DB	054H
	DB	026H
	DB	07H
	DB	07H
	DB	07H
	DB	07H
	DB	051H
	DB	056H
	DB	024H
	DB	04cH
	DB	01eH
	DB	023H
	DB	036H
	DB	036H
	DB	036H
	DB	036H
	DB	023H
	DB	0bH
	DB	03bH
	DB	051H
	DB	07H
	DB	07H
	DB	07H
	DB	07H
	DB	07H
	DB	03eH
	DB	042H
	DB	091H
	DB	01H
	DB	095H
	DB	04fH
	DB	02bH
	DB	026H
	DB	07H
	DB	07H
	DB	07H
	DB	07H
	DB	051H
	DB	038H
	DB	024H
	DB	04cH
	DB	01eH
	DB	023H
	DB	036H
	DB	095H
	DB	01eH
	DB	024H
	DB	038H
	DB	051H
	DB	07H
	DB	07H
	DB	07H
	DB	07H
	DB	026H
	DB	02bH
	DB	041H
	DB	08H
	DB	0aH
	DB	04fH
	DB	054H
	DB	07H
	DB	07H
	DB	07H
	DB	07H
	DB	07H
	DB	07H
	DB	07H
	DB	066H
	DB	044H
	DB	069H
	DB	0c3H
	DB	063H
	DB	04H
	DB	058H
	DB	054H
	DB	026H
	DB	07H
	DB	07H
	DB	07H
	DB	07H
	DB	07H
	DB	051H
	DB	03bH
	DB	03fH
	DB	03H
	DB	069H
	DB	0aH
	DB	01eH
	DB	024H
	DB	02bH
	DB	043H
	DB	043H
	DB	043H
	DB	043H
	DB	043H
	DB	043H
	DB	024H
	DB	02H
	DB	095H
	DB	095H
	DB	069H
	DB	024H
	DB	02bH
	DB	043H
	DB	043H
	DB	043H
	DB	043H
	DB	043H
	DB	043H
	DB	024H
	DB	02H
	DB	095H
	DB	095H
	DB	01H
	DB	080H
	DB	02bH
	DB	043H
	DB	043H
	DB	043H
	DB	043H
	DB	043H
	DB	043H
	DB	024H
	DB	02H
	DB	095H
	DB	036H
	DB	036H
	DB	036H
	DB	036H
	DB	036H
	DB	036H
	DB	036H
	DB	036H
	DB	036H
	DB	036H
	DB	0aH
	DB	04H
	DB	02aH
	DB	05cH
	DB	0b5H
	DB	08H
	DB	03H
	DB	05H
	DB	022H
	DB	05aH
	DB	020H
	DB	09H
	DB	032H
	DB	0bH
	DB	0cH
	DB	0a8H
	DB	0dH
	DB	0c0H
	DB	09H
	DB	0d3H
	DB	09bH
	DB	0bfH
	DB	061H
	DB	0c6H
	DB	0c6H
	DB	07cH
	DB	07cH
	DB	0bbH
	DB	09cH
	DB	0dH
	DB	010H
	DB	010H
	DB	02H
	DB	02H
	DB	08H
	DB	020H
	DB	039H
	DB	06aH
	DB	03cH
	DB	03aH
	DB	03aH
	DB	03cH
	DB	02cH
	DB	053H
	DB	06dH
	DB	049H
	DB	049H
	DB	02cH
	DB	065H
	DB	02dH
	DB	028H
	DB	02cH
	DB	0feH
	DB	016H
	DB	016H
	DB	016H
	DB	016H
	DB	0fcH
	DB	0fcH
	DB	016H
	DB	016H
	DB	016H
	DB	016H
	DB	0fdH
	DB	08cH
	DB	048H
	DB	01bH
	DB	045H
	DB	045H
	DB	020H
	DB	045H
	DB	011H
	DB	011H
	DB	011H
	DB	011H
	DB	0dH
	DB	0dH
	DB	048H
	DB	061H
	DB	081H
	DB	09H
	DB	0ebH
	DB	0ffH
	DB	01H
	DB	0bH
	DB	039H
	DB	02H
	DB	022H
	DB	0aH
	DB	010H
	DB	02dH
	DB	0c7H
	DB	09H
	DB	09H
	DB	032H
	DB	0acH
	DB	029H
	DB	0c0H
	DB	039H
	DB	0cH
	DB	0cH
	DB	039H
	DB	0cH
	DB	0cH
	DB	039H
	DB	039H
	DB	039H
	DB	09H
	DB	04eH
	DB	039H
	DB	039H
	DB	039H
	DB	04eH
	DB	04eH
	DB	04eH
	DB	04eH
	DB	04eH
	DB	04eH
	DB	04eH
	DB	04eH
	DB	04eH
	DB	04eH
	DB	04eH
	DB	09H
	DB	09H
	DB	04eH
	DB	04eH
	DB	04eH
	DB	04eH
	DB	04eH
	DB	039H
	DB	039H
	DB	032H
	DB	09H
	DB	023H
	DB	036H
	DB	036H
	DB	036H
	DB	036H
	DB	036H
	DB	0aH
	DB	05H
	DB	099H
	DB	020H
	DB	00H
	DB	00H
	DB	00H
	DB	00H
	DB	00H
	DB	00H
	DB	00H
	DB	00H
	DB	00H
	DB	00H
	DB	00H
	DB	00H
	DB	00H
	DB	00H
	DB	00H
	DB	00H
	DB	00H
	DB	00H
	DB	00H
	DB	00H
	DB	00H
	DB	00H
	DB	00H
	DB	00H
	DB	00H
	DB	00H
	DB	00H
	DB	00H
	DB	00H
	DB	00H
	DB	00H
	DB	00H
	DB	0d2H
	DB	05H
	DB	0c4H
	DB	0c3H
	DB	0aH
	DB	0aH
	DB	0aH
	DB	0aH
	DB	0aH
	DB	0aH
	DB	0aH
	DB	0aH
	DB	0aH
	DB	0aH
	DB	0aH
	DB	0aH
	DB	0aH
	DB	0aH
	DB	0aH
	DB	0aH
	DB	0aH
	DB	095H
	DB	042H
	DB	037H
	DB	051H
	DB	07H
	DB	07H
	DB	07H
	DB	07H
	DB	07H
	DB	07H
	DB	07H
	DB	038H
	DB	03dH
	DB	047H
	DB	033H
	DB	01eH
	DB	0aH
	DB	0aH
	DB	0aH
	DB	063H
	DB	04fH
	DB	054H
	DB	038H
	DB	07H
	DB	07H
	DB	07H
	DB	07H
	DB	07H
	DB	07H
	DB	07H
	DB	051H
	DB	03eH
	DB	044H
	DB	03H
	DB	08H
	DB	01bH
	DB	0aH
	DB	0c3H
	DB	0aH
	DB	044H
	DB	086H
	DB	051H
	DB	07H
	DB	07H
	DB	07H
	DB	07H
	DB	051H
	DB	03bH
	DB	00H
	DB	03H
	DB	023H
	DB	095H
	DB	04H
	DB	0c3H
	DB	041H
	DB	055H
	DB	051H
	DB	07H
	DB	07H
	DB	07H
	DB	07H
	DB	07H
	DB	07H
	DB	043H
	DB	047H
	DB	08H
	DB	01bH
	DB	0aH
	DB	047H
	DB	072H
	DB	051H
	DB	07H
	DB	07H
	DB	07H
	DB	07H
	DB	051H
	DB	037H
	DB	03fH
	DB	02H
	DB	01H
	DB	0aH
	DB	095H
	DB	08H
	DB	03dH
	DB	026H
	DB	07H
	DB	07H
	DB	07H
	DB	07H
	DB	07H
	DB	026H
	DB	054H
	DB	0cH
	DB	05eH
	DB	0aH
	DB	063H
	DB	095H
	DB	095H
	DB	0c3H
	DB	023H
	DB	0bH
	DB	03bH
	DB	051H
	DB	07H
	DB	07H
	DB	07H
	DB	07H
	DB	07H
	DB	03eH
	DB	042H
	DB	091H
	DB	01H
	DB	095H
	DB	04fH
	DB	02bH
	DB	026H
	DB	07H
	DB	07H
	DB	07H
	DB	07H
	DB	051H
	DB	038H
	DB	024H
	DB	04cH
	DB	01eH
	DB	023H
	DB	0aH
	DB	095H
	DB	01eH
	DB	024H
	DB	038H
	DB	051H
	DB	07H
	DB	07H
	DB	07H
	DB	07H
	DB	026H
	DB	02bH
	DB	041H
	DB	08H
	DB	05fH
	DB	069H
	DB	0d2H
	DB	050H
	DB	051H
	DB	07H
	DB	07H
	DB	07H
	DB	07H
	DB	07H
	DB	038H
	DB	054H
	DB	044H
	DB	058H
	DB	04fH
	DB	04cH
	DB	00H
	DB	068H
	DB	051H
	DB	07H
	DB	07H
	DB	07H
	DB	07H
	DB	07H
	DB	051H
	DB	03bH
	DB	03fH
	DB	03H
	DB	08aH
	DB	036H
	DB	0d6H
	DB	02bH
	DB	07H
	DB	051H
	DB	051H
	DB	051H
	DB	051H
	DB	051H
	DB	051H
	DB	055H
	DB	04cH
	DB	095H
	DB	095H
	DB	04fH
	DB	054H
	DB	07H
	DB	051H
	DB	051H
	DB	051H
	DB	051H
	DB	051H
	DB	051H
	DB	071H
	DB	04cH
	DB	036H
	DB	095H
	DB	064H
	DB	03dH
	DB	07H
	DB	051H
	DB	051H
	DB	051H
	DB	051H
	DB	051H
	DB	051H
	DB	0d8H
	DB	025H
	DB	0c3H
	DB	0aH
	DB	0aH
	DB	0aH
	DB	0aH
	DB	0aH
	DB	0aH
	DB	0aH
	DB	0aH
	DB	0aH
	DB	0aH
	DB	0aH
	DB	04H
	DB	05cH
	DB	02eH
	DB	057H
	DB	010H
	DB	07aH
	DB	05H
	DB	067H
	DB	05aH
	DB	0a8H
	DB	09H
	DB	0bH
	DB	0bfH
	DB	0dH
	DB	0a8H
	DB	011H
	DB	0dH
	DB	032H
	DB	0a7H
	DB	0bH
	DB	0bH
	DB	07aH
	DB	0c6H
	DB	09eH
	DB	0dcH
	DB	0c6H
	DB	0efH
	DB	07cH
	DB	0c0H
	DB	098H
	DB	010H
	DB	076H
	DB	02H
	DB	08H
	DB	010H
	DB	0cH
	DB	08H
	DB	065H
	DB	0f9H
	DB	0f9H
	DB	028H
	DB	0beH
	DB	0acH
	DB	03aH
	DB	02dH
	DB	0a6H
	DB	0f9H
	DB	028H
	DB	028H
	DB	021H
	DB	079H
	DB	0eH
	DB	0fcH
	DB	016H
	DB	016H
	DB	016H
	DB	016H
	DB	016H
	DB	0eH
	DB	0eH
	DB	0eH
	DB	0eH
	DB	0fdH
	DB	09fH
	DB	025H
	DB	01H
	DB	011H
	DB	011H
	DB	020H
	DB	011H
	DB	011H
	DB	011H
	DB	0dH
	DB	0dH
	DB	0dH
	DB	0dH
	DB	061H
	DB	0cH
	DB	011H
	DB	09H
	DB	014H
	DB	0beH
	DB	099H
	DB	08cH
	DB	08eH
	DB	02cH
	DB	0fbH
	DB	030H
	DB	02H
	DB	065H
	DB	0e2H
	DB	061H
	DB	094H
	DB	0fH
	DB	02eH
	DB	057H
	DB	09H
	DB	0cH
	DB	0cH
	DB	039H
	DB	039H
	DB	039H
	DB	039H
	DB	039H
	DB	039H
	DB	039H
	DB	039H
	DB	039H
	DB	039H
	DB	039H
	DB	04eH
	DB	04eH
	DB	04eH
	DB	04eH
	DB	04eH
	DB	04eH
	DB	09H
	DB	09H
	DB	09H
	DB	09H
	DB	09H
	DB	09H
	DB	09H
	DB	09H
	DB	09H
	DB	04eH
	DB	04eH
	DB	04eH
	DB	04eH
	DB	039H
	DB	039H
	DB	0bH
	DB	0dH
	DB	0c3H
	DB	0aH
	DB	0aH
	DB	0aH
	DB	0aH
	DB	0aH
	DB	0aH
	DB	07bH
	DB	099H
	DB	020H
	DB	00H
	DB	00H
	DB	00H
	DB	00H
	DB	00H
	DB	00H
	DB	00H
	DB	00H
	DB	00H
	DB	00H
	DB	00H
	DB	00H
	DB	00H
	DB	00H
	DB	00H
	DB	00H
	DB	00H
	DB	00H
	DB	00H
	DB	00H
	DB	00H
	DB	00H
	DB	00H
	DB	00H
	DB	00H
	DB	00H
	DB	00H
	DB	00H
	DB	00H
	DB	00H
	DB	00H
	DB	00H
	DB	0d2H
	DB	05H
	DB	0c4H
	DB	0c3H
	DB	0aH
	DB	0aH
	DB	0aH
	DB	0aH
	DB	0aH
	DB	0aH
	DB	0aH
	DB	0aH
	DB	0aH
	DB	0aH
	DB	0aH
	DB	0aH
	DB	0aH
	DB	0aH
	DB	0aH
	DB	0aH
	DB	0aH
	DB	095H
	DB	04cH
	DB	071H
	DB	07H
	DB	07H
	DB	07H
	DB	07H
	DB	07H
	DB	07H
	DB	07H
	DB	051H
	DB	086H
	DB	00H
	DB	0dH
	DB	02H
	DB	01H
	DB	0aH
	DB	0aH
	DB	0aH
	DB	036H
	DB	01bH
	DB	03fH
	DB	050H
	DB	051H
	DB	07H
	DB	07H
	DB	07H
	DB	07H
	DB	07H
	DB	07H
	DB	026H
	DB	02bH
	DB	02fH
	DB	098H
	DB	01eH
	DB	023H
	DB	0aH
	DB	0aH
	DB	036H
	DB	041H
	DB	07eH
	DB	051H
	DB	07H
	DB	07H
	DB	07H
	DB	07H
	DB	07H
	DB	07H
	DB	066H
	DB	00H
	DB	041H
	DB	058H
	DB	058H
	DB	02fH
	DB	024H
	DB	056H
	DB	051H
	DB	07H
	DB	07H
	DB	07H
	DB	07H
	DB	07H
	DB	07H
	DB	043H
	DB	047H
	DB	08H
	DB	01bH
	DB	0aH
	DB	047H
	DB	072H
	DB	051H
	DB	07H
	DB	07H
	DB	07H
	DB	07H
	DB	051H
	DB	037H
	DB	03fH
	DB	02H
	DB	01H
	DB	0aH
	DB	095H
	DB	01H
	DB	0d2H
	DB	070H
	DB	07H
	DB	07H
	DB	07H
	DB	07H
	DB	07H
	DB	051H
	DB	03eH
	DB	03fH
	DB	04cH
	DB	04fH
	DB	0d6H
	DB	04cH
	DB	064H
	DB	095H
	DB	01bH
	DB	0bH
	DB	03bH
	DB	051H
	DB	07H
	DB	07H
	DB	07H
	DB	07H
	DB	07H
	DB	03eH
	DB	042H
	DB	091H
	DB	01H
	DB	036H
	DB	04fH
	DB	02bH
	DB	026H
	DB	07H
	DB	07H
	DB	07H
	DB	07H
	DB	051H
	DB	038H
	DB	024H
	DB	04cH
	DB	01eH
	DB	023H
	DB	0aH
	DB	036H
	DB	08H
	DB	024H
	DB	038H
	DB	051H
	DB	07H
	DB	07H
	DB	07H
	DB	07H
	DB	026H
	DB	02bH
	DB	041H
	DB	08H
	DB	01bH
	DB	095H
	DB	047H
	DB	066H
	DB	051H
	DB	07H
	DB	07H
	DB	07H
	DB	07H
	DB	07H
	DB	051H
	DB	038H
	DB	066H
	DB	043H
	DB	02bH
	DB	055H
	DB	03bH
	DB	07H
	DB	07H
	DB	07H
	DB	07H
	DB	07H
	DB	07H
	DB	07H
	DB	051H
	DB	03bH
	DB	03fH
	DB	03H
	DB	08aH
	DB	0aH
	DB	020H
	DB	02bH
	DB	026H
	DB	07H
	DB	07H
	DB	07H
	DB	07H
	DB	07H
	DB	07H
	DB	055H
	DB	04cH
	DB	0aH
	DB	0c3H
	DB	04fH
	DB	054H
	DB	026H
	DB	07H
	DB	07H
	DB	07H
	DB	07H
	DB	07H
	DB	07H
	DB	071H
	DB	0cH
	DB	023H
	DB	036H
	DB	08H
	DB	03dH
	DB	026H
	DB	07H
	DB	07H
	DB	07H
	DB	07H
	DB	07H
	DB	051H
	DB	071H
	DB	041H
	DB	023H
	DB	0aH
	DB	0aH
	DB	0aH
	DB	0aH
	DB	0aH
	DB	0aH
	DB	0aH
	DB	0aH
	DB	0aH
	DB	0aH
	DB	0aH
	DB	04H
	DB	0f1H
	DB	035H
	DB	05H
	DB	010H
	DB	020H
	DB	0e1H
	DB	096H
	DB	010H
	DB	0dH
	DB	09H
	DB	0bH
	DB	032H
	DB	0a8H
	DB	0a8H
	DB	0a8H
	DB	011H
	DB	09H
	DB	0a7H
	DB	0bH
	DB	0bfH
	DB	076H
	DB	09aH
	DB	0ddH
	DB	07cH
	DB	0baH
