; Listing generated by Microsoft (R) Optimizing Compiler Version 16.00.40219.01 

	TITLE	C:\DUII\Simulation\GUI\Widget\WIDGET_Effect_3D.c
	.686P
	.XMM
	include listing.inc
	.model	flat

INCLUDELIB LIBCMT
INCLUDELIB OLDNAMES

PUBLIC	_WIDGET_EFFECT_3D_DrawUp
PUBLIC	_WIDGET_Effect_3D
CONST	SEGMENT
_WIDGET_Effect_3D DD 02H
	DD	FLAT:_WIDGET_EFFECT_3D_DrawUp
	DD	FLAT:__DrawUpRect
	DD	FLAT:__DrawDown
	DD	FLAT:__DrawDownRect
	ORG $+8
CONST	ENDS
_DATA	SEGMENT
__aColor DD	00H
	DD	0555555H
	DD	0808080H
	DD	0c0c0c0H
	DD	0ffffffH
_DATA	ENDS
EXTRN	_GUI_DrawVLine:PROC
EXTRN	_GUI_DrawHLine:PROC
EXTRN	_GUI_DrawRect:PROC
EXTRN	_LCD_SetColor:PROC
EXTRN	__RTC_CheckEsp:PROC
EXTRN	@_RTC_CheckStackVars@8:PROC
EXTRN	__RTC_Shutdown:PROC
EXTRN	__RTC_InitBase:PROC
;	COMDAT rtc$TMZ
; File c:\duii\simulation\gui\widget\widget_effect_3d.c
rtc$TMZ	SEGMENT
__RTC_Shutdown.rtc$TMZ DD FLAT:__RTC_Shutdown
rtc$TMZ	ENDS
;	COMDAT rtc$IMZ
rtc$IMZ	SEGMENT
__RTC_InitBase.rtc$IMZ DD FLAT:__RTC_InitBase
; Function compile flags: /Odtp /RTCsu /ZI
rtc$IMZ	ENDS
;	COMDAT __DrawUpRect
_TEXT	SEGMENT
_r$ = -12						; size = 8
_pRect$ = 8						; size = 4
__DrawUpRect PROC					; COMDAT
; Line 64
	push	ebp
	mov	ebp, esp
	sub	esp, 208				; 000000d0H
	push	ebx
	push	esi
	push	edi
	lea	edi, DWORD PTR [ebp-208]
	mov	ecx, 52					; 00000034H
	mov	eax, -858993460				; ccccccccH
	rep stosd
; Line 66
	mov	eax, DWORD PTR _pRect$[ebp]
	mov	ecx, DWORD PTR [eax]
	mov	edx, DWORD PTR [eax+4]
	mov	DWORD PTR _r$[ebp], ecx
	mov	DWORD PTR _r$[ebp+4], edx
; Line 67
	mov	eax, DWORD PTR __aColor
	push	eax
	call	_LCD_SetColor
	add	esp, 4
; Line 68
	movsx	eax, WORD PTR _r$[ebp+6]
	push	eax
	movsx	ecx, WORD PTR _r$[ebp+4]
	push	ecx
	movsx	edx, WORD PTR _r$[ebp+2]
	push	edx
	movsx	eax, WORD PTR _r$[ebp]
	push	eax
	call	_GUI_DrawRect
	add	esp, 16					; 00000010H
; Line 70
	mov	eax, DWORD PTR __aColor+16
	push	eax
	call	_LCD_SetColor
	add	esp, 4
; Line 71
	movsx	eax, WORD PTR _r$[ebp+4]
	sub	eax, 2
	push	eax
	movsx	ecx, WORD PTR _r$[ebp]
	add	ecx, 1
	push	ecx
	movsx	edx, WORD PTR _r$[ebp+2]
	add	edx, 1
	push	edx
	call	_GUI_DrawHLine
	add	esp, 12					; 0000000cH
; Line 72
	movsx	eax, WORD PTR _r$[ebp+6]
	sub	eax, 2
	push	eax
	movsx	ecx, WORD PTR _r$[ebp+2]
	add	ecx, 1
	push	ecx
	movsx	edx, WORD PTR _r$[ebp]
	add	edx, 1
	push	edx
	call	_GUI_DrawVLine
	add	esp, 12					; 0000000cH
; Line 74
	mov	eax, DWORD PTR __aColor+4
	push	eax
	call	_LCD_SetColor
	add	esp, 4
; Line 75
	movsx	eax, WORD PTR _r$[ebp+4]
	sub	eax, 1
	push	eax
	movsx	ecx, WORD PTR _r$[ebp]
	add	ecx, 1
	push	ecx
	movsx	edx, WORD PTR _r$[ebp+6]
	sub	edx, 1
	push	edx
	call	_GUI_DrawHLine
	add	esp, 12					; 0000000cH
; Line 76
	movsx	eax, WORD PTR _r$[ebp+6]
	sub	eax, 2
	push	eax
	movsx	ecx, WORD PTR _r$[ebp+2]
	add	ecx, 1
	push	ecx
	movsx	edx, WORD PTR _r$[ebp+4]
	sub	edx, 1
	push	edx
	call	_GUI_DrawVLine
	add	esp, 12					; 0000000cH
; Line 77
	push	edx
	mov	ecx, ebp
	push	eax
	lea	edx, DWORD PTR $LN5@DrawUpRect
	call	@_RTC_CheckStackVars@8
	pop	eax
	pop	edx
	pop	edi
	pop	esi
	pop	ebx
	add	esp, 208				; 000000d0H
	cmp	ebp, esp
	call	__RTC_CheckEsp
	mov	esp, ebp
	pop	ebp
	ret	0
	npad	1
$LN5@DrawUpRect:
	DD	1
	DD	$LN4@DrawUpRect
$LN4@DrawUpRect:
	DD	-12					; fffffff4H
	DD	8
	DD	$LN3@DrawUpRect
$LN3@DrawUpRect:
	DB	114					; 00000072H
	DB	0
__DrawUpRect ENDP
; Function compile flags: /Odtp /RTCsu /ZI
_TEXT	ENDS
;	COMDAT __DrawDownRect
_TEXT	SEGMENT
_r$ = -12						; size = 8
_pRect$ = 8						; size = 4
__DrawDownRect PROC					; COMDAT
; Line 93
	push	ebp
	mov	ebp, esp
	sub	esp, 208				; 000000d0H
	push	ebx
	push	esi
	push	edi
	lea	edi, DWORD PTR [ebp-208]
	mov	ecx, 52					; 00000034H
	mov	eax, -858993460				; ccccccccH
	rep stosd
; Line 95
	mov	eax, DWORD PTR _pRect$[ebp]
	mov	ecx, DWORD PTR [eax]
	mov	edx, DWORD PTR [eax+4]
	mov	DWORD PTR _r$[ebp], ecx
	mov	DWORD PTR _r$[ebp+4], edx
; Line 96
	mov	eax, DWORD PTR __aColor
	push	eax
	call	_LCD_SetColor
	add	esp, 4
; Line 99
	mov	eax, DWORD PTR __aColor+8
	push	eax
	call	_LCD_SetColor
	add	esp, 4
; Line 100
	movsx	eax, WORD PTR _r$[ebp+4]
	push	eax
	movsx	ecx, WORD PTR _r$[ebp]
	push	ecx
	movsx	edx, WORD PTR _r$[ebp+2]
	push	edx
	call	_GUI_DrawHLine
	add	esp, 12					; 0000000cH
; Line 101
	movsx	eax, WORD PTR _r$[ebp+6]
	push	eax
	movsx	ecx, WORD PTR _r$[ebp+2]
	add	ecx, 1
	push	ecx
	movsx	edx, WORD PTR _r$[ebp]
	push	edx
	call	_GUI_DrawVLine
	add	esp, 12					; 0000000cH
; Line 102
	mov	eax, DWORD PTR __aColor
	push	eax
	call	_LCD_SetColor
	add	esp, 4
; Line 103
	movsx	eax, WORD PTR _r$[ebp+4]
	sub	eax, 1
	push	eax
	movsx	ecx, WORD PTR _r$[ebp]
	add	ecx, 1
	push	ecx
	movsx	edx, WORD PTR _r$[ebp+2]
	add	edx, 1
	push	edx
	call	_GUI_DrawHLine
	add	esp, 12					; 0000000cH
; Line 104
	movsx	eax, WORD PTR _r$[ebp+6]
	sub	eax, 1
	push	eax
	movsx	ecx, WORD PTR _r$[ebp+2]
	add	ecx, 2
	push	ecx
	movsx	edx, WORD PTR _r$[ebp]
	add	edx, 1
	push	edx
	call	_GUI_DrawVLine
	add	esp, 12					; 0000000cH
; Line 106
	mov	eax, DWORD PTR __aColor+16
	push	eax
	call	_LCD_SetColor
	add	esp, 4
; Line 107
	movsx	eax, WORD PTR _r$[ebp+4]
	push	eax
	movsx	ecx, WORD PTR _r$[ebp]
	add	ecx, 1
	push	ecx
	movsx	edx, WORD PTR _r$[ebp+6]
	push	edx
	call	_GUI_DrawHLine
	add	esp, 12					; 0000000cH
; Line 108
	movsx	eax, WORD PTR _r$[ebp+6]
	push	eax
	movsx	ecx, WORD PTR _r$[ebp+2]
	add	ecx, 1
	push	ecx
	movsx	edx, WORD PTR _r$[ebp+4]
	push	edx
	call	_GUI_DrawVLine
	add	esp, 12					; 0000000cH
; Line 109
	mov	eax, DWORD PTR __aColor+12
	push	eax
	call	_LCD_SetColor
	add	esp, 4
; Line 110
	movsx	eax, WORD PTR _r$[ebp+4]
	sub	eax, 1
	push	eax
	movsx	ecx, WORD PTR _r$[ebp]
	add	ecx, 2
	push	ecx
	movsx	edx, WORD PTR _r$[ebp+6]
	sub	edx, 1
	push	edx
	call	_GUI_DrawHLine
	add	esp, 12					; 0000000cH
; Line 111
	movsx	eax, WORD PTR _r$[ebp+6]
	sub	eax, 1
	push	eax
	movsx	ecx, WORD PTR _r$[ebp+2]
	add	ecx, 2
	push	ecx
	movsx	edx, WORD PTR _r$[ebp+4]
	sub	edx, 1
	push	edx
	call	_GUI_DrawVLine
	add	esp, 12					; 0000000cH
; Line 112
	push	edx
	mov	ecx, ebp
	push	eax
	lea	edx, DWORD PTR $LN5@DrawDownRe
	call	@_RTC_CheckStackVars@8
	pop	eax
	pop	edx
	pop	edi
	pop	esi
	pop	ebx
	add	esp, 208				; 000000d0H
	cmp	ebp, esp
	call	__RTC_CheckEsp
	mov	esp, ebp
	pop	ebp
	ret	0
$LN5@DrawDownRe:
	DD	1
	DD	$LN4@DrawDownRe
$LN4@DrawDownRe:
	DD	-12					; fffffff4H
	DD	8
	DD	$LN3@DrawDownRe
$LN3@DrawDownRe:
	DB	114					; 00000072H
	DB	0
__DrawDownRect ENDP
_TEXT	ENDS
EXTRN	_WM_GetClientRect:PROC
; Function compile flags: /Odtp /RTCsu /ZI
;	COMDAT __DrawDown
_TEXT	SEGMENT
_r$ = -12						; size = 8
__DrawDown PROC						; COMDAT
; Line 122
	push	ebp
	mov	ebp, esp
	sub	esp, 208				; 000000d0H
	push	ebx
	push	esi
	push	edi
	lea	edi, DWORD PTR [ebp-208]
	mov	ecx, 52					; 00000034H
	mov	eax, -858993460				; ccccccccH
	rep stosd
; Line 124
	lea	eax, DWORD PTR _r$[ebp]
	push	eax
	call	_WM_GetClientRect
	add	esp, 4
; Line 125
	lea	eax, DWORD PTR _r$[ebp]
	push	eax
	call	__DrawDownRect
	add	esp, 4
; Line 126
	push	edx
	mov	ecx, ebp
	push	eax
	lea	edx, DWORD PTR $LN5@DrawDown
	call	@_RTC_CheckStackVars@8
	pop	eax
	pop	edx
	pop	edi
	pop	esi
	pop	ebx
	add	esp, 208				; 000000d0H
	cmp	ebp, esp
	call	__RTC_CheckEsp
	mov	esp, ebp
	pop	ebp
	ret	0
	npad	1
$LN5@DrawDown:
	DD	1
	DD	$LN4@DrawDown
$LN4@DrawDown:
	DD	-12					; fffffff4H
	DD	8
	DD	$LN3@DrawDown
$LN3@DrawDown:
	DB	114					; 00000072H
	DB	0
__DrawDown ENDP
; Function compile flags: /Odtp /RTCsu /ZI
_TEXT	ENDS
;	COMDAT _WIDGET_EFFECT_3D_DrawUp
_TEXT	SEGMENT
_r$ = -12						; size = 8
_WIDGET_EFFECT_3D_DrawUp PROC				; COMDAT
; Line 141
	push	ebp
	mov	ebp, esp
	sub	esp, 208				; 000000d0H
	push	ebx
	push	esi
	push	edi
	lea	edi, DWORD PTR [ebp-208]
	mov	ecx, 52					; 00000034H
	mov	eax, -858993460				; ccccccccH
	rep stosd
; Line 143
	lea	eax, DWORD PTR _r$[ebp]
	push	eax
	call	_WM_GetClientRect
	add	esp, 4
; Line 144
	lea	eax, DWORD PTR _r$[ebp]
	push	eax
	call	__DrawUpRect
	add	esp, 4
; Line 145
	push	edx
	mov	ecx, ebp
	push	eax
	lea	edx, DWORD PTR $LN5@WIDGET_EFF
	call	@_RTC_CheckStackVars@8
	pop	eax
	pop	edx
	pop	edi
	pop	esi
	pop	ebx
	add	esp, 208				; 000000d0H
	cmp	ebp, esp
	call	__RTC_CheckEsp
	mov	esp, ebp
	pop	ebp
	ret	0
	npad	1
$LN5@WIDGET_EFF:
	DD	1
	DD	$LN4@WIDGET_EFF
$LN4@WIDGET_EFF:
	DD	-12					; fffffff4H
	DD	8
	DD	$LN3@WIDGET_EFF
$LN3@WIDGET_EFF:
	DB	114					; 00000072H
	DB	0
_WIDGET_EFFECT_3D_DrawUp ENDP
_TEXT	ENDS
PUBLIC	_WIDGET_EFFECT_3D_SetColor
; Function compile flags: /Odtp /RTCsu /ZI
;	COMDAT _WIDGET_EFFECT_3D_SetColor
_TEXT	SEGMENT
_Index$ = 8						; size = 4
_Color$ = 12						; size = 4
_WIDGET_EFFECT_3D_SetColor PROC				; COMDAT
; Line 151
	push	ebp
	mov	ebp, esp
	sub	esp, 192				; 000000c0H
	push	ebx
	push	esi
	push	edi
	lea	edi, DWORD PTR [ebp-192]
	mov	ecx, 48					; 00000030H
	mov	eax, -858993460				; ccccccccH
	rep stosd
; Line 152
	cmp	DWORD PTR _Index$[ebp], 5
	jae	SHORT $LN2@WIDGET_EFF@2
; Line 153
	mov	eax, DWORD PTR _Index$[ebp]
	mov	ecx, DWORD PTR _Color$[ebp]
	mov	DWORD PTR __aColor[eax*4], ecx
$LN2@WIDGET_EFF@2:
; Line 155
	pop	edi
	pop	esi
	pop	ebx
	mov	esp, ebp
	pop	ebp
	ret	0
_WIDGET_EFFECT_3D_SetColor ENDP
_TEXT	ENDS
PUBLIC	_WIDGET_EFFECT_3D_GetColor
; Function compile flags: /Odtp /RTCsu /ZI
;	COMDAT _WIDGET_EFFECT_3D_GetColor
_TEXT	SEGMENT
_r$ = -8						; size = 4
_Index$ = 8						; size = 4
_WIDGET_EFFECT_3D_GetColor PROC				; COMDAT
; Line 161
	push	ebp
	mov	ebp, esp
	sub	esp, 204				; 000000ccH
	push	ebx
	push	esi
	push	edi
	lea	edi, DWORD PTR [ebp-204]
	mov	ecx, 51					; 00000033H
	mov	eax, -858993460				; ccccccccH
	rep stosd
; Line 163
	mov	DWORD PTR _r$[ebp], 0
; Line 164
	cmp	DWORD PTR _Index$[ebp], 5
	jae	SHORT $LN1@WIDGET_EFF@3
; Line 165
	mov	eax, DWORD PTR _Index$[ebp]
	mov	ecx, DWORD PTR __aColor[eax*4]
	mov	DWORD PTR _r$[ebp], ecx
$LN1@WIDGET_EFF@3:
; Line 167
	mov	eax, DWORD PTR _r$[ebp]
; Line 168
	pop	edi
	pop	esi
	pop	ebx
	mov	esp, ebp
	pop	ebp
	ret	0
_WIDGET_EFFECT_3D_GetColor ENDP
_TEXT	ENDS
PUBLIC	_WIDGET_EFFECT_3D_GetNumColors
; Function compile flags: /Odtp /RTCsu /ZI
;	COMDAT _WIDGET_EFFECT_3D_GetNumColors
_TEXT	SEGMENT
_WIDGET_EFFECT_3D_GetNumColors PROC			; COMDAT
; Line 174
	push	ebp
	mov	ebp, esp
	sub	esp, 192				; 000000c0H
	push	ebx
	push	esi
	push	edi
	lea	edi, DWORD PTR [ebp-192]
	mov	ecx, 48					; 00000030H
	mov	eax, -858993460				; ccccccccH
	rep stosd
; Line 175
	mov	eax, 5
; Line 176
	pop	edi
	pop	esi
	pop	ebx
	mov	esp, ebp
	pop	ebp
	ret	0
_WIDGET_EFFECT_3D_GetNumColors ENDP
_TEXT	ENDS
END
