; Listing generated by Microsoft (R) Optimizing Compiler Version 16.00.40219.01 

	TITLE	C:\DUII\DUII\Graphics\WiFiEnabledIcon.c
	.686P
	.XMM
	include listing.inc
	.model	flat

INCLUDELIB LIBCMT
INCLUDELIB OLDNAMES

PUBLIC	_bmWiFiEnabledIcon
CONST	SEGMENT
_ColorsWiFiEnabledIcon DD 00H
	DD	0ffffffH
	DD	0393939H
	DD	0323232H
	DD	03a3a3aH
	DD	0262626H
	DD	0272727H
	DD	0373737H
	DD	0383838H
	DD	02a2a2aH
	DD	0313131H
	DD	01d1d1dH
	DD	0141414H
	DD	02b2b2bH
	DD	0161616H
	DD	0252525H
	DD	0282828H
	DD	0292929H
	DD	0363636H
	DD	0ff00H
	DD	02c2c2cH
	DD	0d0d0dH
	DD	0151515H
	DD	02d2d2dH
	DD	0e4e4e4H
	DD	02e2e2eH
	DD	010101H
	DD	0353535H
	DD	0e0e0eH
	DD	01c1c1cH
	DD	0242424H
	DD	0303030H
	DD	0343434H
	DD	0111111H
	DD	01b1b1bH
	DD	0202020H
	DD	02f2f2fH
	DD	0fbfbfbH
	DD	020202H
	DD	0949494H
	DD	0a6a6a6H
	DD	0b8b8b8H
	DD	0bebebeH
	DD	0fcfcfcH
	DD	01f1f1fH
	DD	0232323H
	DD	03b3b3bH
	DD	03e3e3eH
	DD	040404H
	DD	060606H
	DD	0b0b0bH
	DD	0101010H
	DD	01e1e1eH
	DD	0212121H
	DD	0333333H
	DD	07d7d7dH
	DD	09e9e9eH
	DD	0a5a5a5H
	DD	0a9a9a9H
	DD	0f1f1f1H
	DD	0f4f4f4H
	DD	0f7f7f7H
	DD	0fefefeH
	DD	050505H
	DD	05c5c5cH
	DD	0656565H
	DD	0676767H
	DD	06e6e6eH
	DD	0707070H
	DD	07f7f7fH
	DD	0969696H
	DD	0989898H
	DD	0b6b6b6H
	DD	0f8f8f8H
	DD	0fafafaH
	DD	030303H
	DD	070707H
	DD	0c0c0cH
	DD	0131313H
	DD	0181818H
	DD	03d3d3dH
	DD	0565656H
	DD	0575757H
	DD	0787878H
	DD	0979797H
	DD	0cfcfcfH
	DD	0d8d8d8H
	DD	0dcdcdcH
	DD	0e7e7e7H
	DD	0f5f5f5H
	DD	0fdfdfdH
	DD	080808H
	DD	0a0a0aH
	DD	0171717H
	DD	01a1a1aH
	DD	0222222H
	DD	0414141H
	DD	05b5b5bH
	DD	0606060H
	DD	0757575H
	DD	0848484H
	DD	0888888H
	DD	08b8b8bH
	DD	08c8c8cH
	DD	0a8a8a8H
	DD	0acacacH
	DD	0aeaeaeH
	DD	0afafafH
	DD	0b0b0b0H
	DD	0b2b2b2H
	DD	0b7b7b7H
	DD	0c3c3c3H
	DD	0c8c8c8H
	DD	0cececeH
	DD	0d4d4d4H
	DD	0e5e5e5H
	DD	0f0f0f0H
	DD	01200H
	DD	01600H
	DD	0121212H
	DD	0191919H
	DD	03000H
	DD	03f3f3fH
	DD	0454545H
	DD	0484848H
	DD	0494949H
	DD	04f4f4fH
	DD	0515151H
	DD	0525252H
	DD	0595959H
	DD	05e5e5eH
	DD	0626262H
	DD	0646464H
	DD	06a6a6aH
	DD	06c6c6cH
	DD	06d6d6dH
	DD	0767676H
	DD	0c500H
	DD	0db00H
	DD	0818181H
	DD	0909090H
	DD	0919191H
	DD	0929292H
	DD	09b9b9bH
	DD	0a3a3a3H
	DD	0aaaaaaH
	DD	0b1b1b1H
	DD	0b3b3b3H
	DD	0b5b5b5H
	DD	0b9b9b9H
	DD	0bbbbbbH
	DD	0c0c0c0H
	DD	0c7c7c7H
	DD	0cdcdcdH
	DD	0d1d1d1H
	DD	0d2d2d2H
	DD	0d3d3d3H
	DD	0d9d9d9H
	DD	0dadadaH
	DD	0dfdfdfH
	DD	0e0e0e0H
	DD	0e3e3e3H
	DD	0eaeaeaH
	DD	0eeeeeeH
	DD	0f6f6f6H
	DD	0100H
	DD	0300H
	DD	0600H
	DD	0800H
	DD	0c00H
	DD	090909H
	DD	01900H
	DD	02100H
	DD	02300H
	DD	02a00H
	DD	03200H
	DD	03700H
	DD	03e00H
	DD	03c3c3cH
	DD	04a00H
	DD	05400H
	DD	06700H
	DD	07900H
	DD	07d00H
	DD	07f00H
	DD	0444444H
	DD	04a4a4aH
	DD	04b4b4bH
	DD	04c4c4cH
	DD	04e4e4eH
	DD	0505050H
	DD	0545454H
	DD	0555555H
	DD	05a5a5aH
	DD	0636363H
	DD	0666666H
	DD	0686868H
	DD	0696969H
	DD	06f6f6fH
	DD	0717171H
	DD	0737373H
	DD	0747474H
	DD	07b7b7bH
	DD	07e7e7eH
	DD	08100H
	DD	08300H
	DD	08500H
	DD	08b00H
	DD	09000H
	DD	0a400H
	DD	0aa00H
	DD	0ac00H
	DD	0af00H
	DD	0ba00H
	DD	0bc00H
	DD	0c600H
	DD	0cf00H
	DD	0d400H
	DD	0de00H
	DD	0e600H
	DD	0ec00H
	DD	0f400H
	DD	0f700H
	DD	0f800H
	DD	0808080H
	DD	0838383H
	DD	0858585H
	DD	0939393H
	DD	09a9a9aH
	DD	09d9d9dH
	DD	0a0a0a0H
	DD	0a4a4a4H
	DD	0abababH
	DD	0adadadH
	DD	0b4b4b4H
	DD	0bababaH
	DD	0c1c1c1H
	DD	0c2c2c2H
	DD	0c4c4c4H
	DD	0c5c5c5H
	DD	0c6c6c6H
	DD	0c9c9c9H
	DD	0cbcbcbH
	DD	0d0d0d0H
	DD	0d5d5d5H
	DD	0d7d7d7H
	DD	0dbdbdbH
	DD	0e1e1e1H
	DD	0e2e2e2H
	DD	0e6e6e6H
	DD	0e9e9e9H
	DD	0ebebebH
	DD	0ecececH
	DD	0edededH
	DD	0f2f2f2H
	DD	0f3f3f3H
_PalWiFiEnabledIcon DD 0100H
	DB	00H
	ORG $+3
	DD	FLAT:_ColorsWiFiEnabledIcon
_bmWiFiEnabledIcon DW 03cH
	DW	03cH
	DW	03cH
	DW	08H
	DD	FLAT:_acWiFiEnabledIcon
	DD	FLAT:_PalWiFiEnabledIcon
	ORG $+4
_acWiFiEnabledIcon DB 00H
	DB	00H
	DB	00H
	DB	00H
	DB	032H
	DB	02cH
	DB	05H
	DB	05H
	DB	05H
	DB	05H
	DB	05H
	DB	05H
	DB	05H
	DB	05H
	DB	05H
	DB	05H
	DB	05H
	DB	05H
	DB	05H
	DB	05H
	DB	05H
	DB	05H
	DB	05H
	DB	05H
	DB	05H
	DB	05H
	DB	05H
	DB	05H
	DB	05H
	DB	05H
	DB	05H
	DB	05H
	DB	05H
	DB	05H
	DB	05H
	DB	05H
	DB	05H
	DB	05H
	DB	05H
	DB	05H
	DB	05H
	DB	05H
	DB	05H
	DB	05H
	DB	05H
	DB	05H
	DB	05H
	DB	05H
	DB	05H
	DB	05H
	DB	05H
	DB	05H
	DB	05H
	DB	05H
	DB	034H
	DB	04dH
	DB	00H
	DB	00H
	DB	00H
	DB	00H
	DB	00H
	DB	00H
	DB	030H
	DB	01eH
	DB	02eH
	DB	07H
	DB	017H
	DB	010H
	DB	06H
	DB	06H
	DB	06H
	DB	06H
	DB	06H
	DB	06H
	DB	06H
	DB	06H
	DB	06H
	DB	06H
	DB	06H
	DB	06H
	DB	06H
	DB	06H
	DB	06H
	DB	06H
	DB	06H
	DB	06H
	DB	06H
	DB	06H
	DB	06H
	DB	06H
	DB	06H
	DB	06H
	DB	06H
	DB	06H
	DB	06H
	DB	06H
	DB	06H
	DB	06H
	DB	06H
	DB	06H
	DB	06H
	DB	06H
	DB	06H
	DB	06H
	DB	06H
	DB	06H
	DB	06H
	DB	06H
	DB	06H
	DB	06H
	DB	06H
	DB	06H
	DB	010H
	DB	017H
	DB	07H
	DB	02eH
	DB	05H
	DB	03fH
	DB	00H
	DB	00H
	DB	00H
	DB	030H
	DB	024H
	DB	02fH
	DB	01eH
	DB	04fH
	DB	05eH
	DB	01dH
	DB	01dH
	DB	0bH
	DB	0bH
	DB	0bH
	DB	0bH
	DB	0bH
	DB	0bH
	DB	0bH
	DB	0bH
	DB	0bH
	DB	0bH
	DB	0bH
	DB	0bH
	DB	0bH
	DB	0bH
	DB	0bH
	DB	0bH
	DB	0bH
	DB	0bH
	DB	0bH
	DB	0bH
	DB	0bH
	DB	0bH
	DB	0bH
	DB	0bH
	DB	0bH
	DB	0bH
	DB	0bH
	DB	0bH
	DB	0bH
	DB	0bH
	DB	0bH
	DB	0bH
	DB	0bH
	DB	0bH
	DB	0bH
	DB	0bH
	DB	0bH
	DB	0bH
	DB	0bH
	DB	0bH
	DB	0bH
	DB	0bH
	DB	01dH
	DB	01dH
	DB	05eH
	DB	04fH
	DB	02dH
	DB	050H
	DB	020H
	DB	04cH
	DB	00H
	DB	00H
	DB	01eH
	DB	02fH
	DB	0bH
	DB	022H
	DB	02dH
	DB	06H
	DB	010H
	DB	09H
	DB	09H
	DB	09H
	DB	09H
	DB	09H
	DB	09H
	DB	09H
	DB	09H
	DB	09H
	DB	09H
	DB	09H
	DB	09H
	DB	09H
	DB	09H
	DB	09H
	DB	09H
	DB	09H
	DB	09H
	DB	09H
	DB	09H
	DB	09H
	DB	09H
	DB	09H
	DB	09H
	DB	09H
	DB	09H
	DB	09H
	DB	09H
	DB	09H
	DB	09H
	DB	09H
	DB	09H
	DB	09H
	DB	09H
	DB	09H
	DB	09H
	DB	09H
	DB	09H
	DB	09H
	DB	09H
	DB	09H
	DB	09H
	DB	09H
	DB	09H
	DB	011H
	DB	06H
	DB	02dH
	DB	022H
	DB	022H
	DB	0b2H
	DB	014H
	DB	00H
	DB	032H
	DB	02eH
	DB	01eH
	DB	01dH
	DB	06H
	DB	0dH
	DB	019H
	DB	0aH
	DB	0aH
	DB	03H
	DB	03H
	DB	03H
	DB	03H
	DB	03H
	DB	03H
	DB	03H
	DB	03H
	DB	03H
	DB	03H
	DB	03H
	DB	03H
	DB	03H
	DB	03H
	DB	03H
	DB	03H
	DB	03H
	DB	03H
	DB	03H
	DB	03H
	DB	03H
	DB	03H
	DB	03H
	DB	03H
	DB	03H
	DB	03H
	DB	03H
	DB	03H
	DB	03H
	DB	03H
	DB	03H
	DB	03H
	DB	03H
	DB	03H
	DB	03H
	DB	03H
	DB	03H
	DB	03H
	DB	03H
	DB	03H
	DB	03H
	DB	03H
	DB	0aH
	DB	0aH
	DB	024H
	DB	0dH
	DB	06H
	DB	0bH
	DB	023H
	DB	02fH
	DB	021H
	DB	02cH
	DB	07H
	DB	022H
	DB	05H
	DB	017H
	DB	03H
	DB	01bH
	DB	012H
	DB	012H
	DB	07H
	DB	07H
	DB	07H
	DB	07H
	DB	07H
	DB	07H
	DB	07H
	DB	07H
	DB	07H
	DB	07H
	DB	07H
	DB	07H
	DB	07H
	DB	07H
	DB	07H
	DB	07H
	DB	07H
	DB	07H
	DB	07H
	DB	07H
	DB	07H
	DB	07H
	DB	07H
	DB	07H
	DB	07H
	DB	07H
	DB	07H
	DB	07H
	DB	07H
	DB	07H
	DB	07H
	DB	07H
	DB	07H
	DB	07H
	DB	07H
	DB	07H
	DB	07H
	DB	07H
	DB	07H
	DB	07H
	DB	07H
	DB	07H
	DB	012H
	DB	012H
	DB	01bH
	DB	03H
	DB	017H
	DB	06H
	DB	022H
	DB	036H
	DB	05H
	DB	06H
	DB	017H
	DB	02cH
	DB	014H
	DB	03H
	DB	012H
	DB	02H
	DB	02H
	DB	02H
	DB	04H
	DB	04H
	DB	04H
	DB	04H
	DB	04H
	DB	04H
	DB	04H
	DB	04H
	DB	04H
	DB	04H
	DB	04H
	DB	04H
	DB	04H
	DB	04H
	DB	04H
	DB	04H
	DB	04H
	DB	04H
	DB	04H
	DB	04H
	DB	04H
	DB	04H
	DB	04H
	DB	04H
	DB	04H
	DB	04H
	DB	04H
	DB	04H
	DB	04H
	DB	04H
	DB	04H
	DB	04H
	DB	04H
	DB	04H
	DB	04H
	DB	04H
	DB	04H
	DB	04H
	DB	04H
	DB	04H
	DB	04H
	DB	04H
	DB	02H
	DB	02H
	DB	02H
	DB	012H
	DB	036H
	DB	014H
	DB	035H
	DB	010H
	DB	019H
	DB	05H
	DB	010H
	DB	01eH
	DB	024H
	DB	01bH
	DB	02H
	DB	04H
	DB	04H
	DB	04H
	DB	04H
	DB	04H
	DB	04H
	DB	04H
	DB	04H
	DB	04H
	DB	04H
	DB	04H
	DB	04H
	DB	04H
	DB	04H
	DB	04H
	DB	04H
	DB	04H
	DB	04H
	DB	04H
	DB	04H
	DB	04H
	DB	04H
	DB	04H
	DB	04H
	DB	04H
	DB	04H
	DB	04H
	DB	04H
	DB	04H
	DB	04H
	DB	04H
	DB	04H
	DB	04H
	DB	04H
	DB	04H
	DB	04H
	DB	04H
	DB	04H
	DB	04H
	DB	04H
	DB	04H
	DB	04H
	DB	04H
	DB	04H
	DB	04H
	DB	04H
	DB	04H
	DB	04H
	DB	02H
	DB	012H
	DB	01fH
	DB	05H
	DB	01eH
	DB	0aH
	DB	0fH
	DB	011H
	DB	05H
	DB	0aH
	DB	012H
	DB	02H
	DB	02H
	DB	02H
	DB	02H
	DB	02H
	DB	02H
	DB	02H
	DB	02H
	DB	02H
	DB	02H
	DB	02H
	DB	02H
	DB	02H
	DB	02H
	DB	02H
	DB	02H
	DB	02H
	DB	02H
	DB	02H
	DB	02H
	DB	02H
	DB	02H
	DB	02H
	DB	02H
	DB	02H
	DB	02H
	DB	02H
	DB	02H
	DB	02H
	DB	02H
	DB	02H
	DB	02H
	DB	02H
	DB	02H
	DB	02H
	DB	02H
	DB	02H
	DB	02H
	DB	02H
	DB	02H
	DB	02H
	DB	02H
	DB	02H
	DB	02H
	DB	02H
	DB	02H
	DB	02H
	DB	02H
	DB	02H
	DB	02H
	DB	012H
	DB	0aH
	DB	011H
	DB	0fH
	DB	01fH
	DB	0fH
	DB	011H
	DB	06H
	DB	0aH
	DB	012H
	DB	02H
	DB	02H
	DB	02H
	DB	02H
	DB	02H
	DB	02H
	DB	02H
	DB	02H
	DB	02H
	DB	02H
	DB	02H
	DB	02H
	DB	02H
	DB	02H
	DB	02H
	DB	02H
	DB	02H
	DB	02H
	DB	02H
	DB	02H
	DB	02H
	DB	02H
	DB	02H
	DB	02H
	DB	08H
	DB	08H
	DB	02H
	DB	02H
	DB	02H
	DB	02H
	DB	02H
	DB	02H
	DB	02H
	DB	02H
	DB	02H
	DB	02H
	DB	02H
	DB	02H
	DB	02H
	DB	02H
	DB	02H
	DB	02H
	DB	02H
	DB	02H
	DB	02H
	DB	02H
	DB	02H
	DB	02H
	DB	02H
	DB	02H
	DB	07H
	DB	03H
	DB	09H
	DB	0fH
	DB	01fH
	DB	0fH
	DB	011H
	DB	06H
	DB	03H
	DB	012H
	DB	02H
	DB	02H
	DB	02H
	DB	02H
	DB	02H
	DB	02H
	DB	02H
	DB	02H
	DB	02H
	DB	02H
	DB	02H
	DB	02H
	DB	02H
	DB	02H
	DB	02H
	DB	02H
	DB	02H
	DB	02H
	DB	02H
	DB	012H
	DB	0aH
	DB	017H
	DB	019H
	DB	03H
	DB	020H
	DB	020H
	DB	0aH
	DB	019H
	DB	017H
	DB	0aH
	DB	07H
	DB	02H
	DB	02H
	DB	02H
	DB	02H
	DB	02H
	DB	02H
	DB	02H
	DB	02H
	DB	02H
	DB	02H
	DB	02H
	DB	02H
	DB	02H
	DB	02H
	DB	02H
	DB	02H
	DB	02H
	DB	02H
	DB	02H
	DB	07H
	DB	03H
	DB	09H
	DB	05H
	DB	01fH
	DB	0fH
	DB	011H
	DB	06H
	DB	03H
	DB	07H
	DB	02H
	DB	02H
	DB	02H
	DB	02H
	DB	02H
	DB	02H
	DB	02H
	DB	02H
	DB	02H
	DB	02H
	DB	02H
	DB	02H
	DB	02H
	DB	02H
	DB	02H
	DB	02H
	DB	08H
	DB	0aH
	DB	017H
	DB	060H
	DB	0c4H
	DB	08eH
	DB	092H
	DB	0efH
	DB	0f3H
	DB	055H
	DB	0edH
	DB	069H
	DB	067H
	DB	083H
	DB	050H
	DB	017H
	DB	03H
	DB	08H
	DB	02H
	DB	02H
	DB	02H
	DB	02H
	DB	02H
	DB	02H
	DB	02H
	DB	02H
	DB	02H
	DB	02H
	DB	02H
	DB	02H
	DB	02H
	DB	02H
	DB	02H
	DB	02H
	DB	08H
	DB	01bH
	DB	014H
	DB	06H
	DB	01fH
	DB	0fH
	DB	011H
	DB	06H
	DB	0aH
	DB	012H
	DB	08H
	DB	08H
	DB	08H
	DB	08H
	DB	08H
	DB	08H
	DB	08H
	DB	08H
	DB	08H
	DB	08H
	DB	08H
	DB	08H
	DB	08H
	DB	08H
	DB	08H
	DB	03H
	DB	019H
	DB	061H
	DB	03aH
	DB	0f9H
	DB	01H
	DB	01H
	DB	01H
	DB	01H
	DB	01H
	DB	01H
	DB	01H
	DB	01H
	DB	01H
	DB	01H
	DB	0f8H
	DB	0e7H
	DB	0c1H
	DB	024H
	DB	0aH
	DB	08H
	DB	08H
	DB	08H
	DB	08H
	DB	08H
	DB	08H
	DB	08H
	DB	08H
	DB	08H
	DB	08H
	DB	08H
	DB	08H
	DB	04H
	DB	02eH
	DB	02H
	DB	0aH
	DB	05H
	DB	01dH
	DB	023H
	DB	0aH
	DB	0fH
	DB	011H
	DB	06H
	DB	0aH
	DB	012H
	DB	08H
	DB	08H
	DB	08H
	DB	08H
	DB	08H
	DB	08H
	DB	08H
	DB	08H
	DB	08H
	DB	08H
	DB	08H
	DB	08H
	DB	08H
	DB	07H
	DB	014H
	DB	0beH
	DB	048H
	DB	02bH
	DB	01H
	DB	01H
	DB	01H
	DB	01H
	DB	01H
	DB	01H
	DB	01H
	DB	01H
	DB	01H
	DB	01H
	DB	01H
	DB	01H
	DB	01H
	DB	01H
	DB	025H
	DB	029H
	DB	051H
	DB	014H
	DB	012H
	DB	08H
	DB	08H
	DB	08H
	DB	08H
	DB	08H
	DB	08H
	DB	08H
	DB	08H
	DB	04H
	DB	02eH
	DB	01fH
	DB	034H
	DB	015H
	DB	04bH
	DB	00H
	DB	00H
	DB	016H
	DB	03H
	DB	0fH
	DB	011H
	DB	06H
	DB	0aH
	DB	012H
	DB	08H
	DB	08H
	DB	08H
	DB	08H
	DB	08H
	DB	08H
	DB	08H
	DB	08H
	DB	08H
	DB	08H
	DB	08H
	DB	08H
	DB	020H
	DB	019H
	DB	064H
	DB	03bH
	DB	01H
	DB	01H
	DB	01H
	DB	01H
	DB	01H
	DB	01H
	DB	01H
	DB	01H
	DB	01H
	DB	01H
	DB	01H
	DB	01H
	DB	01H
	DB	01H
	DB	01H
	DB	01H
	DB	01H
	DB	01H
	DB	03dH
	DB	046H
	DB	01bH
	DB	0aH
	DB	08H
	DB	08H
	DB	08H
	DB	08H
	DB	07H
	DB	02H
	DB	02eH
	DB	017H
	DB	0cH
	DB	026H
	DB	00H
	DB	00H
	DB	00H
	DB	00H
	DB	00H
	DB	0eH
	DB	03H
	DB	0fH
	DB	011H
	DB	05H
	DB	01fH
	DB	01bH
	DB	07H
	DB	07H
	DB	07H
	DB	07H
	DB	07H
	DB	07H
	DB	07H
	DB	07H
	DB	07H
	DB	07H
	DB	07H
	DB	036H
	DB	020H
	DB	069H
	DB	01H
	DB	01H
	DB	01H
	DB	01H
	DB	01H
	DB	01H
	DB	01H
	DB	01H
	DB	01H
	DB	01H
	DB	01H
	DB	01H
	DB	01H
	DB	01H
	DB	01H
	DB	01H
	DB	01H
	DB	01H
	DB	01H
	DB	01H
	DB	01H
	DB	01H
	DB	0f1H
	DB	07cH
	DB	017H
	DB	08H
	DB	07H
	DB	07H
	DB	04H
	DB	036H
	DB	05dH
	DB	01aH
	DB	00H
	DB	00H
	DB	00H
	DB	00H
	DB	00H
	DB	00H
	DB	00H
	DB	0eH
	DB	03H
	DB	0fH
	DB	011H
	DB	05H
	DB	01fH
	DB	01bH
	DB	07H
	DB	07H
	DB	07H
	DB	07H
	DB	07H
	DB	07H
	DB	07H
	DB	07H
	DB	07H
	DB	07H
	DB	020H
	DB	020H
	DB	096H
	DB	01H
	DB	01H
	DB	01H
	DB	01H
	DB	01H
	DB	01H
	DB	01H
	DB	01H
	DB	01H
	DB	01H
	DB	01H
	DB	01H
	DB	01H
	DB	01H
	DB	01H
	DB	01H
	DB	01H
	DB	01H
	DB	01H
	DB	01H
	DB	01H
	DB	01H
	DB	01H
	DB	01H
	DB	0a1H
	DB	051H
	DB	014H
	DB	08H
	DB	02H
	DB	02dH
	DB	03fH
	DB	00H
	DB	00H
	DB	00H
	DB	00H
	DB	00H
	DB	00H
	DB	00H
	DB	00H
	DB	00H
	DB	0eH
	DB	03H
	DB	0fH
	DB	011H
	DB	0fH
	DB	024H
	DB	020H
	DB	012H
	DB	012H
	DB	012H
	DB	01bH
	DB	019H
	DB	09H
	DB	0dH
	DB	0dH
	DB	0dH
	DB	09H
	DB	0dH
	DB	092H
	DB	01H
	DB	01H
	DB	01H
	DB	01H
	DB	01H
	DB	01H
	DB	01H
	DB	01H
	DB	01H
	DB	01H
	DB	01H
	DB	01H
	DB	01H
	DB	01H
	DB	01H
	DB	01H
	DB	01H
	DB	01H
	DB	01H
	DB	01H
	DB	01H
	DB	01H
	DB	01H
	DB	01H
	DB	01H
	DB	01H
	DB	0a2H
	DB	0bfH
	DB	01eH
	DB	032H
	DB	00H
	DB	00H
	DB	00H
	DB	00H
	DB	00H
	DB	00H
	DB	00H
	DB	00H
	DB	00H
	DB	00H
	DB	00H
	DB	0eH
	DB	03H
	DB	0fH
	DB	011H
	DB	0fH
	DB	024H
	DB	020H
	DB	012H
	DB	012H
	DB	019H
	DB	0aH
	DB	083H
	DB	047H
	DB	06dH
	DB	093H
	DB	06dH
	DB	06cH
	DB	0ecH
	DB	01H
	DB	01H
	DB	01H
	DB	01H
	DB	01H
	DB	01H
	DB	01H
	DB	01H
	DB	01H
	DB	01H
	DB	01H
	DB	01H
	DB	01H
	DB	01H
	DB	01H
	DB	01H
	DB	01H
	DB	01H
	DB	01H
	DB	01H
	DB	01H
	DB	01H
	DB	01H
	DB	01H
	DB	01H
	DB	01H
	DB	01H
	DB	01H
	DB	0a3H
	DB	0ebH
	DB	093H
	DB	094H
	DB	048H
	DB	069H
	DB	063H
	DB	023H
	DB	00H
	DB	00H
	DB	00H
	DB	00H
	DB	00H
	DB	00H
	DB	0eH
	DB	03H
	DB	0fH
	DB	011H
	DB	0fH
	DB	024H
	DB	020H
	DB	012H
	DB	09H
	DB	052H
	DB	0f0H
	DB	01H
	DB	01H
	DB	01H
	DB	01H
	DB	01H
	DB	01H
	DB	01H
	DB	01H
	DB	01H
	DB	01H
	DB	01H
	DB	01H
	DB	01H
	DB	01H
	DB	01H
	DB	01H
	DB	01H
	DB	01H
	DB	01H
	DB	01H
	DB	01H
	DB	01H
	DB	01H
	DB	01H
	DB	01H
	DB	01H
	DB	01H
	DB	01H
	DB	03eH
	DB	025H
	DB	025H
	DB	025H
	DB	025H
	DB	025H
	DB	04aH
	DB	01H
	DB	01H
	DB	01H
	DB	01H
	DB	01H
	DB	01H
	DB	01H
	DB	059H
	DB	045H
	DB	03fH
	DB	00H
	DB	00H
	DB	00H
	DB	00H
	DB	0eH
	DB	03H
	DB	0fH
	DB	011H
	DB	01eH
	DB	019H
	DB	036H
	DB	011H
	DB	063H
	DB	059H
	DB	01H
	DB	01H
	DB	01H
	DB	01H
	DB	01H
	DB	01H
	DB	01H
	DB	01H
	DB	01H
	DB	01H
	DB	01H
	DB	01H
	DB	01H
	DB	01H
	DB	01H
	DB	01H
	DB	01H
	DB	01H
	DB	01H
	DB	01H
	DB	01H
	DB	01H
	DB	01H
	DB	01H
	DB	01H
	DB	01H
	DB	01H
	DB	0e9H
	DB	07eH
	DB	017H
	DB	06H
	DB	010H
	DB	010H
	DB	010H
	DB	010H
	DB	05H
	DB	05H
	DB	05H
	DB	05H
	DB	09H
	DB	09H
	DB	050H
	DB	037H
	DB	073H
	DB	01H
	DB	029H
	DB	015H
	DB	00H
	DB	00H
	DB	00H
	DB	0eH
	DB	03H
	DB	0fH
	DB	011H
	DB	01eH
	DB	019H
	DB	06H
	DB	044H
	DB	02bH
	DB	01H
	DB	01H
	DB	01H
	DB	01H
	DB	01H
	DB	01H
	DB	01H
	DB	01H
	DB	01H
	DB	01H
	DB	01H
	DB	01H
	DB	01H
	DB	01H
	DB	01H
	DB	01H
	DB	01H
	DB	01H
	DB	01H
	DB	01H
	DB	01H
	DB	01H
	DB	01H
	DB	01H
	DB	01H
	DB	01H
	DB	0feH
	DB	052H
	DB	00H
	DB	00H
	DB	00H
	DB	00H
	DB	00H
	DB	00H
	DB	00H
	DB	00H
	DB	00H
	DB	00H
	DB	00H
	DB	00H
	DB	00H
	DB	00H
	DB	00H
	DB	00H
	DB	0cH
	DB	039H
	DB	01H
	DB	06bH
	DB	01aH
	DB	00H
	DB	00H
	DB	0eH
	DB	03H
	DB	0fH
	DB	010H
	DB	01eH
	DB	06H
	DB	07dH
	DB	074H
	DB	01H
	DB	01H
	DB	01H
	DB	01H
	DB	01H
	DB	01H
	DB	01H
	DB	01H
	DB	01H
	DB	01H
	DB	01H
	DB	01H
	DB	01H
	DB	01H
	DB	01H
	DB	01H
	DB	01H
	DB	01H
	DB	01H
	DB	01H
	DB	01H
	DB	01H
	DB	01H
	DB	01H
	DB	01H
	DB	01H
	DB	03dH
	DB	07bH
	DB	00H
	DB	00H
	DB	00H
	DB	00H
	DB	00H
	DB	00H
	DB	00H
	DB	00H
	DB	00H
	DB	00H
	DB	00H
	DB	00H
	DB	00H
	DB	00H
	DB	00H
	DB	00H
	DB	00H
	DB	00H
	DB	00H
	DB	0e6H
	DB	01H
	DB	0c5H
	DB	00H
	DB	00H
	DB	0eH
	DB	03H
	DB	0fH
	DB	010H
	DB	02dH
	DB	02dH
	DB	06eH
	DB	01H
	DB	01H
	DB	03eH
	DB	09cH
	DB	055H
	DB	055H
	DB	0a3H
	DB	01H
	DB	0ffH
	DB	072H
	DB	09cH
	DB	018H
	DB	01H
	DB	025H
	DB	0f6H
	DB	09dH
	DB	056H
	DB	04aH
	DB	0fbH
	DB	0c3H
	DB	07cH
	DB	06bH
	DB	01H
	DB	01H
	DB	01H
	DB	01H
	DB	01H
	DB	043H
	DB	00H
	DB	00H
	DB	0bH
	DB	019H
	DB	017H
	DB	017H
	DB	014H
	DB	011H
	DB	011H
	DB	011H
	DB	011H
	DB	011H
	DB	04fH
	DB	00H
	DB	017H
	DB	0e8H
	DB	06aH
	DB	036H
	DB	00H
	DB	00H
	DB	032H
	DB	0a0H
	DB	0fcH
	DB	077H
	DB	00H
	DB	0eH
	DB	03H
	DB	0fH
	DB	010H
	DB	0bH
	DB	0bbH
	DB	025H
	DB	01H
	DB	01H
	DB	03eH
	DB	02eH
	DB	00H
	DB	00H
	DB	066H
	DB	01H
	DB	054H
	DB	026H
	DB	026H
	DB	060H
	DB	01H
	DB	072H
	DB	05bH
	DB	031H
	DB	04eH
	DB	03cH
	DB	0e0H
	DB	00H
	DB	00H
	DB	05bH
	DB	0fdH
	DB	01H
	DB	01H
	DB	01H
	DB	071H
	DB	026H
	DB	00H
	DB	00H
	DB	0e4H
	DB	03eH
	DB	03eH
	DB	03eH
	DB	05aH
	DB	02bH
	DB	02bH
	DB	02bH
	DB	02bH
	DB	02bH
	DB	08dH
	DB	00H
	DB	06fH
	DB	01H
	DB	01H
	DB	099H
	DB	00H
	DB	00H
	DB	00H
	DB	086H
	DB	01H
	DB	084H
	DB	00H
	DB	0eH
	DB	03H
	DB	0fH
	DB	010H
	DB	05dH
	DB	064H
	DB	01H
	DB	01H
	DB	01H
	DB	01H
	DB	0c8H
	DB	00H
	DB	00H
	DB	084H
	DB	01H
	DB	062H
	DB	00H
	DB	00H
	DB	0cH
	DB	04aH
	DB	048H
	DB	00H
	DB	00H
	DB	03H
	DB	01H
	DB	096H
	DB	0eH
	DB	030H
	DB	081H
	DB	049H
	DB	01H
	DB	01H
	DB	01H
	DB	053H
	DB	00H
	DB	00H
	DB	00H
	DB	047H
	DB	01H
	DB	01H
	DB	01H
	DB	01H
	DB	01H
	DB	01H
	DB	01H
	DB	01H
	DB	01H
	DB	0e5H
	DB	00H
	DB	063H
	DB	03dH
	DB	049H
	DB	0cbH
	DB	00H
	DB	00H
	DB	00H
	DB	0fH
	DB	01H
	DB	03aH
	DB	00H
	DB	0eH
	DB	03H
	DB	0fH
	DB	010H
	DB	05dH
	DB	028H
	DB	01H
	DB	01H
	DB	01H
	DB	01H
	DB	06bH
	DB	00H
	DB	00H
	DB	060H
	DB	01H
	DB	03H
	DB	00H
	DB	00H
	DB	00H
	DB	09eH
	DB	047H
	DB	00H
	DB	00H
	DB	086H
	DB	01H
	DB	01H
	DB	0f7H
	DB	099H
	DB	05aH
	DB	01H
	DB	01H
	DB	01H
	DB	01H
	DB	040H
	DB	00H
	DB	00H
	DB	00H
	DB	047H
	DB	01H
	DB	01H
	DB	056H
	DB	0e3H
	DB	027H
	DB	027H
	DB	027H
	DB	027H
	DB	027H
	DB	051H
	DB	00H
	DB	00H
	DB	024H
	DB	01fH
	DB	00H
	DB	00H
	DB	00H
	DB	00H
	DB	021H
	DB	03dH
	DB	097H
	DB	00H
	DB	016H
	DB	03H
	DB	0fH
	DB	010H
	DB	0eH
	DB	091H
	DB	01H
	DB	01H
	DB	01H
	DB	01H
	DB	0a0H
	DB	0aaH
	DB	00H
	DB	06H
	DB	09fH
	DB	021H
	DB	00H
	DB	00H
	DB	00H
	DB	028H
	DB	088H
	DB	00H
	DB	00H
	DB	028H
	DB	01H
	DB	0eeH
	DB	019H
	DB	01fH
	DB	045H
	DB	01H
	DB	01H
	DB	01H
	DB	01H
	DB	040H
	DB	00H
	DB	00H
	DB	00H
	DB	046H
	DB	01H
	DB	01H
	DB	038H
	DB	00H
	DB	00H
	DB	00H
	DB	00H
	DB	00H
	DB	00H
	DB	00H
	DB	00H
	DB	085H
	DB	09bH
	DB	09aH
	DB	052H
	DB	00H
	DB	00H
	DB	00H
	DB	033H
	DB	03cH
	DB	02aH
	DB	00H
	DB	016H
	DB	03H
	DB	0fH
	DB	010H
	DB	0eH
	DB	03aH
	DB	01H
	DB	01H
	DB	01H
	DB	01H
	DB	05aH
	DB	019H
	DB	00H
	DB	0eH
	DB	038H
	DB	00H
	DB	00H
	DB	01aH
	DB	00H
	DB	087H
	DB	080H
	DB	00H
	DB	031H
	DB	09eH
	DB	01H
	DB	048H
	DB	00H
	DB	00H
	DB	062H
	DB	01H
	DB	01H
	DB	01H
	DB	01H
	DB	040H
	DB	00H
	DB	00H
	DB	00H
	DB	054H
	DB	01H
	DB	01H
	DB	038H
	DB	00H
	DB	00H
	DB	00H
	DB	00H
	DB	00H
	DB	00H
	DB	00H
	DB	00H
	DB	08bH
	DB	01H
	DB	01H
	DB	085H
	DB	00H
	DB	00H
	DB	00H
	DB	021H
	DB	03cH
	DB	02aH
	DB	00H
	DB	016H
	DB	03H
	DB	0fH
	DB	010H
	DB	016H
	DB	068H
	DB	01H
	DB	01H
	DB	01H
	DB	01H
	DB	01H
	DB	0c2H
	DB	00H
	DB	05cH
	DB	07eH
	DB	00H
	DB	023H
	DB	01bH
	DB	00H
	DB	019H
	DB	010H
	DB	00H
	DB	06H
	DB	025H
	DB	01H
	DB	029H
	DB	00H
	DB	00H
	DB	041H
	DB	01H
	DB	01H
	DB	01H
	DB	01H
	DB	040H
	DB	00H
	DB	00H
	DB	00H
	DB	054H
	DB	01H
	DB	01H
	DB	09fH
	DB	039H
	DB	028H
	DB	028H
	DB	028H
	DB	028H
	DB	08bH
	DB	00H
	DB	00H
	DB	037H
	DB	01H
	DB	01H
	DB	042H
	DB	00H
	DB	00H
	DB	00H
	DB	021H
	DB	059H
	DB	02aH
	DB	00H
	DB	016H
	DB	03H
	DB	0fH
	DB	010H
	DB	016H
	DB	068H
	DB	01H
	DB	01H
	DB	01H
	DB	01H
	DB	01H
	DB	038H
	DB	00H
	DB	01aH
	DB	031H
	DB	00H
	DB	0bdH
	DB	053H
	DB	00H
	DB	026H
	DB	026H
	DB	00H
	DB	061H
	DB	01H
	DB	01H
	DB	029H
	DB	00H
	DB	00H
	DB	041H
	DB	01H
	DB	01H
	DB	01H
	DB	01H
	DB	040H
	DB	00H
	DB	00H
	DB	00H
	DB	054H
	DB	01H
	DB	01H
	DB	01H
	DB	01H
	DB	01H
	DB	01H
	DB	01H
	DB	01H
	DB	072H
	DB	00H
	DB	00H
	DB	037H
	DB	01H
	DB	01H
	DB	042H
	DB	00H
	DB	00H
	DB	00H
	DB	021H
	DB	059H
	DB	02aH
	DB	00H
	DB	016H
	DB	03H
	DB	05H
	DB	010H
	DB	0cH
	DB	068H
	DB	01H
	DB	01H
	DB	01H
	DB	01H
	DB	01H
	DB	09bH
	DB	026H
	DB	00H
	DB	00H
	DB	00H
	DB	0caH
	DB	06cH
	DB	00H
	DB	00H
	DB	00H
	DB	00H
	DB	046H
	DB	01H
	DB	01H
	DB	029H
	DB	00H
	DB	00H
	DB	041H
	DB	01H
	DB	01H
	DB	01H
	DB	01H
	DB	081H
	DB	00H
	DB	00H
	DB	00H
	DB	046H
	DB	01H
	DB	01H
	DB	0a4H
	DB	073H
	DB	058H
	DB	058H
	DB	058H
	DB	058H
	DB	06dH
	DB	00H
	DB	00H
	DB	037H
	DB	01H
	DB	01H
	DB	042H
	DB	00H
	DB	00H
	DB	00H
	DB	021H
	DB	03cH
	DB	02aH
	DB	00H
	DB	016H
	DB	03H
	DB	05H
	DB	010H
	DB	0cH
	DB	03aH
	DB	01H
	DB	01H
	DB	01H
	DB	01H
	DB	01H
	DB	03dH
	DB	023H
	DB	00H
	DB	00H
	DB	00H
	DB	03aH
	DB	057H
	DB	01aH
	DB	00H
	DB	00H
	DB	01aH
	DB	0f2H
	DB	01H
	DB	01H
	DB	029H
	DB	00H
	DB	00H
	DB	041H
	DB	01H
	DB	01H
	DB	01H
	DB	01H
	DB	052H
	DB	00H
	DB	00H
	DB	00H
	DB	027H
	DB	01H
	DB	01H
	DB	091H
	DB	01cH
	DB	01cH
	DB	01cH
	DB	01cH
	DB	033H
	DB	04dH
	DB	00H
	DB	00H
	DB	037H
	DB	01H
	DB	01H
	DB	042H
	DB	00H
	DB	00H
	DB	00H
	DB	033H
	DB	03cH
	DB	02aH
	DB	00H
	DB	016H
	DB	03H
	DB	05H
	DB	010H
	DB	0cH
	DB	028H
	DB	01H
	DB	01H
	DB	01H
	DB	01H
	DB	01H
	DB	01H
	DB	080H
	DB	00H
	DB	00H
	DB	01aH
	DB	09aH
	DB	049H
	DB	016H
	DB	00H
	DB	00H
	DB	022H
	DB	03cH
	DB	01H
	DB	01H
	DB	029H
	DB	00H
	DB	00H
	DB	041H
	DB	01H
	DB	01H
	DB	01H
	DB	01H
	DB	07fH
	DB	00H
	DB	00H
	DB	00H
	DB	027H
	DB	01H
	DB	01H
	DB	090H
	DB	00H
	DB	00H
	DB	00H
	DB	00H
	DB	00H
	DB	00H
	DB	00H
	DB	00H
	DB	037H
	DB	01H
	DB	01H
	DB	042H
	DB	00H
	DB	00H
	DB	00H
	DB	021H
	DB	03dH
	DB	02aH
	DB	00H
	DB	016H
	DB	03H
	DB	05H
	DB	010H
	DB	04eH
	DB	08eH
	DB	01H
	DB	01H
	DB	01H
	DB	01H
	DB	01H
	DB	01H
	DB	065H
	DB	00H
	DB	00H
	DB	04dH
	DB	03bH
	DB	01H
	DB	03H
	DB	00H
	DB	00H
	DB	07bH
	DB	01H
	DB	01H
	DB	01H
	DB	0eaH
	DB	00H
	DB	00H
	DB	061H
	DB	01H
	DB	01H
	DB	01H
	DB	01H
	DB	02fH
	DB	00H
	DB	00H
	DB	00H
	DB	038H
	DB	01H
	DB	01H
	DB	06aH
	DB	00H
	DB	00H
	DB	00H
	DB	00H
	DB	00H
	DB	00H
	DB	00H
	DB	00H
	DB	0e2H
	DB	01H
	DB	01H
	DB	087H
	DB	00H
	DB	00H
	DB	00H
	DB	05fH
	DB	01H
	DB	02aH
	DB	00H
	DB	016H
	DB	03H
	DB	05H
	DB	010H
	DB	0eH
	DB	062H
	DB	01H
	DB	01H
	DB	01H
	DB	01H
	DB	01H
	DB	01H
	DB	09dH
	DB	0c6H
	DB	043H
	DB	08cH
	DB	01H
	DB	01H
	DB	039H
	DB	043H
	DB	043H
	DB	094H
	DB	01H
	DB	01H
	DB	01H
	DB	056H
	DB	0c7H
	DB	044H
	DB	03aH
	DB	01H
	DB	01H
	DB	01H
	DB	0a2H
	DB	021H
	DB	00H
	DB	00H
	DB	00H
	DB	07dH
	DB	045H
	DB	045H
	DB	07fH
	DB	00H
	DB	00H
	DB	00H
	DB	00H
	DB	00H
	DB	00H
	DB	00H
	DB	00H
	DB	0b9H
	DB	066H
	DB	066H
	DB	08H
	DB	00H
	DB	00H
	DB	00H
	DB	082H
	DB	01H
	DB	039H
	DB	00H
	DB	0eH
	DB	03H
	DB	05H
	DB	010H
	DB	0bH
	DB	09H
	DB	057H
	DB	01H
	DB	01H
	DB	01H
	DB	01H
	DB	01H
	DB	01H
	DB	01H
	DB	01H
	DB	01H
	DB	01H
	DB	01H
	DB	01H
	DB	01H
	DB	01H
	DB	01H
	DB	01H
	DB	01H
	DB	01H
	DB	01H
	DB	01H
	DB	01H
	DB	01H
	DB	01H
	DB	01H
	DB	01H
	DB	08cH
	DB	00H
	DB	00H
	DB	00H
	DB	00H
	DB	00H
	DB	00H
	DB	00H
	DB	00H
	DB	00H
	DB	00H
	DB	00H
	DB	00H
	DB	00H
	DB	00H
	DB	00H
	DB	00H
	DB	00H
	DB	00H
	DB	00H
	DB	00H
	DB	00H
	DB	00H
	DB	030H
	DB	071H
	DB	01H
	DB	0bcH
	DB	00H
	DB	0eH
	DB	03H
	DB	05H
	DB	010H
	DB	02cH
	DB	0bH
	DB	044H
	DB	01H
	DB	01H
	DB	01H
	DB	01H
	DB	01H
	DB	01H
	DB	01H
	DB	01H
	DB	01H
	DB	01H
	DB	01H
	DB	01H
	DB	01H
	DB	01H
	DB	01H
	DB	01H
	DB	01H
	DB	01H
	DB	01H
	DB	01H
	DB	01H
	DB	01H
	DB	01H
	DB	01H
	DB	0faH
	DB	078H
	DB	00H
	DB	00H
	DB	00H
	DB	00H
	DB	00H
	DB	00H
	DB	00H
	DB	00H
	DB	00H
	DB	00H
	DB	00H
	DB	00H
	DB	00H
	DB	00H
	DB	00H
	DB	00H
	DB	00H
	DB	00H
	DB	00H
	DB	00H
	DB	00H
	DB	00H
	DB	08dH
	DB	01H
	DB	06aH
	DB	01aH
	DB	00H
	DB	0eH
	DB	03H
	DB	05H
	DB	06H
	DB	034H
	DB	06H
	DB	035H
	DB	090H
	DB	01H
	DB	01H
	DB	01H
	DB	01H
	DB	01H
	DB	01H
	DB	01H
	DB	01H
	DB	01H
	DB	01H
	DB	01H
	DB	01H
	DB	01H
	DB	01H
	DB	01H
	DB	01H
	DB	01H
	DB	01H
	DB	01H
	DB	01H
	DB	01H
	DB	01H
	DB	04aH
	DB	0baH
	DB	00H
	DB	00H
	DB	00H
	DB	00H
	DB	00H
	DB	00H
	DB	00H
	DB	00H
	DB	00H
	DB	00H
	DB	00H
	DB	00H
	DB	00H
	DB	00H
	DB	00H
	DB	00H
	DB	00H
	DB	00H
	DB	00H
	DB	00H
	DB	00H
	DB	032H
	DB	08fH
	DB	01H
	DB	055H
	DB	077H
	DB	00H
	DB	00H
	DB	0eH
	DB	03H
	DB	05H
	DB	06H
	DB	034H
	DB	06H
	DB	010H
	DB	06H
	DB	039H
	DB	01H
	DB	01H
	DB	01H
	DB	01H
	DB	01H
	DB	01H
	DB	01H
	DB	01H
	DB	01H
	DB	01H
	DB	01H
	DB	01H
	DB	01H
	DB	01H
	DB	01H
	DB	01H
	DB	01H
	DB	01H
	DB	01H
	DB	01H
	DB	049H
	DB	044H
	DB	031H
	DB	015H
	DB	015H
	DB	015H
	DB	015H
	DB	015H
	DB	015H
	DB	015H
	DB	015H
	DB	015H
	DB	015H
	DB	015H
	DB	015H
	DB	015H
	DB	015H
	DB	015H
	DB	015H
	DB	015H
	DB	01cH
	DB	015H
	DB	01dH
	DB	082H
	DB	0f4H
	DB	01H
	DB	071H
	DB	022H
	DB	00H
	DB	00H
	DB	00H
	DB	0eH
	DB	03H
	DB	05H
	DB	06H
	DB	034H
	DB	06H
	DB	0dH
	DB	09H
	DB	02dH
	DB	053H
	DB	0a1H
	DB	01H
	DB	01H
	DB	01H
	DB	01H
	DB	01H
	DB	01H
	DB	01H
	DB	01H
	DB	01H
	DB	01H
	DB	01H
	DB	01H
	DB	01H
	DB	01H
	DB	01H
	DB	01H
	DB	01H
	DB	01H
	DB	04aH
	DB	057H
	DB	018H
	DB	018H
	DB	018H
	DB	018H
	DB	018H
	DB	018H
	DB	018H
	DB	018H
	DB	018H
	DB	018H
	DB	018H
	DB	018H
	DB	018H
	DB	018H
	DB	073H
	DB	074H
	DB	03bH
	DB	03bH
	DB	03bH
	DB	03bH
	DB	01H
	DB	01H
	DB	05aH
	DB	027H
	DB	033H
	DB	00H
	DB	00H
	DB	00H
	DB	00H
	DB	0eH
	DB	03H
	DB	05H
	DB	06H
	DB	0bH
	DB	05H
	DB	09H
	DB	014H
	DB	0dH
	DB	023H
	DB	012H
	DB	053H
	DB	06cH
	DB	098H
	DB	070H
	DB	070H
	DB	070H
	DB	098H
	DB	049H
	DB	01H
	DB	01H
	DB	01H
	DB	01H
	DB	01H
	DB	01H
	DB	01H
	DB	01H
	DB	01H
	DB	01H
	DB	01H
	DB	01H
	DB	01H
	DB	01H
	DB	01H
	DB	01H
	DB	01H
	DB	01H
	DB	01H
	DB	01H
	DB	01H
	DB	01H
	DB	01H
	DB	01H
	DB	01H
	DB	01H
	DB	01H
	DB	097H
	DB	048H
	DB	06eH
	DB	06eH
	DB	095H
	DB	039H
	DB	043H
	DB	0fH
	DB	00H
	DB	00H
	DB	00H
	DB	00H
	DB	00H
	DB	00H
	DB	0eH
	DB	03H
	DB	05H
	DB	06H
	DB	0bH
	DB	05H
	DB	09H
	DB	014H
	DB	014H
	DB	014H
	DB	011H
	DB	035H
	DB	035H
	DB	0fH
	DB	05H
	DB	05H
	DB	05H
	DB	0bH
	DB	053H
	DB	01H
	DB	01H
	DB	01H
	DB	01H
	DB	01H
	DB	01H
	DB	01H
	DB	01H
	DB	01H
	DB	01H
	DB	01H
	DB	01H
	DB	01H
	DB	01H
	DB	01H
	DB	01H
	DB	01H
	DB	01H
	DB	01H
	DB	01H
	DB	01H
	DB	01H
	DB	01H
	DB	01H
	DB	01H
	DB	01H
	DB	067H
	DB	00H
	DB	00H
	DB	00H
	DB	00H
	DB	00H
	DB	00H
	DB	00H
	DB	00H
	DB	00H
	DB	00H
	DB	00H
	DB	00H
	DB	00H
	DB	00H
	DB	0eH
	DB	03H
	DB	05H
	DB	06H
	DB	0bH
	DB	05H
	DB	011H
	DB	0dH
	DB	0dH
	DB	0dH
	DB	0dH
	DB	0dH
	DB	0dH
	DB	0dH
	DB	0dH
	DB	0dH
	DB	0dH
	DB	09H
	DB	02cH
	DB	065H
	DB	01H
	DB	01H
	DB	01H
	DB	01H
	DB	01H
	DB	01H
	DB	01H
	DB	01H
	DB	01H
	DB	01H
	DB	01H
	DB	01H
	DB	01H
	DB	01H
	DB	01H
	DB	01H
	DB	01H
	DB	01H
	DB	01H
	DB	01H
	DB	01H
	DB	01H
	DB	01H
	DB	01H
	DB	047H
	DB	00H
	DB	00H
	DB	00H
	DB	00H
	DB	00H
	DB	00H
	DB	00H
	DB	00H
	DB	00H
	DB	00H
	DB	00H
	DB	00H
	DB	00H
	DB	00H
	DB	00H
	DB	0eH
	DB	03H
	DB	05H
	DB	06H
	DB	0bH
	DB	05H
	DB	011H
	DB	0dH
	DB	0dH
	DB	0dH
	DB	0dH
	DB	0dH
	DB	0dH
	DB	0dH
	DB	0dH
	DB	0dH
	DB	0dH
	DB	0dH
	DB	09H
	DB	02cH
	DB	045H
	DB	02bH
	DB	01H
	DB	01H
	DB	01H
	DB	01H
	DB	01H
	DB	01H
	DB	01H
	DB	01H
	DB	01H
	DB	01H
	DB	01H
	DB	01H
	DB	01H
	DB	01H
	DB	01H
	DB	01H
	DB	01H
	DB	01H
	DB	01H
	DB	01H
	DB	01H
	DB	064H
	DB	00H
	DB	00H
	DB	00H
	DB	00H
	DB	00H
	DB	00H
	DB	00H
	DB	00H
	DB	00H
	DB	00H
	DB	00H
	DB	00H
	DB	076H
	DB	0b4H
	DB	0a5H
	DB	00H
	DB	0eH
	DB	03H
	DB	05H
	DB	06H
	DB	0bH
	DB	05H
	DB	011H
	DB	0dH
	DB	0dH
	DB	0dH
	DB	0dH
	DB	0dH
	DB	0dH
	DB	0dH
	DB	0dH
	DB	0dH
	DB	0dH
	DB	0dH
	DB	014H
	DB	014H
	DB	02cH
	DB	051H
	DB	0f5H
	DB	01H
	DB	01H
	DB	01H
	DB	01H
	DB	01H
	DB	01H
	DB	01H
	DB	01H
	DB	01H
	DB	01H
	DB	01H
	DB	01H
	DB	01H
	DB	01H
	DB	01H
	DB	01H
	DB	01H
	DB	01H
	DB	018H
	DB	0c0H
	DB	00H
	DB	00H
	DB	00H
	DB	00H
	DB	00H
	DB	00H
	DB	00H
	DB	00H
	DB	00H
	DB	00H
	DB	00H
	DB	00H
	DB	0afH
	DB	0daH
	DB	0d2H
	DB	00H
	DB	00H
	DB	0eH
	DB	03H
	DB	05H
	DB	06H
	DB	01dH
	DB	0fH
	DB	010H
	DB	09H
	DB	09H
	DB	09H
	DB	09H
	DB	09H
	DB	09H
	DB	09H
	DB	09H
	DB	0dH
	DB	014H
	DB	014H
	DB	010H
	DB	0bH
	DB	01cH
	DB	00H
	DB	033H
	DB	065H
	DB	074H
	DB	01H
	DB	01H
	DB	01H
	DB	01H
	DB	01H
	DB	01H
	DB	01H
	DB	01H
	DB	01H
	DB	01H
	DB	01H
	DB	01H
	DB	01H
	DB	01H
	DB	0a4H
	DB	046H
	DB	05eH
	DB	00H
	DB	00H
	DB	00H
	DB	00H
	DB	00H
	DB	00H
	DB	00H
	DB	00H
	DB	00H
	DB	00H
	DB	00H
	DB	00H
	DB	0b0H
	DB	0dcH
	DB	013H
	DB	0cdH
	DB	00H
	DB	00H
	DB	0eH
	DB	03H
	DB	05H
	DB	06H
	DB	01dH
	DB	0fH
	DB	010H
	DB	0dH
	DB	0dH
	DB	0dH
	DB	014H
	DB	014H
	DB	017H
	DB	014H
	DB	09H
	DB	0fH
	DB	022H
	DB	01cH
	DB	03fH
	DB	00H
	DB	00H
	DB	00H
	DB	00H
	DB	00H
	DB	05fH
	DB	0e1H
	DB	056H
	DB	01H
	DB	01H
	DB	01H
	DB	01H
	DB	01H
	DB	01H
	DB	01H
	DB	01H
	DB	01H
	DB	01H
	DB	057H
	DB	067H
	DB	011H
	DB	00H
	DB	00H
	DB	00H
	DB	00H
	DB	00H
	DB	00H
	DB	00H
	DB	00H
	DB	00H
	DB	00H
	DB	00H
	DB	00H
	DB	00H
	DB	0acH
	DB	0dbH
	DB	013H
	DB	013H
	DB	0d0H
	DB	00H
	DB	00H
	DB	0eH
	DB	03H
	DB	05H
	DB	06H
	DB	022H
	DB	01eH
	DB	06H
	DB	010H
	DB	06H
	DB	0fH
	DB	035H
	DB	0bH
	DB	0eH
	DB	01cH
	DB	04cH
	DB	026H
	DB	00H
	DB	00H
	DB	00H
	DB	00H
	DB	00H
	DB	00H
	DB	00H
	DB	00H
	DB	00H
	DB	00H
	DB	04cH
	DB	02H
	DB	044H
	DB	08fH
	DB	029H
	DB	06fH
	DB	06fH
	DB	095H
	DB	038H
	DB	0c9H
	DB	050H
	DB	05cH
	DB	00H
	DB	00H
	DB	00H
	DB	00H
	DB	00H
	DB	00H
	DB	00H
	DB	00H
	DB	00H
	DB	00H
	DB	00H
	DB	00H
	DB	00H
	DB	00H
	DB	0a7H
	DB	089H
	DB	013H
	DB	013H
	DB	013H
	DB	0d6H
	DB	00H
	DB	00H
	DB	0eH
	DB	03H
	DB	06H
	DB	035H
	DB	030H
	DB	031H
	DB	031H
	DB	03fH
	DB	030H
	DB	01aH
	DB	00H
	DB	00H
	DB	00H
	DB	00H
	DB	00H
	DB	00H
	DB	00H
	DB	00H
	DB	00H
	DB	00H
	DB	00H
	DB	00H
	DB	00H
	DB	00H
	DB	00H
	DB	00H
	DB	00H
	DB	00H
	DB	00H
	DB	00H
	DB	00H
	DB	00H
	DB	00H
	DB	00H
	DB	00H
	DB	00H
	DB	00H
	DB	00H
	DB	00H
	DB	00H
	DB	00H
	DB	00H
	DB	00H
	DB	00H
	DB	00H
	DB	00H
	DB	00H
	DB	00H
	DB	0a9H
	DB	00H
	DB	00H
	DB	00H
	DB	0b8H
	DB	013H
	DB	013H
	DB	013H
	DB	0d1H
	DB	0adH
	DB	00H
	DB	00H
	DB	0eH
	DB	03H
	DB	06H
	DB	023H
	DB	00H
	DB	00H
	DB	00H
	DB	00H
	DB	00H
	DB	00H
	DB	00H
	DB	00H
	DB	00H
	DB	00H
	DB	00H
	DB	00H
	DB	00H
	DB	00H
	DB	00H
	DB	00H
	DB	00H
	DB	00H
	DB	00H
	DB	00H
	DB	00H
	DB	00H
	DB	00H
	DB	00H
	DB	00H
	DB	00H
	DB	00H
	DB	00H
	DB	00H
	DB	00H
	DB	00H
	DB	00H
	DB	00H
	DB	00H
	DB	00H
	DB	00H
	DB	00H
	DB	00H
	DB	00H
	DB	00H
	DB	00H
	DB	00H
	DB	0a6H
	DB	0b5H
	DB	08aH
	DB	0b1H
	DB	00H
	DB	0aeH
	DB	0deH
	DB	013H
	DB	013H
	DB	0b7H
	DB	00H
	DB	00H
	DB	00H
	DB	00H
	DB	0eH
	DB	03H
	DB	06H
	DB	023H
	DB	00H
	DB	00H
	DB	00H
	DB	00H
	DB	00H
	DB	00H
	DB	00H
	DB	00H
	DB	00H
	DB	00H
	DB	00H
	DB	00H
	DB	00H
	DB	00H
	DB	00H
	DB	00H
	DB	00H
	DB	00H
	DB	00H
	DB	00H
	DB	00H
	DB	00H
	DB	00H
	DB	00H
	DB	00H
	DB	00H
	DB	00H
	DB	00H
	DB	00H
	DB	00H
	DB	00H
	DB	00H
	DB	00H
	DB	00H
	DB	00H
	DB	00H
	DB	00H
	DB	00H
	DB	00H
	DB	00H
	DB	00H
	DB	079H
	DB	0d8H
	DB	013H
	DB	013H
	DB	0d5H
	DB	00H
	DB	0d3H
	DB	013H
	DB	013H
	DB	0b6H
	DB	00H
	DB	00H
	DB	00H
	DB	00H
	DB	00H
	DB	0eH
	DB	03H
	DB	06H
	DB	023H
	DB	00H
	DB	00H
	DB	00H
	DB	00H
	DB	00H
	DB	00H
	DB	00H
	DB	00H
	DB	00H
	DB	00H
	DB	00H
	DB	00H
	DB	00H
	DB	00H
	DB	00H
	DB	00H
	DB	00H
	DB	00H
	DB	00H
	DB	00H
	DB	00H
	DB	00H
	DB	00H
	DB	00H
	DB	00H
	DB	00H
	DB	00H
	DB	00H
	DB	00H
	DB	00H
	DB	00H
	DB	00H
	DB	00H
	DB	00H
	DB	00H
	DB	00H
	DB	00H
	DB	00H
	DB	00H
	DB	00H
	DB	00H
	DB	0abH
	DB	0ccH
	DB	0ddH
	DB	013H
	DB	013H
	DB	0ceH
	DB	0dfH
	DB	013H
	DB	0cfH
	DB	00H
	DB	00H
	DB	00H
	DB	00H
	DB	00H
	DB	00H
	DB	0eH
	DB	03H
	DB	010H
	DB	05H
	DB	00H
	DB	00H
	DB	00H
	DB	00H
	DB	00H
	DB	00H
	DB	00H
	DB	00H
	DB	00H
	DB	00H
	DB	00H
	DB	00H
	DB	00H
	DB	00H
	DB	00H
	DB	00H
	DB	00H
	DB	00H
	DB	00H
	DB	00H
	DB	00H
	DB	00H
	DB	00H
	DB	00H
	DB	00H
	DB	00H
	DB	00H
	DB	00H
	DB	00H
	DB	00H
	DB	00H
	DB	00H
	DB	00H
	DB	00H
	DB	00H
	DB	00H
	DB	00H
	DB	00H
	DB	00H
	DB	00H
	DB	00H
	DB	00H
	DB	00H
	DB	079H
	DB	0d9H
	DB	013H
	DB	013H
	DB	013H
	DB	0d4H
	DB	00H
	DB	00H
	DB	00H
	DB	00H
	DB	00H
	DB	00H
	DB	00H
	DB	01dH
	DB	0aH
	DB	05fH
	DB	01bH
	DB	01aH
	DB	00H
	DB	00H
	DB	00H
	DB	00H
	DB	00H
	DB	00H
	DB	00H
	DB	00H
	DB	00H
	DB	00H
	DB	00H
	DB	00H
	DB	00H
	DB	00H
	DB	00H
	DB	00H
	DB	00H
	DB	00H
	DB	00H
	DB	00H
	DB	00H
	DB	00H
	DB	00H
	DB	00H
	DB	00H
	DB	00H
	DB	00H
	DB	00H
	DB	00H
	DB	00H
	DB	00H
	DB	00H
	DB	00H
	DB	00H
	DB	00H
	DB	00H
	DB	00H
	DB	00H
	DB	00H
	DB	00H
	DB	00H
	DB	00H
	DB	00H
	DB	076H
	DB	0d7H
	DB	013H
	DB	08aH
	DB	075H
	DB	00H
	DB	00H
	DB	00H
	DB	00H
	DB	00H
	DB	00H
	DB	00H
	DB	017H
	DB	09H
	DB	01cH
	DB	02fH
	DB	016H
	DB	00H
	DB	00H
	DB	00H
	DB	00H
	DB	00H
	DB	00H
	DB	00H
	DB	00H
	DB	00H
	DB	00H
	DB	00H
	DB	00H
	DB	00H
	DB	00H
	DB	00H
	DB	00H
	DB	00H
	DB	00H
	DB	00H
	DB	00H
	DB	00H
	DB	00H
	DB	00H
	DB	00H
	DB	00H
	DB	00H
	DB	00H
	DB	00H
	DB	00H
	DB	00H
	DB	00H
	DB	00H
	DB	00H
	DB	00H
	DB	00H
	DB	00H
	DB	00H
	DB	00H
	DB	00H
	DB	00H
	DB	00H
	DB	00H
	DB	00H
	DB	00H
	DB	075H
	DB	089H
	DB	0b3H
	DB	00H
	DB	00H
	DB	00H
	DB	00H
	DB	00H
	DB	00H
	DB	00H
	DB	032H
	DB	02fH
	DB	04fH
	DB	01aH
	DB	0dH
	DB	04H
	DB	04cH
	DB	00H
	DB	00H
	DB	00H
	DB	00H
	DB	00H
	DB	00H
	DB	00H
	DB	00H
	DB	00H
	DB	00H
	DB	00H
	DB	00H
	DB	00H
	DB	00H
	DB	00H
	DB	00H
	DB	00H
	DB	00H
	DB	00H
	DB	00H
	DB	00H
	DB	00H
	DB	00H
	DB	00H
	DB	00H
	DB	00H
	DB	00H
	DB	00H
	DB	00H
	DB	00H
	DB	00H
	DB	00H
	DB	00H
	DB	00H
	DB	00H
	DB	00H
	DB	00H
	DB	00H
	DB	00H
	DB	00H
	DB	00H
	DB	00H
	DB	00H
	DB	00H
	DB	0a8H
	DB	00H
	DB	00H
	DB	00H
	DB	00H
	DB	00H
	DB	00H
	DB	00H
	DB	04bH
	DB	03H
	DB	01bH
	DB	04bH
	DB	00H
	DB	05bH
	DB	02H
	DB	07H
	DB	033H
	DB	00H
	DB	00H
	DB	00H
	DB	00H
	DB	00H
	DB	00H
	DB	00H
	DB	00H
	DB	00H
	DB	00H
	DB	00H
	DB	00H
	DB	00H
	DB	00H
	DB	00H
	DB	00H
	DB	00H
	DB	00H
	DB	00H
	DB	00H
	DB	00H
	DB	00H
	DB	00H
	DB	00H
	DB	00H
	DB	00H
	DB	00H
	DB	00H
	DB	00H
	DB	00H
	DB	00H
	DB	00H
	DB	00H
	DB	00H
	DB	00H
	DB	00H
	DB	00H
	DB	00H
	DB	00H
	DB	00H
	DB	00H
	DB	00H
	DB	00H
	DB	00H
	DB	00H
	DB	00H
	DB	00H
	DB	00H
	DB	00H
	DB	00H
	DB	04dH
	DB	0aH
	DB	07aH
	DB	01cH
	DB	00H
	DB	00H
	DB	00H
	DB	05cH
	DB	01fH
	DB	07aH
	DB	024H
	DB	034H
	DB	016H
	DB	04eH
	DB	0cH
	DB	0cH
	DB	0cH
	DB	0cH
	DB	0cH
	DB	0cH
	DB	0cH
	DB	0cH
	DB	0cH
	DB	0cH
	DB	0cH
	DB	0cH
	DB	0cH
	DB	0cH
	DB	0cH
	DB	0cH
	DB	0cH
	DB	0cH
	DB	0cH
	DB	0cH
	DB	0cH
	DB	0cH
	DB	0cH
	DB	0cH
	DB	0cH
	DB	0cH
	DB	0cH
	DB	0cH
	DB	0cH
	DB	0cH
	DB	0cH
	DB	0cH
	DB	0cH
	DB	0cH
	DB	0cH
	DB	0cH
	DB	0cH
	DB	0cH
	DB	0cH
	DB	0cH
	DB	0cH
	DB	0cH
	DB	04eH
	DB	016H
	DB	01dH
	DB	014H
	DB	02fH
	DB	01bH
	DB	01cH
	DB	00H
	DB	00H
	DB	00H
	DB	00H
	DB	00H
	DB	01aH
	DB	016H
	DB	011H
	DB	03H
	DB	03H
	DB	0aH
	DB	0aH
	DB	0aH
	DB	0aH
	DB	0aH
	DB	0aH
	DB	0aH
	DB	0aH
	DB	0aH
	DB	0aH
	DB	0aH
	DB	0aH
	DB	0aH
	DB	0aH
	DB	0aH
	DB	0aH
	DB	0aH
	DB	0aH
	DB	0aH
	DB	0aH
	DB	0aH
	DB	0aH
	DB	0aH
	DB	0aH
	DB	0aH
	DB	0aH
	DB	0aH
	DB	0aH
	DB	0aH
	DB	0aH
	DB	0aH
	DB	0aH
	DB	0aH
	DB	0aH
	DB	0aH
	DB	0aH
	DB	0aH
	DB	0aH
	DB	0aH
	DB	0aH
	DB	0aH
	DB	0aH
	DB	0aH
	DB	0aH
	DB	03H
	DB	03H
	DB	014H
	DB	078H
	DB	04bH
	DB	00H
	DB	00H
	DB	00H
CONST	ENDS
END
