; Listing generated by Microsoft (R) Optimizing Compiler Version 16.00.40219.01 

	TITLE	C:\DUII\DUII\Graphics\Yellow_6.c
	.686P
	.XMM
	include listing.inc
	.model	flat

INCLUDELIB LIBCMT
INCLUDELIB OLDNAMES

PUBLIC	_bmYellow_6
CONST	SEGMENT
_ColorsYellow_6 DD 00H
	DD	0ffffH
	DD	010101H
	DD	020202H
	DD	030303H
	DD	040404H
	DD	0191919H
	DD	0a0a0aH
	DD	060606H
	DD	080808H
	DD	0151515H
	DD	01b1b1bH
	DD	0d0d0dH
	DD	0202020H
	DD	0101010H
	DD	050505H
	DD	0171718H
	DD	0131313H
	DD	0121212H
	DD	0161616H
	DD	01f1f1fH
	DD	090909H
	DD	0c0c0cH
	DD	0131212H
	DD	0f0f0fH
	DD	070707H
	DD	0e0e0eH
	DD	0b0b0bH
	DD	0212121H
	DD	0222222H
	DD	0100f0fH
	DD	0d0b0aH
	DD	0d0c0cH
	DD	0181818H
	DD	0111010H
	DD	01e1d1dH
	DD	070606H
	DD	0f0c0cH
	DD	0101616H
	DD	01c1c1cH
	DD	01d1c1cH
	DD	090707H
	DD	0b0909H
	DD	0f0e0eH
	DD	0111314H
	DD	060101H
	DD	050303H
	DD	0e1515H
	DD	080000H
	DD	0a0000H
	DD	0d0000H
	DD	020000H
	DD	020101H
	DD	040000H
	DD	050000H
	DD	080403H
	DD	0a0707H
	DD	070000H
	DD	0111111H
	DD	0171717H
	DD	01d1d1dH
	DD	01e1e1eH
	DD	0242424H
	DD	02d2d2dH
	DD	0454545H
	DD	090808H
	DD	0d0d0eH
	DD	0141414H
	DD	0151516H
	DD	0232323H
	DD	0252525H
	DD	0272727H
	DD	02c2c2cH
	DD	0333333H
	DD	0353535H
	DD	0373737H
	DD	03b3b3bH
	DD	04c4c4cH
	DD	0555555H
	DD	0ffffffH
	DD	0b0a0aH
	DD	0d0d0cH
	DD	0c0c0dH
	DD	0e0e0cH
	DD	0130606H
	DD	0f0f10H
	DD	0101111H
	DD	0151111H
	DD	0181717H
	DD	01b1817H
	DD	01a1919H
	DD	01e1919H
	DD	01e1e1fH
	DD	0201c1cH
	DD	0211d1dH
	DD	0201f1fH
	DD	0221e1eH
	DD	0212122H
	DD	0262626H
	DD	0282828H
	DD	0292929H
	DD	02a2a2aH
	DD	02b2b2bH
	DD	02e2e2eH
	DD	02f2f2fH
	DD	0302f2fH
	DD	0343434H
	DD	0383838H
	DD	0393939H
	DD	03d3d3dH
	DD	03e3e3eH
	DD	03f3f3fH
	DD	0474747H
	DD	04a4a4aH
	DD	04d4d4dH
	DD	0525252H
	DD	0535353H
	DD	0545454H
	DD	0585858H
	DD	0595959H
	DD	05b5b5bH
	DD	05e5e5dH
	DD	05f5f5fH
	DD	0606060H
	DD	0656565H
	DD	0666666H
	DD	0696969H
	DD	06a6a6aH
	DD	06e6e6eH
	DD	0717171H
	DD	0727272H
	DD	0747474H
	DD	0757575H
	DD	07a7a7aH
	DD	07f7f7fH
	DD	0828282H
	DD	0848484H
	DD	08a8a8aH
	DD	08d8d8dH
	DD	0929292H
	DD	09e9e9eH
	DD	0abababH
	DD	0b1b1b1H
	DD	0b6b6b6H
	DD	0cececeH
	DD	0d1d1d1H
	DD	0d2d2d2H
	DD	0d9d9d9H
	DD	0dededeH
	DD	0fdfdfdH
_PalYellow_6 DD	096H
	DB	00H
	ORG $+3
	DD	FLAT:_ColorsYellow_6
_bmYellow_6 DW	02eH
	DW	03eH
	DW	02eH
	DW	08H
	DD	FLAT:_acYellow_6
	DD	FLAT:_PalYellow_6
	ORG $+4
_acYellow_6 DB	00H
	DB	00H
	DB	00H
	DB	00H
	DB	00H
	DB	00H
	DB	00H
	DB	00H
	DB	00H
	DB	00H
	DB	00H
	DB	00H
	DB	00H
	DB	00H
	DB	00H
	DB	00H
	DB	00H
	DB	00H
	DB	00H
	DB	00H
	DB	00H
	DB	00H
	DB	00H
	DB	00H
	DB	00H
	DB	00H
	DB	00H
	DB	00H
	DB	00H
	DB	00H
	DB	00H
	DB	00H
	DB	00H
	DB	00H
	DB	00H
	DB	00H
	DB	00H
	DB	00H
	DB	00H
	DB	00H
	DB	00H
	DB	00H
	DB	00H
	DB	00H
	DB	00H
	DB	00H
	DB	00H
	DB	00H
	DB	00H
	DB	00H
	DB	00H
	DB	00H
	DB	00H
	DB	00H
	DB	00H
	DB	00H
	DB	00H
	DB	00H
	DB	00H
	DB	00H
	DB	00H
	DB	00H
	DB	00H
	DB	00H
	DB	00H
	DB	00H
	DB	00H
	DB	00H
	DB	00H
	DB	00H
	DB	00H
	DB	00H
	DB	00H
	DB	00H
	DB	00H
	DB	00H
	DB	00H
	DB	00H
	DB	00H
	DB	00H
	DB	00H
	DB	00H
	DB	00H
	DB	00H
	DB	00H
	DB	00H
	DB	00H
	DB	00H
	DB	00H
	DB	00H
	DB	00H
	DB	00H
	DB	00H
	DB	00H
	DB	00H
	DB	00H
	DB	00H
	DB	00H
	DB	00H
	DB	00H
	DB	00H
	DB	00H
	DB	00H
	DB	00H
	DB	00H
	DB	00H
	DB	00H
	DB	00H
	DB	00H
	DB	00H
	DB	00H
	DB	00H
	DB	00H
	DB	00H
	DB	00H
	DB	00H
	DB	00H
	DB	00H
	DB	00H
	DB	00H
	DB	00H
	DB	00H
	DB	00H
	DB	00H
	DB	00H
	DB	00H
	DB	00H
	DB	00H
	DB	00H
	DB	00H
	DB	00H
	DB	00H
	DB	00H
	DB	00H
	DB	00H
	DB	00H
	DB	00H
	DB	00H
	DB	00H
	DB	00H
	DB	00H
	DB	00H
	DB	00H
	DB	00H
	DB	00H
	DB	00H
	DB	00H
	DB	00H
	DB	00H
	DB	00H
	DB	00H
	DB	00H
	DB	00H
	DB	00H
	DB	00H
	DB	00H
	DB	00H
	DB	00H
	DB	00H
	DB	00H
	DB	00H
	DB	00H
	DB	00H
	DB	00H
	DB	00H
	DB	00H
	DB	00H
	DB	00H
	DB	00H
	DB	00H
	DB	00H
	DB	00H
	DB	00H
	DB	00H
	DB	00H
	DB	00H
	DB	00H
	DB	00H
	DB	00H
	DB	00H
	DB	00H
	DB	00H
	DB	00H
	DB	00H
	DB	00H
	DB	00H
	DB	00H
	DB	00H
	DB	00H
	DB	00H
	DB	00H
	DB	00H
	DB	00H
	DB	00H
	DB	00H
	DB	00H
	DB	00H
	DB	00H
	DB	00H
	DB	00H
	DB	00H
	DB	00H
	DB	00H
	DB	00H
	DB	00H
	DB	00H
	DB	00H
	DB	00H
	DB	00H
	DB	00H
	DB	00H
	DB	00H
	DB	00H
	DB	00H
	DB	00H
	DB	00H
	DB	00H
	DB	00H
	DB	00H
	DB	00H
	DB	00H
	DB	00H
	DB	00H
	DB	00H
	DB	00H
	DB	00H
	DB	00H
	DB	00H
	DB	00H
	DB	00H
	DB	00H
	DB	00H
	DB	00H
	DB	00H
	DB	00H
	DB	00H
	DB	00H
	DB	00H
	DB	00H
	DB	00H
	DB	00H
	DB	00H
	DB	00H
	DB	00H
	DB	00H
	DB	00H
	DB	00H
	DB	00H
	DB	00H
	DB	00H
	DB	00H
	DB	00H
	DB	00H
	DB	00H
	DB	00H
	DB	00H
	DB	00H
	DB	00H
	DB	00H
	DB	00H
	DB	00H
	DB	00H
	DB	00H
	DB	00H
	DB	00H
	DB	00H
	DB	00H
	DB	00H
	DB	00H
	DB	00H
	DB	00H
	DB	00H
	DB	00H
	DB	00H
	DB	00H
	DB	00H
	DB	00H
	DB	00H
	DB	00H
	DB	00H
	DB	00H
	DB	00H
	DB	00H
	DB	00H
	DB	00H
	DB	00H
	DB	00H
	DB	00H
	DB	00H
	DB	00H
	DB	00H
	DB	00H
	DB	00H
	DB	00H
	DB	00H
	DB	00H
	DB	00H
	DB	00H
	DB	00H
	DB	00H
	DB	00H
	DB	00H
	DB	00H
	DB	00H
	DB	00H
	DB	00H
	DB	00H
	DB	01H
	DB	01H
	DB	01H
	DB	00H
	DB	00H
	DB	00H
	DB	00H
	DB	00H
	DB	00H
	DB	00H
	DB	00H
	DB	00H
	DB	00H
	DB	00H
	DB	00H
	DB	00H
	DB	00H
	DB	00H
	DB	00H
	DB	00H
	DB	00H
	DB	00H
	DB	00H
	DB	00H
	DB	00H
	DB	00H
	DB	00H
	DB	00H
	DB	00H
	DB	00H
	DB	00H
	DB	00H
	DB	00H
	DB	00H
	DB	00H
	DB	00H
	DB	00H
	DB	00H
	DB	00H
	DB	00H
	DB	00H
	DB	00H
	DB	00H
	DB	00H
	DB	00H
	DB	00H
	DB	01H
	DB	00H
	DB	01H
	DB	01H
	DB	00H
	DB	00H
	DB	00H
	DB	00H
	DB	00H
	DB	00H
	DB	00H
	DB	00H
	DB	00H
	DB	00H
	DB	00H
	DB	00H
	DB	00H
	DB	00H
	DB	00H
	DB	00H
	DB	00H
	DB	00H
	DB	00H
	DB	00H
	DB	00H
	DB	00H
	DB	00H
	DB	00H
	DB	00H
	DB	00H
	DB	00H
	DB	00H
	DB	00H
	DB	00H
	DB	00H
	DB	00H
	DB	00H
	DB	00H
	DB	00H
	DB	00H
	DB	00H
	DB	00H
	DB	00H
	DB	00H
	DB	00H
	DB	01H
	DB	00H
	DB	00H
	DB	01H
	DB	01H
	DB	01H
	DB	01H
	DB	00H
	DB	00H
	DB	00H
	DB	00H
	DB	00H
	DB	00H
	DB	00H
	DB	00H
	DB	00H
	DB	00H
	DB	00H
	DB	00H
	DB	00H
	DB	00H
	DB	00H
	DB	00H
	DB	00H
	DB	00H
	DB	00H
	DB	00H
	DB	00H
	DB	00H
	DB	00H
	DB	00H
	DB	00H
	DB	00H
	DB	00H
	DB	00H
	DB	00H
	DB	00H
	DB	00H
	DB	00H
	DB	00H
	DB	00H
	DB	00H
	DB	00H
	DB	00H
	DB	00H
	DB	01H
	DB	00H
	DB	00H
	DB	01H
	DB	01H
	DB	00H
	DB	00H
	DB	01H
	DB	00H
	DB	00H
	DB	00H
	DB	00H
	DB	00H
	DB	00H
	DB	00H
	DB	00H
	DB	00H
	DB	00H
	DB	00H
	DB	00H
	DB	00H
	DB	00H
	DB	00H
	DB	00H
	DB	00H
	DB	00H
	DB	00H
	DB	00H
	DB	00H
	DB	00H
	DB	00H
	DB	00H
	DB	00H
	DB	00H
	DB	00H
	DB	00H
	DB	00H
	DB	00H
	DB	00H
	DB	00H
	DB	00H
	DB	00H
	DB	00H
	DB	00H
	DB	00H
	DB	00H
	DB	01H
	DB	00H
	DB	01H
	DB	01H
	DB	00H
	DB	00H
	DB	01H
	DB	00H
	DB	00H
	DB	00H
	DB	00H
	DB	00H
	DB	00H
	DB	00H
	DB	00H
	DB	00H
	DB	00H
	DB	02H
	DB	02H
	DB	04H
	DB	02H
	DB	02H
	DB	02H
	DB	00H
	DB	00H
	DB	00H
	DB	00H
	DB	00H
	DB	00H
	DB	00H
	DB	02H
	DB	02H
	DB	02H
	DB	02H
	DB	00H
	DB	00H
	DB	00H
	DB	00H
	DB	00H
	DB	00H
	DB	00H
	DB	00H
	DB	00H
	DB	00H
	DB	00H
	DB	01H
	DB	00H
	DB	01H
	DB	01H
	DB	00H
	DB	00H
	DB	01H
	DB	01H
	DB	00H
	DB	00H
	DB	00H
	DB	00H
	DB	02H
	DB	02H
	DB	04H
	DB	02H
	DB	00H
	DB	00H
	DB	00H
	DB	00H
	DB	09H
	DB	00H
	DB	00H
	DB	00H
	DB	02H
	DB	02H
	DB	02H
	DB	02H
	DB	02H
	DB	02H
	DB	02H
	DB	00H
	DB	00H
	DB	00H
	DB	00H
	DB	02H
	DB	02H
	DB	00H
	DB	00H
	DB	00H
	DB	00H
	DB	00H
	DB	00H
	DB	00H
	DB	01H
	DB	01H
	DB	01H
	DB	01H
	DB	01H
	DB	00H
	DB	00H
	DB	01H
	DB	00H
	DB	00H
	DB	00H
	DB	00H
	DB	00H
	DB	00H
	DB	00H
	DB	00H
	DB	08H
	DB	03H
	DB	00H
	DB	00H
	DB	02H
	DB	00H
	DB	0cH
	DB	03H
	DB	00H
	DB	02H
	DB	00H
	DB	00H
	DB	00H
	DB	00H
	DB	00H
	DB	00H
	DB	00H
	DB	03H
	DB	00H
	DB	02H
	DB	02H
	DB	00H
	DB	00H
	DB	00H
	DB	00H
	DB	00H
	DB	00H
	DB	00H
	DB	00H
	DB	01H
	DB	01H
	DB	00H
	DB	01H
	DB	00H
	DB	00H
	DB	00H
	DB	01H
	DB	00H
	DB	00H
	DB	00H
	DB	00H
	DB	00H
	DB	00H
	DB	00H
	DB	02H
	DB	00H
	DB	01bH
	DB	05H
	DB	00H
	DB	00H
	DB	02H
	DB	00H
	DB	013H
	DB	04H
	DB	00H
	DB	02H
	DB	03H
	DB	00H
	DB	02H
	DB	02H
	DB	03H
	DB	00H
	DB	02H
	DB	04H
	DB	00H
	DB	02H
	DB	02H
	DB	03H
	DB	00H
	DB	02H
	DB	02H
	DB	02H
	DB	00H
	DB	00H
	DB	01H
	DB	00H
	DB	00H
	DB	01H
	DB	00H
	DB	00H
	DB	00H
	DB	01H
	DB	00H
	DB	00H
	DB	00H
	DB	00H
	DB	00H
	DB	00H
	DB	00H
	DB	00H
	DB	02H
	DB	00H
	DB	03aH
	DB	019H
	DB	00H
	DB	00H
	DB	03H
	DB	00H
	DB	03cH
	DB	05H
	DB	02H
	DB	03H
	DB	04H
	DB	00H
	DB	02H
	DB	02H
	DB	04H
	DB	00H
	DB	02H
	DB	05H
	DB	02H
	DB	03H
	DB	034H
	DB	04H
	DB	00H
	DB	00H
	DB	00H
	DB	00H
	DB	01H
	DB	01H
	DB	00H
	DB	00H
	DB	01H
	DB	00H
	DB	00H
	DB	00H
	DB	01H
	DB	00H
	DB	00H
	DB	00H
	DB	00H
	DB	00H
	DB	00H
	DB	00H
	DB	00H
	DB	00H
	DB	03H
	DB	00H
	DB	03bH
	DB	015H
	DB	00H
	DB	00H
	DB	03H
	DB	00H
	DB	046H
	DB	08H
	DB	03H
	DB	03H
	DB	05H
	DB	02H
	DB	03H
	DB	034H
	DB	05H
	DB	02H
	DB	03H
	DB	08H
	DB	03H
	DB	03H
	DB	033H
	DB	05H
	DB	02H
	DB	03H
	DB	00H
	DB	01H
	DB	02H
	DB	02H
	DB	02H
	DB	01H
	DB	00H
	DB	00H
	DB	01H
	DB	01H
	DB	00H
	DB	00H
	DB	02H
	DB	02H
	DB	02H
	DB	02H
	DB	00H
	DB	00H
	DB	00H
	DB	00H
	DB	03H
	DB	00H
	DB	03dH
	DB	016H
	DB	00H
	DB	00H
	DB	05H
	DB	00H
	DB	067H
	DB	09H
	DB	04H
	DB	05H
	DB	08H
	DB	03H
	DB	03H
	DB	033H
	DB	08H
	DB	03H
	DB	03H
	DB	09H
	DB	04H
	DB	05H
	DB	035H
	DB	08H
	DB	03H
	DB	01H
	DB	01H
	DB	02H
	DB	00H
	DB	00H
	DB	01H
	DB	02H
	DB	02H
	DB	01H
	DB	01H
	DB	02H
	DB	02H
	DB	02H
	DB	00H
	DB	00H
	DB	00H
	DB	00H
	DB	02H
	DB	02H
	DB	02H
	DB	02H
	DB	05H
	DB	00H
	DB	046H
	DB	018H
	DB	00H
	DB	00H
	DB	0fH
	DB	00H
	DB	04bH
	DB	07H
	DB	05H
	DB	0fH
	DB	09H
	DB	04H
	DB	05H
	DB	035H
	DB	09H
	DB	04H
	DB	05H
	DB	07H
	DB	05H
	DB	0fH
	DB	036H
	DB	01H
	DB	01H
	DB	01H
	DB	02H
	DB	03H
	DB	03H
	DB	01H
	DB	02H
	DB	01H
	DB	01H
	DB	01H
	DB	00H
	DB	00H
	DB	00H
	DB	00H
	DB	03H
	DB	00H
	DB	02H
	DB	02H
	DB	00H
	DB	00H
	DB	00H
	DB	00H
	DB	0fH
	DB	02H
	DB	03fH
	DB	012H
	DB	00H
	DB	00H
	DB	019H
	DB	02H
	DB	06fH
	DB	0cH
	DB	08H
	DB	024H
	DB	07H
	DB	05H
	DB	0fH
	DB	036H
	DB	07H
	DB	05H
	DB	0fH
	DB	0cH
	DB	08H
	DB	01H
	DB	01H
	DB	01H
	DB	05H
	DB	08H
	DB	03H
	DB	03H
	DB	01H
	DB	00H
	DB	01H
	DB	01H
	DB	00H
	DB	02H
	DB	02H
	DB	03H
	DB	00H
	DB	02H
	DB	04H
	DB	00H
	DB	02H
	DB	02H
	DB	03H
	DB	00H
	DB	02H
	DB	02H
	DB	019H
	DB	03H
	DB	049H
	DB	043H
	DB	00H
	DB	00H
	DB	015H
	DB	03H
	DB	04dH
	DB	0eH
	DB	019H
	DB	029H
	DB	0cH
	DB	08H
	DB	024H
	DB	039H
	DB	0cH
	DB	08H
	DB	024H
	DB	0eH
	DB	01H
	DB	01H
	DB	037H
	DB	0cH
	DB	08H
	DB	09H
	DB	04H
	DB	01H
	DB	01H
	DB	01H
	DB	01H
	DB	04H
	DB	00H
	DB	02H
	DB	02H
	DB	04H
	DB	00H
	DB	02H
	DB	05H
	DB	02H
	DB	03H
	DB	034H
	DB	04H
	DB	00H
	DB	02H
	DB	02H
	DB	015H
	DB	04H
	DB	06dH
	DB	06H
	DB	00H
	DB	00H
	DB	01bH
	DB	04H
	DB	04eH
	DB	012H
	DB	015H
	DB	02aH
	DB	0eH
	DB	019H
	DB	029H
	DB	037H
	DB	0eH
	DB	019H
	DB	029H
	DB	01H
	DB	015H
	DB	02aH
	DB	038H
	DB	0eH
	DB	019H
	DB	07H
	DB	01H
	DB	0fH
	DB	01H
	DB	01H
	DB	03H
	DB	05H
	DB	02H
	DB	03H
	DB	034H
	DB	05H
	DB	02H
	DB	03H
	DB	08H
	DB	03H
	DB	03H
	DB	033H
	DB	05H
	DB	02H
	DB	03H
	DB	034H
	DB	01bH
	DB	05H
	DB	040H
	DB	027H
	DB	00H
	DB	00H
	DB	0cH
	DB	0fH
	DB	07aH
	DB	013H
	DB	01bH
	DB	0cH
	DB	012H
	DB	015H
	DB	02aH
	DB	038H
	DB	012H
	DB	015H
	DB	01H
	DB	013H
	DB	01bH
	DB	0cH
	DB	0cH
	DB	012H
	DB	015H
	DB	0cH
	DB	01H
	DB	024H
	DB	01H
	DB	04H
	DB	05H
	DB	08H
	DB	03H
	DB	03H
	DB	033H
	DB	08H
	DB	03H
	DB	03H
	DB	09H
	DB	04H
	DB	05H
	DB	035H
	DB	08H
	DB	03H
	DB	03H
	DB	033H
	DB	0cH
	DB	08H
	DB	072H
	DB	014H
	DB	00H
	DB	00H
	DB	0eH
	DB	019H
	DB	07fH
	DB	06H
	DB	02bH
	DB	0eH
	DB	013H
	DB	01bH
	DB	0cH
	DB	0cH
	DB	013H
	DB	01H
	DB	01H
	DB	06H
	DB	02bH
	DB	0eH
	DB	01eH
	DB	013H
	DB	01H
	DB	01H
	DB	019H
	DB	01H
	DB	07H
	DB	05H
	DB	0fH
	DB	09H
	DB	04H
	DB	05H
	DB	035H
	DB	09H
	DB	04H
	DB	05H
	DB	07H
	DB	05H
	DB	0fH
	DB	036H
	DB	09H
	DB	04H
	DB	05H
	DB	035H
	DB	017H
	DB	041H
	DB	076H
	DB	045H
	DB	00H
	DB	00H
	DB	017H
	DB	041H
	DB	083H
	DB	028H
	DB	022H
	DB	017H
	DB	06H
	DB	02bH
	DB	0eH
	DB	01eH
	DB	01H
	DB	01H
	DB	0eH
	DB	028H
	DB	022H
	DB	017H
	DB	017H
	DB	01H
	DB	01H
	DB	012H
	DB	01H
	DB	01H
	DB	0cH
	DB	08H
	DB	024H
	DB	07H
	DB	05H
	DB	0fH
	DB	036H
	DB	07H
	DB	05H
	DB	0fH
	DB	0cH
	DB	08H
	DB	024H
	DB	039H
	DB	07H
	DB	05H
	DB	0fH
	DB	036H
	DB	0aH
	DB	050H
	DB	07bH
	DB	047H
	DB	00H
	DB	00H
	DB	0aH
	DB	07H
	DB	086H
	DB	0dH
	DB	011H
	DB	0aH
	DB	028H
	DB	022H
	DB	017H
	DB	01H
	DB	01H
	DB	022H
	DB	017H
	DB	017H
	DB	0aH
	DB	013H
	DB	01H
	DB	028H
	DB	022H
	DB	013H
	DB	01H
	DB	0cH
	DB	0eH
	DB	019H
	DB	029H
	DB	0cH
	DB	08H
	DB	024H
	DB	039H
	DB	0cH
	DB	08H
	DB	024H
	DB	0eH
	DB	019H
	DB	029H
	DB	037H
	DB	0cH
	DB	08H
	DB	024H
	DB	039H
	DB	058H
	DB	016H
	DB	07eH
	DB	065H
	DB	00H
	DB	00H
	DB	021H
	DB	0cH
	DB	089H
	DB	045H
	DB	013H
	DB	021H
	DB	021H
	DB	021H
	DB	021H
	DB	01H
	DB	021H
	DB	021H
	DB	021H
	DB	021H
	DB	021H
	DB	01H
	DB	01H
	DB	01H
	DB	01H
	DB	01H
	DB	01H
	DB	01H
	DB	01H
	DB	015H
	DB	02aH
	DB	0eH
	DB	019H
	DB	029H
	DB	037H
	DB	0eH
	DB	019H
	DB	029H
	DB	012H
	DB	015H
	DB	02aH
	DB	038H
	DB	0eH
	DB	019H
	DB	029H
	DB	037H
	DB	059H
	DB	018H
	DB	082H
	DB	03fH
	DB	00H
	DB	00H
	DB	0bH
	DB	01aH
	DB	08cH
	DB	063H
	DB	06H
	DB	0bH
	DB	0bH
	DB	0bH
	DB	01H
	DB	01H
	DB	0bH
	DB	0bH
	DB	0bH
	DB	0bH
	DB	01H
	DB	01H
	DB	01H
	DB	023H
	DB	01H
	DB	028H
	DB	022H
	DB	017H
	DB	01H
	DB	01H
	DB	01H
	DB	012H
	DB	015H
	DB	02aH
	DB	038H
	DB	012H
	DB	015H
	DB	02aH
	DB	013H
	DB	01bH
	DB	0cH
	DB	0cH
	DB	012H
	DB	015H
	DB	02aH
	DB	038H
	DB	05bH
	DB	056H
	DB	087H
	DB	04aH
	DB	00H
	DB	00H
	DB	023H
	DB	01bH
	DB	091H
	DB	069H
	DB	05aH
	DB	023H
	DB	023H
	DB	023H
	DB	01H
	DB	023H
	DB	023H
	DB	023H
	DB	023H
	DB	023H
	DB	01H
	DB	027H
	DB	0dH
	DB	01H
	DB	01H
	DB	0dH
	DB	011H
	DB	0aH
	DB	06H
	DB	02bH
	DB	01H
	DB	01H
	DB	01H
	DB	0cH
	DB	0cH
	DB	013H
	DB	01bH
	DB	0cH
	DB	06H
	DB	02bH
	DB	0eH
	DB	01eH
	DB	013H
	DB	01bH
	DB	0cH
	DB	0cH
	DB	05dH
	DB	02bH
	DB	08dH
	DB	040H
	DB	00H
	DB	00H
	DB	0dH
	DB	07H
	DB	095H
	DB	04bH
	DB	027H
	DB	0dH
	DB	0dH
	DB	01H
	DB	01H
	DB	0dH
	DB	0dH
	DB	0dH
	DB	01H
	DB	01H
	DB	01H
	DB	027H
	DB	01cH
	DB	01H
	DB	01cH
	DB	01cH
	DB	01cH
	DB	01cH
	DB	028H
	DB	022H
	DB	017H
	DB	06H
	DB	01H
	DB	01H
	DB	01H
	DB	06H
	DB	02bH
	DB	0eH
	DB	028H
	DB	022H
	DB	017H
	DB	017H
	DB	06H
	DB	02bH
	DB	0eH
	DB	01eH
	DB	05eH
	DB	01aH
	DB	090H
	DB	075H
	DB	00H
	DB	00H
	DB	01cH
	DB	015H
	DB	04fH
	DB	06cH
	DB	027H
	DB	01cH
	DB	01cH
	DB	01H
	DB	01cH
	DB	01cH
	DB	01cH
	DB	01cH
	DB	01H
	DB	01H
	DB	01cH
	DB	03cH
	DB	01H
	DB	01dH
	DB	01dH
	DB	01dH
	DB	01dH
	DB	01dH
	DB	0dH
	DB	011H
	DB	0aH
	DB	028H
	DB	022H
	DB	017H
	DB	017H
	DB	01H
	DB	01H
	DB	017H
	DB	017H
	DB	0aH
	DB	013H
	DB	021H
	DB	028H
	DB	022H
	DB	017H
	DB	017H
	DB	060H
	DB	01aH
	DB	093H
	DB	077H
	DB	00H
	DB	00H
	DB	01dH
	DB	01bH
	DB	04fH
	DB	06bH
	DB	03cH
	DB	01dH
	DB	01dH
	DB	01H
	DB	01dH
	DB	01dH
	DB	01dH
	DB	01dH
	DB	01H
	DB	01dH
	DB	01dH
	DB	01H
	DB	0dH
	DB	0dH
	DB	0dH
	DB	0dH
	DB	0dH
	DB	01H
	DB	01H
	DB	01H
	DB	01H
	DB	01H
	DB	01H
	DB	027H
	DB	0dH
	DB	0dH
	DB	0dH
	DB	01H
	DB	01H
	DB	0dH
	DB	0dH
	DB	0dH
	DB	0dH
	DB	0dH
	DB	0dH
	DB	0dH
	DB	05fH
	DB	0eH
	DB	092H
	DB	04eH
	DB	00H
	DB	00H
	DB	0dH
	DB	0cH
	DB	094H
	DB	049H
	DB	027H
	DB	0dH
	DB	0dH
	DB	01H
	DB	0dH
	DB	0dH
	DB	0dH
	DB	0dH
	DB	01H
	DB	0dH
	DB	01H
	DB	01H
	DB	014H
	DB	014H
	DB	01H
	DB	01H
	DB	01H
	DB	01H
	DB	01H
	DB	01H
	DB	01H
	DB	01H
	DB	014H
	DB	01H
	DB	014H
	DB	014H
	DB	014H
	DB	014H
	DB	01H
	DB	01H
	DB	014H
	DB	014H
	DB	014H
	DB	014H
	DB	014H
	DB	014H
	DB	014H
	DB	03aH
	DB	08fH
	DB	071H
	DB	00H
	DB	00H
	DB	014H
	DB	0eH
	DB	08eH
	DB	03fH
	DB	027H
	DB	014H
	DB	014H
	DB	01H
	DB	014H
	DB	014H
	DB	014H
	DB	01H
	DB	014H
	DB	014H
	DB	01H
	DB	06H
	DB	01H
	DB	01H
	DB	0bH
	DB	0bH
	DB	0bH
	DB	0bH
	DB	0bH
	DB	0bH
	DB	0bH
	DB	0bH
	DB	01H
	DB	01H
	DB	01H
	DB	01H
	DB	0bH
	DB	0bH
	DB	0bH
	DB	01H
	DB	01H
	DB	0bH
	DB	0bH
	DB	0bH
	DB	0bH
	DB	0bH
	DB	0bH
	DB	011H
	DB	08bH
	DB	04cH
	DB	00H
	DB	00H
	DB	0bH
	DB	018H
	DB	08aH
	DB	047H
	DB	06H
	DB	0bH
	DB	0bH
	DB	01H
	DB	0bH
	DB	0bH
	DB	0bH
	DB	01H
	DB	0bH
	DB	0bH
	DB	01H
	DB	01H
	DB	01H
	DB	06H
	DB	06H
	DB	06H
	DB	06H
	DB	06H
	DB	06H
	DB	06H
	DB	06H
	DB	06H
	DB	06H
	DB	03bH
	DB	06H
	DB	01H
	DB	01H
	DB	01H
	DB	06H
	DB	06H
	DB	06H
	DB	01H
	DB	01H
	DB	06H
	DB	06H
	DB	06H
	DB	06H
	DB	012H
	DB	084H
	DB	068H
	DB	00H
	DB	00H
	DB	06H
	DB	01aH
	DB	088H
	DB	03eH
	DB	03bH
	DB	06H
	DB	06H
	DB	01H
	DB	06H
	DB	06H
	DB	01H
	DB	06H
	DB	06H
	DB	01H
	DB	01H
	DB	01H
	DB	010H
	DB	010H
	DB	010H
	DB	010H
	DB	010H
	DB	010H
	DB	010H
	DB	010H
	DB	010H
	DB	010H
	DB	010H
	DB	044H
	DB	010H
	DB	010H
	DB	01H
	DB	01H
	DB	010H
	DB	010H
	DB	010H
	DB	010H
	DB	01H
	DB	010H
	DB	010H
	DB	010H
	DB	010H
	DB	0eH
	DB	080H
	DB	048H
	DB	00H
	DB	00H
	DB	010H
	DB	042H
	DB	085H
	DB	061H
	DB	044H
	DB	010H
	DB	010H
	DB	01H
	DB	010H
	DB	010H
	DB	01H
	DB	010H
	DB	01H
	DB	01H
	DB	01H
	DB	011H
	DB	0aH
	DB	0aH
	DB	0aH
	DB	0aH
	DB	01eH
	DB	02cH
	DB	0aH
	DB	01fH
	DB	02fH
	DB	06H
	DB	01eH
	DB	013H
	DB	025H
	DB	026H
	DB	012H
	DB	01H
	DB	01H
	DB	012H
	DB	012H
	DB	012H
	DB	012H
	DB	01H
	DB	01H
	DB	012H
	DB	0aH
	DB	055H
	DB	07dH
	DB	064H
	DB	00H
	DB	00H
	DB	0aH
	DB	016H
	DB	081H
	DB	05cH
	DB	011H
	DB	0aH
	DB	06H
	DB	01H
	DB	02cH
	DB	01H
	DB	01H
	DB	0aH
	DB	01H
	DB	0aH
	DB	0aH
	DB	0aH
	DB	0aH
	DB	0aH
	DB	0aH
	DB	0aH
	DB	025H
	DB	026H
	DB	011H
	DB	020H
	DB	032H
	DB	013H
	DB	025H
	DB	0aH
	DB	01fH
	DB	06H
	DB	01eH
	DB	01H
	DB	01H
	DB	0eH
	DB	0eH
	DB	0eH
	DB	0eH
	DB	0eH
	DB	01H
	DB	01H
	DB	057H
	DB	042H
	DB	079H
	DB	062H
	DB	00H
	DB	00H
	DB	011H
	DB	01bH
	DB	07cH
	DB	027H
	DB	03aH
	DB	017H
	DB	013H
	DB	01H
	DB	026H
	DB	01H
	DB	054H
	DB	01H
	DB	01eH
	DB	02cH
	DB	011H
	DB	011H
	DB	011H
	DB	011H
	DB	011H
	DB	011H
	DB	01fH
	DB	02fH
	DB	018H
	DB	07H
	DB	031H
	DB	0aH
	DB	01fH
	DB	011H
	DB	020H
	DB	013H
	DB	025H
	DB	01H
	DB	01H
	DB	01H
	DB	01aH
	DB	06H
	DB	01eH
	DB	02cH
	DB	013H
	DB	01H
	DB	01H
	DB	051H
	DB	074H
	DB	01cH
	DB	00H
	DB	00H
	DB	012H
	DB	07H
	DB	078H
	DB	06H
	DB	01eH
	DB	02cH
	DB	0aH
	DB	01H
	DB	02fH
	DB	01H
	DB	01eH
	DB	01H
	DB	025H
	DB	026H
	DB	012H
	DB	012H
	DB	012H
	DB	012H
	DB	012H
	DB	012H
	DB	020H
	DB	032H
	DB	016H
	DB	09H
	DB	030H
	DB	011H
	DB	020H
	DB	018H
	DB	07H
	DB	0aH
	DB	01fH
	DB	01H
	DB	01aH
	DB	01H
	DB	01aH
	DB	013H
	DB	025H
	DB	026H
	DB	0aH
	DB	01fH
	DB	01H
	DB	016H
	DB	04dH
	DB	03dH
	DB	00H
	DB	00H
	DB	0eH
	DB	015H
	DB	073H
	DB	013H
	DB	025H
	DB	026H
	DB	011H
	DB	01H
	DB	01H
	DB	01H
	DB	01H
	DB	0aH
	DB	01fH
	DB	06H
	DB	01eH
	DB	02cH
	DB	0eH
	DB	0eH
	DB	0eH
	DB	0eH
	DB	07H
	DB	031H
	DB	07H
	DB	08H
	DB	02dH
	DB	018H
	DB	07H
	DB	016H
	DB	09H
	DB	011H
	DB	020H
	DB	01H
	DB	06H
	DB	01H
	DB	02cH
	DB	0aH
	DB	01fH
	DB	02fH
	DB	011H
	DB	020H
	DB	01H
	DB	07H
	DB	040H
	DB	0bH
	DB	00H
	DB	00H
	DB	01aH
	DB	015H
	DB	070H
	DB	0aH
	DB	01fH
	DB	02fH
	DB	018H
	DB	07H
	DB	01H
	DB	01H
	DB	01H
	DB	011H
	DB	020H
	DB	013H
	DB	025H
	DB	026H
	DB	01aH
	DB	01aH
	DB	01aH
	DB	06H
	DB	09H
	DB	030H
	DB	09H
	DB	05H
	DB	02eH
	DB	016H
	DB	09H
	DB	07H
	DB	08H
	DB	018H
	DB	07H
	DB	01H
	DB	013H
	DB	01H
	DB	026H
	DB	011H
	DB	020H
	DB	032H
	DB	018H
	DB	07H
	DB	01H
	DB	07H
	DB	04cH
	DB	03bH
	DB	00H
	DB	00H
	DB	01aH
	DB	015H
	DB	06eH
	DB	011H
	DB	020H
	DB	032H
	DB	016H
	DB	09H
	DB	01H
	DB	01H
	DB	01H
	DB	018H
	DB	07H
	DB	0aH
	DB	01fH
	DB	02fH
	DB	01aH
	DB	01aH
	DB	01aH
	DB	013H
	DB	08H
	DB	02dH
	DB	0fH
	DB	04H
	DB	04H
	DB	07H
	DB	08H
	DB	09H
	DB	05H
	DB	016H
	DB	09H
	DB	01H
	DB	0aH
	DB	01fH
	DB	01H
	DB	018H
	DB	07H
	DB	031H
	DB	016H
	DB	09H
	DB	01H
	DB	07H
	DB	06aH
	DB	043H
	DB	00H
	DB	00H
	DB	01bH
	DB	019H
	DB	04aH
	DB	018H
	DB	07H
	DB	031H
	DB	07H
	DB	08H
	DB	02dH
	DB	01H
	DB	07H
	DB	016H
	DB	09H
	DB	011H
	DB	020H
	DB	032H
	DB	06H
	DB	01eH
	DB	02cH
	DB	0aH
	DB	05H
	DB	02eH
	DB	04H
	DB	02H
	DB	03H
	DB	09H
	DB	05H
	DB	0fH
	DB	04H
	DB	07H
	DB	08H
	DB	01H
	DB	011H
	DB	020H
	DB	01H
	DB	016H
	DB	09H
	DB	030H
	DB	07H
	DB	08H
	DB	01H
	DB	019H
	DB	048H
	DB	012H
	DB	00H
	DB	00H
	DB	015H
	DB	0fH
	DB	066H
	DB	016H
	DB	09H
	DB	030H
	DB	09H
	DB	05H
	DB	02eH
	DB	01H
	DB	01H
	DB	07H
	DB	08H
	DB	018H
	DB	07H
	DB	031H
	DB	013H
	DB	025H
	DB	026H
	DB	011H
	DB	04H
	DB	04H
	DB	00H
	DB	00H
	DB	00H
	DB	0fH
	DB	04H
	DB	04H
	DB	02H
	DB	09H
	DB	05H
	DB	01H
	DB	018H
	DB	07H
	DB	01H
	DB	07H
	DB	08H
	DB	02dH
	DB	09H
	DB	05H
	DB	01H
	DB	08H
	DB	03eH
	DB	018H
	DB	00H
	DB	00H
	DB	08H
	DB	04H
	DB	03eH
	DB	07H
	DB	08H
	DB	02dH
	DB	0fH
	DB	04H
	DB	04H
	DB	01H
	DB	01H
	DB	09H
	DB	05H
	DB	016H
	DB	09H
	DB	030H
	DB	0aH
	DB	01fH
	DB	02fH
	DB	018H
	DB	02H
	DB	03H
	DB	03H
	DB	03H
	DB	03H
	DB	04H
	DB	02H
	DB	00H
	DB	00H
	DB	0fH
	DB	01H
	DB	04H
	DB	016H
	DB	09H
	DB	01H
	DB	09H
	DB	05H
	DB	02eH
	DB	0fH
	DB	04H
	DB	01H
	DB	05H
	DB	03dH
	DB	016H
	DB	00H
	DB	00H
	DB	0fH
	DB	04H
	DB	03cH
	DB	09H
	DB	05H
	DB	02eH
	DB	04H
	DB	02H
	DB	03H
	DB	01H
	DB	01H
	DB	01H
	DB	04H
	DB	07H
	DB	08H
	DB	02dH
	DB	011H
	DB	020H
	DB	032H
	DB	016H
	DB	00H
	DB	00H
	DB	00H
	DB	00H
	DB	00H
	DB	00H
	DB	00H
	DB	03H
	DB	03H
	DB	04H
	DB	01H
	DB	03H
	DB	07H
	DB	08H
	DB	01H
	DB	0fH
	DB	04H
	DB	04H
	DB	04H
	DB	01H
	DB	01H
	DB	04H
	DB	021H
	DB	015H
	DB	00H
	DB	00H
	DB	04H
	DB	02H
	DB	0aH
	DB	0fH
	DB	04H
	DB	04H
	DB	00H
	DB	00H
	DB	00H
	DB	01H
	DB	04H
	DB	01H
	DB	01H
	DB	09H
	DB	05H
	DB	02eH
	DB	018H
	DB	07H
	DB	031H
	DB	07H
	DB	03H
	DB	03H
	DB	00H
	DB	00H
	DB	00H
	DB	03H
	DB	03H
	DB	00H
	DB	00H
	DB	01H
	DB	01H
	DB	00H
	DB	09H
	DB	05H
	DB	01H
	DB	04H
	DB	02H
	DB	03H
	DB	00H
	DB	01H
	DB	04H
	DB	03H
	DB	03aH
	DB	019H
	DB	00H
	DB	00H
	DB	03H
	DB	00H
	DB	018H
	DB	04H
	DB	02H
	DB	03H
	DB	03H
	DB	03H
	DB	03H
	DB	01H
	DB	02H
	DB	00H
	DB	01H
	DB	01H
	DB	04H
	DB	04H
	DB	016H
	DB	09H
	DB	030H
	DB	09H
	DB	00H
	DB	00H
	DB	00H
	DB	00H
	DB	00H
	DB	00H
	DB	00H
	DB	00H
	DB	01H
	DB	01H
	DB	03H
	DB	03H
	DB	0fH
	DB	04H
	DB	01H
	DB	00H
	DB	00H
	DB	00H
	DB	03H
	DB	01H
	DB	03H
	DB	02H
	DB	016H
	DB	04H
	DB	00H
	DB	00H
	DB	00H
	DB	00H
	DB	07H
	DB	00H
	DB	00H
	DB	00H
	DB	00H
	DB	00H
	DB	00H
	DB	01H
	DB	00H
	DB	03H
	DB	03H
	DB	01H
	DB	01H
	DB	03H
	DB	07H
	DB	08H
	DB	02dH
	DB	0fH
	DB	00H
	DB	00H
	DB	00H
	DB	00H
	DB	00H
	DB	00H
	DB	00H
	DB	01H
	DB	01H
	DB	00H
	DB	00H
	DB	00H
	DB	04H
	DB	02H
	DB	01H
	DB	03H
	DB	03H
	DB	03H
	DB	01H
	DB	00H
	DB	00H
	DB	00H
	DB	0fH
	DB	00H
	DB	00H
	DB	00H
	DB	03H
	DB	03H
	DB	03H
	DB	03H
	DB	03H
	DB	03H
	DB	00H
	DB	00H
	DB	00H
	DB	01H
	DB	03H
	DB	00H
	DB	00H
	DB	01H
	DB	01H
	DB	01H
	DB	09H
	DB	05H
	DB	02eH
	DB	04H
	DB	00H
	DB	00H
	DB	00H
	DB	00H
	DB	00H
	DB	00H
	DB	01H
	DB	01H
	DB	00H
	DB	00H
	DB	00H
	DB	00H
	DB	00H
	DB	00H
	DB	01H
	DB	00H
	DB	00H
	DB	01H
	DB	00H
	DB	00H
	DB	03H
	DB	04H
	DB	00H
	DB	00H
	DB	00H
	DB	00H
	DB	00H
	DB	00H
	DB	00H
	DB	00H
	DB	00H
	DB	00H
	DB	00H
	DB	00H
	DB	00H
	DB	01H
	DB	00H
	DB	00H
	DB	00H
	DB	03H
	DB	03H
	DB	01H
	DB	01H
	DB	04H
	DB	04H
	DB	00H
	DB	00H
	DB	00H
	DB	00H
	DB	00H
	DB	00H
	DB	01H
	DB	01H
	DB	00H
	DB	00H
	DB	00H
	DB	00H
	DB	00H
	DB	03H
	DB	01H
	DB	03H
	DB	01H
	DB	01H
	DB	00H
	DB	00H
	DB	00H
	DB	00H
	DB	00H
	DB	00H
	DB	00H
	DB	00H
	DB	00H
	DB	00H
	DB	00H
	DB	00H
	DB	00H
	DB	00H
	DB	00H
	DB	00H
	DB	00H
	DB	00H
	DB	00H
	DB	01H
	DB	00H
	DB	00H
	DB	00H
	DB	00H
	DB	01H
	DB	01H
	DB	01H
	DB	01H
	DB	03H
	DB	00H
	DB	00H
	DB	00H
	DB	01H
	DB	01H
	DB	00H
	DB	00H
	DB	00H
	DB	00H
	DB	00H
	DB	00H
	DB	00H
	DB	01H
	DB	01H
	DB	01H
	DB	01H
	DB	00H
	DB	00H
	DB	00H
	DB	00H
	DB	00H
	DB	00H
	DB	00H
	DB	00H
	DB	00H
	DB	00H
	DB	00H
	DB	00H
	DB	00H
	DB	00H
	DB	00H
	DB	00H
	DB	00H
	DB	00H
	DB	00H
	DB	00H
	DB	01H
	DB	00H
	DB	00H
	DB	00H
	DB	00H
	DB	00H
	DB	00H
	DB	00H
	DB	01H
	DB	01H
	DB	01H
	DB	01H
	DB	01H
	DB	01H
	DB	00H
	DB	00H
	DB	00H
	DB	00H
	DB	00H
	DB	00H
	DB	00H
	DB	00H
	DB	01H
	DB	01H
	DB	01H
	DB	00H
	DB	00H
	DB	00H
	DB	00H
	DB	00H
	DB	00H
	DB	00H
	DB	00H
	DB	00H
	DB	00H
	DB	00H
	DB	00H
	DB	00H
	DB	00H
	DB	00H
	DB	00H
	DB	00H
	DB	00H
	DB	00H
	DB	00H
	DB	00H
	DB	01H
	DB	01H
	DB	00H
	DB	00H
	DB	00H
	DB	00H
	DB	03H
	DB	03H
	DB	03H
	DB	01H
	DB	01H
	DB	01H
	DB	00H
	DB	00H
	DB	00H
	DB	00H
	DB	00H
	DB	00H
	DB	00H
	DB	00H
	DB	00H
	DB	01H
	DB	01H
	DB	00H
	DB	00H
	DB	00H
	DB	00H
	DB	00H
	DB	00H
	DB	00H
	DB	00H
	DB	00H
	DB	00H
	DB	00H
	DB	00H
	DB	00H
	DB	00H
	DB	00H
	DB	00H
	DB	00H
	DB	00H
	DB	00H
	DB	00H
	DB	00H
	DB	00H
	DB	00H
	DB	00H
	DB	01H
	DB	00H
	DB	00H
	DB	00H
	DB	00H
	DB	00H
	DB	00H
	DB	00H
	DB	00H
	DB	00H
	DB	00H
	DB	01H
	DB	01H
	DB	00H
	DB	00H
	DB	00H
	DB	00H
	DB	00H
	DB	01H
	DB	01H
	DB	01H
	DB	00H
	DB	00H
	DB	00H
	DB	00H
	DB	00H
	DB	00H
	DB	00H
	DB	00H
	DB	00H
	DB	00H
	DB	00H
	DB	00H
	DB	00H
	DB	00H
	DB	00H
	DB	00H
	DB	00H
	DB	00H
	DB	00H
	DB	00H
	DB	00H
	DB	00H
	DB	00H
	DB	00H
	DB	00H
	DB	00H
	DB	01H
	DB	01H
	DB	00H
	DB	00H
	DB	00H
	DB	00H
	DB	00H
	DB	00H
	DB	00H
	DB	00H
	DB	00H
	DB	00H
	DB	01H
	DB	01H
	DB	01H
	DB	01H
	DB	01H
	DB	01H
	DB	01H
	DB	00H
	DB	00H
	DB	00H
	DB	00H
	DB	00H
	DB	00H
	DB	00H
	DB	00H
	DB	00H
	DB	00H
	DB	00H
	DB	00H
	DB	00H
	DB	00H
	DB	05H
	DB	00H
	DB	00H
	DB	00H
	DB	00H
	DB	00H
	DB	00H
	DB	00H
	DB	00H
	DB	00H
	DB	00H
	DB	00H
	DB	00H
	DB	00H
	DB	01H
	DB	01H
	DB	01H
	DB	00H
	DB	00H
	DB	00H
	DB	00H
	DB	00H
	DB	00H
	DB	00H
	DB	00H
	DB	01H
	DB	01H
	DB	01H
	DB	00H
	DB	00H
	DB	00H
	DB	00H
	DB	00H
	DB	00H
	DB	00H
	DB	00H
	DB	00H
	DB	00H
	DB	00H
	DB	00H
	DB	00H
	DB	00H
	DB	00H
	DB	00H
	DB	00H
	DB	00H
	DB	01bH
	DB	00H
	DB	00H
	DB	00H
	DB	00H
	DB	00H
	DB	00H
	DB	00H
	DB	00H
	DB	00H
	DB	00H
	DB	00H
	DB	00H
	DB	00H
	DB	00H
	DB	00H
	DB	01H
	DB	01H
	DB	01H
	DB	01H
	DB	01H
	DB	01H
	DB	01H
	DB	01H
	DB	01H
	DB	00H
	DB	00H
	DB	00H
	DB	00H
	DB	00H
	DB	00H
	DB	00H
	DB	00H
	DB	00H
	DB	00H
	DB	00H
	DB	00H
	DB	00H
	DB	00H
	DB	00H
	DB	00H
	DB	00H
	DB	00H
	DB	00H
	DB	00H
	DB	08H
	DB	053H
	DB	00H
	DB	00H
	DB	00H
	DB	00H
	DB	00H
	DB	00H
	DB	00H
	DB	00H
	DB	00H
	DB	00H
	DB	00H
	DB	00H
	DB	00H
	DB	00H
	DB	00H
	DB	00H
	DB	00H
	DB	00H
	DB	00H
	DB	00H
	DB	00H
	DB	00H
	DB	00H
	DB	00H
	DB	00H
	DB	00H
	DB	00H
	DB	00H
	DB	00H
	DB	00H
	DB	00H
	DB	00H
	DB	00H
	DB	00H
	DB	00H
	DB	00H
	DB	00H
	DB	00H
	DB	00H
	DB	00H
	DB	00H
	DB	00H
	DB	00H
	DB	00H
	DB	0cH
	DB	052H
	DB	00H
	DB	00H
	DB	00H
	DB	00H
	DB	00H
	DB	00H
	DB	00H
	DB	00H
	DB	00H
	DB	00H
	DB	00H
	DB	00H
	DB	00H
	DB	00H
	DB	00H
	DB	00H
	DB	00H
	DB	00H
	DB	00H
	DB	00H
	DB	00H
	DB	00H
	DB	00H
	DB	00H
	DB	00H
	DB	00H
	DB	00H
	DB	00H
	DB	00H
	DB	00H
	DB	00H
	DB	00H
	DB	00H
	DB	00H
	DB	00H
	DB	00H
	DB	00H
	DB	00H
	DB	00H
	DB	00H
	DB	00H
	DB	00H
	DB	00H
	DB	0fH
	DB	01aH
	DB	0cH
	DB	00H
	DB	00H
	DB	00H
	DB	00H
	DB	00H
	DB	00H
	DB	00H
	DB	00H
	DB	00H
	DB	00H
	DB	00H
	DB	00H
	DB	00H
	DB	00H
	DB	00H
	DB	00H
	DB	00H
	DB	00H
	DB	00H
	DB	00H
	DB	00H
	DB	00H
	DB	00H
	DB	00H
	DB	00H
	DB	00H
	DB	00H
	DB	00H
	DB	00H
	DB	00H
	DB	00H
	DB	00H
	DB	00H
	DB	00H
	DB	00H
	DB	00H
	DB	00H
	DB	00H
	DB	00H
	DB	00H
	DB	00H
	DB	00H
	DB	00H
	DB	01bH
	DB	0cH
	DB	0cH
CONST	ENDS
END
