; Listing generated by Microsoft (R) Optimizing Compiler Version 16.00.40219.01 

	TITLE	C:\DUII\DUII\Graphics\Yellow_3.c
	.686P
	.XMM
	include listing.inc
	.model	flat

INCLUDELIB LIBCMT
INCLUDELIB OLDNAMES

PUBLIC	_bmYellow_3
CONST	SEGMENT
_ColorsYellow_3 DD 00H
	DD	012ebf5H
	DD	0111111H
	DD	050505H
	DD	090909H
	DD	0191919H
	DD	0d0d0dH
	DD	0202020H
	DD	0151515H
	DD	01e1d1dH
	DD	02d1fdH
	DD	012f3fdH
	DD	012fcffH
	DD	0cefdH
	DD	0addf9H
	DD	0171718H
	DD	0110c0bH
	DD	08dafaH
	DD	050000H
	DD	05d5fcH
	DD	011edfaH
	DD	06d6fbH
	DD	01c1414H
	DD	0120403H
	DD	01d9ffH
	DD	0ee4f9H
	DD	01dcffH
	DD	0de2f8H
	DD	090000H
	DD	02d4ffH
	DD	0cedffH
	DD	04d3fdH
	DD	0201b1bH
	DD	0252525H
	DD	013e3edH
	DD	01e0ffH
	DD	0be0f8H
	DD	090606H
	DD	02d2d2dH
	DD	05dafeH
	DD	0ce9fdH
	DD	0d0000H
	DD	0151010H
	DD	07d8fbH
	DD	0163132H
	DD	0353535H
	DD	01c5a5dH
	DD	05b5b5bH
	DD	012c1caH
	DD	06ddffH
	DD	0ee1f5H
	DD	09edffH
	DD	0df1ffH
	DD	0d0a09H
	DD	01c0d0cH
	DD	0d10H
	DD	01215H
	DD	0d2d30H
	DD	0292929H
	DD	0393939H
	DD	0566bH
	DD	0454545H
	DD	0737373H
	DD	011dbe4H
	DD	02cef8H
	DD	09defdH
	DD	05e4ffH
	DD	010e7f5H
	DD	042021H
	DD	0212aH
	DD	0d292bH
	DD	02932H
	DD	0203132H
	DD	03e3e3eH
	DD	0b4d52H
	DD	05165H
	DD	0586dH
	DD	0637cH
	DD	012767bH
	DD	04c4c4cH
	DD	0545454H
	DD	0636363H
	DD	06b6b6bH
	DD	012acb3H
	DD	0ac0d7H
	DD	014c9d1H
	DD	012d2dbH
	DD	05e1ffH
	DD	02e4ffH
	DD	0ae5ffH
	DD	0ce5feH
	DD	0ff9ffH
	DD	0fefefeH
	DD	010506H
	DD	0b0807H
	DD	010c0dH
	DD	011113H
	DD	0c1616H
	DD	01418H
	DD	0c191bH
	DD	0b2324H
	DD	01d2424H
	DD	0102c2dH
	DD	01c2d2eH
	DD	0a3235H
	DD	01c3030H
	DD	0202525H
	DD	0333333H
	DD	014a59H
	DD	065761H
	DD	0115d61H
	DD	0c686cH
	DD	0136266H
	DD	01a6569H
	DD	0647dH
	DD	0525252H
	DD	07c7c7cH
	DD	015939aH
	DD	0289a4H
	DD	0c99a3H
	DD	0139ba3H
	DD	013a3aaH
	DD	011b1baH
	DD	0fdce9H
	DD	06e9ffH
	DD	09e9ffH
	DD	0cf5ffH
	DD	0838383H
	DD	08b8b8bH
	DD	0b3b3b3H
	DD	0d1d1d1H
	DD	0dbdbdbH
	DD	0305H
	DD	080403H
	DD	0608H
	DD	010a0bH
	DD	050b0bH
	DD	070d0dH
	DD	080e0eH
	DD	01c0706H
	DD	0130807H
	DD	018100fH
	DD	040e10H
	DD	0f0f10H
	DD	03181aH
	DD	0111314H
	DD	0101616H
	DD	01b1817H
	DD	01e1919H
	DD	0181c1cH
	DD	0200c0bH
	DD	0211817H
	DD	021d21H
	DD	0152425H
	DD	0152628H
	DD	012a34H
	DD	02f38H
	DD	0132f30H
	DD	0323dH
	DD	01a3739H
	DD	01d393bH
	DD	0202929H
	DD	0302f2fH
	DD	033b40H
	DD	023b46H
	DD	043f45H
	DD	0b3e40H
	DD	03b4aH
	DD	03c4aH
	DD	044049H
	DD	08494dH
	DD	0164042H
	DD	0164749H
	DD	017484bH
	DD	024551H
	DD	054650H
	DD	04354H
	DD	054f56H
	DD	04a5cH
	DD	014e5dH
	DD	075055H
	DD	06515bH
	DD	05545cH
	DD	0135a5eH
	DD	095961H
	DD	0c5a61H
	DD	0b5c65H
	DD	02586aH
	DD	06646fH
	DD	0b656fH
	DD	012676bH
	DD	010696dH
	DD	036070H
	DD	056d7dH
	DD	0136f74H
	DD	012787dH
	DD	04a4a4aH
	DD	06680H
	DD	067380H
	DD	087a85H
	DD	04798aH
	DD	0137e84H
	DD	01a7e82H
	DD	0d8085H
	DD	0108489H
	DD	0b8b94H
	DD	088898H
	DD	098d9bH
	DD	0c979eH
	DD	0186a1H
	DD	0698adH
	DD	095b8H
	DD	039dbbH
	DD	019bbfH
	DD	039ebeH
	DD	0aa2b4H
	DD	0daab9H
	DD	0cadbeH
	DD	09fc6H
	DD	05a4c1H
	DD	04aac7H
	DD	03a8c8H
	DD	01a8ceH
	DD	012bfc8H
	DD	03add0H
	DD	0aad4H
	DD	04b1d2H
	DD	06b9d6H
	DD	02b7dfH
	DD	05b9d8H
	DD	03b9ddH
	DD	0cc1d2H
	DD	0cc4d7H
	DD	07c4e3H
	DD	04c2e6H
	DD	010d9e8H
	DD	02c3f0H
	DD	03c8f2H
	DD	07cff0H
	DD	02caf7H
	DD	05cff5H
	DD	0cafdH
	DD	07d4f5H
	DD	0ad4f1H
	DD	08dbfcH
	DD	0fe0eeH
	DD	0fe1f3H
	DD	09e3ffH
	DD	0fe8fbH
	DD	03f2ffH
	DD	0af2ffH
	DD	09f7ffH
	DD	0929292H
	DD	09e9e9eH
	DD	0abababH
	DD	0cececeH
_PalYellow_3 DD	0100H
	DB	00H
	ORG $+3
	DD	FLAT:_ColorsYellow_3
_bmYellow_3 DW	02eH
	DW	03eH
	DW	02eH
	DW	08H
	DD	FLAT:_acYellow_3
	DD	FLAT:_PalYellow_3
	ORG $+4
_acYellow_3 DB	00H
	DB	00H
	DB	00H
	DB	00H
	DB	00H
	DB	00H
	DB	00H
	DB	00H
	DB	00H
	DB	00H
	DB	00H
	DB	00H
	DB	00H
	DB	00H
	DB	00H
	DB	00H
	DB	00H
	DB	00H
	DB	00H
	DB	00H
	DB	00H
	DB	00H
	DB	00H
	DB	00H
	DB	00H
	DB	00H
	DB	00H
	DB	00H
	DB	00H
	DB	00H
	DB	00H
	DB	00H
	DB	00H
	DB	00H
	DB	00H
	DB	00H
	DB	00H
	DB	00H
	DB	00H
	DB	00H
	DB	00H
	DB	00H
	DB	00H
	DB	00H
	DB	00H
	DB	00H
	DB	00H
	DB	00H
	DB	00H
	DB	00H
	DB	00H
	DB	00H
	DB	00H
	DB	00H
	DB	00H
	DB	00H
	DB	00H
	DB	00H
	DB	00H
	DB	00H
	DB	00H
	DB	00H
	DB	00H
	DB	00H
	DB	00H
	DB	00H
	DB	00H
	DB	00H
	DB	00H
	DB	00H
	DB	00H
	DB	00H
	DB	00H
	DB	00H
	DB	00H
	DB	00H
	DB	00H
	DB	00H
	DB	00H
	DB	00H
	DB	00H
	DB	00H
	DB	00H
	DB	00H
	DB	00H
	DB	00H
	DB	00H
	DB	00H
	DB	00H
	DB	00H
	DB	00H
	DB	00H
	DB	00H
	DB	00H
	DB	00H
	DB	00H
	DB	00H
	DB	00H
	DB	00H
	DB	00H
	DB	00H
	DB	00H
	DB	00H
	DB	00H
	DB	00H
	DB	00H
	DB	00H
	DB	00H
	DB	00H
	DB	00H
	DB	00H
	DB	00H
	DB	00H
	DB	00H
	DB	00H
	DB	00H
	DB	00H
	DB	00H
	DB	00H
	DB	00H
	DB	00H
	DB	00H
	DB	00H
	DB	00H
	DB	00H
	DB	00H
	DB	00H
	DB	00H
	DB	00H
	DB	00H
	DB	00H
	DB	00H
	DB	00H
	DB	00H
	DB	00H
	DB	00H
	DB	00H
	DB	00H
	DB	00H
	DB	00H
	DB	00H
	DB	00H
	DB	00H
	DB	00H
	DB	00H
	DB	00H
	DB	00H
	DB	00H
	DB	00H
	DB	00H
	DB	00H
	DB	00H
	DB	00H
	DB	00H
	DB	00H
	DB	00H
	DB	00H
	DB	00H
	DB	00H
	DB	00H
	DB	00H
	DB	00H
	DB	00H
	DB	00H
	DB	00H
	DB	00H
	DB	00H
	DB	00H
	DB	00H
	DB	00H
	DB	00H
	DB	00H
	DB	00H
	DB	00H
	DB	00H
	DB	00H
	DB	00H
	DB	00H
	DB	00H
	DB	00H
	DB	00H
	DB	00H
	DB	00H
	DB	00H
	DB	00H
	DB	00H
	DB	00H
	DB	00H
	DB	00H
	DB	00H
	DB	00H
	DB	00H
	DB	00H
	DB	00H
	DB	00H
	DB	00H
	DB	00H
	DB	00H
	DB	00H
	DB	00H
	DB	00H
	DB	00H
	DB	00H
	DB	00H
	DB	00H
	DB	00H
	DB	00H
	DB	00H
	DB	00H
	DB	00H
	DB	00H
	DB	00H
	DB	00H
	DB	00H
	DB	00H
	DB	00H
	DB	00H
	DB	00H
	DB	00H
	DB	00H
	DB	00H
	DB	00H
	DB	00H
	DB	00H
	DB	00H
	DB	00H
	DB	00H
	DB	00H
	DB	00H
	DB	00H
	DB	00H
	DB	00H
	DB	00H
	DB	00H
	DB	00H
	DB	00H
	DB	00H
	DB	00H
	DB	00H
	DB	00H
	DB	00H
	DB	00H
	DB	00H
	DB	00H
	DB	00H
	DB	00H
	DB	00H
	DB	00H
	DB	00H
	DB	00H
	DB	00H
	DB	00H
	DB	00H
	DB	00H
	DB	00H
	DB	00H
	DB	00H
	DB	00H
	DB	00H
	DB	00H
	DB	00H
	DB	00H
	DB	00H
	DB	00H
	DB	00H
	DB	00H
	DB	00H
	DB	00H
	DB	00H
	DB	00H
	DB	00H
	DB	00H
	DB	00H
	DB	00H
	DB	00H
	DB	00H
	DB	00H
	DB	00H
	DB	00H
	DB	00H
	DB	00H
	DB	00H
	DB	00H
	DB	00H
	DB	00H
	DB	00H
	DB	00H
	DB	00H
	DB	00H
	DB	00H
	DB	00H
	DB	00H
	DB	00H
	DB	037H
	DB	047H
	DB	04bH
	DB	0c5H
	DB	04dH
	DB	04dH
	DB	072H
	DB	072H
	DB	0b2H
	DB	047H
	DB	037H
	DB	00H
	DB	00H
	DB	00H
	DB	00H
	DB	00H
	DB	00H
	DB	00H
	DB	00H
	DB	00H
	DB	00H
	DB	00H
	DB	00H
	DB	00H
	DB	00H
	DB	00H
	DB	00H
	DB	00H
	DB	00H
	DB	00H
	DB	00H
	DB	00H
	DB	00H
	DB	00H
	DB	00H
	DB	00H
	DB	00H
	DB	00H
	DB	00H
	DB	00H
	DB	00H
	DB	00H
	DB	00H
	DB	00H
	DB	04cH
	DB	0daH
	DB	0dH
	DB	023H
	DB	01aH
	DB	018H
	DB	018H
	DB	018H
	DB	018H
	DB	018H
	DB	01aH
	DB	023H
	DB	0f1H
	DB	0e1H
	DB	04dH
	DB	086H
	DB	00H
	DB	00H
	DB	00H
	DB	00H
	DB	00H
	DB	00H
	DB	00H
	DB	00H
	DB	00H
	DB	00H
	DB	00H
	DB	00H
	DB	00H
	DB	00H
	DB	00H
	DB	00H
	DB	00H
	DB	00H
	DB	00H
	DB	00H
	DB	00H
	DB	00H
	DB	00H
	DB	00H
	DB	00H
	DB	00H
	DB	00H
	DB	00H
	DB	04bH
	DB	058H
	DB	01aH
	DB	01dH
	DB	0dH
	DB	0dH
	DB	0dH
	DB	0dH
	DB	0dH
	DB	0dH
	DB	0dH
	DB	0dH
	DB	0dH
	DB	0dH
	DB	0dH
	DB	01dH
	DB	01aH
	DB	023H
	DB	0d3H
	DB	037H
	DB	00H
	DB	00H
	DB	00H
	DB	00H
	DB	00H
	DB	00H
	DB	00H
	DB	00H
	DB	00H
	DB	00H
	DB	00H
	DB	00H
	DB	00H
	DB	00H
	DB	00H
	DB	00H
	DB	00H
	DB	00H
	DB	00H
	DB	00H
	DB	00H
	DB	00H
	DB	00H
	DB	00H
	DB	05dH
	DB	0d5H
	DB	01aH
	DB	0aH
	DB	0dH
	DB	0dH
	DB	0dH
	DB	0dH
	DB	0dH
	DB	0dH
	DB	0dH
	DB	0dH
	DB	0dH
	DB	0dH
	DB	0dH
	DB	0dH
	DB	0dH
	DB	0dH
	DB	0dH
	DB	0dH
	DB	01aH
	DB	040H
	DB	0a8H
	DB	00H
	DB	00H
	DB	00H
	DB	00H
	DB	00H
	DB	00H
	DB	00H
	DB	00H
	DB	00H
	DB	00H
	DB	00H
	DB	00H
	DB	00H
	DB	00H
	DB	00H
	DB	00H
	DB	00H
	DB	00H
	DB	00H
	DB	00H
	DB	00H
	DB	00H
	DB	00H
	DB	0e4H
	DB	01aH
	DB	0aH
	DB	0aH
	DB	0aH
	DB	0aH
	DB	0aH
	DB	0aH
	DB	0aH
	DB	0aH
	DB	01dH
	DB	01dH
	DB	01dH
	DB	01dH
	DB	0aH
	DB	0aH
	DB	0aH
	DB	0aH
	DB	0aH
	DB	0aH
	DB	0aH
	DB	01dH
	DB	023H
	DB	04bH
	DB	00H
	DB	00H
	DB	00H
	DB	00H
	DB	00H
	DB	00H
	DB	00H
	DB	00H
	DB	00H
	DB	00H
	DB	00H
	DB	00H
	DB	00H
	DB	03H
	DB	00H
	DB	00H
	DB	00H
	DB	00H
	DB	00H
	DB	00H
	DB	00H
	DB	0d6H
	DB	023H
	DB	0aH
	DB	0aH
	DB	0aH
	DB	0aH
	DB	0aH
	DB	01fH
	DB	018H
	DB	057H
	DB	023H
	DB	040H
	DB	040H
	DB	040H
	DB	01dH
	DB	058H
	DB	018H
	DB	01dH
	DB	0aH
	DB	0aH
	DB	0aH
	DB	0aH
	DB	0aH
	DB	01fH
	DB	0f9H
	DB	09bH
	DB	00H
	DB	00H
	DB	00H
	DB	00H
	DB	00H
	DB	00H
	DB	03H
	DB	00H
	DB	00H
	DB	00H
	DB	00H
	DB	00H
	DB	04H
	DB	00H
	DB	00H
	DB	00H
	DB	00H
	DB	00H
	DB	00H
	DB	0b3H
	DB	042H
	DB	01fH
	DB	01fH
	DB	01fH
	DB	01fH
	DB	01fH
	DB	027H
	DB	027H
	DB	0ddH
	DB	0bbH
	DB	062H
	DB	038H
	DB	038H
	DB	038H
	DB	062H
	DB	0a4H
	DB	0d4H
	DB	013H
	DB	031H
	DB	01fH
	DB	01fH
	DB	01fH
	DB	01fH
	DB	01fH
	DB	027H
	DB	0e6H
	DB	00H
	DB	00H
	DB	00H
	DB	00H
	DB	00H
	DB	00H
	DB	03H
	DB	00H
	DB	00H
	DB	00H
	DB	00H
	DB	00H
	DB	06H
	DB	00H
	DB	00H
	DB	00H
	DB	00H
	DB	00H
	DB	00H
	DB	0eaH
	DB	027H
	DB	013H
	DB	013H
	DB	013H
	DB	013H
	DB	057H
	DB	0f0H
	DB	047H
	DB	00H
	DB	00H
	DB	00H
	DB	00H
	DB	00H
	DB	00H
	DB	00H
	DB	00H
	DB	00H
	DB	045H
	DB	0e2H
	DB	042H
	DB	013H
	DB	013H
	DB	013H
	DB	013H
	DB	013H
	DB	07cH
	DB	06cH
	DB	00H
	DB	00H
	DB	00H
	DB	00H
	DB	00H
	DB	035H
	DB	03H
	DB	00H
	DB	00H
	DB	00H
	DB	00H
	DB	08H
	DB	03H
	DB	00H
	DB	00H
	DB	00H
	DB	00H
	DB	0c0H
	DB	042H
	DB	015H
	DB	015H
	DB	015H
	DB	015H
	DB	057H
	DB	0dcH
	DB	00H
	DB	00H
	DB	00H
	DB	00H
	DB	00H
	DB	00H
	DB	00H
	DB	00H
	DB	00H
	DB	00H
	DB	00H
	DB	00H
	DB	00H
	DB	0dbH
	DB	057H
	DB	015H
	DB	015H
	DB	015H
	DB	015H
	DB	031H
	DB	0e5H
	DB	00H
	DB	00H
	DB	00H
	DB	00H
	DB	00H
	DB	02H
	DB	025H
	DB	00H
	DB	00H
	DB	00H
	DB	00H
	DB	09H
	DB	03H
	DB	00H
	DB	00H
	DB	00H
	DB	00H
	DB	0e9H
	DB	031H
	DB	02bH
	DB	02bH
	DB	02bH
	DB	031H
	DB	0eeH
	DB	038H
	DB	00H
	DB	00H
	DB	00H
	DB	00H
	DB	00H
	DB	00H
	DB	00H
	DB	00H
	DB	00H
	DB	00H
	DB	00H
	DB	00H
	DB	00H
	DB	00H
	DB	0e3H
	DB	041H
	DB	02bH
	DB	02bH
	DB	02bH
	DB	027H
	DB	0f2H
	DB	098H
	DB	00H
	DB	00H
	DB	00H
	DB	00H
	DB	0fH
	DB	04H
	DB	00H
	DB	00H
	DB	00H
	DB	00H
	DB	021H
	DB	03H
	DB	00H
	DB	00H
	DB	00H
	DB	05dH
	DB	0fbH
	DB	011H
	DB	011H
	DB	011H
	DB	011H
	DB	07dH
	DB	0c1H
	DB	00H
	DB	00H
	DB	00H
	DB	00H
	DB	00H
	DB	00H
	DB	00H
	DB	00H
	DB	00H
	DB	00H
	DB	00H
	DB	00H
	DB	00H
	DB	00H
	DB	00H
	DB	0afH
	DB	033H
	DB	011H
	DB	011H
	DB	011H
	DB	0f4H
	DB	0f7H
	DB	0a9H
	DB	00H
	DB	00H
	DB	00H
	DB	00H
	DB	09H
	DB	06H
	DB	00H
	DB	00H
	DB	03H
	DB	00H
	DB	026H
	DB	04H
	DB	03H
	DB	03H
	DB	012H
	DB	0b5H
	DB	033H
	DB	0eH
	DB	0eH
	DB	0eH
	DB	0eH
	DB	0faH
	DB	012H
	DB	012H
	DB	03H
	DB	03H
	DB	03H
	DB	03H
	DB	03H
	DB	03H
	DB	03H
	DB	03H
	DB	03H
	DB	03H
	DB	03H
	DB	03H
	DB	03H
	DB	012H
	DB	08eH
	DB	0f3H
	DB	041H
	DB	0eH
	DB	0eH
	DB	0eH
	DB	033H
	DB	06dH
	DB	012H
	DB	03H
	DB	03H
	DB	00H
	DB	021H
	DB	08fH
	DB	00H
	DB	00H
	DB	03H
	DB	00H
	DB	02dH
	DB	04H
	DB	03H
	DB	03H
	DB	012H
	DB	0ceH
	DB	07dH
	DB	024H
	DB	024H
	DB	024H
	DB	059H
	DB	054H
	DB	012H
	DB	03H
	DB	03H
	DB	03H
	DB	03H
	DB	03H
	DB	03H
	DB	03H
	DB	03H
	DB	03H
	DB	03H
	DB	03H
	DB	03H
	DB	03H
	DB	03H
	DB	085H
	DB	088H
	DB	054H
	DB	059H
	DB	024H
	DB	024H
	DB	024H
	DB	01eH
	DB	06dH
	DB	012H
	DB	03H
	DB	03H
	DB	00H
	DB	026H
	DB	02H
	DB	00H
	DB	00H
	DB	025H
	DB	00H
	DB	049H
	DB	06H
	DB	03H
	DB	025H
	DB	012H
	DB	0d7H
	DB	028H
	DB	024H
	DB	024H
	DB	024H
	DB	01eH
	DB	0cfH
	DB	012H
	DB	025H
	DB	025H
	DB	025H
	DB	025H
	DB	025H
	DB	025H
	DB	025H
	DB	025H
	DB	025H
	DB	025H
	DB	025H
	DB	025H
	DB	025H
	DB	025H
	DB	085H
	DB	089H
	DB	054H
	DB	05aH
	DB	024H
	DB	024H
	DB	024H
	DB	034H
	DB	0b8H
	DB	012H
	DB	025H
	DB	025H
	DB	00H
	DB	06bH
	DB	08H
	DB	00H
	DB	00H
	DB	04H
	DB	00H
	DB	04fH
	DB	08fH
	DB	025H
	DB	025H
	DB	085H
	DB	0d9H
	DB	01eH
	DB	019H
	DB	019H
	DB	019H
	DB	034H
	DB	0bdH
	DB	01cH
	DB	04H
	DB	04H
	DB	04H
	DB	04H
	DB	04H
	DB	04H
	DB	04H
	DB	04H
	DB	04H
	DB	04H
	DB	04H
	DB	04H
	DB	04H
	DB	04H
	DB	025H
	DB	08aH
	DB	0e8H
	DB	05aH
	DB	01bH
	DB	01bH
	DB	01bH
	DB	034H
	DB	0baH
	DB	01cH
	DB	04H
	DB	04H
	DB	03H
	DB	049H
	DB	05H
	DB	00H
	DB	00H
	DB	035H
	DB	03H
	DB	050H
	DB	02H
	DB	04H
	DB	04H
	DB	05eH
	DB	0d8H
	DB	0f8H
	DB	032H
	DB	032H
	DB	032H
	DB	034H
	DB	0b9H
	DB	01cH
	DB	035H
	DB	035H
	DB	035H
	DB	035H
	DB	035H
	DB	035H
	DB	035H
	DB	035H
	DB	035H
	DB	035H
	DB	035H
	DB	035H
	DB	035H
	DB	035H
	DB	025H
	DB	063H
	DB	019H
	DB	019H
	DB	01bH
	DB	01bH
	DB	019H
	DB	01eH
	DB	04aH
	DB	01cH
	DB	035H
	DB	035H
	DB	03H
	DB	03dH
	DB	09H
	DB	00H
	DB	00H
	DB	06H
	DB	03H
	DB	02fH
	DB	08H
	DB	035H
	DB	06H
	DB	06H
	DB	046H
	DB	039H
	DB	039H
	DB	039H
	DB	039H
	DB	068H
	DB	063H
	DB	035H
	DB	06H
	DB	06H
	DB	06H
	DB	06H
	DB	06H
	DB	06H
	DB	06H
	DB	06H
	DB	06H
	DB	06H
	DB	06H
	DB	06H
	DB	06H
	DB	06H
	DB	029H
	DB	04aH
	DB	05bH
	DB	019H
	DB	019H
	DB	019H
	DB	0f8H
	DB	0f6H
	DB	046H
	DB	05eH
	DB	06H
	DB	06H
	DB	03H
	DB	04fH
	DB	07H
	DB	00H
	DB	00H
	DB	08fH
	DB	025H
	DB	052H
	DB	05H
	DB	08fH
	DB	08fH
	DB	08fH
	DB	010H
	DB	010H
	DB	010H
	DB	010H
	DB	010H
	DB	010H
	DB	010H
	DB	08fH
	DB	08fH
	DB	08fH
	DB	08fH
	DB	08fH
	DB	08fH
	DB	08fH
	DB	08fH
	DB	08fH
	DB	08fH
	DB	08fH
	DB	08fH
	DB	08fH
	DB	08fH
	DB	010H
	DB	010H
	DB	0ebH
	DB	014H
	DB	043H
	DB	043H
	DB	043H
	DB	01eH
	DB	030H
	DB	029H
	DB	08fH
	DB	08fH
	DB	08fH
	DB	04H
	DB	02fH
	DB	021H
	DB	00H
	DB	00H
	DB	02H
	DB	04H
	DB	03eH
	DB	09H
	DB	02H
	DB	02H
	DB	02H
	DB	02H
	DB	02H
	DB	02H
	DB	02H
	DB	02H
	DB	02H
	DB	02H
	DB	02H
	DB	02H
	DB	02H
	DB	02H
	DB	02H
	DB	02H
	DB	02H
	DB	02H
	DB	02H
	DB	02H
	DB	02H
	DB	02H
	DB	02H
	DB	010H
	DB	017H
	DB	078H
	DB	0bH
	DB	01H
	DB	043H
	DB	043H
	DB	01H
	DB	05bH
	DB	0b7H
	DB	08cH
	DB	02H
	DB	02H
	DB	02H
	DB	035H
	DB	051H
	DB	021H
	DB	00H
	DB	00H
	DB	08H
	DB	04H
	DB	074H
	DB	07H
	DB	091H
	DB	08H
	DB	08H
	DB	08H
	DB	08H
	DB	08H
	DB	08H
	DB	08H
	DB	08H
	DB	08H
	DB	08H
	DB	08H
	DB	08H
	DB	08H
	DB	08H
	DB	02aH
	DB	02aH
	DB	02aH
	DB	02aH
	DB	02aH
	DB	02aH
	DB	08cH
	DB	017H
	DB	099H
	DB	07aH
	DB	0cH
	DB	01H
	DB	01H
	DB	01H
	DB	01H
	DB	0bH
	DB	0dfH
	DB	02aH
	DB	08H
	DB	08H
	DB	08H
	DB	08H
	DB	06H
	DB	052H
	DB	03aH
	DB	00H
	DB	00H
	DB	0fH
	DB	06H
	DB	080H
	DB	021H
	DB	08H
	DB	0fH
	DB	0fH
	DB	0fH
	DB	0fH
	DB	0fH
	DB	0fH
	DB	0fH
	DB	0fH
	DB	0fH
	DB	0fH
	DB	0fH
	DB	0fH
	DB	0fH
	DB	095H
	DB	0adH
	DB	02cH
	DB	02cH
	DB	02cH
	DB	02cH
	DB	0acH
	DB	070H
	DB	030H
	DB	0cH
	DB	0bH
	DB	01H
	DB	01H
	DB	01H
	DB	01H
	DB	0bH
	DB	01H
	DB	08dH
	DB	08H
	DB	0fH
	DB	0fH
	DB	0fH
	DB	0fH
	DB	08fH
	DB	03eH
	DB	026H
	DB	00H
	DB	00H
	DB	095H
	DB	06H
	DB	0fdH
	DB	03aH
	DB	05H
	DB	095H
	DB	095H
	DB	095H
	DB	095H
	DB	095H
	DB	095H
	DB	095H
	DB	095H
	DB	095H
	DB	095H
	DB	095H
	DB	095H
	DB	093H
	DB	067H
	DB	01H
	DB	022H
	DB	022H
	DB	022H
	DB	022H
	DB	014H
	DB	0cH
	DB	0bH
	DB	01H
	DB	01H
	DB	01H
	DB	01H
	DB	014H
	DB	0cH
	DB	055H
	DB	069H
	DB	016H
	DB	095H
	DB	095H
	DB	095H
	DB	095H
	DB	095H
	DB	02H
	DB	07fH
	DB	02dH
	DB	00H
	DB	00H
	DB	09H
	DB	035H
	DB	082H
	DB	0a2H
	DB	05H
	DB	09H
	DB	09H
	DB	09H
	DB	09H
	DB	09H
	DB	09H
	DB	09H
	DB	09H
	DB	09H
	DB	09H
	DB	09H
	DB	09H
	DB	094H
	DB	067H
	DB	01H
	DB	0bH
	DB	014H
	DB	014H
	DB	014H
	DB	01H
	DB	01H
	DB	01H
	DB	01H
	DB	01H
	DB	01H
	DB	01H
	DB	022H
	DB	071H
	DB	096H
	DB	016H
	DB	09H
	DB	09H
	DB	09H
	DB	09H
	DB	09H
	DB	09H
	DB	08fH
	DB	0feH
	DB	03dH
	DB	00H
	DB	00H
	DB	07H
	DB	04H
	DB	05cH
	DB	02dH
	DB	09H
	DB	07H
	DB	07H
	DB	07H
	DB	07H
	DB	07H
	DB	07H
	DB	07H
	DB	07H
	DB	07H
	DB	07H
	DB	07H
	DB	07H
	DB	020H
	DB	048H
	DB	043H
	DB	014H
	DB	01H
	DB	01H
	DB	01H
	DB	01H
	DB	01H
	DB	01H
	DB	01H
	DB	01H
	DB	01H
	DB	01H
	DB	0bH
	DB	0dfH
	DB	071H
	DB	097H
	DB	020H
	DB	07H
	DB	07H
	DB	07H
	DB	07H
	DB	07H
	DB	06H
	DB	0ffH
	DB	050H
	DB	00H
	DB	00H
	DB	07H
	DB	04H
	DB	05cH
	DB	03bH
	DB	09H
	DB	07H
	DB	07H
	DB	07H
	DB	07H
	DB	07H
	DB	07H
	DB	07H
	DB	07H
	DB	07H
	DB	07H
	DB	07H
	DB	07H
	DB	09H
	DB	048H
	DB	01H
	DB	014H
	DB	01H
	DB	01H
	DB	01H
	DB	01H
	DB	01H
	DB	01H
	DB	01H
	DB	01H
	DB	01H
	DB	01H
	DB	01H
	DB	0bH
	DB	05bH
	DB	055H
	DB	0a1H
	DB	020H
	DB	07H
	DB	07H
	DB	07H
	DB	07H
	DB	06H
	DB	083H
	DB	02fH
	DB	00H
	DB	00H
	DB	07H
	DB	035H
	DB	05cH
	DB	03bH
	DB	09H
	DB	07H
	DB	07H
	DB	07H
	DB	07H
	DB	07H
	DB	07H
	DB	07H
	DB	07H
	DB	07H
	DB	07H
	DB	07H
	DB	07H
	DB	07H
	DB	048H
	DB	05bH
	DB	0cH
	DB	0cH
	DB	0cH
	DB	0cH
	DB	0cH
	DB	0bH
	DB	0bH
	DB	01H
	DB	01H
	DB	01H
	DB	01H
	DB	01H
	DB	01H
	DB	01H
	DB	05bH
	DB	022H
	DB	048H
	DB	097H
	DB	07H
	DB	07H
	DB	07H
	DB	08fH
	DB	082H
	DB	050H
	DB	00H
	DB	00H
	DB	07H
	DB	06H
	DB	083H
	DB	06bH
	DB	09H
	DB	07H
	DB	07H
	DB	07H
	DB	07H
	DB	07H
	DB	07H
	DB	07H
	DB	07H
	DB	07H
	DB	07H
	DB	07H
	DB	07H
	DB	07H
	DB	06aH
	DB	02eH
	DB	02eH
	DB	02eH
	DB	02eH
	DB	02eH
	DB	0caH
	DB	079H
	DB	055H
	DB	0bH
	DB	05bH
	DB	014H
	DB	01H
	DB	01H
	DB	01H
	DB	01H
	DB	01H
	DB	0bH
	DB	022H
	DB	06aH
	DB	020H
	DB	07H
	DB	07H
	DB	02H
	DB	081H
	DB	0c4H
	DB	00H
	DB	00H
	DB	07H
	DB	08fH
	DB	081H
	DB	026H
	DB	09H
	DB	07H
	DB	07H
	DB	07H
	DB	07H
	DB	07H
	DB	07H
	DB	07H
	DB	07H
	DB	07H
	DB	07H
	DB	07H
	DB	07H
	DB	07H
	DB	09H
	DB	097H
	DB	097H
	DB	097H
	DB	097H
	DB	097H
	DB	016H
	DB	036H
	DB	07H
	DB	0a0H
	DB	075H
	DB	014H
	DB	0bH
	DB	01H
	DB	01H
	DB	01H
	DB	01H
	DB	01H
	DB	0bH
	DB	053H
	DB	096H
	DB	09H
	DB	07H
	DB	091H
	DB	0fcH
	DB	03bH
	DB	00H
	DB	00H
	DB	095H
	DB	08fH
	DB	080H
	DB	021H
	DB	05H
	DB	095H
	DB	095H
	DB	095H
	DB	095H
	DB	095H
	DB	095H
	DB	095H
	DB	095H
	DB	095H
	DB	095H
	DB	095H
	DB	095H
	DB	095H
	DB	095H
	DB	095H
	DB	095H
	DB	095H
	DB	095H
	DB	095H
	DB	095H
	DB	095H
	DB	05H
	DB	016H
	DB	08bH
	DB	09fH
	DB	056H
	DB	05bH
	DB	01H
	DB	01H
	DB	01H
	DB	01H
	DB	01H
	DB	0cH
	DB	065H
	DB	093H
	DB	095H
	DB	02H
	DB	03eH
	DB	0a2H
	DB	00H
	DB	00H
	DB	05H
	DB	06H
	DB	07fH
	DB	021H
	DB	0fH
	DB	05H
	DB	05H
	DB	05H
	DB	05H
	DB	05H
	DB	05H
	DB	05H
	DB	05H
	DB	05H
	DB	05H
	DB	05H
	DB	05H
	DB	05H
	DB	05H
	DB	05H
	DB	05H
	DB	05H
	DB	05H
	DB	05H
	DB	05H
	DB	05H
	DB	05H
	DB	05H
	DB	05H
	DB	08dH
	DB	016H
	DB	056H
	DB	0bH
	DB	01H
	DB	01H
	DB	01H
	DB	01H
	DB	05bH
	DB	078H
	DB	036H
	DB	05H
	DB	08fH
	DB	052H
	DB	026H
	DB	00H
	DB	00H
	DB	0fH
	DB	06H
	DB	074H
	DB	07H
	DB	08H
	DB	0fH
	DB	0fH
	DB	0fH
	DB	0fH
	DB	0fH
	DB	0fH
	DB	0fH
	DB	0fH
	DB	0fH
	DB	0fH
	DB	0fH
	DB	0fH
	DB	0fH
	DB	0fH
	DB	0fH
	DB	0fH
	DB	0fH
	DB	0fH
	DB	0fH
	DB	0fH
	DB	0fH
	DB	0fH
	DB	0fH
	DB	0fH
	DB	0fH
	DB	08dH
	DB	0abH
	DB	0cH
	DB	01H
	DB	01H
	DB	01H
	DB	01H
	DB	0bH
	DB	055H
	DB	05H
	DB	08H
	DB	08fH
	DB	051H
	DB	03aH
	DB	00H
	DB	00H
	DB	08H
	DB	06H
	DB	03eH
	DB	09H
	DB	091H
	DB	08H
	DB	08H
	DB	08H
	DB	08H
	DB	08H
	DB	08H
	DB	08H
	DB	08H
	DB	08H
	DB	08H
	DB	08H
	DB	08H
	DB	08H
	DB	08H
	DB	08H
	DB	08H
	DB	08H
	DB	08H
	DB	08H
	DB	08H
	DB	08H
	DB	08H
	DB	08H
	DB	08H
	DB	08H
	DB	08H
	DB	017H
	DB	022H
	DB	014H
	DB	01H
	DB	01H
	DB	01H
	DB	014H
	DB	01H
	DB	09aH
	DB	02aH
	DB	06H
	DB	02fH
	DB	021H
	DB	00H
	DB	00H
	DB	091H
	DB	035H
	DB	051H
	DB	09H
	DB	02H
	DB	02H
	DB	08cH
	DB	08cH
	DB	08cH
	DB	08cH
	DB	08cH
	DB	08cH
	DB	02aH
	DB	091H
	DB	091H
	DB	091H
	DB	091H
	DB	091H
	DB	091H
	DB	091H
	DB	091H
	DB	091H
	DB	091H
	DB	091H
	DB	091H
	DB	091H
	DB	091H
	DB	091H
	DB	091H
	DB	091H
	DB	091H
	DB	017H
	DB	075H
	DB	05bH
	DB	01H
	DB	01H
	DB	01H
	DB	01H
	DB	0cH
	DB	09dH
	DB	010H
	DB	06H
	DB	050H
	DB	07H
	DB	00H
	DB	00H
	DB	02H
	DB	04H
	DB	02fH
	DB	05H
	DB	08fH
	DB	091H
	DB	0c2H
	DB	0c3H
	DB	04eH
	DB	04eH
	DB	04eH
	DB	0c9H
	DB	09dH
	DB	010H
	DB	02H
	DB	02H
	DB	02H
	DB	02H
	DB	02H
	DB	02H
	DB	02H
	DB	02H
	DB	02H
	DB	02H
	DB	02H
	DB	02H
	DB	02H
	DB	02H
	DB	02H
	DB	02H
	DB	02H
	DB	017H
	DB	0beH
	DB	0cH
	DB	01H
	DB	01H
	DB	01H
	DB	01H
	DB	0cH
	DB	066H
	DB	010H
	DB	06H
	DB	04fH
	DB	09H
	DB	00H
	DB	00H
	DB	08fH
	DB	04H
	DB	073H
	DB	08H
	DB	010H
	DB	092H
	DB	043H
	DB	0cH
	DB	0cH
	DB	0cH
	DB	0cH
	DB	0cH
	DB	06eH
	DB	017H
	DB	08fH
	DB	08fH
	DB	08fH
	DB	08fH
	DB	08fH
	DB	08fH
	DB	08fH
	DB	08fH
	DB	08fH
	DB	08fH
	DB	08fH
	DB	08fH
	DB	08fH
	DB	08fH
	DB	08fH
	DB	08fH
	DB	08fH
	DB	017H
	DB	070H
	DB	0cH
	DB	01H
	DB	01H
	DB	01H
	DB	01H
	DB	0cH
	DB	066H
	DB	010H
	DB	04H
	DB	03dH
	DB	095H
	DB	00H
	DB	00H
	DB	06H
	DB	04H
	DB	03dH
	DB	08H
	DB	035H
	DB	061H
	DB	03fH
	DB	014H
	DB	01H
	DB	01H
	DB	01H
	DB	0cH
	DB	0ccH
	DB	029H
	DB	06H
	DB	06H
	DB	06H
	DB	06H
	DB	06H
	DB	06H
	DB	06H
	DB	06H
	DB	06H
	DB	06H
	DB	06H
	DB	06H
	DB	06H
	DB	06H
	DB	06H
	DB	06H
	DB	06H
	DB	017H
	DB	06eH
	DB	0cH
	DB	01H
	DB	01H
	DB	01H
	DB	01H
	DB	0cH
	DB	046H
	DB	035H
	DB	04H
	DB	03bH
	DB	0fH
	DB	00H
	DB	00H
	DB	06H
	DB	04H
	DB	049H
	DB	091H
	DB	06H
	DB	029H
	DB	056H
	DB	0bH
	DB	01H
	DB	01H
	DB	01H
	DB	0bH
	DB	07aH
	DB	029H
	DB	06H
	DB	06H
	DB	06H
	DB	06H
	DB	06H
	DB	06H
	DB	06H
	DB	06H
	DB	06H
	DB	06H
	DB	06H
	DB	06H
	DB	06H
	DB	06H
	DB	06H
	DB	06H
	DB	06H
	DB	029H
	DB	0bfH
	DB	0cH
	DB	01H
	DB	01H
	DB	01H
	DB	01H
	DB	05bH
	DB	064H
	DB	035H
	DB	04H
	DB	02dH
	DB	08H
	DB	00H
	DB	00H
	DB	035H
	DB	025H
	DB	02dH
	DB	08fH
	DB	04H
	DB	01cH
	DB	053H
	DB	0bH
	DB	01H
	DB	01H
	DB	01H
	DB	014H
	DB	03fH
	DB	05eH
	DB	05eH
	DB	035H
	DB	035H
	DB	035H
	DB	035H
	DB	035H
	DB	035H
	DB	035H
	DB	035H
	DB	035H
	DB	035H
	DB	035H
	DB	035H
	DB	035H
	DB	035H
	DB	035H
	DB	035H
	DB	01cH
	DB	079H
	DB	0bH
	DB	01H
	DB	01H
	DB	01H
	DB	014H
	DB	03fH
	DB	061H
	DB	05eH
	DB	025H
	DB	026H
	DB	02H
	DB	00H
	DB	00H
	DB	04H
	DB	03H
	DB	026H
	DB	06H
	DB	04H
	DB	01cH
	DB	06fH
	DB	0cH
	DB	01H
	DB	01H
	DB	01H
	DB	01H
	DB	0bH
	DB	0a6H
	DB	01cH
	DB	04H
	DB	04H
	DB	04H
	DB	04H
	DB	04H
	DB	04H
	DB	04H
	DB	04H
	DB	04H
	DB	04H
	DB	04H
	DB	04H
	DB	04H
	DB	04H
	DB	04H
	DB	025H
	DB	01cH
	DB	0cH
	DB	01H
	DB	01H
	DB	01H
	DB	01H
	DB	0bH
	DB	07aH
	DB	01cH
	DB	05eH
	DB	03H
	DB	021H
	DB	08fH
	DB	00H
	DB	00H
	DB	03H
	DB	03H
	DB	021H
	DB	04H
	DB	03H
	DB	012H
	DB	064H
	DB	0bH
	DB	01H
	DB	01H
	DB	01H
	DB	01H
	DB	05bH
	DB	0d0H
	DB	012H
	DB	03H
	DB	03H
	DB	03H
	DB	03H
	DB	03H
	DB	03H
	DB	03H
	DB	03H
	DB	03H
	DB	03H
	DB	03H
	DB	03H
	DB	03H
	DB	03H
	DB	03H
	DB	012H
	DB	0cbH
	DB	0cH
	DB	01H
	DB	01H
	DB	01H
	DB	01H
	DB	0cH
	DB	06fH
	DB	012H
	DB	03H
	DB	03H
	DB	09H
	DB	06H
	DB	00H
	DB	00H
	DB	03H
	DB	03H
	DB	09H
	DB	04H
	DB	03H
	DB	03H
	DB	03H
	DB	030H
	DB	0bH
	DB	01H
	DB	01H
	DB	01H
	DB	01H
	DB	0cH
	DB	044H
	DB	012H
	DB	03H
	DB	03H
	DB	03H
	DB	03H
	DB	03H
	DB	03H
	DB	03H
	DB	03H
	DB	03H
	DB	03H
	DB	03H
	DB	03H
	DB	03H
	DB	012H
	DB	068H
	DB	05bH
	DB	01H
	DB	01H
	DB	01H
	DB	01H
	DB	01H
	DB	0cH
	DB	03H
	DB	012H
	DB	03H
	DB	03H
	DB	0fH
	DB	04H
	DB	00H
	DB	00H
	DB	03H
	DB	00H
	DB	08H
	DB	03H
	DB	03H
	DB	03H
	DB	00H
	DB	0aaH
	DB	0cH
	DB	01H
	DB	01H
	DB	01H
	DB	01H
	DB	0bH
	DB	03fH
	DB	044H
	DB	00H
	DB	012H
	DB	03H
	DB	03H
	DB	03H
	DB	03H
	DB	03H
	DB	03H
	DB	03H
	DB	03H
	DB	012H
	DB	012H
	DB	00H
	DB	04aH
	DB	014H
	DB	014H
	DB	01H
	DB	01H
	DB	01H
	DB	01H
	DB	0cH
	DB	0d0H
	DB	00H
	DB	03H
	DB	03H
	DB	00H
	DB	02H
	DB	025H
	DB	00H
	DB	00H
	DB	00H
	DB	00H
	DB	08fH
	DB	03H
	DB	00H
	DB	00H
	DB	00H
	DB	00H
	DB	07bH
	DB	014H
	DB	043H
	DB	043H
	DB	043H
	DB	043H
	DB	034H
	DB	07bH
	DB	0b4H
	DB	00H
	DB	00H
	DB	00H
	DB	00H
	DB	00H
	DB	00H
	DB	00H
	DB	00H
	DB	00H
	DB	00H
	DB	060H
	DB	0cdH
	DB	0bH
	DB	014H
	DB	043H
	DB	043H
	DB	043H
	DB	043H
	DB	014H
	DB	0f5H
	DB	090H
	DB	00H
	DB	00H
	DB	00H
	DB	00H
	DB	06H
	DB	03H
	DB	00H
	DB	00H
	DB	00H
	DB	00H
	DB	04H
	DB	00H
	DB	00H
	DB	00H
	DB	00H
	DB	00H
	DB	0a3H
	DB	034H
	DB	019H
	DB	019H
	DB	019H
	DB	019H
	DB	019H
	DB	028H
	DB	05bH
	DB	0e7H
	DB	0c7H
	DB	0a5H
	DB	037H
	DB	05fH
	DB	05fH
	DB	087H
	DB	044H
	DB	0b6H
	DB	077H
	DB	0f8H
	DB	034H
	DB	019H
	DB	019H
	DB	019H
	DB	019H
	DB	019H
	DB	019H
	DB	05bH
	DB	0b1H
	DB	00H
	DB	00H
	DB	00H
	DB	00H
	DB	00H
	DB	03H
	DB	00H
	DB	00H
	DB	00H
	DB	00H
	DB	00H
	DB	00H
	DB	00H
	DB	00H
	DB	00H
	DB	00H
	DB	00H
	DB	00H
	DB	0c6H
	DB	07eH
	DB	024H
	DB	024H
	DB	024H
	DB	024H
	DB	024H
	DB	024H
	DB	05aH
	DB	01eH
	DB	01eH
	DB	01eH
	DB	01eH
	DB	01eH
	DB	01eH
	DB	01eH
	DB	01eH
	DB	028H
	DB	024H
	DB	024H
	DB	024H
	DB	024H
	DB	024H
	DB	024H
	DB	024H
	DB	07eH
	DB	0bcH
	DB	00H
	DB	00H
	DB	00H
	DB	00H
	DB	00H
	DB	03H
	DB	00H
	DB	00H
	DB	00H
	DB	00H
	DB	00H
	DB	00H
	DB	00H
	DB	00H
	DB	00H
	DB	00H
	DB	00H
	DB	00H
	DB	00H
	DB	00H
	DB	0d2H
	DB	033H
	DB	0f4H
	DB	011H
	DB	011H
	DB	011H
	DB	011H
	DB	011H
	DB	0f4H
	DB	0f4H
	DB	0f4H
	DB	0f4H
	DB	0f4H
	DB	0f4H
	DB	0f4H
	DB	0f4H
	DB	011H
	DB	011H
	DB	011H
	DB	011H
	DB	011H
	DB	011H
	DB	041H
	DB	07dH
	DB	0c8H
	DB	00H
	DB	00H
	DB	00H
	DB	00H
	DB	00H
	DB	00H
	DB	00H
	DB	00H
	DB	00H
	DB	00H
	DB	00H
	DB	00H
	DB	00H
	DB	00H
	DB	00H
	DB	00H
	DB	00H
	DB	00H
	DB	00H
	DB	00H
	DB	00H
	DB	00H
	DB	076H
	DB	07cH
	DB	031H
	DB	015H
	DB	015H
	DB	015H
	DB	015H
	DB	015H
	DB	015H
	DB	015H
	DB	015H
	DB	015H
	DB	015H
	DB	015H
	DB	015H
	DB	015H
	DB	015H
	DB	015H
	DB	015H
	DB	027H
	DB	042H
	DB	027H
	DB	0aeH
	DB	00H
	DB	00H
	DB	00H
	DB	00H
	DB	00H
	DB	00H
	DB	00H
	DB	00H
	DB	00H
	DB	00H
	DB	00H
	DB	00H
	DB	00H
	DB	00H
	DB	00H
	DB	00H
	DB	00H
	DB	00H
	DB	00H
	DB	00H
	DB	00H
	DB	00H
	DB	00H
	DB	00H
	DB	09cH
	DB	0e0H
	DB	057H
	DB	01aH
	DB	01dH
	DB	01dH
	DB	01fH
	DB	0aH
	DB	0aH
	DB	0aH
	DB	0aH
	DB	0aH
	DB	0aH
	DB	01fH
	DB	01dH
	DB	01dH
	DB	018H
	DB	058H
	DB	0edH
	DB	0d1H
	DB	00H
	DB	00H
	DB	00H
	DB	00H
	DB	00H
	DB	00H
	DB	00H
	DB	00H
	DB	00H
	DB	00H
	DB	00H
	DB	00H
	DB	00H
	DB	00H
	DB	00H
	DB	00H
	DB	00H
	DB	00H
	DB	00H
	DB	00H
	DB	00H
	DB	00H
	DB	00H
	DB	00H
	DB	00H
	DB	00H
	DB	00H
	DB	00H
	DB	09eH
	DB	076H
	DB	0ecH
	DB	0dH
	DB	01dH
	DB	01aH
	DB	01aH
	DB	01aH
	DB	01aH
	DB	01aH
	DB	01aH
	DB	018H
	DB	0dH
	DB	0efH
	DB	0deH
	DB	06cH
	DB	060H
	DB	00H
	DB	00H
	DB	00H
	DB	00H
	DB	00H
	DB	00H
	DB	00H
	DB	00H
	DB	00H
	DB	00H
	DB	00H
	DB	00H
	DB	00H
	DB	00H
	DB	00H
	DB	00H
	DB	00H
	DB	00H
	DB	00H
	DB	00H
	DB	00H
	DB	00H
	DB	00H
	DB	00H
	DB	00H
	DB	00H
	DB	00H
	DB	00H
	DB	00H
	DB	00H
	DB	00H
	DB	00H
	DB	045H
	DB	0a7H
	DB	03cH
	DB	04cH
	DB	04cH
	DB	04cH
	DB	04cH
	DB	03cH
	DB	0b0H
	DB	045H
	DB	084H
	DB	00H
	DB	00H
	DB	00H
	DB	00H
	DB	00H
	DB	00H
	DB	00H
	DB	00H
	DB	00H
	DB	00H
	DB	00H
	DB	00H
	DB	00H
	DB	00H
	DB	00H
	DB	00H
	DB	00H
	DB	00H
	DB	00H
	DB	00H
	DB	00H
	DB	00H
	DB	00H
	DB	00H
	DB	00H
	DB	00H
	DB	00H
	DB	00H
	DB	00H
	DB	00H
	DB	00H
	DB	00H
	DB	00H
	DB	00H
	DB	00H
	DB	00H
	DB	00H
	DB	00H
	DB	00H
	DB	00H
	DB	00H
	DB	00H
	DB	00H
	DB	00H
	DB	00H
	DB	00H
	DB	00H
	DB	00H
	DB	00H
	DB	00H
	DB	00H
	DB	00H
	DB	00H
	DB	00H
	DB	00H
	DB	00H
	DB	00H
	DB	00H
	DB	00H
	DB	00H
	DB	00H
	DB	00H
	DB	00H
	DB	03H
	DB	00H
	DB	00H
	DB	00H
	DB	00H
	DB	00H
	DB	00H
	DB	00H
	DB	00H
	DB	00H
	DB	00H
	DB	00H
	DB	00H
	DB	00H
	DB	00H
	DB	00H
	DB	00H
	DB	00H
	DB	00H
	DB	00H
	DB	00H
	DB	00H
	DB	00H
	DB	00H
	DB	00H
	DB	00H
	DB	00H
	DB	00H
	DB	00H
	DB	00H
	DB	00H
	DB	00H
	DB	00H
	DB	00H
	DB	00H
	DB	00H
	DB	00H
	DB	00H
	DB	00H
	DB	00H
	DB	00H
	DB	00H
	DB	00H
	DB	00H
	DB	00H
	DB	00H
	DB	035H
	DB	00H
	DB	00H
	DB	00H
	DB	00H
	DB	00H
	DB	00H
	DB	00H
	DB	00H
	DB	00H
	DB	00H
	DB	00H
	DB	00H
	DB	00H
	DB	00H
	DB	00H
	DB	00H
	DB	00H
	DB	00H
	DB	00H
	DB	00H
	DB	00H
	DB	00H
	DB	00H
	DB	00H
	DB	00H
	DB	00H
	DB	00H
	DB	00H
	DB	00H
	DB	00H
	DB	00H
	DB	00H
	DB	00H
	DB	00H
	DB	00H
	DB	00H
	DB	00H
	DB	00H
	DB	00H
	DB	00H
	DB	00H
	DB	00H
	DB	00H
	DB	00H
	DB	03H
	DB	06H
	DB	00H
	DB	00H
	DB	00H
	DB	00H
	DB	00H
	DB	00H
	DB	00H
	DB	00H
	DB	00H
	DB	00H
	DB	00H
	DB	00H
	DB	00H
	DB	00H
	DB	00H
	DB	00H
	DB	00H
	DB	00H
	DB	00H
	DB	00H
	DB	00H
	DB	00H
	DB	00H
	DB	00H
	DB	00H
	DB	00H
	DB	00H
	DB	00H
	DB	00H
	DB	00H
	DB	00H
	DB	00H
	DB	00H
	DB	00H
	DB	00H
	DB	00H
	DB	00H
	DB	00H
	DB	00H
	DB	00H
	DB	00H
	DB	00H
	DB	00H
	DB	00H
	DB	06H
	DB	06H
	DB	00H
	DB	00H
	DB	00H
	DB	00H
	DB	00H
	DB	00H
	DB	00H
	DB	00H
	DB	00H
	DB	00H
	DB	00H
	DB	00H
	DB	00H
	DB	00H
	DB	00H
	DB	00H
	DB	00H
	DB	00H
	DB	00H
	DB	00H
	DB	00H
	DB	00H
	DB	00H
	DB	00H
	DB	00H
	DB	00H
	DB	00H
	DB	00H
	DB	00H
	DB	00H
	DB	00H
	DB	00H
	DB	00H
	DB	00H
	DB	00H
	DB	00H
	DB	00H
	DB	00H
	DB	00H
	DB	00H
	DB	00H
	DB	00H
	DB	00H
	DB	03H
	DB	06H
	DB	06H
	DB	00H
	DB	00H
	DB	00H
	DB	00H
	DB	00H
	DB	00H
	DB	00H
	DB	00H
	DB	00H
	DB	00H
	DB	00H
	DB	00H
	DB	00H
	DB	00H
	DB	00H
	DB	00H
	DB	00H
	DB	00H
	DB	00H
	DB	00H
	DB	00H
	DB	00H
	DB	00H
	DB	00H
	DB	00H
	DB	00H
	DB	00H
	DB	00H
	DB	00H
	DB	00H
	DB	00H
	DB	00H
	DB	00H
	DB	00H
	DB	00H
	DB	00H
	DB	00H
	DB	00H
	DB	00H
	DB	00H
	DB	00H
	DB	00H
	DB	00H
	DB	035H
	DB	06H
	DB	06H
CONST	ENDS
END
