; Listing generated by Microsoft (R) Optimizing Compiler Version 16.00.40219.01 

	TITLE	C:\DUII\DUII\Graphics\Yellow_5.c
	.686P
	.XMM
	include listing.inc
	.model	flat

INCLUDELIB LIBCMT
INCLUDELIB OLDNAMES

PUBLIC	_bmYellow_5
EXTRN	_GUI_BitmapMethods555:BYTE
CONST	SEGMENT
_acYellow_5 DW	00H
	DW	00H
	DW	00H
	DW	00H
	DW	00H
	DW	00H
	DW	00H
	DW	00H
	DW	00H
	DW	00H
	DW	00H
	DW	00H
	DW	00H
	DW	00H
	DW	00H
	DW	00H
	DW	00H
	DW	00H
	DW	00H
	DW	00H
	DW	00H
	DW	00H
	DW	00H
	DW	00H
	DW	00H
	DW	00H
	DW	00H
	DW	00H
	DW	00H
	DW	00H
	DW	00H
	DW	00H
	DW	00H
	DW	00H
	DW	00H
	DW	00H
	DW	00H
	DW	00H
	DW	00H
	DW	00H
	DW	00H
	DW	00H
	DW	00H
	DW	00H
	DW	00H
	DW	00H
	DW	00H
	DW	00H
	DW	00H
	DW	00H
	DW	00H
	DW	00H
	DW	00H
	DW	00H
	DW	00H
	DW	00H
	DW	00H
	DW	00H
	DW	00H
	DW	00H
	DW	00H
	DW	00H
	DW	00H
	DW	00H
	DW	00H
	DW	00H
	DW	00H
	DW	00H
	DW	00H
	DW	00H
	DW	00H
	DW	00H
	DW	00H
	DW	00H
	DW	00H
	DW	00H
	DW	00H
	DW	00H
	DW	00H
	DW	00H
	DW	00H
	DW	00H
	DW	00H
	DW	00H
	DW	00H
	DW	00H
	DW	00H
	DW	00H
	DW	00H
	DW	00H
	DW	00H
	DW	00H
	DW	00H
	DW	00H
	DW	00H
	DW	00H
	DW	00H
	DW	00H
	DW	00H
	DW	00H
	DW	00H
	DW	00H
	DW	00H
	DW	00H
	DW	00H
	DW	00H
	DW	00H
	DW	00H
	DW	00H
	DW	00H
	DW	00H
	DW	00H
	DW	00H
	DW	00H
	DW	00H
	DW	00H
	DW	00H
	DW	00H
	DW	00H
	DW	00H
	DW	00H
	DW	00H
	DW	00H
	DW	00H
	DW	00H
	DW	00H
	DW	00H
	DW	00H
	DW	00H
	DW	00H
	DW	00H
	DW	00H
	DW	00H
	DW	00H
	DW	00H
	DW	00H
	DW	00H
	DW	00H
	DW	00H
	DW	00H
	DW	00H
	DW	00H
	DW	00H
	DW	00H
	DW	00H
	DW	00H
	DW	00H
	DW	00H
	DW	00H
	DW	00H
	DW	00H
	DW	00H
	DW	00H
	DW	00H
	DW	00H
	DW	00H
	DW	00H
	DW	00H
	DW	00H
	DW	00H
	DW	00H
	DW	00H
	DW	00H
	DW	00H
	DW	00H
	DW	00H
	DW	00H
	DW	00H
	DW	00H
	DW	00H
	DW	00H
	DW	00H
	DW	00H
	DW	00H
	DW	00H
	DW	00H
	DW	00H
	DW	00H
	DW	00H
	DW	00H
	DW	00H
	DW	00H
	DW	00H
	DW	00H
	DW	00H
	DW	00H
	DW	00H
	DW	00H
	DW	00H
	DW	00H
	DW	03ffH
	DW	03ffH
	DW	03ffH
	DW	03ffH
	DW	03ffH
	DW	03ffH
	DW	03ffH
	DW	03ffH
	DW	00H
	DW	00H
	DW	00H
	DW	00H
	DW	00H
	DW	00H
	DW	00H
	DW	00H
	DW	00H
	DW	00H
	DW	00H
	DW	00H
	DW	00H
	DW	00H
	DW	00H
	DW	00H
	DW	00H
	DW	00H
	DW	00H
	DW	00H
	DW	00H
	DW	00H
	DW	00H
	DW	00H
	DW	00H
	DW	00H
	DW	00H
	DW	00H
	DW	00H
	DW	00H
	DW	00H
	DW	00H
	DW	00H
	DW	00H
	DW	00H
	DW	00H
	DW	00H
	DW	03ffH
	DW	03ffH
	DW	00H
	DW	00H
	DW	00H
	DW	00H
	DW	00H
	DW	00H
	DW	00H
	DW	03ffH
	DW	03ffH
	DW	03ffH
	DW	03ffH
	DW	03ffH
	DW	03ffH
	DW	03ffH
	DW	03ffH
	DW	03ffH
	DW	03ffH
	DW	03ffH
	DW	03ffH
	DW	03ffH
	DW	03ffH
	DW	03ffH
	DW	03ffH
	DW	03ffH
	DW	00H
	DW	00H
	DW	00H
	DW	00H
	DW	00H
	DW	00H
	DW	00H
	DW	00H
	DW	00H
	DW	00H
	DW	00H
	DW	00H
	DW	00H
	DW	00H
	DW	00H
	DW	00H
	DW	00H
	DW	00H
	DW	00H
	DW	03ffH
	DW	00H
	DW	00H
	DW	00H
	DW	00H
	DW	03ffH
	DW	03ffH
	DW	03ffH
	DW	03ffH
	DW	03ffH
	DW	03ffH
	DW	03ffH
	DW	00H
	DW	00H
	DW	00H
	DW	00H
	DW	00H
	DW	00H
	DW	00H
	DW	00H
	DW	00H
	DW	00H
	DW	00H
	DW	00H
	DW	00H
	DW	00H
	DW	00H
	DW	03ffH
	DW	03ffH
	DW	03ffH
	DW	03ffH
	DW	00H
	DW	00H
	DW	00H
	DW	00H
	DW	00H
	DW	00H
	DW	00H
	DW	00H
	DW	00H
	DW	00H
	DW	00H
	DW	00H
	DW	00H
	DW	00H
	DW	00H
	DW	03ffH
	DW	00H
	DW	00H
	DW	00H
	DW	03ffH
	DW	03ffH
	DW	03ffH
	DW	00H
	DW	00H
	DW	00H
	DW	00H
	DW	00H
	DW	03ffH
	DW	03ffH
	DW	03ffH
	DW	03ffH
	DW	00H
	DW	00H
	DW	00H
	DW	00H
	DW	00H
	DW	00H
	DW	00H
	DW	00H
	DW	00H
	DW	03ffH
	DW	03ffH
	DW	03ffH
	DW	03ffH
	DW	03ffH
	DW	03ffH
	DW	03ffH
	DW	00H
	DW	00H
	DW	00H
	DW	00H
	DW	00H
	DW	00H
	DW	00H
	DW	00H
	DW	00H
	DW	00H
	DW	00H
	DW	00H
	DW	00H
	DW	00H
	DW	03ffH
	DW	00H
	DW	00H
	DW	03ffH
	DW	03ffH
	DW	03ffH
	DW	00H
	DW	03ffH
	DW	00H
	DW	00H
	DW	00H
	DW	00H
	DW	00H
	DW	00H
	DW	00H
	DW	00H
	DW	03ffH
	DW	03ffH
	DW	03ffH
	DW	03ffH
	DW	03ffH
	DW	03ffH
	DW	03ffH
	DW	03ffH
	DW	03ffH
	DW	03ffH
	DW	00H
	DW	00H
	DW	00H
	DW	00H
	DW	00H
	DW	00H
	DW	00H
	DW	00H
	DW	00H
	DW	00H
	DW	00H
	DW	00H
	DW	00H
	DW	00H
	DW	00H
	DW	00H
	DW	00H
	DW	00H
	DW	00H
	DW	00H
	DW	03ffH
	DW	00H
	DW	03ffH
	DW	03ffH
	DW	00H
	DW	03ffH
	DW	00H
	DW	00H
	DW	03ffH
	DW	03ffH
	DW	03ffH
	DW	00H
	DW	00H
	DW	00H
	DW	00H
	DW	00H
	DW	00H
	DW	00H
	DW	00H
	DW	00H
	DW	03ffH
	DW	03ffH
	DW	03ffH
	DW	00H
	DW	00H
	DW	03ffH
	DW	03ffH
	DW	03ffH
	DW	03ffH
	DW	03ffH
	DW	03ffH
	DW	03ffH
	DW	03ffH
	DW	00H
	DW	00H
	DW	00H
	DW	00H
	DW	00H
	DW	00H
	DW	00H
	DW	00H
	DW	00H
	DW	00H
	DW	00H
	DW	00H
	DW	00H
	DW	03ffH
	DW	00H
	DW	03ffH
	DW	00H
	DW	00H
	DW	03ffH
	DW	00H
	DW	00H
	DW	00H
	DW	00H
	DW	00H
	DW	03ffH
	DW	03ffH
	DW	00H
	DW	00H
	DW	00H
	DW	00H
	DW	00H
	DW	03ffH
	DW	03ffH
	DW	00H
	DW	00H
	DW	00H
	DW	00H
	DW	00H
	DW	00H
	DW	00H
	DW	00H
	DW	00H
	DW	00H
	DW	00H
	DW	00H
	DW	00H
	DW	00H
	DW	00H
	DW	00H
	DW	00H
	DW	00H
	DW	00H
	DW	00H
	DW	00H
	DW	00H
	DW	00H
	DW	00H
	DW	00H
	DW	00H
	DW	03ffH
	DW	03ffH
	DW	00H
	DW	00H
	DW	00H
	DW	03ffH
	DW	00H
	DW	00H
	DW	00H
	DW	00H
	DW	00H
	DW	00H
	DW	00H
	DW	03ffH
	DW	03ffH
	DW	03ffH
	DW	03ffH
	DW	03ffH
	DW	03ffH
	DW	00H
	DW	00H
	DW	00H
	DW	00H
	DW	00H
	DW	00H
	DW	00H
	DW	00H
	DW	00H
	DW	00H
	DW	00H
	DW	00H
	DW	00H
	DW	00H
	DW	00H
	DW	00H
	DW	00H
	DW	00H
	DW	00H
	DW	00H
	DW	00H
	DW	00H
	DW	00H
	DW	00H
	DW	00H
	DW	0421H
	DW	00H
	DW	03ffH
	DW	03ffH
	DW	00H
	DW	00H
	DW	00H
	DW	03ffH
	DW	00H
	DW	00H
	DW	00H
	DW	00H
	DW	00H
	DW	00H
	DW	00H
	DW	00H
	DW	00H
	DW	00H
	DW	00H
	DW	00H
	DW	00H
	DW	00H
	DW	00H
	DW	00H
	DW	00H
	DW	00H
	DW	00H
	DW	00H
	DW	00H
	DW	00H
	DW	00H
	DW	00H
	DW	00H
	DW	00H
	DW	00H
	DW	00H
	DW	00H
	DW	00H
	DW	00H
	DW	00H
	DW	00H
	DW	00H
	DW	00H
	DW	00H
	DW	00H
	DW	00H
	DW	0421H
	DW	00H
	DW	03ffH
	DW	03ffH
	DW	00H
	DW	00H
	DW	03ffH
	DW	00H
	DW	00H
	DW	00H
	DW	00H
	DW	00H
	DW	00H
	DW	00H
	DW	00H
	DW	00H
	DW	00H
	DW	00H
	DW	00H
	DW	00H
	DW	00H
	DW	00H
	DW	00H
	DW	00H
	DW	00H
	DW	00H
	DW	00H
	DW	00H
	DW	00H
	DW	00H
	DW	00H
	DW	00H
	DW	00H
	DW	00H
	DW	00H
	DW	00H
	DW	00H
	DW	00H
	DW	00H
	DW	00H
	DW	0421H
	DW	00H
	DW	00H
	DW	00H
	DW	00H
	DW	00H
	DW	0842H
	DW	00H
	DW	03ffH
	DW	03ffH
	DW	00H
	DW	00H
	DW	03ffH
	DW	00H
	DW	00H
	DW	00H
	DW	00H
	DW	00H
	DW	00H
	DW	00H
	DW	00H
	DW	00H
	DW	00H
	DW	00H
	DW	00H
	DW	00H
	DW	00H
	DW	00H
	DW	00H
	DW	00H
	DW	00H
	DW	00H
	DW	00H
	DW	00H
	DW	00H
	DW	00H
	DW	00H
	DW	00H
	DW	00H
	DW	00H
	DW	00H
	DW	00H
	DW	00H
	DW	00H
	DW	00H
	DW	00H
	DW	0842H
	DW	00H
	DW	00H
	DW	00H
	DW	00H
	DW	00H
	DW	0c63H
	DW	00H
	DW	03ffH
	DW	03ffH
	DW	00H
	DW	00H
	DW	03ffH
	DW	00H
	DW	00H
	DW	00H
	DW	00H
	DW	00H
	DW	00H
	DW	00H
	DW	00H
	DW	00H
	DW	00H
	DW	00H
	DW	00H
	DW	00H
	DW	00H
	DW	00H
	DW	00H
	DW	00H
	DW	00H
	DW	00H
	DW	00H
	DW	00H
	DW	00H
	DW	00H
	DW	00H
	DW	00H
	DW	00H
	DW	00H
	DW	00H
	DW	00H
	DW	00H
	DW	00H
	DW	00H
	DW	00H
	DW	0842H
	DW	0421H
	DW	00H
	DW	00H
	DW	00H
	DW	00H
	DW	01084H
	DW	00H
	DW	03ffH
	DW	03ffH
	DW	00H
	DW	00H
	DW	03ffH
	DW	00H
	DW	00H
	DW	00H
	DW	00H
	DW	00H
	DW	00H
	DW	00H
	DW	00H
	DW	00H
	DW	00H
	DW	00H
	DW	00H
	DW	00H
	DW	00H
	DW	00H
	DW	00H
	DW	00H
	DW	00H
	DW	00H
	DW	00H
	DW	00H
	DW	00H
	DW	00H
	DW	00H
	DW	00H
	DW	00H
	DW	00H
	DW	00H
	DW	00H
	DW	00H
	DW	00H
	DW	00H
	DW	00H
	DW	0c63H
	DW	0421H
	DW	00H
	DW	00H
	DW	00H
	DW	00H
	DW	014a5H
	DW	0421H
	DW	03ffH
	DW	03ffH
	DW	00H
	DW	00H
	DW	03ffH
	DW	00H
	DW	00H
	DW	00H
	DW	00H
	DW	0421H
	DW	00H
	DW	00H
	DW	00H
	DW	00H
	DW	00H
	DW	00H
	DW	00H
	DW	00H
	DW	00H
	DW	00H
	DW	00H
	DW	00H
	DW	00H
	DW	00H
	DW	00H
	DW	00H
	DW	00H
	DW	00H
	DW	00H
	DW	00H
	DW	00H
	DW	00H
	DW	00H
	DW	00H
	DW	00H
	DW	00H
	DW	00H
	DW	00H
	DW	01084H
	DW	0421H
	DW	00H
	DW	00H
	DW	00H
	DW	00H
	DW	018c6H
	DW	0421H
	DW	03ffH
	DW	03ffH
	DW	0421H
	DW	00H
	DW	03ffH
	DW	00H
	DW	0421H
	DW	00H
	DW	00H
	DW	0421H
	DW	00H
	DW	00H
	DW	00H
	DW	0421H
	DW	00H
	DW	00H
	DW	00H
	DW	00H
	DW	00H
	DW	00H
	DW	00H
	DW	00H
	DW	00H
	DW	00H
	DW	00H
	DW	00H
	DW	00H
	DW	00H
	DW	00H
	DW	00H
	DW	00H
	DW	00H
	DW	00H
	DW	00H
	DW	00H
	DW	00H
	DW	00H
	DW	00H
	DW	014a5H
	DW	0842H
	DW	00H
	DW	00H
	DW	00H
	DW	00H
	DW	01ce7H
	DW	0421H
	DW	03ffH
	DW	00H
	DW	03ffH
	DW	00H
	DW	03ffH
	DW	00H
	DW	0421H
	DW	00H
	DW	00H
	DW	0421H
	DW	00H
	DW	00H
	DW	00H
	DW	0421H
	DW	00H
	DW	00H
	DW	00H
	DW	00H
	DW	00H
	DW	00H
	DW	00H
	DW	00H
	DW	00H
	DW	00H
	DW	00H
	DW	00H
	DW	00H
	DW	00H
	DW	00H
	DW	00H
	DW	00H
	DW	00H
	DW	00H
	DW	00H
	DW	00H
	DW	00H
	DW	00H
	DW	00H
	DW	018c6H
	DW	0842H
	DW	00H
	DW	00H
	DW	0421H
	DW	00H
	DW	02529H
	DW	0842H
	DW	03ffH
	DW	0400H
	DW	03ffH
	DW	00H
	DW	03ffH
	DW	00H
	DW	0421H
	DW	00H
	DW	00H
	DW	0842H
	DW	00H
	DW	0400H
	DW	0400H
	DW	0421H
	DW	00H
	DW	0421H
	DW	00H
	DW	00H
	DW	00H
	DW	00H
	DW	00H
	DW	00H
	DW	00H
	DW	00H
	DW	00H
	DW	00H
	DW	00H
	DW	00H
	DW	00H
	DW	00H
	DW	00H
	DW	00H
	DW	00H
	DW	00H
	DW	00H
	DW	00H
	DW	0421H
	DW	00H
	DW	01ce7H
	DW	0c63H
	DW	00H
	DW	00H
	DW	0421H
	DW	00H
	DW	0294aH
	DW	0842H
	DW	03ffH
	DW	0421H
	DW	03ffH
	DW	00H
	DW	03ffH
	DW	0400H
	DW	0842H
	DW	00H
	DW	0400H
	DW	0842H
	DW	0421H
	DW	0421H
	DW	0400H
	DW	0842H
	DW	00H
	DW	0421H
	DW	00H
	DW	00H
	DW	00H
	DW	00H
	DW	00H
	DW	00H
	DW	00H
	DW	00H
	DW	00H
	DW	00H
	DW	00H
	DW	00H
	DW	00H
	DW	00H
	DW	00H
	DW	00H
	DW	00H
	DW	00H
	DW	00H
	DW	00H
	DW	0421H
	DW	00H
	DW	02108H
	DW	0c63H
	DW	00H
	DW	00H
	DW	0421H
	DW	00H
	DW	02d6bH
	DW	0842H
	DW	03ffH
	DW	0421H
	DW	03ffH
	DW	03ffH
	DW	0421H
	DW	0400H
	DW	0842H
	DW	0421H
	DW	0421H
	DW	0842H
	DW	0421H
	DW	0421H
	DW	0421H
	DW	0842H
	DW	0421H
	DW	0421H
	DW	00H
	DW	00H
	DW	0421H
	DW	00H
	DW	00H
	DW	00H
	DW	00H
	DW	00H
	DW	00H
	DW	00H
	DW	00H
	DW	00H
	DW	0421H
	DW	00H
	DW	00H
	DW	00H
	DW	00H
	DW	00H
	DW	00H
	DW	00H
	DW	0421H
	DW	00H
	DW	02529H
	DW	0c63H
	DW	00H
	DW	00H
	DW	0842H
	DW	00H
	DW	035adH
	DW	0c63H
	DW	03ffH
	DW	0842H
	DW	03ffH
	DW	03ffH
	DW	0421H
	DW	0421H
	DW	0842H
	DW	0421H
	DW	0421H
	DW	0c63H
	DW	0421H
	DW	0842H
	DW	0821H
	DW	0842H
	DW	0421H
	DW	0842H
	DW	00H
	DW	0400H
	DW	0421H
	DW	00H
	DW	00H
	DW	0421H
	DW	00H
	DW	00H
	DW	00H
	DW	0421H
	DW	00H
	DW	00H
	DW	0421H
	DW	00H
	DW	00H
	DW	00H
	DW	0421H
	DW	00H
	DW	00H
	DW	00H
	DW	0842H
	DW	0421H
	DW	02d6bH
	DW	01084H
	DW	00H
	DW	00H
	DW	0842H
	DW	0421H
	DW	039ceH
	DW	0c63H
	DW	03ffH
	DW	0842H
	DW	03ffH
	DW	03ffH
	DW	0842H
	DW	0821H
	DW	0c63H
	DW	0421H
	DW	0842H
	DW	0c63H
	DW	0842H
	DW	0842H
	DW	0842H
	DW	0c63H
	DW	0421H
	DW	0842H
	DW	0421H
	DW	0421H
	DW	0421H
	DW	00H
	DW	00H
	DW	0421H
	DW	00H
	DW	00H
	DW	00H
	DW	0421H
	DW	00H
	DW	00H
	DW	0421H
	DW	00H
	DW	00H
	DW	00H
	DW	0421H
	DW	00H
	DW	00H
	DW	00H
	DW	0842H
	DW	0421H
	DW	0318cH
	DW	01084H
	DW	00H
	DW	00H
	DW	0842H
	DW	0421H
	DW	03defH
	DW	01084H
	DW	03ffH
	DW	0842H
	DW	03ffH
	DW	03ffH
	DW	0842H
	DW	0842H
	DW	0c63H
	DW	0842H
	DW	0842H
	DW	0842H
	DW	0842H
	DW	0842H
	DW	0c63H
	DW	0c63H
	DW	0842H
	DW	0842H
	DW	0421H
	DW	0421H
	DW	0842H
	DW	00H
	DW	0400H
	DW	0421H
	DW	00H
	DW	00H
	DW	00H
	DW	03ffH
	DW	03ffH
	DW	03ffH
	DW	03ffH
	DW	03ffH
	DW	03ffH
	DW	0400H
	DW	0421H
	DW	00H
	DW	00H
	DW	00H
	DW	0c42H
	DW	0421H
	DW	035adH
	DW	014a5H
	DW	00H
	DW	00H
	DW	0c63H
	DW	0421H
	DW	04631H
	DW	01084H
	DW	03ffH
	DW	03ffH
	DW	03ffH
	DW	03ffH
	DW	0c63H
	DW	0c63H
	DW	0c63H
	DW	0c63H
	DW	0c63H
	DW	0c63H
	DW	0c63H
	DW	0c63H
	DW	0c63H
	DW	0c63H
	DW	0c63H
	DW	0c63H
	DW	0421H
	DW	0842H
	DW	0842H
	DW	03ffH
	DW	03ffH
	DW	03ffH
	DW	03ffH
	DW	03ffH
	DW	03ffH
	DW	03ffH
	DW	03ffH
	DW	03ffH
	DW	03ffH
	DW	03ffH
	DW	03ffH
	DW	03ffH
	DW	03ffH
	DW	03ffH
	DW	03ffH
	DW	03ffH
	DW	0c62H
	DW	0421H
	DW	039ceH
	DW	014a5H
	DW	00H
	DW	00H
	DW	0c63H
	DW	0421H
	DW	04e73H
	DW	014a5H
	DW	0c63H
	DW	03ffH
	DW	0c63H
	DW	03ffH
	DW	0c63H
	DW	0c63H
	DW	0c63H
	DW	0c63H
	DW	0c63H
	DW	0c63H
	DW	0c63H
	DW	0c63H
	DW	0c63H
	DW	0c63H
	DW	0c63H
	DW	0c63H
	DW	0842H
	DW	03ffH
	DW	03ffH
	DW	03ffH
	DW	0421H
	DW	0842H
	DW	0421H
	DW	0421H
	DW	0400H
	DW	0842H
	DW	0421H
	DW	0421H
	DW	0842H
	DW	0421H
	DW	0421H
	DW	0421H
	DW	0842H
	DW	03ffH
	DW	03ffH
	DW	0400H
	DW	03ffH
	DW	0842H
	DW	04210H
	DW	018c6H
	DW	00H
	DW	00H
	DW	0c63H
	DW	0421H
	DW	06b5aH
	DW	018a5H
	DW	0c63H
	DW	03ffH
	DW	0c63H
	DW	03ffH
	DW	0c63H
	DW	0c63H
	DW	0c63H
	DW	0c63H
	DW	0c63H
	DW	0c63H
	DW	0c63H
	DW	0c63H
	DW	01084H
	DW	01084H
	DW	01084H
	DW	03ffH
	DW	03ffH
	DW	03ffH
	DW	0c63H
	DW	03ffH
	DW	03ffH
	DW	03ffH
	DW	03ffH
	DW	03ffH
	DW	03ffH
	DW	03ffH
	DW	03ffH
	DW	03ffH
	DW	03ffH
	DW	0421H
	DW	0842H
	DW	0821H
	DW	0842H
	DW	0421H
	DW	03ffH
	DW	03ffH
	DW	01063H
	DW	03ffH
	DW	056b5H
	DW	02108H
	DW	00H
	DW	00H
	DW	01084H
	DW	0421H
	DW	07fffH
	DW	018c6H
	DW	0c63H
	DW	03ffH
	DW	01084H
	DW	03ffH
	DW	01084H
	DW	01084H
	DW	01084H
	DW	01084H
	DW	01084H
	DW	01084H
	DW	01084H
	DW	0c63H
	DW	01084H
	DW	03ffH
	DW	03ffH
	DW	03ffH
	DW	03ffH
	DW	03ffH
	DW	03ffH
	DW	0842H
	DW	0842H
	DW	0c63H
	DW	0421H
	DW	0842H
	DW	0821H
	DW	0c63H
	DW	0421H
	DW	0842H
	DW	0c63H
	DW	03ffH
	DW	03ffH
	DW	0842H
	DW	0c63H
	DW	0421H
	DW	0842H
	DW	03ffH
	DW	03ffH
	DW	03ffH
	DW	06739H
	DW	0294aH
	DW	00H
	DW	00H
	DW	01084H
	DW	0421H
	DW	07fffH
	DW	01ce7H
	DW	0c63H
	DW	03ffH
	DW	03ffH
	DW	03ffH
	DW	01084H
	DW	01084H
	DW	01084H
	DW	01084H
	DW	01084H
	DW	01084H
	DW	01084H
	DW	0c63H
	DW	03ffH
	DW	03ffH
	DW	03ffH
	DW	01084H
	DW	01084H
	DW	01084H
	DW	01084H
	DW	0842H
	DW	0842H
	DW	0c63H
	DW	0842H
	DW	0842H
	DW	0842H
	DW	0c63H
	DW	0842H
	DW	0842H
	DW	0842H
	DW	0842H
	DW	0842H
	DW	03ffH
	DW	03ffH
	DW	0842H
	DW	0842H
	DW	0842H
	DW	03ffH
	DW	03ffH
	DW	06f7bH
	DW	02d6bH
	DW	00H
	DW	00H
	DW	01084H
	DW	0421H
	DW	07fffH
	DW	01ce7H
	DW	0c63H
	DW	01084H
	DW	03ffH
	DW	03ffH
	DW	01084H
	DW	01084H
	DW	01084H
	DW	01084H
	DW	01084H
	DW	01084H
	DW	03ffH
	DW	03ffH
	DW	03ffH
	DW	03ffH
	DW	01084H
	DW	01084H
	DW	01084H
	DW	01084H
	DW	01084H
	DW	01084H
	DW	01084H
	DW	01084H
	DW	01084H
	DW	0c63H
	DW	01084H
	DW	01084H
	DW	01084H
	DW	01084H
	DW	01084H
	DW	01084H
	DW	01084H
	DW	01084H
	DW	01084H
	DW	03ffH
	DW	01084H
	DW	01084H
	DW	01063H
	DW	03ffH
	DW	06b5aH
	DW	0294aH
	DW	00H
	DW	00H
	DW	01084H
	DW	0421H
	DW	06f7bH
	DW	018c6H
	DW	0c63H
	DW	01084H
	DW	01084H
	DW	03ffH
	DW	01084H
	DW	01084H
	DW	01084H
	DW	01084H
	DW	03ffH
	DW	03ffH
	DW	01084H
	DW	03ffH
	DW	03ffH
	DW	0c63H
	DW	0c63H
	DW	0c63H
	DW	0c63H
	DW	0c63H
	DW	0c63H
	DW	0c63H
	DW	0c63H
	DW	0c63H
	DW	0c63H
	DW	0c63H
	DW	0c63H
	DW	0c63H
	DW	0c63H
	DW	0c63H
	DW	0c63H
	DW	0c63H
	DW	0c63H
	DW	0c63H
	DW	0c63H
	DW	03ffH
	DW	03ffH
	DW	0c63H
	DW	0c63H
	DW	03ffH
	DW	05ad6H
	DW	02529H
	DW	00H
	DW	00H
	DW	0c63H
	DW	0842H
	DW	05ad6H
	DW	014a5H
	DW	0c63H
	DW	0c63H
	DW	0c63H
	DW	03ffH
	DW	0c63H
	DW	0c63H
	DW	0c63H
	DW	03ffH
	DW	03ffH
	DW	0c63H
	DW	03ffH
	DW	03ffH
	DW	0c63H
	DW	0c63H
	DW	0c63H
	DW	0c63H
	DW	0c63H
	DW	0c63H
	DW	0c63H
	DW	0c63H
	DW	0c63H
	DW	0c63H
	DW	0c63H
	DW	0c63H
	DW	0c63H
	DW	0c63H
	DW	0c63H
	DW	0c63H
	DW	0c63H
	DW	0c63H
	DW	0c63H
	DW	0c63H
	DW	0c63H
	DW	0c63H
	DW	03ffH
	DW	0c63H
	DW	0c63H
	DW	03ffH
	DW	04a52H
	DW	01ce7H
	DW	00H
	DW	00H
	DW	0c63H
	DW	0421H
	DW	04631H
	DW	01084H
	DW	0c63H
	DW	0c63H
	DW	0c63H
	DW	03ffH
	DW	03ffH
	DW	0c63H
	DW	03ffH
	DW	03ffH
	DW	03ffH
	DW	03ffH
	DW	03ffH
	DW	0842H
	DW	0c63H
	DW	0c63H
	DW	0c63H
	DW	0c63H
	DW	0c63H
	DW	0c63H
	DW	0c63H
	DW	0c63H
	DW	0c63H
	DW	0c63H
	DW	0c63H
	DW	0842H
	DW	0c63H
	DW	0c63H
	DW	0c63H
	DW	0c63H
	DW	0c63H
	DW	0c63H
	DW	0c63H
	DW	0c63H
	DW	0c63H
	DW	0c63H
	DW	0c63H
	DW	03ffH
	DW	0c63H
	DW	03ffH
	DW	039ceH
	DW	014a5H
	DW	00H
	DW	00H
	DW	0c63H
	DW	0421H
	DW	04210H
	DW	01084H
	DW	0842H
	DW	0c63H
	DW	0c63H
	DW	03ffH
	DW	03ffH
	DW	03ffH
	DW	03ffH
	DW	03ffH
	DW	0c63H
	DW	03ffH
	DW	0c63H
	DW	0842H
	DW	0843H
	DW	0843H
	DW	0843H
	DW	0843H
	DW	0843H
	DW	0843H
	DW	0843H
	DW	0843H
	DW	0843H
	DW	0843H
	DW	0843H
	DW	0842H
	DW	0843H
	DW	0843H
	DW	0843H
	DW	0843H
	DW	0843H
	DW	0843H
	DW	0843H
	DW	0843H
	DW	0843H
	DW	0843H
	DW	0843H
	DW	03ffH
	DW	0843H
	DW	03ffH
	DW	035adH
	DW	014a5H
	DW	00H
	DW	00H
	DW	0843H
	DW	0421H
	DW	03defH
	DW	01084H
	DW	0842H
	DW	0843H
	DW	0843H
	DW	0843H
	DW	03ffH
	DW	0843H
	DW	0843H
	DW	0843H
	DW	0843H
	DW	03ffH
	DW	0843H
	DW	0842H
	DW	0842H
	DW	0842H
	DW	0842H
	DW	0842H
	DW	0821H
	DW	0842H
	DW	0842H
	DW	0421H
	DW	0442H
	DW	0c63H
	DW	0821H
	DW	0842H
	DW	0421H
	DW	0842H
	DW	0842H
	DW	0842H
	DW	0842H
	DW	0842H
	DW	0842H
	DW	0842H
	DW	0842H
	DW	0842H
	DW	0842H
	DW	03ffH
	DW	0842H
	DW	03ffH
	DW	0318cH
	DW	014a5H
	DW	00H
	DW	00H
	DW	0842H
	DW	0421H
	DW	039ceH
	DW	0c63H
	DW	0842H
	DW	0842H
	DW	0c63H
	DW	0821H
	DW	03ffH
	DW	0842H
	DW	0842H
	DW	0842H
	DW	0842H
	DW	03ffH
	DW	0842H
	DW	0842H
	DW	0842H
	DW	0842H
	DW	0842H
	DW	0842H
	DW	0421H
	DW	0842H
	DW	0842H
	DW	0421H
	DW	0400H
	DW	0842H
	DW	0421H
	DW	0842H
	DW	0421H
	DW	0c63H
	DW	0821H
	DW	0842H
	DW	0842H
	DW	0842H
	DW	0842H
	DW	0842H
	DW	0842H
	DW	0842H
	DW	0c63H
	DW	03ffH
	DW	0842H
	DW	03ffH
	DW	02d6bH
	DW	01084H
	DW	00H
	DW	00H
	DW	0842H
	DW	0421H
	DW	0318cH
	DW	0c63H
	DW	0842H
	DW	0842H
	DW	0842H
	DW	0421H
	DW	03ffH
	DW	0800H
	DW	0800H
	DW	0c63H
	DW	0821H
	DW	03ffH
	DW	0842H
	DW	0842H
	DW	0842H
	DW	0842H
	DW	0842H
	DW	0842H
	DW	0421H
	DW	0442H
	DW	0421H
	DW	0421H
	DW	0400H
	DW	0842H
	DW	0421H
	DW	0842H
	DW	0421H
	DW	0842H
	DW	0421H
	DW	0842H
	DW	0421H
	DW	0421H
	DW	0421H
	DW	0c63H
	DW	0821H
	DW	0842H
	DW	0842H
	DW	03ffH
	DW	0821H
	DW	03ffH
	DW	0294aH
	DW	01084H
	DW	00H
	DW	00H
	DW	0842H
	DW	0421H
	DW	02d6bH
	DW	0c63H
	DW	0821H
	DW	0842H
	DW	0842H
	DW	0421H
	DW	03ffH
	DW	0c63H
	DW	0821H
	DW	0842H
	DW	03ffH
	DW	0842H
	DW	0842H
	DW	0842H
	DW	0842H
	DW	0842H
	DW	0842H
	DW	0842H
	DW	0421H
	DW	0400H
	DW	0421H
	DW	0421H
	DW	0400H
	DW	0842H
	DW	0421H
	DW	0421H
	DW	0421H
	DW	0842H
	DW	0421H
	DW	0442H
	DW	0421H
	DW	0421H
	DW	0421H
	DW	0842H
	DW	0421H
	DW	0842H
	DW	0842H
	DW	03ffH
	DW	0821H
	DW	03ffH
	DW	02529H
	DW	0c63H
	DW	00H
	DW	00H
	DW	0842H
	DW	0421H
	DW	0294aH
	DW	0842H
	DW	0421H
	DW	0842H
	DW	0842H
	DW	0421H
	DW	0400H
	DW	03ffH
	DW	0421H
	DW	0842H
	DW	03ffH
	DW	0c63H
	DW	0821H
	DW	0842H
	DW	0842H
	DW	0842H
	DW	0842H
	DW	0842H
	DW	0421H
	DW	0400H
	DW	0421H
	DW	00H
	DW	00H
	DW	0421H
	DW	0421H
	DW	0421H
	DW	0421H
	DW	0842H
	DW	0421H
	DW	0400H
	DW	0c63H
	DW	0821H
	DW	0842H
	DW	0842H
	DW	0421H
	DW	0442H
	DW	0842H
	DW	03ffH
	DW	0821H
	DW	03ffH
	DW	02108H
	DW	0c63H
	DW	00H
	DW	00H
	DW	0421H
	DW	0421H
	DW	02108H
	DW	0842H
	DW	0421H
	DW	0442H
	DW	0421H
	DW	0421H
	DW	0400H
	DW	03ffH
	DW	03ffH
	DW	03ffH
	DW	03ffH
	DW	0842H
	DW	0421H
	DW	0842H
	DW	0421H
	DW	0421H
	DW	0421H
	DW	0c63H
	DW	0421H
	DW	0400H
	DW	0421H
	DW	00H
	DW	00H
	DW	0421H
	DW	0421H
	DW	0421H
	DW	00H
	DW	0421H
	DW	0421H
	DW	0400H
	DW	0842H
	DW	0421H
	DW	0842H
	DW	0842H
	DW	0421H
	DW	0400H
	DW	0421H
	DW	03ffH
	DW	03ffH
	DW	03ffH
	DW	01ce7H
	DW	0842H
	DW	00H
	DW	00H
	DW	0421H
	DW	0421H
	DW	01ce7H
	DW	0842H
	DW	0421H
	DW	0400H
	DW	0421H
	DW	0421H
	DW	0400H
	DW	0842H
	DW	0421H
	DW	0421H
	DW	0421H
	DW	0842H
	DW	0421H
	DW	0442H
	DW	0421H
	DW	0421H
	DW	0421H
	DW	0842H
	DW	00H
	DW	00H
	DW	00H
	DW	00H
	DW	00H
	DW	0421H
	DW	00H
	DW	0421H
	DW	00H
	DW	0421H
	DW	0421H
	DW	0400H
	DW	0842H
	DW	0421H
	DW	0442H
	DW	0421H
	DW	0421H
	DW	0400H
	DW	0421H
	DW	03ffH
	DW	03ffH
	DW	03ffH
	DW	018c6H
	DW	0842H
	DW	00H
	DW	00H
	DW	0421H
	DW	00H
	DW	018c6H
	DW	0421H
	DW	0421H
	DW	0400H
	DW	0421H
	DW	00H
	DW	00H
	DW	0421H
	DW	0421H
	DW	0421H
	DW	0421H
	DW	0842H
	DW	0421H
	DW	0400H
	DW	0c63H
	DW	0821H
	DW	0842H
	DW	0842H
	DW	00H
	DW	00H
	DW	00H
	DW	00H
	DW	00H
	DW	0421H
	DW	00H
	DW	00H
	DW	00H
	DW	0421H
	DW	00H
	DW	00H
	DW	0842H
	DW	0421H
	DW	0400H
	DW	0421H
	DW	0421H
	DW	0400H
	DW	03ffH
	DW	00H
	DW	03ffH
	DW	03ffH
	DW	014a5H
	DW	0842H
	DW	00H
	DW	00H
	DW	0421H
	DW	00H
	DW	014a5H
	DW	0421H
	DW	0421H
	DW	0400H
	DW	0421H
	DW	00H
	DW	00H
	DW	0421H
	DW	0421H
	DW	0421H
	DW	00H
	DW	0421H
	DW	0421H
	DW	0400H
	DW	0842H
	DW	0421H
	DW	0842H
	DW	0842H
	DW	00H
	DW	00H
	DW	00H
	DW	00H
	DW	00H
	DW	00H
	DW	00H
	DW	00H
	DW	00H
	DW	0421H
	DW	00H
	DW	00H
	DW	0421H
	DW	0421H
	DW	0400H
	DW	0421H
	DW	00H
	DW	03ffH
	DW	03ffH
	DW	00H
	DW	03ffH
	DW	03ffH
	DW	01084H
	DW	0421H
	DW	00H
	DW	00H
	DW	00H
	DW	00H
	DW	01084H
	DW	0421H
	DW	00H
	DW	00H
	DW	00H
	DW	00H
	DW	00H
	DW	0421H
	DW	00H
	DW	0421H
	DW	00H
	DW	0421H
	DW	0421H
	DW	0400H
	DW	0842H
	DW	0421H
	DW	0442H
	DW	0421H
	DW	00H
	DW	00H
	DW	00H
	DW	00H
	DW	00H
	DW	00H
	DW	00H
	DW	00H
	DW	00H
	DW	00H
	DW	00H
	DW	00H
	DW	0421H
	DW	0421H
	DW	0400H
	DW	0421H
	DW	03ffH
	DW	03ffH
	DW	00H
	DW	00H
	DW	03ffH
	DW	03ffH
	DW	0c63H
	DW	0421H
	DW	00H
	DW	00H
	DW	00H
	DW	00H
	DW	0c63H
	DW	0421H
	DW	00H
	DW	00H
	DW	00H
	DW	00H
	DW	03ffH
	DW	03ffH
	DW	03ffH
	DW	00H
	DW	00H
	DW	0421H
	DW	00H
	DW	00H
	DW	0842H
	DW	0421H
	DW	0400H
	DW	0421H
	DW	00H
	DW	00H
	DW	00H
	DW	00H
	DW	00H
	DW	00H
	DW	00H
	DW	00H
	DW	00H
	DW	00H
	DW	00H
	DW	00H
	DW	0421H
	DW	00H
	DW	00H
	DW	03ffH
	DW	03ffH
	DW	00H
	DW	00H
	DW	03ffH
	DW	03ffH
	DW	03ffH
	DW	0c63H
	DW	0421H
	DW	00H
	DW	00H
	DW	00H
	DW	00H
	DW	0842H
	DW	00H
	DW	00H
	DW	00H
	DW	03ffH
	DW	03ffH
	DW	00H
	DW	03ffH
	DW	03ffH
	DW	00H
	DW	00H
	DW	0421H
	DW	00H
	DW	00H
	DW	0421H
	DW	0421H
	DW	0400H
	DW	0421H
	DW	00H
	DW	00H
	DW	00H
	DW	00H
	DW	00H
	DW	00H
	DW	00H
	DW	00H
	DW	00H
	DW	00H
	DW	00H
	DW	00H
	DW	0421H
	DW	03ffH
	DW	03ffH
	DW	00H
	DW	00H
	DW	00H
	DW	00H
	DW	03ffH
	DW	00H
	DW	03ffH
	DW	0842H
	DW	00H
	DW	00H
	DW	00H
	DW	00H
	DW	00H
	DW	0421H
	DW	00H
	DW	00H
	DW	00H
	DW	03ffH
	DW	00H
	DW	00H
	DW	03ffH
	DW	03ffH
	DW	00H
	DW	00H
	DW	00H
	DW	00H
	DW	00H
	DW	0421H
	DW	0421H
	DW	0400H
	DW	0421H
	DW	00H
	DW	00H
	DW	00H
	DW	00H
	DW	00H
	DW	00H
	DW	00H
	DW	00H
	DW	00H
	DW	00H
	DW	00H
	DW	00H
	DW	03ffH
	DW	03ffH
	DW	00H
	DW	00H
	DW	00H
	DW	00H
	DW	03ffH
	DW	00H
	DW	03ffH
	DW	00H
	DW	0421H
	DW	00H
	DW	00H
	DW	00H
	DW	00H
	DW	00H
	DW	0421H
	DW	00H
	DW	00H
	DW	00H
	DW	03ffH
	DW	00H
	DW	00H
	DW	00H
	DW	03ffH
	DW	03ffH
	DW	00H
	DW	00H
	DW	00H
	DW	00H
	DW	0421H
	DW	00H
	DW	00H
	DW	00H
	DW	00H
	DW	00H
	DW	00H
	DW	00H
	DW	00H
	DW	00H
	DW	00H
	DW	00H
	DW	00H
	DW	00H
	DW	00H
	DW	03ffH
	DW	03ffH
	DW	00H
	DW	00H
	DW	00H
	DW	00H
	DW	03ffH
	DW	00H
	DW	00H
	DW	03ffH
	DW	00H
	DW	00H
	DW	00H
	DW	00H
	DW	00H
	DW	00H
	DW	00H
	DW	00H
	DW	00H
	DW	00H
	DW	00H
	DW	03ffH
	DW	00H
	DW	00H
	DW	00H
	DW	03ffH
	DW	03ffH
	DW	03ffH
	DW	00H
	DW	00H
	DW	00H
	DW	0421H
	DW	00H
	DW	00H
	DW	00H
	DW	00H
	DW	00H
	DW	00H
	DW	00H
	DW	00H
	DW	00H
	DW	00H
	DW	00H
	DW	00H
	DW	03ffH
	DW	03ffH
	DW	03ffH
	DW	00H
	DW	00H
	DW	00H
	DW	00H
	DW	03ffH
	DW	00H
	DW	00H
	DW	03ffH
	DW	00H
	DW	00H
	DW	00H
	DW	00H
	DW	00H
	DW	00H
	DW	00H
	DW	00H
	DW	00H
	DW	00H
	DW	00H
	DW	00H
	DW	00H
	DW	03ffH
	DW	00H
	DW	00H
	DW	03ffH
	DW	00H
	DW	03ffH
	DW	03ffH
	DW	03ffH
	DW	03ffH
	DW	03ffH
	DW	03ffH
	DW	03ffH
	DW	03ffH
	DW	03ffH
	DW	03ffH
	DW	03ffH
	DW	03ffH
	DW	03ffH
	DW	03ffH
	DW	03ffH
	DW	03ffH
	DW	03ffH
	DW	03ffH
	DW	00H
	DW	00H
	DW	00H
	DW	00H
	DW	03ffH
	DW	03ffH
	DW	03ffH
	DW	00H
	DW	00H
	DW	03ffH
	DW	00H
	DW	00H
	DW	00H
	DW	00H
	DW	00H
	DW	00H
	DW	00H
	DW	00H
	DW	00H
	DW	00H
	DW	00H
	DW	00H
	DW	00H
	DW	03ffH
	DW	00H
	DW	00H
	DW	03ffH
	DW	00H
	DW	00H
	DW	00H
	DW	00H
	DW	00H
	DW	00H
	DW	00H
	DW	00H
	DW	00H
	DW	00H
	DW	00H
	DW	00H
	DW	00H
	DW	00H
	DW	00H
	DW	00H
	DW	00H
	DW	00H
	DW	00H
	DW	00H
	DW	00H
	DW	00H
	DW	03ffH
	DW	03ffH
	DW	00H
	DW	00H
	DW	00H
	DW	03ffH
	DW	03ffH
	DW	00H
	DW	00H
	DW	00H
	DW	00H
	DW	00H
	DW	00H
	DW	00H
	DW	00H
	DW	00H
	DW	00H
	DW	00H
	DW	00H
	DW	00H
	DW	03ffH
	DW	03ffH
	DW	00H
	DW	03ffH
	DW	03ffH
	DW	00H
	DW	00H
	DW	00H
	DW	00H
	DW	00H
	DW	00H
	DW	00H
	DW	00H
	DW	00H
	DW	00H
	DW	00H
	DW	00H
	DW	00H
	DW	00H
	DW	00H
	DW	00H
	DW	00H
	DW	00H
	DW	00H
	DW	03ffH
	DW	03ffH
	DW	00H
	DW	00H
	DW	00H
	DW	00H
	DW	00H
	DW	03ffH
	DW	00H
	DW	00H
	DW	00H
	DW	00H
	DW	00H
	DW	00H
	DW	00H
	DW	00H
	DW	00H
	DW	00H
	DW	00H
	DW	00H
	DW	00H
	DW	00H
	DW	00H
	DW	00H
	DW	03ffH
	DW	03ffH
	DW	03ffH
	DW	00H
	DW	00H
	DW	00H
	DW	00H
	DW	00H
	DW	00H
	DW	00H
	DW	00H
	DW	00H
	DW	00H
	DW	00H
	DW	00H
	DW	00H
	DW	00H
	DW	00H
	DW	00H
	DW	00H
	DW	03ffH
	DW	03ffH
	DW	00H
	DW	00H
	DW	03ffH
	DW	03ffH
	DW	03ffH
	DW	03ffH
	DW	03ffH
	DW	03ffH
	DW	00H
	DW	00H
	DW	00H
	DW	00H
	DW	00H
	DW	00H
	DW	00H
	DW	00H
	DW	00H
	DW	00H
	DW	00H
	DW	00H
	DW	00H
	DW	00H
	DW	00H
	DW	00H
	DW	00H
	DW	03ffH
	DW	03ffH
	DW	03ffH
	DW	00H
	DW	00H
	DW	00H
	DW	00H
	DW	00H
	DW	00H
	DW	00H
	DW	03ffH
	DW	03ffH
	DW	03ffH
	DW	03ffH
	DW	03ffH
	DW	03ffH
	DW	03ffH
	DW	03ffH
	DW	03ffH
	DW	03ffH
	DW	03ffH
	DW	03ffH
	DW	03ffH
	DW	03ffH
	DW	00H
	DW	00H
	DW	00H
	DW	00H
	DW	00H
	DW	00H
	DW	00H
	DW	00H
	DW	00H
	DW	00H
	DW	00H
	DW	00H
	DW	00H
	DW	00H
	DW	00H
	DW	00H
	DW	00H
	DW	00H
	DW	00H
	DW	00H
	DW	00H
	DW	00H
	DW	00H
	DW	03ffH
	DW	03ffH
	DW	03ffH
	DW	03ffH
	DW	03ffH
	DW	03ffH
	DW	03ffH
	DW	03ffH
	DW	03ffH
	DW	03ffH
	DW	00H
	DW	00H
	DW	03ffH
	DW	03ffH
	DW	00H
	DW	00H
	DW	00H
	DW	00H
	DW	00H
	DW	00H
	DW	00H
	DW	00H
	DW	00H
	DW	00H
	DW	00H
	DW	00H
	DW	00H
	DW	00H
	DW	00H
	DW	00H
	DW	00H
	DW	00H
	DW	00H
	DW	00H
	DW	00H
	DW	00H
	DW	00H
	DW	00H
	DW	00H
	DW	00H
	DW	00H
	DW	00H
	DW	00H
	DW	00H
	DW	00H
	DW	00H
	DW	00H
	DW	00H
	DW	00H
	DW	00H
	DW	00H
	DW	00H
	DW	03ffH
	DW	03ffH
	DW	03ffH
	DW	03ffH
	DW	03ffH
	DW	03ffH
	DW	00H
	DW	00H
	DW	00H
	DW	00H
	DW	00H
	DW	00H
	DW	00H
	DW	00H
	DW	00H
	DW	00H
	DW	00H
	DW	00H
	DW	00H
	DW	00H
	DW	00H
	DW	00H
	DW	00H
	DW	00H
	DW	00H
	DW	00H
	DW	00H
	DW	00H
	DW	0421H
	DW	00H
	DW	00H
	DW	00H
	DW	00H
	DW	00H
	DW	00H
	DW	00H
	DW	00H
	DW	00H
	DW	00H
	DW	00H
	DW	00H
	DW	00H
	DW	00H
	DW	00H
	DW	00H
	DW	00H
	DW	00H
	DW	00H
	DW	00H
	DW	00H
	DW	00H
	DW	00H
	DW	00H
	DW	00H
	DW	00H
	DW	00H
	DW	00H
	DW	00H
	DW	00H
	DW	00H
	DW	00H
	DW	00H
	DW	00H
	DW	00H
	DW	00H
	DW	00H
	DW	00H
	DW	00H
	DW	00H
	DW	00H
	DW	00H
	DW	00H
	DW	00H
	DW	00H
	DW	0421H
	DW	00H
	DW	00H
	DW	00H
	DW	00H
	DW	00H
	DW	00H
	DW	00H
	DW	00H
	DW	00H
	DW	00H
	DW	00H
	DW	00H
	DW	00H
	DW	00H
	DW	00H
	DW	00H
	DW	00H
	DW	00H
	DW	00H
	DW	00H
	DW	00H
	DW	00H
	DW	00H
	DW	00H
	DW	00H
	DW	00H
	DW	00H
	DW	00H
	DW	00H
	DW	00H
	DW	00H
	DW	00H
	DW	00H
	DW	00H
	DW	00H
	DW	00H
	DW	00H
	DW	00H
	DW	00H
	DW	00H
	DW	00H
	DW	00H
	DW	00H
	DW	00H
	DW	0421H
	DW	0421H
	DW	00H
	DW	00H
	DW	00H
	DW	00H
	DW	00H
	DW	00H
	DW	00H
	DW	00H
	DW	00H
	DW	00H
	DW	00H
	DW	00H
	DW	00H
	DW	00H
	DW	00H
	DW	00H
	DW	00H
	DW	00H
	DW	00H
	DW	00H
	DW	00H
	DW	00H
	DW	00H
	DW	00H
	DW	00H
	DW	00H
	DW	00H
	DW	00H
	DW	00H
	DW	00H
	DW	00H
	DW	00H
	DW	00H
	DW	00H
	DW	00H
	DW	00H
	DW	00H
	DW	00H
	DW	00H
	DW	00H
	DW	00H
	DW	00H
	DW	00H
	DW	00H
	DW	0421H
	DW	0421H
	DW	00H
	DW	00H
	DW	00H
	DW	00H
	DW	00H
	DW	00H
	DW	00H
	DW	00H
	DW	00H
	DW	00H
	DW	00H
	DW	00H
	DW	00H
	DW	00H
	DW	00H
	DW	00H
	DW	00H
	DW	00H
	DW	00H
	DW	00H
	DW	00H
	DW	00H
	DW	00H
	DW	00H
	DW	00H
	DW	00H
	DW	00H
	DW	00H
	DW	00H
	DW	00H
	DW	00H
	DW	00H
	DW	00H
	DW	00H
	DW	00H
	DW	00H
	DW	00H
	DW	00H
	DW	00H
	DW	00H
	DW	00H
	DW	00H
	DW	00H
	DW	0421H
	DW	0421H
	DW	0421H
_bmYellow_5 DW	02eH
	DW	03eH
	DW	05cH
	DW	010H
	DD	FLAT:_acYellow_5
	DD	00H
	DD	FLAT:_GUI_BitmapMethods555
CONST	ENDS
END
