 DUII

 Timestamp is 56b9fa81 (Tue Feb 09 09:41:05 2016)

 Preferred load address is 00400000

 Start         Length     Name                   Class
 0001:00000000 000ac934H .textbss                DATA
 0002:00000000 00162380H .text                   CODE
 0002:00162380 00001544H .text$yc                CODE
 0002:001638c4 00001019H .text$yd                CODE
 0003:00000000 00000104H .CRT$XCA                DATA
 0003:00000104 00000140H .CRT$XCU                DATA
 0003:00000244 00000104H .CRT$XCZ                DATA
 0003:00000348 00000104H .CRT$XIA                DATA
 0003:0000044c 00000118H .CRT$XIC                DATA
 0003:00000564 00000104H .CRT$XIY                DATA
 0003:00000668 00000104H .CRT$XIZ                DATA
 0003:0000076c 00000104H .CRT$XPA                DATA
 0003:00000870 00000104H .CRT$XPX                DATA
 0003:00000974 00000104H .CRT$XPXA               DATA
 0003:00000a78 00000104H .CRT$XPZ                DATA
 0003:00000b7c 00000104H .CRT$XTA                DATA
 0003:00000c80 00000104H .CRT$XTZ                DATA
 0003:00000d90 009e756eH .rdata                  DATA
 0003:009e8300 00000164H .rdata$debug            DATA
 0003:009e8464 0000032fH .rdata$r                DATA
 0003:009e8794 00000104H .rtc$IAA                DATA
 0003:009e8898 00001034H .rtc$IMZ                DATA
 0003:009e98cc 00000104H .rtc$IZZ                DATA
 0003:009e99d0 00000104H .rtc$TAA                DATA
 0003:009e9ad4 00001034H .rtc$TMZ                DATA
 0003:009eab08 00000104H .rtc$TZZ                DATA
 0003:009eac10 00000bd2H .xdata$x                DATA
 0003:009eb7e2 00000000H .edata                  DATA
 0004:00000000 0014c3e7H .data                   DATA
 0004:0014c400 00289834H .bss                    DATA
 0005:00000000 00000050H .idata$2                DATA
 0005:00000050 00000014H .idata$3                DATA
 0005:00000064 000004b4H .idata$4                DATA
 0005:00000518 000004b4H .idata$5                DATA
 0005:000009cc 0000112eH .idata$6                DATA
 0006:00000000 000006b3H .rsrc$01                DATA
 0006:000006c0 001761bcH .rsrc$02                DATA

  Address         Publics by Value              Rva+Base       Lib:Object

 0000:00000000       ___safe_se_handler_table   00000000     <absolute>
 0000:00000000       ___safe_se_handler_count   00000000     <absolute>
 0000:00000000       __except_list              00000000     <absolute>
 0000:00000000       ___ImageBase               00400000     <linker-defined>
 0001:00000000       __enc$textbss$begin        00401000     <linker-defined>
 0001:000ac934       __enc$textbss$end          004ad934     <linker-defined>
 0002:00009670       ??0Alarm@@QAE@_NMMK@Z      004b7670 f   Alarm.obj
 0002:00009700       ??0Alarm@@QAE@_NMMKKW4AlarmType@@PAV0@2@Z 004b7700 f   Alarm.obj
 0002:000097a0       _GetAnalogInputSettingsWindowHandle 004b77a0 f   AnalogInputSettings.obj
 0002:000097e0       _SetAnalogInputSettingsWindowHandle 004b77e0 f   AnalogInputSettings.obj
 0002:00009820       _AISKillKeyboard           004b7820 f   AnalogInputSettings.obj
 0002:00009890       _AnalogInputSettingsCallback 004b7890 f   AnalogInputSettings.obj
 0002:0000a0e0       _DisplayScale              004b80e0 f   AnalogInputSettings.obj
 0002:0000a4a0       _ScalePaint                004b84a0 f   AnalogInputSettings.obj
 0002:0000a8e0       _SetFilteringText          004b88e0 f   AnalogInputSettings.obj
 0002:0000aa20       _DisplayAlarm              004b8a20 f   AnalogInputSettings.obj
 0002:0000ad70       _AlarmPaint                004b8d70 f   AnalogInputSettings.obj
 0002:0000b200       _DisplayRenameInput        004b9200 f   AnalogInputSettings.obj
 0002:0000b300       _RenameInputPaint          004b9300 f   AnalogInputSettings.obj
 0002:0000b330       _DisplayRenameUnits        004b9330 f   AnalogInputSettings.obj
 0002:0000b430       _RenameUnitsPaint          004b9430 f   AnalogInputSettings.obj
 0002:0000b460       _AnalogInputSettingsIgnoreNextKeyRelease 004b9460 f   AnalogInputSettings.obj
 0002:0000b490       _DeleteAnalogKeyboards     004b9490 f   AnalogInputSettings.obj
 0002:0000b550       _ValidateAnalogData        004b9550 f   AnalogInputSettings.obj
 0002:0000b7b0       _InvalidAnalogDataPopUp    004b97b0 f   AnalogInputSettings.obj
 0002:0000b8b0       _GetAnalogInputsScaleWindowHandle 004b98b0 f   AnalogInputsScale.obj
 0002:0000b8f0       _SetAnalogInputsScaleWindowHandle 004b98f0 f   AnalogInputsScale.obj
 0002:0000b930       _SaveData                  004b9930 f   AnalogInputsScale.obj
 0002:0000ba40       _AnalogInputsScaleCallback 004b9a40 f   AnalogInputsScale.obj
 0002:0000bbf0       _DisplayVoltsLow           004b9bf0 f   AnalogInputsScale.obj
 0002:0000bd20       _DisplayVoltsHigh          004b9d20 f   AnalogInputsScale.obj
 0002:0000be50       _DisplayValueLow           004b9e50 f   AnalogInputsScale.obj
 0002:0000bf80       _DisplayValueHigh          004b9f80 f   AnalogInputsScale.obj
 0002:0000c0b0       _VoltsLowPaint             004ba0b0 f   AnalogInputsScale.obj
 0002:0000c0e0       _VoltsHighPaint            004ba0e0 f   AnalogInputsScale.obj
 0002:0000c110       _ValueLowPaint             004ba110 f   AnalogInputsScale.obj
 0002:0000c140       _ValueHighPaint            004ba140 f   AnalogInputsScale.obj
 0002:0000c170       _AnalogInputsScaleIgnoreNextKeyRelease 004ba170 f   AnalogInputsScale.obj
 0002:0000c1a0       _DeleteAnalogScaleKeyboards 004ba1a0 f   AnalogInputsScale.obj
 0002:0000c290       _ArchiveSessions           004ba290 f   Archive.obj
 0002:0000c760       _FileIsNotTQMFile          004ba760 f   Archive.obj
 0002:0000c7e0       _MoveThisFile              004ba7e0 f   Archive.obj
 0002:0000c960       _compare                   004ba960 f   Archive.obj
 0002:0000ca50       _ArchiveSessionsPopup      004baa50 f   Archive.obj
 0002:0000cae0       _ArchiveSessionsCallback   004baae0 f   Archive.obj
 0002:0000cd70       _UserPressedCancel         004bad70 f   Archive.obj
 0002:0000ce70       _SetLastScreen             004bae70 f   ConfigScreens.obj
 0002:0000d050       _GetCurrentWindowHandle    004bb050 f   ConfigScreens.obj
 0002:0000d1c0       _GetLastScreen             004bb1c0 f   ConfigScreens.obj
 0002:0000d490       _GetCurrentScreen          004bb490 f   ConfigScreens.obj
 0002:0000d4e0       _GetNumScreens             004bb4e0 f   ConfigScreens.obj
 0002:0000d6b0       _SetScreenType             004bb6b0 f   ConfigScreens.obj
 0002:0000d6f0       _GetScreenType             004bb6f0 f   ConfigScreens.obj
 0002:0000d730       _GetPrevIndex              004bb730 f   ConfigScreens.obj
 0002:0000d7b0       _GetNextIndex              004bb7b0 f   ConfigScreens.obj
 0002:0000d830       _ValidateRaceScreens       004bb830 f   ConfigScreens.obj
 0002:0000d8f0       _GetNextGaugeScreen        004bb8f0 f   ConfigScreens.obj
 0002:0000d9a0       _GetPrevGaugeScreen        004bb9a0 f   ConfigScreens.obj
 0002:0000da40       _InactiveGaugeScreen       004bba40 f   ConfigScreens.obj
 0002:0000dae0       _GaugeScreenIndexToID      004bbae0 f   ConfigScreens.obj
 0002:0000dbc0       __cbMainCallback           004bbbc0 f   ConfigScreens.obj
 0002:0000e290       _UpdateSessionListView     004bc290 f   ConfigScreens.obj
 0002:0000e370       _IncrementSessionType      004bc370 f   ConfigScreens.obj
 0002:0000e400       _SetSessionSelection       004bc400 f   ConfigScreens.obj
 0002:0000e480       _StartPressed              004bc480 f   ConfigScreens.obj
 0002:0000e4f0       _FinishPressed             004bc4f0 f   ConfigScreens.obj
 0002:0000e550       _GetConfigWindowHandle     004bc550 f   ConfigScreens.obj
 0002:0000e590       _SetConfigWindowHandle     004bc590 f   ConfigScreens.obj
 0002:0000e5d0       _ProcessScreenExit         004bc5d0 f   ConfigScreens.obj
 0002:0000e8d0       _MoveRight                 004bc8d0 f   ConfigScreens.obj
 0002:0000eee0       _ProcessScreenMovement     004bcee0 f   ConfigScreens.obj
 0002:0000f610       _ProcessSlideoutKeyPress   004bd610 f   ConfigScreens.obj
 0002:0000f7a0       _StartSlideout             004bd7a0 f   ConfigScreens.obj
 0002:0000f910       _CloseSlider               004bd910 f   ConfigScreens.obj
 0002:0000f970       _DeleteSlideout            004bd970 f   ConfigScreens.obj
 0002:0000fa50       _CheckSlideoutTimer        004bda50 f   ConfigScreens.obj
 0002:0000fc30       _SetSpritePositions        004bdc30 f   ConfigScreens.obj
 0002:0000fd10       _SlideOutDeployed          004bdd10 f   ConfigScreens.obj
 0002:0000fd60       _SlideOutVisible           004bdd60 f   ConfigScreens.obj
 0002:0000fdb0       _TouchPosIsBackKey         004bddb0 f   ConfigScreens.obj
 0002:0000fe70       _TouchPosIsBackKey2        004bde70 f   ConfigScreens.obj
 0002:0000fed0       _TouchPosIsReset           004bded0 f   ConfigScreens.obj
 0002:0000ff40       _StartBackKeyTimer         004bdf40 f   ConfigScreens.obj
 0002:0000ff90       _BackTimerExpired          004bdf90 f   ConfigScreens.obj
 0002:00010010       _StartConfigKeyTimer       004be010 f   ConfigScreens.obj
 0002:000100e0       _ConfigTimerExpired        004be0e0 f   ConfigScreens.obj
 0002:00010160       _CheckForInfoKey           004be160 f   ConfigScreens.obj
 0002:00011090       _ShowHelpPopup             004bf090 f   ConfigScreens.obj
 0002:00011130       _HelpCallback              004bf130 f   ConfigScreens.obj
 0002:00011330       _DisplayNewScreenList      004bf330 f   ConfigScreens.obj
 0002:00011830       _DisplayGoRacing           004bf830 f   ConfigScreens.obj
 0002:000119c0       _SetRecordModeGraphic      004bf9c0 f   ConfigScreens.obj
 0002:00011a50       _DisplayRaceSetup          004bfa50 f   ConfigScreens.obj
 0002:00011bb0       _DisplayReviewSessions     004bfbb0 f   ConfigScreens.obj
 0002:00012070       _SetButtonColors           004c0070 f   ConfigScreens.obj
 0002:000121f0       _PopulateSessionLISTVIEW   004c01f0 f   ConfigScreens.obj
 0002:000124f0       _DateTimeSort              004c04f0 f   ConfigScreens.obj
 0002:00012650       _GetMins                   004c0650 f   ConfigScreens.obj
 0002:00012800       _LapTimeSort               004c0800 f   ConfigScreens.obj
 0002:00012860       _DisplaySystemSettings     004c0860 f   ConfigScreens.obj
 0002:00012a40       _GoRacingPaint             004c0a40 f   ConfigScreens.obj
 0002:00012ad0       _RaceSetupPaint            004c0ad0 f   ConfigScreens.obj
 0002:00012b60       _ReviewSessionsPaint       004c0b60 f   ConfigScreens.obj
 0002:00012c20       _SystemSettingsPaint       004c0c20 f   ConfigScreens.obj
 0002:00012cb0       _CS_IsVisible              004c0cb0 f   ConfigScreens.obj
 0002:00012d60       _GetCurrentScreenID        004c0d60 f   ConfigScreens.obj
 0002:00012e50       _ConfigScreensIgnoreNextKeyRelease 004c0e50 f   ConfigScreens.obj
 0002:00012e90       _popupCallback             004c0e90 f   ConfigScreens.obj
 0002:000130f0       _ExitRecord                004c10f0 f   ConfigScreens.obj
 0002:000131f0       _DisplaySavingData         004c11f0 f   ConfigScreens.obj
 0002:00013290       _SetUserMode               004c1290 f   ConfigScreens.obj
 0002:000132f0       _CheckForStopRecord        004c12f0 f   ConfigScreens.obj
 0002:00013340       _SaveRaceMode              004c1340 f   ConfigScreens.obj
 0002:000133a0       _ConvertRaceModeToSessionType 004c13a0 f   ConfigScreens.obj
 0002:00013420       _GaugeScreensIgnoreNextKeyRelease 004c1420 f   ConfigScreens.obj
 0002:00013460       _GoRacingStateMachine      004c1460 f   ConfigScreens.obj
 0002:00013840       _DisplayClosestTracks      004c1840 f   ConfigScreens.obj
 0002:00013940       _ProceedToRaceMode         004c1940 f   ConfigScreens.obj
 0002:00013b70       _StartupGoToRaceMode       004c1b70 f   ConfigScreens.obj
 0002:00013c50       _GetSystemStatsHelpText    004c1c50 f   ConfigScreens.obj
 0002:00013ff0       _GetStorageStatsHelpText   004c1ff0 f   ConfigScreens.obj
 0002:00014050       _GetAnalogInputText        004c2050 f   ConfigScreens.obj
 0002:00014110       _GetDigitalInputText       004c2110 f   ConfigScreens.obj
 0002:000141d0       _NotSupportedPopup         004c21d0 f   ConfigScreens.obj
 0002:00014270       _AnyGaugeScreen            004c2270 f   ConfigScreens.obj
 0002:000142d0       _AnyNonDragGaugeScreen     004c22d0 f   ConfigScreens.obj
 0002:00014330       _DetermineAnalogScreenSelection 004c2330 f   ConfigScreens.obj
 0002:000143b0       _ScreenIsConfigurable      004c23b0 f   ConfigurableGaugeCommon.obj
 0002:00014410       _ConfigureGauge            004c2410 f   ConfigurableGaugeCommon.obj
 0002:00014470       _ButtonPressIsOnConfigurableGauge 004c2470 f   ConfigurableGaugeCommon.obj
 0002:00014540       _ProcessGaugeButton        004c2540 f   ConfigurableGaugeCommon.obj
 0002:00014800       _GetConfigurableItem       004c2800 f   ConfigurableGaugeCommon.obj
 0002:00014840       _SetConfigurableItem       004c2840 f   ConfigurableGaugeCommon.obj
 0002:00014890       _ShowInput                 004c2890 f   ConfigurableGaugeCommon.obj
 0002:00014bc0       _ShowDigitalInput          004c2bc0 f   ConfigurableGaugeCommon.obj
 0002:00014df0       _ShowOtherInput            004c2df0 f   ConfigurableGaugeCommon.obj
 0002:000150c0       _FormatAnalogData          004c30c0 f   ConfigurableGaugeCommon.obj
 0002:00015280       _ShowTime                  004c3280 f   ConfigurableGaugeCommon.obj
 0002:00015580       _GetInputID                004c3580 f   ConfigurableGaugeCommon.obj
 0002:00015600       _DisplayConfigurableItem   004c3600 f   ConfigurableGaugeCommon.obj
 0002:00015a30       ??0ControlBase@@QAE@HHPAD0PAVAlarm@@@Z 004c3a30 f   ControlBase.obj
 0002:00015ad0       ?SetValue@ControlBase@@QAEXM@Z 004c3ad0 f   ControlBase.obj
 0002:00015b20       ?GetValue@ControlBase@@QAEMXZ 004c3b20 f   ControlBase.obj
 0002:00015b60       _GL_DrawArc2               004c3b60 f   CustomArc.obj
 0002:00016710       _GUI_DrawArc2              004c4710 f   CustomArc.obj
 0002:000167c0       _GetRawValue               004c47c0 f   DataHandler.obj
 0002:00016860       _GetValue                  004c4860 f   DataHandler.obj
 0002:00016c50       _SimStartSession           004c4c50 f   DataHandler.obj
 0002:00016dc0       _DummyTick                 004c4dc0 f   DataHandler.obj
 0002:00017810       _CalcSpeed                 004c5810 f   DataHandler.obj
 0002:000178a0       _InitCommSimulatorTask     004c58a0 f   DataHandler.obj
 0002:00017930       _dataTickCallback          004c5930 f   DataHandler.obj
 0002:000179c0       _SetGear                   004c59c0 f   DataHandler.obj
 0002:00017b90       _DrawSignalStrength        004c5b90 f   DataHandler.obj
 0002:00017da0       _GetCameraIcon             004c5da0 f   DataHandler.obj
 0002:00017e60       _GetSUStatusIcon           004c5e60 f   DataHandler.obj
 0002:00017eb0       _SlideoutGetSignalStrengthIcon 004c5eb0 f   DataHandler.obj
 0002:00017f10       _GetSignalStrengthIcon     004c5f10 f   DataHandler.obj
 0002:00018000       _ForceSDBusy               004c6000 f   DataHandler.obj
 0002:00018070       _ResetNewScreen            004c6070 f   DataHandler.obj
 0002:000180d0       _DrawInfo                  004c60d0 f   DataHandler.obj
 0002:00018270       _f_to_c                    004c6270 f   DataHandler.obj
 0002:000182d0       _c_to_f                    004c62d0 f   DataHandler.obj
 0002:00018330       _GetTimeString             004c6330 f   DataHandler.obj
 0002:00018510       _ResetTrip                 004c6510 f   DataHandler.obj
 0002:00018560       _ResetMax                  004c6560 f   DataHandler.obj
 0002:000185e0       _ShowDialog                004c65e0 f   DialogBox.obj
 0002:00018870       ??0DigitalDisplay@@QAE@HHHHPAD0MMHHW4DigitalOptions@@PAVAlarm@@_NUGUI_FONT@@4J@Z 004c6870 f   DigitalDisplay.obj
 0002:000189c0       ??0DigitalDisplay@@QAE@HHHHPAD0MMHHW4DigitalOptions@@PAVAlarm@@_NJ@Z 004c69c0 f   DigitalDisplay.obj
 0002:00018b10       ??1DigitalDisplay@@QAE@XZ  004c6b10 f   DigitalDisplay.obj
 0002:00018b70       ?DrawControl@DigitalDisplay@@QAEXXZ 004c6b70 f   DigitalDisplay.obj
 0002:00018ea0       ?GetDisplayText@DigitalDisplay@@AAEPADXZ 004c6ea0 f   DigitalDisplay.obj
 0002:00018fd0       ?SetValue@DigitalDisplay@@QAEXM@Z 004c6fd0 f   DigitalDisplay.obj
 0002:00019020       ?GetMaxTextLength@DigitalDisplay@@AAEHXZ 004c7020 f   DigitalDisplay.obj
 0002:00019170       ?PickFont@DigitalDisplay@@AAEXXZ 004c7170 f   DigitalDisplay.obj
 0002:000193b0       ?DrawToMemArea@DigitalDisplay@@QAEJXZ 004c73b0 f   DigitalDisplay.obj
 0002:00019910       __cbDigitalGaugeCallback   004c7910 f   DigitalGaugeScreen.obj
 0002:00019e60       ??_GPredictiveLapTimer@@QAEPAXI@Z 004c7e60 f i DigitalGaugeScreen.obj
 0002:00019ed0       ?DGDrawConfigRect@@YAXXZ   004c7ed0 f   DigitalGaugeScreen.obj
 0002:00019fa0       _Display_DigitalGaugeScreen 004c7fa0 f   DigitalGaugeScreen.obj
 0002:0001a140       _IfDigitalConfigGaugePressed 004c8140 f   DigitalGaugeScreen.obj
 0002:0001a1c0       _GetDigitalInputSettingsWindowHandle 004c81c0 f   DigitalInputSettings.obj
 0002:0001a200       _SetDigitalInputSettingsWindowHandle 004c8200 f   DigitalInputSettings.obj
 0002:0001a240       _DigitalInputSettingsCallback 004c8240 f   DigitalInputSettings.obj
 0002:0001a570       _DigDisplayAlarm           004c8570 f   DigitalInputSettings.obj
 0002:0001a700       _DigAlarmPaint             004c8700 f   DigitalInputSettings.obj
 0002:0001aa50       _DigDisplayRenameInput     004c8a50 f   DigitalInputSettings.obj
 0002:0001ab50       _DigRenameInputPaint       004c8b50 f   DigitalInputSettings.obj
 0002:0001ab80       _DisplayRenameHigh         004c8b80 f   DigitalInputSettings.obj
 0002:0001ac80       _RenameHighPaint           004c8c80 f   DigitalInputSettings.obj
 0002:0001acb0       _DisplayRenameLow          004c8cb0 f   DigitalInputSettings.obj
 0002:0001adb0       _RenameLowPaint            004c8db0 f   DigitalInputSettings.obj
 0002:0001ade0       _DigitalInputSettingsIgnoreNextKeyRelease 004c8de0 f   DigitalInputSettings.obj
 0002:0001ae10       _DeleteDigitalKeyboards    004c8e10 f   DigitalInputSettings.obj
 0002:0001aed0       ??0DigitalStringOutput@@QAE@HHHHW4DigitalOptions@@JUGUI_FONT@@K@Z 004c8ed0 f   DigitalStringOutput.obj
 0002:0001b040       ??1DigitalStringOutput@@QAE@XZ 004c9040 f   DigitalStringOutput.obj
 0002:0001b0a0       ?DrawControl@DigitalStringOutput@@QAEXXZ 004c90a0 f   DigitalStringOutput.obj
 0002:0001b160       ?GetDisplayText@DigitalStringOutput@@AAEPADXZ 004c9160 f   DigitalStringOutput.obj
 0002:0001b2a0       ?SetValue@DigitalStringOutput@@QAEXPAD@Z 004c92a0 f   DigitalStringOutput.obj
 0002:0001b300       ?PickFont@DigitalStringOutput@@AAEXXZ 004c9300 f   DigitalStringOutput.obj
 0002:0001b4e0       ?DrawToMemArea@DigitalStringOutput@@QAEJXZ 004c94e0 f   DigitalStringOutput.obj
 0002:0001b600       ?DAXRPMSweepCallback@@YAXPAUWM_MESSAGE@@@Z 004c9600 f   DragAutoXScreens.obj
 0002:0001bdb0       ??_GDigitalDisplay@@QAEPAXI@Z 004c9db0 f i DragAutoXScreens.obj
 0002:0001be20       ??_GRPMSweep@@QAEPAXI@Z    004c9e20 f i DragAutoXScreens.obj
 0002:0001be90       ??_GDigitalStringOutput@@QAEPAXI@Z 004c9e90 f i DragAutoXScreens.obj
 0002:0001bf00       _Display_DAXRPMSweepScreen 004c9f00 f   DragAutoXScreens.obj
 0002:0001c4c0       ?DAXAnalogCallback@@YAXPAUWM_MESSAGE@@@Z 004ca4c0 f   DragAutoXScreens.obj
 0002:0001cea0       ??_GGauge@@QAEPAXI@Z       004caea0 f i DragAutoXScreens.obj
 0002:0001cf10       _Display_DAXGaugeScreen    004caf10 f   DragAutoXScreens.obj
 0002:0001d490       ?DAXDigitalCallback@@YAXPAUWM_MESSAGE@@@Z 004cb490 f   DragAutoXScreens.obj
 0002:0001dce0       ?SetColor@DigitalStringOutput@@QAEXK@Z 004cbce0 f i DragAutoXScreens.obj
 0002:0001dd30       _Display_DAXDigitalGaugeScreen 004cbd30 f   DragAutoXScreens.obj
 0002:0001e1b0       __cbDriveCallback          004cc1b0 f   DriveScreen.obj
 0002:0001eba0       _Display_DriveScreen       004ccba0 f   DriveScreen.obj
 0002:0001ee30       __cbDualGaugeCallback      004cce30 f   DualGaugeScreen.obj
 0002:0001f290       _Display_DualGaugeScreen   004cd290 f   DualGaugeScreen.obj
 0002:0001f3e0       _CreateAnalogInputGauge    004cd3e0 f   DualGaugeScreen.obj
 0002:0001f810       ?GetInput@@YAHH@Z          004cd810 f   DualGaugeScreen.obj
 0002:0001f8a0       ?GetInputID@@YA?AW4GlobalDataIndexType@@H@Z 004cd8a0 f   DualGaugeScreen.obj
 0002:0001f920       _MainTask                  004cd920 f   DUII_Main.obj
 0002:0001fd70       _ConfigureForNoSDCard      004cdd70 f   DUII_Main.obj
 0002:0001fde0       _SetPopupDefaults          004cdde0 f   DUII_Main.obj
 0002:000200b0       _SDCardRemoved             004ce0b0 f   DUII_Main.obj
 0002:00020160       _SDCardReinserted          004ce160 f   DUII_Main.obj
 0002:00020210       _ReFlashYorN               004ce210 f   DUII_Main.obj
 0002:000203d0       _PowerOffUnit              004ce3d0 f   DUII_Main.obj
 0002:000204d0       _SaveFilesAndPowerDown     004ce4d0 f   DUII_Main.obj
 0002:00020530       _InitializeTraqmateFiles   004ce530 f   DUII_Main.obj
 0002:00020690       _local_itoa                004ce690 f   DUII_Main.obj
 0002:00020740       _reverse                   004ce740 f   DUII_Main.obj
 0002:00020800       _NewSWVersion              004ce800 f   DUII_Main.obj
 0002:00020b30       _UserWantsToUpdateSF       004ceb30 f   DUII_Main.obj
 0002:00020bd0       _InitializeTraqmateData    004cebd0 f   DUII_Main.obj
 0002:00020c50       _DisplayInvalidFilesPopup  004cec50 f   DUII_Main.obj
 0002:00020df0       _AskAndDoFormatSDCard      004cedf0 f   DUII_Main.obj
 0002:00020e80       _CreateProgressBar         004cee80 f   DUII_Main.obj
 0002:00020fa0       _RepaintSplash             004cefa0 f   DUII_Main.obj
 0002:00020ff0       _DisplaySplashScreen1      004ceff0 f   DUII_Main.obj
 0002:00021080       _DisplaySplashScreen3      004cf080 f   DUII_Main.obj
 0002:00021580       _DisplayAnalogStatus       004cf580 f   DUII_Main.obj
 0002:000216a0       _ReadDataStructures        004cf6a0 f   FlashReadWrite.obj
 0002:000216f0       _ReadSDCardData            004cf6f0 f   FlashReadWrite.obj
 0002:000217c0       _verifyData                004cf7c0 f   FlashReadWrite.obj
 0002:00021ae0       _UpgradeSysData00_01       004cfae0 f   FlashReadWrite.obj
 0002:00021c60       _UpgradeSysData01_02       004cfc60 f   FlashReadWrite.obj
 0002:00021dd0       _UpgradeVehicleData00_01   004cfdd0 f   FlashReadWrite.obj
 0002:00022070       _UpdateAnalogInputData     004d0070 f   FlashReadWrite.obj
 0002:000223a0       _SetDefaultTempCalData     004d03a0 f   FlashReadWrite.obj
 0002:00022410       _WriteDataStructures       004d0410 f   FlashReadWrite.obj
 0002:00022460       _WriteUserDataEvent        004d0460 f   FlashReadWrite.obj
 0002:000227c0       _FRWWriteFile              004d07c0 f   FlashReadWrite.obj
 0002:00022870       _ConfigureHomeDirectory    004d0870 f   FlashReadWrite.obj
 0002:000229b0       _InitializeDirectoryStructure 004d09b0 f   FlashReadWrite.obj
 0002:00022aa0       _InitializeData            004d0aa0 f   FlashReadWrite.obj
 0002:00022b10       _SetDefaultSystemData      004d0b10 f   FlashReadWrite.obj
 0002:00022c20       _SetMandatoryDefaultSelections 004d0c20 f   FlashReadWrite.obj
 0002:00022cb0       _SetDefaultDriverData      004d0cb0 f   FlashReadWrite.obj
 0002:00022d20       _SetDefaultTrackData       004d0d20 f   FlashReadWrite.obj
 0002:00022da0       _SetDefaultVehicleData     004d0da0 f   FlashReadWrite.obj
 0002:00022fa0       _SetDefaultAnalogInputData 004d0fa0 f   FlashReadWrite.obj
 0002:00023420       _SetDefaultDigitalInputData 004d1420 f   FlashReadWrite.obj
 0002:00023640       _SetDefaultTach            004d1640 f   FlashReadWrite.obj
 0002:000236b0       _SetDefaultGears           004d16b0 f   FlashReadWrite.obj
 0002:00023750       _InitializeCriticalVariables 004d1750 f   FlashReadWrite.obj
 0002:00023840       _AddPath                   004d1840 f   FlashReadWrite.obj
 0002:00023920       _ConvertToFilename         004d1920 f   FlashReadWrite.obj
 0002:00023990       _ReloadData                004d1990 f   FlashReadWrite.obj
 0002:00023ce0       _FRWReadFile               004d1ce0 f   FlashReadWrite.obj
 0002:00023da0       _AnyFilesFound             004d1da0 f   FlashReadWrite.obj
 0002:00023eb0       _CreateAllFiles            004d1eb0 f   FlashReadWrite.obj
 0002:00024060       _DeleteAllFiles            004d2060 f   FlashReadWrite.obj
 0002:00024240       _DisplayUpdatedVehicleDataPopup 004d2240 f   FlashReadWrite.obj
 0002:00024340       ??0Gauge@@QAE@HHHMMPAD00PAVAlarm@@MMHHDJPBUGUI_BITMAP@@@Z 004d2340 f   gauge.obj
 0002:000246a0       ??1Gauge@@QAE@XZ           004d26a0 f   gauge.obj
 0002:00024710       ?CreateGaugeBackground@Gauge@@AAEXXZ 004d2710 f   gauge.obj
 0002:000257a0       ?cos@@YAMM@Z               004d37a0 f i gauge.obj
 0002:00025800       _cosf                      004d3800 f i gauge.obj
 0002:00025870       ?sin@@YAMM@Z               004d3870 f i gauge.obj
 0002:000258d0       _sinf                      004d38d0 f i gauge.obj
 0002:00025940       ?SetValue@Gauge@@QAEXM@Z   004d3940 f   gauge.obj
 0002:00025990       ?ShowDigital@Gauge@@QAEX_N@Z 004d3990 f   gauge.obj
 0002:000259f0       ?GetValue@Gauge@@QAEMXZ    004d39f0 f   gauge.obj
 0002:00025a30       ?SetPrecision@Gauge@@QAEXH@Z 004d3a30 f   gauge.obj
 0002:00025a80       ?DrawControl@Gauge@@QAEXXZ 004d3a80 f   gauge.obj
 0002:00025ae0       ?DrawToMemArea@Gauge@@QAEJXZ 004d3ae0 f   gauge.obj
 0002:00025b40       ?CommonDraw@Gauge@@AAEX_N@Z 004d3b40 f   gauge.obj
 0002:00026220       __cbGaugeCallback          004d4220 f   GaugeScreen.obj
 0002:00026cd0       ?GSDrawConfigrect@@YAXXZ   004d4cd0 f   GaugeScreen.obj
 0002:00026da0       _Display_GaugeScreen       004d4da0 f   GaugeScreen.obj
 0002:00027330       _IfAnalogConfigGaugePressed 004d5330 f   GaugeScreen.obj
 0002:000273b0       _GetGearingWindowHandle    004d53b0 f   GearingScreens.obj
 0002:000273f0       _SetGearingWindowHandle    004d53f0 f   GearingScreens.obj
 0002:00027430       _GearingScreensCallback    004d5430 f   GearingScreens.obj
 0002:000279c0       _ButtonToScreenID          004d59c0 f   GearingScreens.obj
 0002:00027aa0       _GetTireSizeScreenWindowHandle 004d5aa0 f   GearingScreens.obj
 0002:00027ae0       _DisplayTireCircumference  004d5ae0 f   GearingScreens.obj
 0002:00027bc0       _GetTireCircumferenceString 004d5bc0 f   GearingScreens.obj
 0002:00027c90       _TCKeyboardSaveButton      004d5c90 f   GearingScreens.obj
 0002:00027d50       _TCKillKeyboard            004d5d50 f   GearingScreens.obj
 0002:00027df0       _DisplayTireSize           004d5df0 f   GearingScreens.obj
 0002:00028200       _UpdateTireCircumference   004d6200 f   GearingScreens.obj
 0002:00028280       _DisplayTireSizeSelection  004d6280 f   GearingScreens.obj
 0002:000283d0       _DisplayDiffRatio          004d63d0 f   GearingScreens.obj
 0002:000284d0       _DisplayTransRatio         004d64d0 f   GearingScreens.obj
 0002:00028800       _SetGearButtonText         004d6800 f   GearingScreens.obj
 0002:000288f0       _DisplayHelp               004d68f0 f   GearingScreens.obj
 0002:00028920       _TireSizePaint             004d6920 f   GearingScreens.obj
 0002:00028ad0       _DiffRatioPaint            004d6ad0 f   GearingScreens.obj
 0002:00028be0       _TransRatioPaint           004d6be0 f   GearingScreens.obj
 0002:00028db0       _HelpPaint                 004d6db0 f   GearingScreens.obj
 0002:00028f50       _TireSizeSelectionPaint    004d6f50 f   GearingScreens.obj
 0002:00029110       _GearingIgnoreNextKeyRelease 004d7110 f   GearingScreens.obj
 0002:00029140       _GetGearRatiosWindowHandle 004d7140 f   GearRatios.obj
 0002:00029180       _SetGearRatiosWindowHandle 004d7180 f   GearRatios.obj
 0002:000291c0       _GearRatiosSaveData        004d71c0 f   GearRatios.obj
 0002:00029330       _GearRatiosCallback        004d7330 f   GearRatios.obj
 0002:00029500       _DisplayFirst              004d7500 f   GearRatios.obj
 0002:000295b0       _DisplaySecond             004d75b0 f   GearRatios.obj
 0002:00029660       _DisplayThird              004d7660 f   GearRatios.obj
 0002:00029710       _DisplayFourth             004d7710 f   GearRatios.obj
 0002:000297c0       _DisplayFifth              004d77c0 f   GearRatios.obj
 0002:00029870       _DisplaySixth              004d7870 f   GearRatios.obj
 0002:00029920       _DisplaySeventh            004d7920 f   GearRatios.obj
 0002:000299d0       _DisplayEighth             004d79d0 f   GearRatios.obj
 0002:00029a80       _FirstPaint                004d7a80 f   GearRatios.obj
 0002:00029ab0       _SecondPaint               004d7ab0 f   GearRatios.obj
 0002:00029ae0       _ThirdPaint                004d7ae0 f   GearRatios.obj
 0002:00029b10       _FourthPaint               004d7b10 f   GearRatios.obj
 0002:00029b40       _FifthPaint                004d7b40 f   GearRatios.obj
 0002:00029b70       _SixthPaint                004d7b70 f   GearRatios.obj
 0002:00029ba0       _SeventhPaint              004d7ba0 f   GearRatios.obj
 0002:00029bd0       _EighthPaint               004d7bd0 f   GearRatios.obj
 0002:00029c00       _GearRatiosIgnoreNextKeyRelease 004d7c00 f   GearRatios.obj
 0002:00029c30       _DeleteGearRatiosKeyboards 004d7c30 f   GearRatios.obj
 0002:00029dc0       _GetGeneralConfinScreenWindowHandle 004d7dc0 f   GeneralConfig.obj
 0002:00029e00       _Display_GeneralConfig     004d7e00 f   GeneralConfig.obj
 0002:0002a2c0       _SystemError               004d82c0 f   GeneralConfig.obj
 0002:0002a300       _GeneralConfigIgnoreNextKeyRelease 004d8300 f   GeneralConfig.obj
 0002:0002a340       ??0GMeter@@QAE@H@Z         004d8340 f   GMeter.obj
 0002:0002a490       ??1GMeter@@QAE@XZ          004d8490 f   GMeter.obj
 0002:0002a4f0       ?DrawControl@GMeter@@QAEXXZ 004d84f0 f   GMeter.obj
 0002:0002abc0       ?CreateBackground@GMeter@@AAEXXZ 004d8bc0 f   GMeter.obj
 0002:0002ac30       ?SetValue@GMeter@@QAEXMM@Z 004d8c30 f   GMeter.obj
 0002:0002ae30       __cbGMeterCallback         004d8e30 f   GMeterScreen.obj
 0002:0002b0f0       ??_GGMeter@@QAEPAXI@Z      004d90f0 f i GMeterScreen.obj
 0002:0002b160       ?GMDrawConfigRect@@YAXXZ   004d9160 f   GMeterScreen.obj
 0002:0002b230       _Display_GMeterScreen      004d9230 f   GMeterScreen.obj
 0002:0002b390       _IfGMeterConfigGaugePressed 004d9390 f   GMeterScreen.obj
 0002:0002b410       _GPSInfoCallback           004d9410 f   GPSInfoScreen.obj
 0002:0002bb30       _DisplayGPSInfo            004d9b30 f   GPSInfoScreen.obj
 0002:0002bc20       _TestInfoCallback          004d9c20 f   GPSInfoScreen.obj
 0002:0002be80       _DisplayTestInfo           004d9e80 f   GPSInfoScreen.obj
 0002:0002bf70       _CreateHelpSelection       004d9f70 f   HelpScreens.obj
 0002:0002c410       _DeleteHelpScreen          004da410 f   HelpScreens.obj
 0002:0002c4b0       _HelpSelectionCallback     004da4b0 f   HelpScreens.obj
 0002:0002c6b0       _DisplayHelpScreenTutorial 004da6b0 f   HelpScreens.obj
 0002:0002c900       _HelpScreenCallback        004da900 f   HelpScreens.obj
 0002:0002cb00       _UpdateButtonGraphics      004dab00 f   HelpScreens.obj
 0002:0002cc40       _DrawJPEGSplash            004dac40 f   HelpScreens.obj
 0002:0002cca0       _GetInputsWindowHandle     004daca0 f   InputScreens.obj
 0002:0002cce0       _SetInputsWindowHandle     004dace0 f   InputScreens.obj
 0002:0002cd20       _InputsScreensCallback     004dad20 f   InputScreens.obj
 0002:0002d170       _DisplayAnalog0            004db170 f   InputScreens.obj
 0002:0002d1c0       _DisplayAnalog1            004db1c0 f   InputScreens.obj
 0002:0002d210       _DisplayAnalog2            004db210 f   InputScreens.obj
 0002:0002d260       _DisplayAnalog3            004db260 f   InputScreens.obj
 0002:0002d2b0       _SetAnalogEnableButtonText 004db2b0 f   InputScreens.obj
 0002:0002d3b0       _SetDigitalEnableButtonText 004db3b0 f   InputScreens.obj
 0002:0002d4b0       _Analog0Paint              004db4b0 f   InputScreens.obj
 0002:0002d500       _Analog1Paint              004db500 f   InputScreens.obj
 0002:0002d550       _Analog2Paint              004db550 f   InputScreens.obj
 0002:0002d5a0       _Analog3Paint              004db5a0 f   InputScreens.obj
 0002:0002d5f0       _DisplayAnalog             004db5f0 f   InputScreens.obj
 0002:0002d880       _AnalogPaint               004db880 f   InputScreens.obj
 0002:0002e0b0       _DisplayDigital            004dc0b0 f   InputScreens.obj
 0002:0002e340       _DigitalPaint              004dc340 f   InputScreens.obj
 0002:0002e800       _DisplayDigital4           004dc800 f   InputScreens.obj
 0002:0002e850       _DisplayDigital5           004dc850 f   InputScreens.obj
 0002:0002e8a0       _Digital4Paint             004dc8a0 f   InputScreens.obj
 0002:0002e8f0       _Digital5Paint             004dc8f0 f   InputScreens.obj
 0002:0002e980       _InputsIgnoreNextKeyRelease 004dc980 f   InputScreens.obj
 0002:0002e9b0       _ScreenIDToInput           004dc9b0 f   InputScreens.obj
 0002:0002ea60       _GetAnalogInput            004dca60 f   InputScreens.obj
 0002:0002ec90       _GetDigitalText            004dcc90 f   InputScreens.obj
 0002:0002eda0       _GetAlarmTriggerText       004dcda0 f   InputScreens.obj
 0002:0002ee60       _InputCleanUpKeyboards     004dce60 f   InputScreens.obj
 0002:0002eeb0       _notifyModeChange          004dceb0 f   InterTask.obj
 0002:0002eee0       _notifyConfigChange        004dcee0 f   InterTask.obj
 0002:0002ef10       _notifyCameraChange        004dcf10 f   InterTask.obj
 0002:0002ef40       _notifyGPSSimChange        004dcf40 f   InterTask.obj
 0002:0002ef70       _notifyStartSet            004dcf70 f   InterTask.obj
 0002:0002efa0       _notifyFinishSet           004dcfa0 f   InterTask.obj
 0002:0002efd0       _notifyGPS                 004dcfd0 f   InterTask.obj
 0002:0002f000       _notifyTQM                 004dd000 f   InterTask.obj
 0002:0002f030       _tqmOpen                   004dd030 f   InterTask.obj
 0002:0002f070       _tqmWrite                  004dd070 f   InterTask.obj
 0002:0002f0b0       ??0Keyboard@@QAE@HHHHW4Keyboard_Type@@PAD1DHHJD@Z 004dd0b0 f   keyboard.obj
 0002:0002f3a0       ?SetupKeyboard@Keyboard@@QAEXW4Keyboard_Type@@@Z 004dd3a0 f   keyboard.obj
 0002:0002fe70       ?SetBtnStd@Keyboard@@AAEXJ@Z 004dde70 f   keyboard.obj
 0002:0002ff20       ?ChangeKeyboardCase@Keyboard@@QAEX_N@Z 004ddf20 f   keyboard.obj
 0002:00030060       ?GetValue@Keyboard@@QAEXPADH@Z 004de060 f   keyboard.obj
 0002:000300d0       ??1Keyboard@@QAE@XZ        004de0d0 f   keyboard.obj
 0002:00030180       ?_cbKeyboardCallback@@YAXPAUWM_MESSAGE@@@Z 004de180 f   keyboard.obj
 0002:00030610       ?SaveData@@YAXHPAVKeyboard@@@Z 004de610 f   keyboard.obj
 0002:00030700       _CreateKeyboard            004de700 f   KeyboardAccess.obj
 0002:00030820       _DestroyKeyboard           004de820 f   KeyboardAccess.obj
 0002:000308d0       ??_GKeyboard@@QAEPAXI@Z    004de8d0 f i KeyboardAccess.obj
 0002:00030940       _SetTachLEDs               004de940 f   LEDHandler.obj
 0002:00030ac0       _CenterOn                  004deac0 f   LEDHandler.obj
 0002:00030bd0       _Level1On                  004debd0 f   LEDHandler.obj
 0002:00030c50       _Level2On                  004dec50 f   LEDHandler.obj
 0002:00030cd0       _Level3On                  004decd0 f   LEDHandler.obj
 0002:00030d50       _Level3Off                 004ded50 f   LEDHandler.obj
 0002:00030dd0       _Level2Off                 004dedd0 f   LEDHandler.obj
 0002:00030e50       _Level1Off                 004dee50 f   LEDHandler.obj
 0002:00030ed0       _CenterOff                 004deed0 f   LEDHandler.obj
 0002:00030f50       _WarningLEDOff             004def50 f   LEDHandler.obj
 0002:00030ff0       _WarningLEDOn              004deff0 f   LEDHandler.obj
 0002:00031140       _InAlarm                   004df140 f   LEDHandler.obj
 0002:00031320       _SetWarningLED             004df320 f   LEDHandler.obj
 0002:000316d0       _SuspendEnvironmentalUpdates 004df6d0 f   LEDHandler.obj
 0002:00031710       _ResumeEnvironmentalUpdates 004df710 f   LEDHandler.obj
 0002:00031750       _AutoAdjustOn              004df750 f   LEDHandler.obj
 0002:00031780       _RecordAmbientLight        004df780 f   LEDHandler.obj
 0002:000317d0       _GetNormalizedLightIntensity 004df7d0 f   LEDHandler.obj
 0002:00031810       _SuspendLEDUpdates         004df810 f   LEDHandler.obj
 0002:000318b0       _ResumeLEDUpdates          004df8b0 f   LEDHandler.obj
 0002:00031960       _TurnOffLEDs               004df960 f   LEDHandler.obj
 0002:000319e0       _LEDSystemShutdown         004df9e0 f   LEDHandler.obj
 0002:00031a30       _CalculateTempCorrection   004dfa30 f   LEDHandler.obj
 0002:00031c90       _InitializeLEDStructures   004dfc90 f   LEDHandler.obj
 0002:00031d00       _InitializeLEDs            004dfd00 f   LEDHandler.obj
 0002:00031d30       _WarningPopupInit          004dfd30 f   LEDHandler.obj
 0002:00031e60       _CheckWarningPopups        004dfe60 f   LEDHandler.obj
 0002:00031f60       _CreateWarningPopup        004dff60 f   LEDHandler.obj
 0002:00032000       _DeleteWarningPopup        004e0000 f   LEDHandler.obj
 0002:00032100       _DrawWarningPopups         004e0100 f   LEDHandler.obj
 0002:00032220       _UpdateWarningPopup        004e0220 f   LEDHandler.obj
 0002:00032570       _DecreaseLEDBrightness     004e0570 f   LEDHandler.obj
 0002:000325e0       _IncreaseLEDBrightness     004e05e0 f   LEDHandler.obj
 0002:00032640       _DecreaseBacklightBrightness 004e0640 f   LEDHandler.obj
 0002:000326d0       _IncreaseBacklightBrightness 004e06d0 f   LEDHandler.obj
 0002:00032760       ??0LinearGauge@@QAE@HHHHMMHMHMPAD0HJ_N@Z 004e0760 f   LinearGauge.obj
 0002:000328a0       ??1LinearGauge@@QAE@XZ     004e08a0 f   LinearGauge.obj
 0002:000328e0       ?CreateGaugeBackground@LinearGauge@@AAEXXZ 004e08e0 f   LinearGauge.obj
 0002:00032e90       ?SetValue@LinearGauge@@QAEXM@Z 004e0e90 f   LinearGauge.obj
 0002:00033650       ?DrawBackground@LinearGauge@@QAEXXZ 004e1650 f   LinearGauge.obj
 0002:000336a0       __cbLinearGaugeCallback    004e16a0 f   LinearGaugeScreen.obj
 0002:00033b90       ??_GLinearGauge@@QAEPAXI@Z 004e1b90 f i LinearGaugeScreen.obj
 0002:00033c00       _DisplayMultiAnalogGaugesScreen 004e1c00 f   LinearGaugeScreen.obj
 0002:00033da0       _CreateLinearInputGauge    004e1da0 f   LinearGaugeScreen.obj
 0002:00034030       _GetPersonalizeEntryWindowHandle 004e2030 f   PersonalizeScreens.obj
 0002:00034070       _SetPersonalizeEntryWindowHandle 004e2070 f   PersonalizeScreens.obj
 0002:000340b0       _PersonalizeSaveData       004e20b0 f   PersonalizeScreens.obj
 0002:00034370       _LoadPersonalizationData   004e2370 f   PersonalizeScreens.obj
 0002:000344e0       _trimCR                    004e24e0 f   PersonalizeScreens.obj
 0002:00034560       _PersonalizeEntryCB        004e2560 f   PersonalizeScreens.obj
 0002:00034730       _PasswordTooSmallPopUp     004e2730 f   PersonalizeScreens.obj
 0002:000347a0       _DisplayNewKeyboardScreen  004e27a0 f   PersonalizeScreens.obj
 0002:00034b10       _PersonalizeIgnoreNextKeyRelease 004e2b10 f   PersonalizeScreens.obj
 0002:00034b40       _DeletePersonalizeKeyboards 004e2b40 f   PersonalizeScreens.obj
 0002:00034bb0       ??0PredictiveLapTimer@@QAE@HHHHMMJ@Z 004e2bb0 f   PredictiveLapTimer.obj
 0002:00034d00       ??1PredictiveLapTimer@@QAE@XZ 004e2d00 f   PredictiveLapTimer.obj
 0002:00034d70       ?CreateBackground@PredictiveLapTimer@@AAEXXZ 004e2d70 f   PredictiveLapTimer.obj
 0002:00034f90       ?DrawControl@PredictiveLapTimer@@QAEXXZ 004e2f90 f   PredictiveLapTimer.obj
 0002:00035480       ?GetRect@PredictiveLapTimer@@QAEXPAULCD_RECT@@@Z 004e3480 f i PredictiveLapTimer.obj
 0002:00035510       ?SetValue@PredictiveLapTimer@@QAEXM@Z 004e3510 f   PredictiveLapTimer.obj
 0002:00035560       ?SetValue@PredictiveLapTimer@@QAEXPAD@Z 004e3560 f   PredictiveLapTimer.obj
 0002:000355b0       ?DrawToMemArea@PredictiveLapTimer@@QAEJXZ 004e35b0 f   PredictiveLapTimer.obj
 0002:00035a30       _GetRaceSetupScreensWindowHandle 004e3a30 f   RaceSetupScreens.obj
 0002:00035a70       _SetRaceSetupScreensWindowHandle 004e3a70 f   RaceSetupScreens.obj
 0002:00035ab0       _RSSKillKeyboard           004e3ab0 f   RaceSetupScreens.obj
 0002:00035b60       _GetTrackSelectionWindowHandle 004e3b60 f   RaceSetupScreens.obj
 0002:00035bc0       _TryAgainKeyboard          004e3bc0 f   RaceSetupScreens.obj
 0002:00035d10       _DisplayKeyboard           004e3d10 f   RaceSetupScreens.obj
 0002:00035f10       _CreateNewEntry            004e3f10 f   RaceSetupScreens.obj
 0002:000360e0       _CheckForDuplicateName     004e40e0 f   RaceSetupScreens.obj
 0002:000362a0       _EditTypeToFileType        004e42a0 f   RaceSetupScreens.obj
 0002:00036310       _GetTrackNumber            004e4310 f   RaceSetupScreens.obj
 0002:000363c0       _FindLastTrackOfCurrentType 004e43c0 f   RaceSetupScreens.obj
 0002:000364e0       _AutoCreateNewTrack        004e44e0 f   RaceSetupScreens.obj
 0002:00036560       _CreateNewTrack            004e4560 f   RaceSetupScreens.obj
 0002:000366b0       _RenameCurrentEntry        004e46b0 f   RaceSetupScreens.obj
 0002:00036950       _ValidateName              004e4950 f   RaceSetupScreens.obj
 0002:000369c0       _UpdateList                004e49c0 f   RaceSetupScreens.obj
 0002:00036bb0       _RaceSetupScreensCallback  004e4bb0 f   RaceSetupScreens.obj
 0002:00037570       _ChangeVehicle             004e5570 f   RaceSetupScreens.obj
 0002:00037620       _FinishLoadingTrackData    004e5620 f   RaceSetupScreens.obj
 0002:00037690       _ExitTrackSelectionScreen  004e5690 f   RaceSetupScreens.obj
 0002:000376e0       _GetRadiusText             004e56e0 f   RaceSetupScreens.obj
 0002:000377a0       _SelectThisTrack           004e57a0 f   RaceSetupScreens.obj
 0002:00037940       _CheckWorkingTrackName     004e5940 f   RaceSetupScreens.obj
 0002:000379b0       _SetWorkingTrackName       004e59b0 f   RaceSetupScreens.obj
 0002:00037a10       _ClearWorkingTrackName     004e5a10 f   RaceSetupScreens.obj
 0002:00037a50       _DisplayDriverSelection    004e5a50 f   RaceSetupScreens.obj
 0002:00037dc0       _DisplayVehicleSelection   004e5dc0 f   RaceSetupScreens.obj
 0002:000381d0       _DisplayTrackSelection     004e61d0 f   RaceSetupScreens.obj
 0002:00038250       _FinishDisplayTrackSelection 004e6250 f   RaceSetupScreens.obj
 0002:00038870       _CreateSprites             004e6870 f   RaceSetupScreens.obj
 0002:00038910       _DeleteSprites             004e6910 f   RaceSetupScreens.obj
 0002:000389b0       _HideSprites               004e69b0 f   RaceSetupScreens.obj
 0002:00038a70       _UnhideSprites             004e6a70 f   RaceSetupScreens.obj
 0002:00038b10       _UpdateTrackList           004e6b10 f   RaceSetupScreens.obj
 0002:00038e20       _DisplayAlphaList          004e6e20 f   RaceSetupScreens.obj
 0002:00039170       _GetNumTracks              004e7170 f   RaceSetupScreens.obj
 0002:000391b0       _SetTrackTypeButtonText    004e71b0 f   RaceSetupScreens.obj
 0002:00039310       _TrackSelectionPaint       004e7310 f   RaceSetupScreens.obj
 0002:000393f0       _DisplayLapsSelection      004e73f0 f   RaceSetupScreens.obj
 0002:000396b0       _LapsSelectionPaint        004e76b0 f   RaceSetupScreens.obj
 0002:000397f0       _DriverSelectionPaint      004e77f0 f   RaceSetupScreens.obj
 0002:00039880       _VehicleSelectionPaint     004e7880 f   RaceSetupScreens.obj
 0002:00039950       _RaceSetupIgnoreNextKeyRelease 004e7950 f   RaceSetupScreens.obj
 0002:00039990       _GetSessionName            004e7990 f   RaceSetupScreens.obj
 0002:00039b10       _DeleteSession             004e7b10 f   RaceSetupScreens.obj
 0002:00039c10       _CreateLapsList            004e7c10 f   RaceSetupScreens.obj
 0002:00039d70       _CreateDummyLapList        004e7d70 f   RaceSetupScreens.obj
 0002:00039de0       _ReadAllSessionData        004e7de0 f   RaceSetupScreens.obj
 0002:0003a2d0       _GetBestLapAutocross       004e82d0 f   RaceSetupScreens.obj
 0002:0003a340       _CreateFileList            004e8340 f   RaceSetupScreens.obj
 0002:0003a6c0       _SaveBestLap               004e86c0 f   RaceSetupScreens.obj
 0002:0003a980       _GetBestLap                004e8980 f   RaceSetupScreens.obj
 0002:0003ab40       _GetAutoxTime              004e8b40 f   RaceSetupScreens.obj
 0002:0003ac00       _GetDragTime               004e8c00 f   RaceSetupScreens.obj
 0002:0003ad60       _DeleteFileList            004e8d60 f   RaceSetupScreens.obj
 0002:0003aef0       _DeleteBestLaps            004e8ef0 f   RaceSetupScreens.obj
 0002:0003af70       _GetBestLapNumber          004e8f70 f   RaceSetupScreens.obj
 0002:0003afb0       _parseName                 004e8fb0 f   RaceSetupScreens.obj
 0002:0003b180       _ValidFileName             004e9180 f   RaceSetupScreens.obj
 0002:0003b300       _ValidRaceSession          004e9300 f   RaceSetupScreens.obj
 0002:0003b490       _FindSelection             004e9490 f   RaceSetupScreens.obj
 0002:0003b5a0       _InvalidName               004e95a0 f   RaceSetupScreens.obj
 0002:0003b630       _ResetAllFileLists         004e9630 f   RaceSetupScreens.obj
 0002:0003b710       _CreateTrackList           004e9710 f   RaceSetupScreens.obj
 0002:0003b970       _SetTrackTableDefaultData  004e9970 f   RaceSetupScreens.obj
 0002:0003baf0       _SessionTypeToTrackType    004e9af0 f   RaceSetupScreens.obj
 0002:0003bbe0       _TrackTypeToSessionType    004e9be0 f   RaceSetupScreens.obj
 0002:0003bcb0       _FindFile                  004e9cb0 f   RaceSetupScreens.obj
 0002:0003bd50       _parseSessionName          004e9d50 f   RaceSetupScreens.obj
 0002:0003c160       _GetNextString             004ea160 f   RaceSetupScreens.obj
 0002:0003c1e0       _GetNextChar               004ea1e0 f   RaceSetupScreens.obj
 0002:0003c280       _GetNextNum                004ea280 f   RaceSetupScreens.obj
 0002:0003c320       _ValidSessionType          004ea320 f   RaceSetupScreens.obj
 0002:0003c3c0       _GetSessionCharacter       004ea3c0 f   RaceSetupScreens.obj
 0002:0003c4a0       _GetSessionData            004ea4a0 f   RaceSetupScreens.obj
 0002:0003c5e0       _GetSessionNameData        004ea5e0 f   RaceSetupScreens.obj
 0002:0003c720       _ClearSessionNameData      004ea720 f   RaceSetupScreens.obj
 0002:0003c780       _FindNewestFile            004ea780 f   RaceSetupScreens.obj
 0002:0003ca50       _RaceSetupPopup            004eaa50 f   RaceSetupScreens.obj
 0002:0003cd10       _TooManySessionsPopup      004ead10 f   RaceSetupScreens.obj
 0002:0003cdd0       _RSDeleteDriver            004eadd0 f   RaceSetupScreens.obj
 0002:0003cf10       _RSDeleteVehicle           004eaf10 f   RaceSetupScreens.obj
 0002:0003d050       _RSDeleteTrack             004eb050 f   RaceSetupScreens.obj
 0002:0003d230       _RSDeleteFile              004eb230 f   RaceSetupScreens.obj
 0002:0003d300       _GetSessionText            004eb300 f   RaceSetupScreens.obj
 0002:0003d380       _GetSelectedReviewModeText 004eb380 f   RaceSetupScreens.obj
 0002:0003d460       _InitReviewDisplayTypes    004eb460 f   RaceSetupScreens.obj
 0002:0003d4c0       _SetBestTimeButtonText     004eb4c0 f   RaceSetupScreens.obj
 0002:0003d9a0       _GetSessionDataString      004eb9a0 f   RaceSetupScreens.obj
 0002:0003da90       _GetStringNumber           004eba90 f   RaceSetupScreens.obj
 0002:0003dbf0       _IncrementDisplayType      004ebbf0 f   RaceSetupScreens.obj
 0002:0003dd90       _GetReviewSessionsWindowHandle 004ebd90 f   ReviewSessionsScreens.obj
 0002:0003ddd0       _SetReviewSessionsWindowHandle 004ebdd0 f   ReviewSessionsScreens.obj
 0002:0003de10       _ReviewSessionsScreensCallback 004ebe10 f   ReviewSessionsScreens.obj
 0002:0003e000       _DisplaySessionDetailsScreen 004ec000 f   ReviewSessionsScreens.obj
 0002:0003e1a0       _ReturnFromReviewSessionsScreen 004ec1a0 f   ReviewSessionsScreens.obj
 0002:0003e270       _DisplayDataPanel          004ec270 f   ReviewSessionsScreens.obj
 0002:0003e850       _CreateTextBox             004ec850 f   ReviewSessionsScreens.obj
 0002:0003e960       _SetReviewTypeButtonText   004ec960 f   ReviewSessionsScreens.obj
 0002:0003e9d0       _SessionDetailsPaint       004ec9d0 f   ReviewSessionsScreens.obj
 0002:0003eee0       _ReviewSessionsIgnoreNextKeyRelease 004ecee0 f   ReviewSessionsScreens.obj
 0002:0003ef10       ??0RPMSweep@@QAE@HHHHHHHHPAVAlarm@@_N@Z 004ecf10 f   RPMSweep.obj
 0002:0003f010       ??1RPMSweep@@QAE@XZ        004ed010 f   RPMSweep.obj
 0002:0003f070       ?DrawControl@RPMSweep@@QAEXXZ 004ed070 f   RPMSweep.obj
 0002:0003f170       ?CreateBackground@RPMSweep@@AAEXXZ 004ed170 f   RPMSweep.obj
 0002:00040500       ?atan@@YAMM@Z              004ee500 f i RPMSweep.obj
 0002:00040560       _atanf                     004ee560 f i RPMSweep.obj
 0002:000405d0       ?ceil@@YAMM@Z              004ee5d0 f i RPMSweep.obj
 0002:00040630       _ceilf                     004ee630 f i RPMSweep.obj
 0002:000406a0       ?SetValue@RPMSweep@@QAEXM@Z 004ee6a0 f   RPMSweep.obj
 0002:000407d0       ?tan@@YAMM@Z               004ee7d0 f i RPMSweep.obj
 0002:00040830       _tanf                      004ee830 f i RPMSweep.obj
 0002:000408a0       ?GetPixelsFromValue@RPMSweep@@AAEHM@Z 004ee8a0 f   RPMSweep.obj
 0002:00040930       ?SetGear@RPMSweep@@QAEXH@Z 004ee930 f   RPMSweep.obj
 0002:000409c0       ?GetXIntersect@RPMSweep@@AAEHMMMHHHHH@Z 004ee9c0 f   RPMSweep.obj
 0002:00040b40       ?sqrt@@YAMM@Z              004eeb40 f i RPMSweep.obj
 0002:00040ba0       _sqrtf                     004eeba0 f i RPMSweep.obj
 0002:00040c10       ?SweepHighlightConfigGauge@@YAXXZ 004eec10 f   RPMSweepScreen.obj
 0002:00040ce0       __cbRPMSweepCallback       004eece0 f   RPMSweepScreen.obj
 0002:00041660       _Display_RPMSweepScreen    004ef660 f   RPMSweepScreen.obj
 0002:00041c60       _IfRPMSweepConfigGaugePressed 004efc60 f   RPMSweepScreen.obj
 0002:00041ce0       ?UpdatePredictiveLapControl@@YAXPAVPredictiveLapTimer@@M@Z 004efce0 f   RPMSweepScreen.obj
 0002:00041eb0       _GetRunningGaugesWindowHandle 004efeb0 f   RunningGauges.obj
 0002:00041ef0       _SetRunningGaugesWindowHandle 004efef0 f   RunningGauges.obj
 0002:00041f30       _GaugesScreensCallback     004eff30 f   RunningGauges.obj
 0002:00041fc0       _RunningGauges             004effc0 f   RunningGauges.obj
 0002:00042130       _rgDeleteScreen            004f0130 f   RunningGauges.obj
 0002:000421c0       _DisplaySFKeyboard         004f01c0 f   SFScreens.obj
 0002:000424b0       _SFScreensSaveData         004f04b0 f   SFScreens.obj
 0002:00042600       _SFScreensCallback         004f0600 f   SFScreens.obj
 0002:00042780       _SFScreensIgnoreNextKeyRelease 004f0780 f   SFScreens.obj
 0002:000427b0       _DeleteSFScreensKeyboards  004f07b0 f   SFScreens.obj
 0002:00042820       _ValidateSFCoordinates     004f0820 f   SFScreens.obj
 0002:00042bb0       _InvalidSFDataPopUp        004f0bb0 f   SFScreens.obj
 0002:00042c20       _DisplayWaitingForCameraScreen 004f0c20 f   SFScreens.obj
 0002:00042f50       _DisplayAutoXStageScreen   004f0f50 f   SFScreens.obj
 0002:00043320       _DisplayDragStageScreen    004f1320 f   SFScreens.obj
 0002:00043550       _SetDistanceButtonGraphics 004f1550 f   SFScreens.obj
 0002:000436b0       _SetGaugeButtonGraphics    004f16b0 f   SFScreens.obj
 0002:000438a0       _DisplayLaunchScreen       004f18a0 f   SFScreens.obj
 0002:00043b40       _LaunchDetected            004f1b40 f   SFScreens.obj
 0002:00043ba0       _DisplayTapAtSFScreen      004f1ba0 f   SFScreens.obj
 0002:00043ca0       _GetSFWindowHandle         004f1ca0 f   SFScreens.obj
 0002:00043ce0       _GetLaunchScreenWindowHandle 004f1ce0 f   SFScreens.obj
 0002:00043d20       _GetStageWindowHandle      004f1d20 f   SFScreens.obj
 0002:00043e20       _DisplayWaitingForSatellites 004f1e20 f   SFScreens.obj
 0002:00044160       _HaveSatelliteReception    004f2160 f   SFScreens.obj
 0002:000441e0       _KillWaitingForSatelliteScreen 004f21e0 f   SFScreens.obj
 0002:000442b0       _GetDragAutoXGaugesWindowHandle 004f22b0 f   SFScreens.obj
 0002:000442f0       _DragAutoXGauges           004f22f0 f   SFScreens.obj
 0002:000443e0       _DisplayStdListScreen      004f23e0 f   StandardList.obj
 0002:00044cd0       _DisplayTripleListScreen   004f2cd0 f   StandardList.obj
 0002:00045090       _GetButtonID               004f3090 f   StandardList.obj
 0002:00045140       _GetSystemSettingsWindowHandle 004f3140 f   SystemSettingsScreens.obj
 0002:00045180       _SetSystemSettingsWindowHandle 004f3180 f   SystemSettingsScreens.obj
 0002:000451c0       _SystemSettingsScreensCallback 004f31c0 f   SystemSettingsScreens.obj
 0002:00045cc0       _DisplayLapMeter           004f3cc0 f   SystemSettingsScreens.obj
 0002:00045d40       _DisplayDisplaySelection   004f3d40 f   SystemSettingsScreens.obj
 0002:00045f10       _setOnOffButtonColors      004f3f10 f   SystemSettingsScreens.obj
 0002:00046060       _DisplayAutoStartSelection 004f4060 f   SystemSettingsScreens.obj
 0002:000462a0       _GetAutoOnText             004f42a0 f   SystemSettingsScreens.obj
 0002:00046320       _GetLapMeterText           004f4320 f   SystemSettingsScreens.obj
 0002:00046360       _DisplayUnitsSelection     004f4360 f   SystemSettingsScreens.obj
 0002:00046620       _GetGPSSimulateStr         004f4620 f   SystemSettingsScreens.obj
 0002:00046680       _GetDaylightSavingsStr     004f4680 f   SystemSettingsScreens.obj
 0002:000466e0       _DisplayTimeSelection      004f46e0 f   SystemSettingsScreens.obj
 0002:00046980       _DisplayStorageSelection   004f4980 f   SystemSettingsScreens.obj
 0002:00046ae0       _LapMeterPaint             004f4ae0 f   SystemSettingsScreens.obj
 0002:00046b90       _AutoStartSelectionPaint   004f4b90 f   SystemSettingsScreens.obj
 0002:00046f50       _PaintRecordSpeed          004f4f50 f   SystemSettingsScreens.obj
 0002:000470b0       _GetRecordStopTime         004f50b0 f   SystemSettingsScreens.obj
 0002:00047120       _SetRecordStopTime         004f5120 f   SystemSettingsScreens.obj
 0002:00047190       _GetRecordStopTimeString   004f5190 f   SystemSettingsScreens.obj
 0002:00047210       _GetRecordSpeed            004f5210 f   SystemSettingsScreens.obj
 0002:00047250       _SetRecordSpeed            004f5250 f   SystemSettingsScreens.obj
 0002:000472a0       _DisplayRecordSpeed        004f52a0 f   SystemSettingsScreens.obj
 0002:000475a0       _GetRecordSpeedString      004f55a0 f   SystemSettingsScreens.obj
 0002:000477f0       _DisplaySelectionPaint     004f57f0 f   SystemSettingsScreens.obj
 0002:00047a10       _UnitsSelectionPaint       004f5a10 f   SystemSettingsScreens.obj
 0002:00047b50       _TimeSelectionPaint        004f5b50 f   SystemSettingsScreens.obj
 0002:00047c60       _StorageSelectionPaint     004f5c60 f   SystemSettingsScreens.obj
 0002:00047d30       _SystemSettingsIgnoreNextKeyRelease 004f5d30 f   SystemSettingsScreens.obj
 0002:00047d70       _SystemSettingsPopUp       004f5d70 f   SystemSettingsScreens.obj
 0002:000482b0       _DeleteSystemSettingsPopUp 004f62b0 f   SystemSettingsScreens.obj
 0002:00048310       _nonModalPopupCallback     004f6310 f   SystemSettingsScreens.obj
 0002:00048470       _FormatSDCard              004f6470 f   SystemSettingsScreens.obj
 0002:00048510       _RestoreFactoryDefaults    004f6510 f   SystemSettingsScreens.obj
 0002:00048620       _EraseAllSessions          004f6620 f   SystemSettingsScreens.obj
 0002:00048810       _ClearNameStruct           004f6810 f   SystemSettingsScreens.obj
 0002:00048880       _ValidSessionFileName      004f6880 f   SystemSettingsScreens.obj
 0002:00048950       _PersonalizationCB         004f6950 f   SystemSettingsScreens.obj
 0002:00048ba0       _DisplayPersonalizationScreen 004f6ba0 f   SystemSettingsScreens.obj
 0002:00048c20       _ReturnToPersonalizationScreen 004f6c20 f   SystemSettingsScreens.obj
 0002:00049530       _PersonalizeScreenExit     004f7530 f   SystemSettingsScreens.obj
 0002:000495e0       _WiFiChangedPopUp          004f75e0 f   SystemSettingsScreens.obj
 0002:00049650       _SetCurrentTempButtonText  004f7650 f   SystemSettingsScreens.obj
 0002:000497e0       _SSSButtonToScreenID       004f77e0 f   SystemSettingsScreens.obj
 0002:000498b0       _CylindersToIndex          004f78b0 f   TachSetupScreens.obj
 0002:00049940       _IndexToCylinders          004f7940 f   TachSetupScreens.obj
 0002:000499d0       _GetCylindersText          004f79d0 f   TachSetupScreens.obj
 0002:00049a30       _GetTachSetupWindowHandle  004f7a30 f   TachSetupScreens.obj
 0002:00049a70       _SetTachSetupWindowHandle  004f7a70 f   TachSetupScreens.obj
 0002:00049ab0       _TachSetupScreensCallback  004f7ab0 f   TachSetupScreens.obj
 0002:00049f00       _DisplayWarningRPM         004f7f00 f   TachSetupScreens.obj
 0002:0004a030       _BuildRPMList              004f8030 f   TachSetupScreens.obj
 0002:0004a100       _DisplayRedline            004f8100 f   TachSetupScreens.obj
 0002:0004a1c0       _DisplayCylinders          004f81c0 f   TachSetupScreens.obj
 0002:0004a250       _DisplayPowerEnd           004f8250 f   TachSetupScreens.obj
 0002:0004a280       _DisplayMaxRPM             004f8280 f   TachSetupScreens.obj
 0002:0004a350       _WarningRPMPaint           004f8350 f   TachSetupScreens.obj
 0002:0004a400       _RedlinePaint              004f8400 f   TachSetupScreens.obj
 0002:0004a4b0       _CylindersPaint            004f84b0 f   TachSetupScreens.obj
 0002:0004a560       _PowerEndPaint             004f8560 f   TachSetupScreens.obj
 0002:0004a610       _MaxRPMPaint               004f8610 f   TachSetupScreens.obj
 0002:0004a700       _TachSetupIgnoreNextKeyRelease 004f8700 f   TachSetupScreens.obj
 0002:0004a730       _CreateTracks              004f8730 f   TrackDetect.obj
 0002:0004a7e0       _ReadTracks                004f87e0 f   TrackDetect.obj
 0002:0004aae0       _AddTrack                  004f8ae0 f   TrackDetect.obj
 0002:0004ae50       _DeleteTrack               004f8e50 f   TrackDetect.obj
 0002:0004afb0       _CurrentTrackInRange       004f8fb0 f   TrackDetect.obj
 0002:0004b110       _GetClosestTracks          004f9110 f   TrackDetect.obj
 0002:0004b5f0       _UpdateSFLines             004f95f0 f   TrackDetect.obj
 0002:0004ba20       _Display_TrackSettingMainScreen 004f9a20 f   TrackSettingsScreens.obj
 0002:0004be80       _GetTrackSettingMainWindowHandle 004f9e80 f   TrackSettingsScreens.obj
 0002:0004bec0       _SetTrackSettingMainWindowHandle 004f9ec0 f   TrackSettingsScreens.obj
 0002:0004bf00       _GetTrackSettingsWindowHandle 004f9f00 f   TrackSettingsScreens.obj
 0002:0004bf40       _SetTrackSettingsWindowHandle 004f9f40 f   TrackSettingsScreens.obj
 0002:0004bf80       _TrackSettingsScreensCallback 004f9f80 f   TrackSettingsScreens.obj
 0002:0004c490       _TSButtonToScreenID        004fa490 f   TrackSettingsScreens.obj
 0002:0004c5b0       _DisplayTrackType          004fa5b0 f   TrackSettingsScreens.obj
 0002:0004c640       _DisplayHoldTime           004fa640 f   TrackSettingsScreens.obj
 0002:0004c6c0       _TrackTypePaint            004fa6c0 f   TrackSettingsScreens.obj
 0002:0004c770       _HoldTimePaint             004fa770 f   TrackSettingsScreens.obj
 0002:0004c820       _SetLatButtonText          004fa820 f   TrackSettingsScreens.obj
 0002:0004c8f0       _SetLongButtonText         004fa8f0 f   TrackSettingsScreens.obj
 0002:0004c9c0       _SetHeadButtonText         004fa9c0 f   TrackSettingsScreens.obj
 0002:0004ca90       _SetFinishLatButtonText    004faa90 f   TrackSettingsScreens.obj
 0002:0004cb70       _SetFinishLongButtonText   004fab70 f   TrackSettingsScreens.obj
 0002:0004cc50       _SetFinishHeadButtonText   004fac50 f   TrackSettingsScreens.obj
 0002:0004cd30       _DisplayStartFinish        004fad30 f   TrackSettingsScreens.obj
 0002:0004d0f0       _StartFinishPaint          004fb0f0 f   TrackSettingsScreens.obj
 0002:0004d3e0       _OpenCourse                004fb3e0 f   TrackSettingsScreens.obj
 0002:0004d440       _NeedToEditStartFinish     004fb440 f   TrackSettingsScreens.obj
 0002:0004d4b0       _NeedToDisplayFinish       004fb4b0 f   TrackSettingsScreens.obj
 0002:0004d550       _DisplayResetPL            004fb550 f   TrackSettingsScreens.obj
 0002:0004d660       _ResetPLPaint              004fb660 f   TrackSettingsScreens.obj
 0002:0004d8b0       _TrackSettingsIgnoreNextKeyRelease 004fb8b0 f   TrackSettingsScreens.obj
 0002:0004d8f0       _okToResetSF               004fb8f0 f   TrackSettingsScreens.obj
 0002:0004d960       _CourseTypeToIndex         004fb960 f   TrackSettingsScreens.obj
 0002:0004da10       _IndexToCourseType         004fba10 f   TrackSettingsScreens.obj
 0002:0004dad0       _formatElapsedTime         004fbad0 f   Utilities.obj
 0002:0004dc40       _formatLapTime             004fbc40 f   Utilities.obj
 0002:0004ddb0       _trim                      004fbdb0 f   Utilities.obj
 0002:0004de80       _trimn                     004fbe80 f   Utilities.obj
 0002:0004dee0       _EnsurePositive            004fbee0 f   Utilities.obj
 0002:0004df50       _GetPredictiveScale        004fbf50 f   Utilities.obj
 0002:0004e000       _iSort                     004fc000 f   Utilities.obj
 0002:0004e0e0       _fSort                     004fc0e0 f   Utilities.obj
 0002:0004e1d0       _CalculateScaleTop         004fc1d0 f   Utilities.obj
 0002:0004e240       _kmc_stricmp               004fc240 f   Utilities.obj
 0002:0004e330       _Display_VehicleSettingMainScreen 004fc330 f   VehicleSettingsScreens.obj
 0002:0004e780       _GetVehicleSettingMainWindowHandle 004fc780 f   VehicleSettingsScreens.obj
 0002:0004e7c0       _SetVehicleSettingMainWindowHandle 004fc7c0 f   VehicleSettingsScreens.obj
 0002:0004e800       _GetVehicleSettingsWindowHandle 004fc800 f   VehicleSettingsScreens.obj
 0002:0004e840       _SetVehicleSettingsWindowHandle 004fc840 f   VehicleSettingsScreens.obj
 0002:0004e880       _VehicleSettingsScreensCallback 004fc880 f   VehicleSettingsScreens.obj
 0002:0004f440       _TestCameras               004fd440 f   VehicleSettingsScreens.obj
 0002:0004f630       _DisplayTachSelection      004fd630 f   VehicleSettingsScreens.obj
 0002:0004f9e0       _SetRedlineButtonText      004fd9e0 f   VehicleSettingsScreens.obj
 0002:0004fab0       _SetYellowButtonText       004fdab0 f   VehicleSettingsScreens.obj
 0002:0004fb80       _SetNumCylsButtonText      004fdb80 f   VehicleSettingsScreens.obj
 0002:0004fbe0       _ResetSliderParams         004fdbe0 f   VehicleSettingsScreens.obj
 0002:0004fd20       _TachSelectionPaint        004fdd20 f   VehicleSettingsScreens.obj
 0002:00050040       _DisplayWeightSelection    004fe040 f   VehicleSettingsScreens.obj
 0002:00050170       _RSDisplayInputsSelection  004fe170 f   VehicleSettingsScreens.obj
 0002:000501f0       _DisplayInputsSelection    004fe1f0 f   VehicleSettingsScreens.obj
 0002:000504e0       _InputsSelectionPaint      004fe4e0 f   VehicleSettingsScreens.obj
 0002:00050800       _DisplayGearRatio          004fe800 f   VehicleSettingsScreens.obj
 0002:00050a20       _GearRatioPaint            004fea20 f   VehicleSettingsScreens.obj
 0002:00051020       _WeightSelectionPaint      004ff020 f   VehicleSettingsScreens.obj
 0002:00051100       _GetAeroGripWindowHandle   004ff100 f   VehicleSettingsScreens.obj
 0002:00051140       _CreateAeroGripScreen      004ff140 f   VehicleSettingsScreens.obj
 0002:00051320       _AeroGripScreenCallback    004ff320 f   VehicleSettingsScreens.obj
 0002:00051520       _AeroGripScreenPaint       004ff520 f   VehicleSettingsScreens.obj
 0002:000517e0       _DisplayCarMetricsSelection 004ff7e0 f   VehicleSettingsScreens.obj
 0002:00051b40       _CarMetricsSelectionPaint  004ffb40 f   VehicleSettingsScreens.obj
 0002:00051e40       _UpdateAll                 004ffe40 f   VehicleSettingsScreens.obj
 0002:00051ea0       _UpdateTime                004ffea0 f   VehicleSettingsScreens.obj
 0002:00052020       _UpdateDistance            00500020 f   VehicleSettingsScreens.obj
 0002:00052250       _UpdateRPM                 00500250 f   VehicleSettingsScreens.obj
 0002:00052340       _DisplayCameraSetupSelection 00500340 f   VehicleSettingsScreens.obj
 0002:00052580       _CameraSetupPaint          00500580 f   VehicleSettingsScreens.obj
 0002:000529c0       _CustomDelay               005009c0 f   VehicleSettingsScreens.obj
 0002:00052a80       _GetFullCameraText         00500a80 f   VehicleSettingsScreens.obj
 0002:00052b60       _GetCameraName             00500b60 f   VehicleSettingsScreens.obj
 0002:00052c00       _GetTraqdashCameraName     00500c00 f   VehicleSettingsScreens.obj
 0002:00052c90       _ValidateCameraData        00500c90 f   VehicleSettingsScreens.obj
 0002:00052dd0       _CreateTraqdashCamScreen   00500dd0 f   VehicleSettingsScreens.obj
 0002:000531c0       _SetCameraButtonColors     005011c0 f   VehicleSettingsScreens.obj
 0002:00053320       _GetTraqdashCamWindowHandle 00501320 f   VehicleSettingsScreens.obj
 0002:00053590       _TraqdashCamPaint          00501590 f   VehicleSettingsScreens.obj
 0002:00053950       _VehicleSettingsIgnoreNextKeyRelease 00501950 f   VehicleSettingsScreens.obj
 0002:00053990       _ValidateVehicleData       00501990 f   VehicleSettingsScreens.obj
 0002:00053c00       _ValidateCamera            00501c00 f   VehicleSettingsScreens.obj
 0002:00053e30       _ValidateDiffRatio         00501e30 f   VehicleSettingsScreens.obj
 0002:00053eb0       _AutoFixTach               00501eb0 f   VehicleSettingsScreens.obj
 0002:00053ff0       _AutoFixGears              00501ff0 f   VehicleSettingsScreens.obj
 0002:000541c0       _AutoFixWeight             005021c0 f   VehicleSettingsScreens.obj
 0002:00054200       _VehicleSettingsPopUp      00502200 f   VehicleSettingsScreens.obj
 0002:00054420       _SetAnalogColorAndText     00502420 f   VehicleSettingsScreens.obj
 0002:000545d0       _SetDigitalColorAndText    005025d0 f   VehicleSettingsScreens.obj
 0002:000546e0       _GetCameraSelectionWindowHandle 005026e0 f   VehicleSettingsScreens.obj
 0002:00054720       _CreateCameraSelection     00502720 f   VehicleSettingsScreens.obj
 0002:00054ac0       _CameraSelectionCallback   00502ac0 f   VehicleSettingsScreens.obj
 0002:00054c30       _GetCameraDelayWindowHandle 00502c30 f   VehicleSettingsScreens.obj
 0002:00054c70       _CreateCameraDelay         00502c70 f   VehicleSettingsScreens.obj
 0002:00054f60       _SetCameraDelay            00502f60 f   VehicleSettingsScreens.obj
 0002:00054fc0       _CameraDelayCallback       00502fc0 f   VehicleSettingsScreens.obj
 0002:00055270       _UpdateCameraVariables     00503270 f   VehicleSettingsScreens.obj
 0002:000552c0       _GetSUCam                  005032c0 f   VehicleSettingsScreens.obj
 0002:00055300       _GetTDCam                  00503300 f   VehicleSettingsScreens.obj
 0002:00055340       _opendir                   00503340 f   dirent.obj
 0002:00055580       _closedir                  00503580 f   dirent.obj
 0002:00055630       _readdir                   00503630 f   dirent.obj
 0002:000557d0       _rewinddir                 005037d0 f   dirent.obj
 0002:000558a0       _telldir                   005038a0 f   dirent.obj
 0002:00055930       _seekdir                   00503930 f   dirent.obj
 0002:000559f0       _GUI_X_Config              005039f0 f   GUIConf.obj
 0002:00055a60       _LCD_X_Config              00503a60 f   LCDConf.obj
 0002:00055b00       _LCD_X_DisplayDriver       00503b00 f   LCDConf.obj
 0002:00055cf0       _SIM_X_Config              00503cf0 f   SIMConf.obj
 0002:00055d60       _SIM_Powerkey_CB           00503d60 f   SIMConf.obj
 0002:00055db0       _SIM_Init                  00503db0 f   SIMConf.obj
 0002:00055e10       _SIM_Tick                  00503e10 f   SIMConf.obj
 0002:00055e50       _GUI_AA_DrawArc            00503e50 f   GUIAA_Arc.obj
 0002:00056030       _GUIPROPAA_DispChar        00504030 f   GUIAA_Char.obj
 0002:00056420       _GUIPROPAA_GetCharDistX    00504420 f   GUIAA_Char.obj
 0002:000564e0       _GUIPROPAA_GetFontInfo     005044e0 f   GUIAA_Char.obj
 0002:00056530       _GUIPROPAA_IsInFont        00504530 f   GUIAA_Char.obj
 0002:000565a0       _GUI_AA__DrawCharAA2       005045a0 f   GUIAA_Char2.obj
 0002:00056b00       _GUIPROP_AA2_DispChar      00504b00 f   GUIAA_Char2.obj
 0002:00056c90       _GUIPROP_AA2_GetCharDistX  00504c90 f   GUIAA_Char2.obj
 0002:00056d30       _GUIPROP_AA2_GetFontInfo   00504d30 f   GUIAA_Char2.obj
 0002:00056d80       _GUIPROP_AA2_IsInFont      00504d80 f   GUIAA_Char2.obj
 0002:00056df0       _GUIPROP_AA2_EXT_DispChar  00504df0 f   GUIAA_Char2Ext.obj
 0002:000576b0       _GUI_AA__DrawCharAA4       005056b0 f   GUIAA_Char4.obj
 0002:00057ab0       _GUIPROP_AA4_DispChar      00505ab0 f   GUIAA_Char4.obj
 0002:00057c40       _GUIPROP_AA4_GetCharDistX  00505c40 f   GUIAA_Char4.obj
 0002:00057ce0       _GUIPROP_AA4_GetFontInfo   00505ce0 f   GUIAA_Char4.obj
 0002:00057d30       _GUIPROP_AA4_IsInFont      00505d30 f   GUIAA_Char4.obj
 0002:00057da0       _GUIPROP_AA4_EXT_DispChar  00505da0 f   GUIAA_Char4Ext.obj
 0002:00058660       _GL_FillCircleAA_HiRes     00506660 f   GUIAA_Circle.obj
 0002:000588e0       _GUI_AA_FillCircle         005068e0 f   GUIAA_Circle.obj
 0002:00058a50       _GUI_AA_DrawRoundedRect    00506a50 f   GUIAA_DrawRoundedRect.obj
 0002:00058c10       _GUI_AA_FillRoundedRect    00506c10 f   GUIAA_FillRoundedRect.obj
 0002:00059090       _GUI_AA_Init               00507090 f   GUIAA_Lib.obj
 0002:00059770       _GUI_AA_Init_HiRes         00507770 f   GUIAA_Lib.obj
 0002:000597f0       _GUI_AA_SetFactor          005077f0 f   GUIAA_Lib.obj
 0002:00059840       _GUI_AA_GetFactor          00507840 f   GUIAA_Lib.obj
 0002:00059880       _GUI_AA_DisableHiRes       00507880 f   GUIAA_Lib.obj
 0002:000598c0       _GUI_AA_EnableHiRes        005078c0 f   GUIAA_Lib.obj
 0002:00059900       _GUI_AA_HiRes2Pixel        00507900 f   GUIAA_Lib.obj
 0002:00059970       _GUI_AA_Exit               00507970 f   GUIAA_Lib.obj
 0002:000599d0       _GUI_AA_DrawLine           005079d0 f   GUIAA_Line.obj
 0002:00059ca0       _GUI_AA_FillPolygon        00507ca0 f   GUIAA_Poly.obj
 0002:0005a060       _GUI_AA_DrawPolyOutlineEx  00508060 f   GUIAA_PolyOut.obj
 0002:0005a140       _GUI_AA_DrawPolyOutline    00508140 f   GUIAA_PolyOut.obj
 0002:0005c4a0       _LCD_Color2Index_8666      0050a4a0 f   GUICC_8666.obj
 0002:0005c5c0       _LCD_Index2Color_8666      0050a5c0 f   GUICC_8666.obj
 0002:0005e030       _LCD_SetLUTEx              0050c030 f   GUICC_0.obj
 0002:0005e0c0       _LCD_SetLUT                0050c0c0 f   GUICC_0.obj
 0002:0005e220       _LCD_Index2Color_555       0050c220 f   GUICC_555_Index2Color.obj
 0002:0005e2e0       _LCD_Index2Color_565       0050c2e0 f   GUICC_565_Index2Color.obj
 0002:0005e4a0       _LCD_Index2Color_8888      0050c4a0 f   GUICC_8888_Index2Color.obj
 0002:0005e4e0       _LCD_Index2Color_888       0050c4e0 f   GUICC_888_Index2Color.obj
 0002:0005e520       _LCD_Index2Color_M555      0050c520 f   GUICC_M555_Index2Color.obj
 0002:0005e5e0       _LCD_Index2Color_M565      0050c5e0 f   GUICC_M565_Index2Color.obj
 0002:0005e6a0       _LCD_Index2Color_M888      0050c6a0 f   GUICC_M888_Index2Color.obj
 0002:0005e720       _GUI_MoveRel               0050c720 f   GUI_2DLib.obj
 0002:0005e780       _GL_MoveTo                 0050c780 f   GUI_2DLib.obj
 0002:0005e7d0       _GUI_MoveTo                0050c7d0 f   GUI_2DLib.obj
 0002:0005e840       _GUI_DrawRect              0050c840 f   GUI_2DLib.obj
 0002:0005ea30       _GUI_AddBin                0050ca30 f   GUI_AddBin.obj
 0002:0005eb00       _GUI_AddDec                0050cb00 f   GUI_AddDec.obj
 0002:0005eb60       _GUI_AddDecMin             0050cb60 f   GUI_AddDecMin.obj
 0002:0005ebd0       _GUI_Long2Len              0050cbd0 f   GUI_AddDecShift.obj
 0002:0005ec80       _GUI_AddSign               0050cc80 f   GUI_AddDecShift.obj
 0002:0005ece0       _GUI_AddDecShift           0050cce0 f   GUI_AddDecShift.obj
 0002:0005ef40       _GUI_AddHex                0050cf40 f   GUI_AddHex.obj
 0002:0005eff0       _GUI_ALLOC_p2h             0050cff0 f   GUI_Alloc.obj
 0002:0005f040       _GUI_ALLOC_FreeFixedBlock  0050d040 f   GUI_Alloc.obj
 0002:0005f0b0       _GUI_ALLOC_GetFixedBlock   0050d0b0 f   GUI_Alloc.obj
 0002:0005ff70       _GUI_ALLOC_AllocNoInit     0050df70 f   GUI_Alloc.obj
 0002:00060260       _GUI_ALLOC_h2p             0050e260 f   GUI_Alloc.obj
 0002:00060300       _GUI_ALLOC_LockH           0050e300 f   GUI_Alloc.obj
 0002:00060360       _GUI_ALLOC_UnlockH         0050e360 f   GUI_Alloc.obj
 0002:000603d0       _GUI_ALLOC_GetNumFreeBytes 0050e3d0 f   GUI_Alloc.obj
 0002:00060420       _GUI_ALLOC_GetNumFreeBlocks 0050e420 f   GUI_Alloc.obj
 0002:00060470       _GUI_ALLOC_GetNumUsedBytes 0050e470 f   GUI_Alloc.obj
 0002:000604d0       _GUI_ALLOC_GetNumUsedBlocks 0050e4d0 f   GUI_Alloc.obj
 0002:00060530       _GUI_ALLOC_GetMaxSize      0050e530 f   GUI_Alloc.obj
 0002:000606f0       _GUI_ALLOC_RequestSize     0050e6f0 f   GUI_Alloc.obj
 0002:00060780       _GUI_ALLOC_Lock            0050e780 f   GUI_Alloc.obj
 0002:000607c0       _GUI_ALLOC_Unlock          0050e7c0 f   GUI_Alloc.obj
 0002:00060800       _GUI_ALLOC_AssignMemory    0050e800 f   GUI_Alloc.obj
 0002:00060850       _GUI_ALLOC_SetAvBlockSize  0050e850 f   GUI_Alloc.obj
 0002:000608a0       _GUI_ALLOC_GetSize         0050e8a0 f   GUI_Alloc.obj
 0002:00060960       _GUI_ALLOC_Free            0050e960 f   GUI_Alloc.obj
 0002:00060b00       _GUI_ALLOC_FreePtr         0050eb00 f   GUI_Alloc.obj
 0002:00060b60       _GUI_ALLOC_FreePtrArray    0050eb60 f   GUI_Alloc.obj
 0002:00060be0       _GUI_ALLOC_AllocInit       0050ebe0 f   GUI_ALLOC_AllocInit.obj
 0002:00060ca0       _GUI_ALLOC_AllocZero       0050eca0 f   GUI_ALLOC_AllocZero.obj
 0002:00060d20       _GL_DrawArc                0050ed20 f   GUI_Arc.obj
 0002:000617c0       _GUI_DrawArc               0050f7c0 f   GUI_Arc.obj
 0002:00061f50       _GUI_BMP__ReadPalette      0050ff50 f   GUI_BMP.obj
 0002:00062070       _GUI_BMP__ReadData         00510070 f   GUI_BMP.obj
 0002:00062120       _GUI_BMP__GetData          00510120 f   GUI_BMP.obj
 0002:00062170       _GUI_BMP__Init             00510170 f   GUI_BMP.obj
 0002:000623f0       _GUI_BMP_GetXSizeEx        005103f0 f   GUI_BMP.obj
 0002:000624d0       _GUI_BMP_GetXSize          005104d0 f   GUI_BMP.obj
 0002:00062570       _GUI_BMP_GetYSizeEx        00510570 f   GUI_BMP.obj
 0002:00062660       _GUI_BMP_GetYSize          00510660 f   GUI_BMP.obj
 0002:00062700       _GUI_BMP_DrawEx            00510700 f   GUI_BMP.obj
 0002:00064080       _GUI_BMP_Draw              00512080 f   GUI_BMP.obj
 0002:00064130       _GUI_BMP_DrawScaledEx      00512130 f   GUI_BMP_DrawScaled.obj
 0002:00065dc0       _GUI_BMP_DrawScaled        00513dc0 f   GUI_BMP_DrawScaled.obj
 0002:00065e70       _GUI_BMP_SerializeEx       00513e70 f   GUI_BMP_Serialize.obj
 0002:00066420       _GUI_BMP_Serialize         00514420 f   GUI_BMP_Serialize.obj
 0002:00066490       _GUI_CalcColorDist         00514490 f   GUI_CalcColorDist.obj
 0002:000665a0       _GUI_DispNextLine          005145a0 f   GUI_Char.obj
 0002:00066610       _GL_DispChar               00514610 f   GUI_Char.obj
 0002:000666c0       _GUI_GetYAdjust            005146c0 f   GUI_Char.obj
 0002:00066780       _GUI_GetFontDistY          00514780 f   GUI_Char.obj
 0002:000667d0       _GUI_GetCharDistX          005147d0 f   GUI_Char.obj
 0002:00066880       _GUI__GetLineNumChars      00514880 f   GUI_CharLine.obj
 0002:00066970       _GUI__GetOverlap           00514970 f   GUI_CharLine.obj
 0002:00066a60       _GUI__GetLineDistX         00514a60 f   GUI_CharLine.obj
 0002:00066b80       _GUI__DispLine             00514b80 f   GUI_CharLine.obj
 0002:00066e60       _GUIMONO_DispChar          00514e60 f   GUI_CharM.obj
 0002:000671e0       _GUIMONO_GetCharDistX      005151e0 f   GUI_CharM.obj
 0002:00067230       _GUIMONO_GetFontInfo       00515230 f   GUI_CharM.obj
 0002:00067280       _GUIMONO_IsInFont          00515280 f   GUI_CharM.obj
 0002:00067360       _GUIPROP__FindChar         00515360 f   GUI_CharP.obj
 0002:000673d0       _GUIPROP_DispChar          005153d0 f   GUI_CharP.obj
 0002:00067610       _GUIPROP_GetCharDistX      00515610 f   GUI_CharP.obj
 0002:000676c0       _GUIPROP_GetFontInfo       005156c0 f   GUI_CharP.obj
 0002:00067710       _GUIPROP_IsInFont          00515710 f   GUI_CharP.obj
 0002:00067780       _GUIPROP_EXT__FindChar     00515780 f   GUI_CharPExt.obj
 0002:000677f0       _GUIPROP_EXT_DispChar      005157f0 f   GUI_CharPExt.obj
 0002:00067980       _GUIPROP_EXT_GetCharDistX  00515980 f   GUI_CharPExt.obj
 0002:00067a40       _GUIPROP_EXT_GetFontInfo   00515a40 f   GUI_CharPExt.obj
 0002:00067a90       _GUIPROP_EXT_IsInFont      00515a90 f   GUI_CharPExt.obj
 0002:00067b00       _GUIPROP_EXT_GetCharInfo   00515b00 f   GUI_CharPExt.obj
 0002:00067bb0       _GUIPROP_FRM_DispChar      00515bb0 f   GUI_CharPFrm.obj
 0002:00067e50       _GUIPROP_FRM_GetCharDistX  00515e50 f   GUI_CharPFrm.obj
 0002:00067f10       _GUIPROP_FRM_GetFontInfo   00515f10 f   GUI_CharPFrm.obj
 0002:00067f60       _GUIPROP_FRM_IsInFont      00515f60 f   GUI_CharPFrm.obj
 0002:00067fd0       _GL_DrawCircle             00515fd0 f   GUI_Circ.obj
 0002:000682b0       _GUI_DrawCircle            005162b0 f   GUI_Circ.obj
 0002:000683b0       _GL_FillCircle             005163b0 f   GUI_Circ.obj
 0002:000685a0       _GUI_FillCircle            005165a0 f   GUI_Circ.obj
 0002:00068640       _GL_FillEllipse            00516640 f   GUI_Circ.obj
 0002:000687d0       _GUI_FillEllipse           005167d0 f   GUI_Circ.obj
 0002:00068900       _GL_DrawEllipse            00516900 f   GUI_Circ.obj
 0002:00068c20       _GUI_DrawEllipse           00516c20 f   GUI_Circ.obj
 0002:00068db0       _GUI_ClearRectEx           00516db0 f   GUI_ClearRectEx.obj
 0002:00068e20       _GUI_Color2Index           00516e20 f   GUI_Color2Index.obj
 0002:00068e80       _GUI_Color2VisColor        00516e80 f   GUI_Color2VisColor.obj
 0002:00068ef0       _GUI_ColorIsAvailable      00516ef0 f   GUI_Color2VisColor.obj
 0002:00068f50       _GUI_CalcVisColorError     00516f50 f   GUI_Color2VisColor.obj
 0002:00068fb0       _GUI_SetDefaultFont        00516fb0 f   GUI_Core.obj
 0002:00068ff0       _GUI_ClearRect             00516ff0 f   GUI_Core.obj
 0002:00069130       _GUI_Clear                 00517130 f   GUI_Core.obj
 0002:000691a0       _GUI__Config               005171a0 f   GUI_Core.obj
 0002:00069210       _GUI_Init                  00517210 f   GUI_Core.obj
 0002:000693e0       _GUI_CURSOR_SelectEx       005173e0 f   GUI_Curs1.obj
 0002:00069690       _GUI_CURSOR_HideEx         00517690 f   GUI_Curs1.obj
 0002:00069820       _GUI_CURSOR_ShowEx         00517820 f   GUI_Curs1.obj
 0002:000698b0       _GUI_CURSOR_GetStateEx     005178b0 f   GUI_Curs1.obj
 0002:00069900       _GUI_CURSOR_SetPositionEx  00517900 f   GUI_Curs1.obj
 0002:00069a70       _GUI_CURSOR_Select         00517a70 f   GUI_Curs1.obj
 0002:00069ad0       _GUI_CURSOR_Hide           00517ad0 f   GUI_Curs1.obj
 0002:00069b30       _GUI_CURSOR_Show           00517b30 f   GUI_Curs1.obj
 0002:00069b90       _GUI_CURSOR_GetState       00517b90 f   GUI_Curs1.obj
 0002:00069bf0       _GUI_CURSOR_SetPosition    00517bf0 f   GUI_Curs1.obj
 0002:00069c50       _GUI_DEVICE__GetpDevice    00517c50 f   GUI_Device.obj
 0002:00069cd0       _GUI_DEVICE__GetpDriver    00517cd0 f   GUI_Device.obj
 0002:00069d50       _GUI_DEVICE_Delete         00517d50 f   GUI_Device.obj
 0002:00069da0       _GUI_DEVICE_Create         00517da0 f   GUI_Device.obj
 0002:00069ef0       _GUI_DEVICE_Unlink         00517ef0 f   GUI_Device.obj
 0002:00069ff0       _GUI_DEVICE_Link           00517ff0 f   GUI_Device.obj
 0002:0006a210       _GUI_DEVICE_CreateAndLink  00518210 f   GUI_Device.obj
 0002:0006a290       _GUI_DispBin               00518290 f   GUI_DispBin.obj
 0002:0006a360       _GUI_DispBinAt             00518360 f   GUI_DispBin.obj
 0002:0006a440       _GUI_DispCEOL              00518440 f   GUI_DispCEOL.obj
 0002:0006a4d0       _GUI_DispChar              005184d0 f   GUI_DispChar.obj
 0002:0006a6a0       _GUI_DispCharAt            005186a0 f   GUI_DispChar.obj
 0002:0006a710       _GUI_DispChars             00518710 f   GUI_DispChars.obj
 0002:0006a770       _GUI_DispHex               00518770 f   GUI_DispHex.obj
 0002:0006a840       _GUI_DispHexAt             00518840 f   GUI_DispHex.obj
 0002:0006a920       _GUI_DispString            00518920 f   GUI_DispString.obj
 0002:0006abe0       _GUI_DispStringAt          00518be0 f   GUI_DispStringAt.obj
 0002:0006ac50       _GUI_DispStringAtCEOL      00518c50 f   GUI_DispStringAtCEOL.obj
 0002:0006acb0       _GUI_DispStringHCenterAt   00518cb0 f   GUI_DispStringHCenter.obj
 0002:0006ad40       _GUI__DispStringInRect     00518d40 f   GUI_DispStringInRect.obj
 0002:0006b0a0       _GUI_DispStringInRectMax   005190a0 f   GUI_DispStringInRect.obj
 0002:0006b1a0       _GUI_DispStringInRect      005191a0 f   GUI_DispStringInRect.obj
 0002:0006b200       _GUI_DispStringInRectEx    00519200 f   GUI_DispStringInRectEx.obj
 0002:0006b430       _GUI_WrapGetNumLines       00519430 f   GUI_DispStringInRectWrap.obj
 0002:0006b4c0       _GUI_DispStringInRectWrap  005194c0 f   GUI_DispStringInRectWrap.obj
 0002:0006b7a0       _GUI_DispStringLen         005197a0 f   GUI_DispStringLen.obj
 0002:0006b860       _GL_DrawBitmap             00519860 f   GUI_DrawBitmap.obj
 0002:0006ba00       _GUI_DrawBitmap            00519a00 f   GUI_DrawBitmap.obj
 0002:0006bb10       _GUI_DrawBitmapEx          00519b10 f   GUI_DrawBitmapEx.obj
 0002:0006c310       _GUI_DrawBitmapExp         0051a310 f   GUI_DrawBitmapExp.obj
 0002:0006c4b0       _GUI_DrawBitmapHWAlpha     0051a4b0 f   GUI_DrawBitmapHWAlpha.obj
 0002:0006c670       _GUI_DrawBitmapMag         0051a670 f   GUI_DrawBitmapMag.obj
 0002:0006e240       _GUI_DrawFocusRect         0051c240 f   GUI_DrawFocusRect.obj
 0002:0006e440       _GUI_DrawGradientV         0051c440 f   GUI_DrawGradient.obj
 0002:0006ea70       _GUI_DrawGradientH         0051ca70 f   GUI_DrawGradient.obj
 0002:0006eba0       _GUI_DrawGradientRoundedV  0051cba0 f   GUI_DrawGradientRounded.obj
 0002:0006f070       _GUI_DrawGradientRoundedH  0051d070 f   GUI_DrawGradientRounded.obj
 0002:0006f1a0       _GUI_DrawGraph             0051d1a0 f   GUI_DrawGraph.obj
 0002:0006f440       _GUI_DrawGraphEx           0051d440 f   GUI_DrawGraphEx.obj
 0002:0006fb30       _GUI_DrawHLine             0051db30 f   GUI_DrawHLine.obj
 0002:0006fc40       _GUI_sin                   0051dc40 f   GUI_DrawLine.obj
 0002:0006fd60       _GUI_cos                   0051dd60 f   GUI_DrawLine.obj
 0002:0006fdc0       _GL_DrawLine1Ex            0051ddc0 f   GUI_DrawLine.obj
 0002:000705e0       _GL_DrawLine1              0051e5e0 f   GUI_DrawLine.obj
 0002:00070690       _GL_DrawLineEx             0051e690 f   GUI_DrawLine.obj
 0002:00070cb0       _GL_DrawLine               0051ecb0 f   GUI_DrawLine.obj
 0002:00070d60       _GUI_DrawLine              0051ed60 f   GUI_DrawLine.obj
 0002:00070e20       _GUI_DrawLineRel           0051ee20 f   GUI_DrawLine.obj
 0002:00070ed0       _GL_DrawLineToEx           0051eed0 f   GUI_DrawLine.obj
 0002:00070f60       _GL_DrawLineTo             0051ef60 f   GUI_DrawLine.obj
 0002:00071000       _GUI_DrawLineTo            0051f000 f   GUI_DrawLine.obj
 0002:000710c0       _GUI_DrawPie               0051f0c0 f   GUI_DrawPie.obj
 0002:00071220       _GUI_DrawPixel             0051f220 f   GUI_DrawPixel.obj
 0002:00071320       _GL_DrawPoint              0051f320 f   GUI_DrawPoint.obj
 0002:000713c0       _GUI_DrawPoint             0051f3c0 f   GUI_DrawPoint.obj
 0002:00071450       _GL_DrawPolygon            0051f450 f   GUI_DrawPolygon.obj
 0002:00071550       _GUI_DrawPolygon           0051f550 f   GUI_DrawPolygon.obj
 0002:000715f0       _GUI_DrawPolyLine          0051f5f0 f   GUI_DrawPolyline.obj
 0002:00071790       _GUI_DrawRectEx            0051f790 f   GUI_DrawRectEx.obj
 0002:00071800       _GUI_DrawRoundedFrame      0051f800 f   GUI_DrawRoundedFrame.obj
 0002:00071c50       _GUI_DrawRoundedRect       0051fc50 f   GUI_DrawRoundedRect.obj
 0002:00072020       _GUI_DrawVLine             00520020 f   GUI_DrawVLine.obj
 0002:00072ce0       _GUI_SetUserAlpha          00520ce0 f   GUI_EnableAlpha.obj
 0002:00072d30       _GUI_RestoreUserAlpha      00520d30 f   GUI_EnableAlpha.obj
 0002:00072d80       _GUI_EnableAlpha           00520d80 f   GUI_EnableAlpha.obj
 0002:00072ec0       _GUIPROP_EXT__ClearLine    00520ec0 f   GUI_EncExt.obj
 0002:00073100       _GUIPROP_EXT__DispLine     00521100 f   GUI_EncExt.obj
 0002:000731e0       _GUIPROP_EXT__SetfpClearLine 005211e0 f   GUI_EncExt.obj
 0002:00073500       _GUI_ErrorOut              00521500 f   GUI_ErrorOut.obj
 0002:00073550       _GUI_ErrorOut1             00521550 f   GUI_ErrorOut.obj
 0002:000736e0       _GUI_ErrorOut2             005216e0 f   GUI_ErrorOut.obj
 0002:00073810       _GUI_ErrorOut3             00521810 f   GUI_ErrorOut.obj
 0002:00073950       _GUI_ErrorOut4             00521950 f   GUI_ErrorOut.obj
 0002:00073ac0       _GUI_Exec1                 00521ac0 f   GUI_Exec.obj
 0002:00073b50       _GUI_Exec                  00521b50 f   GUI_Exec.obj
 0002:00073bc0       _GL_FillPolygon            00521bc0 f   GUI_FillPolygon.obj
 0002:00074420       _GUI_FillPolygon           00522420 f   GUI_FillPolygon.obj
 0002:00074570       _GUI_FillRect              00522570 f   GUI_FillRect.obj
 0002:00074680       _GUI_FillRectEx            00522680 f   GUI_FillRectEx.obj
 0002:000746f0       _GUI_FillRoundedRect       005226f0 f   GUI_FillRoundedRect.obj
 0002:00074970       _GUI_FillRoundedFrame      00522970 f   GUI_FillRoundedRect.obj
 0002:000749f0       _GUI_GetBitmapPixelColor   005229f0 f   GUI_GetBitmapPixelColor.obj
 0002:00074a80       _GUI_GetBitmapPixelIndexEx 00522a80 f   GUI_GetBitmapPixelIndex.obj
 0002:00074cc0       _GUI_GetBitmapPixelIndex   00522cc0 f   GUI_GetBitmapPixelIndex.obj
 0002:000753a0       _GUI_GetLeadingBlankCols   005233a0 f   GUI_GetBlankCols.obj
 0002:00075780       _GUI_GetTrailingBlankCols  00523780 f   GUI_GetBlankCols.obj
 0002:000757e0       _GUI_GetClientRect         005237e0 f   GUI_GetClientRect.obj
 0002:00075840       _GUI_GetBkColorIndex       00523840 f   GUI_GetColor.obj
 0002:00075890       _GUI_GetBkColor            00523890 f   GUI_GetColor.obj
 0002:000758f0       _GUI_GetColorIndex         005238f0 f   GUI_GetColor.obj
 0002:00075940       _GUI_GetColor              00523940 f   GUI_GetColor.obj
 0002:000759a0       _GUI_GetDispPosX           005239a0 f   GUI_GetDispPos.obj
 0002:000759e0       _GUI_GetDispPosY           005239e0 f   GUI_GetDispPos.obj
 0002:00075a20       _GUI_GetDrawMode           00523a20 f   GUI_GetDrawMode.obj
 0002:00075a60       _GUI_GetFont               00523a60 f   GUI_GetFont.obj
 0002:00075aa0       _GUI_GetFontInfo           00523aa0 f   GUI_GetFontInfo.obj
 0002:00075b40       _GUI_GetFontSizeY          00523b40 f   GUI_GetFontSizeY.obj
 0002:00075b90       _GUI_GetLineStyle          00523b90 f   GUI_GetLineStyle.obj
 0002:00075bd0       _GUI__GetOrg               00523bd0 f   GUI_GetOrg.obj
 0002:00075c20       _GUI_GetOrg                00523c20 f   GUI_GetOrg.obj
 0002:00075c80       _GUI_GetStringDistX        00523c80 f   GUI_GetStringDistX.obj
 0002:00075ce0       _GUI_GetTextAlign          00523ce0 f   GUI_GetTextAlign.obj
 0002:00075d20       _GUI_GetTextExtend         00523d20 f   GUI_GetTextExtend.obj
 0002:00075ec0       _GUI_GetTextMode           00523ec0 f   GUI_GetTextMode.obj
 0002:00075f00       _GUI_GetVersionString      00523f00 f   GUI_GetVersionString.obj
 0002:00075f60       _GUI_GetYSizeOfFont        00523f60 f   GUI_GetYSizeOfFont.obj
 0002:00075fb0       _GUI_GetYDistOfFont        00523fb0 f   GUI_GetYSizeOfFont.obj
 0002:00076000       _GUI_GIF__DrawFromFilePointer 00524000 f   GUI_GIF.obj
 0002:00076ed0       _GUI_GIF__GetNextByte      00524ed0 f   GUI_GIF.obj
 0002:000775e0       _GUI_GIF__InitLZW          005255e0 f   GUI_GIF.obj
 0002:000776d0       _GUI_GIF__ReadData         005256d0 f   GUI_GIF.obj
 0002:00077780       _GUI_GIF__GetData          00525780 f   GUI_GIF.obj
 0002:00077820       _GUI_GIF_GetXSizeEx        00525820 f   GUI_GIF.obj
 0002:000779a0       _GUI_GIF_GetXSize          005259a0 f   GUI_GIF.obj
 0002:00077a50       _GUI_GIF_GetYSizeEx        00525a50 f   GUI_GIF.obj
 0002:00077ab0       _GUI_GIF_GetYSize          00525ab0 f   GUI_GIF.obj
 0002:00077b60       _GUI_GIF_DrawSubEx         00525b60 f   GUI_GIF.obj
 0002:00078490       _GUI_GIF_DrawSub           00526490 f   GUI_GIF.obj
 0002:00078550       _GUI_GIF_DrawEx            00526550 f   GUI_GIF.obj
 0002:000785b0       _GUI_GIF_Draw              005265b0 f   GUI_GIF.obj
 0002:00078610       _GUI_GIF_GetInfoEx         00526610 f   GUI_GIF.obj
 0002:000789e0       _GUI_GIF_GetInfo           005269e0 f   GUI_GIF.obj
 0002:00078a90       _GUI_GIF_GetImageInfoEx    00526a90 f   GUI_GIF.obj
 0002:00078dc0       _GUI_GIF_GetImageInfo      00526dc0 f   GUI_GIF.obj
 0002:00078e80       _GUI_GIF_GetCommentEx      00526e80 f   GUI_GIF.obj
 0002:00079460       _GUI_GIF_GetComment        00527460 f   GUI_GIF.obj
 0002:00079520       _GUI_GIF_DrawSubScaledEx   00527520 f   GUI_GIF_DrawScaled.obj
 0002:0007a4d0       _GUI_GIF_DrawSubScaled     005284d0 f   GUI_GIF_DrawScaled.obj
 0002:0007a590       _GUI_GotoY                 00528590 f   GUI_Goto.obj
 0002:0007a630       _GUI_GotoX                 00528630 f   GUI_Goto.obj
 0002:0007a6d0       _GUI_GotoXY                005286d0 f   GUI_Goto.obj
 0002:0007a750       _GUI_Index2Color           00528750 f   GUI_Index2Color.obj
 0002:0007a7b0       _GUI_InitLUT_C             005287b0 f   GUI_InitLUT.obj
 0002:0007a7e0       _GUI_InvertRect            005287e0 f   GUI_InvertRect.obj
 0002:0007a920       _GUI_IsInFont              00528920 f   GUI_IsInFont.obj
 0002:0007a9a0       _GUI_JOYSTICK_StoreState   005289a0 f   GUI_JOYSTICK.obj
 0002:0007abc0       _GUI_JPEG__GetData         00528bc0 f   GUI_JPEG.obj
 0002:0007ac60       _GUI_JPEG__ReadUntilSOF    00528c60 f   GUI_JPEG.obj
 0002:0007c160       _GUI_JPEG__DecodeProgressiveBanding 0052a160 f   GUI_JPEG.obj
 0002:0007e740       _GUI_JPEG__Free            0052c740 f   GUI_JPEG.obj
 0002:0007e8f0       _GUI_JPEG__SkipLine        0052c8f0 f   GUI_JPEG.obj
 0002:0007f620       _GUI_JPEG__DecodeLine      0052d620 f   GUI_JPEG.obj
 0002:000814b0       _GUI_JPEG__GetColorRGB     0052f4b0 f   GUI_JPEG.obj
 0002:00081540       _GUI_JPEG__GetColorGray    0052f540 f   GUI_JPEG.obj
 0002:000815a0       _GUI_JPEG__InitDraw        0052f5a0 f   GUI_JPEG.obj
 0002:00082d20       _GUI_JPEG__SetNextBand     00530d20 f   GUI_JPEG.obj
 0002:00082f60       _GUI_JPEG__AllocBandingCoeffBuffer 00530f60 f   GUI_JPEG.obj
 0002:000831b0       _GUI_JPEG__GetInfoEx       005311b0 f   GUI_JPEG.obj
 0002:00083250       _GUI_JPEG_GetInfoEx        00531250 f   GUI_JPEG.obj
 0002:00083340       _GUI_JPEG_GetInfo          00531340 f   GUI_JPEG.obj
 0002:000833f0       _GUI_JPEG_DrawEx           005313f0 f   GUI_JPEG.obj
 0002:00083e40       _GUI_JPEG_Draw             00531e40 f   GUI_JPEG.obj
 0002:00083ef0       _GUI_JPEG_DrawScaledEx     00531ef0 f   GUI_JPEG_DrawScaled.obj
 0002:000848f0       _GUI_JPEG_DrawScaled       005328f0 f   GUI_JPEG_DrawScaled.obj
 0002:000849b0       _GUI_Log                   005329b0 f   GUI_Log.obj
 0002:00084a00       _GUI_Log1                  00532a00 f   GUI_Log.obj
 0002:00084b80       _GUI_Log2                  00532b80 f   GUI_Log.obj
 0002:00084ca0       _GUI_Log3                  00532ca0 f   GUI_Log.obj
 0002:00084dd0       _GUI_Log4                  00532dd0 f   GUI_Log.obj
 0002:00084f10       _GUI_MergeRect             00532f10 f   GUI_MergeRect.obj
 0002:000850d0       _GUI_MOUSE_GetState        005330d0 f   GUI_MOUSE.obj
 0002:00085140       _GUI_MOUSE_StoreState      00533140 f   GUI_MOUSE.obj
 0002:000851d0       _GUI_MOUSE_DRIVER_PS2_OnRx 005331d0 f   GUI_MOUSE_DriverPS2.obj
 0002:00085490       _GUI_MOUSE_DRIVER_PS2_Init 00533490 f   GUI_MOUSE_DriverPS2.obj
 0002:000854d0       _GUI_MoveRect              005334d0 f   GUI_MoveRect.obj
 0002:00085560       _GUI_GetKey                00533560 f   GUI_OnKey.obj
 0002:000855b0       _GUI_StoreKey              005335b0 f   GUI_OnKey.obj
 0002:00085600       _GUI_ClearKeyBuffer        00533600 f   GUI_OnKey.obj
 0002:00085660       _GUI_StoreKeyMsg           00533660 f   GUI_OnKey.obj
 0002:00085850       _GUI_PollKeyMsg            00533850 f   GUI_OnKey.obj
 0002:00085a00       _GUI_SendKeyMsg            00533a00 f   GUI_OnKey.obj
 0002:00085a70       _GUI_GetPenSize            00533a70 f   GUI_Pen.obj
 0002:00085ab0       _GUI_GetPenShape           00533ab0 f   GUI_Pen.obj
 0002:00085af0       _GUI_SetPenSize            00533af0 f   GUI_Pen.obj
 0002:00085b40       _GUI_SetPenShape           00533b40 f   GUI_Pen.obj
 0002:00085b90       _GUI_PID_GetState          00533b90 f   GUI_PID.obj
 0002:00085d00       _GUI_PID_StoreState        00533d00 f   GUI_PID.obj
 0002:00085fa0       _GUI_EnlargePolygon        00533fa0 f   GUI_PolyEnlarge.obj
 0002:000863f0       _GUI_MagnifyPolygon        005343f0 f   GUI_PolyMagnify.obj
 0002:00086480       _GUI_RotatePolygon         00534480 f   GUI_PolyRotate.obj
 0002:000865a0       _GUI_ALLOC_Realloc         005345a0 f   GUI_Realloc.obj
 0002:000866a0       _GUI_RectsIntersect        005346a0 f   GUI_RectsIntersect.obj
 0002:00086740       _GUI_SaveContext_W         00534740 f   GUI_SaveContext.obj
 0002:00086790       _GUI_RestoreContext        00534790 f   GUI_SaveContext.obj
 0002:000867e0       _GUI_SetScreenSizeX        005347e0 f   GUI_ScreenSize.obj
 0002:00086820       _GUI_SetScreenSizeY        00534820 f   GUI_ScreenSize.obj
 0002:00086860       _GUI_GetScreenSizeX        00534860 f   GUI_ScreenSize.obj
 0002:000868c0       _GUI_GetScreenSizeY        005348c0 f   GUI_ScreenSize.obj
 0002:00086920       _GUI_SelectLayer           00534920 f   GUI_SelectLayer.obj
 0002:00086990       _GUI_AssignCursorLayer     00534990 f   GUI_SelectLayer.obj
 0002:00086a60       _GUI_GetCursorLayer        00534a60 f   GUI_SelectLayer.obj
 0002:00086ac0       _GUI_SetLayerPosEx         00534ac0 f   GUI_SelectLayer.obj
 0002:00086b20       _GUI_SetLayerSizeEx        00534b20 f   GUI_SelectLayer.obj
 0002:00086b80       _GUI_SetLayerVisEx         00534b80 f   GUI_SelectLayer.obj
 0002:00086be0       _GUI_SetLayerAlphaEx       00534be0 f   GUI_SelectLayer.obj
 0002:00086c40       _GUI_GetLayerPosEx         00534c40 f   GUI_SelectLayer.obj
 0002:00086cc0       _GUI_SelectLCD             00534cc0 f   GUI_SelectLCD.obj
 0002:00088ef0       _GUI__AlphaSuppressMixing  00536ef0 f   GUI_SetAlpha.obj
 0002:00088f50       _GUI_SetAlpha              00536f50 f   GUI_SetAlpha.obj
 0002:00089240       _GUI_SetClipRect           00537240 f   GUI_SetClipRect.obj
 0002:000892a0       _GUI_SetBkColor            005372a0 f   GUI_SetColor.obj
 0002:000892f0       _GUI_SetColor              005372f0 f   GUI_SetColor.obj
 0002:00089340       _GUI_SetBkColorIndex       00537340 f   GUI_SetColorIndex.obj
 0002:000893a0       _GUI_SetColorIndex         005373a0 f   GUI_SetColorIndex.obj
 0002:00089400       _GUI_SetDecChar            00537400 f   GUI_SetDecChar.obj
 0002:00089450       _GUI_GetDecChar            00537450 f   GUI_SetDecChar.obj
 0002:00089490       _GL_SetDefault             00537490 f   GUI_SetDefault.obj
 0002:00089540       _GUI_SetDefault            00537540 f   GUI_SetDefault.obj
 0002:00089590       _GUI_SetDrawMode           00537590 f   GUI_SetDrawMode.obj
 0002:000895f0       _GUI_SetFont               005375f0 f   GUI_SetFont.obj
 0002:00089640       _GUI_SetLBorder            00537640 f   GUI_SetLBorder.obj
 0002:00089690       _GUI_SetLineStyle          00537690 f   GUI_SetLineStyle.obj
 0002:000896e0       _GUI_SetOrg                005376e0 f   GUI_SetOrg.obj
 0002:00089ff0       _GUI_SetOrientationExCached 00537ff0 f   GUI_SetOrientation.obj
 0002:0008a650       _GUI_SetOrientationEx      00538650 f   GUI_SetOrientation.obj
 0002:0008a730       _GUI_SetOrientation        00538730 f   GUI_SetOrientation.obj
 0002:00091850       _LCD_SetPixelIndex         0053f850 f   GUI_SetPixelIndex.obj
 0002:00091920       _GUI_SetTextAlign          0053f920 f   GUI_SetTextAlign.obj
 0002:00091970       _GUI_SetTextMode           0053f970 f   GUI_SetTextMode.obj
 0002:000919c0       _GUI_SetTextStyle          0053f9c0 f   GUI_SetTextStyle.obj
 0002:00091bc0       _GUI_SIF__GetNumCharAreas  0053fbc0 f   GUI_SIF.obj
 0002:00091c60       _GUI_SIF__GetpCharInfo     0053fc60 f   GUI_SIF.obj
 0002:00091dc0       _GUI_SIF__GetCharDistX     0053fdc0 f   GUI_SIF.obj
 0002:00091e90       _GUI_SIF__GetFontInfo      0053fe90 f   GUI_SIF.obj
 0002:00091f70       _GUI_SIF__IsInFont         0053ff70 f   GUI_SIF.obj
 0002:00091fe0       _GUI_SIF_CreateFont        0053ffe0 f   GUI_SIF.obj
 0002:00092190       _GUI_SIF_DeleteFont        00540190 f   GUI_SIF.obj
 0002:00092980       _GUI_SIF__ClearLine_ExtFrm 00540980 f   GUI_SIF_PropExtFrmInfo.obj
 0002:00092bc0       _GUI_SIF__GetCharDistX_ExtFrm 00540bc0 f   GUI_SIF_PropExtFrmInfo.obj
 0002:00092c90       _GUI_SIF__GetFontInfo_ExtFrm 00540c90 f   GUI_SIF_PropExtFrmInfo.obj
 0002:00092d70       _GUI_SIF__IsInFont_ExtFrm  00540d70 f   GUI_SIF_PropExtFrmInfo.obj
 0002:00092de0       _GUI_SIF__GetCharInfo_ExtFrm 00540de0 f   GUI_SIF_PropExtFrmInfo.obj
 0002:00095160       _GUI_SPRITE__CreateEx      00543160 f   GUI_SPRITE.obj
 0002:00095ba0       _GUI_SPRITE_CreateEx       00543ba0 f   GUI_SPRITE.obj
 0002:00095c00       _GUI_SPRITE_Create         00543c00 f   GUI_SPRITE.obj
 0002:00095c70       _GUI_SPRITE_Delete         00543c70 f   GUI_SPRITE.obj
 0002:00096020       _GUI_SPRITE_SetPosition    00544020 f   GUI_SPRITE.obj
 0002:000967e0       _GUI_SPRITE_SetBitmap      005447e0 f   GUI_SPRITE.obj
 0002:00096bd0       _GUI_SPRITE_SetBitmapAndPosition 00544bd0 f   GUI_SPRITE.obj
 0002:00097330       _GUI_SPRITE_Hide           00545330 f   GUI_SPRITE.obj
 0002:000973e0       _GUI_SPRITE_Show           005453e0 f   GUI_SPRITE.obj
 0002:00097490       _GUI_SPRITE_GetState       00545490 f   GUI_SPRITE.obj
 0002:00097520       _GUI__ReadHeaderFromStream 00545520 f   GUI_Stream.obj
 0002:00097620       _GUI__CreateBitmapFromStream 00545620 f   GUI_Stream.obj
 0002:00097700       _GUI_DrawStreamedBitmap    00545700 f   GUI_Stream.obj
 0002:00097840       _GUI_SetStreamedBitmapHook 00545840 f   GUI_Stream.obj
 0002:00097880       _GUI_DrawStreamedBitmapEx  00545880 f   GUI_Stream.obj
 0002:00097fb0       _GUI_GetStreamedBitmapInfo 00545fb0 f   GUI_Stream.obj
 0002:000980f0       _GUI_GetStreamedBitmapInfoEx 005460f0 f   GUI_Stream.obj
 0002:00098240       _GUI_CreateBitmapFromStream 00546240 f   GUI_StreamCreate.obj
 0002:000984a0       _GUI_CreateBitmapFromStreamIDX 005464a0 f   GUI_StreamCreate.obj
 0002:00098600       _GUI_CreateBitmapFromStreamRLE4 00546600 f   GUI_StreamCreate.obj
 0002:00098660       _GUI_CreateBitmapFromStreamRLE8 00546660 f   GUI_StreamCreate.obj
 0002:000986c0       _GUI_CreateBitmapFromStream565 005466c0 f   GUI_StreamCreate.obj
 0002:00098720       _GUI_CreateBitmapFromStreamM565 00546720 f   GUI_StreamCreate.obj
 0002:00098780       _GUI_CreateBitmapFromStream555 00546780 f   GUI_StreamCreate.obj
 0002:000987e0       _GUI_CreateBitmapFromStreamM555 005467e0 f   GUI_StreamCreate.obj
 0002:00098840       _GUI_CreateBitmapFromStreamRLE16 00546840 f   GUI_StreamCreate.obj
 0002:000988a0       _GUI_CreateBitmapFromStreamRLEM16 005468a0 f   GUI_StreamCreate.obj
 0002:00098900       _GUI_CreateBitmapFromStream24 00546900 f   GUI_StreamCreate.obj
 0002:00098960       _GUI_CreateBitmapFromStreamAlpha 00546960 f   GUI_StreamCreate.obj
 0002:000989c0       _GUI_Unlock                005469c0 f   GUI_Task.obj
 0002:000989f0       _GUI_Lock                  005469f0 f   GUI_Task.obj
 0002:00098a20       _GUITASK_Init              00546a20 f   GUI_Task.obj
 0002:00098a50       _GUITASK_StoreDefaultContext 00546a50 f   GUI_Task.obj
 0002:00098a80       _GUI_GetTime               00546a80 f   GUI_Time.obj
 0002:00098ad0       _GUI_Delay                 00546ad0 f   GUI_Time.obj
 0002:00098bd0       _GUI_TIMER__IsActive       00546bd0 f   GUI_Timer.obj
 0002:00098c20       _GUI_TIMER__GetPeriod      00546c20 f   GUI_Timer.obj
 0002:00098cb0       _GUI_TIMER__GetNextTimer   00546cb0 f   GUI_Timer.obj
 0002:00098d80       _GUI_TIMER_Exec            00546d80 f   GUI_Timer.obj
 0002:00098ea0       _GUI_TIMER_Create          00546ea0 f   GUI_Timer.obj
 0002:000990c0       _GUI_TIMER_Delete          005470c0 f   GUI_Timer.obj
 0002:000991e0       _GUI_TIMER_SetPeriod       005471e0 f   GUI_Timer.obj
 0002:00099240       _GUI_TIMER_SetTime         00547240 f   GUI_Timer.obj
 0002:000992a0       _GUI_TIMER_SetDelay        005472a0 f   GUI_Timer.obj
 0002:00099320       _GUI_TIMER_Restart         00547320 f   GUI_Timer.obj
 0002:000993c0       _GUI_TOUCH_GetState        005473c0 f   GUI_TOUCH.obj
 0002:00099430       _GUI_TOUCH_StoreStateEx    00547430 f   GUI_TOUCH.obj
 0002:000994c0       _GUI_TOUCH_SetOrientationPhys 005474c0 f   GUI_TOUCH_DriverAnalog.obj
 0002:00099500       _GUI_TOUCH_SetOrientation  00547500 f   GUI_TOUCH_DriverAnalog.obj
 0002:00099540       _GUI_TOUCH_GetxPhys        00547540 f   GUI_TOUCH_DriverAnalog.obj
 0002:00099580       _GUI_TOUCH_GetyPhys        00547580 f   GUI_TOUCH_DriverAnalog.obj
 0002:000995c0       _GUI_TOUCH_SetDefaultCalibration 005475c0 f   GUI_TOUCH_DriverAnalog.obj
 0002:00099620       _GUI_TOUCH_Calibrate       00547620 f   GUI_TOUCH_DriverAnalog.obj
 0002:00099810       _GUI_TOUCH_GetCalData      00547810 f   GUI_TOUCH_DriverAnalog.obj
 0002:00099870       _GUI_TOUCH_Exec            00547870 f   GUI_TOUCH_DriverAnalog.obj
 0002:000998a0       _GUI_TOUCH_StoreState      005478a0 f   GUI_TOUCH_StoreState.obj
 0002:00099930       _GUI_TOUCH_SetLayer        00547930 f   GUI_TOUCH_StoreState.obj
 0002:00099970       _GUI_TOUCH_StoreUnstable   00547970 f   GUI_TOUCH_StoreUnstable.obj
 0002:00099a20       _GUI_TOUCH_GetUnstable     00547a20 f   GUI_TOUCH_StoreUnstable.obj
 0002:00099a70       _GUI_UC_GetCharSize        00547a70 f   GUI_UC.obj
 0002:00099ae0       _GUI_UC_GetCharCode        00547ae0 f   GUI_UC.obj
 0002:00099b50       _GUI_UC_Encode             00547b50 f   GUI_UC.obj
 0002:00099bc0       _GUI_UC__CalcSizeOfChar    00547bc0 f   GUI_UC.obj
 0002:00099c30       _GUI_UC__GetCharCodeInc    00547c30 f   GUI_UC.obj
 0002:00099ce0       _GUI_UC__NumChars2NumBytes 00547ce0 f   GUI_UC.obj
 0002:00099d90       _GUI_UC__NumBytes2NumChars 00547d90 f   GUI_UC.obj
 0002:00099e30       _GUI_UC2DB                 00547e30 f   GUI_UC0.obj
 0002:00099ee0       _GUI_DB2UC                 00547ee0 f   GUI_UC0.obj
 0002:00099f70       _GUI_UC_ConvertUC2UTF8     00547f70 f   GUI_UC_ConvertUC2UTF8.obj
 0002:0009a040       _GUI_UC_ConvertUTF82UC     00548040 f   GUI_UC_ConvertUTF82UC.obj
 0002:0009a100       _GUI_UC_DispString         00548100 f   GUI_UC_DispString.obj
 0002:0009a6d0       _GUI__BIDI_Log2VisBuffered 005486d0 f   GUI_UC_EnableBIDI.obj
 0002:0009a760       _GUI_UC_EnableBIDI         00548760 f   GUI_UC_EnableBIDI.obj
 0002:0009aa60       _GUI_UC_SetEncodeNone      00548a60 f   GUI_UC_EncodeNone.obj
 0002:0009ae80       _GUI_UC_SetEncodeUTF8      00548e80 f   GUI_UC_EncodeUTF8.obj
 0002:0009aec0       _GUI_DispDecShift          00548ec0 f   GUI_Val.obj
 0002:0009afa0       _GUI_DispSDecShift         00548fa0 f   GUI_Val.obj
 0002:0009b0a0       _GUI_DispDecMin            005490a0 f   GUI_Val.obj
 0002:0009b170       _GUI_DispDecSpace          00549170 f   GUI_Val.obj
 0002:0009b2b0       _GUI_DispSDec              005492b0 f   GUI_Val.obj
 0002:0009b310       _GUI_DispDec               00549310 f   GUI_Val.obj
 0002:0009b370       _GUI_DispDecAt             00549370 f   GUI_Val.obj
 0002:0009b450       _GUI_DispFloatFix          00549450 f   GUI_Valf.obj
 0002:0009b640       _GUI_DispFloatMin          00549640 f   GUI_Valf.obj
 0002:0009ba20       _GUI_DispFloat             00549a20 f   GUI_Valf.obj
 0002:0009baf0       _GUI_DispSFloatFix         00549af0 f   GUI_Valf.obj
 0002:0009bb50       _GUI_DispSFloatMin         00549b50 f   GUI_Valf.obj
 0002:0009bbb0       _GUI_WaitEvent             00549bb0 f   GUI_WaitEvent.obj
 0002:0009bc00       _GUI_WaitKey               00549c00 f   GUI_WaitKey.obj
 0002:0009bc80       _GUI_Warn                  00549c80 f   GUI_Warn.obj
 0002:0009bcd0       _GUI_Warn1                 00549cd0 f   GUI_Warn.obj
 0002:0009be50       _GUI_Warn2                 00549e50 f   GUI_Warn.obj
 0002:0009bf70       _GUI_Warn3                 00549f70 f   GUI_Warn.obj
 0002:0009c0a0       _GUI_Warn4                 0054a0a0 f   GUI_Warn.obj
 0002:0009c1e0       _GUI_XBF__ClearLine        0054a1e0 f   GUI_XBF.obj
 0002:0009c390       _GUI_XBF__GetOff           0054a390 f   GUI_XBF.obj
 0002:0009c4a0       _GUI_XBF__GetOffAndSize    0054a4a0 f   GUI_XBF.obj
 0002:0009c5e0       _GUI_XBF__GetCharDistX     0054a5e0 f   GUI_XBF.obj
 0002:0009c740       _GUI_XBF__GetFontInfo      0054a740 f   GUI_XBF.obj
 0002:0009c7b0       _GUI_XBF__IsInFont         0054a7b0 f   GUI_XBF.obj
 0002:0009c890       _GUI_XBF__GetCharInfo      0054a890 f   GUI_XBF.obj
 0002:0009ca10       _GUI_XBF_CreateFont        0054aa10 f   GUI_XBF.obj
 0002:0009cc90       _GUI_XBF_DeleteFont        0054ac90 f   GUI_XBF.obj
 0002:0009e2b0       _GUI__AddSpaceHex          0054c2b0 f   GUI__AddSpaceHex.obj
 0002:0009e330       _GUI__IsArabicCharacter    0054c330 f   GUI__Arabic.obj
 0002:0009e3a0       _GUI__GetPresentationForm  0054c3a0 f   GUI__Arabic.obj
 0002:0009e950       _GUI__BIDI_Log2Vis         0054c950 f   GUI__BiDi.obj
 0002:0009fe40       _GUI__BIDI_GetCursorPosX   0054de40 f   GUI__BiDi.obj
 0002:000a01f0       _GUI__BIDI_GetCursorPosChar 0054e1f0 f   GUI__BiDi.obj
 0002:000a0600       _GUI__BIDI_GetLogChar      0054e600 f   GUI__BiDi.obj
 0002:000a0710       _GUI__BIDI_GetCharDir      0054e710 f   GUI__BiDi.obj
 0002:000a08e0       _GUI__BIDI_IsNSM           0054e8e0 f   GUI__BiDi.obj
 0002:000a0950       _GUI__BIDI_GetCursorCharacter 0054e950 f   GUI__BiDi.obj
 0002:000a09e0       _GUI__BIDI_GetWordWrap     0054e9e0 f   GUI__BiDi.obj
 0002:000a0d00       _GUI__BIDI_GetCharWrap     0054ed00 f   GUI__BiDi.obj
 0002:000a0ec0       _GUI__CalcTextRect         0054eec0 f   GUI__CalcTextRect.obj
 0002:000a1080       _GUI__CompactPixelIndices  0054f080 f   GUI__CompactPixelIndices.obj
 0002:000a1420       _GUI__CompactPixelIndicesEx 0054f420 f   GUI__CompactPixelIndices.obj
 0002:000a1580       _GUI__DivideRound          0054f580 f   GUI__DivideRound.obj
 0002:000a15e0       _GUI__DivideRound32        0054f5e0 f   GUI__DivideRound32.obj
 0002:000a1650       _GUI__DrawBitmap16bpp      0054f650 f   GUI__DrawBitmap16bpp.obj
 0002:000a1bc0       _GUI__DrawTwinArc2         0054fbc0 f   GUI__DrawTwinArc.obj
 0002:000a2140       _GUI__DrawTwinArc4         00550140 f   GUI__DrawTwinArc.obj
 0002:000a26a0       _GUI__FillTrippleArc       005506a0 f   GUI__DrawTwinArc.obj
 0002:000a2ff0       _GUI__ExpandPixelIndices   00550ff0 f   GUI__ExpandPixelIndices.obj
 0002:000a3140       _GUI__ExpandPixelIndicesEx 00551140 f   GUI__ExpandPixelIndices.obj
 0002:000a3510       _GUI__GetCursorPosX        00551510 f   GUI__GetCursorPos.obj
 0002:000a3580       _GUI__GetCursorPosChar     00551580 f   GUI__GetCursorPos.obj
 0002:000a35f0       _GUI__GetCursorCharacter   005515f0 f   GUI__GetCursorPos.obj
 0002:000a3660       _GUI__GetFontSizeY         00551660 f   GUI__GetFontSizeY.obj
 0002:000a36b0       _GUI__GetNumChars          005516b0 f   GUI__GetNumChars.obj
 0002:000a3730       _GUI__HandleEOLine         00551730 f   GUI__HandleEOLine.obj
 0002:000a37b0       _GUI__IntersectRect        005517b0 f   GUI__IntersectRect.obj
 0002:000a3880       _GUI__IntersectRects       00551880 f   GUI__IntersectRects.obj
 0002:000a3a10       _GUI__memcpy               00551a10 f   GUI__memcpy.obj
 0002:000a3d60       _GUI__memset               00551d60 f   GUI__memset.obj
 0002:000a3ef0       _GUI__memset16             00551ef0 f   GUI__memset16.obj
 0002:000a4120       _GUI__Read16               00552120 f   GUI__Read.obj
 0002:000a41a0       _GUI__Read32               005521a0 f   GUI__Read.obj
 0002:000a4240       _GUI__ReduceRect           00552240 f   GUI__ReduceRect.obj
 0002:000a42c0       _GUI__MixColors            005522c0 f   GUI__SetPixelAlpha.obj
 0002:000a4440       _GUI__SetPixelAlpha        00552440 f   GUI__SetPixelAlpha.obj
 0002:000a4560       _GUI__SetText              00552560 f   GUI__SetText.obj
 0002:000a46a0       _GUI__SinHQ                005526a0 f   GUI__SinHQ.obj
 0002:000a47e0       _GUI__CosHQ                005527e0 f   GUI__SinHQ.obj
 0002:000a4840       _GUI__sqrt32               00552840 f   GUI__sqrt32.obj
 0002:000a48e0       _GUI__strcmp               005528e0 f   GUI__strcmp.obj
 0002:000a4990       _GUI__strcmp_hp            00552990 f   GUI__strcmp.obj
 0002:000a4a10       _GUI__strlen               00552a10 f   GUI__strlen.obj
 0002:000a4d60       _GUI__WrapGetNumCharsDisp  00552d60 f   GUI__Wrap.obj
 0002:000a4ef0       _GUI__WrapGetNumCharsToNextLine 00552ef0 f   GUI__Wrap.obj
 0002:000a5040       _GUI__WrapGetNumBytesToNextLine 00553040 f   GUI__Wrap.obj
 0002:000a5230       _LCD_SetDrawMode           00553230 f   LCD.obj
 0002:000a5290       _LCD_DrawPixel             00553290 f   LCD.obj
 0002:000a53d0       _LCD_DrawHLine             005533d0 f   LCD.obj
 0002:000a54d0       _LCD_DrawVLine             005534d0 f   LCD.obj
 0002:000a55d0       _LCD_FillRect              005535d0 f   LCD.obj
 0002:000a56f0       _LCD_DrawBitmap            005536f0 f   LCD.obj
 0002:000a5c90       _LCD_SetClipRectMax        00553c90 f   LCD.obj
 0002:000a5d20       _LCD_Init                  00553d20 f   LCD.obj
 0002:000a5f20       _LCD_Color2Index           00553f20 f   LCD.obj
 0002:000a5f90       _LCD_Index2Color           00553f90 f   LCD.obj
 0002:000a6000       _LCD_SetColorIndex         00554000 f   LCD.obj
 0002:000a6060       _LCD_SetBkColorIndex       00554060 f   LCD.obj
 0002:000a60c0       _LCD_SetBkColor            005540c0 f   LCD.obj
 0002:000a6120       _LCD_SetColor              00554120 f   LCD.obj
 0002:000a6180       _LCD_AA_MixColors          00554180 f   LCD_AA.obj
 0002:000a61f0       _LCD_SetPixelAA            005541f0 f   LCD_AA.obj
 0002:000a63a0       _LCD_SetPixelAA_Xor        005543a0 f   LCD_AA.obj
 0002:000a65b0       _LCD_SetPixelAA_NoTrans    005545b0 f   LCD_AA.obj
 0002:000a67c0       _LCD_GetpPalConvTableUncached 005547c0 f   LCD_Color.obj
 0002:000a6890       _LCD_GetpPalConvTable      00554890 f   LCD_Color.obj
 0002:000a68e0       _LCD_InitLUT               005548e0 f   LCD_Color.obj
 0002:000a6a30       _LCD_ControlCacheEx        00554a30 f   LCD_ControlCache.obj
 0002:000a6b30       _LCD_ControlCache          00554b30 f   LCD_ControlCache.obj
 0002:000a6b90       _LCD_GetBkColorIndex       00554b90 f   LCD_GetColorIndex.obj
 0002:000a6bd0       _LCD_GetColorIndex         00554bd0 f   LCD_GetColorIndex.obj
 0002:000a6c10       _LCD_GetXSizeEx            00554c10 f   LCD_GetEx.obj
 0002:000a6d00       _LCD_GetYSizeEx            00554d00 f   LCD_GetEx.obj
 0002:000a6d50       _LCD_GetVXSizeEx           00554d50 f   LCD_GetEx.obj
 0002:000a6da0       _LCD_GetVYSizeEx           00554da0 f   LCD_GetEx.obj
 0002:000a6df0       _LCD_GetBitsPerPixelEx     00554df0 f   LCD_GetEx.obj
 0002:000a6e40       _LCD_GetNumColorsEx        00554e40 f   LCD_GetEx.obj
 0002:000a6e90       _LCD_GetXMagEx             00554e90 f   LCD_GetEx.obj
 0002:000a6ee0       _LCD_GetYMagEx             00554ee0 f   LCD_GetEx.obj
 0002:000a6f30       _LCD_GetMirrorXEx          00554f30 f   LCD_GetEx.obj
 0002:000a6f80       _LCD_GetMirrorYEx          00554f80 f   LCD_GetEx.obj
 0002:000a6fd0       _LCD_GetSwapXYEx           00554fd0 f   LCD_GetEx.obj
 0002:000a7020       _LCD_GetXSize              00555020 f   LCD_GetEx.obj
 0002:000a7080       _LCD_GetYSize              00555080 f   LCD_GetEx.obj
 0002:000a70e0       _LCD_GetVXSize             005550e0 f   LCD_GetEx.obj
 0002:000a7140       _LCD_GetVYSize             00555140 f   LCD_GetEx.obj
 0002:000a71a0       _LCD_GetBitsPerPixel       005551a0 f   LCD_GetEx.obj
 0002:000a7200       _LCD_GetNumColors          00555200 f   LCD_GetEx.obj
 0002:000a7260       _LCD_GetXMag               00555260 f   LCD_GetEx.obj
 0002:000a72c0       _LCD_GetYMag               005552c0 f   LCD_GetEx.obj
 0002:000a7320       _LCD_GetMirrorX            00555320 f   LCD_GetEx.obj
 0002:000a7380       _LCD_GetMirrorY            00555380 f   LCD_GetEx.obj
 0002:000a73e0       _LCD_GetSwapXY             005553e0 f   LCD_GetEx.obj
 0002:000a7440       _GUI_GetBitsPerPixelEx     00555440 f   LCD_GetEx.obj
 0002:000a74c0       _LCD_GetPaletteEx          005554c0 f   LCD_GetEx.obj
 0002:000a7550       _LCD_GetPalette            00555550 f   LCD_GetEx.obj
 0002:000a75b0       _LCD_GetpfIndex2ColorEx    005555b0 f   LCD_GetEx.obj
 0002:000a7620       _GUI_GetpfIndex2ColorEx    00555620 f   LCD_GetEx.obj
 0002:000a7670       _LCD_GetpfColor2IndexEx    00555670 f   LCD_GetEx.obj
 0002:000a76e0       _GUI_GetpfColor2IndexEx    005556e0 f   LCD_GetEx.obj
 0002:000a7730       _LCD_GetXSizeMax           00555730 f   LCD_GetEx.obj
 0002:000a7810       _LCD_GetYSizeMax           00555810 f   LCD_GetEx.obj
 0002:000a7860       _LCD_GetVXSizeMax          00555860 f   LCD_GetEx.obj
 0002:000a78b0       _LCD_GetVYSizeMax          005558b0 f   LCD_GetEx.obj
 0002:000a7900       _LCD_GetBitsPerPixelMax    00555900 f   LCD_GetEx.obj
 0002:000a7950       _LCD__GetBPP               00555950 f   LCD_GetEx.obj
 0002:000a7ad0       _LCD__GetBPPDevice         00555ad0 f   LCD_GetEx.obj
 0002:000a7b90       _LCD_GetNumLayers          00555b90 f   LCD_GetNumDisplays.obj
 0002:000a7c20       _LCD_GetPixelIndex         00555c20 f   LCD_GetP.obj
 0002:000a7d60       _GUI_GetPixelIndex         00555d60 f   LCD_GetP.obj
 0002:000a7dc0       _LCD_GetPixelColor         00555dc0 f   LCD_GetPixelColor.obj
 0002:000a7e20       _LCD_Index2ColorEx         00555e20 f   LCD_Index2ColorEx.obj
 0002:000a7ea0       _LCD_GetDevCap             00555ea0 f   LCD_Info.obj
 0002:000a7f90       _LCD_GetDevCapEx           00555f90 f   LCD_Info.obj
 0002:000a7ff0       _LCD_MixColors256          00555ff0 f   LCD_MixColors256.obj
 0002:000a84e0       _LCD_GetNextPixelAPI       005564e0 f   LCD_NextPixelAPI.obj
 0002:000a85d0       _GUI_ReadRectEx            005565d0 f   LCD_ReadRect.obj
 0002:000a8900       _LCD_ReadRect              00556900 f   LCD_ReadRect.obj
 0002:000a8990       _GUI_ReadRect              00556990 f   LCD_ReadRect.obj
 0002:000ac630       _LCD_SelectLCD             0055a630 f   LCD_SelectLCD.obj
 0002:000ac6f0       _LCD_SetAlphaEx            0055a6f0 f   LCD_Set.obj
 0002:000ac800       _LCD_SetVRAMAddrEx         0055a800 f   LCD_Set.obj
 0002:000ac900       _LCD_SetVSizeEx            0055a900 f   LCD_Set.obj
 0002:000aca00       _LCD_SetSizeEx             0055aa00 f   LCD_Set.obj
 0002:000acb20       _LCD_SetVisEx              0055ab20 f   LCD_Set.obj
 0002:000acc30       _LCD_SetPosEx              0055ac30 f   LCD_Set.obj
 0002:000acd50       _LCD_SetAlphaModeEx        0055ad50 f   LCD_Set.obj
 0002:000ace50       _LCD_SetChromaModeEx       0055ae50 f   LCD_Set.obj
 0002:000acf60       _LCD_SetChromaEx           0055af60 f   LCD_Set.obj
 0002:000ad080       _LCD_SetLUTEntryEx         0055b080 f   LCD_Set.obj
 0002:000ad1c0       _LCD_GetPosEx              0055b1c0 f   LCD_Set.obj
 0002:000ad2c0       _LCD_SetAlpha              0055b2c0 f   LCD_Set.obj
 0002:000ad320       _LCD_SetVRAMAddr           0055b320 f   LCD_Set.obj
 0002:000ad380       _LCD_SetVSize              0055b380 f   LCD_Set.obj
 0002:000ad3e0       _LCD_SetSize               0055b3e0 f   LCD_Set.obj
 0002:000ad440       _LCD_SetVis                0055b440 f   LCD_Set.obj
 0002:000ad4a0       _LCD_SetPos                0055b4a0 f   LCD_Set.obj
 0002:000ad500       _LCD_SetAlphaMode          0055b500 f   LCD_Set.obj
 0002:000ad560       _LCD_SetChromaMode         0055b560 f   LCD_Set.obj
 0002:000ad5c0       _LCD_SetChroma             0055b5c0 f   LCD_Set.obj
 0002:000ad620       _LCD_SetLUTEntry           0055b620 f   LCD_Set.obj
 0002:000ad680       _LCD_GetPos                0055b680 f   LCD_Set.obj
 0002:000ad6e0       _LCD_SetDevFunc            0055b6e0 f   LCD_Set.obj
 0002:000ad7e0       _LCD_SetClipRectEx         0055b7e0 f   LCD_SetClipRectEx.obj
 0002:000ad8b0       _LCD_UpdateColorIndices    0055b8b0 f   LCD_UpdateColorIndices.obj
 0002:000ad930       _GUIDRV_Lin_1_C            0055b930 f   GUIDRV_Lin_1.obj
 0002:000ad960       _GUIDRV_Lin_16_C           0055b960 f   GUIDRV_Lin_16.obj
 0002:000ad990       _GUIDRV_Lin_2_C            0055b990 f   GUIDRV_Lin_2.obj
 0002:000ad9c0       _GUIDRV_Lin_24_C           0055b9c0 f   GUIDRV_Lin_24.obj
 0002:000ad9f0       _GUIDRV_Lin_32_C           0055b9f0 f   GUIDRV_Lin_32.obj
 0002:000ada20       _GUIDRV_Lin_4_C            0055ba20 f   GUIDRV_Lin_4.obj
 0002:000ada50       _GUIDRV_Lin_8_C            0055ba50 f   GUIDRV_Lin_8.obj
 0002:000ada80       _GUIDRV_Lin_OSX_16_C       0055ba80 f   GUIDRV_Lin_OSX_16.obj
 0002:000adab0       _GUIDRV_Lin_OSX_24_C       0055bab0 f   GUIDRV_Lin_OSX_24.obj
 0002:000adae0       _GUIDRV_Lin_OSX_32_C       0055bae0 f   GUIDRV_Lin_OSX_32.obj
 0002:000adb10       _GUIDRV_Lin_OSY_16_C       0055bb10 f   GUIDRV_Lin_OSY_16.obj
 0002:000adb40       _GUIDRV_Lin_OSY_24_C       0055bb40 f   GUIDRV_Lin_OSY_24.obj
 0002:000adb70       _GUIDRV_Lin_OSY_32_C       0055bb70 f   GUIDRV_Lin_OSY_32.obj
 0002:000adba0       _GUIDRV_Lin_OS_16_C        0055bba0 f   GUIDRV_Lin_OS_16.obj
 0002:000adbd0       _GUIDRV_Lin_OS_24_C        0055bbd0 f   GUIDRV_Lin_OS_24.obj
 0002:000adc00       _GUIDRV_Lin_OS_32_C        0055bc00 f   GUIDRV_Lin_OS_32.obj
 0002:000adc30       _GUIDRV_Lin_OXY_16_C       0055bc30 f   GUIDRV_Lin_OXY_16.obj
 0002:000adc60       _GUIDRV_Lin_OXY_24_C       0055bc60 f   GUIDRV_Lin_OXY_24.obj
 0002:000adc90       _GUIDRV_Lin_OXY_32_C       0055bc90 f   GUIDRV_Lin_OXY_32.obj
 0002:000adcc0       _GUIDRV_Lin_OX_16_C        0055bcc0 f   GUIDRV_Lin_OX_16.obj
 0002:000adcf0       _GUIDRV_Lin_OX_24_C        0055bcf0 f   GUIDRV_Lin_OX_24.obj
 0002:000add20       _GUIDRV_Lin_OX_32_C        0055bd20 f   GUIDRV_Lin_OX_32.obj
 0002:000add50       _GUIDRV_Lin_OY_16_C        0055bd50 f   GUIDRV_Lin_OY_16.obj
 0002:000add80       _GUIDRV_Lin_OY_24_C        0055bd80 f   GUIDRV_Lin_OY_24.obj
 0002:000addb0       _GUIDRV_Lin_OY_32_C        0055bdb0 f   GUIDRV_Lin_OY_32.obj
 0002:000adde0       _GUIDRV__NoOpt_XorPixel    0055bde0 f   GUIDRV_NoOpt_1_8.obj
 0002:000adea0       _GUIDRV__NoOpt_DrawHLine   0055bea0 f   GUIDRV_NoOpt_1_8.obj
 0002:000adfa0       _GUIDRV__NoOpt_DrawVLine   0055bfa0 f   GUIDRV_NoOpt_1_8.obj
 0002:000ae0a0       _GUIDRV__NoOpt_FillRect    0055c0a0 f   GUIDRV_NoOpt_1_8.obj
 0002:000ae120       _GUIDRV__NoOpt_DrawBitmap  0055c120 f   GUIDRV_NoOpt_1_8.obj
 0002:000b2e50       _GUI_MEMDEV__WriteToActiveAt 00560e50 f   GUIDEV.obj
 0002:000b2f00       _GUI_MEMDEV__CreateFixed   00560f00 f   GUIDEV.obj
 0002:000b31b0       _GUI_MEMDEV_GetBitsPerPixel 005611b0 f   GUIDEV.obj
 0002:000b3240       _GUI_MEMDEV_Delete         00561240 f   GUIDEV.obj
 0002:000b32f0       _GUI_MEMDEV_CreateEx       005612f0 f   GUIDEV.obj
 0002:000b3400       _GUI_MEMDEV_Create         00561400 f   GUIDEV.obj
 0002:000b3460       _GUI_MEMDEV_Select         00561460 f   GUIDEV.obj
 0002:000b3540       _GUI_MEMDEV_CopyToLCDAt    00561540 f   GUIDEV.obj
 0002:000b36c0       _GUI_MEMDEV_CopyToLCD      005616c0 f   GUIDEV.obj
 0002:000bac20       _GUI_MEMDEV_CopyToLCDAA    00568c20 f   GUIDEV_AA.obj
 0002:000bb7e0       _GUI_MEMDEV_CopyFromLCDAA  005697e0 f   GUIDEV_AA.obj
 0002:000bba20       _GUI_MEMDEV_CreateAuto     00569a20 f   GUIDEV_Auto.obj
 0002:000bba60       _GUI_MEMDEV_DeleteAuto     00569a60 f   GUIDEV_Auto.obj
 0002:000bbaa0       _GUI_MEMDEV_DrawAuto       00569aa0 f   GUIDEV_Auto.obj
 0002:000bbca0       _GUI_MEMDEV_Draw           00569ca0 f   GUIDEV_Banding.obj
 0002:000bc050       _GUI_MEMDEV_Clear          0056a050 f   GUIDEV_Clear.obj
 0002:000bc110       _GUI_MEMDEV_CompareWithLCD 0056a110 f   GUIDEV_CmpWithLCD.obj
 0002:000bc710       _GUI_MEMDEV_CopyFromLCD    0056a710 f   GUIDEV_CopyFromLCD.obj
 0002:000bcca0       _GUI_MEMDEV_CreateFixed    0056aca0 f   GUIDEV_CreateFixed.obj
 0002:000bcd30       _GUI_MEMDEV_GetDataPtr     0056ad30 f   GUIDEV_GetDataPtr.obj
 0002:000bcd90       _GUI_MEMDEV_GetXPos        0056ad90 f   GUIDEV_GetPos.obj
 0002:000bce20       _GUI_MEMDEV_GetYPos        0056ae20 f   GUIDEV_GetPos.obj
 0002:000bceb0       _GUI_MEMDEV_GetXSize       0056aeb0 f   GUIDEV_GetXSize.obj
 0002:000bcf40       _GUI_MEMDEV_GetYSize       0056af40 f   GUIDEV_GetYSize.obj
 0002:000bd9b0       _GUI_MEASDEV_Delete        0056b9b0 f   GUIDEV_Measure.obj
 0002:000bda70       _GUI_MEASDEV_ClearRect     0056ba70 f   GUIDEV_Measure.obj
 0002:000bdb10       _GUI_MEASDEV_Create        0056bb10 f   GUIDEV_Measure.obj
 0002:000bdc20       _GUI_MEASDEV_Select        0056bc20 f   GUIDEV_Measure.obj
 0002:000bdcd0       _GUI_MEASDEV_GetRect       0056bcd0 f   GUIDEV_Measure.obj
 0002:000bdd80       _GUI_MEMDEV__FadeDeviceEx  0056bd80 f   GUIDEV_MoveAndFade.obj
 0002:000bdf40       _GUI_MEMDEV__FadeDevice    0056bf40 f   GUIDEV_MoveAndFade.obj
 0002:000bdfb0       _GUI_MEMDEV_FadeDevices    0056bfb0 f   GUIDEV_MoveAndFade.obj
 0002:000be280       _GUI_MEMDEV_MoveInWindow   0056c280 f   GUIDEV_MoveAndFadeWin.obj
 0002:000be940       _GUI_MEMDEV_MoveOutWindow  0056c940 f   GUIDEV_MoveAndFadeWin.obj
 0002:000bea90       _GUI_MEMDEV_FadeInWindow   0056ca90 f   GUIDEV_MoveAndFadeWin.obj
 0002:000beed0       _GUI_MEMDEV_FadeOutWindow  0056ced0 f   GUIDEV_MoveAndFadeWin.obj
 0002:000befd0       _GUIDEV_MoveAndFadeWin_C   0056cfd0 f   GUIDEV_MoveAndFadeWin.obj
 0002:000bf000       _GUI_MEMDEV_DrawPerspectiveX 0056d000 f   GUIDEV_Perspective.obj
 0002:000bf8b0       _GUI_MEMDEV__ReadLine      0056d8b0 f   GUIDEV_ReadLine.obj
 0002:000bfa00       _GUI_MEMDEV_ReduceYSize    0056da00 f   GUIDEV_ReduceYSize.obj
 0002:000bfa90       _GUI_MEMDEV__Rotate        0056da90 f   GUIDEV_Rotate.obj
 0002:000c0530       _GUI_MEMDEV_Rotate         0056e530 f   GUIDEV_Rotate.obj
 0002:000c05a0       _GUI_MEMDEV_RotateHQ       0056e5a0 f   GUIDEV_Rotate.obj
 0002:000c12a0       _GUI_MEMDEV_SetColorConv   0056f2a0 f   GUIDEV_SetColorConv.obj
 0002:000c1310       _GUI_MEMDEV_SetOrg         0056f310 f   GUIDEV_SetOrg.obj
 0002:000c1420       _GUI_MEMDEV_Paint1Static   0056f420 f   GUIDEV_StaticDevices.obj
 0002:000c17b0       _GUI_MEMDEV_CreateStatic   0056f7b0 f   GUIDEV_StaticDevices.obj
 0002:000c1970       _GUI_MEMDEV_GetWindowDevice 0056f970 f   GUIDEV_StaticDevices.obj
 0002:000c2230       _GUI_MEMDEV_GetStaticDevice 00570230 f   GUIDEV_StaticDevices.obj
 0002:000c22a0       _GUIDEV_StaticDevices_C    005702a0 f   GUIDEV_StaticDevices.obj
 0002:000c22d0       _GUI_USAGE_Select          005702d0 f   GUIDEV_Usage.obj
 0002:000c2330       _GUI_USAGE_DecUseCnt       00570330 f   GUIDEV_Usage.obj
 0002:000c23d0       _GUI_USAGE_AddRect         005703d0 f   GUIDEV_Usage.obj
 0002:000c2a80       _GUI_USAGE_BM_Create       00570a80 f   GUIDEV_UsageBM.obj
 0002:000c2b90       _GUI_MEMDEV_WriteAt        00570b90 f   GUIDEV_Write.obj
 0002:000c2cc0       _GUI_MEMDEV_Write          00570cc0 f   GUIDEV_Write.obj
 0002:000c2d20       _GUI_MEMDEV_WriteAlphaAt   00570d20 f   GUIDEV_WriteAlpha.obj
 0002:000c3f60       _GUI_MEMDEV_WriteAlpha     00571f60 f   GUIDEV_WriteAlpha.obj
 0002:000c3fc0       _GUI_MEMDEV_WriteExAt      00571fc0 f   GUIDEV_WriteEx.obj
 0002:000c4d60       _GUI_MEMDEV_WriteEx        00572d60 f   GUIDEV_WriteEx.obj
 0002:000c4dd0       _GUI_MEMDEV__WriteToActiveAlpha 00572dd0 f   GUIDEV_WriteToActiveAlpha.obj
 0002:000c52e0       _GUI_MEMDEV__WriteToActiveOpaque 005732e0 f   GUIDEV_WriteToActiveOpaque.obj
 0002:000c5b90       _GUI_MEMDEV__XY2PTR        00573b90 f   GUIDEV_XY2PTR.obj
 0002:000c5cc0       _GUI_MEMDEV__XY2PTREx      00573cc0 f   GUIDEV_XY2PTR.obj
 0002:000c6060       _BUTTON_SetReactOnLevel    00574060 f   BUTTON.obj
 0002:000c60b0       _BUTTON_LockH              005740b0 f   BUTTON.obj
 0002:000c6130       _BUTTON_Callback           00574130 f   BUTTON.obj
 0002:000c6450       _BUTTON_CreateEx           00574450 f   BUTTON.obj
 0002:000c6580       _BUTTON_SetText            00574580 f   BUTTON.obj
 0002:000c66a0       _BUTTON_SetFont            005746a0 f   BUTTON.obj
 0002:000c6730       _BUTTON_SetState           00574730 f   BUTTON.obj
 0002:000c6790       _BUTTON_SetPressed         00574790 f   BUTTON.obj
 0002:000c6810       _BUTTON_SetFocussable      00574810 f   BUTTON.obj
 0002:000c6880       _BUTTON_SetBitmapEx        00574880 f   BUTTON_Bitmap.obj
 0002:000c68f0       _BUTTON_SetBitmap          005748f0 f   BUTTON_Bitmap.obj
 0002:000c6950       _BUTTON_SetBMPEx           00574950 f   BUTTON_BMP.obj
 0002:000c69c0       _BUTTON_SetBMP             005749c0 f   BUTTON_BMP.obj
 0002:000c6a20       _BUTTON_GetBkColor         00574a20 f   BUTTON_Color.obj
 0002:000c6ab0       _BUTTON_SetBkColor         00574ab0 f   BUTTON_Color.obj
 0002:000c6b40       _BUTTON_GetTextColor       00574b40 f   BUTTON_Color.obj
 0002:000c6bd0       _BUTTON_SetTextColor       00574bd0 f   BUTTON_Color.obj
 0002:000c6c60       _BUTTON_GetFrameColor      00574c60 f   BUTTON_Color.obj
 0002:000c6ce0       _BUTTON_SetFrameColor      00574ce0 f   BUTTON_Color.obj
 0002:000c6d70       _BUTTON_Create             00574d70 f   BUTTON_Create.obj
 0002:000c6de0       _BUTTON_CreateAsChild      00574de0 f   BUTTON_Create.obj
 0002:000c6e50       _BUTTON_CreateIndirect     00574e50 f   BUTTON_CreateIndirect.obj
 0002:000c6f10       _BUTTON_SetDefaultFont     00574f10 f   BUTTON_Default.obj
 0002:000c6f50       _BUTTON_SetDefaultFocusColor 00574f50 f   BUTTON_Default.obj
 0002:000c6fa0       _BUTTON_SetDefaultTextColor 00574fa0 f   BUTTON_Default.obj
 0002:000c6ff0       _BUTTON_SetDefaultBkColor  00574ff0 f   BUTTON_Default.obj
 0002:000c7040       _BUTTON_SetDefaultTextAlign 00575040 f   BUTTON_Default.obj
 0002:000c7080       _BUTTON_GetDefaultFont     00575080 f   BUTTON_Default.obj
 0002:000c70c0       _BUTTON_GetDefaultTextColor 005750c0 f   BUTTON_Default.obj
 0002:000c7120       _BUTTON_GetDefaultBkColor  00575120 f   BUTTON_Default.obj
 0002:000c7180       _BUTTON_GetDefaultTextAlign 00575180 f   BUTTON_Default.obj
 0002:000c71c0       _BUTTON_GetFont            005751c0 f   BUTTON_Get.obj
 0002:000c7240       _BUTTON_GetText            00575240 f   BUTTON_Get.obj
 0002:000c7340       _BUTTON_GetBitmap          00575340 f   BUTTON_GetBitmap.obj
 0002:000c7400       _BUTTON_IsPressed          00575400 f   BUTTON_IsPressed.obj
 0002:000c7490       _BUTTON_SetSelfDrawEx      00575490 f   BUTTON_SelfDraw.obj
 0002:000c7500       _BUTTON_SetSelfDraw        00575500 f   BUTTON_SelfDraw.obj
 0002:000c7560       _BUTTON_SetFocusColor      00575560 f   BUTTON_SetFocusColor.obj
 0002:000c7610       _BUTTON_SetTextAlign       00575610 f   BUTTON_SetTextAlign.obj
 0002:000c7990       _BUTTON_SetSkin            00575990 f   BUTTON_Skin.obj
 0002:000c7a30       _BUTTON_SetDefaultSkin     00575a30 f   BUTTON_Skin.obj
 0002:000c7e60       _BUTTON_SetSkinClassic     00575e60 f   BUTTON_SkinClassic.obj
 0002:000c7ee0       _BUTTON_SetDefaultSkinClassic 00575ee0 f   BUTTON_SkinClassic.obj
 0002:000c7f20       _BUTTON_DrawSkinFlex       00575f20 f   BUTTON_SkinFlex.obj
 0002:000c85a0       _BUTTON_SetSkinFlexProps   005765a0 f   BUTTON_SkinFlex.obj
 0002:000c85f0       _BUTTON_GetSkinFlexProps   005765f0 f   BUTTON_SkinFlex.obj
 0002:000c8640       _BUTTON_SetStreamedBitmapEx 00576640 f   BUTTON_StreamedBitmap.obj
 0002:000c86b0       _BUTTON_SetStreamedBitmap  005766b0 f   BUTTON_StreamedBitmap.obj
 0002:000c8710       _BUTTON__SetDrawObj        00576710 f   BUTTON__SetBitmapObj.obj
 0002:000c87c0       _CHECKBOX__GetButtonSize   005767c0 f   CHECKBOX.obj
 0002:000c8890       _CHECKBOX_LockH            00576890 f   CHECKBOX.obj
 0002:000c8920       _CHECKBOX_Callback         00576920 f   CHECKBOX.obj
 0002:000c8d90       _CHECKBOX_CreateEx         00576d90 f   CHECKBOX.obj
 0002:000c8f40       _CHECKBOX_Create           00576f40 f   CHECKBOX_Create.obj
 0002:000c8fb0       _CHECKBOX_CreateIndirect   00576fb0 f   CHECKBOX_CreateIndirect.obj
 0002:000c9060       _CHECKBOX_SetDefaultSpacing 00577060 f   CHECKBOX_Default.obj
 0002:000c90a0       _CHECKBOX_SetDefaultFocusColor 005770a0 f   CHECKBOX_Default.obj
 0002:000c90f0       _CHECKBOX_SetDefaultTextColor 005770f0 f   CHECKBOX_Default.obj
 0002:000c9130       _CHECKBOX_SetDefaultBkColor 00577130 f   CHECKBOX_Default.obj
 0002:000c9170       _CHECKBOX_SetDefaultFont   00577170 f   CHECKBOX_Default.obj
 0002:000c91b0       _CHECKBOX_SetDefaultAlign  005771b0 f   CHECKBOX_Default.obj
 0002:000c91f0       _CHECKBOX_GetDefaultSpacing 005771f0 f   CHECKBOX_Default.obj
 0002:000c9230       _CHECKBOX_GetDefaultTextColor 00577230 f   CHECKBOX_Default.obj
 0002:000c9270       _CHECKBOX_GetDefaultBkColor 00577270 f   CHECKBOX_Default.obj
 0002:000c92b0       _CHECKBOX_GetDefaultFont   005772b0 f   CHECKBOX_Default.obj
 0002:000c92f0       _CHECKBOX_GetDefaultAlign  005772f0 f   CHECKBOX_Default.obj
 0002:000c9330       _CHECKBOX_GetState         00577330 f   CHECKBOX_GetState.obj
 0002:000c93b0       _CHECKBOX_GetText          005773b0 f   CHECKBOX_GetText.obj
 0002:000c94c0       _CHECKBOX_IsChecked        005774c0 f   CHECKBOX_IsChecked.obj
 0002:000c9520       _CHECKBOX_SetBkColor       00577520 f   CHECKBOX_SetBkColor.obj
 0002:000c95e0       _CHECKBOX_SetBoxBkColor    005775e0 f   CHECKBOX_SetBoxBkColor.obj
 0002:000c96a0       _CHECKBOX_SetDefaultImage  005776a0 f   CHECKBOX_SetDefaultImage.obj
 0002:000c96f0       _CHECKBOX_SetFocusColor    005776f0 f   CHECKBOX_SetFocusColor.obj
 0002:000c97a0       _CHECKBOX_SetFont          005777a0 f   CHECKBOX_SetFont.obj
 0002:000c9830       _CHECKBOX_SetImage         00577830 f   CHECKBOX_SetImage.obj
 0002:000c98b0       _CHECKBOX_SetNumStates     005778b0 f   CHECKBOX_SetNumStates.obj
 0002:000c9990       _CHECKBOX_SetSpacing       00577990 f   CHECKBOX_SetSpacing.obj
 0002:000c9a30       _CHECKBOX_SetState         00577a30 f   CHECKBOX_SetState.obj
 0002:000c9af0       _CHECKBOX_SetText          00577af0 f   CHECKBOX_SetText.obj
 0002:000c9c10       _CHECKBOX_SetTextAlign     00577c10 f   CHECKBOX_SetTextAlign.obj
 0002:000c9cb0       _CHECKBOX_SetTextColor     00577cb0 f   CHECKBOX_SetTextColor.obj
 0002:000ca030       _CHECKBOX_SetSkin          00578030 f   CHECKBOX_Skin.obj
 0002:000ca0d0       _CHECKBOX_SetDefaultSkin   005780d0 f   CHECKBOX_Skin.obj
 0002:000ca640       _CHECKBOX_SetSkinClassic   00578640 f   CHECKBOX_SkinClassic.obj
 0002:000ca6c0       _CHECKBOX_SetDefaultSkinClassic 005786c0 f   CHECKBOX_SkinClassic.obj
 0002:000ca700       _CHECKBOX_DrawSkinFlex     00578700 f   CHECKBOX_SkinFlex.obj
 0002:000cb1a0       _CHECKBOX_SetSkinFlexProps 005791a0 f   CHECKBOX_SkinFlex.obj
 0002:000cb1f0       _CHECKBOX_GetSkinFlexProps 005791f0 f   CHECKBOX_SkinFlex.obj
 0002:000cb240       _DIALOG_GetBkColor         00579240 f   DIALOG.obj
 0002:000cb280       _DIALOG_SetBkColor         00579280 f   DIALOG.obj
 0002:000cb2d0       _GUI_SetDialogStatusPtr    005792d0 f   DIALOG.obj
 0002:000cb380       _GUI_GetDialogStatusPtr    00579380 f   DIALOG.obj
 0002:000cb430       _GUI_CreateDialogBox       00579430 f   DIALOG.obj
 0002:000cb5a0       _GUI_EndDialog             005795a0 f   DIALOG.obj
 0002:000cb620       _GUI_ExecCreatedDialog     00579620 f   DIALOG.obj
 0002:000cb6e0       _GUI_ExecDialogBox         005796e0 f   DIALOG.obj
 0002:000cb760       _DROPDOWN__GetNumItems     00579760 f   DROPDOWN.obj
 0002:000cb7c0       _DROPDOWN__GetpItemLocked  005797c0 f   DROPDOWN.obj
 0002:000cb870       _DROPDOWN_LockH            00579870 f   DROPDOWN.obj
 0002:000cb900       _DROPDOWN__AdjustHeight    00579900 f   DROPDOWN.obj
 0002:000cb9e0       _DROPDOWN_Callback         005799e0 f   DROPDOWN.obj
 0002:000cbf60       _DROPDOWN_CreateEx         00579f60 f   DROPDOWN.obj
 0002:000cc0f0       _DROPDOWN_Collapse         0057a0f0 f   DROPDOWN.obj
 0002:000cc1a0       _DROPDOWN_Expand           0057a1a0 f   DROPDOWN.obj
 0002:000cc810       _DROPDOWN_AddKey           0057a810 f   DROPDOWN.obj
 0002:000cca20       _DROPDOWN_SetSel           0057aa20 f   DROPDOWN.obj
 0002:000ccb30       _DROPDOWN_IncSel           0057ab30 f   DROPDOWN.obj
 0002:000ccba0       _DROPDOWN_DecSel           0057aba0 f   DROPDOWN.obj
 0002:000ccc20       _DROPDOWN_GetSel           0057ac20 f   DROPDOWN.obj
 0002:000ccca0       _DROPDOWN_AddString        0057aca0 f   DROPDOWN_AddString.obj
 0002:000ccd60       _DROPDOWN_Create           0057ad60 f   DROPDOWN_Create.obj
 0002:000ccdd0       _DROPDOWN_CreateIndirect   0057add0 f   DROPDOWN_CreateIndirect.obj
 0002:000cce80       _DROPDOWN_SetDefaultFont   0057ae80 f   DROPDOWN_Default.obj
 0002:000ccec0       _DROPDOWN_GetDefaultFont   0057aec0 f   DROPDOWN_Default.obj
 0002:000ccf00       _DROPDOWN_SetDefaultColor  0057af00 f   DROPDOWN_Default.obj
 0002:000ccf70       _DROPDOWN_SetDefaultBkColor 0057af70 f   DROPDOWN_Default.obj
 0002:000ccfe0       _DROPDOWN_GetDefaultBkColor 0057afe0 f   DROPDOWN_Default.obj
 0002:000cd040       _DROPDOWN_SetDefaultScrollbarColor 0057b040 f   DROPDOWN_Default.obj
 0002:000cd0b0       _DROPDOWN_GetDefaultColor  0057b0b0 f   DROPDOWN_Default.obj
 0002:000cd110       _DROPDOWN_GetDefaultScrollbarColor 0057b110 f   DROPDOWN_Default.obj
 0002:000cd170       _DROPDOWN_DeleteItem       0057b170 f   DROPDOWN_DeleteItem.obj
 0002:000cd250       _DROPDOWN_IncSelExp        0057b250 f   DROPDOWN_Expanded.obj
 0002:000cd2e0       _DROPDOWN_DecSelExp        0057b2e0 f   DROPDOWN_Expanded.obj
 0002:000cd370       _DROPDOWN_GetSelExp        0057b370 f   DROPDOWN_Expanded.obj
 0002:000cd410       _DROPDOWN_SetSelExp        0057b410 f   DROPDOWN_Expanded.obj
 0002:000cd4b0       _DROPDOWN_GetListbox       0057b4b0 f   DROPDOWN_Expanded.obj
 0002:000cd540       _DROPDOWN_GetNumItems      0057b540 f   DROPDOWN_GetNumItems.obj
 0002:000cd5d0       _DROPDOWN_InsertString     0057b5d0 f   DROPDOWN_InsertString.obj
 0002:000cd750       _DROPDOWN_SetItemDisabled  0057b750 f   DROPDOWN_ItemDisabled.obj
 0002:000cda60       _DROPDOWN_GetItemDisabled  0057ba60 f   DROPDOWN_ItemDisabled.obj
 0002:000cdba0       _DROPDOWN_SetItemSpacing   0057bba0 f   DROPDOWN_ItemSpacing.obj
 0002:000cdc50       _DROPDOWN_GetItemSpacing   0057bc50 f   DROPDOWN_ItemSpacing.obj
 0002:000cdce0       _DROPDOWN_SetAutoScroll    0057bce0 f   DROPDOWN_SetAutoScroll.obj
 0002:000cddf0       _DROPDOWN_SetBkColor       0057bdf0 f   DROPDOWN_SetBkColor.obj
 0002:000cdee0       _DROPDOWN_SetColor         0057bee0 f   DROPDOWN_SetColor.obj
 0002:000cdfa0       _DROPDOWN_SetFont          0057bfa0 f   DROPDOWN_SetFont.obj
 0002:000ce0b0       _DROPDOWN_SetScrollbarColor 0057c0b0 f   DROPDOWN_SetScrollbarColor.obj
 0002:000ce180       _DROPDOWN_SetScrollbarWidth 0057c180 f   DROPDOWN_SetScrollbarWidth.obj
 0002:000ce250       _DROPDOWN_SetTextAlign     0057c250 f   DROPDOWN_SetTextAlign.obj
 0002:000ce2e0       _DROPDOWN_SetTextColor     0057c2e0 f   DROPDOWN_SetTextColor.obj
 0002:000ce3d0       _DROPDOWN_SetTextHeight    0057c3d0 f   DROPDOWN_SetTextHeight.obj
 0002:000ce700       _DROPDOWN_SetSkin          0057c700 f   DROPDOWN_Skin.obj
 0002:000ce7a0       _DROPDOWN_SetDefaultSkin   0057c7a0 f   DROPDOWN_Skin.obj
 0002:000ceb80       _DROPDOWN_SetSkinClassic   0057cb80 f   DROPDOWN_SkinClassic.obj
 0002:000cec00       _DROPDOWN_SetDefaultSkinClassic 0057cc00 f   DROPDOWN_SkinClassic.obj
 0002:000cec40       _DROPDOWN_DrawSkinFlex     0057cc40 f   DROPDOWN_SkinFlex.obj
 0002:000cf470       _DROPDOWN_SetSkinFlexProps 0057d470 f   DROPDOWN_SkinFlex.obj
 0002:000cf4c0       _DROPDOWN_GetSkinFlexProps 0057d4c0 f   DROPDOWN_SkinFlex.obj
 0002:000cf510       _EDIT_LockH                0057d510 f   EDIT.obj
 0002:000cf5a0       _EDIT__GetCurrentChar      0057d5a0 f   EDIT.obj
 0002:000cf650       _EDIT__SetCursorPos        0057d650 f   EDIT.obj
 0002:000cf780       _EDIT__SetValueUnsigned    0057d780 f   EDIT.obj
 0002:000cf930       _EDIT_Callback             0057d930 f   EDIT.obj
 0002:000d0310       _EDIT_CreateEx             0057e310 f   EDIT.obj
 0002:000d05d0       _EDIT_SetCursorAtPixel     0057e5d0 f   EDIT.obj
 0002:000d07d0       _EDIT_AddKey               0057e7d0 f   EDIT.obj
 0002:000d10d0       _EDIT_SetFont              0057f0d0 f   EDIT.obj
 0002:000d1160       _EDIT_SetBkColor           0057f160 f   EDIT.obj
 0002:000d1200       _EDIT_SetTextColor         0057f200 f   EDIT.obj
 0002:000d12a0       _EDIT_SetText              0057f2a0 f   EDIT.obj
 0002:000d14c0       _EDIT_GetText              0057f4c0 f   EDIT.obj
 0002:000d15e0       _EDIT_GetValue             0057f5e0 f   EDIT.obj
 0002:000d1660       _EDIT_SetValue             0057f660 f   EDIT.obj
 0002:000d16c0       _EDIT_SetMaxLen            0057f6c0 f   EDIT.obj
 0002:000d1830       _EDIT_SetTextAlign         0057f830 f   EDIT.obj
 0002:000d18c0       _EDIT_SetBinMode           0057f8c0 f   EDITBin.obj
 0002:000d1ea0       _EDIT_SetDecMode           0057fea0 f   EDITDec.obj
 0002:000d2b60       _EDIT_SetFloatMode         00580b60 f   EDITFloat.obj
 0002:000d2c80       _EDIT_GetFloatValue        00580c80 f   EDITFloat.obj
 0002:000d2d40       _EDIT_SetFloatValue        00580d40 f   EDITFloat.obj
 0002:000d2e40       _EDIT_SetHexMode           00580e40 f   EDITHex.obj
 0002:000d3430       _EDIT_SetUlongMode         00581430 f   EDITUlong.obj
 0002:000d3c90       _EDIT_Create               00581c90 f   EDIT_Create.obj
 0002:000d3d00       _EDIT_CreateAsChild        00581d00 f   EDIT_Create.obj
 0002:000d3d80       _EDIT_CreateIndirect       00581d80 f   EDIT_CreateIndirect.obj
 0002:000d3e50       _EDIT_SetDefaultFont       00581e50 f   EDIT_Default.obj
 0002:000d3e90       _EDIT_GetDefaultFont       00581e90 f   EDIT_Default.obj
 0002:000d3ed0       _EDIT_SetDefaultTextAlign  00581ed0 f   EDIT_Default.obj
 0002:000d3f10       _EDIT_GetDefaultTextAlign  00581f10 f   EDIT_Default.obj
 0002:000d3f50       _EDIT_SetDefaultTextColor  00581f50 f   EDIT_Default.obj
 0002:000d3fa0       _EDIT_SetDefaultBkColor    00581fa0 f   EDIT_Default.obj
 0002:000d3ff0       _EDIT_GetDefaultTextColor  00581ff0 f   EDIT_Default.obj
 0002:000d4050       _EDIT_GetDefaultBkColor    00582050 f   EDIT_Default.obj
 0002:000d40b0       _EDIT_EnableBlink          005820b0 f   EDIT_EnableBlink.obj
 0002:000d41b0       _EDIT_GetCursorPixelPos    005821b0 f   EDIT_GetCursorPixelPos.obj
 0002:000d4370       _EDIT_GetCursorCharPos     00582370 f   EDIT_GetCursorPos.obj
 0002:000d43f0       _EDIT_GetNumChars          005823f0 f   EDIT_GetNumChars.obj
 0002:000d44b0       _EDIT_SetCursorAtChar      005824b0 f   EDIT_SetCursorAtChar.obj
 0002:000d4520       _EDIT_SetFocussable        00582520 f   EDIT_SetFocussable.obj
 0002:000d4590       _EDIT_SetInsertMode        00582590 f   EDIT_SetInsertMode.obj
 0002:000d4630       _EDIT_SetpfAddKeyEx        00582630 f   EDIT_SetpfAddKeyEx.obj
 0002:000d46b0       _EDIT_SetpfUpdateBuffer    005826b0 f   EDIT_SetpfUpdateBuffer.obj
 0002:000d4730       _EDIT_SetSel               00582730 f   EDIT_SetSel.obj
 0002:000d4840       _EDIT_SetTextMode          00582840 f   EDIT_SetTextMode.obj
 0002:000d4950       _FRAMEWIN_LockH            00582950 f   FRAMEWIN.obj
 0002:000d49e0       _FRAMEWIN__GetBorderSize   005829e0 f   FRAMEWIN.obj
 0002:000d4b20       _FRAMEWIN__CalcTitleHeight 00582b20 f   FRAMEWIN.obj
 0002:000d4bb0       _FRAMEWIN__GetTitleLimits  00582bb0 f   FRAMEWIN.obj
 0002:000d4d80       _FRAMEWIN__CalcPositions   00582d80 f   FRAMEWIN.obj
 0002:000d5070       _FRAMEWIN__UpdatePositions 00583070 f   FRAMEWIN.obj
 0002:000d51e0       _FRAMEWIN_Callback         005831e0 f   FRAMEWIN.obj
 0002:000d5b00       _FRAMEWIN_CreateEx         00583b00 f   FRAMEWIN.obj
 0002:000d6130       _FRAMEWIN_SetText          00584130 f   FRAMEWIN.obj
 0002:000d6240       _FRAMEWIN_SetTextAlign     00584240 f   FRAMEWIN.obj
 0002:000d62e0       _FRAMEWIN_SetMoveable      005842e0 f   FRAMEWIN.obj
 0002:000d6390       _FRAMEWIN_SetActive        00584390 f   FRAMEWIN.obj
 0002:000d63f0       _FRAMEWIN_AddMenu          005843f0 f   FRAMEWIN_AddMenu.obj
 0002:000d6580       _FRAMEWIN_AddButton        00584580 f   FRAMEWIN_Button.obj
 0002:000d6710       _FRAMEWIN_AddCloseButton   00584710 f   FRAMEWIN_ButtonClose.obj
 0002:000d69a0       _FRAMEWIN_AddMaxButton     005849a0 f   FRAMEWIN_ButtonMax.obj
 0002:000d7030       _FRAMEWIN_AddMinButton     00585030 f   FRAMEWIN_ButtonMin.obj
 0002:000d7510       _FRAMEWIN_Create           00585510 f   FRAMEWIN_Create.obj
 0002:000d7590       _FRAMEWIN_CreateAsChild    00585590 f   FRAMEWIN_Create.obj
 0002:000d7610       _FRAMEWIN_CreateIndirect   00585610 f   FRAMEWIN_CreateIndirect.obj
 0002:000d76c0       _FRAMEWIN_SetDefaultFont   005856c0 f   FRAMEWIN_Default.obj
 0002:000d7700       _FRAMEWIN_GetDefaultFont   00585700 f   FRAMEWIN_Default.obj
 0002:000d7740       _FRAMEWIN_SetDefaultBarColor 00585740 f   FRAMEWIN_Default.obj
 0002:000d7790       _FRAMEWIN_GetDefaultBarColor 00585790 f   FRAMEWIN_Default.obj
 0002:000d77f0       _FRAMEWIN_SetDefaultClientColor 005857f0 f   FRAMEWIN_Default.obj
 0002:000d7830       _FRAMEWIN_GetDefaultClientColor 00585830 f   FRAMEWIN_Default.obj
 0002:000d7870       _FRAMEWIN_SetDefaultTitleHeight 00585870 f   FRAMEWIN_Default.obj
 0002:000d78b0       _FRAMEWIN_GetDefaultTitleHeight 005858b0 f   FRAMEWIN_Default.obj
 0002:000d78f0       _FRAMEWIN_SetDefaultBorderSize 005858f0 f   FRAMEWIN_Default.obj
 0002:000d7930       _FRAMEWIN_GetDefaultBorderSize 00585930 f   FRAMEWIN_Default.obj
 0002:000d7970       _FRAMEWIN_SetDefaultTextColor 00585970 f   FRAMEWIN_Default.obj
 0002:000d79c0       _FRAMEWIN_GetDefaultTextColor 005859c0 f   FRAMEWIN_Default.obj
 0002:000d7a20       _FRAMEWIN_SetDefaultTextAlign 00585a20 f   FRAMEWIN_Default.obj
 0002:000d7a70       _FRAMEWIN_GetFont          00585a70 f   FRAMEWIN_Get.obj
 0002:000d7b00       _FRAMEWIN_GetTitleHeight   00585b00 f   FRAMEWIN_Get.obj
 0002:000d7c00       _FRAMEWIN_GetBorderSize    00585c00 f   FRAMEWIN_Get.obj
 0002:000d7cb0       _FRAMEWIN_GetTextAlign     00585cb0 f   FRAMEWIN_Get.obj
 0002:000d7d30       _FRAMEWIN_GetText          00585d30 f   FRAMEWIN_Get.obj
 0002:000d7e20       _FRAMEWIN_GetBarColor      00585e20 f   FRAMEWIN_Get.obj
 0002:000d7eb0       _FRAMEWIN_GetActive        00585eb0 f   FRAMEWIN_Get.obj
 0002:000d7f40       _FRAMEWIN_IsMinimized      00585f40 f   FRAMEWIN_IsMinMax.obj
 0002:000d7fd0       _FRAMEWIN_IsMaximized      00585fd0 f   FRAMEWIN_IsMinMax.obj
 0002:000d8070       _FRAMEWIN_Minimize         00586070 f   FRAMEWIN_MinMaxRest.obj
 0002:000d8450       _FRAMEWIN_Maximize         00586450 f   FRAMEWIN_MinMaxRest.obj
 0002:000d87e0       _FRAMEWIN_Restore          005867e0 f   FRAMEWIN_MinMaxRest.obj
 0002:000d8850       _FRAMEWIN_SetBorderSize    00586850 f   FRAMEWIN_SetBorderSize.obj
 0002:000d8a50       _FRAMEWIN_SetBarColor      00586a50 f   FRAMEWIN_SetColors.obj
 0002:000d8ae0       _FRAMEWIN_SetTextColor     00586ae0 f   FRAMEWIN_SetColors.obj
 0002:000d8b90       _FRAMEWIN_SetTextColorEx   00586b90 f   FRAMEWIN_SetColors.obj
 0002:000d8c20       _FRAMEWIN_SetClientColor   00586c20 f   FRAMEWIN_SetColors.obj
 0002:000d8cc0       _FRAMEWIN_SetFont          00586cc0 f   FRAMEWIN_SetFont.obj
 0002:000d8e10       _FRAMEWIN_SetOwnerDraw     00586e10 f   FRAMEWIN_SetOwnerDraw.obj
 0002:000d8ea0       _FRAMEWIN_SetResizeable    00586ea0 f   FRAMEWIN_SetResizeable.obj
 0002:000d9af0       _FRAMEWIN_SetTitleHeight   00587af0 f   FRAMEWIN_SetTitleHeight.obj
 0002:000d9c60       _FRAMEWIN_SetTitleVis      00587c60 f   FRAMEWIN_SetTitleVis.obj
 0002:000da270       _FRAMEWIN_SetSkin          00588270 f   FRAMEWIN_Skin.obj
 0002:000da3f0       _FRAMEWIN_SetDefaultSkin   005883f0 f   FRAMEWIN_Skin.obj
 0002:000da750       _FRAMEWIN_OwnerDraw        00588750 f   FRAMEWIN_SkinClassic.obj
 0002:000daa70       _FRAMEWIN_SetSkinClassic   00588a70 f   FRAMEWIN_SkinClassic.obj
 0002:000dabe0       _FRAMEWIN_SetDefaultSkinClassic 00588be0 f   FRAMEWIN_SkinClassic.obj
 0002:000dac20       _FRAMEWIN_DrawSkinFlex     00588c20 f   FRAMEWIN_SkinFlex.obj
 0002:000db6a0       _FRAMEWIN_SetSkinFlexProps 005896a0 f   FRAMEWIN_SkinFlex.obj
 0002:000db7a0       _FRAMEWIN_GetSkinFlexProps 005897a0 f   FRAMEWIN_SkinFlex.obj
 0002:000db7f0       _FRAMEWIN__UpdateButtons   005897f0 f   FRAMEWIN__UpdateButtons.obj
 0002:000dbaa0       _GRAPH_LockH               00589aa0 f   GRAPH.obj
 0002:000dbb30       _GRAPH__AddValue           00589b30 f   GRAPH.obj
 0002:000dbe60       _GRAPH_Callback            00589e60 f   GRAPH.obj
 0002:000dd2a0       _GRAPH_CreateEx            0058b2a0 f   GRAPH.obj
 0002:000dd3c0       _GRAPH_AttachData          0058b3c0 f   GRAPH.obj
 0002:000dd490       _GRAPH_DetachData          0058b490 f   GRAPH.obj
 0002:000dd5c0       _GRAPH_AttachScale         0058b5c0 f   GRAPH.obj
 0002:000dd690       _GRAPH_DetachScale         0058b690 f   GRAPH.obj
 0002:000dd7c0       _GRAPH_SetColor            0058b7c0 f   GRAPH.obj
 0002:000dd880       _GRAPH_SetGridVis          0058b880 f   GRAPH.obj
 0002:000dd940       _GRAPH_SetGridDistX        0058b940 f   GRAPH.obj
 0002:000dd9f0       _GRAPH_SetGridDistY        0058b9f0 f   GRAPH.obj
 0002:000ddaa0       _GRAPH_SetGridOffY         0058baa0 f   GRAPH.obj
 0002:000ddb50       _GRAPH_SetBorder           0058bb50 f   GRAPH.obj
 0002:000ddc10       _GRAPH_SetUserDraw         0058bc10 f   GRAPH.obj
 0002:000ddca0       _GRAPH_SetVSizeX           0058bca0 f   GRAPH.obj
 0002:000ddd70       _GRAPH_SetVSizeY           0058bd70 f   GRAPH.obj
 0002:000dde40       _GRAPH_SetGridFixedX       0058be40 f   GRAPH.obj
 0002:000ddf40       _GRAPH_SetLineStyleH       0058bf40 f   GRAPH.obj
 0002:000ddff0       _GRAPH_SetLineStyleV       0058bff0 f   GRAPH.obj
 0002:000de0a0       _GRAPH_SetLineStyle        0058c0a0 f   GRAPH.obj
 0002:000de110       _GRAPH_CreateIndirect      0058c110 f   GRAPH_CreateIndirect.obj
 0002:000de1c0       _GRAPH_DATA_XY_Create      0058c1c0 f   GRAPH_DATA_XY.obj
 0002:000de9a0       _GRAPH_DATA_XY_Delete      0058c9a0 f   GRAPH_DATA_XY.obj
 0002:000de9f0       _GRAPH_DATA_XY_AddPoint    0058c9f0 f   GRAPH_DATA_XY.obj
 0002:000deaa0       _GRAPH_DATA_XY_SetOffX     0058caa0 f   GRAPH_DATA_XY.obj
 0002:000deb40       _GRAPH_DATA_XY_SetOffY     0058cb40 f   GRAPH_DATA_XY.obj
 0002:000debe0       _GRAPH_DATA_XY_SetPenSize  0058cbe0 f   GRAPH_DATA_XY.obj
 0002:000dec80       _GRAPH_DATA_XY_SetLineStyle 0058cc80 f   GRAPH_DATA_XY.obj
 0002:000ded20       _GRAPH_DATA_XY_GetLineVis  0058cd20 f   GRAPH_DATA_XY.obj
 0002:000dedb0       _GRAPH_DATA_XY_GetPointVis 0058cdb0 f   GRAPH_DATA_XY.obj
 0002:000dee40       _GRAPH_DATA_XY_SetLineVis  0058ce40 f   GRAPH_DATA_XY.obj
 0002:000def50       _GRAPH_DATA_XY_SetPointVis 0058cf50 f   GRAPH_DATA_XY.obj
 0002:000df060       _GRAPH_DATA_XY_Clear       0058d060 f   GRAPH_DATA_XY.obj
 0002:000df0f0       _GRAPH_DATA_XY_SetOwnerDraw 0058d0f0 f   GRAPH_DATA_XY.obj
 0002:000df180       _GRAPH_DATA_XY_SetPointSize 0058d180 f   GRAPH_DATA_XY.obj
 0002:000df210       _GRAPH_DATA_YT_Create      0058d210 f   GRAPH_DATA_YT.obj
 0002:000df670       _GRAPH_DATA_YT_Delete      0058d670 f   GRAPH_DATA_YT.obj
 0002:000df6c0       _GRAPH_DATA_YT_AddValue    0058d6c0 f   GRAPH_DATA_YT.obj
 0002:000df770       _GRAPH_DATA_YT_SetOffY     0058d770 f   GRAPH_DATA_YT.obj
 0002:000df810       _GRAPH_DATA_YT_SetAlign    0058d810 f   GRAPH_DATA_YT.obj
 0002:000df8b0       _GRAPH_DATA_YT_MirrorX     0058d8b0 f   GRAPH_DATA_YT.obj
 0002:000df950       _GRAPH_DATA_YT_Clear       0058d950 f   GRAPH_DATA_YT.obj
 0002:000df9e0       _GRAPH_SCALE_Create        0058d9e0 f   GRAPH_SCALE.obj
 0002:000e0120       _GRAPH_SCALE_Delete        0058e120 f   GRAPH_SCALE.obj
 0002:000e0170       _GRAPH_SCALE_SetOff        0058e170 f   GRAPH_SCALE.obj
 0002:000e0220       _GRAPH_SCALE_SetTickDist   0058e220 f   GRAPH_SCALE.obj
 0002:000e02d0       _GRAPH_SCALE_SetFont       0058e2d0 f   GRAPH_SCALE.obj
 0002:000e0380       _GRAPH_SCALE_SetTextColor  0058e380 f   GRAPH_SCALE.obj
 0002:000e0430       _GRAPH_SCALE_SetPos        0058e430 f   GRAPH_SCALE.obj
 0002:000e04e0       _GRAPH_SCALE_SetFactor     0058e4e0 f   GRAPH_SCALE.obj
 0002:000e05a0       _GRAPH_SCALE_SetNumDecs    0058e5a0 f   GRAPH_SCALE.obj
 0002:000e0650       _GUI_ARRAY__SethItem       0058e650 f   GUI_ARRAY.obj
 0002:000e0710       _GUI_ARRAY__GethItem       0058e710 f   GUI_ARRAY.obj
 0002:000e07b0       _GUI_ARRAY__GetpItemLocked 0058e7b0 f   GUI_ARRAY.obj
 0002:000e0830       _GUI_ARRAY_GetNumItems     0058e830 f   GUI_ARRAY.obj
 0002:000e08b0       _GUI_ARRAY_AddItem         0058e8b0 f   GUI_ARRAY.obj
 0002:000e0a60       _GUI_ARRAY_Delete          0058ea60 f   GUI_ARRAY.obj
 0002:000e0b70       _GUI_ARRAY_SetItem         0058eb70 f   GUI_ARRAY.obj
 0002:000e0d40       _GUI_ARRAY_GethItem        0058ed40 f   GUI_ARRAY.obj
 0002:000e0dd0       _GUI_ARRAY_GetpItemLocked  0058edd0 f   GUI_ARRAY.obj
 0002:000e0e60       _GUI_ARRAY_Create          0058ee60 f   GUI_ARRAY.obj
 0002:000e0ec0       _GUI_ARRAY_DeleteItem      0058eec0 f   GUI_ARRAY_DeleteItem.obj
 0002:000e0fe0       _GUI_ARRAY_InsertBlankItem 0058efe0 f   GUI_ARRAY_InsertItem.obj
 0002:000e11b0       _GUI_ARRAY_InsertItem      0058f1b0 f   GUI_ARRAY_InsertItem.obj
 0002:000e1240       _GUI_ARRAY_ResizeItemLocked 0058f240 f   GUI_ARRAY_ResizeItem.obj
 0002:000e1390       _GUI_DRAW__Draw            0058f390 f   GUI_DRAW.obj
 0002:000e1430       _GUI_DRAW__GetXSize        0058f430 f   GUI_DRAW.obj
 0002:000e14d0       _GUI_DRAW__GetYSize        0058f4d0 f   GUI_DRAW.obj
 0002:000e1730       _GUI_DRAW_BITMAP_Create    0058f730 f   GUI_DRAW_BITMAP.obj
 0002:000e19b0       _GUI_DRAW_BMP_Create       0058f9b0 f   GUI_DRAW_BMP.obj
 0002:000e1b80       _GUI_DRAW_SELF_Create      0058fb80 f   GUI_DRAW_Self.obj
 0002:000e1df0       _GUI_DRAW_STREAMED_Create  0058fdf0 f   GUI_DRAW_STREAMED.obj
 0002:000e1ea0       _GUI_EditBin               0058fea0 f   GUI_EditBin.obj
 0002:000e2020       _GUI_EditDec               00590020 f   GUI_EditDec.obj
 0002:000e21a0       _GUI_EditFloat             005901a0 f   GUI_EditFloat.obj
 0002:000e2370       _GUI_EditHex               00590370 f   GUI_EditHex.obj
 0002:000e24f0       _GUI_EditString            005904f0 f   GUI_EditString.obj
 0002:000e2670       _GUI_HOOK_Add              00590670 f   GUI_HOOK.obj
 0002:000e26c0       _GUI_HOOK_Remove           005906c0 f   GUI_HOOK.obj
 0002:000e2710       _HEADER_LockH              00590710 f   HEADER.obj
 0002:000e2790       _HEADER_Callback           00590790 f   HEADER.obj
 0002:000e34b0       _HEADER_Create             005914b0 f   HEADER.obj
 0002:000e3520       _HEADER_CreateEx           00591520 f   HEADER.obj
 0002:000e37a0       _HEADER_SetFont            005917a0 f   HEADER.obj
 0002:000e3850       _HEADER_SetHeight          00591850 f   HEADER.obj
 0002:000e3920       _HEADER_SetTextAlign       00591920 f   HEADER.obj
 0002:000e39f0       _HEADER_SetScrollPos       005919f0 f   HEADER.obj
 0002:000e3ab0       _HEADER_AddItem            00591ab0 f   HEADER.obj
 0002:000e3cf0       _HEADER_DeleteItem         00591cf0 f   HEADER.obj
 0002:000e3dc0       _HEADER_SetItemText        00591dc0 f   HEADER.obj
 0002:000e3eb0       _HEADER_SetItemWidth       00591eb0 f   HEADER.obj
 0002:000e4030       _HEADER_GetHeight          00592030 f   HEADER.obj
 0002:000e4110       _HEADER_GetItemWidth       00592110 f   HEADER.obj
 0002:000e41e0       _HEADER_GetNumItems        005921e0 f   HEADER.obj
 0002:000e4270       _HEADER_SetDirIndicator    00592270 f   HEADER.obj
 0002:000e4320       _HEADER_SetBitmapEx        00592320 f   HEADER_Bitmap.obj
 0002:000e43a0       _HEADER_SetBitmap          005923a0 f   HEADER_Bitmap.obj
 0002:000e4400       _HEADER_SetBMPEx           00592400 f   HEADER_BMP.obj
 0002:000e4480       _HEADER_SetBMP             00592480 f   HEADER_BMP.obj
 0002:000e44e0       _HEADER_SetTextColor       005924e0 f   HEADER_Color.obj
 0002:000e4570       _HEADER_SetBkColor         00592570 f   HEADER_Color.obj
 0002:000e4600       _HEADER_SetArrowColor      00592600 f   HEADER_Color.obj
 0002:000e4690       _HEADER_GetTextColor       00592690 f   HEADER_Color.obj
 0002:000e4710       _HEADER_GetBkColor         00592710 f   HEADER_Color.obj
 0002:000e4790       _HEADER_GetArrowColor      00592790 f   HEADER_Color.obj
 0002:000e4810       _HEADER_CreateAttached     00592810 f   HEADER_Create.obj
 0002:000e4880       _HEADER_CreateIndirect     00592880 f   HEADER_CreateIndirect.obj
 0002:000e4930       _HEADER_SetDefaultCursor   00592930 f   HEADER_Default.obj
 0002:000e4980       _HEADER_SetDefaultBkColor  00592980 f   HEADER_Default.obj
 0002:000e49d0       _HEADER_SetDefaultTextColor 005929d0 f   HEADER_Default.obj
 0002:000e4a20       _HEADER_SetDefaultArrowColor 00592a20 f   HEADER_Default.obj
 0002:000e4a70       _HEADER_SetDefaultBorderH  00592a70 f   HEADER_Default.obj
 0002:000e4ac0       _HEADER_SetDefaultBorderV  00592ac0 f   HEADER_Default.obj
 0002:000e4b10       _HEADER_SetDefaultFont     00592b10 f   HEADER_Default.obj
 0002:000e4b60       _HEADER_GetDefaultCursor   00592b60 f   HEADER_Default.obj
 0002:000e4ba0       _HEADER_GetDefaultBkColor  00592ba0 f   HEADER_Default.obj
 0002:000e4be0       _HEADER_GetDefaultArrowColor 00592be0 f   HEADER_Default.obj
 0002:000e4c20       _HEADER_GetDefaultTextColor 00592c20 f   HEADER_Default.obj
 0002:000e4c60       _HEADER_GetDefaultBorderH  00592c60 f   HEADER_Default.obj
 0002:000e4ca0       _HEADER_GetDefaultBorderV  00592ca0 f   HEADER_Default.obj
 0002:000e4ce0       _HEADER_GetDefaultFont     00592ce0 f   HEADER_Default.obj
 0002:000e4d20       _HEADER_GetSel             00592d20 f   HEADER_GetSel.obj
 0002:000e4da0       _HEADER_SetDragLimit       00592da0 f   HEADER_SetDragLimit.obj
 0002:000e4e30       _HEADER_SetFixed           00592e30 f   HEADER_SetFixed.obj
 0002:000e5440       _HEADER_SetSkin            00593440 f   HEADER_Skin.obj
 0002:000e54e0       _HEADER_SetDefaultSkin     005934e0 f   HEADER_Skin.obj
 0002:000e5cb0       _HEADER_SetSkinClassic     00593cb0 f   HEADER_SkinClassic.obj
 0002:000e5d30       _HEADER_SetDefaultSkinClassic 00593d30 f   HEADER_SkinClassic.obj
 0002:000e5d70       _HEADER_DrawSkinFlex       00593d70 f   HEADER_SkinFlex.obj
 0002:000e67a0       _HEADER_SetSkinFlexProps   005947a0 f   HEADER_SkinFlex.obj
 0002:000e67f0       _HEADER_GetSkinFlexProps   005947f0 f   HEADER_SkinFlex.obj
 0002:000e6840       _HEADER_SetStreamedBitmapEx 00594840 f   HEADER_StreamedBitmap.obj
 0002:000e68c0       _HEADER_SetStreamedBitmap  005948c0 f   HEADER_StreamedBitmap.obj
 0002:000e6920       _HEADER__SetDrawObj        00594920 f   HEADER__SetDrawObj.obj
 0002:000e69f0       _ICONVIEW_LockH            005949f0 f   ICONVIEW.obj
 0002:000e6a80       _ICONVIEW_Callback         00594a80 f   ICONVIEW.obj
 0002:000e8260       _ICONVIEW_CreateEx         00596260 f   ICONVIEW.obj
 0002:000e83c0       _ICONVIEW_AddBitmapItem    005963c0 f   ICONVIEW.obj
 0002:000e8660       _ICONVIEW_SetBkColor       00596660 f   ICONVIEW.obj
 0002:000e8710       _ICONVIEW_SetTextColor     00596710 f   ICONVIEW.obj
 0002:000e87c0       _ICONVIEW_SetFont          005967c0 f   ICONVIEW.obj
 0002:000e8850       _ICONVIEW_GetSel           00596850 f   ICONVIEW.obj
 0002:000e88e0       _ICONVIEW_SetSel           005968e0 f   ICONVIEW.obj
 0002:000e8940       _LISTBOX_UpdateScrollers   00596940 f   LISTBOX.obj
 0002:000e9760       _LISTBOX_LockH             00597760 f   LISTBOX.obj
 0002:000e97f0       _LISTBOX__GetNumItems      005977f0 f   LISTBOX.obj
 0002:000e9850       _LISTBOX__GetpStringLocked 00597850 f   LISTBOX.obj
 0002:000e98f0       _LISTBOX__InvalidateItemSize 005978f0 f   LISTBOX.obj
 0002:000e9980       _LISTBOX__InvalidateInsideArea 00597980 f   LISTBOX.obj
 0002:000e9a20       _LISTBOX__InvalidateItem   00597a20 f   LISTBOX.obj
 0002:000e9b80       _LISTBOX__InvalidateItemAndBelow 00597b80 f   LISTBOX.obj
 0002:000e9ca0       _LISTBOX__SetScrollbarWidth 00597ca0 f   LISTBOX.obj
 0002:000e9d60       _LISTBOX__SetScrollbarColor 00597d60 f   LISTBOX.obj
 0002:000e9e70       _LISTBOX__AddSize          00597e70 f   LISTBOX.obj
 0002:000e9f50       _LISTBOX_OwnerDraw         00597f50 f   LISTBOX.obj
 0002:000ea5b0       _LISTBOX_Callback          005985b0 f   LISTBOX.obj
 0002:000eb420       _LISTBOX_CreateEx          00599420 f   LISTBOX.obj
 0002:000eb580       _LISTBOX_InvalidateItem    00599580 f   LISTBOX.obj
 0002:000eb710       _LISTBOX_AddKey            00599710 f   LISTBOX.obj
 0002:000ebbb0       _LISTBOX_AddString         00599bb0 f   LISTBOX.obj
 0002:000ebda0       _LISTBOX_SetText           00599da0 f   LISTBOX.obj
 0002:000ebe50       _LISTBOX_SetSel            00599e50 f   LISTBOX.obj
 0002:000ec030       _LISTBOX_GetSel            0059a030 f   LISTBOX.obj
 0002:000ec0c0       _LISTBOX_IncSel            0059a0c0 f   LISTBOX.obj
 0002:000ec2d0       _LISTBOX_DecSel            0059a2d0 f   LISTBOX.obj
 0002:000ec330       _LISTBOX_AddStringH        0059a330 f   LISTBOX_AddStringH.obj
 0002:000ec570       _LISTBOX_Create            0059a570 f   LISTBOX_Create.obj
 0002:000ec5e0       _LISTBOX_CreateAsChild     0059a5e0 f   LISTBOX_Create.obj
 0002:000ec650       _LISTBOX_CreateIndirect    0059a650 f   LISTBOX_CreateIndirect.obj
 0002:000ec700       _LISTBOX_SetDefaultFont    0059a700 f   LISTBOX_Default.obj
 0002:000ec740       _LISTBOX_GetDefaultFont    0059a740 f   LISTBOX_Default.obj
 0002:000ec780       _LISTBOX_SetDefaultScrollStepH 0059a780 f   LISTBOX_Default.obj
 0002:000ec7c0       _LISTBOX_GetDefaultScrollStepH 0059a7c0 f   LISTBOX_Default.obj
 0002:000ec800       _LISTBOX_SetDefaultBkColor 0059a800 f   LISTBOX_Default.obj
 0002:000ec850       _LISTBOX_SetDefaultTextAlign 0059a850 f   LISTBOX_Default.obj
 0002:000ec890       _LISTBOX_GetDefaultBkColor 0059a890 f   LISTBOX_Default.obj
 0002:000ec8e0       _LISTBOX_SetDefaultTextColor 0059a8e0 f   LISTBOX_Default.obj
 0002:000ec930       _LISTBOX_GetDefaultTextColor 0059a930 f   LISTBOX_Default.obj
 0002:000ec980       _LISTBOX_GetDefaultTextAlign 0059a980 f   LISTBOX_Default.obj
 0002:000ec9c0       _LISTBOX_DeleteItem        0059a9c0 f   LISTBOX_DeleteItem.obj
 0002:000ecb10       _LISTBOX_SetFont           0059ab10 f   LISTBOX_Font.obj
 0002:000ecbb0       _LISTBOX_GetFont           0059abb0 f   LISTBOX_Font.obj
 0002:000ecc30       _LISTBOX_GetItemText       0059ac30 f   LISTBOX_GetItemText.obj
 0002:000ecd10       _LISTBOX_GetNumItems       0059ad10 f   LISTBOX_GetNumItems.obj
 0002:000ecda0       _LISTBOX_GetTextAlign      0059ada0 f   LISTBOX_GetTextAlign.obj
 0002:000ece40       _LISTBOX_InsertString      0059ae40 f   LISTBOX_InsertString.obj
 0002:000ecfd0       _LISTBOX_GetItemDisabled   0059afd0 f   LISTBOX_ItemDisabled.obj
 0002:000ed0c0       _LISTBOX_SetItemDisabled   0059b0c0 f   LISTBOX_ItemDisabled.obj
 0002:000ed210       _LISTBOX_SetItemSpacing    0059b210 f   LISTBOX_ItemSpacing.obj
 0002:000ed2a0       _LISTBOX_GetItemSpacing    0059b2a0 f   LISTBOX_ItemSpacing.obj
 0002:000ed330       _LISTBOX_SetMulti          0059b330 f   LISTBOX_MultiSel.obj
 0002:000ed430       _LISTBOX_GetMulti          0059b430 f   LISTBOX_MultiSel.obj
 0002:000ed4d0       _LISTBOX_GetItemSel        0059b4d0 f   LISTBOX_MultiSel.obj
 0002:000ed5e0       _LISTBOX_SetItemSel        0059b5e0 f   LISTBOX_MultiSel.obj
 0002:000ed750       _LISTBOX_SetScrollStepH    0059b750 f   LISTBOX_ScrollStep.obj
 0002:000ed7d0       _LISTBOX_GetScrollStepH    0059b7d0 f   LISTBOX_ScrollStep.obj
 0002:000ed850       _LISTBOX_SetAutoScrollH    0059b850 f   LISTBOX_SetAutoScroll.obj
 0002:000ed950       _LISTBOX_SetAutoScrollV    0059b950 f   LISTBOX_SetAutoScroll.obj
 0002:000eda50       _LISTBOX_SetBkColor        0059ba50 f   LISTBOX_SetBkColor.obj
 0002:000edae0       _LISTBOX_SetOwner          0059bae0 f   LISTBOX_SetOwner.obj
 0002:000edb70       _LISTBOX_SetOwnerDraw      0059bb70 f   LISTBOX_SetOwnerDraw.obj
 0002:000edc20       _LISTBOX_SetScrollbarColor 0059bc20 f   LISTBOX_SetScrollbarColor.obj
 0002:000edce0       _LISTBOX_SetScrollbarWidth 0059bce0 f   LISTBOX_SetScrollbarWidth.obj
 0002:000edd90       _LISTBOX_SetString         0059bd90 f   LISTBOX_SetString.obj
 0002:000edef0       _LISTBOX_SetTextAlign      0059bef0 f   LISTBOX_SetTextAlign.obj
 0002:000edf80       _LISTBOX_SetTextColor      0059bf80 f   LISTBOX_SetTextColor.obj
 0002:000ee030       _LISTVIEW__GetNumRows      0059c030 f   LISTVIEW.obj
 0002:000ee090       _LISTVIEW__GetNumColumns   0059c090 f   LISTVIEW.obj
 0002:000ee0f0       _LISTVIEW__GetSel          0059c0f0 f   LISTVIEW.obj
 0002:000ee130       _LISTVIEW__SetSel          0059c130 f   LISTVIEW.obj
 0002:000ee310       _LISTVIEW__MoveSel         0059c310 f   LISTVIEW.obj
 0002:000ee430       _LISTVIEW__GetRowDistY     0059c430 f   LISTVIEW.obj
 0002:000ee4c0       _LISTVIEW__InvalidateInsideArea 0059c4c0 f   LISTVIEW.obj
 0002:000ee5b0       _LISTVIEW__InvalidateRow   0059c5b0 f   LISTVIEW.obj
 0002:000ee6c0       _LISTVIEW__UpdateScrollPos 0059c6c0 f   LISTVIEW.obj
 0002:000ee890       _LISTVIEW__UpdateScrollParas 0059c890 f   LISTVIEW.obj
 0002:000eed40       _LISTVIEW_LockH            0059cd40 f   LISTVIEW.obj
 0002:000eedd0       _LISTVIEW_Callback         0059cdd0 f   LISTVIEW.obj
 0002:000f0b80       _LISTVIEW_CreateEx         0059eb80 f   LISTVIEW.obj
 0002:000f0e00       _LISTVIEW_IncSel           0059ee00 f   LISTVIEW.obj
 0002:000f0e60       _LISTVIEW_DecSel           0059ee60 f   LISTVIEW.obj
 0002:000f0ec0       _LISTVIEW_AddColumn        0059eec0 f   LISTVIEW.obj
 0002:000f10b0       _LISTVIEW_AddRow           0059f0b0 f   LISTVIEW.obj
 0002:000f1380       _LISTVIEW_Create           0059f380 f   LISTVIEW_Create.obj
 0002:000f13f0       _LISTVIEW_CreateAttached   0059f3f0 f   LISTVIEW_Create.obj
 0002:000f1460       _LISTVIEW_CreateIndirect   0059f460 f   LISTVIEW_CreateIndirect.obj
 0002:000f1510       _LISTVIEW_SetDefaultFont   0059f510 f   LISTVIEW_Default.obj
 0002:000f1560       _LISTVIEW_SetDefaultTextColor 0059f560 f   LISTVIEW_Default.obj
 0002:000f15d0       _LISTVIEW_SetDefaultBkColor 0059f5d0 f   LISTVIEW_Default.obj
 0002:000f1640       _LISTVIEW_SetDefaultGridColor 0059f640 f   LISTVIEW_Default.obj
 0002:000f1690       _LISTVIEW_DeleteAllRows    0059f690 f   LISTVIEW_DeleteAllRows.obj
 0002:000f1750       _LISTVIEW_DeleteColumn     0059f750 f   LISTVIEW_DeleteColumn.obj
 0002:000f1910       _LISTVIEW__InvalidateRowAndBelow 0059f910 f   LISTVIEW_DeleteRow.obj
 0002:000f1a10       _LISTVIEW_DeleteRow        0059fa10 f   LISTVIEW_DeleteRow.obj
 0002:000f1c60       _LISTVIEW_DisableRow       0059fc60 f   LISTVIEW_DisableRow.obj
 0002:000f1d90       _LISTVIEW_EnableRow        0059fd90 f   LISTVIEW_DisableRow.obj
 0002:000f1df0       _LISTVIEW_GetBkColor       0059fdf0 f   LISTVIEW_GetBkColor.obj
 0002:000f1e80       _LISTVIEW_GetFont          0059fe80 f   LISTVIEW_GetFont.obj
 0002:000f1f00       _LISTVIEW_GetHeader        0059ff00 f   LISTVIEW_GetHeader.obj
 0002:000f1f80       _LISTVIEW_GetItemText      0059ff80 f   LISTVIEW_GetItemText.obj
 0002:000f20c0       _LISTVIEW_GetNumColumns    005a00c0 f   LISTVIEW_GetNumColumns.obj
 0002:000f2150       _LISTVIEW_GetNumRows       005a0150 f   LISTVIEW_GetNumRows.obj
 0002:000f21e0       _LISTVIEW_GetSel           005a01e0 f   LISTVIEW_GetSel.obj
 0002:000f2270       _LISTVIEW_GetTextColor     005a0270 f   LISTVIEW_GetTextColor.obj
 0002:000f2300       _LISTVIEW_InsertRow        005a0300 f   LISTVIEW_InsertRow.obj
 0002:000f2650       _LISTVIEW_SetAutoScrollH   005a0650 f   LISTVIEW_SetAutoScroll.obj
 0002:000f2790       _LISTVIEW_SetAutoScrollV   005a0790 f   LISTVIEW_SetAutoScroll.obj
 0002:000f27f0       _LISTVIEW_SetBkColor       005a07f0 f   LISTVIEW_SetBkColor.obj
 0002:000f28a0       _LISTVIEW_SetColumnWidth   005a08a0 f   LISTVIEW_SetColumnWidth.obj
 0002:000f2930       _LISTVIEW_SetFixed         005a0930 f   LISTVIEW_SetFixed.obj
 0002:000f2a00       _LISTVIEW_SetFont          005a0a00 f   LISTVIEW_SetFont.obj
 0002:000f2aa0       _LISTVIEW_SetGridVis       005a0aa0 f   LISTVIEW_SetGridVis.obj
 0002:000f2b60       _LISTVIEW_SetItemBitmap    005a0b60 f   LISTVIEW_SetItemBitmap.obj
 0002:000f2f70       _LISTVIEW_SetItemTextColor 005a0f70 f   LISTVIEW_SetItemColor.obj
 0002:000f32a0       _LISTVIEW_SetItemBkColor   005a12a0 f   LISTVIEW_SetItemColor.obj
 0002:000f3390       _LISTVIEW_SetItemText      005a1390 f   LISTVIEW_SetItemText.obj
 0002:000f3540       _LISTVIEW_SetLBorder       005a1540 f   LISTVIEW_SetLBorder.obj
 0002:000f35e0       _LISTVIEW_SetLFreeBorder   005a15e0 f   LISTVIEW_SetLBorder.obj
 0002:000f3680       _LISTVIEW_SetRBorder       005a1680 f   LISTVIEW_SetRBorder.obj
 0002:000f3720       _LISTVIEW_SetRowHeight     005a1720 f   LISTVIEW_SetRowHeight.obj
 0002:000f37f0       _LISTVIEW_SetSel           005a17f0 f   LISTVIEW_SetSel.obj
 0002:000f3850       _LISTVIEW_CompareText      005a1850 f   LISTVIEW_SetSort.obj
 0002:000f38b0       _LISTVIEW_CompareDec       005a18b0 f   LISTVIEW_SetSort.obj
 0002:000f3a90       _LISTVIEW_GetSelUnsorted   005a1a90 f   LISTVIEW_SetSort.obj
 0002:000f44f0       _LISTVIEW_SetSelUnsorted   005a24f0 f   LISTVIEW_SetSort.obj
 0002:000f4560       _LISTVIEW_SetCompareFunc   005a2560 f   LISTVIEW_SetSort.obj
 0002:000f4620       _LISTVIEW_DisableSort      005a2620 f   LISTVIEW_SetSort.obj
 0002:000f47c0       _LISTVIEW_EnableSort       005a27c0 f   LISTVIEW_SetSort.obj
 0002:000f4960       _LISTVIEW_SetSort          005a2960 f   LISTVIEW_SetSort.obj
 0002:000f4b00       _LISTVIEW_SetTextAlign     005a2b00 f   LISTVIEW_SetTextAlign.obj
 0002:000f4bd0       _LISTVIEW_SetTextColor     005a2bd0 f   LISTVIEW_SetTextColor.obj
 0002:000f4c80       _LISTVIEW_SetUserData      005a2c80 f   LISTVIEW_UserData.obj
 0002:000f4d40       _LISTVIEW_GetUserData      005a2d40 f   LISTVIEW_UserData.obj
 0002:000f4e00       _LISTWHEEL_LockH           005a2e00 f   LISTWHEEL.obj
 0002:000f4e80       _LISTWHEEL_Callback        005a2e80 f   LISTWHEEL.obj
 0002:000f6620       _LISTWHEEL_OwnerDraw       005a4620 f   LISTWHEEL.obj
 0002:000f6a10       _LISTWHEEL_CreateEx        005a4a10 f   LISTWHEEL.obj
 0002:000f6bb0       _LISTWHEEL_AddString       005a4bb0 f   LISTWHEEL.obj
 0002:000f6e40       _LISTWHEEL_SetFont         005a4e40 f   LISTWHEEL.obj
 0002:000f70c0       _LISTWHEEL_GetFont         005a50c0 f   LISTWHEEL.obj
 0002:000f7140       _LISTWHEEL_SetOwnerDraw    005a5140 f   LISTWHEEL.obj
 0002:000f71e0       _LISTWHEEL__GetpStringLocked 005a51e0 f   LISTWHEEL.obj
 0002:000f7280       _LISTWHEEL_GetNumItems     005a5280 f   LISTWHEEL.obj
 0002:000f7310       _LISTWHEEL_GetItemText     005a5310 f   LISTWHEEL.obj
 0002:000f73f0       _LISTWHEEL_SetItemData     005a53f0 f   LISTWHEEL.obj
 0002:000f74b0       _LISTWHEEL_GetItemData     005a54b0 f   LISTWHEEL.obj
 0002:000f7580       _LISTWHEEL_SetUserData     005a5580 f   LISTWHEEL.obj
 0002:000f7600       _LISTWHEEL_GetUserData     005a5600 f   LISTWHEEL.obj
 0002:000f7680       _LISTWHEEL_SetSnapPosition 005a5680 f   LISTWHEEL.obj
 0002:000f7710       _LISTWHEEL_GetSnapPosition 005a5710 f   LISTWHEEL.obj
 0002:000f77a0       _LISTWHEEL_SetTextAlign    005a57a0 f   LISTWHEEL.obj
 0002:000f7830       _LISTWHEEL_GetTextAlign    005a5830 f   LISTWHEEL.obj
 0002:000f78c0       _LISTWHEEL_SetRBorder      005a58c0 f   LISTWHEEL.obj
 0002:000f7950       _LISTWHEEL_SetLBorder      005a5950 f   LISTWHEEL.obj
 0002:000f79e0       _LISTWHEEL_GetRBorder      005a59e0 f   LISTWHEEL.obj
 0002:000f7a60       _LISTWHEEL_GetLBorder      005a5a60 f   LISTWHEEL.obj
 0002:000f7ae0       _LISTWHEEL_SetLineHeight   005a5ae0 f   LISTWHEEL.obj
 0002:000f7ba0       _LISTWHEEL_SetSel          005a5ba0 f   LISTWHEEL.obj
 0002:000f7c30       _LISTWHEEL_GetSel          005a5c30 f   LISTWHEEL.obj
 0002:000f7cd0       _LISTWHEEL_GetLineHeight   005a5cd0 f   LISTWHEEL.obj
 0002:000f7d70       _LISTWHEEL_SetTextColor    005a5d70 f   LISTWHEEL.obj
 0002:000f7e00       _LISTWHEEL_GetPos          005a5e00 f   LISTWHEEL.obj
 0002:000f7ee0       _LISTWHEEL_GetVelocity     005a5ee0 f   LISTWHEEL.obj
 0002:000f7f90       _LISTWHEEL_SetText         005a5f90 f   LISTWHEEL.obj
 0002:000f8100       _LISTWHEEL_MoveToPos       005a6100 f   LISTWHEEL.obj
 0002:000f8480       _LISTWHEEL_SetVelocity     005a6480 f   LISTWHEEL.obj
 0002:000f8580       _LISTWHEEL_SetPos          005a6580 f   LISTWHEEL.obj
 0002:000f8680       _LISTWHEEL_Create          005a6680 f   LISTWHEEL_Create.obj
 0002:000f86f0       _LISTWHEEL_CreateAsChild   005a66f0 f   LISTWHEEL_Create.obj
 0002:000f8760       _MENU_LockH                005a6760 f   MENU.obj
 0002:000f87f0       _MENU_Callback             005a67f0 f   MENU.obj
 0002:000fc3a0       _MENU_CreateEx             005aa3a0 f   MENU.obj
 0002:000fc5a0       _MENU__GetNumItems         005aa5a0 f   MENU.obj
 0002:000fc600       _MENU__InvalidateItem      005aa600 f   MENU.obj
 0002:000fc660       _MENU__RecalcTextWidthOfItems 005aa660 f   MENU.obj
 0002:000fc740       _MENU__ResizeMenu          005aa740 f   MENU.obj
 0002:000fc8e0       _MENU__SetItem             005aa8e0 f   MENU.obj
 0002:000fcb60       _MENU__SetItemFlags        005aab60 f   MENU.obj
 0002:000fcc00       _MENU__SendMenuMessage     005aac00 f   MENU.obj
 0002:000fcd10       _MENU_AddItem              005aad10 f   MENU.obj
 0002:000fce10       _MENU_SetOwner             005aae10 f   MENU.obj
 0002:000fce90       _MENU_SetSel               005aae90 f   MENU.obj
 0002:000fcf60       _MENU_GetOwner             005aaf60 f   MENU.obj
 0002:000fd020       _MENU_Attach               005ab020 f   MENU_Attach.obj
 0002:000fd0f0       _MENU_CreateIndirect       005ab0f0 f   MENU_CreateIndirect.obj
 0002:000fd1a0       _MENU_SetDefaultTextColor  005ab1a0 f   MENU_Default.obj
 0002:000fd1f0       _MENU_SetDefaultBkColor    005ab1f0 f   MENU_Default.obj
 0002:000fd240       _MENU_SetDefaultBorderSize 005ab240 f   MENU_Default.obj
 0002:000fd290       _MENU_SetDefaultEffect     005ab290 f   MENU_Default.obj
 0002:000fd2d0       _MENU_SetDefaultFont       005ab2d0 f   MENU_Default.obj
 0002:000fd310       _MENU_GetDefaultTextColor  005ab310 f   MENU_Default.obj
 0002:000fd370       _MENU_GetDefaultBkColor    005ab370 f   MENU_Default.obj
 0002:000fd3d0       _MENU_GetDefaultBorderSize 005ab3d0 f   MENU_Default.obj
 0002:000fd420       _MENU_GetDefaultEffect     005ab420 f   MENU_Default.obj
 0002:000fd460       _MENU_GetDefaultFont       005ab460 f   MENU_Default.obj
 0002:000fd4a0       _MENU_DeleteItem           005ab4a0 f   MENU_DeleteItem.obj
 0002:000fd560       _MENU_DisableItem          005ab560 f   MENU_DisableItem.obj
 0002:000fd620       _MENU_EnableItem           005ab620 f   MENU_EnableItem.obj
 0002:000fd6e0       _MENU_GetItem              005ab6e0 f   MENU_GetItem.obj
 0002:000fd7f0       _MENU_GetItemText          005ab7f0 f   MENU_GetItemText.obj
 0002:000fd8e0       _MENU_GetNumItems          005ab8e0 f   MENU_GetNumItems.obj
 0002:000fd970       _MENU_InsertItem           005ab970 f   MENU_InsertItem.obj
 0002:000fda80       _MENU_Popup                005aba80 f   MENU_Popup.obj
 0002:000fdbf0       _MENU_SetBkColor           005abbf0 f   MENU_SetBkColor.obj
 0002:000fdca0       _MENU_SetBorderSize        005abca0 f   MENU_SetBorderSize.obj
 0002:000fdd50       _MENU_SetFont              005abd50 f   MENU_SetFont.obj
 0002:000fddf0       _MENU_SetItem              005abdf0 f   MENU_SetItem.obj
 0002:000fdea0       _MENU_SetTextColor         005abea0 f   MENU_SetTextColor.obj
 0002:000fdf50       _MENU__FindItem            005abf50 f   MENU__FindItem.obj
 0002:000fe0a0       _MESSAGEBOX_Callback       005ac0a0 f   MESSAGEBOX.obj
 0002:000fe210       _MESSAGEBOX_Create         005ac210 f   MESSAGEBOX.obj
 0002:000fe610       _GUI_MessageBox            005ac610 f   MESSAGEBOX.obj
 0002:000fe680       _MULTIEDIT_LockH           005ac680 f   MULTIEDIT.obj
 0002:000fe710       _MULTIEDIT_Callback        005ac710 f   MULTIEDIT.obj
 0002:00102c90       _MULTIEDIT_CreateEx        005b0c90 f   MULTIEDIT.obj
 0002:00102f80       _MULTIEDIT_AddKey          005b0f80 f   MULTIEDIT.obj
 0002:00102ff0       _MULTIEDIT_AddText         005b0ff0 f   MULTIEDIT.obj
 0002:001036c0       _MULTIEDIT_SetText         005b16c0 f   MULTIEDIT.obj
 0002:00103720       _MULTIEDIT_GetText         005b1720 f   MULTIEDIT.obj
 0002:00103830       _MULTIEDIT_GetPrompt       005b1830 f   MULTIEDIT.obj
 0002:00103920       _MULTIEDIT_SetWrapWord     005b1920 f   MULTIEDIT.obj
 0002:00103af0       _MULTIEDIT_SetWrapChar     005b1af0 f   MULTIEDIT.obj
 0002:00103b40       _MULTIEDIT_SetWrapNone     005b1b40 f   MULTIEDIT.obj
 0002:00103b90       _MULTIEDIT_SetInsertMode   005b1b90 f   MULTIEDIT.obj
 0002:00103cc0       _MULTIEDIT_SetReadOnly     005b1cc0 f   MULTIEDIT.obj
 0002:00103d20       _MULTIEDIT_SetPasswordMode 005b1d20 f   MULTIEDIT.obj
 0002:00103dd0       _MULTIEDIT_SetAutoScrollV  005b1dd0 f   MULTIEDIT.obj
 0002:00103e30       _MULTIEDIT_SetAutoScrollH  005b1e30 f   MULTIEDIT.obj
 0002:00103e90       _MULTIEDIT_SetHBorder      005b1e90 f   MULTIEDIT.obj
 0002:00103f40       _MULTIEDIT_SetFont         005b1f40 f   MULTIEDIT.obj
 0002:00104030       _MULTIEDIT_SetBkColor      005b2030 f   MULTIEDIT.obj
 0002:001040c0       _MULTIEDIT_SetCursorOffset 005b20c0 f   MULTIEDIT.obj
 0002:00104130       _MULTIEDIT_SetTextColor    005b2130 f   MULTIEDIT.obj
 0002:001041c0       _MULTIEDIT_SetPrompt       005b21c0 f   MULTIEDIT.obj
 0002:00104440       _MULTIEDIT_SetBufferSize   005b2440 f   MULTIEDIT.obj
 0002:00104580       _MULTIEDIT_SetMaxNumChars  005b2580 f   MULTIEDIT.obj
 0002:00104760       _MULTIEDIT_GetTextSize     005b2760 f   MULTIEDIT.obj
 0002:00104840       _MULTIEDIT_SetTextAlign    005b2840 f   MULTIEDIT.obj
 0002:00104920       _MULTIEDIT_GetCursorCharPos 005b2920 f   MULTIEDIT.obj
 0002:001049a0       _MULTIEDIT_GetCursorPixelPos 005b29a0 f   MULTIEDIT.obj
 0002:00104aa0       _MULTIEDIT_EnableBlink     005b2aa0 f   MULTIEDIT.obj
 0002:00104bd0       _MULTIEDIT_Create          005b2bd0 f   MULTIEDIT_Create.obj
 0002:00104c50       _MULTIEDIT_CreateIndirect  005b2c50 f   MULTIEDIT_CreateIndirect.obj
 0002:00104d00       _MULTIPAGE__DrawTextItemH  005b2d00 f   MULTIPAGE.obj
 0002:00104fb0       _MULTIPAGE__UpdatePositions 005b2fb0 f   MULTIPAGE.obj
 0002:00105e20       _MULTIPAGE__CalcClientRect 005b3e20 f   MULTIPAGE.obj
 0002:00105eb0       _MULTIPAGE__DeleteScrollbar 005b3eb0 f   MULTIPAGE.obj
 0002:00105f50       _MULTIPAGE_LockH           005b3f50 f   MULTIPAGE.obj
 0002:00105fd0       _MULTIPAGE_Callback        005b3fd0 f   MULTIPAGE.obj
 0002:00106ac0       _MULTIPAGE_CreateEx        005b4ac0 f   MULTIPAGE.obj
 0002:001071d0       _MULTIPAGE_AddPage         005b51d0 f   MULTIPAGE.obj
 0002:001074d0       _MULTIPAGE_DeletePage      005b54d0 f   MULTIPAGE.obj
 0002:00107810       _MULTIPAGE_SelectPage      005b5810 f   MULTIPAGE.obj
 0002:00107980       _MULTIPAGE_DisablePage     005b5980 f   MULTIPAGE.obj
 0002:00107ae0       _MULTIPAGE_EnablePage      005b5ae0 f   MULTIPAGE.obj
 0002:00107b80       _MULTIPAGE_SetText         005b5b80 f   MULTIPAGE.obj
 0002:00107d30       _MULTIPAGE_SetBkColor      005b5d30 f   MULTIPAGE.obj
 0002:00107dc0       _MULTIPAGE_SetTextColor    005b5dc0 f   MULTIPAGE.obj
 0002:00107e50       _MULTIPAGE_SetFont         005b5e50 f   MULTIPAGE.obj
 0002:00107ee0       _MULTIPAGE_SetAlign        005b5ee0 f   MULTIPAGE.obj
 0002:00107ff0       _MULTIPAGE_GetSelection    005b5ff0 f   MULTIPAGE.obj
 0002:00108070       _MULTIPAGE_GetWindow       005b6070 f   MULTIPAGE.obj
 0002:00108140       _MULTIPAGE_IsPageEnabled   005b6140 f   MULTIPAGE.obj
 0002:001081b0       _MULTIPAGE_SetEffectColor  005b61b0 f   MULTIPAGE.obj
 0002:00108200       _MULTIPAGE_GetEffectColor  005b6200 f   MULTIPAGE.obj
 0002:00108260       _MULTIPAGE_GetNumEffectColors 005b6260 f   MULTIPAGE.obj
 0002:001082a0       _MULTIPAGE_Create          005b62a0 f   MULTIPAGE_Create.obj
 0002:00108310       _MULTIPAGE_CreateIndirect  005b6310 f   MULTIPAGE_CreateIndirect.obj
 0002:001083c0       _MULTIPAGE_GetDefaultAlign 005b63c0 f   MULTIPAGE_Default.obj
 0002:00108400       _MULTIPAGE_GetDefaultBkColor 005b6400 f   MULTIPAGE_Default.obj
 0002:00108460       _MULTIPAGE_GetDefaultFont  005b6460 f   MULTIPAGE_Default.obj
 0002:001084a0       _MULTIPAGE_GetDefaultTextColor 005b64a0 f   MULTIPAGE_Default.obj
 0002:00108500       _MULTIPAGE_SetDefaultAlign 005b6500 f   MULTIPAGE_Default.obj
 0002:00108540       _MULTIPAGE_SetDefaultBkColor 005b6540 f   MULTIPAGE_Default.obj
 0002:00108590       _MULTIPAGE_SetDefaultFont  005b6590 f   MULTIPAGE_Default.obj
 0002:001085d0       _MULTIPAGE_SetDefaultTextColor 005b65d0 f   MULTIPAGE_Default.obj
 0002:00108620       _MULTIPAGE_SetRotation     005b6620 f   MULTIPAGE_SetRotation.obj
 0002:00108ad0       _PROGBAR_LockH             005b6ad0 f   PROGBAR.obj
 0002:00108b50       _PROGBAR__GetTextLocked    005b6b50 f   PROGBAR.obj
 0002:00108bb0       _PROGBAR__GetTextRect      005b6bb0 f   PROGBAR.obj
 0002:00108d40       _PROGBAR__Value2Pos        005b6d40 f   PROGBAR.obj
 0002:00108e70       _PROGBAR_Callback          005b6e70 f   PROGBAR.obj
 0002:00109040       _PROGBAR_CreateEx          005b7040 f   PROGBAR.obj
 0002:00109310       _PROGBAR_SetValue          005b7310 f   PROGBAR.obj
 0002:001096d0       _PROGBAR_Create            005b76d0 f   PROGBAR_Create.obj
 0002:00109740       _PROGBAR_CreateAsChild     005b7740 f   PROGBAR_Create.obj
 0002:001097b0       _PROGBAR_CreateIndirect    005b77b0 f   PROGBAR_CreateIndirect.obj
 0002:00109860       _PROGBAR_SetBarColor       005b7860 f   PROGBAR_SetBarColor.obj
 0002:001098f0       _PROGBAR_SetFont           005b78f0 f   PROGBAR_SetFont.obj
 0002:00109980       _PROGBAR_SetMinMax         005b7980 f   PROGBAR_SetMinMax.obj
 0002:00109a40       _PROGBAR_SetText           005b7a40 f   PROGBAR_SetText.obj
 0002:00109c60       _PROGBAR_SetTextAlign      005b7c60 f   PROGBAR_SetTextAlign.obj
 0002:00109cf0       _PROGBAR_SetTextColor      005b7cf0 f   PROGBAR_SetTextColor.obj
 0002:00109d80       _PROGBAR_SetTextPos        005b7d80 f   PROGBAR_SetTextPos.obj
 0002:0010a3b0       _PROGBAR_SetSkin           005b83b0 f   PROGBAR_Skin.obj
 0002:0010a450       _PROGBAR_SetDefaultSkin    005b8450 f   PROGBAR_Skin.obj
 0002:0010a8c0       _PROGBAR_SetSkinClassic    005b88c0 f   PROGBAR_SkinClassic.obj
 0002:0010a940       _PROGBAR_SetDefaultSkinClassic 005b8940 f   PROGBAR_SkinClassic.obj
 0002:0010a980       _PROGBAR_DrawSkinFlex      005b8980 f   PROGBAR_SkinFlex.obj
 0002:0010af20       _PROGBAR_SetSkinFlexProps  005b8f20 f   PROGBAR_SkinFlex.obj
 0002:0010af70       _PROGBAR_GetSkinFlexProps  005b8f70 f   PROGBAR_SkinFlex.obj
 0002:0010afc0       _RADIO_LockH               005b8fc0 f   RADIO.obj
 0002:0010b040       _RADIO__GetButtonSize      005b9040 f   RADIO.obj
 0002:0010b120       _RADIO__SetValue           005b9120 f   RADIO.obj
 0002:0010b1f0       _RADIO_Callback            005b91f0 f   RADIO.obj
 0002:0010b6d0       _RADIO_CreateEx            005b96d0 f   RADIO.obj
 0002:0010b940       _RADIO_AddValue            005b9940 f   RADIO.obj
 0002:0010b9d0       _RADIO_Dec                 005b99d0 f   RADIO.obj
 0002:0010ba20       _RADIO_Inc                 005b9a20 f   RADIO.obj
 0002:0010ba70       _RADIO_SetValue            005b9a70 f   RADIO.obj
 0002:0010bb40       _RADIO_GetValue            005b9b40 f   RADIO.obj
 0002:0010bbc0       _RADIO_Create              005b9bc0 f   RADIO_Create.obj
 0002:0010bc50       _RADIO_CreateIndirect      005b9c50 f   RADIO_CreateIndirect.obj
 0002:0010bd30       _RADIO_GetDefaultFont      005b9d30 f   RADIO_Default.obj
 0002:0010bd70       _RADIO_GetDefaultTextColor 005b9d70 f   RADIO_Default.obj
 0002:0010bdb0       _RADIO_SetDefaultFont      005b9db0 f   RADIO_Default.obj
 0002:0010bdf0       _RADIO_SetDefaultTextColor 005b9df0 f   RADIO_Default.obj
 0002:0010be30       _RADIO_SetDefaultFocusColor 005b9e30 f   RADIO_Default.obj
 0002:0010be80       _RADIO_GetText             005b9e80 f   RADIO_GetText.obj
 0002:0010bf90       _RADIO_SetBkColor          005b9f90 f   RADIO_SetBkColor.obj
 0002:0010c050       _RADIO_SetDefaultImage     005ba050 f   RADIO_SetDefaultImage.obj
 0002:0010c0d0       _RADIO_SetFocusColor       005ba0d0 f   RADIO_SetFocusColor.obj
 0002:0010c180       _RADIO_SetFont             005ba180 f   RADIO_SetFont.obj
 0002:0010c230       _RADIO_SetGroupId          005ba230 f   RADIO_SetGroupId.obj
 0002:0010c870       _RADIO_SetImage            005ba870 f   RADIO_SetImage.obj
 0002:0010c940       _RADIO_SetText             005ba940 f   RADIO_SetText.obj
 0002:0010ca30       _RADIO_SetTextColor        005baa30 f   RADIO_SetTextColor.obj
 0002:0010d1a0       _RADIO_SetSkin             005bb1a0 f   RADIO_Skin.obj
 0002:0010d240       _RADIO_SetDefaultSkin      005bb240 f   RADIO_Skin.obj
 0002:0010d890       _RADIO_SetSkinClassic      005bb890 f   RADIO_SkinClassic.obj
 0002:0010d910       _RADIO_SetDefaultSkinClassic 005bb910 f   RADIO_SkinClassic.obj
 0002:0010d950       _RADIO_DrawSkinFlex        005bb950 f   RADIO_SkinFlex.obj
 0002:0010dcc0       _RADIO_SetSkinFlexProps    005bbcc0 f   RADIO_SkinFlex.obj
 0002:0010dd30       _RADIO_GetSkinFlexProps    005bbd30 f   RADIO_SkinFlex.obj
 0002:0010dda0       _SCROLLBAR__Rect2VRect     005bbda0 f   SCROLLBAR.obj
 0002:0010de60       _SCROLLBAR_LockH           005bbe60 f   SCROLLBAR.obj
 0002:0010dee0       _SCROLLBAR__InvalidatePartner 005bbee0 f   SCROLLBAR.obj
 0002:0010df60       _SCROLLBAR_Callback        005bbf60 f   SCROLLBAR.obj
 0002:0010ec60       _SCROLLBAR_CreateEx        005bcc60 f   SCROLLBAR.obj
 0002:0010ef20       _SCROLLBAR_Dec             005bcf20 f   SCROLLBAR.obj
 0002:0010ef70       _SCROLLBAR_Inc             005bcf70 f   SCROLLBAR.obj
 0002:0010efc0       _SCROLLBAR_AddValue        005bcfc0 f   SCROLLBAR.obj
 0002:0010f050       _SCROLLBAR_SetValue        005bd050 f   SCROLLBAR.obj
 0002:0010f150       _SCROLLBAR_SetNumItems     005bd150 f   SCROLLBAR.obj
 0002:0010f1e0       _SCROLLBAR_SetPageSize     005bd1e0 f   SCROLLBAR.obj
 0002:0010f270       _SCROLLBAR_SetState        005bd270 f   SCROLLBAR.obj
 0002:0010f300       _SCROLLBAR_Create          005bd300 f   SCROLLBAR_Create.obj
 0002:0010f370       _SCROLLBAR_CreateAttached  005bd370 f   SCROLLBAR_Create.obj
 0002:0010f420       _SCROLLBAR_CreateIndirect  005bd420 f   SCROLLBAR_CreateIndirect.obj
 0002:0010f4d0       _SCROLLBAR_GetDefaultWidth 005bd4d0 f   SCROLLBAR_Defaults.obj
 0002:0010f510       _SCROLLBAR_SetDefaultWidth 005bd510 f   SCROLLBAR_Defaults.obj
 0002:0010f560       _SCROLLBAR_SetDefaultColor 005bd560 f   SCROLLBAR_Defaults.obj
 0002:0010f5d0       _SCROLLBAR_GetNumItems     005bd5d0 f   SCROLLBAR_GetNumItems.obj
 0002:0010f650       _SCROLLBAR_GetPageSize     005bd650 f   SCROLLBAR_GetPageSize.obj
 0002:0010f6d0       _SCROLLBAR_GetValue        005bd6d0 f   SCROLLBAR_GetValue.obj
 0002:0010f750       _SCROLLBAR_SetColor        005bd750 f   SCROLLBAR_SetColor.obj
 0002:0010f810       _SCROLLBAR_SetWidth        005bd810 f   SCROLLBAR_SetWidth.obj
 0002:00110110       _SCROLLBAR_SetSkin         005be110 f   SCROLLBAR_Skin.obj
 0002:001101c0       _SCROLLBAR_SetDefaultSkin  005be1c0 f   SCROLLBAR_Skin.obj
 0002:00110a10       _SCROLLBAR_SetSkinClassic  005bea10 f   SCROLLBAR_SkinClassic.obj
 0002:00110aa0       _SCROLLBAR_SetDefaultSkinClassic 005beaa0 f   SCROLLBAR_SkinClassic.obj
 0002:00110ae0       _SCROLLBAR_DrawSkinFlex    005beae0 f   SCROLLBAR_SkinFlex.obj
 0002:00111860       _SCROLLBAR_SetSkinFlexProps 005bf860 f   SCROLLBAR_SkinFlex.obj
 0002:001118b0       _SCROLLBAR_GetSkinFlexProps 005bf8b0 f   SCROLLBAR_SkinFlex.obj
 0002:00111900       _SLIDER_LockH              005bf900 f   SLIDER.obj
 0002:00111980       _SLIDER_Callback           005bf980 f   SLIDER.obj
 0002:00111f00       _SLIDER_CreateEx           005bff00 f   SLIDER.obj
 0002:001120c0       _SLIDER_Dec                005c00c0 f   SLIDER.obj
 0002:00112180       _SLIDER_Inc                005c0180 f   SLIDER.obj
 0002:00112240       _SLIDER_SetWidth           005c0240 f   SLIDER.obj
 0002:001122e0       _SLIDER_SetValue           005c02e0 f   SLIDER.obj
 0002:001123d0       _SLIDER_SetRange           005c03d0 f   SLIDER.obj
 0002:001124a0       _SLIDER_SetNumTicks        005c04a0 f   SLIDER.obj
 0002:00112530       _SLIDER_GetValue           005c0530 f   SLIDER.obj
 0002:001125b0       _SLIDER_SetBkColor         005c05b0 f   SLIDER_Color.obj
 0002:00112660       _SLIDER_GetBkColor         005c0660 f   SLIDER_Color.obj
 0002:001126e0       _SLIDER_SetBarColor        005c06e0 f   SLIDER_Color.obj
 0002:00112770       _SLIDER_GetBarColor        005c0770 f   SLIDER_Color.obj
 0002:001127f0       _SLIDER_SetTickColor       005c07f0 f   SLIDER_Color.obj
 0002:00112880       _SLIDER_GetTickColor       005c0880 f   SLIDER_Color.obj
 0002:00112900       _SLIDER_SetFocusColor      005c0900 f   SLIDER_Color.obj
 0002:001129b0       _SLIDER_GetFocusColor      005c09b0 f   SLIDER_Color.obj
 0002:00112a30       _SLIDER_Create             005c0a30 f   SLIDER_Create.obj
 0002:00112aa0       _SLIDER_CreateIndirect     005c0aa0 f   SLIDER_CreateIndirect.obj
 0002:00112b50       _SLIDER_SetDefaultBkColor  005c0b50 f   SLIDER_Default.obj
 0002:00112b90       _SLIDER_GetDefaultBkColor  005c0b90 f   SLIDER_Default.obj
 0002:00112bd0       _SLIDER_SetDefaultBarColor 005c0bd0 f   SLIDER_Default.obj
 0002:00112c10       _SLIDER_GetDefaultBarColor 005c0c10 f   SLIDER_Default.obj
 0002:00112c50       _SLIDER_SetDefaultTickColor 005c0c50 f   SLIDER_Default.obj
 0002:00112c90       _SLIDER_GetDefaultTickColor 005c0c90 f   SLIDER_Default.obj
 0002:00112cd0       _SLIDER_SetDefaultFocusColor 005c0cd0 f   SLIDER_Default.obj
 0002:00112d20       _SLIDER_GetDefaultFocusColor 005c0d20 f   SLIDER_Default.obj
 0002:00113400       _SLIDER_SetSkin            005c1400 f   SLIDER_Skin.obj
 0002:001134a0       _SLIDER_SetDefaultSkin     005c14a0 f   SLIDER_Skin.obj
 0002:00113880       _SLIDER_SetSkinClassic     005c1880 f   SLIDER_SkinClassic.obj
 0002:00113900       _SLIDER_SetDefaultSkinClassic 005c1900 f   SLIDER_SkinClassic.obj
 0002:00113940       _SLIDER_DrawSkinFlex       005c1940 f   SLIDER_SkinFlex.obj
 0002:00114850       _SLIDER_SetSkinFlexProps   005c2850 f   SLIDER_SkinFlex.obj
 0002:001148a0       _SLIDER_GetSkinFlexProps   005c28a0 f   SLIDER_SkinFlex.obj
 0002:001148f0       _TEXT_LockH                005c28f0 f   TEXT.obj
 0002:00114970       _TEXT_Callback             005c2970 f   TEXT.obj
 0002:00114c60       _TEXT_CreateEx             005c2c60 f   TEXT.obj
 0002:00114e10       _TEXT_Create               005c2e10 f   TEXT_Create.obj
 0002:00114e90       _TEXT_CreateAsChild        005c2e90 f   TEXT_Create.obj
 0002:00114f10       _TEXT_CreateIndirect       005c2f10 f   TEXT_CreateIndirect.obj
 0002:00114fc0       _TEXT_SetDefaultFont       005c2fc0 f   TEXT_Default.obj
 0002:00115000       _TEXT_SetDefaultTextColor  005c3000 f   TEXT_Default.obj
 0002:00115040       _TEXT_GetDefaultFont       005c3040 f   TEXT_Default.obj
 0002:00115080       _TEXT_SetDefaultWrapMode   005c3080 f   TEXT_Default.obj
 0002:001150d0       _TEXT_SetBkColor           005c30d0 f   TEXT_SetBkColor.obj
 0002:00115190       _TEXT_SetFont              005c3190 f   TEXT_SetFont.obj
 0002:00115220       _TEXT_SetText              005c3220 f   TEXT_SetText.obj
 0002:00115340       _TEXT_SetTextAlign         005c3340 f   TEXT_SetTextAlign.obj
 0002:001153d0       _TEXT_SetTextColor         005c33d0 f   TEXT_SetTextColor.obj
 0002:00115460       _TEXT_SetWrapMode          005c3460 f   TEXT_SetWrapMode.obj
 0002:001154f0       _TREEVIEW_LockH            005c34f0 f   TREEVIEW.obj
 0002:00115580       _TREEVIEW_Callback         005c3580 f   TREEVIEW.obj
 0002:00117f50       _TREEVIEW_OwnerDraw        005c5f50 f   TREEVIEW.obj
 0002:00118f70       _TREEVIEW_CreateEx         005c6f70 f   TREEVIEW.obj
 0002:00119070       _TREEVIEW_ITEM_Create      005c7070 f   TREEVIEW.obj
 0002:00119140       _TREEVIEW_AttachItem       005c7140 f   TREEVIEW.obj
 0002:00119aa0       _TREEVIEW_InsertItem       005c7aa0 f   TREEVIEW.obj
 0002:00119b50       _TREEVIEW_SetAutoScrollH   005c7b50 f   TREEVIEW.obj
 0002:00119cd0       _TREEVIEW_SetAutoScrollV   005c7cd0 f   TREEVIEW.obj
 0002:00119d30       _TREEVIEW_SetHasLines      005c7d30 f   TREEVIEW.obj
 0002:00119e30       _TREEVIEW_GetItem          005c7e30 f   TREEVIEW.obj
 0002:0011a1d0       _TREEVIEW_GetSel           005c81d0 f   TREEVIEW.obj
 0002:0011a260       _TREEVIEW_SetImage         005c8260 f   TREEVIEW.obj
 0002:0011a300       _TREEVIEW_SetSelMode       005c8300 f   TREEVIEW.obj
 0002:0011a400       _TREEVIEW_SetBkColor       005c8400 f   TREEVIEW.obj
 0002:0011a540       _TREEVIEW_SetTextColor     005c8540 f   TREEVIEW.obj
 0002:0011a5a0       _TREEVIEW_SetLineColor     005c85a0 f   TREEVIEW.obj
 0002:0011a600       _TREEVIEW_SetFont          005c8600 f   TREEVIEW.obj
 0002:0011a770       _TREEVIEW_IncSel           005c8770 f   TREEVIEW.obj
 0002:0011a8a0       _TREEVIEW_DecSel           005c88a0 f   TREEVIEW.obj
 0002:0011a8f0       _TREEVIEW_SetSel           005c88f0 f   TREEVIEW.obj
 0002:0011a950       _TREEVIEW_ITEM_Detach      005c8950 f   TREEVIEW.obj
 0002:0011acc0       _TREEVIEW_ITEM_Delete      005c8cc0 f   TREEVIEW.obj
 0002:0011adf0       _TREEVIEW_ITEM_Expand      005c8df0 f   TREEVIEW.obj
 0002:0011ae50       _TREEVIEW_ITEM_Collapse    005c8e50 f   TREEVIEW.obj
 0002:0011aeb0       _TREEVIEW_ITEM_SetImage    005c8eb0 f   TREEVIEW.obj
 0002:0011afe0       _TREEVIEW_ITEM_SetText     005c8fe0 f   TREEVIEW.obj
 0002:0011b1e0       _TREEVIEW_ITEM_GetText     005c91e0 f   TREEVIEW.obj
 0002:0011b2b0       _TREEVIEW_ITEM_GetInfo     005c92b0 f   TREEVIEW.obj
 0002:0011b3a0       _TREEVIEW_ITEM_SetUserData 005c93a0 f   TREEVIEW.obj
 0002:0011b420       _TREEVIEW_ITEM_GetUserData 005c9420 f   TREEVIEW.obj
 0002:0011b4a0       _TREEVIEW_CreateIndirect   005c94a0 f   TREEVIEW_CreateIndirect.obj
 0002:0011b550       _TREEVIEW_SetDefaultFont   005c9550 f   TREEVIEW_Default.obj
 0002:0011b590       _TREEVIEW_GetDefaultFont   005c9590 f   TREEVIEW_Default.obj
 0002:0011b5d0       _TREEVIEW_SetDefaultBkColor 005c95d0 f   TREEVIEW_Default.obj
 0002:0011b6d0       _TREEVIEW_SetDefaultTextColor 005c96d0 f   TREEVIEW_Default.obj
 0002:0011b730       _TREEVIEW_SetDefaultLineColor 005c9730 f   TREEVIEW_Default.obj
 0002:0011b790       _TREEVIEW_GetDefaultBkColor 005c9790 f   TREEVIEW_Default.obj
 0002:0011b890       _TREEVIEW_GetDefaultTextColor 005c9890 f   TREEVIEW_Default.obj
 0002:0011b8e0       _TREEVIEW_GetDefaultLineColor 005c98e0 f   TREEVIEW_Default.obj
 0002:0011b930       _WIDGET__RotateRect90      005c9930 f   WIDGET.obj
 0002:0011b9e0       _WIDGET__GetClientRect     005c99e0 f   WIDGET.obj
 0002:0011bac0       _WIDGET__GetBkColor        005c9ac0 f   WIDGET.obj
 0002:0011bb40       _WIDGET__GetInsideRect     005c9b40 f   WIDGET.obj
 0002:0011bbc0       _WIDGET__GetXSize          005c9bc0 f   WIDGET.obj
 0002:0011bc40       _WIDGET__GetYSize          005c9c40 f   WIDGET.obj
 0002:0011bcc0       _WIDGET__GetWindowSizeX    005c9cc0 f   WIDGET.obj
 0002:0011bd60       _WIDGET_SetState           005c9d60 f   WIDGET.obj
 0002:0011bdf0       _WIDGET_GetState           005c9df0 f   WIDGET.obj
 0002:0011be70       _WIDGET_OrState            005c9e70 f   WIDGET.obj
 0002:0011bf10       _WIDGET_AndState           005c9f10 f   WIDGET.obj
 0002:0011bfc0       _WIDGET__Init              005c9fc0 f   WIDGET.obj
 0002:0011c020       _WIDGET_HandleActive       005ca020 f   WIDGET.obj
 0002:0011c420       _WIDGET__SetScrollState    005ca420 f   WIDGET.obj
 0002:0011c4c0       _WIDGET__DrawFocusRect     005ca4c0 f   WIDGET.obj
 0002:0011c580       _WIDGET__DrawVLine         005ca580 f   WIDGET.obj
 0002:0011c690       _WIDGET__DrawHLine         005ca690 f   WIDGET.obj
 0002:0011c7a0       _WIDGET__FillRectEx        005ca7a0 f   WIDGET.obj
 0002:0011c860       _WIDGET__DrawTriangle      005ca860 f   WIDGET.obj
 0002:0011c940       _WIDGET__EFFECT_DrawDownRect 005ca940 f   WIDGET.obj
 0002:0011cb80       _WIDGET__EFFECT_DrawDown   005cab80 f   WIDGET.obj
 0002:0011cbd0       _WIDGET__EFFECT_DrawUpRect 005cabd0 f   WIDGET.obj
 0002:0011ccb0       _WIDGET_SetDefaultEffect   005cacb0 f   WIDGET.obj
 0002:0011cd00       _WIDGET_GetDefaultEffect   005cad00 f   WIDGET.obj
 0002:0011d150       _WIDGET_EFFECT_3D_DrawUp   005cb150 f   WIDGET_Effect_3D.obj
 0002:0011d1e0       _WIDGET_EFFECT_3D_SetColor 005cb1e0 f   WIDGET_Effect_3D.obj
 0002:0011d230       _WIDGET_EFFECT_3D_GetColor 005cb230 f   WIDGET_Effect_3D.obj
 0002:0011d290       _WIDGET_EFFECT_3D_GetNumColors 005cb290 f   WIDGET_Effect_3D.obj
 0002:0011d650       _WIDGET_EFFECT_3D1L_SetColor 005cb650 f   WIDGET_Effect_3D1L.obj
 0002:0011d6a0       _WIDGET_EFFECT_3D1L_GetColor 005cb6a0 f   WIDGET_Effect_3D1L.obj
 0002:0011d700       _WIDGET_EFFECT_3D1L_GetNumColors 005cb700 f   WIDGET_Effect_3D1L.obj
 0002:0011dc40       _WIDGET_EFFECT_3D2L_SetColor 005cbc40 f   WIDGET_Effect_3D2L.obj
 0002:0011dc90       _WIDGET_EFFECT_3D2L_GetColor 005cbc90 f   WIDGET_Effect_3D2L.obj
 0002:0011dcf0       _WIDGET_EFFECT_3D2L_GetNumColors 005cbcf0 f   WIDGET_Effect_3D2L.obj
 0002:0011e140       _WIDGET_EFFECT_Simple_SetColor 005cc140 f   WIDGET_Effect_Simple.obj
 0002:0011e190       _WIDGET_EFFECT_Simple_GetColor 005cc190 f   WIDGET_Effect_Simple.obj
 0002:0011e1f0       _WIDGET_EFFECT_Simple_GetNumColors 005cc1f0 f   WIDGET_Effect_Simple.obj
 0002:0011e230       _WIDGET__FillStringInRect  005cc230 f   WIDGET_FillStringInRect.obj
 0002:0011e490       _WIDGET_SetEffect          005cc490 f   WIDGET_SetEffect.obj
 0002:0011e530       _WIDGET_SetWidth           005cc530 f   WIDGET_SetWidth.obj
 0002:0011e5f0       _WINDOW_Callback           005cc5f0 f   WINDOW.obj
 0002:0011eac0       _WINDOW_SetBkColor         005ccac0 f   WINDOW.obj
 0002:0011eb40       _WINDOW_CreateEx           005ccb40 f   WINDOW.obj
 0002:0011ec30       _WINDOW_CreateIndirect     005ccc30 f   WINDOW.obj
 0002:0011ecd0       _WINDOW_SetDefaultBkColor  005cccd0 f   WINDOW_Default.obj
 0002:0011ed10       _WINDOW_GetDefaultBkColor  005ccd10 f   WINDOW_Default.obj
 0002:0011ed50       _WM__InvalidateParent      005ccd50 f   WM.obj
 0002:0011edf0       _WM__Invalidate1Abs        005ccdf0 f   WM.obj
 0002:0011eff0       _WM__ClipAtParentBorders   005ccff0 f   WM.obj
 0002:0011f100       _WM__ActivateClipRect      005cd100 f   WM.obj
 0002:0011f340       _WM__InsertWindowIntoList  005cd340 f   WM.obj
 0002:0011f4b0       _WM__RemoveWindowFromList  005cd4b0 f   WM.obj
 0002:0011f5b0       _WM__DetachWindow          005cd5b0 f   WM.obj
 0002:0011f650       _WM__Client2Screen         005cd650 f   WM.obj
 0002:0011f6b0       _WM__IsWindow              005cd6b0 f   WM.obj
 0002:0011f730       _WM__InvalidateDrawAndDescs 005cd730 f   WM.obj
 0002:0011f820       _WM_InvalidateWindowAndDescsEx 005cd820 f   WM.obj
 0002:0011f960       _WM__InvalidateRect        005cd960 f   WM.obj
 0002:0011faf0       _WM__InvalidateRectEx      005cdaf0 f   WM.obj
 0002:0011fb50       _WM__RemoveFromLinList     005cdb50 f   WM.obj
 0002:0011fbf0       _WM__RectIsNZ              005cdbf0 f   WM.obj
 0002:0011fc60       _WM_SendMessage            005cdc60 f   WM.obj
 0002:0011fcc0       _WM__SendMsgNoData         005cdcc0 f   WM.obj
 0002:0011fd60       _WM__GetClientRectWin      005cdd60 f   WM.obj
 0002:0011fde0       _WM_InvalidateRect         005cdde0 f   WM.obj
 0002:0011ff70       _WM_InvalidateWindow       005cdf70 f   WM.obj
 0002:0011ffc0       _WM_CreateWindowAsChild    005cdfc0 f   WM.obj
 0002:001202f0       _WM_CreateWindow           005ce2f0 f   WM.obj
 0002:00120360       _WM_DeleteWindow           005ce360 f   WM.obj
 0002:00120660       _WM_SelectWindow           005ce660 f   WM.obj
 0002:00120720       _WM_GetActiveWindow        005ce720 f   WM.obj
 0002:00120760       _WM__GetNextIVR            005ce760 f   WM.obj
 0002:00121050       _WM__InitIVRSearch         005cf050 f   WM.obj
 0002:00121310       _WM_SetDefault             005cf310 f   WM.obj
 0002:00121370       _WM__Paint1                005cf370 f   WM.obj
 0002:00121500       _WM__Paint                 005cf500 f   WM.obj
 0002:00121cd0       _WM__DeleteSecure          005cfcd0 f   WM.obj
 0002:00121d50       _WM_Exec1                  005cfd50 f   WM.obj
 0002:001220b0       _WM_Exec                   005d00b0 f   WM.obj
 0002:00122120       _WM_Activate               005d0120 f   WM.obj
 0002:00122160       _WM_Deactivate             005d0160 f   WM.obj
 0002:001221b0       _WM_DefaultProc            005d01b0 f   WM.obj
 0002:00122320       _WM_Init                   005d0320 f   WM.obj
 0002:00122570       _WM_DetachWindow           005d0570 f   WM_AttachWindow.obj
 0002:00122630       _WM_AttachWindow           005d0630 f   WM_AttachWindow.obj
 0002:00122710       _WM_AttachWindowAt         005d0710 f   WM_AttachWindow.obj
 0002:00122790       _WM_BringToBottom          005d0790 f   WM_BringToBottom.obj
 0002:001228a0       _WM_BringToTop             005d08a0 f   WM_BringToTop.obj
 0002:00122aa0       _WM_BroadcastMessage       005d0aa0 f   WM_Broadcast.obj
 0002:00122b80       _WM_CheckScrollBounds      005d0b80 f   WM_CheckScrollPos.obj
 0002:00122c00       _WM_CheckScrollPos         005d0c00 f   WM_CheckScrollPos.obj
 0002:00122cc0       _WM_SetScrollValue         005d0cc0 f   WM_CheckScrollPos.obj
 0002:00122d30       _WM__AddCriticalHandle     005d0d30 f   WM_CriticalHandle.obj
 0002:00122d80       _WM__RemoveCriticalHandle  005d0d80 f   WM_CriticalHandle.obj
 0002:00122e40       _WM_DIAG_EnableInvalidationColoring 005d0e40 f   WM_DIAG.obj
 0002:00123040       _WM_SetEnableState         005d1040 f   WM_EnableWindow.obj
 0002:00123140       _WM_EnableWindow           005d1140 f   WM_EnableWindow.obj
 0002:00123190       _WM_DisableWindow          005d1190 f   WM_EnableWindow.obj
 0002:001231e0       _WM_ForEachDesc            005d11e0 f   WM_ForEachDesc.obj
 0002:00123240       _WM_GetBkColor             005d1240 f   WM_GetBkColor.obj
 0002:001232f0       _WM_GetCallback            005d12f0 f   WM_GetCallback.obj
 0002:00123360       _WM_GetClientRectEx        005d1360 f   WM_GetClientRect.obj
 0002:001233e0       _WM_GetClientRect          005d13e0 f   WM_GetClientRect.obj
 0002:00123470       _WM_GetClientWindow        005d1470 f   WM_GetClientWindow.obj
 0002:00123510       _WM_GetDesktopWindow       005d1510 f   WM_GetDesktopWindow.obj
 0002:00123550       _WM_GetDesktopWindowEx     005d1550 f   WM_GetDesktopWindowEx.obj
 0002:001235b0       _WM_GetNumWindows          005d15b0 f   WM_GetDiagInfo.obj
 0002:001235f0       _WM_GetNumInvalidWindows   005d15f0 f   WM_GetDiagInfo.obj
 0002:00123630       _WM_GetDialogItem          005d1630 f   WM_GetDialogItem.obj
 0002:00123770       _WM_GetFirstChild          005d1770 f   WM_GetFirstChild.obj
 0002:001237d0       _WM_GetFlags               005d17d0 f   WM_GetFlags.obj
 0002:00123840       _WM_GetFocussedWindow      005d1840 f   WM_GetFocussedWindow.obj
 0002:00123880       _WM_GetId                  005d1880 f   WM_GetId.obj
 0002:00123930       _WM_GetInsideRectEx        005d1930 f   WM_GetInsideRect.obj
 0002:001239d0       _WM_GetInsideRect          005d19d0 f   WM_GetInsideRect.obj
 0002:00123a30       _WM_GetInsideRectExScrollbar 005d1a30 f   WM_GetInsideRectExScrollbar.obj
 0002:00123c50       _WM_GetInvalidRect         005d1c50 f   WM_GetInvalidRect.obj
 0002:00123cf0       _WM_GetNextSibling         005d1cf0 f   WM_GetNextSibling.obj
 0002:00123d50       _WM_GetWindowOrgX          005d1d50 f   WM_GetOrg.obj
 0002:00123dc0       _WM_GetWindowOrgY          005d1dc0 f   WM_GetOrg.obj
 0002:00123e30       _WM_GetOrgX                005d1e30 f   WM_GetOrg.obj
 0002:00123e80       _WM_GetOrgY                005d1e80 f   WM_GetOrg.obj
 0002:00123ed0       _WM_GetParent              005d1ed0 f   WM_GetParent.obj
 0002:00123f30       _WM_GetPrevSibling         005d1f30 f   WM_GetPrevSibling.obj
 0002:00123fa0       _WM_GetScrollbarH          005d1fa0 f   WM_GetScrollbar.obj
 0002:00124000       _WM_GetScrollbarV          005d2000 f   WM_GetScrollbar.obj
 0002:00124060       _WM_GetScrollPartner       005d2060 f   WM_GetScrollPartner.obj
 0002:00124100       _WM_GetScrollPosH          005d2100 f   WM_GetScrollPos.obj
 0002:00124250       _WM_GetScrollPosV          005d2250 f   WM_GetScrollPos.obj
 0002:001242b0       _WM_GetScrollState         005d22b0 f   WM_GetScrollState.obj
 0002:00124350       _WM_GetWindowRect          005d2350 f   WM_GetWindowRect.obj
 0002:00124400       _WM_GetWindowRectEx        005d2400 f   WM_GetWindowRect.obj
 0002:00124480       _WM__GetWindowSizeX        005d2480 f   WM_GetWindowSize.obj
 0002:001244d0       _WM__GetWindowSizeY        005d24d0 f   WM_GetWindowSize.obj
 0002:00124520       _WM_GetWindowSizeX         005d2520 f   WM_GetWindowSize.obj
 0002:00124600       _WM_GetWindowSizeY         005d2600 f   WM_GetWindowSize.obj
 0002:00124680       _WM_HasCaptured            005d2680 f   WM_HasCaptured.obj
 0002:001246d0       _WM_HasFocus               005d26d0 f   WM_HasFocus.obj
 0002:00124720       _WM_HideWindow             005d2720 f   WM_Hide.obj
 0002:001247c0       _WM_InvalidateArea         005d27c0 f   WM_InvalidateArea.obj
 0002:00124840       _WM_IsCompletelyCovered    005d2840 f   WM_IsCompletelyCovered.obj
 0002:001253e0       _WM_IsCompletelyVisible    005d33e0 f   WM_IsCompletelyVisible.obj
 0002:00125760       _WM_IsEnabled              005d3760 f   WM_IsEnabled.obj
 0002:001257d0       _WM_IsFocussable           005d37d0 f   WM_IsFocussable.obj
 0002:00125890       _WM_IsVisible              005d3890 f   WM_IsVisible.obj
 0002:00125910       _WM_IsWindow               005d3910 f   WM_IsWindow.obj
 0002:00125970       _WM_MakeModal              005d3970 f   WM_MakeModal.obj
 0002:00125a60       _WM_EnableMemdev           005d3a60 f   WM_MemDev.obj
 0002:00125ae0       _WM_DisableMemdev          005d3ae0 f   WM_MemDev.obj
 0002:00125b60       _WM__MoveWindow            005d3b60 f   WM_Move.obj
 0002:00125db0       _WM__MoveTo                005d3db0 f   WM_Move.obj
 0002:00125e50       _WM_MoveWindow             005d3e50 f   WM_Move.obj
 0002:00125eb0       _WM_MoveTo                 005d3eb0 f   WM_Move.obj
 0002:00125f10       _WM_MoveChildTo            005d3f10 f   WM_MoveChildTo.obj
 0002:00125ff0       _WM_NotifyParent           005d3ff0 f   WM_NotifyParent.obj
 0002:00126090       _WM_OnKey                  005d4090 f   WM_OnKey.obj
 0002:00126180       _WM_Update                 005d4180 f   WM_Paint.obj
 0002:00126290       _WM_Paint                  005d4290 f   WM_Paint.obj
 0002:001262f0       _WM_PaintWindowAndDescs    005d42f0 f   WM_PaintWindowAndDescs.obj
 0002:001263c0       _WM_PID__GetPrevState      005d43c0 f   WM_PID__GetPrevState.obj
 0002:00126420       _WM_PID__SetPrevState      005d4420 f   WM_PID__GetPrevState.obj
 0002:00126480       _WM_ResizeWindow           005d4480 f   WM_ResizeWindow.obj
 0002:001266f0       _WM__IsInWindow            005d46f0 f   WM_Screen2Win.obj
 0002:00126780       _WM_Screen2hWin            005d4780 f   WM_Screen2Win.obj
 0002:00126950       _WM_Screen2hWinEx          005d4950 f   WM_Screen2Win.obj
 0002:001269b0       _WM_SendMessageNoPara      005d49b0 f   WM_SendMessageNoPara.obj
 0002:00126a10       _WM_SendToParent           005d4a10 f   WM_SendToParent.obj
 0002:00126a90       _WM_SetAnchor              005d4a90 f   WM_SetAnchor.obj
 0002:00126b60       _WM_SetCallback            005d4b60 f   WM_SetCallback.obj
 0002:00126bf0       _WM_SetCapture             005d4bf0 f   WM_SetCapture.obj
 0002:00126d10       _WM_ReleaseCapture         005d4d10 f   WM_SetCapture.obj
 0002:00126d60       _WM_SetCaptureMove         005d4d60 f   WM_SetCaptureMove.obj
 0002:00126f50       _WM_SetCreateFlags         005d4f50 f   WM_SetCreateFlags.obj
 0002:00126fa0       _WM_SetDesktopColorEx      005d4fa0 f   WM_SetDesktopColor.obj
 0002:00127030       _WM_SetDesktopColor        005d5030 f   WM_SetDesktopColor.obj
 0002:00127090       _WM_SetDesktopColors       005d5090 f   WM_SetDesktopColor.obj
 0002:00127110       _WM_SetFocus               005d5110 f   WM_SetFocus.obj
 0002:00127300       _WM_SetFocusOnNextChild    005d5300 f   WM_SetFocusOnNextChild.obj
 0002:00127500       _WM_SetFocusOnPrevChild    005d5500 f   WM_SetFocusOnPrevChild.obj
 0002:001276d0       _WM_SetId                  005d56d0 f   WM_SetId.obj
 0002:00127770       _WM_SetpfPollPID           005d5770 f   WM_SetpfPollPID.obj
 0002:001277c0       _WM__SetScrollbarV         005d57c0 f   WM_SetScrollbar.obj
 0002:001278d0       _WM__SetScrollbarH         005d58d0 f   WM_SetScrollbar.obj
 0002:00127930       _WM_SetScrollbarH          005d5930 f   WM_SetScrollbar.obj
 0002:00127990       _WM_SetScrollbarV          005d5990 f   WM_SetScrollbar.obj
 0002:001279f0       _WM_SetScrollPosH          005d59f0 f   WM_SetScrollPos.obj
 0002:00127b70       _WM_SetScrollPosV          005d5b70 f   WM_SetScrollPos.obj
 0002:00127bd0       _WM_SetScrollState         005d5bd0 f   WM_SetScrollState.obj
 0002:00127c80       _WM_SetSize                005d5c80 f   WM_SetSize.obj
 0002:00127d40       _WM_SetHasTrans            005d5d40 f   WM_SetTrans.obj
 0002:00127df0       _WM_ClrHasTrans            005d5df0 f   WM_SetTrans.obj
 0002:00127e90       _WM_GetHasTrans            005d5e90 f   WM_SetTrans.obj
 0002:00127f10       _WM_SetTransState          005d5f10 f   WM_SetTransState.obj
 0002:00128020       _WM_SetUserClipRect        005d6020 f   WM_SetUserClipRect.obj
 0002:00128080       _WM_SetWindowPos           005d6080 f   WM_SetWindowPos.obj
 0002:001280f0       _WM_SetXSize               005d60f0 f   WM_SetXSize.obj
 0002:001281b0       _WM_SetYSize               005d61b0 f   WM_SetYSize.obj
 0002:00128270       _WM_InvalidateWindowAndDescs 005d6270 f   WM_Show.obj
 0002:00128310       _WM_ShowWindow             005d6310 f   WM_Show.obj
 0002:001283a0       _WM_SetScreenSize          005d63a0 f   WM_SIM.obj
 0002:00128400       _WM_PollSimMsg             005d6400 f   WM_SIM.obj
 0002:001284f0       _WM_SetStayOnTop           005d64f0 f   WM_StayOnTop.obj
 0002:001285d0       _WM_GetStayOnTop           005d65d0 f   WM_StayOnTop.obj
 0002:00128650       _WM__DeleteAssocTimer      005d6650 f   WM_Timer.obj
 0002:00128780       _WM_DeleteTimer            005d6780 f   WM_Timer.obj
 0002:00128800       _WM_CreateTimer            005d6800 f   WM_Timer.obj
 0002:001289d0       _WM_RestartTimer           005d69d0 f   WM_Timer.obj
 0002:00128a60       _WM_GetTimerId             005d6a60 f   WM_Timer.obj
 0002:00128ae0       _WM_TimerExternal_c        005d6ae0 f   WM_TimerExternal.obj
 0002:00128b10       _WM__IsInModalArea         005d6b10 f   WM_Touch.obj
 0002:00128b90       _WM__SendPIDMessage        005d6b90 f   WM_Touch.obj
 0002:00128ca0       _WM__SendTouchMessage      005d6ca0 f   WM_Touch.obj
 0002:00128d50       _WM__SetLastTouched        005d6d50 f   WM_Touch.obj
 0002:00128da0       _WM_HandlePID              005d6da0 f   WM_Touch.obj
 0002:001294a0       _WM_UpdateWindowAndDescs   005d74a0 f   WM_UpdateWindowAndDescs.obj
 0002:00129570       _WM_GetUserData            005d7570 f   WM_UserData.obj
 0002:001296e0       _WM_SetUserData            005d76e0 f   WM_UserData.obj
 0002:00129780       _WM_ValidateRect           005d7780 f   WM_Validate.obj
 0002:00129a40       _WM_ValidateWindow         005d7a40 f   WM_ValidateWindow.obj
 0002:00129ad0       _WM__ForEachDesc           005d7ad0 f   WM__ForEachDesc.obj
 0002:00129b90       _WM__GetFirstSibling       005d7b90 f   WM__GetFirstSibling.obj
 0002:00129c20       _WM__GetFocussedChild      005d7c20 f   WM__GetFocussedChild.obj
 0002:00129ca0       _WM__GetLastSibling        005d7ca0 f   WM__GetLastSibling.obj
 0002:00129d20       _WM__GetOrgX_AA            005d7d20 f   WM__GetOrg_AA.obj
 0002:00129d80       _WM__GetOrgY_AA            005d7d80 f   WM__GetOrg_AA.obj
 0002:00129de0       _WM__GetPrevSibling        005d7de0 f   WM__GetPrevSibling.obj
 0002:00129e90       _WM__IsAncestor            005d7e90 f   WM__IsAncestor.obj
 0002:00129f30       _WM__IsAncestorOrSelf      005d7f30 f   WM__IsAncestor.obj
 0002:00129fa0       _WM__IsChild               005d7fa0 f   WM__IsChild.obj
 0002:0012a030       _WM__IsEnabled             005d8030 f   WM__IsEnabled.obj
 0002:0012a0a0       _WM__NotifyVisChanged      005d80a0 f   WM__NotifyVisChanged.obj
 0002:0012a1f0       _WM__Screen2Client         005d81f0 f   WM__Screen2Client.obj
 0002:0012a260       _WM__SendMessage           005d8260 f   WM__SendMessage.obj
 0002:0012a340       _WM__SendMessageIfEnabled  005d8340 f   WM__SendMessageIfEnabled.obj
 0002:0012a3b0       _WM__SendMessageNoPara     005d83b0 f   WM__SendMessageNoPara.obj
 0002:0012a490       _WM__UpdateChildPositions  005d8490 f   WM__UpdateChildPositions.obj
 0002:0012a760       _WinMain@16                005d8760 f   WinMain.obj
 0002:0012a7bf       __cfltcvt_init             005d87bf f   libcmt:_fpinit_.obj
 0002:0012a837       ___setfflag                005d8837 f   libcmt:_fpinit_.obj
 0002:0012a851       __fpmath                   005d8851 f   libcmt:_fpinit_.obj
 0002:0012a870       __RTC_CheckEsp             005d8870 f   libcmt:_stack_.obj
 0002:0012a89b       @_RTC_CheckStackVars@8     005d889b f   libcmt:_stack_.obj
 0002:0012a90e       @_RTC_AllocaHelper@12      005d890e f   libcmt:_stack_.obj
 0002:0012a94c       @_RTC_CheckStackVars2@12   005d894c f   libcmt:_stack_.obj
 0002:0012aa2e       __RTC_InitBase             005d8a2e f   libcmt:_init_.obj
 0002:0012aa5d       __RTC_Shutdown             005d8a5d f   libcmt:_init_.obj
 0002:0012aa73       _sprintf                   005d8a73 f   libcmt:sprintf.obj
 0002:0012ab18       __sprintf_l                005d8b18 f   libcmt:sprintf.obj
 0002:0012ab3b       _sprintf_s                 005d8b3b f   libcmt:sprintf.obj
 0002:0012ab60       __sprintf_s_l              005d8b60 f   libcmt:sprintf.obj
 0002:0012ab86       __snprintf_s               005d8b86 f   libcmt:sprintf.obj
 0002:0012abaf       __snprintf_s_l             005d8baf f   libcmt:sprintf.obj
 0002:0012abd9       __sprintf_p                005d8bd9 f   libcmt:sprintf.obj
 0002:0012abfe       __sprintf_p_l              005d8bfe f   libcmt:sprintf.obj
 0002:0012ac24       __scprintf                 005d8c24 f   libcmt:sprintf.obj
 0002:0012ac3e       __scprintf_p               005d8c3e f   libcmt:sprintf.obj
 0002:0012ac58       __scprintf_l               005d8c58 f   libcmt:sprintf.obj
 0002:0012ac77       __scprintf_p_l             005d8c77 f   libcmt:sprintf.obj
 0002:0012ac96       ??0_LocaleUpdate@@QAE@PAUlocaleinfo_struct@@@Z 005d8c96 f i libcmt:atof.obj
 0002:0012ad3e       ??1_LocaleUpdate@@QAE@XZ   005d8d3e f i libcmt:atof.obj
 0002:0012ad4f       ?GetLocaleT@_LocaleUpdate@@QAEPAUlocaleinfo_struct@@XZ 005d8d4f f i libcmt:atof.obj
 0002:0012ad52       __atof_l                   005d8d52 f   libcmt:atof.obj
 0002:0012ae27       _atof                      005d8e27 f   libcmt:atof.obj
 0002:0012ae3e       ___strgtold12              005d8e3e f   libcmt:atof.obj
 0002:0012ae90       ___STRINGTOLD              005d8e90 f   libcmt:atof.obj
 0002:0012aed7       @__security_check_cookie@4 005d8ed7 f   libcmt:secchk.obj
 0002:0012aef0       _strlen                    005d8ef0 f   libcmt:strlen.obj
 0002:0012b080       _qsort                     005d9080 f   libcmt:qsort.obj
 0002:0012b3b0       __alloca_probe             005d93b0     libcmt:chkstk.obj
 0002:0012b3b0       __chkstk                   005d93b0 f   libcmt:chkstk.obj
 0002:0012b3e5       ___ascii_stricmp           005d93e5 f   libcmt:stricmp.obj
 0002:0012b42c       __stricmp_l                005d942c f   libcmt:stricmp.obj
 0002:0012b51c       __stricmp                  005d951c f   libcmt:stricmp.obj
 0002:0012b580       _strcpy                    005d9580 f   libcmt:strcat.obj
 0002:0012b590       _strcat                    005d9590 f   libcmt:strcat.obj
 0002:0012b6c0       __allshl                   005d96c0 f   libcmt:llshl.obj
 0002:0012b6f0       _strcmp                    005d96f0 f   libcmt:strcmp.obj
 0002:0012b7a0       _strncpy                   005d97a0 f   libcmt:strncpy.obj
 0002:0012b90d       __tolower                  005d990d f   libcmt:tolower.obj
 0002:0012b91d       __tolower_l                005d991d f   libcmt:tolower.obj
 0002:0012ba77       _tolower                   005d9a77 f   libcmt:tolower.obj
 0002:0012bab0       __ftol2_sse                005d9ab0 f   libcmt:ftol2.obj
 0002:0012bab9       __ftol2_pentium4           005d9ab9 f   libcmt:ftol2.obj
 0002:0012bacc       __ftol2_sse_excpt          005d9acc f   libcmt:ftol2.obj
 0002:0012bae6       __ftol2                    005d9ae6 f   libcmt:ftol2.obj
 0002:0012bb85       _strncmp                   005d9b85 f   libcmt:strncmp.obj
 0002:0012bc80       _floor                     005d9c80 f   libcmt:_floor_pentium4_.obj
 0002:0012bcc0       __floor_pentium4           005d9cc0 f   libcmt:_floor_pentium4_.obj
 0002:0012bdf0       _ceil                      005d9df0 f   libcmt:_ceil_pentium4_.obj
 0002:0012be30       __ceil_pentium4            005d9e30 f   libcmt:_ceil_pentium4_.obj
 0002:0012bf60       __CIsqrt                   005d9f60 f   libcmt:_sqrt_.obj
 0002:0012bf74       _sqrt                      005d9f74     libcmt:_sqrt_.obj
 0002:0012c048       __invoke_watson_if_error   005da048 f i libcmt:loctim64.obj
 0002:0012c071       __localtime64_s            005da071 f   libcmt:loctim64.obj
 0002:0012c39b       __localtime64              005da39b f   libcmt:loctim64.obj
 0002:0012c3cb       __time64                   005da3cb f   libcmt:time64.obj
 0002:0012c430       ??3@YAXPAX@Z               005da430 f   libcmt:delete.obj
 0002:0012c43d       ??0bad_alloc@std@@QAE@XZ   005da43d f i libcmt:new.obj
 0002:0012c46c       ??1bad_alloc@std@@UAE@XZ   005da46c f i libcmt:new.obj
 0002:0012c479       ??_Gbad_alloc@std@@UAEPAXI@Z 005da479 f i libcmt:new.obj
 0002:0012c479       ??_Ebad_alloc@std@@UAEPAXI@Z 005da479 f i libcmt:new.obj
 0002:0012c4a9       ??0bad_alloc@std@@QAE@ABV01@@Z 005da4a9 f i libcmt:new.obj
 0002:0012c4cd       ??2@YAPAXI@Z               005da4cd f   libcmt:new.obj
 0002:0012c56d       __fclose_nolock            005da56d f   libcmt:fclose.obj
 0002:0012c5f5       _fclose                    005da5f5 f   libcmt:fclose.obj
 0002:0012c686       __fsopen                   005da686 f   libcmt:fopen.obj
 0002:0012c771       _fopen                     005da771 f   libcmt:fopen.obj
 0002:0012c78d       _fopen_s                   005da78d f   libcmt:fopen.obj
 0002:0012c7f0       _memcpy                    005da7f0 f   libcmt:memcpy.obj
 0002:0012cc30       _memset                    005dac30 f   libcmt:memset.obj
 0002:0012ccc8       __fwrite_nolock            005dacc8 f   libcmt:fwrite.obj
 0002:0012ce74       _fwrite                    005dae74 f   libcmt:fwrite.obj
 0002:0012cf0c       __getenv_helper_nolock     005daf0c f   libcmt:getenv.obj
 0002:0012d124       _getenv                    005db124 f   libcmt:getenv.obj
 0002:0012d1bc       _getenv_s                  005db1bc f   libcmt:getenv.obj
 0002:0012d2bc       __dupenv_s                 005db2bc f   libcmt:getenv.obj
 0002:0012d3c8       __fread_nolock_s           005db3c8 f   libcmt:fread.obj
 0002:0012d5f3       __fread_nolock             005db5f3 f   libcmt:fread.obj
 0002:0012d617       _fread_s                   005db617 f   libcmt:fread.obj
 0002:0012d6c8       _fread                     005db6c8 f   libcmt:fread.obj
 0002:0012d6ec       _remove                    005db6ec f   libcmt:unlink.obj
 0002:0012d728       __unlink                   005db728 f   libcmt:unlink.obj
 0002:0012d740       _cos                       005db740 f   libcmt:_cos_.obj
 0002:0012d780       __CIcos                    005db780 f   libcmt:_cos_.obj
 0002:0012d7bb       __CIcos_default            005db7bb f   libcmt:_cos_.obj
 0002:0012d7cf       __cos_default              005db7cf     libcmt:_cos_.obj
 0002:0012d8c0       _sin                       005db8c0 f   libcmt:_sin_.obj
 0002:0012d900       __CIsin                    005db900 f   libcmt:_sin_.obj
 0002:0012d93b       __CIsin_default            005db93b f   libcmt:_sin_.obj
 0002:0012d94f       __sin_default              005db94f     libcmt:_sin_.obj
 0002:0012da33       _abs                       005dba33 f   libcmt:abs.obj
 0002:0012da45       __abs64                    005dba45 f   libcmt:abs.obj
 0002:0012da65       __toupper                  005dba65 f   libcmt:toupper.obj
 0002:0012da75       __toupper_l                005dba75 f   libcmt:toupper.obj
 0002:0012dbd0       _toupper                   005dbbd0 f   libcmt:toupper.obj
 0002:0012dc07       _fputc                     005dbc07 f   libcmt:fputc.obj
 0002:0012dd42       _putc                      005dbd42 f   libcmt:fputc.obj
 0002:0012de7d       _fputs                     005dbe7d f   libcmt:fputs.obj
 0002:0012dfc4       _atol                      005dbfc4 f   libcmt:atox.obj
 0002:0012dfdf       __atol_l                   005dbfdf f   libcmt:atox.obj
 0002:0012dffe       _atoi                      005dbffe f   libcmt:atox.obj
 0002:0012e00b       __atoi_l                   005dc00b f   libcmt:atox.obj
 0002:0012e018       __atoi64                   005dc018 f   libcmt:atox.obj
 0002:0012e033       __atoi64_l                 005dc033 f   libcmt:atox.obj
 0002:0012e052       __isalpha_l                005dc052 f i libcmt:_ctype.obj
 0002:0012e0bd       _isalpha                   005dc0bd f i libcmt:_ctype.obj
 0002:0012e0f9       __isupper_l                005dc0f9 f i libcmt:_ctype.obj
 0002:0012e15e       _isupper                   005dc15e f i libcmt:_ctype.obj
 0002:0012e197       __islower_l                005dc197 f i libcmt:_ctype.obj
 0002:0012e1fc       _islower                   005dc1fc f i libcmt:_ctype.obj
 0002:0012e235       __isdigit_l                005dc235 f i libcmt:_ctype.obj
 0002:0012e29a       _isdigit                   005dc29a f i libcmt:_ctype.obj
 0002:0012e2d3       __isxdigit_l               005dc2d3 f i libcmt:_ctype.obj
 0002:0012e33e       _isxdigit                  005dc33e f i libcmt:_ctype.obj
 0002:0012e37a       __isspace_l                005dc37a f i libcmt:_ctype.obj
 0002:0012e3df       _isspace                   005dc3df f i libcmt:_ctype.obj
 0002:0012e418       __ispunct_l                005dc418 f i libcmt:_ctype.obj
 0002:0012e47d       _ispunct                   005dc47d f i libcmt:_ctype.obj
 0002:0012e4b6       __isalnum_l                005dc4b6 f i libcmt:_ctype.obj
 0002:0012e521       _isalnum                   005dc521 f i libcmt:_ctype.obj
 0002:0012e55d       __isprint_l                005dc55d f i libcmt:_ctype.obj
 0002:0012e5c8       _isprint                   005dc5c8 f i libcmt:_ctype.obj
 0002:0012e604       __isgraph_l                005dc604 f i libcmt:_ctype.obj
 0002:0012e66f       _isgraph                   005dc66f f i libcmt:_ctype.obj
 0002:0012e6ab       __iscntrl_l                005dc6ab f i libcmt:_ctype.obj
 0002:0012e710       _iscntrl                   005dc710 f i libcmt:_ctype.obj
 0002:0012e749       ___isascii                 005dc749 f i libcmt:_ctype.obj
 0002:0012e75f       ___toascii                 005dc75f f i libcmt:_ctype.obj
 0002:0012e76f       __iscsymf_l                005dc76f f i libcmt:_ctype.obj
 0002:0012e79a       ___iscsymf                 005dc79a f i libcmt:_ctype.obj
 0002:0012e7c0       __iscsym_l                 005dc7c0 f i libcmt:_ctype.obj
 0002:0012e7eb       ___iscsym                  005dc7eb f i libcmt:_ctype.obj
 0002:0012e814       _fgets                     005dc814 f   libcmt:fgets.obj
 0002:0012e99a       _rename                    005dc99a f   libcmt:rename.obj
 0002:0012e9d9       __heap_alloc               005dc9d9 f i libcmt:malloc.obj
 0002:0012ea27       _malloc                    005dca27 f   libcmt:malloc.obj
 0002:0012eae0       _free                      005dcae0 f   libcmt:free.obj
 0002:0012eb28       __fseek_nolock             005dcb28 f   libcmt:fseek.obj
 0002:0012ebd4       _fseek                     005dcbd4 f   libcmt:fseek.obj
 0002:0012efd4       ?_RTC_Failure@@YAXPAXH@Z   005dcfd4 f   libcmt:_error_.obj
 0002:0012f01d       ?_RTC_StackFailure@@YAXPAXPBD@Z 005dd01d f   libcmt:_error_.obj
 0002:0012f1cc       ?_RTC_AllocaFailure@@YAXPAXPAU_RTC_ALLOCA_NODE@@H@Z 005dd1cc f   libcmt:_error_.obj
 0002:0012f332       __RTC_UninitUse            005dd332 f   libcmt:_error_.obj
 0002:0012f450       _atan                      005dd450 f   libcmt:_atan_.obj
 0002:0012f490       __CIatan                   005dd490 f   libcmt:_atan_.obj
 0002:0012f4cb       __CIatan_default           005dd4cb f   libcmt:_atan_.obj
 0002:0012f4df       __atan_default             005dd4df     libcmt:_atan_.obj
 0002:0012f5b0       _tan                       005dd5b0 f   libcmt:_tan_.obj
 0002:0012f5f0       __CItan                    005dd5f0 f   libcmt:_tan_.obj
 0002:0012f62b       __CItan_default            005dd62b f   libcmt:_tan_.obj
 0002:0012f63f       __tan_default              005dd63f     libcmt:_tan_.obj
 0002:0012f728       _fabs                      005dd728 f   libcmt:_fabs_.obj
 0002:0012f811       __get_errno_from_oserr     005dd811 f   libcmt:dosmap.obj
 0002:0012f863       __errno                    005dd863 f   libcmt:dosmap.obj
 0002:0012f87a       ___doserrno                005dd87a f   libcmt:dosmap.obj
 0002:0012f891       __dosmaperr                005dd891 f   libcmt:dosmap.obj
 0002:0012f8bc       __set_errno                005dd8bc f   libcmt:dosmap.obj
 0002:0012f8e5       __get_errno                005dd8e5 f   libcmt:dosmap.obj
 0002:0012f913       __set_doserrno             005dd913 f   libcmt:dosmap.obj
 0002:0012f93c       __get_doserrno             005dd93c f   libcmt:dosmap.obj
 0002:0012fa7a       __stat64i32                005dda7a f   libcmt:stati32.obj
 0002:0012fff0       _memmove                   005ddff0 f   libcmt:memmove.obj
 0002:00130429       _labs                      005de429 f   libcmt:labs.obj
 0002:00131e9b       _memcmp                    005dfe9b f   libcmt:memcmp.obj
 0002:00133b97       _WinMainCRTStartup         005e1b97 f   libcmt:wincrt0.obj
 0002:00133ba3       ?strrchr@@YAPADPADH@Z      005e1ba3 f i libcmt:cvt.obj
 0002:00133bb0       __forcdecpt_l              005e1bb0 f   libcmt:cvt.obj
 0002:00133c41       __cropzeros_l              005e1c41 f   libcmt:cvt.obj
 0002:00133ce3       __positive                 005e1ce3 f   libcmt:cvt.obj
 0002:00133d06       __fassign_l                005e1d06 f   libcmt:cvt.obj
 0002:00133d58       __fassign                  005e1d58 f   libcmt:cvt.obj
 0002:00133d9e       __forcdecpt                005e1d9e f   libcmt:cvt.obj
 0002:00133db5       __cropzeros                005e1db5 f   libcmt:cvt.obj
 0002:00133f85       __cftoe_l                  005e1f85 f   libcmt:cvt.obj
 0002:0013407d       __cftoe                    005e207d f   libcmt:cvt.obj
 0002:001340a5       __cftoa_l                  005e20a5 f   libcmt:cvt.obj
 0002:001344f8       __cftoa                    005e24f8 f   libcmt:cvt.obj
 0002:00134663       __cftof_l                  005e2663 f   libcmt:cvt.obj
 0002:00134754       __cftof                    005e2754 f   libcmt:cvt.obj
 0002:00134778       __cftog_l                  005e2778 f   libcmt:cvt.obj
 0002:001348a0       __cftog                    005e28a0 f   libcmt:cvt.obj
 0002:001348c8       __cfltcvt_l                005e28c8 f   libcmt:cvt.obj
 0002:00134972       __cfltcvt                  005e2972 f   libcmt:cvt.obj
 0002:0013499d       __initp_misc_cfltcvt_tab   005e299d f   libcmt:cmiscdat.obj
 0002:001349c8       __setdefaultprecision      005e29c8 f   libcmt:fp8.obj
 0002:001349fa       __RTC_NumErrors            005e29fa f   libcmt:_userapi_.obj
 0002:001349fe       __RTC_GetErrDesc           005e29fe f   libcmt:_userapi_.obj
 0002:00134a1e       __RTC_SetErrorType         005e2a1e f   libcmt:_userapi_.obj
 0002:00134a48       __RTC_SetErrorFunc         005e2a48 f   libcmt:_userapi_.obj
 0002:00134a6b       __RTC_SetErrorFuncW        005e2a6b f   libcmt:_userapi_.obj
 0002:00134a8e       ?_RTC_GetErrorFunc@@YAP6AHHPBDH00ZZPBX@Z 005e2a8e f   libcmt:_userapi_.obj
 0002:00134a94       ?_RTC_GetErrorFuncW@@YAP6AHHPB_WH00ZZPBX@Z 005e2a94 f   libcmt:_userapi_.obj
 0002:00134a9a       __chkesp                   005e2a9a f   libcmt:chkesp.obj
 0002:00134ab8       __CRT_RTC_INIT             005e2ab8 f   libcmt:chkesp.obj
 0002:00134abb       __CRT_RTC_INITW            005e2abb f   libcmt:chkesp.obj
 0002:00134abe       __flsbuf                   005e2abe f   libcmt:_flsbuf.obj
 0002:00134d63       _get_int_arg               005e2d63 f i libcmt:output.obj
 0002:00134d79       _get_int64_arg             005e2d79 f i libcmt:output.obj
 0002:00134d93       _get_short_arg             005e2d93 f i libcmt:output.obj
 0002:00134daa       __output_l                 005e2daa f   libcmt:output.obj
 0002:00135cb4       __initp_misc_invarg        005e3cb4 f   libcmt:invarg.obj
 0002:00135cc6       __call_reportfault         005e3cc6 f   libcmt:invarg.obj
 0002:00135e39       __set_invalid_parameter_handler 005e3e39 f   libcmt:invarg.obj
 0002:00135e69       __get_invalid_parameter_handler 005e3e69 f   libcmt:invarg.obj
 0002:00135e79       __invoke_watson            005e3e79 f   libcmt:invarg.obj
 0002:00135ea7       ?_invoke_watson@@YAXPBG00II@Z 005e3ea7 f   libcmt:invarg.obj
 0002:00135ec7       __invalid_parameter        005e3ec7 f   libcmt:invarg.obj
 0002:00135eff       __invalid_parameter_noinfo 005e3eff f   libcmt:invarg.obj
 0002:00135f13       __invalid_parameter_noinfo_noreturn 005e3f13 f   libcmt:invarg.obj
 0002:00135f4c       ?_invalid_parameter@@YAXPBG00II@Z 005e3f4c f   libcmt:invarg.obj
 0002:00135f59       __vsprintf_l               005e3f59 f   libcmt:vsprintf.obj
 0002:00135ffe       _vsprintf                  005e3ffe f   libcmt:vsprintf.obj
 0002:0013601e       __vscprintf_helper         005e401e f   libcmt:vsprintf.obj
 0002:00136091       __vscprintf                005e4091 f   libcmt:vsprintf.obj
 0002:001360b4       __vscprintf_l              005e40b4 f   libcmt:vsprintf.obj
 0002:001360d8       __vscprintf_p              005e40d8 f   libcmt:vsprintf.obj
 0002:001360fb       __vscprintf_p_l            005e40fb f   libcmt:vsprintf.obj
 0002:0013611f       __vsnprintf_helper         005e411f f   libcmt:vsnprnc.obj
 0002:0013621b       __vsnprintf_c              005e421b f   libcmt:vsnprnc.obj
 0002:0013624e       __vsnprintf_c_l            005e424e f   libcmt:vsnprnc.obj
 0002:00136282       __vsprintf_s_l             005e4282 f   libcmt:vsnprnc.obj
 0002:00136316       _vsprintf_s                005e4316 f   libcmt:vsnprnc.obj
 0002:0013633a       __vsnprintf_s_l            005e433a f   libcmt:vsnprnc.obj
 0002:00136461       __vsnprintf_s              005e4461 f   libcmt:vsnprnc.obj
 0002:00136489       __vsprintf_p               005e4489 f   libcmt:vsnprnc.obj
 0002:001364bc       __vsprintf_p_l             005e44bc f   libcmt:vsnprnc.obj
 0002:0013679b       ___updatetmbcinfo          005e479b f   libcmt:mbctype.obj
 0002:00136903       __setmbcp_nolock           005e4903 f   libcmt:mbctype.obj
 0002:00136b66       __getmbcp                  005e4b66 f   libcmt:mbctype.obj
 0002:00136bb3       __setmbcp                  005e4bb3 f   libcmt:mbctype.obj
 0002:00136db3       ___initmbctable            005e4db3 f   libcmt:mbctype.obj
 0002:00136dd8       ___addlocaleref            005e4dd8 f   libcmt:localref.obj
 0002:00136e8a       ___removelocaleref         005e4e8a f   libcmt:localref.obj
 0002:00136f49       ___freetlocinfo            005e4f49 f   libcmt:localref.obj
 0002:001370e6       __updatetlocinfoEx_nolock  005e50e6 f   libcmt:localref.obj
 0002:00137146       ___updatetlocinfo          005e5146 f   libcmt:localref.obj
 0002:001371dd       __encoded_null             005e51dd f   libcmt:tidtable.obj
 0002:001371e8       ___crtTlsAlloc@4           005e51e8 f   libcmt:tidtable.obj
 0002:001371f3       ___fls_getvalue@4          005e51f3 f   libcmt:tidtable.obj
 0002:00137213       ___get_flsindex            005e5213 f   libcmt:tidtable.obj
 0002:00137219       ___set_flsgetvalue         005e5219 f   libcmt:tidtable.obj
 0002:0013725a       ___fls_setvalue@8          005e525a f   libcmt:tidtable.obj
 0002:0013727e       __mtterm                   005e527e f   libcmt:tidtable.obj
 0002:001372ca       __initptd                  005e52ca f   libcmt:tidtable.obj
 0002:001373ab       __getptd_noexit            005e53ab f   libcmt:tidtable.obj
 0002:00137442       __getptd                   005e5442 f   libcmt:tidtable.obj
 0002:00137462       __freefls@4                005e5462 f   libcmt:tidtable.obj
 0002:001375dc       __freeptd                  005e55dc f   libcmt:tidtable.obj
 0002:00137665       ___threadid                005e5665 f   libcmt:tidtable.obj
 0002:0013766b       ___threadhandle            005e566b f   libcmt:tidtable.obj
 0002:00137671       __mtinit                   005e5671 f   libcmt:tidtable.obj
 0002:0013784a       __fltin2                   005e584a f   libcmt:_cfin_.obj
 0002:0013791a       __isctype_l                005e591a f   libcmt:isctype.obj
 0002:00137a00       __isctype                  005e5a00 f   libcmt:isctype.obj
 0002:00137a3e       ___addl                    005e5a3e f i libcmt:_strgtold_.obj
 0002:00137a6b       ___shl_12                  005e5a6b f i libcmt:_strgtold_.obj
 0002:00137aaa       ___shr_12                  005e5aaa f i libcmt:_strgtold_.obj
 0002:00137ae8       ___ld12mul                 005e5ae8 f i libcmt:_strgtold_.obj
 0002:00137e01       ___multtenpow12            005e5e01 f i libcmt:_strgtold_.obj
 0002:001381bf       ___strgtold12_l            005e61bf f   libcmt:_strgtold_.obj
 0002:00138a52       ___STRINGTOLD_L            005e6a52 f   libcmt:_strgtold_.obj
 0002:00138ac3       ___report_gsfailure        005e6ac3 f   libcmt:gs_report.obj
 0002:00138c0a       ____setlc_active_func      005e6c0a f   libcmt:setlocal.obj
 0002:00138c10       ____unguarded_readlc_active_add_func 005e6c10 f   libcmt:setlocal.obj
 0002:00138c45       __configthreadlocale       005e6c45 f   libcmt:setlocal.obj
 0002:00138ced       __free_locale              005e6ced f   libcmt:setlocal.obj
 0002:00138ddf       ___free_locale             005e6ddf f   libcmt:setlocal.obj
 0002:00138dec       __get_current_locale       005e6dec f   libcmt:setlocal.obj
 0002:00138ec6       ___get_current_locale      005e6ec6 f   libcmt:setlocal.obj
 0002:00138ecb       ___init_dummy              005e6ecb f   libcmt:setlocal.obj
 0002:00138ece       __strcats                  005e6ece f   libcmt:setlocal.obj
 0002:00138f1f       ___lc_strtolc              005e6f1f f   libcmt:setlocal.obj
 0002:00139085       ___lc_lctostr              005e7085 f   libcmt:setlocal.obj
 0002:001392c8       __expandlocale             005e72c8 f   libcmt:setlocal.obj
 0002:00139c1c       __create_locale            005e7c1c f   libcmt:setlocal.obj
 0002:00139d4e       ___create_locale           005e7d4e f   libcmt:setlocal.obj
 0002:00139d5b       _setlocale                 005e7d5b f   libcmt:setlocal.obj
 0002:00139f2c       __MarkAllocaS              005e7f2c f i libcmt:a_map.obj
 0002:00139f47       __freea                    005e7f47 f i libcmt:a_map.obj
 0002:0013a1f4       ___crtLCMapStringA         005e81f4 f   libcmt:a_map.obj
 0002:0013a24b       __isleadbyte_l             005e824b f i libcmt:_wctype.obj
 0002:0013a291       _isleadbyte                005e8291 f i libcmt:_wctype.obj
 0002:0013a2a8       __iswalpha_l               005e82a8 f i libcmt:_wctype.obj
 0002:0013a2c3       _iswalpha                  005e82c3 f i libcmt:_wctype.obj
 0002:0013a2de       __iswupper_l               005e82de f i libcmt:_wctype.obj
 0002:0013a2f5       _iswupper                  005e82f5 f i libcmt:_wctype.obj
 0002:0013a30c       __iswlower_l               005e830c f i libcmt:_wctype.obj
 0002:0013a323       _iswlower                  005e8323 f i libcmt:_wctype.obj
 0002:0013a33a       __iswdigit_l               005e833a f i libcmt:_wctype.obj
 0002:0013a351       _iswdigit                  005e8351 f i libcmt:_wctype.obj
 0002:0013a368       __iswxdigit_l              005e8368 f i libcmt:_wctype.obj
 0002:0013a383       _iswxdigit                 005e8383 f i libcmt:_wctype.obj
 0002:0013a39e       __iswspace_l               005e839e f i libcmt:_wctype.obj
 0002:0013a3b5       _iswspace                  005e83b5 f i libcmt:_wctype.obj
 0002:0013a3cc       __iswpunct_l               005e83cc f i libcmt:_wctype.obj
 0002:0013a3e3       _iswpunct                  005e83e3 f i libcmt:_wctype.obj
 0002:0013a3fa       __iswalnum_l               005e83fa f i libcmt:_wctype.obj
 0002:0013a415       _iswalnum                  005e8415 f i libcmt:_wctype.obj
 0002:0013a430       __iswprint_l               005e8430 f i libcmt:_wctype.obj
 0002:0013a44b       _iswprint                  005e844b f i libcmt:_wctype.obj
 0002:0013a466       __iswgraph_l               005e8466 f i libcmt:_wctype.obj
 0002:0013a481       _iswgraph                  005e8481 f i libcmt:_wctype.obj
 0002:0013a49c       __iswcntrl_l               005e849c f i libcmt:_wctype.obj
 0002:0013a4b3       _iswcntrl                  005e84b3 f i libcmt:_wctype.obj
 0002:0013a4ca       _iswascii                  005e84ca f i libcmt:_wctype.obj
 0002:0013a4e3       __iswcsym_l                005e84e3 f i libcmt:_wctype.obj
 0002:0013a512       ___iswcsym                 005e8512 f i libcmt:_wctype.obj
 0002:0013a541       __iswcsymf_l               005e8541 f i libcmt:_wctype.obj
 0002:0013a570       ___iswcsymf                005e8570 f i libcmt:_wctype.obj
 0002:0013a59f       ___sse2_available_init     005e859f f   libcmt:cpu_disp.obj
 0002:0013a5b3       ___libm_setusermatherr     005e85b3 f   libcmt:_libm_error_.obj
 0002:0013a5ec       ___libm_error_support      005e85ec f   libcmt:_libm_error_.obj
 0002:0013a96b       __set_SSE2_enable          005e896b f   libcmt:_mathfcns_.obj
 0002:0013a98a       __sse2_mathfcns_init       005e898a f   libcmt:_mathfcns_.obj
 0002:0013a99e       __floor_default            005e899e f   libcmt:_floor_.obj
 0002:0013aaac       __ceil_default             005e8aac f   libcmt:_ceil_.obj
 0002:0013abc0       __trandisp1                005e8bc0 f   libcmt:_87disp_.obj
 0002:0013ac27       __trandisp2                005e8c27 f   libcmt:_87disp_.obj
 0002:0013acb3       __rttospopde               005e8cb3     libcmt:_87disp_.obj
 0002:0013acb8       __rttospop                 005e8cb8     libcmt:_87disp_.obj
 0002:0013acba       __rtnospop                 005e8cba     libcmt:_87disp_.obj
 0002:0013acbc       __rttosnpop                005e8cbc     libcmt:_87disp_.obj
 0002:0013acbd       __rtnospopde               005e8cbd     libcmt:_87disp_.obj
 0002:0013acc4       __rtzeropop                005e8cc4     libcmt:_87disp_.obj
 0002:0013acc6       __rtzeronpop               005e8cc6     libcmt:_87disp_.obj
 0002:0013accb       __rtonepop                 005e8ccb     libcmt:_87disp_.obj
 0002:0013accd       __rtonenpop                005e8ccd     libcmt:_87disp_.obj
 0002:0013acd2       __tosnan1                  005e8cd2     libcmt:_87disp_.obj
 0002:0013acfd       __nosnan2                  005e8cfd     libcmt:_87disp_.obj
 0002:0013acff       __tosnan2                  005e8cff     libcmt:_87disp_.obj
 0002:0013ad27       __nan2                     005e8d27     libcmt:_87disp_.obj
 0002:0013ad66       __rtindfpop                005e8d66     libcmt:_87disp_.obj
 0002:0013ad68       __rtindfnpop               005e8d68     libcmt:_87disp_.obj
 0002:0013ad79       __rttosnpopde              005e8d79     libcmt:_87disp_.obj
 0002:0013ad83       __rtchsifneg               005e8d83     libcmt:_87disp_.obj
 0002:0013ae00       __startTwoArgErrorHandling 005e8e00 f   libcmt:_genexcep_.obj
 0002:0013ae17       __startOneArgErrorHandling 005e8e17 f   libcmt:_genexcep_.obj
 0002:0013ae70       __twoToTOS                 005e8e70 f   libcmt:_common_.obj
 0002:0013ae85       __load_CW                  005e8e85 f   libcmt:_common_.obj
 0002:0013ae9c       __convertTOStoQNaN         005e8e9c f   libcmt:_common_.obj
 0002:0013aeb5       __fload_withFB             005e8eb5 f   libcmt:_common_.obj
 0002:0013aef8       __checkTOS_withFB          005e8ef8 f   libcmt:_common_.obj
 0002:0013af0e       __fast_exit                005e8f0e f   libcmt:_common_.obj
 0002:0013af1b       __math_exit                005e8f1b f   libcmt:_common_.obj
 0002:0013af45       __check_overflow_exit      005e8f45 f   libcmt:_common_.obj
 0002:0013af59       __check_range_exit         005e8f59 f   libcmt:_common_.obj
 0002:0013b05f       __set_daylight             005e905f f i libcmt:tzset.obj
 0002:0013b074       __set_dstbias              005e9074 f i libcmt:tzset.obj
 0002:0013b089       __set_timezone             005e9089 f i libcmt:tzset.obj
 0002:0013b935       ___tzset                   005e9935 f   libcmt:tzset.obj
 0002:0013b997       __tzset                    005e9997 f   libcmt:tzset.obj
 0002:0013b9dd       __isindst                  005e99dd f   libcmt:tzset.obj
 0002:0013ba2e       __gmtime64_s               005e9a2e f   libcmt:gmtime64.obj
 0002:0013bcf5       __gmtime64                 005e9cf5 f   libcmt:gmtime64.obj
 0002:0013bd25       __get_daylight             005e9d25 f   libcmt:timeset.obj
 0002:0013bd5d       __get_dstbias              005e9d5d f   libcmt:timeset.obj
 0002:0013bd95       __get_timezone             005e9d95 f   libcmt:timeset.obj
 0002:0013bdcd       __get_tzname               005e9dcd f   libcmt:timeset.obj
 0002:0013be83       ___daylight                005e9e83 f   libcmt:timeset.obj
 0002:0013be89       ___dstbias                 005e9e89 f   libcmt:timeset.obj
 0002:0013be8f       ___timezone                005e9e8f f   libcmt:timeset.obj
 0002:0013be95       ___tzname                  005e9e95 f   libcmt:timeset.obj
 0002:0013bea0       __alldiv                   005e9ea0 f   libcmt:lldiv.obj
 0002:0013bf80       __allrem                   005e9f80 f   libcmt:llrem.obj
 0002:0013c05e       __gmtime32_s               005ea05e f   libcmt:gmtime.obj
 0002:0013c1ee       ___getgmtimebuf            005ea1ee f   libcmt:gmtime.obj
 0002:0013c232       __gmtime32                 005ea232 f   libcmt:gmtime.obj
 0002:0013c270       __aulldiv                  005ea270 f   libcmt:ulldiv.obj
 0002:0013c2f2       ??0exception@std@@QAE@XZ   005ea2f2 f   libcmt:stdexcpt.obj
 0002:0013c307       ??0exception@std@@QAE@ABQBDH@Z 005ea307 f   libcmt:stdexcpt.obj
 0002:0013c32b       ?what@exception@std@@UBEPBDXZ 005ea32b f   libcmt:stdexcpt.obj
 0002:0013c33b       ?_Copy_str@exception@std@@AAEXPBD@Z 005ea33b f   libcmt:stdexcpt.obj
 0002:0013c38b       ?_Tidy@exception@std@@AAEXXZ 005ea38b f   libcmt:stdexcpt.obj
 0002:0013c3b0       ??0exception@std@@QAE@ABQBD@Z 005ea3b0 f   libcmt:stdexcpt.obj
 0002:0013c3e0       ??4exception@std@@QAEAAV01@ABV01@@Z 005ea3e0 f   libcmt:stdexcpt.obj
 0002:0013c422       ??1exception@std@@UAE@XZ   005ea422 f   libcmt:stdexcpt.obj
 0002:0013c42f       ??0bad_cast@std@@QAE@PBD@Z 005ea42f f   libcmt:stdexcpt.obj
 0002:0013c454       ??1bad_cast@std@@UAE@XZ    005ea454 f   libcmt:stdexcpt.obj
 0002:0013c461       ??0bad_typeid@std@@QAE@PBD@Z 005ea461 f   libcmt:stdexcpt.obj
 0002:0013c486       ??1bad_typeid@std@@UAE@XZ  005ea486 f   libcmt:stdexcpt.obj
 0002:0013c493       ??0__non_rtti_object@std@@QAE@PBD@Z 005ea493 f   libcmt:stdexcpt.obj
 0002:0013c4b7       ??1__non_rtti_object@std@@UAE@XZ 005ea4b7 f   libcmt:stdexcpt.obj
 0002:0013c4c4       ??_Eexception@std@@UAEPAXI@Z 005ea4c4 f i libcmt:stdexcpt.obj
 0002:0013c4c4       ??_Gexception@std@@UAEPAXI@Z 005ea4c4 f i libcmt:stdexcpt.obj
 0002:0013c4f4       ??0exception@std@@QAE@ABV01@@Z 005ea4f4 f   libcmt:stdexcpt.obj
 0002:0013c522       ??_Gbad_cast@std@@UAEPAXI@Z 005ea522 f i libcmt:stdexcpt.obj
 0002:0013c522       ??_Ebad_cast@std@@UAEPAXI@Z 005ea522 f i libcmt:stdexcpt.obj
 0002:0013c552       ??0bad_cast@std@@QAE@ABV01@@Z 005ea552 f   libcmt:stdexcpt.obj
 0002:0013c576       ??_Ebad_typeid@std@@UAEPAXI@Z 005ea576 f i libcmt:stdexcpt.obj
 0002:0013c576       ??_Gbad_typeid@std@@UAEPAXI@Z 005ea576 f i libcmt:stdexcpt.obj
 0002:0013c5a6       ??0bad_typeid@std@@QAE@ABV01@@Z 005ea5a6 f   libcmt:stdexcpt.obj
 0002:0013c5ca       ??_G__non_rtti_object@std@@UAEPAXI@Z 005ea5ca f i libcmt:stdexcpt.obj
 0002:0013c5ca       ??_E__non_rtti_object@std@@UAEPAXI@Z 005ea5ca f i libcmt:stdexcpt.obj
 0002:0013c5fa       ??0__non_rtti_object@std@@QAE@ABV01@@Z 005ea5fa f   libcmt:stdexcpt.obj
 0002:0013c61e       ?name@type_info@@QBEPBDPAU__type_info_node@@@Z 005ea61e f   libcmt:typinfo.obj
 0002:0013c637       ??1type_info@@UAE@XZ       005ea637 f   libcmt:typinfo.obj
 0002:0013c64b       ??_Gtype_info@@UAEPAXI@Z   005ea64b f i libcmt:typinfo.obj
 0002:0013c64b       ??_Etype_info@@UAEPAXI@Z   005ea64b f i libcmt:typinfo.obj
 0002:0013c674       ?_name_internal_method@type_info@@QBEPBDPAU__type_info_node@@@Z 005ea674 f   libcmt:typinfo.obj
 0002:0013c68d       ?_type_info_dtor_internal_method@type_info@@QAEXXZ 005ea68d f   libcmt:typinfo.obj
 0002:0013c699       ??8type_info@@QBE_NABV0@@Z 005ea699 f   libcmt:typinfo.obj
 0002:0013c6c1       ??9type_info@@QBE_NABV0@@Z 005ea6c1 f   libcmt:typinfo.obj
 0002:0013c6ea       ?before@type_info@@QBEHABV1@@Z 005ea6ea f   libcmt:typinfo.obj
 0002:0013c717       ?raw_name@type_info@@QBEPBDXZ 005ea717 f   libcmt:typinfo.obj
 0002:0013c71b       ??0type_info@@AAE@ABV0@@Z  005ea71b f   libcmt:typinfo.obj
 0002:0013c728       ??4type_info@@AAEAAV0@ABV0@@Z 005ea728 f   libcmt:typinfo.obj
 0002:0013c810       ___onexitinit              005ea810 f   libcmt:onexit.obj
 0002:0013c84d       __onexit                   005ea84d f   libcmt:onexit.obj
 0002:0013c898       _atexit                    005ea898 f   libcmt:onexit.obj
 0002:0013c8b4       __initp_heap_handler       005ea8b4 f   libcmt:handler.obj
 0002:0013c8c6       ?_set_new_handler@@YAP6AHI@ZP6AHI@Z@Z 005ea8c6 f   libcmt:handler.obj
 0002:0013c90a       ?_set_new_handler@@YAP6AHI@ZH@Z 005ea90a f   libcmt:handler.obj
 0002:0013c915       ?_query_new_handler@@YAP6AHI@ZXZ 005ea915 f   libcmt:handler.obj
 0002:0013c925       __callnewh                 005ea925 f   libcmt:handler.obj
 0002:0013c957       __CxxThrowException@8      005ea957 f   libcmt:throw.obj
 0002:0013c9b6       __close_nolock             005ea9b6 f   libcmt:close.obj
 0002:0013ca79       __close                    005eaa79 f   libcmt:close.obj
 0002:0013cb6e       __fileno                   005eab6e f   libcmt:fileno.obj
 0002:0013cb9d       __freebuf                  005eab9d f   libcmt:_freebuf.obj
 0002:0013cbda       __flush                    005eabda f   libcmt:fflush.obj
 0002:0013cc5c       __fflush_nolock            005eac5c f   libcmt:fflush.obj
 0002:0013cdc6       _fflush                    005eadc6 f   libcmt:fflush.obj
 0002:0013ce2d       __flushall                 005eae2d f   libcmt:fflush.obj
 0002:0013ce38       ___iob_func                005eae38 f   libcmt:_file.obj
 0002:0013ce3e       ___initstdio               005eae3e f   libcmt:_file.obj
 0002:0013cf1b       ___endstdio                005eaf1b f   libcmt:_file.obj
 0002:0013cf43       __lock_file                005eaf43 f   libcmt:_file.obj
 0002:0013cf94       __lock_file2               005eaf94 f   libcmt:_file.obj
 0002:0013cfd2       __unlock_file              005eafd2 f   libcmt:_file.obj
 0002:0013d01d       __unlock_file2             005eb01d f   libcmt:_file.obj
 0002:0013d060       __SEH_prolog4              005eb060 f   libcmt:sehprolg4.obj
 0002:0013d0a5       __SEH_epilog4              005eb0a5 f   libcmt:sehprolg4.obj
 0002:0013d100       __except_handler4          005eb100 f   libcmt:chandler4.obj
 0002:0013d2f2       __openfile                 005eb2f2 f   libcmt:_open.obj
 0002:0013d62e       __getstream                005eb62e f   libcmt:stream.obj
 0002:0013d7b0       __local_unwind4            005eb7b0 f   libcmt:exsup4.obj
 0002:0013d886       __seh_longjmp_unwind4@4    005eb886 f   libcmt:exsup4.obj
 0002:0013d8a2       @_EH4_CallFilterFunc@8     005eb8a2 f   libcmt:exsup4.obj
 0002:0013d8b9       @_EH4_TransferToHandler@8  005eb8b9 f   libcmt:exsup4.obj
 0002:0013d8d2       @_EH4_GlobalUnwind2@8      005eb8d2 f   libcmt:exsup4.obj
 0002:0013d8eb       @_EH4_LocalUnwind@16       005eb8eb f   libcmt:exsup4.obj
 0002:0013d956       __VEC_memcpy               005eb956 f   libcmt:p4_memcpy.obj
 0002:0013da99       __VEC_memzero              005eba99 f   libcmt:p4_memset.obj
 0002:0013db81       __write_nolock             005ebb81 f   libcmt:write.obj
 0002:0013e43d       __write                    005ec43d f   libcmt:write.obj
 0002:0013e546       __mbsnbicoll_l             005ec546 f   libcmt:mbsnbico.obj
 0002:0013e65b       __mbsnbicoll               005ec65b f   libcmt:mbsnbico.obj
 0002:0013e67b       ___wtomb_environ           005ec67b f   libcmt:wtombenv.obj
 0002:0013e737       ___crtCorExitProcess       005ec737 f   libcmt:crt0dat.obj
 0002:0013e76c       ___crtExitProcess          005ec76c f   libcmt:crt0dat.obj
 0002:0013e78a       __lockexit                 005ec78a f   libcmt:crt0dat.obj
 0002:0013e795       __unlockexit               005ec795 f   libcmt:crt0dat.obj
 0002:0013e7a0       __init_pointers            005ec7a0 f   libcmt:crt0dat.obj
 0002:0013e803       __initterm_e               005ec803 f   libcmt:crt0dat.obj
 0002:0013e830       __get_wpgmptr              005ec830 f   libcmt:crt0dat.obj
 0002:0013e86c       __get_pgmptr               005ec86c f   libcmt:crt0dat.obj
 0002:0013e8a8       __cinit                    005ec8a8 f   libcmt:crt0dat.obj
 0002:0013eaf4       _exit                      005ecaf4 f   libcmt:crt0dat.obj
 0002:0013eb0f       __exit                     005ecb0f f   libcmt:crt0dat.obj
 0002:0013eb2a       __cexit                    005ecb2a f   libcmt:crt0dat.obj
 0002:0013eb3c       __c_exit                   005ecb3c f   libcmt:crt0dat.obj
 0002:0013eb4e       __amsg_exit                005ecb4e f   libcmt:crt0dat.obj
 0002:0013eb73       _strcpy_s                  005ecb73 f   libcmt:strcpy_s.obj
 0002:0013ebe9       _calloc                    005ecbe9 f   libcmt:calloc.obj
 0002:0013ec39       __mtinitlocks              005ecc39 f   libcmt:mlock.obj
 0002:0013ec95       __mtdeletelocks            005ecc95 f   libcmt:mlock.obj
 0002:0013ed01       __unlock                   005ecd01 f   libcmt:mlock.obj
 0002:0013ed1d       __lockerr_exit             005ecd1d f   libcmt:mlock.obj
 0002:0013ed3b       __mtinitlocknum            005ecd3b f   libcmt:mlock.obj
 0002:0013ee2d       __lock                     005ece2d f   libcmt:mlock.obj
 0002:0013ee6c       _strnlen                   005ece6c f   libcmt:strlen_s.obj
 0002:0013ee90       __filbuf                   005ece90 f   libcmt:_filbuf.obj
 0002:0013effa       __read_nolock              005ecffa f   libcmt:read.obj
 0002:0013f71e       __read                     005ed71e f   libcmt:read.obj
 0002:0013f851       _memcpy_s                  005ed851 f   libcmt:memcpy_s.obj
 0002:0013f8f0       __CIcos_pentium4           005ed8f0 f   libcmt:_cos_pentium4_.obj
 0002:0013f908       __cos_pentium4             005ed908     libcmt:_cos_pentium4_.obj
 0002:0013fb10       __CIsin_pentium4           005edb10 f   libcmt:_sin_pentium4_.obj
 0002:0013fb28       __sin_pentium4             005edb28     libcmt:_sin_pentium4_.obj
 0002:0013fd4a       __ioinit                   005edd4a f   libcmt:ioinit.obj
 0002:00140020       __ioterm                   005ee020 f   libcmt:ioinit.obj
 0002:00140087       __stbuf                    005ee087 f   libcmt:_sftbuf.obj
 0002:0014014a       __ftbuf                    005ee14a f   libcmt:_sftbuf.obj
 0002:00140440       _strtol                    005ee440 f   libcmt:strtol.obj
 0002:00140475       __strtol_l                 005ee475 f   libcmt:strtol.obj
 0002:00140499       _strtoul                   005ee499 f   libcmt:strtol.obj
 0002:001404d0       __strtoul_l                005ee4d0 f   libcmt:strtol.obj
 0002:00140838       __strtoi64                 005ee838 f   libcmt:strtoq.obj
 0002:0014086d       __strtoi64_l               005ee86d f   libcmt:strtoq.obj
 0002:00140891       __strtoui64                005ee891 f   libcmt:strtoq.obj
 0002:001408c8       __strtoui64_l              005ee8c8 f   libcmt:strtoq.obj
 0002:001408ec       __GET_RTERRMSG             005ee8ec f   libcmt:crt0msg.obj
 0002:0014091b       __NMSG_WRITE               005ee91b f   libcmt:crt0msg.obj
 0002:00140b35       __FF_MSGBANNER             005eeb35 f   libcmt:crt0msg.obj
 0002:00140b7c       __heap_init                005eeb7c f   libcmt:heapinit.obj
 0002:00140ba1       __heap_term                005eeba1 f   libcmt:heapinit.obj
 0002:00140bba       __get_heap_handle          005eebba f   libcmt:heapinit.obj
 0002:00140bc0       __lseek_nolock             005eebc0 f   libcmt:lseek.obj
 0002:00140c52       __lseek                    005eec52 f   libcmt:lseek.obj
 0002:00140d5b       __ftell_nolock             005eed5b f   libcmt:ftell.obj
 0002:00140f54       _ftell                     005eef54 f   libcmt:ftell.obj
 0002:001411a6       ?_RTC_GetSrcLine@@YAHPAEPA_WKPAH1K@Z 005ef1a6 f   libcmt:_pdblkup_.obj
 0002:001414e0       __CIatan_pentium4          005ef4e0 f   libcmt:_atan_pentium4_.obj
 0002:001414f8       __atan_pentium4            005ef4f8     libcmt:_atan_pentium4_.obj
 0002:00141890       __CItan_pentium4           005ef890 f   libcmt:_tan_pentium4_.obj
 0002:001418a8       __tan_pentium4             005ef8a8     libcmt:_tan_pentium4_.obj
 0002:00141b88       __raise_exc_ex             005efb88 f   libcmt:_fpexcept_.obj
 0002:00141f1b       __raise_exc                005eff1b f   libcmt:_fpexcept_.obj
 0002:00141f46       __raise_excf               005eff46 f   libcmt:_fpexcept_.obj
 0002:00141f71       __handle_exc               005eff71 f   libcmt:_fpexcept_.obj
 0002:001421ce       __set_errno_from_matherr   005f01ce f   libcmt:_fpexcept_.obj
 0002:00142235       __errcode                  005f0235 f   libcmt:_fpexcept_.obj
 0002:00142276       __umatherr                 005f0276 f   libcmt:_fpexcept_.obj
 0002:0014233e       __handle_qnan1             005f033e f   libcmt:_fpexcept_.obj
 0002:001423a8       __handle_qnan2             005f03a8 f   libcmt:_fpexcept_.obj
 0002:00142421       __except1                  005f0421 f   libcmt:_fpexcept_.obj
 0002:0014251d       __except2                  005f051d f   libcmt:_fpexcept_.obj
 0002:0014262d       __set_exp                  005f062d f   libcmt:_util_.obj
 0002:00142665       __get_exp                  005f0665 f   libcmt:_util_.obj
 0002:00142684       __add_exp                  005f0684 f   libcmt:_util_.obj
 0002:001426bd       __set_bexp                 005f06bd f   libcmt:_util_.obj
 0002:001426ef       __sptype                   005f06ef f   libcmt:_util_.obj
 0002:0014276e       __decomp                   005f076e f   libcmt:_util_.obj
 0002:00142861       __statfp                   005f0861 f   libcmt:_fpctrl_.obj
 0002:00142875       __clrfp                    005f0875 f   libcmt:_fpctrl_.obj
 0002:0014288a       __ctrlfp                   005f088a f   libcmt:_fpctrl_.obj
 0002:001428bf       __set_statfp               005f08bf f   libcmt:_fpctrl_.obj
 0002:0014292d       ___get_fpsr_sse2           005f092d f   libcmt:_fpctrl_.obj
 0002:00142952       ___set_fpsr_sse2           005f0952 f   libcmt:_fpctrl_.obj
 0002:001429e0       ___fclrf_sse2              005f09e0 f   libcmt:_fpctrl_.obj
 0002:00142a04       ___statfp_sse2             005f0a04 f   libcmt:_fpctrl_.obj
 0002:00142a1b       ___clrfp_sse2              005f0a1b f   libcmt:_fpctrl_.obj
 0002:00142a39       ___ctrlfp_sse2             005f0a39 f   libcmt:_fpctrl_.obj
 0002:00142a7d       ___set_statfp_sse2         005f0a7d f   libcmt:_fpctrl_.obj
 0002:00142a9e       __fullpath                 005f0a9e f   libcmt:fullpath.obj
 0002:00142bd2       ___dtoxmode                005f0bd2 f   libcmt:stat.obj
 0002:00142dce       __stat32                   005f0dce f   libcmt:stat.obj
 0002:00143302       __fstat64i32               005f1302 f   libcmt:fstati32.obj
 0002:00144029       __open                     005f2029 f   libcmt:open.obj
 0002:00144102       __sopen_helper             005f2102 f   libcmt:open.obj
 0002:001441f7       __sopen                    005f21f7 f   libcmt:open.obj
 0002:00144235       __sopen_s                  005f2235 f   libcmt:open.obj
 0002:0014425d       ___loctotime64_t           005f225d f   libcmt:dtoxtm64.obj
 0002:0014455d       __getdrive                 005f255d f   libcmt:drive.obj
 0002:0014465e       __chdrive                  005f265e f   libcmt:drive.obj
 0002:00144721       __mbctolower_l             005f2721 f   libcmt:mbtolwr.obj
 0002:001447f0       __mbctolower               005f27f0 f   libcmt:mbtolwr.obj
 0002:00144807       __mbspbrk_l                005f2807 f   libcmt:mbspbrk.obj
 0002:001448fd       __mbspbrk                  005f28fd f   libcmt:mbspbrk.obj
 0002:00144919       ?__CxxUnhandledExceptionFilter@@YGJPAU_EXCEPTION_POINTERS@@@Z 005f2919 f   libcmt:unhandld.obj
 0002:0014496b       ___CxxSetUnhandledExceptionFilter 005f296b f   libcmt:unhandld.obj
 0002:001449ab       __XcptFilter               005f29ab f   libcmt:winxfltr.obj
 0002:00144b47       ___CppXcptFilter           005f2b47 f   libcmt:winxfltr.obj
 0002:00144b6f       __wincmdln                 005f2b6f f   libcmt:wincmdln.obj
 0002:00144be5       __setenvp                  005f2be5 f   libcmt:stdenvp.obj
 0002:00144cf8       __set_pgmptr               005f2cf8 f i libcmt:stdargv.obj
 0002:00144f0a       __setargv                  005f2f0a f   libcmt:stdargv.obj
 0002:00144ff3       ___crtGetEnvironmentStringsA 005f2ff3 f   libcmt:a_env.obj
 0002:001450af       __RTC_Initialize           005f30af f   libcmt:_initsect_.obj
 0002:001450de       __RTC_Terminate            005f30de f   libcmt:_initsect_.obj
 0002:0014510d       ___security_init_cookie    005f310d f   libcmt:gs_support.obj
 0002:001451d0       _strrchr                   005f31d0 f   libcmt:strrchr.obj
 0002:00145208       __atodbl_l                 005f3208 f   libcmt:atodbl.obj
 0002:001452da       __atodbl                   005f32da f   libcmt:atodbl.obj
 0002:001452f6       __atoldbl_l                005f32f6 f   libcmt:atodbl.obj
 0002:001453c9       __atoldbl                  005f33c9 f   libcmt:atodbl.obj
 0002:001453e5       __atoflt_l                 005f33e5 f   libcmt:atodbl.obj
 0002:001454b7       __atoflt                   005f34b7 f   libcmt:atodbl.obj
 0002:001454d3       __set_output_format        005f34d3 f   libcmt:outputformat.obj
 0002:00145511       __get_output_format        005f3511 f   libcmt:outputformat.obj
 0002:00145517       __fptostr                  005f3517 f   libcmt:_fptostr.obj
 0002:001455f6       ___dtold                   005f35f6 f   libcmt:_cfout_.obj
 0002:001456d5       __fltout2                  005f36d5 f   libcmt:_cfout_.obj
 0002:00145790       __alldvrm                  005f3790 f   libcmt:lldvrm.obj
 0002:001458b0       __aullshr                  005f38b0 f   libcmt:ullshr.obj
 0002:001458d6       __fptrap                   005f38d6 f   libcmt:crt0fp.obj
 0002:001458e1       __controlfp_s              005f38e1 f   libcmt:_contrlfp_.obj
 0002:00145957       __lseeki64_nolock          005f3957 f   libcmt:lseeki64.obj
 0002:001459fd       __lseeki64                 005f39fd f   libcmt:lseeki64.obj
 0002:00145b21       __getbuf                   005f3b21 f   libcmt:_getbuf.obj
 0002:00145b7c       __isatty                   005f3b7c f   libcmt:isatty.obj
 0002:00145be7       _wait_a_bit                005f3be7 f i libcmt:crtheap.obj
 0002:00145c16       __set_malloc_crt_max_wait  005f3c16 f   libcmt:crtheap.obj
 0002:00145c30       __malloc_crt               005f3c30 f   libcmt:crtheap.obj
 0002:00145c86       __calloc_crt               005f3c86 f   libcmt:crtheap.obj
 0002:00145ce5       __realloc_crt              005f3ce5 f   libcmt:crtheap.obj
 0002:00145d46       __recalloc_crt             005f3d46 f   libcmt:crtheap.obj
 0002:00145dac       _printf                    005f3dac f   libcmt:printf.obj
 0002:00145e7c       __printf_l                 005f3e7c f   libcmt:printf.obj
 0002:00145e9b       __printf_s_l               005f3e9b f   libcmt:printf.obj
 0002:00145eba       _printf_s                  005f3eba f   libcmt:printf.obj
 0002:00145ed8       __printf_p_l               005f3ed8 f   libcmt:printf.obj
 0002:00145ef7       __printf_p                 005f3ef7 f   libcmt:printf.obj
 0002:00145f15       __set_printf_count_output  005f3f15 f   libcmt:printf.obj
 0002:00145f49       __get_printf_count_output  005f3f49 f   libcmt:printf.obj
 0002:00145f64       __wctomb_s_l               005f3f64 f   libcmt:wctomb.obj
 0002:0014610e       _wctomb_s                  005f410e f   libcmt:wctomb.obj
 0002:00146132       __wctomb_l                 005f4132 f   libcmt:wctomb.obj
 0002:00146197       _wctomb                    005f4197 f   libcmt:wctomb.obj
 0002:001461e0       __aulldvrm                 005f41e0 f   libcmt:ulldvrm.obj
 0002:0014629a       __crt_debugger_hook        005f429a f   libcmt:dbghook.obj
 0002:001462a4       __validate_param_reuseA    005f42a4 f   libcmt:outputp.obj
 0002:00146501       _get_crtdouble_arg         005f4501 f i libcmt:outputp.obj
 0002:0014651b       __output_p_l               005f451b f   libcmt:outputp.obj
 0002:00147df0       __output_s_l               005f5df0 f   libcmt:outputs.obj
 0002:00148e51       ___crtGetStringTypeA       005f6e51 f   libcmt:a_str.obj
 0002:0014989f       ___free_lc_time            005f789f f   libcmt:inittime.obj
 0002:00149cf3       ___init_time               005f7cf3 f   libcmt:inittime.obj
 0002:00149dcb       ___free_lconv_num          005f7dcb f   libcmt:initnum.obj
 0002:00149e4e       ___init_numeric            005f7e4e f   libcmt:initnum.obj
 0002:0014a0f6       ___free_lconv_mon          005f80f6 f   libcmt:initmon.obj
 0002:0014a233       ___init_monetary           005f8233 f   libcmt:initmon.obj
 0002:0014a66b       _localeconv                005f866b f   libcmt:lconv.obj
 0002:0014a69a       ___pwctype_func            005f869a f   libcmt:ctype.obj
 0002:0014a6a0       ___pctype_func             005f86a0 f   libcmt:ctype.obj
 0002:0014a6d3       __ZeroTail                 005f86d3 f i libcmt:_intrncvt_.obj
 0002:0014a72e       __IncMan                   005f872e f i libcmt:_intrncvt_.obj
 0002:0014a7b6       __RoundMan                 005f87b6 f i libcmt:_intrncvt_.obj
 0002:0014a8dd       __CopyMan                  005f88dd f i libcmt:_intrncvt_.obj
 0002:0014a903       __FillZeroMan              005f8903 f i libcmt:_intrncvt_.obj
 0002:0014a918       __IsZeroMan                005f8918 f i libcmt:_intrncvt_.obj
 0002:0014a93e       __ShrMan                   005f893e f i libcmt:_intrncvt_.obj
 0002:0014a9fc       __ld12cvt                  005f89fc f i libcmt:_intrncvt_.obj
 0002:0014b09e       __ld12tod                  005f909e f   libcmt:_intrncvt_.obj
 0002:0014b743       __ld12tof                  005f9743 f   libcmt:_intrncvt_.obj
 0002:0014bde8       __ld12told                 005f9de8 f   libcmt:_intrncvt_.obj
 0002:0014befc       ___add_12                  005f9efc f i libcmt:_mantold_.obj
 0002:0014bf89       ___mtold12                 005f9f89 f   libcmt:_mantold_.obj
 0002:0014c1e6       ___init_ctype              005fa1e6 f   libcmt:initctyp.obj
 0002:0014c676       ____mb_cur_max_func        005fa676 f   libcmt:initctyp.obj
 0002:0014c6a9       ____mb_cur_max_l_func      005fa6a9 f   libcmt:initctyp.obj
 0002:0014c6cc       ____lc_codepage_func       005fa6cc f   libcmt:initctyp.obj
 0002:0014c6fb       ____lc_collate_cp_func     005fa6fb f   libcmt:initctyp.obj
 0002:0014c72a       ____lc_handle_func         005fa72a f   libcmt:initctyp.obj
 0002:0014c759       ___init_collate            005fa759 f   libcmt:initcoll.obj
 0002:0014c75c       _strcat_s                  005fa75c f   libcmt:strcat_s.obj
 0002:0014c7f0       _strcspn                   005fa7f0 f   libcmt:strcspn.obj
 0002:0014c847       _strncpy_s                 005fa847 f   libcmt:strncpy_s.obj
 0002:0014d065       ___get_qualified_locale    005fb065 f   libcmt:getqloc.obj
 0002:0014d2e0       _strpbrk                   005fb2e0 f   libcmt:strpbrk.obj
 0002:0014d330       __alloca_probe_16          005fb330 f   libcmt:alloca16.obj
 0002:0014d346       __alloca_probe_8           005fb346     libcmt:alloca16.obj
 0002:0014d367       _iswctype                  005fb367 f   libcmt:iswctype.obj
 0002:0014d3d1       _is_wctype                 005fb3d1 f   libcmt:iswctype.obj
 0002:0014d3de       __iswctype_l               005fb3de f   libcmt:iswctype.obj
 0002:0014d3f7       __matherr                  005fb3f7 f   libcmt:_matherr_.obj
 0002:0014d3fa       __frnd                     005fb3fa f   libcmt:_frnd_.obj
 0002:0014d413       __87except                 005fb413 f   libcmt:_87except_.obj
 0002:0014d5b0       __allmul                   005fb5b0 f   libcmt:llmul.obj
 0002:0014d5f1       ?_Type_info_dtor@type_info@@CAXPAV1@@Z 005fb5f1 f   libcmt:typname.obj
 0002:0014d67d       ?_Name_base@type_info@@CAPBDPBV1@PAU__type_info_node@@@Z 005fb67d f   libcmt:typname.obj
 0002:0014d7ab       ?_Type_info_dtor_internal@type_info@@CAXPAV1@@Z 005fb7ab f   libcmt:typname.obj
 0002:0014d837       ___unDNameHelper           005fb837 f   libcmt:typname.obj
 0002:0014d876       ?_Name_base_internal@type_info@@CAPBDPBV1@PAU__type_info_node@@@Z 005fb876 f   libcmt:typname.obj
 0002:0014d9c5       ___clean_type_info_names_internal 005fb9c5 f   libcmt:typname.obj
 0002:0014da2c       __msize                    005fba2c f   libcmt:msize.obj
 0002:0014da6b       __set_osfhnd               005fba6b f   libcmt:osfinfo.obj
 0002:0014db0c       __free_osfhnd              005fbb0c f   libcmt:osfinfo.obj
 0002:0014dbb3       __get_osfhandle            005fbbb3 f   libcmt:osfinfo.obj
 0002:0014dc36       ___lock_fhandle            005fbc36 f   libcmt:osfinfo.obj
 0002:0014dcfc       __unlock_fhandle           005fbcfc f   libcmt:osfinfo.obj
 0002:0014dd2c       __alloc_osfhnd             005fbd2c f   libcmt:osfinfo.obj
 0002:0014df2b       __open_osfhandle           005fbf2b f   libcmt:osfinfo.obj
 0002:0014e086       __commit                   005fc086 f   libcmt:commit.obj
 0002:0014e195       __fcloseall                005fc195 f   libcmt:closeall.obj
 0002:0014e260       __ValidateImageBase        005fc260 f   libcmt:pesect.obj
 0002:0014e2b0       __FindPESection            005fc2b0 f   libcmt:pesect.obj
 0002:0014e310       __IsNonwritableInCurrentImage 005fc310 f   libcmt:pesect.obj
 0002:0014e3fb       __mbsnbicmp_l              005fc3fb f   libcmt:mbsnbicm.obj
 0002:0014e680       __mbsnbicmp                005fc680 f   libcmt:mbsnbicm.obj
 0002:0014e6a0       __mbsnbcmp_l               005fc6a0 f   libcmt:mbsnbcmp.obj
 0002:0014e83f       __mbsnbcmp                 005fc83f f   libcmt:mbsnbcmp.obj
 0002:0014e860       __global_unwind2           005fc860 f   libcmt:exsup.obj
 0002:0014e8c5       __local_unwind2            005fc8c5 f   libcmt:exsup.obj
 0002:0014e949       __abnormal_termination     005fc949 f   libcmt:exsup.obj
 0002:0014e96c       __NLG_Notify1              005fc96c f   libcmt:exsup.obj
 0002:0014e975       __NLG_Notify               005fc975 f   libcmt:exsup.obj
 0002:0014e98c       __NLG_Dispatch             005fc98c     libcmt:exsup.obj
 0002:0014e98c       __NLG_Dispatch2            005fc98c     libcmt:exsup.obj
 0002:0014e994       __NLG_Call                 005fc994 f   libcmt:exsup.obj
 0002:0014e996       __NLG_Return2              005fc996     libcmt:exsup.obj
 0002:0014e9e4       __putwch_nolock            005fc9e4 f   libcmt:putwch.obj
 0002:0014ea36       __putwch                   005fca36 f   libcmt:putwch.obj
 0002:0014ea8d       __mbtowc_l                 005fca8d f   libcmt:mbtowc.obj
 0002:0014ebe8       _mbtowc                    005fcbe8 f   libcmt:mbtowc.obj
 0002:0014ef36       ___crtCompareStringA       005fcf36 f   libcmt:a_cmp.obj
 0002:0014ef88       __strnicoll_l              005fcf88 f   libcmt:strnicol.obj
 0002:0014f0ac       __strnicoll                005fd0ac f   libcmt:strnicol.obj
 0002:0014f1bd       ___crtsetenv               005fd1bd f   libcmt:setenv.obj
 0002:0014f48f       ?terminate@@YAXXZ          005fd48f f   libcmt:hooks.obj
 0002:0014f4d6       ?unexpected@@YAXXZ         005fd4d6 f   libcmt:hooks.obj
 0002:0014f4ed       ?_inconsistency@@YAXXZ     005fd4ed f   libcmt:hooks.obj
 0002:0014f533       __initp_eh_hooks           005fd533 f   libcmt:hooks.obj
 0002:0014f548       __initp_misc_winsig        005fd548 f   libcmt:winsig.obj
 0002:0014f674       ___get_sigabrt             005fd674 f   libcmt:winsig.obj
 0002:0014f684       ___fpecode                 005fd684 f   libcmt:winsig.obj
 0002:0014f68f       ___pxcptinfoptrs           005fd68f f   libcmt:winsig.obj
 0002:0014f69a       _signal                    005fd69a f   libcmt:winsig.obj
 0002:0014f96a       _raise                     005fd96a f   libcmt:winsig.obj
 0002:0014fb75       __initp_misc_rand_s        005fdb75 f   libcmt:rand_s.obj
 0002:0014fb87       _rand_s                    005fdb87 f   libcmt:rand_s.obj
 0002:0014fcb3       ___getlocaleinfo           005fdcb3 f   libcmt:inithelp.obj
 0002:0014feca       __initp_misc_purevirt      005fdeca f   libcmt:inithelp.obj
 0002:0014fedc       __calloc_impl              005fdedc f   libcmt:calloc_impl.obj
 0002:0014ff7e       ___crtMessageBoxW          005fdf7e f   libcmt:crtmboxw.obj
 0002:00150145       _wcscat_s                  005fe145 f   libcmt:wcscat_s.obj
 0002:001501d7       _wcsncpy_s                 005fe1d7 f   libcmt:wcsncpy_s.obj
 0002:001502d7       _wcslen                    005fe2d7 f   libcmt:wcslen.obj
 0002:001502f8       _wcscpy_s                  005fe2f8 f   libcmt:wcscpy_s.obj
 0002:00150373       __set_error_mode           005fe373 f   libcmt:errmode.obj
 0002:001503c1       ___set_app_type            005fe3c1 f   libcmt:errmode.obj
 0002:001503d3       __validdrive               005fe3d3 f   libcmt:getcwd.obj
 0002:00150443       __getdcwd_nolock           005fe443 f   libcmt:getcwd.obj
 0002:001505b0       __getcwd                   005fe5b0 f   libcmt:getcwd.obj
 0002:0015060b       __getdcwd                  005fe60b f   libcmt:getcwd.obj
 0002:00150667       __mbsicmp_l                005fe667 f   libcmt:mbsicmp.obj
 0002:001508db       __mbsicmp                  005fe8db f   libcmt:mbsicmp.obj
 0002:001508f7       __mbsrchr_l                005fe8f7 f   libcmt:mbsrchr.obj
 0002:001509cb       __mbsrchr                  005fe9cb f   libcmt:mbsrchr.obj
 0002:001509e7       __fstat32                  005fe9e7 f   libcmt:fstat.obj
 0002:00150dde       ___loctotime32_t           005fedde f   libcmt:dtoxtime.obj
 0002:00151070       __SEH_prolog4_GS           005ff070 f   libcmt:sehprolg4gs.obj
 0002:001510b8       __SEH_epilog4_GS           005ff0b8 f   libcmt:sehprolg4gs.obj
 0002:001510dc       __chsize_nolock            005ff0dc f   libcmt:chsize.obj
 0002:001512ff       __chsize_s                 005ff2ff f   libcmt:chsize.obj
 0002:0015141f       __chsize                   005ff41f f   libcmt:chsize.obj
 0002:00151442       __setmode_nolock           005ff442 f   libcmt:setmode.obj
 0002:0015152b       __set_fmode                005ff52b f   libcmt:setmode.obj
 0002:0015157d       __get_fmode                005ff57d f   libcmt:setmode.obj
 0002:001515b5       __setmode                  005ff5b5 f   libcmt:setmode.obj
 0002:00151741       __ismbbkalnum_l            005ff741 f   libcmt:ismbbyte.obj
 0002:00151760       __ismbbkalnum              005ff760 f   libcmt:ismbbyte.obj
 0002:0015177e       __ismbbkprint_l            005ff77e f   libcmt:ismbbyte.obj
 0002:0015179d       __ismbbkprint              005ff79d f   libcmt:ismbbyte.obj
 0002:001517bb       __ismbbkpunct_l            005ff7bb f   libcmt:ismbbyte.obj
 0002:001517da       __ismbbkpunct              005ff7da f   libcmt:ismbbyte.obj
 0002:001517f8       __ismbbalnum_l             005ff7f8 f   libcmt:ismbbyte.obj
 0002:0015181b       __ismbbalnum               005ff81b f   libcmt:ismbbyte.obj
 0002:0015183c       __ismbbalpha_l             005ff83c f   libcmt:ismbbyte.obj
 0002:0015185f       __ismbbalpha               005ff85f f   libcmt:ismbbyte.obj
 0002:00151880       __ismbbgraph_l             005ff880 f   libcmt:ismbbyte.obj
 0002:001518a3       __ismbbgraph               005ff8a3 f   libcmt:ismbbyte.obj
 0002:001518c4       __ismbbprint_l             005ff8c4 f   libcmt:ismbbyte.obj
 0002:001518e7       __ismbbprint               005ff8e7 f   libcmt:ismbbyte.obj
 0002:00151908       __ismbbpunct_l             005ff908 f   libcmt:ismbbyte.obj
 0002:00151927       __ismbbpunct               005ff927 f   libcmt:ismbbyte.obj
 0002:00151945       __ismbblead_l              005ff945 f   libcmt:ismbbyte.obj
 0002:00151964       __ismbblead                005ff964 f   libcmt:ismbbyte.obj
 0002:00151982       __ismbbtrail_l             005ff982 f   libcmt:ismbbyte.obj
 0002:001519a1       __ismbbtrail               005ff9a1 f   libcmt:ismbbyte.obj
 0002:001519bf       __ismbbkana_l              005ff9bf f   libcmt:ismbbyte.obj
 0002:00151a29       __ismbbkana                005ffa29 f   libcmt:ismbbyte.obj
 0002:00151a40       _$I10_OUTPUT               005ffa40 f   libcmt:_x10fout_.obj
 0002:00152576       __set_controlfp            00600576 f   libcmt:_ieee87_.obj
 0002:001529c1       __statusfp                 006009c1 f   libcmt:_ieee87_.obj
 0002:00152a77       __fpreset                  00600a77 f   libcmt:_ieee87_.obj
 0002:00152d3d       __statusfp2                00600d3d f   libcmt:_ieee87_.obj
 0002:00152dad       __clearfp                  00600dad f   libcmt:_ieee87_.obj
 0002:00152ebc       ___control87_2             00600ebc f   libcmt:_ieee87_.obj
 0002:00153298       __control87                00601298 f i libcmt:_ieee87_.obj
 0002:0015366e       __controlfp                0060166e f   libcmt:_ieee87_.obj
 0002:00153a48       _realloc                   00601a48 f   libcmt:realloc.obj
 0002:00153b20       __recalloc                 00601b20 f   libcmt:recalloc.obj
 0002:00153ba9       _vprintf_helper            00601ba9 f   libcmt:vprintf.obj
 0002:00153c4f       __vprintf_l                00601c4f f   libcmt:vprintf.obj
 0002:00153c73       __vprintf_s_l              00601c73 f   libcmt:vprintf.obj
 0002:00153c97       __vprintf_p_l              00601c97 f   libcmt:vprintf.obj
 0002:00153cbb       _vprintf                   00601cbb f   libcmt:vprintf.obj
 0002:00153cde       _vprintf_s                 00601cde f   libcmt:vprintf.obj
 0002:00153d01       __vprintf_p                00601d01 f   libcmt:vprintf.obj
 0002:00153d24       __strnicmp_l               00601d24 f   libcmt:strnicmp.obj
 0002:00153e3e       __strnicmp                 00601e3e f   libcmt:strnicmp.obj
 0002:00153f8d       __itoa_s                   00601f8d f   libcmt:xtoas.obj
 0002:00153fc1       __ltoa_s                   00601fc1 f   libcmt:xtoas.obj
 0002:00153ff1       __ultoa_s                  00601ff1 f   libcmt:xtoas.obj
 0002:00154138       __i64toa_s                 00602138 f   libcmt:xtoas.obj
 0002:0015417a       __ui64toa_s                0060217a f   libcmt:xtoas.obj
 0002:001541a0       ??0Block@_HeapManager@@QAE@XZ 006021a0 f i libcmt:undname.obj
 0002:001541a6       ?Constructor@_HeapManager@@QAEXP6APAXI@ZP6AXPAX@Z@Z 006021a6 f i libcmt:undname.obj
 0002:001541cc       ?Destructor@_HeapManager@@QAEXXZ 006021cc f i libcmt:undname.obj
 0002:001541fe       ?getNumberOfDimensions@UnDecorator@@CAHXZ 006021fe f   libcmt:undname.obj
 0002:00154278       ?getTypeEncoding@UnDecorator@@CAHXZ 00602278 f i libcmt:undname.obj
 0002:00154895       ?doUnderScore@UnDecorator@@SAHXZ 00602895 f i libcmt:undname.obj
 0002:001548a2       ?doMSKeywords@UnDecorator@@SAHXZ 006028a2 f i libcmt:undname.obj
 0002:001548b2       ?doPtr64@UnDecorator@@SAHXZ 006028b2 f i libcmt:undname.obj
 0002:001548c3       ?doFunctionReturns@UnDecorator@@SAHXZ 006028c3 f i libcmt:undname.obj
 0002:001548d4       ?doAllocationModel@UnDecorator@@SAHXZ 006028d4 f i libcmt:undname.obj
 0002:001548e5       ?doAllocationLanguage@UnDecorator@@SAHXZ 006028e5 f i libcmt:undname.obj
 0002:001548f6       ?doThisTypes@UnDecorator@@SAHXZ 006028f6 f i libcmt:undname.obj
 0002:0015490c       ?doAccessSpecifiers@UnDecorator@@SAHXZ 0060290c f i libcmt:undname.obj
 0002:0015491d       ?doThrowTypes@UnDecorator@@SAHXZ 0060291d f i libcmt:undname.obj
 0002:0015492e       ?doMemberTypes@UnDecorator@@SAHXZ 0060292e f i libcmt:undname.obj
 0002:0015493f       ?doNameOnly@UnDecorator@@SAHXZ 0060293f f i libcmt:undname.obj
 0002:0015494c       ?doTypeOnly@UnDecorator@@SAHXZ 0060294c f i libcmt:undname.obj
 0002:00154959       ?haveTemplateParameters@UnDecorator@@SAHXZ 00602959 f i libcmt:undname.obj
 0002:00154966       ?doEcsu@UnDecorator@@SAHXZ 00602966 f i libcmt:undname.obj
 0002:00154977       ?doNoIdentCharCheck@UnDecorator@@SAHXZ 00602977 f i libcmt:undname.obj
 0002:00154984       ?doEllipsis@UnDecorator@@SAHXZ 00602984 f i libcmt:undname.obj
 0002:00154995       ?UScore@UnDecorator@@SAPBDW4Tokens@@@Z 00602995 f   libcmt:undname.obj
 0002:001549bb       ?getMemory@_HeapManager@@QAEPAXIH@Z 006029bb f   libcmt:undname.obj
 0002:00154a65       ??0DName@@QAE@XZ           00602a65 f i libcmt:undname.obj
 0002:00154a7a       ??0DName@@QAE@ABV0@@Z      00602a7a f i libcmt:undname.obj
 0002:00154a98       ?isValid@DName@@QBEHXZ     00602a98 f i libcmt:undname.obj
 0002:00154aa4       ?isEmpty@DName@@QBEHXZ     00602aa4 f i libcmt:undname.obj
 0002:00154aae       ?status@DName@@QBE?AW4DNameStatus@@XZ 00602aae f i libcmt:undname.obj
 0002:00154ab3       ?setPtrRef@DName@@QAEAAV1@XZ 00602ab3 f i libcmt:undname.obj
 0002:00154abf       ?isPtrRef@DName@@QBEHXZ    00602abf f i libcmt:undname.obj
 0002:00154acb       ?isUDC@DName@@QBEHXZ       00602acb f i libcmt:undname.obj
 0002:00154ae0       ?setIsUDC@DName@@QAEXXZ    00602ae0 f i libcmt:undname.obj
 0002:00154af0       ?isUDTThunk@DName@@QBEHXZ  00602af0 f i libcmt:undname.obj
 0002:00154b05       ?setIsArray@DName@@QAEXXZ  00602b05 f i libcmt:undname.obj
 0002:00154b0f       ?isArray@DName@@QBEHXZ     00602b0f f i libcmt:undname.obj
 0002:00154b1b       ?isNoTE@DName@@QBEHXZ      00602b1b f i libcmt:undname.obj
 0002:00154b27       ?setIsNoTE@DName@@QAEXXZ   00602b27 f i libcmt:undname.obj
 0002:00154b31       ?isPinPtr@DName@@QBEHXZ    00602b31 f i libcmt:undname.obj
 0002:00154b3d       ?setIsPinPtr@DName@@QAEXXZ 00602b3d f i libcmt:undname.obj
 0002:00154b47       ?isComArray@DName@@QBEHXZ  00602b47 f i libcmt:undname.obj
 0002:00154b53       ?setIsComArray@DName@@QAEXXZ 00602b53 f i libcmt:undname.obj
 0002:00154b5d       ?isVCallThunk@DName@@QBEHXZ 00602b5d f i libcmt:undname.obj
 0002:00154b69       ?setIsVCallThunk@DName@@QAEXXZ 00602b69 f i libcmt:undname.obj
 0002:00154b73       ?length@DName@@QBEHXZ      00602b73 f i libcmt:undname.obj
 0002:00154b83       ?getLastChar@DName@@QBEDXZ 00602b83 f i libcmt:undname.obj
 0002:00154b94       ?getString@DName@@QBEPADPAD0@Z 00602b94 f i libcmt:undname.obj
 0002:00154bb2       ??_5DName@@QAEAAV0@ABV0@@Z 00602bb2 f   libcmt:undname.obj
 0002:00154bd8       ??4DName@@QAEAAV0@ABV0@@Z  00602bd8 f   libcmt:undname.obj
 0002:00154bf6       ?isFull@Replicator@@QBEHXZ 00602bf6 f i libcmt:undname.obj
 0002:00154c01       ??0Replicator@@QAE@XZ      00602c01 f i libcmt:undname.obj
 0002:00154c07       ??0DNameNode@@IAE@XZ       00602c07 f   libcmt:undname.obj
 0002:00154c12       ??0charNode@@QAE@D@Z       00602c12 f   libcmt:undname.obj
 0002:00154c2e       ?length@charNode@@UBEHXZ   00602c2e f i libcmt:undname.obj
 0002:00154c32       ?getLastChar@charNode@@UBEDXZ 00602c32 f i libcmt:undname.obj
 0002:00154c36       ?getString@charNode@@UBEPADPAD0@Z 00602c36 f i libcmt:undname.obj
 0002:00154c52       ??0pDNameNode@@QAE@PAVDName@@@Z 00602c52 f   libcmt:undname.obj
 0002:00154c86       ?length@pDNameNode@@UBEHXZ 00602c86 f i libcmt:undname.obj
 0002:00154ca1       ?getLastChar@pDNameNode@@UBEDXZ 00602ca1 f i libcmt:undname.obj
 0002:00154cbd       ?getString@pDNameNode@@UBEPADPAD0@Z 00602cbd f i libcmt:undname.obj
 0002:00154ce6       ??0DNameStatusNode@@AAE@W4DNameStatus@@@Z 00602ce6 f   libcmt:undname.obj
 0002:00154d14       ?length@DNameStatusNode@@UBEHXZ 00602d14 f i libcmt:undname.obj
 0002:00154d18       ?getLastChar@DNameStatusNode@@UBEDXZ 00602d18 f i libcmt:undname.obj
 0002:00154d27       ?make@DNameStatusNode@@SAPAV1@W4DNameStatus@@@Z 00602d27 f i libcmt:undname.obj
 0002:00154dce       ??0pairNode@@QAE@PAVDNameNode@@0@Z 00602dce f   libcmt:undname.obj
 0002:00154df7       ?length@pairNode@@UBEHXZ   00602df7 f i libcmt:undname.obj
 0002:00154e2c       ?getLastChar@pairNode@@UBEDXZ 00602e2c f i libcmt:undname.obj
 0002:00154e4f       ?getString@pairNode@@UBEPADPAD0@Z 00602e4f f i libcmt:undname.obj
 0002:00154ee6       ??0UnDecorator@@QAE@PADPBDHP6APADJ@ZK@Z 00602ee6 f i libcmt:undname.obj
 0002:00154f70       ?getDataIndirectType@UnDecorator@@CA?AVDName@@XZ 00602f70 f i libcmt:undname.obj
 0002:00154fb7       ?getThisType@UnDecorator@@CA?AVDName@@XZ 00602fb7 f i libcmt:undname.obj
 0002:00154fff       ??2@YAPAXIAAV_HeapManager@@H@Z 00602fff f i libcmt:undname.obj
 0002:0015501b       ?getStringHelper@@YAPADPAD00H@Z 0060301b f i libcmt:undname.obj
 0002:0015505f       ??0DName@@QAE@PAV0@@Z      0060305f f   libcmt:undname.obj
 0002:001550c6       ??0DName@@QAE@W4DNameStatus@@@Z 006030c6 f   libcmt:undname.obj
 0002:0015511c       ?getString@DName@@QBEPADPADH@Z 0060311c f i libcmt:undname.obj
 0002:00155192       ?append@DName@@AAEXPAVDNameNode@@@Z 00603192 f   libcmt:undname.obj
 0002:001551ec       ??4DName@@QAEAAV0@PAV0@@Z  006031ec f   libcmt:undname.obj
 0002:0015524c       ??4DName@@QAEAAV0@W4DNameStatus@@@Z 0060324c f   libcmt:undname.obj
 0002:00155290       ??YReplicator@@QAEAAV0@ABVDName@@@Z 00603290 f   libcmt:undname.obj
 0002:001552ec       ??AReplicator@@QBE?AVDName@@H@Z 006032ec f   libcmt:undname.obj
 0002:0015534e       ??0pcharNode@@QAE@PBDH@Z   0060334e f   libcmt:undname.obj
 0002:001553ba       ?length@pcharNode@@UBEHXZ  006033ba f i libcmt:undname.obj
 0002:001553be       ?getLastChar@pcharNode@@UBEDXZ 006033be f i libcmt:undname.obj
 0002:001553d4       ?getString@pcharNode@@UBEPADPAD0@Z 006033d4 f i libcmt:undname.obj
 0002:001553f8       ?getString@DNameStatusNode@@UBEPADPAD0@Z 006033f8 f i libcmt:undname.obj
 0002:0015542b       ?getReturnType@UnDecorator@@CA?AVDName@@PAV2@@Z 0060342b f   libcmt:undname.obj
 0002:00155468       ?getStorageConvention@UnDecorator@@CA?AVDName@@XZ 00603468 f i libcmt:undname.obj
 0002:0015547f       ??YDName@@QAEAAV0@W4DNameStatus@@@Z 0060347f f   libcmt:undname.obj
 0002:001554d1       ?doPchar@DName@@AAEXPBDH@Z 006034d1 f   libcmt:undname.obj
 0002:00155574       ??0DName@@QAE@D@Z          00603574 f   libcmt:undname.obj
 0002:001555ac       ??0DName@@QAE@PBD@Z        006035ac f   libcmt:undname.obj
 0002:001555f8       ??0DName@@QAE@AAPBDD@Z     006035f8 f   libcmt:undname.obj
 0002:001556e6       ??0DName@@QAE@_K@Z         006036e6 f   libcmt:undname.obj
 0002:0015576f       ??0DName@@QAE@_J@Z         0060376f f   libcmt:undname.obj
 0002:00155830       ??HDName@@QBE?AV0@W4DNameStatus@@@Z 00603830 f   libcmt:undname.obj
 0002:0015585d       ??YDName@@QAEAAV0@ABV0@@Z  0060385d f   libcmt:undname.obj
 0002:001558b0       ??YDName@@QAEAAV0@PAV0@@Z  006038b0 f   libcmt:undname.obj
 0002:00155930       ??4DName@@QAEAAV0@D@Z      00603930 f i libcmt:undname.obj
 0002:00155968       ??4DName@@QAEAAV0@PBD@Z    00603968 f   libcmt:undname.obj
 0002:001559aa       ?getCallingConvention@UnDecorator@@CA?AVDName@@XZ 006039aa f   libcmt:undname.obj
 0002:00155aa4       ?getVCallThunkType@UnDecorator@@CA?AVDName@@XZ 00603aa4 f i libcmt:undname.obj
 0002:00155b01       ??HDName@@QBE?AV0@ABV0@@Z  00603b01 f   libcmt:undname.obj
 0002:00155b2e       ??HDName@@QBE?AV0@PAV0@@Z  00603b2e f   libcmt:undname.obj
 0002:00155b5b       ??YDName@@QAEAAV0@D@Z      00603b5b f   libcmt:undname.obj
 0002:00155bc1       ??YDName@@QAEAAV0@PBD@Z    00603bc1 f   libcmt:undname.obj
 0002:00155c3e       ?getArgumentList@UnDecorator@@CA?AVDName@@XZ 00603c3e f   libcmt:undname.obj
 0002:00155d85       ?getVdispMapType@UnDecorator@@CA?AVDName@@ABV2@@Z 00603d85 f i libcmt:undname.obj
 0002:00155dee       ??H@YA?AVDName@@DABV0@@Z   00603dee f i libcmt:undname.obj
 0002:00155e1b       ??H@YA?AVDName@@W4DNameStatus@@ABV0@@Z 00603e1b f i libcmt:undname.obj
 0002:00155e48       ??H@YA?AVDName@@PBDABV0@@Z 00603e48 f i libcmt:undname.obj
 0002:00155e75       ??HDName@@QBE?AV0@D@Z      00603e75 f   libcmt:undname.obj
 0002:00155ea2       ??HDName@@QBE?AV0@PBD@Z    00603ea2 f   libcmt:undname.obj
 0002:00155ecf       ?getDimension@UnDecorator@@CA?AVDName@@_N@Z 00603ecf f   libcmt:undname.obj
 0002:00156066       ?getEnumType@UnDecorator@@CA?AVDName@@XZ 00604066 f i libcmt:undname.obj
 0002:0015618d       ?getArgumentTypes@UnDecorator@@CA?AVDName@@XZ 0060418d f   libcmt:undname.obj
 0002:001562a5       ?getThrowTypes@UnDecorator@@CA?AVDName@@XZ 006042a5 f   libcmt:undname.obj
 0002:00156351       ?getExtendedDataIndirectType@UnDecorator@@CA?AVDName@@AAPBDAA_NH@Z 00604351 f   libcmt:undname.obj
 0002:0015658b       ?getArrayType@UnDecorator@@CA?AVDName@@ABV2@@Z 0060458b f i libcmt:undname.obj
 0002:001567fe       ?getLexicalFrame@UnDecorator@@CA?AVDName@@XZ 006047fe f i libcmt:undname.obj
 0002:0015684a       ?getDisplacement@UnDecorator@@CA?AVDName@@XZ 0060484a f i libcmt:undname.obj
 0002:00156865       ?getCallIndex@UnDecorator@@CA?AVDName@@XZ 00604865 f i libcmt:undname.obj
 0002:00156880       ?getGuardNumber@UnDecorator@@CA?AVDName@@XZ 00604880 f i libcmt:undname.obj
 0002:0015689b       ?getVfTableType@UnDecorator@@CA?AVDName@@ABV2@@Z 0060489b f i libcmt:undname.obj
 0002:00156a51       ?getStringEncoding@UnDecorator@@CA?AVDName@@PADH@Z 00604a51 f   libcmt:undname.obj
 0002:00156b30       ?getSignedDimension@UnDecorator@@CA?AVDName@@XZ 00604b30 f   libcmt:undname.obj
 0002:00156b96       ?getTemplateConstant@UnDecorator@@CA?AVDName@@XZ 00604b96 f   libcmt:undname.obj
 0002:00156f42       ?getPtrRefDataType@UnDecorator@@CA?AVDName@@ABV2@H@Z 00604f42 f i libcmt:undname.obj
 0002:00157062       ?getVbTableType@UnDecorator@@CA?AVDName@@ABV2@@Z 00605062 f i libcmt:undname.obj
 0002:0015707e       ?getTemplateArgumentList@UnDecorator@@CA?AVDName@@XZ 0060507e f   libcmt:undname.obj
 0002:00157310       ?getOperatorName@UnDecorator@@CA?AVDName@@_NPA_N@Z 00605310 f i libcmt:undname.obj
 0002:00157a5b       ?getTemplateName@UnDecorator@@CA?AVDName@@_N@Z 00605a5b f   libcmt:undname.obj
 0002:00157c07       ?getZName@UnDecorator@@CA?AVDName@@_N0@Z 00605c07 f   libcmt:undname.obj
 0002:00157ea2       ?getScopedName@UnDecorator@@CA?AVDName@@XZ 00605ea2 f   libcmt:undname.obj
 0002:00157fbb       ?getECSUName@UnDecorator@@CA?AVDName@@XZ 00605fbb f i libcmt:undname.obj
 0002:00157fd2       ?getECSUDataType@UnDecorator@@CA?AVDName@@XZ 00605fd2 f   libcmt:undname.obj
 0002:00158126       ?getSymbolName@UnDecorator@@CA?AVDName@@XZ 00606126 f i libcmt:undname.obj
 0002:00158182       ?getBasedType@UnDecorator@@CA?AVDName@@XZ 00606182 f   libcmt:undname.obj
 0002:00158245       ?composeDeclaration@UnDecorator@@CA?AVDName@@ABV2@@Z 00606245 f i libcmt:undname.obj
 0002:0015922d       ?getDecoratedName@UnDecorator@@CA?AVDName@@XZ 0060722d f   libcmt:undname.obj
 0002:00159536       ?getScope@UnDecorator@@CA?AVDName@@XZ 00607536 f   libcmt:undname.obj
 0002:0015989a       ?getFunctionIndirectType@UnDecorator@@CA?AVDName@@ABV2@@Z 0060789a f   libcmt:undname.obj
 0002:00159d70       ?getDataIndirectType@UnDecorator@@CA?AVDName@@ABV2@PBD0H@Z 00607d70 f   libcmt:undname.obj
 0002:0015a476       ??BUnDecorator@@QAEPADXZ   00608476 f i libcmt:undname.obj
 0002:0015a604       ?getPtrRefType@UnDecorator@@CA?AVDName@@ABV2@0PBD@Z 00608604 f   libcmt:undname.obj
 0002:0015a73b       ?getPointerType@UnDecorator@@CA?AVDName@@ABV2@0@Z 0060873b f i libcmt:undname.obj
 0002:0015a763       ?getPointerTypeArray@UnDecorator@@CA?AVDName@@ABV2@0@Z 00608763 f i libcmt:undname.obj
 0002:0015a78b       ?getReferenceType@UnDecorator@@CA?AVDName@@ABV2@0PBD@Z 0060878b f i libcmt:undname.obj
 0002:0015a7b0       ___unDName                 006087b0 f   libcmt:undname.obj
 0002:0015a870       ___unDNameEx               00608870 f   libcmt:undname.obj
 0002:0015a930       ?getBasicDataType@UnDecorator@@CA?AVDName@@ABV2@@Z 00608930 f   libcmt:undname.obj
 0002:0015ade3       ?getPrimaryDataType@UnDecorator@@CA?AVDName@@ABV2@@Z 00608de3 f   libcmt:undname.obj
 0002:0015b000       ?getDataType@UnDecorator@@CA?AVDName@@PAV2@@Z 00609000 f   libcmt:undname.obj
 0002:0015b102       ?getExternalDataType@UnDecorator@@CA?AVDName@@ABV2@@Z 00609102 f i libcmt:undname.obj
 0002:0015b199       ___initconout              00609199 f   libcmt:initcon.obj
 0002:0015b1bf       ___termconout              006091bf f   libcmt:initcon.obj
 0002:0015b1db       __strdup                   006091db f   libcmt:strdup.obj
 0002:0015b241       __mbschr_l                 00609241 f   libcmt:mbschr.obj
 0002:0015b31d       __mbschr                   0060931d f   libcmt:mbschr.obj
 0002:0015b339       _abort                     00609339 f   libcmt:abort.obj
 0002:0015b378       __set_abort_behavior       00609378 f   libcmt:abort.obj
 0002:0015b4b1       ___crtGetLocaleInfoA       006094b1 f   libcmt:a_loc.obj
 0002:0015b500       ___ascii_strnicmp          00609500 f   libcmt:_strnicm.obj
 0002:0015b579       __purecall                 00609579 f   libcmt:purevirt.obj
 0002:0015b5ad       __set_purecall_handler     006095ad f   libcmt:purevirt.obj
 0002:0015b5dd       __get_purecall_handler     006095dd f   libcmt:purevirt.obj
 0002:0015b600       _strchr                    00609600 f   libcmt:strchr.obj
 0002:0015b606       ___from_strstr_to_strchr   00609606     libcmt:strchr.obj
 0002:0015b6f1       _SIM_GUI__MessageBox1      006096f1 f   GUISim:SIM_GUI_App.OBJ
 0002:0015b724       _SIM_HARDKEY_GetState      00609724 f   GUISim:SIM_GUI_App.OBJ
 0002:0015b743       _SIM_HARDKEY_SetState      00609743 f   GUISim:SIM_GUI_App.OBJ
 0002:0015b78c       _SIM_HARDKEY_GetNum        0060978c f   GUISim:SIM_GUI_App.OBJ
 0002:0015b792       _SIM_HARDKEY_SetCallback   00609792 f   GUISim:SIM_GUI_App.OBJ
 0002:0015b7bf       _SIM_HARDKEY_SetMode       006097bf f   GUISim:SIM_GUI_App.OBJ
 0002:0015b807       _SIM_GUI_CreateTask        00609807 f   GUISim:SIM_GUI_App.OBJ
 0002:0015b883       _SIM_GUI_UseCustomBitmaps  00609883 f   GUISim:SIM_GUI_App.OBJ
 0002:0015b890       _SIM_GUI_App               00609890 f   GUISim:SIM_GUI_App.OBJ
 0002:0015e40a       _SIM_GUI_HandleKeyEvents   0060c40a f   GUISim:SIM_GUI.OBJ
 0002:0015e54c       _SIM_GUI_Init              0060c54c f   GUISim:SIM_GUI.OBJ
 0002:0015e6a9       _SIM_GUI_CopyToClipboard   0060c6a9 f   GUISim:SIM_GUI.OBJ
 0002:0015e99a       _SIM_GUI_SetDelayHandler   0060c99a f   GUISim:SIM_GUI.OBJ
 0002:0015e9a6       _SIM_GUI_SetExecIdleHandler 0060c9a6 f   GUISim:SIM_GUI.OBJ
 0002:0015e9b2       _SIM_GUI_SetTransColor     0060c9b2 f   GUISim:SIM_GUI.OBJ
 0002:0015e9c6       _SIM_GUI_GetTransColor     0060c9c6 f   GUISim:SIM_GUI.OBJ
 0002:0015e9cc       _SIM_GUI_SetLCDColorWhite  0060c9cc f   GUISim:SIM_GUI.OBJ
 0002:0015e9f4       _SIM_GUI_SetLCDColorBlack  0060c9f4 f   GUISim:SIM_GUI.OBJ
 0002:0015ea1c       _SIM_GUI_SetMag            0060ca1c f   GUISim:SIM_GUI.OBJ
 0002:0015ea4a       _SIM_GUI_GetMagX           0060ca4a f   GUISim:SIM_GUI.OBJ
 0002:0015ea50       _SIM_GUI_GetMagY           0060ca50 f   GUISim:SIM_GUI.OBJ
 0002:0015ea56       _SIM_GUI_SetCompositeSize  0060ca56 f   GUISim:SIM_GUI.OBJ
 0002:0015ea7a       _SIM_GUI_SetCompositeColor 0060ca7a f   GUISim:SIM_GUI.OBJ
 0002:0015ea8f       _SIM_GUI_GetCompositeColor 0060ca8f f   GUISim:SIM_GUI.OBJ
 0002:0015ea95       _SIM_GUI_SetLCDPos         0060ca95 f   GUISim:SIM_GUI.OBJ
 0002:0015eaac       _SIM_GUI_GetLCDPos         0060caac f   GUISim:SIM_GUI.OBJ
 0002:0015eacb       _SIM_GUI_GetCompositeSize  0060cacb f   GUISim:SIM_GUI.OBJ
 0002:0015eaea       _SIM_GUI_GetTime           0060caea f   GUISim:SIM_GUI.OBJ
 0002:0015eafa       _SIM_GUI_WaitKey           0060cafa f   GUISim:SIM_GUI.OBJ
 0002:0015eb66       _SIM_GUI_GetKey            0060cb66 f   GUISim:SIM_GUI.OBJ
 0002:0015eb7d       _SIM_GUI_StoreKey          0060cb7d f   GUISim:SIM_GUI.OBJ
 0002:0015eb94       _SIM_GUI_Log               0060cb94 f   GUISim:SIM_GUI.OBJ
 0002:0015ebb4       _SIM_GUI_Warn              0060cbb4 f   GUISim:SIM_GUI.OBJ
 0002:0015ebce       _SIM_GUI_ErrorOut          0060cbce f   GUISim:SIM_GUI.OBJ
 0002:0015eca3       _SIM_GUI_EnableMessageBoxOnError 0060cca3 f   GUISim:SIM_GUI.OBJ
 0002:0015ecaf       _SIM_GUI_Exit              0060ccaf f   GUISim:SIM_GUI.OBJ
 0002:0015ecc4       _SIM_GUI_SetMessageBoxOnError 0060ccc4 f   GUISim:SIM_GUI.OBJ
 0002:0015ecd0       _SIM_GUI_Start             0060ccd0 f   GUISim:SIM_GUI.OBJ
 0002:0015ecdc       _SIM_GUI_Delay             0060ccdc f   GUISim:SIM_GUI.OBJ
 0002:0015ecfa       _SIM_GUI_ExecIdle          0060ccfa f   GUISim:SIM_GUI.OBJ
 0002:0015ed13       _SIM_GUI_GetCmdLine        0060cd13 f   GUISim:SIM_GUI.OBJ
 0002:0015ed19       _SIM_GUI_SetForwardRButton 0060cd19 f   GUISim:SIM_GUI.OBJ
 0002:0015ed25       _SIM_GUI_GetForwardRButton 0060cd25 f   GUISim:SIM_GUI.OBJ
 0002:0015ed2b       _SIM_GUI_SetTransMode      0060cd2b f   GUISim:SIM_GUI.OBJ
 0002:0015ed3f       _SIM_GUI_SetChroma         0060cd3f f   GUISim:SIM_GUI.OBJ
 0002:0015ed59       _GUI_X_Init                0060cd59 f   GUISim:GUI_X_Sim.OBJ
 0002:0015ed5a       _GUI_X_ExecIdle            0060cd5a f   GUISim:GUI_X_Sim.OBJ
 0002:0015ed5f       _GUI_X_GetTime             0060cd5f f   GUISim:GUI_X_Sim.OBJ
 0002:0015ed64       _GUI_X_Delay               0060cd64 f   GUISim:GUI_X_Sim.OBJ
 0002:0015ed71       _GUI_X_InitOS              0060cd71 f   GUISim:GUI_X_Sim.OBJ
 0002:0015ed8b       _GUI_X_GetTaskId           0060cd8b f   GUISim:GUI_X_Sim.OBJ
 0002:0015ed91       _GUI_X_Lock                0060cd91 f   GUISim:GUI_X_Sim.OBJ
 0002:0015edc4       _GUI_X_Unlock              0060cdc4 f   GUISim:GUI_X_Sim.OBJ
 0002:0015eddb       _GUI_X_Log                 0060cddb f   GUISim:GUI_X_Sim.OBJ
 0002:0015ede8       _GUI_X_Warn                0060cde8 f   GUISim:GUI_X_Sim.OBJ
 0002:0015edf5       _GUI_X_ErrorOut            0060cdf5 f   GUISim:GUI_X_Sim.OBJ
 0002:0015ee02       _LCDSIM_PaintComposite     0060ce02 f   GUISim:LCDSIM.OBJ
 0002:0015f374       _LCDSIM_Exit               0060d374 f   GUISim:LCDSIM.OBJ
 0002:0015f384       _LCDSIM_PreInit            0060d384 f   GUISim:LCDSIM.OBJ
 0002:0015f509       _LCDSIM_Init               0060d509 f   GUISim:LCDSIM.OBJ
 0002:0015f7cc       _LCDSIM_PaintEx            0060d7cc f   GUISim:LCDSIM.OBJ
 0002:0015f9db       _LCDSIM_PaintAt            0060d9db f   GUISim:LCDSIM.OBJ
 0002:0015fa74       _LCDSIM_Paint              0060da74 f   GUISim:LCDSIM.OBJ
 0002:0015fa89       _LCDSIM_GetModifyCnt       0060da89 f   GUISim:LCDSIM.OBJ
 0002:0015faa4       _LCDSIM_GetModifyCntInfo   0060daa4 f   GUISim:LCDSIM.OBJ
 0002:0015faaa       _LCDSIM_Index2Color        0060daaa f   GUISim:LCDSIM.OBJ
 0002:0015fb0e       _LCDSIM_SetSize            0060db0e f   GUISim:LCDSIM.OBJ
 0002:0015fb48       _LCDSIM_SetPixelIndex      0060db48 f   GUISim:LCDSIM.OBJ
 0002:0015fc6b       _LCDSIM_SetPixelColor      0060dc6b f   GUISim:LCDSIM.OBJ
 0002:0015fcb6       _LCDSIM_FillRect           0060dcb6 f   GUISim:LCDSIM.OBJ
 0002:0015fe8c       _LCDSIM_GetPixelIndex      0060de8c f   GUISim:LCDSIM.OBJ
 0002:0015ff1f       _LCDSIM_GetPixelColor      0060df1f f   GUISim:LCDSIM.OBJ
 0002:0015ff76       _LCDSIM_SetLUTEntry        0060df76 f   GUISim:LCDSIM.OBJ
 0002:001600b7       _LCDSIM_CheckMouseState    0060e0b7 f   GUISim:LCDSIM.OBJ
 0002:0016019b       _LCDSIM_SetMouseState      0060e19b f   GUISim:LCDSIM.OBJ
 0002:001601d2       _LCDSIM_SetOrg             0060e1d2 f   GUISim:LCDSIM.OBJ
 0002:0016030f       _LCDSIM_SetAlpha           0060e30f f   GUISim:LCDSIM.OBJ
 0002:0016032f       _LCDSIM_SetLayerPos        0060e32f f   GUISim:LCDSIM.OBJ
 0002:0016036c       _LCDSIM_SetLayerVis        0060e36c f   GUISim:LCDSIM.OBJ
 0002:00160396       _LCDSIM_GetAlpha           0060e396 f   GUISim:LCDSIM.OBJ
 0002:001603a8       _LCDSIM_SetTransMode       0060e3a8 f   GUISim:LCDSIM.OBJ
 0002:001603e4       _LCDSIM_SetChroma          0060e3e4 f   GUISim:LCDSIM.OBJ
 0002:00160467       _LCDSIM_SetCompositeColor  0060e467 f   GUISim:LCDSIM.OBJ
 0002:00160480       _LCDSIM_SetCompositeSize   0060e480 f   GUISim:LCDSIM.OBJ
 0002:001604aa       _BRANDING_GetCopyright     0060e4aa f   GUISim:Branding.OBJ
 0002:001604b0       _BRANDING_GetAppNameShort  0060e4b0 f   GUISim:Branding.OBJ
 0002:001604b6       _BRANDING_GetAppNameLong   0060e4b6 f   GUISim:Branding.OBJ
 0002:001604bc       _SIM_GUI_CreateLCDWindow   0060e4bc f   GUISim:SIM_GUI_Layer.OBJ
 0002:00160814       _SIM_GUI_SetLCDWindowHook  0060e814 f   GUISim:SIM_GUI_Layer.OBJ
 0002:00160820       _SIM_GUI_SetPixel          0060e820 f   GUISim:SIM_GUI_Layer.OBJ
 0002:001608ac       _SIM_GetRegions            0060e8ac f   GUISim:SIM_GetRegions.OBJ
 0002:00161180       _SIM_AddBitmapRegion       0060f180 f   GUISim:SIM_GetRegions.OBJ
 0002:00161309       _SIM_GetRegionRect         0060f309 f   GUISim:SIM_GetRegions.OBJ
 0002:00161359       _SIM_FreeRegions           0060f359 f   GUISim:SIM_GetRegions.OBJ
 0002:001613e8       _SIM_GUI_LOG_DelFirstLine  0060f3e8 f   GUISim:SIM_GUI_Log.OBJ
 0002:0016143e       _SIM_GUI_LOG_AddPlain      0060f43e f   GUISim:SIM_GUI_Log.OBJ
 0002:001614fa       _SIM_GUI_LOG_Add           0060f4fa f   GUISim:SIM_GUI_Log.OBJ
 0002:00161537       _SIM_GUI_LOG_AddRed        0060f537 f   GUISim:SIM_GUI_Log.OBJ
 0002:00161566       _SIM_GUI_LOG_Time          0060f566 f   GUISim:SIM_GUI_Log.OBJ
 0002:00161598       _SIM_GUI_LOG_Clear         0060f598 f   GUISim:SIM_GUI_Log.OBJ
 0002:001615a2       _SIM_GUI_CreateLOGWindow   0060f5a2 f   GUISim:SIM_GUI_Log.OBJ
 0002:00161841       _SIM_GUI_CreateLCDInfoWindow 0060f841 f   GUISim:SIM_GUI_Color.OBJ
 0002:00161c8d       _SIM_GUI_CreateCompositeWindow 0060fc8d f   GUISim:SIM_GUI_Composite.OBJ
 0002:00161e38       _timeGetTime@0             0060fe38 f   winmm:WINMM.dll
 0002:00161e3e       _GetLastError@0            0060fe3e f   kernel32:KERNEL32.dll
 0002:00161e44       _CreateDirectoryA@8        0060fe44 f   kernel32:KERNEL32.dll
 0002:00161e4a       _FindClose@4               0060fe4a f   kernel32:KERNEL32.dll
 0002:00161e50       _FindNextFileA@8           0060fe50 f   kernel32:KERNEL32.dll
 0002:00161e56       _FindFirstFileA@8          0060fe56 f   kernel32:KERNEL32.dll
 0002:00161e5c       _SetCurrentDirectoryA@4    0060fe5c f   kernel32:KERNEL32.dll
 0002:00161e62       _MoveFileA@8               0060fe62 f   kernel32:KERNEL32.dll
 0002:00161e68       _WriteFile@20              0060fe68 f   kernel32:KERNEL32.dll
 0002:00161e6e       _SetFilePointer@16         0060fe6e f   kernel32:KERNEL32.dll
 0002:00161e74       _CloseHandle@4             0060fe74 f   kernel32:KERNEL32.dll
 0002:00161e7a       _ReadFile@20               0060fe7a f   kernel32:KERNEL32.dll
 0002:00161e80       _OpenFile@12               0060fe80 f   kernel32:KERNEL32.dll
 0002:00161e86       _GetDriveTypeA@4           0060fe86 f   kernel32:KERNEL32.dll
 0002:00161e8c       _SystemTimeToTzSpecificLocalTime@12 0060fe8c f   kernel32:KERNEL32.dll
 0002:00161e92       _FileTimeToSystemTime@8    0060fe92 f   kernel32:KERNEL32.dll
 0002:00161e98       _GetFileTime@16            0060fe98 f   kernel32:KERNEL32.dll
 0002:00161e9e       _CreateFileA@28            0060fe9e f   kernel32:KERNEL32.dll
 0002:00161ea4       _CompareFileTime@8         0060fea4 f   kernel32:KERNEL32.dll
 0002:00161eaa       _DeleteFileA@4             0060feaa f   kernel32:KERNEL32.dll
 0002:00161eb0       _Sleep@4                   0060feb0 f   kernel32:KERNEL32.dll
 0002:00161eb6       _GetSystemTimeAsFileTime@4 0060feb6 f   kernel32:KERNEL32.dll
 0002:00161ebc       _HeapAlloc@12              0060febc f   kernel32:KERNEL32.dll
 0002:00161ec2       _HeapFree@12               0060fec2 f   kernel32:KERNEL32.dll
 0002:00161ec8       _RaiseException@16         0060fec8 f   kernel32:KERNEL32.dll
 0002:00161ece       _WideCharToMultiByte@32    0060fece f   kernel32:KERNEL32.dll
 0002:00161ed4       _IsDebuggerPresent@0       0060fed4 f   kernel32:KERNEL32.dll
 0002:00161eda       _MultiByteToWideChar@24    0060feda f   kernel32:KERNEL32.dll
 0002:00161ee0       _lstrlenA@4                0060fee0 f   kernel32:KERNEL32.dll
 0002:00161ee6       _GetProcAddress@8          0060fee6 f   kernel32:KERNEL32.dll
 0002:00161eec       _LoadLibraryW@4            0060feec f   kernel32:KERNEL32.dll
 0002:00161ef2       _FileTimeToLocalFileTime@8 0060fef2 f   kernel32:KERNEL32.dll
 0002:00161ef8       _FindFirstFileExA@24       0060fef8 f   kernel32:KERNEL32.dll
 0002:00161efe       _GetCommandLineA@0         0060fefe f   kernel32:KERNEL32.dll
 0002:00161f04       _HeapSetInformation@16     0060ff04 f   kernel32:KERNEL32.dll
 0002:00161f0a       _GetStartupInfoW@4         0060ff0a f   kernel32:KERNEL32.dll
 0002:00161f10       _EncodePointer@4           0060ff10 f   kernel32:KERNEL32.dll
 0002:00161f16       _DecodePointer@4           0060ff16 f   kernel32:KERNEL32.dll
 0002:00161f1c       _UnhandledExceptionFilter@4 0060ff1c f   kernel32:KERNEL32.dll
 0002:00161f22       _SetUnhandledExceptionFilter@4 0060ff22 f   kernel32:KERNEL32.dll
 0002:00161f28       _TerminateProcess@8        0060ff28 f   kernel32:KERNEL32.dll
 0002:00161f2e       _GetCurrentProcess@0       0060ff2e f   kernel32:KERNEL32.dll
 0002:00161f34       _GetCPInfo@8               0060ff34 f   kernel32:KERNEL32.dll
 0002:00161f3a       _InterlockedIncrement@4    0060ff3a f   kernel32:KERNEL32.dll
 0002:00161f40       _InterlockedDecrement@4    0060ff40 f   kernel32:KERNEL32.dll
 0002:00161f46       _GetACP@0                  0060ff46 f   kernel32:KERNEL32.dll
 0002:00161f4c       _GetOEMCP@0                0060ff4c f   kernel32:KERNEL32.dll
 0002:00161f52       _IsValidCodePage@4         0060ff52 f   kernel32:KERNEL32.dll
 0002:00161f58       _TlsAlloc@0                0060ff58 f   kernel32:KERNEL32.dll
 0002:00161f5e       _TlsGetValue@4             0060ff5e f   kernel32:KERNEL32.dll
 0002:00161f64       _TlsSetValue@8             0060ff64 f   kernel32:KERNEL32.dll
 0002:00161f6a       _TlsFree@4                 0060ff6a f   kernel32:KERNEL32.dll
 0002:00161f70       _GetModuleHandleW@4        0060ff70 f   kernel32:KERNEL32.dll
 0002:00161f76       _SetLastError@4            0060ff76 f   kernel32:KERNEL32.dll
 0002:00161f7c       _GetCurrentThreadId@0      0060ff7c f   kernel32:KERNEL32.dll
 0002:00161f82       _GetCurrentThread@0        0060ff82 f   kernel32:KERNEL32.dll
 0002:00161f88       _LCMapStringW@24           0060ff88 f   kernel32:KERNEL32.dll
 0002:00161f8e       _IsProcessorFeaturePresent@4 0060ff8e f   kernel32:KERNEL32.dll
 0002:00161f94       _GetTimeZoneInformation@4  0060ff94 f   kernel32:KERNEL32.dll
 0002:00161f9a       _EnterCriticalSection@4    0060ff9a f   kernel32:KERNEL32.dll
 0002:00161fa0       _LeaveCriticalSection@4    0060ffa0 f   kernel32:KERNEL32.dll
 0002:00161fa6       _InitializeCriticalSectionAndSpinCount@8 0060ffa6 f   kernel32:KERNEL32.dll
 0002:00161fac       _RtlUnwind@16              0060ffac f   kernel32:KERNEL32.dll
 0002:00161fb2       _GetConsoleCP@0            0060ffb2 f   kernel32:KERNEL32.dll
 0002:00161fb8       _GetConsoleMode@8          0060ffb8 f   kernel32:KERNEL32.dll
 0002:00161fbe       _ExitProcess@4             0060ffbe f   kernel32:KERNEL32.dll
 0002:00161fc4       _DeleteCriticalSection@4   0060ffc4 f   kernel32:KERNEL32.dll
 0002:00161fca       _FatalAppExitA@8           0060ffca f   kernel32:KERNEL32.dll
 0002:00161fd0       _SetHandleCount@4          0060ffd0 f   kernel32:KERNEL32.dll
 0002:00161fd6       _GetStdHandle@4            0060ffd6 f   kernel32:KERNEL32.dll
 0002:00161fdc       _GetFileType@4             0060ffdc f   kernel32:KERNEL32.dll
 0002:00161fe2       _GetModuleFileNameW@12     0060ffe2 f   kernel32:KERNEL32.dll
 0002:00161fe8       _HeapCreate@12             0060ffe8 f   kernel32:KERNEL32.dll
 0002:00161fee       _HeapDestroy@4             0060ffee f   kernel32:KERNEL32.dll
 0002:00161ff4       _FreeLibrary@4             0060fff4 f   kernel32:KERNEL32.dll
 0002:00161ffa       _GetProcessHeap@0          0060fffa f   kernel32:KERNEL32.dll
 0002:00162000       _VirtualQuery@12           00610000 f   kernel32:KERNEL32.dll
 0002:00162006       _GetFullPathNameA@16       00610006 f   kernel32:KERNEL32.dll
 0002:0016200c       _GetFileInformationByHandle@8 0061000c f   kernel32:KERNEL32.dll
 0002:00162012       _PeekNamedPipe@24          00610012 f   kernel32:KERNEL32.dll
 0002:00162018       _GetCurrentDirectoryW@8    00610018 f   kernel32:KERNEL32.dll
 0002:0016201e       _SetCurrentDirectoryW@4    0061001e f   kernel32:KERNEL32.dll
 0002:00162024       _GetModuleFileNameA@12     00610024 f   kernel32:KERNEL32.dll
 0002:0016202a       _FreeEnvironmentStringsW@4 0061002a f   kernel32:KERNEL32.dll
 0002:00162030       _GetEnvironmentStringsW@0  00610030 f   kernel32:KERNEL32.dll
 0002:00162036       _QueryPerformanceCounter@4 00610036 f   kernel32:KERNEL32.dll
 0002:0016203c       _GetTickCount@0            0061003c f   kernel32:KERNEL32.dll
 0002:00162042       _GetCurrentProcessId@0     00610042 f   kernel32:KERNEL32.dll
 0002:00162048       _GetStringTypeW@16         00610048 f   kernel32:KERNEL32.dll
 0002:0016204e       _GetUserDefaultLCID@0      0061004e f   kernel32:KERNEL32.dll
 0002:00162054       _GetLocaleInfoW@16         00610054 f   kernel32:KERNEL32.dll
 0002:0016205a       _GetLocaleInfoA@16         0061005a f   kernel32:KERNEL32.dll
 0002:00162060       _EnumSystemLocalesA@8      00610060 f   kernel32:KERNEL32.dll
 0002:00162066       _IsValidLocale@8           00610066 f   kernel32:KERNEL32.dll
 0002:0016206c       _HeapSize@12               0061006c f   kernel32:KERNEL32.dll
 0002:00162072       _SetStdHandle@8            00610072 f   kernel32:KERNEL32.dll
 0002:00162078       _FlushFileBuffers@4        00610078 f   kernel32:KERNEL32.dll
 0002:0016207e       _WriteConsoleW@20          0061007e f   kernel32:KERNEL32.dll
 0002:00162084       _CompareStringW@24         00610084 f   kernel32:KERNEL32.dll
 0002:0016208a       _SetEnvironmentVariableA@8 0061008a f   kernel32:KERNEL32.dll
 0002:00162090       _SetConsoleCtrlHandler@8   00610090 f   kernel32:KERNEL32.dll
 0002:00162096       _InterlockedExchange@8     00610096 f   kernel32:KERNEL32.dll
 0002:0016209c       _GetDriveTypeW@4           0061009c f   kernel32:KERNEL32.dll
 0002:001620a2       _SetEndOfFile@4            006100a2 f   kernel32:KERNEL32.dll
 0002:001620a8       _HeapReAlloc@16            006100a8 f   kernel32:KERNEL32.dll
 0002:001620ae       _CreateFileW@28            006100ae f   kernel32:KERNEL32.dll
 0002:001620b4       _ResumeThread@4            006100b4 f   kernel32:KERNEL32.dll
 0002:001620ba       _SetThreadPriority@8       006100ba f   kernel32:KERNEL32.dll
 0002:001620c0       _CreateThread@24           006100c0 f   kernel32:KERNEL32.dll
 0002:001620c6       _ExitThread@4              006100c6 f   kernel32:KERNEL32.dll
 0002:001620cc       _TerminateThread@8         006100cc f   kernel32:KERNEL32.dll
 0002:001620d2       _SuspendThread@4           006100d2 f   kernel32:KERNEL32.dll
 0002:001620d8       _GlobalUnlock@4            006100d8 f   kernel32:KERNEL32.dll
 0002:001620de       _GlobalLock@4              006100de f   kernel32:KERNEL32.dll
 0002:001620e4       _GlobalAlloc@8             006100e4 f   kernel32:KERNEL32.dll
 0002:001620ea       _OutputDebugStringA@4      006100ea f   kernel32:KERNEL32.dll
 0002:001620f0       _CreateMutexA@12           006100f0 f   kernel32:KERNEL32.dll
 0002:001620f6       _WaitForSingleObject@8     006100f6 f   kernel32:KERNEL32.dll
 0002:001620fc       _ReleaseMutex@4            006100fc f   kernel32:KERNEL32.dll
 0002:00162102       _GlobalFree@4              00610102 f   kernel32:KERNEL32.dll
 0002:00162108       _MapViewOfFile@20          00610108 f   kernel32:KERNEL32.dll
 0002:0016210e       _CreateFileMappingA@24     0061010e f   kernel32:KERNEL32.dll
 0002:00162114       _OpenFileMappingA@12       00610114 f   kernel32:KERNEL32.dll
 0002:0016211a       _MessageBoxA@16            0061011a f   user32:USER32.dll
 0002:00162120       _IsWindowVisible@4         00610120 f   user32:USER32.dll
 0002:00162126       _InvalidateRect@12         00610126 f   user32:USER32.dll
 0002:0016212c       _DestroyWindow@4           0061012c f   user32:USER32.dll
 0002:00162132       _TrackPopupMenu@28         00610132 f   user32:USER32.dll
 0002:00162138       _ClientToScreen@8          00610138 f   user32:USER32.dll
 0002:0016213e       _GetWindowLongA@8          0061013e f   user32:USER32.dll
 0002:00162144       _DispatchMessageA@4        00610144 f   user32:USER32.dll
 0002:0016214a       _TranslateMessage@4        0061014a f   user32:USER32.dll
 0002:00162150       _GetMessageA@16            00610150 f   user32:USER32.dll
 0002:00162156       _LoadAcceleratorsA@8       00610156 f   user32:USER32.dll
 0002:0016215c       _ShowWindow@8              0061015c f   user32:USER32.dll
 0002:00162162       _SetWindowLongA@12         00610162 f   user32:USER32.dll
 0002:00162168       _CreateWindowExA@48        00610168 f   user32:USER32.dll
 0002:0016216e       _GetWindowRect@8           0061016e f   user32:USER32.dll
 0002:00162174       _GetDesktopWindow@0        00610174 f   user32:USER32.dll
 0002:0016217a       _GetSubMenu@8              0061017a f   user32:USER32.dll
 0002:00162180       _LoadMenuA@8               00610180 f   user32:USER32.dll
 0002:00162186       _LoadImageA@24             00610186 f   user32:USER32.dll
 0002:0016218c       _GetSystemMetrics@4        0061018c f   user32:USER32.dll
 0002:00162192       _GetClientRect@8           00610192 f   user32:USER32.dll
 0002:00162198       _FindWindowExA@16          00610198 f   user32:USER32.dll
 0002:0016219e       _wsprintfA                 0061019e f   user32:USER32.dll
 0002:001621a4       _EnumChildWindows@12       006101a4 f   user32:USER32.dll
 0002:001621aa       _SetWindowPos@28           006101aa f   user32:USER32.dll
 0002:001621b0       _BringWindowToTop@4        006101b0 f   user32:USER32.dll
 0002:001621b6       _GetParent@4               006101b6 f   user32:USER32.dll
 0002:001621bc       _GetClassNameA@12          006101bc f   user32:USER32.dll
 0002:001621c2       _SendMessageA@16           006101c2 f   user32:USER32.dll
 0002:001621c8       _CopyAcceleratorTableA@12  006101c8 f   user32:USER32.dll
 0002:001621ce       _RegisterClassExA@4        006101ce f   user32:USER32.dll
 0002:001621d4       _LoadCursorA@8             006101d4 f   user32:USER32.dll
 0002:001621da       _LoadIconA@8               006101da f   user32:USER32.dll
 0002:001621e0       _DefWindowProcA@16         006101e0 f   user32:USER32.dll
 0002:001621e6       _SetTimer@16               006101e6 f   user32:USER32.dll
 0002:001621ec       _EndPaint@8                006101ec f   user32:USER32.dll
 0002:001621f2       _BeginPaint@8              006101f2 f   user32:USER32.dll
 0002:001621f8       _MoveWindow@24             006101f8 f   user32:USER32.dll
 0002:001621fe       _GetCapture@0              006101fe f   user32:USER32.dll
 0002:00162204       _SetCapture@4              00610204 f   user32:USER32.dll
 0002:0016220a       _ReleaseCapture@0          0061020a f   user32:USER32.dll
 0002:00162210       _PostQuitMessage@4         00610210 f   user32:USER32.dll
 0002:00162216       _EnableMenuItem@12         00610216 f   user32:USER32.dll
 0002:0016221c       _DialogBoxParamA@20        0061021c f   user32:USER32.dll
 0002:00162222       _SetDlgItemTextA@12        00610222 f   user32:USER32.dll
 0002:00162228       _SetWindowTextA@8          00610228 f   user32:USER32.dll
 0002:0016222e       _EndDialog@8               0061022e f   user32:USER32.dll
 0002:00162234       _WindowFromPoint@8         00610234 f   user32:USER32.dll
 0002:0016223a       _KillTimer@8               0061023a f   user32:USER32.dll
 0002:00162240       _LoadBitmapA@8             00610240 f   user32:USER32.dll
 0002:00162246       _ReleaseDC@8               00610246 f   user32:USER32.dll
 0002:0016224c       _FillRect@12               0061024c f   user32:USER32.dll
 0002:00162252       _GetDC@4                   00610252 f   user32:USER32.dll
 0002:00162258       _GetKeyState@4             00610258 f   user32:USER32.dll
 0002:0016225e       _ToAscii@20                0061025e f   user32:USER32.dll
 0002:00162264       _MapVirtualKeyA@8          00610264 f   user32:USER32.dll
 0002:0016226a       _GetKeyboardState@4        0061026a f   user32:USER32.dll
 0002:00162270       _GetClassInfoExA@12        00610270 f   user32:USER32.dll
 0002:00162276       _CloseClipboard@0          00610276 f   user32:USER32.dll
 0002:0016227c       _SetClipboardData@8        0061027c f   user32:USER32.dll
 0002:00162282       _EmptyClipboard@0          00610282 f   user32:USER32.dll
 0002:00162288       _OpenClipboard@4           00610288 f   user32:USER32.dll
 0002:0016228e       _GetWindowDC@4             0061028e f   user32:USER32.dll
 0002:00162294       _SetWindowRgn@12           00610294 f   user32:USER32.dll
 0002:0016229a       _GetWindowRgn@8            0061029a f   user32:USER32.dll
 0002:001622a0       _DrawTextA@20              006102a0 f   user32:USER32.dll
 0002:001622a6       _DeleteObject@4            006102a6 f   gdi32:GDI32.dll
 0002:001622ac       _GetObjectA@12             006102ac f   gdi32:GDI32.dll
 0002:001622b2       _GetStockObject@4          006102b2 f   gdi32:GDI32.dll
 0002:001622b8       _TextOutA@20               006102b8 f   gdi32:GDI32.dll
 0002:001622be       _DeleteDC@4                006102be f   gdi32:GDI32.dll
 0002:001622c4       _BitBlt@36                 006102c4 f   gdi32:GDI32.dll
 0002:001622ca       _SelectObject@8            006102ca f   gdi32:GDI32.dll
 0002:001622d0       _CreateCompatibleDC@4      006102d0 f   gdi32:GDI32.dll
 0002:001622d6       _LineTo@12                 006102d6 f   gdi32:GDI32.dll
 0002:001622dc       _MoveToEx@16               006102dc f   gdi32:GDI32.dll
 0002:001622e2       _CreatePen@12              006102e2 f   gdi32:GDI32.dll
 0002:001622e8       _StretchBlt@44             006102e8 f   gdi32:GDI32.dll
 0002:001622ee       _CreateSolidBrush@4        006102ee f   gdi32:GDI32.dll
 0002:001622f4       _CreateCompatibleBitmap@12 006102f4 f   gdi32:GDI32.dll
 0002:001622fa       _ExtFloodFill@20           006102fa f   gdi32:GDI32.dll
 0002:00162300       _SetDIBitsToDevice@48      00610300 f   gdi32:GDI32.dll
 0002:00162306       _StretchDIBits@52          00610306 f   gdi32:GDI32.dll
 0002:0016230c       _SetStretchBltMode@8       0061030c f   gdi32:GDI32.dll
 0002:00162312       _SetPixel@16               00610312 f   gdi32:GDI32.dll
 0002:00162318       _GetDIBits@28              00610318 f   gdi32:GDI32.dll
 0002:0016231e       _CombineRgn@16             0061031e f   gdi32:GDI32.dll
 0002:00162324       _CreateRectRgn@16          00610324 f   gdi32:GDI32.dll
 0002:0016232a       _OffsetRgn@12              0061032a f   gdi32:GDI32.dll
 0002:00162330       _SetTextColor@8            00610330 f   gdi32:GDI32.dll
 0002:00162336       _GetTextExtentPoint32A@16  00610336 f   gdi32:GDI32.dll
 0002:0016233c       _Rectangle@20              0061033c f   gdi32:GDI32.dll
 0002:00162350       __ftol                     00610350 f   libcmt:_ftol_.obj
 0003:00000000       ___xc_a                    00613000     libcmt:crt0init.obj
 0003:00000244       ___xc_z                    00613244     libcmt:crt0init.obj
 0003:00000348       ___xi_a                    00613348     libcmt:crt0init.obj
 0003:00000668       ___xi_z                    00613668     libcmt:crt0init.obj
 0003:0000076c       ___xp_a                    0061376c     libcmt:crt0init.obj
 0003:00000a78       ___xp_z                    00613a78     libcmt:crt0init.obj
 0003:00000b7c       ___xt_a                    00613b7c     libcmt:crt0init.obj
 0003:00000c80       ___xt_z                    00613c80     libcmt:crt0init.obj
 0003:00000fb8       __real@0000000000000000    00613fb8     AnalogInputSettings.obj
 0003:00000fc4       __real@00000000            00613fc4     AnalogInputSettings.obj
 0003:00000fc8       _archiveDir                00613fc8     Archive.obj
 0003:00001038       _MAIN_SCREEN_INFO          00614038     ConfigScreens.obj
 0003:00001158       _GO_RACING_INFO            00614158     ConfigScreens.obj
 0003:00001320       _RACE_SETUP_INFO           00614320     ConfigScreens.obj
 0003:00001518       _SYSTEMS_SETUP_INFO        00614518     ConfigScreens.obj
 0003:00001700       _REVIEW_SESSIONS_INFO      00614700     ConfigScreens.obj
 0003:00001958       _SESSION_DETAILS_INFO      00614958     ConfigScreens.obj
 0003:00001c98       _SELECT_DRIVER_INFO        00614c98     ConfigScreens.obj
 0003:00001dc8       _SELECT_VEHICLE_INFO       00614dc8     ConfigScreens.obj
 0003:00001f38       _SELECT_TRACK_INFO         00614f38     ConfigScreens.obj
 0003:00002158       _CHOOSE_TRACK_INFO         00615158     ConfigScreens.obj
 0003:00002330       _LAP_QUAL_INFO             00615330     ConfigScreens.obj
 0003:00002488       _VEHICLE_SETTINGS_INFO     00615488     ConfigScreens.obj
 0003:00002620       _TRACK_SETTINGS_INFO       00615620     ConfigScreens.obj
 0003:00002790       _TRACK_TYPE_INFO           00615790     ConfigScreens.obj
 0003:000029b0       _LAP_HOLD_INFO             006159b0     ConfigScreens.obj
 0003:00002ae0       _START_FINISH_INFO         00615ae0     ConfigScreens.obj
 0003:00002c40       _PREDICTIVE_LAP_INFO       00615c40     ConfigScreens.obj
 0003:00002d08       _DISPLAY_SETTINGS_INFO     00615d08     ConfigScreens.obj
 0003:00002e20       _UNITS_SETTINGS_INFO       00615e20     ConfigScreens.obj
 0003:00002eb8       _TIME_SETTINGS_INFO        00615eb8     ConfigScreens.obj
 0003:00003110       _AUTOSTART_SETTINGS_INFO   00616110     ConfigScreens.obj
 0003:000033b0       _STORAGE_SETTINGS_INFO     006163b0     ConfigScreens.obj
 0003:00003610       _PREDICTIVE_SCALE_INFO     00616610     ConfigScreens.obj
 0003:00003700       _TACH_SETTINGS_INFO        00616700     ConfigScreens.obj
 0003:00003958       _TACH_PWREND_INFO          00616958     ConfigScreens.obj
 0003:00003a60       _TACH_WARNING_INFO         00616a60     ConfigScreens.obj
 0003:00003bc8       _TACH_REDLINE_INFO         00616bc8     ConfigScreens.obj
 0003:00003d18       _TACH_MAXRPM_INFO          00616d18     ConfigScreens.obj
 0003:00003e18       _NUM_CYL_INFO              00616e18     ConfigScreens.obj
 0003:00003f30       _AERO_GRIP_INFO            00616f30     ConfigScreens.obj
 0003:00004078       _CAR_METRICS_INFO          00617078     ConfigScreens.obj
 0003:000042f8       _GEAR_RATIO_INFO           006172f8     ConfigScreens.obj
 0003:00004658       _TIRE_SIZE_INFO            00617658     ConfigScreens.obj
 0003:000049b0       _TIRE_DIMENSIONS_INFO      006179b0     ConfigScreens.obj
 0003:00004b30       _DIFF_RATIO_INFO           00617b30     ConfigScreens.obj
 0003:00004cb8       _TRANS_RATIO_INFO          00617cb8     ConfigScreens.obj
 0003:00004df0       _INPUTS_INFO               00617df0     ConfigScreens.obj
 0003:00004f50       _WEIGHT_INFO               00617f50     ConfigScreens.obj
 0003:00005030       _CAMERA_INFO               00618030     ConfigScreens.obj
 0003:00005320       _CAMERA_SETUP_INFO         00618320     ConfigScreens.obj
 0003:000056a8       _CAMERA_DELAY_INFO         006186a8     ConfigScreens.obj
 0003:000058a8       _ANALOG_SETTINGS_INFO      006188a8     ConfigScreens.obj
 0003:00005f98       _DIGITAL_SETTINGS_INFO     00618f98     ConfigScreens.obj
 0003:000061e0       _ANALOG_SCALE_INFO         006191e0     ConfigScreens.obj
 0003:000068a8       _ANALOG_ALARM_INFO         006198a8     ConfigScreens.obj
 0003:00006a20       _DIGITAL_ALARM_INFO        00619a20     ConfigScreens.obj
 0003:00006b88       _PERSONALIZE_INFO          00619b88     ConfigScreens.obj
 0003:00006d50       _DRAG_STAGE_SCREEN_INFO    00619d50     ConfigScreens.obj
 0003:00006e90       _AUTOX_STAGE_SCREEN_INFO   00619e90     ConfigScreens.obj
 0003:00006f88       _RECORD_SPEED_INFO         00619f88     ConfigScreens.obj
 0003:00008668       __real@3ff0000000000000    0061b668     ConfigScreens.obj
 0003:00008678       __real@4011333333333333    0061b678     ConfigScreens.obj
 0003:00008688       __real@4059000000000000    0061b688     ConfigScreens.obj
 0003:00008698       __real@bfb999999999999a    0061b698     ConfigurableGaugeCommon.obj
 0003:000086a8       __real@bff0000000000000    0061b6a8     ConfigurableGaugeCommon.obj
 0003:000086b8       __real@4024000000000000    0061b6b8     ConfigurableGaugeCommon.obj
 0003:000086c8       __real@c024000000000000    0061b6c8     ConfigurableGaugeCommon.obj
 0003:000086d8       __real@c059000000000000    0061b6d8     ConfigurableGaugeCommon.obj
 0003:000086e8       __real@408f400000000000    0061b6e8     ConfigurableGaugeCommon.obj
 0003:000086f4       __real@42b40000            0061b6f4     CustomArc.obj
 0003:000086f8       __real@43b40000            0061b6f8     CustomArc.obj
 0003:000086fc       __real@447a0000            0061b6fc     CustomArc.obj
 0003:00008700       __real@40000000            0061b700     CustomArc.obj
 0003:00008708       __real@4040000000000000    0061b708     DataHandler.obj
 0003:00008718       __real@4014000000000000    0061b718     DataHandler.obj
 0003:00008728       __real@4022000000000000    0061b728     DataHandler.obj
 0003:00008734       __real@4051f8a1            0061b734     DataHandler.obj
 0003:00008738       __real@3f1f122f            0061b738     DataHandler.obj
 0003:00008740       __real@3fe6666666666666    0061b740     DataHandler.obj
 0003:0000874c       __real@40800000            0061b74c     DataHandler.obj
 0003:00008750       __real@4010000000000000    0061b750     DataHandler.obj
 0003:00008760       __real@3f4f072c442ba8fb    0061b760     DataHandler.obj
 0003:00008770       __real@3fee666666666666    0061b770     DataHandler.obj
 0003:00008780       __real@404e000000000000    0061b780     DataHandler.obj
 0003:00008790       __real@40ac200000000000    0061b790     DataHandler.obj
 0003:000087a0       __real@3fb999999999999a    0061b7a0     DataHandler.obj
 0003:000087b0       __real@3f847ae147ae147b    0061b7b0     DataHandler.obj
 0003:000087c0       __real@4043800000000000    0061b7c0     DataHandler.obj
 0003:00008a64       __real@437a0000            0061ba64     DragAutoXScreens.obj
 0003:00008a68       __real@43fa0000            0061ba68     DragAutoXScreens.obj
 0003:00008a70       __real@3fe0000000000000    0061ba70     DragAutoXScreens.obj
 0003:00008b60       __real@409925604189374c    0061bb60     DriveScreen.obj
 0003:00008b70       __real@402099999999999a    0061bb70     DriveScreen.obj
 0003:00008b80       __real@407fa00000000000    0061bb80     DriveScreen.obj
 0003:00008b90       __real@4076800000000000    0061bb90     DriveScreen.obj
 0003:00008bac       __real@41200000            0061bbac     DualGaugeScreen.obj
 0003:00008bb0       __real@42c80000            0061bbb0     DualGaugeScreen.obj
 0003:00008bb8       _VERSION_PATH              0061bbb8     DUII_Main.obj
 0003:00008de0       _DriverRect                0061bde0     DUII_Main.obj
 0003:00008de8       _VehicleRect               0061bde8     DUII_Main.obj
 0003:00008e68       _SOFTWARE_VERSION          0061be68     FlashReadWrite.obj
 0003:00008e6e       _DEFAULT_TRACK             0061be6e     FlashReadWrite.obj
 0003:00008e70       _SYSTEM_VERSION            0061be70     FlashReadWrite.obj
 0003:00008e78       _VEHICLE_VERSION           0061be78     FlashReadWrite.obj
 0003:00008e80       _DRIVER_VERSION            0061be80     FlashReadWrite.obj
 0003:00008e88       _TRACK_VERSION             0061be88     FlashReadWrite.obj
 0003:00008e90       _SYSTEM_FILE_NAME          0061be90     FlashReadWrite.obj
 0003:00008ea0       _BACKUP_SYSTEM_FILE_NAME   0061bea0     FlashReadWrite.obj
 0003:00008eb4       _DEFAULT_DRIVER            0061beb4     FlashReadWrite.obj
 0003:00008ec0       _DEFAULT_VEHICLE           0061bec0     FlashReadWrite.obj
 0003:00008ed4       _SYSTEM_PATH               0061bed4     FlashReadWrite.obj
 0003:00008ee0       _DRIVER_PATH               0061bee0     FlashReadWrite.obj
 0003:00008ef4       _VEHICLE_PATH              0061bef4     FlashReadWrite.obj
 0003:00008f0c       _TRACK_PATH                0061bf0c     FlashReadWrite.obj
 0003:00008f20       _MY_SESSIONS_PATH          0061bf20     FlashReadWrite.obj
 0003:00008fe8       __real@41380000            0061bfe8     FlashReadWrite.obj
 0003:00008fec       __real@42000000            0061bfec     FlashReadWrite.obj
 0003:00008ff0       __real@43970000            0061bff0     FlashReadWrite.obj
 0003:00008ff4       __real@43520000            0061bff4     FlashReadWrite.obj
 0003:00008ff8       __real@3f000000            0061bff8     FlashReadWrite.obj
 0003:00008ffc       __real@40900000            0061bffc     FlashReadWrite.obj
 0003:00009000       __real@c16b3333            0061c000     FlashReadWrite.obj
 0003:00009004       __real@420d3333            0061c004     FlashReadWrite.obj
 0003:00009008       __real@41a00000            0061c008     FlashReadWrite.obj
 0003:0000900c       __real@40a00000            0061c00c     FlashReadWrite.obj
 0003:00009010       __real@41080000            0061c010     FlashReadWrite.obj
 0003:00009014       __real@41900000            0061c014     FlashReadWrite.obj
 0003:00009018       __real@415b3333            0061c018     FlashReadWrite.obj
 0003:0000901c       __real@3f4f5c29            0061c01c     FlashReadWrite.obj
 0003:00009020       __real@3f800000            0061c020     FlashReadWrite.obj
 0003:00009024       __real@3faa3d71            0061c024     FlashReadWrite.obj
 0003:00009028       __real@3ff1eb85            0061c028     FlashReadWrite.obj
 0003:0000902c       __real@4048f5c3            0061c02c     FlashReadWrite.obj
 0003:00009078       __real@4066800000000000    0061c078     gauge.obj
 0003:00009088       __real@400921fb5444261e    0061c088     gauge.obj
 0003:00009098       __real@4000000000000000    0061c098     gauge.obj
 0003:000090a8       __real@3ffc000000000000    0061c0a8     gauge.obj
 0003:000090b8       __real@4004000000000000    0061c0b8     gauge.obj
 0003:000090c4       __real@40c00000            0061c0c4     gauge.obj
 0003:000090c8       __real@bf800000            0061c0c8     gauge.obj
 0003:000090d0       __real@3fb1eb851eb851ec    0061c0d0     gauge.obj
 0003:000090e0       __real@3fe0000218def417    0061c0e0     gauge.obj
 0003:000090ec       __real@41c80000            0061c0ec     gauge.obj
 0003:000090f0       __real@42c20000            0061c0f0     gauge.obj
 0003:000090f4       __real@41100000            0061c0f4     gauge.obj
 0003:000090f8       __real@4071000000000000    0061c0f8     gauge.obj
 0003:00009108       __real@3fc3333333333333    0061c108     gauge.obj
 0003:00009118       __real@3fc999999999999a    0061c118     gauge.obj
 0003:000091f0       __real@38d1b717            0061c1f0     GearingScreens.obj
 0003:000091f8       __real@3ee4f8b588e368f1    0061c1f8     GearingScreens.obj
 0003:00009204       __real@40228f5c            0061c204     GearingScreens.obj
 0003:00009208       __real@43470000            0061c208     GearingScreens.obj
 0003:00009210       __real@4068e00000000000    0061c210     GearingScreens.obj
 0003:0000921c       __real@3ec99326            0061c21c     GearingScreens.obj
 0003:00009220       __real@3d214270            0061c220     GearingScreens.obj
 0003:00009224       __real@42c60000            0061c224     GearRatios.obj
 0003:00009228       _BannerRect                0061c228     GeneralConfig.obj
 0003:00009230       _InfoTimeRect              0061c230     GeneralConfig.obj
 0003:00009238       _BannerTimeRect            0061c238     GeneralConfig.obj
 0003:00009704       _bm0                       0061c704     0.obj
 0003:0000bf0c       _bm1                       0061ef0c     1.obj
 0003:0000d754       _bm2                       00620754     2.obj
 0003:0000efd4       _bm3                       00621fd4     3.obj
 0003:0000f80c       _bm4                       0062280c     4.obj
 0003:000110cc       _bm5                       006240cc     5.obj
 0003:0001299c       _bmAeroandTire             0062599c     AeroandTire.obj
 0003:0001672c       _bmAeroGrip                0062972c     AeroGrip.obj
 0003:0001b478       _bmAlarm1Active            0062e478     Alarm1Active.obj
 0003:0001be10       _bmAlarm2Active            0062ee10     Alarm2Active.obj
 0003:0001c3cc       _bmAlarmText               0062f3cc     AlarmText.obj
 0003:0001e524       _bmAnalog                  00631524     Analog.obj
 0003:00020edc       _bmAnalogGaugeButtonOff    00633edc     AnalogGaugeButtonOff.obj
 0003:000233ac       _bmAnalogs                 006363ac     Analogs.obj
 0003:00028764       _bmAutoxRally              0063b764     Auto-xRally.obj
 0003:0002ec4c       _bmAutocrossStageBackground 00641c4c     AutocrossStageBackground.obj
 0003:0003fd04       _bmAutocrossTouchToStage   00652d04     AutocrossTouchToStage.obj
 0003:00055a3c       _bmAutoOffButton           00668a3c     AutoOffButton.obj
 0003:0005bf24       _bmAutoOn                  0066ef24     AutoOn.obj
 0003:0006240c       _bmAutoOnButton            0067540c     AutoOnButton.obj
 0003:0007c4c0       _bmAutoRallyIcon           0068f4c0     AutoRallyIcon.obj
 0003:000808dc       _bmAutoStartButton         006938dc     AutoStartButton.obj
 0003:0008524c       _bmAutoStartSetupText      0069824c     AutoStartSetupText.obj
 0003:00088fdc       _bmAutoXAnalogGaugeButtonOn 0069bfdc     AutoXAnalogGaugeButtonOn.obj
 0003:0008b4ac       _bmAutoXDigitalGaugeButtonOn 0069e4ac     AutoXDigitalGaugeButtonOn.obj
 0003:0008d97c       _bmAutoXSweepTachButtonOn  006a097c     AutoXSweepTachButtonOn.obj
 0003:0008fe4c       _bmBackground              006a2e4c     Background.obj
 0003:000b6744       _bmBackgroundWithPanel     006c9744     BackgroundWithPanel.obj
 0003:000dcc9c       _bmBanner                  006efc9c     Banner.obj
 0003:000e1f9c       _bmBestLapEver             006f4f9c     BestLapEver.obj
 0003:000e2de8       _bmBestLapSession          006f5de8     BestLapSession.obj
 0003:000e32cc       _bmBigGrayButton           006f62cc     BigGrayButton.obj
 0003:000e99ec       _bmBigGreenButton          006fc9ec     BigGreenButton.obj
 0003:000eab28       _bmBlackBlankButton        006fdb28     BlackBlankButton.obj
 0003:000ead74       _bmBlackButton             006fdd74     BlackButton.obj
 0003:000ed684       _bmBlueButton              00700684     BlueButton.obj
 0003:000f0304       _bmBottomBar               00703304     BottomBar.obj
 0003:000f0884       _bmBoxsterButton           00703884     BoxsterButton.obj
 0003:000f52ec       _bmBrightIcon              007082ec     BrightIcon.obj
 0003:000f593c       _bmBrownInputButton        0070893c     BrownInputButton.obj
 0003:000f8a6c       _bmCamera                  0070ba6c     Camera.obj
 0003:000fd03c       _bmCameraBlankIcon         0071003c     CameraBlankIcon.obj
 0003:000fd98c       _bmCameraNotReadyIcon      0071098c     CameraNotReadyIcon.obj
 0003:000fe384       _bmCameraReadyIcon         00711384     CameraReadyIcon.obj
 0003:000ff098       _bmCameraRecordIcon        00712098     CameraRecordIcon.obj
 0003:000ff62c       _bmCameraSetupBanner       0071262c     CameraSetupBanner.obj
 0003:001033bc       _bmCameraText              007163bc     CameraText.obj
 0003:00108f50       _bmCancel                  0071bf50     Cancel.obj
 0003:0010a454       _bmCapital                 0071d454     Capital.obj
 0003:0010ab4c       _bmCarMetricsBanner        0071db4c     CarMetricsBanner.obj
 0003:0010e8dc       _bmCarMetricsButton        007218dc     CarMetricsButton.obj
 0003:0011324c       _bmChaseCamIcon            0072624c     ChaseCamIcon.obj
 0003:00114824       _bmCheckIcon               00727824     CheckIcon.obj
 0003:00115dfc       _bmCheckTimesText          00728dfc     CheckTimesText.obj
 0003:00119b8c       _bmChooseTrack             0072cb8c     ChooseTrack.obj
 0003:0011d91c       _bmChronometric            0073091c     Chronometric.obj
 0003:00144214       _bmChronometric_NoTrans    00757214     Chronometric_NoTrans.obj
 0003:0016ab0c       _bmChronometric_NoTrans_2  0077db0c     Chronometric_NoTrans_2.obj
 0003:00191404       _bmChronometric_original   007a4404     Chronometric_original.obj
 0003:001b7cfc       _bmChronometric_wTrans     007cacfc     Chronometric_wTrans.obj
 0003:001de5f4       _bmCompassList             007f15f4     CompassList.obj
 0003:001eb874       _bmDarkAsphalt             007fe874     DarkAsphalt.obj
 0003:0021245c       _bmDarkIcon                0082545c     DarkIcon.obj
 0003:002129ec       _bmDefaultGauge            008259ec     DefaultGauge.obj
 0003:0022a030       _bmDeleteKey               0083d030     DeleteKey.obj
 0003:0022a9a4       _bmDiffRatio               0083d9a4     DiffRatio.obj
 0003:0022e734       _bmDigital                 00841734     Digital.obj
 0003:002310ec       _bmDigitalAlarm            008440ec     DigitalAlarm.obj
 0003:00233244       _bmDigitalBarBlueSweep     00846244     DigitalBarBlueSweep.obj
 0003:00299330       _bmDigitalBarBlueSweepFullColor 008ac330     DigitalBarBlueSweepFullColor.obj
 0003:002a6354       _bmDigitalBarBlueSweepWithTransparency 008b9354     DigitalBarBlueSweepWithTransparency.obj
 0003:002ccc4c       _bmDigitalGaugeButtonOff   008dfc4c     DigitalGaugeButtonOff.obj
 0003:002cf11c       _bmDisplay                 008e211c     Display.obj
 0003:002d699c       _bmDisplayText             008e999c     DisplayText.obj
 0003:002d77fc       _bmDoubleBlueButton        008ea7fc     DoubleBlueButton.obj
 0003:002dc2d4       _bmdownandleftarrow        008ef2d4     downandleftarrow.obj
 0003:002dc39c       _bmdownandleftarrow_black  008ef39c     downandleftarrow_black.obj
 0003:002dc464       _bmdownandleftarrow_blue   008ef464     downandleftarrow_blue.obj
 0003:002dc628       _bmdownandleftarrow_yellow 008ef628     downandleftarrow_yellow.obj
 0003:002dca84       _bmDragAnalogGaugeButtonOn 008efa84     DragAnalogGaugeButtonOn.obj
 0003:002def54       _bmDragButton              008f1f54     DragButton.obj
 0003:002e543c       _bmDragDigitalGaugeButtonOn 008f843c     DragDigitalGaugeButtonOn.obj
 0003:002e790c       _bmDragStageBackground     008fa90c     DragStageBackground.obj
 0003:002f89c4       _bmDragSweepTachButtonOn   0090b9c4     DragSweepTachButtonOn.obj
 0003:002fae94       _bmDragTouchToStage        0090de94     DragTouchToStage.obj
 0003:00310bcc       _bmDrive                   00923bcc     Drive.obj
 0003:00315d50       _bmDriveButton             00928d50     DriveButton.obj
 0003:003166cc       _bmDriveMode               009296cc     DriveMode.obj
 0003:0031b03c       _bmDriveModeBackground     0092e03c     DriveModeBackground.obj
 0003:0033bf34       _bmDriveModeBackgroundNewCompass 0094ef34     DriveModeBackgroundNewCompass.obj
 0003:0036282c       _bmDriveModeBackground_Live 0097582c     DriveModeBackground_Live.obj
 0003:00389124       _bmDriveModeScreen         0099c124     DriveModeScreen.obj
 0003:003bb2bc       _bmDriveModeSetup          009ce2bc     DriveModeSetup.obj
 0003:003bdc9c       _bmDriver                  009d0c9c     Driver.obj
 0003:003c4184       _bmDriverName              009d7184     DriverName.obj
 0003:003c647c       _bmDriverText              009d947c     DriverText.obj
 0003:003ca20c       _bmDriveSpeedOnly          009dd20c     DriveSpeedOnly.obj
 0003:003d9454       _bmDualGaugeBackground     009ec454     DualGaugeBackground.obj
 0003:003ffd4c       _bmDummyAnalog             00a12d4c     DummyAnalog.obj
 0003:00420164       _bmDummyDigital            00a33164     DummyDigital.obj
 0003:0044057c       _bmE                       00a5357c     E.obj
 0003:004420d4       _bmENE                     00a550d4     ENE.obj
 0003:00443c2c       _bmEngineCylinders         00a56c2c     EngineCylinders.obj
 0003:004479bc       _bmEraseAll                00a5a9bc     EraseAll.obj
 0003:0044dea4       _bmEraseSD                 00a60ea4     EraseSD.obj
 0003:0045438c       _bmESE                     00a6738c     ESE.obj
 0003:00455ee4       _bmFactoryDefaults         00a68ee4     FactoryDefaults.obj
 0003:0045c3cc       _bmFormatSD                00a6f3cc     FormatSD.obj
 0003:0046262c       _bmfourwayarrow            00a7562c     fourwayarrow.obj
 0003:00463014       _bmGearing                 00a76014     Gearing.obj
 0003:00466da4       _bmGearRatio               00a79da4     GearRatio.obj
 0003:0046b404       _bmGearRatioButton         00a7e404     GearRatioButton.obj
 0003:0046d174       _bmGearRatioText           00a80174     GearRatioText.obj
 0003:00470f04       _bmGenericGaugeHelp        00a83f04     GenericGaugeHelp.obj
 0003:004977fc       _bmGMeterBackground        00aaa7fc     GMeterBackground.obj
 0003:004be0f4       _bmGoProIcon               00ad10f4     GoProIcon.obj
 0003:004bf6cc       _bmGoRacing                00ad26cc     GoRacing.obj
 0003:004d9780       _bmGoRacingIcon            00aec780     GoRacingIcon.obj
 0003:004ddb9c       _bmGoRacingText            00af0b9c     GoRacingText.obj
 0003:004e192c       _bmGPSInfoText             00af492c     GPSInfoText.obj
 0003:004e6ce4       _bmGPSsignal               00af9ce4     GPSsignal.obj
 0003:004fb5f4       _bmGrayButton              00b0e5f4     GrayButton.obj
 0003:004ffd40       _bmGreenButton             00b12d40     GreenButton.obj
 0003:00500824       _bmGreenCheck              00b13824     GreenCheck.obj
 0003:005024fc       _bmGreenInputButton        00b154fc     GreenInputButton.obj
 0003:0050561c       _bmGreenSD                 00b1861c     GreenSD.obj
 0003:00505f84       _bmHelp                    00b18f84     Help.obj
 0003:00509aa0       _bmHelpDisabled            00b1caa0     HelpDisabled.obj
 0003:00509f1c       _bmHelpExitButton          00b1cf1c     HelpExitButton.obj
 0003:0050b074       _bmHelpNextButton          00b1e074     HelpNextButton.obj
 0003:0050c324       _bmHelpPreviousButton      00b1f324     HelpPreviousButton.obj
 0003:0050d62c       _bmHoldTime                00b2062c     HoldTime.obj
 0003:00513b14       _bmInfoButton              00b26b14     InfoButton.obj
 0003:005144c4       _bmInfoButton1             00b274c4     InfoButton1.obj
 0003:00514f4c       _bmInfoButton2             00b27f4c     InfoButton2.obj
 0003:005159d4       _bmInfoButton3             00b289d4     InfoButton3.obj
 0003:0051645c       _bmInfoButton4             00b2945c     InfoButton4.obj
 0003:00516ee4       _bmInfoButton5             00b29ee4     InfoButton5.obj
 0003:0051796c       _bmInputs                  00b2a96c     Inputs.obj
 0003:0051c2dc       _bmInputsBackground        00b2f2dc     InputsBackground.obj
 0003:0054e474       _bmInputText               00b61474     InputText.obj
 0003:00550e54       _bmInstruments             00b63e54     Instruments.obj
 0003:0056af08       _bmInstrumentsIcon         00b7df08     InstrumentsIcon.obj
 0003:005aeb18       _bmKeyboardBlank           00bc1b18     KeyboardBlank.obj
 0003:005bbb3c       _bmLapHoldTimeButton       00bceb3c     LapHoldTimeButton.obj
 0003:005c2024       _bmLapsQualifyButton       00bd5024     LapsQualifyButton.obj
 0003:005c850c       _bmLapsQualifyText         00bdb50c     LapsQualifyText.obj
 0003:005cc29c       _bmLaptimeHold             00bdf29c     LaptimeHold.obj
 0003:005d002c       _bmLaunch                  00be302c     Launch.obj
 0003:005d499c       _bmLaunchGForceText        00be799c     LaunchG-Force-Text.obj
 0003:005d872c       _bmLaunchGForce            00beb72c     LaunchG-Force.obj
 0003:005de00c       _bmleftarrow               00bf100c     leftarrow.obj
 0003:005de81c       _bmLeftGauge               00bf181c     LeftGauge.obj
 0003:005ee50c       _bmLeftHalfDarkAsphalt     00c0150c     LeftHalfDarkAsphalt.obj
 0003:005ff334       _bmLockedSD                00c12334     LockedSD.obj
 0003:005ffc8c       _bmMaxRPM                  00c12c8c     MaxRPM.obj
 0003:00603a1c       _bmMediumBlueButton        00c16a1c     MediumBlueButton.obj
 0003:006050cc       _bmMediumBlueButtonDark    00c180cc     MediumBlueButtonDark.obj
 0003:0060677c       _bmMediumSpinner           00c1977c     MediumSpinner.obj
 0003:0060d15c       _bmMenuButton              00c2015c     MenuButton.obj
 0003:00613474       _bmMiniButton              00c26474     MiniButton.obj
 0003:006165c4       _bmMobiusIcon              00c295c4     Mobius Icon.obj
 0003:00617b9c       _bmN                       00c2ab9c     N.obj
 0003:006196f4       _bmNarrowSpinner           00c2c6f4     NarrowSpinner.obj
 0003:0061df84       _bmNE                      00c30f84     NE.obj
 0003:0061fadc       _bmNNE                     00c32adc     NNE.obj
 0003:00621634       _bmNNW                     00c34634     NNW.obj
 0003:0062318c       _bmno                      00c3618c     no.obj
 0003:00627a3c       _bmNoAudioSlideout         00c3aa3c     NoAudioSlideout.obj
 0003:00635d14       _bmNoSignal                00c48d14     NoSignal.obj
 0003:006367cc       _bmNoSUIcon                00c497cc     NoSUIcon.obj
 0003:00637d3c       _bmNotCapital              00c4ad3c     NotCapital.obj
 0003:00677c28       _bmNumPadBlank             00c8ac28     NumPadBlank.obj
 0003:00684c4c       _bmNW                      00c97c4c     NW.obj
 0003:006867a4       _bmOffUnSelected           00c997a4     OffUnSelected.obj
 0003:00687ae4       _bmOneEighthOff            00c9aae4     OneEighthOff.obj
 0003:006895cc       _bmOneEighthOn             00c9c5cc     OneEighthOn.obj
 0003:0068b0b4       _bmOneQuarterOff           00c9e0b4     OneQuarterOff.obj
 0003:0068cb9c       _bmOneQuarterOn            00c9fb9c     OneQuarterOn.obj
 0003:0068e684       _bmOneThousandOff          00ca1684     OneThousandOff.obj
 0003:0069016c       _bmOneThousandOn           00ca316c     OneThousandOn.obj
 0003:00692680       _bmOnOffButons             00ca5680     OnOffButons.obj
 0003:00692d7c       _bmOnOffGreen              00ca5d7c     OnOffGreen.obj
 0003:00694ae8       _bmOnOffWhite              00ca7ae8     OnOffWhite.obj
 0003:006951e4       _bmOnSelected              00ca81e4     OnSelected.obj
 0003:006964c4       _bmOrangeButton            00ca94c4     OrangeButton.obj
 0003:00698e94       _bmPersonalizeButton       00cabe94     PersonalizeButton.obj
 0003:0069f37c       _bmPersonalizeText         00cb237c     PersonalizeText.obj
 0003:006a310c       _bmPowerBandEnd            00cb610c     PowerBandEnd.obj
 0003:006a6e9c       _bmPowerBandStart          00cb9e9c     PowerBandStart.obj
 0003:006aac2c       _bmPredictive              00cbdc2c     Predictive.obj
 0003:006af59c       _bmPredictiveLapText       00cc259c     PredictiveLapText.obj
 0003:006b332c       _bmPredictiveScaleText     00cc632c     PredictiveScaleText.obj
 0003:006b70bc       _bmRace                    00cca0bc     Race.obj
 0003:006bd5a4       _bmRaceCamIcon             00cd05a4     RaceCamIcon.obj
 0003:006beb7c       _bmRaceReview              00cd1b7c     RaceReview.obj
 0003:006d8c30       _bmRaceReviewIcon          00cebc30     RaceReviewIcon.obj
 0003:006dd04c       _bmRaceReviewText          00cf004c     RaceReviewText.obj
 0003:006e0ddc       _bmRaceScreenButton        00cf3ddc     RaceScreenButton.obj
 0003:006e72c4       _bmRaceSettings            00cfa2c4     RaceSettings.obj
 0003:006f904c       _bmRaceSettingsText        00d0c04c     RaceSettingsText.obj
 0003:006fba2c       _bmRaceSetup               00d0ea2c     RaceSetup.obj
 0003:00715ae0       _bmRaceSetupIcon           00d28ae0     RaceSetupIcon.obj
 0003:00719efc       _bmRaceSetupText           00d2cefc     RaceSetupText.obj
 0003:0071dc8c       _bmReadytoLaunchBurnout    00d30c8c     ReadytoLaunchBurnout.obj
 0003:00732664       _bmReadyToLaunchCorvette   00d45664     ReadyToLaunchCorvette.obj
 0003:0074703c       _bmRecordingOff            00d5a03c     RecordingOff.obj
 0003:00749f3c       _bmRecordingOn             00d5cf3c     RecordingOn.obj
 0003:0074ce3c       _bmRecordSpeed             00d5fe3c     RecordSpeed.obj
 0003:00752970       _bmRedButton               00d65970     RedButton.obj
 0003:00753454       _bmRedInputButton          00d66454     RedInputButton.obj
 0003:00756584       _bmRedlineRPM              00d69584     RedlineRPM.obj
 0003:0075a314       _bmRedSD                   00d6d314     RedSD.obj
 0003:0075ac7c       _bmReplay1080Icon          00d6dc7c     Replay 1080 Icon.obj
 0003:0075c254       _bmReplayMiniIcon          00d6f254     Replay Mini Icon.obj
 0003:0075d82c       _bmReplayPrimeIcon         00d7082c     Replay Prime Icon.obj
 0003:0075ee04       _bmReplayIcon              00d71e04     ReplayIcon.obj
 0003:007603dc       _bmResetPredictiveLap      00d733dc     ResetPredictiveLap.obj
 0003:007668c4       _bmRightGauge              00d798c4     RightGauge.obj
 0003:0078a068       _bmRoadRace                00d9d068     RoadRace.obj
 0003:0078e484       _bmS                       00da1484     S.obj
 0003:00791de0       _bmSave                    00da4de0     Save.obj
 0003:007928d4       _bmScale                   00da58d4     Scale.obj
 0003:00794664       _bmscrollarrow             00da7664     scrollarrow.obj
 0003:007946d0       _bmscrollarrow2            00da76d0     scrollarrow2.obj
 0003:00794b04       _bmSE                      00da7b04     SE.obj
 0003:0079665c       _bmSessionDetails          00da965c     SessionDetails.obj
 0003:0079a570       _bmShortBottomBar          00dad570     ShortBottomBar.obj
 0003:0079ac38       _bmShortTopBar             00dadc38     ShortTopBar.obj
 0003:0079aec4       _bmSignal1                 00dadec4     Signal1.obj
 0003:0079bd24       _bmSignal2                 00daed24     Signal2.obj
 0003:0079c2dc       _bmSignal3                 00daf2dc     Signal3.obj
 0003:0079ce0c       _bmSignal4                 00dafe0c     Signal4.obj
 0003:0079d93c       _bmSignal5                 00db093c     Signal5.obj
 0003:0079e46c       _bmSingleSpinner           00db146c     SingleSpinner.obj
 0003:007ad9c4       _bmSlideOut                00dc09c4     SlideOut.obj
 0003:007c15d4       _bmSlideOutMuted           00dd45d4     SlideOutMuted.obj
 0003:007d4fa4       _bmSliderBlue              00de7fa4     SliderBlue.obj
 0003:007d71c8       _bmSliderDotTransparent    00dea1c8     SliderDotTransparent.obj
 0003:007d76dc       _bmSliderGreen             00dea6dc     SliderGreen.obj
 0003:007d9738       _bmSmallBlackButton        00dec738     SmallBlackButton.obj
 0003:007da950       _bmSmallBlueButton         00ded950     SmallBlueButton.obj
 0003:007f49b8       _bmSmallGauge              00e079b8     SmallGauge.obj
 0003:007fab78       _bmSmallRedButton          00e0db78     SmallRedButton.obj
 0003:007fb134       _bmSmallWhiteButton        00e0e134     SmallWhiteButton.obj
 0003:007fc36c       _bmSmallYellowButton       00e0f36c     SmallYellowButton.obj
 0003:007fd60c       _bmSonyIcon                00e1060c     SonyIcon.obj
 0003:007fe7b4       _bmSpeedoList              00e117b4     SpeedoList.obj
 0003:008028cc       _bmSplashScreen            00e158cc     SplashScreen.obj
 0003:0080c11c       _bmSSE                     00e1f11c     SSE.obj
 0003:0080dc74       _bmSSW                     00e20c74     SSW.obj
 0003:0080f7cc       _bmStartFinish             00e227cc     StartFinish.obj
 0003:00815cb4       _bmStartFinishText         00e28cb4     StartFinishText.obj
 0003:0081b250       _bmStdGreenButton          00e2e250     StdGreenButton.obj
 0003:0081bc14       _bmStorage                 00e2ec14     Storage.obj
 0003:008234ac       _bmStorageText             00e364ac     StorageText.obj
 0003:00824314       _bmSUGoodIcon              00e37314     SUGoodIcon.obj
 0003:00824e74       _bmSW                      00e37e74     SW.obj
 0003:008269cc       _bmSweepTachButtonOff      00e399cc     SweepTachButtonOff.obj
 0003:00828e9c       _bmSystemSettingsText      00e3be9c     SystemSettingsText.obj
 0003:0082cc2c       _bmSystemSetup             00e3fc2c     SystemSetup.obj
 0003:00846ce0       _bmSystemSetupIcon         00e59ce0     SystemSetupIcon.obj
 0003:0084b0fc       _bmTach                    00e5e0fc     Tach.obj
 0003:0084fa6c       _bmTachSetup               00e62a6c     TachSetup.obj
 0003:008541ec       _bmTachSliderGreen         00e671ec     TachSliderGreen.obj
 0003:008552c4       _bmTachSliderRed           00e682c4     TachSliderRed.obj
 0003:0085576c       _bmTachSliderYellow        00e6876c     TachSliderYellow.obj
 0003:00862334       _bmTachStartRPM            00e75334     TachStartRPM.obj
 0003:00864d14       _bmTapScreenAtSF           00e77d14     TapScreenAtSF.obj
 0003:00887f14       _bmtarget                  00e9af14     target.obj
 0003:00887fe4       _bmtestbutton              00e9afe4     testbutton.obj
 0003:0088872c       _bmtestbutton_pressed      00e9b72c     testbutton_pressed.obj
 0003:0088a2f8       _bmthreewayarrow           00e9d2f8     threewayarrow.obj
 0003:0088ab3c       _bmTime                    00e9db3c     Time.obj
 0003:0088f4ac       _bmTimeGPS                 00ea24ac     TimeGPS.obj
 0003:00893a24       _bmTimeList                00ea6a24     TimeList.obj
 0003:008a8764       _bmTimeList_wTrans         00ebb764     TimeList_wTrans.obj
 0003:008ab494       _bmTimeSlip                00ebe494     TimeSlip.obj
 0003:008b909c       _bmTimeText                00ecc09c     TimeText.obj
 0003:008bcc4c       _bmTinyBlackButton         00ecfc4c     TinyBlackButton.obj
 0003:008be744       _bmTireSize                00ed1744     TireSize.obj
 0003:008c277c       _bmTopBar                  00ed577c     TopBar.obj
 0003:008c2cfc       _bmTopFakeButton           00ed5cfc     TopFakeButton.obj
 0003:008c56dc       _bmTrack                   00ed86dc     Track.obj
 0003:008cbbc4       _bmTrackSettingsText       00edebc4     TrackSettingsText.obj
 0003:008cf954       _bmTrackText               00ee2954     TrackText.obj
 0003:008d36e4       _bmTrackType               00ee66e4     TrackType.obj
 0003:008d9bcc       _bmTrackTypeText           00eecbcc     TrackTypeText.obj
 0003:008dd5dc       _bmTransparentButton       00ef05dc     TransparentButton.obj
 0003:008dff0c       _bmTransRatio              00ef2f0c     TransRatio.obj
 0003:008e3c9c       _bmTransSweepTachOnAsphalt 00ef6c9c     TransSweepTachOnAsphalt.obj
 0003:0090a594       _bmTraqdashCamBanner       00f1d594     TraqdashCamBanner.obj
 0003:0090e6ec       _bmTraqmateLogo            00f216ec     TraqmateLogo.obj
 0003:0090eca4       _bmUnits                   00f21ca4     Units.obj
 0003:0091358c       _bmUnitsText               00f2658c     UnitsText.obj
 0003:0092fa7c       _bmUniversalBackgroundCenter 00f42a7c     UniversalBackground&Center.obj
 0003:009349c4       _bmupandleftarrow          00f479c4     upandleftarrow.obj
 0003:00935990       _bmUSBCamIcon              00f48990     USBCamIcon.obj
 0003:009360bc       _bmVehicle                 00f490bc     Vehicle.obj
 0003:0093c5a4       _bmVehicleName             00f4f5a4     VehicleName.obj
 0003:0093de1c       _bmVehicleSettingsText     00f50e1c     VehicleSettingsText.obj
 0003:00941bac       _bmVehicleText             00f54bac     VehicleText.obj
 0003:0094593c       _bmVehicleWeight           00f5893c     VehicleWeight.obj
 0003:0094a970       _bmW                       00f5d970     W.obj
 0003:0094b224       _bmWaitingForCamera        00f5e224     WaitingForCamera.obj
 0003:0095f804       _bmWarningPopupBlank       00f72804     WarningPopupBlank.obj
 0003:0096022c       _bmWarningRPM              00f7322c     WarningRPM.obj
 0003:00963fbc       _bmWeight                  00f76fbc     Weight.obj
 0003:0096892c       _bmWhiteSD                 00f7b92c     WhiteSD.obj
 0003:00969294       _bmWiFiDisabledIcon        00f7c294     WiFiDisabledIcon.obj
 0003:0096a86c       _bmWiFiEnabledIcon         00f7d86c     WiFiEnabledIcon.obj
 0003:0096be44       _bmWNW                     00f7ee44     WNW.obj
 0003:0096d99c       _bmWSW                     00f8099c     WSW.obj
 0003:0096f4f4       _bmXIcon                   00f824f4     XIcon.obj
 0003:009709fc       _bmYellowButton            00f839fc     YellowButton.obj
 0003:00972fbc       _bmYellowDigits            00f85fbc     YellowDigits.obj
 0003:00973e44       _bmYellowSD                00f86e44     YellowSD.obj
 0003:00974604       _bmYellow_0                00f87604     Yellow_0.obj
 0003:0097619c       _bmYellow_1                00f8919c     Yellow_1.obj
 0003:00977214       _bmYellow_2                00f8a214     Yellow_2.obj
 0003:009778f4       _bmYellow_3                00f8a8f4     Yellow_3.obj
 0003:009794d4       _bmYellow_4                00f8c4d4     Yellow_4.obj
 0003:0097adf0       _bmYellow_5                00f8ddf0     Yellow_5.obj
 0003:0097b4e4       _bmYellow_6                00f8e4e4     Yellow_6.obj
 0003:0097d07c       _bmYellow_7                00f9007c     Yellow_7.obj
 0003:0097e0ec       _bmYellow_8                00f910ec     Yellow_8.obj
 0003:0097f13c       _bmYellow_9                00f9213c     Yellow_9.obj
 0003:0097f814       _bmyes                     00f92814     yes.obj
 0003:00983ec0       _UpperRect                 00f96ec0     LEDHandler.obj
 0003:00983ec8       _LowerRect                 00f96ec8     LEDHandler.obj
 0003:00983ed0       _BacklightBrightness       00f96ed0     LEDHandler.obj
 0003:00984060       _WarningLEDBrightness      00f97060     LEDHandler.obj
 0003:009841f0       _TachLEDBrightness         00f971f0     LEDHandler.obj
 0003:00984380       _AmbientLightIntensity     00f97380     LEDHandler.obj
 0003:00984654       __real@c1a00000            00f97654     LEDHandler.obj
 0003:00984658       __real@43c20000            00f97658     LEDHandler.obj
 0003:0098465c       __real@c1e00000            00f9765c     LEDHandler.obj
 0003:00984660       __real@43dc0000            00f97660     LEDHandler.obj
 0003:00984664       __real@43eb0000            00f97664     LEDHandler.obj
 0003:00984668       __real@c1f00000            00f97668     LEDHandler.obj
 0003:0098466c       __real@40400000            00f9766c     LEDHandler.obj
 0003:00984670       __real@43f78000            00f97670     LEDHandler.obj
 0003:00984674       __real@c1c80000            00f97674     LEDHandler.obj
 0003:00984678       __real@44098000            00f97678     LEDHandler.obj
 0003:0098467c       __real@c25c0000            00f9767c     LEDHandler.obj
 0003:00984680       __real@441b0000            00f97680     LEDHandler.obj
 0003:00984684       __real@c28c0000            00f97684     LEDHandler.obj
 0003:00984688       __real@44280000            00f97688     LEDHandler.obj
 0003:0098468c       __real@c2500000            00f9768c     LEDHandler.obj
 0003:009847b0       _NullEntry                 00f977b0     RaceSetupScreens.obj
 0003:009847b4       _NotAvailable              00f977b4     RaceSetupScreens.obj
 0003:00984840       _NoneInRange               00f97840     RaceSetupScreens.obj
 0003:00984ce8       __real@4050000000000000    00f97ce8     RPMSweep.obj
 0003:00984cf4       __real@42ac0000            00f97cf4     RPMSweep.obj
 0003:00984cf8       __real@430c0000            00f97cf8     RPMSweep.obj
 0003:00984d00       __real@3ff599999999999a    00f97d00     RPMSweep.obj
 0003:00984d10       __real@3ff4000000000000    00f97d10     RPMSweep.obj
 0003:00984d20       __real@3ff2666666666666    00f97d20     RPMSweep.obj
 0003:00984d2c       __real@43070000            00f97d2c     RPMSweep.obj
 0003:00984d30       __real@43020000            00f97d30     RPMSweep.obj
 0003:00984d34       __real@42fa0000            00f97d34     RPMSweep.obj
 0003:00984d38       __real@4047000000000000    00f97d38     RPMSweep.obj
 0003:00984d44       __real@42f00000            00f97d44     RPMSweep.obj
 0003:00984d48       __real@404a000000000000    00f97d48     RPMSweep.obj
 0003:00984d54       __real@42e60000            00f97d54     RPMSweep.obj
 0003:00984d58       __real@404b000000000000    00f97d58     RPMSweep.obj
 0003:00984d68       __real@4018000000000000    00f97d68     RPMSweep.obj
 0003:00984d74       __real@42dc0000            00f97d74     RPMSweep.obj
 0003:00984d78       __real@404b800000000000    00f97d78     RPMSweep.obj
 0003:00984d84       __real@42be0000            00f97d84     RPMSweep.obj
 0003:00984d88       __real@4006000000000000    00f97d88     RPMSweep.obj
 0003:00984d98       __real@400b333333333333    00f97d98     RPMSweep.obj
 0003:00984da8       __real@4062c00000000000    00f97da8     RPMSweep.obj
 0003:00984db4       __real@42d20000            00f97db4     RPMSweep.obj
 0003:00984db8       __real@42700000            00f97db8     RPMSweep.obj
 0003:00984f40       __real@4056800000000000    00f97f40     SFScreens.obj
 0003:00984f50       __real@c056800000000000    00f97f50     SFScreens.obj
 0003:00984f60       __real@c066800000000000    00f97f60     SFScreens.obj
 0003:00985618       _romTrackTable             00f98618     TrackDetect.obj
 0003:0098d4a8       __real@40cf400000000000    00fa04a8     TrackDetect.obj
 0003:0098d4b8       __real@404ca5dc1a5d2372    00fa04b8     TrackDetect.obj
 0003:0098d4c8       __real@40fb6f7000000000    00fa04c8     TrackDetect.obj
 0003:0098d4d8       __real@3fe921fb5449fbb2    00fa04d8     TrackDetect.obj
 0003:0098d4e8       __real@3f40624dd2f1a9fc    00fa04e8     TrackDetect.obj
 0003:0098d588       _TimeRect                  00fa0588     VehicleSettingsScreens.obj
 0003:0098d590       _DistRect                  00fa0590     VehicleSettingsScreens.obj
 0003:0098d598       _RPMRect                   00fa0598     VehicleSettingsScreens.obj
 0003:0098dad4       __real@400d1889            00fa0ad4     VehicleSettingsScreens.obj
 0003:0098dad8       __real@3ee83d43            00fa0ad8     VehicleSettingsScreens.obj
 0003:0098dadc       __real@470ca000            00fa0adc     VehicleSettingsScreens.obj
 0003:0098dae0       __real@48afc800            00fa0ae0     VehicleSettingsScreens.obj
 0003:0098dae8       __real@40c3880000000000    00fa0ae8     VehicleSettingsScreens.obj
 0003:0098daf4       __real@47c35000            00fa0af4     VehicleSettingsScreens.obj
 0003:0098daf8       __real@40cf6eb333333333    00fa0af8     VehicleSettingsScreens.obj
 0003:0098db08       __real@4099255c28f5c28f    00fa0b08     VehicleSettingsScreens.obj
 0003:0098db14       __real@481d2980            00fa0b14     VehicleSettingsScreens.obj
 0003:0098db18       __real@40833333            00fa0b18     VehicleSettingsScreens.obj
 0003:0098db34       _GUI_XBF_APIList_Prop_AA2_Ext 00fa0b34     GUIAA_Char2Ext_XBF.obj
 0003:0098db60       _GUI_XBF_APIList_Prop_AA4_Ext 00fa0b60     GUIAA_Char4Ext_XBF.obj
 0003:0098db80       _GUI_SIF_APIList_Prop_AA2  00fa0b80     GUIAA_SIF2.obj
 0003:0098dba8       _GUI_SIF_APIList_Prop_AA2_EXT 00fa0ba8     GUIAA_SIF2Ext.obj
 0003:0098dbc8       _GUI_SIF_APIList_Prop_AA4  00fa0bc8     GUIAA_SIF4.obj
 0003:0098dbf0       _GUI_SIF_APIList_Prop_AA4_EXT 00fa0bf0     GUIAA_SIF4Ext.obj
 0003:0098dc10       _LCD_API_ColorConv_111     00fa0c10     GUICC_111.obj
 0003:0098dc1c       _LCD_API_ColorConv_M111    00fa0c1c     GUICC_111.obj
 0003:0098dc2c       _LCD_API_ColorConv_222     00fa0c2c     GUICC_222.obj
 0003:0098dc38       _LCD_API_ColorConv_M222    00fa0c38     GUICC_222.obj
 0003:0098dc48       _LCD_API_ColorConv_233     00fa0c48     GUICC_233.obj
 0003:0098dc58       _LCD_API_ColorConv_323     00fa0c58     GUICC_323.obj
 0003:0098dc68       _LCD_API_ColorConv_332     00fa0c68     GUICC_332.obj
 0003:0098dc78       _LCD_API_ColorConv_444_12  00fa0c78     GUICC_444_12.obj
 0003:0098dc88       _LCD_API_ColorConv_444_12_1 00fa0c88     GUICC_444_12_1.obj
 0003:0098dc98       _LCD_API_ColorConv_444_16  00fa0c98     GUICC_444_16.obj
 0003:0098dca8       _LCD_API_ColorConv_555     00fa0ca8     GUICC_555.obj
 0003:0098dcb8       _LCD_API_ColorConv_556     00fa0cb8     GUICC_556.obj
 0003:0098dcc8       _LCD_API_ColorConv_565     00fa0cc8     GUICC_565.obj
 0003:0098dcd8       _LCD_API_ColorConv_655     00fa0cd8     GUICC_655.obj
 0003:0098dce8       _LCD_API_ColorConv_666     00fa0ce8     GUICC_666.obj
 0003:0098dcf8       _LCD_API_ColorConv_822216  00fa0cf8     GUICC_822216.obj
 0003:0098dd08       _LCD_API_ColorConv_84444   00fa0d08     GUICC_84444.obj
 0003:0098dd18       _LCD_API_ColorConv_8666    00fa0d18     GUICC_8666.obj
 0003:0098dd28       _LCD_API_ColorConv_8666_1  00fa0d28     GUICC_8666_1.obj
 0003:0098dd38       _LCD_API_ColorConv_M233    00fa0d38     GUICC_M233.obj
 0003:0098dd48       _LCD_API_ColorConv_M323    00fa0d48     GUICC_M323.obj
 0003:0098dd58       _LCD_API_ColorConv_M332    00fa0d58     GUICC_M332.obj
 0003:0098dd68       _LCD_API_ColorConv_M444_12 00fa0d68     GUICC_M444_12.obj
 0003:0098dd78       _LCD_API_ColorConv_M444_16 00fa0d78     GUICC_M444_16.obj
 0003:0098dd88       _LCD_API_ColorConv_M555    00fa0d88     GUICC_M555.obj
 0003:0098dd98       _LCD_API_ColorConv_M556    00fa0d98     GUICC_M556.obj
 0003:0098dda8       _LCD_API_ColorConv_M565    00fa0da8     GUICC_M565.obj
 0003:0098ddb8       _LCD_API_ColorConv_M655    00fa0db8     GUICC_M655.obj
 0003:0098ddc8       _LCD_API_ColorConv_M666    00fa0dc8     GUICC_M666.obj
 0003:0098ddd8       _LCD_API_ColorConv_M8565   00fa0dd8     GUICC_M8565.obj
 0003:0098dde8       _LCD_API_ColorConv_M888    00fa0de8     GUICC_M888.obj
 0003:0098ddf8       _LCD_API_ColorConv_M8888   00fa0df8     GUICC_M8888.obj
 0003:0098de08       _LCD_API_ColorConv_2       00fa0e08     GUICC_2.obj
 0003:0098de18       _LCD_API_ColorConv_4       00fa0e18     GUICC_4.obj
 0003:0098de28       _LCD_API_ColorConv_5       00fa0e28     GUICC_5.obj
 0003:0098de38       _LCD_API_ColorConv_0       00fa0e38     GUICC_0.obj
 0003:0098de48       _LCD_API_ColorConv_1       00fa0e48     GUICC_1.obj
 0003:0098de58       _LCD_API_ColorConv_888     00fa0e58     GUICC_888.obj
 0003:0098de68       _LCD_API_ColorConv_8888    00fa0e68     GUICC_8888.obj
 0003:0098de78       _GUI_Pow10                 00fa0e78     GUI_AddDecShift.obj
 0003:0098dec8       _GUI_BitmapArrowL          00fa0ec8     GUI_CursorArrowL.obj
 0003:0098dedc       _GUI_CursorArrowL          00fa0edc     GUI_CursorArrowL.obj
 0003:0098def0       _GUI_BitmapArrowLI         00fa0ef0     GUI_CursorArrowLI.obj
 0003:0098df04       _GUI_CursorArrowLI         00fa0f04     GUI_CursorArrowLI.obj
 0003:0098df18       _GUI_Pixels_ArrowL         00fa0f18     GUI_CursorArrowLPx.obj
 0003:0098dfcc       _GUI_BitmapArrowM          00fa0fcc     GUI_CursorArrowM.obj
 0003:0098dfe0       _GUI_CursorArrowM          00fa0fe0     GUI_CursorArrowM.obj
 0003:0098dff4       _GUI_BitmapArrowMI         00fa0ff4     GUI_CursorArrowMI.obj
 0003:0098e008       _GUI_CursorArrowMI         00fa1008     GUI_CursorArrowMI.obj
 0003:0098e01c       _GUI_Pixels_ArrowM         00fa101c     GUI_CursorArrowMPx.obj
 0003:0098e064       _GUI_BitmapArrowS          00fa1064     GUI_CursorArrowS.obj
 0003:0098e078       _GUI_CursorArrowS          00fa1078     GUI_CursorArrowS.obj
 0003:0098e08c       _GUI_BitmapArrowSI         00fa108c     GUI_CursorArrowSI.obj
 0003:0098e0a0       _GUI_CursorArrowSI         00fa10a0     GUI_CursorArrowSI.obj
 0003:0098e0b4       _GUI_Pixels_ArrowS         00fa10b4     GUI_CursorArrowSPx.obj
 0003:0098e0ec       _GUI_BitmapCrossL          00fa10ec     GUI_CursorCrossL.obj
 0003:0098e100       _GUI_CursorCrossL          00fa1100     GUI_CursorCrossL.obj
 0003:0098e114       _GUI_BitmapCrossLI         00fa1114     GUI_CursorCrossLI.obj
 0003:0098e128       _GUI_CursorCrossLI         00fa1128     GUI_CursorCrossLI.obj
 0003:0098e140       _GUI_Pixels_CrossL         00fa1140     GUI_CursorCrossLPx.obj
 0003:0098e26c       _GUI_BitmapCrossM          00fa126c     GUI_CursorCrossM.obj
 0003:0098e280       _GUI_CursorCrossM          00fa1280     GUI_CursorCrossM.obj
 0003:0098e294       _GUI_BitmapCrossMI         00fa1294     GUI_CursorCrossMI.obj
 0003:0098e2a8       _GUI_CursorCrossMI         00fa12a8     GUI_CursorCrossMI.obj
 0003:0098e2c0       _GUI_Pixels_CrossM         00fa12c0     GUI_CursorCrossMPx.obj
 0003:0098e358       _GUI_BitmapCrossS          00fa1358     GUI_CursorCrossS.obj
 0003:0098e36c       _GUI_CursorCrossS          00fa136c     GUI_CursorCrossS.obj
 0003:0098e380       _GUI_BitmapCrossSI         00fa1380     GUI_CursorCrossSI.obj
 0003:0098e394       _GUI_CursorCrossSI         00fa1394     GUI_CursorCrossSI.obj
 0003:0098e3a8       _GUI_Pixels_CrossS         00fa13a8     GUI_CursorCrossSPx.obj
 0003:0098e3e4       _GUI_CursorHeaderM         00fa13e4     GUI_CursorHeaderM.obj
 0003:0098e40c       _GUI_CursorHeaderMI        00fa140c     GUI_CursorHeaderMI.obj
 0003:0098e420       _GUI_PixelsHeaderM         00fa1420     GUI_CursorHeaderMPx.obj
 0003:0098e494       _GUI_CursorPal             00fa1494     GUI_CursorPal.obj
 0003:0098e4b0       _GUI_CursorPalI            00fa14b0     GUI_CursorPalI.obj
 0003:0098e4c0       _GUI_BitmapMethods24       00fa14c0     GUI_DrawBitmap_24.obj
 0003:0098e4d0       _GUI_BitmapMethods555      00fa14d0     GUI_DrawBitmap_555.obj
 0003:0098e4dc       _GUI_BitmapMethodsM555     00fa14dc     GUI_DrawBitmap_555.obj
 0003:0098e4ec       _GUI_BitmapMethods565      00fa14ec     GUI_DrawBitmap_565.obj
 0003:0098e4f8       _GUI_BitmapMethodsM565     00fa14f8     GUI_DrawBitmap_565.obj
 0003:0098e508       _GUI_BitmapMethods888      00fa1508     GUI_DrawBitmap_888.obj
 0003:0098e514       _GUI_BitmapMethodsM888     00fa1514     GUI_DrawBitmap_888.obj
 0003:0098e524       _GUI_BitmapMethods8888     00fa1524     GUI_DrawBitmap_8888.obj
 0003:0098e558       _aTan                      00fa1558     GUI_DrawLine.obj
 0003:0098e5d4       _GUI_ENC_APIList_EXT       00fa15d4     GUI_EncExt.obj
 0003:0098e5e4       _GUI_ENC_APIList_SJIS      00fa15e4     GUI_EncJS.obj
 0003:0098e678       _GUI_GIF__aInterlaceOffset 00fa1678     GUI_GIF.obj
 0003:0098e688       _GUI_GIF__aInterlaceYPos   00fa1688     GUI_GIF.obj
 0003:0098eb44       __real@40490fda            00fa1b44     GUI_PolyRotate.obj
 0003:0098eb48       __real@482fc800            00fa1b48     GUI_PolyRotate.obj
 0003:0098eb8c       _GUIDRV_Rotate_API         00fa1b8c     GUI_SetOrientation.obj
 0003:0098ebcc       _GUI_OrientationAPI_C0     00fa1bcc     GUI_SetOrientationC0.obj
 0003:0098ebf4       _GUI_OrientationAPI_C16    00fa1bf4     GUI_SetOrientationC16.obj
 0003:0098ec1c       _GUI_OrientationAPI_C32    00fa1c1c     GUI_SetOrientationC32.obj
 0003:0098ec44       _GUI_OrientationAPI_C8     00fa1c44     GUI_SetOrientationC8.obj
 0003:0098ec6c       _GUI_SIF_APIList_Prop      00fa1c6c     GUI_SIF_Prop.obj
 0003:0098ec94       _GUI_SIF_APIList_Prop_Ext  00fa1c94     GUI_SIF_PropExt.obj
 0003:0098ecb4       _GUI_SIF_APIList_Prop_Frm  00fa1cb4     GUI_SIF_PropFrm.obj
 0003:0098ed10       _GUI_UC_None               00fa1d10     GUI_UC_EncodeNone.obj
 0003:0098ed38       __real@bf000000            00fa1d38     GUI_Valf.obj
 0003:0098ed3c       __real@3089705f            00fa1d3c     GUI_Valf.obj
 0003:0098ed40       _GUI_XBF_APIList_Prop      00fa1d40     GUI_XBF_Prop.obj
 0003:0098ed68       _GUI_XBF_APIList_Prop_Ext  00fa1d68     GUI_XBF_PropExt.obj
 0003:0098ed88       _GUI_XBF_APIList_Prop_Frm  00fa1d88     GUI_XBF_PropFrm.obj
 0003:0099f598       _LCD_aMirror               00fb2598     LCD_Mirror.obj
 0003:0099f6cc       _GUI_BitmapMethodsRLE16    00fb26cc     LCD_RLE16.obj
 0003:0099f6d8       _GUI_BitmapMethodsRLEM16   00fb26d8     LCD_RLE16.obj
 0003:0099f6e8       _GUI_BitmapMethodsRLE4     00fb26e8     LCD_RLE4.obj
 0003:0099f6f8       _GUI_BitmapMethodsRLE8     00fb26f8     LCD_RLE8.obj
 0003:0099f708       _GUIDRV_Template_API       00fb2708     GUIDRV_Template.obj
 0003:0099f748       _GUIDRV_Win_API            00fb2748     GUIDRV_Win32.obj
 0003:0099f788       _acFont8_1_160             00fb2788     F08_1.obj
 0003:0099f790       _acFont8_1_161             00fb2790     F08_1.obj
 0003:0099f798       _acFont8_1_162             00fb2798     F08_1.obj
 0003:0099f7a0       _acFont8_1_163             00fb27a0     F08_1.obj
 0003:0099f7a8       _acFont8_1_164             00fb27a8     F08_1.obj
 0003:0099f7b0       _acFont8_1_165             00fb27b0     F08_1.obj
 0003:0099f7b8       _acFont8_1_166             00fb27b8     F08_1.obj
 0003:0099f7c0       _acFont8_1_167             00fb27c0     F08_1.obj
 0003:0099f7c8       _acFont8_1_168             00fb27c8     F08_1.obj
 0003:0099f7d0       _acFont8_1_169             00fb27d0     F08_1.obj
 0003:0099f7d8       _acFont8_1_170             00fb27d8     F08_1.obj
 0003:0099f7e0       _acFont8_1_171             00fb27e0     F08_1.obj
 0003:0099f7e8       _acFont8_1_172             00fb27e8     F08_1.obj
 0003:0099f7f0       _acFont8_1_173             00fb27f0     F08_1.obj
 0003:0099f7f8       _acFont8_1_174             00fb27f8     F08_1.obj
 0003:0099f800       _acFont8_1_175             00fb2800     F08_1.obj
 0003:0099f808       _acFont8_1_176             00fb2808     F08_1.obj
 0003:0099f810       _acFont8_1_177             00fb2810     F08_1.obj
 0003:0099f818       _acFont8_1_178             00fb2818     F08_1.obj
 0003:0099f820       _acFont8_1_179             00fb2820     F08_1.obj
 0003:0099f828       _acFont8_1_180             00fb2828     F08_1.obj
 0003:0099f830       _acFont8_1_181             00fb2830     F08_1.obj
 0003:0099f838       _acFont8_1_182             00fb2838     F08_1.obj
 0003:0099f840       _acFont8_1_183             00fb2840     F08_1.obj
 0003:0099f848       _acFont8_1_184             00fb2848     F08_1.obj
 0003:0099f850       _acFont8_1_185             00fb2850     F08_1.obj
 0003:0099f858       _acFont8_1_186             00fb2858     F08_1.obj
 0003:0099f860       _acFont8_1_187             00fb2860     F08_1.obj
 0003:0099f868       _acFont8_1_188             00fb2868     F08_1.obj
 0003:0099f870       _acFont8_1_189             00fb2870     F08_1.obj
 0003:0099f878       _acFont8_1_190             00fb2878     F08_1.obj
 0003:0099f880       _acFont8_1_191             00fb2880     F08_1.obj
 0003:0099f888       _acFont8_1_192             00fb2888     F08_1.obj
 0003:0099f890       _acFont8_1_193             00fb2890     F08_1.obj
 0003:0099f898       _acFont8_1_194             00fb2898     F08_1.obj
 0003:0099f8a0       _acFont8_1_195             00fb28a0     F08_1.obj
 0003:0099f8a8       _acFont8_1_196             00fb28a8     F08_1.obj
 0003:0099f8b0       _acFont8_1_197             00fb28b0     F08_1.obj
 0003:0099f8b8       _acFont8_1_198             00fb28b8     F08_1.obj
 0003:0099f8c0       _acFont8_1_199             00fb28c0     F08_1.obj
 0003:0099f8c8       _acFont8_1_200             00fb28c8     F08_1.obj
 0003:0099f8d0       _acFont8_1_201             00fb28d0     F08_1.obj
 0003:0099f8d8       _acFont8_1_202             00fb28d8     F08_1.obj
 0003:0099f8e0       _acFont8_1_203             00fb28e0     F08_1.obj
 0003:0099f8e8       _acFont8_1_204             00fb28e8     F08_1.obj
 0003:0099f8f0       _acFont8_1_205             00fb28f0     F08_1.obj
 0003:0099f8f8       _acFont8_1_206             00fb28f8     F08_1.obj
 0003:0099f900       _acFont8_1_207             00fb2900     F08_1.obj
 0003:0099f908       _acFont8_1_208             00fb2908     F08_1.obj
 0003:0099f910       _acFont8_1_209             00fb2910     F08_1.obj
 0003:0099f918       _acFont8_1_210             00fb2918     F08_1.obj
 0003:0099f920       _acFont8_1_211             00fb2920     F08_1.obj
 0003:0099f928       _acFont8_1_212             00fb2928     F08_1.obj
 0003:0099f930       _acFont8_1_213             00fb2930     F08_1.obj
 0003:0099f938       _acFont8_1_214             00fb2938     F08_1.obj
 0003:0099f940       _acFont8_1_215             00fb2940     F08_1.obj
 0003:0099f948       _acFont8_1_216             00fb2948     F08_1.obj
 0003:0099f950       _acFont8_1_217             00fb2950     F08_1.obj
 0003:0099f958       _acFont8_1_218             00fb2958     F08_1.obj
 0003:0099f960       _acFont8_1_219             00fb2960     F08_1.obj
 0003:0099f968       _acFont8_1_220             00fb2968     F08_1.obj
 0003:0099f970       _acFont8_1_221             00fb2970     F08_1.obj
 0003:0099f978       _acFont8_1_222             00fb2978     F08_1.obj
 0003:0099f980       _acFont8_1_223             00fb2980     F08_1.obj
 0003:0099f988       _acFont8_1_224             00fb2988     F08_1.obj
 0003:0099f990       _acFont8_1_225             00fb2990     F08_1.obj
 0003:0099f998       _acFont8_1_226             00fb2998     F08_1.obj
 0003:0099f9a0       _acFont8_1_227             00fb29a0     F08_1.obj
 0003:0099f9a8       _acFont8_1_228             00fb29a8     F08_1.obj
 0003:0099f9b0       _acFont8_1_229             00fb29b0     F08_1.obj
 0003:0099f9b8       _acFont8_1_230             00fb29b8     F08_1.obj
 0003:0099f9c8       _acFont8_1_231             00fb29c8     F08_1.obj
 0003:0099f9d0       _acFont8_1_232             00fb29d0     F08_1.obj
 0003:0099f9d8       _acFont8_1_233             00fb29d8     F08_1.obj
 0003:0099f9e0       _acFont8_1_234             00fb29e0     F08_1.obj
 0003:0099f9e8       _acFont8_1_235             00fb29e8     F08_1.obj
 0003:0099f9f0       _acFont8_1_236             00fb29f0     F08_1.obj
 0003:0099f9f8       _acFont8_1_237             00fb29f8     F08_1.obj
 0003:0099fa00       _acFont8_1_238             00fb2a00     F08_1.obj
 0003:0099fa08       _acFont8_1_239             00fb2a08     F08_1.obj
 0003:0099fa10       _acFont8_1_240             00fb2a10     F08_1.obj
 0003:0099fa18       _acFont8_1_241             00fb2a18     F08_1.obj
 0003:0099fa20       _acFont8_1_242             00fb2a20     F08_1.obj
 0003:0099fa28       _acFont8_1_243             00fb2a28     F08_1.obj
 0003:0099fa30       _acFont8_1_244             00fb2a30     F08_1.obj
 0003:0099fa38       _acFont8_1_245             00fb2a38     F08_1.obj
 0003:0099fa40       _acFont8_1_246             00fb2a40     F08_1.obj
 0003:0099fa48       _acFont8_1_247             00fb2a48     F08_1.obj
 0003:0099fa50       _acFont8_1_248             00fb2a50     F08_1.obj
 0003:0099fa58       _acFont8_1_249             00fb2a58     F08_1.obj
 0003:0099fa60       _acFont8_1_250             00fb2a60     F08_1.obj
 0003:0099fa68       _acFont8_1_251             00fb2a68     F08_1.obj
 0003:0099fa70       _acFont8_1_252             00fb2a70     F08_1.obj
 0003:0099fa78       _acFont8_1_253             00fb2a78     F08_1.obj
 0003:0099fa80       _acFont8_1_254             00fb2a80     F08_1.obj
 0003:0099fa88       _acFont8_1_255             00fb2a88     F08_1.obj
 0003:0099fa90       _Font8_1_CharInfo          00fb2a90     F08_1.obj
 0003:0099fd90       _GUI_Font8_1_Prop          00fb2d90     F08_1.obj
 0003:0099fd9c       _GUI_Font8_1               00fb2d9c     F08_1.obj
 0003:0099ff00       _acFont8ASCII              00fb2f00     F08_ASCII.obj
 0003:009a01f8       _GUI_Font8_ASCII_CharInfo  00fb31f8     F08_ASCII.obj
 0003:009a04f0       _GUI_Font8ASCII_Prop       00fb34f0     F08_ASCII.obj
 0003:009a04fc       _GUI_Font8_ASCII           00fb34fc     F08_ASCII.obj
 0003:009a0660       _acFont10S_1_160           00fb3660     F10S_1.obj
 0003:009a066c       _acFont10S_1_161           00fb366c     F10S_1.obj
 0003:009a0678       _acFont10S_1_162           00fb3678     F10S_1.obj
 0003:009a0684       _acFont10S_1_163           00fb3684     F10S_1.obj
 0003:009a0690       _acFont10S_1_164           00fb3690     F10S_1.obj
 0003:009a069c       _acFont10S_1_165           00fb369c     F10S_1.obj
 0003:009a06a8       _acFont10S_1_166           00fb36a8     F10S_1.obj
 0003:009a06b4       _acFont10S_1_167           00fb36b4     F10S_1.obj
 0003:009a06c0       _acFont10S_1_168           00fb36c0     F10S_1.obj
 0003:009a06cc       _acFont10S_1_169           00fb36cc     F10S_1.obj
 0003:009a06d8       _acFont10S_1_170           00fb36d8     F10S_1.obj
 0003:009a06e4       _acFont10S_1_171           00fb36e4     F10S_1.obj
 0003:009a06f0       _acFont10S_1_172           00fb36f0     F10S_1.obj
 0003:009a06fc       _acFont10S_1_173           00fb36fc     F10S_1.obj
 0003:009a0708       _acFont10S_1_174           00fb3708     F10S_1.obj
 0003:009a0714       _acFont10S_1_175           00fb3714     F10S_1.obj
 0003:009a0720       _acFont10S_1_176           00fb3720     F10S_1.obj
 0003:009a072c       _acFont10S_1_177           00fb372c     F10S_1.obj
 0003:009a0738       _acFont10S_1_178           00fb3738     F10S_1.obj
 0003:009a0744       _acFont10S_1_179           00fb3744     F10S_1.obj
 0003:009a0750       _acFont10S_1_180           00fb3750     F10S_1.obj
 0003:009a075c       _acFont10S_1_181           00fb375c     F10S_1.obj
 0003:009a0768       _acFont10S_1_182           00fb3768     F10S_1.obj
 0003:009a0774       _acFont10S_1_183           00fb3774     F10S_1.obj
 0003:009a0780       _acFont10S_1_184           00fb3780     F10S_1.obj
 0003:009a078c       _acFont10S_1_185           00fb378c     F10S_1.obj
 0003:009a0798       _acFont10S_1_186           00fb3798     F10S_1.obj
 0003:009a07a4       _acFont10S_1_187           00fb37a4     F10S_1.obj
 0003:009a07b0       _acFont10S_1_188           00fb37b0     F10S_1.obj
 0003:009a07bc       _acFont10S_1_189           00fb37bc     F10S_1.obj
 0003:009a07c8       _acFont10S_1_190           00fb37c8     F10S_1.obj
 0003:009a07d4       _acFont10S_1_191           00fb37d4     F10S_1.obj
 0003:009a07e0       _acFont10S_1_192           00fb37e0     F10S_1.obj
 0003:009a07ec       _acFont10S_1_193           00fb37ec     F10S_1.obj
 0003:009a07f8       _acFont10S_1_194           00fb37f8     F10S_1.obj
 0003:009a0804       _acFont10S_1_195           00fb3804     F10S_1.obj
 0003:009a0810       _acFont10S_1_196           00fb3810     F10S_1.obj
 0003:009a081c       _acFont10S_1_197           00fb381c     F10S_1.obj
 0003:009a0828       _acFont10S_1_198           00fb3828     F10S_1.obj
 0003:009a0834       _acFont10S_1_199           00fb3834     F10S_1.obj
 0003:009a0840       _acFont10S_1_200           00fb3840     F10S_1.obj
 0003:009a084c       _acFont10S_1_201           00fb384c     F10S_1.obj
 0003:009a0858       _acFont10S_1_202           00fb3858     F10S_1.obj
 0003:009a0864       _acFont10S_1_203           00fb3864     F10S_1.obj
 0003:009a0870       _acFont10S_1_204           00fb3870     F10S_1.obj
 0003:009a087c       _acFont10S_1_205           00fb387c     F10S_1.obj
 0003:009a0888       _acFont10S_1_206           00fb3888     F10S_1.obj
 0003:009a0894       _acFont10S_1_207           00fb3894     F10S_1.obj
 0003:009a08a0       _acFont10S_1_208           00fb38a0     F10S_1.obj
 0003:009a08ac       _acFont10S_1_209           00fb38ac     F10S_1.obj
 0003:009a08b8       _acFont10S_1_210           00fb38b8     F10S_1.obj
 0003:009a08c4       _acFont10S_1_211           00fb38c4     F10S_1.obj
 0003:009a08d0       _acFont10S_1_212           00fb38d0     F10S_1.obj
 0003:009a08dc       _acFont10S_1_213           00fb38dc     F10S_1.obj
 0003:009a08e8       _acFont10S_1_214           00fb38e8     F10S_1.obj
 0003:009a08f4       _acFont10S_1_215           00fb38f4     F10S_1.obj
 0003:009a0900       _acFont10S_1_216           00fb3900     F10S_1.obj
 0003:009a090c       _acFont10S_1_217           00fb390c     F10S_1.obj
 0003:009a0918       _acFont10S_1_218           00fb3918     F10S_1.obj
 0003:009a0924       _acFont10S_1_219           00fb3924     F10S_1.obj
 0003:009a0930       _acFont10S_1_220           00fb3930     F10S_1.obj
 0003:009a093c       _acFont10S_1_221           00fb393c     F10S_1.obj
 0003:009a0948       _acFont10S_1_222           00fb3948     F10S_1.obj
 0003:009a0954       _acFont10S_1_223           00fb3954     F10S_1.obj
 0003:009a0960       _acFont10S_1_224           00fb3960     F10S_1.obj
 0003:009a096c       _acFont10S_1_225           00fb396c     F10S_1.obj
 0003:009a0978       _acFont10S_1_226           00fb3978     F10S_1.obj
 0003:009a0984       _acFont10S_1_227           00fb3984     F10S_1.obj
 0003:009a0990       _acFont10S_1_228           00fb3990     F10S_1.obj
 0003:009a099c       _acFont10S_1_229           00fb399c     F10S_1.obj
 0003:009a09a8       _acFont10S_1_230           00fb39a8     F10S_1.obj
 0003:009a09b4       _acFont10S_1_231           00fb39b4     F10S_1.obj
 0003:009a09c0       _acFont10S_1_232           00fb39c0     F10S_1.obj
 0003:009a09cc       _acFont10S_1_233           00fb39cc     F10S_1.obj
 0003:009a09d8       _acFont10S_1_234           00fb39d8     F10S_1.obj
 0003:009a09e4       _acFont10S_1_235           00fb39e4     F10S_1.obj
 0003:009a09f0       _acFont10S_1_236           00fb39f0     F10S_1.obj
 0003:009a09fc       _acFont10S_1_237           00fb39fc     F10S_1.obj
 0003:009a0a08       _acFont10S_1_238           00fb3a08     F10S_1.obj
 0003:009a0a14       _acFont10S_1_239           00fb3a14     F10S_1.obj
 0003:009a0a20       _acFont10S_1_240           00fb3a20     F10S_1.obj
 0003:009a0a2c       _acFont10S_1_241           00fb3a2c     F10S_1.obj
 0003:009a0a38       _acFont10S_1_242           00fb3a38     F10S_1.obj
 0003:009a0a44       _acFont10S_1_243           00fb3a44     F10S_1.obj
 0003:009a0a50       _acFont10S_1_244           00fb3a50     F10S_1.obj
 0003:009a0a5c       _acFont10S_1_245           00fb3a5c     F10S_1.obj
 0003:009a0a68       _acFont10S_1_246           00fb3a68     F10S_1.obj
 0003:009a0a74       _acFont10S_1_247           00fb3a74     F10S_1.obj
 0003:009a0a80       _acFont10S_1_248           00fb3a80     F10S_1.obj
 0003:009a0a8c       _acFont10S_1_249           00fb3a8c     F10S_1.obj
 0003:009a0a98       _acFont10S_1_250           00fb3a98     F10S_1.obj
 0003:009a0aa4       _acFont10S_1_251           00fb3aa4     F10S_1.obj
 0003:009a0ab0       _acFont10S_1_252           00fb3ab0     F10S_1.obj
 0003:009a0abc       _acFont10S_1_253           00fb3abc     F10S_1.obj
 0003:009a0ac8       _acFont10S_1_254           00fb3ac8     F10S_1.obj
 0003:009a0ad4       _acFont10S_1_255           00fb3ad4     F10S_1.obj
 0003:009a0ae0       _Font10S_1_CharInfo        00fb3ae0     F10S_1.obj
 0003:009a0de0       _Font10S_1_FontProp1       00fb3de0     F10S_1.obj
 0003:009a0dec       _GUI_Font10S_1             00fb3dec     F10S_1.obj
 0003:009a0fa0       _acFont10S_ASCII_32        00fb3fa0     F10S_ASCII.obj
 0003:009a0fac       _acFont10S_ASCII_33        00fb3fac     F10S_ASCII.obj
 0003:009a0fb8       _acFont10S_ASCII_34        00fb3fb8     F10S_ASCII.obj
 0003:009a0fc4       _acFont10S_ASCII_35        00fb3fc4     F10S_ASCII.obj
 0003:009a0fd0       _acFont10S_ASCII_36        00fb3fd0     F10S_ASCII.obj
 0003:009a0fdc       _acFont10S_ASCII_37        00fb3fdc     F10S_ASCII.obj
 0003:009a0fe8       _acFont10S_ASCII_38        00fb3fe8     F10S_ASCII.obj
 0003:009a0ff4       _acFont10S_ASCII_39        00fb3ff4     F10S_ASCII.obj
 0003:009a1000       _acFont10S_ASCII_40        00fb4000     F10S_ASCII.obj
 0003:009a100c       _acFont10S_ASCII_41        00fb400c     F10S_ASCII.obj
 0003:009a1018       _acFont10S_ASCII_42        00fb4018     F10S_ASCII.obj
 0003:009a1024       _acFont10S_ASCII_43        00fb4024     F10S_ASCII.obj
 0003:009a1030       _acFont10S_ASCII_44        00fb4030     F10S_ASCII.obj
 0003:009a103c       _acFont10S_ASCII_45        00fb403c     F10S_ASCII.obj
 0003:009a1048       _acFont10S_ASCII_46        00fb4048     F10S_ASCII.obj
 0003:009a1054       _acFont10S_ASCII_47        00fb4054     F10S_ASCII.obj
 0003:009a1060       _acFont10S_ASCII_48        00fb4060     F10S_ASCII.obj
 0003:009a106c       _acFont10S_ASCII_49        00fb406c     F10S_ASCII.obj
 0003:009a1078       _acFont10S_ASCII_50        00fb4078     F10S_ASCII.obj
 0003:009a1084       _acFont10S_ASCII_51        00fb4084     F10S_ASCII.obj
 0003:009a1090       _acFont10S_ASCII_52        00fb4090     F10S_ASCII.obj
 0003:009a109c       _acFont10S_ASCII_53        00fb409c     F10S_ASCII.obj
 0003:009a10a8       _acFont10S_ASCII_54        00fb40a8     F10S_ASCII.obj
 0003:009a10b4       _acFont10S_ASCII_55        00fb40b4     F10S_ASCII.obj
 0003:009a10c0       _acFont10S_ASCII_56        00fb40c0     F10S_ASCII.obj
 0003:009a10cc       _acFont10S_ASCII_57        00fb40cc     F10S_ASCII.obj
 0003:009a10d8       _acFont10S_ASCII_58        00fb40d8     F10S_ASCII.obj
 0003:009a10e4       _acFont10S_ASCII_59        00fb40e4     F10S_ASCII.obj
 0003:009a10f0       _acFont10S_ASCII_60        00fb40f0     F10S_ASCII.obj
 0003:009a10fc       _acFont10S_ASCII_61        00fb40fc     F10S_ASCII.obj
 0003:009a1108       _acFont10S_ASCII_62        00fb4108     F10S_ASCII.obj
 0003:009a1114       _acFont10S_ASCII_63        00fb4114     F10S_ASCII.obj
 0003:009a1120       _acFont10S_ASCII_64        00fb4120     F10S_ASCII.obj
 0003:009a112c       _acFont10S_ASCII_65        00fb412c     F10S_ASCII.obj
 0003:009a1138       _acFont10S_ASCII_66        00fb4138     F10S_ASCII.obj
 0003:009a1144       _acFont10S_ASCII_67        00fb4144     F10S_ASCII.obj
 0003:009a1150       _acFont10S_ASCII_68        00fb4150     F10S_ASCII.obj
 0003:009a115c       _acFont10S_ASCII_69        00fb415c     F10S_ASCII.obj
 0003:009a1168       _acFont10S_ASCII_70        00fb4168     F10S_ASCII.obj
 0003:009a1174       _acFont10S_ASCII_71        00fb4174     F10S_ASCII.obj
 0003:009a1180       _acFont10S_ASCII_72        00fb4180     F10S_ASCII.obj
 0003:009a118c       _acFont10S_ASCII_73        00fb418c     F10S_ASCII.obj
 0003:009a1198       _acFont10S_ASCII_74        00fb4198     F10S_ASCII.obj
 0003:009a11a4       _acFont10S_ASCII_75        00fb41a4     F10S_ASCII.obj
 0003:009a11b0       _acFont10S_ASCII_76        00fb41b0     F10S_ASCII.obj
 0003:009a11bc       _acFont10S_ASCII_77        00fb41bc     F10S_ASCII.obj
 0003:009a11c8       _acFont10S_ASCII_78        00fb41c8     F10S_ASCII.obj
 0003:009a11d4       _acFont10S_ASCII_79        00fb41d4     F10S_ASCII.obj
 0003:009a11e0       _acFont10S_ASCII_80        00fb41e0     F10S_ASCII.obj
 0003:009a11ec       _acFont10S_ASCII_81        00fb41ec     F10S_ASCII.obj
 0003:009a11f8       _acFont10S_ASCII_82        00fb41f8     F10S_ASCII.obj
 0003:009a1204       _acFont10S_ASCII_83        00fb4204     F10S_ASCII.obj
 0003:009a1210       _acFont10S_ASCII_84        00fb4210     F10S_ASCII.obj
 0003:009a121c       _acFont10S_ASCII_85        00fb421c     F10S_ASCII.obj
 0003:009a1228       _acFont10S_ASCII_86        00fb4228     F10S_ASCII.obj
 0003:009a1234       _acFont10S_ASCII_87        00fb4234     F10S_ASCII.obj
 0003:009a1240       _acFont10S_ASCII_88        00fb4240     F10S_ASCII.obj
 0003:009a124c       _acFont10S_ASCII_89        00fb424c     F10S_ASCII.obj
 0003:009a1258       _acFont10S_ASCII_90        00fb4258     F10S_ASCII.obj
 0003:009a1264       _acFont10S_ASCII_91        00fb4264     F10S_ASCII.obj
 0003:009a1270       _acFont10S_ASCII_92        00fb4270     F10S_ASCII.obj
 0003:009a127c       _acFont10S_ASCII_93        00fb427c     F10S_ASCII.obj
 0003:009a1288       _acFont10S_ASCII_94        00fb4288     F10S_ASCII.obj
 0003:009a1294       _acFont10S_ASCII_95        00fb4294     F10S_ASCII.obj
 0003:009a12a0       _acFont10S_ASCII_96        00fb42a0     F10S_ASCII.obj
 0003:009a12ac       _acFont10S_ASCII_97        00fb42ac     F10S_ASCII.obj
 0003:009a12b8       _acFont10S_ASCII_98        00fb42b8     F10S_ASCII.obj
 0003:009a12c4       _acFont10S_ASCII_99        00fb42c4     F10S_ASCII.obj
 0003:009a12d0       _acFont10S_ASCII_100       00fb42d0     F10S_ASCII.obj
 0003:009a12dc       _acFont10S_ASCII_101       00fb42dc     F10S_ASCII.obj
 0003:009a12e8       _acFont10S_ASCII_102       00fb42e8     F10S_ASCII.obj
 0003:009a12f4       _acFont10S_ASCII_103       00fb42f4     F10S_ASCII.obj
 0003:009a1300       _acFont10S_ASCII_104       00fb4300     F10S_ASCII.obj
 0003:009a130c       _acFont10S_ASCII_105       00fb430c     F10S_ASCII.obj
 0003:009a1318       _acFont10S_ASCII_106       00fb4318     F10S_ASCII.obj
 0003:009a1324       _acFont10S_ASCII_107       00fb4324     F10S_ASCII.obj
 0003:009a1330       _acFont10S_ASCII_108       00fb4330     F10S_ASCII.obj
 0003:009a133c       _acFont10S_ASCII_109       00fb433c     F10S_ASCII.obj
 0003:009a1348       _acFont10S_ASCII_110       00fb4348     F10S_ASCII.obj
 0003:009a1354       _acFont10S_ASCII_111       00fb4354     F10S_ASCII.obj
 0003:009a1360       _acFont10S_ASCII_112       00fb4360     F10S_ASCII.obj
 0003:009a136c       _acFont10S_ASCII_113       00fb436c     F10S_ASCII.obj
 0003:009a1378       _acFont10S_ASCII_114       00fb4378     F10S_ASCII.obj
 0003:009a1384       _acFont10S_ASCII_115       00fb4384     F10S_ASCII.obj
 0003:009a1390       _acFont10S_ASCII_116       00fb4390     F10S_ASCII.obj
 0003:009a139c       _acFont10S_ASCII_117       00fb439c     F10S_ASCII.obj
 0003:009a13a8       _acFont10S_ASCII_118       00fb43a8     F10S_ASCII.obj
 0003:009a13b4       _acFont10S_ASCII_119       00fb43b4     F10S_ASCII.obj
 0003:009a13c0       _acFont10S_ASCII_120       00fb43c0     F10S_ASCII.obj
 0003:009a13cc       _acFont10S_ASCII_121       00fb43cc     F10S_ASCII.obj
 0003:009a13d8       _acFont10S_ASCII_122       00fb43d8     F10S_ASCII.obj
 0003:009a13e4       _acFont10S_ASCII_123       00fb43e4     F10S_ASCII.obj
 0003:009a13f0       _acFont10S_ASCII_124       00fb43f0     F10S_ASCII.obj
 0003:009a13fc       _acFont10S_ASCII_125       00fb43fc     F10S_ASCII.obj
 0003:009a1408       _acFont10S_ASCII_126       00fb4408     F10S_ASCII.obj
 0003:009a1418       _GUI_Font10S_ASCII_CharInfo 00fb4418     F10S_ASCII.obj
 0003:009a1718       _GUI_Font10S_ASCII_FontProp1 00fb4718     F10S_ASCII.obj
 0003:009a1724       _GUI_Font10S_ASCII         00fb4724     F10S_ASCII.obj
 0003:009a18d0       _acFont10_1_160            00fb48d0     F10_1.obj
 0003:009a18dc       _acFont10_1_161            00fb48dc     F10_1.obj
 0003:009a18e8       _acFont10_1_162            00fb48e8     F10_1.obj
 0003:009a18f4       _acFont10_1_163            00fb48f4     F10_1.obj
 0003:009a1900       _acFont10_1_164            00fb4900     F10_1.obj
 0003:009a190c       _acFont10_1_165            00fb490c     F10_1.obj
 0003:009a1918       _acFont10_1_166            00fb4918     F10_1.obj
 0003:009a1924       _acFont10_1_167            00fb4924     F10_1.obj
 0003:009a1930       _acFont10_1_168            00fb4930     F10_1.obj
 0003:009a193c       _acFont10_1_169            00fb493c     F10_1.obj
 0003:009a1948       _acFont10_1_170            00fb4948     F10_1.obj
 0003:009a1954       _acFont10_1_171            00fb4954     F10_1.obj
 0003:009a1960       _acFont10_1_172            00fb4960     F10_1.obj
 0003:009a196c       _acFont10_1_173            00fb496c     F10_1.obj
 0003:009a1978       _acFont10_1_174            00fb4978     F10_1.obj
 0003:009a1984       _acFont10_1_175            00fb4984     F10_1.obj
 0003:009a1990       _acFont10_1_176            00fb4990     F10_1.obj
 0003:009a199c       _acFont10_1_177            00fb499c     F10_1.obj
 0003:009a19a8       _acFont10_1_178            00fb49a8     F10_1.obj
 0003:009a19b4       _acFont10_1_179            00fb49b4     F10_1.obj
 0003:009a19c0       _acFont10_1_180            00fb49c0     F10_1.obj
 0003:009a19cc       _acFont10_1_181            00fb49cc     F10_1.obj
 0003:009a19d8       _acFont10_1_182            00fb49d8     F10_1.obj
 0003:009a19e4       _acFont10_1_183            00fb49e4     F10_1.obj
 0003:009a19f0       _acFont10_1_184            00fb49f0     F10_1.obj
 0003:009a19fc       _acFont10_1_185            00fb49fc     F10_1.obj
 0003:009a1a08       _acFont10_1_186            00fb4a08     F10_1.obj
 0003:009a1a14       _acFont10_1_187            00fb4a14     F10_1.obj
 0003:009a1a20       _acFont10_1_188            00fb4a20     F10_1.obj
 0003:009a1a34       _acFont10_1_189            00fb4a34     F10_1.obj
 0003:009a1a48       _acFont10_1_190            00fb4a48     F10_1.obj
 0003:009a1a5c       _acFont10_1_191            00fb4a5c     F10_1.obj
 0003:009a1a68       _acFont10_1_192            00fb4a68     F10_1.obj
 0003:009a1a74       _acFont10_1_193            00fb4a74     F10_1.obj
 0003:009a1a80       _acFont10_1_194            00fb4a80     F10_1.obj
 0003:009a1a8c       _acFont10_1_195            00fb4a8c     F10_1.obj
 0003:009a1a98       _acFont10_1_196            00fb4a98     F10_1.obj
 0003:009a1aa4       _acFont10_1_197            00fb4aa4     F10_1.obj
 0003:009a1ab0       _acFont10_1_198            00fb4ab0     F10_1.obj
 0003:009a1ac4       _acFont10_1_199            00fb4ac4     F10_1.obj
 0003:009a1ad0       _acFont10_1_200            00fb4ad0     F10_1.obj
 0003:009a1adc       _acFont10_1_201            00fb4adc     F10_1.obj
 0003:009a1ae8       _acFont10_1_202            00fb4ae8     F10_1.obj
 0003:009a1af4       _acFont10_1_203            00fb4af4     F10_1.obj
 0003:009a1b00       _acFont10_1_204            00fb4b00     F10_1.obj
 0003:009a1b0c       _acFont10_1_205            00fb4b0c     F10_1.obj
 0003:009a1b18       _acFont10_1_206            00fb4b18     F10_1.obj
 0003:009a1b24       _acFont10_1_207            00fb4b24     F10_1.obj
 0003:009a1b30       _acFont10_1_208            00fb4b30     F10_1.obj
 0003:009a1b3c       _acFont10_1_209            00fb4b3c     F10_1.obj
 0003:009a1b48       _acFont10_1_210            00fb4b48     F10_1.obj
 0003:009a1b54       _acFont10_1_211            00fb4b54     F10_1.obj
 0003:009a1b60       _acFont10_1_212            00fb4b60     F10_1.obj
 0003:009a1b6c       _acFont10_1_213            00fb4b6c     F10_1.obj
 0003:009a1b78       _acFont10_1_214            00fb4b78     F10_1.obj
 0003:009a1b84       _acFont10_1_215            00fb4b84     F10_1.obj
 0003:009a1b90       _acFont10_1_216            00fb4b90     F10_1.obj
 0003:009a1b9c       _acFont10_1_217            00fb4b9c     F10_1.obj
 0003:009a1ba8       _acFont10_1_218            00fb4ba8     F10_1.obj
 0003:009a1bb4       _acFont10_1_219            00fb4bb4     F10_1.obj
 0003:009a1bc0       _acFont10_1_220            00fb4bc0     F10_1.obj
 0003:009a1bcc       _acFont10_1_221            00fb4bcc     F10_1.obj
 0003:009a1bd8       _acFont10_1_222            00fb4bd8     F10_1.obj
 0003:009a1be4       _acFont10_1_223            00fb4be4     F10_1.obj
 0003:009a1bf0       _acFont10_1_224            00fb4bf0     F10_1.obj
 0003:009a1bfc       _acFont10_1_225            00fb4bfc     F10_1.obj
 0003:009a1c08       _acFont10_1_226            00fb4c08     F10_1.obj
 0003:009a1c14       _acFont10_1_227            00fb4c14     F10_1.obj
 0003:009a1c20       _acFont10_1_228            00fb4c20     F10_1.obj
 0003:009a1c2c       _acFont10_1_229            00fb4c2c     F10_1.obj
 0003:009a1c38       _acFont10_1_230            00fb4c38     F10_1.obj
 0003:009a1c4c       _acFont10_1_231            00fb4c4c     F10_1.obj
 0003:009a1c58       _acFont10_1_232            00fb4c58     F10_1.obj
 0003:009a1c64       _acFont10_1_233            00fb4c64     F10_1.obj
 0003:009a1c70       _acFont10_1_234            00fb4c70     F10_1.obj
 0003:009a1c7c       _acFont10_1_235            00fb4c7c     F10_1.obj
 0003:009a1c88       _acFont10_1_236            00fb4c88     F10_1.obj
 0003:009a1c94       _acFont10_1_237            00fb4c94     F10_1.obj
 0003:009a1ca0       _acFont10_1_238            00fb4ca0     F10_1.obj
 0003:009a1cac       _acFont10_1_239            00fb4cac     F10_1.obj
 0003:009a1cb8       _acFont10_1_240            00fb4cb8     F10_1.obj
 0003:009a1cc4       _acFont10_1_241            00fb4cc4     F10_1.obj
 0003:009a1cd0       _acFont10_1_242            00fb4cd0     F10_1.obj
 0003:009a1cdc       _acFont10_1_243            00fb4cdc     F10_1.obj
 0003:009a1ce8       _acFont10_1_244            00fb4ce8     F10_1.obj
 0003:009a1cf4       _acFont10_1_245            00fb4cf4     F10_1.obj
 0003:009a1d00       _acFont10_1_246            00fb4d00     F10_1.obj
 0003:009a1d0c       _acFont10_1_247            00fb4d0c     F10_1.obj
 0003:009a1d18       _acFont10_1_248            00fb4d18     F10_1.obj
 0003:009a1d24       _acFont10_1_249            00fb4d24     F10_1.obj
 0003:009a1d30       _acFont10_1_250            00fb4d30     F10_1.obj
 0003:009a1d3c       _acFont10_1_251            00fb4d3c     F10_1.obj
 0003:009a1d48       _acFont10_1_252            00fb4d48     F10_1.obj
 0003:009a1d54       _acFont10_1_253            00fb4d54     F10_1.obj
 0003:009a1d60       _acFont10_1_254            00fb4d60     F10_1.obj
 0003:009a1d6c       _acFont10_1_255            00fb4d6c     F10_1.obj
 0003:009a1d78       _Font10_1_CharInfo         00fb4d78     F10_1.obj
 0003:009a2078       _Font10_1Prop1             00fb5078     F10_1.obj
 0003:009a2084       _GUI_Font10_1              00fb5084     F10_1.obj
 0003:009a2240       _acFont10_ASCII_32         00fb5240     F10_ASCII.obj
 0003:009a224c       _acFont10_ASCII_33         00fb524c     F10_ASCII.obj
 0003:009a2258       _acFont10_ASCII_34         00fb5258     F10_ASCII.obj
 0003:009a2264       _acFont10_ASCII_35         00fb5264     F10_ASCII.obj
 0003:009a2270       _acFont10_ASCII_36         00fb5270     F10_ASCII.obj
 0003:009a227c       _acFont10_ASCII_37         00fb527c     F10_ASCII.obj
 0003:009a2290       _acFont10_ASCII_38         00fb5290     F10_ASCII.obj
 0003:009a229c       _acFont10_ASCII_39         00fb529c     F10_ASCII.obj
 0003:009a22a8       _acFont10_ASCII_40         00fb52a8     F10_ASCII.obj
 0003:009a22b4       _acFont10_ASCII_41         00fb52b4     F10_ASCII.obj
 0003:009a22c0       _acFont10_ASCII_42         00fb52c0     F10_ASCII.obj
 0003:009a22cc       _acFont10_ASCII_43         00fb52cc     F10_ASCII.obj
 0003:009a22d8       _acFont10_ASCII_44         00fb52d8     F10_ASCII.obj
 0003:009a22e4       _acFont10_ASCII_45         00fb52e4     F10_ASCII.obj
 0003:009a22f0       _acFont10_ASCII_46         00fb52f0     F10_ASCII.obj
 0003:009a22fc       _acFont10_ASCII_47         00fb52fc     F10_ASCII.obj
 0003:009a2308       _acFont10_ASCII_48         00fb5308     F10_ASCII.obj
 0003:009a2314       _acFont10_ASCII_49         00fb5314     F10_ASCII.obj
 0003:009a2320       _acFont10_ASCII_50         00fb5320     F10_ASCII.obj
 0003:009a232c       _acFont10_ASCII_51         00fb532c     F10_ASCII.obj
 0003:009a2338       _acFont10_ASCII_52         00fb5338     F10_ASCII.obj
 0003:009a2344       _acFont10_ASCII_53         00fb5344     F10_ASCII.obj
 0003:009a2350       _acFont10_ASCII_54         00fb5350     F10_ASCII.obj
 0003:009a235c       _acFont10_ASCII_55         00fb535c     F10_ASCII.obj
 0003:009a2368       _acFont10_ASCII_56         00fb5368     F10_ASCII.obj
 0003:009a2374       _acFont10_ASCII_57         00fb5374     F10_ASCII.obj
 0003:009a2380       _acFont10_ASCII_58         00fb5380     F10_ASCII.obj
 0003:009a238c       _acFont10_ASCII_59         00fb538c     F10_ASCII.obj
 0003:009a2398       _acFont10_ASCII_60         00fb5398     F10_ASCII.obj
 0003:009a23a4       _acFont10_ASCII_61         00fb53a4     F10_ASCII.obj
 0003:009a23b0       _acFont10_ASCII_62         00fb53b0     F10_ASCII.obj
 0003:009a23bc       _acFont10_ASCII_63         00fb53bc     F10_ASCII.obj
 0003:009a23c8       _acFont10_ASCII_64         00fb53c8     F10_ASCII.obj
 0003:009a23dc       _acFont10_ASCII_65         00fb53dc     F10_ASCII.obj
 0003:009a23e8       _acFont10_ASCII_66         00fb53e8     F10_ASCII.obj
 0003:009a23f4       _acFont10_ASCII_67         00fb53f4     F10_ASCII.obj
 0003:009a2400       _acFont10_ASCII_68         00fb5400     F10_ASCII.obj
 0003:009a240c       _acFont10_ASCII_69         00fb540c     F10_ASCII.obj
 0003:009a2418       _acFont10_ASCII_70         00fb5418     F10_ASCII.obj
 0003:009a2424       _acFont10_ASCII_71         00fb5424     F10_ASCII.obj
 0003:009a2430       _acFont10_ASCII_72         00fb5430     F10_ASCII.obj
 0003:009a243c       _acFont10_ASCII_73         00fb543c     F10_ASCII.obj
 0003:009a2448       _acFont10_ASCII_74         00fb5448     F10_ASCII.obj
 0003:009a2454       _acFont10_ASCII_75         00fb5454     F10_ASCII.obj
 0003:009a2460       _acFont10_ASCII_76         00fb5460     F10_ASCII.obj
 0003:009a246c       _acFont10_ASCII_77         00fb546c     F10_ASCII.obj
 0003:009a2478       _acFont10_ASCII_78         00fb5478     F10_ASCII.obj
 0003:009a2484       _acFont10_ASCII_79         00fb5484     F10_ASCII.obj
 0003:009a2490       _acFont10_ASCII_80         00fb5490     F10_ASCII.obj
 0003:009a249c       _acFont10_ASCII_81         00fb549c     F10_ASCII.obj
 0003:009a24a8       _acFont10_ASCII_82         00fb54a8     F10_ASCII.obj
 0003:009a24b4       _acFont10_ASCII_83         00fb54b4     F10_ASCII.obj
 0003:009a24c0       _acFont10_ASCII_84         00fb54c0     F10_ASCII.obj
 0003:009a24cc       _acFont10_ASCII_85         00fb54cc     F10_ASCII.obj
 0003:009a24d8       _acFont10_ASCII_86         00fb54d8     F10_ASCII.obj
 0003:009a24e4       _acFont10_ASCII_87         00fb54e4     F10_ASCII.obj
 0003:009a24f8       _acFont10_ASCII_88         00fb54f8     F10_ASCII.obj
 0003:009a2504       _acFont10_ASCII_89         00fb5504     F10_ASCII.obj
 0003:009a2510       _acFont10_ASCII_90         00fb5510     F10_ASCII.obj
 0003:009a251c       _acFont10_ASCII_91         00fb551c     F10_ASCII.obj
 0003:009a2528       _acFont10_ASCII_92         00fb5528     F10_ASCII.obj
 0003:009a2534       _acFont10_ASCII_93         00fb5534     F10_ASCII.obj
 0003:009a2540       _acFont10_ASCII_94         00fb5540     F10_ASCII.obj
 0003:009a254c       _acFont10_ASCII_95         00fb554c     F10_ASCII.obj
 0003:009a2558       _acFont10_ASCII_96         00fb5558     F10_ASCII.obj
 0003:009a2564       _acFont10_ASCII_97         00fb5564     F10_ASCII.obj
 0003:009a2570       _acFont10_ASCII_98         00fb5570     F10_ASCII.obj
 0003:009a257c       _acFont10_ASCII_99         00fb557c     F10_ASCII.obj
 0003:009a2588       _acFont10_ASCII_100        00fb5588     F10_ASCII.obj
 0003:009a2594       _acFont10_ASCII_101        00fb5594     F10_ASCII.obj
 0003:009a25a0       _acFont10_ASCII_102        00fb55a0     F10_ASCII.obj
 0003:009a25ac       _acFont10_ASCII_103        00fb55ac     F10_ASCII.obj
 0003:009a25b8       _acFont10_ASCII_104        00fb55b8     F10_ASCII.obj
 0003:009a25c4       _acFont10_ASCII_105        00fb55c4     F10_ASCII.obj
 0003:009a25d0       _acFont10_ASCII_106        00fb55d0     F10_ASCII.obj
 0003:009a25dc       _acFont10_ASCII_107        00fb55dc     F10_ASCII.obj
 0003:009a25e8       _acFont10_ASCII_108        00fb55e8     F10_ASCII.obj
 0003:009a25f4       _acFont10_ASCII_109        00fb55f4     F10_ASCII.obj
 0003:009a2600       _acFont10_ASCII_110        00fb5600     F10_ASCII.obj
 0003:009a260c       _acFont10_ASCII_111        00fb560c     F10_ASCII.obj
 0003:009a2618       _acFont10_ASCII_112        00fb5618     F10_ASCII.obj
 0003:009a2624       _acFont10_ASCII_113        00fb5624     F10_ASCII.obj
 0003:009a2630       _acFont10_ASCII_114        00fb5630     F10_ASCII.obj
 0003:009a263c       _acFont10_ASCII_115        00fb563c     F10_ASCII.obj
 0003:009a2648       _acFont10_ASCII_116        00fb5648     F10_ASCII.obj
 0003:009a2654       _acFont10_ASCII_117        00fb5654     F10_ASCII.obj
 0003:009a2660       _acFont10_ASCII_118        00fb5660     F10_ASCII.obj
 0003:009a266c       _acFont10_ASCII_119        00fb566c     F10_ASCII.obj
 0003:009a2680       _acFont10_ASCII_120        00fb5680     F10_ASCII.obj
 0003:009a268c       _acFont10_ASCII_121        00fb568c     F10_ASCII.obj
 0003:009a2698       _acFont10_ASCII_122        00fb5698     F10_ASCII.obj
 0003:009a26a4       _acFont10_ASCII_123        00fb56a4     F10_ASCII.obj
 0003:009a26b0       _acFont10_ASCII_124        00fb56b0     F10_ASCII.obj
 0003:009a26bc       _acFont10_ASCII_125        00fb56bc     F10_ASCII.obj
 0003:009a26c8       _acFont10_ASCII_126        00fb56c8     F10_ASCII.obj
 0003:009a26d8       _GUI_Font10_ASCII_CharInfo 00fb56d8     F10_ASCII.obj
 0003:009a29d8       _GUI_Font10ASCIIProp1      00fb59d8     F10_ASCII.obj
 0003:009a29e4       _GUI_Font10_ASCII          00fb59e4     F10_ASCII.obj
 0003:009a2b98       _acFont13B_1_00A0          00fb5b98     F13B_1.obj
 0003:009a2ba8       _acFont13B_1_00A1          00fb5ba8     F13B_1.obj
 0003:009a2bb8       _acFont13B_1_00A2          00fb5bb8     F13B_1.obj
 0003:009a2bc8       _acFont13B_1_00A3          00fb5bc8     F13B_1.obj
 0003:009a2bd8       _acFont13B_1_00A4          00fb5bd8     F13B_1.obj
 0003:009a2be8       _acFont13B_1_00A5          00fb5be8     F13B_1.obj
 0003:009a2bf8       _acFont13B_1_00A6          00fb5bf8     F13B_1.obj
 0003:009a2c08       _acFont13B_1_00A7          00fb5c08     F13B_1.obj
 0003:009a2c18       _acFont13B_1_00A8          00fb5c18     F13B_1.obj
 0003:009a2c28       _acFont13B_1_00A9          00fb5c28     F13B_1.obj
 0003:009a2c44       _acFont13B_1_00AA          00fb5c44     F13B_1.obj
 0003:009a2c54       _acFont13B_1_00AB          00fb5c54     F13B_1.obj
 0003:009a2c64       _acFont13B_1_00AC          00fb5c64     F13B_1.obj
 0003:009a2c80       _acFont13B_1_00AD          00fb5c80     F13B_1.obj
 0003:009a2c90       _acFont13B_1_00AE          00fb5c90     F13B_1.obj
 0003:009a2cac       _acFont13B_1_00AF          00fb5cac     F13B_1.obj
 0003:009a2cbc       _acFont13B_1_00B0          00fb5cbc     F13B_1.obj
 0003:009a2ccc       _acFont13B_1_00B1          00fb5ccc     F13B_1.obj
 0003:009a2ce8       _acFont13B_1_00B2          00fb5ce8     F13B_1.obj
 0003:009a2cf8       _acFont13B_1_00B3          00fb5cf8     F13B_1.obj
 0003:009a2d08       _acFont13B_1_00B4          00fb5d08     F13B_1.obj
 0003:009a2d18       _acFont13B_1_00B5          00fb5d18     F13B_1.obj
 0003:009a2d28       _acFont13B_1_00B6          00fb5d28     F13B_1.obj
 0003:009a2d38       _acFont13B_1_00B7          00fb5d38     F13B_1.obj
 0003:009a2d48       _acFont13B_1_00B8          00fb5d48     F13B_1.obj
 0003:009a2d58       _acFont13B_1_00B9          00fb5d58     F13B_1.obj
 0003:009a2d68       _acFont13B_1_00BA          00fb5d68     F13B_1.obj
 0003:009a2d78       _acFont13B_1_00BB          00fb5d78     F13B_1.obj
 0003:009a2d88       _acFont13B_1_00BC          00fb5d88     F13B_1.obj
 0003:009a2da4       _acFont13B_1_00BD          00fb5da4     F13B_1.obj
 0003:009a2dc0       _acFont13B_1_00BE          00fb5dc0     F13B_1.obj
 0003:009a2ddc       _acFont13B_1_00BF          00fb5ddc     F13B_1.obj
 0003:009a2dec       _acFont13B_1_00C0          00fb5dec     F13B_1.obj
 0003:009a2dfc       _acFont13B_1_00C1          00fb5dfc     F13B_1.obj
 0003:009a2e0c       _acFont13B_1_00C2          00fb5e0c     F13B_1.obj
 0003:009a2e1c       _acFont13B_1_00C3          00fb5e1c     F13B_1.obj
 0003:009a2e2c       _acFont13B_1_00C4          00fb5e2c     F13B_1.obj
 0003:009a2e3c       _acFont13B_1_00C5          00fb5e3c     F13B_1.obj
 0003:009a2e4c       _acFont13B_1_00C6          00fb5e4c     F13B_1.obj
 0003:009a2e68       _acFont13B_1_00C7          00fb5e68     F13B_1.obj
 0003:009a2e78       _acFont13B_1_00C8          00fb5e78     F13B_1.obj
 0003:009a2e88       _acFont13B_1_00C9          00fb5e88     F13B_1.obj
 0003:009a2e98       _acFont13B_1_00CA          00fb5e98     F13B_1.obj
 0003:009a2ea8       _acFont13B_1_00CB          00fb5ea8     F13B_1.obj
 0003:009a2eb8       _acFont13B_1_00CC          00fb5eb8     F13B_1.obj
 0003:009a2ec8       _acFont13B_1_00CD          00fb5ec8     F13B_1.obj
 0003:009a2ed8       _acFont13B_1_00CE          00fb5ed8     F13B_1.obj
 0003:009a2ee8       _acFont13B_1_00CF          00fb5ee8     F13B_1.obj
 0003:009a2ef8       _acFont13B_1_00D0          00fb5ef8     F13B_1.obj
 0003:009a2f14       _acFont13B_1_00D1          00fb5f14     F13B_1.obj
 0003:009a2f24       _acFont13B_1_00D2          00fb5f24     F13B_1.obj
 0003:009a2f34       _acFont13B_1_00D3          00fb5f34     F13B_1.obj
 0003:009a2f44       _acFont13B_1_00D4          00fb5f44     F13B_1.obj
 0003:009a2f54       _acFont13B_1_00D5          00fb5f54     F13B_1.obj
 0003:009a2f64       _acFont13B_1_00D6          00fb5f64     F13B_1.obj
 0003:009a2f74       _acFont13B_1_00D7          00fb5f74     F13B_1.obj
 0003:009a2f90       _acFont13B_1_00D8          00fb5f90     F13B_1.obj
 0003:009a2fa0       _acFont13B_1_00D9          00fb5fa0     F13B_1.obj
 0003:009a2fb0       _acFont13B_1_00DA          00fb5fb0     F13B_1.obj
 0003:009a2fc0       _acFont13B_1_00DB          00fb5fc0     F13B_1.obj
 0003:009a2fd0       _acFont13B_1_00DC          00fb5fd0     F13B_1.obj
 0003:009a2fe0       _acFont13B_1_00DD          00fb5fe0     F13B_1.obj
 0003:009a2ff0       _acFont13B_1_00DE          00fb5ff0     F13B_1.obj
 0003:009a3000       _acFont13B_1_00DF          00fb6000     F13B_1.obj
 0003:009a3010       _acFont13B_1_00E0          00fb6010     F13B_1.obj
 0003:009a3020       _acFont13B_1_00E1          00fb6020     F13B_1.obj
 0003:009a3030       _acFont13B_1_00E2          00fb6030     F13B_1.obj
 0003:009a3040       _acFont13B_1_00E3          00fb6040     F13B_1.obj
 0003:009a3050       _acFont13B_1_00E4          00fb6050     F13B_1.obj
 0003:009a3060       _acFont13B_1_00E5          00fb6060     F13B_1.obj
 0003:009a3070       _acFont13B_1_00E6          00fb6070     F13B_1.obj
 0003:009a308c       _acFont13B_1_00E7          00fb608c     F13B_1.obj
 0003:009a309c       _acFont13B_1_00E8          00fb609c     F13B_1.obj
 0003:009a30ac       _acFont13B_1_00E9          00fb60ac     F13B_1.obj
 0003:009a30bc       _acFont13B_1_00EA          00fb60bc     F13B_1.obj
 0003:009a30cc       _acFont13B_1_00EB          00fb60cc     F13B_1.obj
 0003:009a30dc       _acFont13B_1_00EC          00fb60dc     F13B_1.obj
 0003:009a30ec       _acFont13B_1_00ED          00fb60ec     F13B_1.obj
 0003:009a30fc       _acFont13B_1_00EE          00fb60fc     F13B_1.obj
 0003:009a310c       _acFont13B_1_00EF          00fb610c     F13B_1.obj
 0003:009a311c       _acFont13B_1_00F0          00fb611c     F13B_1.obj
 0003:009a312c       _acFont13B_1_00F1          00fb612c     F13B_1.obj
 0003:009a313c       _acFont13B_1_00F2          00fb613c     F13B_1.obj
 0003:009a314c       _acFont13B_1_00F3          00fb614c     F13B_1.obj
 0003:009a315c       _acFont13B_1_00F4          00fb615c     F13B_1.obj
 0003:009a316c       _acFont13B_1_00F5          00fb616c     F13B_1.obj
 0003:009a317c       _acFont13B_1_00F6          00fb617c     F13B_1.obj
 0003:009a318c       _acFont13B_1_00F7          00fb618c     F13B_1.obj
 0003:009a31a8       _acFont13B_1_00F8          00fb61a8     F13B_1.obj
 0003:009a31b8       _acFont13B_1_00F9          00fb61b8     F13B_1.obj
 0003:009a31c8       _acFont13B_1_00FA          00fb61c8     F13B_1.obj
 0003:009a31d8       _acFont13B_1_00FB          00fb61d8     F13B_1.obj
 0003:009a31e8       _acFont13B_1_00FC          00fb61e8     F13B_1.obj
 0003:009a31f8       _acFont13B_1_00FD          00fb61f8     F13B_1.obj
 0003:009a3208       _acFont13B_1_00FE          00fb6208     F13B_1.obj
 0003:009a3218       _acFont13B_1_00FF          00fb6218     F13B_1.obj
 0003:009a3228       _GUI_Font13B_1_CharInfo    00fb6228     F13B_1.obj
 0003:009a3528       _GUI_Font13B_1_Prop1       00fb6528     F13B_1.obj
 0003:009a3534       _GUI_Font13B_1             00fb6534     F13B_1.obj
 0003:009a3750       _acFont13B_ASCII_0020      00fb6750     F13B_ASCII.obj
 0003:009a3760       _acFont13B_ASCII_0021      00fb6760     F13B_ASCII.obj
 0003:009a3770       _acFont13B_ASCII_0022      00fb6770     F13B_ASCII.obj
 0003:009a3780       _acFont13B_ASCII_0023      00fb6780     F13B_ASCII.obj
 0003:009a379c       _acFont13B_ASCII_0024      00fb679c     F13B_ASCII.obj
 0003:009a37ac       _acFont13B_ASCII_0025      00fb67ac     F13B_ASCII.obj
 0003:009a37c8       _acFont13B_ASCII_0026      00fb67c8     F13B_ASCII.obj
 0003:009a37e4       _acFont13B_ASCII_0027      00fb67e4     F13B_ASCII.obj
 0003:009a37f4       _acFont13B_ASCII_0028      00fb67f4     F13B_ASCII.obj
 0003:009a3804       _acFont13B_ASCII_0029      00fb6804     F13B_ASCII.obj
 0003:009a3814       _acFont13B_ASCII_002A      00fb6814     F13B_ASCII.obj
 0003:009a3824       _acFont13B_ASCII_002B      00fb6824     F13B_ASCII.obj
 0003:009a3840       _acFont13B_ASCII_002C      00fb6840     F13B_ASCII.obj
 0003:009a3850       _acFont13B_ASCII_002D      00fb6850     F13B_ASCII.obj
 0003:009a3860       _acFont13B_ASCII_002E      00fb6860     F13B_ASCII.obj
 0003:009a3870       _acFont13B_ASCII_002F      00fb6870     F13B_ASCII.obj
 0003:009a3880       _acFont13B_ASCII_0030      00fb6880     F13B_ASCII.obj
 0003:009a3890       _acFont13B_ASCII_0031      00fb6890     F13B_ASCII.obj
 0003:009a38a0       _acFont13B_ASCII_0032      00fb68a0     F13B_ASCII.obj
 0003:009a38b0       _acFont13B_ASCII_0033      00fb68b0     F13B_ASCII.obj
 0003:009a38c0       _acFont13B_ASCII_0034      00fb68c0     F13B_ASCII.obj
 0003:009a38d0       _acFont13B_ASCII_0035      00fb68d0     F13B_ASCII.obj
 0003:009a38e0       _acFont13B_ASCII_0036      00fb68e0     F13B_ASCII.obj
 0003:009a38f0       _acFont13B_ASCII_0037      00fb68f0     F13B_ASCII.obj
 0003:009a3900       _acFont13B_ASCII_0038      00fb6900     F13B_ASCII.obj
 0003:009a3910       _acFont13B_ASCII_0039      00fb6910     F13B_ASCII.obj
 0003:009a3920       _acFont13B_ASCII_003A      00fb6920     F13B_ASCII.obj
 0003:009a3930       _acFont13B_ASCII_003B      00fb6930     F13B_ASCII.obj
 0003:009a3940       _acFont13B_ASCII_003C      00fb6940     F13B_ASCII.obj
 0003:009a395c       _acFont13B_ASCII_003D      00fb695c     F13B_ASCII.obj
 0003:009a3978       _acFont13B_ASCII_003E      00fb6978     F13B_ASCII.obj
 0003:009a3994       _acFont13B_ASCII_003F      00fb6994     F13B_ASCII.obj
 0003:009a39a4       _acFont13B_ASCII_0040      00fb69a4     F13B_ASCII.obj
 0003:009a39c0       _acFont13B_ASCII_0041      00fb69c0     F13B_ASCII.obj
 0003:009a39d0       _acFont13B_ASCII_0042      00fb69d0     F13B_ASCII.obj
 0003:009a39e0       _acFont13B_ASCII_0043      00fb69e0     F13B_ASCII.obj
 0003:009a39f0       _acFont13B_ASCII_0044      00fb69f0     F13B_ASCII.obj
 0003:009a3a00       _acFont13B_ASCII_0045      00fb6a00     F13B_ASCII.obj
 0003:009a3a10       _acFont13B_ASCII_0046      00fb6a10     F13B_ASCII.obj
 0003:009a3a20       _acFont13B_ASCII_0047      00fb6a20     F13B_ASCII.obj
 0003:009a3a30       _acFont13B_ASCII_0048      00fb6a30     F13B_ASCII.obj
 0003:009a3a40       _acFont13B_ASCII_0049      00fb6a40     F13B_ASCII.obj
 0003:009a3a50       _acFont13B_ASCII_004A      00fb6a50     F13B_ASCII.obj
 0003:009a3a60       _acFont13B_ASCII_004B      00fb6a60     F13B_ASCII.obj
 0003:009a3a70       _acFont13B_ASCII_004C      00fb6a70     F13B_ASCII.obj
 0003:009a3a80       _acFont13B_ASCII_004D      00fb6a80     F13B_ASCII.obj
 0003:009a3a9c       _acFont13B_ASCII_004E      00fb6a9c     F13B_ASCII.obj
 0003:009a3aac       _acFont13B_ASCII_004F      00fb6aac     F13B_ASCII.obj
 0003:009a3abc       _acFont13B_ASCII_0050      00fb6abc     F13B_ASCII.obj
 0003:009a3acc       _acFont13B_ASCII_0051      00fb6acc     F13B_ASCII.obj
 0003:009a3adc       _acFont13B_ASCII_0052      00fb6adc     F13B_ASCII.obj
 0003:009a3aec       _acFont13B_ASCII_0053      00fb6aec     F13B_ASCII.obj
 0003:009a3afc       _acFont13B_ASCII_0054      00fb6afc     F13B_ASCII.obj
 0003:009a3b0c       _acFont13B_ASCII_0055      00fb6b0c     F13B_ASCII.obj
 0003:009a3b1c       _acFont13B_ASCII_0056      00fb6b1c     F13B_ASCII.obj
 0003:009a3b2c       _acFont13B_ASCII_0057      00fb6b2c     F13B_ASCII.obj
 0003:009a3b48       _acFont13B_ASCII_0058      00fb6b48     F13B_ASCII.obj
 0003:009a3b58       _acFont13B_ASCII_0059      00fb6b58     F13B_ASCII.obj
 0003:009a3b68       _acFont13B_ASCII_005A      00fb6b68     F13B_ASCII.obj
 0003:009a3b78       _acFont13B_ASCII_005B      00fb6b78     F13B_ASCII.obj
 0003:009a3b88       _acFont13B_ASCII_005C      00fb6b88     F13B_ASCII.obj
 0003:009a3b98       _acFont13B_ASCII_005D      00fb6b98     F13B_ASCII.obj
 0003:009a3ba8       _acFont13B_ASCII_005E      00fb6ba8     F13B_ASCII.obj
 0003:009a3bc4       _acFont13B_ASCII_005F      00fb6bc4     F13B_ASCII.obj
 0003:009a3bd4       _acFont13B_ASCII_0060      00fb6bd4     F13B_ASCII.obj
 0003:009a3be4       _acFont13B_ASCII_0061      00fb6be4     F13B_ASCII.obj
 0003:009a3bf4       _acFont13B_ASCII_0062      00fb6bf4     F13B_ASCII.obj
 0003:009a3c04       _acFont13B_ASCII_0063      00fb6c04     F13B_ASCII.obj
 0003:009a3c14       _acFont13B_ASCII_0064      00fb6c14     F13B_ASCII.obj
 0003:009a3c24       _acFont13B_ASCII_0065      00fb6c24     F13B_ASCII.obj
 0003:009a3c34       _acFont13B_ASCII_0066      00fb6c34     F13B_ASCII.obj
 0003:009a3c44       _acFont13B_ASCII_0067      00fb6c44     F13B_ASCII.obj
 0003:009a3c54       _acFont13B_ASCII_0068      00fb6c54     F13B_ASCII.obj
 0003:009a3c64       _acFont13B_ASCII_0069      00fb6c64     F13B_ASCII.obj
 0003:009a3c74       _acFont13B_ASCII_006A      00fb6c74     F13B_ASCII.obj
 0003:009a3c84       _acFont13B_ASCII_006B      00fb6c84     F13B_ASCII.obj
 0003:009a3c94       _acFont13B_ASCII_006C      00fb6c94     F13B_ASCII.obj
 0003:009a3ca4       _acFont13B_ASCII_006D      00fb6ca4     F13B_ASCII.obj
 0003:009a3cc0       _acFont13B_ASCII_006E      00fb6cc0     F13B_ASCII.obj
 0003:009a3cd0       _acFont13B_ASCII_006F      00fb6cd0     F13B_ASCII.obj
 0003:009a3ce0       _acFont13B_ASCII_0070      00fb6ce0     F13B_ASCII.obj
 0003:009a3cf0       _acFont13B_ASCII_0071      00fb6cf0     F13B_ASCII.obj
 0003:009a3d00       _acFont13B_ASCII_0072      00fb6d00     F13B_ASCII.obj
 0003:009a3d10       _acFont13B_ASCII_0073      00fb6d10     F13B_ASCII.obj
 0003:009a3d20       _acFont13B_ASCII_0074      00fb6d20     F13B_ASCII.obj
 0003:009a3d30       _acFont13B_ASCII_0075      00fb6d30     F13B_ASCII.obj
 0003:009a3d40       _acFont13B_ASCII_0076      00fb6d40     F13B_ASCII.obj
 0003:009a3d50       _acFont13B_ASCII_0077      00fb6d50     F13B_ASCII.obj
 0003:009a3d6c       _acFont13B_ASCII_0078      00fb6d6c     F13B_ASCII.obj
 0003:009a3d7c       _acFont13B_ASCII_0079      00fb6d7c     F13B_ASCII.obj
 0003:009a3d8c       _acFont13B_ASCII_007A      00fb6d8c     F13B_ASCII.obj
 0003:009a3d9c       _acFont13B_ASCII_007B      00fb6d9c     F13B_ASCII.obj
 0003:009a3dac       _acFont13B_ASCII_007C      00fb6dac     F13B_ASCII.obj
 0003:009a3dbc       _acFont13B_ASCII_007D      00fb6dbc     F13B_ASCII.obj
 0003:009a3dcc       _acFont13B_ASCII_007E      00fb6dcc     F13B_ASCII.obj
 0003:009a3de8       _GUI_Font13B_ASCII_CharInfo 00fb6de8     F13B_ASCII.obj
 0003:009a40e0       _GUI_Font13B_ASCII_Prop1   00fb70e0     F13B_ASCII.obj
 0003:009a40ec       _GUI_Font13B_ASCII         00fb70ec     F13B_ASCII.obj
 0003:009a4308       _acFont13HB_1_00A0         00fb7308     F13HB_1.obj
 0003:009a4318       _acFont13HB_1_00A1         00fb7318     F13HB_1.obj
 0003:009a4328       _acFont13HB_1_00A2         00fb7328     F13HB_1.obj
 0003:009a4338       _acFont13HB_1_00A3         00fb7338     F13HB_1.obj
 0003:009a4348       _acFont13HB_1_00A4         00fb7348     F13HB_1.obj
 0003:009a4358       _acFont13HB_1_00A5         00fb7358     F13HB_1.obj
 0003:009a4368       _acFont13HB_1_00A6         00fb7368     F13HB_1.obj
 0003:009a4378       _acFont13HB_1_00A7         00fb7378     F13HB_1.obj
 0003:009a4388       _acFont13HB_1_00A8         00fb7388     F13HB_1.obj
 0003:009a4398       _acFont13HB_1_00A9         00fb7398     F13HB_1.obj
 0003:009a43b4       _acFont13HB_1_00AA         00fb73b4     F13HB_1.obj
 0003:009a43c4       _acFont13HB_1_00AB         00fb73c4     F13HB_1.obj
 0003:009a43e0       _acFont13HB_1_00AC         00fb73e0     F13HB_1.obj
 0003:009a43fc       _acFont13HB_1_00AD         00fb73fc     F13HB_1.obj
 0003:009a440c       _acFont13HB_1_00AE         00fb740c     F13HB_1.obj
 0003:009a4428       _acFont13HB_1_00AF         00fb7428     F13HB_1.obj
 0003:009a4438       _acFont13HB_1_00B0         00fb7438     F13HB_1.obj
 0003:009a4448       _acFont13HB_1_00B1         00fb7448     F13HB_1.obj
 0003:009a4464       _acFont13HB_1_00B2         00fb7464     F13HB_1.obj
 0003:009a4474       _acFont13HB_1_00B3         00fb7474     F13HB_1.obj
 0003:009a4484       _acFont13HB_1_00B4         00fb7484     F13HB_1.obj
 0003:009a4494       _acFont13HB_1_00B5         00fb7494     F13HB_1.obj
 0003:009a44a4       _acFont13HB_1_00B6         00fb74a4     F13HB_1.obj
 0003:009a44b4       _acFont13HB_1_00B7         00fb74b4     F13HB_1.obj
 0003:009a44c4       _acFont13HB_1_00B8         00fb74c4     F13HB_1.obj
 0003:009a44d4       _acFont13HB_1_00B9         00fb74d4     F13HB_1.obj
 0003:009a44e4       _acFont13HB_1_00BA         00fb74e4     F13HB_1.obj
 0003:009a44f4       _acFont13HB_1_00BB         00fb74f4     F13HB_1.obj
 0003:009a4510       _acFont13HB_1_00BC         00fb7510     F13HB_1.obj
 0003:009a452c       _acFont13HB_1_00BD         00fb752c     F13HB_1.obj
 0003:009a4548       _acFont13HB_1_00BE         00fb7548     F13HB_1.obj
 0003:009a4564       _acFont13HB_1_00BF         00fb7564     F13HB_1.obj
 0003:009a4574       _acFont13HB_1_00C0         00fb7574     F13HB_1.obj
 0003:009a4590       _acFont13HB_1_00C1         00fb7590     F13HB_1.obj
 0003:009a45ac       _acFont13HB_1_00C2         00fb75ac     F13HB_1.obj
 0003:009a45c8       _acFont13HB_1_00C3         00fb75c8     F13HB_1.obj
 0003:009a45e4       _acFont13HB_1_00C4         00fb75e4     F13HB_1.obj
 0003:009a4600       _acFont13HB_1_00C5         00fb7600     F13HB_1.obj
 0003:009a461c       _acFont13HB_1_00C6         00fb761c     F13HB_1.obj
 0003:009a4638       _acFont13HB_1_00C7         00fb7638     F13HB_1.obj
 0003:009a4648       _acFont13HB_1_00C8         00fb7648     F13HB_1.obj
 0003:009a4658       _acFont13HB_1_00C9         00fb7658     F13HB_1.obj
 0003:009a4668       _acFont13HB_1_00CA         00fb7668     F13HB_1.obj
 0003:009a4678       _acFont13HB_1_00CB         00fb7678     F13HB_1.obj
 0003:009a4688       _acFont13HB_1_00CC         00fb7688     F13HB_1.obj
 0003:009a4698       _acFont13HB_1_00CD         00fb7698     F13HB_1.obj
 0003:009a46a8       _acFont13HB_1_00CE         00fb76a8     F13HB_1.obj
 0003:009a46b8       _acFont13HB_1_00CF         00fb76b8     F13HB_1.obj
 0003:009a46c8       _acFont13HB_1_00D0         00fb76c8     F13HB_1.obj
 0003:009a46e4       _acFont13HB_1_00D1         00fb76e4     F13HB_1.obj
 0003:009a46f4       _acFont13HB_1_00D2         00fb76f4     F13HB_1.obj
 0003:009a4710       _acFont13HB_1_00D3         00fb7710     F13HB_1.obj
 0003:009a472c       _acFont13HB_1_00D4         00fb772c     F13HB_1.obj
 0003:009a4748       _acFont13HB_1_00D5         00fb7748     F13HB_1.obj
 0003:009a4764       _acFont13HB_1_00D6         00fb7764     F13HB_1.obj
 0003:009a4780       _acFont13HB_1_00D7         00fb7780     F13HB_1.obj
 0003:009a479c       _acFont13HB_1_00D8         00fb779c     F13HB_1.obj
 0003:009a47b8       _acFont13HB_1_00D9         00fb77b8     F13HB_1.obj
 0003:009a47c8       _acFont13HB_1_00DA         00fb77c8     F13HB_1.obj
 0003:009a47d8       _acFont13HB_1_00DB         00fb77d8     F13HB_1.obj
 0003:009a47e8       _acFont13HB_1_00DC         00fb77e8     F13HB_1.obj
 0003:009a47f8       _acFont13HB_1_00DD         00fb77f8     F13HB_1.obj
 0003:009a4814       _acFont13HB_1_00DE         00fb7814     F13HB_1.obj
 0003:009a4830       _acFont13HB_1_00DF         00fb7830     F13HB_1.obj
 0003:009a4840       _acFont13HB_1_00E0         00fb7840     F13HB_1.obj
 0003:009a4850       _acFont13HB_1_00E1         00fb7850     F13HB_1.obj
 0003:009a4860       _acFont13HB_1_00E2         00fb7860     F13HB_1.obj
 0003:009a4870       _acFont13HB_1_00E3         00fb7870     F13HB_1.obj
 0003:009a4880       _acFont13HB_1_00E4         00fb7880     F13HB_1.obj
 0003:009a4890       _acFont13HB_1_00E5         00fb7890     F13HB_1.obj
 0003:009a48a0       _acFont13HB_1_00E6         00fb78a0     F13HB_1.obj
 0003:009a48bc       _acFont13HB_1_00E7         00fb78bc     F13HB_1.obj
 0003:009a48cc       _acFont13HB_1_00E8         00fb78cc     F13HB_1.obj
 0003:009a48dc       _acFont13HB_1_00E9         00fb78dc     F13HB_1.obj
 0003:009a48ec       _acFont13HB_1_00EA         00fb78ec     F13HB_1.obj
 0003:009a48fc       _acFont13HB_1_00EB         00fb78fc     F13HB_1.obj
 0003:009a490c       _acFont13HB_1_00EC         00fb790c     F13HB_1.obj
 0003:009a491c       _acFont13HB_1_00ED         00fb791c     F13HB_1.obj
 0003:009a492c       _acFont13HB_1_00EE         00fb792c     F13HB_1.obj
 0003:009a493c       _acFont13HB_1_00EF         00fb793c     F13HB_1.obj
 0003:009a494c       _acFont13HB_1_00F0         00fb794c     F13HB_1.obj
 0003:009a495c       _acFont13HB_1_00F1         00fb795c     F13HB_1.obj
 0003:009a496c       _acFont13HB_1_00F2         00fb796c     F13HB_1.obj
 0003:009a497c       _acFont13HB_1_00F3         00fb797c     F13HB_1.obj
 0003:009a498c       _acFont13HB_1_00F4         00fb798c     F13HB_1.obj
 0003:009a499c       _acFont13HB_1_00F5         00fb799c     F13HB_1.obj
 0003:009a49ac       _acFont13HB_1_00F6         00fb79ac     F13HB_1.obj
 0003:009a49bc       _acFont13HB_1_00F7         00fb79bc     F13HB_1.obj
 0003:009a49d8       _acFont13HB_1_00F8         00fb79d8     F13HB_1.obj
 0003:009a49e8       _acFont13HB_1_00F9         00fb79e8     F13HB_1.obj
 0003:009a49f8       _acFont13HB_1_00FA         00fb79f8     F13HB_1.obj
 0003:009a4a08       _acFont13HB_1_00FB         00fb7a08     F13HB_1.obj
 0003:009a4a18       _acFont13HB_1_00FC         00fb7a18     F13HB_1.obj
 0003:009a4a28       _acFont13HB_1_00FD         00fb7a28     F13HB_1.obj
 0003:009a4a38       _acFont13HB_1_00FE         00fb7a38     F13HB_1.obj
 0003:009a4a48       _acFont13HB_1_00FF         00fb7a48     F13HB_1.obj
 0003:009a4a58       _GUI_Font13HB_1_CharInfo   00fb7a58     F13HB_1.obj
 0003:009a4d58       _GUI_Font13HB_1_Prop2      00fb7d58     F13HB_1.obj
 0003:009a4d64       _GUI_Font13HB_1_Prop1      00fb7d64     F13HB_1.obj
 0003:009a4d70       _GUI_Font13HB_1            00fb7d70     F13HB_1.obj
 0003:009a4fb0       _acFont13HB_ASCII_0020     00fb7fb0     F13HB_ASCII.obj
 0003:009a4fc0       _acFont13HB_ASCII_0021     00fb7fc0     F13HB_ASCII.obj
 0003:009a4fd0       _acFont13HB_ASCII_0022     00fb7fd0     F13HB_ASCII.obj
 0003:009a4fe0       _acFont13HB_ASCII_0023     00fb7fe0     F13HB_ASCII.obj
 0003:009a4ffc       _acFont13HB_ASCII_0024     00fb7ffc     F13HB_ASCII.obj
 0003:009a500c       _acFont13HB_ASCII_0025     00fb800c     F13HB_ASCII.obj
 0003:009a5028       _acFont13HB_ASCII_0026     00fb8028     F13HB_ASCII.obj
 0003:009a5044       _acFont13HB_ASCII_0027     00fb8044     F13HB_ASCII.obj
 0003:009a5054       _acFont13HB_ASCII_0028     00fb8054     F13HB_ASCII.obj
 0003:009a5064       _acFont13HB_ASCII_0029     00fb8064     F13HB_ASCII.obj
 0003:009a5074       _acFont13HB_ASCII_002A     00fb8074     F13HB_ASCII.obj
 0003:009a5084       _acFont13HB_ASCII_002B     00fb8084     F13HB_ASCII.obj
 0003:009a50a0       _acFont13HB_ASCII_002C     00fb80a0     F13HB_ASCII.obj
 0003:009a50b0       _acFont13HB_ASCII_002D     00fb80b0     F13HB_ASCII.obj
 0003:009a50c0       _acFont13HB_ASCII_002E     00fb80c0     F13HB_ASCII.obj
 0003:009a50d0       _acFont13HB_ASCII_002F     00fb80d0     F13HB_ASCII.obj
 0003:009a50e0       _acFont13HB_ASCII_0030     00fb80e0     F13HB_ASCII.obj
 0003:009a50f0       _acFont13HB_ASCII_0031     00fb80f0     F13HB_ASCII.obj
 0003:009a5100       _acFont13HB_ASCII_0032     00fb8100     F13HB_ASCII.obj
 0003:009a5110       _acFont13HB_ASCII_0033     00fb8110     F13HB_ASCII.obj
 0003:009a5120       _acFont13HB_ASCII_0034     00fb8120     F13HB_ASCII.obj
 0003:009a5130       _acFont13HB_ASCII_0035     00fb8130     F13HB_ASCII.obj
 0003:009a5140       _acFont13HB_ASCII_0036     00fb8140     F13HB_ASCII.obj
 0003:009a5150       _acFont13HB_ASCII_0037     00fb8150     F13HB_ASCII.obj
 0003:009a5160       _acFont13HB_ASCII_0038     00fb8160     F13HB_ASCII.obj
 0003:009a5170       _acFont13HB_ASCII_0039     00fb8170     F13HB_ASCII.obj
 0003:009a5180       _acFont13HB_ASCII_003A     00fb8180     F13HB_ASCII.obj
 0003:009a5190       _acFont13HB_ASCII_003B     00fb8190     F13HB_ASCII.obj
 0003:009a51a0       _acFont13HB_ASCII_003C     00fb81a0     F13HB_ASCII.obj
 0003:009a51bc       _acFont13HB_ASCII_003D     00fb81bc     F13HB_ASCII.obj
 0003:009a51d8       _acFont13HB_ASCII_003E     00fb81d8     F13HB_ASCII.obj
 0003:009a51f4       _acFont13HB_ASCII_003F     00fb81f4     F13HB_ASCII.obj
 0003:009a5204       _acFont13HB_ASCII_0040     00fb8204     F13HB_ASCII.obj
 0003:009a5220       _acFont13HB_ASCII_0041     00fb8220     F13HB_ASCII.obj
 0003:009a523c       _acFont13HB_ASCII_0042     00fb823c     F13HB_ASCII.obj
 0003:009a524c       _acFont13HB_ASCII_0043     00fb824c     F13HB_ASCII.obj
 0003:009a525c       _acFont13HB_ASCII_0044     00fb825c     F13HB_ASCII.obj
 0003:009a5278       _acFont13HB_ASCII_0045     00fb8278     F13HB_ASCII.obj
 0003:009a5288       _acFont13HB_ASCII_0046     00fb8288     F13HB_ASCII.obj
 0003:009a5298       _acFont13HB_ASCII_0047     00fb8298     F13HB_ASCII.obj
 0003:009a52a8       _acFont13HB_ASCII_0048     00fb82a8     F13HB_ASCII.obj
 0003:009a52c4       _acFont13HB_ASCII_0049     00fb82c4     F13HB_ASCII.obj
 0003:009a52d4       _acFont13HB_ASCII_004A     00fb82d4     F13HB_ASCII.obj
 0003:009a52e4       _acFont13HB_ASCII_004B     00fb82e4     F13HB_ASCII.obj
 0003:009a52f4       _acFont13HB_ASCII_004C     00fb82f4     F13HB_ASCII.obj
 0003:009a5304       _acFont13HB_ASCII_004D     00fb8304     F13HB_ASCII.obj
 0003:009a5320       _acFont13HB_ASCII_004E     00fb8320     F13HB_ASCII.obj
 0003:009a5330       _acFont13HB_ASCII_004F     00fb8330     F13HB_ASCII.obj
 0003:009a534c       _acFont13HB_ASCII_0050     00fb834c     F13HB_ASCII.obj
 0003:009a535c       _acFont13HB_ASCII_0051     00fb835c     F13HB_ASCII.obj
 0003:009a5378       _acFont13HB_ASCII_0052     00fb8378     F13HB_ASCII.obj
 0003:009a5394       _acFont13HB_ASCII_0053     00fb8394     F13HB_ASCII.obj
 0003:009a53a4       _acFont13HB_ASCII_0054     00fb83a4     F13HB_ASCII.obj
 0003:009a53b4       _acFont13HB_ASCII_0055     00fb83b4     F13HB_ASCII.obj
 0003:009a53c4       _acFont13HB_ASCII_0056     00fb83c4     F13HB_ASCII.obj
 0003:009a53e0       _acFont13HB_ASCII_0057     00fb83e0     F13HB_ASCII.obj
 0003:009a53fc       _acFont13HB_ASCII_0058     00fb83fc     F13HB_ASCII.obj
 0003:009a5418       _acFont13HB_ASCII_0059     00fb8418     F13HB_ASCII.obj
 0003:009a5434       _acFont13HB_ASCII_005A     00fb8434     F13HB_ASCII.obj
 0003:009a5444       _acFont13HB_ASCII_005B     00fb8444     F13HB_ASCII.obj
 0003:009a5454       _acFont13HB_ASCII_005C     00fb8454     F13HB_ASCII.obj
 0003:009a5464       _acFont13HB_ASCII_005D     00fb8464     F13HB_ASCII.obj
 0003:009a5474       _acFont13HB_ASCII_005E     00fb8474     F13HB_ASCII.obj
 0003:009a5490       _acFont13HB_ASCII_005F     00fb8490     F13HB_ASCII.obj
 0003:009a54a0       _acFont13HB_ASCII_0060     00fb84a0     F13HB_ASCII.obj
 0003:009a54b0       _acFont13HB_ASCII_0061     00fb84b0     F13HB_ASCII.obj
 0003:009a54c0       _acFont13HB_ASCII_0062     00fb84c0     F13HB_ASCII.obj
 0003:009a54d0       _acFont13HB_ASCII_0063     00fb84d0     F13HB_ASCII.obj
 0003:009a54e0       _acFont13HB_ASCII_0064     00fb84e0     F13HB_ASCII.obj
 0003:009a54f0       _acFont13HB_ASCII_0065     00fb84f0     F13HB_ASCII.obj
 0003:009a5500       _acFont13HB_ASCII_0066     00fb8500     F13HB_ASCII.obj
 0003:009a5510       _acFont13HB_ASCII_0067     00fb8510     F13HB_ASCII.obj
 0003:009a5520       _acFont13HB_ASCII_0068     00fb8520     F13HB_ASCII.obj
 0003:009a5530       _acFont13HB_ASCII_0069     00fb8530     F13HB_ASCII.obj
 0003:009a5540       _acFont13HB_ASCII_006A     00fb8540     F13HB_ASCII.obj
 0003:009a5550       _acFont13HB_ASCII_006B     00fb8550     F13HB_ASCII.obj
 0003:009a5560       _acFont13HB_ASCII_006C     00fb8560     F13HB_ASCII.obj
 0003:009a5570       _acFont13HB_ASCII_006D     00fb8570     F13HB_ASCII.obj
 0003:009a558c       _acFont13HB_ASCII_006E     00fb858c     F13HB_ASCII.obj
 0003:009a559c       _acFont13HB_ASCII_006F     00fb859c     F13HB_ASCII.obj
 0003:009a55ac       _acFont13HB_ASCII_0070     00fb85ac     F13HB_ASCII.obj
 0003:009a55bc       _acFont13HB_ASCII_0071     00fb85bc     F13HB_ASCII.obj
 0003:009a55cc       _acFont13HB_ASCII_0072     00fb85cc     F13HB_ASCII.obj
 0003:009a55dc       _acFont13HB_ASCII_0073     00fb85dc     F13HB_ASCII.obj
 0003:009a55ec       _acFont13HB_ASCII_0074     00fb85ec     F13HB_ASCII.obj
 0003:009a55fc       _acFont13HB_ASCII_0075     00fb85fc     F13HB_ASCII.obj
 0003:009a560c       _acFont13HB_ASCII_0076     00fb860c     F13HB_ASCII.obj
 0003:009a561c       _acFont13HB_ASCII_0077     00fb861c     F13HB_ASCII.obj
 0003:009a5638       _acFont13HB_ASCII_0078     00fb8638     F13HB_ASCII.obj
 0003:009a5648       _acFont13HB_ASCII_0079     00fb8648     F13HB_ASCII.obj
 0003:009a5658       _acFont13HB_ASCII_007A     00fb8658     F13HB_ASCII.obj
 0003:009a5668       _acFont13HB_ASCII_007B     00fb8668     F13HB_ASCII.obj
 0003:009a5678       _acFont13HB_ASCII_007C     00fb8678     F13HB_ASCII.obj
 0003:009a5688       _acFont13HB_ASCII_007D     00fb8688     F13HB_ASCII.obj
 0003:009a5698       _acFont13HB_ASCII_007E     00fb8698     F13HB_ASCII.obj
 0003:009a56b8       _GUI_Font13HB_ASCII_CharInfo 00fb86b8     F13HB_ASCII.obj
 0003:009a59b0       _GUI_Font13HB_ASCII_Prop1  00fb89b0     F13HB_ASCII.obj
 0003:009a59bc       _GUI_Font13HB_ASCII        00fb89bc     F13HB_ASCII.obj
 0003:009a5bf0       _acFont13H_1_00A0          00fb8bf0     F13H_1.obj
 0003:009a5c00       _acFont13H_1_00A1          00fb8c00     F13H_1.obj
 0003:009a5c10       _acFont13H_1_00A2          00fb8c10     F13H_1.obj
 0003:009a5c20       _acFont13H_1_00A3          00fb8c20     F13H_1.obj
 0003:009a5c30       _acFont13H_1_00A4          00fb8c30     F13H_1.obj
 0003:009a5c40       _acFont13H_1_00A5          00fb8c40     F13H_1.obj
 0003:009a5c50       _acFont13H_1_00A6          00fb8c50     F13H_1.obj
 0003:009a5c60       _acFont13H_1_00A7          00fb8c60     F13H_1.obj
 0003:009a5c70       _acFont13H_1_00A8          00fb8c70     F13H_1.obj
 0003:009a5c80       _acFont13H_1_00A9          00fb8c80     F13H_1.obj
 0003:009a5c9c       _acFont13H_1_00AA          00fb8c9c     F13H_1.obj
 0003:009a5cac       _acFont13H_1_00AB          00fb8cac     F13H_1.obj
 0003:009a5cbc       _acFont13H_1_00AC          00fb8cbc     F13H_1.obj
 0003:009a5cd8       _acFont13H_1_00AD          00fb8cd8     F13H_1.obj
 0003:009a5ce8       _acFont13H_1_00AE          00fb8ce8     F13H_1.obj
 0003:009a5d04       _acFont13H_1_00AF          00fb8d04     F13H_1.obj
 0003:009a5d14       _acFont13H_1_00B0          00fb8d14     F13H_1.obj
 0003:009a5d24       _acFont13H_1_00B1          00fb8d24     F13H_1.obj
 0003:009a5d34       _acFont13H_1_00B2          00fb8d34     F13H_1.obj
 0003:009a5d44       _acFont13H_1_00B3          00fb8d44     F13H_1.obj
 0003:009a5d54       _acFont13H_1_00B4          00fb8d54     F13H_1.obj
 0003:009a5d64       _acFont13H_1_00B5          00fb8d64     F13H_1.obj
 0003:009a5d74       _acFont13H_1_00B6          00fb8d74     F13H_1.obj
 0003:009a5d84       _acFont13H_1_00B7          00fb8d84     F13H_1.obj
 0003:009a5d94       _acFont13H_1_00B8          00fb8d94     F13H_1.obj
 0003:009a5da4       _acFont13H_1_00B9          00fb8da4     F13H_1.obj
 0003:009a5db4       _acFont13H_1_00BA          00fb8db4     F13H_1.obj
 0003:009a5dc4       _acFont13H_1_00BB          00fb8dc4     F13H_1.obj
 0003:009a5dd4       _acFont13H_1_00BC          00fb8dd4     F13H_1.obj
 0003:009a5df0       _acFont13H_1_00BD          00fb8df0     F13H_1.obj
 0003:009a5e0c       _acFont13H_1_00BE          00fb8e0c     F13H_1.obj
 0003:009a5e28       _acFont13H_1_00BF          00fb8e28     F13H_1.obj
 0003:009a5e38       _acFont13H_1_00C0          00fb8e38     F13H_1.obj
 0003:009a5e48       _acFont13H_1_00C1          00fb8e48     F13H_1.obj
 0003:009a5e58       _acFont13H_1_00C2          00fb8e58     F13H_1.obj
 0003:009a5e68       _acFont13H_1_00C3          00fb8e68     F13H_1.obj
 0003:009a5e78       _acFont13H_1_00C4          00fb8e78     F13H_1.obj
 0003:009a5e88       _acFont13H_1_00C5          00fb8e88     F13H_1.obj
 0003:009a5e98       _acFont13H_1_00C6          00fb8e98     F13H_1.obj
 0003:009a5eb4       _acFont13H_1_00C7          00fb8eb4     F13H_1.obj
 0003:009a5ec4       _acFont13H_1_00C8          00fb8ec4     F13H_1.obj
 0003:009a5ed4       _acFont13H_1_00C9          00fb8ed4     F13H_1.obj
 0003:009a5ee4       _acFont13H_1_00CA          00fb8ee4     F13H_1.obj
 0003:009a5ef4       _acFont13H_1_00CB          00fb8ef4     F13H_1.obj
 0003:009a5f04       _acFont13H_1_00CC          00fb8f04     F13H_1.obj
 0003:009a5f14       _acFont13H_1_00CD          00fb8f14     F13H_1.obj
 0003:009a5f24       _acFont13H_1_00CE          00fb8f24     F13H_1.obj
 0003:009a5f34       _acFont13H_1_00CF          00fb8f34     F13H_1.obj
 0003:009a5f44       _acFont13H_1_00D0          00fb8f44     F13H_1.obj
 0003:009a5f60       _acFont13H_1_00D1          00fb8f60     F13H_1.obj
 0003:009a5f70       _acFont13H_1_00D2          00fb8f70     F13H_1.obj
 0003:009a5f8c       _acFont13H_1_00D3          00fb8f8c     F13H_1.obj
 0003:009a5fa8       _acFont13H_1_00D4          00fb8fa8     F13H_1.obj
 0003:009a5fc4       _acFont13H_1_00D5          00fb8fc4     F13H_1.obj
 0003:009a5fe0       _acFont13H_1_00D6          00fb8fe0     F13H_1.obj
 0003:009a5ffc       _acFont13H_1_00D7          00fb8ffc     F13H_1.obj
 0003:009a6018       _acFont13H_1_00D8          00fb9018     F13H_1.obj
 0003:009a6034       _acFont13H_1_00D9          00fb9034     F13H_1.obj
 0003:009a6044       _acFont13H_1_00DA          00fb9044     F13H_1.obj
 0003:009a6054       _acFont13H_1_00DB          00fb9054     F13H_1.obj
 0003:009a6064       _acFont13H_1_00DC          00fb9064     F13H_1.obj
 0003:009a6074       _acFont13H_1_00DD          00fb9074     F13H_1.obj
 0003:009a6084       _acFont13H_1_00DE          00fb9084     F13H_1.obj
 0003:009a6094       _acFont13H_1_00DF          00fb9094     F13H_1.obj
 0003:009a60a4       _acFont13H_1_00E0          00fb90a4     F13H_1.obj
 0003:009a60b4       _acFont13H_1_00E1          00fb90b4     F13H_1.obj
 0003:009a60c4       _acFont13H_1_00E2          00fb90c4     F13H_1.obj
 0003:009a60d4       _acFont13H_1_00E3          00fb90d4     F13H_1.obj
 0003:009a60e4       _acFont13H_1_00E4          00fb90e4     F13H_1.obj
 0003:009a60f4       _acFont13H_1_00E5          00fb90f4     F13H_1.obj
 0003:009a6104       _acFont13H_1_00E6          00fb9104     F13H_1.obj
 0003:009a6120       _acFont13H_1_00E7          00fb9120     F13H_1.obj
 0003:009a6130       _acFont13H_1_00E8          00fb9130     F13H_1.obj
 0003:009a6140       _acFont13H_1_00E9          00fb9140     F13H_1.obj
 0003:009a6150       _acFont13H_1_00EA          00fb9150     F13H_1.obj
 0003:009a6160       _acFont13H_1_00EB          00fb9160     F13H_1.obj
 0003:009a6170       _acFont13H_1_00EC          00fb9170     F13H_1.obj
 0003:009a6180       _acFont13H_1_00ED          00fb9180     F13H_1.obj
 0003:009a6190       _acFont13H_1_00EE          00fb9190     F13H_1.obj
 0003:009a61a0       _acFont13H_1_00EF          00fb91a0     F13H_1.obj
 0003:009a61b0       _acFont13H_1_00F0          00fb91b0     F13H_1.obj
 0003:009a61c0       _acFont13H_1_00F1          00fb91c0     F13H_1.obj
 0003:009a61d0       _acFont13H_1_00F2          00fb91d0     F13H_1.obj
 0003:009a61e0       _acFont13H_1_00F3          00fb91e0     F13H_1.obj
 0003:009a61f0       _acFont13H_1_00F4          00fb91f0     F13H_1.obj
 0003:009a6200       _acFont13H_1_00F5          00fb9200     F13H_1.obj
 0003:009a6210       _acFont13H_1_00F6          00fb9210     F13H_1.obj
 0003:009a6220       _acFont13H_1_00F7          00fb9220     F13H_1.obj
 0003:009a623c       _acFont13H_1_00F8          00fb923c     F13H_1.obj
 0003:009a624c       _acFont13H_1_00F9          00fb924c     F13H_1.obj
 0003:009a625c       _acFont13H_1_00FA          00fb925c     F13H_1.obj
 0003:009a626c       _acFont13H_1_00FB          00fb926c     F13H_1.obj
 0003:009a627c       _acFont13H_1_00FC          00fb927c     F13H_1.obj
 0003:009a628c       _acFont13H_1_00FD          00fb928c     F13H_1.obj
 0003:009a629c       _acFont13H_1_00FE          00fb929c     F13H_1.obj
 0003:009a62ac       _acFont13H_1_00FF          00fb92ac     F13H_1.obj
 0003:009a62c0       _GUI_Font13H_1_CharInfo    00fb92c0     F13H_1.obj
 0003:009a65c0       _GUI_Font13H_1_Prop2       00fb95c0     F13H_1.obj
 0003:009a65cc       _GUI_Font13H_1_Prop1       00fb95cc     F13H_1.obj
 0003:009a65d8       _GUI_Font13H_1             00fb95d8     F13H_1.obj
 0003:009a6800       _acFont13H_ASCII_0020      00fb9800     F13H_ASCII.obj
 0003:009a6810       _acFont13H_ASCII_0021      00fb9810     F13H_ASCII.obj
 0003:009a6820       _acFont13H_ASCII_0022      00fb9820     F13H_ASCII.obj
 0003:009a6830       _acFont13H_ASCII_0023      00fb9830     F13H_ASCII.obj
 0003:009a684c       _acFont13H_ASCII_0024      00fb984c     F13H_ASCII.obj
 0003:009a685c       _acFont13H_ASCII_0025      00fb985c     F13H_ASCII.obj
 0003:009a6878       _acFont13H_ASCII_0026      00fb9878     F13H_ASCII.obj
 0003:009a6894       _acFont13H_ASCII_0027      00fb9894     F13H_ASCII.obj
 0003:009a68a4       _acFont13H_ASCII_0028      00fb98a4     F13H_ASCII.obj
 0003:009a68b4       _acFont13H_ASCII_0029      00fb98b4     F13H_ASCII.obj
 0003:009a68c4       _acFont13H_ASCII_002A      00fb98c4     F13H_ASCII.obj
 0003:009a68d4       _acFont13H_ASCII_002B      00fb98d4     F13H_ASCII.obj
 0003:009a68e4       _acFont13H_ASCII_002C      00fb98e4     F13H_ASCII.obj
 0003:009a68f4       _acFont13H_ASCII_002D      00fb98f4     F13H_ASCII.obj
 0003:009a6904       _acFont13H_ASCII_002E      00fb9904     F13H_ASCII.obj
 0003:009a6914       _acFont13H_ASCII_002F      00fb9914     F13H_ASCII.obj
 0003:009a6924       _acFont13H_ASCII_0030      00fb9924     F13H_ASCII.obj
 0003:009a6934       _acFont13H_ASCII_0031      00fb9934     F13H_ASCII.obj
 0003:009a6944       _acFont13H_ASCII_0032      00fb9944     F13H_ASCII.obj
 0003:009a6954       _acFont13H_ASCII_0033      00fb9954     F13H_ASCII.obj
 0003:009a6964       _acFont13H_ASCII_0034      00fb9964     F13H_ASCII.obj
 0003:009a6974       _acFont13H_ASCII_0035      00fb9974     F13H_ASCII.obj
 0003:009a6984       _acFont13H_ASCII_0036      00fb9984     F13H_ASCII.obj
 0003:009a6994       _acFont13H_ASCII_0037      00fb9994     F13H_ASCII.obj
 0003:009a69a4       _acFont13H_ASCII_0038      00fb99a4     F13H_ASCII.obj
 0003:009a69b4       _acFont13H_ASCII_0039      00fb99b4     F13H_ASCII.obj
 0003:009a69c4       _acFont13H_ASCII_003A      00fb99c4     F13H_ASCII.obj
 0003:009a69d4       _acFont13H_ASCII_003B      00fb99d4     F13H_ASCII.obj
 0003:009a69e4       _acFont13H_ASCII_003C      00fb99e4     F13H_ASCII.obj
 0003:009a6a00       _acFont13H_ASCII_003D      00fb9a00     F13H_ASCII.obj
 0003:009a6a1c       _acFont13H_ASCII_003E      00fb9a1c     F13H_ASCII.obj
 0003:009a6a38       _acFont13H_ASCII_003F      00fb9a38     F13H_ASCII.obj
 0003:009a6a48       _acFont13H_ASCII_0040      00fb9a48     F13H_ASCII.obj
 0003:009a6a64       _acFont13H_ASCII_0041      00fb9a64     F13H_ASCII.obj
 0003:009a6a74       _acFont13H_ASCII_0042      00fb9a74     F13H_ASCII.obj
 0003:009a6a84       _acFont13H_ASCII_0043      00fb9a84     F13H_ASCII.obj
 0003:009a6a94       _acFont13H_ASCII_0044      00fb9a94     F13H_ASCII.obj
 0003:009a6aa4       _acFont13H_ASCII_0045      00fb9aa4     F13H_ASCII.obj
 0003:009a6ab4       _acFont13H_ASCII_0046      00fb9ab4     F13H_ASCII.obj
 0003:009a6ac4       _acFont13H_ASCII_0047      00fb9ac4     F13H_ASCII.obj
 0003:009a6ad4       _acFont13H_ASCII_0048      00fb9ad4     F13H_ASCII.obj
 0003:009a6ae4       _acFont13H_ASCII_0049      00fb9ae4     F13H_ASCII.obj
 0003:009a6af4       _acFont13H_ASCII_004A      00fb9af4     F13H_ASCII.obj
 0003:009a6b04       _acFont13H_ASCII_004B      00fb9b04     F13H_ASCII.obj
 0003:009a6b14       _acFont13H_ASCII_004C      00fb9b14     F13H_ASCII.obj
 0003:009a6b24       _acFont13H_ASCII_004D      00fb9b24     F13H_ASCII.obj
 0003:009a6b40       _acFont13H_ASCII_004E      00fb9b40     F13H_ASCII.obj
 0003:009a6b50       _acFont13H_ASCII_004F      00fb9b50     F13H_ASCII.obj
 0003:009a6b6c       _acFont13H_ASCII_0050      00fb9b6c     F13H_ASCII.obj
 0003:009a6b7c       _acFont13H_ASCII_0051      00fb9b7c     F13H_ASCII.obj
 0003:009a6b98       _acFont13H_ASCII_0052      00fb9b98     F13H_ASCII.obj
 0003:009a6ba8       _acFont13H_ASCII_0053      00fb9ba8     F13H_ASCII.obj
 0003:009a6bb8       _acFont13H_ASCII_0054      00fb9bb8     F13H_ASCII.obj
 0003:009a6bc8       _acFont13H_ASCII_0055      00fb9bc8     F13H_ASCII.obj
 0003:009a6bd8       _acFont13H_ASCII_0056      00fb9bd8     F13H_ASCII.obj
 0003:009a6be8       _acFont13H_ASCII_0057      00fb9be8     F13H_ASCII.obj
 0003:009a6c04       _acFont13H_ASCII_0058      00fb9c04     F13H_ASCII.obj
 0003:009a6c14       _acFont13H_ASCII_0059      00fb9c14     F13H_ASCII.obj
 0003:009a6c24       _acFont13H_ASCII_005A      00fb9c24     F13H_ASCII.obj
 0003:009a6c34       _acFont13H_ASCII_005B      00fb9c34     F13H_ASCII.obj
 0003:009a6c44       _acFont13H_ASCII_005C      00fb9c44     F13H_ASCII.obj
 0003:009a6c54       _acFont13H_ASCII_005D      00fb9c54     F13H_ASCII.obj
 0003:009a6c64       _acFont13H_ASCII_005E      00fb9c64     F13H_ASCII.obj
 0003:009a6c80       _acFont13H_ASCII_005F      00fb9c80     F13H_ASCII.obj
 0003:009a6c90       _acFont13H_ASCII_0060      00fb9c90     F13H_ASCII.obj
 0003:009a6ca0       _acFont13H_ASCII_0061      00fb9ca0     F13H_ASCII.obj
 0003:009a6cb0       _acFont13H_ASCII_0062      00fb9cb0     F13H_ASCII.obj
 0003:009a6cc0       _acFont13H_ASCII_0063      00fb9cc0     F13H_ASCII.obj
 0003:009a6cd0       _acFont13H_ASCII_0064      00fb9cd0     F13H_ASCII.obj
 0003:009a6ce0       _acFont13H_ASCII_0065      00fb9ce0     F13H_ASCII.obj
 0003:009a6cf0       _acFont13H_ASCII_0066      00fb9cf0     F13H_ASCII.obj
 0003:009a6d00       _acFont13H_ASCII_0067      00fb9d00     F13H_ASCII.obj
 0003:009a6d10       _acFont13H_ASCII_0068      00fb9d10     F13H_ASCII.obj
 0003:009a6d20       _acFont13H_ASCII_0069      00fb9d20     F13H_ASCII.obj
 0003:009a6d30       _acFont13H_ASCII_006A      00fb9d30     F13H_ASCII.obj
 0003:009a6d40       _acFont13H_ASCII_006B      00fb9d40     F13H_ASCII.obj
 0003:009a6d50       _acFont13H_ASCII_006C      00fb9d50     F13H_ASCII.obj
 0003:009a6d60       _acFont13H_ASCII_006D      00fb9d60     F13H_ASCII.obj
 0003:009a6d7c       _acFont13H_ASCII_006E      00fb9d7c     F13H_ASCII.obj
 0003:009a6d8c       _acFont13H_ASCII_006F      00fb9d8c     F13H_ASCII.obj
 0003:009a6d9c       _acFont13H_ASCII_0070      00fb9d9c     F13H_ASCII.obj
 0003:009a6dac       _acFont13H_ASCII_0071      00fb9dac     F13H_ASCII.obj
 0003:009a6dbc       _acFont13H_ASCII_0072      00fb9dbc     F13H_ASCII.obj
 0003:009a6dcc       _acFont13H_ASCII_0073      00fb9dcc     F13H_ASCII.obj
 0003:009a6ddc       _acFont13H_ASCII_0074      00fb9ddc     F13H_ASCII.obj
 0003:009a6dec       _acFont13H_ASCII_0075      00fb9dec     F13H_ASCII.obj
 0003:009a6dfc       _acFont13H_ASCII_0076      00fb9dfc     F13H_ASCII.obj
 0003:009a6e0c       _acFont13H_ASCII_0077      00fb9e0c     F13H_ASCII.obj
 0003:009a6e28       _acFont13H_ASCII_0078      00fb9e28     F13H_ASCII.obj
 0003:009a6e38       _acFont13H_ASCII_0079      00fb9e38     F13H_ASCII.obj
 0003:009a6e48       _acFont13H_ASCII_007A      00fb9e48     F13H_ASCII.obj
 0003:009a6e58       _acFont13H_ASCII_007B      00fb9e58     F13H_ASCII.obj
 0003:009a6e68       _acFont13H_ASCII_007C      00fb9e68     F13H_ASCII.obj
 0003:009a6e78       _acFont13H_ASCII_007D      00fb9e78     F13H_ASCII.obj
 0003:009a6e88       _acFont13H_ASCII_007E      00fb9e88     F13H_ASCII.obj
 0003:009a6ea8       _GUI_Font13H_ASCII_CharInfo 00fb9ea8     F13H_ASCII.obj
 0003:009a71a0       _GUI_Font13H_ASCII_Prop1   00fba1a0     F13H_ASCII.obj
 0003:009a71ac       _GUI_Font13H_ASCII         00fba1ac     F13H_ASCII.obj
 0003:009a73c8       _acFont13_1_00A0           00fba3c8     F13_1.obj
 0003:009a73d8       _acFont13_1_00A1           00fba3d8     F13_1.obj
 0003:009a73e8       _acFont13_1_00A2           00fba3e8     F13_1.obj
 0003:009a73f8       _acFont13_1_00A3           00fba3f8     F13_1.obj
 0003:009a7408       _acFont13_1_00A4           00fba408     F13_1.obj
 0003:009a7418       _acFont13_1_00A5           00fba418     F13_1.obj
 0003:009a7428       _acFont13_1_00A6           00fba428     F13_1.obj
 0003:009a7438       _acFont13_1_00A7           00fba438     F13_1.obj
 0003:009a7448       _acFont13_1_00A8           00fba448     F13_1.obj
 0003:009a7458       _acFont13_1_00A9           00fba458     F13_1.obj
 0003:009a7474       _acFont13_1_00AA           00fba474     F13_1.obj
 0003:009a7484       _acFont13_1_00AB           00fba484     F13_1.obj
 0003:009a7494       _acFont13_1_00AC           00fba494     F13_1.obj
 0003:009a74a4       _acFont13_1_00AD           00fba4a4     F13_1.obj
 0003:009a74b4       _acFont13_1_00AE           00fba4b4     F13_1.obj
 0003:009a74d0       _acFont13_1_00AF           00fba4d0     F13_1.obj
 0003:009a74e0       _acFont13_1_00B0           00fba4e0     F13_1.obj
 0003:009a74f0       _acFont13_1_00B1           00fba4f0     F13_1.obj
 0003:009a7500       _acFont13_1_00B2           00fba500     F13_1.obj
 0003:009a7510       _acFont13_1_00B3           00fba510     F13_1.obj
 0003:009a7520       _acFont13_1_00B4           00fba520     F13_1.obj
 0003:009a7530       _acFont13_1_00B5           00fba530     F13_1.obj
 0003:009a7540       _acFont13_1_00B6           00fba540     F13_1.obj
 0003:009a7550       _acFont13_1_00B7           00fba550     F13_1.obj
 0003:009a7560       _acFont13_1_00B8           00fba560     F13_1.obj
 0003:009a7570       _acFont13_1_00B9           00fba570     F13_1.obj
 0003:009a7580       _acFont13_1_00BA           00fba580     F13_1.obj
 0003:009a7590       _acFont13_1_00BB           00fba590     F13_1.obj
 0003:009a75a0       _acFont13_1_00BC           00fba5a0     F13_1.obj
 0003:009a75bc       _acFont13_1_00BD           00fba5bc     F13_1.obj
 0003:009a75d8       _acFont13_1_00BE           00fba5d8     F13_1.obj
 0003:009a75f4       _acFont13_1_00BF           00fba5f4     F13_1.obj
 0003:009a7604       _acFont13_1_00C0           00fba604     F13_1.obj
 0003:009a7614       _acFont13_1_00C1           00fba614     F13_1.obj
 0003:009a7624       _acFont13_1_00C2           00fba624     F13_1.obj
 0003:009a7634       _acFont13_1_00C3           00fba634     F13_1.obj
 0003:009a7644       _acFont13_1_00C4           00fba644     F13_1.obj
 0003:009a7654       _acFont13_1_00C5           00fba654     F13_1.obj
 0003:009a7664       _acFont13_1_00C6           00fba664     F13_1.obj
 0003:009a7680       _acFont13_1_00C7           00fba680     F13_1.obj
 0003:009a7690       _acFont13_1_00C8           00fba690     F13_1.obj
 0003:009a76a0       _acFont13_1_00C9           00fba6a0     F13_1.obj
 0003:009a76b0       _acFont13_1_00CA           00fba6b0     F13_1.obj
 0003:009a76c0       _acFont13_1_00CB           00fba6c0     F13_1.obj
 0003:009a76d0       _acFont13_1_00CC           00fba6d0     F13_1.obj
 0003:009a76e0       _acFont13_1_00CD           00fba6e0     F13_1.obj
 0003:009a76f0       _acFont13_1_00CE           00fba6f0     F13_1.obj
 0003:009a7700       _acFont13_1_00CF           00fba700     F13_1.obj
 0003:009a7710       _acFont13_1_00D0           00fba710     F13_1.obj
 0003:009a7720       _acFont13_1_00D1           00fba720     F13_1.obj
 0003:009a7730       _acFont13_1_00D2           00fba730     F13_1.obj
 0003:009a7740       _acFont13_1_00D3           00fba740     F13_1.obj
 0003:009a7750       _acFont13_1_00D4           00fba750     F13_1.obj
 0003:009a7760       _acFont13_1_00D5           00fba760     F13_1.obj
 0003:009a7770       _acFont13_1_00D6           00fba770     F13_1.obj
 0003:009a7780       _acFont13_1_00D7           00fba780     F13_1.obj
 0003:009a7790       _acFont13_1_00D8           00fba790     F13_1.obj
 0003:009a77a0       _acFont13_1_00D9           00fba7a0     F13_1.obj
 0003:009a77b0       _acFont13_1_00DA           00fba7b0     F13_1.obj
 0003:009a77c0       _acFont13_1_00DB           00fba7c0     F13_1.obj
 0003:009a77d0       _acFont13_1_00DC           00fba7d0     F13_1.obj
 0003:009a77e0       _acFont13_1_00DD           00fba7e0     F13_1.obj
 0003:009a77f0       _acFont13_1_00DE           00fba7f0     F13_1.obj
 0003:009a7800       _acFont13_1_00DF           00fba800     F13_1.obj
 0003:009a7810       _acFont13_1_00E0           00fba810     F13_1.obj
 0003:009a7820       _acFont13_1_00E1           00fba820     F13_1.obj
 0003:009a7830       _acFont13_1_00E2           00fba830     F13_1.obj
 0003:009a7840       _acFont13_1_00E3           00fba840     F13_1.obj
 0003:009a7850       _acFont13_1_00E4           00fba850     F13_1.obj
 0003:009a7860       _acFont13_1_00E5           00fba860     F13_1.obj
 0003:009a7870       _acFont13_1_00E6           00fba870     F13_1.obj
 0003:009a788c       _acFont13_1_00E7           00fba88c     F13_1.obj
 0003:009a789c       _acFont13_1_00E8           00fba89c     F13_1.obj
 0003:009a78ac       _acFont13_1_00E9           00fba8ac     F13_1.obj
 0003:009a78bc       _acFont13_1_00EA           00fba8bc     F13_1.obj
 0003:009a78cc       _acFont13_1_00EB           00fba8cc     F13_1.obj
 0003:009a78dc       _acFont13_1_00EC           00fba8dc     F13_1.obj
 0003:009a78ec       _acFont13_1_00ED           00fba8ec     F13_1.obj
 0003:009a78fc       _acFont13_1_00EE           00fba8fc     F13_1.obj
 0003:009a790c       _acFont13_1_00EF           00fba90c     F13_1.obj
 0003:009a791c       _acFont13_1_00F0           00fba91c     F13_1.obj
 0003:009a792c       _acFont13_1_00F1           00fba92c     F13_1.obj
 0003:009a793c       _acFont13_1_00F2           00fba93c     F13_1.obj
 0003:009a794c       _acFont13_1_00F3           00fba94c     F13_1.obj
 0003:009a795c       _acFont13_1_00F4           00fba95c     F13_1.obj
 0003:009a796c       _acFont13_1_00F5           00fba96c     F13_1.obj
 0003:009a797c       _acFont13_1_00F6           00fba97c     F13_1.obj
 0003:009a798c       _acFont13_1_00F7           00fba98c     F13_1.obj
 0003:009a799c       _acFont13_1_00F8           00fba99c     F13_1.obj
 0003:009a79ac       _acFont13_1_00F9           00fba9ac     F13_1.obj
 0003:009a79bc       _acFont13_1_00FA           00fba9bc     F13_1.obj
 0003:009a79cc       _acFont13_1_00FB           00fba9cc     F13_1.obj
 0003:009a79dc       _acFont13_1_00FC           00fba9dc     F13_1.obj
 0003:009a79ec       _acFont13_1_00FD           00fba9ec     F13_1.obj
 0003:009a79fc       _acFont13_1_00FE           00fba9fc     F13_1.obj
 0003:009a7a0c       _acFont13_1_00FF           00fbaa0c     F13_1.obj
 0003:009a7a20       _GUI_Font13_1_CharInfo     00fbaa20     F13_1.obj
 0003:009a7d20       _GUI_Font13_1_Prop1        00fbad20     F13_1.obj
 0003:009a7d2c       _GUI_Font13_1              00fbad2c     F13_1.obj
 0003:009a7f38       _acFont13ASCII_0020        00fbaf38     F13_ASCII.obj
 0003:009a7f48       _acFont13ASCII_0021        00fbaf48     F13_ASCII.obj
 0003:009a7f58       _acFont13ASCII_0022        00fbaf58     F13_ASCII.obj
 0003:009a7f68       _acFont13ASCII_0023        00fbaf68     F13_ASCII.obj
 0003:009a7f78       _acFont13ASCII_0024        00fbaf78     F13_ASCII.obj
 0003:009a7f88       _acFont13ASCII_0025        00fbaf88     F13_ASCII.obj
 0003:009a7fa4       _acFont13ASCII_0026        00fbafa4     F13_ASCII.obj
 0003:009a7fb4       _acFont13ASCII_0027        00fbafb4     F13_ASCII.obj
 0003:009a7fc4       _acFont13ASCII_0028        00fbafc4     F13_ASCII.obj
 0003:009a7fd4       _acFont13ASCII_0029        00fbafd4     F13_ASCII.obj
 0003:009a7fe4       _acFont13ASCII_002A        00fbafe4     F13_ASCII.obj
 0003:009a7ff4       _acFont13ASCII_002B        00fbaff4     F13_ASCII.obj
 0003:009a8004       _acFont13ASCII_002C        00fbb004     F13_ASCII.obj
 0003:009a8014       _acFont13ASCII_002D        00fbb014     F13_ASCII.obj
 0003:009a8024       _acFont13ASCII_002E        00fbb024     F13_ASCII.obj
 0003:009a8034       _acFont13ASCII_002F        00fbb034     F13_ASCII.obj
 0003:009a8044       _acFont13ASCII_0030        00fbb044     F13_ASCII.obj
 0003:009a8054       _acFont13ASCII_0031        00fbb054     F13_ASCII.obj
 0003:009a8064       _acFont13ASCII_0032        00fbb064     F13_ASCII.obj
 0003:009a8074       _acFont13ASCII_0033        00fbb074     F13_ASCII.obj
 0003:009a8084       _acFont13ASCII_0034        00fbb084     F13_ASCII.obj
 0003:009a8094       _acFont13ASCII_0035        00fbb094     F13_ASCII.obj
 0003:009a80a4       _acFont13ASCII_0036        00fbb0a4     F13_ASCII.obj
 0003:009a80b4       _acFont13ASCII_0037        00fbb0b4     F13_ASCII.obj
 0003:009a80c4       _acFont13ASCII_0038        00fbb0c4     F13_ASCII.obj
 0003:009a80d4       _acFont13ASCII_0039        00fbb0d4     F13_ASCII.obj
 0003:009a80e4       _acFont13ASCII_003A        00fbb0e4     F13_ASCII.obj
 0003:009a80f4       _acFont13ASCII_003B        00fbb0f4     F13_ASCII.obj
 0003:009a8104       _acFont13ASCII_003C        00fbb104     F13_ASCII.obj
 0003:009a8114       _acFont13ASCII_003D        00fbb114     F13_ASCII.obj
 0003:009a8124       _acFont13ASCII_003E        00fbb124     F13_ASCII.obj
 0003:009a8134       _acFont13ASCII_003F        00fbb134     F13_ASCII.obj
 0003:009a8144       _acFont13ASCII_0040        00fbb144     F13_ASCII.obj
 0003:009a8160       _acFont13ASCII_0041        00fbb160     F13_ASCII.obj
 0003:009a8170       _acFont13ASCII_0042        00fbb170     F13_ASCII.obj
 0003:009a8180       _acFont13ASCII_0043        00fbb180     F13_ASCII.obj
 0003:009a8190       _acFont13ASCII_0044        00fbb190     F13_ASCII.obj
 0003:009a81a0       _acFont13ASCII_0045        00fbb1a0     F13_ASCII.obj
 0003:009a81b0       _acFont13ASCII_0046        00fbb1b0     F13_ASCII.obj
 0003:009a81c0       _acFont13ASCII_0047        00fbb1c0     F13_ASCII.obj
 0003:009a81d0       _acFont13ASCII_0048        00fbb1d0     F13_ASCII.obj
 0003:009a81e0       _acFont13ASCII_0049        00fbb1e0     F13_ASCII.obj
 0003:009a81f0       _acFont13ASCII_004A        00fbb1f0     F13_ASCII.obj
 0003:009a8200       _acFont13ASCII_004B        00fbb200     F13_ASCII.obj
 0003:009a8210       _acFont13ASCII_004C        00fbb210     F13_ASCII.obj
 0003:009a8220       _acFont13ASCII_004D        00fbb220     F13_ASCII.obj
 0003:009a8230       _acFont13ASCII_004E        00fbb230     F13_ASCII.obj
 0003:009a8240       _acFont13ASCII_004F        00fbb240     F13_ASCII.obj
 0003:009a8250       _acFont13ASCII_0050        00fbb250     F13_ASCII.obj
 0003:009a8260       _acFont13ASCII_0051        00fbb260     F13_ASCII.obj
 0003:009a8270       _acFont13ASCII_0052        00fbb270     F13_ASCII.obj
 0003:009a8280       _acFont13ASCII_0053        00fbb280     F13_ASCII.obj
 0003:009a8290       _acFont13ASCII_0054        00fbb290     F13_ASCII.obj
 0003:009a82a0       _acFont13ASCII_0055        00fbb2a0     F13_ASCII.obj
 0003:009a82b0       _acFont13ASCII_0056        00fbb2b0     F13_ASCII.obj
 0003:009a82c0       _acFont13ASCII_0057        00fbb2c0     F13_ASCII.obj
 0003:009a82dc       _acFont13ASCII_0058        00fbb2dc     F13_ASCII.obj
 0003:009a82ec       _acFont13ASCII_0059        00fbb2ec     F13_ASCII.obj
 0003:009a82fc       _acFont13ASCII_005A        00fbb2fc     F13_ASCII.obj
 0003:009a830c       _acFont13ASCII_005B        00fbb30c     F13_ASCII.obj
 0003:009a831c       _acFont13ASCII_005C        00fbb31c     F13_ASCII.obj
 0003:009a832c       _acFont13ASCII_005D        00fbb32c     F13_ASCII.obj
 0003:009a833c       _acFont13ASCII_005E        00fbb33c     F13_ASCII.obj
 0003:009a834c       _acFont13ASCII_005F        00fbb34c     F13_ASCII.obj
 0003:009a835c       _acFont13ASCII_0060        00fbb35c     F13_ASCII.obj
 0003:009a836c       _acFont13ASCII_0061        00fbb36c     F13_ASCII.obj
 0003:009a837c       _acFont13ASCII_0062        00fbb37c     F13_ASCII.obj
 0003:009a838c       _acFont13ASCII_0063        00fbb38c     F13_ASCII.obj
 0003:009a839c       _acFont13ASCII_0064        00fbb39c     F13_ASCII.obj
 0003:009a83ac       _acFont13ASCII_0065        00fbb3ac     F13_ASCII.obj
 0003:009a83bc       _acFont13ASCII_0066        00fbb3bc     F13_ASCII.obj
 0003:009a83cc       _acFont13ASCII_0067        00fbb3cc     F13_ASCII.obj
 0003:009a83dc       _acFont13ASCII_0068        00fbb3dc     F13_ASCII.obj
 0003:009a83ec       _acFont13ASCII_0069        00fbb3ec     F13_ASCII.obj
 0003:009a83fc       _acFont13ASCII_006A        00fbb3fc     F13_ASCII.obj
 0003:009a840c       _acFont13ASCII_006B        00fbb40c     F13_ASCII.obj
 0003:009a841c       _acFont13ASCII_006C        00fbb41c     F13_ASCII.obj
 0003:009a842c       _acFont13ASCII_006D        00fbb42c     F13_ASCII.obj
 0003:009a843c       _acFont13ASCII_006E        00fbb43c     F13_ASCII.obj
 0003:009a844c       _acFont13ASCII_006F        00fbb44c     F13_ASCII.obj
 0003:009a845c       _acFont13ASCII_0070        00fbb45c     F13_ASCII.obj
 0003:009a846c       _acFont13ASCII_0071        00fbb46c     F13_ASCII.obj
 0003:009a847c       _acFont13ASCII_0072        00fbb47c     F13_ASCII.obj
 0003:009a848c       _acFont13ASCII_0073        00fbb48c     F13_ASCII.obj
 0003:009a849c       _acFont13ASCII_0074        00fbb49c     F13_ASCII.obj
 0003:009a84ac       _acFont13ASCII_0075        00fbb4ac     F13_ASCII.obj
 0003:009a84bc       _acFont13ASCII_0076        00fbb4bc     F13_ASCII.obj
 0003:009a84cc       _acFont13ASCII_0077        00fbb4cc     F13_ASCII.obj
 0003:009a84dc       _acFont13ASCII_0078        00fbb4dc     F13_ASCII.obj
 0003:009a84ec       _acFont13ASCII_0079        00fbb4ec     F13_ASCII.obj
 0003:009a84fc       _acFont13ASCII_007A        00fbb4fc     F13_ASCII.obj
 0003:009a850c       _acFont13ASCII_007B        00fbb50c     F13_ASCII.obj
 0003:009a851c       _acFont13ASCII_007C        00fbb51c     F13_ASCII.obj
 0003:009a852c       _acFont13ASCII_007D        00fbb52c     F13_ASCII.obj
 0003:009a853c       _acFont13ASCII_007E        00fbb53c     F13_ASCII.obj
 0003:009a8550       _GUI_Font13ASCII_CharInfo  00fbb550     F13_ASCII.obj
 0003:009a8848       _GUI_Font13ASCII_Prop1     00fbb848     F13_ASCII.obj
 0003:009a8854       _GUI_Font13_ASCII          00fbb854     F13_ASCII.obj
 0003:009a8a58       _acFont16B_1_00A0          00fbba58     F16B_1.obj
 0003:009a8a68       _acFont16B_1_00A1          00fbba68     F16B_1.obj
 0003:009a8a78       _acFont16B_1_00A2          00fbba78     F16B_1.obj
 0003:009a8a88       _acFont16B_1_00A3          00fbba88     F16B_1.obj
 0003:009a8a98       _acFont16B_1_00A4          00fbba98     F16B_1.obj
 0003:009a8aa8       _acFont16B_1_00A5          00fbbaa8     F16B_1.obj
 0003:009a8ab8       _acFont16B_1_00A6          00fbbab8     F16B_1.obj
 0003:009a8ac8       _acFont16B_1_00A7          00fbbac8     F16B_1.obj
 0003:009a8ad8       _acFont16B_1_00A8          00fbbad8     F16B_1.obj
 0003:009a8ae8       _acFont16B_1_00A9          00fbbae8     F16B_1.obj
 0003:009a8b08       _acFont16B_1_00AA          00fbbb08     F16B_1.obj
 0003:009a8b18       _acFont16B_1_00AB          00fbbb18     F16B_1.obj
 0003:009a8b28       _acFont16B_1_00AC          00fbbb28     F16B_1.obj
 0003:009a8b38       _acFont16B_1_00AD          00fbbb38     F16B_1.obj
 0003:009a8b48       _acFont16B_1_00AE          00fbbb48     F16B_1.obj
 0003:009a8b68       _acFont16B_1_00AF          00fbbb68     F16B_1.obj
 0003:009a8b78       _acFont16B_1_00B0          00fbbb78     F16B_1.obj
 0003:009a8b88       _acFont16B_1_00B1          00fbbb88     F16B_1.obj
 0003:009a8b98       _acFont16B_1_00B2          00fbbb98     F16B_1.obj
 0003:009a8ba8       _acFont16B_1_00B3          00fbbba8     F16B_1.obj
 0003:009a8bb8       _acFont16B_1_00B4          00fbbbb8     F16B_1.obj
 0003:009a8bc8       _acFont16B_1_00B5          00fbbbc8     F16B_1.obj
 0003:009a8bd8       _acFont16B_1_00B6          00fbbbd8     F16B_1.obj
 0003:009a8be8       _acFont16B_1_00B7          00fbbbe8     F16B_1.obj
 0003:009a8bf8       _acFont16B_1_00B8          00fbbbf8     F16B_1.obj
 0003:009a8c08       _acFont16B_1_00B9          00fbbc08     F16B_1.obj
 0003:009a8c18       _acFont16B_1_00BA          00fbbc18     F16B_1.obj
 0003:009a8c28       _acFont16B_1_00BB          00fbbc28     F16B_1.obj
 0003:009a8c38       _acFont16B_1_00BC          00fbbc38     F16B_1.obj
 0003:009a8c58       _acFont16B_1_00BD          00fbbc58     F16B_1.obj
 0003:009a8c78       _acFont16B_1_00BE          00fbbc78     F16B_1.obj
 0003:009a8c98       _acFont16B_1_00BF          00fbbc98     F16B_1.obj
 0003:009a8ca8       _acFont16B_1_00C0          00fbbca8     F16B_1.obj
 0003:009a8cc8       _acFont16B_1_00C1          00fbbcc8     F16B_1.obj
 0003:009a8ce8       _acFont16B_1_00C2          00fbbce8     F16B_1.obj
 0003:009a8d08       _acFont16B_1_00C3          00fbbd08     F16B_1.obj
 0003:009a8d28       _acFont16B_1_00C4          00fbbd28     F16B_1.obj
 0003:009a8d48       _acFont16B_1_00C5          00fbbd48     F16B_1.obj
 0003:009a8d68       _acFont16B_1_00C6          00fbbd68     F16B_1.obj
 0003:009a8d88       _acFont16B_1_00C7          00fbbd88     F16B_1.obj
 0003:009a8da8       _acFont16B_1_00C8          00fbbda8     F16B_1.obj
 0003:009a8db8       _acFont16B_1_00C9          00fbbdb8     F16B_1.obj
 0003:009a8dc8       _acFont16B_1_00CA          00fbbdc8     F16B_1.obj
 0003:009a8dd8       _acFont16B_1_00CB          00fbbdd8     F16B_1.obj
 0003:009a8de8       _acFont16B_1_00CC          00fbbde8     F16B_1.obj
 0003:009a8df8       _acFont16B_1_00CD          00fbbdf8     F16B_1.obj
 0003:009a8e08       _acFont16B_1_00CE          00fbbe08     F16B_1.obj
 0003:009a8e18       _acFont16B_1_00CF          00fbbe18     F16B_1.obj
 0003:009a8e28       _acFont16B_1_00D0          00fbbe28     F16B_1.obj
 0003:009a8e48       _acFont16B_1_00D1          00fbbe48     F16B_1.obj
 0003:009a8e68       _acFont16B_1_00D2          00fbbe68     F16B_1.obj
 0003:009a8e88       _acFont16B_1_00D3          00fbbe88     F16B_1.obj
 0003:009a8ea8       _acFont16B_1_00D4          00fbbea8     F16B_1.obj
 0003:009a8ec8       _acFont16B_1_00D5          00fbbec8     F16B_1.obj
 0003:009a8ee8       _acFont16B_1_00D6          00fbbee8     F16B_1.obj
 0003:009a8f08       _acFont16B_1_00D7          00fbbf08     F16B_1.obj
 0003:009a8f18       _acFont16B_1_00D8          00fbbf18     F16B_1.obj
 0003:009a8f38       _acFont16B_1_00D9          00fbbf38     F16B_1.obj
 0003:009a8f58       _acFont16B_1_00DA          00fbbf58     F16B_1.obj
 0003:009a8f78       _acFont16B_1_00DB          00fbbf78     F16B_1.obj
 0003:009a8f98       _acFont16B_1_00DC          00fbbf98     F16B_1.obj
 0003:009a8fb8       _acFont16B_1_00DD          00fbbfb8     F16B_1.obj
 0003:009a8fc8       _acFont16B_1_00DE          00fbbfc8     F16B_1.obj
 0003:009a8fe8       _acFont16B_1_00DF          00fbbfe8     F16B_1.obj
 0003:009a8ff8       _acFont16B_1_00E0          00fbbff8     F16B_1.obj
 0003:009a9008       _acFont16B_1_00E1          00fbc008     F16B_1.obj
 0003:009a9018       _acFont16B_1_00E2          00fbc018     F16B_1.obj
 0003:009a9028       _acFont16B_1_00E3          00fbc028     F16B_1.obj
 0003:009a9038       _acFont16B_1_00E4          00fbc038     F16B_1.obj
 0003:009a9048       _acFont16B_1_00E5          00fbc048     F16B_1.obj
 0003:009a9058       _acFont16B_1_00E6          00fbc058     F16B_1.obj
 0003:009a9078       _acFont16B_1_00E7          00fbc078     F16B_1.obj
 0003:009a9088       _acFont16B_1_00E8          00fbc088     F16B_1.obj
 0003:009a9098       _acFont16B_1_00E9          00fbc098     F16B_1.obj
 0003:009a90a8       _acFont16B_1_00EA          00fbc0a8     F16B_1.obj
 0003:009a90b8       _acFont16B_1_00EB          00fbc0b8     F16B_1.obj
 0003:009a90c8       _acFont16B_1_00EC          00fbc0c8     F16B_1.obj
 0003:009a90d8       _acFont16B_1_00ED          00fbc0d8     F16B_1.obj
 0003:009a90e8       _acFont16B_1_00EE          00fbc0e8     F16B_1.obj
 0003:009a90f8       _acFont16B_1_00EF          00fbc0f8     F16B_1.obj
 0003:009a9108       _acFont16B_1_00F0          00fbc108     F16B_1.obj
 0003:009a9118       _acFont16B_1_00F1          00fbc118     F16B_1.obj
 0003:009a9128       _acFont16B_1_00F2          00fbc128     F16B_1.obj
 0003:009a9138       _acFont16B_1_00F3          00fbc138     F16B_1.obj
 0003:009a9148       _acFont16B_1_00F4          00fbc148     F16B_1.obj
 0003:009a9158       _acFont16B_1_00F5          00fbc158     F16B_1.obj
 0003:009a9168       _acFont16B_1_00F6          00fbc168     F16B_1.obj
 0003:009a9178       _acFont16B_1_00F7          00fbc178     F16B_1.obj
 0003:009a9188       _acFont16B_1_00F8          00fbc188     F16B_1.obj
 0003:009a9198       _acFont16B_1_00F9          00fbc198     F16B_1.obj
 0003:009a91a8       _acFont16B_1_00FA          00fbc1a8     F16B_1.obj
 0003:009a91b8       _acFont16B_1_00FB          00fbc1b8     F16B_1.obj
 0003:009a91c8       _acFont16B_1_00FC          00fbc1c8     F16B_1.obj
 0003:009a91d8       _acFont16B_1_00FD          00fbc1d8     F16B_1.obj
 0003:009a91e8       _acFont16B_1_00FE          00fbc1e8     F16B_1.obj
 0003:009a91f8       _acFont16B_1_00FF          00fbc1f8     F16B_1.obj
 0003:009a9208       _GUI_Font16B_1_CharInfo    00fbc208     F16B_1.obj
 0003:009a9508       _GUI_Font16B_1_Prop2       00fbc508     F16B_1.obj
 0003:009a9514       _GUI_Font16B_1_Prop1       00fbc514     F16B_1.obj
 0003:009a9520       _GUI_Font16B_1             00fbc520     F16B_1.obj
 0003:009a9778       _acFont16B_ASCII_0020      00fbc778     F16B_ASCII.obj
 0003:009a9788       _acFont16B_ASCII_0021      00fbc788     F16B_ASCII.obj
 0003:009a9798       _acFont16B_ASCII_0022      00fbc798     F16B_ASCII.obj
 0003:009a97a8       _acFont16B_ASCII_0023      00fbc7a8     F16B_ASCII.obj
 0003:009a97b8       _acFont16B_ASCII_0024      00fbc7b8     F16B_ASCII.obj
 0003:009a97c8       _acFont16B_ASCII_0025      00fbc7c8     F16B_ASCII.obj
 0003:009a97e8       _acFont16B_ASCII_0026      00fbc7e8     F16B_ASCII.obj
 0003:009a9808       _acFont16B_ASCII_0027      00fbc808     F16B_ASCII.obj
 0003:009a9818       _acFont16B_ASCII_0028      00fbc818     F16B_ASCII.obj
 0003:009a9828       _acFont16B_ASCII_0029      00fbc828     F16B_ASCII.obj
 0003:009a9838       _acFont16B_ASCII_002A      00fbc838     F16B_ASCII.obj
 0003:009a9848       _acFont16B_ASCII_002B      00fbc848     F16B_ASCII.obj
 0003:009a9858       _acFont16B_ASCII_002C      00fbc858     F16B_ASCII.obj
 0003:009a9868       _acFont16B_ASCII_002D      00fbc868     F16B_ASCII.obj
 0003:009a9878       _acFont16B_ASCII_002E      00fbc878     F16B_ASCII.obj
 0003:009a9888       _acFont16B_ASCII_002F      00fbc888     F16B_ASCII.obj
 0003:009a9898       _acFont16B_ASCII_0030      00fbc898     F16B_ASCII.obj
 0003:009a98a8       _acFont16B_ASCII_0031      00fbc8a8     F16B_ASCII.obj
 0003:009a98b8       _acFont16B_ASCII_0032      00fbc8b8     F16B_ASCII.obj
 0003:009a98c8       _acFont16B_ASCII_0033      00fbc8c8     F16B_ASCII.obj
 0003:009a98d8       _acFont16B_ASCII_0034      00fbc8d8     F16B_ASCII.obj
 0003:009a98e8       _acFont16B_ASCII_0035      00fbc8e8     F16B_ASCII.obj
 0003:009a98f8       _acFont16B_ASCII_0036      00fbc8f8     F16B_ASCII.obj
 0003:009a9908       _acFont16B_ASCII_0037      00fbc908     F16B_ASCII.obj
 0003:009a9918       _acFont16B_ASCII_0038      00fbc918     F16B_ASCII.obj
 0003:009a9928       _acFont16B_ASCII_0039      00fbc928     F16B_ASCII.obj
 0003:009a9938       _acFont16B_ASCII_003A      00fbc938     F16B_ASCII.obj
 0003:009a9948       _acFont16B_ASCII_003B      00fbc948     F16B_ASCII.obj
 0003:009a9958       _acFont16B_ASCII_003C      00fbc958     F16B_ASCII.obj
 0003:009a9968       _acFont16B_ASCII_003D      00fbc968     F16B_ASCII.obj
 0003:009a9978       _acFont16B_ASCII_003E      00fbc978     F16B_ASCII.obj
 0003:009a9988       _acFont16B_ASCII_003F      00fbc988     F16B_ASCII.obj
 0003:009a9998       _acFont16B_ASCII_0040      00fbc998     F16B_ASCII.obj
 0003:009a99b8       _acFont16B_ASCII_0041      00fbc9b8     F16B_ASCII.obj
 0003:009a99d8       _acFont16B_ASCII_0042      00fbc9d8     F16B_ASCII.obj
 0003:009a99f8       _acFont16B_ASCII_0043      00fbc9f8     F16B_ASCII.obj
 0003:009a9a18       _acFont16B_ASCII_0044      00fbca18     F16B_ASCII.obj
 0003:009a9a38       _acFont16B_ASCII_0045      00fbca38     F16B_ASCII.obj
 0003:009a9a48       _acFont16B_ASCII_0046      00fbca48     F16B_ASCII.obj
 0003:009a9a58       _acFont16B_ASCII_0047      00fbca58     F16B_ASCII.obj
 0003:009a9a78       _acFont16B_ASCII_0048      00fbca78     F16B_ASCII.obj
 0003:009a9a98       _acFont16B_ASCII_0049      00fbca98     F16B_ASCII.obj
 0003:009a9aa8       _acFont16B_ASCII_004A      00fbcaa8     F16B_ASCII.obj
 0003:009a9ab8       _acFont16B_ASCII_004B      00fbcab8     F16B_ASCII.obj
 0003:009a9ad8       _acFont16B_ASCII_004C      00fbcad8     F16B_ASCII.obj
 0003:009a9ae8       _acFont16B_ASCII_004D      00fbcae8     F16B_ASCII.obj
 0003:009a9b08       _acFont16B_ASCII_004E      00fbcb08     F16B_ASCII.obj
 0003:009a9b28       _acFont16B_ASCII_004F      00fbcb28     F16B_ASCII.obj
 0003:009a9b48       _acFont16B_ASCII_0050      00fbcb48     F16B_ASCII.obj
 0003:009a9b68       _acFont16B_ASCII_0051      00fbcb68     F16B_ASCII.obj
 0003:009a9b88       _acFont16B_ASCII_0052      00fbcb88     F16B_ASCII.obj
 0003:009a9ba8       _acFont16B_ASCII_0053      00fbcba8     F16B_ASCII.obj
 0003:009a9bc8       _acFont16B_ASCII_0054      00fbcbc8     F16B_ASCII.obj
 0003:009a9bd8       _acFont16B_ASCII_0055      00fbcbd8     F16B_ASCII.obj
 0003:009a9bf8       _acFont16B_ASCII_0056      00fbcbf8     F16B_ASCII.obj
 0003:009a9c18       _acFont16B_ASCII_0057      00fbcc18     F16B_ASCII.obj
 0003:009a9c38       _acFont16B_ASCII_0058      00fbcc38     F16B_ASCII.obj
 0003:009a9c58       _acFont16B_ASCII_0059      00fbcc58     F16B_ASCII.obj
 0003:009a9c68       _acFont16B_ASCII_005A      00fbcc68     F16B_ASCII.obj
 0003:009a9c78       _acFont16B_ASCII_005B      00fbcc78     F16B_ASCII.obj
 0003:009a9c88       _acFont16B_ASCII_005C      00fbcc88     F16B_ASCII.obj
 0003:009a9c98       _acFont16B_ASCII_005D      00fbcc98     F16B_ASCII.obj
 0003:009a9ca8       _acFont16B_ASCII_005E      00fbcca8     F16B_ASCII.obj
 0003:009a9cb8       _acFont16B_ASCII_005F      00fbccb8     F16B_ASCII.obj
 0003:009a9cc8       _acFont16B_ASCII_0060      00fbccc8     F16B_ASCII.obj
 0003:009a9cd8       _acFont16B_ASCII_0061      00fbccd8     F16B_ASCII.obj
 0003:009a9ce8       _acFont16B_ASCII_0062      00fbcce8     F16B_ASCII.obj
 0003:009a9cf8       _acFont16B_ASCII_0063      00fbccf8     F16B_ASCII.obj
 0003:009a9d08       _acFont16B_ASCII_0064      00fbcd08     F16B_ASCII.obj
 0003:009a9d18       _acFont16B_ASCII_0065      00fbcd18     F16B_ASCII.obj
 0003:009a9d28       _acFont16B_ASCII_0066      00fbcd28     F16B_ASCII.obj
 0003:009a9d38       _acFont16B_ASCII_0067      00fbcd38     F16B_ASCII.obj
 0003:009a9d48       _acFont16B_ASCII_0068      00fbcd48     F16B_ASCII.obj
 0003:009a9d58       _acFont16B_ASCII_0069      00fbcd58     F16B_ASCII.obj
 0003:009a9d68       _acFont16B_ASCII_006A      00fbcd68     F16B_ASCII.obj
 0003:009a9d78       _acFont16B_ASCII_006B      00fbcd78     F16B_ASCII.obj
 0003:009a9d88       _acFont16B_ASCII_006C      00fbcd88     F16B_ASCII.obj
 0003:009a9d98       _acFont16B_ASCII_006D      00fbcd98     F16B_ASCII.obj
 0003:009a9db8       _acFont16B_ASCII_006E      00fbcdb8     F16B_ASCII.obj
 0003:009a9dc8       _acFont16B_ASCII_006F      00fbcdc8     F16B_ASCII.obj
 0003:009a9dd8       _acFont16B_ASCII_0070      00fbcdd8     F16B_ASCII.obj
 0003:009a9de8       _acFont16B_ASCII_0071      00fbcde8     F16B_ASCII.obj
 0003:009a9df8       _acFont16B_ASCII_0072      00fbcdf8     F16B_ASCII.obj
 0003:009a9e08       _acFont16B_ASCII_0073      00fbce08     F16B_ASCII.obj
 0003:009a9e18       _acFont16B_ASCII_0074      00fbce18     F16B_ASCII.obj
 0003:009a9e28       _acFont16B_ASCII_0075      00fbce28     F16B_ASCII.obj
 0003:009a9e38       _acFont16B_ASCII_0076      00fbce38     F16B_ASCII.obj
 0003:009a9e48       _acFont16B_ASCII_0077      00fbce48     F16B_ASCII.obj
 0003:009a9e68       _acFont16B_ASCII_0078      00fbce68     F16B_ASCII.obj
 0003:009a9e78       _acFont16B_ASCII_0079      00fbce78     F16B_ASCII.obj
 0003:009a9e88       _acFont16B_ASCII_007A      00fbce88     F16B_ASCII.obj
 0003:009a9e98       _acFont16B_ASCII_007B      00fbce98     F16B_ASCII.obj
 0003:009a9ea8       _acFont16B_ASCII_007C      00fbcea8     F16B_ASCII.obj
 0003:009a9eb8       _acFont16B_ASCII_007D      00fbceb8     F16B_ASCII.obj
 0003:009a9ec8       _acFont16B_ASCII_007E      00fbcec8     F16B_ASCII.obj
 0003:009a9ed8       _GUI_Font16B_ASCII_CharInfo 00fbced8     F16B_ASCII.obj
 0003:009aa1d0       _GUI_Font16B_ASCII_Prop1   00fbd1d0     F16B_ASCII.obj
 0003:009aa1dc       _GUI_Font16B_ASCII         00fbd1dc     F16B_ASCII.obj
 0003:009aa420       _acFont16_1_160            00fbd420     F16_1.obj
 0003:009aa430       _acFont16_1_161            00fbd430     F16_1.obj
 0003:009aa440       _acFont16_1_162            00fbd440     F16_1.obj
 0003:009aa450       _acFont16_1_163            00fbd450     F16_1.obj
 0003:009aa460       _acFont16_1_164            00fbd460     F16_1.obj
 0003:009aa470       _acFont16_1_165            00fbd470     F16_1.obj
 0003:009aa480       _acFont16_1_166            00fbd480     F16_1.obj
 0003:009aa490       _acFont16_1_167            00fbd490     F16_1.obj
 0003:009aa4a0       _acFont16_1_168            00fbd4a0     F16_1.obj
 0003:009aa4b0       _acFont16_1_169            00fbd4b0     F16_1.obj
 0003:009aa4d0       _acFont16_1_170            00fbd4d0     F16_1.obj
 0003:009aa4e0       _acFont16_1_171            00fbd4e0     F16_1.obj
 0003:009aa4f0       _acFont16_1_172            00fbd4f0     F16_1.obj
 0003:009aa500       _acFont16_1_173            00fbd500     F16_1.obj
 0003:009aa510       _acFont16_1_174            00fbd510     F16_1.obj
 0003:009aa530       _acFont16_1_175            00fbd530     F16_1.obj
 0003:009aa540       _acFont16_1_176            00fbd540     F16_1.obj
 0003:009aa550       _acFont16_1_177            00fbd550     F16_1.obj
 0003:009aa560       _acFont16_1_178            00fbd560     F16_1.obj
 0003:009aa570       _acFont16_1_179            00fbd570     F16_1.obj
 0003:009aa580       _acFont16_1_180            00fbd580     F16_1.obj
 0003:009aa590       _acFont16_1_181            00fbd590     F16_1.obj
 0003:009aa5a0       _acFont16_1_182            00fbd5a0     F16_1.obj
 0003:009aa5b0       _acFont16_1_183            00fbd5b0     F16_1.obj
 0003:009aa5c0       _acFont16_1_184            00fbd5c0     F16_1.obj
 0003:009aa5d0       _acFont16_1_185            00fbd5d0     F16_1.obj
 0003:009aa5e0       _acFont16_1_186            00fbd5e0     F16_1.obj
 0003:009aa5f0       _acFont16_1_187            00fbd5f0     F16_1.obj
 0003:009aa600       _acFont16_1_188            00fbd600     F16_1.obj
 0003:009aa620       _acFont16_1_189            00fbd620     F16_1.obj
 0003:009aa640       _acFont16_1_190            00fbd640     F16_1.obj
 0003:009aa660       _acFont16_1_191            00fbd660     F16_1.obj
 0003:009aa670       _acFont16_1_192            00fbd670     F16_1.obj
 0003:009aa690       _acFont16_1_193            00fbd690     F16_1.obj
 0003:009aa6b0       _acFont16_1_194            00fbd6b0     F16_1.obj
 0003:009aa6d0       _acFont16_1_195            00fbd6d0     F16_1.obj
 0003:009aa6f0       _acFont16_1_196            00fbd6f0     F16_1.obj
 0003:009aa710       _acFont16_1_197            00fbd710     F16_1.obj
 0003:009aa730       _acFont16_1_198            00fbd730     F16_1.obj
 0003:009aa750       _acFont16_1_199            00fbd750     F16_1.obj
 0003:009aa770       _acFont16_1_200            00fbd770     F16_1.obj
 0003:009aa790       _acFont16_1_201            00fbd790     F16_1.obj
 0003:009aa7b0       _acFont16_1_202            00fbd7b0     F16_1.obj
 0003:009aa7d0       _acFont16_1_203            00fbd7d0     F16_1.obj
 0003:009aa7f0       _acFont16_1_204            00fbd7f0     F16_1.obj
 0003:009aa800       _acFont16_1_205            00fbd800     F16_1.obj
 0003:009aa810       _acFont16_1_206            00fbd810     F16_1.obj
 0003:009aa820       _acFont16_1_207            00fbd820     F16_1.obj
 0003:009aa830       _acFont16_1_208            00fbd830     F16_1.obj
 0003:009aa850       _acFont16_1_209            00fbd850     F16_1.obj
 0003:009aa870       _acFont16_1_210            00fbd870     F16_1.obj
 0003:009aa890       _acFont16_1_211            00fbd890     F16_1.obj
 0003:009aa8b0       _acFont16_1_212            00fbd8b0     F16_1.obj
 0003:009aa8d0       _acFont16_1_213            00fbd8d0     F16_1.obj
 0003:009aa8f0       _acFont16_1_214            00fbd8f0     F16_1.obj
 0003:009aa910       _acFont16_1_215            00fbd910     F16_1.obj
 0003:009aa920       _acFont16_1_216            00fbd920     F16_1.obj
 0003:009aa940       _acFont16_1_217            00fbd940     F16_1.obj
 0003:009aa960       _acFont16_1_218            00fbd960     F16_1.obj
 0003:009aa980       _acFont16_1_219            00fbd980     F16_1.obj
 0003:009aa9a0       _acFont16_1_220            00fbd9a0     F16_1.obj
 0003:009aa9c0       _acFont16_1_221            00fbd9c0     F16_1.obj
 0003:009aa9e0       _acFont16_1_222            00fbd9e0     F16_1.obj
 0003:009aaa00       _acFont16_1_223            00fbda00     F16_1.obj
 0003:009aaa20       _acFont16_1_224            00fbda20     F16_1.obj
 0003:009aaa30       _acFont16_1_225            00fbda30     F16_1.obj
 0003:009aaa40       _acFont16_1_226            00fbda40     F16_1.obj
 0003:009aaa50       _acFont16_1_227            00fbda50     F16_1.obj
 0003:009aaa60       _acFont16_1_228            00fbda60     F16_1.obj
 0003:009aaa70       _acFont16_1_229            00fbda70     F16_1.obj
 0003:009aaa80       _acFont16_1_230            00fbda80     F16_1.obj
 0003:009aaaa0       _acFont16_1_231            00fbdaa0     F16_1.obj
 0003:009aaab0       _acFont16_1_232            00fbdab0     F16_1.obj
 0003:009aaac0       _acFont16_1_233            00fbdac0     F16_1.obj
 0003:009aaad0       _acFont16_1_234            00fbdad0     F16_1.obj
 0003:009aaae0       _acFont16_1_235            00fbdae0     F16_1.obj
 0003:009aaaf0       _acFont16_1_236            00fbdaf0     F16_1.obj
 0003:009aab00       _acFont16_1_237            00fbdb00     F16_1.obj
 0003:009aab10       _acFont16_1_238            00fbdb10     F16_1.obj
 0003:009aab20       _acFont16_1_239            00fbdb20     F16_1.obj
 0003:009aab30       _acFont16_1_240            00fbdb30     F16_1.obj
 0003:009aab40       _acFont16_1_241            00fbdb40     F16_1.obj
 0003:009aab50       _acFont16_1_242            00fbdb50     F16_1.obj
 0003:009aab60       _acFont16_1_243            00fbdb60     F16_1.obj
 0003:009aab70       _acFont16_1_244            00fbdb70     F16_1.obj
 0003:009aab80       _acFont16_1_245            00fbdb80     F16_1.obj
 0003:009aab90       _acFont16_1_246            00fbdb90     F16_1.obj
 0003:009aaba0       _acFont16_1_247            00fbdba0     F16_1.obj
 0003:009aabb0       _acFont16_1_248            00fbdbb0     F16_1.obj
 0003:009aabc0       _acFont16_1_249            00fbdbc0     F16_1.obj
 0003:009aabd0       _acFont16_1_250            00fbdbd0     F16_1.obj
 0003:009aabe0       _acFont16_1_251            00fbdbe0     F16_1.obj
 0003:009aabf0       _acFont16_1_252            00fbdbf0     F16_1.obj
 0003:009aac00       _acFont16_1_253            00fbdc00     F16_1.obj
 0003:009aac10       _acFont16_1_254            00fbdc10     F16_1.obj
 0003:009aac20       _acFont16_1_255            00fbdc20     F16_1.obj
 0003:009aac30       _GUI_CharInfo_Font16_1     00fbdc30     F16_1.obj
 0003:009aaf30       _GUI_Font16_1_FontProp1    00fbdf30     F16_1.obj
 0003:009aaf3c       _GUI_Font16_1              00fbdf3c     F16_1.obj
 0003:009ab1a0       _GUI_Font16_1HK_Prop2      00fbe1a0     F16_1HK.obj
 0003:009ab1ac       _GUI_Font16_1HK_Prop1      00fbe1ac     F16_1HK.obj
 0003:009ab1b8       _GUI_Font16_1HK            00fbe1b8     F16_1HK.obj
 0003:009ab1e8       _acFont16ASCII_32          00fbe1e8     F16_ASCII.obj
 0003:009ab1f8       _acFont16ASCII_33          00fbe1f8     F16_ASCII.obj
 0003:009ab208       _acFont16ASCII_34          00fbe208     F16_ASCII.obj
 0003:009ab218       _acFont16ASCII_35          00fbe218     F16_ASCII.obj
 0003:009ab228       _acFont16ASCII_36          00fbe228     F16_ASCII.obj
 0003:009ab238       _acFont16ASCII_37          00fbe238     F16_ASCII.obj
 0003:009ab258       _acFont16ASCII_38          00fbe258     F16_ASCII.obj
 0003:009ab278       _acFont16ASCII_39          00fbe278     F16_ASCII.obj
 0003:009ab288       _acFont16ASCII_40          00fbe288     F16_ASCII.obj
 0003:009ab298       _acFont16ASCII_41          00fbe298     F16_ASCII.obj
 0003:009ab2a8       _acFont16ASCII_42          00fbe2a8     F16_ASCII.obj
 0003:009ab2b8       _acFont16ASCII_43          00fbe2b8     F16_ASCII.obj
 0003:009ab2c8       _acFont16ASCII_44          00fbe2c8     F16_ASCII.obj
 0003:009ab2d8       _acFont16ASCII_45          00fbe2d8     F16_ASCII.obj
 0003:009ab2e8       _acFont16ASCII_46          00fbe2e8     F16_ASCII.obj
 0003:009ab2f8       _acFont16ASCII_47          00fbe2f8     F16_ASCII.obj
 0003:009ab308       _acFont16ASCII_48          00fbe308     F16_ASCII.obj
 0003:009ab318       _acFont16ASCII_49          00fbe318     F16_ASCII.obj
 0003:009ab328       _acFont16ASCII_50          00fbe328     F16_ASCII.obj
 0003:009ab338       _acFont16ASCII_51          00fbe338     F16_ASCII.obj
 0003:009ab348       _acFont16ASCII_52          00fbe348     F16_ASCII.obj
 0003:009ab358       _acFont16ASCII_53          00fbe358     F16_ASCII.obj
 0003:009ab368       _acFont16ASCII_54          00fbe368     F16_ASCII.obj
 0003:009ab378       _acFont16ASCII_55          00fbe378     F16_ASCII.obj
 0003:009ab388       _acFont16ASCII_56          00fbe388     F16_ASCII.obj
 0003:009ab398       _acFont16ASCII_57          00fbe398     F16_ASCII.obj
 0003:009ab3a8       _acFont16ASCII_58          00fbe3a8     F16_ASCII.obj
 0003:009ab3b8       _acFont16ASCII_59          00fbe3b8     F16_ASCII.obj
 0003:009ab3c8       _acFont16ASCII_60          00fbe3c8     F16_ASCII.obj
 0003:009ab3d8       _acFont16ASCII_61          00fbe3d8     F16_ASCII.obj
 0003:009ab3e8       _acFont16ASCII_62          00fbe3e8     F16_ASCII.obj
 0003:009ab3f8       _acFont16ASCII_63          00fbe3f8     F16_ASCII.obj
 0003:009ab408       _acFont16ASCII_64          00fbe408     F16_ASCII.obj
 0003:009ab428       _acFont16ASCII_65          00fbe428     F16_ASCII.obj
 0003:009ab448       _acFont16ASCII_66          00fbe448     F16_ASCII.obj
 0003:009ab468       _acFont16ASCII_67          00fbe468     F16_ASCII.obj
 0003:009ab488       _acFont16ASCII_68          00fbe488     F16_ASCII.obj
 0003:009ab4a8       _acFont16ASCII_69          00fbe4a8     F16_ASCII.obj
 0003:009ab4c8       _acFont16ASCII_70          00fbe4c8     F16_ASCII.obj
 0003:009ab4d8       _acFont16ASCII_71          00fbe4d8     F16_ASCII.obj
 0003:009ab4f8       _acFont16ASCII_72          00fbe4f8     F16_ASCII.obj
 0003:009ab518       _acFont16ASCII_73          00fbe518     F16_ASCII.obj
 0003:009ab528       _acFont16ASCII_74          00fbe528     F16_ASCII.obj
 0003:009ab538       _acFont16ASCII_75          00fbe538     F16_ASCII.obj
 0003:009ab558       _acFont16ASCII_76          00fbe558     F16_ASCII.obj
 0003:009ab568       _acFont16ASCII_77          00fbe568     F16_ASCII.obj
 0003:009ab588       _acFont16ASCII_78          00fbe588     F16_ASCII.obj
 0003:009ab5a8       _acFont16ASCII_79          00fbe5a8     F16_ASCII.obj
 0003:009ab5c8       _acFont16ASCII_80          00fbe5c8     F16_ASCII.obj
 0003:009ab5e8       _acFont16ASCII_81          00fbe5e8     F16_ASCII.obj
 0003:009ab608       _acFont16ASCII_82          00fbe608     F16_ASCII.obj
 0003:009ab628       _acFont16ASCII_83          00fbe628     F16_ASCII.obj
 0003:009ab648       _acFont16ASCII_84          00fbe648     F16_ASCII.obj
 0003:009ab658       _acFont16ASCII_85          00fbe658     F16_ASCII.obj
 0003:009ab678       _acFont16ASCII_86          00fbe678     F16_ASCII.obj
 0003:009ab698       _acFont16ASCII_87          00fbe698     F16_ASCII.obj
 0003:009ab6b8       _acFont16ASCII_88          00fbe6b8     F16_ASCII.obj
 0003:009ab6c8       _acFont16ASCII_89          00fbe6c8     F16_ASCII.obj
 0003:009ab6e8       _acFont16ASCII_90          00fbe6e8     F16_ASCII.obj
 0003:009ab6f8       _acFont16ASCII_91          00fbe6f8     F16_ASCII.obj
 0003:009ab708       _acFont16ASCII_92          00fbe708     F16_ASCII.obj
 0003:009ab718       _acFont16ASCII_93          00fbe718     F16_ASCII.obj
 0003:009ab728       _acFont16ASCII_94          00fbe728     F16_ASCII.obj
 0003:009ab738       _acFont16ASCII_95          00fbe738     F16_ASCII.obj
 0003:009ab748       _acFont16ASCII_96          00fbe748     F16_ASCII.obj
 0003:009ab758       _acFont16ASCII_97          00fbe758     F16_ASCII.obj
 0003:009ab768       _acFont16ASCII_98          00fbe768     F16_ASCII.obj
 0003:009ab778       _acFont16ASCII_99          00fbe778     F16_ASCII.obj
 0003:009ab788       _acFont16ASCII_100         00fbe788     F16_ASCII.obj
 0003:009ab798       _acFont16ASCII_101         00fbe798     F16_ASCII.obj
 0003:009ab7a8       _acFont16ASCII_102         00fbe7a8     F16_ASCII.obj
 0003:009ab7b8       _acFont16ASCII_103         00fbe7b8     F16_ASCII.obj
 0003:009ab7c8       _acFont16ASCII_104         00fbe7c8     F16_ASCII.obj
 0003:009ab7d8       _acFont16ASCII_105         00fbe7d8     F16_ASCII.obj
 0003:009ab7e8       _acFont16ASCII_106         00fbe7e8     F16_ASCII.obj
 0003:009ab7f8       _acFont16ASCII_107         00fbe7f8     F16_ASCII.obj
 0003:009ab808       _acFont16ASCII_108         00fbe808     F16_ASCII.obj
 0003:009ab818       _acFont16ASCII_109         00fbe818     F16_ASCII.obj
 0003:009ab838       _acFont16ASCII_110         00fbe838     F16_ASCII.obj
 0003:009ab848       _acFont16ASCII_111         00fbe848     F16_ASCII.obj
 0003:009ab858       _acFont16ASCII_112         00fbe858     F16_ASCII.obj
 0003:009ab868       _acFont16ASCII_113         00fbe868     F16_ASCII.obj
 0003:009ab878       _acFont16ASCII_114         00fbe878     F16_ASCII.obj
 0003:009ab888       _acFont16ASCII_115         00fbe888     F16_ASCII.obj
 0003:009ab898       _acFont16ASCII_116         00fbe898     F16_ASCII.obj
 0003:009ab8a8       _acFont16ASCII_117         00fbe8a8     F16_ASCII.obj
 0003:009ab8b8       _acFont16ASCII_118         00fbe8b8     F16_ASCII.obj
 0003:009ab8c8       _acFont16ASCII_119         00fbe8c8     F16_ASCII.obj
 0003:009ab8e8       _acFont16ASCII_120         00fbe8e8     F16_ASCII.obj
 0003:009ab8f8       _acFont16ASCII_121         00fbe8f8     F16_ASCII.obj
 0003:009ab908       _acFont16ASCII_122         00fbe908     F16_ASCII.obj
 0003:009ab918       _acFont16ASCII_123         00fbe918     F16_ASCII.obj
 0003:009ab928       _acFont16ASCII_124         00fbe928     F16_ASCII.obj
 0003:009ab938       _acFont16ASCII_125         00fbe938     F16_ASCII.obj
 0003:009ab948       _acFont16ASCII_126         00fbe948     F16_ASCII.obj
 0003:009ab958       _GUI_CharInfo_Font16ASCII  00fbe958     F16_ASCII.obj
 0003:009abc58       _GUI_Font16ASCIIProp1      00fbec58     F16_ASCII.obj
 0003:009abc64       _GUI_Font16_ASCII          00fbec64     F16_ASCII.obj
 0003:009abea8       _acFont16_HK_3041          00fbeea8     F16_HK.obj
 0003:009abec8       _acFont16_HK_3042          00fbeec8     F16_HK.obj
 0003:009abee8       _acFont16_HK_3043          00fbeee8     F16_HK.obj
 0003:009abf08       _acFont16_HK_3044          00fbef08     F16_HK.obj
 0003:009abf28       _acFont16_HK_3045          00fbef28     F16_HK.obj
 0003:009abf48       _acFont16_HK_3046          00fbef48     F16_HK.obj
 0003:009abf68       _acFont16_HK_3047          00fbef68     F16_HK.obj
 0003:009abf88       _acFont16_HK_3048          00fbef88     F16_HK.obj
 0003:009abfa8       _acFont16_HK_3049          00fbefa8     F16_HK.obj
 0003:009abfc8       _acFont16_HK_304A          00fbefc8     F16_HK.obj
 0003:009abfe8       _acFont16_HK_304B          00fbefe8     F16_HK.obj
 0003:009ac008       _acFont16_HK_304C          00fbf008     F16_HK.obj
 0003:009ac028       _acFont16_HK_304D          00fbf028     F16_HK.obj
 0003:009ac048       _acFont16_HK_304E          00fbf048     F16_HK.obj
 0003:009ac068       _acFont16_HK_304F          00fbf068     F16_HK.obj
 0003:009ac088       _acFont16_HK_3050          00fbf088     F16_HK.obj
 0003:009ac0a8       _acFont16_HK_3051          00fbf0a8     F16_HK.obj
 0003:009ac0c8       _acFont16_HK_3052          00fbf0c8     F16_HK.obj
 0003:009ac0e8       _acFont16_HK_3053          00fbf0e8     F16_HK.obj
 0003:009ac108       _acFont16_HK_3054          00fbf108     F16_HK.obj
 0003:009ac128       _acFont16_HK_3055          00fbf128     F16_HK.obj
 0003:009ac148       _acFont16_HK_3056          00fbf148     F16_HK.obj
 0003:009ac168       _acFont16_HK_3057          00fbf168     F16_HK.obj
 0003:009ac188       _acFont16_HK_3058          00fbf188     F16_HK.obj
 0003:009ac1a8       _acFont16_HK_3059          00fbf1a8     F16_HK.obj
 0003:009ac1c8       _acFont16_HK_305A          00fbf1c8     F16_HK.obj
 0003:009ac1e8       _acFont16_HK_305B          00fbf1e8     F16_HK.obj
 0003:009ac208       _acFont16_HK_305C          00fbf208     F16_HK.obj
 0003:009ac228       _acFont16_HK_305D          00fbf228     F16_HK.obj
 0003:009ac248       _acFont16_HK_305E          00fbf248     F16_HK.obj
 0003:009ac268       _acFont16_HK_305F          00fbf268     F16_HK.obj
 0003:009ac288       _acFont16_HK_3060          00fbf288     F16_HK.obj
 0003:009ac2a8       _acFont16_HK_3061          00fbf2a8     F16_HK.obj
 0003:009ac2c8       _acFont16_HK_3062          00fbf2c8     F16_HK.obj
 0003:009ac2e8       _acFont16_HK_3063          00fbf2e8     F16_HK.obj
 0003:009ac308       _acFont16_HK_3064          00fbf308     F16_HK.obj
 0003:009ac328       _acFont16_HK_3065          00fbf328     F16_HK.obj
 0003:009ac348       _acFont16_HK_3066          00fbf348     F16_HK.obj
 0003:009ac368       _acFont16_HK_3067          00fbf368     F16_HK.obj
 0003:009ac388       _acFont16_HK_3068          00fbf388     F16_HK.obj
 0003:009ac3a8       _acFont16_HK_3069          00fbf3a8     F16_HK.obj
 0003:009ac3c8       _acFont16_HK_306A          00fbf3c8     F16_HK.obj
 0003:009ac3e8       _acFont16_HK_306B          00fbf3e8     F16_HK.obj
 0003:009ac408       _acFont16_HK_306C          00fbf408     F16_HK.obj
 0003:009ac428       _acFont16_HK_306D          00fbf428     F16_HK.obj
 0003:009ac448       _acFont16_HK_306E          00fbf448     F16_HK.obj
 0003:009ac468       _acFont16_HK_306F          00fbf468     F16_HK.obj
 0003:009ac488       _acFont16_HK_3070          00fbf488     F16_HK.obj
 0003:009ac4a8       _acFont16_HK_3071          00fbf4a8     F16_HK.obj
 0003:009ac4c8       _acFont16_HK_3072          00fbf4c8     F16_HK.obj
 0003:009ac4e8       _acFont16_HK_3073          00fbf4e8     F16_HK.obj
 0003:009ac508       _acFont16_HK_3074          00fbf508     F16_HK.obj
 0003:009ac528       _acFont16_HK_3075          00fbf528     F16_HK.obj
 0003:009ac548       _acFont16_HK_3076          00fbf548     F16_HK.obj
 0003:009ac568       _acFont16_HK_3077          00fbf568     F16_HK.obj
 0003:009ac588       _acFont16_HK_3078          00fbf588     F16_HK.obj
 0003:009ac5a8       _acFont16_HK_3079          00fbf5a8     F16_HK.obj
 0003:009ac5c8       _acFont16_HK_307A          00fbf5c8     F16_HK.obj
 0003:009ac5e8       _acFont16_HK_307B          00fbf5e8     F16_HK.obj
 0003:009ac608       _acFont16_HK_307C          00fbf608     F16_HK.obj
 0003:009ac628       _acFont16_HK_307D          00fbf628     F16_HK.obj
 0003:009ac648       _acFont16_HK_307E          00fbf648     F16_HK.obj
 0003:009ac668       _acFont16_HK_307F          00fbf668     F16_HK.obj
 0003:009ac688       _acFont16_HK_3080          00fbf688     F16_HK.obj
 0003:009ac6a8       _acFont16_HK_3081          00fbf6a8     F16_HK.obj
 0003:009ac6c8       _acFont16_HK_3082          00fbf6c8     F16_HK.obj
 0003:009ac6e8       _acFont16_HK_3083          00fbf6e8     F16_HK.obj
 0003:009ac708       _acFont16_HK_3084          00fbf708     F16_HK.obj
 0003:009ac728       _acFont16_HK_3085          00fbf728     F16_HK.obj
 0003:009ac748       _acFont16_HK_3086          00fbf748     F16_HK.obj
 0003:009ac768       _acFont16_HK_3087          00fbf768     F16_HK.obj
 0003:009ac788       _acFont16_HK_3088          00fbf788     F16_HK.obj
 0003:009ac7a8       _acFont16_HK_3089          00fbf7a8     F16_HK.obj
 0003:009ac7c8       _acFont16_HK_308A          00fbf7c8     F16_HK.obj
 0003:009ac7e8       _acFont16_HK_308B          00fbf7e8     F16_HK.obj
 0003:009ac808       _acFont16_HK_308C          00fbf808     F16_HK.obj
 0003:009ac828       _acFont16_HK_308D          00fbf828     F16_HK.obj
 0003:009ac848       _acFont16_HK_308E          00fbf848     F16_HK.obj
 0003:009ac868       _acFont16_HK_308F          00fbf868     F16_HK.obj
 0003:009ac888       _acFont16_HK_3090          00fbf888     F16_HK.obj
 0003:009ac8a8       _acFont16_HK_3091          00fbf8a8     F16_HK.obj
 0003:009ac8c8       _acFont16_HK_3092          00fbf8c8     F16_HK.obj
 0003:009ac8e8       _acFont16_HK_3093          00fbf8e8     F16_HK.obj
 0003:009ac908       _acFont16_HK_30A1          00fbf908     F16_HK.obj
 0003:009ac928       _acFont16_HK_30A2          00fbf928     F16_HK.obj
 0003:009ac948       _acFont16_HK_30A3          00fbf948     F16_HK.obj
 0003:009ac968       _acFont16_HK_30A4          00fbf968     F16_HK.obj
 0003:009ac988       _acFont16_HK_30A5          00fbf988     F16_HK.obj
 0003:009ac9a8       _acFont16_HK_30A6          00fbf9a8     F16_HK.obj
 0003:009ac9c8       _acFont16_HK_30A7          00fbf9c8     F16_HK.obj
 0003:009ac9e8       _acFont16_HK_30A8          00fbf9e8     F16_HK.obj
 0003:009aca08       _acFont16_HK_30A9          00fbfa08     F16_HK.obj
 0003:009aca28       _acFont16_HK_30AA          00fbfa28     F16_HK.obj
 0003:009aca48       _acFont16_HK_30AB          00fbfa48     F16_HK.obj
 0003:009aca68       _acFont16_HK_30AC          00fbfa68     F16_HK.obj
 0003:009aca88       _acFont16_HK_30AD          00fbfa88     F16_HK.obj
 0003:009acaa8       _acFont16_HK_30AE          00fbfaa8     F16_HK.obj
 0003:009acac8       _acFont16_HK_30AF          00fbfac8     F16_HK.obj
 0003:009acae8       _acFont16_HK_30B0          00fbfae8     F16_HK.obj
 0003:009acb08       _acFont16_HK_30B1          00fbfb08     F16_HK.obj
 0003:009acb28       _acFont16_HK_30B2          00fbfb28     F16_HK.obj
 0003:009acb48       _acFont16_HK_30B3          00fbfb48     F16_HK.obj
 0003:009acb68       _acFont16_HK_30B4          00fbfb68     F16_HK.obj
 0003:009acb88       _acFont16_HK_30B5          00fbfb88     F16_HK.obj
 0003:009acba8       _acFont16_HK_30B6          00fbfba8     F16_HK.obj
 0003:009acbc8       _acFont16_HK_30B7          00fbfbc8     F16_HK.obj
 0003:009acbe8       _acFont16_HK_30B8          00fbfbe8     F16_HK.obj
 0003:009acc08       _acFont16_HK_30B9          00fbfc08     F16_HK.obj
 0003:009acc28       _acFont16_HK_30BA          00fbfc28     F16_HK.obj
 0003:009acc48       _acFont16_HK_30BB          00fbfc48     F16_HK.obj
 0003:009acc68       _acFont16_HK_30BC          00fbfc68     F16_HK.obj
 0003:009acc88       _acFont16_HK_30BD          00fbfc88     F16_HK.obj
 0003:009acca8       _acFont16_HK_30BE          00fbfca8     F16_HK.obj
 0003:009accc8       _acFont16_HK_30BF          00fbfcc8     F16_HK.obj
 0003:009acce8       _acFont16_HK_30C0          00fbfce8     F16_HK.obj
 0003:009acd08       _acFont16_HK_30C1          00fbfd08     F16_HK.obj
 0003:009acd28       _acFont16_HK_30C2          00fbfd28     F16_HK.obj
 0003:009acd48       _acFont16_HK_30C3          00fbfd48     F16_HK.obj
 0003:009acd68       _acFont16_HK_30C4          00fbfd68     F16_HK.obj
 0003:009acd88       _acFont16_HK_30C5          00fbfd88     F16_HK.obj
 0003:009acda8       _acFont16_HK_30C6          00fbfda8     F16_HK.obj
 0003:009acdc8       _acFont16_HK_30C7          00fbfdc8     F16_HK.obj
 0003:009acde8       _acFont16_HK_30C8          00fbfde8     F16_HK.obj
 0003:009ace08       _acFont16_HK_30C9          00fbfe08     F16_HK.obj
 0003:009ace28       _acFont16_HK_30CA          00fbfe28     F16_HK.obj
 0003:009ace48       _acFont16_HK_30CB          00fbfe48     F16_HK.obj
 0003:009ace68       _acFont16_HK_30CC          00fbfe68     F16_HK.obj
 0003:009ace88       _acFont16_HK_30CD          00fbfe88     F16_HK.obj
 0003:009acea8       _acFont16_HK_30CE          00fbfea8     F16_HK.obj
 0003:009acec8       _acFont16_HK_30CF          00fbfec8     F16_HK.obj
 0003:009acee8       _acFont16_HK_30D0          00fbfee8     F16_HK.obj
 0003:009acf08       _acFont16_HK_30D1          00fbff08     F16_HK.obj
 0003:009acf28       _acFont16_HK_30D2          00fbff28     F16_HK.obj
 0003:009acf48       _acFont16_HK_30D3          00fbff48     F16_HK.obj
 0003:009acf68       _acFont16_HK_30D4          00fbff68     F16_HK.obj
 0003:009acf88       _acFont16_HK_30D5          00fbff88     F16_HK.obj
 0003:009acfa8       _acFont16_HK_30D6          00fbffa8     F16_HK.obj
 0003:009acfc8       _acFont16_HK_30D7          00fbffc8     F16_HK.obj
 0003:009acfe8       _acFont16_HK_30D8          00fbffe8     F16_HK.obj
 0003:009ad008       _acFont16_HK_30D9          00fc0008     F16_HK.obj
 0003:009ad028       _acFont16_HK_30DA          00fc0028     F16_HK.obj
 0003:009ad048       _acFont16_HK_30DB          00fc0048     F16_HK.obj
 0003:009ad068       _acFont16_HK_30DC          00fc0068     F16_HK.obj
 0003:009ad088       _acFont16_HK_30DD          00fc0088     F16_HK.obj
 0003:009ad0a8       _acFont16_HK_30DE          00fc00a8     F16_HK.obj
 0003:009ad0c8       _acFont16_HK_30DF          00fc00c8     F16_HK.obj
 0003:009ad0e8       _acFont16_HK_30E0          00fc00e8     F16_HK.obj
 0003:009ad108       _acFont16_HK_30E1          00fc0108     F16_HK.obj
 0003:009ad128       _acFont16_HK_30E2          00fc0128     F16_HK.obj
 0003:009ad148       _acFont16_HK_30E3          00fc0148     F16_HK.obj
 0003:009ad168       _acFont16_HK_30E4          00fc0168     F16_HK.obj
 0003:009ad188       _acFont16_HK_30E5          00fc0188     F16_HK.obj
 0003:009ad1a8       _acFont16_HK_30E6          00fc01a8     F16_HK.obj
 0003:009ad1c8       _acFont16_HK_30E7          00fc01c8     F16_HK.obj
 0003:009ad1e8       _acFont16_HK_30E8          00fc01e8     F16_HK.obj
 0003:009ad208       _acFont16_HK_30E9          00fc0208     F16_HK.obj
 0003:009ad228       _acFont16_HK_30EA          00fc0228     F16_HK.obj
 0003:009ad248       _acFont16_HK_30EB          00fc0248     F16_HK.obj
 0003:009ad268       _acFont16_HK_30EC          00fc0268     F16_HK.obj
 0003:009ad288       _acFont16_HK_30ED          00fc0288     F16_HK.obj
 0003:009ad2a8       _acFont16_HK_30EE          00fc02a8     F16_HK.obj
 0003:009ad2c8       _acFont16_HK_30EF          00fc02c8     F16_HK.obj
 0003:009ad2e8       _acFont16_HK_30F0          00fc02e8     F16_HK.obj
 0003:009ad308       _acFont16_HK_30F1          00fc0308     F16_HK.obj
 0003:009ad328       _acFont16_HK_30F2          00fc0328     F16_HK.obj
 0003:009ad348       _acFont16_HK_30F3          00fc0348     F16_HK.obj
 0003:009ad368       _acFont16_HK_30F4          00fc0368     F16_HK.obj
 0003:009ad388       _acFont16_HK_30F5          00fc0388     F16_HK.obj
 0003:009ad3a8       _acFont16_HK_30F6          00fc03a8     F16_HK.obj
 0003:009ad3c8       _GUI_Font16_HK_CharInfo    00fc03c8     F16_HK.obj
 0003:009ad910       _GUI_Font16_HK_Prop2       00fc0910     F16_HK.obj
 0003:009ad91c       _GUI_Font16_HK_Prop1       00fc091c     F16_HK.obj
 0003:009ad928       _GUI_Font16_HK             00fc0928     F16_HK.obj
 0003:009adea0       _acGUI_Font20B_1_00A0      00fc0ea0     F20B_1.obj
 0003:009adeb4       _acGUI_Font20B_1_00A1      00fc0eb4     F20B_1.obj
 0003:009adec8       _acGUI_Font20B_1_00A2      00fc0ec8     F20B_1.obj
 0003:009adef0       _acGUI_Font20B_1_00A3      00fc0ef0     F20B_1.obj
 0003:009adf18       _acGUI_Font20B_1_00A4      00fc0f18     F20B_1.obj
 0003:009adf40       _acGUI_Font20B_1_00A5      00fc0f40     F20B_1.obj
 0003:009adf68       _acGUI_Font20B_1_00A6      00fc0f68     F20B_1.obj
 0003:009adf7c       _acGUI_Font20B_1_00A7      00fc0f7c     F20B_1.obj
 0003:009adfa4       _acGUI_Font20B_1_00A8      00fc0fa4     F20B_1.obj
 0003:009adfb8       _acGUI_Font20B_1_00A9      00fc0fb8     F20B_1.obj
 0003:009adfe0       _acGUI_Font20B_1_00AA      00fc0fe0     F20B_1.obj
 0003:009adff4       _acGUI_Font20B_1_00AB      00fc0ff4     F20B_1.obj
 0003:009ae01c       _acGUI_Font20B_1_00AC      00fc101c     F20B_1.obj
 0003:009ae044       _acGUI_Font20B_1_00AD      00fc1044     F20B_1.obj
 0003:009ae058       _acGUI_Font20B_1_00AE      00fc1058     F20B_1.obj
 0003:009ae080       _acGUI_Font20B_1_00AF      00fc1080     F20B_1.obj
 0003:009ae0a8       _acGUI_Font20B_1_00B0      00fc10a8     F20B_1.obj
 0003:009ae0bc       _acGUI_Font20B_1_00B1      00fc10bc     F20B_1.obj
 0003:009ae0e4       _acGUI_Font20B_1_00B2      00fc10e4     F20B_1.obj
 0003:009ae0f8       _acGUI_Font20B_1_00B3      00fc10f8     F20B_1.obj
 0003:009ae10c       _acGUI_Font20B_1_00B4      00fc110c     F20B_1.obj
 0003:009ae120       _acGUI_Font20B_1_00B5      00fc1120     F20B_1.obj
 0003:009ae148       _acGUI_Font20B_1_00B6      00fc1148     F20B_1.obj
 0003:009ae170       _acGUI_Font20B_1_00B7      00fc1170     F20B_1.obj
 0003:009ae184       _acGUI_Font20B_1_00B8      00fc1184     F20B_1.obj
 0003:009ae198       _acGUI_Font20B_1_00B9      00fc1198     F20B_1.obj
 0003:009ae1ac       _acGUI_Font20B_1_00BA      00fc11ac     F20B_1.obj
 0003:009ae1c0       _acGUI_Font20B_1_00BB      00fc11c0     F20B_1.obj
 0003:009ae1e8       _acGUI_Font20B_1_00BC      00fc11e8     F20B_1.obj
 0003:009ae210       _acGUI_Font20B_1_00BD      00fc1210     F20B_1.obj
 0003:009ae238       _acGUI_Font20B_1_00BE      00fc1238     F20B_1.obj
 0003:009ae260       _acGUI_Font20B_1_00BF      00fc1260     F20B_1.obj
 0003:009ae288       _acGUI_Font20B_1_00C0      00fc1288     F20B_1.obj
 0003:009ae2b0       _acGUI_Font20B_1_00C1      00fc12b0     F20B_1.obj
 0003:009ae2d8       _acGUI_Font20B_1_00C2      00fc12d8     F20B_1.obj
 0003:009ae300       _acGUI_Font20B_1_00C3      00fc1300     F20B_1.obj
 0003:009ae328       _acGUI_Font20B_1_00C4      00fc1328     F20B_1.obj
 0003:009ae350       _acGUI_Font20B_1_00C5      00fc1350     F20B_1.obj
 0003:009ae378       _acGUI_Font20B_1_00C6      00fc1378     F20B_1.obj
 0003:009ae3b4       _acGUI_Font20B_1_00C7      00fc13b4     F20B_1.obj
 0003:009ae3dc       _acGUI_Font20B_1_00C8      00fc13dc     F20B_1.obj
 0003:009ae404       _acGUI_Font20B_1_00C9      00fc1404     F20B_1.obj
 0003:009ae42c       _acGUI_Font20B_1_00CA      00fc142c     F20B_1.obj
 0003:009ae454       _acGUI_Font20B_1_00CB      00fc1454     F20B_1.obj
 0003:009ae47c       _acGUI_Font20B_1_00CC      00fc147c     F20B_1.obj
 0003:009ae490       _acGUI_Font20B_1_00CD      00fc1490     F20B_1.obj
 0003:009ae4a4       _acGUI_Font20B_1_00CE      00fc14a4     F20B_1.obj
 0003:009ae4b8       _acGUI_Font20B_1_00CF      00fc14b8     F20B_1.obj
 0003:009ae4cc       _acGUI_Font20B_1_00D0      00fc14cc     F20B_1.obj
 0003:009ae4f4       _acGUI_Font20B_1_00D1      00fc14f4     F20B_1.obj
 0003:009ae51c       _acGUI_Font20B_1_00D2      00fc151c     F20B_1.obj
 0003:009ae544       _acGUI_Font20B_1_00D3      00fc1544     F20B_1.obj
 0003:009ae56c       _acGUI_Font20B_1_00D4      00fc156c     F20B_1.obj
 0003:009ae594       _acGUI_Font20B_1_00D5      00fc1594     F20B_1.obj
 0003:009ae5bc       _acGUI_Font20B_1_00D6      00fc15bc     F20B_1.obj
 0003:009ae5e4       _acGUI_Font20B_1_00D7      00fc15e4     F20B_1.obj
 0003:009ae60c       _acGUI_Font20B_1_00D8      00fc160c     F20B_1.obj
 0003:009ae634       _acGUI_Font20B_1_00D9      00fc1634     F20B_1.obj
 0003:009ae65c       _acGUI_Font20B_1_00DA      00fc165c     F20B_1.obj
 0003:009ae684       _acGUI_Font20B_1_00DB      00fc1684     F20B_1.obj
 0003:009ae6ac       _acGUI_Font20B_1_00DC      00fc16ac     F20B_1.obj
 0003:009ae6d4       _acGUI_Font20B_1_00DD      00fc16d4     F20B_1.obj
 0003:009ae6fc       _acGUI_Font20B_1_00DE      00fc16fc     F20B_1.obj
 0003:009ae724       _acGUI_Font20B_1_00DF      00fc1724     F20B_1.obj
 0003:009ae74c       _acGUI_Font20B_1_00E0      00fc174c     F20B_1.obj
 0003:009ae774       _acGUI_Font20B_1_00E1      00fc1774     F20B_1.obj
 0003:009ae79c       _acGUI_Font20B_1_00E2      00fc179c     F20B_1.obj
 0003:009ae7c4       _acGUI_Font20B_1_00E3      00fc17c4     F20B_1.obj
 0003:009ae7ec       _acGUI_Font20B_1_00E4      00fc17ec     F20B_1.obj
 0003:009ae814       _acGUI_Font20B_1_00E5      00fc1814     F20B_1.obj
 0003:009ae83c       _acGUI_Font20B_1_00E6      00fc183c     F20B_1.obj
 0003:009ae864       _acGUI_Font20B_1_00E7      00fc1864     F20B_1.obj
 0003:009ae88c       _acGUI_Font20B_1_00E8      00fc188c     F20B_1.obj
 0003:009ae8b4       _acGUI_Font20B_1_00E9      00fc18b4     F20B_1.obj
 0003:009ae8dc       _acGUI_Font20B_1_00EA      00fc18dc     F20B_1.obj
 0003:009ae904       _acGUI_Font20B_1_00EB      00fc1904     F20B_1.obj
 0003:009ae92c       _acGUI_Font20B_1_00EC      00fc192c     F20B_1.obj
 0003:009ae940       _acGUI_Font20B_1_00ED      00fc1940     F20B_1.obj
 0003:009ae954       _acGUI_Font20B_1_00EE      00fc1954     F20B_1.obj
 0003:009ae968       _acGUI_Font20B_1_00EF      00fc1968     F20B_1.obj
 0003:009ae97c       _acGUI_Font20B_1_00F0      00fc197c     F20B_1.obj
 0003:009ae9a4       _acGUI_Font20B_1_00F1      00fc19a4     F20B_1.obj
 0003:009ae9cc       _acGUI_Font20B_1_00F2      00fc19cc     F20B_1.obj
 0003:009ae9f4       _acGUI_Font20B_1_00F3      00fc19f4     F20B_1.obj
 0003:009aea1c       _acGUI_Font20B_1_00F4      00fc1a1c     F20B_1.obj
 0003:009aea44       _acGUI_Font20B_1_00F5      00fc1a44     F20B_1.obj
 0003:009aea6c       _acGUI_Font20B_1_00F6      00fc1a6c     F20B_1.obj
 0003:009aea94       _acGUI_Font20B_1_00F7      00fc1a94     F20B_1.obj
 0003:009aeabc       _acGUI_Font20B_1_00F8      00fc1abc     F20B_1.obj
 0003:009aeae4       _acGUI_Font20B_1_00F9      00fc1ae4     F20B_1.obj
 0003:009aeb0c       _acGUI_Font20B_1_00FA      00fc1b0c     F20B_1.obj
 0003:009aeb34       _acGUI_Font20B_1_00FB      00fc1b34     F20B_1.obj
 0003:009aeb5c       _acGUI_Font20B_1_00FC      00fc1b5c     F20B_1.obj
 0003:009aeb84       _acGUI_Font20B_1_00FD      00fc1b84     F20B_1.obj
 0003:009aebac       _acGUI_Font20B_1_00FE      00fc1bac     F20B_1.obj
 0003:009aebd4       _acGUI_Font20B_1_00FF      00fc1bd4     F20B_1.obj
 0003:009aebfc       _GUI_Font20B_1_Prop1       00fc1bfc     F20B_1.obj
 0003:009aec08       _GUI_Font20B_1_CharInfo    00fc1c08     F20B_1.obj
 0003:009aef08       _GUI_Font20B_1_Prop0       00fc1f08     F20B_1.obj
 0003:009aef14       _GUI_Font20B_1             00fc1f14     F20B_1.obj
 0003:009af290       _acGUI_Font20B_ASCII_0020  00fc2290     F20B_ASCII.obj
 0003:009af2a4       _acGUI_Font20B_ASCII_0021  00fc22a4     F20B_ASCII.obj
 0003:009af2b8       _acGUI_Font20B_ASCII_0022  00fc22b8     F20B_ASCII.obj
 0003:009af2e0       _acGUI_Font20B_ASCII_0023  00fc22e0     F20B_ASCII.obj
 0003:009af308       _acGUI_Font20B_ASCII_0024  00fc2308     F20B_ASCII.obj
 0003:009af330       _acGUI_Font20B_ASCII_0025  00fc2330     F20B_ASCII.obj
 0003:009af36c       _acGUI_Font20B_ASCII_0026  00fc236c     F20B_ASCII.obj
 0003:009af394       _acGUI_Font20B_ASCII_0027  00fc2394     F20B_ASCII.obj
 0003:009af3a8       _acGUI_Font20B_ASCII_0028  00fc23a8     F20B_ASCII.obj
 0003:009af3bc       _acGUI_Font20B_ASCII_0029  00fc23bc     F20B_ASCII.obj
 0003:009af3d0       _acGUI_Font20B_ASCII_002A  00fc23d0     F20B_ASCII.obj
 0003:009af3e4       _acGUI_Font20B_ASCII_002B  00fc23e4     F20B_ASCII.obj
 0003:009af40c       _acGUI_Font20B_ASCII_002C  00fc240c     F20B_ASCII.obj
 0003:009af420       _acGUI_Font20B_ASCII_002D  00fc2420     F20B_ASCII.obj
 0003:009af434       _acGUI_Font20B_ASCII_002E  00fc2434     F20B_ASCII.obj
 0003:009af448       _acGUI_Font20B_ASCII_002F  00fc2448     F20B_ASCII.obj
 0003:009af45c       _acGUI_Font20B_ASCII_0030  00fc245c     F20B_ASCII.obj
 0003:009af484       _acGUI_Font20B_ASCII_0031  00fc2484     F20B_ASCII.obj
 0003:009af4ac       _acGUI_Font20B_ASCII_0032  00fc24ac     F20B_ASCII.obj
 0003:009af4d4       _acGUI_Font20B_ASCII_0033  00fc24d4     F20B_ASCII.obj
 0003:009af4fc       _acGUI_Font20B_ASCII_0034  00fc24fc     F20B_ASCII.obj
 0003:009af524       _acGUI_Font20B_ASCII_0035  00fc2524     F20B_ASCII.obj
 0003:009af54c       _acGUI_Font20B_ASCII_0036  00fc254c     F20B_ASCII.obj
 0003:009af574       _acGUI_Font20B_ASCII_0037  00fc2574     F20B_ASCII.obj
 0003:009af59c       _acGUI_Font20B_ASCII_0038  00fc259c     F20B_ASCII.obj
 0003:009af5c4       _acGUI_Font20B_ASCII_0039  00fc25c4     F20B_ASCII.obj
 0003:009af5ec       _acGUI_Font20B_ASCII_003A  00fc25ec     F20B_ASCII.obj
 0003:009af600       _acGUI_Font20B_ASCII_003B  00fc2600     F20B_ASCII.obj
 0003:009af614       _acGUI_Font20B_ASCII_003C  00fc2614     F20B_ASCII.obj
 0003:009af63c       _acGUI_Font20B_ASCII_003D  00fc263c     F20B_ASCII.obj
 0003:009af664       _acGUI_Font20B_ASCII_003E  00fc2664     F20B_ASCII.obj
 0003:009af68c       _acGUI_Font20B_ASCII_003F  00fc268c     F20B_ASCII.obj
 0003:009af6b4       _acGUI_Font20B_ASCII_0040  00fc26b4     F20B_ASCII.obj
 0003:009af6f0       _acGUI_Font20B_ASCII_0041  00fc26f0     F20B_ASCII.obj
 0003:009af718       _acGUI_Font20B_ASCII_0042  00fc2718     F20B_ASCII.obj
 0003:009af740       _acGUI_Font20B_ASCII_0043  00fc2740     F20B_ASCII.obj
 0003:009af768       _acGUI_Font20B_ASCII_0044  00fc2768     F20B_ASCII.obj
 0003:009af790       _acGUI_Font20B_ASCII_0045  00fc2790     F20B_ASCII.obj
 0003:009af7b8       _acGUI_Font20B_ASCII_0046  00fc27b8     F20B_ASCII.obj
 0003:009af7e0       _acGUI_Font20B_ASCII_0047  00fc27e0     F20B_ASCII.obj
 0003:009af808       _acGUI_Font20B_ASCII_0048  00fc2808     F20B_ASCII.obj
 0003:009af830       _acGUI_Font20B_ASCII_0049  00fc2830     F20B_ASCII.obj
 0003:009af844       _acGUI_Font20B_ASCII_004A  00fc2844     F20B_ASCII.obj
 0003:009af86c       _acGUI_Font20B_ASCII_004B  00fc286c     F20B_ASCII.obj
 0003:009af894       _acGUI_Font20B_ASCII_004C  00fc2894     F20B_ASCII.obj
 0003:009af8bc       _acGUI_Font20B_ASCII_004D  00fc28bc     F20B_ASCII.obj
 0003:009af8e4       _acGUI_Font20B_ASCII_004E  00fc28e4     F20B_ASCII.obj
 0003:009af90c       _acGUI_Font20B_ASCII_004F  00fc290c     F20B_ASCII.obj
 0003:009af934       _acGUI_Font20B_ASCII_0050  00fc2934     F20B_ASCII.obj
 0003:009af95c       _acGUI_Font20B_ASCII_0051  00fc295c     F20B_ASCII.obj
 0003:009af984       _acGUI_Font20B_ASCII_0052  00fc2984     F20B_ASCII.obj
 0003:009af9ac       _acGUI_Font20B_ASCII_0053  00fc29ac     F20B_ASCII.obj
 0003:009af9d4       _acGUI_Font20B_ASCII_0054  00fc29d4     F20B_ASCII.obj
 0003:009af9fc       _acGUI_Font20B_ASCII_0055  00fc29fc     F20B_ASCII.obj
 0003:009afa24       _acGUI_Font20B_ASCII_0056  00fc2a24     F20B_ASCII.obj
 0003:009afa4c       _acGUI_Font20B_ASCII_0057  00fc2a4c     F20B_ASCII.obj
 0003:009afa88       _acGUI_Font20B_ASCII_0058  00fc2a88     F20B_ASCII.obj
 0003:009afab0       _acGUI_Font20B_ASCII_0059  00fc2ab0     F20B_ASCII.obj
 0003:009afad8       _acGUI_Font20B_ASCII_005A  00fc2ad8     F20B_ASCII.obj
 0003:009afb00       _acGUI_Font20B_ASCII_005B  00fc2b00     F20B_ASCII.obj
 0003:009afb14       _acGUI_Font20B_ASCII_005C  00fc2b14     F20B_ASCII.obj
 0003:009afb28       _acGUI_Font20B_ASCII_005D  00fc2b28     F20B_ASCII.obj
 0003:009afb3c       _acGUI_Font20B_ASCII_005E  00fc2b3c     F20B_ASCII.obj
 0003:009afb64       _acGUI_Font20B_ASCII_005F  00fc2b64     F20B_ASCII.obj
 0003:009afb8c       _acGUI_Font20B_ASCII_0060  00fc2b8c     F20B_ASCII.obj
 0003:009afba0       _acGUI_Font20B_ASCII_0061  00fc2ba0     F20B_ASCII.obj
 0003:009afbc8       _acGUI_Font20B_ASCII_0062  00fc2bc8     F20B_ASCII.obj
 0003:009afbf0       _acGUI_Font20B_ASCII_0063  00fc2bf0     F20B_ASCII.obj
 0003:009afc18       _acGUI_Font20B_ASCII_0064  00fc2c18     F20B_ASCII.obj
 0003:009afc40       _acGUI_Font20B_ASCII_0065  00fc2c40     F20B_ASCII.obj
 0003:009afc68       _acGUI_Font20B_ASCII_0066  00fc2c68     F20B_ASCII.obj
 0003:009afc7c       _acGUI_Font20B_ASCII_0067  00fc2c7c     F20B_ASCII.obj
 0003:009afca4       _acGUI_Font20B_ASCII_0068  00fc2ca4     F20B_ASCII.obj
 0003:009afccc       _acGUI_Font20B_ASCII_0069  00fc2ccc     F20B_ASCII.obj
 0003:009afce0       _acGUI_Font20B_ASCII_006A  00fc2ce0     F20B_ASCII.obj
 0003:009afcf4       _acGUI_Font20B_ASCII_006B  00fc2cf4     F20B_ASCII.obj
 0003:009afd1c       _acGUI_Font20B_ASCII_006C  00fc2d1c     F20B_ASCII.obj
 0003:009afd30       _acGUI_Font20B_ASCII_006D  00fc2d30     F20B_ASCII.obj
 0003:009afd6c       _acGUI_Font20B_ASCII_006E  00fc2d6c     F20B_ASCII.obj
 0003:009afd94       _acGUI_Font20B_ASCII_006F  00fc2d94     F20B_ASCII.obj
 0003:009afdbc       _acGUI_Font20B_ASCII_0070  00fc2dbc     F20B_ASCII.obj
 0003:009afde4       _acGUI_Font20B_ASCII_0071  00fc2de4     F20B_ASCII.obj
 0003:009afe0c       _acGUI_Font20B_ASCII_0072  00fc2e0c     F20B_ASCII.obj
 0003:009afe20       _acGUI_Font20B_ASCII_0073  00fc2e20     F20B_ASCII.obj
 0003:009afe48       _acGUI_Font20B_ASCII_0074  00fc2e48     F20B_ASCII.obj
 0003:009afe5c       _acGUI_Font20B_ASCII_0075  00fc2e5c     F20B_ASCII.obj
 0003:009afe84       _acGUI_Font20B_ASCII_0076  00fc2e84     F20B_ASCII.obj
 0003:009afeac       _acGUI_Font20B_ASCII_0077  00fc2eac     F20B_ASCII.obj
 0003:009afed4       _acGUI_Font20B_ASCII_0078  00fc2ed4     F20B_ASCII.obj
 0003:009afefc       _acGUI_Font20B_ASCII_0079  00fc2efc     F20B_ASCII.obj
 0003:009aff24       _acGUI_Font20B_ASCII_007A  00fc2f24     F20B_ASCII.obj
 0003:009aff4c       _acGUI_Font20B_ASCII_007B  00fc2f4c     F20B_ASCII.obj
 0003:009aff60       _acGUI_Font20B_ASCII_007C  00fc2f60     F20B_ASCII.obj
 0003:009aff74       _acGUI_Font20B_ASCII_007D  00fc2f74     F20B_ASCII.obj
 0003:009aff88       _acGUI_Font20B_ASCII_007E  00fc2f88     F20B_ASCII.obj
 0003:009affb0       _GUI_Font20B_ASCII_CharInfo 00fc2fb0     F20B_ASCII.obj
 0003:009b02a8       _GUI_Font20B_ASCII_Prop1   00fc32a8     F20B_ASCII.obj
 0003:009b02b4       _GUI_Font20B_ASCII         00fc32b4     F20B_ASCII.obj
 0003:009b0620       _acGUI_Font20F_ASCII_0020  00fc3620     F20F_ASCII.obj
 0003:009b0628       _acGUI_Font20F_ASCII_0021  00fc3628     F20F_ASCII.obj
 0003:009b0644       _acGUI_Font20F_ASCII_0022  00fc3644     F20F_ASCII.obj
 0003:009b0650       _acGUI_Font20F_ASCII_0023  00fc3650     F20F_ASCII.obj
 0003:009b0688       _acGUI_Font20F_ASCII_0024  00fc3688     F20F_ASCII.obj
 0003:009b06c8       _acGUI_Font20F_ASCII_0025  00fc36c8     F20F_ASCII.obj
 0003:009b0700       _acGUI_Font20F_ASCII_0026  00fc3700     F20F_ASCII.obj
 0003:009b0738       _acGUI_Font20F_ASCII_0027  00fc3738     F20F_ASCII.obj
 0003:009b0744       _acGUI_Font20F_ASCII_0028  00fc3744     F20F_ASCII.obj
 0003:009b0768       _acGUI_Font20F_ASCII_0029  00fc3768     F20F_ASCII.obj
 0003:009b078c       _acGUI_Font20F_ASCII_002A  00fc378c     F20F_ASCII.obj
 0003:009b079c       _acGUI_Font20F_ASCII_002B  00fc379c     F20F_ASCII.obj
 0003:009b07c0       _acGUI_Font20F_ASCII_002C  00fc37c0     F20F_ASCII.obj
 0003:009b07cc       _acGUI_Font20F_ASCII_002D  00fc37cc     F20F_ASCII.obj
 0003:009b07d4       _acGUI_Font20F_ASCII_002E  00fc37d4     F20F_ASCII.obj
 0003:009b07dc       _acGUI_Font20F_ASCII_002F  00fc37dc     F20F_ASCII.obj
 0003:009b07f8       _acGUI_Font20F_ASCII_0030  00fc37f8     F20F_ASCII.obj
 0003:009b0830       _acGUI_Font20F_ASCII_0031  00fc3830     F20F_ASCII.obj
 0003:009b084c       _acGUI_Font20F_ASCII_0032  00fc384c     F20F_ASCII.obj
 0003:009b0884       _acGUI_Font20F_ASCII_0033  00fc3884     F20F_ASCII.obj
 0003:009b08bc       _acGUI_Font20F_ASCII_0034  00fc38bc     F20F_ASCII.obj
 0003:009b08f4       _acGUI_Font20F_ASCII_0035  00fc38f4     F20F_ASCII.obj
 0003:009b092c       _acGUI_Font20F_ASCII_0036  00fc392c     F20F_ASCII.obj
 0003:009b0964       _acGUI_Font20F_ASCII_0037  00fc3964     F20F_ASCII.obj
 0003:009b099c       _acGUI_Font20F_ASCII_0038  00fc399c     F20F_ASCII.obj
 0003:009b09d4       _acGUI_Font20F_ASCII_0039  00fc39d4     F20F_ASCII.obj
 0003:009b0a0c       _acGUI_Font20F_ASCII_003A  00fc3a0c     F20F_ASCII.obj
 0003:009b0a24       _acGUI_Font20F_ASCII_003B  00fc3a24     F20F_ASCII.obj
 0003:009b0a40       _acGUI_Font20F_ASCII_003C  00fc3a40     F20F_ASCII.obj
 0003:009b0a64       _acGUI_Font20F_ASCII_003D  00fc3a64     F20F_ASCII.obj
 0003:009b0a80       _acGUI_Font20F_ASCII_003E  00fc3a80     F20F_ASCII.obj
 0003:009b0aa4       _acGUI_Font20F_ASCII_003F  00fc3aa4     F20F_ASCII.obj
 0003:009b0ae0       _acGUI_Font20F_ASCII_0040  00fc3ae0     F20F_ASCII.obj
 0003:009b0b48       _acGUI_Font20F_ASCII_0041  00fc3b48     F20F_ASCII.obj
 0003:009b0b80       _acGUI_Font20F_ASCII_0042  00fc3b80     F20F_ASCII.obj
 0003:009b0bb8       _acGUI_Font20F_ASCII_0043  00fc3bb8     F20F_ASCII.obj
 0003:009b0bf0       _acGUI_Font20F_ASCII_0044  00fc3bf0     F20F_ASCII.obj
 0003:009b0c28       _acGUI_Font20F_ASCII_0045  00fc3c28     F20F_ASCII.obj
 0003:009b0c60       _acGUI_Font20F_ASCII_0046  00fc3c60     F20F_ASCII.obj
 0003:009b0c98       _acGUI_Font20F_ASCII_0047  00fc3c98     F20F_ASCII.obj
 0003:009b0cd0       _acGUI_Font20F_ASCII_0048  00fc3cd0     F20F_ASCII.obj
 0003:009b0d08       _acGUI_Font20F_ASCII_0049  00fc3d08     F20F_ASCII.obj
 0003:009b0d24       _acGUI_Font20F_ASCII_004A  00fc3d24     F20F_ASCII.obj
 0003:009b0d40       _acGUI_Font20F_ASCII_004B  00fc3d40     F20F_ASCII.obj
 0003:009b0d78       _acGUI_Font20F_ASCII_004C  00fc3d78     F20F_ASCII.obj
 0003:009b0db0       _acGUI_Font20F_ASCII_004D  00fc3db0     F20F_ASCII.obj
 0003:009b0de8       _acGUI_Font20F_ASCII_004E  00fc3de8     F20F_ASCII.obj
 0003:009b0e20       _acGUI_Font20F_ASCII_004F  00fc3e20     F20F_ASCII.obj
 0003:009b0e58       _acGUI_Font20F_ASCII_0050  00fc3e58     F20F_ASCII.obj
 0003:009b0e90       _acGUI_Font20F_ASCII_0051  00fc3e90     F20F_ASCII.obj
 0003:009b0ec8       _acGUI_Font20F_ASCII_0052  00fc3ec8     F20F_ASCII.obj
 0003:009b0f00       _acGUI_Font20F_ASCII_0053  00fc3f00     F20F_ASCII.obj
 0003:009b0f38       _acGUI_Font20F_ASCII_0054  00fc3f38     F20F_ASCII.obj
 0003:009b0f70       _acGUI_Font20F_ASCII_0055  00fc3f70     F20F_ASCII.obj
 0003:009b0fa8       _acGUI_Font20F_ASCII_0056  00fc3fa8     F20F_ASCII.obj
 0003:009b0fe0       _acGUI_Font20F_ASCII_0057  00fc3fe0     F20F_ASCII.obj
 0003:009b1034       _acGUI_Font20F_ASCII_0058  00fc4034     F20F_ASCII.obj
 0003:009b106c       _acGUI_Font20F_ASCII_0059  00fc406c     F20F_ASCII.obj
 0003:009b10a4       _acGUI_Font20F_ASCII_005A  00fc40a4     F20F_ASCII.obj
 0003:009b10dc       _acGUI_Font20F_ASCII_005B  00fc40dc     F20F_ASCII.obj
 0003:009b1100       _acGUI_Font20F_ASCII_005C  00fc4100     F20F_ASCII.obj
 0003:009b111c       _acGUI_Font20F_ASCII_005D  00fc411c     F20F_ASCII.obj
 0003:009b1140       _acGUI_Font20F_ASCII_005E  00fc4140     F20F_ASCII.obj
 0003:009b1160       _acGUI_Font20F_ASCII_005F  00fc4160     F20F_ASCII.obj
 0003:009b116c       _acGUI_Font20F_ASCII_0060  00fc416c     F20F_ASCII.obj
 0003:009b1174       _acGUI_Font20F_ASCII_0061  00fc4174     F20F_ASCII.obj
 0003:009b11a0       _acGUI_Font20F_ASCII_0062  00fc41a0     F20F_ASCII.obj
 0003:009b11d8       _acGUI_Font20F_ASCII_0063  00fc41d8     F20F_ASCII.obj
 0003:009b11f0       _acGUI_Font20F_ASCII_0064  00fc41f0     F20F_ASCII.obj
 0003:009b1228       _acGUI_Font20F_ASCII_0065  00fc4228     F20F_ASCII.obj
 0003:009b1254       _acGUI_Font20F_ASCII_0066  00fc4254     F20F_ASCII.obj
 0003:009b1270       _acGUI_Font20F_ASCII_0067  00fc4270     F20F_ASCII.obj
 0003:009b12a8       _acGUI_Font20F_ASCII_0068  00fc42a8     F20F_ASCII.obj
 0003:009b12c4       _acGUI_Font20F_ASCII_0069  00fc42c4     F20F_ASCII.obj
 0003:009b12e0       _acGUI_Font20F_ASCII_006A  00fc42e0     F20F_ASCII.obj
 0003:009b1304       _acGUI_Font20F_ASCII_006B  00fc4304     F20F_ASCII.obj
 0003:009b133c       _acGUI_Font20F_ASCII_006C  00fc433c     F20F_ASCII.obj
 0003:009b1358       _acGUI_Font20F_ASCII_006D  00fc4358     F20F_ASCII.obj
 0003:009b1384       _acGUI_Font20F_ASCII_006E  00fc4384     F20F_ASCII.obj
 0003:009b139c       _acGUI_Font20F_ASCII_006F  00fc439c     F20F_ASCII.obj
 0003:009b13c8       _acGUI_Font20F_ASCII_0070  00fc43c8     F20F_ASCII.obj
 0003:009b1400       _acGUI_Font20F_ASCII_0071  00fc4400     F20F_ASCII.obj
 0003:009b1438       _acGUI_Font20F_ASCII_0072  00fc4438     F20F_ASCII.obj
 0003:009b1450       _acGUI_Font20F_ASCII_0073  00fc4450     F20F_ASCII.obj
 0003:009b1468       _acGUI_Font20F_ASCII_0074  00fc4468     F20F_ASCII.obj
 0003:009b1484       _acGUI_Font20F_ASCII_0075  00fc4484     F20F_ASCII.obj
 0003:009b149c       _acGUI_Font20F_ASCII_0076  00fc449c     F20F_ASCII.obj
 0003:009b14c8       _acGUI_Font20F_ASCII_0077  00fc44c8     F20F_ASCII.obj
 0003:009b14f4       _acGUI_Font20F_ASCII_0078  00fc44f4     F20F_ASCII.obj
 0003:009b1520       _acGUI_Font20F_ASCII_0079  00fc4520     F20F_ASCII.obj
 0003:009b1558       _acGUI_Font20F_ASCII_007A  00fc4558     F20F_ASCII.obj
 0003:009b1584       _acGUI_Font20F_ASCII_007B  00fc4584     F20F_ASCII.obj
 0003:009b15a8       _acGUI_Font20F_ASCII_007C  00fc45a8     F20F_ASCII.obj
 0003:009b15cc       _acGUI_Font20F_ASCII_007D  00fc45cc     F20F_ASCII.obj
 0003:009b15f0       _acGUI_Font20F_ASCII_007E  00fc45f0     F20F_ASCII.obj
 0003:009b1600       _GUI_Font20F_ASCII_CharInfo 00fc4600     F20F_ASCII.obj
 0003:009b1a74       _GUI_Font20F_ASCII_Prop1   00fc4a74     F20F_ASCII.obj
 0003:009b1a80       _GUI_Font20F_ASCII         00fc4a80     F20F_ASCII.obj
 0003:009b1ec0       _acGUI_Font20_1_00A0       00fc4ec0     F20_1.obj
 0003:009b1ed4       _acGUI_Font20_1_00A1       00fc4ed4     F20_1.obj
 0003:009b1ee8       _acGUI_Font20_1_00A2       00fc4ee8     F20_1.obj
 0003:009b1f10       _acGUI_Font20_1_00A3       00fc4f10     F20_1.obj
 0003:009b1f38       _acGUI_Font20_1_00A4       00fc4f38     F20_1.obj
 0003:009b1f60       _acGUI_Font20_1_00A5       00fc4f60     F20_1.obj
 0003:009b1f88       _acGUI_Font20_1_00A6       00fc4f88     F20_1.obj
 0003:009b1f9c       _acGUI_Font20_1_00A7       00fc4f9c     F20_1.obj
 0003:009b1fc4       _acGUI_Font20_1_00A8       00fc4fc4     F20_1.obj
 0003:009b1fd8       _acGUI_Font20_1_00A9       00fc4fd8     F20_1.obj
 0003:009b2000       _acGUI_Font20_1_00AA       00fc5000     F20_1.obj
 0003:009b2014       _acGUI_Font20_1_00AB       00fc5014     F20_1.obj
 0003:009b203c       _acGUI_Font20_1_00AC       00fc503c     F20_1.obj
 0003:009b2064       _acGUI_Font20_1_00AD       00fc5064     F20_1.obj
 0003:009b2078       _acGUI_Font20_1_00AE       00fc5078     F20_1.obj
 0003:009b20a0       _acGUI_Font20_1_00AF       00fc50a0     F20_1.obj
 0003:009b20c8       _acGUI_Font20_1_00B0       00fc50c8     F20_1.obj
 0003:009b20dc       _acGUI_Font20_1_00B1       00fc50dc     F20_1.obj
 0003:009b2104       _acGUI_Font20_1_00B2       00fc5104     F20_1.obj
 0003:009b2118       _acGUI_Font20_1_00B3       00fc5118     F20_1.obj
 0003:009b212c       _acGUI_Font20_1_00B4       00fc512c     F20_1.obj
 0003:009b2140       _acGUI_Font20_1_00B5       00fc5140     F20_1.obj
 0003:009b2168       _acGUI_Font20_1_00B6       00fc5168     F20_1.obj
 0003:009b2190       _acGUI_Font20_1_00B7       00fc5190     F20_1.obj
 0003:009b21a4       _acGUI_Font20_1_00B8       00fc51a4     F20_1.obj
 0003:009b21b8       _acGUI_Font20_1_00B9       00fc51b8     F20_1.obj
 0003:009b21cc       _acGUI_Font20_1_00BA       00fc51cc     F20_1.obj
 0003:009b21e0       _acGUI_Font20_1_00BB       00fc51e0     F20_1.obj
 0003:009b2208       _acGUI_Font20_1_00BC       00fc5208     F20_1.obj
 0003:009b2230       _acGUI_Font20_1_00BD       00fc5230     F20_1.obj
 0003:009b2258       _acGUI_Font20_1_00BE       00fc5258     F20_1.obj
 0003:009b2280       _acGUI_Font20_1_00BF       00fc5280     F20_1.obj
 0003:009b22a8       _acGUI_Font20_1_00C0       00fc52a8     F20_1.obj
 0003:009b22d0       _acGUI_Font20_1_00C1       00fc52d0     F20_1.obj
 0003:009b22f8       _acGUI_Font20_1_00C2       00fc52f8     F20_1.obj
 0003:009b2320       _acGUI_Font20_1_00C3       00fc5320     F20_1.obj
 0003:009b2348       _acGUI_Font20_1_00C4       00fc5348     F20_1.obj
 0003:009b2370       _acGUI_Font20_1_00C5       00fc5370     F20_1.obj
 0003:009b2398       _acGUI_Font20_1_00C6       00fc5398     F20_1.obj
 0003:009b23d4       _acGUI_Font20_1_00C7       00fc53d4     F20_1.obj
 0003:009b23fc       _acGUI_Font20_1_00C8       00fc53fc     F20_1.obj
 0003:009b2424       _acGUI_Font20_1_00C9       00fc5424     F20_1.obj
 0003:009b244c       _acGUI_Font20_1_00CA       00fc544c     F20_1.obj
 0003:009b2474       _acGUI_Font20_1_00CB       00fc5474     F20_1.obj
 0003:009b249c       _acGUI_Font20_1_00CC       00fc549c     F20_1.obj
 0003:009b24b0       _acGUI_Font20_1_00CD       00fc54b0     F20_1.obj
 0003:009b24c4       _acGUI_Font20_1_00CE       00fc54c4     F20_1.obj
 0003:009b24d8       _acGUI_Font20_1_00CF       00fc54d8     F20_1.obj
 0003:009b24ec       _acGUI_Font20_1_00D0       00fc54ec     F20_1.obj
 0003:009b2514       _acGUI_Font20_1_00D1       00fc5514     F20_1.obj
 0003:009b253c       _acGUI_Font20_1_00D2       00fc553c     F20_1.obj
 0003:009b2564       _acGUI_Font20_1_00D3       00fc5564     F20_1.obj
 0003:009b258c       _acGUI_Font20_1_00D4       00fc558c     F20_1.obj
 0003:009b25b4       _acGUI_Font20_1_00D5       00fc55b4     F20_1.obj
 0003:009b25dc       _acGUI_Font20_1_00D6       00fc55dc     F20_1.obj
 0003:009b2604       _acGUI_Font20_1_00D7       00fc5604     F20_1.obj
 0003:009b262c       _acGUI_Font20_1_00D8       00fc562c     F20_1.obj
 0003:009b2654       _acGUI_Font20_1_00D9       00fc5654     F20_1.obj
 0003:009b267c       _acGUI_Font20_1_00DA       00fc567c     F20_1.obj
 0003:009b26a4       _acGUI_Font20_1_00DB       00fc56a4     F20_1.obj
 0003:009b26cc       _acGUI_Font20_1_00DC       00fc56cc     F20_1.obj
 0003:009b26f4       _acGUI_Font20_1_00DD       00fc56f4     F20_1.obj
 0003:009b271c       _acGUI_Font20_1_00DE       00fc571c     F20_1.obj
 0003:009b2744       _acGUI_Font20_1_00DF       00fc5744     F20_1.obj
 0003:009b276c       _acGUI_Font20_1_00E0       00fc576c     F20_1.obj
 0003:009b2794       _acGUI_Font20_1_00E1       00fc5794     F20_1.obj
 0003:009b27bc       _acGUI_Font20_1_00E2       00fc57bc     F20_1.obj
 0003:009b27e4       _acGUI_Font20_1_00E3       00fc57e4     F20_1.obj
 0003:009b280c       _acGUI_Font20_1_00E4       00fc580c     F20_1.obj
 0003:009b2834       _acGUI_Font20_1_00E5       00fc5834     F20_1.obj
 0003:009b285c       _acGUI_Font20_1_00E6       00fc585c     F20_1.obj
 0003:009b2884       _acGUI_Font20_1_00E7       00fc5884     F20_1.obj
 0003:009b28ac       _acGUI_Font20_1_00E8       00fc58ac     F20_1.obj
 0003:009b28d4       _acGUI_Font20_1_00E9       00fc58d4     F20_1.obj
 0003:009b28fc       _acGUI_Font20_1_00EA       00fc58fc     F20_1.obj
 0003:009b2924       _acGUI_Font20_1_00EB       00fc5924     F20_1.obj
 0003:009b294c       _acGUI_Font20_1_00EC       00fc594c     F20_1.obj
 0003:009b2960       _acGUI_Font20_1_00ED       00fc5960     F20_1.obj
 0003:009b2974       _acGUI_Font20_1_00EE       00fc5974     F20_1.obj
 0003:009b2988       _acGUI_Font20_1_00EF       00fc5988     F20_1.obj
 0003:009b299c       _acGUI_Font20_1_00F0       00fc599c     F20_1.obj
 0003:009b29c4       _acGUI_Font20_1_00F1       00fc59c4     F20_1.obj
 0003:009b29ec       _acGUI_Font20_1_00F2       00fc59ec     F20_1.obj
 0003:009b2a14       _acGUI_Font20_1_00F3       00fc5a14     F20_1.obj
 0003:009b2a3c       _acGUI_Font20_1_00F4       00fc5a3c     F20_1.obj
 0003:009b2a64       _acGUI_Font20_1_00F5       00fc5a64     F20_1.obj
 0003:009b2a8c       _acGUI_Font20_1_00F6       00fc5a8c     F20_1.obj
 0003:009b2ab4       _acGUI_Font20_1_00F7       00fc5ab4     F20_1.obj
 0003:009b2adc       _acGUI_Font20_1_00F8       00fc5adc     F20_1.obj
 0003:009b2b04       _acGUI_Font20_1_00F9       00fc5b04     F20_1.obj
 0003:009b2b2c       _acGUI_Font20_1_00FA       00fc5b2c     F20_1.obj
 0003:009b2b54       _acGUI_Font20_1_00FB       00fc5b54     F20_1.obj
 0003:009b2b7c       _acGUI_Font20_1_00FC       00fc5b7c     F20_1.obj
 0003:009b2ba4       _acGUI_Font20_1_00FD       00fc5ba4     F20_1.obj
 0003:009b2bcc       _acGUI_Font20_1_00FE       00fc5bcc     F20_1.obj
 0003:009b2bf4       _acGUI_Font20_1_00FF       00fc5bf4     F20_1.obj
 0003:009b2c1c       _GUI_Font20_1_Prop1        00fc5c1c     F20_1.obj
 0003:009b2c28       _GUI_Font20_1_CharInfo     00fc5c28     F20_1.obj
 0003:009b2f28       _GUI_Font20_1_Prop0        00fc5f28     F20_1.obj
 0003:009b2f34       _GUI_Font20_1              00fc5f34     F20_1.obj
 0003:009b32b0       _acGUI_Font20_ASCII_0020   00fc62b0     F20_ASCII.obj
 0003:009b32c4       _acGUI_Font20_ASCII_0021   00fc62c4     F20_ASCII.obj
 0003:009b32d8       _acGUI_Font20_ASCII_0022   00fc62d8     F20_ASCII.obj
 0003:009b32ec       _acGUI_Font20_ASCII_0023   00fc62ec     F20_ASCII.obj
 0003:009b3314       _acGUI_Font20_ASCII_0024   00fc6314     F20_ASCII.obj
 0003:009b333c       _acGUI_Font20_ASCII_0025   00fc633c     F20_ASCII.obj
 0003:009b3364       _acGUI_Font20_ASCII_0026   00fc6364     F20_ASCII.obj
 0003:009b338c       _acGUI_Font20_ASCII_0027   00fc638c     F20_ASCII.obj
 0003:009b33a0       _acGUI_Font20_ASCII_0028   00fc63a0     F20_ASCII.obj
 0003:009b33b4       _acGUI_Font20_ASCII_0029   00fc63b4     F20_ASCII.obj
 0003:009b33c8       _acGUI_Font20_ASCII_002A   00fc63c8     F20_ASCII.obj
 0003:009b33dc       _acGUI_Font20_ASCII_002B   00fc63dc     F20_ASCII.obj
 0003:009b3404       _acGUI_Font20_ASCII_002C   00fc6404     F20_ASCII.obj
 0003:009b3418       _acGUI_Font20_ASCII_002D   00fc6418     F20_ASCII.obj
 0003:009b342c       _acGUI_Font20_ASCII_002E   00fc642c     F20_ASCII.obj
 0003:009b3440       _acGUI_Font20_ASCII_002F   00fc6440     F20_ASCII.obj
 0003:009b3454       _acGUI_Font20_ASCII_0030   00fc6454     F20_ASCII.obj
 0003:009b347c       _acGUI_Font20_ASCII_0031   00fc647c     F20_ASCII.obj
 0003:009b34a4       _acGUI_Font20_ASCII_0032   00fc64a4     F20_ASCII.obj
 0003:009b34cc       _acGUI_Font20_ASCII_0033   00fc64cc     F20_ASCII.obj
 0003:009b34f4       _acGUI_Font20_ASCII_0034   00fc64f4     F20_ASCII.obj
 0003:009b351c       _acGUI_Font20_ASCII_0035   00fc651c     F20_ASCII.obj
 0003:009b3544       _acGUI_Font20_ASCII_0036   00fc6544     F20_ASCII.obj
 0003:009b356c       _acGUI_Font20_ASCII_0037   00fc656c     F20_ASCII.obj
 0003:009b3594       _acGUI_Font20_ASCII_0038   00fc6594     F20_ASCII.obj
 0003:009b35bc       _acGUI_Font20_ASCII_0039   00fc65bc     F20_ASCII.obj
 0003:009b35e4       _acGUI_Font20_ASCII_003A   00fc65e4     F20_ASCII.obj
 0003:009b35f8       _acGUI_Font20_ASCII_003B   00fc65f8     F20_ASCII.obj
 0003:009b360c       _acGUI_Font20_ASCII_003C   00fc660c     F20_ASCII.obj
 0003:009b3634       _acGUI_Font20_ASCII_003D   00fc6634     F20_ASCII.obj
 0003:009b365c       _acGUI_Font20_ASCII_003E   00fc665c     F20_ASCII.obj
 0003:009b3684       _acGUI_Font20_ASCII_003F   00fc6684     F20_ASCII.obj
 0003:009b36ac       _acGUI_Font20_ASCII_0040   00fc66ac     F20_ASCII.obj
 0003:009b36e8       _acGUI_Font20_ASCII_0041   00fc66e8     F20_ASCII.obj
 0003:009b3710       _acGUI_Font20_ASCII_0042   00fc6710     F20_ASCII.obj
 0003:009b3738       _acGUI_Font20_ASCII_0043   00fc6738     F20_ASCII.obj
 0003:009b3760       _acGUI_Font20_ASCII_0044   00fc6760     F20_ASCII.obj
 0003:009b3788       _acGUI_Font20_ASCII_0045   00fc6788     F20_ASCII.obj
 0003:009b37b0       _acGUI_Font20_ASCII_0046   00fc67b0     F20_ASCII.obj
 0003:009b37d8       _acGUI_Font20_ASCII_0047   00fc67d8     F20_ASCII.obj
 0003:009b3800       _acGUI_Font20_ASCII_0048   00fc6800     F20_ASCII.obj
 0003:009b3828       _acGUI_Font20_ASCII_0049   00fc6828     F20_ASCII.obj
 0003:009b383c       _acGUI_Font20_ASCII_004A   00fc683c     F20_ASCII.obj
 0003:009b3864       _acGUI_Font20_ASCII_004B   00fc6864     F20_ASCII.obj
 0003:009b388c       _acGUI_Font20_ASCII_004C   00fc688c     F20_ASCII.obj
 0003:009b38b4       _acGUI_Font20_ASCII_004D   00fc68b4     F20_ASCII.obj
 0003:009b38dc       _acGUI_Font20_ASCII_004E   00fc68dc     F20_ASCII.obj
 0003:009b3904       _acGUI_Font20_ASCII_004F   00fc6904     F20_ASCII.obj
 0003:009b392c       _acGUI_Font20_ASCII_0050   00fc692c     F20_ASCII.obj
 0003:009b3954       _acGUI_Font20_ASCII_0051   00fc6954     F20_ASCII.obj
 0003:009b397c       _acGUI_Font20_ASCII_0052   00fc697c     F20_ASCII.obj
 0003:009b39a4       _acGUI_Font20_ASCII_0053   00fc69a4     F20_ASCII.obj
 0003:009b39cc       _acGUI_Font20_ASCII_0054   00fc69cc     F20_ASCII.obj
 0003:009b39f4       _acGUI_Font20_ASCII_0055   00fc69f4     F20_ASCII.obj
 0003:009b3a1c       _acGUI_Font20_ASCII_0056   00fc6a1c     F20_ASCII.obj
 0003:009b3a44       _acGUI_Font20_ASCII_0057   00fc6a44     F20_ASCII.obj
 0003:009b3a80       _acGUI_Font20_ASCII_0058   00fc6a80     F20_ASCII.obj
 0003:009b3aa8       _acGUI_Font20_ASCII_0059   00fc6aa8     F20_ASCII.obj
 0003:009b3ad0       _acGUI_Font20_ASCII_005A   00fc6ad0     F20_ASCII.obj
 0003:009b3af8       _acGUI_Font20_ASCII_005B   00fc6af8     F20_ASCII.obj
 0003:009b3b0c       _acGUI_Font20_ASCII_005C   00fc6b0c     F20_ASCII.obj
 0003:009b3b20       _acGUI_Font20_ASCII_005D   00fc6b20     F20_ASCII.obj
 0003:009b3b34       _acGUI_Font20_ASCII_005E   00fc6b34     F20_ASCII.obj
 0003:009b3b48       _acGUI_Font20_ASCII_005F   00fc6b48     F20_ASCII.obj
 0003:009b3b70       _acGUI_Font20_ASCII_0060   00fc6b70     F20_ASCII.obj
 0003:009b3b84       _acGUI_Font20_ASCII_0061   00fc6b84     F20_ASCII.obj
 0003:009b3bac       _acGUI_Font20_ASCII_0062   00fc6bac     F20_ASCII.obj
 0003:009b3bd4       _acGUI_Font20_ASCII_0063   00fc6bd4     F20_ASCII.obj
 0003:009b3bfc       _acGUI_Font20_ASCII_0064   00fc6bfc     F20_ASCII.obj
 0003:009b3c24       _acGUI_Font20_ASCII_0065   00fc6c24     F20_ASCII.obj
 0003:009b3c4c       _acGUI_Font20_ASCII_0066   00fc6c4c     F20_ASCII.obj
 0003:009b3c60       _acGUI_Font20_ASCII_0067   00fc6c60     F20_ASCII.obj
 0003:009b3c88       _acGUI_Font20_ASCII_0068   00fc6c88     F20_ASCII.obj
 0003:009b3cb0       _acGUI_Font20_ASCII_0069   00fc6cb0     F20_ASCII.obj
 0003:009b3cc4       _acGUI_Font20_ASCII_006A   00fc6cc4     F20_ASCII.obj
 0003:009b3cd8       _acGUI_Font20_ASCII_006B   00fc6cd8     F20_ASCII.obj
 0003:009b3d00       _acGUI_Font20_ASCII_006C   00fc6d00     F20_ASCII.obj
 0003:009b3d14       _acGUI_Font20_ASCII_006D   00fc6d14     F20_ASCII.obj
 0003:009b3d3c       _acGUI_Font20_ASCII_006E   00fc6d3c     F20_ASCII.obj
 0003:009b3d64       _acGUI_Font20_ASCII_006F   00fc6d64     F20_ASCII.obj
 0003:009b3d8c       _acGUI_Font20_ASCII_0070   00fc6d8c     F20_ASCII.obj
 0003:009b3db4       _acGUI_Font20_ASCII_0071   00fc6db4     F20_ASCII.obj
 0003:009b3ddc       _acGUI_Font20_ASCII_0072   00fc6ddc     F20_ASCII.obj
 0003:009b3df0       _acGUI_Font20_ASCII_0073   00fc6df0     F20_ASCII.obj
 0003:009b3e18       _acGUI_Font20_ASCII_0074   00fc6e18     F20_ASCII.obj
 0003:009b3e2c       _acGUI_Font20_ASCII_0075   00fc6e2c     F20_ASCII.obj
 0003:009b3e54       _acGUI_Font20_ASCII_0076   00fc6e54     F20_ASCII.obj
 0003:009b3e7c       _acGUI_Font20_ASCII_0077   00fc6e7c     F20_ASCII.obj
 0003:009b3ea4       _acGUI_Font20_ASCII_0078   00fc6ea4     F20_ASCII.obj
 0003:009b3eb8       _acGUI_Font20_ASCII_0079   00fc6eb8     F20_ASCII.obj
 0003:009b3ee0       _acGUI_Font20_ASCII_007A   00fc6ee0     F20_ASCII.obj
 0003:009b3ef4       _acGUI_Font20_ASCII_007B   00fc6ef4     F20_ASCII.obj
 0003:009b3f08       _acGUI_Font20_ASCII_007C   00fc6f08     F20_ASCII.obj
 0003:009b3f1c       _acGUI_Font20_ASCII_007D   00fc6f1c     F20_ASCII.obj
 0003:009b3f30       _acGUI_Font20_ASCII_007E   00fc6f30     F20_ASCII.obj
 0003:009b3f58       _GUI_Font20_ASCII_CharInfo 00fc6f58     F20_ASCII.obj
 0003:009b4250       _GUI_Font20_ASCII_Prop1    00fc7250     F20_ASCII.obj
 0003:009b425c       _GUI_Font20_ASCII          00fc725c     F20_ASCII.obj
 0003:009b45b0       _acFont24B_1_00A0          00fc75b0     F24B_1.obj
 0003:009b45c8       _acFont24B_1_00A1          00fc75c8     F24B_1.obj
 0003:009b45e0       _acFont24B_1_00A2          00fc75e0     F24B_1.obj
 0003:009b4610       _acFont24B_1_00A3          00fc7610     F24B_1.obj
 0003:009b4640       _acFont24B_1_00A4          00fc7640     F24B_1.obj
 0003:009b4670       _acFont24B_1_00A5          00fc7670     F24B_1.obj
 0003:009b46a0       _acFont24B_1_00A6          00fc76a0     F24B_1.obj
 0003:009b46b8       _acFont24B_1_00A7          00fc76b8     F24B_1.obj
 0003:009b46e8       _acFont24B_1_00A8          00fc76e8     F24B_1.obj
 0003:009b4700       _acFont24B_1_00A9          00fc7700     F24B_1.obj
 0003:009b4730       _acFont24B_1_00AA          00fc7730     F24B_1.obj
 0003:009b4748       _acFont24B_1_00AB          00fc7748     F24B_1.obj
 0003:009b4778       _acFont24B_1_00AC          00fc7778     F24B_1.obj
 0003:009b47a8       _acFont24B_1_00AD          00fc77a8     F24B_1.obj
 0003:009b47c0       _acFont24B_1_00AE          00fc77c0     F24B_1.obj
 0003:009b47f0       _acFont24B_1_00AF          00fc77f0     F24B_1.obj
 0003:009b4820       _acFont24B_1_00B0          00fc7820     F24B_1.obj
 0003:009b4838       _acFont24B_1_00B1          00fc7838     F24B_1.obj
 0003:009b4868       _acFont24B_1_00B2          00fc7868     F24B_1.obj
 0003:009b4880       _acFont24B_1_00B3          00fc7880     F24B_1.obj
 0003:009b4898       _acFont24B_1_00B4          00fc7898     F24B_1.obj
 0003:009b48b0       _acFont24B_1_00B5          00fc78b0     F24B_1.obj
 0003:009b48e0       _acFont24B_1_00B6          00fc78e0     F24B_1.obj
 0003:009b4910       _acFont24B_1_00B7          00fc7910     F24B_1.obj
 0003:009b4928       _acFont24B_1_00B8          00fc7928     F24B_1.obj
 0003:009b4940       _acFont24B_1_00B9          00fc7940     F24B_1.obj
 0003:009b4958       _acFont24B_1_00BA          00fc7958     F24B_1.obj
 0003:009b4970       _acFont24B_1_00BB          00fc7970     F24B_1.obj
 0003:009b49a0       _acFont24B_1_00BC          00fc79a0     F24B_1.obj
 0003:009b49e8       _acFont24B_1_00BD          00fc79e8     F24B_1.obj
 0003:009b4a30       _acFont24B_1_00BE          00fc7a30     F24B_1.obj
 0003:009b4a78       _acFont24B_1_00BF          00fc7a78     F24B_1.obj
 0003:009b4aa8       _acFont24B_1_00C0          00fc7aa8     F24B_1.obj
 0003:009b4ad8       _acFont24B_1_00C1          00fc7ad8     F24B_1.obj
 0003:009b4b08       _acFont24B_1_00C2          00fc7b08     F24B_1.obj
 0003:009b4b38       _acFont24B_1_00C3          00fc7b38     F24B_1.obj
 0003:009b4b68       _acFont24B_1_00C4          00fc7b68     F24B_1.obj
 0003:009b4b98       _acFont24B_1_00C5          00fc7b98     F24B_1.obj
 0003:009b4bc8       _acFont24B_1_00C6          00fc7bc8     F24B_1.obj
 0003:009b4c10       _acFont24B_1_00C7          00fc7c10     F24B_1.obj
 0003:009b4c40       _acFont24B_1_00C8          00fc7c40     F24B_1.obj
 0003:009b4c70       _acFont24B_1_00C9          00fc7c70     F24B_1.obj
 0003:009b4ca0       _acFont24B_1_00CA          00fc7ca0     F24B_1.obj
 0003:009b4cd0       _acFont24B_1_00CB          00fc7cd0     F24B_1.obj
 0003:009b4d00       _acFont24B_1_00CC          00fc7d00     F24B_1.obj
 0003:009b4d18       _acFont24B_1_00CD          00fc7d18     F24B_1.obj
 0003:009b4d30       _acFont24B_1_00CE          00fc7d30     F24B_1.obj
 0003:009b4d48       _acFont24B_1_00CF          00fc7d48     F24B_1.obj
 0003:009b4d60       _acFont24B_1_00D0          00fc7d60     F24B_1.obj
 0003:009b4d90       _acFont24B_1_00D1          00fc7d90     F24B_1.obj
 0003:009b4dc0       _acFont24B_1_00D2          00fc7dc0     F24B_1.obj
 0003:009b4df0       _acFont24B_1_00D3          00fc7df0     F24B_1.obj
 0003:009b4e20       _acFont24B_1_00D4          00fc7e20     F24B_1.obj
 0003:009b4e50       _acFont24B_1_00D5          00fc7e50     F24B_1.obj
 0003:009b4e80       _acFont24B_1_00D6          00fc7e80     F24B_1.obj
 0003:009b4eb0       _acFont24B_1_00D7          00fc7eb0     F24B_1.obj
 0003:009b4ee0       _acFont24B_1_00D8          00fc7ee0     F24B_1.obj
 0003:009b4f10       _acFont24B_1_00D9          00fc7f10     F24B_1.obj
 0003:009b4f40       _acFont24B_1_00DA          00fc7f40     F24B_1.obj
 0003:009b4f70       _acFont24B_1_00DB          00fc7f70     F24B_1.obj
 0003:009b4fa0       _acFont24B_1_00DC          00fc7fa0     F24B_1.obj
 0003:009b4fd0       _acFont24B_1_00DD          00fc7fd0     F24B_1.obj
 0003:009b5000       _acFont24B_1_00DE          00fc8000     F24B_1.obj
 0003:009b5030       _acFont24B_1_00DF          00fc8030     F24B_1.obj
 0003:009b5060       _acFont24B_1_00E0          00fc8060     F24B_1.obj
 0003:009b5090       _acFont24B_1_00E1          00fc8090     F24B_1.obj
 0003:009b50c0       _acFont24B_1_00E2          00fc80c0     F24B_1.obj
 0003:009b50f0       _acFont24B_1_00E3          00fc80f0     F24B_1.obj
 0003:009b5120       _acFont24B_1_00E4          00fc8120     F24B_1.obj
 0003:009b5150       _acFont24B_1_00E5          00fc8150     F24B_1.obj
 0003:009b5180       _acFont24B_1_00E6          00fc8180     F24B_1.obj
 0003:009b51c8       _acFont24B_1_00E7          00fc81c8     F24B_1.obj
 0003:009b51f8       _acFont24B_1_00E8          00fc81f8     F24B_1.obj
 0003:009b5228       _acFont24B_1_00E9          00fc8228     F24B_1.obj
 0003:009b5258       _acFont24B_1_00EA          00fc8258     F24B_1.obj
 0003:009b5288       _acFont24B_1_00EB          00fc8288     F24B_1.obj
 0003:009b52b8       _acFont24B_1_00EC          00fc82b8     F24B_1.obj
 0003:009b52d0       _acFont24B_1_00ED          00fc82d0     F24B_1.obj
 0003:009b52e8       _acFont24B_1_00EE          00fc82e8     F24B_1.obj
 0003:009b5300       _acFont24B_1_00EF          00fc8300     F24B_1.obj
 0003:009b5318       _acFont24B_1_00F0          00fc8318     F24B_1.obj
 0003:009b5348       _acFont24B_1_00F1          00fc8348     F24B_1.obj
 0003:009b5378       _acFont24B_1_00F2          00fc8378     F24B_1.obj
 0003:009b53a8       _acFont24B_1_00F3          00fc83a8     F24B_1.obj
 0003:009b53d8       _acFont24B_1_00F4          00fc83d8     F24B_1.obj
 0003:009b5408       _acFont24B_1_00F5          00fc8408     F24B_1.obj
 0003:009b5438       _acFont24B_1_00F6          00fc8438     F24B_1.obj
 0003:009b5468       _acFont24B_1_00F7          00fc8468     F24B_1.obj
 0003:009b5498       _acFont24B_1_00F8          00fc8498     F24B_1.obj
 0003:009b54c8       _acFont24B_1_00F9          00fc84c8     F24B_1.obj
 0003:009b54f8       _acFont24B_1_00FA          00fc84f8     F24B_1.obj
 0003:009b5528       _acFont24B_1_00FB          00fc8528     F24B_1.obj
 0003:009b5558       _acFont24B_1_00FC          00fc8558     F24B_1.obj
 0003:009b5588       _acFont24B_1_00FD          00fc8588     F24B_1.obj
 0003:009b55b8       _acFont24B_1_00FE          00fc85b8     F24B_1.obj
 0003:009b55e8       _acFont24B_1_00FF          00fc85e8     F24B_1.obj
 0003:009b5618       _GUI_Font24B_1_CharInfo    00fc8618     F24B_1.obj
 0003:009b5918       _GUI_Font24B_1_Prop2       00fc8918     F24B_1.obj
 0003:009b5924       _GUI_Font24B_1_Prop1       00fc8924     F24B_1.obj
 0003:009b5930       _GUI_Font24B_1             00fc8930     F24B_1.obj
 0003:009b5d48       _acFont24B_ASCII_0020      00fc8d48     F24B_ASCII.obj
 0003:009b5d60       _acFont24B_ASCII_0021      00fc8d60     F24B_ASCII.obj
 0003:009b5d78       _acFont24B_ASCII_0022      00fc8d78     F24B_ASCII.obj
 0003:009b5da8       _acFont24B_ASCII_0023      00fc8da8     F24B_ASCII.obj
 0003:009b5dd8       _acFont24B_ASCII_0024      00fc8dd8     F24B_ASCII.obj
 0003:009b5e08       _acFont24B_ASCII_0025      00fc8e08     F24B_ASCII.obj
 0003:009b5e50       _acFont24B_ASCII_0026      00fc8e50     F24B_ASCII.obj
 0003:009b5e80       _acFont24B_ASCII_0027      00fc8e80     F24B_ASCII.obj
 0003:009b5e98       _acFont24B_ASCII_0028      00fc8e98     F24B_ASCII.obj
 0003:009b5eb0       _acFont24B_ASCII_0029      00fc8eb0     F24B_ASCII.obj
 0003:009b5ec8       _acFont24B_ASCII_002A      00fc8ec8     F24B_ASCII.obj
 0003:009b5ee0       _acFont24B_ASCII_002B      00fc8ee0     F24B_ASCII.obj
 0003:009b5f10       _acFont24B_ASCII_002C      00fc8f10     F24B_ASCII.obj
 0003:009b5f28       _acFont24B_ASCII_002D      00fc8f28     F24B_ASCII.obj
 0003:009b5f40       _acFont24B_ASCII_002E      00fc8f40     F24B_ASCII.obj
 0003:009b5f58       _acFont24B_ASCII_002F      00fc8f58     F24B_ASCII.obj
 0003:009b5f70       _acFont24B_ASCII_0030      00fc8f70     F24B_ASCII.obj
 0003:009b5fa0       _acFont24B_ASCII_0031      00fc8fa0     F24B_ASCII.obj
 0003:009b5fd0       _acFont24B_ASCII_0032      00fc8fd0     F24B_ASCII.obj
 0003:009b6000       _acFont24B_ASCII_0033      00fc9000     F24B_ASCII.obj
 0003:009b6030       _acFont24B_ASCII_0034      00fc9030     F24B_ASCII.obj
 0003:009b6060       _acFont24B_ASCII_0035      00fc9060     F24B_ASCII.obj
 0003:009b6090       _acFont24B_ASCII_0036      00fc9090     F24B_ASCII.obj
 0003:009b60c0       _acFont24B_ASCII_0037      00fc90c0     F24B_ASCII.obj
 0003:009b60f0       _acFont24B_ASCII_0038      00fc90f0     F24B_ASCII.obj
 0003:009b6120       _acFont24B_ASCII_0039      00fc9120     F24B_ASCII.obj
 0003:009b6150       _acFont24B_ASCII_003A      00fc9150     F24B_ASCII.obj
 0003:009b6168       _acFont24B_ASCII_003B      00fc9168     F24B_ASCII.obj
 0003:009b6180       _acFont24B_ASCII_003C      00fc9180     F24B_ASCII.obj
 0003:009b61b0       _acFont24B_ASCII_003D      00fc91b0     F24B_ASCII.obj
 0003:009b61e0       _acFont24B_ASCII_003E      00fc91e0     F24B_ASCII.obj
 0003:009b6210       _acFont24B_ASCII_003F      00fc9210     F24B_ASCII.obj
 0003:009b6240       _acFont24B_ASCII_0040      00fc9240     F24B_ASCII.obj
 0003:009b6288       _acFont24B_ASCII_0041      00fc9288     F24B_ASCII.obj
 0003:009b62b8       _acFont24B_ASCII_0042      00fc92b8     F24B_ASCII.obj
 0003:009b62e8       _acFont24B_ASCII_0043      00fc92e8     F24B_ASCII.obj
 0003:009b6318       _acFont24B_ASCII_0044      00fc9318     F24B_ASCII.obj
 0003:009b6348       _acFont24B_ASCII_0045      00fc9348     F24B_ASCII.obj
 0003:009b6378       _acFont24B_ASCII_0046      00fc9378     F24B_ASCII.obj
 0003:009b63a8       _acFont24B_ASCII_0047      00fc93a8     F24B_ASCII.obj
 0003:009b63d8       _acFont24B_ASCII_0048      00fc93d8     F24B_ASCII.obj
 0003:009b6408       _acFont24B_ASCII_0049      00fc9408     F24B_ASCII.obj
 0003:009b6420       _acFont24B_ASCII_004A      00fc9420     F24B_ASCII.obj
 0003:009b6450       _acFont24B_ASCII_004B      00fc9450     F24B_ASCII.obj
 0003:009b6480       _acFont24B_ASCII_004C      00fc9480     F24B_ASCII.obj
 0003:009b64b0       _acFont24B_ASCII_004D      00fc94b0     F24B_ASCII.obj
 0003:009b64f8       _acFont24B_ASCII_004E      00fc94f8     F24B_ASCII.obj
 0003:009b6528       _acFont24B_ASCII_004F      00fc9528     F24B_ASCII.obj
 0003:009b6558       _acFont24B_ASCII_0050      00fc9558     F24B_ASCII.obj
 0003:009b6588       _acFont24B_ASCII_0051      00fc9588     F24B_ASCII.obj
 0003:009b65b8       _acFont24B_ASCII_0052      00fc95b8     F24B_ASCII.obj
 0003:009b65e8       _acFont24B_ASCII_0053      00fc95e8     F24B_ASCII.obj
 0003:009b6618       _acFont24B_ASCII_0054      00fc9618     F24B_ASCII.obj
 0003:009b6648       _acFont24B_ASCII_0055      00fc9648     F24B_ASCII.obj
 0003:009b6678       _acFont24B_ASCII_0056      00fc9678     F24B_ASCII.obj
 0003:009b66a8       _acFont24B_ASCII_0057      00fc96a8     F24B_ASCII.obj
 0003:009b66f0       _acFont24B_ASCII_0058      00fc96f0     F24B_ASCII.obj
 0003:009b6720       _acFont24B_ASCII_0059      00fc9720     F24B_ASCII.obj
 0003:009b6750       _acFont24B_ASCII_005A      00fc9750     F24B_ASCII.obj
 0003:009b6780       _acFont24B_ASCII_005B      00fc9780     F24B_ASCII.obj
 0003:009b6798       _acFont24B_ASCII_005C      00fc9798     F24B_ASCII.obj
 0003:009b67b0       _acFont24B_ASCII_005D      00fc97b0     F24B_ASCII.obj
 0003:009b67c8       _acFont24B_ASCII_005E      00fc97c8     F24B_ASCII.obj
 0003:009b67f8       _acFont24B_ASCII_005F      00fc97f8     F24B_ASCII.obj
 0003:009b6828       _acFont24B_ASCII_0060      00fc9828     F24B_ASCII.obj
 0003:009b6840       _acFont24B_ASCII_0061      00fc9840     F24B_ASCII.obj
 0003:009b6870       _acFont24B_ASCII_0062      00fc9870     F24B_ASCII.obj
 0003:009b68a0       _acFont24B_ASCII_0063      00fc98a0     F24B_ASCII.obj
 0003:009b68d0       _acFont24B_ASCII_0064      00fc98d0     F24B_ASCII.obj
 0003:009b6900       _acFont24B_ASCII_0065      00fc9900     F24B_ASCII.obj
 0003:009b6930       _acFont24B_ASCII_0066      00fc9930     F24B_ASCII.obj
 0003:009b6948       _acFont24B_ASCII_0067      00fc9948     F24B_ASCII.obj
 0003:009b6978       _acFont24B_ASCII_0068      00fc9978     F24B_ASCII.obj
 0003:009b69a8       _acFont24B_ASCII_0069      00fc99a8     F24B_ASCII.obj
 0003:009b69c0       _acFont24B_ASCII_006A      00fc99c0     F24B_ASCII.obj
 0003:009b69d8       _acFont24B_ASCII_006B      00fc99d8     F24B_ASCII.obj
 0003:009b6a08       _acFont24B_ASCII_006C      00fc9a08     F24B_ASCII.obj
 0003:009b6a20       _acFont24B_ASCII_006D      00fc9a20     F24B_ASCII.obj
 0003:009b6a68       _acFont24B_ASCII_006E      00fc9a68     F24B_ASCII.obj
 0003:009b6a98       _acFont24B_ASCII_006F      00fc9a98     F24B_ASCII.obj
 0003:009b6ac8       _acFont24B_ASCII_0070      00fc9ac8     F24B_ASCII.obj
 0003:009b6af8       _acFont24B_ASCII_0071      00fc9af8     F24B_ASCII.obj
 0003:009b6b28       _acFont24B_ASCII_0072      00fc9b28     F24B_ASCII.obj
 0003:009b6b40       _acFont24B_ASCII_0073      00fc9b40     F24B_ASCII.obj
 0003:009b6b70       _acFont24B_ASCII_0074      00fc9b70     F24B_ASCII.obj
 0003:009b6b88       _acFont24B_ASCII_0075      00fc9b88     F24B_ASCII.obj
 0003:009b6bb8       _acFont24B_ASCII_0076      00fc9bb8     F24B_ASCII.obj
 0003:009b6be8       _acFont24B_ASCII_0077      00fc9be8     F24B_ASCII.obj
 0003:009b6c18       _acFont24B_ASCII_0078      00fc9c18     F24B_ASCII.obj
 0003:009b6c48       _acFont24B_ASCII_0079      00fc9c48     F24B_ASCII.obj
 0003:009b6c78       _acFont24B_ASCII_007A      00fc9c78     F24B_ASCII.obj
 0003:009b6ca8       _acFont24B_ASCII_007B      00fc9ca8     F24B_ASCII.obj
 0003:009b6cc0       _acFont24B_ASCII_007C      00fc9cc0     F24B_ASCII.obj
 0003:009b6cd8       _acFont24B_ASCII_007D      00fc9cd8     F24B_ASCII.obj
 0003:009b6cf0       _acFont24B_ASCII_007E      00fc9cf0     F24B_ASCII.obj
 0003:009b6d20       _GUI_Font24B_ASCII_CharInfo 00fc9d20     F24B_ASCII.obj
 0003:009b7018       _GUI_Font24B_ASCII_Prop1   00fca018     F24B_ASCII.obj
 0003:009b7024       _GUI_Font24B_ASCII         00fca024     F24B_ASCII.obj
 0003:009b7418       _acFont24_1_00A0           00fca418     F24_1.obj
 0003:009b7430       _acFont24_1_00A1           00fca430     F24_1.obj
 0003:009b7448       _acFont24_1_00A2           00fca448     F24_1.obj
 0003:009b7478       _acFont24_1_00A3           00fca478     F24_1.obj
 0003:009b74a8       _acFont24_1_00A4           00fca4a8     F24_1.obj
 0003:009b74d8       _acFont24_1_00A5           00fca4d8     F24_1.obj
 0003:009b7508       _acFont24_1_00A6           00fca508     F24_1.obj
 0003:009b7520       _acFont24_1_00A7           00fca520     F24_1.obj
 0003:009b7550       _acFont24_1_00A8           00fca550     F24_1.obj
 0003:009b7568       _acFont24_1_00A9           00fca568     F24_1.obj
 0003:009b7598       _acFont24_1_00AA           00fca598     F24_1.obj
 0003:009b75b0       _acFont24_1_00AB           00fca5b0     F24_1.obj
 0003:009b75e0       _acFont24_1_00AC           00fca5e0     F24_1.obj
 0003:009b7610       _acFont24_1_00AD           00fca610     F24_1.obj
 0003:009b7628       _acFont24_1_00AE           00fca628     F24_1.obj
 0003:009b7658       _acFont24_1_00AF           00fca658     F24_1.obj
 0003:009b7688       _acFont24_1_00B0           00fca688     F24_1.obj
 0003:009b76a0       _acFont24_1_00B1           00fca6a0     F24_1.obj
 0003:009b76d0       _acFont24_1_00B2           00fca6d0     F24_1.obj
 0003:009b76e8       _acFont24_1_00B3           00fca6e8     F24_1.obj
 0003:009b7700       _acFont24_1_00B4           00fca700     F24_1.obj
 0003:009b7718       _acFont24_1_00B5           00fca718     F24_1.obj
 0003:009b7748       _acFont24_1_00B6           00fca748     F24_1.obj
 0003:009b7778       _acFont24_1_00B7           00fca778     F24_1.obj
 0003:009b7790       _acFont24_1_00B8           00fca790     F24_1.obj
 0003:009b77a8       _acFont24_1_00B9           00fca7a8     F24_1.obj
 0003:009b77c0       _acFont24_1_00BA           00fca7c0     F24_1.obj
 0003:009b77d8       _acFont24_1_00BB           00fca7d8     F24_1.obj
 0003:009b7808       _acFont24_1_00BC           00fca808     F24_1.obj
 0003:009b7850       _acFont24_1_00BD           00fca850     F24_1.obj
 0003:009b7898       _acFont24_1_00BE           00fca898     F24_1.obj
 0003:009b78e0       _acFont24_1_00BF           00fca8e0     F24_1.obj
 0003:009b7910       _acFont24_1_00C0           00fca910     F24_1.obj
 0003:009b7940       _acFont24_1_00C1           00fca940     F24_1.obj
 0003:009b7970       _acFont24_1_00C2           00fca970     F24_1.obj
 0003:009b79a0       _acFont24_1_00C3           00fca9a0     F24_1.obj
 0003:009b79d0       _acFont24_1_00C4           00fca9d0     F24_1.obj
 0003:009b7a00       _acFont24_1_00C5           00fcaa00     F24_1.obj
 0003:009b7a30       _acFont24_1_00C6           00fcaa30     F24_1.obj
 0003:009b7a78       _acFont24_1_00C7           00fcaa78     F24_1.obj
 0003:009b7aa8       _acFont24_1_00C8           00fcaaa8     F24_1.obj
 0003:009b7ad8       _acFont24_1_00C9           00fcaad8     F24_1.obj
 0003:009b7b08       _acFont24_1_00CA           00fcab08     F24_1.obj
 0003:009b7b38       _acFont24_1_00CB           00fcab38     F24_1.obj
 0003:009b7b68       _acFont24_1_00CC           00fcab68     F24_1.obj
 0003:009b7b80       _acFont24_1_00CD           00fcab80     F24_1.obj
 0003:009b7b98       _acFont24_1_00CE           00fcab98     F24_1.obj
 0003:009b7bb0       _acFont24_1_00CF           00fcabb0     F24_1.obj
 0003:009b7bc8       _acFont24_1_00D0           00fcabc8     F24_1.obj
 0003:009b7bf8       _acFont24_1_00D1           00fcabf8     F24_1.obj
 0003:009b7c28       _acFont24_1_00D2           00fcac28     F24_1.obj
 0003:009b7c58       _acFont24_1_00D3           00fcac58     F24_1.obj
 0003:009b7c88       _acFont24_1_00D4           00fcac88     F24_1.obj
 0003:009b7cb8       _acFont24_1_00D5           00fcacb8     F24_1.obj
 0003:009b7ce8       _acFont24_1_00D6           00fcace8     F24_1.obj
 0003:009b7d18       _acFont24_1_00D7           00fcad18     F24_1.obj
 0003:009b7d48       _acFont24_1_00D8           00fcad48     F24_1.obj
 0003:009b7d78       _acFont24_1_00D9           00fcad78     F24_1.obj
 0003:009b7da8       _acFont24_1_00DA           00fcada8     F24_1.obj
 0003:009b7dd8       _acFont24_1_00DB           00fcadd8     F24_1.obj
 0003:009b7e08       _acFont24_1_00DC           00fcae08     F24_1.obj
 0003:009b7e38       _acFont24_1_00DD           00fcae38     F24_1.obj
 0003:009b7e68       _acFont24_1_00DE           00fcae68     F24_1.obj
 0003:009b7e98       _acFont24_1_00DF           00fcae98     F24_1.obj
 0003:009b7ec8       _acFont24_1_00E0           00fcaec8     F24_1.obj
 0003:009b7ef8       _acFont24_1_00E1           00fcaef8     F24_1.obj
 0003:009b7f28       _acFont24_1_00E2           00fcaf28     F24_1.obj
 0003:009b7f58       _acFont24_1_00E3           00fcaf58     F24_1.obj
 0003:009b7f88       _acFont24_1_00E4           00fcaf88     F24_1.obj
 0003:009b7fb8       _acFont24_1_00E5           00fcafb8     F24_1.obj
 0003:009b7fe8       _acFont24_1_00E6           00fcafe8     F24_1.obj
 0003:009b8030       _acFont24_1_00E7           00fcb030     F24_1.obj
 0003:009b8060       _acFont24_1_00E8           00fcb060     F24_1.obj
 0003:009b8090       _acFont24_1_00E9           00fcb090     F24_1.obj
 0003:009b80c0       _acFont24_1_00EA           00fcb0c0     F24_1.obj
 0003:009b80f0       _acFont24_1_00EB           00fcb0f0     F24_1.obj
 0003:009b8120       _acFont24_1_00EC           00fcb120     F24_1.obj
 0003:009b8138       _acFont24_1_00ED           00fcb138     F24_1.obj
 0003:009b8150       _acFont24_1_00EE           00fcb150     F24_1.obj
 0003:009b8168       _acFont24_1_00EF           00fcb168     F24_1.obj
 0003:009b8180       _acFont24_1_00F0           00fcb180     F24_1.obj
 0003:009b81b0       _acFont24_1_00F1           00fcb1b0     F24_1.obj
 0003:009b81e0       _acFont24_1_00F2           00fcb1e0     F24_1.obj
 0003:009b8210       _acFont24_1_00F3           00fcb210     F24_1.obj
 0003:009b8240       _acFont24_1_00F4           00fcb240     F24_1.obj
 0003:009b8270       _acFont24_1_00F5           00fcb270     F24_1.obj
 0003:009b82a0       _acFont24_1_00F6           00fcb2a0     F24_1.obj
 0003:009b82d0       _acFont24_1_00F7           00fcb2d0     F24_1.obj
 0003:009b8300       _acFont24_1_00F8           00fcb300     F24_1.obj
 0003:009b8330       _acFont24_1_00F9           00fcb330     F24_1.obj
 0003:009b8360       _acFont24_1_00FA           00fcb360     F24_1.obj
 0003:009b8390       _acFont24_1_00FB           00fcb390     F24_1.obj
 0003:009b83c0       _acFont24_1_00FC           00fcb3c0     F24_1.obj
 0003:009b83f0       _acFont24_1_00FD           00fcb3f0     F24_1.obj
 0003:009b8420       _acFont24_1_00FE           00fcb420     F24_1.obj
 0003:009b8450       _acFont24_1_00FF           00fcb450     F24_1.obj
 0003:009b8480       _GUI_Font24_1_CharInfo     00fcb480     F24_1.obj
 0003:009b8780       _GUI_Font24_1_Prop2        00fcb780     F24_1.obj
 0003:009b878c       _GUI_Font24_1_Prop1        00fcb78c     F24_1.obj
 0003:009b8798       _GUI_Font24_1              00fcb798     F24_1.obj
 0003:009b8bb0       _acFont24_ASCII_0020       00fcbbb0     F24_ASCII.obj
 0003:009b8bc8       _acFont24_ASCII_0021       00fcbbc8     F24_ASCII.obj
 0003:009b8be0       _acFont24_ASCII_0022       00fcbbe0     F24_ASCII.obj
 0003:009b8bf8       _acFont24_ASCII_0023       00fcbbf8     F24_ASCII.obj
 0003:009b8c28       _acFont24_ASCII_0024       00fcbc28     F24_ASCII.obj
 0003:009b8c58       _acFont24_ASCII_0025       00fcbc58     F24_ASCII.obj
 0003:009b8ca0       _acFont24_ASCII_0026       00fcbca0     F24_ASCII.obj
 0003:009b8cd0       _acFont24_ASCII_0027       00fcbcd0     F24_ASCII.obj
 0003:009b8ce8       _acFont24_ASCII_0028       00fcbce8     F24_ASCII.obj
 0003:009b8d00       _acFont24_ASCII_0029       00fcbd00     F24_ASCII.obj
 0003:009b8d18       _acFont24_ASCII_002A       00fcbd18     F24_ASCII.obj
 0003:009b8d30       _acFont24_ASCII_002B       00fcbd30     F24_ASCII.obj
 0003:009b8d60       _acFont24_ASCII_002C       00fcbd60     F24_ASCII.obj
 0003:009b8d78       _acFont24_ASCII_002D       00fcbd78     F24_ASCII.obj
 0003:009b8d90       _acFont24_ASCII_002E       00fcbd90     F24_ASCII.obj
 0003:009b8da8       _acFont24_ASCII_002F       00fcbda8     F24_ASCII.obj
 0003:009b8dc0       _acFont24_ASCII_0030       00fcbdc0     F24_ASCII.obj
 0003:009b8df0       _acFont24_ASCII_0031       00fcbdf0     F24_ASCII.obj
 0003:009b8e20       _acFont24_ASCII_0032       00fcbe20     F24_ASCII.obj
 0003:009b8e50       _acFont24_ASCII_0033       00fcbe50     F24_ASCII.obj
 0003:009b8e80       _acFont24_ASCII_0034       00fcbe80     F24_ASCII.obj
 0003:009b8eb0       _acFont24_ASCII_0035       00fcbeb0     F24_ASCII.obj
 0003:009b8ee0       _acFont24_ASCII_0036       00fcbee0     F24_ASCII.obj
 0003:009b8f10       _acFont24_ASCII_0037       00fcbf10     F24_ASCII.obj
 0003:009b8f40       _acFont24_ASCII_0038       00fcbf40     F24_ASCII.obj
 0003:009b8f70       _acFont24_ASCII_0039       00fcbf70     F24_ASCII.obj
 0003:009b8fa0       _acFont24_ASCII_003A       00fcbfa0     F24_ASCII.obj
 0003:009b8fb8       _acFont24_ASCII_003B       00fcbfb8     F24_ASCII.obj
 0003:009b8fd0       _acFont24_ASCII_003C       00fcbfd0     F24_ASCII.obj
 0003:009b9000       _acFont24_ASCII_003D       00fcc000     F24_ASCII.obj
 0003:009b9030       _acFont24_ASCII_003E       00fcc030     F24_ASCII.obj
 0003:009b9060       _acFont24_ASCII_003F       00fcc060     F24_ASCII.obj
 0003:009b9090       _acFont24_ASCII_0040       00fcc090     F24_ASCII.obj
 0003:009b90d8       _acFont24_ASCII_0041       00fcc0d8     F24_ASCII.obj
 0003:009b9108       _acFont24_ASCII_0042       00fcc108     F24_ASCII.obj
 0003:009b9138       _acFont24_ASCII_0043       00fcc138     F24_ASCII.obj
 0003:009b9168       _acFont24_ASCII_0044       00fcc168     F24_ASCII.obj
 0003:009b9198       _acFont24_ASCII_0045       00fcc198     F24_ASCII.obj
 0003:009b91c8       _acFont24_ASCII_0046       00fcc1c8     F24_ASCII.obj
 0003:009b91f8       _acFont24_ASCII_0047       00fcc1f8     F24_ASCII.obj
 0003:009b9228       _acFont24_ASCII_0048       00fcc228     F24_ASCII.obj
 0003:009b9258       _acFont24_ASCII_0049       00fcc258     F24_ASCII.obj
 0003:009b9270       _acFont24_ASCII_004A       00fcc270     F24_ASCII.obj
 0003:009b92a0       _acFont24_ASCII_004B       00fcc2a0     F24_ASCII.obj
 0003:009b92d0       _acFont24_ASCII_004C       00fcc2d0     F24_ASCII.obj
 0003:009b9300       _acFont24_ASCII_004D       00fcc300     F24_ASCII.obj
 0003:009b9348       _acFont24_ASCII_004E       00fcc348     F24_ASCII.obj
 0003:009b9378       _acFont24_ASCII_004F       00fcc378     F24_ASCII.obj
 0003:009b93a8       _acFont24_ASCII_0050       00fcc3a8     F24_ASCII.obj
 0003:009b93d8       _acFont24_ASCII_0051       00fcc3d8     F24_ASCII.obj
 0003:009b9408       _acFont24_ASCII_0052       00fcc408     F24_ASCII.obj
 0003:009b9438       _acFont24_ASCII_0053       00fcc438     F24_ASCII.obj
 0003:009b9468       _acFont24_ASCII_0054       00fcc468     F24_ASCII.obj
 0003:009b9498       _acFont24_ASCII_0055       00fcc498     F24_ASCII.obj
 0003:009b94c8       _acFont24_ASCII_0056       00fcc4c8     F24_ASCII.obj
 0003:009b94f8       _acFont24_ASCII_0057       00fcc4f8     F24_ASCII.obj
 0003:009b9540       _acFont24_ASCII_0058       00fcc540     F24_ASCII.obj
 0003:009b9570       _acFont24_ASCII_0059       00fcc570     F24_ASCII.obj
 0003:009b95a0       _acFont24_ASCII_005A       00fcc5a0     F24_ASCII.obj
 0003:009b95d0       _acFont24_ASCII_005B       00fcc5d0     F24_ASCII.obj
 0003:009b95e8       _acFont24_ASCII_005C       00fcc5e8     F24_ASCII.obj
 0003:009b9600       _acFont24_ASCII_005D       00fcc600     F24_ASCII.obj
 0003:009b9618       _acFont24_ASCII_005E       00fcc618     F24_ASCII.obj
 0003:009b9630       _acFont24_ASCII_005F       00fcc630     F24_ASCII.obj
 0003:009b9660       _acFont24_ASCII_0060       00fcc660     F24_ASCII.obj
 0003:009b9678       _acFont24_ASCII_0061       00fcc678     F24_ASCII.obj
 0003:009b96a8       _acFont24_ASCII_0062       00fcc6a8     F24_ASCII.obj
 0003:009b96d8       _acFont24_ASCII_0063       00fcc6d8     F24_ASCII.obj
 0003:009b9708       _acFont24_ASCII_0064       00fcc708     F24_ASCII.obj
 0003:009b9738       _acFont24_ASCII_0065       00fcc738     F24_ASCII.obj
 0003:009b9768       _acFont24_ASCII_0066       00fcc768     F24_ASCII.obj
 0003:009b9780       _acFont24_ASCII_0067       00fcc780     F24_ASCII.obj
 0003:009b97b0       _acFont24_ASCII_0068       00fcc7b0     F24_ASCII.obj
 0003:009b97e0       _acFont24_ASCII_0069       00fcc7e0     F24_ASCII.obj
 0003:009b97f8       _acFont24_ASCII_006A       00fcc7f8     F24_ASCII.obj
 0003:009b9810       _acFont24_ASCII_006B       00fcc810     F24_ASCII.obj
 0003:009b9840       _acFont24_ASCII_006C       00fcc840     F24_ASCII.obj
 0003:009b9858       _acFont24_ASCII_006D       00fcc858     F24_ASCII.obj
 0003:009b9888       _acFont24_ASCII_006E       00fcc888     F24_ASCII.obj
 0003:009b98b8       _acFont24_ASCII_006F       00fcc8b8     F24_ASCII.obj
 0003:009b98e8       _acFont24_ASCII_0070       00fcc8e8     F24_ASCII.obj
 0003:009b9918       _acFont24_ASCII_0071       00fcc918     F24_ASCII.obj
 0003:009b9948       _acFont24_ASCII_0072       00fcc948     F24_ASCII.obj
 0003:009b9960       _acFont24_ASCII_0073       00fcc960     F24_ASCII.obj
 0003:009b9990       _acFont24_ASCII_0074       00fcc990     F24_ASCII.obj
 0003:009b99a8       _acFont24_ASCII_0075       00fcc9a8     F24_ASCII.obj
 0003:009b99d8       _acFont24_ASCII_0076       00fcc9d8     F24_ASCII.obj
 0003:009b9a08       _acFont24_ASCII_0077       00fcca08     F24_ASCII.obj
 0003:009b9a38       _acFont24_ASCII_0078       00fcca38     F24_ASCII.obj
 0003:009b9a68       _acFont24_ASCII_0079       00fcca68     F24_ASCII.obj
 0003:009b9a98       _acFont24_ASCII_007A       00fcca98     F24_ASCII.obj
 0003:009b9ac8       _acFont24_ASCII_007B       00fccac8     F24_ASCII.obj
 0003:009b9ae0       _acFont24_ASCII_007C       00fccae0     F24_ASCII.obj
 0003:009b9af8       _acFont24_ASCII_007D       00fccaf8     F24_ASCII.obj
 0003:009b9b10       _acFont24_ASCII_007E       00fccb10     F24_ASCII.obj
 0003:009b9b40       _GUI_Font24_ASCII_CharInfo 00fccb40     F24_ASCII.obj
 0003:009b9e38       _GUI_Font24_ASCII_Prop1    00fcce38     F24_ASCII.obj
 0003:009b9e44       _GUI_Font24_ASCII          00fcce44     F24_ASCII.obj
 0003:009ba228       _acFont32B_1_00A0          00fcd228     F32B_1.obj
 0003:009ba248       _acFont32B_1_00A1          00fcd248     F32B_1.obj
 0003:009ba268       _acFont32B_1_00A2          00fcd268     F32B_1.obj
 0003:009ba2a8       _acFont32B_1_00A3          00fcd2a8     F32B_1.obj
 0003:009ba2e8       _acFont32B_1_00A4          00fcd2e8     F32B_1.obj
 0003:009ba328       _acFont32B_1_00A5          00fcd328     F32B_1.obj
 0003:009ba368       _acFont32B_1_00A6          00fcd368     F32B_1.obj
 0003:009ba388       _acFont32B_1_00A7          00fcd388     F32B_1.obj
 0003:009ba3c8       _acFont32B_1_00A8          00fcd3c8     F32B_1.obj
 0003:009ba408       _acFont32B_1_00A9          00fcd408     F32B_1.obj
 0003:009ba468       _acFont32B_1_00AA          00fcd468     F32B_1.obj
 0003:009ba4a8       _acFont32B_1_00AB          00fcd4a8     F32B_1.obj
 0003:009ba4e8       _acFont32B_1_00AC          00fcd4e8     F32B_1.obj
 0003:009ba528       _acFont32B_1_00AD          00fcd528     F32B_1.obj
 0003:009ba568       _acFont32B_1_00AE          00fcd568     F32B_1.obj
 0003:009ba5c8       _acFont32B_1_00AF          00fcd5c8     F32B_1.obj
 0003:009ba608       _acFont32B_1_00B0          00fcd608     F32B_1.obj
 0003:009ba648       _acFont32B_1_00B1          00fcd648     F32B_1.obj
 0003:009ba688       _acFont32B_1_00B2          00fcd688     F32B_1.obj
 0003:009ba6c8       _acFont32B_1_00B3          00fcd6c8     F32B_1.obj
 0003:009ba708       _acFont32B_1_00B4          00fcd708     F32B_1.obj
 0003:009ba748       _acFont32B_1_00B5          00fcd748     F32B_1.obj
 0003:009ba788       _acFont32B_1_00B6          00fcd788     F32B_1.obj
 0003:009ba7c8       _acFont32B_1_00B7          00fcd7c8     F32B_1.obj
 0003:009ba7e8       _acFont32B_1_00B8          00fcd7e8     F32B_1.obj
 0003:009ba828       _acFont32B_1_00B9          00fcd828     F32B_1.obj
 0003:009ba868       _acFont32B_1_00BA          00fcd868     F32B_1.obj
 0003:009ba8a8       _acFont32B_1_00BB          00fcd8a8     F32B_1.obj
 0003:009ba8e8       _acFont32B_1_00BC          00fcd8e8     F32B_1.obj
 0003:009ba948       _acFont32B_1_00BD          00fcd948     F32B_1.obj
 0003:009ba9a8       _acFont32B_1_00BE          00fcd9a8     F32B_1.obj
 0003:009baa08       _acFont32B_1_00BF          00fcda08     F32B_1.obj
 0003:009baa68       _acFont32B_1_00C0          00fcda68     F32B_1.obj
 0003:009baac8       _acFont32B_1_00C1          00fcdac8     F32B_1.obj
 0003:009bab28       _acFont32B_1_00C2          00fcdb28     F32B_1.obj
 0003:009bab88       _acFont32B_1_00C3          00fcdb88     F32B_1.obj
 0003:009babe8       _acFont32B_1_00C4          00fcdbe8     F32B_1.obj
 0003:009bac48       _acFont32B_1_00C5          00fcdc48     F32B_1.obj
 0003:009baca8       _acFont32B_1_00C6          00fcdca8     F32B_1.obj
 0003:009bad28       _acFont32B_1_00C7          00fcdd28     F32B_1.obj
 0003:009bad88       _acFont32B_1_00C8          00fcdd88     F32B_1.obj
 0003:009bade8       _acFont32B_1_00C9          00fcdde8     F32B_1.obj
 0003:009bae48       _acFont32B_1_00CA          00fcde48     F32B_1.obj
 0003:009baea8       _acFont32B_1_00CB          00fcdea8     F32B_1.obj
 0003:009baf08       _acFont32B_1_00CC          00fcdf08     F32B_1.obj
 0003:009baf28       _acFont32B_1_00CD          00fcdf28     F32B_1.obj
 0003:009baf48       _acFont32B_1_00CE          00fcdf48     F32B_1.obj
 0003:009baf68       _acFont32B_1_00CF          00fcdf68     F32B_1.obj
 0003:009baf88       _acFont32B_1_00D0          00fcdf88     F32B_1.obj
 0003:009bafe8       _acFont32B_1_00D1          00fcdfe8     F32B_1.obj
 0003:009bb048       _acFont32B_1_00D2          00fce048     F32B_1.obj
 0003:009bb0a8       _acFont32B_1_00D3          00fce0a8     F32B_1.obj
 0003:009bb108       _acFont32B_1_00D4          00fce108     F32B_1.obj
 0003:009bb168       _acFont32B_1_00D5          00fce168     F32B_1.obj
 0003:009bb1c8       _acFont32B_1_00D6          00fce1c8     F32B_1.obj
 0003:009bb228       _acFont32B_1_00D7          00fce228     F32B_1.obj
 0003:009bb268       _acFont32B_1_00D8          00fce268     F32B_1.obj
 0003:009bb2c8       _acFont32B_1_00D9          00fce2c8     F32B_1.obj
 0003:009bb328       _acFont32B_1_00DA          00fce328     F32B_1.obj
 0003:009bb388       _acFont32B_1_00DB          00fce388     F32B_1.obj
 0003:009bb3e8       _acFont32B_1_00DC          00fce3e8     F32B_1.obj
 0003:009bb448       _acFont32B_1_00DD          00fce448     F32B_1.obj
 0003:009bb4a8       _acFont32B_1_00DE          00fce4a8     F32B_1.obj
 0003:009bb508       _acFont32B_1_00DF          00fce508     F32B_1.obj
 0003:009bb568       _acFont32B_1_00E0          00fce568     F32B_1.obj
 0003:009bb5a8       _acFont32B_1_00E1          00fce5a8     F32B_1.obj
 0003:009bb5e8       _acFont32B_1_00E2          00fce5e8     F32B_1.obj
 0003:009bb628       _acFont32B_1_00E3          00fce628     F32B_1.obj
 0003:009bb668       _acFont32B_1_00E4          00fce668     F32B_1.obj
 0003:009bb6a8       _acFont32B_1_00E5          00fce6a8     F32B_1.obj
 0003:009bb6e8       _acFont32B_1_00E6          00fce6e8     F32B_1.obj
 0003:009bb748       _acFont32B_1_00E7          00fce748     F32B_1.obj
 0003:009bb788       _acFont32B_1_00E8          00fce788     F32B_1.obj
 0003:009bb7c8       _acFont32B_1_00E9          00fce7c8     F32B_1.obj
 0003:009bb808       _acFont32B_1_00EA          00fce808     F32B_1.obj
 0003:009bb848       _acFont32B_1_00EB          00fce848     F32B_1.obj
 0003:009bb888       _acFont32B_1_00EC          00fce888     F32B_1.obj
 0003:009bb8a8       _acFont32B_1_00ED          00fce8a8     F32B_1.obj
 0003:009bb8c8       _acFont32B_1_00EE          00fce8c8     F32B_1.obj
 0003:009bb8e8       _acFont32B_1_00EF          00fce8e8     F32B_1.obj
 0003:009bb908       _acFont32B_1_00F0          00fce908     F32B_1.obj
 0003:009bb968       _acFont32B_1_00F1          00fce968     F32B_1.obj
 0003:009bb9c8       _acFont32B_1_00F2          00fce9c8     F32B_1.obj
 0003:009bba28       _acFont32B_1_00F3          00fcea28     F32B_1.obj
 0003:009bba88       _acFont32B_1_00F4          00fcea88     F32B_1.obj
 0003:009bbae8       _acFont32B_1_00F5          00fceae8     F32B_1.obj
 0003:009bbb48       _acFont32B_1_00F6          00fceb48     F32B_1.obj
 0003:009bbba8       _acFont32B_1_00F7          00fceba8     F32B_1.obj
 0003:009bbbe8       _acFont32B_1_00F8          00fcebe8     F32B_1.obj
 0003:009bbc48       _acFont32B_1_00F9          00fcec48     F32B_1.obj
 0003:009bbca8       _acFont32B_1_00FA          00fceca8     F32B_1.obj
 0003:009bbd08       _acFont32B_1_00FB          00fced08     F32B_1.obj
 0003:009bbd68       _acFont32B_1_00FC          00fced68     F32B_1.obj
 0003:009bbdc8       _acFont32B_1_00FD          00fcedc8     F32B_1.obj
 0003:009bbe08       _acFont32B_1_00FE          00fcee08     F32B_1.obj
 0003:009bbe68       _acFont32B_1_00FF          00fcee68     F32B_1.obj
 0003:009bbea8       _GUI_Font32B_1_CharInfo    00fceea8     F32B_1.obj
 0003:009bc1a8       _GUI_Font32B_1_Prop2       00fcf1a8     F32B_1.obj
 0003:009bc1b4       _GUI_Font32B_1_Prop1       00fcf1b4     F32B_1.obj
 0003:009bc1c0       _GUI_Font32B_1             00fcf1c0     F32B_1.obj
 0003:009bc840       _acFont32B_ASCII_0020      00fcf840     F32B_ASCII.obj
 0003:009bc860       _acFont32B_ASCII_0021      00fcf860     F32B_ASCII.obj
 0003:009bc880       _acFont32B_ASCII_0022      00fcf880     F32B_ASCII.obj
 0003:009bc8c0       _acFont32B_ASCII_0023      00fcf8c0     F32B_ASCII.obj
 0003:009bc900       _acFont32B_ASCII_0024      00fcf900     F32B_ASCII.obj
 0003:009bc940       _acFont32B_ASCII_0025      00fcf940     F32B_ASCII.obj
 0003:009bc9a0       _acFont32B_ASCII_0026      00fcf9a0     F32B_ASCII.obj
 0003:009bca00       _acFont32B_ASCII_0027      00fcfa00     F32B_ASCII.obj
 0003:009bca20       _acFont32B_ASCII_0028      00fcfa20     F32B_ASCII.obj
 0003:009bca60       _acFont32B_ASCII_0029      00fcfa60     F32B_ASCII.obj
 0003:009bcaa0       _acFont32B_ASCII_002A      00fcfaa0     F32B_ASCII.obj
 0003:009bcae0       _acFont32B_ASCII_002B      00fcfae0     F32B_ASCII.obj
 0003:009bcb20       _acFont32B_ASCII_002C      00fcfb20     F32B_ASCII.obj
 0003:009bcb40       _acFont32B_ASCII_002D      00fcfb40     F32B_ASCII.obj
 0003:009bcb80       _acFont32B_ASCII_002E      00fcfb80     F32B_ASCII.obj
 0003:009bcba0       _acFont32B_ASCII_002F      00fcfba0     F32B_ASCII.obj
 0003:009bcbc0       _acFont32B_ASCII_0030      00fcfbc0     F32B_ASCII.obj
 0003:009bcc00       _acFont32B_ASCII_0031      00fcfc00     F32B_ASCII.obj
 0003:009bcc40       _acFont32B_ASCII_0032      00fcfc40     F32B_ASCII.obj
 0003:009bcc80       _acFont32B_ASCII_0033      00fcfc80     F32B_ASCII.obj
 0003:009bccc0       _acFont32B_ASCII_0034      00fcfcc0     F32B_ASCII.obj
 0003:009bcd00       _acFont32B_ASCII_0035      00fcfd00     F32B_ASCII.obj
 0003:009bcd40       _acFont32B_ASCII_0036      00fcfd40     F32B_ASCII.obj
 0003:009bcd80       _acFont32B_ASCII_0037      00fcfd80     F32B_ASCII.obj
 0003:009bcdc0       _acFont32B_ASCII_0038      00fcfdc0     F32B_ASCII.obj
 0003:009bce00       _acFont32B_ASCII_0039      00fcfe00     F32B_ASCII.obj
 0003:009bce40       _acFont32B_ASCII_003A      00fcfe40     F32B_ASCII.obj
 0003:009bce80       _acFont32B_ASCII_003B      00fcfe80     F32B_ASCII.obj
 0003:009bcec0       _acFont32B_ASCII_003C      00fcfec0     F32B_ASCII.obj
 0003:009bcf00       _acFont32B_ASCII_003D      00fcff00     F32B_ASCII.obj
 0003:009bcf40       _acFont32B_ASCII_003E      00fcff40     F32B_ASCII.obj
 0003:009bcf80       _acFont32B_ASCII_003F      00fcff80     F32B_ASCII.obj
 0003:009bcfe0       _acFont32B_ASCII_0040      00fcffe0     F32B_ASCII.obj
 0003:009bd060       _acFont32B_ASCII_0041      00fd0060     F32B_ASCII.obj
 0003:009bd0c0       _acFont32B_ASCII_0042      00fd00c0     F32B_ASCII.obj
 0003:009bd120       _acFont32B_ASCII_0043      00fd0120     F32B_ASCII.obj
 0003:009bd180       _acFont32B_ASCII_0044      00fd0180     F32B_ASCII.obj
 0003:009bd1e0       _acFont32B_ASCII_0045      00fd01e0     F32B_ASCII.obj
 0003:009bd240       _acFont32B_ASCII_0046      00fd0240     F32B_ASCII.obj
 0003:009bd2a0       _acFont32B_ASCII_0047      00fd02a0     F32B_ASCII.obj
 0003:009bd300       _acFont32B_ASCII_0048      00fd0300     F32B_ASCII.obj
 0003:009bd360       _acFont32B_ASCII_0049      00fd0360     F32B_ASCII.obj
 0003:009bd380       _acFont32B_ASCII_004A      00fd0380     F32B_ASCII.obj
 0003:009bd3c0       _acFont32B_ASCII_004B      00fd03c0     F32B_ASCII.obj
 0003:009bd420       _acFont32B_ASCII_004C      00fd0420     F32B_ASCII.obj
 0003:009bd480       _acFont32B_ASCII_004D      00fd0480     F32B_ASCII.obj
 0003:009bd4e0       _acFont32B_ASCII_004E      00fd04e0     F32B_ASCII.obj
 0003:009bd540       _acFont32B_ASCII_004F      00fd0540     F32B_ASCII.obj
 0003:009bd5a0       _acFont32B_ASCII_0050      00fd05a0     F32B_ASCII.obj
 0003:009bd600       _acFont32B_ASCII_0051      00fd0600     F32B_ASCII.obj
 0003:009bd660       _acFont32B_ASCII_0052      00fd0660     F32B_ASCII.obj
 0003:009bd6c0       _acFont32B_ASCII_0053      00fd06c0     F32B_ASCII.obj
 0003:009bd720       _acFont32B_ASCII_0054      00fd0720     F32B_ASCII.obj
 0003:009bd780       _acFont32B_ASCII_0055      00fd0780     F32B_ASCII.obj
 0003:009bd7e0       _acFont32B_ASCII_0056      00fd07e0     F32B_ASCII.obj
 0003:009bd840       _acFont32B_ASCII_0057      00fd0840     F32B_ASCII.obj
 0003:009bd8c0       _acFont32B_ASCII_0058      00fd08c0     F32B_ASCII.obj
 0003:009bd920       _acFont32B_ASCII_0059      00fd0920     F32B_ASCII.obj
 0003:009bd980       _acFont32B_ASCII_005A      00fd0980     F32B_ASCII.obj
 0003:009bd9e0       _acFont32B_ASCII_005B      00fd09e0     F32B_ASCII.obj
 0003:009bda20       _acFont32B_ASCII_005C      00fd0a20     F32B_ASCII.obj
 0003:009bda40       _acFont32B_ASCII_005D      00fd0a40     F32B_ASCII.obj
 0003:009bda80       _acFont32B_ASCII_005E      00fd0a80     F32B_ASCII.obj
 0003:009bdac0       _acFont32B_ASCII_005F      00fd0ac0     F32B_ASCII.obj
 0003:009bdb00       _acFont32B_ASCII_0060      00fd0b00     F32B_ASCII.obj
 0003:009bdb40       _acFont32B_ASCII_0061      00fd0b40     F32B_ASCII.obj
 0003:009bdb80       _acFont32B_ASCII_0062      00fd0b80     F32B_ASCII.obj
 0003:009bdbe0       _acFont32B_ASCII_0063      00fd0be0     F32B_ASCII.obj
 0003:009bdc20       _acFont32B_ASCII_0064      00fd0c20     F32B_ASCII.obj
 0003:009bdc80       _acFont32B_ASCII_0065      00fd0c80     F32B_ASCII.obj
 0003:009bdcc0       _acFont32B_ASCII_0066      00fd0cc0     F32B_ASCII.obj
 0003:009bdd00       _acFont32B_ASCII_0067      00fd0d00     F32B_ASCII.obj
 0003:009bdd60       _acFont32B_ASCII_0068      00fd0d60     F32B_ASCII.obj
 0003:009bddc0       _acFont32B_ASCII_0069      00fd0dc0     F32B_ASCII.obj
 0003:009bdde0       _acFont32B_ASCII_006A      00fd0de0     F32B_ASCII.obj
 0003:009bde00       _acFont32B_ASCII_006B      00fd0e00     F32B_ASCII.obj
 0003:009bde40       _acFont32B_ASCII_006C      00fd0e40     F32B_ASCII.obj
 0003:009bde60       _acFont32B_ASCII_006D      00fd0e60     F32B_ASCII.obj
 0003:009bdee0       _acFont32B_ASCII_006E      00fd0ee0     F32B_ASCII.obj
 0003:009bdf40       _acFont32B_ASCII_006F      00fd0f40     F32B_ASCII.obj
 0003:009bdfa0       _acFont32B_ASCII_0070      00fd0fa0     F32B_ASCII.obj
 0003:009be000       _acFont32B_ASCII_0071      00fd1000     F32B_ASCII.obj
 0003:009be060       _acFont32B_ASCII_0072      00fd1060     F32B_ASCII.obj
 0003:009be0a0       _acFont32B_ASCII_0073      00fd10a0     F32B_ASCII.obj
 0003:009be0e0       _acFont32B_ASCII_0074      00fd10e0     F32B_ASCII.obj
 0003:009be120       _acFont32B_ASCII_0075      00fd1120     F32B_ASCII.obj
 0003:009be180       _acFont32B_ASCII_0076      00fd1180     F32B_ASCII.obj
 0003:009be1c0       _acFont32B_ASCII_0077      00fd11c0     F32B_ASCII.obj
 0003:009be220       _acFont32B_ASCII_0078      00fd1220     F32B_ASCII.obj
 0003:009be260       _acFont32B_ASCII_0079      00fd1260     F32B_ASCII.obj
 0003:009be2a0       _acFont32B_ASCII_007A      00fd12a0     F32B_ASCII.obj
 0003:009be2e0       _acFont32B_ASCII_007B      00fd12e0     F32B_ASCII.obj
 0003:009be320       _acFont32B_ASCII_007C      00fd1320     F32B_ASCII.obj
 0003:009be340       _acFont32B_ASCII_007D      00fd1340     F32B_ASCII.obj
 0003:009be380       _acFont32B_ASCII_007E      00fd1380     F32B_ASCII.obj
 0003:009be3c0       _GUI_Font32B_ASCII_CharInfo 00fd13c0     F32B_ASCII.obj
 0003:009be6b8       _GUI_Font32B_ASCII_Prop1   00fd16b8     F32B_ASCII.obj
 0003:009be6c4       _GUI_Font32B_ASCII         00fd16c4     F32B_ASCII.obj
 0003:009bed10       _acFont32_1_00A0           00fd1d10     F32_1.obj
 0003:009bed30       _acFont32_1_00A1           00fd1d30     F32_1.obj
 0003:009bed50       _acFont32_1_00A2           00fd1d50     F32_1.obj
 0003:009bed90       _acFont32_1_00A3           00fd1d90     F32_1.obj
 0003:009bedd0       _acFont32_1_00A4           00fd1dd0     F32_1.obj
 0003:009bee10       _acFont32_1_00A5           00fd1e10     F32_1.obj
 0003:009bee50       _acFont32_1_00A6           00fd1e50     F32_1.obj
 0003:009bee70       _acFont32_1_00A7           00fd1e70     F32_1.obj
 0003:009beeb0       _acFont32_1_00A8           00fd1eb0     F32_1.obj
 0003:009beef0       _acFont32_1_00A9           00fd1ef0     F32_1.obj
 0003:009bef50       _acFont32_1_00AA           00fd1f50     F32_1.obj
 0003:009bef90       _acFont32_1_00AB           00fd1f90     F32_1.obj
 0003:009befd0       _acFont32_1_00AC           00fd1fd0     F32_1.obj
 0003:009bf010       _acFont32_1_00AD           00fd2010     F32_1.obj
 0003:009bf050       _acFont32_1_00AE           00fd2050     F32_1.obj
 0003:009bf0b0       _acFont32_1_00AF           00fd20b0     F32_1.obj
 0003:009bf0f0       _acFont32_1_00B0           00fd20f0     F32_1.obj
 0003:009bf130       _acFont32_1_00B1           00fd2130     F32_1.obj
 0003:009bf170       _acFont32_1_00B2           00fd2170     F32_1.obj
 0003:009bf1b0       _acFont32_1_00B3           00fd21b0     F32_1.obj
 0003:009bf1f0       _acFont32_1_00B4           00fd21f0     F32_1.obj
 0003:009bf230       _acFont32_1_00B5           00fd2230     F32_1.obj
 0003:009bf270       _acFont32_1_00B6           00fd2270     F32_1.obj
 0003:009bf2b0       _acFont32_1_00B7           00fd22b0     F32_1.obj
 0003:009bf2d0       _acFont32_1_00B8           00fd22d0     F32_1.obj
 0003:009bf310       _acFont32_1_00B9           00fd2310     F32_1.obj
 0003:009bf350       _acFont32_1_00BA           00fd2350     F32_1.obj
 0003:009bf390       _acFont32_1_00BB           00fd2390     F32_1.obj
 0003:009bf3d0       _acFont32_1_00BC           00fd23d0     F32_1.obj
 0003:009bf430       _acFont32_1_00BD           00fd2430     F32_1.obj
 0003:009bf490       _acFont32_1_00BE           00fd2490     F32_1.obj
 0003:009bf4f0       _acFont32_1_00BF           00fd24f0     F32_1.obj
 0003:009bf550       _acFont32_1_00C0           00fd2550     F32_1.obj
 0003:009bf5b0       _acFont32_1_00C1           00fd25b0     F32_1.obj
 0003:009bf610       _acFont32_1_00C2           00fd2610     F32_1.obj
 0003:009bf670       _acFont32_1_00C3           00fd2670     F32_1.obj
 0003:009bf6d0       _acFont32_1_00C4           00fd26d0     F32_1.obj
 0003:009bf730       _acFont32_1_00C5           00fd2730     F32_1.obj
 0003:009bf790       _acFont32_1_00C6           00fd2790     F32_1.obj
 0003:009bf810       _acFont32_1_00C7           00fd2810     F32_1.obj
 0003:009bf870       _acFont32_1_00C8           00fd2870     F32_1.obj
 0003:009bf8d0       _acFont32_1_00C9           00fd28d0     F32_1.obj
 0003:009bf930       _acFont32_1_00CA           00fd2930     F32_1.obj
 0003:009bf990       _acFont32_1_00CB           00fd2990     F32_1.obj
 0003:009bf9f0       _acFont32_1_00CC           00fd29f0     F32_1.obj
 0003:009bfa10       _acFont32_1_00CD           00fd2a10     F32_1.obj
 0003:009bfa30       _acFont32_1_00CE           00fd2a30     F32_1.obj
 0003:009bfa50       _acFont32_1_00CF           00fd2a50     F32_1.obj
 0003:009bfa70       _acFont32_1_00D0           00fd2a70     F32_1.obj
 0003:009bfad0       _acFont32_1_00D1           00fd2ad0     F32_1.obj
 0003:009bfb30       _acFont32_1_00D2           00fd2b30     F32_1.obj
 0003:009bfb90       _acFont32_1_00D3           00fd2b90     F32_1.obj
 0003:009bfbf0       _acFont32_1_00D4           00fd2bf0     F32_1.obj
 0003:009bfc50       _acFont32_1_00D5           00fd2c50     F32_1.obj
 0003:009bfcb0       _acFont32_1_00D6           00fd2cb0     F32_1.obj
 0003:009bfd10       _acFont32_1_00D7           00fd2d10     F32_1.obj
 0003:009bfd50       _acFont32_1_00D8           00fd2d50     F32_1.obj
 0003:009bfdb0       _acFont32_1_00D9           00fd2db0     F32_1.obj
 0003:009bfe10       _acFont32_1_00DA           00fd2e10     F32_1.obj
 0003:009bfe70       _acFont32_1_00DB           00fd2e70     F32_1.obj
 0003:009bfed0       _acFont32_1_00DC           00fd2ed0     F32_1.obj
 0003:009bff30       _acFont32_1_00DD           00fd2f30     F32_1.obj
 0003:009bff90       _acFont32_1_00DE           00fd2f90     F32_1.obj
 0003:009bfff0       _acFont32_1_00DF           00fd2ff0     F32_1.obj
 0003:009c0050       _acFont32_1_00E0           00fd3050     F32_1.obj
 0003:009c0090       _acFont32_1_00E1           00fd3090     F32_1.obj
 0003:009c00d0       _acFont32_1_00E2           00fd30d0     F32_1.obj
 0003:009c0110       _acFont32_1_00E3           00fd3110     F32_1.obj
 0003:009c0150       _acFont32_1_00E4           00fd3150     F32_1.obj
 0003:009c0190       _acFont32_1_00E5           00fd3190     F32_1.obj
 0003:009c01d0       _acFont32_1_00E6           00fd31d0     F32_1.obj
 0003:009c0230       _acFont32_1_00E7           00fd3230     F32_1.obj
 0003:009c0270       _acFont32_1_00E8           00fd3270     F32_1.obj
 0003:009c02b0       _acFont32_1_00E9           00fd32b0     F32_1.obj
 0003:009c02f0       _acFont32_1_00EA           00fd32f0     F32_1.obj
 0003:009c0330       _acFont32_1_00EB           00fd3330     F32_1.obj
 0003:009c0370       _acFont32_1_00EC           00fd3370     F32_1.obj
 0003:009c0390       _acFont32_1_00ED           00fd3390     F32_1.obj
 0003:009c03b0       _acFont32_1_00EE           00fd33b0     F32_1.obj
 0003:009c03d0       _acFont32_1_00EF           00fd33d0     F32_1.obj
 0003:009c03f0       _acFont32_1_00F0           00fd33f0     F32_1.obj
 0003:009c0430       _acFont32_1_00F1           00fd3430     F32_1.obj
 0003:009c0470       _acFont32_1_00F2           00fd3470     F32_1.obj
 0003:009c04b0       _acFont32_1_00F3           00fd34b0     F32_1.obj
 0003:009c04f0       _acFont32_1_00F4           00fd34f0     F32_1.obj
 0003:009c0530       _acFont32_1_00F5           00fd3530     F32_1.obj
 0003:009c0570       _acFont32_1_00F6           00fd3570     F32_1.obj
 0003:009c05b0       _acFont32_1_00F7           00fd35b0     F32_1.obj
 0003:009c05f0       _acFont32_1_00F8           00fd35f0     F32_1.obj
 0003:009c0650       _acFont32_1_00F9           00fd3650     F32_1.obj
 0003:009c0690       _acFont32_1_00FA           00fd3690     F32_1.obj
 0003:009c06d0       _acFont32_1_00FB           00fd36d0     F32_1.obj
 0003:009c0710       _acFont32_1_00FC           00fd3710     F32_1.obj
 0003:009c0750       _acFont32_1_00FD           00fd3750     F32_1.obj
 0003:009c0790       _acFont32_1_00FE           00fd3790     F32_1.obj
 0003:009c07d0       _acFont32_1_00FF           00fd37d0     F32_1.obj
 0003:009c0810       _GUI_Font32_1_CharInfo     00fd3810     F32_1.obj
 0003:009c0b10       _GUI_Font32_1_Prop2        00fd3b10     F32_1.obj
 0003:009c0b1c       _GUI_Font32_1_Prop1        00fd3b1c     F32_1.obj
 0003:009c0b28       _GUI_Font32_1              00fd3b28     F32_1.obj
 0003:009c1158       _acFont32_ASCII_0020       00fd4158     F32_ASCII.obj
 0003:009c1178       _acFont32_ASCII_0021       00fd4178     F32_ASCII.obj
 0003:009c1198       _acFont32_ASCII_0022       00fd4198     F32_ASCII.obj
 0003:009c11d8       _acFont32_ASCII_0023       00fd41d8     F32_ASCII.obj
 0003:009c1218       _acFont32_ASCII_0024       00fd4218     F32_ASCII.obj
 0003:009c1258       _acFont32_ASCII_0025       00fd4258     F32_ASCII.obj
 0003:009c12b8       _acFont32_ASCII_0026       00fd42b8     F32_ASCII.obj
 0003:009c1318       _acFont32_ASCII_0027       00fd4318     F32_ASCII.obj
 0003:009c1338       _acFont32_ASCII_0028       00fd4338     F32_ASCII.obj
 0003:009c1378       _acFont32_ASCII_0029       00fd4378     F32_ASCII.obj
 0003:009c13b8       _acFont32_ASCII_002A       00fd43b8     F32_ASCII.obj
 0003:009c13f8       _acFont32_ASCII_002B       00fd43f8     F32_ASCII.obj
 0003:009c1438       _acFont32_ASCII_002C       00fd4438     F32_ASCII.obj
 0003:009c1458       _acFont32_ASCII_002D       00fd4458     F32_ASCII.obj
 0003:009c1498       _acFont32_ASCII_002E       00fd4498     F32_ASCII.obj
 0003:009c14b8       _acFont32_ASCII_002F       00fd44b8     F32_ASCII.obj
 0003:009c14d8       _acFont32_ASCII_0030       00fd44d8     F32_ASCII.obj
 0003:009c1518       _acFont32_ASCII_0031       00fd4518     F32_ASCII.obj
 0003:009c1558       _acFont32_ASCII_0032       00fd4558     F32_ASCII.obj
 0003:009c1598       _acFont32_ASCII_0033       00fd4598     F32_ASCII.obj
 0003:009c15d8       _acFont32_ASCII_0034       00fd45d8     F32_ASCII.obj
 0003:009c1618       _acFont32_ASCII_0035       00fd4618     F32_ASCII.obj
 0003:009c1658       _acFont32_ASCII_0036       00fd4658     F32_ASCII.obj
 0003:009c1698       _acFont32_ASCII_0037       00fd4698     F32_ASCII.obj
 0003:009c16d8       _acFont32_ASCII_0038       00fd46d8     F32_ASCII.obj
 0003:009c1718       _acFont32_ASCII_0039       00fd4718     F32_ASCII.obj
 0003:009c1758       _acFont32_ASCII_003A       00fd4758     F32_ASCII.obj
 0003:009c1778       _acFont32_ASCII_003B       00fd4778     F32_ASCII.obj
 0003:009c1798       _acFont32_ASCII_003C       00fd4798     F32_ASCII.obj
 0003:009c17d8       _acFont32_ASCII_003D       00fd47d8     F32_ASCII.obj
 0003:009c1818       _acFont32_ASCII_003E       00fd4818     F32_ASCII.obj
 0003:009c1858       _acFont32_ASCII_003F       00fd4858     F32_ASCII.obj
 0003:009c1898       _acFont32_ASCII_0040       00fd4898     F32_ASCII.obj
 0003:009c1918       _acFont32_ASCII_0041       00fd4918     F32_ASCII.obj
 0003:009c1978       _acFont32_ASCII_0042       00fd4978     F32_ASCII.obj
 0003:009c19d8       _acFont32_ASCII_0043       00fd49d8     F32_ASCII.obj
 0003:009c1a38       _acFont32_ASCII_0044       00fd4a38     F32_ASCII.obj
 0003:009c1a98       _acFont32_ASCII_0045       00fd4a98     F32_ASCII.obj
 0003:009c1af8       _acFont32_ASCII_0046       00fd4af8     F32_ASCII.obj
 0003:009c1b58       _acFont32_ASCII_0047       00fd4b58     F32_ASCII.obj
 0003:009c1bb8       _acFont32_ASCII_0048       00fd4bb8     F32_ASCII.obj
 0003:009c1c18       _acFont32_ASCII_0049       00fd4c18     F32_ASCII.obj
 0003:009c1c38       _acFont32_ASCII_004A       00fd4c38     F32_ASCII.obj
 0003:009c1c78       _acFont32_ASCII_004B       00fd4c78     F32_ASCII.obj
 0003:009c1cd8       _acFont32_ASCII_004C       00fd4cd8     F32_ASCII.obj
 0003:009c1d18       _acFont32_ASCII_004D       00fd4d18     F32_ASCII.obj
 0003:009c1d78       _acFont32_ASCII_004E       00fd4d78     F32_ASCII.obj
 0003:009c1dd8       _acFont32_ASCII_004F       00fd4dd8     F32_ASCII.obj
 0003:009c1e38       _acFont32_ASCII_0050       00fd4e38     F32_ASCII.obj
 0003:009c1e98       _acFont32_ASCII_0051       00fd4e98     F32_ASCII.obj
 0003:009c1ef8       _acFont32_ASCII_0052       00fd4ef8     F32_ASCII.obj
 0003:009c1f58       _acFont32_ASCII_0053       00fd4f58     F32_ASCII.obj
 0003:009c1fb8       _acFont32_ASCII_0054       00fd4fb8     F32_ASCII.obj
 0003:009c1ff8       _acFont32_ASCII_0055       00fd4ff8     F32_ASCII.obj
 0003:009c2058       _acFont32_ASCII_0056       00fd5058     F32_ASCII.obj
 0003:009c20b8       _acFont32_ASCII_0057       00fd50b8     F32_ASCII.obj
 0003:009c2138       _acFont32_ASCII_0058       00fd5138     F32_ASCII.obj
 0003:009c2198       _acFont32_ASCII_0059       00fd5198     F32_ASCII.obj
 0003:009c21f8       _acFont32_ASCII_005A       00fd51f8     F32_ASCII.obj
 0003:009c2258       _acFont32_ASCII_005B       00fd5258     F32_ASCII.obj
 0003:009c2278       _acFont32_ASCII_005C       00fd5278     F32_ASCII.obj
 0003:009c2298       _acFont32_ASCII_005D       00fd5298     F32_ASCII.obj
 0003:009c22b8       _acFont32_ASCII_005E       00fd52b8     F32_ASCII.obj
 0003:009c22f8       _acFont32_ASCII_005F       00fd52f8     F32_ASCII.obj
 0003:009c2338       _acFont32_ASCII_0060       00fd5338     F32_ASCII.obj
 0003:009c2378       _acFont32_ASCII_0061       00fd5378     F32_ASCII.obj
 0003:009c23b8       _acFont32_ASCII_0062       00fd53b8     F32_ASCII.obj
 0003:009c23f8       _acFont32_ASCII_0063       00fd53f8     F32_ASCII.obj
 0003:009c2438       _acFont32_ASCII_0064       00fd5438     F32_ASCII.obj
 0003:009c2478       _acFont32_ASCII_0065       00fd5478     F32_ASCII.obj
 0003:009c24b8       _acFont32_ASCII_0066       00fd54b8     F32_ASCII.obj
 0003:009c24d8       _acFont32_ASCII_0067       00fd54d8     F32_ASCII.obj
 0003:009c2518       _acFont32_ASCII_0068       00fd5518     F32_ASCII.obj
 0003:009c2558       _acFont32_ASCII_0069       00fd5558     F32_ASCII.obj
 0003:009c2578       _acFont32_ASCII_006A       00fd5578     F32_ASCII.obj
 0003:009c2598       _acFont32_ASCII_006B       00fd5598     F32_ASCII.obj
 0003:009c25d8       _acFont32_ASCII_006C       00fd55d8     F32_ASCII.obj
 0003:009c25f8       _acFont32_ASCII_006D       00fd55f8     F32_ASCII.obj
 0003:009c2658       _acFont32_ASCII_006E       00fd5658     F32_ASCII.obj
 0003:009c2698       _acFont32_ASCII_006F       00fd5698     F32_ASCII.obj
 0003:009c26d8       _acFont32_ASCII_0070       00fd56d8     F32_ASCII.obj
 0003:009c2718       _acFont32_ASCII_0071       00fd5718     F32_ASCII.obj
 0003:009c2758       _acFont32_ASCII_0072       00fd5758     F32_ASCII.obj
 0003:009c2798       _acFont32_ASCII_0073       00fd5798     F32_ASCII.obj
 0003:009c27d8       _acFont32_ASCII_0074       00fd57d8     F32_ASCII.obj
 0003:009c27f8       _acFont32_ASCII_0075       00fd57f8     F32_ASCII.obj
 0003:009c2838       _acFont32_ASCII_0076       00fd5838     F32_ASCII.obj
 0003:009c2878       _acFont32_ASCII_0077       00fd5878     F32_ASCII.obj
 0003:009c28d8       _acFont32_ASCII_0078       00fd58d8     F32_ASCII.obj
 0003:009c2918       _acFont32_ASCII_0079       00fd5918     F32_ASCII.obj
 0003:009c2958       _acFont32_ASCII_007A       00fd5958     F32_ASCII.obj
 0003:009c2998       _acFont32_ASCII_007B       00fd5998     F32_ASCII.obj
 0003:009c29d8       _acFont32_ASCII_007C       00fd59d8     F32_ASCII.obj
 0003:009c29f8       _acFont32_ASCII_007D       00fd59f8     F32_ASCII.obj
 0003:009c2a38       _acFont32_ASCII_007E       00fd5a38     F32_ASCII.obj
 0003:009c2a78       _GUI_Font32_ASCII_CharInfo 00fd5a78     F32_ASCII.obj
 0003:009c2d70       _GUI_Font32_ASCII_Prop1    00fd5d70     F32_ASCII.obj
 0003:009c2d7c       _GUI_Font32_ASCII          00fd5d7c     F32_ASCII.obj
 0003:009c3348       _acFont4x6                 00fd6348     F4x6.obj
 0003:009c3584       _FontMono4x6               00fd6584     F4x6.obj
 0003:009c3598       _GUI_Font4x6               00fd6598     F4x6.obj
 0003:009c3640       _GUI_acFont6x8             00fd6640     F6x8.obj
 0003:009c3b58       _GUI_F6x8_TL8859_1         00fd6b58     F6x8.obj
 0003:009c3d18       _GUI_F6x8_TI8859_1         00fd6d18     F6x8.obj
 0003:009c3d20       _GUI_F6x8_Mono             00fd6d20     F6x8.obj
 0003:009c3d34       _GUI_Font6x8               00fd6d34     F6x8.obj
 0003:009c3d58       _GUI_Font6x9               00fd6d58     F6x8.obj
 0003:009c3ef0       _acF6x8_1_160              00fd6ef0     F6x8_1.obj
 0003:009c3ef8       _acF6x8_1_161              00fd6ef8     F6x8_1.obj
 0003:009c3f00       _acF6x8_1_162              00fd6f00     F6x8_1.obj
 0003:009c3f08       _acF6x8_1_163              00fd6f08     F6x8_1.obj
 0003:009c3f10       _acF6x8_1_164              00fd6f10     F6x8_1.obj
 0003:009c3f18       _acF6x8_1_165              00fd6f18     F6x8_1.obj
 0003:009c3f20       _acF6x8_1_166              00fd6f20     F6x8_1.obj
 0003:009c3f28       _acF6x8_1_167              00fd6f28     F6x8_1.obj
 0003:009c3f30       _acF6x8_1_168              00fd6f30     F6x8_1.obj
 0003:009c3f38       _acF6x8_1_169              00fd6f38     F6x8_1.obj
 0003:009c3f40       _acF6x8_1_170              00fd6f40     F6x8_1.obj
 0003:009c3f48       _acF6x8_1_171              00fd6f48     F6x8_1.obj
 0003:009c3f50       _acF6x8_1_172              00fd6f50     F6x8_1.obj
 0003:009c3f58       _acF6x8_1_173              00fd6f58     F6x8_1.obj
 0003:009c3f60       _acF6x8_1_174              00fd6f60     F6x8_1.obj
 0003:009c3f68       _acF6x8_1_175              00fd6f68     F6x8_1.obj
 0003:009c3f70       _acF6x8_1_176              00fd6f70     F6x8_1.obj
 0003:009c3f78       _acF6x8_1_177              00fd6f78     F6x8_1.obj
 0003:009c3f80       _acF6x8_1_178              00fd6f80     F6x8_1.obj
 0003:009c3f88       _acF6x8_1_179              00fd6f88     F6x8_1.obj
 0003:009c3f90       _acF6x8_1_180              00fd6f90     F6x8_1.obj
 0003:009c3f98       _acF6x8_1_181              00fd6f98     F6x8_1.obj
 0003:009c3fa0       _acF6x8_1_182              00fd6fa0     F6x8_1.obj
 0003:009c3fa8       _acF6x8_1_183              00fd6fa8     F6x8_1.obj
 0003:009c3fb0       _acF6x8_1_184              00fd6fb0     F6x8_1.obj
 0003:009c3fb8       _acF6x8_1_185              00fd6fb8     F6x8_1.obj
 0003:009c3fc0       _acF6x8_1_186              00fd6fc0     F6x8_1.obj
 0003:009c3fc8       _acF6x8_1_187              00fd6fc8     F6x8_1.obj
 0003:009c3fd0       _acF6x8_1_188              00fd6fd0     F6x8_1.obj
 0003:009c3fd8       _acF6x8_1_189              00fd6fd8     F6x8_1.obj
 0003:009c3fe0       _acF6x8_1_190              00fd6fe0     F6x8_1.obj
 0003:009c3fe8       _acF6x8_1_191              00fd6fe8     F6x8_1.obj
 0003:009c3ff0       _acF6x8_1_192              00fd6ff0     F6x8_1.obj
 0003:009c3ff8       _acF6x8_1_193              00fd6ff8     F6x8_1.obj
 0003:009c4000       _acF6x8_1_194              00fd7000     F6x8_1.obj
 0003:009c4008       _acF6x8_1_195              00fd7008     F6x8_1.obj
 0003:009c4010       _acF6x8_1_196              00fd7010     F6x8_1.obj
 0003:009c4018       _acF6x8_1_197              00fd7018     F6x8_1.obj
 0003:009c4020       _acF6x8_1_198              00fd7020     F6x8_1.obj
 0003:009c4028       _acF6x8_1_199              00fd7028     F6x8_1.obj
 0003:009c4030       _acF6x8_1_200              00fd7030     F6x8_1.obj
 0003:009c4038       _acF6x8_1_201              00fd7038     F6x8_1.obj
 0003:009c4040       _acF6x8_1_202              00fd7040     F6x8_1.obj
 0003:009c4048       _acF6x8_1_203              00fd7048     F6x8_1.obj
 0003:009c4050       _acF6x8_1_204              00fd7050     F6x8_1.obj
 0003:009c4058       _acF6x8_1_205              00fd7058     F6x8_1.obj
 0003:009c4060       _acF6x8_1_206              00fd7060     F6x8_1.obj
 0003:009c4068       _acF6x8_1_207              00fd7068     F6x8_1.obj
 0003:009c4070       _acF6x8_1_208              00fd7070     F6x8_1.obj
 0003:009c4078       _acF6x8_1_209              00fd7078     F6x8_1.obj
 0003:009c4080       _acF6x8_1_210              00fd7080     F6x8_1.obj
 0003:009c4088       _acF6x8_1_211              00fd7088     F6x8_1.obj
 0003:009c4090       _acF6x8_1_212              00fd7090     F6x8_1.obj
 0003:009c4098       _acF6x8_1_213              00fd7098     F6x8_1.obj
 0003:009c40a0       _acF6x8_1_214              00fd70a0     F6x8_1.obj
 0003:009c40a8       _acF6x8_1_215              00fd70a8     F6x8_1.obj
 0003:009c40b0       _acF6x8_1_216              00fd70b0     F6x8_1.obj
 0003:009c40b8       _acF6x8_1_217              00fd70b8     F6x8_1.obj
 0003:009c40c0       _acF6x8_1_218              00fd70c0     F6x8_1.obj
 0003:009c40c8       _acF6x8_1_219              00fd70c8     F6x8_1.obj
 0003:009c40d0       _acF6x8_1_220              00fd70d0     F6x8_1.obj
 0003:009c40d8       _acF6x8_1_221              00fd70d8     F6x8_1.obj
 0003:009c40e0       _acF6x8_1_222              00fd70e0     F6x8_1.obj
 0003:009c40e8       _acF6x8_1_223              00fd70e8     F6x8_1.obj
 0003:009c40f0       _acF6x8_1_224              00fd70f0     F6x8_1.obj
 0003:009c40f8       _acF6x8_1_225              00fd70f8     F6x8_1.obj
 0003:009c4100       _acF6x8_1_226              00fd7100     F6x8_1.obj
 0003:009c4108       _acF6x8_1_227              00fd7108     F6x8_1.obj
 0003:009c4110       _acF6x8_1_228              00fd7110     F6x8_1.obj
 0003:009c4118       _acF6x8_1_229              00fd7118     F6x8_1.obj
 0003:009c4120       _acF6x8_1_230              00fd7120     F6x8_1.obj
 0003:009c4128       _acF6x8_1_231              00fd7128     F6x8_1.obj
 0003:009c4130       _acF6x8_1_232              00fd7130     F6x8_1.obj
 0003:009c4138       _acF6x8_1_233              00fd7138     F6x8_1.obj
 0003:009c4140       _acF6x8_1_234              00fd7140     F6x8_1.obj
 0003:009c4148       _acF6x8_1_235              00fd7148     F6x8_1.obj
 0003:009c4150       _acF6x8_1_236              00fd7150     F6x8_1.obj
 0003:009c4158       _acF6x8_1_237              00fd7158     F6x8_1.obj
 0003:009c4160       _acF6x8_1_238              00fd7160     F6x8_1.obj
 0003:009c4168       _acF6x8_1_239              00fd7168     F6x8_1.obj
 0003:009c4170       _acF6x8_1_240              00fd7170     F6x8_1.obj
 0003:009c4178       _acF6x8_1_241              00fd7178     F6x8_1.obj
 0003:009c4180       _acF6x8_1_242              00fd7180     F6x8_1.obj
 0003:009c4188       _acF6x8_1_243              00fd7188     F6x8_1.obj
 0003:009c4190       _acF6x8_1_244              00fd7190     F6x8_1.obj
 0003:009c4198       _acF6x8_1_245              00fd7198     F6x8_1.obj
 0003:009c41a0       _acF6x8_1_246              00fd71a0     F6x8_1.obj
 0003:009c41a8       _acF6x8_1_247              00fd71a8     F6x8_1.obj
 0003:009c41b0       _acF6x8_1_248              00fd71b0     F6x8_1.obj
 0003:009c41b8       _acF6x8_1_249              00fd71b8     F6x8_1.obj
 0003:009c41c0       _acF6x8_1_250              00fd71c0     F6x8_1.obj
 0003:009c41c8       _acF6x8_1_251              00fd71c8     F6x8_1.obj
 0003:009c41d0       _acF6x8_1_252              00fd71d0     F6x8_1.obj
 0003:009c41d8       _acF6x8_1_253              00fd71d8     F6x8_1.obj
 0003:009c41e0       _acF6x8_1_254              00fd71e0     F6x8_1.obj
 0003:009c41e8       _acF6x8_1_255              00fd71e8     F6x8_1.obj
 0003:009c41f0       _GUI_CharInfoF6x8_1        00fd71f0     F6x8_1.obj
 0003:009c44f0       _GUI_FontPropF6x8_1        00fd74f0     F6x8_1.obj
 0003:009c44fc       _GUI_Font6x8_1             00fd74fc     F6x8_1.obj
 0003:009c4660       _acFont6x8ASCII_0020       00fd7660     F6x8_ASCII.obj
 0003:009c4668       _acFont6x8ASCII_0021       00fd7668     F6x8_ASCII.obj
 0003:009c4670       _acFont6x8ASCII_0022       00fd7670     F6x8_ASCII.obj
 0003:009c4678       _acFont6x8ASCII_0023       00fd7678     F6x8_ASCII.obj
 0003:009c4680       _acFont6x8ASCII_0024       00fd7680     F6x8_ASCII.obj
 0003:009c4688       _acFont6x8ASCII_0025       00fd7688     F6x8_ASCII.obj
 0003:009c4690       _acFont6x8ASCII_0026       00fd7690     F6x8_ASCII.obj
 0003:009c4698       _acFont6x8ASCII_0027       00fd7698     F6x8_ASCII.obj
 0003:009c46a0       _acFont6x8ASCII_0028       00fd76a0     F6x8_ASCII.obj
 0003:009c46a8       _acFont6x8ASCII_0029       00fd76a8     F6x8_ASCII.obj
 0003:009c46b0       _acFont6x8ASCII_002A       00fd76b0     F6x8_ASCII.obj
 0003:009c46b8       _acFont6x8ASCII_002B       00fd76b8     F6x8_ASCII.obj
 0003:009c46c0       _acFont6x8ASCII_002C       00fd76c0     F6x8_ASCII.obj
 0003:009c46c8       _acFont6x8ASCII_002D       00fd76c8     F6x8_ASCII.obj
 0003:009c46d0       _acFont6x8ASCII_002E       00fd76d0     F6x8_ASCII.obj
 0003:009c46d8       _acFont6x8ASCII_002F       00fd76d8     F6x8_ASCII.obj
 0003:009c46e0       _acFont6x8ASCII_0030       00fd76e0     F6x8_ASCII.obj
 0003:009c46e8       _acFont6x8ASCII_0031       00fd76e8     F6x8_ASCII.obj
 0003:009c46f0       _acFont6x8ASCII_0032       00fd76f0     F6x8_ASCII.obj
 0003:009c46f8       _acFont6x8ASCII_0033       00fd76f8     F6x8_ASCII.obj
 0003:009c4700       _acFont6x8ASCII_0034       00fd7700     F6x8_ASCII.obj
 0003:009c4708       _acFont6x8ASCII_0035       00fd7708     F6x8_ASCII.obj
 0003:009c4710       _acFont6x8ASCII_0036       00fd7710     F6x8_ASCII.obj
 0003:009c4718       _acFont6x8ASCII_0037       00fd7718     F6x8_ASCII.obj
 0003:009c4720       _acFont6x8ASCII_0038       00fd7720     F6x8_ASCII.obj
 0003:009c4728       _acFont6x8ASCII_0039       00fd7728     F6x8_ASCII.obj
 0003:009c4730       _acFont6x8ASCII_003A       00fd7730     F6x8_ASCII.obj
 0003:009c4738       _acFont6x8ASCII_003B       00fd7738     F6x8_ASCII.obj
 0003:009c4740       _acFont6x8ASCII_003C       00fd7740     F6x8_ASCII.obj
 0003:009c4748       _acFont6x8ASCII_003D       00fd7748     F6x8_ASCII.obj
 0003:009c4750       _acFont6x8ASCII_003E       00fd7750     F6x8_ASCII.obj
 0003:009c4758       _acFont6x8ASCII_003F       00fd7758     F6x8_ASCII.obj
 0003:009c4760       _acFont6x8ASCII_0040       00fd7760     F6x8_ASCII.obj
 0003:009c4768       _acFont6x8ASCII_0041       00fd7768     F6x8_ASCII.obj
 0003:009c4770       _acFont6x8ASCII_0042       00fd7770     F6x8_ASCII.obj
 0003:009c4778       _acFont6x8ASCII_0043       00fd7778     F6x8_ASCII.obj
 0003:009c4780       _acFont6x8ASCII_0044       00fd7780     F6x8_ASCII.obj
 0003:009c4788       _acFont6x8ASCII_0045       00fd7788     F6x8_ASCII.obj
 0003:009c4790       _acFont6x8ASCII_0046       00fd7790     F6x8_ASCII.obj
 0003:009c4798       _acFont6x8ASCII_0047       00fd7798     F6x8_ASCII.obj
 0003:009c47a0       _acFont6x8ASCII_0048       00fd77a0     F6x8_ASCII.obj
 0003:009c47a8       _acFont6x8ASCII_0049       00fd77a8     F6x8_ASCII.obj
 0003:009c47b0       _acFont6x8ASCII_004A       00fd77b0     F6x8_ASCII.obj
 0003:009c47b8       _acFont6x8ASCII_004B       00fd77b8     F6x8_ASCII.obj
 0003:009c47c0       _acFont6x8ASCII_004C       00fd77c0     F6x8_ASCII.obj
 0003:009c47c8       _acFont6x8ASCII_004D       00fd77c8     F6x8_ASCII.obj
 0003:009c47d0       _acFont6x8ASCII_004E       00fd77d0     F6x8_ASCII.obj
 0003:009c47d8       _acFont6x8ASCII_004F       00fd77d8     F6x8_ASCII.obj
 0003:009c47e0       _acFont6x8ASCII_0050       00fd77e0     F6x8_ASCII.obj
 0003:009c47e8       _acFont6x8ASCII_0051       00fd77e8     F6x8_ASCII.obj
 0003:009c47f0       _acFont6x8ASCII_0052       00fd77f0     F6x8_ASCII.obj
 0003:009c47f8       _acFont6x8ASCII_0053       00fd77f8     F6x8_ASCII.obj
 0003:009c4800       _acFont6x8ASCII_0054       00fd7800     F6x8_ASCII.obj
 0003:009c4808       _acFont6x8ASCII_0055       00fd7808     F6x8_ASCII.obj
 0003:009c4810       _acFont6x8ASCII_0056       00fd7810     F6x8_ASCII.obj
 0003:009c4818       _acFont6x8ASCII_0057       00fd7818     F6x8_ASCII.obj
 0003:009c4820       _acFont6x8ASCII_0058       00fd7820     F6x8_ASCII.obj
 0003:009c4828       _acFont6x8ASCII_0059       00fd7828     F6x8_ASCII.obj
 0003:009c4830       _acFont6x8ASCII_005A       00fd7830     F6x8_ASCII.obj
 0003:009c4838       _acFont6x8ASCII_005B       00fd7838     F6x8_ASCII.obj
 0003:009c4840       _acFont6x8ASCII_005C       00fd7840     F6x8_ASCII.obj
 0003:009c4848       _acFont6x8ASCII_005D       00fd7848     F6x8_ASCII.obj
 0003:009c4850       _acFont6x8ASCII_005E       00fd7850     F6x8_ASCII.obj
 0003:009c4858       _acFont6x8ASCII_005F       00fd7858     F6x8_ASCII.obj
 0003:009c4860       _acFont6x8ASCII_0060       00fd7860     F6x8_ASCII.obj
 0003:009c4868       _acFont6x8ASCII_0061       00fd7868     F6x8_ASCII.obj
 0003:009c4870       _acFont6x8ASCII_0062       00fd7870     F6x8_ASCII.obj
 0003:009c4878       _acFont6x8ASCII_0063       00fd7878     F6x8_ASCII.obj
 0003:009c4880       _acFont6x8ASCII_0064       00fd7880     F6x8_ASCII.obj
 0003:009c4888       _acFont6x8ASCII_0065       00fd7888     F6x8_ASCII.obj
 0003:009c4890       _acFont6x8ASCII_0066       00fd7890     F6x8_ASCII.obj
 0003:009c4898       _acFont6x8ASCII_0067       00fd7898     F6x8_ASCII.obj
 0003:009c48a0       _acFont6x8ASCII_0068       00fd78a0     F6x8_ASCII.obj
 0003:009c48a8       _acFont6x8ASCII_0069       00fd78a8     F6x8_ASCII.obj
 0003:009c48b0       _acFont6x8ASCII_006A       00fd78b0     F6x8_ASCII.obj
 0003:009c48b8       _acFont6x8ASCII_006B       00fd78b8     F6x8_ASCII.obj
 0003:009c48c0       _acFont6x8ASCII_006C       00fd78c0     F6x8_ASCII.obj
 0003:009c48c8       _acFont6x8ASCII_006D       00fd78c8     F6x8_ASCII.obj
 0003:009c48d0       _acFont6x8ASCII_006E       00fd78d0     F6x8_ASCII.obj
 0003:009c48d8       _acFont6x8ASCII_006F       00fd78d8     F6x8_ASCII.obj
 0003:009c48e0       _acFont6x8ASCII_0070       00fd78e0     F6x8_ASCII.obj
 0003:009c48e8       _acFont6x8ASCII_0071       00fd78e8     F6x8_ASCII.obj
 0003:009c48f0       _acFont6x8ASCII_0072       00fd78f0     F6x8_ASCII.obj
 0003:009c48f8       _acFont6x8ASCII_0073       00fd78f8     F6x8_ASCII.obj
 0003:009c4900       _acFont6x8ASCII_0074       00fd7900     F6x8_ASCII.obj
 0003:009c4908       _acFont6x8ASCII_0075       00fd7908     F6x8_ASCII.obj
 0003:009c4910       _acFont6x8ASCII_0076       00fd7910     F6x8_ASCII.obj
 0003:009c4918       _acFont6x8ASCII_0077       00fd7918     F6x8_ASCII.obj
 0003:009c4920       _acFont6x8ASCII_0078       00fd7920     F6x8_ASCII.obj
 0003:009c4928       _acFont6x8ASCII_0079       00fd7928     F6x8_ASCII.obj
 0003:009c4930       _acFont6x8ASCII_007A       00fd7930     F6x8_ASCII.obj
 0003:009c4938       _acFont6x8ASCII_007B       00fd7938     F6x8_ASCII.obj
 0003:009c4940       _acFont6x8ASCII_007C       00fd7940     F6x8_ASCII.obj
 0003:009c4948       _acFont6x8ASCII_007D       00fd7948     F6x8_ASCII.obj
 0003:009c4950       _acFont6x8ASCII_007E       00fd7950     F6x8_ASCII.obj
 0003:009c4958       _GUI_Font6x8ASCII_CharInfo 00fd7958     F6x8_ASCII.obj
 0003:009c4c50       _GUI_Font6x8ASCII_Prop0    00fd7c50     F6x8_ASCII.obj
 0003:009c4c5c       _GUI_Font6x8_ASCII         00fd7c5c     F6x8_ASCII.obj
 0003:009c4dc0       _acFont8x10ASCII_0020      00fd7dc0     F8x10_ASCII.obj
 0003:009c4dcc       _acFont8x10ASCII_0021      00fd7dcc     F8x10_ASCII.obj
 0003:009c4dd8       _acFont8x10ASCII_0022      00fd7dd8     F8x10_ASCII.obj
 0003:009c4de4       _acFont8x10ASCII_0023      00fd7de4     F8x10_ASCII.obj
 0003:009c4df0       _acFont8x10ASCII_0024      00fd7df0     F8x10_ASCII.obj
 0003:009c4dfc       _acFont8x10ASCII_0025      00fd7dfc     F8x10_ASCII.obj
 0003:009c4e08       _acFont8x10ASCII_0026      00fd7e08     F8x10_ASCII.obj
 0003:009c4e14       _acFont8x10ASCII_0027      00fd7e14     F8x10_ASCII.obj
 0003:009c4e20       _acFont8x10ASCII_0028      00fd7e20     F8x10_ASCII.obj
 0003:009c4e2c       _acFont8x10ASCII_0029      00fd7e2c     F8x10_ASCII.obj
 0003:009c4e38       _acFont8x10ASCII_002A      00fd7e38     F8x10_ASCII.obj
 0003:009c4e44       _acFont8x10ASCII_002B      00fd7e44     F8x10_ASCII.obj
 0003:009c4e50       _acFont8x10ASCII_002C      00fd7e50     F8x10_ASCII.obj
 0003:009c4e5c       _acFont8x10ASCII_002D      00fd7e5c     F8x10_ASCII.obj
 0003:009c4e68       _acFont8x10ASCII_002E      00fd7e68     F8x10_ASCII.obj
 0003:009c4e74       _acFont8x10ASCII_002F      00fd7e74     F8x10_ASCII.obj
 0003:009c4e80       _acFont8x10ASCII_0030      00fd7e80     F8x10_ASCII.obj
 0003:009c4e8c       _acFont8x10ASCII_0031      00fd7e8c     F8x10_ASCII.obj
 0003:009c4e98       _acFont8x10ASCII_0032      00fd7e98     F8x10_ASCII.obj
 0003:009c4ea4       _acFont8x10ASCII_0033      00fd7ea4     F8x10_ASCII.obj
 0003:009c4eb0       _acFont8x10ASCII_0034      00fd7eb0     F8x10_ASCII.obj
 0003:009c4ebc       _acFont8x10ASCII_0035      00fd7ebc     F8x10_ASCII.obj
 0003:009c4ec8       _acFont8x10ASCII_0036      00fd7ec8     F8x10_ASCII.obj
 0003:009c4ed4       _acFont8x10ASCII_0037      00fd7ed4     F8x10_ASCII.obj
 0003:009c4ee0       _acFont8x10ASCII_0038      00fd7ee0     F8x10_ASCII.obj
 0003:009c4eec       _acFont8x10ASCII_0039      00fd7eec     F8x10_ASCII.obj
 0003:009c4ef8       _acFont8x10ASCII_003A      00fd7ef8     F8x10_ASCII.obj
 0003:009c4f04       _acFont8x10ASCII_003B      00fd7f04     F8x10_ASCII.obj
 0003:009c4f10       _acFont8x10ASCII_003C      00fd7f10     F8x10_ASCII.obj
 0003:009c4f1c       _acFont8x10ASCII_003D      00fd7f1c     F8x10_ASCII.obj
 0003:009c4f28       _acFont8x10ASCII_003E      00fd7f28     F8x10_ASCII.obj
 0003:009c4f34       _acFont8x10ASCII_003F      00fd7f34     F8x10_ASCII.obj
 0003:009c4f40       _acFont8x10ASCII_0040      00fd7f40     F8x10_ASCII.obj
 0003:009c4f4c       _acFont8x10ASCII_0041      00fd7f4c     F8x10_ASCII.obj
 0003:009c4f58       _acFont8x10ASCII_0042      00fd7f58     F8x10_ASCII.obj
 0003:009c4f64       _acFont8x10ASCII_0043      00fd7f64     F8x10_ASCII.obj
 0003:009c4f70       _acFont8x10ASCII_0044      00fd7f70     F8x10_ASCII.obj
 0003:009c4f7c       _acFont8x10ASCII_0045      00fd7f7c     F8x10_ASCII.obj
 0003:009c4f88       _acFont8x10ASCII_0046      00fd7f88     F8x10_ASCII.obj
 0003:009c4f94       _acFont8x10ASCII_0047      00fd7f94     F8x10_ASCII.obj
 0003:009c4fa0       _acFont8x10ASCII_0048      00fd7fa0     F8x10_ASCII.obj
 0003:009c4fac       _acFont8x10ASCII_0049      00fd7fac     F8x10_ASCII.obj
 0003:009c4fb8       _acFont8x10ASCII_004A      00fd7fb8     F8x10_ASCII.obj
 0003:009c4fc4       _acFont8x10ASCII_004B      00fd7fc4     F8x10_ASCII.obj
 0003:009c4fd0       _acFont8x10ASCII_004C      00fd7fd0     F8x10_ASCII.obj
 0003:009c4fdc       _acFont8x10ASCII_004D      00fd7fdc     F8x10_ASCII.obj
 0003:009c4fe8       _acFont8x10ASCII_004E      00fd7fe8     F8x10_ASCII.obj
 0003:009c4ff4       _acFont8x10ASCII_004F      00fd7ff4     F8x10_ASCII.obj
 0003:009c5000       _acFont8x10ASCII_0050      00fd8000     F8x10_ASCII.obj
 0003:009c500c       _acFont8x10ASCII_0051      00fd800c     F8x10_ASCII.obj
 0003:009c5018       _acFont8x10ASCII_0052      00fd8018     F8x10_ASCII.obj
 0003:009c5024       _acFont8x10ASCII_0053      00fd8024     F8x10_ASCII.obj
 0003:009c5030       _acFont8x10ASCII_0054      00fd8030     F8x10_ASCII.obj
 0003:009c503c       _acFont8x10ASCII_0055      00fd803c     F8x10_ASCII.obj
 0003:009c5048       _acFont8x10ASCII_0056      00fd8048     F8x10_ASCII.obj
 0003:009c5054       _acFont8x10ASCII_0057      00fd8054     F8x10_ASCII.obj
 0003:009c5060       _acFont8x10ASCII_0058      00fd8060     F8x10_ASCII.obj
 0003:009c506c       _acFont8x10ASCII_0059      00fd806c     F8x10_ASCII.obj
 0003:009c5078       _acFont8x10ASCII_005A      00fd8078     F8x10_ASCII.obj
 0003:009c5084       _acFont8x10ASCII_005B      00fd8084     F8x10_ASCII.obj
 0003:009c5090       _acFont8x10ASCII_005C      00fd8090     F8x10_ASCII.obj
 0003:009c509c       _acFont8x10ASCII_005D      00fd809c     F8x10_ASCII.obj
 0003:009c50a8       _acFont8x10ASCII_005E      00fd80a8     F8x10_ASCII.obj
 0003:009c50b4       _acFont8x10ASCII_005F      00fd80b4     F8x10_ASCII.obj
 0003:009c50c0       _acFont8x10ASCII_0060      00fd80c0     F8x10_ASCII.obj
 0003:009c50cc       _acFont8x10ASCII_0061      00fd80cc     F8x10_ASCII.obj
 0003:009c50d8       _acFont8x10ASCII_0062      00fd80d8     F8x10_ASCII.obj
 0003:009c50e4       _acFont8x10ASCII_0063      00fd80e4     F8x10_ASCII.obj
 0003:009c50f0       _acFont8x10ASCII_0064      00fd80f0     F8x10_ASCII.obj
 0003:009c50fc       _acFont8x10ASCII_0065      00fd80fc     F8x10_ASCII.obj
 0003:009c5108       _acFont8x10ASCII_0066      00fd8108     F8x10_ASCII.obj
 0003:009c5114       _acFont8x10ASCII_0067      00fd8114     F8x10_ASCII.obj
 0003:009c5120       _acFont8x10ASCII_0068      00fd8120     F8x10_ASCII.obj
 0003:009c512c       _acFont8x10ASCII_0069      00fd812c     F8x10_ASCII.obj
 0003:009c5138       _acFont8x10ASCII_006A      00fd8138     F8x10_ASCII.obj
 0003:009c5144       _acFont8x10ASCII_006B      00fd8144     F8x10_ASCII.obj
 0003:009c5150       _acFont8x10ASCII_006C      00fd8150     F8x10_ASCII.obj
 0003:009c515c       _acFont8x10ASCII_006D      00fd815c     F8x10_ASCII.obj
 0003:009c5168       _acFont8x10ASCII_006E      00fd8168     F8x10_ASCII.obj
 0003:009c5174       _acFont8x10ASCII_006F      00fd8174     F8x10_ASCII.obj
 0003:009c5180       _acFont8x10ASCII_0070      00fd8180     F8x10_ASCII.obj
 0003:009c518c       _acFont8x10ASCII_0071      00fd818c     F8x10_ASCII.obj
 0003:009c5198       _acFont8x10ASCII_0072      00fd8198     F8x10_ASCII.obj
 0003:009c51a4       _acFont8x10ASCII_0073      00fd81a4     F8x10_ASCII.obj
 0003:009c51b0       _acFont8x10ASCII_0074      00fd81b0     F8x10_ASCII.obj
 0003:009c51bc       _acFont8x10ASCII_0075      00fd81bc     F8x10_ASCII.obj
 0003:009c51c8       _acFont8x10ASCII_0076      00fd81c8     F8x10_ASCII.obj
 0003:009c51d4       _acFont8x10ASCII_0077      00fd81d4     F8x10_ASCII.obj
 0003:009c51e0       _acFont8x10ASCII_0078      00fd81e0     F8x10_ASCII.obj
 0003:009c51ec       _acFont8x10ASCII_0079      00fd81ec     F8x10_ASCII.obj
 0003:009c51f8       _acFont8x10ASCII_007A      00fd81f8     F8x10_ASCII.obj
 0003:009c5204       _acFont8x10ASCII_007B      00fd8204     F8x10_ASCII.obj
 0003:009c5210       _acFont8x10ASCII_007C      00fd8210     F8x10_ASCII.obj
 0003:009c521c       _acFont8x10ASCII_007D      00fd821c     F8x10_ASCII.obj
 0003:009c5228       _acFont8x10ASCII_007E      00fd8228     F8x10_ASCII.obj
 0003:009c5234       _acFont8x10ASCII_007F      00fd8234     F8x10_ASCII.obj
 0003:009c5240       _GUI_Font8x10ASCII_CharInfo 00fd8240     F8x10_ASCII.obj
 0003:009c5540       _GUI_Font8x10ASCII_Prop1   00fd8540     F8x10_ASCII.obj
 0003:009c554c       _GUI_Font8x10_ASCII        00fd854c     F8x10_ASCII.obj
 0003:009c5700       _acFont8x12ASCII_0020      00fd8700     F8x12_ASCII.obj
 0003:009c570c       _acFont8x12ASCII_0021      00fd870c     F8x12_ASCII.obj
 0003:009c5718       _acFont8x12ASCII_0022      00fd8718     F8x12_ASCII.obj
 0003:009c5724       _acFont8x12ASCII_0023      00fd8724     F8x12_ASCII.obj
 0003:009c5730       _acFont8x12ASCII_0024      00fd8730     F8x12_ASCII.obj
 0003:009c573c       _acFont8x12ASCII_0025      00fd873c     F8x12_ASCII.obj
 0003:009c5748       _acFont8x12ASCII_0026      00fd8748     F8x12_ASCII.obj
 0003:009c5754       _acFont8x12ASCII_0027      00fd8754     F8x12_ASCII.obj
 0003:009c5760       _acFont8x12ASCII_0028      00fd8760     F8x12_ASCII.obj
 0003:009c576c       _acFont8x12ASCII_0029      00fd876c     F8x12_ASCII.obj
 0003:009c5778       _acFont8x12ASCII_002A      00fd8778     F8x12_ASCII.obj
 0003:009c5784       _acFont8x12ASCII_002B      00fd8784     F8x12_ASCII.obj
 0003:009c5790       _acFont8x12ASCII_002C      00fd8790     F8x12_ASCII.obj
 0003:009c579c       _acFont8x12ASCII_002D      00fd879c     F8x12_ASCII.obj
 0003:009c57a8       _acFont8x12ASCII_002E      00fd87a8     F8x12_ASCII.obj
 0003:009c57b4       _acFont8x12ASCII_002F      00fd87b4     F8x12_ASCII.obj
 0003:009c57c0       _acFont8x12ASCII_0030      00fd87c0     F8x12_ASCII.obj
 0003:009c57cc       _acFont8x12ASCII_0031      00fd87cc     F8x12_ASCII.obj
 0003:009c57d8       _acFont8x12ASCII_0032      00fd87d8     F8x12_ASCII.obj
 0003:009c57e4       _acFont8x12ASCII_0033      00fd87e4     F8x12_ASCII.obj
 0003:009c57f0       _acFont8x12ASCII_0034      00fd87f0     F8x12_ASCII.obj
 0003:009c57fc       _acFont8x12ASCII_0035      00fd87fc     F8x12_ASCII.obj
 0003:009c5808       _acFont8x12ASCII_0036      00fd8808     F8x12_ASCII.obj
 0003:009c5814       _acFont8x12ASCII_0037      00fd8814     F8x12_ASCII.obj
 0003:009c5820       _acFont8x12ASCII_0038      00fd8820     F8x12_ASCII.obj
 0003:009c582c       _acFont8x12ASCII_0039      00fd882c     F8x12_ASCII.obj
 0003:009c5838       _acFont8x12ASCII_003A      00fd8838     F8x12_ASCII.obj
 0003:009c5844       _acFont8x12ASCII_003B      00fd8844     F8x12_ASCII.obj
 0003:009c5850       _acFont8x12ASCII_003C      00fd8850     F8x12_ASCII.obj
 0003:009c585c       _acFont8x12ASCII_003D      00fd885c     F8x12_ASCII.obj
 0003:009c5868       _acFont8x12ASCII_003E      00fd8868     F8x12_ASCII.obj
 0003:009c5874       _acFont8x12ASCII_003F      00fd8874     F8x12_ASCII.obj
 0003:009c5880       _acFont8x12ASCII_0040      00fd8880     F8x12_ASCII.obj
 0003:009c588c       _acFont8x12ASCII_0041      00fd888c     F8x12_ASCII.obj
 0003:009c5898       _acFont8x12ASCII_0042      00fd8898     F8x12_ASCII.obj
 0003:009c58a4       _acFont8x12ASCII_0043      00fd88a4     F8x12_ASCII.obj
 0003:009c58b0       _acFont8x12ASCII_0044      00fd88b0     F8x12_ASCII.obj
 0003:009c58bc       _acFont8x12ASCII_0045      00fd88bc     F8x12_ASCII.obj
 0003:009c58c8       _acFont8x12ASCII_0046      00fd88c8     F8x12_ASCII.obj
 0003:009c58d4       _acFont8x12ASCII_0047      00fd88d4     F8x12_ASCII.obj
 0003:009c58e0       _acFont8x12ASCII_0048      00fd88e0     F8x12_ASCII.obj
 0003:009c58ec       _acFont8x12ASCII_0049      00fd88ec     F8x12_ASCII.obj
 0003:009c58f8       _acFont8x12ASCII_004A      00fd88f8     F8x12_ASCII.obj
 0003:009c5904       _acFont8x12ASCII_004B      00fd8904     F8x12_ASCII.obj
 0003:009c5910       _acFont8x12ASCII_004C      00fd8910     F8x12_ASCII.obj
 0003:009c591c       _acFont8x12ASCII_004D      00fd891c     F8x12_ASCII.obj
 0003:009c5928       _acFont8x12ASCII_004E      00fd8928     F8x12_ASCII.obj
 0003:009c5934       _acFont8x12ASCII_004F      00fd8934     F8x12_ASCII.obj
 0003:009c5940       _acFont8x12ASCII_0050      00fd8940     F8x12_ASCII.obj
 0003:009c594c       _acFont8x12ASCII_0051      00fd894c     F8x12_ASCII.obj
 0003:009c5958       _acFont8x12ASCII_0052      00fd8958     F8x12_ASCII.obj
 0003:009c5964       _acFont8x12ASCII_0053      00fd8964     F8x12_ASCII.obj
 0003:009c5970       _acFont8x12ASCII_0054      00fd8970     F8x12_ASCII.obj
 0003:009c597c       _acFont8x12ASCII_0055      00fd897c     F8x12_ASCII.obj
 0003:009c5988       _acFont8x12ASCII_0056      00fd8988     F8x12_ASCII.obj
 0003:009c5994       _acFont8x12ASCII_0057      00fd8994     F8x12_ASCII.obj
 0003:009c59a0       _acFont8x12ASCII_0058      00fd89a0     F8x12_ASCII.obj
 0003:009c59ac       _acFont8x12ASCII_0059      00fd89ac     F8x12_ASCII.obj
 0003:009c59b8       _acFont8x12ASCII_005A      00fd89b8     F8x12_ASCII.obj
 0003:009c59c4       _acFont8x12ASCII_005B      00fd89c4     F8x12_ASCII.obj
 0003:009c59d0       _acFont8x12ASCII_005C      00fd89d0     F8x12_ASCII.obj
 0003:009c59dc       _acFont8x12ASCII_005D      00fd89dc     F8x12_ASCII.obj
 0003:009c59e8       _acFont8x12ASCII_005E      00fd89e8     F8x12_ASCII.obj
 0003:009c59f4       _acFont8x12ASCII_005F      00fd89f4     F8x12_ASCII.obj
 0003:009c5a00       _acFont8x12ASCII_0060      00fd8a00     F8x12_ASCII.obj
 0003:009c5a0c       _acFont8x12ASCII_0061      00fd8a0c     F8x12_ASCII.obj
 0003:009c5a18       _acFont8x12ASCII_0062      00fd8a18     F8x12_ASCII.obj
 0003:009c5a24       _acFont8x12ASCII_0063      00fd8a24     F8x12_ASCII.obj
 0003:009c5a30       _acFont8x12ASCII_0064      00fd8a30     F8x12_ASCII.obj
 0003:009c5a3c       _acFont8x12ASCII_0065      00fd8a3c     F8x12_ASCII.obj
 0003:009c5a48       _acFont8x12ASCII_0066      00fd8a48     F8x12_ASCII.obj
 0003:009c5a54       _acFont8x12ASCII_0067      00fd8a54     F8x12_ASCII.obj
 0003:009c5a60       _acFont8x12ASCII_0068      00fd8a60     F8x12_ASCII.obj
 0003:009c5a6c       _acFont8x12ASCII_0069      00fd8a6c     F8x12_ASCII.obj
 0003:009c5a78       _acFont8x12ASCII_006A      00fd8a78     F8x12_ASCII.obj
 0003:009c5a84       _acFont8x12ASCII_006B      00fd8a84     F8x12_ASCII.obj
 0003:009c5a90       _acFont8x12ASCII_006C      00fd8a90     F8x12_ASCII.obj
 0003:009c5a9c       _acFont8x12ASCII_006D      00fd8a9c     F8x12_ASCII.obj
 0003:009c5aa8       _acFont8x12ASCII_006E      00fd8aa8     F8x12_ASCII.obj
 0003:009c5ab4       _acFont8x12ASCII_006F      00fd8ab4     F8x12_ASCII.obj
 0003:009c5ac0       _acFont8x12ASCII_0070      00fd8ac0     F8x12_ASCII.obj
 0003:009c5acc       _acFont8x12ASCII_0071      00fd8acc     F8x12_ASCII.obj
 0003:009c5ad8       _acFont8x12ASCII_0072      00fd8ad8     F8x12_ASCII.obj
 0003:009c5ae4       _acFont8x12ASCII_0073      00fd8ae4     F8x12_ASCII.obj
 0003:009c5af0       _acFont8x12ASCII_0074      00fd8af0     F8x12_ASCII.obj
 0003:009c5afc       _acFont8x12ASCII_0075      00fd8afc     F8x12_ASCII.obj
 0003:009c5b08       _acFont8x12ASCII_0076      00fd8b08     F8x12_ASCII.obj
 0003:009c5b14       _acFont8x12ASCII_0077      00fd8b14     F8x12_ASCII.obj
 0003:009c5b20       _acFont8x12ASCII_0078      00fd8b20     F8x12_ASCII.obj
 0003:009c5b2c       _acFont8x12ASCII_0079      00fd8b2c     F8x12_ASCII.obj
 0003:009c5b38       _acFont8x12ASCII_007A      00fd8b38     F8x12_ASCII.obj
 0003:009c5b44       _acFont8x12ASCII_007B      00fd8b44     F8x12_ASCII.obj
 0003:009c5b50       _acFont8x12ASCII_007C      00fd8b50     F8x12_ASCII.obj
 0003:009c5b5c       _acFont8x12ASCII_007D      00fd8b5c     F8x12_ASCII.obj
 0003:009c5b68       _acFont8x12ASCII_007E      00fd8b68     F8x12_ASCII.obj
 0003:009c5b74       _acFont8x12ASCII_007F      00fd8b74     F8x12_ASCII.obj
 0003:009c5b80       _GUI_Font8x12ASCII_CharInfo 00fd8b80     F8x12_ASCII.obj
 0003:009c5e80       _GUI_Font8x12ASCII_Prop1   00fd8e80     F8x12_ASCII.obj
 0003:009c5e8c       _GUI_Font8x12_ASCII        00fd8e8c     F8x12_ASCII.obj
 0003:009c6040       _acF8x13_1_160             00fd9040     F8x13_1.obj
 0003:009c6050       _acF8x13_1_161             00fd9050     F8x13_1.obj
 0003:009c6060       _acF8x13_1_162             00fd9060     F8x13_1.obj
 0003:009c6070       _acF8x13_1_163             00fd9070     F8x13_1.obj
 0003:009c6080       _acF8x13_1_164             00fd9080     F8x13_1.obj
 0003:009c6090       _acF8x13_1_165             00fd9090     F8x13_1.obj
 0003:009c60a0       _acF8x13_1_166             00fd90a0     F8x13_1.obj
 0003:009c60b0       _acF8x13_1_167             00fd90b0     F8x13_1.obj
 0003:009c60c0       _acF8x13_1_168             00fd90c0     F8x13_1.obj
 0003:009c60d0       _acF8x13_1_169             00fd90d0     F8x13_1.obj
 0003:009c60e0       _acF8x13_1_170             00fd90e0     F8x13_1.obj
 0003:009c60f0       _acF8x13_1_171             00fd90f0     F8x13_1.obj
 0003:009c6100       _acF8x13_1_172             00fd9100     F8x13_1.obj
 0003:009c6110       _acF8x13_1_173             00fd9110     F8x13_1.obj
 0003:009c6120       _acF8x13_1_174             00fd9120     F8x13_1.obj
 0003:009c6130       _acF8x13_1_175             00fd9130     F8x13_1.obj
 0003:009c6140       _acF8x13_1_176             00fd9140     F8x13_1.obj
 0003:009c6150       _acF8x13_1_177             00fd9150     F8x13_1.obj
 0003:009c6160       _acF8x13_1_178             00fd9160     F8x13_1.obj
 0003:009c6170       _acF8x13_1_179             00fd9170     F8x13_1.obj
 0003:009c6180       _acF8x13_1_180             00fd9180     F8x13_1.obj
 0003:009c6190       _acF8x13_1_181             00fd9190     F8x13_1.obj
 0003:009c61a0       _acF8x13_1_182             00fd91a0     F8x13_1.obj
 0003:009c61b0       _acF8x13_1_183             00fd91b0     F8x13_1.obj
 0003:009c61c0       _acF8x13_1_184             00fd91c0     F8x13_1.obj
 0003:009c61d0       _acF8x13_1_185             00fd91d0     F8x13_1.obj
 0003:009c61e0       _acF8x13_1_186             00fd91e0     F8x13_1.obj
 0003:009c61f0       _acF8x13_1_187             00fd91f0     F8x13_1.obj
 0003:009c6200       _acF8x13_1_188             00fd9200     F8x13_1.obj
 0003:009c6210       _acF8x13_1_189             00fd9210     F8x13_1.obj
 0003:009c6220       _acF8x13_1_190             00fd9220     F8x13_1.obj
 0003:009c6230       _acF8x13_1_191             00fd9230     F8x13_1.obj
 0003:009c6240       _acF8x13_1_192             00fd9240     F8x13_1.obj
 0003:009c6250       _acF8x13_1_193             00fd9250     F8x13_1.obj
 0003:009c6260       _acF8x13_1_194             00fd9260     F8x13_1.obj
 0003:009c6270       _acF8x13_1_195             00fd9270     F8x13_1.obj
 0003:009c6280       _acF8x13_1_196             00fd9280     F8x13_1.obj
 0003:009c6290       _acF8x13_1_197             00fd9290     F8x13_1.obj
 0003:009c62a0       _acF8x13_1_198             00fd92a0     F8x13_1.obj
 0003:009c62b0       _acF8x13_1_199             00fd92b0     F8x13_1.obj
 0003:009c62c0       _acF8x13_1_200             00fd92c0     F8x13_1.obj
 0003:009c62d0       _acF8x13_1_201             00fd92d0     F8x13_1.obj
 0003:009c62e0       _acF8x13_1_202             00fd92e0     F8x13_1.obj
 0003:009c62f0       _acF8x13_1_203             00fd92f0     F8x13_1.obj
 0003:009c6300       _acF8x13_1_204             00fd9300     F8x13_1.obj
 0003:009c6310       _acF8x13_1_205             00fd9310     F8x13_1.obj
 0003:009c6320       _acF8x13_1_206             00fd9320     F8x13_1.obj
 0003:009c6330       _acF8x13_1_207             00fd9330     F8x13_1.obj
 0003:009c6340       _acF8x13_1_208             00fd9340     F8x13_1.obj
 0003:009c6350       _acF8x13_1_209             00fd9350     F8x13_1.obj
 0003:009c6360       _acF8x13_1_210             00fd9360     F8x13_1.obj
 0003:009c6370       _acF8x13_1_211             00fd9370     F8x13_1.obj
 0003:009c6380       _acF8x13_1_212             00fd9380     F8x13_1.obj
 0003:009c6390       _acF8x13_1_213             00fd9390     F8x13_1.obj
 0003:009c63a0       _acF8x13_1_214             00fd93a0     F8x13_1.obj
 0003:009c63b0       _acF8x13_1_215             00fd93b0     F8x13_1.obj
 0003:009c63c0       _acF8x13_1_216             00fd93c0     F8x13_1.obj
 0003:009c63d0       _acF8x13_1_217             00fd93d0     F8x13_1.obj
 0003:009c63e0       _acF8x13_1_218             00fd93e0     F8x13_1.obj
 0003:009c63f0       _acF8x13_1_219             00fd93f0     F8x13_1.obj
 0003:009c6400       _acF8x13_1_220             00fd9400     F8x13_1.obj
 0003:009c6410       _acF8x13_1_221             00fd9410     F8x13_1.obj
 0003:009c6420       _acF8x13_1_222             00fd9420     F8x13_1.obj
 0003:009c6430       _acF8x13_1_223             00fd9430     F8x13_1.obj
 0003:009c6440       _acF8x13_1_224             00fd9440     F8x13_1.obj
 0003:009c6450       _acF8x13_1_225             00fd9450     F8x13_1.obj
 0003:009c6460       _acF8x13_1_226             00fd9460     F8x13_1.obj
 0003:009c6470       _acF8x13_1_227             00fd9470     F8x13_1.obj
 0003:009c6480       _acF8x13_1_228             00fd9480     F8x13_1.obj
 0003:009c6490       _acF8x13_1_229             00fd9490     F8x13_1.obj
 0003:009c64a0       _acF8x13_1_230             00fd94a0     F8x13_1.obj
 0003:009c64b0       _acF8x13_1_231             00fd94b0     F8x13_1.obj
 0003:009c64c0       _acF8x13_1_232             00fd94c0     F8x13_1.obj
 0003:009c64d0       _acF8x13_1_233             00fd94d0     F8x13_1.obj
 0003:009c64e0       _acF8x13_1_234             00fd94e0     F8x13_1.obj
 0003:009c64f0       _acF8x13_1_235             00fd94f0     F8x13_1.obj
 0003:009c6500       _acF8x13_1_236             00fd9500     F8x13_1.obj
 0003:009c6510       _acF8x13_1_237             00fd9510     F8x13_1.obj
 0003:009c6520       _acF8x13_1_238             00fd9520     F8x13_1.obj
 0003:009c6530       _acF8x13_1_239             00fd9530     F8x13_1.obj
 0003:009c6540       _acF8x13_1_240             00fd9540     F8x13_1.obj
 0003:009c6550       _acF8x13_1_241             00fd9550     F8x13_1.obj
 0003:009c6560       _acF8x13_1_242             00fd9560     F8x13_1.obj
 0003:009c6570       _acF8x13_1_243             00fd9570     F8x13_1.obj
 0003:009c6580       _acF8x13_1_244             00fd9580     F8x13_1.obj
 0003:009c6590       _acF8x13_1_245             00fd9590     F8x13_1.obj
 0003:009c65a0       _acF8x13_1_246             00fd95a0     F8x13_1.obj
 0003:009c65b0       _acF8x13_1_247             00fd95b0     F8x13_1.obj
 0003:009c65c0       _acF8x13_1_248             00fd95c0     F8x13_1.obj
 0003:009c65d0       _acF8x13_1_249             00fd95d0     F8x13_1.obj
 0003:009c65e0       _acF8x13_1_250             00fd95e0     F8x13_1.obj
 0003:009c65f0       _acF8x13_1_251             00fd95f0     F8x13_1.obj
 0003:009c6600       _acF8x13_1_252             00fd9600     F8x13_1.obj
 0003:009c6610       _acF8x13_1_253             00fd9610     F8x13_1.obj
 0003:009c6620       _acF8x13_1_254             00fd9620     F8x13_1.obj
 0003:009c6630       _acF8x13_1_255             00fd9630     F8x13_1.obj
 0003:009c6640       _GUI_CharInfoF8x13_1       00fd9640     F8x13_1.obj
 0003:009c6940       _GUI_FontPropF8x13_1_2     00fd9940     F8x13_1.obj
 0003:009c694c       _GUI_FontPropF8x13_1_1     00fd994c     F8x13_1.obj
 0003:009c6958       _GUI_Font8x13_1            00fd9958     F8x13_1.obj
 0003:009c6b58       _acF8x13_ASCII_32          00fd9b58     F8x13_ASCII.obj
 0003:009c6b68       _acF8x13_ASCII_33          00fd9b68     F8x13_ASCII.obj
 0003:009c6b78       _acF8x13_ASCII_34          00fd9b78     F8x13_ASCII.obj
 0003:009c6b88       _acF8x13_ASCII_35          00fd9b88     F8x13_ASCII.obj
 0003:009c6b98       _acF8x13_ASCII_36          00fd9b98     F8x13_ASCII.obj
 0003:009c6ba8       _acF8x13_ASCII_37          00fd9ba8     F8x13_ASCII.obj
 0003:009c6bb8       _acF8x13_ASCII_38          00fd9bb8     F8x13_ASCII.obj
 0003:009c6bc8       _acF8x13_ASCII_39          00fd9bc8     F8x13_ASCII.obj
 0003:009c6bd8       _acF8x13_ASCII_40          00fd9bd8     F8x13_ASCII.obj
 0003:009c6be8       _acF8x13_ASCII_41          00fd9be8     F8x13_ASCII.obj
 0003:009c6bf8       _acF8x13_ASCII_42          00fd9bf8     F8x13_ASCII.obj
 0003:009c6c08       _acF8x13_ASCII_43          00fd9c08     F8x13_ASCII.obj
 0003:009c6c18       _acF8x13_ASCII_44          00fd9c18     F8x13_ASCII.obj
 0003:009c6c28       _acF8x13_ASCII_45          00fd9c28     F8x13_ASCII.obj
 0003:009c6c38       _acF8x13_ASCII_46          00fd9c38     F8x13_ASCII.obj
 0003:009c6c48       _acF8x13_ASCII_47          00fd9c48     F8x13_ASCII.obj
 0003:009c6c58       _acF8x13_ASCII_48          00fd9c58     F8x13_ASCII.obj
 0003:009c6c68       _acF8x13_ASCII_49          00fd9c68     F8x13_ASCII.obj
 0003:009c6c78       _acF8x13_ASCII_50          00fd9c78     F8x13_ASCII.obj
 0003:009c6c88       _acF8x13_ASCII_51          00fd9c88     F8x13_ASCII.obj
 0003:009c6c98       _acF8x13_ASCII_52          00fd9c98     F8x13_ASCII.obj
 0003:009c6ca8       _acF8x13_ASCII_53          00fd9ca8     F8x13_ASCII.obj
 0003:009c6cb8       _acF8x13_ASCII_54          00fd9cb8     F8x13_ASCII.obj
 0003:009c6cc8       _acF8x13_ASCII_55          00fd9cc8     F8x13_ASCII.obj
 0003:009c6cd8       _acF8x13_ASCII_56          00fd9cd8     F8x13_ASCII.obj
 0003:009c6ce8       _acF8x13_ASCII_57          00fd9ce8     F8x13_ASCII.obj
 0003:009c6cf8       _acF8x13_ASCII_58          00fd9cf8     F8x13_ASCII.obj
 0003:009c6d08       _acF8x13_ASCII_59          00fd9d08     F8x13_ASCII.obj
 0003:009c6d18       _acF8x13_ASCII_60          00fd9d18     F8x13_ASCII.obj
 0003:009c6d28       _acF8x13_ASCII_61          00fd9d28     F8x13_ASCII.obj
 0003:009c6d38       _acF8x13_ASCII_62          00fd9d38     F8x13_ASCII.obj
 0003:009c6d48       _acF8x13_ASCII_63          00fd9d48     F8x13_ASCII.obj
 0003:009c6d58       _acF8x13_ASCII_64          00fd9d58     F8x13_ASCII.obj
 0003:009c6d68       _acF8x13_ASCII_65          00fd9d68     F8x13_ASCII.obj
 0003:009c6d78       _acF8x13_ASCII_66          00fd9d78     F8x13_ASCII.obj
 0003:009c6d88       _acF8x13_ASCII_67          00fd9d88     F8x13_ASCII.obj
 0003:009c6d98       _acF8x13_ASCII_68          00fd9d98     F8x13_ASCII.obj
 0003:009c6da8       _acF8x13_ASCII_69          00fd9da8     F8x13_ASCII.obj
 0003:009c6db8       _acF8x13_ASCII_70          00fd9db8     F8x13_ASCII.obj
 0003:009c6dc8       _acF8x13_ASCII_71          00fd9dc8     F8x13_ASCII.obj
 0003:009c6dd8       _acF8x13_ASCII_72          00fd9dd8     F8x13_ASCII.obj
 0003:009c6de8       _acF8x13_ASCII_73          00fd9de8     F8x13_ASCII.obj
 0003:009c6df8       _acF8x13_ASCII_74          00fd9df8     F8x13_ASCII.obj
 0003:009c6e08       _acF8x13_ASCII_75          00fd9e08     F8x13_ASCII.obj
 0003:009c6e18       _acF8x13_ASCII_76          00fd9e18     F8x13_ASCII.obj
 0003:009c6e28       _acF8x13_ASCII_77          00fd9e28     F8x13_ASCII.obj
 0003:009c6e38       _acF8x13_ASCII_78          00fd9e38     F8x13_ASCII.obj
 0003:009c6e48       _acF8x13_ASCII_79          00fd9e48     F8x13_ASCII.obj
 0003:009c6e58       _acF8x13_ASCII_80          00fd9e58     F8x13_ASCII.obj
 0003:009c6e68       _acF8x13_ASCII_81          00fd9e68     F8x13_ASCII.obj
 0003:009c6e78       _acF8x13_ASCII_82          00fd9e78     F8x13_ASCII.obj
 0003:009c6e88       _acF8x13_ASCII_83          00fd9e88     F8x13_ASCII.obj
 0003:009c6e98       _acF8x13_ASCII_84          00fd9e98     F8x13_ASCII.obj
 0003:009c6ea8       _acF8x13_ASCII_85          00fd9ea8     F8x13_ASCII.obj
 0003:009c6eb8       _acF8x13_ASCII_86          00fd9eb8     F8x13_ASCII.obj
 0003:009c6ec8       _acF8x13_ASCII_87          00fd9ec8     F8x13_ASCII.obj
 0003:009c6ed8       _acF8x13_ASCII_88          00fd9ed8     F8x13_ASCII.obj
 0003:009c6ee8       _acF8x13_ASCII_89          00fd9ee8     F8x13_ASCII.obj
 0003:009c6ef8       _acF8x13_ASCII_90          00fd9ef8     F8x13_ASCII.obj
 0003:009c6f08       _acF8x13_ASCII_91          00fd9f08     F8x13_ASCII.obj
 0003:009c6f18       _acF8x13_ASCII_92          00fd9f18     F8x13_ASCII.obj
 0003:009c6f28       _acF8x13_ASCII_93          00fd9f28     F8x13_ASCII.obj
 0003:009c6f38       _acF8x13_ASCII_94          00fd9f38     F8x13_ASCII.obj
 0003:009c6f48       _acF8x13_ASCII_95          00fd9f48     F8x13_ASCII.obj
 0003:009c6f58       _acF8x13_ASCII_96          00fd9f58     F8x13_ASCII.obj
 0003:009c6f68       _acF8x13_ASCII_97          00fd9f68     F8x13_ASCII.obj
 0003:009c6f78       _acF8x13_ASCII_98          00fd9f78     F8x13_ASCII.obj
 0003:009c6f88       _acF8x13_ASCII_99          00fd9f88     F8x13_ASCII.obj
 0003:009c6f98       _acF8x13_ASCII_100         00fd9f98     F8x13_ASCII.obj
 0003:009c6fa8       _acF8x13_ASCII_101         00fd9fa8     F8x13_ASCII.obj
 0003:009c6fb8       _acF8x13_ASCII_102         00fd9fb8     F8x13_ASCII.obj
 0003:009c6fc8       _acF8x13_ASCII_103         00fd9fc8     F8x13_ASCII.obj
 0003:009c6fd8       _acF8x13_ASCII_104         00fd9fd8     F8x13_ASCII.obj
 0003:009c6fe8       _acF8x13_ASCII_105         00fd9fe8     F8x13_ASCII.obj
 0003:009c6ff8       _acF8x13_ASCII_106         00fd9ff8     F8x13_ASCII.obj
 0003:009c7008       _acF8x13_ASCII_107         00fda008     F8x13_ASCII.obj
 0003:009c7018       _acF8x13_ASCII_108         00fda018     F8x13_ASCII.obj
 0003:009c7028       _acF8x13_ASCII_109         00fda028     F8x13_ASCII.obj
 0003:009c7038       _acF8x13_ASCII_110         00fda038     F8x13_ASCII.obj
 0003:009c7048       _acF8x13_ASCII_111         00fda048     F8x13_ASCII.obj
 0003:009c7058       _acF8x13_ASCII_112         00fda058     F8x13_ASCII.obj
 0003:009c7068       _acF8x13_ASCII_113         00fda068     F8x13_ASCII.obj
 0003:009c7078       _acF8x13_ASCII_114         00fda078     F8x13_ASCII.obj
 0003:009c7088       _acF8x13_ASCII_115         00fda088     F8x13_ASCII.obj
 0003:009c7098       _acF8x13_ASCII_116         00fda098     F8x13_ASCII.obj
 0003:009c70a8       _acF8x13_ASCII_117         00fda0a8     F8x13_ASCII.obj
 0003:009c70b8       _acF8x13_ASCII_118         00fda0b8     F8x13_ASCII.obj
 0003:009c70c8       _acF8x13_ASCII_119         00fda0c8     F8x13_ASCII.obj
 0003:009c70d8       _acF8x13_ASCII_120         00fda0d8     F8x13_ASCII.obj
 0003:009c70e8       _acF8x13_ASCII_121         00fda0e8     F8x13_ASCII.obj
 0003:009c70f8       _acF8x13_ASCII_122         00fda0f8     F8x13_ASCII.obj
 0003:009c7108       _acF8x13_ASCII_123         00fda108     F8x13_ASCII.obj
 0003:009c7118       _acF8x13_ASCII_124         00fda118     F8x13_ASCII.obj
 0003:009c7128       _acF8x13_ASCII_125         00fda128     F8x13_ASCII.obj
 0003:009c7138       _acF8x13_ASCII_126         00fda138     F8x13_ASCII.obj
 0003:009c7148       _acF8x13_ASCII_127         00fda148     F8x13_ASCII.obj
 0003:009c7158       _GUI_CharInfoF8x13_ASCII   00fda158     F8x13_ASCII.obj
 0003:009c7458       _GUI_FontPropF8x13_ASCII_1 00fda458     F8x13_ASCII.obj
 0003:009c7464       _GUI_Font8x13_ASCII        00fda464     F8x13_ASCII.obj
 0003:009c7660       _acF8x15B_1_160            00fda660     F8x15B_1.obj
 0003:009c7670       _acF8x15B_1_161            00fda670     F8x15B_1.obj
 0003:009c7680       _acF8x15B_1_162            00fda680     F8x15B_1.obj
 0003:009c7690       _acF8x15B_1_163            00fda690     F8x15B_1.obj
 0003:009c76a0       _acF8x15B_1_164            00fda6a0     F8x15B_1.obj
 0003:009c76b0       _acF8x15B_1_165            00fda6b0     F8x15B_1.obj
 0003:009c76c0       _acF8x15B_1_166            00fda6c0     F8x15B_1.obj
 0003:009c76d0       _acF8x15B_1_167            00fda6d0     F8x15B_1.obj
 0003:009c76e0       _acF8x15B_1_168            00fda6e0     F8x15B_1.obj
 0003:009c76f0       _acF8x15B_1_169            00fda6f0     F8x15B_1.obj
 0003:009c7700       _acF8x15B_1_170            00fda700     F8x15B_1.obj
 0003:009c7710       _acF8x15B_1_171            00fda710     F8x15B_1.obj
 0003:009c7720       _acF8x15B_1_172            00fda720     F8x15B_1.obj
 0003:009c7730       _acF8x15B_1_173            00fda730     F8x15B_1.obj
 0003:009c7740       _acF8x15B_1_174            00fda740     F8x15B_1.obj
 0003:009c7750       _acF8x15B_1_175            00fda750     F8x15B_1.obj
 0003:009c7760       _acF8x15B_1_176            00fda760     F8x15B_1.obj
 0003:009c7770       _acF8x15B_1_177            00fda770     F8x15B_1.obj
 0003:009c7780       _acF8x15B_1_178            00fda780     F8x15B_1.obj
 0003:009c7790       _acF8x15B_1_179            00fda790     F8x15B_1.obj
 0003:009c77a0       _acF8x15B_1_180            00fda7a0     F8x15B_1.obj
 0003:009c77b0       _acF8x15B_1_181            00fda7b0     F8x15B_1.obj
 0003:009c77c0       _acF8x15B_1_182            00fda7c0     F8x15B_1.obj
 0003:009c77d0       _acF8x15B_1_183            00fda7d0     F8x15B_1.obj
 0003:009c77e0       _acF8x15B_1_184            00fda7e0     F8x15B_1.obj
 0003:009c77f0       _acF8x15B_1_185            00fda7f0     F8x15B_1.obj
 0003:009c7800       _acF8x15B_1_186            00fda800     F8x15B_1.obj
 0003:009c7810       _acF8x15B_1_187            00fda810     F8x15B_1.obj
 0003:009c7820       _acF8x15B_1_188            00fda820     F8x15B_1.obj
 0003:009c7830       _acF8x15B_1_189            00fda830     F8x15B_1.obj
 0003:009c7840       _acF8x15B_1_190            00fda840     F8x15B_1.obj
 0003:009c7850       _acF8x15B_1_191            00fda850     F8x15B_1.obj
 0003:009c7860       _acF8x15B_1_192            00fda860     F8x15B_1.obj
 0003:009c7870       _acF8x15B_1_193            00fda870     F8x15B_1.obj
 0003:009c7880       _acF8x15B_1_194            00fda880     F8x15B_1.obj
 0003:009c7890       _acF8x15B_1_195            00fda890     F8x15B_1.obj
 0003:009c78a0       _acF8x15B_1_196            00fda8a0     F8x15B_1.obj
 0003:009c78b0       _acF8x15B_1_197            00fda8b0     F8x15B_1.obj
 0003:009c78c0       _acF8x15B_1_198            00fda8c0     F8x15B_1.obj
 0003:009c78d0       _acF8x15B_1_199            00fda8d0     F8x15B_1.obj
 0003:009c78e0       _acF8x15B_1_200            00fda8e0     F8x15B_1.obj
 0003:009c78f0       _acF8x15B_1_201            00fda8f0     F8x15B_1.obj
 0003:009c7900       _acF8x15B_1_202            00fda900     F8x15B_1.obj
 0003:009c7910       _acF8x15B_1_203            00fda910     F8x15B_1.obj
 0003:009c7920       _acF8x15B_1_204            00fda920     F8x15B_1.obj
 0003:009c7930       _acF8x15B_1_205            00fda930     F8x15B_1.obj
 0003:009c7940       _acF8x15B_1_206            00fda940     F8x15B_1.obj
 0003:009c7950       _acF8x15B_1_207            00fda950     F8x15B_1.obj
 0003:009c7960       _acF8x15B_1_208            00fda960     F8x15B_1.obj
 0003:009c7970       _acF8x15B_1_209            00fda970     F8x15B_1.obj
 0003:009c7980       _acF8x15B_1_210            00fda980     F8x15B_1.obj
 0003:009c7990       _acF8x15B_1_211            00fda990     F8x15B_1.obj
 0003:009c79a0       _acF8x15B_1_212            00fda9a0     F8x15B_1.obj
 0003:009c79b0       _acF8x15B_1_213            00fda9b0     F8x15B_1.obj
 0003:009c79c0       _acF8x15B_1_214            00fda9c0     F8x15B_1.obj
 0003:009c79d0       _acF8x15B_1_215            00fda9d0     F8x15B_1.obj
 0003:009c79e0       _acF8x15B_1_216            00fda9e0     F8x15B_1.obj
 0003:009c79f0       _acF8x15B_1_217            00fda9f0     F8x15B_1.obj
 0003:009c7a00       _acF8x15B_1_218            00fdaa00     F8x15B_1.obj
 0003:009c7a10       _acF8x15B_1_219            00fdaa10     F8x15B_1.obj
 0003:009c7a20       _acF8x15B_1_220            00fdaa20     F8x15B_1.obj
 0003:009c7a30       _acF8x15B_1_221            00fdaa30     F8x15B_1.obj
 0003:009c7a40       _acF8x15B_1_222            00fdaa40     F8x15B_1.obj
 0003:009c7a50       _acF8x15B_1_223            00fdaa50     F8x15B_1.obj
 0003:009c7a60       _acF8x15B_1_224            00fdaa60     F8x15B_1.obj
 0003:009c7a70       _acF8x15B_1_225            00fdaa70     F8x15B_1.obj
 0003:009c7a80       _acF8x15B_1_226            00fdaa80     F8x15B_1.obj
 0003:009c7a90       _acF8x15B_1_227            00fdaa90     F8x15B_1.obj
 0003:009c7aa0       _acF8x15B_1_228            00fdaaa0     F8x15B_1.obj
 0003:009c7ab0       _acF8x15B_1_229            00fdaab0     F8x15B_1.obj
 0003:009c7ac0       _acF8x15B_1_230            00fdaac0     F8x15B_1.obj
 0003:009c7ad0       _acF8x15B_1_231            00fdaad0     F8x15B_1.obj
 0003:009c7ae0       _acF8x15B_1_232            00fdaae0     F8x15B_1.obj
 0003:009c7af0       _acF8x15B_1_233            00fdaaf0     F8x15B_1.obj
 0003:009c7b00       _acF8x15B_1_234            00fdab00     F8x15B_1.obj
 0003:009c7b10       _acF8x15B_1_235            00fdab10     F8x15B_1.obj
 0003:009c7b20       _acF8x15B_1_236            00fdab20     F8x15B_1.obj
 0003:009c7b30       _acF8x15B_1_237            00fdab30     F8x15B_1.obj
 0003:009c7b40       _acF8x15B_1_238            00fdab40     F8x15B_1.obj
 0003:009c7b50       _acF8x15B_1_239            00fdab50     F8x15B_1.obj
 0003:009c7b60       _acF8x15B_1_240            00fdab60     F8x15B_1.obj
 0003:009c7b70       _acF8x15B_1_241            00fdab70     F8x15B_1.obj
 0003:009c7b80       _acF8x15B_1_242            00fdab80     F8x15B_1.obj
 0003:009c7b90       _acF8x15B_1_243            00fdab90     F8x15B_1.obj
 0003:009c7ba0       _acF8x15B_1_244            00fdaba0     F8x15B_1.obj
 0003:009c7bb0       _acF8x15B_1_245            00fdabb0     F8x15B_1.obj
 0003:009c7bc0       _acF8x15B_1_246            00fdabc0     F8x15B_1.obj
 0003:009c7bd0       _acF8x15B_1_247            00fdabd0     F8x15B_1.obj
 0003:009c7be0       _acF8x15B_1_248            00fdabe0     F8x15B_1.obj
 0003:009c7bf0       _acF8x15B_1_249            00fdabf0     F8x15B_1.obj
 0003:009c7c00       _acF8x15B_1_250            00fdac00     F8x15B_1.obj
 0003:009c7c10       _acF8x15B_1_251            00fdac10     F8x15B_1.obj
 0003:009c7c20       _acF8x15B_1_252            00fdac20     F8x15B_1.obj
 0003:009c7c30       _acF8x15B_1_253            00fdac30     F8x15B_1.obj
 0003:009c7c40       _acF8x15B_1_254            00fdac40     F8x15B_1.obj
 0003:009c7c50       _acF8x15B_1_255            00fdac50     F8x15B_1.obj
 0003:009c7c60       _GUI_CharInfoF8x15B_1      00fdac60     F8x15B_1.obj
 0003:009c7f60       _GUI_FontPropF8x15B_1_2    00fdaf60     F8x15B_1.obj
 0003:009c7f6c       _GUI_FontPropF8x15B_1_1    00fdaf6c     F8x15B_1.obj
 0003:009c7f78       _GUI_Font8x15B_1           00fdaf78     F8x15B_1.obj
 0003:009c8178       _acF8x15B_ASCII_32         00fdb178     F8x15B_ASCII.obj
 0003:009c8188       _acF8x15B_ASCII_33         00fdb188     F8x15B_ASCII.obj
 0003:009c8198       _acF8x15B_ASCII_34         00fdb198     F8x15B_ASCII.obj
 0003:009c81a8       _acF8x15B_ASCII_35         00fdb1a8     F8x15B_ASCII.obj
 0003:009c81b8       _acF8x15B_ASCII_36         00fdb1b8     F8x15B_ASCII.obj
 0003:009c81c8       _acF8x15B_ASCII_37         00fdb1c8     F8x15B_ASCII.obj
 0003:009c81d8       _acF8x15B_ASCII_38         00fdb1d8     F8x15B_ASCII.obj
 0003:009c81e8       _acF8x15B_ASCII_39         00fdb1e8     F8x15B_ASCII.obj
 0003:009c81f8       _acF8x15B_ASCII_40         00fdb1f8     F8x15B_ASCII.obj
 0003:009c8208       _acF8x15B_ASCII_41         00fdb208     F8x15B_ASCII.obj
 0003:009c8218       _acF8x15B_ASCII_42         00fdb218     F8x15B_ASCII.obj
 0003:009c8228       _acF8x15B_ASCII_43         00fdb228     F8x15B_ASCII.obj
 0003:009c8238       _acF8x15B_ASCII_44         00fdb238     F8x15B_ASCII.obj
 0003:009c8248       _acF8x15B_ASCII_45         00fdb248     F8x15B_ASCII.obj
 0003:009c8258       _acF8x15B_ASCII_46         00fdb258     F8x15B_ASCII.obj
 0003:009c8268       _acF8x15B_ASCII_47         00fdb268     F8x15B_ASCII.obj
 0003:009c8278       _acF8x15B_ASCII_48         00fdb278     F8x15B_ASCII.obj
 0003:009c8288       _acF8x15B_ASCII_49         00fdb288     F8x15B_ASCII.obj
 0003:009c8298       _acF8x15B_ASCII_50         00fdb298     F8x15B_ASCII.obj
 0003:009c82a8       _acF8x15B_ASCII_51         00fdb2a8     F8x15B_ASCII.obj
 0003:009c82b8       _acF8x15B_ASCII_52         00fdb2b8     F8x15B_ASCII.obj
 0003:009c82c8       _acF8x15B_ASCII_53         00fdb2c8     F8x15B_ASCII.obj
 0003:009c82d8       _acF8x15B_ASCII_54         00fdb2d8     F8x15B_ASCII.obj
 0003:009c82e8       _acF8x15B_ASCII_55         00fdb2e8     F8x15B_ASCII.obj
 0003:009c82f8       _acF8x15B_ASCII_56         00fdb2f8     F8x15B_ASCII.obj
 0003:009c8308       _acF8x15B_ASCII_57         00fdb308     F8x15B_ASCII.obj
 0003:009c8318       _acF8x15B_ASCII_58         00fdb318     F8x15B_ASCII.obj
 0003:009c8328       _acF8x15B_ASCII_59         00fdb328     F8x15B_ASCII.obj
 0003:009c8338       _acF8x15B_ASCII_60         00fdb338     F8x15B_ASCII.obj
 0003:009c8348       _acF8x15B_ASCII_61         00fdb348     F8x15B_ASCII.obj
 0003:009c8358       _acF8x15B_ASCII_62         00fdb358     F8x15B_ASCII.obj
 0003:009c8368       _acF8x15B_ASCII_63         00fdb368     F8x15B_ASCII.obj
 0003:009c8378       _acF8x15B_ASCII_64         00fdb378     F8x15B_ASCII.obj
 0003:009c8388       _acF8x15B_ASCII_65         00fdb388     F8x15B_ASCII.obj
 0003:009c8398       _acF8x15B_ASCII_66         00fdb398     F8x15B_ASCII.obj
 0003:009c83a8       _acF8x15B_ASCII_67         00fdb3a8     F8x15B_ASCII.obj
 0003:009c83b8       _acF8x15B_ASCII_68         00fdb3b8     F8x15B_ASCII.obj
 0003:009c83c8       _acF8x15B_ASCII_69         00fdb3c8     F8x15B_ASCII.obj
 0003:009c83d8       _acF8x15B_ASCII_70         00fdb3d8     F8x15B_ASCII.obj
 0003:009c83e8       _acF8x15B_ASCII_71         00fdb3e8     F8x15B_ASCII.obj
 0003:009c83f8       _acF8x15B_ASCII_72         00fdb3f8     F8x15B_ASCII.obj
 0003:009c8408       _acF8x15B_ASCII_73         00fdb408     F8x15B_ASCII.obj
 0003:009c8418       _acF8x15B_ASCII_74         00fdb418     F8x15B_ASCII.obj
 0003:009c8428       _acF8x15B_ASCII_75         00fdb428     F8x15B_ASCII.obj
 0003:009c8438       _acF8x15B_ASCII_76         00fdb438     F8x15B_ASCII.obj
 0003:009c8448       _acF8x15B_ASCII_77         00fdb448     F8x15B_ASCII.obj
 0003:009c8458       _acF8x15B_ASCII_78         00fdb458     F8x15B_ASCII.obj
 0003:009c8468       _acF8x15B_ASCII_79         00fdb468     F8x15B_ASCII.obj
 0003:009c8478       _acF8x15B_ASCII_80         00fdb478     F8x15B_ASCII.obj
 0003:009c8488       _acF8x15B_ASCII_81         00fdb488     F8x15B_ASCII.obj
 0003:009c8498       _acF8x15B_ASCII_82         00fdb498     F8x15B_ASCII.obj
 0003:009c84a8       _acF8x15B_ASCII_83         00fdb4a8     F8x15B_ASCII.obj
 0003:009c84b8       _acF8x15B_ASCII_84         00fdb4b8     F8x15B_ASCII.obj
 0003:009c84c8       _acF8x15B_ASCII_85         00fdb4c8     F8x15B_ASCII.obj
 0003:009c84d8       _acF8x15B_ASCII_86         00fdb4d8     F8x15B_ASCII.obj
 0003:009c84e8       _acF8x15B_ASCII_87         00fdb4e8     F8x15B_ASCII.obj
 0003:009c84f8       _acF8x15B_ASCII_88         00fdb4f8     F8x15B_ASCII.obj
 0003:009c8508       _acF8x15B_ASCII_89         00fdb508     F8x15B_ASCII.obj
 0003:009c8518       _acF8x15B_ASCII_90         00fdb518     F8x15B_ASCII.obj
 0003:009c8528       _acF8x15B_ASCII_91         00fdb528     F8x15B_ASCII.obj
 0003:009c8538       _acF8x15B_ASCII_92         00fdb538     F8x15B_ASCII.obj
 0003:009c8548       _acF8x15B_ASCII_93         00fdb548     F8x15B_ASCII.obj
 0003:009c8558       _acF8x15B_ASCII_94         00fdb558     F8x15B_ASCII.obj
 0003:009c8568       _acF8x15B_ASCII_95         00fdb568     F8x15B_ASCII.obj
 0003:009c8578       _acF8x15B_ASCII_96         00fdb578     F8x15B_ASCII.obj
 0003:009c8588       _acF8x15B_ASCII_97         00fdb588     F8x15B_ASCII.obj
 0003:009c8598       _acF8x15B_ASCII_98         00fdb598     F8x15B_ASCII.obj
 0003:009c85a8       _acF8x15B_ASCII_99         00fdb5a8     F8x15B_ASCII.obj
 0003:009c85b8       _acF8x15B_ASCII_100        00fdb5b8     F8x15B_ASCII.obj
 0003:009c85c8       _acF8x15B_ASCII_101        00fdb5c8     F8x15B_ASCII.obj
 0003:009c85d8       _acF8x15B_ASCII_102        00fdb5d8     F8x15B_ASCII.obj
 0003:009c85e8       _acF8x15B_ASCII_103        00fdb5e8     F8x15B_ASCII.obj
 0003:009c85f8       _acF8x15B_ASCII_104        00fdb5f8     F8x15B_ASCII.obj
 0003:009c8608       _acF8x15B_ASCII_105        00fdb608     F8x15B_ASCII.obj
 0003:009c8618       _acF8x15B_ASCII_106        00fdb618     F8x15B_ASCII.obj
 0003:009c8628       _acF8x15B_ASCII_107        00fdb628     F8x15B_ASCII.obj
 0003:009c8638       _acF8x15B_ASCII_108        00fdb638     F8x15B_ASCII.obj
 0003:009c8648       _acF8x15B_ASCII_109        00fdb648     F8x15B_ASCII.obj
 0003:009c8658       _acF8x15B_ASCII_110        00fdb658     F8x15B_ASCII.obj
 0003:009c8668       _acF8x15B_ASCII_111        00fdb668     F8x15B_ASCII.obj
 0003:009c8678       _acF8x15B_ASCII_112        00fdb678     F8x15B_ASCII.obj
 0003:009c8688       _acF8x15B_ASCII_113        00fdb688     F8x15B_ASCII.obj
 0003:009c8698       _acF8x15B_ASCII_114        00fdb698     F8x15B_ASCII.obj
 0003:009c86a8       _acF8x15B_ASCII_115        00fdb6a8     F8x15B_ASCII.obj
 0003:009c86b8       _acF8x15B_ASCII_116        00fdb6b8     F8x15B_ASCII.obj
 0003:009c86c8       _acF8x15B_ASCII_117        00fdb6c8     F8x15B_ASCII.obj
 0003:009c86d8       _acF8x15B_ASCII_118        00fdb6d8     F8x15B_ASCII.obj
 0003:009c86e8       _acF8x15B_ASCII_119        00fdb6e8     F8x15B_ASCII.obj
 0003:009c86f8       _acF8x15B_ASCII_120        00fdb6f8     F8x15B_ASCII.obj
 0003:009c8708       _acF8x15B_ASCII_121        00fdb708     F8x15B_ASCII.obj
 0003:009c8718       _acF8x15B_ASCII_122        00fdb718     F8x15B_ASCII.obj
 0003:009c8728       _acF8x15B_ASCII_123        00fdb728     F8x15B_ASCII.obj
 0003:009c8738       _acF8x15B_ASCII_124        00fdb738     F8x15B_ASCII.obj
 0003:009c8748       _acF8x15B_ASCII_125        00fdb748     F8x15B_ASCII.obj
 0003:009c8758       _acF8x15B_ASCII_126        00fdb758     F8x15B_ASCII.obj
 0003:009c8768       _acF8x15B_ASCII_127        00fdb768     F8x15B_ASCII.obj
 0003:009c8778       _GUI_CharInfoF8x15B_ASCII  00fdb778     F8x15B_ASCII.obj
 0003:009c8a78       _GUI_FontPropF8x15B_ASCII_1 00fdba78     F8x15B_ASCII.obj
 0003:009c8a84       _GUI_Font8x15B_ASCII       00fdba84     F8x15B_ASCII.obj
 0003:009c8c80       _acFont8x16                00fdbc80     F8x16.obj
 0003:009c96b0       _TransList8x16             00fdc6b0     F8x16.obj
 0003:009c9870       _TransInfo8x16             00fdc870     F8x16.obj
 0003:009c9878       _FontMono8x16              00fdc878     F8x16.obj
 0003:009c988c       _GUI_Font8x16              00fdc88c     F8x16.obj
 0003:009c98b0       _GUI_Font8x17              00fdc8b0     F8x16.obj
 0003:009c98d4       _GUI_Font8x18              00fdc8d4     F8x16.obj
 0003:009c9920       _GUI_Font8x16x1x2          00fdc920     F8x16.obj
 0003:009c9944       _GUI_Font8x16x2x2          00fdc944     F8x16.obj
 0003:009c9968       _GUI_Font8x16x3x3          00fdc968     F8x16.obj
 0003:009c9c28       _acF8x16_1_160             00fdcc28     F8x16_1.obj
 0003:009c9c38       _acF8x16_1_161             00fdcc38     F8x16_1.obj
 0003:009c9c48       _acF8x16_1_162             00fdcc48     F8x16_1.obj
 0003:009c9c58       _acF8x16_1_163             00fdcc58     F8x16_1.obj
 0003:009c9c68       _acF8x16_1_164             00fdcc68     F8x16_1.obj
 0003:009c9c78       _acF8x16_1_165             00fdcc78     F8x16_1.obj
 0003:009c9c88       _acF8x16_1_166             00fdcc88     F8x16_1.obj
 0003:009c9c98       _acF8x16_1_167             00fdcc98     F8x16_1.obj
 0003:009c9ca8       _acF8x16_1_168             00fdcca8     F8x16_1.obj
 0003:009c9cb8       _acF8x16_1_169             00fdccb8     F8x16_1.obj
 0003:009c9cc8       _acF8x16_1_170             00fdccc8     F8x16_1.obj
 0003:009c9cd8       _acF8x16_1_171             00fdccd8     F8x16_1.obj
 0003:009c9ce8       _acF8x16_1_172             00fdcce8     F8x16_1.obj
 0003:009c9cf8       _acF8x16_1_173             00fdccf8     F8x16_1.obj
 0003:009c9d08       _acF8x16_1_174             00fdcd08     F8x16_1.obj
 0003:009c9d18       _acF8x16_1_175             00fdcd18     F8x16_1.obj
 0003:009c9d28       _acF8x16_1_176             00fdcd28     F8x16_1.obj
 0003:009c9d38       _acF8x16_1_177             00fdcd38     F8x16_1.obj
 0003:009c9d48       _acF8x16_1_178             00fdcd48     F8x16_1.obj
 0003:009c9d58       _acF8x16_1_179             00fdcd58     F8x16_1.obj
 0003:009c9d68       _acF8x16_1_180             00fdcd68     F8x16_1.obj
 0003:009c9d78       _acF8x16_1_181             00fdcd78     F8x16_1.obj
 0003:009c9d88       _acF8x16_1_182             00fdcd88     F8x16_1.obj
 0003:009c9d98       _acF8x16_1_183             00fdcd98     F8x16_1.obj
 0003:009c9da8       _acF8x16_1_184             00fdcda8     F8x16_1.obj
 0003:009c9db8       _acF8x16_1_185             00fdcdb8     F8x16_1.obj
 0003:009c9dc8       _acF8x16_1_186             00fdcdc8     F8x16_1.obj
 0003:009c9dd8       _acF8x16_1_187             00fdcdd8     F8x16_1.obj
 0003:009c9de8       _acF8x16_1_188             00fdcde8     F8x16_1.obj
 0003:009c9df8       _acF8x16_1_189             00fdcdf8     F8x16_1.obj
 0003:009c9e08       _acF8x16_1_190             00fdce08     F8x16_1.obj
 0003:009c9e18       _acF8x16_1_191             00fdce18     F8x16_1.obj
 0003:009c9e28       _acF8x16_1_192             00fdce28     F8x16_1.obj
 0003:009c9e38       _acF8x16_1_193             00fdce38     F8x16_1.obj
 0003:009c9e48       _acF8x16_1_194             00fdce48     F8x16_1.obj
 0003:009c9e58       _acF8x16_1_195             00fdce58     F8x16_1.obj
 0003:009c9e68       _acF8x16_1_196             00fdce68     F8x16_1.obj
 0003:009c9e78       _acF8x16_1_197             00fdce78     F8x16_1.obj
 0003:009c9e88       _acF8x16_1_198             00fdce88     F8x16_1.obj
 0003:009c9e98       _acF8x16_1_199             00fdce98     F8x16_1.obj
 0003:009c9ea8       _acF8x16_1_200             00fdcea8     F8x16_1.obj
 0003:009c9eb8       _acF8x16_1_201             00fdceb8     F8x16_1.obj
 0003:009c9ec8       _acF8x16_1_202             00fdcec8     F8x16_1.obj
 0003:009c9ed8       _acF8x16_1_203             00fdced8     F8x16_1.obj
 0003:009c9ee8       _acF8x16_1_204             00fdcee8     F8x16_1.obj
 0003:009c9ef8       _acF8x16_1_205             00fdcef8     F8x16_1.obj
 0003:009c9f08       _acF8x16_1_206             00fdcf08     F8x16_1.obj
 0003:009c9f18       _acF8x16_1_207             00fdcf18     F8x16_1.obj
 0003:009c9f28       _acF8x16_1_208             00fdcf28     F8x16_1.obj
 0003:009c9f38       _acF8x16_1_209             00fdcf38     F8x16_1.obj
 0003:009c9f48       _acF8x16_1_210             00fdcf48     F8x16_1.obj
 0003:009c9f58       _acF8x16_1_211             00fdcf58     F8x16_1.obj
 0003:009c9f68       _acF8x16_1_212             00fdcf68     F8x16_1.obj
 0003:009c9f78       _acF8x16_1_213             00fdcf78     F8x16_1.obj
 0003:009c9f88       _acF8x16_1_214             00fdcf88     F8x16_1.obj
 0003:009c9f98       _acF8x16_1_215             00fdcf98     F8x16_1.obj
 0003:009c9fa8       _acF8x16_1_216             00fdcfa8     F8x16_1.obj
 0003:009c9fb8       _acF8x16_1_217             00fdcfb8     F8x16_1.obj
 0003:009c9fc8       _acF8x16_1_218             00fdcfc8     F8x16_1.obj
 0003:009c9fd8       _acF8x16_1_219             00fdcfd8     F8x16_1.obj
 0003:009c9fe8       _acF8x16_1_220             00fdcfe8     F8x16_1.obj
 0003:009c9ff8       _acF8x16_1_221             00fdcff8     F8x16_1.obj
 0003:009ca008       _acF8x16_1_222             00fdd008     F8x16_1.obj
 0003:009ca018       _acF8x16_1_223             00fdd018     F8x16_1.obj
 0003:009ca028       _acF8x16_1_224             00fdd028     F8x16_1.obj
 0003:009ca038       _acF8x16_1_225             00fdd038     F8x16_1.obj
 0003:009ca048       _acF8x16_1_226             00fdd048     F8x16_1.obj
 0003:009ca058       _acF8x16_1_227             00fdd058     F8x16_1.obj
 0003:009ca068       _acF8x16_1_228             00fdd068     F8x16_1.obj
 0003:009ca078       _acF8x16_1_229             00fdd078     F8x16_1.obj
 0003:009ca088       _acF8x16_1_230             00fdd088     F8x16_1.obj
 0003:009ca098       _acF8x16_1_231             00fdd098     F8x16_1.obj
 0003:009ca0a8       _acF8x16_1_232             00fdd0a8     F8x16_1.obj
 0003:009ca0b8       _acF8x16_1_233             00fdd0b8     F8x16_1.obj
 0003:009ca0c8       _acF8x16_1_234             00fdd0c8     F8x16_1.obj
 0003:009ca0d8       _acF8x16_1_235             00fdd0d8     F8x16_1.obj
 0003:009ca0e8       _acF8x16_1_236             00fdd0e8     F8x16_1.obj
 0003:009ca0f8       _acF8x16_1_237             00fdd0f8     F8x16_1.obj
 0003:009ca108       _acF8x16_1_238             00fdd108     F8x16_1.obj
 0003:009ca118       _acF8x16_1_239             00fdd118     F8x16_1.obj
 0003:009ca128       _acF8x16_1_240             00fdd128     F8x16_1.obj
 0003:009ca138       _acF8x16_1_241             00fdd138     F8x16_1.obj
 0003:009ca148       _acF8x16_1_242             00fdd148     F8x16_1.obj
 0003:009ca158       _acF8x16_1_243             00fdd158     F8x16_1.obj
 0003:009ca168       _acF8x16_1_244             00fdd168     F8x16_1.obj
 0003:009ca178       _acF8x16_1_245             00fdd178     F8x16_1.obj
 0003:009ca188       _acF8x16_1_246             00fdd188     F8x16_1.obj
 0003:009ca198       _acF8x16_1_247             00fdd198     F8x16_1.obj
 0003:009ca1a8       _acF8x16_1_248             00fdd1a8     F8x16_1.obj
 0003:009ca1b8       _acF8x16_1_249             00fdd1b8     F8x16_1.obj
 0003:009ca1c8       _acF8x16_1_250             00fdd1c8     F8x16_1.obj
 0003:009ca1d8       _acF8x16_1_251             00fdd1d8     F8x16_1.obj
 0003:009ca1e8       _acF8x16_1_252             00fdd1e8     F8x16_1.obj
 0003:009ca1f8       _acF8x16_1_253             00fdd1f8     F8x16_1.obj
 0003:009ca208       _acF8x16_1_254             00fdd208     F8x16_1.obj
 0003:009ca218       _acF8x16_1_255             00fdd218     F8x16_1.obj
 0003:009ca228       _GUI_CharInfoF8x16_1       00fdd228     F8x16_1.obj
 0003:009ca528       _GUI_FontPropF8x16_1       00fdd528     F8x16_1.obj
 0003:009ca534       _GUI_Font8x16_1            00fdd534     F8x16_1.obj
 0003:009ca730       _acFont8x16ASCII_0020      00fdd730     F8x16_ASCII.obj
 0003:009ca740       _acFont8x16ASCII_0021      00fdd740     F8x16_ASCII.obj
 0003:009ca750       _acFont8x16ASCII_0022      00fdd750     F8x16_ASCII.obj
 0003:009ca760       _acFont8x16ASCII_0023      00fdd760     F8x16_ASCII.obj
 0003:009ca770       _acFont8x16ASCII_0024      00fdd770     F8x16_ASCII.obj
 0003:009ca780       _acFont8x16ASCII_0025      00fdd780     F8x16_ASCII.obj
 0003:009ca790       _acFont8x16ASCII_0026      00fdd790     F8x16_ASCII.obj
 0003:009ca7a0       _acFont8x16ASCII_0027      00fdd7a0     F8x16_ASCII.obj
 0003:009ca7b0       _acFont8x16ASCII_0028      00fdd7b0     F8x16_ASCII.obj
 0003:009ca7c0       _acFont8x16ASCII_0029      00fdd7c0     F8x16_ASCII.obj
 0003:009ca7d0       _acFont8x16ASCII_002A      00fdd7d0     F8x16_ASCII.obj
 0003:009ca7e0       _acFont8x16ASCII_002B      00fdd7e0     F8x16_ASCII.obj
 0003:009ca7f0       _acFont8x16ASCII_002C      00fdd7f0     F8x16_ASCII.obj
 0003:009ca800       _acFont8x16ASCII_002D      00fdd800     F8x16_ASCII.obj
 0003:009ca810       _acFont8x16ASCII_002E      00fdd810     F8x16_ASCII.obj
 0003:009ca820       _acFont8x16ASCII_002F      00fdd820     F8x16_ASCII.obj
 0003:009ca830       _acFont8x16ASCII_0030      00fdd830     F8x16_ASCII.obj
 0003:009ca840       _acFont8x16ASCII_0031      00fdd840     F8x16_ASCII.obj
 0003:009ca850       _acFont8x16ASCII_0032      00fdd850     F8x16_ASCII.obj
 0003:009ca860       _acFont8x16ASCII_0033      00fdd860     F8x16_ASCII.obj
 0003:009ca870       _acFont8x16ASCII_0034      00fdd870     F8x16_ASCII.obj
 0003:009ca880       _acFont8x16ASCII_0035      00fdd880     F8x16_ASCII.obj
 0003:009ca890       _acFont8x16ASCII_0036      00fdd890     F8x16_ASCII.obj
 0003:009ca8a0       _acFont8x16ASCII_0037      00fdd8a0     F8x16_ASCII.obj
 0003:009ca8b0       _acFont8x16ASCII_0038      00fdd8b0     F8x16_ASCII.obj
 0003:009ca8c0       _acFont8x16ASCII_0039      00fdd8c0     F8x16_ASCII.obj
 0003:009ca8d0       _acFont8x16ASCII_003A      00fdd8d0     F8x16_ASCII.obj
 0003:009ca8e0       _acFont8x16ASCII_003B      00fdd8e0     F8x16_ASCII.obj
 0003:009ca8f0       _acFont8x16ASCII_003C      00fdd8f0     F8x16_ASCII.obj
 0003:009ca900       _acFont8x16ASCII_003D      00fdd900     F8x16_ASCII.obj
 0003:009ca910       _acFont8x16ASCII_003E      00fdd910     F8x16_ASCII.obj
 0003:009ca920       _acFont8x16ASCII_003F      00fdd920     F8x16_ASCII.obj
 0003:009ca930       _acFont8x16ASCII_0040      00fdd930     F8x16_ASCII.obj
 0003:009ca940       _acFont8x16ASCII_0041      00fdd940     F8x16_ASCII.obj
 0003:009ca950       _acFont8x16ASCII_0042      00fdd950     F8x16_ASCII.obj
 0003:009ca960       _acFont8x16ASCII_0043      00fdd960     F8x16_ASCII.obj
 0003:009ca970       _acFont8x16ASCII_0044      00fdd970     F8x16_ASCII.obj
 0003:009ca980       _acFont8x16ASCII_0045      00fdd980     F8x16_ASCII.obj
 0003:009ca990       _acFont8x16ASCII_0046      00fdd990     F8x16_ASCII.obj
 0003:009ca9a0       _acFont8x16ASCII_0047      00fdd9a0     F8x16_ASCII.obj
 0003:009ca9b0       _acFont8x16ASCII_0048      00fdd9b0     F8x16_ASCII.obj
 0003:009ca9c0       _acFont8x16ASCII_0049      00fdd9c0     F8x16_ASCII.obj
 0003:009ca9d0       _acFont8x16ASCII_004A      00fdd9d0     F8x16_ASCII.obj
 0003:009ca9e0       _acFont8x16ASCII_004B      00fdd9e0     F8x16_ASCII.obj
 0003:009ca9f0       _acFont8x16ASCII_004C      00fdd9f0     F8x16_ASCII.obj
 0003:009caa00       _acFont8x16ASCII_004D      00fdda00     F8x16_ASCII.obj
 0003:009caa10       _acFont8x16ASCII_004E      00fdda10     F8x16_ASCII.obj
 0003:009caa20       _acFont8x16ASCII_004F      00fdda20     F8x16_ASCII.obj
 0003:009caa30       _acFont8x16ASCII_0050      00fdda30     F8x16_ASCII.obj
 0003:009caa40       _acFont8x16ASCII_0051      00fdda40     F8x16_ASCII.obj
 0003:009caa50       _acFont8x16ASCII_0052      00fdda50     F8x16_ASCII.obj
 0003:009caa60       _acFont8x16ASCII_0053      00fdda60     F8x16_ASCII.obj
 0003:009caa70       _acFont8x16ASCII_0054      00fdda70     F8x16_ASCII.obj
 0003:009caa80       _acFont8x16ASCII_0055      00fdda80     F8x16_ASCII.obj
 0003:009caa90       _acFont8x16ASCII_0056      00fdda90     F8x16_ASCII.obj
 0003:009caaa0       _acFont8x16ASCII_0057      00fddaa0     F8x16_ASCII.obj
 0003:009caab0       _acFont8x16ASCII_0058      00fddab0     F8x16_ASCII.obj
 0003:009caac0       _acFont8x16ASCII_0059      00fddac0     F8x16_ASCII.obj
 0003:009caad0       _acFont8x16ASCII_005A      00fddad0     F8x16_ASCII.obj
 0003:009caae0       _acFont8x16ASCII_005B      00fddae0     F8x16_ASCII.obj
 0003:009caaf0       _acFont8x16ASCII_005C      00fddaf0     F8x16_ASCII.obj
 0003:009cab00       _acFont8x16ASCII_005D      00fddb00     F8x16_ASCII.obj
 0003:009cab10       _acFont8x16ASCII_005E      00fddb10     F8x16_ASCII.obj
 0003:009cab20       _acFont8x16ASCII_005F      00fddb20     F8x16_ASCII.obj
 0003:009cab30       _acFont8x16ASCII_0060      00fddb30     F8x16_ASCII.obj
 0003:009cab40       _acFont8x16ASCII_0061      00fddb40     F8x16_ASCII.obj
 0003:009cab50       _acFont8x16ASCII_0062      00fddb50     F8x16_ASCII.obj
 0003:009cab60       _acFont8x16ASCII_0063      00fddb60     F8x16_ASCII.obj
 0003:009cab70       _acFont8x16ASCII_0064      00fddb70     F8x16_ASCII.obj
 0003:009cab80       _acFont8x16ASCII_0065      00fddb80     F8x16_ASCII.obj
 0003:009cab90       _acFont8x16ASCII_0066      00fddb90     F8x16_ASCII.obj
 0003:009caba0       _acFont8x16ASCII_0067      00fddba0     F8x16_ASCII.obj
 0003:009cabb0       _acFont8x16ASCII_0068      00fddbb0     F8x16_ASCII.obj
 0003:009cabc0       _acFont8x16ASCII_0069      00fddbc0     F8x16_ASCII.obj
 0003:009cabd0       _acFont8x16ASCII_006A      00fddbd0     F8x16_ASCII.obj
 0003:009cabe0       _acFont8x16ASCII_006B      00fddbe0     F8x16_ASCII.obj
 0003:009cabf0       _acFont8x16ASCII_006C      00fddbf0     F8x16_ASCII.obj
 0003:009cac00       _acFont8x16ASCII_006D      00fddc00     F8x16_ASCII.obj
 0003:009cac10       _acFont8x16ASCII_006E      00fddc10     F8x16_ASCII.obj
 0003:009cac20       _acFont8x16ASCII_006F      00fddc20     F8x16_ASCII.obj
 0003:009cac30       _acFont8x16ASCII_0070      00fddc30     F8x16_ASCII.obj
 0003:009cac40       _acFont8x16ASCII_0071      00fddc40     F8x16_ASCII.obj
 0003:009cac50       _acFont8x16ASCII_0072      00fddc50     F8x16_ASCII.obj
 0003:009cac60       _acFont8x16ASCII_0073      00fddc60     F8x16_ASCII.obj
 0003:009cac70       _acFont8x16ASCII_0074      00fddc70     F8x16_ASCII.obj
 0003:009cac80       _acFont8x16ASCII_0075      00fddc80     F8x16_ASCII.obj
 0003:009cac90       _acFont8x16ASCII_0076      00fddc90     F8x16_ASCII.obj
 0003:009caca0       _acFont8x16ASCII_0077      00fddca0     F8x16_ASCII.obj
 0003:009cacb0       _acFont8x16ASCII_0078      00fddcb0     F8x16_ASCII.obj
 0003:009cacc0       _acFont8x16ASCII_0079      00fddcc0     F8x16_ASCII.obj
 0003:009cacd0       _acFont8x16ASCII_007A      00fddcd0     F8x16_ASCII.obj
 0003:009cace0       _acFont8x16ASCII_007B      00fddce0     F8x16_ASCII.obj
 0003:009cacf0       _acFont8x16ASCII_007C      00fddcf0     F8x16_ASCII.obj
 0003:009cad00       _acFont8x16ASCII_007D      00fddd00     F8x16_ASCII.obj
 0003:009cad10       _acFont8x16ASCII_007E      00fddd10     F8x16_ASCII.obj
 0003:009cad20       _GUI_Font8x16ASCII_CharInfo 00fddd20     F8x16_ASCII.obj
 0003:009cb018       _GUI_Font8x16ASCII_Prop0   00fde018     F8x16_ASCII.obj
 0003:009cb024       _GUI_Font8x16_ASCII        00fde024     F8x16_ASCII.obj
 0003:009cb220       _GUI_F8x8_acFont           00fde220     F8x8.obj
 0003:009cb738       _GUI_F8x8_TransList        00fde738     F8x8.obj
 0003:009cb8f8       _GUI_F8x8_TransInfo        00fde8f8     F8x8.obj
 0003:009cb900       _GUI_F8x8_Mono             00fde900     F8x8.obj
 0003:009cb914       _GUI_Font8x8               00fde914     F8x8.obj
 0003:009cb938       _GUI_Font8x9               00fde938     F8x8.obj
 0003:009cbad0       _acF8x8_1_160              00fdead0     F8x8_1.obj
 0003:009cbad8       _acF8x8_1_161              00fdead8     F8x8_1.obj
 0003:009cbae0       _acF8x8_1_162              00fdeae0     F8x8_1.obj
 0003:009cbae8       _acF8x8_1_163              00fdeae8     F8x8_1.obj
 0003:009cbaf0       _acF8x8_1_164              00fdeaf0     F8x8_1.obj
 0003:009cbaf8       _acF8x8_1_165              00fdeaf8     F8x8_1.obj
 0003:009cbb00       _acF8x8_1_166              00fdeb00     F8x8_1.obj
 0003:009cbb08       _acF8x8_1_167              00fdeb08     F8x8_1.obj
 0003:009cbb10       _acF8x8_1_168              00fdeb10     F8x8_1.obj
 0003:009cbb18       _acF8x8_1_169              00fdeb18     F8x8_1.obj
 0003:009cbb20       _acF8x8_1_170              00fdeb20     F8x8_1.obj
 0003:009cbb28       _acF8x8_1_171              00fdeb28     F8x8_1.obj
 0003:009cbb30       _acF8x8_1_172              00fdeb30     F8x8_1.obj
 0003:009cbb38       _acF8x8_1_173              00fdeb38     F8x8_1.obj
 0003:009cbb40       _acF8x8_1_174              00fdeb40     F8x8_1.obj
 0003:009cbb48       _acF8x8_1_175              00fdeb48     F8x8_1.obj
 0003:009cbb50       _acF8x8_1_176              00fdeb50     F8x8_1.obj
 0003:009cbb58       _acF8x8_1_177              00fdeb58     F8x8_1.obj
 0003:009cbb60       _acF8x8_1_178              00fdeb60     F8x8_1.obj
 0003:009cbb68       _acF8x8_1_179              00fdeb68     F8x8_1.obj
 0003:009cbb70       _acF8x8_1_180              00fdeb70     F8x8_1.obj
 0003:009cbb78       _acF8x8_1_181              00fdeb78     F8x8_1.obj
 0003:009cbb80       _acF8x8_1_182              00fdeb80     F8x8_1.obj
 0003:009cbb88       _acF8x8_1_183              00fdeb88     F8x8_1.obj
 0003:009cbb90       _acF8x8_1_184              00fdeb90     F8x8_1.obj
 0003:009cbb98       _acF8x8_1_185              00fdeb98     F8x8_1.obj
 0003:009cbba0       _acF8x8_1_186              00fdeba0     F8x8_1.obj
 0003:009cbba8       _acF8x8_1_187              00fdeba8     F8x8_1.obj
 0003:009cbbb0       _acF8x8_1_188              00fdebb0     F8x8_1.obj
 0003:009cbbb8       _acF8x8_1_189              00fdebb8     F8x8_1.obj
 0003:009cbbc0       _acF8x8_1_190              00fdebc0     F8x8_1.obj
 0003:009cbbc8       _acF8x8_1_191              00fdebc8     F8x8_1.obj
 0003:009cbbd0       _acF8x8_1_192              00fdebd0     F8x8_1.obj
 0003:009cbbd8       _acF8x8_1_193              00fdebd8     F8x8_1.obj
 0003:009cbbe0       _acF8x8_1_194              00fdebe0     F8x8_1.obj
 0003:009cbbe8       _acF8x8_1_195              00fdebe8     F8x8_1.obj
 0003:009cbbf0       _acF8x8_1_196              00fdebf0     F8x8_1.obj
 0003:009cbbf8       _acF8x8_1_197              00fdebf8     F8x8_1.obj
 0003:009cbc00       _acF8x8_1_198              00fdec00     F8x8_1.obj
 0003:009cbc08       _acF8x8_1_199              00fdec08     F8x8_1.obj
 0003:009cbc10       _acF8x8_1_200              00fdec10     F8x8_1.obj
 0003:009cbc18       _acF8x8_1_201              00fdec18     F8x8_1.obj
 0003:009cbc20       _acF8x8_1_202              00fdec20     F8x8_1.obj
 0003:009cbc28       _acF8x8_1_203              00fdec28     F8x8_1.obj
 0003:009cbc30       _acF8x8_1_204              00fdec30     F8x8_1.obj
 0003:009cbc38       _acF8x8_1_205              00fdec38     F8x8_1.obj
 0003:009cbc40       _acF8x8_1_206              00fdec40     F8x8_1.obj
 0003:009cbc48       _acF8x8_1_207              00fdec48     F8x8_1.obj
 0003:009cbc50       _acF8x8_1_208              00fdec50     F8x8_1.obj
 0003:009cbc58       _acF8x8_1_209              00fdec58     F8x8_1.obj
 0003:009cbc60       _acF8x8_1_210              00fdec60     F8x8_1.obj
 0003:009cbc68       _acF8x8_1_211              00fdec68     F8x8_1.obj
 0003:009cbc70       _acF8x8_1_212              00fdec70     F8x8_1.obj
 0003:009cbc78       _acF8x8_1_213              00fdec78     F8x8_1.obj
 0003:009cbc80       _acF8x8_1_214              00fdec80     F8x8_1.obj
 0003:009cbc88       _acF8x8_1_215              00fdec88     F8x8_1.obj
 0003:009cbc90       _acF8x8_1_216              00fdec90     F8x8_1.obj
 0003:009cbc98       _acF8x8_1_217              00fdec98     F8x8_1.obj
 0003:009cbca0       _acF8x8_1_218              00fdeca0     F8x8_1.obj
 0003:009cbca8       _acF8x8_1_219              00fdeca8     F8x8_1.obj
 0003:009cbcb0       _acF8x8_1_220              00fdecb0     F8x8_1.obj
 0003:009cbcb8       _acF8x8_1_221              00fdecb8     F8x8_1.obj
 0003:009cbcc0       _acF8x8_1_222              00fdecc0     F8x8_1.obj
 0003:009cbcc8       _acF8x8_1_223              00fdecc8     F8x8_1.obj
 0003:009cbcd0       _acF8x8_1_224              00fdecd0     F8x8_1.obj
 0003:009cbcd8       _acF8x8_1_225              00fdecd8     F8x8_1.obj
 0003:009cbce0       _acF8x8_1_226              00fdece0     F8x8_1.obj
 0003:009cbce8       _acF8x8_1_227              00fdece8     F8x8_1.obj
 0003:009cbcf0       _acF8x8_1_228              00fdecf0     F8x8_1.obj
 0003:009cbcf8       _acF8x8_1_229              00fdecf8     F8x8_1.obj
 0003:009cbd00       _acF8x8_1_230              00fded00     F8x8_1.obj
 0003:009cbd08       _acF8x8_1_231              00fded08     F8x8_1.obj
 0003:009cbd10       _acF8x8_1_232              00fded10     F8x8_1.obj
 0003:009cbd18       _acF8x8_1_233              00fded18     F8x8_1.obj
 0003:009cbd20       _acF8x8_1_234              00fded20     F8x8_1.obj
 0003:009cbd28       _acF8x8_1_235              00fded28     F8x8_1.obj
 0003:009cbd30       _acF8x8_1_236              00fded30     F8x8_1.obj
 0003:009cbd38       _acF8x8_1_237              00fded38     F8x8_1.obj
 0003:009cbd40       _acF8x8_1_238              00fded40     F8x8_1.obj
 0003:009cbd48       _acF8x8_1_239              00fded48     F8x8_1.obj
 0003:009cbd50       _acF8x8_1_240              00fded50     F8x8_1.obj
 0003:009cbd58       _acF8x8_1_241              00fded58     F8x8_1.obj
 0003:009cbd60       _acF8x8_1_242              00fded60     F8x8_1.obj
 0003:009cbd68       _acF8x8_1_243              00fded68     F8x8_1.obj
 0003:009cbd70       _acF8x8_1_244              00fded70     F8x8_1.obj
 0003:009cbd78       _acF8x8_1_245              00fded78     F8x8_1.obj
 0003:009cbd80       _acF8x8_1_246              00fded80     F8x8_1.obj
 0003:009cbd88       _acF8x8_1_247              00fded88     F8x8_1.obj
 0003:009cbd90       _acF8x8_1_248              00fded90     F8x8_1.obj
 0003:009cbd98       _acF8x8_1_249              00fded98     F8x8_1.obj
 0003:009cbda0       _acF8x8_1_250              00fdeda0     F8x8_1.obj
 0003:009cbda8       _acF8x8_1_251              00fdeda8     F8x8_1.obj
 0003:009cbdb0       _acF8x8_1_252              00fdedb0     F8x8_1.obj
 0003:009cbdb8       _acF8x8_1_253              00fdedb8     F8x8_1.obj
 0003:009cbdc0       _acF8x8_1_254              00fdedc0     F8x8_1.obj
 0003:009cbdc8       _acF8x8_1_255              00fdedc8     F8x8_1.obj
 0003:009cbdd0       _GUI_CharInfoF8x8_1        00fdedd0     F8x8_1.obj
 0003:009cc0d0       _GUI_FontPropF8x8_1        00fdf0d0     F8x8_1.obj
 0003:009cc0dc       _GUI_Font8x8_1             00fdf0dc     F8x8_1.obj
 0003:009cc240       _acFont8x8ASCII_0020       00fdf240     F8x8_ASCII.obj
 0003:009cc248       _acFont8x8ASCII_0021       00fdf248     F8x8_ASCII.obj
 0003:009cc250       _acFont8x8ASCII_0022       00fdf250     F8x8_ASCII.obj
 0003:009cc258       _acFont8x8ASCII_0023       00fdf258     F8x8_ASCII.obj
 0003:009cc260       _acFont8x8ASCII_0024       00fdf260     F8x8_ASCII.obj
 0003:009cc268       _acFont8x8ASCII_0025       00fdf268     F8x8_ASCII.obj
 0003:009cc270       _acFont8x8ASCII_0026       00fdf270     F8x8_ASCII.obj
 0003:009cc278       _acFont8x8ASCII_0027       00fdf278     F8x8_ASCII.obj
 0003:009cc280       _acFont8x8ASCII_0028       00fdf280     F8x8_ASCII.obj
 0003:009cc288       _acFont8x8ASCII_0029       00fdf288     F8x8_ASCII.obj
 0003:009cc290       _acFont8x8ASCII_002A       00fdf290     F8x8_ASCII.obj
 0003:009cc298       _acFont8x8ASCII_002B       00fdf298     F8x8_ASCII.obj
 0003:009cc2a0       _acFont8x8ASCII_002C       00fdf2a0     F8x8_ASCII.obj
 0003:009cc2a8       _acFont8x8ASCII_002D       00fdf2a8     F8x8_ASCII.obj
 0003:009cc2b0       _acFont8x8ASCII_002E       00fdf2b0     F8x8_ASCII.obj
 0003:009cc2b8       _acFont8x8ASCII_002F       00fdf2b8     F8x8_ASCII.obj
 0003:009cc2c0       _acFont8x8ASCII_0030       00fdf2c0     F8x8_ASCII.obj
 0003:009cc2c8       _acFont8x8ASCII_0031       00fdf2c8     F8x8_ASCII.obj
 0003:009cc2d0       _acFont8x8ASCII_0032       00fdf2d0     F8x8_ASCII.obj
 0003:009cc2d8       _acFont8x8ASCII_0033       00fdf2d8     F8x8_ASCII.obj
 0003:009cc2e0       _acFont8x8ASCII_0034       00fdf2e0     F8x8_ASCII.obj
 0003:009cc2e8       _acFont8x8ASCII_0035       00fdf2e8     F8x8_ASCII.obj
 0003:009cc2f0       _acFont8x8ASCII_0036       00fdf2f0     F8x8_ASCII.obj
 0003:009cc2f8       _acFont8x8ASCII_0037       00fdf2f8     F8x8_ASCII.obj
 0003:009cc300       _acFont8x8ASCII_0038       00fdf300     F8x8_ASCII.obj
 0003:009cc308       _acFont8x8ASCII_0039       00fdf308     F8x8_ASCII.obj
 0003:009cc310       _acFont8x8ASCII_003A       00fdf310     F8x8_ASCII.obj
 0003:009cc318       _acFont8x8ASCII_003B       00fdf318     F8x8_ASCII.obj
 0003:009cc320       _acFont8x8ASCII_003C       00fdf320     F8x8_ASCII.obj
 0003:009cc328       _acFont8x8ASCII_003D       00fdf328     F8x8_ASCII.obj
 0003:009cc330       _acFont8x8ASCII_003E       00fdf330     F8x8_ASCII.obj
 0003:009cc338       _acFont8x8ASCII_003F       00fdf338     F8x8_ASCII.obj
 0003:009cc340       _acFont8x8ASCII_0040       00fdf340     F8x8_ASCII.obj
 0003:009cc348       _acFont8x8ASCII_0041       00fdf348     F8x8_ASCII.obj
 0003:009cc350       _acFont8x8ASCII_0042       00fdf350     F8x8_ASCII.obj
 0003:009cc358       _acFont8x8ASCII_0043       00fdf358     F8x8_ASCII.obj
 0003:009cc360       _acFont8x8ASCII_0044       00fdf360     F8x8_ASCII.obj
 0003:009cc368       _acFont8x8ASCII_0045       00fdf368     F8x8_ASCII.obj
 0003:009cc370       _acFont8x8ASCII_0046       00fdf370     F8x8_ASCII.obj
 0003:009cc378       _acFont8x8ASCII_0047       00fdf378     F8x8_ASCII.obj
 0003:009cc380       _acFont8x8ASCII_0048       00fdf380     F8x8_ASCII.obj
 0003:009cc388       _acFont8x8ASCII_0049       00fdf388     F8x8_ASCII.obj
 0003:009cc390       _acFont8x8ASCII_004A       00fdf390     F8x8_ASCII.obj
 0003:009cc398       _acFont8x8ASCII_004B       00fdf398     F8x8_ASCII.obj
 0003:009cc3a0       _acFont8x8ASCII_004C       00fdf3a0     F8x8_ASCII.obj
 0003:009cc3a8       _acFont8x8ASCII_004D       00fdf3a8     F8x8_ASCII.obj
 0003:009cc3b0       _acFont8x8ASCII_004E       00fdf3b0     F8x8_ASCII.obj
 0003:009cc3b8       _acFont8x8ASCII_004F       00fdf3b8     F8x8_ASCII.obj
 0003:009cc3c0       _acFont8x8ASCII_0050       00fdf3c0     F8x8_ASCII.obj
 0003:009cc3c8       _acFont8x8ASCII_0051       00fdf3c8     F8x8_ASCII.obj
 0003:009cc3d0       _acFont8x8ASCII_0052       00fdf3d0     F8x8_ASCII.obj
 0003:009cc3d8       _acFont8x8ASCII_0053       00fdf3d8     F8x8_ASCII.obj
 0003:009cc3e0       _acFont8x8ASCII_0054       00fdf3e0     F8x8_ASCII.obj
 0003:009cc3e8       _acFont8x8ASCII_0055       00fdf3e8     F8x8_ASCII.obj
 0003:009cc3f0       _acFont8x8ASCII_0056       00fdf3f0     F8x8_ASCII.obj
 0003:009cc3f8       _acFont8x8ASCII_0057       00fdf3f8     F8x8_ASCII.obj
 0003:009cc400       _acFont8x8ASCII_0058       00fdf400     F8x8_ASCII.obj
 0003:009cc408       _acFont8x8ASCII_0059       00fdf408     F8x8_ASCII.obj
 0003:009cc410       _acFont8x8ASCII_005A       00fdf410     F8x8_ASCII.obj
 0003:009cc418       _acFont8x8ASCII_005B       00fdf418     F8x8_ASCII.obj
 0003:009cc420       _acFont8x8ASCII_005C       00fdf420     F8x8_ASCII.obj
 0003:009cc428       _acFont8x8ASCII_005D       00fdf428     F8x8_ASCII.obj
 0003:009cc430       _acFont8x8ASCII_005E       00fdf430     F8x8_ASCII.obj
 0003:009cc438       _acFont8x8ASCII_005F       00fdf438     F8x8_ASCII.obj
 0003:009cc440       _acFont8x8ASCII_0060       00fdf440     F8x8_ASCII.obj
 0003:009cc448       _acFont8x8ASCII_0061       00fdf448     F8x8_ASCII.obj
 0003:009cc450       _acFont8x8ASCII_0062       00fdf450     F8x8_ASCII.obj
 0003:009cc458       _acFont8x8ASCII_0063       00fdf458     F8x8_ASCII.obj
 0003:009cc460       _acFont8x8ASCII_0064       00fdf460     F8x8_ASCII.obj
 0003:009cc468       _acFont8x8ASCII_0065       00fdf468     F8x8_ASCII.obj
 0003:009cc470       _acFont8x8ASCII_0066       00fdf470     F8x8_ASCII.obj
 0003:009cc478       _acFont8x8ASCII_0067       00fdf478     F8x8_ASCII.obj
 0003:009cc480       _acFont8x8ASCII_0068       00fdf480     F8x8_ASCII.obj
 0003:009cc488       _acFont8x8ASCII_0069       00fdf488     F8x8_ASCII.obj
 0003:009cc490       _acFont8x8ASCII_006A       00fdf490     F8x8_ASCII.obj
 0003:009cc498       _acFont8x8ASCII_006B       00fdf498     F8x8_ASCII.obj
 0003:009cc4a0       _acFont8x8ASCII_006C       00fdf4a0     F8x8_ASCII.obj
 0003:009cc4a8       _acFont8x8ASCII_006D       00fdf4a8     F8x8_ASCII.obj
 0003:009cc4b0       _acFont8x8ASCII_006E       00fdf4b0     F8x8_ASCII.obj
 0003:009cc4b8       _acFont8x8ASCII_006F       00fdf4b8     F8x8_ASCII.obj
 0003:009cc4c0       _acFont8x8ASCII_0070       00fdf4c0     F8x8_ASCII.obj
 0003:009cc4c8       _acFont8x8ASCII_0071       00fdf4c8     F8x8_ASCII.obj
 0003:009cc4d0       _acFont8x8ASCII_0072       00fdf4d0     F8x8_ASCII.obj
 0003:009cc4d8       _acFont8x8ASCII_0073       00fdf4d8     F8x8_ASCII.obj
 0003:009cc4e0       _acFont8x8ASCII_0074       00fdf4e0     F8x8_ASCII.obj
 0003:009cc4e8       _acFont8x8ASCII_0075       00fdf4e8     F8x8_ASCII.obj
 0003:009cc4f0       _acFont8x8ASCII_0076       00fdf4f0     F8x8_ASCII.obj
 0003:009cc4f8       _acFont8x8ASCII_0077       00fdf4f8     F8x8_ASCII.obj
 0003:009cc500       _acFont8x8ASCII_0078       00fdf500     F8x8_ASCII.obj
 0003:009cc508       _acFont8x8ASCII_0079       00fdf508     F8x8_ASCII.obj
 0003:009cc510       _acFont8x8ASCII_007A       00fdf510     F8x8_ASCII.obj
 0003:009cc518       _acFont8x8ASCII_007B       00fdf518     F8x8_ASCII.obj
 0003:009cc520       _acFont8x8ASCII_007C       00fdf520     F8x8_ASCII.obj
 0003:009cc528       _acFont8x8ASCII_007D       00fdf528     F8x8_ASCII.obj
 0003:009cc530       _acFont8x8ASCII_007E       00fdf530     F8x8_ASCII.obj
 0003:009cc538       _GUI_Font8x8ASCII_CharInfo 00fdf538     F8x8_ASCII.obj
 0003:009cc830       _GUI_Font8x8ASCII_Prop0    00fdf830     F8x8_ASCII.obj
 0003:009cc83c       _GUI_Font8x8_ASCII         00fdf83c     F8x8_ASCII.obj
 0003:009cc9a0       _acFontComic18B_1_160      00fdf9a0     FComic18B_1.obj
 0003:009cc9b4       _acFontComic18B_1_161      00fdf9b4     FComic18B_1.obj
 0003:009cc9c8       _acFontComic18B_1_162      00fdf9c8     FComic18B_1.obj
 0003:009cc9ec       _acFontComic18B_1_163      00fdf9ec     FComic18B_1.obj
 0003:009cca10       _acFontComic18B_1_164      00fdfa10     FComic18B_1.obj
 0003:009cca34       _acFontComic18B_1_165      00fdfa34     FComic18B_1.obj
 0003:009cca58       _acFontComic18B_1_166      00fdfa58     FComic18B_1.obj
 0003:009cca6c       _acFontComic18B_1_167      00fdfa6c     FComic18B_1.obj
 0003:009cca90       _acFontComic18B_1_168      00fdfa90     FComic18B_1.obj
 0003:009ccab4       _acFontComic18B_1_169      00fdfab4     FComic18B_1.obj
 0003:009ccad8       _acFontComic18B_1_170      00fdfad8     FComic18B_1.obj
 0003:009ccaec       _acFontComic18B_1_171      00fdfaec     FComic18B_1.obj
 0003:009ccb10       _acFontComic18B_1_172      00fdfb10     FComic18B_1.obj
 0003:009ccb34       _acFontComic18B_1_173      00fdfb34     FComic18B_1.obj
 0003:009ccb48       _acFontComic18B_1_174      00fdfb48     FComic18B_1.obj
 0003:009ccb6c       _acFontComic18B_1_175      00fdfb6c     FComic18B_1.obj
 0003:009ccb90       _acFontComic18B_1_176      00fdfb90     FComic18B_1.obj
 0003:009ccba4       _acFontComic18B_1_177      00fdfba4     FComic18B_1.obj
 0003:009ccbb8       _acFontComic18B_1_178      00fdfbb8     FComic18B_1.obj
 0003:009ccbdc       _acFontComic18B_1_179      00fdfbdc     FComic18B_1.obj
 0003:009ccc00       _acFontComic18B_1_180      00fdfc00     FComic18B_1.obj
 0003:009ccc14       _acFontComic18B_1_181      00fdfc14     FComic18B_1.obj
 0003:009ccc28       _acFontComic18B_1_182      00fdfc28     FComic18B_1.obj
 0003:009ccc4c       _acFontComic18B_1_183      00fdfc4c     FComic18B_1.obj
 0003:009ccc60       _acFontComic18B_1_184      00fdfc60     FComic18B_1.obj
 0003:009ccc84       _acFontComic18B_1_185      00fdfc84     FComic18B_1.obj
 0003:009ccca8       _acFontComic18B_1_186      00fdfca8     FComic18B_1.obj
 0003:009cccbc       _acFontComic18B_1_187      00fdfcbc     FComic18B_1.obj
 0003:009ccce0       _acFontComic18B_1_188      00fdfce0     FComic18B_1.obj
 0003:009ccd04       _acFontComic18B_1_189      00fdfd04     FComic18B_1.obj
 0003:009ccd28       _acFontComic18B_1_190      00fdfd28     FComic18B_1.obj
 0003:009ccd4c       _acFontComic18B_1_191      00fdfd4c     FComic18B_1.obj
 0003:009ccd70       _acFontComic18B_1_192      00fdfd70     FComic18B_1.obj
 0003:009ccd94       _acFontComic18B_1_193      00fdfd94     FComic18B_1.obj
 0003:009ccdb8       _acFontComic18B_1_194      00fdfdb8     FComic18B_1.obj
 0003:009ccddc       _acFontComic18B_1_195      00fdfddc     FComic18B_1.obj
 0003:009cce00       _acFontComic18B_1_196      00fdfe00     FComic18B_1.obj
 0003:009cce24       _acFontComic18B_1_197      00fdfe24     FComic18B_1.obj
 0003:009cce48       _acFontComic18B_1_198      00fdfe48     FComic18B_1.obj
 0003:009cce80       _acFontComic18B_1_199      00fdfe80     FComic18B_1.obj
 0003:009ccea4       _acFontComic18B_1_200      00fdfea4     FComic18B_1.obj
 0003:009ccec8       _acFontComic18B_1_201      00fdfec8     FComic18B_1.obj
 0003:009cceec       _acFontComic18B_1_202      00fdfeec     FComic18B_1.obj
 0003:009ccf10       _acFontComic18B_1_203      00fdff10     FComic18B_1.obj
 0003:009ccf34       _acFontComic18B_1_204      00fdff34     FComic18B_1.obj
 0003:009ccf58       _acFontComic18B_1_205      00fdff58     FComic18B_1.obj
 0003:009ccf7c       _acFontComic18B_1_206      00fdff7c     FComic18B_1.obj
 0003:009ccfa0       _acFontComic18B_1_207      00fdffa0     FComic18B_1.obj
 0003:009ccfc4       _acFontComic18B_1_208      00fdffc4     FComic18B_1.obj
 0003:009ccfe8       _acFontComic18B_1_209      00fdffe8     FComic18B_1.obj
 0003:009cd00c       _acFontComic18B_1_210      00fe000c     FComic18B_1.obj
 0003:009cd030       _acFontComic18B_1_211      00fe0030     FComic18B_1.obj
 0003:009cd054       _acFontComic18B_1_212      00fe0054     FComic18B_1.obj
 0003:009cd078       _acFontComic18B_1_213      00fe0078     FComic18B_1.obj
 0003:009cd09c       _acFontComic18B_1_214      00fe009c     FComic18B_1.obj
 0003:009cd0c0       _acFontComic18B_1_215      00fe00c0     FComic18B_1.obj
 0003:009cd0d4       _acFontComic18B_1_216      00fe00d4     FComic18B_1.obj
 0003:009cd0f8       _acFontComic18B_1_217      00fe00f8     FComic18B_1.obj
 0003:009cd11c       _acFontComic18B_1_218      00fe011c     FComic18B_1.obj
 0003:009cd140       _acFontComic18B_1_219      00fe0140     FComic18B_1.obj
 0003:009cd164       _acFontComic18B_1_220      00fe0164     FComic18B_1.obj
 0003:009cd188       _acFontComic18B_1_221      00fe0188     FComic18B_1.obj
 0003:009cd1ac       _acFontComic18B_1_222      00fe01ac     FComic18B_1.obj
 0003:009cd1c0       _acFontComic18B_1_223      00fe01c0     FComic18B_1.obj
 0003:009cd1d4       _acFontComic18B_1_224      00fe01d4     FComic18B_1.obj
 0003:009cd1e8       _acFontComic18B_1_225      00fe01e8     FComic18B_1.obj
 0003:009cd1fc       _acFontComic18B_1_226      00fe01fc     FComic18B_1.obj
 0003:009cd210       _acFontComic18B_1_227      00fe0210     FComic18B_1.obj
 0003:009cd224       _acFontComic18B_1_228      00fe0224     FComic18B_1.obj
 0003:009cd238       _acFontComic18B_1_229      00fe0238     FComic18B_1.obj
 0003:009cd24c       _acFontComic18B_1_230      00fe024c     FComic18B_1.obj
 0003:009cd270       _acFontComic18B_1_231      00fe0270     FComic18B_1.obj
 0003:009cd284       _acFontComic18B_1_232      00fe0284     FComic18B_1.obj
 0003:009cd298       _acFontComic18B_1_233      00fe0298     FComic18B_1.obj
 0003:009cd2ac       _acFontComic18B_1_234      00fe02ac     FComic18B_1.obj
 0003:009cd2c0       _acFontComic18B_1_235      00fe02c0     FComic18B_1.obj
 0003:009cd2d4       _acFontComic18B_1_236      00fe02d4     FComic18B_1.obj
 0003:009cd2e8       _acFontComic18B_1_237      00fe02e8     FComic18B_1.obj
 0003:009cd2fc       _acFontComic18B_1_238      00fe02fc     FComic18B_1.obj
 0003:009cd310       _acFontComic18B_1_239      00fe0310     FComic18B_1.obj
 0003:009cd324       _acFontComic18B_1_240      00fe0324     FComic18B_1.obj
 0003:009cd338       _acFontComic18B_1_241      00fe0338     FComic18B_1.obj
 0003:009cd34c       _acFontComic18B_1_242      00fe034c     FComic18B_1.obj
 0003:009cd360       _acFontComic18B_1_243      00fe0360     FComic18B_1.obj
 0003:009cd374       _acFontComic18B_1_244      00fe0374     FComic18B_1.obj
 0003:009cd388       _acFontComic18B_1_245      00fe0388     FComic18B_1.obj
 0003:009cd39c       _acFontComic18B_1_246      00fe039c     FComic18B_1.obj
 0003:009cd3b0       _acFontComic18B_1_247      00fe03b0     FComic18B_1.obj
 0003:009cd3d4       _acFontComic18B_1_248      00fe03d4     FComic18B_1.obj
 0003:009cd3e8       _acFontComic18B_1_249      00fe03e8     FComic18B_1.obj
 0003:009cd3fc       _acFontComic18B_1_250      00fe03fc     FComic18B_1.obj
 0003:009cd410       _acFontComic18B_1_251      00fe0410     FComic18B_1.obj
 0003:009cd424       _acFontComic18B_1_252      00fe0424     FComic18B_1.obj
 0003:009cd438       _acFontComic18B_1_253      00fe0438     FComic18B_1.obj
 0003:009cd45c       _acFontComic18B_1_254      00fe045c     FComic18B_1.obj
 0003:009cd480       _acFontComic18B_1_255      00fe0480     FComic18B_1.obj
 0003:009cd4a8       _CharInfoComic18B_1_160_255 00fe04a8     FComic18B_1.obj
 0003:009cdab0       _FontComic18BProp_1_160    00fe0ab0     FComic18B_1.obj
 0003:009cdabc       _FontComic18BProp_1_32     00fe0abc     FComic18B_1.obj
 0003:009cdac8       _GUI_FontComic18B_1        00fe0ac8     FComic18B_1.obj
 0003:009cde68       _acFontComic18B_ASCII_32   00fe0e68     FComic18B_ASCII.obj
 0003:009cde7c       _acFontComic18B_ASCII_33   00fe0e7c     FComic18B_ASCII.obj
 0003:009cde90       _acFontComic18B_ASCII_34   00fe0e90     FComic18B_ASCII.obj
 0003:009cdea4       _acFontComic18B_ASCII_35   00fe0ea4     FComic18B_ASCII.obj
 0003:009cdec8       _acFontComic18B_ASCII_36   00fe0ec8     FComic18B_ASCII.obj
 0003:009cdeec       _acFontComic18B_ASCII_37   00fe0eec     FComic18B_ASCII.obj
 0003:009cdf10       _acFontComic18B_ASCII_38   00fe0f10     FComic18B_ASCII.obj
 0003:009cdf34       _acFontComic18B_ASCII_39   00fe0f34     FComic18B_ASCII.obj
 0003:009cdf48       _acFontComic18B_ASCII_40   00fe0f48     FComic18B_ASCII.obj
 0003:009cdf5c       _acFontComic18B_ASCII_41   00fe0f5c     FComic18B_ASCII.obj
 0003:009cdf70       _acFontComic18B_ASCII_42   00fe0f70     FComic18B_ASCII.obj
 0003:009cdf94       _acFontComic18B_ASCII_43   00fe0f94     FComic18B_ASCII.obj
 0003:009cdfa8       _acFontComic18B_ASCII_44   00fe0fa8     FComic18B_ASCII.obj
 0003:009cdfbc       _acFontComic18B_ASCII_45   00fe0fbc     FComic18B_ASCII.obj
 0003:009cdfd0       _acFontComic18B_ASCII_46   00fe0fd0     FComic18B_ASCII.obj
 0003:009cdfe4       _acFontComic18B_ASCII_47   00fe0fe4     FComic18B_ASCII.obj
 0003:009ce008       _acFontComic18B_ASCII_48   00fe1008     FComic18B_ASCII.obj
 0003:009ce02c       _acFontComic18B_ASCII_49   00fe102c     FComic18B_ASCII.obj
 0003:009ce040       _acFontComic18B_ASCII_50   00fe1040     FComic18B_ASCII.obj
 0003:009ce064       _acFontComic18B_ASCII_51   00fe1064     FComic18B_ASCII.obj
 0003:009ce088       _acFontComic18B_ASCII_52   00fe1088     FComic18B_ASCII.obj
 0003:009ce0ac       _acFontComic18B_ASCII_53   00fe10ac     FComic18B_ASCII.obj
 0003:009ce0d0       _acFontComic18B_ASCII_54   00fe10d0     FComic18B_ASCII.obj
 0003:009ce0f4       _acFontComic18B_ASCII_55   00fe10f4     FComic18B_ASCII.obj
 0003:009ce118       _acFontComic18B_ASCII_56   00fe1118     FComic18B_ASCII.obj
 0003:009ce13c       _acFontComic18B_ASCII_57   00fe113c     FComic18B_ASCII.obj
 0003:009ce160       _acFontComic18B_ASCII_58   00fe1160     FComic18B_ASCII.obj
 0003:009ce174       _acFontComic18B_ASCII_59   00fe1174     FComic18B_ASCII.obj
 0003:009ce188       _acFontComic18B_ASCII_60   00fe1188     FComic18B_ASCII.obj
 0003:009ce19c       _acFontComic18B_ASCII_61   00fe119c     FComic18B_ASCII.obj
 0003:009ce1b0       _acFontComic18B_ASCII_62   00fe11b0     FComic18B_ASCII.obj
 0003:009ce1c4       _acFontComic18B_ASCII_63   00fe11c4     FComic18B_ASCII.obj
 0003:009ce1e8       _acFontComic18B_ASCII_64   00fe11e8     FComic18B_ASCII.obj
 0003:009ce20c       _acFontComic18B_ASCII_65   00fe120c     FComic18B_ASCII.obj
 0003:009ce230       _acFontComic18B_ASCII_66   00fe1230     FComic18B_ASCII.obj
 0003:009ce254       _acFontComic18B_ASCII_67   00fe1254     FComic18B_ASCII.obj
 0003:009ce278       _acFontComic18B_ASCII_68   00fe1278     FComic18B_ASCII.obj
 0003:009ce29c       _acFontComic18B_ASCII_69   00fe129c     FComic18B_ASCII.obj
 0003:009ce2c0       _acFontComic18B_ASCII_70   00fe12c0     FComic18B_ASCII.obj
 0003:009ce2e4       _acFontComic18B_ASCII_71   00fe12e4     FComic18B_ASCII.obj
 0003:009ce308       _acFontComic18B_ASCII_72   00fe1308     FComic18B_ASCII.obj
 0003:009ce32c       _acFontComic18B_ASCII_73   00fe132c     FComic18B_ASCII.obj
 0003:009ce350       _acFontComic18B_ASCII_74   00fe1350     FComic18B_ASCII.obj
 0003:009ce374       _acFontComic18B_ASCII_75   00fe1374     FComic18B_ASCII.obj
 0003:009ce398       _acFontComic18B_ASCII_76   00fe1398     FComic18B_ASCII.obj
 0003:009ce3bc       _acFontComic18B_ASCII_77   00fe13bc     FComic18B_ASCII.obj
 0003:009ce3e0       _acFontComic18B_ASCII_78   00fe13e0     FComic18B_ASCII.obj
 0003:009ce404       _acFontComic18B_ASCII_79   00fe1404     FComic18B_ASCII.obj
 0003:009ce428       _acFontComic18B_ASCII_80   00fe1428     FComic18B_ASCII.obj
 0003:009ce43c       _acFontComic18B_ASCII_81   00fe143c     FComic18B_ASCII.obj
 0003:009ce460       _acFontComic18B_ASCII_82   00fe1460     FComic18B_ASCII.obj
 0003:009ce484       _acFontComic18B_ASCII_83   00fe1484     FComic18B_ASCII.obj
 0003:009ce4a8       _acFontComic18B_ASCII_84   00fe14a8     FComic18B_ASCII.obj
 0003:009ce4cc       _acFontComic18B_ASCII_85   00fe14cc     FComic18B_ASCII.obj
 0003:009ce4f0       _acFontComic18B_ASCII_86   00fe14f0     FComic18B_ASCII.obj
 0003:009ce514       _acFontComic18B_ASCII_87   00fe1514     FComic18B_ASCII.obj
 0003:009ce54c       _acFontComic18B_ASCII_88   00fe154c     FComic18B_ASCII.obj
 0003:009ce570       _acFontComic18B_ASCII_89   00fe1570     FComic18B_ASCII.obj
 0003:009ce594       _acFontComic18B_ASCII_90   00fe1594     FComic18B_ASCII.obj
 0003:009ce5b8       _acFontComic18B_ASCII_91   00fe15b8     FComic18B_ASCII.obj
 0003:009ce5cc       _acFontComic18B_ASCII_92   00fe15cc     FComic18B_ASCII.obj
 0003:009ce5e0       _acFontComic18B_ASCII_93   00fe15e0     FComic18B_ASCII.obj
 0003:009ce5f4       _acFontComic18B_ASCII_94   00fe15f4     FComic18B_ASCII.obj
 0003:009ce608       _acFontComic18B_ASCII_95   00fe1608     FComic18B_ASCII.obj
 0003:009ce62c       _acFontComic18B_ASCII_96   00fe162c     FComic18B_ASCII.obj
 0003:009ce650       _acFontComic18B_ASCII_97   00fe1650     FComic18B_ASCII.obj
 0003:009ce664       _acFontComic18B_ASCII_98   00fe1664     FComic18B_ASCII.obj
 0003:009ce688       _acFontComic18B_ASCII_99   00fe1688     FComic18B_ASCII.obj
 0003:009ce69c       _acFontComic18B_ASCII_100  00fe169c     FComic18B_ASCII.obj
 0003:009ce6c0       _acFontComic18B_ASCII_101  00fe16c0     FComic18B_ASCII.obj
 0003:009ce6d4       _acFontComic18B_ASCII_102  00fe16d4     FComic18B_ASCII.obj
 0003:009ce6e8       _acFontComic18B_ASCII_103  00fe16e8     FComic18B_ASCII.obj
 0003:009ce6fc       _acFontComic18B_ASCII_104  00fe16fc     FComic18B_ASCII.obj
 0003:009ce710       _acFontComic18B_ASCII_105  00fe1710     FComic18B_ASCII.obj
 0003:009ce724       _acFontComic18B_ASCII_106  00fe1724     FComic18B_ASCII.obj
 0003:009ce738       _acFontComic18B_ASCII_107  00fe1738     FComic18B_ASCII.obj
 0003:009ce75c       _acFontComic18B_ASCII_108  00fe175c     FComic18B_ASCII.obj
 0003:009ce770       _acFontComic18B_ASCII_109  00fe1770     FComic18B_ASCII.obj
 0003:009ce794       _acFontComic18B_ASCII_110  00fe1794     FComic18B_ASCII.obj
 0003:009ce7a8       _acFontComic18B_ASCII_111  00fe17a8     FComic18B_ASCII.obj
 0003:009ce7bc       _acFontComic18B_ASCII_112  00fe17bc     FComic18B_ASCII.obj
 0003:009ce7e0       _acFontComic18B_ASCII_113  00fe17e0     FComic18B_ASCII.obj
 0003:009ce7f4       _acFontComic18B_ASCII_114  00fe17f4     FComic18B_ASCII.obj
 0003:009ce808       _acFontComic18B_ASCII_115  00fe1808     FComic18B_ASCII.obj
 0003:009ce81c       _acFontComic18B_ASCII_116  00fe181c     FComic18B_ASCII.obj
 0003:009ce830       _acFontComic18B_ASCII_117  00fe1830     FComic18B_ASCII.obj
 0003:009ce844       _acFontComic18B_ASCII_118  00fe1844     FComic18B_ASCII.obj
 0003:009ce858       _acFontComic18B_ASCII_119  00fe1858     FComic18B_ASCII.obj
 0003:009ce87c       _acFontComic18B_ASCII_120  00fe187c     FComic18B_ASCII.obj
 0003:009ce8a0       _acFontComic18B_ASCII_121  00fe18a0     FComic18B_ASCII.obj
 0003:009ce8c4       _acFontComic18B_ASCII_122  00fe18c4     FComic18B_ASCII.obj
 0003:009ce8e8       _acFontComic18B_ASCII_123  00fe18e8     FComic18B_ASCII.obj
 0003:009ce8fc       _acFontComic18B_ASCII_124  00fe18fc     FComic18B_ASCII.obj
 0003:009ce910       _acFontComic18B_ASCII_125  00fe1910     FComic18B_ASCII.obj
 0003:009ce924       _acFontComic18B_ASCII_126  00fe1924     FComic18B_ASCII.obj
 0003:009ce948       _acFontComic18B_ASCII_127  00fe1948     FComic18B_ASCII.obj
 0003:009ce95c       _acFontComic18B_ASCII_128  00fe195c     FComic18B_ASCII.obj
 0003:009ce980       _CharInfo18B_ASCII         00fe1980     FComic18B_ASCII.obj
 0003:009cec88       _GUI_FontComic18BProp_ASCII_1 00fe1c88     FComic18B_ASCII.obj
 0003:009cec94       _GUI_FontComic18B_ASCII    00fe1c94     FComic18B_ASCII.obj
 0003:009cef98       _acFontComic24B_160        00fe1f98     FComic24B_1.obj
 0003:009cefc8       _acFontComic24B_161        00fe1fc8     FComic24B_1.obj
 0003:009cefe0       _acFontComic24B_162        00fe1fe0     FComic24B_1.obj
 0003:009cf010       _acFontComic24B_163        00fe2010     FComic24B_1.obj
 0003:009cf058       _acFontComic24B_164        00fe2058     FComic24B_1.obj
 0003:009cf088       _acFontComic24B_165        00fe2088     FComic24B_1.obj
 0003:009cf0b8       _acFontComic24B_166        00fe20b8     FComic24B_1.obj
 0003:009cf0e8       _acFontComic24B_167        00fe20e8     FComic24B_1.obj
 0003:009cf118       _acFontComic24B_168        00fe2118     FComic24B_1.obj
 0003:009cf148       _acFontComic24B_169        00fe2148     FComic24B_1.obj
 0003:009cf190       _acFontComic24B_170        00fe2190     FComic24B_1.obj
 0003:009cf1c0       _acFontComic24B_171        00fe21c0     FComic24B_1.obj
 0003:009cf1f0       _acFontComic24B_172        00fe21f0     FComic24B_1.obj
 0003:009cf220       _acFontComic24B_173        00fe2220     FComic24B_1.obj
 0003:009cf250       _acFontComic24B_174        00fe2250     FComic24B_1.obj
 0003:009cf298       _acFontComic24B_175        00fe2298     FComic24B_1.obj
 0003:009cf2c8       _acFontComic24B_176        00fe22c8     FComic24B_1.obj
 0003:009cf2f8       _acFontComic24B_177        00fe22f8     FComic24B_1.obj
 0003:009cf328       _acFontComic24B_178        00fe2328     FComic24B_1.obj
 0003:009cf358       _acFontComic24B_179        00fe2358     FComic24B_1.obj
 0003:009cf388       _acFontComic24B_180        00fe2388     FComic24B_1.obj
 0003:009cf3b8       _acFontComic24B_181        00fe23b8     FComic24B_1.obj
 0003:009cf3e8       _acFontComic24B_182        00fe23e8     FComic24B_1.obj
 0003:009cf418       _acFontComic24B_183        00fe2418     FComic24B_1.obj
 0003:009cf448       _acFontComic24B_184        00fe2448     FComic24B_1.obj
 0003:009cf478       _acFontComic24B_185        00fe2478     FComic24B_1.obj
 0003:009cf4a8       _acFontComic24B_186        00fe24a8     FComic24B_1.obj
 0003:009cf4d8       _acFontComic24B_187        00fe24d8     FComic24B_1.obj
 0003:009cf508       _acFontComic24B_188        00fe2508     FComic24B_1.obj
 0003:009cf538       _acFontComic24B_189        00fe2538     FComic24B_1.obj
 0003:009cf568       _acFontComic24B_190        00fe2568     FComic24B_1.obj
 0003:009cf598       _acFontComic24B_191        00fe2598     FComic24B_1.obj
 0003:009cf5c8       _acFontComic24B_192        00fe25c8     FComic24B_1.obj
 0003:009cf5f8       _acFontComic24B_193        00fe25f8     FComic24B_1.obj
 0003:009cf628       _acFontComic24B_194        00fe2628     FComic24B_1.obj
 0003:009cf658       _acFontComic24B_195        00fe2658     FComic24B_1.obj
 0003:009cf688       _acFontComic24B_196        00fe2688     FComic24B_1.obj
 0003:009cf6b8       _acFontComic24B_197        00fe26b8     FComic24B_1.obj
 0003:009cf6e8       _acFontComic24B_198        00fe26e8     FComic24B_1.obj
 0003:009cf730       _acFontComic24B_199        00fe2730     FComic24B_1.obj
 0003:009cf760       _acFontComic24B_200        00fe2760     FComic24B_1.obj
 0003:009cf790       _acFontComic24B_201        00fe2790     FComic24B_1.obj
 0003:009cf7c0       _acFontComic24B_202        00fe27c0     FComic24B_1.obj
 0003:009cf7f0       _acFontComic24B_203        00fe27f0     FComic24B_1.obj
 0003:009cf820       _acFontComic24B_204        00fe2820     FComic24B_1.obj
 0003:009cf850       _acFontComic24B_205        00fe2850     FComic24B_1.obj
 0003:009cf880       _acFontComic24B_206        00fe2880     FComic24B_1.obj
 0003:009cf8b0       _acFontComic24B_207        00fe28b0     FComic24B_1.obj
 0003:009cf8e0       _acFontComic24B_208        00fe28e0     FComic24B_1.obj
 0003:009cf910       _acFontComic24B_209        00fe2910     FComic24B_1.obj
 0003:009cf958       _acFontComic24B_210        00fe2958     FComic24B_1.obj
 0003:009cf9a0       _acFontComic24B_211        00fe29a0     FComic24B_1.obj
 0003:009cf9e8       _acFontComic24B_212        00fe29e8     FComic24B_1.obj
 0003:009cfa30       _acFontComic24B_213        00fe2a30     FComic24B_1.obj
 0003:009cfa78       _acFontComic24B_214        00fe2a78     FComic24B_1.obj
 0003:009cfac0       _acFontComic24B_215        00fe2ac0     FComic24B_1.obj
 0003:009cfaf0       _acFontComic24B_216        00fe2af0     FComic24B_1.obj
 0003:009cfb38       _acFontComic24B_217        00fe2b38     FComic24B_1.obj
 0003:009cfb68       _acFontComic24B_218        00fe2b68     FComic24B_1.obj
 0003:009cfb98       _acFontComic24B_219        00fe2b98     FComic24B_1.obj
 0003:009cfbc8       _acFontComic24B_220        00fe2bc8     FComic24B_1.obj
 0003:009cfbf8       _acFontComic24B_221        00fe2bf8     FComic24B_1.obj
 0003:009cfc28       _acFontComic24B_222        00fe2c28     FComic24B_1.obj
 0003:009cfc58       _acFontComic24B_223        00fe2c58     FComic24B_1.obj
 0003:009cfc88       _acFontComic24B_224        00fe2c88     FComic24B_1.obj
 0003:009cfcb8       _acFontComic24B_225        00fe2cb8     FComic24B_1.obj
 0003:009cfce8       _acFontComic24B_226        00fe2ce8     FComic24B_1.obj
 0003:009cfd18       _acFontComic24B_227        00fe2d18     FComic24B_1.obj
 0003:009cfd48       _acFontComic24B_228        00fe2d48     FComic24B_1.obj
 0003:009cfd78       _acFontComic24B_229        00fe2d78     FComic24B_1.obj
 0003:009cfda8       _acFontComic24B_230        00fe2da8     FComic24B_1.obj
 0003:009cfdf0       _acFontComic24B_231        00fe2df0     FComic24B_1.obj
 0003:009cfe20       _acFontComic24B_232        00fe2e20     FComic24B_1.obj
 0003:009cfe50       _acFontComic24B_233        00fe2e50     FComic24B_1.obj
 0003:009cfe80       _acFontComic24B_234        00fe2e80     FComic24B_1.obj
 0003:009cfeb0       _acFontComic24B_235        00fe2eb0     FComic24B_1.obj
 0003:009cfee0       _acFontComic24B_236        00fe2ee0     FComic24B_1.obj
 0003:009cfef8       _acFontComic24B_237        00fe2ef8     FComic24B_1.obj
 0003:009cff10       _acFontComic24B_238        00fe2f10     FComic24B_1.obj
 0003:009cff28       _acFontComic24B_239        00fe2f28     FComic24B_1.obj
 0003:009cff40       _acFontComic24B_240        00fe2f40     FComic24B_1.obj
 0003:009cff70       _acFontComic24B_241        00fe2f70     FComic24B_1.obj
 0003:009cffa0       _acFontComic24B_242        00fe2fa0     FComic24B_1.obj
 0003:009cffd0       _acFontComic24B_243        00fe2fd0     FComic24B_1.obj
 0003:009d0000       _acFontComic24B_244        00fe3000     FComic24B_1.obj
 0003:009d0030       _acFontComic24B_245        00fe3030     FComic24B_1.obj
 0003:009d0060       _acFontComic24B_246        00fe3060     FComic24B_1.obj
 0003:009d0090       _acFontComic24B_247        00fe3090     FComic24B_1.obj
 0003:009d00c0       _acFontComic24B_248        00fe30c0     FComic24B_1.obj
 0003:009d00f0       _acFontComic24B_249        00fe30f0     FComic24B_1.obj
 0003:009d0120       _acFontComic24B_250        00fe3120     FComic24B_1.obj
 0003:009d0150       _acFontComic24B_251        00fe3150     FComic24B_1.obj
 0003:009d0180       _acFontComic24B_252        00fe3180     FComic24B_1.obj
 0003:009d01b0       _acFontComic24B_253        00fe31b0     FComic24B_1.obj
 0003:009d01e0       _acFontComic24B_254        00fe31e0     FComic24B_1.obj
 0003:009d0210       _acFontComic24B_255        00fe3210     FComic24B_1.obj
 0003:009d0240       _CharInfo24B_160_255       00fe3240     FComic24B_1.obj
 0003:009d0540       _FontComic24BProp_1_160_255 00fe3540     FComic24B_1.obj
 0003:009d054c       _FontComic24BProp_1_ASCII  00fe354c     FComic24B_1.obj
 0003:009d0558       _GUI_FontComic24B_1        00fe3558     FComic24B_1.obj
 0003:009d09e0       _acFontComic24B_32         00fe39e0     FComic24B_ASCII.obj
 0003:009d0a10       _acFontComic24B_33         00fe3a10     FComic24B_ASCII.obj
 0003:009d0a28       _acFontComic24B_34         00fe3a28     FComic24B_ASCII.obj
 0003:009d0a58       _acFontComic24B_35         00fe3a58     FComic24B_ASCII.obj
 0003:009d0aa0       _acFontComic24B_36         00fe3aa0     FComic24B_ASCII.obj
 0003:009d0ad0       _acFontComic24B_37         00fe3ad0     FComic24B_ASCII.obj
 0003:009d0b18       _acFontComic24B_38         00fe3b18     FComic24B_ASCII.obj
 0003:009d0b48       _acFontComic24B_39         00fe3b48     FComic24B_ASCII.obj
 0003:009d0b78       _acFontComic24B_40         00fe3b78     FComic24B_ASCII.obj
 0003:009d0b90       _acFontComic24B_41         00fe3b90     FComic24B_ASCII.obj
 0003:009d0ba8       _acFontComic24B_42         00fe3ba8     FComic24B_ASCII.obj
 0003:009d0bd8       _acFontComic24B_43         00fe3bd8     FComic24B_ASCII.obj
 0003:009d0c08       _acFontComic24B_44         00fe3c08     FComic24B_ASCII.obj
 0003:009d0c38       _acFontComic24B_45         00fe3c38     FComic24B_ASCII.obj
 0003:009d0c68       _acFontComic24B_46         00fe3c68     FComic24B_ASCII.obj
 0003:009d0c98       _acFontComic24B_47         00fe3c98     FComic24B_ASCII.obj
 0003:009d0cc8       _acFontComic24B_48         00fe3cc8     FComic24B_ASCII.obj
 0003:009d0cf8       _acFontComic24B_49         00fe3cf8     FComic24B_ASCII.obj
 0003:009d0d28       _acFontComic24B_50         00fe3d28     FComic24B_ASCII.obj
 0003:009d0d58       _acFontComic24B_51         00fe3d58     FComic24B_ASCII.obj
 0003:009d0d88       _acFontComic24B_52         00fe3d88     FComic24B_ASCII.obj
 0003:009d0db8       _acFontComic24B_53         00fe3db8     FComic24B_ASCII.obj
 0003:009d0de8       _acFontComic24B_54         00fe3de8     FComic24B_ASCII.obj
 0003:009d0e18       _acFontComic24B_55         00fe3e18     FComic24B_ASCII.obj
 0003:009d0e48       _acFontComic24B_56         00fe3e48     FComic24B_ASCII.obj
 0003:009d0e78       _acFontComic24B_57         00fe3e78     FComic24B_ASCII.obj
 0003:009d0ea8       _acFontComic24B_58         00fe3ea8     FComic24B_ASCII.obj
 0003:009d0ed8       _acFontComic24B_59         00fe3ed8     FComic24B_ASCII.obj
 0003:009d0f08       _acFontComic24B_60         00fe3f08     FComic24B_ASCII.obj
 0003:009d0f38       _acFontComic24B_61         00fe3f38     FComic24B_ASCII.obj
 0003:009d0f68       _acFontComic24B_62         00fe3f68     FComic24B_ASCII.obj
 0003:009d0f98       _acFontComic24B_63         00fe3f98     FComic24B_ASCII.obj
 0003:009d0fc8       _acFontComic24B_64         00fe3fc8     FComic24B_ASCII.obj
 0003:009d1010       _acFontComic24B_65         00fe4010     FComic24B_ASCII.obj
 0003:009d1040       _acFontComic24B_66         00fe4040     FComic24B_ASCII.obj
 0003:009d1070       _acFontComic24B_67         00fe4070     FComic24B_ASCII.obj
 0003:009d10a0       _acFontComic24B_68         00fe40a0     FComic24B_ASCII.obj
 0003:009d10d0       _acFontComic24B_69         00fe40d0     FComic24B_ASCII.obj
 0003:009d1100       _acFontComic24B_70         00fe4100     FComic24B_ASCII.obj
 0003:009d1130       _acFontComic24B_71         00fe4130     FComic24B_ASCII.obj
 0003:009d1160       _acFontComic24B_72         00fe4160     FComic24B_ASCII.obj
 0003:009d1190       _acFontComic24B_73         00fe4190     FComic24B_ASCII.obj
 0003:009d11c0       _acFontComic24B_74         00fe41c0     FComic24B_ASCII.obj
 0003:009d11f0       _acFontComic24B_75         00fe41f0     FComic24B_ASCII.obj
 0003:009d1220       _acFontComic24B_76         00fe4220     FComic24B_ASCII.obj
 0003:009d1250       _acFontComic24B_77         00fe4250     FComic24B_ASCII.obj
 0003:009d1298       _acFontComic24B_78         00fe4298     FComic24B_ASCII.obj
 0003:009d12e0       _acFontComic24B_79         00fe42e0     FComic24B_ASCII.obj
 0003:009d1328       _acFontComic24B_80         00fe4328     FComic24B_ASCII.obj
 0003:009d1358       _acFontComic24B_81         00fe4358     FComic24B_ASCII.obj
 0003:009d13a0       _acFontComic24B_82         00fe43a0     FComic24B_ASCII.obj
 0003:009d13d0       _acFontComic24B_83         00fe43d0     FComic24B_ASCII.obj
 0003:009d1400       _acFontComic24B_84         00fe4400     FComic24B_ASCII.obj
 0003:009d1430       _acFontComic24B_85         00fe4430     FComic24B_ASCII.obj
 0003:009d1460       _acFontComic24B_86         00fe4460     FComic24B_ASCII.obj
 0003:009d1490       _acFontComic24B_87         00fe4490     FComic24B_ASCII.obj
 0003:009d14d8       _acFontComic24B_88         00fe44d8     FComic24B_ASCII.obj
 0003:009d1508       _acFontComic24B_89         00fe4508     FComic24B_ASCII.obj
 0003:009d1538       _acFontComic24B_90         00fe4538     FComic24B_ASCII.obj
 0003:009d1568       _acFontComic24B_91         00fe4568     FComic24B_ASCII.obj
 0003:009d1580       _acFontComic24B_92         00fe4580     FComic24B_ASCII.obj
 0003:009d15b0       _acFontComic24B_93         00fe45b0     FComic24B_ASCII.obj
 0003:009d15c8       _acFontComic24B_94         00fe45c8     FComic24B_ASCII.obj
 0003:009d15f8       _acFontComic24B_95         00fe45f8     FComic24B_ASCII.obj
 0003:009d1628       _acFontComic24B_96         00fe4628     FComic24B_ASCII.obj
 0003:009d1658       _acFontComic24B_97         00fe4658     FComic24B_ASCII.obj
 0003:009d1688       _acFontComic24B_98         00fe4688     FComic24B_ASCII.obj
 0003:009d16b8       _acFontComic24B_99         00fe46b8     FComic24B_ASCII.obj
 0003:009d16e8       _acFontComic24B_100        00fe46e8     FComic24B_ASCII.obj
 0003:009d1718       _acFontComic24B_101        00fe4718     FComic24B_ASCII.obj
 0003:009d1748       _acFontComic24B_102        00fe4748     FComic24B_ASCII.obj
 0003:009d1778       _acFontComic24B_103        00fe4778     FComic24B_ASCII.obj
 0003:009d17a8       _acFontComic24B_104        00fe47a8     FComic24B_ASCII.obj
 0003:009d17d8       _acFontComic24B_105        00fe47d8     FComic24B_ASCII.obj
 0003:009d17f0       _acFontComic24B_106        00fe47f0     FComic24B_ASCII.obj
 0003:009d1808       _acFontComic24B_107        00fe4808     FComic24B_ASCII.obj
 0003:009d1838       _acFontComic24B_108        00fe4838     FComic24B_ASCII.obj
 0003:009d1850       _acFontComic24B_109        00fe4850     FComic24B_ASCII.obj
 0003:009d1880       _acFontComic24B_110        00fe4880     FComic24B_ASCII.obj
 0003:009d18b0       _acFontComic24B_111        00fe48b0     FComic24B_ASCII.obj
 0003:009d18e0       _acFontComic24B_112        00fe48e0     FComic24B_ASCII.obj
 0003:009d1910       _acFontComic24B_113        00fe4910     FComic24B_ASCII.obj
 0003:009d1940       _acFontComic24B_114        00fe4940     FComic24B_ASCII.obj
 0003:009d1970       _acFontComic24B_115        00fe4970     FComic24B_ASCII.obj
 0003:009d19a0       _acFontComic24B_116        00fe49a0     FComic24B_ASCII.obj
 0003:009d19d0       _acFontComic24B_117        00fe49d0     FComic24B_ASCII.obj
 0003:009d1a00       _acFontComic24B_118        00fe4a00     FComic24B_ASCII.obj
 0003:009d1a30       _acFontComic24B_119        00fe4a30     FComic24B_ASCII.obj
 0003:009d1a60       _acFontComic24B_120        00fe4a60     FComic24B_ASCII.obj
 0003:009d1a90       _acFontComic24B_121        00fe4a90     FComic24B_ASCII.obj
 0003:009d1ac0       _acFontComic24B_122        00fe4ac0     FComic24B_ASCII.obj
 0003:009d1af0       _acFontComic24B_123        00fe4af0     FComic24B_ASCII.obj
 0003:009d1b08       _acFontComic24B_124        00fe4b08     FComic24B_ASCII.obj
 0003:009d1b38       _acFontComic24B_125        00fe4b38     FComic24B_ASCII.obj
 0003:009d1b50       _acFontComic24B_126        00fe4b50     FComic24B_ASCII.obj
 0003:009d1b80       _acFontComic24B_127        00fe4b80     FComic24B_ASCII.obj
 0003:009d1bb0       _CharInfo24B_ASCII         00fe4bb0     FComic24B_ASCII.obj
 0003:009d1eb0       _FontComic24BProp_ASCII    00fe4eb0     FComic24B_ASCII.obj
 0003:009d1ebc       _GUI_FontComic24B_ASCII    00fe4ebc     FComic24B_ASCII.obj
 0003:009d2318       _acFont24x32               00fe5318     FD24x32.obj
 0003:009d28b8       _TLDigits24x32             00fe58b8     FD24x32.obj
 0003:009d2924       _TransInfo24x32            00fe5924     FD24x32.obj
 0003:009d292c       _FontMono24x32             00fe592c     FD24x32.obj
 0003:009d2940       _GUI_FontD24x32            00fe5940     FD24x32.obj
 0003:009d2aa8       _acFont32_Space            00fe5aa8     FD32.obj
 0003:009d2b08       _acFont32_Add              00fe5b08     FD32.obj
 0003:009d2b68       _acFont32_Sub              00fe5b68     FD32.obj
 0003:009d2bc8       _acFont32_DP               00fe5bc8     FD32.obj
 0003:009d2c08       _acFont32                  00fe5c08     FD32.obj
 0003:009d2fc8       _acFont32_Colon            00fe5fc8     FD32.obj
 0003:009d3008       _CharInfo32                00fe6008     FD32.obj
 0003:009d3080       _FontProp32_3              00fe6080     FD32.obj
 0003:009d308c       _FontProp32_2              00fe608c     FD32.obj
 0003:009d3098       _FontProp32_1              00fe6098     FD32.obj
 0003:009d30a4       _FontProp32                00fe60a4     FD32.obj
 0003:009d30b0       _GUI_FontD32               00fe60b0     FD32.obj
 0003:009d3210       _acFontD36x48              00fe6210     FD36x48.obj
 0003:009d4020       _GUI_FontD36x48_CharInfo   00fe7020     FD36x48.obj
 0003:009d4098       _GUI_FontD36x48_Prop4      00fe7098     FD36x48.obj
 0003:009d40a4       _GUI_FontD36x48_Prop3      00fe70a4     FD36x48.obj
 0003:009d40b0       _GUI_FontD36x48_Prop2      00fe70b0     FD36x48.obj
 0003:009d40bc       _GUI_FontD36x48_Prop1      00fe70bc     FD36x48.obj
 0003:009d40c8       _GUI_FontD36x48            00fe70c8     FD36x48.obj
 0003:009d43e8       _acFontD48_Space           00fe73e8     FD48.obj
 0003:009d4478       _acFontD48_Add             00fe7478     FD48.obj
 0003:009d4568       _acFontD48_Sub             00fe7568     FD48.obj
 0003:009d4658       _acFontD48_DP              00fe7658     FD48.obj
 0003:009d46e8       _acFontD48                 00fe76e8     FD48.obj
 0003:009d5048       _acFontD48_Colon           00fe8048     FD48.obj
 0003:009d50d8       _GUI_FontD48_CharInfo      00fe80d8     FD48.obj
 0003:009d5150       _GUI_FontD48_Prop4         00fe8150     FD48.obj
 0003:009d515c       _GUI_FontD48_Prop3         00fe815c     FD48.obj
 0003:009d5168       _GUI_FontD48_Prop2         00fe8168     FD48.obj
 0003:009d5174       _GUI_FontD48_Prop1         00fe8174     FD48.obj
 0003:009d5180       _GUI_FontD48               00fe8180     FD48.obj
 0003:009d5468       _acFontD48x64              00fe8468     FD48x64.obj
 0003:009d6ae8       _GUI_FontD48x64_CharInfo   00fe9ae8     FD48x64.obj
 0003:009d6b60       _GUI_FontD48x64_Prop4      00fe9b60     FD48x64.obj
 0003:009d6b6c       _GUI_FontD48x64_Prop3      00fe9b6c     FD48x64.obj
 0003:009d6b78       _GUI_FontD48x64_Prop2      00fe9b78     FD48x64.obj
 0003:009d6b84       _GUI_FontD48x64_Prop1      00fe9b84     FD48x64.obj
 0003:009d6b90       _GUI_FontD48x64            00fe9b90     FD48x64.obj
 0003:009d9688       _GUI_FontD60x80            00fec688     FD60x80.obj
 0003:009d9e58       _acFontD64_Space           00fece58     FD64.obj
 0003:009d9f18       _acFontD64_Add             00fecf18     FD64.obj
 0003:009da098       _acFontD64_Sub             00fed098     FD64.obj
 0003:009da218       _acFontD64_DP              00fed218     FD64.obj
 0003:009da2d8       _acFontD64                 00fed2d8     FD64.obj
 0003:009db1d8       _acFontD64_Colon           00fee1d8     FD64.obj
 0003:009db298       _GUI_FontD64_CharInfo      00fee298     FD64.obj
 0003:009db310       _GUI_FontD64_Prop4         00fee310     FD64.obj
 0003:009db31c       _GUI_FontD64_Prop3         00fee31c     FD64.obj
 0003:009db328       _GUI_FontD64_Prop2         00fee328     FD64.obj
 0003:009db334       _GUI_FontD64_Prop1         00fee334     FD64.obj
 0003:009db340       _GUI_FontD64               00fee340     FD64.obj
 0003:009db7a0       _acFontD80_Space           00fee7a0     FD80.obj
 0003:009db8e0       _acFontD80_Add             00fee8e0     FD80.obj
 0003:009dbb60       _acFontD80_Sub             00feeb60     FD80.obj
 0003:009dbde0       _acFontD80_DP              00feede0     FD80.obj
 0003:009dbf20       _acFontD80                 00feef20     FD80.obj
 0003:009dd820       _acFontD80_Colon           00ff0820     FD80.obj
 0003:009dd960       _GUI_FontD80_CharInfo      00ff0960     FD80.obj
 0003:009dd9d8       _GUI_FontD80_Prop4         00ff09d8     FD80.obj
 0003:009dd9e4       _GUI_FontD80_Prop3         00ff09e4     FD80.obj
 0003:009dd9f0       _GUI_FontD80_Prop2         00ff09f0     FD80.obj
 0003:009dd9fc       _GUI_FontD80_Prop1         00ff09fc     FD80.obj
 0003:009dda08       _GUI_FontD80               00ff0a08     FD80.obj
 0003:009de158       _GUI_MEMDEV_DEVICE_1       00ff1158     GUIDEV_1.obj
 0003:009de1e8       _GUI_MEMDEV_DEVICE_16      00ff11e8     GUIDEV_16.obj
 0003:009de278       _GUI_MEMDEV_DEVICE_32      00ff1278     GUIDEV_32.obj
 0003:009de308       _GUI_MEMDEV_DEVICE_8       00ff1308     GUIDEV_8.obj
 0003:009de3b0       _BUTTON__SkinClassic       00ff13b0     BUTTON_SkinClassic.obj
 0003:009de414       _CHECKBOX__abmCheck        00ff1414     CHECKBOX_Image.obj
 0003:009de4cc       _CHECKBOX__SkinClassic     00ff14cc     CHECKBOX_SkinClassic.obj
 0003:009de4e8       _DROPDOWN__SkinClassic     00ff14e8     DROPDOWN_SkinClassic.obj
 0003:009de510       __real@bfe0000000000000    00ff1510     EDITFloat.obj
 0003:009de77c       _FRAMEWIN__SkinClassic     00ff177c     FRAMEWIN_SkinClassic.obj
 0003:009de7d8       _HEADER__SkinClassic       00ff17d8     HEADER_SkinClassic.obj
 0003:009de7ec       _PROGBAR__SkinClassic      00ff17ec     PROGBAR_SkinClassic.obj
 0003:009de874       _RADIO__abmRadio           00ff1874     RADIO_Image.obj
 0003:009de89c       _RADIO__bmCheck            00ff189c     RADIO_Image.obj
 0003:009de8d4       _RADIO__SkinClassic        00ff18d4     RADIO_SkinClassic.obj
 0003:009de8e4       _SCROLLBAR__SkinClassic    00ff18e4     SCROLLBAR_SkinClassic.obj
 0003:009de900       _SLIDER__SkinClassic       00ff1900     SLIDER_SkinClassic.obj
 0003:009dea00       _TREEVIEW__bmOpen          00ff1a00     TREEVIEW_Image.obj
 0003:009dea14       _TREEVIEW__bmClosed        00ff1a14     TREEVIEW_Image.obj
 0003:009dea74       _TREEVIEW__bmLeaf          00ff1a74     TREEVIEW_Image.obj
 0003:009deac4       _TREEVIEW__bmPlus          00ff1ac4     TREEVIEW_Image.obj
 0003:009dead8       _TREEVIEW__bmMinus         00ff1ad8     TREEVIEW_Image.obj
 0003:009deb48       _WIDGET_Effect_3D          00ff1b48     WIDGET_Effect_3D.obj
 0003:009deb6c       _WIDGET_Effect_3D1L        00ff1b6c     WIDGET_Effect_3D1L.obj
 0003:009deb90       _WIDGET_Effect_3D2L        00ff1b90     WIDGET_Effect_3D2L.obj
 0003:009debb4       _WIDGET_Effect_None        00ff1bb4     WIDGET_Effect_None.obj
 0003:009debd8       _WIDGET_Effect_Simple      00ff1bd8     WIDGET_Effect_Simple.obj
 0003:009debfc       __FPinit                   00ff1bfc     libcmt:_fpinit_.obj
 0003:009dec00       ?ProcessDetach@NativeDll@<CrtImplementationDetails>@@0IB 00ff1c00     libcmt:atof.obj
 0003:009dec04       ?ProcessAttach@NativeDll@<CrtImplementationDetails>@@0IB 00ff1c04     libcmt:atof.obj
 0003:009dec08       ?ThreadAttach@NativeDll@<CrtImplementationDetails>@@0IB 00ff1c08     libcmt:atof.obj
 0003:009dec0c       ?ThreadDetach@NativeDll@<CrtImplementationDetails>@@0IB 00ff1c0c     libcmt:atof.obj
 0003:009dec10       ?ProcessVerifier@NativeDll@<CrtImplementationDetails>@@0IB 00ff1c10     libcmt:atof.obj
 0003:009decdc       ??_7bad_alloc@std@@6B@     00ff1cdc     libcmt:new.obj
 0003:009dece8       ??_C@_0P@GHFPNOJB@bad?5allocation?$AA@ 00ff1ce8     libcmt:new.obj
 0003:009decfc       ??_C@_0BO@GNIAFIKK@Unknown?5Runtime?5Check?5Error?6?$AN?$AA@ 00ff1cfc     libcmt:_error_.obj
 0003:009ded20       ??_C@_0CM@NGINOKPC@Stack?5memory?5around?5_alloca?5was?5@ 00ff1d20     libcmt:_error_.obj
 0003:009ded54       ??_C@_0DG@HKJMLLLP@A?5local?5variable?5was?5used?5before@ 00ff1d54     libcmt:_error_.obj
 0003:009ded94       ??_C@_0BN@FFOINMNJ@Stack?5memory?5was?5corrupted?6?$AN?$AA@ 00ff1d94     libcmt:_error_.obj
 0003:009dedb8       ??_C@_0BBN@GPMLNJCF@A?5cast?5to?5a?5smaller?5data?5type?5ha@ 00ff1db8     libcmt:_error_.obj
 0003:009def10       ??_C@_0NN@NGPKDKPD@The?5value?5of?5ESP?5was?5not?5properl@ 00ff1f10     libcmt:_error_.obj
 0003:009df0d8       ??_C@_0CA@IODNCDPG@Run?9Time?5Check?5Failure?5?$CD?$CFd?5?9?5?$CFs?$AA@ 00ff20d8     libcmt:_error_.obj
 0003:009df100       ??_C@_0BE@GNBOBNCK@Unknown?5Module?5Name?$AA@ 00ff2100     libcmt:_error_.obj
 0003:009df118       ??_C@_0BB@PFFGGCJP@Unknown?5Filename?$AA@ 00ff2118     libcmt:_error_.obj
 0003:009df130       ??_C@_1EA@NFKNIFJP@?$AAR?$AAu?$AAn?$AA?9?$AAT?$AAi?$AAm?$AAe?$AA?5?$AAC?$AAh?$AAe?$AAc?$AAk?$AA?5?$AAF?$AAa?$AAi?$AAl?$AAu?$AAr?$AAe?$AA?5?$AA?$CD?$AA?$CF?$AAd?$AA?5?$AA?9?$AA?5?$AA?$CF?$AAs?$AA?$AA@ 00ff2130     libcmt:_error_.obj
 0003:009df180       ??_C@_1GM@OLMCBDMB@?$AAR?$AAu?$AAn?$AAt?$AAi?$AAm?$AAe?$AA?5?$AAC?$AAh?$AAe?$AAc?$AAk?$AA?5?$AAE?$AAr?$AAr?$AAo?$AAr?$AA?4?$AA?6?$AA?$AN?$AA?5?$AAU?$AAn?$AAa?$AAb?$AAl?$AAe?$AA?5?$AAt?$AAo@ 00ff2180     libcmt:_error_.obj
 0003:009df204       ??_C@_0CG@IAFNJNEE@Stack?5corrupted?5near?5unknown?5var@ 00ff2204     libcmt:_error_.obj
 0003:009df234       ??_C@_05MKKEDADM@?$CF?42X?5?$AA@ 00ff2234     libcmt:_error_.obj
 0003:009df240       ??_C@_0EJ@LJKNEOLN@Stack?5area?5around?5_alloca?5memory@ 00ff2240     libcmt:_error_.obj
 0003:009df298       ??_C@_08KJEDNCKC@?$CFs?$CFs?$CFs?$CFs?$AA@ 00ff2298     libcmt:_error_.obj
 0003:009df2a4       ??_C@_02LLMPMKNF@?$DO?5?$AA@ 00ff22a4     libcmt:_error_.obj
 0003:009df2a8       ??_C@_01EEMJAFIK@?6?$AA@   00ff22a8     libcmt:_error_.obj
 0003:009df2ac       ??_C@_0BC@KIBAILCI@?$CFs?$CFs?$CFp?$CFs?$CFld?$CFs?$CFd?$CFs?$AA@ 00ff22ac     libcmt:_error_.obj
 0003:009df2c8       ??_C@_0EI@CLEPFNGI@Stack?5area?5around?5_alloca?5memory@ 00ff22c8     libcmt:_error_.obj
 0003:009df320       ??_C@_0N@MHFFIMFG@?6Address?3?50x?$AA@ 00ff2320     libcmt:_error_.obj
 0003:009df330       ??_C@_07DFDJCKFN@?6Size?3?5?$AA@ 00ff2330     libcmt:_error_.obj
 0003:009df33c       ??_C@_0CK@DKGBICFE@?6Allocation?5number?5within?5this?5f@ 00ff233c     libcmt:_error_.obj
 0003:009df370       ??_C@_08OMAHNMHJ@?6Data?3?5?$DM?$AA@ 00ff2370     libcmt:_error_.obj
 0003:009df37c       ??_C@_09FOPFMPEJ@wsprintfA?$AA@ 00ff237c     libcmt:_error_.obj
 0003:009df388       ??_C@_1BG@OILDLIOJ@?$AAu?$AAs?$AAe?$AAr?$AA3?$AA2?$AA?4?$AAd?$AAl?$AAl?$AA?$AA@ 00ff2388     libcmt:_error_.obj
 0003:009df3a4       ??_C@_0DE@OHJBPMBP@A?5variable?5is?5being?5used?5without@ 00ff23a4     libcmt:_error_.obj
 0003:009df3e4       ??_C@_03LLEJOLGL@?4?1?2?$AA@ 00ff23e4     libcmt:stati32.obj
 0003:009df3e8       ??_C@_02EAOCEIGI@?$DP?$CK?$AA@ 00ff23e8     libcmt:stati32.obj
 0003:009df3ec       ??_C@_05KLBDPFGC@e?$CL000?$AA@ 00ff23ec     libcmt:cvt.obj
 0003:009df3f4       ??_C@_0BP@OGBCLIBO@Stack?5around?5_alloca?5corrupted?$AA@ 00ff23f4     libcmt:_userapi_.obj
 0003:009df41c       ??_C@_0CK@CNLNOEPB@Local?5variable?5used?5before?5initi@ 00ff241c     libcmt:_userapi_.obj
 0003:009df450       ??_C@_0BI@CIGMDCBH@Stack?5memory?5corruption?$AA@ 00ff2450     libcmt:_userapi_.obj
 0003:009df46c       ??_C@_0CK@FEGOIOPB@Cast?5to?5smaller?5type?5causing?5los@ 00ff246c     libcmt:_userapi_.obj
 0003:009df4a0       ??_C@_0BJ@HEGAHDFO@Stack?5pointer?5corruption?$AA@ 00ff24a0     libcmt:_userapi_.obj
 0003:009df4d8       ??_C@_1O@CEDCILHN@?$AA?$CI?$AAn?$AAu?$AAl?$AAl?$AA?$CJ?$AA?$AA@ 00ff24d8     libcmt:output.obj
 0003:009df4e8       ??_C@_06OJHGLDPL@?$CInull?$CJ?$AA@ 00ff24e8     libcmt:output.obj
 0003:009df4f0       ___lookuptable             00ff24f0     libcmt:output.obj
 0003:009df55c       ??_C@_1BC@GDGBMEMK@?$AAH?$AAH?$AA?3?$AAm?$AAm?$AA?3?$AAs?$AAs?$AA?$AA@ 00ff255c     libcmt:nlsdata2.obj
 0003:009df574       ??_C@_1CI@KNAKOEBC@?$AAd?$AAd?$AAd?$AAd?$AA?0?$AA?5?$AAM?$AAM?$AAM?$AAM?$AA?5?$AAd?$AAd?$AA?0?$AA?5?$AAy?$AAy?$AAy?$AAy?$AA?$AA@ 00ff2574     libcmt:nlsdata2.obj
 0003:009df5a4       ??_C@_1BC@IEBCMHCM@?$AAM?$AAM?$AA?1?$AAd?$AAd?$AA?1?$AAy?$AAy?$AA?$AA@ 00ff25a4     libcmt:nlsdata2.obj
 0003:009df5bc       ??_C@_15CLMNNGEL@?$AAP?$AAM?$AA?$AA@ 00ff25bc     libcmt:nlsdata2.obj
 0003:009df5c4       ??_C@_15ODEHAHHF@?$AAA?$AAM?$AA?$AA@ 00ff25c4     libcmt:nlsdata2.obj
 0003:009df5cc       ??_C@_1BC@FEMKIFH@?$AAD?$AAe?$AAc?$AAe?$AAm?$AAb?$AAe?$AAr?$AA?$AA@ 00ff25cc     libcmt:nlsdata2.obj
 0003:009df5e4       ??_C@_1BC@BGLIFPF@?$AAN?$AAo?$AAv?$AAe?$AAm?$AAb?$AAe?$AAr?$AA?$AA@ 00ff25e4     libcmt:nlsdata2.obj
 0003:009df5fc       ??_C@_1BA@EPANDLNG@?$AAO?$AAc?$AAt?$AAo?$AAb?$AAe?$AAr?$AA?$AA@ 00ff25fc     libcmt:nlsdata2.obj
 0003:009df610       ??_C@_1BE@DKAAMBJL@?$AAS?$AAe?$AAp?$AAt?$AAe?$AAm?$AAb?$AAe?$AAr?$AA?$AA@ 00ff2610     libcmt:nlsdata2.obj
 0003:009df628       ??_C@_1O@PAHLKOAC@?$AAA?$AAu?$AAg?$AAu?$AAs?$AAt?$AA?$AA@ 00ff2628     libcmt:nlsdata2.obj
 0003:009df638       ??_C@_19BIFMLPCD@?$AAJ?$AAu?$AAl?$AAy?$AA?$AA@ 00ff2638     libcmt:nlsdata2.obj
 0003:009df644       ??_C@_19EPFLPGAP@?$AAJ?$AAu?$AAn?$AAe?$AA?$AA@ 00ff2644     libcmt:nlsdata2.obj
 0003:009df650       ??_C@_1M@GJNLMHFD@?$AAA?$AAp?$AAr?$AAi?$AAl?$AA?$AA@ 00ff2650     libcmt:nlsdata2.obj
 0003:009df660       ??_C@_1M@IKEENEDF@?$AAM?$AAa?$AAr?$AAc?$AAh?$AA?$AA@ 00ff2660     libcmt:nlsdata2.obj
 0003:009df670       ??_C@_1BC@JGDDFFAM@?$AAF?$AAe?$AAb?$AAr?$AAu?$AAa?$AAr?$AAy?$AA?$AA@ 00ff2670     libcmt:nlsdata2.obj
 0003:009df688       ??_C@_1BA@EFMEIEBA@?$AAJ?$AAa?$AAn?$AAu?$AAa?$AAr?$AAy?$AA?$AA@ 00ff2688     libcmt:nlsdata2.obj
 0003:009df69c       ??_C@_17EGKACKIF@?$AAD?$AAe?$AAc?$AA?$AA@ 00ff269c     libcmt:nlsdata2.obj
 0003:009df6a8       ??_C@_17BBDMLCIG@?$AAN?$AAo?$AAv?$AA?$AA@ 00ff26a8     libcmt:nlsdata2.obj
 0003:009df6b4       ??_C@_17FNLKOI@?$AAO?$AAc?$AAt?$AA?$AA@ 00ff26b4     libcmt:nlsdata2.obj
 0003:009df6c0       ??_C@_17HCHCOKMG@?$AAS?$AAe?$AAp?$AA?$AA@ 00ff26c0     libcmt:nlsdata2.obj
 0003:009df6cc       ??_C@_17ICPELBCN@?$AAA?$AAu?$AAg?$AA?$AA@ 00ff26cc     libcmt:nlsdata2.obj
 0003:009df6d8       ??_C@_17IJPCKHK@?$AAJ?$AAu?$AAl?$AA?$AA@ 00ff26d8     libcmt:nlsdata2.obj
 0003:009df6e4       ??_C@_17KCJGOCPB@?$AAJ?$AAu?$AAn?$AA?$AA@ 00ff26e4     libcmt:nlsdata2.obj
 0003:009df6f0       ??_C@_17PNNKMEED@?$AAM?$AAa?$AAy?$AA?$AA@ 00ff26f0     libcmt:nlsdata2.obj
 0003:009df6fc       ??_C@_17LFPOIHDD@?$AAA?$AAp?$AAr?$AA?$AA@ 00ff26fc     libcmt:nlsdata2.obj
 0003:009df708       ??_C@_17CKNLEDEC@?$AAM?$AAa?$AAr?$AA?$AA@ 00ff2708     libcmt:nlsdata2.obj
 0003:009df714       ??_C@_17LMDJEKJN@?$AAF?$AAe?$AAb?$AA?$AA@ 00ff2714     libcmt:nlsdata2.obj
 0003:009df720       ??_C@_17DKNBKCHM@?$AAJ?$AAa?$AAn?$AA?$AA@ 00ff2720     libcmt:nlsdata2.obj
 0003:009df72c       ??_C@_1BC@ENMNNPAJ@?$AAS?$AAa?$AAt?$AAu?$AAr?$AAd?$AAa?$AAy?$AA?$AA@ 00ff272c     libcmt:nlsdata2.obj
 0003:009df744       ??_C@_1O@PDICJHAG@?$AAF?$AAr?$AAi?$AAd?$AAa?$AAy?$AA?$AA@ 00ff2744     libcmt:nlsdata2.obj
 0003:009df754       ??_C@_1BC@HHMNLIHE@?$AAT?$AAh?$AAu?$AAr?$AAs?$AAd?$AAa?$AAy?$AA?$AA@ 00ff2754     libcmt:nlsdata2.obj
 0003:009df76c       ??_C@_1BE@EBOGMDOH@?$AAW?$AAe?$AAd?$AAn?$AAe?$AAs?$AAd?$AAa?$AAy?$AA?$AA@ 00ff276c     libcmt:nlsdata2.obj
 0003:009df784       ??_C@_1BA@ENFBFFEK@?$AAT?$AAu?$AAe?$AAs?$AAd?$AAa?$AAy?$AA?$AA@ 00ff2784     libcmt:nlsdata2.obj
 0003:009df798       ??_C@_1O@MMNBFLIA@?$AAM?$AAo?$AAn?$AAd?$AAa?$AAy?$AA?$AA@ 00ff2798     libcmt:nlsdata2.obj
 0003:009df7a8       ??_C@_1O@IHNHDHPB@?$AAS?$AAu?$AAn?$AAd?$AAa?$AAy?$AA?$AA@ 00ff27a8     libcmt:nlsdata2.obj
 0003:009df7b8       ??_C@_17GGIBDPIH@?$AAS?$AAa?$AAt?$AA?$AA@ 00ff27b8     libcmt:nlsdata2.obj
 0003:009df7c4       ??_C@_17HFOLPPLP@?$AAF?$AAr?$AAi?$AA?$AA@ 00ff27c4     libcmt:nlsdata2.obj
 0003:009df7d0       ??_C@_17PDPHAADD@?$AAT?$AAh?$AAu?$AA?$AA@ 00ff27d0     libcmt:nlsdata2.obj
 0003:009df7dc       ??_C@_17CJEDCEPE@?$AAW?$AAe?$AAd?$AA?$AA@ 00ff27dc     libcmt:nlsdata2.obj
 0003:009df7e8       ??_C@_17BMKGEGOJ@?$AAT?$AAu?$AAe?$AA?$AA@ 00ff27e8     libcmt:nlsdata2.obj
 0003:009df7f4       ??_C@_17KBOMKBF@?$AAM?$AAo?$AAn?$AA?$AA@ 00ff27f4     libcmt:nlsdata2.obj
 0003:009df800       ??_C@_17MBGCMIPB@?$AAS?$AAu?$AAn?$AA?$AA@ 00ff2800     libcmt:nlsdata2.obj
 0003:009df80c       ??_C@_08JCCMCCIL@HH?3mm?3ss?$AA@ 00ff280c     libcmt:nlsdata2.obj
 0003:009df818       ??_C@_0BE@CKGJFCPC@dddd?0?5MMMM?5dd?0?5yyyy?$AA@ 00ff2818     libcmt:nlsdata2.obj
 0003:009df830       ??_C@_08BPBNCDIB@MM?1dd?1yy?$AA@ 00ff2830     libcmt:nlsdata2.obj
 0003:009df83c       ??_C@_02CJNFDJBF@PM?$AA@   00ff283c     libcmt:nlsdata2.obj
 0003:009df840       ??_C@_02DEDBPAFC@AM?$AA@   00ff2840     libcmt:nlsdata2.obj
 0003:009df844       ??_C@_08EDHMEBNP@December?$AA@ 00ff2844     libcmt:nlsdata2.obj
 0003:009df850       ??_C@_08HCHEGEOA@November?$AA@ 00ff2850     libcmt:nlsdata2.obj
 0003:009df85c       ??_C@_07JJNFCEND@October?$AA@ 00ff285c     libcmt:nlsdata2.obj
 0003:009df868       ??_C@_09BHHEALKD@September?$AA@ 00ff2868     libcmt:nlsdata2.obj
 0003:009df874       ??_C@_06LBBHFDDG@August?$AA@ 00ff2874     libcmt:nlsdata2.obj
 0003:009df87c       ??_C@_04MIEPOIFP@July?$AA@ 00ff287c     libcmt:nlsdata2.obj
 0003:009df884       ??_C@_04CNLMGBGM@June?$AA@ 00ff2884     libcmt:nlsdata2.obj
 0003:009df88c       ??_C@_05DMJDNLEJ@April?$AA@ 00ff288c     libcmt:nlsdata2.obj
 0003:009df894       ??_C@_05HPCKOFNC@March?$AA@ 00ff2894     libcmt:nlsdata2.obj
 0003:009df89c       ??_C@_08GNJGEPFN@February?$AA@ 00ff289c     libcmt:nlsdata2.obj
 0003:009df8a8       ??_C@_07CGJPFGJA@January?$AA@ 00ff28a8     libcmt:nlsdata2.obj
 0003:009df8b4       ??_C@_03MKABNOCG@Dec?$AA@  00ff28b4     libcmt:nlsdata2.obj
 0003:009df8b8       ??_C@_03JPJOFNIA@Nov?$AA@  00ff28b8     libcmt:nlsdata2.obj
 0003:009df8bc       ??_C@_03BMAOKBAD@Oct?$AA@  00ff28bc     libcmt:nlsdata2.obj
 0003:009df8c0       ??_C@_03GGCAPAJC@Sep?$AA@  00ff28c0     libcmt:nlsdata2.obj
 0003:009df8c4       ??_C@_03IFJFEIGA@Aug?$AA@  00ff28c4     libcmt:nlsdata2.obj
 0003:009df8c8       ??_C@_03LBGABGKK@Jul?$AA@  00ff28c8     libcmt:nlsdata2.obj
 0003:009df8cc       ??_C@_03IDFGHECI@Jun?$AA@  00ff28cc     libcmt:nlsdata2.obj
 0003:009df8d0       ??_C@_03CNMDKL@May?$AA@    00ff28d0     libcmt:nlsdata2.obj
 0003:009df8d4       ??_C@_03LEOLGMJP@Apr?$AA@  00ff28d4     libcmt:nlsdata2.obj
 0003:009df8d8       ??_C@_03ODNJBKGA@Mar?$AA@  00ff28d8     libcmt:nlsdata2.obj
 0003:009df8dc       ??_C@_03HJBDCHOM@Feb?$AA@  00ff28dc     libcmt:nlsdata2.obj
 0003:009df8e0       ??_C@_03JIHJHPIE@Jan?$AA@  00ff28e0     libcmt:nlsdata2.obj
 0003:009df8e4       ??_C@_08INBOOONO@Saturday?$AA@ 00ff28e4     libcmt:nlsdata2.obj
 0003:009df8f0       ??_C@_06JECMNKMI@Friday?$AA@ 00ff28f0     libcmt:nlsdata2.obj
 0003:009df8f8       ??_C@_08HACCIKIA@Thursday?$AA@ 00ff28f8     libcmt:nlsdata2.obj
 0003:009df904       ??_C@_09DLIGFAKA@Wednesday?$AA@ 00ff2904     libcmt:nlsdata2.obj
 0003:009df910       ??_C@_07BAAGCFCM@Tuesday?$AA@ 00ff2910     libcmt:nlsdata2.obj
 0003:009df91c       ??_C@_06JLEDEDGH@Monday?$AA@ 00ff291c     libcmt:nlsdata2.obj
 0003:009df924       ??_C@_06OOPIFAJ@Sunday?$AA@ 00ff2924     libcmt:nlsdata2.obj
 0003:009df92c       ??_C@_03FEFJNEK@Sat?$AA@   00ff292c     libcmt:nlsdata2.obj
 0003:009df930       ??_C@_03IDIOELNC@Fri?$AA@  00ff2930     libcmt:nlsdata2.obj
 0003:009df934       ??_C@_03IOFIKPDN@Thu?$AA@  00ff2934     libcmt:nlsdata2.obj
 0003:009df938       ??_C@_03MHOMLAJA@Wed?$AA@  00ff2938     libcmt:nlsdata2.obj
 0003:009df93c       ??_C@_03NAGEINEP@Tue?$AA@  00ff293c     libcmt:nlsdata2.obj
 0003:009df940       ??_C@_03PDAGKDH@Mon?$AA@   00ff2940     libcmt:nlsdata2.obj
 0003:009df944       ??_C@_03KOEHGMDN@Sun?$AA@  00ff2944     libcmt:nlsdata2.obj
 0003:009df948       ??_C@_1BK@DBDEIDLH@?$AAK?$AAE?$AAR?$AAN?$AAE?$AAL?$AA3?$AA2?$AA?4?$AAD?$AAL?$AAL?$AA?$AA@ 00ff2948     libcmt:tidtable.obj
 0003:009df968       ??_C@_07PEJMOBNF@FlsFree?$AA@ 00ff2968     libcmt:tidtable.obj
 0003:009df974       ??_C@_0M@JCPCPOEF@FlsSetValue?$AA@ 00ff2974     libcmt:tidtable.obj
 0003:009df984       ??_C@_0M@GDNOONDI@FlsGetValue?$AA@ 00ff2984     libcmt:tidtable.obj
 0003:009df994       ??_C@_08KNHFBNJ@FlsAlloc?$AA@ 00ff2994     libcmt:tidtable.obj
 0003:009df9ac       ??_C@_07LCBHPJJN@LC_TIME?$AA@ 00ff29ac     libcmt:setlocal.obj
 0003:009df9b8       ??_C@_0L@DLHIECNL@LC_NUMERIC?$AA@ 00ff29b8     libcmt:setlocal.obj
 0003:009df9c8       ??_C@_0M@MIENIKLA@LC_MONETARY?$AA@ 00ff29c8     libcmt:setlocal.obj
 0003:009df9d8       ??_C@_08EADHIDAD@LC_CTYPE?$AA@ 00ff29d8     libcmt:setlocal.obj
 0003:009df9e4       ??_C@_0L@KFJHEKIK@LC_COLLATE?$AA@ 00ff29e4     libcmt:setlocal.obj
 0003:009df9f4       ??_C@_06NEFDFEKB@LC_ALL?$AA@ 00ff29f4     libcmt:setlocal.obj
 0003:009dfa00       ___lc_category             00ff2a00     libcmt:setlocal.obj
 0003:009dfaf0       ??_C@_03EGDHDPFD@_?4?0?$AA@ 00ff2af0     libcmt:setlocal.obj
 0003:009dfaf4       ??_C@_01LFCBOECM@?4?$AA@   00ff2af4     libcmt:setlocal.obj
 0003:009dfaf8       ??_C@_01IDAFKMJL@_?$AA@    00ff2af8     libcmt:setlocal.obj
 0003:009dfafc       ??_C@_01ICJEACDI@?$DL?$AA@ 00ff2afc     libcmt:setlocal.obj
 0003:009dfb00       ??_C@_01NEMOKFLO@?$DN?$AA@ 00ff2b00     libcmt:setlocal.obj
 0003:009dfb02       ??_C@_00CNPNBAHC@?$AA@     00ff2b02     libcmt:setlocal.obj
 0003:009dfb04       ??_C@_01GFHCPBMG@C?$AA@    00ff2b04     libcmt:setlocal.obj
 0003:009dfb08       ??_C@_02BALPLPBG@?$DN?$DL?$AA@ 00ff2b08     libcmt:setlocal.obj
 0003:009dfb8c       ??_C@_03IIINPABG@tan?$AA@  00ff2b8c     libcmt:_libm_error_.obj
 0003:009dfb90       ??_C@_03LALBNOCG@cos?$AA@  00ff2b90     libcmt:_libm_error_.obj
 0003:009dfb94       ??_C@_03BLEJJJBH@sin?$AA@  00ff2b94     libcmt:_libm_error_.obj
 0003:009dfb98       ??_C@_04EHEDPDJG@modf?$AA@ 00ff2b98     libcmt:_libm_error_.obj
 0003:009dfba0       ??_C@_05PBJFFIGL@floor?$AA@ 00ff2ba0     libcmt:_libm_error_.obj
 0003:009dfba8       ??_C@_04GFPJNGEK@ceil?$AA@ 00ff2ba8     libcmt:_libm_error_.obj
 0003:009dfbb0       ??_C@_04MLLJIGOK@atan?$AA@ 00ff2bb0     libcmt:_libm_error_.obj
 0003:009dfbb8       ??_C@_05EOHGHCHD@exp10?$AA@ 00ff2bb8     libcmt:_libm_error_.obj
 0003:009dfbc0       ??_C@_04PDIFKINK@acos?$AA@ 00ff2bc0     libcmt:_libm_error_.obj
 0003:009dfbc8       ??_C@_04FIHNOPOL@asin?$AA@ 00ff2bc8     libcmt:_libm_error_.obj
 0003:009dfbd0       ??_C@_03MGHMBJCF@log?$AA@  00ff2bd0     libcmt:_libm_error_.obj
 0003:009dfbd4       ??_C@_05HGHHAHAP@log10?$AA@ 00ff2bd4     libcmt:_libm_error_.obj
 0003:009dfbdc       ??_C@_03KHJOGHMM@exp?$AA@  00ff2bdc     libcmt:_libm_error_.obj
 0003:009dfbe0       ??_C@_03JGHBODFD@pow?$AA@  00ff2be0     libcmt:_libm_error_.obj
 0003:009dfbf0       __indefinite               00ff2bf0     libcmt:_87disp_.obj
 0003:009dfbfa       __piby2                    00ff2bfa     libcmt:_87disp_.obj
 0003:009dfc38       __DEFAULT_CW_in_mem        00ff2c38     libcmt:_common_.obj
 0003:009dfc3a       __pi_by_2_to_61            00ff2c3a     libcmt:_common_.obj
 0003:009dfc84       ??_C@_02CLFPBFFP@TZ?$AA@   00ff2c84     libcmt:tzset.obj
 0003:009dfc88       ___dnames                  00ff2c88     libcmt:timeset.obj
 0003:009dfca0       ___mnames                  00ff2ca0     libcmt:timeset.obj
 0003:009dfcd8       ??_7exception@std@@6B@     00ff2cd8     libcmt:stdexcpt.obj
 0003:009dfce4       ??_C@_0BC@EOODALEL@Unknown?5exception?$AA@ 00ff2ce4     libcmt:stdexcpt.obj
 0003:009dfd00       ??_7bad_cast@std@@6B@      00ff2d00     libcmt:stdexcpt.obj
 0003:009dfd10       ??_7bad_typeid@std@@6B@    00ff2d10     libcmt:stdexcpt.obj
 0003:009dfd20       ??_7__non_rtti_object@std@@6B@ 00ff2d20     libcmt:stdexcpt.obj
 0003:009dfd30       ??_7type_info@@6B@         00ff2d30     libcmt:typinfo.obj
 0003:009dfd88       ??_C@_0P@MIGLKIOC@CorExitProcess?$AA@ 00ff2d88     libcmt:crt0dat.obj
 0003:009dfd9c       ??_C@_1BI@BGOHAHKC@?$AAm?$AAs?$AAc?$AAo?$AAr?$AAe?$AAe?$AA?4?$AAd?$AAl?$AAl?$AA?$AA@ 00ff2d9c     libcmt:crt0dat.obj
 0003:009e128c       ??_C@_1BO@BKOMIGKJ@?$AAr?$AAu?$AAn?$AAt?$AAi?$AAm?$AAe?$AA?5?$AAe?$AAr?$AAr?$AAo?$AAr?$AA?5?$AA?$AA@ 00ff428c     libcmt:crt0msg.obj
 0003:009e12b0       ??_C@_15JNBOKNOG@?$AA?$AN?$AA?6?$AA?$AA@ 00ff42b0     libcmt:crt0msg.obj
 0003:009e12b8       ??_C@_1BM@JBBEPPHI@?$AAT?$AAL?$AAO?$AAS?$AAS?$AA?5?$AAe?$AAr?$AAr?$AAo?$AAr?$AA?$AN?$AA?6?$AA?$AA@ 00ff42b8     libcmt:crt0msg.obj
 0003:009e12dc       ??_C@_1BK@KMOMNAAI@?$AAS?$AAI?$AAN?$AAG?$AA?5?$AAe?$AAr?$AAr?$AAo?$AAr?$AA?$AN?$AA?6?$AA?$AA@ 00ff42dc     libcmt:crt0msg.obj
 0003:009e12fc       ??_C@_1BO@BFCDCGC@?$AAD?$AAO?$AAM?$AAA?$AAI?$AAN?$AA?5?$AAe?$AAr?$AAr?$AAo?$AAr?$AA?$AN?$AA?6?$AA?$AA@ 00ff42fc     libcmt:crt0msg.obj
 0003:009e1320       ??_C@_1BOO@KGEDBGAJ@?$AAR?$AA6?$AA0?$AA3?$AA3?$AA?$AN?$AA?6?$AA?9?$AA?5?$AAA?$AAt?$AAt?$AAe?$AAm?$AAp?$AAt?$AA?5?$AAt?$AAo?$AA?5?$AAu?$AAs?$AAe?$AA?5?$AAM?$AAS?$AAI?$AAL?$AA?5?$AAc?$AAo?$AAd@ 00ff4320     libcmt:crt0msg.obj
 0003:009e1570       ??_C@_1GG@GOPILAJP@?$AAR?$AA6?$AA0?$AA3?$AA2?$AA?$AN?$AA?6?$AA?9?$AA?5?$AAn?$AAo?$AAt?$AA?5?$AAe?$AAn?$AAo?$AAu?$AAg?$AAh?$AA?5?$AAs?$AAp?$AAa?$AAc?$AAe?$AA?5?$AAf?$AAo?$AAr?$AA?5?$AAl?$AAo@ 00ff4570     libcmt:crt0msg.obj
 0003:009e15f0       ??_C@_1MG@ENCOOIDF@?$AAR?$AA6?$AA0?$AA3?$AA1?$AA?$AN?$AA?6?$AA?9?$AA?5?$AAA?$AAt?$AAt?$AAe?$AAm?$AAp?$AAt?$AA?5?$AAt?$AAo?$AA?5?$AAi?$AAn?$AAi?$AAt?$AAi?$AAa?$AAl?$AAi?$AAz?$AAe?$AA?5?$AAt@ 00ff45f0     libcmt:crt0msg.obj
 0003:009e16e0       ??_C@_1DO@BMFCDCD@?$AAR?$AA6?$AA0?$AA3?$AA0?$AA?$AN?$AA?6?$AA?9?$AA?5?$AAC?$AAR?$AAT?$AA?5?$AAn?$AAo?$AAt?$AA?5?$AAi?$AAn?$AAi?$AAt?$AAi?$AAa?$AAl?$AAi?$AAz?$AAe?$AAd?$AA?$AN?$AA?6?$AA?$AA@ 00ff46e0     libcmt:crt0msg.obj
 0003:009e1730       ??_C@_1EK@HHFLMAOL@?$AAR?$AA6?$AA0?$AA2?$AA8?$AA?$AN?$AA?6?$AA?9?$AA?5?$AAu?$AAn?$AAa?$AAb?$AAl?$AAe?$AA?5?$AAt?$AAo?$AA?5?$AAi?$AAn?$AAi?$AAt?$AAi?$AAa?$AAl?$AAi?$AAz?$AAe?$AA?5?$AAh?$AAe@ 00ff4730     libcmt:crt0msg.obj
 0003:009e1788       ??_C@_1GK@MFGOKLAG@?$AAR?$AA6?$AA0?$AA2?$AA7?$AA?$AN?$AA?6?$AA?9?$AA?5?$AAn?$AAo?$AAt?$AA?5?$AAe?$AAn?$AAo?$AAu?$AAg?$AAh?$AA?5?$AAs?$AAp?$AAa?$AAc?$AAe?$AA?5?$AAf?$AAo?$AAr?$AA?5?$AAl?$AAo@ 00ff4788     libcmt:crt0msg.obj
 0003:009e1808       ??_C@_1GK@MCAAGJMO@?$AAR?$AA6?$AA0?$AA2?$AA6?$AA?$AN?$AA?6?$AA?9?$AA?5?$AAn?$AAo?$AAt?$AA?5?$AAe?$AAn?$AAo?$AAu?$AAg?$AAh?$AA?5?$AAs?$AAp?$AAa?$AAc?$AAe?$AA?5?$AAf?$AAo?$AAr?$AA?5?$AAs?$AAt@ 00ff4808     libcmt:crt0msg.obj
 0003:009e1888       ??_C@_1EM@MAADIHMB@?$AAR?$AA6?$AA0?$AA2?$AA5?$AA?$AN?$AA?6?$AA?9?$AA?5?$AAp?$AAu?$AAr?$AAe?$AA?5?$AAv?$AAi?$AAr?$AAt?$AAu?$AAa?$AAl?$AA?5?$AAf?$AAu?$AAn?$AAc?$AAt?$AAi?$AAo?$AAn?$AA?5?$AAc@ 00ff4888     libcmt:crt0msg.obj
 0003:009e18e8       ??_C@_1GK@FHCKBEFA@?$AAR?$AA6?$AA0?$AA2?$AA4?$AA?$AN?$AA?6?$AA?9?$AA?5?$AAn?$AAo?$AAt?$AA?5?$AAe?$AAn?$AAo?$AAu?$AAg?$AAh?$AA?5?$AAs?$AAp?$AAa?$AAc?$AAe?$AA?5?$AAf?$AAo?$AAr?$AA?5?$AA_?$AAo@ 00ff48e8     libcmt:crt0msg.obj
 0003:009e1968       ??_C@_1FC@ECHBIFBC@?$AAR?$AA6?$AA0?$AA1?$AA9?$AA?$AN?$AA?6?$AA?9?$AA?5?$AAu?$AAn?$AAa?$AAb?$AAl?$AAe?$AA?5?$AAt?$AAo?$AA?5?$AAo?$AAp?$AAe?$AAn?$AA?5?$AAc?$AAo?$AAn?$AAs?$AAo?$AAl?$AAe?$AA?5@ 00ff4968     libcmt:crt0msg.obj
 0003:009e19d0       ??_C@_1EC@JIBHAOPH@?$AAR?$AA6?$AA0?$AA1?$AA8?$AA?$AN?$AA?6?$AA?9?$AA?5?$AAu?$AAn?$AAe?$AAx?$AAp?$AAe?$AAc?$AAt?$AAe?$AAd?$AA?5?$AAh?$AAe?$AAa?$AAp?$AA?5?$AAe?$AAr?$AAr?$AAo?$AAr?$AA?$AN?$AA?6@ 00ff49d0     libcmt:crt0msg.obj
 0003:009e1a20       ??_C@_1FK@BEOGODMC@?$AAR?$AA6?$AA0?$AA1?$AA7?$AA?$AN?$AA?6?$AA?9?$AA?5?$AAu?$AAn?$AAe?$AAx?$AAp?$AAe?$AAc?$AAt?$AAe?$AAd?$AA?5?$AAm?$AAu?$AAl?$AAt?$AAi?$AAt?$AAh?$AAr?$AAe?$AAa?$AAd?$AA?5@ 00ff4a20     libcmt:crt0msg.obj
 0003:009e1a90       ??_C@_1FI@LOGNIKDM@?$AAR?$AA6?$AA0?$AA1?$AA6?$AA?$AN?$AA?6?$AA?9?$AA?5?$AAn?$AAo?$AAt?$AA?5?$AAe?$AAn?$AAo?$AAu?$AAg?$AAh?$AA?5?$AAs?$AAp?$AAa?$AAc?$AAe?$AA?5?$AAf?$AAo?$AAr?$AA?5?$AAt?$AAh@ 00ff4a90     libcmt:crt0msg.obj
 0003:009e1b00       ??_C@_1EG@BEHAGFJD@?$AAR?$AA6?$AA0?$AA1?$AA0?$AA?$AN?$AA?6?$AA?9?$AA?5?$AAa?$AAb?$AAo?$AAr?$AAt?$AA?$CI?$AA?$CJ?$AA?5?$AAh?$AAa?$AAs?$AA?5?$AAb?$AAe?$AAe?$AAn?$AA?5?$AAc?$AAa?$AAl?$AAl?$AAe?$AAd@ 00ff4b00     libcmt:crt0msg.obj
 0003:009e1b58       ??_C@_1FI@HONFMGBI@?$AAR?$AA6?$AA0?$AA0?$AA9?$AA?$AN?$AA?6?$AA?9?$AA?5?$AAn?$AAo?$AAt?$AA?5?$AAe?$AAn?$AAo?$AAu?$AAg?$AAh?$AA?5?$AAs?$AAp?$AAa?$AAc?$AAe?$AA?5?$AAf?$AAo?$AAr?$AA?5?$AAe?$AAn@ 00ff4b58     libcmt:crt0msg.obj
 0003:009e1bc8       ??_C@_1FE@LLNEDJMD@?$AAR?$AA6?$AA0?$AA0?$AA8?$AA?$AN?$AA?6?$AA?9?$AA?5?$AAn?$AAo?$AAt?$AA?5?$AAe?$AAn?$AAo?$AAu?$AAg?$AAh?$AA?5?$AAs?$AAp?$AAa?$AAc?$AAe?$AA?5?$AAf?$AAo?$AAr?$AA?5?$AAa?$AAr@ 00ff4bc8     libcmt:crt0msg.obj
 0003:009e1c30       ??_C@_1FK@PGACCAFB@?$AAR?$AA6?$AA0?$AA0?$AA2?$AA?$AN?$AA?6?$AA?9?$AA?5?$AAf?$AAl?$AAo?$AAa?$AAt?$AAi?$AAn?$AAg?$AA?5?$AAp?$AAo?$AAi?$AAn?$AAt?$AA?5?$AAs?$AAu?$AAp?$AAp?$AAo?$AAr?$AAt?$AA?5@ 00ff4c30     libcmt:crt0msg.obj
 0003:009e1d78       ??_C@_1EK@MBDPDCGA@?$AAM?$AAi?$AAc?$AAr?$AAo?$AAs?$AAo?$AAf?$AAt?$AA?5?$AAV?$AAi?$AAs?$AAu?$AAa?$AAl?$AA?5?$AAC?$AA?$CL?$AA?$CL?$AA?5?$AAR?$AAu?$AAn?$AAt?$AAi?$AAm?$AAe?$AA?5?$AAL?$AAi?$AAb@ 00ff4d78     libcmt:crt0msg.obj
 0003:009e1dd0       ??_C@_15IABLJNFO@?$AA?6?$AA?6?$AA?$AA@ 00ff4dd0     libcmt:crt0msg.obj
 0003:009e1dd8       ??_C@_17LGKOMLJ@?$AA?4?$AA?4?$AA?4?$AA?$AA@ 00ff4dd8     libcmt:crt0msg.obj
 0003:009e1de4       ??_C@_1CO@EAEJAADC@?$AA?$DM?$AAp?$AAr?$AAo?$AAg?$AAr?$AAa?$AAm?$AA?5?$AAn?$AAa?$AAm?$AAe?$AA?5?$AAu?$AAn?$AAk?$AAn?$AAo?$AAw?$AAn?$AA?$DO?$AA?$AA@ 00ff4de4     libcmt:crt0msg.obj
 0003:009e1e1c       ??_C@_1DE@JNGNBFGO@?$AAR?$AAu?$AAn?$AAt?$AAi?$AAm?$AAe?$AA?5?$AAE?$AAr?$AAr?$AAo?$AAr?$AA?$CB?$AA?6?$AA?6?$AAP?$AAr?$AAo?$AAg?$AAr?$AAa?$AAm?$AA?3?$AA?5?$AA?$AA@ 00ff4e1c     libcmt:crt0msg.obj
 0003:009e1e7c       ??_C@_1CK@HHHCOJPD@?$AAE?$AAn?$AAv?$AAi?$AAr?$AAo?$AAn?$AAm?$AAe?$AAn?$AAt?$AAD?$AAi?$AAr?$AAe?$AAc?$AAt?$AAo?$AAr?$AAy?$AA?$AA@ 00ff4e7c     libcmt:_pdblkup_.obj
 0003:009e1eb0       ??_C@_1FM@DNCABAP@?$AAS?$AAO?$AAF?$AAT?$AAW?$AAA?$AAR?$AAE?$AA?2?$AAM?$AAi?$AAc?$AAr?$AAo?$AAs?$AAo?$AAf?$AAt?$AA?2?$AAV?$AAi?$AAs?$AAu?$AAa?$AAl?$AAS?$AAt?$AAu?$AAd?$AAi?$AAo?$AA?2@ 00ff4eb0     libcmt:_pdblkup_.obj
 0003:009e1f20       ??_C@_0M@HLOHPNFA@RegCloseKey?$AA@ 00ff4f20     libcmt:_pdblkup_.obj
 0003:009e1f30       ??_C@_0BB@GLNAEDBD@RegQueryValueExW?$AA@ 00ff4f30     libcmt:_pdblkup_.obj
 0003:009e1f44       ??_C@_0O@COHOBMLB@RegOpenKeyExW?$AA@ 00ff4f44     libcmt:_pdblkup_.obj
 0003:009e1f54       ??_C@_1BK@GAEMIDIL@?$AAA?$AAD?$AAV?$AAA?$AAP?$AAI?$AA3?$AA2?$AA?4?$AAD?$AAL?$AAL?$AA?$AA@ 00ff4f54     libcmt:_pdblkup_.obj
 0003:009e1f74       ??_C@_01KDCPPGHE@r?$AA@    00ff4f74     libcmt:_pdblkup_.obj
 0003:009e1f78       ??_C@_0BB@KCIACLNC@PDBOpenValidate5?$AA@ 00ff4f78     libcmt:_pdblkup_.obj
 0003:009e3c58       ??_C@_0L@KDOEJCKC@_nextafter?$AA@ 00ff6c58     libcmt:_fpexcept_.obj
 0003:009e3c68       ??_C@_05JGDBENOH@_logb?$AA@ 00ff6c68     libcmt:_fpexcept_.obj
 0003:009e3c70       ??_C@_03ONILCKOB@_yn?$AA@  00ff6c70     libcmt:_fpexcept_.obj
 0003:009e3c74       ??_C@_03NAKIGLHK@_y1?$AA@  00ff6c74     libcmt:_fpexcept_.obj
 0003:009e3c78       ??_C@_03MJLDFKDL@_y0?$AA@  00ff6c78     libcmt:_fpexcept_.obj
 0003:009e3c7c       ??_C@_05GKKHEGJL@frexp?$AA@ 00ff6c7c     libcmt:_fpexcept_.obj
 0003:009e3c84       ??_C@_04KEPJIHGP@fmod?$AA@ 00ff6c84     libcmt:_fpexcept_.obj
 0003:009e3c8c       ??_C@_06MEIMCGCF@_hypot?$AA@ 00ff6c8c     libcmt:_fpexcept_.obj
 0003:009e3c94       ??_C@_05KBKMEMPO@_cabs?$AA@ 00ff6c94     libcmt:_fpexcept_.obj
 0003:009e3c9c       ??_C@_05CEJMAHNP@ldexp?$AA@ 00ff6c9c     libcmt:_fpexcept_.obj
 0003:009e3ca4       ??_C@_04ODHECPBC@fabs?$AA@ 00ff6ca4     libcmt:_fpexcept_.obj
 0003:009e3cac       ??_C@_04EIAKFFMI@sqrt?$AA@ 00ff6cac     libcmt:_fpexcept_.obj
 0003:009e3cb4       ??_C@_05KNGEOGJB@atan2?$AA@ 00ff6cb4     libcmt:_fpexcept_.obj
 0003:009e3cbc       ??_C@_04FJHINJAO@tanh?$AA@ 00ff6cbc     libcmt:_fpexcept_.obj
 0003:009e3cc4       ??_C@_04HPJJNFIM@cosh?$AA@ 00ff6cc4     libcmt:_fpexcept_.obj
 0003:009e3ccc       ??_C@_04COOMCNPB@sinh?$AA@ 00ff6ccc     libcmt:_fpexcept_.obj
 0003:009e3cd4       ??_C@_04PNGHFIJN@?4com?$AA@ 00ff6cd4     libcmt:stat.obj
 0003:009e3cdc       ??_C@_04NEEFLLOK@?4bat?$AA@ 00ff6cdc     libcmt:stat.obj
 0003:009e3ce4       ??_C@_04CPCBDHLK@?4cmd?$AA@ 00ff6ce4     libcmt:stat.obj
 0003:009e3cec       ??_C@_04JLMDILM@?4exe?$AA@ 00ff6cec     libcmt:stat.obj
 0003:009e3cf8       __XcptActTab               00ff6cf8     libcmt:winxfltr.obj
 0003:009e3d88       __First_FPE_Indx           00ff6d88     libcmt:winxfltr.obj
 0003:009e3d8c       __Num_FPE                  00ff6d8c     libcmt:winxfltr.obj
 0003:009e3d90       __XcptActTabSize           00ff6d90     libcmt:winxfltr.obj
 0003:009e3d94       __XcptActTabCount          00ff6d94     libcmt:winxfltr.obj
 0003:009e3db8       ___lookuptable_s           00ff6db8     libcmt:outputs.obj
 0003:009e3e28       ___newctype                00ff6e28     libcmt:ctype.obj
 0003:009e4128       __wctype                   00ff7128     libcmt:ctype.obj
 0003:009e4330       ___newclmap                00ff7330     libcmt:ctype.obj
 0003:009e44b0       ___newcumap                00ff74b0     libcmt:ctype.obj
 0003:009e47cc       ??_C@_0O@FMJNFNKE@united?9states?$AA@ 00ff77cc     libcmt:getqloc.obj
 0003:009e47dc       ??_C@_0P@NDHFFKCA@united?9kingdom?$AA@ 00ff77dc     libcmt:getqloc.obj
 0003:009e47f0       ??_C@_0BC@HHDADLGF@trinidad?5?$CG?5tobago?$AA@ 00ff77f0     libcmt:getqloc.obj
 0003:009e4808       ??_C@_0M@IOAEBDAC@south?9korea?$AA@ 00ff7808     libcmt:getqloc.obj
 0003:009e4818       ??_C@_0N@FIELFKIJ@south?9africa?$AA@ 00ff7818     libcmt:getqloc.obj
 0003:009e4828       ??_C@_0M@OPNDHCMC@south?5korea?$AA@ 00ff7828     libcmt:getqloc.obj
 0003:009e4838       ??_C@_0N@MDEOEPFI@south?5africa?$AA@ 00ff7838     libcmt:getqloc.obj
 0003:009e4848       ??_C@_06FKAPCJLB@slovak?$AA@ 00ff7848     libcmt:getqloc.obj
 0003:009e4850       ??_C@_0M@EFJANOAL@puerto?9rico?$AA@ 00ff7850     libcmt:getqloc.obj
 0003:009e4860       ??_C@_08PGOJKDAI@pr?9china?$AA@ 00ff7860     libcmt:getqloc.obj
 0003:009e486c       ??_C@_08JHDOMCMI@pr?5china?$AA@ 00ff786c     libcmt:getqloc.obj
 0003:009e4878       ??_C@_02JHCHFBLL@nz?$AA@   00ff7878     libcmt:getqloc.obj
 0003:009e487c       ??_C@_0M@LINHDHKP@new?9zealand?$AA@ 00ff787c     libcmt:getqloc.obj
 0003:009e488c       ??_C@_09IIIPPBDB@hong?9kong?$AA@ 00ff788c     libcmt:getqloc.obj
 0003:009e4898       ??_C@_07HJLCKBG@holland?$AA@ 00ff7898     libcmt:getqloc.obj
 0003:009e48a4       ??_C@_0O@LEHGMHAG@great?5britain?$AA@ 00ff78a4     libcmt:getqloc.obj
 0003:009e48b4       ??_C@_07FACOMELA@england?$AA@ 00ff78b4     libcmt:getqloc.obj
 0003:009e48c0       ??_C@_05JIHCEICB@czech?$AA@ 00ff78c0     libcmt:getqloc.obj
 0003:009e48c8       ??_C@_05BBJOBLGB@china?$AA@ 00ff78c8     libcmt:getqloc.obj
 0003:009e48d0       ??_C@_07GPKPHICP@britain?$AA@ 00ff78d0     libcmt:getqloc.obj
 0003:009e48dc       ??_C@_07MHIPBHMG@america?$AA@ 00ff78dc     libcmt:getqloc.obj
 0003:009e48e8       ??_C@_03KIALPMKC@usa?$AA@  00ff78e8     libcmt:getqloc.obj
 0003:009e48ec       ??_C@_02FGJGKGGD@us?$AA@   00ff78ec     libcmt:getqloc.obj
 0003:009e48f0       ??_C@_02NEINDODK@uk?$AA@   00ff78f0     libcmt:getqloc.obj
 0003:009e48f4       ??_C@_05JMPCFJFJ@swiss?$AA@ 00ff78f4     libcmt:getqloc.obj
 0003:009e48fc       ??_C@_0BA@HLOCPIOD@swedish?9finland?$AA@ 00ff78fc     libcmt:getqloc.obj
 0003:009e4910       ??_C@_0BC@PKCNIABK@spanish?9venezuela?$AA@ 00ff7910     libcmt:getqloc.obj
 0003:009e4928       ??_C@_0BA@GBHHMIJI@spanish?9uruguay?$AA@ 00ff7928     libcmt:getqloc.obj
 0003:009e493c       ??_C@_0BE@BHDOHPMC@spanish?9puerto?5rico?$AA@ 00ff793c     libcmt:getqloc.obj
 0003:009e4954       ??_C@_0N@KMOIDGGN@spanish?9peru?$AA@ 00ff7954     libcmt:getqloc.obj
 0003:009e4964       ??_C@_0BB@HMHLPGPH@spanish?9paraguay?$AA@ 00ff7964     libcmt:getqloc.obj
 0003:009e4978       ??_C@_0P@MCPKNGFD@spanish?9panama?$AA@ 00ff7978     libcmt:getqloc.obj
 0003:009e498c       ??_C@_0BC@IHOHGAIL@spanish?9nicaragua?$AA@ 00ff798c     libcmt:getqloc.obj
 0003:009e49a4       ??_C@_0P@KLMJDNFJ@spanish?9modern?$AA@ 00ff79a4     libcmt:getqloc.obj
 0003:009e49b8       ??_C@_0BA@BPAPGBCM@spanish?9mexican?$AA@ 00ff79b8     libcmt:getqloc.obj
 0003:009e49cc       ??_C@_0BB@PDECHHHE@spanish?9honduras?$AA@ 00ff79cc     libcmt:getqloc.obj
 0003:009e49e0       ??_C@_0BC@KLHKFGDB@spanish?9guatemala?$AA@ 00ff79e0     libcmt:getqloc.obj
 0003:009e49f8       ??_C@_0BE@MFOOKJAI@spanish?9el?5salvador?$AA@ 00ff79f8     libcmt:getqloc.obj
 0003:009e4a10       ??_C@_0BA@FCOKFPFC@spanish?9ecuador?$AA@ 00ff7a10     libcmt:getqloc.obj
 0003:009e4a24       ??_C@_0BL@PLMGIMOO@spanish?9dominican?5republic?$AA@ 00ff7a24     libcmt:getqloc.obj
 0003:009e4a44       ??_C@_0BD@HLGDNMHB@spanish?9costa?5rica?$AA@ 00ff7a44     libcmt:getqloc.obj
 0003:009e4a5c       ??_C@_0BB@PKCBKCPE@spanish?9colombia?$AA@ 00ff7a5c     libcmt:getqloc.obj
 0003:009e4a70       ??_C@_0O@MCBIJGNE@spanish?9chile?$AA@ 00ff7a70     libcmt:getqloc.obj
 0003:009e4a80       ??_C@_0BA@BEFEIGJJ@spanish?9bolivia?$AA@ 00ff7a80     libcmt:getqloc.obj
 0003:009e4a94       ??_C@_0BC@EMECMPD@spanish?9argentina?$AA@ 00ff7a94     libcmt:getqloc.obj
 0003:009e4aac       ??_C@_0BF@EALFLENP@portuguese?9brazilian?$AA@ 00ff7aac     libcmt:getqloc.obj
 0003:009e4ac8       ??_C@_0BC@HBLEBLNN@norwegian?9nynorsk?$AA@ 00ff7ac8     libcmt:getqloc.obj
 0003:009e4ae0       ??_C@_0BB@HMACDDCK@norwegian?9bokmal?$AA@ 00ff7ae0     libcmt:getqloc.obj
 0003:009e4af4       ??_C@_09BAFFPPHE@norwegian?$AA@ 00ff7af4     libcmt:getqloc.obj
 0003:009e4b00       ??_C@_0O@EAJFJDFG@italian?9swiss?$AA@ 00ff7b00     libcmt:getqloc.obj
 0003:009e4b10       ??_C@_0O@CNOMPGD@irish?9english?$AA@ 00ff7b10     libcmt:getqloc.obj
 0003:009e4b20       ??_C@_0N@EDHBGCKG@german?9swiss?$AA@ 00ff7b20     libcmt:getqloc.obj
 0003:009e4b30       ??_C@_0BC@JACMHNBP@german?9luxembourg?$AA@ 00ff7b30     libcmt:getqloc.obj
 0003:009e4b48       ??_C@_0BE@HBGMGFEG@german?9lichtenstein?$AA@ 00ff7b48     libcmt:getqloc.obj
 0003:009e4b60       ??_C@_0BA@HKKBIBKL@german?9austrian?$AA@ 00ff7b60     libcmt:getqloc.obj
 0003:009e4b74       ??_C@_0N@GCAEPEBK@french?9swiss?$AA@ 00ff7b74     libcmt:getqloc.obj
 0003:009e4b84       ??_C@_0BC@DJFJJCK@french?9luxembourg?$AA@ 00ff7b84     libcmt:getqloc.obj
 0003:009e4b9c       ??_C@_0BA@NNCEDFIC@french?9canadian?$AA@ 00ff7b9c     libcmt:getqloc.obj
 0003:009e4bb0       ??_C@_0P@CMPOCLM@french?9belgian?$AA@ 00ff7bb0     libcmt:getqloc.obj
 0003:009e4bc4       ??_C@_0M@GHHDJOK@english?9usa?$AA@ 00ff7bc4     libcmt:getqloc.obj
 0003:009e4bd4       ??_C@_0L@PLDJKEIL@english?9us?$AA@ 00ff7bd4     libcmt:getqloc.obj
 0003:009e4be4       ??_C@_0L@HJCCDMNC@english?9uk?$AA@ 00ff7be4     libcmt:getqloc.obj
 0003:009e4bf4       ??_C@_0BK@CKLIAGJB@english?9trinidad?5y?5tobago?$AA@ 00ff7bf4     libcmt:getqloc.obj
 0003:009e4c14       ??_C@_0BF@JMJMGNNF@english?9south?5africa?$AA@ 00ff7c14     libcmt:getqloc.obj
 0003:009e4c30       ??_C@_0L@DKIIFDFD@english?9nz?$AA@ 00ff7c30     libcmt:getqloc.obj
 0003:009e4c40       ??_C@_0BA@ONHGJCLH@english?9jamaica?$AA@ 00ff7c40     libcmt:getqloc.obj
 0003:009e4c54       ??_C@_0M@HJBGHOPO@english?9ire?$AA@ 00ff7c54     libcmt:getqloc.obj
 0003:009e4c64       ??_C@_0BC@LFEKMIFB@english?9caribbean?$AA@ 00ff7c64     libcmt:getqloc.obj
 0003:009e4c7c       ??_C@_0M@OLDPFKHI@english?9can?$AA@ 00ff7c7c     libcmt:getqloc.obj
 0003:009e4c8c       ??_C@_0P@OMDEHBMP@english?9belize?$AA@ 00ff7c8c     libcmt:getqloc.obj
 0003:009e4ca0       ??_C@_0M@KFHFPFED@english?9aus?$AA@ 00ff7ca0     libcmt:getqloc.obj
 0003:009e4cb0       ??_C@_0BB@MNMBKDFE@english?9american?$AA@ 00ff7cb0     libcmt:getqloc.obj
 0003:009e4cc4       ??_C@_0O@KIDLNNBA@dutch?9belgian?$AA@ 00ff7cc4     libcmt:getqloc.obj
 0003:009e4cd4       ??_C@_0BE@JBKABBMH@chinese?9traditional?$AA@ 00ff7cd4     libcmt:getqloc.obj
 0003:009e4cec       ??_C@_0BC@MJJMPKCG@chinese?9singapore?$AA@ 00ff7cec     libcmt:getqloc.obj
 0003:009e4d04       ??_C@_0BD@FDKADDCP@chinese?9simplified?$AA@ 00ff7d04     libcmt:getqloc.obj
 0003:009e4d1c       ??_C@_0BB@DBEFDDME@chinese?9hongkong?$AA@ 00ff7d1c     libcmt:getqloc.obj
 0003:009e4d30       ??_C@_07DHNMFMCI@chinese?$AA@ 00ff7d30     libcmt:getqloc.obj
 0003:009e4d3c       ??_C@_03FNDDCHI@chi?$AA@   00ff7d3c     libcmt:getqloc.obj
 0003:009e4d40       ??_C@_03BMMIADDJ@chh?$AA@  00ff7d40     libcmt:getqloc.obj
 0003:009e4d44       ??_C@_08OAIPJDGI@canadian?$AA@ 00ff7d44     libcmt:getqloc.obj
 0003:009e4d50       ??_C@_07HBPMNPNJ@belgian?$AA@ 00ff7d50     libcmt:getqloc.obj
 0003:009e4d5c       ??_C@_0L@OEKOPBEL@australian?$AA@ 00ff7d5c     libcmt:getqloc.obj
 0003:009e4d6c       ??_C@_0BB@MEIMBEDG@american?9english?$AA@ 00ff7d6c     libcmt:getqloc.obj
 0003:009e4d80       ??_C@_0BB@DFMDPDGB@american?5english?$AA@ 00ff7d80     libcmt:getqloc.obj
 0003:009e4d94       ??_C@_08IJLOKOLL@american?$AA@ 00ff7d94     libcmt:getqloc.obj
 0003:009e4da0       ___rg_language             00ff7da0     libcmt:getqloc.obj
 0003:009e5010       ___rg_country              00ff8010     libcmt:getqloc.obj
 0003:009e50ec       ___rglangidNotDefault      00ff80ec     libcmt:getqloc.obj
 0003:009e5104       ??_C@_03NFKLAGEF@OCP?$AA@  00ff8104     libcmt:getqloc.obj
 0003:009e5108       ??_C@_03DFHEHBHG@ACP?$AA@  00ff8108     libcmt:getqloc.obj
 0003:009e510c       ??_C@_0BC@NFIEMBLL@Norwegian?9Nynorsk?$AA@ 00ff810c     libcmt:getqloc.obj
 0003:009e5124       ??_C@_0BC@JEAENNKH@SystemFunction036?$AA@ 00ff8124     libcmt:rand_s.obj
 0003:009e513c       ??_C@_0BI@DFKBFLJE@GetProcessWindowStation?$AA@ 00ff813c     libcmt:crtmboxw.obj
 0003:009e5158       ??_C@_0BK@DEKFELLI@GetUserObjectInformationW?$AA@ 00ff8158     libcmt:crtmboxw.obj
 0003:009e5178       ??_C@_0BD@HHGDFDBJ@GetLastActivePopup?$AA@ 00ff8178     libcmt:crtmboxw.obj
 0003:009e5190       ??_C@_0BA@HNOPNCHB@GetActiveWindow?$AA@ 00ff8190     libcmt:crtmboxw.obj
 0003:009e51a4       ??_C@_0M@DLDCCGNP@MessageBoxW?$AA@ 00ff81a4     libcmt:crtmboxw.obj
 0003:009e51b4       ??_C@_1BG@GOEBHBDC@?$AAU?$AAS?$AAE?$AAR?$AA3?$AA2?$AA?4?$AAD?$AAL?$AAL?$AA?$AA@ 00ff81b4     libcmt:crtmboxw.obj
 0003:009e51d0       __atan_table               00ff81d0     libcmt:_atan_table_.obj
 0003:009e6eb0       ??_C@_06IMKFLFPG@1?$CDQNAN?$AA@ 00ff9eb0     libcmt:_x10fout_.obj
 0003:009e6eb8       ??_C@_05DNEBIAHO@1?$CDINF?$AA@ 00ff9eb8     libcmt:_x10fout_.obj
 0003:009e6ec0       ??_C@_05PHHOCPM@1?$CDIND?$AA@ 00ff9ec0     libcmt:_x10fout_.obj
 0003:009e6ec8       ??_C@_06PGGFOGJG@1?$CDSNAN?$AA@ 00ff9ec8     libcmt:_x10fout_.obj
 0003:009e6ed0       ??_C@_0BK@CFCOFLF@?5Complete?5Object?5Locator?8?$AA@ 00ff9ed0     libcmt:undname.obj
 0003:009e6ef0       ??_C@_0BN@MECKDCOJ@?5Class?5Hierarchy?5Descriptor?8?$AA@ 00ff9ef0     libcmt:undname.obj
 0003:009e6f14       ??_C@_0BD@LGICGFMM@?5Base?5Class?5Array?8?$AA@ 00ff9f14     libcmt:undname.obj
 0003:009e6f2c       ??_C@_0BM@LDKODKLH@?5Base?5Class?5Descriptor?5at?5?$CI?$AA@ 00ff9f2c     libcmt:undname.obj
 0003:009e6f50       ??_C@_0BC@DAFEJGAK@?5Type?5Descriptor?8?$AA@ 00ff9f50     libcmt:undname.obj
 0003:009e6f68       ??_C@_0BM@PMGGMLDN@?$GAlocal?5static?5thread?5guard?8?$AA@ 00ff9f68     libcmt:undname.obj
 0003:009e6f8c       ??_C@_0CL@FGIJHLCE@?$GAmanaged?5vector?5copy?5constructor@ 00ff9f8c     libcmt:undname.obj
 0003:009e6fc0       ??_C@_0CJ@GJELGAMM@?$GAvector?5vbase?5copy?5constructor?5i@ 00ff9fc0     libcmt:undname.obj
 0003:009e6ff4       ??_C@_0CD@CGAJBKEJ@?$GAvector?5copy?5constructor?5iterato@ 00ff9ff4     libcmt:undname.obj
 0003:009e7020       ??_C@_0CB@PDBIFEP@?$GAdynamic?5atexit?5destructor?5for?5?8@ 00ffa020     libcmt:undname.obj
 0003:009e7048       ??_C@_0BL@CLIPGLGB@?$GAdynamic?5initializer?5for?5?8?$AA@ 00ffa048     libcmt:undname.obj
 0003:009e7068       ??_C@_0CM@FCBBDIGB@?$GAeh?5vector?5vbase?5copy?5constructo@ 00ffa068     libcmt:undname.obj
 0003:009e709c       ??_C@_0CG@HLDDJMAG@?$GAeh?5vector?5copy?5constructor?5iter@ 00ffa09c     libcmt:undname.obj
 0003:009e70cc       ??_C@_0CF@IMGKMJNO@?$GAmanaged?5vector?5destructor?5itera@ 00ffa0cc     libcmt:undname.obj
 0003:009e70f8       ??_C@_0CG@CFDHKGGD@?$GAmanaged?5vector?5constructor?5iter@ 00ffa0f8     libcmt:undname.obj
 0003:009e7128       ??_C@_0BN@CKNJLHMB@?$GAplacement?5delete?$FL?$FN?5closure?8?$AA@ 00ffa128     libcmt:undname.obj
 0003:009e714c       ??_C@_0BL@CNOONJFP@?$GAplacement?5delete?5closure?8?$AA@ 00ffa14c     libcmt:undname.obj
 0003:009e716c       ??_C@_0P@HJKNJFNN@?$GAomni?5callsig?8?$AA@ 00ffa16c     libcmt:undname.obj
 0003:009e7180       ??_C@_09LBNFPBCA@?5delete?$FL?$FN?$AA@ 00ffa180     libcmt:undname.obj
 0003:009e718c       ??_C@_06FHBGPFGH@?5new?$FL?$FN?$AA@ 00ffa18c     libcmt:undname.obj
 0003:009e7194       ??_C@_0CE@IIHCMGGL@?$GAlocal?5vftable?5constructor?5closu@ 00ffa194     libcmt:undname.obj
 0003:009e71c0       ??_C@_0BA@KKLDJDLB@?$GAlocal?5vftable?8?$AA@ 00ffa1c0     libcmt:undname.obj
 0003:009e71d4       ??_C@_05KHLCHHI@?$GARTTI?$AA@ 00ffa1d4     libcmt:undname.obj
 0003:009e71dc       ??_C@_03KLGMFNMG@?$GAEH?$AA@ 00ffa1dc     libcmt:undname.obj
 0003:009e71e0       ??_C@_0BA@KBCDOMBN@?$GAudt?5returning?8?$AA@ 00ffa1e0     libcmt:undname.obj
 0003:009e71f4       ??_C@_0BL@LLKPOHJI@?$GAcopy?5constructor?5closure?8?$AA@ 00ffa1f4     libcmt:undname.obj
 0003:009e7214       ??_C@_0CH@OOJPLCPH@?$GAeh?5vector?5vbase?5constructor?5ite@ 00ffa214     libcmt:undname.obj
 0003:009e7244       ??_C@_0CA@GCEOPDGL@?$GAeh?5vector?5destructor?5iterator?8?$AA@ 00ffa244     libcmt:undname.obj
 0003:009e726c       ??_C@_0CB@JONCMFFK@?$GAeh?5vector?5constructor?5iterator?8@ 00ffa26c     libcmt:undname.obj
 0003:009e7294       ??_C@_0BL@NILFHHPC@?$GAvirtual?5displacement?5map?8?$AA@ 00ffa294     libcmt:undname.obj
 0003:009e72b4       ??_C@_0CE@IKBNEHA@?$GAvector?5vbase?5constructor?5iterat@ 00ffa2b4     libcmt:undname.obj
 0003:009e72e0       ??_C@_0BN@LFPFMEDL@?$GAvector?5destructor?5iterator?8?$AA@ 00ffa2e0     libcmt:undname.obj
 0003:009e7304       ??_C@_0BO@PFGOCPJJ@?$GAvector?5constructor?5iterator?8?$AA@ 00ffa304     libcmt:undname.obj
 0003:009e7328       ??_C@_0BN@IMDCHIKM@?$GAscalar?5deleting?5destructor?8?$AA@ 00ffa328     libcmt:undname.obj
 0003:009e734c       ??_C@_0BO@OBMKPJIG@?$GAdefault?5constructor?5closure?8?$AA@ 00ffa34c     libcmt:undname.obj
 0003:009e7370       ??_C@_0BN@DEGPLNFK@?$GAvector?5deleting?5destructor?8?$AA@ 00ffa370     libcmt:undname.obj
 0003:009e7394       ??_C@_0BD@JDLKDPAB@?$GAvbase?5destructor?8?$AA@ 00ffa394     libcmt:undname.obj
 0003:009e73ac       ??_C@_08OBABFOLI@?$GAstring?8?$AA@ 00ffa3ac     libcmt:undname.obj
 0003:009e73b8       ??_C@_0BF@KDPPACIK@?$GAlocal?5static?5guard?8?$AA@ 00ffa3b8     libcmt:undname.obj
 0003:009e73d4       ??_C@_08LLFFHHDJ@?$GAtypeof?8?$AA@ 00ffa3d4     libcmt:undname.obj
 0003:009e73e0       ??_C@_07FEEIOKP@?$GAvcall?8?$AA@ 00ffa3e0     libcmt:undname.obj
 0003:009e73ec       ??_C@_09BLBHBJP@?$GAvbtable?8?$AA@ 00ffa3ec     libcmt:undname.obj
 0003:009e73f8       ??_C@_09IFPLHPGF@?$GAvftable?8?$AA@ 00ffa3f8     libcmt:undname.obj
 0003:009e7404       ??_C@_02MHEGNOJ@?$FO?$DN?$AA@ 00ffa404     libcmt:undname.obj
 0003:009e7408       ??_C@_02DHLNPPGH@?$HM?$DN?$AA@ 00ffa408     libcmt:undname.obj
 0003:009e740c       ??_C@_02FGJGFEAB@?$CG?$DN?$AA@ 00ffa40c     libcmt:undname.obj
 0003:009e7410       ??_C@_03CDNPDDLA@?$DM?$DM?$DN?$AA@ 00ffa410     libcmt:undname.obj
 0003:009e7414       ??_C@_03IKFCCPFF@?$DO?$DO?$DN?$AA@ 00ffa414     libcmt:undname.obj
 0003:009e7418       ??_C@_02FENAOKFI@?$CF?$DN?$AA@ 00ffa418     libcmt:undname.obj
 0003:009e741c       ??_C@_02FJEHGPIO@?1?$DN?$AA@ 00ffa41c     libcmt:undname.obj
 0003:009e7420       ??_C@_02FKMDLLOA@?9?$DN?$AA@ 00ffa420     libcmt:undname.obj
 0003:009e7424       ??_C@_02FOEOMHFC@?$CL?$DN?$AA@ 00ffa424     libcmt:undname.obj
 0003:009e7428       ??_C@_02FPIMKNGF@?$CK?$DN?$AA@ 00ffa428     libcmt:undname.obj
 0003:009e742c       ??_C@_02NONPIBCD@?$HM?$HM?$AA@ 00ffa42c     libcmt:undname.obj
 0003:009e7430       ??_C@_02PPKAJPJL@?$CG?$CG?$AA@ 00ffa430     libcmt:undname.obj
 0003:009e7434       ??_C@_01DNKMNLPK@?$HM?$AA@ 00ffa434     libcmt:undname.obj
 0003:009e7438       ??_C@_01JKBOJNNK@?$FO?$AA@ 00ffa438     libcmt:undname.obj
 0003:009e743c       ??_C@_01PJKLJHI@?$HO?$AA@  00ffa43c     libcmt:undname.obj
 0003:009e7440       ??_C@_02HCKGKOFO@?$CI?$CJ?$AA@ 00ffa440     libcmt:undname.obj
 0003:009e7444       ??_C@_01IHBHIGKO@?0?$AA@   00ffa444     libcmt:undname.obj
 0003:009e7448       ??_C@_02EEKDKGMJ@?$DO?$DN?$AA@ 00ffa448     libcmt:undname.obj
 0003:009e744c       ??_C@_01PPODPGHN@?$DO?$AA@ 00ffa44c     libcmt:undname.obj
 0003:009e7450       ??_C@_02EHCHHCKH@?$DM?$DN?$AA@ 00ffa450     libcmt:undname.obj
 0003:009e7454       ??_C@_01MNNFJEPP@?$DM?$AA@ 00ffa454     libcmt:undname.obj
 0003:009e7458       ??_C@_01FGNFDNOH@?$CF?$AA@ 00ffa458     libcmt:undname.obj
 0003:009e745c       ??_C@_01KMDKNFGN@?1?$AA@   00ffa45c     libcmt:undname.obj
 0003:009e7460       ??_C@_03MNHNFDLC@?9?$DO?$CK?$AA@ 00ffa460     libcmt:undname.obj
 0003:009e7464       ??_C@_01HNPIGOCE@?$CG?$AA@ 00ffa464     libcmt:undname.obj
 0003:009e7468       ??_C@_01MIFGBAGJ@?$CL?$AA@ 00ffa468     libcmt:undname.obj
 0003:009e746c       ??_C@_01JOAMLHOP@?9?$AA@   00ffa46c     libcmt:undname.obj
 0003:009e7470       ??_C@_02BAABKJLB@?9?9?$AA@ 00ffa470     libcmt:undname.obj
 0003:009e7474       ??_C@_02ECNGHCIF@?$CL?$CL?$AA@ 00ffa474     libcmt:undname.obj
 0003:009e7478       ??_C@_01NBENCBCI@?$CK?$AA@ 00ffa478     libcmt:undname.obj
 0003:009e747c       ??_C@_02HBOOOICD@?9?$DO?$AA@ 00ffa47c     libcmt:undname.obj
 0003:009e7480       ??_C@_08LHJFAFGD@operator?$AA@ 00ffa480     libcmt:undname.obj
 0003:009e748c       ??_C@_02GPECMEKF@?$FL?$FN?$AA@ 00ffa48c     libcmt:undname.obj
 0003:009e7490       ??_C@_02FDNJECIE@?$CB?$DN?$AA@ 00ffa490     libcmt:undname.obj
 0003:009e7494       ??_C@_02EGOFBIJA@?$DN?$DN?$AA@ 00ffa494     libcmt:undname.obj
 0003:009e7498       ??_C@_01DCLJPIOD@?$CB?$AA@ 00ffa498     libcmt:undname.obj
 0003:009e749c       ??_C@_02FODMEDOG@?$DM?$DM?$AA@ 00ffa49c     libcmt:undname.obj
 0003:009e74a0       ??_C@_02GPIOPFAK@?$DO?$DO?$AA@ 00ffa4a0     libcmt:undname.obj
 0003:009e74a4       ??_C@_07FPCDHGMM@?5delete?$AA@ 00ffa4a4     libcmt:undname.obj
 0003:009e74b0       ??_C@_04NIHEBCM@?5new?$AA@ 00ffa4b0     libcmt:undname.obj
 0003:009e74b8       ??_C@_0M@GFIIJFMG@__unaligned?$AA@ 00ffa4b8     libcmt:undname.obj
 0003:009e74c8       ??_C@_0L@PILCLIHE@__restrict?$AA@ 00ffa4c8     libcmt:undname.obj
 0003:009e74d8       ??_C@_07JOMMBBKO@__ptr64?$AA@ 00ffa4d8     libcmt:undname.obj
 0003:009e74e4       ??_C@_06GHPCKEAG@__eabi?$AA@ 00ffa4e4     libcmt:undname.obj
 0003:009e74ec       ??_C@_09HIJEGCPM@__clrcall?$AA@ 00ffa4ec     libcmt:undname.obj
 0003:009e74f8       ??_C@_0L@JMKHOMEK@__fastcall?$AA@ 00ffa4f8     libcmt:undname.obj
 0003:009e7508       ??_C@_0L@NPHFGOKO@__thiscall?$AA@ 00ffa508     libcmt:undname.obj
 0003:009e7518       ??_C@_09IFJBGAPI@__stdcall?$AA@ 00ffa518     libcmt:undname.obj
 0003:009e7524       ??_C@_08GHMPAG@__pascal?$AA@ 00ffa524     libcmt:undname.obj
 0003:009e7530       ??_C@_07KOLFKCDI@__cdecl?$AA@ 00ffa530     libcmt:undname.obj
 0003:009e753c       ??_C@_08EHJDFFNH@__based?$CI?$AA@ 00ffa53c     libcmt:undname.obj
 0003:009e771c       ??_7DNameNode@@6B@         00ffa71c     libcmt:undname.obj
 0003:009e772c       ??_7charNode@@6B@          00ffa72c     libcmt:undname.obj
 0003:009e773c       ??_7pDNameNode@@6B@        00ffa73c     libcmt:undname.obj
 0003:009e774c       ??_7DNameStatusNode@@6B@   00ffa74c     libcmt:undname.obj
 0003:009e775c       ??_7pairNode@@6B@          00ffa75c     libcmt:undname.obj
 0003:009e776c       ??_7pcharNode@@6B@         00ffa76c     libcmt:undname.obj
 0003:009e777c       ??_C@_04OKOHEJBO@?5?$DP?$DP?5?$AA@ 00ffa77c     libcmt:undname.obj
 0003:009e7784       ??_C@_06EEGAIFAK@?$HLflat?$HN?$AA@ 00ffa784     libcmt:undname.obj
 0003:009e778c       ??_C@_05JIBOFOHK@?$HLfor?5?$AA@ 00ffa78c     libcmt:undname.obj
 0003:009e7794       ??_C@_0BN@IBLMMFAP@?$GAnon?9type?9template?9parameter?$AA@ 00ffa794     libcmt:undname.obj
 0003:009e77b8       ??_C@_09EBBEKKIH@unsigned?5?$AA@ 00ffa7b8     libcmt:undname.obj
 0003:009e77c4       ??_C@_05CJIMAING@long?5?$AA@ 00ffa7c4     libcmt:undname.obj
 0003:009e77cc       ??_C@_04LAHKHJMA@int?5?$AA@ 00ffa7cc     libcmt:undname.obj
 0003:009e77d4       ??_C@_06EHJMALKF@short?5?$AA@ 00ffa7d4     libcmt:undname.obj
 0003:009e77dc       ??_C@_05CIHEBHNO@char?5?$AA@ 00ffa7dc     libcmt:undname.obj
 0003:009e77e4       ??_C@_04GKJNKENE@void?$AA@ 00ffa7e4     libcmt:undname.obj
 0003:009e77ec       ??_C@_0L@EGPHHEKN@?$DMellipsis?$DO?$AA@ 00ffa7ec     libcmt:undname.obj
 0003:009e77fc       ??_C@_03KHICJKCI@?4?4?4?$AA@ 00ffa7fc     libcmt:undname.obj
 0003:009e7800       ??_C@_0M@ELJOJFFH@?0?$DMellipsis?$DO?$AA@ 00ffa800     libcmt:undname.obj
 0003:009e7810       ??_C@_04EENFHACM@?0?4?4?4?$AA@ 00ffa810     libcmt:undname.obj
 0003:009e7818       ??_C@_07HDJPLPEK@?5throw?$CI?$AA@ 00ffa818     libcmt:undname.obj
 0003:009e7824       ??_C@_02GOGNNPBN@?$CJ?$FL?$AA@ 00ffa824     libcmt:undname.obj
 0003:009e7828       ??_C@_02MDINNEEG@s?5?$AA@  00ffa828     libcmt:undname.obj
 0003:009e782c       ??_C@_01GEODFPGF@?8?$AA@   00ffa82c     libcmt:undname.obj
 0003:009e7830       ??_C@_0BE@EODMJLIF@?$GAtemplate?9parameter?$AA@ 00ffa830     libcmt:undname.obj
 0003:009e7848       ??_C@_04HIBGFPH@NULL?$AA@  00ffa848     libcmt:undname.obj
 0003:009e7850       ??_C@_0O@GKABPPIF@cli?3?3pin_ptr?$DM?$AA@ 00ffa850     libcmt:undname.obj
 0003:009e7860       ??_C@_0M@EALIELKG@cli?3?3array?$DM?$AA@ 00ffa860     libcmt:undname.obj
 0003:009e7870       ??_C@_05BEFAKPML@void?5?$AA@ 00ffa870     libcmt:undname.obj
 0003:009e7878       ??_C@_02OHHJMEON@?8?8?$AA@ 00ffa878     libcmt:undname.obj
 0003:009e787c       ??_C@_0BG@JNJLAMPM@?$GAanonymous?5namespace?8?$AA@ 00ffa87c     libcmt:undname.obj
 0003:009e7898       ??_C@_01NLNLIGKH@?$GA?$AA@ 00ffa898     libcmt:undname.obj
 0003:009e789c       ??_C@_0O@KHGCOMHP@generic?9type?9?$AA@ 00ffa89c     libcmt:undname.obj
 0003:009e78ac       ??_C@_0BE@JAEOCHPE@template?9parameter?9?$AA@ 00ffa8ac     libcmt:undname.obj
 0003:009e78c4       ??_C@_02MOLJINC@?3?3?$AA@  00ffa8c4     libcmt:undname.obj
 0003:009e78c8       ??_C@_0P@GCIFDJCJ@?$GAunknown?5ecsu?8?$AA@ 00ffa8c8     libcmt:undname.obj
 0003:009e78dc       ??_C@_06MOJHIBMG@union?5?$AA@ 00ffa8dc     libcmt:undname.obj
 0003:009e78e4       ??_C@_07DIBCDNGL@struct?5?$AA@ 00ffa8e4     libcmt:undname.obj
 0003:009e78f0       ??_C@_06LJBABKPM@class?5?$AA@ 00ffa8f0     libcmt:undname.obj
 0003:009e78f8       ??_C@_05LJGMCFOG@enum?5?$AA@ 00ffa8f8     libcmt:undname.obj
 0003:009e7900       ??_C@_08KOFANOFK@coclass?5?$AA@ 00ffa900     libcmt:undname.obj
 0003:009e790c       ??_C@_0N@DLIEFKNA@cointerface?5?$AA@ 00ffa90c     libcmt:undname.obj
 0003:009e791c       ??_C@_02KCKGHPCA@?$CJ?5?$AA@ 00ffa91c     libcmt:undname.obj
 0003:009e7920       ??_C@_0M@DHNBOJMP@extern?5?$CCC?$CC?5?$AA@ 00ffa920     libcmt:undname.obj
 0003:009e7930       ??_C@_08KJLFOPNE@?$FLthunk?$FN?3?$AA@ 00ffa930     libcmt:undname.obj
 0003:009e793c       ??_C@_08GPDDCMKI@public?3?5?$AA@ 00ffa93c     libcmt:undname.obj
 0003:009e7948       ??_C@_0M@GAIFPFIP@protected?3?5?$AA@ 00ffa948     libcmt:undname.obj
 0003:009e7958       ??_C@_09LAPHOOG@private?3?5?$AA@ 00ffa958     libcmt:undname.obj
 0003:009e7964       ??_C@_08NIEOINHE@virtual?5?$AA@ 00ffa964     libcmt:undname.obj
 0003:009e7970       ??_C@_07PGOEDBHP@static?5?$AA@ 00ffa970     libcmt:undname.obj
 0003:009e797c       ??_C@_0DA@HGFJFBBE@?$GAtemplate?5static?5data?5member?5des@ 00ffa97c     libcmt:undname.obj
 0003:009e79b8       ??_C@_0DB@ILEFOCIJ@?$GAtemplate?5static?5data?5member?5con@ 00ffa9b8     libcmt:undname.obj
 0003:009e79f4       ??_C@_0CB@KJDOOODE@?$GAlocal?5static?5destructor?5helper?8@ 00ffa9f4     libcmt:undname.obj
 0003:009e7a1c       ??_C@_0L@HNGCOGAE@?$GAadjustor?$HL?$AA@ 00ffaa1c     libcmt:undname.obj
 0003:009e7a2c       ??_C@_0L@GHPFDFH@?$GAvtordisp?$HL?$AA@ 00ffaa2c     libcmt:undname.obj
 0003:009e7a3c       ??_C@_0N@CBHHHENL@?$GAvtordispex?$HL?$AA@ 00ffaa3c     libcmt:undname.obj
 0003:009e7a4c       ??_C@_01CLKCMJKC@?5?$AA@   00ffaa4c     libcmt:undname.obj
 0003:009e7a50       ??_C@_02IGFCGPIL@?$HN?8?$AA@ 00ffaa50     libcmt:undname.obj
 0003:009e7a54       ??_C@_03OPGICMGF@?$HN?8?5?$AA@ 00ffaa54     libcmt:undname.obj
 0003:009e7a58       ??_C@_06LIJLOJAG@const?5?$AA@ 00ffaa58     libcmt:undname.obj
 0003:009e7a60       ??_C@_09GAIEOBLP@volatile?5?$AA@ 00ffaa60     libcmt:undname.obj
 0003:009e7a6c       ??_C@_04HEJADOOB@CV?3?5?$AA@ 00ffaa6c     libcmt:undname.obj
 0003:009e7a74       ??_C@_08PABEKFH@volatile?$AA@ 00ffaa74     libcmt:undname.obj
 0003:009e7a80       ??_C@_09EFNPDFFP@?5volatile?$AA@ 00ffaa80     libcmt:undname.obj
 0003:009e7a8c       ??_C@_05BNCCCJPP@const?$AA@ 00ffaa8c     libcmt:undname.obj
 0003:009e7a94       ??_C@_07EDHNAJHC@signed?5?$AA@ 00ffaa94     libcmt:undname.obj
 0003:009e7aa0       ??_C@_06BNJCAIGJ@double?$AA@ 00ffaaa0     libcmt:undname.obj
 0003:009e7aa8       ??_C@_04DDKJGDCM@bool?$AA@ 00ffaaa8     libcmt:undname.obj
 0003:009e7ab0       ??_C@_09EEKGDCPH@?$DMunknown?$DO?$AA@ 00ffaab0     libcmt:undname.obj
 0003:009e7abc       ??_C@_07CLGGIAMF@wchar_t?$AA@ 00ffaabc     libcmt:undname.obj
 0003:009e7ac8       ??_C@_07NFANNNEC@UNKNOWN?$AA@ 00ffaac8     libcmt:undname.obj
 0003:009e7ad4       ??_C@_08GAHOLHEO@__int128?$AA@ 00ffaad4     libcmt:undname.obj
 0003:009e7ae0       ??_C@_07OFLPPHGP@__int32?$AA@ 00ffaae0     libcmt:undname.obj
 0003:009e7aec       ??_C@_07LFCOJCAC@__int64?$AA@ 00ffaaec     libcmt:undname.obj
 0003:009e7af8       ??_C@_07ICFHOGAF@__int16?$AA@ 00ffaaf8     libcmt:undname.obj
 0003:009e7b04       ??_C@_06GCICPBLB@__w64?5?$AA@ 00ffab04     libcmt:undname.obj
 0003:009e7b0c       ??_C@_06EBGKOKIG@__int8?$AA@ 00ffab0c     libcmt:undname.obj
 0003:009e7b14       ??_C@_05KNFBNCOH@float?$AA@ 00ffab14     libcmt:undname.obj
 0003:009e7b1c       ??_C@_04GOKPGOLB@long?$AA@ 00ffab1c     libcmt:undname.obj
 0003:009e7b24       ??_C@_03JBIPMCLC@int?$AA@  00ffab24     libcmt:undname.obj
 0003:009e7b28       ??_C@_05BFKKPKCG@short?$AA@ 00ffab28     libcmt:undname.obj
 0003:009e7b30       ??_C@_04ENMBGAPA@char?$AA@ 00ffab30     libcmt:undname.obj
 0003:009e7b38       ??_C@_0P@GCOCNKDM@std?3?3nullptr_t?$AA@ 00ffab38     libcmt:undname.obj
 0003:009e7b4c       ??_C@_1BA@BALFACEM@?$AAC?$AAO?$AAN?$AAO?$AAU?$AAT?$AA$?$AA?$AA@ 00ffab4c     libcmt:initcon.obj
 0003:009e7c04       __real@4@3fff8000000000000000 00ffac04     GUISim:SIM_GUI_App.OBJ
 0003:009e7c08       _aVKey2Key                 00ffac08     GUISim:SIM_GUI.OBJ
 0003:009e8464       ??_R4bad_alloc@std@@6B@    00ffb464     libcmt:new.obj
 0003:009e847c       ??_R3bad_alloc@std@@8      00ffb47c     libcmt:new.obj
 0003:009e8490       ??_R2bad_alloc@std@@8      00ffb490     libcmt:new.obj
 0003:009e849c       ??_R1A@?0A@EA@bad_alloc@std@@8 00ffb49c     libcmt:new.obj
 0003:009e84c0       ??_R1A@?0A@EA@exception@std@@8 00ffb4c0     libcmt:new.obj
 0003:009e84e4       ??_R3exception@std@@8      00ffb4e4     libcmt:new.obj
 0003:009e84f8       ??_R2exception@std@@8      00ffb4f8     libcmt:new.obj
 0003:009e8500       ??_R4exception@std@@6B@    00ffb500     libcmt:stdexcpt.obj
 0003:009e8518       ??_R4bad_cast@std@@6B@     00ffb518     libcmt:stdexcpt.obj
 0003:009e8530       ??_R3bad_cast@std@@8       00ffb530     libcmt:stdexcpt.obj
 0003:009e8544       ??_R2bad_cast@std@@8       00ffb544     libcmt:stdexcpt.obj
 0003:009e8550       ??_R1A@?0A@EA@bad_cast@std@@8 00ffb550     libcmt:stdexcpt.obj
 0003:009e8574       ??_R4bad_typeid@std@@6B@   00ffb574     libcmt:stdexcpt.obj
 0003:009e858c       ??_R3bad_typeid@std@@8     00ffb58c     libcmt:stdexcpt.obj
 0003:009e85a0       ??_R2bad_typeid@std@@8     00ffb5a0     libcmt:stdexcpt.obj
 0003:009e85ac       ??_R1A@?0A@EA@bad_typeid@std@@8 00ffb5ac     libcmt:stdexcpt.obj
 0003:009e85d0       ??_R4__non_rtti_object@std@@6B@ 00ffb5d0     libcmt:stdexcpt.obj
 0003:009e85e8       ??_R3__non_rtti_object@std@@8 00ffb5e8     libcmt:stdexcpt.obj
 0003:009e85fc       ??_R2__non_rtti_object@std@@8 00ffb5fc     libcmt:stdexcpt.obj
 0003:009e860c       ??_R1A@?0A@EA@__non_rtti_object@std@@8 00ffb60c     libcmt:stdexcpt.obj
 0003:009e8630       ??_R4type_info@@6B@        00ffb630     libcmt:typinfo.obj
 0003:009e8648       ??_R3type_info@@8          00ffb648     libcmt:typinfo.obj
 0003:009e865c       ??_R2type_info@@8          00ffb65c     libcmt:typinfo.obj
 0003:009e8664       ??_R1A@?0A@EA@type_info@@8 00ffb664     libcmt:typinfo.obj
 0003:009e8794       ___rtc_iaa                 00ffb794     libcmt:_initsect_.obj
 0003:009e98cc       ___rtc_izz                 00ffc8cc     libcmt:_initsect_.obj
 0003:009e99d0       ___rtc_taa                 00ffc9d0     libcmt:_initsect_.obj
 0003:009eab08       ___rtc_tzz                 00ffdb08     libcmt:_initsect_.obj
 0003:009eac10       __TI2?AVbad_alloc@std@@    00ffdc10     libcmt:new.obj
 0003:009eac24       __CTA2?AVbad_alloc@std@@   00ffdc24     libcmt:new.obj
 0003:009eac34       __CT??_R0?AVbad_alloc@std@@@8??0bad_alloc@std@@QAE@ABV01@@Z12 00ffdc34     libcmt:new.obj
 0003:009eac54       __CT??_R0?AVexception@std@@@8??0exception@std@@QAE@ABV01@@Z12 00ffdc54     libcmt:new.obj
 0004:00000000       _AnalogInputSettingsScreenList 00fff000     AnalogInputSettings.obj
 0004:000003e4       _AnalogInputsScaleScreenList 00fff3e4     AnalogInputsScale.obj
 0004:000005bc       _ConfigScreenList          00fff5bc     ConfigScreens.obj
 0004:00000f08       _SignalStrengthGraphics    00ffff08     DataHandler.obj
 0004:00000f20       _DummyDataValues           00ffff20     DataHandler.obj
 0004:00001588       _newScreen                 01000588     DataHandler.obj
 0004:0000158c       _speedDirection            0100058c     DataHandler.obj
 0004:00001718       _DigitalInputSettingsScreenList 01000718     DigitalInputSettings.obj
 0004:00001818       _popupTitleTextColor       01000818     DUII_Main.obj
 0004:000020d0       _defaultVehicles           010010d0     FlashReadWrite.obj
 0004:00004e30       _GearingScreenList         01003e30     GearingScreens.obj
 0004:00004e94       _ZeroThroughNine           01003e94     GearingScreens.obj
 0004:00004ee8       _ZeroThroughNinty          01003ee8     GearingScreens.obj
 0004:00004f70       _TreadWidth                01003f70     GearingScreens.obj
 0004:00005004       _AspectRatio               01004004     GearingScreens.obj
 0004:00005068       _WheelDiameter             01004068     GearingScreens.obj
 0004:00005740       _GearRatiosScreenList      01004740     GearRatios.obj
 0004:00005a08       _acHelpTachSetup_1         01004a08     HelpScreens.obj
 0004:00009ff0       _acHelpTachSetup_2         01008ff0     HelpScreens.obj
 0004:0000e8d0       _acHelpTachSetup_3         0100d8d0     HelpScreens.obj
 0004:00013048       _achelp1                   01012048     HelpScreens.obj
 0004:000194c8       _achelp2                   010184c8     HelpScreens.obj
 0004:0002d850       _achelp3                   0102c850     HelpScreens.obj
 0004:00033d58       _achelp4                   01032d58     HelpScreens.obj
 0004:00039700       _acHome1                   01038700     HelpScreens.obj
 0004:00042390       _acHome2                   01041390     HelpScreens.obj
 0004:00046658       _acHome3                   01045658     HelpScreens.obj
 0004:0004afd8       _acHome4                   01049fd8     HelpScreens.obj
 0004:0004fb70       _acHome5                   0104eb70     HelpScreens.obj
 0004:00054d40       _acHelpCarSelect3          01053d40     HelpScreens.obj
 0004:000592d0       _acHelpCarSelect4          010582d0     HelpScreens.obj
 0004:0005c6d8       _acHChooseVehicleSettings  0105b6d8     HelpScreens.obj
 0004:00060aa0       _acHSelectVehicle          0105faa0     HelpScreens.obj
 0004:000642c0       _acHCameraImportant        010632c0     HelpScreens.obj
 0004:00068f60       _acHSelectSUCam1           01067f60     HelpScreens.obj
 0004:0006cbc8       _acHSelectSUCam2           0106bbc8     HelpScreens.obj
 0004:00070650       _acHSelectCamera           0106f650     HelpScreens.obj
 0004:00073e10       _acHSelectRaceSetup        01072e10     HelpScreens.obj
 0004:00077970       _acHelpAutoOn              01076970     HelpScreens.obj
 0004:0007b238       _acHelpSelectSystemType    0107a238     HelpScreens.obj
 0004:0007f248       _acHelpDynoTesting         0107e248     HelpScreens.obj
 0004:000836d0       _acHelpNormalGPS           010826d0     HelpScreens.obj
 0004:00087428       _acHelpSelectGoRacing      01086428     HelpScreens.obj
 0004:0008b250       _acHelpSelectARaceType     0108a250     HelpScreens.obj
 0004:0008f0b8       _acHelpConfirmTrack        0108e0b8     HelpScreens.obj
 0004:00092a70       _acHelpRaceScreens2        01091a70     HelpScreens.obj
 0004:000962f8       _acHelpRaceScreens1        010952f8     HelpScreens.obj
 0004:0009b890       _acHelpSelectTrack         0109a890     HelpScreens.obj
 0004:0009efd8       _acHelpTrackType           0109dfd8     HelpScreens.obj
 0004:000a2b40       _acHelpSelectRaceSetup     010a1b40     HelpScreens.obj
 0004:000a6678       _acHelpSelectLapQualify    010a5678     HelpScreens.obj
 0004:000aa490       _acHelpLapsQualify         010a9490     HelpScreens.obj
 0004:000adfe0       _acHSelectInputs           010acfe0     HelpScreens.obj
 0004:000b1b80       _acHCommonSensorSettings   010b0b80     HelpScreens.obj
 0004:000b4cf0       _acHAnalogSensors          010b3cf0     HelpScreens.obj
 0004:000b8dc8       _acHelpLapTimeDisplay      010b7dc8     HelpScreens.obj
 0004:000bdcc0       _acHelpSelectRaceReview    010bccc0     HelpScreens.obj
 0004:000c1a30       _acHelpBestLapForSession   010c0a30     HelpScreens.obj
 0004:000c5b60       _acHelpSessionDetails      010c4b60     HelpScreens.obj
 0004:000c9768       _acHelpBestLap             010c8768     HelpScreens.obj
 0004:000ccea0       _acHelpTogglesMoreDetails  010cbea0     HelpScreens.obj
 0004:000d12c8       _acHelpAnalog7             010d02c8     HelpScreens.obj
 0004:000d49a0       _acHelpAnalog8             010d39a0     HelpScreens.obj
 0004:000d8b10       _acHelpAnalog9             010d7b10     HelpScreens.obj
 0004:000dd548       _acHelpAnalog10            010dc548     HelpScreens.obj
 0004:000e0870       _acHelpAnalog11            010df870     HelpScreens.obj
 0004:000e3640       _acHelpAnalog12            010e2640     HelpScreens.obj
 0004:000e7700       _acHelpAnalog13            010e6700     HelpScreens.obj
 0004:000eb4b0       _acHelpAnalog14            010ea4b0     HelpScreens.obj
 0004:000f0378       _acHSelectTDCam1           010ef378     HelpScreens.obj
 0004:000f40f0       _acHSelectTDCam2           010f30f0     HelpScreens.obj
 0004:000f9180       _acHelpFineTuneYourCar     010f8180     HelpScreens.obj
 0004:000fde08       _acAutoOn3                 010fce08     HelpScreens.obj
 0004:00103378       _acAutoOn4                 01102378     HelpScreens.obj
 0004:00107c68       _acAutoOn5                 01106c68     HelpScreens.obj
 0004:0010b638       _acCamTestLast             0110a638     HelpScreens.obj
 0004:0010f448       _HelpList                  0110e448     HelpScreens.obj
 0004:0010f478       _MainHelpScreens           0110e478     HelpScreens.obj
 0004:0010f4a8       _GoRacingHelpScreens       0110e4a8     HelpScreens.obj
 0004:0010f4d8       _SUCameraHelpScreens       0110e4d8     HelpScreens.obj
 0004:0010f520       _SUSpecificCameraHelpScreens 0110e520     HelpScreens.obj
 0004:0010f540       _DUCameraHelpScreens       0110e540     HelpScreens.obj
 0004:0010f588       _DUSpecificCameraHelpScreens 0110e588     HelpScreens.obj
 0004:0010f5a0       _GenericCameraHelpScreens  0110e5a0     HelpScreens.obj
 0004:0010f5d8       _VehicleSetupHelpScreens   0110e5d8     HelpScreens.obj
 0004:0010f610       _VehicleSelectionHelpScreens 0110e610     HelpScreens.obj
 0004:0010f638       _VehicleSetupSpecificHelpScreens 0110e638     HelpScreens.obj
 0004:0010f648       _InputsHelpScreens         0110e648     HelpScreens.obj
 0004:0010f6c0       _AnalogInputsHelpScreens   0110e6c0     HelpScreens.obj
 0004:0010f708       _EditScaleHelpScreens      0110e708     HelpScreens.obj
 0004:0010f750       _ReviewSessionsHelpScreens 0110e750     HelpScreens.obj
 0004:0010f780       _TachHelpScreens           0110e780     HelpScreens.obj
 0004:0010f7c0       _TachSpecificHelpScreens   0110e7c0     HelpScreens.obj
 0004:0010f7e0       _TrackSettingsHelpScreens  0110e7e0     HelpScreens.obj
 0004:0010f808       _TrackSettingsSpecificHelpScreens 0110e808     HelpScreens.obj
 0004:0010f820       _AutoOnHelpScreens         0110e820     HelpScreens.obj
 0004:0010f850       _AutoOnSpecificHelpScreens 0110e850     HelpScreens.obj
 0004:0010f870       _DynoHelpScreens           0110e870     HelpScreens.obj
 0004:0010f890       _TimeZoneGPSScreens        0110e890     HelpScreens.obj
 0004:0010f8a0       _LapHelpScreens            0110e8a0     HelpScreens.obj
 0004:0010f8c0       _HelpTable                 0110e8c0     HelpScreens.obj
 0004:0010f9d0       _HelpTopicToScreens        0110e9d0     HelpScreens.obj
 0004:00144dc8       _InputsScreenList          01143dc8     InputScreens.obj
 0004:00145150       ?TopKeysChar@@3PAPADA      01144150     keyboard.obj
 0004:00145178       ?MidKeysChar@@3PAPADA      01144178     keyboard.obj
 0004:0014519c       ?LowKeysChar@@3PAPADA      0114419c     keyboard.obj
 0004:001451b8       ?BottomKeysChar@@3PAPADA   011441b8     keyboard.obj
 0004:001451c8       ?NumKeysChar@@3PAPADA      011441c8     keyboard.obj
 0004:001451ec       ?NumOneKeys@@3PAPADA       011441ec     keyboard.obj
 0004:001451f8       ?NumTwoKeys@@3PAPADA       011441f8     keyboard.obj
 0004:00145208       ?NumThreeKeys@@3PAPADA     01144208     keyboard.obj
 0004:0014521c       ?NumFourKeys@@3PAPADA      0114421c     keyboard.obj
 0004:00145228       ?NumKeys@@3PAPADA          01144228     keyboard.obj
 0004:00145290       _mask                      01144290     LEDHandler.obj
 0004:001452b0       _BackLightQuickSteps       011442b0     LEDHandler.obj
 0004:001454b0       _RaceSetupScreenList       011444b0     RaceSetupScreens.obj
 0004:00145bac       _RoadRaceDisplayTypes      01144bac     RaceSetupScreens.obj
 0004:00145bbc       _DriveDisplayTypes         01144bbc     RaceSetupScreens.obj
 0004:00145bd0       _DragDisplayTypes          01144bd0     RaceSetupScreens.obj
 0004:00145be4       _AutoXDisplayTypes         01144be4     RaceSetupScreens.obj
 0004:00145bf4       _HillDisplayTypes          01144bf4     RaceSetupScreens.obj
 0004:00145df4       _pDisplayText              01144df4     ReviewSessionsScreens.obj
 0004:00145e58       _GaugesScreenList          01144e58     RunningGauges.obj
 0004:00145e90       _DriveScreenList           01144e90     RunningGauges.obj
 0004:00145ed0       _InstrumentsScreenList     01144ed0     RunningGauges.obj
 0004:00146130       _SystemSettingsScreenList  01145130     SystemSettingsScreens.obj
 0004:001461b8       _LapMeter                  011451b8     SystemSettingsScreens.obj
 0004:00146214       _RecordSpeed               01145214     SystemSettingsScreens.obj
 0004:0014627c       _RecordSpeedMetric         0114527c     SystemSettingsScreens.obj
 0004:001462fc       _StopTime                  011452fc     SystemSettingsScreens.obj
 0004:00146420       _StdTimeZones              01145420     SystemSettingsScreens.obj
 0004:00146578       _DstTimeZones              01145578     SystemSettingsScreens.obj
 0004:001465e0       _temptemp                  011455e0     SystemSettingsScreens.obj
 0004:001465e4       _tempIncreasing            011455e4     SystemSettingsScreens.obj
 0004:00146eb8       _TachSetupScreenList       01145eb8     TachSetupScreens.obj
 0004:00146f38       _apCylinders               01145f38     TachSetupScreens.obj
 0004:00146fd4       _numberOfTracks            01145fd4     TrackDetect.obj
 0004:00146ff8       _TrackSettingsScreenList   01145ff8     TrackSettingsScreens.obj
 0004:001470a4       _pTrackTypes               011460a4     TrackSettingsScreens.obj
 0004:00147158       _LapHoldTimes              01146158     TrackSettingsScreens.obj
 0004:00147428       _VehicleSettingsScreenList 01146428     VehicleSettingsScreens.obj
 0004:001475b0       _NewCameras                011465b0     VehicleSettingsScreens.obj
 0004:00147f98       _Digits                    01146f98     VehicleSettingsScreens.obj
 0004:00148518       _GUI_CharLine_pfLog2Vis    01147518     GUI_CharLine.obj
 0004:0014851c       _GUI__pFontDefault         0114751c     GUI_Core.obj
 0004:00148890       _GUI__GetCursorPos_pfGetPosX 01147890     GUI__GetCursorPos.obj
 0004:00148894       _GUI__GetCursorPos_pfGetPosChar 01147894     GUI__GetCursorPos.obj
 0004:00148898       _GUI__GetCursorPos_pfGetCharacter 01147898     GUI__GetCursorPos.obj
 0004:001488a0       _GUI__Wrap_pfGetWordWrap   011478a0     GUI__Wrap.obj
 0004:001488a4       _GUI__Wrap_pfGetCharWrap   011478a4     GUI__Wrap.obj
 0004:001488ac       _LCD__pSetColorAPI         011478ac     LCD.obj
 0004:001488b0       _LCD_pBkColorIndex         011478b0     LCD_Color.obj
 0004:001488b4       _LCD_pColorIndex           011478b4     LCD_Color.obj
 0004:001488b8       _LCD_pAColorIndex          011478b8     LCD_Color.obj
 0004:001488d4       _LCD_APIList180            011478d4     LCD_Rotate180.obj
 0004:001488e0       _LCD_APIListCCW            011478e0     LCD_RotateCCW.obj
 0004:001488ec       _LCD_APIListCW             011478ec     LCD_RotateCW.obj
 0004:00148d54       _BUTTON__DefaultProps      01147d54     BUTTON.obj
 0004:00148d80       _BUTTON__pSkinDefault      01147d80     BUTTON.obj
 0004:00148e9c       _CHECKBOX__DefaultProps    01147e9c     CHECKBOX.obj
 0004:00148ed8       _CHECKBOX__pSkinDefault    01147ed8     CHECKBOX.obj
 0004:00148fa8       _DROPDOWN__DefaultProps    01147fa8     DROPDOWN.obj
 0004:00148fe0       _DROPDOWN__pSkinDefault    01147fe0     DROPDOWN.obj
 0004:00149114       _EDIT__DefaultProps        01148114     EDIT.obj
 0004:0014919c       _FRAMEWIN__DefaultProps    0114819c     FRAMEWIN.obj
 0004:001491c4       _FRAMEWIN__pSkinDefault    011481c4     FRAMEWIN.obj
 0004:00149214       __Skin                     01148214     FRAMEWIN_Skin.obj
 0004:0014929c       _GRAPH__DefaultProps       0114829c     GRAPH.obj
 0004:00149310       __Props                    01148310     GRAPH_SCALE.obj
 0004:001493f4       _HEADER__DefaultProps      011483f4     HEADER.obj
 0004:00149408       _HEADER__pDefaultCursor    01148408     HEADER.obj
 0004:0014940c       _HEADER__DefaultBorderH    0114840c     HEADER.obj
 0004:00149410       _HEADER__pSkinDefault      01148410     HEADER.obj
 0004:001494a8       _ICONVIEW__DefaultProps    011484a8     ICONVIEW.obj
 0004:00149520       _LISTBOX_DefaultProps      01148520     LISTBOX.obj
 0004:001495a0       _LISTVIEW_DefaultProps     011485a0     LISTVIEW.obj
 0004:00149630       _LISTWHEEL_DefaultProps    01148630     LISTWHEEL.obj
 0004:0014968c       _MENU__DefaultProps        0114868c     MENU.obj
 0004:001496bc       _MENU__pDefaultEffect      011486bc     MENU.obj
 0004:00149820       _MULTIPAGE__aEffectColor   01148820     MULTIPAGE.obj
 0004:00149828       _MULTIPAGE__DefaultProps   01148828     MULTIPAGE.obj
 0004:001498a8       _PROGBAR__DefaultProps     011488a8     PROGBAR.obj
 0004:001498c0       _PROGBAR__pSkinDefault     011488c0     PROGBAR.obj
 0004:00149948       _RADIO__DefaultProps       01148948     RADIO.obj
 0004:0014996c       _RADIO__pSkinDefault       0114896c     RADIO.obj
 0004:00149a28       _SCROLLBAR__DefaultProps   01148a28     SCROLLBAR.obj
 0004:00149a38       _SCROLLBAR__DefaultWidth   01148a38     SCROLLBAR.obj
 0004:00149a3c       _SCROLLBAR__pSkinDefault   01148a3c     SCROLLBAR.obj
 0004:00149b20       _SLIDER__DefaultProps      01148b20     SLIDER.obj
 0004:00149b34       _SLIDER__pSkinDefault      01148b34     SLIDER.obj
 0004:00149c10       _TEXT__DefaultProps        01148c10     TEXT.obj
 0004:00149c78       _TREEVIEW__DefaultProps    01148c78     TREEVIEW.obj
 0004:00149f54       __pEffectDefault           01148f54     WIDGET.obj
 0004:00149f90       _WINDOW__DefaultBkColor    01148f90     WINDOW.obj
 0004:0014a160       __fltused                  01149160     libcmt:_fpinit_.obj
 0004:0014a164       __ldused                   01149164     libcmt:_fpinit_.obj
 0004:0014a16c       ___security_cookie         0114916c     libcmt:gs_cookie.obj
 0004:0014a170       ___security_cookie_complement 01149170     libcmt:gs_cookie.obj
 0004:0014a18c       ??_R0?AVbad_alloc@std@@@8  0114918c     libcmt:new.obj
 0004:0014a1b0       ??_R0?AVexception@std@@@8  011491b0     libcmt:new.obj
 0004:0014a1f8       ?_RTC_ErrorLevels@@3PAHA   011491f8     libcmt:_error_.obj
 0004:0014a3f0       ___app_type                011493f0     libcmt:wincrt0.obj
 0004:0014a3f4       __cfltcvt_tab              011493f4     libcmt:cmiscdat.obj
 0004:0014a424       ___nullstring              01149424     libcmt:output.obj
 0004:0014a428       ___wnullstring             01149428     libcmt:output.obj
 0004:0014a430       ___initialmbcinfo          01149430     libcmt:mbctype.obj
 0004:0014a650       __mbctype                  01149650     libcmt:mbctype.obj
 0004:0014a758       __mbcasemap                01149758     libcmt:mbctype.obj
 0004:0014a858       ___ptmbcinfo               01149858     libcmt:mbctype.obj
 0004:0014aa58       ___globallocalestatus      01149a58     libcmt:glstatus.obj
 0004:0014aa5c       ___clocalestr              01149a5c     libcmt:nlsdata2.obj
 0004:0014aa60       ___lc_time_c               01149a60     libcmt:nlsdata2.obj
 0004:0014ac10       ___initiallocinfo          01149c10     libcmt:nlsdata2.obj
 0004:0014ad14       ___ptlocinfo               01149d14     libcmt:nlsdata2.obj
 0004:0014ad18       ___initiallocalestructinfo 01149d18     libcmt:nlsdata2.obj
 0004:0014ad24       ___flsindex                01149d24     libcmt:tidtable.obj
 0004:0014ad28       ___getvalueindex           01149d28     libcmt:tidtable.obj
 0004:0014ad60       __timezone                 01149d60     libcmt:timeset.obj
 0004:0014ad64       __daylight                 01149d64     libcmt:timeset.obj
 0004:0014ad68       __dstbias                  01149d68     libcmt:timeset.obj
 0004:0014adf0       __tzname                   01149df0     libcmt:timeset.obj
 0004:0014ae20       ??_R0?AVbad_cast@std@@@8   01149e20     libcmt:stdexcpt.obj
 0004:0014ae40       ??_R0?AVbad_typeid@std@@@8 01149e40     libcmt:stdexcpt.obj
 0004:0014ae64       ??_R0?AV__non_rtti_object@std@@@8 01149e64     libcmt:stdexcpt.obj
 0004:0014ae90       ??_R0?AVtype_info@@@8      01149e90     libcmt:typinfo.obj
 0004:0014aeb0       __iob                      01149eb0     libcmt:_file.obj
 0004:0014b310       __lookuptrailbytes         0114a310     libcmt:read.obj
 0004:0014b450       ___badioinfo               0114a450     libcmt:ioinit.obj
 0004:0014b5b8       __d_inf                    0114a5b8     libcmt:_util_.obj
 0004:0014b5c0       __d_ind                    0114a5c0     libcmt:_util_.obj
 0004:0014b5c8       __d_max                    0114a5c8     libcmt:_util_.obj
 0004:0014b5d0       __d_min                    0114a5d0     libcmt:_util_.obj
 0004:0014b5d8       __d_mzero                  0114a5d8     libcmt:_util_.obj
 0004:0014b610       ___lconv_static_decimal    0114a610     libcmt:lconv.obj
 0004:0014b614       ___lconv_static_W_decimal  0114a614     libcmt:lconv.obj
 0004:0014b618       ___lconv_c                 0114a618     libcmt:lconv.obj
 0004:0014b668       ___lconv                   0114a668     libcmt:lconv.obj
 0004:0014b680       __pctype                   0114a680     libcmt:ctype.obj
 0004:0014b684       __pwctype                  0114a684     libcmt:ctype.obj
 0004:0014b6c8       __pow10pos                 0114a6c8     libcmt:_constpow_.obj
 0004:0014b828       __pow10neg                 0114a828     libcmt:_constpow_.obj
 0004:0014ba10       ___mb_cur_max              0114aa10     libcmt:nlsdata1.obj
 0004:0014ba14       ___decimal_point           0114aa14     libcmt:nlsdata1.obj
 0004:0014ba18       ___decimal_point_length    0114aa18     libcmt:nlsdata1.obj
 0004:0014ba20       __matherr_flag             0114aa20     libcmt:_matherr_.obj
 0004:0014ba24       __lpdays                   0114aa24     libcmt:days.obj
 0004:0014ba58       __days                     0114aa58     libcmt:days.obj
 0004:0014baa0       __NLG_Destination          0114aaa0     libcmt:exsup.obj
 0004:0014bac0       __confh                    0114aac0     libcmt:initcon.obj
 0004:0014bac4       ___abort_behavior          0114aac4     libcmt:abort.obj
 0004:0014bd28       __aMapKey                  0114ad28     GUISim:SIM_GUI.OBJ
 0004:0014caab       _processingScreenTransition 0114baab     ConfigScreens.obj
 0004:0014caac       _slideoutXPos              0114baac     ConfigScreens.obj
 0004:0014cab0       _slideoutYPos              0114bab0     ConfigScreens.obj
 0004:0014cab4       _hSlideoutTimer            0114bab4     ConfigScreens.obj
 0004:0014cab8       _backKeyPressedTime        0114bab8     ConfigScreens.obj
 0004:0014cabc       _configKeyPressedTime      0114babc     ConfigScreens.obj
 0004:0014cac0       _hSlideout                 0114bac0     ConfigScreens.obj
 0004:0014cac4       _hSUStatusSprite           0114bac4     ConfigScreens.obj
 0004:0014cac8       _hCameraSprite             0114bac8     ConfigScreens.obj
 0004:0014cacc       _hSignalStrengthSprite     0114bacc     ConfigScreens.obj
 0004:0014cad0       _pressingbutton_semaphore  0114bad0     ConfigScreens.obj
 0004:0014cad4       _glbBlackoutFlag           0114bad4     ConfigScreens.obj
 0004:0014cade       _reviewingSession          0114bade     ConfigScreens.obj
 0004:0014cc37       _configureGaugeMode        0114bc37     ConfigurableGaugeCommon.obj
 0004:0014cc48       _DataValues                0114bc48     DataHandler.obj
 0004:0014ced8       _shifting                  0114bed8     DataHandler.obj
 0004:0014d0a8       ?hResetMax@@3JA            0114c0a8     DriveScreen.obj
 0004:0014d14c       ?hResetTrip@@3JA           0114c14c     DriveScreen.obj
 0004:0014d184       _inputEnabled              0114c184     DualGaugeScreen.obj
 0004:0014d19c       ?pAnalog0Gauge@@3PAVGauge@@A 0114c19c     DualGaugeScreen.obj
 0004:0014d1a0       ?pAnalog1Gauge@@3PAVGauge@@A 0114c1a0     DualGaugeScreen.obj
 0004:0014d1c4       ?lapStr@@3PADA             0114c1c4     GaugeScreen.obj
 0004:0014d1d0       ?gsHolding@@3HA            0114c1d0     GaugeScreen.obj
 0004:0014d1d4       ?maxRPMStr@@3PADA          0114c1d4     GaugeScreen.obj
 0004:0014d1e8       ?gearStr@@3PADA            0114c1e8     GaugeScreen.obj
 0004:0014d1f0       ?speedStr@@3PADA           0114c1f0     GaugeScreen.obj
 0004:0014d208       ?maxRPM@@3HA               0114c208     GaugeScreen.obj
 0004:0014d20c       ?elapsedStr@@3PADA         0114c20c     GaugeScreen.obj
 0004:0014d228       ?currentRPMStr@@3PADA      0114c228     GaugeScreen.obj
 0004:0014d318       _glbErrorFlag              0114c318     GeneralConfig.obj
 0004:0014d320       ?dotArray@@3PAUDOT@@A      0114c320     GMeter.obj
 0004:0014d550       ?dotIndex@@3HA             0114c550     GMeter.obj
 0004:0014d5c4       ?hGMeterScreen@@3JA        0114c5c4     GMeterScreen.obj
 0004:0014d5cc       ?memDev@@3JA               0114c5cc     GMeterScreen.obj
 0004:0014d5d4       ?errorCounter@@3HA         0114c5d4     GMeterScreen.obj
 0004:0014d5d8       ?pGM@@3PAVGMeter@@A        0114c5d8     GMeterScreen.obj
 0004:0014d64c       _suspendForHelp            0114c64c     HelpScreens.obj
 0004:0014d650       _hHelpSelection            0114c650     HelpScreens.obj
 0004:0014d65c       _globalInput               0114c65c     InputScreens.obj
 0004:0014d6d0       _level3On                  0114c6d0     LEDHandler.obj
 0004:0014d6d4       _level2On                  0114c6d4     LEDHandler.obj
 0004:0014d6d8       _level1On                  0114c6d8     LEDHandler.obj
 0004:0014d6dc       _centerOn                  0114c6dc     LEDHandler.obj
 0004:0014da50       _pTracksShort              0114ca50     RaceSetupScreens.obj
 0004:0014da54       _pLaps                     0114ca54     RaceSetupScreens.obj
 0004:0014da58       _hTrackList                0114ca58     RaceSetupScreens.obj
 0004:0014da60       _hideLevel                 0114ca60     RaceSetupScreens.obj
 0004:0014da71       _reviewRaceDisplay         0114ca71     RaceSetupScreens.obj
 0004:0014da72       _reviewDriveDisplay        0114ca72     RaceSetupScreens.obj
 0004:0014da73       _reviewAutoXDisplay        0114ca73     RaceSetupScreens.obj
 0004:0014da74       _reviewDragDisplay         0114ca74     RaceSetupScreens.obj
 0004:0014da75       _reviewHillDisplay         0114ca75     RaceSetupScreens.obj
 0004:0014db2c       ?gear@@3HA                 0114cb2c     RPMSweepScreen.obj
 0004:0014db30       ?speed@@3MA                0114cb30     RPMSweepScreen.obj
 0004:0014db34       ?lap@@3HA                  0114cb34     RPMSweepScreen.obj
 0004:0014db38       ?lapTime@@3HA              0114cb38     RPMSweepScreen.obj
 0004:0014db40       ?altitude@@3MA             0114cb40     RPMSweepScreen.obj
 0004:0014db4c       ?holding@@3HA              0114cb4c     RPMSweepScreen.obj
 0004:0014db50       ?predictiveLap@@3MA        0114cb50     RPMSweepScreen.obj
 0004:0014db54       ?rpm@@3HA                  0114cb54     RPMSweepScreen.obj
 0004:0014dc1a       _intensityIgnore           0114cc1a     SystemSettingsScreens.obj
 0004:0014dc1b       _backlightIgnore           0114cc1b     SystemSettingsScreens.obj
 0004:0014dc1c       _KMCDialogSemaphore        0114cc1c     SystemSettingsScreens.obj
 0004:0014dc20       _modalWindowUp             0114cc20     SystemSettingsScreens.obj
 0004:0014dc24       _gpsSimulate               0114cc24     SystemSettingsScreens.obj
 0004:0014dc44       _numberOfShortListTracks   0114cc44     TrackDetect.obj
 0004:0014dc5c       _alteredTrackData          0114cc5c     TrackSettingsScreens.obj
 0004:0014dc60       _hFinishLatButton          0114cc60     TrackSettingsScreens.obj
 0004:0014dc64       _hFinishLongButton         0114cc64     TrackSettingsScreens.obj
 0004:0014dc68       _hFinishHeadButton         0114cc68     TrackSettingsScreens.obj
 0004:0014dcac       _testCamera                0114ccac     VehicleSettingsScreens.obj
 0004:003b4ab4       _HEADER__DefaultBorderV    013b3ab4     HEADER.obj
 0004:003b4b5c       ___fastflag                013b3b5c     libcmt:_fpinit_.obj
 0004:003b4b78       ?wsprintffp@@3P6AHPADPBDZZA 013b3b78     libcmt:_error_.obj
 0004:003b4b7c       __aenvptr                  013b3b7c     libcmt:wincrt0.obj
 0004:003b4b80       __wenvptr                  013b3b80     libcmt:wincrt0.obj
 0004:003b4b84       ___error_mode              013b3b84     libcmt:wincrt0.obj
 0004:003b4b98       ___pInvalidArgHandler      013b3b98     libcmt:invarg.obj
 0004:003b4ba0       ___mbulinfo                013b3ba0     libcmt:mbctype.obj
 0004:003b4bac       ___mbcodepage              013b3bac     libcmt:mbctype.obj
 0004:003b4bb0       ___ismbcodepage            013b3bb0     libcmt:mbctype.obj
 0004:003b4bb4       ___mblcid                  013b3bb4     libcmt:mbctype.obj
 0004:003b4bc0       _gpFlsAlloc                013b3bc0     libcmt:tidtable.obj
 0004:003b4bc4       _gpFlsGetValue             013b3bc4     libcmt:tidtable.obj
 0004:003b4bc8       _gpFlsSetValue             013b3bc8     libcmt:tidtable.obj
 0004:003b4bcc       _gpFlsFree                 013b3bcc     libcmt:tidtable.obj
 0004:003b4f9c       ___locale_changed          013b3f9c     libcmt:setlocal.obj
 0004:003b5084       ?_pnhHeap@@3P6AHI@ZA       013b4084     libcmt:handler.obj
 0004:003b5088       __cflush                   013b4088     libcmt:_file.obj
 0004:003b508c       __umaskval                 013b408c     libcmt:crt0dat.obj
 0004:003b5090       ___argc                    013b4090     libcmt:crt0dat.obj
 0004:003b5094       ___argv                    013b4094     libcmt:crt0dat.obj
 0004:003b5098       ___wargv                   013b4098     libcmt:crt0dat.obj
 0004:003b509c       __environ                  013b409c     libcmt:crt0dat.obj
 0004:003b50a0       ___initenv                 013b40a0     libcmt:crt0dat.obj
 0004:003b50a4       __wenviron                 013b40a4     libcmt:crt0dat.obj
 0004:003b50a8       ___winitenv                013b40a8     libcmt:crt0dat.obj
 0004:003b50ac       __pgmptr                   013b40ac     libcmt:crt0dat.obj
 0004:003b50b0       __wpgmptr                  013b40b0     libcmt:crt0dat.obj
 0004:003b50b4       __exitflag                 013b40b4     libcmt:crt0dat.obj
 0004:003b50b8       __C_Termination_Done       013b40b8     libcmt:crt0dat.obj
 0004:003b50bc       __C_Exit_Done              013b40bc     libcmt:crt0dat.obj
 0004:003b5264       __stdbuf                   013b4264     libcmt:_sftbuf.obj
 0004:003b59d4       __crtheap                  013b49d4     libcmt:heapinit.obj
 0004:003b59d8       __newmode                  013b49d8     libcmt:_newmode.obj
 0004:003b5b24       __outputformat             013b4b24     libcmt:outputformat.obj
 0004:003b5b28       __maxwait                  013b4b28     libcmt:crtheap.obj
 0004:003b5b30       ___lconv_static_null       013b4b30     libcmt:lconv.obj
 0004:003b5b34       ___lconv_static_W_null     013b4b34     libcmt:lconv.obj
 0004:003b5b44       __commode                  013b4b44     libcmt:ncommode.obj
 0004:003b5b48       ?__pInconsistency@@3P6AXXZA 013b4b48     libcmt:hooks.obj
 0004:003b5b68       ___pPurecall               013b4b68     libcmt:inithelp.obj
 0004:003b5b98       ?pArgList@UnDecorator@@0PAVReplicator@@A 013b4b98     libcmt:undname.obj
 0004:003b5b9c       ?pZNameList@UnDecorator@@0PAVReplicator@@A 013b4b9c     libcmt:undname.obj
 0004:003b5ba0       ?pTemplateArgList@UnDecorator@@0PAVReplicator@@A 013b4ba0     libcmt:undname.obj
 0004:003b5ba4       ?gName@UnDecorator@@0PBDB  013b4ba4     libcmt:undname.obj
 0004:003b5ba8       ?name@UnDecorator@@0PBDB   013b4ba8     libcmt:undname.obj
 0004:003b5bac       ?outputString@UnDecorator@@0PADA 013b4bac     libcmt:undname.obj
 0004:003b5bb0       ?maxStringLength@UnDecorator@@0HA 013b4bb0     libcmt:undname.obj
 0004:003b5bb4       ?disableFlags@UnDecorator@@0KA 013b4bb4     libcmt:undname.obj
 0004:003b5bb8       ?m_pGetParameter@UnDecorator@@0P6APADJ@ZA 013b4bb8     libcmt:undname.obj
 0004:003b5bbc       ?fExplicitTemplateParams@UnDecorator@@0_NA 013b4bbc     libcmt:undname.obj
 0004:003b5bbd       ?fGetTemplateArgumentList@UnDecorator@@0_NA 013b4bbd     libcmt:undname.obj
 0004:003b5bcc       ?nodes@?1??make@DNameStatusNode@@SAPAV2@W4DNameStatus@@@Z@4PAV2@A 013b4bcc     libcmt:undname.obj
 0004:003b5c08       ??_B?1??make@DNameStatusNode@@SAPAV1@W4DNameStatus@@@Z@51 013b4c08     libcmt:undname.obj
 0004:003b5c0c       __fmode                    013b4c0c     libcmt:txtmode.obj
 0004:003b9058       _WM__aCHWinModal           013b8058     <common>
 0004:003b9070       _WM__aCHWinMouseOver       013b8070     <common>
 0004:003b9078       _WM__aCHWinLast            013b8078     <common>
 0004:003b9080       _WM__CreateFlags           013b8080     <common>
 0004:003b9098       _WM__ahCapture             013b8098     <common>
 0004:003b909c       _WM__hATransWindow         013b809c     <common>
 0004:003b90a0       _WM__ahWinFocus            013b80a0     <common>
 0004:003b90a4       _WM__pfShowInvalid         013b80a4     <common>
 0004:003b90a8       _WM__NumWindows            013b80a8     <common>
 0004:003b90ac       _WM__FirstWin              013b80ac     <common>
 0004:003b90b0       _WM__TransWindowCnt        013b80b0     <common>
 0004:003b90b4       _WM__NumInvalidWindows     013b80b4     <common>
 0004:003b90b6       _WM__CaptureReleaseAuto    013b80b6     <common>
 0004:003b90b7       _WM__PaintCallbackCnt      013b80b7     <common>
 0004:003b90b8       _WM_IsActive               013b80b8     <common>
 0004:003b90bc       _WM__ahDesktopWin          013b80bc     <common>
 0004:003b90c0       _WM__pFirstCriticalHandle  013b80c0     <common>
 0004:003b90c4       _WM_pfPollPID              013b80c4     <common>
 0004:003b90c8       _WM__aBkColor              013b80c8     <common>
 0004:003b90cc       _RADIO__pfHandleSetValue   013b80cc     <common>
 0004:003b90e0       _LCD__aConvTable           013b80e0     <common>
 0004:003b95b4       __pfGUI__BIDI_GetCursorPosChar 013b85b4     <common>
 0004:003b95c8       __pfGUI__BIDI_GetCharDir   013b85c8     <common>
 0004:003b95cc       _GUI__BIDI_Enabled         013b85cc     <common>
 0004:003b95d0       __pfGUI__BIDI_GetLogChar   013b85d0     <common>
 0004:003b95d4       __pfGUI__BIDI_Log2Vis      013b85d4     <common>
 0004:003b95d8       __pfGUI__BIDI_GetCursorPosX 013b85d8     <common>
 0004:003b95dc       __pfGUI__BIDI_IsNSM        013b85dc     <common>
 0004:003b95e0       __hFirstTimer              013b85e0     <common>
 0004:003b95f0       __hActiveTimer             013b85f0     <common>
 0004:003b95f4       _GUI__CharHasTrans         013b85f4     <common>
 0004:003b9600       _GUI_RectDispString        013b8600     <common>
 0004:003b9620       _GUI_Context               013b8620     <common>
 0004:003b96a0       _GUI_pUC_API               013b86a0     <common>
 0004:003b96a4       _GUI_OrgY                  013b86a4     <common>
 0004:003b96a6       _GUI_DecChar               013b86a6     <common>
 0004:003b96a8       _GUI_OrgX                  013b86a8     <common>
 0004:003b96ac       _GUI_pfDispCharStyle       013b86ac     <common>
 0004:003b96b0       _WM_pfHandlePID            013b86b0     <common>
 0004:003b96b4       _GUI_pfTimerExec           013b86b4     <common>
 0004:003b96b8       _GUI_pLCD_APIList          013b86b8     <common>
 0004:003b96bc       __LockCntHandles           013b86bc     <common>
 0004:003b96cc       __NumFreeBytes             013b86cc     <common>
 0004:003b96d0       _hAeroGripScreen           013b86d0     <common>
 0004:003b96f0       _hBtnPrimeX                013b86f0     <common>
 0004:003b96f4       _hBtnMobius                013b86f4     <common>
 0004:003b96f8       _hTenthsWheel              013b86f8     <common>
 0004:003b96fc       _hYellowSlider             013b86fc     <common>
 0004:003b9700       _hShowSpeedCheck           013b8700     <common>
 0004:003b9704       _hYellowBtn                013b8704     <common>
 0004:003b9708       _hRedlineBtn               013b8708     <common>
 0004:003b970c       _tenths                    013b870c     <common>
 0004:003b9710       _hCameraList               013b8710     <common>
 0004:003b9714       _hVehicleSettingMainScreen 013b8714     <common>
 0004:003b9718       _hWindSlider               013b8718     <common>
 0004:003b971c       _hCurrentRPMBtn            013b871c     <common>
 0004:003b9720       _hCameraDelay              013b8720     <common>
 0004:003b9724       _ones                      013b8724     <common>
 0004:003b9728       _hCameraSelection          013b8728     <common>
 0004:003b972c       _hRedlineSlider            013b872c     <common>
 0004:003b9730       _hShowRPMCheck             013b8730     <common>
 0004:003b9734       _hRollSlider               013b8734     <common>
 0004:003b9738       _hNumCylsBtn               013b8738     <common>
 0004:003b973c       _hBtnMini                  013b873c     <common>
 0004:003b9740       _hCameraDelayTimer         013b8740     <common>
 0004:003b9744       _hTraqdashCam              013b8744     <common>
 0004:003b9748       _hBtnNone                  013b8748     <common>
 0004:003b974c       _hOnesWheel                013b874c     <common>
 0004:003b9750       _hCylindersSlider          013b8750     <common>
 0004:003b9760       _timeString                013b8760     <common>
 0004:003b977c       _hTrackSettingMainScreen   013b877c     <common>
 0004:003b978c       _hFastestLap               013b878c     <common>
 0004:003b9790       _hStartHeadButton          013b8790     <common>
 0004:003b9794       _hStartLongButton          013b8794     <common>
 0004:003b9798       _hStartLatButton           013b8798     <common>
 0004:003b97a0       _trackShortList            013b87a0     <common>
 0004:003bb7a0       _trackTable                013ba7a0     <common>
 0004:003c2f28       _rpmListStart              013c1f28     <common>
 0004:003c30a0       _RPMListPtrs               013c20a0     <common>
 0004:003c3360       _RPMListData               013c2360     <common>
 0004:003c3760       _initialName               013c2760     <common>
 0004:003c3794       _hStopTimeWheel            013c2794     <common>
 0004:003c3798       _hStdCheck                 013c2798     <common>
 0004:003c379c       _hPersonalizeText          013c279c     <common>
 0004:003c37a0       _hSystemSettingsScreens    013c27a0     <common>
 0004:003c37a4       _hPersonalizationScreen    013c27a4     <common>
 0004:003c37a8       _firstTimeThrough          013c27a8     <common>
 0004:003c37ac       _hAutoStartButton          013c27ac     <common>
 0004:003c37b0       _hMetricCheck              013c27b0     <common>
 0004:003c37b4       _hRecordStartSpeedButton   013c27b4     <common>
 0004:003c37b8       _hTimeWheel                013c27b8     <common>
 0004:003c37bc       _hOnBtn                    013c27bc     <common>
 0004:003c37c0       _systemSettingsPopupScreen 013c27c0     <common>
 0004:003c37c4       _hBacklightSlider          013c27c4     <common>
 0004:003c37c8       _hRecordSpeedWheel         013c27c8     <common>
 0004:003c37cc       _hIntensitySlider          013c27cc     <common>
 0004:003c37d0       _hCurrentTempButton        013c27d0     <common>
 0004:003c37e0       _initialPass               013c27e0     <common>
 0004:003c37f4       _hOffBtn                   013c27f4     <common>
 0004:003c37f8       _clickedOnThisScreen       013c27f8     <common>
 0004:003c37fc       _hAutoOnButton             013c27fc     <common>
 0004:003c3800       _hBtn2                     013c2800     <common>
 0004:003c3810       _hBtn5                     013c2810     <common>
 0004:003c3814       _hBtn3                     013c2814     <common>
 0004:003c3818       _hBtn4                     013c2818     <common>
 0004:003c381c       _hBtn1                     013c281c     <common>
 0004:003c3820       _h1_8thMile                013c2820     <common>
 0004:003c383c       _parentSave                013c283c     <common>
 0004:003c3840       _hDigitalGaugeButton       013c2840     <common>
 0004:003c3844       _hLaunchButton             013c2844     <common>
 0004:003c3848       _h1_4Mile                  013c2848     <common>
 0004:003c384c       _hAnalogGaugeButton        013c284c     <common>
 0004:003c3850       _hSweepTachButton          013c2850     <common>
 0004:003c3860       _WorkString                013c2860     <common>
 0004:003c3874       _typeSave                  013c2874     <common>
 0004:003c3878       _hSFScreen                 013c2878     <common>
 0004:003c387c       _hStageButton              013c287c     <common>
 0004:003c3880       _h1000ft                   013c2880     <common>
 0004:003c3884       _hWaitingForCamera         013c2884     <common>
 0004:003c3888       _raceMode                  013c2888     <common>
 0004:003c388c       _hNo                       013c288c     <common>
 0004:003c38a4       _hLapTimes                 013c28a4     <common>
 0004:003c38a8       _displayType               013c28a8     <common>
 0004:003c38ac       _hTextBox                  013c28ac     <common>
 0004:003c38b0       _hYes                      013c28b0     <common>
 0004:003c38b4       _pLapList                  013c28b4     <common>
 0004:003c38b8       _hReviewTypeBtn            013c28b8     <common>
 0004:003c38c0       _BestLapText               013c28c0     <common>
 0004:003c38d4       _hLapsListWheel            013c28d4     <common>
 0004:003c38e0       _selectedTrackName         013c28e0     <common>
 0004:003c5800       _NameStruct                013c4800     <common>
 0004:003c5860       _SessionNameData           013c4860     <common>
 0004:003c9a00       _sessionName               013c8a00     <common>
 0004:003c9a50       _hBottom                   013c8a50     <common>
 0004:003c9a54       _hQualifyingCheck          013c8a54     <common>
 0004:003c9a58       _hDriverList               013c8a58     <common>
 0004:003c9a60       _SessionData               013c8a60     <common>
 0004:003cac8c       _hTop                      013c9c8c     <common>
 0004:003caca0       _DriverList                013c9ca0     <common>
 0004:003cbca0       _pVehicles                 013caca0     <common>
 0004:003cbefc       _numLaps                   013caefc     <common>
 0004:003cbf00       _hRSDeleteButton           013caf00     <common>
 0004:003cbf04       _numberOfShortListTracksUser 013caf04     <common>
 0004:003cbf20       _newName                   013caf20     <common>
 0004:003cbf34       _ctType                    013caf34     <common>
 0004:003cbf38       _hVehicleList              013caf38     <common>
 0004:003cbf3c       _vehicleSelectionChanged   013caf3c     <common>
 0004:003cbf40       _VehicleList               013caf40     <common>
 0004:003cee70       _button                    013cde70     <common>
 0004:003cee74       _mode                      013cde74     <common>
 0004:003cee78       _numVehicles               013cde78     <common>
 0004:003cee80       _BestLaps                  013cde80     <common>
 0004:003cf1a0       _hTrackTypeBtn             013ce1a0     <common>
 0004:003cf1c0       _pDrivers                  013ce1c0     <common>
 0004:003cf2a0       _tempVehicleName           013ce2a0     <common>
 0004:003cf2b4       _editType                  013ce2b4     <common>
 0004:003cf2c0       _fullSessionName           013ce2c0     <common>
 0004:003cf310       _trackTableIndex           013ce310     <common>
 0004:003cf314       _numTracks                 013ce314     <common>
 0004:003cf318       _hLapsCheck                013ce318     <common>
 0004:003cf31c       _numDrivers                013ce31c     <common>
 0004:003cf320       _workString                013ce320     <common>
 0004:003cf368       _lowerLEDMarkTime          013ce368     <common>
 0004:003cf3a0       _lowerLEDOnReason          013ce3a0     <common>
 0004:003cf3c0       _AlarmTriggerCause         013ce3c0     <common>
 0004:003cf3e0       _upperLEDOnReason          013ce3e0     <common>
 0004:003cf400       _UpperLED                  013ce400     <common>
 0004:003cf410       _LowerLED                  013ce410     <common>
 0004:003cf420       _centerLEDMarkTime         013ce420     <common>
 0004:003cf424       _WarningPopups             013ce424     <common>
 0004:003cf428       _test                      013ce428     <common>
 0004:003cf434       _hOwner                    013ce434     <common>
 0004:003cf44c       _pScreens                  013ce44c     <common>
 0004:003cf450       _hDetailHelp               013ce450     <common>
 0004:003cf454       _hPreviousButton           013ce454     <common>
 0004:003cf458       _hHelpList                 013ce458     <common>
 0004:003cf45c       _screenIndex               013ce45c     <common>
 0004:003cf460       _helpTopic                 013ce460     <common>
 0004:003cf464       _hNextButton               013ce464     <common>
 0004:003cf468       _oldScreen                 013ce468     <common>
 0004:003cf46c       _hParent                   013ce46c     <common>
 0004:003cf470       _pHelpScreens              013ce470     <common>
 0004:003cf474       _hHelpBtn                  013ce474     <common>
 0004:003cf478       _oldScreenType             013ce478     <common>
 0004:003cf480       _gearRatioString           013ce480     <common>
 0004:003cf4a0       _tireCircumference         013ce4a0     <common>
 0004:003cf4c0       _hTireDimensionButton      013ce4c0     <common>
 0004:003cf4e0       _hGearButton               013ce4e0     <common>
 0004:003cf500       _hTireCircumferenceButton  013ce500     <common>
 0004:003cf510       _driverData                013ce510     <common>
 0004:003d0240       _suData                    013cf240     <common>
 0004:003d0280       _trackData                 013cf280     <common>
 0004:003d1720       _sysData                   013d0720     <common>
 0004:003d1820       _unsavedSysData            013d0820     <common>
 0004:003d1920       _sectors                   013d0920     <common>
 0004:003d41c0       _vehicleData               013d31c0     <common>
 0004:003d439c       _demoMode                  013d339c     <common>
 0004:003d43c0       _splashScreenStartTime     013d33c0     <common>
 0004:003d43c4       _lockupSemaphore           013d33c4     <common>
 0004:003d43e0       _fileList                  013d33e0     <common>
 0004:003d4444       _testMode                  013d3444     <common>
 0004:003d4448       _factMode                  013d3448     <common>
 0004:003d444c       __hPrevWin                 013d344c     <common>
 0004:003d445c       _Text                      013d345c     <common>
 0004:003d4460       __hDlg                     013d3460     <common>
 0004:003d4464       _Title                     013d3464     <common>
 0004:003d4468       _animationCycles           013d3468     <common>
 0004:003d447c       _animationIndex            013d347c     <common>
 0004:003d4480       _maxSimGear                013d3480     <common>
 0004:003d4484       _minSimRPM                 013d3484     <common>
 0004:003d4488       _pAnimation                013d3488     <common>
 0004:003d448c       _metRecordSpeedYet         013d348c     <common>
 0004:003d4490       _hasInfoKey                013d3490     <common>
 0004:003d4494       _drawFlag                  013d3494     <common>
 0004:003d44a0       _boxStartTime              013d34a0     <common>
 0004:003d44a4       _hRecordModeButton         013d34a4     <common>
 0004:003d44c0       _numSessions               013d34c0     <common>
 0004:003d44c4       _hSavingDataDialog         013d34c4     <common>
 0004:003d44c8       _selectedSessionSorted     013d34c8     <common>
 0004:003d44cc       _selectedSessionUnsorted   013d34cc     <common>
 0004:003d44d0       _pHelpTitle                013d34d0     <common>
 0004:003d44d4       _slideoutStepSize          013d34d4     <common>
 0004:003d44d8       _hDeleteButton             013d34d8     <common>
 0004:003d44dc       _selectedRaceMode          013d34dc     <common>
 0004:003d44e0       _hDetailsButton            013d34e0     <common>
 0004:003d44e4       _hListView                 013d34e4     <common>
 0004:003d44e8       _pHelpText                 013d34e8     <common>
 0004:003d44ec       _screen_scrolling          013d34ec     <common>
 0004:003d44f0       _searchingSemaphore        013d34f0     <common>
 0004:003d44f4       _hSelectedReviewMode       013d34f4     <common>
 0004:003d44f8       _hBestTime                 013d34f8     <common>
 0004:003d44fc       _hDisplayClosestTracks     013d34fc     <common>
 0004:003d4500       _userAbort                 013d3500     <common>
 0004:003d4504       _slideoutState             013d3504     <common>
 0004:003d4508       _hScreenTimer              013d3508     <common>
 0004:003d450c       _raceModeState             013d350c     <common>
 0004:003d4510       _slideoutStepTime          013d3510     <common>
 0004:003d4514       _hText1                    013d3514     <common>
 0004:003d4524       _hArchivePopup             013d3524     <common>
 0004:003d4528       _hText2                    013d3528     <common>
 0004:003d452c       _hText3                    013d352c     <common>
 0004:003d4540       _valueLowString            013d3540     <common>
 0004:003d4580       _valueHighString           013d3580     <common>
 0004:003d45a0       _voltsHighString           013d35a0     <common>
 0004:003d45c0       _voltsLowString            013d35c0     <common>
 0004:003d45d4       _hFilteringLevelButton     013d35d4     <common>
 0004:003d45ec       _hVoltsHighButton          013d35ec     <common>
 0004:003d45f0       _alarmValueString          013d35f0     <common>
 0004:003d45fc       _hVoltsRangeButton         013d35fc     <common>
 0004:003d4600       _hUpperAlarmValueButton    013d3600     <common>
 0004:003d4604       _hAlarmValueButton         013d3604     <common>
 0004:003d4608       _hAlarmConditionButton     013d3608     <common>
 0004:003d460c       _hUpperAlarmConditionButton 013d360c     <common>
 0004:003d4610       _hLED2Button               013d3610     <common>
 0004:003d4614       _hLED1Button               013d3614     <common>
 0004:003d4618       _gathering                 013d3618     <common>
 0004:003d461c       _hVoltsLowButton           013d361c     <common>
 0004:003d4620       _hValueHighButton          013d3620     <common>
 0004:003d4624       _hValueLowButton           013d3624     <common>
 0004:003d4628       __debugger_hook_dummy      013d3628     <common>
 0004:003d4634       __nhandle                  013d3634     <common>
 0004:003d4680       ___pioinfo                 013d3680     <common>
 0004:003d4780       ___env_initialized         013d3780     <common>
 0004:003d4790       ___onexitend               013d3790     <common>
 0004:003d4794       ___onexitbegin             013d3794     <common>
 0004:003d4798       ___mbctype_initialized     013d3798     <common>
 0004:003d479c       ___dyn_tls_init_callback   013d379c     <common>
 0004:003d47a0       __pDestructExceptionObject 013d37a0     <common>
 0004:003d47ac       ___piob                    013d37ac     <common>
 0004:003d4b00       __bufin                    013d3b00     <common>
 0004:003d5b00       __nstream                  013d4b00     <common>
 0004:003d5b04       ___use_sse2_mathfcns       013d4b04     <common>
 0004:003d5b10       __pmatherr                 013d4b10     <common>
 0004:003d5b1c       ___sse2_available          013d4b1c     <common>
 0004:003d5b28       ___setlc_active            013d4b28     <common>
 0004:003d5b38       ___unguarded_readlc_active 013d4b38     <common>
 0004:003d5b3c       __acmdln                   013d4b3c     <common>
 0004:003d5b4c       __NoHeapEnableTerminationOnCorruption 013d4b4c     <common>
 0004:003d5b60       _LCDSIM_aLCDColorBlack     013d4b60     <common>
 0004:003d5bc4       _hMap                      013d4bc4     <common>
 0004:003d5be0       _LCDSIM_aLCDColorWhite     013d4be0     <common>
 0004:003d5c20       _SIM_GUI_hInst             013d4c20     <common>
 0004:003d5c30       _SIM_GUI_hWndMain          013d4c30     <common>
 0005:00000000       __IMPORT_DESCRIPTOR_WINMM  013d5000     winmm:WINMM.dll
 0005:00000014       __IMPORT_DESCRIPTOR_KERNEL32 013d5014     kernel32:KERNEL32.dll
 0005:00000028       __IMPORT_DESCRIPTOR_USER32 013d5028     user32:USER32.dll
 0005:0000003c       __IMPORT_DESCRIPTOR_GDI32  013d503c     gdi32:GDI32.dll
 0005:00000050       __NULL_IMPORT_DESCRIPTOR   013d5050     winmm:WINMM.dll
 0005:00000518       __imp__Rectangle@20        013d5518     gdi32:GDI32.dll
 0005:0000051c       __imp__GetObjectA@12       013d551c     gdi32:GDI32.dll
 0005:00000520       __imp__GetStockObject@4    013d5520     gdi32:GDI32.dll
 0005:00000524       __imp__TextOutA@20         013d5524     gdi32:GDI32.dll
 0005:00000528       __imp__DeleteDC@4          013d5528     gdi32:GDI32.dll
 0005:0000052c       __imp__BitBlt@36           013d552c     gdi32:GDI32.dll
 0005:00000530       __imp__SelectObject@8      013d5530     gdi32:GDI32.dll
 0005:00000534       __imp__CreateCompatibleDC@4 013d5534     gdi32:GDI32.dll
 0005:00000538       __imp__LineTo@12           013d5538     gdi32:GDI32.dll
 0005:0000053c       __imp__MoveToEx@16         013d553c     gdi32:GDI32.dll
 0005:00000540       __imp__CreatePen@12        013d5540     gdi32:GDI32.dll
 0005:00000544       __imp__StretchBlt@44       013d5544     gdi32:GDI32.dll
 0005:00000548       __imp__CreateSolidBrush@4  013d5548     gdi32:GDI32.dll
 0005:0000054c       __imp__CreateCompatibleBitmap@12 013d554c     gdi32:GDI32.dll
 0005:00000550       __imp__ExtFloodFill@20     013d5550     gdi32:GDI32.dll
 0005:00000554       __imp__SetDIBitsToDevice@48 013d5554     gdi32:GDI32.dll
 0005:00000558       __imp__StretchDIBits@52    013d5558     gdi32:GDI32.dll
 0005:0000055c       __imp__SetStretchBltMode@8 013d555c     gdi32:GDI32.dll
 0005:00000560       __imp__SetPixel@16         013d5560     gdi32:GDI32.dll
 0005:00000564       __imp__GetDIBits@28        013d5564     gdi32:GDI32.dll
 0005:00000568       __imp__CombineRgn@16       013d5568     gdi32:GDI32.dll
 0005:0000056c       __imp__CreateRectRgn@16    013d556c     gdi32:GDI32.dll
 0005:00000570       __imp__OffsetRgn@12        013d5570     gdi32:GDI32.dll
 0005:00000574       __imp__SetTextColor@8      013d5574     gdi32:GDI32.dll
 0005:00000578       __imp__GetTextExtentPoint32A@16 013d5578     gdi32:GDI32.dll
 0005:0000057c       __imp__DeleteObject@4      013d557c     gdi32:GDI32.dll
 0005:00000580       \177GDI32_NULL_THUNK_DATA  013d5580     gdi32:GDI32.dll
 0005:000005c0       __imp__IsDebuggerPresent@0 013d55c0     kernel32:KERNEL32.dll
 0005:000005c4       __imp__MultiByteToWideChar@24 013d55c4     kernel32:KERNEL32.dll
 0005:000005c8       __imp__lstrlenA@4          013d55c8     kernel32:KERNEL32.dll
 0005:000005cc       __imp__GetProcAddress@8    013d55cc     kernel32:KERNEL32.dll
 0005:000005d0       __imp__LoadLibraryW@4      013d55d0     kernel32:KERNEL32.dll
 0005:000005d4       __imp__FileTimeToLocalFileTime@8 013d55d4     kernel32:KERNEL32.dll
 0005:000005d8       __imp__FindFirstFileExA@24 013d55d8     kernel32:KERNEL32.dll
 0005:000005dc       __imp__GetCommandLineA@0   013d55dc     kernel32:KERNEL32.dll
 0005:000005e0       __imp__HeapSetInformation@16 013d55e0     kernel32:KERNEL32.dll
 0005:000005e4       __imp__GetStartupInfoW@4   013d55e4     kernel32:KERNEL32.dll
 0005:000005e8       __imp__EncodePointer@4     013d55e8     kernel32:KERNEL32.dll
 0005:000005ec       __imp__DecodePointer@4     013d55ec     kernel32:KERNEL32.dll
 0005:000005f0       __imp__UnhandledExceptionFilter@4 013d55f0     kernel32:KERNEL32.dll
 0005:000005f4       __imp__SetUnhandledExceptionFilter@4 013d55f4     kernel32:KERNEL32.dll
 0005:000005f8       __imp__TerminateProcess@8  013d55f8     kernel32:KERNEL32.dll
 0005:000005fc       __imp__GetCurrentProcess@0 013d55fc     kernel32:KERNEL32.dll
 0005:00000600       __imp__GetCPInfo@8         013d5600     kernel32:KERNEL32.dll
 0005:00000604       __imp__InterlockedIncrement@4 013d5604     kernel32:KERNEL32.dll
 0005:00000608       __imp__InterlockedDecrement@4 013d5608     kernel32:KERNEL32.dll
 0005:0000060c       __imp__GetACP@0            013d560c     kernel32:KERNEL32.dll
 0005:00000610       __imp__GetOEMCP@0          013d5610     kernel32:KERNEL32.dll
 0005:00000614       __imp__IsValidCodePage@4   013d5614     kernel32:KERNEL32.dll
 0005:00000618       __imp__TlsAlloc@0          013d5618     kernel32:KERNEL32.dll
 0005:0000061c       __imp__TlsGetValue@4       013d561c     kernel32:KERNEL32.dll
 0005:00000620       __imp__TlsSetValue@8       013d5620     kernel32:KERNEL32.dll
 0005:00000624       __imp__TlsFree@4           013d5624     kernel32:KERNEL32.dll
 0005:00000628       __imp__GetModuleHandleW@4  013d5628     kernel32:KERNEL32.dll
 0005:0000062c       __imp__SetLastError@4      013d562c     kernel32:KERNEL32.dll
 0005:00000630       __imp__GetCurrentThreadId@0 013d5630     kernel32:KERNEL32.dll
 0005:00000634       __imp__GetCurrentThread@0  013d5634     kernel32:KERNEL32.dll
 0005:00000638       __imp__LCMapStringW@24     013d5638     kernel32:KERNEL32.dll
 0005:0000063c       __imp__IsProcessorFeaturePresent@4 013d563c     kernel32:KERNEL32.dll
 0005:00000640       __imp__GetTimeZoneInformation@4 013d5640     kernel32:KERNEL32.dll
 0005:00000644       __imp__EnterCriticalSection@4 013d5644     kernel32:KERNEL32.dll
 0005:00000648       __imp__LeaveCriticalSection@4 013d5648     kernel32:KERNEL32.dll
 0005:0000064c       __imp__InitializeCriticalSectionAndSpinCount@8 013d564c     kernel32:KERNEL32.dll
 0005:00000650       __imp__RtlUnwind@16        013d5650     kernel32:KERNEL32.dll
 0005:00000654       __imp__GetConsoleCP@0      013d5654     kernel32:KERNEL32.dll
 0005:00000658       __imp__GetConsoleMode@8    013d5658     kernel32:KERNEL32.dll
 0005:0000065c       __imp__ExitProcess@4       013d565c     kernel32:KERNEL32.dll
 0005:00000660       __imp__DeleteCriticalSection@4 013d5660     kernel32:KERNEL32.dll
 0005:00000664       __imp__FatalAppExitA@8     013d5664     kernel32:KERNEL32.dll
 0005:00000668       __imp__SetHandleCount@4    013d5668     kernel32:KERNEL32.dll
 0005:0000066c       __imp__GetStdHandle@4      013d566c     kernel32:KERNEL32.dll
 0005:00000670       __imp__GetFileType@4       013d5670     kernel32:KERNEL32.dll
 0005:00000674       __imp__GetModuleFileNameW@12 013d5674     kernel32:KERNEL32.dll
 0005:00000678       __imp__HeapCreate@12       013d5678     kernel32:KERNEL32.dll
 0005:0000067c       __imp__HeapDestroy@4       013d567c     kernel32:KERNEL32.dll
 0005:00000680       __imp__WideCharToMultiByte@32 013d5680     kernel32:KERNEL32.dll
 0005:00000684       __imp__GetProcessHeap@0    013d5684     kernel32:KERNEL32.dll
 0005:00000688       __imp__VirtualQuery@12     013d5688     kernel32:KERNEL32.dll
 0005:0000068c       __imp__GetFullPathNameA@16 013d568c     kernel32:KERNEL32.dll
 0005:00000690       __imp__GetFileInformationByHandle@8 013d5690     kernel32:KERNEL32.dll
 0005:00000694       __imp__PeekNamedPipe@24    013d5694     kernel32:KERNEL32.dll
 0005:00000698       __imp__GetCurrentDirectoryW@8 013d5698     kernel32:KERNEL32.dll
 0005:0000069c       __imp__SetCurrentDirectoryW@4 013d569c     kernel32:KERNEL32.dll
 0005:000006a0       __imp__GetModuleFileNameA@12 013d56a0     kernel32:KERNEL32.dll
 0005:000006a4       __imp__FreeEnvironmentStringsW@4 013d56a4     kernel32:KERNEL32.dll
 0005:000006a8       __imp__GetEnvironmentStringsW@0 013d56a8     kernel32:KERNEL32.dll
 0005:000006ac       __imp__QueryPerformanceCounter@4 013d56ac     kernel32:KERNEL32.dll
 0005:000006b0       __imp__GetTickCount@0      013d56b0     kernel32:KERNEL32.dll
 0005:000006b4       __imp__GetCurrentProcessId@0 013d56b4     kernel32:KERNEL32.dll
 0005:000006b8       __imp__GetStringTypeW@16   013d56b8     kernel32:KERNEL32.dll
 0005:000006bc       __imp__GetUserDefaultLCID@0 013d56bc     kernel32:KERNEL32.dll
 0005:000006c0       __imp__GetLocaleInfoW@16   013d56c0     kernel32:KERNEL32.dll
 0005:000006c4       __imp__GetLocaleInfoA@16   013d56c4     kernel32:KERNEL32.dll
 0005:000006c8       __imp__EnumSystemLocalesA@8 013d56c8     kernel32:KERNEL32.dll
 0005:000006cc       __imp__IsValidLocale@8     013d56cc     kernel32:KERNEL32.dll
 0005:000006d0       __imp__HeapSize@12         013d56d0     kernel32:KERNEL32.dll
 0005:000006d4       __imp__SetStdHandle@8      013d56d4     kernel32:KERNEL32.dll
 0005:000006d8       __imp__FlushFileBuffers@4  013d56d8     kernel32:KERNEL32.dll
 0005:000006dc       __imp__WriteConsoleW@20    013d56dc     kernel32:KERNEL32.dll
 0005:000006e0       __imp__CompareStringW@24   013d56e0     kernel32:KERNEL32.dll
 0005:000006e4       __imp__SetEnvironmentVariableA@8 013d56e4     kernel32:KERNEL32.dll
 0005:000006e8       __imp__SetConsoleCtrlHandler@8 013d56e8     kernel32:KERNEL32.dll
 0005:000006ec       __imp__InterlockedExchange@8 013d56ec     kernel32:KERNEL32.dll
 0005:000006f0       __imp__GetDriveTypeW@4     013d56f0     kernel32:KERNEL32.dll
 0005:000006f4       __imp__SetEndOfFile@4      013d56f4     kernel32:KERNEL32.dll
 0005:000006f8       __imp__HeapReAlloc@16      013d56f8     kernel32:KERNEL32.dll
 0005:000006fc       __imp__CreateFileW@28      013d56fc     kernel32:KERNEL32.dll
 0005:00000700       __imp__ResumeThread@4      013d5700     kernel32:KERNEL32.dll
 0005:00000704       __imp__SetThreadPriority@8 013d5704     kernel32:KERNEL32.dll
 0005:00000708       __imp__CreateThread@24     013d5708     kernel32:KERNEL32.dll
 0005:0000070c       __imp__ExitThread@4        013d570c     kernel32:KERNEL32.dll
 0005:00000710       __imp__TerminateThread@8   013d5710     kernel32:KERNEL32.dll
 0005:00000714       __imp__SuspendThread@4     013d5714     kernel32:KERNEL32.dll
 0005:00000718       __imp__GlobalUnlock@4      013d5718     kernel32:KERNEL32.dll
 0005:0000071c       __imp__GlobalLock@4        013d571c     kernel32:KERNEL32.dll
 0005:00000720       __imp__GlobalAlloc@8       013d5720     kernel32:KERNEL32.dll
 0005:00000724       __imp__OutputDebugStringA@4 013d5724     kernel32:KERNEL32.dll
 0005:00000728       __imp__CreateMutexA@12     013d5728     kernel32:KERNEL32.dll
 0005:0000072c       __imp__WaitForSingleObject@8 013d572c     kernel32:KERNEL32.dll
 0005:00000730       __imp__ReleaseMutex@4      013d5730     kernel32:KERNEL32.dll
 0005:00000734       __imp__GlobalFree@4        013d5734     kernel32:KERNEL32.dll
 0005:00000738       __imp__MapViewOfFile@20    013d5738     kernel32:KERNEL32.dll
 0005:0000073c       __imp__CreateFileMappingA@24 013d573c     kernel32:KERNEL32.dll
 0005:00000740       __imp__OpenFileMappingA@12 013d5740     kernel32:KERNEL32.dll
 0005:00000744       __imp__RaiseException@16   013d5744     kernel32:KERNEL32.dll
 0005:00000748       __imp__HeapFree@12         013d5748     kernel32:KERNEL32.dll
 0005:0000074c       __imp__HeapAlloc@12        013d574c     kernel32:KERNEL32.dll
 0005:00000750       __imp__GetSystemTimeAsFileTime@4 013d5750     kernel32:KERNEL32.dll
 0005:00000754       __imp__Sleep@4             013d5754     kernel32:KERNEL32.dll
 0005:00000758       __imp__DeleteFileA@4       013d5758     kernel32:KERNEL32.dll
 0005:0000075c       __imp__CompareFileTime@8   013d575c     kernel32:KERNEL32.dll
 0005:00000760       __imp__CreateFileA@28      013d5760     kernel32:KERNEL32.dll
 0005:00000764       __imp__GetFileTime@16      013d5764     kernel32:KERNEL32.dll
 0005:00000768       __imp__FileTimeToSystemTime@8 013d5768     kernel32:KERNEL32.dll
 0005:0000076c       __imp__SystemTimeToTzSpecificLocalTime@12 013d576c     kernel32:KERNEL32.dll
 0005:00000770       __imp__GetDriveTypeA@4     013d5770     kernel32:KERNEL32.dll
 0005:00000774       __imp__OpenFile@12         013d5774     kernel32:KERNEL32.dll
 0005:00000778       __imp__ReadFile@20         013d5778     kernel32:KERNEL32.dll
 0005:0000077c       __imp__CloseHandle@4       013d577c     kernel32:KERNEL32.dll
 0005:00000780       __imp__SetFilePointer@16   013d5780     kernel32:KERNEL32.dll
 0005:00000784       __imp__WriteFile@20        013d5784     kernel32:KERNEL32.dll
 0005:00000788       __imp__MoveFileA@8         013d5788     kernel32:KERNEL32.dll
 0005:0000078c       __imp__SetCurrentDirectoryA@4 013d578c     kernel32:KERNEL32.dll
 0005:00000790       __imp__FindFirstFileA@8    013d5790     kernel32:KERNEL32.dll
 0005:00000794       __imp__FindNextFileA@8     013d5794     kernel32:KERNEL32.dll
 0005:00000798       __imp__FindClose@4         013d5798     kernel32:KERNEL32.dll
 0005:0000079c       __imp__CreateDirectoryA@8  013d579c     kernel32:KERNEL32.dll
 0005:000007a0       __imp__GetLastError@0      013d57a0     kernel32:KERNEL32.dll
 0005:000007a4       __imp__FreeLibrary@4       013d57a4     kernel32:KERNEL32.dll
 0005:000007a8       \177KERNEL32_NULL_THUNK_DATA 013d57a8     kernel32:KERNEL32.dll
 0005:00000834       __imp__BringWindowToTop@4  013d5834     user32:USER32.dll
 0005:00000838       __imp__GetParent@4         013d5838     user32:USER32.dll
 0005:0000083c       __imp__GetClassNameA@12    013d583c     user32:USER32.dll
 0005:00000840       __imp__SendMessageA@16     013d5840     user32:USER32.dll
 0005:00000844       __imp__CopyAcceleratorTableA@12 013d5844     user32:USER32.dll
 0005:00000848       __imp__RegisterClassExA@4  013d5848     user32:USER32.dll
 0005:0000084c       __imp__LoadCursorA@8       013d584c     user32:USER32.dll
 0005:00000850       __imp__LoadIconA@8         013d5850     user32:USER32.dll
 0005:00000854       __imp__DefWindowProcA@16   013d5854     user32:USER32.dll
 0005:00000858       __imp__SetTimer@16         013d5858     user32:USER32.dll
 0005:0000085c       __imp__EndPaint@8          013d585c     user32:USER32.dll
 0005:00000860       __imp__BeginPaint@8        013d5860     user32:USER32.dll
 0005:00000864       __imp__MoveWindow@24       013d5864     user32:USER32.dll
 0005:00000868       __imp__GetCapture@0        013d5868     user32:USER32.dll
 0005:0000086c       __imp__SetCapture@4        013d586c     user32:USER32.dll
 0005:00000870       __imp__ReleaseCapture@0    013d5870     user32:USER32.dll
 0005:00000874       __imp__PostQuitMessage@4   013d5874     user32:USER32.dll
 0005:00000878       __imp__EnableMenuItem@12   013d5878     user32:USER32.dll
 0005:0000087c       __imp__DialogBoxParamA@20  013d587c     user32:USER32.dll
 0005:00000880       __imp__SetDlgItemTextA@12  013d5880     user32:USER32.dll
 0005:00000884       __imp__SetWindowTextA@8    013d5884     user32:USER32.dll
 0005:00000888       __imp__EndDialog@8         013d5888     user32:USER32.dll
 0005:0000088c       __imp__WindowFromPoint@8   013d588c     user32:USER32.dll
 0005:00000890       __imp__KillTimer@8         013d5890     user32:USER32.dll
 0005:00000894       __imp__LoadBitmapA@8       013d5894     user32:USER32.dll
 0005:00000898       __imp__ReleaseDC@8         013d5898     user32:USER32.dll
 0005:0000089c       __imp__FillRect@12         013d589c     user32:USER32.dll
 0005:000008a0       __imp__GetDC@4             013d58a0     user32:USER32.dll
 0005:000008a4       __imp__GetKeyState@4       013d58a4     user32:USER32.dll
 0005:000008a8       __imp__ToAscii@20          013d58a8     user32:USER32.dll
 0005:000008ac       __imp__MapVirtualKeyA@8    013d58ac     user32:USER32.dll
 0005:000008b0       __imp__GetKeyboardState@4  013d58b0     user32:USER32.dll
 0005:000008b4       __imp__GetClassInfoExA@12  013d58b4     user32:USER32.dll
 0005:000008b8       __imp__CloseClipboard@0    013d58b8     user32:USER32.dll
 0005:000008bc       __imp__SetClipboardData@8  013d58bc     user32:USER32.dll
 0005:000008c0       __imp__EmptyClipboard@0    013d58c0     user32:USER32.dll
 0005:000008c4       __imp__OpenClipboard@4     013d58c4     user32:USER32.dll
 0005:000008c8       __imp__GetWindowDC@4       013d58c8     user32:USER32.dll
 0005:000008cc       __imp__SetWindowRgn@12     013d58cc     user32:USER32.dll
 0005:000008d0       __imp__GetWindowRgn@8      013d58d0     user32:USER32.dll
 0005:000008d4       __imp__DrawTextA@20        013d58d4     user32:USER32.dll
 0005:000008d8       __imp__SetWindowPos@28     013d58d8     user32:USER32.dll
 0005:000008dc       __imp__EnumChildWindows@12 013d58dc     user32:USER32.dll
 0005:000008e0       __imp__wsprintfA           013d58e0     user32:USER32.dll
 0005:000008e4       __imp__FindWindowExA@16    013d58e4     user32:USER32.dll
 0005:000008e8       __imp__GetClientRect@8     013d58e8     user32:USER32.dll
 0005:000008ec       __imp__GetSystemMetrics@4  013d58ec     user32:USER32.dll
 0005:000008f0       __imp__LoadImageA@24       013d58f0     user32:USER32.dll
 0005:000008f4       __imp__LoadMenuA@8         013d58f4     user32:USER32.dll
 0005:000008f8       __imp__GetSubMenu@8        013d58f8     user32:USER32.dll
 0005:000008fc       __imp__GetDesktopWindow@0  013d58fc     user32:USER32.dll
 0005:00000900       __imp__GetWindowRect@8     013d5900     user32:USER32.dll
 0005:00000904       __imp__CreateWindowExA@48  013d5904     user32:USER32.dll
 0005:00000908       __imp__SetWindowLongA@12   013d5908     user32:USER32.dll
 0005:0000090c       __imp__ShowWindow@8        013d590c     user32:USER32.dll
 0005:00000910       __imp__LoadAcceleratorsA@8 013d5910     user32:USER32.dll
 0005:00000914       __imp__GetMessageA@16      013d5914     user32:USER32.dll
 0005:00000918       __imp__TranslateMessage@4  013d5918     user32:USER32.dll
 0005:0000091c       __imp__DispatchMessageA@4  013d591c     user32:USER32.dll
 0005:00000920       __imp__GetWindowLongA@8    013d5920     user32:USER32.dll
 0005:00000924       __imp__ClientToScreen@8    013d5924     user32:USER32.dll
 0005:00000928       __imp__TrackPopupMenu@28   013d5928     user32:USER32.dll
 0005:0000092c       __imp__DestroyWindow@4     013d592c     user32:USER32.dll
 0005:00000930       __imp__InvalidateRect@12   013d5930     user32:USER32.dll
 0005:00000934       __imp__IsWindowVisible@4   013d5934     user32:USER32.dll
 0005:00000938       __imp__MessageBoxA@16      013d5938     user32:USER32.dll
 0005:0000093c       \177USER32_NULL_THUNK_DATA 013d593c     user32:USER32.dll
 0005:0000099c       __imp__timeGetTime@0       013d599c     winmm:WINMM.dll
 0005:000009a0       \177WINMM_NULL_THUNK_DATA  013d59a0     winmm:WINMM.dll

 entry point at        0002:00003e9e

